; Listing generated by Microsoft (R) Optimizing Compiler Version 16.00.30319.01 

	TITLE	D:\Lost Saga For Developer\Youtube\Tutorial\Source\src\LSClient\ioMineWeapon2.cpp
	.686P
	.XMM
	include listing.inc
	.model	flat

INCLUDELIB MSVCRT
INCLUDELIB OLDNAMES

PUBLIC	?_EEM_DS@?$deque@UD3DXVECTOR3@@V?$allocator@UD3DXVECTOR3@@@std@@@std@@2HB ; std::deque<D3DXVECTOR3,std::allocator<D3DXVECTOR3> >::_EEM_DS
PUBLIC	?m_ActionStopType@ioMineWeapon2@@2W4ActionStopType@@A ; ioMineWeapon2::m_ActionStopType
PUBLIC	?m_DieActionStopType@ioMineWeapon2@@2W4ActionStopType@@A ; ioMineWeapon2::m_DieActionStopType
_BSS	SEGMENT
?m_ActionStopType@ioMineWeapon2@@2W4ActionStopType@@A DD 01H DUP (?) ; ioMineWeapon2::m_ActionStopType
?m_DieActionStopType@ioMineWeapon2@@2W4ActionStopType@@A DD 01H DUP (?) ; ioMineWeapon2::m_DieActionStopType
_BSS	ENDS
;	COMDAT ?_EEM_DS@?$deque@UD3DXVECTOR3@@V?$allocator@UD3DXVECTOR3@@@std@@@std@@2HB
CONST	SEGMENT
?_EEM_DS@?$deque@UD3DXVECTOR3@@V?$allocator@UD3DXVECTOR3@@@std@@@std@@2HB DD 01H ; std::deque<D3DXVECTOR3,std::allocator<D3DXVECTOR3> >::_EEM_DS
CONST	ENDS
PUBLIC	?return1@@YAIXZ					; return1
; Function compile flags: /Ogsp
; File d:\lost saga for developer\youtube\tutorial\source\src\lsclient\stdafx.h
;	COMDAT ?return1@@YAIXZ
_TEXT	SEGMENT
?return1@@YAIXZ PROC					; return1, COMDAT

; 17   : 	__forceinline unsigned int return1() { __asm mov eax, 1 };

  00000	b8 01 00 00 00	 mov	 eax, 1
  00005	c3		 ret	 0
?return1@@YAIXZ ENDP					; return1
_TEXT	ENDS
PUBLIC	?return5@@YAIXZ					; return5
; Function compile flags: /Ogsp
;	COMDAT ?return5@@YAIXZ
_TEXT	SEGMENT
?return5@@YAIXZ PROC					; return5, COMDAT

; 18   : 	__forceinline unsigned int return5() { __asm mov eax, 5 };

  00000	b8 05 00 00 00	 mov	 eax, 5
  00005	c3		 ret	 0
?return5@@YAIXZ ENDP					; return5
_TEXT	ENDS
PUBLIC	?return10@@YAIXZ				; return10
; Function compile flags: /Ogsp
;	COMDAT ?return10@@YAIXZ
_TEXT	SEGMENT
?return10@@YAIXZ PROC					; return10, COMDAT

; 21   : 	__forceinline unsigned int return10() { __asm mov eax, 10 };

  00000	b8 0a 00 00 00	 mov	 eax, 10			; 0000000aH
  00005	c3		 ret	 0
?return10@@YAIXZ ENDP					; return10
_TEXT	ENDS
PUBLIC	?return1000@@YAIXZ				; return1000
; Function compile flags: /Ogsp
;	COMDAT ?return1000@@YAIXZ
_TEXT	SEGMENT
?return1000@@YAIXZ PROC					; return1000, COMDAT

; 29   : 	__forceinline unsigned int return1000() { __asm mov eax, 1000 };

  00000	b8 e8 03 00 00	 mov	 eax, 1000		; 000003e8H
  00005	c3		 ret	 0
?return1000@@YAIXZ ENDP					; return1000
_TEXT	ENDS
PUBLIC	?GetBlowStopMotionState@ioBaseChar@@QBE_NXZ	; ioBaseChar::GetBlowStopMotionState
; Function compile flags: /Ogsp
; File d:\lost saga for developer\youtube\tutorial\source\src\lsclient\iobasechar.h
;	COMDAT ?GetBlowStopMotionState@ioBaseChar@@QBE_NXZ
_TEXT	SEGMENT
?GetBlowStopMotionState@ioBaseChar@@QBE_NXZ PROC	; ioBaseChar::GetBlowStopMotionState, COMDAT
; _this$ = ecx

; 1566 : 	inline bool GetBlowStopMotionState() const { return m_bBlowStopMotion; }

  00000	8a 81 c7 15 00
	00		 mov	 al, BYTE PTR [ecx+5575]
  00006	c3		 ret	 0
?GetBlowStopMotionState@ioBaseChar@@QBE_NXZ ENDP	; ioBaseChar::GetBlowStopMotionState
_TEXT	ENDS
PUBLIC	?GetBlowFrozenState@ioBaseChar@@QBE_NXZ		; ioBaseChar::GetBlowFrozenState
; Function compile flags: /Ogsp
;	COMDAT ?GetBlowFrozenState@ioBaseChar@@QBE_NXZ
_TEXT	SEGMENT
?GetBlowFrozenState@ioBaseChar@@QBE_NXZ PROC		; ioBaseChar::GetBlowFrozenState, COMDAT
; _this$ = ecx

; 1571 : 	inline bool GetBlowFrozenState() const { return m_bBlowFrozenState; }

  00000	8a 81 c5 15 00
	00		 mov	 al, BYTE PTR [ecx+5573]
  00006	c3		 ret	 0
?GetBlowFrozenState@ioBaseChar@@QBE_NXZ ENDP		; ioBaseChar::GetBlowFrozenState
_TEXT	ENDS
PUBLIC	?GetState@ioBaseChar@@QBE?AW4CharState@@XZ	; ioBaseChar::GetState
; Function compile flags: /Ogsp
;	COMDAT ?GetState@ioBaseChar@@QBE?AW4CharState@@XZ
_TEXT	SEGMENT
?GetState@ioBaseChar@@QBE?AW4CharState@@XZ PROC		; ioBaseChar::GetState, COMDAT
; _this$ = ecx

; 2156 : 	inline CharState GetState() const { return m_CharState; }	

  00000	8a 81 10 03 00
	00		 mov	 al, BYTE PTR [ecx+784]
  00006	c3		 ret	 0
?GetState@ioBaseChar@@QBE?AW4CharState@@XZ ENDP		; ioBaseChar::GetState
_TEXT	ENDS
PUBLIC	?GetCharName@ioBaseChar@@QBEABVioHashString@@XZ	; ioBaseChar::GetCharName
; Function compile flags: /Ogsp
;	COMDAT ?GetCharName@ioBaseChar@@QBEABVioHashString@@XZ
_TEXT	SEGMENT
?GetCharName@ioBaseChar@@QBEABVioHashString@@XZ PROC	; ioBaseChar::GetCharName, COMDAT
; _this$ = ecx

; 2594 : 	inline const ioHashString& GetCharName() const { return m_Name; }

  00000	8d 81 d4 02 00
	00		 lea	 eax, DWORD PTR [ecx+724]
  00006	c3		 ret	 0
?GetCharName@ioBaseChar@@QBEABVioHashString@@XZ ENDP	; ioBaseChar::GetCharName
_TEXT	ENDS
PUBLIC	_fabsf
EXTRN	__fltused:DWORD
; Function compile flags: /Ogsp
; File c:\program files (x86)\microsoft visual studio 10.0\vc\include\math.h
;	COMDAT _fabsf
_TEXT	SEGMENT
tv129 = 8						; size = 4
__X$ = 8						; size = 4
_fabsf	PROC						; COMDAT

; 395  :         {return ((float)fabs((double)_X)); }

  00000	55		 push	 ebp
  00001	8b ec		 mov	 ebp, esp
  00003	d9 45 08	 fld	 DWORD PTR __X$[ebp]
  00006	d9 e1		 fabs
  00008	d9 5d 08	 fstp	 DWORD PTR tv129[ebp]
  0000b	d9 45 08	 fld	 DWORD PTR tv129[ebp]
  0000e	5d		 pop	 ebp
  0000f	c3		 ret	 0
_fabsf	ENDP
_TEXT	ENDS
PUBLIC	_acosf
EXTRN	__CIacos:PROC
; Function compile flags: /Ogsp
;	COMDAT _acosf
_TEXT	SEGMENT
tv69 = 8						; size = 4
__X$ = 8						; size = 4
_acosf	PROC						; COMDAT

; 400  :         {return ((float)acos((double)_X)); }

  00000	55		 push	 ebp
  00001	8b ec		 mov	 ebp, esp
  00003	d9 45 08	 fld	 DWORD PTR __X$[ebp]
  00006	e8 00 00 00 00	 call	 __CIacos
  0000b	d9 5d 08	 fstp	 DWORD PTR tv69[ebp]
  0000e	d9 45 08	 fld	 DWORD PTR tv69[ebp]
  00011	5d		 pop	 ebp
  00012	c3		 ret	 0
_acosf	ENDP
_TEXT	ENDS
PUBLIC	_sqrtf
EXTRN	__CIsqrt:PROC
; Function compile flags: /Ogsp
;	COMDAT _sqrtf
_TEXT	SEGMENT
tv69 = 8						; size = 4
__X$ = 8						; size = 4
_sqrtf	PROC						; COMDAT

; 434  :         {return ((float)sqrt((double)_X)); }

  00000	55		 push	 ebp
  00001	8b ec		 mov	 ebp, esp
  00003	d9 45 08	 fld	 DWORD PTR __X$[ebp]
  00006	e8 00 00 00 00	 call	 __CIsqrt
  0000b	d9 5d 08	 fstp	 DWORD PTR tv69[ebp]
  0000e	d9 45 08	 fld	 DWORD PTR tv69[ebp]
  00011	5d		 pop	 ebp
  00012	c3		 ret	 0
_sqrtf	ENDP
_TEXT	ENDS
PUBLIC	?acos@@YAMM@Z					; acos
; Function compile flags: /Ogsp
;	COMDAT ?acos@@YAMM@Z
_TEXT	SEGMENT
tv73 = 8						; size = 4
__X$ = 8						; size = 4
?acos@@YAMM@Z PROC					; acos, COMDAT

; 502  :         {return (acosf(_X)); }

  00000	55		 push	 ebp
  00001	8b ec		 mov	 ebp, esp
  00003	d9 45 08	 fld	 DWORD PTR __X$[ebp]
  00006	e8 00 00 00 00	 call	 __CIacos
  0000b	d9 5d 08	 fstp	 DWORD PTR tv73[ebp]
  0000e	d9 45 08	 fld	 DWORD PTR tv73[ebp]
  00011	5d		 pop	 ebp
  00012	c3		 ret	 0
?acos@@YAMM@Z ENDP					; acos
_TEXT	ENDS
PUBLIC	?fabs@@YAMM@Z					; fabs
; Function compile flags: /Ogsp
;	COMDAT ?fabs@@YAMM@Z
_TEXT	SEGMENT
tv131 = 8						; size = 4
__X$ = 8						; size = 4
?fabs@@YAMM@Z PROC					; fabs, COMDAT

; 518  :         {return (fabsf(_X)); }

  00000	55		 push	 ebp
  00001	8b ec		 mov	 ebp, esp
  00003	d9 45 08	 fld	 DWORD PTR __X$[ebp]
  00006	d9 e1		 fabs
  00008	d9 5d 08	 fstp	 DWORD PTR tv131[ebp]
  0000b	d9 45 08	 fld	 DWORD PTR tv131[ebp]
  0000e	5d		 pop	 ebp
  0000f	c3		 ret	 0
?fabs@@YAMM@Z ENDP					; fabs
_TEXT	ENDS
PUBLIC	??_7bad_alloc@std@@6B@				; std::bad_alloc::`vftable'
PUBLIC	??0bad_alloc@std@@QAE@PBD@Z			; std::bad_alloc::bad_alloc
PUBLIC	??_R4bad_alloc@std@@6B@				; std::bad_alloc::`RTTI Complete Object Locator'
PUBLIC	??_R0?AVbad_alloc@std@@@8			; std::bad_alloc `RTTI Type Descriptor'
PUBLIC	??_R3bad_alloc@std@@8				; std::bad_alloc::`RTTI Class Hierarchy Descriptor'
PUBLIC	??_R2bad_alloc@std@@8				; std::bad_alloc::`RTTI Base Class Array'
PUBLIC	??_R1A@?0A@EA@bad_alloc@std@@8			; std::bad_alloc::`RTTI Base Class Descriptor at (0,-1,0,64)'
PUBLIC	??_R1A@?0A@EA@exception@std@@8			; std::exception::`RTTI Base Class Descriptor at (0,-1,0,64)'
PUBLIC	??_R0?AVexception@std@@@8			; std::exception `RTTI Type Descriptor'
PUBLIC	??_R3exception@std@@8				; std::exception::`RTTI Class Hierarchy Descriptor'
PUBLIC	??_R2exception@std@@8				; std::exception::`RTTI Base Class Array'
EXTRN	__imp_??0exception@std@@QAE@ABQBD@Z:PROC
EXTRN	??_7type_info@@6B@:QWORD			; type_info::`vftable'
EXTRN	??_Ebad_alloc@std@@UAEPAXI@Z:PROC		; std::bad_alloc::`vector deleting destructor'
EXTRN	?what@exception@std@@UBEPBDXZ:PROC		; std::exception::what
;	COMDAT ??_R2exception@std@@8
; File c:\program files (x86)\microsoft visual studio 10.0\vc\include\exception
rdata$r	SEGMENT
??_R2exception@std@@8 DD FLAT:??_R1A@?0A@EA@exception@std@@8 ; std::exception::`RTTI Base Class Array'
rdata$r	ENDS
;	COMDAT ??_R3exception@std@@8
rdata$r	SEGMENT
??_R3exception@std@@8 DD 00H				; std::exception::`RTTI Class Hierarchy Descriptor'
	DD	00H
	DD	01H
	DD	FLAT:??_R2exception@std@@8
rdata$r	ENDS
;	COMDAT ??_R0?AVexception@std@@@8
_DATA	SEGMENT
??_R0?AVexception@std@@@8 DD FLAT:??_7type_info@@6B@	; std::exception `RTTI Type Descriptor'
	DD	00H
	DB	'.?AVexception@std@@', 00H
_DATA	ENDS
;	COMDAT ??_R1A@?0A@EA@exception@std@@8
rdata$r	SEGMENT
??_R1A@?0A@EA@exception@std@@8 DD FLAT:??_R0?AVexception@std@@@8 ; std::exception::`RTTI Base Class Descriptor at (0,-1,0,64)'
	DD	00H
	DD	00H
	DD	0ffffffffH
	DD	00H
	DD	040H
	DD	FLAT:??_R3exception@std@@8
rdata$r	ENDS
;	COMDAT ??_R1A@?0A@EA@bad_alloc@std@@8
rdata$r	SEGMENT
??_R1A@?0A@EA@bad_alloc@std@@8 DD FLAT:??_R0?AVbad_alloc@std@@@8 ; std::bad_alloc::`RTTI Base Class Descriptor at (0,-1,0,64)'
	DD	01H
	DD	00H
	DD	0ffffffffH
	DD	00H
	DD	040H
	DD	FLAT:??_R3bad_alloc@std@@8
rdata$r	ENDS
;	COMDAT ??_R2bad_alloc@std@@8
rdata$r	SEGMENT
??_R2bad_alloc@std@@8 DD FLAT:??_R1A@?0A@EA@bad_alloc@std@@8 ; std::bad_alloc::`RTTI Base Class Array'
	DD	FLAT:??_R1A@?0A@EA@exception@std@@8
rdata$r	ENDS
;	COMDAT ??_R3bad_alloc@std@@8
rdata$r	SEGMENT
??_R3bad_alloc@std@@8 DD 00H				; std::bad_alloc::`RTTI Class Hierarchy Descriptor'
	DD	00H
	DD	02H
	DD	FLAT:??_R2bad_alloc@std@@8
rdata$r	ENDS
;	COMDAT ??_R0?AVbad_alloc@std@@@8
_DATA	SEGMENT
??_R0?AVbad_alloc@std@@@8 DD FLAT:??_7type_info@@6B@	; std::bad_alloc `RTTI Type Descriptor'
	DD	00H
	DB	'.?AVbad_alloc@std@@', 00H
_DATA	ENDS
;	COMDAT ??_R4bad_alloc@std@@6B@
rdata$r	SEGMENT
??_R4bad_alloc@std@@6B@ DD 00H				; std::bad_alloc::`RTTI Complete Object Locator'
	DD	00H
	DD	00H
	DD	FLAT:??_R0?AVbad_alloc@std@@@8
	DD	FLAT:??_R3bad_alloc@std@@8
rdata$r	ENDS
;	COMDAT ??_7bad_alloc@std@@6B@
CONST	SEGMENT
??_7bad_alloc@std@@6B@ DD FLAT:??_R4bad_alloc@std@@6B@	; std::bad_alloc::`vftable'
	DD	FLAT:??_Ebad_alloc@std@@UAEPAXI@Z
	DD	FLAT:?what@exception@std@@UBEPBDXZ
; Function compile flags: /Ogsp
CONST	ENDS
;	COMDAT ??0bad_alloc@std@@QAE@PBD@Z
_TEXT	SEGMENT
__Message$ = 8						; size = 4
??0bad_alloc@std@@QAE@PBD@Z PROC			; std::bad_alloc::bad_alloc, COMDAT
; _this$ = ecx

; 345  : 		{	// construct from message string

  00000	55		 push	 ebp
  00001	8b ec		 mov	 ebp, esp
  00003	56		 push	 esi
  00004	8d 45 08	 lea	 eax, DWORD PTR __Message$[ebp]
  00007	50		 push	 eax
  00008	8b f1		 mov	 esi, ecx
  0000a	ff 15 00 00 00
	00		 call	 DWORD PTR __imp_??0exception@std@@QAE@ABQBD@Z
  00010	c7 06 00 00 00
	00		 mov	 DWORD PTR [esi], OFFSET ??_7bad_alloc@std@@6B@

; 346  : 		}

  00016	8b c6		 mov	 eax, esi
  00018	5e		 pop	 esi
  00019	5d		 pop	 ebp
  0001a	c2 04 00	 ret	 4
??0bad_alloc@std@@QAE@PBD@Z ENDP			; std::bad_alloc::bad_alloc
_TEXT	ENDS
PUBLIC	??1bad_alloc@std@@UAE@XZ			; std::bad_alloc::~bad_alloc
EXTRN	__imp_??1exception@std@@UAE@XZ:PROC
; Function compile flags: /Ogsp
;	COMDAT ??1bad_alloc@std@@UAE@XZ
_TEXT	SEGMENT
??1bad_alloc@std@@UAE@XZ PROC				; std::bad_alloc::~bad_alloc, COMDAT
; _this$ = ecx

; 354  : 		{	// destroy the object

  00000	c7 01 00 00 00
	00		 mov	 DWORD PTR [ecx], OFFSET ??_7bad_alloc@std@@6B@

; 355  : 		}

  00006	ff 25 00 00 00
	00		 jmp	 DWORD PTR __imp_??1exception@std@@UAE@XZ
??1bad_alloc@std@@UAE@XZ ENDP				; std::bad_alloc::~bad_alloc
_TEXT	ENDS
EXTRN	??3@YAXPAX@Z:PROC				; operator delete
; Function compile flags: /Ogsp
;	COMDAT ??_Gbad_alloc@std@@UAEPAXI@Z
_TEXT	SEGMENT
___flags$ = 8						; size = 4
??_Gbad_alloc@std@@UAEPAXI@Z PROC			; std::bad_alloc::`scalar deleting destructor', COMDAT
; _this$ = ecx
  00000	55		 push	 ebp
  00001	8b ec		 mov	 ebp, esp
  00003	56		 push	 esi
  00004	8b f1		 mov	 esi, ecx
  00006	c7 06 00 00 00
	00		 mov	 DWORD PTR [esi], OFFSET ??_7bad_alloc@std@@6B@
  0000c	ff 15 00 00 00
	00		 call	 DWORD PTR __imp_??1exception@std@@UAE@XZ
  00012	f6 45 08 01	 test	 BYTE PTR ___flags$[ebp], 1
  00016	74 07		 je	 SHORT $LN1@scalar
  00018	56		 push	 esi
  00019	e8 00 00 00 00	 call	 ??3@YAXPAX@Z		; operator delete
  0001e	59		 pop	 ecx
$LN1@scalar:
  0001f	8b c6		 mov	 eax, esi
  00021	5e		 pop	 esi
  00022	5d		 pop	 ebp
  00023	c2 04 00	 ret	 4
??_Gbad_alloc@std@@UAEPAXI@Z ENDP			; std::bad_alloc::`scalar deleting destructor'
_TEXT	ENDS
PUBLIC	??2@YAPAXIPAX@Z					; operator new
; Function compile flags: /Ogsp
; File c:\program files (x86)\microsoft visual studio 10.0\vc\include\new
;	COMDAT ??2@YAPAXIPAX@Z
_TEXT	SEGMENT
___formal$ = 8						; size = 4
__Where$ = 12						; size = 4
??2@YAPAXIPAX@Z PROC					; operator new, COMDAT

; 56   : 	{	// construct array with placement at _Where

  00000	55		 push	 ebp
  00001	8b ec		 mov	 ebp, esp

; 57   : 	return (_Where);

  00003	8b 45 0c	 mov	 eax, DWORD PTR __Where$[ebp]

; 58   : 	}

  00006	5d		 pop	 ebp
  00007	c3		 ret	 0
??2@YAPAXIPAX@Z ENDP					; operator new
_TEXT	ENDS
PUBLIC	??3@YAXPAX0@Z					; operator delete
; Function compile flags: /Ogsp
;	COMDAT ??3@YAXPAX0@Z
_TEXT	SEGMENT
___formal$ = 8						; size = 4
___formal$ = 12						; size = 4
??3@YAXPAX0@Z PROC					; operator delete, COMDAT

; 62   : 	}

  00000	c3		 ret	 0
??3@YAXPAX0@Z ENDP					; operator delete
_TEXT	ENDS
PUBLIC	?GetBaseCharList@ioPlayStage@@QBEABV?$vector@PAVioBaseChar@@V?$allocator@PAVioBaseChar@@@std@@@std@@XZ ; ioPlayStage::GetBaseCharList
; Function compile flags: /Ogsp
; File d:\lost saga for developer\youtube\tutorial\source\src\lsclient\ioplaystage.h
;	COMDAT ?GetBaseCharList@ioPlayStage@@QBEABV?$vector@PAVioBaseChar@@V?$allocator@PAVioBaseChar@@@std@@@std@@XZ
_TEXT	SEGMENT
?GetBaseCharList@ioPlayStage@@QBEABV?$vector@PAVioBaseChar@@V?$allocator@PAVioBaseChar@@@std@@@std@@XZ PROC ; ioPlayStage::GetBaseCharList, COMDAT
; _this$ = ecx

; 755  : 	const BaseCharList& GetBaseCharList() const { return m_BaseCharList; }

  00000	8d 41 2c	 lea	 eax, DWORD PTR [ecx+44]
  00003	c3		 ret	 0
?GetBaseCharList@ioPlayStage@@QBEABV?$vector@PAVioBaseChar@@V?$allocator@PAVioBaseChar@@@std@@@std@@XZ ENDP ; ioPlayStage::GetBaseCharList
_TEXT	ENDS
PUBLIC	?_Adopt@_Iterator_base0@std@@QAEXPBX@Z		; std::_Iterator_base0::_Adopt
; Function compile flags: /Ogsp
; File c:\program files (x86)\microsoft visual studio 10.0\vc\include\xutility
;	COMDAT ?_Adopt@_Iterator_base0@std@@QAEXPBX@Z
_TEXT	SEGMENT
___formal$ = 8						; size = 4
?_Adopt@_Iterator_base0@std@@QAEXPBX@Z PROC		; std::_Iterator_base0::_Adopt, COMDAT
; _this$ = ecx

; 49   : 		}

  00000	c2 04 00	 ret	 4
?_Adopt@_Iterator_base0@std@@QAEXPBX@Z ENDP		; std::_Iterator_base0::_Adopt
_TEXT	ENDS
PUBLIC	?OnCharge@ioMineWeapon2@@IAEXPAVioPlayStage@@@Z	; ioMineWeapon2::OnCharge
EXTRN	__imp_?GetLoopSec@ioFrameTimer@@QBEKXZ:PROC
EXTRN	__imp_?GetSingleton@ioFrameTimer@@SAAAV1@XZ:PROC
; Function compile flags: /Ogsp
; File d:\lost saga for developer\youtube\tutorial\source\src\lsclient\iomineweapon2.cpp
;	COMDAT ?OnCharge@ioMineWeapon2@@IAEXPAVioPlayStage@@@Z
_TEXT	SEGMENT
_pStage$ = 8						; size = 4
?OnCharge@ioMineWeapon2@@IAEXPAVioPlayStage@@@Z PROC	; ioMineWeapon2::OnCharge, COMDAT
; _this$ = ecx

; 371  : {

  00000	56		 push	 esi
  00001	8b f1		 mov	 esi, ecx

; 372  : 	if( m_dwSensingStartTime > FRAMEGETTIME() )

  00003	ff 15 00 00 00
	00		 call	 DWORD PTR __imp_?GetSingleton@ioFrameTimer@@SAAAV1@XZ
  00009	8b c8		 mov	 ecx, eax
  0000b	ff 15 00 00 00
	00		 call	 DWORD PTR __imp_?GetLoopSec@ioFrameTimer@@QBEKXZ
  00011	39 86 98 08 00
	00		 cmp	 DWORD PTR [esi+2200], eax
  00017	77 0a		 ja	 SHORT $LN2@OnCharge

; 373  : 		return;
; 374  : 
; 375  : 	m_State = MS_SENSING;

  00019	c7 86 9c 0b 00
	00 01 00 00 00	 mov	 DWORD PTR [esi+2972], 1
$LN2@OnCharge:
  00023	5e		 pop	 esi

; 376  : 	/*
; 377  : 	// 폭발, 생성 신호가 역전된 지뢰인지를 체크함, 역전되었으면 바로 폭발..~
; 378  : 	if( g_WeaponMgr.CheckMissingIngMineIndex( m_iWeaponIdx ) )
; 379  : 	{
; 380  : 		SetWaitExplosionMine( pStage, false );
; 381  : 	}
; 382  : 	else
; 383  : 	{		
; 384  : 		m_State = MS_SENSING;
; 385  : 	}
; 386  : 	*/
; 387  : }

  00024	c2 04 00	 ret	 4
?OnCharge@ioMineWeapon2@@IAEXPAVioPlayStage@@@Z ENDP	; ioMineWeapon2::OnCharge
_TEXT	ENDS
PUBLIC	__real@4f800000
PUBLIC	__real@00000000
PUBLIC	?DropZoneCheck@ioMineWeapon2@@IAE_NPAVioPlayStage@@@Z ; ioMineWeapon2::DropZoneCheck
EXTRN	?GetMapHeightOnlyTerrain@ioPlayStage@@QAEMMMM@Z:PROC ; ioPlayStage::GetMapHeightOnlyTerrain
EXTRN	?GetMapHeightNoneEntity@ioPlayStage@@QAEMMMM_N@Z:PROC ; ioPlayStage::GetMapHeightNoneEntity
;	COMDAT __real@4f800000
; File d:\lost saga for developer\youtube\tutorial\source\src\lsclient\stdafx.h
CONST	SEGMENT
__real@4f800000 DD 04f800000r			; 4.29497e+009
CONST	ENDS
;	COMDAT __real@00000000
CONST	SEGMENT
__real@00000000 DD 000000000r			; 0
; Function compile flags: /Ogsp
; File d:\lost saga for developer\youtube\tutorial\source\src\lsclient\iomineweapon2.cpp
CONST	ENDS
;	COMDAT ?DropZoneCheck@ioMineWeapon2@@IAE_NPAVioPlayStage@@@Z
_TEXT	SEGMENT
_vCurPos$ = -12						; size = 12
tv155 = 8						; size = 4
tv135 = 8						; size = 4
tv128 = 8						; size = 4
_f_MapHeight$ = 8					; size = 4
_pStage$ = 8						; size = 4
?DropZoneCheck@ioMineWeapon2@@IAE_NPAVioPlayStage@@@Z PROC ; ioMineWeapon2::DropZoneCheck, COMDAT
; _this$ = ecx

; 509  : {

  00000	55		 push	 ebp
  00001	8b ec		 mov	 ebp, esp
  00003	83 ec 0c	 sub	 esp, 12			; 0000000cH

; 510  : 	D3DXVECTOR3 vCurPos = GetPosition();

  00006	8b 01		 mov	 eax, DWORD PTR [ecx]
  00008	56		 push	 esi
  00009	57		 push	 edi
  0000a	ff 50 70	 call	 DWORD PTR [eax+112]

; 511  : 	float f_MapHeight = pStage->GetMapHeightNoneEntity( vCurPos.x, vCurPos.z );

  0000d	0f 57 c0	 xorps	 xmm0, xmm0
  00010	8b 4d 08	 mov	 ecx, DWORD PTR _pStage$[ebp]
  00013	8b f0		 mov	 esi, eax
  00015	8d 7d f4	 lea	 edi, DWORD PTR _vCurPos$[ebp]
  00018	a5		 movsd
  00019	a5		 movsd
  0001a	6a 00		 push	 0
  0001c	83 ec 0c	 sub	 esp, 12			; 0000000cH
  0001f	f3 0f 11 44 24
	08		 movss	 DWORD PTR [esp+8], xmm0
  00025	a5		 movsd
  00026	f3 0f 10 45 fc	 movss	 xmm0, DWORD PTR _vCurPos$[ebp+8]
  0002b	f3 0f 11 44 24
	04		 movss	 DWORD PTR [esp+4], xmm0
  00031	f3 0f 10 45 f4	 movss	 xmm0, DWORD PTR _vCurPos$[ebp]
  00036	f3 0f 11 04 24	 movss	 DWORD PTR [esp], xmm0
  0003b	e8 00 00 00 00	 call	 ?GetMapHeightNoneEntity@ioPlayStage@@QAEMMMM_N@Z ; ioPlayStage::GetMapHeightNoneEntity

; 512  : 
; 513  : 	if ( f_MapHeight > 0.0f )

  00040	d9 ee		 fldz
  00042	d9 c9		 fxch	 ST(1)
  00044	5f		 pop	 edi
  00045	5e		 pop	 esi
  00046	df f1		 fcomip	 ST(1)
  00048	dd d8		 fstp	 ST(0)

; 514  : 	{
; 515  : 		return false;

  0004a	77 61		 ja	 SHORT $LN1@DropZoneCh

; 516  : 	}
; 517  : 
; 518  : 	f_MapHeight = pStage->GetMapHeightOnlyTerrain( vCurPos.x, vCurPos.z );

  0004c	0f 57 c0	 xorps	 xmm0, xmm0
  0004f	8b 4d 08	 mov	 ecx, DWORD PTR _pStage$[ebp]
  00052	83 ec 0c	 sub	 esp, 12			; 0000000cH
  00055	f3 0f 11 44 24
	08		 movss	 DWORD PTR [esp+8], xmm0
  0005b	f3 0f 10 45 fc	 movss	 xmm0, DWORD PTR _vCurPos$[ebp+8]
  00060	f3 0f 11 44 24
	04		 movss	 DWORD PTR [esp+4], xmm0
  00066	f3 0f 10 45 f4	 movss	 xmm0, DWORD PTR _vCurPos$[ebp]
  0006b	f3 0f 11 04 24	 movss	 DWORD PTR [esp], xmm0
  00070	e8 00 00 00 00	 call	 ?GetMapHeightOnlyTerrain@ioPlayStage@@QAEMMMM@Z ; ioPlayStage::GetMapHeightOnlyTerrain
  00075	d9 5d 08	 fstp	 DWORD PTR _f_MapHeight$[ebp]

; 519  : 	if( fabs(f_MapHeight - vCurPos.y) >= FLOAT10 )

  00078	b8 0a 00 00 00	 mov	 eax, 10			; 0000000aH
  0007d	d9 45 08	 fld	 DWORD PTR _f_MapHeight$[ebp]
  00080	d8 65 f8	 fsub	 DWORD PTR _vCurPos$[ebp+4]
  00083	d9 5d 08	 fstp	 DWORD PTR tv155[ebp]
  00086	d9 45 08	 fld	 DWORD PTR tv155[ebp]
  00089	d9 e1		 fabs
  0008b	d9 5d 08	 fstp	 DWORD PTR tv135[ebp]
  0008e	d9 45 08	 fld	 DWORD PTR tv135[ebp]
  00091	89 45 08	 mov	 DWORD PTR tv128[ebp], eax
  00094	db 45 08	 fild	 DWORD PTR tv128[ebp]
  00097	85 c0		 test	 eax, eax
  00099	79 06		 jns	 SHORT $LN11@DropZoneCh
  0009b	d8 05 00 00 00
	00		 fadd	 DWORD PTR __real@4f800000
$LN11@DropZoneCh:
  000a1	d9 c9		 fxch	 ST(1)
  000a3	df f1		 fcomip	 ST(1)
  000a5	dd d8		 fstp	 ST(0)
  000a7	72 04		 jb	 SHORT $LN1@DropZoneCh

; 520  : 		return true;

  000a9	b0 01		 mov	 al, 1
  000ab	eb 02		 jmp	 SHORT $LN3@DropZoneCh
$LN1@DropZoneCh:

; 521  : 
; 522  : 	return false;

  000ad	32 c0		 xor	 al, al
$LN3@DropZoneCh:

; 523  : }

  000af	c9		 leave
  000b0	c2 04 00	 ret	 4
?DropZoneCheck@ioMineWeapon2@@IAE_NPAVioPlayStage@@@Z ENDP ; ioMineWeapon2::DropZoneCheck
_TEXT	ENDS
PUBLIC	?SetFlyTraceMine@ioMineWeapon2@@QAEXPAVioPlayStage@@@Z ; ioMineWeapon2::SetFlyTraceMine
; Function compile flags: /Ogsp
;	COMDAT ?SetFlyTraceMine@ioMineWeapon2@@QAEXPAVioPlayStage@@@Z
_TEXT	SEGMENT
_pStage$ = 8						; size = 4
?SetFlyTraceMine@ioMineWeapon2@@QAEXPAVioPlayStage@@@Z PROC ; ioMineWeapon2::SetFlyTraceMine, COMDAT
; _this$ = ecx

; 639  : {

  00000	56		 push	 esi
  00001	8b f1		 mov	 esi, ecx

; 640  : 	m_State = MS_FLY_TRACING;

  00003	c7 86 9c 0b 00
	00 04 00 00 00	 mov	 DWORD PTR [esi+2972], 4

; 641  : 	m_dwTraceEndTime = FRAMEGETTIME() + m_dwTraceDuration;

  0000d	ff 15 00 00 00
	00		 call	 DWORD PTR __imp_?GetSingleton@ioFrameTimer@@SAAAV1@XZ
  00013	8b c8		 mov	 ecx, eax
  00015	ff 15 00 00 00
	00		 call	 DWORD PTR __imp_?GetLoopSec@ioFrameTimer@@QBEKXZ
  0001b	03 86 f4 09 00
	00		 add	 eax, DWORD PTR [esi+2548]
  00021	89 86 f8 09 00
	00		 mov	 DWORD PTR [esi+2552], eax
  00027	5e		 pop	 esi

; 642  : }

  00028	c2 04 00	 ret	 4
?SetFlyTraceMine@ioMineWeapon2@@QAEXPAVioPlayStage@@@Z ENDP ; ioMineWeapon2::SetFlyTraceMine
_TEXT	ENDS
PUBLIC	?SetTraceTarget@ioMineWeapon2@@QAEXVioHashString@@@Z ; ioMineWeapon2::SetTraceTarget
EXTRN	__imp_??1ioHashString@@QAE@XZ:PROC
EXTRN	__imp_??4ioHashString@@QAEAAV0@ABV0@@Z:PROC
EXTRN	__imp_?Clear@ioHashString@@QAEXXZ:PROC
EXTRN	___CxxFrameHandler3:PROC
EXTRN	@__security_check_cookie@4:PROC
EXTRN	__EH_epilog3:PROC
EXTRN	__EH_prolog3:PROC
;	COMDAT xdata$x
xdata$x	SEGMENT
__unwindtable$?SetTraceTarget@ioMineWeapon2@@QAEXVioHashString@@@Z DD 0ffffffffH
	DD	FLAT:__unwindfunclet$?SetTraceTarget@ioMineWeapon2@@QAEXVioHashString@@@Z$0
__ehfuncinfo$?SetTraceTarget@ioMineWeapon2@@QAEXVioHashString@@@Z DD 019930522H
	DD	01H
	DD	FLAT:__unwindtable$?SetTraceTarget@ioMineWeapon2@@QAEXVioHashString@@@Z
	DD	2 DUP(00H)
	DD	2 DUP(00H)
	DD	00H
	DD	01H
; Function compile flags: /Ogsp
xdata$x	ENDS
;	COMDAT ?SetTraceTarget@ioMineWeapon2@@QAEXVioHashString@@@Z
_TEXT	SEGMENT
__$EHRec$ = -12						; size = 12
_szTarget$ = 8						; size = 16
?SetTraceTarget@ioMineWeapon2@@QAEXVioHashString@@@Z PROC ; ioMineWeapon2::SetTraceTarget, COMDAT
; _this$ = ecx

; 868  : {

  00000	6a 00		 push	 0
  00002	b8 00 00 00 00	 mov	 eax, __ehhandler$?SetTraceTarget@ioMineWeapon2@@QAEXVioHashString@@@Z
  00007	e8 00 00 00 00	 call	 __EH_prolog3
  0000c	83 65 fc 00	 and	 DWORD PTR __$EHRec$[ebp+8], 0

; 869  : 	m_szTargetName.Clear();

  00010	8d b1 ac 08 00
	00		 lea	 esi, DWORD PTR [ecx+2220]
  00016	8b ce		 mov	 ecx, esi
  00018	ff 15 00 00 00
	00		 call	 DWORD PTR __imp_?Clear@ioHashString@@QAEXXZ

; 870  : 	m_szTargetName = szTarget;

  0001e	8d 45 08	 lea	 eax, DWORD PTR _szTarget$[ebp]
  00021	50		 push	 eax
  00022	8b ce		 mov	 ecx, esi
  00024	ff 15 00 00 00
	00		 call	 DWORD PTR __imp_??4ioHashString@@QAEAAV0@ABV0@@Z

; 871  : }

  0002a	83 4d fc ff	 or	 DWORD PTR __$EHRec$[ebp+8], -1
  0002e	8d 4d 08	 lea	 ecx, DWORD PTR _szTarget$[ebp]
  00031	ff 15 00 00 00
	00		 call	 DWORD PTR __imp_??1ioHashString@@QAE@XZ
  00037	e8 00 00 00 00	 call	 __EH_epilog3
  0003c	c2 10 00	 ret	 16			; 00000010H
_TEXT	ENDS
;	COMDAT text$x
text$x	SEGMENT
__unwindfunclet$?SetTraceTarget@ioMineWeapon2@@QAEXVioHashString@@@Z$0:
  00000	8d 4d 08	 lea	 ecx, DWORD PTR _szTarget$[ebp]
  00003	ff 25 00 00 00
	00		 jmp	 DWORD PTR __imp_??1ioHashString@@QAE@XZ
__ehhandler$?SetTraceTarget@ioMineWeapon2@@QAEXVioHashString@@@Z:
  00009	8b 54 24 08	 mov	 edx, DWORD PTR [esp+8]
  0000d	8d 42 0c	 lea	 eax, DWORD PTR [edx+12]
  00010	8b 4a f0	 mov	 ecx, DWORD PTR [edx-16]
  00013	33 c8		 xor	 ecx, eax
  00015	e8 00 00 00 00	 call	 @__security_check_cookie@4
  0001a	b8 00 00 00 00	 mov	 eax, OFFSET __ehfuncinfo$?SetTraceTarget@ioMineWeapon2@@QAEXVioHashString@@@Z
  0001f	e9 00 00 00 00	 jmp	 ___CxxFrameHandler3
text$x	ENDS
?SetTraceTarget@ioMineWeapon2@@QAEXVioHashString@@@Z ENDP ; ioMineWeapon2::SetTraceTarget
PUBLIC	?OnExplosion@ioMineWeapon2@@IAEXXZ		; ioMineWeapon2::OnExplosion
EXTRN	__imp_?StopSound@ioSoundManager@@QAEXABVioHashString@@K@Z:PROC
EXTRN	__imp_?GetSingleton@ioSoundManager@@SAAAV1@XZ:PROC
EXTRN	__imp_?IsEmpty@ioHashString@@QBE_NXZ:PROC
; Function compile flags: /Ogsp
;	COMDAT ?OnExplosion@ioMineWeapon2@@IAEXXZ
_TEXT	SEGMENT
?OnExplosion@ioMineWeapon2@@IAEXXZ PROC			; ioMineWeapon2::OnExplosion, COMDAT
; _this$ = ecx

; 911  : {

  00000	56		 push	 esi
  00001	8b f1		 mov	 esi, ecx

; 912  : 	if( m_bWait )

  00003	80 be 5e 0b 00
	00 00		 cmp	 BYTE PTR [esi+2910], 0
  0000a	74 09		 je	 SHORT $LN2@OnExplosio

; 913  : 	{
; 914  : 		m_bWait = false;

  0000c	c6 86 5e 0b 00
	00 00		 mov	 BYTE PTR [esi+2910], 0
  00013	5e		 pop	 esi

; 924  : }

  00014	c3		 ret	 0
$LN2@OnExplosio:
  00015	57		 push	 edi

; 915  : 		return;
; 916  : 	}
; 917  : 	
; 918  : 	if( !m_szTraceStartSound.IsEmpty() )

  00016	8d be d8 0b 00
	00		 lea	 edi, DWORD PTR [esi+3032]
  0001c	8b cf		 mov	 ecx, edi
  0001e	ff 15 00 00 00
	00		 call	 DWORD PTR __imp_?IsEmpty@ioHashString@@QBE_NXZ
  00024	84 c0		 test	 al, al
  00026	75 15		 jne	 SHORT $LN1@OnExplosio

; 919  : 	{			
; 920  : 		g_SoundMgr.StopSound( m_szTraceStartSound, m_dwTraceStartSound );	

  00028	ff b6 e8 0b 00
	00		 push	 DWORD PTR [esi+3048]
  0002e	57		 push	 edi
  0002f	ff 15 00 00 00
	00		 call	 DWORD PTR __imp_?GetSingleton@ioSoundManager@@SAAAV1@XZ
  00035	8b c8		 mov	 ecx, eax
  00037	ff 15 00 00 00
	00		 call	 DWORD PTR __imp_?StopSound@ioSoundManager@@QAEXABVioHashString@@K@Z
$LN1@OnExplosio:

; 921  : 	}
; 922  : 
; 923  : 	SetWeaponDead();

  0003d	8b 06		 mov	 eax, DWORD PTR [esi]
  0003f	5f		 pop	 edi
  00040	8b ce		 mov	 ecx, esi
  00042	5e		 pop	 esi
  00043	ff 60 4c	 jmp	 DWORD PTR [eax+76]
?OnExplosion@ioMineWeapon2@@IAEXXZ ENDP			; ioMineWeapon2::OnExplosion
_TEXT	ENDS
PUBLIC	?OnNormalDead@ioMineWeapon2@@IAEXXZ		; ioMineWeapon2::OnNormalDead
; Function compile flags: /Ogsp
;	COMDAT ?OnNormalDead@ioMineWeapon2@@IAEXXZ
_TEXT	SEGMENT
?OnNormalDead@ioMineWeapon2@@IAEXXZ PROC		; ioMineWeapon2::OnNormalDead, COMDAT
; _this$ = ecx

; 928  : 	if( m_bWait )

  00000	80 b9 5e 0b 00
	00 00		 cmp	 BYTE PTR [ecx+2910], 0
  00007	74 08		 je	 SHORT $LN1@OnNormalDe

; 929  : 	{
; 930  : 		m_bWait = false;

  00009	c6 81 5e 0b 00
	00 00		 mov	 BYTE PTR [ecx+2910], 0

; 935  : }

  00010	c3		 ret	 0
$LN1@OnNormalDe:

; 931  : 		return;
; 932  : 	}
; 933  : 
; 934  : 	SetWeaponDead();

  00011	8b 01		 mov	 eax, DWORD PTR [ecx]
  00013	ff 60 4c	 jmp	 DWORD PTR [eax+76]
?OnNormalDead@ioMineWeapon2@@IAEXXZ ENDP		; ioMineWeapon2::OnNormalDead
_TEXT	ENDS
PUBLIC	?GetLocalAttackBox@ioMineWeapon2@@UBEABVioOrientBox@@XZ ; ioMineWeapon2::GetLocalAttackBox
; Function compile flags: /Ogsp
;	COMDAT ?GetLocalAttackBox@ioMineWeapon2@@UBEABVioOrientBox@@XZ
_TEXT	SEGMENT
?GetLocalAttackBox@ioMineWeapon2@@UBEABVioOrientBox@@XZ PROC ; ioMineWeapon2::GetLocalAttackBox, COMDAT
; _this$ = ecx

; 975  : 	return m_LocalAttackBox;

  00000	8d 81 18 0b 00
	00		 lea	 eax, DWORD PTR [ecx+2840]

; 976  : }

  00006	c3		 ret	 0
?GetLocalAttackBox@ioMineWeapon2@@UBEABVioOrientBox@@XZ ENDP ; ioMineWeapon2::GetLocalAttackBox
_TEXT	ENDS
PUBLIC	?GetType@ioMineWeapon2@@UBE?AW4WeaponType@ioWeapon@@XZ ; ioMineWeapon2::GetType
; Function compile flags: /Ogsp
;	COMDAT ?GetType@ioMineWeapon2@@UBE?AW4WeaponType@ioWeapon@@XZ
_TEXT	SEGMENT
?GetType@ioMineWeapon2@@UBE?AW4WeaponType@ioWeapon@@XZ PROC ; ioMineWeapon2::GetType, COMDAT
; _this$ = ecx

; 980  : 	return WT_MINE2;

  00000	6a 43		 push	 67			; 00000043H
  00002	58		 pop	 eax

; 981  : }

  00003	c3		 ret	 0
?GetType@ioMineWeapon2@@UBE?AW4WeaponType@ioWeapon@@XZ ENDP ; ioMineWeapon2::GetType
_TEXT	ENDS
PUBLIC	?GetActionStopType@ioMineWeapon2@@UBE?AW4ActionStopType@@XZ ; ioMineWeapon2::GetActionStopType
; Function compile flags: /Ogsp
;	COMDAT ?GetActionStopType@ioMineWeapon2@@UBE?AW4ActionStopType@@XZ
_TEXT	SEGMENT
?GetActionStopType@ioMineWeapon2@@UBE?AW4ActionStopType@@XZ PROC ; ioMineWeapon2::GetActionStopType, COMDAT
; _this$ = ecx

; 985  : 	return m_ActionStopType;

  00000	a1 00 00 00 00	 mov	 eax, DWORD PTR ?m_ActionStopType@ioMineWeapon2@@2W4ActionStopType@@A ; ioMineWeapon2::m_ActionStopType

; 986  : }

  00005	c3		 ret	 0
?GetActionStopType@ioMineWeapon2@@UBE?AW4ActionStopType@@XZ ENDP ; ioMineWeapon2::GetActionStopType
_TEXT	ENDS
PUBLIC	?GetDieActionStopType@ioMineWeapon2@@UBE?AW4ActionStopType@@XZ ; ioMineWeapon2::GetDieActionStopType
; Function compile flags: /Ogsp
;	COMDAT ?GetDieActionStopType@ioMineWeapon2@@UBE?AW4ActionStopType@@XZ
_TEXT	SEGMENT
?GetDieActionStopType@ioMineWeapon2@@UBE?AW4ActionStopType@@XZ PROC ; ioMineWeapon2::GetDieActionStopType, COMDAT
; _this$ = ecx

; 990  : 	return m_DieActionStopType;

  00000	a1 00 00 00 00	 mov	 eax, DWORD PTR ?m_DieActionStopType@ioMineWeapon2@@2W4ActionStopType@@A ; ioMineWeapon2::m_DieActionStopType

; 991  : }

  00005	c3		 ret	 0
?GetDieActionStopType@ioMineWeapon2@@UBE?AW4ActionStopType@@XZ ENDP ; ioMineWeapon2::GetDieActionStopType
_TEXT	ENDS
PUBLIC	?GetSensingStartGapTime@ioMineWeapon2@@QAEKXZ	; ioMineWeapon2::GetSensingStartGapTime
; Function compile flags: /Ogsp
;	COMDAT ?GetSensingStartGapTime@ioMineWeapon2@@QAEKXZ
_TEXT	SEGMENT
?GetSensingStartGapTime@ioMineWeapon2@@QAEKXZ PROC	; ioMineWeapon2::GetSensingStartGapTime, COMDAT
; _this$ = ecx

; 1078 : {

  00000	56		 push	 esi

; 1079 : 	if( m_dwSensingStartTime != 0 )

  00001	8d b1 98 08 00
	00		 lea	 esi, DWORD PTR [ecx+2200]
  00007	83 3e 00	 cmp	 DWORD PTR [esi], 0
  0000a	74 12		 je	 SHORT $LN1@GetSensing

; 1080 : 		return FRAMEGETTIME() - m_dwSensingStartTime;

  0000c	ff 15 00 00 00
	00		 call	 DWORD PTR __imp_?GetSingleton@ioFrameTimer@@SAAAV1@XZ
  00012	8b c8		 mov	 ecx, eax
  00014	ff 15 00 00 00
	00		 call	 DWORD PTR __imp_?GetLoopSec@ioFrameTimer@@QBEKXZ
  0001a	2b 06		 sub	 eax, DWORD PTR [esi]
  0001c	5e		 pop	 esi

; 1083 : }

  0001d	c3		 ret	 0
$LN1@GetSensing:

; 1081 : 
; 1082 : 	return 0;

  0001e	33 c0		 xor	 eax, eax
  00020	5e		 pop	 esi

; 1083 : }

  00021	c3		 ret	 0
?GetSensingStartGapTime@ioMineWeapon2@@QAEKXZ ENDP	; ioMineWeapon2::GetSensingStartGapTime
_TEXT	ENDS
PUBLIC	?GetTargetAirBuffList@ioMineWeapon2@@UBEABV?$vector@UBuffInfoStruct@@V?$allocator@UBuffInfoStruct@@@std@@@std@@XZ ; ioMineWeapon2::GetTargetAirBuffList
; Function compile flags: /Ogsp
;	COMDAT ?GetTargetAirBuffList@ioMineWeapon2@@UBEABV?$vector@UBuffInfoStruct@@V?$allocator@UBuffInfoStruct@@@std@@@std@@XZ
_TEXT	SEGMENT
?GetTargetAirBuffList@ioMineWeapon2@@UBEABV?$vector@UBuffInfoStruct@@V?$allocator@UBuffInfoStruct@@@std@@@std@@XZ PROC ; ioMineWeapon2::GetTargetAirBuffList, COMDAT
; _this$ = ecx

; 1087 : 	if( !m_bUseTeamTargetBuff )

  00000	80 b9 64 0b 00
	00 00		 cmp	 BYTE PTR [ecx+2916], 0
  00007	75 0e		 jne	 SHORT $LN2@GetTargetA
$LN5@GetTargetA:

; 1088 : 		return GetAttribute()->m_TargetAirBuffList;

  00009	8b 01		 mov	 eax, DWORD PTR [ecx]
  0000b	ff 90 3c 01 00
	00		 call	 DWORD PTR [eax+316]
  00011	05 d4 01 00 00	 add	 eax, 468		; 000001d4H

; 1094 : }

  00016	c3		 ret	 0
$LN2@GetTargetA:

; 1089 : 
; 1090 : 	if( m_CurTeamColor == TEAM_BLUE )

  00017	83 b9 60 0b 00
	00 02		 cmp	 DWORD PTR [ecx+2912], 2

; 1091 : 		return GetAttribute()->m_TargetAirBuffList;

  0001e	74 e9		 je	 SHORT $LN5@GetTargetA

; 1092 : 
; 1093 : 	return m_RedTargetAirBuffList;

  00020	8d 81 6c 0b 00
	00		 lea	 eax, DWORD PTR [ecx+2924]

; 1094 : }

  00026	c3		 ret	 0
?GetTargetAirBuffList@ioMineWeapon2@@UBEABV?$vector@UBuffInfoStruct@@V?$allocator@UBuffInfoStruct@@@std@@@std@@XZ ENDP ; ioMineWeapon2::GetTargetAirBuffList
_TEXT	ENDS
PUBLIC	?GetTargetBuffList@ioMineWeapon2@@UBEABV?$vector@UBuffInfoStruct@@V?$allocator@UBuffInfoStruct@@@std@@@std@@XZ ; ioMineWeapon2::GetTargetBuffList
; Function compile flags: /Ogsp
;	COMDAT ?GetTargetBuffList@ioMineWeapon2@@UBEABV?$vector@UBuffInfoStruct@@V?$allocator@UBuffInfoStruct@@@std@@@std@@XZ
_TEXT	SEGMENT
?GetTargetBuffList@ioMineWeapon2@@UBEABV?$vector@UBuffInfoStruct@@V?$allocator@UBuffInfoStruct@@@std@@@std@@XZ PROC ; ioMineWeapon2::GetTargetBuffList, COMDAT
; _this$ = ecx

; 1098 : 	if( !m_bUseTeamTargetBuff )

  00000	80 b9 64 0b 00
	00 00		 cmp	 BYTE PTR [ecx+2916], 0
  00007	75 0e		 jne	 SHORT $LN2@GetTargetB
$LN5@GetTargetB:

; 1099 : 		return GetAttribute()->m_TargetBuffList;

  00009	8b 01		 mov	 eax, DWORD PTR [ecx]
  0000b	ff 90 3c 01 00
	00		 call	 DWORD PTR [eax+316]
  00011	05 e4 01 00 00	 add	 eax, 484		; 000001e4H

; 1105 : }

  00016	c3		 ret	 0
$LN2@GetTargetB:

; 1100 : 
; 1101 : 	if( m_CurTeamColor == TEAM_BLUE )

  00017	83 b9 60 0b 00
	00 02		 cmp	 DWORD PTR [ecx+2912], 2

; 1102 : 		return GetAttribute()->m_TargetBuffList;

  0001e	74 e9		 je	 SHORT $LN5@GetTargetB

; 1103 : 
; 1104 : 	return m_RedTargetBuffList;

  00020	8d 81 7c 0b 00
	00		 lea	 eax, DWORD PTR [ecx+2940]

; 1105 : }

  00026	c3		 ret	 0
?GetTargetBuffList@ioMineWeapon2@@UBEABV?$vector@UBuffInfoStruct@@V?$allocator@UBuffInfoStruct@@@std@@@std@@XZ ENDP ; ioMineWeapon2::GetTargetBuffList
_TEXT	ENDS
PUBLIC	?GetTargetDownBuffList@ioMineWeapon2@@UBEABV?$vector@UBuffInfoStruct@@V?$allocator@UBuffInfoStruct@@@std@@@std@@XZ ; ioMineWeapon2::GetTargetDownBuffList
; Function compile flags: /Ogsp
;	COMDAT ?GetTargetDownBuffList@ioMineWeapon2@@UBEABV?$vector@UBuffInfoStruct@@V?$allocator@UBuffInfoStruct@@@std@@@std@@XZ
_TEXT	SEGMENT
?GetTargetDownBuffList@ioMineWeapon2@@UBEABV?$vector@UBuffInfoStruct@@V?$allocator@UBuffInfoStruct@@@std@@@std@@XZ PROC ; ioMineWeapon2::GetTargetDownBuffList, COMDAT
; _this$ = ecx

; 1109 : 	if( !m_bUseTeamTargetBuff )

  00000	80 b9 64 0b 00
	00 00		 cmp	 BYTE PTR [ecx+2916], 0
  00007	75 0e		 jne	 SHORT $LN2@GetTargetD
$LN5@GetTargetD:

; 1110 : 		return GetAttribute()->m_TargetDownBuffList;

  00009	8b 01		 mov	 eax, DWORD PTR [ecx]
  0000b	ff 90 3c 01 00
	00		 call	 DWORD PTR [eax+316]
  00011	05 f4 01 00 00	 add	 eax, 500		; 000001f4H

; 1116 : }

  00016	c3		 ret	 0
$LN2@GetTargetD:

; 1111 : 
; 1112 : 	if( m_CurTeamColor == TEAM_BLUE )

  00017	83 b9 60 0b 00
	00 02		 cmp	 DWORD PTR [ecx+2912], 2

; 1113 : 		return GetAttribute()->m_TargetDownBuffList;

  0001e	74 e9		 je	 SHORT $LN5@GetTargetD

; 1114 : 
; 1115 : 	return m_RedTargetDownBuffList;

  00020	8d 81 8c 0b 00
	00		 lea	 eax, DWORD PTR [ecx+2956]

; 1116 : }

  00026	c3		 ret	 0
?GetTargetDownBuffList@ioMineWeapon2@@UBEABV?$vector@UBuffInfoStruct@@V?$allocator@UBuffInfoStruct@@@std@@@std@@XZ ENDP ; ioMineWeapon2::GetTargetDownBuffList
_TEXT	ENDS
PUBLIC	?CheckDownTargetState@ioMineWeapon2@@IAE_NPAVioBaseChar@@@Z ; ioMineWeapon2::CheckDownTargetState
EXTRN	?IsApplyDownState@ioBaseChar@@QAE_N_N@Z:PROC	; ioBaseChar::IsApplyDownState
EXTRN	?IsFloatingState@ioBaseChar@@QBE_NXZ:PROC	; ioBaseChar::IsFloatingState
; Function compile flags: /Ogsp
;	COMDAT ?CheckDownTargetState@ioMineWeapon2@@IAE_NPAVioBaseChar@@@Z
_TEXT	SEGMENT
_pTarget$ = 8						; size = 4
?CheckDownTargetState@ioMineWeapon2@@IAE_NPAVioBaseChar@@@Z PROC ; ioMineWeapon2::CheckDownTargetState, COMDAT
; _this$ = ecx

; 1119 : {

  00000	55		 push	 ebp
  00001	8b ec		 mov	 ebp, esp

; 1120 : 	if( !pTarget ) return false;

  00003	8b 4d 08	 mov	 ecx, DWORD PTR _pTarget$[ebp]
  00006	33 d2		 xor	 edx, edx
  00008	3b ca		 cmp	 ecx, edx
  0000a	74 23		 je	 SHORT $LN1@CheckDownT

; 1121 : 
; 1122 : 	CharState eState = pTarget->GetState();

  0000c	8a 81 10 03 00
	00		 mov	 al, BYTE PTR [ecx+784]

; 1123 : 
; 1124 : 	if( eState == CS_FROZEN && pTarget->GetBlowFrozenState() )

  00012	3c 17		 cmp	 al, 23			; 00000017H
  00014	75 0c		 jne	 SHORT $LN6@CheckDownT
  00016	38 91 c5 15 00
	00		 cmp	 BYTE PTR [ecx+5573], dl
$LN17@CheckDownT:
  0001c	74 11		 je	 SHORT $LN1@CheckDownT
$LN16@CheckDownT:

; 1125 : 		return true;

  0001e	b0 01		 mov	 al, 1
  00020	eb 0f		 jmp	 SHORT $LN8@CheckDownT
$LN6@CheckDownT:

; 1126 : 
; 1127 : 	if( eState == CS_BLOW_WOUNDED && !pTarget->IsFloatingState() )

  00022	3c 0c		 cmp	 al, 12			; 0000000cH
  00024	75 0f		 jne	 SHORT $LN5@CheckDownT
$LN19@CheckDownT:
  00026	e8 00 00 00 00	 call	 ?IsFloatingState@ioBaseChar@@QBE_NXZ ; ioBaseChar::IsFloatingState
  0002b	84 c0		 test	 al, al
  0002d	74 ef		 je	 SHORT $LN16@CheckDownT
$LN1@CheckDownT:

; 1141 : 
; 1142 : 	return false;

  0002f	32 c0		 xor	 al, al
$LN8@CheckDownT:

; 1143 : }

  00031	5d		 pop	 ebp
  00032	c2 04 00	 ret	 4
$LN5@CheckDownT:

; 1128 : 		return true;
; 1129 : 
; 1130 : 	if( eState == CS_BOUND_BLOW_WOUNDED && !pTarget->IsFloatingState() )

  00035	3c 31		 cmp	 al, 49			; 00000031H

; 1131 : 		return true;

  00037	74 ed		 je	 SHORT $LN19@CheckDownT

; 1132 : 
; 1133 : 	if( eState == CS_ETC_STATE && pTarget->IsApplyDownState(false) )

  00039	3c 0f		 cmp	 al, 15			; 0000000fH
  0003b	75 0a		 jne	 SHORT $LN3@CheckDownT
$LN18@CheckDownT:
  0003d	52		 push	 edx
  0003e	e8 00 00 00 00	 call	 ?IsApplyDownState@ioBaseChar@@QAE_N_N@Z ; ioBaseChar::IsApplyDownState
  00043	84 c0		 test	 al, al

; 1134 : 		return true;

  00045	eb d5		 jmp	 SHORT $LN17@CheckDownT
$LN3@CheckDownT:

; 1135 : 
; 1136 : 	if( eState == CS_USING_SKILL && pTarget->IsApplyDownState(false) )

  00047	3c 07		 cmp	 al, 7

; 1137 : 		return true;

  00049	74 f2		 je	 SHORT $LN18@CheckDownT

; 1138 : 
; 1139 : 	if( eState == CS_STOP_MOTION && pTarget->GetBlowStopMotionState() )

  0004b	3c 26		 cmp	 al, 38			; 00000026H
  0004d	75 e0		 jne	 SHORT $LN1@CheckDownT
  0004f	38 91 c7 15 00
	00		 cmp	 BYTE PTR [ecx+5575], dl

; 1140 : 		return true;

  00055	eb c5		 jmp	 SHORT $LN17@CheckDownT
?CheckDownTargetState@ioMineWeapon2@@IAE_NPAVioBaseChar@@@Z ENDP ; ioMineWeapon2::CheckDownTargetState
_TEXT	ENDS
PUBLIC	?empty@?$vector@VioHashString@@V?$allocator@VioHashString@@@std@@@std@@QBE_NXZ ; std::vector<ioHashString,std::allocator<ioHashString> >::empty
; Function compile flags: /Ogsp
; File c:\program files (x86)\microsoft visual studio 10.0\vc\include\vector
;	COMDAT ?empty@?$vector@VioHashString@@V?$allocator@VioHashString@@@std@@@std@@QBE_NXZ
_TEXT	SEGMENT
?empty@?$vector@VioHashString@@V?$allocator@VioHashString@@@std@@@std@@QBE_NXZ PROC ; std::vector<ioHashString,std::allocator<ioHashString> >::empty, COMDAT
; _this$ = ecx

; 889  : 		return (this->_Myfirst == this->_Mylast);

  00000	8b 01		 mov	 eax, DWORD PTR [ecx]
  00002	2b 41 04	 sub	 eax, DWORD PTR [ecx+4]
  00005	f7 d8		 neg	 eax
  00007	1b c0		 sbb	 eax, eax
  00009	40		 inc	 eax

; 890  : 		}

  0000a	c3		 ret	 0
?empty@?$vector@VioHashString@@V?$allocator@VioHashString@@@std@@@std@@QBE_NXZ ENDP ; std::vector<ioHashString,std::allocator<ioHashString> >::empty
_TEXT	ENDS
PUBLIC	??A?$vector@VioHashString@@V?$allocator@VioHashString@@@std@@@std@@QAEAAVioHashString@@I@Z ; std::vector<ioHashString,std::allocator<ioHashString> >::operator[]
; Function compile flags: /Ogsp
;	COMDAT ??A?$vector@VioHashString@@V?$allocator@VioHashString@@@std@@@std@@QAEAAVioHashString@@I@Z
_TEXT	SEGMENT
__Pos$ = 8						; size = 4
??A?$vector@VioHashString@@V?$allocator@VioHashString@@@std@@@std@@QAEAAVioHashString@@I@Z PROC ; std::vector<ioHashString,std::allocator<ioHashString> >::operator[], COMDAT
; _this$ = ecx

; 928  : 		{	// subscript mutable sequence

  00000	55		 push	 ebp
  00001	8b ec		 mov	 ebp, esp

; 929  :  #if _ITERATOR_DEBUG_LEVEL == 2
; 930  : 		if (size() <= _Pos)
; 931  : 			{	// report error
; 932  : 			_DEBUG_ERROR("vector subscript out of range");
; 933  : 			_SCL_SECURE_OUT_OF_RANGE;
; 934  : 			}
; 935  : 
; 936  :  #elif _ITERATOR_DEBUG_LEVEL == 1
; 937  : 		_SCL_SECURE_VALIDATE_RANGE(_Pos < size());
; 938  :  #endif /* _ITERATOR_DEBUG_LEVEL */
; 939  : 
; 940  : 		return (*(this->_Myfirst + _Pos));

  00003	8b 45 08	 mov	 eax, DWORD PTR __Pos$[ebp]
  00006	c1 e0 04	 shl	 eax, 4
  00009	03 01		 add	 eax, DWORD PTR [ecx]

; 941  : 		}

  0000b	5d		 pop	 ebp
  0000c	c2 04 00	 ret	 4
??A?$vector@VioHashString@@V?$allocator@VioHashString@@@std@@@std@@QAEAAVioHashString@@I@Z ENDP ; std::vector<ioHashString,std::allocator<ioHashString> >::operator[]
_TEXT	ENDS
PUBLIC	??0?$_Vector_const_iterator@V?$_Vector_val@PAVioBaseChar@@V?$allocator@PAVioBaseChar@@@std@@@std@@@std@@QAE@XZ ; std::_Vector_const_iterator<std::_Vector_val<ioBaseChar *,std::allocator<ioBaseChar *> > >::_Vector_const_iterator<std::_Vector_val<ioBaseChar *,std::allocator<ioBaseChar *> > >
; Function compile flags: /Ogsp
;	COMDAT ??0?$_Vector_const_iterator@V?$_Vector_val@PAVioBaseChar@@V?$allocator@PAVioBaseChar@@@std@@@std@@@std@@QAE@XZ
_TEXT	SEGMENT
??0?$_Vector_const_iterator@V?$_Vector_val@PAVioBaseChar@@V?$allocator@PAVioBaseChar@@@std@@@std@@@std@@QAE@XZ PROC ; std::_Vector_const_iterator<std::_Vector_val<ioBaseChar *,std::allocator<ioBaseChar *> > >::_Vector_const_iterator<std::_Vector_val<ioBaseChar *,std::allocator<ioBaseChar *> > >, COMDAT
; _this$ = ecx

; 40   : 		{	// construct with null pointer

  00000	8b c1		 mov	 eax, ecx
  00002	83 20 00	 and	 DWORD PTR [eax], 0

; 41   : 		}

  00005	c3		 ret	 0
??0?$_Vector_const_iterator@V?$_Vector_val@PAVioBaseChar@@V?$allocator@PAVioBaseChar@@@std@@@std@@@std@@QAE@XZ ENDP ; std::_Vector_const_iterator<std::_Vector_val<ioBaseChar *,std::allocator<ioBaseChar *> > >::_Vector_const_iterator<std::_Vector_val<ioBaseChar *,std::allocator<ioBaseChar *> > >
_TEXT	ENDS
PUBLIC	??D?$_Vector_const_iterator@V?$_Vector_val@PAVioBaseChar@@V?$allocator@PAVioBaseChar@@@std@@@std@@@std@@QBEABQAVioBaseChar@@XZ ; std::_Vector_const_iterator<std::_Vector_val<ioBaseChar *,std::allocator<ioBaseChar *> > >::operator*
; Function compile flags: /Ogsp
;	COMDAT ??D?$_Vector_const_iterator@V?$_Vector_val@PAVioBaseChar@@V?$allocator@PAVioBaseChar@@@std@@@std@@@std@@QBEABQAVioBaseChar@@XZ
_TEXT	SEGMENT
??D?$_Vector_const_iterator@V?$_Vector_val@PAVioBaseChar@@V?$allocator@PAVioBaseChar@@@std@@@std@@@std@@QBEABQAVioBaseChar@@XZ PROC ; std::_Vector_const_iterator<std::_Vector_val<ioBaseChar *,std::allocator<ioBaseChar *> > >::operator*, COMDAT
; _this$ = ecx

; 64   :  #if _ITERATOR_DEBUG_LEVEL == 2
; 65   : 		if (this->_Getcont() == 0
; 66   : 			|| this->_Ptr == 0
; 67   : 			|| this->_Ptr < ((_Myvec *)this->_Getcont())->_Myfirst
; 68   : 			|| ((_Myvec *)this->_Getcont())->_Mylast <= this->_Ptr)
; 69   : 			{	// report error
; 70   : 			_DEBUG_ERROR("vector iterator not dereferencable");
; 71   : 			_SCL_SECURE_OUT_OF_RANGE;
; 72   : 			}
; 73   : 
; 74   :  #elif _ITERATOR_DEBUG_LEVEL == 1
; 75   : 		_SCL_SECURE_VALIDATE(this->_Getcont() != 0);
; 76   : 		_SCL_SECURE_VALIDATE_RANGE(
; 77   : 			this->_Ptr != 0
; 78   : 			&& ((_Myvec *)this->_Getcont())->_Myfirst <= this->_Ptr
; 79   : 			&& this->_Ptr < ((_Myvec *)this->_Getcont())->_Mylast);
; 80   :  #endif /* _ITERATOR_DEBUG_LEVEL */
; 81   : 
; 82   : 		__analysis_assume(this->_Ptr != 0);
; 83   : 
; 84   : 		return (*this->_Ptr);

  00000	8b 01		 mov	 eax, DWORD PTR [ecx]

; 85   : 		}

  00002	c3		 ret	 0
??D?$_Vector_const_iterator@V?$_Vector_val@PAVioBaseChar@@V?$allocator@PAVioBaseChar@@@std@@@std@@@std@@QBEABQAVioBaseChar@@XZ ENDP ; std::_Vector_const_iterator<std::_Vector_val<ioBaseChar *,std::allocator<ioBaseChar *> > >::operator*
_TEXT	ENDS
PUBLIC	??E?$_Vector_const_iterator@V?$_Vector_val@PAVioBaseChar@@V?$allocator@PAVioBaseChar@@@std@@@std@@@std@@QAEAAV01@XZ ; std::_Vector_const_iterator<std::_Vector_val<ioBaseChar *,std::allocator<ioBaseChar *> > >::operator++
; Function compile flags: /Ogsp
;	COMDAT ??E?$_Vector_const_iterator@V?$_Vector_val@PAVioBaseChar@@V?$allocator@PAVioBaseChar@@@std@@@std@@@std@@QAEAAV01@XZ
_TEXT	SEGMENT
??E?$_Vector_const_iterator@V?$_Vector_val@PAVioBaseChar@@V?$allocator@PAVioBaseChar@@@std@@@std@@@std@@QAEAAV01@XZ PROC ; std::_Vector_const_iterator<std::_Vector_val<ioBaseChar *,std::allocator<ioBaseChar *> > >::operator++, COMDAT
; _this$ = ecx

; 93   : 		{	// preincrement

  00000	8b c1		 mov	 eax, ecx

; 94   :  #if _ITERATOR_DEBUG_LEVEL == 2
; 95   : 		if (this->_Getcont() == 0
; 96   : 			|| this->_Ptr == 0
; 97   : 			|| ((_Myvec *)this->_Getcont())->_Mylast <= this->_Ptr)
; 98   : 			{	// report error
; 99   : 			_DEBUG_ERROR("vector iterator not incrementable");
; 100  : 			_SCL_SECURE_OUT_OF_RANGE;
; 101  : 			}
; 102  : 
; 103  :  #elif _ITERATOR_DEBUG_LEVEL == 1
; 104  : 		_SCL_SECURE_VALIDATE(this->_Getcont() != 0);
; 105  : 		_SCL_SECURE_VALIDATE_RANGE(
; 106  : 			this->_Ptr != 0
; 107  : 			&& this->_Ptr < ((_Myvec *)this->_Getcont())->_Mylast);
; 108  :  #endif /* _ITERATOR_DEBUG_LEVEL */
; 109  : 
; 110  : 		++this->_Ptr;

  00002	83 00 04	 add	 DWORD PTR [eax], 4

; 111  : 		return (*this);
; 112  : 		}

  00005	c3		 ret	 0
??E?$_Vector_const_iterator@V?$_Vector_val@PAVioBaseChar@@V?$allocator@PAVioBaseChar@@@std@@@std@@@std@@QAEAAV01@XZ ENDP ; std::_Vector_const_iterator<std::_Vector_val<ioBaseChar *,std::allocator<ioBaseChar *> > >::operator++
_TEXT	ENDS
PUBLIC	?capacity@?$vector@VioHashString@@V?$allocator@VioHashString@@@std@@@std@@QBEIXZ ; std::vector<ioHashString,std::allocator<ioHashString> >::capacity
; Function compile flags: /Ogsp
;	COMDAT ?capacity@?$vector@VioHashString@@V?$allocator@VioHashString@@@std@@@std@@QBEIXZ
_TEXT	SEGMENT
?capacity@?$vector@VioHashString@@V?$allocator@VioHashString@@@std@@@std@@QBEIXZ PROC ; std::vector<ioHashString,std::allocator<ioHashString> >::capacity, COMDAT
; _this$ = ecx

; 777  : 		return (this->_Myend - this->_Myfirst);

  00000	8b 41 08	 mov	 eax, DWORD PTR [ecx+8]
  00003	2b 01		 sub	 eax, DWORD PTR [ecx]
  00005	c1 f8 04	 sar	 eax, 4

; 778  : 		}

  00008	c3		 ret	 0
?capacity@?$vector@VioHashString@@V?$allocator@VioHashString@@@std@@@std@@QBEIXZ ENDP ; std::vector<ioHashString,std::allocator<ioHashString> >::capacity
_TEXT	ENDS
PUBLIC	?_Inside@?$vector@VioHashString@@V?$allocator@VioHashString@@@std@@@std@@IBE_NPBVioHashString@@@Z ; std::vector<ioHashString,std::allocator<ioHashString> >::_Inside
; Function compile flags: /Ogsp
;	COMDAT ?_Inside@?$vector@VioHashString@@V?$allocator@VioHashString@@@std@@@std@@IBE_NPBVioHashString@@@Z
_TEXT	SEGMENT
__Ptr$ = 8						; size = 4
?_Inside@?$vector@VioHashString@@V?$allocator@VioHashString@@@std@@@std@@IBE_NPBVioHashString@@@Z PROC ; std::vector<ioHashString,std::allocator<ioHashString> >::_Inside, COMDAT
; _this$ = ecx

; 1285 : 		{	// test if _Ptr points inside vector

  00000	55		 push	 ebp
  00001	8b ec		 mov	 ebp, esp

; 1286 : 		return (_Ptr < this->_Mylast && this->_Myfirst <= _Ptr);

  00003	8b 45 08	 mov	 eax, DWORD PTR __Ptr$[ebp]
  00006	3b 41 04	 cmp	 eax, DWORD PTR [ecx+4]
  00009	73 09		 jae	 SHORT $LN3@Inside
  0000b	39 01		 cmp	 DWORD PTR [ecx], eax
  0000d	77 05		 ja	 SHORT $LN3@Inside
  0000f	33 c0		 xor	 eax, eax
  00011	40		 inc	 eax
  00012	eb 02		 jmp	 SHORT $LN4@Inside
$LN3@Inside:
  00014	33 c0		 xor	 eax, eax
$LN4@Inside:

; 1287 : 		}

  00016	5d		 pop	 ebp
  00017	c2 04 00	 ret	 4
?_Inside@?$vector@VioHashString@@V?$allocator@VioHashString@@@std@@@std@@IBE_NPBVioHashString@@@Z ENDP ; std::vector<ioHashString,std::allocator<ioHashString> >::_Inside
_TEXT	ENDS
PUBLIC	?_Orphan_range@?$vector@VioHashString@@V?$allocator@VioHashString@@@std@@@std@@IBEXPAVioHashString@@0@Z ; std::vector<ioHashString,std::allocator<ioHashString> >::_Orphan_range
; Function compile flags: /Ogsp
;	COMDAT ?_Orphan_range@?$vector@VioHashString@@V?$allocator@VioHashString@@@std@@@std@@IBEXPAVioHashString@@0@Z
_TEXT	SEGMENT
___formal$ = 8						; size = 4
___formal$ = 12						; size = 4
?_Orphan_range@?$vector@VioHashString@@V?$allocator@VioHashString@@@std@@@std@@IBEXPAVioHashString@@0@Z PROC ; std::vector<ioHashString,std::allocator<ioHashString> >::_Orphan_range, COMDAT
; _this$ = ecx

; 1454 : 		}

  00000	c2 08 00	 ret	 8
?_Orphan_range@?$vector@VioHashString@@V?$allocator@VioHashString@@@std@@@std@@IBEXPAVioHashString@@0@Z ENDP ; std::vector<ioHashString,std::allocator<ioHashString> >::_Orphan_range
_TEXT	ENDS
PUBLIC	?_Inside@?$vector@UBuffInfoStruct@@V?$allocator@UBuffInfoStruct@@@std@@@std@@IBE_NPBUBuffInfoStruct@@@Z ; std::vector<BuffInfoStruct,std::allocator<BuffInfoStruct> >::_Inside
; Function compile flags: /Ogsp
;	COMDAT ?_Inside@?$vector@UBuffInfoStruct@@V?$allocator@UBuffInfoStruct@@@std@@@std@@IBE_NPBUBuffInfoStruct@@@Z
_TEXT	SEGMENT
__Ptr$ = 8						; size = 4
?_Inside@?$vector@UBuffInfoStruct@@V?$allocator@UBuffInfoStruct@@@std@@@std@@IBE_NPBUBuffInfoStruct@@@Z PROC ; std::vector<BuffInfoStruct,std::allocator<BuffInfoStruct> >::_Inside, COMDAT
; _this$ = ecx

; 1285 : 		{	// test if _Ptr points inside vector

  00000	55		 push	 ebp
  00001	8b ec		 mov	 ebp, esp

; 1286 : 		return (_Ptr < this->_Mylast && this->_Myfirst <= _Ptr);

  00003	8b 45 08	 mov	 eax, DWORD PTR __Ptr$[ebp]
  00006	3b 41 04	 cmp	 eax, DWORD PTR [ecx+4]
  00009	73 09		 jae	 SHORT $LN3@Inside@2
  0000b	39 01		 cmp	 DWORD PTR [ecx], eax
  0000d	77 05		 ja	 SHORT $LN3@Inside@2
  0000f	33 c0		 xor	 eax, eax
  00011	40		 inc	 eax
  00012	eb 02		 jmp	 SHORT $LN4@Inside@2
$LN3@Inside@2:
  00014	33 c0		 xor	 eax, eax
$LN4@Inside@2:

; 1287 : 		}

  00016	5d		 pop	 ebp
  00017	c2 04 00	 ret	 4
?_Inside@?$vector@UBuffInfoStruct@@V?$allocator@UBuffInfoStruct@@@std@@@std@@IBE_NPBUBuffInfoStruct@@@Z ENDP ; std::vector<BuffInfoStruct,std::allocator<BuffInfoStruct> >::_Inside
_TEXT	ENDS
PUBLIC	?_Orphan_range@?$vector@UBuffInfoStruct@@V?$allocator@UBuffInfoStruct@@@std@@@std@@IBEXPAUBuffInfoStruct@@0@Z ; std::vector<BuffInfoStruct,std::allocator<BuffInfoStruct> >::_Orphan_range
; Function compile flags: /Ogsp
;	COMDAT ?_Orphan_range@?$vector@UBuffInfoStruct@@V?$allocator@UBuffInfoStruct@@@std@@@std@@IBEXPAUBuffInfoStruct@@0@Z
_TEXT	SEGMENT
___formal$ = 8						; size = 4
___formal$ = 12						; size = 4
?_Orphan_range@?$vector@UBuffInfoStruct@@V?$allocator@UBuffInfoStruct@@@std@@@std@@IBEXPAUBuffInfoStruct@@0@Z PROC ; std::vector<BuffInfoStruct,std::allocator<BuffInfoStruct> >::_Orphan_range, COMDAT
; _this$ = ecx

; 1454 : 		}

  00000	c2 08 00	 ret	 8
?_Orphan_range@?$vector@UBuffInfoStruct@@V?$allocator@UBuffInfoStruct@@@std@@@std@@IBEXPAUBuffInfoStruct@@0@Z ENDP ; std::vector<BuffInfoStruct,std::allocator<BuffInfoStruct> >::_Orphan_range
_TEXT	ENDS
PUBLIC	?DecryptValueToPool@?$CEncrypt@W4ProtectionMode@@@@QAEXPAW4ProtectionMode@@@Z ; CEncrypt<enum ProtectionMode>::DecryptValueToPool
EXTRN	?DecryptByte@ccddaabb@@QBEXPBDPADH@Z:PROC	; ccddaabb::DecryptByte
; Function compile flags: /Ogsp
; File d:\lost saga for developer\youtube\tutorial\source\src\lsclient\encryptvalue.h
;	COMDAT ?DecryptValueToPool@?$CEncrypt@W4ProtectionMode@@@@QAEXPAW4ProtectionMode@@@Z
_TEXT	SEGMENT
_value$ = 8						; size = 4
?DecryptValueToPool@?$CEncrypt@W4ProtectionMode@@@@QAEXPAW4ProtectionMode@@@Z PROC ; CEncrypt<enum ProtectionMode>::DecryptValueToPool, COMDAT
; _this$ = ecx

; 2879 : 	{

  00000	55		 push	 ebp
  00001	8b ec		 mov	 ebp, esp
  00003	56		 push	 esi

; 2880 : 		m_RC5.DecryptByte( m_MemPool, m_TempMem, sizeof(ProtectionMode) );

  00004	8d 71 28	 lea	 esi, DWORD PTR [ecx+40]
  00007	6a 04		 push	 4
  00009	8d 41 1c	 lea	 eax, DWORD PTR [ecx+28]
  0000c	56		 push	 esi
  0000d	50		 push	 eax
  0000e	83 c1 0c	 add	 ecx, 12			; 0000000cH
  00011	e8 00 00 00 00	 call	 ?DecryptByte@ccddaabb@@QBEXPBDPADH@Z ; ccddaabb::DecryptByte

; 2881 : 		*value = *((ProtectionMode*)m_TempMem);

  00016	8b 06		 mov	 eax, DWORD PTR [esi]
  00018	8b 4d 08	 mov	 ecx, DWORD PTR _value$[ebp]
  0001b	89 01		 mov	 DWORD PTR [ecx], eax
  0001d	5e		 pop	 esi

; 2882 : 	}

  0001e	5d		 pop	 ebp
  0001f	c2 04 00	 ret	 4
?DecryptValueToPool@?$CEncrypt@W4ProtectionMode@@@@QAEXPAW4ProtectionMode@@@Z ENDP ; CEncrypt<enum ProtectionMode>::DecryptValueToPool
_TEXT	ENDS
PUBLIC	??0?$_Vector_const_iterator@V?$_Vector_val@PAVioBaseChar@@V?$allocator@PAVioBaseChar@@@std@@@std@@@std@@QAE@PAPAVioBaseChar@@PBU_Container_base0@1@@Z ; std::_Vector_const_iterator<std::_Vector_val<ioBaseChar *,std::allocator<ioBaseChar *> > >::_Vector_const_iterator<std::_Vector_val<ioBaseChar *,std::allocator<ioBaseChar *> > >
; Function compile flags: /Ogsp
; File c:\program files (x86)\microsoft visual studio 10.0\vc\include\vector
;	COMDAT ??0?$_Vector_const_iterator@V?$_Vector_val@PAVioBaseChar@@V?$allocator@PAVioBaseChar@@@std@@@std@@@std@@QAE@PAPAVioBaseChar@@PBU_Container_base0@1@@Z
_TEXT	SEGMENT
__Parg$ = 8						; size = 4
__Pvector$ = 12						; size = 4
??0?$_Vector_const_iterator@V?$_Vector_val@PAVioBaseChar@@V?$allocator@PAVioBaseChar@@@std@@@std@@@std@@QAE@PAPAVioBaseChar@@PBU_Container_base0@1@@Z PROC ; std::_Vector_const_iterator<std::_Vector_val<ioBaseChar *,std::allocator<ioBaseChar *> > >::_Vector_const_iterator<std::_Vector_val<ioBaseChar *,std::allocator<ioBaseChar *> > >, COMDAT
; _this$ = ecx

; 45   : 		{	// construct with pointer _Parg

  00000	55		 push	 ebp
  00001	8b ec		 mov	 ebp, esp
  00003	8b c1		 mov	 eax, ecx
  00005	8b 4d 08	 mov	 ecx, DWORD PTR __Parg$[ebp]
  00008	89 08		 mov	 DWORD PTR [eax], ecx

; 46   : 		this->_Adopt(_Pvector);
; 47   : 		}

  0000a	5d		 pop	 ebp
  0000b	c2 08 00	 ret	 8
??0?$_Vector_const_iterator@V?$_Vector_val@PAVioBaseChar@@V?$allocator@PAVioBaseChar@@@std@@@std@@@std@@QAE@PAPAVioBaseChar@@PBU_Container_base0@1@@Z ENDP ; std::_Vector_const_iterator<std::_Vector_val<ioBaseChar *,std::allocator<ioBaseChar *> > >::_Vector_const_iterator<std::_Vector_val<ioBaseChar *,std::allocator<ioBaseChar *> > >
_TEXT	ENDS
PUBLIC	?_Compat@?$_Vector_const_iterator@V?$_Vector_val@PAVioBaseChar@@V?$allocator@PAVioBaseChar@@@std@@@std@@@std@@QBEXABV12@@Z ; std::_Vector_const_iterator<std::_Vector_val<ioBaseChar *,std::allocator<ioBaseChar *> > >::_Compat
; Function compile flags: /Ogsp
;	COMDAT ?_Compat@?$_Vector_const_iterator@V?$_Vector_val@PAVioBaseChar@@V?$allocator@PAVioBaseChar@@@std@@@std@@@std@@QBEXABV12@@Z
_TEXT	SEGMENT
___formal$ = 8						; size = 4
?_Compat@?$_Vector_const_iterator@V?$_Vector_val@PAVioBaseChar@@V?$allocator@PAVioBaseChar@@@std@@@std@@@std@@QBEXABV12@@Z PROC ; std::_Vector_const_iterator<std::_Vector_val<ioBaseChar *,std::allocator<ioBaseChar *> > >::_Compat, COMDAT
; _this$ = ecx

; 253  : 		}

  00000	c2 04 00	 ret	 4
?_Compat@?$_Vector_const_iterator@V?$_Vector_val@PAVioBaseChar@@V?$allocator@PAVioBaseChar@@@std@@@std@@@std@@QBEXABV12@@Z ENDP ; std::_Vector_const_iterator<std::_Vector_val<ioBaseChar *,std::allocator<ioBaseChar *> > >::_Compat
_TEXT	ENDS
PUBLIC	??0D3DXVECTOR3@@QAE@XZ				; D3DXVECTOR3::D3DXVECTOR3
; Function compile flags: /Ogsp
; File c:\program files (x86)\microsoft directx sdk (june 2010)\include\d3dx9math.h
;	COMDAT ??0D3DXVECTOR3@@QAE@XZ
_TEXT	SEGMENT
??0D3DXVECTOR3@@QAE@XZ PROC				; D3DXVECTOR3::D3DXVECTOR3, COMDAT
; _this$ = ecx

; 165  :     D3DXVECTOR3() {};

  00000	8b c1		 mov	 eax, ecx
  00002	c3		 ret	 0
??0D3DXVECTOR3@@QAE@XZ ENDP				; D3DXVECTOR3::D3DXVECTOR3
_TEXT	ENDS
PUBLIC	??0D3DXQUATERNION@@QAE@XZ			; D3DXQUATERNION::D3DXQUATERNION
; Function compile flags: /Ogsp
;	COMDAT ??0D3DXQUATERNION@@QAE@XZ
_TEXT	SEGMENT
??0D3DXQUATERNION@@QAE@XZ PROC				; D3DXQUATERNION::D3DXQUATERNION, COMDAT
; _this$ = ecx

; 429  :     D3DXQUATERNION() {}

  00000	8b c1		 mov	 eax, ecx
  00002	c3		 ret	 0
??0D3DXQUATERNION@@QAE@XZ ENDP				; D3DXQUATERNION::D3DXQUATERNION
_TEXT	ENDS
PUBLIC	??0D3DXVECTOR3@@QAE@MMM@Z			; D3DXVECTOR3::D3DXVECTOR3
; Function compile flags: /Ogsp
; File c:\program files (x86)\microsoft directx sdk (june 2010)\include\d3dx9math.inl
;	COMDAT ??0D3DXVECTOR3@@QAE@MMM@Z
_TEXT	SEGMENT
_fx$ = 8						; size = 4
_fy$ = 12						; size = 4
_fz$ = 16						; size = 4
??0D3DXVECTOR3@@QAE@MMM@Z PROC				; D3DXVECTOR3::D3DXVECTOR3, COMDAT
; _this$ = ecx

; 303  : {

  00000	55		 push	 ebp
  00001	8b ec		 mov	 ebp, esp

; 304  :     x = fx;

  00003	f3 0f 10 45 08	 movss	 xmm0, DWORD PTR _fx$[ebp]
  00008	8b c1		 mov	 eax, ecx
  0000a	f3 0f 11 00	 movss	 DWORD PTR [eax], xmm0

; 305  :     y = fy;

  0000e	f3 0f 10 45 0c	 movss	 xmm0, DWORD PTR _fy$[ebp]
  00013	f3 0f 11 40 04	 movss	 DWORD PTR [eax+4], xmm0

; 306  :     z = fz;

  00018	f3 0f 10 45 10	 movss	 xmm0, DWORD PTR _fz$[ebp]
  0001d	f3 0f 11 40 08	 movss	 DWORD PTR [eax+8], xmm0

; 307  : }

  00022	5d		 pop	 ebp
  00023	c2 0c 00	 ret	 12			; 0000000cH
??0D3DXVECTOR3@@QAE@MMM@Z ENDP				; D3DXVECTOR3::D3DXVECTOR3
_TEXT	ENDS
PUBLIC	__mask@@NegFloat@
PUBLIC	??GD3DXVECTOR3@@QBE?AU0@XZ			; D3DXVECTOR3::operator-
;	COMDAT __mask@@NegFloat@
CONST	SEGMENT
__mask@@NegFloat@ DB 00H, 00H, 00H, 080H, 00H, 00H, 00H, 080H, 00H, 00H, 00H
	DB	080H, 00H, 00H, 00H, 080H
; Function compile flags: /Ogsp
CONST	ENDS
;	COMDAT ??GD3DXVECTOR3@@QBE?AU0@XZ
_TEXT	SEGMENT
___$ReturnUdt$ = 8					; size = 4
??GD3DXVECTOR3@@QBE?AU0@XZ PROC				; D3DXVECTOR3::operator-, COMDAT
; _this$ = ecx

; 372  : {

  00000	55		 push	 ebp
  00001	8b ec		 mov	 ebp, esp

; 373  :     return D3DXVECTOR3(-x, -y, -z);

  00003	f3 0f 10 05 00
	00 00 00	 movss	 xmm0, DWORD PTR __mask@@NegFloat@
  0000b	8b 45 08	 mov	 eax, DWORD PTR ___$ReturnUdt$[ebp]
  0000e	f3 0f 10 09	 movss	 xmm1, DWORD PTR [ecx]
  00012	0f 57 c8	 xorps	 xmm1, xmm0
  00015	f3 0f 11 08	 movss	 DWORD PTR [eax], xmm1
  00019	f3 0f 10 49 04	 movss	 xmm1, DWORD PTR [ecx+4]
  0001e	0f 57 c8	 xorps	 xmm1, xmm0
  00021	f3 0f 11 48 04	 movss	 DWORD PTR [eax+4], xmm1
  00026	f3 0f 10 49 08	 movss	 xmm1, DWORD PTR [ecx+8]
  0002b	0f 57 c8	 xorps	 xmm1, xmm0
  0002e	f3 0f 11 48 08	 movss	 DWORD PTR [eax+8], xmm1

; 374  : }

  00033	5d		 pop	 ebp
  00034	c2 04 00	 ret	 4
??GD3DXVECTOR3@@QBE?AU0@XZ ENDP				; D3DXVECTOR3::operator-
_TEXT	ENDS
PUBLIC	??HD3DXVECTOR3@@QBE?AU0@ABU0@@Z			; D3DXVECTOR3::operator+
; Function compile flags: /Ogsp
;	COMDAT ??HD3DXVECTOR3@@QBE?AU0@ABU0@@Z
_TEXT	SEGMENT
___$ReturnUdt$ = 8					; size = 4
_v$ = 12						; size = 4
??HD3DXVECTOR3@@QBE?AU0@ABU0@@Z PROC			; D3DXVECTOR3::operator+, COMDAT
; _this$ = ecx

; 380  : {

  00000	55		 push	 ebp
  00001	8b ec		 mov	 ebp, esp

; 381  :     return D3DXVECTOR3(x + v.x, y + v.y, z + v.z);

  00003	8b 55 0c	 mov	 edx, DWORD PTR _v$[ebp]
  00006	f3 0f 10 02	 movss	 xmm0, DWORD PTR [edx]
  0000a	f3 0f 10 09	 movss	 xmm1, DWORD PTR [ecx]
  0000e	8b 45 08	 mov	 eax, DWORD PTR ___$ReturnUdt$[ebp]
  00011	0f 5a c0	 cvtps2pd xmm0, xmm0
  00014	0f 5a c9	 cvtps2pd xmm1, xmm1
  00017	f2 0f 58 c1	 addsd	 xmm0, xmm1
  0001b	f3 0f 10 49 04	 movss	 xmm1, DWORD PTR [ecx+4]
  00020	66 0f 5a c0	 cvtpd2ps xmm0, xmm0
  00024	f3 0f 11 00	 movss	 DWORD PTR [eax], xmm0
  00028	f3 0f 10 42 04	 movss	 xmm0, DWORD PTR [edx+4]
  0002d	0f 5a c0	 cvtps2pd xmm0, xmm0
  00030	0f 5a c9	 cvtps2pd xmm1, xmm1
  00033	f2 0f 58 c1	 addsd	 xmm0, xmm1
  00037	f3 0f 10 49 08	 movss	 xmm1, DWORD PTR [ecx+8]
  0003c	66 0f 5a c0	 cvtpd2ps xmm0, xmm0
  00040	f3 0f 11 40 04	 movss	 DWORD PTR [eax+4], xmm0
  00045	f3 0f 10 42 08	 movss	 xmm0, DWORD PTR [edx+8]
  0004a	0f 5a c0	 cvtps2pd xmm0, xmm0
  0004d	0f 5a c9	 cvtps2pd xmm1, xmm1
  00050	f2 0f 58 c1	 addsd	 xmm0, xmm1
  00054	66 0f 5a c0	 cvtpd2ps xmm0, xmm0
  00058	f3 0f 11 40 08	 movss	 DWORD PTR [eax+8], xmm0

; 382  : }

  0005d	5d		 pop	 ebp
  0005e	c2 08 00	 ret	 8
??HD3DXVECTOR3@@QBE?AU0@ABU0@@Z ENDP			; D3DXVECTOR3::operator+
_TEXT	ENDS
PUBLIC	??GD3DXVECTOR3@@QBE?AU0@ABU0@@Z			; D3DXVECTOR3::operator-
; Function compile flags: /Ogsp
;	COMDAT ??GD3DXVECTOR3@@QBE?AU0@ABU0@@Z
_TEXT	SEGMENT
___$ReturnUdt$ = 8					; size = 4
_v$ = 12						; size = 4
??GD3DXVECTOR3@@QBE?AU0@ABU0@@Z PROC			; D3DXVECTOR3::operator-, COMDAT
; _this$ = ecx

; 386  : {

  00000	55		 push	 ebp
  00001	8b ec		 mov	 ebp, esp

; 387  :     return D3DXVECTOR3(x - v.x, y - v.y, z - v.z);

  00003	8b 55 0c	 mov	 edx, DWORD PTR _v$[ebp]
  00006	f3 0f 10 01	 movss	 xmm0, DWORD PTR [ecx]
  0000a	f3 0f 10 0a	 movss	 xmm1, DWORD PTR [edx]
  0000e	8b 45 08	 mov	 eax, DWORD PTR ___$ReturnUdt$[ebp]
  00011	0f 5a c0	 cvtps2pd xmm0, xmm0
  00014	0f 5a c9	 cvtps2pd xmm1, xmm1
  00017	f2 0f 5c c1	 subsd	 xmm0, xmm1
  0001b	f3 0f 10 4a 04	 movss	 xmm1, DWORD PTR [edx+4]
  00020	66 0f 5a c0	 cvtpd2ps xmm0, xmm0
  00024	f3 0f 11 00	 movss	 DWORD PTR [eax], xmm0
  00028	f3 0f 10 41 04	 movss	 xmm0, DWORD PTR [ecx+4]
  0002d	0f 5a c0	 cvtps2pd xmm0, xmm0
  00030	0f 5a c9	 cvtps2pd xmm1, xmm1
  00033	f2 0f 5c c1	 subsd	 xmm0, xmm1
  00037	f3 0f 10 4a 08	 movss	 xmm1, DWORD PTR [edx+8]
  0003c	66 0f 5a c0	 cvtpd2ps xmm0, xmm0
  00040	f3 0f 11 40 04	 movss	 DWORD PTR [eax+4], xmm0
  00045	f3 0f 10 41 08	 movss	 xmm0, DWORD PTR [ecx+8]
  0004a	0f 5a c0	 cvtps2pd xmm0, xmm0
  0004d	0f 5a c9	 cvtps2pd xmm1, xmm1
  00050	f2 0f 5c c1	 subsd	 xmm0, xmm1
  00054	66 0f 5a c0	 cvtpd2ps xmm0, xmm0
  00058	f3 0f 11 40 08	 movss	 DWORD PTR [eax+8], xmm0

; 388  : }

  0005d	5d		 pop	 ebp
  0005e	c2 08 00	 ret	 8
??GD3DXVECTOR3@@QBE?AU0@ABU0@@Z ENDP			; D3DXVECTOR3::operator-
_TEXT	ENDS
PUBLIC	??DD3DXVECTOR3@@QBE?AU0@M@Z			; D3DXVECTOR3::operator*
; Function compile flags: /Ogsp
;	COMDAT ??DD3DXVECTOR3@@QBE?AU0@M@Z
_TEXT	SEGMENT
___$ReturnUdt$ = 8					; size = 4
_f$ = 12						; size = 4
??DD3DXVECTOR3@@QBE?AU0@M@Z PROC			; D3DXVECTOR3::operator*, COMDAT
; _this$ = ecx

; 392  : {

  00000	55		 push	 ebp
  00001	8b ec		 mov	 ebp, esp

; 393  :     return D3DXVECTOR3(x * f, y * f, z * f);

  00003	f3 0f 10 4d 0c	 movss	 xmm1, DWORD PTR _f$[ebp]
  00008	f3 0f 10 01	 movss	 xmm0, DWORD PTR [ecx]
  0000c	8b 45 08	 mov	 eax, DWORD PTR ___$ReturnUdt$[ebp]
  0000f	0f 5a c0	 cvtps2pd xmm0, xmm0
  00012	0f 5a c9	 cvtps2pd xmm1, xmm1
  00015	f2 0f 59 c1	 mulsd	 xmm0, xmm1
  00019	f3 0f 10 4d 0c	 movss	 xmm1, DWORD PTR _f$[ebp]
  0001e	66 0f 5a c0	 cvtpd2ps xmm0, xmm0
  00022	f3 0f 11 00	 movss	 DWORD PTR [eax], xmm0
  00026	f3 0f 10 41 04	 movss	 xmm0, DWORD PTR [ecx+4]
  0002b	0f 5a c0	 cvtps2pd xmm0, xmm0
  0002e	0f 5a c9	 cvtps2pd xmm1, xmm1
  00031	f2 0f 59 c1	 mulsd	 xmm0, xmm1
  00035	f3 0f 10 4d 0c	 movss	 xmm1, DWORD PTR _f$[ebp]
  0003a	66 0f 5a c0	 cvtpd2ps xmm0, xmm0
  0003e	f3 0f 11 40 04	 movss	 DWORD PTR [eax+4], xmm0
  00043	f3 0f 10 41 08	 movss	 xmm0, DWORD PTR [ecx+8]
  00048	0f 5a c0	 cvtps2pd xmm0, xmm0
  0004b	0f 5a c9	 cvtps2pd xmm1, xmm1
  0004e	f2 0f 59 c1	 mulsd	 xmm0, xmm1
  00052	66 0f 5a c0	 cvtpd2ps xmm0, xmm0
  00056	f3 0f 11 40 08	 movss	 DWORD PTR [eax+8], xmm0

; 394  : }

  0005b	5d		 pop	 ebp
  0005c	c2 08 00	 ret	 8
??DD3DXVECTOR3@@QBE?AU0@M@Z ENDP			; D3DXVECTOR3::operator*
_TEXT	ENDS
PUBLIC	??9D3DXVECTOR3@@QBEHABU0@@Z			; D3DXVECTOR3::operator!=
; Function compile flags: /Ogsp
;	COMDAT ??9D3DXVECTOR3@@QBEHABU0@@Z
_TEXT	SEGMENT
_v$ = 8							; size = 4
??9D3DXVECTOR3@@QBEHABU0@@Z PROC			; D3DXVECTOR3::operator!=, COMDAT
; _this$ = ecx

; 419  : {

  00000	55		 push	 ebp
  00001	8b ec		 mov	 ebp, esp

; 420  :     return x != v.x || y != v.y || z != v.z;

  00003	8b 55 08	 mov	 edx, DWORD PTR _v$[ebp]
  00006	f3 0f 10 01	 movss	 xmm0, DWORD PTR [ecx]
  0000a	f3 0f 10 0a	 movss	 xmm1, DWORD PTR [edx]
  0000e	0f 5a c0	 cvtps2pd xmm0, xmm0
  00011	0f 5a c9	 cvtps2pd xmm1, xmm1
  00014	66 0f 2e c1	 ucomisd xmm0, xmm1
  00018	9f		 lahf
  00019	f6 c4 44	 test	 ah, 68			; 00000044H
  0001c	7a 38		 jp	 SHORT $LN3@operator
  0001e	f3 0f 10 41 04	 movss	 xmm0, DWORD PTR [ecx+4]
  00023	f3 0f 10 4a 04	 movss	 xmm1, DWORD PTR [edx+4]
  00028	0f 5a c0	 cvtps2pd xmm0, xmm0
  0002b	0f 5a c9	 cvtps2pd xmm1, xmm1
  0002e	66 0f 2e c1	 ucomisd xmm0, xmm1
  00032	9f		 lahf
  00033	f6 c4 44	 test	 ah, 68			; 00000044H
  00036	7a 1e		 jp	 SHORT $LN3@operator
  00038	f3 0f 10 41 08	 movss	 xmm0, DWORD PTR [ecx+8]
  0003d	f3 0f 10 4a 08	 movss	 xmm1, DWORD PTR [edx+8]
  00042	0f 5a c0	 cvtps2pd xmm0, xmm0
  00045	0f 5a c9	 cvtps2pd xmm1, xmm1
  00048	66 0f 2e c1	 ucomisd xmm0, xmm1
  0004c	9f		 lahf
  0004d	f6 c4 44	 test	 ah, 68			; 00000044H
  00050	7a 04		 jp	 SHORT $LN3@operator
  00052	33 c0		 xor	 eax, eax
  00054	eb 03		 jmp	 SHORT $LN4@operator
$LN3@operator:
  00056	33 c0		 xor	 eax, eax
  00058	40		 inc	 eax
$LN4@operator:

; 421  : }

  00059	5d		 pop	 ebp
  0005a	c2 04 00	 ret	 4
??9D3DXVECTOR3@@QBEHABU0@@Z ENDP			; D3DXVECTOR3::operator!=
_TEXT	ENDS
PUBLIC	?D3DXVec3Length@@YAMPBUD3DXVECTOR3@@@Z		; D3DXVec3Length
; Function compile flags: /Ogsp
;	COMDAT ?D3DXVec3Length@@YAMPBUD3DXVECTOR3@@@Z
_TEXT	SEGMENT
tv169 = 8						; size = 4
tv160 = 8						; size = 4
_pV$ = 8						; size = 4
?D3DXVec3Length@@YAMPBUD3DXVECTOR3@@@Z PROC		; D3DXVec3Length, COMDAT

; 1710 : {

  00000	55		 push	 ebp
  00001	8b ec		 mov	 ebp, esp

; 1711 : #ifdef D3DX_DEBUG
; 1712 :     if(!pV)
; 1713 :         return 0.0f;
; 1714 : #endif
; 1715 : 
; 1716 : #ifdef __cplusplus
; 1717 :     return sqrtf(pV->x * pV->x + pV->y * pV->y + pV->z * pV->z);

  00003	8b 45 08	 mov	 eax, DWORD PTR _pV$[ebp]
  00006	d9 40 04	 fld	 DWORD PTR [eax+4]
  00009	d9 00		 fld	 DWORD PTR [eax]
  0000b	d9 40 08	 fld	 DWORD PTR [eax+8]
  0000e	d9 c1		 fld	 ST(1)
  00010	de ca		 fmulp	 ST(2), ST(0)
  00012	d9 c2		 fld	 ST(2)
  00014	de cb		 fmulp	 ST(3), ST(0)
  00016	d9 c9		 fxch	 ST(1)
  00018	de c2		 faddp	 ST(2), ST(0)
  0001a	d9 c0		 fld	 ST(0)
  0001c	de c9		 fmulp	 ST(1), ST(0)
  0001e	de c1		 faddp	 ST(1), ST(0)
  00020	d9 5d 08	 fstp	 DWORD PTR tv169[ebp]
  00023	d9 45 08	 fld	 DWORD PTR tv169[ebp]
  00026	e8 00 00 00 00	 call	 __CIsqrt
  0002b	d9 5d 08	 fstp	 DWORD PTR tv160[ebp]
  0002e	d9 45 08	 fld	 DWORD PTR tv160[ebp]

; 1718 : #else
; 1719 :     return (FLOAT) sqrt(pV->x * pV->x + pV->y * pV->y + pV->z * pV->z);
; 1720 : #endif
; 1721 : }

  00031	5d		 pop	 ebp
  00032	c3		 ret	 0
?D3DXVec3Length@@YAMPBUD3DXVECTOR3@@@Z ENDP		; D3DXVec3Length
_TEXT	ENDS
PUBLIC	?D3DXVec3LengthSq@@YAMPBUD3DXVECTOR3@@@Z	; D3DXVec3LengthSq
; Function compile flags: /Ogsp
;	COMDAT ?D3DXVec3LengthSq@@YAMPBUD3DXVECTOR3@@@Z
_TEXT	SEGMENT
tv165 = 8						; size = 4
_pV$ = 8						; size = 4
?D3DXVec3LengthSq@@YAMPBUD3DXVECTOR3@@@Z PROC		; D3DXVec3LengthSq, COMDAT

; 1725 : {

  00000	55		 push	 ebp
  00001	8b ec		 mov	 ebp, esp

; 1726 : #ifdef D3DX_DEBUG
; 1727 :     if(!pV)
; 1728 :         return 0.0f;
; 1729 : #endif
; 1730 : 
; 1731 :     return pV->x * pV->x + pV->y * pV->y + pV->z * pV->z;

  00003	8b 45 08	 mov	 eax, DWORD PTR _pV$[ebp]
  00006	d9 40 04	 fld	 DWORD PTR [eax+4]
  00009	d9 00		 fld	 DWORD PTR [eax]
  0000b	d9 40 08	 fld	 DWORD PTR [eax+8]
  0000e	d9 c1		 fld	 ST(1)
  00010	de ca		 fmulp	 ST(2), ST(0)
  00012	d9 c2		 fld	 ST(2)
  00014	de cb		 fmulp	 ST(3), ST(0)
  00016	d9 c9		 fxch	 ST(1)
  00018	de c2		 faddp	 ST(2), ST(0)
  0001a	d9 c0		 fld	 ST(0)
  0001c	de c9		 fmulp	 ST(1), ST(0)
  0001e	de c1		 faddp	 ST(1), ST(0)
  00020	d9 5d 08	 fstp	 DWORD PTR tv165[ebp]
  00023	d9 45 08	 fld	 DWORD PTR tv165[ebp]

; 1732 : }

  00026	5d		 pop	 ebp
  00027	c3		 ret	 0
?D3DXVec3LengthSq@@YAMPBUD3DXVECTOR3@@@Z ENDP		; D3DXVec3LengthSq
_TEXT	ENDS
PUBLIC	?D3DXVec3Dot@@YAMPBUD3DXVECTOR3@@0@Z		; D3DXVec3Dot
; Function compile flags: /Ogsp
;	COMDAT ?D3DXVec3Dot@@YAMPBUD3DXVECTOR3@@0@Z
_TEXT	SEGMENT
tv188 = 8						; size = 4
_pV1$ = 8						; size = 4
_pV2$ = 12						; size = 4
?D3DXVec3Dot@@YAMPBUD3DXVECTOR3@@0@Z PROC		; D3DXVec3Dot, COMDAT

; 1736 : {

  00000	55		 push	 ebp
  00001	8b ec		 mov	 ebp, esp

; 1737 : #ifdef D3DX_DEBUG
; 1738 :     if(!pV1 || !pV2)
; 1739 :         return 0.0f;
; 1740 : #endif
; 1741 : 
; 1742 :     return pV1->x * pV2->x + pV1->y * pV2->y + pV1->z * pV2->z;

  00003	8b 45 08	 mov	 eax, DWORD PTR _pV1$[ebp]
  00006	8b 4d 0c	 mov	 ecx, DWORD PTR _pV2$[ebp]
  00009	d9 40 04	 fld	 DWORD PTR [eax+4]
  0000c	d8 49 04	 fmul	 DWORD PTR [ecx+4]
  0000f	d9 00		 fld	 DWORD PTR [eax]
  00011	d8 09		 fmul	 DWORD PTR [ecx]
  00013	de c1		 faddp	 ST(1), ST(0)
  00015	d9 40 08	 fld	 DWORD PTR [eax+8]
  00018	d8 49 08	 fmul	 DWORD PTR [ecx+8]
  0001b	de c1		 faddp	 ST(1), ST(0)
  0001d	d9 5d 08	 fstp	 DWORD PTR tv188[ebp]
  00020	d9 45 08	 fld	 DWORD PTR tv188[ebp]

; 1743 : }

  00023	5d		 pop	 ebp
  00024	c3		 ret	 0
?D3DXVec3Dot@@YAMPBUD3DXVECTOR3@@0@Z ENDP		; D3DXVec3Dot
_TEXT	ENDS
PUBLIC	?D3DXVec3Cross@@YAPAUD3DXVECTOR3@@PAU1@PBU1@1@Z	; D3DXVec3Cross
; Function compile flags: /Ogsp
;	COMDAT ?D3DXVec3Cross@@YAPAUD3DXVECTOR3@@PAU1@PBU1@1@Z
_TEXT	SEGMENT
_v$ = -12						; size = 12
_pOut$ = 8						; size = 4
_pV1$ = 12						; size = 4
_pV2$ = 16						; size = 4
?D3DXVec3Cross@@YAPAUD3DXVECTOR3@@PAU1@PBU1@1@Z PROC	; D3DXVec3Cross, COMDAT

; 1747 : {

  00000	55		 push	 ebp
  00001	8b ec		 mov	 ebp, esp
  00003	83 ec 0c	 sub	 esp, 12			; 0000000cH

; 1757 :     v.z = pV1->x * pV2->y - pV1->y * pV2->x;
; 1758 : 
; 1759 :     *pOut = v;

  00006	56		 push	 esi
  00007	57		 push	 edi

; 1748 :     D3DXVECTOR3 v;
; 1749 : 
; 1750 : #ifdef D3DX_DEBUG
; 1751 :     if(!pOut || !pV1 || !pV2)
; 1752 :         return NULL;
; 1753 : #endif
; 1754 : 
; 1755 :     v.x = pV1->y * pV2->z - pV1->z * pV2->y;

  00008	8b 45 0c	 mov	 eax, DWORD PTR _pV1$[ebp]
  0000b	f3 0f 10 40 04	 movss	 xmm0, DWORD PTR [eax+4]
  00010	f3 0f 10 50 08	 movss	 xmm2, DWORD PTR [eax+8]
  00015	8b 4d 10	 mov	 ecx, DWORD PTR _pV2$[ebp]
  00018	f3 0f 10 49 08	 movss	 xmm1, DWORD PTR [ecx+8]
  0001d	f3 0f 10 59 04	 movss	 xmm3, DWORD PTR [ecx+4]
  00022	0f 5a e8	 cvtps2pd xmm5, xmm0
  00025	0f 5a e1	 cvtps2pd xmm4, xmm1
  00028	0f 5a f2	 cvtps2pd xmm6, xmm2
  0002b	f2 0f 59 e5	 mulsd	 xmm4, xmm5

; 1756 :     v.y = pV1->z * pV2->x - pV1->x * pV2->z;

  0002f	0f 5a d2	 cvtps2pd xmm2, xmm2
  00032	0f 5a c9	 cvtps2pd xmm1, xmm1
  00035	0f 5a eb	 cvtps2pd xmm5, xmm3
  00038	f2 0f 59 ee	 mulsd	 xmm5, xmm6
  0003c	f2 0f 5c e5	 subsd	 xmm4, xmm5
  00040	f3 0f 10 28	 movss	 xmm5, DWORD PTR [eax]

; 1757 :     v.z = pV1->x * pV2->y - pV1->y * pV2->x;
; 1758 : 
; 1759 :     *pOut = v;

  00044	8b 45 08	 mov	 eax, DWORD PTR _pOut$[ebp]
  00047	66 0f 5a e4	 cvtpd2ps xmm4, xmm4
  0004b	f3 0f 11 65 f4	 movss	 DWORD PTR _v$[ebp], xmm4
  00050	f3 0f 10 21	 movss	 xmm4, DWORD PTR [ecx]
  00054	0f 5a f4	 cvtps2pd xmm6, xmm4
  00057	f2 0f 59 f2	 mulsd	 xmm6, xmm2
  0005b	0f 5a d5	 cvtps2pd xmm2, xmm5
  0005e	f2 0f 59 d1	 mulsd	 xmm2, xmm1
  00062	f2 0f 5c f2	 subsd	 xmm6, xmm2
  00066	66 0f 5a ce	 cvtpd2ps xmm1, xmm6
  0006a	f3 0f 11 4d f8	 movss	 DWORD PTR _v$[ebp+4], xmm1
  0006f	0f 5a c0	 cvtps2pd xmm0, xmm0
  00072	0f 5a d3	 cvtps2pd xmm2, xmm3
  00075	0f 5a cd	 cvtps2pd xmm1, xmm5
  00078	f2 0f 59 ca	 mulsd	 xmm1, xmm2
  0007c	8d 75 f4	 lea	 esi, DWORD PTR _v$[ebp]
  0007f	8b f8		 mov	 edi, eax
  00081	0f 5a d4	 cvtps2pd xmm2, xmm4
  00084	f2 0f 59 d0	 mulsd	 xmm2, xmm0
  00088	f2 0f 5c ca	 subsd	 xmm1, xmm2
  0008c	66 0f 5a c1	 cvtpd2ps xmm0, xmm1
  00090	f3 0f 11 45 fc	 movss	 DWORD PTR _v$[ebp+8], xmm0
  00095	a5		 movsd
  00096	a5		 movsd
  00097	a5		 movsd
  00098	5f		 pop	 edi
  00099	5e		 pop	 esi

; 1760 :     return pOut;
; 1761 : }

  0009a	c9		 leave
  0009b	c3		 ret	 0
?D3DXVec3Cross@@YAPAUD3DXVECTOR3@@PAU1@PBU1@1@Z ENDP	; D3DXVec3Cross
_TEXT	ENDS
PUBLIC	??$addressof@VioHashString@@@std@@YAPAVioHashString@@AAV1@@Z ; std::addressof<ioHashString>
; Function compile flags: /Ogsp
; File c:\program files (x86)\microsoft visual studio 10.0\vc\include\xmemory
;	COMDAT ??$addressof@VioHashString@@@std@@YAPAVioHashString@@AAV1@@Z
_TEXT	SEGMENT
__Val$ = 8						; size = 4
??$addressof@VioHashString@@@std@@YAPAVioHashString@@AAV1@@Z PROC ; std::addressof<ioHashString>, COMDAT

; 110  : 	{	// return address of _Val

  00000	55		 push	 ebp
  00001	8b ec		 mov	 ebp, esp

; 111  : 	return ((_Ty *) &(char&)_Val);

  00003	8b 45 08	 mov	 eax, DWORD PTR __Val$[ebp]

; 112  : 	}

  00006	5d		 pop	 ebp
  00007	c3		 ret	 0
??$addressof@VioHashString@@@std@@YAPAVioHashString@@AAV1@@Z ENDP ; std::addressof<ioHashString>
_TEXT	ENDS
PUBLIC	??$forward@VioHashString@@@std@@YA$$QAVioHashString@@AAV1@@Z ; std::forward<ioHashString>
; Function compile flags: /Ogsp
; File c:\program files (x86)\microsoft visual studio 10.0\vc\include\utility
;	COMDAT ??$forward@VioHashString@@@std@@YA$$QAVioHashString@@AAV1@@Z
_TEXT	SEGMENT
__Arg$ = 8						; size = 4
??$forward@VioHashString@@@std@@YA$$QAVioHashString@@AAV1@@Z PROC ; std::forward<ioHashString>, COMDAT

; 78   : 	{	// forward _Arg, given explicitly specified type parameter

  00000	55		 push	 ebp
  00001	8b ec		 mov	 ebp, esp

; 79   : 	return ((_Ty&&)_Arg);

  00003	8b 45 08	 mov	 eax, DWORD PTR __Arg$[ebp]

; 80   : 	}

  00006	5d		 pop	 ebp
  00007	c3		 ret	 0
??$forward@VioHashString@@@std@@YA$$QAVioHashString@@AAV1@@Z ENDP ; std::forward<ioHashString>
_TEXT	ENDS
PUBLIC	??$addressof@$$CBUBuffInfoStruct@@@std@@YAPBUBuffInfoStruct@@ABU1@@Z ; std::addressof<BuffInfoStruct const >
; Function compile flags: /Ogsp
; File c:\program files (x86)\microsoft visual studio 10.0\vc\include\xmemory
;	COMDAT ??$addressof@$$CBUBuffInfoStruct@@@std@@YAPBUBuffInfoStruct@@ABU1@@Z
_TEXT	SEGMENT
__Val$ = 8						; size = 4
??$addressof@$$CBUBuffInfoStruct@@@std@@YAPBUBuffInfoStruct@@ABU1@@Z PROC ; std::addressof<BuffInfoStruct const >, COMDAT

; 110  : 	{	// return address of _Val

  00000	55		 push	 ebp
  00001	8b ec		 mov	 ebp, esp

; 111  : 	return ((_Ty *) &(char&)_Val);

  00003	8b 45 08	 mov	 eax, DWORD PTR __Val$[ebp]

; 112  : 	}

  00006	5d		 pop	 ebp
  00007	c3		 ret	 0
??$addressof@$$CBUBuffInfoStruct@@@std@@YAPBUBuffInfoStruct@@ABU1@@Z ENDP ; std::addressof<BuffInfoStruct const >
_TEXT	ENDS
PUBLIC	?construct@?$allocator@VioHashString@@@std@@QAEXPAVioHashString@@$$QAV3@@Z ; std::allocator<ioHashString>::construct
EXTRN	__imp_??0ioHashString@@QAE@ABV0@@Z:PROC
;	COMDAT xdata$x
; File c:\program files (x86)\microsoft visual studio 10.0\vc\include\utility
xdata$x	SEGMENT
__unwindtable$?construct@?$allocator@VioHashString@@@std@@QAEXPAVioHashString@@$$QAV3@@Z DD 0ffffffffH
	DD	FLAT:__unwindfunclet$?construct@?$allocator@VioHashString@@@std@@QAEXPAVioHashString@@$$QAV3@@Z$0
__ehfuncinfo$?construct@?$allocator@VioHashString@@@std@@QAEXPAVioHashString@@$$QAV3@@Z DD 019930522H
	DD	01H
	DD	FLAT:__unwindtable$?construct@?$allocator@VioHashString@@@std@@QAEXPAVioHashString@@$$QAV3@@Z
	DD	2 DUP(00H)
	DD	2 DUP(00H)
	DD	00H
	DD	01H
; Function compile flags: /Ogsp
; File c:\program files (x86)\microsoft visual studio 10.0\vc\include\xmemory
xdata$x	ENDS
;	COMDAT ?construct@?$allocator@VioHashString@@@std@@QAEXPAVioHashString@@$$QAV3@@Z
_TEXT	SEGMENT
$T537294 = -16						; size = 4
__$EHRec$ = -12						; size = 12
__Ptr$ = 8						; size = 4
__Val$ = 12						; size = 4
?construct@?$allocator@VioHashString@@@std@@QAEXPAVioHashString@@$$QAV3@@Z PROC ; std::allocator<ioHashString>::construct, COMDAT
; _this$ = ecx

; 201  : 		{	// construct object at _Ptr with value _Val

  00000	6a 04		 push	 4
  00002	b8 00 00 00 00	 mov	 eax, __ehhandler$?construct@?$allocator@VioHashString@@@std@@QAEXPAVioHashString@@$$QAV3@@Z
  00007	e8 00 00 00 00	 call	 __EH_prolog3

; 202  : 		::new ((void _FARQ *)_Ptr) _Ty(_STD forward<_Ty>(_Val));

  0000c	8b 4d 08	 mov	 ecx, DWORD PTR __Ptr$[ebp]
  0000f	89 4d f0	 mov	 DWORD PTR $T537294[ebp], ecx
  00012	83 65 fc 00	 and	 DWORD PTR __$EHRec$[ebp+8], 0
  00016	85 c9		 test	 ecx, ecx
  00018	74 09		 je	 SHORT $LN3@construct
  0001a	ff 75 0c	 push	 DWORD PTR __Val$[ebp]
  0001d	ff 15 00 00 00
	00		 call	 DWORD PTR __imp_??0ioHashString@@QAE@ABV0@@Z
$LN3@construct:

; 203  : 		}

  00023	e8 00 00 00 00	 call	 __EH_epilog3
  00028	c2 08 00	 ret	 8
_TEXT	ENDS
;	COMDAT text$x
text$x	SEGMENT
__unwindfunclet$?construct@?$allocator@VioHashString@@@std@@QAEXPAVioHashString@@$$QAV3@@Z$0:
  00000	ff 75 08	 push	 DWORD PTR __Ptr$[ebp]
  00003	ff 75 f0	 push	 DWORD PTR $T537294[ebp]
  00006	e8 00 00 00 00	 call	 ??3@YAXPAX0@Z		; operator delete
  0000b	59		 pop	 ecx
  0000c	59		 pop	 ecx
  0000d	c3		 ret	 0
__ehhandler$?construct@?$allocator@VioHashString@@@std@@QAEXPAVioHashString@@$$QAV3@@Z:
  0000e	8b 54 24 08	 mov	 edx, DWORD PTR [esp+8]
  00012	8d 42 0c	 lea	 eax, DWORD PTR [edx+12]
  00015	8b 4a ec	 mov	 ecx, DWORD PTR [edx-20]
  00018	33 c8		 xor	 ecx, eax
  0001a	e8 00 00 00 00	 call	 @__security_check_cookie@4
  0001f	b8 00 00 00 00	 mov	 eax, OFFSET __ehfuncinfo$?construct@?$allocator@VioHashString@@@std@@QAEXPAVioHashString@@$$QAV3@@Z
  00024	e9 00 00 00 00	 jmp	 ___CxxFrameHandler3
text$x	ENDS
?construct@?$allocator@VioHashString@@@std@@QAEXPAVioHashString@@$$QAV3@@Z ENDP ; std::allocator<ioHashString>::construct
PUBLIC	??$forward@ABUBuffInfoStruct@@@std@@YAABUBuffInfoStruct@@ABU1@@Z ; std::forward<BuffInfoStruct const &>
; Function compile flags: /Ogsp
; File c:\program files (x86)\microsoft visual studio 10.0\vc\include\utility
;	COMDAT ??$forward@ABUBuffInfoStruct@@@std@@YAABUBuffInfoStruct@@ABU1@@Z
_TEXT	SEGMENT
__Arg$ = 8						; size = 4
??$forward@ABUBuffInfoStruct@@@std@@YAABUBuffInfoStruct@@ABU1@@Z PROC ; std::forward<BuffInfoStruct const &>, COMDAT

; 78   : 	{	// forward _Arg, given explicitly specified type parameter

  00000	55		 push	 ebp
  00001	8b ec		 mov	 ebp, esp

; 79   : 	return ((_Ty&&)_Arg);

  00003	8b 45 08	 mov	 eax, DWORD PTR __Arg$[ebp]

; 80   : 	}

  00006	5d		 pop	 ebp
  00007	c3		 ret	 0
??$forward@ABUBuffInfoStruct@@@std@@YAABUBuffInfoStruct@@ABU1@@Z ENDP ; std::forward<BuffInfoStruct const &>
_TEXT	ENDS
PUBLIC	??$_Val_type@PAVioHashString@@@std@@YAPAVioHashString@@PAV1@@Z ; std::_Val_type<ioHashString *>
; Function compile flags: /Ogsp
; File c:\program files (x86)\microsoft visual studio 10.0\vc\include\xutility
;	COMDAT ??$_Val_type@PAVioHashString@@@std@@YAPAVioHashString@@PAV1@@Z
_TEXT	SEGMENT
___formal$ = 8						; size = 4
??$_Val_type@PAVioHashString@@@std@@YAPAVioHashString@@PAV1@@Z PROC ; std::_Val_type<ioHashString *>, COMDAT

; 790  : 	return (0);

  00000	33 c0		 xor	 eax, eax

; 791  : 	}

  00002	c3		 ret	 0
??$_Val_type@PAVioHashString@@@std@@YAPAVioHashString@@PAV1@@Z ENDP ; std::_Val_type<ioHashString *>
_TEXT	ENDS
PUBLIC	??$_Val_type@PAUBuffInfoStruct@@@std@@YAPAUBuffInfoStruct@@PAU1@@Z ; std::_Val_type<BuffInfoStruct *>
; Function compile flags: /Ogsp
;	COMDAT ??$_Val_type@PAUBuffInfoStruct@@@std@@YAPAUBuffInfoStruct@@PAU1@@Z
_TEXT	SEGMENT
___formal$ = 8						; size = 4
??$_Val_type@PAUBuffInfoStruct@@@std@@YAPAUBuffInfoStruct@@PAU1@@Z PROC ; std::_Val_type<BuffInfoStruct *>, COMDAT

; 790  : 	return (0);

  00000	33 c0		 xor	 eax, eax

; 791  : 	}

  00002	c3		 ret	 0
??$_Val_type@PAUBuffInfoStruct@@@std@@YAPAUBuffInfoStruct@@PAU1@@Z ENDP ; std::_Val_type<BuffInfoStruct *>
_TEXT	ENDS
PUBLIC	??$forward@UBuffInfoStruct@@@std@@YA$$QAUBuffInfoStruct@@AAU1@@Z ; std::forward<BuffInfoStruct>
; Function compile flags: /Ogsp
; File c:\program files (x86)\microsoft visual studio 10.0\vc\include\utility
;	COMDAT ??$forward@UBuffInfoStruct@@@std@@YA$$QAUBuffInfoStruct@@AAU1@@Z
_TEXT	SEGMENT
__Arg$ = 8						; size = 4
??$forward@UBuffInfoStruct@@@std@@YA$$QAUBuffInfoStruct@@AAU1@@Z PROC ; std::forward<BuffInfoStruct>, COMDAT

; 78   : 	{	// forward _Arg, given explicitly specified type parameter

  00000	55		 push	 ebp
  00001	8b ec		 mov	 ebp, esp

; 79   : 	return ((_Ty&&)_Arg);

  00003	8b 45 08	 mov	 eax, DWORD PTR __Arg$[ebp]

; 80   : 	}

  00006	5d		 pop	 ebp
  00007	c3		 ret	 0
??$forward@UBuffInfoStruct@@@std@@YA$$QAUBuffInfoStruct@@AAU1@@Z ENDP ; std::forward<BuffInfoStruct>
_TEXT	ENDS
PUBLIC	?_DECSTR@@YAXPADH@Z				; _DECSTR
; Function compile flags: /Ogsp
; File d:\lost saga for developer\youtube\tutorial\source\src\lsclient\stringprotect.h
;	COMDAT ?_DECSTR@@YAXPADH@Z
_TEXT	SEGMENT
_s$ = 8							; size = 4
_l$ = 12						; size = 4
?_DECSTR@@YAXPADH@Z PROC				; _DECSTR, COMDAT

; 40   : __forceinline void _DECSTR(char* s, int l){int i=0,l4=(l-1)/4,*p=(int*)s;s[l-1]=0;for(;i<l4;++i)*(p++)^=0xEAEBECED;for(i=l4*4;i<l-1;++i)s[i]^=0xED-i%4;}

  00000	55		 push	 ebp
  00001	8b ec		 mov	 ebp, esp
  00003	8b 4d 0c	 mov	 ecx, DWORD PTR _l$[ebp]
  00006	56		 push	 esi
  00007	8b 75 08	 mov	 esi, DWORD PTR _s$[ebp]
  0000a	57		 push	 edi
  0000b	8d 79 ff	 lea	 edi, DWORD PTR [ecx-1]
  0000e	8b c7		 mov	 eax, edi
  00010	99		 cdq
  00011	83 e2 03	 and	 edx, 3
  00014	03 c2		 add	 eax, edx
  00016	c1 f8 02	 sar	 eax, 2
  00019	8b d6		 mov	 edx, esi
  0001b	c6 44 0e ff 00	 mov	 BYTE PTR [esi+ecx-1], 0
  00020	85 c0		 test	 eax, eax
  00022	7e 0e		 jle	 SHORT $LN4@DECSTR
  00024	8b c8		 mov	 ecx, eax
$LL6@DECSTR:
  00026	81 32 ed ec eb
	ea		 xor	 DWORD PTR [edx], -353637139 ; eaebecedH
  0002c	83 c2 04	 add	 edx, 4
  0002f	49		 dec	 ecx
  00030	75 f4		 jne	 SHORT $LL6@DECSTR
$LN4@DECSTR:
  00032	c1 e0 02	 shl	 eax, 2
  00035	eb 17		 jmp	 SHORT $LN14@DECSTR
$LL3@DECSTR:
  00037	8b c8		 mov	 ecx, eax
  00039	81 e1 03 00 00
	80		 and	 ecx, -2147483645	; 80000003H
  0003f	79 05		 jns	 SHORT $LN13@DECSTR
  00041	49		 dec	 ecx
  00042	83 c9 fc	 or	 ecx, -4			; fffffffcH
  00045	41		 inc	 ecx
$LN13@DECSTR:
  00046	b2 ed		 mov	 dl, -19			; ffffffedH
  00048	2a d1		 sub	 dl, cl
  0004a	30 14 30	 xor	 BYTE PTR [eax+esi], dl
  0004d	40		 inc	 eax
$LN14@DECSTR:
  0004e	3b c7		 cmp	 eax, edi
  00050	7c e5		 jl	 SHORT $LL3@DECSTR
  00052	5f		 pop	 edi
  00053	5e		 pop	 esi
  00054	5d		 pop	 ebp
  00055	c3		 ret	 0
?_DECSTR@@YAXPADH@Z ENDP				; _DECSTR
_TEXT	ENDS
PUBLIC	?return57@@YAIXZ				; return57
; Function compile flags: /Ogsp
; File d:\lost saga for developer\youtube\tutorial\source\src\lsclient\veryoftenusedefine.h
;	COMDAT ?return57@@YAIXZ
_TEXT	SEGMENT
?return57@@YAIXZ PROC					; return57, COMDAT

; 15   : __forceinline unsigned int return57() { __asm mov eax, 57 };

  00000	b8 39 00 00 00	 mov	 eax, 57			; 00000039H
  00005	c3		 ret	 0
?return57@@YAIXZ ENDP					; return57
_TEXT	ENDS
PUBLIC	?GetGroup@ioGameEntity@@QBEPAVioEntityGroup@@XZ	; ioGameEntity::GetGroup
; Function compile flags: /Ogsp
; File d:\lost saga for developer\youtube\tutorial\source\src\lsclient\iogameentity.h
;	COMDAT ?GetGroup@ioGameEntity@@QBEPAVioEntityGroup@@XZ
_TEXT	SEGMENT
?GetGroup@ioGameEntity@@QBEPAVioEntityGroup@@XZ PROC	; ioGameEntity::GetGroup, COMDAT
; _this$ = ecx

; 166  : 	inline ioEntityGroup* GetGroup() const { return m_pGroup; }

  00000	8b 41 04	 mov	 eax, DWORD PTR [ecx+4]
  00003	c3		 ret	 0
?GetGroup@ioGameEntity@@QBEPAVioEntityGroup@@XZ ENDP	; ioGameEntity::GetGroup
_TEXT	ENDS
PUBLIC	??_R0?AVioGameEntity@@@8			; ioGameEntity `RTTI Type Descriptor'
PUBLIC	??_R0?AVioPlayEntity@@@8			; ioPlayEntity `RTTI Type Descriptor'
PUBLIC	?ToPlayEntity@@YAPAVioPlayEntity@@PAVioGameEntity@@@Z ; ToPlayEntity
EXTRN	___RTDynamicCast:PROC
;	COMDAT ??_R0?AVioGameEntity@@@8
; File d:\lost saga for developer\youtube\tutorial\source\src\lsclient\ioplayentity.h
_DATA	SEGMENT
??_R0?AVioGameEntity@@@8 DD FLAT:??_7type_info@@6B@	; ioGameEntity `RTTI Type Descriptor'
	DD	00H
	DB	'.?AVioGameEntity@@', 00H
_DATA	ENDS
;	COMDAT ??_R0?AVioPlayEntity@@@8
_DATA	SEGMENT
??_R0?AVioPlayEntity@@@8 DD FLAT:??_7type_info@@6B@	; ioPlayEntity `RTTI Type Descriptor'
	DD	00H
	DB	'.?AVioPlayEntity@@', 00H
; Function compile flags: /Ogsp
_DATA	ENDS
;	COMDAT ?ToPlayEntity@@YAPAVioPlayEntity@@PAVioGameEntity@@@Z
_TEXT	SEGMENT
_pObj$ = 8						; size = 4
?ToPlayEntity@@YAPAVioPlayEntity@@PAVioGameEntity@@@Z PROC ; ToPlayEntity, COMDAT

; 121  : {

  00000	55		 push	 ebp
  00001	8b ec		 mov	 ebp, esp
  00003	56		 push	 esi

; 122  : 	if( !pObj || pObj->GetTypeID() != ioGameEntity::GET_PLAY_ENTITY )

  00004	8b 75 08	 mov	 esi, DWORD PTR _pObj$[ebp]
  00007	85 f6		 test	 esi, esi
  00009	74 25		 je	 SHORT $LN1@ToPlayEnti
  0000b	8b 06		 mov	 eax, DWORD PTR [esi]
  0000d	8b ce		 mov	 ecx, esi
  0000f	ff 50 10	 call	 DWORD PTR [eax+16]
  00012	83 f8 01	 cmp	 eax, 1
  00015	75 19		 jne	 SHORT $LN1@ToPlayEnti

; 124  : 
; 125  : 	return dynamic_cast< ioPlayEntity* >( pObj );

  00017	6a 00		 push	 0
  00019	68 00 00 00 00	 push	 OFFSET ??_R0?AVioPlayEntity@@@8
  0001e	68 00 00 00 00	 push	 OFFSET ??_R0?AVioGameEntity@@@8
  00023	6a 00		 push	 0
  00025	56		 push	 esi
  00026	e8 00 00 00 00	 call	 ___RTDynamicCast
  0002b	83 c4 14	 add	 esp, 20			; 00000014H
  0002e	eb 02		 jmp	 SHORT $LN3@ToPlayEnti
$LN1@ToPlayEnti:

; 123  : 		return NULL;

  00030	33 c0		 xor	 eax, eax
$LN3@ToPlayEnti:
  00032	5e		 pop	 esi

; 126  : }

  00033	5d		 pop	 ebp
  00034	c3		 ret	 0
?ToPlayEntity@@YAPAVioPlayEntity@@PAVioGameEntity@@@Z ENDP ; ToPlayEntity
_TEXT	ENDS
PUBLIC	?GetEffect@ioMapEffect@@QBEPAVioEffect@@XZ	; ioMapEffect::GetEffect
; Function compile flags: /Ogsp
; File d:\lost saga for developer\youtube\tutorial\source\src\lsclient\iomapeffect.h
;	COMDAT ?GetEffect@ioMapEffect@@QBEPAVioEffect@@XZ
_TEXT	SEGMENT
?GetEffect@ioMapEffect@@QBEPAVioEffect@@XZ PROC		; ioMapEffect::GetEffect, COMDAT
; _this$ = ecx

; 40   : 	inline ioEffect* GetEffect() const { return m_pEffect; }

  00000	8b 41 04	 mov	 eax, DWORD PTR [ecx+4]
  00003	c3		 ret	 0
?GetEffect@ioMapEffect@@QBEPAVioEffect@@XZ ENDP		; ioMapEffect::GetEffect
_TEXT	ENDS
PUBLIC	??0BuffInfoStruct@@QAE@XZ			; BuffInfoStruct::BuffInfoStruct
EXTRN	__imp_??0ioHashString@@QAE@XZ:PROC
;	COMDAT xdata$x
; File d:\lost saga for developer\youtube\tutorial\source\src\lsclient\weaponattribute.h
xdata$x	SEGMENT
__unwindtable$??0BuffInfoStruct@@QAE@XZ DD 0ffffffffH
	DD	FLAT:__unwindfunclet$??0BuffInfoStruct@@QAE@XZ$0
__ehfuncinfo$??0BuffInfoStruct@@QAE@XZ DD 019930522H
	DD	01H
	DD	FLAT:__unwindtable$??0BuffInfoStruct@@QAE@XZ
	DD	2 DUP(00H)
	DD	2 DUP(00H)
	DD	00H
	DD	01H
; Function compile flags: /Ogsp
xdata$x	ENDS
;	COMDAT ??0BuffInfoStruct@@QAE@XZ
_TEXT	SEGMENT
_this$ = -16						; size = 4
__$EHRec$ = -12						; size = 12
??0BuffInfoStruct@@QAE@XZ PROC				; BuffInfoStruct::BuffInfoStruct, COMDAT
; _this$ = ecx

; 278  : 	BuffInfoStruct()

  00000	6a 04		 push	 4
  00002	b8 00 00 00 00	 mov	 eax, __ehhandler$??0BuffInfoStruct@@QAE@XZ
  00007	e8 00 00 00 00	 call	 __EH_prolog3
  0000c	8b f1		 mov	 esi, ecx
  0000e	89 75 f0	 mov	 DWORD PTR _this$[ebp], esi
  00011	ff 15 00 00 00
	00		 call	 DWORD PTR __imp_??0ioHashString@@QAE@XZ
  00017	83 65 fc 00	 and	 DWORD PTR __$EHRec$[ebp+8], 0

; 279  : 	{
; 280  : 		m_BuffName.Clear();

  0001b	8b ce		 mov	 ecx, esi
  0001d	ff 15 00 00 00
	00		 call	 DWORD PTR __imp_?Clear@ioHashString@@QAEXXZ

; 281  : 		m_iBuffType = 0;

  00023	83 66 10 00	 and	 DWORD PTR [esi+16], 0

; 282  : 	}

  00027	8b c6		 mov	 eax, esi
  00029	e8 00 00 00 00	 call	 __EH_epilog3
  0002e	c3		 ret	 0
_TEXT	ENDS
;	COMDAT text$x
text$x	SEGMENT
__unwindfunclet$??0BuffInfoStruct@@QAE@XZ$0:
  00000	8b 4d f0	 mov	 ecx, DWORD PTR _this$[ebp]
  00003	ff 25 00 00 00
	00		 jmp	 DWORD PTR __imp_??1ioHashString@@QAE@XZ
__ehhandler$??0BuffInfoStruct@@QAE@XZ:
  00009	8b 54 24 08	 mov	 edx, DWORD PTR [esp+8]
  0000d	8d 42 0c	 lea	 eax, DWORD PTR [edx+12]
  00010	8b 4a ec	 mov	 ecx, DWORD PTR [edx-20]
  00013	33 c8		 xor	 ecx, eax
  00015	e8 00 00 00 00	 call	 @__security_check_cookie@4
  0001a	b8 00 00 00 00	 mov	 eax, OFFSET __ehfuncinfo$??0BuffInfoStruct@@QAE@XZ
  0001f	e9 00 00 00 00	 jmp	 ___CxxFrameHandler3
text$x	ENDS
??0BuffInfoStruct@@QAE@XZ ENDP				; BuffInfoStruct::BuffInfoStruct
PUBLIC	??1BuffInfoStruct@@QAE@XZ			; BuffInfoStruct::~BuffInfoStruct
; Function compile flags: /Ogsp
;	COMDAT ??1BuffInfoStruct@@QAE@XZ
_TEXT	SEGMENT
??1BuffInfoStruct@@QAE@XZ PROC				; BuffInfoStruct::~BuffInfoStruct, COMDAT
; _this$ = ecx
  00000	ff 25 00 00 00
	00		 jmp	 DWORD PTR __imp_??1ioHashString@@QAE@XZ
??1BuffInfoStruct@@QAE@XZ ENDP				; BuffInfoStruct::~BuffInfoStruct
_TEXT	ENDS
PUBLIC	?IsGameOwnerWeapon@ioWeapon@@QBE_NXZ		; ioWeapon::IsGameOwnerWeapon
; Function compile flags: /Ogsp
; File d:\lost saga for developer\youtube\tutorial\source\src\lsclient\ioweapon.h
;	COMDAT ?IsGameOwnerWeapon@ioWeapon@@QBE_NXZ
_TEXT	SEGMENT
?IsGameOwnerWeapon@ioWeapon@@QBE_NXZ PROC		; ioWeapon::IsGameOwnerWeapon, COMDAT
; _this$ = ecx

; 532  : 	inline bool IsGameOwnerWeapon() const { return m_bGameOwnerWeapon; }

  00000	8a 81 80 05 00
	00		 mov	 al, BYTE PTR [ecx+1408]
  00006	c3		 ret	 0
?IsGameOwnerWeapon@ioWeapon@@QBE_NXZ ENDP		; ioWeapon::IsGameOwnerWeapon
_TEXT	ENDS
PUBLIC	?IsLive@ioWeapon@@QBE_NXZ			; ioWeapon::IsLive
; Function compile flags: /Ogsp
;	COMDAT ?IsLive@ioWeapon@@QBE_NXZ
_TEXT	SEGMENT
?IsLive@ioWeapon@@QBE_NXZ PROC				; ioWeapon::IsLive, COMDAT
; _this$ = ecx

; 533  : 	inline bool IsLive() const { return m_bLive; }

  00000	8a 81 82 05 00
	00		 mov	 al, BYTE PTR [ecx+1410]
  00006	c3		 ret	 0
?IsLive@ioWeapon@@QBE_NXZ ENDP				; ioWeapon::IsLive
_TEXT	ENDS
PUBLIC	?GetOwnerName@ioWeapon@@QBEABVioHashString@@XZ	; ioWeapon::GetOwnerName
; Function compile flags: /Ogsp
;	COMDAT ?GetOwnerName@ioWeapon@@QBEABVioHashString@@XZ
_TEXT	SEGMENT
?GetOwnerName@ioWeapon@@QBEABVioHashString@@XZ PROC	; ioWeapon::GetOwnerName, COMDAT
; _this$ = ecx

; 636  : 	inline const ioHashString& GetOwnerName() const { return m_OwnerName; }

  00000	8d 41 10	 lea	 eax, DWORD PTR [ecx+16]
  00003	c3		 ret	 0
?GetOwnerName@ioWeapon@@QBEABVioHashString@@XZ ENDP	; ioWeapon::GetOwnerName
_TEXT	ENDS
PUBLIC	?GetParentSceneNode@ioWeapon@@QBEPAVioSceneNode@@XZ ; ioWeapon::GetParentSceneNode
; Function compile flags: /Ogsp
;	COMDAT ?GetParentSceneNode@ioWeapon@@QBEPAVioSceneNode@@XZ
_TEXT	SEGMENT
?GetParentSceneNode@ioWeapon@@QBEPAVioSceneNode@@XZ PROC ; ioWeapon::GetParentSceneNode, COMDAT
; _this$ = ecx

; 797  : 	ioSceneNode* GetParentSceneNode() const { return m_pSceneNode; }

  00000	8b 41 04	 mov	 eax, DWORD PTR [ecx+4]
  00003	c3		 ret	 0
?GetParentSceneNode@ioWeapon@@QBEPAVioSceneNode@@XZ ENDP ; ioWeapon::GetParentSceneNode
_TEXT	ENDS
PUBLIC	?GetCreator@ioWeaponManager@@QAEPAVioPlayStage@@XZ ; ioWeaponManager::GetCreator
; Function compile flags: /Ogsp
; File d:\lost saga for developer\youtube\tutorial\source\src\lsclient\ioweaponmanager.h
;	COMDAT ?GetCreator@ioWeaponManager@@QAEPAVioPlayStage@@XZ
_TEXT	SEGMENT
?GetCreator@ioWeaponManager@@QAEPAVioPlayStage@@XZ PROC	; ioWeaponManager::GetCreator, COMDAT
; _this$ = ecx

; 152  : 	inline ioPlayStage* GetCreator() { return m_pPlayStage; }

  00000	8b 41 74	 mov	 eax, DWORD PTR [ecx+116]
  00003	c3		 ret	 0
?GetCreator@ioWeaponManager@@QAEPAVioPlayStage@@XZ ENDP	; ioWeaponManager::GetCreator
_TEXT	ENDS
PUBLIC	??_R0?AVioSymbolStruct@@@8			; ioSymbolStruct `RTTI Type Descriptor'
PUBLIC	?ToSymbolStruct@@YAPAVioSymbolStruct@@PAVioGameEntity@@@Z ; ToSymbolStruct
;	COMDAT ??_R0?AVioSymbolStruct@@@8
; File d:\lost saga for developer\youtube\tutorial\source\src\lsclient\iosymbolstruct.h
_DATA	SEGMENT
??_R0?AVioSymbolStruct@@@8 DD FLAT:??_7type_info@@6B@	; ioSymbolStruct `RTTI Type Descriptor'
	DD	00H
	DB	'.?AVioSymbolStruct@@', 00H
; Function compile flags: /Ogsp
_DATA	ENDS
;	COMDAT ?ToSymbolStruct@@YAPAVioSymbolStruct@@PAVioGameEntity@@@Z
_TEXT	SEGMENT
_pObj$ = 8						; size = 4
?ToSymbolStruct@@YAPAVioSymbolStruct@@PAVioGameEntity@@@Z PROC ; ToSymbolStruct, COMDAT

; 171  : {

  00000	55		 push	 ebp
  00001	8b ec		 mov	 ebp, esp
  00003	56		 push	 esi

; 172  : 	ioPlayEntity *pPlay = ToPlayEntity( pObj );

  00004	ff 75 08	 push	 DWORD PTR _pObj$[ebp]
  00007	e8 00 00 00 00	 call	 ?ToPlayEntity@@YAPAVioPlayEntity@@PAVioGameEntity@@@Z ; ToPlayEntity
  0000c	8b f0		 mov	 esi, eax
  0000e	59		 pop	 ecx

; 173  : 	if( !pPlay || pPlay->GetSubType() != ioPlayEntity::PST_SYMBOL )

  0000f	85 f6		 test	 esi, esi
  00011	74 28		 je	 SHORT $LN1@ToSymbolSt
  00013	8b 06		 mov	 eax, DWORD PTR [esi]
  00015	8b ce		 mov	 ecx, esi
  00017	ff 90 a4 00 00
	00		 call	 DWORD PTR [eax+164]
  0001d	83 f8 01	 cmp	 eax, 1
  00020	75 19		 jne	 SHORT $LN1@ToSymbolSt

; 175  : 
; 176  : 	return dynamic_cast< ioSymbolStruct* >( pPlay );

  00022	6a 00		 push	 0
  00024	68 00 00 00 00	 push	 OFFSET ??_R0?AVioSymbolStruct@@@8
  00029	68 00 00 00 00	 push	 OFFSET ??_R0?AVioPlayEntity@@@8
  0002e	6a 00		 push	 0
  00030	56		 push	 esi
  00031	e8 00 00 00 00	 call	 ___RTDynamicCast
  00036	83 c4 14	 add	 esp, 20			; 00000014H
  00039	eb 02		 jmp	 SHORT $LN3@ToSymbolSt
$LN1@ToSymbolSt:

; 174  : 		return NULL;

  0003b	33 c0		 xor	 eax, eax
$LN3@ToSymbolSt:
  0003d	5e		 pop	 esi

; 177  : }

  0003e	5d		 pop	 ebp
  0003f	c3		 ret	 0
?ToSymbolStruct@@YAPAVioSymbolStruct@@PAVioGameEntity@@@Z ENDP ; ToSymbolStruct
_TEXT	ENDS
PUBLIC	?size@?$vector@VioHashString@@V?$allocator@VioHashString@@@std@@@std@@QBEIXZ ; std::vector<ioHashString,std::allocator<ioHashString> >::size
; Function compile flags: /Ogsp
; File c:\program files (x86)\microsoft visual studio 10.0\vc\include\vector
;	COMDAT ?size@?$vector@VioHashString@@V?$allocator@VioHashString@@@std@@@std@@QBEIXZ
_TEXT	SEGMENT
?size@?$vector@VioHashString@@V?$allocator@VioHashString@@@std@@@std@@QBEIXZ PROC ; std::vector<ioHashString,std::allocator<ioHashString> >::size, COMDAT
; _this$ = ecx

; 879  : 		return (this->_Mylast - this->_Myfirst);

  00000	8b 41 04	 mov	 eax, DWORD PTR [ecx+4]
  00003	2b 01		 sub	 eax, DWORD PTR [ecx]
  00005	c1 f8 04	 sar	 eax, 4

; 880  : 		}

  00008	c3		 ret	 0
?size@?$vector@VioHashString@@V?$allocator@VioHashString@@@std@@@std@@QBEIXZ ENDP ; std::vector<ioHashString,std::allocator<ioHashString> >::size
_TEXT	ENDS
PUBLIC	??_7?$CEncrypt@M@@6B@				; CEncrypt<float>::`vftable'
PUBLIC	??1?$CEncrypt@M@@UAE@XZ				; CEncrypt<float>::~CEncrypt<float>
PUBLIC	??_R4?$CEncrypt@M@@6B@				; CEncrypt<float>::`RTTI Complete Object Locator'
PUBLIC	??_R0?AV?$CEncrypt@M@@@8			; CEncrypt<float> `RTTI Type Descriptor'
PUBLIC	??_R3?$CEncrypt@M@@8				; CEncrypt<float>::`RTTI Class Hierarchy Descriptor'
PUBLIC	??_R2?$CEncrypt@M@@8				; CEncrypt<float>::`RTTI Base Class Array'
PUBLIC	??_R1A@?0A@EA@?$CEncrypt@M@@8			; CEncrypt<float>::`RTTI Base Class Descriptor at (0,-1,0,64)'
EXTRN	??1ccddaabb@@UAE@XZ:PROC			; ccddaabb::~ccddaabb
EXTRN	??_E?$CEncrypt@M@@UAEPAXI@Z:PROC		; CEncrypt<float>::`vector deleting destructor'
;	COMDAT ??_R1A@?0A@EA@?$CEncrypt@M@@8
; File d:\lost saga for developer\youtube\tutorial\source\src\lsclient\encryptvalue.h
rdata$r	SEGMENT
??_R1A@?0A@EA@?$CEncrypt@M@@8 DD FLAT:??_R0?AV?$CEncrypt@M@@@8 ; CEncrypt<float>::`RTTI Base Class Descriptor at (0,-1,0,64)'
	DD	00H
	DD	00H
	DD	0ffffffffH
	DD	00H
	DD	040H
	DD	FLAT:??_R3?$CEncrypt@M@@8
rdata$r	ENDS
;	COMDAT ??_R2?$CEncrypt@M@@8
rdata$r	SEGMENT
??_R2?$CEncrypt@M@@8 DD FLAT:??_R1A@?0A@EA@?$CEncrypt@M@@8 ; CEncrypt<float>::`RTTI Base Class Array'
rdata$r	ENDS
;	COMDAT ??_R3?$CEncrypt@M@@8
rdata$r	SEGMENT
??_R3?$CEncrypt@M@@8 DD 00H				; CEncrypt<float>::`RTTI Class Hierarchy Descriptor'
	DD	00H
	DD	01H
	DD	FLAT:??_R2?$CEncrypt@M@@8
rdata$r	ENDS
;	COMDAT ??_R0?AV?$CEncrypt@M@@@8
_DATA	SEGMENT
??_R0?AV?$CEncrypt@M@@@8 DD FLAT:??_7type_info@@6B@	; CEncrypt<float> `RTTI Type Descriptor'
	DD	00H
	DB	'.?AV?$CEncrypt@M@@', 00H
_DATA	ENDS
;	COMDAT ??_R4?$CEncrypt@M@@6B@
rdata$r	SEGMENT
??_R4?$CEncrypt@M@@6B@ DD 00H				; CEncrypt<float>::`RTTI Complete Object Locator'
	DD	00H
	DD	00H
	DD	FLAT:??_R0?AV?$CEncrypt@M@@@8
	DD	FLAT:??_R3?$CEncrypt@M@@8
rdata$r	ENDS
;	COMDAT ??_7?$CEncrypt@M@@6B@
CONST	SEGMENT
??_7?$CEncrypt@M@@6B@ DD FLAT:??_R4?$CEncrypt@M@@6B@	; CEncrypt<float>::`vftable'
	DD	FLAT:??_E?$CEncrypt@M@@UAEPAXI@Z
; Function compile flags: /Ogsp
CONST	ENDS
;	COMDAT ??1?$CEncrypt@M@@UAE@XZ
_TEXT	SEGMENT
??1?$CEncrypt@M@@UAE@XZ PROC				; CEncrypt<float>::~CEncrypt<float>, COMDAT
; _this$ = ecx

; 127  : 	{

  00000	c7 01 00 00 00
	00		 mov	 DWORD PTR [ecx], OFFSET ??_7?$CEncrypt@M@@6B@

; 128  : 	}

  00006	83 c1 0c	 add	 ecx, 12			; 0000000cH
  00009	e9 00 00 00 00	 jmp	 ??1ccddaabb@@UAE@XZ	; ccddaabb::~ccddaabb
??1?$CEncrypt@M@@UAE@XZ ENDP				; CEncrypt<float>::~CEncrypt<float>
; Function compile flags: /Ogsp
_TEXT	ENDS
;	COMDAT ??_G?$CEncrypt@M@@UAEPAXI@Z
_TEXT	SEGMENT
___flags$ = 8						; size = 4
??_G?$CEncrypt@M@@UAEPAXI@Z PROC			; CEncrypt<float>::`scalar deleting destructor', COMDAT
; _this$ = ecx
  00000	55		 push	 ebp
  00001	8b ec		 mov	 ebp, esp
  00003	56		 push	 esi
  00004	8b f1		 mov	 esi, ecx
  00006	8d 4e 0c	 lea	 ecx, DWORD PTR [esi+12]
  00009	c7 06 00 00 00
	00		 mov	 DWORD PTR [esi], OFFSET ??_7?$CEncrypt@M@@6B@
  0000f	e8 00 00 00 00	 call	 ??1ccddaabb@@UAE@XZ	; ccddaabb::~ccddaabb
  00014	f6 45 08 01	 test	 BYTE PTR ___flags$[ebp], 1
  00018	74 07		 je	 SHORT $LN1@scalar@2
  0001a	56		 push	 esi
  0001b	e8 00 00 00 00	 call	 ??3@YAXPAX@Z		; operator delete
  00020	59		 pop	 ecx
$LN1@scalar@2:
  00021	8b c6		 mov	 eax, esi
  00023	5e		 pop	 esi
  00024	5d		 pop	 ebp
  00025	c2 04 00	 ret	 4
??_G?$CEncrypt@M@@UAEPAXI@Z ENDP			; CEncrypt<float>::`scalar deleting destructor'
_TEXT	ENDS
PUBLIC	??1?$_Vector_val@VioHashString@@V?$allocator@VioHashString@@@std@@@std@@QAE@XZ ; std::_Vector_val<ioHashString,std::allocator<ioHashString> >::~_Vector_val<ioHashString,std::allocator<ioHashString> >
; Function compile flags: /Ogsp
; File c:\program files (x86)\microsoft visual studio 10.0\vc\include\vector
;	COMDAT ??1?$_Vector_val@VioHashString@@V?$allocator@VioHashString@@@std@@@std@@QAE@XZ
_TEXT	SEGMENT
??1?$_Vector_val@VioHashString@@V?$allocator@VioHashString@@@std@@@std@@QAE@XZ PROC ; std::_Vector_val<ioHashString,std::allocator<ioHashString> >::~_Vector_val<ioHashString,std::allocator<ioHashString> >, COMDAT
; _this$ = ecx

; 434  : 		}

  00000	c3		 ret	 0
??1?$_Vector_val@VioHashString@@V?$allocator@VioHashString@@@std@@@std@@QAE@XZ ENDP ; std::_Vector_val<ioHashString,std::allocator<ioHashString> >::~_Vector_val<ioHashString,std::allocator<ioHashString> >
_TEXT	ENDS
PUBLIC	??0?$allocator@VioHashString@@@std@@QAE@XZ	; std::allocator<ioHashString>::allocator<ioHashString>
; Function compile flags: /Ogsp
; File c:\program files (x86)\microsoft visual studio 10.0\vc\include\xmemory
;	COMDAT ??0?$allocator@VioHashString@@@std@@QAE@XZ
_TEXT	SEGMENT
??0?$allocator@VioHashString@@@std@@QAE@XZ PROC		; std::allocator<ioHashString>::allocator<ioHashString>, COMDAT
; _this$ = ecx

; 161  : 	_ALLOCATOR() _THROW0()

  00000	8b c1		 mov	 eax, ecx

; 162  : 		{	// construct default allocator (do nothing)
; 163  : 		}

  00002	c3		 ret	 0
??0?$allocator@VioHashString@@@std@@QAE@XZ ENDP		; std::allocator<ioHashString>::allocator<ioHashString>
_TEXT	ENDS
PUBLIC	??0?$allocator@VioHashString@@@std@@QAE@ABV01@@Z ; std::allocator<ioHashString>::allocator<ioHashString>
; Function compile flags: /Ogsp
;	COMDAT ??0?$allocator@VioHashString@@@std@@QAE@ABV01@@Z
_TEXT	SEGMENT
___formal$ = 8						; size = 4
??0?$allocator@VioHashString@@@std@@QAE@ABV01@@Z PROC	; std::allocator<ioHashString>::allocator<ioHashString>, COMDAT
; _this$ = ecx

; 165  : 	_ALLOCATOR(const _ALLOCATOR<_Ty>&) _THROW0()

  00000	8b c1		 mov	 eax, ecx

; 166  : 		{	// construct by copying (do nothing)
; 167  : 		}

  00002	c2 04 00	 ret	 4
??0?$allocator@VioHashString@@@std@@QAE@ABV01@@Z ENDP	; std::allocator<ioHashString>::allocator<ioHashString>
_TEXT	ENDS
PUBLIC	?EncryptValueToPool@?$CEncrypt@M@@AAEXPBD@Z	; CEncrypt<float>::EncryptValueToPool
EXTRN	?EncryptByte@ccddaabb@@QAEXPBDPADH@Z:PROC	; ccddaabb::EncryptByte
; Function compile flags: /Ogsp
; File d:\lost saga for developer\youtube\tutorial\source\src\lsclient\encryptvalue.h
;	COMDAT ?EncryptValueToPool@?$CEncrypt@M@@AAEXPBD@Z
_TEXT	SEGMENT
_value$ = 8						; size = 4
?EncryptValueToPool@?$CEncrypt@M@@AAEXPBD@Z PROC	; CEncrypt<float>::EncryptValueToPool, COMDAT
; _this$ = ecx

; 67   : 	{

  00000	55		 push	 ebp
  00001	8b ec		 mov	 ebp, esp

; 68   : 		m_RC5.EncryptByte( value, m_MemPool, max(m_ValueSize, DEFAULT_ENCRYPT) );

  00003	0f b7 41 06	 movzx	 eax, WORD PTR [ecx+6]
  00007	83 f8 04	 cmp	 eax, 4
  0000a	77 03		 ja	 SHORT $LN4@EncryptVal
  0000c	6a 04		 push	 4
  0000e	58		 pop	 eax
$LN4@EncryptVal:
  0000f	50		 push	 eax
  00010	8d 41 1c	 lea	 eax, DWORD PTR [ecx+28]
  00013	50		 push	 eax
  00014	ff 75 08	 push	 DWORD PTR _value$[ebp]
  00017	83 c1 0c	 add	 ecx, 12			; 0000000cH
  0001a	e8 00 00 00 00	 call	 ?EncryptByte@ccddaabb@@QAEXPBDPADH@Z ; ccddaabb::EncryptByte

; 69   : 		
; 70   : 	}

  0001f	5d		 pop	 ebp
  00020	c2 04 00	 ret	 4
?EncryptValueToPool@?$CEncrypt@M@@AAEXPBD@Z ENDP	; CEncrypt<float>::EncryptValueToPool
_TEXT	ENDS
PUBLIC	?Init@?$CEncrypt@M@@AAEXXZ			; CEncrypt<float>::Init
EXTRN	?Setup@ccddaabb@@QAEXPBDHH@Z:PROC		; ccddaabb::Setup
EXTRN	__imp__rand:PROC
EXTRN	__imp__timeGetTime@0:PROC
EXTRN	__imp__GetCurrentProcessId@0:PROC
; Function compile flags: /Ogsp
;	COMDAT ?Init@?$CEncrypt@M@@AAEXXZ
_TEXT	SEGMENT
_pid$ = -8						; size = 4
_tick$ = -4						; size = 4
?Init@?$CEncrypt@M@@AAEXXZ PROC				; CEncrypt<float>::Init, COMDAT
; _this$ = ecx

; 73   : 	{

  00000	55		 push	 ebp
  00001	8b ec		 mov	 ebp, esp
  00003	51		 push	 ecx
  00004	51		 push	 ecx
  00005	53		 push	 ebx
  00006	56		 push	 esi
  00007	57		 push	 edi
  00008	8b f1		 mov	 esi, ecx

; 74   : 		DWORD pid = GetCurrentProcessId();

  0000a	ff 15 00 00 00
	00		 call	 DWORD PTR __imp__GetCurrentProcessId@0
  00010	89 45 f8	 mov	 DWORD PTR _pid$[ebp], eax

; 75   : 		DWORD tick = timeGetTime();

  00013	ff 15 00 00 00
	00		 call	 DWORD PTR __imp__timeGetTime@0

; 76   : 		m_ValueSize    = sizeof(type);
; 77   : 		m_MemPoolPos   = (unsigned short)( rand()+pid+tick )%(MAX_MEM_POOL-m_ValueSize);

  00019	8b 3d 00 00 00
	00		 mov	 edi, DWORD PTR __imp__rand
  0001f	89 45 fc	 mov	 DWORD PTR _tick$[ebp], eax
  00022	6a 04		 push	 4
  00024	58		 pop	 eax
  00025	66 89 46 06	 mov	 WORD PTR [esi+6], ax
  00029	ff d7		 call	 edi
  0002b	03 45 f8	 add	 eax, DWORD PTR _pid$[ebp]
  0002e	0f b7 4e 06	 movzx	 ecx, WORD PTR [esi+6]
  00032	03 45 fc	 add	 eax, DWORD PTR _tick$[ebp]
  00035	6a 0c		 push	 12			; 0000000cH
  00037	0f b7 c0	 movzx	 eax, ax
  0003a	5b		 pop	 ebx
  0003b	99		 cdq
  0003c	2b d9		 sub	 ebx, ecx
  0003e	f7 fb		 idiv	 ebx
  00040	66 89 56 04	 mov	 WORD PTR [esi+4], dx

; 78   : 		m_EncryptSeed  = (char)( rand()+pid+tick )%256;

  00044	ff d7		 call	 edi
  00046	02 45 f8	 add	 al, BYTE PTR _pid$[ebp]
  00049	02 45 fc	 add	 al, BYTE PTR _tick$[ebp]
  0004c	0f be c0	 movsx	 eax, al
  0004f	25 ff 00 00 80	 and	 eax, -2147483393	; 800000ffH
  00054	79 07		 jns	 SHORT $LN8@Init
  00056	48		 dec	 eax
  00057	0d 00 ff ff ff	 or	 eax, -256		; ffffff00H
  0005c	40		 inc	 eax
$LN8@Init:
  0005d	88 46 08	 mov	 BYTE PTR [esi+8], al

; 79   : 
; 80   : 		for (int i = 0; i < MAX_MEM_POOL ; i++)

  00060	33 db		 xor	 ebx, ebx
$LL3@Init:

; 81   : 			m_MemPool[i] = (char)( rand()+pid+tick )%256; // 더미

  00062	ff d7		 call	 edi
  00064	02 45 f8	 add	 al, BYTE PTR _pid$[ebp]
  00067	02 45 fc	 add	 al, BYTE PTR _tick$[ebp]
  0006a	0f be c0	 movsx	 eax, al
  0006d	25 ff 00 00 80	 and	 eax, -2147483393	; 800000ffH
  00072	79 07		 jns	 SHORT $LN9@Init
  00074	48		 dec	 eax
  00075	0d 00 ff ff ff	 or	 eax, -256		; ffffff00H
  0007a	40		 inc	 eax
$LN9@Init:
  0007b	88 44 1e 1c	 mov	 BYTE PTR [esi+ebx+28], al
  0007f	43		 inc	 ebx
  00080	83 fb 0c	 cmp	 ebx, 12			; 0000000cH
  00083	7c dd		 jl	 SHORT $LL3@Init

; 82   : 
; 83   : 		//UJ 130913, 최적화: szKey 사용안하도록 간략화
; 84   : 		//char szKey[ccddaabb::KEY_SIZE];//="";
; 85   : 		//for (int i = 0; i < ccddaabb::KEY_SIZE  ; i++)
; 86   : 		//	szKey[i] = (char)( rand()+pid+tick )%256; // 더미
; 87   : 		m_RC5.Setup( NULL, pid, tick );

  00085	ff 75 fc	 push	 DWORD PTR _tick$[ebp]
  00088	8d 4e 0c	 lea	 ecx, DWORD PTR [esi+12]
  0008b	ff 75 f8	 push	 DWORD PTR _pid$[ebp]
  0008e	6a 00		 push	 0
  00090	e8 00 00 00 00	 call	 ?Setup@ccddaabb@@QAEXPBDHH@Z ; ccddaabb::Setup
  00095	5f		 pop	 edi
  00096	5e		 pop	 esi
  00097	5b		 pop	 ebx

; 88   : 
; 89   : #ifdef _NOTUSE
; 90   : 		m_value        = 0;
; 91   : 		EncryptValueToPool((char*)&m_value);
; 92   : 		Debug();
; 93   : #endif
; 94   : 	}

  00098	c9		 leave
  00099	c3		 ret	 0
?Init@?$CEncrypt@M@@AAEXXZ ENDP				; CEncrypt<float>::Init
_TEXT	ENDS
PUBLIC	?DecryptValueToPool@?$CEncrypt@M@@QAEXPAM@Z	; CEncrypt<float>::DecryptValueToPool
; Function compile flags: /Ogsp
;	COMDAT ?DecryptValueToPool@?$CEncrypt@M@@QAEXPAM@Z
_TEXT	SEGMENT
_value$ = 8						; size = 4
?DecryptValueToPool@?$CEncrypt@M@@QAEXPAM@Z PROC	; CEncrypt<float>::DecryptValueToPool, COMDAT
; _this$ = ecx

; 1648 : 	{

  00000	55		 push	 ebp
  00001	8b ec		 mov	 ebp, esp
  00003	56		 push	 esi

; 1649 : 		m_RC5.DecryptByte( m_MemPool, m_TempMem, 4 );

  00004	8d 71 28	 lea	 esi, DWORD PTR [ecx+40]
  00007	6a 04		 push	 4
  00009	8d 41 1c	 lea	 eax, DWORD PTR [ecx+28]
  0000c	56		 push	 esi
  0000d	50		 push	 eax
  0000e	83 c1 0c	 add	 ecx, 12			; 0000000cH
  00011	e8 00 00 00 00	 call	 ?DecryptByte@ccddaabb@@QBEXPBDPADH@Z ; ccddaabb::DecryptByte

; 1650 : 		*value = *((float*)m_TempMem);

  00016	d9 06		 fld	 DWORD PTR [esi]
  00018	8b 45 08	 mov	 eax, DWORD PTR _value$[ebp]
  0001b	d9 18		 fstp	 DWORD PTR [eax]
  0001d	5e		 pop	 esi

; 1651 : 	}

  0001e	5d		 pop	 ebp
  0001f	c2 04 00	 ret	 4
?DecryptValueToPool@?$CEncrypt@M@@QAEXPAM@Z ENDP	; CEncrypt<float>::DecryptValueToPool
_TEXT	ENDS
PUBLIC	?DecryptValueToPool@?$CEncrypt@W4TeamType@@@@QAEXPAW4TeamType@@@Z ; CEncrypt<enum TeamType>::DecryptValueToPool
; Function compile flags: /Ogsp
;	COMDAT ?DecryptValueToPool@?$CEncrypt@W4TeamType@@@@QAEXPAW4TeamType@@@Z
_TEXT	SEGMENT
_value$ = 8						; size = 4
?DecryptValueToPool@?$CEncrypt@W4TeamType@@@@QAEXPAW4TeamType@@@Z PROC ; CEncrypt<enum TeamType>::DecryptValueToPool, COMDAT
; _this$ = ecx

; 2959 : 	{

  00000	55		 push	 ebp
  00001	8b ec		 mov	 ebp, esp
  00003	56		 push	 esi

; 2960 : 		m_RC5.DecryptByte( m_MemPool, m_TempMem, sizeof(TeamType) );

  00004	8d 71 28	 lea	 esi, DWORD PTR [ecx+40]
  00007	6a 04		 push	 4
  00009	8d 41 1c	 lea	 eax, DWORD PTR [ecx+28]
  0000c	56		 push	 esi
  0000d	50		 push	 eax
  0000e	83 c1 0c	 add	 ecx, 12			; 0000000cH
  00011	e8 00 00 00 00	 call	 ?DecryptByte@ccddaabb@@QBEXPBDPADH@Z ; ccddaabb::DecryptByte

; 2961 : 		*value = *((TeamType*)m_TempMem);

  00016	8b 06		 mov	 eax, DWORD PTR [esi]
  00018	8b 4d 08	 mov	 ecx, DWORD PTR _value$[ebp]
  0001b	89 01		 mov	 DWORD PTR [ecx], eax
  0001d	5e		 pop	 esi

; 2962 : 	}

  0001e	5d		 pop	 ebp
  0001f	c2 04 00	 ret	 4
?DecryptValueToPool@?$CEncrypt@W4TeamType@@@@QAEXPAW4TeamType@@@Z ENDP ; CEncrypt<enum TeamType>::DecryptValueToPool
_TEXT	ENDS
PUBLIC	?capacity@?$vector@UBuffInfoStruct@@V?$allocator@UBuffInfoStruct@@@std@@@std@@QBEIXZ ; std::vector<BuffInfoStruct,std::allocator<BuffInfoStruct> >::capacity
; Function compile flags: /Ogsp
; File c:\program files (x86)\microsoft visual studio 10.0\vc\include\vector
;	COMDAT ?capacity@?$vector@UBuffInfoStruct@@V?$allocator@UBuffInfoStruct@@@std@@@std@@QBEIXZ
_TEXT	SEGMENT
?capacity@?$vector@UBuffInfoStruct@@V?$allocator@UBuffInfoStruct@@@std@@@std@@QBEIXZ PROC ; std::vector<BuffInfoStruct,std::allocator<BuffInfoStruct> >::capacity, COMDAT
; _this$ = ecx

; 777  : 		return (this->_Myend - this->_Myfirst);

  00000	8b 41 08	 mov	 eax, DWORD PTR [ecx+8]
  00003	2b 01		 sub	 eax, DWORD PTR [ecx]
  00005	6a 14		 push	 20			; 00000014H
  00007	99		 cdq
  00008	59		 pop	 ecx
  00009	f7 f9		 idiv	 ecx

; 778  : 		}

  0000b	c3		 ret	 0
?capacity@?$vector@UBuffInfoStruct@@V?$allocator@UBuffInfoStruct@@@std@@@std@@QBEIXZ ENDP ; std::vector<BuffInfoStruct,std::allocator<BuffInfoStruct> >::capacity
_TEXT	ENDS
PUBLIC	?size@?$vector@UBuffInfoStruct@@V?$allocator@UBuffInfoStruct@@@std@@@std@@QBEIXZ ; std::vector<BuffInfoStruct,std::allocator<BuffInfoStruct> >::size
; Function compile flags: /Ogsp
;	COMDAT ?size@?$vector@UBuffInfoStruct@@V?$allocator@UBuffInfoStruct@@@std@@@std@@QBEIXZ
_TEXT	SEGMENT
?size@?$vector@UBuffInfoStruct@@V?$allocator@UBuffInfoStruct@@@std@@@std@@QBEIXZ PROC ; std::vector<BuffInfoStruct,std::allocator<BuffInfoStruct> >::size, COMDAT
; _this$ = ecx

; 879  : 		return (this->_Mylast - this->_Myfirst);

  00000	8b 41 04	 mov	 eax, DWORD PTR [ecx+4]
  00003	2b 01		 sub	 eax, DWORD PTR [ecx]
  00005	6a 14		 push	 20			; 00000014H
  00007	99		 cdq
  00008	59		 pop	 ecx
  00009	f7 f9		 idiv	 ecx

; 880  : 		}

  0000b	c3		 ret	 0
?size@?$vector@UBuffInfoStruct@@V?$allocator@UBuffInfoStruct@@@std@@@std@@QBEIXZ ENDP ; std::vector<BuffInfoStruct,std::allocator<BuffInfoStruct> >::size
_TEXT	ENDS
PUBLIC	??1?$_Vector_val@UBuffInfoStruct@@V?$allocator@UBuffInfoStruct@@@std@@@std@@QAE@XZ ; std::_Vector_val<BuffInfoStruct,std::allocator<BuffInfoStruct> >::~_Vector_val<BuffInfoStruct,std::allocator<BuffInfoStruct> >
; Function compile flags: /Ogsp
;	COMDAT ??1?$_Vector_val@UBuffInfoStruct@@V?$allocator@UBuffInfoStruct@@@std@@@std@@QAE@XZ
_TEXT	SEGMENT
??1?$_Vector_val@UBuffInfoStruct@@V?$allocator@UBuffInfoStruct@@@std@@@std@@QAE@XZ PROC ; std::_Vector_val<BuffInfoStruct,std::allocator<BuffInfoStruct> >::~_Vector_val<BuffInfoStruct,std::allocator<BuffInfoStruct> >, COMDAT
; _this$ = ecx

; 434  : 		}

  00000	c3		 ret	 0
??1?$_Vector_val@UBuffInfoStruct@@V?$allocator@UBuffInfoStruct@@@std@@@std@@QAE@XZ ENDP ; std::_Vector_val<BuffInfoStruct,std::allocator<BuffInfoStruct> >::~_Vector_val<BuffInfoStruct,std::allocator<BuffInfoStruct> >
_TEXT	ENDS
PUBLIC	??0?$allocator@UBuffInfoStruct@@@std@@QAE@XZ	; std::allocator<BuffInfoStruct>::allocator<BuffInfoStruct>
; Function compile flags: /Ogsp
; File c:\program files (x86)\microsoft visual studio 10.0\vc\include\xmemory
;	COMDAT ??0?$allocator@UBuffInfoStruct@@@std@@QAE@XZ
_TEXT	SEGMENT
??0?$allocator@UBuffInfoStruct@@@std@@QAE@XZ PROC	; std::allocator<BuffInfoStruct>::allocator<BuffInfoStruct>, COMDAT
; _this$ = ecx

; 161  : 	_ALLOCATOR() _THROW0()

  00000	8b c1		 mov	 eax, ecx

; 162  : 		{	// construct default allocator (do nothing)
; 163  : 		}

  00002	c3		 ret	 0
??0?$allocator@UBuffInfoStruct@@@std@@QAE@XZ ENDP	; std::allocator<BuffInfoStruct>::allocator<BuffInfoStruct>
_TEXT	ENDS
PUBLIC	?deallocate@?$allocator@UBuffInfoStruct@@@std@@QAEXPAUBuffInfoStruct@@I@Z ; std::allocator<BuffInfoStruct>::deallocate
; Function compile flags: /Ogsp
;	COMDAT ?deallocate@?$allocator@UBuffInfoStruct@@@std@@QAEXPAUBuffInfoStruct@@I@Z
_TEXT	SEGMENT
__Ptr$ = 8						; size = 4
___formal$ = 12						; size = 4
?deallocate@?$allocator@UBuffInfoStruct@@@std@@QAEXPAUBuffInfoStruct@@I@Z PROC ; std::allocator<BuffInfoStruct>::deallocate, COMDAT
; _this$ = ecx

; 181  : 		{	// deallocate object at _Ptr, ignore size

  00000	55		 push	 ebp
  00001	8b ec		 mov	 ebp, esp

; 182  : 		::operator delete(_Ptr);

  00003	ff 75 08	 push	 DWORD PTR __Ptr$[ebp]
  00006	e8 00 00 00 00	 call	 ??3@YAXPAX@Z		; operator delete
  0000b	59		 pop	 ecx

; 183  : 		}

  0000c	5d		 pop	 ebp
  0000d	c2 08 00	 ret	 8
?deallocate@?$allocator@UBuffInfoStruct@@@std@@QAEXPAUBuffInfoStruct@@I@Z ENDP ; std::allocator<BuffInfoStruct>::deallocate
_TEXT	ENDS
PUBLIC	??_C@_0BD@OLBABOEK@vector?$DMT?$DO?5too?5long?$AA@ ; `string'
PUBLIC	?_Xlen@?$vector@VioHashString@@V?$allocator@VioHashString@@@std@@@std@@IBEXXZ ; std::vector<ioHashString,std::allocator<ioHashString> >::_Xlen
EXTRN	__imp_?_Xlength_error@std@@YAXPBD@Z:PROC
;	COMDAT ??_C@_0BD@OLBABOEK@vector?$DMT?$DO?5too?5long?$AA@
; File c:\program files (x86)\microsoft visual studio 10.0\vc\include\vector
CONST	SEGMENT
??_C@_0BD@OLBABOEK@vector?$DMT?$DO?5too?5long?$AA@ DB 'vector<T> too long'
	DB	00H						; `string'
; Function compile flags: /Ogsp
CONST	ENDS
;	COMDAT ?_Xlen@?$vector@VioHashString@@V?$allocator@VioHashString@@@std@@@std@@IBEXXZ
_TEXT	SEGMENT
?_Xlen@?$vector@VioHashString@@V?$allocator@VioHashString@@@std@@@std@@IBEXXZ PROC ; std::vector<ioHashString,std::allocator<ioHashString> >::_Xlen, COMDAT
; _this$ = ecx

; 1427 : 		_Xlength_error("vector<T> too long");

  00000	68 00 00 00 00	 push	 OFFSET ??_C@_0BD@OLBABOEK@vector?$DMT?$DO?5too?5long?$AA@
  00005	ff 15 00 00 00
	00		 call	 DWORD PTR __imp_?_Xlength_error@std@@YAXPBD@Z
$LN4@Xlen:
$LN3@Xlen:
  0000b	cc		 int	 3
?_Xlen@?$vector@VioHashString@@V?$allocator@VioHashString@@@std@@@std@@IBEXXZ ENDP ; std::vector<ioHashString,std::allocator<ioHashString> >::_Xlen
_TEXT	ENDS
PUBLIC	?deallocate@?$allocator@VioHashString@@@std@@QAEXPAVioHashString@@I@Z ; std::allocator<ioHashString>::deallocate
; Function compile flags: /Ogsp
; File c:\program files (x86)\microsoft visual studio 10.0\vc\include\xmemory
;	COMDAT ?deallocate@?$allocator@VioHashString@@@std@@QAEXPAVioHashString@@I@Z
_TEXT	SEGMENT
__Ptr$ = 8						; size = 4
___formal$ = 12						; size = 4
?deallocate@?$allocator@VioHashString@@@std@@QAEXPAVioHashString@@I@Z PROC ; std::allocator<ioHashString>::deallocate, COMDAT
; _this$ = ecx

; 181  : 		{	// deallocate object at _Ptr, ignore size

  00000	55		 push	 ebp
  00001	8b ec		 mov	 ebp, esp

; 182  : 		::operator delete(_Ptr);

  00003	ff 75 08	 push	 DWORD PTR __Ptr$[ebp]
  00006	e8 00 00 00 00	 call	 ??3@YAXPAX@Z		; operator delete
  0000b	59		 pop	 ecx

; 183  : 		}

  0000c	5d		 pop	 ebp
  0000d	c2 08 00	 ret	 8
?deallocate@?$allocator@VioHashString@@@std@@QAEXPAVioHashString@@I@Z ENDP ; std::allocator<ioHashString>::deallocate
_TEXT	ENDS
PUBLIC	?_Xlen@?$vector@UBuffInfoStruct@@V?$allocator@UBuffInfoStruct@@@std@@@std@@IBEXXZ ; std::vector<BuffInfoStruct,std::allocator<BuffInfoStruct> >::_Xlen
; Function compile flags: /Ogsp
; File c:\program files (x86)\microsoft visual studio 10.0\vc\include\vector
;	COMDAT ?_Xlen@?$vector@UBuffInfoStruct@@V?$allocator@UBuffInfoStruct@@@std@@@std@@IBEXXZ
_TEXT	SEGMENT
?_Xlen@?$vector@UBuffInfoStruct@@V?$allocator@UBuffInfoStruct@@@std@@@std@@IBEXXZ PROC ; std::vector<BuffInfoStruct,std::allocator<BuffInfoStruct> >::_Xlen, COMDAT
; _this$ = ecx

; 1427 : 		_Xlength_error("vector<T> too long");

  00000	68 00 00 00 00	 push	 OFFSET ??_C@_0BD@OLBABOEK@vector?$DMT?$DO?5too?5long?$AA@
  00005	ff 15 00 00 00
	00		 call	 DWORD PTR __imp_?_Xlength_error@std@@YAXPBD@Z
$LN4@Xlen@2:
$LN3@Xlen@2:
  0000b	cc		 int	 3
?_Xlen@?$vector@UBuffInfoStruct@@V?$allocator@UBuffInfoStruct@@@std@@@std@@IBEXXZ ENDP ; std::vector<BuffInfoStruct,std::allocator<BuffInfoStruct> >::_Xlen
_TEXT	ENDS
PUBLIC	??0?$allocator@UBuffInfoStruct@@@std@@QAE@ABV01@@Z ; std::allocator<BuffInfoStruct>::allocator<BuffInfoStruct>
; Function compile flags: /Ogsp
; File c:\program files (x86)\microsoft visual studio 10.0\vc\include\xmemory
;	COMDAT ??0?$allocator@UBuffInfoStruct@@@std@@QAE@ABV01@@Z
_TEXT	SEGMENT
___formal$ = 8						; size = 4
??0?$allocator@UBuffInfoStruct@@@std@@QAE@ABV01@@Z PROC	; std::allocator<BuffInfoStruct>::allocator<BuffInfoStruct>, COMDAT
; _this$ = ecx

; 165  : 	_ALLOCATOR(const _ALLOCATOR<_Ty>&) _THROW0()

  00000	8b c1		 mov	 eax, ecx

; 166  : 		{	// construct by copying (do nothing)
; 167  : 		}

  00002	c2 04 00	 ret	 4
??0?$allocator@UBuffInfoStruct@@@std@@QAE@ABV01@@Z ENDP	; std::allocator<BuffInfoStruct>::allocator<BuffInfoStruct>
_TEXT	ENDS
PUBLIC	??0?$_Vector_const_iterator@V?$_Vector_val@VioHashString@@V?$allocator@VioHashString@@@std@@@std@@@std@@QAE@PAVioHashString@@PBU_Container_base0@1@@Z ; std::_Vector_const_iterator<std::_Vector_val<ioHashString,std::allocator<ioHashString> > >::_Vector_const_iterator<std::_Vector_val<ioHashString,std::allocator<ioHashString> > >
; Function compile flags: /Ogsp
; File c:\program files (x86)\microsoft visual studio 10.0\vc\include\vector
;	COMDAT ??0?$_Vector_const_iterator@V?$_Vector_val@VioHashString@@V?$allocator@VioHashString@@@std@@@std@@@std@@QAE@PAVioHashString@@PBU_Container_base0@1@@Z
_TEXT	SEGMENT
__Parg$ = 8						; size = 4
__Pvector$ = 12						; size = 4
??0?$_Vector_const_iterator@V?$_Vector_val@VioHashString@@V?$allocator@VioHashString@@@std@@@std@@@std@@QAE@PAVioHashString@@PBU_Container_base0@1@@Z PROC ; std::_Vector_const_iterator<std::_Vector_val<ioHashString,std::allocator<ioHashString> > >::_Vector_const_iterator<std::_Vector_val<ioHashString,std::allocator<ioHashString> > >, COMDAT
; _this$ = ecx

; 45   : 		{	// construct with pointer _Parg

  00000	55		 push	 ebp
  00001	8b ec		 mov	 ebp, esp
  00003	8b c1		 mov	 eax, ecx
  00005	8b 4d 08	 mov	 ecx, DWORD PTR __Parg$[ebp]
  00008	89 08		 mov	 DWORD PTR [eax], ecx

; 46   : 		this->_Adopt(_Pvector);
; 47   : 		}

  0000a	5d		 pop	 ebp
  0000b	c2 08 00	 ret	 8
??0?$_Vector_const_iterator@V?$_Vector_val@VioHashString@@V?$allocator@VioHashString@@@std@@@std@@@std@@QAE@PAVioHashString@@PBU_Container_base0@1@@Z ENDP ; std::_Vector_const_iterator<std::_Vector_val<ioHashString,std::allocator<ioHashString> > >::_Vector_const_iterator<std::_Vector_val<ioHashString,std::allocator<ioHashString> > >
_TEXT	ENDS
PUBLIC	??0?$_Vector_iterator@V?$_Vector_val@VioHashString@@V?$allocator@VioHashString@@@std@@@std@@@std@@QAE@PAVioHashString@@PBU_Container_base0@1@@Z ; std::_Vector_iterator<std::_Vector_val<ioHashString,std::allocator<ioHashString> > >::_Vector_iterator<std::_Vector_val<ioHashString,std::allocator<ioHashString> > >
; Function compile flags: /Ogsp
;	COMDAT ??0?$_Vector_iterator@V?$_Vector_val@VioHashString@@V?$allocator@VioHashString@@@std@@@std@@@std@@QAE@PAVioHashString@@PBU_Container_base0@1@@Z
_TEXT	SEGMENT
__Parg$ = 8						; size = 4
__Pvector$ = 12						; size = 4
??0?$_Vector_iterator@V?$_Vector_val@VioHashString@@V?$allocator@VioHashString@@@std@@@std@@@std@@QAE@PAVioHashString@@PBU_Container_base0@1@@Z PROC ; std::_Vector_iterator<std::_Vector_val<ioHashString,std::allocator<ioHashString> > >::_Vector_iterator<std::_Vector_val<ioHashString,std::allocator<ioHashString> > >, COMDAT
; _this$ = ecx

; 304  : 		{	// construct with pointer _Parg

  00000	55		 push	 ebp
  00001	8b ec		 mov	 ebp, esp
  00003	8b c1		 mov	 eax, ecx
  00005	8b 4d 08	 mov	 ecx, DWORD PTR __Parg$[ebp]
  00008	89 08		 mov	 DWORD PTR [eax], ecx

; 305  : 		}

  0000a	5d		 pop	 ebp
  0000b	c2 08 00	 ret	 8
??0?$_Vector_iterator@V?$_Vector_val@VioHashString@@V?$allocator@VioHashString@@@std@@@std@@@std@@QAE@PAVioHashString@@PBU_Container_base0@1@@Z ENDP ; std::_Vector_iterator<std::_Vector_val<ioHashString,std::allocator<ioHashString> > >::_Vector_iterator<std::_Vector_val<ioHashString,std::allocator<ioHashString> > >
_TEXT	ENDS
PUBLIC	?max_size@?$allocator@VioHashString@@@std@@QBEIXZ ; std::allocator<ioHashString>::max_size
; Function compile flags: /Ogsp
; File c:\program files (x86)\microsoft visual studio 10.0\vc\include\xmemory
;	COMDAT ?max_size@?$allocator@VioHashString@@@std@@QBEIXZ
_TEXT	SEGMENT
?max_size@?$allocator@VioHashString@@@std@@QBEIXZ PROC	; std::allocator<ioHashString>::max_size, COMDAT
; _this$ = ecx

; 218  : 		_SIZT _Count = (_SIZT)(-1) / sizeof (_Ty);
; 219  : 		return (0 < _Count ? _Count : 1);

  00000	b8 ff ff ff 0f	 mov	 eax, 268435455		; 0fffffffH

; 220  : 		}

  00005	c3		 ret	 0
?max_size@?$allocator@VioHashString@@@std@@QBEIXZ ENDP	; std::allocator<ioHashString>::max_size
_TEXT	ENDS
PUBLIC	?max_size@?$allocator@UBuffInfoStruct@@@std@@QBEIXZ ; std::allocator<BuffInfoStruct>::max_size
; Function compile flags: /Ogsp
;	COMDAT ?max_size@?$allocator@UBuffInfoStruct@@@std@@QBEIXZ
_TEXT	SEGMENT
?max_size@?$allocator@UBuffInfoStruct@@@std@@QBEIXZ PROC ; std::allocator<BuffInfoStruct>::max_size, COMDAT
; _this$ = ecx

; 218  : 		_SIZT _Count = (_SIZT)(-1) / sizeof (_Ty);
; 219  : 		return (0 < _Count ? _Count : 1);

  00000	b8 cc cc cc 0c	 mov	 eax, 214748364		; 0cccccccH

; 220  : 		}

  00005	c3		 ret	 0
?max_size@?$allocator@UBuffInfoStruct@@@std@@QBEIXZ ENDP ; std::allocator<BuffInfoStruct>::max_size
_TEXT	ENDS
PUBLIC	?_Compat@?$_Vector_const_iterator@V?$_Vector_val@VioHashString@@V?$allocator@VioHashString@@@std@@@std@@@std@@QBEXABV12@@Z ; std::_Vector_const_iterator<std::_Vector_val<ioHashString,std::allocator<ioHashString> > >::_Compat
; Function compile flags: /Ogsp
; File c:\program files (x86)\microsoft visual studio 10.0\vc\include\vector
;	COMDAT ?_Compat@?$_Vector_const_iterator@V?$_Vector_val@VioHashString@@V?$allocator@VioHashString@@@std@@@std@@@std@@QBEXABV12@@Z
_TEXT	SEGMENT
___formal$ = 8						; size = 4
?_Compat@?$_Vector_const_iterator@V?$_Vector_val@VioHashString@@V?$allocator@VioHashString@@@std@@@std@@@std@@QBEXABV12@@Z PROC ; std::_Vector_const_iterator<std::_Vector_val<ioHashString,std::allocator<ioHashString> > >::_Compat, COMDAT
; _this$ = ecx

; 253  : 		}

  00000	c2 04 00	 ret	 4
?_Compat@?$_Vector_const_iterator@V?$_Vector_val@VioHashString@@V?$allocator@VioHashString@@@std@@@std@@@std@@QBEXABV12@@Z ENDP ; std::_Vector_const_iterator<std::_Vector_val<ioHashString,std::allocator<ioHashString> > >::_Compat
_TEXT	ENDS
PUBLIC	__TI2?AVbad_alloc@std@@
PUBLIC	??$_Allocate@VioHashString@@@std@@YAPAVioHashString@@IPAV1@@Z ; std::_Allocate<ioHashString>
PUBLIC	__CTA2?AVbad_alloc@std@@
PUBLIC	__CT??_R0?AVbad_alloc@std@@@8??0bad_alloc@std@@QAE@ABV01@@Z12
PUBLIC	??0bad_alloc@std@@QAE@ABV01@@Z			; std::bad_alloc::bad_alloc
PUBLIC	__CT??_R0?AVexception@std@@@8??0exception@std@@QAE@ABV01@@Z12
EXTRN	??2@YAPAXI@Z:PROC				; operator new
EXTRN	__CxxThrowException@8:PROC
EXTRN	??0exception@std@@QAE@ABV01@@Z:PROC		; std::exception::exception
;	COMDAT __CT??_R0?AVexception@std@@@8??0exception@std@@QAE@ABV01@@Z12
; File c:\program files (x86)\microsoft visual studio 10.0\vc\include\exception
xdata$x	SEGMENT
__CT??_R0?AVexception@std@@@8??0exception@std@@QAE@ABV01@@Z12 DD 00H
	DD	FLAT:??_R0?AVexception@std@@@8
	DD	00H
	DD	0ffffffffH
	ORG $+4
	DD	0cH
	DD	FLAT:??0exception@std@@QAE@ABV01@@Z
xdata$x	ENDS
;	COMDAT __CT??_R0?AVbad_alloc@std@@@8??0bad_alloc@std@@QAE@ABV01@@Z12
xdata$x	SEGMENT
__CT??_R0?AVbad_alloc@std@@@8??0bad_alloc@std@@QAE@ABV01@@Z12 DD 00H
	DD	FLAT:??_R0?AVbad_alloc@std@@@8
	DD	00H
	DD	0ffffffffH
	ORG $+4
	DD	0cH
	DD	FLAT:??0bad_alloc@std@@QAE@ABV01@@Z
xdata$x	ENDS
;	COMDAT __CTA2?AVbad_alloc@std@@
xdata$x	SEGMENT
__CTA2?AVbad_alloc@std@@ DD 02H
	DD	FLAT:__CT??_R0?AVbad_alloc@std@@@8??0bad_alloc@std@@QAE@ABV01@@Z12
	DD	FLAT:__CT??_R0?AVexception@std@@@8??0exception@std@@QAE@ABV01@@Z12
xdata$x	ENDS
;	COMDAT __TI2?AVbad_alloc@std@@
xdata$x	SEGMENT
__TI2?AVbad_alloc@std@@ DD 00H
	DD	FLAT:??1bad_alloc@std@@UAE@XZ
	DD	00H
	DD	FLAT:__CTA2?AVbad_alloc@std@@
; Function compile flags: /Ogsp
; File c:\program files (x86)\microsoft visual studio 10.0\vc\include\xmemory
xdata$x	ENDS
;	COMDAT ??$_Allocate@VioHashString@@@std@@YAPAVioHashString@@IPAV1@@Z
_TEXT	SEGMENT
$T537466 = -12						; size = 12
$T537471 = 8						; size = 4
__Count$ = 8						; size = 4
___formal$ = 12						; size = 4
??$_Allocate@VioHashString@@@std@@YAPAVioHashString@@IPAV1@@Z PROC ; std::_Allocate<ioHashString>, COMDAT

; 30   : 	{	// allocate storage for _Count elements of type _Ty

  00000	55		 push	 ebp
  00001	8b ec		 mov	 ebp, esp

; 31   : 	void *_Ptr = 0;
; 32   : 
; 33   : 	if (_Count <= 0)

  00003	8b 4d 08	 mov	 ecx, DWORD PTR __Count$[ebp]
  00006	83 ec 0c	 sub	 esp, 12			; 0000000cH
  00009	33 c0		 xor	 eax, eax
  0000b	85 c9		 test	 ecx, ecx

; 34   : 		_Count = 0;
; 35   : 	else if (((_SIZT)(-1) / sizeof (_Ty) < _Count)

  0000d	74 3c		 je	 SHORT $LN5@Allocate

; 36   : 		|| (_Ptr = ::operator new(_Count * sizeof (_Ty))) == 0)

  0000f	81 f9 ff ff ff
	0f		 cmp	 ecx, 268435455		; 0fffffffH
  00015	77 0e		 ja	 SHORT $LN1@Allocate
  00017	c1 e1 04	 shl	 ecx, 4
  0001a	51		 push	 ecx
  0001b	e8 00 00 00 00	 call	 ??2@YAPAXI@Z		; operator new
  00020	59		 pop	 ecx
  00021	85 c0		 test	 eax, eax

; 38   : 
; 39   : 	return ((_Ty _FARQ *)_Ptr);

  00023	75 26		 jne	 SHORT $LN5@Allocate
$LN1@Allocate:

; 37   : 		_THROW_NCEE(bad_alloc, 0);

  00025	83 65 08 00	 and	 DWORD PTR $T537471[ebp], 0
  00029	8d 45 08	 lea	 eax, DWORD PTR $T537471[ebp]
  0002c	50		 push	 eax
  0002d	8d 4d f4	 lea	 ecx, DWORD PTR $T537466[ebp]
  00030	ff 15 00 00 00
	00		 call	 DWORD PTR __imp_??0exception@std@@QAE@ABQBD@Z
  00036	68 00 00 00 00	 push	 OFFSET __TI2?AVbad_alloc@std@@
  0003b	8d 45 f4	 lea	 eax, DWORD PTR $T537466[ebp]
  0003e	50		 push	 eax
  0003f	c7 45 f4 00 00
	00 00		 mov	 DWORD PTR $T537466[ebp], OFFSET ??_7bad_alloc@std@@6B@
  00046	e8 00 00 00 00	 call	 __CxxThrowException@8
$LN10@Allocate:
$LN5@Allocate:

; 40   : 	}

  0004b	c9		 leave
  0004c	c3		 ret	 0
$LN9@Allocate:
??$_Allocate@VioHashString@@@std@@YAPAVioHashString@@IPAV1@@Z ENDP ; std::_Allocate<ioHashString>
_TEXT	ENDS
PUBLIC	??$_Allocate@UBuffInfoStruct@@@std@@YAPAUBuffInfoStruct@@IPAU1@@Z ; std::_Allocate<BuffInfoStruct>
; Function compile flags: /Ogsp
;	COMDAT ??$_Allocate@UBuffInfoStruct@@@std@@YAPAUBuffInfoStruct@@IPAU1@@Z
_TEXT	SEGMENT
$T537476 = -12						; size = 12
$T537480 = 8						; size = 4
__Count$ = 8						; size = 4
___formal$ = 12						; size = 4
??$_Allocate@UBuffInfoStruct@@@std@@YAPAUBuffInfoStruct@@IPAU1@@Z PROC ; std::_Allocate<BuffInfoStruct>, COMDAT

; 30   : 	{	// allocate storage for _Count elements of type _Ty

  00000	55		 push	 ebp
  00001	8b ec		 mov	 ebp, esp

; 31   : 	void *_Ptr = 0;
; 32   : 
; 33   : 	if (_Count <= 0)

  00003	8b 4d 08	 mov	 ecx, DWORD PTR __Count$[ebp]
  00006	83 ec 0c	 sub	 esp, 12			; 0000000cH
  00009	33 c0		 xor	 eax, eax
  0000b	85 c9		 test	 ecx, ecx

; 34   : 		_Count = 0;
; 35   : 	else if (((_SIZT)(-1) / sizeof (_Ty) < _Count)

  0000d	74 3c		 je	 SHORT $LN5@Allocate@2

; 36   : 		|| (_Ptr = ::operator new(_Count * sizeof (_Ty))) == 0)

  0000f	81 f9 cc cc cc
	0c		 cmp	 ecx, 214748364		; 0cccccccH
  00015	77 0e		 ja	 SHORT $LN1@Allocate@2
  00017	6b c9 14	 imul	 ecx, 20			; 00000014H
  0001a	51		 push	 ecx
  0001b	e8 00 00 00 00	 call	 ??2@YAPAXI@Z		; operator new
  00020	59		 pop	 ecx
  00021	85 c0		 test	 eax, eax

; 38   : 
; 39   : 	return ((_Ty _FARQ *)_Ptr);

  00023	75 26		 jne	 SHORT $LN5@Allocate@2
$LN1@Allocate@2:

; 37   : 		_THROW_NCEE(bad_alloc, 0);

  00025	83 65 08 00	 and	 DWORD PTR $T537480[ebp], 0
  00029	8d 45 08	 lea	 eax, DWORD PTR $T537480[ebp]
  0002c	50		 push	 eax
  0002d	8d 4d f4	 lea	 ecx, DWORD PTR $T537476[ebp]
  00030	ff 15 00 00 00
	00		 call	 DWORD PTR __imp_??0exception@std@@QAE@ABQBD@Z
  00036	68 00 00 00 00	 push	 OFFSET __TI2?AVbad_alloc@std@@
  0003b	8d 45 f4	 lea	 eax, DWORD PTR $T537476[ebp]
  0003e	50		 push	 eax
  0003f	c7 45 f4 00 00
	00 00		 mov	 DWORD PTR $T537476[ebp], OFFSET ??_7bad_alloc@std@@6B@
  00046	e8 00 00 00 00	 call	 __CxxThrowException@8
$LN10@Allocate@2:
$LN5@Allocate@2:

; 40   : 	}

  0004b	c9		 leave
  0004c	c3		 ret	 0
$LN9@Allocate@2:
??$_Allocate@UBuffInfoStruct@@@std@@YAPAUBuffInfoStruct@@IPAU1@@Z ENDP ; std::_Allocate<BuffInfoStruct>
_TEXT	ENDS
EXTRN	__imp_??0exception@std@@QAE@ABV01@@Z:PROC
; Function compile flags: /Ogsp
;	COMDAT ??0bad_alloc@std@@QAE@ABV01@@Z
_TEXT	SEGMENT
___that$ = 8						; size = 4
??0bad_alloc@std@@QAE@ABV01@@Z PROC			; std::bad_alloc::bad_alloc, COMDAT
; _this$ = ecx
  00000	55		 push	 ebp
  00001	8b ec		 mov	 ebp, esp
  00003	56		 push	 esi
  00004	ff 75 08	 push	 DWORD PTR ___that$[ebp]
  00007	8b f1		 mov	 esi, ecx
  00009	ff 15 00 00 00
	00		 call	 DWORD PTR __imp_??0exception@std@@QAE@ABV01@@Z
  0000f	c7 06 00 00 00
	00		 mov	 DWORD PTR [esi], OFFSET ??_7bad_alloc@std@@6B@
  00015	8b c6		 mov	 eax, esi
  00017	5e		 pop	 esi
  00018	5d		 pop	 ebp
  00019	c2 04 00	 ret	 4
??0bad_alloc@std@@QAE@ABV01@@Z ENDP			; std::bad_alloc::bad_alloc
_TEXT	ENDS
PUBLIC	??$_Ptr_cat@UBuffInfoStruct@@U1@@std@@YA?AU_Nonscalar_ptr_iterator_tag@0@PAUBuffInfoStruct@@0@Z ; std::_Ptr_cat<BuffInfoStruct,BuffInfoStruct>
; Function compile flags: /Ogsp
; File c:\program files (x86)\microsoft visual studio 10.0\vc\include\xutility
;	COMDAT ??$_Ptr_cat@UBuffInfoStruct@@U1@@std@@YA?AU_Nonscalar_ptr_iterator_tag@0@PAUBuffInfoStruct@@0@Z
_TEXT	SEGMENT
__Cat$ = -1						; size = 1
___formal$ = 8						; size = 4
___formal$ = 12						; size = 4
??$_Ptr_cat@UBuffInfoStruct@@U1@@std@@YA?AU_Nonscalar_ptr_iterator_tag@0@PAUBuffInfoStruct@@0@Z PROC ; std::_Ptr_cat<BuffInfoStruct,BuffInfoStruct>, COMDAT

; 516  : 	{	// return pointer category from pointers

  00000	55		 push	 ebp
  00001	8b ec		 mov	 ebp, esp
  00003	51		 push	 ecx

; 517  : 	typename _Ptr_cat_helper<_Elem1, _Elem2>::_Type _Cat;
; 518  : 	return (_Cat);

  00004	8a 45 ff	 mov	 al, BYTE PTR __Cat$[ebp]

; 519  : 	}

  00007	c9		 leave
  00008	c3		 ret	 0
??$_Ptr_cat@UBuffInfoStruct@@U1@@std@@YA?AU_Nonscalar_ptr_iterator_tag@0@PAUBuffInfoStruct@@0@Z ENDP ; std::_Ptr_cat<BuffInfoStruct,BuffInfoStruct>
_TEXT	ENDS
PUBLIC	??$_Ptr_cat@VioHashString@@V1@@std@@YA?AU_Nonscalar_ptr_iterator_tag@0@PAVioHashString@@0@Z ; std::_Ptr_cat<ioHashString,ioHashString>
; Function compile flags: /Ogsp
;	COMDAT ??$_Ptr_cat@VioHashString@@V1@@std@@YA?AU_Nonscalar_ptr_iterator_tag@0@PAVioHashString@@0@Z
_TEXT	SEGMENT
__Cat$ = -1						; size = 1
___formal$ = 8						; size = 4
___formal$ = 12						; size = 4
??$_Ptr_cat@VioHashString@@V1@@std@@YA?AU_Nonscalar_ptr_iterator_tag@0@PAVioHashString@@0@Z PROC ; std::_Ptr_cat<ioHashString,ioHashString>, COMDAT

; 516  : 	{	// return pointer category from pointers

  00000	55		 push	 ebp
  00001	8b ec		 mov	 ebp, esp
  00003	51		 push	 ecx

; 517  : 	typename _Ptr_cat_helper<_Elem1, _Elem2>::_Type _Cat;
; 518  : 	return (_Cat);

  00004	8a 45 ff	 mov	 al, BYTE PTR __Cat$[ebp]

; 519  : 	}

  00007	c9		 leave
  00008	c3		 ret	 0
??$_Ptr_cat@VioHashString@@V1@@std@@YA?AU_Nonscalar_ptr_iterator_tag@0@PAVioHashString@@0@Z ENDP ; std::_Ptr_cat<ioHashString,ioHashString>
_TEXT	ENDS
PUBLIC	??$move@AAVioHashString@@@std@@YA$$QAVioHashString@@AAV1@@Z ; std::move<ioHashString &>
; Function compile flags: /Ogsp
; File c:\program files (x86)\microsoft visual studio 10.0\vc\include\utility
;	COMDAT ??$move@AAVioHashString@@@std@@YA$$QAVioHashString@@AAV1@@Z
_TEXT	SEGMENT
__Arg$ = 8						; size = 4
??$move@AAVioHashString@@@std@@YA$$QAVioHashString@@AAV1@@Z PROC ; std::move<ioHashString &>, COMDAT

; 86   : 	{	// forward _Arg as movable

  00000	55		 push	 ebp
  00001	8b ec		 mov	 ebp, esp

; 87   : 	return ((typename tr1::_Remove_reference<_Ty>::_Type&&)_Arg);

  00003	8b 45 08	 mov	 eax, DWORD PTR __Arg$[ebp]

; 88   : 	}

  00006	5d		 pop	 ebp
  00007	c3		 ret	 0
??$move@AAVioHashString@@@std@@YA$$QAVioHashString@@AAV1@@Z ENDP ; std::move<ioHashString &>
_TEXT	ENDS
PUBLIC	??_GioHashString@@QAEPAXI@Z			; ioHashString::`scalar deleting destructor'
; Function compile flags: /Ogsp
;	COMDAT ??_GioHashString@@QAEPAXI@Z
_TEXT	SEGMENT
___flags$ = 8						; size = 4
??_GioHashString@@QAEPAXI@Z PROC			; ioHashString::`scalar deleting destructor', COMDAT
; _this$ = ecx
  00000	55		 push	 ebp
  00001	8b ec		 mov	 ebp, esp
  00003	56		 push	 esi
  00004	8b f1		 mov	 esi, ecx
  00006	ff 15 00 00 00
	00		 call	 DWORD PTR __imp_??1ioHashString@@QAE@XZ
  0000c	f6 45 08 01	 test	 BYTE PTR ___flags$[ebp], 1
  00010	74 07		 je	 SHORT $LN1@scalar@3
  00012	56		 push	 esi
  00013	e8 00 00 00 00	 call	 ??3@YAXPAX@Z		; operator delete
  00018	59		 pop	 ecx
$LN1@scalar@3:
  00019	8b c6		 mov	 eax, esi
  0001b	5e		 pop	 esi
  0001c	5d		 pop	 ebp
  0001d	c2 04 00	 ret	 4
??_GioHashString@@QAEPAXI@Z ENDP			; ioHashString::`scalar deleting destructor'
_TEXT	ENDS
PUBLIC	??_GBuffInfoStruct@@QAEPAXI@Z			; BuffInfoStruct::`scalar deleting destructor'
; Function compile flags: /Ogsp
;	COMDAT ??_GBuffInfoStruct@@QAEPAXI@Z
_TEXT	SEGMENT
___flags$ = 8						; size = 4
??_GBuffInfoStruct@@QAEPAXI@Z PROC			; BuffInfoStruct::`scalar deleting destructor', COMDAT
; _this$ = ecx
  00000	55		 push	 ebp
  00001	8b ec		 mov	 ebp, esp
  00003	56		 push	 esi
  00004	8b f1		 mov	 esi, ecx
  00006	ff 15 00 00 00
	00		 call	 DWORD PTR __imp_??1ioHashString@@QAE@XZ
  0000c	f6 45 08 01	 test	 BYTE PTR ___flags$[ebp], 1
  00010	74 07		 je	 SHORT $LN1@scalar@4
  00012	56		 push	 esi
  00013	e8 00 00 00 00	 call	 ??3@YAXPAX@Z		; operator delete
  00018	59		 pop	 ecx
$LN1@scalar@4:
  00019	8b c6		 mov	 eax, esi
  0001b	5e		 pop	 esi
  0001c	5d		 pop	 ebp
  0001d	c2 04 00	 ret	 4
??_GBuffInfoStruct@@QAEPAXI@Z ENDP			; BuffInfoStruct::`scalar deleting destructor'
_TEXT	ENDS
PUBLIC	??$forward@AAUBuffInfoStruct@@@std@@YAAAUBuffInfoStruct@@AAU1@@Z ; std::forward<BuffInfoStruct &>
; Function compile flags: /Ogsp
;	COMDAT ??$forward@AAUBuffInfoStruct@@@std@@YAAAUBuffInfoStruct@@AAU1@@Z
_TEXT	SEGMENT
__Arg$ = 8						; size = 4
??$forward@AAUBuffInfoStruct@@@std@@YAAAUBuffInfoStruct@@AAU1@@Z PROC ; std::forward<BuffInfoStruct &>, COMDAT

; 78   : 	{	// forward _Arg, given explicitly specified type parameter

  00000	55		 push	 ebp
  00001	8b ec		 mov	 ebp, esp

; 79   : 	return ((_Ty&&)_Arg);

  00003	8b 45 08	 mov	 eax, DWORD PTR __Arg$[ebp]

; 80   : 	}

  00006	5d		 pop	 ebp
  00007	c3		 ret	 0
??$forward@AAUBuffInfoStruct@@@std@@YAAAUBuffInfoStruct@@AAU1@@Z ENDP ; std::forward<BuffInfoStruct &>
_TEXT	ENDS
PUBLIC	??0BuffInfoStruct@@QAE@ABU0@@Z			; BuffInfoStruct::BuffInfoStruct
; Function compile flags: /Ogsp
;	COMDAT ??0BuffInfoStruct@@QAE@ABU0@@Z
_TEXT	SEGMENT
___that$ = 8						; size = 4
??0BuffInfoStruct@@QAE@ABU0@@Z PROC			; BuffInfoStruct::BuffInfoStruct, COMDAT
; _this$ = ecx
  00000	55		 push	 ebp
  00001	8b ec		 mov	 ebp, esp
  00003	56		 push	 esi
  00004	57		 push	 edi
  00005	8b 7d 08	 mov	 edi, DWORD PTR ___that$[ebp]
  00008	57		 push	 edi
  00009	8b f1		 mov	 esi, ecx
  0000b	ff 15 00 00 00
	00		 call	 DWORD PTR __imp_??0ioHashString@@QAE@ABV0@@Z
  00011	8b 47 10	 mov	 eax, DWORD PTR [edi+16]
  00014	89 46 10	 mov	 DWORD PTR [esi+16], eax
  00017	5f		 pop	 edi
  00018	8b c6		 mov	 eax, esi
  0001a	5e		 pop	 esi
  0001b	5d		 pop	 ebp
  0001c	c2 04 00	 ret	 4
??0BuffInfoStruct@@QAE@ABU0@@Z ENDP			; BuffInfoStruct::BuffInfoStruct
_TEXT	ENDS
PUBLIC	??_R0?AVioBaseChar@@@8				; ioBaseChar `RTTI Type Descriptor'
PUBLIC	?ToBaseChar@@YAPAVioBaseChar@@PAVioGameEntity@@@Z ; ToBaseChar
;	COMDAT ??_R0?AVioBaseChar@@@8
; File d:\lost saga for developer\youtube\tutorial\source\src\lsclient\iobasechar.h
_DATA	SEGMENT
??_R0?AVioBaseChar@@@8 DD FLAT:??_7type_info@@6B@	; ioBaseChar `RTTI Type Descriptor'
	DD	00H
	DB	'.?AVioBaseChar@@', 00H
; Function compile flags: /Ogsp
_DATA	ENDS
;	COMDAT ?ToBaseChar@@YAPAVioBaseChar@@PAVioGameEntity@@@Z
_TEXT	SEGMENT
_pObj$ = 8						; size = 4
?ToBaseChar@@YAPAVioBaseChar@@PAVioGameEntity@@@Z PROC	; ToBaseChar, COMDAT

; 4326 : {

  00000	55		 push	 ebp
  00001	8b ec		 mov	 ebp, esp
  00003	56		 push	 esi

; 4327 : 	ioPlayEntity *pPlay = ToPlayEntity( pObj );

  00004	ff 75 08	 push	 DWORD PTR _pObj$[ebp]
  00007	e8 00 00 00 00	 call	 ?ToPlayEntity@@YAPAVioPlayEntity@@PAVioGameEntity@@@Z ; ToPlayEntity
  0000c	8b f0		 mov	 esi, eax
  0000e	59		 pop	 ecx

; 4328 : 	if( !pPlay || pPlay->GetSubType() != ioPlayEntity::PST_CHAR )

  0000f	85 f6		 test	 esi, esi
  00011	74 25		 je	 SHORT $LN1@ToBaseChar
  00013	8b 06		 mov	 eax, DWORD PTR [esi]
  00015	8b ce		 mov	 ecx, esi
  00017	ff 90 a4 00 00
	00		 call	 DWORD PTR [eax+164]
  0001d	85 c0		 test	 eax, eax
  0001f	75 17		 jne	 SHORT $LN1@ToBaseChar

; 4330 : 
; 4331 : 	return dynamic_cast< ioBaseChar* >( pPlay );

  00021	50		 push	 eax
  00022	68 00 00 00 00	 push	 OFFSET ??_R0?AVioBaseChar@@@8
  00027	68 00 00 00 00	 push	 OFFSET ??_R0?AVioPlayEntity@@@8
  0002c	50		 push	 eax
  0002d	56		 push	 esi
  0002e	e8 00 00 00 00	 call	 ___RTDynamicCast
  00033	83 c4 14	 add	 esp, 20			; 00000014H
  00036	eb 02		 jmp	 SHORT $LN3@ToBaseChar
$LN1@ToBaseChar:

; 4329 : 		return NULL;

  00038	33 c0		 xor	 eax, eax
$LN3@ToBaseChar:
  0003a	5e		 pop	 esi

; 4332 : }

  0003b	5d		 pop	 ebp
  0003c	c3		 ret	 0
?ToBaseChar@@YAPAVioBaseChar@@PAVioGameEntity@@@Z ENDP	; ToBaseChar
_TEXT	ENDS
PUBLIC	__$ArrayPad$
PUBLIC	?SetStartPosition@ioMineWeapon2@@UAEXABUD3DXVECTOR3@@PAVioPlayStage@@@Z ; ioMineWeapon2::SetStartPosition
EXTRN	?GetMapHeight@ioPlayStage@@QAEMMMPBVioGameEntity@@_NM1@Z:PROC ; ioPlayStage::GetMapHeight
EXTRN	?SetPosition@ioWeapon@@QAEXABUD3DXVECTOR3@@@Z:PROC ; ioWeapon::SetPosition
EXTRN	___security_cookie:DWORD
; Function compile flags: /Ogsp
; File d:\lost saga for developer\youtube\tutorial\source\src\lsclient\iomineweapon2.cpp
;	COMDAT ?SetStartPosition@ioMineWeapon2@@UAEXABUD3DXVECTOR3@@PAVioPlayStage@@@Z
_TEXT	SEGMENT
tv204 = -20						; size = 4
$T531691 = -16						; size = 12
_vMinePos$ = -16					; size = 12
__$ArrayPad$ = -4					; size = 4
_vPos$ = 8						; size = 4
_pStage$ = 12						; size = 4
?SetStartPosition@ioMineWeapon2@@UAEXABUD3DXVECTOR3@@PAVioPlayStage@@@Z PROC ; ioMineWeapon2::SetStartPosition, COMDAT
; _this$ = ecx

; 288  : {

  00000	55		 push	 ebp
  00001	8b ec		 mov	 ebp, esp
  00003	83 ec 14	 sub	 esp, 20			; 00000014H
  00006	a1 00 00 00 00	 mov	 eax, DWORD PTR ___security_cookie
  0000b	33 c5		 xor	 eax, ebp
  0000d	89 45 fc	 mov	 DWORD PTR __$ArrayPad$[ebp], eax
  00010	56		 push	 esi
  00011	8b 75 08	 mov	 esi, DWORD PTR _vPos$[ebp]
  00014	57		 push	 edi
  00015	8b f9		 mov	 edi, ecx
  00017	8b 4d 0c	 mov	 ecx, DWORD PTR _pStage$[ebp]

; 289  : 	if( !pStage )

  0001a	85 c9		 test	 ecx, ecx
  0001c	75 0a		 jne	 SHORT $LN1@SetStartPo

; 290  : 	{
; 291  : 		SetPosition( vPos );

  0001e	56		 push	 esi
  0001f	8b cf		 mov	 ecx, edi
  00021	e8 00 00 00 00	 call	 ?SetPosition@ioWeapon@@QAEXABUD3DXVECTOR3@@@Z ; ioWeapon::SetPosition

; 292  : 		return;

  00026	eb 7a		 jmp	 SHORT $LN2@SetStartPo
$LN1@SetStartPo:

; 293  : 	}
; 294  : 
; 295  : 	D3DXVECTOR3 vMinePos;
; 296  : 	vMinePos.x = vPos.x;
; 297  : 	vMinePos.y = pStage->GetMapHeight( vPos.x, vPos.z, NULL, true, vPos.y );

  00028	f3 0f 10 4e 04	 movss	 xmm1, DWORD PTR [esi+4]
  0002d	f3 0f 10 06	 movss	 xmm0, DWORD PTR [esi]
  00031	6a 00		 push	 0
  00033	51		 push	 ecx
  00034	f3 0f 11 0c 24	 movss	 DWORD PTR [esp], xmm1
  00039	f3 0f 10 4e 08	 movss	 xmm1, DWORD PTR [esi+8]
  0003e	6a 01		 push	 1
  00040	6a 00		 push	 0
  00042	51		 push	 ecx
  00043	51		 push	 ecx
  00044	f3 0f 11 4c 24
	04		 movss	 DWORD PTR [esp+4], xmm1
  0004a	f3 0f 11 45 f0	 movss	 DWORD PTR _vMinePos$[ebp], xmm0
  0004f	f3 0f 11 04 24	 movss	 DWORD PTR [esp], xmm0
  00054	e8 00 00 00 00	 call	 ?GetMapHeight@ioPlayStage@@QAEMMMPBVioGameEntity@@_NM1@Z ; ioPlayStage::GetMapHeight
  00059	d9 5d f4	 fstp	 DWORD PTR _vMinePos$[ebp+4]

; 298  : 	vMinePos.z = vPos.z;

  0005c	f3 0f 10 46 08	 movss	 xmm0, DWORD PTR [esi+8]

; 299  : 
; 300  : 	SetPosition( vMinePos );

  00061	8d 45 f0	 lea	 eax, DWORD PTR _vMinePos$[ebp]
  00064	50		 push	 eax
  00065	8b cf		 mov	 ecx, edi
  00067	f3 0f 11 45 f8	 movss	 DWORD PTR _vMinePos$[ebp+8], xmm0
  0006c	e8 00 00 00 00	 call	 ?SetPosition@ioWeapon@@QAEXABUD3DXVECTOR3@@@Z ; ioWeapon::SetPosition

; 301  : 
; 302  : 	m_vMoveDir = D3DXVECTOR3( 0.0f, FLOAT1, 0.0f );

  00071	b8 01 00 00 00	 mov	 eax, 1
  00076	0f 57 c0	 xorps	 xmm0, xmm0
  00079	89 45 ec	 mov	 DWORD PTR tv204[ebp], eax
  0007c	db 45 ec	 fild	 DWORD PTR tv204[ebp]
  0007f	f3 0f 11 45 f0	 movss	 DWORD PTR $T531691[ebp], xmm0
  00084	85 c0		 test	 eax, eax
  00086	79 06		 jns	 SHORT $LN10@SetStartPo
  00088	d8 05 00 00 00
	00		 fadd	 DWORD PTR __real@4f800000
$LN10@SetStartPo:
  0008e	81 c7 c8 08 00
	00		 add	 edi, 2248		; 000008c8H
  00094	d9 5d f4	 fstp	 DWORD PTR $T531691[ebp+4]
  00097	f3 0f 11 45 f8	 movss	 DWORD PTR $T531691[ebp+8], xmm0
  0009c	8d 75 f0	 lea	 esi, DWORD PTR $T531691[ebp]
  0009f	a5		 movsd
  000a0	a5		 movsd
  000a1	a5		 movsd
$LN2@SetStartPo:

; 303  : }

  000a2	8b 4d fc	 mov	 ecx, DWORD PTR __$ArrayPad$[ebp]
  000a5	5f		 pop	 edi
  000a6	33 cd		 xor	 ecx, ebp
  000a8	5e		 pop	 esi
  000a9	e8 00 00 00 00	 call	 @__security_check_cookie@4
  000ae	c9		 leave
  000af	c2 08 00	 ret	 8
?SetStartPosition@ioMineWeapon2@@UAEXABUD3DXVECTOR3@@PAVioPlayStage@@@Z ENDP ; ioMineWeapon2::SetStartPosition
_TEXT	ENDS
PUBLIC	?UpdateWorldCollisionBox@ioMineWeapon2@@IAEXXZ	; ioMineWeapon2::UpdateWorldCollisionBox
EXTRN	__imp_?Transform@ioOrientBox@@QAEXABUD3DXVECTOR3@@0ABUD3DXQUATERNION@@@Z:PROC
EXTRN	__imp_?GetCollisionBox@ioEntityGroup@@QBEABVioOrientBox@@XZ:PROC
; Function compile flags: /Ogsp
;	COMDAT ?UpdateWorldCollisionBox@ioMineWeapon2@@IAEXXZ
_TEXT	SEGMENT
tv170 = -4						; size = 4
?UpdateWorldCollisionBox@ioMineWeapon2@@IAEXXZ PROC	; ioMineWeapon2::UpdateWorldCollisionBox, COMDAT
; _this$ = ecx

; 526  : {

  00000	55		 push	 ebp
  00001	8b ec		 mov	 ebp, esp
  00003	51		 push	 ecx
  00004	57		 push	 edi
  00005	8b f9		 mov	 edi, ecx

; 527  : 	if( m_pMine )

  00007	8b 8f 94 08 00
	00		 mov	 ecx, DWORD PTR [edi+2196]
  0000d	85 c9		 test	 ecx, ecx
  0000f	74 45		 je	 SHORT $LN1@UpdateWorl

; 528  : 	{
; 529  : 		ioSceneNode *pSNode = GetParentSceneNode();

  00011	53		 push	 ebx
  00012	8b 5f 04	 mov	 ebx, DWORD PTR [edi+4]

; 530  : 		if( pSNode )

  00015	85 db		 test	 ebx, ebx
  00017	74 3c		 je	 SHORT $LN7@UpdateWorl

; 531  : 		{
; 532  : 			m_WorldCollisionBox = m_pMine->GetCollisionBox();

  00019	56		 push	 esi
  0001a	ff 15 00 00 00
	00		 call	 DWORD PTR __imp_?GetCollisionBox@ioEntityGroup@@QBEABVioOrientBox@@XZ
  00020	6a 11		 push	 17			; 00000011H
  00022	81 c7 d4 0a 00
	00		 add	 edi, 2772		; 00000ad4H
  00028	8b f0		 mov	 esi, eax
  0002a	59		 pop	 ecx
  0002b	89 7d fc	 mov	 DWORD PTR tv170[ebp], edi
  0002e	f3 a5		 rep movsd

; 533  : 			m_WorldCollisionBox.Transform( pSNode->GetDerivedPosition(),
; 534  : 				pSNode->GetDerivedScale(),
; 535  : 				pSNode->GetDerivedOrientation() );

  00030	8b 03		 mov	 eax, DWORD PTR [ebx]
  00032	8b cb		 mov	 ecx, ebx
  00034	ff 50 78	 call	 DWORD PTR [eax+120]
  00037	50		 push	 eax
  00038	8b 03		 mov	 eax, DWORD PTR [ebx]
  0003a	8b cb		 mov	 ecx, ebx
  0003c	ff 90 80 00 00
	00		 call	 DWORD PTR [eax+128]
  00042	50		 push	 eax
  00043	8b 03		 mov	 eax, DWORD PTR [ebx]
  00045	8b cb		 mov	 ecx, ebx
  00047	ff 50 7c	 call	 DWORD PTR [eax+124]
  0004a	8b 4d fc	 mov	 ecx, DWORD PTR tv170[ebp]
  0004d	50		 push	 eax
  0004e	ff 15 00 00 00
	00		 call	 DWORD PTR __imp_?Transform@ioOrientBox@@QAEXABUD3DXVECTOR3@@0ABUD3DXQUATERNION@@@Z
  00054	5e		 pop	 esi
$LN7@UpdateWorl:
  00055	5b		 pop	 ebx
$LN1@UpdateWorl:
  00056	5f		 pop	 edi

; 536  : 
; 537  : 		}
; 538  : 	}
; 539  : }

  00057	c9		 leave
  00058	c3		 ret	 0
?UpdateWorldCollisionBox@ioMineWeapon2@@IAEXXZ ENDP	; ioMineWeapon2::UpdateWorldCollisionBox
_TEXT	ENDS
PUBLIC	__$ArrayPad$
PUBLIC	?SetWaitExplosionMine@ioMineWeapon2@@QAEXPAVioPlayStage@@_N@Z ; ioMineWeapon2::SetWaitExplosionMine
EXTRN	??1SP2Packet@@UAE@XZ:PROC			; SP2Packet::~SP2Packet
EXTRN	?SendToAllPlayingUser@P2PNetwork@@YAXAAVSP2Packet@@PAVioBaseChar@@@Z:PROC ; P2PNetwork::SendToAllPlayingUser
EXTRN	??6SP2Packet@@QAEAAV0@ABUD3DXVECTOR3@@@Z:PROC	; SP2Packet::operator<<
EXTRN	??6SP2Packet@@QAEAAV0@K@Z:PROC			; SP2Packet::operator<<
EXTRN	??6SP2Packet@@QAEAAV0@ABVioHashString@@@Z:PROC	; SP2Packet::operator<<
EXTRN	??0SP2Packet@@QAE@K@Z:PROC			; SP2Packet::SP2Packet
EXTRN	?IsNetworkMode@ioPlayStage@@QAE_NXZ:PROC	; ioPlayStage::IsNetworkMode
EXTRN	?IsNetworkPlaying@P2PNetwork@@YA_NXZ:PROC	; P2PNetwork::IsNetworkPlaying
EXTRN	__chkstk:PROC
;	COMDAT xdata$x
; File d:\lost saga for developer\youtube\tutorial\source\src\lsclient\ioweapon.h
xdata$x	SEGMENT
__unwindtable$?SetWaitExplosionMine@ioMineWeapon2@@QAEXPAVioPlayStage@@_N@Z DD 0ffffffffH
	DD	FLAT:__unwindfunclet$?SetWaitExplosionMine@ioMineWeapon2@@QAEXPAVioPlayStage@@_N@Z$0
__ehfuncinfo$?SetWaitExplosionMine@ioMineWeapon2@@QAEXPAVioPlayStage@@_N@Z DD 019930522H
	DD	01H
	DD	FLAT:__unwindtable$?SetWaitExplosionMine@ioMineWeapon2@@QAEXPAVioPlayStage@@_N@Z
	DD	2 DUP(00H)
	DD	2 DUP(00H)
	DD	00H
	DD	01H
; Function compile flags: /Ogsp
; File d:\lost saga for developer\youtube\tutorial\source\src\lsclient\iomineweapon2.cpp
xdata$x	ENDS
;	COMDAT ?SetWaitExplosionMine@ioMineWeapon2@@QAEXPAVioPlayStage@@_N@Z
_TEXT	SEGMENT
_kPacket$531906 = -32808				; size = 32792
__$ArrayPad$ = -16					; size = 4
__$EHRec$ = -12						; size = 12
_pStage$ = 8						; size = 4
_bSendNetwork$ = 12					; size = 1
?SetWaitExplosionMine@ioMineWeapon2@@QAEXPAVioPlayStage@@_N@Z PROC ; ioMineWeapon2::SetWaitExplosionMine, COMDAT
; _this$ = ecx

; 551  : {

  00000	55		 push	 ebp
  00001	8b ec		 mov	 ebp, esp
  00003	6a ff		 push	 -1
  00005	68 00 00 00 00	 push	 __ehhandler$?SetWaitExplosionMine@ioMineWeapon2@@QAEXPAVioPlayStage@@_N@Z
  0000a	64 a1 00 00 00
	00		 mov	 eax, DWORD PTR fs:0
  00010	50		 push	 eax
  00011	b8 1c 80 00 00	 mov	 eax, 32796		; 0000801cH
  00016	e8 00 00 00 00	 call	 __chkstk
  0001b	a1 00 00 00 00	 mov	 eax, DWORD PTR ___security_cookie
  00020	33 c5		 xor	 eax, ebp
  00022	89 45 f0	 mov	 DWORD PTR __$ArrayPad$[ebp], eax
  00025	53		 push	 ebx
  00026	56		 push	 esi
  00027	50		 push	 eax
  00028	8d 45 f4	 lea	 eax, DWORD PTR __$EHRec$[ebp]
  0002b	64 a3 00 00 00
	00		 mov	 DWORD PTR fs:0, eax
  00031	8b 5d 08	 mov	 ebx, DWORD PTR _pStage$[ebp]
  00034	8b f1		 mov	 esi, ecx

; 552  : 	if( m_State == MS_WAIT_EXPLOSION ||
; 553  : 		m_State == MS_EXPLOSION ||
; 554  : 		m_State == MS_NORMAL_DEAD )

  00036	8b 86 9c 0b 00
	00		 mov	 eax, DWORD PTR [esi+2972]
  0003c	83 f8 02	 cmp	 eax, 2
  0003f	0f 84 b0 00 00
	00		 je	 $LN3@SetWaitExp
  00045	83 f8 05	 cmp	 eax, 5
  00048	0f 84 a7 00 00
	00		 je	 $LN3@SetWaitExp
  0004e	83 f8 06	 cmp	 eax, 6
  00051	0f 84 9e 00 00
	00		 je	 $LN3@SetWaitExp

; 555  : 		return;
; 556  : 
; 557  : 	m_dwTraceDelayTime = FRAMEGETTIME();	// 대기 시간 셋팅

  00057	ff 15 00 00 00
	00		 call	 DWORD PTR __imp_?GetSingleton@ioFrameTimer@@SAAAV1@XZ
  0005d	8b c8		 mov	 ecx, eax
  0005f	ff 15 00 00 00
	00		 call	 DWORD PTR __imp_?GetLoopSec@ioFrameTimer@@QBEKXZ

; 558  : 	m_State = MS_WAIT_EXPLOSION;
; 559  : 
; 560  : 	if( bSendNetwork )

  00065	80 7d 0c 00	 cmp	 BYTE PTR _bSendNetwork$[ebp], 0
  00069	89 86 9c 08 00
	00		 mov	 DWORD PTR [esi+2204], eax
  0006f	c7 86 9c 0b 00
	00 02 00 00 00	 mov	 DWORD PTR [esi+2972], 2
  00079	74 7a		 je	 SHORT $LN3@SetWaitExp

; 561  : 	{
; 562  : 		if( P2PNetwork::IsNetworkPlaying() && pStage->IsNetworkMode() )

  0007b	e8 00 00 00 00	 call	 ?IsNetworkPlaying@P2PNetwork@@YA_NXZ ; P2PNetwork::IsNetworkPlaying
  00080	84 c0		 test	 al, al
  00082	74 71		 je	 SHORT $LN3@SetWaitExp
  00084	8b cb		 mov	 ecx, ebx
  00086	e8 00 00 00 00	 call	 ?IsNetworkMode@ioPlayStage@@QAE_NXZ ; ioPlayStage::IsNetworkMode
  0008b	84 c0		 test	 al, al
  0008d	74 66		 je	 SHORT $LN3@SetWaitExp

; 563  : 		{
; 564  : 			SP2Packet kPacket( CUPK_TRACE_MINE_WAIT_EXPLOSION );

  0008f	68 38 42 00 00	 push	 16952			; 00004238H
  00094	8d 8d d8 7f ff
	ff		 lea	 ecx, DWORD PTR _kPacket$531906[ebp]
  0009a	e8 00 00 00 00	 call	 ??0SP2Packet@@QAE@K@Z	; SP2Packet::SP2Packet
  0009f	83 65 fc 00	 and	 DWORD PTR __$EHRec$[ebp+8], 0

; 565  : 			kPacket << GetOwnerName();

  000a3	8d 46 10	 lea	 eax, DWORD PTR [esi+16]
  000a6	50		 push	 eax
  000a7	8d 8d d8 7f ff
	ff		 lea	 ecx, DWORD PTR _kPacket$531906[ebp]
  000ad	e8 00 00 00 00	 call	 ??6SP2Packet@@QAEAAV0@ABVioHashString@@@Z ; SP2Packet::operator<<

; 566  : 			kPacket << m_dwWeaponIdx;

  000b2	ff b6 b8 04 00
	00		 push	 DWORD PTR [esi+1208]
  000b8	8d 8d d8 7f ff
	ff		 lea	 ecx, DWORD PTR _kPacket$531906[ebp]
  000be	e8 00 00 00 00	 call	 ??6SP2Packet@@QAEAAV0@K@Z ; SP2Packet::operator<<

; 567  : 			kPacket << GetPosition();

  000c3	8b 06		 mov	 eax, DWORD PTR [esi]
  000c5	8b ce		 mov	 ecx, esi
  000c7	ff 50 70	 call	 DWORD PTR [eax+112]
  000ca	50		 push	 eax
  000cb	8d 8d d8 7f ff
	ff		 lea	 ecx, DWORD PTR _kPacket$531906[ebp]
  000d1	e8 00 00 00 00	 call	 ??6SP2Packet@@QAEAAV0@ABUD3DXVECTOR3@@@Z ; SP2Packet::operator<<

; 568  : 			P2PNetwork::SendToAllPlayingUser( kPacket );

  000d6	8d 85 d8 7f ff
	ff		 lea	 eax, DWORD PTR _kPacket$531906[ebp]
  000dc	6a 00		 push	 0
  000de	50		 push	 eax
  000df	e8 00 00 00 00	 call	 ?SendToAllPlayingUser@P2PNetwork@@YAXAAVSP2Packet@@PAVioBaseChar@@@Z ; P2PNetwork::SendToAllPlayingUser

; 569  : 		}

  000e4	83 4d fc ff	 or	 DWORD PTR __$EHRec$[ebp+8], -1
  000e8	59		 pop	 ecx
  000e9	59		 pop	 ecx
  000ea	8d 8d d8 7f ff
	ff		 lea	 ecx, DWORD PTR _kPacket$531906[ebp]
  000f0	e8 00 00 00 00	 call	 ??1SP2Packet@@UAE@XZ	; SP2Packet::~SP2Packet
$LN3@SetWaitExp:

; 570  : 	}
; 571  : }

  000f5	8b 4d f4	 mov	 ecx, DWORD PTR __$EHRec$[ebp]
  000f8	64 89 0d 00 00
	00 00		 mov	 DWORD PTR fs:0, ecx
  000ff	59		 pop	 ecx
  00100	5e		 pop	 esi
  00101	5b		 pop	 ebx
  00102	8b 4d f0	 mov	 ecx, DWORD PTR __$ArrayPad$[ebp]
  00105	33 cd		 xor	 ecx, ebp
  00107	e8 00 00 00 00	 call	 @__security_check_cookie@4
  0010c	c9		 leave
  0010d	c2 08 00	 ret	 8
_TEXT	ENDS
;	COMDAT text$x
text$x	SEGMENT
__unwindfunclet$?SetWaitExplosionMine@ioMineWeapon2@@QAEXPAVioPlayStage@@_N@Z$0:
  00000	8d 8d d8 7f ff
	ff		 lea	 ecx, DWORD PTR _kPacket$531906[ebp]
  00006	e9 00 00 00 00	 jmp	 ??1SP2Packet@@UAE@XZ	; SP2Packet::~SP2Packet
__ehhandler$?SetWaitExplosionMine@ioMineWeapon2@@QAEXPAVioPlayStage@@_N@Z:
  0000b	8b 54 24 08	 mov	 edx, DWORD PTR [esp+8]
  0000f	8d 42 0c	 lea	 eax, DWORD PTR [edx+12]
  00012	8b 8a d8 7f ff
	ff		 mov	 ecx, DWORD PTR [edx-32808]
  00018	33 c8		 xor	 ecx, eax
  0001a	e8 00 00 00 00	 call	 @__security_check_cookie@4
  0001f	8b 4a fc	 mov	 ecx, DWORD PTR [edx-4]
  00022	33 c8		 xor	 ecx, eax
  00024	e8 00 00 00 00	 call	 @__security_check_cookie@4
  00029	b8 00 00 00 00	 mov	 eax, OFFSET __ehfuncinfo$?SetWaitExplosionMine@ioMineWeapon2@@QAEXPAVioPlayStage@@_N@Z
  0002e	e9 00 00 00 00	 jmp	 ___CxxFrameHandler3
text$x	ENDS
?SetWaitExplosionMine@ioMineWeapon2@@QAEXPAVioPlayStage@@_N@Z ENDP ; ioMineWeapon2::SetWaitExplosionMine
PUBLIC	_pStage$GSCopy$
PUBLIC	__$ArrayPad$
PUBLIC	?SetWaitFlyMine@ioMineWeapon2@@QAEXPAVioPlayStage@@_N@Z ; ioMineWeapon2::SetWaitFlyMine
EXTRN	__imp_?PlaySoundA@ioSoundManager@@QAEKABVioHashString@@PAVioSceneNode@@K@Z:PROC
EXTRN	?GetOwner@ioWeapon@@QBEPAVioBaseChar@@XZ:PROC	; ioWeapon::GetOwner
EXTRN	?GetUniqueID@ioMapEffect@@QBEKXZ:PROC		; ioMapEffect::GetUniqueID
EXTRN	?CreateMapEffect@ioPlayStage@@QAEPAVioMapEffect@@ABVioHashString@@ABUD3DXVECTOR3@@1@Z:PROC ; ioPlayStage::CreateMapEffect
EXTRN	?GetScale@ioWeapon@@QBEABUD3DXVECTOR3@@XZ:PROC	; ioWeapon::GetScale
;	COMDAT xdata$x
; File d:\lost saga for developer\youtube\tutorial\source\src\lsclient\ioweapon.h
xdata$x	SEGMENT
__unwindtable$?SetWaitFlyMine@ioMineWeapon2@@QAEXPAVioPlayStage@@_N@Z DD 0ffffffffH
	DD	FLAT:__unwindfunclet$?SetWaitFlyMine@ioMineWeapon2@@QAEXPAVioPlayStage@@_N@Z$0
__ehfuncinfo$?SetWaitFlyMine@ioMineWeapon2@@QAEXPAVioPlayStage@@_N@Z DD 019930522H
	DD	01H
	DD	FLAT:__unwindtable$?SetWaitFlyMine@ioMineWeapon2@@QAEXPAVioPlayStage@@_N@Z
	DD	2 DUP(00H)
	DD	2 DUP(00H)
	DD	00H
	DD	01H
; Function compile flags: /Ogsp
; File d:\lost saga for developer\youtube\tutorial\source\src\lsclient\iomineweapon2.cpp
xdata$x	ENDS
;	COMDAT ?SetWaitFlyMine@ioMineWeapon2@@QAEXPAVioPlayStage@@_N@Z
_TEXT	SEGMENT
_pStage$GSCopy$ = -32824				; size = 4
_kPacket$531924 = -32820				; size = 32792
_vPos$531916 = -28					; size = 12
__$ArrayPad$ = -16					; size = 4
__$EHRec$ = -12						; size = 12
_pStage$ = 8						; size = 4
_bSendNetwork$ = 12					; size = 1
?SetWaitFlyMine@ioMineWeapon2@@QAEXPAVioPlayStage@@_N@Z PROC ; ioMineWeapon2::SetWaitFlyMine, COMDAT
; _this$ = ecx

; 574  : {

  00000	55		 push	 ebp
  00001	8b ec		 mov	 ebp, esp
  00003	6a ff		 push	 -1
  00005	68 00 00 00 00	 push	 __ehhandler$?SetWaitFlyMine@ioMineWeapon2@@QAEXPAVioPlayStage@@_N@Z
  0000a	64 a1 00 00 00
	00		 mov	 eax, DWORD PTR fs:0
  00010	50		 push	 eax
  00011	b8 2c 80 00 00	 mov	 eax, 32812		; 0000802cH
  00016	e8 00 00 00 00	 call	 __chkstk
  0001b	a1 00 00 00 00	 mov	 eax, DWORD PTR ___security_cookie
  00020	33 c5		 xor	 eax, ebp
  00022	89 45 f0	 mov	 DWORD PTR __$ArrayPad$[ebp], eax
  00025	53		 push	 ebx
  00026	56		 push	 esi
  00027	57		 push	 edi
  00028	50		 push	 eax
  00029	8d 45 f4	 lea	 eax, DWORD PTR __$EHRec$[ebp]
  0002c	64 a3 00 00 00
	00		 mov	 DWORD PTR fs:0, eax
  00032	8b 45 08	 mov	 eax, DWORD PTR _pStage$[ebp]
  00035	8b d9		 mov	 ebx, ecx

; 612  : 		{
; 613  : 			SP2Packet kPacket( CUPK_TRACE_MINE_FLY_TRACE );

  00037	89 85 c8 7f ff
	ff		 mov	 DWORD PTR _pStage$GSCopy$[ebp], eax
  0003d	8b 83 9c 0b 00
	00		 mov	 eax, DWORD PTR [ebx+2972]
  00043	83 f8 02	 cmp	 eax, 2
  00046	0f 84 8c 01 00
	00		 je	 $LN7@SetWaitFly

; 575  : 	if( m_State == MS_WAIT_EXPLOSION ||
; 576  : 		m_State == MS_EXPLOSION ||
; 577  : 		m_State == MS_NORMAL_DEAD ||
; 578  : 		m_State == MS_FLY_WAIT )

  0004c	83 f8 05	 cmp	 eax, 5
  0004f	0f 84 83 01 00
	00		 je	 $LN7@SetWaitFly
  00055	83 f8 06	 cmp	 eax, 6
  00058	0f 84 7a 01 00
	00		 je	 $LN7@SetWaitFly
  0005e	6a 03		 push	 3
  00060	5e		 pop	 esi
  00061	3b c6		 cmp	 eax, esi
  00063	0f 84 6f 01 00
	00		 je	 $LN7@SetWaitFly

; 579  : 		return;
; 580  : 
; 581  : 	m_dwCurFlyTraceDealyTime = FRAMEGETTIME();	// 대기 시간 셋팅

  00069	ff 15 00 00 00
	00		 call	 DWORD PTR __imp_?GetSingleton@ioFrameTimer@@SAAAV1@XZ
  0006f	8b c8		 mov	 ecx, eax
  00071	ff 15 00 00 00
	00		 call	 DWORD PTR __imp_?GetLoopSec@ioFrameTimer@@QBEKXZ

; 582  : 	m_State = MS_FLY_WAIT;
; 583  : 
; 584  : 	m_vEffectDir = m_vMoveDir;
; 585  : 
; 586  : 	if( pStage )

  00077	83 bd c8 7f ff
	ff 00		 cmp	 DWORD PTR _pStage$GSCopy$[ebp], 0
  0007e	89 b3 9c 0b 00
	00		 mov	 DWORD PTR [ebx+2972], esi
  00084	8d b3 c8 08 00
	00		 lea	 esi, DWORD PTR [ebx+2248]
  0008a	8d bb c8 0b 00
	00		 lea	 edi, DWORD PTR [ebx+3016]
  00090	a5		 movsd
  00091	a5		 movsd
  00092	89 83 a8 08 00
	00		 mov	 DWORD PTR [ebx+2216], eax
  00098	a5		 movsd
  00099	74 60		 je	 SHORT $LN4@SetWaitFly

; 587  : 	{
; 588  : 		pStage->CreateMapEffect( m_szTraceStartEffect, GetPosition(), GetScale() );		

  0009b	8b cb		 mov	 ecx, ebx
  0009d	e8 00 00 00 00	 call	 ?GetScale@ioWeapon@@QBEABUD3DXVECTOR3@@XZ ; ioWeapon::GetScale
  000a2	50		 push	 eax
  000a3	8b 03		 mov	 eax, DWORD PTR [ebx]
  000a5	8b cb		 mov	 ecx, ebx
  000a7	ff 50 70	 call	 DWORD PTR [eax+112]
  000aa	8b 8d c8 7f ff
	ff		 mov	 ecx, DWORD PTR _pStage$GSCopy$[ebp]
  000b0	50		 push	 eax
  000b1	8d 83 a4 0b 00
	00		 lea	 eax, DWORD PTR [ebx+2980]
  000b7	50		 push	 eax
  000b8	e8 00 00 00 00	 call	 ?CreateMapEffect@ioPlayStage@@QAEPAVioMapEffect@@ABVioHashString@@ABUD3DXVECTOR3@@1@Z ; ioPlayStage::CreateMapEffect

; 589  : 	}
; 590  : 
; 591  : 	if( pStage )
; 592  : 	{
; 593  : 		D3DXVECTOR3 vPos = GetPosition();

  000bd	8b 03		 mov	 eax, DWORD PTR [ebx]
  000bf	8b cb		 mov	 ecx, ebx
  000c1	ff 50 70	 call	 DWORD PTR [eax+112]
  000c4	8b f0		 mov	 esi, eax
  000c6	8d 7d e4	 lea	 edi, DWORD PTR _vPos$531916[ebp]
  000c9	a5		 movsd
  000ca	a5		 movsd

; 594  : 
; 595  : 		ioMapEffect* pMapEffect = pStage->CreateMapEffect( m_szFireSprayEffect, vPos, GetScale() );

  000cb	8b cb		 mov	 ecx, ebx
  000cd	a5		 movsd
  000ce	e8 00 00 00 00	 call	 ?GetScale@ioWeapon@@QBEABUD3DXVECTOR3@@XZ ; ioWeapon::GetScale
  000d3	8b 8d c8 7f ff
	ff		 mov	 ecx, DWORD PTR _pStage$GSCopy$[ebp]
  000d9	50		 push	 eax
  000da	8d 45 e4	 lea	 eax, DWORD PTR _vPos$531916[ebp]
  000dd	50		 push	 eax
  000de	8d 83 b4 0b 00
	00		 lea	 eax, DWORD PTR [ebx+2996]
  000e4	50		 push	 eax
  000e5	e8 00 00 00 00	 call	 ?CreateMapEffect@ioPlayStage@@QAEPAVioMapEffect@@ABVioHashString@@ABUD3DXVECTOR3@@1@Z ; ioPlayStage::CreateMapEffect

; 596  : 		if( pMapEffect )

  000ea	85 c0		 test	 eax, eax
  000ec	74 0d		 je	 SHORT $LN4@SetWaitFly

; 597  : 		{			
; 598  : 			m_dwFireSprayEffect = pMapEffect->GetUniqueID();

  000ee	8b c8		 mov	 ecx, eax
  000f0	e8 00 00 00 00	 call	 ?GetUniqueID@ioMapEffect@@QBEKXZ ; ioMapEffect::GetUniqueID
  000f5	89 83 c4 0b 00
	00		 mov	 DWORD PTR [ebx+3012], eax
$LN4@SetWaitFly:

; 599  : 		}
; 600  : 	}
; 601  : 
; 602  : 	ioBaseChar* pOwner = GetOwner();

  000fb	8b cb		 mov	 ecx, ebx
  000fd	e8 00 00 00 00	 call	 ?GetOwner@ioWeapon@@QBEPAVioBaseChar@@XZ ; ioWeapon::GetOwner

; 603  : 	if( !m_szTraceStartSound.IsEmpty() && pOwner )

  00102	8d bb d8 0b 00
	00		 lea	 edi, DWORD PTR [ebx+3032]
  00108	8b cf		 mov	 ecx, edi
  0010a	8b f0		 mov	 esi, eax
  0010c	ff 15 00 00 00
	00		 call	 DWORD PTR __imp_?IsEmpty@ioHashString@@QBE_NXZ
  00112	84 c0		 test	 al, al
  00114	75 24		 jne	 SHORT $LN3@SetWaitFly
  00116	85 f6		 test	 esi, esi
  00118	74 20		 je	 SHORT $LN3@SetWaitFly

; 604  : 	{
; 605  : 		ioEntityGroup *pGrp = pOwner->GetGroup();

  0011a	8b 4e 04	 mov	 ecx, DWORD PTR [esi+4]

; 606  : 		m_dwTraceStartSound = g_SoundMgr.PlaySound( m_szTraceStartSound, pGrp->GetParentSceneNode() );			

  0011d	8b 01		 mov	 eax, DWORD PTR [ecx]
  0011f	6a 04		 push	 4
  00121	ff 50 34	 call	 DWORD PTR [eax+52]
  00124	50		 push	 eax
  00125	57		 push	 edi
  00126	ff 15 00 00 00
	00		 call	 DWORD PTR __imp_?GetSingleton@ioSoundManager@@SAAAV1@XZ
  0012c	8b c8		 mov	 ecx, eax
  0012e	ff 15 00 00 00
	00		 call	 DWORD PTR __imp_?PlaySoundA@ioSoundManager@@QAEKABVioHashString@@PAVioSceneNode@@K@Z
  00134	89 83 e8 0b 00
	00		 mov	 DWORD PTR [ebx+3048], eax
$LN3@SetWaitFly:

; 607  : 	}
; 608  : 
; 609  : 	if( bSendNetwork )

  0013a	80 7d 0c 00	 cmp	 BYTE PTR _bSendNetwork$[ebp], 0
  0013e	0f 84 94 00 00
	00		 je	 $LN7@SetWaitFly

; 610  : 	{
; 611  : 		if( P2PNetwork::IsNetworkPlaying() && pStage->IsNetworkMode() )

  00144	e8 00 00 00 00	 call	 ?IsNetworkPlaying@P2PNetwork@@YA_NXZ ; P2PNetwork::IsNetworkPlaying
  00149	84 c0		 test	 al, al
  0014b	0f 84 87 00 00
	00		 je	 $LN7@SetWaitFly
  00151	8b 8d c8 7f ff
	ff		 mov	 ecx, DWORD PTR _pStage$GSCopy$[ebp]
  00157	e8 00 00 00 00	 call	 ?IsNetworkMode@ioPlayStage@@QAE_NXZ ; ioPlayStage::IsNetworkMode
  0015c	84 c0		 test	 al, al
  0015e	74 78		 je	 SHORT $LN7@SetWaitFly

; 612  : 		{
; 613  : 			SP2Packet kPacket( CUPK_TRACE_MINE_FLY_TRACE );

  00160	68 40 42 00 00	 push	 16960			; 00004240H
  00165	8d 8d cc 7f ff
	ff		 lea	 ecx, DWORD PTR _kPacket$531924[ebp]
  0016b	e8 00 00 00 00	 call	 ??0SP2Packet@@QAE@K@Z	; SP2Packet::SP2Packet
  00170	83 65 fc 00	 and	 DWORD PTR __$EHRec$[ebp+8], 0

; 614  : 			kPacket << GetOwnerName();

  00174	8d 43 10	 lea	 eax, DWORD PTR [ebx+16]
  00177	50		 push	 eax
  00178	8d 8d cc 7f ff
	ff		 lea	 ecx, DWORD PTR _kPacket$531924[ebp]
  0017e	e8 00 00 00 00	 call	 ??6SP2Packet@@QAEAAV0@ABVioHashString@@@Z ; SP2Packet::operator<<

; 615  : 			kPacket << m_dwWeaponIdx;

  00183	ff b3 b8 04 00
	00		 push	 DWORD PTR [ebx+1208]
  00189	8d 8d cc 7f ff
	ff		 lea	 ecx, DWORD PTR _kPacket$531924[ebp]
  0018f	e8 00 00 00 00	 call	 ??6SP2Packet@@QAEAAV0@K@Z ; SP2Packet::operator<<

; 616  : 			kPacket << GetPosition();

  00194	8b 03		 mov	 eax, DWORD PTR [ebx]
  00196	8b cb		 mov	 ecx, ebx
  00198	ff 50 70	 call	 DWORD PTR [eax+112]
  0019b	50		 push	 eax
  0019c	8d 8d cc 7f ff
	ff		 lea	 ecx, DWORD PTR _kPacket$531924[ebp]
  001a2	e8 00 00 00 00	 call	 ??6SP2Packet@@QAEAAV0@ABUD3DXVECTOR3@@@Z ; SP2Packet::operator<<

; 617  : 			kPacket << m_szTargetName;

  001a7	81 c3 ac 08 00
	00		 add	 ebx, 2220		; 000008acH
  001ad	53		 push	 ebx
  001ae	8d 8d cc 7f ff
	ff		 lea	 ecx, DWORD PTR _kPacket$531924[ebp]
  001b4	e8 00 00 00 00	 call	 ??6SP2Packet@@QAEAAV0@ABVioHashString@@@Z ; SP2Packet::operator<<

; 618  : 			P2PNetwork::SendToAllPlayingUser( kPacket );

  001b9	8d 85 cc 7f ff
	ff		 lea	 eax, DWORD PTR _kPacket$531924[ebp]
  001bf	6a 00		 push	 0
  001c1	50		 push	 eax
  001c2	e8 00 00 00 00	 call	 ?SendToAllPlayingUser@P2PNetwork@@YAXAAVSP2Packet@@PAVioBaseChar@@@Z ; P2PNetwork::SendToAllPlayingUser

; 619  : 		}

  001c7	83 4d fc ff	 or	 DWORD PTR __$EHRec$[ebp+8], -1
  001cb	59		 pop	 ecx
  001cc	59		 pop	 ecx
  001cd	8d 8d cc 7f ff
	ff		 lea	 ecx, DWORD PTR _kPacket$531924[ebp]
  001d3	e8 00 00 00 00	 call	 ??1SP2Packet@@UAE@XZ	; SP2Packet::~SP2Packet
$LN7@SetWaitFly:

; 620  : 	}
; 621  : }

  001d8	8b 4d f4	 mov	 ecx, DWORD PTR __$EHRec$[ebp]
  001db	64 89 0d 00 00
	00 00		 mov	 DWORD PTR fs:0, ecx
  001e2	59		 pop	 ecx
  001e3	5f		 pop	 edi
  001e4	5e		 pop	 esi
  001e5	5b		 pop	 ebx
  001e6	8b 4d f0	 mov	 ecx, DWORD PTR __$ArrayPad$[ebp]
  001e9	33 cd		 xor	 ecx, ebp
  001eb	e8 00 00 00 00	 call	 @__security_check_cookie@4
  001f0	c9		 leave
  001f1	c2 08 00	 ret	 8
_TEXT	ENDS
;	COMDAT text$x
text$x	SEGMENT
__unwindfunclet$?SetWaitFlyMine@ioMineWeapon2@@QAEXPAVioPlayStage@@_N@Z$0:
  00000	8d 8d cc 7f ff
	ff		 lea	 ecx, DWORD PTR _kPacket$531924[ebp]
  00006	e9 00 00 00 00	 jmp	 ??1SP2Packet@@UAE@XZ	; SP2Packet::~SP2Packet
__ehhandler$?SetWaitFlyMine@ioMineWeapon2@@QAEXPAVioPlayStage@@_N@Z:
  0000b	8b 54 24 08	 mov	 edx, DWORD PTR [esp+8]
  0000f	8d 42 0c	 lea	 eax, DWORD PTR [edx+12]
  00012	8b 8a c4 7f ff
	ff		 mov	 ecx, DWORD PTR [edx-32828]
  00018	33 c8		 xor	 ecx, eax
  0001a	e8 00 00 00 00	 call	 @__security_check_cookie@4
  0001f	8b 4a fc	 mov	 ecx, DWORD PTR [edx-4]
  00022	33 c8		 xor	 ecx, eax
  00024	e8 00 00 00 00	 call	 @__security_check_cookie@4
  00029	b8 00 00 00 00	 mov	 eax, OFFSET __ehfuncinfo$?SetWaitFlyMine@ioMineWeapon2@@QAEXPAVioPlayStage@@_N@Z
  0002e	e9 00 00 00 00	 jmp	 ___CxxFrameHandler3
text$x	ENDS
?SetWaitFlyMine@ioMineWeapon2@@QAEXPAVioPlayStage@@_N@Z ENDP ; ioMineWeapon2::SetWaitFlyMine
PUBLIC	__$ArrayPad$
PUBLIC	?SetNormalDeadMine@ioMineWeapon2@@QAEXPAVioPlayStage@@_N@Z ; ioMineWeapon2::SetNormalDeadMine
EXTRN	?PlayExplosionSound@ioWeapon@@UAEXXZ:PROC	; ioWeapon::PlayExplosionSound
;	COMDAT xdata$x
; File d:\lost saga for developer\youtube\tutorial\source\src\lsclient\ioweapon.h
xdata$x	SEGMENT
__unwindtable$?SetNormalDeadMine@ioMineWeapon2@@QAEXPAVioPlayStage@@_N@Z DD 0ffffffffH
	DD	FLAT:__unwindfunclet$?SetNormalDeadMine@ioMineWeapon2@@QAEXPAVioPlayStage@@_N@Z$0
__ehfuncinfo$?SetNormalDeadMine@ioMineWeapon2@@QAEXPAVioPlayStage@@_N@Z DD 019930522H
	DD	01H
	DD	FLAT:__unwindtable$?SetNormalDeadMine@ioMineWeapon2@@QAEXPAVioPlayStage@@_N@Z
	DD	2 DUP(00H)
	DD	2 DUP(00H)
	DD	00H
	DD	01H
; Function compile flags: /Ogsp
; File d:\lost saga for developer\youtube\tutorial\source\src\lsclient\iomineweapon2.cpp
xdata$x	ENDS
;	COMDAT ?SetNormalDeadMine@ioMineWeapon2@@QAEXPAVioPlayStage@@_N@Z
_TEXT	SEGMENT
_kPacket$532028 = -32808				; size = 32792
__$ArrayPad$ = -16					; size = 4
__$EHRec$ = -12						; size = 12
_pStage$ = 8						; size = 4
_bSendNetwork$ = 12					; size = 1
?SetNormalDeadMine@ioMineWeapon2@@QAEXPAVioPlayStage@@_N@Z PROC ; ioMineWeapon2::SetNormalDeadMine, COMDAT
; _this$ = ecx

; 767  : {

  00000	55		 push	 ebp
  00001	8b ec		 mov	 ebp, esp
  00003	6a ff		 push	 -1
  00005	68 00 00 00 00	 push	 __ehhandler$?SetNormalDeadMine@ioMineWeapon2@@QAEXPAVioPlayStage@@_N@Z
  0000a	64 a1 00 00 00
	00		 mov	 eax, DWORD PTR fs:0
  00010	50		 push	 eax
  00011	b8 1c 80 00 00	 mov	 eax, 32796		; 0000801cH
  00016	e8 00 00 00 00	 call	 __chkstk
  0001b	a1 00 00 00 00	 mov	 eax, DWORD PTR ___security_cookie
  00020	33 c5		 xor	 eax, ebp
  00022	89 45 f0	 mov	 DWORD PTR __$ArrayPad$[ebp], eax
  00025	53		 push	 ebx
  00026	56		 push	 esi
  00027	57		 push	 edi
  00028	50		 push	 eax
  00029	8d 45 f4	 lea	 eax, DWORD PTR __$EHRec$[ebp]
  0002c	64 a3 00 00 00
	00		 mov	 DWORD PTR fs:0, eax
  00032	8b 5d 08	 mov	 ebx, DWORD PTR _pStage$[ebp]
  00035	8b f1		 mov	 esi, ecx

; 768  : 	if( m_State == MS_WAIT_EXPLOSION ||
; 769  : 		m_State == MS_EXPLOSION ||
; 770  : 		m_State == MS_NORMAL_DEAD )

  00037	8b 86 9c 0b 00
	00		 mov	 eax, DWORD PTR [esi+2972]
  0003d	83 f8 02	 cmp	 eax, 2
  00040	0f 84 e0 00 00
	00		 je	 $LN4@SetNormalD
  00046	83 f8 05	 cmp	 eax, 5
  00049	0f 84 d7 00 00
	00		 je	 $LN4@SetNormalD
  0004f	83 f8 06	 cmp	 eax, 6
  00052	0f 84 ce 00 00
	00		 je	 $LN4@SetNormalD

; 771  : 		return;
; 772  : 
; 773  : 	UpdateWorldAttackBox( 0.0f, true );

  00058	0f 57 c0	 xorps	 xmm0, xmm0
  0005b	8b 06		 mov	 eax, DWORD PTR [esi]
  0005d	6a 01		 push	 1
  0005f	51		 push	 ecx
  00060	f3 0f 11 04 24	 movss	 DWORD PTR [esp], xmm0
  00065	ff 90 38 01 00
	00		 call	 DWORD PTR [eax+312]

; 774  : 	if( !m_NormalDeadEffect.IsEmpty() )

  0006b	8d be a4 0a 00
	00		 lea	 edi, DWORD PTR [esi+2724]
  00071	8b cf		 mov	 ecx, edi
  00073	ff 15 00 00 00
	00		 call	 DWORD PTR __imp_?IsEmpty@ioHashString@@QBE_NXZ
  00079	84 c0		 test	 al, al
  0007b	75 1f		 jne	 SHORT $LN3@SetNormalD

; 775  : 	{
; 776  : 		pStage->CreateMapEffect( m_NormalDeadEffect,
; 777  : 			GetPosition(),
; 778  : 			GetScale() );

  0007d	8b ce		 mov	 ecx, esi
  0007f	e8 00 00 00 00	 call	 ?GetScale@ioWeapon@@QBEABUD3DXVECTOR3@@XZ ; ioWeapon::GetScale
  00084	50		 push	 eax
  00085	8b 06		 mov	 eax, DWORD PTR [esi]
  00087	8b ce		 mov	 ecx, esi
  00089	ff 50 70	 call	 DWORD PTR [eax+112]
  0008c	50		 push	 eax
  0008d	57		 push	 edi
  0008e	8b cb		 mov	 ecx, ebx
  00090	e8 00 00 00 00	 call	 ?CreateMapEffect@ioPlayStage@@QAEPAVioMapEffect@@ABVioHashString@@ABUD3DXVECTOR3@@1@Z ; ioPlayStage::CreateMapEffect

; 779  : 
; 780  : 		ioWeapon::PlayExplosionSound();

  00095	8b ce		 mov	 ecx, esi
  00097	e8 00 00 00 00	 call	 ?PlayExplosionSound@ioWeapon@@UAEXXZ ; ioWeapon::PlayExplosionSound
$LN3@SetNormalD:

; 781  : 	}
; 782  : 
; 783  : 	m_State = MS_NORMAL_DEAD;
; 784  : 
; 785  : 	if( bSendNetwork )

  0009c	80 7d 0c 00	 cmp	 BYTE PTR _bSendNetwork$[ebp], 0
  000a0	c7 86 9c 0b 00
	00 06 00 00 00	 mov	 DWORD PTR [esi+2972], 6
  000aa	74 7a		 je	 SHORT $LN4@SetNormalD

; 786  : 	{
; 787  : 		if( P2PNetwork::IsNetworkPlaying() && pStage->IsNetworkMode() )

  000ac	e8 00 00 00 00	 call	 ?IsNetworkPlaying@P2PNetwork@@YA_NXZ ; P2PNetwork::IsNetworkPlaying
  000b1	84 c0		 test	 al, al
  000b3	74 71		 je	 SHORT $LN4@SetNormalD
  000b5	8b cb		 mov	 ecx, ebx
  000b7	e8 00 00 00 00	 call	 ?IsNetworkMode@ioPlayStage@@QAE_NXZ ; ioPlayStage::IsNetworkMode
  000bc	84 c0		 test	 al, al
  000be	74 66		 je	 SHORT $LN4@SetNormalD

; 788  : 		{
; 789  : 			SP2Packet kPacket( CUPK_TRACE_MINE_NORMAL_DEAD );

  000c0	68 39 42 00 00	 push	 16953			; 00004239H
  000c5	8d 8d d8 7f ff
	ff		 lea	 ecx, DWORD PTR _kPacket$532028[ebp]
  000cb	e8 00 00 00 00	 call	 ??0SP2Packet@@QAE@K@Z	; SP2Packet::SP2Packet
  000d0	83 65 fc 00	 and	 DWORD PTR __$EHRec$[ebp+8], 0

; 790  : 			kPacket << GetOwnerName();

  000d4	8d 46 10	 lea	 eax, DWORD PTR [esi+16]
  000d7	50		 push	 eax
  000d8	8d 8d d8 7f ff
	ff		 lea	 ecx, DWORD PTR _kPacket$532028[ebp]
  000de	e8 00 00 00 00	 call	 ??6SP2Packet@@QAEAAV0@ABVioHashString@@@Z ; SP2Packet::operator<<

; 791  : 			kPacket << m_dwWeaponIdx;

  000e3	ff b6 b8 04 00
	00		 push	 DWORD PTR [esi+1208]
  000e9	8d 8d d8 7f ff
	ff		 lea	 ecx, DWORD PTR _kPacket$532028[ebp]
  000ef	e8 00 00 00 00	 call	 ??6SP2Packet@@QAEAAV0@K@Z ; SP2Packet::operator<<

; 792  : 			kPacket << GetPosition();

  000f4	8b 06		 mov	 eax, DWORD PTR [esi]
  000f6	8b ce		 mov	 ecx, esi
  000f8	ff 50 70	 call	 DWORD PTR [eax+112]
  000fb	50		 push	 eax
  000fc	8d 8d d8 7f ff
	ff		 lea	 ecx, DWORD PTR _kPacket$532028[ebp]
  00102	e8 00 00 00 00	 call	 ??6SP2Packet@@QAEAAV0@ABUD3DXVECTOR3@@@Z ; SP2Packet::operator<<

; 793  : 			P2PNetwork::SendToAllPlayingUser( kPacket );

  00107	8d 85 d8 7f ff
	ff		 lea	 eax, DWORD PTR _kPacket$532028[ebp]
  0010d	6a 00		 push	 0
  0010f	50		 push	 eax
  00110	e8 00 00 00 00	 call	 ?SendToAllPlayingUser@P2PNetwork@@YAXAAVSP2Packet@@PAVioBaseChar@@@Z ; P2PNetwork::SendToAllPlayingUser

; 794  : 		}

  00115	83 4d fc ff	 or	 DWORD PTR __$EHRec$[ebp+8], -1
  00119	59		 pop	 ecx
  0011a	59		 pop	 ecx
  0011b	8d 8d d8 7f ff
	ff		 lea	 ecx, DWORD PTR _kPacket$532028[ebp]
  00121	e8 00 00 00 00	 call	 ??1SP2Packet@@UAE@XZ	; SP2Packet::~SP2Packet
$LN4@SetNormalD:

; 795  : 	}
; 796  : }

  00126	8b 4d f4	 mov	 ecx, DWORD PTR __$EHRec$[ebp]
  00129	64 89 0d 00 00
	00 00		 mov	 DWORD PTR fs:0, ecx
  00130	59		 pop	 ecx
  00131	5f		 pop	 edi
  00132	5e		 pop	 esi
  00133	5b		 pop	 ebx
  00134	8b 4d f0	 mov	 ecx, DWORD PTR __$ArrayPad$[ebp]
  00137	33 cd		 xor	 ecx, ebp
  00139	e8 00 00 00 00	 call	 @__security_check_cookie@4
  0013e	c9		 leave
  0013f	c2 08 00	 ret	 8
_TEXT	ENDS
;	COMDAT text$x
text$x	SEGMENT
__unwindfunclet$?SetNormalDeadMine@ioMineWeapon2@@QAEXPAVioPlayStage@@_N@Z$0:
  00000	8d 8d d8 7f ff
	ff		 lea	 ecx, DWORD PTR _kPacket$532028[ebp]
  00006	e9 00 00 00 00	 jmp	 ??1SP2Packet@@UAE@XZ	; SP2Packet::~SP2Packet
__ehhandler$?SetNormalDeadMine@ioMineWeapon2@@QAEXPAVioPlayStage@@_N@Z:
  0000b	8b 54 24 08	 mov	 edx, DWORD PTR [esp+8]
  0000f	8d 42 0c	 lea	 eax, DWORD PTR [edx+12]
  00012	8b 8a d4 7f ff
	ff		 mov	 ecx, DWORD PTR [edx-32812]
  00018	33 c8		 xor	 ecx, eax
  0001a	e8 00 00 00 00	 call	 @__security_check_cookie@4
  0001f	8b 4a fc	 mov	 ecx, DWORD PTR [edx-4]
  00022	33 c8		 xor	 ecx, eax
  00024	e8 00 00 00 00	 call	 @__security_check_cookie@4
  00029	b8 00 00 00 00	 mov	 eax, OFFSET __ehfuncinfo$?SetNormalDeadMine@ioMineWeapon2@@QAEXPAVioPlayStage@@_N@Z
  0002e	e9 00 00 00 00	 jmp	 ___CxxFrameHandler3
text$x	ENDS
?SetNormalDeadMine@ioMineWeapon2@@QAEXPAVioPlayStage@@_N@Z ENDP ; ioMineWeapon2::SetNormalDeadMine
PUBLIC	__$ArrayPad$
PUBLIC	?TranslateByConveyer@ioMineWeapon2@@QAEXABUD3DXVECTOR3@@@Z ; ioMineWeapon2::TranslateByConveyer
EXTRN	__imp_?GetFrameCounter@ioFrameTimer@@QBEKXZ:PROC
; Function compile flags: /Ogsp
;	COMDAT ?TranslateByConveyer@ioMineWeapon2@@QAEXABUD3DXVECTOR3@@@Z
_TEXT	SEGMENT
$T532061 = -16						; size = 12
__$ArrayPad$ = -4					; size = 4
_vMoveAmt$ = 8						; size = 4
?TranslateByConveyer@ioMineWeapon2@@QAEXABUD3DXVECTOR3@@@Z PROC ; ioMineWeapon2::TranslateByConveyer, COMDAT
; _this$ = ecx

; 874  : {

  00000	55		 push	 ebp
  00001	8b ec		 mov	 ebp, esp
  00003	83 ec 10	 sub	 esp, 16			; 00000010H
  00006	a1 00 00 00 00	 mov	 eax, DWORD PTR ___security_cookie
  0000b	33 c5		 xor	 eax, ebp
  0000d	89 45 fc	 mov	 DWORD PTR __$ArrayPad$[ebp], eax
  00010	56		 push	 esi
  00011	8b f1		 mov	 esi, ecx

; 875  : 	if( m_State == MS_SENSING || MS_CHARGE )

  00013	83 be 9c 0b 00
	00 01		 cmp	 DWORD PTR [esi+2972], 1
  0001a	57		 push	 edi
  0001b	8b 7d 08	 mov	 edi, DWORD PTR _vMoveAmt$[ebp]
  0001e	75 79		 jne	 SHORT $LN2@TranslateB

; 876  : 	{
; 877  : 		SetPosition( GetPosition() + vMoveAmt );

  00020	8b 06		 mov	 eax, DWORD PTR [esi]
  00022	ff 50 70	 call	 DWORD PTR [eax+112]
  00025	f3 0f 10 48 04	 movss	 xmm1, DWORD PTR [eax+4]
  0002a	f3 0f 10 50 08	 movss	 xmm2, DWORD PTR [eax+8]
  0002f	f3 0f 10 47 04	 movss	 xmm0, DWORD PTR [edi+4]
  00034	f3 0f 10 18	 movss	 xmm3, DWORD PTR [eax]
  00038	0f 5a c9	 cvtps2pd xmm1, xmm1
  0003b	0f 5a c0	 cvtps2pd xmm0, xmm0
  0003e	f2 0f 58 c1	 addsd	 xmm0, xmm1
  00042	f3 0f 10 4f 08	 movss	 xmm1, DWORD PTR [edi+8]
  00047	0f 5a d2	 cvtps2pd xmm2, xmm2
  0004a	0f 5a c9	 cvtps2pd xmm1, xmm1
  0004d	f2 0f 58 ca	 addsd	 xmm1, xmm2
  00051	f3 0f 10 17	 movss	 xmm2, DWORD PTR [edi]
  00055	0f 5a d2	 cvtps2pd xmm2, xmm2
  00058	0f 5a db	 cvtps2pd xmm3, xmm3
  0005b	8d 45 f0	 lea	 eax, DWORD PTR $T532061[ebp]
  0005e	f2 0f 58 d3	 addsd	 xmm2, xmm3
  00062	66 0f 5a c0	 cvtpd2ps xmm0, xmm0
  00066	66 0f 5a c9	 cvtpd2ps xmm1, xmm1
  0006a	66 0f 5a d2	 cvtpd2ps xmm2, xmm2
  0006e	50		 push	 eax
  0006f	8b ce		 mov	 ecx, esi
  00071	f3 0f 11 55 f0	 movss	 DWORD PTR $T532061[ebp], xmm2
  00076	f3 0f 11 45 f4	 movss	 DWORD PTR $T532061[ebp+4], xmm0
  0007b	f3 0f 11 4d f8	 movss	 DWORD PTR $T532061[ebp+8], xmm1
  00080	e8 00 00 00 00	 call	 ?SetPosition@ioWeapon@@QAEXABUD3DXVECTOR3@@@Z ; ioWeapon::SetPosition

; 878  : 		m_iConveyerMoveFrameIdx = g_FrameTimer.GetFrameCounter();

  00085	ff 15 00 00 00
	00		 call	 DWORD PTR __imp_?GetSingleton@ioFrameTimer@@SAAAV1@XZ
  0008b	8b c8		 mov	 ecx, eax
  0008d	ff 15 00 00 00
	00		 call	 DWORD PTR __imp_?GetFrameCounter@ioFrameTimer@@QBEKXZ
  00093	89 86 ec 0b 00
	00		 mov	 DWORD PTR [esi+3052], eax
$LN2@TranslateB:

; 879  : 	}
; 880  : }

  00099	8b 4d fc	 mov	 ecx, DWORD PTR __$ArrayPad$[ebp]
  0009c	5f		 pop	 edi
  0009d	33 cd		 xor	 ecx, ebp
  0009f	5e		 pop	 esi
  000a0	e8 00 00 00 00	 call	 @__security_check_cookie@4
  000a5	c9		 leave
  000a6	c2 04 00	 ret	 4
?TranslateByConveyer@ioMineWeapon2@@QAEXABUD3DXVECTOR3@@@Z ENDP ; ioMineWeapon2::TranslateByConveyer
_TEXT	ENDS
PUBLIC	?IsCanMineExplosion@ioMineWeapon2@@UAE_NXZ	; ioMineWeapon2::IsCanMineExplosion
EXTRN	?HasPeculiarity@ioWeapon@@QBE_NK@Z:PROC		; ioWeapon::HasPeculiarity
; Function compile flags: /Ogsp
;	COMDAT ?IsCanMineExplosion@ioMineWeapon2@@UAE_NXZ
_TEXT	SEGMENT
?IsCanMineExplosion@ioMineWeapon2@@UAE_NXZ PROC		; ioMineWeapon2::IsCanMineExplosion, COMDAT
; _this$ = ecx

; 883  : {

  00000	56		 push	 esi
  00001	8b f1		 mov	 esi, ecx

; 884  : 	if( !IsLive() )	return false;

  00003	80 be 82 05 00
	00 00		 cmp	 BYTE PTR [esi+1410], 0
  0000a	74 39		 je	 SHORT $LN2@IsCanMineE

; 885  : 	if( m_bNoMineExplosion ) return false;

  0000c	80 be 66 0b 00
	00 00		 cmp	 BYTE PTR [esi+2918], 0
  00013	75 30		 jne	 SHORT $LN2@IsCanMineE

; 886  : 	if( !HasPeculiarity( WP_MINE_EXPLOSION ) )

  00015	6a 10		 push	 16			; 00000010H
  00017	e8 00 00 00 00	 call	 ?HasPeculiarity@ioWeapon@@QBE_NK@Z ; ioWeapon::HasPeculiarity
  0001c	84 c0		 test	 al, al

; 887  : 		return false;

  0001e	74 25		 je	 SHORT $LN2@IsCanMineE

; 888  : 
; 889  : 	ioBaseChar *pOwner = GetOwner();

  00020	8b ce		 mov	 ecx, esi
  00022	e8 00 00 00 00	 call	 ?GetOwner@ioWeapon@@QBEPAVioBaseChar@@XZ ; ioWeapon::GetOwner

; 890  : 	if( !pOwner || !pOwner->IsNeedProcess() )

  00027	85 c0		 test	 eax, eax
  00029	74 1a		 je	 SHORT $LN2@IsCanMineE
  0002b	8b 10		 mov	 edx, DWORD PTR [eax]
  0002d	8b c8		 mov	 ecx, eax
  0002f	ff 92 00 01 00
	00		 call	 DWORD PTR [edx+256]
  00035	84 c0		 test	 al, al
  00037	74 0c		 je	 SHORT $LN2@IsCanMineE

; 892  : 
; 893  : 	if( m_State != MS_EXPLOSION )

  00039	83 be 9c 0b 00
	00 05		 cmp	 DWORD PTR [esi+2972], 5
  00040	5e		 pop	 esi
  00041	0f 94 c0	 sete	 al

; 894  : 		return false;
; 895  : 
; 896  : 	return true;
; 897  : }

  00044	c3		 ret	 0
$LN2@IsCanMineE:

; 891  : 		return false;

  00045	32 c0		 xor	 al, al
  00047	5e		 pop	 esi

; 894  : 		return false;
; 895  : 
; 896  : 	return true;
; 897  : }

  00048	c3		 ret	 0
?IsCanMineExplosion@ioMineWeapon2@@UAE_NXZ ENDP		; ioMineWeapon2::IsCanMineExplosion
_TEXT	ENDS
PUBLIC	?IsCanExplosion@ioMineWeapon2@@QBE_NXZ		; ioMineWeapon2::IsCanExplosion
; Function compile flags: /Ogsp
;	COMDAT ?IsCanExplosion@ioMineWeapon2@@QBE_NXZ
_TEXT	SEGMENT
?IsCanExplosion@ioMineWeapon2@@QBE_NXZ PROC		; ioMineWeapon2::IsCanExplosion, COMDAT
; _this$ = ecx

; 901  : 	if( !IsLive() || m_State == MS_EXPLOSION )

  00000	80 b9 82 05 00
	00 00		 cmp	 BYTE PTR [ecx+1410], 0
  00007	74 12		 je	 SHORT $LN2@IsCanExplo
  00009	8b 89 9c 0b 00
	00		 mov	 ecx, DWORD PTR [ecx+2972]
  0000f	83 f9 05	 cmp	 ecx, 5
  00012	74 07		 je	 SHORT $LN2@IsCanExplo

; 903  : 
; 904  : 	if( m_State == MS_NORMAL_DEAD )

  00014	83 f9 06	 cmp	 ecx, 6
  00017	0f 95 c0	 setne	 al

; 905  : 		return false;
; 906  : 
; 907  : 	return true;
; 908  : }

  0001a	c3		 ret	 0
$LN2@IsCanExplo:

; 902  : 		return false;

  0001b	32 c0		 xor	 al, al

; 905  : 		return false;
; 906  : 
; 907  : 	return true;
; 908  : }

  0001d	c3		 ret	 0
?IsCanExplosion@ioMineWeapon2@@QBE_NXZ ENDP		; ioMineWeapon2::IsCanExplosion
_TEXT	ENDS
PUBLIC	?SetWeaponDead@ioMineWeapon2@@UAEXXZ		; ioMineWeapon2::SetWeaponDead
EXTRN	?SetWeaponDead@ioWeapon@@UAEXXZ:PROC		; ioWeapon::SetWeaponDead
EXTRN	?DestroyMapEffect@ioPlayStage@@QAEXK@Z:PROC	; ioPlayStage::DestroyMapEffect
EXTRN	?GetSingleton@ioWeaponManager@@SAAAV1@XZ:PROC	; ioWeaponManager::GetSingleton
; Function compile flags: /Ogsp
;	COMDAT ?SetWeaponDead@ioMineWeapon2@@UAEXXZ
_TEXT	SEGMENT
?SetWeaponDead@ioMineWeapon2@@UAEXXZ PROC		; ioMineWeapon2::SetWeaponDead, COMDAT
; _this$ = ecx

; 938  : {

  00000	57		 push	 edi
  00001	8b f9		 mov	 edi, ecx

; 939  : 	ioPlayStage* pStage = g_WeaponMgr.GetCreator();

  00003	e8 00 00 00 00	 call	 ?GetSingleton@ioWeaponManager@@SAAAV1@XZ ; ioWeaponManager::GetSingleton
  00008	8b 48 74	 mov	 ecx, DWORD PTR [eax+116]

; 940  : 	if( pStage )

  0000b	85 c9		 test	 ecx, ecx
  0000d	74 1a		 je	 SHORT $LN1@SetWeaponD

; 941  : 	{
; 942  : 		if( m_dwFireSprayEffect != -1 )

  0000f	8b 87 c4 0b 00
	00		 mov	 eax, DWORD PTR [edi+3012]
  00015	56		 push	 esi
  00016	83 f8 ff	 cmp	 eax, -1
  00019	74 0d		 je	 SHORT $LN7@SetWeaponD

; 943  : 		{
; 944  : 			pStage->DestroyMapEffect( m_dwFireSprayEffect );

  0001b	50		 push	 eax
  0001c	e8 00 00 00 00	 call	 ?DestroyMapEffect@ioPlayStage@@QAEXK@Z ; ioPlayStage::DestroyMapEffect

; 945  : 			m_dwFireSprayEffect = -1;

  00021	83 8f c4 0b 00
	00 ff		 or	 DWORD PTR [edi+3012], -1
$LN7@SetWeaponD:
  00028	5e		 pop	 esi
$LN1@SetWeaponD:

; 946  : 		}
; 947  : 	}
; 948  : 	
; 949  : 	ioWeapon::SetWeaponDead();

  00029	8b cf		 mov	 ecx, edi
  0002b	5f		 pop	 edi
  0002c	e9 00 00 00 00	 jmp	 ?SetWeaponDead@ioWeapon@@UAEXXZ ; ioWeapon::SetWeaponDead
?SetWeaponDead@ioMineWeapon2@@UAEXXZ ENDP		; ioMineWeapon2::SetWeaponDead
_TEXT	ENDS
PUBLIC	__$ArrayPad$
PUBLIC	?SetMoveDir@ioMineWeapon2@@UAEXABUD3DXVECTOR3@@@Z ; ioMineWeapon2::SetMoveDir
EXTRN	?SetOrientation@ioWeapon@@QAEXABUD3DXQUATERNION@@@Z:PROC ; ioWeapon::SetOrientation
EXTRN	__imp_?CalcDirectionQuaternion@ioMath@@SAXAAUD3DXQUATERNION@@ABUD3DXVECTOR3@@@Z:PROC
EXTRN	__imp_?VEC3_ZERO@ioMath@@2UD3DXVECTOR3@@A:BYTE
; Function compile flags: /Ogsp
;	COMDAT ?SetMoveDir@ioMineWeapon2@@UAEXABUD3DXVECTOR3@@@Z
_TEXT	SEGMENT
_qtRot$ = -32						; size = 16
$T532099 = -16						; size = 12
__$ArrayPad$ = -4					; size = 4
_vDir$ = 8						; size = 4
?SetMoveDir@ioMineWeapon2@@UAEXABUD3DXVECTOR3@@@Z PROC	; ioMineWeapon2::SetMoveDir, COMDAT
; _this$ = ecx

; 953  : {

  00000	55		 push	 ebp
  00001	8b ec		 mov	 ebp, esp
  00003	83 ec 20	 sub	 esp, 32			; 00000020H
  00006	a1 00 00 00 00	 mov	 eax, DWORD PTR ___security_cookie
  0000b	33 c5		 xor	 eax, ebp
  0000d	89 45 fc	 mov	 DWORD PTR __$ArrayPad$[ebp], eax
  00010	8b 55 08	 mov	 edx, DWORD PTR _vDir$[ebp]
  00013	53		 push	 ebx
  00014	8b d9		 mov	 ebx, ecx

; 954  : 	if( m_vMoveDir != ioMath::VEC3_ZERO )

  00016	8b 0d 00 00 00
	00		 mov	 ecx, DWORD PTR __imp_?VEC3_ZERO@ioMath@@2UD3DXVECTOR3@@A
  0001c	f3 0f 10 09	 movss	 xmm1, DWORD PTR [ecx]
  00020	57		 push	 edi
  00021	8d bb c8 08 00
	00		 lea	 edi, DWORD PTR [ebx+2248]
  00027	f3 0f 10 07	 movss	 xmm0, DWORD PTR [edi]
  0002b	0f 5a c0	 cvtps2pd xmm0, xmm0
  0002e	0f 5a c9	 cvtps2pd xmm1, xmm1
  00031	66 0f 2e c1	 ucomisd xmm0, xmm1
  00035	9f		 lahf
  00036	f6 c4 44	 test	 ah, 68			; 00000044H
  00039	0f 8a 84 00 00
	00		 jp	 $LN2@SetMoveDir
  0003f	f3 0f 10 47 04	 movss	 xmm0, DWORD PTR [edi+4]
  00044	f3 0f 10 49 04	 movss	 xmm1, DWORD PTR [ecx+4]
  00049	0f 5a c0	 cvtps2pd xmm0, xmm0
  0004c	0f 5a c9	 cvtps2pd xmm1, xmm1
  0004f	66 0f 2e c1	 ucomisd xmm0, xmm1
  00053	9f		 lahf
  00054	f6 c4 44	 test	 ah, 68			; 00000044H
  00057	7a 6a		 jp	 SHORT $LN2@SetMoveDir
  00059	f3 0f 10 47 08	 movss	 xmm0, DWORD PTR [edi+8]
  0005e	f3 0f 10 49 08	 movss	 xmm1, DWORD PTR [ecx+8]
  00063	0f 5a c0	 cvtps2pd xmm0, xmm0
  00066	0f 5a c9	 cvtps2pd xmm1, xmm1
  00069	66 0f 2e c1	 ucomisd xmm0, xmm1
  0006d	9f		 lahf
  0006e	f6 c4 44	 test	 ah, 68			; 00000044H
  00071	7a 50		 jp	 SHORT $LN2@SetMoveDir

; 955  : 		return;
; 956  : 
; 957  : 	m_vMoveDir = vDir;

  00073	56		 push	 esi
  00074	8b f2		 mov	 esi, edx
  00076	a5		 movsd
  00077	a5		 movsd
  00078	a5		 movsd

; 958  : 
; 959  : 	D3DXQUATERNION qtRot;
; 960  : 	ioMath::CalcDirectionQuaternion( qtRot, -vDir );

  00079	f3 0f 10 05 00
	00 00 00	 movss	 xmm0, DWORD PTR __mask@@NegFloat@
  00081	f3 0f 10 0a	 movss	 xmm1, DWORD PTR [edx]
  00085	0f 57 c8	 xorps	 xmm1, xmm0
  00088	f3 0f 11 4d f0	 movss	 DWORD PTR $T532099[ebp], xmm1
  0008d	f3 0f 10 4a 04	 movss	 xmm1, DWORD PTR [edx+4]
  00092	0f 57 c8	 xorps	 xmm1, xmm0
  00095	8d 45 f0	 lea	 eax, DWORD PTR $T532099[ebp]
  00098	50		 push	 eax
  00099	f3 0f 11 4d f4	 movss	 DWORD PTR $T532099[ebp+4], xmm1
  0009e	f3 0f 10 4a 08	 movss	 xmm1, DWORD PTR [edx+8]
  000a3	8d 45 e0	 lea	 eax, DWORD PTR _qtRot$[ebp]
  000a6	0f 57 c8	 xorps	 xmm1, xmm0
  000a9	50		 push	 eax
  000aa	f3 0f 11 4d f8	 movss	 DWORD PTR $T532099[ebp+8], xmm1
  000af	ff 15 00 00 00
	00		 call	 DWORD PTR __imp_?CalcDirectionQuaternion@ioMath@@SAXAAUD3DXQUATERNION@@ABUD3DXVECTOR3@@@Z
  000b5	59		 pop	 ecx
  000b6	59		 pop	 ecx

; 961  : 	SetOrientation( qtRot );

  000b7	8d 45 e0	 lea	 eax, DWORD PTR _qtRot$[ebp]
  000ba	50		 push	 eax
  000bb	8b cb		 mov	 ecx, ebx
  000bd	e8 00 00 00 00	 call	 ?SetOrientation@ioWeapon@@QAEXABUD3DXQUATERNION@@@Z ; ioWeapon::SetOrientation
  000c2	5e		 pop	 esi
$LN2@SetMoveDir:

; 962  : }

  000c3	8b 4d fc	 mov	 ecx, DWORD PTR __$ArrayPad$[ebp]
  000c6	5f		 pop	 edi
  000c7	33 cd		 xor	 ecx, ebp
  000c9	5b		 pop	 ebx
  000ca	e8 00 00 00 00	 call	 @__security_check_cookie@4
  000cf	c9		 leave
  000d0	c2 04 00	 ret	 4
?SetMoveDir@ioMineWeapon2@@UAEXABUD3DXVECTOR3@@@Z ENDP	; ioMineWeapon2::SetMoveDir
_TEXT	ENDS
PUBLIC	?DestroyResource@ioMineWeapon2@@UAEXPAVioPlayStage@@@Z ; ioMineWeapon2::DestroyResource
EXTRN	__imp_?GetSceneMgr@ioSceneNode@@QAEPAVioSceneManager@@XZ:PROC
; Function compile flags: /Ogsp
;	COMDAT ?DestroyResource@ioMineWeapon2@@UAEXPAVioPlayStage@@@Z
_TEXT	SEGMENT
_pStage$ = 8						; size = 4
?DestroyResource@ioMineWeapon2@@UAEXPAVioPlayStage@@@Z PROC ; ioMineWeapon2::DestroyResource, COMDAT
; _this$ = ecx

; 965  : {

  00000	56		 push	 esi
  00001	8b f1		 mov	 esi, ecx

; 966  : 	if( m_pMine )

  00003	83 be 94 08 00
	00 00		 cmp	 DWORD PTR [esi+2196], 0
  0000a	74 1d		 je	 SHORT $LN1@DestroyRes

; 967  : 	{
; 968  : 		GetParentSceneNode()->GetSceneMgr()->DestroyEntityGrp( m_pMine );

  0000c	8b 4e 04	 mov	 ecx, DWORD PTR [esi+4]
  0000f	ff 15 00 00 00
	00		 call	 DWORD PTR __imp_?GetSceneMgr@ioSceneNode@@QAEPAVioSceneManager@@XZ
  00015	ff b6 94 08 00
	00		 push	 DWORD PTR [esi+2196]
  0001b	8b 10		 mov	 edx, DWORD PTR [eax]
  0001d	8b c8		 mov	 ecx, eax
  0001f	ff 52 38	 call	 DWORD PTR [edx+56]

; 969  : 		m_pMine = NULL;

  00022	83 a6 94 08 00
	00 00		 and	 DWORD PTR [esi+2196], 0
$LN1@DestroyRes:
  00029	5e		 pop	 esi

; 970  : 	}
; 971  : }

  0002a	c2 04 00	 ret	 4
?DestroyResource@ioMineWeapon2@@UAEXPAVioPlayStage@@@Z ENDP ; ioMineWeapon2::DestroyResource
_TEXT	ENDS
PUBLIC	??D?$CEncrypt@M@@QAEMABM@Z			; CEncrypt<float>::operator*
; Function compile flags: /Ogsp
; File d:\lost saga for developer\youtube\tutorial\source\src\lsclient\encryptvalue.h
;	COMDAT ??D?$CEncrypt@M@@QAEMABM@Z
_TEXT	SEGMENT
_value$ = -4						; size = 4
tv130 = 8						; size = 4
_inValue$ = 8						; size = 4
??D?$CEncrypt@M@@QAEMABM@Z PROC				; CEncrypt<float>::operator*, COMDAT
; _this$ = ecx

; 1685 : 	{	

  00000	55		 push	 ebp
  00001	8b ec		 mov	 ebp, esp
  00003	51		 push	 ecx

; 1686 : 		type value;
; 1687 : 		DecryptValueToPool(&value);

  00004	8d 45 fc	 lea	 eax, DWORD PTR _value$[ebp]
  00007	50		 push	 eax
  00008	e8 00 00 00 00	 call	 ?DecryptValueToPool@?$CEncrypt@M@@QAEXPAM@Z ; CEncrypt<float>::DecryptValueToPool

; 1688 : #ifdef _NOTUSE
; 1689 : 		Debug();
; 1690 : #endif
; 1691 : 		return value * inValue;

  0000d	8b 45 08	 mov	 eax, DWORD PTR _inValue$[ebp]
  00010	d9 00		 fld	 DWORD PTR [eax]
  00012	d8 4d fc	 fmul	 DWORD PTR _value$[ebp]
  00015	d9 5d 08	 fstp	 DWORD PTR tv130[ebp]
  00018	d9 45 08	 fld	 DWORD PTR tv130[ebp]

; 1692 : 	}

  0001b	c9		 leave
  0001c	c2 04 00	 ret	 4
??D?$CEncrypt@M@@QAEMABM@Z ENDP				; CEncrypt<float>::operator*
_TEXT	ENDS
PUBLIC	?begin@?$vector@PAVioBaseChar@@V?$allocator@PAVioBaseChar@@@std@@@std@@QBE?AV?$_Vector_const_iterator@V?$_Vector_val@PAVioBaseChar@@V?$allocator@PAVioBaseChar@@@std@@@std@@@2@XZ ; std::vector<ioBaseChar *,std::allocator<ioBaseChar *> >::begin
; Function compile flags: /Ogsp
; File c:\program files (x86)\microsoft visual studio 10.0\vc\include\vector
;	COMDAT ?begin@?$vector@PAVioBaseChar@@V?$allocator@PAVioBaseChar@@@std@@@std@@QBE?AV?$_Vector_const_iterator@V?$_Vector_val@PAVioBaseChar@@V?$allocator@PAVioBaseChar@@@std@@@std@@@2@XZ
_TEXT	SEGMENT
___$ReturnUdt$ = 8					; size = 4
?begin@?$vector@PAVioBaseChar@@V?$allocator@PAVioBaseChar@@@std@@@std@@QBE?AV?$_Vector_const_iterator@V?$_Vector_val@PAVioBaseChar@@V?$allocator@PAVioBaseChar@@@std@@@std@@@2@XZ PROC ; std::vector<ioBaseChar *,std::allocator<ioBaseChar *> >::begin, COMDAT
; _this$ = ecx

; 786  : 		{	// return iterator for beginning of nonmutable sequence

  00000	55		 push	 ebp
  00001	8b ec		 mov	 ebp, esp

; 787  : 		return (const_iterator(this->_Myfirst, this));

  00003	8b 09		 mov	 ecx, DWORD PTR [ecx]
  00005	8b 45 08	 mov	 eax, DWORD PTR ___$ReturnUdt$[ebp]
  00008	89 08		 mov	 DWORD PTR [eax], ecx

; 788  : 		}

  0000a	5d		 pop	 ebp
  0000b	c2 04 00	 ret	 4
?begin@?$vector@PAVioBaseChar@@V?$allocator@PAVioBaseChar@@@std@@@std@@QBE?AV?$_Vector_const_iterator@V?$_Vector_val@PAVioBaseChar@@V?$allocator@PAVioBaseChar@@@std@@@std@@@2@XZ ENDP ; std::vector<ioBaseChar *,std::allocator<ioBaseChar *> >::begin
_TEXT	ENDS
PUBLIC	?end@?$vector@PAVioBaseChar@@V?$allocator@PAVioBaseChar@@@std@@@std@@QBE?AV?$_Vector_const_iterator@V?$_Vector_val@PAVioBaseChar@@V?$allocator@PAVioBaseChar@@@std@@@std@@@2@XZ ; std::vector<ioBaseChar *,std::allocator<ioBaseChar *> >::end
; Function compile flags: /Ogsp
;	COMDAT ?end@?$vector@PAVioBaseChar@@V?$allocator@PAVioBaseChar@@@std@@@std@@QBE?AV?$_Vector_const_iterator@V?$_Vector_val@PAVioBaseChar@@V?$allocator@PAVioBaseChar@@@std@@@std@@@2@XZ
_TEXT	SEGMENT
___$ReturnUdt$ = 8					; size = 4
?end@?$vector@PAVioBaseChar@@V?$allocator@PAVioBaseChar@@@std@@@std@@QBE?AV?$_Vector_const_iterator@V?$_Vector_val@PAVioBaseChar@@V?$allocator@PAVioBaseChar@@@std@@@std@@@2@XZ PROC ; std::vector<ioBaseChar *,std::allocator<ioBaseChar *> >::end, COMDAT
; _this$ = ecx

; 796  : 		{	// return iterator for end of nonmutable sequence

  00000	55		 push	 ebp
  00001	8b ec		 mov	 ebp, esp

; 797  : 		return (const_iterator(this->_Mylast, this));

  00003	8b 49 04	 mov	 ecx, DWORD PTR [ecx+4]
  00006	8b 45 08	 mov	 eax, DWORD PTR ___$ReturnUdt$[ebp]
  00009	89 08		 mov	 DWORD PTR [eax], ecx

; 798  : 		}

  0000b	5d		 pop	 ebp
  0000c	c2 04 00	 ret	 4
?end@?$vector@PAVioBaseChar@@V?$allocator@PAVioBaseChar@@@std@@@std@@QBE?AV?$_Vector_const_iterator@V?$_Vector_val@PAVioBaseChar@@V?$allocator@PAVioBaseChar@@@std@@@std@@@2@XZ ENDP ; std::vector<ioBaseChar *,std::allocator<ioBaseChar *> >::end
_TEXT	ENDS
PUBLIC	??B?$CEncrypt@W4ProtectionMode@@@@QAE?AW4ProtectionMode@@XZ ; CEncrypt<enum ProtectionMode>::operator enum ProtectionMode
; Function compile flags: /Ogsp
; File d:\lost saga for developer\youtube\tutorial\source\src\lsclient\encryptvalue.h
;	COMDAT ??B?$CEncrypt@W4ProtectionMode@@@@QAE?AW4ProtectionMode@@XZ
_TEXT	SEGMENT
_value$ = -4						; size = 4
??B?$CEncrypt@W4ProtectionMode@@@@QAE?AW4ProtectionMode@@XZ PROC ; CEncrypt<enum ProtectionMode>::operator enum ProtectionMode, COMDAT
; _this$ = ecx

; 134  : 	{

  00000	55		 push	 ebp
  00001	8b ec		 mov	 ebp, esp
  00003	51		 push	 ecx

; 135  : 		type value;
; 136  : 		DecryptValueToPool(&value);

  00004	8d 45 fc	 lea	 eax, DWORD PTR _value$[ebp]
  00007	50		 push	 eax
  00008	e8 00 00 00 00	 call	 ?DecryptValueToPool@?$CEncrypt@W4ProtectionMode@@@@QAEXPAW4ProtectionMode@@@Z ; CEncrypt<enum ProtectionMode>::DecryptValueToPool

; 137  : 
; 138  : #ifdef _NOTUSE
; 139  : 		Debug();
; 140  : #endif
; 141  : 		return value;

  0000d	8b 45 fc	 mov	 eax, DWORD PTR _value$[ebp]

; 142  : 	}

  00010	c9		 leave
  00011	c3		 ret	 0
??B?$CEncrypt@W4ProtectionMode@@@@QAE?AW4ProtectionMode@@XZ ENDP ; CEncrypt<enum ProtectionMode>::operator enum ProtectionMode
_TEXT	ENDS
PUBLIC	??8?$_Vector_const_iterator@V?$_Vector_val@PAVioBaseChar@@V?$allocator@PAVioBaseChar@@@std@@@std@@@std@@QBE_NABV01@@Z ; std::_Vector_const_iterator<std::_Vector_val<ioBaseChar *,std::allocator<ioBaseChar *> > >::operator==
; Function compile flags: /Ogsp
; File c:\program files (x86)\microsoft visual studio 10.0\vc\include\vector
;	COMDAT ??8?$_Vector_const_iterator@V?$_Vector_val@PAVioBaseChar@@V?$allocator@PAVioBaseChar@@@std@@@std@@@std@@QBE_NABV01@@Z
_TEXT	SEGMENT
__Right$ = 8						; size = 4
??8?$_Vector_const_iterator@V?$_Vector_val@PAVioBaseChar@@V?$allocator@PAVioBaseChar@@@std@@@std@@@std@@QBE_NABV01@@Z PROC ; std::_Vector_const_iterator<std::_Vector_val<ioBaseChar *,std::allocator<ioBaseChar *> > >::operator==, COMDAT
; _this$ = ecx

; 201  : 		{	// test for iterator equality

  00000	55		 push	 ebp
  00001	8b ec		 mov	 ebp, esp

; 202  : 		_Compat(_Right);
; 203  : 		return (this->_Ptr == _Right._Ptr);

  00003	8b 01		 mov	 eax, DWORD PTR [ecx]
  00005	8b 4d 08	 mov	 ecx, DWORD PTR __Right$[ebp]
  00008	2b 01		 sub	 eax, DWORD PTR [ecx]
  0000a	f7 d8		 neg	 eax
  0000c	1b c0		 sbb	 eax, eax
  0000e	40		 inc	 eax

; 204  : 		}

  0000f	5d		 pop	 ebp
  00010	c2 04 00	 ret	 4
??8?$_Vector_const_iterator@V?$_Vector_val@PAVioBaseChar@@V?$allocator@PAVioBaseChar@@@std@@@std@@@std@@QBE_NABV01@@Z ENDP ; std::_Vector_const_iterator<std::_Vector_val<ioBaseChar *,std::allocator<ioBaseChar *> > >::operator==
_TEXT	ENDS
PUBLIC	_this$GSCopy$
PUBLIC	__$ArrayPad$
PUBLIC	??$LoadString_e@$0BA@@ioINILoader@@QAEXAAY0BA@$$CBDAAY00$$CBDPADH@Z ; ioINILoader::LoadString_e<16>
EXTRN	__imp_?LoadStringA@ioINILoader@@QAEXPBD0PADH@Z:PROC
; Function compile flags: /Ogsp
; File d:\lost saga for developer\youtube\tutorial\source\src\io3dengine\ioiniloader.h
;	COMDAT ??$LoadString_e@$0BA@@ioINILoader@@QAEXAAY0BA@$$CBDAAY00$$CBDPADH@Z
_TEXT	SEGMENT
_this$GSCopy$ = -28					; size = 4
__k$ = -24						; size = 16
__$ArrayPad$ = -4					; size = 4
_k$ = 8							; size = 4
_d$ = 12						; size = 4
_b$ = 16						; size = 4
_i$ = 20						; size = 4
??$LoadString_e@$0BA@@ioINILoader@@QAEXAAY0BA@$$CBDAAY00$$CBDPADH@Z PROC ; ioINILoader::LoadString_e<16>, COMDAT
; _this$ = ecx

; 161  : 	{

  00000	55		 push	 ebp
  00001	8b ec		 mov	 ebp, esp
  00003	83 ec 1c	 sub	 esp, 28			; 0000001cH
  00006	a1 00 00 00 00	 mov	 eax, DWORD PTR ___security_cookie
  0000b	33 c5		 xor	 eax, ebp
  0000d	89 45 fc	 mov	 DWORD PTR __$ArrayPad$[ebp], eax
  00010	8b 45 08	 mov	 eax, DWORD PTR _k$[ebp]

; 162  : 		_ENCSTR(k, _k);

  00013	8a 10		 mov	 dl, BYTE PTR [eax]
  00015	56		 push	 esi
  00016	8b 75 0c	 mov	 esi, DWORD PTR _d$[ebp]
  00019	57		 push	 edi
  0001a	8b 7d 10	 mov	 edi, DWORD PTR _b$[ebp]
  0001d	89 4d e4	 mov	 DWORD PTR _this$GSCopy$[ebp], ecx
  00020	84 d2		 test	 dl, dl
  00022	0f 84 8c 01 00
	00		 je	 $LN96@LoadString
  00028	80 f2 ed	 xor	 dl, -19			; ffffffedH
  0002b	88 55 e8	 mov	 BYTE PTR __k$[ebp], dl
  0002e	8a 50 01	 mov	 dl, BYTE PTR [eax+1]
  00031	84 d2		 test	 dl, dl
  00033	0f 84 75 01 00
	00		 je	 $LN95@LoadString
  00039	80 f2 ec	 xor	 dl, -20			; ffffffecH
  0003c	88 55 e9	 mov	 BYTE PTR __k$[ebp+1], dl
  0003f	8a 50 02	 mov	 dl, BYTE PTR [eax+2]
  00042	84 d2		 test	 dl, dl
  00044	0f 84 5e 01 00
	00		 je	 $LN94@LoadString
  0004a	b1 eb		 mov	 cl, -21			; ffffffebH
  0004c	32 d1		 xor	 dl, cl
  0004e	88 55 ea	 mov	 BYTE PTR __k$[ebp+2], dl
  00051	8a 50 03	 mov	 dl, BYTE PTR [eax+3]
  00054	84 d2		 test	 dl, dl
  00056	0f 84 46 01 00
	00		 je	 $LN93@LoadString
  0005c	80 f2 ea	 xor	 dl, -22			; ffffffeaH
  0005f	88 55 eb	 mov	 BYTE PTR __k$[ebp+3], dl
  00062	8a 50 04	 mov	 dl, BYTE PTR [eax+4]
  00065	84 d2		 test	 dl, dl
  00067	0f 84 2f 01 00
	00		 je	 $LN92@LoadString
  0006d	80 f2 ed	 xor	 dl, -19			; ffffffedH
  00070	88 55 ec	 mov	 BYTE PTR __k$[ebp+4], dl
  00073	8a 50 05	 mov	 dl, BYTE PTR [eax+5]
  00076	84 d2		 test	 dl, dl
  00078	0f 84 18 01 00
	00		 je	 $LN91@LoadString
  0007e	80 f2 ec	 xor	 dl, -20			; ffffffecH
  00081	88 55 ed	 mov	 BYTE PTR __k$[ebp+5], dl
  00084	8a 50 06	 mov	 dl, BYTE PTR [eax+6]
  00087	84 d2		 test	 dl, dl
  00089	0f 84 02 01 00
	00		 je	 $LN90@LoadString
  0008f	32 d1		 xor	 dl, cl
  00091	88 55 ee	 mov	 BYTE PTR __k$[ebp+6], dl
  00094	8a 50 07	 mov	 dl, BYTE PTR [eax+7]
  00097	84 d2		 test	 dl, dl
  00099	0f 84 ec 00 00
	00		 je	 $LN89@LoadString
  0009f	80 f2 ea	 xor	 dl, -22			; ffffffeaH
  000a2	88 55 ef	 mov	 BYTE PTR __k$[ebp+7], dl
  000a5	8a 50 08	 mov	 dl, BYTE PTR [eax+8]
  000a8	84 d2		 test	 dl, dl
  000aa	0f 84 d5 00 00
	00		 je	 $LN88@LoadString
  000b0	80 f2 ed	 xor	 dl, -19			; ffffffedH
  000b3	88 55 f0	 mov	 BYTE PTR __k$[ebp+8], dl
  000b6	8a 50 09	 mov	 dl, BYTE PTR [eax+9]
  000b9	84 d2		 test	 dl, dl
  000bb	0f 84 be 00 00
	00		 je	 $LN87@LoadString
  000c1	80 f2 ec	 xor	 dl, -20			; ffffffecH
  000c4	88 55 f1	 mov	 BYTE PTR __k$[ebp+9], dl
  000c7	8a 50 0a	 mov	 dl, BYTE PTR [eax+10]
  000ca	84 d2		 test	 dl, dl
  000cc	0f 84 a8 00 00
	00		 je	 $LN86@LoadString
  000d2	32 d1		 xor	 dl, cl
  000d4	88 55 f2	 mov	 BYTE PTR __k$[ebp+10], dl
  000d7	8a 50 0b	 mov	 dl, BYTE PTR [eax+11]
  000da	84 d2		 test	 dl, dl
  000dc	0f 84 92 00 00
	00		 je	 $LN85@LoadString
  000e2	80 f2 ea	 xor	 dl, -22			; ffffffeaH
  000e5	88 55 f3	 mov	 BYTE PTR __k$[ebp+11], dl
  000e8	8a 50 0c	 mov	 dl, BYTE PTR [eax+12]
  000eb	84 d2		 test	 dl, dl
  000ed	74 7f		 je	 SHORT $LN84@LoadString
  000ef	80 f2 ed	 xor	 dl, -19			; ffffffedH
  000f2	88 55 f4	 mov	 BYTE PTR __k$[ebp+12], dl
  000f5	8a 50 0d	 mov	 dl, BYTE PTR [eax+13]
  000f8	84 d2		 test	 dl, dl
  000fa	74 6c		 je	 SHORT $LN83@LoadString
  000fc	80 f2 ec	 xor	 dl, -20			; ffffffecH
  000ff	88 55 f5	 mov	 BYTE PTR __k$[ebp+13], dl
  00102	8a 50 0e	 mov	 dl, BYTE PTR [eax+14]
  00105	84 d2		 test	 dl, dl
  00107	74 5a		 je	 SHORT $LN82@LoadString
  00109	32 d1		 xor	 dl, cl
  0010b	80 78 0f 00	 cmp	 BYTE PTR [eax+15], 0
  0010f	88 55 f6	 mov	 BYTE PTR __k$[ebp+14], dl
  00112	0f 84 a0 00 00
	00		 je	 $LN111@LoadString
  00118	8a 50 10	 mov	 dl, BYTE PTR [eax+16]
  0011b	84 d2		 test	 dl, dl
  0011d	74 3e		 je	 SHORT $LN80@LoadString
  0011f	80 f2 ed	 xor	 dl, -19			; ffffffedH
  00122	88 55 f8	 mov	 BYTE PTR __k$[ebp+16], dl
  00125	8a 50 11	 mov	 dl, BYTE PTR [eax+17]
  00128	84 d2		 test	 dl, dl
  0012a	74 2b		 je	 SHORT $LN79@LoadString
  0012c	80 f2 ec	 xor	 dl, -20			; ffffffecH
  0012f	88 55 f9	 mov	 BYTE PTR __k$[ebp+17], dl
  00132	8a 50 12	 mov	 dl, BYTE PTR [eax+18]
  00135	84 d2		 test	 dl, dl
  00137	74 19		 je	 SHORT $LN78@LoadString
  00139	8a 40 13	 mov	 al, BYTE PTR [eax+19]
  0013c	32 d1		 xor	 dl, cl
  0013e	88 55 fa	 mov	 BYTE PTR __k$[ebp+18], dl
  00141	84 c0		 test	 al, al
  00143	74 07		 je	 SHORT $LN77@LoadString
  00145	34 ea		 xor	 al, -22			; ffffffeaH
  00147	88 45 fb	 mov	 BYTE PTR __k$[ebp+19], al
  0014a	eb 6c		 jmp	 SHORT $LN111@LoadString
$LN77@LoadString:
  0014c	c6 45 fb ea	 mov	 BYTE PTR __k$[ebp+19], -22 ; ffffffeaH
  00150	eb 66		 jmp	 SHORT $LN111@LoadString
$LN78@LoadString:
  00152	88 4d fa	 mov	 BYTE PTR __k$[ebp+18], cl
  00155	eb 61		 jmp	 SHORT $LN111@LoadString
$LN79@LoadString:
  00157	c6 45 f9 ec	 mov	 BYTE PTR __k$[ebp+17], -20 ; ffffffecH
  0015b	eb 5b		 jmp	 SHORT $LN111@LoadString
$LN80@LoadString:
  0015d	c6 45 f8 ed	 mov	 BYTE PTR __k$[ebp+16], -19 ; ffffffedH
  00161	eb 55		 jmp	 SHORT $LN111@LoadString
$LN82@LoadString:
  00163	88 4d f6	 mov	 BYTE PTR __k$[ebp+14], cl
  00166	eb 50		 jmp	 SHORT $LN111@LoadString
$LN83@LoadString:
  00168	c6 45 f5 ec	 mov	 BYTE PTR __k$[ebp+13], -20 ; ffffffecH
  0016c	eb 4a		 jmp	 SHORT $LN111@LoadString
$LN84@LoadString:
  0016e	c6 45 f4 ed	 mov	 BYTE PTR __k$[ebp+12], -19 ; ffffffedH
  00172	eb 44		 jmp	 SHORT $LN111@LoadString
$LN85@LoadString:
  00174	c6 45 f3 ea	 mov	 BYTE PTR __k$[ebp+11], -22 ; ffffffeaH
  00178	eb 3e		 jmp	 SHORT $LN111@LoadString
$LN86@LoadString:
  0017a	88 4d f2	 mov	 BYTE PTR __k$[ebp+10], cl
  0017d	eb 39		 jmp	 SHORT $LN111@LoadString
$LN87@LoadString:
  0017f	c6 45 f1 ec	 mov	 BYTE PTR __k$[ebp+9], -20 ; ffffffecH
  00183	eb 33		 jmp	 SHORT $LN111@LoadString
$LN88@LoadString:
  00185	c6 45 f0 ed	 mov	 BYTE PTR __k$[ebp+8], -19 ; ffffffedH
  00189	eb 2d		 jmp	 SHORT $LN111@LoadString
$LN89@LoadString:
  0018b	c6 45 ef ea	 mov	 BYTE PTR __k$[ebp+7], -22 ; ffffffeaH
  0018f	eb 27		 jmp	 SHORT $LN111@LoadString
$LN90@LoadString:
  00191	88 4d ee	 mov	 BYTE PTR __k$[ebp+6], cl
  00194	eb 22		 jmp	 SHORT $LN111@LoadString
$LN91@LoadString:
  00196	c6 45 ed ec	 mov	 BYTE PTR __k$[ebp+5], -20 ; ffffffecH
  0019a	eb 1c		 jmp	 SHORT $LN111@LoadString
$LN92@LoadString:
  0019c	c6 45 ec ed	 mov	 BYTE PTR __k$[ebp+4], -19 ; ffffffedH
  001a0	eb 16		 jmp	 SHORT $LN111@LoadString
$LN93@LoadString:
  001a2	c6 45 eb ea	 mov	 BYTE PTR __k$[ebp+3], -22 ; ffffffeaH
  001a6	eb 10		 jmp	 SHORT $LN111@LoadString
$LN94@LoadString:
  001a8	c6 45 ea eb	 mov	 BYTE PTR __k$[ebp+2], -21 ; ffffffebH
  001ac	eb 0a		 jmp	 SHORT $LN111@LoadString
$LN95@LoadString:
  001ae	c6 45 e9 ec	 mov	 BYTE PTR __k$[ebp+1], -20 ; ffffffecH
  001b2	eb 04		 jmp	 SHORT $LN111@LoadString
$LN96@LoadString:
  001b4	c6 45 e8 ed	 mov	 BYTE PTR __k$[ebp], -19	; ffffffedH
$LN111@LoadString:
  001b8	6a 03		 push	 3
  001ba	8d 45 e8	 lea	 eax, DWORD PTR __k$[ebp]
  001bd	c6 45 f7 00	 mov	 BYTE PTR __k$[ebp+15], 0
  001c1	5a		 pop	 edx
$LL104@LoadString:
  001c2	81 30 ed ec eb
	ea		 xor	 DWORD PTR [eax], -353637139 ; eaebecedH
  001c8	83 c0 04	 add	 eax, 4
  001cb	4a		 dec	 edx
  001cc	75 f4		 jne	 SHORT $LL104@LoadString
  001ce	6a 0c		 push	 12			; 0000000cH
  001d0	58		 pop	 eax
$LL101@LoadString:
  001d1	8b c8		 mov	 ecx, eax
  001d3	81 e1 03 00 00
	80		 and	 ecx, -2147483645	; 80000003H
  001d9	79 05		 jns	 SHORT $LN112@LoadString
  001db	49		 dec	 ecx
  001dc	83 c9 fc	 or	 ecx, -4			; fffffffcH
  001df	41		 inc	 ecx
$LN112@LoadString:
  001e0	b2 ed		 mov	 dl, -19			; ffffffedH
  001e2	2a d1		 sub	 dl, cl
  001e4	30 54 05 e8	 xor	 BYTE PTR __k$[ebp+eax], dl
  001e8	40		 inc	 eax
  001e9	83 f8 0f	 cmp	 eax, 15			; 0000000fH
  001ec	7c e3		 jl	 SHORT $LL101@LoadString

; 163  : 		LoadString(_k, d, b, i);

  001ee	ff 75 14	 push	 DWORD PTR _i$[ebp]
  001f1	8b 4d e4	 mov	 ecx, DWORD PTR _this$GSCopy$[ebp]
  001f4	57		 push	 edi
  001f5	56		 push	 esi
  001f6	8d 45 e8	 lea	 eax, DWORD PTR __k$[ebp]
  001f9	50		 push	 eax
  001fa	ff 15 00 00 00
	00		 call	 DWORD PTR __imp_?LoadStringA@ioINILoader@@QAEXPBD0PADH@Z

; 164  : 	}

  00200	8b 4d fc	 mov	 ecx, DWORD PTR __$ArrayPad$[ebp]
  00203	5f		 pop	 edi
  00204	33 cd		 xor	 ecx, ebp
  00206	5e		 pop	 esi
  00207	e8 00 00 00 00	 call	 @__security_check_cookie@4
  0020c	c9		 leave
  0020d	c2 10 00	 ret	 16			; 00000010H
??$LoadString_e@$0BA@@ioINILoader@@QAEXAAY0BA@$$CBDAAY00$$CBDPADH@Z ENDP ; ioINILoader::LoadString_e<16>
_TEXT	ENDS
PUBLIC	_this$GSCopy$
PUBLIC	__$ArrayPad$
PUBLIC	??$LoadString_e@$0P@@ioINILoader@@QAEXAAY0P@$$CBDAAY00$$CBDPADH@Z ; ioINILoader::LoadString_e<15>
; Function compile flags: /Ogsp
;	COMDAT ??$LoadString_e@$0P@@ioINILoader@@QAEXAAY0P@$$CBDAAY00$$CBDPADH@Z
_TEXT	SEGMENT
_this$GSCopy$ = -28					; size = 4
__k$ = -24						; size = 15
__$ArrayPad$ = -4					; size = 4
_k$ = 8							; size = 4
_d$ = 12						; size = 4
_b$ = 16						; size = 4
_i$ = 20						; size = 4
??$LoadString_e@$0P@@ioINILoader@@QAEXAAY0P@$$CBDAAY00$$CBDPADH@Z PROC ; ioINILoader::LoadString_e<15>, COMDAT
; _this$ = ecx

; 161  : 	{

  00000	55		 push	 ebp
  00001	8b ec		 mov	 ebp, esp
  00003	83 ec 1c	 sub	 esp, 28			; 0000001cH
  00006	a1 00 00 00 00	 mov	 eax, DWORD PTR ___security_cookie
  0000b	33 c5		 xor	 eax, ebp
  0000d	89 45 fc	 mov	 DWORD PTR __$ArrayPad$[ebp], eax
  00010	8b 45 08	 mov	 eax, DWORD PTR _k$[ebp]

; 162  : 		_ENCSTR(k, _k);

  00013	8a 10		 mov	 dl, BYTE PTR [eax]
  00015	56		 push	 esi
  00016	8b 75 0c	 mov	 esi, DWORD PTR _d$[ebp]
  00019	57		 push	 edi
  0001a	8b 7d 10	 mov	 edi, DWORD PTR _b$[ebp]
  0001d	89 4d e4	 mov	 DWORD PTR _this$GSCopy$[ebp], ecx
  00020	84 d2		 test	 dl, dl
  00022	0f 84 75 01 00
	00		 je	 $LN96@LoadString@2
  00028	80 f2 ed	 xor	 dl, -19			; ffffffedH
  0002b	88 55 e8	 mov	 BYTE PTR __k$[ebp], dl
  0002e	8a 50 01	 mov	 dl, BYTE PTR [eax+1]
  00031	84 d2		 test	 dl, dl
  00033	0f 84 5e 01 00
	00		 je	 $LN95@LoadString@2
  00039	b1 ec		 mov	 cl, -20			; ffffffecH
  0003b	32 d1		 xor	 dl, cl
  0003d	88 55 e9	 mov	 BYTE PTR __k$[ebp+1], dl
  00040	8a 50 02	 mov	 dl, BYTE PTR [eax+2]
  00043	84 d2		 test	 dl, dl
  00045	0f 84 46 01 00
	00		 je	 $LN94@LoadString@2
  0004b	80 f2 eb	 xor	 dl, -21			; ffffffebH
  0004e	88 55 ea	 mov	 BYTE PTR __k$[ebp+2], dl
  00051	8a 50 03	 mov	 dl, BYTE PTR [eax+3]
  00054	84 d2		 test	 dl, dl
  00056	0f 84 2f 01 00
	00		 je	 $LN93@LoadString@2
  0005c	80 f2 ea	 xor	 dl, -22			; ffffffeaH
  0005f	88 55 eb	 mov	 BYTE PTR __k$[ebp+3], dl
  00062	8a 50 04	 mov	 dl, BYTE PTR [eax+4]
  00065	84 d2		 test	 dl, dl
  00067	0f 84 18 01 00
	00		 je	 $LN92@LoadString@2
  0006d	80 f2 ed	 xor	 dl, -19			; ffffffedH
  00070	88 55 ec	 mov	 BYTE PTR __k$[ebp+4], dl
  00073	8a 50 05	 mov	 dl, BYTE PTR [eax+5]
  00076	84 d2		 test	 dl, dl
  00078	0f 84 02 01 00
	00		 je	 $LN91@LoadString@2
  0007e	32 d1		 xor	 dl, cl
  00080	88 55 ed	 mov	 BYTE PTR __k$[ebp+5], dl
  00083	8a 50 06	 mov	 dl, BYTE PTR [eax+6]
  00086	84 d2		 test	 dl, dl
  00088	0f 84 ec 00 00
	00		 je	 $LN90@LoadString@2
  0008e	80 f2 eb	 xor	 dl, -21			; ffffffebH
  00091	88 55 ee	 mov	 BYTE PTR __k$[ebp+6], dl
  00094	8a 50 07	 mov	 dl, BYTE PTR [eax+7]
  00097	84 d2		 test	 dl, dl
  00099	0f 84 d5 00 00
	00		 je	 $LN89@LoadString@2
  0009f	80 f2 ea	 xor	 dl, -22			; ffffffeaH
  000a2	88 55 ef	 mov	 BYTE PTR __k$[ebp+7], dl
  000a5	8a 50 08	 mov	 dl, BYTE PTR [eax+8]
  000a8	84 d2		 test	 dl, dl
  000aa	0f 84 be 00 00
	00		 je	 $LN88@LoadString@2
  000b0	80 f2 ed	 xor	 dl, -19			; ffffffedH
  000b3	88 55 f0	 mov	 BYTE PTR __k$[ebp+8], dl
  000b6	8a 50 09	 mov	 dl, BYTE PTR [eax+9]
  000b9	84 d2		 test	 dl, dl
  000bb	0f 84 a8 00 00
	00		 je	 $LN87@LoadString@2
  000c1	32 d1		 xor	 dl, cl
  000c3	88 55 f1	 mov	 BYTE PTR __k$[ebp+9], dl
  000c6	8a 50 0a	 mov	 dl, BYTE PTR [eax+10]
  000c9	84 d2		 test	 dl, dl
  000cb	0f 84 92 00 00
	00		 je	 $LN86@LoadString@2
  000d1	80 f2 eb	 xor	 dl, -21			; ffffffebH
  000d4	88 55 f2	 mov	 BYTE PTR __k$[ebp+10], dl
  000d7	8a 50 0b	 mov	 dl, BYTE PTR [eax+11]
  000da	84 d2		 test	 dl, dl
  000dc	74 7f		 je	 SHORT $LN85@LoadString@2
  000de	80 f2 ea	 xor	 dl, -22			; ffffffeaH
  000e1	88 55 f3	 mov	 BYTE PTR __k$[ebp+11], dl
  000e4	8a 50 0c	 mov	 dl, BYTE PTR [eax+12]
  000e7	84 d2		 test	 dl, dl
  000e9	74 6c		 je	 SHORT $LN84@LoadString@2
  000eb	80 f2 ed	 xor	 dl, -19			; ffffffedH
  000ee	88 55 f4	 mov	 BYTE PTR __k$[ebp+12], dl
  000f1	8a 50 0d	 mov	 dl, BYTE PTR [eax+13]
  000f4	84 d2		 test	 dl, dl
  000f6	74 5a		 je	 SHORT $LN83@LoadString@2
  000f8	32 d1		 xor	 dl, cl
  000fa	80 78 0e 00	 cmp	 BYTE PTR [eax+14], 0
  000fe	88 55 f5	 mov	 BYTE PTR __k$[ebp+13], dl
  00101	0f 84 9a 00 00
	00		 je	 $LN111@LoadString@2
  00107	8a 50 0f	 mov	 dl, BYTE PTR [eax+15]
  0010a	84 d2		 test	 dl, dl
  0010c	74 3e		 je	 SHORT $LN81@LoadString@2
  0010e	80 f2 ea	 xor	 dl, -22			; ffffffeaH
  00111	88 55 f7	 mov	 BYTE PTR __k$[ebp+15], dl
  00114	8a 50 10	 mov	 dl, BYTE PTR [eax+16]
  00117	84 d2		 test	 dl, dl
  00119	74 2b		 je	 SHORT $LN80@LoadString@2
  0011b	80 f2 ed	 xor	 dl, -19			; ffffffedH
  0011e	88 55 f8	 mov	 BYTE PTR __k$[ebp+16], dl
  00121	8a 50 11	 mov	 dl, BYTE PTR [eax+17]
  00124	84 d2		 test	 dl, dl
  00126	74 19		 je	 SHORT $LN79@LoadString@2
  00128	8a 40 12	 mov	 al, BYTE PTR [eax+18]
  0012b	32 d1		 xor	 dl, cl
  0012d	88 55 f9	 mov	 BYTE PTR __k$[ebp+17], dl
  00130	84 c0		 test	 al, al
  00132	74 07		 je	 SHORT $LN78@LoadString@2
  00134	34 eb		 xor	 al, -21			; ffffffebH
  00136	88 45 fa	 mov	 BYTE PTR __k$[ebp+18], al
  00139	eb 66		 jmp	 SHORT $LN111@LoadString@2
$LN78@LoadString@2:
  0013b	c6 45 fa eb	 mov	 BYTE PTR __k$[ebp+18], -21 ; ffffffebH
  0013f	eb 60		 jmp	 SHORT $LN111@LoadString@2
$LN79@LoadString@2:
  00141	88 4d f9	 mov	 BYTE PTR __k$[ebp+17], cl
  00144	eb 5b		 jmp	 SHORT $LN111@LoadString@2
$LN80@LoadString@2:
  00146	c6 45 f8 ed	 mov	 BYTE PTR __k$[ebp+16], -19 ; ffffffedH
  0014a	eb 55		 jmp	 SHORT $LN111@LoadString@2
$LN81@LoadString@2:
  0014c	c6 45 f7 ea	 mov	 BYTE PTR __k$[ebp+15], -22 ; ffffffeaH
  00150	eb 4f		 jmp	 SHORT $LN111@LoadString@2
$LN83@LoadString@2:
  00152	88 4d f5	 mov	 BYTE PTR __k$[ebp+13], cl
  00155	eb 4a		 jmp	 SHORT $LN111@LoadString@2
$LN84@LoadString@2:
  00157	c6 45 f4 ed	 mov	 BYTE PTR __k$[ebp+12], -19 ; ffffffedH
  0015b	eb 44		 jmp	 SHORT $LN111@LoadString@2
$LN85@LoadString@2:
  0015d	c6 45 f3 ea	 mov	 BYTE PTR __k$[ebp+11], -22 ; ffffffeaH
  00161	eb 3e		 jmp	 SHORT $LN111@LoadString@2
$LN86@LoadString@2:
  00163	c6 45 f2 eb	 mov	 BYTE PTR __k$[ebp+10], -21 ; ffffffebH
  00167	eb 38		 jmp	 SHORT $LN111@LoadString@2
$LN87@LoadString@2:
  00169	88 4d f1	 mov	 BYTE PTR __k$[ebp+9], cl
  0016c	eb 33		 jmp	 SHORT $LN111@LoadString@2
$LN88@LoadString@2:
  0016e	c6 45 f0 ed	 mov	 BYTE PTR __k$[ebp+8], -19 ; ffffffedH
  00172	eb 2d		 jmp	 SHORT $LN111@LoadString@2
$LN89@LoadString@2:
  00174	c6 45 ef ea	 mov	 BYTE PTR __k$[ebp+7], -22 ; ffffffeaH
  00178	eb 27		 jmp	 SHORT $LN111@LoadString@2
$LN90@LoadString@2:
  0017a	c6 45 ee eb	 mov	 BYTE PTR __k$[ebp+6], -21 ; ffffffebH
  0017e	eb 21		 jmp	 SHORT $LN111@LoadString@2
$LN91@LoadString@2:
  00180	88 4d ed	 mov	 BYTE PTR __k$[ebp+5], cl
  00183	eb 1c		 jmp	 SHORT $LN111@LoadString@2
$LN92@LoadString@2:
  00185	c6 45 ec ed	 mov	 BYTE PTR __k$[ebp+4], -19 ; ffffffedH
  00189	eb 16		 jmp	 SHORT $LN111@LoadString@2
$LN93@LoadString@2:
  0018b	c6 45 eb ea	 mov	 BYTE PTR __k$[ebp+3], -22 ; ffffffeaH
  0018f	eb 10		 jmp	 SHORT $LN111@LoadString@2
$LN94@LoadString@2:
  00191	c6 45 ea eb	 mov	 BYTE PTR __k$[ebp+2], -21 ; ffffffebH
  00195	eb 0a		 jmp	 SHORT $LN111@LoadString@2
$LN95@LoadString@2:
  00197	c6 45 e9 ec	 mov	 BYTE PTR __k$[ebp+1], -20 ; ffffffecH
  0019b	eb 04		 jmp	 SHORT $LN111@LoadString@2
$LN96@LoadString@2:
  0019d	c6 45 e8 ed	 mov	 BYTE PTR __k$[ebp], -19	; ffffffedH
$LN111@LoadString@2:
  001a1	6a 03		 push	 3
  001a3	8d 45 e8	 lea	 eax, DWORD PTR __k$[ebp]
  001a6	c6 45 f6 00	 mov	 BYTE PTR __k$[ebp+14], 0
  001aa	5a		 pop	 edx
$LL104@LoadString@2:
  001ab	81 30 ed ec eb
	ea		 xor	 DWORD PTR [eax], -353637139 ; eaebecedH
  001b1	83 c0 04	 add	 eax, 4
  001b4	4a		 dec	 edx
  001b5	75 f4		 jne	 SHORT $LL104@LoadString@2
  001b7	6a 0c		 push	 12			; 0000000cH
  001b9	58		 pop	 eax
$LL101@LoadString@2:
  001ba	8b c8		 mov	 ecx, eax
  001bc	81 e1 03 00 00
	80		 and	 ecx, -2147483645	; 80000003H
  001c2	79 05		 jns	 SHORT $LN112@LoadString@2
  001c4	49		 dec	 ecx
  001c5	83 c9 fc	 or	 ecx, -4			; fffffffcH
  001c8	41		 inc	 ecx
$LN112@LoadString@2:
  001c9	b2 ed		 mov	 dl, -19			; ffffffedH
  001cb	2a d1		 sub	 dl, cl
  001cd	30 54 05 e8	 xor	 BYTE PTR __k$[ebp+eax], dl
  001d1	40		 inc	 eax
  001d2	83 f8 0e	 cmp	 eax, 14			; 0000000eH
  001d5	7c e3		 jl	 SHORT $LL101@LoadString@2

; 163  : 		LoadString(_k, d, b, i);

  001d7	ff 75 14	 push	 DWORD PTR _i$[ebp]
  001da	8b 4d e4	 mov	 ecx, DWORD PTR _this$GSCopy$[ebp]
  001dd	57		 push	 edi
  001de	56		 push	 esi
  001df	8d 45 e8	 lea	 eax, DWORD PTR __k$[ebp]
  001e2	50		 push	 eax
  001e3	ff 15 00 00 00
	00		 call	 DWORD PTR __imp_?LoadStringA@ioINILoader@@QAEXPBD0PADH@Z

; 164  : 	}

  001e9	8b 4d fc	 mov	 ecx, DWORD PTR __$ArrayPad$[ebp]
  001ec	5f		 pop	 edi
  001ed	33 cd		 xor	 ecx, ebp
  001ef	5e		 pop	 esi
  001f0	e8 00 00 00 00	 call	 @__security_check_cookie@4
  001f5	c9		 leave
  001f6	c2 10 00	 ret	 16			; 00000010H
??$LoadString_e@$0P@@ioINILoader@@QAEXAAY0P@$$CBDAAY00$$CBDPADH@Z ENDP ; ioINILoader::LoadString_e<15>
_TEXT	ENDS
PUBLIC	_this$GSCopy$
PUBLIC	__$ArrayPad$
PUBLIC	??$LoadString_e@$0M@@ioINILoader@@QAEXAAY0M@$$CBDAAY00$$CBDPADH@Z ; ioINILoader::LoadString_e<12>
; Function compile flags: /Ogsp
;	COMDAT ??$LoadString_e@$0M@@ioINILoader@@QAEXAAY0M@$$CBDAAY00$$CBDPADH@Z
_TEXT	SEGMENT
_this$GSCopy$ = -24					; size = 4
__k$ = -20						; size = 12
__$ArrayPad$ = -4					; size = 4
_k$ = 8							; size = 4
_d$ = 12						; size = 4
_b$ = 16						; size = 4
_i$ = 20						; size = 4
??$LoadString_e@$0M@@ioINILoader@@QAEXAAY0M@$$CBDAAY00$$CBDPADH@Z PROC ; ioINILoader::LoadString_e<12>, COMDAT
; _this$ = ecx

; 161  : 	{

  00000	55		 push	 ebp
  00001	8b ec		 mov	 ebp, esp
  00003	83 ec 18	 sub	 esp, 24			; 00000018H
  00006	a1 00 00 00 00	 mov	 eax, DWORD PTR ___security_cookie
  0000b	33 c5		 xor	 eax, ebp
  0000d	89 45 fc	 mov	 DWORD PTR __$ArrayPad$[ebp], eax
  00010	8b 45 08	 mov	 eax, DWORD PTR _k$[ebp]

; 162  : 		_ENCSTR(k, _k);

  00013	8a 10		 mov	 dl, BYTE PTR [eax]
  00015	56		 push	 esi
  00016	8b 75 0c	 mov	 esi, DWORD PTR _d$[ebp]
  00019	57		 push	 edi
  0001a	8b 7d 10	 mov	 edi, DWORD PTR _b$[ebp]
  0001d	89 4d e8	 mov	 DWORD PTR _this$GSCopy$[ebp], ecx
  00020	84 d2		 test	 dl, dl
  00022	0f 84 32 01 00
	00		 je	 $LN96@LoadString@3
  00028	80 f2 ed	 xor	 dl, -19			; ffffffedH
  0002b	88 55 ec	 mov	 BYTE PTR __k$[ebp], dl
  0002e	8a 50 01	 mov	 dl, BYTE PTR [eax+1]
  00031	84 d2		 test	 dl, dl
  00033	0f 84 1b 01 00
	00		 je	 $LN95@LoadString@3
  00039	80 f2 ec	 xor	 dl, -20			; ffffffecH
  0003c	88 55 ed	 mov	 BYTE PTR __k$[ebp+1], dl
  0003f	8a 50 02	 mov	 dl, BYTE PTR [eax+2]
  00042	84 d2		 test	 dl, dl
  00044	0f 84 04 01 00
	00		 je	 $LN94@LoadString@3
  0004a	b1 eb		 mov	 cl, -21			; ffffffebH
  0004c	32 d1		 xor	 dl, cl
  0004e	88 55 ee	 mov	 BYTE PTR __k$[ebp+2], dl
  00051	8a 50 03	 mov	 dl, BYTE PTR [eax+3]
  00054	84 d2		 test	 dl, dl
  00056	0f 84 ec 00 00
	00		 je	 $LN93@LoadString@3
  0005c	80 f2 ea	 xor	 dl, -22			; ffffffeaH
  0005f	88 55 ef	 mov	 BYTE PTR __k$[ebp+3], dl
  00062	8a 50 04	 mov	 dl, BYTE PTR [eax+4]
  00065	84 d2		 test	 dl, dl
  00067	0f 84 d5 00 00
	00		 je	 $LN92@LoadString@3
  0006d	80 f2 ed	 xor	 dl, -19			; ffffffedH
  00070	88 55 f0	 mov	 BYTE PTR __k$[ebp+4], dl
  00073	8a 50 05	 mov	 dl, BYTE PTR [eax+5]
  00076	84 d2		 test	 dl, dl
  00078	0f 84 be 00 00
	00		 je	 $LN91@LoadString@3
  0007e	80 f2 ec	 xor	 dl, -20			; ffffffecH
  00081	88 55 f1	 mov	 BYTE PTR __k$[ebp+5], dl
  00084	8a 50 06	 mov	 dl, BYTE PTR [eax+6]
  00087	84 d2		 test	 dl, dl
  00089	0f 84 a8 00 00
	00		 je	 $LN90@LoadString@3
  0008f	32 d1		 xor	 dl, cl
  00091	88 55 f2	 mov	 BYTE PTR __k$[ebp+6], dl
  00094	8a 50 07	 mov	 dl, BYTE PTR [eax+7]
  00097	84 d2		 test	 dl, dl
  00099	0f 84 92 00 00
	00		 je	 $LN89@LoadString@3
  0009f	80 f2 ea	 xor	 dl, -22			; ffffffeaH
  000a2	88 55 f3	 mov	 BYTE PTR __k$[ebp+7], dl
  000a5	8a 50 08	 mov	 dl, BYTE PTR [eax+8]
  000a8	84 d2		 test	 dl, dl
  000aa	74 7f		 je	 SHORT $LN88@LoadString@3
  000ac	80 f2 ed	 xor	 dl, -19			; ffffffedH
  000af	88 55 f4	 mov	 BYTE PTR __k$[ebp+8], dl
  000b2	8a 50 09	 mov	 dl, BYTE PTR [eax+9]
  000b5	84 d2		 test	 dl, dl
  000b7	74 6c		 je	 SHORT $LN87@LoadString@3
  000b9	80 f2 ec	 xor	 dl, -20			; ffffffecH
  000bc	88 55 f5	 mov	 BYTE PTR __k$[ebp+9], dl
  000bf	8a 50 0a	 mov	 dl, BYTE PTR [eax+10]
  000c2	84 d2		 test	 dl, dl
  000c4	74 5a		 je	 SHORT $LN86@LoadString@3
  000c6	32 d1		 xor	 dl, cl
  000c8	80 78 0b 00	 cmp	 BYTE PTR [eax+11], 0
  000cc	88 55 f6	 mov	 BYTE PTR __k$[ebp+10], dl
  000cf	0f 84 89 00 00
	00		 je	 $LN111@LoadString@3
  000d5	8a 50 0c	 mov	 dl, BYTE PTR [eax+12]
  000d8	84 d2		 test	 dl, dl
  000da	74 3e		 je	 SHORT $LN84@LoadString@3
  000dc	80 f2 ed	 xor	 dl, -19			; ffffffedH
  000df	88 55 f8	 mov	 BYTE PTR __k$[ebp+12], dl
  000e2	8a 50 0d	 mov	 dl, BYTE PTR [eax+13]
  000e5	84 d2		 test	 dl, dl
  000e7	74 2b		 je	 SHORT $LN83@LoadString@3
  000e9	80 f2 ec	 xor	 dl, -20			; ffffffecH
  000ec	88 55 f9	 mov	 BYTE PTR __k$[ebp+13], dl
  000ef	8a 50 0e	 mov	 dl, BYTE PTR [eax+14]
  000f2	84 d2		 test	 dl, dl
  000f4	74 19		 je	 SHORT $LN82@LoadString@3
  000f6	8a 40 0f	 mov	 al, BYTE PTR [eax+15]
  000f9	32 d1		 xor	 dl, cl
  000fb	88 55 fa	 mov	 BYTE PTR __k$[ebp+14], dl
  000fe	84 c0		 test	 al, al
  00100	74 07		 je	 SHORT $LN81@LoadString@3
  00102	34 ea		 xor	 al, -22			; ffffffeaH
  00104	88 45 fb	 mov	 BYTE PTR __k$[ebp+15], al
  00107	eb 55		 jmp	 SHORT $LN111@LoadString@3
$LN81@LoadString@3:
  00109	c6 45 fb ea	 mov	 BYTE PTR __k$[ebp+15], -22 ; ffffffeaH
  0010d	eb 4f		 jmp	 SHORT $LN111@LoadString@3
$LN82@LoadString@3:
  0010f	88 4d fa	 mov	 BYTE PTR __k$[ebp+14], cl
  00112	eb 4a		 jmp	 SHORT $LN111@LoadString@3
$LN83@LoadString@3:
  00114	c6 45 f9 ec	 mov	 BYTE PTR __k$[ebp+13], -20 ; ffffffecH
  00118	eb 44		 jmp	 SHORT $LN111@LoadString@3
$LN84@LoadString@3:
  0011a	c6 45 f8 ed	 mov	 BYTE PTR __k$[ebp+12], -19 ; ffffffedH
  0011e	eb 3e		 jmp	 SHORT $LN111@LoadString@3
$LN86@LoadString@3:
  00120	88 4d f6	 mov	 BYTE PTR __k$[ebp+10], cl
  00123	eb 39		 jmp	 SHORT $LN111@LoadString@3
$LN87@LoadString@3:
  00125	c6 45 f5 ec	 mov	 BYTE PTR __k$[ebp+9], -20 ; ffffffecH
  00129	eb 33		 jmp	 SHORT $LN111@LoadString@3
$LN88@LoadString@3:
  0012b	c6 45 f4 ed	 mov	 BYTE PTR __k$[ebp+8], -19 ; ffffffedH
  0012f	eb 2d		 jmp	 SHORT $LN111@LoadString@3
$LN89@LoadString@3:
  00131	c6 45 f3 ea	 mov	 BYTE PTR __k$[ebp+7], -22 ; ffffffeaH
  00135	eb 27		 jmp	 SHORT $LN111@LoadString@3
$LN90@LoadString@3:
  00137	88 4d f2	 mov	 BYTE PTR __k$[ebp+6], cl
  0013a	eb 22		 jmp	 SHORT $LN111@LoadString@3
$LN91@LoadString@3:
  0013c	c6 45 f1 ec	 mov	 BYTE PTR __k$[ebp+5], -20 ; ffffffecH
  00140	eb 1c		 jmp	 SHORT $LN111@LoadString@3
$LN92@LoadString@3:
  00142	c6 45 f0 ed	 mov	 BYTE PTR __k$[ebp+4], -19 ; ffffffedH
  00146	eb 16		 jmp	 SHORT $LN111@LoadString@3
$LN93@LoadString@3:
  00148	c6 45 ef ea	 mov	 BYTE PTR __k$[ebp+3], -22 ; ffffffeaH
  0014c	eb 10		 jmp	 SHORT $LN111@LoadString@3
$LN94@LoadString@3:
  0014e	c6 45 ee eb	 mov	 BYTE PTR __k$[ebp+2], -21 ; ffffffebH
  00152	eb 0a		 jmp	 SHORT $LN111@LoadString@3
$LN95@LoadString@3:
  00154	c6 45 ed ec	 mov	 BYTE PTR __k$[ebp+1], -20 ; ffffffecH
  00158	eb 04		 jmp	 SHORT $LN111@LoadString@3
$LN96@LoadString@3:
  0015a	c6 45 ec ed	 mov	 BYTE PTR __k$[ebp], -19	; ffffffedH
$LN111@LoadString@3:
  0015e	6a 02		 push	 2
  00160	8d 45 ec	 lea	 eax, DWORD PTR __k$[ebp]
  00163	c6 45 f7 00	 mov	 BYTE PTR __k$[ebp+11], 0
  00167	5a		 pop	 edx
$LL104@LoadString@3:
  00168	81 30 ed ec eb
	ea		 xor	 DWORD PTR [eax], -353637139 ; eaebecedH
  0016e	83 c0 04	 add	 eax, 4
  00171	4a		 dec	 edx
  00172	75 f4		 jne	 SHORT $LL104@LoadString@3
  00174	6a 08		 push	 8
  00176	58		 pop	 eax
$LL101@LoadString@3:
  00177	8b c8		 mov	 ecx, eax
  00179	81 e1 03 00 00
	80		 and	 ecx, -2147483645	; 80000003H
  0017f	79 05		 jns	 SHORT $LN112@LoadString@3
  00181	49		 dec	 ecx
  00182	83 c9 fc	 or	 ecx, -4			; fffffffcH
  00185	41		 inc	 ecx
$LN112@LoadString@3:
  00186	b2 ed		 mov	 dl, -19			; ffffffedH
  00188	2a d1		 sub	 dl, cl
  0018a	30 54 05 ec	 xor	 BYTE PTR __k$[ebp+eax], dl
  0018e	40		 inc	 eax
  0018f	83 f8 0b	 cmp	 eax, 11			; 0000000bH
  00192	7c e3		 jl	 SHORT $LL101@LoadString@3

; 163  : 		LoadString(_k, d, b, i);

  00194	ff 75 14	 push	 DWORD PTR _i$[ebp]
  00197	8b 4d e8	 mov	 ecx, DWORD PTR _this$GSCopy$[ebp]
  0019a	57		 push	 edi
  0019b	56		 push	 esi
  0019c	8d 45 ec	 lea	 eax, DWORD PTR __k$[ebp]
  0019f	50		 push	 eax
  001a0	ff 15 00 00 00
	00		 call	 DWORD PTR __imp_?LoadStringA@ioINILoader@@QAEXPBD0PADH@Z

; 164  : 	}

  001a6	8b 4d fc	 mov	 ecx, DWORD PTR __$ArrayPad$[ebp]
  001a9	5f		 pop	 edi
  001aa	33 cd		 xor	 ecx, ebp
  001ac	5e		 pop	 esi
  001ad	e8 00 00 00 00	 call	 @__security_check_cookie@4
  001b2	c9		 leave
  001b3	c2 10 00	 ret	 16			; 00000010H
??$LoadString_e@$0M@@ioINILoader@@QAEXAAY0M@$$CBDAAY00$$CBDPADH@Z ENDP ; ioINILoader::LoadString_e<12>
_TEXT	ENDS
PUBLIC	_this$GSCopy$
PUBLIC	__$ArrayPad$
PUBLIC	??$LoadString_e@$0BD@@ioINILoader@@QAEXAAY0BD@$$CBDAAY00$$CBDPADH@Z ; ioINILoader::LoadString_e<19>
; Function compile flags: /Ogsp
;	COMDAT ??$LoadString_e@$0BD@@ioINILoader@@QAEXAAY0BD@$$CBDAAY00$$CBDPADH@Z
_TEXT	SEGMENT
_this$GSCopy$ = -32					; size = 4
__k$ = -28						; size = 19
__$ArrayPad$ = -4					; size = 4
_k$ = 8							; size = 4
_d$ = 12						; size = 4
_b$ = 16						; size = 4
_i$ = 20						; size = 4
??$LoadString_e@$0BD@@ioINILoader@@QAEXAAY0BD@$$CBDAAY00$$CBDPADH@Z PROC ; ioINILoader::LoadString_e<19>, COMDAT
; _this$ = ecx

; 161  : 	{

  00000	55		 push	 ebp
  00001	8b ec		 mov	 ebp, esp
  00003	83 ec 20	 sub	 esp, 32			; 00000020H
  00006	a1 00 00 00 00	 mov	 eax, DWORD PTR ___security_cookie
  0000b	33 c5		 xor	 eax, ebp
  0000d	89 45 fc	 mov	 DWORD PTR __$ArrayPad$[ebp], eax
  00010	8b 45 08	 mov	 eax, DWORD PTR _k$[ebp]

; 162  : 		_ENCSTR(k, _k);

  00013	8a 10		 mov	 dl, BYTE PTR [eax]
  00015	56		 push	 esi
  00016	8b 75 0c	 mov	 esi, DWORD PTR _d$[ebp]
  00019	57		 push	 edi
  0001a	8b 7d 10	 mov	 edi, DWORD PTR _b$[ebp]
  0001d	89 4d e0	 mov	 DWORD PTR _this$GSCopy$[ebp], ecx
  00020	84 d2		 test	 dl, dl
  00022	0f 84 cf 01 00
	00		 je	 $LN96@LoadString@4
  00028	80 f2 ed	 xor	 dl, -19			; ffffffedH
  0002b	88 55 e4	 mov	 BYTE PTR __k$[ebp], dl
  0002e	8a 50 01	 mov	 dl, BYTE PTR [eax+1]
  00031	84 d2		 test	 dl, dl
  00033	0f 84 b8 01 00
	00		 je	 $LN95@LoadString@4
  00039	b1 ec		 mov	 cl, -20			; ffffffecH
  0003b	32 d1		 xor	 dl, cl
  0003d	88 55 e5	 mov	 BYTE PTR __k$[ebp+1], dl
  00040	8a 50 02	 mov	 dl, BYTE PTR [eax+2]
  00043	84 d2		 test	 dl, dl
  00045	0f 84 a0 01 00
	00		 je	 $LN94@LoadString@4
  0004b	80 f2 eb	 xor	 dl, -21			; ffffffebH
  0004e	88 55 e6	 mov	 BYTE PTR __k$[ebp+2], dl
  00051	8a 50 03	 mov	 dl, BYTE PTR [eax+3]
  00054	84 d2		 test	 dl, dl
  00056	0f 84 89 01 00
	00		 je	 $LN93@LoadString@4
  0005c	80 f2 ea	 xor	 dl, -22			; ffffffeaH
  0005f	88 55 e7	 mov	 BYTE PTR __k$[ebp+3], dl
  00062	8a 50 04	 mov	 dl, BYTE PTR [eax+4]
  00065	84 d2		 test	 dl, dl
  00067	0f 84 72 01 00
	00		 je	 $LN92@LoadString@4
  0006d	80 f2 ed	 xor	 dl, -19			; ffffffedH
  00070	88 55 e8	 mov	 BYTE PTR __k$[ebp+4], dl
  00073	8a 50 05	 mov	 dl, BYTE PTR [eax+5]
  00076	84 d2		 test	 dl, dl
  00078	0f 84 5c 01 00
	00		 je	 $LN91@LoadString@4
  0007e	32 d1		 xor	 dl, cl
  00080	88 55 e9	 mov	 BYTE PTR __k$[ebp+5], dl
  00083	8a 50 06	 mov	 dl, BYTE PTR [eax+6]
  00086	84 d2		 test	 dl, dl
  00088	0f 84 46 01 00
	00		 je	 $LN90@LoadString@4
  0008e	80 f2 eb	 xor	 dl, -21			; ffffffebH
  00091	88 55 ea	 mov	 BYTE PTR __k$[ebp+6], dl
  00094	8a 50 07	 mov	 dl, BYTE PTR [eax+7]
  00097	84 d2		 test	 dl, dl
  00099	0f 84 2f 01 00
	00		 je	 $LN89@LoadString@4
  0009f	80 f2 ea	 xor	 dl, -22			; ffffffeaH
  000a2	88 55 eb	 mov	 BYTE PTR __k$[ebp+7], dl
  000a5	8a 50 08	 mov	 dl, BYTE PTR [eax+8]
  000a8	84 d2		 test	 dl, dl
  000aa	0f 84 18 01 00
	00		 je	 $LN88@LoadString@4
  000b0	80 f2 ed	 xor	 dl, -19			; ffffffedH
  000b3	88 55 ec	 mov	 BYTE PTR __k$[ebp+8], dl
  000b6	8a 50 09	 mov	 dl, BYTE PTR [eax+9]
  000b9	84 d2		 test	 dl, dl
  000bb	0f 84 02 01 00
	00		 je	 $LN87@LoadString@4
  000c1	32 d1		 xor	 dl, cl
  000c3	88 55 ed	 mov	 BYTE PTR __k$[ebp+9], dl
  000c6	8a 50 0a	 mov	 dl, BYTE PTR [eax+10]
  000c9	84 d2		 test	 dl, dl
  000cb	0f 84 ec 00 00
	00		 je	 $LN86@LoadString@4
  000d1	80 f2 eb	 xor	 dl, -21			; ffffffebH
  000d4	88 55 ee	 mov	 BYTE PTR __k$[ebp+10], dl
  000d7	8a 50 0b	 mov	 dl, BYTE PTR [eax+11]
  000da	84 d2		 test	 dl, dl
  000dc	0f 84 d5 00 00
	00		 je	 $LN85@LoadString@4
  000e2	80 f2 ea	 xor	 dl, -22			; ffffffeaH
  000e5	88 55 ef	 mov	 BYTE PTR __k$[ebp+11], dl
  000e8	8a 50 0c	 mov	 dl, BYTE PTR [eax+12]
  000eb	84 d2		 test	 dl, dl
  000ed	0f 84 be 00 00
	00		 je	 $LN84@LoadString@4
  000f3	80 f2 ed	 xor	 dl, -19			; ffffffedH
  000f6	88 55 f0	 mov	 BYTE PTR __k$[ebp+12], dl
  000f9	8a 50 0d	 mov	 dl, BYTE PTR [eax+13]
  000fc	84 d2		 test	 dl, dl
  000fe	0f 84 a8 00 00
	00		 je	 $LN83@LoadString@4
  00104	32 d1		 xor	 dl, cl
  00106	88 55 f1	 mov	 BYTE PTR __k$[ebp+13], dl
  00109	8a 50 0e	 mov	 dl, BYTE PTR [eax+14]
  0010c	84 d2		 test	 dl, dl
  0010e	0f 84 92 00 00
	00		 je	 $LN82@LoadString@4
  00114	80 f2 eb	 xor	 dl, -21			; ffffffebH
  00117	88 55 f2	 mov	 BYTE PTR __k$[ebp+14], dl
  0011a	8a 50 0f	 mov	 dl, BYTE PTR [eax+15]
  0011d	84 d2		 test	 dl, dl
  0011f	74 7f		 je	 SHORT $LN81@LoadString@4
  00121	80 f2 ea	 xor	 dl, -22			; ffffffeaH
  00124	88 55 f3	 mov	 BYTE PTR __k$[ebp+15], dl
  00127	8a 50 10	 mov	 dl, BYTE PTR [eax+16]
  0012a	84 d2		 test	 dl, dl
  0012c	74 6c		 je	 SHORT $LN80@LoadString@4
  0012e	80 f2 ed	 xor	 dl, -19			; ffffffedH
  00131	88 55 f4	 mov	 BYTE PTR __k$[ebp+16], dl
  00134	8a 50 11	 mov	 dl, BYTE PTR [eax+17]
  00137	84 d2		 test	 dl, dl
  00139	74 5a		 je	 SHORT $LN79@LoadString@4
  0013b	32 d1		 xor	 dl, cl
  0013d	80 78 12 00	 cmp	 BYTE PTR [eax+18], 0
  00141	88 55 f5	 mov	 BYTE PTR __k$[ebp+17], dl
  00144	0f 84 b1 00 00
	00		 je	 $LN111@LoadString@4
  0014a	8a 50 13	 mov	 dl, BYTE PTR [eax+19]
  0014d	84 d2		 test	 dl, dl
  0014f	74 3e		 je	 SHORT $LN77@LoadString@4
  00151	80 f2 ea	 xor	 dl, -22			; ffffffeaH
  00154	88 55 f7	 mov	 BYTE PTR __k$[ebp+19], dl
  00157	8a 50 14	 mov	 dl, BYTE PTR [eax+20]
  0015a	84 d2		 test	 dl, dl
  0015c	74 2b		 je	 SHORT $LN76@LoadString@4
  0015e	80 f2 ed	 xor	 dl, -19			; ffffffedH
  00161	88 55 f8	 mov	 BYTE PTR __k$[ebp+20], dl
  00164	8a 50 15	 mov	 dl, BYTE PTR [eax+21]
  00167	84 d2		 test	 dl, dl
  00169	74 19		 je	 SHORT $LN75@LoadString@4
  0016b	8a 40 16	 mov	 al, BYTE PTR [eax+22]
  0016e	32 d1		 xor	 dl, cl
  00170	88 55 f9	 mov	 BYTE PTR __k$[ebp+21], dl
  00173	84 c0		 test	 al, al
  00175	74 07		 je	 SHORT $LN74@LoadString@4
  00177	34 eb		 xor	 al, -21			; ffffffebH
  00179	88 45 fa	 mov	 BYTE PTR __k$[ebp+22], al
  0017c	eb 7d		 jmp	 SHORT $LN111@LoadString@4
$LN74@LoadString@4:
  0017e	c6 45 fa eb	 mov	 BYTE PTR __k$[ebp+22], -21 ; ffffffebH
  00182	eb 77		 jmp	 SHORT $LN111@LoadString@4
$LN75@LoadString@4:
  00184	88 4d f9	 mov	 BYTE PTR __k$[ebp+21], cl
  00187	eb 72		 jmp	 SHORT $LN111@LoadString@4
$LN76@LoadString@4:
  00189	c6 45 f8 ed	 mov	 BYTE PTR __k$[ebp+20], -19 ; ffffffedH
  0018d	eb 6c		 jmp	 SHORT $LN111@LoadString@4
$LN77@LoadString@4:
  0018f	c6 45 f7 ea	 mov	 BYTE PTR __k$[ebp+19], -22 ; ffffffeaH
  00193	eb 66		 jmp	 SHORT $LN111@LoadString@4
$LN79@LoadString@4:
  00195	88 4d f5	 mov	 BYTE PTR __k$[ebp+17], cl
  00198	eb 61		 jmp	 SHORT $LN111@LoadString@4
$LN80@LoadString@4:
  0019a	c6 45 f4 ed	 mov	 BYTE PTR __k$[ebp+16], -19 ; ffffffedH
  0019e	eb 5b		 jmp	 SHORT $LN111@LoadString@4
$LN81@LoadString@4:
  001a0	c6 45 f3 ea	 mov	 BYTE PTR __k$[ebp+15], -22 ; ffffffeaH
  001a4	eb 55		 jmp	 SHORT $LN111@LoadString@4
$LN82@LoadString@4:
  001a6	c6 45 f2 eb	 mov	 BYTE PTR __k$[ebp+14], -21 ; ffffffebH
  001aa	eb 4f		 jmp	 SHORT $LN111@LoadString@4
$LN83@LoadString@4:
  001ac	88 4d f1	 mov	 BYTE PTR __k$[ebp+13], cl
  001af	eb 4a		 jmp	 SHORT $LN111@LoadString@4
$LN84@LoadString@4:
  001b1	c6 45 f0 ed	 mov	 BYTE PTR __k$[ebp+12], -19 ; ffffffedH
  001b5	eb 44		 jmp	 SHORT $LN111@LoadString@4
$LN85@LoadString@4:
  001b7	c6 45 ef ea	 mov	 BYTE PTR __k$[ebp+11], -22 ; ffffffeaH
  001bb	eb 3e		 jmp	 SHORT $LN111@LoadString@4
$LN86@LoadString@4:
  001bd	c6 45 ee eb	 mov	 BYTE PTR __k$[ebp+10], -21 ; ffffffebH
  001c1	eb 38		 jmp	 SHORT $LN111@LoadString@4
$LN87@LoadString@4:
  001c3	88 4d ed	 mov	 BYTE PTR __k$[ebp+9], cl
  001c6	eb 33		 jmp	 SHORT $LN111@LoadString@4
$LN88@LoadString@4:
  001c8	c6 45 ec ed	 mov	 BYTE PTR __k$[ebp+8], -19 ; ffffffedH
  001cc	eb 2d		 jmp	 SHORT $LN111@LoadString@4
$LN89@LoadString@4:
  001ce	c6 45 eb ea	 mov	 BYTE PTR __k$[ebp+7], -22 ; ffffffeaH
  001d2	eb 27		 jmp	 SHORT $LN111@LoadString@4
$LN90@LoadString@4:
  001d4	c6 45 ea eb	 mov	 BYTE PTR __k$[ebp+6], -21 ; ffffffebH
  001d8	eb 21		 jmp	 SHORT $LN111@LoadString@4
$LN91@LoadString@4:
  001da	88 4d e9	 mov	 BYTE PTR __k$[ebp+5], cl
  001dd	eb 1c		 jmp	 SHORT $LN111@LoadString@4
$LN92@LoadString@4:
  001df	c6 45 e8 ed	 mov	 BYTE PTR __k$[ebp+4], -19 ; ffffffedH
  001e3	eb 16		 jmp	 SHORT $LN111@LoadString@4
$LN93@LoadString@4:
  001e5	c6 45 e7 ea	 mov	 BYTE PTR __k$[ebp+3], -22 ; ffffffeaH
  001e9	eb 10		 jmp	 SHORT $LN111@LoadString@4
$LN94@LoadString@4:
  001eb	c6 45 e6 eb	 mov	 BYTE PTR __k$[ebp+2], -21 ; ffffffebH
  001ef	eb 0a		 jmp	 SHORT $LN111@LoadString@4
$LN95@LoadString@4:
  001f1	c6 45 e5 ec	 mov	 BYTE PTR __k$[ebp+1], -20 ; ffffffecH
  001f5	eb 04		 jmp	 SHORT $LN111@LoadString@4
$LN96@LoadString@4:
  001f7	c6 45 e4 ed	 mov	 BYTE PTR __k$[ebp], -19	; ffffffedH
$LN111@LoadString@4:
  001fb	6a 04		 push	 4
  001fd	8d 45 e4	 lea	 eax, DWORD PTR __k$[ebp]
  00200	c6 45 f6 00	 mov	 BYTE PTR __k$[ebp+18], 0
  00204	5a		 pop	 edx
$LL104@LoadString@4:
  00205	81 30 ed ec eb
	ea		 xor	 DWORD PTR [eax], -353637139 ; eaebecedH
  0020b	83 c0 04	 add	 eax, 4
  0020e	4a		 dec	 edx
  0020f	75 f4		 jne	 SHORT $LL104@LoadString@4
  00211	6a 10		 push	 16			; 00000010H
  00213	58		 pop	 eax
$LL101@LoadString@4:
  00214	8b c8		 mov	 ecx, eax
  00216	81 e1 03 00 00
	80		 and	 ecx, -2147483645	; 80000003H
  0021c	79 05		 jns	 SHORT $LN112@LoadString@4
  0021e	49		 dec	 ecx
  0021f	83 c9 fc	 or	 ecx, -4			; fffffffcH
  00222	41		 inc	 ecx
$LN112@LoadString@4:
  00223	b2 ed		 mov	 dl, -19			; ffffffedH
  00225	2a d1		 sub	 dl, cl
  00227	30 54 05 e4	 xor	 BYTE PTR __k$[ebp+eax], dl
  0022b	40		 inc	 eax
  0022c	83 f8 12	 cmp	 eax, 18			; 00000012H
  0022f	7c e3		 jl	 SHORT $LL101@LoadString@4

; 163  : 		LoadString(_k, d, b, i);

  00231	ff 75 14	 push	 DWORD PTR _i$[ebp]
  00234	8b 4d e0	 mov	 ecx, DWORD PTR _this$GSCopy$[ebp]
  00237	57		 push	 edi
  00238	56		 push	 esi
  00239	8d 45 e4	 lea	 eax, DWORD PTR __k$[ebp]
  0023c	50		 push	 eax
  0023d	ff 15 00 00 00
	00		 call	 DWORD PTR __imp_?LoadStringA@ioINILoader@@QAEXPBD0PADH@Z

; 164  : 	}

  00243	8b 4d fc	 mov	 ecx, DWORD PTR __$ArrayPad$[ebp]
  00246	5f		 pop	 edi
  00247	33 cd		 xor	 ecx, ebp
  00249	5e		 pop	 esi
  0024a	e8 00 00 00 00	 call	 @__security_check_cookie@4
  0024f	c9		 leave
  00250	c2 10 00	 ret	 16			; 00000010H
??$LoadString_e@$0BD@@ioINILoader@@QAEXAAY0BD@$$CBDAAY00$$CBDPADH@Z ENDP ; ioINILoader::LoadString_e<19>
_TEXT	ENDS
PUBLIC	__$ArrayPad$
PUBLIC	??$LoadBool_e@$0BE@@ioINILoader@@QAE_NAAY0BE@$$CBD_N@Z ; ioINILoader::LoadBool_e<20>
EXTRN	__imp_?LoadBool@ioINILoader@@QAE_NPBD_N@Z:PROC
; Function compile flags: /Ogsp
;	COMDAT ??$LoadBool_e@$0BE@@ioINILoader@@QAE_NAAY0BE@$$CBD_N@Z
_TEXT	SEGMENT
__k$ = -28						; size = 20
__$ArrayPad$ = -4					; size = 4
_k$ = 8							; size = 4
_b$ = 12						; size = 1
??$LoadBool_e@$0BE@@ioINILoader@@QAE_NAAY0BE@$$CBD_N@Z PROC ; ioINILoader::LoadBool_e<20>, COMDAT
; _this$ = ecx

; 101  : 	{

  00000	55		 push	 ebp
  00001	8b ec		 mov	 ebp, esp
  00003	83 ec 1c	 sub	 esp, 28			; 0000001cH
  00006	a1 00 00 00 00	 mov	 eax, DWORD PTR ___security_cookie
  0000b	33 c5		 xor	 eax, ebp
  0000d	89 45 fc	 mov	 DWORD PTR __$ArrayPad$[ebp], eax
  00010	8b 45 08	 mov	 eax, DWORD PTR _k$[ebp]

; 102  : 		_ENCSTR(k, _k);

  00013	8a 10		 mov	 dl, BYTE PTR [eax]
  00015	53		 push	 ebx
  00016	56		 push	 esi
  00017	8b f1		 mov	 esi, ecx
  00019	84 d2		 test	 dl, dl
  0001b	0f 84 dd 01 00
	00		 je	 $LN96@LoadBool_e
  00021	80 f2 ed	 xor	 dl, -19			; ffffffedH
  00024	88 55 e4	 mov	 BYTE PTR __k$[ebp], dl
  00027	8a 50 01	 mov	 dl, BYTE PTR [eax+1]
  0002a	84 d2		 test	 dl, dl
  0002c	0f 84 c6 01 00
	00		 je	 $LN95@LoadBool_e
  00032	b3 ec		 mov	 bl, -20			; ffffffecH
  00034	32 d3		 xor	 dl, bl
  00036	88 55 e5	 mov	 BYTE PTR __k$[ebp+1], dl
  00039	8a 50 02	 mov	 dl, BYTE PTR [eax+2]
  0003c	84 d2		 test	 dl, dl
  0003e	0f 84 ae 01 00
	00		 je	 $LN94@LoadBool_e
  00044	b1 eb		 mov	 cl, -21			; ffffffebH
  00046	32 d1		 xor	 dl, cl
  00048	88 55 e6	 mov	 BYTE PTR __k$[ebp+2], dl
  0004b	8a 50 03	 mov	 dl, BYTE PTR [eax+3]
  0004e	84 d2		 test	 dl, dl
  00050	0f 84 96 01 00
	00		 je	 $LN93@LoadBool_e
  00056	80 f2 ea	 xor	 dl, -22			; ffffffeaH
  00059	88 55 e7	 mov	 BYTE PTR __k$[ebp+3], dl
  0005c	8a 50 04	 mov	 dl, BYTE PTR [eax+4]
  0005f	84 d2		 test	 dl, dl
  00061	0f 84 7f 01 00
	00		 je	 $LN92@LoadBool_e
  00067	80 f2 ed	 xor	 dl, -19			; ffffffedH
  0006a	88 55 e8	 mov	 BYTE PTR __k$[ebp+4], dl
  0006d	8a 50 05	 mov	 dl, BYTE PTR [eax+5]
  00070	84 d2		 test	 dl, dl
  00072	0f 84 69 01 00
	00		 je	 $LN91@LoadBool_e
  00078	32 d3		 xor	 dl, bl
  0007a	88 55 e9	 mov	 BYTE PTR __k$[ebp+5], dl
  0007d	8a 50 06	 mov	 dl, BYTE PTR [eax+6]
  00080	84 d2		 test	 dl, dl
  00082	0f 84 54 01 00
	00		 je	 $LN90@LoadBool_e
  00088	32 d1		 xor	 dl, cl
  0008a	88 55 ea	 mov	 BYTE PTR __k$[ebp+6], dl
  0008d	8a 50 07	 mov	 dl, BYTE PTR [eax+7]
  00090	84 d2		 test	 dl, dl
  00092	0f 84 3e 01 00
	00		 je	 $LN89@LoadBool_e
  00098	80 f2 ea	 xor	 dl, -22			; ffffffeaH
  0009b	88 55 eb	 mov	 BYTE PTR __k$[ebp+7], dl
  0009e	8a 50 08	 mov	 dl, BYTE PTR [eax+8]
  000a1	84 d2		 test	 dl, dl
  000a3	0f 84 27 01 00
	00		 je	 $LN88@LoadBool_e
  000a9	80 f2 ed	 xor	 dl, -19			; ffffffedH
  000ac	88 55 ec	 mov	 BYTE PTR __k$[ebp+8], dl
  000af	8a 50 09	 mov	 dl, BYTE PTR [eax+9]
  000b2	84 d2		 test	 dl, dl
  000b4	0f 84 11 01 00
	00		 je	 $LN87@LoadBool_e
  000ba	32 d3		 xor	 dl, bl
  000bc	88 55 ed	 mov	 BYTE PTR __k$[ebp+9], dl
  000bf	8a 50 0a	 mov	 dl, BYTE PTR [eax+10]
  000c2	84 d2		 test	 dl, dl
  000c4	0f 84 fc 00 00
	00		 je	 $LN86@LoadBool_e
  000ca	32 d1		 xor	 dl, cl
  000cc	88 55 ee	 mov	 BYTE PTR __k$[ebp+10], dl
  000cf	8a 50 0b	 mov	 dl, BYTE PTR [eax+11]
  000d2	84 d2		 test	 dl, dl
  000d4	0f 84 e6 00 00
	00		 je	 $LN85@LoadBool_e
  000da	80 f2 ea	 xor	 dl, -22			; ffffffeaH
  000dd	88 55 ef	 mov	 BYTE PTR __k$[ebp+11], dl
  000e0	8a 50 0c	 mov	 dl, BYTE PTR [eax+12]
  000e3	84 d2		 test	 dl, dl
  000e5	0f 84 cf 00 00
	00		 je	 $LN84@LoadBool_e
  000eb	80 f2 ed	 xor	 dl, -19			; ffffffedH
  000ee	88 55 f0	 mov	 BYTE PTR __k$[ebp+12], dl
  000f1	8a 50 0d	 mov	 dl, BYTE PTR [eax+13]
  000f4	84 d2		 test	 dl, dl
  000f6	0f 84 b9 00 00
	00		 je	 $LN83@LoadBool_e
  000fc	32 d3		 xor	 dl, bl
  000fe	88 55 f1	 mov	 BYTE PTR __k$[ebp+13], dl
  00101	8a 50 0e	 mov	 dl, BYTE PTR [eax+14]
  00104	84 d2		 test	 dl, dl
  00106	0f 84 a4 00 00
	00		 je	 $LN82@LoadBool_e
  0010c	32 d1		 xor	 dl, cl
  0010e	88 55 f2	 mov	 BYTE PTR __k$[ebp+14], dl
  00111	8a 50 0f	 mov	 dl, BYTE PTR [eax+15]
  00114	84 d2		 test	 dl, dl
  00116	0f 84 8e 00 00
	00		 je	 $LN81@LoadBool_e
  0011c	80 f2 ea	 xor	 dl, -22			; ffffffeaH
  0011f	88 55 f3	 mov	 BYTE PTR __k$[ebp+15], dl
  00122	8a 50 10	 mov	 dl, BYTE PTR [eax+16]
  00125	84 d2		 test	 dl, dl
  00127	74 7b		 je	 SHORT $LN80@LoadBool_e
  00129	80 f2 ed	 xor	 dl, -19			; ffffffedH
  0012c	88 55 f4	 mov	 BYTE PTR __k$[ebp+16], dl
  0012f	8a 50 11	 mov	 dl, BYTE PTR [eax+17]
  00132	84 d2		 test	 dl, dl
  00134	74 69		 je	 SHORT $LN79@LoadBool_e
  00136	32 d3		 xor	 dl, bl
  00138	88 55 f5	 mov	 BYTE PTR __k$[ebp+17], dl
  0013b	8a 50 12	 mov	 dl, BYTE PTR [eax+18]
  0013e	84 d2		 test	 dl, dl
  00140	74 58		 je	 SHORT $LN78@LoadBool_e
  00142	32 d1		 xor	 dl, cl
  00144	80 78 13 00	 cmp	 BYTE PTR [eax+19], 0
  00148	88 55 f6	 mov	 BYTE PTR __k$[ebp+18], dl
  0014b	0f 84 b1 00 00
	00		 je	 $LN1@LoadBool_e
  00151	8a 50 14	 mov	 dl, BYTE PTR [eax+20]
  00154	84 d2		 test	 dl, dl
  00156	74 3c		 je	 SHORT $LN76@LoadBool_e
  00158	80 f2 ed	 xor	 dl, -19			; ffffffedH
  0015b	88 55 f8	 mov	 BYTE PTR __k$[ebp+20], dl
  0015e	8a 50 15	 mov	 dl, BYTE PTR [eax+21]
  00161	84 d2		 test	 dl, dl
  00163	74 2a		 je	 SHORT $LN75@LoadBool_e
  00165	32 d3		 xor	 dl, bl
  00167	88 55 f9	 mov	 BYTE PTR __k$[ebp+21], dl
  0016a	8a 50 16	 mov	 dl, BYTE PTR [eax+22]
  0016d	84 d2		 test	 dl, dl
  0016f	74 19		 je	 SHORT $LN74@LoadBool_e
  00171	8a 40 17	 mov	 al, BYTE PTR [eax+23]
  00174	32 d1		 xor	 dl, cl
  00176	88 55 fa	 mov	 BYTE PTR __k$[ebp+22], dl
  00179	84 c0		 test	 al, al
  0017b	74 07		 je	 SHORT $LN73@LoadBool_e
  0017d	34 ea		 xor	 al, -22			; ffffffeaH
  0017f	88 45 fb	 mov	 BYTE PTR __k$[ebp+23], al
  00182	eb 7e		 jmp	 SHORT $LN1@LoadBool_e
$LN73@LoadBool_e:
  00184	c6 45 fb ea	 mov	 BYTE PTR __k$[ebp+23], -22 ; ffffffeaH
  00188	eb 78		 jmp	 SHORT $LN1@LoadBool_e
$LN74@LoadBool_e:
  0018a	88 4d fa	 mov	 BYTE PTR __k$[ebp+22], cl
  0018d	eb 73		 jmp	 SHORT $LN1@LoadBool_e
$LN75@LoadBool_e:
  0018f	88 5d f9	 mov	 BYTE PTR __k$[ebp+21], bl
  00192	eb 6e		 jmp	 SHORT $LN1@LoadBool_e
$LN76@LoadBool_e:
  00194	c6 45 f8 ed	 mov	 BYTE PTR __k$[ebp+20], -19 ; ffffffedH
  00198	eb 68		 jmp	 SHORT $LN1@LoadBool_e
$LN78@LoadBool_e:
  0019a	88 4d f6	 mov	 BYTE PTR __k$[ebp+18], cl
  0019d	eb 63		 jmp	 SHORT $LN1@LoadBool_e
$LN79@LoadBool_e:
  0019f	88 5d f5	 mov	 BYTE PTR __k$[ebp+17], bl
  001a2	eb 5e		 jmp	 SHORT $LN1@LoadBool_e
$LN80@LoadBool_e:
  001a4	c6 45 f4 ed	 mov	 BYTE PTR __k$[ebp+16], -19 ; ffffffedH
  001a8	eb 58		 jmp	 SHORT $LN1@LoadBool_e
$LN81@LoadBool_e:
  001aa	c6 45 f3 ea	 mov	 BYTE PTR __k$[ebp+15], -22 ; ffffffeaH
  001ae	eb 52		 jmp	 SHORT $LN1@LoadBool_e
$LN82@LoadBool_e:
  001b0	88 4d f2	 mov	 BYTE PTR __k$[ebp+14], cl
  001b3	eb 4d		 jmp	 SHORT $LN1@LoadBool_e
$LN83@LoadBool_e:
  001b5	88 5d f1	 mov	 BYTE PTR __k$[ebp+13], bl
  001b8	eb 48		 jmp	 SHORT $LN1@LoadBool_e
$LN84@LoadBool_e:
  001ba	c6 45 f0 ed	 mov	 BYTE PTR __k$[ebp+12], -19 ; ffffffedH
  001be	eb 42		 jmp	 SHORT $LN1@LoadBool_e
$LN85@LoadBool_e:
  001c0	c6 45 ef ea	 mov	 BYTE PTR __k$[ebp+11], -22 ; ffffffeaH
  001c4	eb 3c		 jmp	 SHORT $LN1@LoadBool_e
$LN86@LoadBool_e:
  001c6	88 4d ee	 mov	 BYTE PTR __k$[ebp+10], cl
  001c9	eb 37		 jmp	 SHORT $LN1@LoadBool_e
$LN87@LoadBool_e:
  001cb	88 5d ed	 mov	 BYTE PTR __k$[ebp+9], bl
  001ce	eb 32		 jmp	 SHORT $LN1@LoadBool_e
$LN88@LoadBool_e:
  001d0	c6 45 ec ed	 mov	 BYTE PTR __k$[ebp+8], -19 ; ffffffedH
  001d4	eb 2c		 jmp	 SHORT $LN1@LoadBool_e
$LN89@LoadBool_e:
  001d6	c6 45 eb ea	 mov	 BYTE PTR __k$[ebp+7], -22 ; ffffffeaH
  001da	eb 26		 jmp	 SHORT $LN1@LoadBool_e
$LN90@LoadBool_e:
  001dc	88 4d ea	 mov	 BYTE PTR __k$[ebp+6], cl
  001df	eb 21		 jmp	 SHORT $LN1@LoadBool_e
$LN91@LoadBool_e:
  001e1	88 5d e9	 mov	 BYTE PTR __k$[ebp+5], bl
  001e4	eb 1c		 jmp	 SHORT $LN1@LoadBool_e
$LN92@LoadBool_e:
  001e6	c6 45 e8 ed	 mov	 BYTE PTR __k$[ebp+4], -19 ; ffffffedH
  001ea	eb 16		 jmp	 SHORT $LN1@LoadBool_e
$LN93@LoadBool_e:
  001ec	c6 45 e7 ea	 mov	 BYTE PTR __k$[ebp+3], -22 ; ffffffeaH
  001f0	eb 10		 jmp	 SHORT $LN1@LoadBool_e
$LN94@LoadBool_e:
  001f2	c6 45 e6 eb	 mov	 BYTE PTR __k$[ebp+2], -21 ; ffffffebH
  001f6	eb 0a		 jmp	 SHORT $LN1@LoadBool_e
$LN95@LoadBool_e:
  001f8	c6 45 e5 ec	 mov	 BYTE PTR __k$[ebp+1], -20 ; ffffffecH
  001fc	eb 04		 jmp	 SHORT $LN1@LoadBool_e
$LN96@LoadBool_e:
  001fe	c6 45 e4 ed	 mov	 BYTE PTR __k$[ebp], -19	; ffffffedH
$LN1@LoadBool_e:
  00202	6a 04		 push	 4
  00204	8d 45 e4	 lea	 eax, DWORD PTR __k$[ebp]
  00207	c6 45 f7 00	 mov	 BYTE PTR __k$[ebp+19], 0
  0020b	5a		 pop	 edx
$LL104@LoadBool_e:
  0020c	81 30 ed ec eb
	ea		 xor	 DWORD PTR [eax], -353637139 ; eaebecedH
  00212	83 c0 04	 add	 eax, 4
  00215	4a		 dec	 edx
  00216	75 f4		 jne	 SHORT $LL104@LoadBool_e
  00218	6a 10		 push	 16			; 00000010H
  0021a	58		 pop	 eax
$LL101@LoadBool_e:
  0021b	8b c8		 mov	 ecx, eax
  0021d	81 e1 03 00 00
	80		 and	 ecx, -2147483645	; 80000003H
  00223	79 05		 jns	 SHORT $LN111@LoadBool_e
  00225	49		 dec	 ecx
  00226	83 c9 fc	 or	 ecx, -4			; fffffffcH
  00229	41		 inc	 ecx
$LN111@LoadBool_e:
  0022a	b2 ed		 mov	 dl, -19			; ffffffedH
  0022c	2a d1		 sub	 dl, cl
  0022e	30 54 05 e4	 xor	 BYTE PTR __k$[ebp+eax], dl
  00232	40		 inc	 eax
  00233	83 f8 13	 cmp	 eax, 19			; 00000013H
  00236	7c e3		 jl	 SHORT $LL101@LoadBool_e

; 103  : 		return LoadBool(_k, b);

  00238	ff 75 0c	 push	 DWORD PTR _b$[ebp]
  0023b	8d 45 e4	 lea	 eax, DWORD PTR __k$[ebp]
  0023e	50		 push	 eax
  0023f	8b ce		 mov	 ecx, esi
  00241	ff 15 00 00 00
	00		 call	 DWORD PTR __imp_?LoadBool@ioINILoader@@QAE_NPBD_N@Z

; 104  : 	}

  00247	8b 4d fc	 mov	 ecx, DWORD PTR __$ArrayPad$[ebp]
  0024a	5e		 pop	 esi
  0024b	33 cd		 xor	 ecx, ebp
  0024d	5b		 pop	 ebx
  0024e	e8 00 00 00 00	 call	 @__security_check_cookie@4
  00253	c9		 leave
  00254	c2 08 00	 ret	 8
??$LoadBool_e@$0BE@@ioINILoader@@QAE_NAAY0BE@$$CBD_N@Z ENDP ; ioINILoader::LoadBool_e<20>
_TEXT	ENDS
PUBLIC	__$ArrayPad$
PUBLIC	??$LoadInt_e@$0BE@@ioINILoader@@QAEHAAY0BE@$$CBDH@Z ; ioINILoader::LoadInt_e<20>
EXTRN	__imp_?LoadInt@ioINILoader@@QAEHPBDH@Z:PROC
; Function compile flags: /Ogsp
;	COMDAT ??$LoadInt_e@$0BE@@ioINILoader@@QAEHAAY0BE@$$CBDH@Z
_TEXT	SEGMENT
__k$ = -28						; size = 20
__$ArrayPad$ = -4					; size = 4
_k$ = 8							; size = 4
_i$ = 12						; size = 4
??$LoadInt_e@$0BE@@ioINILoader@@QAEHAAY0BE@$$CBDH@Z PROC ; ioINILoader::LoadInt_e<20>, COMDAT
; _this$ = ecx

; 118  : 	{

  00000	55		 push	 ebp
  00001	8b ec		 mov	 ebp, esp
  00003	83 ec 1c	 sub	 esp, 28			; 0000001cH
  00006	a1 00 00 00 00	 mov	 eax, DWORD PTR ___security_cookie
  0000b	33 c5		 xor	 eax, ebp
  0000d	89 45 fc	 mov	 DWORD PTR __$ArrayPad$[ebp], eax
  00010	8b 45 08	 mov	 eax, DWORD PTR _k$[ebp]

; 119  : 		_ENCSTR(k, _k);

  00013	8a 10		 mov	 dl, BYTE PTR [eax]
  00015	53		 push	 ebx
  00016	56		 push	 esi
  00017	8b f1		 mov	 esi, ecx
  00019	84 d2		 test	 dl, dl
  0001b	0f 84 dd 01 00
	00		 je	 $LN96@LoadInt_e
  00021	80 f2 ed	 xor	 dl, -19			; ffffffedH
  00024	88 55 e4	 mov	 BYTE PTR __k$[ebp], dl
  00027	8a 50 01	 mov	 dl, BYTE PTR [eax+1]
  0002a	84 d2		 test	 dl, dl
  0002c	0f 84 c6 01 00
	00		 je	 $LN95@LoadInt_e
  00032	b3 ec		 mov	 bl, -20			; ffffffecH
  00034	32 d3		 xor	 dl, bl
  00036	88 55 e5	 mov	 BYTE PTR __k$[ebp+1], dl
  00039	8a 50 02	 mov	 dl, BYTE PTR [eax+2]
  0003c	84 d2		 test	 dl, dl
  0003e	0f 84 ae 01 00
	00		 je	 $LN94@LoadInt_e
  00044	b1 eb		 mov	 cl, -21			; ffffffebH
  00046	32 d1		 xor	 dl, cl
  00048	88 55 e6	 mov	 BYTE PTR __k$[ebp+2], dl
  0004b	8a 50 03	 mov	 dl, BYTE PTR [eax+3]
  0004e	84 d2		 test	 dl, dl
  00050	0f 84 96 01 00
	00		 je	 $LN93@LoadInt_e
  00056	80 f2 ea	 xor	 dl, -22			; ffffffeaH
  00059	88 55 e7	 mov	 BYTE PTR __k$[ebp+3], dl
  0005c	8a 50 04	 mov	 dl, BYTE PTR [eax+4]
  0005f	84 d2		 test	 dl, dl
  00061	0f 84 7f 01 00
	00		 je	 $LN92@LoadInt_e
  00067	80 f2 ed	 xor	 dl, -19			; ffffffedH
  0006a	88 55 e8	 mov	 BYTE PTR __k$[ebp+4], dl
  0006d	8a 50 05	 mov	 dl, BYTE PTR [eax+5]
  00070	84 d2		 test	 dl, dl
  00072	0f 84 69 01 00
	00		 je	 $LN91@LoadInt_e
  00078	32 d3		 xor	 dl, bl
  0007a	88 55 e9	 mov	 BYTE PTR __k$[ebp+5], dl
  0007d	8a 50 06	 mov	 dl, BYTE PTR [eax+6]
  00080	84 d2		 test	 dl, dl
  00082	0f 84 54 01 00
	00		 je	 $LN90@LoadInt_e
  00088	32 d1		 xor	 dl, cl
  0008a	88 55 ea	 mov	 BYTE PTR __k$[ebp+6], dl
  0008d	8a 50 07	 mov	 dl, BYTE PTR [eax+7]
  00090	84 d2		 test	 dl, dl
  00092	0f 84 3e 01 00
	00		 je	 $LN89@LoadInt_e
  00098	80 f2 ea	 xor	 dl, -22			; ffffffeaH
  0009b	88 55 eb	 mov	 BYTE PTR __k$[ebp+7], dl
  0009e	8a 50 08	 mov	 dl, BYTE PTR [eax+8]
  000a1	84 d2		 test	 dl, dl
  000a3	0f 84 27 01 00
	00		 je	 $LN88@LoadInt_e
  000a9	80 f2 ed	 xor	 dl, -19			; ffffffedH
  000ac	88 55 ec	 mov	 BYTE PTR __k$[ebp+8], dl
  000af	8a 50 09	 mov	 dl, BYTE PTR [eax+9]
  000b2	84 d2		 test	 dl, dl
  000b4	0f 84 11 01 00
	00		 je	 $LN87@LoadInt_e
  000ba	32 d3		 xor	 dl, bl
  000bc	88 55 ed	 mov	 BYTE PTR __k$[ebp+9], dl
  000bf	8a 50 0a	 mov	 dl, BYTE PTR [eax+10]
  000c2	84 d2		 test	 dl, dl
  000c4	0f 84 fc 00 00
	00		 je	 $LN86@LoadInt_e
  000ca	32 d1		 xor	 dl, cl
  000cc	88 55 ee	 mov	 BYTE PTR __k$[ebp+10], dl
  000cf	8a 50 0b	 mov	 dl, BYTE PTR [eax+11]
  000d2	84 d2		 test	 dl, dl
  000d4	0f 84 e6 00 00
	00		 je	 $LN85@LoadInt_e
  000da	80 f2 ea	 xor	 dl, -22			; ffffffeaH
  000dd	88 55 ef	 mov	 BYTE PTR __k$[ebp+11], dl
  000e0	8a 50 0c	 mov	 dl, BYTE PTR [eax+12]
  000e3	84 d2		 test	 dl, dl
  000e5	0f 84 cf 00 00
	00		 je	 $LN84@LoadInt_e
  000eb	80 f2 ed	 xor	 dl, -19			; ffffffedH
  000ee	88 55 f0	 mov	 BYTE PTR __k$[ebp+12], dl
  000f1	8a 50 0d	 mov	 dl, BYTE PTR [eax+13]
  000f4	84 d2		 test	 dl, dl
  000f6	0f 84 b9 00 00
	00		 je	 $LN83@LoadInt_e
  000fc	32 d3		 xor	 dl, bl
  000fe	88 55 f1	 mov	 BYTE PTR __k$[ebp+13], dl
  00101	8a 50 0e	 mov	 dl, BYTE PTR [eax+14]
  00104	84 d2		 test	 dl, dl
  00106	0f 84 a4 00 00
	00		 je	 $LN82@LoadInt_e
  0010c	32 d1		 xor	 dl, cl
  0010e	88 55 f2	 mov	 BYTE PTR __k$[ebp+14], dl
  00111	8a 50 0f	 mov	 dl, BYTE PTR [eax+15]
  00114	84 d2		 test	 dl, dl
  00116	0f 84 8e 00 00
	00		 je	 $LN81@LoadInt_e
  0011c	80 f2 ea	 xor	 dl, -22			; ffffffeaH
  0011f	88 55 f3	 mov	 BYTE PTR __k$[ebp+15], dl
  00122	8a 50 10	 mov	 dl, BYTE PTR [eax+16]
  00125	84 d2		 test	 dl, dl
  00127	74 7b		 je	 SHORT $LN80@LoadInt_e
  00129	80 f2 ed	 xor	 dl, -19			; ffffffedH
  0012c	88 55 f4	 mov	 BYTE PTR __k$[ebp+16], dl
  0012f	8a 50 11	 mov	 dl, BYTE PTR [eax+17]
  00132	84 d2		 test	 dl, dl
  00134	74 69		 je	 SHORT $LN79@LoadInt_e
  00136	32 d3		 xor	 dl, bl
  00138	88 55 f5	 mov	 BYTE PTR __k$[ebp+17], dl
  0013b	8a 50 12	 mov	 dl, BYTE PTR [eax+18]
  0013e	84 d2		 test	 dl, dl
  00140	74 58		 je	 SHORT $LN78@LoadInt_e
  00142	32 d1		 xor	 dl, cl
  00144	80 78 13 00	 cmp	 BYTE PTR [eax+19], 0
  00148	88 55 f6	 mov	 BYTE PTR __k$[ebp+18], dl
  0014b	0f 84 b1 00 00
	00		 je	 $LN1@LoadInt_e
  00151	8a 50 14	 mov	 dl, BYTE PTR [eax+20]
  00154	84 d2		 test	 dl, dl
  00156	74 3c		 je	 SHORT $LN76@LoadInt_e
  00158	80 f2 ed	 xor	 dl, -19			; ffffffedH
  0015b	88 55 f8	 mov	 BYTE PTR __k$[ebp+20], dl
  0015e	8a 50 15	 mov	 dl, BYTE PTR [eax+21]
  00161	84 d2		 test	 dl, dl
  00163	74 2a		 je	 SHORT $LN75@LoadInt_e
  00165	32 d3		 xor	 dl, bl
  00167	88 55 f9	 mov	 BYTE PTR __k$[ebp+21], dl
  0016a	8a 50 16	 mov	 dl, BYTE PTR [eax+22]
  0016d	84 d2		 test	 dl, dl
  0016f	74 19		 je	 SHORT $LN74@LoadInt_e
  00171	8a 40 17	 mov	 al, BYTE PTR [eax+23]
  00174	32 d1		 xor	 dl, cl
  00176	88 55 fa	 mov	 BYTE PTR __k$[ebp+22], dl
  00179	84 c0		 test	 al, al
  0017b	74 07		 je	 SHORT $LN73@LoadInt_e
  0017d	34 ea		 xor	 al, -22			; ffffffeaH
  0017f	88 45 fb	 mov	 BYTE PTR __k$[ebp+23], al
  00182	eb 7e		 jmp	 SHORT $LN1@LoadInt_e
$LN73@LoadInt_e:
  00184	c6 45 fb ea	 mov	 BYTE PTR __k$[ebp+23], -22 ; ffffffeaH
  00188	eb 78		 jmp	 SHORT $LN1@LoadInt_e
$LN74@LoadInt_e:
  0018a	88 4d fa	 mov	 BYTE PTR __k$[ebp+22], cl
  0018d	eb 73		 jmp	 SHORT $LN1@LoadInt_e
$LN75@LoadInt_e:
  0018f	88 5d f9	 mov	 BYTE PTR __k$[ebp+21], bl
  00192	eb 6e		 jmp	 SHORT $LN1@LoadInt_e
$LN76@LoadInt_e:
  00194	c6 45 f8 ed	 mov	 BYTE PTR __k$[ebp+20], -19 ; ffffffedH
  00198	eb 68		 jmp	 SHORT $LN1@LoadInt_e
$LN78@LoadInt_e:
  0019a	88 4d f6	 mov	 BYTE PTR __k$[ebp+18], cl
  0019d	eb 63		 jmp	 SHORT $LN1@LoadInt_e
$LN79@LoadInt_e:
  0019f	88 5d f5	 mov	 BYTE PTR __k$[ebp+17], bl
  001a2	eb 5e		 jmp	 SHORT $LN1@LoadInt_e
$LN80@LoadInt_e:
  001a4	c6 45 f4 ed	 mov	 BYTE PTR __k$[ebp+16], -19 ; ffffffedH
  001a8	eb 58		 jmp	 SHORT $LN1@LoadInt_e
$LN81@LoadInt_e:
  001aa	c6 45 f3 ea	 mov	 BYTE PTR __k$[ebp+15], -22 ; ffffffeaH
  001ae	eb 52		 jmp	 SHORT $LN1@LoadInt_e
$LN82@LoadInt_e:
  001b0	88 4d f2	 mov	 BYTE PTR __k$[ebp+14], cl
  001b3	eb 4d		 jmp	 SHORT $LN1@LoadInt_e
$LN83@LoadInt_e:
  001b5	88 5d f1	 mov	 BYTE PTR __k$[ebp+13], bl
  001b8	eb 48		 jmp	 SHORT $LN1@LoadInt_e
$LN84@LoadInt_e:
  001ba	c6 45 f0 ed	 mov	 BYTE PTR __k$[ebp+12], -19 ; ffffffedH
  001be	eb 42		 jmp	 SHORT $LN1@LoadInt_e
$LN85@LoadInt_e:
  001c0	c6 45 ef ea	 mov	 BYTE PTR __k$[ebp+11], -22 ; ffffffeaH
  001c4	eb 3c		 jmp	 SHORT $LN1@LoadInt_e
$LN86@LoadInt_e:
  001c6	88 4d ee	 mov	 BYTE PTR __k$[ebp+10], cl
  001c9	eb 37		 jmp	 SHORT $LN1@LoadInt_e
$LN87@LoadInt_e:
  001cb	88 5d ed	 mov	 BYTE PTR __k$[ebp+9], bl
  001ce	eb 32		 jmp	 SHORT $LN1@LoadInt_e
$LN88@LoadInt_e:
  001d0	c6 45 ec ed	 mov	 BYTE PTR __k$[ebp+8], -19 ; ffffffedH
  001d4	eb 2c		 jmp	 SHORT $LN1@LoadInt_e
$LN89@LoadInt_e:
  001d6	c6 45 eb ea	 mov	 BYTE PTR __k$[ebp+7], -22 ; ffffffeaH
  001da	eb 26		 jmp	 SHORT $LN1@LoadInt_e
$LN90@LoadInt_e:
  001dc	88 4d ea	 mov	 BYTE PTR __k$[ebp+6], cl
  001df	eb 21		 jmp	 SHORT $LN1@LoadInt_e
$LN91@LoadInt_e:
  001e1	88 5d e9	 mov	 BYTE PTR __k$[ebp+5], bl
  001e4	eb 1c		 jmp	 SHORT $LN1@LoadInt_e
$LN92@LoadInt_e:
  001e6	c6 45 e8 ed	 mov	 BYTE PTR __k$[ebp+4], -19 ; ffffffedH
  001ea	eb 16		 jmp	 SHORT $LN1@LoadInt_e
$LN93@LoadInt_e:
  001ec	c6 45 e7 ea	 mov	 BYTE PTR __k$[ebp+3], -22 ; ffffffeaH
  001f0	eb 10		 jmp	 SHORT $LN1@LoadInt_e
$LN94@LoadInt_e:
  001f2	c6 45 e6 eb	 mov	 BYTE PTR __k$[ebp+2], -21 ; ffffffebH
  001f6	eb 0a		 jmp	 SHORT $LN1@LoadInt_e
$LN95@LoadInt_e:
  001f8	c6 45 e5 ec	 mov	 BYTE PTR __k$[ebp+1], -20 ; ffffffecH
  001fc	eb 04		 jmp	 SHORT $LN1@LoadInt_e
$LN96@LoadInt_e:
  001fe	c6 45 e4 ed	 mov	 BYTE PTR __k$[ebp], -19	; ffffffedH
$LN1@LoadInt_e:
  00202	6a 04		 push	 4
  00204	8d 45 e4	 lea	 eax, DWORD PTR __k$[ebp]
  00207	c6 45 f7 00	 mov	 BYTE PTR __k$[ebp+19], 0
  0020b	5a		 pop	 edx
$LL104@LoadInt_e:
  0020c	81 30 ed ec eb
	ea		 xor	 DWORD PTR [eax], -353637139 ; eaebecedH
  00212	83 c0 04	 add	 eax, 4
  00215	4a		 dec	 edx
  00216	75 f4		 jne	 SHORT $LL104@LoadInt_e
  00218	6a 10		 push	 16			; 00000010H
  0021a	58		 pop	 eax
$LL101@LoadInt_e:
  0021b	8b c8		 mov	 ecx, eax
  0021d	81 e1 03 00 00
	80		 and	 ecx, -2147483645	; 80000003H
  00223	79 05		 jns	 SHORT $LN111@LoadInt_e
  00225	49		 dec	 ecx
  00226	83 c9 fc	 or	 ecx, -4			; fffffffcH
  00229	41		 inc	 ecx
$LN111@LoadInt_e:
  0022a	b2 ed		 mov	 dl, -19			; ffffffedH
  0022c	2a d1		 sub	 dl, cl
  0022e	30 54 05 e4	 xor	 BYTE PTR __k$[ebp+eax], dl
  00232	40		 inc	 eax
  00233	83 f8 13	 cmp	 eax, 19			; 00000013H
  00236	7c e3		 jl	 SHORT $LL101@LoadInt_e

; 120  : 		return LoadInt(_k, i);

  00238	ff 75 0c	 push	 DWORD PTR _i$[ebp]
  0023b	8d 45 e4	 lea	 eax, DWORD PTR __k$[ebp]
  0023e	50		 push	 eax
  0023f	8b ce		 mov	 ecx, esi
  00241	ff 15 00 00 00
	00		 call	 DWORD PTR __imp_?LoadInt@ioINILoader@@QAEHPBDH@Z

; 121  : 	}

  00247	8b 4d fc	 mov	 ecx, DWORD PTR __$ArrayPad$[ebp]
  0024a	5e		 pop	 esi
  0024b	33 cd		 xor	 ecx, ebp
  0024d	5b		 pop	 ebx
  0024e	e8 00 00 00 00	 call	 @__security_check_cookie@4
  00253	c9		 leave
  00254	c2 08 00	 ret	 8
??$LoadInt_e@$0BE@@ioINILoader@@QAEHAAY0BE@$$CBDH@Z ENDP ; ioINILoader::LoadInt_e<20>
_TEXT	ENDS
PUBLIC	__$ArrayPad$
PUBLIC	??$LoadInt_e@$0BF@@ioINILoader@@QAEHAAY0BF@$$CBDH@Z ; ioINILoader::LoadInt_e<21>
; Function compile flags: /Ogsp
;	COMDAT ??$LoadInt_e@$0BF@@ioINILoader@@QAEHAAY0BF@$$CBDH@Z
_TEXT	SEGMENT
__k$ = -32						; size = 21
__$ArrayPad$ = -4					; size = 4
_k$ = 8							; size = 4
_i$ = 12						; size = 4
??$LoadInt_e@$0BF@@ioINILoader@@QAEHAAY0BF@$$CBDH@Z PROC ; ioINILoader::LoadInt_e<21>, COMDAT
; _this$ = ecx

; 118  : 	{

  00000	55		 push	 ebp
  00001	8b ec		 mov	 ebp, esp
  00003	83 ec 20	 sub	 esp, 32			; 00000020H
  00006	a1 00 00 00 00	 mov	 eax, DWORD PTR ___security_cookie
  0000b	33 c5		 xor	 eax, ebp
  0000d	89 45 fc	 mov	 DWORD PTR __$ArrayPad$[ebp], eax
  00010	8b 45 08	 mov	 eax, DWORD PTR _k$[ebp]

; 119  : 		_ENCSTR(k, _k);

  00013	8a 10		 mov	 dl, BYTE PTR [eax]
  00015	53		 push	 ebx
  00016	56		 push	 esi
  00017	8b f1		 mov	 esi, ecx
  00019	84 d2		 test	 dl, dl
  0001b	0f 84 f7 01 00
	00		 je	 $LN96@LoadInt_e@2
  00021	80 f2 ed	 xor	 dl, -19			; ffffffedH
  00024	88 55 e0	 mov	 BYTE PTR __k$[ebp], dl
  00027	8a 50 01	 mov	 dl, BYTE PTR [eax+1]
  0002a	84 d2		 test	 dl, dl
  0002c	0f 84 e0 01 00
	00		 je	 $LN95@LoadInt_e@2
  00032	b1 ec		 mov	 cl, -20			; ffffffecH
  00034	32 d1		 xor	 dl, cl
  00036	88 55 e1	 mov	 BYTE PTR __k$[ebp+1], dl
  00039	8a 50 02	 mov	 dl, BYTE PTR [eax+2]
  0003c	84 d2		 test	 dl, dl
  0003e	0f 84 c8 01 00
	00		 je	 $LN94@LoadInt_e@2
  00044	b3 eb		 mov	 bl, -21			; ffffffebH
  00046	32 d3		 xor	 dl, bl
  00048	88 55 e2	 mov	 BYTE PTR __k$[ebp+2], dl
  0004b	8a 50 03	 mov	 dl, BYTE PTR [eax+3]
  0004e	84 d2		 test	 dl, dl
  00050	0f 84 b0 01 00
	00		 je	 $LN93@LoadInt_e@2
  00056	80 f2 ea	 xor	 dl, -22			; ffffffeaH
  00059	88 55 e3	 mov	 BYTE PTR __k$[ebp+3], dl
  0005c	8a 50 04	 mov	 dl, BYTE PTR [eax+4]
  0005f	84 d2		 test	 dl, dl
  00061	0f 84 99 01 00
	00		 je	 $LN92@LoadInt_e@2
  00067	80 f2 ed	 xor	 dl, -19			; ffffffedH
  0006a	88 55 e4	 mov	 BYTE PTR __k$[ebp+4], dl
  0006d	8a 50 05	 mov	 dl, BYTE PTR [eax+5]
  00070	84 d2		 test	 dl, dl
  00072	0f 84 83 01 00
	00		 je	 $LN91@LoadInt_e@2
  00078	32 d1		 xor	 dl, cl
  0007a	88 55 e5	 mov	 BYTE PTR __k$[ebp+5], dl
  0007d	8a 50 06	 mov	 dl, BYTE PTR [eax+6]
  00080	84 d2		 test	 dl, dl
  00082	0f 84 6e 01 00
	00		 je	 $LN90@LoadInt_e@2
  00088	32 d3		 xor	 dl, bl
  0008a	88 55 e6	 mov	 BYTE PTR __k$[ebp+6], dl
  0008d	8a 50 07	 mov	 dl, BYTE PTR [eax+7]
  00090	84 d2		 test	 dl, dl
  00092	0f 84 58 01 00
	00		 je	 $LN89@LoadInt_e@2
  00098	80 f2 ea	 xor	 dl, -22			; ffffffeaH
  0009b	88 55 e7	 mov	 BYTE PTR __k$[ebp+7], dl
  0009e	8a 50 08	 mov	 dl, BYTE PTR [eax+8]
  000a1	84 d2		 test	 dl, dl
  000a3	0f 84 41 01 00
	00		 je	 $LN88@LoadInt_e@2
  000a9	80 f2 ed	 xor	 dl, -19			; ffffffedH
  000ac	88 55 e8	 mov	 BYTE PTR __k$[ebp+8], dl
  000af	8a 50 09	 mov	 dl, BYTE PTR [eax+9]
  000b2	84 d2		 test	 dl, dl
  000b4	0f 84 2b 01 00
	00		 je	 $LN87@LoadInt_e@2
  000ba	32 d1		 xor	 dl, cl
  000bc	88 55 e9	 mov	 BYTE PTR __k$[ebp+9], dl
  000bf	8a 50 0a	 mov	 dl, BYTE PTR [eax+10]
  000c2	84 d2		 test	 dl, dl
  000c4	0f 84 16 01 00
	00		 je	 $LN86@LoadInt_e@2
  000ca	32 d3		 xor	 dl, bl
  000cc	88 55 ea	 mov	 BYTE PTR __k$[ebp+10], dl
  000cf	8a 50 0b	 mov	 dl, BYTE PTR [eax+11]
  000d2	84 d2		 test	 dl, dl
  000d4	0f 84 00 01 00
	00		 je	 $LN85@LoadInt_e@2
  000da	80 f2 ea	 xor	 dl, -22			; ffffffeaH
  000dd	88 55 eb	 mov	 BYTE PTR __k$[ebp+11], dl
  000e0	8a 50 0c	 mov	 dl, BYTE PTR [eax+12]
  000e3	84 d2		 test	 dl, dl
  000e5	0f 84 e9 00 00
	00		 je	 $LN84@LoadInt_e@2
  000eb	80 f2 ed	 xor	 dl, -19			; ffffffedH
  000ee	88 55 ec	 mov	 BYTE PTR __k$[ebp+12], dl
  000f1	8a 50 0d	 mov	 dl, BYTE PTR [eax+13]
  000f4	84 d2		 test	 dl, dl
  000f6	0f 84 d3 00 00
	00		 je	 $LN83@LoadInt_e@2
  000fc	32 d1		 xor	 dl, cl
  000fe	88 55 ed	 mov	 BYTE PTR __k$[ebp+13], dl
  00101	8a 50 0e	 mov	 dl, BYTE PTR [eax+14]
  00104	84 d2		 test	 dl, dl
  00106	0f 84 be 00 00
	00		 je	 $LN82@LoadInt_e@2
  0010c	32 d3		 xor	 dl, bl
  0010e	88 55 ee	 mov	 BYTE PTR __k$[ebp+14], dl
  00111	8a 50 0f	 mov	 dl, BYTE PTR [eax+15]
  00114	84 d2		 test	 dl, dl
  00116	0f 84 a8 00 00
	00		 je	 $LN81@LoadInt_e@2
  0011c	80 f2 ea	 xor	 dl, -22			; ffffffeaH
  0011f	88 55 ef	 mov	 BYTE PTR __k$[ebp+15], dl
  00122	8a 50 10	 mov	 dl, BYTE PTR [eax+16]
  00125	84 d2		 test	 dl, dl
  00127	0f 84 91 00 00
	00		 je	 $LN80@LoadInt_e@2
  0012d	80 f2 ed	 xor	 dl, -19			; ffffffedH
  00130	88 55 f0	 mov	 BYTE PTR __k$[ebp+16], dl
  00133	8a 50 11	 mov	 dl, BYTE PTR [eax+17]
  00136	84 d2		 test	 dl, dl
  00138	74 7f		 je	 SHORT $LN79@LoadInt_e@2
  0013a	32 d1		 xor	 dl, cl
  0013c	88 55 f1	 mov	 BYTE PTR __k$[ebp+17], dl
  0013f	8a 50 12	 mov	 dl, BYTE PTR [eax+18]
  00142	84 d2		 test	 dl, dl
  00144	74 6e		 je	 SHORT $LN78@LoadInt_e@2
  00146	32 d3		 xor	 dl, bl
  00148	88 55 f2	 mov	 BYTE PTR __k$[ebp+18], dl
  0014b	8a 50 13	 mov	 dl, BYTE PTR [eax+19]
  0014e	84 d2		 test	 dl, dl
  00150	74 5c		 je	 SHORT $LN77@LoadInt_e@2
  00152	80 f2 ea	 xor	 dl, -22			; ffffffeaH
  00155	80 78 14 00	 cmp	 BYTE PTR [eax+20], 0
  00159	88 55 f3	 mov	 BYTE PTR __k$[ebp+19], dl
  0015c	0f 84 ba 00 00
	00		 je	 $LN1@LoadInt_e@2
  00162	8a 50 15	 mov	 dl, BYTE PTR [eax+21]
  00165	84 d2		 test	 dl, dl
  00167	74 40		 je	 SHORT $LN75@LoadInt_e@2
  00169	32 d1		 xor	 dl, cl
  0016b	88 55 f5	 mov	 BYTE PTR __k$[ebp+21], dl
  0016e	8a 50 16	 mov	 dl, BYTE PTR [eax+22]
  00171	84 d2		 test	 dl, dl
  00173	74 2f		 je	 SHORT $LN74@LoadInt_e@2
  00175	32 d3		 xor	 dl, bl
  00177	88 55 f6	 mov	 BYTE PTR __k$[ebp+22], dl
  0017a	8a 50 17	 mov	 dl, BYTE PTR [eax+23]
  0017d	84 d2		 test	 dl, dl
  0017f	74 1d		 je	 SHORT $LN73@LoadInt_e@2
  00181	8a 40 18	 mov	 al, BYTE PTR [eax+24]
  00184	80 f2 ea	 xor	 dl, -22			; ffffffeaH
  00187	88 55 f7	 mov	 BYTE PTR __k$[ebp+23], dl
  0018a	84 c0		 test	 al, al
  0018c	74 0a		 je	 SHORT $LN72@LoadInt_e@2
  0018e	34 ed		 xor	 al, -19			; ffffffedH
  00190	88 45 f8	 mov	 BYTE PTR __k$[ebp+24], al
  00193	e9 84 00 00 00	 jmp	 $LN1@LoadInt_e@2
$LN72@LoadInt_e@2:
  00198	c6 45 f8 ed	 mov	 BYTE PTR __k$[ebp+24], -19 ; ffffffedH
  0019c	eb 7e		 jmp	 SHORT $LN1@LoadInt_e@2
$LN73@LoadInt_e@2:
  0019e	c6 45 f7 ea	 mov	 BYTE PTR __k$[ebp+23], -22 ; ffffffeaH
  001a2	eb 78		 jmp	 SHORT $LN1@LoadInt_e@2
$LN74@LoadInt_e@2:
  001a4	88 5d f6	 mov	 BYTE PTR __k$[ebp+22], bl
  001a7	eb 73		 jmp	 SHORT $LN1@LoadInt_e@2
$LN75@LoadInt_e@2:
  001a9	88 4d f5	 mov	 BYTE PTR __k$[ebp+21], cl
  001ac	eb 6e		 jmp	 SHORT $LN1@LoadInt_e@2
$LN77@LoadInt_e@2:
  001ae	c6 45 f3 ea	 mov	 BYTE PTR __k$[ebp+19], -22 ; ffffffeaH
  001b2	eb 68		 jmp	 SHORT $LN1@LoadInt_e@2
$LN78@LoadInt_e@2:
  001b4	88 5d f2	 mov	 BYTE PTR __k$[ebp+18], bl
  001b7	eb 63		 jmp	 SHORT $LN1@LoadInt_e@2
$LN79@LoadInt_e@2:
  001b9	88 4d f1	 mov	 BYTE PTR __k$[ebp+17], cl
  001bc	eb 5e		 jmp	 SHORT $LN1@LoadInt_e@2
$LN80@LoadInt_e@2:
  001be	c6 45 f0 ed	 mov	 BYTE PTR __k$[ebp+16], -19 ; ffffffedH
  001c2	eb 58		 jmp	 SHORT $LN1@LoadInt_e@2
$LN81@LoadInt_e@2:
  001c4	c6 45 ef ea	 mov	 BYTE PTR __k$[ebp+15], -22 ; ffffffeaH
  001c8	eb 52		 jmp	 SHORT $LN1@LoadInt_e@2
$LN82@LoadInt_e@2:
  001ca	88 5d ee	 mov	 BYTE PTR __k$[ebp+14], bl
  001cd	eb 4d		 jmp	 SHORT $LN1@LoadInt_e@2
$LN83@LoadInt_e@2:
  001cf	88 4d ed	 mov	 BYTE PTR __k$[ebp+13], cl
  001d2	eb 48		 jmp	 SHORT $LN1@LoadInt_e@2
$LN84@LoadInt_e@2:
  001d4	c6 45 ec ed	 mov	 BYTE PTR __k$[ebp+12], -19 ; ffffffedH
  001d8	eb 42		 jmp	 SHORT $LN1@LoadInt_e@2
$LN85@LoadInt_e@2:
  001da	c6 45 eb ea	 mov	 BYTE PTR __k$[ebp+11], -22 ; ffffffeaH
  001de	eb 3c		 jmp	 SHORT $LN1@LoadInt_e@2
$LN86@LoadInt_e@2:
  001e0	88 5d ea	 mov	 BYTE PTR __k$[ebp+10], bl
  001e3	eb 37		 jmp	 SHORT $LN1@LoadInt_e@2
$LN87@LoadInt_e@2:
  001e5	88 4d e9	 mov	 BYTE PTR __k$[ebp+9], cl
  001e8	eb 32		 jmp	 SHORT $LN1@LoadInt_e@2
$LN88@LoadInt_e@2:
  001ea	c6 45 e8 ed	 mov	 BYTE PTR __k$[ebp+8], -19 ; ffffffedH
  001ee	eb 2c		 jmp	 SHORT $LN1@LoadInt_e@2
$LN89@LoadInt_e@2:
  001f0	c6 45 e7 ea	 mov	 BYTE PTR __k$[ebp+7], -22 ; ffffffeaH
  001f4	eb 26		 jmp	 SHORT $LN1@LoadInt_e@2
$LN90@LoadInt_e@2:
  001f6	88 5d e6	 mov	 BYTE PTR __k$[ebp+6], bl
  001f9	eb 21		 jmp	 SHORT $LN1@LoadInt_e@2
$LN91@LoadInt_e@2:
  001fb	88 4d e5	 mov	 BYTE PTR __k$[ebp+5], cl
  001fe	eb 1c		 jmp	 SHORT $LN1@LoadInt_e@2
$LN92@LoadInt_e@2:
  00200	c6 45 e4 ed	 mov	 BYTE PTR __k$[ebp+4], -19 ; ffffffedH
  00204	eb 16		 jmp	 SHORT $LN1@LoadInt_e@2
$LN93@LoadInt_e@2:
  00206	c6 45 e3 ea	 mov	 BYTE PTR __k$[ebp+3], -22 ; ffffffeaH
  0020a	eb 10		 jmp	 SHORT $LN1@LoadInt_e@2
$LN94@LoadInt_e@2:
  0020c	c6 45 e2 eb	 mov	 BYTE PTR __k$[ebp+2], -21 ; ffffffebH
  00210	eb 0a		 jmp	 SHORT $LN1@LoadInt_e@2
$LN95@LoadInt_e@2:
  00212	c6 45 e1 ec	 mov	 BYTE PTR __k$[ebp+1], -20 ; ffffffecH
  00216	eb 04		 jmp	 SHORT $LN1@LoadInt_e@2
$LN96@LoadInt_e@2:
  00218	c6 45 e0 ed	 mov	 BYTE PTR __k$[ebp], -19	; ffffffedH
$LN1@LoadInt_e@2:
  0021c	6a 05		 push	 5
  0021e	8d 45 e0	 lea	 eax, DWORD PTR __k$[ebp]
  00221	c6 45 f4 00	 mov	 BYTE PTR __k$[ebp+20], 0
  00225	5a		 pop	 edx
$LL104@LoadInt_e@2:
  00226	81 30 ed ec eb
	ea		 xor	 DWORD PTR [eax], -353637139 ; eaebecedH
  0022c	83 c0 04	 add	 eax, 4
  0022f	4a		 dec	 edx
  00230	75 f4		 jne	 SHORT $LL104@LoadInt_e@2

; 120  : 		return LoadInt(_k, i);

  00232	ff 75 0c	 push	 DWORD PTR _i$[ebp]
  00235	8d 45 e0	 lea	 eax, DWORD PTR __k$[ebp]
  00238	50		 push	 eax
  00239	8b ce		 mov	 ecx, esi
  0023b	ff 15 00 00 00
	00		 call	 DWORD PTR __imp_?LoadInt@ioINILoader@@QAEHPBDH@Z

; 121  : 	}

  00241	8b 4d fc	 mov	 ecx, DWORD PTR __$ArrayPad$[ebp]
  00244	5e		 pop	 esi
  00245	33 cd		 xor	 ecx, ebp
  00247	5b		 pop	 ebx
  00248	e8 00 00 00 00	 call	 @__security_check_cookie@4
  0024d	c9		 leave
  0024e	c2 08 00	 ret	 8
??$LoadInt_e@$0BF@@ioINILoader@@QAEHAAY0BF@$$CBDH@Z ENDP ; ioINILoader::LoadInt_e<21>
_TEXT	ENDS
PUBLIC	__$ArrayPad$
PUBLIC	??$LoadFloat_e@$0P@@ioINILoader@@QAEMAAY0P@$$CBDM@Z ; ioINILoader::LoadFloat_e<15>
EXTRN	__imp_?LoadFloat@ioINILoader@@QAEMPBDM@Z:PROC
; Function compile flags: /Ogsp
;	COMDAT ??$LoadFloat_e@$0P@@ioINILoader@@QAEMAAY0P@$$CBDM@Z
_TEXT	SEGMENT
__k$ = -24						; size = 15
__$ArrayPad$ = -4					; size = 4
_k$ = 8							; size = 4
_f$ = 12						; size = 4
??$LoadFloat_e@$0P@@ioINILoader@@QAEMAAY0P@$$CBDM@Z PROC ; ioINILoader::LoadFloat_e<15>, COMDAT
; _this$ = ecx

; 135  : 	{

  00000	55		 push	 ebp
  00001	8b ec		 mov	 ebp, esp
  00003	83 ec 18	 sub	 esp, 24			; 00000018H
  00006	a1 00 00 00 00	 mov	 eax, DWORD PTR ___security_cookie
  0000b	33 c5		 xor	 eax, ebp
  0000d	89 45 fc	 mov	 DWORD PTR __$ArrayPad$[ebp], eax
  00010	8b 45 08	 mov	 eax, DWORD PTR _k$[ebp]

; 136  : 		_ENCSTR(k, _k);

  00013	8a 10		 mov	 dl, BYTE PTR [eax]
  00015	56		 push	 esi
  00016	8b f1		 mov	 esi, ecx
  00018	84 d2		 test	 dl, dl
  0001a	0f 84 75 01 00
	00		 je	 $LN96@LoadFloat_
  00020	80 f2 ed	 xor	 dl, -19			; ffffffedH
  00023	88 55 e8	 mov	 BYTE PTR __k$[ebp], dl
  00026	8a 50 01	 mov	 dl, BYTE PTR [eax+1]
  00029	84 d2		 test	 dl, dl
  0002b	0f 84 5e 01 00
	00		 je	 $LN95@LoadFloat_
  00031	b1 ec		 mov	 cl, -20			; ffffffecH
  00033	32 d1		 xor	 dl, cl
  00035	88 55 e9	 mov	 BYTE PTR __k$[ebp+1], dl
  00038	8a 50 02	 mov	 dl, BYTE PTR [eax+2]
  0003b	84 d2		 test	 dl, dl
  0003d	0f 84 46 01 00
	00		 je	 $LN94@LoadFloat_
  00043	80 f2 eb	 xor	 dl, -21			; ffffffebH
  00046	88 55 ea	 mov	 BYTE PTR __k$[ebp+2], dl
  00049	8a 50 03	 mov	 dl, BYTE PTR [eax+3]
  0004c	84 d2		 test	 dl, dl
  0004e	0f 84 2f 01 00
	00		 je	 $LN93@LoadFloat_
  00054	80 f2 ea	 xor	 dl, -22			; ffffffeaH
  00057	88 55 eb	 mov	 BYTE PTR __k$[ebp+3], dl
  0005a	8a 50 04	 mov	 dl, BYTE PTR [eax+4]
  0005d	84 d2		 test	 dl, dl
  0005f	0f 84 18 01 00
	00		 je	 $LN92@LoadFloat_
  00065	80 f2 ed	 xor	 dl, -19			; ffffffedH
  00068	88 55 ec	 mov	 BYTE PTR __k$[ebp+4], dl
  0006b	8a 50 05	 mov	 dl, BYTE PTR [eax+5]
  0006e	84 d2		 test	 dl, dl
  00070	0f 84 02 01 00
	00		 je	 $LN91@LoadFloat_
  00076	32 d1		 xor	 dl, cl
  00078	88 55 ed	 mov	 BYTE PTR __k$[ebp+5], dl
  0007b	8a 50 06	 mov	 dl, BYTE PTR [eax+6]
  0007e	84 d2		 test	 dl, dl
  00080	0f 84 ec 00 00
	00		 je	 $LN90@LoadFloat_
  00086	80 f2 eb	 xor	 dl, -21			; ffffffebH
  00089	88 55 ee	 mov	 BYTE PTR __k$[ebp+6], dl
  0008c	8a 50 07	 mov	 dl, BYTE PTR [eax+7]
  0008f	84 d2		 test	 dl, dl
  00091	0f 84 d5 00 00
	00		 je	 $LN89@LoadFloat_
  00097	80 f2 ea	 xor	 dl, -22			; ffffffeaH
  0009a	88 55 ef	 mov	 BYTE PTR __k$[ebp+7], dl
  0009d	8a 50 08	 mov	 dl, BYTE PTR [eax+8]
  000a0	84 d2		 test	 dl, dl
  000a2	0f 84 be 00 00
	00		 je	 $LN88@LoadFloat_
  000a8	80 f2 ed	 xor	 dl, -19			; ffffffedH
  000ab	88 55 f0	 mov	 BYTE PTR __k$[ebp+8], dl
  000ae	8a 50 09	 mov	 dl, BYTE PTR [eax+9]
  000b1	84 d2		 test	 dl, dl
  000b3	0f 84 a8 00 00
	00		 je	 $LN87@LoadFloat_
  000b9	32 d1		 xor	 dl, cl
  000bb	88 55 f1	 mov	 BYTE PTR __k$[ebp+9], dl
  000be	8a 50 0a	 mov	 dl, BYTE PTR [eax+10]
  000c1	84 d2		 test	 dl, dl
  000c3	0f 84 92 00 00
	00		 je	 $LN86@LoadFloat_
  000c9	80 f2 eb	 xor	 dl, -21			; ffffffebH
  000cc	88 55 f2	 mov	 BYTE PTR __k$[ebp+10], dl
  000cf	8a 50 0b	 mov	 dl, BYTE PTR [eax+11]
  000d2	84 d2		 test	 dl, dl
  000d4	74 7f		 je	 SHORT $LN85@LoadFloat_
  000d6	80 f2 ea	 xor	 dl, -22			; ffffffeaH
  000d9	88 55 f3	 mov	 BYTE PTR __k$[ebp+11], dl
  000dc	8a 50 0c	 mov	 dl, BYTE PTR [eax+12]
  000df	84 d2		 test	 dl, dl
  000e1	74 6c		 je	 SHORT $LN84@LoadFloat_
  000e3	80 f2 ed	 xor	 dl, -19			; ffffffedH
  000e6	88 55 f4	 mov	 BYTE PTR __k$[ebp+12], dl
  000e9	8a 50 0d	 mov	 dl, BYTE PTR [eax+13]
  000ec	84 d2		 test	 dl, dl
  000ee	74 5a		 je	 SHORT $LN83@LoadFloat_
  000f0	32 d1		 xor	 dl, cl
  000f2	80 78 0e 00	 cmp	 BYTE PTR [eax+14], 0
  000f6	88 55 f5	 mov	 BYTE PTR __k$[ebp+13], dl
  000f9	0f 84 9a 00 00
	00		 je	 $LN1@LoadFloat_
  000ff	8a 50 0f	 mov	 dl, BYTE PTR [eax+15]
  00102	84 d2		 test	 dl, dl
  00104	74 3e		 je	 SHORT $LN81@LoadFloat_
  00106	80 f2 ea	 xor	 dl, -22			; ffffffeaH
  00109	88 55 f7	 mov	 BYTE PTR __k$[ebp+15], dl
  0010c	8a 50 10	 mov	 dl, BYTE PTR [eax+16]
  0010f	84 d2		 test	 dl, dl
  00111	74 2b		 je	 SHORT $LN80@LoadFloat_
  00113	80 f2 ed	 xor	 dl, -19			; ffffffedH
  00116	88 55 f8	 mov	 BYTE PTR __k$[ebp+16], dl
  00119	8a 50 11	 mov	 dl, BYTE PTR [eax+17]
  0011c	84 d2		 test	 dl, dl
  0011e	74 19		 je	 SHORT $LN79@LoadFloat_
  00120	8a 40 12	 mov	 al, BYTE PTR [eax+18]
  00123	32 d1		 xor	 dl, cl
  00125	88 55 f9	 mov	 BYTE PTR __k$[ebp+17], dl
  00128	84 c0		 test	 al, al
  0012a	74 07		 je	 SHORT $LN78@LoadFloat_
  0012c	34 eb		 xor	 al, -21			; ffffffebH
  0012e	88 45 fa	 mov	 BYTE PTR __k$[ebp+18], al
  00131	eb 66		 jmp	 SHORT $LN1@LoadFloat_
$LN78@LoadFloat_:
  00133	c6 45 fa eb	 mov	 BYTE PTR __k$[ebp+18], -21 ; ffffffebH
  00137	eb 60		 jmp	 SHORT $LN1@LoadFloat_
$LN79@LoadFloat_:
  00139	88 4d f9	 mov	 BYTE PTR __k$[ebp+17], cl
  0013c	eb 5b		 jmp	 SHORT $LN1@LoadFloat_
$LN80@LoadFloat_:
  0013e	c6 45 f8 ed	 mov	 BYTE PTR __k$[ebp+16], -19 ; ffffffedH
  00142	eb 55		 jmp	 SHORT $LN1@LoadFloat_
$LN81@LoadFloat_:
  00144	c6 45 f7 ea	 mov	 BYTE PTR __k$[ebp+15], -22 ; ffffffeaH
  00148	eb 4f		 jmp	 SHORT $LN1@LoadFloat_
$LN83@LoadFloat_:
  0014a	88 4d f5	 mov	 BYTE PTR __k$[ebp+13], cl
  0014d	eb 4a		 jmp	 SHORT $LN1@LoadFloat_
$LN84@LoadFloat_:
  0014f	c6 45 f4 ed	 mov	 BYTE PTR __k$[ebp+12], -19 ; ffffffedH
  00153	eb 44		 jmp	 SHORT $LN1@LoadFloat_
$LN85@LoadFloat_:
  00155	c6 45 f3 ea	 mov	 BYTE PTR __k$[ebp+11], -22 ; ffffffeaH
  00159	eb 3e		 jmp	 SHORT $LN1@LoadFloat_
$LN86@LoadFloat_:
  0015b	c6 45 f2 eb	 mov	 BYTE PTR __k$[ebp+10], -21 ; ffffffebH
  0015f	eb 38		 jmp	 SHORT $LN1@LoadFloat_
$LN87@LoadFloat_:
  00161	88 4d f1	 mov	 BYTE PTR __k$[ebp+9], cl
  00164	eb 33		 jmp	 SHORT $LN1@LoadFloat_
$LN88@LoadFloat_:
  00166	c6 45 f0 ed	 mov	 BYTE PTR __k$[ebp+8], -19 ; ffffffedH
  0016a	eb 2d		 jmp	 SHORT $LN1@LoadFloat_
$LN89@LoadFloat_:
  0016c	c6 45 ef ea	 mov	 BYTE PTR __k$[ebp+7], -22 ; ffffffeaH
  00170	eb 27		 jmp	 SHORT $LN1@LoadFloat_
$LN90@LoadFloat_:
  00172	c6 45 ee eb	 mov	 BYTE PTR __k$[ebp+6], -21 ; ffffffebH
  00176	eb 21		 jmp	 SHORT $LN1@LoadFloat_
$LN91@LoadFloat_:
  00178	88 4d ed	 mov	 BYTE PTR __k$[ebp+5], cl
  0017b	eb 1c		 jmp	 SHORT $LN1@LoadFloat_
$LN92@LoadFloat_:
  0017d	c6 45 ec ed	 mov	 BYTE PTR __k$[ebp+4], -19 ; ffffffedH
  00181	eb 16		 jmp	 SHORT $LN1@LoadFloat_
$LN93@LoadFloat_:
  00183	c6 45 eb ea	 mov	 BYTE PTR __k$[ebp+3], -22 ; ffffffeaH
  00187	eb 10		 jmp	 SHORT $LN1@LoadFloat_
$LN94@LoadFloat_:
  00189	c6 45 ea eb	 mov	 BYTE PTR __k$[ebp+2], -21 ; ffffffebH
  0018d	eb 0a		 jmp	 SHORT $LN1@LoadFloat_
$LN95@LoadFloat_:
  0018f	c6 45 e9 ec	 mov	 BYTE PTR __k$[ebp+1], -20 ; ffffffecH
  00193	eb 04		 jmp	 SHORT $LN1@LoadFloat_
$LN96@LoadFloat_:
  00195	c6 45 e8 ed	 mov	 BYTE PTR __k$[ebp], -19	; ffffffedH
$LN1@LoadFloat_:
  00199	6a 03		 push	 3
  0019b	8d 45 e8	 lea	 eax, DWORD PTR __k$[ebp]
  0019e	c6 45 f6 00	 mov	 BYTE PTR __k$[ebp+14], 0
  001a2	5a		 pop	 edx
$LL104@LoadFloat_:
  001a3	81 30 ed ec eb
	ea		 xor	 DWORD PTR [eax], -353637139 ; eaebecedH
  001a9	83 c0 04	 add	 eax, 4
  001ac	4a		 dec	 edx
  001ad	75 f4		 jne	 SHORT $LL104@LoadFloat_
  001af	6a 0c		 push	 12			; 0000000cH
  001b1	58		 pop	 eax
$LL101@LoadFloat_:
  001b2	8b c8		 mov	 ecx, eax
  001b4	81 e1 03 00 00
	80		 and	 ecx, -2147483645	; 80000003H
  001ba	79 05		 jns	 SHORT $LN111@LoadFloat_
  001bc	49		 dec	 ecx
  001bd	83 c9 fc	 or	 ecx, -4			; fffffffcH
  001c0	41		 inc	 ecx
$LN111@LoadFloat_:
  001c1	b2 ed		 mov	 dl, -19			; ffffffedH
  001c3	2a d1		 sub	 dl, cl
  001c5	30 54 05 e8	 xor	 BYTE PTR __k$[ebp+eax], dl
  001c9	40		 inc	 eax
  001ca	83 f8 0e	 cmp	 eax, 14			; 0000000eH
  001cd	7c e3		 jl	 SHORT $LL101@LoadFloat_

; 137  : 		return LoadFloat(_k, f);

  001cf	f3 0f 10 45 0c	 movss	 xmm0, DWORD PTR _f$[ebp]
  001d4	51		 push	 ecx
  001d5	8d 45 e8	 lea	 eax, DWORD PTR __k$[ebp]
  001d8	f3 0f 11 04 24	 movss	 DWORD PTR [esp], xmm0
  001dd	50		 push	 eax
  001de	8b ce		 mov	 ecx, esi
  001e0	ff 15 00 00 00
	00		 call	 DWORD PTR __imp_?LoadFloat@ioINILoader@@QAEMPBDM@Z

; 138  : 	}

  001e6	8b 4d fc	 mov	 ecx, DWORD PTR __$ArrayPad$[ebp]
  001e9	33 cd		 xor	 ecx, ebp
  001eb	5e		 pop	 esi
  001ec	e8 00 00 00 00	 call	 @__security_check_cookie@4
  001f1	c9		 leave
  001f2	c2 08 00	 ret	 8
??$LoadFloat_e@$0P@@ioINILoader@@QAEMAAY0P@$$CBDM@Z ENDP ; ioINILoader::LoadFloat_e<15>
_TEXT	ENDS
PUBLIC	__$ArrayPad$
PUBLIC	??$LoadFloat_e@$0BA@@ioINILoader@@QAEMAAY0BA@$$CBDM@Z ; ioINILoader::LoadFloat_e<16>
; Function compile flags: /Ogsp
;	COMDAT ??$LoadFloat_e@$0BA@@ioINILoader@@QAEMAAY0BA@$$CBDM@Z
_TEXT	SEGMENT
__k$ = -24						; size = 16
__$ArrayPad$ = -4					; size = 4
_k$ = 8							; size = 4
_f$ = 12						; size = 4
??$LoadFloat_e@$0BA@@ioINILoader@@QAEMAAY0BA@$$CBDM@Z PROC ; ioINILoader::LoadFloat_e<16>, COMDAT
; _this$ = ecx

; 135  : 	{

  00000	55		 push	 ebp
  00001	8b ec		 mov	 ebp, esp
  00003	83 ec 18	 sub	 esp, 24			; 00000018H
  00006	a1 00 00 00 00	 mov	 eax, DWORD PTR ___security_cookie
  0000b	33 c5		 xor	 eax, ebp
  0000d	89 45 fc	 mov	 DWORD PTR __$ArrayPad$[ebp], eax
  00010	8b 45 08	 mov	 eax, DWORD PTR _k$[ebp]

; 136  : 		_ENCSTR(k, _k);

  00013	8a 10		 mov	 dl, BYTE PTR [eax]
  00015	56		 push	 esi
  00016	8b f1		 mov	 esi, ecx
  00018	84 d2		 test	 dl, dl
  0001a	0f 84 8c 01 00
	00		 je	 $LN96@LoadFloat_@2
  00020	80 f2 ed	 xor	 dl, -19			; ffffffedH
  00023	88 55 e8	 mov	 BYTE PTR __k$[ebp], dl
  00026	8a 50 01	 mov	 dl, BYTE PTR [eax+1]
  00029	84 d2		 test	 dl, dl
  0002b	0f 84 75 01 00
	00		 je	 $LN95@LoadFloat_@2
  00031	80 f2 ec	 xor	 dl, -20			; ffffffecH
  00034	88 55 e9	 mov	 BYTE PTR __k$[ebp+1], dl
  00037	8a 50 02	 mov	 dl, BYTE PTR [eax+2]
  0003a	84 d2		 test	 dl, dl
  0003c	0f 84 5e 01 00
	00		 je	 $LN94@LoadFloat_@2
  00042	b1 eb		 mov	 cl, -21			; ffffffebH
  00044	32 d1		 xor	 dl, cl
  00046	88 55 ea	 mov	 BYTE PTR __k$[ebp+2], dl
  00049	8a 50 03	 mov	 dl, BYTE PTR [eax+3]
  0004c	84 d2		 test	 dl, dl
  0004e	0f 84 46 01 00
	00		 je	 $LN93@LoadFloat_@2
  00054	80 f2 ea	 xor	 dl, -22			; ffffffeaH
  00057	88 55 eb	 mov	 BYTE PTR __k$[ebp+3], dl
  0005a	8a 50 04	 mov	 dl, BYTE PTR [eax+4]
  0005d	84 d2		 test	 dl, dl
  0005f	0f 84 2f 01 00
	00		 je	 $LN92@LoadFloat_@2
  00065	80 f2 ed	 xor	 dl, -19			; ffffffedH
  00068	88 55 ec	 mov	 BYTE PTR __k$[ebp+4], dl
  0006b	8a 50 05	 mov	 dl, BYTE PTR [eax+5]
  0006e	84 d2		 test	 dl, dl
  00070	0f 84 18 01 00
	00		 je	 $LN91@LoadFloat_@2
  00076	80 f2 ec	 xor	 dl, -20			; ffffffecH
  00079	88 55 ed	 mov	 BYTE PTR __k$[ebp+5], dl
  0007c	8a 50 06	 mov	 dl, BYTE PTR [eax+6]
  0007f	84 d2		 test	 dl, dl
  00081	0f 84 02 01 00
	00		 je	 $LN90@LoadFloat_@2
  00087	32 d1		 xor	 dl, cl
  00089	88 55 ee	 mov	 BYTE PTR __k$[ebp+6], dl
  0008c	8a 50 07	 mov	 dl, BYTE PTR [eax+7]
  0008f	84 d2		 test	 dl, dl
  00091	0f 84 ec 00 00
	00		 je	 $LN89@LoadFloat_@2
  00097	80 f2 ea	 xor	 dl, -22			; ffffffeaH
  0009a	88 55 ef	 mov	 BYTE PTR __k$[ebp+7], dl
  0009d	8a 50 08	 mov	 dl, BYTE PTR [eax+8]
  000a0	84 d2		 test	 dl, dl
  000a2	0f 84 d5 00 00
	00		 je	 $LN88@LoadFloat_@2
  000a8	80 f2 ed	 xor	 dl, -19			; ffffffedH
  000ab	88 55 f0	 mov	 BYTE PTR __k$[ebp+8], dl
  000ae	8a 50 09	 mov	 dl, BYTE PTR [eax+9]
  000b1	84 d2		 test	 dl, dl
  000b3	0f 84 be 00 00
	00		 je	 $LN87@LoadFloat_@2
  000b9	80 f2 ec	 xor	 dl, -20			; ffffffecH
  000bc	88 55 f1	 mov	 BYTE PTR __k$[ebp+9], dl
  000bf	8a 50 0a	 mov	 dl, BYTE PTR [eax+10]
  000c2	84 d2		 test	 dl, dl
  000c4	0f 84 a8 00 00
	00		 je	 $LN86@LoadFloat_@2
  000ca	32 d1		 xor	 dl, cl
  000cc	88 55 f2	 mov	 BYTE PTR __k$[ebp+10], dl
  000cf	8a 50 0b	 mov	 dl, BYTE PTR [eax+11]
  000d2	84 d2		 test	 dl, dl
  000d4	0f 84 92 00 00
	00		 je	 $LN85@LoadFloat_@2
  000da	80 f2 ea	 xor	 dl, -22			; ffffffeaH
  000dd	88 55 f3	 mov	 BYTE PTR __k$[ebp+11], dl
  000e0	8a 50 0c	 mov	 dl, BYTE PTR [eax+12]
  000e3	84 d2		 test	 dl, dl
  000e5	74 7f		 je	 SHORT $LN84@LoadFloat_@2
  000e7	80 f2 ed	 xor	 dl, -19			; ffffffedH
  000ea	88 55 f4	 mov	 BYTE PTR __k$[ebp+12], dl
  000ed	8a 50 0d	 mov	 dl, BYTE PTR [eax+13]
  000f0	84 d2		 test	 dl, dl
  000f2	74 6c		 je	 SHORT $LN83@LoadFloat_@2
  000f4	80 f2 ec	 xor	 dl, -20			; ffffffecH
  000f7	88 55 f5	 mov	 BYTE PTR __k$[ebp+13], dl
  000fa	8a 50 0e	 mov	 dl, BYTE PTR [eax+14]
  000fd	84 d2		 test	 dl, dl
  000ff	74 5a		 je	 SHORT $LN82@LoadFloat_@2
  00101	32 d1		 xor	 dl, cl
  00103	80 78 0f 00	 cmp	 BYTE PTR [eax+15], 0
  00107	88 55 f6	 mov	 BYTE PTR __k$[ebp+14], dl
  0010a	0f 84 a0 00 00
	00		 je	 $LN1@LoadFloat_@2
  00110	8a 50 10	 mov	 dl, BYTE PTR [eax+16]
  00113	84 d2		 test	 dl, dl
  00115	74 3e		 je	 SHORT $LN80@LoadFloat_@2
  00117	80 f2 ed	 xor	 dl, -19			; ffffffedH
  0011a	88 55 f8	 mov	 BYTE PTR __k$[ebp+16], dl
  0011d	8a 50 11	 mov	 dl, BYTE PTR [eax+17]
  00120	84 d2		 test	 dl, dl
  00122	74 2b		 je	 SHORT $LN79@LoadFloat_@2
  00124	80 f2 ec	 xor	 dl, -20			; ffffffecH
  00127	88 55 f9	 mov	 BYTE PTR __k$[ebp+17], dl
  0012a	8a 50 12	 mov	 dl, BYTE PTR [eax+18]
  0012d	84 d2		 test	 dl, dl
  0012f	74 19		 je	 SHORT $LN78@LoadFloat_@2
  00131	8a 40 13	 mov	 al, BYTE PTR [eax+19]
  00134	32 d1		 xor	 dl, cl
  00136	88 55 fa	 mov	 BYTE PTR __k$[ebp+18], dl
  00139	84 c0		 test	 al, al
  0013b	74 07		 je	 SHORT $LN77@LoadFloat_@2
  0013d	34 ea		 xor	 al, -22			; ffffffeaH
  0013f	88 45 fb	 mov	 BYTE PTR __k$[ebp+19], al
  00142	eb 6c		 jmp	 SHORT $LN1@LoadFloat_@2
$LN77@LoadFloat_@2:
  00144	c6 45 fb ea	 mov	 BYTE PTR __k$[ebp+19], -22 ; ffffffeaH
  00148	eb 66		 jmp	 SHORT $LN1@LoadFloat_@2
$LN78@LoadFloat_@2:
  0014a	88 4d fa	 mov	 BYTE PTR __k$[ebp+18], cl
  0014d	eb 61		 jmp	 SHORT $LN1@LoadFloat_@2
$LN79@LoadFloat_@2:
  0014f	c6 45 f9 ec	 mov	 BYTE PTR __k$[ebp+17], -20 ; ffffffecH
  00153	eb 5b		 jmp	 SHORT $LN1@LoadFloat_@2
$LN80@LoadFloat_@2:
  00155	c6 45 f8 ed	 mov	 BYTE PTR __k$[ebp+16], -19 ; ffffffedH
  00159	eb 55		 jmp	 SHORT $LN1@LoadFloat_@2
$LN82@LoadFloat_@2:
  0015b	88 4d f6	 mov	 BYTE PTR __k$[ebp+14], cl
  0015e	eb 50		 jmp	 SHORT $LN1@LoadFloat_@2
$LN83@LoadFloat_@2:
  00160	c6 45 f5 ec	 mov	 BYTE PTR __k$[ebp+13], -20 ; ffffffecH
  00164	eb 4a		 jmp	 SHORT $LN1@LoadFloat_@2
$LN84@LoadFloat_@2:
  00166	c6 45 f4 ed	 mov	 BYTE PTR __k$[ebp+12], -19 ; ffffffedH
  0016a	eb 44		 jmp	 SHORT $LN1@LoadFloat_@2
$LN85@LoadFloat_@2:
  0016c	c6 45 f3 ea	 mov	 BYTE PTR __k$[ebp+11], -22 ; ffffffeaH
  00170	eb 3e		 jmp	 SHORT $LN1@LoadFloat_@2
$LN86@LoadFloat_@2:
  00172	88 4d f2	 mov	 BYTE PTR __k$[ebp+10], cl
  00175	eb 39		 jmp	 SHORT $LN1@LoadFloat_@2
$LN87@LoadFloat_@2:
  00177	c6 45 f1 ec	 mov	 BYTE PTR __k$[ebp+9], -20 ; ffffffecH
  0017b	eb 33		 jmp	 SHORT $LN1@LoadFloat_@2
$LN88@LoadFloat_@2:
  0017d	c6 45 f0 ed	 mov	 BYTE PTR __k$[ebp+8], -19 ; ffffffedH
  00181	eb 2d		 jmp	 SHORT $LN1@LoadFloat_@2
$LN89@LoadFloat_@2:
  00183	c6 45 ef ea	 mov	 BYTE PTR __k$[ebp+7], -22 ; ffffffeaH
  00187	eb 27		 jmp	 SHORT $LN1@LoadFloat_@2
$LN90@LoadFloat_@2:
  00189	88 4d ee	 mov	 BYTE PTR __k$[ebp+6], cl
  0018c	eb 22		 jmp	 SHORT $LN1@LoadFloat_@2
$LN91@LoadFloat_@2:
  0018e	c6 45 ed ec	 mov	 BYTE PTR __k$[ebp+5], -20 ; ffffffecH
  00192	eb 1c		 jmp	 SHORT $LN1@LoadFloat_@2
$LN92@LoadFloat_@2:
  00194	c6 45 ec ed	 mov	 BYTE PTR __k$[ebp+4], -19 ; ffffffedH
  00198	eb 16		 jmp	 SHORT $LN1@LoadFloat_@2
$LN93@LoadFloat_@2:
  0019a	c6 45 eb ea	 mov	 BYTE PTR __k$[ebp+3], -22 ; ffffffeaH
  0019e	eb 10		 jmp	 SHORT $LN1@LoadFloat_@2
$LN94@LoadFloat_@2:
  001a0	c6 45 ea eb	 mov	 BYTE PTR __k$[ebp+2], -21 ; ffffffebH
  001a4	eb 0a		 jmp	 SHORT $LN1@LoadFloat_@2
$LN95@LoadFloat_@2:
  001a6	c6 45 e9 ec	 mov	 BYTE PTR __k$[ebp+1], -20 ; ffffffecH
  001aa	eb 04		 jmp	 SHORT $LN1@LoadFloat_@2
$LN96@LoadFloat_@2:
  001ac	c6 45 e8 ed	 mov	 BYTE PTR __k$[ebp], -19	; ffffffedH
$LN1@LoadFloat_@2:
  001b0	6a 03		 push	 3
  001b2	8d 45 e8	 lea	 eax, DWORD PTR __k$[ebp]
  001b5	c6 45 f7 00	 mov	 BYTE PTR __k$[ebp+15], 0
  001b9	5a		 pop	 edx
$LL104@LoadFloat_@2:
  001ba	81 30 ed ec eb
	ea		 xor	 DWORD PTR [eax], -353637139 ; eaebecedH
  001c0	83 c0 04	 add	 eax, 4
  001c3	4a		 dec	 edx
  001c4	75 f4		 jne	 SHORT $LL104@LoadFloat_@2
  001c6	6a 0c		 push	 12			; 0000000cH
  001c8	58		 pop	 eax
$LL101@LoadFloat_@2:
  001c9	8b c8		 mov	 ecx, eax
  001cb	81 e1 03 00 00
	80		 and	 ecx, -2147483645	; 80000003H
  001d1	79 05		 jns	 SHORT $LN111@LoadFloat_@2
  001d3	49		 dec	 ecx
  001d4	83 c9 fc	 or	 ecx, -4			; fffffffcH
  001d7	41		 inc	 ecx
$LN111@LoadFloat_@2:
  001d8	b2 ed		 mov	 dl, -19			; ffffffedH
  001da	2a d1		 sub	 dl, cl
  001dc	30 54 05 e8	 xor	 BYTE PTR __k$[ebp+eax], dl
  001e0	40		 inc	 eax
  001e1	83 f8 0f	 cmp	 eax, 15			; 0000000fH
  001e4	7c e3		 jl	 SHORT $LL101@LoadFloat_@2

; 137  : 		return LoadFloat(_k, f);

  001e6	f3 0f 10 45 0c	 movss	 xmm0, DWORD PTR _f$[ebp]
  001eb	51		 push	 ecx
  001ec	8d 45 e8	 lea	 eax, DWORD PTR __k$[ebp]
  001ef	f3 0f 11 04 24	 movss	 DWORD PTR [esp], xmm0
  001f4	50		 push	 eax
  001f5	8b ce		 mov	 ecx, esi
  001f7	ff 15 00 00 00
	00		 call	 DWORD PTR __imp_?LoadFloat@ioINILoader@@QAEMPBDM@Z

; 138  : 	}

  001fd	8b 4d fc	 mov	 ecx, DWORD PTR __$ArrayPad$[ebp]
  00200	33 cd		 xor	 ecx, ebp
  00202	5e		 pop	 esi
  00203	e8 00 00 00 00	 call	 @__security_check_cookie@4
  00208	c9		 leave
  00209	c2 08 00	 ret	 8
??$LoadFloat_e@$0BA@@ioINILoader@@QAEMAAY0BA@$$CBDM@Z ENDP ; ioINILoader::LoadFloat_e<16>
_TEXT	ENDS
PUBLIC	__$ArrayPad$
PUBLIC	??$LoadInt_e@$0BB@@ioINILoader@@QAEHAAY0BB@$$CBDH@Z ; ioINILoader::LoadInt_e<17>
; Function compile flags: /Ogsp
;	COMDAT ??$LoadInt_e@$0BB@@ioINILoader@@QAEHAAY0BB@$$CBDH@Z
_TEXT	SEGMENT
__k$ = -28						; size = 17
__$ArrayPad$ = -4					; size = 4
_k$ = 8							; size = 4
_i$ = 12						; size = 4
??$LoadInt_e@$0BB@@ioINILoader@@QAEHAAY0BB@$$CBDH@Z PROC ; ioINILoader::LoadInt_e<17>, COMDAT
; _this$ = ecx

; 118  : 	{

  00000	55		 push	 ebp
  00001	8b ec		 mov	 ebp, esp
  00003	83 ec 1c	 sub	 esp, 28			; 0000001cH
  00006	a1 00 00 00 00	 mov	 eax, DWORD PTR ___security_cookie
  0000b	33 c5		 xor	 eax, ebp
  0000d	89 45 fc	 mov	 DWORD PTR __$ArrayPad$[ebp], eax
  00010	8b 45 08	 mov	 eax, DWORD PTR _k$[ebp]

; 119  : 		_ENCSTR(k, _k);

  00013	8a 10		 mov	 dl, BYTE PTR [eax]
  00015	56		 push	 esi
  00016	8b f1		 mov	 esi, ecx
  00018	84 d2		 test	 dl, dl
  0001a	0f 84 a7 01 00
	00		 je	 $LN96@LoadInt_e@3
  00020	80 f2 ed	 xor	 dl, -19			; ffffffedH
  00023	88 55 e4	 mov	 BYTE PTR __k$[ebp], dl
  00026	8a 50 01	 mov	 dl, BYTE PTR [eax+1]
  00029	84 d2		 test	 dl, dl
  0002b	0f 84 90 01 00
	00		 je	 $LN95@LoadInt_e@3
  00031	b1 ec		 mov	 cl, -20			; ffffffecH
  00033	32 d1		 xor	 dl, cl
  00035	88 55 e5	 mov	 BYTE PTR __k$[ebp+1], dl
  00038	8a 50 02	 mov	 dl, BYTE PTR [eax+2]
  0003b	84 d2		 test	 dl, dl
  0003d	0f 84 78 01 00
	00		 je	 $LN94@LoadInt_e@3
  00043	80 f2 eb	 xor	 dl, -21			; ffffffebH
  00046	88 55 e6	 mov	 BYTE PTR __k$[ebp+2], dl
  00049	8a 50 03	 mov	 dl, BYTE PTR [eax+3]
  0004c	84 d2		 test	 dl, dl
  0004e	0f 84 61 01 00
	00		 je	 $LN93@LoadInt_e@3
  00054	80 f2 ea	 xor	 dl, -22			; ffffffeaH
  00057	88 55 e7	 mov	 BYTE PTR __k$[ebp+3], dl
  0005a	8a 50 04	 mov	 dl, BYTE PTR [eax+4]
  0005d	84 d2		 test	 dl, dl
  0005f	0f 84 4a 01 00
	00		 je	 $LN92@LoadInt_e@3
  00065	80 f2 ed	 xor	 dl, -19			; ffffffedH
  00068	88 55 e8	 mov	 BYTE PTR __k$[ebp+4], dl
  0006b	8a 50 05	 mov	 dl, BYTE PTR [eax+5]
  0006e	84 d2		 test	 dl, dl
  00070	0f 84 34 01 00
	00		 je	 $LN91@LoadInt_e@3
  00076	32 d1		 xor	 dl, cl
  00078	88 55 e9	 mov	 BYTE PTR __k$[ebp+5], dl
  0007b	8a 50 06	 mov	 dl, BYTE PTR [eax+6]
  0007e	84 d2		 test	 dl, dl
  00080	0f 84 1e 01 00
	00		 je	 $LN90@LoadInt_e@3
  00086	80 f2 eb	 xor	 dl, -21			; ffffffebH
  00089	88 55 ea	 mov	 BYTE PTR __k$[ebp+6], dl
  0008c	8a 50 07	 mov	 dl, BYTE PTR [eax+7]
  0008f	84 d2		 test	 dl, dl
  00091	0f 84 07 01 00
	00		 je	 $LN89@LoadInt_e@3
  00097	80 f2 ea	 xor	 dl, -22			; ffffffeaH
  0009a	88 55 eb	 mov	 BYTE PTR __k$[ebp+7], dl
  0009d	8a 50 08	 mov	 dl, BYTE PTR [eax+8]
  000a0	84 d2		 test	 dl, dl
  000a2	0f 84 f0 00 00
	00		 je	 $LN88@LoadInt_e@3
  000a8	80 f2 ed	 xor	 dl, -19			; ffffffedH
  000ab	88 55 ec	 mov	 BYTE PTR __k$[ebp+8], dl
  000ae	8a 50 09	 mov	 dl, BYTE PTR [eax+9]
  000b1	84 d2		 test	 dl, dl
  000b3	0f 84 da 00 00
	00		 je	 $LN87@LoadInt_e@3
  000b9	32 d1		 xor	 dl, cl
  000bb	88 55 ed	 mov	 BYTE PTR __k$[ebp+9], dl
  000be	8a 50 0a	 mov	 dl, BYTE PTR [eax+10]
  000c1	84 d2		 test	 dl, dl
  000c3	0f 84 c4 00 00
	00		 je	 $LN86@LoadInt_e@3
  000c9	80 f2 eb	 xor	 dl, -21			; ffffffebH
  000cc	88 55 ee	 mov	 BYTE PTR __k$[ebp+10], dl
  000cf	8a 50 0b	 mov	 dl, BYTE PTR [eax+11]
  000d2	84 d2		 test	 dl, dl
  000d4	0f 84 ad 00 00
	00		 je	 $LN85@LoadInt_e@3
  000da	80 f2 ea	 xor	 dl, -22			; ffffffeaH
  000dd	88 55 ef	 mov	 BYTE PTR __k$[ebp+11], dl
  000e0	8a 50 0c	 mov	 dl, BYTE PTR [eax+12]
  000e3	84 d2		 test	 dl, dl
  000e5	0f 84 96 00 00
	00		 je	 $LN84@LoadInt_e@3
  000eb	80 f2 ed	 xor	 dl, -19			; ffffffedH
  000ee	88 55 f0	 mov	 BYTE PTR __k$[ebp+12], dl
  000f1	8a 50 0d	 mov	 dl, BYTE PTR [eax+13]
  000f4	84 d2		 test	 dl, dl
  000f6	0f 84 80 00 00
	00		 je	 $LN83@LoadInt_e@3
  000fc	32 d1		 xor	 dl, cl
  000fe	88 55 f1	 mov	 BYTE PTR __k$[ebp+13], dl
  00101	8a 50 0e	 mov	 dl, BYTE PTR [eax+14]
  00104	84 d2		 test	 dl, dl
  00106	74 6e		 je	 SHORT $LN82@LoadInt_e@3
  00108	80 f2 eb	 xor	 dl, -21			; ffffffebH
  0010b	88 55 f2	 mov	 BYTE PTR __k$[ebp+14], dl
  0010e	8a 50 0f	 mov	 dl, BYTE PTR [eax+15]
  00111	84 d2		 test	 dl, dl
  00113	74 5b		 je	 SHORT $LN81@LoadInt_e@3
  00115	80 f2 ea	 xor	 dl, -22			; ffffffeaH
  00118	80 78 10 00	 cmp	 BYTE PTR [eax+16], 0
  0011c	88 55 f3	 mov	 BYTE PTR __k$[ebp+15], dl
  0011f	0f 84 a6 00 00
	00		 je	 $LN1@LoadInt_e@3
  00125	8a 50 11	 mov	 dl, BYTE PTR [eax+17]
  00128	84 d2		 test	 dl, dl
  0012a	74 3f		 je	 SHORT $LN79@LoadInt_e@3
  0012c	32 d1		 xor	 dl, cl
  0012e	88 55 f5	 mov	 BYTE PTR __k$[ebp+17], dl
  00131	8a 50 12	 mov	 dl, BYTE PTR [eax+18]
  00134	84 d2		 test	 dl, dl
  00136	74 2d		 je	 SHORT $LN78@LoadInt_e@3
  00138	80 f2 eb	 xor	 dl, -21			; ffffffebH
  0013b	88 55 f6	 mov	 BYTE PTR __k$[ebp+18], dl
  0013e	8a 50 13	 mov	 dl, BYTE PTR [eax+19]
  00141	84 d2		 test	 dl, dl
  00143	74 1a		 je	 SHORT $LN77@LoadInt_e@3
  00145	8a 40 14	 mov	 al, BYTE PTR [eax+20]
  00148	80 f2 ea	 xor	 dl, -22			; ffffffeaH
  0014b	88 55 f7	 mov	 BYTE PTR __k$[ebp+19], dl
  0014e	84 c0		 test	 al, al
  00150	74 07		 je	 SHORT $LN76@LoadInt_e@3
  00152	34 ed		 xor	 al, -19			; ffffffedH
  00154	88 45 f8	 mov	 BYTE PTR __k$[ebp+20], al
  00157	eb 72		 jmp	 SHORT $LN1@LoadInt_e@3
$LN76@LoadInt_e@3:
  00159	c6 45 f8 ed	 mov	 BYTE PTR __k$[ebp+20], -19 ; ffffffedH
  0015d	eb 6c		 jmp	 SHORT $LN1@LoadInt_e@3
$LN77@LoadInt_e@3:
  0015f	c6 45 f7 ea	 mov	 BYTE PTR __k$[ebp+19], -22 ; ffffffeaH
  00163	eb 66		 jmp	 SHORT $LN1@LoadInt_e@3
$LN78@LoadInt_e@3:
  00165	c6 45 f6 eb	 mov	 BYTE PTR __k$[ebp+18], -21 ; ffffffebH
  00169	eb 60		 jmp	 SHORT $LN1@LoadInt_e@3
$LN79@LoadInt_e@3:
  0016b	88 4d f5	 mov	 BYTE PTR __k$[ebp+17], cl
  0016e	eb 5b		 jmp	 SHORT $LN1@LoadInt_e@3
$LN81@LoadInt_e@3:
  00170	c6 45 f3 ea	 mov	 BYTE PTR __k$[ebp+15], -22 ; ffffffeaH
  00174	eb 55		 jmp	 SHORT $LN1@LoadInt_e@3
$LN82@LoadInt_e@3:
  00176	c6 45 f2 eb	 mov	 BYTE PTR __k$[ebp+14], -21 ; ffffffebH
  0017a	eb 4f		 jmp	 SHORT $LN1@LoadInt_e@3
$LN83@LoadInt_e@3:
  0017c	88 4d f1	 mov	 BYTE PTR __k$[ebp+13], cl
  0017f	eb 4a		 jmp	 SHORT $LN1@LoadInt_e@3
$LN84@LoadInt_e@3:
  00181	c6 45 f0 ed	 mov	 BYTE PTR __k$[ebp+12], -19 ; ffffffedH
  00185	eb 44		 jmp	 SHORT $LN1@LoadInt_e@3
$LN85@LoadInt_e@3:
  00187	c6 45 ef ea	 mov	 BYTE PTR __k$[ebp+11], -22 ; ffffffeaH
  0018b	eb 3e		 jmp	 SHORT $LN1@LoadInt_e@3
$LN86@LoadInt_e@3:
  0018d	c6 45 ee eb	 mov	 BYTE PTR __k$[ebp+10], -21 ; ffffffebH
  00191	eb 38		 jmp	 SHORT $LN1@LoadInt_e@3
$LN87@LoadInt_e@3:
  00193	88 4d ed	 mov	 BYTE PTR __k$[ebp+9], cl
  00196	eb 33		 jmp	 SHORT $LN1@LoadInt_e@3
$LN88@LoadInt_e@3:
  00198	c6 45 ec ed	 mov	 BYTE PTR __k$[ebp+8], -19 ; ffffffedH
  0019c	eb 2d		 jmp	 SHORT $LN1@LoadInt_e@3
$LN89@LoadInt_e@3:
  0019e	c6 45 eb ea	 mov	 BYTE PTR __k$[ebp+7], -22 ; ffffffeaH
  001a2	eb 27		 jmp	 SHORT $LN1@LoadInt_e@3
$LN90@LoadInt_e@3:
  001a4	c6 45 ea eb	 mov	 BYTE PTR __k$[ebp+6], -21 ; ffffffebH
  001a8	eb 21		 jmp	 SHORT $LN1@LoadInt_e@3
$LN91@LoadInt_e@3:
  001aa	88 4d e9	 mov	 BYTE PTR __k$[ebp+5], cl
  001ad	eb 1c		 jmp	 SHORT $LN1@LoadInt_e@3
$LN92@LoadInt_e@3:
  001af	c6 45 e8 ed	 mov	 BYTE PTR __k$[ebp+4], -19 ; ffffffedH
  001b3	eb 16		 jmp	 SHORT $LN1@LoadInt_e@3
$LN93@LoadInt_e@3:
  001b5	c6 45 e7 ea	 mov	 BYTE PTR __k$[ebp+3], -22 ; ffffffeaH
  001b9	eb 10		 jmp	 SHORT $LN1@LoadInt_e@3
$LN94@LoadInt_e@3:
  001bb	c6 45 e6 eb	 mov	 BYTE PTR __k$[ebp+2], -21 ; ffffffebH
  001bf	eb 0a		 jmp	 SHORT $LN1@LoadInt_e@3
$LN95@LoadInt_e@3:
  001c1	c6 45 e5 ec	 mov	 BYTE PTR __k$[ebp+1], -20 ; ffffffecH
  001c5	eb 04		 jmp	 SHORT $LN1@LoadInt_e@3
$LN96@LoadInt_e@3:
  001c7	c6 45 e4 ed	 mov	 BYTE PTR __k$[ebp], -19	; ffffffedH
$LN1@LoadInt_e@3:
  001cb	6a 04		 push	 4
  001cd	8d 45 e4	 lea	 eax, DWORD PTR __k$[ebp]
  001d0	c6 45 f4 00	 mov	 BYTE PTR __k$[ebp+16], 0
  001d4	5a		 pop	 edx
$LL104@LoadInt_e@3:
  001d5	81 30 ed ec eb
	ea		 xor	 DWORD PTR [eax], -353637139 ; eaebecedH
  001db	83 c0 04	 add	 eax, 4
  001de	4a		 dec	 edx
  001df	75 f4		 jne	 SHORT $LL104@LoadInt_e@3

; 120  : 		return LoadInt(_k, i);

  001e1	ff 75 0c	 push	 DWORD PTR _i$[ebp]
  001e4	8d 45 e4	 lea	 eax, DWORD PTR __k$[ebp]
  001e7	50		 push	 eax
  001e8	8b ce		 mov	 ecx, esi
  001ea	ff 15 00 00 00
	00		 call	 DWORD PTR __imp_?LoadInt@ioINILoader@@QAEHPBDH@Z

; 121  : 	}

  001f0	8b 4d fc	 mov	 ecx, DWORD PTR __$ArrayPad$[ebp]
  001f3	33 cd		 xor	 ecx, ebp
  001f5	5e		 pop	 esi
  001f6	e8 00 00 00 00	 call	 @__security_check_cookie@4
  001fb	c9		 leave
  001fc	c2 08 00	 ret	 8
??$LoadInt_e@$0BB@@ioINILoader@@QAEHAAY0BB@$$CBDH@Z ENDP ; ioINILoader::LoadInt_e<17>
_TEXT	ENDS
PUBLIC	__$ArrayPad$
PUBLIC	??$LoadFloat_e@$0BD@@ioINILoader@@QAEMAAY0BD@$$CBDM@Z ; ioINILoader::LoadFloat_e<19>
; Function compile flags: /Ogsp
;	COMDAT ??$LoadFloat_e@$0BD@@ioINILoader@@QAEMAAY0BD@$$CBDM@Z
_TEXT	SEGMENT
__k$ = -28						; size = 19
__$ArrayPad$ = -4					; size = 4
_k$ = 8							; size = 4
_f$ = 12						; size = 4
??$LoadFloat_e@$0BD@@ioINILoader@@QAEMAAY0BD@$$CBDM@Z PROC ; ioINILoader::LoadFloat_e<19>, COMDAT
; _this$ = ecx

; 135  : 	{

  00000	55		 push	 ebp
  00001	8b ec		 mov	 ebp, esp
  00003	83 ec 1c	 sub	 esp, 28			; 0000001cH
  00006	a1 00 00 00 00	 mov	 eax, DWORD PTR ___security_cookie
  0000b	33 c5		 xor	 eax, ebp
  0000d	89 45 fc	 mov	 DWORD PTR __$ArrayPad$[ebp], eax
  00010	8b 45 08	 mov	 eax, DWORD PTR _k$[ebp]

; 136  : 		_ENCSTR(k, _k);

  00013	8a 10		 mov	 dl, BYTE PTR [eax]
  00015	56		 push	 esi
  00016	8b f1		 mov	 esi, ecx
  00018	84 d2		 test	 dl, dl
  0001a	0f 84 cf 01 00
	00		 je	 $LN96@LoadFloat_@3
  00020	80 f2 ed	 xor	 dl, -19			; ffffffedH
  00023	88 55 e4	 mov	 BYTE PTR __k$[ebp], dl
  00026	8a 50 01	 mov	 dl, BYTE PTR [eax+1]
  00029	84 d2		 test	 dl, dl
  0002b	0f 84 b8 01 00
	00		 je	 $LN95@LoadFloat_@3
  00031	b1 ec		 mov	 cl, -20			; ffffffecH
  00033	32 d1		 xor	 dl, cl
  00035	88 55 e5	 mov	 BYTE PTR __k$[ebp+1], dl
  00038	8a 50 02	 mov	 dl, BYTE PTR [eax+2]
  0003b	84 d2		 test	 dl, dl
  0003d	0f 84 a0 01 00
	00		 je	 $LN94@LoadFloat_@3
  00043	80 f2 eb	 xor	 dl, -21			; ffffffebH
  00046	88 55 e6	 mov	 BYTE PTR __k$[ebp+2], dl
  00049	8a 50 03	 mov	 dl, BYTE PTR [eax+3]
  0004c	84 d2		 test	 dl, dl
  0004e	0f 84 89 01 00
	00		 je	 $LN93@LoadFloat_@3
  00054	80 f2 ea	 xor	 dl, -22			; ffffffeaH
  00057	88 55 e7	 mov	 BYTE PTR __k$[ebp+3], dl
  0005a	8a 50 04	 mov	 dl, BYTE PTR [eax+4]
  0005d	84 d2		 test	 dl, dl
  0005f	0f 84 72 01 00
	00		 je	 $LN92@LoadFloat_@3
  00065	80 f2 ed	 xor	 dl, -19			; ffffffedH
  00068	88 55 e8	 mov	 BYTE PTR __k$[ebp+4], dl
  0006b	8a 50 05	 mov	 dl, BYTE PTR [eax+5]
  0006e	84 d2		 test	 dl, dl
  00070	0f 84 5c 01 00
	00		 je	 $LN91@LoadFloat_@3
  00076	32 d1		 xor	 dl, cl
  00078	88 55 e9	 mov	 BYTE PTR __k$[ebp+5], dl
  0007b	8a 50 06	 mov	 dl, BYTE PTR [eax+6]
  0007e	84 d2		 test	 dl, dl
  00080	0f 84 46 01 00
	00		 je	 $LN90@LoadFloat_@3
  00086	80 f2 eb	 xor	 dl, -21			; ffffffebH
  00089	88 55 ea	 mov	 BYTE PTR __k$[ebp+6], dl
  0008c	8a 50 07	 mov	 dl, BYTE PTR [eax+7]
  0008f	84 d2		 test	 dl, dl
  00091	0f 84 2f 01 00
	00		 je	 $LN89@LoadFloat_@3
  00097	80 f2 ea	 xor	 dl, -22			; ffffffeaH
  0009a	88 55 eb	 mov	 BYTE PTR __k$[ebp+7], dl
  0009d	8a 50 08	 mov	 dl, BYTE PTR [eax+8]
  000a0	84 d2		 test	 dl, dl
  000a2	0f 84 18 01 00
	00		 je	 $LN88@LoadFloat_@3
  000a8	80 f2 ed	 xor	 dl, -19			; ffffffedH
  000ab	88 55 ec	 mov	 BYTE PTR __k$[ebp+8], dl
  000ae	8a 50 09	 mov	 dl, BYTE PTR [eax+9]
  000b1	84 d2		 test	 dl, dl
  000b3	0f 84 02 01 00
	00		 je	 $LN87@LoadFloat_@3
  000b9	32 d1		 xor	 dl, cl
  000bb	88 55 ed	 mov	 BYTE PTR __k$[ebp+9], dl
  000be	8a 50 0a	 mov	 dl, BYTE PTR [eax+10]
  000c1	84 d2		 test	 dl, dl
  000c3	0f 84 ec 00 00
	00		 je	 $LN86@LoadFloat_@3
  000c9	80 f2 eb	 xor	 dl, -21			; ffffffebH
  000cc	88 55 ee	 mov	 BYTE PTR __k$[ebp+10], dl
  000cf	8a 50 0b	 mov	 dl, BYTE PTR [eax+11]
  000d2	84 d2		 test	 dl, dl
  000d4	0f 84 d5 00 00
	00		 je	 $LN85@LoadFloat_@3
  000da	80 f2 ea	 xor	 dl, -22			; ffffffeaH
  000dd	88 55 ef	 mov	 BYTE PTR __k$[ebp+11], dl
  000e0	8a 50 0c	 mov	 dl, BYTE PTR [eax+12]
  000e3	84 d2		 test	 dl, dl
  000e5	0f 84 be 00 00
	00		 je	 $LN84@LoadFloat_@3
  000eb	80 f2 ed	 xor	 dl, -19			; ffffffedH
  000ee	88 55 f0	 mov	 BYTE PTR __k$[ebp+12], dl
  000f1	8a 50 0d	 mov	 dl, BYTE PTR [eax+13]
  000f4	84 d2		 test	 dl, dl
  000f6	0f 84 a8 00 00
	00		 je	 $LN83@LoadFloat_@3
  000fc	32 d1		 xor	 dl, cl
  000fe	88 55 f1	 mov	 BYTE PTR __k$[ebp+13], dl
  00101	8a 50 0e	 mov	 dl, BYTE PTR [eax+14]
  00104	84 d2		 test	 dl, dl
  00106	0f 84 92 00 00
	00		 je	 $LN82@LoadFloat_@3
  0010c	80 f2 eb	 xor	 dl, -21			; ffffffebH
  0010f	88 55 f2	 mov	 BYTE PTR __k$[ebp+14], dl
  00112	8a 50 0f	 mov	 dl, BYTE PTR [eax+15]
  00115	84 d2		 test	 dl, dl
  00117	74 7f		 je	 SHORT $LN81@LoadFloat_@3
  00119	80 f2 ea	 xor	 dl, -22			; ffffffeaH
  0011c	88 55 f3	 mov	 BYTE PTR __k$[ebp+15], dl
  0011f	8a 50 10	 mov	 dl, BYTE PTR [eax+16]
  00122	84 d2		 test	 dl, dl
  00124	74 6c		 je	 SHORT $LN80@LoadFloat_@3
  00126	80 f2 ed	 xor	 dl, -19			; ffffffedH
  00129	88 55 f4	 mov	 BYTE PTR __k$[ebp+16], dl
  0012c	8a 50 11	 mov	 dl, BYTE PTR [eax+17]
  0012f	84 d2		 test	 dl, dl
  00131	74 5a		 je	 SHORT $LN79@LoadFloat_@3
  00133	32 d1		 xor	 dl, cl
  00135	80 78 12 00	 cmp	 BYTE PTR [eax+18], 0
  00139	88 55 f5	 mov	 BYTE PTR __k$[ebp+17], dl
  0013c	0f 84 b1 00 00
	00		 je	 $LN1@LoadFloat_@3
  00142	8a 50 13	 mov	 dl, BYTE PTR [eax+19]
  00145	84 d2		 test	 dl, dl
  00147	74 3e		 je	 SHORT $LN77@LoadFloat_@3
  00149	80 f2 ea	 xor	 dl, -22			; ffffffeaH
  0014c	88 55 f7	 mov	 BYTE PTR __k$[ebp+19], dl
  0014f	8a 50 14	 mov	 dl, BYTE PTR [eax+20]
  00152	84 d2		 test	 dl, dl
  00154	74 2b		 je	 SHORT $LN76@LoadFloat_@3
  00156	80 f2 ed	 xor	 dl, -19			; ffffffedH
  00159	88 55 f8	 mov	 BYTE PTR __k$[ebp+20], dl
  0015c	8a 50 15	 mov	 dl, BYTE PTR [eax+21]
  0015f	84 d2		 test	 dl, dl
  00161	74 19		 je	 SHORT $LN75@LoadFloat_@3
  00163	8a 40 16	 mov	 al, BYTE PTR [eax+22]
  00166	32 d1		 xor	 dl, cl
  00168	88 55 f9	 mov	 BYTE PTR __k$[ebp+21], dl
  0016b	84 c0		 test	 al, al
  0016d	74 07		 je	 SHORT $LN74@LoadFloat_@3
  0016f	34 eb		 xor	 al, -21			; ffffffebH
  00171	88 45 fa	 mov	 BYTE PTR __k$[ebp+22], al
  00174	eb 7d		 jmp	 SHORT $LN1@LoadFloat_@3
$LN74@LoadFloat_@3:
  00176	c6 45 fa eb	 mov	 BYTE PTR __k$[ebp+22], -21 ; ffffffebH
  0017a	eb 77		 jmp	 SHORT $LN1@LoadFloat_@3
$LN75@LoadFloat_@3:
  0017c	88 4d f9	 mov	 BYTE PTR __k$[ebp+21], cl
  0017f	eb 72		 jmp	 SHORT $LN1@LoadFloat_@3
$LN76@LoadFloat_@3:
  00181	c6 45 f8 ed	 mov	 BYTE PTR __k$[ebp+20], -19 ; ffffffedH
  00185	eb 6c		 jmp	 SHORT $LN1@LoadFloat_@3
$LN77@LoadFloat_@3:
  00187	c6 45 f7 ea	 mov	 BYTE PTR __k$[ebp+19], -22 ; ffffffeaH
  0018b	eb 66		 jmp	 SHORT $LN1@LoadFloat_@3
$LN79@LoadFloat_@3:
  0018d	88 4d f5	 mov	 BYTE PTR __k$[ebp+17], cl
  00190	eb 61		 jmp	 SHORT $LN1@LoadFloat_@3
$LN80@LoadFloat_@3:
  00192	c6 45 f4 ed	 mov	 BYTE PTR __k$[ebp+16], -19 ; ffffffedH
  00196	eb 5b		 jmp	 SHORT $LN1@LoadFloat_@3
$LN81@LoadFloat_@3:
  00198	c6 45 f3 ea	 mov	 BYTE PTR __k$[ebp+15], -22 ; ffffffeaH
  0019c	eb 55		 jmp	 SHORT $LN1@LoadFloat_@3
$LN82@LoadFloat_@3:
  0019e	c6 45 f2 eb	 mov	 BYTE PTR __k$[ebp+14], -21 ; ffffffebH
  001a2	eb 4f		 jmp	 SHORT $LN1@LoadFloat_@3
$LN83@LoadFloat_@3:
  001a4	88 4d f1	 mov	 BYTE PTR __k$[ebp+13], cl
  001a7	eb 4a		 jmp	 SHORT $LN1@LoadFloat_@3
$LN84@LoadFloat_@3:
  001a9	c6 45 f0 ed	 mov	 BYTE PTR __k$[ebp+12], -19 ; ffffffedH
  001ad	eb 44		 jmp	 SHORT $LN1@LoadFloat_@3
$LN85@LoadFloat_@3:
  001af	c6 45 ef ea	 mov	 BYTE PTR __k$[ebp+11], -22 ; ffffffeaH
  001b3	eb 3e		 jmp	 SHORT $LN1@LoadFloat_@3
$LN86@LoadFloat_@3:
  001b5	c6 45 ee eb	 mov	 BYTE PTR __k$[ebp+10], -21 ; ffffffebH
  001b9	eb 38		 jmp	 SHORT $LN1@LoadFloat_@3
$LN87@LoadFloat_@3:
  001bb	88 4d ed	 mov	 BYTE PTR __k$[ebp+9], cl
  001be	eb 33		 jmp	 SHORT $LN1@LoadFloat_@3
$LN88@LoadFloat_@3:
  001c0	c6 45 ec ed	 mov	 BYTE PTR __k$[ebp+8], -19 ; ffffffedH
  001c4	eb 2d		 jmp	 SHORT $LN1@LoadFloat_@3
$LN89@LoadFloat_@3:
  001c6	c6 45 eb ea	 mov	 BYTE PTR __k$[ebp+7], -22 ; ffffffeaH
  001ca	eb 27		 jmp	 SHORT $LN1@LoadFloat_@3
$LN90@LoadFloat_@3:
  001cc	c6 45 ea eb	 mov	 BYTE PTR __k$[ebp+6], -21 ; ffffffebH
  001d0	eb 21		 jmp	 SHORT $LN1@LoadFloat_@3
$LN91@LoadFloat_@3:
  001d2	88 4d e9	 mov	 BYTE PTR __k$[ebp+5], cl
  001d5	eb 1c		 jmp	 SHORT $LN1@LoadFloat_@3
$LN92@LoadFloat_@3:
  001d7	c6 45 e8 ed	 mov	 BYTE PTR __k$[ebp+4], -19 ; ffffffedH
  001db	eb 16		 jmp	 SHORT $LN1@LoadFloat_@3
$LN93@LoadFloat_@3:
  001dd	c6 45 e7 ea	 mov	 BYTE PTR __k$[ebp+3], -22 ; ffffffeaH
  001e1	eb 10		 jmp	 SHORT $LN1@LoadFloat_@3
$LN94@LoadFloat_@3:
  001e3	c6 45 e6 eb	 mov	 BYTE PTR __k$[ebp+2], -21 ; ffffffebH
  001e7	eb 0a		 jmp	 SHORT $LN1@LoadFloat_@3
$LN95@LoadFloat_@3:
  001e9	c6 45 e5 ec	 mov	 BYTE PTR __k$[ebp+1], -20 ; ffffffecH
  001ed	eb 04		 jmp	 SHORT $LN1@LoadFloat_@3
$LN96@LoadFloat_@3:
  001ef	c6 45 e4 ed	 mov	 BYTE PTR __k$[ebp], -19	; ffffffedH
$LN1@LoadFloat_@3:
  001f3	6a 04		 push	 4
  001f5	8d 45 e4	 lea	 eax, DWORD PTR __k$[ebp]
  001f8	c6 45 f6 00	 mov	 BYTE PTR __k$[ebp+18], 0
  001fc	5a		 pop	 edx
$LL104@LoadFloat_@3:
  001fd	81 30 ed ec eb
	ea		 xor	 DWORD PTR [eax], -353637139 ; eaebecedH
  00203	83 c0 04	 add	 eax, 4
  00206	4a		 dec	 edx
  00207	75 f4		 jne	 SHORT $LL104@LoadFloat_@3
  00209	6a 10		 push	 16			; 00000010H
  0020b	58		 pop	 eax
$LL101@LoadFloat_@3:
  0020c	8b c8		 mov	 ecx, eax
  0020e	81 e1 03 00 00
	80		 and	 ecx, -2147483645	; 80000003H
  00214	79 05		 jns	 SHORT $LN111@LoadFloat_@3
  00216	49		 dec	 ecx
  00217	83 c9 fc	 or	 ecx, -4			; fffffffcH
  0021a	41		 inc	 ecx
$LN111@LoadFloat_@3:
  0021b	b2 ed		 mov	 dl, -19			; ffffffedH
  0021d	2a d1		 sub	 dl, cl
  0021f	30 54 05 e4	 xor	 BYTE PTR __k$[ebp+eax], dl
  00223	40		 inc	 eax
  00224	83 f8 12	 cmp	 eax, 18			; 00000012H
  00227	7c e3		 jl	 SHORT $LL101@LoadFloat_@3

; 137  : 		return LoadFloat(_k, f);

  00229	f3 0f 10 45 0c	 movss	 xmm0, DWORD PTR _f$[ebp]
  0022e	51		 push	 ecx
  0022f	8d 45 e4	 lea	 eax, DWORD PTR __k$[ebp]
  00232	f3 0f 11 04 24	 movss	 DWORD PTR [esp], xmm0
  00237	50		 push	 eax
  00238	8b ce		 mov	 ecx, esi
  0023a	ff 15 00 00 00
	00		 call	 DWORD PTR __imp_?LoadFloat@ioINILoader@@QAEMPBDM@Z

; 138  : 	}

  00240	8b 4d fc	 mov	 ecx, DWORD PTR __$ArrayPad$[ebp]
  00243	33 cd		 xor	 ecx, ebp
  00245	5e		 pop	 esi
  00246	e8 00 00 00 00	 call	 @__security_check_cookie@4
  0024b	c9		 leave
  0024c	c2 08 00	 ret	 8
??$LoadFloat_e@$0BD@@ioINILoader@@QAEMAAY0BD@$$CBDM@Z ENDP ; ioINILoader::LoadFloat_e<19>
_TEXT	ENDS
PUBLIC	__$ArrayPad$
PUBLIC	??$LoadFloat_e@$0BF@@ioINILoader@@QAEMAAY0BF@$$CBDM@Z ; ioINILoader::LoadFloat_e<21>
; Function compile flags: /Ogsp
;	COMDAT ??$LoadFloat_e@$0BF@@ioINILoader@@QAEMAAY0BF@$$CBDM@Z
_TEXT	SEGMENT
__k$ = -32						; size = 21
__$ArrayPad$ = -4					; size = 4
_k$ = 8							; size = 4
_f$ = 12						; size = 4
??$LoadFloat_e@$0BF@@ioINILoader@@QAEMAAY0BF@$$CBDM@Z PROC ; ioINILoader::LoadFloat_e<21>, COMDAT
; _this$ = ecx

; 135  : 	{

  00000	55		 push	 ebp
  00001	8b ec		 mov	 ebp, esp
  00003	83 ec 20	 sub	 esp, 32			; 00000020H
  00006	a1 00 00 00 00	 mov	 eax, DWORD PTR ___security_cookie
  0000b	33 c5		 xor	 eax, ebp
  0000d	89 45 fc	 mov	 DWORD PTR __$ArrayPad$[ebp], eax
  00010	8b 45 08	 mov	 eax, DWORD PTR _k$[ebp]

; 136  : 		_ENCSTR(k, _k);

  00013	8a 10		 mov	 dl, BYTE PTR [eax]
  00015	53		 push	 ebx
  00016	56		 push	 esi
  00017	8b f1		 mov	 esi, ecx
  00019	84 d2		 test	 dl, dl
  0001b	0f 84 f7 01 00
	00		 je	 $LN96@LoadFloat_@4
  00021	80 f2 ed	 xor	 dl, -19			; ffffffedH
  00024	88 55 e0	 mov	 BYTE PTR __k$[ebp], dl
  00027	8a 50 01	 mov	 dl, BYTE PTR [eax+1]
  0002a	84 d2		 test	 dl, dl
  0002c	0f 84 e0 01 00
	00		 je	 $LN95@LoadFloat_@4
  00032	b1 ec		 mov	 cl, -20			; ffffffecH
  00034	32 d1		 xor	 dl, cl
  00036	88 55 e1	 mov	 BYTE PTR __k$[ebp+1], dl
  00039	8a 50 02	 mov	 dl, BYTE PTR [eax+2]
  0003c	84 d2		 test	 dl, dl
  0003e	0f 84 c8 01 00
	00		 je	 $LN94@LoadFloat_@4
  00044	b3 eb		 mov	 bl, -21			; ffffffebH
  00046	32 d3		 xor	 dl, bl
  00048	88 55 e2	 mov	 BYTE PTR __k$[ebp+2], dl
  0004b	8a 50 03	 mov	 dl, BYTE PTR [eax+3]
  0004e	84 d2		 test	 dl, dl
  00050	0f 84 b0 01 00
	00		 je	 $LN93@LoadFloat_@4
  00056	80 f2 ea	 xor	 dl, -22			; ffffffeaH
  00059	88 55 e3	 mov	 BYTE PTR __k$[ebp+3], dl
  0005c	8a 50 04	 mov	 dl, BYTE PTR [eax+4]
  0005f	84 d2		 test	 dl, dl
  00061	0f 84 99 01 00
	00		 je	 $LN92@LoadFloat_@4
  00067	80 f2 ed	 xor	 dl, -19			; ffffffedH
  0006a	88 55 e4	 mov	 BYTE PTR __k$[ebp+4], dl
  0006d	8a 50 05	 mov	 dl, BYTE PTR [eax+5]
  00070	84 d2		 test	 dl, dl
  00072	0f 84 83 01 00
	00		 je	 $LN91@LoadFloat_@4
  00078	32 d1		 xor	 dl, cl
  0007a	88 55 e5	 mov	 BYTE PTR __k$[ebp+5], dl
  0007d	8a 50 06	 mov	 dl, BYTE PTR [eax+6]
  00080	84 d2		 test	 dl, dl
  00082	0f 84 6e 01 00
	00		 je	 $LN90@LoadFloat_@4
  00088	32 d3		 xor	 dl, bl
  0008a	88 55 e6	 mov	 BYTE PTR __k$[ebp+6], dl
  0008d	8a 50 07	 mov	 dl, BYTE PTR [eax+7]
  00090	84 d2		 test	 dl, dl
  00092	0f 84 58 01 00
	00		 je	 $LN89@LoadFloat_@4
  00098	80 f2 ea	 xor	 dl, -22			; ffffffeaH
  0009b	88 55 e7	 mov	 BYTE PTR __k$[ebp+7], dl
  0009e	8a 50 08	 mov	 dl, BYTE PTR [eax+8]
  000a1	84 d2		 test	 dl, dl
  000a3	0f 84 41 01 00
	00		 je	 $LN88@LoadFloat_@4
  000a9	80 f2 ed	 xor	 dl, -19			; ffffffedH
  000ac	88 55 e8	 mov	 BYTE PTR __k$[ebp+8], dl
  000af	8a 50 09	 mov	 dl, BYTE PTR [eax+9]
  000b2	84 d2		 test	 dl, dl
  000b4	0f 84 2b 01 00
	00		 je	 $LN87@LoadFloat_@4
  000ba	32 d1		 xor	 dl, cl
  000bc	88 55 e9	 mov	 BYTE PTR __k$[ebp+9], dl
  000bf	8a 50 0a	 mov	 dl, BYTE PTR [eax+10]
  000c2	84 d2		 test	 dl, dl
  000c4	0f 84 16 01 00
	00		 je	 $LN86@LoadFloat_@4
  000ca	32 d3		 xor	 dl, bl
  000cc	88 55 ea	 mov	 BYTE PTR __k$[ebp+10], dl
  000cf	8a 50 0b	 mov	 dl, BYTE PTR [eax+11]
  000d2	84 d2		 test	 dl, dl
  000d4	0f 84 00 01 00
	00		 je	 $LN85@LoadFloat_@4
  000da	80 f2 ea	 xor	 dl, -22			; ffffffeaH
  000dd	88 55 eb	 mov	 BYTE PTR __k$[ebp+11], dl
  000e0	8a 50 0c	 mov	 dl, BYTE PTR [eax+12]
  000e3	84 d2		 test	 dl, dl
  000e5	0f 84 e9 00 00
	00		 je	 $LN84@LoadFloat_@4
  000eb	80 f2 ed	 xor	 dl, -19			; ffffffedH
  000ee	88 55 ec	 mov	 BYTE PTR __k$[ebp+12], dl
  000f1	8a 50 0d	 mov	 dl, BYTE PTR [eax+13]
  000f4	84 d2		 test	 dl, dl
  000f6	0f 84 d3 00 00
	00		 je	 $LN83@LoadFloat_@4
  000fc	32 d1		 xor	 dl, cl
  000fe	88 55 ed	 mov	 BYTE PTR __k$[ebp+13], dl
  00101	8a 50 0e	 mov	 dl, BYTE PTR [eax+14]
  00104	84 d2		 test	 dl, dl
  00106	0f 84 be 00 00
	00		 je	 $LN82@LoadFloat_@4
  0010c	32 d3		 xor	 dl, bl
  0010e	88 55 ee	 mov	 BYTE PTR __k$[ebp+14], dl
  00111	8a 50 0f	 mov	 dl, BYTE PTR [eax+15]
  00114	84 d2		 test	 dl, dl
  00116	0f 84 a8 00 00
	00		 je	 $LN81@LoadFloat_@4
  0011c	80 f2 ea	 xor	 dl, -22			; ffffffeaH
  0011f	88 55 ef	 mov	 BYTE PTR __k$[ebp+15], dl
  00122	8a 50 10	 mov	 dl, BYTE PTR [eax+16]
  00125	84 d2		 test	 dl, dl
  00127	0f 84 91 00 00
	00		 je	 $LN80@LoadFloat_@4
  0012d	80 f2 ed	 xor	 dl, -19			; ffffffedH
  00130	88 55 f0	 mov	 BYTE PTR __k$[ebp+16], dl
  00133	8a 50 11	 mov	 dl, BYTE PTR [eax+17]
  00136	84 d2		 test	 dl, dl
  00138	74 7f		 je	 SHORT $LN79@LoadFloat_@4
  0013a	32 d1		 xor	 dl, cl
  0013c	88 55 f1	 mov	 BYTE PTR __k$[ebp+17], dl
  0013f	8a 50 12	 mov	 dl, BYTE PTR [eax+18]
  00142	84 d2		 test	 dl, dl
  00144	74 6e		 je	 SHORT $LN78@LoadFloat_@4
  00146	32 d3		 xor	 dl, bl
  00148	88 55 f2	 mov	 BYTE PTR __k$[ebp+18], dl
  0014b	8a 50 13	 mov	 dl, BYTE PTR [eax+19]
  0014e	84 d2		 test	 dl, dl
  00150	74 5c		 je	 SHORT $LN77@LoadFloat_@4
  00152	80 f2 ea	 xor	 dl, -22			; ffffffeaH
  00155	80 78 14 00	 cmp	 BYTE PTR [eax+20], 0
  00159	88 55 f3	 mov	 BYTE PTR __k$[ebp+19], dl
  0015c	0f 84 ba 00 00
	00		 je	 $LN1@LoadFloat_@4
  00162	8a 50 15	 mov	 dl, BYTE PTR [eax+21]
  00165	84 d2		 test	 dl, dl
  00167	74 40		 je	 SHORT $LN75@LoadFloat_@4
  00169	32 d1		 xor	 dl, cl
  0016b	88 55 f5	 mov	 BYTE PTR __k$[ebp+21], dl
  0016e	8a 50 16	 mov	 dl, BYTE PTR [eax+22]
  00171	84 d2		 test	 dl, dl
  00173	74 2f		 je	 SHORT $LN74@LoadFloat_@4
  00175	32 d3		 xor	 dl, bl
  00177	88 55 f6	 mov	 BYTE PTR __k$[ebp+22], dl
  0017a	8a 50 17	 mov	 dl, BYTE PTR [eax+23]
  0017d	84 d2		 test	 dl, dl
  0017f	74 1d		 je	 SHORT $LN73@LoadFloat_@4
  00181	8a 40 18	 mov	 al, BYTE PTR [eax+24]
  00184	80 f2 ea	 xor	 dl, -22			; ffffffeaH
  00187	88 55 f7	 mov	 BYTE PTR __k$[ebp+23], dl
  0018a	84 c0		 test	 al, al
  0018c	74 0a		 je	 SHORT $LN72@LoadFloat_@4
  0018e	34 ed		 xor	 al, -19			; ffffffedH
  00190	88 45 f8	 mov	 BYTE PTR __k$[ebp+24], al
  00193	e9 84 00 00 00	 jmp	 $LN1@LoadFloat_@4
$LN72@LoadFloat_@4:
  00198	c6 45 f8 ed	 mov	 BYTE PTR __k$[ebp+24], -19 ; ffffffedH
  0019c	eb 7e		 jmp	 SHORT $LN1@LoadFloat_@4
$LN73@LoadFloat_@4:
  0019e	c6 45 f7 ea	 mov	 BYTE PTR __k$[ebp+23], -22 ; ffffffeaH
  001a2	eb 78		 jmp	 SHORT $LN1@LoadFloat_@4
$LN74@LoadFloat_@4:
  001a4	88 5d f6	 mov	 BYTE PTR __k$[ebp+22], bl
  001a7	eb 73		 jmp	 SHORT $LN1@LoadFloat_@4
$LN75@LoadFloat_@4:
  001a9	88 4d f5	 mov	 BYTE PTR __k$[ebp+21], cl
  001ac	eb 6e		 jmp	 SHORT $LN1@LoadFloat_@4
$LN77@LoadFloat_@4:
  001ae	c6 45 f3 ea	 mov	 BYTE PTR __k$[ebp+19], -22 ; ffffffeaH
  001b2	eb 68		 jmp	 SHORT $LN1@LoadFloat_@4
$LN78@LoadFloat_@4:
  001b4	88 5d f2	 mov	 BYTE PTR __k$[ebp+18], bl
  001b7	eb 63		 jmp	 SHORT $LN1@LoadFloat_@4
$LN79@LoadFloat_@4:
  001b9	88 4d f1	 mov	 BYTE PTR __k$[ebp+17], cl
  001bc	eb 5e		 jmp	 SHORT $LN1@LoadFloat_@4
$LN80@LoadFloat_@4:
  001be	c6 45 f0 ed	 mov	 BYTE PTR __k$[ebp+16], -19 ; ffffffedH
  001c2	eb 58		 jmp	 SHORT $LN1@LoadFloat_@4
$LN81@LoadFloat_@4:
  001c4	c6 45 ef ea	 mov	 BYTE PTR __k$[ebp+15], -22 ; ffffffeaH
  001c8	eb 52		 jmp	 SHORT $LN1@LoadFloat_@4
$LN82@LoadFloat_@4:
  001ca	88 5d ee	 mov	 BYTE PTR __k$[ebp+14], bl
  001cd	eb 4d		 jmp	 SHORT $LN1@LoadFloat_@4
$LN83@LoadFloat_@4:
  001cf	88 4d ed	 mov	 BYTE PTR __k$[ebp+13], cl
  001d2	eb 48		 jmp	 SHORT $LN1@LoadFloat_@4
$LN84@LoadFloat_@4:
  001d4	c6 45 ec ed	 mov	 BYTE PTR __k$[ebp+12], -19 ; ffffffedH
  001d8	eb 42		 jmp	 SHORT $LN1@LoadFloat_@4
$LN85@LoadFloat_@4:
  001da	c6 45 eb ea	 mov	 BYTE PTR __k$[ebp+11], -22 ; ffffffeaH
  001de	eb 3c		 jmp	 SHORT $LN1@LoadFloat_@4
$LN86@LoadFloat_@4:
  001e0	88 5d ea	 mov	 BYTE PTR __k$[ebp+10], bl
  001e3	eb 37		 jmp	 SHORT $LN1@LoadFloat_@4
$LN87@LoadFloat_@4:
  001e5	88 4d e9	 mov	 BYTE PTR __k$[ebp+9], cl
  001e8	eb 32		 jmp	 SHORT $LN1@LoadFloat_@4
$LN88@LoadFloat_@4:
  001ea	c6 45 e8 ed	 mov	 BYTE PTR __k$[ebp+8], -19 ; ffffffedH
  001ee	eb 2c		 jmp	 SHORT $LN1@LoadFloat_@4
$LN89@LoadFloat_@4:
  001f0	c6 45 e7 ea	 mov	 BYTE PTR __k$[ebp+7], -22 ; ffffffeaH
  001f4	eb 26		 jmp	 SHORT $LN1@LoadFloat_@4
$LN90@LoadFloat_@4:
  001f6	88 5d e6	 mov	 BYTE PTR __k$[ebp+6], bl
  001f9	eb 21		 jmp	 SHORT $LN1@LoadFloat_@4
$LN91@LoadFloat_@4:
  001fb	88 4d e5	 mov	 BYTE PTR __k$[ebp+5], cl
  001fe	eb 1c		 jmp	 SHORT $LN1@LoadFloat_@4
$LN92@LoadFloat_@4:
  00200	c6 45 e4 ed	 mov	 BYTE PTR __k$[ebp+4], -19 ; ffffffedH
  00204	eb 16		 jmp	 SHORT $LN1@LoadFloat_@4
$LN93@LoadFloat_@4:
  00206	c6 45 e3 ea	 mov	 BYTE PTR __k$[ebp+3], -22 ; ffffffeaH
  0020a	eb 10		 jmp	 SHORT $LN1@LoadFloat_@4
$LN94@LoadFloat_@4:
  0020c	c6 45 e2 eb	 mov	 BYTE PTR __k$[ebp+2], -21 ; ffffffebH
  00210	eb 0a		 jmp	 SHORT $LN1@LoadFloat_@4
$LN95@LoadFloat_@4:
  00212	c6 45 e1 ec	 mov	 BYTE PTR __k$[ebp+1], -20 ; ffffffecH
  00216	eb 04		 jmp	 SHORT $LN1@LoadFloat_@4
$LN96@LoadFloat_@4:
  00218	c6 45 e0 ed	 mov	 BYTE PTR __k$[ebp], -19	; ffffffedH
$LN1@LoadFloat_@4:
  0021c	6a 05		 push	 5
  0021e	8d 45 e0	 lea	 eax, DWORD PTR __k$[ebp]
  00221	c6 45 f4 00	 mov	 BYTE PTR __k$[ebp+20], 0
  00225	5a		 pop	 edx
$LL104@LoadFloat_@4:
  00226	81 30 ed ec eb
	ea		 xor	 DWORD PTR [eax], -353637139 ; eaebecedH
  0022c	83 c0 04	 add	 eax, 4
  0022f	4a		 dec	 edx
  00230	75 f4		 jne	 SHORT $LL104@LoadFloat_@4

; 137  : 		return LoadFloat(_k, f);

  00232	f3 0f 10 45 0c	 movss	 xmm0, DWORD PTR _f$[ebp]
  00237	51		 push	 ecx
  00238	8d 45 e0	 lea	 eax, DWORD PTR __k$[ebp]
  0023b	f3 0f 11 04 24	 movss	 DWORD PTR [esp], xmm0
  00240	50		 push	 eax
  00241	8b ce		 mov	 ecx, esi
  00243	ff 15 00 00 00
	00		 call	 DWORD PTR __imp_?LoadFloat@ioINILoader@@QAEMPBDM@Z

; 138  : 	}

  00249	8b 4d fc	 mov	 ecx, DWORD PTR __$ArrayPad$[ebp]
  0024c	5e		 pop	 esi
  0024d	33 cd		 xor	 ecx, ebp
  0024f	5b		 pop	 ebx
  00250	e8 00 00 00 00	 call	 @__security_check_cookie@4
  00255	c9		 leave
  00256	c2 08 00	 ret	 8
??$LoadFloat_e@$0BF@@ioINILoader@@QAEMAAY0BF@$$CBDM@Z ENDP ; ioINILoader::LoadFloat_e<21>
_TEXT	ENDS
PUBLIC	__$ArrayPad$
PUBLIC	??$LoadFloat_e@$0M@@ioINILoader@@QAEMAAY0M@$$CBDM@Z ; ioINILoader::LoadFloat_e<12>
; Function compile flags: /Ogsp
;	COMDAT ??$LoadFloat_e@$0M@@ioINILoader@@QAEMAAY0M@$$CBDM@Z
_TEXT	SEGMENT
__k$ = -20						; size = 12
__$ArrayPad$ = -4					; size = 4
_k$ = 8							; size = 4
_f$ = 12						; size = 4
??$LoadFloat_e@$0M@@ioINILoader@@QAEMAAY0M@$$CBDM@Z PROC ; ioINILoader::LoadFloat_e<12>, COMDAT
; _this$ = ecx

; 135  : 	{

  00000	55		 push	 ebp
  00001	8b ec		 mov	 ebp, esp
  00003	83 ec 14	 sub	 esp, 20			; 00000014H
  00006	a1 00 00 00 00	 mov	 eax, DWORD PTR ___security_cookie
  0000b	33 c5		 xor	 eax, ebp
  0000d	89 45 fc	 mov	 DWORD PTR __$ArrayPad$[ebp], eax
  00010	8b 45 08	 mov	 eax, DWORD PTR _k$[ebp]

; 136  : 		_ENCSTR(k, _k);

  00013	8a 10		 mov	 dl, BYTE PTR [eax]
  00015	56		 push	 esi
  00016	8b f1		 mov	 esi, ecx
  00018	84 d2		 test	 dl, dl
  0001a	0f 84 32 01 00
	00		 je	 $LN96@LoadFloat_@5
  00020	80 f2 ed	 xor	 dl, -19			; ffffffedH
  00023	88 55 ec	 mov	 BYTE PTR __k$[ebp], dl
  00026	8a 50 01	 mov	 dl, BYTE PTR [eax+1]
  00029	84 d2		 test	 dl, dl
  0002b	0f 84 1b 01 00
	00		 je	 $LN95@LoadFloat_@5
  00031	80 f2 ec	 xor	 dl, -20			; ffffffecH
  00034	88 55 ed	 mov	 BYTE PTR __k$[ebp+1], dl
  00037	8a 50 02	 mov	 dl, BYTE PTR [eax+2]
  0003a	84 d2		 test	 dl, dl
  0003c	0f 84 04 01 00
	00		 je	 $LN94@LoadFloat_@5
  00042	b1 eb		 mov	 cl, -21			; ffffffebH
  00044	32 d1		 xor	 dl, cl
  00046	88 55 ee	 mov	 BYTE PTR __k$[ebp+2], dl
  00049	8a 50 03	 mov	 dl, BYTE PTR [eax+3]
  0004c	84 d2		 test	 dl, dl
  0004e	0f 84 ec 00 00
	00		 je	 $LN93@LoadFloat_@5
  00054	80 f2 ea	 xor	 dl, -22			; ffffffeaH
  00057	88 55 ef	 mov	 BYTE PTR __k$[ebp+3], dl
  0005a	8a 50 04	 mov	 dl, BYTE PTR [eax+4]
  0005d	84 d2		 test	 dl, dl
  0005f	0f 84 d5 00 00
	00		 je	 $LN92@LoadFloat_@5
  00065	80 f2 ed	 xor	 dl, -19			; ffffffedH
  00068	88 55 f0	 mov	 BYTE PTR __k$[ebp+4], dl
  0006b	8a 50 05	 mov	 dl, BYTE PTR [eax+5]
  0006e	84 d2		 test	 dl, dl
  00070	0f 84 be 00 00
	00		 je	 $LN91@LoadFloat_@5
  00076	80 f2 ec	 xor	 dl, -20			; ffffffecH
  00079	88 55 f1	 mov	 BYTE PTR __k$[ebp+5], dl
  0007c	8a 50 06	 mov	 dl, BYTE PTR [eax+6]
  0007f	84 d2		 test	 dl, dl
  00081	0f 84 a8 00 00
	00		 je	 $LN90@LoadFloat_@5
  00087	32 d1		 xor	 dl, cl
  00089	88 55 f2	 mov	 BYTE PTR __k$[ebp+6], dl
  0008c	8a 50 07	 mov	 dl, BYTE PTR [eax+7]
  0008f	84 d2		 test	 dl, dl
  00091	0f 84 92 00 00
	00		 je	 $LN89@LoadFloat_@5
  00097	80 f2 ea	 xor	 dl, -22			; ffffffeaH
  0009a	88 55 f3	 mov	 BYTE PTR __k$[ebp+7], dl
  0009d	8a 50 08	 mov	 dl, BYTE PTR [eax+8]
  000a0	84 d2		 test	 dl, dl
  000a2	74 7f		 je	 SHORT $LN88@LoadFloat_@5
  000a4	80 f2 ed	 xor	 dl, -19			; ffffffedH
  000a7	88 55 f4	 mov	 BYTE PTR __k$[ebp+8], dl
  000aa	8a 50 09	 mov	 dl, BYTE PTR [eax+9]
  000ad	84 d2		 test	 dl, dl
  000af	74 6c		 je	 SHORT $LN87@LoadFloat_@5
  000b1	80 f2 ec	 xor	 dl, -20			; ffffffecH
  000b4	88 55 f5	 mov	 BYTE PTR __k$[ebp+9], dl
  000b7	8a 50 0a	 mov	 dl, BYTE PTR [eax+10]
  000ba	84 d2		 test	 dl, dl
  000bc	74 5a		 je	 SHORT $LN86@LoadFloat_@5
  000be	32 d1		 xor	 dl, cl
  000c0	80 78 0b 00	 cmp	 BYTE PTR [eax+11], 0
  000c4	88 55 f6	 mov	 BYTE PTR __k$[ebp+10], dl
  000c7	0f 84 89 00 00
	00		 je	 $LN1@LoadFloat_@5
  000cd	8a 50 0c	 mov	 dl, BYTE PTR [eax+12]
  000d0	84 d2		 test	 dl, dl
  000d2	74 3e		 je	 SHORT $LN84@LoadFloat_@5
  000d4	80 f2 ed	 xor	 dl, -19			; ffffffedH
  000d7	88 55 f8	 mov	 BYTE PTR __k$[ebp+12], dl
  000da	8a 50 0d	 mov	 dl, BYTE PTR [eax+13]
  000dd	84 d2		 test	 dl, dl
  000df	74 2b		 je	 SHORT $LN83@LoadFloat_@5
  000e1	80 f2 ec	 xor	 dl, -20			; ffffffecH
  000e4	88 55 f9	 mov	 BYTE PTR __k$[ebp+13], dl
  000e7	8a 50 0e	 mov	 dl, BYTE PTR [eax+14]
  000ea	84 d2		 test	 dl, dl
  000ec	74 19		 je	 SHORT $LN82@LoadFloat_@5
  000ee	8a 40 0f	 mov	 al, BYTE PTR [eax+15]
  000f1	32 d1		 xor	 dl, cl
  000f3	88 55 fa	 mov	 BYTE PTR __k$[ebp+14], dl
  000f6	84 c0		 test	 al, al
  000f8	74 07		 je	 SHORT $LN81@LoadFloat_@5
  000fa	34 ea		 xor	 al, -22			; ffffffeaH
  000fc	88 45 fb	 mov	 BYTE PTR __k$[ebp+15], al
  000ff	eb 55		 jmp	 SHORT $LN1@LoadFloat_@5
$LN81@LoadFloat_@5:
  00101	c6 45 fb ea	 mov	 BYTE PTR __k$[ebp+15], -22 ; ffffffeaH
  00105	eb 4f		 jmp	 SHORT $LN1@LoadFloat_@5
$LN82@LoadFloat_@5:
  00107	88 4d fa	 mov	 BYTE PTR __k$[ebp+14], cl
  0010a	eb 4a		 jmp	 SHORT $LN1@LoadFloat_@5
$LN83@LoadFloat_@5:
  0010c	c6 45 f9 ec	 mov	 BYTE PTR __k$[ebp+13], -20 ; ffffffecH
  00110	eb 44		 jmp	 SHORT $LN1@LoadFloat_@5
$LN84@LoadFloat_@5:
  00112	c6 45 f8 ed	 mov	 BYTE PTR __k$[ebp+12], -19 ; ffffffedH
  00116	eb 3e		 jmp	 SHORT $LN1@LoadFloat_@5
$LN86@LoadFloat_@5:
  00118	88 4d f6	 mov	 BYTE PTR __k$[ebp+10], cl
  0011b	eb 39		 jmp	 SHORT $LN1@LoadFloat_@5
$LN87@LoadFloat_@5:
  0011d	c6 45 f5 ec	 mov	 BYTE PTR __k$[ebp+9], -20 ; ffffffecH
  00121	eb 33		 jmp	 SHORT $LN1@LoadFloat_@5
$LN88@LoadFloat_@5:
  00123	c6 45 f4 ed	 mov	 BYTE PTR __k$[ebp+8], -19 ; ffffffedH
  00127	eb 2d		 jmp	 SHORT $LN1@LoadFloat_@5
$LN89@LoadFloat_@5:
  00129	c6 45 f3 ea	 mov	 BYTE PTR __k$[ebp+7], -22 ; ffffffeaH
  0012d	eb 27		 jmp	 SHORT $LN1@LoadFloat_@5
$LN90@LoadFloat_@5:
  0012f	88 4d f2	 mov	 BYTE PTR __k$[ebp+6], cl
  00132	eb 22		 jmp	 SHORT $LN1@LoadFloat_@5
$LN91@LoadFloat_@5:
  00134	c6 45 f1 ec	 mov	 BYTE PTR __k$[ebp+5], -20 ; ffffffecH
  00138	eb 1c		 jmp	 SHORT $LN1@LoadFloat_@5
$LN92@LoadFloat_@5:
  0013a	c6 45 f0 ed	 mov	 BYTE PTR __k$[ebp+4], -19 ; ffffffedH
  0013e	eb 16		 jmp	 SHORT $LN1@LoadFloat_@5
$LN93@LoadFloat_@5:
  00140	c6 45 ef ea	 mov	 BYTE PTR __k$[ebp+3], -22 ; ffffffeaH
  00144	eb 10		 jmp	 SHORT $LN1@LoadFloat_@5
$LN94@LoadFloat_@5:
  00146	c6 45 ee eb	 mov	 BYTE PTR __k$[ebp+2], -21 ; ffffffebH
  0014a	eb 0a		 jmp	 SHORT $LN1@LoadFloat_@5
$LN95@LoadFloat_@5:
  0014c	c6 45 ed ec	 mov	 BYTE PTR __k$[ebp+1], -20 ; ffffffecH
  00150	eb 04		 jmp	 SHORT $LN1@LoadFloat_@5
$LN96@LoadFloat_@5:
  00152	c6 45 ec ed	 mov	 BYTE PTR __k$[ebp], -19	; ffffffedH
$LN1@LoadFloat_@5:
  00156	6a 02		 push	 2
  00158	8d 45 ec	 lea	 eax, DWORD PTR __k$[ebp]
  0015b	c6 45 f7 00	 mov	 BYTE PTR __k$[ebp+11], 0
  0015f	5a		 pop	 edx
$LL104@LoadFloat_@5:
  00160	81 30 ed ec eb
	ea		 xor	 DWORD PTR [eax], -353637139 ; eaebecedH
  00166	83 c0 04	 add	 eax, 4
  00169	4a		 dec	 edx
  0016a	75 f4		 jne	 SHORT $LL104@LoadFloat_@5
  0016c	6a 08		 push	 8
  0016e	58		 pop	 eax
$LL101@LoadFloat_@5:
  0016f	8b c8		 mov	 ecx, eax
  00171	81 e1 03 00 00
	80		 and	 ecx, -2147483645	; 80000003H
  00177	79 05		 jns	 SHORT $LN111@LoadFloat_@5
  00179	49		 dec	 ecx
  0017a	83 c9 fc	 or	 ecx, -4			; fffffffcH
  0017d	41		 inc	 ecx
$LN111@LoadFloat_@5:
  0017e	b2 ed		 mov	 dl, -19			; ffffffedH
  00180	2a d1		 sub	 dl, cl
  00182	30 54 05 ec	 xor	 BYTE PTR __k$[ebp+eax], dl
  00186	40		 inc	 eax
  00187	83 f8 0b	 cmp	 eax, 11			; 0000000bH
  0018a	7c e3		 jl	 SHORT $LL101@LoadFloat_@5

; 137  : 		return LoadFloat(_k, f);

  0018c	f3 0f 10 45 0c	 movss	 xmm0, DWORD PTR _f$[ebp]
  00191	51		 push	 ecx
  00192	8d 45 ec	 lea	 eax, DWORD PTR __k$[ebp]
  00195	f3 0f 11 04 24	 movss	 DWORD PTR [esp], xmm0
  0019a	50		 push	 eax
  0019b	8b ce		 mov	 ecx, esi
  0019d	ff 15 00 00 00
	00		 call	 DWORD PTR __imp_?LoadFloat@ioINILoader@@QAEMPBDM@Z

; 138  : 	}

  001a3	8b 4d fc	 mov	 ecx, DWORD PTR __$ArrayPad$[ebp]
  001a6	33 cd		 xor	 ecx, ebp
  001a8	5e		 pop	 esi
  001a9	e8 00 00 00 00	 call	 @__security_check_cookie@4
  001ae	c9		 leave
  001af	c2 08 00	 ret	 8
??$LoadFloat_e@$0M@@ioINILoader@@QAEMAAY0M@$$CBDM@Z ENDP ; ioINILoader::LoadFloat_e<12>
_TEXT	ENDS
PUBLIC	__$ArrayPad$
PUBLIC	??$LoadInt_e@$0P@@ioINILoader@@QAEHAAY0P@$$CBDH@Z ; ioINILoader::LoadInt_e<15>
; Function compile flags: /Ogsp
;	COMDAT ??$LoadInt_e@$0P@@ioINILoader@@QAEHAAY0P@$$CBDH@Z
_TEXT	SEGMENT
__k$ = -24						; size = 15
__$ArrayPad$ = -4					; size = 4
_k$ = 8							; size = 4
_i$ = 12						; size = 4
??$LoadInt_e@$0P@@ioINILoader@@QAEHAAY0P@$$CBDH@Z PROC	; ioINILoader::LoadInt_e<15>, COMDAT
; _this$ = ecx

; 118  : 	{

  00000	55		 push	 ebp
  00001	8b ec		 mov	 ebp, esp
  00003	83 ec 18	 sub	 esp, 24			; 00000018H
  00006	a1 00 00 00 00	 mov	 eax, DWORD PTR ___security_cookie
  0000b	33 c5		 xor	 eax, ebp
  0000d	89 45 fc	 mov	 DWORD PTR __$ArrayPad$[ebp], eax
  00010	8b 45 08	 mov	 eax, DWORD PTR _k$[ebp]

; 119  : 		_ENCSTR(k, _k);

  00013	8a 10		 mov	 dl, BYTE PTR [eax]
  00015	56		 push	 esi
  00016	8b f1		 mov	 esi, ecx
  00018	84 d2		 test	 dl, dl
  0001a	0f 84 75 01 00
	00		 je	 $LN96@LoadInt_e@4
  00020	80 f2 ed	 xor	 dl, -19			; ffffffedH
  00023	88 55 e8	 mov	 BYTE PTR __k$[ebp], dl
  00026	8a 50 01	 mov	 dl, BYTE PTR [eax+1]
  00029	84 d2		 test	 dl, dl
  0002b	0f 84 5e 01 00
	00		 je	 $LN95@LoadInt_e@4
  00031	b1 ec		 mov	 cl, -20			; ffffffecH
  00033	32 d1		 xor	 dl, cl
  00035	88 55 e9	 mov	 BYTE PTR __k$[ebp+1], dl
  00038	8a 50 02	 mov	 dl, BYTE PTR [eax+2]
  0003b	84 d2		 test	 dl, dl
  0003d	0f 84 46 01 00
	00		 je	 $LN94@LoadInt_e@4
  00043	80 f2 eb	 xor	 dl, -21			; ffffffebH
  00046	88 55 ea	 mov	 BYTE PTR __k$[ebp+2], dl
  00049	8a 50 03	 mov	 dl, BYTE PTR [eax+3]
  0004c	84 d2		 test	 dl, dl
  0004e	0f 84 2f 01 00
	00		 je	 $LN93@LoadInt_e@4
  00054	80 f2 ea	 xor	 dl, -22			; ffffffeaH
  00057	88 55 eb	 mov	 BYTE PTR __k$[ebp+3], dl
  0005a	8a 50 04	 mov	 dl, BYTE PTR [eax+4]
  0005d	84 d2		 test	 dl, dl
  0005f	0f 84 18 01 00
	00		 je	 $LN92@LoadInt_e@4
  00065	80 f2 ed	 xor	 dl, -19			; ffffffedH
  00068	88 55 ec	 mov	 BYTE PTR __k$[ebp+4], dl
  0006b	8a 50 05	 mov	 dl, BYTE PTR [eax+5]
  0006e	84 d2		 test	 dl, dl
  00070	0f 84 02 01 00
	00		 je	 $LN91@LoadInt_e@4
  00076	32 d1		 xor	 dl, cl
  00078	88 55 ed	 mov	 BYTE PTR __k$[ebp+5], dl
  0007b	8a 50 06	 mov	 dl, BYTE PTR [eax+6]
  0007e	84 d2		 test	 dl, dl
  00080	0f 84 ec 00 00
	00		 je	 $LN90@LoadInt_e@4
  00086	80 f2 eb	 xor	 dl, -21			; ffffffebH
  00089	88 55 ee	 mov	 BYTE PTR __k$[ebp+6], dl
  0008c	8a 50 07	 mov	 dl, BYTE PTR [eax+7]
  0008f	84 d2		 test	 dl, dl
  00091	0f 84 d5 00 00
	00		 je	 $LN89@LoadInt_e@4
  00097	80 f2 ea	 xor	 dl, -22			; ffffffeaH
  0009a	88 55 ef	 mov	 BYTE PTR __k$[ebp+7], dl
  0009d	8a 50 08	 mov	 dl, BYTE PTR [eax+8]
  000a0	84 d2		 test	 dl, dl
  000a2	0f 84 be 00 00
	00		 je	 $LN88@LoadInt_e@4
  000a8	80 f2 ed	 xor	 dl, -19			; ffffffedH
  000ab	88 55 f0	 mov	 BYTE PTR __k$[ebp+8], dl
  000ae	8a 50 09	 mov	 dl, BYTE PTR [eax+9]
  000b1	84 d2		 test	 dl, dl
  000b3	0f 84 a8 00 00
	00		 je	 $LN87@LoadInt_e@4
  000b9	32 d1		 xor	 dl, cl
  000bb	88 55 f1	 mov	 BYTE PTR __k$[ebp+9], dl
  000be	8a 50 0a	 mov	 dl, BYTE PTR [eax+10]
  000c1	84 d2		 test	 dl, dl
  000c3	0f 84 92 00 00
	00		 je	 $LN86@LoadInt_e@4
  000c9	80 f2 eb	 xor	 dl, -21			; ffffffebH
  000cc	88 55 f2	 mov	 BYTE PTR __k$[ebp+10], dl
  000cf	8a 50 0b	 mov	 dl, BYTE PTR [eax+11]
  000d2	84 d2		 test	 dl, dl
  000d4	74 7f		 je	 SHORT $LN85@LoadInt_e@4
  000d6	80 f2 ea	 xor	 dl, -22			; ffffffeaH
  000d9	88 55 f3	 mov	 BYTE PTR __k$[ebp+11], dl
  000dc	8a 50 0c	 mov	 dl, BYTE PTR [eax+12]
  000df	84 d2		 test	 dl, dl
  000e1	74 6c		 je	 SHORT $LN84@LoadInt_e@4
  000e3	80 f2 ed	 xor	 dl, -19			; ffffffedH
  000e6	88 55 f4	 mov	 BYTE PTR __k$[ebp+12], dl
  000e9	8a 50 0d	 mov	 dl, BYTE PTR [eax+13]
  000ec	84 d2		 test	 dl, dl
  000ee	74 5a		 je	 SHORT $LN83@LoadInt_e@4
  000f0	32 d1		 xor	 dl, cl
  000f2	80 78 0e 00	 cmp	 BYTE PTR [eax+14], 0
  000f6	88 55 f5	 mov	 BYTE PTR __k$[ebp+13], dl
  000f9	0f 84 9a 00 00
	00		 je	 $LN1@LoadInt_e@4
  000ff	8a 50 0f	 mov	 dl, BYTE PTR [eax+15]
  00102	84 d2		 test	 dl, dl
  00104	74 3e		 je	 SHORT $LN81@LoadInt_e@4
  00106	80 f2 ea	 xor	 dl, -22			; ffffffeaH
  00109	88 55 f7	 mov	 BYTE PTR __k$[ebp+15], dl
  0010c	8a 50 10	 mov	 dl, BYTE PTR [eax+16]
  0010f	84 d2		 test	 dl, dl
  00111	74 2b		 je	 SHORT $LN80@LoadInt_e@4
  00113	80 f2 ed	 xor	 dl, -19			; ffffffedH
  00116	88 55 f8	 mov	 BYTE PTR __k$[ebp+16], dl
  00119	8a 50 11	 mov	 dl, BYTE PTR [eax+17]
  0011c	84 d2		 test	 dl, dl
  0011e	74 19		 je	 SHORT $LN79@LoadInt_e@4
  00120	8a 40 12	 mov	 al, BYTE PTR [eax+18]
  00123	32 d1		 xor	 dl, cl
  00125	88 55 f9	 mov	 BYTE PTR __k$[ebp+17], dl
  00128	84 c0		 test	 al, al
  0012a	74 07		 je	 SHORT $LN78@LoadInt_e@4
  0012c	34 eb		 xor	 al, -21			; ffffffebH
  0012e	88 45 fa	 mov	 BYTE PTR __k$[ebp+18], al
  00131	eb 66		 jmp	 SHORT $LN1@LoadInt_e@4
$LN78@LoadInt_e@4:
  00133	c6 45 fa eb	 mov	 BYTE PTR __k$[ebp+18], -21 ; ffffffebH
  00137	eb 60		 jmp	 SHORT $LN1@LoadInt_e@4
$LN79@LoadInt_e@4:
  00139	88 4d f9	 mov	 BYTE PTR __k$[ebp+17], cl
  0013c	eb 5b		 jmp	 SHORT $LN1@LoadInt_e@4
$LN80@LoadInt_e@4:
  0013e	c6 45 f8 ed	 mov	 BYTE PTR __k$[ebp+16], -19 ; ffffffedH
  00142	eb 55		 jmp	 SHORT $LN1@LoadInt_e@4
$LN81@LoadInt_e@4:
  00144	c6 45 f7 ea	 mov	 BYTE PTR __k$[ebp+15], -22 ; ffffffeaH
  00148	eb 4f		 jmp	 SHORT $LN1@LoadInt_e@4
$LN83@LoadInt_e@4:
  0014a	88 4d f5	 mov	 BYTE PTR __k$[ebp+13], cl
  0014d	eb 4a		 jmp	 SHORT $LN1@LoadInt_e@4
$LN84@LoadInt_e@4:
  0014f	c6 45 f4 ed	 mov	 BYTE PTR __k$[ebp+12], -19 ; ffffffedH
  00153	eb 44		 jmp	 SHORT $LN1@LoadInt_e@4
$LN85@LoadInt_e@4:
  00155	c6 45 f3 ea	 mov	 BYTE PTR __k$[ebp+11], -22 ; ffffffeaH
  00159	eb 3e		 jmp	 SHORT $LN1@LoadInt_e@4
$LN86@LoadInt_e@4:
  0015b	c6 45 f2 eb	 mov	 BYTE PTR __k$[ebp+10], -21 ; ffffffebH
  0015f	eb 38		 jmp	 SHORT $LN1@LoadInt_e@4
$LN87@LoadInt_e@4:
  00161	88 4d f1	 mov	 BYTE PTR __k$[ebp+9], cl
  00164	eb 33		 jmp	 SHORT $LN1@LoadInt_e@4
$LN88@LoadInt_e@4:
  00166	c6 45 f0 ed	 mov	 BYTE PTR __k$[ebp+8], -19 ; ffffffedH
  0016a	eb 2d		 jmp	 SHORT $LN1@LoadInt_e@4
$LN89@LoadInt_e@4:
  0016c	c6 45 ef ea	 mov	 BYTE PTR __k$[ebp+7], -22 ; ffffffeaH
  00170	eb 27		 jmp	 SHORT $LN1@LoadInt_e@4
$LN90@LoadInt_e@4:
  00172	c6 45 ee eb	 mov	 BYTE PTR __k$[ebp+6], -21 ; ffffffebH
  00176	eb 21		 jmp	 SHORT $LN1@LoadInt_e@4
$LN91@LoadInt_e@4:
  00178	88 4d ed	 mov	 BYTE PTR __k$[ebp+5], cl
  0017b	eb 1c		 jmp	 SHORT $LN1@LoadInt_e@4
$LN92@LoadInt_e@4:
  0017d	c6 45 ec ed	 mov	 BYTE PTR __k$[ebp+4], -19 ; ffffffedH
  00181	eb 16		 jmp	 SHORT $LN1@LoadInt_e@4
$LN93@LoadInt_e@4:
  00183	c6 45 eb ea	 mov	 BYTE PTR __k$[ebp+3], -22 ; ffffffeaH
  00187	eb 10		 jmp	 SHORT $LN1@LoadInt_e@4
$LN94@LoadInt_e@4:
  00189	c6 45 ea eb	 mov	 BYTE PTR __k$[ebp+2], -21 ; ffffffebH
  0018d	eb 0a		 jmp	 SHORT $LN1@LoadInt_e@4
$LN95@LoadInt_e@4:
  0018f	c6 45 e9 ec	 mov	 BYTE PTR __k$[ebp+1], -20 ; ffffffecH
  00193	eb 04		 jmp	 SHORT $LN1@LoadInt_e@4
$LN96@LoadInt_e@4:
  00195	c6 45 e8 ed	 mov	 BYTE PTR __k$[ebp], -19	; ffffffedH
$LN1@LoadInt_e@4:
  00199	6a 03		 push	 3
  0019b	8d 45 e8	 lea	 eax, DWORD PTR __k$[ebp]
  0019e	c6 45 f6 00	 mov	 BYTE PTR __k$[ebp+14], 0
  001a2	5a		 pop	 edx
$LL104@LoadInt_e@4:
  001a3	81 30 ed ec eb
	ea		 xor	 DWORD PTR [eax], -353637139 ; eaebecedH
  001a9	83 c0 04	 add	 eax, 4
  001ac	4a		 dec	 edx
  001ad	75 f4		 jne	 SHORT $LL104@LoadInt_e@4
  001af	6a 0c		 push	 12			; 0000000cH
  001b1	58		 pop	 eax
$LL101@LoadInt_e@4:
  001b2	8b c8		 mov	 ecx, eax
  001b4	81 e1 03 00 00
	80		 and	 ecx, -2147483645	; 80000003H
  001ba	79 05		 jns	 SHORT $LN111@LoadInt_e@4
  001bc	49		 dec	 ecx
  001bd	83 c9 fc	 or	 ecx, -4			; fffffffcH
  001c0	41		 inc	 ecx
$LN111@LoadInt_e@4:
  001c1	b2 ed		 mov	 dl, -19			; ffffffedH
  001c3	2a d1		 sub	 dl, cl
  001c5	30 54 05 e8	 xor	 BYTE PTR __k$[ebp+eax], dl
  001c9	40		 inc	 eax
  001ca	83 f8 0e	 cmp	 eax, 14			; 0000000eH
  001cd	7c e3		 jl	 SHORT $LL101@LoadInt_e@4

; 120  : 		return LoadInt(_k, i);

  001cf	ff 75 0c	 push	 DWORD PTR _i$[ebp]
  001d2	8d 45 e8	 lea	 eax, DWORD PTR __k$[ebp]
  001d5	50		 push	 eax
  001d6	8b ce		 mov	 ecx, esi
  001d8	ff 15 00 00 00
	00		 call	 DWORD PTR __imp_?LoadInt@ioINILoader@@QAEHPBDH@Z

; 121  : 	}

  001de	8b 4d fc	 mov	 ecx, DWORD PTR __$ArrayPad$[ebp]
  001e1	33 cd		 xor	 ecx, ebp
  001e3	5e		 pop	 esi
  001e4	e8 00 00 00 00	 call	 @__security_check_cookie@4
  001e9	c9		 leave
  001ea	c2 08 00	 ret	 8
??$LoadInt_e@$0P@@ioINILoader@@QAEHAAY0P@$$CBDH@Z ENDP	; ioINILoader::LoadInt_e<15>
_TEXT	ENDS
PUBLIC	__$ArrayPad$
PUBLIC	??$LoadFloat_e@$0BG@@ioINILoader@@QAEMAAY0BG@$$CBDM@Z ; ioINILoader::LoadFloat_e<22>
; Function compile flags: /Ogsp
;	COMDAT ??$LoadFloat_e@$0BG@@ioINILoader@@QAEMAAY0BG@$$CBDM@Z
_TEXT	SEGMENT
__k$ = -32						; size = 22
__$ArrayPad$ = -4					; size = 4
_k$ = 8							; size = 4
_f$ = 12						; size = 4
??$LoadFloat_e@$0BG@@ioINILoader@@QAEMAAY0BG@$$CBDM@Z PROC ; ioINILoader::LoadFloat_e<22>, COMDAT
; _this$ = ecx

; 135  : 	{

  00000	55		 push	 ebp
  00001	8b ec		 mov	 ebp, esp
  00003	83 ec 20	 sub	 esp, 32			; 00000020H
  00006	a1 00 00 00 00	 mov	 eax, DWORD PTR ___security_cookie
  0000b	33 c5		 xor	 eax, ebp
  0000d	89 45 fc	 mov	 DWORD PTR __$ArrayPad$[ebp], eax
  00010	8b 45 08	 mov	 eax, DWORD PTR _k$[ebp]

; 136  : 		_ENCSTR(k, _k);

  00013	8a 10		 mov	 dl, BYTE PTR [eax]
  00015	53		 push	 ebx
  00016	56		 push	 esi
  00017	8b f1		 mov	 esi, ecx
  00019	84 d2		 test	 dl, dl
  0001b	0f 84 15 02 00
	00		 je	 $LN96@LoadFloat_@6
  00021	80 f2 ed	 xor	 dl, -19			; ffffffedH
  00024	88 55 e0	 mov	 BYTE PTR __k$[ebp], dl
  00027	8a 50 01	 mov	 dl, BYTE PTR [eax+1]
  0002a	84 d2		 test	 dl, dl
  0002c	0f 84 fe 01 00
	00		 je	 $LN95@LoadFloat_@6
  00032	80 f2 ec	 xor	 dl, -20			; ffffffecH
  00035	88 55 e1	 mov	 BYTE PTR __k$[ebp+1], dl
  00038	8a 50 02	 mov	 dl, BYTE PTR [eax+2]
  0003b	84 d2		 test	 dl, dl
  0003d	0f 84 e7 01 00
	00		 je	 $LN94@LoadFloat_@6
  00043	b1 eb		 mov	 cl, -21			; ffffffebH
  00045	32 d1		 xor	 dl, cl
  00047	88 55 e2	 mov	 BYTE PTR __k$[ebp+2], dl
  0004a	8a 50 03	 mov	 dl, BYTE PTR [eax+3]
  0004d	84 d2		 test	 dl, dl
  0004f	0f 84 cf 01 00
	00		 je	 $LN93@LoadFloat_@6
  00055	b3 ea		 mov	 bl, -22			; ffffffeaH
  00057	32 d3		 xor	 dl, bl
  00059	88 55 e3	 mov	 BYTE PTR __k$[ebp+3], dl
  0005c	8a 50 04	 mov	 dl, BYTE PTR [eax+4]
  0005f	84 d2		 test	 dl, dl
  00061	0f 84 b7 01 00
	00		 je	 $LN92@LoadFloat_@6
  00067	80 f2 ed	 xor	 dl, -19			; ffffffedH
  0006a	88 55 e4	 mov	 BYTE PTR __k$[ebp+4], dl
  0006d	8a 50 05	 mov	 dl, BYTE PTR [eax+5]
  00070	84 d2		 test	 dl, dl
  00072	0f 84 a0 01 00
	00		 je	 $LN91@LoadFloat_@6
  00078	80 f2 ec	 xor	 dl, -20			; ffffffecH
  0007b	88 55 e5	 mov	 BYTE PTR __k$[ebp+5], dl
  0007e	8a 50 06	 mov	 dl, BYTE PTR [eax+6]
  00081	84 d2		 test	 dl, dl
  00083	0f 84 8a 01 00
	00		 je	 $LN90@LoadFloat_@6
  00089	32 d1		 xor	 dl, cl
  0008b	88 55 e6	 mov	 BYTE PTR __k$[ebp+6], dl
  0008e	8a 50 07	 mov	 dl, BYTE PTR [eax+7]
  00091	84 d2		 test	 dl, dl
  00093	0f 84 75 01 00
	00		 je	 $LN89@LoadFloat_@6
  00099	32 d3		 xor	 dl, bl
  0009b	88 55 e7	 mov	 BYTE PTR __k$[ebp+7], dl
  0009e	8a 50 08	 mov	 dl, BYTE PTR [eax+8]
  000a1	84 d2		 test	 dl, dl
  000a3	0f 84 5f 01 00
	00		 je	 $LN88@LoadFloat_@6
  000a9	80 f2 ed	 xor	 dl, -19			; ffffffedH
  000ac	88 55 e8	 mov	 BYTE PTR __k$[ebp+8], dl
  000af	8a 50 09	 mov	 dl, BYTE PTR [eax+9]
  000b2	84 d2		 test	 dl, dl
  000b4	0f 84 48 01 00
	00		 je	 $LN87@LoadFloat_@6
  000ba	80 f2 ec	 xor	 dl, -20			; ffffffecH
  000bd	88 55 e9	 mov	 BYTE PTR __k$[ebp+9], dl
  000c0	8a 50 0a	 mov	 dl, BYTE PTR [eax+10]
  000c3	84 d2		 test	 dl, dl
  000c5	0f 84 32 01 00
	00		 je	 $LN86@LoadFloat_@6
  000cb	32 d1		 xor	 dl, cl
  000cd	88 55 ea	 mov	 BYTE PTR __k$[ebp+10], dl
  000d0	8a 50 0b	 mov	 dl, BYTE PTR [eax+11]
  000d3	84 d2		 test	 dl, dl
  000d5	0f 84 1d 01 00
	00		 je	 $LN85@LoadFloat_@6
  000db	32 d3		 xor	 dl, bl
  000dd	88 55 eb	 mov	 BYTE PTR __k$[ebp+11], dl
  000e0	8a 50 0c	 mov	 dl, BYTE PTR [eax+12]
  000e3	84 d2		 test	 dl, dl
  000e5	0f 84 07 01 00
	00		 je	 $LN84@LoadFloat_@6
  000eb	80 f2 ed	 xor	 dl, -19			; ffffffedH
  000ee	88 55 ec	 mov	 BYTE PTR __k$[ebp+12], dl
  000f1	8a 50 0d	 mov	 dl, BYTE PTR [eax+13]
  000f4	84 d2		 test	 dl, dl
  000f6	0f 84 f0 00 00
	00		 je	 $LN83@LoadFloat_@6
  000fc	80 f2 ec	 xor	 dl, -20			; ffffffecH
  000ff	88 55 ed	 mov	 BYTE PTR __k$[ebp+13], dl
  00102	8a 50 0e	 mov	 dl, BYTE PTR [eax+14]
  00105	84 d2		 test	 dl, dl
  00107	0f 84 da 00 00
	00		 je	 $LN82@LoadFloat_@6
  0010d	32 d1		 xor	 dl, cl
  0010f	88 55 ee	 mov	 BYTE PTR __k$[ebp+14], dl
  00112	8a 50 0f	 mov	 dl, BYTE PTR [eax+15]
  00115	84 d2		 test	 dl, dl
  00117	0f 84 c5 00 00
	00		 je	 $LN81@LoadFloat_@6
  0011d	32 d3		 xor	 dl, bl
  0011f	88 55 ef	 mov	 BYTE PTR __k$[ebp+15], dl
  00122	8a 50 10	 mov	 dl, BYTE PTR [eax+16]
  00125	84 d2		 test	 dl, dl
  00127	0f 84 af 00 00
	00		 je	 $LN80@LoadFloat_@6
  0012d	80 f2 ed	 xor	 dl, -19			; ffffffedH
  00130	88 55 f0	 mov	 BYTE PTR __k$[ebp+16], dl
  00133	8a 50 11	 mov	 dl, BYTE PTR [eax+17]
  00136	84 d2		 test	 dl, dl
  00138	0f 84 98 00 00
	00		 je	 $LN79@LoadFloat_@6
  0013e	80 f2 ec	 xor	 dl, -20			; ffffffecH
  00141	88 55 f1	 mov	 BYTE PTR __k$[ebp+17], dl
  00144	8a 50 12	 mov	 dl, BYTE PTR [eax+18]
  00147	84 d2		 test	 dl, dl
  00149	0f 84 82 00 00
	00		 je	 $LN78@LoadFloat_@6
  0014f	32 d1		 xor	 dl, cl
  00151	88 55 f2	 mov	 BYTE PTR __k$[ebp+18], dl
  00154	8a 50 13	 mov	 dl, BYTE PTR [eax+19]
  00157	84 d2		 test	 dl, dl
  00159	74 71		 je	 SHORT $LN77@LoadFloat_@6
  0015b	32 d3		 xor	 dl, bl
  0015d	88 55 f3	 mov	 BYTE PTR __k$[ebp+19], dl
  00160	8a 50 14	 mov	 dl, BYTE PTR [eax+20]
  00163	84 d2		 test	 dl, dl
  00165	74 5f		 je	 SHORT $LN76@LoadFloat_@6
  00167	80 f2 ed	 xor	 dl, -19			; ffffffedH
  0016a	80 78 15 00	 cmp	 BYTE PTR [eax+21], 0
  0016e	88 55 f4	 mov	 BYTE PTR __k$[ebp+20], dl
  00171	0f 84 c3 00 00
	00		 je	 $LN1@LoadFloat_@6
  00177	8a 50 16	 mov	 dl, BYTE PTR [eax+22]
  0017a	84 d2		 test	 dl, dl
  0017c	74 43		 je	 SHORT $LN74@LoadFloat_@6
  0017e	32 d1		 xor	 dl, cl
  00180	88 55 f6	 mov	 BYTE PTR __k$[ebp+22], dl
  00183	8a 50 17	 mov	 dl, BYTE PTR [eax+23]
  00186	84 d2		 test	 dl, dl
  00188	74 32		 je	 SHORT $LN73@LoadFloat_@6
  0018a	32 d3		 xor	 dl, bl
  0018c	88 55 f7	 mov	 BYTE PTR __k$[ebp+23], dl
  0018f	8a 50 18	 mov	 dl, BYTE PTR [eax+24]
  00192	84 d2		 test	 dl, dl
  00194	74 20		 je	 SHORT $LN72@LoadFloat_@6
  00196	8a 40 19	 mov	 al, BYTE PTR [eax+25]
  00199	80 f2 ed	 xor	 dl, -19			; ffffffedH
  0019c	88 55 f8	 mov	 BYTE PTR __k$[ebp+24], dl
  0019f	84 c0		 test	 al, al
  001a1	74 0a		 je	 SHORT $LN71@LoadFloat_@6
  001a3	34 ec		 xor	 al, -20			; ffffffecH
  001a5	88 45 f9	 mov	 BYTE PTR __k$[ebp+25], al
  001a8	e9 8d 00 00 00	 jmp	 $LN1@LoadFloat_@6
$LN71@LoadFloat_@6:
  001ad	c6 45 f9 ec	 mov	 BYTE PTR __k$[ebp+25], -20 ; ffffffecH
  001b1	e9 84 00 00 00	 jmp	 $LN1@LoadFloat_@6
$LN72@LoadFloat_@6:
  001b6	c6 45 f8 ed	 mov	 BYTE PTR __k$[ebp+24], -19 ; ffffffedH
  001ba	eb 7e		 jmp	 SHORT $LN1@LoadFloat_@6
$LN73@LoadFloat_@6:
  001bc	88 5d f7	 mov	 BYTE PTR __k$[ebp+23], bl
  001bf	eb 79		 jmp	 SHORT $LN1@LoadFloat_@6
$LN74@LoadFloat_@6:
  001c1	88 4d f6	 mov	 BYTE PTR __k$[ebp+22], cl
  001c4	eb 74		 jmp	 SHORT $LN1@LoadFloat_@6
$LN76@LoadFloat_@6:
  001c6	c6 45 f4 ed	 mov	 BYTE PTR __k$[ebp+20], -19 ; ffffffedH
  001ca	eb 6e		 jmp	 SHORT $LN1@LoadFloat_@6
$LN77@LoadFloat_@6:
  001cc	88 5d f3	 mov	 BYTE PTR __k$[ebp+19], bl
  001cf	eb 69		 jmp	 SHORT $LN1@LoadFloat_@6
$LN78@LoadFloat_@6:
  001d1	88 4d f2	 mov	 BYTE PTR __k$[ebp+18], cl
  001d4	eb 64		 jmp	 SHORT $LN1@LoadFloat_@6
$LN79@LoadFloat_@6:
  001d6	c6 45 f1 ec	 mov	 BYTE PTR __k$[ebp+17], -20 ; ffffffecH
  001da	eb 5e		 jmp	 SHORT $LN1@LoadFloat_@6
$LN80@LoadFloat_@6:
  001dc	c6 45 f0 ed	 mov	 BYTE PTR __k$[ebp+16], -19 ; ffffffedH
  001e0	eb 58		 jmp	 SHORT $LN1@LoadFloat_@6
$LN81@LoadFloat_@6:
  001e2	88 5d ef	 mov	 BYTE PTR __k$[ebp+15], bl
  001e5	eb 53		 jmp	 SHORT $LN1@LoadFloat_@6
$LN82@LoadFloat_@6:
  001e7	88 4d ee	 mov	 BYTE PTR __k$[ebp+14], cl
  001ea	eb 4e		 jmp	 SHORT $LN1@LoadFloat_@6
$LN83@LoadFloat_@6:
  001ec	c6 45 ed ec	 mov	 BYTE PTR __k$[ebp+13], -20 ; ffffffecH
  001f0	eb 48		 jmp	 SHORT $LN1@LoadFloat_@6
$LN84@LoadFloat_@6:
  001f2	c6 45 ec ed	 mov	 BYTE PTR __k$[ebp+12], -19 ; ffffffedH
  001f6	eb 42		 jmp	 SHORT $LN1@LoadFloat_@6
$LN85@LoadFloat_@6:
  001f8	88 5d eb	 mov	 BYTE PTR __k$[ebp+11], bl
  001fb	eb 3d		 jmp	 SHORT $LN1@LoadFloat_@6
$LN86@LoadFloat_@6:
  001fd	88 4d ea	 mov	 BYTE PTR __k$[ebp+10], cl
  00200	eb 38		 jmp	 SHORT $LN1@LoadFloat_@6
$LN87@LoadFloat_@6:
  00202	c6 45 e9 ec	 mov	 BYTE PTR __k$[ebp+9], -20 ; ffffffecH
  00206	eb 32		 jmp	 SHORT $LN1@LoadFloat_@6
$LN88@LoadFloat_@6:
  00208	c6 45 e8 ed	 mov	 BYTE PTR __k$[ebp+8], -19 ; ffffffedH
  0020c	eb 2c		 jmp	 SHORT $LN1@LoadFloat_@6
$LN89@LoadFloat_@6:
  0020e	88 5d e7	 mov	 BYTE PTR __k$[ebp+7], bl
  00211	eb 27		 jmp	 SHORT $LN1@LoadFloat_@6
$LN90@LoadFloat_@6:
  00213	88 4d e6	 mov	 BYTE PTR __k$[ebp+6], cl
  00216	eb 22		 jmp	 SHORT $LN1@LoadFloat_@6
$LN91@LoadFloat_@6:
  00218	c6 45 e5 ec	 mov	 BYTE PTR __k$[ebp+5], -20 ; ffffffecH
  0021c	eb 1c		 jmp	 SHORT $LN1@LoadFloat_@6
$LN92@LoadFloat_@6:
  0021e	c6 45 e4 ed	 mov	 BYTE PTR __k$[ebp+4], -19 ; ffffffedH
  00222	eb 16		 jmp	 SHORT $LN1@LoadFloat_@6
$LN93@LoadFloat_@6:
  00224	c6 45 e3 ea	 mov	 BYTE PTR __k$[ebp+3], -22 ; ffffffeaH
  00228	eb 10		 jmp	 SHORT $LN1@LoadFloat_@6
$LN94@LoadFloat_@6:
  0022a	c6 45 e2 eb	 mov	 BYTE PTR __k$[ebp+2], -21 ; ffffffebH
  0022e	eb 0a		 jmp	 SHORT $LN1@LoadFloat_@6
$LN95@LoadFloat_@6:
  00230	c6 45 e1 ec	 mov	 BYTE PTR __k$[ebp+1], -20 ; ffffffecH
  00234	eb 04		 jmp	 SHORT $LN1@LoadFloat_@6
$LN96@LoadFloat_@6:
  00236	c6 45 e0 ed	 mov	 BYTE PTR __k$[ebp], -19	; ffffffedH
$LN1@LoadFloat_@6:
  0023a	6a 05		 push	 5
  0023c	8d 45 e0	 lea	 eax, DWORD PTR __k$[ebp]
  0023f	c6 45 f5 00	 mov	 BYTE PTR __k$[ebp+21], 0
  00243	5a		 pop	 edx
$LL104@LoadFloat_@6:
  00244	81 30 ed ec eb
	ea		 xor	 DWORD PTR [eax], -353637139 ; eaebecedH
  0024a	83 c0 04	 add	 eax, 4
  0024d	4a		 dec	 edx
  0024e	75 f4		 jne	 SHORT $LL104@LoadFloat_@6

; 137  : 		return LoadFloat(_k, f);

  00250	f3 0f 10 45 0c	 movss	 xmm0, DWORD PTR _f$[ebp]
  00255	80 75 f4 ed	 xor	 BYTE PTR __k$[ebp+20], -19 ; ffffffedH
  00259	51		 push	 ecx
  0025a	8d 45 e0	 lea	 eax, DWORD PTR __k$[ebp]
  0025d	f3 0f 11 04 24	 movss	 DWORD PTR [esp], xmm0
  00262	50		 push	 eax
  00263	8b ce		 mov	 ecx, esi
  00265	ff 15 00 00 00
	00		 call	 DWORD PTR __imp_?LoadFloat@ioINILoader@@QAEMPBDM@Z

; 138  : 	}

  0026b	8b 4d fc	 mov	 ecx, DWORD PTR __$ArrayPad$[ebp]
  0026e	5e		 pop	 esi
  0026f	33 cd		 xor	 ecx, ebp
  00271	5b		 pop	 ebx
  00272	e8 00 00 00 00	 call	 @__security_check_cookie@4
  00277	c9		 leave
  00278	c2 08 00	 ret	 8
??$LoadFloat_e@$0BG@@ioINILoader@@QAEMAAY0BG@$$CBDM@Z ENDP ; ioINILoader::LoadFloat_e<22>
_TEXT	ENDS
PUBLIC	__$ArrayPad$
PUBLIC	??$LoadFloat_e@$0BL@@ioINILoader@@QAEMAAY0BL@$$CBDM@Z ; ioINILoader::LoadFloat_e<27>
; Function compile flags: /Ogsp
;	COMDAT ??$LoadFloat_e@$0BL@@ioINILoader@@QAEMAAY0BL@$$CBDM@Z
_TEXT	SEGMENT
__k$ = -36						; size = 27
__$ArrayPad$ = -4					; size = 4
_k$ = 8							; size = 4
_f$ = 12						; size = 4
??$LoadFloat_e@$0BL@@ioINILoader@@QAEMAAY0BL@$$CBDM@Z PROC ; ioINILoader::LoadFloat_e<27>, COMDAT
; _this$ = ecx

; 135  : 	{

  00000	55		 push	 ebp
  00001	8b ec		 mov	 ebp, esp
  00003	83 ec 24	 sub	 esp, 36			; 00000024H
  00006	a1 00 00 00 00	 mov	 eax, DWORD PTR ___security_cookie
  0000b	33 c5		 xor	 eax, ebp
  0000d	89 45 fc	 mov	 DWORD PTR __$ArrayPad$[ebp], eax
  00010	8b 45 08	 mov	 eax, DWORD PTR _k$[ebp]

; 136  : 		_ENCSTR(k, _k);

  00013	8a 10		 mov	 dl, BYTE PTR [eax]
  00015	53		 push	 ebx
  00016	56		 push	 esi
  00017	8b f1		 mov	 esi, ecx
  00019	84 d2		 test	 dl, dl
  0001b	0f 84 91 02 00
	00		 je	 $LN96@LoadFloat_@7
  00021	80 f2 ed	 xor	 dl, -19			; ffffffedH
  00024	88 55 dc	 mov	 BYTE PTR __k$[ebp], dl
  00027	8a 50 01	 mov	 dl, BYTE PTR [eax+1]
  0002a	84 d2		 test	 dl, dl
  0002c	0f 84 7a 02 00
	00		 je	 $LN95@LoadFloat_@7
  00032	b1 ec		 mov	 cl, -20			; ffffffecH
  00034	32 d1		 xor	 dl, cl
  00036	88 55 dd	 mov	 BYTE PTR __k$[ebp+1], dl
  00039	8a 50 02	 mov	 dl, BYTE PTR [eax+2]
  0003c	84 d2		 test	 dl, dl
  0003e	0f 84 62 02 00
	00		 je	 $LN94@LoadFloat_@7
  00044	80 f2 eb	 xor	 dl, -21			; ffffffebH
  00047	88 55 de	 mov	 BYTE PTR __k$[ebp+2], dl
  0004a	8a 50 03	 mov	 dl, BYTE PTR [eax+3]
  0004d	84 d2		 test	 dl, dl
  0004f	0f 84 4b 02 00
	00		 je	 $LN93@LoadFloat_@7
  00055	b3 ea		 mov	 bl, -22			; ffffffeaH
  00057	32 d3		 xor	 dl, bl
  00059	88 55 df	 mov	 BYTE PTR __k$[ebp+3], dl
  0005c	8a 50 04	 mov	 dl, BYTE PTR [eax+4]
  0005f	84 d2		 test	 dl, dl
  00061	0f 84 33 02 00
	00		 je	 $LN92@LoadFloat_@7
  00067	80 f2 ed	 xor	 dl, -19			; ffffffedH
  0006a	88 55 e0	 mov	 BYTE PTR __k$[ebp+4], dl
  0006d	8a 50 05	 mov	 dl, BYTE PTR [eax+5]
  00070	84 d2		 test	 dl, dl
  00072	0f 84 1d 02 00
	00		 je	 $LN91@LoadFloat_@7
  00078	32 d1		 xor	 dl, cl
  0007a	88 55 e1	 mov	 BYTE PTR __k$[ebp+5], dl
  0007d	8a 50 06	 mov	 dl, BYTE PTR [eax+6]
  00080	84 d2		 test	 dl, dl
  00082	0f 84 07 02 00
	00		 je	 $LN90@LoadFloat_@7
  00088	80 f2 eb	 xor	 dl, -21			; ffffffebH
  0008b	88 55 e2	 mov	 BYTE PTR __k$[ebp+6], dl
  0008e	8a 50 07	 mov	 dl, BYTE PTR [eax+7]
  00091	84 d2		 test	 dl, dl
  00093	0f 84 f1 01 00
	00		 je	 $LN89@LoadFloat_@7
  00099	32 d3		 xor	 dl, bl
  0009b	88 55 e3	 mov	 BYTE PTR __k$[ebp+7], dl
  0009e	8a 50 08	 mov	 dl, BYTE PTR [eax+8]
  000a1	84 d2		 test	 dl, dl
  000a3	0f 84 db 01 00
	00		 je	 $LN88@LoadFloat_@7
  000a9	80 f2 ed	 xor	 dl, -19			; ffffffedH
  000ac	88 55 e4	 mov	 BYTE PTR __k$[ebp+8], dl
  000af	8a 50 09	 mov	 dl, BYTE PTR [eax+9]
  000b2	84 d2		 test	 dl, dl
  000b4	0f 84 c5 01 00
	00		 je	 $LN87@LoadFloat_@7
  000ba	32 d1		 xor	 dl, cl
  000bc	88 55 e5	 mov	 BYTE PTR __k$[ebp+9], dl
  000bf	8a 50 0a	 mov	 dl, BYTE PTR [eax+10]
  000c2	84 d2		 test	 dl, dl
  000c4	0f 84 af 01 00
	00		 je	 $LN86@LoadFloat_@7
  000ca	80 f2 eb	 xor	 dl, -21			; ffffffebH
  000cd	88 55 e6	 mov	 BYTE PTR __k$[ebp+10], dl
  000d0	8a 50 0b	 mov	 dl, BYTE PTR [eax+11]
  000d3	84 d2		 test	 dl, dl
  000d5	0f 84 99 01 00
	00		 je	 $LN85@LoadFloat_@7
  000db	32 d3		 xor	 dl, bl
  000dd	88 55 e7	 mov	 BYTE PTR __k$[ebp+11], dl
  000e0	8a 50 0c	 mov	 dl, BYTE PTR [eax+12]
  000e3	84 d2		 test	 dl, dl
  000e5	0f 84 83 01 00
	00		 je	 $LN84@LoadFloat_@7
  000eb	80 f2 ed	 xor	 dl, -19			; ffffffedH
  000ee	88 55 e8	 mov	 BYTE PTR __k$[ebp+12], dl
  000f1	8a 50 0d	 mov	 dl, BYTE PTR [eax+13]
  000f4	84 d2		 test	 dl, dl
  000f6	0f 84 6d 01 00
	00		 je	 $LN83@LoadFloat_@7
  000fc	32 d1		 xor	 dl, cl
  000fe	88 55 e9	 mov	 BYTE PTR __k$[ebp+13], dl
  00101	8a 50 0e	 mov	 dl, BYTE PTR [eax+14]
  00104	84 d2		 test	 dl, dl
  00106	0f 84 57 01 00
	00		 je	 $LN82@LoadFloat_@7
  0010c	80 f2 eb	 xor	 dl, -21			; ffffffebH
  0010f	88 55 ea	 mov	 BYTE PTR __k$[ebp+14], dl
  00112	8a 50 0f	 mov	 dl, BYTE PTR [eax+15]
  00115	84 d2		 test	 dl, dl
  00117	0f 84 41 01 00
	00		 je	 $LN81@LoadFloat_@7
  0011d	32 d3		 xor	 dl, bl
  0011f	88 55 eb	 mov	 BYTE PTR __k$[ebp+15], dl
  00122	8a 50 10	 mov	 dl, BYTE PTR [eax+16]
  00125	84 d2		 test	 dl, dl
  00127	0f 84 2b 01 00
	00		 je	 $LN80@LoadFloat_@7
  0012d	80 f2 ed	 xor	 dl, -19			; ffffffedH
  00130	88 55 ec	 mov	 BYTE PTR __k$[ebp+16], dl
  00133	8a 50 11	 mov	 dl, BYTE PTR [eax+17]
  00136	84 d2		 test	 dl, dl
  00138	0f 84 15 01 00
	00		 je	 $LN79@LoadFloat_@7
  0013e	32 d1		 xor	 dl, cl
  00140	88 55 ed	 mov	 BYTE PTR __k$[ebp+17], dl
  00143	8a 50 12	 mov	 dl, BYTE PTR [eax+18]
  00146	84 d2		 test	 dl, dl
  00148	0f 84 ff 00 00
	00		 je	 $LN78@LoadFloat_@7
  0014e	80 f2 eb	 xor	 dl, -21			; ffffffebH
  00151	88 55 ee	 mov	 BYTE PTR __k$[ebp+18], dl
  00154	8a 50 13	 mov	 dl, BYTE PTR [eax+19]
  00157	84 d2		 test	 dl, dl
  00159	0f 84 e9 00 00
	00		 je	 $LN77@LoadFloat_@7
  0015f	32 d3		 xor	 dl, bl
  00161	88 55 ef	 mov	 BYTE PTR __k$[ebp+19], dl
  00164	8a 50 14	 mov	 dl, BYTE PTR [eax+20]
  00167	84 d2		 test	 dl, dl
  00169	0f 84 d3 00 00
	00		 je	 $LN76@LoadFloat_@7
  0016f	80 f2 ed	 xor	 dl, -19			; ffffffedH
  00172	88 55 f0	 mov	 BYTE PTR __k$[ebp+20], dl
  00175	8a 50 15	 mov	 dl, BYTE PTR [eax+21]
  00178	84 d2		 test	 dl, dl
  0017a	0f 84 bd 00 00
	00		 je	 $LN75@LoadFloat_@7
  00180	32 d1		 xor	 dl, cl
  00182	88 55 f1	 mov	 BYTE PTR __k$[ebp+21], dl
  00185	8a 50 16	 mov	 dl, BYTE PTR [eax+22]
  00188	84 d2		 test	 dl, dl
  0018a	0f 84 a7 00 00
	00		 je	 $LN74@LoadFloat_@7
  00190	80 f2 eb	 xor	 dl, -21			; ffffffebH
  00193	88 55 f2	 mov	 BYTE PTR __k$[ebp+22], dl
  00196	8a 50 17	 mov	 dl, BYTE PTR [eax+23]
  00199	84 d2		 test	 dl, dl
  0019b	0f 84 91 00 00
	00		 je	 $LN73@LoadFloat_@7
  001a1	32 d3		 xor	 dl, bl
  001a3	88 55 f3	 mov	 BYTE PTR __k$[ebp+23], dl
  001a6	8a 50 18	 mov	 dl, BYTE PTR [eax+24]
  001a9	84 d2		 test	 dl, dl
  001ab	74 7c		 je	 SHORT $LN72@LoadFloat_@7
  001ad	80 f2 ed	 xor	 dl, -19			; ffffffedH
  001b0	88 55 f4	 mov	 BYTE PTR __k$[ebp+24], dl
  001b3	8a 50 19	 mov	 dl, BYTE PTR [eax+25]
  001b6	84 d2		 test	 dl, dl
  001b8	74 67		 je	 SHORT $LN71@LoadFloat_@7
  001ba	32 d1		 xor	 dl, cl
  001bc	80 78 1a 00	 cmp	 BYTE PTR [eax+26], 0
  001c0	88 55 f5	 mov	 BYTE PTR __k$[ebp+25], dl
  001c3	0f 84 ed 00 00
	00		 je	 $LN1@LoadFloat_@7
  001c9	8a 50 1b	 mov	 dl, BYTE PTR [eax+27]
  001cc	84 d2		 test	 dl, dl
  001ce	74 49		 je	 SHORT $LN69@LoadFloat_@7
  001d0	32 d3		 xor	 dl, bl
  001d2	88 55 f7	 mov	 BYTE PTR __k$[ebp+27], dl
  001d5	8a 50 1c	 mov	 dl, BYTE PTR [eax+28]
  001d8	84 d2		 test	 dl, dl
  001da	74 34		 je	 SHORT $LN68@LoadFloat_@7
  001dc	80 f2 ed	 xor	 dl, -19			; ffffffedH
  001df	88 55 f8	 mov	 BYTE PTR __k$[ebp+28], dl
  001e2	8a 50 1d	 mov	 dl, BYTE PTR [eax+29]
  001e5	84 d2		 test	 dl, dl
  001e7	74 1f		 je	 SHORT $LN67@LoadFloat_@7
  001e9	8a 40 1e	 mov	 al, BYTE PTR [eax+30]
  001ec	32 d1		 xor	 dl, cl
  001ee	88 55 f9	 mov	 BYTE PTR __k$[ebp+29], dl
  001f1	84 c0		 test	 al, al
  001f3	74 0a		 je	 SHORT $LN66@LoadFloat_@7
  001f5	34 eb		 xor	 al, -21			; ffffffebH
  001f7	88 45 fa	 mov	 BYTE PTR __k$[ebp+30], al
  001fa	e9 b7 00 00 00	 jmp	 $LN1@LoadFloat_@7
$LN66@LoadFloat_@7:
  001ff	c6 45 fa eb	 mov	 BYTE PTR __k$[ebp+30], -21 ; ffffffebH
  00203	e9 ae 00 00 00	 jmp	 $LN1@LoadFloat_@7
$LN67@LoadFloat_@7:
  00208	88 4d f9	 mov	 BYTE PTR __k$[ebp+29], cl
  0020b	e9 a6 00 00 00	 jmp	 $LN1@LoadFloat_@7
$LN68@LoadFloat_@7:
  00210	c6 45 f8 ed	 mov	 BYTE PTR __k$[ebp+28], -19 ; ffffffedH
  00214	e9 9d 00 00 00	 jmp	 $LN1@LoadFloat_@7
$LN69@LoadFloat_@7:
  00219	88 5d f7	 mov	 BYTE PTR __k$[ebp+27], bl
  0021c	e9 95 00 00 00	 jmp	 $LN1@LoadFloat_@7
$LN71@LoadFloat_@7:
  00221	88 4d f5	 mov	 BYTE PTR __k$[ebp+25], cl
  00224	e9 8d 00 00 00	 jmp	 $LN1@LoadFloat_@7
$LN72@LoadFloat_@7:
  00229	c6 45 f4 ed	 mov	 BYTE PTR __k$[ebp+24], -19 ; ffffffedH
  0022d	e9 84 00 00 00	 jmp	 $LN1@LoadFloat_@7
$LN73@LoadFloat_@7:
  00232	88 5d f3	 mov	 BYTE PTR __k$[ebp+23], bl
  00235	eb 7f		 jmp	 SHORT $LN1@LoadFloat_@7
$LN74@LoadFloat_@7:
  00237	c6 45 f2 eb	 mov	 BYTE PTR __k$[ebp+22], -21 ; ffffffebH
  0023b	eb 79		 jmp	 SHORT $LN1@LoadFloat_@7
$LN75@LoadFloat_@7:
  0023d	88 4d f1	 mov	 BYTE PTR __k$[ebp+21], cl
  00240	eb 74		 jmp	 SHORT $LN1@LoadFloat_@7
$LN76@LoadFloat_@7:
  00242	c6 45 f0 ed	 mov	 BYTE PTR __k$[ebp+20], -19 ; ffffffedH
  00246	eb 6e		 jmp	 SHORT $LN1@LoadFloat_@7
$LN77@LoadFloat_@7:
  00248	88 5d ef	 mov	 BYTE PTR __k$[ebp+19], bl
  0024b	eb 69		 jmp	 SHORT $LN1@LoadFloat_@7
$LN78@LoadFloat_@7:
  0024d	c6 45 ee eb	 mov	 BYTE PTR __k$[ebp+18], -21 ; ffffffebH
  00251	eb 63		 jmp	 SHORT $LN1@LoadFloat_@7
$LN79@LoadFloat_@7:
  00253	88 4d ed	 mov	 BYTE PTR __k$[ebp+17], cl
  00256	eb 5e		 jmp	 SHORT $LN1@LoadFloat_@7
$LN80@LoadFloat_@7:
  00258	c6 45 ec ed	 mov	 BYTE PTR __k$[ebp+16], -19 ; ffffffedH
  0025c	eb 58		 jmp	 SHORT $LN1@LoadFloat_@7
$LN81@LoadFloat_@7:
  0025e	88 5d eb	 mov	 BYTE PTR __k$[ebp+15], bl
  00261	eb 53		 jmp	 SHORT $LN1@LoadFloat_@7
$LN82@LoadFloat_@7:
  00263	c6 45 ea eb	 mov	 BYTE PTR __k$[ebp+14], -21 ; ffffffebH
  00267	eb 4d		 jmp	 SHORT $LN1@LoadFloat_@7
$LN83@LoadFloat_@7:
  00269	88 4d e9	 mov	 BYTE PTR __k$[ebp+13], cl
  0026c	eb 48		 jmp	 SHORT $LN1@LoadFloat_@7
$LN84@LoadFloat_@7:
  0026e	c6 45 e8 ed	 mov	 BYTE PTR __k$[ebp+12], -19 ; ffffffedH
  00272	eb 42		 jmp	 SHORT $LN1@LoadFloat_@7
$LN85@LoadFloat_@7:
  00274	88 5d e7	 mov	 BYTE PTR __k$[ebp+11], bl
  00277	eb 3d		 jmp	 SHORT $LN1@LoadFloat_@7
$LN86@LoadFloat_@7:
  00279	c6 45 e6 eb	 mov	 BYTE PTR __k$[ebp+10], -21 ; ffffffebH
  0027d	eb 37		 jmp	 SHORT $LN1@LoadFloat_@7
$LN87@LoadFloat_@7:
  0027f	88 4d e5	 mov	 BYTE PTR __k$[ebp+9], cl
  00282	eb 32		 jmp	 SHORT $LN1@LoadFloat_@7
$LN88@LoadFloat_@7:
  00284	c6 45 e4 ed	 mov	 BYTE PTR __k$[ebp+8], -19 ; ffffffedH
  00288	eb 2c		 jmp	 SHORT $LN1@LoadFloat_@7
$LN89@LoadFloat_@7:
  0028a	88 5d e3	 mov	 BYTE PTR __k$[ebp+7], bl
  0028d	eb 27		 jmp	 SHORT $LN1@LoadFloat_@7
$LN90@LoadFloat_@7:
  0028f	c6 45 e2 eb	 mov	 BYTE PTR __k$[ebp+6], -21 ; ffffffebH
  00293	eb 21		 jmp	 SHORT $LN1@LoadFloat_@7
$LN91@LoadFloat_@7:
  00295	88 4d e1	 mov	 BYTE PTR __k$[ebp+5], cl
  00298	eb 1c		 jmp	 SHORT $LN1@LoadFloat_@7
$LN92@LoadFloat_@7:
  0029a	c6 45 e0 ed	 mov	 BYTE PTR __k$[ebp+4], -19 ; ffffffedH
  0029e	eb 16		 jmp	 SHORT $LN1@LoadFloat_@7
$LN93@LoadFloat_@7:
  002a0	c6 45 df ea	 mov	 BYTE PTR __k$[ebp+3], -22 ; ffffffeaH
  002a4	eb 10		 jmp	 SHORT $LN1@LoadFloat_@7
$LN94@LoadFloat_@7:
  002a6	c6 45 de eb	 mov	 BYTE PTR __k$[ebp+2], -21 ; ffffffebH
  002aa	eb 0a		 jmp	 SHORT $LN1@LoadFloat_@7
$LN95@LoadFloat_@7:
  002ac	c6 45 dd ec	 mov	 BYTE PTR __k$[ebp+1], -20 ; ffffffecH
  002b0	eb 04		 jmp	 SHORT $LN1@LoadFloat_@7
$LN96@LoadFloat_@7:
  002b2	c6 45 dc ed	 mov	 BYTE PTR __k$[ebp], -19	; ffffffedH
$LN1@LoadFloat_@7:
  002b6	6a 06		 push	 6
  002b8	8d 45 dc	 lea	 eax, DWORD PTR __k$[ebp]
  002bb	c6 45 f6 00	 mov	 BYTE PTR __k$[ebp+26], 0
  002bf	5a		 pop	 edx
$LL104@LoadFloat_@7:
  002c0	81 30 ed ec eb
	ea		 xor	 DWORD PTR [eax], -353637139 ; eaebecedH
  002c6	83 c0 04	 add	 eax, 4
  002c9	4a		 dec	 edx
  002ca	75 f4		 jne	 SHORT $LL104@LoadFloat_@7
  002cc	6a 18		 push	 24			; 00000018H
  002ce	58		 pop	 eax
$LL101@LoadFloat_@7:
  002cf	8b c8		 mov	 ecx, eax
  002d1	81 e1 03 00 00
	80		 and	 ecx, -2147483645	; 80000003H
  002d7	79 05		 jns	 SHORT $LN111@LoadFloat_@7
  002d9	49		 dec	 ecx
  002da	83 c9 fc	 or	 ecx, -4			; fffffffcH
  002dd	41		 inc	 ecx
$LN111@LoadFloat_@7:
  002de	b2 ed		 mov	 dl, -19			; ffffffedH
  002e0	2a d1		 sub	 dl, cl
  002e2	30 54 05 dc	 xor	 BYTE PTR __k$[ebp+eax], dl
  002e6	40		 inc	 eax
  002e7	83 f8 1a	 cmp	 eax, 26			; 0000001aH
  002ea	7c e3		 jl	 SHORT $LL101@LoadFloat_@7

; 137  : 		return LoadFloat(_k, f);

  002ec	f3 0f 10 45 0c	 movss	 xmm0, DWORD PTR _f$[ebp]
  002f1	51		 push	 ecx
  002f2	8d 45 dc	 lea	 eax, DWORD PTR __k$[ebp]
  002f5	f3 0f 11 04 24	 movss	 DWORD PTR [esp], xmm0
  002fa	50		 push	 eax
  002fb	8b ce		 mov	 ecx, esi
  002fd	ff 15 00 00 00
	00		 call	 DWORD PTR __imp_?LoadFloat@ioINILoader@@QAEMPBDM@Z

; 138  : 	}

  00303	8b 4d fc	 mov	 ecx, DWORD PTR __$ArrayPad$[ebp]
  00306	5e		 pop	 esi
  00307	33 cd		 xor	 ecx, ebp
  00309	5b		 pop	 ebx
  0030a	e8 00 00 00 00	 call	 @__security_check_cookie@4
  0030f	c9		 leave
  00310	c2 08 00	 ret	 8
??$LoadFloat_e@$0BL@@ioINILoader@@QAEMAAY0BL@$$CBDM@Z ENDP ; ioINILoader::LoadFloat_e<27>
_TEXT	ENDS
PUBLIC	__$ArrayPad$
PUBLIC	??$LoadFloat_e@$0BE@@ioINILoader@@QAEMAAY0BE@$$CBDM@Z ; ioINILoader::LoadFloat_e<20>
; Function compile flags: /Ogsp
;	COMDAT ??$LoadFloat_e@$0BE@@ioINILoader@@QAEMAAY0BE@$$CBDM@Z
_TEXT	SEGMENT
__k$ = -28						; size = 20
__$ArrayPad$ = -4					; size = 4
_k$ = 8							; size = 4
_f$ = 12						; size = 4
??$LoadFloat_e@$0BE@@ioINILoader@@QAEMAAY0BE@$$CBDM@Z PROC ; ioINILoader::LoadFloat_e<20>, COMDAT
; _this$ = ecx

; 135  : 	{

  00000	55		 push	 ebp
  00001	8b ec		 mov	 ebp, esp
  00003	83 ec 1c	 sub	 esp, 28			; 0000001cH
  00006	a1 00 00 00 00	 mov	 eax, DWORD PTR ___security_cookie
  0000b	33 c5		 xor	 eax, ebp
  0000d	89 45 fc	 mov	 DWORD PTR __$ArrayPad$[ebp], eax
  00010	8b 45 08	 mov	 eax, DWORD PTR _k$[ebp]

; 136  : 		_ENCSTR(k, _k);

  00013	8a 10		 mov	 dl, BYTE PTR [eax]
  00015	53		 push	 ebx
  00016	56		 push	 esi
  00017	8b f1		 mov	 esi, ecx
  00019	84 d2		 test	 dl, dl
  0001b	0f 84 dd 01 00
	00		 je	 $LN96@LoadFloat_@8
  00021	80 f2 ed	 xor	 dl, -19			; ffffffedH
  00024	88 55 e4	 mov	 BYTE PTR __k$[ebp], dl
  00027	8a 50 01	 mov	 dl, BYTE PTR [eax+1]
  0002a	84 d2		 test	 dl, dl
  0002c	0f 84 c6 01 00
	00		 je	 $LN95@LoadFloat_@8
  00032	b3 ec		 mov	 bl, -20			; ffffffecH
  00034	32 d3		 xor	 dl, bl
  00036	88 55 e5	 mov	 BYTE PTR __k$[ebp+1], dl
  00039	8a 50 02	 mov	 dl, BYTE PTR [eax+2]
  0003c	84 d2		 test	 dl, dl
  0003e	0f 84 ae 01 00
	00		 je	 $LN94@LoadFloat_@8
  00044	b1 eb		 mov	 cl, -21			; ffffffebH
  00046	32 d1		 xor	 dl, cl
  00048	88 55 e6	 mov	 BYTE PTR __k$[ebp+2], dl
  0004b	8a 50 03	 mov	 dl, BYTE PTR [eax+3]
  0004e	84 d2		 test	 dl, dl
  00050	0f 84 96 01 00
	00		 je	 $LN93@LoadFloat_@8
  00056	80 f2 ea	 xor	 dl, -22			; ffffffeaH
  00059	88 55 e7	 mov	 BYTE PTR __k$[ebp+3], dl
  0005c	8a 50 04	 mov	 dl, BYTE PTR [eax+4]
  0005f	84 d2		 test	 dl, dl
  00061	0f 84 7f 01 00
	00		 je	 $LN92@LoadFloat_@8
  00067	80 f2 ed	 xor	 dl, -19			; ffffffedH
  0006a	88 55 e8	 mov	 BYTE PTR __k$[ebp+4], dl
  0006d	8a 50 05	 mov	 dl, BYTE PTR [eax+5]
  00070	84 d2		 test	 dl, dl
  00072	0f 84 69 01 00
	00		 je	 $LN91@LoadFloat_@8
  00078	32 d3		 xor	 dl, bl
  0007a	88 55 e9	 mov	 BYTE PTR __k$[ebp+5], dl
  0007d	8a 50 06	 mov	 dl, BYTE PTR [eax+6]
  00080	84 d2		 test	 dl, dl
  00082	0f 84 54 01 00
	00		 je	 $LN90@LoadFloat_@8
  00088	32 d1		 xor	 dl, cl
  0008a	88 55 ea	 mov	 BYTE PTR __k$[ebp+6], dl
  0008d	8a 50 07	 mov	 dl, BYTE PTR [eax+7]
  00090	84 d2		 test	 dl, dl
  00092	0f 84 3e 01 00
	00		 je	 $LN89@LoadFloat_@8
  00098	80 f2 ea	 xor	 dl, -22			; ffffffeaH
  0009b	88 55 eb	 mov	 BYTE PTR __k$[ebp+7], dl
  0009e	8a 50 08	 mov	 dl, BYTE PTR [eax+8]
  000a1	84 d2		 test	 dl, dl
  000a3	0f 84 27 01 00
	00		 je	 $LN88@LoadFloat_@8
  000a9	80 f2 ed	 xor	 dl, -19			; ffffffedH
  000ac	88 55 ec	 mov	 BYTE PTR __k$[ebp+8], dl
  000af	8a 50 09	 mov	 dl, BYTE PTR [eax+9]
  000b2	84 d2		 test	 dl, dl
  000b4	0f 84 11 01 00
	00		 je	 $LN87@LoadFloat_@8
  000ba	32 d3		 xor	 dl, bl
  000bc	88 55 ed	 mov	 BYTE PTR __k$[ebp+9], dl
  000bf	8a 50 0a	 mov	 dl, BYTE PTR [eax+10]
  000c2	84 d2		 test	 dl, dl
  000c4	0f 84 fc 00 00
	00		 je	 $LN86@LoadFloat_@8
  000ca	32 d1		 xor	 dl, cl
  000cc	88 55 ee	 mov	 BYTE PTR __k$[ebp+10], dl
  000cf	8a 50 0b	 mov	 dl, BYTE PTR [eax+11]
  000d2	84 d2		 test	 dl, dl
  000d4	0f 84 e6 00 00
	00		 je	 $LN85@LoadFloat_@8
  000da	80 f2 ea	 xor	 dl, -22			; ffffffeaH
  000dd	88 55 ef	 mov	 BYTE PTR __k$[ebp+11], dl
  000e0	8a 50 0c	 mov	 dl, BYTE PTR [eax+12]
  000e3	84 d2		 test	 dl, dl
  000e5	0f 84 cf 00 00
	00		 je	 $LN84@LoadFloat_@8
  000eb	80 f2 ed	 xor	 dl, -19			; ffffffedH
  000ee	88 55 f0	 mov	 BYTE PTR __k$[ebp+12], dl
  000f1	8a 50 0d	 mov	 dl, BYTE PTR [eax+13]
  000f4	84 d2		 test	 dl, dl
  000f6	0f 84 b9 00 00
	00		 je	 $LN83@LoadFloat_@8
  000fc	32 d3		 xor	 dl, bl
  000fe	88 55 f1	 mov	 BYTE PTR __k$[ebp+13], dl
  00101	8a 50 0e	 mov	 dl, BYTE PTR [eax+14]
  00104	84 d2		 test	 dl, dl
  00106	0f 84 a4 00 00
	00		 je	 $LN82@LoadFloat_@8
  0010c	32 d1		 xor	 dl, cl
  0010e	88 55 f2	 mov	 BYTE PTR __k$[ebp+14], dl
  00111	8a 50 0f	 mov	 dl, BYTE PTR [eax+15]
  00114	84 d2		 test	 dl, dl
  00116	0f 84 8e 00 00
	00		 je	 $LN81@LoadFloat_@8
  0011c	80 f2 ea	 xor	 dl, -22			; ffffffeaH
  0011f	88 55 f3	 mov	 BYTE PTR __k$[ebp+15], dl
  00122	8a 50 10	 mov	 dl, BYTE PTR [eax+16]
  00125	84 d2		 test	 dl, dl
  00127	74 7b		 je	 SHORT $LN80@LoadFloat_@8
  00129	80 f2 ed	 xor	 dl, -19			; ffffffedH
  0012c	88 55 f4	 mov	 BYTE PTR __k$[ebp+16], dl
  0012f	8a 50 11	 mov	 dl, BYTE PTR [eax+17]
  00132	84 d2		 test	 dl, dl
  00134	74 69		 je	 SHORT $LN79@LoadFloat_@8
  00136	32 d3		 xor	 dl, bl
  00138	88 55 f5	 mov	 BYTE PTR __k$[ebp+17], dl
  0013b	8a 50 12	 mov	 dl, BYTE PTR [eax+18]
  0013e	84 d2		 test	 dl, dl
  00140	74 58		 je	 SHORT $LN78@LoadFloat_@8
  00142	32 d1		 xor	 dl, cl
  00144	80 78 13 00	 cmp	 BYTE PTR [eax+19], 0
  00148	88 55 f6	 mov	 BYTE PTR __k$[ebp+18], dl
  0014b	0f 84 b1 00 00
	00		 je	 $LN1@LoadFloat_@8
  00151	8a 50 14	 mov	 dl, BYTE PTR [eax+20]
  00154	84 d2		 test	 dl, dl
  00156	74 3c		 je	 SHORT $LN76@LoadFloat_@8
  00158	80 f2 ed	 xor	 dl, -19			; ffffffedH
  0015b	88 55 f8	 mov	 BYTE PTR __k$[ebp+20], dl
  0015e	8a 50 15	 mov	 dl, BYTE PTR [eax+21]
  00161	84 d2		 test	 dl, dl
  00163	74 2a		 je	 SHORT $LN75@LoadFloat_@8
  00165	32 d3		 xor	 dl, bl
  00167	88 55 f9	 mov	 BYTE PTR __k$[ebp+21], dl
  0016a	8a 50 16	 mov	 dl, BYTE PTR [eax+22]
  0016d	84 d2		 test	 dl, dl
  0016f	74 19		 je	 SHORT $LN74@LoadFloat_@8
  00171	8a 40 17	 mov	 al, BYTE PTR [eax+23]
  00174	32 d1		 xor	 dl, cl
  00176	88 55 fa	 mov	 BYTE PTR __k$[ebp+22], dl
  00179	84 c0		 test	 al, al
  0017b	74 07		 je	 SHORT $LN73@LoadFloat_@8
  0017d	34 ea		 xor	 al, -22			; ffffffeaH
  0017f	88 45 fb	 mov	 BYTE PTR __k$[ebp+23], al
  00182	eb 7e		 jmp	 SHORT $LN1@LoadFloat_@8
$LN73@LoadFloat_@8:
  00184	c6 45 fb ea	 mov	 BYTE PTR __k$[ebp+23], -22 ; ffffffeaH
  00188	eb 78		 jmp	 SHORT $LN1@LoadFloat_@8
$LN74@LoadFloat_@8:
  0018a	88 4d fa	 mov	 BYTE PTR __k$[ebp+22], cl
  0018d	eb 73		 jmp	 SHORT $LN1@LoadFloat_@8
$LN75@LoadFloat_@8:
  0018f	88 5d f9	 mov	 BYTE PTR __k$[ebp+21], bl
  00192	eb 6e		 jmp	 SHORT $LN1@LoadFloat_@8
$LN76@LoadFloat_@8:
  00194	c6 45 f8 ed	 mov	 BYTE PTR __k$[ebp+20], -19 ; ffffffedH
  00198	eb 68		 jmp	 SHORT $LN1@LoadFloat_@8
$LN78@LoadFloat_@8:
  0019a	88 4d f6	 mov	 BYTE PTR __k$[ebp+18], cl
  0019d	eb 63		 jmp	 SHORT $LN1@LoadFloat_@8
$LN79@LoadFloat_@8:
  0019f	88 5d f5	 mov	 BYTE PTR __k$[ebp+17], bl
  001a2	eb 5e		 jmp	 SHORT $LN1@LoadFloat_@8
$LN80@LoadFloat_@8:
  001a4	c6 45 f4 ed	 mov	 BYTE PTR __k$[ebp+16], -19 ; ffffffedH
  001a8	eb 58		 jmp	 SHORT $LN1@LoadFloat_@8
$LN81@LoadFloat_@8:
  001aa	c6 45 f3 ea	 mov	 BYTE PTR __k$[ebp+15], -22 ; ffffffeaH
  001ae	eb 52		 jmp	 SHORT $LN1@LoadFloat_@8
$LN82@LoadFloat_@8:
  001b0	88 4d f2	 mov	 BYTE PTR __k$[ebp+14], cl
  001b3	eb 4d		 jmp	 SHORT $LN1@LoadFloat_@8
$LN83@LoadFloat_@8:
  001b5	88 5d f1	 mov	 BYTE PTR __k$[ebp+13], bl
  001b8	eb 48		 jmp	 SHORT $LN1@LoadFloat_@8
$LN84@LoadFloat_@8:
  001ba	c6 45 f0 ed	 mov	 BYTE PTR __k$[ebp+12], -19 ; ffffffedH
  001be	eb 42		 jmp	 SHORT $LN1@LoadFloat_@8
$LN85@LoadFloat_@8:
  001c0	c6 45 ef ea	 mov	 BYTE PTR __k$[ebp+11], -22 ; ffffffeaH
  001c4	eb 3c		 jmp	 SHORT $LN1@LoadFloat_@8
$LN86@LoadFloat_@8:
  001c6	88 4d ee	 mov	 BYTE PTR __k$[ebp+10], cl
  001c9	eb 37		 jmp	 SHORT $LN1@LoadFloat_@8
$LN87@LoadFloat_@8:
  001cb	88 5d ed	 mov	 BYTE PTR __k$[ebp+9], bl
  001ce	eb 32		 jmp	 SHORT $LN1@LoadFloat_@8
$LN88@LoadFloat_@8:
  001d0	c6 45 ec ed	 mov	 BYTE PTR __k$[ebp+8], -19 ; ffffffedH
  001d4	eb 2c		 jmp	 SHORT $LN1@LoadFloat_@8
$LN89@LoadFloat_@8:
  001d6	c6 45 eb ea	 mov	 BYTE PTR __k$[ebp+7], -22 ; ffffffeaH
  001da	eb 26		 jmp	 SHORT $LN1@LoadFloat_@8
$LN90@LoadFloat_@8:
  001dc	88 4d ea	 mov	 BYTE PTR __k$[ebp+6], cl
  001df	eb 21		 jmp	 SHORT $LN1@LoadFloat_@8
$LN91@LoadFloat_@8:
  001e1	88 5d e9	 mov	 BYTE PTR __k$[ebp+5], bl
  001e4	eb 1c		 jmp	 SHORT $LN1@LoadFloat_@8
$LN92@LoadFloat_@8:
  001e6	c6 45 e8 ed	 mov	 BYTE PTR __k$[ebp+4], -19 ; ffffffedH
  001ea	eb 16		 jmp	 SHORT $LN1@LoadFloat_@8
$LN93@LoadFloat_@8:
  001ec	c6 45 e7 ea	 mov	 BYTE PTR __k$[ebp+3], -22 ; ffffffeaH
  001f0	eb 10		 jmp	 SHORT $LN1@LoadFloat_@8
$LN94@LoadFloat_@8:
  001f2	c6 45 e6 eb	 mov	 BYTE PTR __k$[ebp+2], -21 ; ffffffebH
  001f6	eb 0a		 jmp	 SHORT $LN1@LoadFloat_@8
$LN95@LoadFloat_@8:
  001f8	c6 45 e5 ec	 mov	 BYTE PTR __k$[ebp+1], -20 ; ffffffecH
  001fc	eb 04		 jmp	 SHORT $LN1@LoadFloat_@8
$LN96@LoadFloat_@8:
  001fe	c6 45 e4 ed	 mov	 BYTE PTR __k$[ebp], -19	; ffffffedH
$LN1@LoadFloat_@8:
  00202	6a 04		 push	 4
  00204	8d 45 e4	 lea	 eax, DWORD PTR __k$[ebp]
  00207	c6 45 f7 00	 mov	 BYTE PTR __k$[ebp+19], 0
  0020b	5a		 pop	 edx
$LL104@LoadFloat_@8:
  0020c	81 30 ed ec eb
	ea		 xor	 DWORD PTR [eax], -353637139 ; eaebecedH
  00212	83 c0 04	 add	 eax, 4
  00215	4a		 dec	 edx
  00216	75 f4		 jne	 SHORT $LL104@LoadFloat_@8
  00218	6a 10		 push	 16			; 00000010H
  0021a	58		 pop	 eax
$LL101@LoadFloat_@8:
  0021b	8b c8		 mov	 ecx, eax
  0021d	81 e1 03 00 00
	80		 and	 ecx, -2147483645	; 80000003H
  00223	79 05		 jns	 SHORT $LN111@LoadFloat_@8
  00225	49		 dec	 ecx
  00226	83 c9 fc	 or	 ecx, -4			; fffffffcH
  00229	41		 inc	 ecx
$LN111@LoadFloat_@8:
  0022a	b2 ed		 mov	 dl, -19			; ffffffedH
  0022c	2a d1		 sub	 dl, cl
  0022e	30 54 05 e4	 xor	 BYTE PTR __k$[ebp+eax], dl
  00232	40		 inc	 eax
  00233	83 f8 13	 cmp	 eax, 19			; 00000013H
  00236	7c e3		 jl	 SHORT $LL101@LoadFloat_@8

; 137  : 		return LoadFloat(_k, f);

  00238	f3 0f 10 45 0c	 movss	 xmm0, DWORD PTR _f$[ebp]
  0023d	51		 push	 ecx
  0023e	8d 45 e4	 lea	 eax, DWORD PTR __k$[ebp]
  00241	f3 0f 11 04 24	 movss	 DWORD PTR [esp], xmm0
  00246	50		 push	 eax
  00247	8b ce		 mov	 ecx, esi
  00249	ff 15 00 00 00
	00		 call	 DWORD PTR __imp_?LoadFloat@ioINILoader@@QAEMPBDM@Z

; 138  : 	}

  0024f	8b 4d fc	 mov	 ecx, DWORD PTR __$ArrayPad$[ebp]
  00252	5e		 pop	 esi
  00253	33 cd		 xor	 ecx, ebp
  00255	5b		 pop	 ebx
  00256	e8 00 00 00 00	 call	 @__security_check_cookie@4
  0025b	c9		 leave
  0025c	c2 08 00	 ret	 8
??$LoadFloat_e@$0BE@@ioINILoader@@QAEMAAY0BE@$$CBDM@Z ENDP ; ioINILoader::LoadFloat_e<20>
_TEXT	ENDS
PUBLIC	__$ArrayPad$
PUBLIC	??$LoadInt_e@$09@ioINILoader@@QAEHAAY09$$CBDH@Z	; ioINILoader::LoadInt_e<10>
; Function compile flags: /Ogsp
;	COMDAT ??$LoadInt_e@$09@ioINILoader@@QAEHAAY09$$CBDH@Z
_TEXT	SEGMENT
__k$ = -20						; size = 10
__$ArrayPad$ = -4					; size = 4
_k$ = 8							; size = 4
_i$ = 12						; size = 4
??$LoadInt_e@$09@ioINILoader@@QAEHAAY09$$CBDH@Z PROC	; ioINILoader::LoadInt_e<10>, COMDAT
; _this$ = ecx

; 118  : 	{

  00000	55		 push	 ebp
  00001	8b ec		 mov	 ebp, esp
  00003	83 ec 14	 sub	 esp, 20			; 00000014H
  00006	a1 00 00 00 00	 mov	 eax, DWORD PTR ___security_cookie
  0000b	33 c5		 xor	 eax, ebp
  0000d	89 45 fc	 mov	 DWORD PTR __$ArrayPad$[ebp], eax
  00010	8b 45 08	 mov	 eax, DWORD PTR _k$[ebp]

; 119  : 		_ENCSTR(k, _k);

  00013	8a 10		 mov	 dl, BYTE PTR [eax]
  00015	84 d2		 test	 dl, dl
  00017	0f 84 0d 01 00
	00		 je	 $LN96@LoadInt_e@5
  0001d	80 f2 ed	 xor	 dl, -19			; ffffffedH
  00020	88 55 ec	 mov	 BYTE PTR __k$[ebp], dl
  00023	8a 50 01	 mov	 dl, BYTE PTR [eax+1]
  00026	84 d2		 test	 dl, dl
  00028	0f 84 f6 00 00
	00		 je	 $LN95@LoadInt_e@5
  0002e	80 f2 ec	 xor	 dl, -20			; ffffffecH
  00031	88 55 ed	 mov	 BYTE PTR __k$[ebp+1], dl
  00034	8a 50 02	 mov	 dl, BYTE PTR [eax+2]
  00037	84 d2		 test	 dl, dl
  00039	0f 84 df 00 00
	00		 je	 $LN94@LoadInt_e@5
  0003f	80 f2 eb	 xor	 dl, -21			; ffffffebH
  00042	88 55 ee	 mov	 BYTE PTR __k$[ebp+2], dl
  00045	8a 50 03	 mov	 dl, BYTE PTR [eax+3]
  00048	84 d2		 test	 dl, dl
  0004a	0f 84 c8 00 00
	00		 je	 $LN93@LoadInt_e@5
  00050	80 f2 ea	 xor	 dl, -22			; ffffffeaH
  00053	88 55 ef	 mov	 BYTE PTR __k$[ebp+3], dl
  00056	8a 50 04	 mov	 dl, BYTE PTR [eax+4]
  00059	84 d2		 test	 dl, dl
  0005b	0f 84 b1 00 00
	00		 je	 $LN92@LoadInt_e@5
  00061	80 f2 ed	 xor	 dl, -19			; ffffffedH
  00064	88 55 f0	 mov	 BYTE PTR __k$[ebp+4], dl
  00067	8a 50 05	 mov	 dl, BYTE PTR [eax+5]
  0006a	84 d2		 test	 dl, dl
  0006c	0f 84 9a 00 00
	00		 je	 $LN91@LoadInt_e@5
  00072	80 f2 ec	 xor	 dl, -20			; ffffffecH
  00075	88 55 f1	 mov	 BYTE PTR __k$[ebp+5], dl
  00078	8a 50 06	 mov	 dl, BYTE PTR [eax+6]
  0007b	84 d2		 test	 dl, dl
  0007d	0f 84 83 00 00
	00		 je	 $LN90@LoadInt_e@5
  00083	80 f2 eb	 xor	 dl, -21			; ffffffebH
  00086	88 55 f2	 mov	 BYTE PTR __k$[ebp+6], dl
  00089	8a 50 07	 mov	 dl, BYTE PTR [eax+7]
  0008c	84 d2		 test	 dl, dl
  0008e	74 70		 je	 SHORT $LN89@LoadInt_e@5
  00090	80 f2 ea	 xor	 dl, -22			; ffffffeaH
  00093	88 55 f3	 mov	 BYTE PTR __k$[ebp+7], dl
  00096	8a 50 08	 mov	 dl, BYTE PTR [eax+8]
  00099	84 d2		 test	 dl, dl
  0009b	74 5d		 je	 SHORT $LN88@LoadInt_e@5
  0009d	80 f2 ed	 xor	 dl, -19			; ffffffedH
  000a0	80 78 09 00	 cmp	 BYTE PTR [eax+9], 0
  000a4	88 55 f4	 mov	 BYTE PTR __k$[ebp+8], dl
  000a7	0f 84 81 00 00
	00		 je	 $LN1@LoadInt_e@5
  000ad	8a 50 0a	 mov	 dl, BYTE PTR [eax+10]
  000b0	84 d2		 test	 dl, dl
  000b2	74 40		 je	 SHORT $LN86@LoadInt_e@5
  000b4	80 f2 eb	 xor	 dl, -21			; ffffffebH
  000b7	88 55 f6	 mov	 BYTE PTR __k$[ebp+10], dl
  000ba	8a 50 0b	 mov	 dl, BYTE PTR [eax+11]
  000bd	84 d2		 test	 dl, dl
  000bf	74 2d		 je	 SHORT $LN85@LoadInt_e@5
  000c1	80 f2 ea	 xor	 dl, -22			; ffffffeaH
  000c4	88 55 f7	 mov	 BYTE PTR __k$[ebp+11], dl
  000c7	8a 50 0c	 mov	 dl, BYTE PTR [eax+12]
  000ca	84 d2		 test	 dl, dl
  000cc	74 1a		 je	 SHORT $LN84@LoadInt_e@5
  000ce	8a 40 0d	 mov	 al, BYTE PTR [eax+13]
  000d1	80 f2 ed	 xor	 dl, -19			; ffffffedH
  000d4	88 55 f8	 mov	 BYTE PTR __k$[ebp+12], dl
  000d7	84 c0		 test	 al, al
  000d9	74 07		 je	 SHORT $LN83@LoadInt_e@5
  000db	34 ec		 xor	 al, -20			; ffffffecH
  000dd	88 45 f9	 mov	 BYTE PTR __k$[ebp+13], al
  000e0	eb 4c		 jmp	 SHORT $LN1@LoadInt_e@5
$LN83@LoadInt_e@5:
  000e2	c6 45 f9 ec	 mov	 BYTE PTR __k$[ebp+13], -20 ; ffffffecH
  000e6	eb 46		 jmp	 SHORT $LN1@LoadInt_e@5
$LN84@LoadInt_e@5:
  000e8	c6 45 f8 ed	 mov	 BYTE PTR __k$[ebp+12], -19 ; ffffffedH
  000ec	eb 40		 jmp	 SHORT $LN1@LoadInt_e@5
$LN85@LoadInt_e@5:
  000ee	c6 45 f7 ea	 mov	 BYTE PTR __k$[ebp+11], -22 ; ffffffeaH
  000f2	eb 3a		 jmp	 SHORT $LN1@LoadInt_e@5
$LN86@LoadInt_e@5:
  000f4	c6 45 f6 eb	 mov	 BYTE PTR __k$[ebp+10], -21 ; ffffffebH
  000f8	eb 34		 jmp	 SHORT $LN1@LoadInt_e@5
$LN88@LoadInt_e@5:
  000fa	c6 45 f4 ed	 mov	 BYTE PTR __k$[ebp+8], -19 ; ffffffedH
  000fe	eb 2e		 jmp	 SHORT $LN1@LoadInt_e@5
$LN89@LoadInt_e@5:
  00100	c6 45 f3 ea	 mov	 BYTE PTR __k$[ebp+7], -22 ; ffffffeaH
  00104	eb 28		 jmp	 SHORT $LN1@LoadInt_e@5
$LN90@LoadInt_e@5:
  00106	c6 45 f2 eb	 mov	 BYTE PTR __k$[ebp+6], -21 ; ffffffebH
  0010a	eb 22		 jmp	 SHORT $LN1@LoadInt_e@5
$LN91@LoadInt_e@5:
  0010c	c6 45 f1 ec	 mov	 BYTE PTR __k$[ebp+5], -20 ; ffffffecH
  00110	eb 1c		 jmp	 SHORT $LN1@LoadInt_e@5
$LN92@LoadInt_e@5:
  00112	c6 45 f0 ed	 mov	 BYTE PTR __k$[ebp+4], -19 ; ffffffedH
  00116	eb 16		 jmp	 SHORT $LN1@LoadInt_e@5
$LN93@LoadInt_e@5:
  00118	c6 45 ef ea	 mov	 BYTE PTR __k$[ebp+3], -22 ; ffffffeaH
  0011c	eb 10		 jmp	 SHORT $LN1@LoadInt_e@5
$LN94@LoadInt_e@5:
  0011e	c6 45 ee eb	 mov	 BYTE PTR __k$[ebp+2], -21 ; ffffffebH
  00122	eb 0a		 jmp	 SHORT $LN1@LoadInt_e@5
$LN95@LoadInt_e@5:
  00124	c6 45 ed ec	 mov	 BYTE PTR __k$[ebp+1], -20 ; ffffffecH
  00128	eb 04		 jmp	 SHORT $LN1@LoadInt_e@5
$LN96@LoadInt_e@5:
  0012a	c6 45 ec ed	 mov	 BYTE PTR __k$[ebp], -19	; ffffffedH
$LN1@LoadInt_e@5:
  0012e	6a 02		 push	 2
  00130	8d 45 ec	 lea	 eax, DWORD PTR __k$[ebp]
  00133	c6 45 f5 00	 mov	 BYTE PTR __k$[ebp+9], 0
  00137	5a		 pop	 edx
$LL104@LoadInt_e@5:
  00138	81 30 ed ec eb
	ea		 xor	 DWORD PTR [eax], -353637139 ; eaebecedH
  0013e	83 c0 04	 add	 eax, 4
  00141	4a		 dec	 edx
  00142	75 f4		 jne	 SHORT $LL104@LoadInt_e@5

; 120  : 		return LoadInt(_k, i);

  00144	ff 75 0c	 push	 DWORD PTR _i$[ebp]
  00147	80 75 f4 ed	 xor	 BYTE PTR __k$[ebp+8], -19 ; ffffffedH
  0014b	8d 45 ec	 lea	 eax, DWORD PTR __k$[ebp]
  0014e	50		 push	 eax
  0014f	ff 15 00 00 00
	00		 call	 DWORD PTR __imp_?LoadInt@ioINILoader@@QAEHPBDH@Z

; 121  : 	}

  00155	8b 4d fc	 mov	 ecx, DWORD PTR __$ArrayPad$[ebp]
  00158	33 cd		 xor	 ecx, ebp
  0015a	e8 00 00 00 00	 call	 @__security_check_cookie@4
  0015f	c9		 leave
  00160	c2 08 00	 ret	 8
??$LoadInt_e@$09@ioINILoader@@QAEHAAY09$$CBDH@Z ENDP	; ioINILoader::LoadInt_e<10>
_TEXT	ENDS
PUBLIC	__$ArrayPad$
PUBLIC	??$LoadBool_e@$0BC@@ioINILoader@@QAE_NAAY0BC@$$CBD_N@Z ; ioINILoader::LoadBool_e<18>
; Function compile flags: /Ogsp
;	COMDAT ??$LoadBool_e@$0BC@@ioINILoader@@QAE_NAAY0BC@$$CBD_N@Z
_TEXT	SEGMENT
__k$ = -28						; size = 18
__$ArrayPad$ = -4					; size = 4
_k$ = 8							; size = 4
_b$ = 12						; size = 1
??$LoadBool_e@$0BC@@ioINILoader@@QAE_NAAY0BC@$$CBD_N@Z PROC ; ioINILoader::LoadBool_e<18>, COMDAT
; _this$ = ecx

; 101  : 	{

  00000	55		 push	 ebp
  00001	8b ec		 mov	 ebp, esp
  00003	83 ec 1c	 sub	 esp, 28			; 0000001cH
  00006	a1 00 00 00 00	 mov	 eax, DWORD PTR ___security_cookie
  0000b	33 c5		 xor	 eax, ebp
  0000d	89 45 fc	 mov	 DWORD PTR __$ArrayPad$[ebp], eax
  00010	8b 45 08	 mov	 eax, DWORD PTR _k$[ebp]

; 102  : 		_ENCSTR(k, _k);

  00013	8a 10		 mov	 dl, BYTE PTR [eax]
  00015	56		 push	 esi
  00016	8b f1		 mov	 esi, ecx
  00018	84 d2		 test	 dl, dl
  0001a	0f 84 be 01 00
	00		 je	 $LN96@LoadBool_e@2
  00020	80 f2 ed	 xor	 dl, -19			; ffffffedH
  00023	88 55 e4	 mov	 BYTE PTR __k$[ebp], dl
  00026	8a 50 01	 mov	 dl, BYTE PTR [eax+1]
  00029	84 d2		 test	 dl, dl
  0002b	0f 84 a7 01 00
	00		 je	 $LN95@LoadBool_e@2
  00031	80 f2 ec	 xor	 dl, -20			; ffffffecH
  00034	88 55 e5	 mov	 BYTE PTR __k$[ebp+1], dl
  00037	8a 50 02	 mov	 dl, BYTE PTR [eax+2]
  0003a	84 d2		 test	 dl, dl
  0003c	0f 84 90 01 00
	00		 je	 $LN94@LoadBool_e@2
  00042	b1 eb		 mov	 cl, -21			; ffffffebH
  00044	32 d1		 xor	 dl, cl
  00046	88 55 e6	 mov	 BYTE PTR __k$[ebp+2], dl
  00049	8a 50 03	 mov	 dl, BYTE PTR [eax+3]
  0004c	84 d2		 test	 dl, dl
  0004e	0f 84 78 01 00
	00		 je	 $LN93@LoadBool_e@2
  00054	80 f2 ea	 xor	 dl, -22			; ffffffeaH
  00057	88 55 e7	 mov	 BYTE PTR __k$[ebp+3], dl
  0005a	8a 50 04	 mov	 dl, BYTE PTR [eax+4]
  0005d	84 d2		 test	 dl, dl
  0005f	0f 84 61 01 00
	00		 je	 $LN92@LoadBool_e@2
  00065	80 f2 ed	 xor	 dl, -19			; ffffffedH
  00068	88 55 e8	 mov	 BYTE PTR __k$[ebp+4], dl
  0006b	8a 50 05	 mov	 dl, BYTE PTR [eax+5]
  0006e	84 d2		 test	 dl, dl
  00070	0f 84 4a 01 00
	00		 je	 $LN91@LoadBool_e@2
  00076	80 f2 ec	 xor	 dl, -20			; ffffffecH
  00079	88 55 e9	 mov	 BYTE PTR __k$[ebp+5], dl
  0007c	8a 50 06	 mov	 dl, BYTE PTR [eax+6]
  0007f	84 d2		 test	 dl, dl
  00081	0f 84 34 01 00
	00		 je	 $LN90@LoadBool_e@2
  00087	32 d1		 xor	 dl, cl
  00089	88 55 ea	 mov	 BYTE PTR __k$[ebp+6], dl
  0008c	8a 50 07	 mov	 dl, BYTE PTR [eax+7]
  0008f	84 d2		 test	 dl, dl
  00091	0f 84 1e 01 00
	00		 je	 $LN89@LoadBool_e@2
  00097	80 f2 ea	 xor	 dl, -22			; ffffffeaH
  0009a	88 55 eb	 mov	 BYTE PTR __k$[ebp+7], dl
  0009d	8a 50 08	 mov	 dl, BYTE PTR [eax+8]
  000a0	84 d2		 test	 dl, dl
  000a2	0f 84 07 01 00
	00		 je	 $LN88@LoadBool_e@2
  000a8	80 f2 ed	 xor	 dl, -19			; ffffffedH
  000ab	88 55 ec	 mov	 BYTE PTR __k$[ebp+8], dl
  000ae	8a 50 09	 mov	 dl, BYTE PTR [eax+9]
  000b1	84 d2		 test	 dl, dl
  000b3	0f 84 f0 00 00
	00		 je	 $LN87@LoadBool_e@2
  000b9	80 f2 ec	 xor	 dl, -20			; ffffffecH
  000bc	88 55 ed	 mov	 BYTE PTR __k$[ebp+9], dl
  000bf	8a 50 0a	 mov	 dl, BYTE PTR [eax+10]
  000c2	84 d2		 test	 dl, dl
  000c4	0f 84 da 00 00
	00		 je	 $LN86@LoadBool_e@2
  000ca	32 d1		 xor	 dl, cl
  000cc	88 55 ee	 mov	 BYTE PTR __k$[ebp+10], dl
  000cf	8a 50 0b	 mov	 dl, BYTE PTR [eax+11]
  000d2	84 d2		 test	 dl, dl
  000d4	0f 84 c4 00 00
	00		 je	 $LN85@LoadBool_e@2
  000da	80 f2 ea	 xor	 dl, -22			; ffffffeaH
  000dd	88 55 ef	 mov	 BYTE PTR __k$[ebp+11], dl
  000e0	8a 50 0c	 mov	 dl, BYTE PTR [eax+12]
  000e3	84 d2		 test	 dl, dl
  000e5	0f 84 ad 00 00
	00		 je	 $LN84@LoadBool_e@2
  000eb	80 f2 ed	 xor	 dl, -19			; ffffffedH
  000ee	88 55 f0	 mov	 BYTE PTR __k$[ebp+12], dl
  000f1	8a 50 0d	 mov	 dl, BYTE PTR [eax+13]
  000f4	84 d2		 test	 dl, dl
  000f6	0f 84 96 00 00
	00		 je	 $LN83@LoadBool_e@2
  000fc	80 f2 ec	 xor	 dl, -20			; ffffffecH
  000ff	88 55 f1	 mov	 BYTE PTR __k$[ebp+13], dl
  00102	8a 50 0e	 mov	 dl, BYTE PTR [eax+14]
  00105	84 d2		 test	 dl, dl
  00107	0f 84 80 00 00
	00		 je	 $LN82@LoadBool_e@2
  0010d	32 d1		 xor	 dl, cl
  0010f	88 55 f2	 mov	 BYTE PTR __k$[ebp+14], dl
  00112	8a 50 0f	 mov	 dl, BYTE PTR [eax+15]
  00115	84 d2		 test	 dl, dl
  00117	74 6e		 je	 SHORT $LN81@LoadBool_e@2
  00119	80 f2 ea	 xor	 dl, -22			; ffffffeaH
  0011c	88 55 f3	 mov	 BYTE PTR __k$[ebp+15], dl
  0011f	8a 50 10	 mov	 dl, BYTE PTR [eax+16]
  00122	84 d2		 test	 dl, dl
  00124	74 5b		 je	 SHORT $LN80@LoadBool_e@2
  00126	80 f2 ed	 xor	 dl, -19			; ffffffedH
  00129	80 78 11 00	 cmp	 BYTE PTR [eax+17], 0
  0012d	88 55 f4	 mov	 BYTE PTR __k$[ebp+16], dl
  00130	0f 84 ac 00 00
	00		 je	 $LN1@LoadBool_e@2
  00136	8a 50 12	 mov	 dl, BYTE PTR [eax+18]
  00139	84 d2		 test	 dl, dl
  0013b	74 3f		 je	 SHORT $LN78@LoadBool_e@2
  0013d	32 d1		 xor	 dl, cl
  0013f	88 55 f6	 mov	 BYTE PTR __k$[ebp+18], dl
  00142	8a 50 13	 mov	 dl, BYTE PTR [eax+19]
  00145	84 d2		 test	 dl, dl
  00147	74 2d		 je	 SHORT $LN77@LoadBool_e@2
  00149	80 f2 ea	 xor	 dl, -22			; ffffffeaH
  0014c	88 55 f7	 mov	 BYTE PTR __k$[ebp+19], dl
  0014f	8a 50 14	 mov	 dl, BYTE PTR [eax+20]
  00152	84 d2		 test	 dl, dl
  00154	74 1a		 je	 SHORT $LN76@LoadBool_e@2
  00156	8a 40 15	 mov	 al, BYTE PTR [eax+21]
  00159	80 f2 ed	 xor	 dl, -19			; ffffffedH
  0015c	88 55 f8	 mov	 BYTE PTR __k$[ebp+20], dl
  0015f	84 c0		 test	 al, al
  00161	74 07		 je	 SHORT $LN75@LoadBool_e@2
  00163	34 ec		 xor	 al, -20			; ffffffecH
  00165	88 45 f9	 mov	 BYTE PTR __k$[ebp+21], al
  00168	eb 78		 jmp	 SHORT $LN1@LoadBool_e@2
$LN75@LoadBool_e@2:
  0016a	c6 45 f9 ec	 mov	 BYTE PTR __k$[ebp+21], -20 ; ffffffecH
  0016e	eb 72		 jmp	 SHORT $LN1@LoadBool_e@2
$LN76@LoadBool_e@2:
  00170	c6 45 f8 ed	 mov	 BYTE PTR __k$[ebp+20], -19 ; ffffffedH
  00174	eb 6c		 jmp	 SHORT $LN1@LoadBool_e@2
$LN77@LoadBool_e@2:
  00176	c6 45 f7 ea	 mov	 BYTE PTR __k$[ebp+19], -22 ; ffffffeaH
  0017a	eb 66		 jmp	 SHORT $LN1@LoadBool_e@2
$LN78@LoadBool_e@2:
  0017c	88 4d f6	 mov	 BYTE PTR __k$[ebp+18], cl
  0017f	eb 61		 jmp	 SHORT $LN1@LoadBool_e@2
$LN80@LoadBool_e@2:
  00181	c6 45 f4 ed	 mov	 BYTE PTR __k$[ebp+16], -19 ; ffffffedH
  00185	eb 5b		 jmp	 SHORT $LN1@LoadBool_e@2
$LN81@LoadBool_e@2:
  00187	c6 45 f3 ea	 mov	 BYTE PTR __k$[ebp+15], -22 ; ffffffeaH
  0018b	eb 55		 jmp	 SHORT $LN1@LoadBool_e@2
$LN82@LoadBool_e@2:
  0018d	88 4d f2	 mov	 BYTE PTR __k$[ebp+14], cl
  00190	eb 50		 jmp	 SHORT $LN1@LoadBool_e@2
$LN83@LoadBool_e@2:
  00192	c6 45 f1 ec	 mov	 BYTE PTR __k$[ebp+13], -20 ; ffffffecH
  00196	eb 4a		 jmp	 SHORT $LN1@LoadBool_e@2
$LN84@LoadBool_e@2:
  00198	c6 45 f0 ed	 mov	 BYTE PTR __k$[ebp+12], -19 ; ffffffedH
  0019c	eb 44		 jmp	 SHORT $LN1@LoadBool_e@2
$LN85@LoadBool_e@2:
  0019e	c6 45 ef ea	 mov	 BYTE PTR __k$[ebp+11], -22 ; ffffffeaH
  001a2	eb 3e		 jmp	 SHORT $LN1@LoadBool_e@2
$LN86@LoadBool_e@2:
  001a4	88 4d ee	 mov	 BYTE PTR __k$[ebp+10], cl
  001a7	eb 39		 jmp	 SHORT $LN1@LoadBool_e@2
$LN87@LoadBool_e@2:
  001a9	c6 45 ed ec	 mov	 BYTE PTR __k$[ebp+9], -20 ; ffffffecH
  001ad	eb 33		 jmp	 SHORT $LN1@LoadBool_e@2
$LN88@LoadBool_e@2:
  001af	c6 45 ec ed	 mov	 BYTE PTR __k$[ebp+8], -19 ; ffffffedH
  001b3	eb 2d		 jmp	 SHORT $LN1@LoadBool_e@2
$LN89@LoadBool_e@2:
  001b5	c6 45 eb ea	 mov	 BYTE PTR __k$[ebp+7], -22 ; ffffffeaH
  001b9	eb 27		 jmp	 SHORT $LN1@LoadBool_e@2
$LN90@LoadBool_e@2:
  001bb	88 4d ea	 mov	 BYTE PTR __k$[ebp+6], cl
  001be	eb 22		 jmp	 SHORT $LN1@LoadBool_e@2
$LN91@LoadBool_e@2:
  001c0	c6 45 e9 ec	 mov	 BYTE PTR __k$[ebp+5], -20 ; ffffffecH
  001c4	eb 1c		 jmp	 SHORT $LN1@LoadBool_e@2
$LN92@LoadBool_e@2:
  001c6	c6 45 e8 ed	 mov	 BYTE PTR __k$[ebp+4], -19 ; ffffffedH
  001ca	eb 16		 jmp	 SHORT $LN1@LoadBool_e@2
$LN93@LoadBool_e@2:
  001cc	c6 45 e7 ea	 mov	 BYTE PTR __k$[ebp+3], -22 ; ffffffeaH
  001d0	eb 10		 jmp	 SHORT $LN1@LoadBool_e@2
$LN94@LoadBool_e@2:
  001d2	c6 45 e6 eb	 mov	 BYTE PTR __k$[ebp+2], -21 ; ffffffebH
  001d6	eb 0a		 jmp	 SHORT $LN1@LoadBool_e@2
$LN95@LoadBool_e@2:
  001d8	c6 45 e5 ec	 mov	 BYTE PTR __k$[ebp+1], -20 ; ffffffecH
  001dc	eb 04		 jmp	 SHORT $LN1@LoadBool_e@2
$LN96@LoadBool_e@2:
  001de	c6 45 e4 ed	 mov	 BYTE PTR __k$[ebp], -19	; ffffffedH
$LN1@LoadBool_e@2:
  001e2	6a 04		 push	 4
  001e4	8d 45 e4	 lea	 eax, DWORD PTR __k$[ebp]
  001e7	c6 45 f5 00	 mov	 BYTE PTR __k$[ebp+17], 0
  001eb	5a		 pop	 edx
$LL104@LoadBool_e@2:
  001ec	81 30 ed ec eb
	ea		 xor	 DWORD PTR [eax], -353637139 ; eaebecedH
  001f2	83 c0 04	 add	 eax, 4
  001f5	4a		 dec	 edx
  001f6	75 f4		 jne	 SHORT $LL104@LoadBool_e@2

; 103  : 		return LoadBool(_k, b);

  001f8	ff 75 0c	 push	 DWORD PTR _b$[ebp]
  001fb	80 75 f4 ed	 xor	 BYTE PTR __k$[ebp+16], -19 ; ffffffedH
  001ff	8d 45 e4	 lea	 eax, DWORD PTR __k$[ebp]
  00202	50		 push	 eax
  00203	8b ce		 mov	 ecx, esi
  00205	ff 15 00 00 00
	00		 call	 DWORD PTR __imp_?LoadBool@ioINILoader@@QAE_NPBD_N@Z

; 104  : 	}

  0020b	8b 4d fc	 mov	 ecx, DWORD PTR __$ArrayPad$[ebp]
  0020e	33 cd		 xor	 ecx, ebp
  00210	5e		 pop	 esi
  00211	e8 00 00 00 00	 call	 @__security_check_cookie@4
  00216	c9		 leave
  00217	c2 08 00	 ret	 8
??$LoadBool_e@$0BC@@ioINILoader@@QAE_NAAY0BC@$$CBD_N@Z ENDP ; ioINILoader::LoadBool_e<18>
_TEXT	ENDS
PUBLIC	__$ArrayPad$
PUBLIC	??$LoadBool_e@$0BA@@ioINILoader@@QAE_NAAY0BA@$$CBD_N@Z ; ioINILoader::LoadBool_e<16>
; Function compile flags: /Ogsp
;	COMDAT ??$LoadBool_e@$0BA@@ioINILoader@@QAE_NAAY0BA@$$CBD_N@Z
_TEXT	SEGMENT
__k$ = -24						; size = 16
__$ArrayPad$ = -4					; size = 4
_k$ = 8							; size = 4
_b$ = 12						; size = 1
??$LoadBool_e@$0BA@@ioINILoader@@QAE_NAAY0BA@$$CBD_N@Z PROC ; ioINILoader::LoadBool_e<16>, COMDAT
; _this$ = ecx

; 101  : 	{

  00000	55		 push	 ebp
  00001	8b ec		 mov	 ebp, esp
  00003	83 ec 18	 sub	 esp, 24			; 00000018H
  00006	a1 00 00 00 00	 mov	 eax, DWORD PTR ___security_cookie
  0000b	33 c5		 xor	 eax, ebp
  0000d	89 45 fc	 mov	 DWORD PTR __$ArrayPad$[ebp], eax
  00010	8b 45 08	 mov	 eax, DWORD PTR _k$[ebp]

; 102  : 		_ENCSTR(k, _k);

  00013	8a 10		 mov	 dl, BYTE PTR [eax]
  00015	56		 push	 esi
  00016	8b f1		 mov	 esi, ecx
  00018	84 d2		 test	 dl, dl
  0001a	0f 84 8c 01 00
	00		 je	 $LN96@LoadBool_e@3
  00020	80 f2 ed	 xor	 dl, -19			; ffffffedH
  00023	88 55 e8	 mov	 BYTE PTR __k$[ebp], dl
  00026	8a 50 01	 mov	 dl, BYTE PTR [eax+1]
  00029	84 d2		 test	 dl, dl
  0002b	0f 84 75 01 00
	00		 je	 $LN95@LoadBool_e@3
  00031	80 f2 ec	 xor	 dl, -20			; ffffffecH
  00034	88 55 e9	 mov	 BYTE PTR __k$[ebp+1], dl
  00037	8a 50 02	 mov	 dl, BYTE PTR [eax+2]
  0003a	84 d2		 test	 dl, dl
  0003c	0f 84 5e 01 00
	00		 je	 $LN94@LoadBool_e@3
  00042	b1 eb		 mov	 cl, -21			; ffffffebH
  00044	32 d1		 xor	 dl, cl
  00046	88 55 ea	 mov	 BYTE PTR __k$[ebp+2], dl
  00049	8a 50 03	 mov	 dl, BYTE PTR [eax+3]
  0004c	84 d2		 test	 dl, dl
  0004e	0f 84 46 01 00
	00		 je	 $LN93@LoadBool_e@3
  00054	80 f2 ea	 xor	 dl, -22			; ffffffeaH
  00057	88 55 eb	 mov	 BYTE PTR __k$[ebp+3], dl
  0005a	8a 50 04	 mov	 dl, BYTE PTR [eax+4]
  0005d	84 d2		 test	 dl, dl
  0005f	0f 84 2f 01 00
	00		 je	 $LN92@LoadBool_e@3
  00065	80 f2 ed	 xor	 dl, -19			; ffffffedH
  00068	88 55 ec	 mov	 BYTE PTR __k$[ebp+4], dl
  0006b	8a 50 05	 mov	 dl, BYTE PTR [eax+5]
  0006e	84 d2		 test	 dl, dl
  00070	0f 84 18 01 00
	00		 je	 $LN91@LoadBool_e@3
  00076	80 f2 ec	 xor	 dl, -20			; ffffffecH
  00079	88 55 ed	 mov	 BYTE PTR __k$[ebp+5], dl
  0007c	8a 50 06	 mov	 dl, BYTE PTR [eax+6]
  0007f	84 d2		 test	 dl, dl
  00081	0f 84 02 01 00
	00		 je	 $LN90@LoadBool_e@3
  00087	32 d1		 xor	 dl, cl
  00089	88 55 ee	 mov	 BYTE PTR __k$[ebp+6], dl
  0008c	8a 50 07	 mov	 dl, BYTE PTR [eax+7]
  0008f	84 d2		 test	 dl, dl
  00091	0f 84 ec 00 00
	00		 je	 $LN89@LoadBool_e@3
  00097	80 f2 ea	 xor	 dl, -22			; ffffffeaH
  0009a	88 55 ef	 mov	 BYTE PTR __k$[ebp+7], dl
  0009d	8a 50 08	 mov	 dl, BYTE PTR [eax+8]
  000a0	84 d2		 test	 dl, dl
  000a2	0f 84 d5 00 00
	00		 je	 $LN88@LoadBool_e@3
  000a8	80 f2 ed	 xor	 dl, -19			; ffffffedH
  000ab	88 55 f0	 mov	 BYTE PTR __k$[ebp+8], dl
  000ae	8a 50 09	 mov	 dl, BYTE PTR [eax+9]
  000b1	84 d2		 test	 dl, dl
  000b3	0f 84 be 00 00
	00		 je	 $LN87@LoadBool_e@3
  000b9	80 f2 ec	 xor	 dl, -20			; ffffffecH
  000bc	88 55 f1	 mov	 BYTE PTR __k$[ebp+9], dl
  000bf	8a 50 0a	 mov	 dl, BYTE PTR [eax+10]
  000c2	84 d2		 test	 dl, dl
  000c4	0f 84 a8 00 00
	00		 je	 $LN86@LoadBool_e@3
  000ca	32 d1		 xor	 dl, cl
  000cc	88 55 f2	 mov	 BYTE PTR __k$[ebp+10], dl
  000cf	8a 50 0b	 mov	 dl, BYTE PTR [eax+11]
  000d2	84 d2		 test	 dl, dl
  000d4	0f 84 92 00 00
	00		 je	 $LN85@LoadBool_e@3
  000da	80 f2 ea	 xor	 dl, -22			; ffffffeaH
  000dd	88 55 f3	 mov	 BYTE PTR __k$[ebp+11], dl
  000e0	8a 50 0c	 mov	 dl, BYTE PTR [eax+12]
  000e3	84 d2		 test	 dl, dl
  000e5	74 7f		 je	 SHORT $LN84@LoadBool_e@3
  000e7	80 f2 ed	 xor	 dl, -19			; ffffffedH
  000ea	88 55 f4	 mov	 BYTE PTR __k$[ebp+12], dl
  000ed	8a 50 0d	 mov	 dl, BYTE PTR [eax+13]
  000f0	84 d2		 test	 dl, dl
  000f2	74 6c		 je	 SHORT $LN83@LoadBool_e@3
  000f4	80 f2 ec	 xor	 dl, -20			; ffffffecH
  000f7	88 55 f5	 mov	 BYTE PTR __k$[ebp+13], dl
  000fa	8a 50 0e	 mov	 dl, BYTE PTR [eax+14]
  000fd	84 d2		 test	 dl, dl
  000ff	74 5a		 je	 SHORT $LN82@LoadBool_e@3
  00101	32 d1		 xor	 dl, cl
  00103	80 78 0f 00	 cmp	 BYTE PTR [eax+15], 0
  00107	88 55 f6	 mov	 BYTE PTR __k$[ebp+14], dl
  0010a	0f 84 a0 00 00
	00		 je	 $LN1@LoadBool_e@3
  00110	8a 50 10	 mov	 dl, BYTE PTR [eax+16]
  00113	84 d2		 test	 dl, dl
  00115	74 3e		 je	 SHORT $LN80@LoadBool_e@3
  00117	80 f2 ed	 xor	 dl, -19			; ffffffedH
  0011a	88 55 f8	 mov	 BYTE PTR __k$[ebp+16], dl
  0011d	8a 50 11	 mov	 dl, BYTE PTR [eax+17]
  00120	84 d2		 test	 dl, dl
  00122	74 2b		 je	 SHORT $LN79@LoadBool_e@3
  00124	80 f2 ec	 xor	 dl, -20			; ffffffecH
  00127	88 55 f9	 mov	 BYTE PTR __k$[ebp+17], dl
  0012a	8a 50 12	 mov	 dl, BYTE PTR [eax+18]
  0012d	84 d2		 test	 dl, dl
  0012f	74 19		 je	 SHORT $LN78@LoadBool_e@3
  00131	8a 40 13	 mov	 al, BYTE PTR [eax+19]
  00134	32 d1		 xor	 dl, cl
  00136	88 55 fa	 mov	 BYTE PTR __k$[ebp+18], dl
  00139	84 c0		 test	 al, al
  0013b	74 07		 je	 SHORT $LN77@LoadBool_e@3
  0013d	34 ea		 xor	 al, -22			; ffffffeaH
  0013f	88 45 fb	 mov	 BYTE PTR __k$[ebp+19], al
  00142	eb 6c		 jmp	 SHORT $LN1@LoadBool_e@3
$LN77@LoadBool_e@3:
  00144	c6 45 fb ea	 mov	 BYTE PTR __k$[ebp+19], -22 ; ffffffeaH
  00148	eb 66		 jmp	 SHORT $LN1@LoadBool_e@3
$LN78@LoadBool_e@3:
  0014a	88 4d fa	 mov	 BYTE PTR __k$[ebp+18], cl
  0014d	eb 61		 jmp	 SHORT $LN1@LoadBool_e@3
$LN79@LoadBool_e@3:
  0014f	c6 45 f9 ec	 mov	 BYTE PTR __k$[ebp+17], -20 ; ffffffecH
  00153	eb 5b		 jmp	 SHORT $LN1@LoadBool_e@3
$LN80@LoadBool_e@3:
  00155	c6 45 f8 ed	 mov	 BYTE PTR __k$[ebp+16], -19 ; ffffffedH
  00159	eb 55		 jmp	 SHORT $LN1@LoadBool_e@3
$LN82@LoadBool_e@3:
  0015b	88 4d f6	 mov	 BYTE PTR __k$[ebp+14], cl
  0015e	eb 50		 jmp	 SHORT $LN1@LoadBool_e@3
$LN83@LoadBool_e@3:
  00160	c6 45 f5 ec	 mov	 BYTE PTR __k$[ebp+13], -20 ; ffffffecH
  00164	eb 4a		 jmp	 SHORT $LN1@LoadBool_e@3
$LN84@LoadBool_e@3:
  00166	c6 45 f4 ed	 mov	 BYTE PTR __k$[ebp+12], -19 ; ffffffedH
  0016a	eb 44		 jmp	 SHORT $LN1@LoadBool_e@3
$LN85@LoadBool_e@3:
  0016c	c6 45 f3 ea	 mov	 BYTE PTR __k$[ebp+11], -22 ; ffffffeaH
  00170	eb 3e		 jmp	 SHORT $LN1@LoadBool_e@3
$LN86@LoadBool_e@3:
  00172	88 4d f2	 mov	 BYTE PTR __k$[ebp+10], cl
  00175	eb 39		 jmp	 SHORT $LN1@LoadBool_e@3
$LN87@LoadBool_e@3:
  00177	c6 45 f1 ec	 mov	 BYTE PTR __k$[ebp+9], -20 ; ffffffecH
  0017b	eb 33		 jmp	 SHORT $LN1@LoadBool_e@3
$LN88@LoadBool_e@3:
  0017d	c6 45 f0 ed	 mov	 BYTE PTR __k$[ebp+8], -19 ; ffffffedH
  00181	eb 2d		 jmp	 SHORT $LN1@LoadBool_e@3
$LN89@LoadBool_e@3:
  00183	c6 45 ef ea	 mov	 BYTE PTR __k$[ebp+7], -22 ; ffffffeaH
  00187	eb 27		 jmp	 SHORT $LN1@LoadBool_e@3
$LN90@LoadBool_e@3:
  00189	88 4d ee	 mov	 BYTE PTR __k$[ebp+6], cl
  0018c	eb 22		 jmp	 SHORT $LN1@LoadBool_e@3
$LN91@LoadBool_e@3:
  0018e	c6 45 ed ec	 mov	 BYTE PTR __k$[ebp+5], -20 ; ffffffecH
  00192	eb 1c		 jmp	 SHORT $LN1@LoadBool_e@3
$LN92@LoadBool_e@3:
  00194	c6 45 ec ed	 mov	 BYTE PTR __k$[ebp+4], -19 ; ffffffedH
  00198	eb 16		 jmp	 SHORT $LN1@LoadBool_e@3
$LN93@LoadBool_e@3:
  0019a	c6 45 eb ea	 mov	 BYTE PTR __k$[ebp+3], -22 ; ffffffeaH
  0019e	eb 10		 jmp	 SHORT $LN1@LoadBool_e@3
$LN94@LoadBool_e@3:
  001a0	c6 45 ea eb	 mov	 BYTE PTR __k$[ebp+2], -21 ; ffffffebH
  001a4	eb 0a		 jmp	 SHORT $LN1@LoadBool_e@3
$LN95@LoadBool_e@3:
  001a6	c6 45 e9 ec	 mov	 BYTE PTR __k$[ebp+1], -20 ; ffffffecH
  001aa	eb 04		 jmp	 SHORT $LN1@LoadBool_e@3
$LN96@LoadBool_e@3:
  001ac	c6 45 e8 ed	 mov	 BYTE PTR __k$[ebp], -19	; ffffffedH
$LN1@LoadBool_e@3:
  001b0	6a 03		 push	 3
  001b2	8d 45 e8	 lea	 eax, DWORD PTR __k$[ebp]
  001b5	c6 45 f7 00	 mov	 BYTE PTR __k$[ebp+15], 0
  001b9	5a		 pop	 edx
$LL104@LoadBool_e@3:
  001ba	81 30 ed ec eb
	ea		 xor	 DWORD PTR [eax], -353637139 ; eaebecedH
  001c0	83 c0 04	 add	 eax, 4
  001c3	4a		 dec	 edx
  001c4	75 f4		 jne	 SHORT $LL104@LoadBool_e@3
  001c6	6a 0c		 push	 12			; 0000000cH
  001c8	58		 pop	 eax
$LL101@LoadBool_e@3:
  001c9	8b c8		 mov	 ecx, eax
  001cb	81 e1 03 00 00
	80		 and	 ecx, -2147483645	; 80000003H
  001d1	79 05		 jns	 SHORT $LN111@LoadBool_e@3
  001d3	49		 dec	 ecx
  001d4	83 c9 fc	 or	 ecx, -4			; fffffffcH
  001d7	41		 inc	 ecx
$LN111@LoadBool_e@3:
  001d8	b2 ed		 mov	 dl, -19			; ffffffedH
  001da	2a d1		 sub	 dl, cl
  001dc	30 54 05 e8	 xor	 BYTE PTR __k$[ebp+eax], dl
  001e0	40		 inc	 eax
  001e1	83 f8 0f	 cmp	 eax, 15			; 0000000fH
  001e4	7c e3		 jl	 SHORT $LL101@LoadBool_e@3

; 103  : 		return LoadBool(_k, b);

  001e6	ff 75 0c	 push	 DWORD PTR _b$[ebp]
  001e9	8d 45 e8	 lea	 eax, DWORD PTR __k$[ebp]
  001ec	50		 push	 eax
  001ed	8b ce		 mov	 ecx, esi
  001ef	ff 15 00 00 00
	00		 call	 DWORD PTR __imp_?LoadBool@ioINILoader@@QAE_NPBD_N@Z

; 104  : 	}

  001f5	8b 4d fc	 mov	 ecx, DWORD PTR __$ArrayPad$[ebp]
  001f8	33 cd		 xor	 ecx, ebp
  001fa	5e		 pop	 esi
  001fb	e8 00 00 00 00	 call	 @__security_check_cookie@4
  00200	c9		 leave
  00201	c2 08 00	 ret	 8
??$LoadBool_e@$0BA@@ioINILoader@@QAE_NAAY0BA@$$CBD_N@Z ENDP ; ioINILoader::LoadBool_e<16>
_TEXT	ENDS
PUBLIC	__$ArrayPad$
PUBLIC	??$LoadBool_e@$0L@@ioINILoader@@QAE_NAAY0L@$$CBD_N@Z ; ioINILoader::LoadBool_e<11>
; Function compile flags: /Ogsp
;	COMDAT ??$LoadBool_e@$0L@@ioINILoader@@QAE_NAAY0L@$$CBD_N@Z
_TEXT	SEGMENT
__k$ = -20						; size = 11
__$ArrayPad$ = -4					; size = 4
_k$ = 8							; size = 4
_b$ = 12						; size = 1
??$LoadBool_e@$0L@@ioINILoader@@QAE_NAAY0L@$$CBD_N@Z PROC ; ioINILoader::LoadBool_e<11>, COMDAT
; _this$ = ecx

; 101  : 	{

  00000	55		 push	 ebp
  00001	8b ec		 mov	 ebp, esp
  00003	83 ec 14	 sub	 esp, 20			; 00000014H
  00006	a1 00 00 00 00	 mov	 eax, DWORD PTR ___security_cookie
  0000b	33 c5		 xor	 eax, ebp
  0000d	89 45 fc	 mov	 DWORD PTR __$ArrayPad$[ebp], eax
  00010	8b 45 08	 mov	 eax, DWORD PTR _k$[ebp]

; 102  : 		_ENCSTR(k, _k);

  00013	8a 10		 mov	 dl, BYTE PTR [eax]
  00015	56		 push	 esi
  00016	8b f1		 mov	 esi, ecx
  00018	84 d2		 test	 dl, dl
  0001a	0f 84 24 01 00
	00		 je	 $LN96@LoadBool_e@4
  00020	80 f2 ed	 xor	 dl, -19			; ffffffedH
  00023	88 55 ec	 mov	 BYTE PTR __k$[ebp], dl
  00026	8a 50 01	 mov	 dl, BYTE PTR [eax+1]
  00029	84 d2		 test	 dl, dl
  0002b	0f 84 0d 01 00
	00		 je	 $LN95@LoadBool_e@4
  00031	80 f2 ec	 xor	 dl, -20			; ffffffecH
  00034	88 55 ed	 mov	 BYTE PTR __k$[ebp+1], dl
  00037	8a 50 02	 mov	 dl, BYTE PTR [eax+2]
  0003a	84 d2		 test	 dl, dl
  0003c	0f 84 f6 00 00
	00		 je	 $LN94@LoadBool_e@4
  00042	80 f2 eb	 xor	 dl, -21			; ffffffebH
  00045	88 55 ee	 mov	 BYTE PTR __k$[ebp+2], dl
  00048	8a 50 03	 mov	 dl, BYTE PTR [eax+3]
  0004b	84 d2		 test	 dl, dl
  0004d	0f 84 df 00 00
	00		 je	 $LN93@LoadBool_e@4
  00053	80 f2 ea	 xor	 dl, -22			; ffffffeaH
  00056	88 55 ef	 mov	 BYTE PTR __k$[ebp+3], dl
  00059	8a 50 04	 mov	 dl, BYTE PTR [eax+4]
  0005c	84 d2		 test	 dl, dl
  0005e	0f 84 c8 00 00
	00		 je	 $LN92@LoadBool_e@4
  00064	80 f2 ed	 xor	 dl, -19			; ffffffedH
  00067	88 55 f0	 mov	 BYTE PTR __k$[ebp+4], dl
  0006a	8a 50 05	 mov	 dl, BYTE PTR [eax+5]
  0006d	84 d2		 test	 dl, dl
  0006f	0f 84 b1 00 00
	00		 je	 $LN91@LoadBool_e@4
  00075	80 f2 ec	 xor	 dl, -20			; ffffffecH
  00078	88 55 f1	 mov	 BYTE PTR __k$[ebp+5], dl
  0007b	8a 50 06	 mov	 dl, BYTE PTR [eax+6]
  0007e	84 d2		 test	 dl, dl
  00080	0f 84 9a 00 00
	00		 je	 $LN90@LoadBool_e@4
  00086	80 f2 eb	 xor	 dl, -21			; ffffffebH
  00089	88 55 f2	 mov	 BYTE PTR __k$[ebp+6], dl
  0008c	8a 50 07	 mov	 dl, BYTE PTR [eax+7]
  0008f	84 d2		 test	 dl, dl
  00091	0f 84 83 00 00
	00		 je	 $LN89@LoadBool_e@4
  00097	80 f2 ea	 xor	 dl, -22			; ffffffeaH
  0009a	88 55 f3	 mov	 BYTE PTR __k$[ebp+7], dl
  0009d	8a 50 08	 mov	 dl, BYTE PTR [eax+8]
  000a0	84 d2		 test	 dl, dl
  000a2	74 70		 je	 SHORT $LN88@LoadBool_e@4
  000a4	80 f2 ed	 xor	 dl, -19			; ffffffedH
  000a7	88 55 f4	 mov	 BYTE PTR __k$[ebp+8], dl
  000aa	8a 50 09	 mov	 dl, BYTE PTR [eax+9]
  000ad	84 d2		 test	 dl, dl
  000af	74 5d		 je	 SHORT $LN87@LoadBool_e@4
  000b1	80 f2 ec	 xor	 dl, -20			; ffffffecH
  000b4	80 78 0a 00	 cmp	 BYTE PTR [eax+10], 0
  000b8	88 55 f5	 mov	 BYTE PTR __k$[ebp+9], dl
  000bb	0f 84 87 00 00
	00		 je	 $LN1@LoadBool_e@4
  000c1	8a 50 0b	 mov	 dl, BYTE PTR [eax+11]
  000c4	84 d2		 test	 dl, dl
  000c6	74 40		 je	 SHORT $LN85@LoadBool_e@4
  000c8	80 f2 ea	 xor	 dl, -22			; ffffffeaH
  000cb	88 55 f7	 mov	 BYTE PTR __k$[ebp+11], dl
  000ce	8a 50 0c	 mov	 dl, BYTE PTR [eax+12]
  000d1	84 d2		 test	 dl, dl
  000d3	74 2d		 je	 SHORT $LN84@LoadBool_e@4
  000d5	80 f2 ed	 xor	 dl, -19			; ffffffedH
  000d8	88 55 f8	 mov	 BYTE PTR __k$[ebp+12], dl
  000db	8a 50 0d	 mov	 dl, BYTE PTR [eax+13]
  000de	84 d2		 test	 dl, dl
  000e0	74 1a		 je	 SHORT $LN83@LoadBool_e@4
  000e2	8a 40 0e	 mov	 al, BYTE PTR [eax+14]
  000e5	80 f2 ec	 xor	 dl, -20			; ffffffecH
  000e8	88 55 f9	 mov	 BYTE PTR __k$[ebp+13], dl
  000eb	84 c0		 test	 al, al
  000ed	74 07		 je	 SHORT $LN82@LoadBool_e@4
  000ef	34 eb		 xor	 al, -21			; ffffffebH
  000f1	88 45 fa	 mov	 BYTE PTR __k$[ebp+14], al
  000f4	eb 52		 jmp	 SHORT $LN1@LoadBool_e@4
$LN82@LoadBool_e@4:
  000f6	c6 45 fa eb	 mov	 BYTE PTR __k$[ebp+14], -21 ; ffffffebH
  000fa	eb 4c		 jmp	 SHORT $LN1@LoadBool_e@4
$LN83@LoadBool_e@4:
  000fc	c6 45 f9 ec	 mov	 BYTE PTR __k$[ebp+13], -20 ; ffffffecH
  00100	eb 46		 jmp	 SHORT $LN1@LoadBool_e@4
$LN84@LoadBool_e@4:
  00102	c6 45 f8 ed	 mov	 BYTE PTR __k$[ebp+12], -19 ; ffffffedH
  00106	eb 40		 jmp	 SHORT $LN1@LoadBool_e@4
$LN85@LoadBool_e@4:
  00108	c6 45 f7 ea	 mov	 BYTE PTR __k$[ebp+11], -22 ; ffffffeaH
  0010c	eb 3a		 jmp	 SHORT $LN1@LoadBool_e@4
$LN87@LoadBool_e@4:
  0010e	c6 45 f5 ec	 mov	 BYTE PTR __k$[ebp+9], -20 ; ffffffecH
  00112	eb 34		 jmp	 SHORT $LN1@LoadBool_e@4
$LN88@LoadBool_e@4:
  00114	c6 45 f4 ed	 mov	 BYTE PTR __k$[ebp+8], -19 ; ffffffedH
  00118	eb 2e		 jmp	 SHORT $LN1@LoadBool_e@4
$LN89@LoadBool_e@4:
  0011a	c6 45 f3 ea	 mov	 BYTE PTR __k$[ebp+7], -22 ; ffffffeaH
  0011e	eb 28		 jmp	 SHORT $LN1@LoadBool_e@4
$LN90@LoadBool_e@4:
  00120	c6 45 f2 eb	 mov	 BYTE PTR __k$[ebp+6], -21 ; ffffffebH
  00124	eb 22		 jmp	 SHORT $LN1@LoadBool_e@4
$LN91@LoadBool_e@4:
  00126	c6 45 f1 ec	 mov	 BYTE PTR __k$[ebp+5], -20 ; ffffffecH
  0012a	eb 1c		 jmp	 SHORT $LN1@LoadBool_e@4
$LN92@LoadBool_e@4:
  0012c	c6 45 f0 ed	 mov	 BYTE PTR __k$[ebp+4], -19 ; ffffffedH
  00130	eb 16		 jmp	 SHORT $LN1@LoadBool_e@4
$LN93@LoadBool_e@4:
  00132	c6 45 ef ea	 mov	 BYTE PTR __k$[ebp+3], -22 ; ffffffeaH
  00136	eb 10		 jmp	 SHORT $LN1@LoadBool_e@4
$LN94@LoadBool_e@4:
  00138	c6 45 ee eb	 mov	 BYTE PTR __k$[ebp+2], -21 ; ffffffebH
  0013c	eb 0a		 jmp	 SHORT $LN1@LoadBool_e@4
$LN95@LoadBool_e@4:
  0013e	c6 45 ed ec	 mov	 BYTE PTR __k$[ebp+1], -20 ; ffffffecH
  00142	eb 04		 jmp	 SHORT $LN1@LoadBool_e@4
$LN96@LoadBool_e@4:
  00144	c6 45 ec ed	 mov	 BYTE PTR __k$[ebp], -19	; ffffffedH
$LN1@LoadBool_e@4:
  00148	6a 02		 push	 2
  0014a	8d 45 ec	 lea	 eax, DWORD PTR __k$[ebp]
  0014d	c6 45 f6 00	 mov	 BYTE PTR __k$[ebp+10], 0
  00151	5a		 pop	 edx
$LL104@LoadBool_e@4:
  00152	81 30 ed ec eb
	ea		 xor	 DWORD PTR [eax], -353637139 ; eaebecedH
  00158	83 c0 04	 add	 eax, 4
  0015b	4a		 dec	 edx
  0015c	75 f4		 jne	 SHORT $LL104@LoadBool_e@4
  0015e	6a 08		 push	 8
  00160	58		 pop	 eax
$LL101@LoadBool_e@4:
  00161	8b c8		 mov	 ecx, eax
  00163	81 e1 03 00 00
	80		 and	 ecx, -2147483645	; 80000003H
  00169	79 05		 jns	 SHORT $LN111@LoadBool_e@4
  0016b	49		 dec	 ecx
  0016c	83 c9 fc	 or	 ecx, -4			; fffffffcH
  0016f	41		 inc	 ecx
$LN111@LoadBool_e@4:
  00170	b2 ed		 mov	 dl, -19			; ffffffedH
  00172	2a d1		 sub	 dl, cl
  00174	30 54 05 ec	 xor	 BYTE PTR __k$[ebp+eax], dl
  00178	40		 inc	 eax
  00179	83 f8 0a	 cmp	 eax, 10			; 0000000aH
  0017c	7c e3		 jl	 SHORT $LL101@LoadBool_e@4

; 103  : 		return LoadBool(_k, b);

  0017e	ff 75 0c	 push	 DWORD PTR _b$[ebp]
  00181	8d 45 ec	 lea	 eax, DWORD PTR __k$[ebp]
  00184	50		 push	 eax
  00185	8b ce		 mov	 ecx, esi
  00187	ff 15 00 00 00
	00		 call	 DWORD PTR __imp_?LoadBool@ioINILoader@@QAE_NPBD_N@Z

; 104  : 	}

  0018d	8b 4d fc	 mov	 ecx, DWORD PTR __$ArrayPad$[ebp]
  00190	33 cd		 xor	 ecx, ebp
  00192	5e		 pop	 esi
  00193	e8 00 00 00 00	 call	 @__security_check_cookie@4
  00198	c9		 leave
  00199	c2 08 00	 ret	 8
??$LoadBool_e@$0L@@ioINILoader@@QAE_NAAY0L@$$CBD_N@Z ENDP ; ioINILoader::LoadBool_e<11>
_TEXT	ENDS
PUBLIC	__$ArrayPad$
PUBLIC	??$LoadBool_e@$0BF@@ioINILoader@@QAE_NAAY0BF@$$CBD_N@Z ; ioINILoader::LoadBool_e<21>
; Function compile flags: /Ogsp
;	COMDAT ??$LoadBool_e@$0BF@@ioINILoader@@QAE_NAAY0BF@$$CBD_N@Z
_TEXT	SEGMENT
__k$ = -32						; size = 21
__$ArrayPad$ = -4					; size = 4
_k$ = 8							; size = 4
_b$ = 12						; size = 1
??$LoadBool_e@$0BF@@ioINILoader@@QAE_NAAY0BF@$$CBD_N@Z PROC ; ioINILoader::LoadBool_e<21>, COMDAT
; _this$ = ecx

; 101  : 	{

  00000	55		 push	 ebp
  00001	8b ec		 mov	 ebp, esp
  00003	83 ec 20	 sub	 esp, 32			; 00000020H
  00006	a1 00 00 00 00	 mov	 eax, DWORD PTR ___security_cookie
  0000b	33 c5		 xor	 eax, ebp
  0000d	89 45 fc	 mov	 DWORD PTR __$ArrayPad$[ebp], eax
  00010	8b 45 08	 mov	 eax, DWORD PTR _k$[ebp]

; 102  : 		_ENCSTR(k, _k);

  00013	8a 10		 mov	 dl, BYTE PTR [eax]
  00015	53		 push	 ebx
  00016	56		 push	 esi
  00017	8b f1		 mov	 esi, ecx
  00019	84 d2		 test	 dl, dl
  0001b	0f 84 f7 01 00
	00		 je	 $LN96@LoadBool_e@5
  00021	80 f2 ed	 xor	 dl, -19			; ffffffedH
  00024	88 55 e0	 mov	 BYTE PTR __k$[ebp], dl
  00027	8a 50 01	 mov	 dl, BYTE PTR [eax+1]
  0002a	84 d2		 test	 dl, dl
  0002c	0f 84 e0 01 00
	00		 je	 $LN95@LoadBool_e@5
  00032	b1 ec		 mov	 cl, -20			; ffffffecH
  00034	32 d1		 xor	 dl, cl
  00036	88 55 e1	 mov	 BYTE PTR __k$[ebp+1], dl
  00039	8a 50 02	 mov	 dl, BYTE PTR [eax+2]
  0003c	84 d2		 test	 dl, dl
  0003e	0f 84 c8 01 00
	00		 je	 $LN94@LoadBool_e@5
  00044	b3 eb		 mov	 bl, -21			; ffffffebH
  00046	32 d3		 xor	 dl, bl
  00048	88 55 e2	 mov	 BYTE PTR __k$[ebp+2], dl
  0004b	8a 50 03	 mov	 dl, BYTE PTR [eax+3]
  0004e	84 d2		 test	 dl, dl
  00050	0f 84 b0 01 00
	00		 je	 $LN93@LoadBool_e@5
  00056	80 f2 ea	 xor	 dl, -22			; ffffffeaH
  00059	88 55 e3	 mov	 BYTE PTR __k$[ebp+3], dl
  0005c	8a 50 04	 mov	 dl, BYTE PTR [eax+4]
  0005f	84 d2		 test	 dl, dl
  00061	0f 84 99 01 00
	00		 je	 $LN92@LoadBool_e@5
  00067	80 f2 ed	 xor	 dl, -19			; ffffffedH
  0006a	88 55 e4	 mov	 BYTE PTR __k$[ebp+4], dl
  0006d	8a 50 05	 mov	 dl, BYTE PTR [eax+5]
  00070	84 d2		 test	 dl, dl
  00072	0f 84 83 01 00
	00		 je	 $LN91@LoadBool_e@5
  00078	32 d1		 xor	 dl, cl
  0007a	88 55 e5	 mov	 BYTE PTR __k$[ebp+5], dl
  0007d	8a 50 06	 mov	 dl, BYTE PTR [eax+6]
  00080	84 d2		 test	 dl, dl
  00082	0f 84 6e 01 00
	00		 je	 $LN90@LoadBool_e@5
  00088	32 d3		 xor	 dl, bl
  0008a	88 55 e6	 mov	 BYTE PTR __k$[ebp+6], dl
  0008d	8a 50 07	 mov	 dl, BYTE PTR [eax+7]
  00090	84 d2		 test	 dl, dl
  00092	0f 84 58 01 00
	00		 je	 $LN89@LoadBool_e@5
  00098	80 f2 ea	 xor	 dl, -22			; ffffffeaH
  0009b	88 55 e7	 mov	 BYTE PTR __k$[ebp+7], dl
  0009e	8a 50 08	 mov	 dl, BYTE PTR [eax+8]
  000a1	84 d2		 test	 dl, dl
  000a3	0f 84 41 01 00
	00		 je	 $LN88@LoadBool_e@5
  000a9	80 f2 ed	 xor	 dl, -19			; ffffffedH
  000ac	88 55 e8	 mov	 BYTE PTR __k$[ebp+8], dl
  000af	8a 50 09	 mov	 dl, BYTE PTR [eax+9]
  000b2	84 d2		 test	 dl, dl
  000b4	0f 84 2b 01 00
	00		 je	 $LN87@LoadBool_e@5
  000ba	32 d1		 xor	 dl, cl
  000bc	88 55 e9	 mov	 BYTE PTR __k$[ebp+9], dl
  000bf	8a 50 0a	 mov	 dl, BYTE PTR [eax+10]
  000c2	84 d2		 test	 dl, dl
  000c4	0f 84 16 01 00
	00		 je	 $LN86@LoadBool_e@5
  000ca	32 d3		 xor	 dl, bl
  000cc	88 55 ea	 mov	 BYTE PTR __k$[ebp+10], dl
  000cf	8a 50 0b	 mov	 dl, BYTE PTR [eax+11]
  000d2	84 d2		 test	 dl, dl
  000d4	0f 84 00 01 00
	00		 je	 $LN85@LoadBool_e@5
  000da	80 f2 ea	 xor	 dl, -22			; ffffffeaH
  000dd	88 55 eb	 mov	 BYTE PTR __k$[ebp+11], dl
  000e0	8a 50 0c	 mov	 dl, BYTE PTR [eax+12]
  000e3	84 d2		 test	 dl, dl
  000e5	0f 84 e9 00 00
	00		 je	 $LN84@LoadBool_e@5
  000eb	80 f2 ed	 xor	 dl, -19			; ffffffedH
  000ee	88 55 ec	 mov	 BYTE PTR __k$[ebp+12], dl
  000f1	8a 50 0d	 mov	 dl, BYTE PTR [eax+13]
  000f4	84 d2		 test	 dl, dl
  000f6	0f 84 d3 00 00
	00		 je	 $LN83@LoadBool_e@5
  000fc	32 d1		 xor	 dl, cl
  000fe	88 55 ed	 mov	 BYTE PTR __k$[ebp+13], dl
  00101	8a 50 0e	 mov	 dl, BYTE PTR [eax+14]
  00104	84 d2		 test	 dl, dl
  00106	0f 84 be 00 00
	00		 je	 $LN82@LoadBool_e@5
  0010c	32 d3		 xor	 dl, bl
  0010e	88 55 ee	 mov	 BYTE PTR __k$[ebp+14], dl
  00111	8a 50 0f	 mov	 dl, BYTE PTR [eax+15]
  00114	84 d2		 test	 dl, dl
  00116	0f 84 a8 00 00
	00		 je	 $LN81@LoadBool_e@5
  0011c	80 f2 ea	 xor	 dl, -22			; ffffffeaH
  0011f	88 55 ef	 mov	 BYTE PTR __k$[ebp+15], dl
  00122	8a 50 10	 mov	 dl, BYTE PTR [eax+16]
  00125	84 d2		 test	 dl, dl
  00127	0f 84 91 00 00
	00		 je	 $LN80@LoadBool_e@5
  0012d	80 f2 ed	 xor	 dl, -19			; ffffffedH
  00130	88 55 f0	 mov	 BYTE PTR __k$[ebp+16], dl
  00133	8a 50 11	 mov	 dl, BYTE PTR [eax+17]
  00136	84 d2		 test	 dl, dl
  00138	74 7f		 je	 SHORT $LN79@LoadBool_e@5
  0013a	32 d1		 xor	 dl, cl
  0013c	88 55 f1	 mov	 BYTE PTR __k$[ebp+17], dl
  0013f	8a 50 12	 mov	 dl, BYTE PTR [eax+18]
  00142	84 d2		 test	 dl, dl
  00144	74 6e		 je	 SHORT $LN78@LoadBool_e@5
  00146	32 d3		 xor	 dl, bl
  00148	88 55 f2	 mov	 BYTE PTR __k$[ebp+18], dl
  0014b	8a 50 13	 mov	 dl, BYTE PTR [eax+19]
  0014e	84 d2		 test	 dl, dl
  00150	74 5c		 je	 SHORT $LN77@LoadBool_e@5
  00152	80 f2 ea	 xor	 dl, -22			; ffffffeaH
  00155	80 78 14 00	 cmp	 BYTE PTR [eax+20], 0
  00159	88 55 f3	 mov	 BYTE PTR __k$[ebp+19], dl
  0015c	0f 84 ba 00 00
	00		 je	 $LN1@LoadBool_e@5
  00162	8a 50 15	 mov	 dl, BYTE PTR [eax+21]
  00165	84 d2		 test	 dl, dl
  00167	74 40		 je	 SHORT $LN75@LoadBool_e@5
  00169	32 d1		 xor	 dl, cl
  0016b	88 55 f5	 mov	 BYTE PTR __k$[ebp+21], dl
  0016e	8a 50 16	 mov	 dl, BYTE PTR [eax+22]
  00171	84 d2		 test	 dl, dl
  00173	74 2f		 je	 SHORT $LN74@LoadBool_e@5
  00175	32 d3		 xor	 dl, bl
  00177	88 55 f6	 mov	 BYTE PTR __k$[ebp+22], dl
  0017a	8a 50 17	 mov	 dl, BYTE PTR [eax+23]
  0017d	84 d2		 test	 dl, dl
  0017f	74 1d		 je	 SHORT $LN73@LoadBool_e@5
  00181	8a 40 18	 mov	 al, BYTE PTR [eax+24]
  00184	80 f2 ea	 xor	 dl, -22			; ffffffeaH
  00187	88 55 f7	 mov	 BYTE PTR __k$[ebp+23], dl
  0018a	84 c0		 test	 al, al
  0018c	74 0a		 je	 SHORT $LN72@LoadBool_e@5
  0018e	34 ed		 xor	 al, -19			; ffffffedH
  00190	88 45 f8	 mov	 BYTE PTR __k$[ebp+24], al
  00193	e9 84 00 00 00	 jmp	 $LN1@LoadBool_e@5
$LN72@LoadBool_e@5:
  00198	c6 45 f8 ed	 mov	 BYTE PTR __k$[ebp+24], -19 ; ffffffedH
  0019c	eb 7e		 jmp	 SHORT $LN1@LoadBool_e@5
$LN73@LoadBool_e@5:
  0019e	c6 45 f7 ea	 mov	 BYTE PTR __k$[ebp+23], -22 ; ffffffeaH
  001a2	eb 78		 jmp	 SHORT $LN1@LoadBool_e@5
$LN74@LoadBool_e@5:
  001a4	88 5d f6	 mov	 BYTE PTR __k$[ebp+22], bl
  001a7	eb 73		 jmp	 SHORT $LN1@LoadBool_e@5
$LN75@LoadBool_e@5:
  001a9	88 4d f5	 mov	 BYTE PTR __k$[ebp+21], cl
  001ac	eb 6e		 jmp	 SHORT $LN1@LoadBool_e@5
$LN77@LoadBool_e@5:
  001ae	c6 45 f3 ea	 mov	 BYTE PTR __k$[ebp+19], -22 ; ffffffeaH
  001b2	eb 68		 jmp	 SHORT $LN1@LoadBool_e@5
$LN78@LoadBool_e@5:
  001b4	88 5d f2	 mov	 BYTE PTR __k$[ebp+18], bl
  001b7	eb 63		 jmp	 SHORT $LN1@LoadBool_e@5
$LN79@LoadBool_e@5:
  001b9	88 4d f1	 mov	 BYTE PTR __k$[ebp+17], cl
  001bc	eb 5e		 jmp	 SHORT $LN1@LoadBool_e@5
$LN80@LoadBool_e@5:
  001be	c6 45 f0 ed	 mov	 BYTE PTR __k$[ebp+16], -19 ; ffffffedH
  001c2	eb 58		 jmp	 SHORT $LN1@LoadBool_e@5
$LN81@LoadBool_e@5:
  001c4	c6 45 ef ea	 mov	 BYTE PTR __k$[ebp+15], -22 ; ffffffeaH
  001c8	eb 52		 jmp	 SHORT $LN1@LoadBool_e@5
$LN82@LoadBool_e@5:
  001ca	88 5d ee	 mov	 BYTE PTR __k$[ebp+14], bl
  001cd	eb 4d		 jmp	 SHORT $LN1@LoadBool_e@5
$LN83@LoadBool_e@5:
  001cf	88 4d ed	 mov	 BYTE PTR __k$[ebp+13], cl
  001d2	eb 48		 jmp	 SHORT $LN1@LoadBool_e@5
$LN84@LoadBool_e@5:
  001d4	c6 45 ec ed	 mov	 BYTE PTR __k$[ebp+12], -19 ; ffffffedH
  001d8	eb 42		 jmp	 SHORT $LN1@LoadBool_e@5
$LN85@LoadBool_e@5:
  001da	c6 45 eb ea	 mov	 BYTE PTR __k$[ebp+11], -22 ; ffffffeaH
  001de	eb 3c		 jmp	 SHORT $LN1@LoadBool_e@5
$LN86@LoadBool_e@5:
  001e0	88 5d ea	 mov	 BYTE PTR __k$[ebp+10], bl
  001e3	eb 37		 jmp	 SHORT $LN1@LoadBool_e@5
$LN87@LoadBool_e@5:
  001e5	88 4d e9	 mov	 BYTE PTR __k$[ebp+9], cl
  001e8	eb 32		 jmp	 SHORT $LN1@LoadBool_e@5
$LN88@LoadBool_e@5:
  001ea	c6 45 e8 ed	 mov	 BYTE PTR __k$[ebp+8], -19 ; ffffffedH
  001ee	eb 2c		 jmp	 SHORT $LN1@LoadBool_e@5
$LN89@LoadBool_e@5:
  001f0	c6 45 e7 ea	 mov	 BYTE PTR __k$[ebp+7], -22 ; ffffffeaH
  001f4	eb 26		 jmp	 SHORT $LN1@LoadBool_e@5
$LN90@LoadBool_e@5:
  001f6	88 5d e6	 mov	 BYTE PTR __k$[ebp+6], bl
  001f9	eb 21		 jmp	 SHORT $LN1@LoadBool_e@5
$LN91@LoadBool_e@5:
  001fb	88 4d e5	 mov	 BYTE PTR __k$[ebp+5], cl
  001fe	eb 1c		 jmp	 SHORT $LN1@LoadBool_e@5
$LN92@LoadBool_e@5:
  00200	c6 45 e4 ed	 mov	 BYTE PTR __k$[ebp+4], -19 ; ffffffedH
  00204	eb 16		 jmp	 SHORT $LN1@LoadBool_e@5
$LN93@LoadBool_e@5:
  00206	c6 45 e3 ea	 mov	 BYTE PTR __k$[ebp+3], -22 ; ffffffeaH
  0020a	eb 10		 jmp	 SHORT $LN1@LoadBool_e@5
$LN94@LoadBool_e@5:
  0020c	c6 45 e2 eb	 mov	 BYTE PTR __k$[ebp+2], -21 ; ffffffebH
  00210	eb 0a		 jmp	 SHORT $LN1@LoadBool_e@5
$LN95@LoadBool_e@5:
  00212	c6 45 e1 ec	 mov	 BYTE PTR __k$[ebp+1], -20 ; ffffffecH
  00216	eb 04		 jmp	 SHORT $LN1@LoadBool_e@5
$LN96@LoadBool_e@5:
  00218	c6 45 e0 ed	 mov	 BYTE PTR __k$[ebp], -19	; ffffffedH
$LN1@LoadBool_e@5:
  0021c	6a 05		 push	 5
  0021e	8d 45 e0	 lea	 eax, DWORD PTR __k$[ebp]
  00221	c6 45 f4 00	 mov	 BYTE PTR __k$[ebp+20], 0
  00225	5a		 pop	 edx
$LL104@LoadBool_e@5:
  00226	81 30 ed ec eb
	ea		 xor	 DWORD PTR [eax], -353637139 ; eaebecedH
  0022c	83 c0 04	 add	 eax, 4
  0022f	4a		 dec	 edx
  00230	75 f4		 jne	 SHORT $LL104@LoadBool_e@5

; 103  : 		return LoadBool(_k, b);

  00232	ff 75 0c	 push	 DWORD PTR _b$[ebp]
  00235	8d 45 e0	 lea	 eax, DWORD PTR __k$[ebp]
  00238	50		 push	 eax
  00239	8b ce		 mov	 ecx, esi
  0023b	ff 15 00 00 00
	00		 call	 DWORD PTR __imp_?LoadBool@ioINILoader@@QAE_NPBD_N@Z

; 104  : 	}

  00241	8b 4d fc	 mov	 ecx, DWORD PTR __$ArrayPad$[ebp]
  00244	5e		 pop	 esi
  00245	33 cd		 xor	 ecx, ebp
  00247	5b		 pop	 ebx
  00248	e8 00 00 00 00	 call	 @__security_check_cookie@4
  0024d	c9		 leave
  0024e	c2 08 00	 ret	 8
??$LoadBool_e@$0BF@@ioINILoader@@QAE_NAAY0BF@$$CBD_N@Z ENDP ; ioINILoader::LoadBool_e<21>
_TEXT	ENDS
PUBLIC	_this$GSCopy$
PUBLIC	__$ArrayPad$
PUBLIC	??$LoadString_e@$0BC@@ioINILoader@@QAEXAAY0BC@$$CBDAAY00$$CBDPADH@Z ; ioINILoader::LoadString_e<18>
; Function compile flags: /Ogsp
;	COMDAT ??$LoadString_e@$0BC@@ioINILoader@@QAEXAAY0BC@$$CBDAAY00$$CBDPADH@Z
_TEXT	SEGMENT
_this$GSCopy$ = -32					; size = 4
__k$ = -28						; size = 18
__$ArrayPad$ = -4					; size = 4
_k$ = 8							; size = 4
_d$ = 12						; size = 4
_b$ = 16						; size = 4
_i$ = 20						; size = 4
??$LoadString_e@$0BC@@ioINILoader@@QAEXAAY0BC@$$CBDAAY00$$CBDPADH@Z PROC ; ioINILoader::LoadString_e<18>, COMDAT
; _this$ = ecx

; 161  : 	{

  00000	55		 push	 ebp
  00001	8b ec		 mov	 ebp, esp
  00003	83 ec 20	 sub	 esp, 32			; 00000020H
  00006	a1 00 00 00 00	 mov	 eax, DWORD PTR ___security_cookie
  0000b	33 c5		 xor	 eax, ebp
  0000d	89 45 fc	 mov	 DWORD PTR __$ArrayPad$[ebp], eax
  00010	8b 45 08	 mov	 eax, DWORD PTR _k$[ebp]

; 162  : 		_ENCSTR(k, _k);

  00013	8a 10		 mov	 dl, BYTE PTR [eax]
  00015	56		 push	 esi
  00016	8b 75 0c	 mov	 esi, DWORD PTR _d$[ebp]
  00019	57		 push	 edi
  0001a	8b 7d 10	 mov	 edi, DWORD PTR _b$[ebp]
  0001d	89 4d e0	 mov	 DWORD PTR _this$GSCopy$[ebp], ecx
  00020	84 d2		 test	 dl, dl
  00022	0f 84 be 01 00
	00		 je	 $LN96@LoadString@5
  00028	80 f2 ed	 xor	 dl, -19			; ffffffedH
  0002b	88 55 e4	 mov	 BYTE PTR __k$[ebp], dl
  0002e	8a 50 01	 mov	 dl, BYTE PTR [eax+1]
  00031	84 d2		 test	 dl, dl
  00033	0f 84 a7 01 00
	00		 je	 $LN95@LoadString@5
  00039	80 f2 ec	 xor	 dl, -20			; ffffffecH
  0003c	88 55 e5	 mov	 BYTE PTR __k$[ebp+1], dl
  0003f	8a 50 02	 mov	 dl, BYTE PTR [eax+2]
  00042	84 d2		 test	 dl, dl
  00044	0f 84 90 01 00
	00		 je	 $LN94@LoadString@5
  0004a	b1 eb		 mov	 cl, -21			; ffffffebH
  0004c	32 d1		 xor	 dl, cl
  0004e	88 55 e6	 mov	 BYTE PTR __k$[ebp+2], dl
  00051	8a 50 03	 mov	 dl, BYTE PTR [eax+3]
  00054	84 d2		 test	 dl, dl
  00056	0f 84 78 01 00
	00		 je	 $LN93@LoadString@5
  0005c	80 f2 ea	 xor	 dl, -22			; ffffffeaH
  0005f	88 55 e7	 mov	 BYTE PTR __k$[ebp+3], dl
  00062	8a 50 04	 mov	 dl, BYTE PTR [eax+4]
  00065	84 d2		 test	 dl, dl
  00067	0f 84 61 01 00
	00		 je	 $LN92@LoadString@5
  0006d	80 f2 ed	 xor	 dl, -19			; ffffffedH
  00070	88 55 e8	 mov	 BYTE PTR __k$[ebp+4], dl
  00073	8a 50 05	 mov	 dl, BYTE PTR [eax+5]
  00076	84 d2		 test	 dl, dl
  00078	0f 84 4a 01 00
	00		 je	 $LN91@LoadString@5
  0007e	80 f2 ec	 xor	 dl, -20			; ffffffecH
  00081	88 55 e9	 mov	 BYTE PTR __k$[ebp+5], dl
  00084	8a 50 06	 mov	 dl, BYTE PTR [eax+6]
  00087	84 d2		 test	 dl, dl
  00089	0f 84 34 01 00
	00		 je	 $LN90@LoadString@5
  0008f	32 d1		 xor	 dl, cl
  00091	88 55 ea	 mov	 BYTE PTR __k$[ebp+6], dl
  00094	8a 50 07	 mov	 dl, BYTE PTR [eax+7]
  00097	84 d2		 test	 dl, dl
  00099	0f 84 1e 01 00
	00		 je	 $LN89@LoadString@5
  0009f	80 f2 ea	 xor	 dl, -22			; ffffffeaH
  000a2	88 55 eb	 mov	 BYTE PTR __k$[ebp+7], dl
  000a5	8a 50 08	 mov	 dl, BYTE PTR [eax+8]
  000a8	84 d2		 test	 dl, dl
  000aa	0f 84 07 01 00
	00		 je	 $LN88@LoadString@5
  000b0	80 f2 ed	 xor	 dl, -19			; ffffffedH
  000b3	88 55 ec	 mov	 BYTE PTR __k$[ebp+8], dl
  000b6	8a 50 09	 mov	 dl, BYTE PTR [eax+9]
  000b9	84 d2		 test	 dl, dl
  000bb	0f 84 f0 00 00
	00		 je	 $LN87@LoadString@5
  000c1	80 f2 ec	 xor	 dl, -20			; ffffffecH
  000c4	88 55 ed	 mov	 BYTE PTR __k$[ebp+9], dl
  000c7	8a 50 0a	 mov	 dl, BYTE PTR [eax+10]
  000ca	84 d2		 test	 dl, dl
  000cc	0f 84 da 00 00
	00		 je	 $LN86@LoadString@5
  000d2	32 d1		 xor	 dl, cl
  000d4	88 55 ee	 mov	 BYTE PTR __k$[ebp+10], dl
  000d7	8a 50 0b	 mov	 dl, BYTE PTR [eax+11]
  000da	84 d2		 test	 dl, dl
  000dc	0f 84 c4 00 00
	00		 je	 $LN85@LoadString@5
  000e2	80 f2 ea	 xor	 dl, -22			; ffffffeaH
  000e5	88 55 ef	 mov	 BYTE PTR __k$[ebp+11], dl
  000e8	8a 50 0c	 mov	 dl, BYTE PTR [eax+12]
  000eb	84 d2		 test	 dl, dl
  000ed	0f 84 ad 00 00
	00		 je	 $LN84@LoadString@5
  000f3	80 f2 ed	 xor	 dl, -19			; ffffffedH
  000f6	88 55 f0	 mov	 BYTE PTR __k$[ebp+12], dl
  000f9	8a 50 0d	 mov	 dl, BYTE PTR [eax+13]
  000fc	84 d2		 test	 dl, dl
  000fe	0f 84 96 00 00
	00		 je	 $LN83@LoadString@5
  00104	80 f2 ec	 xor	 dl, -20			; ffffffecH
  00107	88 55 f1	 mov	 BYTE PTR __k$[ebp+13], dl
  0010a	8a 50 0e	 mov	 dl, BYTE PTR [eax+14]
  0010d	84 d2		 test	 dl, dl
  0010f	0f 84 80 00 00
	00		 je	 $LN82@LoadString@5
  00115	32 d1		 xor	 dl, cl
  00117	88 55 f2	 mov	 BYTE PTR __k$[ebp+14], dl
  0011a	8a 50 0f	 mov	 dl, BYTE PTR [eax+15]
  0011d	84 d2		 test	 dl, dl
  0011f	74 6e		 je	 SHORT $LN81@LoadString@5
  00121	80 f2 ea	 xor	 dl, -22			; ffffffeaH
  00124	88 55 f3	 mov	 BYTE PTR __k$[ebp+15], dl
  00127	8a 50 10	 mov	 dl, BYTE PTR [eax+16]
  0012a	84 d2		 test	 dl, dl
  0012c	74 5b		 je	 SHORT $LN80@LoadString@5
  0012e	80 f2 ed	 xor	 dl, -19			; ffffffedH
  00131	80 78 11 00	 cmp	 BYTE PTR [eax+17], 0
  00135	88 55 f4	 mov	 BYTE PTR __k$[ebp+16], dl
  00138	0f 84 ac 00 00
	00		 je	 $LN111@LoadString@5
  0013e	8a 50 12	 mov	 dl, BYTE PTR [eax+18]
  00141	84 d2		 test	 dl, dl
  00143	74 3f		 je	 SHORT $LN78@LoadString@5
  00145	32 d1		 xor	 dl, cl
  00147	88 55 f6	 mov	 BYTE PTR __k$[ebp+18], dl
  0014a	8a 50 13	 mov	 dl, BYTE PTR [eax+19]
  0014d	84 d2		 test	 dl, dl
  0014f	74 2d		 je	 SHORT $LN77@LoadString@5
  00151	80 f2 ea	 xor	 dl, -22			; ffffffeaH
  00154	88 55 f7	 mov	 BYTE PTR __k$[ebp+19], dl
  00157	8a 50 14	 mov	 dl, BYTE PTR [eax+20]
  0015a	84 d2		 test	 dl, dl
  0015c	74 1a		 je	 SHORT $LN76@LoadString@5
  0015e	8a 40 15	 mov	 al, BYTE PTR [eax+21]
  00161	80 f2 ed	 xor	 dl, -19			; ffffffedH
  00164	88 55 f8	 mov	 BYTE PTR __k$[ebp+20], dl
  00167	84 c0		 test	 al, al
  00169	74 07		 je	 SHORT $LN75@LoadString@5
  0016b	34 ec		 xor	 al, -20			; ffffffecH
  0016d	88 45 f9	 mov	 BYTE PTR __k$[ebp+21], al
  00170	eb 78		 jmp	 SHORT $LN111@LoadString@5
$LN75@LoadString@5:
  00172	c6 45 f9 ec	 mov	 BYTE PTR __k$[ebp+21], -20 ; ffffffecH
  00176	eb 72		 jmp	 SHORT $LN111@LoadString@5
$LN76@LoadString@5:
  00178	c6 45 f8 ed	 mov	 BYTE PTR __k$[ebp+20], -19 ; ffffffedH
  0017c	eb 6c		 jmp	 SHORT $LN111@LoadString@5
$LN77@LoadString@5:
  0017e	c6 45 f7 ea	 mov	 BYTE PTR __k$[ebp+19], -22 ; ffffffeaH
  00182	eb 66		 jmp	 SHORT $LN111@LoadString@5
$LN78@LoadString@5:
  00184	88 4d f6	 mov	 BYTE PTR __k$[ebp+18], cl
  00187	eb 61		 jmp	 SHORT $LN111@LoadString@5
$LN80@LoadString@5:
  00189	c6 45 f4 ed	 mov	 BYTE PTR __k$[ebp+16], -19 ; ffffffedH
  0018d	eb 5b		 jmp	 SHORT $LN111@LoadString@5
$LN81@LoadString@5:
  0018f	c6 45 f3 ea	 mov	 BYTE PTR __k$[ebp+15], -22 ; ffffffeaH
  00193	eb 55		 jmp	 SHORT $LN111@LoadString@5
$LN82@LoadString@5:
  00195	88 4d f2	 mov	 BYTE PTR __k$[ebp+14], cl
  00198	eb 50		 jmp	 SHORT $LN111@LoadString@5
$LN83@LoadString@5:
  0019a	c6 45 f1 ec	 mov	 BYTE PTR __k$[ebp+13], -20 ; ffffffecH
  0019e	eb 4a		 jmp	 SHORT $LN111@LoadString@5
$LN84@LoadString@5:
  001a0	c6 45 f0 ed	 mov	 BYTE PTR __k$[ebp+12], -19 ; ffffffedH
  001a4	eb 44		 jmp	 SHORT $LN111@LoadString@5
$LN85@LoadString@5:
  001a6	c6 45 ef ea	 mov	 BYTE PTR __k$[ebp+11], -22 ; ffffffeaH
  001aa	eb 3e		 jmp	 SHORT $LN111@LoadString@5
$LN86@LoadString@5:
  001ac	88 4d ee	 mov	 BYTE PTR __k$[ebp+10], cl
  001af	eb 39		 jmp	 SHORT $LN111@LoadString@5
$LN87@LoadString@5:
  001b1	c6 45 ed ec	 mov	 BYTE PTR __k$[ebp+9], -20 ; ffffffecH
  001b5	eb 33		 jmp	 SHORT $LN111@LoadString@5
$LN88@LoadString@5:
  001b7	c6 45 ec ed	 mov	 BYTE PTR __k$[ebp+8], -19 ; ffffffedH
  001bb	eb 2d		 jmp	 SHORT $LN111@LoadString@5
$LN89@LoadString@5:
  001bd	c6 45 eb ea	 mov	 BYTE PTR __k$[ebp+7], -22 ; ffffffeaH
  001c1	eb 27		 jmp	 SHORT $LN111@LoadString@5
$LN90@LoadString@5:
  001c3	88 4d ea	 mov	 BYTE PTR __k$[ebp+6], cl
  001c6	eb 22		 jmp	 SHORT $LN111@LoadString@5
$LN91@LoadString@5:
  001c8	c6 45 e9 ec	 mov	 BYTE PTR __k$[ebp+5], -20 ; ffffffecH
  001cc	eb 1c		 jmp	 SHORT $LN111@LoadString@5
$LN92@LoadString@5:
  001ce	c6 45 e8 ed	 mov	 BYTE PTR __k$[ebp+4], -19 ; ffffffedH
  001d2	eb 16		 jmp	 SHORT $LN111@LoadString@5
$LN93@LoadString@5:
  001d4	c6 45 e7 ea	 mov	 BYTE PTR __k$[ebp+3], -22 ; ffffffeaH
  001d8	eb 10		 jmp	 SHORT $LN111@LoadString@5
$LN94@LoadString@5:
  001da	c6 45 e6 eb	 mov	 BYTE PTR __k$[ebp+2], -21 ; ffffffebH
  001de	eb 0a		 jmp	 SHORT $LN111@LoadString@5
$LN95@LoadString@5:
  001e0	c6 45 e5 ec	 mov	 BYTE PTR __k$[ebp+1], -20 ; ffffffecH
  001e4	eb 04		 jmp	 SHORT $LN111@LoadString@5
$LN96@LoadString@5:
  001e6	c6 45 e4 ed	 mov	 BYTE PTR __k$[ebp], -19	; ffffffedH
$LN111@LoadString@5:
  001ea	6a 04		 push	 4
  001ec	8d 45 e4	 lea	 eax, DWORD PTR __k$[ebp]
  001ef	c6 45 f5 00	 mov	 BYTE PTR __k$[ebp+17], 0
  001f3	5a		 pop	 edx
$LL104@LoadString@5:
  001f4	81 30 ed ec eb
	ea		 xor	 DWORD PTR [eax], -353637139 ; eaebecedH
  001fa	83 c0 04	 add	 eax, 4
  001fd	4a		 dec	 edx
  001fe	75 f4		 jne	 SHORT $LL104@LoadString@5

; 163  : 		LoadString(_k, d, b, i);

  00200	ff 75 14	 push	 DWORD PTR _i$[ebp]
  00203	8b 4d e0	 mov	 ecx, DWORD PTR _this$GSCopy$[ebp]
  00206	80 75 f4 ed	 xor	 BYTE PTR __k$[ebp+16], -19 ; ffffffedH
  0020a	57		 push	 edi
  0020b	56		 push	 esi
  0020c	8d 45 e4	 lea	 eax, DWORD PTR __k$[ebp]
  0020f	50		 push	 eax
  00210	ff 15 00 00 00
	00		 call	 DWORD PTR __imp_?LoadStringA@ioINILoader@@QAEXPBD0PADH@Z

; 164  : 	}

  00216	8b 4d fc	 mov	 ecx, DWORD PTR __$ArrayPad$[ebp]
  00219	5f		 pop	 edi
  0021a	33 cd		 xor	 ecx, ebp
  0021c	5e		 pop	 esi
  0021d	e8 00 00 00 00	 call	 @__security_check_cookie@4
  00222	c9		 leave
  00223	c2 10 00	 ret	 16			; 00000010H
??$LoadString_e@$0BC@@ioINILoader@@QAEXAAY0BC@$$CBDAAY00$$CBDPADH@Z ENDP ; ioINILoader::LoadString_e<18>
_TEXT	ENDS
PUBLIC	__$ArrayPad$
PUBLIC	??$LoadInt_e@$0BI@@ioINILoader@@QAEHAAY0BI@$$CBDH@Z ; ioINILoader::LoadInt_e<24>
; Function compile flags: /Ogsp
;	COMDAT ??$LoadInt_e@$0BI@@ioINILoader@@QAEHAAY0BI@$$CBDH@Z
_TEXT	SEGMENT
__k$ = -32						; size = 24
__$ArrayPad$ = -4					; size = 4
_k$ = 8							; size = 4
_i$ = 12						; size = 4
??$LoadInt_e@$0BI@@ioINILoader@@QAEHAAY0BI@$$CBDH@Z PROC ; ioINILoader::LoadInt_e<24>, COMDAT
; _this$ = ecx

; 118  : 	{

  00000	55		 push	 ebp
  00001	8b ec		 mov	 ebp, esp
  00003	83 ec 20	 sub	 esp, 32			; 00000020H
  00006	a1 00 00 00 00	 mov	 eax, DWORD PTR ___security_cookie
  0000b	33 c5		 xor	 eax, ebp
  0000d	89 45 fc	 mov	 DWORD PTR __$ArrayPad$[ebp], eax
  00010	8b 45 08	 mov	 eax, DWORD PTR _k$[ebp]

; 119  : 		_ENCSTR(k, _k);

  00013	8a 10		 mov	 dl, BYTE PTR [eax]
  00015	53		 push	 ebx
  00016	56		 push	 esi
  00017	8b f1		 mov	 esi, ecx
  00019	84 d2		 test	 dl, dl
  0001b	0f 84 45 02 00
	00		 je	 $LN96@LoadInt_e@6
  00021	80 f2 ed	 xor	 dl, -19			; ffffffedH
  00024	88 55 e0	 mov	 BYTE PTR __k$[ebp], dl
  00027	8a 50 01	 mov	 dl, BYTE PTR [eax+1]
  0002a	84 d2		 test	 dl, dl
  0002c	0f 84 2e 02 00
	00		 je	 $LN95@LoadInt_e@6
  00032	b3 ec		 mov	 bl, -20			; ffffffecH
  00034	32 d3		 xor	 dl, bl
  00036	88 55 e1	 mov	 BYTE PTR __k$[ebp+1], dl
  00039	8a 50 02	 mov	 dl, BYTE PTR [eax+2]
  0003c	84 d2		 test	 dl, dl
  0003e	0f 84 16 02 00
	00		 je	 $LN94@LoadInt_e@6
  00044	b1 eb		 mov	 cl, -21			; ffffffebH
  00046	32 d1		 xor	 dl, cl
  00048	88 55 e2	 mov	 BYTE PTR __k$[ebp+2], dl
  0004b	8a 50 03	 mov	 dl, BYTE PTR [eax+3]
  0004e	84 d2		 test	 dl, dl
  00050	0f 84 fe 01 00
	00		 je	 $LN93@LoadInt_e@6
  00056	80 f2 ea	 xor	 dl, -22			; ffffffeaH
  00059	88 55 e3	 mov	 BYTE PTR __k$[ebp+3], dl
  0005c	8a 50 04	 mov	 dl, BYTE PTR [eax+4]
  0005f	84 d2		 test	 dl, dl
  00061	0f 84 e7 01 00
	00		 je	 $LN92@LoadInt_e@6
  00067	80 f2 ed	 xor	 dl, -19			; ffffffedH
  0006a	88 55 e4	 mov	 BYTE PTR __k$[ebp+4], dl
  0006d	8a 50 05	 mov	 dl, BYTE PTR [eax+5]
  00070	84 d2		 test	 dl, dl
  00072	0f 84 d1 01 00
	00		 je	 $LN91@LoadInt_e@6
  00078	32 d3		 xor	 dl, bl
  0007a	88 55 e5	 mov	 BYTE PTR __k$[ebp+5], dl
  0007d	8a 50 06	 mov	 dl, BYTE PTR [eax+6]
  00080	84 d2		 test	 dl, dl
  00082	0f 84 bc 01 00
	00		 je	 $LN90@LoadInt_e@6
  00088	32 d1		 xor	 dl, cl
  0008a	88 55 e6	 mov	 BYTE PTR __k$[ebp+6], dl
  0008d	8a 50 07	 mov	 dl, BYTE PTR [eax+7]
  00090	84 d2		 test	 dl, dl
  00092	0f 84 a6 01 00
	00		 je	 $LN89@LoadInt_e@6
  00098	80 f2 ea	 xor	 dl, -22			; ffffffeaH
  0009b	88 55 e7	 mov	 BYTE PTR __k$[ebp+7], dl
  0009e	8a 50 08	 mov	 dl, BYTE PTR [eax+8]
  000a1	84 d2		 test	 dl, dl
  000a3	0f 84 8f 01 00
	00		 je	 $LN88@LoadInt_e@6
  000a9	80 f2 ed	 xor	 dl, -19			; ffffffedH
  000ac	88 55 e8	 mov	 BYTE PTR __k$[ebp+8], dl
  000af	8a 50 09	 mov	 dl, BYTE PTR [eax+9]
  000b2	84 d2		 test	 dl, dl
  000b4	0f 84 79 01 00
	00		 je	 $LN87@LoadInt_e@6
  000ba	32 d3		 xor	 dl, bl
  000bc	88 55 e9	 mov	 BYTE PTR __k$[ebp+9], dl
  000bf	8a 50 0a	 mov	 dl, BYTE PTR [eax+10]
  000c2	84 d2		 test	 dl, dl
  000c4	0f 84 64 01 00
	00		 je	 $LN86@LoadInt_e@6
  000ca	32 d1		 xor	 dl, cl
  000cc	88 55 ea	 mov	 BYTE PTR __k$[ebp+10], dl
  000cf	8a 50 0b	 mov	 dl, BYTE PTR [eax+11]
  000d2	84 d2		 test	 dl, dl
  000d4	0f 84 4e 01 00
	00		 je	 $LN85@LoadInt_e@6
  000da	80 f2 ea	 xor	 dl, -22			; ffffffeaH
  000dd	88 55 eb	 mov	 BYTE PTR __k$[ebp+11], dl
  000e0	8a 50 0c	 mov	 dl, BYTE PTR [eax+12]
  000e3	84 d2		 test	 dl, dl
  000e5	0f 84 37 01 00
	00		 je	 $LN84@LoadInt_e@6
  000eb	80 f2 ed	 xor	 dl, -19			; ffffffedH
  000ee	88 55 ec	 mov	 BYTE PTR __k$[ebp+12], dl
  000f1	8a 50 0d	 mov	 dl, BYTE PTR [eax+13]
  000f4	84 d2		 test	 dl, dl
  000f6	0f 84 21 01 00
	00		 je	 $LN83@LoadInt_e@6
  000fc	32 d3		 xor	 dl, bl
  000fe	88 55 ed	 mov	 BYTE PTR __k$[ebp+13], dl
  00101	8a 50 0e	 mov	 dl, BYTE PTR [eax+14]
  00104	84 d2		 test	 dl, dl
  00106	0f 84 0c 01 00
	00		 je	 $LN82@LoadInt_e@6
  0010c	32 d1		 xor	 dl, cl
  0010e	88 55 ee	 mov	 BYTE PTR __k$[ebp+14], dl
  00111	8a 50 0f	 mov	 dl, BYTE PTR [eax+15]
  00114	84 d2		 test	 dl, dl
  00116	0f 84 f6 00 00
	00		 je	 $LN81@LoadInt_e@6
  0011c	80 f2 ea	 xor	 dl, -22			; ffffffeaH
  0011f	88 55 ef	 mov	 BYTE PTR __k$[ebp+15], dl
  00122	8a 50 10	 mov	 dl, BYTE PTR [eax+16]
  00125	84 d2		 test	 dl, dl
  00127	0f 84 df 00 00
	00		 je	 $LN80@LoadInt_e@6
  0012d	80 f2 ed	 xor	 dl, -19			; ffffffedH
  00130	88 55 f0	 mov	 BYTE PTR __k$[ebp+16], dl
  00133	8a 50 11	 mov	 dl, BYTE PTR [eax+17]
  00136	84 d2		 test	 dl, dl
  00138	0f 84 c9 00 00
	00		 je	 $LN79@LoadInt_e@6
  0013e	32 d3		 xor	 dl, bl
  00140	88 55 f1	 mov	 BYTE PTR __k$[ebp+17], dl
  00143	8a 50 12	 mov	 dl, BYTE PTR [eax+18]
  00146	84 d2		 test	 dl, dl
  00148	0f 84 b4 00 00
	00		 je	 $LN78@LoadInt_e@6
  0014e	32 d1		 xor	 dl, cl
  00150	88 55 f2	 mov	 BYTE PTR __k$[ebp+18], dl
  00153	8a 50 13	 mov	 dl, BYTE PTR [eax+19]
  00156	84 d2		 test	 dl, dl
  00158	0f 84 9e 00 00
	00		 je	 $LN77@LoadInt_e@6
  0015e	80 f2 ea	 xor	 dl, -22			; ffffffeaH
  00161	88 55 f3	 mov	 BYTE PTR __k$[ebp+19], dl
  00164	8a 50 14	 mov	 dl, BYTE PTR [eax+20]
  00167	84 d2		 test	 dl, dl
  00169	0f 84 87 00 00
	00		 je	 $LN76@LoadInt_e@6
  0016f	80 f2 ed	 xor	 dl, -19			; ffffffedH
  00172	88 55 f4	 mov	 BYTE PTR __k$[ebp+20], dl
  00175	8a 50 15	 mov	 dl, BYTE PTR [eax+21]
  00178	84 d2		 test	 dl, dl
  0017a	74 75		 je	 SHORT $LN75@LoadInt_e@6
  0017c	32 d3		 xor	 dl, bl
  0017e	88 55 f5	 mov	 BYTE PTR __k$[ebp+21], dl
  00181	8a 50 16	 mov	 dl, BYTE PTR [eax+22]
  00184	84 d2		 test	 dl, dl
  00186	74 64		 je	 SHORT $LN74@LoadInt_e@6
  00188	32 d1		 xor	 dl, cl
  0018a	80 78 17 00	 cmp	 BYTE PTR [eax+23], 0
  0018e	88 55 f6	 mov	 BYTE PTR __k$[ebp+22], dl
  00191	0f 84 d3 00 00
	00		 je	 $LN1@LoadInt_e@6
  00197	8a 50 18	 mov	 dl, BYTE PTR [eax+24]
  0019a	84 d2		 test	 dl, dl
  0019c	74 48		 je	 SHORT $LN72@LoadInt_e@6
  0019e	80 f2 ed	 xor	 dl, -19			; ffffffedH
  001a1	88 55 f8	 mov	 BYTE PTR __k$[ebp+24], dl
  001a4	8a 50 19	 mov	 dl, BYTE PTR [eax+25]
  001a7	84 d2		 test	 dl, dl
  001a9	74 33		 je	 SHORT $LN71@LoadInt_e@6
  001ab	32 d3		 xor	 dl, bl
  001ad	88 55 f9	 mov	 BYTE PTR __k$[ebp+25], dl
  001b0	8a 50 1a	 mov	 dl, BYTE PTR [eax+26]
  001b3	84 d2		 test	 dl, dl
  001b5	74 1f		 je	 SHORT $LN70@LoadInt_e@6
  001b7	8a 40 1b	 mov	 al, BYTE PTR [eax+27]
  001ba	32 d1		 xor	 dl, cl
  001bc	88 55 fa	 mov	 BYTE PTR __k$[ebp+26], dl
  001bf	84 c0		 test	 al, al
  001c1	74 0a		 je	 SHORT $LN69@LoadInt_e@6
  001c3	34 ea		 xor	 al, -22			; ffffffeaH
  001c5	88 45 fb	 mov	 BYTE PTR __k$[ebp+27], al
  001c8	e9 9d 00 00 00	 jmp	 $LN1@LoadInt_e@6
$LN69@LoadInt_e@6:
  001cd	c6 45 fb ea	 mov	 BYTE PTR __k$[ebp+27], -22 ; ffffffeaH
  001d1	e9 94 00 00 00	 jmp	 $LN1@LoadInt_e@6
$LN70@LoadInt_e@6:
  001d6	88 4d fa	 mov	 BYTE PTR __k$[ebp+26], cl
  001d9	e9 8c 00 00 00	 jmp	 $LN1@LoadInt_e@6
$LN71@LoadInt_e@6:
  001de	88 5d f9	 mov	 BYTE PTR __k$[ebp+25], bl
  001e1	e9 84 00 00 00	 jmp	 $LN1@LoadInt_e@6
$LN72@LoadInt_e@6:
  001e6	c6 45 f8 ed	 mov	 BYTE PTR __k$[ebp+24], -19 ; ffffffedH
  001ea	eb 7e		 jmp	 SHORT $LN1@LoadInt_e@6
$LN74@LoadInt_e@6:
  001ec	88 4d f6	 mov	 BYTE PTR __k$[ebp+22], cl
  001ef	eb 79		 jmp	 SHORT $LN1@LoadInt_e@6
$LN75@LoadInt_e@6:
  001f1	88 5d f5	 mov	 BYTE PTR __k$[ebp+21], bl
  001f4	eb 74		 jmp	 SHORT $LN1@LoadInt_e@6
$LN76@LoadInt_e@6:
  001f6	c6 45 f4 ed	 mov	 BYTE PTR __k$[ebp+20], -19 ; ffffffedH
  001fa	eb 6e		 jmp	 SHORT $LN1@LoadInt_e@6
$LN77@LoadInt_e@6:
  001fc	c6 45 f3 ea	 mov	 BYTE PTR __k$[ebp+19], -22 ; ffffffeaH
  00200	eb 68		 jmp	 SHORT $LN1@LoadInt_e@6
$LN78@LoadInt_e@6:
  00202	88 4d f2	 mov	 BYTE PTR __k$[ebp+18], cl
  00205	eb 63		 jmp	 SHORT $LN1@LoadInt_e@6
$LN79@LoadInt_e@6:
  00207	88 5d f1	 mov	 BYTE PTR __k$[ebp+17], bl
  0020a	eb 5e		 jmp	 SHORT $LN1@LoadInt_e@6
$LN80@LoadInt_e@6:
  0020c	c6 45 f0 ed	 mov	 BYTE PTR __k$[ebp+16], -19 ; ffffffedH
  00210	eb 58		 jmp	 SHORT $LN1@LoadInt_e@6
$LN81@LoadInt_e@6:
  00212	c6 45 ef ea	 mov	 BYTE PTR __k$[ebp+15], -22 ; ffffffeaH
  00216	eb 52		 jmp	 SHORT $LN1@LoadInt_e@6
$LN82@LoadInt_e@6:
  00218	88 4d ee	 mov	 BYTE PTR __k$[ebp+14], cl
  0021b	eb 4d		 jmp	 SHORT $LN1@LoadInt_e@6
$LN83@LoadInt_e@6:
  0021d	88 5d ed	 mov	 BYTE PTR __k$[ebp+13], bl
  00220	eb 48		 jmp	 SHORT $LN1@LoadInt_e@6
$LN84@LoadInt_e@6:
  00222	c6 45 ec ed	 mov	 BYTE PTR __k$[ebp+12], -19 ; ffffffedH
  00226	eb 42		 jmp	 SHORT $LN1@LoadInt_e@6
$LN85@LoadInt_e@6:
  00228	c6 45 eb ea	 mov	 BYTE PTR __k$[ebp+11], -22 ; ffffffeaH
  0022c	eb 3c		 jmp	 SHORT $LN1@LoadInt_e@6
$LN86@LoadInt_e@6:
  0022e	88 4d ea	 mov	 BYTE PTR __k$[ebp+10], cl
  00231	eb 37		 jmp	 SHORT $LN1@LoadInt_e@6
$LN87@LoadInt_e@6:
  00233	88 5d e9	 mov	 BYTE PTR __k$[ebp+9], bl
  00236	eb 32		 jmp	 SHORT $LN1@LoadInt_e@6
$LN88@LoadInt_e@6:
  00238	c6 45 e8 ed	 mov	 BYTE PTR __k$[ebp+8], -19 ; ffffffedH
  0023c	eb 2c		 jmp	 SHORT $LN1@LoadInt_e@6
$LN89@LoadInt_e@6:
  0023e	c6 45 e7 ea	 mov	 BYTE PTR __k$[ebp+7], -22 ; ffffffeaH
  00242	eb 26		 jmp	 SHORT $LN1@LoadInt_e@6
$LN90@LoadInt_e@6:
  00244	88 4d e6	 mov	 BYTE PTR __k$[ebp+6], cl
  00247	eb 21		 jmp	 SHORT $LN1@LoadInt_e@6
$LN91@LoadInt_e@6:
  00249	88 5d e5	 mov	 BYTE PTR __k$[ebp+5], bl
  0024c	eb 1c		 jmp	 SHORT $LN1@LoadInt_e@6
$LN92@LoadInt_e@6:
  0024e	c6 45 e4 ed	 mov	 BYTE PTR __k$[ebp+4], -19 ; ffffffedH
  00252	eb 16		 jmp	 SHORT $LN1@LoadInt_e@6
$LN93@LoadInt_e@6:
  00254	c6 45 e3 ea	 mov	 BYTE PTR __k$[ebp+3], -22 ; ffffffeaH
  00258	eb 10		 jmp	 SHORT $LN1@LoadInt_e@6
$LN94@LoadInt_e@6:
  0025a	c6 45 e2 eb	 mov	 BYTE PTR __k$[ebp+2], -21 ; ffffffebH
  0025e	eb 0a		 jmp	 SHORT $LN1@LoadInt_e@6
$LN95@LoadInt_e@6:
  00260	c6 45 e1 ec	 mov	 BYTE PTR __k$[ebp+1], -20 ; ffffffecH
  00264	eb 04		 jmp	 SHORT $LN1@LoadInt_e@6
$LN96@LoadInt_e@6:
  00266	c6 45 e0 ed	 mov	 BYTE PTR __k$[ebp], -19	; ffffffedH
$LN1@LoadInt_e@6:
  0026a	6a 05		 push	 5
  0026c	8d 45 e0	 lea	 eax, DWORD PTR __k$[ebp]
  0026f	c6 45 f7 00	 mov	 BYTE PTR __k$[ebp+23], 0
  00273	5a		 pop	 edx
$LL104@LoadInt_e@6:
  00274	81 30 ed ec eb
	ea		 xor	 DWORD PTR [eax], -353637139 ; eaebecedH
  0027a	83 c0 04	 add	 eax, 4
  0027d	4a		 dec	 edx
  0027e	75 f4		 jne	 SHORT $LL104@LoadInt_e@6
  00280	6a 14		 push	 20			; 00000014H
  00282	58		 pop	 eax
$LL101@LoadInt_e@6:
  00283	8b c8		 mov	 ecx, eax
  00285	81 e1 03 00 00
	80		 and	 ecx, -2147483645	; 80000003H
  0028b	79 05		 jns	 SHORT $LN111@LoadInt_e@6
  0028d	49		 dec	 ecx
  0028e	83 c9 fc	 or	 ecx, -4			; fffffffcH
  00291	41		 inc	 ecx
$LN111@LoadInt_e@6:
  00292	b2 ed		 mov	 dl, -19			; ffffffedH
  00294	2a d1		 sub	 dl, cl
  00296	30 54 05 e0	 xor	 BYTE PTR __k$[ebp+eax], dl
  0029a	40		 inc	 eax
  0029b	83 f8 17	 cmp	 eax, 23			; 00000017H
  0029e	7c e3		 jl	 SHORT $LL101@LoadInt_e@6

; 120  : 		return LoadInt(_k, i);

  002a0	ff 75 0c	 push	 DWORD PTR _i$[ebp]
  002a3	8d 45 e0	 lea	 eax, DWORD PTR __k$[ebp]
  002a6	50		 push	 eax
  002a7	8b ce		 mov	 ecx, esi
  002a9	ff 15 00 00 00
	00		 call	 DWORD PTR __imp_?LoadInt@ioINILoader@@QAEHPBDH@Z

; 121  : 	}

  002af	8b 4d fc	 mov	 ecx, DWORD PTR __$ArrayPad$[ebp]
  002b2	5e		 pop	 esi
  002b3	33 cd		 xor	 ecx, ebp
  002b5	5b		 pop	 ebx
  002b6	e8 00 00 00 00	 call	 @__security_check_cookie@4
  002bb	c9		 leave
  002bc	c2 08 00	 ret	 8
??$LoadInt_e@$0BI@@ioINILoader@@QAEHAAY0BI@$$CBDH@Z ENDP ; ioINILoader::LoadInt_e<24>
_TEXT	ENDS
PUBLIC	__$ArrayPad$
PUBLIC	??$LoadInt_e@$0BJ@@ioINILoader@@QAEHAAY0BJ@$$CBDH@Z ; ioINILoader::LoadInt_e<25>
; Function compile flags: /Ogsp
;	COMDAT ??$LoadInt_e@$0BJ@@ioINILoader@@QAEHAAY0BJ@$$CBDH@Z
_TEXT	SEGMENT
__k$ = -36						; size = 25
__$ArrayPad$ = -4					; size = 4
_k$ = 8							; size = 4
_i$ = 12						; size = 4
??$LoadInt_e@$0BJ@@ioINILoader@@QAEHAAY0BJ@$$CBDH@Z PROC ; ioINILoader::LoadInt_e<25>, COMDAT
; _this$ = ecx

; 118  : 	{

  00000	55		 push	 ebp
  00001	8b ec		 mov	 ebp, esp
  00003	83 ec 24	 sub	 esp, 36			; 00000024H
  00006	a1 00 00 00 00	 mov	 eax, DWORD PTR ___security_cookie
  0000b	33 c5		 xor	 eax, ebp
  0000d	89 45 fc	 mov	 DWORD PTR __$ArrayPad$[ebp], eax
  00010	8b 45 08	 mov	 eax, DWORD PTR _k$[ebp]

; 119  : 		_ENCSTR(k, _k);

  00013	8a 10		 mov	 dl, BYTE PTR [eax]
  00015	53		 push	 ebx
  00016	56		 push	 esi
  00017	8b f1		 mov	 esi, ecx
  00019	84 d2		 test	 dl, dl
  0001b	0f 84 5f 02 00
	00		 je	 $LN96@LoadInt_e@7
  00021	80 f2 ed	 xor	 dl, -19			; ffffffedH
  00024	88 55 dc	 mov	 BYTE PTR __k$[ebp], dl
  00027	8a 50 01	 mov	 dl, BYTE PTR [eax+1]
  0002a	84 d2		 test	 dl, dl
  0002c	0f 84 48 02 00
	00		 je	 $LN95@LoadInt_e@7
  00032	b1 ec		 mov	 cl, -20			; ffffffecH
  00034	32 d1		 xor	 dl, cl
  00036	88 55 dd	 mov	 BYTE PTR __k$[ebp+1], dl
  00039	8a 50 02	 mov	 dl, BYTE PTR [eax+2]
  0003c	84 d2		 test	 dl, dl
  0003e	0f 84 30 02 00
	00		 je	 $LN94@LoadInt_e@7
  00044	b3 eb		 mov	 bl, -21			; ffffffebH
  00046	32 d3		 xor	 dl, bl
  00048	88 55 de	 mov	 BYTE PTR __k$[ebp+2], dl
  0004b	8a 50 03	 mov	 dl, BYTE PTR [eax+3]
  0004e	84 d2		 test	 dl, dl
  00050	0f 84 18 02 00
	00		 je	 $LN93@LoadInt_e@7
  00056	80 f2 ea	 xor	 dl, -22			; ffffffeaH
  00059	88 55 df	 mov	 BYTE PTR __k$[ebp+3], dl
  0005c	8a 50 04	 mov	 dl, BYTE PTR [eax+4]
  0005f	84 d2		 test	 dl, dl
  00061	0f 84 01 02 00
	00		 je	 $LN92@LoadInt_e@7
  00067	80 f2 ed	 xor	 dl, -19			; ffffffedH
  0006a	88 55 e0	 mov	 BYTE PTR __k$[ebp+4], dl
  0006d	8a 50 05	 mov	 dl, BYTE PTR [eax+5]
  00070	84 d2		 test	 dl, dl
  00072	0f 84 eb 01 00
	00		 je	 $LN91@LoadInt_e@7
  00078	32 d1		 xor	 dl, cl
  0007a	88 55 e1	 mov	 BYTE PTR __k$[ebp+5], dl
  0007d	8a 50 06	 mov	 dl, BYTE PTR [eax+6]
  00080	84 d2		 test	 dl, dl
  00082	0f 84 d6 01 00
	00		 je	 $LN90@LoadInt_e@7
  00088	32 d3		 xor	 dl, bl
  0008a	88 55 e2	 mov	 BYTE PTR __k$[ebp+6], dl
  0008d	8a 50 07	 mov	 dl, BYTE PTR [eax+7]
  00090	84 d2		 test	 dl, dl
  00092	0f 84 c0 01 00
	00		 je	 $LN89@LoadInt_e@7
  00098	80 f2 ea	 xor	 dl, -22			; ffffffeaH
  0009b	88 55 e3	 mov	 BYTE PTR __k$[ebp+7], dl
  0009e	8a 50 08	 mov	 dl, BYTE PTR [eax+8]
  000a1	84 d2		 test	 dl, dl
  000a3	0f 84 a9 01 00
	00		 je	 $LN88@LoadInt_e@7
  000a9	80 f2 ed	 xor	 dl, -19			; ffffffedH
  000ac	88 55 e4	 mov	 BYTE PTR __k$[ebp+8], dl
  000af	8a 50 09	 mov	 dl, BYTE PTR [eax+9]
  000b2	84 d2		 test	 dl, dl
  000b4	0f 84 93 01 00
	00		 je	 $LN87@LoadInt_e@7
  000ba	32 d1		 xor	 dl, cl
  000bc	88 55 e5	 mov	 BYTE PTR __k$[ebp+9], dl
  000bf	8a 50 0a	 mov	 dl, BYTE PTR [eax+10]
  000c2	84 d2		 test	 dl, dl
  000c4	0f 84 7e 01 00
	00		 je	 $LN86@LoadInt_e@7
  000ca	32 d3		 xor	 dl, bl
  000cc	88 55 e6	 mov	 BYTE PTR __k$[ebp+10], dl
  000cf	8a 50 0b	 mov	 dl, BYTE PTR [eax+11]
  000d2	84 d2		 test	 dl, dl
  000d4	0f 84 68 01 00
	00		 je	 $LN85@LoadInt_e@7
  000da	80 f2 ea	 xor	 dl, -22			; ffffffeaH
  000dd	88 55 e7	 mov	 BYTE PTR __k$[ebp+11], dl
  000e0	8a 50 0c	 mov	 dl, BYTE PTR [eax+12]
  000e3	84 d2		 test	 dl, dl
  000e5	0f 84 51 01 00
	00		 je	 $LN84@LoadInt_e@7
  000eb	80 f2 ed	 xor	 dl, -19			; ffffffedH
  000ee	88 55 e8	 mov	 BYTE PTR __k$[ebp+12], dl
  000f1	8a 50 0d	 mov	 dl, BYTE PTR [eax+13]
  000f4	84 d2		 test	 dl, dl
  000f6	0f 84 3b 01 00
	00		 je	 $LN83@LoadInt_e@7
  000fc	32 d1		 xor	 dl, cl
  000fe	88 55 e9	 mov	 BYTE PTR __k$[ebp+13], dl
  00101	8a 50 0e	 mov	 dl, BYTE PTR [eax+14]
  00104	84 d2		 test	 dl, dl
  00106	0f 84 26 01 00
	00		 je	 $LN82@LoadInt_e@7
  0010c	32 d3		 xor	 dl, bl
  0010e	88 55 ea	 mov	 BYTE PTR __k$[ebp+14], dl
  00111	8a 50 0f	 mov	 dl, BYTE PTR [eax+15]
  00114	84 d2		 test	 dl, dl
  00116	0f 84 10 01 00
	00		 je	 $LN81@LoadInt_e@7
  0011c	80 f2 ea	 xor	 dl, -22			; ffffffeaH
  0011f	88 55 eb	 mov	 BYTE PTR __k$[ebp+15], dl
  00122	8a 50 10	 mov	 dl, BYTE PTR [eax+16]
  00125	84 d2		 test	 dl, dl
  00127	0f 84 f9 00 00
	00		 je	 $LN80@LoadInt_e@7
  0012d	80 f2 ed	 xor	 dl, -19			; ffffffedH
  00130	88 55 ec	 mov	 BYTE PTR __k$[ebp+16], dl
  00133	8a 50 11	 mov	 dl, BYTE PTR [eax+17]
  00136	84 d2		 test	 dl, dl
  00138	0f 84 e3 00 00
	00		 je	 $LN79@LoadInt_e@7
  0013e	32 d1		 xor	 dl, cl
  00140	88 55 ed	 mov	 BYTE PTR __k$[ebp+17], dl
  00143	8a 50 12	 mov	 dl, BYTE PTR [eax+18]
  00146	84 d2		 test	 dl, dl
  00148	0f 84 ce 00 00
	00		 je	 $LN78@LoadInt_e@7
  0014e	32 d3		 xor	 dl, bl
  00150	88 55 ee	 mov	 BYTE PTR __k$[ebp+18], dl
  00153	8a 50 13	 mov	 dl, BYTE PTR [eax+19]
  00156	84 d2		 test	 dl, dl
  00158	0f 84 b8 00 00
	00		 je	 $LN77@LoadInt_e@7
  0015e	80 f2 ea	 xor	 dl, -22			; ffffffeaH
  00161	88 55 ef	 mov	 BYTE PTR __k$[ebp+19], dl
  00164	8a 50 14	 mov	 dl, BYTE PTR [eax+20]
  00167	84 d2		 test	 dl, dl
  00169	0f 84 a1 00 00
	00		 je	 $LN76@LoadInt_e@7
  0016f	80 f2 ed	 xor	 dl, -19			; ffffffedH
  00172	88 55 f0	 mov	 BYTE PTR __k$[ebp+20], dl
  00175	8a 50 15	 mov	 dl, BYTE PTR [eax+21]
  00178	84 d2		 test	 dl, dl
  0017a	0f 84 8b 00 00
	00		 je	 $LN75@LoadInt_e@7
  00180	32 d1		 xor	 dl, cl
  00182	88 55 f1	 mov	 BYTE PTR __k$[ebp+21], dl
  00185	8a 50 16	 mov	 dl, BYTE PTR [eax+22]
  00188	84 d2		 test	 dl, dl
  0018a	74 7a		 je	 SHORT $LN74@LoadInt_e@7
  0018c	32 d3		 xor	 dl, bl
  0018e	88 55 f2	 mov	 BYTE PTR __k$[ebp+22], dl
  00191	8a 50 17	 mov	 dl, BYTE PTR [eax+23]
  00194	84 d2		 test	 dl, dl
  00196	74 68		 je	 SHORT $LN73@LoadInt_e@7
  00198	80 f2 ea	 xor	 dl, -22			; ffffffeaH
  0019b	80 78 18 00	 cmp	 BYTE PTR [eax+24], 0
  0019f	88 55 f3	 mov	 BYTE PTR __k$[ebp+23], dl
  001a2	0f 84 dc 00 00
	00		 je	 $LN1@LoadInt_e@7
  001a8	8a 50 19	 mov	 dl, BYTE PTR [eax+25]
  001ab	84 d2		 test	 dl, dl
  001ad	74 49		 je	 SHORT $LN71@LoadInt_e@7
  001af	32 d1		 xor	 dl, cl
  001b1	88 55 f5	 mov	 BYTE PTR __k$[ebp+25], dl
  001b4	8a 50 1a	 mov	 dl, BYTE PTR [eax+26]
  001b7	84 d2		 test	 dl, dl
  001b9	74 35		 je	 SHORT $LN70@LoadInt_e@7
  001bb	32 d3		 xor	 dl, bl
  001bd	88 55 f6	 mov	 BYTE PTR __k$[ebp+26], dl
  001c0	8a 50 1b	 mov	 dl, BYTE PTR [eax+27]
  001c3	84 d2		 test	 dl, dl
  001c5	74 20		 je	 SHORT $LN69@LoadInt_e@7
  001c7	8a 40 1c	 mov	 al, BYTE PTR [eax+28]
  001ca	80 f2 ea	 xor	 dl, -22			; ffffffeaH
  001cd	88 55 f7	 mov	 BYTE PTR __k$[ebp+27], dl
  001d0	84 c0		 test	 al, al
  001d2	74 0a		 je	 SHORT $LN68@LoadInt_e@7
  001d4	34 ed		 xor	 al, -19			; ffffffedH
  001d6	88 45 f8	 mov	 BYTE PTR __k$[ebp+28], al
  001d9	e9 a6 00 00 00	 jmp	 $LN1@LoadInt_e@7
$LN68@LoadInt_e@7:
  001de	c6 45 f8 ed	 mov	 BYTE PTR __k$[ebp+28], -19 ; ffffffedH
  001e2	e9 9d 00 00 00	 jmp	 $LN1@LoadInt_e@7
$LN69@LoadInt_e@7:
  001e7	c6 45 f7 ea	 mov	 BYTE PTR __k$[ebp+27], -22 ; ffffffeaH
  001eb	e9 94 00 00 00	 jmp	 $LN1@LoadInt_e@7
$LN70@LoadInt_e@7:
  001f0	88 5d f6	 mov	 BYTE PTR __k$[ebp+26], bl
  001f3	e9 8c 00 00 00	 jmp	 $LN1@LoadInt_e@7
$LN71@LoadInt_e@7:
  001f8	88 4d f5	 mov	 BYTE PTR __k$[ebp+25], cl
  001fb	e9 84 00 00 00	 jmp	 $LN1@LoadInt_e@7
$LN73@LoadInt_e@7:
  00200	c6 45 f3 ea	 mov	 BYTE PTR __k$[ebp+23], -22 ; ffffffeaH
  00204	eb 7e		 jmp	 SHORT $LN1@LoadInt_e@7
$LN74@LoadInt_e@7:
  00206	88 5d f2	 mov	 BYTE PTR __k$[ebp+22], bl
  00209	eb 79		 jmp	 SHORT $LN1@LoadInt_e@7
$LN75@LoadInt_e@7:
  0020b	88 4d f1	 mov	 BYTE PTR __k$[ebp+21], cl
  0020e	eb 74		 jmp	 SHORT $LN1@LoadInt_e@7
$LN76@LoadInt_e@7:
  00210	c6 45 f0 ed	 mov	 BYTE PTR __k$[ebp+20], -19 ; ffffffedH
  00214	eb 6e		 jmp	 SHORT $LN1@LoadInt_e@7
$LN77@LoadInt_e@7:
  00216	c6 45 ef ea	 mov	 BYTE PTR __k$[ebp+19], -22 ; ffffffeaH
  0021a	eb 68		 jmp	 SHORT $LN1@LoadInt_e@7
$LN78@LoadInt_e@7:
  0021c	88 5d ee	 mov	 BYTE PTR __k$[ebp+18], bl
  0021f	eb 63		 jmp	 SHORT $LN1@LoadInt_e@7
$LN79@LoadInt_e@7:
  00221	88 4d ed	 mov	 BYTE PTR __k$[ebp+17], cl
  00224	eb 5e		 jmp	 SHORT $LN1@LoadInt_e@7
$LN80@LoadInt_e@7:
  00226	c6 45 ec ed	 mov	 BYTE PTR __k$[ebp+16], -19 ; ffffffedH
  0022a	eb 58		 jmp	 SHORT $LN1@LoadInt_e@7
$LN81@LoadInt_e@7:
  0022c	c6 45 eb ea	 mov	 BYTE PTR __k$[ebp+15], -22 ; ffffffeaH
  00230	eb 52		 jmp	 SHORT $LN1@LoadInt_e@7
$LN82@LoadInt_e@7:
  00232	88 5d ea	 mov	 BYTE PTR __k$[ebp+14], bl
  00235	eb 4d		 jmp	 SHORT $LN1@LoadInt_e@7
$LN83@LoadInt_e@7:
  00237	88 4d e9	 mov	 BYTE PTR __k$[ebp+13], cl
  0023a	eb 48		 jmp	 SHORT $LN1@LoadInt_e@7
$LN84@LoadInt_e@7:
  0023c	c6 45 e8 ed	 mov	 BYTE PTR __k$[ebp+12], -19 ; ffffffedH
  00240	eb 42		 jmp	 SHORT $LN1@LoadInt_e@7
$LN85@LoadInt_e@7:
  00242	c6 45 e7 ea	 mov	 BYTE PTR __k$[ebp+11], -22 ; ffffffeaH
  00246	eb 3c		 jmp	 SHORT $LN1@LoadInt_e@7
$LN86@LoadInt_e@7:
  00248	88 5d e6	 mov	 BYTE PTR __k$[ebp+10], bl
  0024b	eb 37		 jmp	 SHORT $LN1@LoadInt_e@7
$LN87@LoadInt_e@7:
  0024d	88 4d e5	 mov	 BYTE PTR __k$[ebp+9], cl
  00250	eb 32		 jmp	 SHORT $LN1@LoadInt_e@7
$LN88@LoadInt_e@7:
  00252	c6 45 e4 ed	 mov	 BYTE PTR __k$[ebp+8], -19 ; ffffffedH
  00256	eb 2c		 jmp	 SHORT $LN1@LoadInt_e@7
$LN89@LoadInt_e@7:
  00258	c6 45 e3 ea	 mov	 BYTE PTR __k$[ebp+7], -22 ; ffffffeaH
  0025c	eb 26		 jmp	 SHORT $LN1@LoadInt_e@7
$LN90@LoadInt_e@7:
  0025e	88 5d e2	 mov	 BYTE PTR __k$[ebp+6], bl
  00261	eb 21		 jmp	 SHORT $LN1@LoadInt_e@7
$LN91@LoadInt_e@7:
  00263	88 4d e1	 mov	 BYTE PTR __k$[ebp+5], cl
  00266	eb 1c		 jmp	 SHORT $LN1@LoadInt_e@7
$LN92@LoadInt_e@7:
  00268	c6 45 e0 ed	 mov	 BYTE PTR __k$[ebp+4], -19 ; ffffffedH
  0026c	eb 16		 jmp	 SHORT $LN1@LoadInt_e@7
$LN93@LoadInt_e@7:
  0026e	c6 45 df ea	 mov	 BYTE PTR __k$[ebp+3], -22 ; ffffffeaH
  00272	eb 10		 jmp	 SHORT $LN1@LoadInt_e@7
$LN94@LoadInt_e@7:
  00274	c6 45 de eb	 mov	 BYTE PTR __k$[ebp+2], -21 ; ffffffebH
  00278	eb 0a		 jmp	 SHORT $LN1@LoadInt_e@7
$LN95@LoadInt_e@7:
  0027a	c6 45 dd ec	 mov	 BYTE PTR __k$[ebp+1], -20 ; ffffffecH
  0027e	eb 04		 jmp	 SHORT $LN1@LoadInt_e@7
$LN96@LoadInt_e@7:
  00280	c6 45 dc ed	 mov	 BYTE PTR __k$[ebp], -19	; ffffffedH
$LN1@LoadInt_e@7:
  00284	6a 06		 push	 6
  00286	8d 45 dc	 lea	 eax, DWORD PTR __k$[ebp]
  00289	c6 45 f4 00	 mov	 BYTE PTR __k$[ebp+24], 0
  0028d	5a		 pop	 edx
$LL104@LoadInt_e@7:
  0028e	81 30 ed ec eb
	ea		 xor	 DWORD PTR [eax], -353637139 ; eaebecedH
  00294	83 c0 04	 add	 eax, 4
  00297	4a		 dec	 edx
  00298	75 f4		 jne	 SHORT $LL104@LoadInt_e@7

; 120  : 		return LoadInt(_k, i);

  0029a	ff 75 0c	 push	 DWORD PTR _i$[ebp]
  0029d	8d 45 dc	 lea	 eax, DWORD PTR __k$[ebp]
  002a0	50		 push	 eax
  002a1	8b ce		 mov	 ecx, esi
  002a3	ff 15 00 00 00
	00		 call	 DWORD PTR __imp_?LoadInt@ioINILoader@@QAEHPBDH@Z

; 121  : 	}

  002a9	8b 4d fc	 mov	 ecx, DWORD PTR __$ArrayPad$[ebp]
  002ac	5e		 pop	 esi
  002ad	33 cd		 xor	 ecx, ebp
  002af	5b		 pop	 ebx
  002b0	e8 00 00 00 00	 call	 @__security_check_cookie@4
  002b5	c9		 leave
  002b6	c2 08 00	 ret	 8
??$LoadInt_e@$0BJ@@ioINILoader@@QAEHAAY0BJ@$$CBDH@Z ENDP ; ioINILoader::LoadInt_e<25>
_TEXT	ENDS
PUBLIC	__real@3fd2ee0d320154cb
PUBLIC	__real@41f0000000000000
PUBLIC	??$RADtoDEG@M@@YAMM@Z				; RADtoDEG<float>
;	COMDAT __real@3fd2ee0d320154cb
; File d:\lost saga for developer\youtube\tutorial\source\src\lsclient\veryoftenusedefine.h
CONST	SEGMENT
__real@3fd2ee0d320154cb DQ 03fd2ee0d320154cbr	; 0.29578
CONST	ENDS
;	COMDAT __real@41f0000000000000
CONST	SEGMENT
__real@41f0000000000000 DQ 041f0000000000000r	; 4.29497e+009
; Function compile flags: /Ogsp
CONST	ENDS
;	COMDAT ??$RADtoDEG@M@@YAMM@Z
_TEXT	SEGMENT
tv130 = -4						; size = 4
tv75 = 8						; size = 4
_val$ = 8						; size = 4
??$RADtoDEG@M@@YAMM@Z PROC				; RADtoDEG<float>, COMDAT

; 18   : type  RADtoDEG (type val) {return (type) (val * (return57() + 0.2957795132)); }

  00000	55		 push	 ebp
  00001	8b ec		 mov	 ebp, esp
  00003	51		 push	 ecx
  00004	b8 39 00 00 00	 mov	 eax, 57			; 00000039H
  00009	89 45 fc	 mov	 DWORD PTR tv130[ebp], eax
  0000c	db 45 fc	 fild	 DWORD PTR tv130[ebp]
  0000f	85 c0		 test	 eax, eax
  00011	79 06		 jns	 SHORT $LN5@RADtoDEG
  00013	dc 05 00 00 00
	00		 fadd	 QWORD PTR __real@41f0000000000000
$LN5@RADtoDEG:
  00019	dc 05 00 00 00
	00		 fadd	 QWORD PTR __real@3fd2ee0d320154cb
  0001f	d8 4d 08	 fmul	 DWORD PTR _val$[ebp]
  00022	d9 5d 08	 fstp	 DWORD PTR tv75[ebp]
  00025	d9 45 08	 fld	 DWORD PTR tv75[ebp]
  00028	c9		 leave
  00029	c3		 ret	 0
??$RADtoDEG@M@@YAMM@Z ENDP				; RADtoDEG<float>
_TEXT	ENDS
PUBLIC	??$_Cons_val@V?$allocator@VioHashString@@@std@@VioHashString@@V3@@std@@YAXAAV?$allocator@VioHashString@@@0@PAVioHashString@@$$QAV2@@Z ; std::_Cons_val<std::allocator<ioHashString>,ioHashString,ioHashString>
; Function compile flags: /Ogsp
; File c:\program files (x86)\microsoft visual studio 10.0\vc\include\xmemory
;	COMDAT ??$_Cons_val@V?$allocator@VioHashString@@@std@@VioHashString@@V3@@std@@YAXAAV?$allocator@VioHashString@@@0@PAVioHashString@@$$QAV2@@Z
_TEXT	SEGMENT
__Alval$ = 8						; size = 4
__Pdest$ = 12						; size = 4
__Src$ = 16						; size = 4
??$_Cons_val@V?$allocator@VioHashString@@@std@@VioHashString@@V3@@std@@YAXAAV?$allocator@VioHashString@@@0@PAVioHashString@@$$QAV2@@Z PROC ; std::_Cons_val<std::allocator<ioHashString>,ioHashString,ioHashString>, COMDAT

; 279  : 	{	// construct using allocator

  00000	55		 push	 ebp
  00001	8b ec		 mov	 ebp, esp

; 280  : 	_Alval.construct(_Pdest, _STD forward<_Ty2>(_Src));

  00003	ff 75 10	 push	 DWORD PTR __Src$[ebp]
  00006	8b 4d 08	 mov	 ecx, DWORD PTR __Alval$[ebp]
  00009	ff 75 0c	 push	 DWORD PTR __Pdest$[ebp]
  0000c	e8 00 00 00 00	 call	 ?construct@?$allocator@VioHashString@@@std@@QAEXPAVioHashString@@$$QAV3@@Z ; std::allocator<ioHashString>::construct

; 281  : 	}

  00011	5d		 pop	 ebp
  00012	c3		 ret	 0
??$_Cons_val@V?$allocator@VioHashString@@@std@@VioHashString@@V3@@std@@YAXAAV?$allocator@VioHashString@@@0@PAVioHashString@@$$QAV2@@Z ENDP ; std::_Cons_val<std::allocator<ioHashString>,ioHashString,ioHashString>
_TEXT	ENDS
PUBLIC	??$_Construct@UBuffInfoStruct@@ABU1@@std@@YAXPAUBuffInfoStruct@@ABU1@@Z ; std::_Construct<BuffInfoStruct,BuffInfoStruct const &>
;	COMDAT xdata$x
; File c:\program files (x86)\microsoft visual studio 10.0\vc\include\vector
xdata$x	SEGMENT
__unwindtable$??$_Construct@UBuffInfoStruct@@ABU1@@std@@YAXPAUBuffInfoStruct@@ABU1@@Z DD 0ffffffffH
	DD	FLAT:__unwindfunclet$??$_Construct@UBuffInfoStruct@@ABU1@@std@@YAXPAUBuffInfoStruct@@ABU1@@Z$0
__ehfuncinfo$??$_Construct@UBuffInfoStruct@@ABU1@@std@@YAXPAUBuffInfoStruct@@ABU1@@Z DD 019930522H
	DD	01H
	DD	FLAT:__unwindtable$??$_Construct@UBuffInfoStruct@@ABU1@@std@@YAXPAUBuffInfoStruct@@ABU1@@Z
	DD	2 DUP(00H)
	DD	2 DUP(00H)
	DD	00H
	DD	01H
; Function compile flags: /Ogsp
; File c:\program files (x86)\microsoft visual studio 10.0\vc\include\xmemory
xdata$x	ENDS
;	COMDAT ??$_Construct@UBuffInfoStruct@@ABU1@@std@@YAXPAUBuffInfoStruct@@ABU1@@Z
_TEXT	SEGMENT
$T538263 = -16						; size = 4
__$EHRec$ = -12						; size = 12
__Vptr$ = 8						; size = 4
__Ptr$ = 8						; size = 4
__Val$ = 12						; size = 4
??$_Construct@UBuffInfoStruct@@ABU1@@std@@YAXPAUBuffInfoStruct@@ABU1@@Z PROC ; std::_Construct<BuffInfoStruct,BuffInfoStruct const &>, COMDAT

; 46   : 	{	// construct object at _Ptr with value _Val

  00000	6a 04		 push	 4
  00002	b8 00 00 00 00	 mov	 eax, __ehhandler$??$_Construct@UBuffInfoStruct@@ABU1@@std@@YAXPAUBuffInfoStruct@@ABU1@@Z
  00007	e8 00 00 00 00	 call	 __EH_prolog3

; 47   : 	void _FARQ *_Vptr = _Ptr;

  0000c	8b 75 08	 mov	 esi, DWORD PTR __Ptr$[ebp]
  0000f	89 75 08	 mov	 DWORD PTR __Vptr$[ebp], esi

; 48   : 	::new (_Vptr) _Ty1(_STD forward<_Ty2>(_Val));

  00012	89 75 f0	 mov	 DWORD PTR $T538263[ebp], esi
  00015	83 65 fc 00	 and	 DWORD PTR __$EHRec$[ebp+8], 0
  00019	85 f6		 test	 esi, esi
  0001b	74 12		 je	 SHORT $LN3@Construct
  0001d	8b 7d 0c	 mov	 edi, DWORD PTR __Val$[ebp]
  00020	57		 push	 edi
  00021	8b ce		 mov	 ecx, esi
  00023	ff 15 00 00 00
	00		 call	 DWORD PTR __imp_??0ioHashString@@QAE@ABV0@@Z
  00029	8b 47 10	 mov	 eax, DWORD PTR [edi+16]
  0002c	89 46 10	 mov	 DWORD PTR [esi+16], eax
$LN3@Construct:

; 49   : 	}

  0002f	e8 00 00 00 00	 call	 __EH_epilog3
  00034	c3		 ret	 0
_TEXT	ENDS
;	COMDAT text$x
text$x	SEGMENT
__unwindfunclet$??$_Construct@UBuffInfoStruct@@ABU1@@std@@YAXPAUBuffInfoStruct@@ABU1@@Z$0:
  00000	ff 75 08	 push	 DWORD PTR __Vptr$[ebp]
  00003	ff 75 f0	 push	 DWORD PTR $T538263[ebp]
  00006	e8 00 00 00 00	 call	 ??3@YAXPAX0@Z		; operator delete
  0000b	59		 pop	 ecx
  0000c	59		 pop	 ecx
  0000d	c3		 ret	 0
__ehhandler$??$_Construct@UBuffInfoStruct@@ABU1@@std@@YAXPAUBuffInfoStruct@@ABU1@@Z:
  0000e	8b 54 24 08	 mov	 edx, DWORD PTR [esp+8]
  00012	8d 42 0c	 lea	 eax, DWORD PTR [edx+12]
  00015	8b 4a ec	 mov	 ecx, DWORD PTR [edx-20]
  00018	33 c8		 xor	 ecx, eax
  0001a	e8 00 00 00 00	 call	 @__security_check_cookie@4
  0001f	b8 00 00 00 00	 mov	 eax, OFFSET __ehfuncinfo$??$_Construct@UBuffInfoStruct@@ABU1@@std@@YAXPAUBuffInfoStruct@@ABU1@@Z
  00024	e9 00 00 00 00	 jmp	 ___CxxFrameHandler3
text$x	ENDS
??$_Construct@UBuffInfoStruct@@ABU1@@std@@YAXPAUBuffInfoStruct@@ABU1@@Z ENDP ; std::_Construct<BuffInfoStruct,BuffInfoStruct const &>
PUBLIC	?construct@?$allocator@UBuffInfoStruct@@@std@@QAEXPAUBuffInfoStruct@@$$QAU3@@Z ; std::allocator<BuffInfoStruct>::construct
;	COMDAT xdata$x
; File c:\program files (x86)\microsoft visual studio 10.0\vc\include\vector
xdata$x	SEGMENT
__unwindtable$?construct@?$allocator@UBuffInfoStruct@@@std@@QAEXPAUBuffInfoStruct@@$$QAU3@@Z DD 0ffffffffH
	DD	FLAT:__unwindfunclet$?construct@?$allocator@UBuffInfoStruct@@@std@@QAEXPAUBuffInfoStruct@@$$QAU3@@Z$0
__ehfuncinfo$?construct@?$allocator@UBuffInfoStruct@@@std@@QAEXPAUBuffInfoStruct@@$$QAU3@@Z DD 019930522H
	DD	01H
	DD	FLAT:__unwindtable$?construct@?$allocator@UBuffInfoStruct@@@std@@QAEXPAUBuffInfoStruct@@$$QAU3@@Z
	DD	2 DUP(00H)
	DD	2 DUP(00H)
	DD	00H
	DD	01H
; Function compile flags: /Ogsp
; File c:\program files (x86)\microsoft visual studio 10.0\vc\include\xmemory
xdata$x	ENDS
;	COMDAT ?construct@?$allocator@UBuffInfoStruct@@@std@@QAEXPAUBuffInfoStruct@@$$QAU3@@Z
_TEXT	SEGMENT
$T538286 = -16						; size = 4
__$EHRec$ = -12						; size = 12
__Ptr$ = 8						; size = 4
__Val$ = 12						; size = 4
?construct@?$allocator@UBuffInfoStruct@@@std@@QAEXPAUBuffInfoStruct@@$$QAU3@@Z PROC ; std::allocator<BuffInfoStruct>::construct, COMDAT
; _this$ = ecx

; 201  : 		{	// construct object at _Ptr with value _Val

  00000	6a 04		 push	 4
  00002	b8 00 00 00 00	 mov	 eax, __ehhandler$?construct@?$allocator@UBuffInfoStruct@@@std@@QAEXPAUBuffInfoStruct@@$$QAU3@@Z
  00007	e8 00 00 00 00	 call	 __EH_prolog3

; 202  : 		::new ((void _FARQ *)_Ptr) _Ty(_STD forward<_Ty>(_Val));

  0000c	8b 75 08	 mov	 esi, DWORD PTR __Ptr$[ebp]
  0000f	89 75 f0	 mov	 DWORD PTR $T538286[ebp], esi
  00012	83 65 fc 00	 and	 DWORD PTR __$EHRec$[ebp+8], 0
  00016	85 f6		 test	 esi, esi
  00018	74 12		 je	 SHORT $LN3@construct@2
  0001a	8b 7d 0c	 mov	 edi, DWORD PTR __Val$[ebp]
  0001d	57		 push	 edi
  0001e	8b ce		 mov	 ecx, esi
  00020	ff 15 00 00 00
	00		 call	 DWORD PTR __imp_??0ioHashString@@QAE@ABV0@@Z
  00026	8b 47 10	 mov	 eax, DWORD PTR [edi+16]
  00029	89 46 10	 mov	 DWORD PTR [esi+16], eax
$LN3@construct@2:

; 203  : 		}

  0002c	e8 00 00 00 00	 call	 __EH_epilog3
  00031	c2 08 00	 ret	 8
_TEXT	ENDS
;	COMDAT text$x
text$x	SEGMENT
__unwindfunclet$?construct@?$allocator@UBuffInfoStruct@@@std@@QAEXPAUBuffInfoStruct@@$$QAU3@@Z$0:
  00000	ff 75 08	 push	 DWORD PTR __Ptr$[ebp]
  00003	ff 75 f0	 push	 DWORD PTR $T538286[ebp]
  00006	e8 00 00 00 00	 call	 ??3@YAXPAX0@Z		; operator delete
  0000b	59		 pop	 ecx
  0000c	59		 pop	 ecx
  0000d	c3		 ret	 0
__ehhandler$?construct@?$allocator@UBuffInfoStruct@@@std@@QAEXPAUBuffInfoStruct@@$$QAU3@@Z:
  0000e	8b 54 24 08	 mov	 edx, DWORD PTR [esp+8]
  00012	8d 42 0c	 lea	 eax, DWORD PTR [edx+12]
  00015	8b 4a ec	 mov	 ecx, DWORD PTR [edx-20]
  00018	33 c8		 xor	 ecx, eax
  0001a	e8 00 00 00 00	 call	 @__security_check_cookie@4
  0001f	b8 00 00 00 00	 mov	 eax, OFFSET __ehfuncinfo$?construct@?$allocator@UBuffInfoStruct@@@std@@QAEXPAUBuffInfoStruct@@$$QAU3@@Z
  00024	e9 00 00 00 00	 jmp	 ___CxxFrameHandler3
text$x	ENDS
?construct@?$allocator@UBuffInfoStruct@@@std@@QAEXPAUBuffInfoStruct@@$$QAU3@@Z ENDP ; std::allocator<BuffInfoStruct>::construct
PUBLIC	??0?$CEncrypt@M@@QAE@XZ				; CEncrypt<float>::CEncrypt<float>
EXTRN	??0ccddaabb@@QAE@XZ:PROC			; ccddaabb::ccddaabb
;	COMDAT xdata$x
; File d:\lost saga for developer\youtube\tutorial\source\src\lsclient\encryptvalue.h
xdata$x	SEGMENT
__unwindtable$??0?$CEncrypt@M@@QAE@XZ DD 0ffffffffH
	DD	FLAT:__unwindfunclet$??0?$CEncrypt@M@@QAE@XZ$0
__ehfuncinfo$??0?$CEncrypt@M@@QAE@XZ DD 019930522H
	DD	01H
	DD	FLAT:__unwindtable$??0?$CEncrypt@M@@QAE@XZ
	DD	2 DUP(00H)
	DD	2 DUP(00H)
	DD	00H
	DD	01H
; Function compile flags: /Ogsp
xdata$x	ENDS
;	COMDAT ??0?$CEncrypt@M@@QAE@XZ
_TEXT	SEGMENT
_this$ = -16						; size = 4
__$EHRec$ = -12						; size = 12
??0?$CEncrypt@M@@QAE@XZ PROC				; CEncrypt<float>::CEncrypt<float>, COMDAT
; _this$ = ecx

; 109  : 	CEncrypt()

  00000	6a 04		 push	 4
  00002	b8 00 00 00 00	 mov	 eax, __ehhandler$??0?$CEncrypt@M@@QAE@XZ
  00007	e8 00 00 00 00	 call	 __EH_prolog3
  0000c	8b f1		 mov	 esi, ecx
  0000e	89 75 f0	 mov	 DWORD PTR _this$[ebp], esi
  00011	8d 4e 0c	 lea	 ecx, DWORD PTR [esi+12]
  00014	c7 06 00 00 00
	00		 mov	 DWORD PTR [esi], OFFSET ??_7?$CEncrypt@M@@6B@
  0001a	e8 00 00 00 00	 call	 ??0ccddaabb@@QAE@XZ	; ccddaabb::ccddaabb
  0001f	83 65 fc 00	 and	 DWORD PTR __$EHRec$[ebp+8], 0

; 110  : 	{
; 111  : 		Init();

  00023	8b ce		 mov	 ecx, esi
  00025	e8 00 00 00 00	 call	 ?Init@?$CEncrypt@M@@AAEXXZ ; CEncrypt<float>::Init

; 112  : 	}

  0002a	8b c6		 mov	 eax, esi
  0002c	e8 00 00 00 00	 call	 __EH_epilog3
  00031	c3		 ret	 0
_TEXT	ENDS
;	COMDAT text$x
text$x	SEGMENT
__unwindfunclet$??0?$CEncrypt@M@@QAE@XZ$0:
  00000	8b 4d f0	 mov	 ecx, DWORD PTR _this$[ebp]
  00003	83 c1 0c	 add	 ecx, 12			; 0000000cH
  00006	e9 00 00 00 00	 jmp	 ??1ccddaabb@@UAE@XZ	; ccddaabb::~ccddaabb
__ehhandler$??0?$CEncrypt@M@@QAE@XZ:
  0000b	8b 54 24 08	 mov	 edx, DWORD PTR [esp+8]
  0000f	8d 42 0c	 lea	 eax, DWORD PTR [edx+12]
  00012	8b 4a ec	 mov	 ecx, DWORD PTR [edx-20]
  00015	33 c8		 xor	 ecx, eax
  00017	e8 00 00 00 00	 call	 @__security_check_cookie@4
  0001c	b8 00 00 00 00	 mov	 eax, OFFSET __ehfuncinfo$??0?$CEncrypt@M@@QAE@XZ
  00021	e9 00 00 00 00	 jmp	 ___CxxFrameHandler3
text$x	ENDS
??0?$CEncrypt@M@@QAE@XZ ENDP				; CEncrypt<float>::CEncrypt<float>
PUBLIC	??B?$CEncrypt@M@@QAEMXZ				; CEncrypt<float>::operator float
; Function compile flags: /Ogsp
;	COMDAT ??B?$CEncrypt@M@@QAEMXZ
_TEXT	SEGMENT
_value$ = -4						; size = 4
??B?$CEncrypt@M@@QAEMXZ PROC				; CEncrypt<float>::operator float, COMDAT
; _this$ = ecx

; 134  : 	{

  00000	55		 push	 ebp
  00001	8b ec		 mov	 ebp, esp
  00003	51		 push	 ecx

; 135  : 		type value;
; 136  : 		DecryptValueToPool(&value);

  00004	8d 45 fc	 lea	 eax, DWORD PTR _value$[ebp]
  00007	50		 push	 eax
  00008	e8 00 00 00 00	 call	 ?DecryptValueToPool@?$CEncrypt@M@@QAEXPAM@Z ; CEncrypt<float>::DecryptValueToPool

; 137  : 
; 138  : #ifdef _NOTUSE
; 139  : 		Debug();
; 140  : #endif
; 141  : 		return value;

  0000d	d9 45 fc	 fld	 DWORD PTR _value$[ebp]

; 142  : 	}

  00010	c9		 leave
  00011	c3		 ret	 0
??B?$CEncrypt@M@@QAEMXZ ENDP				; CEncrypt<float>::operator float
_TEXT	ENDS
PUBLIC	??4?$CEncrypt@M@@QAEMM@Z			; CEncrypt<float>::operator=
; Function compile flags: /Ogsp
;	COMDAT ??4?$CEncrypt@M@@QAEMM@Z
_TEXT	SEGMENT
_value$ = 8						; size = 4
_inValue$ = 8						; size = 4
??4?$CEncrypt@M@@QAEMM@Z PROC				; CEncrypt<float>::operator=, COMDAT
; _this$ = ecx

; 1654 : 	{	

  00000	55		 push	 ebp
  00001	8b ec		 mov	 ebp, esp

; 1655 : 		type value = inValue;

  00003	d9 45 08	 fld	 DWORD PTR _inValue$[ebp]

; 1656 : 		EncryptValueToPool((char*)&value);

  00006	8d 45 08	 lea	 eax, DWORD PTR _value$[ebp]
  00009	50		 push	 eax
  0000a	d9 5d 08	 fstp	 DWORD PTR _value$[ebp]
  0000d	e8 00 00 00 00	 call	 ?EncryptValueToPool@?$CEncrypt@M@@AAEXPBD@Z ; CEncrypt<float>::EncryptValueToPool

; 1657 : #ifdef _NOTUSE
; 1658 : 		m_value = inValue;
; 1659 : 		Debug();
; 1660 : #endif
; 1661 : 		return value;

  00012	d9 45 08	 fld	 DWORD PTR _value$[ebp]

; 1662 : 	}

  00015	5d		 pop	 ebp
  00016	c2 04 00	 ret	 4
??4?$CEncrypt@M@@QAEMM@Z ENDP				; CEncrypt<float>::operator=
_TEXT	ENDS
PUBLIC	??O?$CEncrypt@M@@QAE_NABM@Z			; CEncrypt<float>::operator>
; Function compile flags: /Ogsp
;	COMDAT ??O?$CEncrypt@M@@QAE_NABM@Z
_TEXT	SEGMENT
_value$ = -4						; size = 4
_inValue$ = 8						; size = 4
??O?$CEncrypt@M@@QAE_NABM@Z PROC			; CEncrypt<float>::operator>, COMDAT
; _this$ = ecx

; 1811 : 	{

  00000	55		 push	 ebp
  00001	8b ec		 mov	 ebp, esp
  00003	51		 push	 ecx

; 1812 : 		type value;
; 1813 : 		DecryptValueToPool(&value);

  00004	8d 45 fc	 lea	 eax, DWORD PTR _value$[ebp]
  00007	50		 push	 eax
  00008	e8 00 00 00 00	 call	 ?DecryptValueToPool@?$CEncrypt@M@@QAEXPAM@Z ; CEncrypt<float>::DecryptValueToPool

; 1814 : #ifdef _NOTUSE
; 1815 : 		Debug();
; 1816 : #endif
; 1817 : 		return (value > inValue);

  0000d	8b 45 08	 mov	 eax, DWORD PTR _inValue$[ebp]
  00010	f3 0f 10 08	 movss	 xmm1, DWORD PTR [eax]
  00014	f3 0f 10 45 fc	 movss	 xmm0, DWORD PTR _value$[ebp]
  00019	0f 5a c0	 cvtps2pd xmm0, xmm0
  0001c	0f 5a c9	 cvtps2pd xmm1, xmm1
  0001f	33 c0		 xor	 eax, eax
  00021	66 0f 2f c1	 comisd	 xmm0, xmm1
  00025	76 01		 jbe	 SHORT $LN4@operator@2
  00027	40		 inc	 eax
$LN4@operator@2:

; 1818 : 	}		

  00028	c9		 leave
  00029	c2 04 00	 ret	 4
??O?$CEncrypt@M@@QAE_NABM@Z ENDP			; CEncrypt<float>::operator>
_TEXT	ENDS
PUBLIC	??B?$CEncrypt@W4TeamType@@@@QBE?AW4TeamType@@XZ	; CEncrypt<enum TeamType>::operator enum TeamType
; Function compile flags: /Ogsp
;	COMDAT ??B?$CEncrypt@W4TeamType@@@@QBE?AW4TeamType@@XZ
_TEXT	SEGMENT
_value$ = -4						; size = 4
??B?$CEncrypt@W4TeamType@@@@QBE?AW4TeamType@@XZ PROC	; CEncrypt<enum TeamType>::operator enum TeamType, COMDAT
; _this$ = ecx

; 145  : 	{

  00000	55		 push	 ebp
  00001	8b ec		 mov	 ebp, esp
  00003	51		 push	 ecx

; 146  : 		//UJ 130829, const도 똑같이 하면 된다 --start
; 147  : 		type value;
; 148  : 		CEncrypt<type>* pThis = const_cast<CEncrypt<type>*>(this);
; 149  : 		pThis->DecryptValueToPool(&value);

  00004	8d 45 fc	 lea	 eax, DWORD PTR _value$[ebp]
  00007	50		 push	 eax
  00008	e8 00 00 00 00	 call	 ?DecryptValueToPool@?$CEncrypt@W4TeamType@@@@QAEXPAW4TeamType@@@Z ; CEncrypt<enum TeamType>::DecryptValueToPool

; 150  : 		//// const에서 DecryptValueToPool 사용할 수 없으므로 아래와 같이함.
; 151  :  		//type value;
; 152  : 		//char szTempMem[MAX_ENCRYPT];
; 153  : 		//m_RC5.DecryptByte( m_MemPool, szTempMem, max(m_ValueSize, DEFAULT_ENCRYPT) );
; 154  : 		//memcpy( &value, szTempMem, m_ValueSize );
; 155  : 		//UJ --end
; 156  : 
; 157  : #ifdef _NOTUSE
; 158  : 		Debug();
; 159  : #endif
; 160  : 		return value;

  0000d	8b 45 fc	 mov	 eax, DWORD PTR _value$[ebp]

; 161  : 	}

  00010	c9		 leave
  00011	c3		 ret	 0
??B?$CEncrypt@W4TeamType@@@@QBE?AW4TeamType@@XZ ENDP	; CEncrypt<enum TeamType>::operator enum TeamType
_TEXT	ENDS
PUBLIC	?begin@?$vector@VioHashString@@V?$allocator@VioHashString@@@std@@@std@@QAE?AV?$_Vector_iterator@V?$_Vector_val@VioHashString@@V?$allocator@VioHashString@@@std@@@std@@@2@XZ ; std::vector<ioHashString,std::allocator<ioHashString> >::begin
; Function compile flags: /Ogsp
; File c:\program files (x86)\microsoft visual studio 10.0\vc\include\vector
;	COMDAT ?begin@?$vector@VioHashString@@V?$allocator@VioHashString@@@std@@@std@@QAE?AV?$_Vector_iterator@V?$_Vector_val@VioHashString@@V?$allocator@VioHashString@@@std@@@std@@@2@XZ
_TEXT	SEGMENT
___$ReturnUdt$ = 8					; size = 4
?begin@?$vector@VioHashString@@V?$allocator@VioHashString@@@std@@@std@@QAE?AV?$_Vector_iterator@V?$_Vector_val@VioHashString@@V?$allocator@VioHashString@@@std@@@std@@@2@XZ PROC ; std::vector<ioHashString,std::allocator<ioHashString> >::begin, COMDAT
; _this$ = ecx

; 781  : 		{	// return iterator for beginning of mutable sequence

  00000	55		 push	 ebp
  00001	8b ec		 mov	 ebp, esp

; 782  : 		return (iterator(this->_Myfirst, this));

  00003	8b 09		 mov	 ecx, DWORD PTR [ecx]
  00005	8b 45 08	 mov	 eax, DWORD PTR ___$ReturnUdt$[ebp]
  00008	89 08		 mov	 DWORD PTR [eax], ecx

; 783  : 		}

  0000a	5d		 pop	 ebp
  0000b	c2 04 00	 ret	 4
?begin@?$vector@VioHashString@@V?$allocator@VioHashString@@@std@@@std@@QAE?AV?$_Vector_iterator@V?$_Vector_val@VioHashString@@V?$allocator@VioHashString@@@std@@@std@@@2@XZ ENDP ; std::vector<ioHashString,std::allocator<ioHashString> >::begin
_TEXT	ENDS
PUBLIC	?end@?$vector@VioHashString@@V?$allocator@VioHashString@@@std@@@std@@QAE?AV?$_Vector_iterator@V?$_Vector_val@VioHashString@@V?$allocator@VioHashString@@@std@@@std@@@2@XZ ; std::vector<ioHashString,std::allocator<ioHashString> >::end
; Function compile flags: /Ogsp
;	COMDAT ?end@?$vector@VioHashString@@V?$allocator@VioHashString@@@std@@@std@@QAE?AV?$_Vector_iterator@V?$_Vector_val@VioHashString@@V?$allocator@VioHashString@@@std@@@std@@@2@XZ
_TEXT	SEGMENT
___$ReturnUdt$ = 8					; size = 4
?end@?$vector@VioHashString@@V?$allocator@VioHashString@@@std@@@std@@QAE?AV?$_Vector_iterator@V?$_Vector_val@VioHashString@@V?$allocator@VioHashString@@@std@@@std@@@2@XZ PROC ; std::vector<ioHashString,std::allocator<ioHashString> >::end, COMDAT
; _this$ = ecx

; 791  : 		{	// return iterator for end of mutable sequence

  00000	55		 push	 ebp
  00001	8b ec		 mov	 ebp, esp

; 792  : 		return (iterator(this->_Mylast, this));

  00003	8b 49 04	 mov	 ecx, DWORD PTR [ecx+4]
  00006	8b 45 08	 mov	 eax, DWORD PTR ___$ReturnUdt$[ebp]
  00009	89 08		 mov	 DWORD PTR [eax], ecx

; 793  : 		}

  0000b	5d		 pop	 ebp
  0000c	c2 04 00	 ret	 4
?end@?$vector@VioHashString@@V?$allocator@VioHashString@@@std@@@std@@QAE?AV?$_Vector_iterator@V?$_Vector_val@VioHashString@@V?$allocator@VioHashString@@@std@@@std@@@2@XZ ENDP ; std::vector<ioHashString,std::allocator<ioHashString> >::end
_TEXT	ENDS
PUBLIC	??0?$_Vector_val@VioHashString@@V?$allocator@VioHashString@@@std@@@std@@QAE@V?$allocator@VioHashString@@@1@@Z ; std::_Vector_val<ioHashString,std::allocator<ioHashString> >::_Vector_val<ioHashString,std::allocator<ioHashString> >
; Function compile flags: /Ogsp
;	COMDAT ??0?$_Vector_val@VioHashString@@V?$allocator@VioHashString@@@std@@@std@@QAE@V?$allocator@VioHashString@@@1@@Z
_TEXT	SEGMENT
__Al$ = 8						; size = 1
??0?$_Vector_val@VioHashString@@V?$allocator@VioHashString@@@std@@@std@@QAE@V?$allocator@VioHashString@@@1@@Z PROC ; std::_Vector_val<ioHashString,std::allocator<ioHashString> >::_Vector_val<ioHashString,std::allocator<ioHashString> >, COMDAT
; _this$ = ecx

; 426  : 		{	// construct allocator from _Al

  00000	8b c1		 mov	 eax, ecx

; 427  : 		_Myfirst = 0;

  00002	33 c9		 xor	 ecx, ecx
  00004	89 08		 mov	 DWORD PTR [eax], ecx

; 428  : 		_Mylast = 0;

  00006	89 48 04	 mov	 DWORD PTR [eax+4], ecx

; 429  : 		_Myend = 0;

  00009	89 48 08	 mov	 DWORD PTR [eax+8], ecx

; 430  : 		}

  0000c	c2 04 00	 ret	 4
??0?$_Vector_val@VioHashString@@V?$allocator@VioHashString@@@std@@@std@@QAE@V?$allocator@VioHashString@@@1@@Z ENDP ; std::_Vector_val<ioHashString,std::allocator<ioHashString> >::_Vector_val<ioHashString,std::allocator<ioHashString> >
_TEXT	ENDS
PUBLIC	??0?$_Vector_val@UBuffInfoStruct@@V?$allocator@UBuffInfoStruct@@@std@@@std@@QAE@V?$allocator@UBuffInfoStruct@@@1@@Z ; std::_Vector_val<BuffInfoStruct,std::allocator<BuffInfoStruct> >::_Vector_val<BuffInfoStruct,std::allocator<BuffInfoStruct> >
; Function compile flags: /Ogsp
;	COMDAT ??0?$_Vector_val@UBuffInfoStruct@@V?$allocator@UBuffInfoStruct@@@std@@@std@@QAE@V?$allocator@UBuffInfoStruct@@@1@@Z
_TEXT	SEGMENT
__Al$ = 8						; size = 1
??0?$_Vector_val@UBuffInfoStruct@@V?$allocator@UBuffInfoStruct@@@std@@@std@@QAE@V?$allocator@UBuffInfoStruct@@@1@@Z PROC ; std::_Vector_val<BuffInfoStruct,std::allocator<BuffInfoStruct> >::_Vector_val<BuffInfoStruct,std::allocator<BuffInfoStruct> >, COMDAT
; _this$ = ecx

; 426  : 		{	// construct allocator from _Al

  00000	8b c1		 mov	 eax, ecx

; 427  : 		_Myfirst = 0;

  00002	33 c9		 xor	 ecx, ecx
  00004	89 08		 mov	 DWORD PTR [eax], ecx

; 428  : 		_Mylast = 0;

  00006	89 48 04	 mov	 DWORD PTR [eax+4], ecx

; 429  : 		_Myend = 0;

  00009	89 48 08	 mov	 DWORD PTR [eax+8], ecx

; 430  : 		}

  0000c	c2 04 00	 ret	 4
??0?$_Vector_val@UBuffInfoStruct@@V?$allocator@UBuffInfoStruct@@@std@@@std@@QAE@V?$allocator@UBuffInfoStruct@@@1@@Z ENDP ; std::_Vector_val<BuffInfoStruct,std::allocator<BuffInfoStruct> >::_Vector_val<BuffInfoStruct,std::allocator<BuffInfoStruct> >
_TEXT	ENDS
PUBLIC	?_Make_iter@?$vector@VioHashString@@V?$allocator@VioHashString@@@std@@@std@@QBE?AV?$_Vector_iterator@V?$_Vector_val@VioHashString@@V?$allocator@VioHashString@@@std@@@std@@@2@V?$_Vector_const_iterator@V?$_Vector_val@VioHashString@@V?$allocator@VioHashString@@@std@@@std@@@2@@Z ; std::vector<ioHashString,std::allocator<ioHashString> >::_Make_iter
; Function compile flags: /Ogsp
;	COMDAT ?_Make_iter@?$vector@VioHashString@@V?$allocator@VioHashString@@@std@@@std@@QBE?AV?$_Vector_iterator@V?$_Vector_val@VioHashString@@V?$allocator@VioHashString@@@std@@@std@@@2@V?$_Vector_const_iterator@V?$_Vector_val@VioHashString@@V?$allocator@VioHashString@@@std@@@std@@@2@@Z
_TEXT	SEGMENT
___$ReturnUdt$ = 8					; size = 4
__Where$ = 12						; size = 4
?_Make_iter@?$vector@VioHashString@@V?$allocator@VioHashString@@@std@@@std@@QBE?AV?$_Vector_iterator@V?$_Vector_val@VioHashString@@V?$allocator@VioHashString@@@std@@@std@@@2@V?$_Vector_const_iterator@V?$_Vector_val@VioHashString@@V?$allocator@VioHashString@@@std@@@std@@@2@@Z PROC ; std::vector<ioHashString,std::allocator<ioHashString> >::_Make_iter, COMDAT
; _this$ = ecx

; 801  : 		{	// make iterator from const_iterator

  00000	55		 push	 ebp
  00001	8b ec		 mov	 ebp, esp

; 802  : 		return (iterator(_Where._Ptr, this));

  00003	8b 45 08	 mov	 eax, DWORD PTR ___$ReturnUdt$[ebp]
  00006	8b 4d 0c	 mov	 ecx, DWORD PTR __Where$[ebp]
  00009	89 08		 mov	 DWORD PTR [eax], ecx

; 803  : 		}

  0000b	5d		 pop	 ebp
  0000c	c2 08 00	 ret	 8
?_Make_iter@?$vector@VioHashString@@V?$allocator@VioHashString@@@std@@@std@@QBE?AV?$_Vector_iterator@V?$_Vector_val@VioHashString@@V?$allocator@VioHashString@@@std@@@std@@@2@V?$_Vector_const_iterator@V?$_Vector_val@VioHashString@@V?$allocator@VioHashString@@@std@@@std@@@2@@Z ENDP ; std::vector<ioHashString,std::allocator<ioHashString> >::_Make_iter
_TEXT	ENDS
PUBLIC	?max_size@?$vector@VioHashString@@V?$allocator@VioHashString@@@std@@@std@@QBEIXZ ; std::vector<ioHashString,std::allocator<ioHashString> >::max_size
; Function compile flags: /Ogsp
;	COMDAT ?max_size@?$vector@VioHashString@@V?$allocator@VioHashString@@@std@@@std@@QBEIXZ
_TEXT	SEGMENT
?max_size@?$vector@VioHashString@@V?$allocator@VioHashString@@@std@@@std@@QBEIXZ PROC ; std::vector<ioHashString,std::allocator<ioHashString> >::max_size, COMDAT
; _this$ = ecx

; 884  : 		return (this->_Alval.max_size());

  00000	b8 ff ff ff 0f	 mov	 eax, 268435455		; 0fffffffH

; 885  : 		}

  00005	c3		 ret	 0
?max_size@?$vector@VioHashString@@V?$allocator@VioHashString@@@std@@@std@@QBEIXZ ENDP ; std::vector<ioHashString,std::allocator<ioHashString> >::max_size
_TEXT	ENDS
PUBLIC	?allocate@?$allocator@VioHashString@@@std@@QAEPAVioHashString@@I@Z ; std::allocator<ioHashString>::allocate
; Function compile flags: /Ogsp
; File c:\program files (x86)\microsoft visual studio 10.0\vc\include\xmemory
;	COMDAT ?allocate@?$allocator@VioHashString@@@std@@QAEPAVioHashString@@I@Z
_TEXT	SEGMENT
__Count$ = 8						; size = 4
?allocate@?$allocator@VioHashString@@@std@@QAEPAVioHashString@@I@Z PROC ; std::allocator<ioHashString>::allocate, COMDAT
; _this$ = ecx

; 186  : 		{	// allocate array of _Count elements

  00000	55		 push	 ebp
  00001	8b ec		 mov	 ebp, esp

; 187  : 		return (_Allocate(_Count, (pointer)0));

  00003	6a 00		 push	 0
  00005	ff 75 08	 push	 DWORD PTR __Count$[ebp]
  00008	e8 00 00 00 00	 call	 ??$_Allocate@VioHashString@@@std@@YAPAVioHashString@@IPAV1@@Z ; std::_Allocate<ioHashString>
  0000d	59		 pop	 ecx
  0000e	59		 pop	 ecx

; 188  : 		}

  0000f	5d		 pop	 ebp
  00010	c2 04 00	 ret	 4
?allocate@?$allocator@VioHashString@@@std@@QAEPAVioHashString@@I@Z ENDP ; std::allocator<ioHashString>::allocate
_TEXT	ENDS
PUBLIC	?max_size@?$vector@UBuffInfoStruct@@V?$allocator@UBuffInfoStruct@@@std@@@std@@QBEIXZ ; std::vector<BuffInfoStruct,std::allocator<BuffInfoStruct> >::max_size
; Function compile flags: /Ogsp
; File c:\program files (x86)\microsoft visual studio 10.0\vc\include\vector
;	COMDAT ?max_size@?$vector@UBuffInfoStruct@@V?$allocator@UBuffInfoStruct@@@std@@@std@@QBEIXZ
_TEXT	SEGMENT
?max_size@?$vector@UBuffInfoStruct@@V?$allocator@UBuffInfoStruct@@@std@@@std@@QBEIXZ PROC ; std::vector<BuffInfoStruct,std::allocator<BuffInfoStruct> >::max_size, COMDAT
; _this$ = ecx

; 884  : 		return (this->_Alval.max_size());

  00000	b8 cc cc cc 0c	 mov	 eax, 214748364		; 0cccccccH

; 885  : 		}

  00005	c3		 ret	 0
?max_size@?$vector@UBuffInfoStruct@@V?$allocator@UBuffInfoStruct@@@std@@@std@@QBEIXZ ENDP ; std::vector<BuffInfoStruct,std::allocator<BuffInfoStruct> >::max_size
_TEXT	ENDS
PUBLIC	?allocate@?$allocator@UBuffInfoStruct@@@std@@QAEPAUBuffInfoStruct@@I@Z ; std::allocator<BuffInfoStruct>::allocate
; Function compile flags: /Ogsp
; File c:\program files (x86)\microsoft visual studio 10.0\vc\include\xmemory
;	COMDAT ?allocate@?$allocator@UBuffInfoStruct@@@std@@QAEPAUBuffInfoStruct@@I@Z
_TEXT	SEGMENT
__Count$ = 8						; size = 4
?allocate@?$allocator@UBuffInfoStruct@@@std@@QAEPAUBuffInfoStruct@@I@Z PROC ; std::allocator<BuffInfoStruct>::allocate, COMDAT
; _this$ = ecx

; 186  : 		{	// allocate array of _Count elements

  00000	55		 push	 ebp
  00001	8b ec		 mov	 ebp, esp

; 187  : 		return (_Allocate(_Count, (pointer)0));

  00003	6a 00		 push	 0
  00005	ff 75 08	 push	 DWORD PTR __Count$[ebp]
  00008	e8 00 00 00 00	 call	 ??$_Allocate@UBuffInfoStruct@@@std@@YAPAUBuffInfoStruct@@IPAU1@@Z ; std::_Allocate<BuffInfoStruct>
  0000d	59		 pop	 ecx
  0000e	59		 pop	 ecx

; 188  : 		}

  0000f	5d		 pop	 ebp
  00010	c2 04 00	 ret	 4
?allocate@?$allocator@UBuffInfoStruct@@@std@@QAEPAUBuffInfoStruct@@I@Z ENDP ; std::allocator<BuffInfoStruct>::allocate
_TEXT	ENDS
PUBLIC	??8?$_Vector_const_iterator@V?$_Vector_val@VioHashString@@V?$allocator@VioHashString@@@std@@@std@@@std@@QBE_NABV01@@Z ; std::_Vector_const_iterator<std::_Vector_val<ioHashString,std::allocator<ioHashString> > >::operator==
; Function compile flags: /Ogsp
; File c:\program files (x86)\microsoft visual studio 10.0\vc\include\vector
;	COMDAT ??8?$_Vector_const_iterator@V?$_Vector_val@VioHashString@@V?$allocator@VioHashString@@@std@@@std@@@std@@QBE_NABV01@@Z
_TEXT	SEGMENT
__Right$ = 8						; size = 4
??8?$_Vector_const_iterator@V?$_Vector_val@VioHashString@@V?$allocator@VioHashString@@@std@@@std@@@std@@QBE_NABV01@@Z PROC ; std::_Vector_const_iterator<std::_Vector_val<ioHashString,std::allocator<ioHashString> > >::operator==, COMDAT
; _this$ = ecx

; 201  : 		{	// test for iterator equality

  00000	55		 push	 ebp
  00001	8b ec		 mov	 ebp, esp

; 202  : 		_Compat(_Right);
; 203  : 		return (this->_Ptr == _Right._Ptr);

  00003	8b 01		 mov	 eax, DWORD PTR [ecx]
  00005	8b 4d 08	 mov	 ecx, DWORD PTR __Right$[ebp]
  00008	2b 01		 sub	 eax, DWORD PTR [ecx]
  0000a	f7 d8		 neg	 eax
  0000c	1b c0		 sbb	 eax, eax
  0000e	40		 inc	 eax

; 204  : 		}

  0000f	5d		 pop	 ebp
  00010	c2 04 00	 ret	 4
??8?$_Vector_const_iterator@V?$_Vector_val@VioHashString@@V?$allocator@VioHashString@@@std@@@std@@@std@@QBE_NABV01@@Z ENDP ; std::_Vector_const_iterator<std::_Vector_val<ioHashString,std::allocator<ioHashString> > >::operator==
_TEXT	ENDS
PUBLIC	??$_Move@PAVioHashString@@PAV1@@std@@YAPAVioHashString@@PAV1@00U_Nonscalar_ptr_iterator_tag@0@@Z ; std::_Move<ioHashString *,ioHashString *>
; Function compile flags: /Ogsp
; File c:\program files (x86)\microsoft visual studio 10.0\vc\include\xutility
;	COMDAT ??$_Move@PAVioHashString@@PAV1@@std@@YAPAVioHashString@@PAV1@00U_Nonscalar_ptr_iterator_tag@0@@Z
_TEXT	SEGMENT
__First$ = 8						; size = 4
__Last$ = 12						; size = 4
__Dest$ = 16						; size = 4
___formal$ = 20						; size = 1
??$_Move@PAVioHashString@@PAV1@@std@@YAPAVioHashString@@PAV1@00U_Nonscalar_ptr_iterator_tag@0@@Z PROC ; std::_Move<ioHashString *,ioHashString *>, COMDAT

; 2512 : 	{	// move [_First, _Last) to [_Dest, ...), arbitrary iterators

  00000	55		 push	 ebp
  00001	8b ec		 mov	 ebp, esp
  00003	56		 push	 esi

; 2513 : 	for (; _First != _Last; ++_Dest, ++_First)

  00004	8b 75 08	 mov	 esi, DWORD PTR __First$[ebp]
  00007	eb 11		 jmp	 SHORT $LN11@Move
$LL3@Move:

; 2514 : 		*_Dest = _STD move(*_First);

  00009	8b 4d 10	 mov	 ecx, DWORD PTR __Dest$[ebp]
  0000c	56		 push	 esi
  0000d	ff 15 00 00 00
	00		 call	 DWORD PTR __imp_??4ioHashString@@QAEAAV0@ABV0@@Z
  00013	83 45 10 10	 add	 DWORD PTR __Dest$[ebp], 16 ; 00000010H
  00017	83 c6 10	 add	 esi, 16			; 00000010H
$LN11@Move:

; 2513 : 	for (; _First != _Last; ++_Dest, ++_First)

  0001a	3b 75 0c	 cmp	 esi, DWORD PTR __Last$[ebp]
  0001d	75 ea		 jne	 SHORT $LL3@Move

; 2515 : 	return (_Dest);

  0001f	8b 45 10	 mov	 eax, DWORD PTR __Dest$[ebp]
  00022	5e		 pop	 esi

; 2516 : 	}

  00023	5d		 pop	 ebp
  00024	c3		 ret	 0
??$_Move@PAVioHashString@@PAV1@@std@@YAPAVioHashString@@PAV1@00U_Nonscalar_ptr_iterator_tag@0@@Z ENDP ; std::_Move<ioHashString *,ioHashString *>
_TEXT	ENDS
PUBLIC	??$_Destroy@VioHashString@@@std@@YAXPAVioHashString@@@Z ; std::_Destroy<ioHashString>
; Function compile flags: /Ogsp
; File c:\program files (x86)\microsoft visual studio 10.0\vc\include\xmemory
;	COMDAT ??$_Destroy@VioHashString@@@std@@YAXPAVioHashString@@@Z
_TEXT	SEGMENT
__Ptr$ = 8						; size = 4
??$_Destroy@VioHashString@@@std@@YAXPAVioHashString@@@Z PROC ; std::_Destroy<ioHashString>, COMDAT

; 62   : 	{	// destroy object at _Ptr

  00000	55		 push	 ebp
  00001	8b ec		 mov	 ebp, esp

; 63   : 	_Ptr->~_Ty();

  00003	8b 4d 08	 mov	 ecx, DWORD PTR __Ptr$[ebp]

; 64   : 	}

  00006	5d		 pop	 ebp

; 63   : 	_Ptr->~_Ty();

  00007	ff 25 00 00 00
	00		 jmp	 DWORD PTR __imp_??1ioHashString@@QAE@XZ
??$_Destroy@VioHashString@@@std@@YAXPAVioHashString@@@Z ENDP ; std::_Destroy<ioHashString>
_TEXT	ENDS
PUBLIC	??$_Destroy@UBuffInfoStruct@@@std@@YAXPAUBuffInfoStruct@@@Z ; std::_Destroy<BuffInfoStruct>
; Function compile flags: /Ogsp
;	COMDAT ??$_Destroy@UBuffInfoStruct@@@std@@YAXPAUBuffInfoStruct@@@Z
_TEXT	SEGMENT
__Ptr$ = 8						; size = 4
??$_Destroy@UBuffInfoStruct@@@std@@YAXPAUBuffInfoStruct@@@Z PROC ; std::_Destroy<BuffInfoStruct>, COMDAT

; 62   : 	{	// destroy object at _Ptr

  00000	55		 push	 ebp
  00001	8b ec		 mov	 ebp, esp

; 63   : 	_Ptr->~_Ty();

  00003	8b 4d 08	 mov	 ecx, DWORD PTR __Ptr$[ebp]

; 64   : 	}

  00006	5d		 pop	 ebp

; 63   : 	_Ptr->~_Ty();

  00007	ff 25 00 00 00
	00		 jmp	 DWORD PTR __imp_??1ioHashString@@QAE@XZ
??$_Destroy@UBuffInfoStruct@@@std@@YAXPAUBuffInfoStruct@@@Z ENDP ; std::_Destroy<BuffInfoStruct>
_TEXT	ENDS
PUBLIC	??$construct@AAUBuffInfoStruct@@@?$allocator@UBuffInfoStruct@@@std@@QAEXPAUBuffInfoStruct@@AAU2@@Z ; std::allocator<BuffInfoStruct>::construct<BuffInfoStruct &>
;	COMDAT xdata$x
; File c:\program files (x86)\microsoft visual studio 10.0\vc\include\vector
xdata$x	SEGMENT
__unwindtable$??$construct@AAUBuffInfoStruct@@@?$allocator@UBuffInfoStruct@@@std@@QAEXPAUBuffInfoStruct@@AAU2@@Z DD 0ffffffffH
	DD	FLAT:__unwindfunclet$??$construct@AAUBuffInfoStruct@@@?$allocator@UBuffInfoStruct@@@std@@QAEXPAUBuffInfoStruct@@AAU2@@Z$0
__ehfuncinfo$??$construct@AAUBuffInfoStruct@@@?$allocator@UBuffInfoStruct@@@std@@QAEXPAUBuffInfoStruct@@AAU2@@Z DD 019930522H
	DD	01H
	DD	FLAT:__unwindtable$??$construct@AAUBuffInfoStruct@@@?$allocator@UBuffInfoStruct@@@std@@QAEXPAUBuffInfoStruct@@AAU2@@Z
	DD	2 DUP(00H)
	DD	2 DUP(00H)
	DD	00H
	DD	01H
; Function compile flags: /Ogsp
; File c:\program files (x86)\microsoft visual studio 10.0\vc\include\xmemory
xdata$x	ENDS
;	COMDAT ??$construct@AAUBuffInfoStruct@@@?$allocator@UBuffInfoStruct@@@std@@QAEXPAUBuffInfoStruct@@AAU2@@Z
_TEXT	SEGMENT
$T538453 = -16						; size = 4
__$EHRec$ = -12						; size = 12
__Ptr$ = 8						; size = 4
__Val$ = 12						; size = 4
??$construct@AAUBuffInfoStruct@@@?$allocator@UBuffInfoStruct@@@std@@QAEXPAUBuffInfoStruct@@AAU2@@Z PROC ; std::allocator<BuffInfoStruct>::construct<BuffInfoStruct &>, COMDAT
; _this$ = ecx

; 206  : 		void construct(pointer _Ptr, _Other&& _Val)

  00000	6a 04		 push	 4
  00002	b8 00 00 00 00	 mov	 eax, __ehhandler$??$construct@AAUBuffInfoStruct@@@?$allocator@UBuffInfoStruct@@@std@@QAEXPAUBuffInfoStruct@@AAU2@@Z
  00007	e8 00 00 00 00	 call	 __EH_prolog3

; 207  : 		{	// construct object at _Ptr with value _Val
; 208  : 		::new ((void _FARQ *)_Ptr) _Ty(_STD forward<_Other>(_Val));

  0000c	8b 75 08	 mov	 esi, DWORD PTR __Ptr$[ebp]
  0000f	89 75 f0	 mov	 DWORD PTR $T538453[ebp], esi
  00012	83 65 fc 00	 and	 DWORD PTR __$EHRec$[ebp+8], 0
  00016	85 f6		 test	 esi, esi
  00018	74 12		 je	 SHORT $LN3@construct@3
  0001a	8b 7d 0c	 mov	 edi, DWORD PTR __Val$[ebp]
  0001d	57		 push	 edi
  0001e	8b ce		 mov	 ecx, esi
  00020	ff 15 00 00 00
	00		 call	 DWORD PTR __imp_??0ioHashString@@QAE@ABV0@@Z
  00026	8b 47 10	 mov	 eax, DWORD PTR [edi+16]
  00029	89 46 10	 mov	 DWORD PTR [esi+16], eax
$LN3@construct@3:

; 209  : 		}

  0002c	e8 00 00 00 00	 call	 __EH_epilog3
  00031	c2 08 00	 ret	 8
_TEXT	ENDS
;	COMDAT text$x
text$x	SEGMENT
__unwindfunclet$??$construct@AAUBuffInfoStruct@@@?$allocator@UBuffInfoStruct@@@std@@QAEXPAUBuffInfoStruct@@AAU2@@Z$0:
  00000	ff 75 08	 push	 DWORD PTR __Ptr$[ebp]
  00003	ff 75 f0	 push	 DWORD PTR $T538453[ebp]
  00006	e8 00 00 00 00	 call	 ??3@YAXPAX0@Z		; operator delete
  0000b	59		 pop	 ecx
  0000c	59		 pop	 ecx
  0000d	c3		 ret	 0
__ehhandler$??$construct@AAUBuffInfoStruct@@@?$allocator@UBuffInfoStruct@@@std@@QAEXPAUBuffInfoStruct@@AAU2@@Z:
  0000e	8b 54 24 08	 mov	 edx, DWORD PTR [esp+8]
  00012	8d 42 0c	 lea	 eax, DWORD PTR [edx+12]
  00015	8b 4a ec	 mov	 ecx, DWORD PTR [edx-20]
  00018	33 c8		 xor	 ecx, eax
  0001a	e8 00 00 00 00	 call	 @__security_check_cookie@4
  0001f	b8 00 00 00 00	 mov	 eax, OFFSET __ehfuncinfo$??$construct@AAUBuffInfoStruct@@@?$allocator@UBuffInfoStruct@@@std@@QAEXPAUBuffInfoStruct@@AAU2@@Z
  00024	e9 00 00 00 00	 jmp	 ___CxxFrameHandler3
text$x	ENDS
??$construct@AAUBuffInfoStruct@@@?$allocator@UBuffInfoStruct@@@std@@QAEXPAUBuffInfoStruct@@AAU2@@Z ENDP ; std::allocator<BuffInfoStruct>::construct<BuffInfoStruct &>
PUBLIC	?GetProtectionMode@ioBaseChar@@QAE?AW4ProtectionMode@@XZ ; ioBaseChar::GetProtectionMode
; Function compile flags: /Ogsp
; File d:\lost saga for developer\youtube\tutorial\source\src\lsclient\iobasechar.h
;	COMDAT ?GetProtectionMode@ioBaseChar@@QAE?AW4ProtectionMode@@XZ
_TEXT	SEGMENT
_value$538478 = -4					; size = 4
?GetProtectionMode@ioBaseChar@@QAE?AW4ProtectionMode@@XZ PROC ; ioBaseChar::GetProtectionMode, COMDAT
; _this$ = ecx

; 2170 : 	ProtectionMode GetProtectionMode() { return m_ProtectionMode; }

  00000	55		 push	 ebp
  00001	8b ec		 mov	 ebp, esp
  00003	51		 push	 ecx
  00004	8d 45 fc	 lea	 eax, DWORD PTR _value$538478[ebp]
  00007	50		 push	 eax
  00008	81 c1 d8 10 00
	00		 add	 ecx, 4312		; 000010d8H
  0000e	e8 00 00 00 00	 call	 ?DecryptValueToPool@?$CEncrypt@W4ProtectionMode@@@@QAEXPAW4ProtectionMode@@@Z ; CEncrypt<enum ProtectionMode>::DecryptValueToPool
  00013	8b 45 fc	 mov	 eax, DWORD PTR _value$538478[ebp]
  00016	c9		 leave
  00017	c3		 ret	 0
?GetProtectionMode@ioBaseChar@@QAE?AW4ProtectionMode@@XZ ENDP ; ioBaseChar::GetProtectionMode
_TEXT	ENDS
PUBLIC	__real@0000000000000000
PUBLIC	__$ArrayPad$
PUBLIC	?OnWaitFlyMine@ioMineWeapon2@@IAEXPAVioPlayStage@@M@Z ; ioMineWeapon2::OnWaitFlyMine
;	COMDAT __real@0000000000000000
; File c:\program files (x86)\microsoft directx sdk (june 2010)\include\d3dx9math.inl
CONST	SEGMENT
__real@0000000000000000 DQ 00000000000000000r	; 0
; Function compile flags: /Ogsp
; File d:\lost saga for developer\youtube\tutorial\source\src\lsclient\iomineweapon2.cpp
CONST	ENDS
;	COMDAT ?OnWaitFlyMine@ioMineWeapon2@@IAEXPAVioPlayStage@@M@Z
_TEXT	SEGMENT
_vDir$531933 = -32					; size = 12
tv265 = -20						; size = 4
_value$538484 = -20					; size = 4
$T531936 = -16						; size = 12
__$ArrayPad$ = -4					; size = 4
_pStage$ = 8						; size = 4
_fTimePerSec$ = 12					; size = 4
?OnWaitFlyMine@ioMineWeapon2@@IAEXPAVioPlayStage@@M@Z PROC ; ioMineWeapon2::OnWaitFlyMine, COMDAT
; _this$ = ecx

; 624  : {

  00000	55		 push	 ebp
  00001	8b ec		 mov	 ebp, esp
  00003	83 ec 20	 sub	 esp, 32			; 00000020H
  00006	a1 00 00 00 00	 mov	 eax, DWORD PTR ___security_cookie
  0000b	33 c5		 xor	 eax, ebp
  0000d	89 45 fc	 mov	 DWORD PTR __$ArrayPad$[ebp], eax
  00010	56		 push	 esi
  00011	57		 push	 edi
  00012	8b f1		 mov	 esi, ecx

; 625  : 	if( m_dwCurFlyTraceDealyTime + m_dwFlyTraceDealyTime < FRAMEGETTIME() )

  00014	ff 15 00 00 00
	00		 call	 DWORD PTR __imp_?GetSingleton@ioFrameTimer@@SAAAV1@XZ
  0001a	8b c8		 mov	 ecx, eax
  0001c	ff 15 00 00 00
	00		 call	 DWORD PTR __imp_?GetLoopSec@ioFrameTimer@@QBEKXZ
  00022	8b 8e a4 08 00
	00		 mov	 ecx, DWORD PTR [esi+2212]
  00028	03 8e a8 08 00
	00		 add	 ecx, DWORD PTR [esi+2216]
  0002e	3b c8		 cmp	 ecx, eax
  00030	73 16		 jae	 SHORT $LN2@OnWaitFlyM

; 626  : 	{
; 627  : 		m_dwCurFlyTraceDealyTime = 0;
; 628  : 		SetFlyTraceMine( pStage );

  00032	ff 75 08	 push	 DWORD PTR _pStage$[ebp]
  00035	83 a6 a8 08 00
	00 00		 and	 DWORD PTR [esi+2216], 0
  0003c	8b ce		 mov	 ecx, esi
  0003e	e8 00 00 00 00	 call	 ?SetFlyTraceMine@ioMineWeapon2@@QAEXPAVioPlayStage@@@Z ; ioMineWeapon2::SetFlyTraceMine

; 629  : 	}
; 630  : 	else

  00043	e9 81 00 00 00	 jmp	 $LN1@OnWaitFlyM
$LN2@OnWaitFlyM:

; 631  : 	{
; 632  : 		float fMoveDist = m_fTraceReadySpeed * fTimePerSec;

  00048	8d 45 ec	 lea	 eax, DWORD PTR _value$538484[ebp]
  0004b	50		 push	 eax
  0004c	8d 8e 34 09 00
	00		 lea	 ecx, DWORD PTR [esi+2356]
  00052	e8 00 00 00 00	 call	 ?DecryptValueToPool@?$CEncrypt@M@@QAEXPAM@Z ; CEncrypt<float>::DecryptValueToPool
  00057	f3 0f 10 4d 0c	 movss	 xmm1, DWORD PTR _fTimePerSec$[ebp]
  0005c	f3 0f 10 45 ec	 movss	 xmm0, DWORD PTR _value$538484[ebp]
  00061	0f 5a c9	 cvtps2pd xmm1, xmm1
  00064	0f 5a c0	 cvtps2pd xmm0, xmm0
  00067	f2 0f 59 c1	 mulsd	 xmm0, xmm1
  0006b	0f 57 c9	 xorps	 xmm1, xmm1
  0006e	66 0f 5a c8	 cvtpd2ps xmm1, xmm0

; 633  : 		D3DXVECTOR3 vDir = D3DXVECTOR3( 0.0f, FLOAT1, 0.0f );

  00072	b8 01 00 00 00	 mov	 eax, 1
  00077	89 45 ec	 mov	 DWORD PTR tv265[ebp], eax
  0007a	db 45 ec	 fild	 DWORD PTR tv265[ebp]
  0007d	85 c0		 test	 eax, eax
  0007f	79 06		 jns	 SHORT $LN17@OnWaitFlyM
  00081	d8 05 00 00 00
	00		 fadd	 DWORD PTR __real@4f800000
$LN17@OnWaitFlyM:

; 634  : 		GetParentSceneNode()->Translate( vDir * fMoveDist );

  00087	8b 4e 04	 mov	 ecx, DWORD PTR [esi+4]
  0008a	d9 5d e4	 fstp	 DWORD PTR _vDir$531933[ebp+4]
  0008d	f3 0f 10 55 e4	 movss	 xmm2, DWORD PTR _vDir$531933[ebp+4]
  00092	0f 5a c1	 cvtps2pd xmm0, xmm1
  00095	f2 0f 59 05 00
	00 00 00	 mulsd	 xmm0, QWORD PTR __real@0000000000000000
  0009d	0f 5a c9	 cvtps2pd xmm1, xmm1
  000a0	0f 5a d2	 cvtps2pd xmm2, xmm2
  000a3	66 0f 5a c0	 cvtpd2ps xmm0, xmm0
  000a7	f2 0f 59 d1	 mulsd	 xmm2, xmm1
  000ab	6a 01		 push	 1
  000ad	8d 55 f0	 lea	 edx, DWORD PTR $T531936[ebp]
  000b0	66 0f 5a ca	 cvtpd2ps xmm1, xmm2
  000b4	f3 0f 11 45 f0	 movss	 DWORD PTR $T531936[ebp], xmm0
  000b9	f3 0f 11 4d f4	 movss	 DWORD PTR $T531936[ebp+4], xmm1
  000be	f3 0f 11 45 f8	 movss	 DWORD PTR $T531936[ebp+8], xmm0
  000c3	8b 01		 mov	 eax, DWORD PTR [ecx]
  000c5	52		 push	 edx
  000c6	ff 50 3c	 call	 DWORD PTR [eax+60]
$LN1@OnWaitFlyM:

; 635  : 	}
; 636  : }

  000c9	8b 4d fc	 mov	 ecx, DWORD PTR __$ArrayPad$[ebp]
  000cc	5f		 pop	 edi
  000cd	33 cd		 xor	 ecx, ebp
  000cf	5e		 pop	 esi
  000d0	e8 00 00 00 00	 call	 @__security_check_cookie@4
  000d5	c9		 leave
  000d6	c2 08 00	 ret	 8
?OnWaitFlyMine@ioMineWeapon2@@IAEXPAVioPlayStage@@M@Z ENDP ; ioMineWeapon2::OnWaitFlyMine
_TEXT	ENDS
PUBLIC	__$ArrayPad$
PUBLIC	?OnFlyTracing@ioMineWeapon2@@IAEXPAVioPlayStage@@M@Z ; ioMineWeapon2::OnFlyTracing
EXTRN	__imp_?UNIT_X@ioMath@@2UD3DXVECTOR3@@A:BYTE
EXTRN	__imp_?UNIT_Y@ioMath@@2UD3DXVECTOR3@@A:BYTE
EXTRN	_D3DXVec3Normalize@8:PROC
EXTRN	?GetMidPositionByRate@ioGameEntity@@QBE?AUD3DXVECTOR3@@M@Z:PROC ; ioGameEntity::GetMidPositionByRate
EXTRN	?IsEnableTarget@ioBaseChar@@QAE_N_N0@Z:PROC	; ioBaseChar::IsEnableTarget
EXTRN	?IsSystemState@ioBaseChar@@QAE_NXZ:PROC		; ioBaseChar::IsSystemState
EXTRN	?GetBaseChar@ioPlayStage@@QAEPAVioBaseChar@@ABVioHashString@@@Z:PROC ; ioPlayStage::GetBaseChar
; Function compile flags: /Ogsp
;	COMDAT ?OnFlyTracing@ioMineWeapon2@@IAEXPAVioPlayStage@@M@Z
_TEXT	SEGMENT
_vPreDir$531976 = -248					; size = 12
_v$538746 = -236					; size = 12
_v$538723 = -224					; size = 12
_v$538700 = -212					; size = 12
$T531982 = -200						; size = 12
_v$538793 = -188					; size = 12
$T531975 = -176						; size = 12
_value$538579 = -164					; size = 4
tv2707 = -160						; size = 4
tv2703 = -160						; size = 4
tv2667 = -160						; size = 4
_value$538583 = -160					; size = 4
_pTarget$ = -156					; size = 4
_value$538600 = -152					; size = 4
_value$538543 = -152					; size = 4
_value$538629 = -148					; size = 4
_value$538547 = -148					; size = 4
tv2547 = -144						; size = 4
tv2539 = -144						; size = 4
tv2433 = -144						; size = 4
tv2420 = -144						; size = 4
tv2359 = -144						; size = 4
tv2355 = -144						; size = 4
tv2699 = -140						; size = 4
_fPosRate$531972 = -140					; size = 4
_fRangeSq$531954 = -140					; size = 4
tv2634 = -136						; size = 4
_fTimeGap$531957 = -136					; size = 4
tv2351 = -132						; size = 4
_value$538854 = -132					; size = 4
_value$538850 = -132					; size = 4
_value$538817 = -132					; size = 4
_dwCurTime$ = -132					; size = 4
tv2655 = -128						; size = 4
tv2645 = -128						; size = 4
tv2640 = -128						; size = 4
tv2627 = -128						; size = 4
tv2411 = -128						; size = 4
_fGapAngle$531999 = -128				; size = 4
_fCos$531983 = -128					; size = 4
_fCurLoopTimePerSec$531960 = -128			; size = 4
$T531974 = -124						; size = 12
$T531994 = -112						; size = 12
$T531995 = -100						; size = 12
$T532005 = -88						; size = 12
$T531992 = -76						; size = 12
$T532017 = -64						; size = 12
_vAxis$532004 = -64					; size = 12
_vAxis1$531989 = -52					; size = 12
_vPos$532009 = -40					; size = 12
_vAxis2$531990 = -40					; size = 12
_vLength$532011 = -28					; size = 12
_vCurForce$531977 = -28					; size = 12
$T531952 = -28						; size = 12
_vDiff$531951 = -16					; size = 12
__$ArrayPad$ = -4					; size = 4
_pStage$ = 8						; size = 4
_fTimePerSec$ = 12					; size = 4
?OnFlyTracing@ioMineWeapon2@@IAEXPAVioPlayStage@@M@Z PROC ; ioMineWeapon2::OnFlyTracing, COMDAT
; _this$ = ecx

; 645  : {	

  00000	55		 push	 ebp
  00001	8b ec		 mov	 ebp, esp
  00003	81 ec f8 00 00
	00		 sub	 esp, 248		; 000000f8H
  00009	a1 00 00 00 00	 mov	 eax, DWORD PTR ___security_cookie
  0000e	33 c5		 xor	 eax, ebp
  00010	89 45 fc	 mov	 DWORD PTR __$ArrayPad$[ebp], eax
  00013	53		 push	 ebx
  00014	56		 push	 esi
  00015	8b 75 08	 mov	 esi, DWORD PTR _pStage$[ebp]
  00018	57		 push	 edi
  00019	8b d9		 mov	 ebx, ecx

; 646  : 	DWORD dwCurTime = FRAMEGETTIME();

  0001b	ff 15 00 00 00
	00		 call	 DWORD PTR __imp_?GetSingleton@ioFrameTimer@@SAAAV1@XZ
  00021	8b c8		 mov	 ecx, eax
  00023	ff 15 00 00 00
	00		 call	 DWORD PTR __imp_?GetLoopSec@ioFrameTimer@@QBEKXZ

; 647  : 	ioBaseChar *pTarget = pStage->GetBaseChar( m_szTargetName );

  00029	8d bb ac 08 00
	00		 lea	 edi, DWORD PTR [ebx+2220]
  0002f	57		 push	 edi
  00030	8b ce		 mov	 ecx, esi
  00032	89 85 7c ff ff
	ff		 mov	 DWORD PTR _dwCurTime$[ebp], eax
  00038	e8 00 00 00 00	 call	 ?GetBaseChar@ioPlayStage@@QAEPAVioBaseChar@@ABVioHashString@@@Z ; ioPlayStage::GetBaseChar
  0003d	8b f0		 mov	 esi, eax
  0003f	89 b5 64 ff ff
	ff		 mov	 DWORD PTR _pTarget$[ebp], esi

; 648  : 	if( pTarget )

  00045	85 f6		 test	 esi, esi
  00047	0f 84 43 0b 00
	00		 je	 $LN19@OnFlyTraci

; 649  : 	{
; 650  : 		if( pTarget->IsSystemState() || !pTarget->IsEnableTarget() )

  0004d	8b ce		 mov	 ecx, esi
  0004f	e8 00 00 00 00	 call	 ?IsSystemState@ioBaseChar@@QAE_NXZ ; ioBaseChar::IsSystemState
  00054	84 c0		 test	 al, al
  00056	75 0f		 jne	 SHORT $LN17@OnFlyTraci
  00058	6a 01		 push	 1
  0005a	6a 01		 push	 1
  0005c	8b ce		 mov	 ecx, esi
  0005e	e8 00 00 00 00	 call	 ?IsEnableTarget@ioBaseChar@@QAE_N_N0@Z ; ioBaseChar::IsEnableTarget
  00063	84 c0		 test	 al, al
  00065	75 08		 jne	 SHORT $LN18@OnFlyTraci
$LN17@OnFlyTraci:

; 651  : 		{
; 652  : 			m_szTargetName.Clear();

  00067	8b cf		 mov	 ecx, edi
  00069	ff 15 00 00 00
	00		 call	 DWORD PTR __imp_?Clear@ioHashString@@QAEXXZ
$LN18@OnFlyTraci:

; 653  : 		}
; 654  : 
; 655  : 		m_vPrePos = GetPosition();

  0006f	8b 03		 mov	 eax, DWORD PTR [ebx]
  00071	8b cb		 mov	 ecx, ebx
  00073	ff 50 70	 call	 DWORD PTR [eax+112]
  00076	8d bb bc 08 00
	00		 lea	 edi, DWORD PTR [ebx+2236]
  0007c	8b f0		 mov	 esi, eax
  0007e	a5		 movsd
  0007f	a5		 movsd
  00080	a5		 movsd

; 656  : 		D3DXVECTOR3 vDiff = pTarget->GetMidPositionByRate() - m_vPrePos;

  00081	b8 05 00 00 00	 mov	 eax, 5
  00086	8b c8		 mov	 ecx, eax
  00088	b8 0a 00 00 00	 mov	 eax, 10			; 0000000aH
  0008d	89 8d 60 ff ff
	ff		 mov	 DWORD PTR tv2707[ebp], ecx
  00093	db 85 60 ff ff
	ff		 fild	 DWORD PTR tv2707[ebp]
  00099	85 c9		 test	 ecx, ecx
  0009b	79 06		 jns	 SHORT $LN172@OnFlyTraci
  0009d	d8 05 00 00 00
	00		 fadd	 DWORD PTR __real@4f800000
$LN172@OnFlyTraci:
  000a3	89 85 60 ff ff
	ff		 mov	 DWORD PTR tv2703[ebp], eax
  000a9	db 85 60 ff ff
	ff		 fild	 DWORD PTR tv2703[ebp]
  000af	85 c0		 test	 eax, eax
  000b1	79 06		 jns	 SHORT $LN173@OnFlyTraci
  000b3	d8 05 00 00 00
	00		 fadd	 DWORD PTR __real@4f800000
$LN173@OnFlyTraci:
  000b9	de f9		 fdivp	 ST(1), ST(0)
  000bb	51		 push	 ecx
  000bc	8b 8d 64 ff ff
	ff		 mov	 ecx, DWORD PTR _pTarget$[ebp]
  000c2	8d 45 e4	 lea	 eax, DWORD PTR $T531952[ebp]
  000c5	d9 9d 74 ff ff
	ff		 fstp	 DWORD PTR tv2699[ebp]
  000cb	d9 85 74 ff ff
	ff		 fld	 DWORD PTR tv2699[ebp]
  000d1	d9 1c 24	 fstp	 DWORD PTR [esp]
  000d4	50		 push	 eax
  000d5	e8 00 00 00 00	 call	 ?GetMidPositionByRate@ioGameEntity@@QBE?AUD3DXVECTOR3@@M@Z ; ioGameEntity::GetMidPositionByRate
  000da	f3 0f 10 40 04	 movss	 xmm0, DWORD PTR [eax+4]
  000df	f3 0f 10 8b c0
	08 00 00	 movss	 xmm1, DWORD PTR [ebx+2240]
  000e7	f3 0f 10 93 c4
	08 00 00	 movss	 xmm2, DWORD PTR [ebx+2244]
  000ef	f3 0f 10 9b bc
	08 00 00	 movss	 xmm3, DWORD PTR [ebx+2236]
  000f7	0f 5a c9	 cvtps2pd xmm1, xmm1
  000fa	0f 5a d2	 cvtps2pd xmm2, xmm2
  000fd	0f 5a c0	 cvtps2pd xmm0, xmm0
  00100	f2 0f 5c c1	 subsd	 xmm0, xmm1
  00104	f3 0f 10 48 08	 movss	 xmm1, DWORD PTR [eax+8]
  00109	0f 5a c9	 cvtps2pd xmm1, xmm1
  0010c	f2 0f 5c ca	 subsd	 xmm1, xmm2
  00110	f3 0f 10 10	 movss	 xmm2, DWORD PTR [eax]
  00114	66 0f 5a c0	 cvtpd2ps xmm0, xmm0
  00118	0f 5a d2	 cvtps2pd xmm2, xmm2
  0011b	f3 0f 11 45 f4	 movss	 DWORD PTR _vDiff$531951[ebp+4], xmm0

; 657  : 
; 658  : 		float fRangeSq = D3DXVec3LengthSq( & vDiff );

  00120	f3 0f 5a c0	 cvtss2sd xmm0, xmm0
  00124	0f 5a db	 cvtps2pd xmm3, xmm3
  00127	f2 0f 5c d3	 subsd	 xmm2, xmm3
  0012b	66 0f 5a d2	 cvtpd2ps xmm2, xmm2
  0012f	f3 0f 11 55 f0	 movss	 DWORD PTR _vDiff$531951[ebp], xmm2
  00134	f2 0f 59 c0	 mulsd	 xmm0, xmm0
  00138	66 0f 5a c9	 cvtpd2ps xmm1, xmm1
  0013c	f3 0f 5a d2	 cvtss2sd xmm2, xmm2
  00140	f3 0f 11 4d f8	 movss	 DWORD PTR _vDiff$531951[ebp+8], xmm1
  00145	f2 0f 59 d2	 mulsd	 xmm2, xmm2
  00149	f3 0f 5a c9	 cvtss2sd xmm1, xmm1
  0014d	f2 0f 58 d0	 addsd	 xmm2, xmm0
  00151	f2 0f 59 c9	 mulsd	 xmm1, xmm1

; 659  : 		if( fRangeSq < m_fTraceRange * m_fTraceRange )

  00155	8d 85 68 ff ff
	ff		 lea	 eax, DWORD PTR _value$538543[ebp]
  0015b	f2 0f 58 d1	 addsd	 xmm2, xmm1
  0015f	66 0f 5a c2	 cvtpd2ps xmm0, xmm2
  00163	50		 push	 eax
  00164	8d 8b 64 09 00
	00		 lea	 ecx, DWORD PTR [ebx+2404]
  0016a	f3 0f 11 85 74
	ff ff ff	 movss	 DWORD PTR _fRangeSq$531954[ebp], xmm0
  00172	e8 00 00 00 00	 call	 ?DecryptValueToPool@?$CEncrypt@M@@QAEXPAM@Z ; CEncrypt<float>::DecryptValueToPool
  00177	8d 85 6c ff ff
	ff		 lea	 eax, DWORD PTR _value$538547[ebp]
  0017d	50		 push	 eax
  0017e	8d 8b 64 09 00
	00		 lea	 ecx, DWORD PTR [ebx+2404]
  00184	e8 00 00 00 00	 call	 ?DecryptValueToPool@?$CEncrypt@M@@QAEXPAM@Z ; CEncrypt<float>::DecryptValueToPool
  00189	f3 0f 10 8d 6c
	ff ff ff	 movss	 xmm1, DWORD PTR _value$538547[ebp]
  00191	f3 0f 10 95 68
	ff ff ff	 movss	 xmm2, DWORD PTR _value$538543[ebp]
  00199	f3 0f 10 85 74
	ff ff ff	 movss	 xmm0, DWORD PTR _fRangeSq$531954[ebp]
  001a1	0f 5a c9	 cvtps2pd xmm1, xmm1
  001a4	0f 5a d2	 cvtps2pd xmm2, xmm2
  001a7	f2 0f 59 ca	 mulsd	 xmm1, xmm2
  001ab	66 0f 5a c9	 cvtpd2ps xmm1, xmm1
  001af	0f 5a c0	 cvtps2pd xmm0, xmm0
  001b2	f3 0f 5a c9	 cvtss2sd xmm1, xmm1
  001b6	66 0f 2f c8	 comisd	 xmm1, xmm0
  001ba	0f 86 6c 08 00
	00		 jbe	 $LN14@OnFlyTraci

; 660  : 		{
; 661  : 			float fTimeGap = fTimePerSec * FLOAT1000;

  001c0	b8 e8 03 00 00	 mov	 eax, 1000		; 000003e8H
  001c5	89 85 60 ff ff
	ff		 mov	 DWORD PTR tv2667[ebp], eax
  001cb	db 85 60 ff ff
	ff		 fild	 DWORD PTR tv2667[ebp]
  001d1	85 c0		 test	 eax, eax
  001d3	79 06		 jns	 SHORT $LN174@OnFlyTraci
  001d5	d8 05 00 00 00
	00		 fadd	 DWORD PTR __real@4f800000
$LN174@OnFlyTraci:
  001db	d8 4d 0c	 fmul	 DWORD PTR _fTimePerSec$[ebp]
  001de	d9 9d 78 ff ff
	ff		 fstp	 DWORD PTR _fTimeGap$531957[ebp]

; 662  : 			float fCurLoopTimeGap;
; 663  : 			float fCurLoopTimePerSec;
; 664  : 			while( fTimeGap > 0.0f )

  001e4	d9 ee		 fldz
  001e6	d9 85 78 ff ff
	ff		 fld	 DWORD PTR _fTimeGap$531957[ebp]
  001ec	df f1		 fcomip	 ST(1)
  001ee	dd d8		 fstp	 ST(0)
  001f0	0f 86 36 08 00
	00		 jbe	 $LN14@OnFlyTraci
$LL15@OnFlyTraci:

; 665  : 			{
; 666  : 				if( fTimeGap > FLOAT10 )

  001f6	b8 0a 00 00 00	 mov	 eax, 10			; 0000000aH
  001fb	d9 85 78 ff ff
	ff		 fld	 DWORD PTR _fTimeGap$531957[ebp]
  00201	89 45 80	 mov	 DWORD PTR tv2655[ebp], eax
  00204	db 45 80	 fild	 DWORD PTR tv2655[ebp]
  00207	85 c0		 test	 eax, eax
  00209	79 06		 jns	 SHORT $LN175@OnFlyTraci
  0020b	d8 05 00 00 00
	00		 fadd	 DWORD PTR __real@4f800000
$LN175@OnFlyTraci:
  00211	d9 c9		 fxch	 ST(1)
  00213	df f1		 fcomip	 ST(1)
  00215	dd d8		 fstp	 ST(0)
  00217	76 61		 jbe	 SHORT $LN13@OnFlyTraci

; 667  : 				{
; 668  : 					fCurLoopTimeGap = FLOAT10;

  00219	b8 0a 00 00 00	 mov	 eax, 10			; 0000000aH

; 669  : 					fCurLoopTimePerSec = FLOAT10 / FLOAT1000;

  0021e	b8 0a 00 00 00	 mov	 eax, 10			; 0000000aH
  00223	8b c8		 mov	 ecx, eax
  00225	b8 e8 03 00 00	 mov	 eax, 1000		; 000003e8H
  0022a	89 4d 80	 mov	 DWORD PTR tv2645[ebp], ecx
  0022d	db 45 80	 fild	 DWORD PTR tv2645[ebp]
  00230	85 c9		 test	 ecx, ecx
  00232	79 06		 jns	 SHORT $LN176@OnFlyTraci
  00234	d8 05 00 00 00
	00		 fadd	 DWORD PTR __real@4f800000
$LN176@OnFlyTraci:
  0023a	89 45 80	 mov	 DWORD PTR tv2640[ebp], eax
  0023d	db 45 80	 fild	 DWORD PTR tv2640[ebp]
  00240	85 c0		 test	 eax, eax
  00242	79 06		 jns	 SHORT $LN177@OnFlyTraci
  00244	d8 05 00 00 00
	00		 fadd	 DWORD PTR __real@4f800000
$LN177@OnFlyTraci:
  0024a	de f9		 fdivp	 ST(1), ST(0)
  0024c	d9 5d 80	 fstp	 DWORD PTR _fCurLoopTimePerSec$531960[ebp]

; 670  : 
; 671  : 					fTimeGap -= FLOAT10;

  0024f	b8 0a 00 00 00	 mov	 eax, 10			; 0000000aH
  00254	d9 85 78 ff ff
	ff		 fld	 DWORD PTR _fTimeGap$531957[ebp]
  0025a	89 85 78 ff ff
	ff		 mov	 DWORD PTR tv2634[ebp], eax
  00260	db 85 78 ff ff
	ff		 fild	 DWORD PTR tv2634[ebp]
  00266	85 c0		 test	 eax, eax
  00268	79 06		 jns	 SHORT $LN178@OnFlyTraci
  0026a	d8 05 00 00 00
	00		 fadd	 DWORD PTR __real@4f800000
$LN178@OnFlyTraci:
  00270	de e9		 fsubp	 ST(1), ST(0)
  00272	d9 9d 78 ff ff
	ff		 fstp	 DWORD PTR _fTimeGap$531957[ebp]

; 672  : 				}
; 673  : 				else

  00278	eb 2b		 jmp	 SHORT $LN12@OnFlyTraci
$LN13@OnFlyTraci:

; 674  : 				{
; 675  : 					fCurLoopTimeGap = fTimeGap;
; 676  : 					fCurLoopTimePerSec = fTimeGap / FLOAT1000;

  0027a	b8 e8 03 00 00	 mov	 eax, 1000		; 000003e8H
  0027f	d9 85 78 ff ff
	ff		 fld	 DWORD PTR _fTimeGap$531957[ebp]
  00285	89 45 80	 mov	 DWORD PTR tv2627[ebp], eax
  00288	db 45 80	 fild	 DWORD PTR tv2627[ebp]
  0028b	85 c0		 test	 eax, eax
  0028d	79 06		 jns	 SHORT $LN179@OnFlyTraci
  0028f	d8 05 00 00 00
	00		 fadd	 DWORD PTR __real@4f800000
$LN179@OnFlyTraci:
  00295	de f9		 fdivp	 ST(1), ST(0)

; 677  : 
; 678  : 					fTimeGap = 0.0f;

  00297	0f 57 c0	 xorps	 xmm0, xmm0
  0029a	f3 0f 11 85 78
	ff ff ff	 movss	 DWORD PTR _fTimeGap$531957[ebp], xmm0
  002a2	d9 5d 80	 fstp	 DWORD PTR _fCurLoopTimePerSec$531960[ebp]
$LN12@OnFlyTraci:

; 679  : 				}
; 680  : 
; 681  : 				float fPosRate = m_fTargetTracePosRate;

  002a5	8d 85 5c ff ff
	ff		 lea	 eax, DWORD PTR _value$538579[ebp]
  002ab	50		 push	 eax
  002ac	8d 8b fc 09 00
	00		 lea	 ecx, DWORD PTR [ebx+2556]
  002b2	e8 00 00 00 00	 call	 ?DecryptValueToPool@?$CEncrypt@M@@QAEXPAM@Z ; CEncrypt<float>::DecryptValueToPool
  002b7	f3 0f 10 85 5c
	ff ff ff	 movss	 xmm0, DWORD PTR _value$538579[ebp]

; 682  : 				if( CheckDownTargetState( pTarget ) )

  002bf	ff b5 64 ff ff
	ff		 push	 DWORD PTR _pTarget$[ebp]
  002c5	8b cb		 mov	 ecx, ebx
  002c7	f3 0f 11 85 74
	ff ff ff	 movss	 DWORD PTR _fPosRate$531972[ebp], xmm0
  002cf	e8 00 00 00 00	 call	 ?CheckDownTargetState@ioMineWeapon2@@IAE_NPAVioBaseChar@@@Z ; ioMineWeapon2::CheckDownTargetState
  002d4	84 c0		 test	 al, al
  002d6	74 22		 je	 SHORT $LN11@OnFlyTraci

; 683  : 					fPosRate = m_fDownTargetTracePosRate;

  002d8	8d 85 60 ff ff
	ff		 lea	 eax, DWORD PTR _value$538583[ebp]
  002de	50		 push	 eax
  002df	8d 8b 2c 0a 00
	00		 lea	 ecx, DWORD PTR [ebx+2604]
  002e5	e8 00 00 00 00	 call	 ?DecryptValueToPool@?$CEncrypt@M@@QAEXPAM@Z ; CEncrypt<float>::DecryptValueToPool
  002ea	f3 0f 10 85 60
	ff ff ff	 movss	 xmm0, DWORD PTR _value$538583[ebp]
  002f2	f3 0f 11 85 74
	ff ff ff	 movss	 DWORD PTR _fPosRate$531972[ebp], xmm0
$LN11@OnFlyTraci:

; 684  : 
; 685  : 				vDiff = pTarget->GetMidPositionByRate(fPosRate) - GetPosition();

  002fa	8b 03		 mov	 eax, DWORD PTR [ebx]
  002fc	8b cb		 mov	 ecx, ebx
  002fe	ff 50 70	 call	 DWORD PTR [eax+112]
  00301	f3 0f 10 85 74
	ff ff ff	 movss	 xmm0, DWORD PTR _fPosRate$531972[ebp]
  00309	51		 push	 ecx
  0030a	8b 8d 64 ff ff
	ff		 mov	 ecx, DWORD PTR _pTarget$[ebp]
  00310	8b f0		 mov	 esi, eax
  00312	8d 45 84	 lea	 eax, DWORD PTR $T531974[ebp]
  00315	f3 0f 11 04 24	 movss	 DWORD PTR [esp], xmm0
  0031a	50		 push	 eax
  0031b	e8 00 00 00 00	 call	 ?GetMidPositionByRate@ioGameEntity@@QBE?AUD3DXVECTOR3@@M@Z ; ioGameEntity::GetMidPositionByRate
  00320	f3 0f 10 00	 movss	 xmm0, DWORD PTR [eax]
  00324	f3 0f 10 0e	 movss	 xmm1, DWORD PTR [esi]
  00328	0f 5a c0	 cvtps2pd xmm0, xmm0
  0032b	0f 5a c9	 cvtps2pd xmm1, xmm1
  0032e	f2 0f 5c c1	 subsd	 xmm0, xmm1
  00332	f3 0f 10 4e 04	 movss	 xmm1, DWORD PTR [esi+4]
  00337	66 0f 5a c0	 cvtpd2ps xmm0, xmm0
  0033b	f3 0f 11 85 50
	ff ff ff	 movss	 DWORD PTR $T531975[ebp], xmm0
  00343	f3 0f 10 40 04	 movss	 xmm0, DWORD PTR [eax+4]
  00348	0f 5a c0	 cvtps2pd xmm0, xmm0
  0034b	0f 5a c9	 cvtps2pd xmm1, xmm1
  0034e	f2 0f 5c c1	 subsd	 xmm0, xmm1
  00352	f3 0f 10 4e 08	 movss	 xmm1, DWORD PTR [esi+8]
  00357	66 0f 5a c0	 cvtpd2ps xmm0, xmm0
  0035b	f3 0f 11 85 54
	ff ff ff	 movss	 DWORD PTR $T531975[ebp+4], xmm0
  00363	f3 0f 10 40 08	 movss	 xmm0, DWORD PTR [eax+8]
  00368	0f 5a c0	 cvtps2pd xmm0, xmm0
  0036b	0f 5a c9	 cvtps2pd xmm1, xmm1
  0036e	f2 0f 5c c1	 subsd	 xmm0, xmm1
  00372	66 0f 5a c0	 cvtpd2ps xmm0, xmm0
  00376	f3 0f 11 85 58
	ff ff ff	 movss	 DWORD PTR $T531975[ebp+8], xmm0
  0037e	8d b5 50 ff ff
	ff		 lea	 esi, DWORD PTR $T531975[ebp]
  00384	8d 7d f0	 lea	 edi, DWORD PTR _vDiff$531951[ebp]
  00387	a5		 movsd

; 686  : 				D3DXVec3Normalize( &vDiff, &vDiff );

  00388	8d 45 f0	 lea	 eax, DWORD PTR _vDiff$531951[ebp]
  0038b	a5		 movsd
  0038c	50		 push	 eax
  0038d	50		 push	 eax
  0038e	a5		 movsd
  0038f	e8 00 00 00 00	 call	 _D3DXVec3Normalize@8

; 687  : 
; 688  : 				D3DXVECTOR3 vPreDir = m_vMoveDir;

  00394	8d b3 c8 08 00
	00		 lea	 esi, DWORD PTR [ebx+2248]
  0039a	8d bd 08 ff ff
	ff		 lea	 edi, DWORD PTR _vPreDir$531976[ebp]
  003a0	a5		 movsd
  003a1	a5		 movsd

; 689  : 				D3DXVECTOR3 vCurForce = m_vMoveDir * m_fTraceSpeed * fCurLoopTimePerSec;

  003a2	8d 85 68 ff ff
	ff		 lea	 eax, DWORD PTR _value$538600[ebp]
  003a8	50		 push	 eax
  003a9	8d 8b 04 09 00
	00		 lea	 ecx, DWORD PTR [ebx+2308]
  003af	a5		 movsd
  003b0	e8 00 00 00 00	 call	 ?DecryptValueToPool@?$CEncrypt@M@@QAEXPAM@Z ; CEncrypt<float>::DecryptValueToPool
  003b5	f3 0f 10 8d 68
	ff ff ff	 movss	 xmm1, DWORD PTR _value$538600[ebp]
  003bd	f3 0f 10 95 68
	ff ff ff	 movss	 xmm2, DWORD PTR _value$538600[ebp]
  003c5	f3 0f 10 9d 68
	ff ff ff	 movss	 xmm3, DWORD PTR _value$538600[ebp]
  003cd	0f 5a c9	 cvtps2pd xmm1, xmm1
  003d0	8d bb c8 08 00
	00		 lea	 edi, DWORD PTR [ebx+2248]
  003d6	f3 0f 10 07	 movss	 xmm0, DWORD PTR [edi]
  003da	0f 5a c0	 cvtps2pd xmm0, xmm0
  003dd	f2 0f 59 c1	 mulsd	 xmm0, xmm1
  003e1	f3 0f 10 4f 04	 movss	 xmm1, DWORD PTR [edi+4]
  003e6	0f 5a d2	 cvtps2pd xmm2, xmm2
  003e9	0f 5a c9	 cvtps2pd xmm1, xmm1
  003ec	f2 0f 59 ca	 mulsd	 xmm1, xmm2
  003f0	f3 0f 10 57 08	 movss	 xmm2, DWORD PTR [edi+8]
  003f5	66 0f 5a c0	 cvtpd2ps xmm0, xmm0
  003f9	0f 5a db	 cvtps2pd xmm3, xmm3
  003fc	f3 0f 5a c0	 cvtss2sd xmm0, xmm0
  00400	0f 5a d2	 cvtps2pd xmm2, xmm2
  00403	f2 0f 59 d3	 mulsd	 xmm2, xmm3
  00407	f3 0f 10 5d 80	 movss	 xmm3, DWORD PTR _fCurLoopTimePerSec$531960[ebp]
  0040c	0f 5a db	 cvtps2pd xmm3, xmm3
  0040f	f2 0f 59 c3	 mulsd	 xmm0, xmm3
  00413	66 0f 5a c0	 cvtpd2ps xmm0, xmm0
  00417	f3 0f 11 45 e4	 movss	 DWORD PTR _vCurForce$531977[ebp], xmm0
  0041c	66 0f 5a c9	 cvtpd2ps xmm1, xmm1
  00420	0f 57 c0	 xorps	 xmm0, xmm0
  00423	f3 0f 5a c1	 cvtss2sd xmm0, xmm1
  00427	f3 0f 10 4d 80	 movss	 xmm1, DWORD PTR _fCurLoopTimePerSec$531960[ebp]
  0042c	0f 5a c9	 cvtps2pd xmm1, xmm1
  0042f	f2 0f 59 c1	 mulsd	 xmm0, xmm1
  00433	66 0f 5a d2	 cvtpd2ps xmm2, xmm2
  00437	66 0f 5a c0	 cvtpd2ps xmm0, xmm0
  0043b	f3 0f 10 4d 80	 movss	 xmm1, DWORD PTR _fCurLoopTimePerSec$531960[ebp]
  00440	f3 0f 11 45 e8	 movss	 DWORD PTR _vCurForce$531977[ebp+4], xmm0
  00445	0f 57 c0	 xorps	 xmm0, xmm0
  00448	f3 0f 5a c2	 cvtss2sd xmm0, xmm2
  0044c	0f 5a c9	 cvtps2pd xmm1, xmm1

; 690  : 				m_vMoveDir = vCurForce + (vDiff * m_fTraceRotSpeed * fCurLoopTimePerSec);

  0044f	8d 85 6c ff ff
	ff		 lea	 eax, DWORD PTR _value$538629[ebp]
  00455	f2 0f 59 c1	 mulsd	 xmm0, xmm1
  00459	66 0f 5a c0	 cvtpd2ps xmm0, xmm0
  0045d	50		 push	 eax
  0045e	8d 8b 94 09 00
	00		 lea	 ecx, DWORD PTR [ebx+2452]
  00464	f3 0f 11 45 ec	 movss	 DWORD PTR _vCurForce$531977[ebp+8], xmm0
  00469	e8 00 00 00 00	 call	 ?DecryptValueToPool@?$CEncrypt@M@@QAEXPAM@Z ; CEncrypt<float>::DecryptValueToPool
  0046e	f3 0f 10 85 6c
	ff ff ff	 movss	 xmm0, DWORD PTR _value$538629[ebp]
  00476	f3 0f 10 4d f0	 movss	 xmm1, DWORD PTR _vDiff$531951[ebp]
  0047b	f3 0f 10 95 6c
	ff ff ff	 movss	 xmm2, DWORD PTR _value$538629[ebp]
  00483	f3 0f 10 9d 6c
	ff ff ff	 movss	 xmm3, DWORD PTR _value$538629[ebp]
  0048b	0f 5a c0	 cvtps2pd xmm0, xmm0
  0048e	0f 5a c9	 cvtps2pd xmm1, xmm1
  00491	f2 0f 59 c1	 mulsd	 xmm0, xmm1
  00495	f3 0f 10 4d f4	 movss	 xmm1, DWORD PTR _vDiff$531951[ebp+4]
  0049a	f2 0f 5a c0	 cvtsd2ss xmm0, xmm0
  0049e	0f 5a c9	 cvtps2pd xmm1, xmm1
  004a1	0f 5a d2	 cvtps2pd xmm2, xmm2
  004a4	f2 0f 59 ca	 mulsd	 xmm1, xmm2
  004a8	f3 0f 10 55 f8	 movss	 xmm2, DWORD PTR _vDiff$531951[ebp+8]
  004ad	f3 0f 5a c0	 cvtss2sd xmm0, xmm0
  004b1	0f 5a db	 cvtps2pd xmm3, xmm3
  004b4	0f 5a d2	 cvtps2pd xmm2, xmm2
  004b7	f2 0f 59 d3	 mulsd	 xmm2, xmm3
  004bb	f3 0f 10 5d 80	 movss	 xmm3, DWORD PTR _fCurLoopTimePerSec$531960[ebp]
  004c0	0f 5a db	 cvtps2pd xmm3, xmm3
  004c3	f2 0f 59 c3	 mulsd	 xmm0, xmm3
  004c7	f3 0f 10 5d 80	 movss	 xmm3, DWORD PTR _fCurLoopTimePerSec$531960[ebp]
  004cc	66 0f 5a c9	 cvtpd2ps xmm1, xmm1
  004d0	f2 0f 5a c0	 cvtsd2ss xmm0, xmm0
  004d4	f3 0f 5a c9	 cvtss2sd xmm1, xmm1
  004d8	0f 5a db	 cvtps2pd xmm3, xmm3
  004db	f2 0f 59 cb	 mulsd	 xmm1, xmm3
  004df	f3 0f 10 5d 80	 movss	 xmm3, DWORD PTR _fCurLoopTimePerSec$531960[ebp]
  004e4	f3 0f 5a c0	 cvtss2sd xmm0, xmm0
  004e8	66 0f 5a d2	 cvtpd2ps xmm2, xmm2
  004ec	0f 5a db	 cvtps2pd xmm3, xmm3
  004ef	f3 0f 5a d2	 cvtss2sd xmm2, xmm2
  004f3	f2 0f 59 d3	 mulsd	 xmm2, xmm3
  004f7	f3 0f 10 5d e4	 movss	 xmm3, DWORD PTR _vCurForce$531977[ebp]
  004fc	66 0f 5a c9	 cvtpd2ps xmm1, xmm1
  00500	0f 5a db	 cvtps2pd xmm3, xmm3
  00503	f2 0f 58 c3	 addsd	 xmm0, xmm3
  00507	f2 0f 5a c0	 cvtsd2ss xmm0, xmm0
  0050b	f3 0f 11 85 38
	ff ff ff	 movss	 DWORD PTR $T531982[ebp], xmm0
  00513	0f 57 c0	 xorps	 xmm0, xmm0
  00516	f3 0f 5a c1	 cvtss2sd xmm0, xmm1
  0051a	f3 0f 10 4d e8	 movss	 xmm1, DWORD PTR _vCurForce$531977[ebp+4]
  0051f	0f 5a c9	 cvtps2pd xmm1, xmm1
  00522	f2 0f 58 c1	 addsd	 xmm0, xmm1
  00526	f3 0f 10 4d ec	 movss	 xmm1, DWORD PTR _vCurForce$531977[ebp+8]
  0052b	66 0f 5a c0	 cvtpd2ps xmm0, xmm0
  0052f	f3 0f 11 85 3c
	ff ff ff	 movss	 DWORD PTR $T531982[ebp+4], xmm0
  00537	0f 57 c0	 xorps	 xmm0, xmm0
  0053a	66 0f 5a d2	 cvtpd2ps xmm2, xmm2
  0053e	f3 0f 5a c2	 cvtss2sd xmm0, xmm2
  00542	0f 5a c9	 cvtps2pd xmm1, xmm1
  00545	f2 0f 58 c1	 addsd	 xmm0, xmm1
  00549	66 0f 5a c0	 cvtpd2ps xmm0, xmm0
  0054d	f3 0f 11 85 40
	ff ff ff	 movss	 DWORD PTR $T531982[ebp+8], xmm0
  00555	8d b5 38 ff ff
	ff		 lea	 esi, DWORD PTR $T531982[ebp]
  0055b	a5		 movsd
  0055c	a5		 movsd
  0055d	a5		 movsd

; 691  : 
; 692  : 				D3DXVec3Normalize( &m_vMoveDir, &m_vMoveDir );

  0055e	8d b3 c8 08 00
	00		 lea	 esi, DWORD PTR [ebx+2248]
  00564	56		 push	 esi
  00565	56		 push	 esi
  00566	e8 00 00 00 00	 call	 _D3DXVec3Normalize@8

; 693  : 
; 694  : 				float fCos = D3DXVec3Dot( &vPreDir, &m_vMoveDir );

  0056b	d9 85 0c ff ff
	ff		 fld	 DWORD PTR _vPreDir$531976[ebp+4]
  00571	d8 4e 04	 fmul	 DWORD PTR [esi+4]
  00574	d9 85 08 ff ff
	ff		 fld	 DWORD PTR _vPreDir$531976[ebp]
  0057a	d8 0e		 fmul	 DWORD PTR [esi]
  0057c	de c1		 faddp	 ST(1), ST(0)
  0057e	d9 85 10 ff ff
	ff		 fld	 DWORD PTR _vPreDir$531976[ebp+8]
  00584	d8 4e 08	 fmul	 DWORD PTR [esi+8]
  00587	de c1		 faddp	 ST(1), ST(0)
  00589	d9 5d 80	 fstp	 DWORD PTR _fCos$531983[ebp]

; 695  : 				// 0도 일때
; 696  : 				if( fCos >= FLOAT1 )

  0058c	b8 01 00 00 00	 mov	 eax, 1
  00591	d9 45 80	 fld	 DWORD PTR _fCos$531983[ebp]
  00594	89 85 70 ff ff
	ff		 mov	 DWORD PTR tv2547[ebp], eax
  0059a	db 85 70 ff ff
	ff		 fild	 DWORD PTR tv2547[ebp]
  005a0	85 c0		 test	 eax, eax
  005a2	79 06		 jns	 SHORT $LN180@OnFlyTraci
  005a4	d8 05 00 00 00
	00		 fadd	 DWORD PTR __real@4f800000
$LN180@OnFlyTraci:
  005aa	d9 c9		 fxch	 ST(1)
  005ac	df f1		 fcomip	 ST(1)
  005ae	dd d8		 fstp	 ST(0)
  005b0	0f 83 61 04 00
	00		 jae	 $LN5@OnFlyTraci

; 697  : 				{	
; 698  : 					// 처리 필요없음
; 699  : 				}
; 700  : 				else if( fCos <= -FLOAT1 ) // 180도 일때

  005b6	b8 01 00 00 00	 mov	 eax, 1
  005bb	d9 45 80	 fld	 DWORD PTR _fCos$531983[ebp]
  005be	89 85 70 ff ff
	ff		 mov	 DWORD PTR tv2539[ebp], eax
  005c4	db 85 70 ff ff
	ff		 fild	 DWORD PTR tv2539[ebp]
  005ca	85 c0		 test	 eax, eax
  005cc	79 06		 jns	 SHORT $LN181@OnFlyTraci
  005ce	d8 05 00 00 00
	00		 fadd	 DWORD PTR __real@4f800000
$LN181@OnFlyTraci:
  005d4	d9 e0		 fchs
  005d6	df f1		 fcomip	 ST(1)
  005d8	dd d8		 fstp	 ST(0)
  005da	0f 82 10 03 00
	00		 jb	 $LN8@OnFlyTraci

; 701  : 				{
; 702  : 					D3DXVECTOR3 vAxis1, vAxis2;
; 703  : 					if( m_vMoveDir != ioMath::UNIT_Y )

  005e0	8b 0d 00 00 00
	00		 mov	 ecx, DWORD PTR __imp_?UNIT_Y@ioMath@@2UD3DXVECTOR3@@A
  005e6	f3 0f 10 36	 movss	 xmm6, DWORD PTR [esi]
  005ea	f3 0f 10 01	 movss	 xmm0, DWORD PTR [ecx]
  005ee	0f 57 c9	 xorps	 xmm1, xmm1
  005f1	0f 5a ce	 cvtps2pd xmm1, xmm6
  005f4	0f 5a c0	 cvtps2pd xmm0, xmm0
  005f7	66 0f 2e c8	 ucomisd xmm1, xmm0
  005fb	9f		 lahf
  005fc	f6 c4 44	 test	 ah, 68			; 00000044H
  005ff	7a 38		 jp	 SHORT $LN94@OnFlyTraci
  00601	f3 0f 10 46 04	 movss	 xmm0, DWORD PTR [esi+4]
  00606	f3 0f 10 49 04	 movss	 xmm1, DWORD PTR [ecx+4]
  0060b	0f 5a c0	 cvtps2pd xmm0, xmm0
  0060e	0f 5a c9	 cvtps2pd xmm1, xmm1
  00611	66 0f 2e c1	 ucomisd xmm0, xmm1
  00615	9f		 lahf
  00616	f6 c4 44	 test	 ah, 68			; 00000044H
  00619	7a 1e		 jp	 SHORT $LN94@OnFlyTraci
  0061b	f3 0f 10 46 08	 movss	 xmm0, DWORD PTR [esi+8]
  00620	f3 0f 10 49 08	 movss	 xmm1, DWORD PTR [ecx+8]
  00625	0f 5a c0	 cvtps2pd xmm0, xmm0
  00628	0f 5a c9	 cvtps2pd xmm1, xmm1
  0062b	66 0f 2e c1	 ucomisd xmm0, xmm1
  0062f	9f		 lahf
  00630	f6 c4 44	 test	 ah, 68			; 00000044H
  00633	0f 8b b5 00 00
	00		 jnp	 $LN7@OnFlyTraci
$LN94@OnFlyTraci:

; 704  : 					{
; 705  : 						D3DXVec3Cross( &vAxis1, &m_vMoveDir, &ioMath::UNIT_Y );

  00639	f3 0f 10 51 08	 movss	 xmm2, DWORD PTR [ecx+8]
  0063e	f3 0f 10 5e 08	 movss	 xmm3, DWORD PTR [esi+8]
  00643	f3 0f 10 46 04	 movss	 xmm0, DWORD PTR [esi+4]
  00648	f3 0f 10 61 04	 movss	 xmm4, DWORD PTR [ecx+4]
  0064d	0f 5a ea	 cvtps2pd xmm5, xmm2
  00650	0f 5a c8	 cvtps2pd xmm1, xmm0
  00653	f2 0f 59 cd	 mulsd	 xmm1, xmm5
  00657	0f 5a fc	 cvtps2pd xmm7, xmm4
  0065a	0f 5a d2	 cvtps2pd xmm2, xmm2
  0065d	0f 5a c0	 cvtps2pd xmm0, xmm0
  00660	0f 5a eb	 cvtps2pd xmm5, xmm3
  00663	f2 0f 59 ef	 mulsd	 xmm5, xmm7
  00667	f2 0f 5c cd	 subsd	 xmm1, xmm5
  0066b	0f 5a e4	 cvtps2pd xmm4, xmm4
  0066e	66 0f 5a c9	 cvtpd2ps xmm1, xmm1
  00672	f3 0f 11 8d 2c
	ff ff ff	 movss	 DWORD PTR _v$538700[ebp], xmm1
  0067a	8d b5 2c ff ff
	ff		 lea	 esi, DWORD PTR _v$538700[ebp]
  00680	0f 5a eb	 cvtps2pd xmm5, xmm3
  00683	f3 0f 10 19	 movss	 xmm3, DWORD PTR [ecx]
  00687	0f 5a fb	 cvtps2pd xmm7, xmm3
  0068a	f2 0f 59 ef	 mulsd	 xmm5, xmm7
  0068e	0f 5a db	 cvtps2pd xmm3, xmm3
  00691	f2 0f 59 c3	 mulsd	 xmm0, xmm3

; 706  : 						D3DXVec3Normalize( &vAxis1, &-vAxis1 );

  00695	8d 45 b4	 lea	 eax, DWORD PTR $T531992[ebp]
  00698	0f 5a fe	 cvtps2pd xmm7, xmm6
  0069b	f2 0f 59 fa	 mulsd	 xmm7, xmm2
  0069f	f2 0f 5c ef	 subsd	 xmm5, xmm7
  006a3	0f 57 d2	 xorps	 xmm2, xmm2
  006a6	66 0f 5a d5	 cvtpd2ps xmm2, xmm5
  006aa	f3 0f 11 95 30
	ff ff ff	 movss	 DWORD PTR _v$538700[ebp+4], xmm2
  006b2	0f 5a ee	 cvtps2pd xmm5, xmm6
  006b5	f2 0f 59 ec	 mulsd	 xmm5, xmm4
  006b9	f2 0f 5c e8	 subsd	 xmm5, xmm0
  006bd	f3 0f 10 05 00
	00 00 00	 movss	 xmm0, DWORD PTR __mask@@NegFloat@
  006c5	66 0f 5a dd	 cvtpd2ps xmm3, xmm5
  006c9	f3 0f 11 9d 34
	ff ff ff	 movss	 DWORD PTR _v$538700[ebp+8], xmm3
  006d1	0f 57 c8	 xorps	 xmm1, xmm0
  006d4	0f 57 d0	 xorps	 xmm2, xmm0
  006d7	0f 57 d8	 xorps	 xmm3, xmm0
  006da	f3 0f 11 4d b4	 movss	 DWORD PTR $T531992[ebp], xmm1
  006df	f3 0f 11 55 b8	 movss	 DWORD PTR $T531992[ebp+4], xmm2
  006e4	f3 0f 11 5d bc	 movss	 DWORD PTR $T531992[ebp+8], xmm3

; 707  : 					}
; 708  : 					else

  006e9	e9 b5 00 00 00	 jmp	 $LN186@OnFlyTraci
$LN7@OnFlyTraci:

; 709  : 					{
; 710  : 						D3DXVec3Cross( &vAxis1, &m_vMoveDir, &ioMath::UNIT_X );

  006ee	a1 00 00 00 00	 mov	 eax, DWORD PTR __imp_?UNIT_X@ioMath@@2UD3DXVECTOR3@@A
  006f3	f3 0f 10 50 08	 movss	 xmm2, DWORD PTR [eax+8]
  006f8	f3 0f 10 60 04	 movss	 xmm4, DWORD PTR [eax+4]
  006fd	f3 0f 10 46 04	 movss	 xmm0, DWORD PTR [esi+4]
  00702	f3 0f 10 5e 08	 movss	 xmm3, DWORD PTR [esi+8]
  00707	0f 5a ea	 cvtps2pd xmm5, xmm2
  0070a	0f 5a c8	 cvtps2pd xmm1, xmm0
  0070d	0f 5a fc	 cvtps2pd xmm7, xmm4
  00710	f2 0f 59 cd	 mulsd	 xmm1, xmm5
  00714	0f 5a d2	 cvtps2pd xmm2, xmm2
  00717	0f 5a e4	 cvtps2pd xmm4, xmm4
  0071a	0f 5a eb	 cvtps2pd xmm5, xmm3
  0071d	f2 0f 59 ef	 mulsd	 xmm5, xmm7
  00721	f2 0f 5c cd	 subsd	 xmm1, xmm5
  00725	f3 0f 10 28	 movss	 xmm5, DWORD PTR [eax]
  00729	0f 5a fd	 cvtps2pd xmm7, xmm5
  0072c	0f 5a db	 cvtps2pd xmm3, xmm3
  0072f	f2 0f 59 df	 mulsd	 xmm3, xmm7
  00733	0f 5a c0	 cvtps2pd xmm0, xmm0
  00736	66 0f 5a c9	 cvtpd2ps xmm1, xmm1
  0073a	f3 0f 11 8d 20
	ff ff ff	 movss	 DWORD PTR _v$538723[ebp], xmm1
  00742	0f 5a fe	 cvtps2pd xmm7, xmm6
  00745	f2 0f 59 fa	 mulsd	 xmm7, xmm2
  00749	f2 0f 5c df	 subsd	 xmm3, xmm7
  0074d	0f 57 d2	 xorps	 xmm2, xmm2
  00750	66 0f 5a d3	 cvtpd2ps xmm2, xmm3
  00754	f3 0f 11 95 24
	ff ff ff	 movss	 DWORD PTR _v$538723[ebp+4], xmm2
  0075c	8d b5 20 ff ff
	ff		 lea	 esi, DWORD PTR _v$538723[ebp]

; 711  : 						D3DXVec3Normalize( &vAxis1, &-vAxis1 );

  00762	8d 45 90	 lea	 eax, DWORD PTR $T531994[ebp]
  00765	0f 5a de	 cvtps2pd xmm3, xmm6
  00768	f2 0f 59 dc	 mulsd	 xmm3, xmm4
  0076c	0f 5a e5	 cvtps2pd xmm4, xmm5
  0076f	f2 0f 59 c4	 mulsd	 xmm0, xmm4
  00773	f2 0f 5c d8	 subsd	 xmm3, xmm0
  00777	f3 0f 10 05 00
	00 00 00	 movss	 xmm0, DWORD PTR __mask@@NegFloat@
  0077f	66 0f 5a db	 cvtpd2ps xmm3, xmm3
  00783	f3 0f 11 9d 28
	ff ff ff	 movss	 DWORD PTR _v$538723[ebp+8], xmm3
  0078b	0f 57 c8	 xorps	 xmm1, xmm0
  0078e	0f 57 d0	 xorps	 xmm2, xmm0
  00791	0f 57 d8	 xorps	 xmm3, xmm0
  00794	f3 0f 11 4d 90	 movss	 DWORD PTR $T531994[ebp], xmm1
  00799	f3 0f 11 55 94	 movss	 DWORD PTR $T531994[ebp+4], xmm2
  0079e	f3 0f 11 5d 98	 movss	 DWORD PTR $T531994[ebp+8], xmm3
$LN186@OnFlyTraci:

; 709  : 					{
; 710  : 						D3DXVec3Cross( &vAxis1, &m_vMoveDir, &ioMath::UNIT_X );

  007a3	8d 7d cc	 lea	 edi, DWORD PTR _vAxis1$531989[ebp]
  007a6	a5		 movsd

; 711  : 						D3DXVec3Normalize( &vAxis1, &-vAxis1 );

  007a7	50		 push	 eax
  007a8	a5		 movsd
  007a9	8d 45 cc	 lea	 eax, DWORD PTR _vAxis1$531989[ebp]
  007ac	50		 push	 eax
  007ad	a5		 movsd
  007ae	e8 00 00 00 00	 call	 _D3DXVec3Normalize@8

; 712  : 					}
; 713  : 
; 714  : 					D3DXVec3Cross( &vAxis2, &m_vMoveDir, &vAxis1 );

  007b3	f3 0f 10 83 cc
	08 00 00	 movss	 xmm0, DWORD PTR [ebx+2252]
  007bb	f3 0f 10 4d d4	 movss	 xmm1, DWORD PTR _vAxis1$531989[ebp+8]
  007c0	f3 0f 10 93 d0
	08 00 00	 movss	 xmm2, DWORD PTR [ebx+2256]
  007c8	0f 5a d8	 cvtps2pd xmm3, xmm0
  007cb	0f 5a e2	 cvtps2pd xmm4, xmm2
  007ce	0f 5a c9	 cvtps2pd xmm1, xmm1
  007d1	f2 0f 59 cb	 mulsd	 xmm1, xmm3
  007d5	f3 0f 10 5d d0	 movss	 xmm3, DWORD PTR _vAxis1$531989[ebp+4]
  007da	0f 5a db	 cvtps2pd xmm3, xmm3
  007dd	f2 0f 59 dc	 mulsd	 xmm3, xmm4
  007e1	f3 0f 10 65 cc	 movss	 xmm4, DWORD PTR _vAxis1$531989[ebp]
  007e6	f2 0f 5c cb	 subsd	 xmm1, xmm3
  007ea	f3 0f 10 9b c8
	08 00 00	 movss	 xmm3, DWORD PTR [ebx+2248]
  007f2	0f 5a e4	 cvtps2pd xmm4, xmm4
  007f5	0f 5a d2	 cvtps2pd xmm2, xmm2
  007f8	f2 0f 59 d4	 mulsd	 xmm2, xmm4
  007fc	f3 0f 10 65 d4	 movss	 xmm4, DWORD PTR _vAxis1$531989[ebp+8]
  00801	0f 5a eb	 cvtps2pd xmm5, xmm3
  00804	0f 5a e4	 cvtps2pd xmm4, xmm4
  00807	f2 0f 59 e5	 mulsd	 xmm4, xmm5
  0080b	f2 0f 5c d4	 subsd	 xmm2, xmm4
  0080f	f3 0f 10 65 d0	 movss	 xmm4, DWORD PTR _vAxis1$531989[ebp+4]
  00814	0f 5a db	 cvtps2pd xmm3, xmm3
  00817	0f 5a e4	 cvtps2pd xmm4, xmm4
  0081a	f2 0f 59 e3	 mulsd	 xmm4, xmm3
  0081e	f3 0f 10 5d cc	 movss	 xmm3, DWORD PTR _vAxis1$531989[ebp]
  00823	0f 5a db	 cvtps2pd xmm3, xmm3
  00826	0f 5a c0	 cvtps2pd xmm0, xmm0
  00829	f2 0f 59 c3	 mulsd	 xmm0, xmm3
  0082d	f2 0f 5c e0	 subsd	 xmm4, xmm0

; 715  : 					D3DXVec3Normalize( &vAxis2, &-vAxis2 );

  00831	f3 0f 10 05 00
	00 00 00	 movss	 xmm0, DWORD PTR __mask@@NegFloat@
  00839	0f 57 db	 xorps	 xmm3, xmm3
  0083c	f2 0f 5a c9	 cvtsd2ss xmm1, xmm1
  00840	f3 0f 11 8d 14
	ff ff ff	 movss	 DWORD PTR _v$538746[ebp], xmm1
  00848	66 0f 5a d2	 cvtpd2ps xmm2, xmm2
  0084c	f3 0f 11 95 18
	ff ff ff	 movss	 DWORD PTR _v$538746[ebp+4], xmm2
  00854	f2 0f 5a dc	 cvtsd2ss xmm3, xmm4
  00858	f3 0f 11 9d 1c
	ff ff ff	 movss	 DWORD PTR _v$538746[ebp+8], xmm3
  00860	8d b5 14 ff ff
	ff		 lea	 esi, DWORD PTR _v$538746[ebp]
  00866	8d 7d d8	 lea	 edi, DWORD PTR _vAxis2$531990[ebp]
  00869	a5		 movsd
  0086a	8d 45 9c	 lea	 eax, DWORD PTR $T531995[ebp]
  0086d	a5		 movsd
  0086e	50		 push	 eax
  0086f	8d 45 d8	 lea	 eax, DWORD PTR _vAxis2$531990[ebp]
  00872	0f 57 c8	 xorps	 xmm1, xmm0
  00875	0f 57 d0	 xorps	 xmm2, xmm0
  00878	0f 57 d8	 xorps	 xmm3, xmm0
  0087b	50		 push	 eax
  0087c	a5		 movsd
  0087d	f3 0f 11 4d 9c	 movss	 DWORD PTR $T531995[ebp], xmm1
  00882	f3 0f 11 55 a0	 movss	 DWORD PTR $T531995[ebp+4], xmm2
  00887	f3 0f 11 5d a4	 movss	 DWORD PTR $T531995[ebp+8], xmm3
  0088c	e8 00 00 00 00	 call	 _D3DXVec3Normalize@8

; 716  : 
; 717  : 					GetParentSceneNode()->Rotate( vAxis2, FLOAT1 );

  00891	8b 4b 04	 mov	 ecx, DWORD PTR [ebx+4]
  00894	b8 01 00 00 00	 mov	 eax, 1
  00899	8b 11		 mov	 edx, DWORD PTR [ecx]
  0089b	89 85 70 ff ff
	ff		 mov	 DWORD PTR tv2433[ebp], eax
  008a1	db 85 70 ff ff
	ff		 fild	 DWORD PTR tv2433[ebp]
  008a7	6a 01		 push	 1
  008a9	85 c0		 test	 eax, eax
  008ab	79 06		 jns	 SHORT $LN182@OnFlyTraci
  008ad	d8 05 00 00 00
	00		 fadd	 DWORD PTR __real@4f800000
$LN182@OnFlyTraci:
  008b3	51		 push	 ecx
  008b4	8d 45 d8	 lea	 eax, DWORD PTR _vAxis2$531990[ebp]
  008b7	d9 1c 24	 fstp	 DWORD PTR [esp]
  008ba	50		 push	 eax
  008bb	ff 52 50	 call	 DWORD PTR [edx+80]

; 718  : 					m_vEffectDir = vAxis2;

  008be	8d bb c8 0b 00
	00		 lea	 edi, DWORD PTR [ebx+3016]
  008c4	8d 75 d8	 lea	 esi, DWORD PTR _vAxis2$531990[ebp]
  008c7	a5		 movsd
  008c8	a5		 movsd
  008c9	a5		 movsd

; 719  : 					m_fGapAngle = FLOAT1;						

  008ca	b8 01 00 00 00	 mov	 eax, 1
  008cf	89 85 70 ff ff
	ff		 mov	 DWORD PTR tv2420[ebp], eax
  008d5	db 85 70 ff ff
	ff		 fild	 DWORD PTR tv2420[ebp]
  008db	85 c0		 test	 eax, eax
  008dd	79 06		 jns	 SHORT $LN183@OnFlyTraci
  008df	d8 05 00 00 00
	00		 fadd	 DWORD PTR __real@4f800000
$LN183@OnFlyTraci:
  008e5	d9 9b d4 0b 00
	00		 fstp	 DWORD PTR [ebx+3028]

; 720  : 				}
; 721  : 				else // 그외

  008eb	e9 27 01 00 00	 jmp	 $LN5@OnFlyTraci
$LN8@OnFlyTraci:

; 722  : 				{
; 723  : 					float fGapAngle = RADtoDEG( acos( fCos ) );

  008f0	d9 45 80	 fld	 DWORD PTR _fCos$531983[ebp]
  008f3	e8 00 00 00 00	 call	 __CIacos
  008f8	d9 5d 80	 fstp	 DWORD PTR tv2411[ebp]
  008fb	d9 45 80	 fld	 DWORD PTR tv2411[ebp]
  008fe	51		 push	 ecx
  008ff	d9 1c 24	 fstp	 DWORD PTR [esp]
  00902	e8 00 00 00 00	 call	 ??$RADtoDEG@M@@YAMM@Z	; RADtoDEG<float>

; 724  : 					m_fGapAngle = fGapAngle;
; 725  : 
; 726  : 					D3DXVECTOR3 vAxis;
; 727  : 					D3DXVec3Cross( &vAxis, &vDiff, &m_vMoveDir );

  00907	f3 0f 10 55 f4	 movss	 xmm2, DWORD PTR _vDiff$531951[ebp+4]
  0090c	d9 5d 80	 fstp	 DWORD PTR _fGapAngle$531999[ebp]
  0090f	d9 45 80	 fld	 DWORD PTR _fGapAngle$531999[ebp]
  00912	f3 0f 10 65 f8	 movss	 xmm4, DWORD PTR _vDiff$531951[ebp+8]
  00917	0f 5a d2	 cvtps2pd xmm2, xmm2
  0091a	d9 9b d4 0b 00
	00		 fstp	 DWORD PTR [ebx+3028]
  00920	f3 0f 10 46 08	 movss	 xmm0, DWORD PTR [esi+8]
  00925	f3 0f 10 5e 04	 movss	 xmm3, DWORD PTR [esi+4]
  0092a	0f 5a c8	 cvtps2pd xmm1, xmm0
  0092d	f2 0f 59 ca	 mulsd	 xmm1, xmm2
  00931	0f 5a e4	 cvtps2pd xmm4, xmm4
  00934	0f 5a d3	 cvtps2pd xmm2, xmm3
  00937	f2 0f 59 d4	 mulsd	 xmm2, xmm4
  0093b	f3 0f 10 26	 movss	 xmm4, DWORD PTR [esi]
  0093f	f2 0f 5c ca	 subsd	 xmm1, xmm2
  00943	f3 0f 10 55 f8	 movss	 xmm2, DWORD PTR _vDiff$531951[ebp+8]
  00948	0f 5a d2	 cvtps2pd xmm2, xmm2
  0094b	0f 5a ec	 cvtps2pd xmm5, xmm4
  0094e	f2 0f 59 d5	 mulsd	 xmm2, xmm5
  00952	f3 0f 10 6d f0	 movss	 xmm5, DWORD PTR _vDiff$531951[ebp]
  00957	0f 5a c0	 cvtps2pd xmm0, xmm0
  0095a	0f 5a ed	 cvtps2pd xmm5, xmm5
  0095d	f2 0f 59 c5	 mulsd	 xmm0, xmm5
  00961	f2 0f 5c d0	 subsd	 xmm2, xmm0
  00965	0f 5a e4	 cvtps2pd xmm4, xmm4
  00968	66 0f 5a c9	 cvtpd2ps xmm1, xmm1
  0096c	f3 0f 11 8d 44
	ff ff ff	 movss	 DWORD PTR _v$538793[ebp], xmm1
  00974	f2 0f 5a d2	 cvtsd2ss xmm2, xmm2
  00978	0f 5a c3	 cvtps2pd xmm0, xmm3
  0097b	f3 0f 10 5d f0	 movss	 xmm3, DWORD PTR _vDiff$531951[ebp]
  00980	0f 5a db	 cvtps2pd xmm3, xmm3
  00983	f2 0f 59 c3	 mulsd	 xmm0, xmm3
  00987	f3 0f 10 5d f4	 movss	 xmm3, DWORD PTR _vDiff$531951[ebp+4]
  0098c	0f 5a db	 cvtps2pd xmm3, xmm3
  0098f	f2 0f 59 dc	 mulsd	 xmm3, xmm4
  00993	f2 0f 5c c3	 subsd	 xmm0, xmm3
  00997	f3 0f 11 95 48
	ff ff ff	 movss	 DWORD PTR _v$538793[ebp+4], xmm2
  0099f	8d b5 44 ff ff
	ff		 lea	 esi, DWORD PTR _v$538793[ebp]
  009a5	8d 7d c0	 lea	 edi, DWORD PTR _vAxis$532004[ebp]
  009a8	59		 pop	 ecx
  009a9	66 0f 5a d8	 cvtpd2ps xmm3, xmm0

; 728  : 					D3DXVec3Normalize( &vAxis, &-vAxis );

  009ad	f3 0f 10 05 00
	00 00 00	 movss	 xmm0, DWORD PTR __mask@@NegFloat@
  009b5	f3 0f 11 9d 4c
	ff ff ff	 movss	 DWORD PTR _v$538793[ebp+8], xmm3
  009bd	a5		 movsd
  009be	8d 45 a8	 lea	 eax, DWORD PTR $T532005[ebp]
  009c1	a5		 movsd
  009c2	50		 push	 eax
  009c3	8d 45 c0	 lea	 eax, DWORD PTR _vAxis$532004[ebp]
  009c6	0f 57 c8	 xorps	 xmm1, xmm0
  009c9	0f 57 d0	 xorps	 xmm2, xmm0
  009cc	0f 57 d8	 xorps	 xmm3, xmm0
  009cf	50		 push	 eax
  009d0	a5		 movsd
  009d1	f3 0f 11 4d a8	 movss	 DWORD PTR $T532005[ebp], xmm1
  009d6	f3 0f 11 55 ac	 movss	 DWORD PTR $T532005[ebp+4], xmm2
  009db	f3 0f 11 5d b0	 movss	 DWORD PTR $T532005[ebp+8], xmm3
  009e0	e8 00 00 00 00	 call	 _D3DXVec3Normalize@8

; 729  : 
; 730  : 					GetParentSceneNode()->Rotate( vAxis, fGapAngle );						

  009e5	8b 4b 04	 mov	 ecx, DWORD PTR [ebx+4]
  009e8	f3 0f 10 45 80	 movss	 xmm0, DWORD PTR _fGapAngle$531999[ebp]
  009ed	8b 01		 mov	 eax, DWORD PTR [ecx]
  009ef	6a 01		 push	 1
  009f1	51		 push	 ecx
  009f2	8d 55 c0	 lea	 edx, DWORD PTR _vAxis$532004[ebp]
  009f5	f3 0f 11 04 24	 movss	 DWORD PTR [esp], xmm0
  009fa	52		 push	 edx
  009fb	ff 50 50	 call	 DWORD PTR [eax+80]

; 731  : 					m_vEffectDir = vAxis;
; 732  : 					m_fGapAngle = fGapAngle;						

  009fe	f3 0f 10 45 80	 movss	 xmm0, DWORD PTR _fGapAngle$531999[ebp]
  00a03	8d bb c8 0b 00
	00		 lea	 edi, DWORD PTR [ebx+3016]
  00a09	8d 75 c0	 lea	 esi, DWORD PTR _vAxis$532004[ebp]
  00a0c	a5		 movsd
  00a0d	a5		 movsd
  00a0e	a5		 movsd
  00a0f	f3 0f 11 83 d4
	0b 00 00	 movss	 DWORD PTR [ebx+3028], xmm0
$LN5@OnFlyTraci:

; 662  : 			float fCurLoopTimeGap;
; 663  : 			float fCurLoopTimePerSec;
; 664  : 			while( fTimeGap > 0.0f )

  00a17	f3 0f 10 85 78
	ff ff ff	 movss	 xmm0, DWORD PTR _fTimeGap$531957[ebp]
  00a1f	0f 2f 05 00 00
	00 00		 comiss	 xmm0, DWORD PTR __real@00000000
  00a26	0f 87 ca f7 ff
	ff		 ja	 $LL15@OnFlyTraci
$LN14@OnFlyTraci:

; 733  : 				}
; 734  : 
; 735  : 
; 736  : 			}
; 737  : 		}
; 738  : 
; 739  : 		if( m_dwTraceEndTime < dwCurTime )

  00a2c	8b 85 7c ff ff
	ff		 mov	 eax, DWORD PTR _dwCurTime$[ebp]
  00a32	39 83 f8 09 00
	00		 cmp	 DWORD PTR [ebx+2552], eax
  00a38	73 0c		 jae	 SHORT $LN171@OnFlyTraci

; 740  : 		{
; 741  : 			m_szTargetName.Clear();

  00a3a	8d 8b ac 08 00
	00		 lea	 ecx, DWORD PTR [ebx+2220]
  00a40	ff 15 00 00 00
	00		 call	 DWORD PTR __imp_?Clear@ioHashString@@QAEXXZ
$LN171@OnFlyTraci:

; 742  : 		}
; 743  : 		
; 744  : 		if( m_fTraceEndRange > 0.0f )

  00a46	8d 85 7c ff ff
	ff		 lea	 eax, DWORD PTR _value$538817[ebp]
  00a4c	50		 push	 eax
  00a4d	8d 8b c4 09 00
	00		 lea	 ecx, DWORD PTR [ebx+2500]
  00a53	e8 00 00 00 00	 call	 ?DecryptValueToPool@?$CEncrypt@M@@QAEXPAM@Z ; CEncrypt<float>::DecryptValueToPool
  00a58	f3 0f 10 85 7c
	ff ff ff	 movss	 xmm0, DWORD PTR _value$538817[ebp]
  00a60	0f 2f 05 00 00
	00 00		 comiss	 xmm0, DWORD PTR __real@00000000
  00a67	0f 86 2b 01 00
	00		 jbe	 $LN1@OnFlyTraci

; 745  : 		{
; 746  : 			D3DXVECTOR3 vPos = pTarget->GetMidPositionByRate();

  00a6d	b8 05 00 00 00	 mov	 eax, 5
  00a72	8b c8		 mov	 ecx, eax
  00a74	b8 0a 00 00 00	 mov	 eax, 10			; 0000000aH
  00a79	89 8d 70 ff ff
	ff		 mov	 DWORD PTR tv2359[ebp], ecx
  00a7f	db 85 70 ff ff
	ff		 fild	 DWORD PTR tv2359[ebp]
  00a85	85 c9		 test	 ecx, ecx
  00a87	79 06		 jns	 SHORT $LN184@OnFlyTraci
  00a89	d8 05 00 00 00
	00		 fadd	 DWORD PTR __real@4f800000
$LN184@OnFlyTraci:
  00a8f	89 85 70 ff ff
	ff		 mov	 DWORD PTR tv2355[ebp], eax
  00a95	db 85 70 ff ff
	ff		 fild	 DWORD PTR tv2355[ebp]
  00a9b	85 c0		 test	 eax, eax
  00a9d	79 06		 jns	 SHORT $LN185@OnFlyTraci
  00a9f	d8 05 00 00 00
	00		 fadd	 DWORD PTR __real@4f800000
$LN185@OnFlyTraci:
  00aa5	de f9		 fdivp	 ST(1), ST(0)
  00aa7	51		 push	 ecx
  00aa8	8b 8d 64 ff ff
	ff		 mov	 ecx, DWORD PTR _pTarget$[ebp]
  00aae	8d 45 d8	 lea	 eax, DWORD PTR _vPos$532009[ebp]
  00ab1	d9 9d 7c ff ff
	ff		 fstp	 DWORD PTR tv2351[ebp]
  00ab7	d9 85 7c ff ff
	ff		 fld	 DWORD PTR tv2351[ebp]
  00abd	d9 1c 24	 fstp	 DWORD PTR [esp]
  00ac0	50		 push	 eax
  00ac1	e8 00 00 00 00	 call	 ?GetMidPositionByRate@ioGameEntity@@QBE?AUD3DXVECTOR3@@M@Z ; ioGameEntity::GetMidPositionByRate

; 747  : 			D3DXVECTOR3 vLength = vPos - GetPosition();

  00ac6	8b 03		 mov	 eax, DWORD PTR [ebx]
  00ac8	8b cb		 mov	 ecx, ebx
  00aca	ff 50 70	 call	 DWORD PTR [eax+112]
  00acd	f3 0f 10 08	 movss	 xmm1, DWORD PTR [eax]
  00ad1	f3 0f 10 45 d8	 movss	 xmm0, DWORD PTR _vPos$532009[ebp]
  00ad6	0f 5a c0	 cvtps2pd xmm0, xmm0
  00ad9	0f 5a c9	 cvtps2pd xmm1, xmm1
  00adc	f2 0f 5c c1	 subsd	 xmm0, xmm1
  00ae0	f3 0f 10 48 04	 movss	 xmm1, DWORD PTR [eax+4]
  00ae5	66 0f 5a c0	 cvtpd2ps xmm0, xmm0
  00ae9	f3 0f 11 45 e4	 movss	 DWORD PTR _vLength$532011[ebp], xmm0
  00aee	f3 0f 10 45 dc	 movss	 xmm0, DWORD PTR _vPos$532009[ebp+4]
  00af3	0f 5a c0	 cvtps2pd xmm0, xmm0
  00af6	0f 5a c9	 cvtps2pd xmm1, xmm1
  00af9	f2 0f 5c c1	 subsd	 xmm0, xmm1
  00afd	f3 0f 10 48 08	 movss	 xmm1, DWORD PTR [eax+8]
  00b02	66 0f 5a c0	 cvtpd2ps xmm0, xmm0
  00b06	f3 0f 11 45 e8	 movss	 DWORD PTR _vLength$532011[ebp+4], xmm0
  00b0b	f3 0f 10 45 e0	 movss	 xmm0, DWORD PTR _vPos$532009[ebp+8]
  00b10	0f 5a c0	 cvtps2pd xmm0, xmm0
  00b13	0f 5a c9	 cvtps2pd xmm1, xmm1

; 748  : 			float fLength = D3DXVec3Length( &vLength );
; 749  : 			if( fLength <= m_fTraceEndRange )

  00b16	8d 85 7c ff ff
	ff		 lea	 eax, DWORD PTR _value$538850[ebp]
  00b1c	f2 0f 5c c1	 subsd	 xmm0, xmm1
  00b20	66 0f 5a c0	 cvtpd2ps xmm0, xmm0
  00b24	50		 push	 eax
  00b25	8d 8b c4 09 00
	00		 lea	 ecx, DWORD PTR [ebx+2500]
  00b2b	f3 0f 11 45 ec	 movss	 DWORD PTR _vLength$532011[ebp+8], xmm0
  00b30	e8 00 00 00 00	 call	 ?DecryptValueToPool@?$CEncrypt@M@@QAEXPAM@Z ; CEncrypt<float>::DecryptValueToPool
  00b35	f3 0f 10 45 e8	 movss	 xmm0, DWORD PTR _vLength$532011[ebp+4]
  00b3a	f3 0f 10 4d e4	 movss	 xmm1, DWORD PTR _vLength$532011[ebp]
  00b3f	f3 0f 10 55 ec	 movss	 xmm2, DWORD PTR _vLength$532011[ebp+8]
  00b44	0f 5a c0	 cvtps2pd xmm0, xmm0
  00b47	f2 0f 59 c0	 mulsd	 xmm0, xmm0
  00b4b	0f 5a c9	 cvtps2pd xmm1, xmm1
  00b4e	f2 0f 59 c9	 mulsd	 xmm1, xmm1
  00b52	f2 0f 58 c8	 addsd	 xmm1, xmm0
  00b56	0f 57 c0	 xorps	 xmm0, xmm0
  00b59	0f 5a d2	 cvtps2pd xmm2, xmm2
  00b5c	f2 0f 59 d2	 mulsd	 xmm2, xmm2
  00b60	f2 0f 58 ca	 addsd	 xmm1, xmm2
  00b64	f2 0f 5a c1	 cvtsd2ss xmm0, xmm1
  00b68	f3 0f 10 8d 7c
	ff ff ff	 movss	 xmm1, DWORD PTR _value$538850[ebp]
  00b70	0f 5a c0	 cvtps2pd xmm0, xmm0
  00b73	f2 0f 51 c0	 sqrtsd	 xmm0, xmm0
  00b77	66 0f 5a c0	 cvtpd2ps xmm0, xmm0
  00b7b	f3 0f 5a c0	 cvtss2sd xmm0, xmm0
  00b7f	0f 5a c9	 cvtps2pd xmm1, xmm1
  00b82	66 0f 2f c8	 comisd	 xmm1, xmm0
  00b86	72 10		 jb	 SHORT $LN1@OnFlyTraci

; 750  : 			{
; 751  : 				m_szTargetName.Clear();

  00b88	8d 8b ac 08 00
	00		 lea	 ecx, DWORD PTR [ebx+2220]

; 752  : 			}
; 753  : 		}
; 754  : 	}
; 755  : 	else

  00b8e	eb 02		 jmp	 SHORT $LN187@OnFlyTraci
$LN19@OnFlyTraci:

; 756  : 	{
; 757  : 		m_szTargetName.Clear();

  00b90	8b cf		 mov	 ecx, edi
$LN187@OnFlyTraci:
  00b92	ff 15 00 00 00
	00		 call	 DWORD PTR __imp_?Clear@ioHashString@@QAEXXZ
$LN1@OnFlyTraci:

; 758  : 	}
; 759  : 
; 760  : 	float fMoveDist = m_fTraceSpeed * fTimePerSec;

  00b98	8d 85 7c ff ff
	ff		 lea	 eax, DWORD PTR _value$538854[ebp]
  00b9e	50		 push	 eax
  00b9f	8d 8b 04 09 00
	00		 lea	 ecx, DWORD PTR [ebx+2308]
  00ba5	e8 00 00 00 00	 call	 ?DecryptValueToPool@?$CEncrypt@M@@QAEXPAM@Z ; CEncrypt<float>::DecryptValueToPool
  00baa	f3 0f 10 85 7c
	ff ff ff	 movss	 xmm0, DWORD PTR _value$538854[ebp]
  00bb2	f3 0f 10 4d 0c	 movss	 xmm1, DWORD PTR _fTimePerSec$[ebp]

; 761  : 	GetParentSceneNode()->Translate( m_vMoveDir * fMoveDist );

  00bb7	8b 4b 04	 mov	 ecx, DWORD PTR [ebx+4]
  00bba	0f 5a c9	 cvtps2pd xmm1, xmm1
  00bbd	0f 5a c0	 cvtps2pd xmm0, xmm0
  00bc0	f2 0f 59 c1	 mulsd	 xmm0, xmm1
  00bc4	f3 0f 10 8b c8
	08 00 00	 movss	 xmm1, DWORD PTR [ebx+2248]
  00bcc	0f 5a c9	 cvtps2pd xmm1, xmm1
  00bcf	66 0f 5a c0	 cvtpd2ps xmm0, xmm0
  00bd3	0f 57 d2	 xorps	 xmm2, xmm2
  00bd6	f3 0f 5a d0	 cvtss2sd xmm2, xmm0
  00bda	f2 0f 59 ca	 mulsd	 xmm1, xmm2
  00bde	66 0f 5a c9	 cvtpd2ps xmm1, xmm1
  00be2	f3 0f 11 4d c0	 movss	 DWORD PTR $T532017[ebp], xmm1
  00be7	f3 0f 10 8b cc
	08 00 00	 movss	 xmm1, DWORD PTR [ebx+2252]
  00bef	0f 5a c9	 cvtps2pd xmm1, xmm1
  00bf2	0f 57 d2	 xorps	 xmm2, xmm2
  00bf5	f3 0f 5a d0	 cvtss2sd xmm2, xmm0
  00bf9	f2 0f 59 ca	 mulsd	 xmm1, xmm2
  00bfd	66 0f 5a c9	 cvtpd2ps xmm1, xmm1
  00c01	f3 0f 5a c0	 cvtss2sd xmm0, xmm0
  00c05	f3 0f 11 4d c4	 movss	 DWORD PTR $T532017[ebp+4], xmm1
  00c0a	f3 0f 10 8b d0
	08 00 00	 movss	 xmm1, DWORD PTR [ebx+2256]
  00c12	0f 5a c9	 cvtps2pd xmm1, xmm1
  00c15	f2 0f 59 c8	 mulsd	 xmm1, xmm0
  00c19	6a 01		 push	 1
  00c1b	66 0f 5a c1	 cvtpd2ps xmm0, xmm1
  00c1f	8d 55 c0	 lea	 edx, DWORD PTR $T532017[ebp]
  00c22	f3 0f 11 45 c8	 movss	 DWORD PTR $T532017[ebp+8], xmm0
  00c27	8b 01		 mov	 eax, DWORD PTR [ecx]
  00c29	52		 push	 edx
  00c2a	ff 50 3c	 call	 DWORD PTR [eax+60]

; 762  : 
; 763  : 	UpdateWorldCollisionBox();

  00c2d	8b cb		 mov	 ecx, ebx
  00c2f	e8 00 00 00 00	 call	 ?UpdateWorldCollisionBox@ioMineWeapon2@@IAEXXZ ; ioMineWeapon2::UpdateWorldCollisionBox

; 764  : }

  00c34	8b 4d fc	 mov	 ecx, DWORD PTR __$ArrayPad$[ebp]
  00c37	5f		 pop	 edi
  00c38	5e		 pop	 esi
  00c39	33 cd		 xor	 ecx, ebp
  00c3b	5b		 pop	 ebx
  00c3c	e8 00 00 00 00	 call	 @__security_check_cookie@4
  00c41	c9		 leave
  00c42	c2 08 00	 ret	 8
?OnFlyTracing@ioMineWeapon2@@IAEXPAVioPlayStage@@M@Z ENDP ; ioMineWeapon2::OnFlyTracing
_TEXT	ENDS
PUBLIC	_pStage$GSCopy$
PUBLIC	__$ArrayPad$
PUBLIC	?ExplosionMine@ioMineWeapon2@@QAEXPAVioPlayStage@@_N1@Z ; ioMineWeapon2::ExplosionMine
EXTRN	__imp_?SetExtents@ioOrientBox@@QAEXHM@Z:PROC
;	COMDAT xdata$x
; File d:\lost saga for developer\youtube\tutorial\source\src\lsclient\ioweapon.h
xdata$x	SEGMENT
__unwindtable$?ExplosionMine@ioMineWeapon2@@QAEXPAVioPlayStage@@_N1@Z DD 0ffffffffH
	DD	FLAT:__unwindfunclet$?ExplosionMine@ioMineWeapon2@@QAEXPAVioPlayStage@@_N1@Z$0
__ehfuncinfo$?ExplosionMine@ioMineWeapon2@@QAEXPAVioPlayStage@@_N1@Z DD 019930522H
	DD	01H
	DD	FLAT:__unwindtable$?ExplosionMine@ioMineWeapon2@@QAEXPAVioPlayStage@@_N1@Z
	DD	2 DUP(00H)
	DD	2 DUP(00H)
	DD	00H
	DD	01H
; Function compile flags: /Ogsp
; File d:\lost saga for developer\youtube\tutorial\source\src\lsclient\iomineweapon2.cpp
xdata$x	ENDS
;	COMDAT ?ExplosionMine@ioMineWeapon2@@QAEXPAVioPlayStage@@_N1@Z
_TEXT	SEGMENT
_fHalfRange$ = -32816					; size = 4
_pStage$GSCopy$ = -32812				; size = 4
_kPacket$532043 = -32808				; size = 32792
__$ArrayPad$ = -16					; size = 4
__$EHRec$ = -12						; size = 12
_pStage$ = 8						; size = 4
_bWait$ = 12						; size = 1
_bSendNetwork$ = 16					; size = 1
?ExplosionMine@ioMineWeapon2@@QAEXPAVioPlayStage@@_N1@Z PROC ; ioMineWeapon2::ExplosionMine, COMDAT
; _this$ = ecx

; 799  : {

  00000	55		 push	 ebp
  00001	8b ec		 mov	 ebp, esp
  00003	6a ff		 push	 -1
  00005	68 00 00 00 00	 push	 __ehhandler$?ExplosionMine@ioMineWeapon2@@QAEXPAVioPlayStage@@_N1@Z
  0000a	64 a1 00 00 00
	00		 mov	 eax, DWORD PTR fs:0
  00010	50		 push	 eax
  00011	b8 24 80 00 00	 mov	 eax, 32804		; 00008024H
  00016	e8 00 00 00 00	 call	 __chkstk
  0001b	a1 00 00 00 00	 mov	 eax, DWORD PTR ___security_cookie
  00020	33 c5		 xor	 eax, ebp
  00022	89 45 f0	 mov	 DWORD PTR __$ArrayPad$[ebp], eax
  00025	53		 push	 ebx
  00026	56		 push	 esi
  00027	57		 push	 edi
  00028	50		 push	 eax
  00029	8d 45 f4	 lea	 eax, DWORD PTR __$EHRec$[ebp]
  0002c	64 a3 00 00 00
	00		 mov	 DWORD PTR fs:0, eax
  00032	8b 45 08	 mov	 eax, DWORD PTR _pStage$[ebp]
  00035	8b f1		 mov	 esi, ecx

; 800  : 	if( m_State == MS_EXPLOSION )

  00037	83 be 9c 0b 00
	00 05		 cmp	 DWORD PTR [esi+2972], 5

; 804  : 		return;
; 805  : 
; 806  : 	m_bWait = bWait;

  0003e	89 85 d4 7f ff
	ff		 mov	 DWORD PTR _pStage$GSCopy$[ebp], eax
  00044	0f 84 68 01 00
	00		 je	 $LN1@ExplosionM

; 801  : 		return;
; 802  : 
; 803  : 	if( !IsCanExplosion() )

  0004a	e8 00 00 00 00	 call	 ?IsCanExplosion@ioMineWeapon2@@QBE_NXZ ; ioMineWeapon2::IsCanExplosion
  0004f	84 c0		 test	 al, al
  00051	0f 84 5b 01 00
	00		 je	 $LN1@ExplosionM

; 807  : 
; 808  : 	float fHalfRange = m_fExplosionRange;

  00057	f3 0f 10 86 60
	0a 00 00	 movss	 xmm0, DWORD PTR [esi+2656]
  0005f	8a 45 0c	 mov	 al, BYTE PTR _bWait$[ebp]

; 809  : 	m_LocalAttackBox.SetExtents( 0, fHalfRange );

  00062	8b 3d 00 00 00
	00		 mov	 edi, DWORD PTR __imp_?SetExtents@ioOrientBox@@QAEXHM@Z
  00068	51		 push	 ecx
  00069	f3 0f 11 04 24	 movss	 DWORD PTR [esp], xmm0
  0006e	6a 00		 push	 0
  00070	8d 8e 18 0b 00
	00		 lea	 ecx, DWORD PTR [esi+2840]
  00076	88 86 5e 0b 00
	00		 mov	 BYTE PTR [esi+2910], al
  0007c	f3 0f 11 85 d0
	7f ff ff	 movss	 DWORD PTR _fHalfRange$[ebp], xmm0
  00084	ff d7		 call	 edi

; 810  : 	m_LocalAttackBox.SetExtents( 1, fHalfRange );

  00086	f3 0f 10 85 d0
	7f ff ff	 movss	 xmm0, DWORD PTR _fHalfRange$[ebp]
  0008e	51		 push	 ecx
  0008f	f3 0f 11 04 24	 movss	 DWORD PTR [esp], xmm0
  00094	6a 01		 push	 1
  00096	8d 8e 18 0b 00
	00		 lea	 ecx, DWORD PTR [esi+2840]
  0009c	ff d7		 call	 edi

; 811  : 	m_LocalAttackBox.SetExtents( 2, fHalfRange );

  0009e	f3 0f 10 85 d0
	7f ff ff	 movss	 xmm0, DWORD PTR _fHalfRange$[ebp]
  000a6	51		 push	 ecx
  000a7	f3 0f 11 04 24	 movss	 DWORD PTR [esp], xmm0
  000ac	6a 02		 push	 2
  000ae	8d 8e 18 0b 00
	00		 lea	 ecx, DWORD PTR [esi+2840]
  000b4	ff d7		 call	 edi

; 812  : 	UpdateWorldAttackBox( 0.0f, false );

  000b6	0f 57 c0	 xorps	 xmm0, xmm0
  000b9	8b 06		 mov	 eax, DWORD PTR [esi]
  000bb	33 db		 xor	 ebx, ebx
  000bd	53		 push	 ebx
  000be	51		 push	 ecx
  000bf	8b ce		 mov	 ecx, esi
  000c1	f3 0f 11 04 24	 movss	 DWORD PTR [esp], xmm0
  000c6	ff 90 38 01 00
	00		 call	 DWORD PTR [eax+312]

; 813  : 
; 814  : 	if( !m_BoomEffect.IsEmpty() )

  000cc	8d be 94 0a 00
	00		 lea	 edi, DWORD PTR [esi+2708]
  000d2	8b cf		 mov	 ecx, edi
  000d4	ff 15 00 00 00
	00		 call	 DWORD PTR __imp_?IsEmpty@ioHashString@@QBE_NXZ
  000da	84 c0		 test	 al, al
  000dc	75 23		 jne	 SHORT $LN5@ExplosionM

; 815  : 	{
; 816  : 		pStage->CreateMapEffect( m_BoomEffect,
; 817  : 			GetPosition(),
; 818  : 			GetScale() );

  000de	8b ce		 mov	 ecx, esi
  000e0	e8 00 00 00 00	 call	 ?GetScale@ioWeapon@@QBEABUD3DXVECTOR3@@XZ ; ioWeapon::GetScale
  000e5	50		 push	 eax
  000e6	8b 06		 mov	 eax, DWORD PTR [esi]
  000e8	8b ce		 mov	 ecx, esi
  000ea	ff 50 70	 call	 DWORD PTR [eax+112]
  000ed	8b 8d d4 7f ff
	ff		 mov	 ecx, DWORD PTR _pStage$GSCopy$[ebp]
  000f3	50		 push	 eax
  000f4	57		 push	 edi
  000f5	e8 00 00 00 00	 call	 ?CreateMapEffect@ioPlayStage@@QAEPAVioMapEffect@@ABVioHashString@@ABUD3DXVECTOR3@@1@Z ; ioPlayStage::CreateMapEffect

; 819  : 
; 820  : 		ioWeapon::PlayExplosionSound();

  000fa	8b ce		 mov	 ecx, esi
  000fc	e8 00 00 00 00	 call	 ?PlayExplosionSound@ioWeapon@@UAEXXZ ; ioWeapon::PlayExplosionSound
$LN5@ExplosionM:

; 821  : 	}
; 822  : 
; 823  : 	if( pStage )

  00101	39 9d d4 7f ff
	ff		 cmp	 DWORD PTR _pStage$GSCopy$[ebp], ebx
  00107	74 1e		 je	 SHORT $LN3@ExplosionM

; 824  : 	{
; 825  : 		if( m_dwFireSprayEffect != -1 )

  00109	8b 86 c4 0b 00
	00		 mov	 eax, DWORD PTR [esi+3012]
  0010f	83 f8 ff	 cmp	 eax, -1
  00112	74 13		 je	 SHORT $LN3@ExplosionM

; 826  : 		{			
; 827  : 			pStage->DestroyMapEffect( m_dwFireSprayEffect );

  00114	8b 8d d4 7f ff
	ff		 mov	 ecx, DWORD PTR _pStage$GSCopy$[ebp]
  0011a	50		 push	 eax
  0011b	e8 00 00 00 00	 call	 ?DestroyMapEffect@ioPlayStage@@QAEXK@Z ; ioPlayStage::DestroyMapEffect

; 828  : 			m_dwFireSprayEffect = -1;

  00120	83 8e c4 0b 00
	00 ff		 or	 DWORD PTR [esi+3012], -1
$LN3@ExplosionM:

; 829  : 		}
; 830  : 	}
; 831  : 
; 832  : 	m_State = MS_EXPLOSION;

  00127	c7 86 9c 0b 00
	00 05 00 00 00	 mov	 DWORD PTR [esi+2972], 5

; 833  : 
; 834  : 	if( bSendNetwork )

  00131	38 5d 10	 cmp	 BYTE PTR _bSendNetwork$[ebp], bl
  00134	74 7c		 je	 SHORT $LN1@ExplosionM

; 835  : 	{
; 836  : 		if( P2PNetwork::IsNetworkPlaying() && pStage->IsNetworkMode() )

  00136	e8 00 00 00 00	 call	 ?IsNetworkPlaying@P2PNetwork@@YA_NXZ ; P2PNetwork::IsNetworkPlaying
  0013b	84 c0		 test	 al, al
  0013d	74 73		 je	 SHORT $LN1@ExplosionM
  0013f	8b 8d d4 7f ff
	ff		 mov	 ecx, DWORD PTR _pStage$GSCopy$[ebp]
  00145	e8 00 00 00 00	 call	 ?IsNetworkMode@ioPlayStage@@QAE_NXZ ; ioPlayStage::IsNetworkMode
  0014a	84 c0		 test	 al, al
  0014c	74 64		 je	 SHORT $LN1@ExplosionM

; 837  : 		{
; 838  : 			SP2Packet kPacket( CUPK_TRACE_MINE_EXPLOSION );

  0014e	68 41 42 00 00	 push	 16961			; 00004241H
  00153	8d 8d d8 7f ff
	ff		 lea	 ecx, DWORD PTR _kPacket$532043[ebp]
  00159	e8 00 00 00 00	 call	 ??0SP2Packet@@QAE@K@Z	; SP2Packet::SP2Packet

; 839  : 			kPacket << GetOwnerName();

  0015e	8d 46 10	 lea	 eax, DWORD PTR [esi+16]
  00161	50		 push	 eax
  00162	8d 8d d8 7f ff
	ff		 lea	 ecx, DWORD PTR _kPacket$532043[ebp]
  00168	89 5d fc	 mov	 DWORD PTR __$EHRec$[ebp+8], ebx
  0016b	e8 00 00 00 00	 call	 ??6SP2Packet@@QAEAAV0@ABVioHashString@@@Z ; SP2Packet::operator<<

; 840  : 			kPacket << m_dwWeaponIdx;

  00170	ff b6 b8 04 00
	00		 push	 DWORD PTR [esi+1208]
  00176	8d 8d d8 7f ff
	ff		 lea	 ecx, DWORD PTR _kPacket$532043[ebp]
  0017c	e8 00 00 00 00	 call	 ??6SP2Packet@@QAEAAV0@K@Z ; SP2Packet::operator<<

; 841  : 			kPacket << GetPosition();

  00181	8b 06		 mov	 eax, DWORD PTR [esi]
  00183	8b ce		 mov	 ecx, esi
  00185	ff 50 70	 call	 DWORD PTR [eax+112]
  00188	50		 push	 eax
  00189	8d 8d d8 7f ff
	ff		 lea	 ecx, DWORD PTR _kPacket$532043[ebp]
  0018f	e8 00 00 00 00	 call	 ??6SP2Packet@@QAEAAV0@ABUD3DXVECTOR3@@@Z ; SP2Packet::operator<<

; 842  : 			P2PNetwork::SendToAllPlayingUser( kPacket );

  00194	8d 85 d8 7f ff
	ff		 lea	 eax, DWORD PTR _kPacket$532043[ebp]
  0019a	53		 push	 ebx
  0019b	50		 push	 eax
  0019c	e8 00 00 00 00	 call	 ?SendToAllPlayingUser@P2PNetwork@@YAXAAVSP2Packet@@PAVioBaseChar@@@Z ; P2PNetwork::SendToAllPlayingUser

; 843  : 		}

  001a1	83 4d fc ff	 or	 DWORD PTR __$EHRec$[ebp+8], -1
  001a5	59		 pop	 ecx
  001a6	59		 pop	 ecx
  001a7	8d 8d d8 7f ff
	ff		 lea	 ecx, DWORD PTR _kPacket$532043[ebp]
  001ad	e8 00 00 00 00	 call	 ??1SP2Packet@@UAE@XZ	; SP2Packet::~SP2Packet
$LN1@ExplosionM:

; 844  : 	}
; 845  : }

  001b2	8b 4d f4	 mov	 ecx, DWORD PTR __$EHRec$[ebp]
  001b5	64 89 0d 00 00
	00 00		 mov	 DWORD PTR fs:0, ecx
  001bc	59		 pop	 ecx
  001bd	5f		 pop	 edi
  001be	5e		 pop	 esi
  001bf	5b		 pop	 ebx
  001c0	8b 4d f0	 mov	 ecx, DWORD PTR __$ArrayPad$[ebp]
  001c3	33 cd		 xor	 ecx, ebp
  001c5	e8 00 00 00 00	 call	 @__security_check_cookie@4
  001ca	c9		 leave
  001cb	c2 0c 00	 ret	 12			; 0000000cH
_TEXT	ENDS
;	COMDAT text$x
text$x	SEGMENT
__unwindfunclet$?ExplosionMine@ioMineWeapon2@@QAEXPAVioPlayStage@@_N1@Z$0:
  00000	8d 8d d8 7f ff
	ff		 lea	 ecx, DWORD PTR _kPacket$532043[ebp]
  00006	e9 00 00 00 00	 jmp	 ??1SP2Packet@@UAE@XZ	; SP2Packet::~SP2Packet
__ehhandler$?ExplosionMine@ioMineWeapon2@@QAEXPAVioPlayStage@@_N1@Z:
  0000b	8b 54 24 08	 mov	 edx, DWORD PTR [esp+8]
  0000f	8d 42 0c	 lea	 eax, DWORD PTR [edx+12]
  00012	8b 8a cc 7f ff
	ff		 mov	 ecx, DWORD PTR [edx-32820]
  00018	33 c8		 xor	 ecx, eax
  0001a	e8 00 00 00 00	 call	 @__security_check_cookie@4
  0001f	8b 4a fc	 mov	 ecx, DWORD PTR [edx-4]
  00022	33 c8		 xor	 ecx, eax
  00024	e8 00 00 00 00	 call	 @__security_check_cookie@4
  00029	b8 00 00 00 00	 mov	 eax, OFFSET __ehfuncinfo$?ExplosionMine@ioMineWeapon2@@QAEXPAVioPlayStage@@_N1@Z
  0002e	e9 00 00 00 00	 jmp	 ___CxxFrameHandler3
text$x	ENDS
?ExplosionMine@ioMineWeapon2@@QAEXPAVioPlayStage@@_N1@Z ENDP ; ioMineWeapon2::ExplosionMine
PUBLIC	?NormalDeadMine@ioMineWeapon2@@QAEXPAVioPlayStage@@_N@Z ; ioMineWeapon2::NormalDeadMine
; Function compile flags: /Ogsp
;	COMDAT ?NormalDeadMine@ioMineWeapon2@@QAEXPAVioPlayStage@@_N@Z
_TEXT	SEGMENT
_pStage$ = 8						; size = 4
_bWait$ = 12						; size = 1
?NormalDeadMine@ioMineWeapon2@@QAEXPAVioPlayStage@@_N@Z PROC ; ioMineWeapon2::NormalDeadMine, COMDAT
; _this$ = ecx

; 848  : {

  00000	55		 push	 ebp
  00001	8b ec		 mov	 ebp, esp
  00003	56		 push	 esi
  00004	8b f1		 mov	 esi, ecx

; 849  : 	if( !IsCanExplosion() )	return;

  00006	e8 00 00 00 00	 call	 ?IsCanExplosion@ioMineWeapon2@@QBE_NXZ ; ioMineWeapon2::IsCanExplosion
  0000b	84 c0		 test	 al, al
  0000d	74 5c		 je	 SHORT $LN3@NormalDead

; 850  : 
; 851  : 	m_bWait = bWait;

  0000f	8a 45 0c	 mov	 al, BYTE PTR _bWait$[ebp]

; 852  : 
; 853  : 	UpdateWorldAttackBox( 0.0f, true );

  00012	0f 57 c0	 xorps	 xmm0, xmm0
  00015	57		 push	 edi
  00016	6a 01		 push	 1
  00018	51		 push	 ecx
  00019	88 86 5e 0b 00
	00		 mov	 BYTE PTR [esi+2910], al
  0001f	8b 06		 mov	 eax, DWORD PTR [esi]
  00021	8b ce		 mov	 ecx, esi
  00023	f3 0f 11 04 24	 movss	 DWORD PTR [esp], xmm0
  00028	ff 90 38 01 00
	00		 call	 DWORD PTR [eax+312]

; 854  : 
; 855  : 	if( !m_NormalDeadEffect.IsEmpty() )

  0002e	8d be a4 0a 00
	00		 lea	 edi, DWORD PTR [esi+2724]
  00034	8b cf		 mov	 ecx, edi
  00036	ff 15 00 00 00
	00		 call	 DWORD PTR __imp_?IsEmpty@ioHashString@@QBE_NXZ
  0003c	84 c0		 test	 al, al
  0003e	75 20		 jne	 SHORT $LN1@NormalDead

; 856  : 	{
; 857  : 		pStage->CreateMapEffect( m_NormalDeadEffect,
; 858  : 			GetPosition(),
; 859  : 			GetScale() );

  00040	8b ce		 mov	 ecx, esi
  00042	e8 00 00 00 00	 call	 ?GetScale@ioWeapon@@QBEABUD3DXVECTOR3@@XZ ; ioWeapon::GetScale
  00047	50		 push	 eax
  00048	8b 06		 mov	 eax, DWORD PTR [esi]
  0004a	8b ce		 mov	 ecx, esi
  0004c	ff 50 70	 call	 DWORD PTR [eax+112]
  0004f	8b 4d 08	 mov	 ecx, DWORD PTR _pStage$[ebp]
  00052	50		 push	 eax
  00053	57		 push	 edi
  00054	e8 00 00 00 00	 call	 ?CreateMapEffect@ioPlayStage@@QAEPAVioMapEffect@@ABVioHashString@@ABUD3DXVECTOR3@@1@Z ; ioPlayStage::CreateMapEffect

; 860  : 
; 861  : 		ioWeapon::PlayExplosionSound();

  00059	8b ce		 mov	 ecx, esi
  0005b	e8 00 00 00 00	 call	 ?PlayExplosionSound@ioWeapon@@UAEXXZ ; ioWeapon::PlayExplosionSound
$LN1@NormalDead:

; 862  : 	}
; 863  : 
; 864  : 	m_State = MS_NORMAL_DEAD;

  00060	c7 86 9c 0b 00
	00 06 00 00 00	 mov	 DWORD PTR [esi+2972], 6
  0006a	5f		 pop	 edi
$LN3@NormalDead:
  0006b	5e		 pop	 esi

; 865  : }

  0006c	5d		 pop	 ebp
  0006d	c2 08 00	 ret	 8
?NormalDeadMine@ioMineWeapon2@@QAEXPAVioPlayStage@@_N@Z ENDP ; ioMineWeapon2::NormalDeadMine
_TEXT	ENDS
PUBLIC	_pEntity$GSCopy$
PUBLIC	__$ArrayPad$
PUBLIC	?IsCollision@ioMineWeapon2@@UAE_NPAVioPlayEntity@@_N@Z ; ioMineWeapon2::IsCollision
EXTRN	__imp_?GetCenter@ioOrientBox@@QBEABUD3DXVECTOR3@@XZ:PROC
; Function compile flags: /Ogsp
;	COMDAT ?IsCollision@ioMineWeapon2@@UAE_NPAVioPlayEntity@@_N@Z
_TEXT	SEGMENT
_pEntity$GSCopy$ = -24					; size = 4
tv240 = -20						; size = 4
tv213 = -20						; size = 4
_fTargetDist$532146 = -20				; size = 4
_fTargetDist$532139 = -20				; size = 4
_vCenter$532148 = -16					; size = 12
_vCenter$532141 = -16					; size = 12
__$ArrayPad$ = -4					; size = 4
_pEntity$ = 8						; size = 4
_bMapCollision$ = 12					; size = 1
?IsCollision@ioMineWeapon2@@UAE_NPAVioPlayEntity@@_N@Z PROC ; ioMineWeapon2::IsCollision, COMDAT
; _this$ = ecx

; 1017 : {

  00000	55		 push	 ebp
  00001	8b ec		 mov	 ebp, esp
  00003	83 ec 18	 sub	 esp, 24			; 00000018H
  00006	a1 00 00 00 00	 mov	 eax, DWORD PTR ___security_cookie
  0000b	33 c5		 xor	 eax, ebp
  0000d	89 45 fc	 mov	 DWORD PTR __$ArrayPad$[ebp], eax
  00010	53		 push	 ebx
  00011	8b d9		 mov	 ebx, ecx

; 1018 : 	if( m_State == MS_SENSING || m_State == MS_FLY_WAIT )

  00013	8b 83 9c 0b 00
	00		 mov	 eax, DWORD PTR [ebx+2972]
  00019	56		 push	 esi
  0001a	8b 75 08	 mov	 esi, DWORD PTR _pEntity$[ebp]

; 1050 : 			{
; 1051 : 				ExplosionMine( pStage, true );

  0001d	89 75 e8	 mov	 DWORD PTR _pEntity$GSCopy$[ebp], esi
  00020	83 f8 01	 cmp	 eax, 1
  00023	74 05		 je	 SHORT $LN10@IsCollisio

; 1018 : 	if( m_State == MS_SENSING || m_State == MS_FLY_WAIT )

  00025	83 f8 03	 cmp	 eax, 3
  00028	75 12		 jne	 SHORT $LN9@IsCollisio
$LN10@IsCollisio:

; 1019 : 	{
; 1020 : 		if( ToSymbolStruct( pEntity ) )

  0002a	56		 push	 esi
  0002b	e8 00 00 00 00	 call	 ?ToSymbolStruct@@YAPAVioSymbolStruct@@PAVioGameEntity@@@Z ; ToSymbolStruct
  00030	59		 pop	 ecx
  00031	85 c0		 test	 eax, eax
  00033	74 07		 je	 SHORT $LN9@IsCollisio

; 1021 : 			return false;

  00035	32 c0		 xor	 al, al
  00037	e9 8a 00 00 00	 jmp	 $LN12@IsCollisio
$LN9@IsCollisio:

; 1022 : 	}
; 1023 : 	
; 1024 : 	if( m_State == MS_EXPLOSION )

  0003c	83 bb 9c 0b 00
	00 05		 cmp	 DWORD PTR [ebx+2972], 5
  00043	57		 push	 edi
  00044	0f 85 8c 00 00
	00		 jne	 $LN8@IsCollisio

; 1025 : 	{
; 1026 : 		float fTargetDist = -FLOAT1;

  0004a	b8 01 00 00 00	 mov	 eax, 1
  0004f	89 45 ec	 mov	 DWORD PTR tv240[ebp], eax
  00052	db 45 ec	 fild	 DWORD PTR tv240[ebp]
  00055	85 c0		 test	 eax, eax
  00057	79 06		 jns	 SHORT $LN21@IsCollisio
  00059	d8 05 00 00 00
	00		 fadd	 DWORD PTR __real@4f800000
$LN21@IsCollisio:
  0005f	d9 e0		 fchs

; 1027 : 		D3DXVECTOR3 vCenter = m_WorldCollisionBox.GetCenter();

  00061	8d 8b d4 0a 00
	00		 lea	 ecx, DWORD PTR [ebx+2772]
  00067	d9 5d ec	 fstp	 DWORD PTR _fTargetDist$532139[ebp]
  0006a	ff 15 00 00 00
	00		 call	 DWORD PTR __imp_?GetCenter@ioOrientBox@@QBEABUD3DXVECTOR3@@XZ

; 1028 : 		if( !pEntity->CheckSphereDistance( vCenter, m_fExplosionRange, fTargetDist ) )

  00070	8b 4d e8	 mov	 ecx, DWORD PTR _pEntity$GSCopy$[ebp]
  00073	f3 0f 10 83 60
	0a 00 00	 movss	 xmm0, DWORD PTR [ebx+2656]
  0007b	8b f0		 mov	 esi, eax
  0007d	8b 01		 mov	 eax, DWORD PTR [ecx]
  0007f	8d 7d f0	 lea	 edi, DWORD PTR _vCenter$532141[ebp]
  00082	a5		 movsd
  00083	8d 55 ec	 lea	 edx, DWORD PTR _fTargetDist$532139[ebp]
  00086	52		 push	 edx
  00087	a5		 movsd
  00088	51		 push	 ecx
  00089	8d 55 f0	 lea	 edx, DWORD PTR _vCenter$532141[ebp]
  0008c	f3 0f 11 04 24	 movss	 DWORD PTR [esp], xmm0
  00091	52		 push	 edx
  00092	a5		 movsd
  00093	ff 90 98 00 00
	00		 call	 DWORD PTR [eax+152]
  00099	84 c0		 test	 al, al

; 1029 : 			return false;

  0009b	74 26		 je	 SHORT $LN2@IsCollisio

; 1030 : 
; 1031 : 		if( COMPARE( fTargetDist, 0.0f, m_fExplosionRange ) )

  0009d	f3 0f 10 45 ec	 movss	 xmm0, DWORD PTR _fTargetDist$532139[ebp]
  000a2	0f 2f 05 00 00
	00 00		 comiss	 xmm0, DWORD PTR __real@00000000
  000a9	72 18		 jb	 SHORT $LN2@IsCollisio
  000ab	f3 0f 10 8b 60
	0a 00 00	 movss	 xmm1, DWORD PTR [ebx+2656]
  000b3	0f 5a c0	 cvtps2pd xmm0, xmm0
  000b6	0f 5a c9	 cvtps2pd xmm1, xmm1
  000b9	66 0f 2f c8	 comisd	 xmm1, xmm0
  000bd	0f 87 bc 00 00
	00		 ja	 $LN1@IsCollisio
$LN2@IsCollisio:

; 1055 : 		}
; 1056 : 	}
; 1057 : 
; 1058 : 	return false;

  000c3	32 c0		 xor	 al, al
$LN20@IsCollisio:
  000c5	5f		 pop	 edi
$LN12@IsCollisio:

; 1059 : }

  000c6	8b 4d fc	 mov	 ecx, DWORD PTR __$ArrayPad$[ebp]
  000c9	5e		 pop	 esi
  000ca	33 cd		 xor	 ecx, ebp
  000cc	5b		 pop	 ebx
  000cd	e8 00 00 00 00	 call	 @__security_check_cookie@4
  000d2	c9		 leave
  000d3	c2 08 00	 ret	 8
$LN8@IsCollisio:

; 1032 : 			return true;
; 1033 : 	}
; 1034 : 	else
; 1035 : 	{
; 1036 : 		if( ToBaseChar( pEntity ) == GetOwner() )

  000d6	56		 push	 esi
  000d7	e8 00 00 00 00	 call	 ?ToBaseChar@@YAPAVioBaseChar@@PAVioGameEntity@@@Z ; ToBaseChar
  000dc	59		 pop	 ecx
  000dd	8b cb		 mov	 ecx, ebx
  000df	8b f0		 mov	 esi, eax
  000e1	e8 00 00 00 00	 call	 ?GetOwner@ioWeapon@@QBEPAVioBaseChar@@XZ ; ioWeapon::GetOwner
  000e6	3b f0		 cmp	 esi, eax

; 1037 : 			return false;

  000e8	74 d9		 je	 SHORT $LN2@IsCollisio

; 1038 : 
; 1039 : 		float fTargetDist = -FLOAT1;

  000ea	b8 01 00 00 00	 mov	 eax, 1
  000ef	89 45 ec	 mov	 DWORD PTR tv213[ebp], eax
  000f2	db 45 ec	 fild	 DWORD PTR tv213[ebp]
  000f5	85 c0		 test	 eax, eax
  000f7	79 06		 jns	 SHORT $LN22@IsCollisio
  000f9	d8 05 00 00 00
	00		 fadd	 DWORD PTR __real@4f800000
$LN22@IsCollisio:
  000ff	d9 e0		 fchs

; 1040 : 		D3DXVECTOR3 vCenter = m_WorldCollisionBox.GetCenter();

  00101	8d 8b d4 0a 00
	00		 lea	 ecx, DWORD PTR [ebx+2772]
  00107	d9 5d ec	 fstp	 DWORD PTR _fTargetDist$532146[ebp]
  0010a	ff 15 00 00 00
	00		 call	 DWORD PTR __imp_?GetCenter@ioOrientBox@@QBEABUD3DXVECTOR3@@XZ

; 1041 : 		if( !pEntity->CheckSphereDistance( vCenter, m_fCollisionRange, fTargetDist ) )

  00110	8b 4d e8	 mov	 ecx, DWORD PTR _pEntity$GSCopy$[ebp]
  00113	f3 0f 10 83 5c
	0a 00 00	 movss	 xmm0, DWORD PTR [ebx+2652]
  0011b	8b f0		 mov	 esi, eax
  0011d	8b 01		 mov	 eax, DWORD PTR [ecx]
  0011f	8d 7d f0	 lea	 edi, DWORD PTR _vCenter$532148[ebp]
  00122	a5		 movsd
  00123	8d 55 ec	 lea	 edx, DWORD PTR _fTargetDist$532146[ebp]
  00126	52		 push	 edx
  00127	a5		 movsd
  00128	51		 push	 ecx
  00129	8d 55 f0	 lea	 edx, DWORD PTR _vCenter$532148[ebp]
  0012c	f3 0f 11 04 24	 movss	 DWORD PTR [esp], xmm0
  00131	52		 push	 edx
  00132	a5		 movsd
  00133	ff 90 98 00 00
	00		 call	 DWORD PTR [eax+152]
  00139	84 c0		 test	 al, al

; 1042 : 		{
; 1043 : 			return false;

  0013b	74 86		 je	 SHORT $LN2@IsCollisio

; 1044 : 		}
; 1045 : 
; 1046 : 		if( COMPARE( fTargetDist, 0.0f, m_fCollisionRange ) )

  0013d	f3 0f 10 45 ec	 movss	 xmm0, DWORD PTR _fTargetDist$532146[ebp]
  00142	0f 2f 05 00 00
	00 00		 comiss	 xmm0, DWORD PTR __real@00000000
  00149	0f 82 74 ff ff
	ff		 jb	 $LN2@IsCollisio
  0014f	f3 0f 10 8b 5c
	0a 00 00	 movss	 xmm1, DWORD PTR [ebx+2652]
  00157	0f 5a c0	 cvtps2pd xmm0, xmm0
  0015a	0f 5a c9	 cvtps2pd xmm1, xmm1
  0015d	66 0f 2f c8	 comisd	 xmm1, xmm0
  00161	0f 86 5c ff ff
	ff		 jbe	 $LN2@IsCollisio

; 1047 : 		{	
; 1048 : 			ioPlayStage * pStage = g_WeaponMgr.GetCreator();

  00167	e8 00 00 00 00	 call	 ?GetSingleton@ioWeaponManager@@SAAAV1@XZ ; ioWeaponManager::GetSingleton
  0016c	8b 40 74	 mov	 eax, DWORD PTR [eax+116]

; 1049 : 			if( pStage )

  0016f	85 c0		 test	 eax, eax
  00171	74 0c		 je	 SHORT $LN1@IsCollisio

; 1050 : 			{
; 1051 : 				ExplosionMine( pStage, true );

  00173	6a 01		 push	 1
  00175	6a 01		 push	 1
  00177	50		 push	 eax
  00178	8b cb		 mov	 ecx, ebx
  0017a	e8 00 00 00 00	 call	 ?ExplosionMine@ioMineWeapon2@@QAEXPAVioPlayStage@@_N1@Z ; ioMineWeapon2::ExplosionMine
$LN1@IsCollisio:

; 1052 : 			}
; 1053 : 
; 1054 : 			return true;

  0017f	b0 01		 mov	 al, 1
  00181	e9 3f ff ff ff	 jmp	 $LN20@IsCollisio
?IsCollision@ioMineWeapon2@@UAE_NPAVioPlayEntity@@_N@Z ENDP ; ioMineWeapon2::IsCollision
_TEXT	ENDS
PUBLIC	?TestMapCollision@ioMineWeapon2@@UAE_NPAVioOpcodeShape@@PAVioPlayStage@@PBUD3DXMATRIX@@@Z ; ioMineWeapon2::TestMapCollision
; Function compile flags: /Ogsp
;	COMDAT ?TestMapCollision@ioMineWeapon2@@UAE_NPAVioOpcodeShape@@PAVioPlayStage@@PBUD3DXMATRIX@@@Z
_TEXT	SEGMENT
_iFaceIndex$ = -4					; size = 4
_pShape$ = 8						; size = 4
_pStage$ = 12						; size = 4
_pShapeWorldMat$ = 16					; size = 4
?TestMapCollision@ioMineWeapon2@@UAE_NPAVioOpcodeShape@@PAVioPlayStage@@PBUD3DXMATRIX@@@Z PROC ; ioMineWeapon2::TestMapCollision, COMDAT
; _this$ = ecx

; 1062 : {

  00000	55		 push	 ebp
  00001	8b ec		 mov	 ebp, esp
  00003	51		 push	 ecx
  00004	56		 push	 esi
  00005	8b f1		 mov	 esi, ecx

; 1063 : 	//pShape에 대한 맵 충돌 검사를 중지 하고자 할때 TRUE
; 1064 : 	//일반 모드의 경우 월드 메쉬가 1개이지만 하우징시스템의 경우 N개 이기 때문에 TestMapCollision() 함수가 여러번 호출됨
; 1065 : 
; 1066 : 	if( m_State != MS_FLY_TRACING )

  00007	83 be 9c 0b 00
	00 04		 cmp	 DWORD PTR [esi+2972], 4

; 1067 : 		return true;

  0000e	75 2c		 jne	 SHORT $LN5@TestMapCol

; 1068 : 
; 1069 : 	int iFaceIndex = 0;
; 1070 : 	if( !pShape->FindIntersection( pShapeWorldMat, m_WorldCollisionBox, &iFaceIndex ) )

  00010	8b 4d 08	 mov	 ecx, DWORD PTR _pShape$[ebp]
  00013	8b 01		 mov	 eax, DWORD PTR [ecx]
  00015	83 65 fc 00	 and	 DWORD PTR _iFaceIndex$[ebp], 0
  00019	8d 55 fc	 lea	 edx, DWORD PTR _iFaceIndex$[ebp]
  0001c	52		 push	 edx
  0001d	8d 96 d4 0a 00
	00		 lea	 edx, DWORD PTR [esi+2772]
  00023	52		 push	 edx
  00024	ff 75 10	 push	 DWORD PTR _pShapeWorldMat$[ebp]
  00027	ff 50 30	 call	 DWORD PTR [eax+48]
  0002a	84 c0		 test	 al, al
  0002c	74 10		 je	 SHORT $LN3@TestMapCol
$LN1@TestMapCol:

; 1071 : 		return false;
; 1072 : 
; 1073 : 	ExplosionMine( pStage, true );

  0002e	6a 01		 push	 1
  00030	6a 01		 push	 1
  00032	ff 75 0c	 push	 DWORD PTR _pStage$[ebp]
  00035	8b ce		 mov	 ecx, esi
  00037	e8 00 00 00 00	 call	 ?ExplosionMine@ioMineWeapon2@@QAEXPAVioPlayStage@@_N1@Z ; ioMineWeapon2::ExplosionMine
$LN5@TestMapCol:

; 1074 : 	return true;

  0003c	b0 01		 mov	 al, 1
$LN3@TestMapCol:
  0003e	5e		 pop	 esi

; 1075 : }

  0003f	c9		 leave
  00040	c2 0c 00	 ret	 12			; 0000000cH
?TestMapCollision@ioMineWeapon2@@UAE_NPAVioOpcodeShape@@PAVioPlayStage@@PBUD3DXMATRIX@@@Z ENDP ; ioMineWeapon2::TestMapCollision
_TEXT	ENDS
PUBLIC	?CheckTargetWoundedState@ioMineWeapon2@@IAE_NPAVioBaseChar@@@Z ; ioMineWeapon2::CheckTargetWoundedState
EXTRN	?HasBuff@ioBaseChar@@QBE_NH@Z:PROC		; ioBaseChar::HasBuff
EXTRN	?IsFloating@ioBaseChar@@QAE_NXZ:PROC		; ioBaseChar::IsFloating
; Function compile flags: /Ogsp
;	COMDAT ?CheckTargetWoundedState@ioMineWeapon2@@IAE_NPAVioBaseChar@@@Z
_TEXT	SEGMENT
_value$538979 = 8					; size = 4
_value$538969 = 8					; size = 4
_value$538959 = 8					; size = 4
_value$538949 = 8					; size = 4
_pTarget$ = 8						; size = 4
?CheckTargetWoundedState@ioMineWeapon2@@IAE_NPAVioBaseChar@@@Z PROC ; ioMineWeapon2::CheckTargetWoundedState, COMDAT
; _this$ = ecx

; 1146 : {

  00000	55		 push	 ebp
  00001	8b ec		 mov	 ebp, esp
  00003	57		 push	 edi

; 1147 : 	if( !pTarget ) return false;

  00004	8b 7d 08	 mov	 edi, DWORD PTR _pTarget$[ebp]
  00007	85 ff		 test	 edi, edi
  00009	75 07		 jne	 SHORT $LN8@CheckTarge
  0000b	32 c0		 xor	 al, al
  0000d	e9 91 00 00 00	 jmp	 $LN1@CheckTarge
$LN8@CheckTarge:
  00012	53		 push	 ebx

; 1148 : 
; 1149 : 	CharState eState = pTarget->GetState();

  00013	8a 9f 10 03 00
	00		 mov	 bl, BYTE PTR [edi+784]
  00019	56		 push	 esi

; 1150 : 
; 1151 : 	if( (eState == CS_BLOW_WOUNDED && !pTarget->IsFloating()) ||
; 1152 : 		(pTarget->GetProtectionMode() != PM_NONE &&
; 1153 : 		 pTarget->GetProtectionMode() != PM_BOSS) )	

  0001a	80 fb 0c	 cmp	 bl, 12			; 0000000cH
  0001d	75 0b		 jne	 SHORT $LN5@CheckTarge
  0001f	8b cf		 mov	 ecx, edi
  00021	e8 00 00 00 00	 call	 ?IsFloating@ioBaseChar@@QAE_NXZ ; ioBaseChar::IsFloating
  00026	84 c0		 test	 al, al
  00028	74 64		 je	 SHORT $LN6@CheckTarge
$LN5@CheckTarge:
  0002a	8d 45 08	 lea	 eax, DWORD PTR _value$538949[ebp]
  0002d	50		 push	 eax
  0002e	8d 8f d8 10 00
	00		 lea	 ecx, DWORD PTR [edi+4312]
  00034	e8 00 00 00 00	 call	 ?DecryptValueToPool@?$CEncrypt@W4ProtectionMode@@@@QAEXPAW4ProtectionMode@@@Z ; CEncrypt<enum ProtectionMode>::DecryptValueToPool
  00039	83 7d 08 00	 cmp	 DWORD PTR _value$538949[ebp], 0
  0003d	74 15		 je	 SHORT $LN7@CheckTarge
  0003f	8d 45 08	 lea	 eax, DWORD PTR _value$538959[ebp]
  00042	50		 push	 eax
  00043	8d 8f d8 10 00
	00		 lea	 ecx, DWORD PTR [edi+4312]
  00049	e8 00 00 00 00	 call	 ?DecryptValueToPool@?$CEncrypt@W4ProtectionMode@@@@QAEXPAW4ProtectionMode@@@Z ; CEncrypt<enum ProtectionMode>::DecryptValueToPool
  0004e	83 7d 08 06	 cmp	 DWORD PTR _value$538959[ebp], 6

; 1154 : 	{
; 1155 : 		return false;

  00052	75 3a		 jne	 SHORT $LN6@CheckTarge
$LN7@CheckTarge:

; 1156 : 	}
; 1157 : 	else if( (eState == CS_BOUND_BLOW_WOUNDED && !pTarget->IsFloating()) &&
; 1158 : 			 (pTarget->GetProtectionMode() != PM_NONE &&
; 1159 : 			  pTarget->GetProtectionMode() != PM_BOSS))

  00054	80 fb 31	 cmp	 bl, 49			; 00000031H
  00057	75 39		 jne	 SHORT $LN3@CheckTarge
  00059	8b cf		 mov	 ecx, edi
  0005b	e8 00 00 00 00	 call	 ?IsFloating@ioBaseChar@@QAE_NXZ ; ioBaseChar::IsFloating
  00060	84 c0		 test	 al, al
  00062	75 2e		 jne	 SHORT $LN3@CheckTarge
  00064	8d 45 08	 lea	 eax, DWORD PTR _value$538969[ebp]
  00067	50		 push	 eax
  00068	8d 8f d8 10 00
	00		 lea	 ecx, DWORD PTR [edi+4312]
  0006e	e8 00 00 00 00	 call	 ?DecryptValueToPool@?$CEncrypt@W4ProtectionMode@@@@QAEXPAW4ProtectionMode@@@Z ; CEncrypt<enum ProtectionMode>::DecryptValueToPool
  00073	83 7d 08 00	 cmp	 DWORD PTR _value$538969[ebp], 0
  00077	74 19		 je	 SHORT $LN3@CheckTarge
  00079	8d 45 08	 lea	 eax, DWORD PTR _value$538979[ebp]
  0007c	50		 push	 eax
  0007d	8d 8f d8 10 00
	00		 lea	 ecx, DWORD PTR [edi+4312]
  00083	e8 00 00 00 00	 call	 ?DecryptValueToPool@?$CEncrypt@W4ProtectionMode@@@@QAEXPAW4ProtectionMode@@@Z ; CEncrypt<enum ProtectionMode>::DecryptValueToPool
  00088	83 7d 08 06	 cmp	 DWORD PTR _value$538979[ebp], 6
  0008c	74 04		 je	 SHORT $LN3@CheckTarge
$LN6@CheckTarge:

; 1160 : 	{
; 1161 : 		return false;

  0008e	32 c0		 xor	 al, al
  00090	eb 0f		 jmp	 SHORT $LN29@CheckTarge
$LN3@CheckTarge:

; 1162 : 	}
; 1163 : 	else if( pTarget->HasBuff( BT_SKIP_STUN ) )

  00092	6a 4b		 push	 75			; 0000004bH
  00094	8b cf		 mov	 ecx, edi
  00096	e8 00 00 00 00	 call	 ?HasBuff@ioBaseChar@@QBE_NH@Z ; ioBaseChar::HasBuff
  0009b	f6 d8		 neg	 al
  0009d	1a c0		 sbb	 al, al
  0009f	fe c0		 inc	 al
$LN29@CheckTarge:
  000a1	5e		 pop	 esi
  000a2	5b		 pop	 ebx
$LN1@CheckTarge:
  000a3	5f		 pop	 edi

; 1164 : 	{
; 1165 : 		return false;
; 1166 : 	}
; 1167 : 		
; 1168 : 	return true;
; 1169 : }

  000a4	5d		 pop	 ebp
  000a5	c2 04 00	 ret	 4
?CheckTargetWoundedState@ioMineWeapon2@@IAE_NPAVioBaseChar@@@Z ENDP ; ioMineWeapon2::CheckTargetWoundedState
_TEXT	ENDS
PUBLIC	??9?$_Vector_const_iterator@V?$_Vector_val@PAVioBaseChar@@V?$allocator@PAVioBaseChar@@@std@@@std@@@std@@QBE_NABV01@@Z ; std::_Vector_const_iterator<std::_Vector_val<ioBaseChar *,std::allocator<ioBaseChar *> > >::operator!=
; Function compile flags: /Ogsp
; File c:\program files (x86)\microsoft visual studio 10.0\vc\include\vector
;	COMDAT ??9?$_Vector_const_iterator@V?$_Vector_val@PAVioBaseChar@@V?$allocator@PAVioBaseChar@@@std@@@std@@@std@@QBE_NABV01@@Z
_TEXT	SEGMENT
__Right$ = 8						; size = 4
??9?$_Vector_const_iterator@V?$_Vector_val@PAVioBaseChar@@V?$allocator@PAVioBaseChar@@@std@@@std@@@std@@QBE_NABV01@@Z PROC ; std::_Vector_const_iterator<std::_Vector_val<ioBaseChar *,std::allocator<ioBaseChar *> > >::operator!=, COMDAT
; _this$ = ecx

; 207  : 		{	// test for iterator inequality

  00000	55		 push	 ebp
  00001	8b ec		 mov	 ebp, esp

; 208  : 		return (!(*this == _Right));

  00003	8b 01		 mov	 eax, DWORD PTR [ecx]
  00005	8b 55 08	 mov	 edx, DWORD PTR __Right$[ebp]
  00008	33 c9		 xor	 ecx, ecx
  0000a	3b 02		 cmp	 eax, DWORD PTR [edx]
  0000c	0f 95 c0	 setne	 al

; 209  : 		}

  0000f	5d		 pop	 ebp
  00010	c2 04 00	 ret	 4
??9?$_Vector_const_iterator@V?$_Vector_val@PAVioBaseChar@@V?$allocator@PAVioBaseChar@@@std@@@std@@@std@@QBE_NABV01@@Z ENDP ; std::_Vector_const_iterator<std::_Vector_val<ioBaseChar *,std::allocator<ioBaseChar *> > >::operator!=
_TEXT	ENDS
PUBLIC	?_Grow_to@?$vector@VioHashString@@V?$allocator@VioHashString@@@std@@@std@@IBEII@Z ; std::vector<ioHashString,std::allocator<ioHashString> >::_Grow_to
; Function compile flags: /Ogsp
;	COMDAT ?_Grow_to@?$vector@VioHashString@@V?$allocator@VioHashString@@@std@@@std@@IBEII@Z
_TEXT	SEGMENT
__Count$ = 8						; size = 4
?_Grow_to@?$vector@VioHashString@@V?$allocator@VioHashString@@@std@@@std@@IBEII@Z PROC ; std::vector<ioHashString,std::allocator<ioHashString> >::_Grow_to, COMDAT
; _this$ = ecx

; 1274 : 		{	// grow by 50% or at least to _Count

  00000	55		 push	 ebp
  00001	8b ec		 mov	 ebp, esp

; 1275 : 		size_type _Capacity = capacity();

  00003	8b 41 08	 mov	 eax, DWORD PTR [ecx+8]
  00006	2b 01		 sub	 eax, DWORD PTR [ecx]

; 1276 : 
; 1277 : 		_Capacity = max_size() - _Capacity / 2 < _Capacity
; 1278 : 			? 0 : _Capacity + _Capacity / 2;	// try to grow by 50%

  00008	ba ff ff ff 0f	 mov	 edx, 268435455		; 0fffffffH
  0000d	c1 f8 04	 sar	 eax, 4
  00010	8b c8		 mov	 ecx, eax
  00012	d1 e9		 shr	 ecx, 1
  00014	2b d1		 sub	 edx, ecx
  00016	3b d0		 cmp	 edx, eax
  00018	73 04		 jae	 SHORT $LN4@Grow_to
  0001a	33 c0		 xor	 eax, eax
  0001c	eb 02		 jmp	 SHORT $LN5@Grow_to
$LN4@Grow_to:
  0001e	03 c1		 add	 eax, ecx
$LN5@Grow_to:

; 1279 : 		if (_Capacity < _Count)

  00020	3b 45 08	 cmp	 eax, DWORD PTR __Count$[ebp]

; 1280 : 			_Capacity = _Count;

  00023	0f 42 45 08	 cmovb	 eax, DWORD PTR __Count$[ebp]

; 1281 : 		return (_Capacity);
; 1282 : 		}

  00027	5d		 pop	 ebp
  00028	c2 04 00	 ret	 4
?_Grow_to@?$vector@VioHashString@@V?$allocator@VioHashString@@@std@@@std@@IBEII@Z ENDP ; std::vector<ioHashString,std::allocator<ioHashString> >::_Grow_to
_TEXT	ENDS
PUBLIC	?_Grow_to@?$vector@UBuffInfoStruct@@V?$allocator@UBuffInfoStruct@@@std@@@std@@IBEII@Z ; std::vector<BuffInfoStruct,std::allocator<BuffInfoStruct> >::_Grow_to
; Function compile flags: /Ogsp
;	COMDAT ?_Grow_to@?$vector@UBuffInfoStruct@@V?$allocator@UBuffInfoStruct@@@std@@@std@@IBEII@Z
_TEXT	SEGMENT
__Count$ = 8						; size = 4
?_Grow_to@?$vector@UBuffInfoStruct@@V?$allocator@UBuffInfoStruct@@@std@@@std@@IBEII@Z PROC ; std::vector<BuffInfoStruct,std::allocator<BuffInfoStruct> >::_Grow_to, COMDAT
; _this$ = ecx

; 1274 : 		{	// grow by 50% or at least to _Count

  00000	55		 push	 ebp
  00001	8b ec		 mov	 ebp, esp

; 1275 : 		size_type _Capacity = capacity();

  00003	8b 41 08	 mov	 eax, DWORD PTR [ecx+8]
  00006	2b 01		 sub	 eax, DWORD PTR [ecx]
  00008	6a 14		 push	 20			; 00000014H
  0000a	99		 cdq
  0000b	59		 pop	 ecx
  0000c	f7 f9		 idiv	 ecx

; 1276 : 
; 1277 : 		_Capacity = max_size() - _Capacity / 2 < _Capacity
; 1278 : 			? 0 : _Capacity + _Capacity / 2;	// try to grow by 50%

  0000e	ba cc cc cc 0c	 mov	 edx, 214748364		; 0cccccccH
  00013	8b c8		 mov	 ecx, eax
  00015	d1 e9		 shr	 ecx, 1
  00017	2b d1		 sub	 edx, ecx
  00019	3b d0		 cmp	 edx, eax
  0001b	73 04		 jae	 SHORT $LN4@Grow_to@2
  0001d	33 c0		 xor	 eax, eax
  0001f	eb 02		 jmp	 SHORT $LN5@Grow_to@2
$LN4@Grow_to@2:
  00021	03 c1		 add	 eax, ecx
$LN5@Grow_to@2:

; 1279 : 		if (_Capacity < _Count)

  00023	3b 45 08	 cmp	 eax, DWORD PTR __Count$[ebp]

; 1280 : 			_Capacity = _Count;

  00026	0f 42 45 08	 cmovb	 eax, DWORD PTR __Count$[ebp]

; 1281 : 		return (_Capacity);
; 1282 : 		}

  0002a	5d		 pop	 ebp
  0002b	c2 04 00	 ret	 4
?_Grow_to@?$vector@UBuffInfoStruct@@V?$allocator@UBuffInfoStruct@@@std@@@std@@IBEII@Z ENDP ; std::vector<BuffInfoStruct,std::allocator<BuffInfoStruct> >::_Grow_to
_TEXT	ENDS
PUBLIC	?construct@?$allocator@UBuffInfoStruct@@@std@@QAEXPAUBuffInfoStruct@@ABU3@@Z ; std::allocator<BuffInfoStruct>::construct
; Function compile flags: /Ogsp
; File c:\program files (x86)\microsoft visual studio 10.0\vc\include\xmemory
;	COMDAT ?construct@?$allocator@UBuffInfoStruct@@@std@@QAEXPAUBuffInfoStruct@@ABU3@@Z
_TEXT	SEGMENT
__Ptr$ = 8						; size = 4
__Val$ = 12						; size = 4
?construct@?$allocator@UBuffInfoStruct@@@std@@QAEXPAUBuffInfoStruct@@ABU3@@Z PROC ; std::allocator<BuffInfoStruct>::construct, COMDAT
; _this$ = ecx

; 196  : 		{	// construct object at _Ptr with value _Val

  00000	55		 push	 ebp
  00001	8b ec		 mov	 ebp, esp

; 197  : 		_Construct(_Ptr, _Val);

  00003	ff 75 0c	 push	 DWORD PTR __Val$[ebp]
  00006	ff 75 08	 push	 DWORD PTR __Ptr$[ebp]
  00009	e8 00 00 00 00	 call	 ??$_Construct@UBuffInfoStruct@@ABU1@@std@@YAXPAUBuffInfoStruct@@ABU1@@Z ; std::_Construct<BuffInfoStruct,BuffInfoStruct const &>
  0000e	59		 pop	 ecx
  0000f	59		 pop	 ecx

; 198  : 		}

  00010	5d		 pop	 ebp
  00011	c2 08 00	 ret	 8
?construct@?$allocator@UBuffInfoStruct@@@std@@QAEXPAUBuffInfoStruct@@ABU3@@Z ENDP ; std::allocator<BuffInfoStruct>::construct
_TEXT	ENDS
PUBLIC	??$_Cons_val@V?$allocator@UBuffInfoStruct@@@std@@UBuffInfoStruct@@U3@@std@@YAXAAV?$allocator@UBuffInfoStruct@@@0@PAUBuffInfoStruct@@$$QAU2@@Z ; std::_Cons_val<std::allocator<BuffInfoStruct>,BuffInfoStruct,BuffInfoStruct>
; Function compile flags: /Ogsp
;	COMDAT ??$_Cons_val@V?$allocator@UBuffInfoStruct@@@std@@UBuffInfoStruct@@U3@@std@@YAXAAV?$allocator@UBuffInfoStruct@@@0@PAUBuffInfoStruct@@$$QAU2@@Z
_TEXT	SEGMENT
__Alval$ = 8						; size = 4
__Pdest$ = 12						; size = 4
__Src$ = 16						; size = 4
??$_Cons_val@V?$allocator@UBuffInfoStruct@@@std@@UBuffInfoStruct@@U3@@std@@YAXAAV?$allocator@UBuffInfoStruct@@@0@PAUBuffInfoStruct@@$$QAU2@@Z PROC ; std::_Cons_val<std::allocator<BuffInfoStruct>,BuffInfoStruct,BuffInfoStruct>, COMDAT

; 279  : 	{	// construct using allocator

  00000	55		 push	 ebp
  00001	8b ec		 mov	 ebp, esp

; 280  : 	_Alval.construct(_Pdest, _STD forward<_Ty2>(_Src));

  00003	ff 75 10	 push	 DWORD PTR __Src$[ebp]
  00006	8b 4d 08	 mov	 ecx, DWORD PTR __Alval$[ebp]
  00009	ff 75 0c	 push	 DWORD PTR __Pdest$[ebp]
  0000c	e8 00 00 00 00	 call	 ?construct@?$allocator@UBuffInfoStruct@@@std@@QAEXPAUBuffInfoStruct@@$$QAU3@@Z ; std::allocator<BuffInfoStruct>::construct

; 281  : 	}

  00011	5d		 pop	 ebp
  00012	c3		 ret	 0
??$_Cons_val@V?$allocator@UBuffInfoStruct@@@std@@UBuffInfoStruct@@U3@@std@@YAXAAV?$allocator@UBuffInfoStruct@@@0@PAUBuffInfoStruct@@$$QAU2@@Z ENDP ; std::_Cons_val<std::allocator<BuffInfoStruct>,BuffInfoStruct,BuffInfoStruct>
_TEXT	ENDS
PUBLIC	?GetTeam@ioPlayEntity@@QBE?AW4TeamType@@XZ	; ioPlayEntity::GetTeam
; Function compile flags: /Ogsp
; File d:\lost saga for developer\youtube\tutorial\source\src\lsclient\ioplayentity.h
;	COMDAT ?GetTeam@ioPlayEntity@@QBE?AW4TeamType@@XZ
_TEXT	SEGMENT
_value$539050 = -4					; size = 4
?GetTeam@ioPlayEntity@@QBE?AW4TeamType@@XZ PROC		; ioPlayEntity::GetTeam, COMDAT
; _this$ = ecx

; 107  : 	inline TeamType GetTeam() const { return m_TeamType; }

  00000	55		 push	 ebp
  00001	8b ec		 mov	 ebp, esp
  00003	51		 push	 ecx
  00004	8d 45 fc	 lea	 eax, DWORD PTR _value$539050[ebp]
  00007	50		 push	 eax
  00008	81 c1 90 00 00
	00		 add	 ecx, 144		; 00000090H
  0000e	e8 00 00 00 00	 call	 ?DecryptValueToPool@?$CEncrypt@W4TeamType@@@@QAEXPAW4TeamType@@@Z ; CEncrypt<enum TeamType>::DecryptValueToPool
  00013	8b 45 fc	 mov	 eax, DWORD PTR _value$539050[ebp]
  00016	c9		 leave
  00017	c3		 ret	 0
?GetTeam@ioPlayEntity@@QBE?AW4TeamType@@XZ ENDP		; ioPlayEntity::GetTeam
_TEXT	ENDS
PUBLIC	?GetTeam@ioWeapon@@QBE?AW4TeamType@@XZ		; ioWeapon::GetTeam
; Function compile flags: /Ogsp
; File d:\lost saga for developer\youtube\tutorial\source\src\lsclient\ioweapon.h
;	COMDAT ?GetTeam@ioWeapon@@QBE?AW4TeamType@@XZ
_TEXT	SEGMENT
_value$539057 = -4					; size = 4
?GetTeam@ioWeapon@@QBE?AW4TeamType@@XZ PROC		; ioWeapon::GetTeam, COMDAT
; _this$ = ecx

; 534  : 	inline TeamType GetTeam() const { return m_TeamType; }

  00000	55		 push	 ebp
  00001	8b ec		 mov	 ebp, esp
  00003	51		 push	 ecx
  00004	8d 45 fc	 lea	 eax, DWORD PTR _value$539057[ebp]
  00007	50		 push	 eax
  00008	83 c1 30	 add	 ecx, 48			; 00000030H
  0000b	e8 00 00 00 00	 call	 ?DecryptValueToPool@?$CEncrypt@W4TeamType@@@@QAEXPAW4TeamType@@@Z ; CEncrypt<enum TeamType>::DecryptValueToPool
  00010	8b 45 fc	 mov	 eax, DWORD PTR _value$539057[ebp]
  00013	c9		 leave
  00014	c3		 ret	 0
?GetTeam@ioWeapon@@QBE?AW4TeamType@@XZ ENDP		; ioWeapon::GetTeam
_TEXT	ENDS
PUBLIC	??0?$vector@VioHashString@@V?$allocator@VioHashString@@@std@@@std@@QAE@XZ ; std::vector<ioHashString,std::allocator<ioHashString> >::vector<ioHashString,std::allocator<ioHashString> >
; Function compile flags: /Ogsp
; File c:\program files (x86)\microsoft visual studio 10.0\vc\include\vector
;	COMDAT ??0?$vector@VioHashString@@V?$allocator@VioHashString@@@std@@@std@@QAE@XZ
_TEXT	SEGMENT
??0?$vector@VioHashString@@V?$allocator@VioHashString@@@std@@@std@@QAE@XZ PROC ; std::vector<ioHashString,std::allocator<ioHashString> >::vector<ioHashString,std::allocator<ioHashString> >, COMDAT
; _this$ = ecx

; 507  : 		{	// construct empty vector

  00000	8b c1		 mov	 eax, ecx
  00002	33 c9		 xor	 ecx, ecx
  00004	89 08		 mov	 DWORD PTR [eax], ecx
  00006	89 48 04	 mov	 DWORD PTR [eax+4], ecx
  00009	89 48 08	 mov	 DWORD PTR [eax+8], ecx

; 508  : 		}

  0000c	c3		 ret	 0
??0?$vector@VioHashString@@V?$allocator@VioHashString@@@std@@@std@@QAE@XZ ENDP ; std::vector<ioHashString,std::allocator<ioHashString> >::vector<ioHashString,std::allocator<ioHashString> >
_TEXT	ENDS
PUBLIC	??0?$vector@UBuffInfoStruct@@V?$allocator@UBuffInfoStruct@@@std@@@std@@QAE@XZ ; std::vector<BuffInfoStruct,std::allocator<BuffInfoStruct> >::vector<BuffInfoStruct,std::allocator<BuffInfoStruct> >
; Function compile flags: /Ogsp
;	COMDAT ??0?$vector@UBuffInfoStruct@@V?$allocator@UBuffInfoStruct@@@std@@@std@@QAE@XZ
_TEXT	SEGMENT
??0?$vector@UBuffInfoStruct@@V?$allocator@UBuffInfoStruct@@@std@@@std@@QAE@XZ PROC ; std::vector<BuffInfoStruct,std::allocator<BuffInfoStruct> >::vector<BuffInfoStruct,std::allocator<BuffInfoStruct> >, COMDAT
; _this$ = ecx

; 507  : 		{	// construct empty vector

  00000	8b c1		 mov	 eax, ecx
  00002	33 c9		 xor	 ecx, ecx
  00004	89 08		 mov	 DWORD PTR [eax], ecx
  00006	89 48 04	 mov	 DWORD PTR [eax+4], ecx
  00009	89 48 08	 mov	 DWORD PTR [eax+8], ecx

; 508  : 		}

  0000c	c3		 ret	 0
??0?$vector@UBuffInfoStruct@@V?$allocator@UBuffInfoStruct@@@std@@@std@@QAE@XZ ENDP ; std::vector<BuffInfoStruct,std::allocator<BuffInfoStruct> >::vector<BuffInfoStruct,std::allocator<BuffInfoStruct> >
_TEXT	ENDS
PUBLIC	??9?$_Vector_const_iterator@V?$_Vector_val@VioHashString@@V?$allocator@VioHashString@@@std@@@std@@@std@@QBE_NABV01@@Z ; std::_Vector_const_iterator<std::_Vector_val<ioHashString,std::allocator<ioHashString> > >::operator!=
; Function compile flags: /Ogsp
;	COMDAT ??9?$_Vector_const_iterator@V?$_Vector_val@VioHashString@@V?$allocator@VioHashString@@@std@@@std@@@std@@QBE_NABV01@@Z
_TEXT	SEGMENT
__Right$ = 8						; size = 4
??9?$_Vector_const_iterator@V?$_Vector_val@VioHashString@@V?$allocator@VioHashString@@@std@@@std@@@std@@QBE_NABV01@@Z PROC ; std::_Vector_const_iterator<std::_Vector_val<ioHashString,std::allocator<ioHashString> > >::operator!=, COMDAT
; _this$ = ecx

; 207  : 		{	// test for iterator inequality

  00000	55		 push	 ebp
  00001	8b ec		 mov	 ebp, esp

; 208  : 		return (!(*this == _Right));

  00003	8b 01		 mov	 eax, DWORD PTR [ecx]
  00005	8b 55 08	 mov	 edx, DWORD PTR __Right$[ebp]
  00008	33 c9		 xor	 ecx, ecx
  0000a	3b 02		 cmp	 eax, DWORD PTR [edx]
  0000c	0f 95 c0	 setne	 al

; 209  : 		}

  0000f	5d		 pop	 ebp
  00010	c2 04 00	 ret	 4
??9?$_Vector_const_iterator@V?$_Vector_val@VioHashString@@V?$allocator@VioHashString@@@std@@@std@@@std@@QBE_NABV01@@Z ENDP ; std::_Vector_const_iterator<std::_Vector_val<ioHashString,std::allocator<ioHashString> > >::operator!=
_TEXT	ENDS
PUBLIC	??$_Move@PAVioHashString@@PAV1@@std@@YAPAVioHashString@@PAV1@00@Z ; std::_Move<ioHashString *,ioHashString *>
; Function compile flags: /Ogsp
; File c:\program files (x86)\microsoft visual studio 10.0\vc\include\xutility
;	COMDAT ??$_Move@PAVioHashString@@PAV1@@std@@YAPAVioHashString@@PAV1@00@Z
_TEXT	SEGMENT
__Cat$539108 = -4					; size = 1
__First$ = 8						; size = 4
__Last$ = 12						; size = 4
__Dest$ = 16						; size = 4
??$_Move@PAVioHashString@@PAV1@@std@@YAPAVioHashString@@PAV1@00@Z PROC ; std::_Move<ioHashString *,ioHashString *>, COMDAT

; 2533 : 	{	// move [_First, _Last) to [_Dest, ...), unchecked

  00000	55		 push	 ebp
  00001	8b ec		 mov	 ebp, esp
  00003	51		 push	 ecx

; 2534 : 	return (_Move(_First, _Last,
; 2535 : 		_Dest, _Ptr_cat(_First, _Dest)));

  00004	ff 75 fc	 push	 DWORD PTR __Cat$539108[ebp]
  00007	ff 75 10	 push	 DWORD PTR __Dest$[ebp]
  0000a	ff 75 0c	 push	 DWORD PTR __Last$[ebp]
  0000d	ff 75 08	 push	 DWORD PTR __First$[ebp]
  00010	e8 00 00 00 00	 call	 ??$_Move@PAVioHashString@@PAV1@@std@@YAPAVioHashString@@PAV1@00U_Nonscalar_ptr_iterator_tag@0@@Z ; std::_Move<ioHashString *,ioHashString *>
  00015	83 c4 10	 add	 esp, 16			; 00000010H

; 2536 : 	}

  00018	c9		 leave
  00019	c3		 ret	 0
??$_Move@PAVioHashString@@PAV1@@std@@YAPAVioHashString@@PAV1@00@Z ENDP ; std::_Move<ioHashString *,ioHashString *>
_TEXT	ENDS
PUBLIC	?destroy@?$allocator@VioHashString@@@std@@QAEXPAVioHashString@@@Z ; std::allocator<ioHashString>::destroy
; Function compile flags: /Ogsp
; File c:\program files (x86)\microsoft visual studio 10.0\vc\include\xmemory
;	COMDAT ?destroy@?$allocator@VioHashString@@@std@@QAEXPAVioHashString@@@Z
_TEXT	SEGMENT
__Ptr$ = 8						; size = 4
?destroy@?$allocator@VioHashString@@@std@@QAEXPAVioHashString@@@Z PROC ; std::allocator<ioHashString>::destroy, COMDAT
; _this$ = ecx

; 212  : 		{	// destroy object at _Ptr

  00000	55		 push	 ebp
  00001	8b ec		 mov	 ebp, esp

; 213  : 		_Destroy(_Ptr);

  00003	8b 4d 08	 mov	 ecx, DWORD PTR __Ptr$[ebp]
  00006	ff 15 00 00 00
	00		 call	 DWORD PTR __imp_??1ioHashString@@QAE@XZ

; 214  : 		}

  0000c	5d		 pop	 ebp
  0000d	c2 04 00	 ret	 4
?destroy@?$allocator@VioHashString@@@std@@QAEXPAVioHashString@@@Z ENDP ; std::allocator<ioHashString>::destroy
_TEXT	ENDS
PUBLIC	?destroy@?$allocator@UBuffInfoStruct@@@std@@QAEXPAUBuffInfoStruct@@@Z ; std::allocator<BuffInfoStruct>::destroy
; Function compile flags: /Ogsp
;	COMDAT ?destroy@?$allocator@UBuffInfoStruct@@@std@@QAEXPAUBuffInfoStruct@@@Z
_TEXT	SEGMENT
__Ptr$ = 8						; size = 4
?destroy@?$allocator@UBuffInfoStruct@@@std@@QAEXPAUBuffInfoStruct@@@Z PROC ; std::allocator<BuffInfoStruct>::destroy, COMDAT
; _this$ = ecx

; 212  : 		{	// destroy object at _Ptr

  00000	55		 push	 ebp
  00001	8b ec		 mov	 ebp, esp

; 213  : 		_Destroy(_Ptr);

  00003	8b 4d 08	 mov	 ecx, DWORD PTR __Ptr$[ebp]
  00006	ff 15 00 00 00
	00		 call	 DWORD PTR __imp_??1ioHashString@@QAE@XZ

; 214  : 		}

  0000c	5d		 pop	 ebp
  0000d	c2 04 00	 ret	 4
?destroy@?$allocator@UBuffInfoStruct@@@std@@QAEXPAUBuffInfoStruct@@@Z ENDP ; std::allocator<BuffInfoStruct>::destroy
_TEXT	ENDS
PUBLIC	??$_Cons_val@V?$allocator@UBuffInfoStruct@@@std@@UBuffInfoStruct@@AAU3@@std@@YAXAAV?$allocator@UBuffInfoStruct@@@0@PAUBuffInfoStruct@@AAU2@@Z ; std::_Cons_val<std::allocator<BuffInfoStruct>,BuffInfoStruct,BuffInfoStruct &>
; Function compile flags: /Ogsp
;	COMDAT ??$_Cons_val@V?$allocator@UBuffInfoStruct@@@std@@UBuffInfoStruct@@AAU3@@std@@YAXAAV?$allocator@UBuffInfoStruct@@@0@PAUBuffInfoStruct@@AAU2@@Z
_TEXT	SEGMENT
__Alval$ = 8						; size = 4
__Pdest$ = 12						; size = 4
__Src$ = 16						; size = 4
??$_Cons_val@V?$allocator@UBuffInfoStruct@@@std@@UBuffInfoStruct@@AAU3@@std@@YAXAAV?$allocator@UBuffInfoStruct@@@0@PAUBuffInfoStruct@@AAU2@@Z PROC ; std::_Cons_val<std::allocator<BuffInfoStruct>,BuffInfoStruct,BuffInfoStruct &>, COMDAT

; 279  : 	{	// construct using allocator

  00000	55		 push	 ebp
  00001	8b ec		 mov	 ebp, esp

; 280  : 	_Alval.construct(_Pdest, _STD forward<_Ty2>(_Src));

  00003	ff 75 10	 push	 DWORD PTR __Src$[ebp]
  00006	8b 4d 08	 mov	 ecx, DWORD PTR __Alval$[ebp]
  00009	ff 75 0c	 push	 DWORD PTR __Pdest$[ebp]
  0000c	e8 00 00 00 00	 call	 ??$construct@AAUBuffInfoStruct@@@?$allocator@UBuffInfoStruct@@@std@@QAEXPAUBuffInfoStruct@@AAU2@@Z ; std::allocator<BuffInfoStruct>::construct<BuffInfoStruct &>

; 281  : 	}

  00011	5d		 pop	 ebp
  00012	c3		 ret	 0
??$_Cons_val@V?$allocator@UBuffInfoStruct@@@std@@UBuffInfoStruct@@AAU3@@std@@YAXAAV?$allocator@UBuffInfoStruct@@@0@PAUBuffInfoStruct@@AAU2@@Z ENDP ; std::_Cons_val<std::allocator<BuffInfoStruct>,BuffInfoStruct,BuffInfoStruct &>
_TEXT	ENDS
PUBLIC	?SetTeam@ioMineWeapon2@@UAEXPAVioPlayStage@@W4TeamType@@@Z ; ioMineWeapon2::SetTeam
EXTRN	__imp_?LoadGroup@ioEntityGroup@@QAE_NPBD_N@Z:PROC
EXTRN	__imp_?c_str@ioHashString@@QBEPBDXZ:PROC
EXTRN	?GetSingleConvertTeam@ioBaseChar@@QAE?AW4TeamType@@XZ:PROC ; ioBaseChar::GetSingleConvertTeam
EXTRN	?GetOwnerChar@ioPlayStage@@QAEPAVioBaseChar@@XZ:PROC ; ioPlayStage::GetOwnerChar
EXTRN	?SetTeam@ioWeapon@@UAEXPAVioPlayStage@@W4TeamType@@@Z:PROC ; ioWeapon::SetTeam
EXTRN	__EH_epilog3_GS:PROC
EXTRN	__EH_prolog3_GS:PROC
;	COMDAT xdata$x
; File c:\program files (x86)\microsoft directx sdk (june 2010)\include\d3dx9math.inl
xdata$x	SEGMENT
__unwindtable$?SetTeam@ioMineWeapon2@@UAEXPAVioPlayStage@@W4TeamType@@@Z DD 0ffffffffH
	DD	FLAT:__unwindfunclet$?SetTeam@ioMineWeapon2@@UAEXPAVioPlayStage@@W4TeamType@@@Z$0
__ehfuncinfo$?SetTeam@ioMineWeapon2@@UAEXPAVioPlayStage@@W4TeamType@@@Z DD 019930522H
	DD	01H
	DD	FLAT:__unwindtable$?SetTeam@ioMineWeapon2@@UAEXPAVioPlayStage@@W4TeamType@@@Z
	DD	2 DUP(00H)
	DD	2 DUP(00H)
	DD	00H
	DD	01H
; Function compile flags: /Ogsp
; File d:\lost saga for developer\youtube\tutorial\source\src\lsclient\iomineweapon2.cpp
xdata$x	ENDS
;	COMDAT ?SetTeam@ioMineWeapon2@@UAEXPAVioPlayStage@@W4TeamType@@@Z
_TEXT	SEGMENT
_value$539160 = -48					; size = 4
_szCurModel$ = -44					; size = 16
$T531682 = -28						; size = 12
__$EHRec$ = -12						; size = 12
_pStage$ = 8						; size = 4
_eType$ = 12						; size = 4
?SetTeam@ioMineWeapon2@@UAEXPAVioPlayStage@@W4TeamType@@@Z PROC ; ioMineWeapon2::SetTeam, COMDAT
; _this$ = ecx

; 209  : {

  00000	6a 24		 push	 36			; 00000024H
  00002	b8 00 00 00 00	 mov	 eax, __ehhandler$?SetTeam@ioMineWeapon2@@UAEXPAVioPlayStage@@W4TeamType@@@Z
  00007	e8 00 00 00 00	 call	 __EH_prolog3_GS
  0000c	8b 7d 08	 mov	 edi, DWORD PTR _pStage$[ebp]
  0000f	8b f1		 mov	 esi, ecx

; 210  : 	if( !pStage ) return;

  00011	85 ff		 test	 edi, edi
  00013	0f 84 a2 01 00
	00		 je	 $LN17@SetTeam

; 211  : 
; 212  : 	ioWeapon::SetTeam( pStage, eType );

  00019	8b 5d 0c	 mov	 ebx, DWORD PTR _eType$[ebp]
  0001c	53		 push	 ebx
  0001d	57		 push	 edi
  0001e	e8 00 00 00 00	 call	 ?SetTeam@ioWeapon@@UAEXPAVioPlayStage@@W4TeamType@@@Z ; ioWeapon::SetTeam

; 213  : 
; 214  : 	DestroyResource();

  00023	8b 06		 mov	 eax, DWORD PTR [esi]
  00025	6a 00		 push	 0
  00027	8b ce		 mov	 ecx, esi
  00029	ff 90 9c 00 00
	00		 call	 DWORD PTR [eax+156]

; 215  : 	ioHashString szCurModel;

  0002f	8d 4d d4	 lea	 ecx, DWORD PTR _szCurModel$[ebp]
  00032	ff 15 00 00 00
	00		 call	 DWORD PTR __imp_??0ioHashString@@QAE@XZ
  00038	83 65 fc 00	 and	 DWORD PTR __$EHRec$[ebp+8], 0

; 216  : 
; 217  : 	if( m_bTeamModel )

  0003c	80 be 5d 0b 00
	00 00		 cmp	 BYTE PTR [esi+2909], 0
  00043	0f 84 a7 00 00
	00		 je	 $LN15@SetTeam

; 218  : 	{
; 219  : 		ioBaseChar *pBaseOwner = pStage->GetOwnerChar();

  00049	8b cf		 mov	 ecx, edi
  0004b	e8 00 00 00 00	 call	 ?GetOwnerChar@ioPlayStage@@QAEPAVioBaseChar@@XZ ; ioPlayStage::GetOwnerChar

; 220  : 
; 221  : 		if( !pBaseOwner ) return;

  00050	85 c0		 test	 eax, eax
  00052	0f 84 56 01 00
	00		 je	 $LN41@SetTeam

; 222  : 
; 223  : 		if( pBaseOwner->GetTeam() == eType )

  00058	8d 88 90 00 00
	00		 lea	 ecx, DWORD PTR [eax+144]
  0005e	8d 45 d0	 lea	 eax, DWORD PTR _value$539160[ebp]
  00061	50		 push	 eax
  00062	e8 00 00 00 00	 call	 ?DecryptValueToPool@?$CEncrypt@W4TeamType@@@@QAEXPAW4TeamType@@@Z ; CEncrypt<enum TeamType>::DecryptValueToPool
  00067	39 5d d0	 cmp	 DWORD PTR _value$539160[ebp], ebx
  0006a	75 58		 jne	 SHORT $LN13@SetTeam

; 224  : 		{
; 225  : 			if( !m_vTeamModelList.empty() )

  0006c	8b 8e b4 0a 00
	00		 mov	 ecx, DWORD PTR [esi+2740]
  00072	8b 86 b8 0a 00
	00		 mov	 eax, DWORD PTR [esi+2744]
  00078	3b c8		 cmp	 ecx, eax
  0007a	74 29		 je	 SHORT $LN12@SetTeam

; 226  : 			{
; 227  : 				int iRand = rand() % m_vTeamModelList.size();

  0007c	2b c1		 sub	 eax, ecx
  0007e	c1 f8 04	 sar	 eax, 4
  00081	8b f8		 mov	 edi, eax
  00083	ff 15 00 00 00
	00		 call	 DWORD PTR __imp__rand
  00089	33 d2		 xor	 edx, edx
  0008b	f7 f7		 div	 edi

; 228  : 				szCurModel = m_vTeamModelList[iRand];

  0008d	c1 e2 04	 shl	 edx, 4
  00090	03 96 b4 0a 00
	00		 add	 edx, DWORD PTR [esi+2740]
$LN44@SetTeam:
  00096	52		 push	 edx
  00097	8d 4d d4	 lea	 ecx, DWORD PTR _szCurModel$[ebp]
  0009a	ff 15 00 00 00
	00		 call	 DWORD PTR __imp_??4ioHashString@@QAEAAV0@ABV0@@Z

; 229  : 			}
; 230  : 			else

  000a0	e9 9f 00 00 00	 jmp	 $LN1@SetTeam
$LN12@SetTeam:

; 231  : 			{
; 232  : 				szCurModel = m_BlueMineModel;

  000a5	8d 86 74 0a 00
	00		 lea	 eax, DWORD PTR [esi+2676]
  000ab	50		 push	 eax
  000ac	8d 4d d4	 lea	 ecx, DWORD PTR _szCurModel$[ebp]
  000af	ff 15 00 00 00
	00		 call	 DWORD PTR __imp_??4ioHashString@@QAEAAV0@ABV0@@Z

; 233  : 				m_CurTeamColor = TEAM_BLUE;

  000b5	c7 86 60 0b 00
	00 02 00 00 00	 mov	 DWORD PTR [esi+2912], 2

; 234  : 			}
; 235  : 		}
; 236  : 		else

  000bf	e9 80 00 00 00	 jmp	 $LN1@SetTeam
$LN13@SetTeam:

; 237  : 		{
; 238  : 			if( !m_vEnemyModelList.empty() )

  000c4	8b 8e c4 0a 00
	00		 mov	 ecx, DWORD PTR [esi+2756]
  000ca	8b 86 c8 0a 00
	00		 mov	 eax, DWORD PTR [esi+2760]
  000d0	3b c8		 cmp	 ecx, eax
  000d2	74 56		 je	 SHORT $LN2@SetTeam

; 239  : 			{
; 240  : 				int iRand = rand() % m_vEnemyModelList.size();

  000d4	2b c1		 sub	 eax, ecx
  000d6	c1 f8 04	 sar	 eax, 4
  000d9	8b f8		 mov	 edi, eax
  000db	ff 15 00 00 00
	00		 call	 DWORD PTR __imp__rand
  000e1	33 d2		 xor	 edx, edx
  000e3	f7 f7		 div	 edi

; 241  : 				szCurModel = m_vEnemyModelList[iRand];

  000e5	c1 e2 04	 shl	 edx, 4
  000e8	03 96 c4 0a 00
	00		 add	 edx, DWORD PTR [esi+2756]

; 242  : 			}
; 243  : 			else
; 244  : 			{
; 245  : 				szCurModel = m_RedMineModel;
; 246  : 				m_CurTeamColor = TEAM_RED;
; 247  : 			}
; 248  : 		}
; 249  : 	}
; 250  : 	else

  000ee	eb a6		 jmp	 SHORT $LN44@SetTeam
$LN15@SetTeam:

; 251  : 	{
; 252  : 		if( eType == TEAM_BLUE )

  000f0	6a 02		 push	 2
  000f2	5f		 pop	 edi
  000f3	3b df		 cmp	 ebx, edi

; 253  : 		{
; 254  : 			szCurModel = m_BlueMineModel;
; 255  : 			m_CurTeamColor = TEAM_BLUE;

  000f5	74 1b		 je	 SHORT $LN43@SetTeam

; 256  : 		}
; 257  : 		else if( eType == TEAM_RED )

  000f7	83 fb 01	 cmp	 ebx, 1

; 258  : 		{
; 259  : 			szCurModel = m_RedMineModel;
; 260  : 			m_CurTeamColor = TEAM_RED;
; 261  : 		}
; 262  : 		else //개인전

  000fa	74 2e		 je	 SHORT $LN2@SetTeam

; 263  : 		{
; 264  : 			ioBaseChar *pOwner = GetOwner();

  000fc	8b ce		 mov	 ecx, esi
  000fe	e8 00 00 00 00	 call	 ?GetOwner@ioWeapon@@QBEPAVioBaseChar@@XZ ; ioWeapon::GetOwner

; 265  : 			if( pOwner && pOwner->GetSingleConvertTeam() == TEAM_BLUE )

  00103	85 c0		 test	 eax, eax
  00105	74 23		 je	 SHORT $LN2@SetTeam
  00107	8b c8		 mov	 ecx, eax
  00109	e8 00 00 00 00	 call	 ?GetSingleConvertTeam@ioBaseChar@@QAE?AW4TeamType@@XZ ; ioBaseChar::GetSingleConvertTeam
  0010e	3b c7		 cmp	 eax, edi
  00110	75 18		 jne	 SHORT $LN2@SetTeam
$LN43@SetTeam:

; 266  : 			{
; 267  : 				szCurModel = m_BlueMineModel;

  00112	8d 86 74 0a 00
	00		 lea	 eax, DWORD PTR [esi+2676]
  00118	50		 push	 eax
  00119	8d 4d d4	 lea	 ecx, DWORD PTR _szCurModel$[ebp]
  0011c	ff 15 00 00 00
	00		 call	 DWORD PTR __imp_??4ioHashString@@QAEAAV0@ABV0@@Z

; 268  : 				m_CurTeamColor = TEAM_BLUE;

  00122	89 be 60 0b 00
	00		 mov	 DWORD PTR [esi+2912], edi

; 269  : 			}
; 270  : 			else

  00128	eb 1a		 jmp	 SHORT $LN1@SetTeam
$LN2@SetTeam:

; 271  : 			{
; 272  : 				szCurModel = m_RedMineModel;

  0012a	8d 86 84 0a 00
	00		 lea	 eax, DWORD PTR [esi+2692]
  00130	50		 push	 eax
  00131	8d 4d d4	 lea	 ecx, DWORD PTR _szCurModel$[ebp]
  00134	ff 15 00 00 00
	00		 call	 DWORD PTR __imp_??4ioHashString@@QAEAAV0@ABV0@@Z

; 273  : 				m_CurTeamColor = TEAM_RED;

  0013a	c7 86 60 0b 00
	00 01 00 00 00	 mov	 DWORD PTR [esi+2912], 1
$LN1@SetTeam:

; 274  : 			}
; 275  : 		}
; 276  : 	}
; 277  : 
; 278  : 	ioSceneNode *pSNode = GetParentSceneNode();

  00144	8b 7e 04	 mov	 edi, DWORD PTR [esi+4]

; 279  : 	m_pMine = pSNode->GetSceneMgr()->CreateEntityGrp();

  00147	8b cf		 mov	 ecx, edi
  00149	ff 15 00 00 00
	00		 call	 DWORD PTR __imp_?GetSceneMgr@ioSceneNode@@QAEPAVioSceneManager@@XZ
  0014f	8b 10		 mov	 edx, DWORD PTR [eax]
  00151	8b c8		 mov	 ecx, eax
  00153	ff 52 30	 call	 DWORD PTR [edx+48]
  00156	89 86 94 08 00
	00		 mov	 DWORD PTR [esi+2196], eax

; 280  : 	pSNode->AttachObject( m_pMine );

  0015c	8b 17		 mov	 edx, DWORD PTR [edi]
  0015e	50		 push	 eax
  0015f	8b cf		 mov	 ecx, edi
  00161	ff 92 ac 00 00
	00		 call	 DWORD PTR [edx+172]

; 281  : 	m_pMine->LoadGroup( szCurModel.c_str() );

  00167	6a 00		 push	 0
  00169	8d 4d d4	 lea	 ecx, DWORD PTR _szCurModel$[ebp]
  0016c	ff 15 00 00 00
	00		 call	 DWORD PTR __imp_?c_str@ioHashString@@QBEPBDXZ
  00172	8b 8e 94 08 00
	00		 mov	 ecx, DWORD PTR [esi+2196]
  00178	50		 push	 eax
  00179	ff 15 00 00 00
	00		 call	 DWORD PTR __imp_?LoadGroup@ioEntityGroup@@QAE_NPBD_N@Z

; 282  : 
; 283  : 	pSNode->SetScale( D3DXVECTOR3(m_fMineSizeRate, m_fMineSizeRate, m_fMineSizeRate) );

  0017f	f3 0f 10 86 70
	0a 00 00	 movss	 xmm0, DWORD PTR [esi+2672]
  00187	8b 07		 mov	 eax, DWORD PTR [edi]
  00189	8d 4d e4	 lea	 ecx, DWORD PTR $T531682[ebp]
  0018c	51		 push	 ecx
  0018d	0f 28 c8	 movaps	 xmm1, xmm0
  00190	0f 28 d0	 movaps	 xmm2, xmm0
  00193	8b cf		 mov	 ecx, edi
  00195	f3 0f 11 4d e4	 movss	 DWORD PTR $T531682[ebp], xmm1
  0019a	f3 0f 11 55 e8	 movss	 DWORD PTR $T531682[ebp+4], xmm2
  0019f	f3 0f 11 45 ec	 movss	 DWORD PTR $T531682[ebp+8], xmm0
  001a4	ff 50 20	 call	 DWORD PTR [eax+32]

; 284  : 	UpdateWorldCollisionBox();

  001a7	8b ce		 mov	 ecx, esi
  001a9	e8 00 00 00 00	 call	 ?UpdateWorldCollisionBox@ioMineWeapon2@@IAEXXZ ; ioMineWeapon2::UpdateWorldCollisionBox
$LN41@SetTeam:

; 285  : }

  001ae	83 4d fc ff	 or	 DWORD PTR __$EHRec$[ebp+8], -1
  001b2	8d 4d d4	 lea	 ecx, DWORD PTR _szCurModel$[ebp]
  001b5	ff 15 00 00 00
	00		 call	 DWORD PTR __imp_??1ioHashString@@QAE@XZ
$LN17@SetTeam:
  001bb	e8 00 00 00 00	 call	 __EH_epilog3_GS
  001c0	c2 08 00	 ret	 8
_TEXT	ENDS
;	COMDAT text$x
text$x	SEGMENT
__unwindfunclet$?SetTeam@ioMineWeapon2@@UAEXPAVioPlayStage@@W4TeamType@@@Z$0:
  00000	8d 4d d4	 lea	 ecx, DWORD PTR _szCurModel$[ebp]
  00003	ff 25 00 00 00
	00		 jmp	 DWORD PTR __imp_??1ioHashString@@QAE@XZ
__ehhandler$?SetTeam@ioMineWeapon2@@UAEXPAVioPlayStage@@W4TeamType@@@Z:
  00009	8b 54 24 08	 mov	 edx, DWORD PTR [esp+8]
  0000d	8d 42 0c	 lea	 eax, DWORD PTR [edx+12]
  00010	8b 4a cc	 mov	 ecx, DWORD PTR [edx-52]
  00013	33 c8		 xor	 ecx, eax
  00015	e8 00 00 00 00	 call	 @__security_check_cookie@4
  0001a	8b 4a fc	 mov	 ecx, DWORD PTR [edx-4]
  0001d	33 c8		 xor	 ecx, eax
  0001f	e8 00 00 00 00	 call	 @__security_check_cookie@4
  00024	b8 00 00 00 00	 mov	 eax, OFFSET __ehfuncinfo$?SetTeam@ioMineWeapon2@@UAEXPAVioPlayStage@@W4TeamType@@@Z
  00029	e9 00 00 00 00	 jmp	 ___CxxFrameHandler3
text$x	ENDS
?SetTeam@ioMineWeapon2@@UAEXPAVioPlayStage@@W4TeamType@@@Z ENDP ; ioMineWeapon2::SetTeam
PUBLIC	?FindTarget@ioMineWeapon2@@QAE_NPAVioPlayStage@@M@Z ; ioMineWeapon2::FindTarget
EXTRN	?CheckMineNoCollision@Help@@YA_NW4CharState@@@Z:PROC ; Help::CheckMineNoCollision
EXTRN	?IsExperienceOwner@ioWeapon@@QAE_NXZ:PROC	; ioWeapon::IsExperienceOwner
; Function compile flags: /Ogsp
;	COMDAT ?FindTarget@ioMineWeapon2@@QAE_NPAVioPlayStage@@M@Z
_TEXT	SEGMENT
_vCurPos$ = -28						; size = 12
_fSensingRangeSq$ = -16					; size = 4
$T539305 = -12						; size = 1
_value$539299 = -8					; size = 4
_value$539286 = -4					; size = 4
_pStage$ = 8						; size = 4
_fTimePerSec$ = 12					; size = 4
?FindTarget@ioMineWeapon2@@QAE_NPAVioPlayStage@@M@Z PROC ; ioMineWeapon2::FindTarget, COMDAT
; _this$ = ecx

; 429  : {

  00000	55		 push	 ebp
  00001	8b ec		 mov	 ebp, esp
  00003	83 ec 1c	 sub	 esp, 28			; 0000001cH
  00006	53		 push	 ebx
  00007	56		 push	 esi
  00008	8b d9		 mov	 ebx, ecx

; 430  : 	D3DXVECTOR3 vDiff;
; 431  : 	D3DXVECTOR3 vCurPos = GetPosition();

  0000a	8b 03		 mov	 eax, DWORD PTR [ebx]
  0000c	57		 push	 edi
  0000d	ff 50 70	 call	 DWORD PTR [eax+112]

; 432  : 	float fSensingRangeSq = m_fMineBoomDist * m_fMineBoomDist;

  00010	f3 0f 10 83 64
	0a 00 00	 movss	 xmm0, DWORD PTR [ebx+2660]
  00018	8b f0		 mov	 esi, eax
  0001a	8d 7d e4	 lea	 edi, DWORD PTR _vCurPos$[ebp]
  0001d	a5		 movsd
  0001e	a5		 movsd
  0001f	0f 5a c0	 cvtps2pd xmm0, xmm0
  00022	f2 0f 59 c0	 mulsd	 xmm0, xmm0
  00026	66 0f 5a c0	 cvtpd2ps xmm0, xmm0

; 433  : 
; 434  : 	// Char Check
; 435  : 	const BaseCharList &rkCharList = pStage->GetBaseCharList();
; 436  : 	BaseCharList::const_iterator iter;
; 437  : 	if( !IsExperienceOwner() )

  0002a	8b cb		 mov	 ecx, ebx
  0002c	a5		 movsd
  0002d	f3 0f 11 45 f0	 movss	 DWORD PTR _fSensingRangeSq$[ebp], xmm0
  00032	e8 00 00 00 00	 call	 ?IsExperienceOwner@ioWeapon@@QAE_NXZ ; ioWeapon::IsExperienceOwner
  00037	84 c0		 test	 al, al
  00039	0f 85 3a 01 00
	00		 jne	 $LN9@FindTarget

; 438  : 	{
; 439  : 		for( iter=rkCharList.begin() ; iter!=rkCharList.end() ; ++iter )

  0003f	8b 45 08	 mov	 eax, DWORD PTR _pStage$[ebp]
  00042	8b 78 2c	 mov	 edi, DWORD PTR [eax+44]
  00045	e9 26 01 00 00	 jmp	 $LN64@FindTarget
$LL27@FindTarget:

; 440  : 		{
; 441  : 			ioBaseChar *pChar = *iter;

  0004a	8b 37		 mov	 esi, DWORD PTR [edi]

; 442  : 			if( !pChar->IsNeedProcess() ) 

  0004c	8b 06		 mov	 eax, DWORD PTR [esi]
  0004e	8b ce		 mov	 ecx, esi
  00050	ff 90 00 01 00
	00		 call	 DWORD PTR [eax+256]
  00056	84 c0		 test	 al, al
  00058	0f 84 0c 01 00
	00		 je	 $LN10@FindTarget

; 443  : 				continue;
; 444  : 
; 445  : 			if( !CheckTargetWoundedState( pChar ) ) 

  0005e	56		 push	 esi
  0005f	8b cb		 mov	 ecx, ebx
  00061	e8 00 00 00 00	 call	 ?CheckTargetWoundedState@ioMineWeapon2@@IAE_NPAVioBaseChar@@@Z ; ioMineWeapon2::CheckTargetWoundedState
  00066	84 c0		 test	 al, al
  00068	0f 84 fc 00 00
	00		 je	 $LN10@FindTarget

; 446  : 				continue;
; 447  : 
; 448  : 			if( pChar->GetTeam() == GetTeam() ) 

  0006e	8d 45 fc	 lea	 eax, DWORD PTR _value$539286[ebp]
  00071	50		 push	 eax
  00072	8d 8e 90 00 00
	00		 lea	 ecx, DWORD PTR [esi+144]
  00078	e8 00 00 00 00	 call	 ?DecryptValueToPool@?$CEncrypt@W4TeamType@@@@QAEXPAW4TeamType@@@Z ; CEncrypt<enum TeamType>::DecryptValueToPool
  0007d	8d 45 f8	 lea	 eax, DWORD PTR _value$539299[ebp]
  00080	50		 push	 eax
  00081	8d 4b 30	 lea	 ecx, DWORD PTR [ebx+48]
  00084	e8 00 00 00 00	 call	 ?DecryptValueToPool@?$CEncrypt@W4TeamType@@@@QAEXPAW4TeamType@@@Z ; CEncrypt<enum TeamType>::DecryptValueToPool
  00089	8b 45 fc	 mov	 eax, DWORD PTR _value$539286[ebp]
  0008c	3b 45 f8	 cmp	 eax, DWORD PTR _value$539299[ebp]
  0008f	0f 84 d5 00 00
	00		 je	 $LN10@FindTarget

; 449  : 				continue;
; 450  : 
; 451  : 			if( pChar->HasBuff(BT_CHANGE_TEAM) )

  00095	6a 69		 push	 105			; 00000069H
  00097	8b ce		 mov	 ecx, esi
  00099	e8 00 00 00 00	 call	 ?HasBuff@ioBaseChar@@QBE_NH@Z ; ioBaseChar::HasBuff
  0009e	84 c0		 test	 al, al
  000a0	0f 85 c4 00 00
	00		 jne	 $LN10@FindTarget

; 452  : 				continue;
; 453  : 			
; 454  : 
; 455  : 			if( pChar->IsSystemState() )

  000a6	8b ce		 mov	 ecx, esi
  000a8	e8 00 00 00 00	 call	 ?IsSystemState@ioBaseChar@@QAE_NXZ ; ioBaseChar::IsSystemState
  000ad	84 c0		 test	 al, al
  000af	0f 85 b5 00 00
	00		 jne	 $LN10@FindTarget

; 456  : 				continue;
; 457  : 				
; 458  : 			if( !pChar->IsEnableTarget() )

  000b5	6a 01		 push	 1
  000b7	6a 01		 push	 1
  000b9	8b ce		 mov	 ecx, esi
  000bb	e8 00 00 00 00	 call	 ?IsEnableTarget@ioBaseChar@@QAE_N_N0@Z ; ioBaseChar::IsEnableTarget
  000c0	84 c0		 test	 al, al
  000c2	0f 84 a2 00 00
	00		 je	 $LN10@FindTarget

; 459  : 				continue;
; 460  : 
; 461  : 			if( Help::CheckMineNoCollision( pChar->GetState() ) )

  000c8	8a 86 10 03 00
	00		 mov	 al, BYTE PTR [esi+784]
  000ce	88 45 f4	 mov	 BYTE PTR $T539305[ebp], al
  000d1	ff 75 f4	 push	 DWORD PTR $T539305[ebp]
  000d4	e8 00 00 00 00	 call	 ?CheckMineNoCollision@Help@@YA_NW4CharState@@@Z ; Help::CheckMineNoCollision
  000d9	59		 pop	 ecx
  000da	84 c0		 test	 al, al
  000dc	0f 85 88 00 00
	00		 jne	 $LN10@FindTarget

; 462  : 				continue;
; 463  : 
; 464  : 			vDiff = vCurPos - pChar->GetWorldPosition();

  000e2	8b 06		 mov	 eax, DWORD PTR [esi]
  000e4	8b ce		 mov	 ecx, esi
  000e6	ff 50 70	 call	 DWORD PTR [eax+112]
  000e9	f3 0f 10 45 e4	 movss	 xmm0, DWORD PTR _vCurPos$[ebp]
  000ee	f3 0f 10 08	 movss	 xmm1, DWORD PTR [eax]
  000f2	f3 0f 10 50 04	 movss	 xmm2, DWORD PTR [eax+4]
  000f7	f3 0f 10 58 08	 movss	 xmm3, DWORD PTR [eax+8]
  000fc	0f 5a c0	 cvtps2pd xmm0, xmm0
  000ff	0f 5a c9	 cvtps2pd xmm1, xmm1
  00102	f2 0f 5c c1	 subsd	 xmm0, xmm1
  00106	0f 57 c9	 xorps	 xmm1, xmm1
  00109	f2 0f 5a c8	 cvtsd2ss xmm1, xmm0
  0010d	f3 0f 10 45 e8	 movss	 xmm0, DWORD PTR _vCurPos$[ebp+4]
  00112	0f 5a c0	 cvtps2pd xmm0, xmm0
  00115	0f 5a d2	 cvtps2pd xmm2, xmm2
  00118	f2 0f 5c c2	 subsd	 xmm0, xmm2
  0011c	f3 0f 10 55 ec	 movss	 xmm2, DWORD PTR _vCurPos$[ebp+8]
  00121	f2 0f 5a c0	 cvtsd2ss xmm0, xmm0
  00125	0f 5a d2	 cvtps2pd xmm2, xmm2

; 465  : 			if( D3DXVec3LengthSq( &vDiff ) < fSensingRangeSq )

  00128	0f 5a c9	 cvtps2pd xmm1, xmm1
  0012b	f3 0f 5a c0	 cvtss2sd xmm0, xmm0
  0012f	0f 5a db	 cvtps2pd xmm3, xmm3
  00132	f2 0f 5c d3	 subsd	 xmm2, xmm3
  00136	f2 0f 59 c9	 mulsd	 xmm1, xmm1
  0013a	f2 0f 59 c0	 mulsd	 xmm0, xmm0
  0013e	f2 0f 58 c8	 addsd	 xmm1, xmm0
  00142	f2 0f 5a d2	 cvtsd2ss xmm2, xmm2
  00146	f3 0f 5a d2	 cvtss2sd xmm2, xmm2
  0014a	f2 0f 59 d2	 mulsd	 xmm2, xmm2
  0014e	f2 0f 58 ca	 addsd	 xmm1, xmm2
  00152	0f 57 c0	 xorps	 xmm0, xmm0
  00155	66 0f 5a c1	 cvtpd2ps xmm0, xmm1
  00159	f3 0f 10 4d f0	 movss	 xmm1, DWORD PTR _fSensingRangeSq$[ebp]
  0015e	0f 5a c0	 cvtps2pd xmm0, xmm0
  00161	0f 5a c9	 cvtps2pd xmm1, xmm1
  00164	66 0f 2f c8	 comisd	 xmm1, xmm0
  00168	77 18		 ja	 SHORT $LN62@FindTarget
$LN10@FindTarget:

; 438  : 	{
; 439  : 		for( iter=rkCharList.begin() ; iter!=rkCharList.end() ; ++iter )

  0016a	8b 45 08	 mov	 eax, DWORD PTR _pStage$[ebp]
  0016d	83 c7 04	 add	 edi, 4
$LN64@FindTarget:
  00170	3b 78 30	 cmp	 edi, DWORD PTR [eax+48]
  00173	0f 85 d1 fe ff
	ff		 jne	 $LL27@FindTarget
$LN9@FindTarget:

; 469  : 			}
; 470  : 		}
; 471  : 	}
; 472  : 
; 473  : 	return false;

  00179	32 c0		 xor	 al, al
$LN13@FindTarget:
  0017b	5f		 pop	 edi
  0017c	5e		 pop	 esi
  0017d	5b		 pop	 ebx

; 474  : }

  0017e	c9		 leave
  0017f	c2 08 00	 ret	 8
$LN62@FindTarget:

; 466  : 			{				
; 467  : 				m_szTargetName = pChar->GetCharName();

  00182	81 c6 d4 02 00
	00		 add	 esi, 724		; 000002d4H
  00188	56		 push	 esi
  00189	8d 8b ac 08 00
	00		 lea	 ecx, DWORD PTR [ebx+2220]
  0018f	ff 15 00 00 00
	00		 call	 DWORD PTR __imp_??4ioHashString@@QAEAAV0@ABV0@@Z

; 468  : 				return true;

  00195	b0 01		 mov	 al, 1
  00197	eb e2		 jmp	 SHORT $LN13@FindTarget
?FindTarget@ioMineWeapon2@@QAE_NPAVioPlayStage@@M@Z ENDP ; ioMineWeapon2::FindTarget
_TEXT	ENDS
PUBLIC	?VisibleCheck@ioMineWeapon2@@IAEXPAVioPlayStage@@@Z ; ioMineWeapon2::VisibleCheck
EXTRN	?GetCameraTargetChar@ioPlayStage@@QAEPAVioBaseChar@@XZ:PROC ; ioPlayStage::GetCameraTargetChar
; Function compile flags: /Ogsp
;	COMDAT ?VisibleCheck@ioMineWeapon2@@IAEXPAVioPlayStage@@@Z
_TEXT	SEGMENT
tv362 = -8						; size = 8
_value$539353 = -4					; size = 4
_value$539340 = 8					; size = 4
_fVisibleRangeSq$531871 = 8				; size = 4
_pStage$ = 8						; size = 4
?VisibleCheck@ioMineWeapon2@@IAEXPAVioPlayStage@@@Z PROC ; ioMineWeapon2::VisibleCheck, COMDAT
; _this$ = ecx

; 477  : {

  00000	55		 push	 ebp
  00001	8b ec		 mov	 ebp, esp
  00003	51		 push	 ecx
  00004	51		 push	 ecx
  00005	56		 push	 esi
  00006	8b f1		 mov	 esi, ecx

; 478  : 	if( !m_pMine )	return;

  00008	83 be 94 08 00
	00 00		 cmp	 DWORD PTR [esi+2196], 0
  0000f	0f 84 ff 00 00
	00		 je	 $LN1@VisibleChe

; 479  : 
; 480  : 	ioBaseChar *pTarget = pStage->GetCameraTargetChar();

  00015	8b 4d 08	 mov	 ecx, DWORD PTR _pStage$[ebp]
  00018	57		 push	 edi
  00019	e8 00 00 00 00	 call	 ?GetCameraTargetChar@ioPlayStage@@QAEPAVioBaseChar@@XZ ; ioPlayStage::GetCameraTargetChar
  0001e	8b f8		 mov	 edi, eax

; 481  : 	if( pTarget )

  00020	85 ff		 test	 edi, edi
  00022	0f 84 df 00 00
	00		 je	 $LN6@VisibleChe

; 482  : 	{
; 483  : 		if( GetTeam() == pTarget->GetTeam() )

  00028	8d 45 08	 lea	 eax, DWORD PTR _value$539340[ebp]
  0002b	50		 push	 eax
  0002c	8d 4e 30	 lea	 ecx, DWORD PTR [esi+48]
  0002f	e8 00 00 00 00	 call	 ?DecryptValueToPool@?$CEncrypt@W4TeamType@@@@QAEXPAW4TeamType@@@Z ; CEncrypt<enum TeamType>::DecryptValueToPool
  00034	8d 45 fc	 lea	 eax, DWORD PTR _value$539353[ebp]
  00037	50		 push	 eax
  00038	8d 8f 90 00 00
	00		 lea	 ecx, DWORD PTR [edi+144]
  0003e	e8 00 00 00 00	 call	 ?DecryptValueToPool@?$CEncrypt@W4TeamType@@@@QAEXPAW4TeamType@@@Z ; CEncrypt<enum TeamType>::DecryptValueToPool
  00043	8b 45 08	 mov	 eax, DWORD PTR _value$539340[ebp]
  00046	3b 45 fc	 cmp	 eax, DWORD PTR _value$539353[ebp]
  00049	75 07		 jne	 SHORT $LN5@VisibleChe

; 484  : 		{
; 485  : 			m_pMine->SetVisible( true );

  0004b	6a 01		 push	 1

; 486  : 		}
; 487  : 		else

  0004d	e9 b7 00 00 00	 jmp	 $LN25@VisibleChe
$LN5@VisibleChe:

; 488  : 		{
; 489  : 			float fVisibleRangeSq = m_fVisibleRange * m_fVisibleRange;

  00052	f3 0f 10 86 68
	0a 00 00	 movss	 xmm0, DWORD PTR [esi+2664]

; 490  : 
; 491  : 			D3DXVECTOR3 vDiff = GetPosition() - pTarget->GetWorldPosition();

  0005a	8b 07		 mov	 eax, DWORD PTR [edi]
  0005c	0f 5a c0	 cvtps2pd xmm0, xmm0
  0005f	f2 0f 59 c0	 mulsd	 xmm0, xmm0
  00063	66 0f 5a c0	 cvtpd2ps xmm0, xmm0
  00067	8b cf		 mov	 ecx, edi
  00069	f3 0f 11 45 08	 movss	 DWORD PTR _fVisibleRangeSq$531871[ebp], xmm0
  0006e	ff 50 70	 call	 DWORD PTR [eax+112]
  00071	8b f8		 mov	 edi, eax
  00073	8b 06		 mov	 eax, DWORD PTR [esi]
  00075	8b ce		 mov	 ecx, esi
  00077	ff 50 70	 call	 DWORD PTR [eax+112]
  0007a	f3 0f 10 00	 movss	 xmm0, DWORD PTR [eax]
  0007e	f3 0f 10 0f	 movss	 xmm1, DWORD PTR [edi]
  00082	f3 0f 10 57 08	 movss	 xmm2, DWORD PTR [edi+8]
  00087	0f 5a c0	 cvtps2pd xmm0, xmm0
  0008a	0f 5a c9	 cvtps2pd xmm1, xmm1
  0008d	f2 0f 5c c1	 subsd	 xmm0, xmm1
  00091	f3 0f 10 48 08	 movss	 xmm1, DWORD PTR [eax+8]
  00096	66 0f 5a c0	 cvtpd2ps xmm0, xmm0

; 492  : 			vDiff.y = 0.0f;
; 493  : 
; 494  : 			if( D3DXVec3LengthSq( &vDiff ) < fVisibleRangeSq )

  0009a	f3 0f 5a c0	 cvtss2sd xmm0, xmm0
  0009e	0f 5a c9	 cvtps2pd xmm1, xmm1
  000a1	f2 0f 59 c0	 mulsd	 xmm0, xmm0
  000a5	f2 0f 11 45 f8	 movsd	 QWORD PTR tv362[ebp], xmm0
  000aa	0f 57 c0	 xorps	 xmm0, xmm0
  000ad	0f 5a d2	 cvtps2pd xmm2, xmm2
  000b0	f2 0f 5c ca	 subsd	 xmm1, xmm2
  000b4	f2 0f 10 55 f8	 movsd	 xmm2, QWORD PTR tv362[ebp]
  000b9	66 0f 5a c9	 cvtpd2ps xmm1, xmm1
  000bd	f2 0f 59 c0	 mulsd	 xmm0, xmm0
  000c1	f3 0f 5a c9	 cvtss2sd xmm1, xmm1
  000c5	f2 0f 58 d0	 addsd	 xmm2, xmm0
  000c9	f2 0f 59 c9	 mulsd	 xmm1, xmm1
  000cd	f2 0f 58 d1	 addsd	 xmm2, xmm1
  000d1	f3 0f 10 4d 08	 movss	 xmm1, DWORD PTR _fVisibleRangeSq$531871[ebp]
  000d6	0f 57 c0	 xorps	 xmm0, xmm0
  000d9	66 0f 5a c2	 cvtpd2ps xmm0, xmm2
  000dd	0f 5a c0	 cvtps2pd xmm0, xmm0
  000e0	0f 5a c9	 cvtps2pd xmm1, xmm1
  000e3	66 0f 2f c8	 comisd	 xmm1, xmm0

; 495  : 				m_bMineVisible = true;

  000e7	8d 86 5c 0b 00
	00		 lea	 eax, DWORD PTR [esi+2908]
  000ed	76 05		 jbe	 SHORT $LN3@VisibleChe
  000ef	c6 00 01	 mov	 BYTE PTR [eax], 1

; 496  : 			else

  000f2	eb 03		 jmp	 SHORT $LN2@VisibleChe
$LN3@VisibleChe:

; 497  : 				m_bMineVisible = false;

  000f4	c6 00 00	 mov	 BYTE PTR [eax], 0
$LN2@VisibleChe:

; 498  : 
; 499  : 			m_pMine->SetVisible( m_bMineVisible );

  000f7	0f b6 00	 movzx	 eax, BYTE PTR [eax]
  000fa	8b 8e 94 08 00
	00		 mov	 ecx, DWORD PTR [esi+2196]
  00100	8b 11		 mov	 edx, DWORD PTR [ecx]
  00102	50		 push	 eax
  00103	ff 12		 call	 DWORD PTR [edx]

; 500  : 		}
; 501  : 	}
; 502  : 	else

  00105	eb 0c		 jmp	 SHORT $LN24@VisibleChe
$LN6@VisibleChe:

; 503  : 	{
; 504  : 		m_pMine->SetVisible( false );

  00107	6a 00		 push	 0
$LN25@VisibleChe:
  00109	8b 8e 94 08 00
	00		 mov	 ecx, DWORD PTR [esi+2196]
  0010f	8b 01		 mov	 eax, DWORD PTR [ecx]
  00111	ff 10		 call	 DWORD PTR [eax]
$LN24@VisibleChe:
  00113	5f		 pop	 edi
$LN1@VisibleChe:
  00114	5e		 pop	 esi

; 505  : 	}
; 506  : }

  00115	c9		 leave
  00116	c2 04 00	 ret	 4
?VisibleCheck@ioMineWeapon2@@IAEXPAVioPlayStage@@@Z ENDP ; ioMineWeapon2::VisibleCheck
_TEXT	ENDS
PUBLIC	?OnWaitExplosion@ioMineWeapon2@@IAEXPAVioPlayStage@@@Z ; ioMineWeapon2::OnWaitExplosion
; Function compile flags: /Ogsp
;	COMDAT ?OnWaitExplosion@ioMineWeapon2@@IAEXPAVioPlayStage@@@Z
_TEXT	SEGMENT
_pStage$ = 8						; size = 4
?OnWaitExplosion@ioMineWeapon2@@IAEXPAVioPlayStage@@@Z PROC ; ioMineWeapon2::OnWaitExplosion, COMDAT
; _this$ = ecx

; 542  : {		

  00000	55		 push	 ebp
  00001	8b ec		 mov	 ebp, esp
  00003	56		 push	 esi
  00004	57		 push	 edi
  00005	8b f9		 mov	 edi, ecx

; 543  : 	if( m_dwCurTraceDelayTime + m_dwTraceDelayTime < FRAMEGETTIME() )

  00007	ff 15 00 00 00
	00		 call	 DWORD PTR __imp_?GetSingleton@ioFrameTimer@@SAAAV1@XZ
  0000d	8b c8		 mov	 ecx, eax
  0000f	ff 15 00 00 00
	00		 call	 DWORD PTR __imp_?GetLoopSec@ioFrameTimer@@QBEKXZ
  00015	8b 8f 9c 08 00
	00		 mov	 ecx, DWORD PTR [edi+2204]
  0001b	03 8f a0 08 00
	00		 add	 ecx, DWORD PTR [edi+2208]
  00021	3b c8		 cmp	 ecx, eax
  00023	73 15		 jae	 SHORT $LN1@OnWaitExpl

; 544  : 	{
; 545  : 		m_dwCurTraceDelayTime = 0;

  00025	83 a7 a0 08 00
	00 00		 and	 DWORD PTR [edi+2208], 0

; 546  : 		ExplosionMine( pStage, true );

  0002c	6a 01		 push	 1
  0002e	6a 01		 push	 1
  00030	ff 75 08	 push	 DWORD PTR _pStage$[ebp]
  00033	8b cf		 mov	 ecx, edi
  00035	e8 00 00 00 00	 call	 ?ExplosionMine@ioMineWeapon2@@QAEXPAVioPlayStage@@_N1@Z ; ioMineWeapon2::ExplosionMine
$LN1@OnWaitExpl:
  0003a	5f		 pop	 edi
  0003b	5e		 pop	 esi

; 547  : 	}
; 548  : }

  0003c	5d		 pop	 ebp
  0003d	c2 04 00	 ret	 4
?OnWaitExplosion@ioMineWeapon2@@IAEXPAVioPlayStage@@@Z ENDP ; ioMineWeapon2::OnWaitExplosion
_TEXT	ENDS
PUBLIC	?IsCanVisible@ioMineWeapon2@@QBE_NPAVioWeapon@@@Z ; ioMineWeapon2::IsCanVisible
; Function compile flags: /Ogsp
;	COMDAT ?IsCanVisible@ioMineWeapon2@@QBE_NPAVioWeapon@@@Z
_TEXT	SEGMENT
$T532124 = -24						; size = 12
_fVisibleRangeSq$ = -12					; size = 4
tv377 = -8						; size = 8
_value$539417 = -4					; size = 4
_value$539404 = 8					; size = 4
_pWeapon$ = 8						; size = 4
?IsCanVisible@ioMineWeapon2@@QBE_NPAVioWeapon@@@Z PROC	; ioMineWeapon2::IsCanVisible, COMDAT
; _this$ = ecx

; 994  : {

  00000	55		 push	 ebp
  00001	8b ec		 mov	 ebp, esp
  00003	83 ec 18	 sub	 esp, 24			; 00000018H
  00006	56		 push	 esi
  00007	57		 push	 edi
  00008	8b f9		 mov	 edi, ecx

; 995  : 	ioBaseChar *pChar = pWeapon->GetOwner();

  0000a	8b 4d 08	 mov	 ecx, DWORD PTR _pWeapon$[ebp]
  0000d	e8 00 00 00 00	 call	 ?GetOwner@ioWeapon@@QBEPAVioBaseChar@@XZ ; ioWeapon::GetOwner
  00012	8b f0		 mov	 esi, eax

; 996  : 	if( !pChar ) return false;

  00014	85 f6		 test	 esi, esi
  00016	0f 84 ed 00 00
	00		 je	 $LN3@IsCanVisib

; 997  : 
; 998  : 	D3DXVECTOR3 vDiff;
; 999  : 	vDiff = GetPosition() - pChar->GetWorldPosition();

  0001c	8b 06		 mov	 eax, DWORD PTR [esi]
  0001e	53		 push	 ebx
  0001f	8b ce		 mov	 ecx, esi
  00021	ff 50 70	 call	 DWORD PTR [eax+112]
  00024	8b d8		 mov	 ebx, eax
  00026	8b 07		 mov	 eax, DWORD PTR [edi]
  00028	8b cf		 mov	 ecx, edi
  0002a	ff 50 70	 call	 DWORD PTR [eax+112]
  0002d	f3 0f 10 00	 movss	 xmm0, DWORD PTR [eax]
  00031	f3 0f 10 0b	 movss	 xmm1, DWORD PTR [ebx]
  00035	0f 5a c0	 cvtps2pd xmm0, xmm0
  00038	0f 5a c9	 cvtps2pd xmm1, xmm1
  0003b	f2 0f 5c c1	 subsd	 xmm0, xmm1
  0003f	f3 0f 10 4b 08	 movss	 xmm1, DWORD PTR [ebx+8]
  00044	66 0f 5a c0	 cvtpd2ps xmm0, xmm0
  00048	f3 0f 11 45 e8	 movss	 DWORD PTR $T532124[ebp], xmm0
  0004d	f3 0f 10 40 08	 movss	 xmm0, DWORD PTR [eax+8]

; 1000 : 	vDiff.y = 0.0f;
; 1001 : 
; 1002 : 	float fVisibleRangeSq = m_fVisibleRange * m_fVisibleRange;
; 1003 : 
; 1004 : 	if( pChar->IsEntityCollisionSkipState( NULL ) || pChar->IsFloating() )

  00052	8b 06		 mov	 eax, DWORD PTR [esi]
  00054	0f 5a c0	 cvtps2pd xmm0, xmm0
  00057	0f 5a c9	 cvtps2pd xmm1, xmm1
  0005a	f2 0f 5c c1	 subsd	 xmm0, xmm1
  0005e	66 0f 5a c0	 cvtpd2ps xmm0, xmm0
  00062	f3 0f 11 45 f0	 movss	 DWORD PTR $T532124[ebp+8], xmm0
  00067	f3 0f 10 87 68
	0a 00 00	 movss	 xmm0, DWORD PTR [edi+2664]
  0006f	0f 5a c0	 cvtps2pd xmm0, xmm0
  00072	f2 0f 59 c0	 mulsd	 xmm0, xmm0
  00076	66 0f 5a c0	 cvtpd2ps xmm0, xmm0
  0007a	6a 00		 push	 0
  0007c	8b ce		 mov	 ecx, esi
  0007e	f3 0f 11 45 f4	 movss	 DWORD PTR _fVisibleRangeSq$[ebp], xmm0
  00083	ff 90 88 00 00
	00		 call	 DWORD PTR [eax+136]
  00089	5b		 pop	 ebx
  0008a	84 c0		 test	 al, al
  0008c	75 7b		 jne	 SHORT $LN3@IsCanVisib
  0008e	8b ce		 mov	 ecx, esi
  00090	e8 00 00 00 00	 call	 ?IsFloating@ioBaseChar@@QAE_NXZ ; ioBaseChar::IsFloating
  00095	84 c0		 test	 al, al
  00097	75 70		 jne	 SHORT $LN3@IsCanVisib

; 1006 : 
; 1007 : 	if( pChar->GetTeam() == GetTeam() )

  00099	8d 45 08	 lea	 eax, DWORD PTR _value$539404[ebp]
  0009c	50		 push	 eax
  0009d	8d 8e 90 00 00
	00		 lea	 ecx, DWORD PTR [esi+144]
  000a3	e8 00 00 00 00	 call	 ?DecryptValueToPool@?$CEncrypt@W4TeamType@@@@QAEXPAW4TeamType@@@Z ; CEncrypt<enum TeamType>::DecryptValueToPool
  000a8	8d 45 fc	 lea	 eax, DWORD PTR _value$539417[ebp]
  000ab	50		 push	 eax
  000ac	8d 4f 30	 lea	 ecx, DWORD PTR [edi+48]
  000af	e8 00 00 00 00	 call	 ?DecryptValueToPool@?$CEncrypt@W4TeamType@@@@QAEXPAW4TeamType@@@Z ; CEncrypt<enum TeamType>::DecryptValueToPool
  000b4	8b 45 08	 mov	 eax, DWORD PTR _value$539404[ebp]
  000b7	3b 45 fc	 cmp	 eax, DWORD PTR _value$539417[ebp]
  000ba	75 04		 jne	 SHORT $LN2@IsCanVisib
$LN24@IsCanVisib:

; 1008 : 		return true;

  000bc	b0 01		 mov	 al, 1
  000be	eb 4b		 jmp	 SHORT $LN6@IsCanVisib
$LN2@IsCanVisib:

; 1009 : 
; 1010 : 	if( D3DXVec3LengthSq( &vDiff ) < fVisibleRangeSq )

  000c0	f3 0f 10 45 e8	 movss	 xmm0, DWORD PTR $T532124[ebp]
  000c5	f3 0f 10 4d f0	 movss	 xmm1, DWORD PTR $T532124[ebp+8]
  000ca	0f 5a c0	 cvtps2pd xmm0, xmm0
  000cd	f2 0f 59 c0	 mulsd	 xmm0, xmm0
  000d1	f2 0f 11 45 f8	 movsd	 QWORD PTR tv377[ebp], xmm0
  000d6	0f 57 c0	 xorps	 xmm0, xmm0
  000d9	f2 0f 10 55 f8	 movsd	 xmm2, QWORD PTR tv377[ebp]
  000de	f2 0f 59 c0	 mulsd	 xmm0, xmm0
  000e2	0f 5a c9	 cvtps2pd xmm1, xmm1
  000e5	f2 0f 58 d0	 addsd	 xmm2, xmm0
  000e9	f2 0f 59 c9	 mulsd	 xmm1, xmm1
  000ed	f2 0f 58 d1	 addsd	 xmm2, xmm1
  000f1	f3 0f 10 4d f4	 movss	 xmm1, DWORD PTR _fVisibleRangeSq$[ebp]
  000f6	0f 57 c0	 xorps	 xmm0, xmm0
  000f9	66 0f 5a c2	 cvtpd2ps xmm0, xmm2
  000fd	0f 5a c0	 cvtps2pd xmm0, xmm0
  00100	0f 5a c9	 cvtps2pd xmm1, xmm1
  00103	66 0f 2f c8	 comisd	 xmm1, xmm0

; 1011 : 		return true;

  00107	77 b3		 ja	 SHORT $LN24@IsCanVisib
$LN3@IsCanVisib:

; 1005 : 		return false;

  00109	32 c0		 xor	 al, al
$LN6@IsCanVisib:
  0010b	5f		 pop	 edi
  0010c	5e		 pop	 esi

; 1012 : 
; 1013 : 	return false;
; 1014 : }

  0010d	c9		 leave
  0010e	c2 04 00	 ret	 4
?IsCanVisible@ioMineWeapon2@@QBE_NPAVioWeapon@@@Z ENDP	; ioMineWeapon2::IsCanVisible
_TEXT	ENDS
PUBLIC	??$_Cons_val@V?$allocator@UBuffInfoStruct@@@std@@UBuffInfoStruct@@ABU3@@std@@YAXAAV?$allocator@UBuffInfoStruct@@@0@PAUBuffInfoStruct@@ABU2@@Z ; std::_Cons_val<std::allocator<BuffInfoStruct>,BuffInfoStruct,BuffInfoStruct const &>
; Function compile flags: /Ogsp
; File c:\program files (x86)\microsoft visual studio 10.0\vc\include\xmemory
;	COMDAT ??$_Cons_val@V?$allocator@UBuffInfoStruct@@@std@@UBuffInfoStruct@@ABU3@@std@@YAXAAV?$allocator@UBuffInfoStruct@@@0@PAUBuffInfoStruct@@ABU2@@Z
_TEXT	SEGMENT
__Alval$ = 8						; size = 4
__Pdest$ = 12						; size = 4
__Src$ = 16						; size = 4
??$_Cons_val@V?$allocator@UBuffInfoStruct@@@std@@UBuffInfoStruct@@ABU3@@std@@YAXAAV?$allocator@UBuffInfoStruct@@@0@PAUBuffInfoStruct@@ABU2@@Z PROC ; std::_Cons_val<std::allocator<BuffInfoStruct>,BuffInfoStruct,BuffInfoStruct const &>, COMDAT

; 279  : 	{	// construct using allocator

  00000	55		 push	 ebp
  00001	8b ec		 mov	 ebp, esp

; 280  : 	_Alval.construct(_Pdest, _STD forward<_Ty2>(_Src));

  00003	ff 75 10	 push	 DWORD PTR __Src$[ebp]
  00006	ff 75 0c	 push	 DWORD PTR __Pdest$[ebp]
  00009	e8 00 00 00 00	 call	 ??$_Construct@UBuffInfoStruct@@ABU1@@std@@YAXPAUBuffInfoStruct@@ABU1@@Z ; std::_Construct<BuffInfoStruct,BuffInfoStruct const &>
  0000e	59		 pop	 ecx
  0000f	59		 pop	 ecx

; 281  : 	}

  00010	5d		 pop	 ebp
  00011	c3		 ret	 0
??$_Cons_val@V?$allocator@UBuffInfoStruct@@@std@@UBuffInfoStruct@@ABU3@@std@@YAXAAV?$allocator@UBuffInfoStruct@@@0@PAUBuffInfoStruct@@ABU2@@Z ENDP ; std::_Cons_val<std::allocator<BuffInfoStruct>,BuffInfoStruct,BuffInfoStruct const &>
_TEXT	ENDS
PUBLIC	??$_Dest_val@V?$allocator@UBuffInfoStruct@@@std@@UBuffInfoStruct@@@std@@YAXAAV?$allocator@UBuffInfoStruct@@@0@PAUBuffInfoStruct@@@Z ; std::_Dest_val<std::allocator<BuffInfoStruct>,BuffInfoStruct>
; Function compile flags: /Ogsp
;	COMDAT ??$_Dest_val@V?$allocator@UBuffInfoStruct@@@std@@UBuffInfoStruct@@@std@@YAXAAV?$allocator@UBuffInfoStruct@@@0@PAUBuffInfoStruct@@@Z
_TEXT	SEGMENT
__Alval$ = 8						; size = 4
__Pdest$ = 12						; size = 4
??$_Dest_val@V?$allocator@UBuffInfoStruct@@@std@@UBuffInfoStruct@@@std@@YAXAAV?$allocator@UBuffInfoStruct@@@0@PAUBuffInfoStruct@@@Z PROC ; std::_Dest_val<std::allocator<BuffInfoStruct>,BuffInfoStruct>, COMDAT

; 286  : 	{	// destroy using allocator

  00000	55		 push	 ebp
  00001	8b ec		 mov	 ebp, esp

; 287  : 	_Alval.destroy(_Pdest);

  00003	8b 4d 0c	 mov	 ecx, DWORD PTR __Pdest$[ebp]

; 288  : 	}

  00006	5d		 pop	 ebp

; 287  : 	_Alval.destroy(_Pdest);

  00007	ff 25 00 00 00
	00		 jmp	 DWORD PTR __imp_??1ioHashString@@QAE@XZ
??$_Dest_val@V?$allocator@UBuffInfoStruct@@@std@@UBuffInfoStruct@@@std@@YAXAAV?$allocator@UBuffInfoStruct@@@0@PAUBuffInfoStruct@@@Z ENDP ; std::_Dest_val<std::allocator<BuffInfoStruct>,BuffInfoStruct>
_TEXT	ENDS
PUBLIC	??$_Dest_val@V?$allocator@VioHashString@@@std@@VioHashString@@@std@@YAXAAV?$allocator@VioHashString@@@0@PAVioHashString@@@Z ; std::_Dest_val<std::allocator<ioHashString>,ioHashString>
; Function compile flags: /Ogsp
;	COMDAT ??$_Dest_val@V?$allocator@VioHashString@@@std@@VioHashString@@@std@@YAXAAV?$allocator@VioHashString@@@0@PAVioHashString@@@Z
_TEXT	SEGMENT
__Alval$ = 8						; size = 4
__Pdest$ = 12						; size = 4
??$_Dest_val@V?$allocator@VioHashString@@@std@@VioHashString@@@std@@YAXAAV?$allocator@VioHashString@@@0@PAVioHashString@@@Z PROC ; std::_Dest_val<std::allocator<ioHashString>,ioHashString>, COMDAT

; 286  : 	{	// destroy using allocator

  00000	55		 push	 ebp
  00001	8b ec		 mov	 ebp, esp

; 287  : 	_Alval.destroy(_Pdest);

  00003	8b 4d 0c	 mov	 ecx, DWORD PTR __Pdest$[ebp]

; 288  : 	}

  00006	5d		 pop	 ebp

; 287  : 	_Alval.destroy(_Pdest);

  00007	ff 25 00 00 00
	00		 jmp	 DWORD PTR __imp_??1ioHashString@@QAE@XZ
??$_Dest_val@V?$allocator@VioHashString@@@std@@VioHashString@@@std@@YAXAAV?$allocator@VioHashString@@@0@PAVioHashString@@@Z ENDP ; std::_Dest_val<std::allocator<ioHashString>,ioHashString>
_TEXT	ENDS
PUBLIC	?OnSensing@ioMineWeapon2@@IAEXPAVioPlayStage@@M@Z ; ioMineWeapon2::OnSensing
EXTRN	?CheckSensingMine2@ioPlayStage@@QAE_NPAVioMineWeapon2@@M@Z:PROC ; ioPlayStage::CheckSensingMine2
; Function compile flags: /Ogsp
; File d:\lost saga for developer\youtube\tutorial\source\src\lsclient\iomineweapon2.cpp
;	COMDAT ?OnSensing@ioMineWeapon2@@IAEXPAVioPlayStage@@M@Z
_TEXT	SEGMENT
_pStage$ = 8						; size = 4
_fTimePerSec$ = 12					; size = 4
?OnSensing@ioMineWeapon2@@IAEXPAVioPlayStage@@M@Z PROC	; ioMineWeapon2::OnSensing, COMDAT
; _this$ = ecx

; 390  : {

  00000	55		 push	 ebp
  00001	8b ec		 mov	 ebp, esp
  00003	53		 push	 ebx

; 391  : 	VisibleCheck( pStage );

  00004	8b 5d 08	 mov	 ebx, DWORD PTR _pStage$[ebp]
  00007	56		 push	 esi
  00008	53		 push	 ebx
  00009	8b f1		 mov	 esi, ecx
  0000b	e8 00 00 00 00	 call	 ?VisibleCheck@ioMineWeapon2@@IAEXPAVioPlayStage@@@Z ; ioMineWeapon2::VisibleCheck

; 392  : 
; 393  : 	if( FindTarget( pStage, fTimePerSec ) )

  00010	f3 0f 10 45 0c	 movss	 xmm0, DWORD PTR _fTimePerSec$[ebp]
  00015	51		 push	 ecx
  00016	f3 0f 11 04 24	 movss	 DWORD PTR [esp], xmm0
  0001b	53		 push	 ebx
  0001c	8b ce		 mov	 ecx, esi
  0001e	e8 00 00 00 00	 call	 ?FindTarget@ioMineWeapon2@@QAE_NPAVioPlayStage@@M@Z ; ioMineWeapon2::FindTarget

; 394  : 	{	
; 395  : 		SetWaitFlyMine( pStage, true );

  00023	8b ce		 mov	 ecx, esi
  00025	84 c0		 test	 al, al
  00027	74 0d		 je	 SHORT $LN7@OnSensing
  00029	6a 01		 push	 1
  0002b	53		 push	 ebx
  0002c	e8 00 00 00 00	 call	 ?SetWaitFlyMine@ioMineWeapon2@@QAEXPAVioPlayStage@@_N@Z ; ioMineWeapon2::SetWaitFlyMine

; 396  : 		return;			

  00031	e9 85 00 00 00	 jmp	 $LN1@OnSensing
$LN7@OnSensing:

; 397  : 	}
; 398  : 
; 399  : 	// DropZone Check
; 400  : 	if( DropZoneCheck( pStage ) )

  00036	53		 push	 ebx
  00037	e8 00 00 00 00	 call	 ?DropZoneCheck@ioMineWeapon2@@IAE_NPAVioPlayStage@@@Z ; ioMineWeapon2::DropZoneCheck
  0003c	84 c0		 test	 al, al
  0003e	74 0a		 je	 SHORT $LN13@OnSensing

; 401  : 	{
; 402  : 		SetWaitExplosionMine( pStage, true );

  00040	6a 01		 push	 1
  00042	53		 push	 ebx
  00043	8b ce		 mov	 ecx, esi
  00045	e8 00 00 00 00	 call	 ?SetWaitExplosionMine@ioMineWeapon2@@QAEXPAVioPlayStage@@_N@Z ; ioMineWeapon2::SetWaitExplosionMine
$LN13@OnSensing:

; 403  : 	}
; 404  : 
; 405  : 	// Mine Vs Mine Check
; 406  : 	if( pStage->CheckSensingMine2( this, m_fMineSensingRange ) )

  0004a	f3 0f 10 86 6c
	0a 00 00	 movss	 xmm0, DWORD PTR [esi+2668]
  00052	51		 push	 ecx
  00053	f3 0f 11 04 24	 movss	 DWORD PTR [esp], xmm0
  00058	56		 push	 esi
  00059	8b cb		 mov	 ecx, ebx
  0005b	e8 00 00 00 00	 call	 ?CheckSensingMine2@ioPlayStage@@QAE_NPAVioMineWeapon2@@M@Z ; ioPlayStage::CheckSensingMine2
  00060	84 c0		 test	 al, al
  00062	74 0c		 je	 SHORT $LN5@OnSensing

; 407  : 	{
; 408  : 		SetWaitExplosionMine( pStage, true );

  00064	6a 01		 push	 1
  00066	53		 push	 ebx
  00067	8b ce		 mov	 ecx, esi
  00069	e8 00 00 00 00	 call	 ?SetWaitExplosionMine@ioMineWeapon2@@QAEXPAVioPlayStage@@_N@Z ; ioMineWeapon2::SetWaitExplosionMine

; 409  : 	}
; 410  : 	else

  0006e	eb 4b		 jmp	 SHORT $LN1@OnSensing
$LN5@OnSensing:

; 411  : 	{
; 412  : 		bool bCheckMoving = true;
; 413  : 		if( P2PNetwork::IsNetworkPlaying() && pStage->IsNetworkMode() )

  00070	e8 00 00 00 00	 call	 ?IsNetworkPlaying@P2PNetwork@@YA_NXZ ; P2PNetwork::IsNetworkPlaying
  00075	84 c0		 test	 al, al
  00077	74 14		 je	 SHORT $LN12@OnSensing
  00079	8b cb		 mov	 ecx, ebx
  0007b	e8 00 00 00 00	 call	 ?IsNetworkMode@ioPlayStage@@QAE_NXZ ; ioPlayStage::IsNetworkMode
  00080	84 c0		 test	 al, al
  00082	74 09		 je	 SHORT $LN12@OnSensing

; 414  : 		{
; 415  : 			bCheckMoving = IsGameOwnerWeapon();
; 416  : 		}
; 417  : 
; 418  : 		if( bCheckMoving && m_iConveyerMoveFrameIdx > 0 )

  00084	80 be 80 05 00
	00 00		 cmp	 BYTE PTR [esi+1408], 0
  0008b	74 2e		 je	 SHORT $LN1@OnSensing
$LN12@OnSensing:
  0008d	83 be ec 0b 00
	00 00		 cmp	 DWORD PTR [esi+3052], 0
  00094	57		 push	 edi
  00095	7e 23		 jle	 SHORT $LN14@OnSensing

; 419  : 		{
; 420  : 			if( m_iConveyerMoveFrameIdx + 1 < (int)g_FrameTimer.GetFrameCounter() )

  00097	ff 15 00 00 00
	00		 call	 DWORD PTR __imp_?GetSingleton@ioFrameTimer@@SAAAV1@XZ
  0009d	8b c8		 mov	 ecx, eax
  0009f	ff 15 00 00 00
	00		 call	 DWORD PTR __imp_?GetFrameCounter@ioFrameTimer@@QBEKXZ
  000a5	8b 8e ec 0b 00
	00		 mov	 ecx, DWORD PTR [esi+3052]
  000ab	41		 inc	 ecx
  000ac	3b c8		 cmp	 ecx, eax
  000ae	7d 0a		 jge	 SHORT $LN14@OnSensing

; 421  : 			{
; 422  : 				SetWaitExplosionMine( pStage, true );

  000b0	6a 01		 push	 1
  000b2	53		 push	 ebx
  000b3	8b ce		 mov	 ecx, esi
  000b5	e8 00 00 00 00	 call	 ?SetWaitExplosionMine@ioMineWeapon2@@QAEXPAVioPlayStage@@_N@Z ; ioMineWeapon2::SetWaitExplosionMine
$LN14@OnSensing:
  000ba	5f		 pop	 edi
$LN1@OnSensing:
  000bb	5e		 pop	 esi
  000bc	5b		 pop	 ebx

; 423  : 			}
; 424  : 		}
; 425  : 	}
; 426  : }

  000bd	5d		 pop	 ebp
  000be	c2 08 00	 ret	 8
?OnSensing@ioMineWeapon2@@IAEXPAVioPlayStage@@M@Z ENDP	; ioMineWeapon2::OnSensing
_TEXT	ENDS
PUBLIC	??$_Uninit_move@PAVioHashString@@PAV1@V?$allocator@VioHashString@@@std@@V1@@std@@YAPAVioHashString@@PAV1@00AAV?$allocator@VioHashString@@@0@0U_Nonscalar_ptr_iterator_tag@0@@Z ; std::_Uninit_move<ioHashString *,ioHashString *,std::allocator<ioHashString>,ioHashString>
EXTRN	__EH_prolog3_catch:PROC
;	COMDAT xdata$x
; File c:\program files (x86)\microsoft visual studio 10.0\vc\include\vector
xdata$x	SEGMENT
__catchsym$??$_Uninit_move@PAVioHashString@@PAV1@V?$allocator@VioHashString@@@std@@V1@@std@@YAPAVioHashString@@PAV1@00AAV?$allocator@VioHashString@@@0@0U_Nonscalar_ptr_iterator_tag@0@@Z$2 DD 040H
	DD	00H
	DD	00H
	DD	FLAT:__catch$??$_Uninit_move@PAVioHashString@@PAV1@V?$allocator@VioHashString@@@std@@V1@@std@@YAPAVioHashString@@PAV1@00AAV?$allocator@VioHashString@@@0@0U_Nonscalar_ptr_iterator_tag@0@@Z$0
__unwindtable$??$_Uninit_move@PAVioHashString@@PAV1@V?$allocator@VioHashString@@@std@@V1@@std@@YAPAVioHashString@@PAV1@00AAV?$allocator@VioHashString@@@0@0U_Nonscalar_ptr_iterator_tag@0@@Z DD 0ffffffffH
	DD	00H
	DD	0ffffffffH
	DD	00H
__tryblocktable$??$_Uninit_move@PAVioHashString@@PAV1@V?$allocator@VioHashString@@@std@@V1@@std@@YAPAVioHashString@@PAV1@00AAV?$allocator@VioHashString@@@0@0U_Nonscalar_ptr_iterator_tag@0@@Z DD 00H
	DD	00H
	DD	01H
	DD	01H
	DD	FLAT:__catchsym$??$_Uninit_move@PAVioHashString@@PAV1@V?$allocator@VioHashString@@@std@@V1@@std@@YAPAVioHashString@@PAV1@00AAV?$allocator@VioHashString@@@0@0U_Nonscalar_ptr_iterator_tag@0@@Z$2
__ehfuncinfo$??$_Uninit_move@PAVioHashString@@PAV1@V?$allocator@VioHashString@@@std@@V1@@std@@YAPAVioHashString@@PAV1@00AAV?$allocator@VioHashString@@@0@0U_Nonscalar_ptr_iterator_tag@0@@Z DD 019930522H
	DD	02H
	DD	FLAT:__unwindtable$??$_Uninit_move@PAVioHashString@@PAV1@V?$allocator@VioHashString@@@std@@V1@@std@@YAPAVioHashString@@PAV1@00AAV?$allocator@VioHashString@@@0@0U_Nonscalar_ptr_iterator_tag@0@@Z
	DD	01H
	DD	FLAT:__tryblocktable$??$_Uninit_move@PAVioHashString@@PAV1@V?$allocator@VioHashString@@@std@@V1@@std@@YAPAVioHashString@@PAV1@00AAV?$allocator@VioHashString@@@0@0U_Nonscalar_ptr_iterator_tag@0@@Z
	DD	2 DUP(00H)
	DD	00H
	DD	01H
; Function compile flags: /Ogsp
; File c:\program files (x86)\microsoft visual studio 10.0\vc\include\memory
xdata$x	ENDS
;	COMDAT ??$_Uninit_move@PAVioHashString@@PAV1@V?$allocator@VioHashString@@@std@@V1@@std@@YAPAVioHashString@@PAV1@00AAV?$allocator@VioHashString@@@0@0U_Nonscalar_ptr_iterator_tag@0@@Z
_TEXT	SEGMENT
__Next$ = -20						; size = 4
__$EHRec$ = -16						; size = 16
__First$ = 8						; size = 4
__Last$ = 12						; size = 4
__Dest$ = 16						; size = 4
__Al$ = 20						; size = 4
___formal$ = 24						; size = 4
___formal$ = 28						; size = 1
??$_Uninit_move@PAVioHashString@@PAV1@V?$allocator@VioHashString@@@std@@V1@@std@@YAPAVioHashString@@PAV1@00AAV?$allocator@VioHashString@@@0@0U_Nonscalar_ptr_iterator_tag@0@@Z PROC ; std::_Uninit_move<ioHashString *,ioHashString *,std::allocator<ioHashString>,ioHashString>, COMDAT

; 424  : 	{	// move [_First, _Last) to raw _Dest, using _Al, arbitrary type

  00000	6a 08		 push	 8
  00002	b8 00 00 00 00	 mov	 eax, __ehhandler$??$_Uninit_move@PAVioHashString@@PAV1@V?$allocator@VioHashString@@@std@@V1@@std@@YAPAVioHashString@@PAV1@00AAV?$allocator@VioHashString@@@0@0U_Nonscalar_ptr_iterator_tag@0@@Z
  00007	e8 00 00 00 00	 call	 __EH_prolog3_catch

; 425  : 	_DEBUG_RANGE(_First, _Last);
; 426  : 	_DEBUG_POINTER(_Dest);
; 427  : 	_FwdIt _Next = _Dest;

  0000c	8b 45 10	 mov	 eax, DWORD PTR __Dest$[ebp]

; 428  : 
; 429  : 	_TRY_BEGIN

  0000f	83 65 fc 00	 and	 DWORD PTR __$EHRec$[ebp+12], 0
  00013	8b 75 08	 mov	 esi, DWORD PTR __First$[ebp]
  00016	89 45 ec	 mov	 DWORD PTR __Next$[ebp], eax
$LL6@Uninit_mov:

; 430  : 	for (; _First != _Last; ++_Dest, ++_First)

  00019	3b 75 0c	 cmp	 esi, DWORD PTR __Last$[ebp]
  0001c	74 33		 je	 SHORT $LN4@Uninit_mov

; 431  : 		_Cons_val(_Al, _Dest, (_Valty &&)*_First);

  0001e	8b 4d 14	 mov	 ecx, DWORD PTR __Al$[ebp]
  00021	56		 push	 esi
  00022	ff 75 10	 push	 DWORD PTR __Dest$[ebp]
  00025	e8 00 00 00 00	 call	 ?construct@?$allocator@VioHashString@@@std@@QAEXPAVioHashString@@$$QAV3@@Z ; std::allocator<ioHashString>::construct
  0002a	83 45 10 10	 add	 DWORD PTR __Dest$[ebp], 16 ; 00000010H
  0002e	83 c6 10	 add	 esi, 16			; 00000010H
  00031	eb e6		 jmp	 SHORT $LL6@Uninit_mov
__catch$??$_Uninit_move@PAVioHashString@@PAV1@V?$allocator@VioHashString@@@std@@V1@@std@@YAPAVioHashString@@PAV1@00AAV?$allocator@VioHashString@@@0@0U_Nonscalar_ptr_iterator_tag@0@@Z$0:

; 432  : 	_CATCH_ALL
; 433  : 	for (; _Next != _Dest; ++_Next)

  00033	8b 75 ec	 mov	 esi, DWORD PTR __Next$[ebp]
  00036	eb 0b		 jmp	 SHORT $LN33@Uninit_mov
$LL3@Uninit_mov:

; 434  : 		_Dest_val(_Al, _Next);

  00038	8b ce		 mov	 ecx, esi
  0003a	ff 15 00 00 00
	00		 call	 DWORD PTR __imp_??1ioHashString@@QAE@XZ
  00040	83 c6 10	 add	 esi, 16			; 00000010H
$LN33@Uninit_mov:

; 432  : 	_CATCH_ALL
; 433  : 	for (; _Next != _Dest; ++_Next)

  00043	3b 75 10	 cmp	 esi, DWORD PTR __Dest$[ebp]
  00046	75 f0		 jne	 SHORT $LL3@Uninit_mov

; 435  : 	_RERAISE;

  00048	6a 00		 push	 0
  0004a	6a 00		 push	 0
  0004c	e8 00 00 00 00	 call	 __CxxThrowException@8
$LN34@Uninit_mov:
$LN4@Uninit_mov:

; 436  : 	_CATCH_END
; 437  : 	return (_Dest);

  00051	8b 45 10	 mov	 eax, DWORD PTR __Dest$[ebp]

; 438  : 	}

  00054	e8 00 00 00 00	 call	 __EH_epilog3
  00059	c3		 ret	 0
$LN32@Uninit_mov:
_TEXT	ENDS
;	COMDAT text$x
text$x	SEGMENT
__ehhandler$??$_Uninit_move@PAVioHashString@@PAV1@V?$allocator@VioHashString@@@std@@V1@@std@@YAPAVioHashString@@PAV1@00AAV?$allocator@VioHashString@@@0@0U_Nonscalar_ptr_iterator_tag@0@@Z:
  00000	8b 54 24 08	 mov	 edx, DWORD PTR [esp+8]
  00004	8d 42 0c	 lea	 eax, DWORD PTR [edx+12]
  00007	8b 4a e8	 mov	 ecx, DWORD PTR [edx-24]
  0000a	33 c8		 xor	 ecx, eax
  0000c	e8 00 00 00 00	 call	 @__security_check_cookie@4
  00011	b8 00 00 00 00	 mov	 eax, OFFSET __ehfuncinfo$??$_Uninit_move@PAVioHashString@@PAV1@V?$allocator@VioHashString@@@std@@V1@@std@@YAPAVioHashString@@PAV1@00AAV?$allocator@VioHashString@@@0@0U_Nonscalar_ptr_iterator_tag@0@@Z
  00016	e9 00 00 00 00	 jmp	 ___CxxFrameHandler3
text$x	ENDS
??$_Uninit_move@PAVioHashString@@PAV1@V?$allocator@VioHashString@@@std@@V1@@std@@YAPAVioHashString@@PAV1@00AAV?$allocator@VioHashString@@@0@0U_Nonscalar_ptr_iterator_tag@0@@Z ENDP ; std::_Uninit_move<ioHashString *,ioHashString *,std::allocator<ioHashString>,ioHashString>
PUBLIC	??$_Uninit_move@PAUBuffInfoStruct@@PAU1@V?$allocator@UBuffInfoStruct@@@std@@U1@@std@@YAPAUBuffInfoStruct@@PAU1@00AAV?$allocator@UBuffInfoStruct@@@0@0U_Nonscalar_ptr_iterator_tag@0@@Z ; std::_Uninit_move<BuffInfoStruct *,BuffInfoStruct *,std::allocator<BuffInfoStruct>,BuffInfoStruct>
;	COMDAT xdata$x
; File d:\lost saga for developer\youtube\tutorial\source\src\lsclient\weaponattribute.h
xdata$x	SEGMENT
__catchsym$??$_Uninit_move@PAUBuffInfoStruct@@PAU1@V?$allocator@UBuffInfoStruct@@@std@@U1@@std@@YAPAUBuffInfoStruct@@PAU1@00AAV?$allocator@UBuffInfoStruct@@@0@0U_Nonscalar_ptr_iterator_tag@0@@Z$3 DD 040H
	DD	00H
	DD	00H
	DD	FLAT:__catch$??$_Uninit_move@PAUBuffInfoStruct@@PAU1@V?$allocator@UBuffInfoStruct@@@std@@U1@@std@@YAPAUBuffInfoStruct@@PAU1@00AAV?$allocator@UBuffInfoStruct@@@0@0U_Nonscalar_ptr_iterator_tag@0@@Z$0
__unwindtable$??$_Uninit_move@PAUBuffInfoStruct@@PAU1@V?$allocator@UBuffInfoStruct@@@std@@U1@@std@@YAPAUBuffInfoStruct@@PAU1@00AAV?$allocator@UBuffInfoStruct@@@0@0U_Nonscalar_ptr_iterator_tag@0@@Z DD 0ffffffffH
	DD	00H
	DD	0ffffffffH
	DD	00H
__tryblocktable$??$_Uninit_move@PAUBuffInfoStruct@@PAU1@V?$allocator@UBuffInfoStruct@@@std@@U1@@std@@YAPAUBuffInfoStruct@@PAU1@00AAV?$allocator@UBuffInfoStruct@@@0@0U_Nonscalar_ptr_iterator_tag@0@@Z DD 00H
	DD	00H
	DD	01H
	DD	01H
	DD	FLAT:__catchsym$??$_Uninit_move@PAUBuffInfoStruct@@PAU1@V?$allocator@UBuffInfoStruct@@@std@@U1@@std@@YAPAUBuffInfoStruct@@PAU1@00AAV?$allocator@UBuffInfoStruct@@@0@0U_Nonscalar_ptr_iterator_tag@0@@Z$3
__ehfuncinfo$??$_Uninit_move@PAUBuffInfoStruct@@PAU1@V?$allocator@UBuffInfoStruct@@@std@@U1@@std@@YAPAUBuffInfoStruct@@PAU1@00AAV?$allocator@UBuffInfoStruct@@@0@0U_Nonscalar_ptr_iterator_tag@0@@Z DD 019930522H
	DD	02H
	DD	FLAT:__unwindtable$??$_Uninit_move@PAUBuffInfoStruct@@PAU1@V?$allocator@UBuffInfoStruct@@@std@@U1@@std@@YAPAUBuffInfoStruct@@PAU1@00AAV?$allocator@UBuffInfoStruct@@@0@0U_Nonscalar_ptr_iterator_tag@0@@Z
	DD	01H
	DD	FLAT:__tryblocktable$??$_Uninit_move@PAUBuffInfoStruct@@PAU1@V?$allocator@UBuffInfoStruct@@@std@@U1@@std@@YAPAUBuffInfoStruct@@PAU1@00AAV?$allocator@UBuffInfoStruct@@@0@0U_Nonscalar_ptr_iterator_tag@0@@Z
	DD	2 DUP(00H)
	DD	00H
	DD	01H
; Function compile flags: /Ogsp
; File c:\program files (x86)\microsoft visual studio 10.0\vc\include\memory
xdata$x	ENDS
;	COMDAT ??$_Uninit_move@PAUBuffInfoStruct@@PAU1@V?$allocator@UBuffInfoStruct@@@std@@U1@@std@@YAPAUBuffInfoStruct@@PAU1@00AAV?$allocator@UBuffInfoStruct@@@0@0U_Nonscalar_ptr_iterator_tag@0@@Z
_TEXT	SEGMENT
__Next$ = -20						; size = 4
__$EHRec$ = -16						; size = 16
__First$ = 8						; size = 4
__Last$ = 12						; size = 4
__Dest$ = 16						; size = 4
__Al$ = 20						; size = 4
___formal$ = 24						; size = 4
___formal$ = 28						; size = 1
??$_Uninit_move@PAUBuffInfoStruct@@PAU1@V?$allocator@UBuffInfoStruct@@@std@@U1@@std@@YAPAUBuffInfoStruct@@PAU1@00AAV?$allocator@UBuffInfoStruct@@@0@0U_Nonscalar_ptr_iterator_tag@0@@Z PROC ; std::_Uninit_move<BuffInfoStruct *,BuffInfoStruct *,std::allocator<BuffInfoStruct>,BuffInfoStruct>, COMDAT

; 424  : 	{	// move [_First, _Last) to raw _Dest, using _Al, arbitrary type

  00000	6a 08		 push	 8
  00002	b8 00 00 00 00	 mov	 eax, __ehhandler$??$_Uninit_move@PAUBuffInfoStruct@@PAU1@V?$allocator@UBuffInfoStruct@@@std@@U1@@std@@YAPAUBuffInfoStruct@@PAU1@00AAV?$allocator@UBuffInfoStruct@@@0@0U_Nonscalar_ptr_iterator_tag@0@@Z
  00007	e8 00 00 00 00	 call	 __EH_prolog3_catch

; 425  : 	_DEBUG_RANGE(_First, _Last);
; 426  : 	_DEBUG_POINTER(_Dest);
; 427  : 	_FwdIt _Next = _Dest;

  0000c	8b 45 10	 mov	 eax, DWORD PTR __Dest$[ebp]

; 428  : 
; 429  : 	_TRY_BEGIN

  0000f	83 65 fc 00	 and	 DWORD PTR __$EHRec$[ebp+12], 0
  00013	8b 75 08	 mov	 esi, DWORD PTR __First$[ebp]
  00016	89 45 ec	 mov	 DWORD PTR __Next$[ebp], eax
$LL6@Uninit_mov@2:

; 430  : 	for (; _First != _Last; ++_Dest, ++_First)

  00019	3b 75 0c	 cmp	 esi, DWORD PTR __Last$[ebp]
  0001c	74 33		 je	 SHORT $LN4@Uninit_mov@2

; 431  : 		_Cons_val(_Al, _Dest, (_Valty &&)*_First);

  0001e	8b 4d 14	 mov	 ecx, DWORD PTR __Al$[ebp]
  00021	56		 push	 esi
  00022	ff 75 10	 push	 DWORD PTR __Dest$[ebp]
  00025	e8 00 00 00 00	 call	 ?construct@?$allocator@UBuffInfoStruct@@@std@@QAEXPAUBuffInfoStruct@@$$QAU3@@Z ; std::allocator<BuffInfoStruct>::construct
  0002a	83 45 10 14	 add	 DWORD PTR __Dest$[ebp], 20 ; 00000014H
  0002e	83 c6 14	 add	 esi, 20			; 00000014H
  00031	eb e6		 jmp	 SHORT $LL6@Uninit_mov@2
__catch$??$_Uninit_move@PAUBuffInfoStruct@@PAU1@V?$allocator@UBuffInfoStruct@@@std@@U1@@std@@YAPAUBuffInfoStruct@@PAU1@00AAV?$allocator@UBuffInfoStruct@@@0@0U_Nonscalar_ptr_iterator_tag@0@@Z$0:

; 432  : 	_CATCH_ALL
; 433  : 	for (; _Next != _Dest; ++_Next)

  00033	8b 75 ec	 mov	 esi, DWORD PTR __Next$[ebp]
  00036	eb 0b		 jmp	 SHORT $LN36@Uninit_mov@2
$LL3@Uninit_mov@2:

; 434  : 		_Dest_val(_Al, _Next);

  00038	8b ce		 mov	 ecx, esi
  0003a	ff 15 00 00 00
	00		 call	 DWORD PTR __imp_??1ioHashString@@QAE@XZ
  00040	83 c6 14	 add	 esi, 20			; 00000014H
$LN36@Uninit_mov@2:

; 432  : 	_CATCH_ALL
; 433  : 	for (; _Next != _Dest; ++_Next)

  00043	3b 75 10	 cmp	 esi, DWORD PTR __Dest$[ebp]
  00046	75 f0		 jne	 SHORT $LL3@Uninit_mov@2

; 435  : 	_RERAISE;

  00048	6a 00		 push	 0
  0004a	6a 00		 push	 0
  0004c	e8 00 00 00 00	 call	 __CxxThrowException@8
$LN37@Uninit_mov@2:
$LN4@Uninit_mov@2:

; 436  : 	_CATCH_END
; 437  : 	return (_Dest);

  00051	8b 45 10	 mov	 eax, DWORD PTR __Dest$[ebp]

; 438  : 	}

  00054	e8 00 00 00 00	 call	 __EH_epilog3
  00059	c3		 ret	 0
$LN35@Uninit_mov@2:
_TEXT	ENDS
;	COMDAT text$x
text$x	SEGMENT
__ehhandler$??$_Uninit_move@PAUBuffInfoStruct@@PAU1@V?$allocator@UBuffInfoStruct@@@std@@U1@@std@@YAPAUBuffInfoStruct@@PAU1@00AAV?$allocator@UBuffInfoStruct@@@0@0U_Nonscalar_ptr_iterator_tag@0@@Z:
  00000	8b 54 24 08	 mov	 edx, DWORD PTR [esp+8]
  00004	8d 42 0c	 lea	 eax, DWORD PTR [edx+12]
  00007	8b 4a e8	 mov	 ecx, DWORD PTR [edx-24]
  0000a	33 c8		 xor	 ecx, eax
  0000c	e8 00 00 00 00	 call	 @__security_check_cookie@4
  00011	b8 00 00 00 00	 mov	 eax, OFFSET __ehfuncinfo$??$_Uninit_move@PAUBuffInfoStruct@@PAU1@V?$allocator@UBuffInfoStruct@@@std@@U1@@std@@YAPAUBuffInfoStruct@@PAU1@00AAV?$allocator@UBuffInfoStruct@@@0@0U_Nonscalar_ptr_iterator_tag@0@@Z
  00016	e9 00 00 00 00	 jmp	 ___CxxFrameHandler3
text$x	ENDS
??$_Uninit_move@PAUBuffInfoStruct@@PAU1@V?$allocator@UBuffInfoStruct@@@std@@U1@@std@@YAPAUBuffInfoStruct@@PAU1@00AAV?$allocator@UBuffInfoStruct@@@0@0U_Nonscalar_ptr_iterator_tag@0@@Z ENDP ; std::_Uninit_move<BuffInfoStruct *,BuffInfoStruct *,std::allocator<BuffInfoStruct>,BuffInfoStruct>
PUBLIC	??$_Destroy_range@V?$allocator@UBuffInfoStruct@@@std@@@std@@YAXPAUBuffInfoStruct@@0AAV?$allocator@UBuffInfoStruct@@@0@U_Nonscalar_ptr_iterator_tag@0@@Z ; std::_Destroy_range<std::allocator<BuffInfoStruct> >
; Function compile flags: /Ogsp
; File c:\program files (x86)\microsoft visual studio 10.0\vc\include\xmemory
;	COMDAT ??$_Destroy_range@V?$allocator@UBuffInfoStruct@@@std@@@std@@YAXPAUBuffInfoStruct@@0AAV?$allocator@UBuffInfoStruct@@@0@U_Nonscalar_ptr_iterator_tag@0@@Z
_TEXT	SEGMENT
__First$ = 8						; size = 4
__Last$ = 12						; size = 4
__Al$ = 16						; size = 4
___formal$ = 20						; size = 1
??$_Destroy_range@V?$allocator@UBuffInfoStruct@@@std@@@std@@YAXPAUBuffInfoStruct@@0AAV?$allocator@UBuffInfoStruct@@@0@U_Nonscalar_ptr_iterator_tag@0@@Z PROC ; std::_Destroy_range<std::allocator<BuffInfoStruct> >, COMDAT

; 95   : 	{	// destroy [_First, _Last), arbitrary type

  00000	55		 push	 ebp
  00001	8b ec		 mov	 ebp, esp
  00003	56		 push	 esi

; 96   : 	for (; _First != _Last; ++_First)

  00004	8b 75 08	 mov	 esi, DWORD PTR __First$[ebp]
  00007	eb 0b		 jmp	 SHORT $LN20@Destroy_ra
$LL3@Destroy_ra:

; 97   : 		_Dest_val(_Al, _First);

  00009	8b ce		 mov	 ecx, esi
  0000b	ff 15 00 00 00
	00		 call	 DWORD PTR __imp_??1ioHashString@@QAE@XZ
  00011	83 c6 14	 add	 esi, 20			; 00000014H
$LN20@Destroy_ra:

; 96   : 	for (; _First != _Last; ++_First)

  00014	3b 75 0c	 cmp	 esi, DWORD PTR __Last$[ebp]
  00017	75 f0		 jne	 SHORT $LL3@Destroy_ra
  00019	5e		 pop	 esi

; 98   : 	}

  0001a	5d		 pop	 ebp
  0001b	c3		 ret	 0
??$_Destroy_range@V?$allocator@UBuffInfoStruct@@@std@@@std@@YAXPAUBuffInfoStruct@@0AAV?$allocator@UBuffInfoStruct@@@0@U_Nonscalar_ptr_iterator_tag@0@@Z ENDP ; std::_Destroy_range<std::allocator<BuffInfoStruct> >
_TEXT	ENDS
PUBLIC	??$_Destroy_range@V?$allocator@VioHashString@@@std@@@std@@YAXPAVioHashString@@0AAV?$allocator@VioHashString@@@0@U_Nonscalar_ptr_iterator_tag@0@@Z ; std::_Destroy_range<std::allocator<ioHashString> >
; Function compile flags: /Ogsp
;	COMDAT ??$_Destroy_range@V?$allocator@VioHashString@@@std@@@std@@YAXPAVioHashString@@0AAV?$allocator@VioHashString@@@0@U_Nonscalar_ptr_iterator_tag@0@@Z
_TEXT	SEGMENT
__First$ = 8						; size = 4
__Last$ = 12						; size = 4
__Al$ = 16						; size = 4
___formal$ = 20						; size = 1
??$_Destroy_range@V?$allocator@VioHashString@@@std@@@std@@YAXPAVioHashString@@0AAV?$allocator@VioHashString@@@0@U_Nonscalar_ptr_iterator_tag@0@@Z PROC ; std::_Destroy_range<std::allocator<ioHashString> >, COMDAT

; 95   : 	{	// destroy [_First, _Last), arbitrary type

  00000	55		 push	 ebp
  00001	8b ec		 mov	 ebp, esp
  00003	56		 push	 esi

; 96   : 	for (; _First != _Last; ++_First)

  00004	8b 75 08	 mov	 esi, DWORD PTR __First$[ebp]
  00007	eb 0b		 jmp	 SHORT $LN17@Destroy_ra@2
$LL3@Destroy_ra@2:

; 97   : 		_Dest_val(_Al, _First);

  00009	8b ce		 mov	 ecx, esi
  0000b	ff 15 00 00 00
	00		 call	 DWORD PTR __imp_??1ioHashString@@QAE@XZ
  00011	83 c6 10	 add	 esi, 16			; 00000010H
$LN17@Destroy_ra@2:

; 96   : 	for (; _First != _Last; ++_First)

  00014	3b 75 0c	 cmp	 esi, DWORD PTR __Last$[ebp]
  00017	75 f0		 jne	 SHORT $LL3@Destroy_ra@2
  00019	5e		 pop	 esi

; 98   : 	}

  0001a	5d		 pop	 ebp
  0001b	c3		 ret	 0
??$_Destroy_range@V?$allocator@VioHashString@@@std@@@std@@YAXPAVioHashString@@0AAV?$allocator@VioHashString@@@0@U_Nonscalar_ptr_iterator_tag@0@@Z ENDP ; std::_Destroy_range<std::allocator<ioHashString> >
_TEXT	ENDS
PUBLIC	?Process@ioMineWeapon2@@UAEXMPAVioPlayStage@@@Z	; ioMineWeapon2::Process
EXTRN	?SetWorldPosition@ioMapEffect@@QAEXABUD3DXVECTOR3@@@Z:PROC ; ioMapEffect::SetWorldPosition
EXTRN	?FindMapEffect@ioPlayStage@@QAEPAVioMapEffect@@K@Z:PROC ; ioPlayStage::FindMapEffect
; Function compile flags: /Ogsp
; File d:\lost saga for developer\youtube\tutorial\source\src\lsclient\iomineweapon2.cpp
;	COMDAT ?Process@ioMineWeapon2@@UAEXMPAVioPlayStage@@@Z
_TEXT	SEGMENT
_quat$531709 = -16					; size = 16
_fTimePerSec$ = 8					; size = 4
_pStage$ = 12						; size = 4
?Process@ioMineWeapon2@@UAEXMPAVioPlayStage@@@Z PROC	; ioMineWeapon2::Process, COMDAT
; _this$ = ecx

; 306  : {

  00000	55		 push	 ebp
  00001	8b ec		 mov	 ebp, esp
  00003	83 ec 10	 sub	 esp, 16			; 00000010H
  00006	56		 push	 esi
  00007	57		 push	 edi
  00008	8b f1		 mov	 esi, ecx

; 307  : 	DWORD dwCurTime = FRAMEGETTIME();

  0000a	ff 15 00 00 00
	00		 call	 DWORD PTR __imp_?GetSingleton@ioFrameTimer@@SAAAV1@XZ
  00010	8b c8		 mov	 ecx, eax
  00012	ff 15 00 00 00
	00		 call	 DWORD PTR __imp_?GetLoopSec@ioFrameTimer@@QBEKXZ

; 308  : 
; 309  : 	switch( m_State )

  00018	8b 8e 9c 0b 00
	00		 mov	 ecx, DWORD PTR [esi+2972]
  0001e	83 e9 00	 sub	 ecx, 0
  00021	0f 84 41 01 00
	00		 je	 $LN12@Process
  00027	49		 dec	 ecx
  00028	0f 84 23 01 00
	00		 je	 $LN11@Process
  0002e	49		 dec	 ecx
  0002f	0f 84 10 01 00
	00		 je	 $LN10@Process
  00035	49		 dec	 ecx
  00036	0f 84 b5 00 00
	00		 je	 $LN9@Process
  0003c	49		 dec	 ecx
  0003d	74 22		 je	 SHORT $LN7@Process
  0003f	49		 dec	 ecx
  00040	74 13		 je	 SHORT $LN2@Process
  00042	49		 dec	 ecx
  00043	0f 85 29 01 00
	00		 jne	 $LN13@Process

; 362  : 	case MS_NORMAL_DEAD:
; 363  : 		OnNormalDead();

  00049	8b ce		 mov	 ecx, esi
  0004b	e8 00 00 00 00	 call	 ?OnNormalDead@ioMineWeapon2@@IAEXXZ ; ioMineWeapon2::OnNormalDead

; 364  : 		break;

  00050	e9 1d 01 00 00	 jmp	 $LN13@Process
$LN2@Process:

; 359  : 	case MS_EXPLOSION:
; 360  : 		OnExplosion();

  00055	8b ce		 mov	 ecx, esi
  00057	e8 00 00 00 00	 call	 ?OnExplosion@ioMineWeapon2@@IAEXXZ ; ioMineWeapon2::OnExplosion

; 361  : 		break;

  0005c	e9 11 01 00 00	 jmp	 $LN13@Process
$LN7@Process:

; 336  : 	case MS_FLY_TRACING:
; 337  : 		{		
; 338  : 			if( 0 < m_dwTraceEndTime && m_dwTraceEndTime < dwCurTime )

  00061	8b 8e f8 09 00
	00		 mov	 ecx, DWORD PTR [esi+2552]
  00067	85 c9		 test	 ecx, ecx
  00069	74 14		 je	 SHORT $LN6@Process
  0006b	3b c8		 cmp	 ecx, eax
  0006d	73 10		 jae	 SHORT $LN6@Process

; 339  : 			{
; 340  : 				ExplosionMine( pStage, true );

  0006f	6a 01		 push	 1
  00071	6a 01		 push	 1
  00073	ff 75 0c	 push	 DWORD PTR _pStage$[ebp]
  00076	8b ce		 mov	 ecx, esi
  00078	e8 00 00 00 00	 call	 ?ExplosionMine@ioMineWeapon2@@QAEXPAVioPlayStage@@_N1@Z ; ioMineWeapon2::ExplosionMine

; 341  : 			}
; 342  : 			else

  0007d	eb 15		 jmp	 SHORT $LN5@Process
$LN6@Process:

; 343  : 			{
; 344  : 				OnFlyTracing( pStage, fTimePerSec );

  0007f	f3 0f 10 45 08	 movss	 xmm0, DWORD PTR _fTimePerSec$[ebp]
  00084	51		 push	 ecx
  00085	f3 0f 11 04 24	 movss	 DWORD PTR [esp], xmm0
  0008a	ff 75 0c	 push	 DWORD PTR _pStage$[ebp]
  0008d	8b ce		 mov	 ecx, esi
  0008f	e8 00 00 00 00	 call	 ?OnFlyTracing@ioMineWeapon2@@IAEXPAVioPlayStage@@M@Z ; ioMineWeapon2::OnFlyTracing
$LN5@Process:

; 345  : 			}
; 346  : 
; 347  : 			ioMapEffect* pMapEffect = pStage->FindMapEffect( m_dwFireSprayEffect );

  00094	ff b6 c4 0b 00
	00		 push	 DWORD PTR [esi+3012]
  0009a	8b 4d 0c	 mov	 ecx, DWORD PTR _pStage$[ebp]
  0009d	e8 00 00 00 00	 call	 ?FindMapEffect@ioPlayStage@@QAEPAVioMapEffect@@K@Z ; ioPlayStage::FindMapEffect
  000a2	8b f8		 mov	 edi, eax

; 348  : 			if( pMapEffect )

  000a4	85 ff		 test	 edi, edi
  000a6	0f 84 c6 00 00
	00		 je	 $LN13@Process

; 349  : 			{
; 350  : 				pMapEffect->SetWorldPosition( GetPosition() );

  000ac	8b 06		 mov	 eax, DWORD PTR [esi]
  000ae	8b ce		 mov	 ecx, esi
  000b0	ff 50 70	 call	 DWORD PTR [eax+112]
  000b3	50		 push	 eax
  000b4	8b cf		 mov	 ecx, edi
  000b6	e8 00 00 00 00	 call	 ?SetWorldPosition@ioMapEffect@@QAEXABUD3DXVECTOR3@@@Z ; ioMapEffect::SetWorldPosition

; 351  : 				ioEffect* pEffect = pMapEffect->GetEffect();

  000bb	8b 47 04	 mov	 eax, DWORD PTR [edi+4]

; 352  : 				if( pEffect )

  000be	85 c0		 test	 eax, eax
  000c0	0f 84 ac 00 00
	00		 je	 $LN13@Process

; 353  : 				{
; 354  : 					pEffect->GetParentSceneNode()->Rotate( m_vEffectDir, m_fGapAngle );

  000c6	8d 48 14	 lea	 ecx, DWORD PTR [eax+20]
  000c9	8b 01		 mov	 eax, DWORD PTR [ecx]
  000cb	ff 50 34	 call	 DWORD PTR [eax+52]
  000ce	f3 0f 10 86 d4
	0b 00 00	 movss	 xmm0, DWORD PTR [esi+3028]
  000d6	8b 10		 mov	 edx, DWORD PTR [eax]
  000d8	6a 01		 push	 1
  000da	51		 push	 ecx
  000db	8d 8e c8 0b 00
	00		 lea	 ecx, DWORD PTR [esi+3016]
  000e1	f3 0f 11 04 24	 movss	 DWORD PTR [esp], xmm0
  000e6	51		 push	 ecx
  000e7	8b c8		 mov	 ecx, eax
  000e9	ff 52 50	 call	 DWORD PTR [edx+80]

; 355  : 				}
; 356  : 			}
; 357  : 		}
; 358  : 		break;

  000ec	e9 81 00 00 00	 jmp	 $LN13@Process
$LN9@Process:

; 320  : 	case MS_FLY_WAIT:
; 321  : 		{
; 322  : 			OnWaitFlyMine( pStage, fTimePerSec );

  000f1	f3 0f 10 45 08	 movss	 xmm0, DWORD PTR _fTimePerSec$[ebp]
  000f6	51		 push	 ecx
  000f7	f3 0f 11 04 24	 movss	 DWORD PTR [esp], xmm0
  000fc	ff 75 0c	 push	 DWORD PTR _pStage$[ebp]
  000ff	8b ce		 mov	 ecx, esi
  00101	e8 00 00 00 00	 call	 ?OnWaitFlyMine@ioMineWeapon2@@IAEXPAVioPlayStage@@M@Z ; ioMineWeapon2::OnWaitFlyMine

; 323  : 
; 324  : 			ioMapEffect* pMapEffect = pStage->FindMapEffect( m_dwFireSprayEffect );

  00106	ff b6 c4 0b 00
	00		 push	 DWORD PTR [esi+3012]
  0010c	8b 4d 0c	 mov	 ecx, DWORD PTR _pStage$[ebp]
  0010f	e8 00 00 00 00	 call	 ?FindMapEffect@ioPlayStage@@QAEPAVioMapEffect@@K@Z ; ioPlayStage::FindMapEffect
  00114	8b f8		 mov	 edi, eax

; 325  : 			if( pMapEffect )

  00116	85 ff		 test	 edi, edi
  00118	74 58		 je	 SHORT $LN13@Process

; 326  : 			{
; 327  : 				D3DXVECTOR3 vPos = GetPosition();				

  0011a	8b 06		 mov	 eax, DWORD PTR [esi]
  0011c	8b ce		 mov	 ecx, esi
  0011e	ff 50 70	 call	 DWORD PTR [eax+112]

; 328  : 				D3DXQUATERNION quat;
; 329  : 				ioMath::CalcDirectionQuaternion( quat, m_vMoveDir );

  00121	8d 86 c8 08 00
	00		 lea	 eax, DWORD PTR [esi+2248]
  00127	50		 push	 eax
  00128	8d 45 f0	 lea	 eax, DWORD PTR _quat$531709[ebp]
  0012b	50		 push	 eax
  0012c	ff 15 00 00 00
	00		 call	 DWORD PTR __imp_?CalcDirectionQuaternion@ioMath@@SAXAAUD3DXQUATERNION@@ABUD3DXVECTOR3@@@Z

; 330  : 			
; 331  : 				pMapEffect->SetWorldPosition( GetPosition() );

  00132	8b 06		 mov	 eax, DWORD PTR [esi]
  00134	59		 pop	 ecx
  00135	59		 pop	 ecx
  00136	8b ce		 mov	 ecx, esi
  00138	ff 50 70	 call	 DWORD PTR [eax+112]
  0013b	50		 push	 eax
  0013c	8b cf		 mov	 ecx, edi
  0013e	e8 00 00 00 00	 call	 ?SetWorldPosition@ioMapEffect@@QAEXABUD3DXVECTOR3@@@Z ; ioMapEffect::SetWorldPosition

; 332  : 			}
; 333  : 		}
; 334  : 
; 335  : 		break;

  00143	eb 2d		 jmp	 SHORT $LN13@Process
$LN10@Process:

; 317  : 	case MS_WAIT_EXPLOSION:
; 318  : 		OnWaitExplosion( pStage );

  00145	ff 75 0c	 push	 DWORD PTR _pStage$[ebp]
  00148	8b ce		 mov	 ecx, esi
  0014a	e8 00 00 00 00	 call	 ?OnWaitExplosion@ioMineWeapon2@@IAEXPAVioPlayStage@@@Z ; ioMineWeapon2::OnWaitExplosion

; 319  : 		break;

  0014f	eb 21		 jmp	 SHORT $LN13@Process
$LN11@Process:

; 313  : 		break;
; 314  : 	case MS_SENSING:
; 315  : 		OnSensing( pStage, fTimePerSec );

  00151	f3 0f 10 45 08	 movss	 xmm0, DWORD PTR _fTimePerSec$[ebp]
  00156	51		 push	 ecx
  00157	f3 0f 11 04 24	 movss	 DWORD PTR [esp], xmm0
  0015c	ff 75 0c	 push	 DWORD PTR _pStage$[ebp]
  0015f	8b ce		 mov	 ecx, esi
  00161	e8 00 00 00 00	 call	 ?OnSensing@ioMineWeapon2@@IAEXPAVioPlayStage@@M@Z ; ioMineWeapon2::OnSensing

; 316  : 		break;

  00166	eb 0a		 jmp	 SHORT $LN13@Process
$LN12@Process:

; 310  : 	{
; 311  : 	case MS_CHARGE:
; 312  : 		OnCharge( pStage );

  00168	ff 75 0c	 push	 DWORD PTR _pStage$[ebp]
  0016b	8b ce		 mov	 ecx, esi
  0016d	e8 00 00 00 00	 call	 ?OnCharge@ioMineWeapon2@@IAEXPAVioPlayStage@@@Z ; ioMineWeapon2::OnCharge
$LN13@Process:

; 365  : 	}
; 366  : 
; 367  : 	UpdateWorldCollisionBox();

  00172	8b ce		 mov	 ecx, esi
  00174	e8 00 00 00 00	 call	 ?UpdateWorldCollisionBox@ioMineWeapon2@@IAEXXZ ; ioMineWeapon2::UpdateWorldCollisionBox
  00179	5f		 pop	 edi
  0017a	5e		 pop	 esi

; 368  : }

  0017b	c9		 leave
  0017c	c2 08 00	 ret	 8
?Process@ioMineWeapon2@@UAEXMPAVioPlayStage@@@Z ENDP	; ioMineWeapon2::Process
_TEXT	ENDS
PUBLIC	??$_Uninitialized_move@PAVioHashString@@PAV1@V?$allocator@VioHashString@@@std@@@std@@YAPAVioHashString@@PAV1@00AAV?$allocator@VioHashString@@@0@@Z ; std::_Uninitialized_move<ioHashString *,ioHashString *,std::allocator<ioHashString> >
; Function compile flags: /Ogsp
; File c:\program files (x86)\microsoft visual studio 10.0\vc\include\memory
;	COMDAT ??$_Uninitialized_move@PAVioHashString@@PAV1@V?$allocator@VioHashString@@@std@@@std@@YAPAVioHashString@@PAV1@00AAV?$allocator@VioHashString@@@0@@Z
_TEXT	SEGMENT
__Cat$539712 = -4					; size = 1
__First$ = 8						; size = 4
__Last$ = 12						; size = 4
__Dest$ = 16						; size = 4
__Al$ = 20						; size = 4
??$_Uninitialized_move@PAVioHashString@@PAV1@V?$allocator@VioHashString@@@std@@@std@@YAPAVioHashString@@PAV1@00AAV?$allocator@VioHashString@@@0@@Z PROC ; std::_Uninitialized_move<ioHashString *,ioHashString *,std::allocator<ioHashString> >, COMDAT

; 469  : 	{	// move [_First, _Last) to raw _Dest, using _Al

  00000	55		 push	 ebp
  00001	8b ec		 mov	 ebp, esp
  00003	51		 push	 ecx

; 470  : 	return (_Uninit_move(_First, _Last, _Dest, _Al,
; 471  : 		_Val_type(_First), _Ptr_cat(_First, _Dest)));

  00004	ff 75 fc	 push	 DWORD PTR __Cat$539712[ebp]
  00007	6a 00		 push	 0
  00009	ff 75 14	 push	 DWORD PTR __Al$[ebp]
  0000c	ff 75 10	 push	 DWORD PTR __Dest$[ebp]
  0000f	ff 75 0c	 push	 DWORD PTR __Last$[ebp]
  00012	ff 75 08	 push	 DWORD PTR __First$[ebp]
  00015	e8 00 00 00 00	 call	 ??$_Uninit_move@PAVioHashString@@PAV1@V?$allocator@VioHashString@@@std@@V1@@std@@YAPAVioHashString@@PAV1@00AAV?$allocator@VioHashString@@@0@0U_Nonscalar_ptr_iterator_tag@0@@Z ; std::_Uninit_move<ioHashString *,ioHashString *,std::allocator<ioHashString>,ioHashString>
  0001a	83 c4 18	 add	 esp, 24			; 00000018H

; 472  : 	}

  0001d	c9		 leave
  0001e	c3		 ret	 0
??$_Uninitialized_move@PAVioHashString@@PAV1@V?$allocator@VioHashString@@@std@@@std@@YAPAVioHashString@@PAV1@00AAV?$allocator@VioHashString@@@0@@Z ENDP ; std::_Uninitialized_move<ioHashString *,ioHashString *,std::allocator<ioHashString> >
_TEXT	ENDS
PUBLIC	??$_Uninitialized_move@PAUBuffInfoStruct@@PAU1@V?$allocator@UBuffInfoStruct@@@std@@@std@@YAPAUBuffInfoStruct@@PAU1@00AAV?$allocator@UBuffInfoStruct@@@0@@Z ; std::_Uninitialized_move<BuffInfoStruct *,BuffInfoStruct *,std::allocator<BuffInfoStruct> >
; Function compile flags: /Ogsp
;	COMDAT ??$_Uninitialized_move@PAUBuffInfoStruct@@PAU1@V?$allocator@UBuffInfoStruct@@@std@@@std@@YAPAUBuffInfoStruct@@PAU1@00AAV?$allocator@UBuffInfoStruct@@@0@@Z
_TEXT	SEGMENT
__Cat$539722 = -4					; size = 1
__First$ = 8						; size = 4
__Last$ = 12						; size = 4
__Dest$ = 16						; size = 4
__Al$ = 20						; size = 4
??$_Uninitialized_move@PAUBuffInfoStruct@@PAU1@V?$allocator@UBuffInfoStruct@@@std@@@std@@YAPAUBuffInfoStruct@@PAU1@00AAV?$allocator@UBuffInfoStruct@@@0@@Z PROC ; std::_Uninitialized_move<BuffInfoStruct *,BuffInfoStruct *,std::allocator<BuffInfoStruct> >, COMDAT

; 469  : 	{	// move [_First, _Last) to raw _Dest, using _Al

  00000	55		 push	 ebp
  00001	8b ec		 mov	 ebp, esp
  00003	51		 push	 ecx

; 470  : 	return (_Uninit_move(_First, _Last, _Dest, _Al,
; 471  : 		_Val_type(_First), _Ptr_cat(_First, _Dest)));

  00004	ff 75 fc	 push	 DWORD PTR __Cat$539722[ebp]
  00007	6a 00		 push	 0
  00009	ff 75 14	 push	 DWORD PTR __Al$[ebp]
  0000c	ff 75 10	 push	 DWORD PTR __Dest$[ebp]
  0000f	ff 75 0c	 push	 DWORD PTR __Last$[ebp]
  00012	ff 75 08	 push	 DWORD PTR __First$[ebp]
  00015	e8 00 00 00 00	 call	 ??$_Uninit_move@PAUBuffInfoStruct@@PAU1@V?$allocator@UBuffInfoStruct@@@std@@U1@@std@@YAPAUBuffInfoStruct@@PAU1@00AAV?$allocator@UBuffInfoStruct@@@0@0U_Nonscalar_ptr_iterator_tag@0@@Z ; std::_Uninit_move<BuffInfoStruct *,BuffInfoStruct *,std::allocator<BuffInfoStruct>,BuffInfoStruct>
  0001a	83 c4 18	 add	 esp, 24			; 00000018H

; 472  : 	}

  0001d	c9		 leave
  0001e	c3		 ret	 0
??$_Uninitialized_move@PAUBuffInfoStruct@@PAU1@V?$allocator@UBuffInfoStruct@@@std@@@std@@YAPAUBuffInfoStruct@@PAU1@00AAV?$allocator@UBuffInfoStruct@@@0@@Z ENDP ; std::_Uninitialized_move<BuffInfoStruct *,BuffInfoStruct *,std::allocator<BuffInfoStruct> >
_TEXT	ENDS
PUBLIC	??$_Destroy_range@V?$allocator@UBuffInfoStruct@@@std@@@std@@YAXPAUBuffInfoStruct@@0AAV?$allocator@UBuffInfoStruct@@@0@@Z ; std::_Destroy_range<std::allocator<BuffInfoStruct> >
; Function compile flags: /Ogsp
; File c:\program files (x86)\microsoft visual studio 10.0\vc\include\xmemory
;	COMDAT ??$_Destroy_range@V?$allocator@UBuffInfoStruct@@@std@@@std@@YAXPAUBuffInfoStruct@@0AAV?$allocator@UBuffInfoStruct@@@0@@Z
_TEXT	SEGMENT
__First$ = 8						; size = 4
__Last$ = 12						; size = 4
__Al$ = 16						; size = 4
??$_Destroy_range@V?$allocator@UBuffInfoStruct@@@std@@@std@@YAXPAUBuffInfoStruct@@0AAV?$allocator@UBuffInfoStruct@@@0@@Z PROC ; std::_Destroy_range<std::allocator<BuffInfoStruct> >, COMDAT

; 87   : 	{	// destroy [_First, _Last)

  00000	55		 push	 ebp
  00001	8b ec		 mov	 ebp, esp
  00003	56		 push	 esi

; 88   : 	_Destroy_range(_First, _Last, _Al, _Ptr_cat(_First, _Last));

  00004	8b 75 08	 mov	 esi, DWORD PTR __First$[ebp]
  00007	eb 0b		 jmp	 SHORT $LN24@Destroy_ra@3
$LL7@Destroy_ra@3:
  00009	8b ce		 mov	 ecx, esi
  0000b	ff 15 00 00 00
	00		 call	 DWORD PTR __imp_??1ioHashString@@QAE@XZ
  00011	83 c6 14	 add	 esi, 20			; 00000014H
$LN24@Destroy_ra@3:
  00014	3b 75 0c	 cmp	 esi, DWORD PTR __Last$[ebp]
  00017	75 f0		 jne	 SHORT $LL7@Destroy_ra@3
  00019	5e		 pop	 esi

; 89   : 	}

  0001a	5d		 pop	 ebp
  0001b	c3		 ret	 0
??$_Destroy_range@V?$allocator@UBuffInfoStruct@@@std@@@std@@YAXPAUBuffInfoStruct@@0AAV?$allocator@UBuffInfoStruct@@@0@@Z ENDP ; std::_Destroy_range<std::allocator<BuffInfoStruct> >
_TEXT	ENDS
PUBLIC	??$_Destroy_range@V?$allocator@VioHashString@@@std@@@std@@YAXPAVioHashString@@0AAV?$allocator@VioHashString@@@0@@Z ; std::_Destroy_range<std::allocator<ioHashString> >
; Function compile flags: /Ogsp
;	COMDAT ??$_Destroy_range@V?$allocator@VioHashString@@@std@@@std@@YAXPAVioHashString@@0AAV?$allocator@VioHashString@@@0@@Z
_TEXT	SEGMENT
__First$ = 8						; size = 4
__Last$ = 12						; size = 4
__Al$ = 16						; size = 4
??$_Destroy_range@V?$allocator@VioHashString@@@std@@@std@@YAXPAVioHashString@@0AAV?$allocator@VioHashString@@@0@@Z PROC ; std::_Destroy_range<std::allocator<ioHashString> >, COMDAT

; 87   : 	{	// destroy [_First, _Last)

  00000	55		 push	 ebp
  00001	8b ec		 mov	 ebp, esp
  00003	56		 push	 esi

; 88   : 	_Destroy_range(_First, _Last, _Al, _Ptr_cat(_First, _Last));

  00004	8b 75 08	 mov	 esi, DWORD PTR __First$[ebp]
  00007	eb 0b		 jmp	 SHORT $LN21@Destroy_ra@4
$LL7@Destroy_ra@4:
  00009	8b ce		 mov	 ecx, esi
  0000b	ff 15 00 00 00
	00		 call	 DWORD PTR __imp_??1ioHashString@@QAE@XZ
  00011	83 c6 10	 add	 esi, 16			; 00000010H
$LN21@Destroy_ra@4:
  00014	3b 75 0c	 cmp	 esi, DWORD PTR __Last$[ebp]
  00017	75 f0		 jne	 SHORT $LL7@Destroy_ra@4
  00019	5e		 pop	 esi

; 89   : 	}

  0001a	5d		 pop	 ebp
  0001b	c3		 ret	 0
??$_Destroy_range@V?$allocator@VioHashString@@@std@@@std@@YAXPAVioHashString@@0AAV?$allocator@VioHashString@@@0@@Z ENDP ; std::_Destroy_range<std::allocator<ioHashString> >
_TEXT	ENDS
PUBLIC	??$_Umove@PAVioHashString@@@?$vector@VioHashString@@V?$allocator@VioHashString@@@std@@@std@@IAEPAVioHashString@@PAV2@00@Z ; std::vector<ioHashString,std::allocator<ioHashString> >::_Umove<ioHashString *>
; Function compile flags: /Ogsp
; File c:\program files (x86)\microsoft visual studio 10.0\vc\include\vector
;	COMDAT ??$_Umove@PAVioHashString@@@?$vector@VioHashString@@V?$allocator@VioHashString@@@std@@@std@@IAEPAVioHashString@@PAV2@00@Z
_TEXT	SEGMENT
__First$ = 8						; size = 4
__Last$ = 12						; size = 4
__Ptr$ = 16						; size = 4
??$_Umove@PAVioHashString@@@?$vector@VioHashString@@V?$allocator@VioHashString@@@std@@@std@@IAEPAVioHashString@@PAV2@00@Z PROC ; std::vector<ioHashString,std::allocator<ioHashString> >::_Umove<ioHashString *>, COMDAT
; _this$ = ecx

; 1322 : 		pointer _Umove(_Iter _First, _Iter _Last, pointer _Ptr)

  00000	55		 push	 ebp
  00001	8b ec		 mov	 ebp, esp

; 1323 : 		{	// move initializing [_First, _Last), using allocator
; 1324 : 		return (_Uninitialized_move(_First, _Last,
; 1325 : 			_Ptr, this->_Alval));

  00003	83 c1 0c	 add	 ecx, 12			; 0000000cH
  00006	51		 push	 ecx
  00007	ff 75 10	 push	 DWORD PTR __Ptr$[ebp]
  0000a	ff 75 0c	 push	 DWORD PTR __Last$[ebp]
  0000d	ff 75 08	 push	 DWORD PTR __First$[ebp]
  00010	e8 00 00 00 00	 call	 ??$_Uninitialized_move@PAVioHashString@@PAV1@V?$allocator@VioHashString@@@std@@@std@@YAPAVioHashString@@PAV1@00AAV?$allocator@VioHashString@@@0@@Z ; std::_Uninitialized_move<ioHashString *,ioHashString *,std::allocator<ioHashString> >
  00015	83 c4 10	 add	 esp, 16			; 00000010H

; 1326 : 		}

  00018	5d		 pop	 ebp
  00019	c2 0c 00	 ret	 12			; 0000000cH
??$_Umove@PAVioHashString@@@?$vector@VioHashString@@V?$allocator@VioHashString@@@std@@@std@@IAEPAVioHashString@@PAV2@00@Z ENDP ; std::vector<ioHashString,std::allocator<ioHashString> >::_Umove<ioHashString *>
_TEXT	ENDS
PUBLIC	??$_Umove@PAUBuffInfoStruct@@@?$vector@UBuffInfoStruct@@V?$allocator@UBuffInfoStruct@@@std@@@std@@IAEPAUBuffInfoStruct@@PAU2@00@Z ; std::vector<BuffInfoStruct,std::allocator<BuffInfoStruct> >::_Umove<BuffInfoStruct *>
; Function compile flags: /Ogsp
;	COMDAT ??$_Umove@PAUBuffInfoStruct@@@?$vector@UBuffInfoStruct@@V?$allocator@UBuffInfoStruct@@@std@@@std@@IAEPAUBuffInfoStruct@@PAU2@00@Z
_TEXT	SEGMENT
__First$ = 8						; size = 4
__Last$ = 12						; size = 4
__Ptr$ = 16						; size = 4
??$_Umove@PAUBuffInfoStruct@@@?$vector@UBuffInfoStruct@@V?$allocator@UBuffInfoStruct@@@std@@@std@@IAEPAUBuffInfoStruct@@PAU2@00@Z PROC ; std::vector<BuffInfoStruct,std::allocator<BuffInfoStruct> >::_Umove<BuffInfoStruct *>, COMDAT
; _this$ = ecx

; 1322 : 		pointer _Umove(_Iter _First, _Iter _Last, pointer _Ptr)

  00000	55		 push	 ebp
  00001	8b ec		 mov	 ebp, esp

; 1323 : 		{	// move initializing [_First, _Last), using allocator
; 1324 : 		return (_Uninitialized_move(_First, _Last,
; 1325 : 			_Ptr, this->_Alval));

  00003	83 c1 0c	 add	 ecx, 12			; 0000000cH
  00006	51		 push	 ecx
  00007	ff 75 10	 push	 DWORD PTR __Ptr$[ebp]
  0000a	ff 75 0c	 push	 DWORD PTR __Last$[ebp]
  0000d	ff 75 08	 push	 DWORD PTR __First$[ebp]
  00010	e8 00 00 00 00	 call	 ??$_Uninitialized_move@PAUBuffInfoStruct@@PAU1@V?$allocator@UBuffInfoStruct@@@std@@@std@@YAPAUBuffInfoStruct@@PAU1@00AAV?$allocator@UBuffInfoStruct@@@0@@Z ; std::_Uninitialized_move<BuffInfoStruct *,BuffInfoStruct *,std::allocator<BuffInfoStruct> >
  00015	83 c4 10	 add	 esp, 16			; 00000010H

; 1326 : 		}

  00018	5d		 pop	 ebp
  00019	c2 0c 00	 ret	 12			; 0000000cH
??$_Umove@PAUBuffInfoStruct@@@?$vector@UBuffInfoStruct@@V?$allocator@UBuffInfoStruct@@@std@@@std@@IAEPAUBuffInfoStruct@@PAU2@00@Z ENDP ; std::vector<BuffInfoStruct,std::allocator<BuffInfoStruct> >::_Umove<BuffInfoStruct *>
_TEXT	ENDS
PUBLIC	?_Destroy@?$vector@UBuffInfoStruct@@V?$allocator@UBuffInfoStruct@@@std@@@std@@IAEXPAUBuffInfoStruct@@0@Z ; std::vector<BuffInfoStruct,std::allocator<BuffInfoStruct> >::_Destroy
; Function compile flags: /Ogsp
;	COMDAT ?_Destroy@?$vector@UBuffInfoStruct@@V?$allocator@UBuffInfoStruct@@@std@@@std@@IAEXPAUBuffInfoStruct@@0@Z
_TEXT	SEGMENT
__First$ = 8						; size = 4
__Last$ = 12						; size = 4
?_Destroy@?$vector@UBuffInfoStruct@@V?$allocator@UBuffInfoStruct@@@std@@@std@@IAEXPAUBuffInfoStruct@@0@Z PROC ; std::vector<BuffInfoStruct,std::allocator<BuffInfoStruct> >::_Destroy, COMDAT
; _this$ = ecx

; 1269 : 		{	// destroy [_First, _Last) using allocator

  00000	55		 push	 ebp
  00001	8b ec		 mov	 ebp, esp
  00003	56		 push	 esi

; 1270 : 		_Destroy_range(_First, _Last, this->_Alval);

  00004	8b 75 08	 mov	 esi, DWORD PTR __First$[ebp]
  00007	eb 0b		 jmp	 SHORT $LN26@Destroy
$LL9@Destroy:
  00009	8b ce		 mov	 ecx, esi
  0000b	ff 15 00 00 00
	00		 call	 DWORD PTR __imp_??1ioHashString@@QAE@XZ
  00011	83 c6 14	 add	 esi, 20			; 00000014H
$LN26@Destroy:
  00014	3b 75 0c	 cmp	 esi, DWORD PTR __Last$[ebp]
  00017	75 f0		 jne	 SHORT $LL9@Destroy
  00019	5e		 pop	 esi

; 1271 : 		}

  0001a	5d		 pop	 ebp
  0001b	c2 08 00	 ret	 8
?_Destroy@?$vector@UBuffInfoStruct@@V?$allocator@UBuffInfoStruct@@@std@@@std@@IAEXPAUBuffInfoStruct@@0@Z ENDP ; std::vector<BuffInfoStruct,std::allocator<BuffInfoStruct> >::_Destroy
_TEXT	ENDS
PUBLIC	?_Tidy@?$vector@UBuffInfoStruct@@V?$allocator@UBuffInfoStruct@@@std@@@std@@IAEXXZ ; std::vector<BuffInfoStruct,std::allocator<BuffInfoStruct> >::_Tidy
EXTRN	__imp_?_Orphan_all@_Container_base0@std@@QAEXXZ:PROC
; Function compile flags: /Ogsp
;	COMDAT ?_Tidy@?$vector@UBuffInfoStruct@@V?$allocator@UBuffInfoStruct@@@std@@@std@@IAEXXZ
_TEXT	SEGMENT
?_Tidy@?$vector@UBuffInfoStruct@@V?$allocator@UBuffInfoStruct@@@std@@@std@@IAEXXZ PROC ; std::vector<BuffInfoStruct,std::allocator<BuffInfoStruct> >::_Tidy, COMDAT
; _this$ = ecx

; 1301 : 		{	// free all storage

  00000	56		 push	 esi
  00001	8b f1		 mov	 esi, ecx

; 1302 : 		if (this->_Myfirst != 0)

  00003	83 3e 00	 cmp	 DWORD PTR [esi], 0
  00006	74 28		 je	 SHORT $LN27@Tidy

; 1303 : 			{	// something to free, destroy and deallocate it
; 1304 : 			this->_Orphan_all();

  00008	53		 push	 ebx
  00009	57		 push	 edi
  0000a	ff 15 00 00 00
	00		 call	 DWORD PTR __imp_?_Orphan_all@_Container_base0@std@@QAEXXZ

; 1305 : 			_Destroy(this->_Myfirst, this->_Mylast);

  00010	8b 5e 04	 mov	 ebx, DWORD PTR [esi+4]
  00013	8b 3e		 mov	 edi, DWORD PTR [esi]
  00015	eb 0b		 jmp	 SHORT $LN31@Tidy
$LL12@Tidy:
  00017	8b cf		 mov	 ecx, edi
  00019	ff 15 00 00 00
	00		 call	 DWORD PTR __imp_??1ioHashString@@QAE@XZ
  0001f	83 c7 14	 add	 edi, 20			; 00000014H
$LN31@Tidy:
  00022	3b fb		 cmp	 edi, ebx
  00024	75 f1		 jne	 SHORT $LL12@Tidy

; 1306 : 			this->_Alval.deallocate(this->_Myfirst,
; 1307 : 				this->_Myend - this->_Myfirst);

  00026	ff 36		 push	 DWORD PTR [esi]
  00028	e8 00 00 00 00	 call	 ??3@YAXPAX@Z		; operator delete
  0002d	59		 pop	 ecx
  0002e	5f		 pop	 edi
  0002f	5b		 pop	 ebx
$LN27@Tidy:

; 1308 : 			}
; 1309 : 		this->_Myfirst = 0;

  00030	33 c0		 xor	 eax, eax
  00032	89 06		 mov	 DWORD PTR [esi], eax

; 1310 : 		this->_Mylast = 0;

  00034	89 46 04	 mov	 DWORD PTR [esi+4], eax

; 1311 : 		this->_Myend = 0;

  00037	89 46 08	 mov	 DWORD PTR [esi+8], eax
  0003a	5e		 pop	 esi

; 1312 : 		}

  0003b	c3		 ret	 0
?_Tidy@?$vector@UBuffInfoStruct@@V?$allocator@UBuffInfoStruct@@@std@@@std@@IAEXXZ ENDP ; std::vector<BuffInfoStruct,std::allocator<BuffInfoStruct> >::_Tidy
_TEXT	ENDS
PUBLIC	?_Destroy@?$vector@VioHashString@@V?$allocator@VioHashString@@@std@@@std@@IAEXPAVioHashString@@0@Z ; std::vector<ioHashString,std::allocator<ioHashString> >::_Destroy
; Function compile flags: /Ogsp
;	COMDAT ?_Destroy@?$vector@VioHashString@@V?$allocator@VioHashString@@@std@@@std@@IAEXPAVioHashString@@0@Z
_TEXT	SEGMENT
__First$ = 8						; size = 4
__Last$ = 12						; size = 4
?_Destroy@?$vector@VioHashString@@V?$allocator@VioHashString@@@std@@@std@@IAEXPAVioHashString@@0@Z PROC ; std::vector<ioHashString,std::allocator<ioHashString> >::_Destroy, COMDAT
; _this$ = ecx

; 1269 : 		{	// destroy [_First, _Last) using allocator

  00000	55		 push	 ebp
  00001	8b ec		 mov	 ebp, esp
  00003	56		 push	 esi

; 1270 : 		_Destroy_range(_First, _Last, this->_Alval);

  00004	8b 75 08	 mov	 esi, DWORD PTR __First$[ebp]
  00007	eb 0b		 jmp	 SHORT $LN23@Destroy@2
$LL9@Destroy@2:
  00009	8b ce		 mov	 ecx, esi
  0000b	ff 15 00 00 00
	00		 call	 DWORD PTR __imp_??1ioHashString@@QAE@XZ
  00011	83 c6 10	 add	 esi, 16			; 00000010H
$LN23@Destroy@2:
  00014	3b 75 0c	 cmp	 esi, DWORD PTR __Last$[ebp]
  00017	75 f0		 jne	 SHORT $LL9@Destroy@2
  00019	5e		 pop	 esi

; 1271 : 		}

  0001a	5d		 pop	 ebp
  0001b	c2 08 00	 ret	 8
?_Destroy@?$vector@VioHashString@@V?$allocator@VioHashString@@@std@@@std@@IAEXPAVioHashString@@0@Z ENDP ; std::vector<ioHashString,std::allocator<ioHashString> >::_Destroy
_TEXT	ENDS
PUBLIC	?reserve@?$vector@VioHashString@@V?$allocator@VioHashString@@@std@@@std@@QAEXI@Z ; std::vector<ioHashString,std::allocator<ioHashString> >::reserve
;	COMDAT xdata$x
; File c:\program files (x86)\microsoft visual studio 10.0\vc\include\xmemory
xdata$x	SEGMENT
__catchsym$?reserve@?$vector@VioHashString@@V?$allocator@VioHashString@@@std@@@std@@QAEXI@Z$2 DD 040H
	DD	00H
	DD	00H
	DD	FLAT:__catch$?reserve@?$vector@VioHashString@@V?$allocator@VioHashString@@@std@@@std@@QAEXI@Z$0
__unwindtable$?reserve@?$vector@VioHashString@@V?$allocator@VioHashString@@@std@@@std@@QAEXI@Z DD 0ffffffffH
	DD	00H
	DD	0ffffffffH
	DD	00H
__tryblocktable$?reserve@?$vector@VioHashString@@V?$allocator@VioHashString@@@std@@@std@@QAEXI@Z DD 00H
	DD	00H
	DD	01H
	DD	01H
	DD	FLAT:__catchsym$?reserve@?$vector@VioHashString@@V?$allocator@VioHashString@@@std@@@std@@QAEXI@Z$2
__ehfuncinfo$?reserve@?$vector@VioHashString@@V?$allocator@VioHashString@@@std@@@std@@QAEXI@Z DD 019930522H
	DD	02H
	DD	FLAT:__unwindtable$?reserve@?$vector@VioHashString@@V?$allocator@VioHashString@@@std@@@std@@QAEXI@Z
	DD	01H
	DD	FLAT:__tryblocktable$?reserve@?$vector@VioHashString@@V?$allocator@VioHashString@@@std@@@std@@QAEXI@Z
	DD	2 DUP(00H)
	DD	00H
	DD	01H
; Function compile flags: /Ogsp
; File c:\program files (x86)\microsoft visual studio 10.0\vc\include\vector
xdata$x	ENDS
;	COMDAT ?reserve@?$vector@VioHashString@@V?$allocator@VioHashString@@@std@@@std@@QAEXI@Z
_TEXT	SEGMENT
tv300 = -24						; size = 4
__Ptr$532248 = -20					; size = 4
__$EHRec$ = -16						; size = 16
$T540235 = 8						; size = 4
__Count$ = 8						; size = 4
?reserve@?$vector@VioHashString@@V?$allocator@VioHashString@@@std@@@std@@QAEXI@Z PROC ; std::vector<ioHashString,std::allocator<ioHashString> >::reserve, COMDAT
; _this$ = ecx

; 746  : 		{	// determine new minimum length of allocated storage

  00000	6a 0c		 push	 12			; 0000000cH
  00002	b8 00 00 00 00	 mov	 eax, __ehhandler$?reserve@?$vector@VioHashString@@V?$allocator@VioHashString@@@std@@@std@@QAEXI@Z
  00007	e8 00 00 00 00	 call	 __EH_prolog3_catch
  0000c	8b f1		 mov	 esi, ecx

; 747  : 		if (max_size() < _Count)

  0000e	8b 5d 08	 mov	 ebx, DWORD PTR __Count$[ebp]
  00011	81 fb ff ff ff
	0f		 cmp	 ebx, 268435455		; 0fffffffH
  00017	76 0b		 jbe	 SHORT $LN5@reserve

; 748  : 			_Xlen();	// result too long

  00019	68 00 00 00 00	 push	 OFFSET ??_C@_0BD@OLBABOEK@vector?$DMT?$DO?5too?5long?$AA@
  0001e	ff 15 00 00 00
	00		 call	 DWORD PTR __imp_?_Xlength_error@std@@YAXPBD@Z
$LN59@reserve:
$LN5@reserve:

; 749  : 		else if (capacity() < _Count)

  00024	8b 46 08	 mov	 eax, DWORD PTR [esi+8]
  00027	2b 06		 sub	 eax, DWORD PTR [esi]
  00029	c1 f8 04	 sar	 eax, 4
  0002c	3b c3		 cmp	 eax, ebx
  0002e	73 7a		 jae	 SHORT $LN3@reserve

; 750  : 			{	// not enough room, reallocate
; 751  : 			pointer _Ptr = this->_Alval.allocate(_Count);

  00030	6a 00		 push	 0
  00032	53		 push	 ebx
  00033	e8 00 00 00 00	 call	 ??$_Allocate@VioHashString@@@std@@YAPAVioHashString@@IPAV1@@Z ; std::_Allocate<ioHashString>

; 752  : 
; 753  : 			_TRY_BEGIN
; 754  : 			_Umove(this->_Myfirst, this->_Mylast, _Ptr);

  00038	8b 0e		 mov	 ecx, DWORD PTR [esi]
  0003a	83 65 fc 00	 and	 DWORD PTR __$EHRec$[ebp+12], 0
  0003e	8d 56 0c	 lea	 edx, DWORD PTR [esi+12]
  00041	52		 push	 edx
  00042	89 45 ec	 mov	 DWORD PTR __Ptr$532248[ebp], eax
  00045	ff 75 ec	 push	 DWORD PTR __Ptr$532248[ebp]
  00048	8b 46 04	 mov	 eax, DWORD PTR [esi+4]
  0004b	50		 push	 eax
  0004c	51		 push	 ecx
  0004d	e8 00 00 00 00	 call	 ??$_Uninitialized_move@PAVioHashString@@PAV1@V?$allocator@VioHashString@@@std@@@std@@YAPAVioHashString@@PAV1@00AAV?$allocator@VioHashString@@@0@@Z ; std::_Uninitialized_move<ioHashString *,ioHashString *,std::allocator<ioHashString> >

; 758  : 			_CATCH_END
; 759  : 
; 760  : 			size_type _Size = size();

  00052	8b 4e 04	 mov	 ecx, DWORD PTR [esi+4]
  00055	8b 06		 mov	 eax, DWORD PTR [esi]
  00057	83 4d fc ff	 or	 DWORD PTR __$EHRec$[ebp+12], -1
  0005b	8b f9		 mov	 edi, ecx
  0005d	83 c4 18	 add	 esp, 24			; 00000018H
  00060	2b f8		 sub	 edi, eax
  00062	89 4d e8	 mov	 DWORD PTR tv300[ebp], ecx
  00065	85 c0		 test	 eax, eax
  00067	74 24		 je	 SHORT $LN51@reserve

; 761  : 			if (this->_Myfirst != 0)
; 762  : 				{	// destroy and deallocate old array
; 763  : 				_Destroy(this->_Myfirst, this->_Mylast);

  00069	89 45 08	 mov	 DWORD PTR $T540235[ebp], eax
  0006c	3b c1		 cmp	 eax, ecx
  0006e	74 15		 je	 SHORT $LN37@reserve
$LN39@reserve:
  00070	8b 4d 08	 mov	 ecx, DWORD PTR $T540235[ebp]
  00073	ff 15 00 00 00
	00		 call	 DWORD PTR __imp_??1ioHashString@@QAE@XZ
  00079	83 45 08 10	 add	 DWORD PTR $T540235[ebp], 16 ; 00000010H
  0007d	8b 45 08	 mov	 eax, DWORD PTR $T540235[ebp]
  00080	3b 45 e8	 cmp	 eax, DWORD PTR tv300[ebp]
  00083	75 eb		 jne	 SHORT $LN39@reserve
$LN37@reserve:

; 764  : 				this->_Alval.deallocate(this->_Myfirst,
; 765  : 					this->_Myend - this->_Myfirst);

  00085	ff 36		 push	 DWORD PTR [esi]
  00087	e8 00 00 00 00	 call	 ??3@YAXPAX@Z		; operator delete
  0008c	59		 pop	 ecx
$LN51@reserve:

; 766  : 				}
; 767  : 
; 768  : 			this->_Orphan_all();

  0008d	8b ce		 mov	 ecx, esi
  0008f	ff 15 00 00 00
	00		 call	 DWORD PTR __imp_?_Orphan_all@_Container_base0@std@@QAEXXZ

; 769  : 			this->_Myend = _Ptr + _Count;

  00095	8b 45 ec	 mov	 eax, DWORD PTR __Ptr$532248[ebp]
  00098	c1 e3 04	 shl	 ebx, 4
  0009b	03 d8		 add	 ebx, eax

; 770  : 			this->_Mylast = _Ptr + _Size;

  0009d	83 e7 f0	 and	 edi, -16		; fffffff0H
  000a0	03 f8		 add	 edi, eax
  000a2	89 5e 08	 mov	 DWORD PTR [esi+8], ebx
  000a5	89 7e 04	 mov	 DWORD PTR [esi+4], edi

; 771  : 			this->_Myfirst = _Ptr;

  000a8	89 06		 mov	 DWORD PTR [esi], eax
$LN3@reserve:

; 772  : 			}
; 773  : 		}

  000aa	e8 00 00 00 00	 call	 __EH_epilog3
  000af	c2 04 00	 ret	 4
__catch$?reserve@?$vector@VioHashString@@V?$allocator@VioHashString@@@std@@@std@@QAEXI@Z$0:

; 755  : 			_CATCH_ALL
; 756  : 			this->_Alval.deallocate(_Ptr, _Count);

  000b2	ff 75 ec	 push	 DWORD PTR __Ptr$532248[ebp]
  000b5	e8 00 00 00 00	 call	 ??3@YAXPAX@Z		; operator delete
  000ba	59		 pop	 ecx

; 757  : 			_RERAISE;

  000bb	6a 00		 push	 0
  000bd	6a 00		 push	 0
  000bf	e8 00 00 00 00	 call	 __CxxThrowException@8
$LN60@reserve:
$LN58@reserve:
  000c4	cc		 int	 3
_TEXT	ENDS
;	COMDAT text$x
text$x	SEGMENT
__ehhandler$?reserve@?$vector@VioHashString@@V?$allocator@VioHashString@@@std@@@std@@QAEXI@Z:
  00000	8b 54 24 08	 mov	 edx, DWORD PTR [esp+8]
  00004	8d 42 0c	 lea	 eax, DWORD PTR [edx+12]
  00007	8b 4a e4	 mov	 ecx, DWORD PTR [edx-28]
  0000a	33 c8		 xor	 ecx, eax
  0000c	e8 00 00 00 00	 call	 @__security_check_cookie@4
  00011	b8 00 00 00 00	 mov	 eax, OFFSET __ehfuncinfo$?reserve@?$vector@VioHashString@@V?$allocator@VioHashString@@@std@@@std@@QAEXI@Z
  00016	e9 00 00 00 00	 jmp	 ___CxxFrameHandler3
text$x	ENDS
?reserve@?$vector@VioHashString@@V?$allocator@VioHashString@@@std@@@std@@QAEXI@Z ENDP ; std::vector<ioHashString,std::allocator<ioHashString> >::reserve
PUBLIC	?reserve@?$vector@UBuffInfoStruct@@V?$allocator@UBuffInfoStruct@@@std@@@std@@QAEXI@Z ; std::vector<BuffInfoStruct,std::allocator<BuffInfoStruct> >::reserve
;	COMDAT xdata$x
; File c:\program files (x86)\microsoft visual studio 10.0\vc\include\xmemory
xdata$x	SEGMENT
__catchsym$?reserve@?$vector@UBuffInfoStruct@@V?$allocator@UBuffInfoStruct@@@std@@@std@@QAEXI@Z$3 DD 040H
	DD	00H
	DD	00H
	DD	FLAT:__catch$?reserve@?$vector@UBuffInfoStruct@@V?$allocator@UBuffInfoStruct@@@std@@@std@@QAEXI@Z$0
__unwindtable$?reserve@?$vector@UBuffInfoStruct@@V?$allocator@UBuffInfoStruct@@@std@@@std@@QAEXI@Z DD 0ffffffffH
	DD	00H
	DD	0ffffffffH
	DD	00H
__tryblocktable$?reserve@?$vector@UBuffInfoStruct@@V?$allocator@UBuffInfoStruct@@@std@@@std@@QAEXI@Z DD 00H
	DD	00H
	DD	01H
	DD	01H
	DD	FLAT:__catchsym$?reserve@?$vector@UBuffInfoStruct@@V?$allocator@UBuffInfoStruct@@@std@@@std@@QAEXI@Z$3
__ehfuncinfo$?reserve@?$vector@UBuffInfoStruct@@V?$allocator@UBuffInfoStruct@@@std@@@std@@QAEXI@Z DD 019930522H
	DD	02H
	DD	FLAT:__unwindtable$?reserve@?$vector@UBuffInfoStruct@@V?$allocator@UBuffInfoStruct@@@std@@@std@@QAEXI@Z
	DD	01H
	DD	FLAT:__tryblocktable$?reserve@?$vector@UBuffInfoStruct@@V?$allocator@UBuffInfoStruct@@@std@@@std@@QAEXI@Z
	DD	2 DUP(00H)
	DD	00H
	DD	01H
; Function compile flags: /Ogsp
; File c:\program files (x86)\microsoft visual studio 10.0\vc\include\vector
xdata$x	ENDS
;	COMDAT ?reserve@?$vector@UBuffInfoStruct@@V?$allocator@UBuffInfoStruct@@@std@@@std@@QAEXI@Z
_TEXT	SEGMENT
__Ptr$532269 = -24					; size = 4
$T540407 = -20						; size = 4
__$EHRec$ = -16						; size = 16
__Count$ = 8						; size = 4
?reserve@?$vector@UBuffInfoStruct@@V?$allocator@UBuffInfoStruct@@@std@@@std@@QAEXI@Z PROC ; std::vector<BuffInfoStruct,std::allocator<BuffInfoStruct> >::reserve, COMDAT
; _this$ = ecx

; 746  : 		{	// determine new minimum length of allocated storage

  00000	6a 0c		 push	 12			; 0000000cH
  00002	b8 00 00 00 00	 mov	 eax, __ehhandler$?reserve@?$vector@UBuffInfoStruct@@V?$allocator@UBuffInfoStruct@@@std@@@std@@QAEXI@Z
  00007	e8 00 00 00 00	 call	 __EH_prolog3_catch
  0000c	8b f1		 mov	 esi, ecx

; 747  : 		if (max_size() < _Count)

  0000e	81 7d 08 cc cc
	cc 0c		 cmp	 DWORD PTR __Count$[ebp], 214748364 ; 0cccccccH
  00015	76 0b		 jbe	 SHORT $LN5@reserve@2

; 748  : 			_Xlen();	// result too long

  00017	68 00 00 00 00	 push	 OFFSET ??_C@_0BD@OLBABOEK@vector?$DMT?$DO?5too?5long?$AA@
  0001c	ff 15 00 00 00
	00		 call	 DWORD PTR __imp_?_Xlength_error@std@@YAXPBD@Z
$LN62@reserve@2:
$LN5@reserve@2:

; 749  : 		else if (capacity() < _Count)

  00022	8b 46 08	 mov	 eax, DWORD PTR [esi+8]
  00025	2b 06		 sub	 eax, DWORD PTR [esi]
  00027	6a 14		 push	 20			; 00000014H
  00029	99		 cdq
  0002a	59		 pop	 ecx
  0002b	f7 f9		 idiv	 ecx
  0002d	3b 45 08	 cmp	 eax, DWORD PTR __Count$[ebp]
  00030	0f 83 81 00 00
	00		 jae	 $LN3@reserve@2

; 750  : 			{	// not enough room, reallocate
; 751  : 			pointer _Ptr = this->_Alval.allocate(_Count);

  00036	6a 00		 push	 0
  00038	ff 75 08	 push	 DWORD PTR __Count$[ebp]
  0003b	e8 00 00 00 00	 call	 ??$_Allocate@UBuffInfoStruct@@@std@@YAPAUBuffInfoStruct@@IPAU1@@Z ; std::_Allocate<BuffInfoStruct>

; 752  : 
; 753  : 			_TRY_BEGIN
; 754  : 			_Umove(this->_Myfirst, this->_Mylast, _Ptr);

  00040	8b 0e		 mov	 ecx, DWORD PTR [esi]
  00042	83 65 fc 00	 and	 DWORD PTR __$EHRec$[ebp+12], 0
  00046	8d 56 0c	 lea	 edx, DWORD PTR [esi+12]
  00049	52		 push	 edx
  0004a	89 45 e8	 mov	 DWORD PTR __Ptr$532269[ebp], eax
  0004d	ff 75 e8	 push	 DWORD PTR __Ptr$532269[ebp]
  00050	8b 46 04	 mov	 eax, DWORD PTR [esi+4]
  00053	50		 push	 eax
  00054	51		 push	 ecx
  00055	e8 00 00 00 00	 call	 ??$_Uninitialized_move@PAUBuffInfoStruct@@PAU1@V?$allocator@UBuffInfoStruct@@@std@@@std@@YAPAUBuffInfoStruct@@PAU1@00AAV?$allocator@UBuffInfoStruct@@@0@@Z ; std::_Uninitialized_move<BuffInfoStruct *,BuffInfoStruct *,std::allocator<BuffInfoStruct> >

; 758  : 			_CATCH_END
; 759  : 
; 760  : 			size_type _Size = size();

  0005a	8b 5e 04	 mov	 ebx, DWORD PTR [esi+4]
  0005d	8b 0e		 mov	 ecx, DWORD PTR [esi]
  0005f	83 c4 18	 add	 esp, 24			; 00000018H
  00062	8b c3		 mov	 eax, ebx
  00064	2b c1		 sub	 eax, ecx
  00066	6a 14		 push	 20			; 00000014H
  00068	99		 cdq
  00069	5f		 pop	 edi
  0006a	f7 ff		 idiv	 edi
  0006c	83 4d fc ff	 or	 DWORD PTR __$EHRec$[ebp+12], -1
  00070	8b f8		 mov	 edi, eax
  00072	85 c9		 test	 ecx, ecx
  00074	74 21		 je	 SHORT $LN54@reserve@2

; 761  : 			if (this->_Myfirst != 0)
; 762  : 				{	// destroy and deallocate old array
; 763  : 				_Destroy(this->_Myfirst, this->_Mylast);

  00076	89 4d ec	 mov	 DWORD PTR $T540407[ebp], ecx
  00079	3b cb		 cmp	 ecx, ebx
  0007b	74 12		 je	 SHORT $LN37@reserve@2
$LN39@reserve@2:
  0007d	8b 4d ec	 mov	 ecx, DWORD PTR $T540407[ebp]
  00080	ff 15 00 00 00
	00		 call	 DWORD PTR __imp_??1ioHashString@@QAE@XZ
  00086	83 45 ec 14	 add	 DWORD PTR $T540407[ebp], 20 ; 00000014H
  0008a	39 5d ec	 cmp	 DWORD PTR $T540407[ebp], ebx
  0008d	75 ee		 jne	 SHORT $LN39@reserve@2
$LN37@reserve@2:

; 764  : 				this->_Alval.deallocate(this->_Myfirst,
; 765  : 					this->_Myend - this->_Myfirst);

  0008f	ff 36		 push	 DWORD PTR [esi]
  00091	e8 00 00 00 00	 call	 ??3@YAXPAX@Z		; operator delete
  00096	59		 pop	 ecx
$LN54@reserve@2:

; 766  : 				}
; 767  : 
; 768  : 			this->_Orphan_all();

  00097	8b ce		 mov	 ecx, esi
  00099	ff 15 00 00 00
	00		 call	 DWORD PTR __imp_?_Orphan_all@_Container_base0@std@@QAEXXZ

; 769  : 			this->_Myend = _Ptr + _Count;
; 770  : 			this->_Mylast = _Ptr + _Size;

  0009f	6b ff 14	 imul	 edi, 20			; 00000014H
  000a2	8b 45 08	 mov	 eax, DWORD PTR __Count$[ebp]
  000a5	8b 4d e8	 mov	 ecx, DWORD PTR __Ptr$532269[ebp]
  000a8	6b c0 14	 imul	 eax, 20			; 00000014H
  000ab	03 c1		 add	 eax, ecx
  000ad	03 f9		 add	 edi, ecx
  000af	89 46 08	 mov	 DWORD PTR [esi+8], eax
  000b2	89 7e 04	 mov	 DWORD PTR [esi+4], edi

; 771  : 			this->_Myfirst = _Ptr;

  000b5	89 0e		 mov	 DWORD PTR [esi], ecx
$LN3@reserve@2:

; 772  : 			}
; 773  : 		}

  000b7	e8 00 00 00 00	 call	 __EH_epilog3
  000bc	c2 04 00	 ret	 4
__catch$?reserve@?$vector@UBuffInfoStruct@@V?$allocator@UBuffInfoStruct@@@std@@@std@@QAEXI@Z$0:

; 755  : 			_CATCH_ALL
; 756  : 			this->_Alval.deallocate(_Ptr, _Count);

  000bf	ff 75 e8	 push	 DWORD PTR __Ptr$532269[ebp]
  000c2	e8 00 00 00 00	 call	 ??3@YAXPAX@Z		; operator delete
  000c7	59		 pop	 ecx

; 757  : 			_RERAISE;

  000c8	6a 00		 push	 0
  000ca	6a 00		 push	 0
  000cc	e8 00 00 00 00	 call	 __CxxThrowException@8
$LN63@reserve@2:
$LN61@reserve@2:
  000d1	cc		 int	 3
_TEXT	ENDS
;	COMDAT text$x
text$x	SEGMENT
__ehhandler$?reserve@?$vector@UBuffInfoStruct@@V?$allocator@UBuffInfoStruct@@@std@@@std@@QAEXI@Z:
  00000	8b 54 24 08	 mov	 edx, DWORD PTR [esp+8]
  00004	8d 42 0c	 lea	 eax, DWORD PTR [edx+12]
  00007	8b 4a e4	 mov	 ecx, DWORD PTR [edx-28]
  0000a	33 c8		 xor	 ecx, eax
  0000c	e8 00 00 00 00	 call	 @__security_check_cookie@4
  00011	b8 00 00 00 00	 mov	 eax, OFFSET __ehfuncinfo$?reserve@?$vector@UBuffInfoStruct@@V?$allocator@UBuffInfoStruct@@@std@@@std@@QAEXI@Z
  00016	e9 00 00 00 00	 jmp	 ___CxxFrameHandler3
text$x	ENDS
?reserve@?$vector@UBuffInfoStruct@@V?$allocator@UBuffInfoStruct@@@std@@@std@@QAEXI@Z ENDP ; std::vector<BuffInfoStruct,std::allocator<BuffInfoStruct> >::reserve
PUBLIC	?_Reserve@?$vector@VioHashString@@V?$allocator@VioHashString@@@std@@@std@@IAEXI@Z ; std::vector<ioHashString,std::allocator<ioHashString> >::_Reserve
; Function compile flags: /Ogsp
;	COMDAT ?_Reserve@?$vector@VioHashString@@V?$allocator@VioHashString@@@std@@@std@@IAEXI@Z
_TEXT	SEGMENT
__Count$ = 8						; size = 4
?_Reserve@?$vector@VioHashString@@V?$allocator@VioHashString@@@std@@@std@@IAEXI@Z PROC ; std::vector<ioHashString,std::allocator<ioHashString> >::_Reserve, COMDAT
; _this$ = ecx

; 1290 : 		{	// ensure room for _Count new elements, grow exponentially

  00000	55		 push	 ebp
  00001	8b ec		 mov	 ebp, esp
  00003	56		 push	 esi
  00004	8b f1		 mov	 esi, ecx

; 1291 : 		size_type _Size = size();

  00006	8b 0e		 mov	 ecx, DWORD PTR [esi]
  00008	8b 46 04	 mov	 eax, DWORD PTR [esi+4]
  0000b	2b c1		 sub	 eax, ecx

; 1292 : 		if (max_size() - _Count < _Size)

  0000d	ba ff ff ff 0f	 mov	 edx, 268435455		; 0fffffffH
  00012	2b 55 08	 sub	 edx, DWORD PTR __Count$[ebp]
  00015	c1 f8 04	 sar	 eax, 4
  00018	3b d0		 cmp	 edx, eax
  0001a	73 0b		 jae	 SHORT $LN4@Reserve

; 1293 : 			_Xlen();

  0001c	68 00 00 00 00	 push	 OFFSET ??_C@_0BD@OLBABOEK@vector?$DMT?$DO?5too?5long?$AA@
  00021	ff 15 00 00 00
	00		 call	 DWORD PTR __imp_?_Xlength_error@std@@YAXPBD@Z
$LN21@Reserve:
$LN4@Reserve:

; 1294 : 		else if ((_Size += _Count) <= capacity())

  00027	8b 56 08	 mov	 edx, DWORD PTR [esi+8]
  0002a	03 45 08	 add	 eax, DWORD PTR __Count$[ebp]
  0002d	2b d1		 sub	 edx, ecx
  0002f	c1 fa 04	 sar	 edx, 4
  00032	3b c2		 cmp	 eax, edx
  00034	76 10		 jbe	 SHORT $LN1@Reserve

; 1295 : 			;
; 1296 : 		else
; 1297 : 			reserve(_Grow_to(_Size));

  00036	50		 push	 eax
  00037	8b ce		 mov	 ecx, esi
  00039	e8 00 00 00 00	 call	 ?_Grow_to@?$vector@VioHashString@@V?$allocator@VioHashString@@@std@@@std@@IBEII@Z ; std::vector<ioHashString,std::allocator<ioHashString> >::_Grow_to
  0003e	50		 push	 eax
  0003f	8b ce		 mov	 ecx, esi
  00041	e8 00 00 00 00	 call	 ?reserve@?$vector@VioHashString@@V?$allocator@VioHashString@@@std@@@std@@QAEXI@Z ; std::vector<ioHashString,std::allocator<ioHashString> >::reserve
$LN1@Reserve:
  00046	5e		 pop	 esi

; 1298 : 		}

  00047	5d		 pop	 ebp
  00048	c2 04 00	 ret	 4
$LN20@Reserve:
?_Reserve@?$vector@VioHashString@@V?$allocator@VioHashString@@@std@@@std@@IAEXI@Z ENDP ; std::vector<ioHashString,std::allocator<ioHashString> >::_Reserve
_TEXT	ENDS
PUBLIC	?_Reserve@?$vector@UBuffInfoStruct@@V?$allocator@UBuffInfoStruct@@@std@@@std@@IAEXI@Z ; std::vector<BuffInfoStruct,std::allocator<BuffInfoStruct> >::_Reserve
; Function compile flags: /Ogsp
;	COMDAT ?_Reserve@?$vector@UBuffInfoStruct@@V?$allocator@UBuffInfoStruct@@@std@@@std@@IAEXI@Z
_TEXT	SEGMENT
__Count$ = 8						; size = 4
?_Reserve@?$vector@UBuffInfoStruct@@V?$allocator@UBuffInfoStruct@@@std@@@std@@IAEXI@Z PROC ; std::vector<BuffInfoStruct,std::allocator<BuffInfoStruct> >::_Reserve, COMDAT
; _this$ = ecx

; 1290 : 		{	// ensure room for _Count new elements, grow exponentially

  00000	55		 push	 ebp
  00001	8b ec		 mov	 ebp, esp
  00003	56		 push	 esi
  00004	8b f1		 mov	 esi, ecx

; 1291 : 		size_type _Size = size();

  00006	8b 0e		 mov	 ecx, DWORD PTR [esi]
  00008	8b 46 04	 mov	 eax, DWORD PTR [esi+4]
  0000b	2b c1		 sub	 eax, ecx
  0000d	57		 push	 edi
  0000e	99		 cdq
  0000f	6a 14		 push	 20			; 00000014H
  00011	5f		 pop	 edi
  00012	f7 ff		 idiv	 edi
  00014	8b f8		 mov	 edi, eax

; 1292 : 		if (max_size() - _Count < _Size)

  00016	b8 cc cc cc 0c	 mov	 eax, 214748364		; 0cccccccH
  0001b	2b 45 08	 sub	 eax, DWORD PTR __Count$[ebp]
  0001e	3b c7		 cmp	 eax, edi
  00020	73 0b		 jae	 SHORT $LN4@Reserve@2

; 1293 : 			_Xlen();

  00022	68 00 00 00 00	 push	 OFFSET ??_C@_0BD@OLBABOEK@vector?$DMT?$DO?5too?5long?$AA@
  00027	ff 15 00 00 00
	00		 call	 DWORD PTR __imp_?_Xlength_error@std@@YAXPBD@Z
$LN21@Reserve@2:
$LN4@Reserve@2:

; 1294 : 		else if ((_Size += _Count) <= capacity())

  0002d	8b 46 08	 mov	 eax, DWORD PTR [esi+8]
  00030	2b c1		 sub	 eax, ecx
  00032	6a 14		 push	 20			; 00000014H
  00034	99		 cdq
  00035	59		 pop	 ecx
  00036	f7 f9		 idiv	 ecx
  00038	03 7d 08	 add	 edi, DWORD PTR __Count$[ebp]
  0003b	3b f8		 cmp	 edi, eax
  0003d	76 10		 jbe	 SHORT $LN1@Reserve@2

; 1295 : 			;
; 1296 : 		else
; 1297 : 			reserve(_Grow_to(_Size));

  0003f	57		 push	 edi
  00040	8b ce		 mov	 ecx, esi
  00042	e8 00 00 00 00	 call	 ?_Grow_to@?$vector@UBuffInfoStruct@@V?$allocator@UBuffInfoStruct@@@std@@@std@@IBEII@Z ; std::vector<BuffInfoStruct,std::allocator<BuffInfoStruct> >::_Grow_to
  00047	50		 push	 eax
  00048	8b ce		 mov	 ecx, esi
  0004a	e8 00 00 00 00	 call	 ?reserve@?$vector@UBuffInfoStruct@@V?$allocator@UBuffInfoStruct@@@std@@@std@@QAEXI@Z ; std::vector<BuffInfoStruct,std::allocator<BuffInfoStruct> >::reserve
$LN1@Reserve@2:
  0004f	5f		 pop	 edi
  00050	5e		 pop	 esi

; 1298 : 		}

  00051	5d		 pop	 ebp
  00052	c2 04 00	 ret	 4
$LN20@Reserve@2:
?_Reserve@?$vector@UBuffInfoStruct@@V?$allocator@UBuffInfoStruct@@@std@@@std@@IAEXI@Z ENDP ; std::vector<BuffInfoStruct,std::allocator<BuffInfoStruct> >::_Reserve
_TEXT	ENDS
PUBLIC	??1?$vector@UBuffInfoStruct@@V?$allocator@UBuffInfoStruct@@@std@@@std@@QAE@XZ ; std::vector<BuffInfoStruct,std::allocator<BuffInfoStruct> >::~vector<BuffInfoStruct,std::allocator<BuffInfoStruct> >
; Function compile flags: /Ogsp
;	COMDAT ??1?$vector@UBuffInfoStruct@@V?$allocator@UBuffInfoStruct@@@std@@@std@@QAE@XZ
_TEXT	SEGMENT
??1?$vector@UBuffInfoStruct@@V?$allocator@UBuffInfoStruct@@@std@@@std@@QAE@XZ PROC ; std::vector<BuffInfoStruct,std::allocator<BuffInfoStruct> >::~vector<BuffInfoStruct,std::allocator<BuffInfoStruct> >, COMDAT
; _this$ = ecx

; 705  : 		_Tidy();

  00000	e9 00 00 00 00	 jmp	 ?_Tidy@?$vector@UBuffInfoStruct@@V?$allocator@UBuffInfoStruct@@@std@@@std@@IAEXXZ ; std::vector<BuffInfoStruct,std::allocator<BuffInfoStruct> >::_Tidy
??1?$vector@UBuffInfoStruct@@V?$allocator@UBuffInfoStruct@@@std@@@std@@QAE@XZ ENDP ; std::vector<BuffInfoStruct,std::allocator<BuffInfoStruct> >::~vector<BuffInfoStruct,std::allocator<BuffInfoStruct> >
_TEXT	ENDS
PUBLIC	?erase@?$vector@VioHashString@@V?$allocator@VioHashString@@@std@@@std@@QAE?AV?$_Vector_iterator@V?$_Vector_val@VioHashString@@V?$allocator@VioHashString@@@std@@@std@@@2@V?$_Vector_const_iterator@V?$_Vector_val@VioHashString@@V?$allocator@VioHashString@@@std@@@std@@@2@0@Z ; std::vector<ioHashString,std::allocator<ioHashString> >::erase
; Function compile flags: /Ogsp
;	COMDAT ?erase@?$vector@VioHashString@@V?$allocator@VioHashString@@@std@@@std@@QAE?AV?$_Vector_iterator@V?$_Vector_val@VioHashString@@V?$allocator@VioHashString@@@std@@@std@@@2@V?$_Vector_const_iterator@V?$_Vector_val@VioHashString@@V?$allocator@VioHashString@@@std@@@std@@@2@0@Z
_TEXT	SEGMENT
$T540673 = -4						; size = 4
___$ReturnUdt$ = 8					; size = 4
__First_arg$ = 12					; size = 4
__Cat$540618 = 16					; size = 1
__Last_arg$ = 16					; size = 4
?erase@?$vector@VioHashString@@V?$allocator@VioHashString@@@std@@@std@@QAE?AV?$_Vector_iterator@V?$_Vector_val@VioHashString@@V?$allocator@VioHashString@@@std@@@std@@@2@V?$_Vector_const_iterator@V?$_Vector_val@VioHashString@@V?$allocator@VioHashString@@@std@@@std@@@2@0@Z PROC ; std::vector<ioHashString,std::allocator<ioHashString> >::erase, COMDAT
; _this$ = ecx

; 1190 : 		{	// erase [_First, _Last)

  00000	55		 push	 ebp
  00001	8b ec		 mov	 ebp, esp
  00003	51		 push	 ecx

; 1191 : 		iterator _First = _Make_iter(_First_arg);

  00004	8b 45 08	 mov	 eax, DWORD PTR ___$ReturnUdt$[ebp]
  00007	56		 push	 esi
  00008	8b f1		 mov	 esi, ecx
  0000a	8b 4d 0c	 mov	 ecx, DWORD PTR __First_arg$[ebp]
  0000d	89 08		 mov	 DWORD PTR [eax], ecx

; 1192 : 		iterator _Last = _Make_iter(_Last_arg);
; 1193 : 
; 1194 : 		if (_First != _Last)

  0000f	3b 4d 10	 cmp	 ecx, DWORD PTR __Last_arg$[ebp]
  00012	74 38		 je	 SHORT $LN1@erase

; 1195 : 			{	// worth doing, copy down over hole
; 1196 :  #if _ITERATOR_DEBUG_LEVEL == 2
; 1197 : 			if (_Last < _First || _VICONT(_First) != this
; 1198 : 				|| _VIPTR(_First) < this->_Myfirst
; 1199 : 				|| this->_Mylast < _VIPTR(_Last))
; 1200 : 				_DEBUG_ERROR("vector erase iterator outside range");
; 1201 : 			pointer _Ptr = _Move(_VIPTR(_Last), this->_Mylast,
; 1202 : 				_VIPTR(_First));
; 1203 : 			_Orphan_range(_VIPTR(_First), this->_Mylast);
; 1204 : 
; 1205 :  #else /* _ITERATOR_DEBUG_LEVEL == 2 */
; 1206 : 			pointer _Ptr = _Move(_VIPTR(_Last), this->_Mylast,
; 1207 : 				_VIPTR(_First));

  00014	8b 46 04	 mov	 eax, DWORD PTR [esi+4]
  00017	53		 push	 ebx
  00018	57		 push	 edi
  00019	ff 75 10	 push	 DWORD PTR __Cat$540618[ebp]
  0001c	51		 push	 ecx
  0001d	50		 push	 eax
  0001e	ff 75 10	 push	 DWORD PTR __Last_arg$[ebp]
  00021	e8 00 00 00 00	 call	 ??$_Move@PAVioHashString@@PAV1@@std@@YAPAVioHashString@@PAV1@00U_Nonscalar_ptr_iterator_tag@0@@Z ; std::_Move<ioHashString *,ioHashString *>

; 1208 :  #endif /* _ITERATOR_DEBUG_LEVEL == 2 */
; 1209 : 
; 1210 : 			_Destroy(_Ptr, this->_Mylast);

  00026	8b 7e 04	 mov	 edi, DWORD PTR [esi+4]
  00029	8b d8		 mov	 ebx, eax
  0002b	83 c4 10	 add	 esp, 16			; 00000010H
  0002e	89 5d fc	 mov	 DWORD PTR $T540673[ebp], ebx
  00031	3b df		 cmp	 ebx, edi
  00033	74 12		 je	 SHORT $LN36@erase
$LL52@erase:
  00035	8b 4d fc	 mov	 ecx, DWORD PTR $T540673[ebp]
  00038	ff 15 00 00 00
	00		 call	 DWORD PTR __imp_??1ioHashString@@QAE@XZ
  0003e	83 45 fc 10	 add	 DWORD PTR $T540673[ebp], 16 ; 00000010H
  00042	39 7d fc	 cmp	 DWORD PTR $T540673[ebp], edi
  00045	75 ee		 jne	 SHORT $LL52@erase
$LN36@erase:

; 1211 : 			this->_Mylast = _Ptr;

  00047	5f		 pop	 edi
  00048	89 5e 04	 mov	 DWORD PTR [esi+4], ebx
  0004b	5b		 pop	 ebx
$LN1@erase:

; 1212 : 			}
; 1213 : 		return (_First);

  0004c	8b 45 08	 mov	 eax, DWORD PTR ___$ReturnUdt$[ebp]
  0004f	5e		 pop	 esi

; 1214 : 		}

  00050	c9		 leave
  00051	c2 0c 00	 ret	 12			; 0000000cH
?erase@?$vector@VioHashString@@V?$allocator@VioHashString@@@std@@@std@@QAE?AV?$_Vector_iterator@V?$_Vector_val@VioHashString@@V?$allocator@VioHashString@@@std@@@std@@@2@V?$_Vector_const_iterator@V?$_Vector_val@VioHashString@@V?$allocator@VioHashString@@@std@@@std@@@2@0@Z ENDP ; std::vector<ioHashString,std::allocator<ioHashString> >::erase
_TEXT	ENDS
PUBLIC	?_Tidy@?$vector@VioHashString@@V?$allocator@VioHashString@@@std@@@std@@IAEXXZ ; std::vector<ioHashString,std::allocator<ioHashString> >::_Tidy
; Function compile flags: /Ogsp
;	COMDAT ?_Tidy@?$vector@VioHashString@@V?$allocator@VioHashString@@@std@@@std@@IAEXXZ
_TEXT	SEGMENT
?_Tidy@?$vector@VioHashString@@V?$allocator@VioHashString@@@std@@@std@@IAEXXZ PROC ; std::vector<ioHashString,std::allocator<ioHashString> >::_Tidy, COMDAT
; _this$ = ecx

; 1301 : 		{	// free all storage

  00000	56		 push	 esi
  00001	8b f1		 mov	 esi, ecx

; 1302 : 		if (this->_Myfirst != 0)

  00003	83 3e 00	 cmp	 DWORD PTR [esi], 0
  00006	74 28		 je	 SHORT $LN24@Tidy@2

; 1303 : 			{	// something to free, destroy and deallocate it
; 1304 : 			this->_Orphan_all();

  00008	53		 push	 ebx
  00009	57		 push	 edi
  0000a	ff 15 00 00 00
	00		 call	 DWORD PTR __imp_?_Orphan_all@_Container_base0@std@@QAEXXZ

; 1305 : 			_Destroy(this->_Myfirst, this->_Mylast);

  00010	8b 5e 04	 mov	 ebx, DWORD PTR [esi+4]
  00013	8b 3e		 mov	 edi, DWORD PTR [esi]
  00015	eb 0b		 jmp	 SHORT $LN28@Tidy@2
$LL12@Tidy@2:
  00017	8b cf		 mov	 ecx, edi
  00019	ff 15 00 00 00
	00		 call	 DWORD PTR __imp_??1ioHashString@@QAE@XZ
  0001f	83 c7 10	 add	 edi, 16			; 00000010H
$LN28@Tidy@2:
  00022	3b fb		 cmp	 edi, ebx
  00024	75 f1		 jne	 SHORT $LL12@Tidy@2

; 1306 : 			this->_Alval.deallocate(this->_Myfirst,
; 1307 : 				this->_Myend - this->_Myfirst);

  00026	ff 36		 push	 DWORD PTR [esi]
  00028	e8 00 00 00 00	 call	 ??3@YAXPAX@Z		; operator delete
  0002d	59		 pop	 ecx
  0002e	5f		 pop	 edi
  0002f	5b		 pop	 ebx
$LN24@Tidy@2:

; 1308 : 			}
; 1309 : 		this->_Myfirst = 0;

  00030	33 c0		 xor	 eax, eax
  00032	89 06		 mov	 DWORD PTR [esi], eax

; 1310 : 		this->_Mylast = 0;

  00034	89 46 04	 mov	 DWORD PTR [esi+4], eax

; 1311 : 		this->_Myend = 0;

  00037	89 46 08	 mov	 DWORD PTR [esi+8], eax
  0003a	5e		 pop	 esi

; 1312 : 		}

  0003b	c3		 ret	 0
?_Tidy@?$vector@VioHashString@@V?$allocator@VioHashString@@@std@@@std@@IAEXXZ ENDP ; std::vector<ioHashString,std::allocator<ioHashString> >::_Tidy
_TEXT	ENDS
PUBLIC	?push_back@?$vector@VioHashString@@V?$allocator@VioHashString@@@std@@@std@@QAEX$$QAVioHashString@@@Z ; std::vector<ioHashString,std::allocator<ioHashString> >::push_back
; Function compile flags: /Ogsp
;	COMDAT ?push_back@?$vector@VioHashString@@V?$allocator@VioHashString@@@std@@@std@@QAEX$$QAVioHashString@@@Z
_TEXT	SEGMENT
__Val$ = 8						; size = 4
?push_back@?$vector@VioHashString@@V?$allocator@VioHashString@@@std@@@std@@QAEX$$QAVioHashString@@@Z PROC ; std::vector<ioHashString,std::allocator<ioHashString> >::push_back, COMDAT
; _this$ = ecx

; 631  : 		{	// insert element at end

  00000	55		 push	 ebp
  00001	8b ec		 mov	 ebp, esp
  00003	56		 push	 esi
  00004	8b f1		 mov	 esi, ecx

; 632  : 		if (_Inside(_STD addressof(_Val)))

  00006	8b 46 04	 mov	 eax, DWORD PTR [esi+4]
  00009	57		 push	 edi
  0000a	8b 7d 08	 mov	 edi, DWORD PTR __Val$[ebp]
  0000d	3b f8		 cmp	 edi, eax
  0000f	73 1d		 jae	 SHORT $LN4@push_back
  00011	8b 0e		 mov	 ecx, DWORD PTR [esi]
  00013	3b cf		 cmp	 ecx, edi
  00015	77 17		 ja	 SHORT $LN4@push_back

; 633  : 			{	// push back an element
; 634  : 			size_type _Idx = _STD addressof(_Val) - this->_Myfirst;

  00017	2b f9		 sub	 edi, ecx

; 635  : 			if (this->_Mylast == this->_Myend)

  00019	3b 46 08	 cmp	 eax, DWORD PTR [esi+8]
  0001c	75 09		 jne	 SHORT $LN3@push_back

; 636  : 				_Reserve(1);

  0001e	6a 01		 push	 1
  00020	8b ce		 mov	 ecx, esi
  00022	e8 00 00 00 00	 call	 ?_Reserve@?$vector@VioHashString@@V?$allocator@VioHashString@@@std@@@std@@IAEXI@Z ; std::vector<ioHashString,std::allocator<ioHashString> >::_Reserve
$LN3@push_back:

; 637  : 			_Orphan_range(this->_Mylast, this->_Mylast);
; 638  : 			_Cons_val(this->_Alval,
; 639  : 				this->_Mylast,
; 640  : 				_STD forward<_Ty>(this->_Myfirst[_Idx]));

  00027	83 e7 f0	 and	 edi, -16		; fffffff0H
  0002a	03 3e		 add	 edi, DWORD PTR [esi]

; 641  : 			++this->_Mylast;
; 642  : 			}
; 643  : 		else

  0002c	eb 0e		 jmp	 SHORT $LN1@push_back
$LN4@push_back:

; 644  : 			{	// push back a non-element
; 645  : 			if (this->_Mylast == this->_Myend)

  0002e	3b 46 08	 cmp	 eax, DWORD PTR [esi+8]
  00031	75 09		 jne	 SHORT $LN1@push_back

; 646  : 				_Reserve(1);

  00033	6a 01		 push	 1
  00035	8b ce		 mov	 ecx, esi
  00037	e8 00 00 00 00	 call	 ?_Reserve@?$vector@VioHashString@@V?$allocator@VioHashString@@@std@@@std@@IAEXI@Z ; std::vector<ioHashString,std::allocator<ioHashString> >::_Reserve
$LN1@push_back:

; 647  : 			_Orphan_range(this->_Mylast, this->_Mylast);
; 648  : 			_Cons_val(this->_Alval,
; 649  : 				this->_Mylast,
; 650  : 				_STD forward<_Ty>(_Val));

  0003c	57		 push	 edi
  0003d	ff 76 04	 push	 DWORD PTR [esi+4]
  00040	8d 4e 0c	 lea	 ecx, DWORD PTR [esi+12]
  00043	e8 00 00 00 00	 call	 ?construct@?$allocator@VioHashString@@@std@@QAEXPAVioHashString@@$$QAV3@@Z ; std::allocator<ioHashString>::construct

; 651  : 			++this->_Mylast;

  00048	83 46 04 10	 add	 DWORD PTR [esi+4], 16	; 00000010H
  0004c	5f		 pop	 edi
  0004d	5e		 pop	 esi

; 652  : 			}
; 653  : 		}

  0004e	5d		 pop	 ebp
  0004f	c2 04 00	 ret	 4
?push_back@?$vector@VioHashString@@V?$allocator@VioHashString@@@std@@@std@@QAEX$$QAVioHashString@@@Z ENDP ; std::vector<ioHashString,std::allocator<ioHashString> >::push_back
_TEXT	ENDS
PUBLIC	?push_back@?$vector@UBuffInfoStruct@@V?$allocator@UBuffInfoStruct@@@std@@@std@@QAEXABUBuffInfoStruct@@@Z ; std::vector<BuffInfoStruct,std::allocator<BuffInfoStruct> >::push_back
; Function compile flags: /Ogsp
;	COMDAT ?push_back@?$vector@UBuffInfoStruct@@V?$allocator@UBuffInfoStruct@@@std@@@std@@QAEXABUBuffInfoStruct@@@Z
_TEXT	SEGMENT
__Val$ = 8						; size = 4
?push_back@?$vector@UBuffInfoStruct@@V?$allocator@UBuffInfoStruct@@@std@@@std@@QAEXABUBuffInfoStruct@@@Z PROC ; std::vector<BuffInfoStruct,std::allocator<BuffInfoStruct> >::push_back, COMDAT
; _this$ = ecx

; 976  : 		{	// insert element at end

  00000	55		 push	 ebp
  00001	8b ec		 mov	 ebp, esp
  00003	56		 push	 esi
  00004	8b f1		 mov	 esi, ecx

; 977  : 		if (_Inside(_STD addressof(_Val)))

  00006	8b 4e 04	 mov	 ecx, DWORD PTR [esi+4]
  00009	57		 push	 edi
  0000a	8b 7d 08	 mov	 edi, DWORD PTR __Val$[ebp]
  0000d	3b f9		 cmp	 edi, ecx
  0000f	73 33		 jae	 SHORT $LN4@push_back@2
  00011	8b 16		 mov	 edx, DWORD PTR [esi]
  00013	3b d7		 cmp	 edx, edi
  00015	77 2d		 ja	 SHORT $LN4@push_back@2

; 978  : 			{	// push back an element
; 979  : 			size_type _Idx = _STD addressof(_Val) - this->_Myfirst;

  00017	8b c7		 mov	 eax, edi
  00019	2b c2		 sub	 eax, edx
  0001b	6a 14		 push	 20			; 00000014H
  0001d	99		 cdq
  0001e	5f		 pop	 edi
  0001f	f7 ff		 idiv	 edi
  00021	8b f8		 mov	 edi, eax

; 980  : 			if (this->_Mylast == this->_Myend)

  00023	3b 4e 08	 cmp	 ecx, DWORD PTR [esi+8]
  00026	75 09		 jne	 SHORT $LN3@push_back@2

; 981  : 				_Reserve(1);

  00028	6a 01		 push	 1
  0002a	8b ce		 mov	 ecx, esi
  0002c	e8 00 00 00 00	 call	 ?_Reserve@?$vector@UBuffInfoStruct@@V?$allocator@UBuffInfoStruct@@@std@@@std@@IAEXI@Z ; std::vector<BuffInfoStruct,std::allocator<BuffInfoStruct> >::_Reserve
$LN3@push_back@2:

; 982  : 			_Orphan_range(this->_Mylast, this->_Mylast);
; 983  : 			_Cons_val(this->_Alval,
; 984  : 				this->_Mylast,
; 985  : 				this->_Myfirst[_Idx]);

  00031	6b ff 14	 imul	 edi, 20			; 00000014H
  00034	03 3e		 add	 edi, DWORD PTR [esi]
  00036	8d 4e 0c	 lea	 ecx, DWORD PTR [esi+12]
  00039	57		 push	 edi
  0003a	ff 76 04	 push	 DWORD PTR [esi+4]
  0003d	e8 00 00 00 00	 call	 ??$construct@AAUBuffInfoStruct@@@?$allocator@UBuffInfoStruct@@@std@@QAEXPAUBuffInfoStruct@@AAU2@@Z ; std::allocator<BuffInfoStruct>::construct<BuffInfoStruct &>

; 986  : 			++this->_Mylast;
; 987  : 			}
; 988  : 		else

  00042	eb 19		 jmp	 SHORT $LN30@push_back@2
$LN4@push_back@2:

; 989  : 			{	// push back a non-element
; 990  : 			if (this->_Mylast == this->_Myend)

  00044	3b 4e 08	 cmp	 ecx, DWORD PTR [esi+8]
  00047	75 09		 jne	 SHORT $LN1@push_back@2

; 991  : 				_Reserve(1);

  00049	6a 01		 push	 1
  0004b	8b ce		 mov	 ecx, esi
  0004d	e8 00 00 00 00	 call	 ?_Reserve@?$vector@UBuffInfoStruct@@V?$allocator@UBuffInfoStruct@@@std@@@std@@IAEXI@Z ; std::vector<BuffInfoStruct,std::allocator<BuffInfoStruct> >::_Reserve
$LN1@push_back@2:

; 992  : 			_Orphan_range(this->_Mylast, this->_Mylast);
; 993  : 			_Cons_val(this->_Alval,
; 994  : 				this->_Mylast,
; 995  : 				_Val);

  00052	57		 push	 edi
  00053	ff 76 04	 push	 DWORD PTR [esi+4]
  00056	e8 00 00 00 00	 call	 ??$_Construct@UBuffInfoStruct@@ABU1@@std@@YAXPAUBuffInfoStruct@@ABU1@@Z ; std::_Construct<BuffInfoStruct,BuffInfoStruct const &>
  0005b	59		 pop	 ecx
  0005c	59		 pop	 ecx
$LN30@push_back@2:

; 996  : 			++this->_Mylast;

  0005d	83 46 04 14	 add	 DWORD PTR [esi+4], 20	; 00000014H
  00061	5f		 pop	 edi
  00062	5e		 pop	 esi

; 997  : 			}
; 998  : 		}

  00063	5d		 pop	 ebp
  00064	c2 04 00	 ret	 4
?push_back@?$vector@UBuffInfoStruct@@V?$allocator@UBuffInfoStruct@@@std@@@std@@QAEXABUBuffInfoStruct@@@Z ENDP ; std::vector<BuffInfoStruct,std::allocator<BuffInfoStruct> >::push_back
_TEXT	ENDS
PUBLIC	??1?$vector@VioHashString@@V?$allocator@VioHashString@@@std@@@std@@QAE@XZ ; std::vector<ioHashString,std::allocator<ioHashString> >::~vector<ioHashString,std::allocator<ioHashString> >
; Function compile flags: /Ogsp
;	COMDAT ??1?$vector@VioHashString@@V?$allocator@VioHashString@@@std@@@std@@QAE@XZ
_TEXT	SEGMENT
??1?$vector@VioHashString@@V?$allocator@VioHashString@@@std@@@std@@QAE@XZ PROC ; std::vector<ioHashString,std::allocator<ioHashString> >::~vector<ioHashString,std::allocator<ioHashString> >, COMDAT
; _this$ = ecx

; 705  : 		_Tidy();

  00000	e9 00 00 00 00	 jmp	 ?_Tidy@?$vector@VioHashString@@V?$allocator@VioHashString@@@std@@@std@@IAEXXZ ; std::vector<ioHashString,std::allocator<ioHashString> >::_Tidy
??1?$vector@VioHashString@@V?$allocator@VioHashString@@@std@@@std@@QAE@XZ ENDP ; std::vector<ioHashString,std::allocator<ioHashString> >::~vector<ioHashString,std::allocator<ioHashString> >
_TEXT	ENDS
PUBLIC	?clear@?$vector@VioHashString@@V?$allocator@VioHashString@@@std@@@std@@QAEXXZ ; std::vector<ioHashString,std::allocator<ioHashString> >::clear
; Function compile flags: /Ogsp
;	COMDAT ?clear@?$vector@VioHashString@@V?$allocator@VioHashString@@@std@@@std@@QAEXXZ
_TEXT	SEGMENT
$T540933 = -4						; size = 4
?clear@?$vector@VioHashString@@V?$allocator@VioHashString@@@std@@@std@@QAEXXZ PROC ; std::vector<ioHashString,std::allocator<ioHashString> >::clear, COMDAT
; _this$ = ecx

; 1217 : 		{	// erase all

  00000	55		 push	 ebp
  00001	8b ec		 mov	 ebp, esp
  00003	51		 push	 ecx

; 1218 : 		erase(begin(), end());

  00004	8b 41 04	 mov	 eax, DWORD PTR [ecx+4]
  00007	8b 11		 mov	 edx, DWORD PTR [ecx]
  00009	50		 push	 eax
  0000a	52		 push	 edx
  0000b	8d 45 fc	 lea	 eax, DWORD PTR $T540933[ebp]
  0000e	50		 push	 eax
  0000f	e8 00 00 00 00	 call	 ?erase@?$vector@VioHashString@@V?$allocator@VioHashString@@@std@@@std@@QAE?AV?$_Vector_iterator@V?$_Vector_val@VioHashString@@V?$allocator@VioHashString@@@std@@@std@@@2@V?$_Vector_const_iterator@V?$_Vector_val@VioHashString@@V?$allocator@VioHashString@@@std@@@std@@@2@0@Z ; std::vector<ioHashString,std::allocator<ioHashString> >::erase

; 1219 : 		}

  00014	c9		 leave
  00015	c3		 ret	 0
?clear@?$vector@VioHashString@@V?$allocator@VioHashString@@@std@@@std@@QAEXXZ ENDP ; std::vector<ioHashString,std::allocator<ioHashString> >::clear
_TEXT	ENDS
PUBLIC	??_7ioMineWeapon2@@6B@				; ioMineWeapon2::`vftable'
PUBLIC	??0ioMineWeapon2@@QAE@PAVioBaseChar@@PBUWeaponAttribute@@@Z ; ioMineWeapon2::ioMineWeapon2
PUBLIC	??_R4ioMineWeapon2@@6B@				; ioMineWeapon2::`RTTI Complete Object Locator'
PUBLIC	??_R0?AVioMineWeapon2@@@8			; ioMineWeapon2 `RTTI Type Descriptor'
PUBLIC	??_R3ioMineWeapon2@@8				; ioMineWeapon2::`RTTI Class Hierarchy Descriptor'
PUBLIC	??_R2ioMineWeapon2@@8				; ioMineWeapon2::`RTTI Base Class Array'
PUBLIC	??_R1A@?0A@EA@ioMineWeapon2@@8			; ioMineWeapon2::`RTTI Base Class Descriptor at (0,-1,0,64)'
PUBLIC	??_R1A@?0A@EA@ioWeapon@@8			; ioWeapon::`RTTI Base Class Descriptor at (0,-1,0,64)'
PUBLIC	??_R0?AVioWeapon@@@8				; ioWeapon `RTTI Type Descriptor'
PUBLIC	??_R3ioWeapon@@8				; ioWeapon::`RTTI Class Hierarchy Descriptor'
PUBLIC	??_R2ioWeapon@@8				; ioWeapon::`RTTI Base Class Array'
PUBLIC	?LoadProperty@ioMineWeapon2@@UAEXAAVioINILoader@@@Z ; ioMineWeapon2::LoadProperty
EXTRN	__imp_??1ioOrientBox@@QAE@XZ:PROC
EXTRN	??1ioWeapon@@UAE@XZ:PROC			; ioWeapon::~ioWeapon
EXTRN	?SetPeculiarity@ioWeapon@@QAEXK@Z:PROC		; ioWeapon::SetPeculiarity
EXTRN	__imp_??0ioOrientBox@@QAE@XZ:PROC
EXTRN	??0ioWeapon@@QAE@PAVioBaseChar@@PBUWeaponAttribute@@@Z:PROC ; ioWeapon::ioWeapon
EXTRN	?IsAlreadyCollisioned@ioWeapon@@UAE_NPAVioPlayEntity@@@Z:PROC ; ioWeapon::IsAlreadyCollisioned
EXTRN	?AddCollisionEntity@ioWeapon@@UAEXPAVioPlayEntity@@@Z:PROC ; ioWeapon::AddCollisionEntity
EXTRN	?SetOwnerDamageRate@ioWeapon@@UAEXM@Z:PROC	; ioWeapon::SetOwnerDamageRate
EXTRN	?SetOwnerChargeDamageRate@ioWeapon@@UAEXM@Z:PROC ; ioWeapon::SetOwnerChargeDamageRate
EXTRN	?SetOwnerChargeForceRate@ioWeapon@@UAEXM@Z:PROC	; ioWeapon::SetOwnerChargeForceRate
EXTRN	?SetOwnerChargeRangeRate@ioWeapon@@UAEXM@Z:PROC	; ioWeapon::SetOwnerChargeRangeRate
EXTRN	?SetOwnerChargeSpeedRate@ioWeapon@@UAEXM@Z:PROC	; ioWeapon::SetOwnerChargeSpeedRate
EXTRN	?SetOwnerChargeBlowRate@ioWeapon@@UAEXM@Z:PROC	; ioWeapon::SetOwnerChargeBlowRate
EXTRN	?SetOwnerChargeFloatRate@ioWeapon@@UAEXM@Z:PROC	; ioWeapon::SetOwnerChargeFloatRate
EXTRN	?SetOwnerChargeScaleRate@ioWeapon@@UAEXM@Z:PROC	; ioWeapon::SetOwnerChargeScaleRate
EXTRN	?SetOwnerChargeExplosionRate@ioWeapon@@UAEXM@Z:PROC ; ioWeapon::SetOwnerChargeExplosionRate
EXTRN	?SetOwnerChargeWoundedTimeRate@ioWeapon@@UAEXM@Z:PROC ; ioWeapon::SetOwnerChargeWoundedTimeRate
EXTRN	?SetOwnerChargeLiveTimeRate@ioWeapon@@UAEXM@Z:PROC ; ioWeapon::SetOwnerChargeLiveTimeRate
EXTRN	?SetOwnerChargeBuffLiveTimeRate@ioWeapon@@UAEXM@Z:PROC ; ioWeapon::SetOwnerChargeBuffLiveTimeRate
EXTRN	?SetWeaponIndex@ioWeapon@@UAEXK@Z:PROC		; ioWeapon::SetWeaponIndex
EXTRN	?SetGrapplingTargetName@ioWeapon@@UAEXABVioHashString@@@Z:PROC ; ioWeapon::SetGrapplingTargetName
EXTRN	?SetCreateItem@ioWeapon@@UAEXABVioHashString@@@Z:PROC ; ioWeapon::SetCreateItem
EXTRN	?CallReserveAreaWeapon@ioWeapon@@UAEXXZ:PROC	; ioWeapon::CallReserveAreaWeapon
EXTRN	?PlayWoundedSound@ioWeapon@@UAEXPAVioPlayEntity@@@Z:PROC ; ioWeapon::PlayWoundedSound
EXTRN	?PlayDefensedSound@ioWeapon@@UAEXPAVioPlayEntity@@@Z:PROC ; ioWeapon::PlayDefensedSound
EXTRN	?PlayLoopSound@ioWeapon@@UAEXXZ:PROC		; ioWeapon::PlayLoopSound
EXTRN	?StopLoopSound@ioWeapon@@UAEXXZ:PROC		; ioWeapon::StopLoopSound
EXTRN	?GetPosition@ioWeapon@@UBEABUD3DXVECTOR3@@XZ:PROC ; ioWeapon::GetPosition
EXTRN	?GetBlowType@ioWeapon@@UBE?AW4BlowTargetType@@XZ:PROC ; ioWeapon::GetBlowType
EXTRN	?GetPushPower@ioWeapon@@UBEMM@Z:PROC		; ioWeapon::GetPushPower
EXTRN	?GetBlowPower@ioWeapon@@UBEMM@Z:PROC		; ioWeapon::GetBlowPower
EXTRN	?GetAirPushPower@ioWeapon@@UBEMM@Z:PROC		; ioWeapon::GetAirPushPower
EXTRN	?GetAirBlowPower@ioWeapon@@UBEMM@Z:PROC		; ioWeapon::GetAirBlowPower
EXTRN	?GetDefensePushPower@ioWeapon@@UBEMM@Z:PROC	; ioWeapon::GetDefensePushPower
EXTRN	?GetCollisionEnableTime@ioWeapon@@UBEKXZ:PROC	; ioWeapon::GetCollisionEnableTime
EXTRN	?SetSylphid@ioWeapon@@UAEHXZ:PROC		; ioWeapon::SetSylphid
EXTRN	?ApplyExtraReserveWeaponByWeaponInfo@ioWeapon@@UAEXPAV1@@Z:PROC ; ioWeapon::ApplyExtraReserveWeaponByWeaponInfo
EXTRN	?InitResource@ioWeapon@@UAE_NXZ:PROC		; ioWeapon::InitResource
EXTRN	?SetResistanceAttr@ioWeapon@@UAEXH@Z:PROC	; ioWeapon::SetResistanceAttr
EXTRN	?SetStartCollisionBox@ioWeapon@@UAEXXZ:PROC	; ioWeapon::SetStartCollisionBox
EXTRN	?SetLiveTime@ioWeapon@@UAEXK@Z:PROC		; ioWeapon::SetLiveTime
EXTRN	?SetMoveSpeed@ioWeapon@@UAEXM@Z:PROC		; ioWeapon::SetMoveSpeed
EXTRN	?SetFloatPower@ioWeapon@@UAEXM@Z:PROC		; ioWeapon::SetFloatPower
EXTRN	?CheckPreCollision@ioWeapon@@UAEXPAVioPlayEntity@@PAVioPlayStage@@@Z:PROC ; ioWeapon::CheckPreCollision
EXTRN	?CheckStructAndDummy@ioWeapon@@UAEXPAVioPlayEntity@@PAVioPlayStage@@@Z:PROC ; ioWeapon::CheckStructAndDummy
EXTRN	?GetDamage@ioWeapon@@UAEMPAVioPlayEntity@@@Z:PROC ; ioWeapon::GetDamage
EXTRN	?GetBaseDamage@ioWeapon@@UAEMPAVioPlayEntity@@@Z:PROC ; ioWeapon::GetBaseDamage
EXTRN	?GetPushAngle@ioWeapon@@UBEMXZ:PROC		; ioWeapon::GetPushAngle
EXTRN	?IsResistanceMagic@ioWeapon@@UAEHPAVioBaseChar@@@Z:PROC ; ioWeapon::IsResistanceMagic
EXTRN	?IsResistanceBomb@ioWeapon@@UAEHPAVioBaseChar@@@Z:PROC ; ioWeapon::IsResistanceBomb
EXTRN	?CheckGrapplingState@ioWeapon@@UAE?AW4GrapplingType@@XZ:PROC ; ioWeapon::CheckGrapplingState
EXTRN	?CheckCurAttribute@ioWeapon@@UAEXPBVioPlayEntity@@@Z:PROC ; ioWeapon::CheckCurAttribute
EXTRN	?CheckItemNotDrop@ioWeapon@@UAE_NPAVioBaseChar@@@Z:PROC ; ioWeapon::CheckItemNotDrop
EXTRN	?GetWorldAttackBoxList@ioWeapon@@UAEXAAV?$vector@VioOrientBox@@V?$allocator@VioOrientBox@@@std@@@std@@@Z:PROC ; ioWeapon::GetWorldAttackBoxList
EXTRN	?GetAttackDir@ioWeapon@@UBE?AUD3DXVECTOR3@@PBVioPlayEntity@@@Z:PROC ; ioWeapon::GetAttackDir
EXTRN	?GetLiveTime@ioWeapon@@UAEKXZ:PROC		; ioWeapon::GetLiveTime
EXTRN	?GetMoveDir@ioWeapon@@UAE?AUD3DXVECTOR3@@XZ:PROC ; ioWeapon::GetMoveDir
EXTRN	?CheckWeaponCollision@ioWeapon@@UAEXXZ:PROC	; ioWeapon::CheckWeaponCollision
EXTRN	?GetRefreshDuration@ioWeapon@@UAEKXZ:PROC	; ioWeapon::GetRefreshDuration
EXTRN	?GetIgnoreDuration@ioWeapon@@UAEKXZ:PROC	; ioWeapon::GetIgnoreDuration
EXTRN	?GetIgnoreTimeTypeDuration@ioWeapon@@UAEKXZ:PROC ; ioWeapon::GetIgnoreTimeTypeDuration
EXTRN	?GetIgnoreTimeType@ioWeapon@@UAEKXZ:PROC	; ioWeapon::GetIgnoreTimeType
EXTRN	?ApplyWeaponSync@ioWeapon@@UAEXAAVSP2Packet@@PAVioPlayStage@@@Z:PROC ; ioWeapon::ApplyWeaponSync
EXTRN	?IsSkillDependency@ioWeapon@@UAE_NABVioHashString@@@Z:PROC ; ioWeapon::IsSkillDependency
EXTRN	?SetSkillDependencyAction@ioWeapon@@UAEXXZ:PROC	; ioWeapon::SetSkillDependencyAction
EXTRN	?UpdateWorldAttackBox@ioWeapon@@MAEXM_N@Z:PROC	; ioWeapon::UpdateWorldAttackBox
EXTRN	?GetAttribute@ioWeapon@@MBEPBUWeaponAttribute@@XZ:PROC ; ioWeapon::GetAttribute
EXTRN	?CalcFinalDamage@ioWeapon@@MAEMXZ:PROC		; ioWeapon::CalcFinalDamage
EXTRN	?CalcFinalBoundDamage@ioWeapon@@MAEMXZ:PROC	; ioWeapon::CalcFinalBoundDamage
EXTRN	?CheckPiercing@ioWeapon@@MAE_N_N@Z:PROC		; ioWeapon::CheckPiercing
EXTRN	?ClearCollisionList@ioWeapon@@MAEXXZ:PROC	; ioWeapon::ClearCollisionList
EXTRN	?CheckCreateWeaponList@ioWeapon@@MAEXXZ:PROC	; ioWeapon::CheckCreateWeaponList
EXTRN	?CreateCollisionAreaWeapon@ioWeapon@@MAEXXZ:PROC ; ioWeapon::CreateCollisionAreaWeapon
EXTRN	?SetMapCollision@ioWeapon@@UAEXXZ:PROC		; ioWeapon::SetMapCollision
EXTRN	?IsIgnoreMapCollision@ioWeapon@@UBE_NXZ:PROC	; ioWeapon::IsIgnoreMapCollision
EXTRN	?IsIgnoreTestMapCollision@ioWeapon@@UBE_NXZ:PROC ; ioWeapon::IsIgnoreTestMapCollision
EXTRN	?IsIgnoreMapCollisionEffect@ioWeapon@@UBE_NXZ:PROC ; ioWeapon::IsIgnoreMapCollisionEffect
EXTRN	?AddEffectEvent@ioWeapon@@MAEXPAVioEffect@@@Z:PROC ; ioWeapon::AddEffectEvent
EXTRN	??_EioMineWeapon2@@UAEPAXI@Z:PROC		; ioMineWeapon2::`vector deleting destructor'
;	COMDAT ??_R2ioWeapon@@8
; File c:\program files (x86)\microsoft directx sdk (june 2010)\include\d3dx9math.h
rdata$r	SEGMENT
??_R2ioWeapon@@8 DD FLAT:??_R1A@?0A@EA@ioWeapon@@8	; ioWeapon::`RTTI Base Class Array'
rdata$r	ENDS
;	COMDAT ??_R3ioWeapon@@8
rdata$r	SEGMENT
??_R3ioWeapon@@8 DD 00H					; ioWeapon::`RTTI Class Hierarchy Descriptor'
	DD	00H
	DD	01H
	DD	FLAT:??_R2ioWeapon@@8
rdata$r	ENDS
;	COMDAT ??_R0?AVioWeapon@@@8
_DATA	SEGMENT
??_R0?AVioWeapon@@@8 DD FLAT:??_7type_info@@6B@		; ioWeapon `RTTI Type Descriptor'
	DD	00H
	DB	'.?AVioWeapon@@', 00H
_DATA	ENDS
;	COMDAT ??_R1A@?0A@EA@ioWeapon@@8
rdata$r	SEGMENT
??_R1A@?0A@EA@ioWeapon@@8 DD FLAT:??_R0?AVioWeapon@@@8	; ioWeapon::`RTTI Base Class Descriptor at (0,-1,0,64)'
	DD	00H
	DD	00H
	DD	0ffffffffH
	DD	00H
	DD	040H
	DD	FLAT:??_R3ioWeapon@@8
rdata$r	ENDS
;	COMDAT ??_R1A@?0A@EA@ioMineWeapon2@@8
rdata$r	SEGMENT
??_R1A@?0A@EA@ioMineWeapon2@@8 DD FLAT:??_R0?AVioMineWeapon2@@@8 ; ioMineWeapon2::`RTTI Base Class Descriptor at (0,-1,0,64)'
	DD	01H
	DD	00H
	DD	0ffffffffH
	DD	00H
	DD	040H
	DD	FLAT:??_R3ioMineWeapon2@@8
rdata$r	ENDS
;	COMDAT ??_R2ioMineWeapon2@@8
rdata$r	SEGMENT
??_R2ioMineWeapon2@@8 DD FLAT:??_R1A@?0A@EA@ioMineWeapon2@@8 ; ioMineWeapon2::`RTTI Base Class Array'
	DD	FLAT:??_R1A@?0A@EA@ioWeapon@@8
rdata$r	ENDS
;	COMDAT ??_R3ioMineWeapon2@@8
rdata$r	SEGMENT
??_R3ioMineWeapon2@@8 DD 00H				; ioMineWeapon2::`RTTI Class Hierarchy Descriptor'
	DD	00H
	DD	02H
	DD	FLAT:??_R2ioMineWeapon2@@8
rdata$r	ENDS
;	COMDAT ??_R0?AVioMineWeapon2@@@8
_DATA	SEGMENT
??_R0?AVioMineWeapon2@@@8 DD FLAT:??_7type_info@@6B@	; ioMineWeapon2 `RTTI Type Descriptor'
	DD	00H
	DB	'.?AVioMineWeapon2@@', 00H
_DATA	ENDS
;	COMDAT ??_R4ioMineWeapon2@@6B@
rdata$r	SEGMENT
??_R4ioMineWeapon2@@6B@ DD 00H				; ioMineWeapon2::`RTTI Complete Object Locator'
	DD	00H
	DD	00H
	DD	FLAT:??_R0?AVioMineWeapon2@@@8
	DD	FLAT:??_R3ioMineWeapon2@@8
rdata$r	ENDS
;	COMDAT ??_7ioMineWeapon2@@6B@
CONST	SEGMENT
??_7ioMineWeapon2@@6B@ DD FLAT:??_R4ioMineWeapon2@@6B@	; ioMineWeapon2::`vftable'
	DD	FLAT:?IsAlreadyCollisioned@ioWeapon@@UAE_NPAVioPlayEntity@@@Z
	DD	FLAT:?AddCollisionEntity@ioWeapon@@UAEXPAVioPlayEntity@@@Z
	DD	FLAT:?SetOwnerDamageRate@ioWeapon@@UAEXM@Z
	DD	FLAT:?SetOwnerChargeDamageRate@ioWeapon@@UAEXM@Z
	DD	FLAT:?SetOwnerChargeForceRate@ioWeapon@@UAEXM@Z
	DD	FLAT:?SetOwnerChargeRangeRate@ioWeapon@@UAEXM@Z
	DD	FLAT:?SetOwnerChargeSpeedRate@ioWeapon@@UAEXM@Z
	DD	FLAT:?SetOwnerChargeBlowRate@ioWeapon@@UAEXM@Z
	DD	FLAT:?SetOwnerChargeFloatRate@ioWeapon@@UAEXM@Z
	DD	FLAT:?SetOwnerChargeScaleRate@ioWeapon@@UAEXM@Z
	DD	FLAT:?SetOwnerChargeExplosionRate@ioWeapon@@UAEXM@Z
	DD	FLAT:?SetOwnerChargeWoundedTimeRate@ioWeapon@@UAEXM@Z
	DD	FLAT:?SetOwnerChargeLiveTimeRate@ioWeapon@@UAEXM@Z
	DD	FLAT:?SetOwnerChargeBuffLiveTimeRate@ioWeapon@@UAEXM@Z
	DD	FLAT:?SetWeaponIndex@ioWeapon@@UAEXK@Z
	DD	FLAT:?SetGrapplingTargetName@ioWeapon@@UAEXABVioHashString@@@Z
	DD	FLAT:?SetCreateItem@ioWeapon@@UAEXABVioHashString@@@Z
	DD	FLAT:?SetTeam@ioMineWeapon2@@UAEXPAVioPlayStage@@W4TeamType@@@Z
	DD	FLAT:?CallReserveAreaWeapon@ioWeapon@@UAEXXZ
	DD	FLAT:?SetWeaponDead@ioMineWeapon2@@UAEXXZ
	DD	FLAT:?PlayExplosionSound@ioWeapon@@UAEXXZ
	DD	FLAT:?PlayWoundedSound@ioWeapon@@UAEXPAVioPlayEntity@@@Z
	DD	FLAT:?PlayDefensedSound@ioWeapon@@UAEXPAVioPlayEntity@@@Z
	DD	FLAT:?PlayLoopSound@ioWeapon@@UAEXXZ
	DD	FLAT:?StopLoopSound@ioWeapon@@UAEXXZ
	DD	FLAT:?GetTargetAirBuffList@ioMineWeapon2@@UBEABV?$vector@UBuffInfoStruct@@V?$allocator@UBuffInfoStruct@@@std@@@std@@XZ
	DD	FLAT:?GetTargetBuffList@ioMineWeapon2@@UBEABV?$vector@UBuffInfoStruct@@V?$allocator@UBuffInfoStruct@@@std@@@std@@XZ
	DD	FLAT:?GetTargetDownBuffList@ioMineWeapon2@@UBEABV?$vector@UBuffInfoStruct@@V?$allocator@UBuffInfoStruct@@@std@@@std@@XZ
	DD	FLAT:?GetPosition@ioWeapon@@UBEABUD3DXVECTOR3@@XZ
	DD	FLAT:?GetBlowType@ioWeapon@@UBE?AW4BlowTargetType@@XZ
	DD	FLAT:?GetPushPower@ioWeapon@@UBEMM@Z
	DD	FLAT:?GetBlowPower@ioWeapon@@UBEMM@Z
	DD	FLAT:?GetAirPushPower@ioWeapon@@UBEMM@Z
	DD	FLAT:?GetAirBlowPower@ioWeapon@@UBEMM@Z
	DD	FLAT:?GetDefensePushPower@ioWeapon@@UBEMM@Z
	DD	FLAT:?GetCollisionEnableTime@ioWeapon@@UBEKXZ
	DD	FLAT:?SetSylphid@ioWeapon@@UAEHXZ
	DD	FLAT:?ApplyExtraReserveWeaponByWeaponInfo@ioWeapon@@UAEXPAV1@@Z
	DD	FLAT:?InitResource@ioWeapon@@UAE_NXZ
	DD	FLAT:?DestroyResource@ioMineWeapon2@@UAEXPAVioPlayStage@@@Z
	DD	FLAT:?LoadProperty@ioMineWeapon2@@UAEXAAVioINILoader@@@Z
	DD	FLAT:?SetResistanceAttr@ioWeapon@@UAEXH@Z
	DD	FLAT:?SetStartCollisionBox@ioWeapon@@UAEXXZ
	DD	FLAT:?SetLiveTime@ioWeapon@@UAEXK@Z
	DD	FLAT:?SetMoveDir@ioMineWeapon2@@UAEXABUD3DXVECTOR3@@@Z
	DD	FLAT:?SetMoveSpeed@ioWeapon@@UAEXM@Z
	DD	FLAT:?SetFloatPower@ioWeapon@@UAEXM@Z
	DD	FLAT:?SetStartPosition@ioMineWeapon2@@UAEXABUD3DXVECTOR3@@PAVioPlayStage@@@Z
	DD	FLAT:?Process@ioMineWeapon2@@UAEXMPAVioPlayStage@@@Z
	DD	FLAT:?IsCollision@ioMineWeapon2@@UAE_NPAVioPlayEntity@@_N@Z
	DD	FLAT:?TestMapCollision@ioMineWeapon2@@UAE_NPAVioOpcodeShape@@PAVioPlayStage@@PBUD3DXMATRIX@@@Z
	DD	FLAT:?CheckPreCollision@ioWeapon@@UAEXPAVioPlayEntity@@PAVioPlayStage@@@Z
	DD	FLAT:?CheckStructAndDummy@ioWeapon@@UAEXPAVioPlayEntity@@PAVioPlayStage@@@Z
	DD	FLAT:?GetDamage@ioWeapon@@UAEMPAVioPlayEntity@@@Z
	DD	FLAT:?GetBaseDamage@ioWeapon@@UAEMPAVioPlayEntity@@@Z
	DD	FLAT:?GetPushAngle@ioWeapon@@UBEMXZ
	DD	FLAT:?IsResistanceMagic@ioWeapon@@UAEHPAVioBaseChar@@@Z
	DD	FLAT:?IsResistanceBomb@ioWeapon@@UAEHPAVioBaseChar@@@Z
	DD	FLAT:?IsCanMineExplosion@ioMineWeapon2@@UAE_NXZ
	DD	FLAT:?CheckGrapplingState@ioWeapon@@UAE?AW4GrapplingType@@XZ
	DD	FLAT:?CheckCurAttribute@ioWeapon@@UAEXPBVioPlayEntity@@@Z
	DD	FLAT:?CheckItemNotDrop@ioWeapon@@UAE_NPAVioBaseChar@@@Z
	DD	FLAT:?GetWorldAttackBoxList@ioWeapon@@UAEXAAV?$vector@VioOrientBox@@V?$allocator@VioOrientBox@@@std@@@std@@@Z
	DD	FLAT:?GetAttackDir@ioWeapon@@UBE?AUD3DXVECTOR3@@PBVioPlayEntity@@@Z
	DD	FLAT:?GetLocalAttackBox@ioMineWeapon2@@UBEABVioOrientBox@@XZ
	DD	FLAT:?GetLiveTime@ioWeapon@@UAEKXZ
	DD	FLAT:?GetMoveDir@ioWeapon@@UAE?AUD3DXVECTOR3@@XZ
	DD	FLAT:?CheckWeaponCollision@ioWeapon@@UAEXXZ
	DD	FLAT:?GetType@ioMineWeapon2@@UBE?AW4WeaponType@ioWeapon@@XZ
	DD	FLAT:?GetActionStopType@ioMineWeapon2@@UBE?AW4ActionStopType@@XZ
	DD	FLAT:?GetDieActionStopType@ioMineWeapon2@@UBE?AW4ActionStopType@@XZ
	DD	FLAT:?GetRefreshDuration@ioWeapon@@UAEKXZ
	DD	FLAT:?GetIgnoreDuration@ioWeapon@@UAEKXZ
	DD	FLAT:?GetIgnoreTimeTypeDuration@ioWeapon@@UAEKXZ
	DD	FLAT:?GetIgnoreTimeType@ioWeapon@@UAEKXZ
	DD	FLAT:?ApplyWeaponSync@ioWeapon@@UAEXAAVSP2Packet@@PAVioPlayStage@@@Z
	DD	FLAT:?IsSkillDependency@ioWeapon@@UAE_NABVioHashString@@@Z
	DD	FLAT:?SetSkillDependencyAction@ioWeapon@@UAEXXZ
	DD	FLAT:?UpdateWorldAttackBox@ioWeapon@@MAEXM_N@Z
	DD	FLAT:?GetAttribute@ioWeapon@@MBEPBUWeaponAttribute@@XZ
	DD	FLAT:?CalcFinalDamage@ioWeapon@@MAEMXZ
	DD	FLAT:?CalcFinalBoundDamage@ioWeapon@@MAEMXZ
	DD	FLAT:?CheckPiercing@ioWeapon@@MAE_N_N@Z
	DD	FLAT:?ClearCollisionList@ioWeapon@@MAEXXZ
	DD	FLAT:?CheckCreateWeaponList@ioWeapon@@MAEXXZ
	DD	FLAT:?CreateCollisionAreaWeapon@ioWeapon@@MAEXXZ
	DD	FLAT:?SetMapCollision@ioWeapon@@UAEXXZ
	DD	FLAT:?IsIgnoreMapCollision@ioWeapon@@UBE_NXZ
	DD	FLAT:?IsIgnoreTestMapCollision@ioWeapon@@UBE_NXZ
	DD	FLAT:?IsIgnoreMapCollisionEffect@ioWeapon@@UBE_NXZ
	DD	FLAT:?AddEffectEvent@ioWeapon@@MAEXPAVioEffect@@@Z
	DD	FLAT:??_EioMineWeapon2@@UAEPAXI@Z
CONST	ENDS
;	COMDAT xdata$x
xdata$x	SEGMENT
__ehfuncinfo$??0ioMineWeapon2@@QAE@PAVioBaseChar@@PBUWeaponAttribute@@@Z DD 019930522H
	DD	018H
	DD	FLAT:__unwindtable$??0ioMineWeapon2@@QAE@PAVioBaseChar@@PBUWeaponAttribute@@@Z
	DD	2 DUP(00H)
	DD	2 DUP(00H)
	DD	00H
	DD	01H
__unwindtable$??0ioMineWeapon2@@QAE@PAVioBaseChar@@PBUWeaponAttribute@@@Z DD 0ffffffffH
	DD	FLAT:__unwindfunclet$??0ioMineWeapon2@@QAE@PAVioBaseChar@@PBUWeaponAttribute@@@Z$0
	DD	00H
	DD	FLAT:__unwindfunclet$??0ioMineWeapon2@@QAE@PAVioBaseChar@@PBUWeaponAttribute@@@Z$1
	DD	01H
	DD	FLAT:__unwindfunclet$??0ioMineWeapon2@@QAE@PAVioBaseChar@@PBUWeaponAttribute@@@Z$2
	DD	02H
	DD	FLAT:__unwindfunclet$??0ioMineWeapon2@@QAE@PAVioBaseChar@@PBUWeaponAttribute@@@Z$3
	DD	03H
	DD	FLAT:__unwindfunclet$??0ioMineWeapon2@@QAE@PAVioBaseChar@@PBUWeaponAttribute@@@Z$4
	DD	04H
	DD	FLAT:__unwindfunclet$??0ioMineWeapon2@@QAE@PAVioBaseChar@@PBUWeaponAttribute@@@Z$5
	DD	05H
	DD	FLAT:__unwindfunclet$??0ioMineWeapon2@@QAE@PAVioBaseChar@@PBUWeaponAttribute@@@Z$6
	DD	06H
	DD	FLAT:__unwindfunclet$??0ioMineWeapon2@@QAE@PAVioBaseChar@@PBUWeaponAttribute@@@Z$7
	DD	07H
	DD	FLAT:__unwindfunclet$??0ioMineWeapon2@@QAE@PAVioBaseChar@@PBUWeaponAttribute@@@Z$8
	DD	08H
	DD	FLAT:__unwindfunclet$??0ioMineWeapon2@@QAE@PAVioBaseChar@@PBUWeaponAttribute@@@Z$9
	DD	09H
	DD	FLAT:__unwindfunclet$??0ioMineWeapon2@@QAE@PAVioBaseChar@@PBUWeaponAttribute@@@Z$10
	DD	0aH
	DD	FLAT:__unwindfunclet$??0ioMineWeapon2@@QAE@PAVioBaseChar@@PBUWeaponAttribute@@@Z$11
	DD	0bH
	DD	FLAT:__unwindfunclet$??0ioMineWeapon2@@QAE@PAVioBaseChar@@PBUWeaponAttribute@@@Z$12
	DD	0cH
	DD	FLAT:__unwindfunclet$??0ioMineWeapon2@@QAE@PAVioBaseChar@@PBUWeaponAttribute@@@Z$13
	DD	0dH
	DD	FLAT:__unwindfunclet$??0ioMineWeapon2@@QAE@PAVioBaseChar@@PBUWeaponAttribute@@@Z$14
	DD	0eH
	DD	FLAT:__unwindfunclet$??0ioMineWeapon2@@QAE@PAVioBaseChar@@PBUWeaponAttribute@@@Z$15
	DD	0fH
	DD	FLAT:__unwindfunclet$??0ioMineWeapon2@@QAE@PAVioBaseChar@@PBUWeaponAttribute@@@Z$16
	DD	010H
	DD	FLAT:__unwindfunclet$??0ioMineWeapon2@@QAE@PAVioBaseChar@@PBUWeaponAttribute@@@Z$17
	DD	011H
	DD	FLAT:__unwindfunclet$??0ioMineWeapon2@@QAE@PAVioBaseChar@@PBUWeaponAttribute@@@Z$18
	DD	012H
	DD	FLAT:__unwindfunclet$??0ioMineWeapon2@@QAE@PAVioBaseChar@@PBUWeaponAttribute@@@Z$19
	DD	013H
	DD	FLAT:__unwindfunclet$??0ioMineWeapon2@@QAE@PAVioBaseChar@@PBUWeaponAttribute@@@Z$20
	DD	014H
	DD	FLAT:__unwindfunclet$??0ioMineWeapon2@@QAE@PAVioBaseChar@@PBUWeaponAttribute@@@Z$21
	DD	015H
	DD	FLAT:__unwindfunclet$??0ioMineWeapon2@@QAE@PAVioBaseChar@@PBUWeaponAttribute@@@Z$22
	DD	016H
	DD	FLAT:__unwindfunclet$??0ioMineWeapon2@@QAE@PAVioBaseChar@@PBUWeaponAttribute@@@Z$23
; Function compile flags: /Ogsp
; File d:\lost saga for developer\youtube\tutorial\source\src\lsclient\iomineweapon2.cpp
xdata$x	ENDS
;	COMDAT ??0ioMineWeapon2@@QAE@PAVioBaseChar@@PBUWeaponAttribute@@@Z
_TEXT	SEGMENT
_this$ = -16						; size = 4
__$EHRec$ = -12						; size = 12
_pOwner$ = 8						; size = 4
_pAttr$ = 12						; size = 4
??0ioMineWeapon2@@QAE@PAVioBaseChar@@PBUWeaponAttribute@@@Z PROC ; ioMineWeapon2::ioMineWeapon2, COMDAT
; _this$ = ecx

; 15   : {

  00000	6a 04		 push	 4
  00002	b8 00 00 00 00	 mov	 eax, __ehhandler$??0ioMineWeapon2@@QAE@PAVioBaseChar@@PBUWeaponAttribute@@@Z
  00007	e8 00 00 00 00	 call	 __EH_prolog3
  0000c	8b d9		 mov	 ebx, ecx
  0000e	89 5d f0	 mov	 DWORD PTR _this$[ebp], ebx
  00011	ff 75 0c	 push	 DWORD PTR _pAttr$[ebp]
  00014	ff 75 08	 push	 DWORD PTR _pOwner$[ebp]
  00017	e8 00 00 00 00	 call	 ??0ioWeapon@@QAE@PAVioBaseChar@@PBUWeaponAttribute@@@Z ; ioWeapon::ioWeapon
  0001c	8b 35 00 00 00
	00		 mov	 esi, DWORD PTR __imp_??0ioHashString@@QAE@XZ
  00022	33 ff		 xor	 edi, edi
  00024	8d 8b ac 08 00
	00		 lea	 ecx, DWORD PTR [ebx+2220]
  0002a	89 7d fc	 mov	 DWORD PTR __$EHRec$[ebp+8], edi
  0002d	c7 03 00 00 00
	00		 mov	 DWORD PTR [ebx], OFFSET ??_7ioMineWeapon2@@6B@
  00033	ff d6		 call	 esi
  00035	8d 8b d4 08 00
	00		 lea	 ecx, DWORD PTR [ebx+2260]
  0003b	c6 45 fc 01	 mov	 BYTE PTR __$EHRec$[ebp+8], 1
  0003f	e8 00 00 00 00	 call	 ??0?$CEncrypt@M@@QAE@XZ	; CEncrypt<float>::CEncrypt<float>
  00044	8d 8b 04 09 00
	00		 lea	 ecx, DWORD PTR [ebx+2308]
  0004a	c6 45 fc 02	 mov	 BYTE PTR __$EHRec$[ebp+8], 2
  0004e	e8 00 00 00 00	 call	 ??0?$CEncrypt@M@@QAE@XZ	; CEncrypt<float>::CEncrypt<float>
  00053	8d 8b 34 09 00
	00		 lea	 ecx, DWORD PTR [ebx+2356]
  00059	c6 45 fc 03	 mov	 BYTE PTR __$EHRec$[ebp+8], 3
  0005d	e8 00 00 00 00	 call	 ??0?$CEncrypt@M@@QAE@XZ	; CEncrypt<float>::CEncrypt<float>
  00062	8d 8b 64 09 00
	00		 lea	 ecx, DWORD PTR [ebx+2404]
  00068	c6 45 fc 04	 mov	 BYTE PTR __$EHRec$[ebp+8], 4
  0006c	e8 00 00 00 00	 call	 ??0?$CEncrypt@M@@QAE@XZ	; CEncrypt<float>::CEncrypt<float>
  00071	8d 8b 94 09 00
	00		 lea	 ecx, DWORD PTR [ebx+2452]
  00077	c6 45 fc 05	 mov	 BYTE PTR __$EHRec$[ebp+8], 5
  0007b	e8 00 00 00 00	 call	 ??0?$CEncrypt@M@@QAE@XZ	; CEncrypt<float>::CEncrypt<float>
  00080	8d 8b c4 09 00
	00		 lea	 ecx, DWORD PTR [ebx+2500]
  00086	c6 45 fc 06	 mov	 BYTE PTR __$EHRec$[ebp+8], 6
  0008a	e8 00 00 00 00	 call	 ??0?$CEncrypt@M@@QAE@XZ	; CEncrypt<float>::CEncrypt<float>
  0008f	8d 8b fc 09 00
	00		 lea	 ecx, DWORD PTR [ebx+2556]
  00095	c6 45 fc 07	 mov	 BYTE PTR __$EHRec$[ebp+8], 7
  00099	e8 00 00 00 00	 call	 ??0?$CEncrypt@M@@QAE@XZ	; CEncrypt<float>::CEncrypt<float>
  0009e	8d 8b 2c 0a 00
	00		 lea	 ecx, DWORD PTR [ebx+2604]
  000a4	c6 45 fc 08	 mov	 BYTE PTR __$EHRec$[ebp+8], 8
  000a8	e8 00 00 00 00	 call	 ??0?$CEncrypt@M@@QAE@XZ	; CEncrypt<float>::CEncrypt<float>
  000ad	8d 8b 74 0a 00
	00		 lea	 ecx, DWORD PTR [ebx+2676]
  000b3	c6 45 fc 09	 mov	 BYTE PTR __$EHRec$[ebp+8], 9
  000b7	ff d6		 call	 esi
  000b9	8d 8b 84 0a 00
	00		 lea	 ecx, DWORD PTR [ebx+2692]
  000bf	c6 45 fc 0a	 mov	 BYTE PTR __$EHRec$[ebp+8], 10 ; 0000000aH
  000c3	ff d6		 call	 esi
  000c5	8d 8b 94 0a 00
	00		 lea	 ecx, DWORD PTR [ebx+2708]
  000cb	c6 45 fc 0b	 mov	 BYTE PTR __$EHRec$[ebp+8], 11 ; 0000000bH
  000cf	ff d6		 call	 esi
  000d1	8d 8b a4 0a 00
	00		 lea	 ecx, DWORD PTR [ebx+2724]
  000d7	c6 45 fc 0c	 mov	 BYTE PTR __$EHRec$[ebp+8], 12 ; 0000000cH
  000db	ff d6		 call	 esi
  000dd	89 bb b4 0a 00
	00		 mov	 DWORD PTR [ebx+2740], edi
  000e3	89 bb b8 0a 00
	00		 mov	 DWORD PTR [ebx+2744], edi
  000e9	89 bb bc 0a 00
	00		 mov	 DWORD PTR [ebx+2748], edi
  000ef	89 bb c4 0a 00
	00		 mov	 DWORD PTR [ebx+2756], edi
  000f5	89 bb c8 0a 00
	00		 mov	 DWORD PTR [ebx+2760], edi
  000fb	89 bb cc 0a 00
	00		 mov	 DWORD PTR [ebx+2764], edi
  00101	8d 8b d4 0a 00
	00		 lea	 ecx, DWORD PTR [ebx+2772]
  00107	c6 45 fc 0f	 mov	 BYTE PTR __$EHRec$[ebp+8], 15 ; 0000000fH
  0010b	ff 15 00 00 00
	00		 call	 DWORD PTR __imp_??0ioOrientBox@@QAE@XZ
  00111	8d 8b 18 0b 00
	00		 lea	 ecx, DWORD PTR [ebx+2840]
  00117	c6 45 fc 10	 mov	 BYTE PTR __$EHRec$[ebp+8], 16 ; 00000010H
  0011b	ff 15 00 00 00
	00		 call	 DWORD PTR __imp_??0ioOrientBox@@QAE@XZ
  00121	89 bb 6c 0b 00
	00		 mov	 DWORD PTR [ebx+2924], edi
  00127	89 bb 70 0b 00
	00		 mov	 DWORD PTR [ebx+2928], edi
  0012d	89 bb 74 0b 00
	00		 mov	 DWORD PTR [ebx+2932], edi
  00133	89 bb 7c 0b 00
	00		 mov	 DWORD PTR [ebx+2940], edi
  00139	89 bb 80 0b 00
	00		 mov	 DWORD PTR [ebx+2944], edi
  0013f	89 bb 84 0b 00
	00		 mov	 DWORD PTR [ebx+2948], edi
  00145	89 bb 8c 0b 00
	00		 mov	 DWORD PTR [ebx+2956], edi
  0014b	89 bb 90 0b 00
	00		 mov	 DWORD PTR [ebx+2960], edi
  00151	89 bb 94 0b 00
	00		 mov	 DWORD PTR [ebx+2964], edi
  00157	8d 8b a4 0b 00
	00		 lea	 ecx, DWORD PTR [ebx+2980]
  0015d	c6 45 fc 14	 mov	 BYTE PTR __$EHRec$[ebp+8], 20 ; 00000014H
  00161	ff d6		 call	 esi
  00163	8d 8b b4 0b 00
	00		 lea	 ecx, DWORD PTR [ebx+2996]
  00169	c6 45 fc 15	 mov	 BYTE PTR __$EHRec$[ebp+8], 21 ; 00000015H
  0016d	ff d6		 call	 esi
  0016f	8d 8b d8 0b 00
	00		 lea	 ecx, DWORD PTR [ebx+3032]
  00175	c6 45 fc 16	 mov	 BYTE PTR __$EHRec$[ebp+8], 22 ; 00000016H
  00179	ff d6		 call	 esi

; 16   : 	SetPeculiarity( WP_MINE_EXPLOSION | WP_ATTACK_OWNER | WP_WOUND_NO_SOUND | WP_DEF_NO_SOUND );

  0017b	68 d4 00 00 00	 push	 212			; 000000d4H
  00180	8b cb		 mov	 ecx, ebx
  00182	c6 45 fc 17	 mov	 BYTE PTR __$EHRec$[ebp+8], 23 ; 00000017H
  00186	e8 00 00 00 00	 call	 ?SetPeculiarity@ioWeapon@@QAEXK@Z ; ioWeapon::SetPeculiarity

; 17   : 
; 18   : 	m_pMine = NULL;
; 19   : 
; 20   : 	m_dwSensingStartTime = 0;
; 21   : 	m_dwCurTraceDelayTime = 0;			// 대기시간 계산
; 22   : 	m_dwCurFlyTraceDealyTime = 0;
; 23   : 
; 24   : 	m_State = MS_CHARGE;
; 25   : 	m_bMineVisible = false;
; 26   : 
; 27   : 	m_iConveyerMoveFrameIdx = -1;

  0018b	83 8b ec 0b 00
	00 ff		 or	 DWORD PTR [ebx+3052], -1

; 28   : 	m_bResistance = false;
; 29   : 
; 30   : 	m_bWait = false;
; 31   : 	m_CurTeamColor = TEAM_BLUE;
; 32   : 
; 33   : 	m_szTargetName.Clear();

  00192	8d 8b ac 08 00
	00		 lea	 ecx, DWORD PTR [ebx+2220]
  00198	89 bb 94 08 00
	00		 mov	 DWORD PTR [ebx+2196], edi
  0019e	89 bb 98 08 00
	00		 mov	 DWORD PTR [ebx+2200], edi
  001a4	89 bb a0 08 00
	00		 mov	 DWORD PTR [ebx+2208], edi
  001aa	89 bb a8 08 00
	00		 mov	 DWORD PTR [ebx+2216], edi
  001b0	89 bb 9c 0b 00
	00		 mov	 DWORD PTR [ebx+2972], edi
  001b6	c6 83 5c 0b 00
	00 00		 mov	 BYTE PTR [ebx+2908], 0
  001bd	c6 83 3c 06 00
	00 00		 mov	 BYTE PTR [ebx+1596], 0
  001c4	c6 83 5e 0b 00
	00 00		 mov	 BYTE PTR [ebx+2910], 0
  001cb	c7 83 60 0b 00
	00 02 00 00 00	 mov	 DWORD PTR [ebx+2912], 2
  001d5	ff 15 00 00 00
	00		 call	 DWORD PTR __imp_?Clear@ioHashString@@QAEXXZ

; 34   : 
; 35   : 	m_vMoveDir = ioMath::VEC3_ZERO;

  001db	8b 35 00 00 00
	00		 mov	 esi, DWORD PTR __imp_?VEC3_ZERO@ioMath@@2UD3DXVECTOR3@@A

; 36   : 	m_fGapAngle = 0.0f;

  001e1	0f 57 c0	 xorps	 xmm0, xmm0
  001e4	8d bb c8 08 00
	00		 lea	 edi, DWORD PTR [ebx+2248]
  001ea	a5		 movsd
  001eb	a5		 movsd
  001ec	a5		 movsd

; 37   : 
; 38   : 	m_dwTraceStartSound = 0;

  001ed	83 a3 e8 0b 00
	00 00		 and	 DWORD PTR [ebx+3048], 0
  001f4	f3 0f 11 83 d4
	0b 00 00	 movss	 DWORD PTR [ebx+3028], xmm0

; 39   : 	
; 40   : }

  001fc	8b c3		 mov	 eax, ebx
  001fe	e8 00 00 00 00	 call	 __EH_epilog3
  00203	c2 08 00	 ret	 8
_TEXT	ENDS
;	COMDAT text$x
text$x	SEGMENT
__unwindfunclet$??0ioMineWeapon2@@QAE@PAVioBaseChar@@PBUWeaponAttribute@@@Z$0:
  00000	8b 4d f0	 mov	 ecx, DWORD PTR _this$[ebp]
  00003	e9 00 00 00 00	 jmp	 ??1ioWeapon@@UAE@XZ	; ioWeapon::~ioWeapon
__unwindfunclet$??0ioMineWeapon2@@QAE@PAVioBaseChar@@PBUWeaponAttribute@@@Z$1:
  00008	8b 4d f0	 mov	 ecx, DWORD PTR _this$[ebp]
  0000b	81 c1 ac 08 00
	00		 add	 ecx, 2220		; 000008acH
  00011	ff 25 00 00 00
	00		 jmp	 DWORD PTR __imp_??1ioHashString@@QAE@XZ
__unwindfunclet$??0ioMineWeapon2@@QAE@PAVioBaseChar@@PBUWeaponAttribute@@@Z$2:
  00017	8b 4d f0	 mov	 ecx, DWORD PTR _this$[ebp]
  0001a	81 c1 d4 08 00
	00		 add	 ecx, 2260		; 000008d4H
  00020	e9 00 00 00 00	 jmp	 ??1?$CEncrypt@M@@UAE@XZ	; CEncrypt<float>::~CEncrypt<float>
__unwindfunclet$??0ioMineWeapon2@@QAE@PAVioBaseChar@@PBUWeaponAttribute@@@Z$3:
  00025	8b 4d f0	 mov	 ecx, DWORD PTR _this$[ebp]
  00028	81 c1 04 09 00
	00		 add	 ecx, 2308		; 00000904H
  0002e	e9 00 00 00 00	 jmp	 ??1?$CEncrypt@M@@UAE@XZ	; CEncrypt<float>::~CEncrypt<float>
__unwindfunclet$??0ioMineWeapon2@@QAE@PAVioBaseChar@@PBUWeaponAttribute@@@Z$4:
  00033	8b 4d f0	 mov	 ecx, DWORD PTR _this$[ebp]
  00036	81 c1 34 09 00
	00		 add	 ecx, 2356		; 00000934H
  0003c	e9 00 00 00 00	 jmp	 ??1?$CEncrypt@M@@UAE@XZ	; CEncrypt<float>::~CEncrypt<float>
__unwindfunclet$??0ioMineWeapon2@@QAE@PAVioBaseChar@@PBUWeaponAttribute@@@Z$5:
  00041	8b 4d f0	 mov	 ecx, DWORD PTR _this$[ebp]
  00044	81 c1 64 09 00
	00		 add	 ecx, 2404		; 00000964H
  0004a	e9 00 00 00 00	 jmp	 ??1?$CEncrypt@M@@UAE@XZ	; CEncrypt<float>::~CEncrypt<float>
__unwindfunclet$??0ioMineWeapon2@@QAE@PAVioBaseChar@@PBUWeaponAttribute@@@Z$6:
  0004f	8b 4d f0	 mov	 ecx, DWORD PTR _this$[ebp]
  00052	81 c1 94 09 00
	00		 add	 ecx, 2452		; 00000994H
  00058	e9 00 00 00 00	 jmp	 ??1?$CEncrypt@M@@UAE@XZ	; CEncrypt<float>::~CEncrypt<float>
__unwindfunclet$??0ioMineWeapon2@@QAE@PAVioBaseChar@@PBUWeaponAttribute@@@Z$7:
  0005d	8b 4d f0	 mov	 ecx, DWORD PTR _this$[ebp]
  00060	81 c1 c4 09 00
	00		 add	 ecx, 2500		; 000009c4H
  00066	e9 00 00 00 00	 jmp	 ??1?$CEncrypt@M@@UAE@XZ	; CEncrypt<float>::~CEncrypt<float>
__unwindfunclet$??0ioMineWeapon2@@QAE@PAVioBaseChar@@PBUWeaponAttribute@@@Z$8:
  0006b	8b 4d f0	 mov	 ecx, DWORD PTR _this$[ebp]
  0006e	81 c1 fc 09 00
	00		 add	 ecx, 2556		; 000009fcH
  00074	e9 00 00 00 00	 jmp	 ??1?$CEncrypt@M@@UAE@XZ	; CEncrypt<float>::~CEncrypt<float>
__unwindfunclet$??0ioMineWeapon2@@QAE@PAVioBaseChar@@PBUWeaponAttribute@@@Z$9:
  00079	8b 4d f0	 mov	 ecx, DWORD PTR _this$[ebp]
  0007c	81 c1 2c 0a 00
	00		 add	 ecx, 2604		; 00000a2cH
  00082	e9 00 00 00 00	 jmp	 ??1?$CEncrypt@M@@UAE@XZ	; CEncrypt<float>::~CEncrypt<float>
__unwindfunclet$??0ioMineWeapon2@@QAE@PAVioBaseChar@@PBUWeaponAttribute@@@Z$10:
  00087	8b 4d f0	 mov	 ecx, DWORD PTR _this$[ebp]
  0008a	81 c1 74 0a 00
	00		 add	 ecx, 2676		; 00000a74H
  00090	ff 25 00 00 00
	00		 jmp	 DWORD PTR __imp_??1ioHashString@@QAE@XZ
__unwindfunclet$??0ioMineWeapon2@@QAE@PAVioBaseChar@@PBUWeaponAttribute@@@Z$11:
  00096	8b 4d f0	 mov	 ecx, DWORD PTR _this$[ebp]
  00099	81 c1 84 0a 00
	00		 add	 ecx, 2692		; 00000a84H
  0009f	ff 25 00 00 00
	00		 jmp	 DWORD PTR __imp_??1ioHashString@@QAE@XZ
__unwindfunclet$??0ioMineWeapon2@@QAE@PAVioBaseChar@@PBUWeaponAttribute@@@Z$12:
  000a5	8b 4d f0	 mov	 ecx, DWORD PTR _this$[ebp]
  000a8	81 c1 94 0a 00
	00		 add	 ecx, 2708		; 00000a94H
  000ae	ff 25 00 00 00
	00		 jmp	 DWORD PTR __imp_??1ioHashString@@QAE@XZ
__unwindfunclet$??0ioMineWeapon2@@QAE@PAVioBaseChar@@PBUWeaponAttribute@@@Z$13:
  000b4	8b 4d f0	 mov	 ecx, DWORD PTR _this$[ebp]
  000b7	81 c1 a4 0a 00
	00		 add	 ecx, 2724		; 00000aa4H
  000bd	ff 25 00 00 00
	00		 jmp	 DWORD PTR __imp_??1ioHashString@@QAE@XZ
__unwindfunclet$??0ioMineWeapon2@@QAE@PAVioBaseChar@@PBUWeaponAttribute@@@Z$14:
  000c3	8b 4d f0	 mov	 ecx, DWORD PTR _this$[ebp]
  000c6	81 c1 b4 0a 00
	00		 add	 ecx, 2740		; 00000ab4H
  000cc	e9 00 00 00 00	 jmp	 ??1?$vector@VioHashString@@V?$allocator@VioHashString@@@std@@@std@@QAE@XZ ; std::vector<ioHashString,std::allocator<ioHashString> >::~vector<ioHashString,std::allocator<ioHashString> >
__unwindfunclet$??0ioMineWeapon2@@QAE@PAVioBaseChar@@PBUWeaponAttribute@@@Z$15:
  000d1	8b 4d f0	 mov	 ecx, DWORD PTR _this$[ebp]
  000d4	81 c1 c4 0a 00
	00		 add	 ecx, 2756		; 00000ac4H
  000da	e9 00 00 00 00	 jmp	 ??1?$vector@VioHashString@@V?$allocator@VioHashString@@@std@@@std@@QAE@XZ ; std::vector<ioHashString,std::allocator<ioHashString> >::~vector<ioHashString,std::allocator<ioHashString> >
__unwindfunclet$??0ioMineWeapon2@@QAE@PAVioBaseChar@@PBUWeaponAttribute@@@Z$16:
  000df	8b 4d f0	 mov	 ecx, DWORD PTR _this$[ebp]
  000e2	81 c1 d4 0a 00
	00		 add	 ecx, 2772		; 00000ad4H
  000e8	ff 25 00 00 00
	00		 jmp	 DWORD PTR __imp_??1ioOrientBox@@QAE@XZ
__unwindfunclet$??0ioMineWeapon2@@QAE@PAVioBaseChar@@PBUWeaponAttribute@@@Z$17:
  000ee	8b 4d f0	 mov	 ecx, DWORD PTR _this$[ebp]
  000f1	81 c1 18 0b 00
	00		 add	 ecx, 2840		; 00000b18H
  000f7	ff 25 00 00 00
	00		 jmp	 DWORD PTR __imp_??1ioOrientBox@@QAE@XZ
__unwindfunclet$??0ioMineWeapon2@@QAE@PAVioBaseChar@@PBUWeaponAttribute@@@Z$18:
  000fd	8b 4d f0	 mov	 ecx, DWORD PTR _this$[ebp]
  00100	81 c1 6c 0b 00
	00		 add	 ecx, 2924		; 00000b6cH
  00106	e9 00 00 00 00	 jmp	 ??1?$vector@UBuffInfoStruct@@V?$allocator@UBuffInfoStruct@@@std@@@std@@QAE@XZ ; std::vector<BuffInfoStruct,std::allocator<BuffInfoStruct> >::~vector<BuffInfoStruct,std::allocator<BuffInfoStruct> >
__unwindfunclet$??0ioMineWeapon2@@QAE@PAVioBaseChar@@PBUWeaponAttribute@@@Z$19:
  0010b	8b 4d f0	 mov	 ecx, DWORD PTR _this$[ebp]
  0010e	81 c1 7c 0b 00
	00		 add	 ecx, 2940		; 00000b7cH
  00114	e9 00 00 00 00	 jmp	 ??1?$vector@UBuffInfoStruct@@V?$allocator@UBuffInfoStruct@@@std@@@std@@QAE@XZ ; std::vector<BuffInfoStruct,std::allocator<BuffInfoStruct> >::~vector<BuffInfoStruct,std::allocator<BuffInfoStruct> >
__unwindfunclet$??0ioMineWeapon2@@QAE@PAVioBaseChar@@PBUWeaponAttribute@@@Z$20:
  00119	8b 4d f0	 mov	 ecx, DWORD PTR _this$[ebp]
  0011c	81 c1 8c 0b 00
	00		 add	 ecx, 2956		; 00000b8cH
  00122	e9 00 00 00 00	 jmp	 ??1?$vector@UBuffInfoStruct@@V?$allocator@UBuffInfoStruct@@@std@@@std@@QAE@XZ ; std::vector<BuffInfoStruct,std::allocator<BuffInfoStruct> >::~vector<BuffInfoStruct,std::allocator<BuffInfoStruct> >
__unwindfunclet$??0ioMineWeapon2@@QAE@PAVioBaseChar@@PBUWeaponAttribute@@@Z$21:
  00127	8b 4d f0	 mov	 ecx, DWORD PTR _this$[ebp]
  0012a	81 c1 a4 0b 00
	00		 add	 ecx, 2980		; 00000ba4H
  00130	ff 25 00 00 00
	00		 jmp	 DWORD PTR __imp_??1ioHashString@@QAE@XZ
__unwindfunclet$??0ioMineWeapon2@@QAE@PAVioBaseChar@@PBUWeaponAttribute@@@Z$22:
  00136	8b 4d f0	 mov	 ecx, DWORD PTR _this$[ebp]
  00139	81 c1 b4 0b 00
	00		 add	 ecx, 2996		; 00000bb4H
  0013f	ff 25 00 00 00
	00		 jmp	 DWORD PTR __imp_??1ioHashString@@QAE@XZ
__unwindfunclet$??0ioMineWeapon2@@QAE@PAVioBaseChar@@PBUWeaponAttribute@@@Z$23:
  00145	8b 4d f0	 mov	 ecx, DWORD PTR _this$[ebp]
  00148	81 c1 d8 0b 00
	00		 add	 ecx, 3032		; 00000bd8H
  0014e	ff 25 00 00 00
	00		 jmp	 DWORD PTR __imp_??1ioHashString@@QAE@XZ
__ehhandler$??0ioMineWeapon2@@QAE@PAVioBaseChar@@PBUWeaponAttribute@@@Z:
  00154	8b 54 24 08	 mov	 edx, DWORD PTR [esp+8]
  00158	8d 42 0c	 lea	 eax, DWORD PTR [edx+12]
  0015b	8b 4a ec	 mov	 ecx, DWORD PTR [edx-20]
  0015e	33 c8		 xor	 ecx, eax
  00160	e8 00 00 00 00	 call	 @__security_check_cookie@4
  00165	b8 00 00 00 00	 mov	 eax, OFFSET __ehfuncinfo$??0ioMineWeapon2@@QAE@PAVioBaseChar@@PBUWeaponAttribute@@@Z
  0016a	e9 00 00 00 00	 jmp	 ___CxxFrameHandler3
text$x	ENDS
??0ioMineWeapon2@@QAE@PAVioBaseChar@@PBUWeaponAttribute@@@Z ENDP ; ioMineWeapon2::ioMineWeapon2
PUBLIC	??_C@_0DC@EGCGNMO@ioMineWeapon?3?3?$HOioMineWeapon?5?9?5Un@ ; `string'
PUBLIC	??1ioMineWeapon2@@UAE@XZ			; ioMineWeapon2::~ioMineWeapon2
EXTRN	__imp_?PrintTimeAndLog@CLog@@QAAXHPADZZ:PROC
EXTRN	__imp_?LOG@@3VCLog@@A:BYTE
;	COMDAT ??_C@_0DC@EGCGNMO@ioMineWeapon?3?3?$HOioMineWeapon?5?9?5Un@
; File d:\lost saga for developer\youtube\tutorial\source\src\lsclient\encryptvalue.h
CONST	SEGMENT
??_C@_0DC@EGCGNMO@ioMineWeapon?3?3?$HOioMineWeapon?5?9?5Un@ DB 'ioMineWea'
	DB	'pon::~ioMineWeapon - UnReleased Resource', 00H ; `string'
CONST	ENDS
;	COMDAT xdata$x
xdata$x	SEGMENT
__ehfuncinfo$??1ioMineWeapon2@@UAE@XZ DD 019930522H
	DD	018H
	DD	FLAT:__unwindtable$??1ioMineWeapon2@@UAE@XZ
	DD	2 DUP(00H)
	DD	2 DUP(00H)
	DD	00H
	DD	01H
__unwindtable$??1ioMineWeapon2@@UAE@XZ DD 0ffffffffH
	DD	FLAT:__unwindfunclet$??1ioMineWeapon2@@UAE@XZ$0
	DD	00H
	DD	FLAT:__unwindfunclet$??1ioMineWeapon2@@UAE@XZ$1
	DD	01H
	DD	FLAT:__unwindfunclet$??1ioMineWeapon2@@UAE@XZ$2
	DD	02H
	DD	FLAT:__unwindfunclet$??1ioMineWeapon2@@UAE@XZ$3
	DD	03H
	DD	FLAT:__unwindfunclet$??1ioMineWeapon2@@UAE@XZ$4
	DD	04H
	DD	FLAT:__unwindfunclet$??1ioMineWeapon2@@UAE@XZ$5
	DD	05H
	DD	FLAT:__unwindfunclet$??1ioMineWeapon2@@UAE@XZ$6
	DD	06H
	DD	FLAT:__unwindfunclet$??1ioMineWeapon2@@UAE@XZ$7
	DD	07H
	DD	FLAT:__unwindfunclet$??1ioMineWeapon2@@UAE@XZ$8
	DD	08H
	DD	FLAT:__unwindfunclet$??1ioMineWeapon2@@UAE@XZ$9
	DD	09H
	DD	FLAT:__unwindfunclet$??1ioMineWeapon2@@UAE@XZ$10
	DD	0aH
	DD	FLAT:__unwindfunclet$??1ioMineWeapon2@@UAE@XZ$11
	DD	0bH
	DD	FLAT:__unwindfunclet$??1ioMineWeapon2@@UAE@XZ$12
	DD	0cH
	DD	FLAT:__unwindfunclet$??1ioMineWeapon2@@UAE@XZ$13
	DD	0dH
	DD	FLAT:__unwindfunclet$??1ioMineWeapon2@@UAE@XZ$14
	DD	0eH
	DD	FLAT:__unwindfunclet$??1ioMineWeapon2@@UAE@XZ$15
	DD	0fH
	DD	FLAT:__unwindfunclet$??1ioMineWeapon2@@UAE@XZ$16
	DD	010H
	DD	FLAT:__unwindfunclet$??1ioMineWeapon2@@UAE@XZ$17
	DD	011H
	DD	FLAT:__unwindfunclet$??1ioMineWeapon2@@UAE@XZ$18
	DD	012H
	DD	FLAT:__unwindfunclet$??1ioMineWeapon2@@UAE@XZ$19
	DD	013H
	DD	FLAT:__unwindfunclet$??1ioMineWeapon2@@UAE@XZ$20
	DD	014H
	DD	FLAT:__unwindfunclet$??1ioMineWeapon2@@UAE@XZ$21
	DD	015H
	DD	FLAT:__unwindfunclet$??1ioMineWeapon2@@UAE@XZ$22
	DD	016H
	DD	FLAT:__unwindfunclet$??1ioMineWeapon2@@UAE@XZ$23
; Function compile flags: /Ogsp
; File d:\lost saga for developer\youtube\tutorial\source\src\lsclient\iomineweapon2.cpp
xdata$x	ENDS
;	COMDAT ??1ioMineWeapon2@@UAE@XZ
_TEXT	SEGMENT
_this$ = -16						; size = 4
__$EHRec$ = -12						; size = 12
??1ioMineWeapon2@@UAE@XZ PROC				; ioMineWeapon2::~ioMineWeapon2, COMDAT
; _this$ = ecx

; 43   : {

  00000	6a 04		 push	 4
  00002	b8 00 00 00 00	 mov	 eax, __ehhandler$??1ioMineWeapon2@@UAE@XZ
  00007	e8 00 00 00 00	 call	 __EH_prolog3
  0000c	8b f1		 mov	 esi, ecx
  0000e	89 75 f0	 mov	 DWORD PTR _this$[ebp], esi
  00011	c7 06 00 00 00
	00		 mov	 DWORD PTR [esi], OFFSET ??_7ioMineWeapon2@@6B@

; 44   : 	if( m_pMine )

  00017	83 be 94 08 00
	00 00		 cmp	 DWORD PTR [esi+2196], 0
  0001e	c7 45 fc 17 00
	00 00		 mov	 DWORD PTR __$EHRec$[ebp+8], 23 ; 00000017H
  00025	74 16		 je	 SHORT $LN1@ioMineWeap

; 45   : 	{
; 46   : 		LOG.PrintTimeAndLog( 0, "ioMineWeapon::~ioMineWeapon - UnReleased Resource" );

  00027	68 00 00 00 00	 push	 OFFSET ??_C@_0DC@EGCGNMO@ioMineWeapon?3?3?$HOioMineWeapon?5?9?5Un@
  0002c	6a 00		 push	 0
  0002e	ff 35 00 00 00
	00		 push	 DWORD PTR __imp_?LOG@@3VCLog@@A
  00034	ff 15 00 00 00
	00		 call	 DWORD PTR __imp_?PrintTimeAndLog@CLog@@QAAXHPADZZ
  0003a	83 c4 0c	 add	 esp, 12			; 0000000cH
$LN1@ioMineWeap:

; 47   : 	}
; 48   : }

  0003d	8b 3d 00 00 00
	00		 mov	 edi, DWORD PTR __imp_??1ioHashString@@QAE@XZ
  00043	8d 8e d8 0b 00
	00		 lea	 ecx, DWORD PTR [esi+3032]
  00049	c6 45 fc 16	 mov	 BYTE PTR __$EHRec$[ebp+8], 22 ; 00000016H
  0004d	ff d7		 call	 edi
  0004f	8d 8e b4 0b 00
	00		 lea	 ecx, DWORD PTR [esi+2996]
  00055	c6 45 fc 15	 mov	 BYTE PTR __$EHRec$[ebp+8], 21 ; 00000015H
  00059	ff d7		 call	 edi
  0005b	8d 8e a4 0b 00
	00		 lea	 ecx, DWORD PTR [esi+2980]
  00061	c6 45 fc 14	 mov	 BYTE PTR __$EHRec$[ebp+8], 20 ; 00000014H
  00065	ff d7		 call	 edi
  00067	8d 8e 8c 0b 00
	00		 lea	 ecx, DWORD PTR [esi+2956]
  0006d	c6 45 fc 13	 mov	 BYTE PTR __$EHRec$[ebp+8], 19 ; 00000013H
  00071	e8 00 00 00 00	 call	 ?_Tidy@?$vector@UBuffInfoStruct@@V?$allocator@UBuffInfoStruct@@@std@@@std@@IAEXXZ ; std::vector<BuffInfoStruct,std::allocator<BuffInfoStruct> >::_Tidy
  00076	8d 8e 7c 0b 00
	00		 lea	 ecx, DWORD PTR [esi+2940]
  0007c	c6 45 fc 12	 mov	 BYTE PTR __$EHRec$[ebp+8], 18 ; 00000012H
  00080	e8 00 00 00 00	 call	 ?_Tidy@?$vector@UBuffInfoStruct@@V?$allocator@UBuffInfoStruct@@@std@@@std@@IAEXXZ ; std::vector<BuffInfoStruct,std::allocator<BuffInfoStruct> >::_Tidy
  00085	8d 8e 6c 0b 00
	00		 lea	 ecx, DWORD PTR [esi+2924]
  0008b	c6 45 fc 11	 mov	 BYTE PTR __$EHRec$[ebp+8], 17 ; 00000011H
  0008f	e8 00 00 00 00	 call	 ?_Tidy@?$vector@UBuffInfoStruct@@V?$allocator@UBuffInfoStruct@@@std@@@std@@IAEXXZ ; std::vector<BuffInfoStruct,std::allocator<BuffInfoStruct> >::_Tidy
  00094	8b 1d 00 00 00
	00		 mov	 ebx, DWORD PTR __imp_??1ioOrientBox@@QAE@XZ
  0009a	8d 8e 18 0b 00
	00		 lea	 ecx, DWORD PTR [esi+2840]
  000a0	c6 45 fc 10	 mov	 BYTE PTR __$EHRec$[ebp+8], 16 ; 00000010H
  000a4	ff d3		 call	 ebx
  000a6	8d 8e d4 0a 00
	00		 lea	 ecx, DWORD PTR [esi+2772]
  000ac	c6 45 fc 0f	 mov	 BYTE PTR __$EHRec$[ebp+8], 15 ; 0000000fH
  000b0	ff d3		 call	 ebx
  000b2	8d 8e c4 0a 00
	00		 lea	 ecx, DWORD PTR [esi+2756]
  000b8	c6 45 fc 0e	 mov	 BYTE PTR __$EHRec$[ebp+8], 14 ; 0000000eH
  000bc	e8 00 00 00 00	 call	 ?_Tidy@?$vector@VioHashString@@V?$allocator@VioHashString@@@std@@@std@@IAEXXZ ; std::vector<ioHashString,std::allocator<ioHashString> >::_Tidy
  000c1	8d 8e b4 0a 00
	00		 lea	 ecx, DWORD PTR [esi+2740]
  000c7	c6 45 fc 0d	 mov	 BYTE PTR __$EHRec$[ebp+8], 13 ; 0000000dH
  000cb	e8 00 00 00 00	 call	 ?_Tidy@?$vector@VioHashString@@V?$allocator@VioHashString@@@std@@@std@@IAEXXZ ; std::vector<ioHashString,std::allocator<ioHashString> >::_Tidy
  000d0	8d 8e a4 0a 00
	00		 lea	 ecx, DWORD PTR [esi+2724]
  000d6	c6 45 fc 0c	 mov	 BYTE PTR __$EHRec$[ebp+8], 12 ; 0000000cH
  000da	ff d7		 call	 edi
  000dc	8d 8e 94 0a 00
	00		 lea	 ecx, DWORD PTR [esi+2708]
  000e2	c6 45 fc 0b	 mov	 BYTE PTR __$EHRec$[ebp+8], 11 ; 0000000bH
  000e6	ff d7		 call	 edi
  000e8	8d 8e 84 0a 00
	00		 lea	 ecx, DWORD PTR [esi+2692]
  000ee	c6 45 fc 0a	 mov	 BYTE PTR __$EHRec$[ebp+8], 10 ; 0000000aH
  000f2	ff d7		 call	 edi
  000f4	8d 8e 74 0a 00
	00		 lea	 ecx, DWORD PTR [esi+2676]
  000fa	c6 45 fc 09	 mov	 BYTE PTR __$EHRec$[ebp+8], 9
  000fe	ff d7		 call	 edi
  00100	bb 00 00 00 00	 mov	 ebx, OFFSET ??_7?$CEncrypt@M@@6B@
  00105	8d 8e 38 0a 00
	00		 lea	 ecx, DWORD PTR [esi+2616]
  0010b	c6 45 fc 08	 mov	 BYTE PTR __$EHRec$[ebp+8], 8
  0010f	89 9e 2c 0a 00
	00		 mov	 DWORD PTR [esi+2604], ebx
  00115	e8 00 00 00 00	 call	 ??1ccddaabb@@UAE@XZ	; ccddaabb::~ccddaabb
  0011a	8d 8e 08 0a 00
	00		 lea	 ecx, DWORD PTR [esi+2568]
  00120	c6 45 fc 07	 mov	 BYTE PTR __$EHRec$[ebp+8], 7
  00124	89 9e fc 09 00
	00		 mov	 DWORD PTR [esi+2556], ebx
  0012a	e8 00 00 00 00	 call	 ??1ccddaabb@@UAE@XZ	; ccddaabb::~ccddaabb
  0012f	8d 8e d0 09 00
	00		 lea	 ecx, DWORD PTR [esi+2512]
  00135	c6 45 fc 06	 mov	 BYTE PTR __$EHRec$[ebp+8], 6
  00139	89 9e c4 09 00
	00		 mov	 DWORD PTR [esi+2500], ebx
  0013f	e8 00 00 00 00	 call	 ??1ccddaabb@@UAE@XZ	; ccddaabb::~ccddaabb
  00144	8d 8e a0 09 00
	00		 lea	 ecx, DWORD PTR [esi+2464]
  0014a	c6 45 fc 05	 mov	 BYTE PTR __$EHRec$[ebp+8], 5
  0014e	89 9e 94 09 00
	00		 mov	 DWORD PTR [esi+2452], ebx
  00154	e8 00 00 00 00	 call	 ??1ccddaabb@@UAE@XZ	; ccddaabb::~ccddaabb
  00159	8d 8e 70 09 00
	00		 lea	 ecx, DWORD PTR [esi+2416]
  0015f	c6 45 fc 04	 mov	 BYTE PTR __$EHRec$[ebp+8], 4
  00163	89 9e 64 09 00
	00		 mov	 DWORD PTR [esi+2404], ebx
  00169	e8 00 00 00 00	 call	 ??1ccddaabb@@UAE@XZ	; ccddaabb::~ccddaabb
  0016e	8d 8e 40 09 00
	00		 lea	 ecx, DWORD PTR [esi+2368]
  00174	c6 45 fc 03	 mov	 BYTE PTR __$EHRec$[ebp+8], 3
  00178	89 9e 34 09 00
	00		 mov	 DWORD PTR [esi+2356], ebx
  0017e	e8 00 00 00 00	 call	 ??1ccddaabb@@UAE@XZ	; ccddaabb::~ccddaabb
  00183	8d 8e 10 09 00
	00		 lea	 ecx, DWORD PTR [esi+2320]
  00189	c6 45 fc 02	 mov	 BYTE PTR __$EHRec$[ebp+8], 2
  0018d	89 9e 04 09 00
	00		 mov	 DWORD PTR [esi+2308], ebx
  00193	e8 00 00 00 00	 call	 ??1ccddaabb@@UAE@XZ	; ccddaabb::~ccddaabb
  00198	8d 8e e0 08 00
	00		 lea	 ecx, DWORD PTR [esi+2272]
  0019e	c6 45 fc 01	 mov	 BYTE PTR __$EHRec$[ebp+8], 1
  001a2	89 9e d4 08 00
	00		 mov	 DWORD PTR [esi+2260], ebx
  001a8	e8 00 00 00 00	 call	 ??1ccddaabb@@UAE@XZ	; ccddaabb::~ccddaabb
  001ad	8d 8e ac 08 00
	00		 lea	 ecx, DWORD PTR [esi+2220]
  001b3	c6 45 fc 00	 mov	 BYTE PTR __$EHRec$[ebp+8], 0
  001b7	ff d7		 call	 edi
  001b9	83 4d fc ff	 or	 DWORD PTR __$EHRec$[ebp+8], -1
  001bd	8b ce		 mov	 ecx, esi
  001bf	e8 00 00 00 00	 call	 ??1ioWeapon@@UAE@XZ	; ioWeapon::~ioWeapon
  001c4	e8 00 00 00 00	 call	 __EH_epilog3
  001c9	c3		 ret	 0
_TEXT	ENDS
;	COMDAT text$x
text$x	SEGMENT
__unwindfunclet$??1ioMineWeapon2@@UAE@XZ$0:
  00000	8b 4d f0	 mov	 ecx, DWORD PTR _this$[ebp]
  00003	e9 00 00 00 00	 jmp	 ??1ioWeapon@@UAE@XZ	; ioWeapon::~ioWeapon
__unwindfunclet$??1ioMineWeapon2@@UAE@XZ$1:
  00008	8b 4d f0	 mov	 ecx, DWORD PTR _this$[ebp]
  0000b	81 c1 ac 08 00
	00		 add	 ecx, 2220		; 000008acH
  00011	ff 25 00 00 00
	00		 jmp	 DWORD PTR __imp_??1ioHashString@@QAE@XZ
__unwindfunclet$??1ioMineWeapon2@@UAE@XZ$2:
  00017	8b 4d f0	 mov	 ecx, DWORD PTR _this$[ebp]
  0001a	81 c1 d4 08 00
	00		 add	 ecx, 2260		; 000008d4H
  00020	e9 00 00 00 00	 jmp	 ??1?$CEncrypt@M@@UAE@XZ	; CEncrypt<float>::~CEncrypt<float>
__unwindfunclet$??1ioMineWeapon2@@UAE@XZ$3:
  00025	8b 4d f0	 mov	 ecx, DWORD PTR _this$[ebp]
  00028	81 c1 04 09 00
	00		 add	 ecx, 2308		; 00000904H
  0002e	e9 00 00 00 00	 jmp	 ??1?$CEncrypt@M@@UAE@XZ	; CEncrypt<float>::~CEncrypt<float>
__unwindfunclet$??1ioMineWeapon2@@UAE@XZ$4:
  00033	8b 4d f0	 mov	 ecx, DWORD PTR _this$[ebp]
  00036	81 c1 34 09 00
	00		 add	 ecx, 2356		; 00000934H
  0003c	e9 00 00 00 00	 jmp	 ??1?$CEncrypt@M@@UAE@XZ	; CEncrypt<float>::~CEncrypt<float>
__unwindfunclet$??1ioMineWeapon2@@UAE@XZ$5:
  00041	8b 4d f0	 mov	 ecx, DWORD PTR _this$[ebp]
  00044	81 c1 64 09 00
	00		 add	 ecx, 2404		; 00000964H
  0004a	e9 00 00 00 00	 jmp	 ??1?$CEncrypt@M@@UAE@XZ	; CEncrypt<float>::~CEncrypt<float>
__unwindfunclet$??1ioMineWeapon2@@UAE@XZ$6:
  0004f	8b 4d f0	 mov	 ecx, DWORD PTR _this$[ebp]
  00052	81 c1 94 09 00
	00		 add	 ecx, 2452		; 00000994H
  00058	e9 00 00 00 00	 jmp	 ??1?$CEncrypt@M@@UAE@XZ	; CEncrypt<float>::~CEncrypt<float>
__unwindfunclet$??1ioMineWeapon2@@UAE@XZ$7:
  0005d	8b 4d f0	 mov	 ecx, DWORD PTR _this$[ebp]
  00060	81 c1 c4 09 00
	00		 add	 ecx, 2500		; 000009c4H
  00066	e9 00 00 00 00	 jmp	 ??1?$CEncrypt@M@@UAE@XZ	; CEncrypt<float>::~CEncrypt<float>
__unwindfunclet$??1ioMineWeapon2@@UAE@XZ$8:
  0006b	8b 4d f0	 mov	 ecx, DWORD PTR _this$[ebp]
  0006e	81 c1 fc 09 00
	00		 add	 ecx, 2556		; 000009fcH
  00074	e9 00 00 00 00	 jmp	 ??1?$CEncrypt@M@@UAE@XZ	; CEncrypt<float>::~CEncrypt<float>
__unwindfunclet$??1ioMineWeapon2@@UAE@XZ$9:
  00079	8b 4d f0	 mov	 ecx, DWORD PTR _this$[ebp]
  0007c	81 c1 2c 0a 00
	00		 add	 ecx, 2604		; 00000a2cH
  00082	e9 00 00 00 00	 jmp	 ??1?$CEncrypt@M@@UAE@XZ	; CEncrypt<float>::~CEncrypt<float>
__unwindfunclet$??1ioMineWeapon2@@UAE@XZ$10:
  00087	8b 4d f0	 mov	 ecx, DWORD PTR _this$[ebp]
  0008a	81 c1 74 0a 00
	00		 add	 ecx, 2676		; 00000a74H
  00090	ff 25 00 00 00
	00		 jmp	 DWORD PTR __imp_??1ioHashString@@QAE@XZ
__unwindfunclet$??1ioMineWeapon2@@UAE@XZ$11:
  00096	8b 4d f0	 mov	 ecx, DWORD PTR _this$[ebp]
  00099	81 c1 84 0a 00
	00		 add	 ecx, 2692		; 00000a84H
  0009f	ff 25 00 00 00
	00		 jmp	 DWORD PTR __imp_??1ioHashString@@QAE@XZ
__unwindfunclet$??1ioMineWeapon2@@UAE@XZ$12:
  000a5	8b 4d f0	 mov	 ecx, DWORD PTR _this$[ebp]
  000a8	81 c1 94 0a 00
	00		 add	 ecx, 2708		; 00000a94H
  000ae	ff 25 00 00 00
	00		 jmp	 DWORD PTR __imp_??1ioHashString@@QAE@XZ
__unwindfunclet$??1ioMineWeapon2@@UAE@XZ$13:
  000b4	8b 4d f0	 mov	 ecx, DWORD PTR _this$[ebp]
  000b7	81 c1 a4 0a 00
	00		 add	 ecx, 2724		; 00000aa4H
  000bd	ff 25 00 00 00
	00		 jmp	 DWORD PTR __imp_??1ioHashString@@QAE@XZ
__unwindfunclet$??1ioMineWeapon2@@UAE@XZ$14:
  000c3	8b 4d f0	 mov	 ecx, DWORD PTR _this$[ebp]
  000c6	81 c1 b4 0a 00
	00		 add	 ecx, 2740		; 00000ab4H
  000cc	e9 00 00 00 00	 jmp	 ??1?$vector@VioHashString@@V?$allocator@VioHashString@@@std@@@std@@QAE@XZ ; std::vector<ioHashString,std::allocator<ioHashString> >::~vector<ioHashString,std::allocator<ioHashString> >
__unwindfunclet$??1ioMineWeapon2@@UAE@XZ$15:
  000d1	8b 4d f0	 mov	 ecx, DWORD PTR _this$[ebp]
  000d4	81 c1 c4 0a 00
	00		 add	 ecx, 2756		; 00000ac4H
  000da	e9 00 00 00 00	 jmp	 ??1?$vector@VioHashString@@V?$allocator@VioHashString@@@std@@@std@@QAE@XZ ; std::vector<ioHashString,std::allocator<ioHashString> >::~vector<ioHashString,std::allocator<ioHashString> >
__unwindfunclet$??1ioMineWeapon2@@UAE@XZ$16:
  000df	8b 4d f0	 mov	 ecx, DWORD PTR _this$[ebp]
  000e2	81 c1 d4 0a 00
	00		 add	 ecx, 2772		; 00000ad4H
  000e8	ff 25 00 00 00
	00		 jmp	 DWORD PTR __imp_??1ioOrientBox@@QAE@XZ
__unwindfunclet$??1ioMineWeapon2@@UAE@XZ$17:
  000ee	8b 4d f0	 mov	 ecx, DWORD PTR _this$[ebp]
  000f1	81 c1 18 0b 00
	00		 add	 ecx, 2840		; 00000b18H
  000f7	ff 25 00 00 00
	00		 jmp	 DWORD PTR __imp_??1ioOrientBox@@QAE@XZ
__unwindfunclet$??1ioMineWeapon2@@UAE@XZ$18:
  000fd	8b 4d f0	 mov	 ecx, DWORD PTR _this$[ebp]
  00100	81 c1 6c 0b 00
	00		 add	 ecx, 2924		; 00000b6cH
  00106	e9 00 00 00 00	 jmp	 ??1?$vector@UBuffInfoStruct@@V?$allocator@UBuffInfoStruct@@@std@@@std@@QAE@XZ ; std::vector<BuffInfoStruct,std::allocator<BuffInfoStruct> >::~vector<BuffInfoStruct,std::allocator<BuffInfoStruct> >
__unwindfunclet$??1ioMineWeapon2@@UAE@XZ$19:
  0010b	8b 4d f0	 mov	 ecx, DWORD PTR _this$[ebp]
  0010e	81 c1 7c 0b 00
	00		 add	 ecx, 2940		; 00000b7cH
  00114	e9 00 00 00 00	 jmp	 ??1?$vector@UBuffInfoStruct@@V?$allocator@UBuffInfoStruct@@@std@@@std@@QAE@XZ ; std::vector<BuffInfoStruct,std::allocator<BuffInfoStruct> >::~vector<BuffInfoStruct,std::allocator<BuffInfoStruct> >
__unwindfunclet$??1ioMineWeapon2@@UAE@XZ$20:
  00119	8b 4d f0	 mov	 ecx, DWORD PTR _this$[ebp]
  0011c	81 c1 8c 0b 00
	00		 add	 ecx, 2956		; 00000b8cH
  00122	e9 00 00 00 00	 jmp	 ??1?$vector@UBuffInfoStruct@@V?$allocator@UBuffInfoStruct@@@std@@@std@@QAE@XZ ; std::vector<BuffInfoStruct,std::allocator<BuffInfoStruct> >::~vector<BuffInfoStruct,std::allocator<BuffInfoStruct> >
__unwindfunclet$??1ioMineWeapon2@@UAE@XZ$21:
  00127	8b 4d f0	 mov	 ecx, DWORD PTR _this$[ebp]
  0012a	81 c1 a4 0b 00
	00		 add	 ecx, 2980		; 00000ba4H
  00130	ff 25 00 00 00
	00		 jmp	 DWORD PTR __imp_??1ioHashString@@QAE@XZ
__unwindfunclet$??1ioMineWeapon2@@UAE@XZ$22:
  00136	8b 4d f0	 mov	 ecx, DWORD PTR _this$[ebp]
  00139	81 c1 b4 0b 00
	00		 add	 ecx, 2996		; 00000bb4H
  0013f	ff 25 00 00 00
	00		 jmp	 DWORD PTR __imp_??1ioHashString@@QAE@XZ
__unwindfunclet$??1ioMineWeapon2@@UAE@XZ$23:
  00145	8b 4d f0	 mov	 ecx, DWORD PTR _this$[ebp]
  00148	81 c1 d8 0b 00
	00		 add	 ecx, 3032		; 00000bd8H
  0014e	ff 25 00 00 00
	00		 jmp	 DWORD PTR __imp_??1ioHashString@@QAE@XZ
__ehhandler$??1ioMineWeapon2@@UAE@XZ:
  00154	8b 54 24 08	 mov	 edx, DWORD PTR [esp+8]
  00158	8d 42 0c	 lea	 eax, DWORD PTR [edx+12]
  0015b	8b 4a ec	 mov	 ecx, DWORD PTR [edx-20]
  0015e	33 c8		 xor	 ecx, eax
  00160	e8 00 00 00 00	 call	 @__security_check_cookie@4
  00165	b8 00 00 00 00	 mov	 eax, OFFSET __ehfuncinfo$??1ioMineWeapon2@@UAE@XZ
  0016a	e9 00 00 00 00	 jmp	 ___CxxFrameHandler3
text$x	ENDS
??1ioMineWeapon2@@UAE@XZ ENDP				; ioMineWeapon2::~ioMineWeapon2
PUBLIC	__real@42480000
PUBLIC	__real@43960000
PUBLIC	??_C@_00CNPNBAHC@?$AA@				; `string'
EXTRN	?GetBuffType@ioBuffMaker@@QBEHABVioHashString@@@Z:PROC ; ioBuffMaker::GetBuffType
EXTRN	?GetSingleton@ioBuffMaker@@SAAAV1@XZ:PROC	; ioBuffMaker::GetSingleton
EXTRN	__imp_??0ioHashString@@QAE@PBD@Z:PROC
EXTRN	__imp__wsprintfA:PROC
EXTRN	__imp_??4ioHashString@@QAEAAV0@PBD@Z:PROC
EXTRN	?LoadProperty@ioWeapon@@UAEXAAVioINILoader@@@Z:PROC ; ioWeapon::LoadProperty
EXTRN	_memset:PROC
;	COMDAT __real@42480000
; File d:\lost saga for developer\youtube\tutorial\source\src\lsclient\weaponattribute.h
CONST	SEGMENT
__real@42480000 DD 042480000r			; 50
CONST	ENDS
;	COMDAT __real@43960000
CONST	SEGMENT
__real@43960000 DD 043960000r			; 300
CONST	ENDS
;	COMDAT ??_C@_00CNPNBAHC@?$AA@
CONST	SEGMENT
??_C@_00CNPNBAHC@?$AA@ DB 00H				; `string'
CONST	ENDS
;	COMDAT xdata$x
xdata$x	SEGMENT
__ehfuncinfo$?LoadProperty@ioMineWeapon2@@UAEXAAVioINILoader@@@Z DD 019930522H
	DD	05H
	DD	FLAT:__unwindtable$?LoadProperty@ioMineWeapon2@@UAEXAAVioINILoader@@@Z
	DD	2 DUP(00H)
	DD	2 DUP(00H)
	DD	00H
	DD	01H
__unwindtable$?LoadProperty@ioMineWeapon2@@UAEXAAVioINILoader@@@Z DD 0ffffffffH
	DD	FLAT:__unwindfunclet$?LoadProperty@ioMineWeapon2@@UAEXAAVioINILoader@@@Z$0
	DD	0ffffffffH
	DD	FLAT:__unwindfunclet$?LoadProperty@ioMineWeapon2@@UAEXAAVioINILoader@@@Z$1
	DD	0ffffffffH
	DD	FLAT:__unwindfunclet$?LoadProperty@ioMineWeapon2@@UAEXAAVioINILoader@@@Z$2
	DD	0ffffffffH
	DD	FLAT:__unwindfunclet$?LoadProperty@ioMineWeapon2@@UAEXAAVioINILoader@@@Z$3
	DD	0ffffffffH
	DD	FLAT:__unwindfunclet$?LoadProperty@ioMineWeapon2@@UAEXAAVioINILoader@@@Z$4
; Function compile flags: /Ogsp
; File d:\lost saga for developer\youtube\tutorial\source\src\lsclient\iomineweapon2.cpp
xdata$x	ENDS
;	COMDAT ?LoadProperty@ioMineWeapon2@@UAEXAAVioINILoader@@@Z
_TEXT	SEGMENT
$T541266 = -1592					; size = 16
$T541265 = -1576					; size = 16
_tBuffInfo$531487 = -1560				; size = 20
_tBuffInfo$531326 = -1540				; size = 20
_tBuffInfo$531652 = -1520				; size = 20
tv37189 = -1500						; size = 4
tv31374 = -1500						; size = 4
tv31297 = -1500						; size = 4
tv31204 = -1500						; size = 4
_iEnemyCnt$ = -1500					; size = 4
_i$542931 = -1496					; size = 4
_i$542321 = -1496					; size = 4
_iTeamCnt$ = -1496					; size = 4
tv37261 = -1492						; size = 4
tv37185 = -1492						; size = 4
tv37181 = -1492						; size = 4
tv29526 = -1492						; size = 4
$T544092 = -1492					; size = 4
$T542039 = -1492					; size = 4
$T541959 = -1492					; size = 4
_iDownCount$ = -1492					; size = 4
_iCount$ = -1492					; size = 4
_iAirCount$ = -1492					; size = 4
_szKey$ = -1488						; size = 260
_szBuf$ = -1228						; size = 260
__k$545903 = -968					; size = 25
__k$543243 = -936					; size = 21
__k$542215 = -908					; size = 21
__k$544983 = -880					; size = 21
__k$543350 = -852					; size = 21
__k$542721 = -824					; size = 17
__k$544233 = -800					; size = 27
__k$545608 = -768					; size = 24
___encStr$531503 = -740					; size = 23
___encStr$531177 = -712					; size = 22
__k$544108 = -684					; size = 22
__k$541800 = -656					; size = 20
__k$544358 = -632					; size = 20
__k$545749 = -608					; size = 20
__k$542085 = -584					; size = 20
__k$541662 = -560					; size = 19
__k$545358 = -536					; size = 19
___encStr$530907 = -512					; size = 19
__k$543725 = -488					; size = 19
__k$542988 = -464					; size = 19
__k$543113 = -440					; size = 19
__k$545233 = -416					; size = 19
__k$545483 = -392					; size = 18
___encStr$531338 = -368					; size = 18
___encStr$530750 = -344					; size = 18
__k$544608 = -320					; size = 18
__k$544733 = -296					; size = 16
__k$545121 = -276					; size = 16
__k$541387 = -256					; size = 16
__k$542471 = -236					; size = 16
__k$543975 = -216					; size = 16
__k$542346 = -196					; size = 15
__k$542596 = -176					; size = 15
__k$543881 = -156					; size = 15
__k$541412 = -136					; size = 15
__k$542850 = -116					; size = 15
__k$543488 = -96					; size = 12
__k$541537 = -80					; size = 12
__k$543600 = -64					; size = 12
__k$544902 = -48					; size = 11
__k$544483 = -32					; size = 10
__$EHRec$ = -12						; size = 12
_rkLoader$ = 8						; size = 4
?LoadProperty@ioMineWeapon2@@UAEXAAVioINILoader@@@Z PROC ; ioMineWeapon2::LoadProperty, COMDAT
; _this$ = ecx

; 51   : {

  00000	68 2c 06 00 00	 push	 1580			; 0000062cH
  00005	b8 00 00 00 00	 mov	 eax, __ehhandler$?LoadProperty@ioMineWeapon2@@UAEXAAVioINILoader@@@Z
  0000a	e8 00 00 00 00	 call	 __EH_prolog3_GS
  0000f	8b 7d 08	 mov	 edi, DWORD PTR _rkLoader$[ebp]

; 52   : 	ioWeapon::LoadProperty( rkLoader );

  00012	57		 push	 edi
  00013	8b f1		 mov	 esi, ecx
  00015	e8 00 00 00 00	 call	 ?LoadProperty@ioWeapon@@UAEXAAVioINILoader@@@Z ; ioWeapon::LoadProperty

; 53   : 
; 54   : 	char szBuf[MAX_PATH] = "";

  0001a	33 db		 xor	 ebx, ebx
  0001c	68 03 01 00 00	 push	 259			; 00000103H
  00021	8d 85 35 fb ff
	ff		 lea	 eax, DWORD PTR _szBuf$[ebp+1]
  00027	53		 push	 ebx
  00028	50		 push	 eax
  00029	88 9d 34 fb ff
	ff		 mov	 BYTE PTR _szBuf$[ebp], bl
  0002f	e8 00 00 00 00	 call	 _memset

; 55   : 	char szKey[MAX_PATH] = "";

  00034	68 03 01 00 00	 push	 259			; 00000103H
  00039	8d 85 31 fa ff
	ff		 lea	 eax, DWORD PTR _szKey$[ebp+1]
  0003f	53		 push	 ebx
  00040	50		 push	 eax
  00041	88 9d 30 fa ff
	ff		 mov	 BYTE PTR _szKey$[ebp], bl
  00047	e8 00 00 00 00	 call	 _memset
  0004c	83 c4 18	 add	 esp, 24			; 00000018H

; 56   : 
; 57   : 	rkLoader.LoadString_e( "blue_mine_model", "", szBuf, MAX_PATH );

  0004f	6a 03		 push	 3
  00051	c7 85 00 ff ff
	ff 8f 80 9e 8f	 mov	 DWORD PTR __k$541387[ebp], -1885437809 ; 8f9e808fH
  0005b	c7 85 04 ff ff
	ff b2 81 82 84	 mov	 DWORD PTR __k$541387[ebp+4], -2071821902 ; 848281b2H
  00065	c7 85 08 ff ff
	ff 88 b3 86 85	 mov	 DWORD PTR __k$541387[ebp+8], -2054769784 ; 8586b388H
  0006f	8d 85 00 ff ff
	ff		 lea	 eax, DWORD PTR __k$541387[ebp]
  00075	c7 85 0c ff ff
	ff 89 89 87 00	 mov	 DWORD PTR __k$541387[ebp+12], 8882569 ; 00878989H
  0007f	59		 pop	 ecx
$LL630@LoadProper:
  00080	81 30 ed ec eb
	ea		 xor	 DWORD PTR [eax], -353637139 ; eaebecedH
  00086	83 c0 04	 add	 eax, 4
  00089	49		 dec	 ecx
  0008a	75 f4		 jne	 SHORT $LL630@LoadProper
  0008c	6a 0c		 push	 12			; 0000000cH
  0008e	58		 pop	 eax
$LL627@LoadProper:
  0008f	8b c8		 mov	 ecx, eax
  00091	81 e1 03 00 00
	80		 and	 ecx, -2147483645	; 80000003H
  00097	79 05		 jns	 SHORT $LN4612@LoadProper
  00099	49		 dec	 ecx
  0009a	83 c9 fc	 or	 ecx, -4			; fffffffcH
  0009d	41		 inc	 ecx
$LN4612@LoadProper:
  0009e	b2 ed		 mov	 dl, -19			; ffffffedH
  000a0	2a d1		 sub	 dl, cl
  000a2	30 94 05 00 ff
	ff ff		 xor	 BYTE PTR __k$541387[ebp+eax], dl
  000a9	40		 inc	 eax
  000aa	83 f8 0f	 cmp	 eax, 15			; 0000000fH
  000ad	7c e0		 jl	 SHORT $LL627@LoadProper
  000af	68 04 01 00 00	 push	 260			; 00000104H
  000b4	8d 85 34 fb ff
	ff		 lea	 eax, DWORD PTR _szBuf$[ebp]
  000ba	50		 push	 eax
  000bb	68 00 00 00 00	 push	 OFFSET ??_C@_00CNPNBAHC@?$AA@
  000c0	8d 85 00 ff ff
	ff		 lea	 eax, DWORD PTR __k$541387[ebp]
  000c6	50		 push	 eax
  000c7	8b cf		 mov	 ecx, edi
  000c9	ff 15 00 00 00
	00		 call	 DWORD PTR __imp_?LoadStringA@ioINILoader@@QAEXPBD0PADH@Z

; 58   : 	m_BlueMineModel = szBuf;

  000cf	8d 85 34 fb ff
	ff		 lea	 eax, DWORD PTR _szBuf$[ebp]
  000d5	50		 push	 eax
  000d6	8d 8e 74 0a 00
	00		 lea	 ecx, DWORD PTR [esi+2676]
  000dc	ff 15 00 00 00
	00		 call	 DWORD PTR __imp_??4ioHashString@@QAEAAV0@PBD@Z
  000e2	6a 03		 push	 3

; 59   : 	rkLoader.LoadString_e( "red_mine_model", "", szBuf, MAX_PATH );

  000e4	c7 85 78 ff ff
	ff 9f 89 8f b5	 mov	 DWORD PTR __k$541412[ebp], -1248884321 ; b58f899fH
  000ee	c7 85 7c ff ff
	ff 80 85 85 8f	 mov	 DWORD PTR __k$541412[ebp+4], -1887074944 ; 8f858580H
  000f8	c7 45 80 b2 81
	84 8e		 mov	 DWORD PTR __k$541412[ebp+8], -1903918670 ; 8e8481b2H
  000ff	66 c7 45 84 88
	80		 mov	 WORD PTR __k$541412[ebp+12], 32904 ; 00008088H
  00105	8d 85 78 ff ff
	ff		 lea	 eax, DWORD PTR __k$541412[ebp]
  0010b	88 5d 86	 mov	 BYTE PTR __k$541412[ebp+14], bl
  0010e	59		 pop	 ecx
$LL736@LoadProper:
  0010f	81 30 ed ec eb
	ea		 xor	 DWORD PTR [eax], -353637139 ; eaebecedH
  00115	83 c0 04	 add	 eax, 4
  00118	49		 dec	 ecx
  00119	75 f4		 jne	 SHORT $LL736@LoadProper
  0011b	6a 0c		 push	 12			; 0000000cH
  0011d	58		 pop	 eax
$LL733@LoadProper:
  0011e	8b c8		 mov	 ecx, eax
  00120	81 e1 03 00 00
	80		 and	 ecx, -2147483645	; 80000003H
  00126	79 05		 jns	 SHORT $LN4613@LoadProper
  00128	49		 dec	 ecx
  00129	83 c9 fc	 or	 ecx, -4			; fffffffcH
  0012c	41		 inc	 ecx
$LN4613@LoadProper:
  0012d	b2 ed		 mov	 dl, -19			; ffffffedH
  0012f	2a d1		 sub	 dl, cl
  00131	30 94 05 78 ff
	ff ff		 xor	 BYTE PTR __k$541412[ebp+eax], dl
  00138	40		 inc	 eax
  00139	83 f8 0e	 cmp	 eax, 14			; 0000000eH
  0013c	7c e0		 jl	 SHORT $LL733@LoadProper
  0013e	68 04 01 00 00	 push	 260			; 00000104H
  00143	8d 85 34 fb ff
	ff		 lea	 eax, DWORD PTR _szBuf$[ebp]
  00149	50		 push	 eax
  0014a	68 00 00 00 00	 push	 OFFSET ??_C@_00CNPNBAHC@?$AA@
  0014f	8d 85 78 ff ff
	ff		 lea	 eax, DWORD PTR __k$541412[ebp]
  00155	50		 push	 eax
  00156	8b cf		 mov	 ecx, edi
  00158	ff 15 00 00 00
	00		 call	 DWORD PTR __imp_?LoadStringA@ioINILoader@@QAEXPBD0PADH@Z

; 60   : 	m_RedMineModel = szBuf;

  0015e	8d 85 34 fb ff
	ff		 lea	 eax, DWORD PTR _szBuf$[ebp]
  00164	50		 push	 eax
  00165	8d 8e 84 0a 00
	00		 lea	 ecx, DWORD PTR [esi+2692]
  0016b	ff 15 00 00 00
	00		 call	 DWORD PTR __imp_??4ioHashString@@QAEAAV0@PBD@Z
  00171	6a 02		 push	 2

; 61   : 	rkLoader.LoadString_e( "boom_effect", "", szBuf, MAX_PATH );

  00173	c7 45 b0 8f 83
	84 87		 mov	 DWORD PTR __k$541537[ebp], -2021358705 ; 8784838fH
  0017a	c7 45 b4 b2 89
	8d 8c		 mov	 DWORD PTR __k$541537[ebp+4], -1936881230 ; 8c8d89b2H
  00181	8d 45 b0	 lea	 eax, DWORD PTR __k$541537[ebp]
  00184	c7 45 b8 88 8f
	9f 00		 mov	 DWORD PTR __k$541537[ebp+8], 10456968 ; 009f8f88H
  0018b	59		 pop	 ecx
$LL842@LoadProper:
  0018c	81 30 ed ec eb
	ea		 xor	 DWORD PTR [eax], -353637139 ; eaebecedH
  00192	83 c0 04	 add	 eax, 4
  00195	49		 dec	 ecx
  00196	75 f4		 jne	 SHORT $LL842@LoadProper
  00198	6a 08		 push	 8
  0019a	58		 pop	 eax
$LL839@LoadProper:
  0019b	8b c8		 mov	 ecx, eax
  0019d	81 e1 03 00 00
	80		 and	 ecx, -2147483645	; 80000003H
  001a3	79 05		 jns	 SHORT $LN4614@LoadProper
  001a5	49		 dec	 ecx
  001a6	83 c9 fc	 or	 ecx, -4			; fffffffcH
  001a9	41		 inc	 ecx
$LN4614@LoadProper:
  001aa	b2 ed		 mov	 dl, -19			; ffffffedH
  001ac	2a d1		 sub	 dl, cl
  001ae	30 54 05 b0	 xor	 BYTE PTR __k$541537[ebp+eax], dl
  001b2	40		 inc	 eax
  001b3	83 f8 0b	 cmp	 eax, 11			; 0000000bH
  001b6	7c e3		 jl	 SHORT $LL839@LoadProper
  001b8	68 04 01 00 00	 push	 260			; 00000104H
  001bd	8d 85 34 fb ff
	ff		 lea	 eax, DWORD PTR _szBuf$[ebp]
  001c3	50		 push	 eax
  001c4	68 00 00 00 00	 push	 OFFSET ??_C@_00CNPNBAHC@?$AA@
  001c9	8d 45 b0	 lea	 eax, DWORD PTR __k$541537[ebp]
  001cc	50		 push	 eax
  001cd	8b cf		 mov	 ecx, edi
  001cf	ff 15 00 00 00
	00		 call	 DWORD PTR __imp_?LoadStringA@ioINILoader@@QAEXPBD0PADH@Z

; 62   : 	m_BoomEffect = szBuf;

  001d5	8d 85 34 fb ff
	ff		 lea	 eax, DWORD PTR _szBuf$[ebp]
  001db	50		 push	 eax
  001dc	8d 8e 94 0a 00
	00		 lea	 ecx, DWORD PTR [esi+2708]
  001e2	ff 15 00 00 00
	00		 call	 DWORD PTR __imp_??4ioHashString@@QAEAAV0@PBD@Z
  001e8	6a 04		 push	 4

; 63   : 	rkLoader.LoadString_e( "normal_dead_effect", "", szBuf, MAX_PATH );

  001ea	c7 85 d0 fd ff
	ff 83 83 99 87	 mov	 DWORD PTR __k$541662[ebp], -2019982461 ; 87998383H
  001f4	c7 85 d4 fd ff
	ff 8c 80 b4 8e	 mov	 DWORD PTR __k$541662[ebp+4], -1900773236 ; 8eb4808cH
  001fe	c7 85 d8 fd ff
	ff 88 8d 8f b5	 mov	 DWORD PTR __k$541662[ebp+8], -1248883320 ; b58f8d88H
  00208	c7 85 dc fd ff
	ff 88 8a 8d 8f	 mov	 DWORD PTR __k$541662[ebp+12], -1886549368 ; 8f8d8a88H
  00212	66 c7 85 e0 fd
	ff ff 8e 98	 mov	 WORD PTR __k$541662[ebp+16], 39054 ; 0000988eH
  0021b	8d 85 d0 fd ff
	ff		 lea	 eax, DWORD PTR __k$541662[ebp]
  00221	88 9d e2 fd ff
	ff		 mov	 BYTE PTR __k$541662[ebp+18], bl
  00227	59		 pop	 ecx
$LL948@LoadProper:
  00228	81 30 ed ec eb
	ea		 xor	 DWORD PTR [eax], -353637139 ; eaebecedH
  0022e	83 c0 04	 add	 eax, 4
  00231	49		 dec	 ecx
  00232	75 f4		 jne	 SHORT $LL948@LoadProper
  00234	6a 10		 push	 16			; 00000010H
  00236	58		 pop	 eax
$LL945@LoadProper:
  00237	8b c8		 mov	 ecx, eax
  00239	81 e1 03 00 00
	80		 and	 ecx, -2147483645	; 80000003H
  0023f	79 05		 jns	 SHORT $LN4615@LoadProper
  00241	49		 dec	 ecx
  00242	83 c9 fc	 or	 ecx, -4			; fffffffcH
  00245	41		 inc	 ecx
$LN4615@LoadProper:
  00246	b2 ed		 mov	 dl, -19			; ffffffedH
  00248	2a d1		 sub	 dl, cl
  0024a	30 94 05 d0 fd
	ff ff		 xor	 BYTE PTR __k$541662[ebp+eax], dl
  00251	40		 inc	 eax
  00252	83 f8 12	 cmp	 eax, 18			; 00000012H
  00255	7c e0		 jl	 SHORT $LL945@LoadProper
  00257	68 04 01 00 00	 push	 260			; 00000104H
  0025c	8d 85 34 fb ff
	ff		 lea	 eax, DWORD PTR _szBuf$[ebp]
  00262	50		 push	 eax
  00263	68 00 00 00 00	 push	 OFFSET ??_C@_00CNPNBAHC@?$AA@
  00268	8d 85 d0 fd ff
	ff		 lea	 eax, DWORD PTR __k$541662[ebp]
  0026e	50		 push	 eax
  0026f	8b cf		 mov	 ecx, edi
  00271	ff 15 00 00 00
	00		 call	 DWORD PTR __imp_?LoadStringA@ioINILoader@@QAEXPBD0PADH@Z

; 64   : 	m_NormalDeadEffect = szBuf;

  00277	8d 85 34 fb ff
	ff		 lea	 eax, DWORD PTR _szBuf$[ebp]
  0027d	50		 push	 eax
  0027e	8d 8e a4 0a 00
	00		 lea	 ecx, DWORD PTR [esi+2724]
  00284	ff 15 00 00 00
	00		 call	 DWORD PTR __imp_??4ioHashString@@QAEAAV0@PBD@Z
  0028a	6a 04		 push	 4

; 65   : 
; 66   : 	m_bTeamModel = rkLoader.LoadBool_e( "use_team_mine_model", false );

  0028c	c7 85 70 fd ff
	ff 98 9f 8e b5	 mov	 DWORD PTR __k$541800[ebp], -1248944232 ; b58e9f98H
  00296	c7 85 74 fd ff
	ff 99 89 8a 87	 mov	 DWORD PTR __k$541800[ebp+4], -2020963943 ; 878a8999H
  002a0	c7 85 78 fd ff
	ff b2 81 82 84	 mov	 DWORD PTR __k$541800[ebp+8], -2071821902 ; 848281b2H
  002aa	c7 85 7c fd ff
	ff 88 b3 86 85	 mov	 DWORD PTR __k$541800[ebp+12], -2054769784 ; 8586b388H
  002b4	8d 85 70 fd ff
	ff		 lea	 eax, DWORD PTR __k$541800[ebp]
  002ba	c7 85 80 fd ff
	ff 89 89 87 00	 mov	 DWORD PTR __k$541800[ebp+16], 8882569 ; 00878989H
  002c4	59		 pop	 ecx
$LL1054@LoadProper:
  002c5	81 30 ed ec eb
	ea		 xor	 DWORD PTR [eax], -353637139 ; eaebecedH
  002cb	83 c0 04	 add	 eax, 4
  002ce	49		 dec	 ecx
  002cf	75 f4		 jne	 SHORT $LL1054@LoadProper
  002d1	6a 10		 push	 16			; 00000010H
  002d3	58		 pop	 eax
$LL1051@LoadProper:
  002d4	8b c8		 mov	 ecx, eax
  002d6	81 e1 03 00 00
	80		 and	 ecx, -2147483645	; 80000003H
  002dc	79 05		 jns	 SHORT $LN4616@LoadProper
  002de	49		 dec	 ecx
  002df	83 c9 fc	 or	 ecx, -4			; fffffffcH
  002e2	41		 inc	 ecx
$LN4616@LoadProper:
  002e3	b2 ed		 mov	 dl, -19			; ffffffedH
  002e5	2a d1		 sub	 dl, cl
  002e7	30 94 05 70 fd
	ff ff		 xor	 BYTE PTR __k$541800[ebp+eax], dl
  002ee	40		 inc	 eax
  002ef	83 f8 13	 cmp	 eax, 19			; 00000013H
  002f2	7c e0		 jl	 SHORT $LL1051@LoadProper
  002f4	53		 push	 ebx
  002f5	8d 85 70 fd ff
	ff		 lea	 eax, DWORD PTR __k$541800[ebp]
  002fb	50		 push	 eax
  002fc	8b cf		 mov	 ecx, edi
  002fe	ff 15 00 00 00
	00		 call	 DWORD PTR __imp_?LoadBool@ioINILoader@@QAE_NPBD_N@Z
  00304	88 86 5d 0b 00
	00		 mov	 BYTE PTR [esi+2909], al

; 67   : 
; 68   : 	m_vTeamModelList.clear();

  0030a	8d 8e b4 0a 00
	00		 lea	 ecx, DWORD PTR [esi+2740]
  00310	8b 41 04	 mov	 eax, DWORD PTR [ecx+4]
  00313	8b 11		 mov	 edx, DWORD PTR [ecx]
  00315	50		 push	 eax
  00316	52		 push	 edx
  00317	8d 85 2c fa ff
	ff		 lea	 eax, DWORD PTR $T541959[ebp]
  0031d	50		 push	 eax
  0031e	e8 00 00 00 00	 call	 ?erase@?$vector@VioHashString@@V?$allocator@VioHashString@@@std@@@std@@QAE?AV?$_Vector_iterator@V?$_Vector_val@VioHashString@@V?$allocator@VioHashString@@@std@@@std@@@2@V?$_Vector_const_iterator@V?$_Vector_val@VioHashString@@V?$allocator@VioHashString@@@std@@@std@@@2@0@Z ; std::vector<ioHashString,std::allocator<ioHashString> >::erase

; 69   : 	m_vEnemyModelList.clear();

  00323	8d 8e c4 0a 00
	00		 lea	 ecx, DWORD PTR [esi+2756]
  00329	8b 41 04	 mov	 eax, DWORD PTR [ecx+4]
  0032c	8b 11		 mov	 edx, DWORD PTR [ecx]
  0032e	50		 push	 eax
  0032f	52		 push	 edx
  00330	8d 85 2c fa ff
	ff		 lea	 eax, DWORD PTR $T542039[ebp]
  00336	50		 push	 eax
  00337	e8 00 00 00 00	 call	 ?erase@?$vector@VioHashString@@V?$allocator@VioHashString@@@std@@@std@@QAE?AV?$_Vector_iterator@V?$_Vector_val@VioHashString@@V?$allocator@VioHashString@@@std@@@std@@@2@V?$_Vector_const_iterator@V?$_Vector_val@VioHashString@@V?$allocator@VioHashString@@@std@@@std@@@2@0@Z ; std::vector<ioHashString,std::allocator<ioHashString> >::erase
  0033c	6a 04		 push	 4

; 70   : 
; 71   : 	int iTeamCnt = rkLoader.LoadInt_e( "team_mine_model_cnt", 0 );

  0033e	c7 85 b8 fd ff
	ff 99 89 8a 87	 mov	 DWORD PTR __k$542085[ebp], -2020963943 ; 878a8999H
  00348	c7 85 bc fd ff
	ff b2 81 82 84	 mov	 DWORD PTR __k$542085[ebp+4], -2071821902 ; 848281b2H
  00352	c7 85 c0 fd ff
	ff 88 b3 86 85	 mov	 DWORD PTR __k$542085[ebp+8], -2054769784 ; 8586b388H
  0035c	c7 85 c4 fd ff
	ff 89 89 87 b5	 mov	 DWORD PTR __k$542085[ebp+12], -1249408631 ; b5878989H
  00366	8d 85 b8 fd ff
	ff		 lea	 eax, DWORD PTR __k$542085[ebp]
  0036c	c7 85 c8 fd ff
	ff 8e 82 9f 00	 mov	 DWORD PTR __k$542085[ebp+16], 10453646 ; 009f828eH
  00376	59		 pop	 ecx
$LL1196@LoadProper:
  00377	81 30 ed ec eb
	ea		 xor	 DWORD PTR [eax], -353637139 ; eaebecedH
  0037d	83 c0 04	 add	 eax, 4
  00380	49		 dec	 ecx
  00381	75 f4		 jne	 SHORT $LL1196@LoadProper
  00383	6a 10		 push	 16			; 00000010H
  00385	58		 pop	 eax
$LL1193@LoadProper:
  00386	8b c8		 mov	 ecx, eax
  00388	81 e1 03 00 00
	80		 and	 ecx, -2147483645	; 80000003H
  0038e	79 05		 jns	 SHORT $LN4617@LoadProper
  00390	49		 dec	 ecx
  00391	83 c9 fc	 or	 ecx, -4			; fffffffcH
  00394	41		 inc	 ecx
$LN4617@LoadProper:
  00395	b2 ed		 mov	 dl, -19			; ffffffedH
  00397	2a d1		 sub	 dl, cl
  00399	30 94 05 b8 fd
	ff ff		 xor	 BYTE PTR __k$542085[ebp+eax], dl
  003a0	40		 inc	 eax
  003a1	83 f8 13	 cmp	 eax, 19			; 00000013H
  003a4	7c e0		 jl	 SHORT $LL1193@LoadProper
  003a6	53		 push	 ebx
  003a7	8d 85 b8 fd ff
	ff		 lea	 eax, DWORD PTR __k$542085[ebp]
  003ad	50		 push	 eax
  003ae	8b cf		 mov	 ecx, edi
  003b0	ff 15 00 00 00
	00		 call	 DWORD PTR __imp_?LoadInt@ioINILoader@@QAEHPBDH@Z
  003b6	6a 05		 push	 5
  003b8	89 85 28 fa ff
	ff		 mov	 DWORD PTR _iTeamCnt$[ebp], eax

; 72   : 	int iEnemyCnt = rkLoader.LoadInt_e( "enemy_mine_model_cnt", 0 );

  003be	c7 85 74 fc ff
	ff 88 82 8e 87	 mov	 DWORD PTR __k$542215[ebp], -2020703608 ; 878e8288H
  003c8	c7 85 78 fc ff
	ff 94 b3 86 83	 mov	 DWORD PTR __k$542215[ebp+4], -2088324204 ; 8386b394H
  003d2	c7 85 7c fc ff
	ff 83 89 b4 87	 mov	 DWORD PTR __k$542215[ebp+8], -2018211453 ; 87b48983H
  003dc	c7 85 80 fc ff
	ff 82 88 8e 86	 mov	 DWORD PTR __k$542215[ebp+12], -2037479294 ; 868e8882H
  003e6	c7 85 84 fc ff
	ff b2 8f 85 9e	 mov	 DWORD PTR __k$542215[ebp+16], -1635414094 ; 9e858fb2H
  003f0	8d 85 74 fc ff
	ff		 lea	 eax, DWORD PTR __k$542215[ebp]
  003f6	88 9d 88 fc ff
	ff		 mov	 BYTE PTR __k$542215[ebp+20], bl
  003fc	59		 pop	 ecx
$LL1302@LoadProper:
  003fd	81 30 ed ec eb
	ea		 xor	 DWORD PTR [eax], -353637139 ; eaebecedH
  00403	83 c0 04	 add	 eax, 4
  00406	49		 dec	 ecx
  00407	75 f4		 jne	 SHORT $LL1302@LoadProper
  00409	53		 push	 ebx
  0040a	8d 85 74 fc ff
	ff		 lea	 eax, DWORD PTR __k$542215[ebp]
  00410	50		 push	 eax
  00411	8b cf		 mov	 ecx, edi
  00413	ff 15 00 00 00
	00		 call	 DWORD PTR __imp_?LoadInt@ioINILoader@@QAEHPBDH@Z
  00419	89 85 24 fa ff
	ff		 mov	 DWORD PTR _iEnemyCnt$[ebp], eax

; 73   : 
; 74   : 	if( iTeamCnt > 0 )

  0041f	39 9d 28 fa ff
	ff		 cmp	 DWORD PTR _iTeamCnt$[ebp], ebx
  00425	7e 11		 jle	 SHORT $LN519@LoadProper

; 75   : 		m_vTeamModelList.reserve( iTeamCnt );

  00427	ff b5 28 fa ff
	ff		 push	 DWORD PTR _iTeamCnt$[ebp]
  0042d	8d 8e b4 0a 00
	00		 lea	 ecx, DWORD PTR [esi+2740]
  00433	e8 00 00 00 00	 call	 ?reserve@?$vector@VioHashString@@V?$allocator@VioHashString@@@std@@@std@@QAEXI@Z ; std::vector<ioHashString,std::allocator<ioHashString> >::reserve
$LN519@LoadProper:

; 76   : 
; 77   : 	if( iEnemyCnt > 0 )

  00438	39 9d 24 fa ff
	ff		 cmp	 DWORD PTR _iEnemyCnt$[ebp], ebx
  0043e	7e 11		 jle	 SHORT $LN518@LoadProper

; 78   : 		m_vEnemyModelList.reserve( iEnemyCnt );

  00440	ff b5 24 fa ff
	ff		 push	 DWORD PTR _iEnemyCnt$[ebp]
  00446	8d 8e c4 0a 00
	00		 lea	 ecx, DWORD PTR [esi+2756]
  0044c	e8 00 00 00 00	 call	 ?reserve@?$vector@VioHashString@@V?$allocator@VioHashString@@@std@@@std@@QAEXI@Z ; std::vector<ioHashString,std::allocator<ioHashString> >::reserve
$LN518@LoadProper:

; 79   : 
; 80   : 	if( m_bTeamModel )

  00451	38 9e 5d 0b 00
	00		 cmp	 BYTE PTR [esi+2909], bl
  00457	0f 84 ff 01 00
	00		 je	 $LN412@LoadProper

; 81   : 	{
; 82   : 		int i = 0;
; 83   : 		for( i=0; i < iTeamCnt; ++i )

  0045d	33 c9		 xor	 ecx, ecx
  0045f	39 9d 28 fa ff
	ff		 cmp	 DWORD PTR _iTeamCnt$[ebp], ebx
  00465	0f 8e d2 00 00
	00		 jle	 $LN514@LoadProper
$LL516@LoadProper:

; 84   : 		{
; 85   : 			wsprintf_e( szKey, "team_mine_model%d", i+1 );

  0046b	6a 04		 push	 4
  0046d	c7 85 a8 fe ff
	ff 99 89 8a 87	 mov	 DWORD PTR ___encStr$530750[ebp], -2020963943 ; 878a8999H
  00477	c7 85 ac fe ff
	ff b2 81 82 84	 mov	 DWORD PTR ___encStr$530750[ebp+4], -2071821902 ; 848281b2H
  00481	c7 85 b0 fe ff
	ff 88 b3 86 85	 mov	 DWORD PTR ___encStr$530750[ebp+8], -2054769784 ; 8586b388H
  0048b	c7 85 b4 fe ff
	ff 89 89 87 cf	 mov	 DWORD PTR ___encStr$530750[ebp+12], -813201015 ; cf878989H
  00495	8d 85 a8 fe ff
	ff		 lea	 eax, DWORD PTR ___encStr$530750[ebp]
  0049b	66 c7 85 b8 fe
	ff ff 89 00	 mov	 WORD PTR ___encStr$530750[ebp+16], 137 ; 00000089H
  004a4	5a		 pop	 edx
$LL1310@LoadProper:
  004a5	81 30 ed ec eb
	ea		 xor	 DWORD PTR [eax], -353637139 ; eaebecedH
  004ab	83 c0 04	 add	 eax, 4
  004ae	4a		 dec	 edx
  004af	75 f4		 jne	 SHORT $LL1310@LoadProper
  004b1	80 b5 b8 fe ff
	ff ed		 xor	 BYTE PTR ___encStr$530750[ebp+16], -19 ; ffffffedH
  004b8	8d 41 01	 lea	 eax, DWORD PTR [ecx+1]
  004bb	50		 push	 eax
  004bc	89 85 2c fa ff
	ff		 mov	 DWORD PTR tv29526[ebp], eax
  004c2	8d 85 a8 fe ff
	ff		 lea	 eax, DWORD PTR ___encStr$530750[ebp]
  004c8	50		 push	 eax
  004c9	8d 85 30 fa ff
	ff		 lea	 eax, DWORD PTR _szKey$[ebp]
  004cf	50		 push	 eax
  004d0	ff 15 00 00 00
	00		 call	 DWORD PTR __imp__wsprintfA
  004d6	83 c4 0c	 add	 esp, 12			; 0000000cH

; 86   : 			rkLoader.LoadString( szKey, "", szBuf, MAX_PATH );

  004d9	68 04 01 00 00	 push	 260			; 00000104H
  004de	8d 85 34 fb ff
	ff		 lea	 eax, DWORD PTR _szBuf$[ebp]
  004e4	50		 push	 eax
  004e5	68 00 00 00 00	 push	 OFFSET ??_C@_00CNPNBAHC@?$AA@
  004ea	8d 85 30 fa ff
	ff		 lea	 eax, DWORD PTR _szKey$[ebp]
  004f0	50		 push	 eax
  004f1	8b cf		 mov	 ecx, edi
  004f3	ff 15 00 00 00
	00		 call	 DWORD PTR __imp_?LoadStringA@ioINILoader@@QAEXPBD0PADH@Z

; 87   : 
; 88   : 			m_vTeamModelList.push_back( ioHashString( szBuf ) );

  004f9	8d 85 34 fb ff
	ff		 lea	 eax, DWORD PTR _szBuf$[ebp]
  004ff	50		 push	 eax
  00500	8d 8d d8 f9 ff
	ff		 lea	 ecx, DWORD PTR $T541265[ebp]
  00506	ff 15 00 00 00
	00		 call	 DWORD PTR __imp_??0ioHashString@@QAE@PBD@Z
  0050c	50		 push	 eax
  0050d	8d 8e b4 0a 00
	00		 lea	 ecx, DWORD PTR [esi+2740]
  00513	89 5d fc	 mov	 DWORD PTR __$EHRec$[ebp+8], ebx
  00516	e8 00 00 00 00	 call	 ?push_back@?$vector@VioHashString@@V?$allocator@VioHashString@@@std@@@std@@QAEX$$QAVioHashString@@@Z ; std::vector<ioHashString,std::allocator<ioHashString> >::push_back
  0051b	83 4d fc ff	 or	 DWORD PTR __$EHRec$[ebp+8], -1
  0051f	8d 8d d8 f9 ff
	ff		 lea	 ecx, DWORD PTR $T541265[ebp]
  00525	ff 15 00 00 00
	00		 call	 DWORD PTR __imp_??1ioHashString@@QAE@XZ
  0052b	8b 8d 2c fa ff
	ff		 mov	 ecx, DWORD PTR tv29526[ebp]
  00531	3b 8d 28 fa ff
	ff		 cmp	 ecx, DWORD PTR _iTeamCnt$[ebp]
  00537	0f 8c 2e ff ff
	ff		 jl	 $LL516@LoadProper
$LN514@LoadProper:

; 89   : 		}
; 90   : 
; 91   : 		for( i=0; i < iEnemyCnt; ++i )

  0053d	33 c9		 xor	 ecx, ecx
  0053f	39 9d 24 fa ff
	ff		 cmp	 DWORD PTR _iEnemyCnt$[ebp], ebx
  00545	0f 8e 11 01 00
	00		 jle	 $LN412@LoadProper
$LL414@LoadProper:

; 92   : 		{
; 93   : 			wsprintf_e( szKey, "enemy_mine_model%d", i+1 );

  0054b	6a 04		 push	 4
  0054d	c7 85 00 fe ff
	ff 88 82 8e 87	 mov	 DWORD PTR ___encStr$530907[ebp], -2020703608 ; 878e8288H
  00557	c7 85 04 fe ff
	ff 94 b3 86 83	 mov	 DWORD PTR ___encStr$530907[ebp+4], -2088324204 ; 8386b394H
  00561	c7 85 08 fe ff
	ff 83 89 b4 87	 mov	 DWORD PTR ___encStr$530907[ebp+8], -2018211453 ; 87b48983H
  0056b	c7 85 0c fe ff
	ff 82 88 8e 86	 mov	 DWORD PTR ___encStr$530907[ebp+12], -2037479294 ; 868e8882H
  00575	66 c7 85 10 fe
	ff ff c8 88	 mov	 WORD PTR ___encStr$530907[ebp+16], 35016 ; 000088c8H
  0057e	8d 85 00 fe ff
	ff		 lea	 eax, DWORD PTR ___encStr$530907[ebp]
  00584	88 9d 12 fe ff
	ff		 mov	 BYTE PTR ___encStr$530907[ebp+18], bl
  0058a	5a		 pop	 edx
$LL1318@LoadProper:
  0058b	81 30 ed ec eb
	ea		 xor	 DWORD PTR [eax], -353637139 ; eaebecedH
  00591	83 c0 04	 add	 eax, 4
  00594	4a		 dec	 edx
  00595	75 f4		 jne	 SHORT $LL1318@LoadProper
  00597	c7 85 28 fa ff
	ff 10 00 00 00	 mov	 DWORD PTR _i$542321[ebp], 16 ; 00000010H
$LL1315@LoadProper:
  005a1	8b 85 28 fa ff
	ff		 mov	 eax, DWORD PTR _i$542321[ebp]
  005a7	25 03 00 00 80	 and	 eax, -2147483645	; 80000003H
  005ac	79 05		 jns	 SHORT $LN4618@LoadProper
  005ae	48		 dec	 eax
  005af	83 c8 fc	 or	 eax, -4			; fffffffcH
  005b2	40		 inc	 eax
$LN4618@LoadProper:
  005b3	b2 ed		 mov	 dl, -19			; ffffffedH
  005b5	2a d0		 sub	 dl, al
  005b7	8b 85 28 fa ff
	ff		 mov	 eax, DWORD PTR _i$542321[ebp]
  005bd	30 94 05 00 fe
	ff ff		 xor	 BYTE PTR ___encStr$530907[ebp+eax], dl
  005c4	ff 85 28 fa ff
	ff		 inc	 DWORD PTR _i$542321[ebp]
  005ca	83 bd 28 fa ff
	ff 12		 cmp	 DWORD PTR _i$542321[ebp], 18 ; 00000012H
  005d1	7c ce		 jl	 SHORT $LL1315@LoadProper
  005d3	8d 41 01	 lea	 eax, DWORD PTR [ecx+1]
  005d6	50		 push	 eax
  005d7	89 85 2c fa ff
	ff		 mov	 DWORD PTR tv29526[ebp], eax
  005dd	8d 85 00 fe ff
	ff		 lea	 eax, DWORD PTR ___encStr$530907[ebp]
  005e3	50		 push	 eax
  005e4	8d 85 30 fa ff
	ff		 lea	 eax, DWORD PTR _szKey$[ebp]
  005ea	50		 push	 eax
  005eb	ff 15 00 00 00
	00		 call	 DWORD PTR __imp__wsprintfA
  005f1	83 c4 0c	 add	 esp, 12			; 0000000cH

; 94   : 			rkLoader.LoadString( szKey, "", szBuf, MAX_PATH );

  005f4	68 04 01 00 00	 push	 260			; 00000104H
  005f9	8d 85 34 fb ff
	ff		 lea	 eax, DWORD PTR _szBuf$[ebp]
  005ff	50		 push	 eax
  00600	68 00 00 00 00	 push	 OFFSET ??_C@_00CNPNBAHC@?$AA@
  00605	8d 85 30 fa ff
	ff		 lea	 eax, DWORD PTR _szKey$[ebp]
  0060b	50		 push	 eax
  0060c	8b cf		 mov	 ecx, edi
  0060e	ff 15 00 00 00
	00		 call	 DWORD PTR __imp_?LoadStringA@ioINILoader@@QAEXPBD0PADH@Z

; 95   : 
; 96   : 			m_vEnemyModelList.push_back( ioHashString( szBuf ) );

  00614	8d 85 34 fb ff
	ff		 lea	 eax, DWORD PTR _szBuf$[ebp]
  0061a	50		 push	 eax
  0061b	8d 8d c8 f9 ff
	ff		 lea	 ecx, DWORD PTR $T541266[ebp]
  00621	ff 15 00 00 00
	00		 call	 DWORD PTR __imp_??0ioHashString@@QAE@PBD@Z
  00627	50		 push	 eax
  00628	8d 8e c4 0a 00
	00		 lea	 ecx, DWORD PTR [esi+2756]
  0062e	c7 45 fc 01 00
	00 00		 mov	 DWORD PTR __$EHRec$[ebp+8], 1
  00635	e8 00 00 00 00	 call	 ?push_back@?$vector@VioHashString@@V?$allocator@VioHashString@@@std@@@std@@QAEX$$QAVioHashString@@@Z ; std::vector<ioHashString,std::allocator<ioHashString> >::push_back
  0063a	83 4d fc ff	 or	 DWORD PTR __$EHRec$[ebp+8], -1
  0063e	8d 8d c8 f9 ff
	ff		 lea	 ecx, DWORD PTR $T541266[ebp]
  00644	ff 15 00 00 00
	00		 call	 DWORD PTR __imp_??1ioHashString@@QAE@XZ
  0064a	8b 8d 2c fa ff
	ff		 mov	 ecx, DWORD PTR tv29526[ebp]
  00650	3b 8d 24 fa ff
	ff		 cmp	 ecx, DWORD PTR _iEnemyCnt$[ebp]
  00656	0f 8c ef fe ff
	ff		 jl	 $LL414@LoadProper
$LN412@LoadProper:

; 97   : 		}
; 98   : 	}
; 99   : 
; 100  : 	m_fCollisionRange = rkLoader.LoadFloat_e( "collsion_range", 300.0f );

  0065c	6a 03		 push	 3
  0065e	c7 85 3c ff ff
	ff 8e 83 87 86	 mov	 DWORD PTR __k$542346[ebp], -2037939314 ; 8687838eH
  00668	c7 85 40 ff ff
	ff 9e 85 84 84	 mov	 DWORD PTR __k$542346[ebp+4], -2071689826 ; 8484859eH
  00672	c7 85 44 ff ff
	ff b2 9e 8a 84	 mov	 DWORD PTR __k$542346[ebp+8], -2071290190 ; 848a9eb2H
  0067c	66 c7 85 48 ff
	ff ff 8a 89	 mov	 WORD PTR __k$542346[ebp+12], 35210 ; 0000898aH
  00685	8d 85 3c ff ff
	ff		 lea	 eax, DWORD PTR __k$542346[ebp]
  0068b	88 9d 4a ff ff
	ff		 mov	 BYTE PTR __k$542346[ebp+14], bl
  00691	59		 pop	 ecx
$LL1424@LoadProper:
  00692	81 30 ed ec eb
	ea		 xor	 DWORD PTR [eax], -353637139 ; eaebecedH
  00698	83 c0 04	 add	 eax, 4
  0069b	49		 dec	 ecx
  0069c	75 f4		 jne	 SHORT $LL1424@LoadProper
  0069e	6a 0c		 push	 12			; 0000000cH
  006a0	58		 pop	 eax
$LL1421@LoadProper:
  006a1	8b c8		 mov	 ecx, eax
  006a3	81 e1 03 00 00
	80		 and	 ecx, -2147483645	; 80000003H
  006a9	79 05		 jns	 SHORT $LN4619@LoadProper
  006ab	49		 dec	 ecx
  006ac	83 c9 fc	 or	 ecx, -4			; fffffffcH
  006af	41		 inc	 ecx
$LN4619@LoadProper:
  006b0	b2 ed		 mov	 dl, -19			; ffffffedH
  006b2	2a d1		 sub	 dl, cl
  006b4	30 94 05 3c ff
	ff ff		 xor	 BYTE PTR __k$542346[ebp+eax], dl
  006bb	40		 inc	 eax
  006bc	83 f8 0e	 cmp	 eax, 14			; 0000000eH
  006bf	7c e0		 jl	 SHORT $LL1421@LoadProper
  006c1	f3 0f 10 05 00
	00 00 00	 movss	 xmm0, DWORD PTR __real@43960000
  006c9	51		 push	 ecx
  006ca	8d 85 3c ff ff
	ff		 lea	 eax, DWORD PTR __k$542346[ebp]
  006d0	f3 0f 11 04 24	 movss	 DWORD PTR [esp], xmm0
  006d5	50		 push	 eax
  006d6	8b cf		 mov	 ecx, edi
  006d8	ff 15 00 00 00
	00		 call	 DWORD PTR __imp_?LoadFloat@ioINILoader@@QAEMPBDM@Z
  006de	d9 9e 5c 0a 00
	00		 fstp	 DWORD PTR [esi+2652]
  006e4	6a 03		 push	 3

; 101  : 	m_fExplosionRange = rkLoader.LoadFloat_e( "explosion_range", 300.0f );

  006e6	c7 85 14 ff ff
	ff 88 94 9b 86	 mov	 DWORD PTR __k$542471[ebp], -2036624248 ; 869b9488H
  006f0	c7 85 18 ff ff
	ff 82 9f 82 85	 mov	 DWORD PTR __k$542471[ebp+4], -2055037054 ; 85829f82H
  006fa	c7 85 1c ff ff
	ff 83 b3 99 8b	 mov	 DWORD PTR __k$542471[ebp+8], -1952861309 ; 8b99b383H
  00704	8d 85 14 ff ff
	ff		 lea	 eax, DWORD PTR __k$542471[ebp]
  0070a	c7 85 20 ff ff
	ff 83 8b 8e 00	 mov	 DWORD PTR __k$542471[ebp+12], 9341827 ; 008e8b83H
  00714	59		 pop	 ecx
$LL1530@LoadProper:
  00715	81 30 ed ec eb
	ea		 xor	 DWORD PTR [eax], -353637139 ; eaebecedH
  0071b	83 c0 04	 add	 eax, 4
  0071e	49		 dec	 ecx
  0071f	75 f4		 jne	 SHORT $LL1530@LoadProper
  00721	6a 0c		 push	 12			; 0000000cH
  00723	58		 pop	 eax
$LL1527@LoadProper:
  00724	8b c8		 mov	 ecx, eax
  00726	81 e1 03 00 00
	80		 and	 ecx, -2147483645	; 80000003H
  0072c	79 05		 jns	 SHORT $LN4620@LoadProper
  0072e	49		 dec	 ecx
  0072f	83 c9 fc	 or	 ecx, -4			; fffffffcH
  00732	41		 inc	 ecx
$LN4620@LoadProper:
  00733	b2 ed		 mov	 dl, -19			; ffffffedH
  00735	2a d1		 sub	 dl, cl
  00737	30 94 05 14 ff
	ff ff		 xor	 BYTE PTR __k$542471[ebp+eax], dl
  0073e	40		 inc	 eax
  0073f	83 f8 0f	 cmp	 eax, 15			; 0000000fH
  00742	7c e0		 jl	 SHORT $LL1527@LoadProper
  00744	f3 0f 10 05 00
	00 00 00	 movss	 xmm0, DWORD PTR __real@43960000
  0074c	51		 push	 ecx
  0074d	8d 85 14 ff ff
	ff		 lea	 eax, DWORD PTR __k$542471[ebp]
  00753	f3 0f 11 04 24	 movss	 DWORD PTR [esp], xmm0
  00758	50		 push	 eax
  00759	8b cf		 mov	 ecx, edi
  0075b	ff 15 00 00 00
	00		 call	 DWORD PTR __imp_?LoadFloat@ioINILoader@@QAEMPBDM@Z
  00761	d9 9e 60 0a 00
	00		 fstp	 DWORD PTR [esi+2656]
  00767	6a 03		 push	 3

; 102  : 	m_fMineBoomDist = rkLoader.LoadFloat_e( "mine_boom_dist", 300.0f );

  00769	c7 85 50 ff ff
	ff 80 85 85 8f	 mov	 DWORD PTR __k$542596[ebp], -1887074944 ; 8f858580H
  00773	c7 85 54 ff ff
	ff b2 8e 84 85	 mov	 DWORD PTR __k$542596[ebp+4], -2054910286 ; 85848eb2H
  0077d	c7 85 58 ff ff
	ff 80 b3 8f 83	 mov	 DWORD PTR __k$542596[ebp+8], -2087734400 ; 838fb380H
  00787	66 c7 85 5c ff
	ff ff 9e 98	 mov	 WORD PTR __k$542596[ebp+12], 39070 ; 0000989eH
  00790	8d 85 50 ff ff
	ff		 lea	 eax, DWORD PTR __k$542596[ebp]
  00796	88 9d 5e ff ff
	ff		 mov	 BYTE PTR __k$542596[ebp+14], bl
  0079c	59		 pop	 ecx
$LL1636@LoadProper:
  0079d	81 30 ed ec eb
	ea		 xor	 DWORD PTR [eax], -353637139 ; eaebecedH
  007a3	83 c0 04	 add	 eax, 4
  007a6	49		 dec	 ecx
  007a7	75 f4		 jne	 SHORT $LL1636@LoadProper
  007a9	6a 0c		 push	 12			; 0000000cH
  007ab	58		 pop	 eax
$LL1633@LoadProper:
  007ac	8b c8		 mov	 ecx, eax
  007ae	81 e1 03 00 00
	80		 and	 ecx, -2147483645	; 80000003H
  007b4	79 05		 jns	 SHORT $LN4621@LoadProper
  007b6	49		 dec	 ecx
  007b7	83 c9 fc	 or	 ecx, -4			; fffffffcH
  007ba	41		 inc	 ecx
$LN4621@LoadProper:
  007bb	b2 ed		 mov	 dl, -19			; ffffffedH
  007bd	2a d1		 sub	 dl, cl
  007bf	30 94 05 50 ff
	ff ff		 xor	 BYTE PTR __k$542596[ebp+eax], dl
  007c6	40		 inc	 eax
  007c7	83 f8 0e	 cmp	 eax, 14			; 0000000eH
  007ca	7c e0		 jl	 SHORT $LL1633@LoadProper
  007cc	f3 0f 10 05 00
	00 00 00	 movss	 xmm0, DWORD PTR __real@43960000
  007d4	51		 push	 ecx
  007d5	8d 85 50 ff ff
	ff		 lea	 eax, DWORD PTR __k$542596[ebp]
  007db	f3 0f 11 04 24	 movss	 DWORD PTR [esp], xmm0
  007e0	50		 push	 eax
  007e1	8b cf		 mov	 ecx, edi
  007e3	ff 15 00 00 00
	00		 call	 DWORD PTR __imp_?LoadFloat@ioINILoader@@QAEMPBDM@Z
  007e9	d9 9e 64 0a 00
	00		 fstp	 DWORD PTR [esi+2660]
  007ef	6a 04		 push	 4

; 103  : 	m_dwTraceDelayTime = (DWORD)rkLoader.LoadInt_e( "mine_trace_delay", 300 );

  007f1	c7 85 c8 fc ff
	ff 80 85 85 8f	 mov	 DWORD PTR __k$542721[ebp], -1887074944 ; 8f858580H
  007fb	c7 85 cc fc ff
	ff b2 98 99 8b	 mov	 DWORD PTR __k$542721[ebp+4], -1952868174 ; 8b9998b2H
  00805	c7 85 d0 fc ff
	ff 8e 89 b4 8e	 mov	 DWORD PTR __k$542721[ebp+8], -1900770930 ; 8eb4898eH
  0080f	c7 85 d4 fc ff
	ff 88 80 8a 93	 mov	 DWORD PTR __k$542721[ebp+12], -1819639672 ; 938a8088H
  00819	8d 85 c8 fc ff
	ff		 lea	 eax, DWORD PTR __k$542721[ebp]
  0081f	88 9d d8 fc ff
	ff		 mov	 BYTE PTR __k$542721[ebp+16], bl
  00825	59		 pop	 ecx
$LL1742@LoadProper:
  00826	81 30 ed ec eb
	ea		 xor	 DWORD PTR [eax], -353637139 ; eaebecedH
  0082c	83 c0 04	 add	 eax, 4
  0082f	49		 dec	 ecx
  00830	75 f4		 jne	 SHORT $LL1742@LoadProper
  00832	68 2c 01 00 00	 push	 300			; 0000012cH
  00837	8d 85 c8 fc ff
	ff		 lea	 eax, DWORD PTR __k$542721[ebp]
  0083d	50		 push	 eax
  0083e	8b cf		 mov	 ecx, edi
  00840	ff 15 00 00 00
	00		 call	 DWORD PTR __imp_?LoadInt@ioINILoader@@QAEHPBDH@Z
  00846	89 86 9c 08 00
	00		 mov	 DWORD PTR [esi+2204], eax

; 104  : 	m_fMineSizeRate = rkLoader.LoadFloat_e( "mine_size_rate", FLOAT1 );

  0084c	b8 01 00 00 00	 mov	 eax, 1
  00851	6a 03		 push	 3
  00853	c7 45 8c 80 85
	85 8f		 mov	 DWORD PTR __k$542850[ebp], -1887074944 ; 8f858580H
  0085a	c7 45 90 b2 9f
	82 90		 mov	 DWORD PTR __k$542850[ebp+4], -1870487630 ; 90829fb2H
  00861	c7 45 94 88 b3
	99 8b		 mov	 DWORD PTR __k$542850[ebp+8], -1952861304 ; 8b99b388H
  00868	66 c7 45 98 99
	89		 mov	 WORD PTR __k$542850[ebp+12], 35225 ; 00008999H
  0086e	8d 4d 8c	 lea	 ecx, DWORD PTR __k$542850[ebp]
  00871	88 5d 9a	 mov	 BYTE PTR __k$542850[ebp+14], bl
  00874	5a		 pop	 edx
$LL1850@LoadProper:
  00875	81 31 ed ec eb
	ea		 xor	 DWORD PTR [ecx], -353637139 ; eaebecedH
  0087b	83 c1 04	 add	 ecx, 4
  0087e	4a		 dec	 edx
  0087f	75 f4		 jne	 SHORT $LL1850@LoadProper
  00881	c7 85 28 fa ff
	ff 0c 00 00 00	 mov	 DWORD PTR _i$542931[ebp], 12 ; 0000000cH
$LL1847@LoadProper:
  0088b	8b 8d 28 fa ff
	ff		 mov	 ecx, DWORD PTR _i$542931[ebp]
  00891	81 e1 03 00 00
	80		 and	 ecx, -2147483645	; 80000003H
  00897	79 05		 jns	 SHORT $LN4622@LoadProper
  00899	49		 dec	 ecx
  0089a	83 c9 fc	 or	 ecx, -4			; fffffffcH
  0089d	41		 inc	 ecx
$LN4622@LoadProper:
  0089e	b2 ed		 mov	 dl, -19			; ffffffedH
  008a0	2a d1		 sub	 dl, cl
  008a2	8b 8d 28 fa ff
	ff		 mov	 ecx, DWORD PTR _i$542931[ebp]
  008a8	30 54 0d 8c	 xor	 BYTE PTR __k$542850[ebp+ecx], dl
  008ac	ff 85 28 fa ff
	ff		 inc	 DWORD PTR _i$542931[ebp]
  008b2	83 bd 28 fa ff
	ff 0e		 cmp	 DWORD PTR _i$542931[ebp], 14 ; 0000000eH
  008b9	7c d0		 jl	 SHORT $LL1847@LoadProper
  008bb	89 85 2c fa ff
	ff		 mov	 DWORD PTR tv37261[ebp], eax
  008c1	db 85 2c fa ff
	ff		 fild	 DWORD PTR tv37261[ebp]
  008c7	85 c0		 test	 eax, eax
  008c9	79 06		 jns	 SHORT $LN4623@LoadProper
  008cb	d8 05 00 00 00
	00		 fadd	 DWORD PTR __real@4f800000
$LN4623@LoadProper:
  008d1	51		 push	 ecx
  008d2	8d 45 8c	 lea	 eax, DWORD PTR __k$542850[ebp]
  008d5	d9 1c 24	 fstp	 DWORD PTR [esp]
  008d8	50		 push	 eax
  008d9	8b cf		 mov	 ecx, edi
  008db	ff 15 00 00 00
	00		 call	 DWORD PTR __imp_?LoadFloat@ioINILoader@@QAEMPBDM@Z
  008e1	d9 9e 70 0a 00
	00		 fstp	 DWORD PTR [esi+2672]
  008e7	6a 04		 push	 4

; 105  : 	m_fVisibleRange = rkLoader.LoadFloat_e( "mine_visible_range", 0.0f );

  008e9	c7 85 30 fe ff
	ff 80 85 85 8f	 mov	 DWORD PTR __k$542988[ebp], -1887074944 ; 8f858580H
  008f3	c7 85 34 fe ff
	ff b2 9a 82 99	 mov	 DWORD PTR __k$542988[ebp+4], -1719493966 ; 99829ab2H
  008fd	c7 85 38 fe ff
	ff 84 8e 87 8f	 mov	 DWORD PTR __k$542988[ebp+8], -1886941564 ; 8f878e84H
  00907	c7 85 3c fe ff
	ff b2 9e 8a 84	 mov	 DWORD PTR __k$542988[ebp+12], -2071290190 ; 848a9eb2H
  00911	66 c7 85 40 fe
	ff ff 8a 89	 mov	 WORD PTR __k$542988[ebp+16], 35210 ; 0000898aH
  0091a	8d 85 30 fe ff
	ff		 lea	 eax, DWORD PTR __k$542988[ebp]
  00920	88 9d 42 fe ff
	ff		 mov	 BYTE PTR __k$542988[ebp+18], bl
  00926	59		 pop	 ecx
$LL1956@LoadProper:
  00927	81 30 ed ec eb
	ea		 xor	 DWORD PTR [eax], -353637139 ; eaebecedH
  0092d	83 c0 04	 add	 eax, 4
  00930	49		 dec	 ecx
  00931	75 f4		 jne	 SHORT $LL1956@LoadProper
  00933	6a 10		 push	 16			; 00000010H
  00935	58		 pop	 eax
$LL1953@LoadProper:
  00936	8b c8		 mov	 ecx, eax
  00938	81 e1 03 00 00
	80		 and	 ecx, -2147483645	; 80000003H
  0093e	79 05		 jns	 SHORT $LN4624@LoadProper
  00940	49		 dec	 ecx
  00941	83 c9 fc	 or	 ecx, -4			; fffffffcH
  00944	41		 inc	 ecx
$LN4624@LoadProper:
  00945	b2 ed		 mov	 dl, -19			; ffffffedH
  00947	2a d1		 sub	 dl, cl
  00949	30 94 05 30 fe
	ff ff		 xor	 BYTE PTR __k$542988[ebp+eax], dl
  00950	40		 inc	 eax
  00951	83 f8 12	 cmp	 eax, 18			; 00000012H
  00954	7c e0		 jl	 SHORT $LL1953@LoadProper
  00956	0f 57 c0	 xorps	 xmm0, xmm0
  00959	51		 push	 ecx
  0095a	8d 85 30 fe ff
	ff		 lea	 eax, DWORD PTR __k$542988[ebp]
  00960	f3 0f 11 04 24	 movss	 DWORD PTR [esp], xmm0
  00965	50		 push	 eax
  00966	8b cf		 mov	 ecx, edi
  00968	ff 15 00 00 00
	00		 call	 DWORD PTR __imp_?LoadFloat@ioINILoader@@QAEMPBDM@Z
  0096e	d9 9e 68 0a 00
	00		 fstp	 DWORD PTR [esi+2664]
  00974	6a 04		 push	 4

; 106  : 	m_fMineSensingRange = rkLoader.LoadFloat_e( "mine_sensing_range", 0.0f );

  00976	c7 85 48 fe ff
	ff 80 85 85 8f	 mov	 DWORD PTR __k$543113[ebp], -1887074944 ; 8f858580H
  00980	c7 85 4c fe ff
	ff b2 9f 8e 84	 mov	 DWORD PTR __k$543113[ebp+4], -2071027790 ; 848e9fb2H
  0098a	c7 85 50 fe ff
	ff 9e 85 85 8d	 mov	 DWORD PTR __k$543113[ebp+8], -1920629346 ; 8d85859eH
  00994	c7 85 54 fe ff
	ff b2 9e 8a 84	 mov	 DWORD PTR __k$543113[ebp+12], -2071290190 ; 848a9eb2H
  0099e	66 c7 85 58 fe
	ff ff 8a 89	 mov	 WORD PTR __k$543113[ebp+16], 35210 ; 0000898aH
  009a7	8d 85 48 fe ff
	ff		 lea	 eax, DWORD PTR __k$543113[ebp]
  009ad	88 9d 5a fe ff
	ff		 mov	 BYTE PTR __k$543113[ebp+18], bl
  009b3	59		 pop	 ecx
$LL2062@LoadProper:
  009b4	81 30 ed ec eb
	ea		 xor	 DWORD PTR [eax], -353637139 ; eaebecedH
  009ba	83 c0 04	 add	 eax, 4
  009bd	49		 dec	 ecx
  009be	75 f4		 jne	 SHORT $LL2062@LoadProper
  009c0	6a 10		 push	 16			; 00000010H
  009c2	58		 pop	 eax
$LL2059@LoadProper:
  009c3	8b c8		 mov	 ecx, eax
  009c5	81 e1 03 00 00
	80		 and	 ecx, -2147483645	; 80000003H
  009cb	79 05		 jns	 SHORT $LN4625@LoadProper
  009cd	49		 dec	 ecx
  009ce	83 c9 fc	 or	 ecx, -4			; fffffffcH
  009d1	41		 inc	 ecx
$LN4625@LoadProper:
  009d2	b2 ed		 mov	 dl, -19			; ffffffedH
  009d4	2a d1		 sub	 dl, cl
  009d6	30 94 05 48 fe
	ff ff		 xor	 BYTE PTR __k$543113[ebp+eax], dl
  009dd	40		 inc	 eax
  009de	83 f8 12	 cmp	 eax, 18			; 00000012H
  009e1	7c e0		 jl	 SHORT $LL2059@LoadProper
  009e3	0f 57 c0	 xorps	 xmm0, xmm0
  009e6	51		 push	 ecx
  009e7	8d 85 48 fe ff
	ff		 lea	 eax, DWORD PTR __k$543113[ebp]
  009ed	f3 0f 11 04 24	 movss	 DWORD PTR [esp], xmm0
  009f2	50		 push	 eax
  009f3	8b cf		 mov	 ecx, edi
  009f5	ff 15 00 00 00
	00		 call	 DWORD PTR __imp_?LoadFloat@ioINILoader@@QAEMPBDM@Z
  009fb	d9 9e 6c 0a 00
	00		 fstp	 DWORD PTR [esi+2668]
  00a01	6a 05		 push	 5

; 107  : 
; 108  : 	//Fly Trace
; 109  : 	m_dwFlyTraceDealyTime = (DWORD)rkLoader.LoadInt_e( "mine_fly_ready_delay", 300 );	

  00a03	c7 85 58 fc ff
	ff 80 85 85 8f	 mov	 DWORD PTR __k$543243[ebp], -1887074944 ; 8f858580H
  00a0d	c7 85 5c fc ff
	ff b2 8a 87 93	 mov	 DWORD PTR __k$543243[ebp+4], -1819833678 ; 93878ab2H
  00a17	c7 85 60 fc ff
	ff b2 9e 8e 8b	 mov	 DWORD PTR __k$543243[ebp+8], -1953587534 ; 8b8e9eb2H
  00a21	c7 85 64 fc ff
	ff 89 95 b4 8e	 mov	 DWORD PTR __k$543243[ebp+12], -1900767863 ; 8eb49589H
  00a2b	c7 85 68 fc ff
	ff 88 80 8a 93	 mov	 DWORD PTR __k$543243[ebp+16], -1819639672 ; 938a8088H
  00a35	8d 85 58 fc ff
	ff		 lea	 eax, DWORD PTR __k$543243[ebp]
  00a3b	88 9d 6c fc ff
	ff		 mov	 BYTE PTR __k$543243[ebp+20], bl
  00a41	59		 pop	 ecx
$LL2168@LoadProper:
  00a42	81 30 ed ec eb
	ea		 xor	 DWORD PTR [eax], -353637139 ; eaebecedH
  00a48	83 c0 04	 add	 eax, 4
  00a4b	49		 dec	 ecx
  00a4c	75 f4		 jne	 SHORT $LL2168@LoadProper
  00a4e	68 2c 01 00 00	 push	 300			; 0000012cH
  00a53	8d 85 58 fc ff
	ff		 lea	 eax, DWORD PTR __k$543243[ebp]
  00a59	50		 push	 eax
  00a5a	8b cf		 mov	 ecx, edi
  00a5c	ff 15 00 00 00
	00		 call	 DWORD PTR __imp_?LoadInt@ioINILoader@@QAEHPBDH@Z
  00a62	89 86 a4 08 00
	00		 mov	 DWORD PTR [esi+2212], eax
  00a68	6a 05		 push	 5

; 110  : 	m_fTraceReadySpeed = rkLoader.LoadFloat_e( "mine_fly_ready_speed", 0.0f );

  00a6a	c7 85 ac fc ff
	ff 80 85 85 8f	 mov	 DWORD PTR __k$543350[ebp], -1887074944 ; 8f858580H
  00a74	c7 85 b0 fc ff
	ff b2 8a 87 93	 mov	 DWORD PTR __k$543350[ebp+4], -1819833678 ; 93878ab2H
  00a7e	c7 85 b4 fc ff
	ff b2 9e 8e 8b	 mov	 DWORD PTR __k$543350[ebp+8], -1953587534 ; 8b8e9eb2H
  00a88	c7 85 b8 fc ff
	ff 89 95 b4 99	 mov	 DWORD PTR __k$543350[ebp+12], -1716218487 ; 99b49589H
  00a92	c7 85 bc fc ff
	ff 9d 89 8e 8e	 mov	 DWORD PTR __k$543350[ebp+16], -1903261283 ; 8e8e899dH
  00a9c	8d 85 ac fc ff
	ff		 lea	 eax, DWORD PTR __k$543350[ebp]
  00aa2	88 9d c0 fc ff
	ff		 mov	 BYTE PTR __k$543350[ebp+20], bl
  00aa8	59		 pop	 ecx
$LL2274@LoadProper:
  00aa9	81 30 ed ec eb
	ea		 xor	 DWORD PTR [eax], -353637139 ; eaebecedH
  00aaf	83 c0 04	 add	 eax, 4
  00ab2	49		 dec	 ecx
  00ab3	75 f4		 jne	 SHORT $LL2274@LoadProper
  00ab5	0f 57 c0	 xorps	 xmm0, xmm0
  00ab8	51		 push	 ecx
  00ab9	8d 85 ac fc ff
	ff		 lea	 eax, DWORD PTR __k$543350[ebp]
  00abf	f3 0f 11 04 24	 movss	 DWORD PTR [esp], xmm0
  00ac4	50		 push	 eax
  00ac5	8b cf		 mov	 ecx, edi
  00ac7	ff 15 00 00 00
	00		 call	 DWORD PTR __imp_?LoadFloat@ioINILoader@@QAEMPBDM@Z
  00acd	51		 push	 ecx
  00ace	8d 8e 34 09 00
	00		 lea	 ecx, DWORD PTR [esi+2356]
  00ad4	d9 1c 24	 fstp	 DWORD PTR [esp]
  00ad7	e8 00 00 00 00	 call	 ??4?$CEncrypt@M@@QAEMM@Z ; CEncrypt<float>::operator=
  00adc	dd d8		 fstp	 ST(0)
  00ade	6a 02		 push	 2

; 111  : 
; 112  : 	m_fTraceSpeed = rkLoader.LoadFloat_e( "trace_speed", 0.0f );

  00ae0	c7 45 a0 99 9e
	8a 89		 mov	 DWORD PTR __k$543488[ebp], -1987404135 ; 898a9e99H
  00ae7	c7 45 a4 88 b3
	98 9a		 mov	 DWORD PTR __k$543488[ebp+4], -1701268600 ; 9a98b388H
  00aee	8d 45 a0	 lea	 eax, DWORD PTR __k$543488[ebp]
  00af1	c7 45 a8 88 89
	8f 00		 mov	 DWORD PTR __k$543488[ebp+8], 9406856 ; 008f8988H
  00af8	59		 pop	 ecx
$LL2380@LoadProper:
  00af9	81 30 ed ec eb
	ea		 xor	 DWORD PTR [eax], -353637139 ; eaebecedH
  00aff	83 c0 04	 add	 eax, 4
  00b02	49		 dec	 ecx
  00b03	75 f4		 jne	 SHORT $LL2380@LoadProper
  00b05	6a 08		 push	 8
  00b07	58		 pop	 eax
$LL2377@LoadProper:
  00b08	8b c8		 mov	 ecx, eax
  00b0a	81 e1 03 00 00
	80		 and	 ecx, -2147483645	; 80000003H
  00b10	79 05		 jns	 SHORT $LN4626@LoadProper
  00b12	49		 dec	 ecx
  00b13	83 c9 fc	 or	 ecx, -4			; fffffffcH
  00b16	41		 inc	 ecx
$LN4626@LoadProper:
  00b17	b2 ed		 mov	 dl, -19			; ffffffedH
  00b19	2a d1		 sub	 dl, cl
  00b1b	30 54 05 a0	 xor	 BYTE PTR __k$543488[ebp+eax], dl
  00b1f	40		 inc	 eax
  00b20	83 f8 0b	 cmp	 eax, 11			; 0000000bH
  00b23	7c e3		 jl	 SHORT $LL2377@LoadProper
  00b25	0f 57 c0	 xorps	 xmm0, xmm0
  00b28	51		 push	 ecx
  00b29	8d 45 a0	 lea	 eax, DWORD PTR __k$543488[ebp]
  00b2c	f3 0f 11 04 24	 movss	 DWORD PTR [esp], xmm0
  00b31	50		 push	 eax
  00b32	8b cf		 mov	 ecx, edi
  00b34	ff 15 00 00 00
	00		 call	 DWORD PTR __imp_?LoadFloat@ioINILoader@@QAEMPBDM@Z
  00b3a	51		 push	 ecx
  00b3b	8d 8e 04 09 00
	00		 lea	 ecx, DWORD PTR [esi+2308]
  00b41	d9 1c 24	 fstp	 DWORD PTR [esp]
  00b44	e8 00 00 00 00	 call	 ??4?$CEncrypt@M@@QAEMM@Z ; CEncrypt<float>::operator=
  00b49	dd d8		 fstp	 ST(0)
  00b4b	6a 02		 push	 2

; 113  : 	m_fTraceRange = rkLoader.LoadFloat_e( "trace_range", 0.0f );

  00b4d	c7 45 c0 99 9e
	8a 89		 mov	 DWORD PTR __k$543600[ebp], -1987404135 ; 898a9e99H
  00b54	c7 45 c4 88 b3
	99 8b		 mov	 DWORD PTR __k$543600[ebp+4], -1952861304 ; 8b99b388H
  00b5b	8d 45 c0	 lea	 eax, DWORD PTR __k$543600[ebp]
  00b5e	c7 45 c8 83 8b
	8e 00		 mov	 DWORD PTR __k$543600[ebp+8], 9341827 ; 008e8b83H
  00b65	59		 pop	 ecx
$LL2486@LoadProper:
  00b66	81 30 ed ec eb
	ea		 xor	 DWORD PTR [eax], -353637139 ; eaebecedH
  00b6c	83 c0 04	 add	 eax, 4
  00b6f	49		 dec	 ecx
  00b70	75 f4		 jne	 SHORT $LL2486@LoadProper
  00b72	6a 08		 push	 8
  00b74	58		 pop	 eax
$LL2483@LoadProper:
  00b75	8b c8		 mov	 ecx, eax
  00b77	81 e1 03 00 00
	80		 and	 ecx, -2147483645	; 80000003H
  00b7d	79 05		 jns	 SHORT $LN4627@LoadProper
  00b7f	49		 dec	 ecx
  00b80	83 c9 fc	 or	 ecx, -4			; fffffffcH
  00b83	41		 inc	 ecx
$LN4627@LoadProper:
  00b84	b2 ed		 mov	 dl, -19			; ffffffedH
  00b86	2a d1		 sub	 dl, cl
  00b88	30 54 05 c0	 xor	 BYTE PTR __k$543600[ebp+eax], dl
  00b8c	40		 inc	 eax
  00b8d	83 f8 0b	 cmp	 eax, 11			; 0000000bH
  00b90	7c e3		 jl	 SHORT $LL2483@LoadProper
  00b92	0f 57 c0	 xorps	 xmm0, xmm0
  00b95	51		 push	 ecx
  00b96	8d 45 c0	 lea	 eax, DWORD PTR __k$543600[ebp]
  00b99	f3 0f 11 04 24	 movss	 DWORD PTR [esp], xmm0
  00b9e	50		 push	 eax
  00b9f	8b cf		 mov	 ecx, edi
  00ba1	ff 15 00 00 00
	00		 call	 DWORD PTR __imp_?LoadFloat@ioINILoader@@QAEMPBDM@Z
  00ba7	51		 push	 ecx
  00ba8	8d 8e 64 09 00
	00		 lea	 ecx, DWORD PTR [esi+2404]
  00bae	d9 1c 24	 fstp	 DWORD PTR [esp]
  00bb1	e8 00 00 00 00	 call	 ??4?$CEncrypt@M@@QAEMM@Z ; CEncrypt<float>::operator=
  00bb6	dd d8		 fstp	 ST(0)
  00bb8	6a 04		 push	 4

; 114  : 	m_fTraceRotSpeed = rkLoader.LoadFloat_e( "trace_rotate_speed", 0.0f );

  00bba	c7 85 18 fe ff
	ff 99 9e 8a 89	 mov	 DWORD PTR __k$543725[ebp], -1987404135 ; 898a9e99H
  00bc4	c7 85 1c fe ff
	ff 88 b3 99 85	 mov	 DWORD PTR __k$543725[ebp+4], -2053524600 ; 8599b388H
  00bce	c7 85 20 fe ff
	ff 99 8d 9f 8f	 mov	 DWORD PTR __k$543725[ebp+8], -1885368935 ; 8f9f8d99H
  00bd8	c7 85 24 fe ff
	ff b2 9f 9b 8f	 mov	 DWORD PTR __k$543725[ebp+12], -1885626446 ; 8f9b9fb2H
  00be2	66 c7 85 28 fe
	ff ff 88 88	 mov	 WORD PTR __k$543725[ebp+16], 34952 ; 00008888H
  00beb	8d 85 18 fe ff
	ff		 lea	 eax, DWORD PTR __k$543725[ebp]
  00bf1	88 9d 2a fe ff
	ff		 mov	 BYTE PTR __k$543725[ebp+18], bl
  00bf7	59		 pop	 ecx
$LL2592@LoadProper:
  00bf8	81 30 ed ec eb
	ea		 xor	 DWORD PTR [eax], -353637139 ; eaebecedH
  00bfe	83 c0 04	 add	 eax, 4
  00c01	49		 dec	 ecx
  00c02	75 f4		 jne	 SHORT $LL2592@LoadProper
  00c04	6a 10		 push	 16			; 00000010H
  00c06	58		 pop	 eax
$LL2589@LoadProper:
  00c07	8b c8		 mov	 ecx, eax
  00c09	81 e1 03 00 00
	80		 and	 ecx, -2147483645	; 80000003H
  00c0f	79 05		 jns	 SHORT $LN4628@LoadProper
  00c11	49		 dec	 ecx
  00c12	83 c9 fc	 or	 ecx, -4			; fffffffcH
  00c15	41		 inc	 ecx
$LN4628@LoadProper:
  00c16	b2 ed		 mov	 dl, -19			; ffffffedH
  00c18	2a d1		 sub	 dl, cl
  00c1a	30 94 05 18 fe
	ff ff		 xor	 BYTE PTR __k$543725[ebp+eax], dl
  00c21	40		 inc	 eax
  00c22	83 f8 12	 cmp	 eax, 18			; 00000012H
  00c25	7c e0		 jl	 SHORT $LL2589@LoadProper
  00c27	0f 57 c0	 xorps	 xmm0, xmm0
  00c2a	51		 push	 ecx
  00c2b	8d 85 18 fe ff
	ff		 lea	 eax, DWORD PTR __k$543725[ebp]
  00c31	f3 0f 11 04 24	 movss	 DWORD PTR [esp], xmm0
  00c36	50		 push	 eax
  00c37	8b cf		 mov	 ecx, edi
  00c39	ff 15 00 00 00
	00		 call	 DWORD PTR __imp_?LoadFloat@ioINILoader@@QAEMPBDM@Z
  00c3f	51		 push	 ecx
  00c40	8d 8e 94 09 00
	00		 lea	 ecx, DWORD PTR [esi+2452]
  00c46	d9 1c 24	 fstp	 DWORD PTR [esp]
  00c49	e8 00 00 00 00	 call	 ??4?$CEncrypt@M@@QAEMM@Z ; CEncrypt<float>::operator=
  00c4e	dd d8		 fstp	 ST(0)
  00c50	6a 03		 push	 3

; 115  : 	m_dwTraceDuration = (DWORD)rkLoader.LoadInt_e( "trace_duration", 0 );

  00c52	c7 85 64 ff ff
	ff 99 9e 8a 89	 mov	 DWORD PTR __k$543881[ebp], -1987404135 ; 898a9e99H
  00c5c	c7 85 68 ff ff
	ff 88 b3 8f 9f	 mov	 DWORD PTR __k$543881[ebp+4], -1617972344 ; 9f8fb388H
  00c66	c7 85 6c ff ff
	ff 9f 8d 9f 83	 mov	 DWORD PTR __k$543881[ebp+8], -2086695521 ; 839f8d9fH
  00c70	66 c7 85 70 ff
	ff ff 82 82	 mov	 WORD PTR __k$543881[ebp+12], 33410 ; 00008282H
  00c79	8d 85 64 ff ff
	ff		 lea	 eax, DWORD PTR __k$543881[ebp]
  00c7f	88 9d 72 ff ff
	ff		 mov	 BYTE PTR __k$543881[ebp+14], bl
  00c85	59		 pop	 ecx
$LL2698@LoadProper:
  00c86	81 30 ed ec eb
	ea		 xor	 DWORD PTR [eax], -353637139 ; eaebecedH
  00c8c	83 c0 04	 add	 eax, 4
  00c8f	49		 dec	 ecx
  00c90	75 f4		 jne	 SHORT $LL2698@LoadProper
  00c92	6a 0c		 push	 12			; 0000000cH
  00c94	58		 pop	 eax
$LL2695@LoadProper:
  00c95	8b c8		 mov	 ecx, eax
  00c97	81 e1 03 00 00
	80		 and	 ecx, -2147483645	; 80000003H
  00c9d	79 05		 jns	 SHORT $LN4629@LoadProper
  00c9f	49		 dec	 ecx
  00ca0	83 c9 fc	 or	 ecx, -4			; fffffffcH
  00ca3	41		 inc	 ecx
$LN4629@LoadProper:
  00ca4	b2 ed		 mov	 dl, -19			; ffffffedH
  00ca6	2a d1		 sub	 dl, cl
  00ca8	30 94 05 64 ff
	ff ff		 xor	 BYTE PTR __k$543881[ebp+eax], dl
  00caf	40		 inc	 eax
  00cb0	83 f8 0e	 cmp	 eax, 14			; 0000000eH
  00cb3	7c e0		 jl	 SHORT $LL2695@LoadProper
  00cb5	53		 push	 ebx
  00cb6	8d 85 64 ff ff
	ff		 lea	 eax, DWORD PTR __k$543881[ebp]
  00cbc	50		 push	 eax
  00cbd	8b cf		 mov	 ecx, edi
  00cbf	ff 15 00 00 00
	00		 call	 DWORD PTR __imp_?LoadInt@ioINILoader@@QAEHPBDH@Z
  00cc5	89 86 f4 09 00
	00		 mov	 DWORD PTR [esi+2548], eax
  00ccb	6a 03		 push	 3

; 116  : 	m_fTraceEndRange = rkLoader.LoadFloat_e( "trace_end_range", 0.0f );

  00ccd	c7 85 28 ff ff
	ff 99 9e 8a 89	 mov	 DWORD PTR __k$543975[ebp], -1987404135 ; 898a9e99H
  00cd7	c7 85 2c ff ff
	ff 88 b3 8e 84	 mov	 DWORD PTR __k$543975[ebp+4], -2071022712 ; 848eb388H
  00ce1	c7 85 30 ff ff
	ff 89 b3 99 8b	 mov	 DWORD PTR __k$543975[ebp+8], -1952861303 ; 8b99b389H
  00ceb	8d 85 28 ff ff
	ff		 lea	 eax, DWORD PTR __k$543975[ebp]
  00cf1	c7 85 34 ff ff
	ff 83 8b 8e 00	 mov	 DWORD PTR __k$543975[ebp+12], 9341827 ; 008e8b83H
  00cfb	59		 pop	 ecx
$LL2804@LoadProper:
  00cfc	81 30 ed ec eb
	ea		 xor	 DWORD PTR [eax], -353637139 ; eaebecedH
  00d02	83 c0 04	 add	 eax, 4
  00d05	49		 dec	 ecx
  00d06	75 f4		 jne	 SHORT $LL2804@LoadProper
  00d08	6a 0c		 push	 12			; 0000000cH
  00d0a	58		 pop	 eax
$LL2801@LoadProper:
  00d0b	8b c8		 mov	 ecx, eax
  00d0d	81 e1 03 00 00
	80		 and	 ecx, -2147483645	; 80000003H
  00d13	79 05		 jns	 SHORT $LN4630@LoadProper
  00d15	49		 dec	 ecx
  00d16	83 c9 fc	 or	 ecx, -4			; fffffffcH
  00d19	41		 inc	 ecx
$LN4630@LoadProper:
  00d1a	b2 ed		 mov	 dl, -19			; ffffffedH
  00d1c	2a d1		 sub	 dl, cl
  00d1e	30 94 05 28 ff
	ff ff		 xor	 BYTE PTR __k$543975[ebp+eax], dl
  00d25	40		 inc	 eax
  00d26	83 f8 0f	 cmp	 eax, 15			; 0000000fH
  00d29	7c e0		 jl	 SHORT $LL2801@LoadProper
  00d2b	0f 57 c0	 xorps	 xmm0, xmm0
  00d2e	51		 push	 ecx
  00d2f	8d 85 28 ff ff
	ff		 lea	 eax, DWORD PTR __k$543975[ebp]
  00d35	f3 0f 11 04 24	 movss	 DWORD PTR [esp], xmm0
  00d3a	50		 push	 eax
  00d3b	8b cf		 mov	 ecx, edi
  00d3d	ff 15 00 00 00
	00		 call	 DWORD PTR __imp_?LoadFloat@ioINILoader@@QAEMPBDM@Z
  00d43	51		 push	 ecx
  00d44	8d 8e c4 09 00
	00		 lea	 ecx, DWORD PTR [esi+2500]
  00d4a	d9 1c 24	 fstp	 DWORD PTR [esp]
  00d4d	e8 00 00 00 00	 call	 ??4?$CEncrypt@M@@QAEMM@Z ; CEncrypt<float>::operator=
  00d52	dd d8		 fstp	 ST(0)

; 117  : 	
; 118  : 	m_fTargetTracePosRate = rkLoader.LoadFloat_e( "target_trace_pos_rate", FLOAT05 );

  00d54	b8 05 00 00 00	 mov	 eax, 5
  00d59	8b d0		 mov	 edx, eax
  00d5b	b8 0a 00 00 00	 mov	 eax, 10			; 0000000aH
  00d60	6a 05		 push	 5
  00d62	89 85 2c fa ff
	ff		 mov	 DWORD PTR $T544092[ebp], eax
  00d68	c7 85 54 fd ff
	ff 99 8d 99 8d	 mov	 DWORD PTR __k$544108[ebp], -1919316583 ; 8d998d99H
  00d72	c7 85 58 fd ff
	ff 88 98 b4 9e	 mov	 DWORD PTR __k$544108[ebp+4], -1632331640 ; 9eb49888H
  00d7c	c7 85 5c fd ff
	ff 9f 8d 88 8f	 mov	 DWORD PTR __k$544108[ebp+8], -1886876257 ; 8f888d9fH
  00d86	c7 85 60 fd ff
	ff b2 9c 84 99	 mov	 DWORD PTR __k$544108[ebp+12], -1719362382 ; 99849cb2H
  00d90	c7 85 64 fd ff
	ff b2 9e 8a 9e	 mov	 DWORD PTR __k$544108[ebp+16], -1635082574 ; 9e8a9eb2H
  00d9a	8d 8d 54 fd ff
	ff		 lea	 ecx, DWORD PTR __k$544108[ebp]
  00da0	66 c7 85 68 fd
	ff ff 88 00	 mov	 WORD PTR __k$544108[ebp+20], 136 ; 00000088H
  00da9	58		 pop	 eax
$LL2914@LoadProper:
  00daa	81 31 ed ec eb
	ea		 xor	 DWORD PTR [ecx], -353637139 ; eaebecedH
  00db0	83 c1 04	 add	 ecx, 4
  00db3	48		 dec	 eax
  00db4	75 f4		 jne	 SHORT $LL2914@LoadProper
  00db6	80 b5 68 fd ff
	ff ed		 xor	 BYTE PTR __k$544108[ebp+20], -19 ; ffffffedH
  00dbd	89 95 24 fa ff
	ff		 mov	 DWORD PTR tv37189[ebp], edx
  00dc3	db 85 24 fa ff
	ff		 fild	 DWORD PTR tv37189[ebp]
  00dc9	85 d2		 test	 edx, edx
  00dcb	79 06		 jns	 SHORT $LN4631@LoadProper
  00dcd	d8 05 00 00 00
	00		 fadd	 DWORD PTR __real@4f800000
$LN4631@LoadProper:
  00dd3	8b 85 2c fa ff
	ff		 mov	 eax, DWORD PTR $T544092[ebp]
  00dd9	db 85 2c fa ff
	ff		 fild	 DWORD PTR $T544092[ebp]
  00ddf	85 c0		 test	 eax, eax
  00de1	79 06		 jns	 SHORT $LN4632@LoadProper
  00de3	d8 05 00 00 00
	00		 fadd	 DWORD PTR __real@4f800000
$LN4632@LoadProper:
  00de9	de f9		 fdivp	 ST(1), ST(0)
  00deb	51		 push	 ecx
  00dec	8d 85 54 fd ff
	ff		 lea	 eax, DWORD PTR __k$544108[ebp]
  00df2	8b cf		 mov	 ecx, edi
  00df4	d9 9d 2c fa ff
	ff		 fstp	 DWORD PTR tv37181[ebp]
  00dfa	d9 85 2c fa ff
	ff		 fld	 DWORD PTR tv37181[ebp]
  00e00	d9 1c 24	 fstp	 DWORD PTR [esp]
  00e03	50		 push	 eax
  00e04	ff 15 00 00 00
	00		 call	 DWORD PTR __imp_?LoadFloat@ioINILoader@@QAEMPBDM@Z
  00e0a	51		 push	 ecx
  00e0b	8d 8e fc 09 00
	00		 lea	 ecx, DWORD PTR [esi+2556]
  00e11	d9 1c 24	 fstp	 DWORD PTR [esp]
  00e14	e8 00 00 00 00	 call	 ??4?$CEncrypt@M@@QAEMM@Z ; CEncrypt<float>::operator=
  00e19	dd d8		 fstp	 ST(0)
  00e1b	6a 06		 push	 6

; 119  : 	m_fDownTargetTracePosRate = rkLoader.LoadFloat_e( "down_target_trace_pos_rate", 0.0f );

  00e1d	c7 85 e0 fc ff
	ff 89 83 9c 84	 mov	 DWORD PTR __k$544233[ebp], -2070117495 ; 849c8389H
  00e27	c7 85 e4 fc ff
	ff b2 98 8a 98	 mov	 DWORD PTR __k$544233[ebp+4], -1735747406 ; 988a98b2H
  00e31	c7 85 e8 fc ff
	ff 8a 89 9f b5	 mov	 DWORD PTR __k$544233[ebp+8], -1247835766 ; b59f898aH
  00e3b	c7 85 ec fc ff
	ff 99 9e 8a 89	 mov	 DWORD PTR __k$544233[ebp+12], -1987404135 ; 898a9e99H
  00e45	c7 85 f0 fc ff
	ff 88 b3 9b 85	 mov	 DWORD PTR __k$544233[ebp+16], -2053393528 ; 859bb388H
  00e4f	c7 85 f4 fc ff
	ff 9e b3 99 8b	 mov	 DWORD PTR __k$544233[ebp+20], -1952861282 ; 8b99b39eH
  00e59	66 c7 85 f8 fc
	ff ff 99 89	 mov	 WORD PTR __k$544233[ebp+24], 35225 ; 00008999H
  00e62	8d 85 e0 fc ff
	ff		 lea	 eax, DWORD PTR __k$544233[ebp]
  00e68	88 9d fa fc ff
	ff		 mov	 BYTE PTR __k$544233[ebp+26], bl
  00e6e	59		 pop	 ecx
$LL3020@LoadProper:
  00e6f	81 30 ed ec eb
	ea		 xor	 DWORD PTR [eax], -353637139 ; eaebecedH
  00e75	83 c0 04	 add	 eax, 4
  00e78	49		 dec	 ecx
  00e79	75 f4		 jne	 SHORT $LL3020@LoadProper
  00e7b	6a 18		 push	 24			; 00000018H
  00e7d	58		 pop	 eax
$LL3017@LoadProper:
  00e7e	8b c8		 mov	 ecx, eax
  00e80	81 e1 03 00 00
	80		 and	 ecx, -2147483645	; 80000003H
  00e86	79 05		 jns	 SHORT $LN4633@LoadProper
  00e88	49		 dec	 ecx
  00e89	83 c9 fc	 or	 ecx, -4			; fffffffcH
  00e8c	41		 inc	 ecx
$LN4633@LoadProper:
  00e8d	b2 ed		 mov	 dl, -19			; ffffffedH
  00e8f	2a d1		 sub	 dl, cl
  00e91	30 94 05 e0 fc
	ff ff		 xor	 BYTE PTR __k$544233[ebp+eax], dl
  00e98	40		 inc	 eax
  00e99	83 f8 1a	 cmp	 eax, 26			; 0000001aH
  00e9c	7c e0		 jl	 SHORT $LL3017@LoadProper
  00e9e	0f 57 c0	 xorps	 xmm0, xmm0
  00ea1	51		 push	 ecx
  00ea2	8d 85 e0 fc ff
	ff		 lea	 eax, DWORD PTR __k$544233[ebp]
  00ea8	f3 0f 11 04 24	 movss	 DWORD PTR [esp], xmm0
  00ead	50		 push	 eax
  00eae	8b cf		 mov	 ecx, edi
  00eb0	ff 15 00 00 00
	00		 call	 DWORD PTR __imp_?LoadFloat@ioINILoader@@QAEMPBDM@Z
  00eb6	51		 push	 ecx
  00eb7	8d 8e 2c 0a 00
	00		 lea	 ecx, DWORD PTR [esi+2604]
  00ebd	d9 1c 24	 fstp	 DWORD PTR [esp]
  00ec0	e8 00 00 00 00	 call	 ??4?$CEncrypt@M@@QAEMM@Z ; CEncrypt<float>::operator=
  00ec5	dd d8		 fstp	 ST(0)
  00ec7	6a 04		 push	 4

; 120  : 	
; 121  : 	m_fPreUpHeight =rkLoader.LoadFloat_e("trace_pre_up_height", 50.0f );

  00ec9	c7 85 88 fd ff
	ff 99 9e 8a 89	 mov	 DWORD PTR __k$544358[ebp], -1987404135 ; 898a9e99H
  00ed3	c7 85 8c fd ff
	ff 88 b3 9b 98	 mov	 DWORD PTR __k$544358[ebp+4], -1734626424 ; 989bb388H
  00edd	c7 85 90 fd ff
	ff 88 b3 9e 9a	 mov	 DWORD PTR __k$544358[ebp+8], -1700875384 ; 9a9eb388H
  00ee7	c7 85 94 fd ff
	ff b2 84 8e 83	 mov	 DWORD PTR __k$544358[ebp+12], -2087811918 ; 838e84b2H
  00ef1	8d 85 88 fd ff
	ff		 lea	 eax, DWORD PTR __k$544358[ebp]
  00ef7	c7 85 98 fd ff
	ff 8a 84 9f 00	 mov	 DWORD PTR __k$544358[ebp+16], 10454154 ; 009f848aH
  00f01	59		 pop	 ecx
$LL3126@LoadProper:
  00f02	81 30 ed ec eb
	ea		 xor	 DWORD PTR [eax], -353637139 ; eaebecedH
  00f08	83 c0 04	 add	 eax, 4
  00f0b	49		 dec	 ecx
  00f0c	75 f4		 jne	 SHORT $LL3126@LoadProper
  00f0e	6a 10		 push	 16			; 00000010H
  00f10	58		 pop	 eax
$LL3123@LoadProper:
  00f11	8b c8		 mov	 ecx, eax
  00f13	81 e1 03 00 00
	80		 and	 ecx, -2147483645	; 80000003H
  00f19	79 05		 jns	 SHORT $LN4634@LoadProper
  00f1b	49		 dec	 ecx
  00f1c	83 c9 fc	 or	 ecx, -4			; fffffffcH
  00f1f	41		 inc	 ecx
$LN4634@LoadProper:
  00f20	b2 ed		 mov	 dl, -19			; ffffffedH
  00f22	2a d1		 sub	 dl, cl
  00f24	30 94 05 88 fd
	ff ff		 xor	 BYTE PTR __k$544358[ebp+eax], dl
  00f2b	40		 inc	 eax
  00f2c	83 f8 13	 cmp	 eax, 19			; 00000013H
  00f2f	7c e0		 jl	 SHORT $LL3123@LoadProper
  00f31	f3 0f 10 05 00
	00 00 00	 movss	 xmm0, DWORD PTR __real@42480000
  00f39	51		 push	 ecx
  00f3a	8d 85 88 fd ff
	ff		 lea	 eax, DWORD PTR __k$544358[ebp]
  00f40	f3 0f 11 04 24	 movss	 DWORD PTR [esp], xmm0
  00f45	50		 push	 eax
  00f46	8b cf		 mov	 ecx, edi
  00f48	ff 15 00 00 00
	00		 call	 DWORD PTR __imp_?LoadFloat@ioINILoader@@QAEMPBDM@Z
  00f4e	51		 push	 ecx
  00f4f	8d 8e d4 08 00
	00		 lea	 ecx, DWORD PTR [esi+2260]
  00f55	d9 1c 24	 fstp	 DWORD PTR [esp]
  00f58	e8 00 00 00 00	 call	 ??4?$CEncrypt@M@@QAEMM@Z ; CEncrypt<float>::operator=
  00f5d	dd d8		 fstp	 ST(0)
  00f5f	6a 02		 push	 2

; 122  : 
; 123  : 	// Extend
; 124  : 	m_MineType = (MineType)rkLoader.LoadInt_e( "mine_type", MIT_MINE );

  00f61	c7 45 e0 80 85
	85 8f		 mov	 DWORD PTR __k$544483[ebp], -1887074944 ; 8f858580H
  00f68	c7 45 e4 b2 98
	92 9a		 mov	 DWORD PTR __k$544483[ebp+4], -1701668686 ; 9a9298b2H
  00f6f	8d 45 e0	 lea	 eax, DWORD PTR __k$544483[ebp]
  00f72	66 c7 45 e8 88
	00		 mov	 WORD PTR __k$544483[ebp+8], 136 ; 00000088H
  00f78	59		 pop	 ecx
$LL3232@LoadProper:
  00f79	81 30 ed ec eb
	ea		 xor	 DWORD PTR [eax], -353637139 ; eaebecedH
  00f7f	83 c0 04	 add	 eax, 4
  00f82	49		 dec	 ecx
  00f83	75 f4		 jne	 SHORT $LL3232@LoadProper
  00f85	80 75 e8 ed	 xor	 BYTE PTR __k$544483[ebp+8], -19 ; ffffffedH
  00f89	53		 push	 ebx
  00f8a	8d 45 e0	 lea	 eax, DWORD PTR __k$544483[ebp]
  00f8d	50		 push	 eax
  00f8e	8b cf		 mov	 ecx, edi
  00f90	ff 15 00 00 00
	00		 call	 DWORD PTR __imp_?LoadInt@ioINILoader@@QAEHPBDH@Z
  00f96	89 86 a0 0b 00
	00		 mov	 DWORD PTR [esi+2976], eax
  00f9c	6a 04		 push	 4

; 125  : 	m_bNoMineExplosion = rkLoader.LoadBool_e( "no_explosion_mine", false );

  00f9e	c7 85 c0 fe ff
	ff 83 83 b4 8f	 mov	 DWORD PTR __k$544608[ebp], -1883995261 ; 8fb48383H
  00fa8	c7 85 c4 fe ff
	ff 95 9c 87 85	 mov	 DWORD PTR __k$544608[ebp+4], -2054710123 ; 85879c95H
  00fb2	c7 85 c8 fe ff
	ff 9e 85 84 84	 mov	 DWORD PTR __k$544608[ebp+8], -2071689826 ; 8484859eH
  00fbc	c7 85 cc fe ff
	ff b2 81 82 84	 mov	 DWORD PTR __k$544608[ebp+12], -2071821902 ; 848281b2H
  00fc6	8d 85 c0 fe ff
	ff		 lea	 eax, DWORD PTR __k$544608[ebp]
  00fcc	66 c7 85 d0 fe
	ff ff 88 00	 mov	 WORD PTR __k$544608[ebp+16], 136 ; 00000088H
  00fd5	59		 pop	 ecx
$LL3338@LoadProper:
  00fd6	81 30 ed ec eb
	ea		 xor	 DWORD PTR [eax], -353637139 ; eaebecedH
  00fdc	83 c0 04	 add	 eax, 4
  00fdf	49		 dec	 ecx
  00fe0	75 f4		 jne	 SHORT $LL3338@LoadProper
  00fe2	80 b5 d0 fe ff
	ff ed		 xor	 BYTE PTR __k$544608[ebp+16], -19 ; ffffffedH
  00fe9	53		 push	 ebx
  00fea	8d 85 c0 fe ff
	ff		 lea	 eax, DWORD PTR __k$544608[ebp]
  00ff0	50		 push	 eax
  00ff1	8b cf		 mov	 ecx, edi
  00ff3	ff 15 00 00 00
	00		 call	 DWORD PTR __imp_?LoadBool@ioINILoader@@QAE_NPBD_N@Z
  00ff9	88 86 66 0b 00
	00		 mov	 BYTE PTR [esi+2918], al
  00fff	6a 03		 push	 3

; 126  : 	m_bNoSencingMine = rkLoader.LoadBool_e( "no_sensing_mine", false );

  01001	c7 85 d8 fe ff
	ff 83 83 b4 99	 mov	 DWORD PTR __k$544733[ebp], -1716223101 ; 99b48383H
  0100b	c7 85 dc fe ff
	ff 88 82 98 83	 mov	 DWORD PTR __k$544733[ebp+4], -2087157112 ; 83988288H
  01015	c7 85 e0 fe ff
	ff 83 8b b4 87	 mov	 DWORD PTR __k$544733[ebp+8], -2018210941 ; 87b48b83H
  0101f	8d 85 d8 fe ff
	ff		 lea	 eax, DWORD PTR __k$544733[ebp]
  01025	c7 85 e4 fe ff
	ff 84 82 8e 00	 mov	 DWORD PTR __k$544733[ebp+12], 9339524 ; 008e8284H
  0102f	59		 pop	 ecx
$LL3444@LoadProper:
  01030	81 30 ed ec eb
	ea		 xor	 DWORD PTR [eax], -353637139 ; eaebecedH
  01036	83 c0 04	 add	 eax, 4
  01039	49		 dec	 ecx
  0103a	75 f4		 jne	 SHORT $LL3444@LoadProper
  0103c	6a 0c		 push	 12			; 0000000cH
  0103e	58		 pop	 eax
$LL3441@LoadProper:
  0103f	8b c8		 mov	 ecx, eax
  01041	81 e1 03 00 00
	80		 and	 ecx, -2147483645	; 80000003H
  01047	79 05		 jns	 SHORT $LN4635@LoadProper
  01049	49		 dec	 ecx
  0104a	83 c9 fc	 or	 ecx, -4			; fffffffcH
  0104d	41		 inc	 ecx
$LN4635@LoadProper:
  0104e	b2 ed		 mov	 dl, -19			; ffffffedH
  01050	2a d1		 sub	 dl, cl
  01052	30 94 05 d8 fe
	ff ff		 xor	 BYTE PTR __k$544733[ebp+eax], dl
  01059	40		 inc	 eax
  0105a	83 f8 0f	 cmp	 eax, 15			; 0000000fH
  0105d	7c e0		 jl	 SHORT $LL3441@LoadProper
  0105f	53		 push	 ebx
  01060	8d 85 d8 fe ff
	ff		 lea	 eax, DWORD PTR __k$544733[ebp]
  01066	50		 push	 eax
  01067	8b cf		 mov	 ecx, edi
  01069	ff 15 00 00 00
	00		 call	 DWORD PTR __imp_?LoadBool@ioINILoader@@QAE_NPBD_N@Z
  0106f	88 86 65 0b 00
	00		 mov	 BYTE PTR [esi+2917], al
  01075	6a 02		 push	 2

; 127  : 	m_bNoMineUp = rkLoader.LoadBool_e( "no_mine_up", false );

  01077	c7 45 d0 83 83
	b4 87		 mov	 DWORD PTR __k$544902[ebp], -2018212989 ; 87b48383H
  0107e	c7 45 d4 84 82
	8e b5		 mov	 DWORD PTR __k$544902[ebp+4], -1248951676 ; b58e8284H
  01085	66 c7 45 d8 98
	9c		 mov	 WORD PTR __k$544902[ebp+8], 40088 ; 00009c98H
  0108b	8d 45 d0	 lea	 eax, DWORD PTR __k$544902[ebp]
  0108e	88 5d da	 mov	 BYTE PTR __k$544902[ebp+10], bl
  01091	59		 pop	 ecx
$LL3550@LoadProper:
  01092	81 30 ed ec eb
	ea		 xor	 DWORD PTR [eax], -353637139 ; eaebecedH
  01098	83 c0 04	 add	 eax, 4
  0109b	49		 dec	 ecx
  0109c	75 f4		 jne	 SHORT $LL3550@LoadProper
  0109e	6a 08		 push	 8
  010a0	58		 pop	 eax
$LL3547@LoadProper:
  010a1	8b c8		 mov	 ecx, eax
  010a3	81 e1 03 00 00
	80		 and	 ecx, -2147483645	; 80000003H
  010a9	79 05		 jns	 SHORT $LN4636@LoadProper
  010ab	49		 dec	 ecx
  010ac	83 c9 fc	 or	 ecx, -4			; fffffffcH
  010af	41		 inc	 ecx
$LN4636@LoadProper:
  010b0	b2 ed		 mov	 dl, -19			; ffffffedH
  010b2	2a d1		 sub	 dl, cl
  010b4	30 54 05 d0	 xor	 BYTE PTR __k$544902[ebp+eax], dl
  010b8	40		 inc	 eax
  010b9	83 f8 0a	 cmp	 eax, 10			; 0000000aH
  010bc	7c e3		 jl	 SHORT $LL3547@LoadProper
  010be	53		 push	 ebx
  010bf	8d 45 d0	 lea	 eax, DWORD PTR __k$544902[ebp]
  010c2	50		 push	 eax
  010c3	8b cf		 mov	 ecx, edi
  010c5	ff 15 00 00 00
	00		 call	 DWORD PTR __imp_?LoadBool@ioINILoader@@QAE_NPBD_N@Z
  010cb	88 86 67 0b 00
	00		 mov	 BYTE PTR [esi+2919], al
  010d1	6a 05		 push	 5

; 128  : 	m_bUseTeamTargetBuff = rkLoader.LoadBool_e( "use_team_target_buff", false );

  010d3	c7 85 90 fc ff
	ff 98 9f 8e b5	 mov	 DWORD PTR __k$544983[ebp], -1248944232 ; b58e9f98H
  010dd	c7 85 94 fc ff
	ff 99 89 8a 87	 mov	 DWORD PTR __k$544983[ebp+4], -2020963943 ; 878a8999H
  010e7	c7 85 98 fc ff
	ff b2 98 8a 98	 mov	 DWORD PTR __k$544983[ebp+8], -1735747406 ; 988a98b2H
  010f1	c7 85 9c fc ff
	ff 8a 89 9f b5	 mov	 DWORD PTR __k$544983[ebp+12], -1247835766 ; b59f898aH
  010fb	c7 85 a0 fc ff
	ff 8f 99 8d 8c	 mov	 DWORD PTR __k$544983[ebp+16], -1936877169 ; 8c8d998fH
  01105	8d 85 90 fc ff
	ff		 lea	 eax, DWORD PTR __k$544983[ebp]
  0110b	88 9d a4 fc ff
	ff		 mov	 BYTE PTR __k$544983[ebp+20], bl
  01111	59		 pop	 ecx
$LL3656@LoadProper:
  01112	81 30 ed ec eb
	ea		 xor	 DWORD PTR [eax], -353637139 ; eaebecedH
  01118	83 c0 04	 add	 eax, 4
  0111b	49		 dec	 ecx
  0111c	75 f4		 jne	 SHORT $LL3656@LoadProper
  0111e	53		 push	 ebx
  0111f	8d 85 90 fc ff
	ff		 lea	 eax, DWORD PTR __k$544983[ebp]
  01125	50		 push	 eax
  01126	8b cf		 mov	 ecx, edi
  01128	ff 15 00 00 00
	00		 call	 DWORD PTR __imp_?LoadBool@ioINILoader@@QAE_NPBD_N@Z
  0112e	88 86 64 0b 00
	00		 mov	 BYTE PTR [esi+2916], al
  01134	6a 03		 push	 3

; 129  : 	m_bNormalDead = rkLoader.LoadBool_e( "use_normal_dead", false );

  01136	c7 85 ec fe ff
	ff 98 9f 8e b5	 mov	 DWORD PTR __k$545121[ebp], -1248944232 ; b58e9f98H
  01140	c7 85 f0 fe ff
	ff 83 83 99 87	 mov	 DWORD PTR __k$545121[ebp+4], -2019982461 ; 87998383H
  0114a	c7 85 f4 fe ff
	ff 8c 80 b4 8e	 mov	 DWORD PTR __k$545121[ebp+8], -1900773236 ; 8eb4808cH
  01154	8d 85 ec fe ff
	ff		 lea	 eax, DWORD PTR __k$545121[ebp]
  0115a	c7 85 f8 fe ff
	ff 88 8d 8f 00	 mov	 DWORD PTR __k$545121[ebp+12], 9407880 ; 008f8d88H
  01164	59		 pop	 ecx
$LL3762@LoadProper:
  01165	81 30 ed ec eb
	ea		 xor	 DWORD PTR [eax], -353637139 ; eaebecedH
  0116b	83 c0 04	 add	 eax, 4
  0116e	49		 dec	 ecx
  0116f	75 f4		 jne	 SHORT $LL3762@LoadProper
  01171	6a 0c		 push	 12			; 0000000cH
  01173	58		 pop	 eax
$LL3759@LoadProper:
  01174	8b c8		 mov	 ecx, eax
  01176	81 e1 03 00 00
	80		 and	 ecx, -2147483645	; 80000003H
  0117c	79 05		 jns	 SHORT $LN4637@LoadProper
  0117e	49		 dec	 ecx
  0117f	83 c9 fc	 or	 ecx, -4			; fffffffcH
  01182	41		 inc	 ecx
$LN4637@LoadProper:
  01183	b2 ed		 mov	 dl, -19			; ffffffedH
  01185	2a d1		 sub	 dl, cl
  01187	30 94 05 ec fe
	ff ff		 xor	 BYTE PTR __k$545121[ebp+eax], dl
  0118e	40		 inc	 eax
  0118f	83 f8 0f	 cmp	 eax, 15			; 0000000fH
  01192	7c e0		 jl	 SHORT $LL3759@LoadProper
  01194	53		 push	 ebx
  01195	8d 85 ec fe ff
	ff		 lea	 eax, DWORD PTR __k$545121[ebp]
  0119b	50		 push	 eax
  0119c	8b cf		 mov	 ecx, edi
  0119e	ff 15 00 00 00
	00		 call	 DWORD PTR __imp_?LoadBool@ioINILoader@@QAE_NPBD_N@Z
  011a4	88 86 68 0b 00
	00		 mov	 BYTE PTR [esi+2920], al
  011aa	6a 04		 push	 4

; 130  : 	
; 131  : 	rkLoader.LoadString_e( "trace_start_effect", "", szBuf, MAX_PATH );

  011ac	c7 85 60 fe ff
	ff 99 9e 8a 89	 mov	 DWORD PTR __k$545233[ebp], -1987404135 ; 898a9e99H
  011b6	c7 85 64 fe ff
	ff 88 b3 98 9e	 mov	 DWORD PTR __k$545233[ebp+4], -1634159736 ; 9e98b388H
  011c0	c7 85 68 fe ff
	ff 8c 9e 9f b5	 mov	 DWORD PTR __k$545233[ebp+8], -1247830388 ; b59f9e8cH
  011ca	c7 85 6c fe ff
	ff 88 8a 8d 8f	 mov	 DWORD PTR __k$545233[ebp+12], -1886549368 ; 8f8d8a88H
  011d4	66 c7 85 70 fe
	ff ff 8e 98	 mov	 WORD PTR __k$545233[ebp+16], 39054 ; 0000988eH
  011dd	8d 85 60 fe ff
	ff		 lea	 eax, DWORD PTR __k$545233[ebp]
  011e3	88 9d 72 fe ff
	ff		 mov	 BYTE PTR __k$545233[ebp+18], bl
  011e9	59		 pop	 ecx
$LL3868@LoadProper:
  011ea	81 30 ed ec eb
	ea		 xor	 DWORD PTR [eax], -353637139 ; eaebecedH
  011f0	83 c0 04	 add	 eax, 4
  011f3	49		 dec	 ecx
  011f4	75 f4		 jne	 SHORT $LL3868@LoadProper
  011f6	6a 10		 push	 16			; 00000010H
  011f8	58		 pop	 eax
$LL3865@LoadProper:
  011f9	8b c8		 mov	 ecx, eax
  011fb	81 e1 03 00 00
	80		 and	 ecx, -2147483645	; 80000003H
  01201	79 05		 jns	 SHORT $LN4638@LoadProper
  01203	49		 dec	 ecx
  01204	83 c9 fc	 or	 ecx, -4			; fffffffcH
  01207	41		 inc	 ecx
$LN4638@LoadProper:
  01208	b2 ed		 mov	 dl, -19			; ffffffedH
  0120a	2a d1		 sub	 dl, cl
  0120c	30 94 05 60 fe
	ff ff		 xor	 BYTE PTR __k$545233[ebp+eax], dl
  01213	40		 inc	 eax
  01214	83 f8 12	 cmp	 eax, 18			; 00000012H
  01217	7c e0		 jl	 SHORT $LL3865@LoadProper
  01219	68 04 01 00 00	 push	 260			; 00000104H
  0121e	8d 85 34 fb ff
	ff		 lea	 eax, DWORD PTR _szBuf$[ebp]
  01224	50		 push	 eax
  01225	68 00 00 00 00	 push	 OFFSET ??_C@_00CNPNBAHC@?$AA@
  0122a	8d 85 60 fe ff
	ff		 lea	 eax, DWORD PTR __k$545233[ebp]
  01230	50		 push	 eax
  01231	8b cf		 mov	 ecx, edi
  01233	ff 15 00 00 00
	00		 call	 DWORD PTR __imp_?LoadStringA@ioINILoader@@QAEXPBD0PADH@Z

; 132  : 	m_szTraceStartEffect = szBuf;

  01239	8d 85 34 fb ff
	ff		 lea	 eax, DWORD PTR _szBuf$[ebp]
  0123f	50		 push	 eax
  01240	8d 8e a4 0b 00
	00		 lea	 ecx, DWORD PTR [esi+2980]
  01246	ff 15 00 00 00
	00		 call	 DWORD PTR __imp_??4ioHashString@@QAEAAV0@PBD@Z
  0124c	6a 04		 push	 4

; 133  : 
; 134  : 	rkLoader.LoadString_e( "trace_spray_effect", "", szBuf, MAX_PATH );

  0124e	c7 85 e8 fd ff
	ff 99 9e 8a 89	 mov	 DWORD PTR __k$545358[ebp], -1987404135 ; 898a9e99H
  01258	c7 85 ec fd ff
	ff 88 b3 98 9a	 mov	 DWORD PTR __k$545358[ebp+4], -1701268600 ; 9a98b388H
  01262	c7 85 f0 fd ff
	ff 9f 8d 92 b5	 mov	 DWORD PTR __k$545358[ebp+8], -1248686689 ; b5928d9fH
  0126c	c7 85 f4 fd ff
	ff 88 8a 8d 8f	 mov	 DWORD PTR __k$545358[ebp+12], -1886549368 ; 8f8d8a88H
  01276	66 c7 85 f8 fd
	ff ff 8e 98	 mov	 WORD PTR __k$545358[ebp+16], 39054 ; 0000988eH
  0127f	8d 85 e8 fd ff
	ff		 lea	 eax, DWORD PTR __k$545358[ebp]
  01285	88 9d fa fd ff
	ff		 mov	 BYTE PTR __k$545358[ebp+18], bl
  0128b	59		 pop	 ecx
$LL3974@LoadProper:
  0128c	81 30 ed ec eb
	ea		 xor	 DWORD PTR [eax], -353637139 ; eaebecedH
  01292	83 c0 04	 add	 eax, 4
  01295	49		 dec	 ecx
  01296	75 f4		 jne	 SHORT $LL3974@LoadProper
  01298	6a 10		 push	 16			; 00000010H
  0129a	58		 pop	 eax
$LL3971@LoadProper:
  0129b	8b c8		 mov	 ecx, eax
  0129d	81 e1 03 00 00
	80		 and	 ecx, -2147483645	; 80000003H
  012a3	79 05		 jns	 SHORT $LN4639@LoadProper
  012a5	49		 dec	 ecx
  012a6	83 c9 fc	 or	 ecx, -4			; fffffffcH
  012a9	41		 inc	 ecx
$LN4639@LoadProper:
  012aa	b2 ed		 mov	 dl, -19			; ffffffedH
  012ac	2a d1		 sub	 dl, cl
  012ae	30 94 05 e8 fd
	ff ff		 xor	 BYTE PTR __k$545358[ebp+eax], dl
  012b5	40		 inc	 eax
  012b6	83 f8 12	 cmp	 eax, 18			; 00000012H
  012b9	7c e0		 jl	 SHORT $LL3971@LoadProper
  012bb	68 04 01 00 00	 push	 260			; 00000104H
  012c0	8d 85 34 fb ff
	ff		 lea	 eax, DWORD PTR _szBuf$[ebp]
  012c6	50		 push	 eax
  012c7	68 00 00 00 00	 push	 OFFSET ??_C@_00CNPNBAHC@?$AA@
  012cc	8d 85 e8 fd ff
	ff		 lea	 eax, DWORD PTR __k$545358[ebp]
  012d2	50		 push	 eax
  012d3	8b cf		 mov	 ecx, edi
  012d5	ff 15 00 00 00
	00		 call	 DWORD PTR __imp_?LoadStringA@ioINILoader@@QAEXPBD0PADH@Z

; 135  : 	m_szFireSprayEffect = szBuf;

  012db	8d 85 34 fb ff
	ff		 lea	 eax, DWORD PTR _szBuf$[ebp]
  012e1	50		 push	 eax
  012e2	8d 8e b4 0b 00
	00		 lea	 ecx, DWORD PTR [esi+2996]
  012e8	ff 15 00 00 00
	00		 call	 DWORD PTR __imp_??4ioHashString@@QAEAAV0@PBD@Z
  012ee	6a 04		 push	 4

; 136  : 
; 137  : 	rkLoader.LoadString_e( "trace_start_sound", "", szBuf, MAX_PATH );

  012f0	c7 85 78 fe ff
	ff 99 9e 8a 89	 mov	 DWORD PTR __k$545483[ebp], -1987404135 ; 898a9e99H
  012fa	c7 85 7c fe ff
	ff 88 b3 98 9e	 mov	 DWORD PTR __k$545483[ebp+4], -1634159736 ; 9e98b388H
  01304	c7 85 80 fe ff
	ff 8c 9e 9f b5	 mov	 DWORD PTR __k$545483[ebp+8], -1247830388 ; b59f9e8cH
  0130e	c7 85 84 fe ff
	ff 9e 83 9e 84	 mov	 DWORD PTR __k$545483[ebp+12], -2069986402 ; 849e839eH
  01318	8d 85 78 fe ff
	ff		 lea	 eax, DWORD PTR __k$545483[ebp]
  0131e	66 c7 85 88 fe
	ff ff 89 00	 mov	 WORD PTR __k$545483[ebp+16], 137 ; 00000089H
  01327	59		 pop	 ecx
$LL4080@LoadProper:
  01328	81 30 ed ec eb
	ea		 xor	 DWORD PTR [eax], -353637139 ; eaebecedH
  0132e	83 c0 04	 add	 eax, 4
  01331	49		 dec	 ecx
  01332	75 f4		 jne	 SHORT $LL4080@LoadProper
  01334	80 b5 88 fe ff
	ff ed		 xor	 BYTE PTR __k$545483[ebp+16], -19 ; ffffffedH
  0133b	68 04 01 00 00	 push	 260			; 00000104H
  01340	8d 85 34 fb ff
	ff		 lea	 eax, DWORD PTR _szBuf$[ebp]
  01346	50		 push	 eax
  01347	68 00 00 00 00	 push	 OFFSET ??_C@_00CNPNBAHC@?$AA@
  0134c	8d 85 78 fe ff
	ff		 lea	 eax, DWORD PTR __k$545483[ebp]
  01352	50		 push	 eax
  01353	8b cf		 mov	 ecx, edi
  01355	ff 15 00 00 00
	00		 call	 DWORD PTR __imp_?LoadStringA@ioINILoader@@QAEXPBD0PADH@Z

; 138  : 	m_szTraceStartSound = szBuf;

  0135b	8d 85 34 fb ff
	ff		 lea	 eax, DWORD PTR _szBuf$[ebp]
  01361	50		 push	 eax
  01362	8d 8e d8 0b 00
	00		 lea	 ecx, DWORD PTR [esi+3032]
  01368	ff 15 00 00 00
	00		 call	 DWORD PTR __imp_??4ioHashString@@QAEAAV0@PBD@Z
  0136e	6a 05		 push	 5

; 139  : 
; 140  : 	//Buff List
; 141  : 	// Air
; 142  : 	int iAirCount = rkLoader.LoadInt_e( "red_target_air_buff_cnt", 0 );

  01370	c7 85 00 fd ff
	ff 9f 89 8f b5	 mov	 DWORD PTR __k$545608[ebp], -1248884321 ; b58f899fH
  0137a	c7 85 04 fd ff
	ff 99 8d 99 8d	 mov	 DWORD PTR __k$545608[ebp+4], -1919316583 ; 8d998d99H
  01384	c7 85 08 fd ff
	ff 88 98 b4 8b	 mov	 DWORD PTR __k$545608[ebp+8], -1951098744 ; 8bb49888H
  0138e	c7 85 0c fd ff
	ff 84 9e b4 88	 mov	 DWORD PTR __k$545608[ebp+12], -2001428860 ; 88b49e84H
  01398	c7 85 10 fd ff
	ff 98 8a 8d b5	 mov	 DWORD PTR __k$545608[ebp+16], -1249015144 ; b58d8a98H
  013a2	8d 85 00 fd ff
	ff		 lea	 eax, DWORD PTR __k$545608[ebp]
  013a8	c7 85 14 fd ff
	ff 8e 82 9f 00	 mov	 DWORD PTR __k$545608[ebp+20], 10453646 ; 009f828eH
  013b2	59		 pop	 ecx
$LL4186@LoadProper:
  013b3	81 30 ed ec eb
	ea		 xor	 DWORD PTR [eax], -353637139 ; eaebecedH
  013b9	83 c0 04	 add	 eax, 4
  013bc	49		 dec	 ecx
  013bd	75 f4		 jne	 SHORT $LL4186@LoadProper
  013bf	6a 14		 push	 20			; 00000014H
  013c1	58		 pop	 eax
$LL4183@LoadProper:
  013c2	8b c8		 mov	 ecx, eax
  013c4	81 e1 03 00 00
	80		 and	 ecx, -2147483645	; 80000003H
  013ca	79 05		 jns	 SHORT $LN4640@LoadProper
  013cc	49		 dec	 ecx
  013cd	83 c9 fc	 or	 ecx, -4			; fffffffcH
  013d0	41		 inc	 ecx
$LN4640@LoadProper:
  013d1	b2 ed		 mov	 dl, -19			; ffffffedH
  013d3	2a d1		 sub	 dl, cl
  013d5	30 94 05 00 fd
	ff ff		 xor	 BYTE PTR __k$545608[ebp+eax], dl
  013dc	40		 inc	 eax
  013dd	83 f8 17	 cmp	 eax, 23			; 00000017H
  013e0	7c e0		 jl	 SHORT $LL4183@LoadProper
  013e2	53		 push	 ebx
  013e3	8d 85 00 fd ff
	ff		 lea	 eax, DWORD PTR __k$545608[ebp]
  013e9	50		 push	 eax
  013ea	8b cf		 mov	 ecx, edi
  013ec	ff 15 00 00 00
	00		 call	 DWORD PTR __imp_?LoadInt@ioINILoader@@QAEHPBDH@Z

; 143  : 	m_RedTargetAirBuffList.reserve( iAirCount );

  013f2	8d 8e 6c 0b 00
	00		 lea	 ecx, DWORD PTR [esi+2924]
  013f8	50		 push	 eax
  013f9	89 85 2c fa ff
	ff		 mov	 DWORD PTR _iAirCount$[ebp], eax
  013ff	e8 00 00 00 00	 call	 ?reserve@?$vector@UBuffInfoStruct@@V?$allocator@UBuffInfoStruct@@@std@@@std@@QAEXI@Z ; std::vector<BuffInfoStruct,std::allocator<BuffInfoStruct> >::reserve

; 144  : 
; 145  : 	for( int i=0; i<iAirCount; i++ )

  01404	33 c9		 xor	 ecx, ecx
  01406	39 9d 2c fa ff
	ff		 cmp	 DWORD PTR _iAirCount$[ebp], ebx
  0140c	0f 8e 1e 01 00
	00		 jle	 $LN310@LoadProper
$LL312@LoadProper:

; 146  : 	{
; 147  : 		wsprintf_e( szKey, "red_target_air_buff%d", i+1 );

  01412	6a 05		 push	 5
  01414	c7 85 38 fd ff
	ff 9f 89 8f b5	 mov	 DWORD PTR ___encStr$531177[ebp], -1248884321 ; b58f899fH
  0141e	c7 85 3c fd ff
	ff 99 8d 99 8d	 mov	 DWORD PTR ___encStr$531177[ebp+4], -1919316583 ; 8d998d99H
  01428	c7 85 40 fd ff
	ff 88 98 b4 8b	 mov	 DWORD PTR ___encStr$531177[ebp+8], -1951098744 ; 8bb49888H
  01432	c7 85 44 fd ff
	ff 84 9e b4 88	 mov	 DWORD PTR ___encStr$531177[ebp+12], -2001428860 ; 88b49e84H
  0143c	c7 85 48 fd ff
	ff 98 8a 8d cf	 mov	 DWORD PTR ___encStr$531177[ebp+16], -812807528 ; cf8d8a98H
  01446	8d 85 38 fd ff
	ff		 lea	 eax, DWORD PTR ___encStr$531177[ebp]
  0144c	66 c7 85 4c fd
	ff ff 89 00	 mov	 WORD PTR ___encStr$531177[ebp+20], 137 ; 00000089H
  01455	5a		 pop	 edx
$LL4194@LoadProper:
  01456	81 30 ed ec eb
	ea		 xor	 DWORD PTR [eax], -353637139 ; eaebecedH
  0145c	83 c0 04	 add	 eax, 4
  0145f	4a		 dec	 edx
  01460	75 f4		 jne	 SHORT $LL4194@LoadProper
  01462	80 b5 4c fd ff
	ff ed		 xor	 BYTE PTR ___encStr$531177[ebp+20], -19 ; ffffffedH
  01469	8d 41 01	 lea	 eax, DWORD PTR [ecx+1]
  0146c	50		 push	 eax
  0146d	89 85 24 fa ff
	ff		 mov	 DWORD PTR tv31204[ebp], eax
  01473	8d 85 38 fd ff
	ff		 lea	 eax, DWORD PTR ___encStr$531177[ebp]
  01479	50		 push	 eax
  0147a	8d 85 30 fa ff
	ff		 lea	 eax, DWORD PTR _szKey$[ebp]
  01480	50		 push	 eax
  01481	ff 15 00 00 00
	00		 call	 DWORD PTR __imp__wsprintfA
  01487	83 c4 0c	 add	 esp, 12			; 0000000cH

; 148  : 		rkLoader.LoadString( szKey, "", szBuf, MAX_PATH );

  0148a	68 04 01 00 00	 push	 260			; 00000104H
  0148f	8d 85 34 fb ff
	ff		 lea	 eax, DWORD PTR _szBuf$[ebp]
  01495	50		 push	 eax
  01496	68 00 00 00 00	 push	 OFFSET ??_C@_00CNPNBAHC@?$AA@
  0149b	8d 85 30 fa ff
	ff		 lea	 eax, DWORD PTR _szKey$[ebp]
  014a1	50		 push	 eax
  014a2	8b cf		 mov	 ecx, edi
  014a4	ff 15 00 00 00
	00		 call	 DWORD PTR __imp_?LoadStringA@ioINILoader@@QAEXPBD0PADH@Z

; 149  : 
; 150  : 		ioBuffInfo tBuffInfo;	

  014aa	8d 8d fc f9 ff
	ff		 lea	 ecx, DWORD PTR _tBuffInfo$531326[ebp]
  014b0	e8 00 00 00 00	 call	 ??0BuffInfoStruct@@QAE@XZ ; BuffInfoStruct::BuffInfoStruct

; 151  : 		tBuffInfo.m_BuffName = szBuf;

  014b5	8d 85 34 fb ff
	ff		 lea	 eax, DWORD PTR _szBuf$[ebp]
  014bb	50		 push	 eax
  014bc	8d 8d fc f9 ff
	ff		 lea	 ecx, DWORD PTR _tBuffInfo$531326[ebp]
  014c2	c7 45 fc 02 00
	00 00		 mov	 DWORD PTR __$EHRec$[ebp+8], 2
  014c9	ff 15 00 00 00
	00		 call	 DWORD PTR __imp_??4ioHashString@@QAEAAV0@PBD@Z

; 152  : 
; 153  : 		if( !tBuffInfo.m_BuffName.IsEmpty() )

  014cf	8d 8d fc f9 ff
	ff		 lea	 ecx, DWORD PTR _tBuffInfo$531326[ebp]
  014d5	ff 15 00 00 00
	00		 call	 DWORD PTR __imp_?IsEmpty@ioHashString@@QBE_NXZ
  014db	84 c0		 test	 al, al
  014dd	75 2f		 jne	 SHORT $LN209@LoadProper

; 154  : 		{
; 155  : 			tBuffInfo.m_iBuffType = g_BuffMaker.GetBuffType( tBuffInfo.m_BuffName );

  014df	8d 85 fc f9 ff
	ff		 lea	 eax, DWORD PTR _tBuffInfo$531326[ebp]
  014e5	50		 push	 eax
  014e6	e8 00 00 00 00	 call	 ?GetSingleton@ioBuffMaker@@SAAAV1@XZ ; ioBuffMaker::GetSingleton
  014eb	8b c8		 mov	 ecx, eax
  014ed	e8 00 00 00 00	 call	 ?GetBuffType@ioBuffMaker@@QBEHABVioHashString@@@Z ; ioBuffMaker::GetBuffType
  014f2	89 85 0c fa ff
	ff		 mov	 DWORD PTR _tBuffInfo$531326[ebp+16], eax

; 156  : 			if( tBuffInfo.m_iBuffType != BT_NONE )

  014f8	3b c3		 cmp	 eax, ebx
  014fa	74 12		 je	 SHORT $LN209@LoadProper

; 157  : 			{
; 158  : 				m_RedTargetAirBuffList.push_back( tBuffInfo );

  014fc	8d 85 fc f9 ff
	ff		 lea	 eax, DWORD PTR _tBuffInfo$531326[ebp]
  01502	50		 push	 eax
  01503	8d 8e 6c 0b 00
	00		 lea	 ecx, DWORD PTR [esi+2924]
  01509	e8 00 00 00 00	 call	 ?push_back@?$vector@UBuffInfoStruct@@V?$allocator@UBuffInfoStruct@@@std@@@std@@QAEXABUBuffInfoStruct@@@Z ; std::vector<BuffInfoStruct,std::allocator<BuffInfoStruct> >::push_back
$LN209@LoadProper:

; 159  : 			}
; 160  : 		}
; 161  : 	}

  0150e	83 4d fc ff	 or	 DWORD PTR __$EHRec$[ebp+8], -1
  01512	8d 8d fc f9 ff
	ff		 lea	 ecx, DWORD PTR _tBuffInfo$531326[ebp]
  01518	ff 15 00 00 00
	00		 call	 DWORD PTR __imp_??1ioHashString@@QAE@XZ
  0151e	8b 8d 24 fa ff
	ff		 mov	 ecx, DWORD PTR tv31204[ebp]
  01524	3b 8d 2c fa ff
	ff		 cmp	 ecx, DWORD PTR _iAirCount$[ebp]
  0152a	0f 8c e2 fe ff
	ff		 jl	 $LL312@LoadProper
$LN310@LoadProper:

; 162  : 
; 163  : 	// Normal
; 164  : 	int iCount = rkLoader.LoadInt_e( "red_target_buff_cnt", 0 );

  01530	6a 04		 push	 4
  01532	c7 85 a0 fd ff
	ff 9f 89 8f b5	 mov	 DWORD PTR __k$545749[ebp], -1248884321 ; b58f899fH
  0153c	c7 85 a4 fd ff
	ff 99 8d 99 8d	 mov	 DWORD PTR __k$545749[ebp+4], -1919316583 ; 8d998d99H
  01546	c7 85 a8 fd ff
	ff 88 98 b4 88	 mov	 DWORD PTR __k$545749[ebp+8], -2001430392 ; 88b49888H
  01550	c7 85 ac fd ff
	ff 98 8a 8d b5	 mov	 DWORD PTR __k$545749[ebp+12], -1249015144 ; b58d8a98H
  0155a	8d 85 a0 fd ff
	ff		 lea	 eax, DWORD PTR __k$545749[ebp]
  01560	c7 85 b0 fd ff
	ff 8e 82 9f 00	 mov	 DWORD PTR __k$545749[ebp+16], 10453646 ; 009f828eH
  0156a	59		 pop	 ecx
$LL4303@LoadProper:
  0156b	81 30 ed ec eb
	ea		 xor	 DWORD PTR [eax], -353637139 ; eaebecedH
  01571	83 c0 04	 add	 eax, 4
  01574	49		 dec	 ecx
  01575	75 f4		 jne	 SHORT $LL4303@LoadProper
  01577	6a 10		 push	 16			; 00000010H
  01579	58		 pop	 eax
$LL4300@LoadProper:
  0157a	8b c8		 mov	 ecx, eax
  0157c	81 e1 03 00 00
	80		 and	 ecx, -2147483645	; 80000003H
  01582	79 05		 jns	 SHORT $LN4641@LoadProper
  01584	49		 dec	 ecx
  01585	83 c9 fc	 or	 ecx, -4			; fffffffcH
  01588	41		 inc	 ecx
$LN4641@LoadProper:
  01589	b2 ed		 mov	 dl, -19			; ffffffedH
  0158b	2a d1		 sub	 dl, cl
  0158d	30 94 05 a0 fd
	ff ff		 xor	 BYTE PTR __k$545749[ebp+eax], dl
  01594	40		 inc	 eax
  01595	83 f8 13	 cmp	 eax, 19			; 00000013H
  01598	7c e0		 jl	 SHORT $LL4300@LoadProper
  0159a	53		 push	 ebx
  0159b	8d 85 a0 fd ff
	ff		 lea	 eax, DWORD PTR __k$545749[ebp]
  015a1	50		 push	 eax
  015a2	8b cf		 mov	 ecx, edi
  015a4	ff 15 00 00 00
	00		 call	 DWORD PTR __imp_?LoadInt@ioINILoader@@QAEHPBDH@Z

; 165  : 	m_RedTargetBuffList.reserve( iCount );

  015aa	8d 8e 7c 0b 00
	00		 lea	 ecx, DWORD PTR [esi+2940]
  015b0	50		 push	 eax
  015b1	89 85 2c fa ff
	ff		 mov	 DWORD PTR _iCount$[ebp], eax
  015b7	e8 00 00 00 00	 call	 ?reserve@?$vector@UBuffInfoStruct@@V?$allocator@UBuffInfoStruct@@@std@@@std@@QAEXI@Z ; std::vector<BuffInfoStruct,std::allocator<BuffInfoStruct> >::reserve

; 166  : 
; 167  : 	for( int i=0; i<iCount; i++ )

  015bc	33 c9		 xor	 ecx, ecx
  015be	39 9d 2c fa ff
	ff		 cmp	 DWORD PTR _iCount$[ebp], ebx
  015c4	0f 8e 14 01 00
	00		 jle	 $LN206@LoadProper
$LL208@LoadProper:

; 168  : 	{
; 169  : 		wsprintf_e( szKey, "red_target_buff%d", i+1 );

  015ca	6a 04		 push	 4
  015cc	c7 85 90 fe ff
	ff 9f 89 8f b5	 mov	 DWORD PTR ___encStr$531338[ebp], -1248884321 ; b58f899fH
  015d6	c7 85 94 fe ff
	ff 99 8d 99 8d	 mov	 DWORD PTR ___encStr$531338[ebp+4], -1919316583 ; 8d998d99H
  015e0	c7 85 98 fe ff
	ff 88 98 b4 88	 mov	 DWORD PTR ___encStr$531338[ebp+8], -2001430392 ; 88b49888H
  015ea	c7 85 9c fe ff
	ff 98 8a 8d cf	 mov	 DWORD PTR ___encStr$531338[ebp+12], -812807528 ; cf8d8a98H
  015f4	8d 85 90 fe ff
	ff		 lea	 eax, DWORD PTR ___encStr$531338[ebp]
  015fa	66 c7 85 a0 fe
	ff ff 89 00	 mov	 WORD PTR ___encStr$531338[ebp+16], 137 ; 00000089H
  01603	5a		 pop	 edx
$LL4311@LoadProper:
  01604	81 30 ed ec eb
	ea		 xor	 DWORD PTR [eax], -353637139 ; eaebecedH
  0160a	83 c0 04	 add	 eax, 4
  0160d	4a		 dec	 edx
  0160e	75 f4		 jne	 SHORT $LL4311@LoadProper
  01610	80 b5 a0 fe ff
	ff ed		 xor	 BYTE PTR ___encStr$531338[ebp+16], -19 ; ffffffedH
  01617	8d 41 01	 lea	 eax, DWORD PTR [ecx+1]
  0161a	50		 push	 eax
  0161b	89 85 24 fa ff
	ff		 mov	 DWORD PTR tv31297[ebp], eax
  01621	8d 85 90 fe ff
	ff		 lea	 eax, DWORD PTR ___encStr$531338[ebp]
  01627	50		 push	 eax
  01628	8d 85 30 fa ff
	ff		 lea	 eax, DWORD PTR _szKey$[ebp]
  0162e	50		 push	 eax
  0162f	ff 15 00 00 00
	00		 call	 DWORD PTR __imp__wsprintfA
  01635	83 c4 0c	 add	 esp, 12			; 0000000cH

; 170  : 		rkLoader.LoadString( szKey, "", szBuf, MAX_PATH );

  01638	68 04 01 00 00	 push	 260			; 00000104H
  0163d	8d 85 34 fb ff
	ff		 lea	 eax, DWORD PTR _szBuf$[ebp]
  01643	50		 push	 eax
  01644	68 00 00 00 00	 push	 OFFSET ??_C@_00CNPNBAHC@?$AA@
  01649	8d 85 30 fa ff
	ff		 lea	 eax, DWORD PTR _szKey$[ebp]
  0164f	50		 push	 eax
  01650	8b cf		 mov	 ecx, edi
  01652	ff 15 00 00 00
	00		 call	 DWORD PTR __imp_?LoadStringA@ioINILoader@@QAEXPBD0PADH@Z

; 171  : 
; 172  : 		ioBuffInfo tBuffInfo;	

  01658	8d 8d e8 f9 ff
	ff		 lea	 ecx, DWORD PTR _tBuffInfo$531487[ebp]
  0165e	e8 00 00 00 00	 call	 ??0BuffInfoStruct@@QAE@XZ ; BuffInfoStruct::BuffInfoStruct

; 173  : 		tBuffInfo.m_BuffName = szBuf;

  01663	8d 85 34 fb ff
	ff		 lea	 eax, DWORD PTR _szBuf$[ebp]
  01669	50		 push	 eax
  0166a	8d 8d e8 f9 ff
	ff		 lea	 ecx, DWORD PTR _tBuffInfo$531487[ebp]
  01670	c7 45 fc 03 00
	00 00		 mov	 DWORD PTR __$EHRec$[ebp+8], 3
  01677	ff 15 00 00 00
	00		 call	 DWORD PTR __imp_??4ioHashString@@QAEAAV0@PBD@Z

; 174  : 
; 175  : 		if( !tBuffInfo.m_BuffName.IsEmpty() )

  0167d	8d 8d e8 f9 ff
	ff		 lea	 ecx, DWORD PTR _tBuffInfo$531487[ebp]
  01683	ff 15 00 00 00
	00		 call	 DWORD PTR __imp_?IsEmpty@ioHashString@@QBE_NXZ
  01689	84 c0		 test	 al, al
  0168b	75 2f		 jne	 SHORT $LN105@LoadProper

; 176  : 		{
; 177  : 			tBuffInfo.m_iBuffType = g_BuffMaker.GetBuffType( tBuffInfo.m_BuffName );

  0168d	8d 85 e8 f9 ff
	ff		 lea	 eax, DWORD PTR _tBuffInfo$531487[ebp]
  01693	50		 push	 eax
  01694	e8 00 00 00 00	 call	 ?GetSingleton@ioBuffMaker@@SAAAV1@XZ ; ioBuffMaker::GetSingleton
  01699	8b c8		 mov	 ecx, eax
  0169b	e8 00 00 00 00	 call	 ?GetBuffType@ioBuffMaker@@QBEHABVioHashString@@@Z ; ioBuffMaker::GetBuffType
  016a0	89 85 f8 f9 ff
	ff		 mov	 DWORD PTR _tBuffInfo$531487[ebp+16], eax

; 178  : 			if( tBuffInfo.m_iBuffType != BT_NONE )

  016a6	3b c3		 cmp	 eax, ebx
  016a8	74 12		 je	 SHORT $LN105@LoadProper

; 179  : 			{
; 180  : 				m_RedTargetBuffList.push_back( tBuffInfo );

  016aa	8d 85 e8 f9 ff
	ff		 lea	 eax, DWORD PTR _tBuffInfo$531487[ebp]
  016b0	50		 push	 eax
  016b1	8d 8e 7c 0b 00
	00		 lea	 ecx, DWORD PTR [esi+2940]
  016b7	e8 00 00 00 00	 call	 ?push_back@?$vector@UBuffInfoStruct@@V?$allocator@UBuffInfoStruct@@@std@@@std@@QAEXABUBuffInfoStruct@@@Z ; std::vector<BuffInfoStruct,std::allocator<BuffInfoStruct> >::push_back
$LN105@LoadProper:

; 181  : 			}
; 182  : 		}
; 183  : 	}

  016bc	83 4d fc ff	 or	 DWORD PTR __$EHRec$[ebp+8], -1
  016c0	8d 8d e8 f9 ff
	ff		 lea	 ecx, DWORD PTR _tBuffInfo$531487[ebp]
  016c6	ff 15 00 00 00
	00		 call	 DWORD PTR __imp_??1ioHashString@@QAE@XZ
  016cc	8b 8d 24 fa ff
	ff		 mov	 ecx, DWORD PTR tv31297[ebp]
  016d2	3b 8d 2c fa ff
	ff		 cmp	 ecx, DWORD PTR _iCount$[ebp]
  016d8	0f 8c ec fe ff
	ff		 jl	 $LL208@LoadProper
$LN206@LoadProper:

; 184  : 
; 185  : 	// Down
; 186  : 	int iDownCount = rkLoader.LoadInt_e( "red_target_down_buff_cnt", 0 );

  016de	6a 06		 push	 6
  016e0	c7 85 38 fc ff
	ff 9f 89 8f b5	 mov	 DWORD PTR __k$545903[ebp], -1248884321 ; b58f899fH
  016ea	c7 85 3c fc ff
	ff 99 8d 99 8d	 mov	 DWORD PTR __k$545903[ebp+4], -1919316583 ; 8d998d99H
  016f4	c7 85 40 fc ff
	ff 88 98 b4 8e	 mov	 DWORD PTR __k$545903[ebp+8], -1900767096 ; 8eb49888H
  016fe	c7 85 44 fc ff
	ff 82 9b 85 b5	 mov	 DWORD PTR __k$545903[ebp+12], -1249535102 ; b5859b82H
  01708	c7 85 48 fc ff
	ff 8f 99 8d 8c	 mov	 DWORD PTR __k$545903[ebp+16], -1936877169 ; 8c8d998fH
  01712	c7 85 4c fc ff
	ff b2 8f 85 9e	 mov	 DWORD PTR __k$545903[ebp+20], -1635414094 ; 9e858fb2H
  0171c	8d 85 38 fc ff
	ff		 lea	 eax, DWORD PTR __k$545903[ebp]
  01722	88 9d 50 fc ff
	ff		 mov	 BYTE PTR __k$545903[ebp+24], bl
  01728	59		 pop	 ecx
$LL4420@LoadProper:
  01729	81 30 ed ec eb
	ea		 xor	 DWORD PTR [eax], -353637139 ; eaebecedH
  0172f	83 c0 04	 add	 eax, 4
  01732	49		 dec	 ecx
  01733	75 f4		 jne	 SHORT $LL4420@LoadProper
  01735	53		 push	 ebx
  01736	8d 85 38 fc ff
	ff		 lea	 eax, DWORD PTR __k$545903[ebp]
  0173c	50		 push	 eax
  0173d	8b cf		 mov	 ecx, edi
  0173f	ff 15 00 00 00
	00		 call	 DWORD PTR __imp_?LoadInt@ioINILoader@@QAEHPBDH@Z

; 187  : 	m_RedTargetDownBuffList.reserve( iDownCount );

  01745	8d 8e 8c 0b 00
	00		 lea	 ecx, DWORD PTR [esi+2956]
  0174b	50		 push	 eax
  0174c	89 85 2c fa ff
	ff		 mov	 DWORD PTR _iDownCount$[ebp], eax
  01752	89 8d 24 fa ff
	ff		 mov	 DWORD PTR tv31374[ebp], ecx
  01758	e8 00 00 00 00	 call	 ?reserve@?$vector@UBuffInfoStruct@@V?$allocator@UBuffInfoStruct@@@std@@@std@@QAEXI@Z ; std::vector<BuffInfoStruct,std::allocator<BuffInfoStruct> >::reserve

; 188  : 
; 189  : 	for( int i=0; i<iDownCount; i++ )

  0175d	33 d2		 xor	 edx, edx
  0175f	39 9d 2c fa ff
	ff		 cmp	 DWORD PTR _iDownCount$[ebp], ebx
  01765	0f 8e 35 01 00
	00		 jle	 $LN102@LoadProper
$LL104@LoadProper:

; 190  : 	{
; 191  : 		wsprintf_e( szKey, "red_target_down_buff%d", i+1 );

  0176b	6a 05		 push	 5
  0176d	c7 85 1c fd ff
	ff 9f 89 8f b5	 mov	 DWORD PTR ___encStr$531503[ebp], -1248884321 ; b58f899fH
  01777	c7 85 20 fd ff
	ff 99 8d 99 8d	 mov	 DWORD PTR ___encStr$531503[ebp+4], -1919316583 ; 8d998d99H
  01781	c7 85 24 fd ff
	ff 88 98 b4 8e	 mov	 DWORD PTR ___encStr$531503[ebp+8], -1900767096 ; 8eb49888H
  0178b	c7 85 28 fd ff
	ff 82 9b 85 b5	 mov	 DWORD PTR ___encStr$531503[ebp+12], -1249535102 ; b5859b82H
  01795	c7 85 2c fd ff
	ff 8f 99 8d 8c	 mov	 DWORD PTR ___encStr$531503[ebp+16], -1936877169 ; 8c8d998fH
  0179f	66 c7 85 30 fd
	ff ff c8 88	 mov	 WORD PTR ___encStr$531503[ebp+20], 35016 ; 000088c8H
  017a8	8d 85 1c fd ff
	ff		 lea	 eax, DWORD PTR ___encStr$531503[ebp]
  017ae	88 9d 32 fd ff
	ff		 mov	 BYTE PTR ___encStr$531503[ebp+22], bl
  017b4	59		 pop	 ecx
$LL4428@LoadProper:
  017b5	81 30 ed ec eb
	ea		 xor	 DWORD PTR [eax], -353637139 ; eaebecedH
  017bb	83 c0 04	 add	 eax, 4
  017be	49		 dec	 ecx
  017bf	75 f4		 jne	 SHORT $LL4428@LoadProper
  017c1	6a 14		 push	 20			; 00000014H
  017c3	5e		 pop	 esi
$LL4425@LoadProper:
  017c4	8b c6		 mov	 eax, esi
  017c6	25 03 00 00 80	 and	 eax, -2147483645	; 80000003H
  017cb	79 05		 jns	 SHORT $LN4642@LoadProper
  017cd	48		 dec	 eax
  017ce	83 c8 fc	 or	 eax, -4			; fffffffcH
  017d1	40		 inc	 eax
$LN4642@LoadProper:
  017d2	b1 ed		 mov	 cl, -19			; ffffffedH
  017d4	2a c8		 sub	 cl, al
  017d6	30 8c 35 1c fd
	ff ff		 xor	 BYTE PTR ___encStr$531503[ebp+esi], cl
  017dd	46		 inc	 esi
  017de	83 fe 16	 cmp	 esi, 22			; 00000016H
  017e1	7c e1		 jl	 SHORT $LL4425@LoadProper
  017e3	8d 72 01	 lea	 esi, DWORD PTR [edx+1]
  017e6	56		 push	 esi
  017e7	8d 85 1c fd ff
	ff		 lea	 eax, DWORD PTR ___encStr$531503[ebp]
  017ed	50		 push	 eax
  017ee	8d 85 30 fa ff
	ff		 lea	 eax, DWORD PTR _szKey$[ebp]
  017f4	50		 push	 eax
  017f5	ff 15 00 00 00
	00		 call	 DWORD PTR __imp__wsprintfA
  017fb	83 c4 0c	 add	 esp, 12			; 0000000cH

; 192  : 		rkLoader.LoadString( szKey, "", szBuf, MAX_PATH );

  017fe	68 04 01 00 00	 push	 260			; 00000104H
  01803	8d 85 34 fb ff
	ff		 lea	 eax, DWORD PTR _szBuf$[ebp]
  01809	50		 push	 eax
  0180a	68 00 00 00 00	 push	 OFFSET ??_C@_00CNPNBAHC@?$AA@
  0180f	8d 85 30 fa ff
	ff		 lea	 eax, DWORD PTR _szKey$[ebp]
  01815	50		 push	 eax
  01816	8b cf		 mov	 ecx, edi
  01818	ff 15 00 00 00
	00		 call	 DWORD PTR __imp_?LoadStringA@ioINILoader@@QAEXPBD0PADH@Z

; 193  : 
; 194  : 		ioBuffInfo tBuffInfo;	

  0181e	8d 8d 10 fa ff
	ff		 lea	 ecx, DWORD PTR _tBuffInfo$531652[ebp]
  01824	e8 00 00 00 00	 call	 ??0BuffInfoStruct@@QAE@XZ ; BuffInfoStruct::BuffInfoStruct

; 195  : 		tBuffInfo.m_BuffName = szBuf;

  01829	8d 85 34 fb ff
	ff		 lea	 eax, DWORD PTR _szBuf$[ebp]
  0182f	50		 push	 eax
  01830	8d 8d 10 fa ff
	ff		 lea	 ecx, DWORD PTR _tBuffInfo$531652[ebp]
  01836	c7 45 fc 04 00
	00 00		 mov	 DWORD PTR __$EHRec$[ebp+8], 4
  0183d	ff 15 00 00 00
	00		 call	 DWORD PTR __imp_??4ioHashString@@QAEAAV0@PBD@Z

; 196  : 
; 197  : 		if( !tBuffInfo.m_BuffName.IsEmpty() )

  01843	8d 8d 10 fa ff
	ff		 lea	 ecx, DWORD PTR _tBuffInfo$531652[ebp]
  01849	ff 15 00 00 00
	00		 call	 DWORD PTR __imp_?IsEmpty@ioHashString@@QBE_NXZ
  0184f	84 c0		 test	 al, al
  01851	75 2f		 jne	 SHORT $LN1@LoadProper

; 198  : 		{
; 199  : 			tBuffInfo.m_iBuffType = g_BuffMaker.GetBuffType( tBuffInfo.m_BuffName );

  01853	8d 85 10 fa ff
	ff		 lea	 eax, DWORD PTR _tBuffInfo$531652[ebp]
  01859	50		 push	 eax
  0185a	e8 00 00 00 00	 call	 ?GetSingleton@ioBuffMaker@@SAAAV1@XZ ; ioBuffMaker::GetSingleton
  0185f	8b c8		 mov	 ecx, eax
  01861	e8 00 00 00 00	 call	 ?GetBuffType@ioBuffMaker@@QBEHABVioHashString@@@Z ; ioBuffMaker::GetBuffType
  01866	89 85 20 fa ff
	ff		 mov	 DWORD PTR _tBuffInfo$531652[ebp+16], eax

; 200  : 			if( tBuffInfo.m_iBuffType != BT_NONE )

  0186c	3b c3		 cmp	 eax, ebx
  0186e	74 12		 je	 SHORT $LN1@LoadProper

; 201  : 			{
; 202  : 				m_RedTargetDownBuffList.push_back( tBuffInfo );

  01870	8b 8d 24 fa ff
	ff		 mov	 ecx, DWORD PTR tv31374[ebp]
  01876	8d 85 10 fa ff
	ff		 lea	 eax, DWORD PTR _tBuffInfo$531652[ebp]
  0187c	50		 push	 eax
  0187d	e8 00 00 00 00	 call	 ?push_back@?$vector@UBuffInfoStruct@@V?$allocator@UBuffInfoStruct@@@std@@@std@@QAEXABUBuffInfoStruct@@@Z ; std::vector<BuffInfoStruct,std::allocator<BuffInfoStruct> >::push_back
$LN1@LoadProper:

; 203  : 			}
; 204  : 		}
; 205  : 	}

  01882	83 4d fc ff	 or	 DWORD PTR __$EHRec$[ebp+8], -1
  01886	8d 8d 10 fa ff
	ff		 lea	 ecx, DWORD PTR _tBuffInfo$531652[ebp]
  0188c	ff 15 00 00 00
	00		 call	 DWORD PTR __imp_??1ioHashString@@QAE@XZ
  01892	8b d6		 mov	 edx, esi
  01894	3b 95 2c fa ff
	ff		 cmp	 edx, DWORD PTR _iDownCount$[ebp]
  0189a	0f 8c cb fe ff
	ff		 jl	 $LL104@LoadProper
$LN102@LoadProper:

; 206  : }

  018a0	e8 00 00 00 00	 call	 __EH_epilog3_GS
  018a5	c2 04 00	 ret	 4
_TEXT	ENDS
;	COMDAT text$x
text$x	SEGMENT
__unwindfunclet$?LoadProperty@ioMineWeapon2@@UAEXAAVioINILoader@@@Z$0:
  00000	8d 8d d8 f9 ff
	ff		 lea	 ecx, DWORD PTR $T541265[ebp]
  00006	ff 25 00 00 00
	00		 jmp	 DWORD PTR __imp_??1ioHashString@@QAE@XZ
__unwindfunclet$?LoadProperty@ioMineWeapon2@@UAEXAAVioINILoader@@@Z$1:
  0000c	8d 8d c8 f9 ff
	ff		 lea	 ecx, DWORD PTR $T541266[ebp]
  00012	ff 25 00 00 00
	00		 jmp	 DWORD PTR __imp_??1ioHashString@@QAE@XZ
__unwindfunclet$?LoadProperty@ioMineWeapon2@@UAEXAAVioINILoader@@@Z$2:
  00018	8d 8d fc f9 ff
	ff		 lea	 ecx, DWORD PTR _tBuffInfo$531326[ebp]
  0001e	e9 00 00 00 00	 jmp	 ??1BuffInfoStruct@@QAE@XZ
__unwindfunclet$?LoadProperty@ioMineWeapon2@@UAEXAAVioINILoader@@@Z$3:
  00023	8d 8d e8 f9 ff
	ff		 lea	 ecx, DWORD PTR _tBuffInfo$531487[ebp]
  00029	e9 00 00 00 00	 jmp	 ??1BuffInfoStruct@@QAE@XZ
__unwindfunclet$?LoadProperty@ioMineWeapon2@@UAEXAAVioINILoader@@@Z$4:
  0002e	8d 8d 10 fa ff
	ff		 lea	 ecx, DWORD PTR _tBuffInfo$531652[ebp]
  00034	e9 00 00 00 00	 jmp	 ??1BuffInfoStruct@@QAE@XZ
__ehhandler$?LoadProperty@ioMineWeapon2@@UAEXAAVioINILoader@@@Z:
  00039	8b 54 24 08	 mov	 edx, DWORD PTR [esp+8]
  0003d	8d 42 0c	 lea	 eax, DWORD PTR [edx+12]
  00040	8b 8a c4 f9 ff
	ff		 mov	 ecx, DWORD PTR [edx-1596]
  00046	33 c8		 xor	 ecx, eax
  00048	e8 00 00 00 00	 call	 @__security_check_cookie@4
  0004d	8b 4a fc	 mov	 ecx, DWORD PTR [edx-4]
  00050	33 c8		 xor	 ecx, eax
  00052	e8 00 00 00 00	 call	 @__security_check_cookie@4
  00057	b8 00 00 00 00	 mov	 eax, OFFSET __ehfuncinfo$?LoadProperty@ioMineWeapon2@@UAEXAAVioINILoader@@@Z
  0005c	e9 00 00 00 00	 jmp	 ___CxxFrameHandler3
text$x	ENDS
?LoadProperty@ioMineWeapon2@@UAEXAAVioINILoader@@@Z ENDP ; ioMineWeapon2::LoadProperty
; Function compile flags: /Ogsp
;	COMDAT ??_GioMineWeapon2@@UAEPAXI@Z
_TEXT	SEGMENT
___flags$ = 8						; size = 4
??_GioMineWeapon2@@UAEPAXI@Z PROC			; ioMineWeapon2::`scalar deleting destructor', COMDAT
; _this$ = ecx
  00000	55		 push	 ebp
  00001	8b ec		 mov	 ebp, esp
  00003	56		 push	 esi
  00004	8b f1		 mov	 esi, ecx
  00006	e8 00 00 00 00	 call	 ??1ioMineWeapon2@@UAE@XZ ; ioMineWeapon2::~ioMineWeapon2
  0000b	f6 45 08 01	 test	 BYTE PTR ___flags$[ebp], 1
  0000f	74 07		 je	 SHORT $LN1@scalar@5
  00011	56		 push	 esi
  00012	e8 00 00 00 00	 call	 ??3@YAXPAX@Z		; operator delete
  00017	59		 pop	 ecx
$LN1@scalar@5:
  00018	8b c6		 mov	 eax, esi
  0001a	5e		 pop	 esi
  0001b	5d		 pop	 ebp
  0001c	c2 04 00	 ret	 4
??_GioMineWeapon2@@UAEPAXI@Z ENDP			; ioMineWeapon2::`scalar deleting destructor'
_TEXT	ENDS
END
