; Listing generated by Microsoft (R) Optimizing Compiler Version 16.00.30319.01 

	TITLE	D:\Lost Saga For Developer\Youtube\Tutorial\Source\src\LSClient\ioMoveAttackSkill.cpp
	.686P
	.XMM
	include listing.inc
	.model	flat

INCLUDELIB MSVCRT
INCLUDELIB OLDNAMES

PUBLIC	?return1@@YAIXZ					; return1
; Function compile flags: /Ogsp
; File d:\lost saga for developer\youtube\tutorial\source\src\lsclient\stdafx.h
;	COMDAT ?return1@@YAIXZ
_TEXT	SEGMENT
?return1@@YAIXZ PROC					; return1, COMDAT

; 17   : 	__forceinline unsigned int return1() { __asm mov eax, 1 };

  00000	b8 01 00 00 00	 mov	 eax, 1
  00005	c3		 ret	 0
?return1@@YAIXZ ENDP					; return1
_TEXT	ENDS
PUBLIC	?return5@@YAIXZ					; return5
; Function compile flags: /Ogsp
;	COMDAT ?return5@@YAIXZ
_TEXT	SEGMENT
?return5@@YAIXZ PROC					; return5, COMDAT

; 18   : 	__forceinline unsigned int return5() { __asm mov eax, 5 };

  00000	b8 05 00 00 00	 mov	 eax, 5
  00005	c3		 ret	 0
?return5@@YAIXZ ENDP					; return5
_TEXT	ENDS
PUBLIC	?return10@@YAIXZ				; return10
; Function compile flags: /Ogsp
;	COMDAT ?return10@@YAIXZ
_TEXT	SEGMENT
?return10@@YAIXZ PROC					; return10, COMDAT

; 21   : 	__forceinline unsigned int return10() { __asm mov eax, 10 };

  00000	b8 0a 00 00 00	 mov	 eax, 10			; 0000000aH
  00005	c3		 ret	 0
?return10@@YAIXZ ENDP					; return10
_TEXT	ENDS
PUBLIC	?return100@@YAIXZ				; return100
; Function compile flags: /Ogsp
;	COMDAT ?return100@@YAIXZ
_TEXT	SEGMENT
?return100@@YAIXZ PROC					; return100, COMDAT

; 25   : 	__forceinline unsigned int return100() { __asm mov eax, 100 };

  00000	b8 64 00 00 00	 mov	 eax, 100		; 00000064H
  00005	c3		 ret	 0
?return100@@YAIXZ ENDP					; return100
_TEXT	ENDS
PUBLIC	?GetCharName@ioBaseChar@@QBEABVioHashString@@XZ	; ioBaseChar::GetCharName
; Function compile flags: /Ogsp
; File d:\lost saga for developer\youtube\tutorial\source\src\lsclient\iobasechar.h
;	COMDAT ?GetCharName@ioBaseChar@@QBEABVioHashString@@XZ
_TEXT	SEGMENT
?GetCharName@ioBaseChar@@QBEABVioHashString@@XZ PROC	; ioBaseChar::GetCharName, COMDAT
; _this$ = ecx

; 2594 : 	inline const ioHashString& GetCharName() const { return m_Name; }

  00000	8d 81 d4 02 00
	00		 lea	 eax, DWORD PTR [ecx+724]
  00006	c3		 ret	 0
?GetCharName@ioBaseChar@@QBEABVioHashString@@XZ ENDP	; ioBaseChar::GetCharName
_TEXT	ENDS
PUBLIC	?GetTargetRot@ioBaseChar@@QBEABUD3DXQUATERNION@@XZ ; ioBaseChar::GetTargetRot
; Function compile flags: /Ogsp
;	COMDAT ?GetTargetRot@ioBaseChar@@QBEABUD3DXQUATERNION@@XZ
_TEXT	SEGMENT
?GetTargetRot@ioBaseChar@@QBEABUD3DXQUATERNION@@XZ PROC	; ioBaseChar::GetTargetRot, COMDAT
; _this$ = ecx

; 2599 : 	inline const D3DXQUATERNION& GetTargetRot() const { return m_qtTargetRot; }

  00000	8d 81 a4 06 00
	00		 lea	 eax, DWORD PTR [ecx+1700]
  00006	c3		 ret	 0
?GetTargetRot@ioBaseChar@@QBEABUD3DXQUATERNION@@XZ ENDP	; ioBaseChar::GetTargetRot
_TEXT	ENDS
PUBLIC	??_7bad_alloc@std@@6B@				; std::bad_alloc::`vftable'
PUBLIC	??0bad_alloc@std@@QAE@PBD@Z			; std::bad_alloc::bad_alloc
PUBLIC	??_R4bad_alloc@std@@6B@				; std::bad_alloc::`RTTI Complete Object Locator'
PUBLIC	??_R0?AVbad_alloc@std@@@8			; std::bad_alloc `RTTI Type Descriptor'
PUBLIC	??_R3bad_alloc@std@@8				; std::bad_alloc::`RTTI Class Hierarchy Descriptor'
PUBLIC	??_R2bad_alloc@std@@8				; std::bad_alloc::`RTTI Base Class Array'
PUBLIC	??_R1A@?0A@EA@bad_alloc@std@@8			; std::bad_alloc::`RTTI Base Class Descriptor at (0,-1,0,64)'
PUBLIC	??_R1A@?0A@EA@exception@std@@8			; std::exception::`RTTI Base Class Descriptor at (0,-1,0,64)'
PUBLIC	??_R0?AVexception@std@@@8			; std::exception `RTTI Type Descriptor'
PUBLIC	??_R3exception@std@@8				; std::exception::`RTTI Class Hierarchy Descriptor'
PUBLIC	??_R2exception@std@@8				; std::exception::`RTTI Base Class Array'
EXTRN	__imp_??0exception@std@@QAE@ABQBD@Z:PROC
EXTRN	??_7type_info@@6B@:QWORD			; type_info::`vftable'
EXTRN	??_Ebad_alloc@std@@UAEPAXI@Z:PROC		; std::bad_alloc::`vector deleting destructor'
EXTRN	?what@exception@std@@UBEPBDXZ:PROC		; std::exception::what
;	COMDAT ??_R2exception@std@@8
; File c:\program files (x86)\microsoft visual studio 10.0\vc\include\exception
rdata$r	SEGMENT
??_R2exception@std@@8 DD FLAT:??_R1A@?0A@EA@exception@std@@8 ; std::exception::`RTTI Base Class Array'
rdata$r	ENDS
;	COMDAT ??_R3exception@std@@8
rdata$r	SEGMENT
??_R3exception@std@@8 DD 00H				; std::exception::`RTTI Class Hierarchy Descriptor'
	DD	00H
	DD	01H
	DD	FLAT:??_R2exception@std@@8
rdata$r	ENDS
;	COMDAT ??_R0?AVexception@std@@@8
_DATA	SEGMENT
??_R0?AVexception@std@@@8 DD FLAT:??_7type_info@@6B@	; std::exception `RTTI Type Descriptor'
	DD	00H
	DB	'.?AVexception@std@@', 00H
_DATA	ENDS
;	COMDAT ??_R1A@?0A@EA@exception@std@@8
rdata$r	SEGMENT
??_R1A@?0A@EA@exception@std@@8 DD FLAT:??_R0?AVexception@std@@@8 ; std::exception::`RTTI Base Class Descriptor at (0,-1,0,64)'
	DD	00H
	DD	00H
	DD	0ffffffffH
	DD	00H
	DD	040H
	DD	FLAT:??_R3exception@std@@8
rdata$r	ENDS
;	COMDAT ??_R1A@?0A@EA@bad_alloc@std@@8
rdata$r	SEGMENT
??_R1A@?0A@EA@bad_alloc@std@@8 DD FLAT:??_R0?AVbad_alloc@std@@@8 ; std::bad_alloc::`RTTI Base Class Descriptor at (0,-1,0,64)'
	DD	01H
	DD	00H
	DD	0ffffffffH
	DD	00H
	DD	040H
	DD	FLAT:??_R3bad_alloc@std@@8
rdata$r	ENDS
;	COMDAT ??_R2bad_alloc@std@@8
rdata$r	SEGMENT
??_R2bad_alloc@std@@8 DD FLAT:??_R1A@?0A@EA@bad_alloc@std@@8 ; std::bad_alloc::`RTTI Base Class Array'
	DD	FLAT:??_R1A@?0A@EA@exception@std@@8
rdata$r	ENDS
;	COMDAT ??_R3bad_alloc@std@@8
rdata$r	SEGMENT
??_R3bad_alloc@std@@8 DD 00H				; std::bad_alloc::`RTTI Class Hierarchy Descriptor'
	DD	00H
	DD	02H
	DD	FLAT:??_R2bad_alloc@std@@8
rdata$r	ENDS
;	COMDAT ??_R0?AVbad_alloc@std@@@8
_DATA	SEGMENT
??_R0?AVbad_alloc@std@@@8 DD FLAT:??_7type_info@@6B@	; std::bad_alloc `RTTI Type Descriptor'
	DD	00H
	DB	'.?AVbad_alloc@std@@', 00H
_DATA	ENDS
;	COMDAT ??_R4bad_alloc@std@@6B@
rdata$r	SEGMENT
??_R4bad_alloc@std@@6B@ DD 00H				; std::bad_alloc::`RTTI Complete Object Locator'
	DD	00H
	DD	00H
	DD	FLAT:??_R0?AVbad_alloc@std@@@8
	DD	FLAT:??_R3bad_alloc@std@@8
rdata$r	ENDS
;	COMDAT ??_7bad_alloc@std@@6B@
CONST	SEGMENT
??_7bad_alloc@std@@6B@ DD FLAT:??_R4bad_alloc@std@@6B@	; std::bad_alloc::`vftable'
	DD	FLAT:??_Ebad_alloc@std@@UAEPAXI@Z
	DD	FLAT:?what@exception@std@@UBEPBDXZ
; Function compile flags: /Ogsp
CONST	ENDS
;	COMDAT ??0bad_alloc@std@@QAE@PBD@Z
_TEXT	SEGMENT
__Message$ = 8						; size = 4
??0bad_alloc@std@@QAE@PBD@Z PROC			; std::bad_alloc::bad_alloc, COMDAT
; _this$ = ecx

; 345  : 		{	// construct from message string

  00000	55		 push	 ebp
  00001	8b ec		 mov	 ebp, esp
  00003	56		 push	 esi
  00004	8d 45 08	 lea	 eax, DWORD PTR __Message$[ebp]
  00007	50		 push	 eax
  00008	8b f1		 mov	 esi, ecx
  0000a	ff 15 00 00 00
	00		 call	 DWORD PTR __imp_??0exception@std@@QAE@ABQBD@Z
  00010	c7 06 00 00 00
	00		 mov	 DWORD PTR [esi], OFFSET ??_7bad_alloc@std@@6B@

; 346  : 		}

  00016	8b c6		 mov	 eax, esi
  00018	5e		 pop	 esi
  00019	5d		 pop	 ebp
  0001a	c2 04 00	 ret	 4
??0bad_alloc@std@@QAE@PBD@Z ENDP			; std::bad_alloc::bad_alloc
_TEXT	ENDS
PUBLIC	??1bad_alloc@std@@UAE@XZ			; std::bad_alloc::~bad_alloc
EXTRN	__imp_??1exception@std@@UAE@XZ:PROC
; Function compile flags: /Ogsp
;	COMDAT ??1bad_alloc@std@@UAE@XZ
_TEXT	SEGMENT
??1bad_alloc@std@@UAE@XZ PROC				; std::bad_alloc::~bad_alloc, COMDAT
; _this$ = ecx

; 354  : 		{	// destroy the object

  00000	c7 01 00 00 00
	00		 mov	 DWORD PTR [ecx], OFFSET ??_7bad_alloc@std@@6B@

; 355  : 		}

  00006	ff 25 00 00 00
	00		 jmp	 DWORD PTR __imp_??1exception@std@@UAE@XZ
??1bad_alloc@std@@UAE@XZ ENDP				; std::bad_alloc::~bad_alloc
_TEXT	ENDS
EXTRN	??3@YAXPAX@Z:PROC				; operator delete
; Function compile flags: /Ogsp
;	COMDAT ??_Gbad_alloc@std@@UAEPAXI@Z
_TEXT	SEGMENT
___flags$ = 8						; size = 4
??_Gbad_alloc@std@@UAEPAXI@Z PROC			; std::bad_alloc::`scalar deleting destructor', COMDAT
; _this$ = ecx
  00000	55		 push	 ebp
  00001	8b ec		 mov	 ebp, esp
  00003	56		 push	 esi
  00004	8b f1		 mov	 esi, ecx
  00006	c7 06 00 00 00
	00		 mov	 DWORD PTR [esi], OFFSET ??_7bad_alloc@std@@6B@
  0000c	ff 15 00 00 00
	00		 call	 DWORD PTR __imp_??1exception@std@@UAE@XZ
  00012	f6 45 08 01	 test	 BYTE PTR ___flags$[ebp], 1
  00016	74 07		 je	 SHORT $LN1@scalar
  00018	56		 push	 esi
  00019	e8 00 00 00 00	 call	 ??3@YAXPAX@Z		; operator delete
  0001e	59		 pop	 ecx
$LN1@scalar:
  0001f	8b c6		 mov	 eax, esi
  00021	5e		 pop	 esi
  00022	5d		 pop	 ebp
  00023	c2 04 00	 ret	 4
??_Gbad_alloc@std@@UAEPAXI@Z ENDP			; std::bad_alloc::`scalar deleting destructor'
_TEXT	ENDS
PUBLIC	??2@YAPAXIPAX@Z					; operator new
; Function compile flags: /Ogsp
; File c:\program files (x86)\microsoft visual studio 10.0\vc\include\new
;	COMDAT ??2@YAPAXIPAX@Z
_TEXT	SEGMENT
___formal$ = 8						; size = 4
__Where$ = 12						; size = 4
??2@YAPAXIPAX@Z PROC					; operator new, COMDAT

; 56   : 	{	// construct array with placement at _Where

  00000	55		 push	 ebp
  00001	8b ec		 mov	 ebp, esp

; 57   : 	return (_Where);

  00003	8b 45 0c	 mov	 eax, DWORD PTR __Where$[ebp]

; 58   : 	}

  00006	5d		 pop	 ebp
  00007	c3		 ret	 0
??2@YAPAXIPAX@Z ENDP					; operator new
_TEXT	ENDS
PUBLIC	??3@YAXPAX0@Z					; operator delete
; Function compile flags: /Ogsp
;	COMDAT ??3@YAXPAX0@Z
_TEXT	SEGMENT
___formal$ = 8						; size = 4
___formal$ = 12						; size = 4
??3@YAXPAX0@Z PROC					; operator delete, COMDAT

; 62   : 	}

  00000	c3		 ret	 0
??3@YAXPAX0@Z ENDP					; operator delete
_TEXT	ENDS
PUBLIC	??_R0?AVioWeapon@@@8				; ioWeapon `RTTI Type Descriptor'
PUBLIC	??_R0?AVioZoneEffectWeapon@@@8			; ioZoneEffectWeapon `RTTI Type Descriptor'
PUBLIC	?ToZoneEffectWeapon@@YAPAVioZoneEffectWeapon@@PAVioWeapon@@@Z ; ToZoneEffectWeapon
EXTRN	___RTDynamicCast:PROC
;	COMDAT ??_R0?AVioWeapon@@@8
; File d:\lost saga for developer\youtube\tutorial\source\src\lsclient\iozoneeffectweapon.h
_DATA	SEGMENT
??_R0?AVioWeapon@@@8 DD FLAT:??_7type_info@@6B@		; ioWeapon `RTTI Type Descriptor'
	DD	00H
	DB	'.?AVioWeapon@@', 00H
_DATA	ENDS
;	COMDAT ??_R0?AVioZoneEffectWeapon@@@8
_DATA	SEGMENT
??_R0?AVioZoneEffectWeapon@@@8 DD FLAT:??_7type_info@@6B@ ; ioZoneEffectWeapon `RTTI Type Descriptor'
	DD	00H
	DB	'.?AVioZoneEffectWeapon@@', 00H
; Function compile flags: /Ogsp
_DATA	ENDS
;	COMDAT ?ToZoneEffectWeapon@@YAPAVioZoneEffectWeapon@@PAVioWeapon@@@Z
_TEXT	SEGMENT
_pWeapon$ = 8						; size = 4
?ToZoneEffectWeapon@@YAPAVioZoneEffectWeapon@@PAVioWeapon@@@Z PROC ; ToZoneEffectWeapon, COMDAT

; 217  : {

  00000	55		 push	 ebp
  00001	8b ec		 mov	 ebp, esp
  00003	56		 push	 esi

; 218  : 	if( !pWeapon || pWeapon->GetType() != ioWeapon::WT_ZONE_EFFECT )

  00004	8b 75 08	 mov	 esi, DWORD PTR _pWeapon$[ebp]
  00007	85 f6		 test	 esi, esi
  00009	74 28		 je	 SHORT $LN1@ToZoneEffe
  0000b	8b 06		 mov	 eax, DWORD PTR [esi]
  0000d	8b ce		 mov	 ecx, esi
  0000f	ff 90 10 01 00
	00		 call	 DWORD PTR [eax+272]
  00015	83 f8 08	 cmp	 eax, 8
  00018	75 19		 jne	 SHORT $LN1@ToZoneEffe

; 220  : 
; 221  : 	return dynamic_cast< ioZoneEffectWeapon* >( pWeapon );

  0001a	6a 00		 push	 0
  0001c	68 00 00 00 00	 push	 OFFSET ??_R0?AVioZoneEffectWeapon@@@8
  00021	68 00 00 00 00	 push	 OFFSET ??_R0?AVioWeapon@@@8
  00026	6a 00		 push	 0
  00028	56		 push	 esi
  00029	e8 00 00 00 00	 call	 ___RTDynamicCast
  0002e	83 c4 14	 add	 esp, 20			; 00000014H
  00031	eb 02		 jmp	 SHORT $LN3@ToZoneEffe
$LN1@ToZoneEffe:

; 219  : 		return NULL;

  00033	33 c0		 xor	 eax, eax
$LN3@ToZoneEffe:
  00035	5e		 pop	 esi

; 222  : }

  00036	5d		 pop	 ebp
  00037	c3		 ret	 0
?ToZoneEffectWeapon@@YAPAVioZoneEffectWeapon@@PAVioWeapon@@@Z ENDP ; ToZoneEffectWeapon
_TEXT	ENDS
PUBLIC	??_R0?AVioRotationWeapon@@@8			; ioRotationWeapon `RTTI Type Descriptor'
PUBLIC	?ToRotationWeapon@@YAPAVioRotationWeapon@@PAVioWeapon@@@Z ; ToRotationWeapon
;	COMDAT ??_R0?AVioRotationWeapon@@@8
; File d:\lost saga for developer\youtube\tutorial\source\src\lsclient\iorotationweapon.h
_DATA	SEGMENT
??_R0?AVioRotationWeapon@@@8 DD FLAT:??_7type_info@@6B@	; ioRotationWeapon `RTTI Type Descriptor'
	DD	00H
	DB	'.?AVioRotationWeapon@@', 00H
; Function compile flags: /Ogsp
_DATA	ENDS
;	COMDAT ?ToRotationWeapon@@YAPAVioRotationWeapon@@PAVioWeapon@@@Z
_TEXT	SEGMENT
_pWeapon$ = 8						; size = 4
?ToRotationWeapon@@YAPAVioRotationWeapon@@PAVioWeapon@@@Z PROC ; ToRotationWeapon, COMDAT

; 81   : {

  00000	55		 push	 ebp
  00001	8b ec		 mov	 ebp, esp
  00003	56		 push	 esi

; 82   : 	if( !pWeapon || pWeapon->GetType() != ioWeapon::WT_ROTATE )

  00004	8b 75 08	 mov	 esi, DWORD PTR _pWeapon$[ebp]
  00007	85 f6		 test	 esi, esi
  00009	74 28		 je	 SHORT $LN1@ToRotation
  0000b	8b 06		 mov	 eax, DWORD PTR [esi]
  0000d	8b ce		 mov	 ecx, esi
  0000f	ff 90 10 01 00
	00		 call	 DWORD PTR [eax+272]
  00015	83 f8 13	 cmp	 eax, 19			; 00000013H
  00018	75 19		 jne	 SHORT $LN1@ToRotation

; 84   : 
; 85   : 	return dynamic_cast< ioRotationWeapon* >( pWeapon );

  0001a	6a 00		 push	 0
  0001c	68 00 00 00 00	 push	 OFFSET ??_R0?AVioRotationWeapon@@@8
  00021	68 00 00 00 00	 push	 OFFSET ??_R0?AVioWeapon@@@8
  00026	6a 00		 push	 0
  00028	56		 push	 esi
  00029	e8 00 00 00 00	 call	 ___RTDynamicCast
  0002e	83 c4 14	 add	 esp, 20			; 00000014H
  00031	eb 02		 jmp	 SHORT $LN3@ToRotation
$LN1@ToRotation:

; 83   : 		return NULL;

  00033	33 c0		 xor	 eax, eax
$LN3@ToRotation:
  00035	5e		 pop	 esi

; 86   : }

  00036	5d		 pop	 ebp
  00037	c3		 ret	 0
?ToRotationWeapon@@YAPAVioRotationWeapon@@PAVioWeapon@@@Z ENDP ; ToRotationWeapon
_TEXT	ENDS
PUBLIC	?_Adopt@_Iterator_base0@std@@QAEXPBX@Z		; std::_Iterator_base0::_Adopt
; Function compile flags: /Ogsp
; File c:\program files (x86)\microsoft visual studio 10.0\vc\include\xutility
;	COMDAT ?_Adopt@_Iterator_base0@std@@QAEXPBX@Z
_TEXT	SEGMENT
___formal$ = 8						; size = 4
?_Adopt@_Iterator_base0@std@@QAEXPBX@Z PROC		; std::_Iterator_base0::_Adopt, COMDAT
; _this$ = ecx

; 49   : 		}

  00000	c2 04 00	 ret	 4
?_Adopt@_Iterator_base0@std@@QAEXPBX@Z ENDP		; std::_Iterator_base0::_Adopt
_TEXT	ENDS
PUBLIC	?OnSkillStart@ioMoveAttackSkill@@UAE_NPAVioBaseChar@@@Z ; ioMoveAttackSkill::OnSkillStart
EXTRN	?OnSkillStart@ioAttackSkill@@UAE_NPAVioBaseChar@@@Z:PROC ; ioAttackSkill::OnSkillStart
EXTRN	?ShowWeaponItemMesh@ioBaseChar@@QAEX_N0@Z:PROC	; ioBaseChar::ShowWeaponItemMesh
; Function compile flags: /Ogsp
; File d:\lost saga for developer\youtube\tutorial\source\src\lsclient\iomoveattackskill.cpp
;	COMDAT ?OnSkillStart@ioMoveAttackSkill@@UAE_NPAVioBaseChar@@@Z
_TEXT	SEGMENT
_pChar$ = 8						; size = 4
?OnSkillStart@ioMoveAttackSkill@@UAE_NPAVioBaseChar@@@Z PROC ; ioMoveAttackSkill::OnSkillStart, COMDAT
; _this$ = ecx

; 68   : {

  00000	55		 push	 ebp
  00001	8b ec		 mov	 ebp, esp
  00003	53		 push	 ebx
  00004	56		 push	 esi
  00005	8b f1		 mov	 esi, ecx

; 69   : 	// 기본 무기 손에서 제거
; 70   : 	m_bSetHandMesh = false;

  00007	33 db		 xor	 ebx, ebx
  00009	88 9e 0a 0f 00
	00		 mov	 BYTE PTR [esi+3850], bl

; 71   : 	if( m_bUseItemMesh )

  0000f	38 9e 08 0f 00
	00		 cmp	 BYTE PTR [esi+3848], bl
  00015	74 0a		 je	 SHORT $LN1@OnSkillSta

; 72   : 	{
; 73   : 		pChar->ShowWeaponItemMesh( false );

  00017	8b 4d 08	 mov	 ecx, DWORD PTR _pChar$[ebp]
  0001a	53		 push	 ebx
  0001b	53		 push	 ebx
  0001c	e8 00 00 00 00	 call	 ?ShowWeaponItemMesh@ioBaseChar@@QAEX_N0@Z ; ioBaseChar::ShowWeaponItemMesh
$LN1@OnSkillSta:

; 74   : 	}
; 75   : 
; 76   : 	m_iWeaponWay = 0;
; 77   : 
; 78   : 	return ioAttackSkill::OnSkillStart( pChar );

  00021	ff 75 08	 push	 DWORD PTR _pChar$[ebp]
  00024	8b ce		 mov	 ecx, esi
  00026	89 9e f0 10 00
	00		 mov	 DWORD PTR [esi+4336], ebx
  0002c	e8 00 00 00 00	 call	 ?OnSkillStart@ioAttackSkill@@UAE_NPAVioBaseChar@@@Z ; ioAttackSkill::OnSkillStart
  00031	5e		 pop	 esi
  00032	5b		 pop	 ebx

; 79   : }

  00033	5d		 pop	 ebp
  00034	c2 04 00	 ret	 4
?OnSkillStart@ioMoveAttackSkill@@UAE_NPAVioBaseChar@@@Z ENDP ; ioMoveAttackSkill::OnSkillStart
_TEXT	ENDS
PUBLIC	?OnProcessState@ioMoveAttackSkill@@UAEXPAVioBaseChar@@PAVioPlayStage@@@Z ; ioMoveAttackSkill::OnProcessState
EXTRN	__imp_?GetLoopSec@ioFrameTimer@@QBEKXZ:PROC
EXTRN	__imp_?GetSingleton@ioFrameTimer@@SAAAV1@XZ:PROC
EXTRN	?CheckExtraAniJump@ioSkill@@IAEXPAVioBaseChar@@@Z:PROC ; ioSkill::CheckExtraAniJump
; Function compile flags: /Ogsp
;	COMDAT ?OnProcessState@ioMoveAttackSkill@@UAEXPAVioBaseChar@@PAVioPlayStage@@@Z
_TEXT	SEGMENT
_pChar$ = 8						; size = 4
_pStage$ = 12						; size = 4
?OnProcessState@ioMoveAttackSkill@@UAEXPAVioBaseChar@@PAVioPlayStage@@@Z PROC ; ioMoveAttackSkill::OnProcessState, COMDAT
; _this$ = ecx

; 145  : {

  00000	55		 push	 ebp
  00001	8b ec		 mov	 ebp, esp
  00003	56		 push	 esi
  00004	8b f1		 mov	 esi, ecx

; 146  : 	if( m_dwPreDelayStartTime == 0 )

  00006	83 be 20 02 00
	00 00		 cmp	 DWORD PTR [esi+544], 0
  0000d	75 0a		 jne	 SHORT $LN2@OnProcessS

; 147  : 	{
; 148  : 		CheckExtraAniJump( pChar );

  0000f	ff 75 08	 push	 DWORD PTR _pChar$[ebp]
  00012	e8 00 00 00 00	 call	 ?CheckExtraAniJump@ioSkill@@IAEXPAVioBaseChar@@@Z ; ioSkill::CheckExtraAniJump

; 149  : 		return;

  00017	eb 47		 jmp	 SHORT $LN1@OnProcessS
$LN2@OnProcessS:

; 150  : 	}
; 151  : 
; 152  : 	DWORD dwPreDelay = GetPreDelayTime();

  00019	8b 06		 mov	 eax, DWORD PTR [esi]
  0001b	57		 push	 edi
  0001c	ff 90 34 01 00
	00		 call	 DWORD PTR [eax+308]
  00022	8b f8		 mov	 edi, eax

; 153  : 
; 154  : 	if( m_dwPreDelayStartTime + dwPreDelay < FRAMEGETTIME() )

  00024	ff 15 00 00 00
	00		 call	 DWORD PTR __imp_?GetSingleton@ioFrameTimer@@SAAAV1@XZ
  0002a	8b c8		 mov	 ecx, eax
  0002c	ff 15 00 00 00
	00		 call	 DWORD PTR __imp_?GetLoopSec@ioFrameTimer@@QBEKXZ
  00032	8b 8e 20 02 00
	00		 mov	 ecx, DWORD PTR [esi+544]
  00038	03 cf		 add	 ecx, edi
  0003a	5f		 pop	 edi
  0003b	3b c8		 cmp	 ecx, eax
  0003d	73 21		 jae	 SHORT $LN1@OnProcessS

; 155  : 	{
; 156  : 		m_dwPreDelayStartTime = 0;
; 157  : 
; 158  : 		AttackSkillFire( pChar );

  0003f	ff 75 08	 push	 DWORD PTR _pChar$[ebp]
  00042	8b 06		 mov	 eax, DWORD PTR [esi]
  00044	83 a6 20 02 00
	00 00		 and	 DWORD PTR [esi+544], 0
  0004b	8b ce		 mov	 ecx, esi
  0004d	ff 90 8c 01 00
	00		 call	 DWORD PTR [eax+396]

; 159  : 		EndPreDelayEffect( pChar );

  00053	ff 75 08	 push	 DWORD PTR _pChar$[ebp]
  00056	8b 06		 mov	 eax, DWORD PTR [esi]
  00058	8b ce		 mov	 ecx, esi
  0005a	ff 90 dc 00 00
	00		 call	 DWORD PTR [eax+220]
$LN1@OnProcessS:
  00060	5e		 pop	 esi

; 160  : 	}
; 161  : }

  00061	5d		 pop	 ebp
  00062	c2 08 00	 ret	 8
?OnProcessState@ioMoveAttackSkill@@UAEXPAVioBaseChar@@PAVioPlayStage@@@Z ENDP ; ioMoveAttackSkill::OnProcessState
_TEXT	ENDS
PUBLIC	?CheckUseItemMesh@ioMoveAttackSkill@@UAE_NXZ	; ioMoveAttackSkill::CheckUseItemMesh
; Function compile flags: /Ogsp
;	COMDAT ?CheckUseItemMesh@ioMoveAttackSkill@@UAE_NXZ
_TEXT	SEGMENT
?CheckUseItemMesh@ioMoveAttackSkill@@UAE_NXZ PROC	; ioMoveAttackSkill::CheckUseItemMesh, COMDAT
; _this$ = ecx

; 241  : 	return m_bUseItemMesh;

  00000	8a 81 08 0f 00
	00		 mov	 al, BYTE PTR [ecx+3848]

; 242  : }

  00006	c3		 ret	 0
?CheckUseItemMesh@ioMoveAttackSkill@@UAE_NXZ ENDP	; ioMoveAttackSkill::CheckUseItemMesh
_TEXT	ENDS
PUBLIC	??A?$vector@UBulletInfo@@V?$allocator@UBulletInfo@@@std@@@std@@QAEAAUBulletInfo@@I@Z ; std::vector<BulletInfo,std::allocator<BulletInfo> >::operator[]
; Function compile flags: /Ogsp
; File c:\program files (x86)\microsoft visual studio 10.0\vc\include\vector
;	COMDAT ??A?$vector@UBulletInfo@@V?$allocator@UBulletInfo@@@std@@@std@@QAEAAUBulletInfo@@I@Z
_TEXT	SEGMENT
__Pos$ = 8						; size = 4
??A?$vector@UBulletInfo@@V?$allocator@UBulletInfo@@@std@@@std@@QAEAAUBulletInfo@@I@Z PROC ; std::vector<BulletInfo,std::allocator<BulletInfo> >::operator[], COMDAT
; _this$ = ecx

; 928  : 		{	// subscript mutable sequence

  00000	55		 push	 ebp
  00001	8b ec		 mov	 ebp, esp

; 929  :  #if _ITERATOR_DEBUG_LEVEL == 2
; 930  : 		if (size() <= _Pos)
; 931  : 			{	// report error
; 932  : 			_DEBUG_ERROR("vector subscript out of range");
; 933  : 			_SCL_SECURE_OUT_OF_RANGE;
; 934  : 			}
; 935  : 
; 936  :  #elif _ITERATOR_DEBUG_LEVEL == 1
; 937  : 		_SCL_SECURE_VALIDATE_RANGE(_Pos < size());
; 938  :  #endif /* _ITERATOR_DEBUG_LEVEL */
; 939  : 
; 940  : 		return (*(this->_Myfirst + _Pos));

  00003	8b 45 08	 mov	 eax, DWORD PTR __Pos$[ebp]
  00006	6b c0 14	 imul	 eax, 20			; 00000014H
  00009	03 01		 add	 eax, DWORD PTR [ecx]

; 941  : 		}

  0000b	5d		 pop	 ebp
  0000c	c2 04 00	 ret	 4
??A?$vector@UBulletInfo@@V?$allocator@UBulletInfo@@@std@@@std@@QAEAAUBulletInfo@@I@Z ENDP ; std::vector<BulletInfo,std::allocator<BulletInfo> >::operator[]
_TEXT	ENDS
PUBLIC	?size@?$vector@UBulletInfo@@V?$allocator@UBulletInfo@@@std@@@std@@QBEIXZ ; std::vector<BulletInfo,std::allocator<BulletInfo> >::size
; Function compile flags: /Ogsp
;	COMDAT ?size@?$vector@UBulletInfo@@V?$allocator@UBulletInfo@@@std@@@std@@QBEIXZ
_TEXT	SEGMENT
?size@?$vector@UBulletInfo@@V?$allocator@UBulletInfo@@@std@@@std@@QBEIXZ PROC ; std::vector<BulletInfo,std::allocator<BulletInfo> >::size, COMDAT
; _this$ = ecx

; 879  : 		return (this->_Mylast - this->_Myfirst);

  00000	8b 41 04	 mov	 eax, DWORD PTR [ecx+4]
  00003	2b 01		 sub	 eax, DWORD PTR [ecx]
  00005	6a 14		 push	 20			; 00000014H
  00007	99		 cdq
  00008	59		 pop	 ecx
  00009	f7 f9		 idiv	 ecx

; 880  : 		}

  0000b	c3		 ret	 0
?size@?$vector@UBulletInfo@@V?$allocator@UBulletInfo@@@std@@@std@@QBEIXZ ENDP ; std::vector<BulletInfo,std::allocator<BulletInfo> >::size
_TEXT	ENDS
PUBLIC	?_Inside@?$vector@UBulletInfo@@V?$allocator@UBulletInfo@@@std@@@std@@IBE_NPBUBulletInfo@@@Z ; std::vector<BulletInfo,std::allocator<BulletInfo> >::_Inside
; Function compile flags: /Ogsp
;	COMDAT ?_Inside@?$vector@UBulletInfo@@V?$allocator@UBulletInfo@@@std@@@std@@IBE_NPBUBulletInfo@@@Z
_TEXT	SEGMENT
__Ptr$ = 8						; size = 4
?_Inside@?$vector@UBulletInfo@@V?$allocator@UBulletInfo@@@std@@@std@@IBE_NPBUBulletInfo@@@Z PROC ; std::vector<BulletInfo,std::allocator<BulletInfo> >::_Inside, COMDAT
; _this$ = ecx

; 1285 : 		{	// test if _Ptr points inside vector

  00000	55		 push	 ebp
  00001	8b ec		 mov	 ebp, esp

; 1286 : 		return (_Ptr < this->_Mylast && this->_Myfirst <= _Ptr);

  00003	8b 45 08	 mov	 eax, DWORD PTR __Ptr$[ebp]
  00006	3b 41 04	 cmp	 eax, DWORD PTR [ecx+4]
  00009	73 09		 jae	 SHORT $LN3@Inside
  0000b	39 01		 cmp	 DWORD PTR [ecx], eax
  0000d	77 05		 ja	 SHORT $LN3@Inside
  0000f	33 c0		 xor	 eax, eax
  00011	40		 inc	 eax
  00012	eb 02		 jmp	 SHORT $LN4@Inside
$LN3@Inside:
  00014	33 c0		 xor	 eax, eax
$LN4@Inside:

; 1287 : 		}

  00016	5d		 pop	 ebp
  00017	c2 04 00	 ret	 4
?_Inside@?$vector@UBulletInfo@@V?$allocator@UBulletInfo@@@std@@@std@@IBE_NPBUBulletInfo@@@Z ENDP ; std::vector<BulletInfo,std::allocator<BulletInfo> >::_Inside
_TEXT	ENDS
PUBLIC	?_Orphan_range@?$vector@UBulletInfo@@V?$allocator@UBulletInfo@@@std@@@std@@IBEXPAUBulletInfo@@0@Z ; std::vector<BulletInfo,std::allocator<BulletInfo> >::_Orphan_range
; Function compile flags: /Ogsp
;	COMDAT ?_Orphan_range@?$vector@UBulletInfo@@V?$allocator@UBulletInfo@@@std@@@std@@IBEXPAUBulletInfo@@0@Z
_TEXT	SEGMENT
___formal$ = 8						; size = 4
___formal$ = 12						; size = 4
?_Orphan_range@?$vector@UBulletInfo@@V?$allocator@UBulletInfo@@@std@@@std@@IBEXPAUBulletInfo@@0@Z PROC ; std::vector<BulletInfo,std::allocator<BulletInfo> >::_Orphan_range, COMDAT
; _this$ = ecx

; 1454 : 		}

  00000	c2 08 00	 ret	 8
?_Orphan_range@?$vector@UBulletInfo@@V?$allocator@UBulletInfo@@@std@@@std@@IBEXPAUBulletInfo@@0@Z ENDP ; std::vector<BulletInfo,std::allocator<BulletInfo> >::_Orphan_range
_TEXT	ENDS
PUBLIC	??1?$_Vector_val@UBulletInfo@@V?$allocator@UBulletInfo@@@std@@@std@@QAE@XZ ; std::_Vector_val<BulletInfo,std::allocator<BulletInfo> >::~_Vector_val<BulletInfo,std::allocator<BulletInfo> >
; Function compile flags: /Ogsp
;	COMDAT ??1?$_Vector_val@UBulletInfo@@V?$allocator@UBulletInfo@@@std@@@std@@QAE@XZ
_TEXT	SEGMENT
??1?$_Vector_val@UBulletInfo@@V?$allocator@UBulletInfo@@@std@@@std@@QAE@XZ PROC ; std::_Vector_val<BulletInfo,std::allocator<BulletInfo> >::~_Vector_val<BulletInfo,std::allocator<BulletInfo> >, COMDAT
; _this$ = ecx

; 434  : 		}

  00000	c3		 ret	 0
??1?$_Vector_val@UBulletInfo@@V?$allocator@UBulletInfo@@@std@@@std@@QAE@XZ ENDP ; std::_Vector_val<BulletInfo,std::allocator<BulletInfo> >::~_Vector_val<BulletInfo,std::allocator<BulletInfo> >
_TEXT	ENDS
PUBLIC	??0?$allocator@UBulletInfo@@@std@@QAE@XZ	; std::allocator<BulletInfo>::allocator<BulletInfo>
; Function compile flags: /Ogsp
; File c:\program files (x86)\microsoft visual studio 10.0\vc\include\xmemory
;	COMDAT ??0?$allocator@UBulletInfo@@@std@@QAE@XZ
_TEXT	SEGMENT
??0?$allocator@UBulletInfo@@@std@@QAE@XZ PROC		; std::allocator<BulletInfo>::allocator<BulletInfo>, COMDAT
; _this$ = ecx

; 161  : 	_ALLOCATOR() _THROW0()

  00000	8b c1		 mov	 eax, ecx

; 162  : 		{	// construct default allocator (do nothing)
; 163  : 		}

  00002	c3		 ret	 0
??0?$allocator@UBulletInfo@@@std@@QAE@XZ ENDP		; std::allocator<BulletInfo>::allocator<BulletInfo>
_TEXT	ENDS
PUBLIC	??0?$allocator@UBulletInfo@@@std@@QAE@ABV01@@Z	; std::allocator<BulletInfo>::allocator<BulletInfo>
; Function compile flags: /Ogsp
;	COMDAT ??0?$allocator@UBulletInfo@@@std@@QAE@ABV01@@Z
_TEXT	SEGMENT
___formal$ = 8						; size = 4
??0?$allocator@UBulletInfo@@@std@@QAE@ABV01@@Z PROC	; std::allocator<BulletInfo>::allocator<BulletInfo>, COMDAT
; _this$ = ecx

; 165  : 	_ALLOCATOR(const _ALLOCATOR<_Ty>&) _THROW0()

  00000	8b c1		 mov	 eax, ecx

; 166  : 		{	// construct by copying (do nothing)
; 167  : 		}

  00002	c2 04 00	 ret	 4
??0?$allocator@UBulletInfo@@@std@@QAE@ABV01@@Z ENDP	; std::allocator<BulletInfo>::allocator<BulletInfo>
_TEXT	ENDS
PUBLIC	?capacity@?$vector@UBulletInfo@@V?$allocator@UBulletInfo@@@std@@@std@@QBEIXZ ; std::vector<BulletInfo,std::allocator<BulletInfo> >::capacity
; Function compile flags: /Ogsp
; File c:\program files (x86)\microsoft visual studio 10.0\vc\include\vector
;	COMDAT ?capacity@?$vector@UBulletInfo@@V?$allocator@UBulletInfo@@@std@@@std@@QBEIXZ
_TEXT	SEGMENT
?capacity@?$vector@UBulletInfo@@V?$allocator@UBulletInfo@@@std@@@std@@QBEIXZ PROC ; std::vector<BulletInfo,std::allocator<BulletInfo> >::capacity, COMDAT
; _this$ = ecx

; 777  : 		return (this->_Myend - this->_Myfirst);

  00000	8b 41 08	 mov	 eax, DWORD PTR [ecx+8]
  00003	2b 01		 sub	 eax, DWORD PTR [ecx]
  00005	6a 14		 push	 20			; 00000014H
  00007	99		 cdq
  00008	59		 pop	 ecx
  00009	f7 f9		 idiv	 ecx

; 778  : 		}

  0000b	c3		 ret	 0
?capacity@?$vector@UBulletInfo@@V?$allocator@UBulletInfo@@@std@@@std@@QBEIXZ ENDP ; std::vector<BulletInfo,std::allocator<BulletInfo> >::capacity
_TEXT	ENDS
PUBLIC	??_C@_0BD@OLBABOEK@vector?$DMT?$DO?5too?5long?$AA@ ; `string'
PUBLIC	?_Xlen@?$vector@UBulletInfo@@V?$allocator@UBulletInfo@@@std@@@std@@IBEXXZ ; std::vector<BulletInfo,std::allocator<BulletInfo> >::_Xlen
EXTRN	__imp_?_Xlength_error@std@@YAXPBD@Z:PROC
;	COMDAT ??_C@_0BD@OLBABOEK@vector?$DMT?$DO?5too?5long?$AA@
CONST	SEGMENT
??_C@_0BD@OLBABOEK@vector?$DMT?$DO?5too?5long?$AA@ DB 'vector<T> too long'
	DB	00H						; `string'
; Function compile flags: /Ogsp
CONST	ENDS
;	COMDAT ?_Xlen@?$vector@UBulletInfo@@V?$allocator@UBulletInfo@@@std@@@std@@IBEXXZ
_TEXT	SEGMENT
?_Xlen@?$vector@UBulletInfo@@V?$allocator@UBulletInfo@@@std@@@std@@IBEXXZ PROC ; std::vector<BulletInfo,std::allocator<BulletInfo> >::_Xlen, COMDAT
; _this$ = ecx

; 1427 : 		_Xlength_error("vector<T> too long");

  00000	68 00 00 00 00	 push	 OFFSET ??_C@_0BD@OLBABOEK@vector?$DMT?$DO?5too?5long?$AA@
  00005	ff 15 00 00 00
	00		 call	 DWORD PTR __imp_?_Xlength_error@std@@YAXPBD@Z
$LN4@Xlen:
$LN3@Xlen:
  0000b	cc		 int	 3
?_Xlen@?$vector@UBulletInfo@@V?$allocator@UBulletInfo@@@std@@@std@@IBEXXZ ENDP ; std::vector<BulletInfo,std::allocator<BulletInfo> >::_Xlen
_TEXT	ENDS
PUBLIC	?deallocate@?$allocator@UBulletInfo@@@std@@QAEXPAUBulletInfo@@I@Z ; std::allocator<BulletInfo>::deallocate
; Function compile flags: /Ogsp
; File c:\program files (x86)\microsoft visual studio 10.0\vc\include\xmemory
;	COMDAT ?deallocate@?$allocator@UBulletInfo@@@std@@QAEXPAUBulletInfo@@I@Z
_TEXT	SEGMENT
__Ptr$ = 8						; size = 4
___formal$ = 12						; size = 4
?deallocate@?$allocator@UBulletInfo@@@std@@QAEXPAUBulletInfo@@I@Z PROC ; std::allocator<BulletInfo>::deallocate, COMDAT
; _this$ = ecx

; 181  : 		{	// deallocate object at _Ptr, ignore size

  00000	55		 push	 ebp
  00001	8b ec		 mov	 ebp, esp

; 182  : 		::operator delete(_Ptr);

  00003	ff 75 08	 push	 DWORD PTR __Ptr$[ebp]
  00006	e8 00 00 00 00	 call	 ??3@YAXPAX@Z		; operator delete
  0000b	59		 pop	 ecx

; 183  : 		}

  0000c	5d		 pop	 ebp
  0000d	c2 08 00	 ret	 8
?deallocate@?$allocator@UBulletInfo@@@std@@QAEXPAUBulletInfo@@I@Z ENDP ; std::allocator<BulletInfo>::deallocate
_TEXT	ENDS
PUBLIC	??0?$_Vector_const_iterator@V?$_Vector_val@UBulletInfo@@V?$allocator@UBulletInfo@@@std@@@std@@@std@@QAE@PAUBulletInfo@@PBU_Container_base0@1@@Z ; std::_Vector_const_iterator<std::_Vector_val<BulletInfo,std::allocator<BulletInfo> > >::_Vector_const_iterator<std::_Vector_val<BulletInfo,std::allocator<BulletInfo> > >
; Function compile flags: /Ogsp
; File c:\program files (x86)\microsoft visual studio 10.0\vc\include\vector
;	COMDAT ??0?$_Vector_const_iterator@V?$_Vector_val@UBulletInfo@@V?$allocator@UBulletInfo@@@std@@@std@@@std@@QAE@PAUBulletInfo@@PBU_Container_base0@1@@Z
_TEXT	SEGMENT
__Parg$ = 8						; size = 4
__Pvector$ = 12						; size = 4
??0?$_Vector_const_iterator@V?$_Vector_val@UBulletInfo@@V?$allocator@UBulletInfo@@@std@@@std@@@std@@QAE@PAUBulletInfo@@PBU_Container_base0@1@@Z PROC ; std::_Vector_const_iterator<std::_Vector_val<BulletInfo,std::allocator<BulletInfo> > >::_Vector_const_iterator<std::_Vector_val<BulletInfo,std::allocator<BulletInfo> > >, COMDAT
; _this$ = ecx

; 45   : 		{	// construct with pointer _Parg

  00000	55		 push	 ebp
  00001	8b ec		 mov	 ebp, esp
  00003	8b c1		 mov	 eax, ecx
  00005	8b 4d 08	 mov	 ecx, DWORD PTR __Parg$[ebp]
  00008	89 08		 mov	 DWORD PTR [eax], ecx

; 46   : 		this->_Adopt(_Pvector);
; 47   : 		}

  0000a	5d		 pop	 ebp
  0000b	c2 08 00	 ret	 8
??0?$_Vector_const_iterator@V?$_Vector_val@UBulletInfo@@V?$allocator@UBulletInfo@@@std@@@std@@@std@@QAE@PAUBulletInfo@@PBU_Container_base0@1@@Z ENDP ; std::_Vector_const_iterator<std::_Vector_val<BulletInfo,std::allocator<BulletInfo> > >::_Vector_const_iterator<std::_Vector_val<BulletInfo,std::allocator<BulletInfo> > >
_TEXT	ENDS
PUBLIC	??0?$_Vector_iterator@V?$_Vector_val@UBulletInfo@@V?$allocator@UBulletInfo@@@std@@@std@@@std@@QAE@PAUBulletInfo@@PBU_Container_base0@1@@Z ; std::_Vector_iterator<std::_Vector_val<BulletInfo,std::allocator<BulletInfo> > >::_Vector_iterator<std::_Vector_val<BulletInfo,std::allocator<BulletInfo> > >
; Function compile flags: /Ogsp
;	COMDAT ??0?$_Vector_iterator@V?$_Vector_val@UBulletInfo@@V?$allocator@UBulletInfo@@@std@@@std@@@std@@QAE@PAUBulletInfo@@PBU_Container_base0@1@@Z
_TEXT	SEGMENT
__Parg$ = 8						; size = 4
__Pvector$ = 12						; size = 4
??0?$_Vector_iterator@V?$_Vector_val@UBulletInfo@@V?$allocator@UBulletInfo@@@std@@@std@@@std@@QAE@PAUBulletInfo@@PBU_Container_base0@1@@Z PROC ; std::_Vector_iterator<std::_Vector_val<BulletInfo,std::allocator<BulletInfo> > >::_Vector_iterator<std::_Vector_val<BulletInfo,std::allocator<BulletInfo> > >, COMDAT
; _this$ = ecx

; 304  : 		{	// construct with pointer _Parg

  00000	55		 push	 ebp
  00001	8b ec		 mov	 ebp, esp
  00003	8b c1		 mov	 eax, ecx
  00005	8b 4d 08	 mov	 ecx, DWORD PTR __Parg$[ebp]
  00008	89 08		 mov	 DWORD PTR [eax], ecx

; 305  : 		}

  0000a	5d		 pop	 ebp
  0000b	c2 08 00	 ret	 8
??0?$_Vector_iterator@V?$_Vector_val@UBulletInfo@@V?$allocator@UBulletInfo@@@std@@@std@@@std@@QAE@PAUBulletInfo@@PBU_Container_base0@1@@Z ENDP ; std::_Vector_iterator<std::_Vector_val<BulletInfo,std::allocator<BulletInfo> > >::_Vector_iterator<std::_Vector_val<BulletInfo,std::allocator<BulletInfo> > >
_TEXT	ENDS
PUBLIC	?max_size@?$allocator@UBulletInfo@@@std@@QBEIXZ	; std::allocator<BulletInfo>::max_size
; Function compile flags: /Ogsp
; File c:\program files (x86)\microsoft visual studio 10.0\vc\include\xmemory
;	COMDAT ?max_size@?$allocator@UBulletInfo@@@std@@QBEIXZ
_TEXT	SEGMENT
?max_size@?$allocator@UBulletInfo@@@std@@QBEIXZ PROC	; std::allocator<BulletInfo>::max_size, COMDAT
; _this$ = ecx

; 218  : 		_SIZT _Count = (_SIZT)(-1) / sizeof (_Ty);
; 219  : 		return (0 < _Count ? _Count : 1);

  00000	b8 cc cc cc 0c	 mov	 eax, 214748364		; 0cccccccH

; 220  : 		}

  00005	c3		 ret	 0
?max_size@?$allocator@UBulletInfo@@@std@@QBEIXZ ENDP	; std::allocator<BulletInfo>::max_size
_TEXT	ENDS
PUBLIC	?_Compat@?$_Vector_const_iterator@V?$_Vector_val@UBulletInfo@@V?$allocator@UBulletInfo@@@std@@@std@@@std@@QBEXABV12@@Z ; std::_Vector_const_iterator<std::_Vector_val<BulletInfo,std::allocator<BulletInfo> > >::_Compat
; Function compile flags: /Ogsp
; File c:\program files (x86)\microsoft visual studio 10.0\vc\include\vector
;	COMDAT ?_Compat@?$_Vector_const_iterator@V?$_Vector_val@UBulletInfo@@V?$allocator@UBulletInfo@@@std@@@std@@@std@@QBEXABV12@@Z
_TEXT	SEGMENT
___formal$ = 8						; size = 4
?_Compat@?$_Vector_const_iterator@V?$_Vector_val@UBulletInfo@@V?$allocator@UBulletInfo@@@std@@@std@@@std@@QBEXABV12@@Z PROC ; std::_Vector_const_iterator<std::_Vector_val<BulletInfo,std::allocator<BulletInfo> > >::_Compat, COMDAT
; _this$ = ecx

; 253  : 		}

  00000	c2 04 00	 ret	 4
?_Compat@?$_Vector_const_iterator@V?$_Vector_val@UBulletInfo@@V?$allocator@UBulletInfo@@@std@@@std@@@std@@QBEXABV12@@Z ENDP ; std::_Vector_const_iterator<std::_Vector_val<BulletInfo,std::allocator<BulletInfo> > >::_Compat
_TEXT	ENDS
PUBLIC	__real@3f91df46a2526c7a
PUBLIC	??$DEGtoRAD@M@@YAMM@Z				; DEGtoRAD<float>
EXTRN	__fltused:DWORD
;	COMDAT __real@3f91df46a2526c7a
; File d:\lost saga for developer\youtube\tutorial\source\src\lsclient\veryoftenusedefine.h
CONST	SEGMENT
__real@3f91df46a2526c7a DQ 03f91df46a2526c7ar	; 0.0174533
; Function compile flags: /Ogsp
CONST	ENDS
;	COMDAT ??$DEGtoRAD@M@@YAMM@Z
_TEXT	SEGMENT
tv129 = 8						; size = 4
_val$ = 8						; size = 4
??$DEGtoRAD@M@@YAMM@Z PROC				; DEGtoRAD<float>, COMDAT

; 20   : type  DEGtoRAD (type val) {return (type) (val * 0.0174532925199);}

  00000	55		 push	 ebp
  00001	8b ec		 mov	 ebp, esp
  00003	d9 45 08	 fld	 DWORD PTR _val$[ebp]
  00006	dc 0d 00 00 00
	00		 fmul	 QWORD PTR __real@3f91df46a2526c7a
  0000c	d9 5d 08	 fstp	 DWORD PTR tv129[ebp]
  0000f	d9 45 08	 fld	 DWORD PTR tv129[ebp]
  00012	5d		 pop	 ebp
  00013	c3		 ret	 0
??$DEGtoRAD@M@@YAMM@Z ENDP				; DEGtoRAD<float>
_TEXT	ENDS
PUBLIC	??$addressof@$$CBUBulletInfo@@@std@@YAPBUBulletInfo@@ABU1@@Z ; std::addressof<BulletInfo const >
; Function compile flags: /Ogsp
; File c:\program files (x86)\microsoft visual studio 10.0\vc\include\xmemory
;	COMDAT ??$addressof@$$CBUBulletInfo@@@std@@YAPBUBulletInfo@@ABU1@@Z
_TEXT	SEGMENT
__Val$ = 8						; size = 4
??$addressof@$$CBUBulletInfo@@@std@@YAPBUBulletInfo@@ABU1@@Z PROC ; std::addressof<BulletInfo const >, COMDAT

; 110  : 	{	// return address of _Val

  00000	55		 push	 ebp
  00001	8b ec		 mov	 ebp, esp

; 111  : 	return ((_Ty *) &(char&)_Val);

  00003	8b 45 08	 mov	 eax, DWORD PTR __Val$[ebp]

; 112  : 	}

  00006	5d		 pop	 ebp
  00007	c3		 ret	 0
??$addressof@$$CBUBulletInfo@@@std@@YAPBUBulletInfo@@ABU1@@Z ENDP ; std::addressof<BulletInfo const >
_TEXT	ENDS
PUBLIC	__TI2?AVbad_alloc@std@@
PUBLIC	??$_Allocate@UBulletInfo@@@std@@YAPAUBulletInfo@@IPAU1@@Z ; std::_Allocate<BulletInfo>
PUBLIC	__CTA2?AVbad_alloc@std@@
PUBLIC	__CT??_R0?AVbad_alloc@std@@@8??0bad_alloc@std@@QAE@ABV01@@Z12
PUBLIC	??0bad_alloc@std@@QAE@ABV01@@Z			; std::bad_alloc::bad_alloc
PUBLIC	__CT??_R0?AVexception@std@@@8??0exception@std@@QAE@ABV01@@Z12
EXTRN	??2@YAPAXI@Z:PROC				; operator new
EXTRN	__CxxThrowException@8:PROC
EXTRN	??0exception@std@@QAE@ABV01@@Z:PROC		; std::exception::exception
;	COMDAT __CT??_R0?AVexception@std@@@8??0exception@std@@QAE@ABV01@@Z12
; File c:\program files (x86)\microsoft visual studio 10.0\vc\include\exception
xdata$x	SEGMENT
__CT??_R0?AVexception@std@@@8??0exception@std@@QAE@ABV01@@Z12 DD 00H
	DD	FLAT:??_R0?AVexception@std@@@8
	DD	00H
	DD	0ffffffffH
	ORG $+4
	DD	0cH
	DD	FLAT:??0exception@std@@QAE@ABV01@@Z
xdata$x	ENDS
;	COMDAT __CT??_R0?AVbad_alloc@std@@@8??0bad_alloc@std@@QAE@ABV01@@Z12
xdata$x	SEGMENT
__CT??_R0?AVbad_alloc@std@@@8??0bad_alloc@std@@QAE@ABV01@@Z12 DD 00H
	DD	FLAT:??_R0?AVbad_alloc@std@@@8
	DD	00H
	DD	0ffffffffH
	ORG $+4
	DD	0cH
	DD	FLAT:??0bad_alloc@std@@QAE@ABV01@@Z
xdata$x	ENDS
;	COMDAT __CTA2?AVbad_alloc@std@@
xdata$x	SEGMENT
__CTA2?AVbad_alloc@std@@ DD 02H
	DD	FLAT:__CT??_R0?AVbad_alloc@std@@@8??0bad_alloc@std@@QAE@ABV01@@Z12
	DD	FLAT:__CT??_R0?AVexception@std@@@8??0exception@std@@QAE@ABV01@@Z12
xdata$x	ENDS
;	COMDAT __TI2?AVbad_alloc@std@@
xdata$x	SEGMENT
__TI2?AVbad_alloc@std@@ DD 00H
	DD	FLAT:??1bad_alloc@std@@UAE@XZ
	DD	00H
	DD	FLAT:__CTA2?AVbad_alloc@std@@
; Function compile flags: /Ogsp
; File c:\program files (x86)\microsoft visual studio 10.0\vc\include\xmemory
xdata$x	ENDS
;	COMDAT ??$_Allocate@UBulletInfo@@@std@@YAPAUBulletInfo@@IPAU1@@Z
_TEXT	SEGMENT
$T545244 = -12						; size = 12
$T545249 = 8						; size = 4
__Count$ = 8						; size = 4
___formal$ = 12						; size = 4
??$_Allocate@UBulletInfo@@@std@@YAPAUBulletInfo@@IPAU1@@Z PROC ; std::_Allocate<BulletInfo>, COMDAT

; 30   : 	{	// allocate storage for _Count elements of type _Ty

  00000	55		 push	 ebp
  00001	8b ec		 mov	 ebp, esp

; 31   : 	void *_Ptr = 0;
; 32   : 
; 33   : 	if (_Count <= 0)

  00003	8b 4d 08	 mov	 ecx, DWORD PTR __Count$[ebp]
  00006	83 ec 0c	 sub	 esp, 12			; 0000000cH
  00009	33 c0		 xor	 eax, eax
  0000b	85 c9		 test	 ecx, ecx

; 34   : 		_Count = 0;
; 35   : 	else if (((_SIZT)(-1) / sizeof (_Ty) < _Count)

  0000d	74 3c		 je	 SHORT $LN5@Allocate

; 36   : 		|| (_Ptr = ::operator new(_Count * sizeof (_Ty))) == 0)

  0000f	81 f9 cc cc cc
	0c		 cmp	 ecx, 214748364		; 0cccccccH
  00015	77 0e		 ja	 SHORT $LN1@Allocate
  00017	6b c9 14	 imul	 ecx, 20			; 00000014H
  0001a	51		 push	 ecx
  0001b	e8 00 00 00 00	 call	 ??2@YAPAXI@Z		; operator new
  00020	59		 pop	 ecx
  00021	85 c0		 test	 eax, eax

; 38   : 
; 39   : 	return ((_Ty _FARQ *)_Ptr);

  00023	75 26		 jne	 SHORT $LN5@Allocate
$LN1@Allocate:

; 37   : 		_THROW_NCEE(bad_alloc, 0);

  00025	83 65 08 00	 and	 DWORD PTR $T545249[ebp], 0
  00029	8d 45 08	 lea	 eax, DWORD PTR $T545249[ebp]
  0002c	50		 push	 eax
  0002d	8d 4d f4	 lea	 ecx, DWORD PTR $T545244[ebp]
  00030	ff 15 00 00 00
	00		 call	 DWORD PTR __imp_??0exception@std@@QAE@ABQBD@Z
  00036	68 00 00 00 00	 push	 OFFSET __TI2?AVbad_alloc@std@@
  0003b	8d 45 f4	 lea	 eax, DWORD PTR $T545244[ebp]
  0003e	50		 push	 eax
  0003f	c7 45 f4 00 00
	00 00		 mov	 DWORD PTR $T545244[ebp], OFFSET ??_7bad_alloc@std@@6B@
  00046	e8 00 00 00 00	 call	 __CxxThrowException@8
$LN10@Allocate:
$LN5@Allocate:

; 40   : 	}

  0004b	c9		 leave
  0004c	c3		 ret	 0
$LN9@Allocate:
??$_Allocate@UBulletInfo@@@std@@YAPAUBulletInfo@@IPAU1@@Z ENDP ; std::_Allocate<BulletInfo>
_TEXT	ENDS
PUBLIC	??$forward@AAUBulletInfo@@@std@@YAAAUBulletInfo@@AAU1@@Z ; std::forward<BulletInfo &>
; Function compile flags: /Ogsp
; File c:\program files (x86)\microsoft visual studio 10.0\vc\include\utility
;	COMDAT ??$forward@AAUBulletInfo@@@std@@YAAAUBulletInfo@@AAU1@@Z
_TEXT	SEGMENT
__Arg$ = 8						; size = 4
??$forward@AAUBulletInfo@@@std@@YAAAUBulletInfo@@AAU1@@Z PROC ; std::forward<BulletInfo &>, COMDAT

; 78   : 	{	// forward _Arg, given explicitly specified type parameter

  00000	55		 push	 ebp
  00001	8b ec		 mov	 ebp, esp

; 79   : 	return ((_Ty&&)_Arg);

  00003	8b 45 08	 mov	 eax, DWORD PTR __Arg$[ebp]

; 80   : 	}

  00006	5d		 pop	 ebp
  00007	c3		 ret	 0
??$forward@AAUBulletInfo@@@std@@YAAAUBulletInfo@@AAU1@@Z ENDP ; std::forward<BulletInfo &>
_TEXT	ENDS
PUBLIC	??$construct@AAUBulletInfo@@@?$allocator@UBulletInfo@@@std@@QAEXPAUBulletInfo@@AAU2@@Z ; std::allocator<BulletInfo>::construct<BulletInfo &>
; Function compile flags: /Ogsp
; File c:\program files (x86)\microsoft visual studio 10.0\vc\include\xmemory
;	COMDAT ??$construct@AAUBulletInfo@@@?$allocator@UBulletInfo@@@std@@QAEXPAUBulletInfo@@AAU2@@Z
_TEXT	SEGMENT
__Ptr$ = 8						; size = 4
__Val$ = 12						; size = 4
??$construct@AAUBulletInfo@@@?$allocator@UBulletInfo@@@std@@QAEXPAUBulletInfo@@AAU2@@Z PROC ; std::allocator<BulletInfo>::construct<BulletInfo &>, COMDAT
; _this$ = ecx

; 206  : 		void construct(pointer _Ptr, _Other&& _Val)

  00000	55		 push	 ebp
  00001	8b ec		 mov	 ebp, esp
  00003	57		 push	 edi

; 207  : 		{	// construct object at _Ptr with value _Val
; 208  : 		::new ((void _FARQ *)_Ptr) _Ty(_STD forward<_Other>(_Val));

  00004	8b 7d 08	 mov	 edi, DWORD PTR __Ptr$[ebp]
  00007	85 ff		 test	 edi, edi
  00009	74 0a		 je	 SHORT $LN3@construct
  0000b	56		 push	 esi
  0000c	8b 75 0c	 mov	 esi, DWORD PTR __Val$[ebp]
  0000f	6a 05		 push	 5
  00011	59		 pop	 ecx
  00012	f3 a5		 rep movsd
  00014	5e		 pop	 esi
$LN3@construct:
  00015	5f		 pop	 edi

; 209  : 		}

  00016	5d		 pop	 ebp
  00017	c2 08 00	 ret	 8
??$construct@AAUBulletInfo@@@?$allocator@UBulletInfo@@@std@@QAEXPAUBulletInfo@@AAU2@@Z ENDP ; std::allocator<BulletInfo>::construct<BulletInfo &>
_TEXT	ENDS
PUBLIC	??$forward@ABUBulletInfo@@@std@@YAABUBulletInfo@@ABU1@@Z ; std::forward<BulletInfo const &>
; Function compile flags: /Ogsp
; File c:\program files (x86)\microsoft visual studio 10.0\vc\include\utility
;	COMDAT ??$forward@ABUBulletInfo@@@std@@YAABUBulletInfo@@ABU1@@Z
_TEXT	SEGMENT
__Arg$ = 8						; size = 4
??$forward@ABUBulletInfo@@@std@@YAABUBulletInfo@@ABU1@@Z PROC ; std::forward<BulletInfo const &>, COMDAT

; 78   : 	{	// forward _Arg, given explicitly specified type parameter

  00000	55		 push	 ebp
  00001	8b ec		 mov	 ebp, esp

; 79   : 	return ((_Ty&&)_Arg);

  00003	8b 45 08	 mov	 eax, DWORD PTR __Arg$[ebp]

; 80   : 	}

  00006	5d		 pop	 ebp
  00007	c3		 ret	 0
??$forward@ABUBulletInfo@@@std@@YAABUBulletInfo@@ABU1@@Z ENDP ; std::forward<BulletInfo const &>
_TEXT	ENDS
PUBLIC	??$_Ptr_cat@UBulletInfo@@U1@@std@@YA?AU_Nonscalar_ptr_iterator_tag@0@PAUBulletInfo@@0@Z ; std::_Ptr_cat<BulletInfo,BulletInfo>
; Function compile flags: /Ogsp
; File c:\program files (x86)\microsoft visual studio 10.0\vc\include\xutility
;	COMDAT ??$_Ptr_cat@UBulletInfo@@U1@@std@@YA?AU_Nonscalar_ptr_iterator_tag@0@PAUBulletInfo@@0@Z
_TEXT	SEGMENT
__Cat$ = -1						; size = 1
___formal$ = 8						; size = 4
___formal$ = 12						; size = 4
??$_Ptr_cat@UBulletInfo@@U1@@std@@YA?AU_Nonscalar_ptr_iterator_tag@0@PAUBulletInfo@@0@Z PROC ; std::_Ptr_cat<BulletInfo,BulletInfo>, COMDAT

; 516  : 	{	// return pointer category from pointers

  00000	55		 push	 ebp
  00001	8b ec		 mov	 ebp, esp
  00003	51		 push	 ecx

; 517  : 	typename _Ptr_cat_helper<_Elem1, _Elem2>::_Type _Cat;
; 518  : 	return (_Cat);

  00004	8a 45 ff	 mov	 al, BYTE PTR __Cat$[ebp]

; 519  : 	}

  00007	c9		 leave
  00008	c3		 ret	 0
??$_Ptr_cat@UBulletInfo@@U1@@std@@YA?AU_Nonscalar_ptr_iterator_tag@0@PAUBulletInfo@@0@Z ENDP ; std::_Ptr_cat<BulletInfo,BulletInfo>
_TEXT	ENDS
PUBLIC	??$_Construct@UBulletInfo@@ABU1@@std@@YAXPAUBulletInfo@@ABU1@@Z ; std::_Construct<BulletInfo,BulletInfo const &>
; Function compile flags: /Ogsp
; File c:\program files (x86)\microsoft visual studio 10.0\vc\include\xmemory
;	COMDAT ??$_Construct@UBulletInfo@@ABU1@@std@@YAXPAUBulletInfo@@ABU1@@Z
_TEXT	SEGMENT
__Ptr$ = 8						; size = 4
__Val$ = 12						; size = 4
??$_Construct@UBulletInfo@@ABU1@@std@@YAXPAUBulletInfo@@ABU1@@Z PROC ; std::_Construct<BulletInfo,BulletInfo const &>, COMDAT

; 46   : 	{	// construct object at _Ptr with value _Val

  00000	55		 push	 ebp
  00001	8b ec		 mov	 ebp, esp
  00003	57		 push	 edi

; 47   : 	void _FARQ *_Vptr = _Ptr;
; 48   : 	::new (_Vptr) _Ty1(_STD forward<_Ty2>(_Val));

  00004	8b 7d 08	 mov	 edi, DWORD PTR __Ptr$[ebp]
  00007	85 ff		 test	 edi, edi
  00009	74 0a		 je	 SHORT $LN3@Construct
  0000b	56		 push	 esi
  0000c	8b 75 0c	 mov	 esi, DWORD PTR __Val$[ebp]
  0000f	6a 05		 push	 5
  00011	59		 pop	 ecx
  00012	f3 a5		 rep movsd
  00014	5e		 pop	 esi
$LN3@Construct:
  00015	5f		 pop	 edi

; 49   : 	}

  00016	5d		 pop	 ebp
  00017	c3		 ret	 0
??$_Construct@UBulletInfo@@ABU1@@std@@YAXPAUBulletInfo@@ABU1@@Z ENDP ; std::_Construct<BulletInfo,BulletInfo const &>
_TEXT	ENDS
PUBLIC	??$_Ptr_cat@V?$_Vector_const_iterator@V?$_Vector_val@UBulletInfo@@V?$allocator@UBulletInfo@@@std@@@std@@@std@@PAUBulletInfo@@@std@@YA?AU_Nonscalar_ptr_iterator_tag@0@AAV?$_Vector_const_iterator@V?$_Vector_val@UBulletInfo@@V?$allocator@UBulletInfo@@@std@@@std@@@0@AAPAUBulletInfo@@@Z ; std::_Ptr_cat<std::_Vector_const_iterator<std::_Vector_val<BulletInfo,std::allocator<BulletInfo> > >,BulletInfo *>
; Function compile flags: /Ogsp
; File c:\program files (x86)\microsoft visual studio 10.0\vc\include\xutility
;	COMDAT ??$_Ptr_cat@V?$_Vector_const_iterator@V?$_Vector_val@UBulletInfo@@V?$allocator@UBulletInfo@@@std@@@std@@@std@@PAUBulletInfo@@@std@@YA?AU_Nonscalar_ptr_iterator_tag@0@AAV?$_Vector_const_iterator@V?$_Vector_val@UBulletInfo@@V?$allocator@UBulletInfo@@@std@@@std@@@0@AAPAUBulletInfo@@@Z
_TEXT	SEGMENT
__Cat$ = -1						; size = 1
___formal$ = 8						; size = 4
___formal$ = 12						; size = 4
??$_Ptr_cat@V?$_Vector_const_iterator@V?$_Vector_val@UBulletInfo@@V?$allocator@UBulletInfo@@@std@@@std@@@std@@PAUBulletInfo@@@std@@YA?AU_Nonscalar_ptr_iterator_tag@0@AAV?$_Vector_const_iterator@V?$_Vector_val@UBulletInfo@@V?$allocator@UBulletInfo@@@std@@@std@@@0@AAPAUBulletInfo@@@Z PROC ; std::_Ptr_cat<std::_Vector_const_iterator<std::_Vector_val<BulletInfo,std::allocator<BulletInfo> > >,BulletInfo *>, COMDAT

; 485  : 	{	// return pointer category from arbitrary arguments

  00000	55		 push	 ebp
  00001	8b ec		 mov	 ebp, esp
  00003	51		 push	 ecx

; 486  : 	_Nonscalar_ptr_iterator_tag _Cat;
; 487  : 	return (_Cat);

  00004	8a 45 ff	 mov	 al, BYTE PTR __Cat$[ebp]

; 488  : 	}

  00007	c9		 leave
  00008	c3		 ret	 0
??$_Ptr_cat@V?$_Vector_const_iterator@V?$_Vector_val@UBulletInfo@@V?$allocator@UBulletInfo@@@std@@@std@@@std@@PAUBulletInfo@@@std@@YA?AU_Nonscalar_ptr_iterator_tag@0@AAV?$_Vector_const_iterator@V?$_Vector_val@UBulletInfo@@V?$allocator@UBulletInfo@@@std@@@std@@@0@AAPAUBulletInfo@@@Z ENDP ; std::_Ptr_cat<std::_Vector_const_iterator<std::_Vector_val<BulletInfo,std::allocator<BulletInfo> > >,BulletInfo *>
_TEXT	ENDS
PUBLIC	??$move@AAUBulletInfo@@@std@@YA$$QAUBulletInfo@@AAU1@@Z ; std::move<BulletInfo &>
; Function compile flags: /Ogsp
; File c:\program files (x86)\microsoft visual studio 10.0\vc\include\utility
;	COMDAT ??$move@AAUBulletInfo@@@std@@YA$$QAUBulletInfo@@AAU1@@Z
_TEXT	SEGMENT
__Arg$ = 8						; size = 4
??$move@AAUBulletInfo@@@std@@YA$$QAUBulletInfo@@AAU1@@Z PROC ; std::move<BulletInfo &>, COMDAT

; 86   : 	{	// forward _Arg as movable

  00000	55		 push	 ebp
  00001	8b ec		 mov	 ebp, esp

; 87   : 	return ((typename tr1::_Remove_reference<_Ty>::_Type&&)_Arg);

  00003	8b 45 08	 mov	 eax, DWORD PTR __Arg$[ebp]

; 88   : 	}

  00006	5d		 pop	 ebp
  00007	c3		 ret	 0
??$move@AAUBulletInfo@@@std@@YA$$QAUBulletInfo@@AAU1@@Z ENDP ; std::move<BulletInfo &>
_TEXT	ENDS
PUBLIC	??$_Val_type@PAUBulletInfo@@@std@@YAPAUBulletInfo@@PAU1@@Z ; std::_Val_type<BulletInfo *>
; Function compile flags: /Ogsp
; File c:\program files (x86)\microsoft visual studio 10.0\vc\include\xutility
;	COMDAT ??$_Val_type@PAUBulletInfo@@@std@@YAPAUBulletInfo@@PAU1@@Z
_TEXT	SEGMENT
___formal$ = 8						; size = 4
??$_Val_type@PAUBulletInfo@@@std@@YAPAUBulletInfo@@PAU1@@Z PROC ; std::_Val_type<BulletInfo *>, COMDAT

; 790  : 	return (0);

  00000	33 c0		 xor	 eax, eax

; 791  : 	}

  00002	c3		 ret	 0
??$_Val_type@PAUBulletInfo@@@std@@YAPAUBulletInfo@@PAU1@@Z ENDP ; std::_Val_type<BulletInfo *>
_TEXT	ENDS
PUBLIC	??D?$_Vector_const_iterator@V?$_Vector_val@UBulletInfo@@V?$allocator@UBulletInfo@@@std@@@std@@@std@@QBEABUBulletInfo@@XZ ; std::_Vector_const_iterator<std::_Vector_val<BulletInfo,std::allocator<BulletInfo> > >::operator*
; Function compile flags: /Ogsp
; File c:\program files (x86)\microsoft visual studio 10.0\vc\include\vector
;	COMDAT ??D?$_Vector_const_iterator@V?$_Vector_val@UBulletInfo@@V?$allocator@UBulletInfo@@@std@@@std@@@std@@QBEABUBulletInfo@@XZ
_TEXT	SEGMENT
??D?$_Vector_const_iterator@V?$_Vector_val@UBulletInfo@@V?$allocator@UBulletInfo@@@std@@@std@@@std@@QBEABUBulletInfo@@XZ PROC ; std::_Vector_const_iterator<std::_Vector_val<BulletInfo,std::allocator<BulletInfo> > >::operator*, COMDAT
; _this$ = ecx

; 64   :  #if _ITERATOR_DEBUG_LEVEL == 2
; 65   : 		if (this->_Getcont() == 0
; 66   : 			|| this->_Ptr == 0
; 67   : 			|| this->_Ptr < ((_Myvec *)this->_Getcont())->_Myfirst
; 68   : 			|| ((_Myvec *)this->_Getcont())->_Mylast <= this->_Ptr)
; 69   : 			{	// report error
; 70   : 			_DEBUG_ERROR("vector iterator not dereferencable");
; 71   : 			_SCL_SECURE_OUT_OF_RANGE;
; 72   : 			}
; 73   : 
; 74   :  #elif _ITERATOR_DEBUG_LEVEL == 1
; 75   : 		_SCL_SECURE_VALIDATE(this->_Getcont() != 0);
; 76   : 		_SCL_SECURE_VALIDATE_RANGE(
; 77   : 			this->_Ptr != 0
; 78   : 			&& ((_Myvec *)this->_Getcont())->_Myfirst <= this->_Ptr
; 79   : 			&& this->_Ptr < ((_Myvec *)this->_Getcont())->_Mylast);
; 80   :  #endif /* _ITERATOR_DEBUG_LEVEL */
; 81   : 
; 82   : 		__analysis_assume(this->_Ptr != 0);
; 83   : 
; 84   : 		return (*this->_Ptr);

  00000	8b 01		 mov	 eax, DWORD PTR [ecx]

; 85   : 		}

  00002	c3		 ret	 0
??D?$_Vector_const_iterator@V?$_Vector_val@UBulletInfo@@V?$allocator@UBulletInfo@@@std@@@std@@@std@@QBEABUBulletInfo@@XZ ENDP ; std::_Vector_const_iterator<std::_Vector_val<BulletInfo,std::allocator<BulletInfo> > >::operator*
_TEXT	ENDS
PUBLIC	??E?$_Vector_const_iterator@V?$_Vector_val@UBulletInfo@@V?$allocator@UBulletInfo@@@std@@@std@@@std@@QAEAAV01@XZ ; std::_Vector_const_iterator<std::_Vector_val<BulletInfo,std::allocator<BulletInfo> > >::operator++
; Function compile flags: /Ogsp
;	COMDAT ??E?$_Vector_const_iterator@V?$_Vector_val@UBulletInfo@@V?$allocator@UBulletInfo@@@std@@@std@@@std@@QAEAAV01@XZ
_TEXT	SEGMENT
??E?$_Vector_const_iterator@V?$_Vector_val@UBulletInfo@@V?$allocator@UBulletInfo@@@std@@@std@@@std@@QAEAAV01@XZ PROC ; std::_Vector_const_iterator<std::_Vector_val<BulletInfo,std::allocator<BulletInfo> > >::operator++, COMDAT
; _this$ = ecx

; 93   : 		{	// preincrement

  00000	8b c1		 mov	 eax, ecx

; 94   :  #if _ITERATOR_DEBUG_LEVEL == 2
; 95   : 		if (this->_Getcont() == 0
; 96   : 			|| this->_Ptr == 0
; 97   : 			|| ((_Myvec *)this->_Getcont())->_Mylast <= this->_Ptr)
; 98   : 			{	// report error
; 99   : 			_DEBUG_ERROR("vector iterator not incrementable");
; 100  : 			_SCL_SECURE_OUT_OF_RANGE;
; 101  : 			}
; 102  : 
; 103  :  #elif _ITERATOR_DEBUG_LEVEL == 1
; 104  : 		_SCL_SECURE_VALIDATE(this->_Getcont() != 0);
; 105  : 		_SCL_SECURE_VALIDATE_RANGE(
; 106  : 			this->_Ptr != 0
; 107  : 			&& this->_Ptr < ((_Myvec *)this->_Getcont())->_Mylast);
; 108  :  #endif /* _ITERATOR_DEBUG_LEVEL */
; 109  : 
; 110  : 		++this->_Ptr;

  00002	83 00 14	 add	 DWORD PTR [eax], 20	; 00000014H

; 111  : 		return (*this);
; 112  : 		}

  00005	c3		 ret	 0
??E?$_Vector_const_iterator@V?$_Vector_val@UBulletInfo@@V?$allocator@UBulletInfo@@@std@@@std@@@std@@QAEAAV01@XZ ENDP ; std::_Vector_const_iterator<std::_Vector_val<BulletInfo,std::allocator<BulletInfo> > >::operator++
_TEXT	ENDS
PUBLIC	??$_Destroy@UBulletInfo@@@std@@YAXPAUBulletInfo@@@Z ; std::_Destroy<BulletInfo>
; Function compile flags: /Ogsp
; File c:\program files (x86)\microsoft visual studio 10.0\vc\include\xmemory
;	COMDAT ??$_Destroy@UBulletInfo@@@std@@YAXPAUBulletInfo@@@Z
_TEXT	SEGMENT
__Ptr$ = 8						; size = 4
??$_Destroy@UBulletInfo@@@std@@YAXPAUBulletInfo@@@Z PROC ; std::_Destroy<BulletInfo>, COMDAT

; 63   : 	_Ptr->~_Ty();
; 64   : 	}

  00000	c3		 ret	 0
??$_Destroy@UBulletInfo@@@std@@YAXPAUBulletInfo@@@Z ENDP ; std::_Destroy<BulletInfo>
_TEXT	ENDS
PUBLIC	??$forward@UBulletInfo@@@std@@YA$$QAUBulletInfo@@AAU1@@Z ; std::forward<BulletInfo>
; Function compile flags: /Ogsp
; File c:\program files (x86)\microsoft visual studio 10.0\vc\include\utility
;	COMDAT ??$forward@UBulletInfo@@@std@@YA$$QAUBulletInfo@@AAU1@@Z
_TEXT	SEGMENT
__Arg$ = 8						; size = 4
??$forward@UBulletInfo@@@std@@YA$$QAUBulletInfo@@AAU1@@Z PROC ; std::forward<BulletInfo>, COMDAT

; 78   : 	{	// forward _Arg, given explicitly specified type parameter

  00000	55		 push	 ebp
  00001	8b ec		 mov	 ebp, esp

; 79   : 	return ((_Ty&&)_Arg);

  00003	8b 45 08	 mov	 eax, DWORD PTR __Arg$[ebp]

; 80   : 	}

  00006	5d		 pop	 ebp
  00007	c3		 ret	 0
??$forward@UBulletInfo@@@std@@YA$$QAUBulletInfo@@AAU1@@Z ENDP ; std::forward<BulletInfo>
_TEXT	ENDS
PUBLIC	??0D3DXVECTOR3@@QAE@XZ				; D3DXVECTOR3::D3DXVECTOR3
; Function compile flags: /Ogsp
; File c:\program files (x86)\microsoft directx sdk (june 2010)\include\d3dx9math.h
;	COMDAT ??0D3DXVECTOR3@@QAE@XZ
_TEXT	SEGMENT
??0D3DXVECTOR3@@QAE@XZ PROC				; D3DXVECTOR3::D3DXVECTOR3, COMDAT
; _this$ = ecx

; 165  :     D3DXVECTOR3() {};

  00000	8b c1		 mov	 eax, ecx
  00002	c3		 ret	 0
??0D3DXVECTOR3@@QAE@XZ ENDP				; D3DXVECTOR3::D3DXVECTOR3
_TEXT	ENDS
PUBLIC	??0D3DXQUATERNION@@QAE@XZ			; D3DXQUATERNION::D3DXQUATERNION
; Function compile flags: /Ogsp
;	COMDAT ??0D3DXQUATERNION@@QAE@XZ
_TEXT	SEGMENT
??0D3DXQUATERNION@@QAE@XZ PROC				; D3DXQUATERNION::D3DXQUATERNION, COMDAT
; _this$ = ecx

; 429  :     D3DXQUATERNION() {}

  00000	8b c1		 mov	 eax, ecx
  00002	c3		 ret	 0
??0D3DXQUATERNION@@QAE@XZ ENDP				; D3DXQUATERNION::D3DXQUATERNION
_TEXT	ENDS
PUBLIC	??0D3DXVECTOR3@@QAE@MMM@Z			; D3DXVECTOR3::D3DXVECTOR3
; Function compile flags: /Ogsp
; File c:\program files (x86)\microsoft directx sdk (june 2010)\include\d3dx9math.inl
;	COMDAT ??0D3DXVECTOR3@@QAE@MMM@Z
_TEXT	SEGMENT
_fx$ = 8						; size = 4
_fy$ = 12						; size = 4
_fz$ = 16						; size = 4
??0D3DXVECTOR3@@QAE@MMM@Z PROC				; D3DXVECTOR3::D3DXVECTOR3, COMDAT
; _this$ = ecx

; 303  : {

  00000	55		 push	 ebp
  00001	8b ec		 mov	 ebp, esp

; 304  :     x = fx;

  00003	f3 0f 10 45 08	 movss	 xmm0, DWORD PTR _fx$[ebp]
  00008	8b c1		 mov	 eax, ecx
  0000a	f3 0f 11 00	 movss	 DWORD PTR [eax], xmm0

; 305  :     y = fy;

  0000e	f3 0f 10 45 0c	 movss	 xmm0, DWORD PTR _fy$[ebp]
  00013	f3 0f 11 40 04	 movss	 DWORD PTR [eax+4], xmm0

; 306  :     z = fz;

  00018	f3 0f 10 45 10	 movss	 xmm0, DWORD PTR _fz$[ebp]
  0001d	f3 0f 11 40 08	 movss	 DWORD PTR [eax+8], xmm0

; 307  : }

  00022	5d		 pop	 ebp
  00023	c2 0c 00	 ret	 12			; 0000000cH
??0D3DXVECTOR3@@QAE@MMM@Z ENDP				; D3DXVECTOR3::D3DXVECTOR3
_TEXT	ENDS
PUBLIC	??YD3DXVECTOR3@@QAEAAU0@ABU0@@Z			; D3DXVECTOR3::operator+=
; Function compile flags: /Ogsp
;	COMDAT ??YD3DXVECTOR3@@QAEAAU0@ABU0@@Z
_TEXT	SEGMENT
_v$ = 8							; size = 4
??YD3DXVECTOR3@@QAEAAU0@ABU0@@Z PROC			; D3DXVECTOR3::operator+=, COMDAT
; _this$ = ecx

; 327  : {

  00000	55		 push	 ebp
  00001	8b ec		 mov	 ebp, esp
  00003	8b c1		 mov	 eax, ecx

; 328  :     x += v.x;

  00005	8b 4d 08	 mov	 ecx, DWORD PTR _v$[ebp]
  00008	f3 0f 10 01	 movss	 xmm0, DWORD PTR [ecx]
  0000c	f3 0f 10 08	 movss	 xmm1, DWORD PTR [eax]
  00010	0f 5a c0	 cvtps2pd xmm0, xmm0
  00013	0f 5a c9	 cvtps2pd xmm1, xmm1
  00016	f2 0f 58 c1	 addsd	 xmm0, xmm1

; 329  :     y += v.y;

  0001a	f3 0f 10 48 04	 movss	 xmm1, DWORD PTR [eax+4]
  0001f	66 0f 5a c0	 cvtpd2ps xmm0, xmm0
  00023	f3 0f 11 00	 movss	 DWORD PTR [eax], xmm0
  00027	f3 0f 10 41 04	 movss	 xmm0, DWORD PTR [ecx+4]
  0002c	0f 5a c0	 cvtps2pd xmm0, xmm0
  0002f	0f 5a c9	 cvtps2pd xmm1, xmm1
  00032	f2 0f 58 c1	 addsd	 xmm0, xmm1

; 330  :     z += v.z;

  00036	f3 0f 10 48 08	 movss	 xmm1, DWORD PTR [eax+8]
  0003b	66 0f 5a c0	 cvtpd2ps xmm0, xmm0
  0003f	f3 0f 11 40 04	 movss	 DWORD PTR [eax+4], xmm0
  00044	f3 0f 10 41 08	 movss	 xmm0, DWORD PTR [ecx+8]
  00049	0f 5a c0	 cvtps2pd xmm0, xmm0
  0004c	0f 5a c9	 cvtps2pd xmm1, xmm1
  0004f	f2 0f 58 c1	 addsd	 xmm0, xmm1
  00053	66 0f 5a c0	 cvtpd2ps xmm0, xmm0
  00057	f3 0f 11 40 08	 movss	 DWORD PTR [eax+8], xmm0

; 331  :     return *this;
; 332  : }

  0005c	5d		 pop	 ebp
  0005d	c2 04 00	 ret	 4
??YD3DXVECTOR3@@QAEAAU0@ABU0@@Z ENDP			; D3DXVECTOR3::operator+=
_TEXT	ENDS
PUBLIC	??DD3DXVECTOR3@@QBE?AU0@M@Z			; D3DXVECTOR3::operator*
; Function compile flags: /Ogsp
;	COMDAT ??DD3DXVECTOR3@@QBE?AU0@M@Z
_TEXT	SEGMENT
___$ReturnUdt$ = 8					; size = 4
_f$ = 12						; size = 4
??DD3DXVECTOR3@@QBE?AU0@M@Z PROC			; D3DXVECTOR3::operator*, COMDAT
; _this$ = ecx

; 392  : {

  00000	55		 push	 ebp
  00001	8b ec		 mov	 ebp, esp

; 393  :     return D3DXVECTOR3(x * f, y * f, z * f);

  00003	f3 0f 10 4d 0c	 movss	 xmm1, DWORD PTR _f$[ebp]
  00008	f3 0f 10 01	 movss	 xmm0, DWORD PTR [ecx]
  0000c	8b 45 08	 mov	 eax, DWORD PTR ___$ReturnUdt$[ebp]
  0000f	0f 5a c0	 cvtps2pd xmm0, xmm0
  00012	0f 5a c9	 cvtps2pd xmm1, xmm1
  00015	f2 0f 59 c1	 mulsd	 xmm0, xmm1
  00019	f3 0f 10 4d 0c	 movss	 xmm1, DWORD PTR _f$[ebp]
  0001e	66 0f 5a c0	 cvtpd2ps xmm0, xmm0
  00022	f3 0f 11 00	 movss	 DWORD PTR [eax], xmm0
  00026	f3 0f 10 41 04	 movss	 xmm0, DWORD PTR [ecx+4]
  0002b	0f 5a c0	 cvtps2pd xmm0, xmm0
  0002e	0f 5a c9	 cvtps2pd xmm1, xmm1
  00031	f2 0f 59 c1	 mulsd	 xmm0, xmm1
  00035	f3 0f 10 4d 0c	 movss	 xmm1, DWORD PTR _f$[ebp]
  0003a	66 0f 5a c0	 cvtpd2ps xmm0, xmm0
  0003e	f3 0f 11 40 04	 movss	 DWORD PTR [eax+4], xmm0
  00043	f3 0f 10 41 08	 movss	 xmm0, DWORD PTR [ecx+8]
  00048	0f 5a c0	 cvtps2pd xmm0, xmm0
  0004b	0f 5a c9	 cvtps2pd xmm1, xmm1
  0004e	f2 0f 59 c1	 mulsd	 xmm0, xmm1
  00052	66 0f 5a c0	 cvtpd2ps xmm0, xmm0
  00056	f3 0f 11 40 08	 movss	 DWORD PTR [eax+8], xmm0

; 394  : }

  0005b	5d		 pop	 ebp
  0005c	c2 08 00	 ret	 8
??DD3DXVECTOR3@@QBE?AU0@M@Z ENDP			; D3DXVECTOR3::operator*
_TEXT	ENDS
PUBLIC	?_DECSTR@@YAXPADH@Z				; _DECSTR
; Function compile flags: /Ogsp
; File d:\lost saga for developer\youtube\tutorial\source\src\lsclient\stringprotect.h
;	COMDAT ?_DECSTR@@YAXPADH@Z
_TEXT	SEGMENT
_s$ = 8							; size = 4
_l$ = 12						; size = 4
?_DECSTR@@YAXPADH@Z PROC				; _DECSTR, COMDAT

; 40   : __forceinline void _DECSTR(char* s, int l){int i=0,l4=(l-1)/4,*p=(int*)s;s[l-1]=0;for(;i<l4;++i)*(p++)^=0xEAEBECED;for(i=l4*4;i<l-1;++i)s[i]^=0xED-i%4;}

  00000	55		 push	 ebp
  00001	8b ec		 mov	 ebp, esp
  00003	8b 4d 0c	 mov	 ecx, DWORD PTR _l$[ebp]
  00006	56		 push	 esi
  00007	8b 75 08	 mov	 esi, DWORD PTR _s$[ebp]
  0000a	57		 push	 edi
  0000b	8d 79 ff	 lea	 edi, DWORD PTR [ecx-1]
  0000e	8b c7		 mov	 eax, edi
  00010	99		 cdq
  00011	83 e2 03	 and	 edx, 3
  00014	03 c2		 add	 eax, edx
  00016	c1 f8 02	 sar	 eax, 2
  00019	8b d6		 mov	 edx, esi
  0001b	c6 44 0e ff 00	 mov	 BYTE PTR [esi+ecx-1], 0
  00020	85 c0		 test	 eax, eax
  00022	7e 0e		 jle	 SHORT $LN4@DECSTR
  00024	8b c8		 mov	 ecx, eax
$LL6@DECSTR:
  00026	81 32 ed ec eb
	ea		 xor	 DWORD PTR [edx], -353637139 ; eaebecedH
  0002c	83 c2 04	 add	 edx, 4
  0002f	49		 dec	 ecx
  00030	75 f4		 jne	 SHORT $LL6@DECSTR
$LN4@DECSTR:
  00032	c1 e0 02	 shl	 eax, 2
  00035	eb 17		 jmp	 SHORT $LN14@DECSTR
$LL3@DECSTR:
  00037	8b c8		 mov	 ecx, eax
  00039	81 e1 03 00 00
	80		 and	 ecx, -2147483645	; 80000003H
  0003f	79 05		 jns	 SHORT $LN13@DECSTR
  00041	49		 dec	 ecx
  00042	83 c9 fc	 or	 ecx, -4			; fffffffcH
  00045	41		 inc	 ecx
$LN13@DECSTR:
  00046	b2 ed		 mov	 dl, -19			; ffffffedH
  00048	2a d1		 sub	 dl, cl
  0004a	30 14 30	 xor	 BYTE PTR [eax+esi], dl
  0004d	40		 inc	 eax
$LN14@DECSTR:
  0004e	3b c7		 cmp	 eax, edi
  00050	7c e5		 jl	 SHORT $LL3@DECSTR
  00052	5f		 pop	 edi
  00053	5e		 pop	 esi
  00054	5d		 pop	 ebp
  00055	c3		 ret	 0
?_DECSTR@@YAXPADH@Z ENDP				; _DECSTR
_TEXT	ENDS
PUBLIC	?GetGroup@ioGameEntity@@QBEPAVioEntityGroup@@XZ	; ioGameEntity::GetGroup
; Function compile flags: /Ogsp
; File d:\lost saga for developer\youtube\tutorial\source\src\lsclient\iogameentity.h
;	COMDAT ?GetGroup@ioGameEntity@@QBEPAVioEntityGroup@@XZ
_TEXT	SEGMENT
?GetGroup@ioGameEntity@@QBEPAVioEntityGroup@@XZ PROC	; ioGameEntity::GetGroup, COMDAT
; _this$ = ecx

; 166  : 	inline ioEntityGroup* GetGroup() const { return m_pGroup; }

  00000	8b 41 04	 mov	 eax, DWORD PTR [ecx+4]
  00003	c3		 ret	 0
?GetGroup@ioGameEntity@@QBEPAVioEntityGroup@@XZ ENDP	; ioGameEntity::GetGroup
_TEXT	ENDS
PUBLIC	?GetOwnerItem@ioSkill@@QBEPAVioItem@@XZ		; ioSkill::GetOwnerItem
; Function compile flags: /Ogsp
; File d:\lost saga for developer\youtube\tutorial\source\src\lsclient\ioskill.h
;	COMDAT ?GetOwnerItem@ioSkill@@QBEPAVioItem@@XZ
_TEXT	SEGMENT
?GetOwnerItem@ioSkill@@QBEPAVioItem@@XZ PROC		; ioSkill::GetOwnerItem, COMDAT
; _this$ = ecx

; 397  : 	inline ioItem *GetOwnerItem() const { return m_pOwnerItem; }

  00000	8b 81 a4 02 00
	00		 mov	 eax, DWORD PTR [ecx+676]
  00006	c3		 ret	 0
?GetOwnerItem@ioSkill@@QBEPAVioItem@@XZ ENDP		; ioSkill::GetOwnerItem
_TEXT	ENDS
PUBLIC	??0BulletInfo@@QAE@XZ				; BulletInfo::BulletInfo
; Function compile flags: /Ogsp
; File d:\lost saga for developer\youtube\tutorial\source\src\lsclient\ioattackskill.h
;	COMDAT ??0BulletInfo@@QAE@XZ
_TEXT	SEGMENT
??0BulletInfo@@QAE@XZ PROC				; BulletInfo::BulletInfo, COMDAT
; _this$ = ecx

; 21   : 	{
; 22   : 		m_fYawAngle		= 0.0f;

  00000	0f 57 c0	 xorps	 xmm0, xmm0
  00003	8b c1		 mov	 eax, ecx
  00005	f3 0f 11 00	 movss	 DWORD PTR [eax], xmm0

; 23   : 		m_fPitchAngle	= 0.0f;

  00009	f3 0f 11 40 04	 movss	 DWORD PTR [eax+4], xmm0

; 24   : 		m_fRollAngle	= 0.0f;

  0000e	f3 0f 11 40 08	 movss	 DWORD PTR [eax+8], xmm0

; 25   : 
; 26   : 		m_fRangeOffSet	= 0.0f;

  00013	f3 0f 11 40 0c	 movss	 DWORD PTR [eax+12], xmm0

; 27   : 		m_fHeightOffSet	= 0.0f;

  00018	f3 0f 11 40 10	 movss	 DWORD PTR [eax+16], xmm0

; 28   : 	}

  0001d	c3		 ret	 0
??0BulletInfo@@QAE@XZ ENDP				; BulletInfo::BulletInfo
_TEXT	ENDS
PUBLIC	?EncryptValueToPool@?$CEncrypt@K@@AAEXPBD@Z	; CEncrypt<unsigned long>::EncryptValueToPool
EXTRN	?EncryptByte@ccddaabb@@QAEXPBDPADH@Z:PROC	; ccddaabb::EncryptByte
; Function compile flags: /Ogsp
; File d:\lost saga for developer\youtube\tutorial\source\src\lsclient\encryptvalue.h
;	COMDAT ?EncryptValueToPool@?$CEncrypt@K@@AAEXPBD@Z
_TEXT	SEGMENT
_value$ = 8						; size = 4
?EncryptValueToPool@?$CEncrypt@K@@AAEXPBD@Z PROC	; CEncrypt<unsigned long>::EncryptValueToPool, COMDAT
; _this$ = ecx

; 67   : 	{

  00000	55		 push	 ebp
  00001	8b ec		 mov	 ebp, esp

; 68   : 		m_RC5.EncryptByte( value, m_MemPool, max(m_ValueSize, DEFAULT_ENCRYPT) );

  00003	0f b7 41 06	 movzx	 eax, WORD PTR [ecx+6]
  00007	83 f8 04	 cmp	 eax, 4
  0000a	77 03		 ja	 SHORT $LN4@EncryptVal
  0000c	6a 04		 push	 4
  0000e	58		 pop	 eax
$LN4@EncryptVal:
  0000f	50		 push	 eax
  00010	8d 41 1c	 lea	 eax, DWORD PTR [ecx+28]
  00013	50		 push	 eax
  00014	ff 75 08	 push	 DWORD PTR _value$[ebp]
  00017	83 c1 0c	 add	 ecx, 12			; 0000000cH
  0001a	e8 00 00 00 00	 call	 ?EncryptByte@ccddaabb@@QAEXPBDPADH@Z ; ccddaabb::EncryptByte

; 69   : 		
; 70   : 	}

  0001f	5d		 pop	 ebp
  00020	c2 04 00	 ret	 4
?EncryptValueToPool@?$CEncrypt@K@@AAEXPBD@Z ENDP	; CEncrypt<unsigned long>::EncryptValueToPool
_TEXT	ENDS
EXTRN	__imp_??0exception@std@@QAE@ABV01@@Z:PROC
; Function compile flags: /Ogsp
;	COMDAT ??0bad_alloc@std@@QAE@ABV01@@Z
_TEXT	SEGMENT
___that$ = 8						; size = 4
??0bad_alloc@std@@QAE@ABV01@@Z PROC			; std::bad_alloc::bad_alloc, COMDAT
; _this$ = ecx
  00000	55		 push	 ebp
  00001	8b ec		 mov	 ebp, esp
  00003	56		 push	 esi
  00004	ff 75 08	 push	 DWORD PTR ___that$[ebp]
  00007	8b f1		 mov	 esi, ecx
  00009	ff 15 00 00 00
	00		 call	 DWORD PTR __imp_??0exception@std@@QAE@ABV01@@Z
  0000f	c7 06 00 00 00
	00		 mov	 DWORD PTR [esi], OFFSET ??_7bad_alloc@std@@6B@
  00015	8b c6		 mov	 eax, esi
  00017	5e		 pop	 esi
  00018	5d		 pop	 ebp
  00019	c2 04 00	 ret	 4
??0bad_alloc@std@@QAE@ABV01@@Z ENDP			; std::bad_alloc::bad_alloc
_TEXT	ENDS
PUBLIC	?OnSkillEnd@ioMoveAttackSkill@@UAEXPAVioBaseChar@@@Z ; ioMoveAttackSkill::OnSkillEnd
EXTRN	?OnSkillEnd@ioAttackSkill@@UAEXPAVioBaseChar@@@Z:PROC ; ioAttackSkill::OnSkillEnd
EXTRN	?SetSkillMoveEnable@ioBaseChar@@QAEX_N0@Z:PROC	; ioBaseChar::SetSkillMoveEnable
EXTRN	?RestoreSkillWeaponMesh@ioBaseChar@@QAE_NPAVioSkill@@ABVioHashString@@_N2@Z:PROC ; ioBaseChar::RestoreSkillWeaponMesh
EXTRN	__imp_?IsEmpty@ioHashString@@QBE_NXZ:PROC
; Function compile flags: /Ogsp
; File d:\lost saga for developer\youtube\tutorial\source\src\lsclient\iomoveattackskill.cpp
;	COMDAT ?OnSkillEnd@ioMoveAttackSkill@@UAEXPAVioBaseChar@@@Z
_TEXT	SEGMENT
_pChar$ = 8						; size = 4
?OnSkillEnd@ioMoveAttackSkill@@UAEXPAVioBaseChar@@@Z PROC ; ioMoveAttackSkill::OnSkillEnd, COMDAT
; _this$ = ecx

; 164  : {

  00000	55		 push	 ebp
  00001	8b ec		 mov	 ebp, esp
  00003	53		 push	 ebx
  00004	56		 push	 esi
  00005	8b f1		 mov	 esi, ecx

; 165  : 	// 기본무기 장착
; 166  : 	if( m_bUseItemMesh )

  00007	33 db		 xor	 ebx, ebx
  00009	57		 push	 edi
  0000a	38 9e 08 0f 00
	00		 cmp	 BYTE PTR [esi+3848], bl
  00010	74 0b		 je	 SHORT $LN3@OnSkillEnd

; 167  : 		pChar->ShowWeaponItemMesh( true );

  00012	8b 4d 08	 mov	 ecx, DWORD PTR _pChar$[ebp]
  00015	53		 push	 ebx
  00016	6a 01		 push	 1
  00018	e8 00 00 00 00	 call	 ?ShowWeaponItemMesh@ioBaseChar@@QAEX_N0@Z ; ioBaseChar::ShowWeaponItemMesh
$LN3@OnSkillEnd:

; 168  : 
; 169  : 	if( !m_HandMesh.IsEmpty() )

  0001d	8d be f8 0e 00
	00		 lea	 edi, DWORD PTR [esi+3832]
  00023	8b cf		 mov	 ecx, edi
  00025	ff 15 00 00 00
	00		 call	 DWORD PTR __imp_?IsEmpty@ioHashString@@QBE_NXZ
  0002b	84 c0		 test	 al, al
  0002d	75 13		 jne	 SHORT $LN10@OnSkillEnd

; 170  : 		pChar->RestoreSkillWeaponMesh( this, m_HandMesh, m_bVisibleEquipMesh );

  0002f	0f b6 86 09 0f
	00 00		 movzx	 eax, BYTE PTR [esi+3849]
  00036	8b 4d 08	 mov	 ecx, DWORD PTR _pChar$[ebp]
  00039	53		 push	 ebx
  0003a	50		 push	 eax
  0003b	57		 push	 edi
  0003c	56		 push	 esi
  0003d	e8 00 00 00 00	 call	 ?RestoreSkillWeaponMesh@ioBaseChar@@QAE_NPAVioSkill@@ABVioHashString@@_N2@Z ; ioBaseChar::RestoreSkillWeaponMesh
$LN10@OnSkillEnd:

; 171  : 
; 172  : 	m_bSetHandMesh = false;
; 173  : 	pChar->SetSkillMoveEnable( false, false );

  00042	8b 4d 08	 mov	 ecx, DWORD PTR _pChar$[ebp]
  00045	53		 push	 ebx
  00046	53		 push	 ebx
  00047	88 9e 0a 0f 00
	00		 mov	 BYTE PTR [esi+3850], bl
  0004d	e8 00 00 00 00	 call	 ?SetSkillMoveEnable@ioBaseChar@@QAEX_N0@Z ; ioBaseChar::SetSkillMoveEnable

; 174  : 
; 175  : 	if( GetOwnerItem() )

  00052	8b 8e a4 02 00
	00		 mov	 ecx, DWORD PTR [esi+676]
  00058	3b cb		 cmp	 ecx, ebx
  0005a	74 08		 je	 SHORT $LN1@OnSkillEnd

; 176  : 		GetOwnerItem()->ClearCurChargeRateForSkill();

  0005c	8b 01		 mov	 eax, DWORD PTR [ecx]
  0005e	ff 90 84 00 00
	00		 call	 DWORD PTR [eax+132]
$LN1@OnSkillEnd:

; 177  : 
; 178  : 	ioAttackSkill::OnSkillEnd( pChar );

  00064	ff 75 08	 push	 DWORD PTR _pChar$[ebp]
  00067	8b ce		 mov	 ecx, esi
  00069	e8 00 00 00 00	 call	 ?OnSkillEnd@ioAttackSkill@@UAEXPAVioBaseChar@@@Z ; ioAttackSkill::OnSkillEnd
  0006e	5f		 pop	 edi
  0006f	5e		 pop	 esi
  00070	5b		 pop	 ebx

; 179  : }

  00071	5d		 pop	 ebp
  00072	c2 04 00	 ret	 4
?OnSkillEnd@ioMoveAttackSkill@@UAEXPAVioBaseChar@@@Z ENDP ; ioMoveAttackSkill::OnSkillEnd
_TEXT	ENDS
PUBLIC	__real@4f800000
PUBLIC	_pStage$GSCopy$
PUBLIC	_pWeapon$GSCopy$
PUBLIC	_this$GSCopy$
PUBLIC	__$ArrayPad$
PUBLIC	?ApplyAttributeToWeapon@ioMoveAttackSkill@@UAEXPAVioWeapon@@PAVioPlayStage@@@Z ; ioMoveAttackSkill::ApplyAttributeToWeapon
EXTRN	?ApplyAttributeToWeapon@ioSkill@@UAEXPAVioWeapon@@PAVioPlayStage@@@Z:PROC ; ioSkill::ApplyAttributeToWeapon
EXTRN	?GetMidPositionByRate@ioGameEntity@@QBE?AUD3DXVECTOR3@@M@Z:PROC ; ioGameEntity::GetMidPositionByRate
EXTRN	_D3DXQuaternionRotationYawPitchRoll@16:PROC
EXTRN	__imp_?ArrangeHead@ioMath@@SAMM@Z:PROC
EXTRN	?SetZoneValue@ioZoneEffectWeapon@@QAEX_N0@Z:PROC ; ioZoneEffectWeapon::SetZoneValue
EXTRN	?SetCollisionDir@ioZoneEffectWeapon@@QAEXAAUD3DXVECTOR3@@@Z:PROC ; ioZoneEffectWeapon::SetCollisionDir
EXTRN	_D3DXVec3Normalize@8:PROC
EXTRN	__imp_??D@YA?AUD3DXVECTOR3@@ABUD3DXQUATERNION@@ABU0@@Z:PROC
EXTRN	?GetOwner@ioWeapon@@QBEPAVioBaseChar@@XZ:PROC	; ioWeapon::GetOwner
EXTRN	___security_cookie:DWORD
EXTRN	@__security_check_cookie@4:PROC
;	COMDAT __real@4f800000
; File c:\program files (x86)\microsoft directx sdk (june 2010)\include\d3dx9math.inl
CONST	SEGMENT
__real@4f800000 DD 04f800000r			; 4.29497e+009
; Function compile flags: /Ogsp
; File d:\lost saga for developer\youtube\tutorial\source\src\lsclient\iomoveattackskill.cpp
CONST	ENDS
;	COMDAT ?ApplyAttributeToWeapon@ioMoveAttackSkill@@UAEXPAVioWeapon@@PAVioPlayStage@@@Z
_TEXT	SEGMENT
_qtAngle$542173 = -108					; size = 16
_qtRotate$542178 = -92					; size = 16
_pWeapon$GSCopy$ = -76					; size = 4
_this$GSCopy$ = -72					; size = 4
_pStage$GSCopy$ = -68					; size = 4
tv538 = -64						; size = 4
_fCurHeight$542171 = -64				; size = 4
_fCurRange$542170 = -60					; size = 4
_pZone$ = -60						; size = 4
tv521 = -56						; size = 4
tv499 = -56						; size = 4
tv465 = -56						; size = 4
tv461 = -56						; size = 4
tv457 = -56						; size = 4
_fCurAngle$542169 = -56					; size = 4
_pChar$ = -56						; size = 4
$T542182 = -52						; size = 12
$T542181 = -52						; size = 12
$T542180 = -40						; size = 12
_vMoveDir$542172 = -28					; size = 12
$T542164 = -28						; size = 12
_vPos$542183 = -16					; size = 12
_vDir$542162 = -16					; size = 12
__$ArrayPad$ = -4					; size = 4
_pWeapon$ = 8						; size = 4
_pStage$ = 12						; size = 4
?ApplyAttributeToWeapon@ioMoveAttackSkill@@UAEXPAVioWeapon@@PAVioPlayStage@@@Z PROC ; ioMoveAttackSkill::ApplyAttributeToWeapon, COMDAT
; _this$ = ecx

; 182  : {

  00000	55		 push	 ebp
  00001	8b ec		 mov	 ebp, esp
  00003	83 ec 6c	 sub	 esp, 108		; 0000006cH
  00006	a1 00 00 00 00	 mov	 eax, DWORD PTR ___security_cookie
  0000b	33 c5		 xor	 eax, ebp
  0000d	89 45 fc	 mov	 DWORD PTR __$ArrayPad$[ebp], eax

; 234  : 	}
; 235  : 
; 236  : 	ioSkill::ApplyAttributeToWeapon( pWeapon, pStage );

  00010	8b 45 0c	 mov	 eax, DWORD PTR _pStage$[ebp]
  00013	53		 push	 ebx
  00014	56		 push	 esi
  00015	8b f1		 mov	 esi, ecx
  00017	80 be e8 10 00
	00 00		 cmp	 BYTE PTR [esi+4328], 0
  0001e	57		 push	 edi
  0001f	8b 7d 08	 mov	 edi, DWORD PTR _pWeapon$[ebp]
  00022	89 75 b8	 mov	 DWORD PTR _this$GSCopy$[ebp], esi
  00025	89 7d b4	 mov	 DWORD PTR _pWeapon$GSCopy$[ebp], edi
  00028	89 45 bc	 mov	 DWORD PTR _pStage$GSCopy$[ebp], eax
  0002b	75 10		 jne	 SHORT $LN6@ApplyAttri

; 183  : 	if( !m_bUseFireEnd )
; 184  : 	{
; 185  : 		pWeapon->SetLiveTime( m_dwLoopTime );

  0002d	ff b6 e4 10 00
	00		 push	 DWORD PTR [esi+4324]
  00033	8b 07		 mov	 eax, DWORD PTR [edi]
  00035	8b cf		 mov	 ecx, edi
  00037	ff 90 ac 00 00
	00		 call	 DWORD PTR [eax+172]
$LN6@ApplyAttri:

; 186  : 	}
; 187  : 
; 188  : 	ioBaseChar *pChar = pWeapon->GetOwner();

  0003d	8b cf		 mov	 ecx, edi
  0003f	e8 00 00 00 00	 call	 ?GetOwner@ioWeapon@@QBEPAVioBaseChar@@XZ ; ioWeapon::GetOwner

; 189  : 	ioZoneEffectWeapon *pZone = ToZoneEffectWeapon( pWeapon );

  00044	57		 push	 edi
  00045	89 45 c8	 mov	 DWORD PTR _pChar$[ebp], eax
  00048	e8 00 00 00 00	 call	 ?ToZoneEffectWeapon@@YAPAVioZoneEffectWeapon@@PAVioWeapon@@@Z ; ToZoneEffectWeapon

; 190  : 	if( pZone && pChar )

  0004d	0f 57 c0	 xorps	 xmm0, xmm0
  00050	8b 1d 00 00 00
	00		 mov	 ebx, DWORD PTR __imp_??D@YA?AUD3DXVECTOR3@@ABUD3DXQUATERNION@@ABU0@@Z
  00056	59		 pop	 ecx
  00057	89 45 c4	 mov	 DWORD PTR _pZone$[ebp], eax
  0005a	85 c0		 test	 eax, eax
  0005c	74 61		 je	 SHORT $LN5@ApplyAttri
  0005e	8b 4d c8	 mov	 ecx, DWORD PTR _pChar$[ebp]
  00061	85 c9		 test	 ecx, ecx
  00063	74 5a		 je	 SHORT $LN5@ApplyAttri

; 191  : 	{
; 192  : 		D3DXVECTOR3 vDir = pChar->GetTargetRot() * D3DXVECTOR3( 0.0f, 0.0f, -FLOAT1 );

  00065	b8 01 00 00 00	 mov	 eax, 1
  0006a	89 45 c0	 mov	 DWORD PTR tv538[ebp], eax
  0006d	db 45 c0	 fild	 DWORD PTR tv538[ebp]
  00070	f3 0f 11 45 e4	 movss	 DWORD PTR $T542164[ebp], xmm0
  00075	f3 0f 11 45 e8	 movss	 DWORD PTR $T542164[ebp+4], xmm0
  0007a	85 c0		 test	 eax, eax
  0007c	79 06		 jns	 SHORT $LN44@ApplyAttri
  0007e	d8 05 00 00 00
	00		 fadd	 DWORD PTR __real@4f800000
$LN44@ApplyAttri:
  00084	8d 45 e4	 lea	 eax, DWORD PTR $T542164[ebp]
  00087	d9 e0		 fchs
  00089	50		 push	 eax
  0008a	d9 5d ec	 fstp	 DWORD PTR $T542164[ebp+8]
  0008d	81 c1 a4 06 00
	00		 add	 ecx, 1700		; 000006a4H
  00093	51		 push	 ecx
  00094	8d 45 f0	 lea	 eax, DWORD PTR _vDir$542162[ebp]
  00097	50		 push	 eax
  00098	ff d3		 call	 ebx
  0009a	83 c4 0c	 add	 esp, 12			; 0000000cH

; 193  : 		D3DXVec3Normalize( &vDir, &vDir );

  0009d	8d 45 f0	 lea	 eax, DWORD PTR _vDir$542162[ebp]
  000a0	50		 push	 eax
  000a1	50		 push	 eax
  000a2	e8 00 00 00 00	 call	 _D3DXVec3Normalize@8

; 194  : 		pZone->SetCollisionDir( vDir );

  000a7	8b 4d c4	 mov	 ecx, DWORD PTR _pZone$[ebp]
  000aa	8d 45 f0	 lea	 eax, DWORD PTR _vDir$542162[ebp]
  000ad	50		 push	 eax
  000ae	e8 00 00 00 00	 call	 ?SetCollisionDir@ioZoneEffectWeapon@@QAEXAAUD3DXVECTOR3@@@Z ; ioZoneEffectWeapon::SetCollisionDir

; 195  : 		pZone->SetZoneValue( false, true );

  000b3	8b 4d c4	 mov	 ecx, DWORD PTR _pZone$[ebp]
  000b6	6a 01		 push	 1
  000b8	6a 00		 push	 0
  000ba	e8 00 00 00 00	 call	 ?SetZoneValue@ioZoneEffectWeapon@@QAEX_N0@Z ; ioZoneEffectWeapon::SetZoneValue
$LN5@ApplyAttri:

; 196  : 	}
; 197  : 
; 198  : 	ioRotationWeapon *pRotation = ToRotationWeapon( pWeapon );

  000bf	57		 push	 edi
  000c0	e8 00 00 00 00	 call	 ?ToRotationWeapon@@YAPAVioRotationWeapon@@PAVioWeapon@@@Z ; ToRotationWeapon
  000c5	59		 pop	 ecx

; 199  : 	if( pRotation )

  000c6	85 c0		 test	 eax, eax
  000c8	0f 84 20 02 00
	00		 je	 $LN4@ApplyAttri

; 200  : 	{
; 201  : 		if( m_iMaxWeaponWay <= m_iWeaponWay )

  000ce	8b 86 f0 10 00
	00		 mov	 eax, DWORD PTR [esi+4336]
  000d4	39 86 ec 10 00
	00		 cmp	 DWORD PTR [esi+4332], eax
  000da	0f 8e 19 02 00
	00		 jle	 $LN7@ApplyAttri

; 202  : 			return;
; 203  : 
; 204  : 		float fCurAngle = 0.0f;
; 205  : 		float fCurRange = 0.0f;
; 206  : 		float fCurHeight = 0.0f;
; 207  : 
; 208  : 		fCurAngle = m_BulletInfoList[m_iWeaponWay].m_fYawAngle;

  000e0	8b 8e f4 10 00
	00		 mov	 ecx, DWORD PTR [esi+4340]
  000e6	6b c0 14	 imul	 eax, 20			; 00000014H

; 209  : 		fCurRange = m_BulletInfoList[m_iWeaponWay].m_fRangeOffSet;

  000e9	f3 0f 10 4c 08
	0c		 movss	 xmm1, DWORD PTR [eax+ecx+12]
  000ef	f3 0f 10 04 08	 movss	 xmm0, DWORD PTR [eax+ecx]
  000f4	f3 0f 11 4d c4	 movss	 DWORD PTR _fCurRange$542170[ebp], xmm1

; 210  : 		fCurHeight = m_BulletInfoList[m_iWeaponWay].m_fHeightOffSet;

  000f9	f3 0f 10 4c 08
	10		 movss	 xmm1, DWORD PTR [eax+ecx+16]

; 211  : 
; 212  : 		fCurAngle = ioMath::ArrangeHead( fCurAngle );

  000ff	51		 push	 ecx
  00100	f3 0f 11 4d c0	 movss	 DWORD PTR _fCurHeight$542171[ebp], xmm1
  00105	f3 0f 11 04 24	 movss	 DWORD PTR [esp], xmm0
  0010a	ff 15 00 00 00
	00		 call	 DWORD PTR __imp_?ArrangeHead@ioMath@@SAMM@Z
  00110	d9 5d c8	 fstp	 DWORD PTR _fCurAngle$542169[ebp]

; 213  : 
; 214  : 		D3DXVECTOR3 vMoveDir;
; 215  : 		D3DXQUATERNION qtAngle;
; 216  : 		D3DXQuaternionRotationYawPitchRoll( &qtAngle, DEGtoRAD(fCurAngle), 0.0f, 0.0f );

  00113	d9 45 c8	 fld	 DWORD PTR _fCurAngle$542169[ebp]
  00116	0f 57 c0	 xorps	 xmm0, xmm0
  00119	dc 0d 00 00 00
	00		 fmul	 QWORD PTR __real@3f91df46a2526c7a
  0011f	f3 0f 11 04 24	 movss	 DWORD PTR [esp], xmm0
  00124	51		 push	 ecx
  00125	51		 push	 ecx
  00126	d9 5d c8	 fstp	 DWORD PTR tv521[ebp]
  00129	f3 0f 11 44 24
	04		 movss	 DWORD PTR [esp+4], xmm0
  0012f	d9 45 c8	 fld	 DWORD PTR tv521[ebp]
  00132	8d 45 94	 lea	 eax, DWORD PTR _qtAngle$542173[ebp]
  00135	d9 1c 24	 fstp	 DWORD PTR [esp]
  00138	50		 push	 eax
  00139	e8 00 00 00 00	 call	 _D3DXQuaternionRotationYawPitchRoll@16

; 217  : 
; 218  : 		D3DXQUATERNION qtRotate = pWeapon->GetOwner()->GetTargetRot();

  0013e	8b cf		 mov	 ecx, edi
  00140	e8 00 00 00 00	 call	 ?GetOwner@ioWeapon@@QBEPAVioBaseChar@@XZ ; ioWeapon::GetOwner
  00145	8d b0 a4 06 00
	00		 lea	 esi, DWORD PTR [eax+1700]
  0014b	8d 7d a4	 lea	 edi, DWORD PTR _qtRotate$542178[ebp]
  0014e	a5		 movsd
  0014f	a5		 movsd
  00150	a5		 movsd
  00151	a5		 movsd

; 219  : 		vMoveDir = qtRotate * D3DXVECTOR3( 0.0f, 0.0f, -FLOAT1 );

  00152	b8 01 00 00 00	 mov	 eax, 1
  00157	0f 57 c0	 xorps	 xmm0, xmm0
  0015a	89 45 c8	 mov	 DWORD PTR tv499[ebp], eax
  0015d	db 45 c8	 fild	 DWORD PTR tv499[ebp]
  00160	f3 0f 11 45 d8	 movss	 DWORD PTR $T542180[ebp], xmm0
  00165	f3 0f 11 45 dc	 movss	 DWORD PTR $T542180[ebp+4], xmm0
  0016a	85 c0		 test	 eax, eax
  0016c	79 06		 jns	 SHORT $LN45@ApplyAttri
  0016e	d8 05 00 00 00
	00		 fadd	 DWORD PTR __real@4f800000
$LN45@ApplyAttri:
  00174	8d 45 d8	 lea	 eax, DWORD PTR $T542180[ebp]
  00177	d9 e0		 fchs
  00179	50		 push	 eax
  0017a	d9 5d e0	 fstp	 DWORD PTR $T542180[ebp+8]
  0017d	8d 45 a4	 lea	 eax, DWORD PTR _qtRotate$542178[ebp]
  00180	50		 push	 eax
  00181	8d 45 cc	 lea	 eax, DWORD PTR $T542181[ebp]
  00184	50		 push	 eax
  00185	ff d3		 call	 ebx
  00187	8b f0		 mov	 esi, eax
  00189	8d 7d e4	 lea	 edi, DWORD PTR _vMoveDir$542172[ebp]
  0018c	a5		 movsd

; 220  : 		vMoveDir = qtAngle * vMoveDir;

  0018d	8d 45 e4	 lea	 eax, DWORD PTR _vMoveDir$542172[ebp]
  00190	50		 push	 eax
  00191	8d 45 94	 lea	 eax, DWORD PTR _qtAngle$542173[ebp]
  00194	a5		 movsd
  00195	50		 push	 eax
  00196	8d 45 cc	 lea	 eax, DWORD PTR $T542182[ebp]
  00199	50		 push	 eax
  0019a	a5		 movsd
  0019b	ff d3		 call	 ebx
  0019d	8b f0		 mov	 esi, eax
  0019f	8d 7d e4	 lea	 edi, DWORD PTR _vMoveDir$542172[ebp]
  001a2	a5		 movsd
  001a3	83 c4 18	 add	 esp, 24			; 00000018H

; 221  : 		D3DXVec3Normalize( &vMoveDir, &vMoveDir );

  001a6	8d 45 e4	 lea	 eax, DWORD PTR _vMoveDir$542172[ebp]
  001a9	a5		 movsd
  001aa	50		 push	 eax
  001ab	50		 push	 eax
  001ac	a5		 movsd
  001ad	e8 00 00 00 00	 call	 _D3DXVec3Normalize@8

; 222  : 
; 223  : 		D3DXVECTOR3 vPos = pWeapon->GetOwner()->GetMidPositionByRate();

  001b2	b8 05 00 00 00	 mov	 eax, 5
  001b7	8b c8		 mov	 ecx, eax
  001b9	b8 0a 00 00 00	 mov	 eax, 10			; 0000000aH
  001be	89 4d c8	 mov	 DWORD PTR tv465[ebp], ecx
  001c1	db 45 c8	 fild	 DWORD PTR tv465[ebp]
  001c4	85 c9		 test	 ecx, ecx
  001c6	79 06		 jns	 SHORT $LN46@ApplyAttri
  001c8	d8 05 00 00 00
	00		 fadd	 DWORD PTR __real@4f800000
$LN46@ApplyAttri:
  001ce	89 45 c8	 mov	 DWORD PTR tv461[ebp], eax
  001d1	db 45 c8	 fild	 DWORD PTR tv461[ebp]
  001d4	85 c0		 test	 eax, eax
  001d6	79 06		 jns	 SHORT $LN47@ApplyAttri
  001d8	d8 05 00 00 00
	00		 fadd	 DWORD PTR __real@4f800000
$LN47@ApplyAttri:
  001de	de f9		 fdivp	 ST(1), ST(0)
  001e0	8b 75 b4	 mov	 esi, DWORD PTR _pWeapon$GSCopy$[ebp]
  001e3	51		 push	 ecx
  001e4	8d 45 f0	 lea	 eax, DWORD PTR _vPos$542183[ebp]
  001e7	8b ce		 mov	 ecx, esi
  001e9	d9 5d c8	 fstp	 DWORD PTR tv457[ebp]
  001ec	d9 45 c8	 fld	 DWORD PTR tv457[ebp]
  001ef	d9 1c 24	 fstp	 DWORD PTR [esp]
  001f2	50		 push	 eax
  001f3	e8 00 00 00 00	 call	 ?GetOwner@ioWeapon@@QBEPAVioBaseChar@@XZ ; ioWeapon::GetOwner
  001f8	8b c8		 mov	 ecx, eax
  001fa	e8 00 00 00 00	 call	 ?GetMidPositionByRate@ioGameEntity@@QBE?AUD3DXVECTOR3@@M@Z ; ioGameEntity::GetMidPositionByRate

; 224  : 		if( fCurRange > 0.0f )

  001ff	f3 0f 10 45 c4	 movss	 xmm0, DWORD PTR _fCurRange$542170[ebp]
  00204	0f 57 c9	 xorps	 xmm1, xmm1
  00207	0f 2f c1	 comiss	 xmm0, xmm1
  0020a	0f 86 8c 00 00
	00		 jbe	 $LN43@ApplyAttri

; 225  : 			vPos += vMoveDir*fCurRange;

  00210	f3 0f 10 55 e4	 movss	 xmm2, DWORD PTR _vMoveDir$542172[ebp]
  00215	0f 5a d8	 cvtps2pd xmm3, xmm0
  00218	0f 5a d2	 cvtps2pd xmm2, xmm2
  0021b	f2 0f 59 d3	 mulsd	 xmm2, xmm3
  0021f	f3 0f 10 5d e8	 movss	 xmm3, DWORD PTR _vMoveDir$542172[ebp+4]
  00224	0f 5a e0	 cvtps2pd xmm4, xmm0
  00227	0f 5a db	 cvtps2pd xmm3, xmm3
  0022a	f2 0f 59 dc	 mulsd	 xmm3, xmm4
  0022e	f3 0f 10 65 ec	 movss	 xmm4, DWORD PTR _vMoveDir$542172[ebp+8]
  00233	66 0f 5a d2	 cvtpd2ps xmm2, xmm2
  00237	0f 5a c0	 cvtps2pd xmm0, xmm0
  0023a	f3 0f 5a d2	 cvtss2sd xmm2, xmm2
  0023e	0f 5a e4	 cvtps2pd xmm4, xmm4
  00241	f2 0f 59 e0	 mulsd	 xmm4, xmm0
  00245	0f 57 c0	 xorps	 xmm0, xmm0
  00248	66 0f 5a c4	 cvtpd2ps xmm0, xmm4
  0024c	f3 0f 10 65 f0	 movss	 xmm4, DWORD PTR _vPos$542183[ebp]
  00251	0f 5a e4	 cvtps2pd xmm4, xmm4
  00254	f2 0f 58 d4	 addsd	 xmm2, xmm4
  00258	66 0f 5a d2	 cvtpd2ps xmm2, xmm2
  0025c	f3 0f 11 55 f0	 movss	 DWORD PTR _vPos$542183[ebp], xmm2
  00261	0f 57 d2	 xorps	 xmm2, xmm2
  00264	66 0f 5a db	 cvtpd2ps xmm3, xmm3
  00268	f3 0f 5a d3	 cvtss2sd xmm2, xmm3
  0026c	f3 0f 10 5d f4	 movss	 xmm3, DWORD PTR _vPos$542183[ebp+4]
  00271	0f 5a db	 cvtps2pd xmm3, xmm3
  00274	f2 0f 58 d3	 addsd	 xmm2, xmm3
  00278	66 0f 5a d2	 cvtpd2ps xmm2, xmm2
  0027c	f3 0f 11 55 f4	 movss	 DWORD PTR _vPos$542183[ebp+4], xmm2
  00281	f3 0f 10 55 f8	 movss	 xmm2, DWORD PTR _vPos$542183[ebp+8]
  00286	0f 5a c0	 cvtps2pd xmm0, xmm0
  00289	0f 5a d2	 cvtps2pd xmm2, xmm2
  0028c	f2 0f 58 d0	 addsd	 xmm2, xmm0
  00290	0f 57 c0	 xorps	 xmm0, xmm0
  00293	66 0f 5a c2	 cvtpd2ps xmm0, xmm2
  00297	f3 0f 11 45 f8	 movss	 DWORD PTR _vPos$542183[ebp+8], xmm0
$LN43@ApplyAttri:

; 226  : 
; 227  : 		if( fCurHeight > 0.0f )

  0029c	f3 0f 10 45 c0	 movss	 xmm0, DWORD PTR _fCurHeight$542171[ebp]
  002a1	0f 2f c1	 comiss	 xmm0, xmm1
  002a4	76 1b		 jbe	 SHORT $LN1@ApplyAttri

; 228  : 			vPos.y += fCurHeight;

  002a6	f3 0f 10 4d f4	 movss	 xmm1, DWORD PTR _vPos$542183[ebp+4]
  002ab	0f 5a c0	 cvtps2pd xmm0, xmm0
  002ae	0f 5a c9	 cvtps2pd xmm1, xmm1
  002b1	f2 0f 58 c8	 addsd	 xmm1, xmm0
  002b5	0f 57 c0	 xorps	 xmm0, xmm0
  002b8	f2 0f 5a c1	 cvtsd2ss xmm0, xmm1
  002bc	f3 0f 11 45 f4	 movss	 DWORD PTR _vPos$542183[ebp+4], xmm0
$LN1@ApplyAttri:

; 229  : 
; 230  : 		pWeapon->SetStartPosition( vPos, pStage );

  002c1	ff 75 bc	 push	 DWORD PTR _pStage$GSCopy$[ebp]
  002c4	8b 06		 mov	 eax, DWORD PTR [esi]
  002c6	8d 4d f0	 lea	 ecx, DWORD PTR _vPos$542183[ebp]
  002c9	51		 push	 ecx
  002ca	8b ce		 mov	 ecx, esi
  002cc	ff 90 bc 00 00
	00		 call	 DWORD PTR [eax+188]

; 231  : 		pWeapon->SetMoveDir( vMoveDir );

  002d2	8b 06		 mov	 eax, DWORD PTR [esi]
  002d4	8d 4d e4	 lea	 ecx, DWORD PTR _vMoveDir$542172[ebp]
  002d7	51		 push	 ecx
  002d8	8b ce		 mov	 ecx, esi
  002da	ff 90 b0 00 00
	00		 call	 DWORD PTR [eax+176]

; 232  : 
; 233  : 		m_iWeaponWay++;

  002e0	8b 45 b8	 mov	 eax, DWORD PTR _this$GSCopy$[ebp]
  002e3	ff 80 f0 10 00
	00		 inc	 DWORD PTR [eax+4336]
  002e9	8b 7d b4	 mov	 edi, DWORD PTR _pWeapon$GSCopy$[ebp]
  002ec	8b f0		 mov	 esi, eax
$LN4@ApplyAttri:

; 234  : 	}
; 235  : 
; 236  : 	ioSkill::ApplyAttributeToWeapon( pWeapon, pStage );

  002ee	ff 75 bc	 push	 DWORD PTR _pStage$GSCopy$[ebp]
  002f1	8b ce		 mov	 ecx, esi
  002f3	57		 push	 edi
  002f4	e8 00 00 00 00	 call	 ?ApplyAttributeToWeapon@ioSkill@@UAEXPAVioWeapon@@PAVioPlayStage@@@Z ; ioSkill::ApplyAttributeToWeapon
$LN7@ApplyAttri:

; 237  : }

  002f9	8b 4d fc	 mov	 ecx, DWORD PTR __$ArrayPad$[ebp]
  002fc	5f		 pop	 edi
  002fd	5e		 pop	 esi
  002fe	33 cd		 xor	 ecx, ebp
  00300	5b		 pop	 ebx
  00301	e8 00 00 00 00	 call	 @__security_check_cookie@4
  00306	c9		 leave
  00307	c2 08 00	 ret	 8
?ApplyAttributeToWeapon@ioMoveAttackSkill@@UAEXPAVioWeapon@@PAVioPlayStage@@@Z ENDP ; ioMoveAttackSkill::ApplyAttributeToWeapon
_TEXT	ENDS
PUBLIC	?begin@?$vector@UBulletInfo@@V?$allocator@UBulletInfo@@@std@@@std@@QAE?AV?$_Vector_iterator@V?$_Vector_val@UBulletInfo@@V?$allocator@UBulletInfo@@@std@@@std@@@2@XZ ; std::vector<BulletInfo,std::allocator<BulletInfo> >::begin
; Function compile flags: /Ogsp
; File c:\program files (x86)\microsoft visual studio 10.0\vc\include\vector
;	COMDAT ?begin@?$vector@UBulletInfo@@V?$allocator@UBulletInfo@@@std@@@std@@QAE?AV?$_Vector_iterator@V?$_Vector_val@UBulletInfo@@V?$allocator@UBulletInfo@@@std@@@std@@@2@XZ
_TEXT	SEGMENT
___$ReturnUdt$ = 8					; size = 4
?begin@?$vector@UBulletInfo@@V?$allocator@UBulletInfo@@@std@@@std@@QAE?AV?$_Vector_iterator@V?$_Vector_val@UBulletInfo@@V?$allocator@UBulletInfo@@@std@@@std@@@2@XZ PROC ; std::vector<BulletInfo,std::allocator<BulletInfo> >::begin, COMDAT
; _this$ = ecx

; 781  : 		{	// return iterator for beginning of mutable sequence

  00000	55		 push	 ebp
  00001	8b ec		 mov	 ebp, esp

; 782  : 		return (iterator(this->_Myfirst, this));

  00003	8b 09		 mov	 ecx, DWORD PTR [ecx]
  00005	8b 45 08	 mov	 eax, DWORD PTR ___$ReturnUdt$[ebp]
  00008	89 08		 mov	 DWORD PTR [eax], ecx

; 783  : 		}

  0000a	5d		 pop	 ebp
  0000b	c2 04 00	 ret	 4
?begin@?$vector@UBulletInfo@@V?$allocator@UBulletInfo@@@std@@@std@@QAE?AV?$_Vector_iterator@V?$_Vector_val@UBulletInfo@@V?$allocator@UBulletInfo@@@std@@@std@@@2@XZ ENDP ; std::vector<BulletInfo,std::allocator<BulletInfo> >::begin
_TEXT	ENDS
PUBLIC	?begin@?$vector@UBulletInfo@@V?$allocator@UBulletInfo@@@std@@@std@@QBE?AV?$_Vector_const_iterator@V?$_Vector_val@UBulletInfo@@V?$allocator@UBulletInfo@@@std@@@std@@@2@XZ ; std::vector<BulletInfo,std::allocator<BulletInfo> >::begin
; Function compile flags: /Ogsp
;	COMDAT ?begin@?$vector@UBulletInfo@@V?$allocator@UBulletInfo@@@std@@@std@@QBE?AV?$_Vector_const_iterator@V?$_Vector_val@UBulletInfo@@V?$allocator@UBulletInfo@@@std@@@std@@@2@XZ
_TEXT	SEGMENT
___$ReturnUdt$ = 8					; size = 4
?begin@?$vector@UBulletInfo@@V?$allocator@UBulletInfo@@@std@@@std@@QBE?AV?$_Vector_const_iterator@V?$_Vector_val@UBulletInfo@@V?$allocator@UBulletInfo@@@std@@@std@@@2@XZ PROC ; std::vector<BulletInfo,std::allocator<BulletInfo> >::begin, COMDAT
; _this$ = ecx

; 786  : 		{	// return iterator for beginning of nonmutable sequence

  00000	55		 push	 ebp
  00001	8b ec		 mov	 ebp, esp

; 787  : 		return (const_iterator(this->_Myfirst, this));

  00003	8b 09		 mov	 ecx, DWORD PTR [ecx]
  00005	8b 45 08	 mov	 eax, DWORD PTR ___$ReturnUdt$[ebp]
  00008	89 08		 mov	 DWORD PTR [eax], ecx

; 788  : 		}

  0000a	5d		 pop	 ebp
  0000b	c2 04 00	 ret	 4
?begin@?$vector@UBulletInfo@@V?$allocator@UBulletInfo@@@std@@@std@@QBE?AV?$_Vector_const_iterator@V?$_Vector_val@UBulletInfo@@V?$allocator@UBulletInfo@@@std@@@std@@@2@XZ ENDP ; std::vector<BulletInfo,std::allocator<BulletInfo> >::begin
_TEXT	ENDS
PUBLIC	?end@?$vector@UBulletInfo@@V?$allocator@UBulletInfo@@@std@@@std@@QAE?AV?$_Vector_iterator@V?$_Vector_val@UBulletInfo@@V?$allocator@UBulletInfo@@@std@@@std@@@2@XZ ; std::vector<BulletInfo,std::allocator<BulletInfo> >::end
; Function compile flags: /Ogsp
;	COMDAT ?end@?$vector@UBulletInfo@@V?$allocator@UBulletInfo@@@std@@@std@@QAE?AV?$_Vector_iterator@V?$_Vector_val@UBulletInfo@@V?$allocator@UBulletInfo@@@std@@@std@@@2@XZ
_TEXT	SEGMENT
___$ReturnUdt$ = 8					; size = 4
?end@?$vector@UBulletInfo@@V?$allocator@UBulletInfo@@@std@@@std@@QAE?AV?$_Vector_iterator@V?$_Vector_val@UBulletInfo@@V?$allocator@UBulletInfo@@@std@@@std@@@2@XZ PROC ; std::vector<BulletInfo,std::allocator<BulletInfo> >::end, COMDAT
; _this$ = ecx

; 791  : 		{	// return iterator for end of mutable sequence

  00000	55		 push	 ebp
  00001	8b ec		 mov	 ebp, esp

; 792  : 		return (iterator(this->_Mylast, this));

  00003	8b 49 04	 mov	 ecx, DWORD PTR [ecx+4]
  00006	8b 45 08	 mov	 eax, DWORD PTR ___$ReturnUdt$[ebp]
  00009	89 08		 mov	 DWORD PTR [eax], ecx

; 793  : 		}

  0000b	5d		 pop	 ebp
  0000c	c2 04 00	 ret	 4
?end@?$vector@UBulletInfo@@V?$allocator@UBulletInfo@@@std@@@std@@QAE?AV?$_Vector_iterator@V?$_Vector_val@UBulletInfo@@V?$allocator@UBulletInfo@@@std@@@std@@@2@XZ ENDP ; std::vector<BulletInfo,std::allocator<BulletInfo> >::end
_TEXT	ENDS
PUBLIC	?end@?$vector@UBulletInfo@@V?$allocator@UBulletInfo@@@std@@@std@@QBE?AV?$_Vector_const_iterator@V?$_Vector_val@UBulletInfo@@V?$allocator@UBulletInfo@@@std@@@std@@@2@XZ ; std::vector<BulletInfo,std::allocator<BulletInfo> >::end
; Function compile flags: /Ogsp
;	COMDAT ?end@?$vector@UBulletInfo@@V?$allocator@UBulletInfo@@@std@@@std@@QBE?AV?$_Vector_const_iterator@V?$_Vector_val@UBulletInfo@@V?$allocator@UBulletInfo@@@std@@@std@@@2@XZ
_TEXT	SEGMENT
___$ReturnUdt$ = 8					; size = 4
?end@?$vector@UBulletInfo@@V?$allocator@UBulletInfo@@@std@@@std@@QBE?AV?$_Vector_const_iterator@V?$_Vector_val@UBulletInfo@@V?$allocator@UBulletInfo@@@std@@@std@@@2@XZ PROC ; std::vector<BulletInfo,std::allocator<BulletInfo> >::end, COMDAT
; _this$ = ecx

; 796  : 		{	// return iterator for end of nonmutable sequence

  00000	55		 push	 ebp
  00001	8b ec		 mov	 ebp, esp

; 797  : 		return (const_iterator(this->_Mylast, this));

  00003	8b 49 04	 mov	 ecx, DWORD PTR [ecx+4]
  00006	8b 45 08	 mov	 eax, DWORD PTR ___$ReturnUdt$[ebp]
  00009	89 08		 mov	 DWORD PTR [eax], ecx

; 798  : 		}

  0000b	5d		 pop	 ebp
  0000c	c2 04 00	 ret	 4
?end@?$vector@UBulletInfo@@V?$allocator@UBulletInfo@@@std@@@std@@QBE?AV?$_Vector_const_iterator@V?$_Vector_val@UBulletInfo@@V?$allocator@UBulletInfo@@@std@@@std@@@2@XZ ENDP ; std::vector<BulletInfo,std::allocator<BulletInfo> >::end
_TEXT	ENDS
PUBLIC	??0?$_Vector_val@UBulletInfo@@V?$allocator@UBulletInfo@@@std@@@std@@QAE@V?$allocator@UBulletInfo@@@1@@Z ; std::_Vector_val<BulletInfo,std::allocator<BulletInfo> >::_Vector_val<BulletInfo,std::allocator<BulletInfo> >
; Function compile flags: /Ogsp
;	COMDAT ??0?$_Vector_val@UBulletInfo@@V?$allocator@UBulletInfo@@@std@@@std@@QAE@V?$allocator@UBulletInfo@@@1@@Z
_TEXT	SEGMENT
__Al$ = 8						; size = 1
??0?$_Vector_val@UBulletInfo@@V?$allocator@UBulletInfo@@@std@@@std@@QAE@V?$allocator@UBulletInfo@@@1@@Z PROC ; std::_Vector_val<BulletInfo,std::allocator<BulletInfo> >::_Vector_val<BulletInfo,std::allocator<BulletInfo> >, COMDAT
; _this$ = ecx

; 426  : 		{	// construct allocator from _Al

  00000	8b c1		 mov	 eax, ecx

; 427  : 		_Myfirst = 0;

  00002	33 c9		 xor	 ecx, ecx
  00004	89 08		 mov	 DWORD PTR [eax], ecx

; 428  : 		_Mylast = 0;

  00006	89 48 04	 mov	 DWORD PTR [eax+4], ecx

; 429  : 		_Myend = 0;

  00009	89 48 08	 mov	 DWORD PTR [eax+8], ecx

; 430  : 		}

  0000c	c2 04 00	 ret	 4
??0?$_Vector_val@UBulletInfo@@V?$allocator@UBulletInfo@@@std@@@std@@QAE@V?$allocator@UBulletInfo@@@1@@Z ENDP ; std::_Vector_val<BulletInfo,std::allocator<BulletInfo> >::_Vector_val<BulletInfo,std::allocator<BulletInfo> >
_TEXT	ENDS
PUBLIC	?_Make_iter@?$vector@UBulletInfo@@V?$allocator@UBulletInfo@@@std@@@std@@QBE?AV?$_Vector_iterator@V?$_Vector_val@UBulletInfo@@V?$allocator@UBulletInfo@@@std@@@std@@@2@V?$_Vector_const_iterator@V?$_Vector_val@UBulletInfo@@V?$allocator@UBulletInfo@@@std@@@std@@@2@@Z ; std::vector<BulletInfo,std::allocator<BulletInfo> >::_Make_iter
; Function compile flags: /Ogsp
;	COMDAT ?_Make_iter@?$vector@UBulletInfo@@V?$allocator@UBulletInfo@@@std@@@std@@QBE?AV?$_Vector_iterator@V?$_Vector_val@UBulletInfo@@V?$allocator@UBulletInfo@@@std@@@std@@@2@V?$_Vector_const_iterator@V?$_Vector_val@UBulletInfo@@V?$allocator@UBulletInfo@@@std@@@std@@@2@@Z
_TEXT	SEGMENT
___$ReturnUdt$ = 8					; size = 4
__Where$ = 12						; size = 4
?_Make_iter@?$vector@UBulletInfo@@V?$allocator@UBulletInfo@@@std@@@std@@QBE?AV?$_Vector_iterator@V?$_Vector_val@UBulletInfo@@V?$allocator@UBulletInfo@@@std@@@std@@@2@V?$_Vector_const_iterator@V?$_Vector_val@UBulletInfo@@V?$allocator@UBulletInfo@@@std@@@std@@@2@@Z PROC ; std::vector<BulletInfo,std::allocator<BulletInfo> >::_Make_iter, COMDAT
; _this$ = ecx

; 801  : 		{	// make iterator from const_iterator

  00000	55		 push	 ebp
  00001	8b ec		 mov	 ebp, esp

; 802  : 		return (iterator(_Where._Ptr, this));

  00003	8b 45 08	 mov	 eax, DWORD PTR ___$ReturnUdt$[ebp]
  00006	8b 4d 0c	 mov	 ecx, DWORD PTR __Where$[ebp]
  00009	89 08		 mov	 DWORD PTR [eax], ecx

; 803  : 		}

  0000b	5d		 pop	 ebp
  0000c	c2 08 00	 ret	 8
?_Make_iter@?$vector@UBulletInfo@@V?$allocator@UBulletInfo@@@std@@@std@@QBE?AV?$_Vector_iterator@V?$_Vector_val@UBulletInfo@@V?$allocator@UBulletInfo@@@std@@@std@@@2@V?$_Vector_const_iterator@V?$_Vector_val@UBulletInfo@@V?$allocator@UBulletInfo@@@std@@@std@@@2@@Z ENDP ; std::vector<BulletInfo,std::allocator<BulletInfo> >::_Make_iter
_TEXT	ENDS
PUBLIC	?max_size@?$vector@UBulletInfo@@V?$allocator@UBulletInfo@@@std@@@std@@QBEIXZ ; std::vector<BulletInfo,std::allocator<BulletInfo> >::max_size
; Function compile flags: /Ogsp
;	COMDAT ?max_size@?$vector@UBulletInfo@@V?$allocator@UBulletInfo@@@std@@@std@@QBEIXZ
_TEXT	SEGMENT
?max_size@?$vector@UBulletInfo@@V?$allocator@UBulletInfo@@@std@@@std@@QBEIXZ PROC ; std::vector<BulletInfo,std::allocator<BulletInfo> >::max_size, COMDAT
; _this$ = ecx

; 884  : 		return (this->_Alval.max_size());

  00000	b8 cc cc cc 0c	 mov	 eax, 214748364		; 0cccccccH

; 885  : 		}

  00005	c3		 ret	 0
?max_size@?$vector@UBulletInfo@@V?$allocator@UBulletInfo@@@std@@@std@@QBEIXZ ENDP ; std::vector<BulletInfo,std::allocator<BulletInfo> >::max_size
_TEXT	ENDS
PUBLIC	?_Grow_to@?$vector@UBulletInfo@@V?$allocator@UBulletInfo@@@std@@@std@@IBEII@Z ; std::vector<BulletInfo,std::allocator<BulletInfo> >::_Grow_to
; Function compile flags: /Ogsp
;	COMDAT ?_Grow_to@?$vector@UBulletInfo@@V?$allocator@UBulletInfo@@@std@@@std@@IBEII@Z
_TEXT	SEGMENT
__Count$ = 8						; size = 4
?_Grow_to@?$vector@UBulletInfo@@V?$allocator@UBulletInfo@@@std@@@std@@IBEII@Z PROC ; std::vector<BulletInfo,std::allocator<BulletInfo> >::_Grow_to, COMDAT
; _this$ = ecx

; 1274 : 		{	// grow by 50% or at least to _Count

  00000	55		 push	 ebp
  00001	8b ec		 mov	 ebp, esp

; 1275 : 		size_type _Capacity = capacity();

  00003	8b 41 08	 mov	 eax, DWORD PTR [ecx+8]
  00006	2b 01		 sub	 eax, DWORD PTR [ecx]
  00008	6a 14		 push	 20			; 00000014H
  0000a	99		 cdq
  0000b	59		 pop	 ecx
  0000c	f7 f9		 idiv	 ecx

; 1276 : 
; 1277 : 		_Capacity = max_size() - _Capacity / 2 < _Capacity
; 1278 : 			? 0 : _Capacity + _Capacity / 2;	// try to grow by 50%

  0000e	ba cc cc cc 0c	 mov	 edx, 214748364		; 0cccccccH
  00013	8b c8		 mov	 ecx, eax
  00015	d1 e9		 shr	 ecx, 1
  00017	2b d1		 sub	 edx, ecx
  00019	3b d0		 cmp	 edx, eax
  0001b	73 04		 jae	 SHORT $LN4@Grow_to
  0001d	33 c0		 xor	 eax, eax
  0001f	eb 02		 jmp	 SHORT $LN5@Grow_to
$LN4@Grow_to:
  00021	03 c1		 add	 eax, ecx
$LN5@Grow_to:

; 1279 : 		if (_Capacity < _Count)

  00023	3b 45 08	 cmp	 eax, DWORD PTR __Count$[ebp]

; 1280 : 			_Capacity = _Count;

  00026	0f 42 45 08	 cmovb	 eax, DWORD PTR __Count$[ebp]

; 1281 : 		return (_Capacity);
; 1282 : 		}

  0002a	5d		 pop	 ebp
  0002b	c2 04 00	 ret	 4
?_Grow_to@?$vector@UBulletInfo@@V?$allocator@UBulletInfo@@@std@@@std@@IBEII@Z ENDP ; std::vector<BulletInfo,std::allocator<BulletInfo> >::_Grow_to
_TEXT	ENDS
PUBLIC	?allocate@?$allocator@UBulletInfo@@@std@@QAEPAUBulletInfo@@I@Z ; std::allocator<BulletInfo>::allocate
; Function compile flags: /Ogsp
; File c:\program files (x86)\microsoft visual studio 10.0\vc\include\xmemory
;	COMDAT ?allocate@?$allocator@UBulletInfo@@@std@@QAEPAUBulletInfo@@I@Z
_TEXT	SEGMENT
__Count$ = 8						; size = 4
?allocate@?$allocator@UBulletInfo@@@std@@QAEPAUBulletInfo@@I@Z PROC ; std::allocator<BulletInfo>::allocate, COMDAT
; _this$ = ecx

; 186  : 		{	// allocate array of _Count elements

  00000	55		 push	 ebp
  00001	8b ec		 mov	 ebp, esp

; 187  : 		return (_Allocate(_Count, (pointer)0));

  00003	6a 00		 push	 0
  00005	ff 75 08	 push	 DWORD PTR __Count$[ebp]
  00008	e8 00 00 00 00	 call	 ??$_Allocate@UBulletInfo@@@std@@YAPAUBulletInfo@@IPAU1@@Z ; std::_Allocate<BulletInfo>
  0000d	59		 pop	 ecx
  0000e	59		 pop	 ecx

; 188  : 		}

  0000f	5d		 pop	 ebp
  00010	c2 04 00	 ret	 4
?allocate@?$allocator@UBulletInfo@@@std@@QAEPAUBulletInfo@@I@Z ENDP ; std::allocator<BulletInfo>::allocate
_TEXT	ENDS
PUBLIC	??8?$_Vector_const_iterator@V?$_Vector_val@UBulletInfo@@V?$allocator@UBulletInfo@@@std@@@std@@@std@@QBE_NABV01@@Z ; std::_Vector_const_iterator<std::_Vector_val<BulletInfo,std::allocator<BulletInfo> > >::operator==
; Function compile flags: /Ogsp
; File c:\program files (x86)\microsoft visual studio 10.0\vc\include\vector
;	COMDAT ??8?$_Vector_const_iterator@V?$_Vector_val@UBulletInfo@@V?$allocator@UBulletInfo@@@std@@@std@@@std@@QBE_NABV01@@Z
_TEXT	SEGMENT
__Right$ = 8						; size = 4
??8?$_Vector_const_iterator@V?$_Vector_val@UBulletInfo@@V?$allocator@UBulletInfo@@@std@@@std@@@std@@QBE_NABV01@@Z PROC ; std::_Vector_const_iterator<std::_Vector_val<BulletInfo,std::allocator<BulletInfo> > >::operator==, COMDAT
; _this$ = ecx

; 201  : 		{	// test for iterator equality

  00000	55		 push	 ebp
  00001	8b ec		 mov	 ebp, esp

; 202  : 		_Compat(_Right);
; 203  : 		return (this->_Ptr == _Right._Ptr);

  00003	8b 01		 mov	 eax, DWORD PTR [ecx]
  00005	8b 4d 08	 mov	 ecx, DWORD PTR __Right$[ebp]
  00008	2b 01		 sub	 eax, DWORD PTR [ecx]
  0000a	f7 d8		 neg	 eax
  0000c	1b c0		 sbb	 eax, eax
  0000e	40		 inc	 eax

; 204  : 		}

  0000f	5d		 pop	 ebp
  00010	c2 04 00	 ret	 4
??8?$_Vector_const_iterator@V?$_Vector_val@UBulletInfo@@V?$allocator@UBulletInfo@@@std@@@std@@@std@@QBE_NABV01@@Z ENDP ; std::_Vector_const_iterator<std::_Vector_val<BulletInfo,std::allocator<BulletInfo> > >::operator==
_TEXT	ENDS
PUBLIC	__$ArrayPad$
PUBLIC	??$LoadInt_e@$0P@@ioINILoader@@QAEHAAY0P@$$CBDH@Z ; ioINILoader::LoadInt_e<15>
EXTRN	__imp_?LoadInt@ioINILoader@@QAEHPBDH@Z:PROC
; Function compile flags: /Ogsp
; File d:\lost saga for developer\youtube\tutorial\source\src\io3dengine\ioiniloader.h
;	COMDAT ??$LoadInt_e@$0P@@ioINILoader@@QAEHAAY0P@$$CBDH@Z
_TEXT	SEGMENT
__k$ = -24						; size = 15
__$ArrayPad$ = -4					; size = 4
_k$ = 8							; size = 4
_i$ = 12						; size = 4
??$LoadInt_e@$0P@@ioINILoader@@QAEHAAY0P@$$CBDH@Z PROC	; ioINILoader::LoadInt_e<15>, COMDAT
; _this$ = ecx

; 118  : 	{

  00000	55		 push	 ebp
  00001	8b ec		 mov	 ebp, esp
  00003	83 ec 18	 sub	 esp, 24			; 00000018H
  00006	a1 00 00 00 00	 mov	 eax, DWORD PTR ___security_cookie
  0000b	33 c5		 xor	 eax, ebp
  0000d	89 45 fc	 mov	 DWORD PTR __$ArrayPad$[ebp], eax
  00010	8b 45 08	 mov	 eax, DWORD PTR _k$[ebp]

; 119  : 		_ENCSTR(k, _k);

  00013	8a 10		 mov	 dl, BYTE PTR [eax]
  00015	56		 push	 esi
  00016	8b f1		 mov	 esi, ecx
  00018	84 d2		 test	 dl, dl
  0001a	0f 84 75 01 00
	00		 je	 $LN96@LoadInt_e
  00020	80 f2 ed	 xor	 dl, -19			; ffffffedH
  00023	88 55 e8	 mov	 BYTE PTR __k$[ebp], dl
  00026	8a 50 01	 mov	 dl, BYTE PTR [eax+1]
  00029	84 d2		 test	 dl, dl
  0002b	0f 84 5e 01 00
	00		 je	 $LN95@LoadInt_e
  00031	b1 ec		 mov	 cl, -20			; ffffffecH
  00033	32 d1		 xor	 dl, cl
  00035	88 55 e9	 mov	 BYTE PTR __k$[ebp+1], dl
  00038	8a 50 02	 mov	 dl, BYTE PTR [eax+2]
  0003b	84 d2		 test	 dl, dl
  0003d	0f 84 46 01 00
	00		 je	 $LN94@LoadInt_e
  00043	80 f2 eb	 xor	 dl, -21			; ffffffebH
  00046	88 55 ea	 mov	 BYTE PTR __k$[ebp+2], dl
  00049	8a 50 03	 mov	 dl, BYTE PTR [eax+3]
  0004c	84 d2		 test	 dl, dl
  0004e	0f 84 2f 01 00
	00		 je	 $LN93@LoadInt_e
  00054	80 f2 ea	 xor	 dl, -22			; ffffffeaH
  00057	88 55 eb	 mov	 BYTE PTR __k$[ebp+3], dl
  0005a	8a 50 04	 mov	 dl, BYTE PTR [eax+4]
  0005d	84 d2		 test	 dl, dl
  0005f	0f 84 18 01 00
	00		 je	 $LN92@LoadInt_e
  00065	80 f2 ed	 xor	 dl, -19			; ffffffedH
  00068	88 55 ec	 mov	 BYTE PTR __k$[ebp+4], dl
  0006b	8a 50 05	 mov	 dl, BYTE PTR [eax+5]
  0006e	84 d2		 test	 dl, dl
  00070	0f 84 02 01 00
	00		 je	 $LN91@LoadInt_e
  00076	32 d1		 xor	 dl, cl
  00078	88 55 ed	 mov	 BYTE PTR __k$[ebp+5], dl
  0007b	8a 50 06	 mov	 dl, BYTE PTR [eax+6]
  0007e	84 d2		 test	 dl, dl
  00080	0f 84 ec 00 00
	00		 je	 $LN90@LoadInt_e
  00086	80 f2 eb	 xor	 dl, -21			; ffffffebH
  00089	88 55 ee	 mov	 BYTE PTR __k$[ebp+6], dl
  0008c	8a 50 07	 mov	 dl, BYTE PTR [eax+7]
  0008f	84 d2		 test	 dl, dl
  00091	0f 84 d5 00 00
	00		 je	 $LN89@LoadInt_e
  00097	80 f2 ea	 xor	 dl, -22			; ffffffeaH
  0009a	88 55 ef	 mov	 BYTE PTR __k$[ebp+7], dl
  0009d	8a 50 08	 mov	 dl, BYTE PTR [eax+8]
  000a0	84 d2		 test	 dl, dl
  000a2	0f 84 be 00 00
	00		 je	 $LN88@LoadInt_e
  000a8	80 f2 ed	 xor	 dl, -19			; ffffffedH
  000ab	88 55 f0	 mov	 BYTE PTR __k$[ebp+8], dl
  000ae	8a 50 09	 mov	 dl, BYTE PTR [eax+9]
  000b1	84 d2		 test	 dl, dl
  000b3	0f 84 a8 00 00
	00		 je	 $LN87@LoadInt_e
  000b9	32 d1		 xor	 dl, cl
  000bb	88 55 f1	 mov	 BYTE PTR __k$[ebp+9], dl
  000be	8a 50 0a	 mov	 dl, BYTE PTR [eax+10]
  000c1	84 d2		 test	 dl, dl
  000c3	0f 84 92 00 00
	00		 je	 $LN86@LoadInt_e
  000c9	80 f2 eb	 xor	 dl, -21			; ffffffebH
  000cc	88 55 f2	 mov	 BYTE PTR __k$[ebp+10], dl
  000cf	8a 50 0b	 mov	 dl, BYTE PTR [eax+11]
  000d2	84 d2		 test	 dl, dl
  000d4	74 7f		 je	 SHORT $LN85@LoadInt_e
  000d6	80 f2 ea	 xor	 dl, -22			; ffffffeaH
  000d9	88 55 f3	 mov	 BYTE PTR __k$[ebp+11], dl
  000dc	8a 50 0c	 mov	 dl, BYTE PTR [eax+12]
  000df	84 d2		 test	 dl, dl
  000e1	74 6c		 je	 SHORT $LN84@LoadInt_e
  000e3	80 f2 ed	 xor	 dl, -19			; ffffffedH
  000e6	88 55 f4	 mov	 BYTE PTR __k$[ebp+12], dl
  000e9	8a 50 0d	 mov	 dl, BYTE PTR [eax+13]
  000ec	84 d2		 test	 dl, dl
  000ee	74 5a		 je	 SHORT $LN83@LoadInt_e
  000f0	32 d1		 xor	 dl, cl
  000f2	80 78 0e 00	 cmp	 BYTE PTR [eax+14], 0
  000f6	88 55 f5	 mov	 BYTE PTR __k$[ebp+13], dl
  000f9	0f 84 9a 00 00
	00		 je	 $LN1@LoadInt_e
  000ff	8a 50 0f	 mov	 dl, BYTE PTR [eax+15]
  00102	84 d2		 test	 dl, dl
  00104	74 3e		 je	 SHORT $LN81@LoadInt_e
  00106	80 f2 ea	 xor	 dl, -22			; ffffffeaH
  00109	88 55 f7	 mov	 BYTE PTR __k$[ebp+15], dl
  0010c	8a 50 10	 mov	 dl, BYTE PTR [eax+16]
  0010f	84 d2		 test	 dl, dl
  00111	74 2b		 je	 SHORT $LN80@LoadInt_e
  00113	80 f2 ed	 xor	 dl, -19			; ffffffedH
  00116	88 55 f8	 mov	 BYTE PTR __k$[ebp+16], dl
  00119	8a 50 11	 mov	 dl, BYTE PTR [eax+17]
  0011c	84 d2		 test	 dl, dl
  0011e	74 19		 je	 SHORT $LN79@LoadInt_e
  00120	8a 40 12	 mov	 al, BYTE PTR [eax+18]
  00123	32 d1		 xor	 dl, cl
  00125	88 55 f9	 mov	 BYTE PTR __k$[ebp+17], dl
  00128	84 c0		 test	 al, al
  0012a	74 07		 je	 SHORT $LN78@LoadInt_e
  0012c	34 eb		 xor	 al, -21			; ffffffebH
  0012e	88 45 fa	 mov	 BYTE PTR __k$[ebp+18], al
  00131	eb 66		 jmp	 SHORT $LN1@LoadInt_e
$LN78@LoadInt_e:
  00133	c6 45 fa eb	 mov	 BYTE PTR __k$[ebp+18], -21 ; ffffffebH
  00137	eb 60		 jmp	 SHORT $LN1@LoadInt_e
$LN79@LoadInt_e:
  00139	88 4d f9	 mov	 BYTE PTR __k$[ebp+17], cl
  0013c	eb 5b		 jmp	 SHORT $LN1@LoadInt_e
$LN80@LoadInt_e:
  0013e	c6 45 f8 ed	 mov	 BYTE PTR __k$[ebp+16], -19 ; ffffffedH
  00142	eb 55		 jmp	 SHORT $LN1@LoadInt_e
$LN81@LoadInt_e:
  00144	c6 45 f7 ea	 mov	 BYTE PTR __k$[ebp+15], -22 ; ffffffeaH
  00148	eb 4f		 jmp	 SHORT $LN1@LoadInt_e
$LN83@LoadInt_e:
  0014a	88 4d f5	 mov	 BYTE PTR __k$[ebp+13], cl
  0014d	eb 4a		 jmp	 SHORT $LN1@LoadInt_e
$LN84@LoadInt_e:
  0014f	c6 45 f4 ed	 mov	 BYTE PTR __k$[ebp+12], -19 ; ffffffedH
  00153	eb 44		 jmp	 SHORT $LN1@LoadInt_e
$LN85@LoadInt_e:
  00155	c6 45 f3 ea	 mov	 BYTE PTR __k$[ebp+11], -22 ; ffffffeaH
  00159	eb 3e		 jmp	 SHORT $LN1@LoadInt_e
$LN86@LoadInt_e:
  0015b	c6 45 f2 eb	 mov	 BYTE PTR __k$[ebp+10], -21 ; ffffffebH
  0015f	eb 38		 jmp	 SHORT $LN1@LoadInt_e
$LN87@LoadInt_e:
  00161	88 4d f1	 mov	 BYTE PTR __k$[ebp+9], cl
  00164	eb 33		 jmp	 SHORT $LN1@LoadInt_e
$LN88@LoadInt_e:
  00166	c6 45 f0 ed	 mov	 BYTE PTR __k$[ebp+8], -19 ; ffffffedH
  0016a	eb 2d		 jmp	 SHORT $LN1@LoadInt_e
$LN89@LoadInt_e:
  0016c	c6 45 ef ea	 mov	 BYTE PTR __k$[ebp+7], -22 ; ffffffeaH
  00170	eb 27		 jmp	 SHORT $LN1@LoadInt_e
$LN90@LoadInt_e:
  00172	c6 45 ee eb	 mov	 BYTE PTR __k$[ebp+6], -21 ; ffffffebH
  00176	eb 21		 jmp	 SHORT $LN1@LoadInt_e
$LN91@LoadInt_e:
  00178	88 4d ed	 mov	 BYTE PTR __k$[ebp+5], cl
  0017b	eb 1c		 jmp	 SHORT $LN1@LoadInt_e
$LN92@LoadInt_e:
  0017d	c6 45 ec ed	 mov	 BYTE PTR __k$[ebp+4], -19 ; ffffffedH
  00181	eb 16		 jmp	 SHORT $LN1@LoadInt_e
$LN93@LoadInt_e:
  00183	c6 45 eb ea	 mov	 BYTE PTR __k$[ebp+3], -22 ; ffffffeaH
  00187	eb 10		 jmp	 SHORT $LN1@LoadInt_e
$LN94@LoadInt_e:
  00189	c6 45 ea eb	 mov	 BYTE PTR __k$[ebp+2], -21 ; ffffffebH
  0018d	eb 0a		 jmp	 SHORT $LN1@LoadInt_e
$LN95@LoadInt_e:
  0018f	c6 45 e9 ec	 mov	 BYTE PTR __k$[ebp+1], -20 ; ffffffecH
  00193	eb 04		 jmp	 SHORT $LN1@LoadInt_e
$LN96@LoadInt_e:
  00195	c6 45 e8 ed	 mov	 BYTE PTR __k$[ebp], -19	; ffffffedH
$LN1@LoadInt_e:
  00199	6a 03		 push	 3
  0019b	8d 45 e8	 lea	 eax, DWORD PTR __k$[ebp]
  0019e	c6 45 f6 00	 mov	 BYTE PTR __k$[ebp+14], 0
  001a2	5a		 pop	 edx
$LL104@LoadInt_e:
  001a3	81 30 ed ec eb
	ea		 xor	 DWORD PTR [eax], -353637139 ; eaebecedH
  001a9	83 c0 04	 add	 eax, 4
  001ac	4a		 dec	 edx
  001ad	75 f4		 jne	 SHORT $LL104@LoadInt_e
  001af	6a 0c		 push	 12			; 0000000cH
  001b1	58		 pop	 eax
$LL101@LoadInt_e:
  001b2	8b c8		 mov	 ecx, eax
  001b4	81 e1 03 00 00
	80		 and	 ecx, -2147483645	; 80000003H
  001ba	79 05		 jns	 SHORT $LN111@LoadInt_e
  001bc	49		 dec	 ecx
  001bd	83 c9 fc	 or	 ecx, -4			; fffffffcH
  001c0	41		 inc	 ecx
$LN111@LoadInt_e:
  001c1	b2 ed		 mov	 dl, -19			; ffffffedH
  001c3	2a d1		 sub	 dl, cl
  001c5	30 54 05 e8	 xor	 BYTE PTR __k$[ebp+eax], dl
  001c9	40		 inc	 eax
  001ca	83 f8 0e	 cmp	 eax, 14			; 0000000eH
  001cd	7c e3		 jl	 SHORT $LL101@LoadInt_e

; 120  : 		return LoadInt(_k, i);

  001cf	ff 75 0c	 push	 DWORD PTR _i$[ebp]
  001d2	8d 45 e8	 lea	 eax, DWORD PTR __k$[ebp]
  001d5	50		 push	 eax
  001d6	8b ce		 mov	 ecx, esi
  001d8	ff 15 00 00 00
	00		 call	 DWORD PTR __imp_?LoadInt@ioINILoader@@QAEHPBDH@Z

; 121  : 	}

  001de	8b 4d fc	 mov	 ecx, DWORD PTR __$ArrayPad$[ebp]
  001e1	33 cd		 xor	 ecx, ebp
  001e3	5e		 pop	 esi
  001e4	e8 00 00 00 00	 call	 @__security_check_cookie@4
  001e9	c9		 leave
  001ea	c2 08 00	 ret	 8
??$LoadInt_e@$0P@@ioINILoader@@QAEHAAY0P@$$CBDH@Z ENDP	; ioINILoader::LoadInt_e<15>
_TEXT	ENDS
PUBLIC	__$ArrayPad$
PUBLIC	??$LoadInt_e@$0N@@ioINILoader@@QAEHAAY0N@$$CBDH@Z ; ioINILoader::LoadInt_e<13>
; Function compile flags: /Ogsp
;	COMDAT ??$LoadInt_e@$0N@@ioINILoader@@QAEHAAY0N@$$CBDH@Z
_TEXT	SEGMENT
__k$ = -24						; size = 13
__$ArrayPad$ = -4					; size = 4
_k$ = 8							; size = 4
_i$ = 12						; size = 4
??$LoadInt_e@$0N@@ioINILoader@@QAEHAAY0N@$$CBDH@Z PROC	; ioINILoader::LoadInt_e<13>, COMDAT
; _this$ = ecx

; 118  : 	{

  00000	55		 push	 ebp
  00001	8b ec		 mov	 ebp, esp
  00003	83 ec 18	 sub	 esp, 24			; 00000018H
  00006	a1 00 00 00 00	 mov	 eax, DWORD PTR ___security_cookie
  0000b	33 c5		 xor	 eax, ebp
  0000d	89 45 fc	 mov	 DWORD PTR __$ArrayPad$[ebp], eax
  00010	8b 45 08	 mov	 eax, DWORD PTR _k$[ebp]

; 119  : 		_ENCSTR(k, _k);

  00013	8a 10		 mov	 dl, BYTE PTR [eax]
  00015	56		 push	 esi
  00016	8b f1		 mov	 esi, ecx
  00018	84 d2		 test	 dl, dl
  0001a	0f 84 4d 01 00
	00		 je	 $LN96@LoadInt_e@2
  00020	80 f2 ed	 xor	 dl, -19			; ffffffedH
  00023	88 55 e8	 mov	 BYTE PTR __k$[ebp], dl
  00026	8a 50 01	 mov	 dl, BYTE PTR [eax+1]
  00029	84 d2		 test	 dl, dl
  0002b	0f 84 36 01 00
	00		 je	 $LN95@LoadInt_e@2
  00031	b1 ec		 mov	 cl, -20			; ffffffecH
  00033	32 d1		 xor	 dl, cl
  00035	88 55 e9	 mov	 BYTE PTR __k$[ebp+1], dl
  00038	8a 50 02	 mov	 dl, BYTE PTR [eax+2]
  0003b	84 d2		 test	 dl, dl
  0003d	0f 84 1e 01 00
	00		 je	 $LN94@LoadInt_e@2
  00043	80 f2 eb	 xor	 dl, -21			; ffffffebH
  00046	88 55 ea	 mov	 BYTE PTR __k$[ebp+2], dl
  00049	8a 50 03	 mov	 dl, BYTE PTR [eax+3]
  0004c	84 d2		 test	 dl, dl
  0004e	0f 84 07 01 00
	00		 je	 $LN93@LoadInt_e@2
  00054	80 f2 ea	 xor	 dl, -22			; ffffffeaH
  00057	88 55 eb	 mov	 BYTE PTR __k$[ebp+3], dl
  0005a	8a 50 04	 mov	 dl, BYTE PTR [eax+4]
  0005d	84 d2		 test	 dl, dl
  0005f	0f 84 f0 00 00
	00		 je	 $LN92@LoadInt_e@2
  00065	80 f2 ed	 xor	 dl, -19			; ffffffedH
  00068	88 55 ec	 mov	 BYTE PTR __k$[ebp+4], dl
  0006b	8a 50 05	 mov	 dl, BYTE PTR [eax+5]
  0006e	84 d2		 test	 dl, dl
  00070	0f 84 da 00 00
	00		 je	 $LN91@LoadInt_e@2
  00076	32 d1		 xor	 dl, cl
  00078	88 55 ed	 mov	 BYTE PTR __k$[ebp+5], dl
  0007b	8a 50 06	 mov	 dl, BYTE PTR [eax+6]
  0007e	84 d2		 test	 dl, dl
  00080	0f 84 c4 00 00
	00		 je	 $LN90@LoadInt_e@2
  00086	80 f2 eb	 xor	 dl, -21			; ffffffebH
  00089	88 55 ee	 mov	 BYTE PTR __k$[ebp+6], dl
  0008c	8a 50 07	 mov	 dl, BYTE PTR [eax+7]
  0008f	84 d2		 test	 dl, dl
  00091	0f 84 ad 00 00
	00		 je	 $LN89@LoadInt_e@2
  00097	80 f2 ea	 xor	 dl, -22			; ffffffeaH
  0009a	88 55 ef	 mov	 BYTE PTR __k$[ebp+7], dl
  0009d	8a 50 08	 mov	 dl, BYTE PTR [eax+8]
  000a0	84 d2		 test	 dl, dl
  000a2	0f 84 96 00 00
	00		 je	 $LN88@LoadInt_e@2
  000a8	80 f2 ed	 xor	 dl, -19			; ffffffedH
  000ab	88 55 f0	 mov	 BYTE PTR __k$[ebp+8], dl
  000ae	8a 50 09	 mov	 dl, BYTE PTR [eax+9]
  000b1	84 d2		 test	 dl, dl
  000b3	0f 84 80 00 00
	00		 je	 $LN87@LoadInt_e@2
  000b9	32 d1		 xor	 dl, cl
  000bb	88 55 f1	 mov	 BYTE PTR __k$[ebp+9], dl
  000be	8a 50 0a	 mov	 dl, BYTE PTR [eax+10]
  000c1	84 d2		 test	 dl, dl
  000c3	74 6e		 je	 SHORT $LN86@LoadInt_e@2
  000c5	80 f2 eb	 xor	 dl, -21			; ffffffebH
  000c8	88 55 f2	 mov	 BYTE PTR __k$[ebp+10], dl
  000cb	8a 50 0b	 mov	 dl, BYTE PTR [eax+11]
  000ce	84 d2		 test	 dl, dl
  000d0	74 5b		 je	 SHORT $LN85@LoadInt_e@2
  000d2	80 f2 ea	 xor	 dl, -22			; ffffffeaH
  000d5	80 78 0c 00	 cmp	 BYTE PTR [eax+12], 0
  000d9	88 55 f3	 mov	 BYTE PTR __k$[ebp+11], dl
  000dc	0f 84 8f 00 00
	00		 je	 $LN1@LoadInt_e@2
  000e2	8a 50 0d	 mov	 dl, BYTE PTR [eax+13]
  000e5	84 d2		 test	 dl, dl
  000e7	74 3f		 je	 SHORT $LN83@LoadInt_e@2
  000e9	32 d1		 xor	 dl, cl
  000eb	88 55 f5	 mov	 BYTE PTR __k$[ebp+13], dl
  000ee	8a 50 0e	 mov	 dl, BYTE PTR [eax+14]
  000f1	84 d2		 test	 dl, dl
  000f3	74 2d		 je	 SHORT $LN82@LoadInt_e@2
  000f5	80 f2 eb	 xor	 dl, -21			; ffffffebH
  000f8	88 55 f6	 mov	 BYTE PTR __k$[ebp+14], dl
  000fb	8a 50 0f	 mov	 dl, BYTE PTR [eax+15]
  000fe	84 d2		 test	 dl, dl
  00100	74 1a		 je	 SHORT $LN81@LoadInt_e@2
  00102	8a 40 10	 mov	 al, BYTE PTR [eax+16]
  00105	80 f2 ea	 xor	 dl, -22			; ffffffeaH
  00108	88 55 f7	 mov	 BYTE PTR __k$[ebp+15], dl
  0010b	84 c0		 test	 al, al
  0010d	74 07		 je	 SHORT $LN80@LoadInt_e@2
  0010f	34 ed		 xor	 al, -19			; ffffffedH
  00111	88 45 f8	 mov	 BYTE PTR __k$[ebp+16], al
  00114	eb 5b		 jmp	 SHORT $LN1@LoadInt_e@2
$LN80@LoadInt_e@2:
  00116	c6 45 f8 ed	 mov	 BYTE PTR __k$[ebp+16], -19 ; ffffffedH
  0011a	eb 55		 jmp	 SHORT $LN1@LoadInt_e@2
$LN81@LoadInt_e@2:
  0011c	c6 45 f7 ea	 mov	 BYTE PTR __k$[ebp+15], -22 ; ffffffeaH
  00120	eb 4f		 jmp	 SHORT $LN1@LoadInt_e@2
$LN82@LoadInt_e@2:
  00122	c6 45 f6 eb	 mov	 BYTE PTR __k$[ebp+14], -21 ; ffffffebH
  00126	eb 49		 jmp	 SHORT $LN1@LoadInt_e@2
$LN83@LoadInt_e@2:
  00128	88 4d f5	 mov	 BYTE PTR __k$[ebp+13], cl
  0012b	eb 44		 jmp	 SHORT $LN1@LoadInt_e@2
$LN85@LoadInt_e@2:
  0012d	c6 45 f3 ea	 mov	 BYTE PTR __k$[ebp+11], -22 ; ffffffeaH
  00131	eb 3e		 jmp	 SHORT $LN1@LoadInt_e@2
$LN86@LoadInt_e@2:
  00133	c6 45 f2 eb	 mov	 BYTE PTR __k$[ebp+10], -21 ; ffffffebH
  00137	eb 38		 jmp	 SHORT $LN1@LoadInt_e@2
$LN87@LoadInt_e@2:
  00139	88 4d f1	 mov	 BYTE PTR __k$[ebp+9], cl
  0013c	eb 33		 jmp	 SHORT $LN1@LoadInt_e@2
$LN88@LoadInt_e@2:
  0013e	c6 45 f0 ed	 mov	 BYTE PTR __k$[ebp+8], -19 ; ffffffedH
  00142	eb 2d		 jmp	 SHORT $LN1@LoadInt_e@2
$LN89@LoadInt_e@2:
  00144	c6 45 ef ea	 mov	 BYTE PTR __k$[ebp+7], -22 ; ffffffeaH
  00148	eb 27		 jmp	 SHORT $LN1@LoadInt_e@2
$LN90@LoadInt_e@2:
  0014a	c6 45 ee eb	 mov	 BYTE PTR __k$[ebp+6], -21 ; ffffffebH
  0014e	eb 21		 jmp	 SHORT $LN1@LoadInt_e@2
$LN91@LoadInt_e@2:
  00150	88 4d ed	 mov	 BYTE PTR __k$[ebp+5], cl
  00153	eb 1c		 jmp	 SHORT $LN1@LoadInt_e@2
$LN92@LoadInt_e@2:
  00155	c6 45 ec ed	 mov	 BYTE PTR __k$[ebp+4], -19 ; ffffffedH
  00159	eb 16		 jmp	 SHORT $LN1@LoadInt_e@2
$LN93@LoadInt_e@2:
  0015b	c6 45 eb ea	 mov	 BYTE PTR __k$[ebp+3], -22 ; ffffffeaH
  0015f	eb 10		 jmp	 SHORT $LN1@LoadInt_e@2
$LN94@LoadInt_e@2:
  00161	c6 45 ea eb	 mov	 BYTE PTR __k$[ebp+2], -21 ; ffffffebH
  00165	eb 0a		 jmp	 SHORT $LN1@LoadInt_e@2
$LN95@LoadInt_e@2:
  00167	c6 45 e9 ec	 mov	 BYTE PTR __k$[ebp+1], -20 ; ffffffecH
  0016b	eb 04		 jmp	 SHORT $LN1@LoadInt_e@2
$LN96@LoadInt_e@2:
  0016d	c6 45 e8 ed	 mov	 BYTE PTR __k$[ebp], -19	; ffffffedH
$LN1@LoadInt_e@2:
  00171	6a 03		 push	 3
  00173	8d 45 e8	 lea	 eax, DWORD PTR __k$[ebp]
  00176	c6 45 f4 00	 mov	 BYTE PTR __k$[ebp+12], 0
  0017a	5a		 pop	 edx
$LL104@LoadInt_e@2:
  0017b	81 30 ed ec eb
	ea		 xor	 DWORD PTR [eax], -353637139 ; eaebecedH
  00181	83 c0 04	 add	 eax, 4
  00184	4a		 dec	 edx
  00185	75 f4		 jne	 SHORT $LL104@LoadInt_e@2

; 120  : 		return LoadInt(_k, i);

  00187	ff 75 0c	 push	 DWORD PTR _i$[ebp]
  0018a	8d 45 e8	 lea	 eax, DWORD PTR __k$[ebp]
  0018d	50		 push	 eax
  0018e	8b ce		 mov	 ecx, esi
  00190	ff 15 00 00 00
	00		 call	 DWORD PTR __imp_?LoadInt@ioINILoader@@QAEHPBDH@Z

; 121  : 	}

  00196	8b 4d fc	 mov	 ecx, DWORD PTR __$ArrayPad$[ebp]
  00199	33 cd		 xor	 ecx, ebp
  0019b	5e		 pop	 esi
  0019c	e8 00 00 00 00	 call	 @__security_check_cookie@4
  001a1	c9		 leave
  001a2	c2 08 00	 ret	 8
??$LoadInt_e@$0N@@ioINILoader@@QAEHAAY0N@$$CBDH@Z ENDP	; ioINILoader::LoadInt_e<13>
_TEXT	ENDS
PUBLIC	__$ArrayPad$
PUBLIC	??$LoadBool_e@$0N@@ioINILoader@@QAE_NAAY0N@$$CBD_N@Z ; ioINILoader::LoadBool_e<13>
EXTRN	__imp_?LoadBool@ioINILoader@@QAE_NPBD_N@Z:PROC
; Function compile flags: /Ogsp
;	COMDAT ??$LoadBool_e@$0N@@ioINILoader@@QAE_NAAY0N@$$CBD_N@Z
_TEXT	SEGMENT
__k$ = -24						; size = 13
__$ArrayPad$ = -4					; size = 4
_k$ = 8							; size = 4
_b$ = 12						; size = 1
??$LoadBool_e@$0N@@ioINILoader@@QAE_NAAY0N@$$CBD_N@Z PROC ; ioINILoader::LoadBool_e<13>, COMDAT
; _this$ = ecx

; 101  : 	{

  00000	55		 push	 ebp
  00001	8b ec		 mov	 ebp, esp
  00003	83 ec 18	 sub	 esp, 24			; 00000018H
  00006	a1 00 00 00 00	 mov	 eax, DWORD PTR ___security_cookie
  0000b	33 c5		 xor	 eax, ebp
  0000d	89 45 fc	 mov	 DWORD PTR __$ArrayPad$[ebp], eax
  00010	8b 45 08	 mov	 eax, DWORD PTR _k$[ebp]

; 102  : 		_ENCSTR(k, _k);

  00013	8a 10		 mov	 dl, BYTE PTR [eax]
  00015	56		 push	 esi
  00016	8b f1		 mov	 esi, ecx
  00018	84 d2		 test	 dl, dl
  0001a	0f 84 4d 01 00
	00		 je	 $LN96@LoadBool_e
  00020	80 f2 ed	 xor	 dl, -19			; ffffffedH
  00023	88 55 e8	 mov	 BYTE PTR __k$[ebp], dl
  00026	8a 50 01	 mov	 dl, BYTE PTR [eax+1]
  00029	84 d2		 test	 dl, dl
  0002b	0f 84 36 01 00
	00		 je	 $LN95@LoadBool_e
  00031	b1 ec		 mov	 cl, -20			; ffffffecH
  00033	32 d1		 xor	 dl, cl
  00035	88 55 e9	 mov	 BYTE PTR __k$[ebp+1], dl
  00038	8a 50 02	 mov	 dl, BYTE PTR [eax+2]
  0003b	84 d2		 test	 dl, dl
  0003d	0f 84 1e 01 00
	00		 je	 $LN94@LoadBool_e
  00043	80 f2 eb	 xor	 dl, -21			; ffffffebH
  00046	88 55 ea	 mov	 BYTE PTR __k$[ebp+2], dl
  00049	8a 50 03	 mov	 dl, BYTE PTR [eax+3]
  0004c	84 d2		 test	 dl, dl
  0004e	0f 84 07 01 00
	00		 je	 $LN93@LoadBool_e
  00054	80 f2 ea	 xor	 dl, -22			; ffffffeaH
  00057	88 55 eb	 mov	 BYTE PTR __k$[ebp+3], dl
  0005a	8a 50 04	 mov	 dl, BYTE PTR [eax+4]
  0005d	84 d2		 test	 dl, dl
  0005f	0f 84 f0 00 00
	00		 je	 $LN92@LoadBool_e
  00065	80 f2 ed	 xor	 dl, -19			; ffffffedH
  00068	88 55 ec	 mov	 BYTE PTR __k$[ebp+4], dl
  0006b	8a 50 05	 mov	 dl, BYTE PTR [eax+5]
  0006e	84 d2		 test	 dl, dl
  00070	0f 84 da 00 00
	00		 je	 $LN91@LoadBool_e
  00076	32 d1		 xor	 dl, cl
  00078	88 55 ed	 mov	 BYTE PTR __k$[ebp+5], dl
  0007b	8a 50 06	 mov	 dl, BYTE PTR [eax+6]
  0007e	84 d2		 test	 dl, dl
  00080	0f 84 c4 00 00
	00		 je	 $LN90@LoadBool_e
  00086	80 f2 eb	 xor	 dl, -21			; ffffffebH
  00089	88 55 ee	 mov	 BYTE PTR __k$[ebp+6], dl
  0008c	8a 50 07	 mov	 dl, BYTE PTR [eax+7]
  0008f	84 d2		 test	 dl, dl
  00091	0f 84 ad 00 00
	00		 je	 $LN89@LoadBool_e
  00097	80 f2 ea	 xor	 dl, -22			; ffffffeaH
  0009a	88 55 ef	 mov	 BYTE PTR __k$[ebp+7], dl
  0009d	8a 50 08	 mov	 dl, BYTE PTR [eax+8]
  000a0	84 d2		 test	 dl, dl
  000a2	0f 84 96 00 00
	00		 je	 $LN88@LoadBool_e
  000a8	80 f2 ed	 xor	 dl, -19			; ffffffedH
  000ab	88 55 f0	 mov	 BYTE PTR __k$[ebp+8], dl
  000ae	8a 50 09	 mov	 dl, BYTE PTR [eax+9]
  000b1	84 d2		 test	 dl, dl
  000b3	0f 84 80 00 00
	00		 je	 $LN87@LoadBool_e
  000b9	32 d1		 xor	 dl, cl
  000bb	88 55 f1	 mov	 BYTE PTR __k$[ebp+9], dl
  000be	8a 50 0a	 mov	 dl, BYTE PTR [eax+10]
  000c1	84 d2		 test	 dl, dl
  000c3	74 6e		 je	 SHORT $LN86@LoadBool_e
  000c5	80 f2 eb	 xor	 dl, -21			; ffffffebH
  000c8	88 55 f2	 mov	 BYTE PTR __k$[ebp+10], dl
  000cb	8a 50 0b	 mov	 dl, BYTE PTR [eax+11]
  000ce	84 d2		 test	 dl, dl
  000d0	74 5b		 je	 SHORT $LN85@LoadBool_e
  000d2	80 f2 ea	 xor	 dl, -22			; ffffffeaH
  000d5	80 78 0c 00	 cmp	 BYTE PTR [eax+12], 0
  000d9	88 55 f3	 mov	 BYTE PTR __k$[ebp+11], dl
  000dc	0f 84 8f 00 00
	00		 je	 $LN1@LoadBool_e
  000e2	8a 50 0d	 mov	 dl, BYTE PTR [eax+13]
  000e5	84 d2		 test	 dl, dl
  000e7	74 3f		 je	 SHORT $LN83@LoadBool_e
  000e9	32 d1		 xor	 dl, cl
  000eb	88 55 f5	 mov	 BYTE PTR __k$[ebp+13], dl
  000ee	8a 50 0e	 mov	 dl, BYTE PTR [eax+14]
  000f1	84 d2		 test	 dl, dl
  000f3	74 2d		 je	 SHORT $LN82@LoadBool_e
  000f5	80 f2 eb	 xor	 dl, -21			; ffffffebH
  000f8	88 55 f6	 mov	 BYTE PTR __k$[ebp+14], dl
  000fb	8a 50 0f	 mov	 dl, BYTE PTR [eax+15]
  000fe	84 d2		 test	 dl, dl
  00100	74 1a		 je	 SHORT $LN81@LoadBool_e
  00102	8a 40 10	 mov	 al, BYTE PTR [eax+16]
  00105	80 f2 ea	 xor	 dl, -22			; ffffffeaH
  00108	88 55 f7	 mov	 BYTE PTR __k$[ebp+15], dl
  0010b	84 c0		 test	 al, al
  0010d	74 07		 je	 SHORT $LN80@LoadBool_e
  0010f	34 ed		 xor	 al, -19			; ffffffedH
  00111	88 45 f8	 mov	 BYTE PTR __k$[ebp+16], al
  00114	eb 5b		 jmp	 SHORT $LN1@LoadBool_e
$LN80@LoadBool_e:
  00116	c6 45 f8 ed	 mov	 BYTE PTR __k$[ebp+16], -19 ; ffffffedH
  0011a	eb 55		 jmp	 SHORT $LN1@LoadBool_e
$LN81@LoadBool_e:
  0011c	c6 45 f7 ea	 mov	 BYTE PTR __k$[ebp+15], -22 ; ffffffeaH
  00120	eb 4f		 jmp	 SHORT $LN1@LoadBool_e
$LN82@LoadBool_e:
  00122	c6 45 f6 eb	 mov	 BYTE PTR __k$[ebp+14], -21 ; ffffffebH
  00126	eb 49		 jmp	 SHORT $LN1@LoadBool_e
$LN83@LoadBool_e:
  00128	88 4d f5	 mov	 BYTE PTR __k$[ebp+13], cl
  0012b	eb 44		 jmp	 SHORT $LN1@LoadBool_e
$LN85@LoadBool_e:
  0012d	c6 45 f3 ea	 mov	 BYTE PTR __k$[ebp+11], -22 ; ffffffeaH
  00131	eb 3e		 jmp	 SHORT $LN1@LoadBool_e
$LN86@LoadBool_e:
  00133	c6 45 f2 eb	 mov	 BYTE PTR __k$[ebp+10], -21 ; ffffffebH
  00137	eb 38		 jmp	 SHORT $LN1@LoadBool_e
$LN87@LoadBool_e:
  00139	88 4d f1	 mov	 BYTE PTR __k$[ebp+9], cl
  0013c	eb 33		 jmp	 SHORT $LN1@LoadBool_e
$LN88@LoadBool_e:
  0013e	c6 45 f0 ed	 mov	 BYTE PTR __k$[ebp+8], -19 ; ffffffedH
  00142	eb 2d		 jmp	 SHORT $LN1@LoadBool_e
$LN89@LoadBool_e:
  00144	c6 45 ef ea	 mov	 BYTE PTR __k$[ebp+7], -22 ; ffffffeaH
  00148	eb 27		 jmp	 SHORT $LN1@LoadBool_e
$LN90@LoadBool_e:
  0014a	c6 45 ee eb	 mov	 BYTE PTR __k$[ebp+6], -21 ; ffffffebH
  0014e	eb 21		 jmp	 SHORT $LN1@LoadBool_e
$LN91@LoadBool_e:
  00150	88 4d ed	 mov	 BYTE PTR __k$[ebp+5], cl
  00153	eb 1c		 jmp	 SHORT $LN1@LoadBool_e
$LN92@LoadBool_e:
  00155	c6 45 ec ed	 mov	 BYTE PTR __k$[ebp+4], -19 ; ffffffedH
  00159	eb 16		 jmp	 SHORT $LN1@LoadBool_e
$LN93@LoadBool_e:
  0015b	c6 45 eb ea	 mov	 BYTE PTR __k$[ebp+3], -22 ; ffffffeaH
  0015f	eb 10		 jmp	 SHORT $LN1@LoadBool_e
$LN94@LoadBool_e:
  00161	c6 45 ea eb	 mov	 BYTE PTR __k$[ebp+2], -21 ; ffffffebH
  00165	eb 0a		 jmp	 SHORT $LN1@LoadBool_e
$LN95@LoadBool_e:
  00167	c6 45 e9 ec	 mov	 BYTE PTR __k$[ebp+1], -20 ; ffffffecH
  0016b	eb 04		 jmp	 SHORT $LN1@LoadBool_e
$LN96@LoadBool_e:
  0016d	c6 45 e8 ed	 mov	 BYTE PTR __k$[ebp], -19	; ffffffedH
$LN1@LoadBool_e:
  00171	6a 03		 push	 3
  00173	8d 45 e8	 lea	 eax, DWORD PTR __k$[ebp]
  00176	c6 45 f4 00	 mov	 BYTE PTR __k$[ebp+12], 0
  0017a	5a		 pop	 edx
$LL104@LoadBool_e:
  0017b	81 30 ed ec eb
	ea		 xor	 DWORD PTR [eax], -353637139 ; eaebecedH
  00181	83 c0 04	 add	 eax, 4
  00184	4a		 dec	 edx
  00185	75 f4		 jne	 SHORT $LL104@LoadBool_e

; 103  : 		return LoadBool(_k, b);

  00187	ff 75 0c	 push	 DWORD PTR _b$[ebp]
  0018a	8d 45 e8	 lea	 eax, DWORD PTR __k$[ebp]
  0018d	50		 push	 eax
  0018e	8b ce		 mov	 ecx, esi
  00190	ff 15 00 00 00
	00		 call	 DWORD PTR __imp_?LoadBool@ioINILoader@@QAE_NPBD_N@Z

; 104  : 	}

  00196	8b 4d fc	 mov	 ecx, DWORD PTR __$ArrayPad$[ebp]
  00199	33 cd		 xor	 ecx, ebp
  0019b	5e		 pop	 esi
  0019c	e8 00 00 00 00	 call	 @__security_check_cookie@4
  001a1	c9		 leave
  001a2	c2 08 00	 ret	 8
??$LoadBool_e@$0N@@ioINILoader@@QAE_NAAY0N@$$CBD_N@Z ENDP ; ioINILoader::LoadBool_e<13>
_TEXT	ENDS
PUBLIC	__$ArrayPad$
PUBLIC	??$LoadBool_e@$09@ioINILoader@@QAE_NAAY09$$CBD_N@Z ; ioINILoader::LoadBool_e<10>
; Function compile flags: /Ogsp
;	COMDAT ??$LoadBool_e@$09@ioINILoader@@QAE_NAAY09$$CBD_N@Z
_TEXT	SEGMENT
__k$ = -20						; size = 10
__$ArrayPad$ = -4					; size = 4
_k$ = 8							; size = 4
_b$ = 12						; size = 1
??$LoadBool_e@$09@ioINILoader@@QAE_NAAY09$$CBD_N@Z PROC	; ioINILoader::LoadBool_e<10>, COMDAT
; _this$ = ecx

; 101  : 	{

  00000	55		 push	 ebp
  00001	8b ec		 mov	 ebp, esp
  00003	83 ec 14	 sub	 esp, 20			; 00000014H
  00006	a1 00 00 00 00	 mov	 eax, DWORD PTR ___security_cookie
  0000b	33 c5		 xor	 eax, ebp
  0000d	89 45 fc	 mov	 DWORD PTR __$ArrayPad$[ebp], eax
  00010	8b 45 08	 mov	 eax, DWORD PTR _k$[ebp]

; 102  : 		_ENCSTR(k, _k);

  00013	8a 10		 mov	 dl, BYTE PTR [eax]
  00015	84 d2		 test	 dl, dl
  00017	0f 84 0d 01 00
	00		 je	 $LN96@LoadBool_e@2
  0001d	80 f2 ed	 xor	 dl, -19			; ffffffedH
  00020	88 55 ec	 mov	 BYTE PTR __k$[ebp], dl
  00023	8a 50 01	 mov	 dl, BYTE PTR [eax+1]
  00026	84 d2		 test	 dl, dl
  00028	0f 84 f6 00 00
	00		 je	 $LN95@LoadBool_e@2
  0002e	80 f2 ec	 xor	 dl, -20			; ffffffecH
  00031	88 55 ed	 mov	 BYTE PTR __k$[ebp+1], dl
  00034	8a 50 02	 mov	 dl, BYTE PTR [eax+2]
  00037	84 d2		 test	 dl, dl
  00039	0f 84 df 00 00
	00		 je	 $LN94@LoadBool_e@2
  0003f	80 f2 eb	 xor	 dl, -21			; ffffffebH
  00042	88 55 ee	 mov	 BYTE PTR __k$[ebp+2], dl
  00045	8a 50 03	 mov	 dl, BYTE PTR [eax+3]
  00048	84 d2		 test	 dl, dl
  0004a	0f 84 c8 00 00
	00		 je	 $LN93@LoadBool_e@2
  00050	80 f2 ea	 xor	 dl, -22			; ffffffeaH
  00053	88 55 ef	 mov	 BYTE PTR __k$[ebp+3], dl
  00056	8a 50 04	 mov	 dl, BYTE PTR [eax+4]
  00059	84 d2		 test	 dl, dl
  0005b	0f 84 b1 00 00
	00		 je	 $LN92@LoadBool_e@2
  00061	80 f2 ed	 xor	 dl, -19			; ffffffedH
  00064	88 55 f0	 mov	 BYTE PTR __k$[ebp+4], dl
  00067	8a 50 05	 mov	 dl, BYTE PTR [eax+5]
  0006a	84 d2		 test	 dl, dl
  0006c	0f 84 9a 00 00
	00		 je	 $LN91@LoadBool_e@2
  00072	80 f2 ec	 xor	 dl, -20			; ffffffecH
  00075	88 55 f1	 mov	 BYTE PTR __k$[ebp+5], dl
  00078	8a 50 06	 mov	 dl, BYTE PTR [eax+6]
  0007b	84 d2		 test	 dl, dl
  0007d	0f 84 83 00 00
	00		 je	 $LN90@LoadBool_e@2
  00083	80 f2 eb	 xor	 dl, -21			; ffffffebH
  00086	88 55 f2	 mov	 BYTE PTR __k$[ebp+6], dl
  00089	8a 50 07	 mov	 dl, BYTE PTR [eax+7]
  0008c	84 d2		 test	 dl, dl
  0008e	74 70		 je	 SHORT $LN89@LoadBool_e@2
  00090	80 f2 ea	 xor	 dl, -22			; ffffffeaH
  00093	88 55 f3	 mov	 BYTE PTR __k$[ebp+7], dl
  00096	8a 50 08	 mov	 dl, BYTE PTR [eax+8]
  00099	84 d2		 test	 dl, dl
  0009b	74 5d		 je	 SHORT $LN88@LoadBool_e@2
  0009d	80 f2 ed	 xor	 dl, -19			; ffffffedH
  000a0	80 78 09 00	 cmp	 BYTE PTR [eax+9], 0
  000a4	88 55 f4	 mov	 BYTE PTR __k$[ebp+8], dl
  000a7	0f 84 81 00 00
	00		 je	 $LN1@LoadBool_e@2
  000ad	8a 50 0a	 mov	 dl, BYTE PTR [eax+10]
  000b0	84 d2		 test	 dl, dl
  000b2	74 40		 je	 SHORT $LN86@LoadBool_e@2
  000b4	80 f2 eb	 xor	 dl, -21			; ffffffebH
  000b7	88 55 f6	 mov	 BYTE PTR __k$[ebp+10], dl
  000ba	8a 50 0b	 mov	 dl, BYTE PTR [eax+11]
  000bd	84 d2		 test	 dl, dl
  000bf	74 2d		 je	 SHORT $LN85@LoadBool_e@2
  000c1	80 f2 ea	 xor	 dl, -22			; ffffffeaH
  000c4	88 55 f7	 mov	 BYTE PTR __k$[ebp+11], dl
  000c7	8a 50 0c	 mov	 dl, BYTE PTR [eax+12]
  000ca	84 d2		 test	 dl, dl
  000cc	74 1a		 je	 SHORT $LN84@LoadBool_e@2
  000ce	8a 40 0d	 mov	 al, BYTE PTR [eax+13]
  000d1	80 f2 ed	 xor	 dl, -19			; ffffffedH
  000d4	88 55 f8	 mov	 BYTE PTR __k$[ebp+12], dl
  000d7	84 c0		 test	 al, al
  000d9	74 07		 je	 SHORT $LN83@LoadBool_e@2
  000db	34 ec		 xor	 al, -20			; ffffffecH
  000dd	88 45 f9	 mov	 BYTE PTR __k$[ebp+13], al
  000e0	eb 4c		 jmp	 SHORT $LN1@LoadBool_e@2
$LN83@LoadBool_e@2:
  000e2	c6 45 f9 ec	 mov	 BYTE PTR __k$[ebp+13], -20 ; ffffffecH
  000e6	eb 46		 jmp	 SHORT $LN1@LoadBool_e@2
$LN84@LoadBool_e@2:
  000e8	c6 45 f8 ed	 mov	 BYTE PTR __k$[ebp+12], -19 ; ffffffedH
  000ec	eb 40		 jmp	 SHORT $LN1@LoadBool_e@2
$LN85@LoadBool_e@2:
  000ee	c6 45 f7 ea	 mov	 BYTE PTR __k$[ebp+11], -22 ; ffffffeaH
  000f2	eb 3a		 jmp	 SHORT $LN1@LoadBool_e@2
$LN86@LoadBool_e@2:
  000f4	c6 45 f6 eb	 mov	 BYTE PTR __k$[ebp+10], -21 ; ffffffebH
  000f8	eb 34		 jmp	 SHORT $LN1@LoadBool_e@2
$LN88@LoadBool_e@2:
  000fa	c6 45 f4 ed	 mov	 BYTE PTR __k$[ebp+8], -19 ; ffffffedH
  000fe	eb 2e		 jmp	 SHORT $LN1@LoadBool_e@2
$LN89@LoadBool_e@2:
  00100	c6 45 f3 ea	 mov	 BYTE PTR __k$[ebp+7], -22 ; ffffffeaH
  00104	eb 28		 jmp	 SHORT $LN1@LoadBool_e@2
$LN90@LoadBool_e@2:
  00106	c6 45 f2 eb	 mov	 BYTE PTR __k$[ebp+6], -21 ; ffffffebH
  0010a	eb 22		 jmp	 SHORT $LN1@LoadBool_e@2
$LN91@LoadBool_e@2:
  0010c	c6 45 f1 ec	 mov	 BYTE PTR __k$[ebp+5], -20 ; ffffffecH
  00110	eb 1c		 jmp	 SHORT $LN1@LoadBool_e@2
$LN92@LoadBool_e@2:
  00112	c6 45 f0 ed	 mov	 BYTE PTR __k$[ebp+4], -19 ; ffffffedH
  00116	eb 16		 jmp	 SHORT $LN1@LoadBool_e@2
$LN93@LoadBool_e@2:
  00118	c6 45 ef ea	 mov	 BYTE PTR __k$[ebp+3], -22 ; ffffffeaH
  0011c	eb 10		 jmp	 SHORT $LN1@LoadBool_e@2
$LN94@LoadBool_e@2:
  0011e	c6 45 ee eb	 mov	 BYTE PTR __k$[ebp+2], -21 ; ffffffebH
  00122	eb 0a		 jmp	 SHORT $LN1@LoadBool_e@2
$LN95@LoadBool_e@2:
  00124	c6 45 ed ec	 mov	 BYTE PTR __k$[ebp+1], -20 ; ffffffecH
  00128	eb 04		 jmp	 SHORT $LN1@LoadBool_e@2
$LN96@LoadBool_e@2:
  0012a	c6 45 ec ed	 mov	 BYTE PTR __k$[ebp], -19	; ffffffedH
$LN1@LoadBool_e@2:
  0012e	6a 02		 push	 2
  00130	8d 45 ec	 lea	 eax, DWORD PTR __k$[ebp]
  00133	c6 45 f5 00	 mov	 BYTE PTR __k$[ebp+9], 0
  00137	5a		 pop	 edx
$LL104@LoadBool_e@2:
  00138	81 30 ed ec eb
	ea		 xor	 DWORD PTR [eax], -353637139 ; eaebecedH
  0013e	83 c0 04	 add	 eax, 4
  00141	4a		 dec	 edx
  00142	75 f4		 jne	 SHORT $LL104@LoadBool_e@2

; 103  : 		return LoadBool(_k, b);

  00144	ff 75 0c	 push	 DWORD PTR _b$[ebp]
  00147	80 75 f4 ed	 xor	 BYTE PTR __k$[ebp+8], -19 ; ffffffedH
  0014b	8d 45 ec	 lea	 eax, DWORD PTR __k$[ebp]
  0014e	50		 push	 eax
  0014f	ff 15 00 00 00
	00		 call	 DWORD PTR __imp_?LoadBool@ioINILoader@@QAE_NPBD_N@Z

; 104  : 	}

  00155	8b 4d fc	 mov	 ecx, DWORD PTR __$ArrayPad$[ebp]
  00158	33 cd		 xor	 ecx, ebp
  0015a	e8 00 00 00 00	 call	 @__security_check_cookie@4
  0015f	c9		 leave
  00160	c2 08 00	 ret	 8
??$LoadBool_e@$09@ioINILoader@@QAE_NAAY09$$CBD_N@Z ENDP	; ioINILoader::LoadBool_e<10>
_TEXT	ENDS
PUBLIC	??$GetAnimationEventTime_e@$0N@@ioEntityGroup@@QAEMHAAY0N@$$CBD@Z ; ioEntityGroup::GetAnimationEventTime_e<13>
EXTRN	__imp_??1ioHashString@@QAE@XZ:PROC
EXTRN	__imp_?GetAnimationEventTime@ioEntityGroup@@QAEMHABVioHashString@@@Z:PROC
EXTRN	__imp_??0ioHashString@@QAE@PBD@Z:PROC
EXTRN	___CxxFrameHandler3:PROC
EXTRN	__EH_epilog3_GS:PROC
EXTRN	__EH_prolog3_GS:PROC
;	COMDAT xdata$x
; File d:\lost saga for developer\youtube\tutorial\source\src\lsclient\stringprotect.h
xdata$x	SEGMENT
__unwindtable$??$GetAnimationEventTime_e@$0N@@ioEntityGroup@@QAEMHAAY0N@$$CBD@Z DD 0ffffffffH
	DD	FLAT:__unwindfunclet$??$GetAnimationEventTime_e@$0N@@ioEntityGroup@@QAEMHAAY0N@$$CBD@Z$0
__ehfuncinfo$??$GetAnimationEventTime_e@$0N@@ioEntityGroup@@QAEMHAAY0N@$$CBD@Z DD 019930522H
	DD	01H
	DD	FLAT:__unwindtable$??$GetAnimationEventTime_e@$0N@@ioEntityGroup@@QAEMHAAY0N@$$CBD@Z
	DD	2 DUP(00H)
	DD	2 DUP(00H)
	DD	00H
	DD	01H
; Function compile flags: /Ogsp
; File d:\lost saga for developer\youtube\tutorial\source\src\io3dengine\ioentitygroup.h
xdata$x	ENDS
;	COMDAT ??$GetAnimationEventTime_e@$0N@@ioEntityGroup@@QAEMHAAY0N@$$CBD@Z
_TEXT	SEGMENT
$T545644 = -56						; size = 16
$T545643 = -40						; size = 4
_szEncEventType$ = -36					; size = 13
__$EHRec$ = -12						; size = 12
_id$ = 8						; size = 4
_szEventType$ = 12					; size = 4
??$GetAnimationEventTime_e@$0N@@ioEntityGroup@@QAEMHAAY0N@$$CBD@Z PROC ; ioEntityGroup::GetAnimationEventTime_e<13>, COMDAT
; _this$ = ecx

; 414  : 	{

  00000	6a 2c		 push	 44			; 0000002cH
  00002	b8 00 00 00 00	 mov	 eax, __ehhandler$??$GetAnimationEventTime_e@$0N@@ioEntityGroup@@QAEMHAAY0N@$$CBD@Z
  00007	e8 00 00 00 00	 call	 __EH_prolog3_GS
  0000c	8b 45 0c	 mov	 eax, DWORD PTR _szEventType$[ebp]
  0000f	8b f1		 mov	 esi, ecx

; 415  : 		_ENCSTR(szEventType, szEncEventType);

  00011	8a 08		 mov	 cl, BYTE PTR [eax]
  00013	84 c9		 test	 cl, cl
  00015	0f 84 49 01 00
	00		 je	 $LN96@GetAnimati
  0001b	80 f1 ed	 xor	 cl, -19			; ffffffedH
  0001e	88 4d dc	 mov	 BYTE PTR _szEncEventType$[ebp], cl
  00021	8a 48 01	 mov	 cl, BYTE PTR [eax+1]
  00024	84 c9		 test	 cl, cl
  00026	0f 84 32 01 00
	00		 je	 $LN95@GetAnimati
  0002c	80 f1 ec	 xor	 cl, -20			; ffffffecH
  0002f	88 4d dd	 mov	 BYTE PTR _szEncEventType$[ebp+1], cl
  00032	8a 48 02	 mov	 cl, BYTE PTR [eax+2]
  00035	84 c9		 test	 cl, cl
  00037	0f 84 1b 01 00
	00		 je	 $LN94@GetAnimati
  0003d	b2 eb		 mov	 dl, -21			; ffffffebH
  0003f	32 ca		 xor	 cl, dl
  00041	88 4d de	 mov	 BYTE PTR _szEncEventType$[ebp+2], cl
  00044	8a 48 03	 mov	 cl, BYTE PTR [eax+3]
  00047	84 c9		 test	 cl, cl
  00049	0f 84 03 01 00
	00		 je	 $LN93@GetAnimati
  0004f	80 f1 ea	 xor	 cl, -22			; ffffffeaH
  00052	88 4d df	 mov	 BYTE PTR _szEncEventType$[ebp+3], cl
  00055	8a 48 04	 mov	 cl, BYTE PTR [eax+4]
  00058	84 c9		 test	 cl, cl
  0005a	0f 84 ec 00 00
	00		 je	 $LN92@GetAnimati
  00060	80 f1 ed	 xor	 cl, -19			; ffffffedH
  00063	88 4d e0	 mov	 BYTE PTR _szEncEventType$[ebp+4], cl
  00066	8a 48 05	 mov	 cl, BYTE PTR [eax+5]
  00069	84 c9		 test	 cl, cl
  0006b	0f 84 d5 00 00
	00		 je	 $LN91@GetAnimati
  00071	80 f1 ec	 xor	 cl, -20			; ffffffecH
  00074	88 4d e1	 mov	 BYTE PTR _szEncEventType$[ebp+5], cl
  00077	8a 48 06	 mov	 cl, BYTE PTR [eax+6]
  0007a	84 c9		 test	 cl, cl
  0007c	0f 84 bf 00 00
	00		 je	 $LN90@GetAnimati
  00082	32 ca		 xor	 cl, dl
  00084	88 4d e2	 mov	 BYTE PTR _szEncEventType$[ebp+6], cl
  00087	8a 48 07	 mov	 cl, BYTE PTR [eax+7]
  0008a	84 c9		 test	 cl, cl
  0008c	0f 84 a9 00 00
	00		 je	 $LN89@GetAnimati
  00092	80 f1 ea	 xor	 cl, -22			; ffffffeaH
  00095	88 4d e3	 mov	 BYTE PTR _szEncEventType$[ebp+7], cl
  00098	8a 48 08	 mov	 cl, BYTE PTR [eax+8]
  0009b	84 c9		 test	 cl, cl
  0009d	0f 84 92 00 00
	00		 je	 $LN88@GetAnimati
  000a3	80 f1 ed	 xor	 cl, -19			; ffffffedH
  000a6	88 4d e4	 mov	 BYTE PTR _szEncEventType$[ebp+8], cl
  000a9	8a 48 09	 mov	 cl, BYTE PTR [eax+9]
  000ac	84 c9		 test	 cl, cl
  000ae	74 7f		 je	 SHORT $LN87@GetAnimati
  000b0	80 f1 ec	 xor	 cl, -20			; ffffffecH
  000b3	88 4d e5	 mov	 BYTE PTR _szEncEventType$[ebp+9], cl
  000b6	8a 48 0a	 mov	 cl, BYTE PTR [eax+10]
  000b9	84 c9		 test	 cl, cl
  000bb	74 6d		 je	 SHORT $LN86@GetAnimati
  000bd	32 ca		 xor	 cl, dl
  000bf	88 4d e6	 mov	 BYTE PTR _szEncEventType$[ebp+10], cl
  000c2	8a 48 0b	 mov	 cl, BYTE PTR [eax+11]
  000c5	84 c9		 test	 cl, cl
  000c7	74 5b		 je	 SHORT $LN85@GetAnimati
  000c9	80 f1 ea	 xor	 cl, -22			; ffffffeaH
  000cc	80 78 0c 00	 cmp	 BYTE PTR [eax+12], 0
  000d0	88 4d e7	 mov	 BYTE PTR _szEncEventType$[ebp+11], cl
  000d3	0f 84 8f 00 00
	00		 je	 $LN1@GetAnimati
  000d9	8a 48 0d	 mov	 cl, BYTE PTR [eax+13]
  000dc	84 c9		 test	 cl, cl
  000de	74 3e		 je	 SHORT $LN83@GetAnimati
  000e0	80 f1 ec	 xor	 cl, -20			; ffffffecH
  000e3	88 4d e9	 mov	 BYTE PTR _szEncEventType$[ebp+13], cl
  000e6	8a 48 0e	 mov	 cl, BYTE PTR [eax+14]
  000e9	84 c9		 test	 cl, cl
  000eb	74 2c		 je	 SHORT $LN82@GetAnimati
  000ed	32 ca		 xor	 cl, dl
  000ef	88 4d ea	 mov	 BYTE PTR _szEncEventType$[ebp+14], cl
  000f2	8a 48 0f	 mov	 cl, BYTE PTR [eax+15]
  000f5	84 c9		 test	 cl, cl
  000f7	74 1a		 je	 SHORT $LN81@GetAnimati
  000f9	8a 40 10	 mov	 al, BYTE PTR [eax+16]
  000fc	80 f1 ea	 xor	 cl, -22			; ffffffeaH
  000ff	88 4d eb	 mov	 BYTE PTR _szEncEventType$[ebp+15], cl
  00102	84 c0		 test	 al, al
  00104	74 07		 je	 SHORT $LN80@GetAnimati
  00106	34 ed		 xor	 al, -19			; ffffffedH
  00108	88 45 ec	 mov	 BYTE PTR _szEncEventType$[ebp+16], al
  0010b	eb 5b		 jmp	 SHORT $LN1@GetAnimati
$LN80@GetAnimati:
  0010d	c6 45 ec ed	 mov	 BYTE PTR _szEncEventType$[ebp+16], -19 ; ffffffedH
  00111	eb 55		 jmp	 SHORT $LN1@GetAnimati
$LN81@GetAnimati:
  00113	c6 45 eb ea	 mov	 BYTE PTR _szEncEventType$[ebp+15], -22 ; ffffffeaH
  00117	eb 4f		 jmp	 SHORT $LN1@GetAnimati
$LN82@GetAnimati:
  00119	88 55 ea	 mov	 BYTE PTR _szEncEventType$[ebp+14], dl
  0011c	eb 4a		 jmp	 SHORT $LN1@GetAnimati
$LN83@GetAnimati:
  0011e	c6 45 e9 ec	 mov	 BYTE PTR _szEncEventType$[ebp+13], -20 ; ffffffecH
  00122	eb 44		 jmp	 SHORT $LN1@GetAnimati
$LN85@GetAnimati:
  00124	c6 45 e7 ea	 mov	 BYTE PTR _szEncEventType$[ebp+11], -22 ; ffffffeaH
  00128	eb 3e		 jmp	 SHORT $LN1@GetAnimati
$LN86@GetAnimati:
  0012a	88 55 e6	 mov	 BYTE PTR _szEncEventType$[ebp+10], dl
  0012d	eb 39		 jmp	 SHORT $LN1@GetAnimati
$LN87@GetAnimati:
  0012f	c6 45 e5 ec	 mov	 BYTE PTR _szEncEventType$[ebp+9], -20 ; ffffffecH
  00133	eb 33		 jmp	 SHORT $LN1@GetAnimati
$LN88@GetAnimati:
  00135	c6 45 e4 ed	 mov	 BYTE PTR _szEncEventType$[ebp+8], -19 ; ffffffedH
  00139	eb 2d		 jmp	 SHORT $LN1@GetAnimati
$LN89@GetAnimati:
  0013b	c6 45 e3 ea	 mov	 BYTE PTR _szEncEventType$[ebp+7], -22 ; ffffffeaH
  0013f	eb 27		 jmp	 SHORT $LN1@GetAnimati
$LN90@GetAnimati:
  00141	88 55 e2	 mov	 BYTE PTR _szEncEventType$[ebp+6], dl
  00144	eb 22		 jmp	 SHORT $LN1@GetAnimati
$LN91@GetAnimati:
  00146	c6 45 e1 ec	 mov	 BYTE PTR _szEncEventType$[ebp+5], -20 ; ffffffecH
  0014a	eb 1c		 jmp	 SHORT $LN1@GetAnimati
$LN92@GetAnimati:
  0014c	c6 45 e0 ed	 mov	 BYTE PTR _szEncEventType$[ebp+4], -19 ; ffffffedH
  00150	eb 16		 jmp	 SHORT $LN1@GetAnimati
$LN93@GetAnimati:
  00152	c6 45 df ea	 mov	 BYTE PTR _szEncEventType$[ebp+3], -22 ; ffffffeaH
  00156	eb 10		 jmp	 SHORT $LN1@GetAnimati
$LN94@GetAnimati:
  00158	c6 45 de eb	 mov	 BYTE PTR _szEncEventType$[ebp+2], -21 ; ffffffebH
  0015c	eb 0a		 jmp	 SHORT $LN1@GetAnimati
$LN95@GetAnimati:
  0015e	c6 45 dd ec	 mov	 BYTE PTR _szEncEventType$[ebp+1], -20 ; ffffffecH
  00162	eb 04		 jmp	 SHORT $LN1@GetAnimati
$LN96@GetAnimati:
  00164	c6 45 dc ed	 mov	 BYTE PTR _szEncEventType$[ebp], -19 ; ffffffedH
$LN1@GetAnimati:
  00168	6a 03		 push	 3
  0016a	8d 45 dc	 lea	 eax, DWORD PTR _szEncEventType$[ebp]
  0016d	c6 45 e8 00	 mov	 BYTE PTR _szEncEventType$[ebp+12], 0
  00171	59		 pop	 ecx
$LL105@GetAnimati:
  00172	81 30 ed ec eb
	ea		 xor	 DWORD PTR [eax], -353637139 ; eaebecedH
  00178	83 c0 04	 add	 eax, 4
  0017b	49		 dec	 ecx
  0017c	75 f4		 jne	 SHORT $LL105@GetAnimati

; 416  : 		return GetAnimationEventTime(id, szEncEventType);

  0017e	8d 45 dc	 lea	 eax, DWORD PTR _szEncEventType$[ebp]
  00181	50		 push	 eax
  00182	8d 4d c8	 lea	 ecx, DWORD PTR $T545644[ebp]
  00185	ff 15 00 00 00
	00		 call	 DWORD PTR __imp_??0ioHashString@@QAE@PBD@Z
  0018b	83 65 fc 00	 and	 DWORD PTR __$EHRec$[ebp+8], 0
  0018f	8d 45 c8	 lea	 eax, DWORD PTR $T545644[ebp]
  00192	50		 push	 eax
  00193	ff 75 08	 push	 DWORD PTR _id$[ebp]
  00196	8b ce		 mov	 ecx, esi
  00198	ff 15 00 00 00
	00		 call	 DWORD PTR __imp_?GetAnimationEventTime@ioEntityGroup@@QAEMHABVioHashString@@@Z
  0019e	d9 5d d8	 fstp	 DWORD PTR $T545643[ebp]
  001a1	83 4d fc ff	 or	 DWORD PTR __$EHRec$[ebp+8], -1
  001a5	8d 4d c8	 lea	 ecx, DWORD PTR $T545644[ebp]
  001a8	ff 15 00 00 00
	00		 call	 DWORD PTR __imp_??1ioHashString@@QAE@XZ
  001ae	d9 45 d8	 fld	 DWORD PTR $T545643[ebp]

; 417  : 	}

  001b1	e8 00 00 00 00	 call	 __EH_epilog3_GS
  001b6	c2 08 00	 ret	 8
_TEXT	ENDS
;	COMDAT text$x
text$x	SEGMENT
__unwindfunclet$??$GetAnimationEventTime_e@$0N@@ioEntityGroup@@QAEMHAAY0N@$$CBD@Z$0:
  00000	8d 4d c8	 lea	 ecx, DWORD PTR $T545644[ebp]
  00003	ff 25 00 00 00
	00		 jmp	 DWORD PTR __imp_??1ioHashString@@QAE@XZ
__ehhandler$??$GetAnimationEventTime_e@$0N@@ioEntityGroup@@QAEMHAAY0N@$$CBD@Z:
  00009	8b 54 24 08	 mov	 edx, DWORD PTR [esp+8]
  0000d	8d 42 0c	 lea	 eax, DWORD PTR [edx+12]
  00010	8b 4a c4	 mov	 ecx, DWORD PTR [edx-60]
  00013	33 c8		 xor	 ecx, eax
  00015	e8 00 00 00 00	 call	 @__security_check_cookie@4
  0001a	8b 4a fc	 mov	 ecx, DWORD PTR [edx-4]
  0001d	33 c8		 xor	 ecx, eax
  0001f	e8 00 00 00 00	 call	 @__security_check_cookie@4
  00024	b8 00 00 00 00	 mov	 eax, OFFSET __ehfuncinfo$??$GetAnimationEventTime_e@$0N@@ioEntityGroup@@QAEMHAAY0N@$$CBD@Z
  00029	e9 00 00 00 00	 jmp	 ___CxxFrameHandler3
text$x	ENDS
??$GetAnimationEventTime_e@$0N@@ioEntityGroup@@QAEMHAAY0N@$$CBD@Z ENDP ; ioEntityGroup::GetAnimationEventTime_e<13>
PUBLIC	??$GetAnimationEventTime_e@$0M@@ioEntityGroup@@QAEMHAAY0M@$$CBD@Z ; ioEntityGroup::GetAnimationEventTime_e<12>
;	COMDAT xdata$x
; File d:\lost saga for developer\youtube\tutorial\source\src\lsclient\stringprotect.h
xdata$x	SEGMENT
__unwindtable$??$GetAnimationEventTime_e@$0M@@ioEntityGroup@@QAEMHAAY0M@$$CBD@Z DD 0ffffffffH
	DD	FLAT:__unwindfunclet$??$GetAnimationEventTime_e@$0M@@ioEntityGroup@@QAEMHAAY0M@$$CBD@Z$0
__ehfuncinfo$??$GetAnimationEventTime_e@$0M@@ioEntityGroup@@QAEMHAAY0M@$$CBD@Z DD 019930522H
	DD	01H
	DD	FLAT:__unwindtable$??$GetAnimationEventTime_e@$0M@@ioEntityGroup@@QAEMHAAY0M@$$CBD@Z
	DD	2 DUP(00H)
	DD	2 DUP(00H)
	DD	00H
	DD	01H
; Function compile flags: /Ogsp
; File d:\lost saga for developer\youtube\tutorial\source\src\io3dengine\ioentitygroup.h
xdata$x	ENDS
;	COMDAT ??$GetAnimationEventTime_e@$0M@@ioEntityGroup@@QAEMHAAY0M@$$CBD@Z
_TEXT	SEGMENT
$T545679 = -52						; size = 16
$T545678 = -36						; size = 4
_szEncEventType$ = -32					; size = 12
__$EHRec$ = -12						; size = 12
_id$ = 8						; size = 4
_szEventType$ = 12					; size = 4
??$GetAnimationEventTime_e@$0M@@ioEntityGroup@@QAEMHAAY0M@$$CBD@Z PROC ; ioEntityGroup::GetAnimationEventTime_e<12>, COMDAT
; _this$ = ecx

; 414  : 	{

  00000	6a 28		 push	 40			; 00000028H
  00002	b8 00 00 00 00	 mov	 eax, __ehhandler$??$GetAnimationEventTime_e@$0M@@ioEntityGroup@@QAEMHAAY0M@$$CBD@Z
  00007	e8 00 00 00 00	 call	 __EH_prolog3_GS
  0000c	8b 45 0c	 mov	 eax, DWORD PTR _szEventType$[ebp]
  0000f	8b f1		 mov	 esi, ecx

; 415  : 		_ENCSTR(szEventType, szEncEventType);

  00011	8a 08		 mov	 cl, BYTE PTR [eax]
  00013	84 c9		 test	 cl, cl
  00015	0f 84 36 01 00
	00		 je	 $LN96@GetAnimati@2
  0001b	b2 ed		 mov	 dl, -19			; ffffffedH
  0001d	32 ca		 xor	 cl, dl
  0001f	88 4d e0	 mov	 BYTE PTR _szEncEventType$[ebp], cl
  00022	8a 48 01	 mov	 cl, BYTE PTR [eax+1]
  00025	84 c9		 test	 cl, cl
  00027	0f 84 1e 01 00
	00		 je	 $LN95@GetAnimati@2
  0002d	80 f1 ec	 xor	 cl, -20			; ffffffecH
  00030	88 4d e1	 mov	 BYTE PTR _szEncEventType$[ebp+1], cl
  00033	8a 48 02	 mov	 cl, BYTE PTR [eax+2]
  00036	84 c9		 test	 cl, cl
  00038	0f 84 07 01 00
	00		 je	 $LN94@GetAnimati@2
  0003e	80 f1 eb	 xor	 cl, -21			; ffffffebH
  00041	88 4d e2	 mov	 BYTE PTR _szEncEventType$[ebp+2], cl
  00044	8a 48 03	 mov	 cl, BYTE PTR [eax+3]
  00047	84 c9		 test	 cl, cl
  00049	0f 84 f0 00 00
	00		 je	 $LN93@GetAnimati@2
  0004f	80 f1 ea	 xor	 cl, -22			; ffffffeaH
  00052	88 4d e3	 mov	 BYTE PTR _szEncEventType$[ebp+3], cl
  00055	8a 48 04	 mov	 cl, BYTE PTR [eax+4]
  00058	84 c9		 test	 cl, cl
  0005a	0f 84 da 00 00
	00		 je	 $LN92@GetAnimati@2
  00060	32 ca		 xor	 cl, dl
  00062	88 4d e4	 mov	 BYTE PTR _szEncEventType$[ebp+4], cl
  00065	8a 48 05	 mov	 cl, BYTE PTR [eax+5]
  00068	84 c9		 test	 cl, cl
  0006a	0f 84 c4 00 00
	00		 je	 $LN91@GetAnimati@2
  00070	80 f1 ec	 xor	 cl, -20			; ffffffecH
  00073	88 4d e5	 mov	 BYTE PTR _szEncEventType$[ebp+5], cl
  00076	8a 48 06	 mov	 cl, BYTE PTR [eax+6]
  00079	84 c9		 test	 cl, cl
  0007b	0f 84 ad 00 00
	00		 je	 $LN90@GetAnimati@2
  00081	80 f1 eb	 xor	 cl, -21			; ffffffebH
  00084	88 4d e6	 mov	 BYTE PTR _szEncEventType$[ebp+6], cl
  00087	8a 48 07	 mov	 cl, BYTE PTR [eax+7]
  0008a	84 c9		 test	 cl, cl
  0008c	0f 84 96 00 00
	00		 je	 $LN89@GetAnimati@2
  00092	80 f1 ea	 xor	 cl, -22			; ffffffeaH
  00095	88 4d e7	 mov	 BYTE PTR _szEncEventType$[ebp+7], cl
  00098	8a 48 08	 mov	 cl, BYTE PTR [eax+8]
  0009b	84 c9		 test	 cl, cl
  0009d	0f 84 80 00 00
	00		 je	 $LN88@GetAnimati@2
  000a3	32 ca		 xor	 cl, dl
  000a5	88 4d e8	 mov	 BYTE PTR _szEncEventType$[ebp+8], cl
  000a8	8a 48 09	 mov	 cl, BYTE PTR [eax+9]
  000ab	84 c9		 test	 cl, cl
  000ad	74 6e		 je	 SHORT $LN87@GetAnimati@2
  000af	80 f1 ec	 xor	 cl, -20			; ffffffecH
  000b2	88 4d e9	 mov	 BYTE PTR _szEncEventType$[ebp+9], cl
  000b5	8a 48 0a	 mov	 cl, BYTE PTR [eax+10]
  000b8	84 c9		 test	 cl, cl
  000ba	74 5b		 je	 SHORT $LN86@GetAnimati@2
  000bc	80 f1 eb	 xor	 cl, -21			; ffffffebH
  000bf	80 78 0b 00	 cmp	 BYTE PTR [eax+11], 0
  000c3	88 4d ea	 mov	 BYTE PTR _szEncEventType$[ebp+10], cl
  000c6	0f 84 89 00 00
	00		 je	 $LN1@GetAnimati@2
  000cc	8a 48 0c	 mov	 cl, BYTE PTR [eax+12]
  000cf	84 c9		 test	 cl, cl
  000d1	74 3f		 je	 SHORT $LN84@GetAnimati@2
  000d3	32 ca		 xor	 cl, dl
  000d5	88 4d ec	 mov	 BYTE PTR _szEncEventType$[ebp+12], cl
  000d8	8a 48 0d	 mov	 cl, BYTE PTR [eax+13]
  000db	84 c9		 test	 cl, cl
  000dd	74 2d		 je	 SHORT $LN83@GetAnimati@2
  000df	80 f1 ec	 xor	 cl, -20			; ffffffecH
  000e2	88 4d ed	 mov	 BYTE PTR _szEncEventType$[ebp+13], cl
  000e5	8a 48 0e	 mov	 cl, BYTE PTR [eax+14]
  000e8	84 c9		 test	 cl, cl
  000ea	74 1a		 je	 SHORT $LN82@GetAnimati@2
  000ec	8a 40 0f	 mov	 al, BYTE PTR [eax+15]
  000ef	80 f1 eb	 xor	 cl, -21			; ffffffebH
  000f2	88 4d ee	 mov	 BYTE PTR _szEncEventType$[ebp+14], cl
  000f5	84 c0		 test	 al, al
  000f7	74 07		 je	 SHORT $LN81@GetAnimati@2
  000f9	34 ea		 xor	 al, -22			; ffffffeaH
  000fb	88 45 ef	 mov	 BYTE PTR _szEncEventType$[ebp+15], al
  000fe	eb 55		 jmp	 SHORT $LN1@GetAnimati@2
$LN81@GetAnimati@2:
  00100	c6 45 ef ea	 mov	 BYTE PTR _szEncEventType$[ebp+15], -22 ; ffffffeaH
  00104	eb 4f		 jmp	 SHORT $LN1@GetAnimati@2
$LN82@GetAnimati@2:
  00106	c6 45 ee eb	 mov	 BYTE PTR _szEncEventType$[ebp+14], -21 ; ffffffebH
  0010a	eb 49		 jmp	 SHORT $LN1@GetAnimati@2
$LN83@GetAnimati@2:
  0010c	c6 45 ed ec	 mov	 BYTE PTR _szEncEventType$[ebp+13], -20 ; ffffffecH
  00110	eb 43		 jmp	 SHORT $LN1@GetAnimati@2
$LN84@GetAnimati@2:
  00112	88 55 ec	 mov	 BYTE PTR _szEncEventType$[ebp+12], dl
  00115	eb 3e		 jmp	 SHORT $LN1@GetAnimati@2
$LN86@GetAnimati@2:
  00117	c6 45 ea eb	 mov	 BYTE PTR _szEncEventType$[ebp+10], -21 ; ffffffebH
  0011b	eb 38		 jmp	 SHORT $LN1@GetAnimati@2
$LN87@GetAnimati@2:
  0011d	c6 45 e9 ec	 mov	 BYTE PTR _szEncEventType$[ebp+9], -20 ; ffffffecH
  00121	eb 32		 jmp	 SHORT $LN1@GetAnimati@2
$LN88@GetAnimati@2:
  00123	88 55 e8	 mov	 BYTE PTR _szEncEventType$[ebp+8], dl
  00126	eb 2d		 jmp	 SHORT $LN1@GetAnimati@2
$LN89@GetAnimati@2:
  00128	c6 45 e7 ea	 mov	 BYTE PTR _szEncEventType$[ebp+7], -22 ; ffffffeaH
  0012c	eb 27		 jmp	 SHORT $LN1@GetAnimati@2
$LN90@GetAnimati@2:
  0012e	c6 45 e6 eb	 mov	 BYTE PTR _szEncEventType$[ebp+6], -21 ; ffffffebH
  00132	eb 21		 jmp	 SHORT $LN1@GetAnimati@2
$LN91@GetAnimati@2:
  00134	c6 45 e5 ec	 mov	 BYTE PTR _szEncEventType$[ebp+5], -20 ; ffffffecH
  00138	eb 1b		 jmp	 SHORT $LN1@GetAnimati@2
$LN92@GetAnimati@2:
  0013a	88 55 e4	 mov	 BYTE PTR _szEncEventType$[ebp+4], dl
  0013d	eb 16		 jmp	 SHORT $LN1@GetAnimati@2
$LN93@GetAnimati@2:
  0013f	c6 45 e3 ea	 mov	 BYTE PTR _szEncEventType$[ebp+3], -22 ; ffffffeaH
  00143	eb 10		 jmp	 SHORT $LN1@GetAnimati@2
$LN94@GetAnimati@2:
  00145	c6 45 e2 eb	 mov	 BYTE PTR _szEncEventType$[ebp+2], -21 ; ffffffebH
  00149	eb 0a		 jmp	 SHORT $LN1@GetAnimati@2
$LN95@GetAnimati@2:
  0014b	c6 45 e1 ec	 mov	 BYTE PTR _szEncEventType$[ebp+1], -20 ; ffffffecH
  0014f	eb 04		 jmp	 SHORT $LN1@GetAnimati@2
$LN96@GetAnimati@2:
  00151	c6 45 e0 ed	 mov	 BYTE PTR _szEncEventType$[ebp], -19 ; ffffffedH
$LN1@GetAnimati@2:
  00155	6a 02		 push	 2
  00157	8d 45 e0	 lea	 eax, DWORD PTR _szEncEventType$[ebp]
  0015a	c6 45 eb 00	 mov	 BYTE PTR _szEncEventType$[ebp+11], 0
  0015e	59		 pop	 ecx
$LL105@GetAnimati@2:
  0015f	81 30 ed ec eb
	ea		 xor	 DWORD PTR [eax], -353637139 ; eaebecedH
  00165	83 c0 04	 add	 eax, 4
  00168	49		 dec	 ecx
  00169	75 f4		 jne	 SHORT $LL105@GetAnimati@2
  0016b	6a 08		 push	 8
  0016d	58		 pop	 eax
$LL102@GetAnimati@2:
  0016e	8b c8		 mov	 ecx, eax
  00170	81 e1 03 00 00
	80		 and	 ecx, -2147483645	; 80000003H
  00176	79 05		 jns	 SHORT $LN113@GetAnimati@2
  00178	49		 dec	 ecx
  00179	83 c9 fc	 or	 ecx, -4			; fffffffcH
  0017c	41		 inc	 ecx
$LN113@GetAnimati@2:
  0017d	b2 ed		 mov	 dl, -19			; ffffffedH
  0017f	2a d1		 sub	 dl, cl
  00181	30 54 05 e0	 xor	 BYTE PTR _szEncEventType$[ebp+eax], dl
  00185	40		 inc	 eax
  00186	83 f8 0b	 cmp	 eax, 11			; 0000000bH
  00189	7c e3		 jl	 SHORT $LL102@GetAnimati@2

; 416  : 		return GetAnimationEventTime(id, szEncEventType);

  0018b	8d 45 e0	 lea	 eax, DWORD PTR _szEncEventType$[ebp]
  0018e	50		 push	 eax
  0018f	8d 4d cc	 lea	 ecx, DWORD PTR $T545679[ebp]
  00192	ff 15 00 00 00
	00		 call	 DWORD PTR __imp_??0ioHashString@@QAE@PBD@Z
  00198	83 65 fc 00	 and	 DWORD PTR __$EHRec$[ebp+8], 0
  0019c	8d 45 cc	 lea	 eax, DWORD PTR $T545679[ebp]
  0019f	50		 push	 eax
  001a0	ff 75 08	 push	 DWORD PTR _id$[ebp]
  001a3	8b ce		 mov	 ecx, esi
  001a5	ff 15 00 00 00
	00		 call	 DWORD PTR __imp_?GetAnimationEventTime@ioEntityGroup@@QAEMHABVioHashString@@@Z
  001ab	d9 5d dc	 fstp	 DWORD PTR $T545678[ebp]
  001ae	83 4d fc ff	 or	 DWORD PTR __$EHRec$[ebp+8], -1
  001b2	8d 4d cc	 lea	 ecx, DWORD PTR $T545679[ebp]
  001b5	ff 15 00 00 00
	00		 call	 DWORD PTR __imp_??1ioHashString@@QAE@XZ
  001bb	d9 45 dc	 fld	 DWORD PTR $T545678[ebp]

; 417  : 	}

  001be	e8 00 00 00 00	 call	 __EH_epilog3_GS
  001c3	c2 08 00	 ret	 8
_TEXT	ENDS
;	COMDAT text$x
text$x	SEGMENT
__unwindfunclet$??$GetAnimationEventTime_e@$0M@@ioEntityGroup@@QAEMHAAY0M@$$CBD@Z$0:
  00000	8d 4d cc	 lea	 ecx, DWORD PTR $T545679[ebp]
  00003	ff 25 00 00 00
	00		 jmp	 DWORD PTR __imp_??1ioHashString@@QAE@XZ
__ehhandler$??$GetAnimationEventTime_e@$0M@@ioEntityGroup@@QAEMHAAY0M@$$CBD@Z:
  00009	8b 54 24 08	 mov	 edx, DWORD PTR [esp+8]
  0000d	8d 42 0c	 lea	 eax, DWORD PTR [edx+12]
  00010	8b 4a c8	 mov	 ecx, DWORD PTR [edx-56]
  00013	33 c8		 xor	 ecx, eax
  00015	e8 00 00 00 00	 call	 @__security_check_cookie@4
  0001a	8b 4a fc	 mov	 ecx, DWORD PTR [edx-4]
  0001d	33 c8		 xor	 ecx, eax
  0001f	e8 00 00 00 00	 call	 @__security_check_cookie@4
  00024	b8 00 00 00 00	 mov	 eax, OFFSET __ehfuncinfo$??$GetAnimationEventTime_e@$0M@@ioEntityGroup@@QAEMHAAY0M@$$CBD@Z
  00029	e9 00 00 00 00	 jmp	 ___CxxFrameHandler3
text$x	ENDS
??$GetAnimationEventTime_e@$0M@@ioEntityGroup@@QAEMHAAY0M@$$CBD@Z ENDP ; ioEntityGroup::GetAnimationEventTime_e<12>
PUBLIC	??$GetAnimationEventTime_e@$0L@@ioEntityGroup@@QAEMHAAY0L@$$CBD@Z ; ioEntityGroup::GetAnimationEventTime_e<11>
;	COMDAT xdata$x
; File d:\lost saga for developer\youtube\tutorial\source\src\lsclient\stringprotect.h
xdata$x	SEGMENT
__unwindtable$??$GetAnimationEventTime_e@$0L@@ioEntityGroup@@QAEMHAAY0L@$$CBD@Z DD 0ffffffffH
	DD	FLAT:__unwindfunclet$??$GetAnimationEventTime_e@$0L@@ioEntityGroup@@QAEMHAAY0L@$$CBD@Z$0
__ehfuncinfo$??$GetAnimationEventTime_e@$0L@@ioEntityGroup@@QAEMHAAY0L@$$CBD@Z DD 019930522H
	DD	01H
	DD	FLAT:__unwindtable$??$GetAnimationEventTime_e@$0L@@ioEntityGroup@@QAEMHAAY0L@$$CBD@Z
	DD	2 DUP(00H)
	DD	2 DUP(00H)
	DD	00H
	DD	01H
; Function compile flags: /Ogsp
; File d:\lost saga for developer\youtube\tutorial\source\src\io3dengine\ioentitygroup.h
xdata$x	ENDS
;	COMDAT ??$GetAnimationEventTime_e@$0L@@ioEntityGroup@@QAEMHAAY0L@$$CBD@Z
_TEXT	SEGMENT
$T545710 = -52						; size = 16
$T545709 = -36						; size = 4
_szEncEventType$ = -32					; size = 11
__$EHRec$ = -12						; size = 12
_id$ = 8						; size = 4
_szEventType$ = 12					; size = 4
??$GetAnimationEventTime_e@$0L@@ioEntityGroup@@QAEMHAAY0L@$$CBD@Z PROC ; ioEntityGroup::GetAnimationEventTime_e<11>, COMDAT
; _this$ = ecx

; 414  : 	{

  00000	6a 28		 push	 40			; 00000028H
  00002	b8 00 00 00 00	 mov	 eax, __ehhandler$??$GetAnimationEventTime_e@$0L@@ioEntityGroup@@QAEMHAAY0L@$$CBD@Z
  00007	e8 00 00 00 00	 call	 __EH_prolog3_GS
  0000c	8b 45 0c	 mov	 eax, DWORD PTR _szEventType$[ebp]
  0000f	8b f1		 mov	 esi, ecx

; 415  : 		_ENCSTR(szEventType, szEncEventType);

  00011	8a 08		 mov	 cl, BYTE PTR [eax]
  00013	84 c9		 test	 cl, cl
  00015	0f 84 1b 01 00
	00		 je	 $LN96@GetAnimati@3
  0001b	b2 ed		 mov	 dl, -19			; ffffffedH
  0001d	32 ca		 xor	 cl, dl
  0001f	88 4d e0	 mov	 BYTE PTR _szEncEventType$[ebp], cl
  00022	8a 48 01	 mov	 cl, BYTE PTR [eax+1]
  00025	84 c9		 test	 cl, cl
  00027	0f 84 03 01 00
	00		 je	 $LN95@GetAnimati@3
  0002d	80 f1 ec	 xor	 cl, -20			; ffffffecH
  00030	88 4d e1	 mov	 BYTE PTR _szEncEventType$[ebp+1], cl
  00033	8a 48 02	 mov	 cl, BYTE PTR [eax+2]
  00036	84 c9		 test	 cl, cl
  00038	0f 84 ec 00 00
	00		 je	 $LN94@GetAnimati@3
  0003e	80 f1 eb	 xor	 cl, -21			; ffffffebH
  00041	88 4d e2	 mov	 BYTE PTR _szEncEventType$[ebp+2], cl
  00044	8a 48 03	 mov	 cl, BYTE PTR [eax+3]
  00047	84 c9		 test	 cl, cl
  00049	0f 84 d5 00 00
	00		 je	 $LN93@GetAnimati@3
  0004f	80 f1 ea	 xor	 cl, -22			; ffffffeaH
  00052	88 4d e3	 mov	 BYTE PTR _szEncEventType$[ebp+3], cl
  00055	8a 48 04	 mov	 cl, BYTE PTR [eax+4]
  00058	84 c9		 test	 cl, cl
  0005a	0f 84 bf 00 00
	00		 je	 $LN92@GetAnimati@3
  00060	32 ca		 xor	 cl, dl
  00062	88 4d e4	 mov	 BYTE PTR _szEncEventType$[ebp+4], cl
  00065	8a 48 05	 mov	 cl, BYTE PTR [eax+5]
  00068	84 c9		 test	 cl, cl
  0006a	0f 84 a9 00 00
	00		 je	 $LN91@GetAnimati@3
  00070	80 f1 ec	 xor	 cl, -20			; ffffffecH
  00073	88 4d e5	 mov	 BYTE PTR _szEncEventType$[ebp+5], cl
  00076	8a 48 06	 mov	 cl, BYTE PTR [eax+6]
  00079	84 c9		 test	 cl, cl
  0007b	0f 84 92 00 00
	00		 je	 $LN90@GetAnimati@3
  00081	80 f1 eb	 xor	 cl, -21			; ffffffebH
  00084	88 4d e6	 mov	 BYTE PTR _szEncEventType$[ebp+6], cl
  00087	8a 48 07	 mov	 cl, BYTE PTR [eax+7]
  0008a	84 c9		 test	 cl, cl
  0008c	74 7f		 je	 SHORT $LN89@GetAnimati@3
  0008e	80 f1 ea	 xor	 cl, -22			; ffffffeaH
  00091	88 4d e7	 mov	 BYTE PTR _szEncEventType$[ebp+7], cl
  00094	8a 48 08	 mov	 cl, BYTE PTR [eax+8]
  00097	84 c9		 test	 cl, cl
  00099	74 6d		 je	 SHORT $LN88@GetAnimati@3
  0009b	32 ca		 xor	 cl, dl
  0009d	88 4d e8	 mov	 BYTE PTR _szEncEventType$[ebp+8], cl
  000a0	8a 48 09	 mov	 cl, BYTE PTR [eax+9]
  000a3	84 c9		 test	 cl, cl
  000a5	74 5b		 je	 SHORT $LN87@GetAnimati@3
  000a7	80 f1 ec	 xor	 cl, -20			; ffffffecH
  000aa	80 78 0a 00	 cmp	 BYTE PTR [eax+10], 0
  000ae	88 4d e9	 mov	 BYTE PTR _szEncEventType$[ebp+9], cl
  000b1	0f 84 83 00 00
	00		 je	 $LN1@GetAnimati@3
  000b7	8a 48 0b	 mov	 cl, BYTE PTR [eax+11]
  000ba	84 c9		 test	 cl, cl
  000bc	74 3e		 je	 SHORT $LN85@GetAnimati@3
  000be	80 f1 ea	 xor	 cl, -22			; ffffffeaH
  000c1	88 4d eb	 mov	 BYTE PTR _szEncEventType$[ebp+11], cl
  000c4	8a 48 0c	 mov	 cl, BYTE PTR [eax+12]
  000c7	84 c9		 test	 cl, cl
  000c9	74 2c		 je	 SHORT $LN84@GetAnimati@3
  000cb	32 ca		 xor	 cl, dl
  000cd	88 4d ec	 mov	 BYTE PTR _szEncEventType$[ebp+12], cl
  000d0	8a 48 0d	 mov	 cl, BYTE PTR [eax+13]
  000d3	84 c9		 test	 cl, cl
  000d5	74 1a		 je	 SHORT $LN83@GetAnimati@3
  000d7	8a 40 0e	 mov	 al, BYTE PTR [eax+14]
  000da	80 f1 ec	 xor	 cl, -20			; ffffffecH
  000dd	88 4d ed	 mov	 BYTE PTR _szEncEventType$[ebp+13], cl
  000e0	84 c0		 test	 al, al
  000e2	74 07		 je	 SHORT $LN82@GetAnimati@3
  000e4	34 eb		 xor	 al, -21			; ffffffebH
  000e6	88 45 ee	 mov	 BYTE PTR _szEncEventType$[ebp+14], al
  000e9	eb 4f		 jmp	 SHORT $LN1@GetAnimati@3
$LN82@GetAnimati@3:
  000eb	c6 45 ee eb	 mov	 BYTE PTR _szEncEventType$[ebp+14], -21 ; ffffffebH
  000ef	eb 49		 jmp	 SHORT $LN1@GetAnimati@3
$LN83@GetAnimati@3:
  000f1	c6 45 ed ec	 mov	 BYTE PTR _szEncEventType$[ebp+13], -20 ; ffffffecH
  000f5	eb 43		 jmp	 SHORT $LN1@GetAnimati@3
$LN84@GetAnimati@3:
  000f7	88 55 ec	 mov	 BYTE PTR _szEncEventType$[ebp+12], dl
  000fa	eb 3e		 jmp	 SHORT $LN1@GetAnimati@3
$LN85@GetAnimati@3:
  000fc	c6 45 eb ea	 mov	 BYTE PTR _szEncEventType$[ebp+11], -22 ; ffffffeaH
  00100	eb 38		 jmp	 SHORT $LN1@GetAnimati@3
$LN87@GetAnimati@3:
  00102	c6 45 e9 ec	 mov	 BYTE PTR _szEncEventType$[ebp+9], -20 ; ffffffecH
  00106	eb 32		 jmp	 SHORT $LN1@GetAnimati@3
$LN88@GetAnimati@3:
  00108	88 55 e8	 mov	 BYTE PTR _szEncEventType$[ebp+8], dl
  0010b	eb 2d		 jmp	 SHORT $LN1@GetAnimati@3
$LN89@GetAnimati@3:
  0010d	c6 45 e7 ea	 mov	 BYTE PTR _szEncEventType$[ebp+7], -22 ; ffffffeaH
  00111	eb 27		 jmp	 SHORT $LN1@GetAnimati@3
$LN90@GetAnimati@3:
  00113	c6 45 e6 eb	 mov	 BYTE PTR _szEncEventType$[ebp+6], -21 ; ffffffebH
  00117	eb 21		 jmp	 SHORT $LN1@GetAnimati@3
$LN91@GetAnimati@3:
  00119	c6 45 e5 ec	 mov	 BYTE PTR _szEncEventType$[ebp+5], -20 ; ffffffecH
  0011d	eb 1b		 jmp	 SHORT $LN1@GetAnimati@3
$LN92@GetAnimati@3:
  0011f	88 55 e4	 mov	 BYTE PTR _szEncEventType$[ebp+4], dl
  00122	eb 16		 jmp	 SHORT $LN1@GetAnimati@3
$LN93@GetAnimati@3:
  00124	c6 45 e3 ea	 mov	 BYTE PTR _szEncEventType$[ebp+3], -22 ; ffffffeaH
  00128	eb 10		 jmp	 SHORT $LN1@GetAnimati@3
$LN94@GetAnimati@3:
  0012a	c6 45 e2 eb	 mov	 BYTE PTR _szEncEventType$[ebp+2], -21 ; ffffffebH
  0012e	eb 0a		 jmp	 SHORT $LN1@GetAnimati@3
$LN95@GetAnimati@3:
  00130	c6 45 e1 ec	 mov	 BYTE PTR _szEncEventType$[ebp+1], -20 ; ffffffecH
  00134	eb 04		 jmp	 SHORT $LN1@GetAnimati@3
$LN96@GetAnimati@3:
  00136	c6 45 e0 ed	 mov	 BYTE PTR _szEncEventType$[ebp], -19 ; ffffffedH
$LN1@GetAnimati@3:
  0013a	6a 02		 push	 2
  0013c	8d 45 e0	 lea	 eax, DWORD PTR _szEncEventType$[ebp]
  0013f	c6 45 ea 00	 mov	 BYTE PTR _szEncEventType$[ebp+10], 0
  00143	59		 pop	 ecx
$LL105@GetAnimati@3:
  00144	81 30 ed ec eb
	ea		 xor	 DWORD PTR [eax], -353637139 ; eaebecedH
  0014a	83 c0 04	 add	 eax, 4
  0014d	49		 dec	 ecx
  0014e	75 f4		 jne	 SHORT $LL105@GetAnimati@3
  00150	6a 08		 push	 8
  00152	58		 pop	 eax
$LL102@GetAnimati@3:
  00153	8b c8		 mov	 ecx, eax
  00155	81 e1 03 00 00
	80		 and	 ecx, -2147483645	; 80000003H
  0015b	79 05		 jns	 SHORT $LN113@GetAnimati@3
  0015d	49		 dec	 ecx
  0015e	83 c9 fc	 or	 ecx, -4			; fffffffcH
  00161	41		 inc	 ecx
$LN113@GetAnimati@3:
  00162	b2 ed		 mov	 dl, -19			; ffffffedH
  00164	2a d1		 sub	 dl, cl
  00166	30 54 05 e0	 xor	 BYTE PTR _szEncEventType$[ebp+eax], dl
  0016a	40		 inc	 eax
  0016b	83 f8 0a	 cmp	 eax, 10			; 0000000aH
  0016e	7c e3		 jl	 SHORT $LL102@GetAnimati@3

; 416  : 		return GetAnimationEventTime(id, szEncEventType);

  00170	8d 45 e0	 lea	 eax, DWORD PTR _szEncEventType$[ebp]
  00173	50		 push	 eax
  00174	8d 4d cc	 lea	 ecx, DWORD PTR $T545710[ebp]
  00177	ff 15 00 00 00
	00		 call	 DWORD PTR __imp_??0ioHashString@@QAE@PBD@Z
  0017d	83 65 fc 00	 and	 DWORD PTR __$EHRec$[ebp+8], 0
  00181	8d 45 cc	 lea	 eax, DWORD PTR $T545710[ebp]
  00184	50		 push	 eax
  00185	ff 75 08	 push	 DWORD PTR _id$[ebp]
  00188	8b ce		 mov	 ecx, esi
  0018a	ff 15 00 00 00
	00		 call	 DWORD PTR __imp_?GetAnimationEventTime@ioEntityGroup@@QAEMHABVioHashString@@@Z
  00190	d9 5d dc	 fstp	 DWORD PTR $T545709[ebp]
  00193	83 4d fc ff	 or	 DWORD PTR __$EHRec$[ebp+8], -1
  00197	8d 4d cc	 lea	 ecx, DWORD PTR $T545710[ebp]
  0019a	ff 15 00 00 00
	00		 call	 DWORD PTR __imp_??1ioHashString@@QAE@XZ
  001a0	d9 45 dc	 fld	 DWORD PTR $T545709[ebp]

; 417  : 	}

  001a3	e8 00 00 00 00	 call	 __EH_epilog3_GS
  001a8	c2 08 00	 ret	 8
_TEXT	ENDS
;	COMDAT text$x
text$x	SEGMENT
__unwindfunclet$??$GetAnimationEventTime_e@$0L@@ioEntityGroup@@QAEMHAAY0L@$$CBD@Z$0:
  00000	8d 4d cc	 lea	 ecx, DWORD PTR $T545710[ebp]
  00003	ff 25 00 00 00
	00		 jmp	 DWORD PTR __imp_??1ioHashString@@QAE@XZ
__ehhandler$??$GetAnimationEventTime_e@$0L@@ioEntityGroup@@QAEMHAAY0L@$$CBD@Z:
  00009	8b 54 24 08	 mov	 edx, DWORD PTR [esp+8]
  0000d	8d 42 0c	 lea	 eax, DWORD PTR [edx+12]
  00010	8b 4a c8	 mov	 ecx, DWORD PTR [edx-56]
  00013	33 c8		 xor	 ecx, eax
  00015	e8 00 00 00 00	 call	 @__security_check_cookie@4
  0001a	8b 4a fc	 mov	 ecx, DWORD PTR [edx-4]
  0001d	33 c8		 xor	 ecx, eax
  0001f	e8 00 00 00 00	 call	 @__security_check_cookie@4
  00024	b8 00 00 00 00	 mov	 eax, OFFSET __ehfuncinfo$??$GetAnimationEventTime_e@$0L@@ioEntityGroup@@QAEMHAAY0L@$$CBD@Z
  00029	e9 00 00 00 00	 jmp	 ___CxxFrameHandler3
text$x	ENDS
??$GetAnimationEventTime_e@$0L@@ioEntityGroup@@QAEMHAAY0L@$$CBD@Z ENDP ; ioEntityGroup::GetAnimationEventTime_e<11>
PUBLIC	??$_Cons_val@V?$allocator@UBulletInfo@@@std@@UBulletInfo@@AAU3@@std@@YAXAAV?$allocator@UBulletInfo@@@0@PAUBulletInfo@@AAU2@@Z ; std::_Cons_val<std::allocator<BulletInfo>,BulletInfo,BulletInfo &>
; Function compile flags: /Ogsp
; File c:\program files (x86)\microsoft visual studio 10.0\vc\include\xmemory
;	COMDAT ??$_Cons_val@V?$allocator@UBulletInfo@@@std@@UBulletInfo@@AAU3@@std@@YAXAAV?$allocator@UBulletInfo@@@0@PAUBulletInfo@@AAU2@@Z
_TEXT	SEGMENT
__Alval$ = 8						; size = 4
__Pdest$ = 12						; size = 4
__Src$ = 16						; size = 4
??$_Cons_val@V?$allocator@UBulletInfo@@@std@@UBulletInfo@@AAU3@@std@@YAXAAV?$allocator@UBulletInfo@@@0@PAUBulletInfo@@AAU2@@Z PROC ; std::_Cons_val<std::allocator<BulletInfo>,BulletInfo,BulletInfo &>, COMDAT

; 279  : 	{	// construct using allocator

  00000	55		 push	 ebp
  00001	8b ec		 mov	 ebp, esp
  00003	57		 push	 edi

; 280  : 	_Alval.construct(_Pdest, _STD forward<_Ty2>(_Src));

  00004	8b 7d 0c	 mov	 edi, DWORD PTR __Pdest$[ebp]
  00007	85 ff		 test	 edi, edi
  00009	74 0a		 je	 SHORT $LN7@Cons_val
  0000b	56		 push	 esi
  0000c	8b 75 10	 mov	 esi, DWORD PTR __Src$[ebp]
  0000f	6a 05		 push	 5
  00011	59		 pop	 ecx
  00012	f3 a5		 rep movsd
  00014	5e		 pop	 esi
$LN7@Cons_val:
  00015	5f		 pop	 edi

; 281  : 	}

  00016	5d		 pop	 ebp
  00017	c3		 ret	 0
??$_Cons_val@V?$allocator@UBulletInfo@@@std@@UBulletInfo@@AAU3@@std@@YAXAAV?$allocator@UBulletInfo@@@0@PAUBulletInfo@@AAU2@@Z ENDP ; std::_Cons_val<std::allocator<BulletInfo>,BulletInfo,BulletInfo &>
_TEXT	ENDS
PUBLIC	?construct@?$allocator@UBulletInfo@@@std@@QAEXPAUBulletInfo@@ABU3@@Z ; std::allocator<BulletInfo>::construct
; Function compile flags: /Ogsp
;	COMDAT ?construct@?$allocator@UBulletInfo@@@std@@QAEXPAUBulletInfo@@ABU3@@Z
_TEXT	SEGMENT
__Ptr$ = 8						; size = 4
__Val$ = 12						; size = 4
?construct@?$allocator@UBulletInfo@@@std@@QAEXPAUBulletInfo@@ABU3@@Z PROC ; std::allocator<BulletInfo>::construct, COMDAT
; _this$ = ecx

; 196  : 		{	// construct object at _Ptr with value _Val

  00000	55		 push	 ebp
  00001	8b ec		 mov	 ebp, esp
  00003	57		 push	 edi

; 197  : 		_Construct(_Ptr, _Val);

  00004	8b 7d 08	 mov	 edi, DWORD PTR __Ptr$[ebp]
  00007	85 ff		 test	 edi, edi
  00009	74 0a		 je	 SHORT $LN5@construct@2
  0000b	56		 push	 esi
  0000c	8b 75 0c	 mov	 esi, DWORD PTR __Val$[ebp]
  0000f	6a 05		 push	 5
  00011	59		 pop	 ecx
  00012	f3 a5		 rep movsd
  00014	5e		 pop	 esi
$LN5@construct@2:
  00015	5f		 pop	 edi

; 198  : 		}

  00016	5d		 pop	 ebp
  00017	c2 08 00	 ret	 8
?construct@?$allocator@UBulletInfo@@@std@@QAEXPAUBulletInfo@@ABU3@@Z ENDP ; std::allocator<BulletInfo>::construct
_TEXT	ENDS
PUBLIC	??$_Move@PAUBulletInfo@@PAU1@@std@@YAPAUBulletInfo@@PAU1@00U_Nonscalar_ptr_iterator_tag@0@@Z ; std::_Move<BulletInfo *,BulletInfo *>
; Function compile flags: /Ogsp
; File c:\program files (x86)\microsoft visual studio 10.0\vc\include\xutility
;	COMDAT ??$_Move@PAUBulletInfo@@PAU1@@std@@YAPAUBulletInfo@@PAU1@00U_Nonscalar_ptr_iterator_tag@0@@Z
_TEXT	SEGMENT
__First$ = 8						; size = 4
__Last$ = 12						; size = 4
__Dest$ = 16						; size = 4
___formal$ = 20						; size = 1
??$_Move@PAUBulletInfo@@PAU1@@std@@YAPAUBulletInfo@@PAU1@00U_Nonscalar_ptr_iterator_tag@0@@Z PROC ; std::_Move<BulletInfo *,BulletInfo *>, COMDAT

; 2512 : 	{	// move [_First, _Last) to [_Dest, ...), arbitrary iterators

  00000	55		 push	 ebp
  00001	8b ec		 mov	 ebp, esp

; 2513 : 	for (; _First != _Last; ++_Dest, ++_First)

  00003	8b 45 08	 mov	 eax, DWORD PTR __First$[ebp]
  00006	3b 45 0c	 cmp	 eax, DWORD PTR __Last$[ebp]
  00009	74 1a		 je	 SHORT $LN10@Move
  0000b	56		 push	 esi
  0000c	57		 push	 edi
$LL3@Move:

; 2514 : 		*_Dest = _STD move(*_First);

  0000d	8b 7d 10	 mov	 edi, DWORD PTR __Dest$[ebp]
  00010	83 45 10 14	 add	 DWORD PTR __Dest$[ebp], 20 ; 00000014H
  00014	8b f0		 mov	 esi, eax
  00016	6a 05		 push	 5
  00018	83 c0 14	 add	 eax, 20			; 00000014H
  0001b	59		 pop	 ecx
  0001c	f3 a5		 rep movsd
  0001e	3b 45 0c	 cmp	 eax, DWORD PTR __Last$[ebp]
  00021	75 ea		 jne	 SHORT $LL3@Move
  00023	5f		 pop	 edi
  00024	5e		 pop	 esi
$LN10@Move:

; 2515 : 	return (_Dest);

  00025	8b 45 10	 mov	 eax, DWORD PTR __Dest$[ebp]

; 2516 : 	}

  00028	5d		 pop	 ebp
  00029	c3		 ret	 0
??$_Move@PAUBulletInfo@@PAU1@@std@@YAPAUBulletInfo@@PAU1@00U_Nonscalar_ptr_iterator_tag@0@@Z ENDP ; std::_Move<BulletInfo *,BulletInfo *>
_TEXT	ENDS
PUBLIC	?destroy@?$allocator@UBulletInfo@@@std@@QAEXPAUBulletInfo@@@Z ; std::allocator<BulletInfo>::destroy
; Function compile flags: /Ogsp
; File c:\program files (x86)\microsoft visual studio 10.0\vc\include\xmemory
;	COMDAT ?destroy@?$allocator@UBulletInfo@@@std@@QAEXPAUBulletInfo@@@Z
_TEXT	SEGMENT
__Ptr$ = 8						; size = 4
?destroy@?$allocator@UBulletInfo@@@std@@QAEXPAUBulletInfo@@@Z PROC ; std::allocator<BulletInfo>::destroy, COMDAT
; _this$ = ecx

; 213  : 		_Destroy(_Ptr);
; 214  : 		}

  00000	c2 04 00	 ret	 4
?destroy@?$allocator@UBulletInfo@@@std@@QAEXPAUBulletInfo@@@Z ENDP ; std::allocator<BulletInfo>::destroy
_TEXT	ENDS
PUBLIC	?construct@?$allocator@UBulletInfo@@@std@@QAEXPAUBulletInfo@@$$QAU3@@Z ; std::allocator<BulletInfo>::construct
; Function compile flags: /Ogsp
;	COMDAT ?construct@?$allocator@UBulletInfo@@@std@@QAEXPAUBulletInfo@@$$QAU3@@Z
_TEXT	SEGMENT
__Ptr$ = 8						; size = 4
__Val$ = 12						; size = 4
?construct@?$allocator@UBulletInfo@@@std@@QAEXPAUBulletInfo@@$$QAU3@@Z PROC ; std::allocator<BulletInfo>::construct, COMDAT
; _this$ = ecx

; 201  : 		{	// construct object at _Ptr with value _Val

  00000	55		 push	 ebp
  00001	8b ec		 mov	 ebp, esp
  00003	57		 push	 edi

; 202  : 		::new ((void _FARQ *)_Ptr) _Ty(_STD forward<_Ty>(_Val));

  00004	8b 7d 08	 mov	 edi, DWORD PTR __Ptr$[ebp]
  00007	85 ff		 test	 edi, edi
  00009	74 0a		 je	 SHORT $LN3@construct@3
  0000b	56		 push	 esi
  0000c	8b 75 0c	 mov	 esi, DWORD PTR __Val$[ebp]
  0000f	6a 05		 push	 5
  00011	59		 pop	 ecx
  00012	f3 a5		 rep movsd
  00014	5e		 pop	 esi
$LN3@construct@3:
  00015	5f		 pop	 edi

; 203  : 		}

  00016	5d		 pop	 ebp
  00017	c2 08 00	 ret	 8
?construct@?$allocator@UBulletInfo@@@std@@QAEXPAUBulletInfo@@$$QAU3@@Z ENDP ; std::allocator<BulletInfo>::construct
_TEXT	ENDS
PUBLIC	??4?$CEncrypt@K@@QAEKK@Z			; CEncrypt<unsigned long>::operator=
; Function compile flags: /Ogsp
; File d:\lost saga for developer\youtube\tutorial\source\src\lsclient\encryptvalue.h
;	COMDAT ??4?$CEncrypt@K@@QAEKK@Z
_TEXT	SEGMENT
_value$ = 8						; size = 4
_inValue$ = 8						; size = 4
??4?$CEncrypt@K@@QAEKK@Z PROC				; CEncrypt<unsigned long>::operator=, COMDAT
; _this$ = ecx

; 1262 : 	{

  00000	55		 push	 ebp
  00001	8b ec		 mov	 ebp, esp

; 1263 : 		
; 1264 : 		type value = inValue;

  00003	8b 45 08	 mov	 eax, DWORD PTR _inValue$[ebp]
  00006	89 45 08	 mov	 DWORD PTR _value$[ebp], eax

; 1265 : 		EncryptValueToPool((char*)&value);

  00009	8d 45 08	 lea	 eax, DWORD PTR _value$[ebp]
  0000c	50		 push	 eax
  0000d	e8 00 00 00 00	 call	 ?EncryptValueToPool@?$CEncrypt@K@@AAEXPBD@Z ; CEncrypt<unsigned long>::EncryptValueToPool

; 1266 : #ifdef _NOTUSE
; 1267 : 		m_value = inValue;
; 1268 : 		Debug();
; 1269 : #endif
; 1270 : 		return value;

  00012	8b 45 08	 mov	 eax, DWORD PTR _value$[ebp]

; 1271 : 	}

  00015	5d		 pop	 ebp
  00016	c2 04 00	 ret	 4
??4?$CEncrypt@K@@QAEKK@Z ENDP				; CEncrypt<unsigned long>::operator=
_TEXT	ENDS
PUBLIC	__real@3f800000
PUBLIC	__real@41f0000000000000
PUBLIC	_pChar$GSCopy$
PUBLIC	?AttackSkillFire@ioMoveAttackSkill@@MAEXPAVioBaseChar@@@Z ; ioMoveAttackSkill::AttackSkillFire
EXTRN	?ChangeSkillWeaponMesh@ioBaseChar@@QAE_NPAVioSkill@@ABVioHashString@@_N@Z:PROC ; ioBaseChar::ChangeSkillWeaponMesh
EXTRN	?ReduceNeedGaugeBySkill@ioBaseChar@@QAEMPAVioSkill@@M@Z:PROC ; ioBaseChar::ReduceNeedGaugeBySkill
EXTRN	?GetNeedGauge@ioSkill@@QAEMABVioHashString@@@Z:PROC ; ioSkill::GetNeedGauge
EXTRN	?SetReservedSliding@ioBaseChar@@QAEXABV?$vector@UForceInfo@@V?$allocator@UForceInfo@@@std@@@std@@HMKM_N@Z:PROC ; ioBaseChar::SetReservedSliding
EXTRN	?SetExtraAniJump@ioSkill@@IAEXPAVioBaseChar@@HM@Z:PROC ; ioSkill::SetExtraAniJump
EXTRN	?CheckCharColSkipSkillTime@ioBaseChar@@QAEXHMK@Z:PROC ; ioBaseChar::CheckCharColSkipSkillTime
EXTRN	?RefreshFireTimeListWithBase@ioBaseChar@@QAEXKHABV?$vector@UWeaponInfo@@V?$allocator@UWeaponInfo@@@std@@@std@@W4FireTimeType@@MK_N@Z:PROC ; ioBaseChar::RefreshFireTimeListWithBase
EXTRN	?AttachEffect@ioBaseChar@@QAEPAVioEffect@@ABVioHashString@@PAVioEntityEvent@@_N@Z:PROC ; ioBaseChar::AttachEffect
EXTRN	__imp_?SetLoopAni@ioEntityGroup@@QAE_NHMMMM@Z:PROC
EXTRN	__imp_?ClearAllActionAni@ioEntityGroup@@QAEXM_N@Z:PROC
EXTRN	__imp_?ClearAllLoopAni@ioEntityGroup@@QAEXM_N@Z:PROC
EXTRN	__imp_?GetAnimationIdx@ioEntityGroup@@QAEHABVioHashString@@@Z:PROC
EXTRN	__ftol2:PROC
;	COMDAT __real@3f800000
; File d:\lost saga for developer\youtube\tutorial\source\src\lsclient\iobasechar.h
CONST	SEGMENT
__real@3f800000 DD 03f800000r			; 1
CONST	ENDS
;	COMDAT __real@41f0000000000000
CONST	SEGMENT
__real@41f0000000000000 DQ 041f0000000000000r	; 4.29497e+009
CONST	ENDS
;	COMDAT xdata$x
xdata$x	SEGMENT
__unwindtable$?AttackSkillFire@ioMoveAttackSkill@@MAEXPAVioBaseChar@@@Z DD 0ffffffffH
	DD	FLAT:__unwindfunclet$?AttackSkillFire@ioMoveAttackSkill@@MAEXPAVioBaseChar@@@Z$0
	DD	0ffffffffH
	DD	FLAT:__unwindfunclet$?AttackSkillFire@ioMoveAttackSkill@@MAEXPAVioBaseChar@@@Z$1
	DD	0ffffffffH
	DD	FLAT:__unwindfunclet$?AttackSkillFire@ioMoveAttackSkill@@MAEXPAVioBaseChar@@@Z$2
__ehfuncinfo$?AttackSkillFire@ioMoveAttackSkill@@MAEXPAVioBaseChar@@@Z DD 019930522H
	DD	03H
	DD	FLAT:__unwindtable$?AttackSkillFire@ioMoveAttackSkill@@MAEXPAVioBaseChar@@@Z
	DD	2 DUP(00H)
	DD	2 DUP(00H)
	DD	00H
	DD	01H
; Function compile flags: /Ogsp
; File d:\lost saga for developer\youtube\tutorial\source\src\lsclient\iomoveattackskill.cpp
xdata$x	ENDS
;	COMDAT ?AttackSkillFire@ioMoveAttackSkill@@MAEXPAVioBaseChar@@@Z
_TEXT	SEGMENT
$T546125 = -104						; size = 16
_pChar$GSCopy$ = -88					; size = 4
_pGrp$ = -84						; size = 4
_iAniID$ = -80						; size = 4
_fTimeRate$ = -76					; size = 4
tv3172 = -72						; size = 4
tv3167 = -72						; size = 4
tv3160 = -72						; size = 4
tv3157 = -72						; size = 4
tv3155 = -72						; size = 4
tv3153 = -72						; size = 4
tv3131 = -72						; size = 4
tv3119 = -72						; size = 4
$T546124 = -72						; size = 4
$T545994 = -72						; size = 4
$T545864 = -72						; size = 4
_value$545844 = -72					; size = 4
_szEncEventType$546138 = -68				; size = 11
$T545995 = -52						; size = 16
_szEncEventType$545878 = -52				; size = 13
_szEncEventType$546008 = -32				; size = 12
$T545865 = -32						; size = 16
__$EHRec$ = -12						; size = 12
_pChar$ = 8						; size = 4
?AttackSkillFire@ioMoveAttackSkill@@MAEXPAVioBaseChar@@@Z PROC ; ioMoveAttackSkill::AttackSkillFire, COMDAT
; _this$ = ecx

; 82   : {

  00000	6a 5c		 push	 92			; 0000005cH
  00002	b8 00 00 00 00	 mov	 eax, __ehhandler$?AttackSkillFire@ioMoveAttackSkill@@MAEXPAVioBaseChar@@@Z
  00007	e8 00 00 00 00	 call	 __EH_prolog3_GS
  0000c	8b 5d 08	 mov	 ebx, DWORD PTR _pChar$[ebp]

; 83   : 	ioEntityGroup *pGrp = pChar->GetGroup();

  0000f	8b 7b 04	 mov	 edi, DWORD PTR [ebx+4]
  00012	8b f1		 mov	 esi, ecx

; 84   : 	int iAniID = pGrp->GetAnimationIdx( GetAttribute().m_AttackAnimation );

  00014	8b 06		 mov	 eax, DWORD PTR [esi]
  00016	89 5d a8	 mov	 DWORD PTR _pChar$GSCopy$[ebp], ebx
  00019	89 7d ac	 mov	 DWORD PTR _pGrp$[ebp], edi
  0001c	ff 90 a4 01 00
	00		 call	 DWORD PTR [eax+420]
  00022	50		 push	 eax
  00023	8b cf		 mov	 ecx, edi
  00025	ff 15 00 00 00
	00		 call	 DWORD PTR __imp_?GetAnimationIdx@ioEntityGroup@@QAEHABVioHashString@@@Z
  0002b	89 45 b0	 mov	 DWORD PTR _iAniID$[ebp], eax

; 85   : 	if( iAniID == -1 )	return;

  0002e	83 f8 ff	 cmp	 eax, -1
  00031	0f 84 f9 03 00
	00		 je	 $LN1@AttackSkil

; 86   : 
; 87   : 	float fTimeRate  = GetAttackTimeRate();

  00037	8b 06		 mov	 eax, DWORD PTR [esi]
  00039	8b ce		 mov	 ecx, esi
  0003b	ff 90 90 01 00
	00		 call	 DWORD PTR [eax+400]
  00041	d9 5d b4	 fstp	 DWORD PTR _fTimeRate$[ebp]

; 88   : 
; 89   : 	pGrp->ClearAllLoopAni( FLOAT100, true );

  00044	b8 64 00 00 00	 mov	 eax, 100		; 00000064H
  00049	89 45 b8	 mov	 DWORD PTR tv3172[ebp], eax
  0004c	db 45 b8	 fild	 DWORD PTR tv3172[ebp]
  0004f	6a 01		 push	 1
  00051	85 c0		 test	 eax, eax
  00053	79 06		 jns	 SHORT $LN360@AttackSkil
  00055	d8 05 00 00 00
	00		 fadd	 DWORD PTR __real@4f800000
$LN360@AttackSkil:
  0005b	51		 push	 ecx
  0005c	8b cf		 mov	 ecx, edi
  0005e	d9 1c 24	 fstp	 DWORD PTR [esp]
  00061	ff 15 00 00 00
	00		 call	 DWORD PTR __imp_?ClearAllLoopAni@ioEntityGroup@@QAEXM_N@Z

; 90   : 	pGrp->ClearAllActionAni( FLOAT100, true );

  00067	b8 64 00 00 00	 mov	 eax, 100		; 00000064H
  0006c	89 45 b8	 mov	 DWORD PTR tv3167[ebp], eax
  0006f	db 45 b8	 fild	 DWORD PTR tv3167[ebp]
  00072	6a 01		 push	 1
  00074	85 c0		 test	 eax, eax
  00076	79 06		 jns	 SHORT $LN361@AttackSkil
  00078	d8 05 00 00 00
	00		 fadd	 DWORD PTR __real@4f800000
$LN361@AttackSkil:
  0007e	51		 push	 ecx
  0007f	8b cf		 mov	 ecx, edi
  00081	d9 1c 24	 fstp	 DWORD PTR [esp]
  00084	ff 15 00 00 00
	00		 call	 DWORD PTR __imp_?ClearAllActionAni@ioEntityGroup@@QAEXM_N@Z

; 91   : 	pGrp->SetLoopAni( iAniID, FLOAT100, FLOAT1, FLOAT1/fTimeRate );

  0008a	b8 01 00 00 00	 mov	 eax, 1
  0008f	8b c8		 mov	 ecx, eax
  00091	b8 01 00 00 00	 mov	 eax, 1
  00096	8b d0		 mov	 edx, eax
  00098	b8 64 00 00 00	 mov	 eax, 100		; 00000064H
  0009d	0f 57 c0	 xorps	 xmm0, xmm0
  000a0	83 ec 10	 sub	 esp, 16			; 00000010H
  000a3	89 4d b8	 mov	 DWORD PTR tv3160[ebp], ecx
  000a6	db 45 b8	 fild	 DWORD PTR tv3160[ebp]
  000a9	f3 0f 11 44 24
	0c		 movss	 DWORD PTR [esp+12], xmm0
  000af	85 c9		 test	 ecx, ecx
  000b1	79 06		 jns	 SHORT $LN362@AttackSkil
  000b3	d8 05 00 00 00
	00		 fadd	 DWORD PTR __real@4f800000
$LN362@AttackSkil:
  000b9	d8 75 b4	 fdiv	 DWORD PTR _fTimeRate$[ebp]
  000bc	d9 5d b8	 fstp	 DWORD PTR tv3157[ebp]
  000bf	d9 45 b8	 fld	 DWORD PTR tv3157[ebp]
  000c2	d9 5c 24 08	 fstp	 DWORD PTR [esp+8]
  000c6	89 55 b8	 mov	 DWORD PTR tv3155[ebp], edx
  000c9	db 45 b8	 fild	 DWORD PTR tv3155[ebp]
  000cc	85 d2		 test	 edx, edx
  000ce	79 06		 jns	 SHORT $LN363@AttackSkil
  000d0	d8 05 00 00 00
	00		 fadd	 DWORD PTR __real@4f800000
$LN363@AttackSkil:
  000d6	d9 5c 24 04	 fstp	 DWORD PTR [esp+4]
  000da	89 45 b8	 mov	 DWORD PTR tv3153[ebp], eax
  000dd	db 45 b8	 fild	 DWORD PTR tv3153[ebp]
  000e0	85 c0		 test	 eax, eax
  000e2	79 06		 jns	 SHORT $LN364@AttackSkil
  000e4	d8 05 00 00 00
	00		 fadd	 DWORD PTR __real@4f800000
$LN364@AttackSkil:
  000ea	d9 1c 24	 fstp	 DWORD PTR [esp]
  000ed	ff 75 b0	 push	 DWORD PTR _iAniID$[ebp]
  000f0	8b cf		 mov	 ecx, edi
  000f2	ff 15 00 00 00
	00		 call	 DWORD PTR __imp_?SetLoopAni@ioEntityGroup@@QAE_NHMMMM@Z

; 92   : 
; 93   : 	pChar->AttachEffect( m_SkillEffectName );

  000f8	6a 01		 push	 1
  000fa	33 ff		 xor	 edi, edi
  000fc	57		 push	 edi
  000fd	8d 86 b8 01 00
	00		 lea	 eax, DWORD PTR [esi+440]
  00103	50		 push	 eax
  00104	8b cb		 mov	 ecx, ebx
  00106	e8 00 00 00 00	 call	 ?AttachEffect@ioBaseChar@@QAEPAVioEffect@@ABVioHashString@@PAVioEntityEvent@@_N@Z ; ioBaseChar::AttachEffect

; 94   : 	pChar->RefreshFireTimeListWithBase( m_dwWeaponBaseIndex,
; 95   : 										iAniID,
; 96   : 										GetAttribute().m_vWeaponInfoList,
; 97   : 										FTT_SKILL_ATTACK,
; 98   : 										fTimeRate,
; 99   : 										0 );

  0010b	f3 0f 10 45 b4	 movss	 xmm0, DWORD PTR _fTimeRate$[ebp]
  00110	8b 06		 mov	 eax, DWORD PTR [esi]
  00112	57		 push	 edi
  00113	57		 push	 edi
  00114	51		 push	 ecx
  00115	f3 0f 11 04 24	 movss	 DWORD PTR [esp], xmm0
  0011a	6a 04		 push	 4
  0011c	8b ce		 mov	 ecx, esi
  0011e	ff 90 a4 01 00
	00		 call	 DWORD PTR [eax+420]
  00124	83 c0 28	 add	 eax, 40			; 00000028H
  00127	50		 push	 eax
  00128	ff 75 b0	 push	 DWORD PTR _iAniID$[ebp]
  0012b	8b cb		 mov	 ecx, ebx
  0012d	ff 76 78	 push	 DWORD PTR [esi+120]
  00130	e8 00 00 00 00	 call	 ?RefreshFireTimeListWithBase@ioBaseChar@@QAEXKHABV?$vector@UWeaponInfo@@V?$allocator@UWeaponInfo@@@std@@@std@@W4FireTimeType@@MK_N@Z ; ioBaseChar::RefreshFireTimeListWithBase

; 100  : 
; 101  : 
; 102  : 	DWORD dwCurTime = FRAMEGETTIME();

  00135	ff 15 00 00 00
	00		 call	 DWORD PTR __imp_?GetSingleton@ioFrameTimer@@SAAAV1@XZ
  0013b	8b c8		 mov	 ecx, eax
  0013d	ff 15 00 00 00
	00		 call	 DWORD PTR __imp_?GetLoopSec@ioFrameTimer@@QBEKXZ
  00143	8b f8		 mov	 edi, eax

; 103  : 	m_dwMotionStartTime = m_dwMotionEndTime = dwCurTime;

  00145	8d 45 b8	 lea	 eax, DWORD PTR _value$545844[ebp]
  00148	50		 push	 eax
  00149	8d 8e a8 02 00
	00		 lea	 ecx, DWORD PTR [esi+680]
  0014f	89 be d8 02 00
	00		 mov	 DWORD PTR [esi+728], edi
  00155	89 7d b8	 mov	 DWORD PTR _value$545844[ebp], edi
  00158	e8 00 00 00 00	 call	 ?EncryptValueToPool@?$CEncrypt@K@@AAEXPBD@Z ; CEncrypt<unsigned long>::EncryptValueToPool

; 104  : 	m_dwMotionEndTime += m_dwLoopTime;

  0015d	8b 86 e4 10 00
	00		 mov	 eax, DWORD PTR [esi+4324]
  00163	01 86 d8 02 00
	00		 add	 DWORD PTR [esi+728], eax
  00169	6a 03		 push	 3

; 105  : 
; 106  : 	m_dwFireMotionEndTime = dwCurTime;

  0016b	89 be 24 02 00
	00		 mov	 DWORD PTR [esi+548], edi

; 107  : 	m_dwFireMotionEndTime += pGrp->GetAnimationEventTime_e( iAniID, "firemotion_e" ) * fTimeRate;

  00171	c7 45 cc 8b 85
	99 8f		 mov	 DWORD PTR _szEncEventType$545878[ebp], -1885764213 ; 8f99858bH
  00178	c7 45 d0 80 83
	9f 83		 mov	 DWORD PTR _szEncEventType$545878[ebp+4], -2086698112 ; 839f8380H
  0017f	c7 45 d4 82 82
	b4 8f		 mov	 DWORD PTR _szEncEventType$545878[ebp+8], -1883995518 ; 8fb48282H
  00186	8d 45 cc	 lea	 eax, DWORD PTR _szEncEventType$545878[ebp]
  00189	c6 45 d8 00	 mov	 BYTE PTR _szEncEventType$545878[ebp+12], 0
  0018d	59		 pop	 ecx
$LL127@AttackSkil:
  0018e	81 30 ed ec eb
	ea		 xor	 DWORD PTR [eax], -353637139 ; eaebecedH
  00194	83 c0 04	 add	 eax, 4
  00197	49		 dec	 ecx
  00198	75 f4		 jne	 SHORT $LL127@AttackSkil
  0019a	8d 45 cc	 lea	 eax, DWORD PTR _szEncEventType$545878[ebp]
  0019d	50		 push	 eax
  0019e	8d 4d e0	 lea	 ecx, DWORD PTR $T545865[ebp]
  001a1	ff 15 00 00 00
	00		 call	 DWORD PTR __imp_??0ioHashString@@QAE@PBD@Z
  001a7	8b 4d ac	 mov	 ecx, DWORD PTR _pGrp$[ebp]
  001aa	83 65 fc 00	 and	 DWORD PTR __$EHRec$[ebp+8], 0
  001ae	8d 45 e0	 lea	 eax, DWORD PTR $T545865[ebp]
  001b1	50		 push	 eax
  001b2	ff 75 b0	 push	 DWORD PTR _iAniID$[ebp]
  001b5	ff 15 00 00 00
	00		 call	 DWORD PTR __imp_?GetAnimationEventTime@ioEntityGroup@@QAEMHABVioHashString@@@Z
  001bb	d9 5d b8	 fstp	 DWORD PTR $T545864[ebp]
  001be	83 4d fc ff	 or	 DWORD PTR __$EHRec$[ebp+8], -1
  001c2	8d 4d e0	 lea	 ecx, DWORD PTR $T545865[ebp]
  001c5	ff 15 00 00 00
	00		 call	 DWORD PTR __imp_??1ioHashString@@QAE@XZ
  001cb	d9 45 b8	 fld	 DWORD PTR $T545864[ebp]
  001ce	8b 86 24 02 00
	00		 mov	 eax, DWORD PTR [esi+548]
  001d4	d8 4d b4	 fmul	 DWORD PTR _fTimeRate$[ebp]
  001d7	db 86 24 02 00
	00		 fild	 DWORD PTR [esi+548]
  001dd	85 c0		 test	 eax, eax
  001df	79 06		 jns	 SHORT $LN365@AttackSkil
  001e1	dc 05 00 00 00
	00		 fadd	 QWORD PTR __real@41f0000000000000
$LN365@AttackSkil:
  001e7	de c1		 faddp	 ST(1), ST(0)
  001e9	e8 00 00 00 00	 call	 __ftol2
  001ee	6a 02		 push	 2
  001f0	89 86 24 02 00
	00		 mov	 DWORD PTR [esi+548], eax

; 108  : 
; 109  : 	m_dwEnableReserveTime = dwCurTime;

  001f6	89 be dc 02 00
	00		 mov	 DWORD PTR [esi+732], edi

; 110  : 	m_dwEnableReserveTime += pGrp->GetAnimationEventTime_e( iAniID, "key_reserve" ) * fTimeRate;

  001fc	c7 45 e0 86 89
	92 b5		 mov	 DWORD PTR _szEncEventType$546008[ebp], -1248687738 ; b5928986H
  00203	c7 45 e4 9f 89
	98 8f		 mov	 DWORD PTR _szEncEventType$546008[ebp+4], -1885828705 ; 8f98899fH
  0020a	8d 45 e0	 lea	 eax, DWORD PTR _szEncEventType$546008[ebp]
  0020d	c7 45 e8 9f 9a
	8e 00		 mov	 DWORD PTR _szEncEventType$546008[ebp+8], 9345695 ; 008e9a9fH
  00214	59		 pop	 ecx
$LL234@AttackSkil:
  00215	81 30 ed ec eb
	ea		 xor	 DWORD PTR [eax], -353637139 ; eaebecedH
  0021b	83 c0 04	 add	 eax, 4
  0021e	49		 dec	 ecx
  0021f	75 f4		 jne	 SHORT $LL234@AttackSkil
  00221	6a 08		 push	 8
  00223	58		 pop	 eax
$LL231@AttackSkil:
  00224	8b c8		 mov	 ecx, eax
  00226	81 e1 03 00 00
	80		 and	 ecx, -2147483645	; 80000003H
  0022c	79 05		 jns	 SHORT $LN366@AttackSkil
  0022e	49		 dec	 ecx
  0022f	83 c9 fc	 or	 ecx, -4			; fffffffcH
  00232	41		 inc	 ecx
$LN366@AttackSkil:
  00233	b2 ed		 mov	 dl, -19			; ffffffedH
  00235	2a d1		 sub	 dl, cl
  00237	30 54 05 e0	 xor	 BYTE PTR _szEncEventType$546008[ebp+eax], dl
  0023b	40		 inc	 eax
  0023c	83 f8 0b	 cmp	 eax, 11			; 0000000bH
  0023f	7c e3		 jl	 SHORT $LL231@AttackSkil
  00241	8d 45 e0	 lea	 eax, DWORD PTR _szEncEventType$546008[ebp]
  00244	50		 push	 eax
  00245	8d 4d cc	 lea	 ecx, DWORD PTR $T545995[ebp]
  00248	ff 15 00 00 00
	00		 call	 DWORD PTR __imp_??0ioHashString@@QAE@PBD@Z
  0024e	8b 4d ac	 mov	 ecx, DWORD PTR _pGrp$[ebp]
  00251	8d 45 cc	 lea	 eax, DWORD PTR $T545995[ebp]
  00254	50		 push	 eax
  00255	ff 75 b0	 push	 DWORD PTR _iAniID$[ebp]
  00258	c7 45 fc 01 00
	00 00		 mov	 DWORD PTR __$EHRec$[ebp+8], 1
  0025f	ff 15 00 00 00
	00		 call	 DWORD PTR __imp_?GetAnimationEventTime@ioEntityGroup@@QAEMHABVioHashString@@@Z
  00265	d9 5d b8	 fstp	 DWORD PTR $T545994[ebp]
  00268	83 4d fc ff	 or	 DWORD PTR __$EHRec$[ebp+8], -1
  0026c	8d 4d cc	 lea	 ecx, DWORD PTR $T545995[ebp]
  0026f	ff 15 00 00 00
	00		 call	 DWORD PTR __imp_??1ioHashString@@QAE@XZ
  00275	d9 45 b8	 fld	 DWORD PTR $T545994[ebp]
  00278	8b 86 dc 02 00
	00		 mov	 eax, DWORD PTR [esi+732]
  0027e	d8 4d b4	 fmul	 DWORD PTR _fTimeRate$[ebp]
  00281	db 86 dc 02 00
	00		 fild	 DWORD PTR [esi+732]
  00287	85 c0		 test	 eax, eax
  00289	79 06		 jns	 SHORT $LN367@AttackSkil
  0028b	dc 05 00 00 00
	00		 fadd	 QWORD PTR __real@41f0000000000000
$LN367@AttackSkil:
  00291	de c1		 faddp	 ST(1), ST(0)
  00293	e8 00 00 00 00	 call	 __ftol2

; 111  : 
; 112  : 	if( !m_bUseFireEnd )

  00298	80 be e8 10 00
	00 00		 cmp	 BYTE PTR [esi+4328], 0
  0029f	89 86 dc 02 00
	00		 mov	 DWORD PTR [esi+732], eax
  002a5	75 0c		 jne	 SHORT $LN5@AttackSkil

; 113  : 		m_dwFireMotionEndTime = m_dwMotionEndTime;

  002a7	8b 86 d8 02 00
	00		 mov	 eax, DWORD PTR [esi+728]
  002ad	89 86 24 02 00
	00		 mov	 DWORD PTR [esi+548], eax
$LN5@AttackSkil:

; 114  : 
; 115  : 	m_dwAttackEndTime = pGrp->GetAnimationEventTime_e( iAniID, "attack_end" ) * fTimeRate;

  002b3	6a 02		 push	 2
  002b5	5b		 pop	 ebx
  002b6	c7 45 bc 8c 98
	9f 8b		 mov	 DWORD PTR _szEncEventType$546138[ebp], -1952474996 ; 8b9f988cH
  002bd	c7 45 c0 8e 87
	b4 8f		 mov	 DWORD PTR _szEncEventType$546138[ebp+4], -1883994226 ; 8fb4878eH
  002c4	66 c7 45 c4 83
	88		 mov	 WORD PTR _szEncEventType$546138[ebp+8], 34947 ; 00008883H
  002ca	8d 45 bc	 lea	 eax, DWORD PTR _szEncEventType$546138[ebp]
  002cd	c6 45 c6 00	 mov	 BYTE PTR _szEncEventType$546138[ebp+10], 0
  002d1	8b cb		 mov	 ecx, ebx
$LL341@AttackSkil:
  002d3	81 30 ed ec eb
	ea		 xor	 DWORD PTR [eax], -353637139 ; eaebecedH
  002d9	83 c0 04	 add	 eax, 4
  002dc	49		 dec	 ecx
  002dd	75 f4		 jne	 SHORT $LL341@AttackSkil
  002df	6a 08		 push	 8
  002e1	58		 pop	 eax
$LL338@AttackSkil:
  002e2	8b c8		 mov	 ecx, eax
  002e4	81 e1 03 00 00
	80		 and	 ecx, -2147483645	; 80000003H
  002ea	79 05		 jns	 SHORT $LN368@AttackSkil
  002ec	49		 dec	 ecx
  002ed	83 c9 fc	 or	 ecx, -4			; fffffffcH
  002f0	41		 inc	 ecx
$LN368@AttackSkil:
  002f1	b2 ed		 mov	 dl, -19			; ffffffedH
  002f3	2a d1		 sub	 dl, cl
  002f5	30 54 05 bc	 xor	 BYTE PTR _szEncEventType$546138[ebp+eax], dl
  002f9	40		 inc	 eax
  002fa	83 f8 0a	 cmp	 eax, 10			; 0000000aH
  002fd	7c e3		 jl	 SHORT $LL338@AttackSkil
  002ff	8d 45 bc	 lea	 eax, DWORD PTR _szEncEventType$546138[ebp]
  00302	50		 push	 eax
  00303	8d 4d 98	 lea	 ecx, DWORD PTR $T546125[ebp]
  00306	ff 15 00 00 00
	00		 call	 DWORD PTR __imp_??0ioHashString@@QAE@PBD@Z
  0030c	8b 4d ac	 mov	 ecx, DWORD PTR _pGrp$[ebp]
  0030f	8d 45 98	 lea	 eax, DWORD PTR $T546125[ebp]
  00312	89 5d fc	 mov	 DWORD PTR __$EHRec$[ebp+8], ebx
  00315	8b 5d b0	 mov	 ebx, DWORD PTR _iAniID$[ebp]
  00318	50		 push	 eax
  00319	53		 push	 ebx
  0031a	ff 15 00 00 00
	00		 call	 DWORD PTR __imp_?GetAnimationEventTime@ioEntityGroup@@QAEMHABVioHashString@@@Z
  00320	d9 5d b8	 fstp	 DWORD PTR $T546124[ebp]
  00323	83 4d fc ff	 or	 DWORD PTR __$EHRec$[ebp+8], -1
  00327	8d 4d 98	 lea	 ecx, DWORD PTR $T546125[ebp]
  0032a	ff 15 00 00 00
	00		 call	 DWORD PTR __imp_??1ioHashString@@QAE@XZ
  00330	d9 45 b8	 fld	 DWORD PTR $T546124[ebp]
  00333	d8 4d b4	 fmul	 DWORD PTR _fTimeRate$[ebp]
  00336	e8 00 00 00 00	 call	 __ftol2
  0033b	89 86 50 10 00
	00		 mov	 DWORD PTR [esi+4176], eax

; 116  : 	if( m_dwAttackEndTime > 0 )

  00341	85 c0		 test	 eax, eax
  00343	74 0a		 je	 SHORT $LN4@AttackSkil

; 117  : 		m_dwAttackEndTime += dwCurTime;

  00345	03 c7		 add	 eax, edi
  00347	89 86 50 10 00
	00		 mov	 DWORD PTR [esi+4176], eax

; 118  : 	else

  0034d	eb 07		 jmp	 SHORT $LN3@AttackSkil
$LN4@AttackSkil:

; 119  : 		m_dwAttackEndTime = 0;

  0034f	83 a6 50 10 00
	00 00		 and	 DWORD PTR [esi+4176], 0
$LN3@AttackSkil:

; 120  : 
; 121  : 	pChar->CheckCharColSkipSkillTime( iAniID, fTimeRate, GetAttribute().m_dwPreDelay );

  00356	8b 06		 mov	 eax, DWORD PTR [esi]
  00358	8b ce		 mov	 ecx, esi
  0035a	ff 90 a4 01 00
	00		 call	 DWORD PTR [eax+420]
  00360	ff 70 48	 push	 DWORD PTR [eax+72]
  00363	f3 0f 10 45 b4	 movss	 xmm0, DWORD PTR _fTimeRate$[ebp]
  00368	8b 7d a8	 mov	 edi, DWORD PTR _pChar$GSCopy$[ebp]
  0036b	51		 push	 ecx
  0036c	f3 0f 11 04 24	 movss	 DWORD PTR [esp], xmm0
  00371	53		 push	 ebx
  00372	8b cf		 mov	 ecx, edi
  00374	e8 00 00 00 00	 call	 ?CheckCharColSkipSkillTime@ioBaseChar@@QAEXHMK@Z ; ioBaseChar::CheckCharColSkipSkillTime

; 122  : 
; 123  : 	//
; 124  : 	SetExtraAniJump( pChar, iAniID, fTimeRate );

  00379	f3 0f 10 45 b4	 movss	 xmm0, DWORD PTR _fTimeRate$[ebp]
  0037e	51		 push	 ecx
  0037f	f3 0f 11 04 24	 movss	 DWORD PTR [esp], xmm0
  00384	53		 push	 ebx
  00385	57		 push	 edi
  00386	8b ce		 mov	 ecx, esi
  00388	e8 00 00 00 00	 call	 ?SetExtraAniJump@ioSkill@@IAEXPAVioBaseChar@@HM@Z ; ioSkill::SetExtraAniJump

; 125  : 
; 126  : 	pChar->SetReservedSliding( GetAttribute().m_vForceInfoList, iAniID, fTimeRate, 0 );

  0038d	f3 0f 10 05 00
	00 00 00	 movss	 xmm0, DWORD PTR __real@3f800000
  00395	8b 06		 mov	 eax, DWORD PTR [esi]
  00397	6a 01		 push	 1
  00399	51		 push	 ecx
  0039a	f3 0f 11 04 24	 movss	 DWORD PTR [esp], xmm0
  0039f	f3 0f 10 45 b4	 movss	 xmm0, DWORD PTR _fTimeRate$[ebp]
  003a4	6a 00		 push	 0
  003a6	51		 push	 ecx
  003a7	f3 0f 11 04 24	 movss	 DWORD PTR [esp], xmm0
  003ac	53		 push	 ebx
  003ad	8b ce		 mov	 ecx, esi
  003af	ff 90 a4 01 00
	00		 call	 DWORD PTR [eax+420]
  003b5	83 c0 38	 add	 eax, 56			; 00000038H
  003b8	50		 push	 eax
  003b9	8b cf		 mov	 ecx, edi
  003bb	e8 00 00 00 00	 call	 ?SetReservedSliding@ioBaseChar@@QAEXABV?$vector@UForceInfo@@V?$allocator@UForceInfo@@@std@@@std@@HMKM_N@Z ; ioBaseChar::SetReservedSliding

; 127  : 	pChar->ReduceNeedGaugeBySkill( this, GetNeedGauge(pChar->GetCharName()) );

  003c0	8d 87 d4 02 00
	00		 lea	 eax, DWORD PTR [edi+724]
  003c6	50		 push	 eax
  003c7	8b ce		 mov	 ecx, esi
  003c9	e8 00 00 00 00	 call	 ?GetNeedGauge@ioSkill@@QAEMABVioHashString@@@Z ; ioSkill::GetNeedGauge
  003ce	51		 push	 ecx
  003cf	d9 1c 24	 fstp	 DWORD PTR [esp]
  003d2	56		 push	 esi
  003d3	8b cf		 mov	 ecx, edi
  003d5	e8 00 00 00 00	 call	 ?ReduceNeedGaugeBySkill@ioBaseChar@@QAEMPAVioSkill@@M@Z ; ioBaseChar::ReduceNeedGaugeBySkill
  003da	dd d8		 fstp	 ST(0)

; 128  : 	m_bReduceGauge = true;
; 129  : 
; 130  : 
; 131  : 	if( pChar )
; 132  : 	{
; 133  : 		pChar->SetSkillMoveEnable( true, m_bDirection );

  003dc	0f b6 86 e9 10
	00 00		 movzx	 eax, BYTE PTR [esi+4329]
  003e3	50		 push	 eax
  003e4	6a 01		 push	 1
  003e6	8b cf		 mov	 ecx, edi
  003e8	c6 86 50 03 00
	00 01		 mov	 BYTE PTR [esi+848], 1
  003ef	e8 00 00 00 00	 call	 ?SetSkillMoveEnable@ioBaseChar@@QAEX_N0@Z ; ioBaseChar::SetSkillMoveEnable

; 134  : 
; 135  : 		// 사용 아이템 처리
; 136  : 		if( !m_bSetHandMesh && m_bUseItemMesh && !m_HandMesh.IsEmpty() )

  003f4	80 be 0a 0f 00
	00 00		 cmp	 BYTE PTR [esi+3850], 0
  003fb	75 33		 jne	 SHORT $LN1@AttackSkil
  003fd	80 be 08 0f 00
	00 00		 cmp	 BYTE PTR [esi+3848], 0
  00404	74 2a		 je	 SHORT $LN1@AttackSkil
  00406	8d 9e f8 0e 00
	00		 lea	 ebx, DWORD PTR [esi+3832]
  0040c	8b cb		 mov	 ecx, ebx
  0040e	ff 15 00 00 00
	00		 call	 DWORD PTR __imp_?IsEmpty@ioHashString@@QBE_NXZ
  00414	84 c0		 test	 al, al
  00416	75 18		 jne	 SHORT $LN1@AttackSkil

; 137  : 		{
; 138  : 			pChar->ChangeSkillWeaponMesh( this, m_HandMesh, m_bVisibleEquipMesh );

  00418	0f b6 86 09 0f
	00 00		 movzx	 eax, BYTE PTR [esi+3849]
  0041f	50		 push	 eax
  00420	53		 push	 ebx
  00421	56		 push	 esi
  00422	8b cf		 mov	 ecx, edi
  00424	e8 00 00 00 00	 call	 ?ChangeSkillWeaponMesh@ioBaseChar@@QAE_NPAVioSkill@@ABVioHashString@@_N@Z ; ioBaseChar::ChangeSkillWeaponMesh

; 139  : 			m_bSetHandMesh = true;

  00429	c6 86 0a 0f 00
	00 01		 mov	 BYTE PTR [esi+3850], 1
$LN1@AttackSkil:

; 140  : 		}
; 141  : 	}
; 142  : }

  00430	e8 00 00 00 00	 call	 __EH_epilog3_GS
  00435	c2 04 00	 ret	 4
_TEXT	ENDS
;	COMDAT text$x
text$x	SEGMENT
__unwindfunclet$?AttackSkillFire@ioMoveAttackSkill@@MAEXPAVioBaseChar@@@Z$0:
  00000	8d 4d e0	 lea	 ecx, DWORD PTR $T545865[ebp]
  00003	ff 25 00 00 00
	00		 jmp	 DWORD PTR __imp_??1ioHashString@@QAE@XZ
__unwindfunclet$?AttackSkillFire@ioMoveAttackSkill@@MAEXPAVioBaseChar@@@Z$1:
  00009	8d 4d cc	 lea	 ecx, DWORD PTR $T545995[ebp]
  0000c	ff 25 00 00 00
	00		 jmp	 DWORD PTR __imp_??1ioHashString@@QAE@XZ
__unwindfunclet$?AttackSkillFire@ioMoveAttackSkill@@MAEXPAVioBaseChar@@@Z$2:
  00012	8d 4d 98	 lea	 ecx, DWORD PTR $T546125[ebp]
  00015	ff 25 00 00 00
	00		 jmp	 DWORD PTR __imp_??1ioHashString@@QAE@XZ
__ehhandler$?AttackSkillFire@ioMoveAttackSkill@@MAEXPAVioBaseChar@@@Z:
  0001b	8b 54 24 08	 mov	 edx, DWORD PTR [esp+8]
  0001f	8d 42 0c	 lea	 eax, DWORD PTR [edx+12]
  00022	8b 4a 94	 mov	 ecx, DWORD PTR [edx-108]
  00025	33 c8		 xor	 ecx, eax
  00027	e8 00 00 00 00	 call	 @__security_check_cookie@4
  0002c	8b 4a fc	 mov	 ecx, DWORD PTR [edx-4]
  0002f	33 c8		 xor	 ecx, eax
  00031	e8 00 00 00 00	 call	 @__security_check_cookie@4
  00036	b8 00 00 00 00	 mov	 eax, OFFSET __ehfuncinfo$?AttackSkillFire@ioMoveAttackSkill@@MAEXPAVioBaseChar@@@Z
  0003b	e9 00 00 00 00	 jmp	 ___CxxFrameHandler3
text$x	ENDS
?AttackSkillFire@ioMoveAttackSkill@@MAEXPAVioBaseChar@@@Z ENDP ; ioMoveAttackSkill::AttackSkillFire
PUBLIC	??0?$vector@UBulletInfo@@V?$allocator@UBulletInfo@@@std@@@std@@QAE@XZ ; std::vector<BulletInfo,std::allocator<BulletInfo> >::vector<BulletInfo,std::allocator<BulletInfo> >
; Function compile flags: /Ogsp
; File c:\program files (x86)\microsoft visual studio 10.0\vc\include\vector
;	COMDAT ??0?$vector@UBulletInfo@@V?$allocator@UBulletInfo@@@std@@@std@@QAE@XZ
_TEXT	SEGMENT
??0?$vector@UBulletInfo@@V?$allocator@UBulletInfo@@@std@@@std@@QAE@XZ PROC ; std::vector<BulletInfo,std::allocator<BulletInfo> >::vector<BulletInfo,std::allocator<BulletInfo> >, COMDAT
; _this$ = ecx

; 507  : 		{	// construct empty vector

  00000	8b c1		 mov	 eax, ecx
  00002	33 c9		 xor	 ecx, ecx
  00004	89 08		 mov	 DWORD PTR [eax], ecx
  00006	89 48 04	 mov	 DWORD PTR [eax+4], ecx
  00009	89 48 08	 mov	 DWORD PTR [eax+8], ecx

; 508  : 		}

  0000c	c3		 ret	 0
??0?$vector@UBulletInfo@@V?$allocator@UBulletInfo@@@std@@@std@@QAE@XZ ENDP ; std::vector<BulletInfo,std::allocator<BulletInfo> >::vector<BulletInfo,std::allocator<BulletInfo> >
_TEXT	ENDS
PUBLIC	?_Buy@?$vector@UBulletInfo@@V?$allocator@UBulletInfo@@@std@@@std@@IAE_NI@Z ; std::vector<BulletInfo,std::allocator<BulletInfo> >::_Buy
; Function compile flags: /Ogsp
;	COMDAT ?_Buy@?$vector@UBulletInfo@@V?$allocator@UBulletInfo@@@std@@@std@@IAE_NI@Z
_TEXT	SEGMENT
__Capacity$ = 8						; size = 4
?_Buy@?$vector@UBulletInfo@@V?$allocator@UBulletInfo@@@std@@@std@@IAE_NI@Z PROC ; std::vector<BulletInfo,std::allocator<BulletInfo> >::_Buy, COMDAT
; _this$ = ecx

; 1250 : 		{	// allocate array with _Capacity elements

  00000	55		 push	 ebp
  00001	8b ec		 mov	 ebp, esp
  00003	56		 push	 esi

; 1251 : 		this->_Myfirst = 0;

  00004	33 c0		 xor	 eax, eax
  00006	57		 push	 edi

; 1252 : 		this->_Mylast = 0;
; 1253 : 		this->_Myend = 0;
; 1254 : 
; 1255 : 		if (_Capacity == 0)

  00007	8b 7d 08	 mov	 edi, DWORD PTR __Capacity$[ebp]
  0000a	8b f1		 mov	 esi, ecx
  0000c	89 06		 mov	 DWORD PTR [esi], eax
  0000e	89 46 04	 mov	 DWORD PTR [esi+4], eax
  00011	89 46 08	 mov	 DWORD PTR [esi+8], eax
  00014	3b f8		 cmp	 edi, eax
  00016	75 04		 jne	 SHORT $LN4@Buy

; 1256 : 			return (false);

  00018	32 c0		 xor	 al, al
  0001a	eb 2b		 jmp	 SHORT $LN5@Buy
$LN4@Buy:

; 1257 : 		else if (max_size() < _Capacity)

  0001c	81 ff cc cc cc
	0c		 cmp	 edi, 214748364		; 0cccccccH
  00022	76 0b		 jbe	 SHORT $LN2@Buy

; 1258 : 			_Xlen();	// result too long

  00024	68 00 00 00 00	 push	 OFFSET ??_C@_0BD@OLBABOEK@vector?$DMT?$DO?5too?5long?$AA@
  00029	ff 15 00 00 00
	00		 call	 DWORD PTR __imp_?_Xlength_error@std@@YAXPBD@Z
$LN19@Buy:
$LN2@Buy:

; 1259 : 		else
; 1260 : 			{	// nonempty array, allocate storage
; 1261 : 			this->_Myfirst = this->_Alval.allocate(_Capacity);

  0002f	50		 push	 eax
  00030	57		 push	 edi
  00031	e8 00 00 00 00	 call	 ??$_Allocate@UBulletInfo@@@std@@YAPAUBulletInfo@@IPAU1@@Z ; std::_Allocate<BulletInfo>

; 1262 : 			this->_Mylast = this->_Myfirst;
; 1263 : 			this->_Myend = this->_Myfirst + _Capacity;

  00036	6b ff 14	 imul	 edi, 20			; 00000014H
  00039	03 f8		 add	 edi, eax
  0003b	59		 pop	 ecx
  0003c	89 06		 mov	 DWORD PTR [esi], eax
  0003e	89 46 04	 mov	 DWORD PTR [esi+4], eax
  00041	59		 pop	 ecx
  00042	89 7e 08	 mov	 DWORD PTR [esi+8], edi

; 1264 : 			}
; 1265 : 		return (true);

  00045	b0 01		 mov	 al, 1
$LN5@Buy:
  00047	5f		 pop	 edi
  00048	5e		 pop	 esi

; 1266 : 		}

  00049	5d		 pop	 ebp
  0004a	c2 04 00	 ret	 4
$LN18@Buy:
?_Buy@?$vector@UBulletInfo@@V?$allocator@UBulletInfo@@@std@@@std@@IAE_NI@Z ENDP ; std::vector<BulletInfo,std::allocator<BulletInfo> >::_Buy
_TEXT	ENDS
PUBLIC	??9?$_Vector_const_iterator@V?$_Vector_val@UBulletInfo@@V?$allocator@UBulletInfo@@@std@@@std@@@std@@QBE_NABV01@@Z ; std::_Vector_const_iterator<std::_Vector_val<BulletInfo,std::allocator<BulletInfo> > >::operator!=
; Function compile flags: /Ogsp
;	COMDAT ??9?$_Vector_const_iterator@V?$_Vector_val@UBulletInfo@@V?$allocator@UBulletInfo@@@std@@@std@@@std@@QBE_NABV01@@Z
_TEXT	SEGMENT
__Right$ = 8						; size = 4
??9?$_Vector_const_iterator@V?$_Vector_val@UBulletInfo@@V?$allocator@UBulletInfo@@@std@@@std@@@std@@QBE_NABV01@@Z PROC ; std::_Vector_const_iterator<std::_Vector_val<BulletInfo,std::allocator<BulletInfo> > >::operator!=, COMDAT
; _this$ = ecx

; 207  : 		{	// test for iterator inequality

  00000	55		 push	 ebp
  00001	8b ec		 mov	 ebp, esp

; 208  : 		return (!(*this == _Right));

  00003	8b 01		 mov	 eax, DWORD PTR [ecx]
  00005	8b 55 08	 mov	 edx, DWORD PTR __Right$[ebp]
  00008	33 c9		 xor	 ecx, ecx
  0000a	3b 02		 cmp	 eax, DWORD PTR [edx]
  0000c	0f 95 c0	 setne	 al

; 209  : 		}

  0000f	5d		 pop	 ebp
  00010	c2 04 00	 ret	 4
??9?$_Vector_const_iterator@V?$_Vector_val@UBulletInfo@@V?$allocator@UBulletInfo@@@std@@@std@@@std@@QBE_NABV01@@Z ENDP ; std::_Vector_const_iterator<std::_Vector_val<BulletInfo,std::allocator<BulletInfo> > >::operator!=
_TEXT	ENDS
PUBLIC	??$_Cons_val@V?$allocator@UBulletInfo@@@std@@UBulletInfo@@ABU3@@std@@YAXAAV?$allocator@UBulletInfo@@@0@PAUBulletInfo@@ABU2@@Z ; std::_Cons_val<std::allocator<BulletInfo>,BulletInfo,BulletInfo const &>
; Function compile flags: /Ogsp
; File c:\program files (x86)\microsoft visual studio 10.0\vc\include\xmemory
;	COMDAT ??$_Cons_val@V?$allocator@UBulletInfo@@@std@@UBulletInfo@@ABU3@@std@@YAXAAV?$allocator@UBulletInfo@@@0@PAUBulletInfo@@ABU2@@Z
_TEXT	SEGMENT
__Alval$ = 8						; size = 4
__Pdest$ = 12						; size = 4
__Src$ = 16						; size = 4
??$_Cons_val@V?$allocator@UBulletInfo@@@std@@UBulletInfo@@ABU3@@std@@YAXAAV?$allocator@UBulletInfo@@@0@PAUBulletInfo@@ABU2@@Z PROC ; std::_Cons_val<std::allocator<BulletInfo>,BulletInfo,BulletInfo const &>, COMDAT

; 279  : 	{	// construct using allocator

  00000	55		 push	 ebp
  00001	8b ec		 mov	 ebp, esp
  00003	57		 push	 edi

; 280  : 	_Alval.construct(_Pdest, _STD forward<_Ty2>(_Src));

  00004	8b 7d 0c	 mov	 edi, DWORD PTR __Pdest$[ebp]
  00007	85 ff		 test	 edi, edi
  00009	74 0a		 je	 SHORT $LN9@Cons_val@2
  0000b	56		 push	 esi
  0000c	8b 75 10	 mov	 esi, DWORD PTR __Src$[ebp]
  0000f	6a 05		 push	 5
  00011	59		 pop	 ecx
  00012	f3 a5		 rep movsd
  00014	5e		 pop	 esi
$LN9@Cons_val@2:
  00015	5f		 pop	 edi

; 281  : 	}

  00016	5d		 pop	 ebp
  00017	c3		 ret	 0
??$_Cons_val@V?$allocator@UBulletInfo@@@std@@UBulletInfo@@ABU3@@std@@YAXAAV?$allocator@UBulletInfo@@@0@PAUBulletInfo@@ABU2@@Z ENDP ; std::_Cons_val<std::allocator<BulletInfo>,BulletInfo,BulletInfo const &>
_TEXT	ENDS
PUBLIC	??$_Move@PAUBulletInfo@@PAU1@@std@@YAPAUBulletInfo@@PAU1@00@Z ; std::_Move<BulletInfo *,BulletInfo *>
; Function compile flags: /Ogsp
; File c:\program files (x86)\microsoft visual studio 10.0\vc\include\xutility
;	COMDAT ??$_Move@PAUBulletInfo@@PAU1@@std@@YAPAUBulletInfo@@PAU1@00@Z
_TEXT	SEGMENT
__Cat$546374 = -4					; size = 1
__First$ = 8						; size = 4
__Last$ = 12						; size = 4
__Dest$ = 16						; size = 4
??$_Move@PAUBulletInfo@@PAU1@@std@@YAPAUBulletInfo@@PAU1@00@Z PROC ; std::_Move<BulletInfo *,BulletInfo *>, COMDAT

; 2533 : 	{	// move [_First, _Last) to [_Dest, ...), unchecked

  00000	55		 push	 ebp
  00001	8b ec		 mov	 ebp, esp
  00003	51		 push	 ecx

; 2534 : 	return (_Move(_First, _Last,
; 2535 : 		_Dest, _Ptr_cat(_First, _Dest)));

  00004	ff 75 fc	 push	 DWORD PTR __Cat$546374[ebp]
  00007	ff 75 10	 push	 DWORD PTR __Dest$[ebp]
  0000a	ff 75 0c	 push	 DWORD PTR __Last$[ebp]
  0000d	ff 75 08	 push	 DWORD PTR __First$[ebp]
  00010	e8 00 00 00 00	 call	 ??$_Move@PAUBulletInfo@@PAU1@@std@@YAPAUBulletInfo@@PAU1@00U_Nonscalar_ptr_iterator_tag@0@@Z ; std::_Move<BulletInfo *,BulletInfo *>
  00015	83 c4 10	 add	 esp, 16			; 00000010H

; 2536 : 	}

  00018	c9		 leave
  00019	c3		 ret	 0
??$_Move@PAUBulletInfo@@PAU1@@std@@YAPAUBulletInfo@@PAU1@00@Z ENDP ; std::_Move<BulletInfo *,BulletInfo *>
_TEXT	ENDS
PUBLIC	??$_Dest_val@V?$allocator@UBulletInfo@@@std@@UBulletInfo@@@std@@YAXAAV?$allocator@UBulletInfo@@@0@PAUBulletInfo@@@Z ; std::_Dest_val<std::allocator<BulletInfo>,BulletInfo>
; Function compile flags: /Ogsp
; File c:\program files (x86)\microsoft visual studio 10.0\vc\include\xmemory
;	COMDAT ??$_Dest_val@V?$allocator@UBulletInfo@@@std@@UBulletInfo@@@std@@YAXAAV?$allocator@UBulletInfo@@@0@PAUBulletInfo@@@Z
_TEXT	SEGMENT
__Alval$ = 8						; size = 4
__Pdest$ = 12						; size = 4
??$_Dest_val@V?$allocator@UBulletInfo@@@std@@UBulletInfo@@@std@@YAXAAV?$allocator@UBulletInfo@@@0@PAUBulletInfo@@@Z PROC ; std::_Dest_val<std::allocator<BulletInfo>,BulletInfo>, COMDAT

; 287  : 	_Alval.destroy(_Pdest);
; 288  : 	}

  00000	c3		 ret	 0
??$_Dest_val@V?$allocator@UBulletInfo@@@std@@UBulletInfo@@@std@@YAXAAV?$allocator@UBulletInfo@@@0@PAUBulletInfo@@@Z ENDP ; std::_Dest_val<std::allocator<BulletInfo>,BulletInfo>
_TEXT	ENDS
PUBLIC	??$_Cons_val@V?$allocator@UBulletInfo@@@std@@UBulletInfo@@U3@@std@@YAXAAV?$allocator@UBulletInfo@@@0@PAUBulletInfo@@$$QAU2@@Z ; std::_Cons_val<std::allocator<BulletInfo>,BulletInfo,BulletInfo>
; Function compile flags: /Ogsp
;	COMDAT ??$_Cons_val@V?$allocator@UBulletInfo@@@std@@UBulletInfo@@U3@@std@@YAXAAV?$allocator@UBulletInfo@@@0@PAUBulletInfo@@$$QAU2@@Z
_TEXT	SEGMENT
__Alval$ = 8						; size = 4
__Pdest$ = 12						; size = 4
__Src$ = 16						; size = 4
??$_Cons_val@V?$allocator@UBulletInfo@@@std@@UBulletInfo@@U3@@std@@YAXAAV?$allocator@UBulletInfo@@@0@PAUBulletInfo@@$$QAU2@@Z PROC ; std::_Cons_val<std::allocator<BulletInfo>,BulletInfo,BulletInfo>, COMDAT

; 279  : 	{	// construct using allocator

  00000	55		 push	 ebp
  00001	8b ec		 mov	 ebp, esp
  00003	57		 push	 edi

; 280  : 	_Alval.construct(_Pdest, _STD forward<_Ty2>(_Src));

  00004	8b 7d 0c	 mov	 edi, DWORD PTR __Pdest$[ebp]
  00007	85 ff		 test	 edi, edi
  00009	74 0a		 je	 SHORT $LN7@Cons_val@3
  0000b	56		 push	 esi
  0000c	8b 75 10	 mov	 esi, DWORD PTR __Src$[ebp]
  0000f	6a 05		 push	 5
  00011	59		 pop	 ecx
  00012	f3 a5		 rep movsd
  00014	5e		 pop	 esi
$LN7@Cons_val@3:
  00015	5f		 pop	 edi

; 281  : 	}

  00016	5d		 pop	 ebp
  00017	c3		 ret	 0
??$_Cons_val@V?$allocator@UBulletInfo@@@std@@UBulletInfo@@U3@@std@@YAXAAV?$allocator@UBulletInfo@@@0@PAUBulletInfo@@$$QAU2@@Z ENDP ; std::_Cons_val<std::allocator<BulletInfo>,BulletInfo,BulletInfo>
_TEXT	ENDS
PUBLIC	??$_Destroy_range@V?$allocator@UBulletInfo@@@std@@@std@@YAXPAUBulletInfo@@0AAV?$allocator@UBulletInfo@@@0@U_Nonscalar_ptr_iterator_tag@0@@Z ; std::_Destroy_range<std::allocator<BulletInfo> >
; Function compile flags: /Ogsp
;	COMDAT ??$_Destroy_range@V?$allocator@UBulletInfo@@@std@@@std@@YAXPAUBulletInfo@@0AAV?$allocator@UBulletInfo@@@0@U_Nonscalar_ptr_iterator_tag@0@@Z
_TEXT	SEGMENT
__First$ = 8						; size = 4
__Last$ = 12						; size = 4
__Al$ = 16						; size = 4
___formal$ = 20						; size = 1
??$_Destroy_range@V?$allocator@UBulletInfo@@@std@@@std@@YAXPAUBulletInfo@@0AAV?$allocator@UBulletInfo@@@0@U_Nonscalar_ptr_iterator_tag@0@@Z PROC ; std::_Destroy_range<std::allocator<BulletInfo> >, COMDAT

; 96   : 	for (; _First != _Last; ++_First)
; 97   : 		_Dest_val(_Al, _First);
; 98   : 	}

  00000	c3		 ret	 0
??$_Destroy_range@V?$allocator@UBulletInfo@@@std@@@std@@YAXPAUBulletInfo@@0AAV?$allocator@UBulletInfo@@@0@U_Nonscalar_ptr_iterator_tag@0@@Z ENDP ; std::_Destroy_range<std::allocator<BulletInfo> >
_TEXT	ENDS
PUBLIC	??$_Uninit_copy@V?$_Vector_const_iterator@V?$_Vector_val@UBulletInfo@@V?$allocator@UBulletInfo@@@std@@@std@@@std@@PAUBulletInfo@@V?$allocator@UBulletInfo@@@2@@std@@YAPAUBulletInfo@@V?$_Vector_const_iterator@V?$_Vector_val@UBulletInfo@@V?$allocator@UBulletInfo@@@std@@@std@@@0@0PAU1@AAV?$allocator@UBulletInfo@@@0@U_Nonscalar_ptr_iterator_tag@0@@Z ; std::_Uninit_copy<std::_Vector_const_iterator<std::_Vector_val<BulletInfo,std::allocator<BulletInfo> > >,BulletInfo *,std::allocator<BulletInfo> >
; Function compile flags: /Ogsp
; File c:\program files (x86)\microsoft visual studio 10.0\vc\include\memory
;	COMDAT ??$_Uninit_copy@V?$_Vector_const_iterator@V?$_Vector_val@UBulletInfo@@V?$allocator@UBulletInfo@@@std@@@std@@@std@@PAUBulletInfo@@V?$allocator@UBulletInfo@@@2@@std@@YAPAUBulletInfo@@V?$_Vector_const_iterator@V?$_Vector_val@UBulletInfo@@V?$allocator@UBulletInfo@@@std@@@std@@@0@0PAU1@AAV?$allocator@UBulletInfo@@@0@U_Nonscalar_ptr_iterator_tag@0@@Z
_TEXT	SEGMENT
__First$ = 8						; size = 4
__Last$ = 12						; size = 4
__Dest$ = 16						; size = 4
__Al$ = 20						; size = 4
___formal$ = 24						; size = 1
??$_Uninit_copy@V?$_Vector_const_iterator@V?$_Vector_val@UBulletInfo@@V?$allocator@UBulletInfo@@@std@@@std@@@std@@PAUBulletInfo@@V?$allocator@UBulletInfo@@@2@@std@@YAPAUBulletInfo@@V?$_Vector_const_iterator@V?$_Vector_val@UBulletInfo@@V?$allocator@UBulletInfo@@@std@@@std@@@0@0PAU1@AAV?$allocator@UBulletInfo@@@0@U_Nonscalar_ptr_iterator_tag@0@@Z PROC ; std::_Uninit_copy<std::_Vector_const_iterator<std::_Vector_val<BulletInfo,std::allocator<BulletInfo> > >,BulletInfo *,std::allocator<BulletInfo> >, COMDAT

; 369  : 	{	// copy [_First, _Last) to raw _Dest, using _Al, arbitrary type

  00000	55		 push	 ebp
  00001	8b ec		 mov	 ebp, esp

; 370  : 	_DEBUG_RANGE(_First, _Last);
; 371  : 	_DEBUG_POINTER(_Dest);
; 372  : 	_FwdIt _Next = _Dest;
; 373  : 
; 374  : 	_TRY_BEGIN
; 375  : 	for (; _First != _Last; ++_Dest, ++_First)

  00003	eb 19		 jmp	 SHORT $LN35@Uninit_cop
$LL14@Uninit_cop:

; 376  : 		_Cons_val(_Al, _Dest, *_First);

  00005	ff 75 08	 push	 DWORD PTR __First$[ebp]
  00008	ff 75 10	 push	 DWORD PTR __Dest$[ebp]
  0000b	ff 75 14	 push	 DWORD PTR __Al$[ebp]
  0000e	e8 00 00 00 00	 call	 ??$_Cons_val@V?$allocator@UBulletInfo@@@std@@UBulletInfo@@ABU3@@std@@YAXAAV?$allocator@UBulletInfo@@@0@PAUBulletInfo@@ABU2@@Z ; std::_Cons_val<std::allocator<BulletInfo>,BulletInfo,BulletInfo const &>
  00013	83 45 10 14	 add	 DWORD PTR __Dest$[ebp], 20 ; 00000014H
  00017	83 c4 0c	 add	 esp, 12			; 0000000cH
  0001a	83 45 08 14	 add	 DWORD PTR __First$[ebp], 20 ; 00000014H
$LN35@Uninit_cop:

; 370  : 	_DEBUG_RANGE(_First, _Last);
; 371  : 	_DEBUG_POINTER(_Dest);
; 372  : 	_FwdIt _Next = _Dest;
; 373  : 
; 374  : 	_TRY_BEGIN
; 375  : 	for (; _First != _Last; ++_Dest, ++_First)

  0001e	8b 45 08	 mov	 eax, DWORD PTR __First$[ebp]
  00021	3b 45 0c	 cmp	 eax, DWORD PTR __Last$[ebp]
  00024	75 df		 jne	 SHORT $LL14@Uninit_cop

; 377  : 	_CATCH_ALL
; 378  : 	for (; _Next != _Dest; ++_Next)
; 379  : 		_Dest_val(_Al, _Next);
; 380  : 	_RERAISE;
; 381  : 	_CATCH_END
; 382  : 	return (_Dest);

  00026	8b 45 10	 mov	 eax, DWORD PTR __Dest$[ebp]

; 383  : 	}

  00029	5d		 pop	 ebp
  0002a	c3		 ret	 0
??$_Uninit_copy@V?$_Vector_const_iterator@V?$_Vector_val@UBulletInfo@@V?$allocator@UBulletInfo@@@std@@@std@@@std@@PAUBulletInfo@@V?$allocator@UBulletInfo@@@2@@std@@YAPAUBulletInfo@@V?$_Vector_const_iterator@V?$_Vector_val@UBulletInfo@@V?$allocator@UBulletInfo@@@std@@@std@@@0@0PAU1@AAV?$allocator@UBulletInfo@@@0@U_Nonscalar_ptr_iterator_tag@0@@Z ENDP ; std::_Uninit_copy<std::_Vector_const_iterator<std::_Vector_val<BulletInfo,std::allocator<BulletInfo> > >,BulletInfo *,std::allocator<BulletInfo> >
_TEXT	ENDS
PUBLIC	??$_Uninit_move@PAUBulletInfo@@PAU1@V?$allocator@UBulletInfo@@@std@@U1@@std@@YAPAUBulletInfo@@PAU1@00AAV?$allocator@UBulletInfo@@@0@0U_Nonscalar_ptr_iterator_tag@0@@Z ; std::_Uninit_move<BulletInfo *,BulletInfo *,std::allocator<BulletInfo>,BulletInfo>
; Function compile flags: /Ogsp
;	COMDAT ??$_Uninit_move@PAUBulletInfo@@PAU1@V?$allocator@UBulletInfo@@@std@@U1@@std@@YAPAUBulletInfo@@PAU1@00AAV?$allocator@UBulletInfo@@@0@0U_Nonscalar_ptr_iterator_tag@0@@Z
_TEXT	SEGMENT
__First$ = 8						; size = 4
__Last$ = 12						; size = 4
__Dest$ = 16						; size = 4
__Al$ = 20						; size = 4
___formal$ = 24						; size = 4
___formal$ = 28						; size = 1
??$_Uninit_move@PAUBulletInfo@@PAU1@V?$allocator@UBulletInfo@@@std@@U1@@std@@YAPAUBulletInfo@@PAU1@00AAV?$allocator@UBulletInfo@@@0@0U_Nonscalar_ptr_iterator_tag@0@@Z PROC ; std::_Uninit_move<BulletInfo *,BulletInfo *,std::allocator<BulletInfo>,BulletInfo>, COMDAT

; 424  : 	{	// move [_First, _Last) to raw _Dest, using _Al, arbitrary type

  00000	55		 push	 ebp
  00001	8b ec		 mov	 ebp, esp
  00003	56		 push	 esi

; 425  : 	_DEBUG_RANGE(_First, _Last);
; 426  : 	_DEBUG_POINTER(_Dest);
; 427  : 	_FwdIt _Next = _Dest;
; 428  : 
; 429  : 	_TRY_BEGIN
; 430  : 	for (; _First != _Last; ++_Dest, ++_First)

  00004	8b 75 08	 mov	 esi, DWORD PTR __First$[ebp]
  00007	eb 16		 jmp	 SHORT $LN24@Uninit_mov
$LL6@Uninit_mov:

; 431  : 		_Cons_val(_Al, _Dest, (_Valty &&)*_First);

  00009	56		 push	 esi
  0000a	ff 75 10	 push	 DWORD PTR __Dest$[ebp]
  0000d	ff 75 14	 push	 DWORD PTR __Al$[ebp]
  00010	e8 00 00 00 00	 call	 ??$_Cons_val@V?$allocator@UBulletInfo@@@std@@UBulletInfo@@U3@@std@@YAXAAV?$allocator@UBulletInfo@@@0@PAUBulletInfo@@$$QAU2@@Z ; std::_Cons_val<std::allocator<BulletInfo>,BulletInfo,BulletInfo>
  00015	83 45 10 14	 add	 DWORD PTR __Dest$[ebp], 20 ; 00000014H
  00019	83 c4 0c	 add	 esp, 12			; 0000000cH
  0001c	83 c6 14	 add	 esi, 20			; 00000014H
$LN24@Uninit_mov:

; 425  : 	_DEBUG_RANGE(_First, _Last);
; 426  : 	_DEBUG_POINTER(_Dest);
; 427  : 	_FwdIt _Next = _Dest;
; 428  : 
; 429  : 	_TRY_BEGIN
; 430  : 	for (; _First != _Last; ++_Dest, ++_First)

  0001f	3b 75 0c	 cmp	 esi, DWORD PTR __Last$[ebp]
  00022	75 e5		 jne	 SHORT $LL6@Uninit_mov

; 432  : 	_CATCH_ALL
; 433  : 	for (; _Next != _Dest; ++_Next)
; 434  : 		_Dest_val(_Al, _Next);
; 435  : 	_RERAISE;
; 436  : 	_CATCH_END
; 437  : 	return (_Dest);

  00024	8b 45 10	 mov	 eax, DWORD PTR __Dest$[ebp]
  00027	5e		 pop	 esi

; 438  : 	}

  00028	5d		 pop	 ebp
  00029	c3		 ret	 0
??$_Uninit_move@PAUBulletInfo@@PAU1@V?$allocator@UBulletInfo@@@std@@U1@@std@@YAPAUBulletInfo@@PAU1@00AAV?$allocator@UBulletInfo@@@0@0U_Nonscalar_ptr_iterator_tag@0@@Z ENDP ; std::_Uninit_move<BulletInfo *,BulletInfo *,std::allocator<BulletInfo>,BulletInfo>
_TEXT	ENDS
PUBLIC	??$_Destroy_range@V?$allocator@UBulletInfo@@@std@@@std@@YAXPAUBulletInfo@@0AAV?$allocator@UBulletInfo@@@0@@Z ; std::_Destroy_range<std::allocator<BulletInfo> >
; Function compile flags: /Ogsp
; File c:\program files (x86)\microsoft visual studio 10.0\vc\include\xmemory
;	COMDAT ??$_Destroy_range@V?$allocator@UBulletInfo@@@std@@@std@@YAXPAUBulletInfo@@0AAV?$allocator@UBulletInfo@@@0@@Z
_TEXT	SEGMENT
__First$ = 8						; size = 4
__Last$ = 12						; size = 4
__Al$ = 16						; size = 4
??$_Destroy_range@V?$allocator@UBulletInfo@@@std@@@std@@YAXPAUBulletInfo@@0AAV?$allocator@UBulletInfo@@@0@@Z PROC ; std::_Destroy_range<std::allocator<BulletInfo> >, COMDAT

; 88   : 	_Destroy_range(_First, _Last, _Al, _Ptr_cat(_First, _Last));
; 89   : 	}

  00000	c3		 ret	 0
??$_Destroy_range@V?$allocator@UBulletInfo@@@std@@@std@@YAXPAUBulletInfo@@0AAV?$allocator@UBulletInfo@@@0@@Z ENDP ; std::_Destroy_range<std::allocator<BulletInfo> >
_TEXT	ENDS
PUBLIC	??$_Uninitialized_copy@V?$_Vector_const_iterator@V?$_Vector_val@UBulletInfo@@V?$allocator@UBulletInfo@@@std@@@std@@@std@@PAUBulletInfo@@V?$allocator@UBulletInfo@@@2@@std@@YAPAUBulletInfo@@V?$_Vector_const_iterator@V?$_Vector_val@UBulletInfo@@V?$allocator@UBulletInfo@@@std@@@std@@@0@0PAU1@AAV?$allocator@UBulletInfo@@@0@@Z ; std::_Uninitialized_copy<std::_Vector_const_iterator<std::_Vector_val<BulletInfo,std::allocator<BulletInfo> > >,BulletInfo *,std::allocator<BulletInfo> >
; Function compile flags: /Ogsp
; File c:\program files (x86)\microsoft visual studio 10.0\vc\include\memory
;	COMDAT ??$_Uninitialized_copy@V?$_Vector_const_iterator@V?$_Vector_val@UBulletInfo@@V?$allocator@UBulletInfo@@@std@@@std@@@std@@PAUBulletInfo@@V?$allocator@UBulletInfo@@@2@@std@@YAPAUBulletInfo@@V?$_Vector_const_iterator@V?$_Vector_val@UBulletInfo@@V?$allocator@UBulletInfo@@@std@@@std@@@0@0PAU1@AAV?$allocator@UBulletInfo@@@0@@Z
_TEXT	SEGMENT
__Cat$546554 = -4					; size = 1
__First$ = 8						; size = 4
__Last$ = 12						; size = 4
__Dest$ = 16						; size = 4
__Al$ = 20						; size = 4
??$_Uninitialized_copy@V?$_Vector_const_iterator@V?$_Vector_val@UBulletInfo@@V?$allocator@UBulletInfo@@@std@@@std@@@std@@PAUBulletInfo@@V?$allocator@UBulletInfo@@@2@@std@@YAPAUBulletInfo@@V?$_Vector_const_iterator@V?$_Vector_val@UBulletInfo@@V?$allocator@UBulletInfo@@@std@@@std@@@0@0PAU1@AAV?$allocator@UBulletInfo@@@0@@Z PROC ; std::_Uninitialized_copy<std::_Vector_const_iterator<std::_Vector_val<BulletInfo,std::allocator<BulletInfo> > >,BulletInfo *,std::allocator<BulletInfo> >, COMDAT

; 412  : 	{	// copy [_First, _Last) to raw _Dest, using _Al

  00000	55		 push	 ebp
  00001	8b ec		 mov	 ebp, esp
  00003	51		 push	 ecx

; 413  : 	return (_Uninit_copy(_First, _Last, _Dest, _Al,
; 414  : 		_Ptr_cat(_First, _Dest)));

  00004	ff 75 fc	 push	 DWORD PTR __Cat$546554[ebp]
  00007	ff 75 14	 push	 DWORD PTR __Al$[ebp]
  0000a	ff 75 10	 push	 DWORD PTR __Dest$[ebp]
  0000d	ff 75 0c	 push	 DWORD PTR __Last$[ebp]
  00010	ff 75 08	 push	 DWORD PTR __First$[ebp]
  00013	e8 00 00 00 00	 call	 ??$_Uninit_copy@V?$_Vector_const_iterator@V?$_Vector_val@UBulletInfo@@V?$allocator@UBulletInfo@@@std@@@std@@@std@@PAUBulletInfo@@V?$allocator@UBulletInfo@@@2@@std@@YAPAUBulletInfo@@V?$_Vector_const_iterator@V?$_Vector_val@UBulletInfo@@V?$allocator@UBulletInfo@@@std@@@std@@@0@0PAU1@AAV?$allocator@UBulletInfo@@@0@U_Nonscalar_ptr_iterator_tag@0@@Z ; std::_Uninit_copy<std::_Vector_const_iterator<std::_Vector_val<BulletInfo,std::allocator<BulletInfo> > >,BulletInfo *,std::allocator<BulletInfo> >
  00018	83 c4 14	 add	 esp, 20			; 00000014H

; 415  : 	}

  0001b	c9		 leave
  0001c	c3		 ret	 0
??$_Uninitialized_copy@V?$_Vector_const_iterator@V?$_Vector_val@UBulletInfo@@V?$allocator@UBulletInfo@@@std@@@std@@@std@@PAUBulletInfo@@V?$allocator@UBulletInfo@@@2@@std@@YAPAUBulletInfo@@V?$_Vector_const_iterator@V?$_Vector_val@UBulletInfo@@V?$allocator@UBulletInfo@@@std@@@std@@@0@0PAU1@AAV?$allocator@UBulletInfo@@@0@@Z ENDP ; std::_Uninitialized_copy<std::_Vector_const_iterator<std::_Vector_val<BulletInfo,std::allocator<BulletInfo> > >,BulletInfo *,std::allocator<BulletInfo> >
_TEXT	ENDS
PUBLIC	??$_Uninitialized_move@PAUBulletInfo@@PAU1@V?$allocator@UBulletInfo@@@std@@@std@@YAPAUBulletInfo@@PAU1@00AAV?$allocator@UBulletInfo@@@0@@Z ; std::_Uninitialized_move<BulletInfo *,BulletInfo *,std::allocator<BulletInfo> >
; Function compile flags: /Ogsp
;	COMDAT ??$_Uninitialized_move@PAUBulletInfo@@PAU1@V?$allocator@UBulletInfo@@@std@@@std@@YAPAUBulletInfo@@PAU1@00AAV?$allocator@UBulletInfo@@@0@@Z
_TEXT	SEGMENT
__Cat$546560 = -4					; size = 1
__First$ = 8						; size = 4
__Last$ = 12						; size = 4
__Dest$ = 16						; size = 4
__Al$ = 20						; size = 4
??$_Uninitialized_move@PAUBulletInfo@@PAU1@V?$allocator@UBulletInfo@@@std@@@std@@YAPAUBulletInfo@@PAU1@00AAV?$allocator@UBulletInfo@@@0@@Z PROC ; std::_Uninitialized_move<BulletInfo *,BulletInfo *,std::allocator<BulletInfo> >, COMDAT

; 469  : 	{	// move [_First, _Last) to raw _Dest, using _Al

  00000	55		 push	 ebp
  00001	8b ec		 mov	 ebp, esp
  00003	51		 push	 ecx

; 470  : 	return (_Uninit_move(_First, _Last, _Dest, _Al,
; 471  : 		_Val_type(_First), _Ptr_cat(_First, _Dest)));

  00004	ff 75 fc	 push	 DWORD PTR __Cat$546560[ebp]
  00007	6a 00		 push	 0
  00009	ff 75 14	 push	 DWORD PTR __Al$[ebp]
  0000c	ff 75 10	 push	 DWORD PTR __Dest$[ebp]
  0000f	ff 75 0c	 push	 DWORD PTR __Last$[ebp]
  00012	ff 75 08	 push	 DWORD PTR __First$[ebp]
  00015	e8 00 00 00 00	 call	 ??$_Uninit_move@PAUBulletInfo@@PAU1@V?$allocator@UBulletInfo@@@std@@U1@@std@@YAPAUBulletInfo@@PAU1@00AAV?$allocator@UBulletInfo@@@0@0U_Nonscalar_ptr_iterator_tag@0@@Z ; std::_Uninit_move<BulletInfo *,BulletInfo *,std::allocator<BulletInfo>,BulletInfo>
  0001a	83 c4 18	 add	 esp, 24			; 00000018H

; 472  : 	}

  0001d	c9		 leave
  0001e	c3		 ret	 0
??$_Uninitialized_move@PAUBulletInfo@@PAU1@V?$allocator@UBulletInfo@@@std@@@std@@YAPAUBulletInfo@@PAU1@00AAV?$allocator@UBulletInfo@@@0@@Z ENDP ; std::_Uninitialized_move<BulletInfo *,BulletInfo *,std::allocator<BulletInfo> >
_TEXT	ENDS
PUBLIC	?_Destroy@?$vector@UBulletInfo@@V?$allocator@UBulletInfo@@@std@@@std@@IAEXPAUBulletInfo@@0@Z ; std::vector<BulletInfo,std::allocator<BulletInfo> >::_Destroy
; Function compile flags: /Ogsp
; File c:\program files (x86)\microsoft visual studio 10.0\vc\include\vector
;	COMDAT ?_Destroy@?$vector@UBulletInfo@@V?$allocator@UBulletInfo@@@std@@@std@@IAEXPAUBulletInfo@@0@Z
_TEXT	SEGMENT
__First$ = 8						; size = 4
__Last$ = 12						; size = 4
?_Destroy@?$vector@UBulletInfo@@V?$allocator@UBulletInfo@@@std@@@std@@IAEXPAUBulletInfo@@0@Z PROC ; std::vector<BulletInfo,std::allocator<BulletInfo> >::_Destroy, COMDAT
; _this$ = ecx

; 1270 : 		_Destroy_range(_First, _Last, this->_Alval);
; 1271 : 		}

  00000	c2 08 00	 ret	 8
?_Destroy@?$vector@UBulletInfo@@V?$allocator@UBulletInfo@@@std@@@std@@IAEXPAUBulletInfo@@0@Z ENDP ; std::vector<BulletInfo,std::allocator<BulletInfo> >::_Destroy
_TEXT	ENDS
PUBLIC	??$_Ucopy@V?$_Vector_const_iterator@V?$_Vector_val@UBulletInfo@@V?$allocator@UBulletInfo@@@std@@@std@@@std@@@?$vector@UBulletInfo@@V?$allocator@UBulletInfo@@@std@@@std@@IAEPAUBulletInfo@@V?$_Vector_const_iterator@V?$_Vector_val@UBulletInfo@@V?$allocator@UBulletInfo@@@std@@@std@@@1@0PAU2@@Z ; std::vector<BulletInfo,std::allocator<BulletInfo> >::_Ucopy<std::_Vector_const_iterator<std::_Vector_val<BulletInfo,std::allocator<BulletInfo> > > >
; Function compile flags: /Ogsp
;	COMDAT ??$_Ucopy@V?$_Vector_const_iterator@V?$_Vector_val@UBulletInfo@@V?$allocator@UBulletInfo@@@std@@@std@@@std@@@?$vector@UBulletInfo@@V?$allocator@UBulletInfo@@@std@@@std@@IAEPAUBulletInfo@@V?$_Vector_const_iterator@V?$_Vector_val@UBulletInfo@@V?$allocator@UBulletInfo@@@std@@@std@@@1@0PAU2@@Z
_TEXT	SEGMENT
__First$ = 8						; size = 4
__Last$ = 12						; size = 4
__Cat$546633 = 16					; size = 1
__Ptr$ = 16						; size = 4
??$_Ucopy@V?$_Vector_const_iterator@V?$_Vector_val@UBulletInfo@@V?$allocator@UBulletInfo@@@std@@@std@@@std@@@?$vector@UBulletInfo@@V?$allocator@UBulletInfo@@@std@@@std@@IAEPAUBulletInfo@@V?$_Vector_const_iterator@V?$_Vector_val@UBulletInfo@@V?$allocator@UBulletInfo@@@std@@@std@@@1@0PAU2@@Z PROC ; std::vector<BulletInfo,std::allocator<BulletInfo> >::_Ucopy<std::_Vector_const_iterator<std::_Vector_val<BulletInfo,std::allocator<BulletInfo> > > >, COMDAT
; _this$ = ecx

; 1315 : 		pointer _Ucopy(_Iter _First, _Iter _Last, pointer _Ptr)

  00000	55		 push	 ebp
  00001	8b ec		 mov	 ebp, esp

; 1316 : 		{	// copy initializing [_First, _Last), using allocator
; 1317 : 		return (_Uninitialized_copy(_First, _Last,
; 1318 : 			_Ptr, this->_Alval));

  00003	ff 75 10	 push	 DWORD PTR __Cat$546633[ebp]
  00006	83 c1 0c	 add	 ecx, 12			; 0000000cH
  00009	51		 push	 ecx
  0000a	ff 75 10	 push	 DWORD PTR __Ptr$[ebp]
  0000d	ff 75 0c	 push	 DWORD PTR __Last$[ebp]
  00010	ff 75 08	 push	 DWORD PTR __First$[ebp]
  00013	e8 00 00 00 00	 call	 ??$_Uninit_copy@V?$_Vector_const_iterator@V?$_Vector_val@UBulletInfo@@V?$allocator@UBulletInfo@@@std@@@std@@@std@@PAUBulletInfo@@V?$allocator@UBulletInfo@@@2@@std@@YAPAUBulletInfo@@V?$_Vector_const_iterator@V?$_Vector_val@UBulletInfo@@V?$allocator@UBulletInfo@@@std@@@std@@@0@0PAU1@AAV?$allocator@UBulletInfo@@@0@U_Nonscalar_ptr_iterator_tag@0@@Z ; std::_Uninit_copy<std::_Vector_const_iterator<std::_Vector_val<BulletInfo,std::allocator<BulletInfo> > >,BulletInfo *,std::allocator<BulletInfo> >
  00018	83 c4 14	 add	 esp, 20			; 00000014H

; 1319 : 		}

  0001b	5d		 pop	 ebp
  0001c	c2 0c 00	 ret	 12			; 0000000cH
??$_Ucopy@V?$_Vector_const_iterator@V?$_Vector_val@UBulletInfo@@V?$allocator@UBulletInfo@@@std@@@std@@@std@@@?$vector@UBulletInfo@@V?$allocator@UBulletInfo@@@std@@@std@@IAEPAUBulletInfo@@V?$_Vector_const_iterator@V?$_Vector_val@UBulletInfo@@V?$allocator@UBulletInfo@@@std@@@std@@@1@0PAU2@@Z ENDP ; std::vector<BulletInfo,std::allocator<BulletInfo> >::_Ucopy<std::_Vector_const_iterator<std::_Vector_val<BulletInfo,std::allocator<BulletInfo> > > >
_TEXT	ENDS
PUBLIC	??$_Umove@PAUBulletInfo@@@?$vector@UBulletInfo@@V?$allocator@UBulletInfo@@@std@@@std@@IAEPAUBulletInfo@@PAU2@00@Z ; std::vector<BulletInfo,std::allocator<BulletInfo> >::_Umove<BulletInfo *>
; Function compile flags: /Ogsp
;	COMDAT ??$_Umove@PAUBulletInfo@@@?$vector@UBulletInfo@@V?$allocator@UBulletInfo@@@std@@@std@@IAEPAUBulletInfo@@PAU2@00@Z
_TEXT	SEGMENT
__First$ = 8						; size = 4
__Last$ = 12						; size = 4
__Ptr$ = 16						; size = 4
??$_Umove@PAUBulletInfo@@@?$vector@UBulletInfo@@V?$allocator@UBulletInfo@@@std@@@std@@IAEPAUBulletInfo@@PAU2@00@Z PROC ; std::vector<BulletInfo,std::allocator<BulletInfo> >::_Umove<BulletInfo *>, COMDAT
; _this$ = ecx

; 1322 : 		pointer _Umove(_Iter _First, _Iter _Last, pointer _Ptr)

  00000	55		 push	 ebp
  00001	8b ec		 mov	 ebp, esp

; 1323 : 		{	// move initializing [_First, _Last), using allocator
; 1324 : 		return (_Uninitialized_move(_First, _Last,
; 1325 : 			_Ptr, this->_Alval));

  00003	83 c1 0c	 add	 ecx, 12			; 0000000cH
  00006	51		 push	 ecx
  00007	ff 75 10	 push	 DWORD PTR __Ptr$[ebp]
  0000a	ff 75 0c	 push	 DWORD PTR __Last$[ebp]
  0000d	ff 75 08	 push	 DWORD PTR __First$[ebp]
  00010	e8 00 00 00 00	 call	 ??$_Uninitialized_move@PAUBulletInfo@@PAU1@V?$allocator@UBulletInfo@@@std@@@std@@YAPAUBulletInfo@@PAU1@00AAV?$allocator@UBulletInfo@@@0@@Z ; std::_Uninitialized_move<BulletInfo *,BulletInfo *,std::allocator<BulletInfo> >
  00015	83 c4 10	 add	 esp, 16			; 00000010H

; 1326 : 		}

  00018	5d		 pop	 ebp
  00019	c2 0c 00	 ret	 12			; 0000000cH
??$_Umove@PAUBulletInfo@@@?$vector@UBulletInfo@@V?$allocator@UBulletInfo@@@std@@@std@@IAEPAUBulletInfo@@PAU2@00@Z ENDP ; std::vector<BulletInfo,std::allocator<BulletInfo> >::_Umove<BulletInfo *>
_TEXT	ENDS
PUBLIC	?erase@?$vector@UBulletInfo@@V?$allocator@UBulletInfo@@@std@@@std@@QAE?AV?$_Vector_iterator@V?$_Vector_val@UBulletInfo@@V?$allocator@UBulletInfo@@@std@@@std@@@2@V?$_Vector_const_iterator@V?$_Vector_val@UBulletInfo@@V?$allocator@UBulletInfo@@@std@@@std@@@2@0@Z ; std::vector<BulletInfo,std::allocator<BulletInfo> >::erase
; Function compile flags: /Ogsp
;	COMDAT ?erase@?$vector@UBulletInfo@@V?$allocator@UBulletInfo@@@std@@@std@@QAE?AV?$_Vector_iterator@V?$_Vector_val@UBulletInfo@@V?$allocator@UBulletInfo@@@std@@@std@@@2@V?$_Vector_const_iterator@V?$_Vector_val@UBulletInfo@@V?$allocator@UBulletInfo@@@std@@@std@@@2@0@Z
_TEXT	SEGMENT
___$ReturnUdt$ = 8					; size = 4
__First_arg$ = 12					; size = 4
__Cat$546714 = 16					; size = 1
__Last_arg$ = 16					; size = 4
?erase@?$vector@UBulletInfo@@V?$allocator@UBulletInfo@@@std@@@std@@QAE?AV?$_Vector_iterator@V?$_Vector_val@UBulletInfo@@V?$allocator@UBulletInfo@@@std@@@std@@@2@V?$_Vector_const_iterator@V?$_Vector_val@UBulletInfo@@V?$allocator@UBulletInfo@@@std@@@std@@@2@0@Z PROC ; std::vector<BulletInfo,std::allocator<BulletInfo> >::erase, COMDAT
; _this$ = ecx

; 1190 : 		{	// erase [_First, _Last)

  00000	55		 push	 ebp
  00001	8b ec		 mov	 ebp, esp

; 1191 : 		iterator _First = _Make_iter(_First_arg);

  00003	8b 45 0c	 mov	 eax, DWORD PTR __First_arg$[ebp]
  00006	56		 push	 esi
  00007	57		 push	 edi
  00008	8b 7d 08	 mov	 edi, DWORD PTR ___$ReturnUdt$[ebp]
  0000b	8b f1		 mov	 esi, ecx
  0000d	89 07		 mov	 DWORD PTR [edi], eax

; 1192 : 		iterator _Last = _Make_iter(_Last_arg);
; 1193 : 
; 1194 : 		if (_First != _Last)

  0000f	3b 45 10	 cmp	 eax, DWORD PTR __Last_arg$[ebp]
  00012	74 16		 je	 SHORT $LN1@erase

; 1195 : 			{	// worth doing, copy down over hole
; 1196 :  #if _ITERATOR_DEBUG_LEVEL == 2
; 1197 : 			if (_Last < _First || _VICONT(_First) != this
; 1198 : 				|| _VIPTR(_First) < this->_Myfirst
; 1199 : 				|| this->_Mylast < _VIPTR(_Last))
; 1200 : 				_DEBUG_ERROR("vector erase iterator outside range");
; 1201 : 			pointer _Ptr = _Move(_VIPTR(_Last), this->_Mylast,
; 1202 : 				_VIPTR(_First));
; 1203 : 			_Orphan_range(_VIPTR(_First), this->_Mylast);
; 1204 : 
; 1205 :  #else /* _ITERATOR_DEBUG_LEVEL == 2 */
; 1206 : 			pointer _Ptr = _Move(_VIPTR(_Last), this->_Mylast,
; 1207 : 				_VIPTR(_First));

  00014	ff 75 10	 push	 DWORD PTR __Cat$546714[ebp]
  00017	8b 4e 04	 mov	 ecx, DWORD PTR [esi+4]
  0001a	50		 push	 eax
  0001b	51		 push	 ecx
  0001c	ff 75 10	 push	 DWORD PTR __Last_arg$[ebp]
  0001f	e8 00 00 00 00	 call	 ??$_Move@PAUBulletInfo@@PAU1@@std@@YAPAUBulletInfo@@PAU1@00U_Nonscalar_ptr_iterator_tag@0@@Z ; std::_Move<BulletInfo *,BulletInfo *>
  00024	83 c4 10	 add	 esp, 16			; 00000010H

; 1208 :  #endif /* _ITERATOR_DEBUG_LEVEL == 2 */
; 1209 : 
; 1210 : 			_Destroy(_Ptr, this->_Mylast);
; 1211 : 			this->_Mylast = _Ptr;

  00027	89 46 04	 mov	 DWORD PTR [esi+4], eax
$LN1@erase:

; 1212 : 			}
; 1213 : 		return (_First);

  0002a	8b c7		 mov	 eax, edi
  0002c	5f		 pop	 edi
  0002d	5e		 pop	 esi

; 1214 : 		}

  0002e	5d		 pop	 ebp
  0002f	c2 0c 00	 ret	 12			; 0000000cH
?erase@?$vector@UBulletInfo@@V?$allocator@UBulletInfo@@@std@@@std@@QAE?AV?$_Vector_iterator@V?$_Vector_val@UBulletInfo@@V?$allocator@UBulletInfo@@@std@@@std@@@2@V?$_Vector_const_iterator@V?$_Vector_val@UBulletInfo@@V?$allocator@UBulletInfo@@@std@@@std@@@2@0@Z ENDP ; std::vector<BulletInfo,std::allocator<BulletInfo> >::erase
_TEXT	ENDS
PUBLIC	?_Tidy@?$vector@UBulletInfo@@V?$allocator@UBulletInfo@@@std@@@std@@IAEXXZ ; std::vector<BulletInfo,std::allocator<BulletInfo> >::_Tidy
EXTRN	__imp_?_Orphan_all@_Container_base0@std@@QAEXXZ:PROC
; Function compile flags: /Ogsp
;	COMDAT ?_Tidy@?$vector@UBulletInfo@@V?$allocator@UBulletInfo@@@std@@@std@@IAEXXZ
_TEXT	SEGMENT
?_Tidy@?$vector@UBulletInfo@@V?$allocator@UBulletInfo@@@std@@@std@@IAEXXZ PROC ; std::vector<BulletInfo,std::allocator<BulletInfo> >::_Tidy, COMDAT
; _this$ = ecx

; 1301 : 		{	// free all storage

  00000	56		 push	 esi
  00001	8b f1		 mov	 esi, ecx

; 1302 : 		if (this->_Myfirst != 0)

  00003	83 3e 00	 cmp	 DWORD PTR [esi], 0
  00006	74 0e		 je	 SHORT $LN21@Tidy

; 1303 : 			{	// something to free, destroy and deallocate it
; 1304 : 			this->_Orphan_all();

  00008	ff 15 00 00 00
	00		 call	 DWORD PTR __imp_?_Orphan_all@_Container_base0@std@@QAEXXZ

; 1305 : 			_Destroy(this->_Myfirst, this->_Mylast);
; 1306 : 			this->_Alval.deallocate(this->_Myfirst,
; 1307 : 				this->_Myend - this->_Myfirst);

  0000e	ff 36		 push	 DWORD PTR [esi]
  00010	e8 00 00 00 00	 call	 ??3@YAXPAX@Z		; operator delete
  00015	59		 pop	 ecx
$LN21@Tidy:

; 1308 : 			}
; 1309 : 		this->_Myfirst = 0;

  00016	83 26 00	 and	 DWORD PTR [esi], 0

; 1310 : 		this->_Mylast = 0;

  00019	83 66 04 00	 and	 DWORD PTR [esi+4], 0

; 1311 : 		this->_Myend = 0;

  0001d	83 66 08 00	 and	 DWORD PTR [esi+8], 0
  00021	5e		 pop	 esi

; 1312 : 		}

  00022	c3		 ret	 0
?_Tidy@?$vector@UBulletInfo@@V?$allocator@UBulletInfo@@@std@@@std@@IAEXXZ ENDP ; std::vector<BulletInfo,std::allocator<BulletInfo> >::_Tidy
_TEXT	ENDS
PUBLIC	?reserve@?$vector@UBulletInfo@@V?$allocator@UBulletInfo@@@std@@@std@@QAEXI@Z ; std::vector<BulletInfo,std::allocator<BulletInfo> >::reserve
EXTRN	__EH_epilog3:PROC
EXTRN	__EH_prolog3_catch:PROC
;	COMDAT xdata$x
; File c:\program files (x86)\microsoft visual studio 10.0\vc\include\xmemory
xdata$x	SEGMENT
__catchsym$?reserve@?$vector@UBulletInfo@@V?$allocator@UBulletInfo@@@std@@@std@@QAEXI@Z$2 DD 040H
	DD	00H
	DD	00H
	DD	FLAT:__catch$?reserve@?$vector@UBulletInfo@@V?$allocator@UBulletInfo@@@std@@@std@@QAEXI@Z$0
__unwindtable$?reserve@?$vector@UBulletInfo@@V?$allocator@UBulletInfo@@@std@@@std@@QAEXI@Z DD 0ffffffffH
	DD	00H
	DD	0ffffffffH
	DD	00H
__tryblocktable$?reserve@?$vector@UBulletInfo@@V?$allocator@UBulletInfo@@@std@@@std@@QAEXI@Z DD 00H
	DD	00H
	DD	01H
	DD	01H
	DD	FLAT:__catchsym$?reserve@?$vector@UBulletInfo@@V?$allocator@UBulletInfo@@@std@@@std@@QAEXI@Z$2
__ehfuncinfo$?reserve@?$vector@UBulletInfo@@V?$allocator@UBulletInfo@@@std@@@std@@QAEXI@Z DD 019930522H
	DD	02H
	DD	FLAT:__unwindtable$?reserve@?$vector@UBulletInfo@@V?$allocator@UBulletInfo@@@std@@@std@@QAEXI@Z
	DD	01H
	DD	FLAT:__tryblocktable$?reserve@?$vector@UBulletInfo@@V?$allocator@UBulletInfo@@@std@@@std@@QAEXI@Z
	DD	2 DUP(00H)
	DD	00H
	DD	01H
; Function compile flags: /Ogsp
; File c:\program files (x86)\microsoft visual studio 10.0\vc\include\vector
xdata$x	ENDS
;	COMDAT ?reserve@?$vector@UBulletInfo@@V?$allocator@UBulletInfo@@@std@@@std@@QAEXI@Z
_TEXT	SEGMENT
__$EHRec$ = -16						; size = 16
__Ptr$542605 = 8					; size = 4
__Count$ = 8						; size = 4
?reserve@?$vector@UBulletInfo@@V?$allocator@UBulletInfo@@@std@@@std@@QAEXI@Z PROC ; std::vector<BulletInfo,std::allocator<BulletInfo> >::reserve, COMDAT
; _this$ = ecx

; 746  : 		{	// determine new minimum length of allocated storage

  00000	6a 04		 push	 4
  00002	b8 00 00 00 00	 mov	 eax, __ehhandler$?reserve@?$vector@UBulletInfo@@V?$allocator@UBulletInfo@@@std@@@std@@QAEXI@Z
  00007	e8 00 00 00 00	 call	 __EH_prolog3_catch
  0000c	8b f1		 mov	 esi, ecx

; 747  : 		if (max_size() < _Count)

  0000e	8b 5d 08	 mov	 ebx, DWORD PTR __Count$[ebp]
  00011	81 fb cc cc cc
	0c		 cmp	 ebx, 214748364		; 0cccccccH
  00017	76 0b		 jbe	 SHORT $LN5@reserve

; 748  : 			_Xlen();	// result too long

  00019	68 00 00 00 00	 push	 OFFSET ??_C@_0BD@OLBABOEK@vector?$DMT?$DO?5too?5long?$AA@
  0001e	ff 15 00 00 00
	00		 call	 DWORD PTR __imp_?_Xlength_error@std@@YAXPBD@Z
$LN56@reserve:
$LN5@reserve:

; 749  : 		else if (capacity() < _Count)

  00024	8b 46 08	 mov	 eax, DWORD PTR [esi+8]
  00027	2b 06		 sub	 eax, DWORD PTR [esi]
  00029	6a 14		 push	 20			; 00000014H
  0002b	99		 cdq
  0002c	59		 pop	 ecx
  0002d	f7 f9		 idiv	 ecx
  0002f	3b c3		 cmp	 eax, ebx
  00031	73 6b		 jae	 SHORT $LN3@reserve

; 750  : 			{	// not enough room, reallocate
; 751  : 			pointer _Ptr = this->_Alval.allocate(_Count);

  00033	6a 00		 push	 0
  00035	53		 push	 ebx
  00036	e8 00 00 00 00	 call	 ??$_Allocate@UBulletInfo@@@std@@YAPAUBulletInfo@@IPAU1@@Z ; std::_Allocate<BulletInfo>

; 752  : 
; 753  : 			_TRY_BEGIN
; 754  : 			_Umove(this->_Myfirst, this->_Mylast, _Ptr);

  0003b	8b 0e		 mov	 ecx, DWORD PTR [esi]
  0003d	83 65 fc 00	 and	 DWORD PTR __$EHRec$[ebp+12], 0
  00041	8d 56 0c	 lea	 edx, DWORD PTR [esi+12]
  00044	52		 push	 edx
  00045	89 45 08	 mov	 DWORD PTR __Ptr$542605[ebp], eax
  00048	ff 75 08	 push	 DWORD PTR __Ptr$542605[ebp]
  0004b	8b 46 04	 mov	 eax, DWORD PTR [esi+4]
  0004e	50		 push	 eax
  0004f	51		 push	 ecx
  00050	e8 00 00 00 00	 call	 ??$_Uninitialized_move@PAUBulletInfo@@PAU1@V?$allocator@UBulletInfo@@@std@@@std@@YAPAUBulletInfo@@PAU1@00AAV?$allocator@UBulletInfo@@@0@@Z ; std::_Uninitialized_move<BulletInfo *,BulletInfo *,std::allocator<BulletInfo> >

; 758  : 			_CATCH_END
; 759  : 
; 760  : 			size_type _Size = size();

  00055	8b 0e		 mov	 ecx, DWORD PTR [esi]
  00057	8b 46 04	 mov	 eax, DWORD PTR [esi+4]
  0005a	83 c4 18	 add	 esp, 24			; 00000018H
  0005d	2b c1		 sub	 eax, ecx
  0005f	6a 14		 push	 20			; 00000014H
  00061	99		 cdq
  00062	5f		 pop	 edi
  00063	f7 ff		 idiv	 edi
  00065	83 4d fc ff	 or	 DWORD PTR __$EHRec$[ebp+12], -1
  00069	8b f8		 mov	 edi, eax
  0006b	85 c9		 test	 ecx, ecx
  0006d	74 12		 je	 SHORT $LN48@reserve

; 761  : 			if (this->_Myfirst != 0)

  0006f	eb 03		 jmp	 SHORT $LN55@reserve

; 762  : 				{	// destroy and deallocate old array
; 763  : 				_Destroy(this->_Myfirst, this->_Mylast);

$LL39@reserve:
  00071	83 c1 14	 add	 ecx, 20			; 00000014H
$LN55@reserve:
  00074	3b 4e 04	 cmp	 ecx, DWORD PTR [esi+4]
  00077	75 f8		 jne	 SHORT $LL39@reserve

; 764  : 				this->_Alval.deallocate(this->_Myfirst,
; 765  : 					this->_Myend - this->_Myfirst);

  00079	ff 36		 push	 DWORD PTR [esi]
  0007b	e8 00 00 00 00	 call	 ??3@YAXPAX@Z		; operator delete
  00080	59		 pop	 ecx
$LN48@reserve:

; 766  : 				}
; 767  : 
; 768  : 			this->_Orphan_all();

  00081	8b ce		 mov	 ecx, esi
  00083	ff 15 00 00 00
	00		 call	 DWORD PTR __imp_?_Orphan_all@_Container_base0@std@@QAEXXZ

; 769  : 			this->_Myend = _Ptr + _Count;

  00089	6b db 14	 imul	 ebx, 20			; 00000014H

; 770  : 			this->_Mylast = _Ptr + _Size;

  0008c	6b ff 14	 imul	 edi, 20			; 00000014H
  0008f	8b 45 08	 mov	 eax, DWORD PTR __Ptr$542605[ebp]
  00092	03 d8		 add	 ebx, eax
  00094	03 f8		 add	 edi, eax
  00096	89 5e 08	 mov	 DWORD PTR [esi+8], ebx
  00099	89 7e 04	 mov	 DWORD PTR [esi+4], edi

; 771  : 			this->_Myfirst = _Ptr;

  0009c	89 06		 mov	 DWORD PTR [esi], eax
$LN3@reserve:

; 772  : 			}
; 773  : 		}

  0009e	e8 00 00 00 00	 call	 __EH_epilog3
  000a3	c2 04 00	 ret	 4
__catch$?reserve@?$vector@UBulletInfo@@V?$allocator@UBulletInfo@@@std@@@std@@QAEXI@Z$0:

; 755  : 			_CATCH_ALL
; 756  : 			this->_Alval.deallocate(_Ptr, _Count);

  000a6	ff 75 08	 push	 DWORD PTR __Ptr$542605[ebp]
  000a9	e8 00 00 00 00	 call	 ??3@YAXPAX@Z		; operator delete
  000ae	59		 pop	 ecx

; 757  : 			_RERAISE;

  000af	6a 00		 push	 0
  000b1	6a 00		 push	 0
  000b3	e8 00 00 00 00	 call	 __CxxThrowException@8
$LN57@reserve:
$LN54@reserve:
  000b8	cc		 int	 3
_TEXT	ENDS
;	COMDAT text$x
text$x	SEGMENT
__ehhandler$?reserve@?$vector@UBulletInfo@@V?$allocator@UBulletInfo@@@std@@@std@@QAEXI@Z:
  00000	8b 54 24 08	 mov	 edx, DWORD PTR [esp+8]
  00004	8d 42 0c	 lea	 eax, DWORD PTR [edx+12]
  00007	8b 4a ec	 mov	 ecx, DWORD PTR [edx-20]
  0000a	33 c8		 xor	 ecx, eax
  0000c	e8 00 00 00 00	 call	 @__security_check_cookie@4
  00011	b8 00 00 00 00	 mov	 eax, OFFSET __ehfuncinfo$?reserve@?$vector@UBulletInfo@@V?$allocator@UBulletInfo@@@std@@@std@@QAEXI@Z
  00016	e9 00 00 00 00	 jmp	 ___CxxFrameHandler3
text$x	ENDS
?reserve@?$vector@UBulletInfo@@V?$allocator@UBulletInfo@@@std@@@std@@QAEXI@Z ENDP ; std::vector<BulletInfo,std::allocator<BulletInfo> >::reserve
PUBLIC	??0?$vector@UBulletInfo@@V?$allocator@UBulletInfo@@@std@@@std@@QAE@ABV01@@Z ; std::vector<BulletInfo,std::allocator<BulletInfo> >::vector<BulletInfo,std::allocator<BulletInfo> >
;	COMDAT xdata$x
; File c:\program files (x86)\microsoft visual studio 10.0\vc\include\xutility
xdata$x	SEGMENT
__catchsym$??0?$vector@UBulletInfo@@V?$allocator@UBulletInfo@@@std@@@std@@QAE@ABV01@@Z$2 DD 040H
	DD	00H
	DD	00H
	DD	FLAT:__catch$??0?$vector@UBulletInfo@@V?$allocator@UBulletInfo@@@std@@@std@@QAE@ABV01@@Z$0
__unwindtable$??0?$vector@UBulletInfo@@V?$allocator@UBulletInfo@@@std@@@std@@QAE@ABV01@@Z DD 0ffffffffH
	DD	00H
	DD	0ffffffffH
	DD	00H
__tryblocktable$??0?$vector@UBulletInfo@@V?$allocator@UBulletInfo@@@std@@@std@@QAE@ABV01@@Z DD 00H
	DD	00H
	DD	01H
	DD	01H
	DD	FLAT:__catchsym$??0?$vector@UBulletInfo@@V?$allocator@UBulletInfo@@@std@@@std@@QAE@ABV01@@Z$2
__ehfuncinfo$??0?$vector@UBulletInfo@@V?$allocator@UBulletInfo@@@std@@@std@@QAE@ABV01@@Z DD 019930522H
	DD	02H
	DD	FLAT:__unwindtable$??0?$vector@UBulletInfo@@V?$allocator@UBulletInfo@@@std@@@std@@QAE@ABV01@@Z
	DD	01H
	DD	FLAT:__tryblocktable$??0?$vector@UBulletInfo@@V?$allocator@UBulletInfo@@@std@@@std@@QAE@ABV01@@Z
	DD	2 DUP(00H)
	DD	00H
	DD	01H
; Function compile flags: /Ogsp
; File c:\program files (x86)\microsoft visual studio 10.0\vc\include\vector
xdata$x	ENDS
;	COMDAT ??0?$vector@UBulletInfo@@V?$allocator@UBulletInfo@@@std@@@std@@QAE@ABV01@@Z
_TEXT	SEGMENT
_this$ = -20						; size = 4
__$EHRec$ = -16						; size = 16
__Cat$547088 = 8					; size = 1
__Right$ = 8						; size = 4
??0?$vector@UBulletInfo@@V?$allocator@UBulletInfo@@@std@@@std@@QAE@ABV01@@Z PROC ; std::vector<BulletInfo,std::allocator<BulletInfo> >::vector<BulletInfo,std::allocator<BulletInfo> >, COMDAT
; _this$ = ecx

; 535  : 		{	// construct by copying _Right

  00000	6a 08		 push	 8
  00002	b8 00 00 00 00	 mov	 eax, __ehhandler$??0?$vector@UBulletInfo@@V?$allocator@UBulletInfo@@@std@@@std@@QAE@ABV01@@Z
  00007	e8 00 00 00 00	 call	 __EH_prolog3_catch
  0000c	8b f1		 mov	 esi, ecx
  0000e	89 75 ec	 mov	 DWORD PTR _this$[ebp], esi

; 536  : 		if (_Buy(_Right.size()))

  00011	8b 7d 08	 mov	 edi, DWORD PTR __Right$[ebp]
  00014	33 db		 xor	 ebx, ebx
  00016	89 1e		 mov	 DWORD PTR [esi], ebx
  00018	89 5e 04	 mov	 DWORD PTR [esi+4], ebx
  0001b	89 5e 08	 mov	 DWORD PTR [esi+8], ebx
  0001e	8b 47 04	 mov	 eax, DWORD PTR [edi+4]
  00021	2b 07		 sub	 eax, DWORD PTR [edi]
  00023	6a 14		 push	 20			; 00000014H
  00025	59		 pop	 ecx
  00026	99		 cdq
  00027	f7 f9		 idiv	 ecx
  00029	8b ce		 mov	 ecx, esi
  0002b	50		 push	 eax
  0002c	e8 00 00 00 00	 call	 ?_Buy@?$vector@UBulletInfo@@V?$allocator@UBulletInfo@@@std@@@std@@IAE_NI@Z ; std::vector<BulletInfo,std::allocator<BulletInfo> >::_Buy
  00031	84 c0		 test	 al, al
  00033	74 1f		 je	 SHORT $LN7@vector

; 537  : 			_TRY_BEGIN
; 538  : 			this->_Mylast = _Ucopy(_Right.begin(), _Right.end(),
; 539  : 				this->_Myfirst);

  00035	ff 75 08	 push	 DWORD PTR __Cat$547088[ebp]
  00038	8b 0e		 mov	 ecx, DWORD PTR [esi]
  0003a	8b 47 04	 mov	 eax, DWORD PTR [edi+4]
  0003d	8b 3f		 mov	 edi, DWORD PTR [edi]
  0003f	8d 56 0c	 lea	 edx, DWORD PTR [esi+12]
  00042	52		 push	 edx
  00043	51		 push	 ecx
  00044	50		 push	 eax
  00045	57		 push	 edi
  00046	89 5d fc	 mov	 DWORD PTR __$EHRec$[ebp+12], ebx
  00049	e8 00 00 00 00	 call	 ??$_Uninit_copy@V?$_Vector_const_iterator@V?$_Vector_val@UBulletInfo@@V?$allocator@UBulletInfo@@@std@@@std@@@std@@PAUBulletInfo@@V?$allocator@UBulletInfo@@@2@@std@@YAPAUBulletInfo@@V?$_Vector_const_iterator@V?$_Vector_val@UBulletInfo@@V?$allocator@UBulletInfo@@@std@@@std@@@0@0PAU1@AAV?$allocator@UBulletInfo@@@0@U_Nonscalar_ptr_iterator_tag@0@@Z ; std::_Uninit_copy<std::_Vector_const_iterator<std::_Vector_val<BulletInfo,std::allocator<BulletInfo> > >,BulletInfo *,std::allocator<BulletInfo> >
  0004e	83 c4 14	 add	 esp, 20			; 00000014H
  00051	89 46 04	 mov	 DWORD PTR [esi+4], eax
$LN7@vector:

; 543  : 			_CATCH_END
; 544  : 		}

  00054	8b c6		 mov	 eax, esi
  00056	e8 00 00 00 00	 call	 __EH_epilog3
  0005b	c2 04 00	 ret	 4
__catch$??0?$vector@UBulletInfo@@V?$allocator@UBulletInfo@@@std@@@std@@QAE@ABV01@@Z$0:

; 540  : 			_CATCH_ALL
; 541  : 			_Tidy();

  0005e	8b 4d ec	 mov	 ecx, DWORD PTR _this$[ebp]
  00061	e8 00 00 00 00	 call	 ?_Tidy@?$vector@UBulletInfo@@V?$allocator@UBulletInfo@@@std@@@std@@IAEXXZ ; std::vector<BulletInfo,std::allocator<BulletInfo> >::_Tidy

; 542  : 			_RERAISE;

  00066	33 db		 xor	 ebx, ebx
  00068	53		 push	 ebx
  00069	53		 push	 ebx
  0006a	e8 00 00 00 00	 call	 __CxxThrowException@8
$LN38@vector:
$LN37@vector:
  0006f	cc		 int	 3
_TEXT	ENDS
;	COMDAT text$x
text$x	SEGMENT
__ehhandler$??0?$vector@UBulletInfo@@V?$allocator@UBulletInfo@@@std@@@std@@QAE@ABV01@@Z:
  00000	8b 54 24 08	 mov	 edx, DWORD PTR [esp+8]
  00004	8d 42 0c	 lea	 eax, DWORD PTR [edx+12]
  00007	8b 4a e8	 mov	 ecx, DWORD PTR [edx-24]
  0000a	33 c8		 xor	 ecx, eax
  0000c	e8 00 00 00 00	 call	 @__security_check_cookie@4
  00011	b8 00 00 00 00	 mov	 eax, OFFSET __ehfuncinfo$??0?$vector@UBulletInfo@@V?$allocator@UBulletInfo@@@std@@@std@@QAE@ABV01@@Z
  00016	e9 00 00 00 00	 jmp	 ___CxxFrameHandler3
text$x	ENDS
??0?$vector@UBulletInfo@@V?$allocator@UBulletInfo@@@std@@@std@@QAE@ABV01@@Z ENDP ; std::vector<BulletInfo,std::allocator<BulletInfo> >::vector<BulletInfo,std::allocator<BulletInfo> >
PUBLIC	??1?$vector@UBulletInfo@@V?$allocator@UBulletInfo@@@std@@@std@@QAE@XZ ; std::vector<BulletInfo,std::allocator<BulletInfo> >::~vector<BulletInfo,std::allocator<BulletInfo> >
; Function compile flags: /Ogsp
;	COMDAT ??1?$vector@UBulletInfo@@V?$allocator@UBulletInfo@@@std@@@std@@QAE@XZ
_TEXT	SEGMENT
??1?$vector@UBulletInfo@@V?$allocator@UBulletInfo@@@std@@@std@@QAE@XZ PROC ; std::vector<BulletInfo,std::allocator<BulletInfo> >::~vector<BulletInfo,std::allocator<BulletInfo> >, COMDAT
; _this$ = ecx

; 705  : 		_Tidy();

  00000	e9 00 00 00 00	 jmp	 ?_Tidy@?$vector@UBulletInfo@@V?$allocator@UBulletInfo@@@std@@@std@@IAEXXZ ; std::vector<BulletInfo,std::allocator<BulletInfo> >::_Tidy
??1?$vector@UBulletInfo@@V?$allocator@UBulletInfo@@@std@@@std@@QAE@XZ ENDP ; std::vector<BulletInfo,std::allocator<BulletInfo> >::~vector<BulletInfo,std::allocator<BulletInfo> >
_TEXT	ENDS
PUBLIC	?clear@?$vector@UBulletInfo@@V?$allocator@UBulletInfo@@@std@@@std@@QAEXXZ ; std::vector<BulletInfo,std::allocator<BulletInfo> >::clear
; Function compile flags: /Ogsp
;	COMDAT ?clear@?$vector@UBulletInfo@@V?$allocator@UBulletInfo@@@std@@@std@@QAEXXZ
_TEXT	SEGMENT
$T547117 = -4						; size = 4
?clear@?$vector@UBulletInfo@@V?$allocator@UBulletInfo@@@std@@@std@@QAEXXZ PROC ; std::vector<BulletInfo,std::allocator<BulletInfo> >::clear, COMDAT
; _this$ = ecx

; 1217 : 		{	// erase all

  00000	55		 push	 ebp
  00001	8b ec		 mov	 ebp, esp
  00003	51		 push	 ecx

; 1218 : 		erase(begin(), end());

  00004	8b 41 04	 mov	 eax, DWORD PTR [ecx+4]
  00007	8b 11		 mov	 edx, DWORD PTR [ecx]
  00009	50		 push	 eax
  0000a	52		 push	 edx
  0000b	8d 45 fc	 lea	 eax, DWORD PTR $T547117[ebp]
  0000e	50		 push	 eax
  0000f	e8 00 00 00 00	 call	 ?erase@?$vector@UBulletInfo@@V?$allocator@UBulletInfo@@@std@@@std@@QAE?AV?$_Vector_iterator@V?$_Vector_val@UBulletInfo@@V?$allocator@UBulletInfo@@@std@@@std@@@2@V?$_Vector_const_iterator@V?$_Vector_val@UBulletInfo@@V?$allocator@UBulletInfo@@@std@@@std@@@2@0@Z ; std::vector<BulletInfo,std::allocator<BulletInfo> >::erase

; 1219 : 		}

  00014	c9		 leave
  00015	c3		 ret	 0
?clear@?$vector@UBulletInfo@@V?$allocator@UBulletInfo@@@std@@@std@@QAEXXZ ENDP ; std::vector<BulletInfo,std::allocator<BulletInfo> >::clear
_TEXT	ENDS
PUBLIC	?_Reserve@?$vector@UBulletInfo@@V?$allocator@UBulletInfo@@@std@@@std@@IAEXI@Z ; std::vector<BulletInfo,std::allocator<BulletInfo> >::_Reserve
; Function compile flags: /Ogsp
;	COMDAT ?_Reserve@?$vector@UBulletInfo@@V?$allocator@UBulletInfo@@@std@@@std@@IAEXI@Z
_TEXT	SEGMENT
__Count$ = 8						; size = 4
?_Reserve@?$vector@UBulletInfo@@V?$allocator@UBulletInfo@@@std@@@std@@IAEXI@Z PROC ; std::vector<BulletInfo,std::allocator<BulletInfo> >::_Reserve, COMDAT
; _this$ = ecx

; 1290 : 		{	// ensure room for _Count new elements, grow exponentially

  00000	55		 push	 ebp
  00001	8b ec		 mov	 ebp, esp
  00003	56		 push	 esi
  00004	8b f1		 mov	 esi, ecx

; 1291 : 		size_type _Size = size();

  00006	8b 0e		 mov	 ecx, DWORD PTR [esi]
  00008	8b 46 04	 mov	 eax, DWORD PTR [esi+4]
  0000b	2b c1		 sub	 eax, ecx
  0000d	57		 push	 edi
  0000e	99		 cdq
  0000f	6a 14		 push	 20			; 00000014H
  00011	5f		 pop	 edi
  00012	f7 ff		 idiv	 edi
  00014	8b f8		 mov	 edi, eax

; 1292 : 		if (max_size() - _Count < _Size)

  00016	b8 cc cc cc 0c	 mov	 eax, 214748364		; 0cccccccH
  0001b	2b 45 08	 sub	 eax, DWORD PTR __Count$[ebp]
  0001e	3b c7		 cmp	 eax, edi
  00020	73 0b		 jae	 SHORT $LN4@Reserve

; 1293 : 			_Xlen();

  00022	68 00 00 00 00	 push	 OFFSET ??_C@_0BD@OLBABOEK@vector?$DMT?$DO?5too?5long?$AA@
  00027	ff 15 00 00 00
	00		 call	 DWORD PTR __imp_?_Xlength_error@std@@YAXPBD@Z
$LN21@Reserve:
$LN4@Reserve:

; 1294 : 		else if ((_Size += _Count) <= capacity())

  0002d	8b 46 08	 mov	 eax, DWORD PTR [esi+8]
  00030	2b c1		 sub	 eax, ecx
  00032	6a 14		 push	 20			; 00000014H
  00034	99		 cdq
  00035	59		 pop	 ecx
  00036	f7 f9		 idiv	 ecx
  00038	03 7d 08	 add	 edi, DWORD PTR __Count$[ebp]
  0003b	3b f8		 cmp	 edi, eax
  0003d	76 10		 jbe	 SHORT $LN1@Reserve

; 1295 : 			;
; 1296 : 		else
; 1297 : 			reserve(_Grow_to(_Size));

  0003f	57		 push	 edi
  00040	8b ce		 mov	 ecx, esi
  00042	e8 00 00 00 00	 call	 ?_Grow_to@?$vector@UBulletInfo@@V?$allocator@UBulletInfo@@@std@@@std@@IBEII@Z ; std::vector<BulletInfo,std::allocator<BulletInfo> >::_Grow_to
  00047	50		 push	 eax
  00048	8b ce		 mov	 ecx, esi
  0004a	e8 00 00 00 00	 call	 ?reserve@?$vector@UBulletInfo@@V?$allocator@UBulletInfo@@@std@@@std@@QAEXI@Z ; std::vector<BulletInfo,std::allocator<BulletInfo> >::reserve
$LN1@Reserve:
  0004f	5f		 pop	 edi
  00050	5e		 pop	 esi

; 1298 : 		}

  00051	5d		 pop	 ebp
  00052	c2 04 00	 ret	 4
$LN20@Reserve:
?_Reserve@?$vector@UBulletInfo@@V?$allocator@UBulletInfo@@@std@@@std@@IAEXI@Z ENDP ; std::vector<BulletInfo,std::allocator<BulletInfo> >::_Reserve
_TEXT	ENDS
PUBLIC	??_7ioMoveAttackSkill@@6B@			; ioMoveAttackSkill::`vftable'
PUBLIC	??0ioMoveAttackSkill@@QAE@XZ			; ioMoveAttackSkill::ioMoveAttackSkill
PUBLIC	??_R4ioMoveAttackSkill@@6B@			; ioMoveAttackSkill::`RTTI Complete Object Locator'
PUBLIC	??_R0?AVioMoveAttackSkill@@@8			; ioMoveAttackSkill `RTTI Type Descriptor'
PUBLIC	??_R3ioMoveAttackSkill@@8			; ioMoveAttackSkill::`RTTI Class Hierarchy Descriptor'
PUBLIC	??_R2ioMoveAttackSkill@@8			; ioMoveAttackSkill::`RTTI Base Class Array'
PUBLIC	??_R1A@?0A@EA@ioMoveAttackSkill@@8		; ioMoveAttackSkill::`RTTI Base Class Descriptor at (0,-1,0,64)'
PUBLIC	??_R1A@?0A@EA@ioAttackSkill@@8			; ioAttackSkill::`RTTI Base Class Descriptor at (0,-1,0,64)'
PUBLIC	??_R0?AVioAttackSkill@@@8			; ioAttackSkill `RTTI Type Descriptor'
PUBLIC	??_R3ioAttackSkill@@8				; ioAttackSkill::`RTTI Class Hierarchy Descriptor'
PUBLIC	??_R2ioAttackSkill@@8				; ioAttackSkill::`RTTI Base Class Array'
PUBLIC	??_R1A@?0A@EA@ioSkill@@8			; ioSkill::`RTTI Base Class Descriptor at (0,-1,0,64)'
PUBLIC	??_R0?AVioSkill@@@8				; ioSkill `RTTI Type Descriptor'
PUBLIC	??_R3ioSkill@@8					; ioSkill::`RTTI Class Hierarchy Descriptor'
PUBLIC	??_R2ioSkill@@8					; ioSkill::`RTTI Base Class Array'
PUBLIC	?LoadProperty@ioMoveAttackSkill@@UAEXAAVioINILoader@@@Z ; ioMoveAttackSkill::LoadProperty
PUBLIC	?Clone@ioMoveAttackSkill@@UAEPAVioSkill@@XZ	; ioMoveAttackSkill::Clone
PUBLIC	?GetDefenseSkillBreakeType@ioSkill@@UBE?AW4DefenseBreakType@@XZ ; ioSkill::GetDefenseSkillBreakeType
PUBLIC	?GetSkillEndNextJumpAmt@ioSkill@@UBEMXZ		; ioSkill::GetSkillEndNextJumpAmt
PUBLIC	?GetSkillEndNextLandRate@ioSkill@@UBEMXZ	; ioSkill::GetSkillEndNextLandRate
PUBLIC	?GetSkillEndNextJumpMustEnable@ioSkill@@UAE?AW4SkillEndJumpType@@XZ ; ioSkill::GetSkillEndNextJumpMustEnable
PUBLIC	?EnableChangeGrapplingTargetPos@ioSkill@@UBE_NXZ ; ioSkill::EnableChangeGrapplingTargetPos
PUBLIC	?IsInvisibleBottomCircle@ioSkill@@UAE_NPAVioBaseChar@@@Z ; ioSkill::IsInvisibleBottomCircle
PUBLIC	?IsCanJumpingSkill@ioSkill@@UBE_NXZ		; ioSkill::IsCanJumpingSkill
PUBLIC	?IsCanJumpingSkillOnBlowWound@ioSkill@@UBE_NXZ	; ioSkill::IsCanJumpingSkillOnBlowWound
PUBLIC	?IsCanDownSkill@ioSkill@@UBE_NXZ		; ioSkill::IsCanDownSkill
PUBLIC	?IsCanBlowWoundSkill@ioSkill@@UBE_NXZ		; ioSkill::IsCanBlowWoundSkill
PUBLIC	?IsCanWoundSkill@ioSkill@@UBE_NXZ		; ioSkill::IsCanWoundSkill
PUBLIC	?IsUseActiveCnt@ioSkill@@UBE_NXZ		; ioSkill::IsUseActiveCnt
PUBLIC	?GetMaxActiveCnt@ioSkill@@UBEHPAVioBaseChar@@@Z	; ioSkill::GetMaxActiveCnt
PUBLIC	?GetCurActiveCnt@ioSkill@@UBEHPAVioBaseChar@@@Z	; ioSkill::GetCurActiveCnt
EXTRN	??0ioAttackSkill@@QAE@XZ:PROC			; ioAttackSkill::ioAttackSkill
EXTRN	?GetTypeID@ioAttackSkill@@UBEHXZ:PROC		; ioAttackSkill::GetTypeID
EXTRN	?IsProtected@ioSkill@@UBE_NH@Z:PROC		; ioSkill::IsProtected
EXTRN	?IsCanSwitchSkill@ioSkill@@UBE_NXZ:PROC		; ioSkill::IsCanSwitchSkill
EXTRN	?IsCanSemiSwitchSkill@ioSkill@@UBE_NXZ:PROC	; ioSkill::IsCanSemiSwitchSkill
EXTRN	?IsCanCancelBySkill@ioSkill@@UBE_NPAVioBaseChar@@AAH@Z:PROC ; ioSkill::IsCanCancelBySkill
EXTRN	?IsCanUseZeroHP@ioSkill@@UBE_NPAVioBaseChar@@@Z:PROC ; ioSkill::IsCanUseZeroHP
EXTRN	?IsCanUseSkillWithCrown@ioSkill@@UAE_NPAVioBaseChar@@@Z:PROC ; ioSkill::IsCanUseSkillWithCrown
EXTRN	?IsCanUseBoss@ioSkill@@UBE_NPAVioBaseChar@@@Z:PROC ; ioSkill::IsCanUseBoss
EXTRN	?IsCanUseFootball@ioSkill@@UBE_NXZ:PROC		; ioSkill::IsCanUseFootball
EXTRN	?IsCanUseGangSiMode@ioSkill@@UBE_NXZ:PROC	; ioSkill::IsCanUseGangSiMode
EXTRN	?IsCanUseByWeaponType@ioSkill@@UBE_NPAVioBaseChar@@@Z:PROC ; ioSkill::IsCanUseByWeaponType
EXTRN	?IsCanUseThunderBirdHold@ioSkill@@UBE_NPAVioBaseChar@@@Z:PROC ; ioSkill::IsCanUseThunderBirdHold
EXTRN	?IsCanUseLimitHP@ioSkill@@UBE_NPAVioBaseChar@@@Z:PROC ; ioSkill::IsCanUseLimitHP
EXTRN	?IsCanUseSkill@ioAttackSkill@@UAE_NPAVioBaseChar@@_N@Z:PROC ; ioAttackSkill::IsCanUseSkill
EXTRN	?IsOnOffEnable@ioSkill@@UAE_NXZ:PROC		; ioSkill::IsOnOffEnable
EXTRN	?IsCanDefenseStateSkill@ioSkill@@UAE_NXZ:PROC	; ioSkill::IsCanDefenseStateSkill
EXTRN	?SetDefenseStateSkill@ioSkill@@UAEXPAVioBaseChar@@@Z:PROC ; ioSkill::SetDefenseStateSkill
EXTRN	?HasBuff@ioSkill@@UBE_NH@Z:PROC			; ioSkill::HasBuff
EXTRN	?GetBuffType@ioSkill@@UAEHH@Z:PROC		; ioSkill::GetBuffType
EXTRN	?IsEnableReserve@ioSkill@@UBE_NXZ:PROC		; ioSkill::IsEnableReserve
EXTRN	?IsSkillMotionEnd@ioSkill@@UBE_NKPAVioBaseChar@@@Z:PROC ; ioSkill::IsSkillMotionEnd
EXTRN	?IsCharSkipState@ioSkill@@UBE?AW4SkillCharColType@@XZ:PROC ; ioSkill::IsCharSkipState
EXTRN	?IsEntityCollisionSkipState@ioSkill@@UBE_NXZ:PROC ; ioSkill::IsEntityCollisionSkipState
EXTRN	?IsEndState@ioSkill@@UBE_NXZ:PROC		; ioSkill::IsEndState
EXTRN	?IsAttackEndState@ioAttackSkill@@UBE_NXZ:PROC	; ioAttackSkill::IsAttackEndState
EXTRN	?IsJumpState@ioSkill@@UBE_NXZ:PROC		; ioSkill::IsJumpState
EXTRN	?IsDownState@ioSkill@@UBE_NXZ:PROC		; ioSkill::IsDownState
EXTRN	?IsNoDropState@ioSkill@@UBE_NXZ:PROC		; ioSkill::IsNoDropState
EXTRN	?IsCanSendControl@ioSkill@@UBE_NXZ:PROC		; ioSkill::IsCanSendControl
EXTRN	?IsSkipState@ioSkill@@UBE_NXZ:PROC		; ioSkill::IsSkipState
EXTRN	?GetSkillMoveRate@ioSkill@@UBEMXZ:PROC		; ioSkill::GetSkillMoveRate
EXTRN	?SetSkillGrapplingState@ioSkill@@UAE_NPAVioBaseChar@@ABVioHashString@@@Z:PROC ; ioSkill::SetSkillGrapplingState
EXTRN	?GetGrapplingTargetPos@ioSkill@@UAE?AUD3DXVECTOR3@@PAVioBaseChar@@0@Z:PROC ; ioSkill::GetGrapplingTargetPos
EXTRN	?GetGrapplingTargetPos@ioSkill@@UAE?AUD3DXVECTOR3@@PAVioBaseChar@@@Z:PROC ; ioSkill::GetGrapplingTargetPos
EXTRN	?GetSkillWoundGrapplingInfo@ioSkill@@UAE?AUGrapplingSkillWoundedInfo@@XZ:PROC ; ioSkill::GetSkillWoundGrapplingInfo
EXTRN	?SetCreateWeaponDependency@ioSkill@@UAEXPAVioBaseChar@@PAVioPlayStage@@@Z:PROC ; ioSkill::SetCreateWeaponDependency
EXTRN	?SetNextSkillState@ioSkill@@UAEXPAVioBaseChar@@PAVioWeapon@@@Z:PROC ; ioSkill::SetNextSkillState
EXTRN	?OnSkillEndByWounded@ioSkill@@UAEXPAVioBaseChar@@@Z:PROC ; ioSkill::OnSkillEndByWounded
EXTRN	?OnProcessNotUseSkill@ioSkill@@UAEXPAVioBaseChar@@PAVioPlayStage@@@Z:PROC ; ioSkill::OnProcessNotUseSkill
EXTRN	?OnSkillItemRelease@ioSkill@@UAEXPAVioBaseChar@@@Z:PROC ; ioSkill::OnSkillItemRelease
EXTRN	?ApplyExtraSkillInfo@ioAttackSkill@@UAEXPAVioBaseChar@@PAVioPlayStage@@AAVSP2Packet@@@Z:PROC ; ioAttackSkill::ApplyExtraSkillInfo
EXTRN	?ApplyEquipSlotSkillExtraInfo@ioSkill@@UAEXPAVioBaseChar@@PAVioPlayStage@@AAVSP2Packet@@@Z:PROC ; ioSkill::ApplyEquipSlotSkillExtraInfo
EXTRN	?ApplyExtraPassiveSkillInfo@ioSkill@@UAEXPAVioBaseChar@@PAVioPlayStage@@AAVSP2Packet@@@Z:PROC ; ioSkill::ApplyExtraPassiveSkillInfo
EXTRN	?StartPreDelayEffect@ioAttackSkill@@UAEXPAVioBaseChar@@@Z:PROC ; ioAttackSkill::StartPreDelayEffect
EXTRN	?EndPreDelayEffect@ioAttackSkill@@UAEXPAVioBaseChar@@@Z:PROC ; ioAttackSkill::EndPreDelayEffect
EXTRN	?IsUseAutoTargetValue@ioAttackSkill@@UAE_NXZ:PROC ; ioAttackSkill::IsUseAutoTargetValue
EXTRN	?IsAutoTargetDownState@ioSkill@@UAE_NXZ:PROC	; ioSkill::IsAutoTargetDownState
EXTRN	?CheckUseBuff@ioSkill@@UAE_NPAVioBaseChar@@@Z:PROC ; ioSkill::CheckUseBuff
EXTRN	?CheckUseActiveCount@ioSkill@@UAE_NXZ:PROC	; ioSkill::CheckUseActiveCount
EXTRN	?CheckAniRotate@ioSkill@@UAEXPAVioBaseChar@@@Z:PROC ; ioSkill::CheckAniRotate
EXTRN	?IsEnableDashCheck@ioSkill@@UAE_NPAVioBaseChar@@@Z:PROC ; ioSkill::IsEnableDashCheck
EXTRN	?IsEnableMultiActive@ioSkill@@UAE_NPAVioBaseChar@@@Z:PROC ; ioSkill::IsEnableMultiActive
EXTRN	?GetAutoTargetValue@ioSkill@@UAEXAAM00@Z:PROC	; ioSkill::GetAutoTargetValue
EXTRN	?GetSkillGravityRate@ioSkill@@UAEMXZ:PROC	; ioSkill::GetSkillGravityRate
EXTRN	?GetSkillMotionName@ioSkill@@UBEABVioHashString@@XZ:PROC ; ioSkill::GetSkillMotionName
EXTRN	?HasSkillMotion@ioSkill@@UBE_NXZ:PROC		; ioSkill::HasSkillMotion
EXTRN	?GetSkillMotionRate@ioSkill@@UBEMXZ:PROC	; ioSkill::GetSkillMotionRate
EXTRN	?IsPreDelayProtect@ioSkill@@UBE_NXZ:PROC	; ioSkill::IsPreDelayProtect
EXTRN	?GetPreDelayAniName@ioSkill@@UBEABVioHashString@@XZ:PROC ; ioSkill::GetPreDelayAniName
EXTRN	?GetPreDelayTime@ioSkill@@UBEKXZ:PROC		; ioSkill::GetPreDelayTime
EXTRN	?GetPreDelayOwnerEffect@ioSkill@@UBEABVioHashString@@XZ:PROC ; ioSkill::GetPreDelayOwnerEffect
EXTRN	?GetPreDelayOtherEffect@ioSkill@@UBEABVioHashString@@XZ:PROC ; ioSkill::GetPreDelayOtherEffect
EXTRN	?SetCancelSkill@ioSkill@@UAEXPAVioBaseChar@@@Z:PROC ; ioSkill::SetCancelSkill
EXTRN	?ClearAirJump@ioSkill@@MAEXXZ:PROC		; ioSkill::ClearAirJump
EXTRN	?SetAirJump@ioSkill@@MAEXPAVioBaseChar@@HM@Z:PROC ; ioSkill::SetAirJump
EXTRN	?CheckAirJump@ioSkill@@MAEXPAVioBaseChar@@@Z:PROC ; ioSkill::CheckAirJump
EXTRN	?UseActiveCount@ioSkill@@UAE_NPAVioBaseChar@@@Z:PROC ; ioSkill::UseActiveCount
EXTRN	?GetMaxActiveCount@ioSkill@@UAEHPAVioBaseChar@@@Z:PROC ; ioSkill::GetMaxActiveCount
EXTRN	?GetCurActiveCount@ioSkill@@UAEHPAVioBaseChar@@@Z:PROC ; ioSkill::GetCurActiveCount
EXTRN	?HideHPGauge@ioSkill@@UAE_NXZ:PROC		; ioSkill::HideHPGauge
EXTRN	?SetInfoByApplyWeapon@ioSkill@@UAEXPAVioBaseChar@@0K_N@Z:PROC ; ioSkill::SetInfoByApplyWeapon
EXTRN	?SetCollisionByApplySkill@ioSkill@@UAEXXZ:PROC	; ioSkill::SetCollisionByApplySkill
EXTRN	?SetChargingRateForWeapon@ioSkill@@UAEXPAVioWeapon@@@Z:PROC ; ioSkill::SetChargingRateForWeapon
EXTRN	?CheckExceptionCamera@ioSkill@@UAE_NXZ:PROC	; ioSkill::CheckExceptionCamera
EXTRN	?GetExceptionCameraPos@ioSkill@@UAE?AUD3DXVECTOR3@@PAVioBaseChar@@@Z:PROC ; ioSkill::GetExceptionCameraPos
EXTRN	?IsFixedExceptionCamera@ioSkill@@UAE_NXZ:PROC	; ioSkill::IsFixedExceptionCamera
EXTRN	??_EioMoveAttackSkill@@UAEPAXI@Z:PROC		; ioMoveAttackSkill::`vector deleting destructor'
EXTRN	?StartPreDelayAnimation@ioAttackSkill@@MAE_NPAVioBaseChar@@@Z:PROC ; ioAttackSkill::StartPreDelayAnimation
EXTRN	?GetAttackTimeRate@ioAttackSkill@@MBEMXZ:PROC	; ioAttackSkill::GetAttackTimeRate
EXTRN	?GetAttackEndTimeRate@ioAttackSkill@@MBEMXZ:PROC ; ioAttackSkill::GetAttackEndTimeRate
EXTRN	?LoadNormalAttribute@ioAttackSkill@@MAEXAAVioINILoader@@@Z:PROC ; ioAttackSkill::LoadNormalAttribute
EXTRN	?LoadDownAttribute@ioAttackSkill@@MAEXAAVioINILoader@@@Z:PROC ; ioAttackSkill::LoadDownAttribute
EXTRN	?LoadJumpAttribute@ioAttackSkill@@MAEXAAVioINILoader@@@Z:PROC ; ioAttackSkill::LoadJumpAttribute
EXTRN	?GetAttribute@ioAttackSkill@@UAEAAUAttackAttribute@@XZ:PROC ; ioAttackSkill::GetAttribute
EXTRN	?GetAttributeConst@ioAttackSkill@@UBEABUAttackAttribute@@XZ:PROC ; ioAttackSkill::GetAttributeConst
EXTRN	?IsCanStateEscape@ioAttackSkill@@UBE_NXZ:PROC	; ioAttackSkill::IsCanStateEscape
EXTRN	?IsCanStateEscapeOnStand@ioAttackSkill@@UBE_NPAVioBaseChar@@@Z:PROC ; ioAttackSkill::IsCanStateEscapeOnStand
EXTRN	?IsCanStateEscapeOnAir@ioAttackSkill@@UBE_NPAVioBaseChar@@@Z:PROC ; ioAttackSkill::IsCanStateEscapeOnAir
EXTRN	?IsCanStateEscapeOnDown@ioAttackSkill@@UBE_NPAVioBaseChar@@@Z:PROC ; ioAttackSkill::IsCanStateEscapeOnDown
;	COMDAT ??_R2ioSkill@@8
; File c:\program files (x86)\microsoft visual studio 10.0\vc\include\xmemory
rdata$r	SEGMENT
??_R2ioSkill@@8 DD FLAT:??_R1A@?0A@EA@ioSkill@@8	; ioSkill::`RTTI Base Class Array'
rdata$r	ENDS
;	COMDAT ??_R3ioSkill@@8
rdata$r	SEGMENT
??_R3ioSkill@@8 DD 00H					; ioSkill::`RTTI Class Hierarchy Descriptor'
	DD	00H
	DD	01H
	DD	FLAT:??_R2ioSkill@@8
rdata$r	ENDS
;	COMDAT ??_R0?AVioSkill@@@8
_DATA	SEGMENT
??_R0?AVioSkill@@@8 DD FLAT:??_7type_info@@6B@		; ioSkill `RTTI Type Descriptor'
	DD	00H
	DB	'.?AVioSkill@@', 00H
_DATA	ENDS
;	COMDAT ??_R1A@?0A@EA@ioSkill@@8
rdata$r	SEGMENT
??_R1A@?0A@EA@ioSkill@@8 DD FLAT:??_R0?AVioSkill@@@8	; ioSkill::`RTTI Base Class Descriptor at (0,-1,0,64)'
	DD	00H
	DD	00H
	DD	0ffffffffH
	DD	00H
	DD	040H
	DD	FLAT:??_R3ioSkill@@8
rdata$r	ENDS
;	COMDAT ??_R2ioAttackSkill@@8
rdata$r	SEGMENT
??_R2ioAttackSkill@@8 DD FLAT:??_R1A@?0A@EA@ioAttackSkill@@8 ; ioAttackSkill::`RTTI Base Class Array'
	DD	FLAT:??_R1A@?0A@EA@ioSkill@@8
rdata$r	ENDS
;	COMDAT ??_R3ioAttackSkill@@8
rdata$r	SEGMENT
??_R3ioAttackSkill@@8 DD 00H				; ioAttackSkill::`RTTI Class Hierarchy Descriptor'
	DD	00H
	DD	02H
	DD	FLAT:??_R2ioAttackSkill@@8
rdata$r	ENDS
;	COMDAT ??_R0?AVioAttackSkill@@@8
_DATA	SEGMENT
??_R0?AVioAttackSkill@@@8 DD FLAT:??_7type_info@@6B@	; ioAttackSkill `RTTI Type Descriptor'
	DD	00H
	DB	'.?AVioAttackSkill@@', 00H
_DATA	ENDS
;	COMDAT ??_R1A@?0A@EA@ioAttackSkill@@8
rdata$r	SEGMENT
??_R1A@?0A@EA@ioAttackSkill@@8 DD FLAT:??_R0?AVioAttackSkill@@@8 ; ioAttackSkill::`RTTI Base Class Descriptor at (0,-1,0,64)'
	DD	01H
	DD	00H
	DD	0ffffffffH
	DD	00H
	DD	040H
	DD	FLAT:??_R3ioAttackSkill@@8
rdata$r	ENDS
;	COMDAT ??_R1A@?0A@EA@ioMoveAttackSkill@@8
rdata$r	SEGMENT
??_R1A@?0A@EA@ioMoveAttackSkill@@8 DD FLAT:??_R0?AVioMoveAttackSkill@@@8 ; ioMoveAttackSkill::`RTTI Base Class Descriptor at (0,-1,0,64)'
	DD	02H
	DD	00H
	DD	0ffffffffH
	DD	00H
	DD	040H
	DD	FLAT:??_R3ioMoveAttackSkill@@8
rdata$r	ENDS
;	COMDAT ??_R2ioMoveAttackSkill@@8
rdata$r	SEGMENT
??_R2ioMoveAttackSkill@@8 DD FLAT:??_R1A@?0A@EA@ioMoveAttackSkill@@8 ; ioMoveAttackSkill::`RTTI Base Class Array'
	DD	FLAT:??_R1A@?0A@EA@ioAttackSkill@@8
	DD	FLAT:??_R1A@?0A@EA@ioSkill@@8
rdata$r	ENDS
;	COMDAT ??_R3ioMoveAttackSkill@@8
rdata$r	SEGMENT
??_R3ioMoveAttackSkill@@8 DD 00H			; ioMoveAttackSkill::`RTTI Class Hierarchy Descriptor'
	DD	00H
	DD	03H
	DD	FLAT:??_R2ioMoveAttackSkill@@8
rdata$r	ENDS
;	COMDAT ??_R0?AVioMoveAttackSkill@@@8
_DATA	SEGMENT
??_R0?AVioMoveAttackSkill@@@8 DD FLAT:??_7type_info@@6B@ ; ioMoveAttackSkill `RTTI Type Descriptor'
	DD	00H
	DB	'.?AVioMoveAttackSkill@@', 00H
_DATA	ENDS
;	COMDAT ??_R4ioMoveAttackSkill@@6B@
rdata$r	SEGMENT
??_R4ioMoveAttackSkill@@6B@ DD 00H			; ioMoveAttackSkill::`RTTI Complete Object Locator'
	DD	00H
	DD	00H
	DD	FLAT:??_R0?AVioMoveAttackSkill@@@8
	DD	FLAT:??_R3ioMoveAttackSkill@@8
rdata$r	ENDS
;	COMDAT ??_7ioMoveAttackSkill@@6B@
CONST	SEGMENT
??_7ioMoveAttackSkill@@6B@ DD FLAT:??_R4ioMoveAttackSkill@@6B@ ; ioMoveAttackSkill::`vftable'
	DD	FLAT:?LoadProperty@ioMoveAttackSkill@@UAEXAAVioINILoader@@@Z
	DD	FLAT:?Clone@ioMoveAttackSkill@@UAEPAVioSkill@@XZ
	DD	FLAT:?GetTypeID@ioAttackSkill@@UBEHXZ
	DD	FLAT:?IsProtected@ioSkill@@UBE_NH@Z
	DD	FLAT:?IsCanSwitchSkill@ioSkill@@UBE_NXZ
	DD	FLAT:?IsCanSemiSwitchSkill@ioSkill@@UBE_NXZ
	DD	FLAT:?IsCanCancelBySkill@ioSkill@@UBE_NPAVioBaseChar@@AAH@Z
	DD	FLAT:?IsCanUseZeroHP@ioSkill@@UBE_NPAVioBaseChar@@@Z
	DD	FLAT:?IsCanUseSkillWithCrown@ioSkill@@UAE_NPAVioBaseChar@@@Z
	DD	FLAT:?IsCanUseBoss@ioSkill@@UBE_NPAVioBaseChar@@@Z
	DD	FLAT:?IsCanUseFootball@ioSkill@@UBE_NXZ
	DD	FLAT:?IsCanUseGangSiMode@ioSkill@@UBE_NXZ
	DD	FLAT:?IsCanUseByWeaponType@ioSkill@@UBE_NPAVioBaseChar@@@Z
	DD	FLAT:?IsCanUseThunderBirdHold@ioSkill@@UBE_NPAVioBaseChar@@@Z
	DD	FLAT:?IsCanUseLimitHP@ioSkill@@UBE_NPAVioBaseChar@@@Z
	DD	FLAT:?IsCanUseSkill@ioAttackSkill@@UAE_NPAVioBaseChar@@_N@Z
	DD	FLAT:?IsOnOffEnable@ioSkill@@UAE_NXZ
	DD	FLAT:?IsCanDefenseStateSkill@ioSkill@@UAE_NXZ
	DD	FLAT:?SetDefenseStateSkill@ioSkill@@UAEXPAVioBaseChar@@@Z
	DD	FLAT:?GetDefenseSkillBreakeType@ioSkill@@UBE?AW4DefenseBreakType@@XZ
	DD	FLAT:?HasBuff@ioSkill@@UBE_NH@Z
	DD	FLAT:?GetBuffType@ioSkill@@UAEHH@Z
	DD	FLAT:?IsEnableReserve@ioSkill@@UBE_NXZ
	DD	FLAT:?IsSkillMotionEnd@ioSkill@@UBE_NKPAVioBaseChar@@@Z
	DD	FLAT:?IsCharSkipState@ioSkill@@UBE?AW4SkillCharColType@@XZ
	DD	FLAT:?IsEntityCollisionSkipState@ioSkill@@UBE_NXZ
	DD	FLAT:?GetSkillEndNextJumpAmt@ioSkill@@UBEMXZ
	DD	FLAT:?GetSkillEndNextLandRate@ioSkill@@UBEMXZ
	DD	FLAT:?GetSkillEndNextJumpMustEnable@ioSkill@@UAE?AW4SkillEndJumpType@@XZ
	DD	FLAT:?IsEndState@ioSkill@@UBE_NXZ
	DD	FLAT:?IsAttackEndState@ioAttackSkill@@UBE_NXZ
	DD	FLAT:?IsJumpState@ioSkill@@UBE_NXZ
	DD	FLAT:?IsDownState@ioSkill@@UBE_NXZ
	DD	FLAT:?IsNoDropState@ioSkill@@UBE_NXZ
	DD	FLAT:?IsCanSendControl@ioSkill@@UBE_NXZ
	DD	FLAT:?IsSkipState@ioSkill@@UBE_NXZ
	DD	FLAT:?GetSkillMoveRate@ioSkill@@UBEMXZ
	DD	FLAT:?SetSkillGrapplingState@ioSkill@@UAE_NPAVioBaseChar@@ABVioHashString@@@Z
	DD	FLAT:?GetGrapplingTargetPos@ioSkill@@UAE?AUD3DXVECTOR3@@PAVioBaseChar@@0@Z
	DD	FLAT:?GetGrapplingTargetPos@ioSkill@@UAE?AUD3DXVECTOR3@@PAVioBaseChar@@@Z
	DD	FLAT:?EnableChangeGrapplingTargetPos@ioSkill@@UBE_NXZ
	DD	FLAT:?GetSkillWoundGrapplingInfo@ioSkill@@UAE?AUGrapplingSkillWoundedInfo@@XZ
	DD	FLAT:?SetCreateWeaponDependency@ioSkill@@UAEXPAVioBaseChar@@PAVioPlayStage@@@Z
	DD	FLAT:?SetNextSkillState@ioSkill@@UAEXPAVioBaseChar@@PAVioWeapon@@@Z
	DD	FLAT:?OnSkillStart@ioMoveAttackSkill@@UAE_NPAVioBaseChar@@@Z
	DD	FLAT:?OnProcessState@ioMoveAttackSkill@@UAEXPAVioBaseChar@@PAVioPlayStage@@@Z
	DD	FLAT:?OnSkillEndByWounded@ioSkill@@UAEXPAVioBaseChar@@@Z
	DD	FLAT:?OnSkillEnd@ioMoveAttackSkill@@UAEXPAVioBaseChar@@@Z
	DD	FLAT:?OnProcessNotUseSkill@ioSkill@@UAEXPAVioBaseChar@@PAVioPlayStage@@@Z
	DD	FLAT:?OnSkillItemRelease@ioSkill@@UAEXPAVioBaseChar@@@Z
	DD	FLAT:?ApplyAttributeToWeapon@ioMoveAttackSkill@@UAEXPAVioWeapon@@PAVioPlayStage@@@Z
	DD	FLAT:?ApplyExtraSkillInfo@ioAttackSkill@@UAEXPAVioBaseChar@@PAVioPlayStage@@AAVSP2Packet@@@Z
	DD	FLAT:?ApplyEquipSlotSkillExtraInfo@ioSkill@@UAEXPAVioBaseChar@@PAVioPlayStage@@AAVSP2Packet@@@Z
	DD	FLAT:?ApplyExtraPassiveSkillInfo@ioSkill@@UAEXPAVioBaseChar@@PAVioPlayStage@@AAVSP2Packet@@@Z
	DD	FLAT:?StartPreDelayEffect@ioAttackSkill@@UAEXPAVioBaseChar@@@Z
	DD	FLAT:?EndPreDelayEffect@ioAttackSkill@@UAEXPAVioBaseChar@@@Z
	DD	FLAT:?IsUseAutoTargetValue@ioAttackSkill@@UAE_NXZ
	DD	FLAT:?IsAutoTargetDownState@ioSkill@@UAE_NXZ
	DD	FLAT:?CheckUseBuff@ioSkill@@UAE_NPAVioBaseChar@@@Z
	DD	FLAT:?CheckUseItemMesh@ioMoveAttackSkill@@UAE_NXZ
	DD	FLAT:?CheckUseActiveCount@ioSkill@@UAE_NXZ
	DD	FLAT:?CheckAniRotate@ioSkill@@UAEXPAVioBaseChar@@@Z
	DD	FLAT:?IsEnableDashCheck@ioSkill@@UAE_NPAVioBaseChar@@@Z
	DD	FLAT:?IsEnableMultiActive@ioSkill@@UAE_NPAVioBaseChar@@@Z
	DD	FLAT:?IsInvisibleBottomCircle@ioSkill@@UAE_NPAVioBaseChar@@@Z
	DD	FLAT:?GetAutoTargetValue@ioSkill@@UAEXAAM00@Z
	DD	FLAT:?IsCanJumpingSkill@ioSkill@@UBE_NXZ
	DD	FLAT:?IsCanJumpingSkillOnBlowWound@ioSkill@@UBE_NXZ
	DD	FLAT:?IsCanDownSkill@ioSkill@@UBE_NXZ
	DD	FLAT:?IsCanBlowWoundSkill@ioSkill@@UBE_NXZ
	DD	FLAT:?IsCanWoundSkill@ioSkill@@UBE_NXZ
	DD	FLAT:?GetSkillGravityRate@ioSkill@@UAEMXZ
	DD	FLAT:?GetSkillMotionName@ioSkill@@UBEABVioHashString@@XZ
	DD	FLAT:?HasSkillMotion@ioSkill@@UBE_NXZ
	DD	FLAT:?GetSkillMotionRate@ioSkill@@UBEMXZ
	DD	FLAT:?IsPreDelayProtect@ioSkill@@UBE_NXZ
	DD	FLAT:?GetPreDelayAniName@ioSkill@@UBEABVioHashString@@XZ
	DD	FLAT:?GetPreDelayTime@ioSkill@@UBEKXZ
	DD	FLAT:?GetPreDelayOwnerEffect@ioSkill@@UBEABVioHashString@@XZ
	DD	FLAT:?GetPreDelayOtherEffect@ioSkill@@UBEABVioHashString@@XZ
	DD	FLAT:?SetCancelSkill@ioSkill@@UAEXPAVioBaseChar@@@Z
	DD	FLAT:?ClearAirJump@ioSkill@@MAEXXZ
	DD	FLAT:?SetAirJump@ioSkill@@MAEXPAVioBaseChar@@HM@Z
	DD	FLAT:?CheckAirJump@ioSkill@@MAEXPAVioBaseChar@@@Z
	DD	FLAT:?UseActiveCount@ioSkill@@UAE_NPAVioBaseChar@@@Z
	DD	FLAT:?GetMaxActiveCount@ioSkill@@UAEHPAVioBaseChar@@@Z
	DD	FLAT:?GetCurActiveCount@ioSkill@@UAEHPAVioBaseChar@@@Z
	DD	FLAT:?HideHPGauge@ioSkill@@UAE_NXZ
	DD	FLAT:?SetInfoByApplyWeapon@ioSkill@@UAEXPAVioBaseChar@@0K_N@Z
	DD	FLAT:?SetCollisionByApplySkill@ioSkill@@UAEXXZ
	DD	FLAT:?SetChargingRateForWeapon@ioSkill@@UAEXPAVioWeapon@@@Z
	DD	FLAT:?CheckExceptionCamera@ioSkill@@UAE_NXZ
	DD	FLAT:?GetExceptionCameraPos@ioSkill@@UAE?AUD3DXVECTOR3@@PAVioBaseChar@@@Z
	DD	FLAT:?IsFixedExceptionCamera@ioSkill@@UAE_NXZ
	DD	FLAT:?IsUseActiveCnt@ioSkill@@UBE_NXZ
	DD	FLAT:?GetMaxActiveCnt@ioSkill@@UBEHPAVioBaseChar@@@Z
	DD	FLAT:?GetCurActiveCnt@ioSkill@@UBEHPAVioBaseChar@@@Z
	DD	FLAT:??_EioMoveAttackSkill@@UAEPAXI@Z
	DD	FLAT:?StartPreDelayAnimation@ioAttackSkill@@MAE_NPAVioBaseChar@@@Z
	DD	FLAT:?AttackSkillFire@ioMoveAttackSkill@@MAEXPAVioBaseChar@@@Z
	DD	FLAT:?GetAttackTimeRate@ioAttackSkill@@MBEMXZ
	DD	FLAT:?GetAttackEndTimeRate@ioAttackSkill@@MBEMXZ
	DD	FLAT:?LoadNormalAttribute@ioAttackSkill@@MAEXAAVioINILoader@@@Z
	DD	FLAT:?LoadDownAttribute@ioAttackSkill@@MAEXAAVioINILoader@@@Z
	DD	FLAT:?LoadJumpAttribute@ioAttackSkill@@MAEXAAVioINILoader@@@Z
	DD	FLAT:?GetAttribute@ioAttackSkill@@UAEAAUAttackAttribute@@XZ
	DD	FLAT:?GetAttributeConst@ioAttackSkill@@UBEABUAttackAttribute@@XZ
	DD	FLAT:?IsCanStateEscape@ioAttackSkill@@UBE_NXZ
	DD	FLAT:?IsCanStateEscapeOnStand@ioAttackSkill@@UBE_NPAVioBaseChar@@@Z
	DD	FLAT:?IsCanStateEscapeOnAir@ioAttackSkill@@UBE_NPAVioBaseChar@@@Z
	DD	FLAT:?IsCanStateEscapeOnDown@ioAttackSkill@@UBE_NPAVioBaseChar@@@Z
; Function compile flags: /Ogsp
; File d:\lost saga for developer\youtube\tutorial\source\src\lsclient\iomoveattackskill.cpp
CONST	ENDS
;	COMDAT ??0ioMoveAttackSkill@@QAE@XZ
_TEXT	SEGMENT
??0ioMoveAttackSkill@@QAE@XZ PROC			; ioMoveAttackSkill::ioMoveAttackSkill, COMDAT
; _this$ = ecx

; 12   : {

  00000	56		 push	 esi
  00001	8b f1		 mov	 esi, ecx
  00003	e8 00 00 00 00	 call	 ??0ioAttackSkill@@QAE@XZ ; ioAttackSkill::ioAttackSkill
  00008	33 c9		 xor	 ecx, ecx
  0000a	c7 06 00 00 00
	00		 mov	 DWORD PTR [esi], OFFSET ??_7ioMoveAttackSkill@@6B@
  00010	89 8e f4 10 00
	00		 mov	 DWORD PTR [esi+4340], ecx
  00016	89 8e f8 10 00
	00		 mov	 DWORD PTR [esi+4344], ecx
  0001c	89 8e fc 10 00
	00		 mov	 DWORD PTR [esi+4348], ecx

; 13   : 	m_iWeaponWay = 0;

  00022	89 8e f0 10 00
	00		 mov	 DWORD PTR [esi+4336], ecx

; 14   : 	m_bSetHandMesh = false;

  00028	88 8e 0a 0f 00
	00		 mov	 BYTE PTR [esi+3850], cl

; 15   : }

  0002e	8b c6		 mov	 eax, esi
  00030	5e		 pop	 esi
  00031	c3		 ret	 0
??0ioMoveAttackSkill@@QAE@XZ ENDP			; ioMoveAttackSkill::ioMoveAttackSkill
; Function compile flags: /Ogsp
; File d:\lost saga for developer\youtube\tutorial\source\src\lsclient\ioskill.h
_TEXT	ENDS
;	COMDAT ?GetDefenseSkillBreakeType@ioSkill@@UBE?AW4DefenseBreakType@@XZ
_TEXT	SEGMENT
?GetDefenseSkillBreakeType@ioSkill@@UBE?AW4DefenseBreakType@@XZ PROC ; ioSkill::GetDefenseSkillBreakeType, COMDAT
; _this$ = ecx

; 327  : 	virtual DefenseBreakType GetDefenseSkillBreakeType() const { return m_eDefenseSkillBreakType; }

  00000	8b 81 30 0e 00
	00		 mov	 eax, DWORD PTR [ecx+3632]
  00006	c3		 ret	 0
?GetDefenseSkillBreakeType@ioSkill@@UBE?AW4DefenseBreakType@@XZ ENDP ; ioSkill::GetDefenseSkillBreakeType
; Function compile flags: /Ogsp
_TEXT	ENDS
;	COMDAT ?GetSkillEndNextJumpAmt@ioSkill@@UBEMXZ
_TEXT	SEGMENT
?GetSkillEndNextJumpAmt@ioSkill@@UBEMXZ PROC		; ioSkill::GetSkillEndNextJumpAmt, COMDAT
; _this$ = ecx

; 335  : 	virtual float GetSkillEndNextJumpAmt() const { return m_fSkillEndNextJumpAmt; }

  00000	d9 81 4c 05 00
	00		 fld	 DWORD PTR [ecx+1356]
  00006	c3		 ret	 0
?GetSkillEndNextJumpAmt@ioSkill@@UBEMXZ ENDP		; ioSkill::GetSkillEndNextJumpAmt
; Function compile flags: /Ogsp
_TEXT	ENDS
;	COMDAT ?GetSkillEndNextLandRate@ioSkill@@UBEMXZ
_TEXT	SEGMENT
?GetSkillEndNextLandRate@ioSkill@@UBEMXZ PROC		; ioSkill::GetSkillEndNextLandRate, COMDAT
; _this$ = ecx

; 336  : 	virtual float GetSkillEndNextLandRate() const { return m_fSkillEndNextLandRate; }

  00000	d9 81 50 05 00
	00		 fld	 DWORD PTR [ecx+1360]
  00006	c3		 ret	 0
?GetSkillEndNextLandRate@ioSkill@@UBEMXZ ENDP		; ioSkill::GetSkillEndNextLandRate
; Function compile flags: /Ogsp
_TEXT	ENDS
;	COMDAT ?GetSkillEndNextJumpMustEnable@ioSkill@@UAE?AW4SkillEndJumpType@@XZ
_TEXT	SEGMENT
?GetSkillEndNextJumpMustEnable@ioSkill@@UAE?AW4SkillEndJumpType@@XZ PROC ; ioSkill::GetSkillEndNextJumpMustEnable, COMDAT
; _this$ = ecx

; 337  : 	virtual SkillEndJumpType GetSkillEndNextJumpMustEnable(){ return SEJT_DEFAULT; }

  00000	33 c0		 xor	 eax, eax
  00002	c3		 ret	 0
?GetSkillEndNextJumpMustEnable@ioSkill@@UAE?AW4SkillEndJumpType@@XZ ENDP ; ioSkill::GetSkillEndNextJumpMustEnable
; Function compile flags: /Ogsp
_TEXT	ENDS
;	COMDAT ?EnableChangeGrapplingTargetPos@ioSkill@@UBE_NXZ
_TEXT	SEGMENT
?EnableChangeGrapplingTargetPos@ioSkill@@UBE_NXZ PROC	; ioSkill::EnableChangeGrapplingTargetPos, COMDAT
; _this$ = ecx

; 355  : 	virtual bool EnableChangeGrapplingTargetPos() const { return m_bChangeGrapplingTargetPos; }

  00000	8a 81 40 09 00
	00		 mov	 al, BYTE PTR [ecx+2368]
  00006	c3		 ret	 0
?EnableChangeGrapplingTargetPos@ioSkill@@UBE_NXZ ENDP	; ioSkill::EnableChangeGrapplingTargetPos
; Function compile flags: /Ogsp
_TEXT	ENDS
;	COMDAT ?IsInvisibleBottomCircle@ioSkill@@UAE_NPAVioBaseChar@@@Z
_TEXT	SEGMENT
_pChar$ = 8						; size = 4
?IsInvisibleBottomCircle@ioSkill@@UAE_NPAVioBaseChar@@@Z PROC ; ioSkill::IsInvisibleBottomCircle, COMDAT
; _this$ = ecx

; 393  : 	virtual bool IsInvisibleBottomCircle( ioBaseChar *pChar ) { return false; }

  00000	32 c0		 xor	 al, al
  00002	c2 04 00	 ret	 4
?IsInvisibleBottomCircle@ioSkill@@UAE_NPAVioBaseChar@@@Z ENDP ; ioSkill::IsInvisibleBottomCircle
; Function compile flags: /Ogsp
_TEXT	ENDS
;	COMDAT ?IsUseActiveCnt@ioSkill@@UBE_NXZ
_TEXT	SEGMENT
?IsUseActiveCnt@ioSkill@@UBE_NXZ PROC			; ioSkill::IsUseActiveCnt, COMDAT
; _this$ = ecx

; 544  : 	virtual bool IsUseActiveCnt() const { return false; }

  00000	32 c0		 xor	 al, al
  00002	c3		 ret	 0
?IsUseActiveCnt@ioSkill@@UBE_NXZ ENDP			; ioSkill::IsUseActiveCnt
; Function compile flags: /Ogsp
_TEXT	ENDS
;	COMDAT ?GetMaxActiveCnt@ioSkill@@UBEHPAVioBaseChar@@@Z
_TEXT	SEGMENT
_pChar$ = 8						; size = 4
?GetMaxActiveCnt@ioSkill@@UBEHPAVioBaseChar@@@Z PROC	; ioSkill::GetMaxActiveCnt, COMDAT
; _this$ = ecx

; 545  : 	virtual int GetMaxActiveCnt( ioBaseChar *pChar ) const { return 0; }

  00000	33 c0		 xor	 eax, eax
  00002	c2 04 00	 ret	 4
?GetMaxActiveCnt@ioSkill@@UBEHPAVioBaseChar@@@Z ENDP	; ioSkill::GetMaxActiveCnt
; Function compile flags: /Ogsp
_TEXT	ENDS
;	COMDAT ?GetCurActiveCnt@ioSkill@@UBEHPAVioBaseChar@@@Z
_TEXT	SEGMENT
_pChar$ = 8						; size = 4
?GetCurActiveCnt@ioSkill@@UBEHPAVioBaseChar@@@Z PROC	; ioSkill::GetCurActiveCnt, COMDAT
; _this$ = ecx

; 546  : 	virtual int GetCurActiveCnt( ioBaseChar *pChar ) const { return 0; }

  00000	33 c0		 xor	 eax, eax
  00002	c2 04 00	 ret	 4
?GetCurActiveCnt@ioSkill@@UBEHPAVioBaseChar@@@Z ENDP	; ioSkill::GetCurActiveCnt
_TEXT	ENDS
PUBLIC	?DecryptValueToPool@?$CEncrypt@_N@@QAEXPA_N@Z	; CEncrypt<bool>::DecryptValueToPool
EXTRN	?DecryptByte@ccddaabb@@QBEXPBDPADH@Z:PROC	; ccddaabb::DecryptByte
; Function compile flags: /Ogsp
; File d:\lost saga for developer\youtube\tutorial\source\src\lsclient\encryptvalue.h
;	COMDAT ?DecryptValueToPool@?$CEncrypt@_N@@QAEXPA_N@Z
_TEXT	SEGMENT
_value$ = 8						; size = 4
?DecryptValueToPool@?$CEncrypt@_N@@QAEXPA_N@Z PROC	; CEncrypt<bool>::DecryptValueToPool, COMDAT
; _this$ = ecx

; 219  : 	{

  00000	55		 push	 ebp
  00001	8b ec		 mov	 ebp, esp
  00003	56		 push	 esi

; 220  : 		m_RC5.DecryptByte( m_MemPool, m_TempMem, 4 );

  00004	8d 71 28	 lea	 esi, DWORD PTR [ecx+40]
  00007	6a 04		 push	 4
  00009	8d 41 1c	 lea	 eax, DWORD PTR [ecx+28]
  0000c	56		 push	 esi
  0000d	50		 push	 eax
  0000e	83 c1 0c	 add	 ecx, 12			; 0000000cH
  00011	e8 00 00 00 00	 call	 ?DecryptByte@ccddaabb@@QBEXPBDPADH@Z ; ccddaabb::DecryptByte

; 221  : 		*value = *((bool*)m_TempMem);

  00016	8a 06		 mov	 al, BYTE PTR [esi]
  00018	8b 4d 08	 mov	 ecx, DWORD PTR _value$[ebp]
  0001b	88 01		 mov	 BYTE PTR [ecx], al
  0001d	5e		 pop	 esi

; 222  : 	}

  0001e	5d		 pop	 ebp
  0001f	c2 04 00	 ret	 4
?DecryptValueToPool@?$CEncrypt@_N@@QAEXPA_N@Z ENDP	; CEncrypt<bool>::DecryptValueToPool
_TEXT	ENDS
PUBLIC	??B?$CEncrypt@_N@@QBE_NXZ			; CEncrypt<bool>::operator bool
; Function compile flags: /Ogsp
;	COMDAT ??B?$CEncrypt@_N@@QBE_NXZ
_TEXT	SEGMENT
_value$ = -1						; size = 1
??B?$CEncrypt@_N@@QBE_NXZ PROC				; CEncrypt<bool>::operator bool, COMDAT
; _this$ = ecx

; 145  : 	{

  00000	55		 push	 ebp
  00001	8b ec		 mov	 ebp, esp
  00003	51		 push	 ecx

; 146  : 		//UJ 130829, const도 똑같이 하면 된다 --start
; 147  : 		type value;
; 148  : 		CEncrypt<type>* pThis = const_cast<CEncrypt<type>*>(this);
; 149  : 		pThis->DecryptValueToPool(&value);

  00004	8d 45 ff	 lea	 eax, DWORD PTR _value$[ebp]
  00007	50		 push	 eax
  00008	e8 00 00 00 00	 call	 ?DecryptValueToPool@?$CEncrypt@_N@@QAEXPA_N@Z ; CEncrypt<bool>::DecryptValueToPool

; 150  : 		//// const에서 DecryptValueToPool 사용할 수 없으므로 아래와 같이함.
; 151  :  		//type value;
; 152  : 		//char szTempMem[MAX_ENCRYPT];
; 153  : 		//m_RC5.DecryptByte( m_MemPool, szTempMem, max(m_ValueSize, DEFAULT_ENCRYPT) );
; 154  : 		//memcpy( &value, szTempMem, m_ValueSize );
; 155  : 		//UJ --end
; 156  : 
; 157  : #ifdef _NOTUSE
; 158  : 		Debug();
; 159  : #endif
; 160  : 		return value;

  0000d	8a 45 ff	 mov	 al, BYTE PTR _value$[ebp]

; 161  : 	}

  00010	c9		 leave
  00011	c3		 ret	 0
??B?$CEncrypt@_N@@QBE_NXZ ENDP				; CEncrypt<bool>::operator bool
; Function compile flags: /Ogsp
; File d:\lost saga for developer\youtube\tutorial\source\src\lsclient\ioskill.h
_TEXT	ENDS
;	COMDAT ?IsCanJumpingSkill@ioSkill@@UBE_NXZ
_TEXT	SEGMENT
_value$547264 = -1					; size = 1
?IsCanJumpingSkill@ioSkill@@UBE_NXZ PROC		; ioSkill::IsCanJumpingSkill, COMDAT
; _this$ = ecx

; 431  : 	virtual bool IsCanJumpingSkill() const { return m_bEnableJumpingSkill; }

  00000	55		 push	 ebp
  00001	8b ec		 mov	 ebp, esp
  00003	51		 push	 ecx
  00004	8d 45 ff	 lea	 eax, DWORD PTR _value$547264[ebp]
  00007	50		 push	 eax
  00008	81 c1 9c 03 00
	00		 add	 ecx, 924		; 0000039cH
  0000e	e8 00 00 00 00	 call	 ?DecryptValueToPool@?$CEncrypt@_N@@QAEXPA_N@Z ; CEncrypt<bool>::DecryptValueToPool
  00013	8a 45 ff	 mov	 al, BYTE PTR _value$547264[ebp]
  00016	c9		 leave
  00017	c3		 ret	 0
?IsCanJumpingSkill@ioSkill@@UBE_NXZ ENDP		; ioSkill::IsCanJumpingSkill
; Function compile flags: /Ogsp
_TEXT	ENDS
;	COMDAT ?IsCanJumpingSkillOnBlowWound@ioSkill@@UBE_NXZ
_TEXT	SEGMENT
_value$547271 = -1					; size = 1
?IsCanJumpingSkillOnBlowWound@ioSkill@@UBE_NXZ PROC	; ioSkill::IsCanJumpingSkillOnBlowWound, COMDAT
; _this$ = ecx

; 432  : 	virtual bool IsCanJumpingSkillOnBlowWound() const { return m_bEnableJumpingSkillOnBlowWound; }

  00000	55		 push	 ebp
  00001	8b ec		 mov	 ebp, esp
  00003	51		 push	 ecx
  00004	8d 45 ff	 lea	 eax, DWORD PTR _value$547271[ebp]
  00007	50		 push	 eax
  00008	81 c1 cc 03 00
	00		 add	 ecx, 972		; 000003ccH
  0000e	e8 00 00 00 00	 call	 ?DecryptValueToPool@?$CEncrypt@_N@@QAEXPA_N@Z ; CEncrypt<bool>::DecryptValueToPool
  00013	8a 45 ff	 mov	 al, BYTE PTR _value$547271[ebp]
  00016	c9		 leave
  00017	c3		 ret	 0
?IsCanJumpingSkillOnBlowWound@ioSkill@@UBE_NXZ ENDP	; ioSkill::IsCanJumpingSkillOnBlowWound
; Function compile flags: /Ogsp
_TEXT	ENDS
;	COMDAT ?IsCanDownSkill@ioSkill@@UBE_NXZ
_TEXT	SEGMENT
_value$547278 = -1					; size = 1
?IsCanDownSkill@ioSkill@@UBE_NXZ PROC			; ioSkill::IsCanDownSkill, COMDAT
; _this$ = ecx

; 437  : 	virtual bool IsCanDownSkill() const { return m_bEnableDownSkill; }

  00000	55		 push	 ebp
  00001	8b ec		 mov	 ebp, esp
  00003	51		 push	 ecx
  00004	8d 45 ff	 lea	 eax, DWORD PTR _value$547278[ebp]
  00007	50		 push	 eax
  00008	81 c1 5c 04 00
	00		 add	 ecx, 1116		; 0000045cH
  0000e	e8 00 00 00 00	 call	 ?DecryptValueToPool@?$CEncrypt@_N@@QAEXPA_N@Z ; CEncrypt<bool>::DecryptValueToPool
  00013	8a 45 ff	 mov	 al, BYTE PTR _value$547278[ebp]
  00016	c9		 leave
  00017	c3		 ret	 0
?IsCanDownSkill@ioSkill@@UBE_NXZ ENDP			; ioSkill::IsCanDownSkill
; Function compile flags: /Ogsp
_TEXT	ENDS
;	COMDAT ?IsCanBlowWoundSkill@ioSkill@@UBE_NXZ
_TEXT	SEGMENT
_value$547285 = -1					; size = 1
?IsCanBlowWoundSkill@ioSkill@@UBE_NXZ PROC		; ioSkill::IsCanBlowWoundSkill, COMDAT
; _this$ = ecx

; 440  : 	virtual bool IsCanBlowWoundSkill() const { return m_bEnableBlowWoundSkill; }

  00000	55		 push	 ebp
  00001	8b ec		 mov	 ebp, esp
  00003	51		 push	 ecx
  00004	8d 45 ff	 lea	 eax, DWORD PTR _value$547285[ebp]
  00007	50		 push	 eax
  00008	81 c1 8c 04 00
	00		 add	 ecx, 1164		; 0000048cH
  0000e	e8 00 00 00 00	 call	 ?DecryptValueToPool@?$CEncrypt@_N@@QAEXPA_N@Z ; CEncrypt<bool>::DecryptValueToPool
  00013	8a 45 ff	 mov	 al, BYTE PTR _value$547285[ebp]
  00016	c9		 leave
  00017	c3		 ret	 0
?IsCanBlowWoundSkill@ioSkill@@UBE_NXZ ENDP		; ioSkill::IsCanBlowWoundSkill
; Function compile flags: /Ogsp
_TEXT	ENDS
;	COMDAT ?IsCanWoundSkill@ioSkill@@UBE_NXZ
_TEXT	SEGMENT
_value$547292 = -1					; size = 1
?IsCanWoundSkill@ioSkill@@UBE_NXZ PROC			; ioSkill::IsCanWoundSkill, COMDAT
; _this$ = ecx

; 446  : 	virtual bool IsCanWoundSkill() const { return m_bEnableWoundSkill; }

  00000	55		 push	 ebp
  00001	8b ec		 mov	 ebp, esp
  00003	51		 push	 ecx
  00004	8d 45 ff	 lea	 eax, DWORD PTR _value$547292[ebp]
  00007	50		 push	 eax
  00008	81 c1 54 05 00
	00		 add	 ecx, 1364		; 00000554H
  0000e	e8 00 00 00 00	 call	 ?DecryptValueToPool@?$CEncrypt@_N@@QAEXPA_N@Z ; CEncrypt<bool>::DecryptValueToPool
  00013	8a 45 ff	 mov	 al, BYTE PTR _value$547292[ebp]
  00016	c9		 leave
  00017	c3		 ret	 0
?IsCanWoundSkill@ioSkill@@UBE_NXZ ENDP			; ioSkill::IsCanWoundSkill
_TEXT	ENDS
PUBLIC	??0ioMoveAttackSkill@@QAE@ABV0@@Z		; ioMoveAttackSkill::ioMoveAttackSkill
EXTRN	??1ioAttackSkill@@UAE@XZ:PROC			; ioAttackSkill::~ioAttackSkill
EXTRN	??0ioAttackSkill@@QAE@ABV0@@Z:PROC		; ioAttackSkill::ioAttackSkill
EXTRN	__EH_prolog3:PROC
;	COMDAT xdata$x
; File d:\lost saga for developer\youtube\tutorial\source\src\lsclient\iomoveattackskill.cpp
xdata$x	SEGMENT
__unwindtable$??0ioMoveAttackSkill@@QAE@ABV0@@Z DD 0ffffffffH
	DD	FLAT:__unwindfunclet$??0ioMoveAttackSkill@@QAE@ABV0@@Z$0
__ehfuncinfo$??0ioMoveAttackSkill@@QAE@ABV0@@Z DD 019930522H
	DD	01H
	DD	FLAT:__unwindtable$??0ioMoveAttackSkill@@QAE@ABV0@@Z
	DD	2 DUP(00H)
	DD	2 DUP(00H)
	DD	00H
	DD	01H
; Function compile flags: /Ogsp
xdata$x	ENDS
;	COMDAT ??0ioMoveAttackSkill@@QAE@ABV0@@Z
_TEXT	SEGMENT
_this$ = -16						; size = 4
__$EHRec$ = -12						; size = 12
_rhs$ = 8						; size = 4
??0ioMoveAttackSkill@@QAE@ABV0@@Z PROC			; ioMoveAttackSkill::ioMoveAttackSkill, COMDAT
; _this$ = ecx

; 24   : {

  00000	6a 04		 push	 4
  00002	b8 00 00 00 00	 mov	 eax, __ehhandler$??0ioMoveAttackSkill@@QAE@ABV0@@Z
  00007	e8 00 00 00 00	 call	 __EH_prolog3
  0000c	8b f1		 mov	 esi, ecx
  0000e	89 75 f0	 mov	 DWORD PTR _this$[ebp], esi
  00011	8b 7d 08	 mov	 edi, DWORD PTR _rhs$[ebp]
  00014	57		 push	 edi
  00015	e8 00 00 00 00	 call	 ??0ioAttackSkill@@QAE@ABV0@@Z ; ioAttackSkill::ioAttackSkill
  0001a	83 65 fc 00	 and	 DWORD PTR __$EHRec$[ebp+8], 0
  0001e	c7 06 00 00 00
	00		 mov	 DWORD PTR [esi], OFFSET ??_7ioMoveAttackSkill@@6B@
  00024	8b 87 e4 10 00
	00		 mov	 eax, DWORD PTR [edi+4324]
  0002a	89 86 e4 10 00
	00		 mov	 DWORD PTR [esi+4324], eax
  00030	8a 87 e8 10 00
	00		 mov	 al, BYTE PTR [edi+4328]
  00036	88 86 e8 10 00
	00		 mov	 BYTE PTR [esi+4328], al
  0003c	8a 87 e9 10 00
	00		 mov	 al, BYTE PTR [edi+4329]
  00042	88 86 e9 10 00
	00		 mov	 BYTE PTR [esi+4329], al
  00048	8b 87 ec 10 00
	00		 mov	 eax, DWORD PTR [edi+4332]
  0004e	81 c7 f4 10 00
	00		 add	 edi, 4340		; 000010f4H
  00054	57		 push	 edi
  00055	8d 8e f4 10 00
	00		 lea	 ecx, DWORD PTR [esi+4340]
  0005b	89 86 ec 10 00
	00		 mov	 DWORD PTR [esi+4332], eax
  00061	e8 00 00 00 00	 call	 ??0?$vector@UBulletInfo@@V?$allocator@UBulletInfo@@@std@@@std@@QAE@ABV01@@Z ; std::vector<BulletInfo,std::allocator<BulletInfo> >::vector<BulletInfo,std::allocator<BulletInfo> >

; 25   : 	m_bSetHandMesh = false;

  00066	c6 86 0a 0f 00
	00 00		 mov	 BYTE PTR [esi+3850], 0

; 26   : }

  0006d	8b c6		 mov	 eax, esi
  0006f	e8 00 00 00 00	 call	 __EH_epilog3
  00074	c2 04 00	 ret	 4
_TEXT	ENDS
;	COMDAT text$x
text$x	SEGMENT
__unwindfunclet$??0ioMoveAttackSkill@@QAE@ABV0@@Z$0:
  00000	8b 4d f0	 mov	 ecx, DWORD PTR _this$[ebp]
  00003	e9 00 00 00 00	 jmp	 ??1ioAttackSkill@@UAE@XZ ; ioAttackSkill::~ioAttackSkill
__ehhandler$??0ioMoveAttackSkill@@QAE@ABV0@@Z:
  00008	8b 54 24 08	 mov	 edx, DWORD PTR [esp+8]
  0000c	8d 42 0c	 lea	 eax, DWORD PTR [edx+12]
  0000f	8b 4a ec	 mov	 ecx, DWORD PTR [edx-20]
  00012	33 c8		 xor	 ecx, eax
  00014	e8 00 00 00 00	 call	 @__security_check_cookie@4
  00019	b8 00 00 00 00	 mov	 eax, OFFSET __ehfuncinfo$??0ioMoveAttackSkill@@QAE@ABV0@@Z
  0001e	e9 00 00 00 00	 jmp	 ___CxxFrameHandler3
text$x	ENDS
??0ioMoveAttackSkill@@QAE@ABV0@@Z ENDP			; ioMoveAttackSkill::ioMoveAttackSkill
PUBLIC	??1ioMoveAttackSkill@@UAE@XZ			; ioMoveAttackSkill::~ioMoveAttackSkill
;	COMDAT xdata$x
; File c:\program files (x86)\microsoft visual studio 10.0\vc\include\vector
xdata$x	SEGMENT
__unwindtable$??1ioMoveAttackSkill@@UAE@XZ DD 0ffffffffH
	DD	FLAT:__unwindfunclet$??1ioMoveAttackSkill@@UAE@XZ$0
__ehfuncinfo$??1ioMoveAttackSkill@@UAE@XZ DD 019930522H
	DD	01H
	DD	FLAT:__unwindtable$??1ioMoveAttackSkill@@UAE@XZ
	DD	2 DUP(00H)
	DD	2 DUP(00H)
	DD	00H
	DD	01H
; Function compile flags: /Ogsp
; File d:\lost saga for developer\youtube\tutorial\source\src\lsclient\iomoveattackskill.cpp
xdata$x	ENDS
;	COMDAT ??1ioMoveAttackSkill@@UAE@XZ
_TEXT	SEGMENT
_this$ = -16						; size = 4
__$EHRec$ = -12						; size = 12
??1ioMoveAttackSkill@@UAE@XZ PROC			; ioMoveAttackSkill::~ioMoveAttackSkill, COMDAT
; _this$ = ecx

; 29   : {

  00000	6a 04		 push	 4
  00002	b8 00 00 00 00	 mov	 eax, __ehhandler$??1ioMoveAttackSkill@@UAE@XZ
  00007	e8 00 00 00 00	 call	 __EH_prolog3
  0000c	8b f1		 mov	 esi, ecx
  0000e	89 75 f0	 mov	 DWORD PTR _this$[ebp], esi
  00011	c7 06 00 00 00
	00		 mov	 DWORD PTR [esi], OFFSET ??_7ioMoveAttackSkill@@6B@
  00017	83 65 fc 00	 and	 DWORD PTR __$EHRec$[ebp+8], 0

; 30   : }

  0001b	8d 8e f4 10 00
	00		 lea	 ecx, DWORD PTR [esi+4340]
  00021	e8 00 00 00 00	 call	 ?_Tidy@?$vector@UBulletInfo@@V?$allocator@UBulletInfo@@@std@@@std@@IAEXXZ ; std::vector<BulletInfo,std::allocator<BulletInfo> >::_Tidy
  00026	83 4d fc ff	 or	 DWORD PTR __$EHRec$[ebp+8], -1
  0002a	8b ce		 mov	 ecx, esi
  0002c	e8 00 00 00 00	 call	 ??1ioAttackSkill@@UAE@XZ ; ioAttackSkill::~ioAttackSkill
  00031	e8 00 00 00 00	 call	 __EH_epilog3
  00036	c3		 ret	 0
_TEXT	ENDS
;	COMDAT text$x
text$x	SEGMENT
__unwindfunclet$??1ioMoveAttackSkill@@UAE@XZ$0:
  00000	8b 4d f0	 mov	 ecx, DWORD PTR _this$[ebp]
  00003	e9 00 00 00 00	 jmp	 ??1ioAttackSkill@@UAE@XZ ; ioAttackSkill::~ioAttackSkill
__ehhandler$??1ioMoveAttackSkill@@UAE@XZ:
  00008	8b 54 24 08	 mov	 edx, DWORD PTR [esp+8]
  0000c	8d 42 0c	 lea	 eax, DWORD PTR [edx+12]
  0000f	8b 4a ec	 mov	 ecx, DWORD PTR [edx-20]
  00012	33 c8		 xor	 ecx, eax
  00014	e8 00 00 00 00	 call	 @__security_check_cookie@4
  00019	b8 00 00 00 00	 mov	 eax, OFFSET __ehfuncinfo$??1ioMoveAttackSkill@@UAE@XZ
  0001e	e9 00 00 00 00	 jmp	 ___CxxFrameHandler3
text$x	ENDS
??1ioMoveAttackSkill@@UAE@XZ ENDP			; ioMoveAttackSkill::~ioMoveAttackSkill
;	COMDAT xdata$x
xdata$x	SEGMENT
__unwindtable$?Clone@ioMoveAttackSkill@@UAEPAVioSkill@@XZ DD 0ffffffffH
	DD	FLAT:__unwindfunclet$?Clone@ioMoveAttackSkill@@UAEPAVioSkill@@XZ$0
__ehfuncinfo$?Clone@ioMoveAttackSkill@@UAEPAVioSkill@@XZ DD 019930522H
	DD	01H
	DD	FLAT:__unwindtable$?Clone@ioMoveAttackSkill@@UAEPAVioSkill@@XZ
	DD	2 DUP(00H)
	DD	2 DUP(00H)
	DD	00H
	DD	01H
; Function compile flags: /Ogsp
xdata$x	ENDS
;	COMDAT ?Clone@ioMoveAttackSkill@@UAEPAVioSkill@@XZ
_TEXT	SEGMENT
$T547326 = -16						; size = 4
__$EHRec$ = -12						; size = 12
?Clone@ioMoveAttackSkill@@UAEPAVioSkill@@XZ PROC	; ioMoveAttackSkill::Clone, COMDAT
; _this$ = ecx

; 63   : {

  00000	6a 04		 push	 4
  00002	b8 00 00 00 00	 mov	 eax, __ehhandler$?Clone@ioMoveAttackSkill@@UAEPAVioSkill@@XZ
  00007	e8 00 00 00 00	 call	 __EH_prolog3
  0000c	8b f1		 mov	 esi, ecx

; 64   : 	return new ioMoveAttackSkill( *this );

  0000e	68 04 11 00 00	 push	 4356			; 00001104H
  00013	e8 00 00 00 00	 call	 ??2@YAPAXI@Z		; operator new
  00018	59		 pop	 ecx
  00019	8b c8		 mov	 ecx, eax
  0001b	89 4d f0	 mov	 DWORD PTR $T547326[ebp], ecx
  0001e	33 c0		 xor	 eax, eax
  00020	89 45 fc	 mov	 DWORD PTR __$EHRec$[ebp+8], eax
  00023	3b c8		 cmp	 ecx, eax
  00025	74 06		 je	 SHORT $LN3@Clone
  00027	56		 push	 esi
  00028	e8 00 00 00 00	 call	 ??0ioMoveAttackSkill@@QAE@ABV0@@Z ; ioMoveAttackSkill::ioMoveAttackSkill
$LN3@Clone:

; 65   : }

  0002d	e8 00 00 00 00	 call	 __EH_epilog3
  00032	c3		 ret	 0
_TEXT	ENDS
;	COMDAT text$x
text$x	SEGMENT
__unwindfunclet$?Clone@ioMoveAttackSkill@@UAEPAVioSkill@@XZ$0:
  00000	ff 75 f0	 push	 DWORD PTR $T547326[ebp]
  00003	e8 00 00 00 00	 call	 ??3@YAXPAX@Z		; operator delete
  00008	59		 pop	 ecx
  00009	c3		 ret	 0
__ehhandler$?Clone@ioMoveAttackSkill@@UAEPAVioSkill@@XZ:
  0000a	8b 54 24 08	 mov	 edx, DWORD PTR [esp+8]
  0000e	8d 42 0c	 lea	 eax, DWORD PTR [edx+12]
  00011	8b 4a ec	 mov	 ecx, DWORD PTR [edx-20]
  00014	33 c8		 xor	 ecx, eax
  00016	e8 00 00 00 00	 call	 @__security_check_cookie@4
  0001b	b8 00 00 00 00	 mov	 eax, OFFSET __ehfuncinfo$?Clone@ioMoveAttackSkill@@UAEPAVioSkill@@XZ
  00020	e9 00 00 00 00	 jmp	 ___CxxFrameHandler3
text$x	ENDS
?Clone@ioMoveAttackSkill@@UAEPAVioSkill@@XZ ENDP	; ioMoveAttackSkill::Clone
PUBLIC	?push_back@?$vector@UBulletInfo@@V?$allocator@UBulletInfo@@@std@@@std@@QAEXABUBulletInfo@@@Z ; std::vector<BulletInfo,std::allocator<BulletInfo> >::push_back
; Function compile flags: /Ogsp
; File c:\program files (x86)\microsoft visual studio 10.0\vc\include\vector
;	COMDAT ?push_back@?$vector@UBulletInfo@@V?$allocator@UBulletInfo@@@std@@@std@@QAEXABUBulletInfo@@@Z
_TEXT	SEGMENT
__Val$ = 8						; size = 4
?push_back@?$vector@UBulletInfo@@V?$allocator@UBulletInfo@@@std@@@std@@QAEXABUBulletInfo@@@Z PROC ; std::vector<BulletInfo,std::allocator<BulletInfo> >::push_back, COMDAT
; _this$ = ecx

; 976  : 		{	// insert element at end

  00000	55		 push	 ebp
  00001	8b ec		 mov	 ebp, esp
  00003	56		 push	 esi
  00004	8b f1		 mov	 esi, ecx

; 977  : 		if (_Inside(_STD addressof(_Val)))

  00006	8b 4e 04	 mov	 ecx, DWORD PTR [esi+4]
  00009	57		 push	 edi
  0000a	8b 7d 08	 mov	 edi, DWORD PTR __Val$[ebp]
  0000d	3b f9		 cmp	 edi, ecx
  0000f	73 34		 jae	 SHORT $LN4@push_back
  00011	8b 16		 mov	 edx, DWORD PTR [esi]
  00013	3b d7		 cmp	 edx, edi
  00015	77 2e		 ja	 SHORT $LN4@push_back

; 978  : 			{	// push back an element
; 979  : 			size_type _Idx = _STD addressof(_Val) - this->_Myfirst;

  00017	8b c7		 mov	 eax, edi
  00019	2b c2		 sub	 eax, edx
  0001b	6a 14		 push	 20			; 00000014H
  0001d	99		 cdq
  0001e	5f		 pop	 edi
  0001f	f7 ff		 idiv	 edi
  00021	8b f8		 mov	 edi, eax

; 980  : 			if (this->_Mylast == this->_Myend)

  00023	3b 4e 08	 cmp	 ecx, DWORD PTR [esi+8]
  00026	75 09		 jne	 SHORT $LN3@push_back

; 981  : 				_Reserve(1);

  00028	6a 01		 push	 1
  0002a	8b ce		 mov	 ecx, esi
  0002c	e8 00 00 00 00	 call	 ?_Reserve@?$vector@UBulletInfo@@V?$allocator@UBulletInfo@@@std@@@std@@IAEXI@Z ; std::vector<BulletInfo,std::allocator<BulletInfo> >::_Reserve
$LN3@push_back:

; 982  : 			_Orphan_range(this->_Mylast, this->_Mylast);
; 983  : 			_Cons_val(this->_Alval,
; 984  : 				this->_Mylast,
; 985  : 				this->_Myfirst[_Idx]);

  00031	6b ff 14	 imul	 edi, 20			; 00000014H
  00034	03 3e		 add	 edi, DWORD PTR [esi]
  00036	8d 46 0c	 lea	 eax, DWORD PTR [esi+12]
  00039	57		 push	 edi
  0003a	ff 76 04	 push	 DWORD PTR [esi+4]
  0003d	50		 push	 eax
  0003e	e8 00 00 00 00	 call	 ??$_Cons_val@V?$allocator@UBulletInfo@@@std@@UBulletInfo@@AAU3@@std@@YAXAAV?$allocator@UBulletInfo@@@0@PAUBulletInfo@@AAU2@@Z ; std::_Cons_val<std::allocator<BulletInfo>,BulletInfo,BulletInfo &>

; 986  : 			++this->_Mylast;
; 987  : 			}
; 988  : 		else

  00043	eb 1b		 jmp	 SHORT $LN20@push_back
$LN4@push_back:

; 989  : 			{	// push back a non-element
; 990  : 			if (this->_Mylast == this->_Myend)

  00045	3b 4e 08	 cmp	 ecx, DWORD PTR [esi+8]
  00048	75 09		 jne	 SHORT $LN1@push_back

; 991  : 				_Reserve(1);

  0004a	6a 01		 push	 1
  0004c	8b ce		 mov	 ecx, esi
  0004e	e8 00 00 00 00	 call	 ?_Reserve@?$vector@UBulletInfo@@V?$allocator@UBulletInfo@@@std@@@std@@IAEXI@Z ; std::vector<BulletInfo,std::allocator<BulletInfo> >::_Reserve
$LN1@push_back:

; 992  : 			_Orphan_range(this->_Mylast, this->_Mylast);
; 993  : 			_Cons_val(this->_Alval,
; 994  : 				this->_Mylast,
; 995  : 				_Val);

  00053	57		 push	 edi
  00054	ff 76 04	 push	 DWORD PTR [esi+4]
  00057	8d 46 0c	 lea	 eax, DWORD PTR [esi+12]
  0005a	50		 push	 eax
  0005b	e8 00 00 00 00	 call	 ??$_Cons_val@V?$allocator@UBulletInfo@@@std@@UBulletInfo@@ABU3@@std@@YAXAAV?$allocator@UBulletInfo@@@0@PAUBulletInfo@@ABU2@@Z ; std::_Cons_val<std::allocator<BulletInfo>,BulletInfo,BulletInfo const &>
$LN20@push_back:
  00060	83 c4 0c	 add	 esp, 12			; 0000000cH

; 996  : 			++this->_Mylast;

  00063	83 46 04 14	 add	 DWORD PTR [esi+4], 20	; 00000014H
  00067	5f		 pop	 edi
  00068	5e		 pop	 esi

; 997  : 			}
; 998  : 		}

  00069	5d		 pop	 ebp
  0006a	c2 04 00	 ret	 4
?push_back@?$vector@UBulletInfo@@V?$allocator@UBulletInfo@@@std@@@std@@QAEXABUBulletInfo@@@Z ENDP ; std::vector<BulletInfo,std::allocator<BulletInfo> >::push_back
; Function compile flags: /Ogsp
_TEXT	ENDS
;	COMDAT ??_GioMoveAttackSkill@@UAEPAXI@Z
_TEXT	SEGMENT
___flags$ = 8						; size = 4
??_GioMoveAttackSkill@@UAEPAXI@Z PROC			; ioMoveAttackSkill::`scalar deleting destructor', COMDAT
; _this$ = ecx
  00000	55		 push	 ebp
  00001	8b ec		 mov	 ebp, esp
  00003	56		 push	 esi
  00004	8b f1		 mov	 esi, ecx
  00006	e8 00 00 00 00	 call	 ??1ioMoveAttackSkill@@UAE@XZ ; ioMoveAttackSkill::~ioMoveAttackSkill
  0000b	f6 45 08 01	 test	 BYTE PTR ___flags$[ebp], 1
  0000f	74 07		 je	 SHORT $LN1@scalar@2
  00011	56		 push	 esi
  00012	e8 00 00 00 00	 call	 ??3@YAXPAX@Z		; operator delete
  00017	59		 pop	 ecx
$LN1@scalar@2:
  00018	8b c6		 mov	 eax, esi
  0001a	5e		 pop	 esi
  0001b	5d		 pop	 ebp
  0001c	c2 04 00	 ret	 4
??_GioMoveAttackSkill@@UAEPAXI@Z ENDP			; ioMoveAttackSkill::`scalar deleting destructor'
_TEXT	ENDS
PUBLIC	_rkLoader$GSCopy$
PUBLIC	__$ArrayPad$
EXTRN	__imp_?LoadFloat@ioINILoader@@QAEMPBDM@Z:PROC
EXTRN	__imp__wsprintfA:PROC
EXTRN	?LoadProperty@ioAttackSkill@@UAEXAAVioINILoader@@@Z:PROC ; ioAttackSkill::LoadProperty
; Function compile flags: /Ogsp
; File d:\lost saga for developer\youtube\tutorial\source\src\lsclient\iomoveattackskill.cpp
;	COMDAT ?LoadProperty@ioMoveAttackSkill@@UAEXAAVioINILoader@@@Z
_TEXT	SEGMENT
_kInfo$541619 = -320					; size = 20
tv5955 = -300						; size = 4
$T547552 = -300						; size = 4
_rkLoader$GSCopy$ = -296				; size = 4
_szKey$ = -292						; size = 260
___encStr$541928 = -32					; size = 23
___encStr$541776 = -32					; size = 22
__k$547750 = -24					; size = 13
__k$547625 = -24					; size = 13
__k$547465 = -24					; size = 15
___encStr$541623 = -24					; size = 15
__k$547888 = -20					; size = 10
__$ArrayPad$ = -4					; size = 4
_rkLoader$ = 8						; size = 4
?LoadProperty@ioMoveAttackSkill@@UAEXAAVioINILoader@@@Z PROC ; ioMoveAttackSkill::LoadProperty, COMDAT
; _this$ = ecx

; 33   : {

  00000	55		 push	 ebp
  00001	8b ec		 mov	 ebp, esp
  00003	81 ec 40 01 00
	00		 sub	 esp, 320		; 00000140H
  00009	a1 00 00 00 00	 mov	 eax, DWORD PTR ___security_cookie
  0000e	33 c5		 xor	 eax, ebp
  00010	89 45 fc	 mov	 DWORD PTR __$ArrayPad$[ebp], eax
  00013	8b 45 08	 mov	 eax, DWORD PTR _rkLoader$[ebp]
  00016	53		 push	 ebx
  00017	56		 push	 esi
  00018	57		 push	 edi

; 34   : 	ioAttackSkill::LoadProperty( rkLoader );

  00019	50		 push	 eax
  0001a	8b f9		 mov	 edi, ecx

; 59   : 	m_bDirection = rkLoader.LoadBool_e( "direction", false );

  0001c	89 85 d8 fe ff
	ff		 mov	 DWORD PTR _rkLoader$GSCopy$[ebp], eax
  00022	e8 00 00 00 00	 call	 ?LoadProperty@ioAttackSkill@@UAEXAAVioINILoader@@@Z ; ioAttackSkill::LoadProperty
  00027	33 db		 xor	 ebx, ebx
  00029	6a 03		 push	 3
  0002b	c7 45 e8 80 8d
	93 b5		 mov	 DWORD PTR __k$547465[ebp], -1248621184 ; b5938d80H
  00032	c7 45 ec 8f 99
	87 86		 mov	 DWORD PTR __k$547465[ebp+4], -2037933681 ; 8687998fH
  00039	c7 45 f0 88 98
	b4 89		 mov	 DWORD PTR __k$547465[ebp+8], -1984653176 ; 89b49888H
  00040	66 c7 45 f4 83
	98		 mov	 WORD PTR __k$547465[ebp+12], 39043 ; 00009883H
  00046	8d 45 e8	 lea	 eax, DWORD PTR __k$547465[ebp]
  00049	88 5d f6	 mov	 BYTE PTR __k$547465[ebp+14], bl
  0004c	59		 pop	 ecx
$LL408@LoadProper:

; 35   : 
; 36   : 	m_iMaxWeaponWay = rkLoader.LoadInt_e( "max_bullet_cnt", 1 );

  0004d	81 30 ed ec eb
	ea		 xor	 DWORD PTR [eax], -353637139 ; eaebecedH
  00053	83 c0 04	 add	 eax, 4
  00056	49		 dec	 ecx
  00057	75 f4		 jne	 SHORT $LL408@LoadProper
  00059	6a 0c		 push	 12			; 0000000cH
  0005b	5e		 pop	 esi
$LL405@LoadProper:
  0005c	8b c6		 mov	 eax, esi
  0005e	25 03 00 00 80	 and	 eax, -2147483645	; 80000003H
  00063	79 05		 jns	 SHORT $LN805@LoadProper
  00065	48		 dec	 eax
  00066	83 c8 fc	 or	 eax, -4			; fffffffcH
  00069	40		 inc	 eax
$LN805@LoadProper:
  0006a	b1 ed		 mov	 cl, -19			; ffffffedH
  0006c	2a c8		 sub	 cl, al
  0006e	30 4c 35 e8	 xor	 BYTE PTR __k$547465[ebp+esi], cl
  00072	46		 inc	 esi
  00073	83 fe 0e	 cmp	 esi, 14			; 0000000eH
  00076	7c e4		 jl	 SHORT $LL405@LoadProper
  00078	8b 8d d8 fe ff
	ff		 mov	 ecx, DWORD PTR _rkLoader$GSCopy$[ebp]
  0007e	33 f6		 xor	 esi, esi
  00080	46		 inc	 esi
  00081	56		 push	 esi
  00082	8d 45 e8	 lea	 eax, DWORD PTR __k$547465[ebp]
  00085	50		 push	 eax
  00086	ff 15 00 00 00
	00		 call	 DWORD PTR __imp_?LoadInt@ioINILoader@@QAEHPBDH@Z

; 37   : 	m_iMaxWeaponWay = max( 1, m_iMaxWeaponWay );

  0008c	3b c6		 cmp	 eax, esi
  0008e	0f 4c c6	 cmovl	 eax, esi
  00091	89 87 ec 10 00
	00		 mov	 DWORD PTR [edi+4332], eax

; 38   : 
; 39   : 	char szKey[MAX_PATH];
; 40   : 	m_BulletInfoList.clear();

  00097	8d 8f f4 10 00
	00		 lea	 ecx, DWORD PTR [edi+4340]
  0009d	8b 41 04	 mov	 eax, DWORD PTR [ecx+4]
  000a0	8b 11		 mov	 edx, DWORD PTR [ecx]
  000a2	50		 push	 eax
  000a3	52		 push	 edx
  000a4	8d 85 d4 fe ff
	ff		 lea	 eax, DWORD PTR $T547552[ebp]
  000aa	50		 push	 eax
  000ab	e8 00 00 00 00	 call	 ?erase@?$vector@UBulletInfo@@V?$allocator@UBulletInfo@@@std@@@std@@QAE?AV?$_Vector_iterator@V?$_Vector_val@UBulletInfo@@V?$allocator@UBulletInfo@@@std@@@std@@@2@V?$_Vector_const_iterator@V?$_Vector_val@UBulletInfo@@V?$allocator@UBulletInfo@@@std@@@std@@@2@0@Z ; std::vector<BulletInfo,std::allocator<BulletInfo> >::erase

; 41   : 	for( int i=0; i < m_iMaxWeaponWay; ++i )

  000b0	39 9f ec 10 00
	00		 cmp	 DWORD PTR [edi+4332], ebx
  000b6	0f 8e d9 01 00
	00		 jle	 $LN298@LoadProper

; 37   : 	m_iMaxWeaponWay = max( 1, m_iMaxWeaponWay );

  000bc	89 b5 d4 fe ff
	ff		 mov	 DWORD PTR tv5955[ebp], esi
  000c2	8b 35 00 00 00
	00		 mov	 esi, DWORD PTR __imp__wsprintfA
$LL804@LoadProper:

; 42   : 	{
; 43   : 		BulletInfo kInfo;

  000c8	0f 57 c0	 xorps	 xmm0, xmm0
  000cb	6a 03		 push	 3
  000cd	f3 0f 11 85 c4
	fe ff ff	 movss	 DWORD PTR _kInfo$541619[ebp+4], xmm0
  000d5	f3 0f 11 85 c8
	fe ff ff	 movss	 DWORD PTR _kInfo$541619[ebp+8], xmm0

; 44   : 
; 45   : 		wsprintf_e( szKey, "bullet_angle%d", i+1 );

  000dd	c7 45 e8 8f 99
	87 86		 mov	 DWORD PTR ___encStr$541623[ebp], -2037933681 ; 8687998fH
  000e4	c7 45 ec 88 98
	b4 8b		 mov	 DWORD PTR ___encStr$541623[ebp+4], -1951098744 ; 8bb49888H
  000eb	c7 45 f0 83 8b
	87 8f		 mov	 DWORD PTR ___encStr$541623[ebp+8], -1886942333 ; 8f878b83H
  000f2	66 c7 45 f4 c8
	88		 mov	 WORD PTR ___encStr$541623[ebp+12], 35016 ; 000088c8H
  000f8	8d 45 e8	 lea	 eax, DWORD PTR ___encStr$541623[ebp]
  000fb	88 5d f6	 mov	 BYTE PTR ___encStr$541623[ebp+14], bl
  000fe	59		 pop	 ecx
$LL436@LoadProper:
  000ff	81 30 ed ec eb
	ea		 xor	 DWORD PTR [eax], -353637139 ; eaebecedH
  00105	83 c0 04	 add	 eax, 4
  00108	49		 dec	 ecx
  00109	75 f4		 jne	 SHORT $LL436@LoadProper
  0010b	6a 0c		 push	 12			; 0000000cH
  0010d	58		 pop	 eax
$LL433@LoadProper:
  0010e	8b c8		 mov	 ecx, eax
  00110	81 e1 03 00 00
	80		 and	 ecx, -2147483645	; 80000003H
  00116	79 05		 jns	 SHORT $LN806@LoadProper
  00118	49		 dec	 ecx
  00119	83 c9 fc	 or	 ecx, -4			; fffffffcH
  0011c	41		 inc	 ecx
$LN806@LoadProper:
  0011d	b2 ed		 mov	 dl, -19			; ffffffedH
  0011f	2a d1		 sub	 dl, cl
  00121	30 54 05 e8	 xor	 BYTE PTR ___encStr$541623[ebp+eax], dl
  00125	40		 inc	 eax
  00126	83 f8 0e	 cmp	 eax, 14			; 0000000eH
  00129	7c e3		 jl	 SHORT $LL433@LoadProper
  0012b	ff b5 d4 fe ff
	ff		 push	 DWORD PTR tv5955[ebp]
  00131	8d 45 e8	 lea	 eax, DWORD PTR ___encStr$541623[ebp]
  00134	50		 push	 eax
  00135	8d 85 dc fe ff
	ff		 lea	 eax, DWORD PTR _szKey$[ebp]
  0013b	50		 push	 eax
  0013c	ff d6		 call	 esi

; 46   : 		kInfo.m_fYawAngle = rkLoader.LoadFloat( szKey, 0.0f );

  0013e	0f 57 c0	 xorps	 xmm0, xmm0
  00141	59		 pop	 ecx
  00142	59		 pop	 ecx
  00143	8b 8d d8 fe ff
	ff		 mov	 ecx, DWORD PTR _rkLoader$GSCopy$[ebp]
  00149	8d 85 dc fe ff
	ff		 lea	 eax, DWORD PTR _szKey$[ebp]
  0014f	f3 0f 11 04 24	 movss	 DWORD PTR [esp], xmm0
  00154	50		 push	 eax
  00155	ff 15 00 00 00
	00		 call	 DWORD PTR __imp_?LoadFloat@ioINILoader@@QAEMPBDM@Z
  0015b	d9 9d c0 fe ff
	ff		 fstp	 DWORD PTR _kInfo$541619[ebp]
  00161	6a 05		 push	 5

; 47   : 
; 48   : 		wsprintf_e( szKey, "bullet_range_offset%d", i+1 );

  00163	c7 45 e0 8f 99
	87 86		 mov	 DWORD PTR ___encStr$541776[ebp], -2037933681 ; 8687998fH
  0016a	c7 45 e4 88 98
	b4 98		 mov	 DWORD PTR ___encStr$541776[ebp+4], -1732994936 ; 98b49888H
  00171	c7 45 e8 8c 82
	8c 8f		 mov	 DWORD PTR ___encStr$541776[ebp+8], -1886616948 ; 8f8c828cH
  00178	c7 45 ec b2 83
	8d 8c		 mov	 DWORD PTR ___encStr$541776[ebp+12], -1936882766 ; 8c8d83b2H
  0017f	c7 45 f0 9e 89
	9f cf		 mov	 DWORD PTR ___encStr$541776[ebp+16], -811628130 ; cf9f899eH
  00186	8d 45 e0	 lea	 eax, DWORD PTR ___encStr$541776[ebp]
  00189	66 c7 45 f4 89
	00		 mov	 WORD PTR ___encStr$541776[ebp+20], 137 ; 00000089H
  0018f	59		 pop	 ecx
$LL444@LoadProper:
  00190	81 30 ed ec eb
	ea		 xor	 DWORD PTR [eax], -353637139 ; eaebecedH
  00196	83 c0 04	 add	 eax, 4
  00199	49		 dec	 ecx
  0019a	75 f4		 jne	 SHORT $LL444@LoadProper
  0019c	ff b5 d4 fe ff
	ff		 push	 DWORD PTR tv5955[ebp]
  001a2	80 75 f4 ed	 xor	 BYTE PTR ___encStr$541776[ebp+20], -19 ; ffffffedH
  001a6	8d 45 e0	 lea	 eax, DWORD PTR ___encStr$541776[ebp]
  001a9	50		 push	 eax
  001aa	8d 85 dc fe ff
	ff		 lea	 eax, DWORD PTR _szKey$[ebp]
  001b0	50		 push	 eax
  001b1	ff d6		 call	 esi

; 49   : 		kInfo.m_fRangeOffSet = rkLoader.LoadFloat( szKey, 0.0f );

  001b3	0f 57 c0	 xorps	 xmm0, xmm0
  001b6	59		 pop	 ecx
  001b7	59		 pop	 ecx
  001b8	8b 8d d8 fe ff
	ff		 mov	 ecx, DWORD PTR _rkLoader$GSCopy$[ebp]
  001be	8d 85 dc fe ff
	ff		 lea	 eax, DWORD PTR _szKey$[ebp]
  001c4	f3 0f 11 04 24	 movss	 DWORD PTR [esp], xmm0
  001c9	50		 push	 eax
  001ca	ff 15 00 00 00
	00		 call	 DWORD PTR __imp_?LoadFloat@ioINILoader@@QAEMPBDM@Z
  001d0	d9 9d cc fe ff
	ff		 fstp	 DWORD PTR _kInfo$541619[ebp+12]
  001d6	6a 05		 push	 5

; 50   : 
; 51   : 		wsprintf_e( szKey, "bullet_height_offset%d", i+1 );

  001d8	c7 45 e0 8f 99
	87 86		 mov	 DWORD PTR ___encStr$541928[ebp], -2037933681 ; 8687998fH
  001df	c7 45 e4 88 98
	b4 82		 mov	 DWORD PTR ___encStr$541928[ebp+4], -2102093688 ; 82b49888H
  001e6	c7 45 e8 88 85
	8c 82		 mov	 DWORD PTR ___encStr$541928[ebp+8], -2104719992 ; 828c8588H
  001ed	c7 45 ec 99 b3
	84 8c		 mov	 DWORD PTR ___encStr$541928[ebp+12], -1937460327 ; 8c84b399H
  001f4	c7 45 f0 8b 9f
	8e 9e		 mov	 DWORD PTR ___encStr$541928[ebp+16], -1634820213 ; 9e8e9f8bH
  001fb	66 c7 45 f4 c8
	88		 mov	 WORD PTR ___encStr$541928[ebp+20], 35016 ; 000088c8H
  00201	8d 45 e0	 lea	 eax, DWORD PTR ___encStr$541928[ebp]
  00204	88 5d f6	 mov	 BYTE PTR ___encStr$541928[ebp+22], bl
  00207	59		 pop	 ecx
$LL452@LoadProper:
  00208	81 30 ed ec eb
	ea		 xor	 DWORD PTR [eax], -353637139 ; eaebecedH
  0020e	83 c0 04	 add	 eax, 4
  00211	49		 dec	 ecx
  00212	75 f4		 jne	 SHORT $LL452@LoadProper
  00214	6a 14		 push	 20			; 00000014H
  00216	58		 pop	 eax
$LL449@LoadProper:
  00217	8b c8		 mov	 ecx, eax
  00219	81 e1 03 00 00
	80		 and	 ecx, -2147483645	; 80000003H
  0021f	79 05		 jns	 SHORT $LN807@LoadProper
  00221	49		 dec	 ecx
  00222	83 c9 fc	 or	 ecx, -4			; fffffffcH
  00225	41		 inc	 ecx
$LN807@LoadProper:
  00226	b2 ed		 mov	 dl, -19			; ffffffedH
  00228	2a d1		 sub	 dl, cl
  0022a	30 54 05 e0	 xor	 BYTE PTR ___encStr$541928[ebp+eax], dl
  0022e	40		 inc	 eax
  0022f	83 f8 16	 cmp	 eax, 22			; 00000016H
  00232	7c e3		 jl	 SHORT $LL449@LoadProper
  00234	ff b5 d4 fe ff
	ff		 push	 DWORD PTR tv5955[ebp]
  0023a	8d 45 e0	 lea	 eax, DWORD PTR ___encStr$541928[ebp]
  0023d	50		 push	 eax
  0023e	8d 85 dc fe ff
	ff		 lea	 eax, DWORD PTR _szKey$[ebp]
  00244	50		 push	 eax
  00245	ff d6		 call	 esi

; 52   : 		kInfo.m_fHeightOffSet = rkLoader.LoadFloat( szKey, 0.0f );

  00247	0f 57 c0	 xorps	 xmm0, xmm0
  0024a	59		 pop	 ecx
  0024b	59		 pop	 ecx
  0024c	8b 8d d8 fe ff
	ff		 mov	 ecx, DWORD PTR _rkLoader$GSCopy$[ebp]
  00252	8d 85 dc fe ff
	ff		 lea	 eax, DWORD PTR _szKey$[ebp]
  00258	f3 0f 11 04 24	 movss	 DWORD PTR [esp], xmm0
  0025d	50		 push	 eax
  0025e	ff 15 00 00 00
	00		 call	 DWORD PTR __imp_?LoadFloat@ioINILoader@@QAEMPBDM@Z
  00264	d9 9d d0 fe ff
	ff		 fstp	 DWORD PTR _kInfo$541619[ebp+16]

; 53   : 
; 54   : 		m_BulletInfoList.push_back( kInfo );

  0026a	8d 85 c0 fe ff
	ff		 lea	 eax, DWORD PTR _kInfo$541619[ebp]
  00270	50		 push	 eax
  00271	8d 8f f4 10 00
	00		 lea	 ecx, DWORD PTR [edi+4340]
  00277	e8 00 00 00 00	 call	 ?push_back@?$vector@UBulletInfo@@V?$allocator@UBulletInfo@@@std@@@std@@QAEXABUBulletInfo@@@Z ; std::vector<BulletInfo,std::allocator<BulletInfo> >::push_back
  0027c	ff 85 d4 fe ff
	ff		 inc	 DWORD PTR tv5955[ebp]
  00282	8b 85 d4 fe ff
	ff		 mov	 eax, DWORD PTR tv5955[ebp]
  00288	48		 dec	 eax
  00289	3b 87 ec 10 00
	00		 cmp	 eax, DWORD PTR [edi+4332]
  0028f	0f 8c 33 fe ff
	ff		 jl	 $LL804@LoadProper
$LN298@LoadProper:

; 55   : 	}
; 56   : 
; 57   : 	m_dwLoopTime = rkLoader.LoadInt_e( "run_duration", 0 );

  00295	6a 03		 push	 3
  00297	c7 45 e8 9f 99
	85 b5		 mov	 DWORD PTR __k$547625[ebp], -1249535585 ; b585999fH
  0029e	c7 45 ec 89 99
	99 8b		 mov	 DWORD PTR __k$547625[ebp+4], -1952867959 ; 8b999989H
  002a5	c7 45 f0 99 85
	84 84		 mov	 DWORD PTR __k$547625[ebp+8], -2071689831 ; 84848599H
  002ac	8d 45 e8	 lea	 eax, DWORD PTR __k$547625[ebp]
  002af	88 5d f4	 mov	 BYTE PTR __k$547625[ebp+12], bl
  002b2	59		 pop	 ecx
$LL558@LoadProper:
  002b3	81 30 ed ec eb
	ea		 xor	 DWORD PTR [eax], -353637139 ; eaebecedH
  002b9	83 c0 04	 add	 eax, 4
  002bc	49		 dec	 ecx
  002bd	75 f4		 jne	 SHORT $LL558@LoadProper
  002bf	8b 8d d8 fe ff
	ff		 mov	 ecx, DWORD PTR _rkLoader$GSCopy$[ebp]
  002c5	53		 push	 ebx
  002c6	8d 45 e8	 lea	 eax, DWORD PTR __k$547625[ebp]
  002c9	50		 push	 eax
  002ca	ff 15 00 00 00
	00		 call	 DWORD PTR __imp_?LoadInt@ioINILoader@@QAEHPBDH@Z
  002d0	6a 03		 push	 3
  002d2	89 87 e4 10 00
	00		 mov	 DWORD PTR [edi+4324], eax

; 58   : 	m_bUseFireEnd	 = rkLoader.LoadBool_e( "use_fire_end", false );

  002d8	c7 45 e8 98 9f
	8e b5		 mov	 DWORD PTR __k$547750[ebp], -1248944232 ; b58e9f98H
  002df	c7 45 ec 8b 85
	99 8f		 mov	 DWORD PTR __k$547750[ebp+4], -1885764213 ; 8f99858bH
  002e6	c7 45 f0 b2 89
	85 8e		 mov	 DWORD PTR __k$547750[ebp+8], -1903851086 ; 8e8589b2H
  002ed	8d 45 e8	 lea	 eax, DWORD PTR __k$547750[ebp]
  002f0	88 5d f4	 mov	 BYTE PTR __k$547750[ebp+12], bl
  002f3	59		 pop	 ecx
$LL664@LoadProper:
  002f4	81 30 ed ec eb
	ea		 xor	 DWORD PTR [eax], -353637139 ; eaebecedH
  002fa	83 c0 04	 add	 eax, 4
  002fd	49		 dec	 ecx
  002fe	75 f4		 jne	 SHORT $LL664@LoadProper
  00300	8b 8d d8 fe ff
	ff		 mov	 ecx, DWORD PTR _rkLoader$GSCopy$[ebp]
  00306	8b 35 00 00 00
	00		 mov	 esi, DWORD PTR __imp_?LoadBool@ioINILoader@@QAE_NPBD_N@Z
  0030c	53		 push	 ebx
  0030d	8d 45 e8	 lea	 eax, DWORD PTR __k$547750[ebp]
  00310	50		 push	 eax
  00311	ff d6		 call	 esi
  00313	6a 02		 push	 2
  00315	88 87 e8 10 00
	00		 mov	 BYTE PTR [edi+4328], al

; 59   : 	m_bDirection = rkLoader.LoadBool_e( "direction", false );

  0031b	c7 45 ec 89 85
	99 8f		 mov	 DWORD PTR __k$547888[ebp], -1885764215 ; 8f998589H
  00322	c7 45 f0 8e 98
	82 85		 mov	 DWORD PTR __k$547888[ebp+4], -2055038834 ; 8582988eH
  00329	8d 45 ec	 lea	 eax, DWORD PTR __k$547888[ebp]
  0032c	66 c7 45 f4 83
	00		 mov	 WORD PTR __k$547888[ebp+8], 131 ; 00000083H
  00332	59		 pop	 ecx
$LL770@LoadProper:
  00333	81 30 ed ec eb
	ea		 xor	 DWORD PTR [eax], -353637139 ; eaebecedH
  00339	83 c0 04	 add	 eax, 4
  0033c	49		 dec	 ecx
  0033d	75 f4		 jne	 SHORT $LL770@LoadProper
  0033f	8b 8d d8 fe ff
	ff		 mov	 ecx, DWORD PTR _rkLoader$GSCopy$[ebp]
  00345	80 75 f4 ed	 xor	 BYTE PTR __k$547888[ebp+8], -19 ; ffffffedH
  00349	53		 push	 ebx
  0034a	8d 45 ec	 lea	 eax, DWORD PTR __k$547888[ebp]
  0034d	50		 push	 eax
  0034e	ff d6		 call	 esi

; 60   : }

  00350	8b 4d fc	 mov	 ecx, DWORD PTR __$ArrayPad$[ebp]
  00353	88 87 e9 10 00
	00		 mov	 BYTE PTR [edi+4329], al
  00359	5f		 pop	 edi
  0035a	5e		 pop	 esi
  0035b	33 cd		 xor	 ecx, ebp
  0035d	5b		 pop	 ebx
  0035e	e8 00 00 00 00	 call	 @__security_check_cookie@4
  00363	c9		 leave
  00364	c2 04 00	 ret	 4
?LoadProperty@ioMoveAttackSkill@@UAEXAAVioINILoader@@@Z ENDP ; ioMoveAttackSkill::LoadProperty
_TEXT	ENDS
END
