; Listing generated by Microsoft (R) Optimizing Compiler Version 16.00.30319.01 

	TITLE	D:\Lost Saga For Developer\Youtube\Tutorial\Source\src\LSClient\ioMoveAttack3Dummy.cpp
	.686P
	.XMM
	include listing.inc
	.model	flat

INCLUDELIB MSVCRT
INCLUDELIB OLDNAMES

PUBLIC	?_EEM_DS@?$deque@UD3DXVECTOR3@@V?$allocator@UD3DXVECTOR3@@@std@@@std@@2HB ; std::deque<D3DXVECTOR3,std::allocator<D3DXVECTOR3> >::_EEM_DS
;	COMDAT ?_EEM_DS@?$deque@UD3DXVECTOR3@@V?$allocator@UD3DXVECTOR3@@@std@@@std@@2HB
CONST	SEGMENT
?_EEM_DS@?$deque@UD3DXVECTOR3@@V?$allocator@UD3DXVECTOR3@@@std@@@std@@2HB DD 01H ; std::deque<D3DXVECTOR3,std::allocator<D3DXVECTOR3> >::_EEM_DS
CONST	ENDS
PUBLIC	?return1@@YAIXZ					; return1
; Function compile flags: /Ogsp
; File d:\lost saga for developer\youtube\tutorial\source\src\lsclient\stdafx.h
;	COMDAT ?return1@@YAIXZ
_TEXT	SEGMENT
?return1@@YAIXZ PROC					; return1, COMDAT

; 17   : 	__forceinline unsigned int return1() { __asm mov eax, 1 };

  00000	b8 01 00 00 00	 mov	 eax, 1
  00005	c3		 ret	 0
?return1@@YAIXZ ENDP					; return1
_TEXT	ENDS
PUBLIC	_sqrtf
EXTRN	__fltused:DWORD
EXTRN	__CIsqrt:PROC
; Function compile flags: /Ogsp
; File c:\program files (x86)\microsoft visual studio 10.0\vc\include\math.h
;	COMDAT _sqrtf
_TEXT	SEGMENT
tv69 = 8						; size = 4
__X$ = 8						; size = 4
_sqrtf	PROC						; COMDAT

; 434  :         {return ((float)sqrt((double)_X)); }

  00000	55		 push	 ebp
  00001	8b ec		 mov	 ebp, esp
  00003	d9 45 08	 fld	 DWORD PTR __X$[ebp]
  00006	e8 00 00 00 00	 call	 __CIsqrt
  0000b	d9 5d 08	 fstp	 DWORD PTR tv69[ebp]
  0000e	d9 45 08	 fld	 DWORD PTR tv69[ebp]
  00011	5d		 pop	 ebp
  00012	c3		 ret	 0
_sqrtf	ENDP
_TEXT	ENDS
PUBLIC	?GetCreator@ioBaseChar@@QAEPAVioPlayStage@@XZ	; ioBaseChar::GetCreator
; Function compile flags: /Ogsp
; File d:\lost saga for developer\youtube\tutorial\source\src\lsclient\iobasechar.h
;	COMDAT ?GetCreator@ioBaseChar@@QAEPAVioPlayStage@@XZ
_TEXT	SEGMENT
?GetCreator@ioBaseChar@@QAEPAVioPlayStage@@XZ PROC	; ioBaseChar::GetCreator, COMDAT
; _this$ = ecx

; 4013 : 	inline ioPlayStage* GetCreator() { return m_pCreator; }

  00000	8b 81 44 03 00
	00		 mov	 eax, DWORD PTR [ecx+836]
  00006	c3		 ret	 0
?GetCreator@ioBaseChar@@QAEPAVioPlayStage@@XZ ENDP	; ioBaseChar::GetCreator
_TEXT	ENDS
PUBLIC	?_Adopt@_Iterator_base0@std@@QAEXPBX@Z		; std::_Iterator_base0::_Adopt
; Function compile flags: /Ogsp
; File c:\program files (x86)\microsoft visual studio 10.0\vc\include\xutility
;	COMDAT ?_Adopt@_Iterator_base0@std@@QAEXPBX@Z
_TEXT	SEGMENT
___formal$ = 8						; size = 4
?_Adopt@_Iterator_base0@std@@QAEXPBX@Z PROC		; std::_Iterator_base0::_Adopt, COMDAT
; _this$ = ecx

; 49   : 		}

  00000	c2 04 00	 ret	 4
?_Adopt@_Iterator_base0@std@@QAEXPBX@Z ENDP		; std::_Iterator_base0::_Adopt
_TEXT	ENDS
PUBLIC	?ProcessState@ioMoveAttack3Dummy@@MAEXMK@Z	; ioMoveAttack3Dummy::ProcessState
; Function compile flags: /Ogsp
; File d:\lost saga for developer\youtube\tutorial\source\src\lsclient\iomoveattack3dummy.cpp
;	COMDAT ?ProcessState@ioMoveAttack3Dummy@@MAEXMK@Z
_TEXT	SEGMENT
_fTimePerSec$ = 8					; size = 4
_dwPreTime$ = 12					; size = 4
?ProcessState@ioMoveAttack3Dummy@@MAEXMK@Z PROC		; ioMoveAttack3Dummy::ProcessState, COMDAT
; _this$ = ecx

; 44   : {

  00000	55		 push	 ebp
  00001	8b ec		 mov	 ebp, esp
  00003	56		 push	 esi
  00004	8b f1		 mov	 esi, ecx

; 45   : 	/*switch( m_State )
; 46   : 	{
; 47   : 	case DCS_START:
; 48   : 		ProcessStartState( fTimePerSec );
; 49   : 		break;
; 50   : 	default: ProcessMoveState( fTimePerSec ); return;
; 51   : 	}*/
; 52   : 
; 53   : 	if( !m_bCreateWeapon )

  00006	80 be 94 15 00
	00 00		 cmp	 BYTE PTR [esi+5524], 0
  0000d	75 19		 jne	 SHORT $LN1@ProcessSta

; 54   : 	{
; 55   : 		//SetAttachWeapon();
; 56   : 		m_bCreateWeapon = true;
; 57   : 		m_State = DCS_MOVE;
; 58   : 		
; 59   : 		//SetDelayTimeKillWeaponValue( false );
; 60   : 
; 61   : 		SetMoveState();

  0000f	8b 06		 mov	 eax, DWORD PTR [esi]
  00011	c6 86 94 15 00
	00 01		 mov	 BYTE PTR [esi+5524], 1
  00018	c7 86 30 02 00
	00 03 00 00 00	 mov	 DWORD PTR [esi+560], 3
  00022	ff 90 18 01 00
	00		 call	 DWORD PTR [eax+280]
$LN1@ProcessSta:

; 62   : 		//SetDelayState( false );
; 63   : 	}
; 64   : 
; 65   : 	ProcessMoveState( fTimePerSec );

  00028	f3 0f 10 45 08	 movss	 xmm0, DWORD PTR _fTimePerSec$[ebp]
  0002d	8b 06		 mov	 eax, DWORD PTR [esi]
  0002f	51		 push	 ecx
  00030	8b ce		 mov	 ecx, esi
  00032	f3 0f 11 04 24	 movss	 DWORD PTR [esp], xmm0
  00037	ff 90 04 01 00
	00		 call	 DWORD PTR [eax+260]
  0003d	5e		 pop	 esi

; 66   : }

  0003e	5d		 pop	 ebp
  0003f	c2 08 00	 ret	 8
?ProcessState@ioMoveAttack3Dummy@@MAEXMK@Z ENDP		; ioMoveAttack3Dummy::ProcessState
_TEXT	ENDS
PUBLIC	?ProcessStartState@ioMoveAttack3Dummy@@IAEXM@Z	; ioMoveAttack3Dummy::ProcessStartState
EXTRN	?SetAttachWeapon@ioDummyChar@@IAEXXZ:PROC	; ioDummyChar::SetAttachWeapon
; Function compile flags: /Ogsp
;	COMDAT ?ProcessStartState@ioMoveAttack3Dummy@@IAEXM@Z
_TEXT	SEGMENT
_fTimePerSec$ = 8					; size = 4
?ProcessStartState@ioMoveAttack3Dummy@@IAEXM@Z PROC	; ioMoveAttack3Dummy::ProcessStartState, COMDAT
; _this$ = ecx

; 70   : 	SetAttachWeapon();

  00000	e8 00 00 00 00	 call	 ?SetAttachWeapon@ioDummyChar@@IAEXXZ ; ioDummyChar::SetAttachWeapon

; 71   : 	//SetAttackState();
; 72   : }

  00005	c2 04 00	 ret	 4
?ProcessStartState@ioMoveAttack3Dummy@@IAEXM@Z ENDP	; ioMoveAttack3Dummy::ProcessStartState
_TEXT	ENDS
PUBLIC	?SetWaitState@ioMoveAttack3Dummy@@IAEXXZ	; ioMoveAttack3Dummy::SetWaitState
; Function compile flags: /Ogsp
;	COMDAT ?SetWaitState@ioMoveAttack3Dummy@@IAEXXZ
_TEXT	SEGMENT
?SetWaitState@ioMoveAttack3Dummy@@IAEXXZ PROC		; ioMoveAttack3Dummy::SetWaitState, COMDAT
; _this$ = ecx

; 135  : 	m_MoveState = MS_WAIT;
; 136  : 	m_fNeedMoveLength = 0.f;

  00000	0f 57 c0	 xorps	 xmm0, xmm0
  00003	83 a1 80 14 00
	00 00		 and	 DWORD PTR [ecx+5248], 0
  0000a	f3 0f 11 81 8c
	15 00 00	 movss	 DWORD PTR [ecx+5516], xmm0

; 137  : }

  00012	c3		 ret	 0
?SetWaitState@ioMoveAttack3Dummy@@IAEXXZ ENDP		; ioMoveAttack3Dummy::SetWaitState
_TEXT	ENDS
PUBLIC	?IsActivateWeapon@ioMoveAttack3Dummy@@UAE_NXZ	; ioMoveAttack3Dummy::IsActivateWeapon
; Function compile flags: /Ogsp
;	COMDAT ?IsActivateWeapon@ioMoveAttack3Dummy@@UAE_NXZ
_TEXT	SEGMENT
?IsActivateWeapon@ioMoveAttack3Dummy@@UAE_NXZ PROC	; ioMoveAttack3Dummy::IsActivateWeapon, COMDAT
; _this$ = ecx

; 173  : 	if( m_State == DCS_DELAY )

  00000	83 b9 30 02 00
	00 02		 cmp	 DWORD PTR [ecx+560], 2
  00007	0f 95 c0	 setne	 al

; 174  : 		return false;
; 175  : 
; 176  : 	return true;
; 177  : }

  0000a	c3		 ret	 0
?IsActivateWeapon@ioMoveAttack3Dummy@@UAE_NXZ ENDP	; ioMoveAttack3Dummy::IsActivateWeapon
_TEXT	ENDS
PUBLIC	??0D3DXVECTOR3@@QAE@XZ				; D3DXVECTOR3::D3DXVECTOR3
; Function compile flags: /Ogsp
; File c:\program files (x86)\microsoft directx sdk (june 2010)\include\d3dx9math.h
;	COMDAT ??0D3DXVECTOR3@@QAE@XZ
_TEXT	SEGMENT
??0D3DXVECTOR3@@QAE@XZ PROC				; D3DXVECTOR3::D3DXVECTOR3, COMDAT
; _this$ = ecx

; 165  :     D3DXVECTOR3() {};

  00000	8b c1		 mov	 eax, ecx
  00002	c3		 ret	 0
??0D3DXVECTOR3@@QAE@XZ ENDP				; D3DXVECTOR3::D3DXVECTOR3
_TEXT	ENDS
PUBLIC	??0D3DXQUATERNION@@QAE@XZ			; D3DXQUATERNION::D3DXQUATERNION
; Function compile flags: /Ogsp
;	COMDAT ??0D3DXQUATERNION@@QAE@XZ
_TEXT	SEGMENT
??0D3DXQUATERNION@@QAE@XZ PROC				; D3DXQUATERNION::D3DXQUATERNION, COMDAT
; _this$ = ecx

; 429  :     D3DXQUATERNION() {}

  00000	8b c1		 mov	 eax, ecx
  00002	c3		 ret	 0
??0D3DXQUATERNION@@QAE@XZ ENDP				; D3DXQUATERNION::D3DXQUATERNION
_TEXT	ENDS
PUBLIC	??0D3DXVECTOR3@@QAE@MMM@Z			; D3DXVECTOR3::D3DXVECTOR3
; Function compile flags: /Ogsp
; File c:\program files (x86)\microsoft directx sdk (june 2010)\include\d3dx9math.inl
;	COMDAT ??0D3DXVECTOR3@@QAE@MMM@Z
_TEXT	SEGMENT
_fx$ = 8						; size = 4
_fy$ = 12						; size = 4
_fz$ = 16						; size = 4
??0D3DXVECTOR3@@QAE@MMM@Z PROC				; D3DXVECTOR3::D3DXVECTOR3, COMDAT
; _this$ = ecx

; 303  : {

  00000	55		 push	 ebp
  00001	8b ec		 mov	 ebp, esp

; 304  :     x = fx;

  00003	f3 0f 10 45 08	 movss	 xmm0, DWORD PTR _fx$[ebp]
  00008	8b c1		 mov	 eax, ecx
  0000a	f3 0f 11 00	 movss	 DWORD PTR [eax], xmm0

; 305  :     y = fy;

  0000e	f3 0f 10 45 0c	 movss	 xmm0, DWORD PTR _fy$[ebp]
  00013	f3 0f 11 40 04	 movss	 DWORD PTR [eax+4], xmm0

; 306  :     z = fz;

  00018	f3 0f 10 45 10	 movss	 xmm0, DWORD PTR _fz$[ebp]
  0001d	f3 0f 11 40 08	 movss	 DWORD PTR [eax+8], xmm0

; 307  : }

  00022	5d		 pop	 ebp
  00023	c2 0c 00	 ret	 12			; 0000000cH
??0D3DXVECTOR3@@QAE@MMM@Z ENDP				; D3DXVECTOR3::D3DXVECTOR3
_TEXT	ENDS
PUBLIC	??GD3DXVECTOR3@@QBE?AU0@ABU0@@Z			; D3DXVECTOR3::operator-
; Function compile flags: /Ogsp
;	COMDAT ??GD3DXVECTOR3@@QBE?AU0@ABU0@@Z
_TEXT	SEGMENT
___$ReturnUdt$ = 8					; size = 4
_v$ = 12						; size = 4
??GD3DXVECTOR3@@QBE?AU0@ABU0@@Z PROC			; D3DXVECTOR3::operator-, COMDAT
; _this$ = ecx

; 386  : {

  00000	55		 push	 ebp
  00001	8b ec		 mov	 ebp, esp

; 387  :     return D3DXVECTOR3(x - v.x, y - v.y, z - v.z);

  00003	8b 55 0c	 mov	 edx, DWORD PTR _v$[ebp]
  00006	f3 0f 10 01	 movss	 xmm0, DWORD PTR [ecx]
  0000a	f3 0f 10 0a	 movss	 xmm1, DWORD PTR [edx]
  0000e	8b 45 08	 mov	 eax, DWORD PTR ___$ReturnUdt$[ebp]
  00011	0f 5a c0	 cvtps2pd xmm0, xmm0
  00014	0f 5a c9	 cvtps2pd xmm1, xmm1
  00017	f2 0f 5c c1	 subsd	 xmm0, xmm1
  0001b	f3 0f 10 4a 04	 movss	 xmm1, DWORD PTR [edx+4]
  00020	66 0f 5a c0	 cvtpd2ps xmm0, xmm0
  00024	f3 0f 11 00	 movss	 DWORD PTR [eax], xmm0
  00028	f3 0f 10 41 04	 movss	 xmm0, DWORD PTR [ecx+4]
  0002d	0f 5a c0	 cvtps2pd xmm0, xmm0
  00030	0f 5a c9	 cvtps2pd xmm1, xmm1
  00033	f2 0f 5c c1	 subsd	 xmm0, xmm1
  00037	f3 0f 10 4a 08	 movss	 xmm1, DWORD PTR [edx+8]
  0003c	66 0f 5a c0	 cvtpd2ps xmm0, xmm0
  00040	f3 0f 11 40 04	 movss	 DWORD PTR [eax+4], xmm0
  00045	f3 0f 10 41 08	 movss	 xmm0, DWORD PTR [ecx+8]
  0004a	0f 5a c0	 cvtps2pd xmm0, xmm0
  0004d	0f 5a c9	 cvtps2pd xmm1, xmm1
  00050	f2 0f 5c c1	 subsd	 xmm0, xmm1
  00054	66 0f 5a c0	 cvtpd2ps xmm0, xmm0
  00058	f3 0f 11 40 08	 movss	 DWORD PTR [eax+8], xmm0

; 388  : }

  0005d	5d		 pop	 ebp
  0005e	c2 08 00	 ret	 8
??GD3DXVECTOR3@@QBE?AU0@ABU0@@Z ENDP			; D3DXVECTOR3::operator-
_TEXT	ENDS
PUBLIC	??D@YA?AUD3DXVECTOR3@@MABU0@@Z			; operator*
; Function compile flags: /Ogsp
;	COMDAT ??D@YA?AUD3DXVECTOR3@@MABU0@@Z
_TEXT	SEGMENT
___$ReturnUdt$ = 8					; size = 4
_f$ = 12						; size = 4
_v$ = 16						; size = 4
??D@YA?AUD3DXVECTOR3@@MABU0@@Z PROC			; operator*, COMDAT

; 406  : {

  00000	55		 push	 ebp
  00001	8b ec		 mov	 ebp, esp

; 407  :     return D3DXVECTOR3(f * v.x, f * v.y, f * v.z);

  00003	8b 4d 10	 mov	 ecx, DWORD PTR _v$[ebp]
  00006	f3 0f 10 4d 0c	 movss	 xmm1, DWORD PTR _f$[ebp]
  0000b	f3 0f 10 01	 movss	 xmm0, DWORD PTR [ecx]
  0000f	8b 45 08	 mov	 eax, DWORD PTR ___$ReturnUdt$[ebp]
  00012	0f 5a c0	 cvtps2pd xmm0, xmm0
  00015	0f 5a c9	 cvtps2pd xmm1, xmm1
  00018	f2 0f 59 c1	 mulsd	 xmm0, xmm1
  0001c	f3 0f 10 4d 0c	 movss	 xmm1, DWORD PTR _f$[ebp]
  00021	66 0f 5a c0	 cvtpd2ps xmm0, xmm0
  00025	f3 0f 11 00	 movss	 DWORD PTR [eax], xmm0
  00029	f3 0f 10 41 04	 movss	 xmm0, DWORD PTR [ecx+4]
  0002e	0f 5a c0	 cvtps2pd xmm0, xmm0
  00031	0f 5a c9	 cvtps2pd xmm1, xmm1
  00034	f2 0f 59 c1	 mulsd	 xmm0, xmm1
  00038	f3 0f 10 4d 0c	 movss	 xmm1, DWORD PTR _f$[ebp]
  0003d	66 0f 5a c0	 cvtpd2ps xmm0, xmm0
  00041	f3 0f 11 40 04	 movss	 DWORD PTR [eax+4], xmm0
  00046	f3 0f 10 41 08	 movss	 xmm0, DWORD PTR [ecx+8]
  0004b	0f 5a c0	 cvtps2pd xmm0, xmm0
  0004e	0f 5a c9	 cvtps2pd xmm1, xmm1
  00051	f2 0f 59 c1	 mulsd	 xmm0, xmm1
  00055	66 0f 5a c0	 cvtpd2ps xmm0, xmm0
  00059	f3 0f 11 40 08	 movss	 DWORD PTR [eax+8], xmm0

; 408  : }

  0005e	5d		 pop	 ebp
  0005f	c3		 ret	 0
??D@YA?AUD3DXVECTOR3@@MABU0@@Z ENDP			; operator*
_TEXT	ENDS
PUBLIC	?D3DXVec3Length@@YAMPBUD3DXVECTOR3@@@Z		; D3DXVec3Length
; Function compile flags: /Ogsp
;	COMDAT ?D3DXVec3Length@@YAMPBUD3DXVECTOR3@@@Z
_TEXT	SEGMENT
tv169 = 8						; size = 4
tv160 = 8						; size = 4
_pV$ = 8						; size = 4
?D3DXVec3Length@@YAMPBUD3DXVECTOR3@@@Z PROC		; D3DXVec3Length, COMDAT

; 1710 : {

  00000	55		 push	 ebp
  00001	8b ec		 mov	 ebp, esp

; 1711 : #ifdef D3DX_DEBUG
; 1712 :     if(!pV)
; 1713 :         return 0.0f;
; 1714 : #endif
; 1715 : 
; 1716 : #ifdef __cplusplus
; 1717 :     return sqrtf(pV->x * pV->x + pV->y * pV->y + pV->z * pV->z);

  00003	8b 45 08	 mov	 eax, DWORD PTR _pV$[ebp]
  00006	d9 40 04	 fld	 DWORD PTR [eax+4]
  00009	d9 00		 fld	 DWORD PTR [eax]
  0000b	d9 40 08	 fld	 DWORD PTR [eax+8]
  0000e	d9 c1		 fld	 ST(1)
  00010	de ca		 fmulp	 ST(2), ST(0)
  00012	d9 c2		 fld	 ST(2)
  00014	de cb		 fmulp	 ST(3), ST(0)
  00016	d9 c9		 fxch	 ST(1)
  00018	de c2		 faddp	 ST(2), ST(0)
  0001a	d9 c0		 fld	 ST(0)
  0001c	de c9		 fmulp	 ST(1), ST(0)
  0001e	de c1		 faddp	 ST(1), ST(0)
  00020	d9 5d 08	 fstp	 DWORD PTR tv169[ebp]
  00023	d9 45 08	 fld	 DWORD PTR tv169[ebp]
  00026	e8 00 00 00 00	 call	 __CIsqrt
  0002b	d9 5d 08	 fstp	 DWORD PTR tv160[ebp]
  0002e	d9 45 08	 fld	 DWORD PTR tv160[ebp]

; 1718 : #else
; 1719 :     return (FLOAT) sqrt(pV->x * pV->x + pV->y * pV->y + pV->z * pV->z);
; 1720 : #endif
; 1721 : }

  00031	5d		 pop	 ebp
  00032	c3		 ret	 0
?D3DXVec3Length@@YAMPBUD3DXVECTOR3@@@Z ENDP		; D3DXVec3Length
_TEXT	ENDS
PUBLIC	?_DECSTR@@YAXPADH@Z				; _DECSTR
; Function compile flags: /Ogsp
; File d:\lost saga for developer\youtube\tutorial\source\src\lsclient\stringprotect.h
;	COMDAT ?_DECSTR@@YAXPADH@Z
_TEXT	SEGMENT
_s$ = 8							; size = 4
_l$ = 12						; size = 4
?_DECSTR@@YAXPADH@Z PROC				; _DECSTR, COMDAT

; 40   : __forceinline void _DECSTR(char* s, int l){int i=0,l4=(l-1)/4,*p=(int*)s;s[l-1]=0;for(;i<l4;++i)*(p++)^=0xEAEBECED;for(i=l4*4;i<l-1;++i)s[i]^=0xED-i%4;}

  00000	55		 push	 ebp
  00001	8b ec		 mov	 ebp, esp
  00003	8b 4d 0c	 mov	 ecx, DWORD PTR _l$[ebp]
  00006	56		 push	 esi
  00007	8b 75 08	 mov	 esi, DWORD PTR _s$[ebp]
  0000a	57		 push	 edi
  0000b	8d 79 ff	 lea	 edi, DWORD PTR [ecx-1]
  0000e	8b c7		 mov	 eax, edi
  00010	99		 cdq
  00011	83 e2 03	 and	 edx, 3
  00014	03 c2		 add	 eax, edx
  00016	c1 f8 02	 sar	 eax, 2
  00019	8b d6		 mov	 edx, esi
  0001b	c6 44 0e ff 00	 mov	 BYTE PTR [esi+ecx-1], 0
  00020	85 c0		 test	 eax, eax
  00022	7e 0e		 jle	 SHORT $LN4@DECSTR
  00024	8b c8		 mov	 ecx, eax
$LL6@DECSTR:
  00026	81 32 ed ec eb
	ea		 xor	 DWORD PTR [edx], -353637139 ; eaebecedH
  0002c	83 c2 04	 add	 edx, 4
  0002f	49		 dec	 ecx
  00030	75 f4		 jne	 SHORT $LL6@DECSTR
$LN4@DECSTR:
  00032	c1 e0 02	 shl	 eax, 2
  00035	eb 17		 jmp	 SHORT $LN14@DECSTR
$LL3@DECSTR:
  00037	8b c8		 mov	 ecx, eax
  00039	81 e1 03 00 00
	80		 and	 ecx, -2147483645	; 80000003H
  0003f	79 05		 jns	 SHORT $LN13@DECSTR
  00041	49		 dec	 ecx
  00042	83 c9 fc	 or	 ecx, -4			; fffffffcH
  00045	41		 inc	 ecx
$LN13@DECSTR:
  00046	b2 ed		 mov	 dl, -19			; ffffffedH
  00048	2a d1		 sub	 dl, cl
  0004a	30 14 30	 xor	 BYTE PTR [eax+esi], dl
  0004d	40		 inc	 eax
$LN14@DECSTR:
  0004e	3b c7		 cmp	 eax, edi
  00050	7c e5		 jl	 SHORT $LL3@DECSTR
  00052	5f		 pop	 edi
  00053	5e		 pop	 esi
  00054	5d		 pop	 ebp
  00055	c3		 ret	 0
?_DECSTR@@YAXPADH@Z ENDP				; _DECSTR
_TEXT	ENDS
PUBLIC	??_7?$CEncrypt@M@@6B@				; CEncrypt<float>::`vftable'
PUBLIC	??1?$CEncrypt@M@@UAE@XZ				; CEncrypt<float>::~CEncrypt<float>
PUBLIC	??_R4?$CEncrypt@M@@6B@				; CEncrypt<float>::`RTTI Complete Object Locator'
PUBLIC	??_R0?AV?$CEncrypt@M@@@8			; CEncrypt<float> `RTTI Type Descriptor'
PUBLIC	??_R3?$CEncrypt@M@@8				; CEncrypt<float>::`RTTI Class Hierarchy Descriptor'
PUBLIC	??_R2?$CEncrypt@M@@8				; CEncrypt<float>::`RTTI Base Class Array'
PUBLIC	??_R1A@?0A@EA@?$CEncrypt@M@@8			; CEncrypt<float>::`RTTI Base Class Descriptor at (0,-1,0,64)'
EXTRN	??1ccddaabb@@UAE@XZ:PROC			; ccddaabb::~ccddaabb
EXTRN	??_7type_info@@6B@:QWORD			; type_info::`vftable'
EXTRN	??_E?$CEncrypt@M@@UAEPAXI@Z:PROC		; CEncrypt<float>::`vector deleting destructor'
;	COMDAT ??_R1A@?0A@EA@?$CEncrypt@M@@8
; File d:\lost saga for developer\youtube\tutorial\source\src\lsclient\encryptvalue.h
rdata$r	SEGMENT
??_R1A@?0A@EA@?$CEncrypt@M@@8 DD FLAT:??_R0?AV?$CEncrypt@M@@@8 ; CEncrypt<float>::`RTTI Base Class Descriptor at (0,-1,0,64)'
	DD	00H
	DD	00H
	DD	0ffffffffH
	DD	00H
	DD	040H
	DD	FLAT:??_R3?$CEncrypt@M@@8
rdata$r	ENDS
;	COMDAT ??_R2?$CEncrypt@M@@8
rdata$r	SEGMENT
??_R2?$CEncrypt@M@@8 DD FLAT:??_R1A@?0A@EA@?$CEncrypt@M@@8 ; CEncrypt<float>::`RTTI Base Class Array'
rdata$r	ENDS
;	COMDAT ??_R3?$CEncrypt@M@@8
rdata$r	SEGMENT
??_R3?$CEncrypt@M@@8 DD 00H				; CEncrypt<float>::`RTTI Class Hierarchy Descriptor'
	DD	00H
	DD	01H
	DD	FLAT:??_R2?$CEncrypt@M@@8
rdata$r	ENDS
;	COMDAT ??_R0?AV?$CEncrypt@M@@@8
_DATA	SEGMENT
??_R0?AV?$CEncrypt@M@@@8 DD FLAT:??_7type_info@@6B@	; CEncrypt<float> `RTTI Type Descriptor'
	DD	00H
	DB	'.?AV?$CEncrypt@M@@', 00H
_DATA	ENDS
;	COMDAT ??_R4?$CEncrypt@M@@6B@
rdata$r	SEGMENT
??_R4?$CEncrypt@M@@6B@ DD 00H				; CEncrypt<float>::`RTTI Complete Object Locator'
	DD	00H
	DD	00H
	DD	FLAT:??_R0?AV?$CEncrypt@M@@@8
	DD	FLAT:??_R3?$CEncrypt@M@@8
rdata$r	ENDS
;	COMDAT ??_7?$CEncrypt@M@@6B@
CONST	SEGMENT
??_7?$CEncrypt@M@@6B@ DD FLAT:??_R4?$CEncrypt@M@@6B@	; CEncrypt<float>::`vftable'
	DD	FLAT:??_E?$CEncrypt@M@@UAEPAXI@Z
; Function compile flags: /Ogsp
CONST	ENDS
;	COMDAT ??1?$CEncrypt@M@@UAE@XZ
_TEXT	SEGMENT
??1?$CEncrypt@M@@UAE@XZ PROC				; CEncrypt<float>::~CEncrypt<float>, COMDAT
; _this$ = ecx

; 127  : 	{

  00000	c7 01 00 00 00
	00		 mov	 DWORD PTR [ecx], OFFSET ??_7?$CEncrypt@M@@6B@

; 128  : 	}

  00006	83 c1 0c	 add	 ecx, 12			; 0000000cH
  00009	e9 00 00 00 00	 jmp	 ??1ccddaabb@@UAE@XZ	; ccddaabb::~ccddaabb
??1?$CEncrypt@M@@UAE@XZ ENDP				; CEncrypt<float>::~CEncrypt<float>
_TEXT	ENDS
PUBLIC	??_7?$CEncrypt@K@@6B@				; CEncrypt<unsigned long>::`vftable'
PUBLIC	??1?$CEncrypt@K@@UAE@XZ				; CEncrypt<unsigned long>::~CEncrypt<unsigned long>
PUBLIC	??_R4?$CEncrypt@K@@6B@				; CEncrypt<unsigned long>::`RTTI Complete Object Locator'
PUBLIC	??_R0?AV?$CEncrypt@K@@@8			; CEncrypt<unsigned long> `RTTI Type Descriptor'
PUBLIC	??_R3?$CEncrypt@K@@8				; CEncrypt<unsigned long>::`RTTI Class Hierarchy Descriptor'
PUBLIC	??_R2?$CEncrypt@K@@8				; CEncrypt<unsigned long>::`RTTI Base Class Array'
PUBLIC	??_R1A@?0A@EA@?$CEncrypt@K@@8			; CEncrypt<unsigned long>::`RTTI Base Class Descriptor at (0,-1,0,64)'
EXTRN	??_E?$CEncrypt@K@@UAEPAXI@Z:PROC		; CEncrypt<unsigned long>::`vector deleting destructor'
;	COMDAT ??_R1A@?0A@EA@?$CEncrypt@K@@8
rdata$r	SEGMENT
??_R1A@?0A@EA@?$CEncrypt@K@@8 DD FLAT:??_R0?AV?$CEncrypt@K@@@8 ; CEncrypt<unsigned long>::`RTTI Base Class Descriptor at (0,-1,0,64)'
	DD	00H
	DD	00H
	DD	0ffffffffH
	DD	00H
	DD	040H
	DD	FLAT:??_R3?$CEncrypt@K@@8
rdata$r	ENDS
;	COMDAT ??_R2?$CEncrypt@K@@8
rdata$r	SEGMENT
??_R2?$CEncrypt@K@@8 DD FLAT:??_R1A@?0A@EA@?$CEncrypt@K@@8 ; CEncrypt<unsigned long>::`RTTI Base Class Array'
rdata$r	ENDS
;	COMDAT ??_R3?$CEncrypt@K@@8
rdata$r	SEGMENT
??_R3?$CEncrypt@K@@8 DD 00H				; CEncrypt<unsigned long>::`RTTI Class Hierarchy Descriptor'
	DD	00H
	DD	01H
	DD	FLAT:??_R2?$CEncrypt@K@@8
rdata$r	ENDS
;	COMDAT ??_R0?AV?$CEncrypt@K@@@8
_DATA	SEGMENT
??_R0?AV?$CEncrypt@K@@@8 DD FLAT:??_7type_info@@6B@	; CEncrypt<unsigned long> `RTTI Type Descriptor'
	DD	00H
	DB	'.?AV?$CEncrypt@K@@', 00H
_DATA	ENDS
;	COMDAT ??_R4?$CEncrypt@K@@6B@
rdata$r	SEGMENT
??_R4?$CEncrypt@K@@6B@ DD 00H				; CEncrypt<unsigned long>::`RTTI Complete Object Locator'
	DD	00H
	DD	00H
	DD	FLAT:??_R0?AV?$CEncrypt@K@@@8
	DD	FLAT:??_R3?$CEncrypt@K@@8
rdata$r	ENDS
;	COMDAT ??_7?$CEncrypt@K@@6B@
CONST	SEGMENT
??_7?$CEncrypt@K@@6B@ DD FLAT:??_R4?$CEncrypt@K@@6B@	; CEncrypt<unsigned long>::`vftable'
	DD	FLAT:??_E?$CEncrypt@K@@UAEPAXI@Z
; Function compile flags: /Ogsp
CONST	ENDS
;	COMDAT ??1?$CEncrypt@K@@UAE@XZ
_TEXT	SEGMENT
??1?$CEncrypt@K@@UAE@XZ PROC				; CEncrypt<unsigned long>::~CEncrypt<unsigned long>, COMDAT
; _this$ = ecx

; 127  : 	{

  00000	c7 01 00 00 00
	00		 mov	 DWORD PTR [ecx], OFFSET ??_7?$CEncrypt@K@@6B@

; 128  : 	}

  00006	83 c1 0c	 add	 ecx, 12			; 0000000cH
  00009	e9 00 00 00 00	 jmp	 ??1ccddaabb@@UAE@XZ	; ccddaabb::~ccddaabb
??1?$CEncrypt@K@@UAE@XZ ENDP				; CEncrypt<unsigned long>::~CEncrypt<unsigned long>
_TEXT	ENDS
EXTRN	??3@YAXPAX@Z:PROC				; operator delete
; Function compile flags: /Ogsp
;	COMDAT ??_G?$CEncrypt@M@@UAEPAXI@Z
_TEXT	SEGMENT
___flags$ = 8						; size = 4
??_G?$CEncrypt@M@@UAEPAXI@Z PROC			; CEncrypt<float>::`scalar deleting destructor', COMDAT
; _this$ = ecx
  00000	55		 push	 ebp
  00001	8b ec		 mov	 ebp, esp
  00003	56		 push	 esi
  00004	8b f1		 mov	 esi, ecx
  00006	8d 4e 0c	 lea	 ecx, DWORD PTR [esi+12]
  00009	c7 06 00 00 00
	00		 mov	 DWORD PTR [esi], OFFSET ??_7?$CEncrypt@M@@6B@
  0000f	e8 00 00 00 00	 call	 ??1ccddaabb@@UAE@XZ	; ccddaabb::~ccddaabb
  00014	f6 45 08 01	 test	 BYTE PTR ___flags$[ebp], 1
  00018	74 07		 je	 SHORT $LN1@scalar
  0001a	56		 push	 esi
  0001b	e8 00 00 00 00	 call	 ??3@YAXPAX@Z		; operator delete
  00020	59		 pop	 ecx
$LN1@scalar:
  00021	8b c6		 mov	 eax, esi
  00023	5e		 pop	 esi
  00024	5d		 pop	 ebp
  00025	c2 04 00	 ret	 4
??_G?$CEncrypt@M@@UAEPAXI@Z ENDP			; CEncrypt<float>::`scalar deleting destructor'
; Function compile flags: /Ogsp
_TEXT	ENDS
;	COMDAT ??_G?$CEncrypt@K@@UAEPAXI@Z
_TEXT	SEGMENT
___flags$ = 8						; size = 4
??_G?$CEncrypt@K@@UAEPAXI@Z PROC			; CEncrypt<unsigned long>::`scalar deleting destructor', COMDAT
; _this$ = ecx
  00000	55		 push	 ebp
  00001	8b ec		 mov	 ebp, esp
  00003	56		 push	 esi
  00004	8b f1		 mov	 esi, ecx
  00006	8d 4e 0c	 lea	 ecx, DWORD PTR [esi+12]
  00009	c7 06 00 00 00
	00		 mov	 DWORD PTR [esi], OFFSET ??_7?$CEncrypt@K@@6B@
  0000f	e8 00 00 00 00	 call	 ??1ccddaabb@@UAE@XZ	; ccddaabb::~ccddaabb
  00014	f6 45 08 01	 test	 BYTE PTR ___flags$[ebp], 1
  00018	74 07		 je	 SHORT $LN1@scalar@2
  0001a	56		 push	 esi
  0001b	e8 00 00 00 00	 call	 ??3@YAXPAX@Z		; operator delete
  00020	59		 pop	 ecx
$LN1@scalar@2:
  00021	8b c6		 mov	 eax, esi
  00023	5e		 pop	 esi
  00024	5d		 pop	 ebp
  00025	c2 04 00	 ret	 4
??_G?$CEncrypt@K@@UAEPAXI@Z ENDP			; CEncrypt<unsigned long>::`scalar deleting destructor'
_TEXT	ENDS
PUBLIC	?EncryptValueToPool@?$CEncrypt@M@@AAEXPBD@Z	; CEncrypt<float>::EncryptValueToPool
EXTRN	?EncryptByte@ccddaabb@@QAEXPBDPADH@Z:PROC	; ccddaabb::EncryptByte
; Function compile flags: /Ogsp
;	COMDAT ?EncryptValueToPool@?$CEncrypt@M@@AAEXPBD@Z
_TEXT	SEGMENT
_value$ = 8						; size = 4
?EncryptValueToPool@?$CEncrypt@M@@AAEXPBD@Z PROC	; CEncrypt<float>::EncryptValueToPool, COMDAT
; _this$ = ecx

; 67   : 	{

  00000	55		 push	 ebp
  00001	8b ec		 mov	 ebp, esp

; 68   : 		m_RC5.EncryptByte( value, m_MemPool, max(m_ValueSize, DEFAULT_ENCRYPT) );

  00003	0f b7 41 06	 movzx	 eax, WORD PTR [ecx+6]
  00007	83 f8 04	 cmp	 eax, 4
  0000a	77 03		 ja	 SHORT $LN4@EncryptVal
  0000c	6a 04		 push	 4
  0000e	58		 pop	 eax
$LN4@EncryptVal:
  0000f	50		 push	 eax
  00010	8d 41 1c	 lea	 eax, DWORD PTR [ecx+28]
  00013	50		 push	 eax
  00014	ff 75 08	 push	 DWORD PTR _value$[ebp]
  00017	83 c1 0c	 add	 ecx, 12			; 0000000cH
  0001a	e8 00 00 00 00	 call	 ?EncryptByte@ccddaabb@@QAEXPBDPADH@Z ; ccddaabb::EncryptByte

; 69   : 		
; 70   : 	}

  0001f	5d		 pop	 ebp
  00020	c2 04 00	 ret	 4
?EncryptValueToPool@?$CEncrypt@M@@AAEXPBD@Z ENDP	; CEncrypt<float>::EncryptValueToPool
_TEXT	ENDS
PUBLIC	?Init@?$CEncrypt@M@@AAEXXZ			; CEncrypt<float>::Init
EXTRN	?Setup@ccddaabb@@QAEXPBDHH@Z:PROC		; ccddaabb::Setup
EXTRN	__imp__rand:PROC
EXTRN	__imp__timeGetTime@0:PROC
EXTRN	__imp__GetCurrentProcessId@0:PROC
; Function compile flags: /Ogsp
;	COMDAT ?Init@?$CEncrypt@M@@AAEXXZ
_TEXT	SEGMENT
_pid$ = -8						; size = 4
_tick$ = -4						; size = 4
?Init@?$CEncrypt@M@@AAEXXZ PROC				; CEncrypt<float>::Init, COMDAT
; _this$ = ecx

; 73   : 	{

  00000	55		 push	 ebp
  00001	8b ec		 mov	 ebp, esp
  00003	51		 push	 ecx
  00004	51		 push	 ecx
  00005	53		 push	 ebx
  00006	56		 push	 esi
  00007	57		 push	 edi
  00008	8b f1		 mov	 esi, ecx

; 74   : 		DWORD pid = GetCurrentProcessId();

  0000a	ff 15 00 00 00
	00		 call	 DWORD PTR __imp__GetCurrentProcessId@0
  00010	89 45 f8	 mov	 DWORD PTR _pid$[ebp], eax

; 75   : 		DWORD tick = timeGetTime();

  00013	ff 15 00 00 00
	00		 call	 DWORD PTR __imp__timeGetTime@0

; 76   : 		m_ValueSize    = sizeof(type);
; 77   : 		m_MemPoolPos   = (unsigned short)( rand()+pid+tick )%(MAX_MEM_POOL-m_ValueSize);

  00019	8b 3d 00 00 00
	00		 mov	 edi, DWORD PTR __imp__rand
  0001f	89 45 fc	 mov	 DWORD PTR _tick$[ebp], eax
  00022	6a 04		 push	 4
  00024	58		 pop	 eax
  00025	66 89 46 06	 mov	 WORD PTR [esi+6], ax
  00029	ff d7		 call	 edi
  0002b	03 45 f8	 add	 eax, DWORD PTR _pid$[ebp]
  0002e	0f b7 4e 06	 movzx	 ecx, WORD PTR [esi+6]
  00032	03 45 fc	 add	 eax, DWORD PTR _tick$[ebp]
  00035	6a 0c		 push	 12			; 0000000cH
  00037	0f b7 c0	 movzx	 eax, ax
  0003a	5b		 pop	 ebx
  0003b	99		 cdq
  0003c	2b d9		 sub	 ebx, ecx
  0003e	f7 fb		 idiv	 ebx
  00040	66 89 56 04	 mov	 WORD PTR [esi+4], dx

; 78   : 		m_EncryptSeed  = (char)( rand()+pid+tick )%256;

  00044	ff d7		 call	 edi
  00046	02 45 f8	 add	 al, BYTE PTR _pid$[ebp]
  00049	02 45 fc	 add	 al, BYTE PTR _tick$[ebp]
  0004c	0f be c0	 movsx	 eax, al
  0004f	25 ff 00 00 80	 and	 eax, -2147483393	; 800000ffH
  00054	79 07		 jns	 SHORT $LN8@Init
  00056	48		 dec	 eax
  00057	0d 00 ff ff ff	 or	 eax, -256		; ffffff00H
  0005c	40		 inc	 eax
$LN8@Init:
  0005d	88 46 08	 mov	 BYTE PTR [esi+8], al

; 79   : 
; 80   : 		for (int i = 0; i < MAX_MEM_POOL ; i++)

  00060	33 db		 xor	 ebx, ebx
$LL3@Init:

; 81   : 			m_MemPool[i] = (char)( rand()+pid+tick )%256; // 더미

  00062	ff d7		 call	 edi
  00064	02 45 f8	 add	 al, BYTE PTR _pid$[ebp]
  00067	02 45 fc	 add	 al, BYTE PTR _tick$[ebp]
  0006a	0f be c0	 movsx	 eax, al
  0006d	25 ff 00 00 80	 and	 eax, -2147483393	; 800000ffH
  00072	79 07		 jns	 SHORT $LN9@Init
  00074	48		 dec	 eax
  00075	0d 00 ff ff ff	 or	 eax, -256		; ffffff00H
  0007a	40		 inc	 eax
$LN9@Init:
  0007b	88 44 1e 1c	 mov	 BYTE PTR [esi+ebx+28], al
  0007f	43		 inc	 ebx
  00080	83 fb 0c	 cmp	 ebx, 12			; 0000000cH
  00083	7c dd		 jl	 SHORT $LL3@Init

; 82   : 
; 83   : 		//UJ 130913, 최적화: szKey 사용안하도록 간략화
; 84   : 		//char szKey[ccddaabb::KEY_SIZE];//="";
; 85   : 		//for (int i = 0; i < ccddaabb::KEY_SIZE  ; i++)
; 86   : 		//	szKey[i] = (char)( rand()+pid+tick )%256; // 더미
; 87   : 		m_RC5.Setup( NULL, pid, tick );

  00085	ff 75 fc	 push	 DWORD PTR _tick$[ebp]
  00088	8d 4e 0c	 lea	 ecx, DWORD PTR [esi+12]
  0008b	ff 75 f8	 push	 DWORD PTR _pid$[ebp]
  0008e	6a 00		 push	 0
  00090	e8 00 00 00 00	 call	 ?Setup@ccddaabb@@QAEXPBDHH@Z ; ccddaabb::Setup
  00095	5f		 pop	 edi
  00096	5e		 pop	 esi
  00097	5b		 pop	 ebx

; 88   : 
; 89   : #ifdef _NOTUSE
; 90   : 		m_value        = 0;
; 91   : 		EncryptValueToPool((char*)&m_value);
; 92   : 		Debug();
; 93   : #endif
; 94   : 	}

  00098	c9		 leave
  00099	c3		 ret	 0
?Init@?$CEncrypt@M@@AAEXXZ ENDP				; CEncrypt<float>::Init
_TEXT	ENDS
PUBLIC	?EncryptValueToPool@?$CEncrypt@K@@AAEXPBD@Z	; CEncrypt<unsigned long>::EncryptValueToPool
; Function compile flags: /Ogsp
;	COMDAT ?EncryptValueToPool@?$CEncrypt@K@@AAEXPBD@Z
_TEXT	SEGMENT
_value$ = 8						; size = 4
?EncryptValueToPool@?$CEncrypt@K@@AAEXPBD@Z PROC	; CEncrypt<unsigned long>::EncryptValueToPool, COMDAT
; _this$ = ecx

; 67   : 	{

  00000	55		 push	 ebp
  00001	8b ec		 mov	 ebp, esp

; 68   : 		m_RC5.EncryptByte( value, m_MemPool, max(m_ValueSize, DEFAULT_ENCRYPT) );

  00003	0f b7 41 06	 movzx	 eax, WORD PTR [ecx+6]
  00007	83 f8 04	 cmp	 eax, 4
  0000a	77 03		 ja	 SHORT $LN4@EncryptVal@2
  0000c	6a 04		 push	 4
  0000e	58		 pop	 eax
$LN4@EncryptVal@2:
  0000f	50		 push	 eax
  00010	8d 41 1c	 lea	 eax, DWORD PTR [ecx+28]
  00013	50		 push	 eax
  00014	ff 75 08	 push	 DWORD PTR _value$[ebp]
  00017	83 c1 0c	 add	 ecx, 12			; 0000000cH
  0001a	e8 00 00 00 00	 call	 ?EncryptByte@ccddaabb@@QAEXPBDPADH@Z ; ccddaabb::EncryptByte

; 69   : 		
; 70   : 	}

  0001f	5d		 pop	 ebp
  00020	c2 04 00	 ret	 4
?EncryptValueToPool@?$CEncrypt@K@@AAEXPBD@Z ENDP	; CEncrypt<unsigned long>::EncryptValueToPool
_TEXT	ENDS
PUBLIC	?Init@?$CEncrypt@K@@AAEXXZ			; CEncrypt<unsigned long>::Init
; Function compile flags: /Ogsp
;	COMDAT ?Init@?$CEncrypt@K@@AAEXXZ
_TEXT	SEGMENT
_pid$ = -8						; size = 4
_tick$ = -4						; size = 4
?Init@?$CEncrypt@K@@AAEXXZ PROC				; CEncrypt<unsigned long>::Init, COMDAT
; _this$ = ecx

; 73   : 	{

  00000	55		 push	 ebp
  00001	8b ec		 mov	 ebp, esp
  00003	51		 push	 ecx
  00004	51		 push	 ecx
  00005	53		 push	 ebx
  00006	56		 push	 esi
  00007	57		 push	 edi
  00008	8b f1		 mov	 esi, ecx

; 74   : 		DWORD pid = GetCurrentProcessId();

  0000a	ff 15 00 00 00
	00		 call	 DWORD PTR __imp__GetCurrentProcessId@0
  00010	89 45 f8	 mov	 DWORD PTR _pid$[ebp], eax

; 75   : 		DWORD tick = timeGetTime();

  00013	ff 15 00 00 00
	00		 call	 DWORD PTR __imp__timeGetTime@0

; 76   : 		m_ValueSize    = sizeof(type);
; 77   : 		m_MemPoolPos   = (unsigned short)( rand()+pid+tick )%(MAX_MEM_POOL-m_ValueSize);

  00019	8b 3d 00 00 00
	00		 mov	 edi, DWORD PTR __imp__rand
  0001f	89 45 fc	 mov	 DWORD PTR _tick$[ebp], eax
  00022	6a 04		 push	 4
  00024	58		 pop	 eax
  00025	66 89 46 06	 mov	 WORD PTR [esi+6], ax
  00029	ff d7		 call	 edi
  0002b	03 45 f8	 add	 eax, DWORD PTR _pid$[ebp]
  0002e	0f b7 4e 06	 movzx	 ecx, WORD PTR [esi+6]
  00032	03 45 fc	 add	 eax, DWORD PTR _tick$[ebp]
  00035	6a 0c		 push	 12			; 0000000cH
  00037	0f b7 c0	 movzx	 eax, ax
  0003a	5b		 pop	 ebx
  0003b	99		 cdq
  0003c	2b d9		 sub	 ebx, ecx
  0003e	f7 fb		 idiv	 ebx
  00040	66 89 56 04	 mov	 WORD PTR [esi+4], dx

; 78   : 		m_EncryptSeed  = (char)( rand()+pid+tick )%256;

  00044	ff d7		 call	 edi
  00046	02 45 f8	 add	 al, BYTE PTR _pid$[ebp]
  00049	02 45 fc	 add	 al, BYTE PTR _tick$[ebp]
  0004c	0f be c0	 movsx	 eax, al
  0004f	25 ff 00 00 80	 and	 eax, -2147483393	; 800000ffH
  00054	79 07		 jns	 SHORT $LN8@Init@2
  00056	48		 dec	 eax
  00057	0d 00 ff ff ff	 or	 eax, -256		; ffffff00H
  0005c	40		 inc	 eax
$LN8@Init@2:
  0005d	88 46 08	 mov	 BYTE PTR [esi+8], al

; 79   : 
; 80   : 		for (int i = 0; i < MAX_MEM_POOL ; i++)

  00060	33 db		 xor	 ebx, ebx
$LL3@Init@2:

; 81   : 			m_MemPool[i] = (char)( rand()+pid+tick )%256; // 더미

  00062	ff d7		 call	 edi
  00064	02 45 f8	 add	 al, BYTE PTR _pid$[ebp]
  00067	02 45 fc	 add	 al, BYTE PTR _tick$[ebp]
  0006a	0f be c0	 movsx	 eax, al
  0006d	25 ff 00 00 80	 and	 eax, -2147483393	; 800000ffH
  00072	79 07		 jns	 SHORT $LN9@Init@2
  00074	48		 dec	 eax
  00075	0d 00 ff ff ff	 or	 eax, -256		; ffffff00H
  0007a	40		 inc	 eax
$LN9@Init@2:
  0007b	88 44 1e 1c	 mov	 BYTE PTR [esi+ebx+28], al
  0007f	43		 inc	 ebx
  00080	83 fb 0c	 cmp	 ebx, 12			; 0000000cH
  00083	7c dd		 jl	 SHORT $LL3@Init@2

; 82   : 
; 83   : 		//UJ 130913, 최적화: szKey 사용안하도록 간략화
; 84   : 		//char szKey[ccddaabb::KEY_SIZE];//="";
; 85   : 		//for (int i = 0; i < ccddaabb::KEY_SIZE  ; i++)
; 86   : 		//	szKey[i] = (char)( rand()+pid+tick )%256; // 더미
; 87   : 		m_RC5.Setup( NULL, pid, tick );

  00085	ff 75 fc	 push	 DWORD PTR _tick$[ebp]
  00088	8d 4e 0c	 lea	 ecx, DWORD PTR [esi+12]
  0008b	ff 75 f8	 push	 DWORD PTR _pid$[ebp]
  0008e	6a 00		 push	 0
  00090	e8 00 00 00 00	 call	 ?Setup@ccddaabb@@QAEXPBDHH@Z ; ccddaabb::Setup
  00095	5f		 pop	 edi
  00096	5e		 pop	 esi
  00097	5b		 pop	 ebx

; 88   : 
; 89   : #ifdef _NOTUSE
; 90   : 		m_value        = 0;
; 91   : 		EncryptValueToPool((char*)&m_value);
; 92   : 		Debug();
; 93   : #endif
; 94   : 	}

  00098	c9		 leave
  00099	c3		 ret	 0
?Init@?$CEncrypt@K@@AAEXXZ ENDP				; CEncrypt<unsigned long>::Init
_TEXT	ENDS
PUBLIC	??0?$_Vector_const_iterator@V?$_Vector_val@VioHashString@@V?$allocator@VioHashString@@@std@@@std@@@std@@QAE@PAVioHashString@@PBU_Container_base0@1@@Z ; std::_Vector_const_iterator<std::_Vector_val<ioHashString,std::allocator<ioHashString> > >::_Vector_const_iterator<std::_Vector_val<ioHashString,std::allocator<ioHashString> > >
; Function compile flags: /Ogsp
; File c:\program files (x86)\microsoft visual studio 10.0\vc\include\vector
;	COMDAT ??0?$_Vector_const_iterator@V?$_Vector_val@VioHashString@@V?$allocator@VioHashString@@@std@@@std@@@std@@QAE@PAVioHashString@@PBU_Container_base0@1@@Z
_TEXT	SEGMENT
__Parg$ = 8						; size = 4
__Pvector$ = 12						; size = 4
??0?$_Vector_const_iterator@V?$_Vector_val@VioHashString@@V?$allocator@VioHashString@@@std@@@std@@@std@@QAE@PAVioHashString@@PBU_Container_base0@1@@Z PROC ; std::_Vector_const_iterator<std::_Vector_val<ioHashString,std::allocator<ioHashString> > >::_Vector_const_iterator<std::_Vector_val<ioHashString,std::allocator<ioHashString> > >, COMDAT
; _this$ = ecx

; 45   : 		{	// construct with pointer _Parg

  00000	55		 push	 ebp
  00001	8b ec		 mov	 ebp, esp
  00003	8b c1		 mov	 eax, ecx
  00005	8b 4d 08	 mov	 ecx, DWORD PTR __Parg$[ebp]
  00008	89 08		 mov	 DWORD PTR [eax], ecx

; 46   : 		this->_Adopt(_Pvector);
; 47   : 		}

  0000a	5d		 pop	 ebp
  0000b	c2 08 00	 ret	 8
??0?$_Vector_const_iterator@V?$_Vector_val@VioHashString@@V?$allocator@VioHashString@@@std@@@std@@@std@@QAE@PAVioHashString@@PBU_Container_base0@1@@Z ENDP ; std::_Vector_const_iterator<std::_Vector_val<ioHashString,std::allocator<ioHashString> > >::_Vector_const_iterator<std::_Vector_val<ioHashString,std::allocator<ioHashString> > >
_TEXT	ENDS
PUBLIC	??0?$_Vector_iterator@V?$_Vector_val@VioHashString@@V?$allocator@VioHashString@@@std@@@std@@@std@@QAE@PAVioHashString@@PBU_Container_base0@1@@Z ; std::_Vector_iterator<std::_Vector_val<ioHashString,std::allocator<ioHashString> > >::_Vector_iterator<std::_Vector_val<ioHashString,std::allocator<ioHashString> > >
; Function compile flags: /Ogsp
;	COMDAT ??0?$_Vector_iterator@V?$_Vector_val@VioHashString@@V?$allocator@VioHashString@@@std@@@std@@@std@@QAE@PAVioHashString@@PBU_Container_base0@1@@Z
_TEXT	SEGMENT
__Parg$ = 8						; size = 4
__Pvector$ = 12						; size = 4
??0?$_Vector_iterator@V?$_Vector_val@VioHashString@@V?$allocator@VioHashString@@@std@@@std@@@std@@QAE@PAVioHashString@@PBU_Container_base0@1@@Z PROC ; std::_Vector_iterator<std::_Vector_val<ioHashString,std::allocator<ioHashString> > >::_Vector_iterator<std::_Vector_val<ioHashString,std::allocator<ioHashString> > >, COMDAT
; _this$ = ecx

; 304  : 		{	// construct with pointer _Parg

  00000	55		 push	 ebp
  00001	8b ec		 mov	 ebp, esp
  00003	8b c1		 mov	 eax, ecx
  00005	8b 4d 08	 mov	 ecx, DWORD PTR __Parg$[ebp]
  00008	89 08		 mov	 DWORD PTR [eax], ecx

; 305  : 		}

  0000a	5d		 pop	 ebp
  0000b	c2 08 00	 ret	 8
??0?$_Vector_iterator@V?$_Vector_val@VioHashString@@V?$allocator@VioHashString@@@std@@@std@@@std@@QAE@PAVioHashString@@PBU_Container_base0@1@@Z ENDP ; std::_Vector_iterator<std::_Vector_val<ioHashString,std::allocator<ioHashString> > >::_Vector_iterator<std::_Vector_val<ioHashString,std::allocator<ioHashString> > >
_TEXT	ENDS
PUBLIC	?_Compat@?$_Vector_const_iterator@V?$_Vector_val@VioHashString@@V?$allocator@VioHashString@@@std@@@std@@@std@@QBEXABV12@@Z ; std::_Vector_const_iterator<std::_Vector_val<ioHashString,std::allocator<ioHashString> > >::_Compat
; Function compile flags: /Ogsp
;	COMDAT ?_Compat@?$_Vector_const_iterator@V?$_Vector_val@VioHashString@@V?$allocator@VioHashString@@@std@@@std@@@std@@QBEXABV12@@Z
_TEXT	SEGMENT
___formal$ = 8						; size = 4
?_Compat@?$_Vector_const_iterator@V?$_Vector_val@VioHashString@@V?$allocator@VioHashString@@@std@@@std@@@std@@QBEXABV12@@Z PROC ; std::_Vector_const_iterator<std::_Vector_val<ioHashString,std::allocator<ioHashString> > >::_Compat, COMDAT
; _this$ = ecx

; 253  : 		}

  00000	c2 04 00	 ret	 4
?_Compat@?$_Vector_const_iterator@V?$_Vector_val@VioHashString@@V?$allocator@VioHashString@@@std@@@std@@@std@@QBEXABV12@@Z ENDP ; std::_Vector_const_iterator<std::_Vector_val<ioHashString,std::allocator<ioHashString> > >::_Compat
_TEXT	ENDS
PUBLIC	??$_Ptr_cat@VioHashString@@V1@@std@@YA?AU_Nonscalar_ptr_iterator_tag@0@PAVioHashString@@0@Z ; std::_Ptr_cat<ioHashString,ioHashString>
; Function compile flags: /Ogsp
; File c:\program files (x86)\microsoft visual studio 10.0\vc\include\xutility
;	COMDAT ??$_Ptr_cat@VioHashString@@V1@@std@@YA?AU_Nonscalar_ptr_iterator_tag@0@PAVioHashString@@0@Z
_TEXT	SEGMENT
__Cat$ = -1						; size = 1
___formal$ = 8						; size = 4
___formal$ = 12						; size = 4
??$_Ptr_cat@VioHashString@@V1@@std@@YA?AU_Nonscalar_ptr_iterator_tag@0@PAVioHashString@@0@Z PROC ; std::_Ptr_cat<ioHashString,ioHashString>, COMDAT

; 516  : 	{	// return pointer category from pointers

  00000	55		 push	 ebp
  00001	8b ec		 mov	 ebp, esp
  00003	51		 push	 ecx

; 517  : 	typename _Ptr_cat_helper<_Elem1, _Elem2>::_Type _Cat;
; 518  : 	return (_Cat);

  00004	8a 45 ff	 mov	 al, BYTE PTR __Cat$[ebp]

; 519  : 	}

  00007	c9		 leave
  00008	c3		 ret	 0
??$_Ptr_cat@VioHashString@@V1@@std@@YA?AU_Nonscalar_ptr_iterator_tag@0@PAVioHashString@@0@Z ENDP ; std::_Ptr_cat<ioHashString,ioHashString>
_TEXT	ENDS
PUBLIC	??$move@AAVioHashString@@@std@@YA$$QAVioHashString@@AAV1@@Z ; std::move<ioHashString &>
; Function compile flags: /Ogsp
; File c:\program files (x86)\microsoft visual studio 10.0\vc\include\utility
;	COMDAT ??$move@AAVioHashString@@@std@@YA$$QAVioHashString@@AAV1@@Z
_TEXT	SEGMENT
__Arg$ = 8						; size = 4
??$move@AAVioHashString@@@std@@YA$$QAVioHashString@@AAV1@@Z PROC ; std::move<ioHashString &>, COMDAT

; 86   : 	{	// forward _Arg as movable

  00000	55		 push	 ebp
  00001	8b ec		 mov	 ebp, esp

; 87   : 	return ((typename tr1::_Remove_reference<_Ty>::_Type&&)_Arg);

  00003	8b 45 08	 mov	 eax, DWORD PTR __Arg$[ebp]

; 88   : 	}

  00006	5d		 pop	 ebp
  00007	c3		 ret	 0
??$move@AAVioHashString@@@std@@YA$$QAVioHashString@@AAV1@@Z ENDP ; std::move<ioHashString &>
_TEXT	ENDS
PUBLIC	??_GioHashString@@QAEPAXI@Z			; ioHashString::`scalar deleting destructor'
EXTRN	__imp_??1ioHashString@@QAE@XZ:PROC
; Function compile flags: /Ogsp
;	COMDAT ??_GioHashString@@QAEPAXI@Z
_TEXT	SEGMENT
___flags$ = 8						; size = 4
??_GioHashString@@QAEPAXI@Z PROC			; ioHashString::`scalar deleting destructor', COMDAT
; _this$ = ecx
  00000	55		 push	 ebp
  00001	8b ec		 mov	 ebp, esp
  00003	56		 push	 esi
  00004	8b f1		 mov	 esi, ecx
  00006	ff 15 00 00 00
	00		 call	 DWORD PTR __imp_??1ioHashString@@QAE@XZ
  0000c	f6 45 08 01	 test	 BYTE PTR ___flags$[ebp], 1
  00010	74 07		 je	 SHORT $LN1@scalar@3
  00012	56		 push	 esi
  00013	e8 00 00 00 00	 call	 ??3@YAXPAX@Z		; operator delete
  00018	59		 pop	 ecx
$LN1@scalar@3:
  00019	8b c6		 mov	 eax, esi
  0001b	5e		 pop	 esi
  0001c	5d		 pop	 ebp
  0001d	c2 04 00	 ret	 4
??_GioHashString@@QAEPAXI@Z ENDP			; ioHashString::`scalar deleting destructor'
_TEXT	ENDS
PUBLIC	??_7ioMoveAttack3Dummy@@6BioWorldEventReceiver@@@ ; ioMoveAttack3Dummy::`vftable'
PUBLIC	??_7ioMoveAttack3Dummy@@6BioPlayEntity@@@	; ioMoveAttack3Dummy::`vftable'
PUBLIC	??1ioMoveAttack3Dummy@@UAE@XZ			; ioMoveAttack3Dummy::~ioMoveAttack3Dummy
PUBLIC	??_R4ioMoveAttack3Dummy@@6BioPlayEntity@@@	; ioMoveAttack3Dummy::`RTTI Complete Object Locator'
PUBLIC	??_R0?AVioMoveAttack3Dummy@@@8			; ioMoveAttack3Dummy `RTTI Type Descriptor'
PUBLIC	??_R3ioMoveAttack3Dummy@@8			; ioMoveAttack3Dummy::`RTTI Class Hierarchy Descriptor'
PUBLIC	??_R2ioMoveAttack3Dummy@@8			; ioMoveAttack3Dummy::`RTTI Base Class Array'
PUBLIC	??_R1A@?0A@EA@ioMoveAttack3Dummy@@8		; ioMoveAttack3Dummy::`RTTI Base Class Descriptor at (0,-1,0,64)'
PUBLIC	??_R1A@?0A@EA@ioDummyChar@@8			; ioDummyChar::`RTTI Base Class Descriptor at (0,-1,0,64)'
PUBLIC	??_R0?AVioDummyChar@@@8				; ioDummyChar `RTTI Type Descriptor'
PUBLIC	??_R3ioDummyChar@@8				; ioDummyChar::`RTTI Class Hierarchy Descriptor'
PUBLIC	??_R2ioDummyChar@@8				; ioDummyChar::`RTTI Base Class Array'
PUBLIC	??_R1A@?0A@EA@ioPlayEntity@@8			; ioPlayEntity::`RTTI Base Class Descriptor at (0,-1,0,64)'
PUBLIC	??_R0?AVioPlayEntity@@@8			; ioPlayEntity `RTTI Type Descriptor'
PUBLIC	??_R3ioPlayEntity@@8				; ioPlayEntity::`RTTI Class Hierarchy Descriptor'
PUBLIC	??_R2ioPlayEntity@@8				; ioPlayEntity::`RTTI Base Class Array'
PUBLIC	??_R1A@?0A@EA@ioGameEntity@@8			; ioGameEntity::`RTTI Base Class Descriptor at (0,-1,0,64)'
PUBLIC	??_R0?AVioGameEntity@@@8			; ioGameEntity `RTTI Type Descriptor'
PUBLIC	??_R3ioGameEntity@@8				; ioGameEntity::`RTTI Class Hierarchy Descriptor'
PUBLIC	??_R2ioGameEntity@@8				; ioGameEntity::`RTTI Base Class Array'
PUBLIC	??_R1A@?0A@EA@ioEntityEvent@@8			; ioEntityEvent::`RTTI Base Class Descriptor at (0,-1,0,64)'
PUBLIC	??_R0?AVioEntityEvent@@@8			; ioEntityEvent `RTTI Type Descriptor'
PUBLIC	??_R3ioEntityEvent@@8				; ioEntityEvent::`RTTI Class Hierarchy Descriptor'
PUBLIC	??_R2ioEntityEvent@@8				; ioEntityEvent::`RTTI Base Class Array'
PUBLIC	??_R1BMI@?0A@EA@ioWorldEventReceiver@@8		; ioWorldEventReceiver::`RTTI Base Class Descriptor at (456,-1,0,64)'
PUBLIC	??_R0?AVioWorldEventReceiver@@@8		; ioWorldEventReceiver `RTTI Type Descriptor'
PUBLIC	??_R3ioWorldEventReceiver@@8			; ioWorldEventReceiver::`RTTI Class Hierarchy Descriptor'
PUBLIC	??_R2ioWorldEventReceiver@@8			; ioWorldEventReceiver::`RTTI Base Class Array'
PUBLIC	??_R1A@?0A@EA@ioWorldEventReceiver@@8		; ioWorldEventReceiver::`RTTI Base Class Descriptor at (0,-1,0,64)'
PUBLIC	?LoadProperty@ioMoveAttack3Dummy@@UAEXAAVioINILoader@@@Z ; ioMoveAttack3Dummy::LoadProperty
PUBLIC	?SetTeam@ioPlayEntity@@UAEXW4TeamType@@@Z	; ioPlayEntity::SetTeam
PUBLIC	?ProcessMoveState@ioMoveAttack3Dummy@@MAEXM@Z	; ioMoveAttack3Dummy::ProcessMoveState
PUBLIC	?IsDummyCharMidSync@ioDummyChar@@UAE_NXZ	; ioDummyChar::IsDummyCharMidSync
PUBLIC	??_R4ioMoveAttack3Dummy@@6BioWorldEventReceiver@@@ ; ioMoveAttack3Dummy::`RTTI Complete Object Locator'
PUBLIC	??_EioMoveAttack3Dummy@@WBMI@AEPAXI@Z		; [thunk]:ioMoveAttack3Dummy::`vector deleting destructor'
EXTRN	??1ioDummyChar@@UAE@XZ:PROC			; ioDummyChar::~ioDummyChar
EXTRN	___CxxFrameHandler3:PROC
EXTRN	@__security_check_cookie@4:PROC
EXTRN	__EH_epilog3:PROC
EXTRN	__EH_prolog3:PROC
EXTRN	?AddEntityEvent@ioDummyChar@@UAEXPAVioEntity@@@Z:PROC ; ioDummyChar::AddEntityEvent
EXTRN	??_EioMoveAttack3Dummy@@UAEPAXI@Z:PROC		; ioMoveAttack3Dummy::`vector deleting destructor'
EXTRN	?Update@ioDummyChar@@UAEXMKK@Z:PROC		; ioDummyChar::Update
EXTRN	?UpdateAfter@ioDummyChar@@UAEXM@Z:PROC		; ioDummyChar::UpdateAfter
EXTRN	?GetTypeID@ioPlayEntity@@UBEHXZ:PROC		; ioPlayEntity::GetTypeID
EXTRN	?IsNeedCheckMapCollision@ioDummyChar@@UBE_NXZ:PROC ; ioDummyChar::IsNeedCheckMapCollision
EXTRN	?IsMountAvailable@ioDummyChar@@UBE_NXZ:PROC	; ioDummyChar::IsMountAvailable
EXTRN	?IsMountingAvailable@ioDummyChar@@UBE_NXZ:PROC	; ioDummyChar::IsMountingAvailable
EXTRN	?IsNowMountEnable@ioDummyChar@@UBE_NXZ:PROC	; ioDummyChar::IsNowMountEnable
EXTRN	?IsAllWeaponDefence@ioGameEntity@@UBE_NXZ:PROC	; ioGameEntity::IsAllWeaponDefence
EXTRN	?HasEntity@ioGameEntity@@UAE_NABVioHashString@@@Z:PROC ; ioGameEntity::HasEntity
EXTRN	?AddEntity@ioGameEntity@@UAEPAVioEntity@@ABVioHashString@@@Z:PROC ; ioGameEntity::AddEntity
EXTRN	?DestroyEntity@ioGameEntity@@UAE_NABVioHashString@@@Z:PROC ; ioGameEntity::DestroyEntity
EXTRN	?GetEntity@ioGameEntity@@UAEPAVioEntity@@ABVioHashString@@@Z:PROC ; ioGameEntity::GetEntity
EXTRN	?UpdateBound@ioGameEntity@@MBEXXZ:PROC		; ioGameEntity::UpdateBound
EXTRN	?UpdateBottomHeight@ioDummyChar@@MBEXXZ:PROC	; ioDummyChar::UpdateBottomHeight
EXTRN	?NeedUpdateBottomHeight@ioDummyChar@@UAEXXZ:PROC ; ioDummyChar::NeedUpdateBottomHeight
EXTRN	?SetWorldPosition@ioGameEntity@@UAEXABUD3DXVECTOR3@@@Z:PROC ; ioGameEntity::SetWorldPosition
EXTRN	?SetWorldOrientation@ioGameEntity@@UAEXABUD3DXQUATERNION@@@Z:PROC ; ioGameEntity::SetWorldOrientation
EXTRN	?SetWorldScale@ioGameEntity@@UAEXABUD3DXVECTOR3@@@Z:PROC ; ioGameEntity::SetWorldScale
EXTRN	?Translate@ioDummyChar@@UAEXABUD3DXVECTOR3@@@Z:PROC ; ioDummyChar::Translate
EXTRN	?TranslateByConveyer@ioDummyChar@@UAEXABUD3DXVECTOR3@@@Z:PROC ; ioDummyChar::TranslateByConveyer
EXTRN	?TranslateByWorldEntity@ioDummyChar@@UAEXABUD3DXVECTOR3@@@Z:PROC ; ioDummyChar::TranslateByWorldEntity
EXTRN	?MapCollisionPushingTranslate@ioDummyChar@@UAEXABUD3DXVECTOR3@@@Z:PROC ; ioDummyChar::MapCollisionPushingTranslate
EXTRN	?DontMoveCollisionPushingTranslate@ioGameEntity@@UAEXPAV1@ABUD3DXVECTOR3@@@Z:PROC ; ioGameEntity::DontMoveCollisionPushingTranslate
EXTRN	?Rotate@ioGameEntity@@UAEXABUD3DXVECTOR3@@MW4TransformSpace@ioNode@@@Z:PROC ; ioGameEntity::Rotate
EXTRN	?Scale@ioGameEntity@@UAEXMMM@Z:PROC		; ioGameEntity::Scale
EXTRN	?Scale@ioGameEntity@@UAEXABUD3DXVECTOR3@@@Z:PROC ; ioGameEntity::Scale
EXTRN	?GetWorldPosition@ioGameEntity@@UBEABUD3DXVECTOR3@@XZ:PROC ; ioGameEntity::GetWorldPosition
EXTRN	?GetWorldOrientation@ioGameEntity@@UBEABUD3DXQUATERNION@@XZ:PROC ; ioGameEntity::GetWorldOrientation
EXTRN	?GetWorldScale@ioGameEntity@@UBEABUD3DXVECTOR3@@XZ:PROC ; ioGameEntity::GetWorldScale
EXTRN	?ApplyWeapon@ioDummyChar@@UAE?AW4ApplyWeaponExp@@PAVioWeapon@@@Z:PROC ; ioDummyChar::ApplyWeapon
EXTRN	?IsCollisionAvailableWeapon@ioDummyChar@@UAE_NPAVioWeapon@@@Z:PROC ; ioDummyChar::IsCollisionAvailableWeapon
EXTRN	?IsCollisionAvailableRange@ioPlayEntity@@UAE_NPAVioWeapon@@@Z:PROC ; ioPlayEntity::IsCollisionAvailableRange
EXTRN	?IsEntityCollisionSkipState@ioDummyChar@@UBE_NPAVioGameEntity@@@Z:PROC ; ioDummyChar::IsEntityCollisionSkipState
EXTRN	?IsCharCollisionSkipState@ioDummyChar@@UBE_NW4TeamType@@H@Z:PROC ; ioDummyChar::IsCharCollisionSkipState
EXTRN	?IsWoundedCollision@ioPlayEntity@@UBE_NABVioOrientBox@@PAUD3DXVECTOR3@@@Z:PROC ; ioPlayEntity::IsWoundedCollision
EXTRN	?GetAttackCollisionBox@ioDummyChar@@UAE?AVioOrientBox@@W4AniCollisionType@@_N@Z:PROC ; ioDummyChar::GetAttackCollisionBox
EXTRN	?CheckSphereDistance@ioPlayEntity@@UBE_NABUD3DXVECTOR3@@MAAM@Z:PROC ; ioPlayEntity::CheckSphereDistance
EXTRN	?CheckSpherePoint@ioPlayEntity@@UBE_NABUD3DXVECTOR3@@MAAU2@@Z:PROC ; ioPlayEntity::CheckSpherePoint
EXTRN	?CheckCylinderPoint@ioPlayEntity@@UBE_NABVioCylinder@@ABUD3DXVECTOR3@@AAU3@@Z:PROC ; ioPlayEntity::CheckCylinderPoint
EXTRN	?GetSubType@ioDummyChar@@UBE?AW4PlaySubType@ioPlayEntity@@XZ:PROC ; ioDummyChar::GetSubType
EXTRN	?GetArmorType@ioDummyChar@@UBE?AW4ArmorType@@XZ:PROC ; ioDummyChar::GetArmorType
EXTRN	?DontMoveEntityLevel@ioDummyChar@@UBEHXZ:PROC	; ioDummyChar::DontMoveEntityLevel
EXTRN	?NotifyDontMoveCollisionPushingSkip@ioPlayEntity@@UAEXPAVioGameEntity@@@Z:PROC ; ioPlayEntity::NotifyDontMoveCollisionPushingSkip
EXTRN	?GetWorldEventReceiver@ioDummyChar@@UAEPAVioWorldEventReceiver@@XZ:PROC ; ioDummyChar::GetWorldEventReceiver
EXTRN	?Revival@ioPlayEntity@@UAEXXZ:PROC		; ioPlayEntity::Revival
EXTRN	?UpdateGauge@ioDummyChar@@UAEXXZ:PROC		; ioDummyChar::UpdateGauge
EXTRN	?RenderGauge@ioDummyChar@@UAEXXZ:PROC		; ioDummyChar::RenderGauge
EXTRN	?FillMaxHP@ioPlayEntity@@UAEXXZ:PROC		; ioPlayEntity::FillMaxHP
EXTRN	?ProcessRecovery@ioPlayEntity@@MAEXXZ:PROC	; ioPlayEntity::ProcessRecovery
EXTRN	?AddHeadDamageInfo@ioPlayEntity@@UAEXH_N@Z:PROC	; ioPlayEntity::AddHeadDamageInfo
EXTRN	?RenderHeadInfoList@ioPlayEntity@@UAEXHH@Z:PROC	; ioPlayEntity::RenderHeadInfoList
EXTRN	?UpdateHeadInfoList@ioPlayEntity@@MAEXK@Z:PROC	; ioPlayEntity::UpdateHeadInfoList
EXTRN	?InitDummyCharInfo@ioDummyChar@@UAEXHKABUD3DXVECTOR3@@0M_N@Z:PROC ; ioDummyChar::InitDummyCharInfo
EXTRN	?TestMapCollision@ioDummyChar@@UAE_NPAVioOpcodeShape@@PAVioPlayStage@@PBUD3DXMATRIX@@@Z:PROC ; ioDummyChar::TestMapCollision
EXTRN	?CheckEntityCollision@ioDummyChar@@UAEXPAVioPlayEntity@@@Z:PROC ; ioDummyChar::CheckEntityCollision
EXTRN	?GetDummyGrassType@ioDummyChar@@UAEHXZ:PROC	; ioDummyChar::GetDummyGrassType
EXTRN	?IsDummyVsDummyCollisionSkipState@ioDummyChar@@UAE_NPBV1@@Z:PROC ; ioDummyChar::IsDummyVsDummyCollisionSkipState
EXTRN	?ProcessPos@ioDummyChar@@MAEXM@Z:PROC		; ioDummyChar::ProcessPos
EXTRN	?ProcessDelayState@ioDummyChar@@MAEXM@Z:PROC	; ioDummyChar::ProcessDelayState
EXTRN	?ProcessDashState@ioDummyChar@@MAEXM@Z:PROC	; ioDummyChar::ProcessDashState
EXTRN	?ProcessAttackState@ioDummyChar@@MAEXMK@Z:PROC	; ioDummyChar::ProcessAttackState
EXTRN	?ApplyDummyCharSync@ioDummyChar@@UAEXPAVioPlayStage@@AAVSP2Packet@@@Z:PROC ; ioDummyChar::ApplyDummyCharSync
EXTRN	?SetDelayState@ioDummyChar@@UAEX_N@Z:PROC	; ioDummyChar::SetDelayState
EXTRN	?SetMoveState@ioDummyChar@@UAEXXZ:PROC		; ioDummyChar::SetMoveState
EXTRN	?SetDieState@ioDummyChar@@UAEX_N0@Z:PROC	; ioDummyChar::SetDieState
EXTRN	?SetDashState@ioDummyChar@@UAEXXZ:PROC		; ioDummyChar::SetDashState
EXTRN	?SetAttackState@ioDummyChar@@UAEXXZ:PROC	; ioDummyChar::SetAttackState
EXTRN	?DropZoneCheck@ioDummyChar@@MAEXXZ:PROC		; ioDummyChar::DropZoneCheck
EXTRN	?SendAttackInfoToSkill@ioDummyChar@@MAEXXZ:PROC	; ioDummyChar::SendAttackInfoToSkill
EXTRN	?CheckCollisionWeapon@ioDummyChar@@UAEXPAVioBaseChar@@@Z:PROC ; ioDummyChar::CheckCollisionWeapon
EXTRN	?TranslateMountEntity@ioDummyChar@@MAEXABUD3DXVECTOR3@@@Z:PROC ; ioDummyChar::TranslateMountEntity
EXTRN	?ClearMountEntity@ioDummyChar@@MAEXXZ:PROC	; ioDummyChar::ClearMountEntity
EXTRN	?UpdateMountedEntityList@ioDummyChar@@MAEXXZ:PROC ; ioDummyChar::UpdateMountedEntityList
EXTRN	?UpdateMountedWeaponList@ioDummyChar@@MAEXXZ:PROC ; ioDummyChar::UpdateMountedWeaponList
EXTRN	?SetWorldPositionMountEntity@ioDummyChar@@MAEXM@Z:PROC ; ioDummyChar::SetWorldPositionMountEntity
EXTRN	?DummyDieClearMountEntity@ioDummyChar@@MAEXXZ:PROC ; ioDummyChar::DummyDieClearMountEntity
EXTRN	?FillDummyCharMidSync@ioDummyChar@@UAEXPAVioBaseChar@@AAVSP2Packet@@@Z:PROC ; ioDummyChar::FillDummyCharMidSync
EXTRN	?ApplyDummyCharMidSync@ioDummyChar@@UAEXPAVioBaseChar@@AAVSP2Packet@@@Z:PROC ; ioDummyChar::ApplyDummyCharMidSync
EXTRN	?GetSkillMaxActiveCnt@ioDummyChar@@UAEHXZ:PROC	; ioDummyChar::GetSkillMaxActiveCnt
EXTRN	?GetSkillCurActiveCnt@ioDummyChar@@UAEHXZ:PROC	; ioDummyChar::GetSkillCurActiveCnt
EXTRN	?OnTelepotation@ioDummyChar@@UAEXABUD3DXVECTOR3@@@Z:PROC ; ioDummyChar::OnTelepotation
EXTRN	?OnFireZoneDamage@ioDummyChar@@UAEXMABVioHashString@@@Z:PROC ; ioDummyChar::OnFireZoneDamage
EXTRN	?OnPoisonZoneDamage@ioDummyChar@@UAEXXZ:PROC	; ioDummyChar::OnPoisonZoneDamage
;	COMDAT ??_R4ioMoveAttack3Dummy@@6BioWorldEventReceiver@@@
; File d:\lost saga for developer\youtube\tutorial\source\src\lsclient\encryptvalue.h
rdata$r	SEGMENT
??_R4ioMoveAttack3Dummy@@6BioWorldEventReceiver@@@ DD 00H ; ioMoveAttack3Dummy::`RTTI Complete Object Locator'
	DD	01c8H
	DD	00H
	DD	FLAT:??_R0?AVioMoveAttack3Dummy@@@8
	DD	FLAT:??_R3ioMoveAttack3Dummy@@8
rdata$r	ENDS
;	COMDAT ??_R1A@?0A@EA@ioWorldEventReceiver@@8
rdata$r	SEGMENT
??_R1A@?0A@EA@ioWorldEventReceiver@@8 DD FLAT:??_R0?AVioWorldEventReceiver@@@8 ; ioWorldEventReceiver::`RTTI Base Class Descriptor at (0,-1,0,64)'
	DD	00H
	DD	00H
	DD	0ffffffffH
	DD	00H
	DD	040H
	DD	FLAT:??_R3ioWorldEventReceiver@@8
rdata$r	ENDS
;	COMDAT ??_R2ioWorldEventReceiver@@8
rdata$r	SEGMENT
??_R2ioWorldEventReceiver@@8 DD FLAT:??_R1A@?0A@EA@ioWorldEventReceiver@@8 ; ioWorldEventReceiver::`RTTI Base Class Array'
rdata$r	ENDS
;	COMDAT ??_R3ioWorldEventReceiver@@8
rdata$r	SEGMENT
??_R3ioWorldEventReceiver@@8 DD 00H			; ioWorldEventReceiver::`RTTI Class Hierarchy Descriptor'
	DD	00H
	DD	01H
	DD	FLAT:??_R2ioWorldEventReceiver@@8
rdata$r	ENDS
;	COMDAT ??_R0?AVioWorldEventReceiver@@@8
_DATA	SEGMENT
??_R0?AVioWorldEventReceiver@@@8 DD FLAT:??_7type_info@@6B@ ; ioWorldEventReceiver `RTTI Type Descriptor'
	DD	00H
	DB	'.?AVioWorldEventReceiver@@', 00H
_DATA	ENDS
;	COMDAT ??_R1BMI@?0A@EA@ioWorldEventReceiver@@8
rdata$r	SEGMENT
??_R1BMI@?0A@EA@ioWorldEventReceiver@@8 DD FLAT:??_R0?AVioWorldEventReceiver@@@8 ; ioWorldEventReceiver::`RTTI Base Class Descriptor at (456,-1,0,64)'
	DD	00H
	DD	01c8H
	DD	0ffffffffH
	DD	00H
	DD	040H
	DD	FLAT:??_R3ioWorldEventReceiver@@8
rdata$r	ENDS
;	COMDAT ??_R2ioEntityEvent@@8
rdata$r	SEGMENT
??_R2ioEntityEvent@@8 DD FLAT:??_R1A@?0A@EA@ioEntityEvent@@8 ; ioEntityEvent::`RTTI Base Class Array'
rdata$r	ENDS
;	COMDAT ??_R3ioEntityEvent@@8
rdata$r	SEGMENT
??_R3ioEntityEvent@@8 DD 00H				; ioEntityEvent::`RTTI Class Hierarchy Descriptor'
	DD	00H
	DD	01H
	DD	FLAT:??_R2ioEntityEvent@@8
rdata$r	ENDS
;	COMDAT ??_R0?AVioEntityEvent@@@8
_DATA	SEGMENT
??_R0?AVioEntityEvent@@@8 DD FLAT:??_7type_info@@6B@	; ioEntityEvent `RTTI Type Descriptor'
	DD	00H
	DB	'.?AVioEntityEvent@@', 00H
_DATA	ENDS
;	COMDAT ??_R1A@?0A@EA@ioEntityEvent@@8
rdata$r	SEGMENT
??_R1A@?0A@EA@ioEntityEvent@@8 DD FLAT:??_R0?AVioEntityEvent@@@8 ; ioEntityEvent::`RTTI Base Class Descriptor at (0,-1,0,64)'
	DD	00H
	DD	00H
	DD	0ffffffffH
	DD	00H
	DD	040H
	DD	FLAT:??_R3ioEntityEvent@@8
rdata$r	ENDS
;	COMDAT ??_R2ioGameEntity@@8
rdata$r	SEGMENT
??_R2ioGameEntity@@8 DD FLAT:??_R1A@?0A@EA@ioGameEntity@@8 ; ioGameEntity::`RTTI Base Class Array'
	DD	FLAT:??_R1A@?0A@EA@ioEntityEvent@@8
rdata$r	ENDS
;	COMDAT ??_R3ioGameEntity@@8
rdata$r	SEGMENT
??_R3ioGameEntity@@8 DD 00H				; ioGameEntity::`RTTI Class Hierarchy Descriptor'
	DD	00H
	DD	02H
	DD	FLAT:??_R2ioGameEntity@@8
rdata$r	ENDS
;	COMDAT ??_R0?AVioGameEntity@@@8
_DATA	SEGMENT
??_R0?AVioGameEntity@@@8 DD FLAT:??_7type_info@@6B@	; ioGameEntity `RTTI Type Descriptor'
	DD	00H
	DB	'.?AVioGameEntity@@', 00H
_DATA	ENDS
;	COMDAT ??_R1A@?0A@EA@ioGameEntity@@8
rdata$r	SEGMENT
??_R1A@?0A@EA@ioGameEntity@@8 DD FLAT:??_R0?AVioGameEntity@@@8 ; ioGameEntity::`RTTI Base Class Descriptor at (0,-1,0,64)'
	DD	01H
	DD	00H
	DD	0ffffffffH
	DD	00H
	DD	040H
	DD	FLAT:??_R3ioGameEntity@@8
rdata$r	ENDS
;	COMDAT ??_R2ioPlayEntity@@8
rdata$r	SEGMENT
??_R2ioPlayEntity@@8 DD FLAT:??_R1A@?0A@EA@ioPlayEntity@@8 ; ioPlayEntity::`RTTI Base Class Array'
	DD	FLAT:??_R1A@?0A@EA@ioGameEntity@@8
	DD	FLAT:??_R1A@?0A@EA@ioEntityEvent@@8
rdata$r	ENDS
;	COMDAT ??_R3ioPlayEntity@@8
rdata$r	SEGMENT
??_R3ioPlayEntity@@8 DD 00H				; ioPlayEntity::`RTTI Class Hierarchy Descriptor'
	DD	00H
	DD	03H
	DD	FLAT:??_R2ioPlayEntity@@8
rdata$r	ENDS
;	COMDAT ??_R0?AVioPlayEntity@@@8
_DATA	SEGMENT
??_R0?AVioPlayEntity@@@8 DD FLAT:??_7type_info@@6B@	; ioPlayEntity `RTTI Type Descriptor'
	DD	00H
	DB	'.?AVioPlayEntity@@', 00H
_DATA	ENDS
;	COMDAT ??_R1A@?0A@EA@ioPlayEntity@@8
rdata$r	SEGMENT
??_R1A@?0A@EA@ioPlayEntity@@8 DD FLAT:??_R0?AVioPlayEntity@@@8 ; ioPlayEntity::`RTTI Base Class Descriptor at (0,-1,0,64)'
	DD	02H
	DD	00H
	DD	0ffffffffH
	DD	00H
	DD	040H
	DD	FLAT:??_R3ioPlayEntity@@8
rdata$r	ENDS
;	COMDAT ??_R2ioDummyChar@@8
rdata$r	SEGMENT
??_R2ioDummyChar@@8 DD FLAT:??_R1A@?0A@EA@ioDummyChar@@8 ; ioDummyChar::`RTTI Base Class Array'
	DD	FLAT:??_R1A@?0A@EA@ioPlayEntity@@8
	DD	FLAT:??_R1A@?0A@EA@ioGameEntity@@8
	DD	FLAT:??_R1A@?0A@EA@ioEntityEvent@@8
	DD	FLAT:??_R1BMI@?0A@EA@ioWorldEventReceiver@@8
rdata$r	ENDS
;	COMDAT ??_R3ioDummyChar@@8
rdata$r	SEGMENT
??_R3ioDummyChar@@8 DD 00H				; ioDummyChar::`RTTI Class Hierarchy Descriptor'
	DD	01H
	DD	05H
	DD	FLAT:??_R2ioDummyChar@@8
rdata$r	ENDS
;	COMDAT ??_R0?AVioDummyChar@@@8
_DATA	SEGMENT
??_R0?AVioDummyChar@@@8 DD FLAT:??_7type_info@@6B@	; ioDummyChar `RTTI Type Descriptor'
	DD	00H
	DB	'.?AVioDummyChar@@', 00H
_DATA	ENDS
;	COMDAT ??_R1A@?0A@EA@ioDummyChar@@8
rdata$r	SEGMENT
??_R1A@?0A@EA@ioDummyChar@@8 DD FLAT:??_R0?AVioDummyChar@@@8 ; ioDummyChar::`RTTI Base Class Descriptor at (0,-1,0,64)'
	DD	04H
	DD	00H
	DD	0ffffffffH
	DD	00H
	DD	040H
	DD	FLAT:??_R3ioDummyChar@@8
rdata$r	ENDS
;	COMDAT ??_R1A@?0A@EA@ioMoveAttack3Dummy@@8
rdata$r	SEGMENT
??_R1A@?0A@EA@ioMoveAttack3Dummy@@8 DD FLAT:??_R0?AVioMoveAttack3Dummy@@@8 ; ioMoveAttack3Dummy::`RTTI Base Class Descriptor at (0,-1,0,64)'
	DD	05H
	DD	00H
	DD	0ffffffffH
	DD	00H
	DD	040H
	DD	FLAT:??_R3ioMoveAttack3Dummy@@8
rdata$r	ENDS
;	COMDAT ??_R2ioMoveAttack3Dummy@@8
rdata$r	SEGMENT
??_R2ioMoveAttack3Dummy@@8 DD FLAT:??_R1A@?0A@EA@ioMoveAttack3Dummy@@8 ; ioMoveAttack3Dummy::`RTTI Base Class Array'
	DD	FLAT:??_R1A@?0A@EA@ioDummyChar@@8
	DD	FLAT:??_R1A@?0A@EA@ioPlayEntity@@8
	DD	FLAT:??_R1A@?0A@EA@ioGameEntity@@8
	DD	FLAT:??_R1A@?0A@EA@ioEntityEvent@@8
	DD	FLAT:??_R1BMI@?0A@EA@ioWorldEventReceiver@@8
rdata$r	ENDS
;	COMDAT ??_R3ioMoveAttack3Dummy@@8
rdata$r	SEGMENT
??_R3ioMoveAttack3Dummy@@8 DD 00H			; ioMoveAttack3Dummy::`RTTI Class Hierarchy Descriptor'
	DD	01H
	DD	06H
	DD	FLAT:??_R2ioMoveAttack3Dummy@@8
rdata$r	ENDS
;	COMDAT ??_R0?AVioMoveAttack3Dummy@@@8
_DATA	SEGMENT
??_R0?AVioMoveAttack3Dummy@@@8 DD FLAT:??_7type_info@@6B@ ; ioMoveAttack3Dummy `RTTI Type Descriptor'
	DD	00H
	DB	'.?AVioMoveAttack3Dummy@@', 00H
_DATA	ENDS
;	COMDAT ??_R4ioMoveAttack3Dummy@@6BioPlayEntity@@@
rdata$r	SEGMENT
??_R4ioMoveAttack3Dummy@@6BioPlayEntity@@@ DD 00H	; ioMoveAttack3Dummy::`RTTI Complete Object Locator'
	DD	00H
	DD	00H
	DD	FLAT:??_R0?AVioMoveAttack3Dummy@@@8
	DD	FLAT:??_R3ioMoveAttack3Dummy@@8
rdata$r	ENDS
;	COMDAT ??_7ioMoveAttack3Dummy@@6BioWorldEventReceiver@@@
CONST	SEGMENT
??_7ioMoveAttack3Dummy@@6BioWorldEventReceiver@@@ DD FLAT:??_R4ioMoveAttack3Dummy@@6BioWorldEventReceiver@@@ ; ioMoveAttack3Dummy::`vftable'
	DD	FLAT:?OnTelepotation@ioDummyChar@@UAEXABUD3DXVECTOR3@@@Z
	DD	FLAT:?OnFireZoneDamage@ioDummyChar@@UAEXMABVioHashString@@@Z
	DD	FLAT:?OnPoisonZoneDamage@ioDummyChar@@UAEXXZ
	DD	FLAT:??_EioMoveAttack3Dummy@@WBMI@AEPAXI@Z
CONST	ENDS
;	COMDAT ??_7ioMoveAttack3Dummy@@6BioPlayEntity@@@
CONST	SEGMENT
??_7ioMoveAttack3Dummy@@6BioPlayEntity@@@ DD FLAT:??_R4ioMoveAttack3Dummy@@6BioPlayEntity@@@ ; ioMoveAttack3Dummy::`vftable'
	DD	FLAT:?AddEntityEvent@ioDummyChar@@UAEXPAVioEntity@@@Z
	DD	FLAT:??_EioMoveAttack3Dummy@@UAEPAXI@Z
	DD	FLAT:?Update@ioDummyChar@@UAEXMKK@Z
	DD	FLAT:?UpdateAfter@ioDummyChar@@UAEXM@Z
	DD	FLAT:?GetTypeID@ioPlayEntity@@UBEHXZ
	DD	FLAT:?IsNeedCheckMapCollision@ioDummyChar@@UBE_NXZ
	DD	FLAT:?IsMountAvailable@ioDummyChar@@UBE_NXZ
	DD	FLAT:?IsMountingAvailable@ioDummyChar@@UBE_NXZ
	DD	FLAT:?IsNowMountEnable@ioDummyChar@@UBE_NXZ
	DD	FLAT:?IsAllWeaponDefence@ioGameEntity@@UBE_NXZ
	DD	FLAT:?HasEntity@ioGameEntity@@UAE_NABVioHashString@@@Z
	DD	FLAT:?AddEntity@ioGameEntity@@UAEPAVioEntity@@ABVioHashString@@@Z
	DD	FLAT:?DestroyEntity@ioGameEntity@@UAE_NABVioHashString@@@Z
	DD	FLAT:?GetEntity@ioGameEntity@@UAEPAVioEntity@@ABVioHashString@@@Z
	DD	FLAT:?UpdateBound@ioGameEntity@@MBEXXZ
	DD	FLAT:?UpdateBottomHeight@ioDummyChar@@MBEXXZ
	DD	FLAT:?NeedUpdateBottomHeight@ioDummyChar@@UAEXXZ
	DD	FLAT:?SetWorldPosition@ioGameEntity@@UAEXABUD3DXVECTOR3@@@Z
	DD	FLAT:?SetWorldOrientation@ioGameEntity@@UAEXABUD3DXQUATERNION@@@Z
	DD	FLAT:?SetWorldScale@ioGameEntity@@UAEXABUD3DXVECTOR3@@@Z
	DD	FLAT:?Translate@ioDummyChar@@UAEXABUD3DXVECTOR3@@@Z
	DD	FLAT:?TranslateByConveyer@ioDummyChar@@UAEXABUD3DXVECTOR3@@@Z
	DD	FLAT:?TranslateByWorldEntity@ioDummyChar@@UAEXABUD3DXVECTOR3@@@Z
	DD	FLAT:?MapCollisionPushingTranslate@ioDummyChar@@UAEXABUD3DXVECTOR3@@@Z
	DD	FLAT:?DontMoveCollisionPushingTranslate@ioGameEntity@@UAEXPAV1@ABUD3DXVECTOR3@@@Z
	DD	FLAT:?Rotate@ioGameEntity@@UAEXABUD3DXVECTOR3@@MW4TransformSpace@ioNode@@@Z
	DD	FLAT:?Scale@ioGameEntity@@UAEXMMM@Z
	DD	FLAT:?Scale@ioGameEntity@@UAEXABUD3DXVECTOR3@@@Z
	DD	FLAT:?GetWorldPosition@ioGameEntity@@UBEABUD3DXVECTOR3@@XZ
	DD	FLAT:?GetWorldOrientation@ioGameEntity@@UBEABUD3DXQUATERNION@@XZ
	DD	FLAT:?GetWorldScale@ioGameEntity@@UBEABUD3DXVECTOR3@@XZ
	DD	FLAT:?ApplyWeapon@ioDummyChar@@UAE?AW4ApplyWeaponExp@@PAVioWeapon@@@Z
	DD	FLAT:?IsCollisionAvailableWeapon@ioDummyChar@@UAE_NPAVioWeapon@@@Z
	DD	FLAT:?IsCollisionAvailableRange@ioPlayEntity@@UAE_NPAVioWeapon@@@Z
	DD	FLAT:?IsEntityCollisionSkipState@ioDummyChar@@UBE_NPAVioGameEntity@@@Z
	DD	FLAT:?IsCharCollisionSkipState@ioDummyChar@@UBE_NW4TeamType@@H@Z
	DD	FLAT:?IsWoundedCollision@ioPlayEntity@@UBE_NABVioOrientBox@@PAUD3DXVECTOR3@@@Z
	DD	FLAT:?GetAttackCollisionBox@ioDummyChar@@UAE?AVioOrientBox@@W4AniCollisionType@@_N@Z
	DD	FLAT:?CheckSphereDistance@ioPlayEntity@@UBE_NABUD3DXVECTOR3@@MAAM@Z
	DD	FLAT:?CheckSpherePoint@ioPlayEntity@@UBE_NABUD3DXVECTOR3@@MAAU2@@Z
	DD	FLAT:?CheckCylinderPoint@ioPlayEntity@@UBE_NABVioCylinder@@ABUD3DXVECTOR3@@AAU3@@Z
	DD	FLAT:?GetSubType@ioDummyChar@@UBE?AW4PlaySubType@ioPlayEntity@@XZ
	DD	FLAT:?GetArmorType@ioDummyChar@@UBE?AW4ArmorType@@XZ
	DD	FLAT:?DontMoveEntityLevel@ioDummyChar@@UBEHXZ
	DD	FLAT:?NotifyDontMoveCollisionPushingSkip@ioPlayEntity@@UAEXPAVioGameEntity@@@Z
	DD	FLAT:?LoadProperty@ioMoveAttack3Dummy@@UAEXAAVioINILoader@@@Z
	DD	FLAT:?GetWorldEventReceiver@ioDummyChar@@UAEPAVioWorldEventReceiver@@XZ
	DD	FLAT:?Revival@ioPlayEntity@@UAEXXZ
	DD	FLAT:?UpdateGauge@ioDummyChar@@UAEXXZ
	DD	FLAT:?RenderGauge@ioDummyChar@@UAEXXZ
	DD	FLAT:?FillMaxHP@ioPlayEntity@@UAEXXZ
	DD	FLAT:?ProcessRecovery@ioPlayEntity@@MAEXXZ
	DD	FLAT:?AddHeadDamageInfo@ioPlayEntity@@UAEXH_N@Z
	DD	FLAT:?RenderHeadInfoList@ioPlayEntity@@UAEXHH@Z
	DD	FLAT:?UpdateHeadInfoList@ioPlayEntity@@MAEXK@Z
	DD	FLAT:?SetTeam@ioPlayEntity@@UAEXW4TeamType@@@Z
	DD	FLAT:?InitDummyCharInfo@ioDummyChar@@UAEXHKABUD3DXVECTOR3@@0M_N@Z
	DD	FLAT:?TestMapCollision@ioDummyChar@@UAE_NPAVioOpcodeShape@@PAVioPlayStage@@PBUD3DXMATRIX@@@Z
	DD	FLAT:?CheckEntityCollision@ioDummyChar@@UAEXPAVioPlayEntity@@@Z
	DD	FLAT:?GetDummyGrassType@ioDummyChar@@UAEHXZ
	DD	FLAT:?IsActivateWeapon@ioMoveAttack3Dummy@@UAE_NXZ
	DD	FLAT:?IsDummyVsDummyCollisionSkipState@ioDummyChar@@UAE_NPBV1@@Z
	DD	FLAT:?ProcessState@ioMoveAttack3Dummy@@MAEXMK@Z
	DD	FLAT:?ProcessPos@ioDummyChar@@MAEXM@Z
	DD	FLAT:?ProcessDelayState@ioDummyChar@@MAEXM@Z
	DD	FLAT:?ProcessMoveState@ioMoveAttack3Dummy@@MAEXM@Z
	DD	FLAT:?ProcessDashState@ioDummyChar@@MAEXM@Z
	DD	FLAT:?ProcessAttackState@ioDummyChar@@MAEXMK@Z
	DD	FLAT:?ApplyDummyCharSync@ioDummyChar@@UAEXPAVioPlayStage@@AAVSP2Packet@@@Z
	DD	FLAT:?SetDelayState@ioDummyChar@@UAEX_N@Z
	DD	FLAT:?SetMoveState@ioDummyChar@@UAEXXZ
	DD	FLAT:?SetDieState@ioDummyChar@@UAEX_N0@Z
	DD	FLAT:?SetDashState@ioDummyChar@@UAEXXZ
	DD	FLAT:?SetAttackState@ioDummyChar@@UAEXXZ
	DD	FLAT:?DropZoneCheck@ioDummyChar@@MAEXXZ
	DD	FLAT:?SendAttackInfoToSkill@ioDummyChar@@MAEXXZ
	DD	FLAT:?CheckCollisionWeapon@ioDummyChar@@UAEXPAVioBaseChar@@@Z
	DD	FLAT:?TranslateMountEntity@ioDummyChar@@MAEXABUD3DXVECTOR3@@@Z
	DD	FLAT:?ClearMountEntity@ioDummyChar@@MAEXXZ
	DD	FLAT:?UpdateMountedEntityList@ioDummyChar@@MAEXXZ
	DD	FLAT:?UpdateMountedWeaponList@ioDummyChar@@MAEXXZ
	DD	FLAT:?SetWorldPositionMountEntity@ioDummyChar@@MAEXM@Z
	DD	FLAT:?DummyDieClearMountEntity@ioDummyChar@@MAEXXZ
	DD	FLAT:?IsDummyCharMidSync@ioDummyChar@@UAE_NXZ
	DD	FLAT:?FillDummyCharMidSync@ioDummyChar@@UAEXPAVioBaseChar@@AAVSP2Packet@@@Z
	DD	FLAT:?ApplyDummyCharMidSync@ioDummyChar@@UAEXPAVioBaseChar@@AAVSP2Packet@@@Z
	DD	FLAT:?GetSkillMaxActiveCnt@ioDummyChar@@UAEHXZ
	DD	FLAT:?GetSkillCurActiveCnt@ioDummyChar@@UAEHXZ
CONST	ENDS
;	COMDAT xdata$x
xdata$x	SEGMENT
__ehfuncinfo$??1ioMoveAttack3Dummy@@UAE@XZ DD 019930522H
	DD	05H
	DD	FLAT:__unwindtable$??1ioMoveAttack3Dummy@@UAE@XZ
	DD	2 DUP(00H)
	DD	2 DUP(00H)
	DD	00H
	DD	01H
__unwindtable$??1ioMoveAttack3Dummy@@UAE@XZ DD 0ffffffffH
	DD	FLAT:__unwindfunclet$??1ioMoveAttack3Dummy@@UAE@XZ$0
	DD	00H
	DD	FLAT:__unwindfunclet$??1ioMoveAttack3Dummy@@UAE@XZ$1
	DD	01H
	DD	FLAT:__unwindfunclet$??1ioMoveAttack3Dummy@@UAE@XZ$2
	DD	02H
	DD	FLAT:__unwindfunclet$??1ioMoveAttack3Dummy@@UAE@XZ$3
	DD	03H
	DD	FLAT:__unwindfunclet$??1ioMoveAttack3Dummy@@UAE@XZ$4
; Function compile flags: /Ogsp
; File d:\lost saga for developer\youtube\tutorial\source\src\lsclient\iomoveattack3dummy.cpp
xdata$x	ENDS
;	COMDAT ??1ioMoveAttack3Dummy@@UAE@XZ
_TEXT	SEGMENT
_this$ = -16						; size = 4
__$EHRec$ = -12						; size = 12
??1ioMoveAttack3Dummy@@UAE@XZ PROC			; ioMoveAttack3Dummy::~ioMoveAttack3Dummy, COMDAT
; _this$ = ecx

; 26   : {

  00000	6a 04		 push	 4
  00002	b8 00 00 00 00	 mov	 eax, __ehhandler$??1ioMoveAttack3Dummy@@UAE@XZ
  00007	e8 00 00 00 00	 call	 __EH_prolog3
  0000c	8b f1		 mov	 esi, ecx
  0000e	89 75 f0	 mov	 DWORD PTR _this$[ebp], esi
  00011	c7 06 00 00 00
	00		 mov	 DWORD PTR [esi], OFFSET ??_7ioMoveAttack3Dummy@@6BioPlayEntity@@@
  00017	c7 86 c8 01 00
	00 00 00 00 00	 mov	 DWORD PTR [esi+456], OFFSET ??_7ioMoveAttack3Dummy@@6BioWorldEventReceiver@@@

; 27   : }

  00021	bb 00 00 00 00	 mov	 ebx, OFFSET ??_7?$CEncrypt@K@@6B@
  00026	8d 8e 58 15 00
	00		 lea	 ecx, DWORD PTR [esi+5464]
  0002c	c7 45 fc 04 00
	00 00		 mov	 DWORD PTR __$EHRec$[ebp+8], 4
  00033	89 9e 4c 15 00
	00		 mov	 DWORD PTR [esi+5452], ebx
  00039	e8 00 00 00 00	 call	 ??1ccddaabb@@UAE@XZ	; ccddaabb::~ccddaabb
  0003e	bf 00 00 00 00	 mov	 edi, OFFSET ??_7?$CEncrypt@M@@6B@
  00043	8d 8e 28 15 00
	00		 lea	 ecx, DWORD PTR [esi+5416]
  00049	c6 45 fc 03	 mov	 BYTE PTR __$EHRec$[ebp+8], 3
  0004d	89 be 1c 15 00
	00		 mov	 DWORD PTR [esi+5404], edi
  00053	e8 00 00 00 00	 call	 ??1ccddaabb@@UAE@XZ	; ccddaabb::~ccddaabb
  00058	8d 8e f8 14 00
	00		 lea	 ecx, DWORD PTR [esi+5368]
  0005e	c6 45 fc 02	 mov	 BYTE PTR __$EHRec$[ebp+8], 2
  00062	89 be ec 14 00
	00		 mov	 DWORD PTR [esi+5356], edi
  00068	e8 00 00 00 00	 call	 ??1ccddaabb@@UAE@XZ	; ccddaabb::~ccddaabb
  0006d	8d 8e c8 14 00
	00		 lea	 ecx, DWORD PTR [esi+5320]
  00073	c6 45 fc 01	 mov	 BYTE PTR __$EHRec$[ebp+8], 1
  00077	89 be bc 14 00
	00		 mov	 DWORD PTR [esi+5308], edi
  0007d	e8 00 00 00 00	 call	 ??1ccddaabb@@UAE@XZ	; ccddaabb::~ccddaabb
  00082	8d 8e 90 14 00
	00		 lea	 ecx, DWORD PTR [esi+5264]
  00088	c6 45 fc 00	 mov	 BYTE PTR __$EHRec$[ebp+8], 0
  0008c	89 9e 84 14 00
	00		 mov	 DWORD PTR [esi+5252], ebx
  00092	e8 00 00 00 00	 call	 ??1ccddaabb@@UAE@XZ	; ccddaabb::~ccddaabb
  00097	83 4d fc ff	 or	 DWORD PTR __$EHRec$[ebp+8], -1
  0009b	8b ce		 mov	 ecx, esi
  0009d	e8 00 00 00 00	 call	 ??1ioDummyChar@@UAE@XZ	; ioDummyChar::~ioDummyChar
  000a2	e8 00 00 00 00	 call	 __EH_epilog3
  000a7	c3		 ret	 0
_TEXT	ENDS
;	COMDAT text$x
text$x	SEGMENT
__unwindfunclet$??1ioMoveAttack3Dummy@@UAE@XZ$0:
  00000	8b 4d f0	 mov	 ecx, DWORD PTR _this$[ebp]
  00003	e9 00 00 00 00	 jmp	 ??1ioDummyChar@@UAE@XZ	; ioDummyChar::~ioDummyChar
__unwindfunclet$??1ioMoveAttack3Dummy@@UAE@XZ$1:
  00008	8b 4d f0	 mov	 ecx, DWORD PTR _this$[ebp]
  0000b	81 c1 84 14 00
	00		 add	 ecx, 5252		; 00001484H
  00011	e9 00 00 00 00	 jmp	 ??1?$CEncrypt@K@@UAE@XZ	; CEncrypt<unsigned long>::~CEncrypt<unsigned long>
__unwindfunclet$??1ioMoveAttack3Dummy@@UAE@XZ$2:
  00016	8b 4d f0	 mov	 ecx, DWORD PTR _this$[ebp]
  00019	81 c1 bc 14 00
	00		 add	 ecx, 5308		; 000014bcH
  0001f	e9 00 00 00 00	 jmp	 ??1?$CEncrypt@M@@UAE@XZ	; CEncrypt<float>::~CEncrypt<float>
__unwindfunclet$??1ioMoveAttack3Dummy@@UAE@XZ$3:
  00024	8b 4d f0	 mov	 ecx, DWORD PTR _this$[ebp]
  00027	81 c1 ec 14 00
	00		 add	 ecx, 5356		; 000014ecH
  0002d	e9 00 00 00 00	 jmp	 ??1?$CEncrypt@M@@UAE@XZ	; CEncrypt<float>::~CEncrypt<float>
__unwindfunclet$??1ioMoveAttack3Dummy@@UAE@XZ$4:
  00032	8b 4d f0	 mov	 ecx, DWORD PTR _this$[ebp]
  00035	81 c1 1c 15 00
	00		 add	 ecx, 5404		; 0000151cH
  0003b	e9 00 00 00 00	 jmp	 ??1?$CEncrypt@M@@UAE@XZ	; CEncrypt<float>::~CEncrypt<float>
__ehhandler$??1ioMoveAttack3Dummy@@UAE@XZ:
  00040	8b 54 24 08	 mov	 edx, DWORD PTR [esp+8]
  00044	8d 42 0c	 lea	 eax, DWORD PTR [edx+12]
  00047	8b 4a ec	 mov	 ecx, DWORD PTR [edx-20]
  0004a	33 c8		 xor	 ecx, eax
  0004c	e8 00 00 00 00	 call	 @__security_check_cookie@4
  00051	b8 00 00 00 00	 mov	 eax, OFFSET __ehfuncinfo$??1ioMoveAttack3Dummy@@UAE@XZ
  00056	e9 00 00 00 00	 jmp	 ___CxxFrameHandler3
text$x	ENDS
??1ioMoveAttack3Dummy@@UAE@XZ ENDP			; ioMoveAttack3Dummy::~ioMoveAttack3Dummy
; Function compile flags: /Odsp
;	COMDAT ??_EioMoveAttack3Dummy@@WBMI@AEPAXI@Z
_TEXT	SEGMENT
??_EioMoveAttack3Dummy@@WBMI@AEPAXI@Z PROC		; [thunk]:ioMoveAttack3Dummy::`vector deleting destructor', COMDAT
  00000	81 e9 c8 01 00
	00		 sub	 ecx, 456		; 000001c8H
  00006	e9 00 00 00 00	 jmp	 ??_EioMoveAttack3Dummy@@UAEPAXI@Z
??_EioMoveAttack3Dummy@@WBMI@AEPAXI@Z ENDP		; [thunk]:ioMoveAttack3Dummy::`vector deleting destructor'
; Function compile flags: /Ogsp
; File d:\lost saga for developer\youtube\tutorial\source\src\lsclient\iodummychar.h
_TEXT	ENDS
;	COMDAT ?IsDummyCharMidSync@ioDummyChar@@UAE_NXZ
_TEXT	SEGMENT
?IsDummyCharMidSync@ioDummyChar@@UAE_NXZ PROC		; ioDummyChar::IsDummyCharMidSync, COMDAT
; _this$ = ecx

; 742  : 	virtual bool IsDummyCharMidSync(){ return false; }

  00000	32 c0		 xor	 al, al
  00002	c3		 ret	 0
?IsDummyCharMidSync@ioDummyChar@@UAE_NXZ ENDP		; ioDummyChar::IsDummyCharMidSync
_TEXT	ENDS
PUBLIC	?EncryptValueToPool@?$CEncrypt@W4TeamType@@@@AAEXPBD@Z ; CEncrypt<enum TeamType>::EncryptValueToPool
; Function compile flags: /Ogsp
; File d:\lost saga for developer\youtube\tutorial\source\src\lsclient\encryptvalue.h
;	COMDAT ?EncryptValueToPool@?$CEncrypt@W4TeamType@@@@AAEXPBD@Z
_TEXT	SEGMENT
_value$ = 8						; size = 4
?EncryptValueToPool@?$CEncrypt@W4TeamType@@@@AAEXPBD@Z PROC ; CEncrypt<enum TeamType>::EncryptValueToPool, COMDAT
; _this$ = ecx

; 67   : 	{

  00000	55		 push	 ebp
  00001	8b ec		 mov	 ebp, esp

; 68   : 		m_RC5.EncryptByte( value, m_MemPool, max(m_ValueSize, DEFAULT_ENCRYPT) );

  00003	0f b7 41 06	 movzx	 eax, WORD PTR [ecx+6]
  00007	83 f8 04	 cmp	 eax, 4
  0000a	77 03		 ja	 SHORT $LN4@EncryptVal@3
  0000c	6a 04		 push	 4
  0000e	58		 pop	 eax
$LN4@EncryptVal@3:
  0000f	50		 push	 eax
  00010	8d 41 1c	 lea	 eax, DWORD PTR [ecx+28]
  00013	50		 push	 eax
  00014	ff 75 08	 push	 DWORD PTR _value$[ebp]
  00017	83 c1 0c	 add	 ecx, 12			; 0000000cH
  0001a	e8 00 00 00 00	 call	 ?EncryptByte@ccddaabb@@QAEXPBDPADH@Z ; ccddaabb::EncryptByte

; 69   : 		
; 70   : 	}

  0001f	5d		 pop	 ebp
  00020	c2 04 00	 ret	 4
?EncryptValueToPool@?$CEncrypt@W4TeamType@@@@AAEXPBD@Z ENDP ; CEncrypt<enum TeamType>::EncryptValueToPool
_TEXT	ENDS
PUBLIC	__real@0000000000000000
PUBLIC	__$ArrayPad$
EXTRN	?GetBottomHeight@ioGameEntity@@QBEMXZ:PROC	; ioGameEntity::GetBottomHeight
EXTRN	?ReCalculateMoveVectorByTerrain@ioPlayStage@@QAE_NPAVioDummyChar@@PAUD3DXVECTOR3@@AA_N@Z:PROC ; ioPlayStage::ReCalculateMoveVectorByTerrain
EXTRN	_D3DXVec3Normalize@8:PROC
EXTRN	?GetOwner@ioDummyChar@@QBEPAVioBaseChar@@XZ:PROC ; ioDummyChar::GetOwner
EXTRN	___security_cookie:DWORD
;	COMDAT __real@0000000000000000
; File d:\lost saga for developer\youtube\tutorial\source\src\lsclient\iomoveattack3dummy.cpp
CONST	SEGMENT
__real@0000000000000000 DQ 00000000000000000r	; 0
; Function compile flags: /Ogsp
CONST	ENDS
;	COMDAT ?ProcessMoveState@ioMoveAttack3Dummy@@MAEXM@Z
_TEXT	SEGMENT
_pStage$ = -40						; size = 4
_fMapHeight$550311 = -36				; size = 4
_fMoveSpeed$550302 = -36				; size = 4
_bCol$550305 = -29					; size = 1
_vMove$550306 = -28					; size = 12
_vPos$550313 = -16					; size = 12
$T550308 = -16						; size = 12
$T550307 = -16						; size = 12
__$ArrayPad$ = -4					; size = 4
_fTimePerSec$ = 8					; size = 4
?ProcessMoveState@ioMoveAttack3Dummy@@MAEXM@Z PROC	; ioMoveAttack3Dummy::ProcessMoveState, COMDAT
; _this$ = ecx

; 75   : {

  00000	55		 push	 ebp
  00001	8b ec		 mov	 ebp, esp
  00003	83 ec 28	 sub	 esp, 40			; 00000028H
  00006	a1 00 00 00 00	 mov	 eax, DWORD PTR ___security_cookie
  0000b	33 c5		 xor	 eax, ebp
  0000d	89 45 fc	 mov	 DWORD PTR __$ArrayPad$[ebp], eax
  00010	53		 push	 ebx
  00011	8b d9		 mov	 ebx, ecx

; 76   : 	ioBaseChar *pOwner = GetOwner();

  00013	e8 00 00 00 00	 call	 ?GetOwner@ioDummyChar@@QBEPAVioBaseChar@@XZ ; ioDummyChar::GetOwner

; 77   : 	if( !pOwner )

  00018	85 c0		 test	 eax, eax
  0001a	0f 84 de 01 00
	00		 je	 $LN1@ProcessMov

; 78   : 		return;
; 79   : 
; 80   : 	ioPlayStage *pStage = pOwner->GetCreator();

  00020	8b 80 44 03 00
	00		 mov	 eax, DWORD PTR [eax+836]
  00026	89 45 d8	 mov	 DWORD PTR _pStage$[ebp], eax

; 81   : 	if( !pStage )

  00029	85 c0		 test	 eax, eax
  0002b	0f 84 cd 01 00
	00		 je	 $LN1@ProcessMov

; 82   : 		return;
; 83   : 
; 84   : 	D3DXVECTOR3 vPos = GetWorldPosition();

  00031	8b 03		 mov	 eax, DWORD PTR [ebx]
  00033	8b cb		 mov	 ecx, ebx
  00035	ff 50 70	 call	 DWORD PTR [eax+112]

; 85   : 	D3DXQUATERNION qtRot;
; 86   : 
; 87   : 	switch( m_MoveState )

  00038	8b 83 80 14 00
	00		 mov	 eax, DWORD PTR [ebx+5248]
  0003e	48		 dec	 eax
  0003f	0f 85 b9 01 00
	00		 jne	 $LN1@ProcessMov

; 88   : 	{
; 89   : 	case MS_WAIT:
; 90   : 		break;
; 91   : 	case MS_MOVE:
; 92   : 		{
; 93   : 			float fMoveSpeed = m_fMoveSpeed * fTimePerSec;

  00045	f3 0f 10 83 90
	15 00 00	 movss	 xmm0, DWORD PTR [ebx+5520]
  0004d	f3 0f 10 4d 08	 movss	 xmm1, DWORD PTR _fTimePerSec$[ebp]
  00052	0f 5a c0	 cvtps2pd xmm0, xmm0
  00055	0f 5a c9	 cvtps2pd xmm1, xmm1
  00058	f2 0f 59 c1	 mulsd	 xmm0, xmm1

; 94   : 			if( ( m_fNeedMoveLength - fMoveSpeed ) > 0.f )

  0005c	f3 0f 10 8b 8c
	15 00 00	 movss	 xmm1, DWORD PTR [ebx+5516]
  00064	0f 57 d2	 xorps	 xmm2, xmm2
  00067	66 0f 5a d0	 cvtpd2ps xmm2, xmm0
  0006b	0f 57 c0	 xorps	 xmm0, xmm0
  0006e	f3 0f 11 55 dc	 movss	 DWORD PTR _fMoveSpeed$550302[ebp], xmm2
  00073	0f 5a c1	 cvtps2pd xmm0, xmm1
  00076	0f 5a d2	 cvtps2pd xmm2, xmm2
  00079	f2 0f 5c c2	 subsd	 xmm0, xmm2
  0007d	66 0f 2f 05 00
	00 00 00	 comisd	 xmm0, QWORD PTR __real@0000000000000000
  00085	76 06		 jbe	 SHORT $LN5@ProcessMov

; 95   : 			{
; 96   : 				m_fNeedMoveLength -= fMoveSpeed;

  00087	66 0f 5a c0	 cvtpd2ps xmm0, xmm0

; 97   : 			}
; 98   : 			else

  0008b	eb 0f		 jmp	 SHORT $LN34@ProcessMov
$LN5@ProcessMov:

; 99   : 			{
; 100  : 				fMoveSpeed = m_fNeedMoveLength;
; 101  : 				SetWaitState();	

  0008d	83 a3 80 14 00
	00 00		 and	 DWORD PTR [ebx+5248], 0
  00094	0f 57 c0	 xorps	 xmm0, xmm0
  00097	f3 0f 11 4d dc	 movss	 DWORD PTR _fMoveSpeed$550302[ebp], xmm1
$LN34@ProcessMov:

; 102  : 			}
; 103  : 			
; 104  : 			bool bCol = false;
; 105  : 
; 106  : 			D3DXVECTOR3 vMove;
; 107  : 			vMove = m_vTargetPos - GetWorldPosition();

  0009c	8b 03		 mov	 eax, DWORD PTR [ebx]
  0009e	56		 push	 esi
  0009f	57		 push	 edi
  000a0	8b cb		 mov	 ecx, ebx
  000a2	f3 0f 11 83 8c
	15 00 00	 movss	 DWORD PTR [ebx+5516], xmm0
  000aa	c6 45 e3 00	 mov	 BYTE PTR _bCol$550305[ebp], 0
  000ae	ff 50 70	 call	 DWORD PTR [eax+112]
  000b1	f3 0f 10 08	 movss	 xmm1, DWORD PTR [eax]
  000b5	f3 0f 10 83 80
	15 00 00	 movss	 xmm0, DWORD PTR [ebx+5504]
  000bd	0f 5a c0	 cvtps2pd xmm0, xmm0
  000c0	0f 5a c9	 cvtps2pd xmm1, xmm1
  000c3	f2 0f 5c c1	 subsd	 xmm0, xmm1
  000c7	f3 0f 10 48 04	 movss	 xmm1, DWORD PTR [eax+4]
  000cc	66 0f 5a c0	 cvtpd2ps xmm0, xmm0
  000d0	f3 0f 11 45 f0	 movss	 DWORD PTR $T550307[ebp], xmm0
  000d5	f3 0f 10 83 84
	15 00 00	 movss	 xmm0, DWORD PTR [ebx+5508]
  000dd	0f 5a c0	 cvtps2pd xmm0, xmm0
  000e0	0f 5a c9	 cvtps2pd xmm1, xmm1
  000e3	f2 0f 5c c1	 subsd	 xmm0, xmm1
  000e7	f3 0f 10 48 08	 movss	 xmm1, DWORD PTR [eax+8]
  000ec	66 0f 5a c0	 cvtpd2ps xmm0, xmm0
  000f0	f3 0f 11 45 f4	 movss	 DWORD PTR $T550307[ebp+4], xmm0
  000f5	f3 0f 10 83 88
	15 00 00	 movss	 xmm0, DWORD PTR [ebx+5512]
  000fd	0f 5a c0	 cvtps2pd xmm0, xmm0
  00100	0f 5a c9	 cvtps2pd xmm1, xmm1
  00103	f2 0f 5c c1	 subsd	 xmm0, xmm1
  00107	66 0f 5a c0	 cvtpd2ps xmm0, xmm0
  0010b	f3 0f 11 45 f8	 movss	 DWORD PTR $T550307[ebp+8], xmm0
  00110	8d 75 f0	 lea	 esi, DWORD PTR $T550307[ebp]
  00113	8d 7d e4	 lea	 edi, DWORD PTR _vMove$550306[ebp]
  00116	a5		 movsd

; 108  : 			D3DXVec3Normalize( &vMove, &vMove );

  00117	8d 45 e4	 lea	 eax, DWORD PTR _vMove$550306[ebp]
  0011a	a5		 movsd
  0011b	50		 push	 eax
  0011c	50		 push	 eax
  0011d	a5		 movsd
  0011e	e8 00 00 00 00	 call	 _D3DXVec3Normalize@8

; 109  : 			vMove = fMoveSpeed * vMove;

  00123	f3 0f 10 45 e4	 movss	 xmm0, DWORD PTR _vMove$550306[ebp]
  00128	f3 0f 10 4d dc	 movss	 xmm1, DWORD PTR _fMoveSpeed$550302[ebp]
  0012d	0f 5a c0	 cvtps2pd xmm0, xmm0

; 110  : 
; 111  : 			if( pStage && pStage->ReCalculateMoveVectorByTerrain( this, &vMove, bCol ) )

  00130	8b 4d d8	 mov	 ecx, DWORD PTR _pStage$[ebp]
  00133	0f 5a c9	 cvtps2pd xmm1, xmm1
  00136	f2 0f 59 c1	 mulsd	 xmm0, xmm1
  0013a	f3 0f 10 4d dc	 movss	 xmm1, DWORD PTR _fMoveSpeed$550302[ebp]
  0013f	66 0f 5a c0	 cvtpd2ps xmm0, xmm0
  00143	f3 0f 11 45 f0	 movss	 DWORD PTR $T550308[ebp], xmm0
  00148	f3 0f 10 45 e8	 movss	 xmm0, DWORD PTR _vMove$550306[ebp+4]
  0014d	0f 5a c0	 cvtps2pd xmm0, xmm0
  00150	0f 5a c9	 cvtps2pd xmm1, xmm1
  00153	f2 0f 59 c1	 mulsd	 xmm0, xmm1
  00157	f3 0f 10 4d dc	 movss	 xmm1, DWORD PTR _fMoveSpeed$550302[ebp]
  0015c	66 0f 5a c0	 cvtpd2ps xmm0, xmm0
  00160	f3 0f 11 45 f4	 movss	 DWORD PTR $T550308[ebp+4], xmm0
  00165	f3 0f 10 45 ec	 movss	 xmm0, DWORD PTR _vMove$550306[ebp+8]
  0016a	0f 5a c0	 cvtps2pd xmm0, xmm0
  0016d	0f 5a c9	 cvtps2pd xmm1, xmm1
  00170	f2 0f 59 c1	 mulsd	 xmm0, xmm1
  00174	66 0f 5a c0	 cvtpd2ps xmm0, xmm0
  00178	f3 0f 11 45 f8	 movss	 DWORD PTR $T550308[ebp+8], xmm0
  0017d	8d 75 f0	 lea	 esi, DWORD PTR $T550308[ebp]
  00180	8d 7d e4	 lea	 edi, DWORD PTR _vMove$550306[ebp]
  00183	a5		 movsd
  00184	8d 45 e3	 lea	 eax, DWORD PTR _bCol$550305[ebp]
  00187	50		 push	 eax
  00188	a5		 movsd
  00189	8d 45 e4	 lea	 eax, DWORD PTR _vMove$550306[ebp]
  0018c	50		 push	 eax
  0018d	53		 push	 ebx
  0018e	a5		 movsd
  0018f	e8 00 00 00 00	 call	 ?ReCalculateMoveVectorByTerrain@ioPlayStage@@QAE_NPAVioDummyChar@@PAUD3DXVECTOR3@@AA_N@Z ; ioPlayStage::ReCalculateMoveVectorByTerrain
  00194	84 c0		 test	 al, al
  00196	74 0b		 je	 SHORT $LN3@ProcessMov

; 112  : 			{
; 113  : 				Translate( vMove );

  00198	8b 03		 mov	 eax, DWORD PTR [ebx]
  0019a	8d 4d e4	 lea	 ecx, DWORD PTR _vMove$550306[ebp]
  0019d	51		 push	 ecx
  0019e	8b cb		 mov	 ecx, ebx
  001a0	ff 50 50	 call	 DWORD PTR [eax+80]
$LN3@ProcessMov:

; 114  : 			}
; 115  : 			if( bCol )

  001a3	80 7d e3 00	 cmp	 BYTE PTR _bCol$550305[ebp], 0
  001a7	74 12		 je	 SHORT $LN30@ProcessMov

; 116  : 				SetWaitState();	

  001a9	0f 57 c0	 xorps	 xmm0, xmm0
  001ac	83 a3 80 14 00
	00 00		 and	 DWORD PTR [ebx+5248], 0
  001b3	f3 0f 11 83 8c
	15 00 00	 movss	 DWORD PTR [ebx+5516], xmm0
$LN30@ProcessMov:

; 117  : 
; 118  : 			float fMapHeight = GetBottomHeight();

  001bb	8b cb		 mov	 ecx, ebx
  001bd	e8 00 00 00 00	 call	 ?GetBottomHeight@ioGameEntity@@QBEMXZ ; ioGameEntity::GetBottomHeight
  001c2	d9 5d dc	 fstp	 DWORD PTR _fMapHeight$550311[ebp]

; 119  : 			if( GetWorldPosition().y <= fMapHeight )

  001c5	8b 03		 mov	 eax, DWORD PTR [ebx]
  001c7	8b cb		 mov	 ecx, ebx
  001c9	ff 50 70	 call	 DWORD PTR [eax+112]
  001cc	d9 40 04	 fld	 DWORD PTR [eax+4]
  001cf	d9 45 dc	 fld	 DWORD PTR _fMapHeight$550311[ebp]
  001d2	df f1		 fcomip	 ST(1)
  001d4	dd d8		 fstp	 ST(0)
  001d6	72 24		 jb	 SHORT $LN32@ProcessMov

; 120  : 			{
; 121  : 				D3DXVECTOR3 vPos = GetWorldPosition();

  001d8	8b 03		 mov	 eax, DWORD PTR [ebx]
  001da	8b cb		 mov	 ecx, ebx
  001dc	ff 50 70	 call	 DWORD PTR [eax+112]

; 122  : 				vPos.y = fMapHeight;

  001df	f3 0f 10 45 dc	 movss	 xmm0, DWORD PTR _fMapHeight$550311[ebp]
  001e4	8b f0		 mov	 esi, eax

; 123  : 				SetWorldPosition( vPos );

  001e6	8b 03		 mov	 eax, DWORD PTR [ebx]
  001e8	8d 7d f0	 lea	 edi, DWORD PTR _vPos$550313[ebp]
  001eb	a5		 movsd
  001ec	a5		 movsd
  001ed	8d 4d f0	 lea	 ecx, DWORD PTR _vPos$550313[ebp]
  001f0	51		 push	 ecx
  001f1	a5		 movsd
  001f2	8b cb		 mov	 ecx, ebx
  001f4	f3 0f 11 45 f4	 movss	 DWORD PTR _vPos$550313[ebp+4], xmm0
  001f9	ff 50 44	 call	 DWORD PTR [eax+68]
$LN32@ProcessMov:
  001fc	5f		 pop	 edi
  001fd	5e		 pop	 esi
$LN1@ProcessMov:

; 124  : 				//SetWaitState();	
; 125  : 				return;
; 126  : 			}
; 127  : 		}
; 128  : 		break;
; 129  : 	}
; 130  : }

  001fe	8b 4d fc	 mov	 ecx, DWORD PTR __$ArrayPad$[ebp]
  00201	33 cd		 xor	 ecx, ebp
  00203	5b		 pop	 ebx
  00204	e8 00 00 00 00	 call	 @__security_check_cookie@4
  00209	c9		 leave
  0020a	c2 04 00	 ret	 4
?ProcessMoveState@ioMoveAttack3Dummy@@MAEXM@Z ENDP	; ioMoveAttack3Dummy::ProcessMoveState
_TEXT	ENDS
PUBLIC	?SetMovePosition@ioMoveAttack3Dummy@@QAEXABUD3DXVECTOR3@@@Z ; ioMoveAttack3Dummy::SetMovePosition
; Function compile flags: /Ogsp
;	COMDAT ?SetMovePosition@ioMoveAttack3Dummy@@QAEXABUD3DXVECTOR3@@@Z
_TEXT	SEGMENT
_vPos$ = -12						; size = 12
_vTargetPos$ = 8					; size = 4
?SetMovePosition@ioMoveAttack3Dummy@@QAEXABUD3DXVECTOR3@@@Z PROC ; ioMoveAttack3Dummy::SetMovePosition, COMDAT
; _this$ = ecx

; 180  : {

  00000	55		 push	 ebp
  00001	8b ec		 mov	 ebp, esp
  00003	83 ec 0c	 sub	 esp, 12			; 0000000cH
  00006	53		 push	 ebx
  00007	56		 push	 esi

; 181  : 	m_vTargetPos = vTargetPos;

  00008	8b 75 08	 mov	 esi, DWORD PTR _vTargetPos$[ebp]
  0000b	57		 push	 edi
  0000c	8b d9		 mov	 ebx, ecx

; 182  : 
; 183  : 	D3DXVECTOR3 vPos = GetWorldPosition();

  0000e	8b 03		 mov	 eax, DWORD PTR [ebx]
  00010	8d bb 80 15 00
	00		 lea	 edi, DWORD PTR [ebx+5504]
  00016	a5		 movsd
  00017	a5		 movsd
  00018	a5		 movsd
  00019	ff 50 70	 call	 DWORD PTR [eax+112]

; 184  : 
; 185  : 	vPos = m_vTargetPos - vPos;

  0001c	f3 0f 10 83 80
	15 00 00	 movss	 xmm0, DWORD PTR [ebx+5504]
  00024	8b f0		 mov	 esi, eax
  00026	8d 7d f4	 lea	 edi, DWORD PTR _vPos$[ebp]
  00029	a5		 movsd
  0002a	a5		 movsd
  0002b	a5		 movsd
  0002c	f3 0f 10 4d f4	 movss	 xmm1, DWORD PTR _vPos$[ebp]
  00031	f3 0f 10 55 f8	 movss	 xmm2, DWORD PTR _vPos$[ebp+4]
  00036	f3 0f 10 5d fc	 movss	 xmm3, DWORD PTR _vPos$[ebp+8]
  0003b	0f 5a c0	 cvtps2pd xmm0, xmm0
  0003e	0f 5a c9	 cvtps2pd xmm1, xmm1
  00041	f2 0f 5c c1	 subsd	 xmm0, xmm1
  00045	f3 0f 10 8b 84
	15 00 00	 movss	 xmm1, DWORD PTR [ebx+5508]
  0004d	0f 5a d2	 cvtps2pd xmm2, xmm2
  00050	0f 5a c9	 cvtps2pd xmm1, xmm1
  00053	f2 0f 5c ca	 subsd	 xmm1, xmm2
  00057	f3 0f 10 93 88
	15 00 00	 movss	 xmm2, DWORD PTR [ebx+5512]
  0005f	66 0f 5a c0	 cvtpd2ps xmm0, xmm0
  00063	0f 5a d2	 cvtps2pd xmm2, xmm2
  00066	f3 0f 5a c0	 cvtss2sd xmm0, xmm0
  0006a	66 0f 5a c9	 cvtpd2ps xmm1, xmm1

; 186  : 
; 187  : 	m_fNeedMoveLength = D3DXVec3Length( &vPos );

  0006e	f2 0f 59 c0	 mulsd	 xmm0, xmm0
  00072	0f 5a db	 cvtps2pd xmm3, xmm3
  00075	f2 0f 5c d3	 subsd	 xmm2, xmm3
  00079	f3 0f 5a c9	 cvtss2sd xmm1, xmm1
  0007d	66 0f 5a d2	 cvtpd2ps xmm2, xmm2
  00081	f2 0f 59 c9	 mulsd	 xmm1, xmm1
  00085	f2 0f 58 c8	 addsd	 xmm1, xmm0
  00089	0f 57 c0	 xorps	 xmm0, xmm0
  0008c	f3 0f 5a d2	 cvtss2sd xmm2, xmm2
  00090	f2 0f 59 d2	 mulsd	 xmm2, xmm2
  00094	f2 0f 58 ca	 addsd	 xmm1, xmm2
  00098	66 0f 5a c1	 cvtpd2ps xmm0, xmm1
  0009c	0f 5a c0	 cvtps2pd xmm0, xmm0
  0009f	5f		 pop	 edi
  000a0	f2 0f 51 c0	 sqrtsd	 xmm0, xmm0
  000a4	66 0f 5a c0	 cvtpd2ps xmm0, xmm0
  000a8	5e		 pop	 esi
  000a9	f3 0f 11 83 8c
	15 00 00	 movss	 DWORD PTR [ebx+5516], xmm0

; 188  : 
; 189  : 	//SetMoveState();
; 190  : 	m_MoveState = MS_MOVE;

  000b1	c7 83 80 14 00
	00 01 00 00 00	 mov	 DWORD PTR [ebx+5248], 1
  000bb	5b		 pop	 ebx

; 191  : }

  000bc	c9		 leave
  000bd	c2 04 00	 ret	 4
?SetMovePosition@ioMoveAttack3Dummy@@QAEXABUD3DXVECTOR3@@@Z ENDP ; ioMoveAttack3Dummy::SetMovePosition
_TEXT	ENDS
PUBLIC	__$ArrayPad$
PUBLIC	??$LoadInt_e@$0BC@@ioINILoader@@QAEHAAY0BC@$$CBDH@Z ; ioINILoader::LoadInt_e<18>
EXTRN	__imp_?LoadInt@ioINILoader@@QAEHPBDH@Z:PROC
; Function compile flags: /Ogsp
; File d:\lost saga for developer\youtube\tutorial\source\src\io3dengine\ioiniloader.h
;	COMDAT ??$LoadInt_e@$0BC@@ioINILoader@@QAEHAAY0BC@$$CBDH@Z
_TEXT	SEGMENT
__k$ = -28						; size = 18
__$ArrayPad$ = -4					; size = 4
_k$ = 8							; size = 4
_i$ = 12						; size = 4
??$LoadInt_e@$0BC@@ioINILoader@@QAEHAAY0BC@$$CBDH@Z PROC ; ioINILoader::LoadInt_e<18>, COMDAT
; _this$ = ecx

; 118  : 	{

  00000	55		 push	 ebp
  00001	8b ec		 mov	 ebp, esp
  00003	83 ec 1c	 sub	 esp, 28			; 0000001cH
  00006	a1 00 00 00 00	 mov	 eax, DWORD PTR ___security_cookie
  0000b	33 c5		 xor	 eax, ebp
  0000d	89 45 fc	 mov	 DWORD PTR __$ArrayPad$[ebp], eax
  00010	8b 45 08	 mov	 eax, DWORD PTR _k$[ebp]

; 119  : 		_ENCSTR(k, _k);

  00013	8a 10		 mov	 dl, BYTE PTR [eax]
  00015	56		 push	 esi
  00016	8b f1		 mov	 esi, ecx
  00018	84 d2		 test	 dl, dl
  0001a	0f 84 be 01 00
	00		 je	 $LN96@LoadInt_e
  00020	80 f2 ed	 xor	 dl, -19			; ffffffedH
  00023	88 55 e4	 mov	 BYTE PTR __k$[ebp], dl
  00026	8a 50 01	 mov	 dl, BYTE PTR [eax+1]
  00029	84 d2		 test	 dl, dl
  0002b	0f 84 a7 01 00
	00		 je	 $LN95@LoadInt_e
  00031	80 f2 ec	 xor	 dl, -20			; ffffffecH
  00034	88 55 e5	 mov	 BYTE PTR __k$[ebp+1], dl
  00037	8a 50 02	 mov	 dl, BYTE PTR [eax+2]
  0003a	84 d2		 test	 dl, dl
  0003c	0f 84 90 01 00
	00		 je	 $LN94@LoadInt_e
  00042	b1 eb		 mov	 cl, -21			; ffffffebH
  00044	32 d1		 xor	 dl, cl
  00046	88 55 e6	 mov	 BYTE PTR __k$[ebp+2], dl
  00049	8a 50 03	 mov	 dl, BYTE PTR [eax+3]
  0004c	84 d2		 test	 dl, dl
  0004e	0f 84 78 01 00
	00		 je	 $LN93@LoadInt_e
  00054	80 f2 ea	 xor	 dl, -22			; ffffffeaH
  00057	88 55 e7	 mov	 BYTE PTR __k$[ebp+3], dl
  0005a	8a 50 04	 mov	 dl, BYTE PTR [eax+4]
  0005d	84 d2		 test	 dl, dl
  0005f	0f 84 61 01 00
	00		 je	 $LN92@LoadInt_e
  00065	80 f2 ed	 xor	 dl, -19			; ffffffedH
  00068	88 55 e8	 mov	 BYTE PTR __k$[ebp+4], dl
  0006b	8a 50 05	 mov	 dl, BYTE PTR [eax+5]
  0006e	84 d2		 test	 dl, dl
  00070	0f 84 4a 01 00
	00		 je	 $LN91@LoadInt_e
  00076	80 f2 ec	 xor	 dl, -20			; ffffffecH
  00079	88 55 e9	 mov	 BYTE PTR __k$[ebp+5], dl
  0007c	8a 50 06	 mov	 dl, BYTE PTR [eax+6]
  0007f	84 d2		 test	 dl, dl
  00081	0f 84 34 01 00
	00		 je	 $LN90@LoadInt_e
  00087	32 d1		 xor	 dl, cl
  00089	88 55 ea	 mov	 BYTE PTR __k$[ebp+6], dl
  0008c	8a 50 07	 mov	 dl, BYTE PTR [eax+7]
  0008f	84 d2		 test	 dl, dl
  00091	0f 84 1e 01 00
	00		 je	 $LN89@LoadInt_e
  00097	80 f2 ea	 xor	 dl, -22			; ffffffeaH
  0009a	88 55 eb	 mov	 BYTE PTR __k$[ebp+7], dl
  0009d	8a 50 08	 mov	 dl, BYTE PTR [eax+8]
  000a0	84 d2		 test	 dl, dl
  000a2	0f 84 07 01 00
	00		 je	 $LN88@LoadInt_e
  000a8	80 f2 ed	 xor	 dl, -19			; ffffffedH
  000ab	88 55 ec	 mov	 BYTE PTR __k$[ebp+8], dl
  000ae	8a 50 09	 mov	 dl, BYTE PTR [eax+9]
  000b1	84 d2		 test	 dl, dl
  000b3	0f 84 f0 00 00
	00		 je	 $LN87@LoadInt_e
  000b9	80 f2 ec	 xor	 dl, -20			; ffffffecH
  000bc	88 55 ed	 mov	 BYTE PTR __k$[ebp+9], dl
  000bf	8a 50 0a	 mov	 dl, BYTE PTR [eax+10]
  000c2	84 d2		 test	 dl, dl
  000c4	0f 84 da 00 00
	00		 je	 $LN86@LoadInt_e
  000ca	32 d1		 xor	 dl, cl
  000cc	88 55 ee	 mov	 BYTE PTR __k$[ebp+10], dl
  000cf	8a 50 0b	 mov	 dl, BYTE PTR [eax+11]
  000d2	84 d2		 test	 dl, dl
  000d4	0f 84 c4 00 00
	00		 je	 $LN85@LoadInt_e
  000da	80 f2 ea	 xor	 dl, -22			; ffffffeaH
  000dd	88 55 ef	 mov	 BYTE PTR __k$[ebp+11], dl
  000e0	8a 50 0c	 mov	 dl, BYTE PTR [eax+12]
  000e3	84 d2		 test	 dl, dl
  000e5	0f 84 ad 00 00
	00		 je	 $LN84@LoadInt_e
  000eb	80 f2 ed	 xor	 dl, -19			; ffffffedH
  000ee	88 55 f0	 mov	 BYTE PTR __k$[ebp+12], dl
  000f1	8a 50 0d	 mov	 dl, BYTE PTR [eax+13]
  000f4	84 d2		 test	 dl, dl
  000f6	0f 84 96 00 00
	00		 je	 $LN83@LoadInt_e
  000fc	80 f2 ec	 xor	 dl, -20			; ffffffecH
  000ff	88 55 f1	 mov	 BYTE PTR __k$[ebp+13], dl
  00102	8a 50 0e	 mov	 dl, BYTE PTR [eax+14]
  00105	84 d2		 test	 dl, dl
  00107	0f 84 80 00 00
	00		 je	 $LN82@LoadInt_e
  0010d	32 d1		 xor	 dl, cl
  0010f	88 55 f2	 mov	 BYTE PTR __k$[ebp+14], dl
  00112	8a 50 0f	 mov	 dl, BYTE PTR [eax+15]
  00115	84 d2		 test	 dl, dl
  00117	74 6e		 je	 SHORT $LN81@LoadInt_e
  00119	80 f2 ea	 xor	 dl, -22			; ffffffeaH
  0011c	88 55 f3	 mov	 BYTE PTR __k$[ebp+15], dl
  0011f	8a 50 10	 mov	 dl, BYTE PTR [eax+16]
  00122	84 d2		 test	 dl, dl
  00124	74 5b		 je	 SHORT $LN80@LoadInt_e
  00126	80 f2 ed	 xor	 dl, -19			; ffffffedH
  00129	80 78 11 00	 cmp	 BYTE PTR [eax+17], 0
  0012d	88 55 f4	 mov	 BYTE PTR __k$[ebp+16], dl
  00130	0f 84 ac 00 00
	00		 je	 $LN1@LoadInt_e
  00136	8a 50 12	 mov	 dl, BYTE PTR [eax+18]
  00139	84 d2		 test	 dl, dl
  0013b	74 3f		 je	 SHORT $LN78@LoadInt_e
  0013d	32 d1		 xor	 dl, cl
  0013f	88 55 f6	 mov	 BYTE PTR __k$[ebp+18], dl
  00142	8a 50 13	 mov	 dl, BYTE PTR [eax+19]
  00145	84 d2		 test	 dl, dl
  00147	74 2d		 je	 SHORT $LN77@LoadInt_e
  00149	80 f2 ea	 xor	 dl, -22			; ffffffeaH
  0014c	88 55 f7	 mov	 BYTE PTR __k$[ebp+19], dl
  0014f	8a 50 14	 mov	 dl, BYTE PTR [eax+20]
  00152	84 d2		 test	 dl, dl
  00154	74 1a		 je	 SHORT $LN76@LoadInt_e
  00156	8a 40 15	 mov	 al, BYTE PTR [eax+21]
  00159	80 f2 ed	 xor	 dl, -19			; ffffffedH
  0015c	88 55 f8	 mov	 BYTE PTR __k$[ebp+20], dl
  0015f	84 c0		 test	 al, al
  00161	74 07		 je	 SHORT $LN75@LoadInt_e
  00163	34 ec		 xor	 al, -20			; ffffffecH
  00165	88 45 f9	 mov	 BYTE PTR __k$[ebp+21], al
  00168	eb 78		 jmp	 SHORT $LN1@LoadInt_e
$LN75@LoadInt_e:
  0016a	c6 45 f9 ec	 mov	 BYTE PTR __k$[ebp+21], -20 ; ffffffecH
  0016e	eb 72		 jmp	 SHORT $LN1@LoadInt_e
$LN76@LoadInt_e:
  00170	c6 45 f8 ed	 mov	 BYTE PTR __k$[ebp+20], -19 ; ffffffedH
  00174	eb 6c		 jmp	 SHORT $LN1@LoadInt_e
$LN77@LoadInt_e:
  00176	c6 45 f7 ea	 mov	 BYTE PTR __k$[ebp+19], -22 ; ffffffeaH
  0017a	eb 66		 jmp	 SHORT $LN1@LoadInt_e
$LN78@LoadInt_e:
  0017c	88 4d f6	 mov	 BYTE PTR __k$[ebp+18], cl
  0017f	eb 61		 jmp	 SHORT $LN1@LoadInt_e
$LN80@LoadInt_e:
  00181	c6 45 f4 ed	 mov	 BYTE PTR __k$[ebp+16], -19 ; ffffffedH
  00185	eb 5b		 jmp	 SHORT $LN1@LoadInt_e
$LN81@LoadInt_e:
  00187	c6 45 f3 ea	 mov	 BYTE PTR __k$[ebp+15], -22 ; ffffffeaH
  0018b	eb 55		 jmp	 SHORT $LN1@LoadInt_e
$LN82@LoadInt_e:
  0018d	88 4d f2	 mov	 BYTE PTR __k$[ebp+14], cl
  00190	eb 50		 jmp	 SHORT $LN1@LoadInt_e
$LN83@LoadInt_e:
  00192	c6 45 f1 ec	 mov	 BYTE PTR __k$[ebp+13], -20 ; ffffffecH
  00196	eb 4a		 jmp	 SHORT $LN1@LoadInt_e
$LN84@LoadInt_e:
  00198	c6 45 f0 ed	 mov	 BYTE PTR __k$[ebp+12], -19 ; ffffffedH
  0019c	eb 44		 jmp	 SHORT $LN1@LoadInt_e
$LN85@LoadInt_e:
  0019e	c6 45 ef ea	 mov	 BYTE PTR __k$[ebp+11], -22 ; ffffffeaH
  001a2	eb 3e		 jmp	 SHORT $LN1@LoadInt_e
$LN86@LoadInt_e:
  001a4	88 4d ee	 mov	 BYTE PTR __k$[ebp+10], cl
  001a7	eb 39		 jmp	 SHORT $LN1@LoadInt_e
$LN87@LoadInt_e:
  001a9	c6 45 ed ec	 mov	 BYTE PTR __k$[ebp+9], -20 ; ffffffecH
  001ad	eb 33		 jmp	 SHORT $LN1@LoadInt_e
$LN88@LoadInt_e:
  001af	c6 45 ec ed	 mov	 BYTE PTR __k$[ebp+8], -19 ; ffffffedH
  001b3	eb 2d		 jmp	 SHORT $LN1@LoadInt_e
$LN89@LoadInt_e:
  001b5	c6 45 eb ea	 mov	 BYTE PTR __k$[ebp+7], -22 ; ffffffeaH
  001b9	eb 27		 jmp	 SHORT $LN1@LoadInt_e
$LN90@LoadInt_e:
  001bb	88 4d ea	 mov	 BYTE PTR __k$[ebp+6], cl
  001be	eb 22		 jmp	 SHORT $LN1@LoadInt_e
$LN91@LoadInt_e:
  001c0	c6 45 e9 ec	 mov	 BYTE PTR __k$[ebp+5], -20 ; ffffffecH
  001c4	eb 1c		 jmp	 SHORT $LN1@LoadInt_e
$LN92@LoadInt_e:
  001c6	c6 45 e8 ed	 mov	 BYTE PTR __k$[ebp+4], -19 ; ffffffedH
  001ca	eb 16		 jmp	 SHORT $LN1@LoadInt_e
$LN93@LoadInt_e:
  001cc	c6 45 e7 ea	 mov	 BYTE PTR __k$[ebp+3], -22 ; ffffffeaH
  001d0	eb 10		 jmp	 SHORT $LN1@LoadInt_e
$LN94@LoadInt_e:
  001d2	c6 45 e6 eb	 mov	 BYTE PTR __k$[ebp+2], -21 ; ffffffebH
  001d6	eb 0a		 jmp	 SHORT $LN1@LoadInt_e
$LN95@LoadInt_e:
  001d8	c6 45 e5 ec	 mov	 BYTE PTR __k$[ebp+1], -20 ; ffffffecH
  001dc	eb 04		 jmp	 SHORT $LN1@LoadInt_e
$LN96@LoadInt_e:
  001de	c6 45 e4 ed	 mov	 BYTE PTR __k$[ebp], -19	; ffffffedH
$LN1@LoadInt_e:
  001e2	6a 04		 push	 4
  001e4	8d 45 e4	 lea	 eax, DWORD PTR __k$[ebp]
  001e7	c6 45 f5 00	 mov	 BYTE PTR __k$[ebp+17], 0
  001eb	5a		 pop	 edx
$LL104@LoadInt_e:
  001ec	81 30 ed ec eb
	ea		 xor	 DWORD PTR [eax], -353637139 ; eaebecedH
  001f2	83 c0 04	 add	 eax, 4
  001f5	4a		 dec	 edx
  001f6	75 f4		 jne	 SHORT $LL104@LoadInt_e

; 120  : 		return LoadInt(_k, i);

  001f8	ff 75 0c	 push	 DWORD PTR _i$[ebp]
  001fb	80 75 f4 ed	 xor	 BYTE PTR __k$[ebp+16], -19 ; ffffffedH
  001ff	8d 45 e4	 lea	 eax, DWORD PTR __k$[ebp]
  00202	50		 push	 eax
  00203	8b ce		 mov	 ecx, esi
  00205	ff 15 00 00 00
	00		 call	 DWORD PTR __imp_?LoadInt@ioINILoader@@QAEHPBDH@Z

; 121  : 	}

  0020b	8b 4d fc	 mov	 ecx, DWORD PTR __$ArrayPad$[ebp]
  0020e	33 cd		 xor	 ecx, ebp
  00210	5e		 pop	 esi
  00211	e8 00 00 00 00	 call	 @__security_check_cookie@4
  00216	c9		 leave
  00217	c2 08 00	 ret	 8
??$LoadInt_e@$0BC@@ioINILoader@@QAEHAAY0BC@$$CBDH@Z ENDP ; ioINILoader::LoadInt_e<18>
_TEXT	ENDS
PUBLIC	__$ArrayPad$
PUBLIC	??$LoadFloat_e@$0N@@ioINILoader@@QAEMAAY0N@$$CBDM@Z ; ioINILoader::LoadFloat_e<13>
EXTRN	__imp_?LoadFloat@ioINILoader@@QAEMPBDM@Z:PROC
; Function compile flags: /Ogsp
;	COMDAT ??$LoadFloat_e@$0N@@ioINILoader@@QAEMAAY0N@$$CBDM@Z
_TEXT	SEGMENT
__k$ = -24						; size = 13
__$ArrayPad$ = -4					; size = 4
_k$ = 8							; size = 4
_f$ = 12						; size = 4
??$LoadFloat_e@$0N@@ioINILoader@@QAEMAAY0N@$$CBDM@Z PROC ; ioINILoader::LoadFloat_e<13>, COMDAT
; _this$ = ecx

; 135  : 	{

  00000	55		 push	 ebp
  00001	8b ec		 mov	 ebp, esp
  00003	83 ec 18	 sub	 esp, 24			; 00000018H
  00006	a1 00 00 00 00	 mov	 eax, DWORD PTR ___security_cookie
  0000b	33 c5		 xor	 eax, ebp
  0000d	89 45 fc	 mov	 DWORD PTR __$ArrayPad$[ebp], eax
  00010	8b 45 08	 mov	 eax, DWORD PTR _k$[ebp]

; 136  : 		_ENCSTR(k, _k);

  00013	8a 10		 mov	 dl, BYTE PTR [eax]
  00015	56		 push	 esi
  00016	8b f1		 mov	 esi, ecx
  00018	84 d2		 test	 dl, dl
  0001a	0f 84 4d 01 00
	00		 je	 $LN96@LoadFloat_
  00020	80 f2 ed	 xor	 dl, -19			; ffffffedH
  00023	88 55 e8	 mov	 BYTE PTR __k$[ebp], dl
  00026	8a 50 01	 mov	 dl, BYTE PTR [eax+1]
  00029	84 d2		 test	 dl, dl
  0002b	0f 84 36 01 00
	00		 je	 $LN95@LoadFloat_
  00031	b1 ec		 mov	 cl, -20			; ffffffecH
  00033	32 d1		 xor	 dl, cl
  00035	88 55 e9	 mov	 BYTE PTR __k$[ebp+1], dl
  00038	8a 50 02	 mov	 dl, BYTE PTR [eax+2]
  0003b	84 d2		 test	 dl, dl
  0003d	0f 84 1e 01 00
	00		 je	 $LN94@LoadFloat_
  00043	80 f2 eb	 xor	 dl, -21			; ffffffebH
  00046	88 55 ea	 mov	 BYTE PTR __k$[ebp+2], dl
  00049	8a 50 03	 mov	 dl, BYTE PTR [eax+3]
  0004c	84 d2		 test	 dl, dl
  0004e	0f 84 07 01 00
	00		 je	 $LN93@LoadFloat_
  00054	80 f2 ea	 xor	 dl, -22			; ffffffeaH
  00057	88 55 eb	 mov	 BYTE PTR __k$[ebp+3], dl
  0005a	8a 50 04	 mov	 dl, BYTE PTR [eax+4]
  0005d	84 d2		 test	 dl, dl
  0005f	0f 84 f0 00 00
	00		 je	 $LN92@LoadFloat_
  00065	80 f2 ed	 xor	 dl, -19			; ffffffedH
  00068	88 55 ec	 mov	 BYTE PTR __k$[ebp+4], dl
  0006b	8a 50 05	 mov	 dl, BYTE PTR [eax+5]
  0006e	84 d2		 test	 dl, dl
  00070	0f 84 da 00 00
	00		 je	 $LN91@LoadFloat_
  00076	32 d1		 xor	 dl, cl
  00078	88 55 ed	 mov	 BYTE PTR __k$[ebp+5], dl
  0007b	8a 50 06	 mov	 dl, BYTE PTR [eax+6]
  0007e	84 d2		 test	 dl, dl
  00080	0f 84 c4 00 00
	00		 je	 $LN90@LoadFloat_
  00086	80 f2 eb	 xor	 dl, -21			; ffffffebH
  00089	88 55 ee	 mov	 BYTE PTR __k$[ebp+6], dl
  0008c	8a 50 07	 mov	 dl, BYTE PTR [eax+7]
  0008f	84 d2		 test	 dl, dl
  00091	0f 84 ad 00 00
	00		 je	 $LN89@LoadFloat_
  00097	80 f2 ea	 xor	 dl, -22			; ffffffeaH
  0009a	88 55 ef	 mov	 BYTE PTR __k$[ebp+7], dl
  0009d	8a 50 08	 mov	 dl, BYTE PTR [eax+8]
  000a0	84 d2		 test	 dl, dl
  000a2	0f 84 96 00 00
	00		 je	 $LN88@LoadFloat_
  000a8	80 f2 ed	 xor	 dl, -19			; ffffffedH
  000ab	88 55 f0	 mov	 BYTE PTR __k$[ebp+8], dl
  000ae	8a 50 09	 mov	 dl, BYTE PTR [eax+9]
  000b1	84 d2		 test	 dl, dl
  000b3	0f 84 80 00 00
	00		 je	 $LN87@LoadFloat_
  000b9	32 d1		 xor	 dl, cl
  000bb	88 55 f1	 mov	 BYTE PTR __k$[ebp+9], dl
  000be	8a 50 0a	 mov	 dl, BYTE PTR [eax+10]
  000c1	84 d2		 test	 dl, dl
  000c3	74 6e		 je	 SHORT $LN86@LoadFloat_
  000c5	80 f2 eb	 xor	 dl, -21			; ffffffebH
  000c8	88 55 f2	 mov	 BYTE PTR __k$[ebp+10], dl
  000cb	8a 50 0b	 mov	 dl, BYTE PTR [eax+11]
  000ce	84 d2		 test	 dl, dl
  000d0	74 5b		 je	 SHORT $LN85@LoadFloat_
  000d2	80 f2 ea	 xor	 dl, -22			; ffffffeaH
  000d5	80 78 0c 00	 cmp	 BYTE PTR [eax+12], 0
  000d9	88 55 f3	 mov	 BYTE PTR __k$[ebp+11], dl
  000dc	0f 84 8f 00 00
	00		 je	 $LN1@LoadFloat_
  000e2	8a 50 0d	 mov	 dl, BYTE PTR [eax+13]
  000e5	84 d2		 test	 dl, dl
  000e7	74 3f		 je	 SHORT $LN83@LoadFloat_
  000e9	32 d1		 xor	 dl, cl
  000eb	88 55 f5	 mov	 BYTE PTR __k$[ebp+13], dl
  000ee	8a 50 0e	 mov	 dl, BYTE PTR [eax+14]
  000f1	84 d2		 test	 dl, dl
  000f3	74 2d		 je	 SHORT $LN82@LoadFloat_
  000f5	80 f2 eb	 xor	 dl, -21			; ffffffebH
  000f8	88 55 f6	 mov	 BYTE PTR __k$[ebp+14], dl
  000fb	8a 50 0f	 mov	 dl, BYTE PTR [eax+15]
  000fe	84 d2		 test	 dl, dl
  00100	74 1a		 je	 SHORT $LN81@LoadFloat_
  00102	8a 40 10	 mov	 al, BYTE PTR [eax+16]
  00105	80 f2 ea	 xor	 dl, -22			; ffffffeaH
  00108	88 55 f7	 mov	 BYTE PTR __k$[ebp+15], dl
  0010b	84 c0		 test	 al, al
  0010d	74 07		 je	 SHORT $LN80@LoadFloat_
  0010f	34 ed		 xor	 al, -19			; ffffffedH
  00111	88 45 f8	 mov	 BYTE PTR __k$[ebp+16], al
  00114	eb 5b		 jmp	 SHORT $LN1@LoadFloat_
$LN80@LoadFloat_:
  00116	c6 45 f8 ed	 mov	 BYTE PTR __k$[ebp+16], -19 ; ffffffedH
  0011a	eb 55		 jmp	 SHORT $LN1@LoadFloat_
$LN81@LoadFloat_:
  0011c	c6 45 f7 ea	 mov	 BYTE PTR __k$[ebp+15], -22 ; ffffffeaH
  00120	eb 4f		 jmp	 SHORT $LN1@LoadFloat_
$LN82@LoadFloat_:
  00122	c6 45 f6 eb	 mov	 BYTE PTR __k$[ebp+14], -21 ; ffffffebH
  00126	eb 49		 jmp	 SHORT $LN1@LoadFloat_
$LN83@LoadFloat_:
  00128	88 4d f5	 mov	 BYTE PTR __k$[ebp+13], cl
  0012b	eb 44		 jmp	 SHORT $LN1@LoadFloat_
$LN85@LoadFloat_:
  0012d	c6 45 f3 ea	 mov	 BYTE PTR __k$[ebp+11], -22 ; ffffffeaH
  00131	eb 3e		 jmp	 SHORT $LN1@LoadFloat_
$LN86@LoadFloat_:
  00133	c6 45 f2 eb	 mov	 BYTE PTR __k$[ebp+10], -21 ; ffffffebH
  00137	eb 38		 jmp	 SHORT $LN1@LoadFloat_
$LN87@LoadFloat_:
  00139	88 4d f1	 mov	 BYTE PTR __k$[ebp+9], cl
  0013c	eb 33		 jmp	 SHORT $LN1@LoadFloat_
$LN88@LoadFloat_:
  0013e	c6 45 f0 ed	 mov	 BYTE PTR __k$[ebp+8], -19 ; ffffffedH
  00142	eb 2d		 jmp	 SHORT $LN1@LoadFloat_
$LN89@LoadFloat_:
  00144	c6 45 ef ea	 mov	 BYTE PTR __k$[ebp+7], -22 ; ffffffeaH
  00148	eb 27		 jmp	 SHORT $LN1@LoadFloat_
$LN90@LoadFloat_:
  0014a	c6 45 ee eb	 mov	 BYTE PTR __k$[ebp+6], -21 ; ffffffebH
  0014e	eb 21		 jmp	 SHORT $LN1@LoadFloat_
$LN91@LoadFloat_:
  00150	88 4d ed	 mov	 BYTE PTR __k$[ebp+5], cl
  00153	eb 1c		 jmp	 SHORT $LN1@LoadFloat_
$LN92@LoadFloat_:
  00155	c6 45 ec ed	 mov	 BYTE PTR __k$[ebp+4], -19 ; ffffffedH
  00159	eb 16		 jmp	 SHORT $LN1@LoadFloat_
$LN93@LoadFloat_:
  0015b	c6 45 eb ea	 mov	 BYTE PTR __k$[ebp+3], -22 ; ffffffeaH
  0015f	eb 10		 jmp	 SHORT $LN1@LoadFloat_
$LN94@LoadFloat_:
  00161	c6 45 ea eb	 mov	 BYTE PTR __k$[ebp+2], -21 ; ffffffebH
  00165	eb 0a		 jmp	 SHORT $LN1@LoadFloat_
$LN95@LoadFloat_:
  00167	c6 45 e9 ec	 mov	 BYTE PTR __k$[ebp+1], -20 ; ffffffecH
  0016b	eb 04		 jmp	 SHORT $LN1@LoadFloat_
$LN96@LoadFloat_:
  0016d	c6 45 e8 ed	 mov	 BYTE PTR __k$[ebp], -19	; ffffffedH
$LN1@LoadFloat_:
  00171	6a 03		 push	 3
  00173	8d 45 e8	 lea	 eax, DWORD PTR __k$[ebp]
  00176	c6 45 f4 00	 mov	 BYTE PTR __k$[ebp+12], 0
  0017a	5a		 pop	 edx
$LL104@LoadFloat_:
  0017b	81 30 ed ec eb
	ea		 xor	 DWORD PTR [eax], -353637139 ; eaebecedH
  00181	83 c0 04	 add	 eax, 4
  00184	4a		 dec	 edx
  00185	75 f4		 jne	 SHORT $LL104@LoadFloat_

; 137  : 		return LoadFloat(_k, f);

  00187	f3 0f 10 45 0c	 movss	 xmm0, DWORD PTR _f$[ebp]
  0018c	51		 push	 ecx
  0018d	8d 45 e8	 lea	 eax, DWORD PTR __k$[ebp]
  00190	f3 0f 11 04 24	 movss	 DWORD PTR [esp], xmm0
  00195	50		 push	 eax
  00196	8b ce		 mov	 ecx, esi
  00198	ff 15 00 00 00
	00		 call	 DWORD PTR __imp_?LoadFloat@ioINILoader@@QAEMPBDM@Z

; 138  : 	}

  0019e	8b 4d fc	 mov	 ecx, DWORD PTR __$ArrayPad$[ebp]
  001a1	33 cd		 xor	 ecx, ebp
  001a3	5e		 pop	 esi
  001a4	e8 00 00 00 00	 call	 @__security_check_cookie@4
  001a9	c9		 leave
  001aa	c2 08 00	 ret	 8
??$LoadFloat_e@$0N@@ioINILoader@@QAEMAAY0N@$$CBDM@Z ENDP ; ioINILoader::LoadFloat_e<13>
_TEXT	ENDS
PUBLIC	__$ArrayPad$
PUBLIC	??$LoadFloat_e@$0BE@@ioINILoader@@QAEMAAY0BE@$$CBDM@Z ; ioINILoader::LoadFloat_e<20>
; Function compile flags: /Ogsp
;	COMDAT ??$LoadFloat_e@$0BE@@ioINILoader@@QAEMAAY0BE@$$CBDM@Z
_TEXT	SEGMENT
__k$ = -28						; size = 20
__$ArrayPad$ = -4					; size = 4
_k$ = 8							; size = 4
_f$ = 12						; size = 4
??$LoadFloat_e@$0BE@@ioINILoader@@QAEMAAY0BE@$$CBDM@Z PROC ; ioINILoader::LoadFloat_e<20>, COMDAT
; _this$ = ecx

; 135  : 	{

  00000	55		 push	 ebp
  00001	8b ec		 mov	 ebp, esp
  00003	83 ec 1c	 sub	 esp, 28			; 0000001cH
  00006	a1 00 00 00 00	 mov	 eax, DWORD PTR ___security_cookie
  0000b	33 c5		 xor	 eax, ebp
  0000d	89 45 fc	 mov	 DWORD PTR __$ArrayPad$[ebp], eax
  00010	8b 45 08	 mov	 eax, DWORD PTR _k$[ebp]

; 136  : 		_ENCSTR(k, _k);

  00013	8a 10		 mov	 dl, BYTE PTR [eax]
  00015	53		 push	 ebx
  00016	56		 push	 esi
  00017	8b f1		 mov	 esi, ecx
  00019	84 d2		 test	 dl, dl
  0001b	0f 84 dd 01 00
	00		 je	 $LN96@LoadFloat_@2
  00021	80 f2 ed	 xor	 dl, -19			; ffffffedH
  00024	88 55 e4	 mov	 BYTE PTR __k$[ebp], dl
  00027	8a 50 01	 mov	 dl, BYTE PTR [eax+1]
  0002a	84 d2		 test	 dl, dl
  0002c	0f 84 c6 01 00
	00		 je	 $LN95@LoadFloat_@2
  00032	b3 ec		 mov	 bl, -20			; ffffffecH
  00034	32 d3		 xor	 dl, bl
  00036	88 55 e5	 mov	 BYTE PTR __k$[ebp+1], dl
  00039	8a 50 02	 mov	 dl, BYTE PTR [eax+2]
  0003c	84 d2		 test	 dl, dl
  0003e	0f 84 ae 01 00
	00		 je	 $LN94@LoadFloat_@2
  00044	b1 eb		 mov	 cl, -21			; ffffffebH
  00046	32 d1		 xor	 dl, cl
  00048	88 55 e6	 mov	 BYTE PTR __k$[ebp+2], dl
  0004b	8a 50 03	 mov	 dl, BYTE PTR [eax+3]
  0004e	84 d2		 test	 dl, dl
  00050	0f 84 96 01 00
	00		 je	 $LN93@LoadFloat_@2
  00056	80 f2 ea	 xor	 dl, -22			; ffffffeaH
  00059	88 55 e7	 mov	 BYTE PTR __k$[ebp+3], dl
  0005c	8a 50 04	 mov	 dl, BYTE PTR [eax+4]
  0005f	84 d2		 test	 dl, dl
  00061	0f 84 7f 01 00
	00		 je	 $LN92@LoadFloat_@2
  00067	80 f2 ed	 xor	 dl, -19			; ffffffedH
  0006a	88 55 e8	 mov	 BYTE PTR __k$[ebp+4], dl
  0006d	8a 50 05	 mov	 dl, BYTE PTR [eax+5]
  00070	84 d2		 test	 dl, dl
  00072	0f 84 69 01 00
	00		 je	 $LN91@LoadFloat_@2
  00078	32 d3		 xor	 dl, bl
  0007a	88 55 e9	 mov	 BYTE PTR __k$[ebp+5], dl
  0007d	8a 50 06	 mov	 dl, BYTE PTR [eax+6]
  00080	84 d2		 test	 dl, dl
  00082	0f 84 54 01 00
	00		 je	 $LN90@LoadFloat_@2
  00088	32 d1		 xor	 dl, cl
  0008a	88 55 ea	 mov	 BYTE PTR __k$[ebp+6], dl
  0008d	8a 50 07	 mov	 dl, BYTE PTR [eax+7]
  00090	84 d2		 test	 dl, dl
  00092	0f 84 3e 01 00
	00		 je	 $LN89@LoadFloat_@2
  00098	80 f2 ea	 xor	 dl, -22			; ffffffeaH
  0009b	88 55 eb	 mov	 BYTE PTR __k$[ebp+7], dl
  0009e	8a 50 08	 mov	 dl, BYTE PTR [eax+8]
  000a1	84 d2		 test	 dl, dl
  000a3	0f 84 27 01 00
	00		 je	 $LN88@LoadFloat_@2
  000a9	80 f2 ed	 xor	 dl, -19			; ffffffedH
  000ac	88 55 ec	 mov	 BYTE PTR __k$[ebp+8], dl
  000af	8a 50 09	 mov	 dl, BYTE PTR [eax+9]
  000b2	84 d2		 test	 dl, dl
  000b4	0f 84 11 01 00
	00		 je	 $LN87@LoadFloat_@2
  000ba	32 d3		 xor	 dl, bl
  000bc	88 55 ed	 mov	 BYTE PTR __k$[ebp+9], dl
  000bf	8a 50 0a	 mov	 dl, BYTE PTR [eax+10]
  000c2	84 d2		 test	 dl, dl
  000c4	0f 84 fc 00 00
	00		 je	 $LN86@LoadFloat_@2
  000ca	32 d1		 xor	 dl, cl
  000cc	88 55 ee	 mov	 BYTE PTR __k$[ebp+10], dl
  000cf	8a 50 0b	 mov	 dl, BYTE PTR [eax+11]
  000d2	84 d2		 test	 dl, dl
  000d4	0f 84 e6 00 00
	00		 je	 $LN85@LoadFloat_@2
  000da	80 f2 ea	 xor	 dl, -22			; ffffffeaH
  000dd	88 55 ef	 mov	 BYTE PTR __k$[ebp+11], dl
  000e0	8a 50 0c	 mov	 dl, BYTE PTR [eax+12]
  000e3	84 d2		 test	 dl, dl
  000e5	0f 84 cf 00 00
	00		 je	 $LN84@LoadFloat_@2
  000eb	80 f2 ed	 xor	 dl, -19			; ffffffedH
  000ee	88 55 f0	 mov	 BYTE PTR __k$[ebp+12], dl
  000f1	8a 50 0d	 mov	 dl, BYTE PTR [eax+13]
  000f4	84 d2		 test	 dl, dl
  000f6	0f 84 b9 00 00
	00		 je	 $LN83@LoadFloat_@2
  000fc	32 d3		 xor	 dl, bl
  000fe	88 55 f1	 mov	 BYTE PTR __k$[ebp+13], dl
  00101	8a 50 0e	 mov	 dl, BYTE PTR [eax+14]
  00104	84 d2		 test	 dl, dl
  00106	0f 84 a4 00 00
	00		 je	 $LN82@LoadFloat_@2
  0010c	32 d1		 xor	 dl, cl
  0010e	88 55 f2	 mov	 BYTE PTR __k$[ebp+14], dl
  00111	8a 50 0f	 mov	 dl, BYTE PTR [eax+15]
  00114	84 d2		 test	 dl, dl
  00116	0f 84 8e 00 00
	00		 je	 $LN81@LoadFloat_@2
  0011c	80 f2 ea	 xor	 dl, -22			; ffffffeaH
  0011f	88 55 f3	 mov	 BYTE PTR __k$[ebp+15], dl
  00122	8a 50 10	 mov	 dl, BYTE PTR [eax+16]
  00125	84 d2		 test	 dl, dl
  00127	74 7b		 je	 SHORT $LN80@LoadFloat_@2
  00129	80 f2 ed	 xor	 dl, -19			; ffffffedH
  0012c	88 55 f4	 mov	 BYTE PTR __k$[ebp+16], dl
  0012f	8a 50 11	 mov	 dl, BYTE PTR [eax+17]
  00132	84 d2		 test	 dl, dl
  00134	74 69		 je	 SHORT $LN79@LoadFloat_@2
  00136	32 d3		 xor	 dl, bl
  00138	88 55 f5	 mov	 BYTE PTR __k$[ebp+17], dl
  0013b	8a 50 12	 mov	 dl, BYTE PTR [eax+18]
  0013e	84 d2		 test	 dl, dl
  00140	74 58		 je	 SHORT $LN78@LoadFloat_@2
  00142	32 d1		 xor	 dl, cl
  00144	80 78 13 00	 cmp	 BYTE PTR [eax+19], 0
  00148	88 55 f6	 mov	 BYTE PTR __k$[ebp+18], dl
  0014b	0f 84 b1 00 00
	00		 je	 $LN1@LoadFloat_@2
  00151	8a 50 14	 mov	 dl, BYTE PTR [eax+20]
  00154	84 d2		 test	 dl, dl
  00156	74 3c		 je	 SHORT $LN76@LoadFloat_@2
  00158	80 f2 ed	 xor	 dl, -19			; ffffffedH
  0015b	88 55 f8	 mov	 BYTE PTR __k$[ebp+20], dl
  0015e	8a 50 15	 mov	 dl, BYTE PTR [eax+21]
  00161	84 d2		 test	 dl, dl
  00163	74 2a		 je	 SHORT $LN75@LoadFloat_@2
  00165	32 d3		 xor	 dl, bl
  00167	88 55 f9	 mov	 BYTE PTR __k$[ebp+21], dl
  0016a	8a 50 16	 mov	 dl, BYTE PTR [eax+22]
  0016d	84 d2		 test	 dl, dl
  0016f	74 19		 je	 SHORT $LN74@LoadFloat_@2
  00171	8a 40 17	 mov	 al, BYTE PTR [eax+23]
  00174	32 d1		 xor	 dl, cl
  00176	88 55 fa	 mov	 BYTE PTR __k$[ebp+22], dl
  00179	84 c0		 test	 al, al
  0017b	74 07		 je	 SHORT $LN73@LoadFloat_@2
  0017d	34 ea		 xor	 al, -22			; ffffffeaH
  0017f	88 45 fb	 mov	 BYTE PTR __k$[ebp+23], al
  00182	eb 7e		 jmp	 SHORT $LN1@LoadFloat_@2
$LN73@LoadFloat_@2:
  00184	c6 45 fb ea	 mov	 BYTE PTR __k$[ebp+23], -22 ; ffffffeaH
  00188	eb 78		 jmp	 SHORT $LN1@LoadFloat_@2
$LN74@LoadFloat_@2:
  0018a	88 4d fa	 mov	 BYTE PTR __k$[ebp+22], cl
  0018d	eb 73		 jmp	 SHORT $LN1@LoadFloat_@2
$LN75@LoadFloat_@2:
  0018f	88 5d f9	 mov	 BYTE PTR __k$[ebp+21], bl
  00192	eb 6e		 jmp	 SHORT $LN1@LoadFloat_@2
$LN76@LoadFloat_@2:
  00194	c6 45 f8 ed	 mov	 BYTE PTR __k$[ebp+20], -19 ; ffffffedH
  00198	eb 68		 jmp	 SHORT $LN1@LoadFloat_@2
$LN78@LoadFloat_@2:
  0019a	88 4d f6	 mov	 BYTE PTR __k$[ebp+18], cl
  0019d	eb 63		 jmp	 SHORT $LN1@LoadFloat_@2
$LN79@LoadFloat_@2:
  0019f	88 5d f5	 mov	 BYTE PTR __k$[ebp+17], bl
  001a2	eb 5e		 jmp	 SHORT $LN1@LoadFloat_@2
$LN80@LoadFloat_@2:
  001a4	c6 45 f4 ed	 mov	 BYTE PTR __k$[ebp+16], -19 ; ffffffedH
  001a8	eb 58		 jmp	 SHORT $LN1@LoadFloat_@2
$LN81@LoadFloat_@2:
  001aa	c6 45 f3 ea	 mov	 BYTE PTR __k$[ebp+15], -22 ; ffffffeaH
  001ae	eb 52		 jmp	 SHORT $LN1@LoadFloat_@2
$LN82@LoadFloat_@2:
  001b0	88 4d f2	 mov	 BYTE PTR __k$[ebp+14], cl
  001b3	eb 4d		 jmp	 SHORT $LN1@LoadFloat_@2
$LN83@LoadFloat_@2:
  001b5	88 5d f1	 mov	 BYTE PTR __k$[ebp+13], bl
  001b8	eb 48		 jmp	 SHORT $LN1@LoadFloat_@2
$LN84@LoadFloat_@2:
  001ba	c6 45 f0 ed	 mov	 BYTE PTR __k$[ebp+12], -19 ; ffffffedH
  001be	eb 42		 jmp	 SHORT $LN1@LoadFloat_@2
$LN85@LoadFloat_@2:
  001c0	c6 45 ef ea	 mov	 BYTE PTR __k$[ebp+11], -22 ; ffffffeaH
  001c4	eb 3c		 jmp	 SHORT $LN1@LoadFloat_@2
$LN86@LoadFloat_@2:
  001c6	88 4d ee	 mov	 BYTE PTR __k$[ebp+10], cl
  001c9	eb 37		 jmp	 SHORT $LN1@LoadFloat_@2
$LN87@LoadFloat_@2:
  001cb	88 5d ed	 mov	 BYTE PTR __k$[ebp+9], bl
  001ce	eb 32		 jmp	 SHORT $LN1@LoadFloat_@2
$LN88@LoadFloat_@2:
  001d0	c6 45 ec ed	 mov	 BYTE PTR __k$[ebp+8], -19 ; ffffffedH
  001d4	eb 2c		 jmp	 SHORT $LN1@LoadFloat_@2
$LN89@LoadFloat_@2:
  001d6	c6 45 eb ea	 mov	 BYTE PTR __k$[ebp+7], -22 ; ffffffeaH
  001da	eb 26		 jmp	 SHORT $LN1@LoadFloat_@2
$LN90@LoadFloat_@2:
  001dc	88 4d ea	 mov	 BYTE PTR __k$[ebp+6], cl
  001df	eb 21		 jmp	 SHORT $LN1@LoadFloat_@2
$LN91@LoadFloat_@2:
  001e1	88 5d e9	 mov	 BYTE PTR __k$[ebp+5], bl
  001e4	eb 1c		 jmp	 SHORT $LN1@LoadFloat_@2
$LN92@LoadFloat_@2:
  001e6	c6 45 e8 ed	 mov	 BYTE PTR __k$[ebp+4], -19 ; ffffffedH
  001ea	eb 16		 jmp	 SHORT $LN1@LoadFloat_@2
$LN93@LoadFloat_@2:
  001ec	c6 45 e7 ea	 mov	 BYTE PTR __k$[ebp+3], -22 ; ffffffeaH
  001f0	eb 10		 jmp	 SHORT $LN1@LoadFloat_@2
$LN94@LoadFloat_@2:
  001f2	c6 45 e6 eb	 mov	 BYTE PTR __k$[ebp+2], -21 ; ffffffebH
  001f6	eb 0a		 jmp	 SHORT $LN1@LoadFloat_@2
$LN95@LoadFloat_@2:
  001f8	c6 45 e5 ec	 mov	 BYTE PTR __k$[ebp+1], -20 ; ffffffecH
  001fc	eb 04		 jmp	 SHORT $LN1@LoadFloat_@2
$LN96@LoadFloat_@2:
  001fe	c6 45 e4 ed	 mov	 BYTE PTR __k$[ebp], -19	; ffffffedH
$LN1@LoadFloat_@2:
  00202	6a 04		 push	 4
  00204	8d 45 e4	 lea	 eax, DWORD PTR __k$[ebp]
  00207	c6 45 f7 00	 mov	 BYTE PTR __k$[ebp+19], 0
  0020b	5a		 pop	 edx
$LL104@LoadFloat_@2:
  0020c	81 30 ed ec eb
	ea		 xor	 DWORD PTR [eax], -353637139 ; eaebecedH
  00212	83 c0 04	 add	 eax, 4
  00215	4a		 dec	 edx
  00216	75 f4		 jne	 SHORT $LL104@LoadFloat_@2
  00218	6a 10		 push	 16			; 00000010H
  0021a	58		 pop	 eax
$LL101@LoadFloat_@2:
  0021b	8b c8		 mov	 ecx, eax
  0021d	81 e1 03 00 00
	80		 and	 ecx, -2147483645	; 80000003H
  00223	79 05		 jns	 SHORT $LN111@LoadFloat_@2
  00225	49		 dec	 ecx
  00226	83 c9 fc	 or	 ecx, -4			; fffffffcH
  00229	41		 inc	 ecx
$LN111@LoadFloat_@2:
  0022a	b2 ed		 mov	 dl, -19			; ffffffedH
  0022c	2a d1		 sub	 dl, cl
  0022e	30 54 05 e4	 xor	 BYTE PTR __k$[ebp+eax], dl
  00232	40		 inc	 eax
  00233	83 f8 13	 cmp	 eax, 19			; 00000013H
  00236	7c e3		 jl	 SHORT $LL101@LoadFloat_@2

; 137  : 		return LoadFloat(_k, f);

  00238	f3 0f 10 45 0c	 movss	 xmm0, DWORD PTR _f$[ebp]
  0023d	51		 push	 ecx
  0023e	8d 45 e4	 lea	 eax, DWORD PTR __k$[ebp]
  00241	f3 0f 11 04 24	 movss	 DWORD PTR [esp], xmm0
  00246	50		 push	 eax
  00247	8b ce		 mov	 ecx, esi
  00249	ff 15 00 00 00
	00		 call	 DWORD PTR __imp_?LoadFloat@ioINILoader@@QAEMPBDM@Z

; 138  : 	}

  0024f	8b 4d fc	 mov	 ecx, DWORD PTR __$ArrayPad$[ebp]
  00252	5e		 pop	 esi
  00253	33 cd		 xor	 ecx, ebp
  00255	5b		 pop	 ebx
  00256	e8 00 00 00 00	 call	 @__security_check_cookie@4
  0025b	c9		 leave
  0025c	c2 08 00	 ret	 8
??$LoadFloat_e@$0BE@@ioINILoader@@QAEMAAY0BE@$$CBDM@Z ENDP ; ioINILoader::LoadFloat_e<20>
_TEXT	ENDS
PUBLIC	__$ArrayPad$
PUBLIC	??$LoadInt_e@$0BE@@ioINILoader@@QAEHAAY0BE@$$CBDH@Z ; ioINILoader::LoadInt_e<20>
; Function compile flags: /Ogsp
;	COMDAT ??$LoadInt_e@$0BE@@ioINILoader@@QAEHAAY0BE@$$CBDH@Z
_TEXT	SEGMENT
__k$ = -28						; size = 20
__$ArrayPad$ = -4					; size = 4
_k$ = 8							; size = 4
_i$ = 12						; size = 4
??$LoadInt_e@$0BE@@ioINILoader@@QAEHAAY0BE@$$CBDH@Z PROC ; ioINILoader::LoadInt_e<20>, COMDAT
; _this$ = ecx

; 118  : 	{

  00000	55		 push	 ebp
  00001	8b ec		 mov	 ebp, esp
  00003	83 ec 1c	 sub	 esp, 28			; 0000001cH
  00006	a1 00 00 00 00	 mov	 eax, DWORD PTR ___security_cookie
  0000b	33 c5		 xor	 eax, ebp
  0000d	89 45 fc	 mov	 DWORD PTR __$ArrayPad$[ebp], eax
  00010	8b 45 08	 mov	 eax, DWORD PTR _k$[ebp]

; 119  : 		_ENCSTR(k, _k);

  00013	8a 10		 mov	 dl, BYTE PTR [eax]
  00015	53		 push	 ebx
  00016	56		 push	 esi
  00017	8b f1		 mov	 esi, ecx
  00019	84 d2		 test	 dl, dl
  0001b	0f 84 dd 01 00
	00		 je	 $LN96@LoadInt_e@2
  00021	80 f2 ed	 xor	 dl, -19			; ffffffedH
  00024	88 55 e4	 mov	 BYTE PTR __k$[ebp], dl
  00027	8a 50 01	 mov	 dl, BYTE PTR [eax+1]
  0002a	84 d2		 test	 dl, dl
  0002c	0f 84 c6 01 00
	00		 je	 $LN95@LoadInt_e@2
  00032	b3 ec		 mov	 bl, -20			; ffffffecH
  00034	32 d3		 xor	 dl, bl
  00036	88 55 e5	 mov	 BYTE PTR __k$[ebp+1], dl
  00039	8a 50 02	 mov	 dl, BYTE PTR [eax+2]
  0003c	84 d2		 test	 dl, dl
  0003e	0f 84 ae 01 00
	00		 je	 $LN94@LoadInt_e@2
  00044	b1 eb		 mov	 cl, -21			; ffffffebH
  00046	32 d1		 xor	 dl, cl
  00048	88 55 e6	 mov	 BYTE PTR __k$[ebp+2], dl
  0004b	8a 50 03	 mov	 dl, BYTE PTR [eax+3]
  0004e	84 d2		 test	 dl, dl
  00050	0f 84 96 01 00
	00		 je	 $LN93@LoadInt_e@2
  00056	80 f2 ea	 xor	 dl, -22			; ffffffeaH
  00059	88 55 e7	 mov	 BYTE PTR __k$[ebp+3], dl
  0005c	8a 50 04	 mov	 dl, BYTE PTR [eax+4]
  0005f	84 d2		 test	 dl, dl
  00061	0f 84 7f 01 00
	00		 je	 $LN92@LoadInt_e@2
  00067	80 f2 ed	 xor	 dl, -19			; ffffffedH
  0006a	88 55 e8	 mov	 BYTE PTR __k$[ebp+4], dl
  0006d	8a 50 05	 mov	 dl, BYTE PTR [eax+5]
  00070	84 d2		 test	 dl, dl
  00072	0f 84 69 01 00
	00		 je	 $LN91@LoadInt_e@2
  00078	32 d3		 xor	 dl, bl
  0007a	88 55 e9	 mov	 BYTE PTR __k$[ebp+5], dl
  0007d	8a 50 06	 mov	 dl, BYTE PTR [eax+6]
  00080	84 d2		 test	 dl, dl
  00082	0f 84 54 01 00
	00		 je	 $LN90@LoadInt_e@2
  00088	32 d1		 xor	 dl, cl
  0008a	88 55 ea	 mov	 BYTE PTR __k$[ebp+6], dl
  0008d	8a 50 07	 mov	 dl, BYTE PTR [eax+7]
  00090	84 d2		 test	 dl, dl
  00092	0f 84 3e 01 00
	00		 je	 $LN89@LoadInt_e@2
  00098	80 f2 ea	 xor	 dl, -22			; ffffffeaH
  0009b	88 55 eb	 mov	 BYTE PTR __k$[ebp+7], dl
  0009e	8a 50 08	 mov	 dl, BYTE PTR [eax+8]
  000a1	84 d2		 test	 dl, dl
  000a3	0f 84 27 01 00
	00		 je	 $LN88@LoadInt_e@2
  000a9	80 f2 ed	 xor	 dl, -19			; ffffffedH
  000ac	88 55 ec	 mov	 BYTE PTR __k$[ebp+8], dl
  000af	8a 50 09	 mov	 dl, BYTE PTR [eax+9]
  000b2	84 d2		 test	 dl, dl
  000b4	0f 84 11 01 00
	00		 je	 $LN87@LoadInt_e@2
  000ba	32 d3		 xor	 dl, bl
  000bc	88 55 ed	 mov	 BYTE PTR __k$[ebp+9], dl
  000bf	8a 50 0a	 mov	 dl, BYTE PTR [eax+10]
  000c2	84 d2		 test	 dl, dl
  000c4	0f 84 fc 00 00
	00		 je	 $LN86@LoadInt_e@2
  000ca	32 d1		 xor	 dl, cl
  000cc	88 55 ee	 mov	 BYTE PTR __k$[ebp+10], dl
  000cf	8a 50 0b	 mov	 dl, BYTE PTR [eax+11]
  000d2	84 d2		 test	 dl, dl
  000d4	0f 84 e6 00 00
	00		 je	 $LN85@LoadInt_e@2
  000da	80 f2 ea	 xor	 dl, -22			; ffffffeaH
  000dd	88 55 ef	 mov	 BYTE PTR __k$[ebp+11], dl
  000e0	8a 50 0c	 mov	 dl, BYTE PTR [eax+12]
  000e3	84 d2		 test	 dl, dl
  000e5	0f 84 cf 00 00
	00		 je	 $LN84@LoadInt_e@2
  000eb	80 f2 ed	 xor	 dl, -19			; ffffffedH
  000ee	88 55 f0	 mov	 BYTE PTR __k$[ebp+12], dl
  000f1	8a 50 0d	 mov	 dl, BYTE PTR [eax+13]
  000f4	84 d2		 test	 dl, dl
  000f6	0f 84 b9 00 00
	00		 je	 $LN83@LoadInt_e@2
  000fc	32 d3		 xor	 dl, bl
  000fe	88 55 f1	 mov	 BYTE PTR __k$[ebp+13], dl
  00101	8a 50 0e	 mov	 dl, BYTE PTR [eax+14]
  00104	84 d2		 test	 dl, dl
  00106	0f 84 a4 00 00
	00		 je	 $LN82@LoadInt_e@2
  0010c	32 d1		 xor	 dl, cl
  0010e	88 55 f2	 mov	 BYTE PTR __k$[ebp+14], dl
  00111	8a 50 0f	 mov	 dl, BYTE PTR [eax+15]
  00114	84 d2		 test	 dl, dl
  00116	0f 84 8e 00 00
	00		 je	 $LN81@LoadInt_e@2
  0011c	80 f2 ea	 xor	 dl, -22			; ffffffeaH
  0011f	88 55 f3	 mov	 BYTE PTR __k$[ebp+15], dl
  00122	8a 50 10	 mov	 dl, BYTE PTR [eax+16]
  00125	84 d2		 test	 dl, dl
  00127	74 7b		 je	 SHORT $LN80@LoadInt_e@2
  00129	80 f2 ed	 xor	 dl, -19			; ffffffedH
  0012c	88 55 f4	 mov	 BYTE PTR __k$[ebp+16], dl
  0012f	8a 50 11	 mov	 dl, BYTE PTR [eax+17]
  00132	84 d2		 test	 dl, dl
  00134	74 69		 je	 SHORT $LN79@LoadInt_e@2
  00136	32 d3		 xor	 dl, bl
  00138	88 55 f5	 mov	 BYTE PTR __k$[ebp+17], dl
  0013b	8a 50 12	 mov	 dl, BYTE PTR [eax+18]
  0013e	84 d2		 test	 dl, dl
  00140	74 58		 je	 SHORT $LN78@LoadInt_e@2
  00142	32 d1		 xor	 dl, cl
  00144	80 78 13 00	 cmp	 BYTE PTR [eax+19], 0
  00148	88 55 f6	 mov	 BYTE PTR __k$[ebp+18], dl
  0014b	0f 84 b1 00 00
	00		 je	 $LN1@LoadInt_e@2
  00151	8a 50 14	 mov	 dl, BYTE PTR [eax+20]
  00154	84 d2		 test	 dl, dl
  00156	74 3c		 je	 SHORT $LN76@LoadInt_e@2
  00158	80 f2 ed	 xor	 dl, -19			; ffffffedH
  0015b	88 55 f8	 mov	 BYTE PTR __k$[ebp+20], dl
  0015e	8a 50 15	 mov	 dl, BYTE PTR [eax+21]
  00161	84 d2		 test	 dl, dl
  00163	74 2a		 je	 SHORT $LN75@LoadInt_e@2
  00165	32 d3		 xor	 dl, bl
  00167	88 55 f9	 mov	 BYTE PTR __k$[ebp+21], dl
  0016a	8a 50 16	 mov	 dl, BYTE PTR [eax+22]
  0016d	84 d2		 test	 dl, dl
  0016f	74 19		 je	 SHORT $LN74@LoadInt_e@2
  00171	8a 40 17	 mov	 al, BYTE PTR [eax+23]
  00174	32 d1		 xor	 dl, cl
  00176	88 55 fa	 mov	 BYTE PTR __k$[ebp+22], dl
  00179	84 c0		 test	 al, al
  0017b	74 07		 je	 SHORT $LN73@LoadInt_e@2
  0017d	34 ea		 xor	 al, -22			; ffffffeaH
  0017f	88 45 fb	 mov	 BYTE PTR __k$[ebp+23], al
  00182	eb 7e		 jmp	 SHORT $LN1@LoadInt_e@2
$LN73@LoadInt_e@2:
  00184	c6 45 fb ea	 mov	 BYTE PTR __k$[ebp+23], -22 ; ffffffeaH
  00188	eb 78		 jmp	 SHORT $LN1@LoadInt_e@2
$LN74@LoadInt_e@2:
  0018a	88 4d fa	 mov	 BYTE PTR __k$[ebp+22], cl
  0018d	eb 73		 jmp	 SHORT $LN1@LoadInt_e@2
$LN75@LoadInt_e@2:
  0018f	88 5d f9	 mov	 BYTE PTR __k$[ebp+21], bl
  00192	eb 6e		 jmp	 SHORT $LN1@LoadInt_e@2
$LN76@LoadInt_e@2:
  00194	c6 45 f8 ed	 mov	 BYTE PTR __k$[ebp+20], -19 ; ffffffedH
  00198	eb 68		 jmp	 SHORT $LN1@LoadInt_e@2
$LN78@LoadInt_e@2:
  0019a	88 4d f6	 mov	 BYTE PTR __k$[ebp+18], cl
  0019d	eb 63		 jmp	 SHORT $LN1@LoadInt_e@2
$LN79@LoadInt_e@2:
  0019f	88 5d f5	 mov	 BYTE PTR __k$[ebp+17], bl
  001a2	eb 5e		 jmp	 SHORT $LN1@LoadInt_e@2
$LN80@LoadInt_e@2:
  001a4	c6 45 f4 ed	 mov	 BYTE PTR __k$[ebp+16], -19 ; ffffffedH
  001a8	eb 58		 jmp	 SHORT $LN1@LoadInt_e@2
$LN81@LoadInt_e@2:
  001aa	c6 45 f3 ea	 mov	 BYTE PTR __k$[ebp+15], -22 ; ffffffeaH
  001ae	eb 52		 jmp	 SHORT $LN1@LoadInt_e@2
$LN82@LoadInt_e@2:
  001b0	88 4d f2	 mov	 BYTE PTR __k$[ebp+14], cl
  001b3	eb 4d		 jmp	 SHORT $LN1@LoadInt_e@2
$LN83@LoadInt_e@2:
  001b5	88 5d f1	 mov	 BYTE PTR __k$[ebp+13], bl
  001b8	eb 48		 jmp	 SHORT $LN1@LoadInt_e@2
$LN84@LoadInt_e@2:
  001ba	c6 45 f0 ed	 mov	 BYTE PTR __k$[ebp+12], -19 ; ffffffedH
  001be	eb 42		 jmp	 SHORT $LN1@LoadInt_e@2
$LN85@LoadInt_e@2:
  001c0	c6 45 ef ea	 mov	 BYTE PTR __k$[ebp+11], -22 ; ffffffeaH
  001c4	eb 3c		 jmp	 SHORT $LN1@LoadInt_e@2
$LN86@LoadInt_e@2:
  001c6	88 4d ee	 mov	 BYTE PTR __k$[ebp+10], cl
  001c9	eb 37		 jmp	 SHORT $LN1@LoadInt_e@2
$LN87@LoadInt_e@2:
  001cb	88 5d ed	 mov	 BYTE PTR __k$[ebp+9], bl
  001ce	eb 32		 jmp	 SHORT $LN1@LoadInt_e@2
$LN88@LoadInt_e@2:
  001d0	c6 45 ec ed	 mov	 BYTE PTR __k$[ebp+8], -19 ; ffffffedH
  001d4	eb 2c		 jmp	 SHORT $LN1@LoadInt_e@2
$LN89@LoadInt_e@2:
  001d6	c6 45 eb ea	 mov	 BYTE PTR __k$[ebp+7], -22 ; ffffffeaH
  001da	eb 26		 jmp	 SHORT $LN1@LoadInt_e@2
$LN90@LoadInt_e@2:
  001dc	88 4d ea	 mov	 BYTE PTR __k$[ebp+6], cl
  001df	eb 21		 jmp	 SHORT $LN1@LoadInt_e@2
$LN91@LoadInt_e@2:
  001e1	88 5d e9	 mov	 BYTE PTR __k$[ebp+5], bl
  001e4	eb 1c		 jmp	 SHORT $LN1@LoadInt_e@2
$LN92@LoadInt_e@2:
  001e6	c6 45 e8 ed	 mov	 BYTE PTR __k$[ebp+4], -19 ; ffffffedH
  001ea	eb 16		 jmp	 SHORT $LN1@LoadInt_e@2
$LN93@LoadInt_e@2:
  001ec	c6 45 e7 ea	 mov	 BYTE PTR __k$[ebp+3], -22 ; ffffffeaH
  001f0	eb 10		 jmp	 SHORT $LN1@LoadInt_e@2
$LN94@LoadInt_e@2:
  001f2	c6 45 e6 eb	 mov	 BYTE PTR __k$[ebp+2], -21 ; ffffffebH
  001f6	eb 0a		 jmp	 SHORT $LN1@LoadInt_e@2
$LN95@LoadInt_e@2:
  001f8	c6 45 e5 ec	 mov	 BYTE PTR __k$[ebp+1], -20 ; ffffffecH
  001fc	eb 04		 jmp	 SHORT $LN1@LoadInt_e@2
$LN96@LoadInt_e@2:
  001fe	c6 45 e4 ed	 mov	 BYTE PTR __k$[ebp], -19	; ffffffedH
$LN1@LoadInt_e@2:
  00202	6a 04		 push	 4
  00204	8d 45 e4	 lea	 eax, DWORD PTR __k$[ebp]
  00207	c6 45 f7 00	 mov	 BYTE PTR __k$[ebp+19], 0
  0020b	5a		 pop	 edx
$LL104@LoadInt_e@2:
  0020c	81 30 ed ec eb
	ea		 xor	 DWORD PTR [eax], -353637139 ; eaebecedH
  00212	83 c0 04	 add	 eax, 4
  00215	4a		 dec	 edx
  00216	75 f4		 jne	 SHORT $LL104@LoadInt_e@2
  00218	6a 10		 push	 16			; 00000010H
  0021a	58		 pop	 eax
$LL101@LoadInt_e@2:
  0021b	8b c8		 mov	 ecx, eax
  0021d	81 e1 03 00 00
	80		 and	 ecx, -2147483645	; 80000003H
  00223	79 05		 jns	 SHORT $LN111@LoadInt_e@2
  00225	49		 dec	 ecx
  00226	83 c9 fc	 or	 ecx, -4			; fffffffcH
  00229	41		 inc	 ecx
$LN111@LoadInt_e@2:
  0022a	b2 ed		 mov	 dl, -19			; ffffffedH
  0022c	2a d1		 sub	 dl, cl
  0022e	30 54 05 e4	 xor	 BYTE PTR __k$[ebp+eax], dl
  00232	40		 inc	 eax
  00233	83 f8 13	 cmp	 eax, 19			; 00000013H
  00236	7c e3		 jl	 SHORT $LL101@LoadInt_e@2

; 120  : 		return LoadInt(_k, i);

  00238	ff 75 0c	 push	 DWORD PTR _i$[ebp]
  0023b	8d 45 e4	 lea	 eax, DWORD PTR __k$[ebp]
  0023e	50		 push	 eax
  0023f	8b ce		 mov	 ecx, esi
  00241	ff 15 00 00 00
	00		 call	 DWORD PTR __imp_?LoadInt@ioINILoader@@QAEHPBDH@Z

; 121  : 	}

  00247	8b 4d fc	 mov	 ecx, DWORD PTR __$ArrayPad$[ebp]
  0024a	5e		 pop	 esi
  0024b	33 cd		 xor	 ecx, ebp
  0024d	5b		 pop	 ebx
  0024e	e8 00 00 00 00	 call	 @__security_check_cookie@4
  00253	c9		 leave
  00254	c2 08 00	 ret	 8
??$LoadInt_e@$0BE@@ioINILoader@@QAEHAAY0BE@$$CBDH@Z ENDP ; ioINILoader::LoadInt_e<20>
_TEXT	ENDS
PUBLIC	__$ArrayPad$
PUBLIC	??$LoadInt_e@$0L@@ioINILoader@@QAEHAAY0L@$$CBDH@Z ; ioINILoader::LoadInt_e<11>
; Function compile flags: /Ogsp
;	COMDAT ??$LoadInt_e@$0L@@ioINILoader@@QAEHAAY0L@$$CBDH@Z
_TEXT	SEGMENT
__k$ = -20						; size = 11
__$ArrayPad$ = -4					; size = 4
_k$ = 8							; size = 4
_i$ = 12						; size = 4
??$LoadInt_e@$0L@@ioINILoader@@QAEHAAY0L@$$CBDH@Z PROC	; ioINILoader::LoadInt_e<11>, COMDAT
; _this$ = ecx

; 118  : 	{

  00000	55		 push	 ebp
  00001	8b ec		 mov	 ebp, esp
  00003	83 ec 14	 sub	 esp, 20			; 00000014H
  00006	a1 00 00 00 00	 mov	 eax, DWORD PTR ___security_cookie
  0000b	33 c5		 xor	 eax, ebp
  0000d	89 45 fc	 mov	 DWORD PTR __$ArrayPad$[ebp], eax
  00010	8b 45 08	 mov	 eax, DWORD PTR _k$[ebp]

; 119  : 		_ENCSTR(k, _k);

  00013	8a 10		 mov	 dl, BYTE PTR [eax]
  00015	56		 push	 esi
  00016	8b f1		 mov	 esi, ecx
  00018	84 d2		 test	 dl, dl
  0001a	0f 84 24 01 00
	00		 je	 $LN96@LoadInt_e@3
  00020	80 f2 ed	 xor	 dl, -19			; ffffffedH
  00023	88 55 ec	 mov	 BYTE PTR __k$[ebp], dl
  00026	8a 50 01	 mov	 dl, BYTE PTR [eax+1]
  00029	84 d2		 test	 dl, dl
  0002b	0f 84 0d 01 00
	00		 je	 $LN95@LoadInt_e@3
  00031	80 f2 ec	 xor	 dl, -20			; ffffffecH
  00034	88 55 ed	 mov	 BYTE PTR __k$[ebp+1], dl
  00037	8a 50 02	 mov	 dl, BYTE PTR [eax+2]
  0003a	84 d2		 test	 dl, dl
  0003c	0f 84 f6 00 00
	00		 je	 $LN94@LoadInt_e@3
  00042	80 f2 eb	 xor	 dl, -21			; ffffffebH
  00045	88 55 ee	 mov	 BYTE PTR __k$[ebp+2], dl
  00048	8a 50 03	 mov	 dl, BYTE PTR [eax+3]
  0004b	84 d2		 test	 dl, dl
  0004d	0f 84 df 00 00
	00		 je	 $LN93@LoadInt_e@3
  00053	80 f2 ea	 xor	 dl, -22			; ffffffeaH
  00056	88 55 ef	 mov	 BYTE PTR __k$[ebp+3], dl
  00059	8a 50 04	 mov	 dl, BYTE PTR [eax+4]
  0005c	84 d2		 test	 dl, dl
  0005e	0f 84 c8 00 00
	00		 je	 $LN92@LoadInt_e@3
  00064	80 f2 ed	 xor	 dl, -19			; ffffffedH
  00067	88 55 f0	 mov	 BYTE PTR __k$[ebp+4], dl
  0006a	8a 50 05	 mov	 dl, BYTE PTR [eax+5]
  0006d	84 d2		 test	 dl, dl
  0006f	0f 84 b1 00 00
	00		 je	 $LN91@LoadInt_e@3
  00075	80 f2 ec	 xor	 dl, -20			; ffffffecH
  00078	88 55 f1	 mov	 BYTE PTR __k$[ebp+5], dl
  0007b	8a 50 06	 mov	 dl, BYTE PTR [eax+6]
  0007e	84 d2		 test	 dl, dl
  00080	0f 84 9a 00 00
	00		 je	 $LN90@LoadInt_e@3
  00086	80 f2 eb	 xor	 dl, -21			; ffffffebH
  00089	88 55 f2	 mov	 BYTE PTR __k$[ebp+6], dl
  0008c	8a 50 07	 mov	 dl, BYTE PTR [eax+7]
  0008f	84 d2		 test	 dl, dl
  00091	0f 84 83 00 00
	00		 je	 $LN89@LoadInt_e@3
  00097	80 f2 ea	 xor	 dl, -22			; ffffffeaH
  0009a	88 55 f3	 mov	 BYTE PTR __k$[ebp+7], dl
  0009d	8a 50 08	 mov	 dl, BYTE PTR [eax+8]
  000a0	84 d2		 test	 dl, dl
  000a2	74 70		 je	 SHORT $LN88@LoadInt_e@3
  000a4	80 f2 ed	 xor	 dl, -19			; ffffffedH
  000a7	88 55 f4	 mov	 BYTE PTR __k$[ebp+8], dl
  000aa	8a 50 09	 mov	 dl, BYTE PTR [eax+9]
  000ad	84 d2		 test	 dl, dl
  000af	74 5d		 je	 SHORT $LN87@LoadInt_e@3
  000b1	80 f2 ec	 xor	 dl, -20			; ffffffecH
  000b4	80 78 0a 00	 cmp	 BYTE PTR [eax+10], 0
  000b8	88 55 f5	 mov	 BYTE PTR __k$[ebp+9], dl
  000bb	0f 84 87 00 00
	00		 je	 $LN1@LoadInt_e@3
  000c1	8a 50 0b	 mov	 dl, BYTE PTR [eax+11]
  000c4	84 d2		 test	 dl, dl
  000c6	74 40		 je	 SHORT $LN85@LoadInt_e@3
  000c8	80 f2 ea	 xor	 dl, -22			; ffffffeaH
  000cb	88 55 f7	 mov	 BYTE PTR __k$[ebp+11], dl
  000ce	8a 50 0c	 mov	 dl, BYTE PTR [eax+12]
  000d1	84 d2		 test	 dl, dl
  000d3	74 2d		 je	 SHORT $LN84@LoadInt_e@3
  000d5	80 f2 ed	 xor	 dl, -19			; ffffffedH
  000d8	88 55 f8	 mov	 BYTE PTR __k$[ebp+12], dl
  000db	8a 50 0d	 mov	 dl, BYTE PTR [eax+13]
  000de	84 d2		 test	 dl, dl
  000e0	74 1a		 je	 SHORT $LN83@LoadInt_e@3
  000e2	8a 40 0e	 mov	 al, BYTE PTR [eax+14]
  000e5	80 f2 ec	 xor	 dl, -20			; ffffffecH
  000e8	88 55 f9	 mov	 BYTE PTR __k$[ebp+13], dl
  000eb	84 c0		 test	 al, al
  000ed	74 07		 je	 SHORT $LN82@LoadInt_e@3
  000ef	34 eb		 xor	 al, -21			; ffffffebH
  000f1	88 45 fa	 mov	 BYTE PTR __k$[ebp+14], al
  000f4	eb 52		 jmp	 SHORT $LN1@LoadInt_e@3
$LN82@LoadInt_e@3:
  000f6	c6 45 fa eb	 mov	 BYTE PTR __k$[ebp+14], -21 ; ffffffebH
  000fa	eb 4c		 jmp	 SHORT $LN1@LoadInt_e@3
$LN83@LoadInt_e@3:
  000fc	c6 45 f9 ec	 mov	 BYTE PTR __k$[ebp+13], -20 ; ffffffecH
  00100	eb 46		 jmp	 SHORT $LN1@LoadInt_e@3
$LN84@LoadInt_e@3:
  00102	c6 45 f8 ed	 mov	 BYTE PTR __k$[ebp+12], -19 ; ffffffedH
  00106	eb 40		 jmp	 SHORT $LN1@LoadInt_e@3
$LN85@LoadInt_e@3:
  00108	c6 45 f7 ea	 mov	 BYTE PTR __k$[ebp+11], -22 ; ffffffeaH
  0010c	eb 3a		 jmp	 SHORT $LN1@LoadInt_e@3
$LN87@LoadInt_e@3:
  0010e	c6 45 f5 ec	 mov	 BYTE PTR __k$[ebp+9], -20 ; ffffffecH
  00112	eb 34		 jmp	 SHORT $LN1@LoadInt_e@3
$LN88@LoadInt_e@3:
  00114	c6 45 f4 ed	 mov	 BYTE PTR __k$[ebp+8], -19 ; ffffffedH
  00118	eb 2e		 jmp	 SHORT $LN1@LoadInt_e@3
$LN89@LoadInt_e@3:
  0011a	c6 45 f3 ea	 mov	 BYTE PTR __k$[ebp+7], -22 ; ffffffeaH
  0011e	eb 28		 jmp	 SHORT $LN1@LoadInt_e@3
$LN90@LoadInt_e@3:
  00120	c6 45 f2 eb	 mov	 BYTE PTR __k$[ebp+6], -21 ; ffffffebH
  00124	eb 22		 jmp	 SHORT $LN1@LoadInt_e@3
$LN91@LoadInt_e@3:
  00126	c6 45 f1 ec	 mov	 BYTE PTR __k$[ebp+5], -20 ; ffffffecH
  0012a	eb 1c		 jmp	 SHORT $LN1@LoadInt_e@3
$LN92@LoadInt_e@3:
  0012c	c6 45 f0 ed	 mov	 BYTE PTR __k$[ebp+4], -19 ; ffffffedH
  00130	eb 16		 jmp	 SHORT $LN1@LoadInt_e@3
$LN93@LoadInt_e@3:
  00132	c6 45 ef ea	 mov	 BYTE PTR __k$[ebp+3], -22 ; ffffffeaH
  00136	eb 10		 jmp	 SHORT $LN1@LoadInt_e@3
$LN94@LoadInt_e@3:
  00138	c6 45 ee eb	 mov	 BYTE PTR __k$[ebp+2], -21 ; ffffffebH
  0013c	eb 0a		 jmp	 SHORT $LN1@LoadInt_e@3
$LN95@LoadInt_e@3:
  0013e	c6 45 ed ec	 mov	 BYTE PTR __k$[ebp+1], -20 ; ffffffecH
  00142	eb 04		 jmp	 SHORT $LN1@LoadInt_e@3
$LN96@LoadInt_e@3:
  00144	c6 45 ec ed	 mov	 BYTE PTR __k$[ebp], -19	; ffffffedH
$LN1@LoadInt_e@3:
  00148	6a 02		 push	 2
  0014a	8d 45 ec	 lea	 eax, DWORD PTR __k$[ebp]
  0014d	c6 45 f6 00	 mov	 BYTE PTR __k$[ebp+10], 0
  00151	5a		 pop	 edx
$LL104@LoadInt_e@3:
  00152	81 30 ed ec eb
	ea		 xor	 DWORD PTR [eax], -353637139 ; eaebecedH
  00158	83 c0 04	 add	 eax, 4
  0015b	4a		 dec	 edx
  0015c	75 f4		 jne	 SHORT $LL104@LoadInt_e@3
  0015e	6a 08		 push	 8
  00160	58		 pop	 eax
$LL101@LoadInt_e@3:
  00161	8b c8		 mov	 ecx, eax
  00163	81 e1 03 00 00
	80		 and	 ecx, -2147483645	; 80000003H
  00169	79 05		 jns	 SHORT $LN111@LoadInt_e@3
  0016b	49		 dec	 ecx
  0016c	83 c9 fc	 or	 ecx, -4			; fffffffcH
  0016f	41		 inc	 ecx
$LN111@LoadInt_e@3:
  00170	b2 ed		 mov	 dl, -19			; ffffffedH
  00172	2a d1		 sub	 dl, cl
  00174	30 54 05 ec	 xor	 BYTE PTR __k$[ebp+eax], dl
  00178	40		 inc	 eax
  00179	83 f8 0a	 cmp	 eax, 10			; 0000000aH
  0017c	7c e3		 jl	 SHORT $LL101@LoadInt_e@3

; 120  : 		return LoadInt(_k, i);

  0017e	ff 75 0c	 push	 DWORD PTR _i$[ebp]
  00181	8d 45 ec	 lea	 eax, DWORD PTR __k$[ebp]
  00184	50		 push	 eax
  00185	8b ce		 mov	 ecx, esi
  00187	ff 15 00 00 00
	00		 call	 DWORD PTR __imp_?LoadInt@ioINILoader@@QAEHPBDH@Z

; 121  : 	}

  0018d	8b 4d fc	 mov	 ecx, DWORD PTR __$ArrayPad$[ebp]
  00190	33 cd		 xor	 ecx, ebp
  00192	5e		 pop	 esi
  00193	e8 00 00 00 00	 call	 @__security_check_cookie@4
  00198	c9		 leave
  00199	c2 08 00	 ret	 8
??$LoadInt_e@$0L@@ioINILoader@@QAEHAAY0L@$$CBDH@Z ENDP	; ioINILoader::LoadInt_e<11>
_TEXT	ENDS
PUBLIC	__$ArrayPad$
PUBLIC	??$LoadFloat_e@$0L@@ioINILoader@@QAEMAAY0L@$$CBDM@Z ; ioINILoader::LoadFloat_e<11>
; Function compile flags: /Ogsp
;	COMDAT ??$LoadFloat_e@$0L@@ioINILoader@@QAEMAAY0L@$$CBDM@Z
_TEXT	SEGMENT
__k$ = -20						; size = 11
__$ArrayPad$ = -4					; size = 4
_k$ = 8							; size = 4
_f$ = 12						; size = 4
??$LoadFloat_e@$0L@@ioINILoader@@QAEMAAY0L@$$CBDM@Z PROC ; ioINILoader::LoadFloat_e<11>, COMDAT
; _this$ = ecx

; 135  : 	{

  00000	55		 push	 ebp
  00001	8b ec		 mov	 ebp, esp
  00003	83 ec 14	 sub	 esp, 20			; 00000014H
  00006	a1 00 00 00 00	 mov	 eax, DWORD PTR ___security_cookie
  0000b	33 c5		 xor	 eax, ebp
  0000d	89 45 fc	 mov	 DWORD PTR __$ArrayPad$[ebp], eax
  00010	8b 45 08	 mov	 eax, DWORD PTR _k$[ebp]

; 136  : 		_ENCSTR(k, _k);

  00013	8a 10		 mov	 dl, BYTE PTR [eax]
  00015	56		 push	 esi
  00016	8b f1		 mov	 esi, ecx
  00018	84 d2		 test	 dl, dl
  0001a	0f 84 24 01 00
	00		 je	 $LN96@LoadFloat_@3
  00020	80 f2 ed	 xor	 dl, -19			; ffffffedH
  00023	88 55 ec	 mov	 BYTE PTR __k$[ebp], dl
  00026	8a 50 01	 mov	 dl, BYTE PTR [eax+1]
  00029	84 d2		 test	 dl, dl
  0002b	0f 84 0d 01 00
	00		 je	 $LN95@LoadFloat_@3
  00031	80 f2 ec	 xor	 dl, -20			; ffffffecH
  00034	88 55 ed	 mov	 BYTE PTR __k$[ebp+1], dl
  00037	8a 50 02	 mov	 dl, BYTE PTR [eax+2]
  0003a	84 d2		 test	 dl, dl
  0003c	0f 84 f6 00 00
	00		 je	 $LN94@LoadFloat_@3
  00042	80 f2 eb	 xor	 dl, -21			; ffffffebH
  00045	88 55 ee	 mov	 BYTE PTR __k$[ebp+2], dl
  00048	8a 50 03	 mov	 dl, BYTE PTR [eax+3]
  0004b	84 d2		 test	 dl, dl
  0004d	0f 84 df 00 00
	00		 je	 $LN93@LoadFloat_@3
  00053	80 f2 ea	 xor	 dl, -22			; ffffffeaH
  00056	88 55 ef	 mov	 BYTE PTR __k$[ebp+3], dl
  00059	8a 50 04	 mov	 dl, BYTE PTR [eax+4]
  0005c	84 d2		 test	 dl, dl
  0005e	0f 84 c8 00 00
	00		 je	 $LN92@LoadFloat_@3
  00064	80 f2 ed	 xor	 dl, -19			; ffffffedH
  00067	88 55 f0	 mov	 BYTE PTR __k$[ebp+4], dl
  0006a	8a 50 05	 mov	 dl, BYTE PTR [eax+5]
  0006d	84 d2		 test	 dl, dl
  0006f	0f 84 b1 00 00
	00		 je	 $LN91@LoadFloat_@3
  00075	80 f2 ec	 xor	 dl, -20			; ffffffecH
  00078	88 55 f1	 mov	 BYTE PTR __k$[ebp+5], dl
  0007b	8a 50 06	 mov	 dl, BYTE PTR [eax+6]
  0007e	84 d2		 test	 dl, dl
  00080	0f 84 9a 00 00
	00		 je	 $LN90@LoadFloat_@3
  00086	80 f2 eb	 xor	 dl, -21			; ffffffebH
  00089	88 55 f2	 mov	 BYTE PTR __k$[ebp+6], dl
  0008c	8a 50 07	 mov	 dl, BYTE PTR [eax+7]
  0008f	84 d2		 test	 dl, dl
  00091	0f 84 83 00 00
	00		 je	 $LN89@LoadFloat_@3
  00097	80 f2 ea	 xor	 dl, -22			; ffffffeaH
  0009a	88 55 f3	 mov	 BYTE PTR __k$[ebp+7], dl
  0009d	8a 50 08	 mov	 dl, BYTE PTR [eax+8]
  000a0	84 d2		 test	 dl, dl
  000a2	74 70		 je	 SHORT $LN88@LoadFloat_@3
  000a4	80 f2 ed	 xor	 dl, -19			; ffffffedH
  000a7	88 55 f4	 mov	 BYTE PTR __k$[ebp+8], dl
  000aa	8a 50 09	 mov	 dl, BYTE PTR [eax+9]
  000ad	84 d2		 test	 dl, dl
  000af	74 5d		 je	 SHORT $LN87@LoadFloat_@3
  000b1	80 f2 ec	 xor	 dl, -20			; ffffffecH
  000b4	80 78 0a 00	 cmp	 BYTE PTR [eax+10], 0
  000b8	88 55 f5	 mov	 BYTE PTR __k$[ebp+9], dl
  000bb	0f 84 87 00 00
	00		 je	 $LN1@LoadFloat_@3
  000c1	8a 50 0b	 mov	 dl, BYTE PTR [eax+11]
  000c4	84 d2		 test	 dl, dl
  000c6	74 40		 je	 SHORT $LN85@LoadFloat_@3
  000c8	80 f2 ea	 xor	 dl, -22			; ffffffeaH
  000cb	88 55 f7	 mov	 BYTE PTR __k$[ebp+11], dl
  000ce	8a 50 0c	 mov	 dl, BYTE PTR [eax+12]
  000d1	84 d2		 test	 dl, dl
  000d3	74 2d		 je	 SHORT $LN84@LoadFloat_@3
  000d5	80 f2 ed	 xor	 dl, -19			; ffffffedH
  000d8	88 55 f8	 mov	 BYTE PTR __k$[ebp+12], dl
  000db	8a 50 0d	 mov	 dl, BYTE PTR [eax+13]
  000de	84 d2		 test	 dl, dl
  000e0	74 1a		 je	 SHORT $LN83@LoadFloat_@3
  000e2	8a 40 0e	 mov	 al, BYTE PTR [eax+14]
  000e5	80 f2 ec	 xor	 dl, -20			; ffffffecH
  000e8	88 55 f9	 mov	 BYTE PTR __k$[ebp+13], dl
  000eb	84 c0		 test	 al, al
  000ed	74 07		 je	 SHORT $LN82@LoadFloat_@3
  000ef	34 eb		 xor	 al, -21			; ffffffebH
  000f1	88 45 fa	 mov	 BYTE PTR __k$[ebp+14], al
  000f4	eb 52		 jmp	 SHORT $LN1@LoadFloat_@3
$LN82@LoadFloat_@3:
  000f6	c6 45 fa eb	 mov	 BYTE PTR __k$[ebp+14], -21 ; ffffffebH
  000fa	eb 4c		 jmp	 SHORT $LN1@LoadFloat_@3
$LN83@LoadFloat_@3:
  000fc	c6 45 f9 ec	 mov	 BYTE PTR __k$[ebp+13], -20 ; ffffffecH
  00100	eb 46		 jmp	 SHORT $LN1@LoadFloat_@3
$LN84@LoadFloat_@3:
  00102	c6 45 f8 ed	 mov	 BYTE PTR __k$[ebp+12], -19 ; ffffffedH
  00106	eb 40		 jmp	 SHORT $LN1@LoadFloat_@3
$LN85@LoadFloat_@3:
  00108	c6 45 f7 ea	 mov	 BYTE PTR __k$[ebp+11], -22 ; ffffffeaH
  0010c	eb 3a		 jmp	 SHORT $LN1@LoadFloat_@3
$LN87@LoadFloat_@3:
  0010e	c6 45 f5 ec	 mov	 BYTE PTR __k$[ebp+9], -20 ; ffffffecH
  00112	eb 34		 jmp	 SHORT $LN1@LoadFloat_@3
$LN88@LoadFloat_@3:
  00114	c6 45 f4 ed	 mov	 BYTE PTR __k$[ebp+8], -19 ; ffffffedH
  00118	eb 2e		 jmp	 SHORT $LN1@LoadFloat_@3
$LN89@LoadFloat_@3:
  0011a	c6 45 f3 ea	 mov	 BYTE PTR __k$[ebp+7], -22 ; ffffffeaH
  0011e	eb 28		 jmp	 SHORT $LN1@LoadFloat_@3
$LN90@LoadFloat_@3:
  00120	c6 45 f2 eb	 mov	 BYTE PTR __k$[ebp+6], -21 ; ffffffebH
  00124	eb 22		 jmp	 SHORT $LN1@LoadFloat_@3
$LN91@LoadFloat_@3:
  00126	c6 45 f1 ec	 mov	 BYTE PTR __k$[ebp+5], -20 ; ffffffecH
  0012a	eb 1c		 jmp	 SHORT $LN1@LoadFloat_@3
$LN92@LoadFloat_@3:
  0012c	c6 45 f0 ed	 mov	 BYTE PTR __k$[ebp+4], -19 ; ffffffedH
  00130	eb 16		 jmp	 SHORT $LN1@LoadFloat_@3
$LN93@LoadFloat_@3:
  00132	c6 45 ef ea	 mov	 BYTE PTR __k$[ebp+3], -22 ; ffffffeaH
  00136	eb 10		 jmp	 SHORT $LN1@LoadFloat_@3
$LN94@LoadFloat_@3:
  00138	c6 45 ee eb	 mov	 BYTE PTR __k$[ebp+2], -21 ; ffffffebH
  0013c	eb 0a		 jmp	 SHORT $LN1@LoadFloat_@3
$LN95@LoadFloat_@3:
  0013e	c6 45 ed ec	 mov	 BYTE PTR __k$[ebp+1], -20 ; ffffffecH
  00142	eb 04		 jmp	 SHORT $LN1@LoadFloat_@3
$LN96@LoadFloat_@3:
  00144	c6 45 ec ed	 mov	 BYTE PTR __k$[ebp], -19	; ffffffedH
$LN1@LoadFloat_@3:
  00148	6a 02		 push	 2
  0014a	8d 45 ec	 lea	 eax, DWORD PTR __k$[ebp]
  0014d	c6 45 f6 00	 mov	 BYTE PTR __k$[ebp+10], 0
  00151	5a		 pop	 edx
$LL104@LoadFloat_@3:
  00152	81 30 ed ec eb
	ea		 xor	 DWORD PTR [eax], -353637139 ; eaebecedH
  00158	83 c0 04	 add	 eax, 4
  0015b	4a		 dec	 edx
  0015c	75 f4		 jne	 SHORT $LL104@LoadFloat_@3
  0015e	6a 08		 push	 8
  00160	58		 pop	 eax
$LL101@LoadFloat_@3:
  00161	8b c8		 mov	 ecx, eax
  00163	81 e1 03 00 00
	80		 and	 ecx, -2147483645	; 80000003H
  00169	79 05		 jns	 SHORT $LN111@LoadFloat_@3
  0016b	49		 dec	 ecx
  0016c	83 c9 fc	 or	 ecx, -4			; fffffffcH
  0016f	41		 inc	 ecx
$LN111@LoadFloat_@3:
  00170	b2 ed		 mov	 dl, -19			; ffffffedH
  00172	2a d1		 sub	 dl, cl
  00174	30 54 05 ec	 xor	 BYTE PTR __k$[ebp+eax], dl
  00178	40		 inc	 eax
  00179	83 f8 0a	 cmp	 eax, 10			; 0000000aH
  0017c	7c e3		 jl	 SHORT $LL101@LoadFloat_@3

; 137  : 		return LoadFloat(_k, f);

  0017e	f3 0f 10 45 0c	 movss	 xmm0, DWORD PTR _f$[ebp]
  00183	51		 push	 ecx
  00184	8d 45 ec	 lea	 eax, DWORD PTR __k$[ebp]
  00187	f3 0f 11 04 24	 movss	 DWORD PTR [esp], xmm0
  0018c	50		 push	 eax
  0018d	8b ce		 mov	 ecx, esi
  0018f	ff 15 00 00 00
	00		 call	 DWORD PTR __imp_?LoadFloat@ioINILoader@@QAEMPBDM@Z

; 138  : 	}

  00195	8b 4d fc	 mov	 ecx, DWORD PTR __$ArrayPad$[ebp]
  00198	33 cd		 xor	 ecx, ebp
  0019a	5e		 pop	 esi
  0019b	e8 00 00 00 00	 call	 @__security_check_cookie@4
  001a0	c9		 leave
  001a1	c2 08 00	 ret	 8
??$LoadFloat_e@$0L@@ioINILoader@@QAEMAAY0L@$$CBDM@Z ENDP ; ioINILoader::LoadFloat_e<11>
_TEXT	ENDS
PUBLIC	??0?$CEncrypt@M@@QAE@XZ				; CEncrypt<float>::CEncrypt<float>
EXTRN	??0ccddaabb@@QAE@XZ:PROC			; ccddaabb::ccddaabb
;	COMDAT xdata$x
; File d:\lost saga for developer\youtube\tutorial\source\src\lsclient\encryptvalue.h
xdata$x	SEGMENT
__unwindtable$??0?$CEncrypt@M@@QAE@XZ DD 0ffffffffH
	DD	FLAT:__unwindfunclet$??0?$CEncrypt@M@@QAE@XZ$0
__ehfuncinfo$??0?$CEncrypt@M@@QAE@XZ DD 019930522H
	DD	01H
	DD	FLAT:__unwindtable$??0?$CEncrypt@M@@QAE@XZ
	DD	2 DUP(00H)
	DD	2 DUP(00H)
	DD	00H
	DD	01H
; Function compile flags: /Ogsp
xdata$x	ENDS
;	COMDAT ??0?$CEncrypt@M@@QAE@XZ
_TEXT	SEGMENT
_this$ = -16						; size = 4
__$EHRec$ = -12						; size = 12
??0?$CEncrypt@M@@QAE@XZ PROC				; CEncrypt<float>::CEncrypt<float>, COMDAT
; _this$ = ecx

; 109  : 	CEncrypt()

  00000	6a 04		 push	 4
  00002	b8 00 00 00 00	 mov	 eax, __ehhandler$??0?$CEncrypt@M@@QAE@XZ
  00007	e8 00 00 00 00	 call	 __EH_prolog3
  0000c	8b f1		 mov	 esi, ecx
  0000e	89 75 f0	 mov	 DWORD PTR _this$[ebp], esi
  00011	8d 4e 0c	 lea	 ecx, DWORD PTR [esi+12]
  00014	c7 06 00 00 00
	00		 mov	 DWORD PTR [esi], OFFSET ??_7?$CEncrypt@M@@6B@
  0001a	e8 00 00 00 00	 call	 ??0ccddaabb@@QAE@XZ	; ccddaabb::ccddaabb
  0001f	83 65 fc 00	 and	 DWORD PTR __$EHRec$[ebp+8], 0

; 110  : 	{
; 111  : 		Init();

  00023	8b ce		 mov	 ecx, esi
  00025	e8 00 00 00 00	 call	 ?Init@?$CEncrypt@M@@AAEXXZ ; CEncrypt<float>::Init

; 112  : 	}

  0002a	8b c6		 mov	 eax, esi
  0002c	e8 00 00 00 00	 call	 __EH_epilog3
  00031	c3		 ret	 0
_TEXT	ENDS
;	COMDAT text$x
text$x	SEGMENT
__unwindfunclet$??0?$CEncrypt@M@@QAE@XZ$0:
  00000	8b 4d f0	 mov	 ecx, DWORD PTR _this$[ebp]
  00003	83 c1 0c	 add	 ecx, 12			; 0000000cH
  00006	e9 00 00 00 00	 jmp	 ??1ccddaabb@@UAE@XZ	; ccddaabb::~ccddaabb
__ehhandler$??0?$CEncrypt@M@@QAE@XZ:
  0000b	8b 54 24 08	 mov	 edx, DWORD PTR [esp+8]
  0000f	8d 42 0c	 lea	 eax, DWORD PTR [edx+12]
  00012	8b 4a ec	 mov	 ecx, DWORD PTR [edx-20]
  00015	33 c8		 xor	 ecx, eax
  00017	e8 00 00 00 00	 call	 @__security_check_cookie@4
  0001c	b8 00 00 00 00	 mov	 eax, OFFSET __ehfuncinfo$??0?$CEncrypt@M@@QAE@XZ
  00021	e9 00 00 00 00	 jmp	 ___CxxFrameHandler3
text$x	ENDS
??0?$CEncrypt@M@@QAE@XZ ENDP				; CEncrypt<float>::CEncrypt<float>
PUBLIC	??4?$CEncrypt@M@@QAEMM@Z			; CEncrypt<float>::operator=
; Function compile flags: /Ogsp
;	COMDAT ??4?$CEncrypt@M@@QAEMM@Z
_TEXT	SEGMENT
_value$ = 8						; size = 4
_inValue$ = 8						; size = 4
??4?$CEncrypt@M@@QAEMM@Z PROC				; CEncrypt<float>::operator=, COMDAT
; _this$ = ecx

; 1654 : 	{	

  00000	55		 push	 ebp
  00001	8b ec		 mov	 ebp, esp

; 1655 : 		type value = inValue;

  00003	d9 45 08	 fld	 DWORD PTR _inValue$[ebp]

; 1656 : 		EncryptValueToPool((char*)&value);

  00006	8d 45 08	 lea	 eax, DWORD PTR _value$[ebp]
  00009	50		 push	 eax
  0000a	d9 5d 08	 fstp	 DWORD PTR _value$[ebp]
  0000d	e8 00 00 00 00	 call	 ?EncryptValueToPool@?$CEncrypt@M@@AAEXPBD@Z ; CEncrypt<float>::EncryptValueToPool

; 1657 : #ifdef _NOTUSE
; 1658 : 		m_value = inValue;
; 1659 : 		Debug();
; 1660 : #endif
; 1661 : 		return value;

  00012	d9 45 08	 fld	 DWORD PTR _value$[ebp]

; 1662 : 	}

  00015	5d		 pop	 ebp
  00016	c2 04 00	 ret	 4
??4?$CEncrypt@M@@QAEMM@Z ENDP				; CEncrypt<float>::operator=
_TEXT	ENDS
PUBLIC	??0?$CEncrypt@K@@QAE@XZ				; CEncrypt<unsigned long>::CEncrypt<unsigned long>
;	COMDAT xdata$x
xdata$x	SEGMENT
__unwindtable$??0?$CEncrypt@K@@QAE@XZ DD 0ffffffffH
	DD	FLAT:__unwindfunclet$??0?$CEncrypt@K@@QAE@XZ$0
__ehfuncinfo$??0?$CEncrypt@K@@QAE@XZ DD 019930522H
	DD	01H
	DD	FLAT:__unwindtable$??0?$CEncrypt@K@@QAE@XZ
	DD	2 DUP(00H)
	DD	2 DUP(00H)
	DD	00H
	DD	01H
; Function compile flags: /Ogsp
xdata$x	ENDS
;	COMDAT ??0?$CEncrypt@K@@QAE@XZ
_TEXT	SEGMENT
_this$ = -16						; size = 4
__$EHRec$ = -12						; size = 12
??0?$CEncrypt@K@@QAE@XZ PROC				; CEncrypt<unsigned long>::CEncrypt<unsigned long>, COMDAT
; _this$ = ecx

; 109  : 	CEncrypt()

  00000	6a 04		 push	 4
  00002	b8 00 00 00 00	 mov	 eax, __ehhandler$??0?$CEncrypt@K@@QAE@XZ
  00007	e8 00 00 00 00	 call	 __EH_prolog3
  0000c	8b f1		 mov	 esi, ecx
  0000e	89 75 f0	 mov	 DWORD PTR _this$[ebp], esi
  00011	8d 4e 0c	 lea	 ecx, DWORD PTR [esi+12]
  00014	c7 06 00 00 00
	00		 mov	 DWORD PTR [esi], OFFSET ??_7?$CEncrypt@K@@6B@
  0001a	e8 00 00 00 00	 call	 ??0ccddaabb@@QAE@XZ	; ccddaabb::ccddaabb
  0001f	83 65 fc 00	 and	 DWORD PTR __$EHRec$[ebp+8], 0

; 110  : 	{
; 111  : 		Init();

  00023	8b ce		 mov	 ecx, esi
  00025	e8 00 00 00 00	 call	 ?Init@?$CEncrypt@K@@AAEXXZ ; CEncrypt<unsigned long>::Init

; 112  : 	}

  0002a	8b c6		 mov	 eax, esi
  0002c	e8 00 00 00 00	 call	 __EH_epilog3
  00031	c3		 ret	 0
_TEXT	ENDS
;	COMDAT text$x
text$x	SEGMENT
__unwindfunclet$??0?$CEncrypt@K@@QAE@XZ$0:
  00000	8b 4d f0	 mov	 ecx, DWORD PTR _this$[ebp]
  00003	83 c1 0c	 add	 ecx, 12			; 0000000cH
  00006	e9 00 00 00 00	 jmp	 ??1ccddaabb@@UAE@XZ	; ccddaabb::~ccddaabb
__ehhandler$??0?$CEncrypt@K@@QAE@XZ:
  0000b	8b 54 24 08	 mov	 edx, DWORD PTR [esp+8]
  0000f	8d 42 0c	 lea	 eax, DWORD PTR [edx+12]
  00012	8b 4a ec	 mov	 ecx, DWORD PTR [edx-20]
  00015	33 c8		 xor	 ecx, eax
  00017	e8 00 00 00 00	 call	 @__security_check_cookie@4
  0001c	b8 00 00 00 00	 mov	 eax, OFFSET __ehfuncinfo$??0?$CEncrypt@K@@QAE@XZ
  00021	e9 00 00 00 00	 jmp	 ___CxxFrameHandler3
text$x	ENDS
??0?$CEncrypt@K@@QAE@XZ ENDP				; CEncrypt<unsigned long>::CEncrypt<unsigned long>
PUBLIC	??4?$CEncrypt@K@@QAEKH@Z			; CEncrypt<unsigned long>::operator=
; Function compile flags: /Ogsp
;	COMDAT ??4?$CEncrypt@K@@QAEKH@Z
_TEXT	SEGMENT
_value$ = 8						; size = 4
_inValue$ = 8						; size = 4
??4?$CEncrypt@K@@QAEKH@Z PROC				; CEncrypt<unsigned long>::operator=, COMDAT
; _this$ = ecx

; 843  : 	{

  00000	55		 push	 ebp
  00001	8b ec		 mov	 ebp, esp

; 844  : 		type value = inValue;

  00003	8b 45 08	 mov	 eax, DWORD PTR _inValue$[ebp]
  00006	89 45 08	 mov	 DWORD PTR _value$[ebp], eax

; 845  : 		EncryptValueToPool((char*)&value);

  00009	8d 45 08	 lea	 eax, DWORD PTR _value$[ebp]
  0000c	50		 push	 eax
  0000d	e8 00 00 00 00	 call	 ?EncryptValueToPool@?$CEncrypt@K@@AAEXPBD@Z ; CEncrypt<unsigned long>::EncryptValueToPool

; 846  : #ifdef _NOTUSE
; 847  : 		m_value = inValue;
; 848  : 		Debug();
; 849  : #endif
; 850  : 		return value;

  00012	8b 45 08	 mov	 eax, DWORD PTR _value$[ebp]

; 851  : 	}

  00015	5d		 pop	 ebp
  00016	c2 04 00	 ret	 4
??4?$CEncrypt@K@@QAEKH@Z ENDP				; CEncrypt<unsigned long>::operator=
_TEXT	ENDS
PUBLIC	??4?$CEncrypt@K@@QAEKK@Z			; CEncrypt<unsigned long>::operator=
; Function compile flags: /Ogsp
;	COMDAT ??4?$CEncrypt@K@@QAEKK@Z
_TEXT	SEGMENT
_value$ = 8						; size = 4
_inValue$ = 8						; size = 4
??4?$CEncrypt@K@@QAEKK@Z PROC				; CEncrypt<unsigned long>::operator=, COMDAT
; _this$ = ecx

; 1262 : 	{

  00000	55		 push	 ebp
  00001	8b ec		 mov	 ebp, esp

; 1263 : 		
; 1264 : 		type value = inValue;

  00003	8b 45 08	 mov	 eax, DWORD PTR _inValue$[ebp]
  00006	89 45 08	 mov	 DWORD PTR _value$[ebp], eax

; 1265 : 		EncryptValueToPool((char*)&value);

  00009	8d 45 08	 lea	 eax, DWORD PTR _value$[ebp]
  0000c	50		 push	 eax
  0000d	e8 00 00 00 00	 call	 ?EncryptValueToPool@?$CEncrypt@K@@AAEXPBD@Z ; CEncrypt<unsigned long>::EncryptValueToPool

; 1266 : #ifdef _NOTUSE
; 1267 : 		m_value = inValue;
; 1268 : 		Debug();
; 1269 : #endif
; 1270 : 		return value;

  00012	8b 45 08	 mov	 eax, DWORD PTR _value$[ebp]

; 1271 : 	}

  00015	5d		 pop	 ebp
  00016	c2 04 00	 ret	 4
??4?$CEncrypt@K@@QAEKK@Z ENDP				; CEncrypt<unsigned long>::operator=
_TEXT	ENDS
PUBLIC	??4?$CEncrypt@W4TeamType@@@@QAE?AW4TeamType@@W41@@Z ; CEncrypt<enum TeamType>::operator=
; Function compile flags: /Ogsp
;	COMDAT ??4?$CEncrypt@W4TeamType@@@@QAE?AW4TeamType@@W41@@Z
_TEXT	SEGMENT
_value$ = 8						; size = 4
_inValue$ = 8						; size = 4
??4?$CEncrypt@W4TeamType@@@@QAE?AW4TeamType@@W41@@Z PROC ; CEncrypt<enum TeamType>::operator=, COMDAT
; _this$ = ecx

; 2965 : 	{

  00000	55		 push	 ebp
  00001	8b ec		 mov	 ebp, esp

; 2966 : 		type value = inValue;

  00003	8b 45 08	 mov	 eax, DWORD PTR _inValue$[ebp]
  00006	89 45 08	 mov	 DWORD PTR _value$[ebp], eax

; 2967 : 		EncryptValueToPool((char*)&value);

  00009	8d 45 08	 lea	 eax, DWORD PTR _value$[ebp]
  0000c	50		 push	 eax
  0000d	e8 00 00 00 00	 call	 ?EncryptValueToPool@?$CEncrypt@W4TeamType@@@@AAEXPBD@Z ; CEncrypt<enum TeamType>::EncryptValueToPool

; 2968 : #ifdef _NOTUSE
; 2969 : 		m_value = inValue;
; 2970 : 		Debug();
; 2971 : #endif
; 2972 : 		return value;

  00012	8b 45 08	 mov	 eax, DWORD PTR _value$[ebp]

; 2973 : 	}

  00015	5d		 pop	 ebp
  00016	c2 04 00	 ret	 4
??4?$CEncrypt@W4TeamType@@@@QAE?AW4TeamType@@W41@@Z ENDP ; CEncrypt<enum TeamType>::operator=
_TEXT	ENDS
PUBLIC	?begin@?$vector@VioHashString@@V?$allocator@VioHashString@@@std@@@std@@QAE?AV?$_Vector_iterator@V?$_Vector_val@VioHashString@@V?$allocator@VioHashString@@@std@@@std@@@2@XZ ; std::vector<ioHashString,std::allocator<ioHashString> >::begin
; Function compile flags: /Ogsp
; File c:\program files (x86)\microsoft visual studio 10.0\vc\include\vector
;	COMDAT ?begin@?$vector@VioHashString@@V?$allocator@VioHashString@@@std@@@std@@QAE?AV?$_Vector_iterator@V?$_Vector_val@VioHashString@@V?$allocator@VioHashString@@@std@@@std@@@2@XZ
_TEXT	SEGMENT
___$ReturnUdt$ = 8					; size = 4
?begin@?$vector@VioHashString@@V?$allocator@VioHashString@@@std@@@std@@QAE?AV?$_Vector_iterator@V?$_Vector_val@VioHashString@@V?$allocator@VioHashString@@@std@@@std@@@2@XZ PROC ; std::vector<ioHashString,std::allocator<ioHashString> >::begin, COMDAT
; _this$ = ecx

; 781  : 		{	// return iterator for beginning of mutable sequence

  00000	55		 push	 ebp
  00001	8b ec		 mov	 ebp, esp

; 782  : 		return (iterator(this->_Myfirst, this));

  00003	8b 09		 mov	 ecx, DWORD PTR [ecx]
  00005	8b 45 08	 mov	 eax, DWORD PTR ___$ReturnUdt$[ebp]
  00008	89 08		 mov	 DWORD PTR [eax], ecx

; 783  : 		}

  0000a	5d		 pop	 ebp
  0000b	c2 04 00	 ret	 4
?begin@?$vector@VioHashString@@V?$allocator@VioHashString@@@std@@@std@@QAE?AV?$_Vector_iterator@V?$_Vector_val@VioHashString@@V?$allocator@VioHashString@@@std@@@std@@@2@XZ ENDP ; std::vector<ioHashString,std::allocator<ioHashString> >::begin
_TEXT	ENDS
PUBLIC	?end@?$vector@VioHashString@@V?$allocator@VioHashString@@@std@@@std@@QAE?AV?$_Vector_iterator@V?$_Vector_val@VioHashString@@V?$allocator@VioHashString@@@std@@@std@@@2@XZ ; std::vector<ioHashString,std::allocator<ioHashString> >::end
; Function compile flags: /Ogsp
;	COMDAT ?end@?$vector@VioHashString@@V?$allocator@VioHashString@@@std@@@std@@QAE?AV?$_Vector_iterator@V?$_Vector_val@VioHashString@@V?$allocator@VioHashString@@@std@@@std@@@2@XZ
_TEXT	SEGMENT
___$ReturnUdt$ = 8					; size = 4
?end@?$vector@VioHashString@@V?$allocator@VioHashString@@@std@@@std@@QAE?AV?$_Vector_iterator@V?$_Vector_val@VioHashString@@V?$allocator@VioHashString@@@std@@@std@@@2@XZ PROC ; std::vector<ioHashString,std::allocator<ioHashString> >::end, COMDAT
; _this$ = ecx

; 791  : 		{	// return iterator for end of mutable sequence

  00000	55		 push	 ebp
  00001	8b ec		 mov	 ebp, esp

; 792  : 		return (iterator(this->_Mylast, this));

  00003	8b 49 04	 mov	 ecx, DWORD PTR [ecx+4]
  00006	8b 45 08	 mov	 eax, DWORD PTR ___$ReturnUdt$[ebp]
  00009	89 08		 mov	 DWORD PTR [eax], ecx

; 793  : 		}

  0000b	5d		 pop	 ebp
  0000c	c2 04 00	 ret	 4
?end@?$vector@VioHashString@@V?$allocator@VioHashString@@@std@@@std@@QAE?AV?$_Vector_iterator@V?$_Vector_val@VioHashString@@V?$allocator@VioHashString@@@std@@@std@@@2@XZ ENDP ; std::vector<ioHashString,std::allocator<ioHashString> >::end
_TEXT	ENDS
PUBLIC	?_Make_iter@?$vector@VioHashString@@V?$allocator@VioHashString@@@std@@@std@@QBE?AV?$_Vector_iterator@V?$_Vector_val@VioHashString@@V?$allocator@VioHashString@@@std@@@std@@@2@V?$_Vector_const_iterator@V?$_Vector_val@VioHashString@@V?$allocator@VioHashString@@@std@@@std@@@2@@Z ; std::vector<ioHashString,std::allocator<ioHashString> >::_Make_iter
; Function compile flags: /Ogsp
;	COMDAT ?_Make_iter@?$vector@VioHashString@@V?$allocator@VioHashString@@@std@@@std@@QBE?AV?$_Vector_iterator@V?$_Vector_val@VioHashString@@V?$allocator@VioHashString@@@std@@@std@@@2@V?$_Vector_const_iterator@V?$_Vector_val@VioHashString@@V?$allocator@VioHashString@@@std@@@std@@@2@@Z
_TEXT	SEGMENT
___$ReturnUdt$ = 8					; size = 4
__Where$ = 12						; size = 4
?_Make_iter@?$vector@VioHashString@@V?$allocator@VioHashString@@@std@@@std@@QBE?AV?$_Vector_iterator@V?$_Vector_val@VioHashString@@V?$allocator@VioHashString@@@std@@@std@@@2@V?$_Vector_const_iterator@V?$_Vector_val@VioHashString@@V?$allocator@VioHashString@@@std@@@std@@@2@@Z PROC ; std::vector<ioHashString,std::allocator<ioHashString> >::_Make_iter, COMDAT
; _this$ = ecx

; 801  : 		{	// make iterator from const_iterator

  00000	55		 push	 ebp
  00001	8b ec		 mov	 ebp, esp

; 802  : 		return (iterator(_Where._Ptr, this));

  00003	8b 45 08	 mov	 eax, DWORD PTR ___$ReturnUdt$[ebp]
  00006	8b 4d 0c	 mov	 ecx, DWORD PTR __Where$[ebp]
  00009	89 08		 mov	 DWORD PTR [eax], ecx

; 803  : 		}

  0000b	5d		 pop	 ebp
  0000c	c2 08 00	 ret	 8
?_Make_iter@?$vector@VioHashString@@V?$allocator@VioHashString@@@std@@@std@@QBE?AV?$_Vector_iterator@V?$_Vector_val@VioHashString@@V?$allocator@VioHashString@@@std@@@std@@@2@V?$_Vector_const_iterator@V?$_Vector_val@VioHashString@@V?$allocator@VioHashString@@@std@@@std@@@2@@Z ENDP ; std::vector<ioHashString,std::allocator<ioHashString> >::_Make_iter
_TEXT	ENDS
PUBLIC	??8?$_Vector_const_iterator@V?$_Vector_val@VioHashString@@V?$allocator@VioHashString@@@std@@@std@@@std@@QBE_NABV01@@Z ; std::_Vector_const_iterator<std::_Vector_val<ioHashString,std::allocator<ioHashString> > >::operator==
; Function compile flags: /Ogsp
;	COMDAT ??8?$_Vector_const_iterator@V?$_Vector_val@VioHashString@@V?$allocator@VioHashString@@@std@@@std@@@std@@QBE_NABV01@@Z
_TEXT	SEGMENT
__Right$ = 8						; size = 4
??8?$_Vector_const_iterator@V?$_Vector_val@VioHashString@@V?$allocator@VioHashString@@@std@@@std@@@std@@QBE_NABV01@@Z PROC ; std::_Vector_const_iterator<std::_Vector_val<ioHashString,std::allocator<ioHashString> > >::operator==, COMDAT
; _this$ = ecx

; 201  : 		{	// test for iterator equality

  00000	55		 push	 ebp
  00001	8b ec		 mov	 ebp, esp

; 202  : 		_Compat(_Right);
; 203  : 		return (this->_Ptr == _Right._Ptr);

  00003	8b 01		 mov	 eax, DWORD PTR [ecx]
  00005	8b 4d 08	 mov	 ecx, DWORD PTR __Right$[ebp]
  00008	2b 01		 sub	 eax, DWORD PTR [ecx]
  0000a	f7 d8		 neg	 eax
  0000c	1b c0		 sbb	 eax, eax
  0000e	40		 inc	 eax

; 204  : 		}

  0000f	5d		 pop	 ebp
  00010	c2 04 00	 ret	 4
??8?$_Vector_const_iterator@V?$_Vector_val@VioHashString@@V?$allocator@VioHashString@@@std@@@std@@@std@@QBE_NABV01@@Z ENDP ; std::_Vector_const_iterator<std::_Vector_val<ioHashString,std::allocator<ioHashString> > >::operator==
_TEXT	ENDS
PUBLIC	??$_Move@PAVioHashString@@PAV1@@std@@YAPAVioHashString@@PAV1@00U_Nonscalar_ptr_iterator_tag@0@@Z ; std::_Move<ioHashString *,ioHashString *>
EXTRN	__imp_??4ioHashString@@QAEAAV0@ABV0@@Z:PROC
; Function compile flags: /Ogsp
; File c:\program files (x86)\microsoft visual studio 10.0\vc\include\xutility
;	COMDAT ??$_Move@PAVioHashString@@PAV1@@std@@YAPAVioHashString@@PAV1@00U_Nonscalar_ptr_iterator_tag@0@@Z
_TEXT	SEGMENT
__First$ = 8						; size = 4
__Last$ = 12						; size = 4
__Dest$ = 16						; size = 4
___formal$ = 20						; size = 1
??$_Move@PAVioHashString@@PAV1@@std@@YAPAVioHashString@@PAV1@00U_Nonscalar_ptr_iterator_tag@0@@Z PROC ; std::_Move<ioHashString *,ioHashString *>, COMDAT

; 2512 : 	{	// move [_First, _Last) to [_Dest, ...), arbitrary iterators

  00000	55		 push	 ebp
  00001	8b ec		 mov	 ebp, esp
  00003	56		 push	 esi

; 2513 : 	for (; _First != _Last; ++_Dest, ++_First)

  00004	8b 75 08	 mov	 esi, DWORD PTR __First$[ebp]
  00007	eb 11		 jmp	 SHORT $LN11@Move
$LL3@Move:

; 2514 : 		*_Dest = _STD move(*_First);

  00009	8b 4d 10	 mov	 ecx, DWORD PTR __Dest$[ebp]
  0000c	56		 push	 esi
  0000d	ff 15 00 00 00
	00		 call	 DWORD PTR __imp_??4ioHashString@@QAEAAV0@ABV0@@Z
  00013	83 45 10 10	 add	 DWORD PTR __Dest$[ebp], 16 ; 00000010H
  00017	83 c6 10	 add	 esi, 16			; 00000010H
$LN11@Move:

; 2513 : 	for (; _First != _Last; ++_Dest, ++_First)

  0001a	3b 75 0c	 cmp	 esi, DWORD PTR __Last$[ebp]
  0001d	75 ea		 jne	 SHORT $LL3@Move

; 2515 : 	return (_Dest);

  0001f	8b 45 10	 mov	 eax, DWORD PTR __Dest$[ebp]
  00022	5e		 pop	 esi

; 2516 : 	}

  00023	5d		 pop	 ebp
  00024	c3		 ret	 0
??$_Move@PAVioHashString@@PAV1@@std@@YAPAVioHashString@@PAV1@00U_Nonscalar_ptr_iterator_tag@0@@Z ENDP ; std::_Move<ioHashString *,ioHashString *>
_TEXT	ENDS
PUBLIC	??$_Destroy@VioHashString@@@std@@YAXPAVioHashString@@@Z ; std::_Destroy<ioHashString>
; Function compile flags: /Ogsp
; File c:\program files (x86)\microsoft visual studio 10.0\vc\include\xmemory
;	COMDAT ??$_Destroy@VioHashString@@@std@@YAXPAVioHashString@@@Z
_TEXT	SEGMENT
__Ptr$ = 8						; size = 4
??$_Destroy@VioHashString@@@std@@YAXPAVioHashString@@@Z PROC ; std::_Destroy<ioHashString>, COMDAT

; 62   : 	{	// destroy object at _Ptr

  00000	55		 push	 ebp
  00001	8b ec		 mov	 ebp, esp

; 63   : 	_Ptr->~_Ty();

  00003	8b 4d 08	 mov	 ecx, DWORD PTR __Ptr$[ebp]

; 64   : 	}

  00006	5d		 pop	 ebp

; 63   : 	_Ptr->~_Ty();

  00007	ff 25 00 00 00
	00		 jmp	 DWORD PTR __imp_??1ioHashString@@QAE@XZ
??$_Destroy@VioHashString@@@std@@YAXPAVioHashString@@@Z ENDP ; std::_Destroy<ioHashString>
; Function compile flags: /Ogsp
_TEXT	ENDS
;	COMDAT ??_GioMoveAttack3Dummy@@UAEPAXI@Z
_TEXT	SEGMENT
___flags$ = 8						; size = 4
??_GioMoveAttack3Dummy@@UAEPAXI@Z PROC			; ioMoveAttack3Dummy::`scalar deleting destructor', COMDAT
; _this$ = ecx
  00000	55		 push	 ebp
  00001	8b ec		 mov	 ebp, esp
  00003	56		 push	 esi
  00004	8b f1		 mov	 esi, ecx
  00006	e8 00 00 00 00	 call	 ??1ioMoveAttack3Dummy@@UAE@XZ ; ioMoveAttack3Dummy::~ioMoveAttack3Dummy
  0000b	f6 45 08 01	 test	 BYTE PTR ___flags$[ebp], 1
  0000f	74 07		 je	 SHORT $LN1@scalar@4
  00011	56		 push	 esi
  00012	e8 00 00 00 00	 call	 ??3@YAXPAX@Z		; operator delete
  00017	59		 pop	 ecx
$LN1@scalar@4:
  00018	8b c6		 mov	 eax, esi
  0001a	5e		 pop	 esi
  0001b	5d		 pop	 ebp
  0001c	c2 04 00	 ret	 4
??_GioMoveAttack3Dummy@@UAEPAXI@Z ENDP			; ioMoveAttack3Dummy::`scalar deleting destructor'
_TEXT	ENDS
PUBLIC	__real@4f800000
PUBLIC	__$ArrayPad$
EXTRN	?LoadProperty@ioDummyChar@@UAEXAAVioINILoader@@@Z:PROC ; ioDummyChar::LoadProperty
;	COMDAT __real@4f800000
; File d:\lost saga for developer\youtube\tutorial\source\src\lsclient\stringprotect.h
CONST	SEGMENT
__real@4f800000 DD 04f800000r			; 4.29497e+009
; Function compile flags: /Ogsp
; File d:\lost saga for developer\youtube\tutorial\source\src\lsclient\iomoveattack3dummy.cpp
CONST	ENDS
;	COMDAT ?LoadProperty@ioMoveAttack3Dummy@@UAEXAAVioINILoader@@@Z
_TEXT	SEGMENT
tv6398 = -32						; size = 4
_value$553090 = -32					; size = 4
_value$552959 = -32					; size = 4
_value$552829 = -32					; size = 4
_value$552699 = -32					; size = 4
_value$552570 = -32					; size = 4
__k$552942 = -28					; size = 20
__k$552730 = -28					; size = 20
__k$552345 = -28					; size = 18
__k$552600 = -24					; size = 13
__k$552470 = -24					; size = 13
__k$553124 = -20					; size = 11
__k$552990 = -20					; size = 11
__$ArrayPad$ = -4					; size = 4
_rkLoader$ = 8						; size = 4
?LoadProperty@ioMoveAttack3Dummy@@UAEXAAVioINILoader@@@Z PROC ; ioMoveAttack3Dummy::LoadProperty, COMDAT
; _this$ = ecx

; 30   : {

  00000	55		 push	 ebp
  00001	8b ec		 mov	 ebp, esp
  00003	83 ec 20	 sub	 esp, 32			; 00000020H
  00006	a1 00 00 00 00	 mov	 eax, DWORD PTR ___security_cookie
  0000b	33 c5		 xor	 eax, ebp
  0000d	89 45 fc	 mov	 DWORD PTR __$ArrayPad$[ebp], eax
  00010	53		 push	 ebx
  00011	56		 push	 esi
  00012	57		 push	 edi
  00013	8b 7d 08	 mov	 edi, DWORD PTR _rkLoader$[ebp]

; 31   : 	ioDummyChar::LoadProperty( rkLoader );

  00016	57		 push	 edi
  00017	8b f1		 mov	 esi, ecx
  00019	e8 00 00 00 00	 call	 ?LoadProperty@ioDummyChar@@UAEXAAVioINILoader@@@Z ; ioDummyChar::LoadProperty

; 32   : 
; 33   : 	m_TargetWoundType = (TargetWoundType)rkLoader.LoadInt_e( "target_wound_type", TWT_ALL );

  0001e	6a 04		 push	 4
  00020	c7 45 e4 99 8d
	99 8d		 mov	 DWORD PTR __k$552345[ebp], -1919316583 ; 8d998d99H
  00027	c7 45 e8 88 98
	b4 9d		 mov	 DWORD PTR __k$552345[ebp+4], -1649108856 ; 9db49888H
  0002e	c7 45 ec 82 99
	85 8e		 mov	 DWORD PTR __k$552345[ebp+8], -1903847038 ; 8e859982H
  00035	c7 45 f0 b2 98
	92 9a		 mov	 DWORD PTR __k$552345[ebp+12], -1701668686 ; 9a9298b2H
  0003c	8d 45 e4	 lea	 eax, DWORD PTR __k$552345[ebp]
  0003f	33 db		 xor	 ebx, ebx
  00041	66 c7 45 f4 88
	00		 mov	 WORD PTR __k$552345[ebp+16], 136 ; 00000088H
  00047	59		 pop	 ecx
$LL106@LoadProper:
  00048	81 30 ed ec eb
	ea		 xor	 DWORD PTR [eax], -353637139 ; eaebecedH
  0004e	83 c0 04	 add	 eax, 4
  00051	49		 dec	 ecx
  00052	75 f4		 jne	 SHORT $LL106@LoadProper
  00054	80 75 f4 ed	 xor	 BYTE PTR __k$552345[ebp+16], -19 ; ffffffedH
  00058	6a 01		 push	 1
  0005a	8d 45 e4	 lea	 eax, DWORD PTR __k$552345[ebp]
  0005d	50		 push	 eax
  0005e	8b cf		 mov	 ecx, edi
  00060	ff 15 00 00 00
	00		 call	 DWORD PTR __imp_?LoadInt@ioINILoader@@QAEHPBDH@Z
  00066	6a 03		 push	 3
  00068	89 86 b8 14 00
	00		 mov	 DWORD PTR [esi+5304], eax

; 34   : 	m_fTargetRange    = rkLoader.LoadFloat_e( "target_range", 0.0f );

  0006e	c7 45 e8 99 8d
	99 8d		 mov	 DWORD PTR __k$552470[ebp], -1919316583 ; 8d998d99H
  00075	c7 45 ec 88 98
	b4 98		 mov	 DWORD PTR __k$552470[ebp+4], -1732994936 ; 98b49888H
  0007c	c7 45 f0 8c 82
	8c 8f		 mov	 DWORD PTR __k$552470[ebp+8], -1886616948 ; 8f8c828cH
  00083	8d 45 e8	 lea	 eax, DWORD PTR __k$552470[ebp]
  00086	88 5d f4	 mov	 BYTE PTR __k$552470[ebp+12], bl
  00089	59		 pop	 ecx
$LL212@LoadProper:
  0008a	81 30 ed ec eb
	ea		 xor	 DWORD PTR [eax], -353637139 ; eaebecedH
  00090	83 c0 04	 add	 eax, 4
  00093	49		 dec	 ecx
  00094	75 f4		 jne	 SHORT $LL212@LoadProper
  00096	0f 57 c0	 xorps	 xmm0, xmm0
  00099	51		 push	 ecx
  0009a	8d 45 e8	 lea	 eax, DWORD PTR __k$552470[ebp]
  0009d	f3 0f 11 04 24	 movss	 DWORD PTR [esp], xmm0
  000a2	50		 push	 eax
  000a3	8b cf		 mov	 ecx, edi
  000a5	ff 15 00 00 00
	00		 call	 DWORD PTR __imp_?LoadFloat@ioINILoader@@QAEMPBDM@Z
  000ab	d9 5d e0	 fstp	 DWORD PTR _value$552570[ebp]
  000ae	8d 45 e0	 lea	 eax, DWORD PTR _value$552570[ebp]
  000b1	50		 push	 eax
  000b2	8d 8e bc 14 00
	00		 lea	 ecx, DWORD PTR [esi+5308]
  000b8	e8 00 00 00 00	 call	 ?EncryptValueToPool@?$CEncrypt@M@@AAEXPBD@Z ; CEncrypt<float>::EncryptValueToPool
  000bd	6a 03		 push	 3

; 35   : 	m_fTargetAngle    = rkLoader.LoadFloat_e( "target_angle", 0.0f );

  000bf	c7 45 e8 99 8d
	99 8d		 mov	 DWORD PTR __k$552600[ebp], -1919316583 ; 8d998d99H
  000c6	c7 45 ec 88 98
	b4 8b		 mov	 DWORD PTR __k$552600[ebp+4], -1951098744 ; 8bb49888H
  000cd	c7 45 f0 83 8b
	87 8f		 mov	 DWORD PTR __k$552600[ebp+8], -1886942333 ; 8f878b83H
  000d4	8d 45 e8	 lea	 eax, DWORD PTR __k$552600[ebp]
  000d7	88 5d f4	 mov	 BYTE PTR __k$552600[ebp+12], bl
  000da	59		 pop	 ecx
$LL320@LoadProper:
  000db	81 30 ed ec eb
	ea		 xor	 DWORD PTR [eax], -353637139 ; eaebecedH
  000e1	83 c0 04	 add	 eax, 4
  000e4	49		 dec	 ecx
  000e5	75 f4		 jne	 SHORT $LL320@LoadProper
  000e7	0f 57 c0	 xorps	 xmm0, xmm0
  000ea	51		 push	 ecx
  000eb	8d 45 e8	 lea	 eax, DWORD PTR __k$552600[ebp]
  000ee	f3 0f 11 04 24	 movss	 DWORD PTR [esp], xmm0
  000f3	50		 push	 eax
  000f4	8b cf		 mov	 ecx, edi
  000f6	ff 15 00 00 00
	00		 call	 DWORD PTR __imp_?LoadFloat@ioINILoader@@QAEMPBDM@Z
  000fc	d9 5d e0	 fstp	 DWORD PTR _value$552699[ebp]
  000ff	8d 45 e0	 lea	 eax, DWORD PTR _value$552699[ebp]
  00102	50		 push	 eax
  00103	8d 8e ec 14 00
	00		 lea	 ecx, DWORD PTR [esi+5356]
  00109	e8 00 00 00 00	 call	 ?EncryptValueToPool@?$CEncrypt@M@@AAEXPBD@Z ; CEncrypt<float>::EncryptValueToPool
  0010e	6a 04		 push	 4

; 36   : 	m_fDummyHeightOffset = rkLoader.LoadFloat_e( "dummy_height_offset", 0.0f );

  00110	c7 45 e4 89 99
	86 87		 mov	 DWORD PTR __k$552730[ebp], -2021222007 ; 87869989H
  00117	c7 45 e8 94 b3
	83 8f		 mov	 DWORD PTR __k$552730[ebp+4], -1887194220 ; 8f83b394H
  0011e	c7 45 ec 84 8b
	83 9e		 mov	 DWORD PTR __k$552730[ebp+8], -1635546236 ; 9e838b84H
  00125	c7 45 f0 b2 83
	8d 8c		 mov	 DWORD PTR __k$552730[ebp+12], -1936882766 ; 8c8d83b2H
  0012c	8d 45 e4	 lea	 eax, DWORD PTR __k$552730[ebp]
  0012f	c7 45 f4 9e 89
	9f 00		 mov	 DWORD PTR __k$552730[ebp+16], 10455454 ; 009f899eH
  00136	59		 pop	 ecx
$LL428@LoadProper:
  00137	81 30 ed ec eb
	ea		 xor	 DWORD PTR [eax], -353637139 ; eaebecedH
  0013d	83 c0 04	 add	 eax, 4
  00140	49		 dec	 ecx
  00141	75 f4		 jne	 SHORT $LL428@LoadProper
  00143	6a 10		 push	 16			; 00000010H
  00145	58		 pop	 eax
$LL425@LoadProper:
  00146	8b c8		 mov	 ecx, eax
  00148	81 e1 03 00 00
	80		 and	 ecx, -2147483645	; 80000003H
  0014e	79 05		 jns	 SHORT $LN785@LoadProper
  00150	49		 dec	 ecx
  00151	83 c9 fc	 or	 ecx, -4			; fffffffcH
  00154	41		 inc	 ecx
$LN785@LoadProper:
  00155	b2 ed		 mov	 dl, -19			; ffffffedH
  00157	2a d1		 sub	 dl, cl
  00159	30 54 05 e4	 xor	 BYTE PTR __k$552730[ebp+eax], dl
  0015d	40		 inc	 eax
  0015e	83 f8 13	 cmp	 eax, 19			; 00000013H
  00161	7c e3		 jl	 SHORT $LL425@LoadProper
  00163	0f 57 c0	 xorps	 xmm0, xmm0
  00166	51		 push	 ecx
  00167	8d 45 e4	 lea	 eax, DWORD PTR __k$552730[ebp]
  0016a	f3 0f 11 04 24	 movss	 DWORD PTR [esp], xmm0
  0016f	50		 push	 eax
  00170	8b cf		 mov	 ecx, edi
  00172	ff 15 00 00 00
	00		 call	 DWORD PTR __imp_?LoadFloat@ioINILoader@@QAEMPBDM@Z
  00178	d9 5d e0	 fstp	 DWORD PTR _value$552829[ebp]
  0017b	8d 45 e0	 lea	 eax, DWORD PTR _value$552829[ebp]
  0017e	50		 push	 eax
  0017f	8d 8e 1c 15 00
	00		 lea	 ecx, DWORD PTR [esi+5404]
  00185	e8 00 00 00 00	 call	 ?EncryptValueToPool@?$CEncrypt@M@@AAEXPBD@Z ; CEncrypt<float>::EncryptValueToPool
  0018a	6a 04		 push	 4

; 37   : 	m_dwTargetRefreshTime = rkLoader.LoadInt_e( "refresh_target_time", 0 );

  0018c	c7 45 e4 9f 89
	8d 98		 mov	 DWORD PTR __k$552942[ebp], -1735554657 ; 988d899fH
  00193	c7 45 e8 88 9f
	83 b5		 mov	 DWORD PTR __k$552942[ebp+4], -1249665144 ; b5839f88H
  0019a	c7 45 ec 99 8d
	99 8d		 mov	 DWORD PTR __k$552942[ebp+8], -1919316583 ; 8d998d99H
  001a1	c7 45 f0 88 98
	b4 9e		 mov	 DWORD PTR __k$552942[ebp+12], -1632331640 ; 9eb49888H
  001a8	8d 45 e4	 lea	 eax, DWORD PTR __k$552942[ebp]
  001ab	c7 45 f4 84 81
	8e 00		 mov	 DWORD PTR __k$552942[ebp+16], 9339268 ; 008e8184H
  001b2	59		 pop	 ecx
$LL536@LoadProper:
  001b3	81 30 ed ec eb
	ea		 xor	 DWORD PTR [eax], -353637139 ; eaebecedH
  001b9	83 c0 04	 add	 eax, 4
  001bc	49		 dec	 ecx
  001bd	75 f4		 jne	 SHORT $LL536@LoadProper
  001bf	6a 10		 push	 16			; 00000010H
  001c1	58		 pop	 eax
$LL533@LoadProper:
  001c2	8b c8		 mov	 ecx, eax
  001c4	81 e1 03 00 00
	80		 and	 ecx, -2147483645	; 80000003H
  001ca	79 05		 jns	 SHORT $LN786@LoadProper
  001cc	49		 dec	 ecx
  001cd	83 c9 fc	 or	 ecx, -4			; fffffffcH
  001d0	41		 inc	 ecx
$LN786@LoadProper:
  001d1	b2 ed		 mov	 dl, -19			; ffffffedH
  001d3	2a d1		 sub	 dl, cl
  001d5	30 54 05 e4	 xor	 BYTE PTR __k$552942[ebp+eax], dl
  001d9	40		 inc	 eax
  001da	83 f8 13	 cmp	 eax, 19			; 00000013H
  001dd	7c e3		 jl	 SHORT $LL533@LoadProper
  001df	53		 push	 ebx
  001e0	8d 45 e4	 lea	 eax, DWORD PTR __k$552942[ebp]
  001e3	50		 push	 eax
  001e4	8b cf		 mov	 ecx, edi
  001e6	ff 15 00 00 00
	00		 call	 DWORD PTR __imp_?LoadInt@ioINILoader@@QAEHPBDH@Z
  001ec	89 45 e0	 mov	 DWORD PTR _value$552959[ebp], eax
  001ef	8d 45 e0	 lea	 eax, DWORD PTR _value$552959[ebp]
  001f2	50		 push	 eax
  001f3	8d 8e 4c 15 00
	00		 lea	 ecx, DWORD PTR [esi+5452]
  001f9	e8 00 00 00 00	 call	 ?EncryptValueToPool@?$CEncrypt@K@@AAEXPBD@Z ; CEncrypt<unsigned long>::EncryptValueToPool
  001fe	6a 02		 push	 2

; 38   : 
; 39   : 	m_dwDelayTime = (DWORD)rkLoader.LoadInt_e( "delay_time", 0 );

  00200	c7 45 ec 89 89
	87 8b		 mov	 DWORD PTR __k$552990[ebp], -1954051703 ; 8b878989H
  00207	c7 45 f0 94 b3
	9f 83		 mov	 DWORD PTR __k$552990[ebp+4], -2086685804 ; 839fb394H
  0020e	66 c7 45 f4 80
	89		 mov	 WORD PTR __k$552990[ebp+8], 35200 ; 00008980H
  00214	8d 45 ec	 lea	 eax, DWORD PTR __k$552990[ebp]
  00217	88 5d f6	 mov	 BYTE PTR __k$552990[ebp+10], bl
  0021a	59		 pop	 ecx
$LL644@LoadProper:
  0021b	81 30 ed ec eb
	ea		 xor	 DWORD PTR [eax], -353637139 ; eaebecedH
  00221	83 c0 04	 add	 eax, 4
  00224	49		 dec	 ecx
  00225	75 f4		 jne	 SHORT $LL644@LoadProper
  00227	6a 08		 push	 8
  00229	58		 pop	 eax
$LL641@LoadProper:
  0022a	8b c8		 mov	 ecx, eax
  0022c	81 e1 03 00 00
	80		 and	 ecx, -2147483645	; 80000003H
  00232	79 05		 jns	 SHORT $LN787@LoadProper
  00234	49		 dec	 ecx
  00235	83 c9 fc	 or	 ecx, -4			; fffffffcH
  00238	41		 inc	 ecx
$LN787@LoadProper:
  00239	b2 ed		 mov	 dl, -19			; ffffffedH
  0023b	2a d1		 sub	 dl, cl
  0023d	30 54 05 ec	 xor	 BYTE PTR __k$552990[ebp+eax], dl
  00241	40		 inc	 eax
  00242	83 f8 0a	 cmp	 eax, 10			; 0000000aH
  00245	7c e3		 jl	 SHORT $LL641@LoadProper
  00247	53		 push	 ebx
  00248	8d 45 ec	 lea	 eax, DWORD PTR __k$552990[ebp]
  0024b	50		 push	 eax
  0024c	8b cf		 mov	 ecx, edi
  0024e	ff 15 00 00 00
	00		 call	 DWORD PTR __imp_?LoadInt@ioINILoader@@QAEHPBDH@Z
  00254	89 45 e0	 mov	 DWORD PTR _value$553090[ebp], eax
  00257	8d 45 e0	 lea	 eax, DWORD PTR _value$553090[ebp]
  0025a	50		 push	 eax
  0025b	8d 8e 84 14 00
	00		 lea	 ecx, DWORD PTR [esi+5252]
  00261	e8 00 00 00 00	 call	 ?EncryptValueToPool@?$CEncrypt@K@@AAEXPBD@Z ; CEncrypt<unsigned long>::EncryptValueToPool

; 40   : 	m_fMoveSpeed  = rkLoader.LoadFloat_e( "move_speed", FLOAT1 );

  00266	b8 01 00 00 00	 mov	 eax, 1
  0026b	6a 02		 push	 2
  0026d	c7 45 ec 80 83
	9d 8f		 mov	 DWORD PTR __k$553124[ebp], -1885502592 ; 8f9d8380H
  00274	c7 45 f0 b2 9f
	9b 8f		 mov	 DWORD PTR __k$553124[ebp+4], -1885626446 ; 8f9b9fb2H
  0027b	66 c7 45 f4 88
	88		 mov	 WORD PTR __k$553124[ebp+8], 34952 ; 00008888H
  00281	8d 4d ec	 lea	 ecx, DWORD PTR __k$553124[ebp]
  00284	88 5d f6	 mov	 BYTE PTR __k$553124[ebp+10], bl
  00287	5a		 pop	 edx
$LL754@LoadProper:
  00288	81 31 ed ec eb
	ea		 xor	 DWORD PTR [ecx], -353637139 ; eaebecedH
  0028e	83 c1 04	 add	 ecx, 4
  00291	4a		 dec	 edx
  00292	75 f4		 jne	 SHORT $LL754@LoadProper
  00294	6a 08		 push	 8
  00296	59		 pop	 ecx
$LL751@LoadProper:
  00297	8b d1		 mov	 edx, ecx
  00299	81 e2 03 00 00
	80		 and	 edx, -2147483645	; 80000003H
  0029f	79 05		 jns	 SHORT $LN788@LoadProper
  002a1	4a		 dec	 edx
  002a2	83 ca fc	 or	 edx, -4			; fffffffcH
  002a5	42		 inc	 edx
$LN788@LoadProper:
  002a6	b3 ed		 mov	 bl, -19			; ffffffedH
  002a8	2a da		 sub	 bl, dl
  002aa	30 5c 0d ec	 xor	 BYTE PTR __k$553124[ebp+ecx], bl
  002ae	41		 inc	 ecx
  002af	83 f9 0a	 cmp	 ecx, 10			; 0000000aH
  002b2	7c e3		 jl	 SHORT $LL751@LoadProper
  002b4	89 45 e0	 mov	 DWORD PTR tv6398[ebp], eax
  002b7	db 45 e0	 fild	 DWORD PTR tv6398[ebp]
  002ba	85 c0		 test	 eax, eax
  002bc	79 06		 jns	 SHORT $LN789@LoadProper
  002be	d8 05 00 00 00
	00		 fadd	 DWORD PTR __real@4f800000
$LN789@LoadProper:
  002c4	51		 push	 ecx
  002c5	8d 45 ec	 lea	 eax, DWORD PTR __k$553124[ebp]
  002c8	d9 1c 24	 fstp	 DWORD PTR [esp]
  002cb	50		 push	 eax
  002cc	8b cf		 mov	 ecx, edi
  002ce	ff 15 00 00 00
	00		 call	 DWORD PTR __imp_?LoadFloat@ioINILoader@@QAEMPBDM@Z
  002d4	d9 9e 90 15 00
	00		 fstp	 DWORD PTR [esi+5520]

; 41   : }

  002da	8b 4d fc	 mov	 ecx, DWORD PTR __$ArrayPad$[ebp]
  002dd	5f		 pop	 edi
  002de	5e		 pop	 esi
  002df	33 cd		 xor	 ecx, ebp
  002e1	5b		 pop	 ebx
  002e2	e8 00 00 00 00	 call	 @__security_check_cookie@4
  002e7	c9		 leave
  002e8	c2 04 00	 ret	 4
?LoadProperty@ioMoveAttack3Dummy@@UAEXAAVioINILoader@@@Z ENDP ; ioMoveAttack3Dummy::LoadProperty
; Function compile flags: /Ogsp
; File d:\lost saga for developer\youtube\tutorial\source\src\lsclient\ioplayentity.h
_TEXT	ENDS
;	COMDAT ?SetTeam@ioPlayEntity@@UAEXW4TeamType@@@Z
_TEXT	SEGMENT
_value$553263 = 8					; size = 4
_eType$ = 8						; size = 4
?SetTeam@ioPlayEntity@@UAEXW4TeamType@@@Z PROC		; ioPlayEntity::SetTeam, COMDAT
; _this$ = ecx

; 106  : 	virtual void SetTeam( TeamType eType ) { m_TeamType = eType; }

  00000	55		 push	 ebp
  00001	8b ec		 mov	 ebp, esp
  00003	8b 45 08	 mov	 eax, DWORD PTR _eType$[ebp]
  00006	89 45 08	 mov	 DWORD PTR _value$553263[ebp], eax
  00009	8d 45 08	 lea	 eax, DWORD PTR _value$553263[ebp]
  0000c	50		 push	 eax
  0000d	81 c1 90 00 00
	00		 add	 ecx, 144		; 00000090H
  00013	e8 00 00 00 00	 call	 ?EncryptValueToPool@?$CEncrypt@W4TeamType@@@@AAEXPBD@Z ; CEncrypt<enum TeamType>::EncryptValueToPool
  00018	5d		 pop	 ebp
  00019	c2 04 00	 ret	 4
?SetTeam@ioPlayEntity@@UAEXW4TeamType@@@Z ENDP		; ioPlayEntity::SetTeam
_TEXT	ENDS
PUBLIC	??9?$_Vector_const_iterator@V?$_Vector_val@VioHashString@@V?$allocator@VioHashString@@@std@@@std@@@std@@QBE_NABV01@@Z ; std::_Vector_const_iterator<std::_Vector_val<ioHashString,std::allocator<ioHashString> > >::operator!=
; Function compile flags: /Ogsp
; File c:\program files (x86)\microsoft visual studio 10.0\vc\include\vector
;	COMDAT ??9?$_Vector_const_iterator@V?$_Vector_val@VioHashString@@V?$allocator@VioHashString@@@std@@@std@@@std@@QBE_NABV01@@Z
_TEXT	SEGMENT
__Right$ = 8						; size = 4
??9?$_Vector_const_iterator@V?$_Vector_val@VioHashString@@V?$allocator@VioHashString@@@std@@@std@@@std@@QBE_NABV01@@Z PROC ; std::_Vector_const_iterator<std::_Vector_val<ioHashString,std::allocator<ioHashString> > >::operator!=, COMDAT
; _this$ = ecx

; 207  : 		{	// test for iterator inequality

  00000	55		 push	 ebp
  00001	8b ec		 mov	 ebp, esp

; 208  : 		return (!(*this == _Right));

  00003	8b 01		 mov	 eax, DWORD PTR [ecx]
  00005	8b 55 08	 mov	 edx, DWORD PTR __Right$[ebp]
  00008	33 c9		 xor	 ecx, ecx
  0000a	3b 02		 cmp	 eax, DWORD PTR [edx]
  0000c	0f 95 c0	 setne	 al

; 209  : 		}

  0000f	5d		 pop	 ebp
  00010	c2 04 00	 ret	 4
??9?$_Vector_const_iterator@V?$_Vector_val@VioHashString@@V?$allocator@VioHashString@@@std@@@std@@@std@@QBE_NABV01@@Z ENDP ; std::_Vector_const_iterator<std::_Vector_val<ioHashString,std::allocator<ioHashString> > >::operator!=
_TEXT	ENDS
PUBLIC	??$_Move@PAVioHashString@@PAV1@@std@@YAPAVioHashString@@PAV1@00@Z ; std::_Move<ioHashString *,ioHashString *>
; Function compile flags: /Ogsp
; File c:\program files (x86)\microsoft visual studio 10.0\vc\include\xutility
;	COMDAT ??$_Move@PAVioHashString@@PAV1@@std@@YAPAVioHashString@@PAV1@00@Z
_TEXT	SEGMENT
__Cat$553280 = -4					; size = 1
__First$ = 8						; size = 4
__Last$ = 12						; size = 4
__Dest$ = 16						; size = 4
??$_Move@PAVioHashString@@PAV1@@std@@YAPAVioHashString@@PAV1@00@Z PROC ; std::_Move<ioHashString *,ioHashString *>, COMDAT

; 2533 : 	{	// move [_First, _Last) to [_Dest, ...), unchecked

  00000	55		 push	 ebp
  00001	8b ec		 mov	 ebp, esp
  00003	51		 push	 ecx

; 2534 : 	return (_Move(_First, _Last,
; 2535 : 		_Dest, _Ptr_cat(_First, _Dest)));

  00004	ff 75 fc	 push	 DWORD PTR __Cat$553280[ebp]
  00007	ff 75 10	 push	 DWORD PTR __Dest$[ebp]
  0000a	ff 75 0c	 push	 DWORD PTR __Last$[ebp]
  0000d	ff 75 08	 push	 DWORD PTR __First$[ebp]
  00010	e8 00 00 00 00	 call	 ??$_Move@PAVioHashString@@PAV1@@std@@YAPAVioHashString@@PAV1@00U_Nonscalar_ptr_iterator_tag@0@@Z ; std::_Move<ioHashString *,ioHashString *>
  00015	83 c4 10	 add	 esp, 16			; 00000010H

; 2536 : 	}

  00018	c9		 leave
  00019	c3		 ret	 0
??$_Move@PAVioHashString@@PAV1@@std@@YAPAVioHashString@@PAV1@00@Z ENDP ; std::_Move<ioHashString *,ioHashString *>
_TEXT	ENDS
PUBLIC	?destroy@?$allocator@VioHashString@@@std@@QAEXPAVioHashString@@@Z ; std::allocator<ioHashString>::destroy
; Function compile flags: /Ogsp
; File c:\program files (x86)\microsoft visual studio 10.0\vc\include\xmemory
;	COMDAT ?destroy@?$allocator@VioHashString@@@std@@QAEXPAVioHashString@@@Z
_TEXT	SEGMENT
__Ptr$ = 8						; size = 4
?destroy@?$allocator@VioHashString@@@std@@QAEXPAVioHashString@@@Z PROC ; std::allocator<ioHashString>::destroy, COMDAT
; _this$ = ecx

; 212  : 		{	// destroy object at _Ptr

  00000	55		 push	 ebp
  00001	8b ec		 mov	 ebp, esp

; 213  : 		_Destroy(_Ptr);

  00003	8b 4d 08	 mov	 ecx, DWORD PTR __Ptr$[ebp]
  00006	ff 15 00 00 00
	00		 call	 DWORD PTR __imp_??1ioHashString@@QAE@XZ

; 214  : 		}

  0000c	5d		 pop	 ebp
  0000d	c2 04 00	 ret	 4
?destroy@?$allocator@VioHashString@@@std@@QAEXPAVioHashString@@@Z ENDP ; std::allocator<ioHashString>::destroy
_TEXT	ENDS
PUBLIC	??$_Dest_val@V?$allocator@VioHashString@@@std@@VioHashString@@@std@@YAXAAV?$allocator@VioHashString@@@0@PAVioHashString@@@Z ; std::_Dest_val<std::allocator<ioHashString>,ioHashString>
; Function compile flags: /Ogsp
;	COMDAT ??$_Dest_val@V?$allocator@VioHashString@@@std@@VioHashString@@@std@@YAXAAV?$allocator@VioHashString@@@0@PAVioHashString@@@Z
_TEXT	SEGMENT
__Alval$ = 8						; size = 4
__Pdest$ = 12						; size = 4
??$_Dest_val@V?$allocator@VioHashString@@@std@@VioHashString@@@std@@YAXAAV?$allocator@VioHashString@@@0@PAVioHashString@@@Z PROC ; std::_Dest_val<std::allocator<ioHashString>,ioHashString>, COMDAT

; 286  : 	{	// destroy using allocator

  00000	55		 push	 ebp
  00001	8b ec		 mov	 ebp, esp

; 287  : 	_Alval.destroy(_Pdest);

  00003	8b 4d 0c	 mov	 ecx, DWORD PTR __Pdest$[ebp]

; 288  : 	}

  00006	5d		 pop	 ebp

; 287  : 	_Alval.destroy(_Pdest);

  00007	ff 25 00 00 00
	00		 jmp	 DWORD PTR __imp_??1ioHashString@@QAE@XZ
??$_Dest_val@V?$allocator@VioHashString@@@std@@VioHashString@@@std@@YAXAAV?$allocator@VioHashString@@@0@PAVioHashString@@@Z ENDP ; std::_Dest_val<std::allocator<ioHashString>,ioHashString>
_TEXT	ENDS
PUBLIC	??$_Destroy_range@V?$allocator@VioHashString@@@std@@@std@@YAXPAVioHashString@@0AAV?$allocator@VioHashString@@@0@U_Nonscalar_ptr_iterator_tag@0@@Z ; std::_Destroy_range<std::allocator<ioHashString> >
; Function compile flags: /Ogsp
;	COMDAT ??$_Destroy_range@V?$allocator@VioHashString@@@std@@@std@@YAXPAVioHashString@@0AAV?$allocator@VioHashString@@@0@U_Nonscalar_ptr_iterator_tag@0@@Z
_TEXT	SEGMENT
__First$ = 8						; size = 4
__Last$ = 12						; size = 4
__Al$ = 16						; size = 4
___formal$ = 20						; size = 1
??$_Destroy_range@V?$allocator@VioHashString@@@std@@@std@@YAXPAVioHashString@@0AAV?$allocator@VioHashString@@@0@U_Nonscalar_ptr_iterator_tag@0@@Z PROC ; std::_Destroy_range<std::allocator<ioHashString> >, COMDAT

; 95   : 	{	// destroy [_First, _Last), arbitrary type

  00000	55		 push	 ebp
  00001	8b ec		 mov	 ebp, esp
  00003	56		 push	 esi

; 96   : 	for (; _First != _Last; ++_First)

  00004	8b 75 08	 mov	 esi, DWORD PTR __First$[ebp]
  00007	eb 0b		 jmp	 SHORT $LN17@Destroy_ra
$LL3@Destroy_ra:

; 97   : 		_Dest_val(_Al, _First);

  00009	8b ce		 mov	 ecx, esi
  0000b	ff 15 00 00 00
	00		 call	 DWORD PTR __imp_??1ioHashString@@QAE@XZ
  00011	83 c6 10	 add	 esi, 16			; 00000010H
$LN17@Destroy_ra:

; 96   : 	for (; _First != _Last; ++_First)

  00014	3b 75 0c	 cmp	 esi, DWORD PTR __Last$[ebp]
  00017	75 f0		 jne	 SHORT $LL3@Destroy_ra
  00019	5e		 pop	 esi

; 98   : 	}

  0001a	5d		 pop	 ebp
  0001b	c3		 ret	 0
??$_Destroy_range@V?$allocator@VioHashString@@@std@@@std@@YAXPAVioHashString@@0AAV?$allocator@VioHashString@@@0@U_Nonscalar_ptr_iterator_tag@0@@Z ENDP ; std::_Destroy_range<std::allocator<ioHashString> >
_TEXT	ENDS
PUBLIC	??$_Destroy_range@V?$allocator@VioHashString@@@std@@@std@@YAXPAVioHashString@@0AAV?$allocator@VioHashString@@@0@@Z ; std::_Destroy_range<std::allocator<ioHashString> >
; Function compile flags: /Ogsp
;	COMDAT ??$_Destroy_range@V?$allocator@VioHashString@@@std@@@std@@YAXPAVioHashString@@0AAV?$allocator@VioHashString@@@0@@Z
_TEXT	SEGMENT
__First$ = 8						; size = 4
__Last$ = 12						; size = 4
__Al$ = 16						; size = 4
??$_Destroy_range@V?$allocator@VioHashString@@@std@@@std@@YAXPAVioHashString@@0AAV?$allocator@VioHashString@@@0@@Z PROC ; std::_Destroy_range<std::allocator<ioHashString> >, COMDAT

; 87   : 	{	// destroy [_First, _Last)

  00000	55		 push	 ebp
  00001	8b ec		 mov	 ebp, esp
  00003	56		 push	 esi

; 88   : 	_Destroy_range(_First, _Last, _Al, _Ptr_cat(_First, _Last));

  00004	8b 75 08	 mov	 esi, DWORD PTR __First$[ebp]
  00007	eb 0b		 jmp	 SHORT $LN21@Destroy_ra@2
$LL7@Destroy_ra@2:
  00009	8b ce		 mov	 ecx, esi
  0000b	ff 15 00 00 00
	00		 call	 DWORD PTR __imp_??1ioHashString@@QAE@XZ
  00011	83 c6 10	 add	 esi, 16			; 00000010H
$LN21@Destroy_ra@2:
  00014	3b 75 0c	 cmp	 esi, DWORD PTR __Last$[ebp]
  00017	75 f0		 jne	 SHORT $LL7@Destroy_ra@2
  00019	5e		 pop	 esi

; 89   : 	}

  0001a	5d		 pop	 ebp
  0001b	c3		 ret	 0
??$_Destroy_range@V?$allocator@VioHashString@@@std@@@std@@YAXPAVioHashString@@0AAV?$allocator@VioHashString@@@0@@Z ENDP ; std::_Destroy_range<std::allocator<ioHashString> >
_TEXT	ENDS
PUBLIC	?_Destroy@?$vector@VioHashString@@V?$allocator@VioHashString@@@std@@@std@@IAEXPAVioHashString@@0@Z ; std::vector<ioHashString,std::allocator<ioHashString> >::_Destroy
; Function compile flags: /Ogsp
; File c:\program files (x86)\microsoft visual studio 10.0\vc\include\vector
;	COMDAT ?_Destroy@?$vector@VioHashString@@V?$allocator@VioHashString@@@std@@@std@@IAEXPAVioHashString@@0@Z
_TEXT	SEGMENT
__First$ = 8						; size = 4
__Last$ = 12						; size = 4
?_Destroy@?$vector@VioHashString@@V?$allocator@VioHashString@@@std@@@std@@IAEXPAVioHashString@@0@Z PROC ; std::vector<ioHashString,std::allocator<ioHashString> >::_Destroy, COMDAT
; _this$ = ecx

; 1269 : 		{	// destroy [_First, _Last) using allocator

  00000	55		 push	 ebp
  00001	8b ec		 mov	 ebp, esp
  00003	56		 push	 esi

; 1270 : 		_Destroy_range(_First, _Last, this->_Alval);

  00004	8b 75 08	 mov	 esi, DWORD PTR __First$[ebp]
  00007	eb 0b		 jmp	 SHORT $LN23@Destroy
$LL9@Destroy:
  00009	8b ce		 mov	 ecx, esi
  0000b	ff 15 00 00 00
	00		 call	 DWORD PTR __imp_??1ioHashString@@QAE@XZ
  00011	83 c6 10	 add	 esi, 16			; 00000010H
$LN23@Destroy:
  00014	3b 75 0c	 cmp	 esi, DWORD PTR __Last$[ebp]
  00017	75 f0		 jne	 SHORT $LL9@Destroy
  00019	5e		 pop	 esi

; 1271 : 		}

  0001a	5d		 pop	 ebp
  0001b	c2 08 00	 ret	 8
?_Destroy@?$vector@VioHashString@@V?$allocator@VioHashString@@@std@@@std@@IAEXPAVioHashString@@0@Z ENDP ; std::vector<ioHashString,std::allocator<ioHashString> >::_Destroy
_TEXT	ENDS
PUBLIC	?erase@?$vector@VioHashString@@V?$allocator@VioHashString@@@std@@@std@@QAE?AV?$_Vector_iterator@V?$_Vector_val@VioHashString@@V?$allocator@VioHashString@@@std@@@std@@@2@V?$_Vector_const_iterator@V?$_Vector_val@VioHashString@@V?$allocator@VioHashString@@@std@@@std@@@2@0@Z ; std::vector<ioHashString,std::allocator<ioHashString> >::erase
; Function compile flags: /Ogsp
;	COMDAT ?erase@?$vector@VioHashString@@V?$allocator@VioHashString@@@std@@@std@@QAE?AV?$_Vector_iterator@V?$_Vector_val@VioHashString@@V?$allocator@VioHashString@@@std@@@std@@@2@V?$_Vector_const_iterator@V?$_Vector_val@VioHashString@@V?$allocator@VioHashString@@@std@@@std@@@2@0@Z
_TEXT	SEGMENT
$T553606 = -4						; size = 4
___$ReturnUdt$ = 8					; size = 4
__First_arg$ = 12					; size = 4
__Cat$553550 = 16					; size = 1
__Last_arg$ = 16					; size = 4
?erase@?$vector@VioHashString@@V?$allocator@VioHashString@@@std@@@std@@QAE?AV?$_Vector_iterator@V?$_Vector_val@VioHashString@@V?$allocator@VioHashString@@@std@@@std@@@2@V?$_Vector_const_iterator@V?$_Vector_val@VioHashString@@V?$allocator@VioHashString@@@std@@@std@@@2@0@Z PROC ; std::vector<ioHashString,std::allocator<ioHashString> >::erase, COMDAT
; _this$ = ecx

; 1190 : 		{	// erase [_First, _Last)

  00000	55		 push	 ebp
  00001	8b ec		 mov	 ebp, esp
  00003	51		 push	 ecx

; 1191 : 		iterator _First = _Make_iter(_First_arg);

  00004	8b 45 08	 mov	 eax, DWORD PTR ___$ReturnUdt$[ebp]
  00007	56		 push	 esi
  00008	8b f1		 mov	 esi, ecx
  0000a	8b 4d 0c	 mov	 ecx, DWORD PTR __First_arg$[ebp]
  0000d	89 08		 mov	 DWORD PTR [eax], ecx

; 1192 : 		iterator _Last = _Make_iter(_Last_arg);
; 1193 : 
; 1194 : 		if (_First != _Last)

  0000f	3b 4d 10	 cmp	 ecx, DWORD PTR __Last_arg$[ebp]
  00012	74 38		 je	 SHORT $LN1@erase

; 1195 : 			{	// worth doing, copy down over hole
; 1196 :  #if _ITERATOR_DEBUG_LEVEL == 2
; 1197 : 			if (_Last < _First || _VICONT(_First) != this
; 1198 : 				|| _VIPTR(_First) < this->_Myfirst
; 1199 : 				|| this->_Mylast < _VIPTR(_Last))
; 1200 : 				_DEBUG_ERROR("vector erase iterator outside range");
; 1201 : 			pointer _Ptr = _Move(_VIPTR(_Last), this->_Mylast,
; 1202 : 				_VIPTR(_First));
; 1203 : 			_Orphan_range(_VIPTR(_First), this->_Mylast);
; 1204 : 
; 1205 :  #else /* _ITERATOR_DEBUG_LEVEL == 2 */
; 1206 : 			pointer _Ptr = _Move(_VIPTR(_Last), this->_Mylast,
; 1207 : 				_VIPTR(_First));

  00014	8b 46 04	 mov	 eax, DWORD PTR [esi+4]
  00017	53		 push	 ebx
  00018	57		 push	 edi
  00019	ff 75 10	 push	 DWORD PTR __Cat$553550[ebp]
  0001c	51		 push	 ecx
  0001d	50		 push	 eax
  0001e	ff 75 10	 push	 DWORD PTR __Last_arg$[ebp]
  00021	e8 00 00 00 00	 call	 ??$_Move@PAVioHashString@@PAV1@@std@@YAPAVioHashString@@PAV1@00U_Nonscalar_ptr_iterator_tag@0@@Z ; std::_Move<ioHashString *,ioHashString *>

; 1208 :  #endif /* _ITERATOR_DEBUG_LEVEL == 2 */
; 1209 : 
; 1210 : 			_Destroy(_Ptr, this->_Mylast);

  00026	8b 7e 04	 mov	 edi, DWORD PTR [esi+4]
  00029	8b d8		 mov	 ebx, eax
  0002b	83 c4 10	 add	 esp, 16			; 00000010H
  0002e	89 5d fc	 mov	 DWORD PTR $T553606[ebp], ebx
  00031	3b df		 cmp	 ebx, edi
  00033	74 12		 je	 SHORT $LN36@erase
$LL52@erase:
  00035	8b 4d fc	 mov	 ecx, DWORD PTR $T553606[ebp]
  00038	ff 15 00 00 00
	00		 call	 DWORD PTR __imp_??1ioHashString@@QAE@XZ
  0003e	83 45 fc 10	 add	 DWORD PTR $T553606[ebp], 16 ; 00000010H
  00042	39 7d fc	 cmp	 DWORD PTR $T553606[ebp], edi
  00045	75 ee		 jne	 SHORT $LL52@erase
$LN36@erase:

; 1211 : 			this->_Mylast = _Ptr;

  00047	5f		 pop	 edi
  00048	89 5e 04	 mov	 DWORD PTR [esi+4], ebx
  0004b	5b		 pop	 ebx
$LN1@erase:

; 1212 : 			}
; 1213 : 		return (_First);

  0004c	8b 45 08	 mov	 eax, DWORD PTR ___$ReturnUdt$[ebp]
  0004f	5e		 pop	 esi

; 1214 : 		}

  00050	c9		 leave
  00051	c2 0c 00	 ret	 12			; 0000000cH
?erase@?$vector@VioHashString@@V?$allocator@VioHashString@@@std@@@std@@QAE?AV?$_Vector_iterator@V?$_Vector_val@VioHashString@@V?$allocator@VioHashString@@@std@@@std@@@2@V?$_Vector_const_iterator@V?$_Vector_val@VioHashString@@V?$allocator@VioHashString@@@std@@@std@@@2@0@Z ENDP ; std::vector<ioHashString,std::allocator<ioHashString> >::erase
_TEXT	ENDS
PUBLIC	?clear@?$vector@VioHashString@@V?$allocator@VioHashString@@@std@@@std@@QAEXXZ ; std::vector<ioHashString,std::allocator<ioHashString> >::clear
; Function compile flags: /Ogsp
;	COMDAT ?clear@?$vector@VioHashString@@V?$allocator@VioHashString@@@std@@@std@@QAEXXZ
_TEXT	SEGMENT
$T553659 = -4						; size = 4
?clear@?$vector@VioHashString@@V?$allocator@VioHashString@@@std@@@std@@QAEXXZ PROC ; std::vector<ioHashString,std::allocator<ioHashString> >::clear, COMDAT
; _this$ = ecx

; 1217 : 		{	// erase all

  00000	55		 push	 ebp
  00001	8b ec		 mov	 ebp, esp
  00003	51		 push	 ecx

; 1218 : 		erase(begin(), end());

  00004	8b 41 04	 mov	 eax, DWORD PTR [ecx+4]
  00007	8b 11		 mov	 edx, DWORD PTR [ecx]
  00009	50		 push	 eax
  0000a	52		 push	 edx
  0000b	8d 45 fc	 lea	 eax, DWORD PTR $T553659[ebp]
  0000e	50		 push	 eax
  0000f	e8 00 00 00 00	 call	 ?erase@?$vector@VioHashString@@V?$allocator@VioHashString@@@std@@@std@@QAE?AV?$_Vector_iterator@V?$_Vector_val@VioHashString@@V?$allocator@VioHashString@@@std@@@std@@@2@V?$_Vector_const_iterator@V?$_Vector_val@VioHashString@@V?$allocator@VioHashString@@@std@@@std@@@2@0@Z ; std::vector<ioHashString,std::allocator<ioHashString> >::erase

; 1219 : 		}

  00014	c9		 leave
  00015	c3		 ret	 0
?clear@?$vector@VioHashString@@V?$allocator@VioHashString@@@std@@@std@@QAEXXZ ENDP ; std::vector<ioHashString,std::allocator<ioHashString> >::clear
_TEXT	ENDS
PUBLIC	??0ioMoveAttack3Dummy@@QAE@PAVioEntityGroup@@PAVioPlayMode@@@Z ; ioMoveAttack3Dummy::ioMoveAttack3Dummy
EXTRN	__imp_?VEC3_ZERO@ioMath@@2UD3DXVECTOR3@@A:BYTE
EXTRN	??0ioDummyChar@@QAE@PAVioEntityGroup@@PAVioPlayMode@@@Z:PROC ; ioDummyChar::ioDummyChar
;	COMDAT xdata$x
; File c:\program files (x86)\microsoft visual studio 10.0\vc\include\xutility
xdata$x	SEGMENT
__ehfuncinfo$??0ioMoveAttack3Dummy@@QAE@PAVioEntityGroup@@PAVioPlayMode@@@Z DD 019930522H
	DD	06H
	DD	FLAT:__unwindtable$??0ioMoveAttack3Dummy@@QAE@PAVioEntityGroup@@PAVioPlayMode@@@Z
	DD	2 DUP(00H)
	DD	2 DUP(00H)
	DD	00H
	DD	01H
__unwindtable$??0ioMoveAttack3Dummy@@QAE@PAVioEntityGroup@@PAVioPlayMode@@@Z DD 0ffffffffH
	DD	FLAT:__unwindfunclet$??0ioMoveAttack3Dummy@@QAE@PAVioEntityGroup@@PAVioPlayMode@@@Z$0
	DD	00H
	DD	FLAT:__unwindfunclet$??0ioMoveAttack3Dummy@@QAE@PAVioEntityGroup@@PAVioPlayMode@@@Z$1
	DD	01H
	DD	FLAT:__unwindfunclet$??0ioMoveAttack3Dummy@@QAE@PAVioEntityGroup@@PAVioPlayMode@@@Z$2
	DD	02H
	DD	FLAT:__unwindfunclet$??0ioMoveAttack3Dummy@@QAE@PAVioEntityGroup@@PAVioPlayMode@@@Z$3
	DD	03H
	DD	FLAT:__unwindfunclet$??0ioMoveAttack3Dummy@@QAE@PAVioEntityGroup@@PAVioPlayMode@@@Z$4
	DD	04H
	DD	FLAT:__unwindfunclet$??0ioMoveAttack3Dummy@@QAE@PAVioEntityGroup@@PAVioPlayMode@@@Z$5
; Function compile flags: /Ogsp
; File d:\lost saga for developer\youtube\tutorial\source\src\lsclient\iomoveattack3dummy.cpp
xdata$x	ENDS
;	COMDAT ??0ioMoveAttack3Dummy@@QAE@PAVioEntityGroup@@PAVioPlayMode@@@Z
_TEXT	SEGMENT
_this$ = -16						; size = 4
__$EHRec$ = -12						; size = 12
_pGrp$ = 8						; size = 4
$T553783 = 12						; size = 4
_pMode$ = 12						; size = 4
??0ioMoveAttack3Dummy@@QAE@PAVioEntityGroup@@PAVioPlayMode@@@Z PROC ; ioMoveAttack3Dummy::ioMoveAttack3Dummy, COMDAT
; _this$ = ecx

; 13   : {

  00000	6a 04		 push	 4
  00002	b8 00 00 00 00	 mov	 eax, __ehhandler$??0ioMoveAttack3Dummy@@QAE@PAVioEntityGroup@@PAVioPlayMode@@@Z
  00007	e8 00 00 00 00	 call	 __EH_prolog3
  0000c	8b d9		 mov	 ebx, ecx
  0000e	89 5d f0	 mov	 DWORD PTR _this$[ebp], ebx
  00011	ff 75 0c	 push	 DWORD PTR _pMode$[ebp]
  00014	ff 75 08	 push	 DWORD PTR _pGrp$[ebp]
  00017	e8 00 00 00 00	 call	 ??0ioDummyChar@@QAE@PAVioEntityGroup@@PAVioPlayMode@@@Z ; ioDummyChar::ioDummyChar
  0001c	33 f6		 xor	 esi, esi
  0001e	8d 8b 84 14 00
	00		 lea	 ecx, DWORD PTR [ebx+5252]
  00024	89 75 fc	 mov	 DWORD PTR __$EHRec$[ebp+8], esi
  00027	c7 03 00 00 00
	00		 mov	 DWORD PTR [ebx], OFFSET ??_7ioMoveAttack3Dummy@@6BioPlayEntity@@@
  0002d	c7 83 c8 01 00
	00 00 00 00 00	 mov	 DWORD PTR [ebx+456], OFFSET ??_7ioMoveAttack3Dummy@@6BioWorldEventReceiver@@@
  00037	e8 00 00 00 00	 call	 ??0?$CEncrypt@K@@QAE@XZ	; CEncrypt<unsigned long>::CEncrypt<unsigned long>
  0003c	8d 8b bc 14 00
	00		 lea	 ecx, DWORD PTR [ebx+5308]
  00042	c6 45 fc 01	 mov	 BYTE PTR __$EHRec$[ebp+8], 1
  00046	e8 00 00 00 00	 call	 ??0?$CEncrypt@M@@QAE@XZ	; CEncrypt<float>::CEncrypt<float>
  0004b	8d 8b ec 14 00
	00		 lea	 ecx, DWORD PTR [ebx+5356]
  00051	c6 45 fc 02	 mov	 BYTE PTR __$EHRec$[ebp+8], 2
  00055	e8 00 00 00 00	 call	 ??0?$CEncrypt@M@@QAE@XZ	; CEncrypt<float>::CEncrypt<float>
  0005a	8d 8b 1c 15 00
	00		 lea	 ecx, DWORD PTR [ebx+5404]
  00060	c6 45 fc 03	 mov	 BYTE PTR __$EHRec$[ebp+8], 3
  00064	e8 00 00 00 00	 call	 ??0?$CEncrypt@M@@QAE@XZ	; CEncrypt<float>::CEncrypt<float>
  00069	8d 8b 4c 15 00
	00		 lea	 ecx, DWORD PTR [ebx+5452]
  0006f	c6 45 fc 04	 mov	 BYTE PTR __$EHRec$[ebp+8], 4
  00073	e8 00 00 00 00	 call	 ??0?$CEncrypt@K@@QAE@XZ	; CEncrypt<unsigned long>::CEncrypt<unsigned long>

; 14   : 	m_dwReturnTime = 0;
; 15   : 	m_fCheckMoveRange = 0.0f;

  00078	0f 57 c0	 xorps	 xmm0, xmm0

; 16   : 	m_MoveState  = MS_WAIT;
; 17   : 	m_CurDirKey = ioUserKeyInput::DKI_NONE;
; 18   : 
; 19   : 	m_vTargetList.clear();

  0007b	8d 8b b8 0f 00
	00		 lea	 ecx, DWORD PTR [ebx+4024]
  00081	89 b3 b4 14 00
	00		 mov	 DWORD PTR [ebx+5300], esi
  00087	f3 0f 11 83 7c
	15 00 00	 movss	 DWORD PTR [ebx+5500], xmm0
  0008f	89 b3 80 14 00
	00		 mov	 DWORD PTR [ebx+5248], esi
  00095	89 b3 5c 0d 00
	00		 mov	 DWORD PTR [ebx+3420], esi
  0009b	8b 41 04	 mov	 eax, DWORD PTR [ecx+4]
  0009e	8b 11		 mov	 edx, DWORD PTR [ecx]
  000a0	50		 push	 eax
  000a1	52		 push	 edx
  000a2	8d 45 0c	 lea	 eax, DWORD PTR $T553783[ebp]
  000a5	50		 push	 eax
  000a6	c6 45 fc 05	 mov	 BYTE PTR __$EHRec$[ebp+8], 5
  000aa	e8 00 00 00 00	 call	 ?erase@?$vector@VioHashString@@V?$allocator@VioHashString@@@std@@@std@@QAE?AV?$_Vector_iterator@V?$_Vector_val@VioHashString@@V?$allocator@VioHashString@@@std@@@std@@@2@V?$_Vector_const_iterator@V?$_Vector_val@VioHashString@@V?$allocator@VioHashString@@@std@@@std@@@2@0@Z ; std::vector<ioHashString,std::allocator<ioHashString> >::erase

; 20   : 
; 21   : 	m_vTargetPos = ioMath::VEC3_ZERO;

  000af	8b 35 00 00 00
	00		 mov	 esi, DWORD PTR __imp_?VEC3_ZERO@ioMath@@2UD3DXVECTOR3@@A
  000b5	8d bb 80 15 00
	00		 lea	 edi, DWORD PTR [ebx+5504]
  000bb	a5		 movsd
  000bc	a5		 movsd
  000bd	a5		 movsd

; 22   : 	m_bCreateWeapon = false;

  000be	c6 83 94 15 00
	00 00		 mov	 BYTE PTR [ebx+5524], 0

; 23   : }

  000c5	8b c3		 mov	 eax, ebx
  000c7	e8 00 00 00 00	 call	 __EH_epilog3
  000cc	c2 08 00	 ret	 8
_TEXT	ENDS
;	COMDAT text$x
text$x	SEGMENT
__unwindfunclet$??0ioMoveAttack3Dummy@@QAE@PAVioEntityGroup@@PAVioPlayMode@@@Z$0:
  00000	8b 4d f0	 mov	 ecx, DWORD PTR _this$[ebp]
  00003	e9 00 00 00 00	 jmp	 ??1ioDummyChar@@UAE@XZ	; ioDummyChar::~ioDummyChar
__unwindfunclet$??0ioMoveAttack3Dummy@@QAE@PAVioEntityGroup@@PAVioPlayMode@@@Z$1:
  00008	8b 4d f0	 mov	 ecx, DWORD PTR _this$[ebp]
  0000b	81 c1 84 14 00
	00		 add	 ecx, 5252		; 00001484H
  00011	e9 00 00 00 00	 jmp	 ??1?$CEncrypt@K@@UAE@XZ	; CEncrypt<unsigned long>::~CEncrypt<unsigned long>
__unwindfunclet$??0ioMoveAttack3Dummy@@QAE@PAVioEntityGroup@@PAVioPlayMode@@@Z$2:
  00016	8b 4d f0	 mov	 ecx, DWORD PTR _this$[ebp]
  00019	81 c1 bc 14 00
	00		 add	 ecx, 5308		; 000014bcH
  0001f	e9 00 00 00 00	 jmp	 ??1?$CEncrypt@M@@UAE@XZ	; CEncrypt<float>::~CEncrypt<float>
__unwindfunclet$??0ioMoveAttack3Dummy@@QAE@PAVioEntityGroup@@PAVioPlayMode@@@Z$3:
  00024	8b 4d f0	 mov	 ecx, DWORD PTR _this$[ebp]
  00027	81 c1 ec 14 00
	00		 add	 ecx, 5356		; 000014ecH
  0002d	e9 00 00 00 00	 jmp	 ??1?$CEncrypt@M@@UAE@XZ	; CEncrypt<float>::~CEncrypt<float>
__unwindfunclet$??0ioMoveAttack3Dummy@@QAE@PAVioEntityGroup@@PAVioPlayMode@@@Z$4:
  00032	8b 4d f0	 mov	 ecx, DWORD PTR _this$[ebp]
  00035	81 c1 1c 15 00
	00		 add	 ecx, 5404		; 0000151cH
  0003b	e9 00 00 00 00	 jmp	 ??1?$CEncrypt@M@@UAE@XZ	; CEncrypt<float>::~CEncrypt<float>
__unwindfunclet$??0ioMoveAttack3Dummy@@QAE@PAVioEntityGroup@@PAVioPlayMode@@@Z$5:
  00040	8b 4d f0	 mov	 ecx, DWORD PTR _this$[ebp]
  00043	81 c1 4c 15 00
	00		 add	 ecx, 5452		; 0000154cH
  00049	e9 00 00 00 00	 jmp	 ??1?$CEncrypt@K@@UAE@XZ	; CEncrypt<unsigned long>::~CEncrypt<unsigned long>
__ehhandler$??0ioMoveAttack3Dummy@@QAE@PAVioEntityGroup@@PAVioPlayMode@@@Z:
  0004e	8b 54 24 08	 mov	 edx, DWORD PTR [esp+8]
  00052	8d 42 0c	 lea	 eax, DWORD PTR [edx+12]
  00055	8b 4a ec	 mov	 ecx, DWORD PTR [edx-20]
  00058	33 c8		 xor	 ecx, eax
  0005a	e8 00 00 00 00	 call	 @__security_check_cookie@4
  0005f	b8 00 00 00 00	 mov	 eax, OFFSET __ehfuncinfo$??0ioMoveAttack3Dummy@@QAE@PAVioEntityGroup@@PAVioPlayMode@@@Z
  00064	e9 00 00 00 00	 jmp	 ___CxxFrameHandler3
text$x	ENDS
??0ioMoveAttack3Dummy@@QAE@PAVioEntityGroup@@PAVioPlayMode@@@Z ENDP ; ioMoveAttack3Dummy::ioMoveAttack3Dummy
END
