; Listing generated by Microsoft (R) Optimizing Compiler Version 16.00.30319.01 

	TITLE	D:\Lost Saga For Developer\Youtube\Tutorial\Source\src\LSClient\ioModeUIController.cpp
	.686P
	.XMM
	include listing.inc
	.model	flat

INCLUDELIB MSVCRT
INCLUDELIB OLDNAMES

PUBLIC	?ms_Singleton@?$Singleton@VioModeUIController@@@@1PAVioModeUIController@@A ; Singleton<ioModeUIController>::ms_Singleton
;	COMDAT ?ms_Singleton@?$Singleton@VioModeUIController@@@@1PAVioModeUIController@@A
_BSS	SEGMENT
?ms_Singleton@?$Singleton@VioModeUIController@@@@1PAVioModeUIController@@A DD 01H DUP (?) ; Singleton<ioModeUIController>::ms_Singleton
_BSS	ENDS
PUBLIC	?ClearCurInfoSound@CenterKillInfoWnd@@QAEXXZ	; CenterKillInfoWnd::ClearCurInfoSound
EXTRN	__imp_?Clear@ioHashString@@QAEXXZ:PROC
; Function compile flags: /Ogsp
; File d:\lost saga for developer\youtube\tutorial\source\src\lsclient\gui\centerkillinfownd.h
;	COMDAT ?ClearCurInfoSound@CenterKillInfoWnd@@QAEXXZ
_TEXT	SEGMENT
?ClearCurInfoSound@CenterKillInfoWnd@@QAEXXZ PROC	; CenterKillInfoWnd::ClearCurInfoSound, COMDAT
; _this$ = ecx

; 183  : 	void ClearCurInfoSound() { m_szCurCenterInfoSound.Clear(); }

  00000	81 c1 ac 01 00
	00		 add	 ecx, 428		; 000001acH
  00006	ff 25 00 00 00
	00		 jmp	 DWORD PTR __imp_?Clear@ioHashString@@QAEXXZ
?ClearCurInfoSound@CenterKillInfoWnd@@QAEXXZ ENDP	; CenterKillInfoWnd::ClearCurInfoSound
_TEXT	ENDS
PUBLIC	?GetCharName@ioBaseChar@@QBEABVioHashString@@XZ	; ioBaseChar::GetCharName
; Function compile flags: /Ogsp
; File d:\lost saga for developer\youtube\tutorial\source\src\lsclient\iobasechar.h
;	COMDAT ?GetCharName@ioBaseChar@@QBEABVioHashString@@XZ
_TEXT	SEGMENT
?GetCharName@ioBaseChar@@QBEABVioHashString@@XZ PROC	; ioBaseChar::GetCharName, COMDAT
; _this$ = ecx

; 2594 : 	inline const ioHashString& GetCharName() const { return m_Name; }

  00000	8d 81 d4 02 00
	00		 lea	 eax, DWORD PTR [ecx+724]
  00006	c3		 ret	 0
?GetCharName@ioBaseChar@@QBEABVioHashString@@XZ ENDP	; ioBaseChar::GetCharName
_TEXT	ENDS
PUBLIC	?GetCharacterInfo@ioBaseChar@@QBEABUCHARACTER@@XZ ; ioBaseChar::GetCharacterInfo
; Function compile flags: /Ogsp
;	COMDAT ?GetCharacterInfo@ioBaseChar@@QBEABUCHARACTER@@XZ
_TEXT	SEGMENT
?GetCharacterInfo@ioBaseChar@@QBEABUCHARACTER@@XZ PROC	; ioBaseChar::GetCharacterInfo, COMDAT
; _this$ = ecx

; 2777 : 	inline const CHARACTER& GetCharacterInfo() const { return m_CharInfo; }

  00000	8d 81 58 03 00
	00		 lea	 eax, DWORD PTR [ecx+856]
  00006	c3		 ret	 0
?GetCharacterInfo@ioBaseChar@@QBEABUCHARACTER@@XZ ENDP	; ioBaseChar::GetCharacterInfo
_TEXT	ENDS
PUBLIC	?LoadINI@ioModeUIController@@QAEXXZ		; ioModeUIController::LoadINI
; Function compile flags: /Ogsp
; File d:\lost saga for developer\youtube\tutorial\source\src\lsclient\iomodeuicontroller.cpp
;	COMDAT ?LoadINI@ioModeUIController@@QAEXXZ
_TEXT	SEGMENT
?LoadINI@ioModeUIController@@QAEXXZ PROC		; ioModeUIController::LoadINI, COMDAT
; _this$ = ecx

; 35   : 	
; 36   : }

  00000	c3		 ret	 0
?LoadINI@ioModeUIController@@QAEXXZ ENDP		; ioModeUIController::LoadINI
_TEXT	ENDS
PUBLIC	?ProcessController@ioModeUIController@@QAEXXZ	; ioModeUIController::ProcessController
; Function compile flags: /Ogsp
;	COMDAT ?ProcessController@ioModeUIController@@QAEXXZ
_TEXT	SEGMENT
?ProcessController@ioModeUIController@@QAEXXZ PROC	; ioModeUIController::ProcessController, COMDAT
; _this$ = ecx

; 40   : 
; 41   : }

  00000	c3		 ret	 0
?ProcessController@ioModeUIController@@QAEXXZ ENDP	; ioModeUIController::ProcessController
_TEXT	ENDS
PUBLIC	?SetCenterInfoWnd@ioModeUIController@@QAEXPAVioWnd@@@Z ; ioModeUIController::SetCenterInfoWnd
; Function compile flags: /Ogsp
;	COMDAT ?SetCenterInfoWnd@ioModeUIController@@QAEXPAVioWnd@@@Z
_TEXT	SEGMENT
_pCenterInfoWnd$ = 8					; size = 4
?SetCenterInfoWnd@ioModeUIController@@QAEXPAVioWnd@@@Z PROC ; ioModeUIController::SetCenterInfoWnd, COMDAT
; _this$ = ecx

; 44   : {

  00000	55		 push	 ebp
  00001	8b ec		 mov	 ebp, esp

; 45   : 	m_pCenterInfoWnd = pCenterInfoWnd;

  00003	8b 45 08	 mov	 eax, DWORD PTR _pCenterInfoWnd$[ebp]
  00006	89 41 04	 mov	 DWORD PTR [ecx+4], eax

; 46   : }

  00009	5d		 pop	 ebp
  0000a	c2 04 00	 ret	 4
?SetCenterInfoWnd@ioModeUIController@@QAEXPAVioWnd@@@Z ENDP ; ioModeUIController::SetCenterInfoWnd
_TEXT	ENDS
PUBLIC	?SetKOMsgWnd@ioModeUIController@@QAEXPAVioWnd@@@Z ; ioModeUIController::SetKOMsgWnd
; Function compile flags: /Ogsp
;	COMDAT ?SetKOMsgWnd@ioModeUIController@@QAEXPAVioWnd@@@Z
_TEXT	SEGMENT
_pKOMsgWnd$ = 8						; size = 4
?SetKOMsgWnd@ioModeUIController@@QAEXPAVioWnd@@@Z PROC	; ioModeUIController::SetKOMsgWnd, COMDAT
; _this$ = ecx

; 49   : {

  00000	55		 push	 ebp
  00001	8b ec		 mov	 ebp, esp

; 50   : 	m_pKOMsgWnd = pKOMsgWnd;

  00003	8b 45 08	 mov	 eax, DWORD PTR _pKOMsgWnd$[ebp]
  00006	89 41 08	 mov	 DWORD PTR [ecx+8], eax

; 51   : }

  00009	5d		 pop	 ebp
  0000a	c2 04 00	 ret	 4
?SetKOMsgWnd@ioModeUIController@@QAEXPAVioWnd@@@Z ENDP	; ioModeUIController::SetKOMsgWnd
_TEXT	ENDS
PUBLIC	??_R0?AVioWnd@@@8				; ioWnd `RTTI Type Descriptor'
PUBLIC	??_R0?AVCenterInfoWnd@@@8			; CenterInfoWnd `RTTI Type Descriptor'
PUBLIC	?SetDeathTime@ioModeUIController@@QAEXXZ	; ioModeUIController::SetDeathTime
EXTRN	?UpdateDeathTime@CenterInfoWnd@@QAEXXZ:PROC	; CenterInfoWnd::UpdateDeathTime
EXTRN	__imp_?HideWnd@ioWnd@@QAEXXZ:PROC
EXTRN	___RTDynamicCast:PROC
EXTRN	??_7type_info@@6B@:QWORD			; type_info::`vftable'
;	COMDAT ??_R0?AVioWnd@@@8
_DATA	SEGMENT
??_R0?AVioWnd@@@8 DD FLAT:??_7type_info@@6B@		; ioWnd `RTTI Type Descriptor'
	DD	00H
	DB	'.?AVioWnd@@', 00H
_DATA	ENDS
;	COMDAT ??_R0?AVCenterInfoWnd@@@8
_DATA	SEGMENT
??_R0?AVCenterInfoWnd@@@8 DD FLAT:??_7type_info@@6B@	; CenterInfoWnd `RTTI Type Descriptor'
	DD	00H
	DB	'.?AVCenterInfoWnd@@', 00H
; Function compile flags: /Ogsp
_DATA	ENDS
;	COMDAT ?SetDeathTime@ioModeUIController@@QAEXXZ
_TEXT	SEGMENT
?SetDeathTime@ioModeUIController@@QAEXXZ PROC		; ioModeUIController::SetDeathTime, COMDAT
; _this$ = ecx

; 54   : {

  00000	56		 push	 esi
  00001	8b f1		 mov	 esi, ecx

; 55   : 	if( !m_pCenterInfoWnd ) return;

  00003	8b 4e 04	 mov	 ecx, DWORD PTR [esi+4]
  00006	85 c9		 test	 ecx, ecx
  00008	74 27		 je	 SHORT $LN2@SetDeathTi

; 56   : 
; 57   : 	m_pCenterInfoWnd->HideWnd();

  0000a	ff 15 00 00 00
	00		 call	 DWORD PTR __imp_?HideWnd@ioWnd@@QAEXXZ

; 58   : 
; 59   : 	CenterInfoWnd *pCenterInfo = dynamic_cast<CenterInfoWnd*>(m_pCenterInfoWnd);

  00010	6a 00		 push	 0
  00012	68 00 00 00 00	 push	 OFFSET ??_R0?AVCenterInfoWnd@@@8
  00017	68 00 00 00 00	 push	 OFFSET ??_R0?AVioWnd@@@8
  0001c	6a 00		 push	 0
  0001e	ff 76 04	 push	 DWORD PTR [esi+4]
  00021	e8 00 00 00 00	 call	 ___RTDynamicCast
  00026	83 c4 14	 add	 esp, 20			; 00000014H

; 60   : 	pCenterInfo->UpdateDeathTime();

  00029	8b c8		 mov	 ecx, eax
  0002b	5e		 pop	 esi
  0002c	e9 00 00 00 00	 jmp	 ?UpdateDeathTime@CenterInfoWnd@@QAEXXZ ; CenterInfoWnd::UpdateDeathTime
$LN2@SetDeathTi:
  00031	5e		 pop	 esi

; 61   : }

  00032	c3		 ret	 0
?SetDeathTime@ioModeUIController@@QAEXXZ ENDP		; ioModeUIController::SetDeathTime
_TEXT	ENDS
PUBLIC	?SetTeamDeathKO@ioModeUIController@@QAEXW4TeamType@@ABVioHashString@@01MM@Z ; ioModeUIController::SetTeamDeathKO
EXTRN	?UpdateTeamDeathMode@CenterInfoWnd@@QAEXW4TeamType@@ABVioHashString@@01MM@Z:PROC ; CenterInfoWnd::UpdateTeamDeathMode
EXTRN	__fltused:DWORD
; Function compile flags: /Ogsp
;	COMDAT ?SetTeamDeathKO@ioModeUIController@@QAEXW4TeamType@@ABVioHashString@@01MM@Z
_TEXT	SEGMENT
_eKill$ = 8						; size = 4
_szKiller$ = 12						; size = 4
_eDie$ = 16						; size = 4
_szDier$ = 20						; size = 4
_fBlueRate$ = 24					; size = 4
_fRedRate$ = 28						; size = 4
?SetTeamDeathKO@ioModeUIController@@QAEXW4TeamType@@ABVioHashString@@01MM@Z PROC ; ioModeUIController::SetTeamDeathKO, COMDAT
; _this$ = ecx

; 64   : {

  00000	55		 push	 ebp
  00001	8b ec		 mov	 ebp, esp

; 65   : 	if( !m_pCenterInfoWnd ) return;

  00003	8b 41 04	 mov	 eax, DWORD PTR [ecx+4]
  00006	85 c0		 test	 eax, eax
  00008	74 3f		 je	 SHORT $LN2@SetTeamDea

; 66   : 
; 67   : 	CenterInfoWnd *pCenterInfo = dynamic_cast<CenterInfoWnd*>(m_pCenterInfoWnd);

  0000a	6a 00		 push	 0
  0000c	68 00 00 00 00	 push	 OFFSET ??_R0?AVCenterInfoWnd@@@8
  00011	68 00 00 00 00	 push	 OFFSET ??_R0?AVioWnd@@@8
  00016	6a 00		 push	 0
  00018	50		 push	 eax
  00019	e8 00 00 00 00	 call	 ___RTDynamicCast

; 68   : 	pCenterInfo->UpdateTeamDeathMode( eKill, szKiller, eDie, szDier, fBlueRate, fRedRate );

  0001e	f3 0f 10 45 1c	 movss	 xmm0, DWORD PTR _fRedRate$[ebp]
  00023	83 c4 0c	 add	 esp, 12			; 0000000cH
  00026	f3 0f 11 44 24
	04		 movss	 DWORD PTR [esp+4], xmm0
  0002c	f3 0f 10 45 18	 movss	 xmm0, DWORD PTR _fBlueRate$[ebp]
  00031	f3 0f 11 04 24	 movss	 DWORD PTR [esp], xmm0
  00036	ff 75 14	 push	 DWORD PTR _szDier$[ebp]
  00039	8b c8		 mov	 ecx, eax
  0003b	ff 75 10	 push	 DWORD PTR _eDie$[ebp]
  0003e	ff 75 0c	 push	 DWORD PTR _szKiller$[ebp]
  00041	ff 75 08	 push	 DWORD PTR _eKill$[ebp]
  00044	e8 00 00 00 00	 call	 ?UpdateTeamDeathMode@CenterInfoWnd@@QAEXW4TeamType@@ABVioHashString@@01MM@Z ; CenterInfoWnd::UpdateTeamDeathMode
$LN2@SetTeamDea:

; 69   : }

  00049	5d		 pop	 ebp
  0004a	c2 18 00	 ret	 24			; 00000018H
?SetTeamDeathKO@ioModeUIController@@QAEXW4TeamType@@ABVioHashString@@01MM@Z ENDP ; ioModeUIController::SetTeamDeathKO
_TEXT	ENDS
PUBLIC	?SetTeamDeathWarning@ioModeUIController@@QAEXMM@Z ; ioModeUIController::SetTeamDeathWarning
EXTRN	?UpdateTeamDeathWarning@CenterInfoWnd@@QAEXMM@Z:PROC ; CenterInfoWnd::UpdateTeamDeathWarning
; Function compile flags: /Ogsp
;	COMDAT ?SetTeamDeathWarning@ioModeUIController@@QAEXMM@Z
_TEXT	SEGMENT
_fBlueRate$ = 8						; size = 4
_fRedRate$ = 12						; size = 4
?SetTeamDeathWarning@ioModeUIController@@QAEXMM@Z PROC	; ioModeUIController::SetTeamDeathWarning, COMDAT
; _this$ = ecx

; 72   : {

  00000	55		 push	 ebp
  00001	8b ec		 mov	 ebp, esp

; 73   : 	if( !m_pCenterInfoWnd ) return;

  00003	8b 41 04	 mov	 eax, DWORD PTR [ecx+4]
  00006	85 c0		 test	 eax, eax
  00008	74 33		 je	 SHORT $LN2@SetTeamDea@2

; 74   : 
; 75   : 	CenterInfoWnd *pCenterInfo = dynamic_cast<CenterInfoWnd*>(m_pCenterInfoWnd);

  0000a	6a 00		 push	 0
  0000c	68 00 00 00 00	 push	 OFFSET ??_R0?AVCenterInfoWnd@@@8
  00011	68 00 00 00 00	 push	 OFFSET ??_R0?AVioWnd@@@8
  00016	6a 00		 push	 0
  00018	50		 push	 eax
  00019	e8 00 00 00 00	 call	 ___RTDynamicCast

; 76   : 	pCenterInfo->UpdateTeamDeathWarning( fBlueRate, fRedRate );

  0001e	f3 0f 10 45 0c	 movss	 xmm0, DWORD PTR _fRedRate$[ebp]
  00023	83 c4 0c	 add	 esp, 12			; 0000000cH
  00026	f3 0f 11 44 24
	04		 movss	 DWORD PTR [esp+4], xmm0
  0002c	f3 0f 10 45 08	 movss	 xmm0, DWORD PTR _fBlueRate$[ebp]
  00031	8b c8		 mov	 ecx, eax
  00033	f3 0f 11 04 24	 movss	 DWORD PTR [esp], xmm0
  00038	e8 00 00 00 00	 call	 ?UpdateTeamDeathWarning@CenterInfoWnd@@QAEXMM@Z ; CenterInfoWnd::UpdateTeamDeathWarning
$LN2@SetTeamDea@2:

; 77   : }

  0003d	5d		 pop	 ebp
  0003e	c2 08 00	 ret	 8
?SetTeamDeathWarning@ioModeUIController@@QAEXMM@Z ENDP	; ioModeUIController::SetTeamDeathWarning
_TEXT	ENDS
PUBLIC	?SetDeathMatch@ioModeUIController@@QAEXH@Z	; ioModeUIController::SetDeathMatch
EXTRN	?UpdateDeathMatchMode@CenterInfoWnd@@QAEXH@Z:PROC ; CenterInfoWnd::UpdateDeathMatchMode
; Function compile flags: /Ogsp
;	COMDAT ?SetDeathMatch@ioModeUIController@@QAEXH@Z
_TEXT	SEGMENT
_iCurrentRank$ = 8					; size = 4
?SetDeathMatch@ioModeUIController@@QAEXH@Z PROC		; ioModeUIController::SetDeathMatch, COMDAT
; _this$ = ecx

; 80   : {

  00000	55		 push	 ebp
  00001	8b ec		 mov	 ebp, esp

; 81   : 	if( !m_pCenterInfoWnd ) return;

  00003	8b 41 04	 mov	 eax, DWORD PTR [ecx+4]
  00006	85 c0		 test	 eax, eax
  00008	74 1f		 je	 SHORT $LN2@SetDeathMa

; 82   : 	//계속 호출 됨 순위 변경시 show.
; 83   : 	CenterInfoWnd *pCenterInfo = dynamic_cast<CenterInfoWnd*>(m_pCenterInfoWnd);

  0000a	6a 00		 push	 0
  0000c	68 00 00 00 00	 push	 OFFSET ??_R0?AVCenterInfoWnd@@@8
  00011	68 00 00 00 00	 push	 OFFSET ??_R0?AVioWnd@@@8
  00016	6a 00		 push	 0
  00018	50		 push	 eax
  00019	e8 00 00 00 00	 call	 ___RTDynamicCast
  0001e	83 c4 14	 add	 esp, 20			; 00000014H

; 84   : 	pCenterInfo->UpdateDeathMatchMode( iCurrentRank );

  00021	8b c8		 mov	 ecx, eax

; 85   : }

  00023	5d		 pop	 ebp

; 84   : 	pCenterInfo->UpdateDeathMatchMode( iCurrentRank );

  00024	e9 00 00 00 00	 jmp	 ?UpdateDeathMatchMode@CenterInfoWnd@@QAEXH@Z ; CenterInfoWnd::UpdateDeathMatchMode
$LN2@SetDeathMa:

; 85   : }

  00029	5d		 pop	 ebp
  0002a	c2 04 00	 ret	 4
?SetDeathMatch@ioModeUIController@@QAEXH@Z ENDP		; ioModeUIController::SetDeathMatch
_TEXT	ENDS
PUBLIC	?SetDeathMatchWarning@ioModeUIController@@QAEXH@Z ; ioModeUIController::SetDeathMatchWarning
EXTRN	?UpdateDeathMatchWarning@CenterInfoWnd@@QAEXH@Z:PROC ; CenterInfoWnd::UpdateDeathMatchWarning
; Function compile flags: /Ogsp
;	COMDAT ?SetDeathMatchWarning@ioModeUIController@@QAEXH@Z
_TEXT	SEGMENT
_iCurrentRank$ = 8					; size = 4
?SetDeathMatchWarning@ioModeUIController@@QAEXH@Z PROC	; ioModeUIController::SetDeathMatchWarning, COMDAT
; _this$ = ecx

; 88   : {

  00000	55		 push	 ebp
  00001	8b ec		 mov	 ebp, esp

; 89   : 	if( !m_pCenterInfoWnd ) return;

  00003	8b 41 04	 mov	 eax, DWORD PTR [ecx+4]
  00006	85 c0		 test	 eax, eax
  00008	74 1f		 je	 SHORT $LN2@SetDeathMa@2

; 90   : 
; 91   : 	CenterInfoWnd *pCenterInfo = dynamic_cast<CenterInfoWnd*>(m_pCenterInfoWnd);

  0000a	6a 00		 push	 0
  0000c	68 00 00 00 00	 push	 OFFSET ??_R0?AVCenterInfoWnd@@@8
  00011	68 00 00 00 00	 push	 OFFSET ??_R0?AVioWnd@@@8
  00016	6a 00		 push	 0
  00018	50		 push	 eax
  00019	e8 00 00 00 00	 call	 ___RTDynamicCast
  0001e	83 c4 14	 add	 esp, 20			; 00000014H

; 92   : 	pCenterInfo->UpdateDeathMatchWarning( iCurrentRank );

  00021	8b c8		 mov	 ecx, eax

; 93   : }

  00023	5d		 pop	 ebp

; 92   : 	pCenterInfo->UpdateDeathMatchWarning( iCurrentRank );

  00024	e9 00 00 00 00	 jmp	 ?UpdateDeathMatchWarning@CenterInfoWnd@@QAEXH@Z ; CenterInfoWnd::UpdateDeathMatchWarning
$LN2@SetDeathMa@2:

; 93   : }

  00029	5d		 pop	 ebp
  0002a	c2 04 00	 ret	 4
?SetDeathMatchWarning@ioModeUIController@@QAEXH@Z ENDP	; ioModeUIController::SetDeathMatchWarning
_TEXT	ENDS
PUBLIC	?SetGangsiLiveUser@ioModeUIController@@QAEXHABVioHashString@@0@Z ; ioModeUIController::SetGangsiLiveUser
EXTRN	?UpdateGangsiLiveUser@CenterInfoWnd@@QAEXHABVioHashString@@0@Z:PROC ; CenterInfoWnd::UpdateGangsiLiveUser
; Function compile flags: /Ogsp
;	COMDAT ?SetGangsiLiveUser@ioModeUIController@@QAEXHABVioHashString@@0@Z
_TEXT	SEGMENT
_iLiveUser$ = 8						; size = 4
_szGangsi$ = 12						; size = 4
_szSurvivor$ = 16					; size = 4
?SetGangsiLiveUser@ioModeUIController@@QAEXHABVioHashString@@0@Z PROC ; ioModeUIController::SetGangsiLiveUser, COMDAT
; _this$ = ecx

; 96   : {

  00000	55		 push	 ebp
  00001	8b ec		 mov	 ebp, esp

; 97   : 	if( !m_pCenterInfoWnd ) return;

  00003	8b 41 04	 mov	 eax, DWORD PTR [ecx+4]
  00006	85 c0		 test	 eax, eax
  00008	74 1f		 je	 SHORT $LN2@SetGangsiL

; 98   : 
; 99   : 	CenterInfoWnd *pCenterInfo = dynamic_cast<CenterInfoWnd*>(m_pCenterInfoWnd);

  0000a	6a 00		 push	 0
  0000c	68 00 00 00 00	 push	 OFFSET ??_R0?AVCenterInfoWnd@@@8
  00011	68 00 00 00 00	 push	 OFFSET ??_R0?AVioWnd@@@8
  00016	6a 00		 push	 0
  00018	50		 push	 eax
  00019	e8 00 00 00 00	 call	 ___RTDynamicCast
  0001e	83 c4 14	 add	 esp, 20			; 00000014H

; 100  : 	pCenterInfo->UpdateGangsiLiveUser( iLiveUser, szGangsi, szSurvivor );

  00021	8b c8		 mov	 ecx, eax

; 101  : }

  00023	5d		 pop	 ebp

; 100  : 	pCenterInfo->UpdateGangsiLiveUser( iLiveUser, szGangsi, szSurvivor );

  00024	e9 00 00 00 00	 jmp	 ?UpdateGangsiLiveUser@CenterInfoWnd@@QAEXHABVioHashString@@0@Z ; CenterInfoWnd::UpdateGangsiLiveUser
$LN2@SetGangsiL:

; 101  : }

  00029	5d		 pop	 ebp
  0002a	c2 0c 00	 ret	 12			; 0000000cH
?SetGangsiLiveUser@ioModeUIController@@QAEXHABVioHashString@@0@Z ENDP ; ioModeUIController::SetGangsiLiveUser
_TEXT	ENDS
PUBLIC	?SetGangsiAlarm@ioModeUIController@@QAEX_NKK@Z	; ioModeUIController::SetGangsiAlarm
EXTRN	?UpdateGangsiAlarm@CenterInfoWnd@@QAEX_NKK@Z:PROC ; CenterInfoWnd::UpdateGangsiAlarm
; Function compile flags: /Ogsp
;	COMDAT ?SetGangsiAlarm@ioModeUIController@@QAEX_NKK@Z
_TEXT	SEGMENT
_bGangsiAlarmText$ = 8					; size = 1
_dwCurrentTime$ = 12					; size = 4
_dwWarningTime$ = 16					; size = 4
?SetGangsiAlarm@ioModeUIController@@QAEX_NKK@Z PROC	; ioModeUIController::SetGangsiAlarm, COMDAT
; _this$ = ecx

; 104  : {

  00000	55		 push	 ebp
  00001	8b ec		 mov	 ebp, esp

; 105  : 	if( !m_pCenterInfoWnd ) return;

  00003	8b 41 04	 mov	 eax, DWORD PTR [ecx+4]
  00006	85 c0		 test	 eax, eax
  00008	74 1f		 je	 SHORT $LN2@SetGangsiA

; 106  : 
; 107  : 	CenterInfoWnd *pCenterInfo = dynamic_cast<CenterInfoWnd*>(m_pCenterInfoWnd);

  0000a	6a 00		 push	 0
  0000c	68 00 00 00 00	 push	 OFFSET ??_R0?AVCenterInfoWnd@@@8
  00011	68 00 00 00 00	 push	 OFFSET ??_R0?AVioWnd@@@8
  00016	6a 00		 push	 0
  00018	50		 push	 eax
  00019	e8 00 00 00 00	 call	 ___RTDynamicCast
  0001e	83 c4 14	 add	 esp, 20			; 00000014H

; 108  : 	pCenterInfo->UpdateGangsiAlarm( bGangsiAlarmText, dwCurrentTime, dwWarningTime );

  00021	8b c8		 mov	 ecx, eax

; 109  : }

  00023	5d		 pop	 ebp

; 108  : 	pCenterInfo->UpdateGangsiAlarm( bGangsiAlarmText, dwCurrentTime, dwWarningTime );

  00024	e9 00 00 00 00	 jmp	 ?UpdateGangsiAlarm@CenterInfoWnd@@QAEX_NKK@Z ; CenterInfoWnd::UpdateGangsiAlarm
$LN2@SetGangsiA:

; 109  : }

  00029	5d		 pop	 ebp
  0002a	c2 0c 00	 ret	 12			; 0000000cH
?SetGangsiAlarm@ioModeUIController@@QAEX_NKK@Z ENDP	; ioModeUIController::SetGangsiAlarm
_TEXT	ENDS
PUBLIC	?SetKingGauge@ioModeUIController@@QAEX_NW4TeamType@@1KKM@Z ; ioModeUIController::SetKingGauge
EXTRN	?UpdateKingMode@CenterInfoWnd@@QAEX_NW4TeamType@@1KKM@Z:PROC ; CenterInfoWnd::UpdateKingMode
; Function compile flags: /Ogsp
;	COMDAT ?SetKingGauge@ioModeUIController@@QAEX_NW4TeamType@@1KKM@Z
_TEXT	SEGMENT
_bKing$ = 8						; size = 1
_eKingTeam$ = 12					; size = 4
_eOwnerTeam$ = 16					; size = 4
_dwGivePointTime$ = 20					; size = 4
_dwCrownHoldTime$ = 24					; size = 4
_fScoreWarningRate$ = 28				; size = 4
?SetKingGauge@ioModeUIController@@QAEX_NW4TeamType@@1KKM@Z PROC ; ioModeUIController::SetKingGauge, COMDAT
; _this$ = ecx

; 112  : {

  00000	55		 push	 ebp
  00001	8b ec		 mov	 ebp, esp

; 113  : 	if( !m_pCenterInfoWnd ) return;

  00003	8b 41 04	 mov	 eax, DWORD PTR [ecx+4]
  00006	85 c0		 test	 eax, eax
  00008	74 37		 je	 SHORT $LN2@SetKingGau

; 114  : 
; 115  : 	CenterInfoWnd *pCenterInfo = dynamic_cast<CenterInfoWnd*>(m_pCenterInfoWnd);

  0000a	6a 00		 push	 0
  0000c	68 00 00 00 00	 push	 OFFSET ??_R0?AVCenterInfoWnd@@@8
  00011	68 00 00 00 00	 push	 OFFSET ??_R0?AVioWnd@@@8
  00016	6a 00		 push	 0
  00018	50		 push	 eax
  00019	e8 00 00 00 00	 call	 ___RTDynamicCast

; 116  : 	pCenterInfo->UpdateKingMode( bKing, eKingTeam, eOwnerTeam, dwGivePointTime, dwCrownHoldTime, fScoreWarningRate );

  0001e	f3 0f 10 45 1c	 movss	 xmm0, DWORD PTR _fScoreWarningRate$[ebp]
  00023	83 c4 10	 add	 esp, 16			; 00000010H
  00026	f3 0f 11 04 24	 movss	 DWORD PTR [esp], xmm0
  0002b	ff 75 18	 push	 DWORD PTR _dwCrownHoldTime$[ebp]
  0002e	8b c8		 mov	 ecx, eax
  00030	ff 75 14	 push	 DWORD PTR _dwGivePointTime$[ebp]
  00033	ff 75 10	 push	 DWORD PTR _eOwnerTeam$[ebp]
  00036	ff 75 0c	 push	 DWORD PTR _eKingTeam$[ebp]
  00039	ff 75 08	 push	 DWORD PTR _bKing$[ebp]
  0003c	e8 00 00 00 00	 call	 ?UpdateKingMode@CenterInfoWnd@@QAEX_NW4TeamType@@1KKM@Z ; CenterInfoWnd::UpdateKingMode
$LN2@SetKingGau:

; 117  : }

  00041	5d		 pop	 ebp
  00042	c2 18 00	 ret	 24			; 00000018H
?SetKingGauge@ioModeUIController@@QAEX_NW4TeamType@@1KKM@Z ENDP ; ioModeUIController::SetKingGauge
_TEXT	ENDS
PUBLIC	?SetBossRaidMode@ioModeUIController@@QAEX_NHHH@Z ; ioModeUIController::SetBossRaidMode
EXTRN	__imp_?IsShow@ioWnd@@QBE_NXZ:PROC
EXTRN	?UpdateBossMode@CenterInfoWnd@@QAEXHHH@Z:PROC	; CenterInfoWnd::UpdateBossMode
; Function compile flags: /Ogsp
;	COMDAT ?SetBossRaidMode@ioModeUIController@@QAEX_NHHH@Z
_TEXT	SEGMENT
_bShow$ = 8						; size = 1
_iBossRaidOrder$ = 12					; size = 4
_iBossRaidMaxOrder$ = 16				; size = 4
_iMyBossLevel$ = 20					; size = 4
?SetBossRaidMode@ioModeUIController@@QAEX_NHHH@Z PROC	; ioModeUIController::SetBossRaidMode, COMDAT
; _this$ = ecx

; 120  : {

  00000	55		 push	 ebp
  00001	8b ec		 mov	 ebp, esp
  00003	56		 push	 esi
  00004	8b f1		 mov	 esi, ecx

; 121  : 	if( !m_pCenterInfoWnd ) return;

  00006	8b 4e 04	 mov	 ecx, DWORD PTR [esi+4]
  00009	33 c0		 xor	 eax, eax
  0000b	3b c8		 cmp	 ecx, eax
  0000d	74 3f		 je	 SHORT $LN1@SetBossRai

; 122  : 
; 123  : 	if( bShow )

  0000f	38 45 08	 cmp	 BYTE PTR _bShow$[ebp], al
  00012	74 27		 je	 SHORT $LN3@SetBossRai

; 124  : 	{
; 125  : 		CenterInfoWnd *pCenterInfo = dynamic_cast<CenterInfoWnd*>(m_pCenterInfoWnd);	

  00014	50		 push	 eax
  00015	68 00 00 00 00	 push	 OFFSET ??_R0?AVCenterInfoWnd@@@8
  0001a	68 00 00 00 00	 push	 OFFSET ??_R0?AVioWnd@@@8
  0001f	50		 push	 eax
  00020	51		 push	 ecx
  00021	e8 00 00 00 00	 call	 ___RTDynamicCast
  00026	83 c4 14	 add	 esp, 20			; 00000014H

; 126  : 		pCenterInfo->UpdateBossMode( iBossRaidOrder, iBossRaidMaxOrder, iMyBossLevel );

  00029	ff 75 14	 push	 DWORD PTR _iMyBossLevel$[ebp]
  0002c	8b c8		 mov	 ecx, eax
  0002e	ff 75 10	 push	 DWORD PTR _iBossRaidMaxOrder$[ebp]
  00031	ff 75 0c	 push	 DWORD PTR _iBossRaidOrder$[ebp]
  00034	e8 00 00 00 00	 call	 ?UpdateBossMode@CenterInfoWnd@@QAEXHHH@Z ; CenterInfoWnd::UpdateBossMode
  00039	eb 13		 jmp	 SHORT $LN1@SetBossRai
$LN3@SetBossRai:

; 127  : 	}
; 128  : 	else if( m_pCenterInfoWnd->IsShow() )

  0003b	ff 15 00 00 00
	00		 call	 DWORD PTR __imp_?IsShow@ioWnd@@QBE_NXZ
  00041	84 c0		 test	 al, al
  00043	74 09		 je	 SHORT $LN1@SetBossRai

; 129  : 	{
; 130  : 		m_pCenterInfoWnd->HideWnd();

  00045	8b 4e 04	 mov	 ecx, DWORD PTR [esi+4]
  00048	ff 15 00 00 00
	00		 call	 DWORD PTR __imp_?HideWnd@ioWnd@@QAEXXZ
$LN1@SetBossRai:
  0004e	5e		 pop	 esi

; 131  : 	}
; 132  : }

  0004f	5d		 pop	 ebp
  00050	c2 10 00	 ret	 16			; 00000010H
?SetBossRaidMode@ioModeUIController@@QAEX_NHHH@Z ENDP	; ioModeUIController::SetBossRaidMode
_TEXT	ENDS
PUBLIC	?SetSymbolGaugeRate@ioModeUIController@@QAEX_NMM@Z ; ioModeUIController::SetSymbolGaugeRate
EXTRN	?UpdateSymbolGauge@CenterInfoWnd@@QAEXMM@Z:PROC	; CenterInfoWnd::UpdateSymbolGauge
; Function compile flags: /Ogsp
;	COMDAT ?SetSymbolGaugeRate@ioModeUIController@@QAEX_NMM@Z
_TEXT	SEGMENT
_bShow$ = 8						; size = 1
_fBlueRate$ = 12					; size = 4
_fRedRate$ = 16						; size = 4
?SetSymbolGaugeRate@ioModeUIController@@QAEX_NMM@Z PROC	; ioModeUIController::SetSymbolGaugeRate, COMDAT
; _this$ = ecx

; 135  : {

  00000	55		 push	 ebp
  00001	8b ec		 mov	 ebp, esp
  00003	56		 push	 esi
  00004	8b f1		 mov	 esi, ecx

; 136  : 	if( !m_pCenterInfoWnd ) return;

  00006	8b 4e 04	 mov	 ecx, DWORD PTR [esi+4]
  00009	33 c0		 xor	 eax, eax
  0000b	3b c8		 cmp	 ecx, eax
  0000d	74 4b		 je	 SHORT $LN1@SetSymbolG

; 137  : 
; 138  : 	if( bShow )

  0000f	38 45 08	 cmp	 BYTE PTR _bShow$[ebp], al
  00012	74 33		 je	 SHORT $LN3@SetSymbolG

; 139  : 	{
; 140  : 		CenterInfoWnd *pCenterInfo = dynamic_cast<CenterInfoWnd*>(m_pCenterInfoWnd);	

  00014	50		 push	 eax
  00015	68 00 00 00 00	 push	 OFFSET ??_R0?AVCenterInfoWnd@@@8
  0001a	68 00 00 00 00	 push	 OFFSET ??_R0?AVioWnd@@@8
  0001f	50		 push	 eax
  00020	51		 push	 ecx
  00021	e8 00 00 00 00	 call	 ___RTDynamicCast

; 141  : 		pCenterInfo->UpdateSymbolGauge( fBlueRate, fRedRate );

  00026	f3 0f 10 45 10	 movss	 xmm0, DWORD PTR _fRedRate$[ebp]
  0002b	83 c4 0c	 add	 esp, 12			; 0000000cH
  0002e	f3 0f 11 44 24
	04		 movss	 DWORD PTR [esp+4], xmm0
  00034	f3 0f 10 45 0c	 movss	 xmm0, DWORD PTR _fBlueRate$[ebp]
  00039	8b c8		 mov	 ecx, eax
  0003b	f3 0f 11 04 24	 movss	 DWORD PTR [esp], xmm0
  00040	e8 00 00 00 00	 call	 ?UpdateSymbolGauge@CenterInfoWnd@@QAEXMM@Z ; CenterInfoWnd::UpdateSymbolGauge
  00045	eb 13		 jmp	 SHORT $LN1@SetSymbolG
$LN3@SetSymbolG:

; 142  : 	}
; 143  : 	else if( m_pCenterInfoWnd->IsShow() )

  00047	ff 15 00 00 00
	00		 call	 DWORD PTR __imp_?IsShow@ioWnd@@QBE_NXZ
  0004d	84 c0		 test	 al, al
  0004f	74 09		 je	 SHORT $LN1@SetSymbolG

; 144  : 	{
; 145  : 		m_pCenterInfoWnd->HideWnd();

  00051	8b 4e 04	 mov	 ecx, DWORD PTR [esi+4]
  00054	ff 15 00 00 00
	00		 call	 DWORD PTR __imp_?HideWnd@ioWnd@@QAEXXZ
$LN1@SetSymbolG:
  0005a	5e		 pop	 esi

; 146  : 	}
; 147  : }

  0005b	5d		 pop	 ebp
  0005c	c2 0c 00	 ret	 12			; 0000000cH
?SetSymbolGaugeRate@ioModeUIController@@QAEX_NMM@Z ENDP	; ioModeUIController::SetSymbolGaugeRate
_TEXT	ENDS
PUBLIC	?SetSymbolAttack@ioModeUIController@@QAEXW4TeamType@@@Z ; ioModeUIController::SetSymbolAttack
EXTRN	?UpdateSymbolAttack@CenterInfoWnd@@QAEXW4TeamType@@@Z:PROC ; CenterInfoWnd::UpdateSymbolAttack
; Function compile flags: /Ogsp
;	COMDAT ?SetSymbolAttack@ioModeUIController@@QAEXW4TeamType@@@Z
_TEXT	SEGMENT
_eTeam$ = 8						; size = 4
?SetSymbolAttack@ioModeUIController@@QAEXW4TeamType@@@Z PROC ; ioModeUIController::SetSymbolAttack, COMDAT
; _this$ = ecx

; 150  : {

  00000	55		 push	 ebp
  00001	8b ec		 mov	 ebp, esp

; 151  : 	if( !m_pCenterInfoWnd ) return;

  00003	8b 41 04	 mov	 eax, DWORD PTR [ecx+4]
  00006	85 c0		 test	 eax, eax
  00008	74 1f		 je	 SHORT $LN2@SetSymbolA

; 152  : 
; 153  : 	CenterInfoWnd *pCenterInfo = dynamic_cast<CenterInfoWnd*>(m_pCenterInfoWnd);	

  0000a	6a 00		 push	 0
  0000c	68 00 00 00 00	 push	 OFFSET ??_R0?AVCenterInfoWnd@@@8
  00011	68 00 00 00 00	 push	 OFFSET ??_R0?AVioWnd@@@8
  00016	6a 00		 push	 0
  00018	50		 push	 eax
  00019	e8 00 00 00 00	 call	 ___RTDynamicCast
  0001e	83 c4 14	 add	 esp, 20			; 00000014H

; 154  : 	pCenterInfo->UpdateSymbolAttack( eTeam );

  00021	8b c8		 mov	 ecx, eax

; 155  : }

  00023	5d		 pop	 ebp

; 154  : 	pCenterInfo->UpdateSymbolAttack( eTeam );

  00024	e9 00 00 00 00	 jmp	 ?UpdateSymbolAttack@CenterInfoWnd@@QAEXW4TeamType@@@Z ; CenterInfoWnd::UpdateSymbolAttack
$LN2@SetSymbolA:

; 155  : }

  00029	5d		 pop	 ebp
  0002a	c2 04 00	 ret	 4
?SetSymbolAttack@ioModeUIController@@QAEXW4TeamType@@@Z ENDP ; ioModeUIController::SetSymbolAttack
_TEXT	ENDS
PUBLIC	?SetMonsterDiceResult@ioModeUIController@@QAEXABVioHashString@@HHH@Z ; ioModeUIController::SetMonsterDiceResult
EXTRN	?UpdateMonsterDiceResult@CenterInfoWnd@@QAEXABVioHashString@@HHH@Z:PROC ; CenterInfoWnd::UpdateMonsterDiceResult
; Function compile flags: /Ogsp
;	COMDAT ?SetMonsterDiceResult@ioModeUIController@@QAEXABVioHashString@@HHH@Z
_TEXT	SEGMENT
_kPrizeWinner$ = 8					; size = 4
_iPresentType$ = 12					; size = 4
_iPresentValue1$ = 16					; size = 4
_iPresentValue2$ = 20					; size = 4
?SetMonsterDiceResult@ioModeUIController@@QAEXABVioHashString@@HHH@Z PROC ; ioModeUIController::SetMonsterDiceResult, COMDAT
; _this$ = ecx

; 158  : {

  00000	55		 push	 ebp
  00001	8b ec		 mov	 ebp, esp

; 159  : 	if( !m_pCenterInfoWnd ) return;

  00003	8b 41 04	 mov	 eax, DWORD PTR [ecx+4]
  00006	85 c0		 test	 eax, eax
  00008	74 1f		 je	 SHORT $LN2@SetMonster

; 160  : 
; 161  : 	CenterInfoWnd *pCenterInfo = dynamic_cast<CenterInfoWnd*>(m_pCenterInfoWnd);	

  0000a	6a 00		 push	 0
  0000c	68 00 00 00 00	 push	 OFFSET ??_R0?AVCenterInfoWnd@@@8
  00011	68 00 00 00 00	 push	 OFFSET ??_R0?AVioWnd@@@8
  00016	6a 00		 push	 0
  00018	50		 push	 eax
  00019	e8 00 00 00 00	 call	 ___RTDynamicCast
  0001e	83 c4 14	 add	 esp, 20			; 00000014H

; 162  : 	pCenterInfo->UpdateMonsterDiceResult( kPrizeWinner, iPresentType, iPresentValue1, iPresentValue2 );

  00021	8b c8		 mov	 ecx, eax

; 163  : }

  00023	5d		 pop	 ebp

; 162  : 	pCenterInfo->UpdateMonsterDiceResult( kPrizeWinner, iPresentType, iPresentValue1, iPresentValue2 );

  00024	e9 00 00 00 00	 jmp	 ?UpdateMonsterDiceResult@CenterInfoWnd@@QAEXABVioHashString@@HHH@Z ; CenterInfoWnd::UpdateMonsterDiceResult
$LN2@SetMonster:

; 163  : }

  00029	5d		 pop	 ebp
  0002a	c2 10 00	 ret	 16			; 00000010H
?SetMonsterDiceResult@ioModeUIController@@QAEXABVioHashString@@HHH@Z ENDP ; ioModeUIController::SetMonsterDiceResult
_TEXT	ENDS
PUBLIC	??_R0?AVKOChatMsgWnd@@@8			; KOChatMsgWnd `RTTI Type Descriptor'
PUBLIC	?SetKOMsg@ioModeUIController@@QAEXW4TeamType@@ABVioHashString@@1K01@Z ; ioModeUIController::SetKOMsg
EXTRN	?SetKOMsg@KOChatMsgWnd@@QAEXW4TeamType@@ABVioHashString@@1K01@Z:PROC ; KOChatMsgWnd::SetKOMsg
;	COMDAT ??_R0?AVKOChatMsgWnd@@@8
_DATA	SEGMENT
??_R0?AVKOChatMsgWnd@@@8 DD FLAT:??_7type_info@@6B@	; KOChatMsgWnd `RTTI Type Descriptor'
	DD	00H
	DB	'.?AVKOChatMsgWnd@@', 00H
; Function compile flags: /Ogsp
_DATA	ENDS
;	COMDAT ?SetKOMsg@ioModeUIController@@QAEXW4TeamType@@ABVioHashString@@1K01@Z
_TEXT	SEGMENT
_eKillerTeam$ = 8					; size = 4
_szKillerName$ = 12					; size = 4
_szKillerSkillName$ = 16				; size = 4
_dwKillerItem$ = 20					; size = 4
_eDierTeam$ = 24					; size = 4
_szDierName$ = 28					; size = 4
?SetKOMsg@ioModeUIController@@QAEXW4TeamType@@ABVioHashString@@1K01@Z PROC ; ioModeUIController::SetKOMsg, COMDAT
; _this$ = ecx

; 166  : {

  00000	55		 push	 ebp
  00001	8b ec		 mov	 ebp, esp

; 167  : 	if( !m_pKOMsgWnd ) return;

  00003	8b 41 08	 mov	 eax, DWORD PTR [ecx+8]
  00006	85 c0		 test	 eax, eax
  00008	74 1f		 je	 SHORT $LN2@SetKOMsg

; 168  : 
; 169  : 	KOChatMsgWnd *pKOMsgWnd = dynamic_cast<KOChatMsgWnd*>(m_pKOMsgWnd);

  0000a	6a 00		 push	 0
  0000c	68 00 00 00 00	 push	 OFFSET ??_R0?AVKOChatMsgWnd@@@8
  00011	68 00 00 00 00	 push	 OFFSET ??_R0?AVioWnd@@@8
  00016	6a 00		 push	 0
  00018	50		 push	 eax
  00019	e8 00 00 00 00	 call	 ___RTDynamicCast
  0001e	83 c4 14	 add	 esp, 20			; 00000014H

; 170  : 	pKOMsgWnd->SetKOMsg( eKillerTeam, szKillerName, szKillerSkillName, dwKillerItem, eDierTeam, szDierName );

  00021	8b c8		 mov	 ecx, eax

; 171  : }

  00023	5d		 pop	 ebp

; 170  : 	pKOMsgWnd->SetKOMsg( eKillerTeam, szKillerName, szKillerSkillName, dwKillerItem, eDierTeam, szDierName );

  00024	e9 00 00 00 00	 jmp	 ?SetKOMsg@KOChatMsgWnd@@QAEXW4TeamType@@ABVioHashString@@1K01@Z ; KOChatMsgWnd::SetKOMsg
$LN2@SetKOMsg:

; 171  : }

  00029	5d		 pop	 ebp
  0002a	c2 18 00	 ret	 24			; 00000018H
?SetKOMsg@ioModeUIController@@QAEXW4TeamType@@ABVioHashString@@1K01@Z ENDP ; ioModeUIController::SetKOMsg
_TEXT	ENDS
PUBLIC	?SetPrisonerMsg@ioModeUIController@@QAEXW4TeamType@@ABVioHashString@@1K01@Z ; ioModeUIController::SetPrisonerMsg
EXTRN	?SetPrisonerMsg@KOChatMsgWnd@@QAEXW4TeamType@@ABVioHashString@@1K01@Z:PROC ; KOChatMsgWnd::SetPrisonerMsg
; Function compile flags: /Ogsp
;	COMDAT ?SetPrisonerMsg@ioModeUIController@@QAEXW4TeamType@@ABVioHashString@@1K01@Z
_TEXT	SEGMENT
_eKillerTeam$ = 8					; size = 4
_szKillerName$ = 12					; size = 4
_szKillerSkillName$ = 16				; size = 4
_dwKillerItem$ = 20					; size = 4
_eDierTeam$ = 24					; size = 4
_szDierName$ = 28					; size = 4
?SetPrisonerMsg@ioModeUIController@@QAEXW4TeamType@@ABVioHashString@@1K01@Z PROC ; ioModeUIController::SetPrisonerMsg, COMDAT
; _this$ = ecx

; 174  : {

  00000	55		 push	 ebp
  00001	8b ec		 mov	 ebp, esp

; 175  : 	if( !m_pKOMsgWnd ) return;

  00003	8b 41 08	 mov	 eax, DWORD PTR [ecx+8]
  00006	85 c0		 test	 eax, eax
  00008	74 1f		 je	 SHORT $LN2@SetPrisone

; 176  : 
; 177  : 	KOChatMsgWnd *pKOMsgWnd = dynamic_cast<KOChatMsgWnd*>(m_pKOMsgWnd);

  0000a	6a 00		 push	 0
  0000c	68 00 00 00 00	 push	 OFFSET ??_R0?AVKOChatMsgWnd@@@8
  00011	68 00 00 00 00	 push	 OFFSET ??_R0?AVioWnd@@@8
  00016	6a 00		 push	 0
  00018	50		 push	 eax
  00019	e8 00 00 00 00	 call	 ___RTDynamicCast
  0001e	83 c4 14	 add	 esp, 20			; 00000014H

; 178  : 	pKOMsgWnd->SetPrisonerMsg( eKillerTeam, szKillerName, szKillerSkillName, dwKillerItem, eDierTeam, szDierName );

  00021	8b c8		 mov	 ecx, eax

; 179  : }

  00023	5d		 pop	 ebp

; 178  : 	pKOMsgWnd->SetPrisonerMsg( eKillerTeam, szKillerName, szKillerSkillName, dwKillerItem, eDierTeam, szDierName );

  00024	e9 00 00 00 00	 jmp	 ?SetPrisonerMsg@KOChatMsgWnd@@QAEXW4TeamType@@ABVioHashString@@1K01@Z ; KOChatMsgWnd::SetPrisonerMsg
$LN2@SetPrisone:

; 179  : }

  00029	5d		 pop	 ebp
  0002a	c2 18 00	 ret	 24			; 00000018H
?SetPrisonerMsg@ioModeUIController@@QAEXW4TeamType@@ABVioHashString@@1K01@Z ENDP ; ioModeUIController::SetPrisonerMsg
_TEXT	ENDS
PUBLIC	?SetEscapeMsg@ioModeUIController@@QAEXW4TeamType@@ABVioHashString@@1K01@Z ; ioModeUIController::SetEscapeMsg
EXTRN	?SetEscapeMsg@KOChatMsgWnd@@QAEXW4TeamType@@ABVioHashString@@1K01@Z:PROC ; KOChatMsgWnd::SetEscapeMsg
; Function compile flags: /Ogsp
;	COMDAT ?SetEscapeMsg@ioModeUIController@@QAEXW4TeamType@@ABVioHashString@@1K01@Z
_TEXT	SEGMENT
_eKillerTeam$ = 8					; size = 4
_szKillerName$ = 12					; size = 4
_szKillerSkillName$ = 16				; size = 4
_dwKillerItem$ = 20					; size = 4
_eDierTeam$ = 24					; size = 4
_szDierName$ = 28					; size = 4
?SetEscapeMsg@ioModeUIController@@QAEXW4TeamType@@ABVioHashString@@1K01@Z PROC ; ioModeUIController::SetEscapeMsg, COMDAT
; _this$ = ecx

; 182  : {

  00000	55		 push	 ebp
  00001	8b ec		 mov	 ebp, esp

; 183  : 	if( !m_pKOMsgWnd ) return;

  00003	8b 41 08	 mov	 eax, DWORD PTR [ecx+8]
  00006	85 c0		 test	 eax, eax
  00008	74 1f		 je	 SHORT $LN2@SetEscapeM

; 184  : 
; 185  : 	KOChatMsgWnd *pKOMsgWnd = dynamic_cast<KOChatMsgWnd*>(m_pKOMsgWnd);

  0000a	6a 00		 push	 0
  0000c	68 00 00 00 00	 push	 OFFSET ??_R0?AVKOChatMsgWnd@@@8
  00011	68 00 00 00 00	 push	 OFFSET ??_R0?AVioWnd@@@8
  00016	6a 00		 push	 0
  00018	50		 push	 eax
  00019	e8 00 00 00 00	 call	 ___RTDynamicCast
  0001e	83 c4 14	 add	 esp, 20			; 00000014H

; 186  : 	pKOMsgWnd->SetEscapeMsg( eKillerTeam, szKillerName, szKillerSkillName, dwKillerItem, eDierTeam, szDierName );

  00021	8b c8		 mov	 ecx, eax

; 187  : }

  00023	5d		 pop	 ebp

; 186  : 	pKOMsgWnd->SetEscapeMsg( eKillerTeam, szKillerName, szKillerSkillName, dwKillerItem, eDierTeam, szDierName );

  00024	e9 00 00 00 00	 jmp	 ?SetEscapeMsg@KOChatMsgWnd@@QAEXW4TeamType@@ABVioHashString@@1K01@Z ; KOChatMsgWnd::SetEscapeMsg
$LN2@SetEscapeM:

; 187  : }

  00029	5d		 pop	 ebp
  0002a	c2 18 00	 ret	 24			; 00000018H
?SetEscapeMsg@ioModeUIController@@QAEXW4TeamType@@ABVioHashString@@1K01@Z ENDP ; ioModeUIController::SetEscapeMsg
_TEXT	ENDS
PUBLIC	?SetInfectionMsg@ioModeUIController@@QAEXW4TeamType@@ABVioHashString@@1K01@Z ; ioModeUIController::SetInfectionMsg
EXTRN	?SetInfectionMsg@KOChatMsgWnd@@QAEXW4TeamType@@ABVioHashString@@1K01@Z:PROC ; KOChatMsgWnd::SetInfectionMsg
; Function compile flags: /Ogsp
;	COMDAT ?SetInfectionMsg@ioModeUIController@@QAEXW4TeamType@@ABVioHashString@@1K01@Z
_TEXT	SEGMENT
_eKillerTeam$ = 8					; size = 4
_szKillerName$ = 12					; size = 4
_szKillerSkillName$ = 16				; size = 4
_dwKillerItem$ = 20					; size = 4
_eDierTeam$ = 24					; size = 4
_szDierName$ = 28					; size = 4
?SetInfectionMsg@ioModeUIController@@QAEXW4TeamType@@ABVioHashString@@1K01@Z PROC ; ioModeUIController::SetInfectionMsg, COMDAT
; _this$ = ecx

; 190  : {

  00000	55		 push	 ebp
  00001	8b ec		 mov	 ebp, esp

; 191  : 	if( !m_pKOMsgWnd ) return;

  00003	8b 41 08	 mov	 eax, DWORD PTR [ecx+8]
  00006	85 c0		 test	 eax, eax
  00008	74 1f		 je	 SHORT $LN2@SetInfecti

; 192  : 
; 193  : 	KOChatMsgWnd *pKOMsgWnd = dynamic_cast<KOChatMsgWnd*>(m_pKOMsgWnd);

  0000a	6a 00		 push	 0
  0000c	68 00 00 00 00	 push	 OFFSET ??_R0?AVKOChatMsgWnd@@@8
  00011	68 00 00 00 00	 push	 OFFSET ??_R0?AVioWnd@@@8
  00016	6a 00		 push	 0
  00018	50		 push	 eax
  00019	e8 00 00 00 00	 call	 ___RTDynamicCast
  0001e	83 c4 14	 add	 esp, 20			; 00000014H

; 194  : 	pKOMsgWnd->SetInfectionMsg( eKillerTeam, szKillerName, szKillerSkillName, dwKillerItem, eDierTeam, szDierName );

  00021	8b c8		 mov	 ecx, eax

; 195  : }

  00023	5d		 pop	 ebp

; 194  : 	pKOMsgWnd->SetInfectionMsg( eKillerTeam, szKillerName, szKillerSkillName, dwKillerItem, eDierTeam, szDierName );

  00024	e9 00 00 00 00	 jmp	 ?SetInfectionMsg@KOChatMsgWnd@@QAEXW4TeamType@@ABVioHashString@@1K01@Z ; KOChatMsgWnd::SetInfectionMsg
$LN2@SetInfecti:

; 195  : }

  00029	5d		 pop	 ebp
  0002a	c2 18 00	 ret	 24			; 00000018H
?SetInfectionMsg@ioModeUIController@@QAEXW4TeamType@@ABVioHashString@@1K01@Z ENDP ; ioModeUIController::SetInfectionMsg
_TEXT	ENDS
PUBLIC	?IsHiddenKingWarning@ioModeUIController@@QAE_NXZ ; ioModeUIController::IsHiddenKingWarning
EXTRN	?IsHiddenKingWarning@CenterInfoWnd@@QAE_NXZ:PROC ; CenterInfoWnd::IsHiddenKingWarning
; Function compile flags: /Ogsp
;	COMDAT ?IsHiddenKingWarning@ioModeUIController@@QAE_NXZ
_TEXT	SEGMENT
?IsHiddenKingWarning@ioModeUIController@@QAE_NXZ PROC	; ioModeUIController::IsHiddenKingWarning, COMDAT
; _this$ = ecx

; 199  : 	if( !m_pCenterInfoWnd ) return false;

  00000	8b 41 04	 mov	 eax, DWORD PTR [ecx+4]
  00003	85 c0		 test	 eax, eax
  00005	75 03		 jne	 SHORT $LN1@IsHiddenKi
  00007	32 c0		 xor	 al, al

; 204  : }

  00009	c3		 ret	 0
$LN1@IsHiddenKi:

; 200  : 
; 201  : 	CenterInfoWnd *pCenterInfo = dynamic_cast<CenterInfoWnd*>(m_pCenterInfoWnd);	

  0000a	6a 00		 push	 0
  0000c	68 00 00 00 00	 push	 OFFSET ??_R0?AVCenterInfoWnd@@@8
  00011	68 00 00 00 00	 push	 OFFSET ??_R0?AVioWnd@@@8
  00016	6a 00		 push	 0
  00018	50		 push	 eax
  00019	e8 00 00 00 00	 call	 ___RTDynamicCast
  0001e	83 c4 14	 add	 esp, 20			; 00000014H

; 202  : 
; 203  : 	return pCenterInfo->IsHiddenKingWarning();

  00021	8b c8		 mov	 ecx, eax
  00023	e9 00 00 00 00	 jmp	 ?IsHiddenKingWarning@CenterInfoWnd@@QAE_NXZ ; CenterInfoWnd::IsHiddenKingWarning
?IsHiddenKingWarning@ioModeUIController@@QAE_NXZ ENDP	; ioModeUIController::IsHiddenKingWarning
_TEXT	ENDS
PUBLIC	?SetDoubleCrownGaugeRate@ioModeUIController@@QAEX_NMM00@Z ; ioModeUIController::SetDoubleCrownGaugeRate
EXTRN	?UpdateDoubleCrownGauge@CenterInfoWnd@@QAEXMM_N0@Z:PROC ; CenterInfoWnd::UpdateDoubleCrownGauge
; Function compile flags: /Ogsp
;	COMDAT ?SetDoubleCrownGaugeRate@ioModeUIController@@QAEX_NMM00@Z
_TEXT	SEGMENT
_bShow$ = 8						; size = 1
_fBlueRate$ = 12					; size = 4
_fRedRate$ = 16						; size = 4
_bBlueKing$ = 20					; size = 1
_bRedKIng$ = 24						; size = 1
?SetDoubleCrownGaugeRate@ioModeUIController@@QAEX_NMM00@Z PROC ; ioModeUIController::SetDoubleCrownGaugeRate, COMDAT
; _this$ = ecx

; 207  : {

  00000	55		 push	 ebp
  00001	8b ec		 mov	 ebp, esp
  00003	56		 push	 esi
  00004	8b f1		 mov	 esi, ecx

; 208  : 	if( !m_pCenterInfoWnd ) return;

  00006	8b 4e 04	 mov	 ecx, DWORD PTR [esi+4]
  00009	33 c0		 xor	 eax, eax
  0000b	3b c8		 cmp	 ecx, eax
  0000d	74 53		 je	 SHORT $LN1@SetDoubleC

; 209  : 
; 210  : 	if( bShow )

  0000f	38 45 08	 cmp	 BYTE PTR _bShow$[ebp], al
  00012	74 3b		 je	 SHORT $LN3@SetDoubleC

; 211  : 	{
; 212  : 		CenterInfoWnd *pCenterInfo = dynamic_cast<CenterInfoWnd*>(m_pCenterInfoWnd);	

  00014	50		 push	 eax
  00015	68 00 00 00 00	 push	 OFFSET ??_R0?AVCenterInfoWnd@@@8
  0001a	68 00 00 00 00	 push	 OFFSET ??_R0?AVioWnd@@@8
  0001f	50		 push	 eax
  00020	51		 push	 ecx
  00021	e8 00 00 00 00	 call	 ___RTDynamicCast

; 213  : 		pCenterInfo->UpdateDoubleCrownGauge( fBlueRate, fRedRate, bBlueKing, bRedKIng );

  00026	f3 0f 10 45 10	 movss	 xmm0, DWORD PTR _fRedRate$[ebp]
  0002b	83 c4 14	 add	 esp, 20			; 00000014H
  0002e	ff 75 18	 push	 DWORD PTR _bRedKIng$[ebp]
  00031	ff 75 14	 push	 DWORD PTR _bBlueKing$[ebp]
  00034	51		 push	 ecx
  00035	51		 push	 ecx
  00036	f3 0f 11 44 24
	04		 movss	 DWORD PTR [esp+4], xmm0
  0003c	f3 0f 10 45 0c	 movss	 xmm0, DWORD PTR _fBlueRate$[ebp]
  00041	8b c8		 mov	 ecx, eax
  00043	f3 0f 11 04 24	 movss	 DWORD PTR [esp], xmm0
  00048	e8 00 00 00 00	 call	 ?UpdateDoubleCrownGauge@CenterInfoWnd@@QAEXMM_N0@Z ; CenterInfoWnd::UpdateDoubleCrownGauge
  0004d	eb 13		 jmp	 SHORT $LN1@SetDoubleC
$LN3@SetDoubleC:

; 214  : 	}
; 215  : 	else if( m_pCenterInfoWnd->IsShow() )

  0004f	ff 15 00 00 00
	00		 call	 DWORD PTR __imp_?IsShow@ioWnd@@QBE_NXZ
  00055	84 c0		 test	 al, al
  00057	74 09		 je	 SHORT $LN1@SetDoubleC

; 216  : 	{
; 217  : 		m_pCenterInfoWnd->HideWnd();

  00059	8b 4e 04	 mov	 ecx, DWORD PTR [esi+4]
  0005c	ff 15 00 00 00
	00		 call	 DWORD PTR __imp_?HideWnd@ioWnd@@QAEXXZ
$LN1@SetDoubleC:
  00062	5e		 pop	 esi

; 218  : 	}
; 219  : }

  00063	5d		 pop	 ebp
  00064	c2 14 00	 ret	 20			; 00000014H
?SetDoubleCrownGaugeRate@ioModeUIController@@QAEX_NMM00@Z ENDP ; ioModeUIController::SetDoubleCrownGaugeRate
_TEXT	ENDS
PUBLIC	?SetDoubleCrownAttack@ioModeUIController@@QAEXW4TeamType@@@Z ; ioModeUIController::SetDoubleCrownAttack
EXTRN	?UpdateDoubleCrownAttack@CenterInfoWnd@@QAEXW4TeamType@@@Z:PROC ; CenterInfoWnd::UpdateDoubleCrownAttack
; Function compile flags: /Ogsp
;	COMDAT ?SetDoubleCrownAttack@ioModeUIController@@QAEXW4TeamType@@@Z
_TEXT	SEGMENT
_eTeam$ = 8						; size = 4
?SetDoubleCrownAttack@ioModeUIController@@QAEXW4TeamType@@@Z PROC ; ioModeUIController::SetDoubleCrownAttack, COMDAT
; _this$ = ecx

; 222  : {

  00000	55		 push	 ebp
  00001	8b ec		 mov	 ebp, esp

; 223  : 	if( !m_pCenterInfoWnd ) return;

  00003	8b 41 04	 mov	 eax, DWORD PTR [ecx+4]
  00006	85 c0		 test	 eax, eax
  00008	74 1f		 je	 SHORT $LN2@SetDoubleC@2

; 224  : 
; 225  : 	CenterInfoWnd *pCenterInfo = dynamic_cast<CenterInfoWnd*>(m_pCenterInfoWnd);	

  0000a	6a 00		 push	 0
  0000c	68 00 00 00 00	 push	 OFFSET ??_R0?AVCenterInfoWnd@@@8
  00011	68 00 00 00 00	 push	 OFFSET ??_R0?AVioWnd@@@8
  00016	6a 00		 push	 0
  00018	50		 push	 eax
  00019	e8 00 00 00 00	 call	 ___RTDynamicCast
  0001e	83 c4 14	 add	 esp, 20			; 00000014H

; 226  : 	pCenterInfo->UpdateDoubleCrownAttack( eTeam );

  00021	8b c8		 mov	 ecx, eax

; 227  : }

  00023	5d		 pop	 ebp

; 226  : 	pCenterInfo->UpdateDoubleCrownAttack( eTeam );

  00024	e9 00 00 00 00	 jmp	 ?UpdateDoubleCrownAttack@CenterInfoWnd@@QAEXW4TeamType@@@Z ; CenterInfoWnd::UpdateDoubleCrownAttack
$LN2@SetDoubleC@2:

; 227  : }

  00029	5d		 pop	 ebp
  0002a	c2 04 00	 ret	 4
?SetDoubleCrownAttack@ioModeUIController@@QAEXW4TeamType@@@Z ENDP ; ioModeUIController::SetDoubleCrownAttack
_TEXT	ENDS
PUBLIC	?SetDoubleCrownWinningTeam@ioModeUIController@@QAEXW4TeamType@@@Z ; ioModeUIController::SetDoubleCrownWinningTeam
EXTRN	?UpdateDoubleCrownWinningTeam@CenterInfoWnd@@QAEXW4TeamType@@@Z:PROC ; CenterInfoWnd::UpdateDoubleCrownWinningTeam
; Function compile flags: /Ogsp
;	COMDAT ?SetDoubleCrownWinningTeam@ioModeUIController@@QAEXW4TeamType@@@Z
_TEXT	SEGMENT
_eTeam$ = 8						; size = 4
?SetDoubleCrownWinningTeam@ioModeUIController@@QAEXW4TeamType@@@Z PROC ; ioModeUIController::SetDoubleCrownWinningTeam, COMDAT
; _this$ = ecx

; 230  : {

  00000	55		 push	 ebp
  00001	8b ec		 mov	 ebp, esp

; 231  : 	if( !m_pCenterInfoWnd ) return;

  00003	8b 41 04	 mov	 eax, DWORD PTR [ecx+4]
  00006	85 c0		 test	 eax, eax
  00008	74 1f		 je	 SHORT $LN2@SetDoubleC@3

; 232  : 
; 233  : 	CenterInfoWnd *pCenterInfo = dynamic_cast<CenterInfoWnd*>(m_pCenterInfoWnd);	

  0000a	6a 00		 push	 0
  0000c	68 00 00 00 00	 push	 OFFSET ??_R0?AVCenterInfoWnd@@@8
  00011	68 00 00 00 00	 push	 OFFSET ??_R0?AVioWnd@@@8
  00016	6a 00		 push	 0
  00018	50		 push	 eax
  00019	e8 00 00 00 00	 call	 ___RTDynamicCast
  0001e	83 c4 14	 add	 esp, 20			; 00000014H

; 234  : 	pCenterInfo->UpdateDoubleCrownWinningTeam( eTeam );

  00021	8b c8		 mov	 ecx, eax

; 235  : }

  00023	5d		 pop	 ebp

; 234  : 	pCenterInfo->UpdateDoubleCrownWinningTeam( eTeam );

  00024	e9 00 00 00 00	 jmp	 ?UpdateDoubleCrownWinningTeam@CenterInfoWnd@@QAEXW4TeamType@@@Z ; CenterInfoWnd::UpdateDoubleCrownWinningTeam
$LN2@SetDoubleC@3:

; 235  : }

  00029	5d		 pop	 ebp
  0002a	c2 04 00	 ret	 4
?SetDoubleCrownWinningTeam@ioModeUIController@@QAEXW4TeamType@@@Z ENDP ; ioModeUIController::SetDoubleCrownWinningTeam
_TEXT	ENDS
PUBLIC	?SetCenterKillInfoWnd@ioModeUIController@@QAEXPAVioWnd@@@Z ; ioModeUIController::SetCenterKillInfoWnd
; Function compile flags: /Ogsp
;	COMDAT ?SetCenterKillInfoWnd@ioModeUIController@@QAEXPAVioWnd@@@Z
_TEXT	SEGMENT
_pCenterKillInfoWnd$ = 8				; size = 4
?SetCenterKillInfoWnd@ioModeUIController@@QAEXPAVioWnd@@@Z PROC ; ioModeUIController::SetCenterKillInfoWnd, COMDAT
; _this$ = ecx

; 241  : {

  00000	55		 push	 ebp
  00001	8b ec		 mov	 ebp, esp

; 242  : 	m_pCenterKillInfoWnd = pCenterKillInfoWnd;

  00003	8b 45 08	 mov	 eax, DWORD PTR _pCenterKillInfoWnd$[ebp]
  00006	89 41 0c	 mov	 DWORD PTR [ecx+12], eax

; 243  : }

  00009	5d		 pop	 ebp
  0000a	c2 04 00	 ret	 4
?SetCenterKillInfoWnd@ioModeUIController@@QAEXPAVioWnd@@@Z ENDP ; ioModeUIController::SetCenterKillInfoWnd
_TEXT	ENDS
PUBLIC	?IsCenterKillInfoWnd@ioModeUIController@@QBE_NXZ ; ioModeUIController::IsCenterKillInfoWnd
; Function compile flags: /Ogsp
;	COMDAT ?IsCenterKillInfoWnd@ioModeUIController@@QBE_NXZ
_TEXT	SEGMENT
?IsCenterKillInfoWnd@ioModeUIController@@QBE_NXZ PROC	; ioModeUIController::IsCenterKillInfoWnd, COMDAT
; _this$ = ecx

; 299  : 	if ( m_pCenterKillInfoWnd )

  00000	83 79 0c 00	 cmp	 DWORD PTR [ecx+12], 0
  00004	0f 95 c0	 setne	 al

; 300  : 		return true;
; 301  : 
; 302  : 	return false;
; 303  : }

  00007	c3		 ret	 0
?IsCenterKillInfoWnd@ioModeUIController@@QBE_NXZ ENDP	; ioModeUIController::IsCenterKillInfoWnd
_TEXT	ENDS
PUBLIC	??0?$Singleton@VioModeUIController@@@@QAE@XZ	; Singleton<ioModeUIController>::Singleton<ioModeUIController>
; Function compile flags: /Ogsp
; File d:\lost saga for developer\youtube\tutorial\source\src\io3dengine\iosingleton.h
;	COMDAT ??0?$Singleton@VioModeUIController@@@@QAE@XZ
_TEXT	SEGMENT
??0?$Singleton@VioModeUIController@@@@QAE@XZ PROC	; Singleton<ioModeUIController>::Singleton<ioModeUIController>, COMDAT
; _this$ = ecx

; 27   : 	Singleton()

  00000	8b c1		 mov	 eax, ecx

; 28   : 	{
; 29   : 		assert( !ms_Singleton );
; 30   : 		int offset = (int)(T*)1 - (int)(Singleton <T>*)(T*)1;
; 31   : 		ms_Singleton = (T*)((int)this + offset);

  00002	8d 48 fc	 lea	 ecx, DWORD PTR [eax-4]
  00005	89 0d 00 00 00
	00		 mov	 DWORD PTR ?ms_Singleton@?$Singleton@VioModeUIController@@@@1PAVioModeUIController@@A, ecx ; Singleton<ioModeUIController>::ms_Singleton

; 32   : 	}

  0000b	c3		 ret	 0
??0?$Singleton@VioModeUIController@@@@QAE@XZ ENDP	; Singleton<ioModeUIController>::Singleton<ioModeUIController>
_TEXT	ENDS
PUBLIC	??1?$Singleton@VioModeUIController@@@@QAE@XZ	; Singleton<ioModeUIController>::~Singleton<ioModeUIController>
; Function compile flags: /Ogsp
;	COMDAT ??1?$Singleton@VioModeUIController@@@@QAE@XZ
_TEXT	SEGMENT
??1?$Singleton@VioModeUIController@@@@QAE@XZ PROC	; Singleton<ioModeUIController>::~Singleton<ioModeUIController>, COMDAT
; _this$ = ecx

; 36   : 		assert( ms_Singleton );
; 37   : 		ms_Singleton = 0;

  00000	83 25 00 00 00
	00 00		 and	 DWORD PTR ?ms_Singleton@?$Singleton@VioModeUIController@@@@1PAVioModeUIController@@A, 0 ; Singleton<ioModeUIController>::ms_Singleton

; 38   : 	}

  00007	c3		 ret	 0
??1?$Singleton@VioModeUIController@@@@QAE@XZ ENDP	; Singleton<ioModeUIController>::~Singleton<ioModeUIController>
_TEXT	ENDS
PUBLIC	?GetSingleton@?$Singleton@VioModeUIController@@@@SAAAVioModeUIController@@XZ ; Singleton<ioModeUIController>::GetSingleton
; Function compile flags: /Ogsp
;	COMDAT ?GetSingleton@?$Singleton@VioModeUIController@@@@SAAAVioModeUIController@@XZ
_TEXT	SEGMENT
?GetSingleton@?$Singleton@VioModeUIController@@@@SAAAVioModeUIController@@XZ PROC ; Singleton<ioModeUIController>::GetSingleton, COMDAT

; 42   : 		assert( ms_Singleton );
; 43   : 		return (*ms_Singleton);

  00000	a1 00 00 00 00	 mov	 eax, DWORD PTR ?ms_Singleton@?$Singleton@VioModeUIController@@@@1PAVioModeUIController@@A ; Singleton<ioModeUIController>::ms_Singleton

; 44   : 	}

  00005	c3		 ret	 0
?GetSingleton@?$Singleton@VioModeUIController@@@@SAAAVioModeUIController@@XZ ENDP ; Singleton<ioModeUIController>::GetSingleton
_TEXT	ENDS
PUBLIC	?DecryptValueToPool@?$CEncrypt@W4TeamType@@@@QAEXPAW4TeamType@@@Z ; CEncrypt<enum TeamType>::DecryptValueToPool
EXTRN	?DecryptByte@ccddaabb@@QBEXPBDPADH@Z:PROC	; ccddaabb::DecryptByte
; Function compile flags: /Ogsp
; File d:\lost saga for developer\youtube\tutorial\source\src\lsclient\encryptvalue.h
;	COMDAT ?DecryptValueToPool@?$CEncrypt@W4TeamType@@@@QAEXPAW4TeamType@@@Z
_TEXT	SEGMENT
_value$ = 8						; size = 4
?DecryptValueToPool@?$CEncrypt@W4TeamType@@@@QAEXPAW4TeamType@@@Z PROC ; CEncrypt<enum TeamType>::DecryptValueToPool, COMDAT
; _this$ = ecx

; 2959 : 	{

  00000	55		 push	 ebp
  00001	8b ec		 mov	 ebp, esp
  00003	56		 push	 esi

; 2960 : 		m_RC5.DecryptByte( m_MemPool, m_TempMem, sizeof(TeamType) );

  00004	8d 71 28	 lea	 esi, DWORD PTR [ecx+40]
  00007	6a 04		 push	 4
  00009	8d 41 1c	 lea	 eax, DWORD PTR [ecx+28]
  0000c	56		 push	 esi
  0000d	50		 push	 eax
  0000e	83 c1 0c	 add	 ecx, 12			; 0000000cH
  00011	e8 00 00 00 00	 call	 ?DecryptByte@ccddaabb@@QBEXPBDPADH@Z ; ccddaabb::DecryptByte

; 2961 : 		*value = *((TeamType*)m_TempMem);

  00016	8b 06		 mov	 eax, DWORD PTR [esi]
  00018	8b 4d 08	 mov	 ecx, DWORD PTR _value$[ebp]
  0001b	89 01		 mov	 DWORD PTR [ecx], eax
  0001d	5e		 pop	 esi

; 2962 : 	}

  0001e	5d		 pop	 ebp
  0001f	c2 04 00	 ret	 4
?DecryptValueToPool@?$CEncrypt@W4TeamType@@@@QAEXPAW4TeamType@@@Z ENDP ; CEncrypt<enum TeamType>::DecryptValueToPool
_TEXT	ENDS
PUBLIC	??_7ioModeUIController@@6B@			; ioModeUIController::`vftable'
PUBLIC	??0ioModeUIController@@QAE@XZ			; ioModeUIController::ioModeUIController
PUBLIC	??_R4ioModeUIController@@6B@			; ioModeUIController::`RTTI Complete Object Locator'
PUBLIC	??_R0?AVioModeUIController@@@8			; ioModeUIController `RTTI Type Descriptor'
PUBLIC	??_R3ioModeUIController@@8			; ioModeUIController::`RTTI Class Hierarchy Descriptor'
PUBLIC	??_R2ioModeUIController@@8			; ioModeUIController::`RTTI Base Class Array'
PUBLIC	??_R1A@?0A@EA@ioModeUIController@@8		; ioModeUIController::`RTTI Base Class Descriptor at (0,-1,0,64)'
PUBLIC	??_R13?0A@EA@?$Singleton@VioModeUIController@@@@8 ; Singleton<ioModeUIController>::`RTTI Base Class Descriptor at (4,-1,0,64)'
PUBLIC	??_R0?AV?$Singleton@VioModeUIController@@@@@8	; Singleton<ioModeUIController> `RTTI Type Descriptor'
PUBLIC	??_R3?$Singleton@VioModeUIController@@@@8	; Singleton<ioModeUIController>::`RTTI Class Hierarchy Descriptor'
PUBLIC	??_R2?$Singleton@VioModeUIController@@@@8	; Singleton<ioModeUIController>::`RTTI Base Class Array'
PUBLIC	??_R1A@?0A@EA@?$Singleton@VioModeUIController@@@@8 ; Singleton<ioModeUIController>::`RTTI Base Class Descriptor at (0,-1,0,64)'
EXTRN	??_EioModeUIController@@UAEPAXI@Z:PROC		; ioModeUIController::`vector deleting destructor'
;	COMDAT ??_R1A@?0A@EA@?$Singleton@VioModeUIController@@@@8
; File d:\lost saga for developer\youtube\tutorial\source\src\io3dengine\iosingleton.h
rdata$r	SEGMENT
??_R1A@?0A@EA@?$Singleton@VioModeUIController@@@@8 DD FLAT:??_R0?AV?$Singleton@VioModeUIController@@@@@8 ; Singleton<ioModeUIController>::`RTTI Base Class Descriptor at (0,-1,0,64)'
	DD	00H
	DD	00H
	DD	0ffffffffH
	DD	00H
	DD	040H
	DD	FLAT:??_R3?$Singleton@VioModeUIController@@@@8
rdata$r	ENDS
;	COMDAT ??_R2?$Singleton@VioModeUIController@@@@8
rdata$r	SEGMENT
??_R2?$Singleton@VioModeUIController@@@@8 DD FLAT:??_R1A@?0A@EA@?$Singleton@VioModeUIController@@@@8 ; Singleton<ioModeUIController>::`RTTI Base Class Array'
rdata$r	ENDS
;	COMDAT ??_R3?$Singleton@VioModeUIController@@@@8
rdata$r	SEGMENT
??_R3?$Singleton@VioModeUIController@@@@8 DD 00H	; Singleton<ioModeUIController>::`RTTI Class Hierarchy Descriptor'
	DD	00H
	DD	01H
	DD	FLAT:??_R2?$Singleton@VioModeUIController@@@@8
rdata$r	ENDS
;	COMDAT ??_R0?AV?$Singleton@VioModeUIController@@@@@8
_DATA	SEGMENT
??_R0?AV?$Singleton@VioModeUIController@@@@@8 DD FLAT:??_7type_info@@6B@ ; Singleton<ioModeUIController> `RTTI Type Descriptor'
	DD	00H
	DB	'.?AV?$Singleton@VioModeUIController@@@@', 00H
_DATA	ENDS
;	COMDAT ??_R13?0A@EA@?$Singleton@VioModeUIController@@@@8
rdata$r	SEGMENT
??_R13?0A@EA@?$Singleton@VioModeUIController@@@@8 DD FLAT:??_R0?AV?$Singleton@VioModeUIController@@@@@8 ; Singleton<ioModeUIController>::`RTTI Base Class Descriptor at (4,-1,0,64)'
	DD	00H
	DD	04H
	DD	0ffffffffH
	DD	00H
	DD	040H
	DD	FLAT:??_R3?$Singleton@VioModeUIController@@@@8
rdata$r	ENDS
;	COMDAT ??_R1A@?0A@EA@ioModeUIController@@8
rdata$r	SEGMENT
??_R1A@?0A@EA@ioModeUIController@@8 DD FLAT:??_R0?AVioModeUIController@@@8 ; ioModeUIController::`RTTI Base Class Descriptor at (0,-1,0,64)'
	DD	01H
	DD	00H
	DD	0ffffffffH
	DD	00H
	DD	040H
	DD	FLAT:??_R3ioModeUIController@@8
rdata$r	ENDS
;	COMDAT ??_R2ioModeUIController@@8
rdata$r	SEGMENT
??_R2ioModeUIController@@8 DD FLAT:??_R1A@?0A@EA@ioModeUIController@@8 ; ioModeUIController::`RTTI Base Class Array'
	DD	FLAT:??_R13?0A@EA@?$Singleton@VioModeUIController@@@@8
rdata$r	ENDS
;	COMDAT ??_R3ioModeUIController@@8
rdata$r	SEGMENT
??_R3ioModeUIController@@8 DD 00H			; ioModeUIController::`RTTI Class Hierarchy Descriptor'
	DD	00H
	DD	02H
	DD	FLAT:??_R2ioModeUIController@@8
rdata$r	ENDS
;	COMDAT ??_R0?AVioModeUIController@@@8
_DATA	SEGMENT
??_R0?AVioModeUIController@@@8 DD FLAT:??_7type_info@@6B@ ; ioModeUIController `RTTI Type Descriptor'
	DD	00H
	DB	'.?AVioModeUIController@@', 00H
_DATA	ENDS
;	COMDAT ??_R4ioModeUIController@@6B@
rdata$r	SEGMENT
??_R4ioModeUIController@@6B@ DD 00H			; ioModeUIController::`RTTI Complete Object Locator'
	DD	00H
	DD	00H
	DD	FLAT:??_R0?AVioModeUIController@@@8
	DD	FLAT:??_R3ioModeUIController@@8
rdata$r	ENDS
;	COMDAT ??_7ioModeUIController@@6B@
CONST	SEGMENT
??_7ioModeUIController@@6B@ DD FLAT:??_R4ioModeUIController@@6B@ ; ioModeUIController::`vftable'
	DD	FLAT:??_EioModeUIController@@UAEPAXI@Z
; Function compile flags: /Ogsp
; File d:\lost saga for developer\youtube\tutorial\source\src\lsclient\iomodeuicontroller.cpp
CONST	ENDS
;	COMDAT ??0ioModeUIController@@QAE@XZ
_TEXT	SEGMENT
??0ioModeUIController@@QAE@XZ PROC			; ioModeUIController::ioModeUIController, COMDAT
; _this$ = ecx

; 18   : {

  00000	8b c1		 mov	 eax, ecx
  00002	a3 00 00 00 00	 mov	 DWORD PTR ?ms_Singleton@?$Singleton@VioModeUIController@@@@1PAVioModeUIController@@A, eax ; Singleton<ioModeUIController>::ms_Singleton

; 19   : 	m_pCenterInfoWnd = NULL;

  00007	33 c9		 xor	 ecx, ecx
  00009	c7 00 00 00 00
	00		 mov	 DWORD PTR [eax], OFFSET ??_7ioModeUIController@@6B@
  0000f	89 48 04	 mov	 DWORD PTR [eax+4], ecx

; 20   : 	m_pKOMsgWnd = NULL;

  00012	89 48 08	 mov	 DWORD PTR [eax+8], ecx

; 21   : 	m_pCenterKillInfoWnd = NULL;

  00015	89 48 0c	 mov	 DWORD PTR [eax+12], ecx

; 22   : }

  00018	c3		 ret	 0
??0ioModeUIController@@QAE@XZ ENDP			; ioModeUIController::ioModeUIController
_TEXT	ENDS
PUBLIC	??1ioModeUIController@@UAE@XZ			; ioModeUIController::~ioModeUIController
; Function compile flags: /Ogsp
;	COMDAT ??1ioModeUIController@@UAE@XZ
_TEXT	SEGMENT
??1ioModeUIController@@UAE@XZ PROC			; ioModeUIController::~ioModeUIController, COMDAT
; _this$ = ecx

; 25   : {

  00000	c7 01 00 00 00
	00		 mov	 DWORD PTR [ecx], OFFSET ??_7ioModeUIController@@6B@

; 26   : }

  00006	83 25 00 00 00
	00 00		 and	 DWORD PTR ?ms_Singleton@?$Singleton@VioModeUIController@@@@1PAVioModeUIController@@A, 0 ; Singleton<ioModeUIController>::ms_Singleton
  0000d	c3		 ret	 0
??1ioModeUIController@@UAE@XZ ENDP			; ioModeUIController::~ioModeUIController
_TEXT	ENDS
PUBLIC	?GetSingleton@ioModeUIController@@SAAAV1@XZ	; ioModeUIController::GetSingleton
; Function compile flags: /Ogsp
;	COMDAT ?GetSingleton@ioModeUIController@@SAAAV1@XZ
_TEXT	SEGMENT
?GetSingleton@ioModeUIController@@SAAAV1@XZ PROC	; ioModeUIController::GetSingleton, COMDAT

; 30   : 	return Singleton< ioModeUIController >::GetSingleton();

  00000	a1 00 00 00 00	 mov	 eax, DWORD PTR ?ms_Singleton@?$Singleton@VioModeUIController@@@@1PAVioModeUIController@@A ; Singleton<ioModeUIController>::ms_Singleton

; 31   : }

  00005	c3		 ret	 0
?GetSingleton@ioModeUIController@@SAAAV1@XZ ENDP	; ioModeUIController::GetSingleton
_TEXT	ENDS
PUBLIC	??B?$CEncrypt@W4TeamType@@@@QBE?AW4TeamType@@XZ	; CEncrypt<enum TeamType>::operator enum TeamType
; Function compile flags: /Ogsp
; File d:\lost saga for developer\youtube\tutorial\source\src\lsclient\encryptvalue.h
;	COMDAT ??B?$CEncrypt@W4TeamType@@@@QBE?AW4TeamType@@XZ
_TEXT	SEGMENT
_value$ = -4						; size = 4
??B?$CEncrypt@W4TeamType@@@@QBE?AW4TeamType@@XZ PROC	; CEncrypt<enum TeamType>::operator enum TeamType, COMDAT
; _this$ = ecx

; 145  : 	{

  00000	55		 push	 ebp
  00001	8b ec		 mov	 ebp, esp
  00003	51		 push	 ecx

; 146  : 		//UJ 130829, const도 똑같이 하면 된다 --start
; 147  : 		type value;
; 148  : 		CEncrypt<type>* pThis = const_cast<CEncrypt<type>*>(this);
; 149  : 		pThis->DecryptValueToPool(&value);

  00004	8d 45 fc	 lea	 eax, DWORD PTR _value$[ebp]
  00007	50		 push	 eax
  00008	e8 00 00 00 00	 call	 ?DecryptValueToPool@?$CEncrypt@W4TeamType@@@@QAEXPAW4TeamType@@@Z ; CEncrypt<enum TeamType>::DecryptValueToPool

; 150  : 		//// const에서 DecryptValueToPool 사용할 수 없으므로 아래와 같이함.
; 151  :  		//type value;
; 152  : 		//char szTempMem[MAX_ENCRYPT];
; 153  : 		//m_RC5.DecryptByte( m_MemPool, szTempMem, max(m_ValueSize, DEFAULT_ENCRYPT) );
; 154  : 		//memcpy( &value, szTempMem, m_ValueSize );
; 155  : 		//UJ --end
; 156  : 
; 157  : #ifdef _NOTUSE
; 158  : 		Debug();
; 159  : #endif
; 160  : 		return value;

  0000d	8b 45 fc	 mov	 eax, DWORD PTR _value$[ebp]

; 161  : 	}

  00010	c9		 leave
  00011	c3		 ret	 0
??B?$CEncrypt@W4TeamType@@@@QBE?AW4TeamType@@XZ ENDP	; CEncrypt<enum TeamType>::operator enum TeamType
_TEXT	ENDS
EXTRN	??3@YAXPAX@Z:PROC				; operator delete
; Function compile flags: /Ogsp
;	COMDAT ??_GioModeUIController@@UAEPAXI@Z
_TEXT	SEGMENT
___flags$ = 8						; size = 4
??_GioModeUIController@@UAEPAXI@Z PROC			; ioModeUIController::`scalar deleting destructor', COMDAT
; _this$ = ecx
  00000	55		 push	 ebp
  00001	8b ec		 mov	 ebp, esp
  00003	56		 push	 esi
  00004	8b f1		 mov	 esi, ecx
  00006	c7 06 00 00 00
	00		 mov	 DWORD PTR [esi], OFFSET ??_7ioModeUIController@@6B@
  0000c	83 25 00 00 00
	00 00		 and	 DWORD PTR ?ms_Singleton@?$Singleton@VioModeUIController@@@@1PAVioModeUIController@@A, 0 ; Singleton<ioModeUIController>::ms_Singleton
  00013	f6 45 08 01	 test	 BYTE PTR ___flags$[ebp], 1
  00017	74 07		 je	 SHORT $LN1@scalar
  00019	56		 push	 esi
  0001a	e8 00 00 00 00	 call	 ??3@YAXPAX@Z		; operator delete
  0001f	59		 pop	 ecx
$LN1@scalar:
  00020	8b c6		 mov	 eax, esi
  00022	5e		 pop	 esi
  00023	5d		 pop	 ebp
  00024	c2 04 00	 ret	 4
??_GioModeUIController@@UAEPAXI@Z ENDP			; ioModeUIController::`scalar deleting destructor'
_TEXT	ENDS
PUBLIC	?GetTeam@ioPlayEntity@@QBE?AW4TeamType@@XZ	; ioPlayEntity::GetTeam
; Function compile flags: /Ogsp
; File d:\lost saga for developer\youtube\tutorial\source\src\lsclient\ioplayentity.h
;	COMDAT ?GetTeam@ioPlayEntity@@QBE?AW4TeamType@@XZ
_TEXT	SEGMENT
_value$530245 = -4					; size = 4
?GetTeam@ioPlayEntity@@QBE?AW4TeamType@@XZ PROC		; ioPlayEntity::GetTeam, COMDAT
; _this$ = ecx

; 107  : 	inline TeamType GetTeam() const { return m_TeamType; }

  00000	55		 push	 ebp
  00001	8b ec		 mov	 ebp, esp
  00003	51		 push	 ecx
  00004	8d 45 fc	 lea	 eax, DWORD PTR _value$530245[ebp]
  00007	50		 push	 eax
  00008	81 c1 90 00 00
	00		 add	 ecx, 144		; 00000090H
  0000e	e8 00 00 00 00	 call	 ?DecryptValueToPool@?$CEncrypt@W4TeamType@@@@QAEXPAW4TeamType@@@Z ; CEncrypt<enum TeamType>::DecryptValueToPool
  00013	8b 45 fc	 mov	 eax, DWORD PTR _value$530245[ebp]
  00016	c9		 leave
  00017	c3		 ret	 0
?GetTeam@ioPlayEntity@@QBE?AW4TeamType@@XZ ENDP		; ioPlayEntity::GetTeam
_TEXT	ENDS
PUBLIC	??_R0?AVCenterKillInfoWnd@@@8			; CenterKillInfoWnd `RTTI Type Descriptor'
PUBLIC	?SetCenterKillUI@ioModeUIController@@QAEXABW4ModeType@@ABHQBVioBaseChar@@W4TeamType@@ABVioHashString@@K34_N@Z ; ioModeUIController::SetCenterKillUI
EXTRN	?SetOneKillCenterUI@CenterKillInfoWnd@@QAEXABW4CenterKillType@@ABHABW4TeamType@@ABVioHashString@@23K_N@Z:PROC ; CenterKillInfoWnd::SetOneKillCenterUI
EXTRN	__imp_??8ioHashString@@QBE_NABV0@@Z:PROC
EXTRN	?SetOtherKillCenterUI@CenterKillInfoWnd@@QAEXABHABW4TeamType@@ABVioHashString@@12K_N@Z:PROC ; CenterKillInfoWnd::SetOtherKillCenterUI
EXTRN	?IsSoldierSet@ioRSoldierInfoManager@@QAE_NABUCHARACTER@@@Z:PROC ; ioRSoldierInfoManager::IsSoldierSet
EXTRN	?GetSingleton@ioRSoldierInfoManager@@SAAAV1@XZ:PROC ; ioRSoldierInfoManager::GetSingleton
;	COMDAT ??_R0?AVCenterKillInfoWnd@@@8
; File d:\lost saga for developer\youtube\tutorial\source\src\lsclient\encryptvalue.h
_DATA	SEGMENT
??_R0?AVCenterKillInfoWnd@@@8 DD FLAT:??_7type_info@@6B@ ; CenterKillInfoWnd `RTTI Type Descriptor'
	DD	00H
	DB	'.?AVCenterKillInfoWnd@@', 00H
; Function compile flags: /Ogsp
; File d:\lost saga for developer\youtube\tutorial\source\src\lsclient\iomodeuicontroller.cpp
_DATA	ENDS
;	COMDAT ?SetCenterKillUI@ioModeUIController@@QAEXABW4ModeType@@ABHQBVioBaseChar@@W4TeamType@@ABVioHashString@@K34_N@Z
_TEXT	SEGMENT
tv234 = -4						; size = 4
_CurModeType$ = 8					; size = 4
_value$530280 = 12					; size = 4
$T530251 = 12						; size = 4
$T530249 = 12						; size = 4
_iKillCount$ = 12					; size = 4
_value$530298 = 16					; size = 4
$T530252 = 16						; size = 4
$T530250 = 16						; size = 4
_pOwner$ = 16						; size = 4
_IsRSet$ = 19						; size = 1
_eKillerTeam$ = 20					; size = 4
_szKillerName$ = 24					; size = 4
_dwKillerItem$ = 28					; size = 4
_eDierTeam$ = 32					; size = 4
_szDierName$ = 36					; size = 4
_bKillerMale$ = 40					; size = 1
?SetCenterKillUI@ioModeUIController@@QAEXABW4ModeType@@ABHQBVioBaseChar@@W4TeamType@@ABVioHashString@@K34_N@Z PROC ; ioModeUIController::SetCenterKillUI, COMDAT
; _this$ = ecx

; 247  : {

  00000	55		 push	 ebp
  00001	8b ec		 mov	 ebp, esp
  00003	51		 push	 ecx

; 248  : 	if ( !m_pCenterKillInfoWnd )

  00004	8b 41 0c	 mov	 eax, DWORD PTR [ecx+12]
  00007	85 c0		 test	 eax, eax
  00009	0f 84 68 01 00
	00		 je	 $LN1@SetCenterK

; 249  : 		return;
; 250  : 
; 251  : 	CenterKillInfoWnd *pCenterKillInfo = dynamic_cast<CenterKillInfoWnd*>(m_pCenterKillInfoWnd);

  0000f	53		 push	 ebx
  00010	6a 00		 push	 0
  00012	68 00 00 00 00	 push	 OFFSET ??_R0?AVCenterKillInfoWnd@@@8
  00017	68 00 00 00 00	 push	 OFFSET ??_R0?AVioWnd@@@8
  0001c	6a 00		 push	 0
  0001e	50		 push	 eax
  0001f	e8 00 00 00 00	 call	 ___RTDynamicCast
  00024	8b d8		 mov	 ebx, eax
  00026	83 c4 14	 add	 esp, 20			; 00000014H

; 252  : 	if ( !pCenterKillInfo )

  00029	85 db		 test	 ebx, ebx
  0002b	0f 84 45 01 00
	00		 je	 $LN43@SetCenterK

; 253  : 		return;
; 254  : 
; 255  : 	//팀킬 체크
; 256  : 	if ( eKillerTeam == eDierTeam )

  00031	8b 45 14	 mov	 eax, DWORD PTR _eKillerTeam$[ebp]
  00034	3b 45 20	 cmp	 eax, DWORD PTR _eDierTeam$[ebp]
  00037	0f 84 39 01 00
	00		 je	 $LN43@SetCenterK

; 257  : 		return;
; 258  : 
; 259  : 	const CHARACTER& rkChar = pOwner->GetCharacterInfo();

  0003d	56		 push	 esi
  0003e	8b 75 10	 mov	 esi, DWORD PTR _pOwner$[ebp]
  00041	8d 86 58 03 00
	00		 lea	 eax, DWORD PTR [esi+856]
  00047	57		 push	 edi

; 260  : 	bool IsRSet = g_RSoldierInfoManager.IsSoldierSet( rkChar );

  00048	50		 push	 eax
  00049	e8 00 00 00 00	 call	 ?GetSingleton@ioRSoldierInfoManager@@SAAAV1@XZ ; ioRSoldierInfoManager::GetSingleton
  0004e	8b c8		 mov	 ecx, eax
  00050	e8 00 00 00 00	 call	 ?IsSoldierSet@ioRSoldierInfoManager@@QAE_NABUCHARACTER@@@Z ; ioRSoldierInfoManager::IsSoldierSet

; 261  : 	//더블킬 이상이라면
; 262  : 	if ( iKillCount > 1 )

  00055	8b 7d 0c	 mov	 edi, DWORD PTR _iKillCount$[ebp]
  00058	83 3f 01	 cmp	 DWORD PTR [edi], 1
  0005b	88 45 13	 mov	 BYTE PTR _IsRSet$[ebp], al
  0005e	7e 4c		 jle	 SHORT $LN13@SetCenterK

; 263  : 	{
; 264  : 		pCenterKillInfo->SetOtherKillCenterUI( iKillCount, eKillerTeam, szKillerName, eDierTeam, szDierName, dwKillerItem, bKillerMale );

  00060	ff 75 28	 push	 DWORD PTR _bKillerMale$[ebp]
  00063	8d 45 20	 lea	 eax, DWORD PTR _eDierTeam$[ebp]
  00066	ff 75 1c	 push	 DWORD PTR _dwKillerItem$[ebp]
  00069	8b cb		 mov	 ecx, ebx
  0006b	ff 75 24	 push	 DWORD PTR _szDierName$[ebp]
  0006e	50		 push	 eax
  0006f	ff 75 18	 push	 DWORD PTR _szKillerName$[ebp]
  00072	8d 45 14	 lea	 eax, DWORD PTR _eKillerTeam$[ebp]
  00075	50		 push	 eax
  00076	57		 push	 edi
  00077	e8 00 00 00 00	 call	 ?SetOtherKillCenterUI@CenterKillInfoWnd@@QAEXABHABW4TeamType@@ABVioHashString@@12K_N@Z ; CenterKillInfoWnd::SetOtherKillCenterUI

; 265  : 		if ( ( pOwner->GetCharName() == szKillerName || pOwner->GetCharName() == szDierName ) && IsRSet )

  0007c	ff 75 18	 push	 DWORD PTR _szKillerName$[ebp]
  0007f	8d 8e d4 02 00
	00		 lea	 ecx, DWORD PTR [esi+724]
  00085	ff 15 00 00 00
	00		 call	 DWORD PTR __imp_??8ioHashString@@QBE_NABV0@@Z
  0008b	84 c0		 test	 al, al
  0008d	0f 85 8f 00 00
	00		 jne	 $LN11@SetCenterK
  00093	ff 75 24	 push	 DWORD PTR _szDierName$[ebp]
  00096	8d 8e d4 02 00
	00		 lea	 ecx, DWORD PTR [esi+724]
  0009c	ff 15 00 00 00
	00		 call	 DWORD PTR __imp_??8ioHashString@@QBE_NABV0@@Z
  000a2	84 c0		 test	 al, al
  000a4	0f 84 ca 00 00
	00		 je	 $LN44@SetCenterK

; 266  : 			pCenterKillInfo->ClearCurInfoSound();
; 267  : 	}
; 268  : 	else

  000aa	eb 76		 jmp	 SHORT $LN11@SetCenterK
$LN13@SetCenterK:

; 269  : 	{
; 270  : 		//만약 killer가 자신이라면
; 271  : 		if ( pOwner->GetCharName() == szKillerName )

  000ac	ff 75 18	 push	 DWORD PTR _szKillerName$[ebp]
  000af	8d 8e d4 02 00
	00		 lea	 ecx, DWORD PTR [esi+724]
  000b5	89 4d fc	 mov	 DWORD PTR tv234[ebp], ecx
  000b8	ff 15 00 00 00
	00		 call	 DWORD PTR __imp_??8ioHashString@@QBE_NABV0@@Z
  000be	84 c0		 test	 al, al
  000c0	74 09		 je	 SHORT $LN9@SetCenterK

; 272  : 		{
; 273  : 			pCenterKillInfo->SetOneKillCenterUI( CKT_OWNER_KILL, iKillCount, eKillerTeam, szKillerName, eDierTeam, szDierName, dwKillerItem, bKillerMale );

  000c2	c7 45 0c 01 00
	00 00		 mov	 DWORD PTR $T530249[ebp], 1

; 274  : 			if ( IsRSet )
; 275  : 				pCenterKillInfo->ClearCurInfoSound();
; 276  : 		}

  000c9	eb 37		 jmp	 SHORT $LN47@SetCenterK
$LN9@SetCenterK:

; 277  : 		//killer가 자신의 팀이라면
; 278  : 		else if ( pOwner->GetTeam() == eKillerTeam )

  000cb	8d 45 0c	 lea	 eax, DWORD PTR _value$530280[ebp]
  000ce	50		 push	 eax
  000cf	8d 8e 90 00 00
	00		 lea	 ecx, DWORD PTR [esi+144]
  000d5	e8 00 00 00 00	 call	 ?DecryptValueToPool@?$CEncrypt@W4TeamType@@@@QAEXPAW4TeamType@@@Z ; CEncrypt<enum TeamType>::DecryptValueToPool
  000da	8b 45 0c	 mov	 eax, DWORD PTR _value$530280[ebp]
  000dd	3b 45 14	 cmp	 eax, DWORD PTR _eKillerTeam$[ebp]
  000e0	75 09		 jne	 SHORT $LN6@SetCenterK

; 279  : 		{
; 280  : 			pCenterKillInfo->SetOneKillCenterUI( CKT_TEAM_CHAR_KILL, iKillCount, eKillerTeam, szKillerName, eDierTeam, szDierName, dwKillerItem, bKillerMale );

  000e2	c7 45 10 03 00
	00 00		 mov	 DWORD PTR $T530250[ebp], 3

; 281  : 		}
; 282  : 		//죽은 사람이 나라면
; 283  : 		else if( pOwner->GetCharName() == szDierName )

  000e9	eb 69		 jmp	 SHORT $LN46@SetCenterK
$LN6@SetCenterK:
  000eb	ff 75 24	 push	 DWORD PTR _szDierName$[ebp]
  000ee	8b 4d fc	 mov	 ecx, DWORD PTR tv234[ebp]
  000f1	ff 15 00 00 00
	00		 call	 DWORD PTR __imp_??8ioHashString@@QBE_NABV0@@Z
  000f7	84 c0		 test	 al, al
  000f9	74 3b		 je	 SHORT $LN4@SetCenterK

; 284  : 		{
; 285  : 			pCenterKillInfo->SetOneKillCenterUI( CKT_OWNER_DIE, iKillCount, eKillerTeam, szKillerName, eDierTeam, szDierName, dwKillerItem, bKillerMale );

  000fb	c7 45 0c 02 00
	00 00		 mov	 DWORD PTR $T530251[ebp], 2
$LN47@SetCenterK:
  00102	ff 75 28	 push	 DWORD PTR _bKillerMale$[ebp]
  00105	8d 45 20	 lea	 eax, DWORD PTR _eDierTeam$[ebp]
  00108	ff 75 1c	 push	 DWORD PTR _dwKillerItem$[ebp]
  0010b	8b cb		 mov	 ecx, ebx
  0010d	ff 75 24	 push	 DWORD PTR _szDierName$[ebp]
  00110	50		 push	 eax
  00111	ff 75 18	 push	 DWORD PTR _szKillerName$[ebp]
  00114	8d 45 14	 lea	 eax, DWORD PTR _eKillerTeam$[ebp]
  00117	50		 push	 eax
  00118	57		 push	 edi
  00119	8d 45 0c	 lea	 eax, DWORD PTR $T530251[ebp]
  0011c	50		 push	 eax
  0011d	e8 00 00 00 00	 call	 ?SetOneKillCenterUI@CenterKillInfoWnd@@QAEXABW4CenterKillType@@ABHABW4TeamType@@ABVioHashString@@23K_N@Z ; CenterKillInfoWnd::SetOneKillCenterUI
$LN11@SetCenterK:

; 286  : 			if ( IsRSet )

  00122	80 7d 13 00	 cmp	 BYTE PTR _IsRSet$[ebp], 0
  00126	74 4c		 je	 SHORT $LN44@SetCenterK

; 287  : 				pCenterKillInfo->ClearCurInfoSound();

  00128	8d 8b ac 01 00
	00		 lea	 ecx, DWORD PTR [ebx+428]
  0012e	ff 15 00 00 00
	00		 call	 DWORD PTR __imp_?Clear@ioHashString@@QAEXXZ

; 288  : 		}

  00134	eb 3e		 jmp	 SHORT $LN44@SetCenterK
$LN4@SetCenterK:

; 289  : 		//죽은 캐릭터가 같은 팀이라면
; 290  : 		else if ( pOwner->GetTeam() == eDierTeam )

  00136	8d 45 10	 lea	 eax, DWORD PTR _value$530298[ebp]
  00139	50		 push	 eax
  0013a	8d 8e 90 00 00
	00		 lea	 ecx, DWORD PTR [esi+144]
  00140	e8 00 00 00 00	 call	 ?DecryptValueToPool@?$CEncrypt@W4TeamType@@@@QAEXPAW4TeamType@@@Z ; CEncrypt<enum TeamType>::DecryptValueToPool
  00145	8b 45 10	 mov	 eax, DWORD PTR _value$530298[ebp]
  00148	3b 45 20	 cmp	 eax, DWORD PTR _eDierTeam$[ebp]
  0014b	75 27		 jne	 SHORT $LN44@SetCenterK

; 291  : 		{
; 292  : 			pCenterKillInfo->SetOneKillCenterUI( CKT_TEAM_CHAR_DIE, iKillCount, eKillerTeam, szKillerName, eDierTeam, szDierName, dwKillerItem, bKillerMale );

  0014d	c7 45 10 04 00
	00 00		 mov	 DWORD PTR $T530252[ebp], 4
$LN46@SetCenterK:
  00154	ff 75 28	 push	 DWORD PTR _bKillerMale$[ebp]
  00157	8d 45 20	 lea	 eax, DWORD PTR _eDierTeam$[ebp]
  0015a	ff 75 1c	 push	 DWORD PTR _dwKillerItem$[ebp]
  0015d	8b cb		 mov	 ecx, ebx
  0015f	ff 75 24	 push	 DWORD PTR _szDierName$[ebp]
  00162	50		 push	 eax
  00163	ff 75 18	 push	 DWORD PTR _szKillerName$[ebp]
  00166	8d 45 14	 lea	 eax, DWORD PTR _eKillerTeam$[ebp]
  00169	50		 push	 eax
  0016a	57		 push	 edi
  0016b	8d 45 10	 lea	 eax, DWORD PTR $T530252[ebp]
  0016e	50		 push	 eax
  0016f	e8 00 00 00 00	 call	 ?SetOneKillCenterUI@CenterKillInfoWnd@@QAEXABW4CenterKillType@@ABHABW4TeamType@@ABVioHashString@@23K_N@Z ; CenterKillInfoWnd::SetOneKillCenterUI
$LN44@SetCenterK:
  00174	5f		 pop	 edi
  00175	5e		 pop	 esi
$LN43@SetCenterK:
  00176	5b		 pop	 ebx
$LN1@SetCenterK:

; 293  : 		}
; 294  : 	}
; 295  : }

  00177	c9		 leave
  00178	c2 24 00	 ret	 36			; 00000024H
?SetCenterKillUI@ioModeUIController@@QAEXABW4ModeType@@ABHQBVioBaseChar@@W4TeamType@@ABVioHashString@@K34_N@Z ENDP ; ioModeUIController::SetCenterKillUI
_TEXT	ENDS
END
