; Listing generated by Microsoft (R) Optimizing Compiler Version 16.00.30319.01 

	TITLE	D:\Lost Saga For Developer\Youtube\Tutorial\Source\src\LSClient\GUI\ioModeHelpManager.cpp
	.686P
	.XMM
	include listing.inc
	.model	flat

INCLUDELIB MSVCRT
INCLUDELIB OLDNAMES

PUBLIC	?ms_Singleton@?$Singleton@VioModeHelpManager@@@@1PAVioModeHelpManager@@A ; Singleton<ioModeHelpManager>::ms_Singleton
;	COMDAT ?ms_Singleton@?$Singleton@VioModeHelpManager@@@@1PAVioModeHelpManager@@A
_BSS	SEGMENT
?ms_Singleton@?$Singleton@VioModeHelpManager@@@@1PAVioModeHelpManager@@A DD 01H DUP (?) ; Singleton<ioModeHelpManager>::ms_Singleton
_BSS	ENDS
PUBLIC	??_7bad_alloc@std@@6B@				; std::bad_alloc::`vftable'
PUBLIC	??0bad_alloc@std@@QAE@PBD@Z			; std::bad_alloc::bad_alloc
PUBLIC	??_R4bad_alloc@std@@6B@				; std::bad_alloc::`RTTI Complete Object Locator'
PUBLIC	??_R0?AVbad_alloc@std@@@8			; std::bad_alloc `RTTI Type Descriptor'
PUBLIC	??_R3bad_alloc@std@@8				; std::bad_alloc::`RTTI Class Hierarchy Descriptor'
PUBLIC	??_R2bad_alloc@std@@8				; std::bad_alloc::`RTTI Base Class Array'
PUBLIC	??_R1A@?0A@EA@bad_alloc@std@@8			; std::bad_alloc::`RTTI Base Class Descriptor at (0,-1,0,64)'
PUBLIC	??_R1A@?0A@EA@exception@std@@8			; std::exception::`RTTI Base Class Descriptor at (0,-1,0,64)'
PUBLIC	??_R0?AVexception@std@@@8			; std::exception `RTTI Type Descriptor'
PUBLIC	??_R3exception@std@@8				; std::exception::`RTTI Class Hierarchy Descriptor'
PUBLIC	??_R2exception@std@@8				; std::exception::`RTTI Base Class Array'
EXTRN	__imp_??0exception@std@@QAE@ABQBD@Z:PROC
EXTRN	??_7type_info@@6B@:QWORD			; type_info::`vftable'
EXTRN	??_Ebad_alloc@std@@UAEPAXI@Z:PROC		; std::bad_alloc::`vector deleting destructor'
EXTRN	?what@exception@std@@UBEPBDXZ:PROC		; std::exception::what
;	COMDAT ??_R2exception@std@@8
; File c:\program files (x86)\microsoft visual studio 10.0\vc\include\exception
rdata$r	SEGMENT
??_R2exception@std@@8 DD FLAT:??_R1A@?0A@EA@exception@std@@8 ; std::exception::`RTTI Base Class Array'
rdata$r	ENDS
;	COMDAT ??_R3exception@std@@8
rdata$r	SEGMENT
??_R3exception@std@@8 DD 00H				; std::exception::`RTTI Class Hierarchy Descriptor'
	DD	00H
	DD	01H
	DD	FLAT:??_R2exception@std@@8
rdata$r	ENDS
;	COMDAT ??_R0?AVexception@std@@@8
_DATA	SEGMENT
??_R0?AVexception@std@@@8 DD FLAT:??_7type_info@@6B@	; std::exception `RTTI Type Descriptor'
	DD	00H
	DB	'.?AVexception@std@@', 00H
_DATA	ENDS
;	COMDAT ??_R1A@?0A@EA@exception@std@@8
rdata$r	SEGMENT
??_R1A@?0A@EA@exception@std@@8 DD FLAT:??_R0?AVexception@std@@@8 ; std::exception::`RTTI Base Class Descriptor at (0,-1,0,64)'
	DD	00H
	DD	00H
	DD	0ffffffffH
	DD	00H
	DD	040H
	DD	FLAT:??_R3exception@std@@8
rdata$r	ENDS
;	COMDAT ??_R1A@?0A@EA@bad_alloc@std@@8
rdata$r	SEGMENT
??_R1A@?0A@EA@bad_alloc@std@@8 DD FLAT:??_R0?AVbad_alloc@std@@@8 ; std::bad_alloc::`RTTI Base Class Descriptor at (0,-1,0,64)'
	DD	01H
	DD	00H
	DD	0ffffffffH
	DD	00H
	DD	040H
	DD	FLAT:??_R3bad_alloc@std@@8
rdata$r	ENDS
;	COMDAT ??_R2bad_alloc@std@@8
rdata$r	SEGMENT
??_R2bad_alloc@std@@8 DD FLAT:??_R1A@?0A@EA@bad_alloc@std@@8 ; std::bad_alloc::`RTTI Base Class Array'
	DD	FLAT:??_R1A@?0A@EA@exception@std@@8
rdata$r	ENDS
;	COMDAT ??_R3bad_alloc@std@@8
rdata$r	SEGMENT
??_R3bad_alloc@std@@8 DD 00H				; std::bad_alloc::`RTTI Class Hierarchy Descriptor'
	DD	00H
	DD	02H
	DD	FLAT:??_R2bad_alloc@std@@8
rdata$r	ENDS
;	COMDAT ??_R0?AVbad_alloc@std@@@8
_DATA	SEGMENT
??_R0?AVbad_alloc@std@@@8 DD FLAT:??_7type_info@@6B@	; std::bad_alloc `RTTI Type Descriptor'
	DD	00H
	DB	'.?AVbad_alloc@std@@', 00H
_DATA	ENDS
;	COMDAT ??_R4bad_alloc@std@@6B@
rdata$r	SEGMENT
??_R4bad_alloc@std@@6B@ DD 00H				; std::bad_alloc::`RTTI Complete Object Locator'
	DD	00H
	DD	00H
	DD	FLAT:??_R0?AVbad_alloc@std@@@8
	DD	FLAT:??_R3bad_alloc@std@@8
rdata$r	ENDS
;	COMDAT ??_7bad_alloc@std@@6B@
CONST	SEGMENT
??_7bad_alloc@std@@6B@ DD FLAT:??_R4bad_alloc@std@@6B@	; std::bad_alloc::`vftable'
	DD	FLAT:??_Ebad_alloc@std@@UAEPAXI@Z
	DD	FLAT:?what@exception@std@@UBEPBDXZ
; Function compile flags: /Ogsp
CONST	ENDS
;	COMDAT ??0bad_alloc@std@@QAE@PBD@Z
_TEXT	SEGMENT
__Message$ = 8						; size = 4
??0bad_alloc@std@@QAE@PBD@Z PROC			; std::bad_alloc::bad_alloc, COMDAT
; _this$ = ecx

; 345  : 		{	// construct from message string

  00000	55		 push	 ebp
  00001	8b ec		 mov	 ebp, esp
  00003	56		 push	 esi
  00004	8d 45 08	 lea	 eax, DWORD PTR __Message$[ebp]
  00007	50		 push	 eax
  00008	8b f1		 mov	 esi, ecx
  0000a	ff 15 00 00 00
	00		 call	 DWORD PTR __imp_??0exception@std@@QAE@ABQBD@Z
  00010	c7 06 00 00 00
	00		 mov	 DWORD PTR [esi], OFFSET ??_7bad_alloc@std@@6B@

; 346  : 		}

  00016	8b c6		 mov	 eax, esi
  00018	5e		 pop	 esi
  00019	5d		 pop	 ebp
  0001a	c2 04 00	 ret	 4
??0bad_alloc@std@@QAE@PBD@Z ENDP			; std::bad_alloc::bad_alloc
_TEXT	ENDS
PUBLIC	??1bad_alloc@std@@UAE@XZ			; std::bad_alloc::~bad_alloc
EXTRN	__imp_??1exception@std@@UAE@XZ:PROC
; Function compile flags: /Ogsp
;	COMDAT ??1bad_alloc@std@@UAE@XZ
_TEXT	SEGMENT
??1bad_alloc@std@@UAE@XZ PROC				; std::bad_alloc::~bad_alloc, COMDAT
; _this$ = ecx

; 354  : 		{	// destroy the object

  00000	c7 01 00 00 00
	00		 mov	 DWORD PTR [ecx], OFFSET ??_7bad_alloc@std@@6B@

; 355  : 		}

  00006	ff 25 00 00 00
	00		 jmp	 DWORD PTR __imp_??1exception@std@@UAE@XZ
??1bad_alloc@std@@UAE@XZ ENDP				; std::bad_alloc::~bad_alloc
_TEXT	ENDS
EXTRN	??3@YAXPAX@Z:PROC				; operator delete
; Function compile flags: /Ogsp
;	COMDAT ??_Gbad_alloc@std@@UAEPAXI@Z
_TEXT	SEGMENT
___flags$ = 8						; size = 4
??_Gbad_alloc@std@@UAEPAXI@Z PROC			; std::bad_alloc::`scalar deleting destructor', COMDAT
; _this$ = ecx
  00000	55		 push	 ebp
  00001	8b ec		 mov	 ebp, esp
  00003	56		 push	 esi
  00004	8b f1		 mov	 esi, ecx
  00006	c7 06 00 00 00
	00		 mov	 DWORD PTR [esi], OFFSET ??_7bad_alloc@std@@6B@
  0000c	ff 15 00 00 00
	00		 call	 DWORD PTR __imp_??1exception@std@@UAE@XZ
  00012	f6 45 08 01	 test	 BYTE PTR ___flags$[ebp], 1
  00016	74 07		 je	 SHORT $LN1@scalar
  00018	56		 push	 esi
  00019	e8 00 00 00 00	 call	 ??3@YAXPAX@Z		; operator delete
  0001e	59		 pop	 ecx
$LN1@scalar:
  0001f	8b c6		 mov	 eax, esi
  00021	5e		 pop	 esi
  00022	5d		 pop	 ebp
  00023	c2 04 00	 ret	 4
??_Gbad_alloc@std@@UAEPAXI@Z ENDP			; std::bad_alloc::`scalar deleting destructor'
_TEXT	ENDS
PUBLIC	??2@YAPAXIPAX@Z					; operator new
; Function compile flags: /Ogsp
; File c:\program files (x86)\microsoft visual studio 10.0\vc\include\new
;	COMDAT ??2@YAPAXIPAX@Z
_TEXT	SEGMENT
___formal$ = 8						; size = 4
__Where$ = 12						; size = 4
??2@YAPAXIPAX@Z PROC					; operator new, COMDAT

; 56   : 	{	// construct array with placement at _Where

  00000	55		 push	 ebp
  00001	8b ec		 mov	 ebp, esp

; 57   : 	return (_Where);

  00003	8b 45 0c	 mov	 eax, DWORD PTR __Where$[ebp]

; 58   : 	}

  00006	5d		 pop	 ebp
  00007	c3		 ret	 0
??2@YAPAXIPAX@Z ENDP					; operator new
_TEXT	ENDS
PUBLIC	??3@YAXPAX0@Z					; operator delete
; Function compile flags: /Ogsp
;	COMDAT ??3@YAXPAX0@Z
_TEXT	SEGMENT
___formal$ = 8						; size = 4
___formal$ = 12						; size = 4
??3@YAXPAX0@Z PROC					; operator delete, COMDAT

; 62   : 	}

  00000	c3		 ret	 0
??3@YAXPAX0@Z ENDP					; operator delete
_TEXT	ENDS
PUBLIC	?_Adopt@_Iterator_base0@std@@QAEXPBX@Z		; std::_Iterator_base0::_Adopt
; Function compile flags: /Ogsp
; File c:\program files (x86)\microsoft visual studio 10.0\vc\include\xutility
;	COMDAT ?_Adopt@_Iterator_base0@std@@QAEXPBX@Z
_TEXT	SEGMENT
___formal$ = 8						; size = 4
?_Adopt@_Iterator_base0@std@@QAEXPBX@Z PROC		; std::_Iterator_base0::_Adopt, COMDAT
; _this$ = ecx

; 49   : 		}

  00000	c2 04 00	 ret	 4
?_Adopt@_Iterator_base0@std@@QAEXPBX@Z ENDP		; std::_Iterator_base0::_Adopt
_TEXT	ENDS
PUBLIC	??1ioINILoader_e@@QAE@XZ			; ioINILoader_e::~ioINILoader_e
EXTRN	__imp_??1ioINILoader@@QAE@XZ:PROC
; Function compile flags: /Ogsp
;	COMDAT ??1ioINILoader_e@@QAE@XZ
_TEXT	SEGMENT
??1ioINILoader_e@@QAE@XZ PROC				; ioINILoader_e::~ioINILoader_e, COMDAT
; _this$ = ecx
  00000	ff 25 00 00 00
	00		 jmp	 DWORD PTR __imp_??1ioINILoader@@QAE@XZ
??1ioINILoader_e@@QAE@XZ ENDP				; ioINILoader_e::~ioINILoader_e
_TEXT	ENDS
PUBLIC	?InitModeHelp@ioModeHelpManager@@QAEXXZ		; ioModeHelpManager::InitModeHelp
; Function compile flags: /Ogsp
; File d:\lost saga for developer\youtube\tutorial\source\src\lsclient\gui\iomodehelpmanager.cpp
;	COMDAT ?InitModeHelp@ioModeHelpManager@@QAEXXZ
_TEXT	SEGMENT
?InitModeHelp@ioModeHelpManager@@QAEXXZ PROC		; ioModeHelpManager::InitModeHelp, COMDAT
; _this$ = ecx

; 100  : 	m_eCurHelpType   = HT_NONE;

  00000	83 61 14 00	 and	 DWORD PTR [ecx+20], 0

; 101  : 	m_dwHideHelpTime = 0;

  00004	83 61 18 00	 and	 DWORD PTR [ecx+24], 0

; 102  : }

  00008	c3		 ret	 0
?InitModeHelp@ioModeHelpManager@@QAEXXZ ENDP		; ioModeHelpManager::InitModeHelp
_TEXT	ENDS
PUBLIC	?ShowHelpWnd@ioModeHelpManager@@IAEXXZ		; ioModeHelpManager::ShowHelpWnd
; Function compile flags: /Ogsp
;	COMDAT ?ShowHelpWnd@ioModeHelpManager@@IAEXXZ
_TEXT	SEGMENT
?ShowHelpWnd@ioModeHelpManager@@IAEXXZ PROC		; ioModeHelpManager::ShowHelpWnd, COMDAT
; _this$ = ecx

; 350  : }

  00000	c3		 ret	 0
?ShowHelpWnd@ioModeHelpManager@@IAEXXZ ENDP		; ioModeHelpManager::ShowHelpWnd
_TEXT	ENDS
PUBLIC	?HideHelpWnd@ioModeHelpManager@@IAEXXZ		; ioModeHelpManager::HideHelpWnd
; Function compile flags: /Ogsp
;	COMDAT ?HideHelpWnd@ioModeHelpManager@@IAEXXZ
_TEXT	SEGMENT
?HideHelpWnd@ioModeHelpManager@@IAEXXZ PROC		; ioModeHelpManager::HideHelpWnd, COMDAT
; _this$ = ecx

; 354  : }

  00000	c3		 ret	 0
?HideHelpWnd@ioModeHelpManager@@IAEXXZ ENDP		; ioModeHelpManager::HideHelpWnd
_TEXT	ENDS
PUBLIC	?SetHidingAni@ioModeHelpManager@@IAEXXZ		; ioModeHelpManager::SetHidingAni
; Function compile flags: /Ogsp
;	COMDAT ?SetHidingAni@ioModeHelpManager@@IAEXXZ
_TEXT	SEGMENT
?SetHidingAni@ioModeHelpManager@@IAEXXZ PROC		; ioModeHelpManager::SetHidingAni, COMDAT
; _this$ = ecx

; 358  : }

  00000	c3		 ret	 0
?SetHidingAni@ioModeHelpManager@@IAEXXZ ENDP		; ioModeHelpManager::SetHidingAni
_TEXT	ENDS
PUBLIC	?IsHidedAni@ioModeHelpManager@@IAE_NXZ		; ioModeHelpManager::IsHidedAni
; Function compile flags: /Ogsp
;	COMDAT ?IsHidedAni@ioModeHelpManager@@IAE_NXZ
_TEXT	SEGMENT
?IsHidedAni@ioModeHelpManager@@IAE_NXZ PROC		; ioModeHelpManager::IsHidedAni, COMDAT
; _this$ = ecx

; 362  : 	return false;

  00000	32 c0		 xor	 al, al

; 363  : }

  00002	c3		 ret	 0
?IsHidedAni@ioModeHelpManager@@IAE_NXZ ENDP		; ioModeHelpManager::IsHidedAni
_TEXT	ENDS
PUBLIC	?IsHidingAni@ioModeHelpManager@@IAE_NXZ		; ioModeHelpManager::IsHidingAni
; Function compile flags: /Ogsp
;	COMDAT ?IsHidingAni@ioModeHelpManager@@IAE_NXZ
_TEXT	SEGMENT
?IsHidingAni@ioModeHelpManager@@IAE_NXZ PROC		; ioModeHelpManager::IsHidingAni, COMDAT
; _this$ = ecx

; 367  : 	return false;

  00000	32 c0		 xor	 al, al

; 368  : }

  00002	c3		 ret	 0
?IsHidingAni@ioModeHelpManager@@IAE_NXZ ENDP		; ioModeHelpManager::IsHidingAni
_TEXT	ENDS
PUBLIC	?GetCurHelpType@ioModeHelpManager@@IBE?AW4HelpType@1@XZ ; ioModeHelpManager::GetCurHelpType
; Function compile flags: /Ogsp
;	COMDAT ?GetCurHelpType@ioModeHelpManager@@IBE?AW4HelpType@1@XZ
_TEXT	SEGMENT
?GetCurHelpType@ioModeHelpManager@@IBE?AW4HelpType@1@XZ PROC ; ioModeHelpManager::GetCurHelpType, COMDAT
; _this$ = ecx

; 372  : 	return m_eCurHelpType;

  00000	8b 41 14	 mov	 eax, DWORD PTR [ecx+20]

; 373  : }

  00003	c3		 ret	 0
?GetCurHelpType@ioModeHelpManager@@IBE?AW4HelpType@1@XZ ENDP ; ioModeHelpManager::GetCurHelpType
_TEXT	ENDS
PUBLIC	?HideHelpDirectly@ioModeHelpManager@@QAEXXZ	; ioModeHelpManager::HideHelpDirectly
; Function compile flags: /Ogsp
;	COMDAT ?HideHelpDirectly@ioModeHelpManager@@QAEXXZ
_TEXT	SEGMENT
?HideHelpDirectly@ioModeHelpManager@@QAEXXZ PROC	; ioModeHelpManager::HideHelpDirectly, COMDAT
; _this$ = ecx

; 377  : 	InitModeHelp();

  00000	83 61 14 00	 and	 DWORD PTR [ecx+20], 0
  00004	83 61 18 00	 and	 DWORD PTR [ecx+24], 0

; 378  : 	HideHelpWnd();
; 379  : }

  00008	c3		 ret	 0
?HideHelpDirectly@ioModeHelpManager@@QAEXXZ ENDP	; ioModeHelpManager::HideHelpDirectly
_TEXT	ENDS
PUBLIC	?size@?$vector@UHelpText@@V?$allocator@UHelpText@@@std@@@std@@QBEIXZ ; std::vector<HelpText,std::allocator<HelpText> >::size
; Function compile flags: /Ogsp
; File c:\program files (x86)\microsoft visual studio 10.0\vc\include\vector
;	COMDAT ?size@?$vector@UHelpText@@V?$allocator@UHelpText@@@std@@@std@@QBEIXZ
_TEXT	SEGMENT
?size@?$vector@UHelpText@@V?$allocator@UHelpText@@@std@@@std@@QBEIXZ PROC ; std::vector<HelpText,std::allocator<HelpText> >::size, COMDAT
; _this$ = ecx

; 879  : 		return (this->_Mylast - this->_Myfirst);

  00000	8b 41 04	 mov	 eax, DWORD PTR [ecx+4]
  00003	2b 01		 sub	 eax, DWORD PTR [ecx]
  00005	b9 18 02 00 00	 mov	 ecx, 536		; 00000218H
  0000a	99		 cdq
  0000b	f7 f9		 idiv	 ecx

; 880  : 		}

  0000d	c3		 ret	 0
?size@?$vector@UHelpText@@V?$allocator@UHelpText@@@std@@@std@@QBEIXZ ENDP ; std::vector<HelpText,std::allocator<HelpText> >::size
_TEXT	ENDS
PUBLIC	??A?$vector@UHelpText@@V?$allocator@UHelpText@@@std@@@std@@QAEAAUHelpText@@I@Z ; std::vector<HelpText,std::allocator<HelpText> >::operator[]
; Function compile flags: /Ogsp
;	COMDAT ??A?$vector@UHelpText@@V?$allocator@UHelpText@@@std@@@std@@QAEAAUHelpText@@I@Z
_TEXT	SEGMENT
__Pos$ = 8						; size = 4
??A?$vector@UHelpText@@V?$allocator@UHelpText@@@std@@@std@@QAEAAUHelpText@@I@Z PROC ; std::vector<HelpText,std::allocator<HelpText> >::operator[], COMDAT
; _this$ = ecx

; 928  : 		{	// subscript mutable sequence

  00000	55		 push	 ebp
  00001	8b ec		 mov	 ebp, esp

; 929  :  #if _ITERATOR_DEBUG_LEVEL == 2
; 930  : 		if (size() <= _Pos)
; 931  : 			{	// report error
; 932  : 			_DEBUG_ERROR("vector subscript out of range");
; 933  : 			_SCL_SECURE_OUT_OF_RANGE;
; 934  : 			}
; 935  : 
; 936  :  #elif _ITERATOR_DEBUG_LEVEL == 1
; 937  : 		_SCL_SECURE_VALIDATE_RANGE(_Pos < size());
; 938  :  #endif /* _ITERATOR_DEBUG_LEVEL */
; 939  : 
; 940  : 		return (*(this->_Myfirst + _Pos));

  00003	8b 45 08	 mov	 eax, DWORD PTR __Pos$[ebp]
  00006	69 c0 18 02 00
	00		 imul	 eax, 536		; 00000218H
  0000c	03 01		 add	 eax, DWORD PTR [ecx]

; 941  : 		}

  0000e	5d		 pop	 ebp
  0000f	c2 04 00	 ret	 4
??A?$vector@UHelpText@@V?$allocator@UHelpText@@@std@@@std@@QAEAAUHelpText@@I@Z ENDP ; std::vector<HelpText,std::allocator<HelpText> >::operator[]
_TEXT	ENDS
PUBLIC	??0?$Singleton@VioModeHelpManager@@@@QAE@XZ	; Singleton<ioModeHelpManager>::Singleton<ioModeHelpManager>
; Function compile flags: /Ogsp
; File d:\lost saga for developer\youtube\tutorial\source\src\io3dengine\iosingleton.h
;	COMDAT ??0?$Singleton@VioModeHelpManager@@@@QAE@XZ
_TEXT	SEGMENT
??0?$Singleton@VioModeHelpManager@@@@QAE@XZ PROC	; Singleton<ioModeHelpManager>::Singleton<ioModeHelpManager>, COMDAT
; _this$ = ecx

; 27   : 	Singleton()

  00000	8b c1		 mov	 eax, ecx

; 28   : 	{
; 29   : 		assert( !ms_Singleton );
; 30   : 		int offset = (int)(T*)1 - (int)(Singleton <T>*)(T*)1;
; 31   : 		ms_Singleton = (T*)((int)this + offset);

  00002	8d 48 fc	 lea	 ecx, DWORD PTR [eax-4]
  00005	89 0d 00 00 00
	00		 mov	 DWORD PTR ?ms_Singleton@?$Singleton@VioModeHelpManager@@@@1PAVioModeHelpManager@@A, ecx ; Singleton<ioModeHelpManager>::ms_Singleton

; 32   : 	}

  0000b	c3		 ret	 0
??0?$Singleton@VioModeHelpManager@@@@QAE@XZ ENDP	; Singleton<ioModeHelpManager>::Singleton<ioModeHelpManager>
_TEXT	ENDS
PUBLIC	??1?$Singleton@VioModeHelpManager@@@@QAE@XZ	; Singleton<ioModeHelpManager>::~Singleton<ioModeHelpManager>
; Function compile flags: /Ogsp
;	COMDAT ??1?$Singleton@VioModeHelpManager@@@@QAE@XZ
_TEXT	SEGMENT
??1?$Singleton@VioModeHelpManager@@@@QAE@XZ PROC	; Singleton<ioModeHelpManager>::~Singleton<ioModeHelpManager>, COMDAT
; _this$ = ecx

; 36   : 		assert( ms_Singleton );
; 37   : 		ms_Singleton = 0;

  00000	83 25 00 00 00
	00 00		 and	 DWORD PTR ?ms_Singleton@?$Singleton@VioModeHelpManager@@@@1PAVioModeHelpManager@@A, 0 ; Singleton<ioModeHelpManager>::ms_Singleton

; 38   : 	}

  00007	c3		 ret	 0
??1?$Singleton@VioModeHelpManager@@@@QAE@XZ ENDP	; Singleton<ioModeHelpManager>::~Singleton<ioModeHelpManager>
_TEXT	ENDS
PUBLIC	?GetSingleton@?$Singleton@VioModeHelpManager@@@@SAAAVioModeHelpManager@@XZ ; Singleton<ioModeHelpManager>::GetSingleton
; Function compile flags: /Ogsp
;	COMDAT ?GetSingleton@?$Singleton@VioModeHelpManager@@@@SAAAVioModeHelpManager@@XZ
_TEXT	SEGMENT
?GetSingleton@?$Singleton@VioModeHelpManager@@@@SAAAVioModeHelpManager@@XZ PROC ; Singleton<ioModeHelpManager>::GetSingleton, COMDAT

; 42   : 		assert( ms_Singleton );
; 43   : 		return (*ms_Singleton);

  00000	a1 00 00 00 00	 mov	 eax, DWORD PTR ?ms_Singleton@?$Singleton@VioModeHelpManager@@@@1PAVioModeHelpManager@@A ; Singleton<ioModeHelpManager>::ms_Singleton

; 44   : 	}

  00005	c3		 ret	 0
?GetSingleton@?$Singleton@VioModeHelpManager@@@@SAAAVioModeHelpManager@@XZ ENDP ; Singleton<ioModeHelpManager>::GetSingleton
_TEXT	ENDS
PUBLIC	?GetSingletonPtr@?$Singleton@VioModeHelpManager@@@@SAPAVioModeHelpManager@@XZ ; Singleton<ioModeHelpManager>::GetSingletonPtr
; Function compile flags: /Ogsp
;	COMDAT ?GetSingletonPtr@?$Singleton@VioModeHelpManager@@@@SAPAVioModeHelpManager@@XZ
_TEXT	SEGMENT
?GetSingletonPtr@?$Singleton@VioModeHelpManager@@@@SAPAVioModeHelpManager@@XZ PROC ; Singleton<ioModeHelpManager>::GetSingletonPtr, COMDAT

; 48   : 		return ( ms_Singleton );

  00000	a1 00 00 00 00	 mov	 eax, DWORD PTR ?ms_Singleton@?$Singleton@VioModeHelpManager@@@@1PAVioModeHelpManager@@A ; Singleton<ioModeHelpManager>::ms_Singleton

; 49   : 	}

  00005	c3		 ret	 0
?GetSingletonPtr@?$Singleton@VioModeHelpManager@@@@SAPAVioModeHelpManager@@XZ ENDP ; Singleton<ioModeHelpManager>::GetSingletonPtr
_TEXT	ENDS
PUBLIC	?size@?$vector@UModeHelp@@V?$allocator@UModeHelp@@@std@@@std@@QBEIXZ ; std::vector<ModeHelp,std::allocator<ModeHelp> >::size
; Function compile flags: /Ogsp
; File c:\program files (x86)\microsoft visual studio 10.0\vc\include\vector
;	COMDAT ?size@?$vector@UModeHelp@@V?$allocator@UModeHelp@@@std@@@std@@QBEIXZ
_TEXT	SEGMENT
?size@?$vector@UModeHelp@@V?$allocator@UModeHelp@@@std@@@std@@QBEIXZ PROC ; std::vector<ModeHelp,std::allocator<ModeHelp> >::size, COMDAT
; _this$ = ecx

; 879  : 		return (this->_Mylast - this->_Myfirst);

  00000	8b 41 04	 mov	 eax, DWORD PTR [ecx+4]
  00003	2b 01		 sub	 eax, DWORD PTR [ecx]
  00005	6a 2c		 push	 44			; 0000002cH
  00007	99		 cdq
  00008	59		 pop	 ecx
  00009	f7 f9		 idiv	 ecx

; 880  : 		}

  0000b	c3		 ret	 0
?size@?$vector@UModeHelp@@V?$allocator@UModeHelp@@@std@@@std@@QBEIXZ ENDP ; std::vector<ModeHelp,std::allocator<ModeHelp> >::size
_TEXT	ENDS
PUBLIC	??A?$vector@UModeHelp@@V?$allocator@UModeHelp@@@std@@@std@@QBEABUModeHelp@@I@Z ; std::vector<ModeHelp,std::allocator<ModeHelp> >::operator[]
; Function compile flags: /Ogsp
;	COMDAT ??A?$vector@UModeHelp@@V?$allocator@UModeHelp@@@std@@@std@@QBEABUModeHelp@@I@Z
_TEXT	SEGMENT
__Pos$ = 8						; size = 4
??A?$vector@UModeHelp@@V?$allocator@UModeHelp@@@std@@@std@@QBEABUModeHelp@@I@Z PROC ; std::vector<ModeHelp,std::allocator<ModeHelp> >::operator[], COMDAT
; _this$ = ecx

; 912  : 		{	// subscript nonmutable sequence

  00000	55		 push	 ebp
  00001	8b ec		 mov	 ebp, esp

; 913  :  #if _ITERATOR_DEBUG_LEVEL == 2
; 914  : 		if (size() <= _Pos)
; 915  : 			{	// report error
; 916  : 			_DEBUG_ERROR("vector subscript out of range");
; 917  : 			_SCL_SECURE_OUT_OF_RANGE;
; 918  : 			}
; 919  : 
; 920  :  #elif _ITERATOR_DEBUG_LEVEL == 1
; 921  : 		_SCL_SECURE_VALIDATE_RANGE(_Pos < size());
; 922  :  #endif /* _ITERATOR_DEBUG_LEVEL */
; 923  : 
; 924  : 		return (*(this->_Myfirst + _Pos));

  00003	8b 45 08	 mov	 eax, DWORD PTR __Pos$[ebp]
  00006	6b c0 2c	 imul	 eax, 44			; 0000002cH
  00009	03 01		 add	 eax, DWORD PTR [ecx]

; 925  : 		}

  0000b	5d		 pop	 ebp
  0000c	c2 04 00	 ret	 4
??A?$vector@UModeHelp@@V?$allocator@UModeHelp@@@std@@@std@@QBEABUModeHelp@@I@Z ENDP ; std::vector<ModeHelp,std::allocator<ModeHelp> >::operator[]
_TEXT	ENDS
PUBLIC	??A?$vector@UModeHelp@@V?$allocator@UModeHelp@@@std@@@std@@QAEAAUModeHelp@@I@Z ; std::vector<ModeHelp,std::allocator<ModeHelp> >::operator[]
; Function compile flags: /Ogsp
;	COMDAT ??A?$vector@UModeHelp@@V?$allocator@UModeHelp@@@std@@@std@@QAEAAUModeHelp@@I@Z
_TEXT	SEGMENT
__Pos$ = 8						; size = 4
??A?$vector@UModeHelp@@V?$allocator@UModeHelp@@@std@@@std@@QAEAAUModeHelp@@I@Z PROC ; std::vector<ModeHelp,std::allocator<ModeHelp> >::operator[], COMDAT
; _this$ = ecx

; 928  : 		{	// subscript mutable sequence

  00000	55		 push	 ebp
  00001	8b ec		 mov	 ebp, esp

; 929  :  #if _ITERATOR_DEBUG_LEVEL == 2
; 930  : 		if (size() <= _Pos)
; 931  : 			{	// report error
; 932  : 			_DEBUG_ERROR("vector subscript out of range");
; 933  : 			_SCL_SECURE_OUT_OF_RANGE;
; 934  : 			}
; 935  : 
; 936  :  #elif _ITERATOR_DEBUG_LEVEL == 1
; 937  : 		_SCL_SECURE_VALIDATE_RANGE(_Pos < size());
; 938  :  #endif /* _ITERATOR_DEBUG_LEVEL */
; 939  : 
; 940  : 		return (*(this->_Myfirst + _Pos));

  00003	8b 45 08	 mov	 eax, DWORD PTR __Pos$[ebp]
  00006	6b c0 2c	 imul	 eax, 44			; 0000002cH
  00009	03 01		 add	 eax, DWORD PTR [ecx]

; 941  : 		}

  0000b	5d		 pop	 ebp
  0000c	c2 04 00	 ret	 4
??A?$vector@UModeHelp@@V?$allocator@UModeHelp@@@std@@@std@@QAEAAUModeHelp@@I@Z ENDP ; std::vector<ModeHelp,std::allocator<ModeHelp> >::operator[]
_TEXT	ENDS
PUBLIC	?_Inside@?$vector@UHelpText@@V?$allocator@UHelpText@@@std@@@std@@IBE_NPBUHelpText@@@Z ; std::vector<HelpText,std::allocator<HelpText> >::_Inside
; Function compile flags: /Ogsp
;	COMDAT ?_Inside@?$vector@UHelpText@@V?$allocator@UHelpText@@@std@@@std@@IBE_NPBUHelpText@@@Z
_TEXT	SEGMENT
__Ptr$ = 8						; size = 4
?_Inside@?$vector@UHelpText@@V?$allocator@UHelpText@@@std@@@std@@IBE_NPBUHelpText@@@Z PROC ; std::vector<HelpText,std::allocator<HelpText> >::_Inside, COMDAT
; _this$ = ecx

; 1285 : 		{	// test if _Ptr points inside vector

  00000	55		 push	 ebp
  00001	8b ec		 mov	 ebp, esp

; 1286 : 		return (_Ptr < this->_Mylast && this->_Myfirst <= _Ptr);

  00003	8b 45 08	 mov	 eax, DWORD PTR __Ptr$[ebp]
  00006	3b 41 04	 cmp	 eax, DWORD PTR [ecx+4]
  00009	73 09		 jae	 SHORT $LN3@Inside
  0000b	39 01		 cmp	 DWORD PTR [ecx], eax
  0000d	77 05		 ja	 SHORT $LN3@Inside
  0000f	33 c0		 xor	 eax, eax
  00011	40		 inc	 eax
  00012	eb 02		 jmp	 SHORT $LN4@Inside
$LN3@Inside:
  00014	33 c0		 xor	 eax, eax
$LN4@Inside:

; 1287 : 		}

  00016	5d		 pop	 ebp
  00017	c2 04 00	 ret	 4
?_Inside@?$vector@UHelpText@@V?$allocator@UHelpText@@@std@@@std@@IBE_NPBUHelpText@@@Z ENDP ; std::vector<HelpText,std::allocator<HelpText> >::_Inside
_TEXT	ENDS
PUBLIC	?_Orphan_range@?$vector@UHelpText@@V?$allocator@UHelpText@@@std@@@std@@IBEXPAUHelpText@@0@Z ; std::vector<HelpText,std::allocator<HelpText> >::_Orphan_range
; Function compile flags: /Ogsp
;	COMDAT ?_Orphan_range@?$vector@UHelpText@@V?$allocator@UHelpText@@@std@@@std@@IBEXPAUHelpText@@0@Z
_TEXT	SEGMENT
___formal$ = 8						; size = 4
___formal$ = 12						; size = 4
?_Orphan_range@?$vector@UHelpText@@V?$allocator@UHelpText@@@std@@@std@@IBEXPAUHelpText@@0@Z PROC ; std::vector<HelpText,std::allocator<HelpText> >::_Orphan_range, COMDAT
; _this$ = ecx

; 1454 : 		}

  00000	c2 08 00	 ret	 8
?_Orphan_range@?$vector@UHelpText@@V?$allocator@UHelpText@@@std@@@std@@IBEXPAUHelpText@@0@Z ENDP ; std::vector<HelpText,std::allocator<HelpText> >::_Orphan_range
_TEXT	ENDS
PUBLIC	?capacity@?$vector@UModeHelp@@V?$allocator@UModeHelp@@@std@@@std@@QBEIXZ ; std::vector<ModeHelp,std::allocator<ModeHelp> >::capacity
; Function compile flags: /Ogsp
;	COMDAT ?capacity@?$vector@UModeHelp@@V?$allocator@UModeHelp@@@std@@@std@@QBEIXZ
_TEXT	SEGMENT
?capacity@?$vector@UModeHelp@@V?$allocator@UModeHelp@@@std@@@std@@QBEIXZ PROC ; std::vector<ModeHelp,std::allocator<ModeHelp> >::capacity, COMDAT
; _this$ = ecx

; 777  : 		return (this->_Myend - this->_Myfirst);

  00000	8b 41 08	 mov	 eax, DWORD PTR [ecx+8]
  00003	2b 01		 sub	 eax, DWORD PTR [ecx]
  00005	6a 2c		 push	 44			; 0000002cH
  00007	99		 cdq
  00008	59		 pop	 ecx
  00009	f7 f9		 idiv	 ecx

; 778  : 		}

  0000b	c3		 ret	 0
?capacity@?$vector@UModeHelp@@V?$allocator@UModeHelp@@@std@@@std@@QBEIXZ ENDP ; std::vector<ModeHelp,std::allocator<ModeHelp> >::capacity
_TEXT	ENDS
PUBLIC	?_Inside@?$vector@UModeHelp@@V?$allocator@UModeHelp@@@std@@@std@@IBE_NPBUModeHelp@@@Z ; std::vector<ModeHelp,std::allocator<ModeHelp> >::_Inside
; Function compile flags: /Ogsp
;	COMDAT ?_Inside@?$vector@UModeHelp@@V?$allocator@UModeHelp@@@std@@@std@@IBE_NPBUModeHelp@@@Z
_TEXT	SEGMENT
__Ptr$ = 8						; size = 4
?_Inside@?$vector@UModeHelp@@V?$allocator@UModeHelp@@@std@@@std@@IBE_NPBUModeHelp@@@Z PROC ; std::vector<ModeHelp,std::allocator<ModeHelp> >::_Inside, COMDAT
; _this$ = ecx

; 1285 : 		{	// test if _Ptr points inside vector

  00000	55		 push	 ebp
  00001	8b ec		 mov	 ebp, esp

; 1286 : 		return (_Ptr < this->_Mylast && this->_Myfirst <= _Ptr);

  00003	8b 45 08	 mov	 eax, DWORD PTR __Ptr$[ebp]
  00006	3b 41 04	 cmp	 eax, DWORD PTR [ecx+4]
  00009	73 09		 jae	 SHORT $LN3@Inside@2
  0000b	39 01		 cmp	 DWORD PTR [ecx], eax
  0000d	77 05		 ja	 SHORT $LN3@Inside@2
  0000f	33 c0		 xor	 eax, eax
  00011	40		 inc	 eax
  00012	eb 02		 jmp	 SHORT $LN4@Inside@2
$LN3@Inside@2:
  00014	33 c0		 xor	 eax, eax
$LN4@Inside@2:

; 1287 : 		}

  00016	5d		 pop	 ebp
  00017	c2 04 00	 ret	 4
?_Inside@?$vector@UModeHelp@@V?$allocator@UModeHelp@@@std@@@std@@IBE_NPBUModeHelp@@@Z ENDP ; std::vector<ModeHelp,std::allocator<ModeHelp> >::_Inside
_TEXT	ENDS
PUBLIC	??_C@_0BD@OLBABOEK@vector?$DMT?$DO?5too?5long?$AA@ ; `string'
PUBLIC	?_Xlen@?$vector@UModeHelp@@V?$allocator@UModeHelp@@@std@@@std@@IBEXXZ ; std::vector<ModeHelp,std::allocator<ModeHelp> >::_Xlen
EXTRN	__imp_?_Xlength_error@std@@YAXPBD@Z:PROC
;	COMDAT ??_C@_0BD@OLBABOEK@vector?$DMT?$DO?5too?5long?$AA@
CONST	SEGMENT
??_C@_0BD@OLBABOEK@vector?$DMT?$DO?5too?5long?$AA@ DB 'vector<T> too long'
	DB	00H						; `string'
; Function compile flags: /Ogsp
CONST	ENDS
;	COMDAT ?_Xlen@?$vector@UModeHelp@@V?$allocator@UModeHelp@@@std@@@std@@IBEXXZ
_TEXT	SEGMENT
?_Xlen@?$vector@UModeHelp@@V?$allocator@UModeHelp@@@std@@@std@@IBEXXZ PROC ; std::vector<ModeHelp,std::allocator<ModeHelp> >::_Xlen, COMDAT
; _this$ = ecx

; 1427 : 		_Xlength_error("vector<T> too long");

  00000	68 00 00 00 00	 push	 OFFSET ??_C@_0BD@OLBABOEK@vector?$DMT?$DO?5too?5long?$AA@
  00005	ff 15 00 00 00
	00		 call	 DWORD PTR __imp_?_Xlength_error@std@@YAXPBD@Z
$LN4@Xlen:
$LN3@Xlen:
  0000b	cc		 int	 3
?_Xlen@?$vector@UModeHelp@@V?$allocator@UModeHelp@@@std@@@std@@IBEXXZ ENDP ; std::vector<ModeHelp,std::allocator<ModeHelp> >::_Xlen
_TEXT	ENDS
PUBLIC	?_Orphan_range@?$vector@UModeHelp@@V?$allocator@UModeHelp@@@std@@@std@@IBEXPAUModeHelp@@0@Z ; std::vector<ModeHelp,std::allocator<ModeHelp> >::_Orphan_range
; Function compile flags: /Ogsp
;	COMDAT ?_Orphan_range@?$vector@UModeHelp@@V?$allocator@UModeHelp@@@std@@@std@@IBEXPAUModeHelp@@0@Z
_TEXT	SEGMENT
___formal$ = 8						; size = 4
___formal$ = 12						; size = 4
?_Orphan_range@?$vector@UModeHelp@@V?$allocator@UModeHelp@@@std@@@std@@IBEXPAUModeHelp@@0@Z PROC ; std::vector<ModeHelp,std::allocator<ModeHelp> >::_Orphan_range, COMDAT
; _this$ = ecx

; 1454 : 		}

  00000	c2 08 00	 ret	 8
?_Orphan_range@?$vector@UModeHelp@@V?$allocator@UModeHelp@@@std@@@std@@IBEXPAUModeHelp@@0@Z ENDP ; std::vector<ModeHelp,std::allocator<ModeHelp> >::_Orphan_range
_TEXT	ENDS
PUBLIC	??1?$_Vector_val@UModeHelp@@V?$allocator@UModeHelp@@@std@@@std@@QAE@XZ ; std::_Vector_val<ModeHelp,std::allocator<ModeHelp> >::~_Vector_val<ModeHelp,std::allocator<ModeHelp> >
; Function compile flags: /Ogsp
;	COMDAT ??1?$_Vector_val@UModeHelp@@V?$allocator@UModeHelp@@@std@@@std@@QAE@XZ
_TEXT	SEGMENT
??1?$_Vector_val@UModeHelp@@V?$allocator@UModeHelp@@@std@@@std@@QAE@XZ PROC ; std::_Vector_val<ModeHelp,std::allocator<ModeHelp> >::~_Vector_val<ModeHelp,std::allocator<ModeHelp> >, COMDAT
; _this$ = ecx

; 434  : 		}

  00000	c3		 ret	 0
??1?$_Vector_val@UModeHelp@@V?$allocator@UModeHelp@@@std@@@std@@QAE@XZ ENDP ; std::_Vector_val<ModeHelp,std::allocator<ModeHelp> >::~_Vector_val<ModeHelp,std::allocator<ModeHelp> >
_TEXT	ENDS
PUBLIC	??0?$allocator@UModeHelp@@@std@@QAE@XZ		; std::allocator<ModeHelp>::allocator<ModeHelp>
; Function compile flags: /Ogsp
; File c:\program files (x86)\microsoft visual studio 10.0\vc\include\xmemory
;	COMDAT ??0?$allocator@UModeHelp@@@std@@QAE@XZ
_TEXT	SEGMENT
??0?$allocator@UModeHelp@@@std@@QAE@XZ PROC		; std::allocator<ModeHelp>::allocator<ModeHelp>, COMDAT
; _this$ = ecx

; 161  : 	_ALLOCATOR() _THROW0()

  00000	8b c1		 mov	 eax, ecx

; 162  : 		{	// construct default allocator (do nothing)
; 163  : 		}

  00002	c3		 ret	 0
??0?$allocator@UModeHelp@@@std@@QAE@XZ ENDP		; std::allocator<ModeHelp>::allocator<ModeHelp>
_TEXT	ENDS
PUBLIC	?deallocate@?$allocator@UModeHelp@@@std@@QAEXPAUModeHelp@@I@Z ; std::allocator<ModeHelp>::deallocate
; Function compile flags: /Ogsp
;	COMDAT ?deallocate@?$allocator@UModeHelp@@@std@@QAEXPAUModeHelp@@I@Z
_TEXT	SEGMENT
__Ptr$ = 8						; size = 4
___formal$ = 12						; size = 4
?deallocate@?$allocator@UModeHelp@@@std@@QAEXPAUModeHelp@@I@Z PROC ; std::allocator<ModeHelp>::deallocate, COMDAT
; _this$ = ecx

; 181  : 		{	// deallocate object at _Ptr, ignore size

  00000	55		 push	 ebp
  00001	8b ec		 mov	 ebp, esp

; 182  : 		::operator delete(_Ptr);

  00003	ff 75 08	 push	 DWORD PTR __Ptr$[ebp]
  00006	e8 00 00 00 00	 call	 ??3@YAXPAX@Z		; operator delete
  0000b	59		 pop	 ecx

; 183  : 		}

  0000c	5d		 pop	 ebp
  0000d	c2 08 00	 ret	 8
?deallocate@?$allocator@UModeHelp@@@std@@QAEXPAUModeHelp@@I@Z ENDP ; std::allocator<ModeHelp>::deallocate
_TEXT	ENDS
PUBLIC	?capacity@?$vector@UHelpText@@V?$allocator@UHelpText@@@std@@@std@@QBEIXZ ; std::vector<HelpText,std::allocator<HelpText> >::capacity
; Function compile flags: /Ogsp
; File c:\program files (x86)\microsoft visual studio 10.0\vc\include\vector
;	COMDAT ?capacity@?$vector@UHelpText@@V?$allocator@UHelpText@@@std@@@std@@QBEIXZ
_TEXT	SEGMENT
?capacity@?$vector@UHelpText@@V?$allocator@UHelpText@@@std@@@std@@QBEIXZ PROC ; std::vector<HelpText,std::allocator<HelpText> >::capacity, COMDAT
; _this$ = ecx

; 777  : 		return (this->_Myend - this->_Myfirst);

  00000	8b 41 08	 mov	 eax, DWORD PTR [ecx+8]
  00003	2b 01		 sub	 eax, DWORD PTR [ecx]
  00005	b9 18 02 00 00	 mov	 ecx, 536		; 00000218H
  0000a	99		 cdq
  0000b	f7 f9		 idiv	 ecx

; 778  : 		}

  0000d	c3		 ret	 0
?capacity@?$vector@UHelpText@@V?$allocator@UHelpText@@@std@@@std@@QBEIXZ ENDP ; std::vector<HelpText,std::allocator<HelpText> >::capacity
_TEXT	ENDS
PUBLIC	?_Xlen@?$vector@UHelpText@@V?$allocator@UHelpText@@@std@@@std@@IBEXXZ ; std::vector<HelpText,std::allocator<HelpText> >::_Xlen
; Function compile flags: /Ogsp
;	COMDAT ?_Xlen@?$vector@UHelpText@@V?$allocator@UHelpText@@@std@@@std@@IBEXXZ
_TEXT	SEGMENT
?_Xlen@?$vector@UHelpText@@V?$allocator@UHelpText@@@std@@@std@@IBEXXZ PROC ; std::vector<HelpText,std::allocator<HelpText> >::_Xlen, COMDAT
; _this$ = ecx

; 1427 : 		_Xlength_error("vector<T> too long");

  00000	68 00 00 00 00	 push	 OFFSET ??_C@_0BD@OLBABOEK@vector?$DMT?$DO?5too?5long?$AA@
  00005	ff 15 00 00 00
	00		 call	 DWORD PTR __imp_?_Xlength_error@std@@YAXPBD@Z
$LN4@Xlen@2:
$LN3@Xlen@2:
  0000b	cc		 int	 3
?_Xlen@?$vector@UHelpText@@V?$allocator@UHelpText@@@std@@@std@@IBEXXZ ENDP ; std::vector<HelpText,std::allocator<HelpText> >::_Xlen
_TEXT	ENDS
PUBLIC	??0?$allocator@UModeHelp@@@std@@QAE@ABV01@@Z	; std::allocator<ModeHelp>::allocator<ModeHelp>
; Function compile flags: /Ogsp
; File c:\program files (x86)\microsoft visual studio 10.0\vc\include\xmemory
;	COMDAT ??0?$allocator@UModeHelp@@@std@@QAE@ABV01@@Z
_TEXT	SEGMENT
___formal$ = 8						; size = 4
??0?$allocator@UModeHelp@@@std@@QAE@ABV01@@Z PROC	; std::allocator<ModeHelp>::allocator<ModeHelp>, COMDAT
; _this$ = ecx

; 165  : 	_ALLOCATOR(const _ALLOCATOR<_Ty>&) _THROW0()

  00000	8b c1		 mov	 eax, ecx

; 166  : 		{	// construct by copying (do nothing)
; 167  : 		}

  00002	c2 04 00	 ret	 4
??0?$allocator@UModeHelp@@@std@@QAE@ABV01@@Z ENDP	; std::allocator<ModeHelp>::allocator<ModeHelp>
_TEXT	ENDS
PUBLIC	?max_size@?$allocator@UModeHelp@@@std@@QBEIXZ	; std::allocator<ModeHelp>::max_size
; Function compile flags: /Ogsp
;	COMDAT ?max_size@?$allocator@UModeHelp@@@std@@QBEIXZ
_TEXT	SEGMENT
?max_size@?$allocator@UModeHelp@@@std@@QBEIXZ PROC	; std::allocator<ModeHelp>::max_size, COMDAT
; _this$ = ecx

; 218  : 		_SIZT _Count = (_SIZT)(-1) / sizeof (_Ty);
; 219  : 		return (0 < _Count ? _Count : 1);

  00000	b8 5d 74 d1 05	 mov	 eax, 97612893		; 05d1745dH

; 220  : 		}

  00005	c3		 ret	 0
?max_size@?$allocator@UModeHelp@@@std@@QBEIXZ ENDP	; std::allocator<ModeHelp>::max_size
_TEXT	ENDS
PUBLIC	?max_size@?$allocator@UHelpText@@@std@@QBEIXZ	; std::allocator<HelpText>::max_size
; Function compile flags: /Ogsp
;	COMDAT ?max_size@?$allocator@UHelpText@@@std@@QBEIXZ
_TEXT	SEGMENT
?max_size@?$allocator@UHelpText@@@std@@QBEIXZ PROC	; std::allocator<HelpText>::max_size, COMDAT
; _this$ = ecx

; 218  : 		_SIZT _Count = (_SIZT)(-1) / sizeof (_Ty);
; 219  : 		return (0 < _Count ? _Count : 1);

  00000	b8 c6 44 7a 00	 mov	 eax, 8012998		; 007a44c6H

; 220  : 		}

  00005	c3		 ret	 0
?max_size@?$allocator@UHelpText@@@std@@QBEIXZ ENDP	; std::allocator<HelpText>::max_size
_TEXT	ENDS
PUBLIC	??0?$_Vector_const_iterator@V?$_Vector_val@UModeHelp@@V?$allocator@UModeHelp@@@std@@@std@@@std@@QAE@PAUModeHelp@@PBU_Container_base0@1@@Z ; std::_Vector_const_iterator<std::_Vector_val<ModeHelp,std::allocator<ModeHelp> > >::_Vector_const_iterator<std::_Vector_val<ModeHelp,std::allocator<ModeHelp> > >
; Function compile flags: /Ogsp
; File c:\program files (x86)\microsoft visual studio 10.0\vc\include\vector
;	COMDAT ??0?$_Vector_const_iterator@V?$_Vector_val@UModeHelp@@V?$allocator@UModeHelp@@@std@@@std@@@std@@QAE@PAUModeHelp@@PBU_Container_base0@1@@Z
_TEXT	SEGMENT
__Parg$ = 8						; size = 4
__Pvector$ = 12						; size = 4
??0?$_Vector_const_iterator@V?$_Vector_val@UModeHelp@@V?$allocator@UModeHelp@@@std@@@std@@@std@@QAE@PAUModeHelp@@PBU_Container_base0@1@@Z PROC ; std::_Vector_const_iterator<std::_Vector_val<ModeHelp,std::allocator<ModeHelp> > >::_Vector_const_iterator<std::_Vector_val<ModeHelp,std::allocator<ModeHelp> > >, COMDAT
; _this$ = ecx

; 45   : 		{	// construct with pointer _Parg

  00000	55		 push	 ebp
  00001	8b ec		 mov	 ebp, esp
  00003	8b c1		 mov	 eax, ecx
  00005	8b 4d 08	 mov	 ecx, DWORD PTR __Parg$[ebp]
  00008	89 08		 mov	 DWORD PTR [eax], ecx

; 46   : 		this->_Adopt(_Pvector);
; 47   : 		}

  0000a	5d		 pop	 ebp
  0000b	c2 08 00	 ret	 8
??0?$_Vector_const_iterator@V?$_Vector_val@UModeHelp@@V?$allocator@UModeHelp@@@std@@@std@@@std@@QAE@PAUModeHelp@@PBU_Container_base0@1@@Z ENDP ; std::_Vector_const_iterator<std::_Vector_val<ModeHelp,std::allocator<ModeHelp> > >::_Vector_const_iterator<std::_Vector_val<ModeHelp,std::allocator<ModeHelp> > >
_TEXT	ENDS
PUBLIC	?_Compat@?$_Vector_const_iterator@V?$_Vector_val@UModeHelp@@V?$allocator@UModeHelp@@@std@@@std@@@std@@QBEXABV12@@Z ; std::_Vector_const_iterator<std::_Vector_val<ModeHelp,std::allocator<ModeHelp> > >::_Compat
; Function compile flags: /Ogsp
;	COMDAT ?_Compat@?$_Vector_const_iterator@V?$_Vector_val@UModeHelp@@V?$allocator@UModeHelp@@@std@@@std@@@std@@QBEXABV12@@Z
_TEXT	SEGMENT
___formal$ = 8						; size = 4
?_Compat@?$_Vector_const_iterator@V?$_Vector_val@UModeHelp@@V?$allocator@UModeHelp@@@std@@@std@@@std@@QBEXABV12@@Z PROC ; std::_Vector_const_iterator<std::_Vector_val<ModeHelp,std::allocator<ModeHelp> > >::_Compat, COMDAT
; _this$ = ecx

; 253  : 		}

  00000	c2 04 00	 ret	 4
?_Compat@?$_Vector_const_iterator@V?$_Vector_val@UModeHelp@@V?$allocator@UModeHelp@@@std@@@std@@@std@@QBEXABV12@@Z ENDP ; std::_Vector_const_iterator<std::_Vector_val<ModeHelp,std::allocator<ModeHelp> > >::_Compat
_TEXT	ENDS
PUBLIC	??$addressof@$$CBUHelpText@@@std@@YAPBUHelpText@@ABU1@@Z ; std::addressof<HelpText const >
; Function compile flags: /Ogsp
; File c:\program files (x86)\microsoft visual studio 10.0\vc\include\xmemory
;	COMDAT ??$addressof@$$CBUHelpText@@@std@@YAPBUHelpText@@ABU1@@Z
_TEXT	SEGMENT
__Val$ = 8						; size = 4
??$addressof@$$CBUHelpText@@@std@@YAPBUHelpText@@ABU1@@Z PROC ; std::addressof<HelpText const >, COMDAT

; 110  : 	{	// return address of _Val

  00000	55		 push	 ebp
  00001	8b ec		 mov	 ebp, esp

; 111  : 	return ((_Ty *) &(char&)_Val);

  00003	8b 45 08	 mov	 eax, DWORD PTR __Val$[ebp]

; 112  : 	}

  00006	5d		 pop	 ebp
  00007	c3		 ret	 0
??$addressof@$$CBUHelpText@@@std@@YAPBUHelpText@@ABU1@@Z ENDP ; std::addressof<HelpText const >
_TEXT	ENDS
PUBLIC	??$addressof@$$CBUModeHelp@@@std@@YAPBUModeHelp@@ABU1@@Z ; std::addressof<ModeHelp const >
; Function compile flags: /Ogsp
;	COMDAT ??$addressof@$$CBUModeHelp@@@std@@YAPBUModeHelp@@ABU1@@Z
_TEXT	SEGMENT
__Val$ = 8						; size = 4
??$addressof@$$CBUModeHelp@@@std@@YAPBUModeHelp@@ABU1@@Z PROC ; std::addressof<ModeHelp const >, COMDAT

; 110  : 	{	// return address of _Val

  00000	55		 push	 ebp
  00001	8b ec		 mov	 ebp, esp

; 111  : 	return ((_Ty *) &(char&)_Val);

  00003	8b 45 08	 mov	 eax, DWORD PTR __Val$[ebp]

; 112  : 	}

  00006	5d		 pop	 ebp
  00007	c3		 ret	 0
??$addressof@$$CBUModeHelp@@@std@@YAPBUModeHelp@@ABU1@@Z ENDP ; std::addressof<ModeHelp const >
_TEXT	ENDS
PUBLIC	__TI2?AVbad_alloc@std@@
PUBLIC	??$_Allocate@UModeHelp@@@std@@YAPAUModeHelp@@IPAU1@@Z ; std::_Allocate<ModeHelp>
PUBLIC	__CTA2?AVbad_alloc@std@@
PUBLIC	__CT??_R0?AVbad_alloc@std@@@8??0bad_alloc@std@@QAE@ABV01@@Z12
PUBLIC	??0bad_alloc@std@@QAE@ABV01@@Z			; std::bad_alloc::bad_alloc
PUBLIC	__CT??_R0?AVexception@std@@@8??0exception@std@@QAE@ABV01@@Z12
EXTRN	??2@YAPAXI@Z:PROC				; operator new
EXTRN	__CxxThrowException@8:PROC
EXTRN	??0exception@std@@QAE@ABV01@@Z:PROC		; std::exception::exception
;	COMDAT __CT??_R0?AVexception@std@@@8??0exception@std@@QAE@ABV01@@Z12
; File c:\program files (x86)\microsoft visual studio 10.0\vc\include\exception
xdata$x	SEGMENT
__CT??_R0?AVexception@std@@@8??0exception@std@@QAE@ABV01@@Z12 DD 00H
	DD	FLAT:??_R0?AVexception@std@@@8
	DD	00H
	DD	0ffffffffH
	ORG $+4
	DD	0cH
	DD	FLAT:??0exception@std@@QAE@ABV01@@Z
xdata$x	ENDS
;	COMDAT __CT??_R0?AVbad_alloc@std@@@8??0bad_alloc@std@@QAE@ABV01@@Z12
xdata$x	SEGMENT
__CT??_R0?AVbad_alloc@std@@@8??0bad_alloc@std@@QAE@ABV01@@Z12 DD 00H
	DD	FLAT:??_R0?AVbad_alloc@std@@@8
	DD	00H
	DD	0ffffffffH
	ORG $+4
	DD	0cH
	DD	FLAT:??0bad_alloc@std@@QAE@ABV01@@Z
xdata$x	ENDS
;	COMDAT __CTA2?AVbad_alloc@std@@
xdata$x	SEGMENT
__CTA2?AVbad_alloc@std@@ DD 02H
	DD	FLAT:__CT??_R0?AVbad_alloc@std@@@8??0bad_alloc@std@@QAE@ABV01@@Z12
	DD	FLAT:__CT??_R0?AVexception@std@@@8??0exception@std@@QAE@ABV01@@Z12
xdata$x	ENDS
;	COMDAT __TI2?AVbad_alloc@std@@
xdata$x	SEGMENT
__TI2?AVbad_alloc@std@@ DD 00H
	DD	FLAT:??1bad_alloc@std@@UAE@XZ
	DD	00H
	DD	FLAT:__CTA2?AVbad_alloc@std@@
; Function compile flags: /Ogsp
; File c:\program files (x86)\microsoft visual studio 10.0\vc\include\xmemory
xdata$x	ENDS
;	COMDAT ??$_Allocate@UModeHelp@@@std@@YAPAUModeHelp@@IPAU1@@Z
_TEXT	SEGMENT
$T527588 = -12						; size = 12
$T527593 = 8						; size = 4
__Count$ = 8						; size = 4
___formal$ = 12						; size = 4
??$_Allocate@UModeHelp@@@std@@YAPAUModeHelp@@IPAU1@@Z PROC ; std::_Allocate<ModeHelp>, COMDAT

; 30   : 	{	// allocate storage for _Count elements of type _Ty

  00000	55		 push	 ebp
  00001	8b ec		 mov	 ebp, esp

; 31   : 	void *_Ptr = 0;
; 32   : 
; 33   : 	if (_Count <= 0)

  00003	8b 4d 08	 mov	 ecx, DWORD PTR __Count$[ebp]
  00006	83 ec 0c	 sub	 esp, 12			; 0000000cH
  00009	33 c0		 xor	 eax, eax
  0000b	85 c9		 test	 ecx, ecx

; 34   : 		_Count = 0;
; 35   : 	else if (((_SIZT)(-1) / sizeof (_Ty) < _Count)

  0000d	74 3c		 je	 SHORT $LN5@Allocate

; 36   : 		|| (_Ptr = ::operator new(_Count * sizeof (_Ty))) == 0)

  0000f	81 f9 5d 74 d1
	05		 cmp	 ecx, 97612893		; 05d1745dH
  00015	77 0e		 ja	 SHORT $LN1@Allocate
  00017	6b c9 2c	 imul	 ecx, 44			; 0000002cH
  0001a	51		 push	 ecx
  0001b	e8 00 00 00 00	 call	 ??2@YAPAXI@Z		; operator new
  00020	59		 pop	 ecx
  00021	85 c0		 test	 eax, eax

; 38   : 
; 39   : 	return ((_Ty _FARQ *)_Ptr);

  00023	75 26		 jne	 SHORT $LN5@Allocate
$LN1@Allocate:

; 37   : 		_THROW_NCEE(bad_alloc, 0);

  00025	83 65 08 00	 and	 DWORD PTR $T527593[ebp], 0
  00029	8d 45 08	 lea	 eax, DWORD PTR $T527593[ebp]
  0002c	50		 push	 eax
  0002d	8d 4d f4	 lea	 ecx, DWORD PTR $T527588[ebp]
  00030	ff 15 00 00 00
	00		 call	 DWORD PTR __imp_??0exception@std@@QAE@ABQBD@Z
  00036	68 00 00 00 00	 push	 OFFSET __TI2?AVbad_alloc@std@@
  0003b	8d 45 f4	 lea	 eax, DWORD PTR $T527588[ebp]
  0003e	50		 push	 eax
  0003f	c7 45 f4 00 00
	00 00		 mov	 DWORD PTR $T527588[ebp], OFFSET ??_7bad_alloc@std@@6B@
  00046	e8 00 00 00 00	 call	 __CxxThrowException@8
$LN10@Allocate:
$LN5@Allocate:

; 40   : 	}

  0004b	c9		 leave
  0004c	c3		 ret	 0
$LN9@Allocate:
??$_Allocate@UModeHelp@@@std@@YAPAUModeHelp@@IPAU1@@Z ENDP ; std::_Allocate<ModeHelp>
_TEXT	ENDS
PUBLIC	??$_Allocate@UHelpText@@@std@@YAPAUHelpText@@IPAU1@@Z ; std::_Allocate<HelpText>
; Function compile flags: /Ogsp
;	COMDAT ??$_Allocate@UHelpText@@@std@@YAPAUHelpText@@IPAU1@@Z
_TEXT	SEGMENT
$T527598 = -12						; size = 12
$T527602 = 8						; size = 4
__Count$ = 8						; size = 4
___formal$ = 12						; size = 4
??$_Allocate@UHelpText@@@std@@YAPAUHelpText@@IPAU1@@Z PROC ; std::_Allocate<HelpText>, COMDAT

; 30   : 	{	// allocate storage for _Count elements of type _Ty

  00000	55		 push	 ebp
  00001	8b ec		 mov	 ebp, esp

; 31   : 	void *_Ptr = 0;
; 32   : 
; 33   : 	if (_Count <= 0)

  00003	8b 4d 08	 mov	 ecx, DWORD PTR __Count$[ebp]
  00006	83 ec 0c	 sub	 esp, 12			; 0000000cH
  00009	33 c0		 xor	 eax, eax
  0000b	85 c9		 test	 ecx, ecx

; 34   : 		_Count = 0;
; 35   : 	else if (((_SIZT)(-1) / sizeof (_Ty) < _Count)

  0000d	74 3f		 je	 SHORT $LN5@Allocate@2

; 36   : 		|| (_Ptr = ::operator new(_Count * sizeof (_Ty))) == 0)

  0000f	81 f9 c6 44 7a
	00		 cmp	 ecx, 8012998		; 007a44c6H
  00015	77 11		 ja	 SHORT $LN1@Allocate@2
  00017	69 c9 18 02 00
	00		 imul	 ecx, 536		; 00000218H
  0001d	51		 push	 ecx
  0001e	e8 00 00 00 00	 call	 ??2@YAPAXI@Z		; operator new
  00023	59		 pop	 ecx
  00024	85 c0		 test	 eax, eax

; 38   : 
; 39   : 	return ((_Ty _FARQ *)_Ptr);

  00026	75 26		 jne	 SHORT $LN5@Allocate@2
$LN1@Allocate@2:

; 37   : 		_THROW_NCEE(bad_alloc, 0);

  00028	83 65 08 00	 and	 DWORD PTR $T527602[ebp], 0
  0002c	8d 45 08	 lea	 eax, DWORD PTR $T527602[ebp]
  0002f	50		 push	 eax
  00030	8d 4d f4	 lea	 ecx, DWORD PTR $T527598[ebp]
  00033	ff 15 00 00 00
	00		 call	 DWORD PTR __imp_??0exception@std@@QAE@ABQBD@Z
  00039	68 00 00 00 00	 push	 OFFSET __TI2?AVbad_alloc@std@@
  0003e	8d 45 f4	 lea	 eax, DWORD PTR $T527598[ebp]
  00041	50		 push	 eax
  00042	c7 45 f4 00 00
	00 00		 mov	 DWORD PTR $T527598[ebp], OFFSET ??_7bad_alloc@std@@6B@
  00049	e8 00 00 00 00	 call	 __CxxThrowException@8
$LN10@Allocate@2:
$LN5@Allocate@2:

; 40   : 	}

  0004e	c9		 leave
  0004f	c3		 ret	 0
$LN9@Allocate@2:
??$_Allocate@UHelpText@@@std@@YAPAUHelpText@@IPAU1@@Z ENDP ; std::_Allocate<HelpText>
_TEXT	ENDS
PUBLIC	??$forward@AAUHelpText@@@std@@YAAAUHelpText@@AAU1@@Z ; std::forward<HelpText &>
; Function compile flags: /Ogsp
; File c:\program files (x86)\microsoft visual studio 10.0\vc\include\utility
;	COMDAT ??$forward@AAUHelpText@@@std@@YAAAUHelpText@@AAU1@@Z
_TEXT	SEGMENT
__Arg$ = 8						; size = 4
??$forward@AAUHelpText@@@std@@YAAAUHelpText@@AAU1@@Z PROC ; std::forward<HelpText &>, COMDAT

; 78   : 	{	// forward _Arg, given explicitly specified type parameter

  00000	55		 push	 ebp
  00001	8b ec		 mov	 ebp, esp

; 79   : 	return ((_Ty&&)_Arg);

  00003	8b 45 08	 mov	 eax, DWORD PTR __Arg$[ebp]

; 80   : 	}

  00006	5d		 pop	 ebp
  00007	c3		 ret	 0
??$forward@AAUHelpText@@@std@@YAAAUHelpText@@AAU1@@Z ENDP ; std::forward<HelpText &>
_TEXT	ENDS
PUBLIC	??$construct@AAUHelpText@@@?$allocator@UHelpText@@@std@@QAEXPAUHelpText@@AAU2@@Z ; std::allocator<HelpText>::construct<HelpText &>
; Function compile flags: /Ogsp
; File c:\program files (x86)\microsoft visual studio 10.0\vc\include\xmemory
;	COMDAT ??$construct@AAUHelpText@@@?$allocator@UHelpText@@@std@@QAEXPAUHelpText@@AAU2@@Z
_TEXT	SEGMENT
__Ptr$ = 8						; size = 4
__Val$ = 12						; size = 4
??$construct@AAUHelpText@@@?$allocator@UHelpText@@@std@@QAEXPAUHelpText@@AAU2@@Z PROC ; std::allocator<HelpText>::construct<HelpText &>, COMDAT
; _this$ = ecx

; 206  : 		void construct(pointer _Ptr, _Other&& _Val)

  00000	55		 push	 ebp
  00001	8b ec		 mov	 ebp, esp
  00003	57		 push	 edi

; 207  : 		{	// construct object at _Ptr with value _Val
; 208  : 		::new ((void _FARQ *)_Ptr) _Ty(_STD forward<_Other>(_Val));

  00004	8b 7d 08	 mov	 edi, DWORD PTR __Ptr$[ebp]
  00007	85 ff		 test	 edi, edi
  00009	74 0c		 je	 SHORT $LN3@construct
  0000b	56		 push	 esi
  0000c	8b 75 0c	 mov	 esi, DWORD PTR __Val$[ebp]
  0000f	b9 86 00 00 00	 mov	 ecx, 134		; 00000086H
  00014	f3 a5		 rep movsd
  00016	5e		 pop	 esi
$LN3@construct:
  00017	5f		 pop	 edi

; 209  : 		}

  00018	5d		 pop	 ebp
  00019	c2 08 00	 ret	 8
??$construct@AAUHelpText@@@?$allocator@UHelpText@@@std@@QAEXPAUHelpText@@AAU2@@Z ENDP ; std::allocator<HelpText>::construct<HelpText &>
_TEXT	ENDS
PUBLIC	??$forward@ABUHelpText@@@std@@YAABUHelpText@@ABU1@@Z ; std::forward<HelpText const &>
; Function compile flags: /Ogsp
; File c:\program files (x86)\microsoft visual studio 10.0\vc\include\utility
;	COMDAT ??$forward@ABUHelpText@@@std@@YAABUHelpText@@ABU1@@Z
_TEXT	SEGMENT
__Arg$ = 8						; size = 4
??$forward@ABUHelpText@@@std@@YAABUHelpText@@ABU1@@Z PROC ; std::forward<HelpText const &>, COMDAT

; 78   : 	{	// forward _Arg, given explicitly specified type parameter

  00000	55		 push	 ebp
  00001	8b ec		 mov	 ebp, esp

; 79   : 	return ((_Ty&&)_Arg);

  00003	8b 45 08	 mov	 eax, DWORD PTR __Arg$[ebp]

; 80   : 	}

  00006	5d		 pop	 ebp
  00007	c3		 ret	 0
??$forward@ABUHelpText@@@std@@YAABUHelpText@@ABU1@@Z ENDP ; std::forward<HelpText const &>
_TEXT	ENDS
PUBLIC	??$forward@AAUModeHelp@@@std@@YAAAUModeHelp@@AAU1@@Z ; std::forward<ModeHelp &>
; Function compile flags: /Ogsp
;	COMDAT ??$forward@AAUModeHelp@@@std@@YAAAUModeHelp@@AAU1@@Z
_TEXT	SEGMENT
__Arg$ = 8						; size = 4
??$forward@AAUModeHelp@@@std@@YAAAUModeHelp@@AAU1@@Z PROC ; std::forward<ModeHelp &>, COMDAT

; 78   : 	{	// forward _Arg, given explicitly specified type parameter

  00000	55		 push	 ebp
  00001	8b ec		 mov	 ebp, esp

; 79   : 	return ((_Ty&&)_Arg);

  00003	8b 45 08	 mov	 eax, DWORD PTR __Arg$[ebp]

; 80   : 	}

  00006	5d		 pop	 ebp
  00007	c3		 ret	 0
??$forward@AAUModeHelp@@@std@@YAAAUModeHelp@@AAU1@@Z ENDP ; std::forward<ModeHelp &>
_TEXT	ENDS
PUBLIC	??$forward@ABUModeHelp@@@std@@YAABUModeHelp@@ABU1@@Z ; std::forward<ModeHelp const &>
; Function compile flags: /Ogsp
;	COMDAT ??$forward@ABUModeHelp@@@std@@YAABUModeHelp@@ABU1@@Z
_TEXT	SEGMENT
__Arg$ = 8						; size = 4
??$forward@ABUModeHelp@@@std@@YAABUModeHelp@@ABU1@@Z PROC ; std::forward<ModeHelp const &>, COMDAT

; 78   : 	{	// forward _Arg, given explicitly specified type parameter

  00000	55		 push	 ebp
  00001	8b ec		 mov	 ebp, esp

; 79   : 	return ((_Ty&&)_Arg);

  00003	8b 45 08	 mov	 eax, DWORD PTR __Arg$[ebp]

; 80   : 	}

  00006	5d		 pop	 ebp
  00007	c3		 ret	 0
??$forward@ABUModeHelp@@@std@@YAABUModeHelp@@ABU1@@Z ENDP ; std::forward<ModeHelp const &>
_TEXT	ENDS
PUBLIC	??$_Ptr_cat@UModeHelp@@U1@@std@@YA?AU_Nonscalar_ptr_iterator_tag@0@PAUModeHelp@@0@Z ; std::_Ptr_cat<ModeHelp,ModeHelp>
; Function compile flags: /Ogsp
; File c:\program files (x86)\microsoft visual studio 10.0\vc\include\xutility
;	COMDAT ??$_Ptr_cat@UModeHelp@@U1@@std@@YA?AU_Nonscalar_ptr_iterator_tag@0@PAUModeHelp@@0@Z
_TEXT	SEGMENT
__Cat$ = -1						; size = 1
___formal$ = 8						; size = 4
___formal$ = 12						; size = 4
??$_Ptr_cat@UModeHelp@@U1@@std@@YA?AU_Nonscalar_ptr_iterator_tag@0@PAUModeHelp@@0@Z PROC ; std::_Ptr_cat<ModeHelp,ModeHelp>, COMDAT

; 516  : 	{	// return pointer category from pointers

  00000	55		 push	 ebp
  00001	8b ec		 mov	 ebp, esp
  00003	51		 push	 ecx

; 517  : 	typename _Ptr_cat_helper<_Elem1, _Elem2>::_Type _Cat;
; 518  : 	return (_Cat);

  00004	8a 45 ff	 mov	 al, BYTE PTR __Cat$[ebp]

; 519  : 	}

  00007	c9		 leave
  00008	c3		 ret	 0
??$_Ptr_cat@UModeHelp@@U1@@std@@YA?AU_Nonscalar_ptr_iterator_tag@0@PAUModeHelp@@0@Z ENDP ; std::_Ptr_cat<ModeHelp,ModeHelp>
_TEXT	ENDS
PUBLIC	??$_Construct@UHelpText@@ABU1@@std@@YAXPAUHelpText@@ABU1@@Z ; std::_Construct<HelpText,HelpText const &>
; Function compile flags: /Ogsp
; File c:\program files (x86)\microsoft visual studio 10.0\vc\include\xmemory
;	COMDAT ??$_Construct@UHelpText@@ABU1@@std@@YAXPAUHelpText@@ABU1@@Z
_TEXT	SEGMENT
__Ptr$ = 8						; size = 4
__Val$ = 12						; size = 4
??$_Construct@UHelpText@@ABU1@@std@@YAXPAUHelpText@@ABU1@@Z PROC ; std::_Construct<HelpText,HelpText const &>, COMDAT

; 46   : 	{	// construct object at _Ptr with value _Val

  00000	55		 push	 ebp
  00001	8b ec		 mov	 ebp, esp
  00003	57		 push	 edi

; 47   : 	void _FARQ *_Vptr = _Ptr;
; 48   : 	::new (_Vptr) _Ty1(_STD forward<_Ty2>(_Val));

  00004	8b 7d 08	 mov	 edi, DWORD PTR __Ptr$[ebp]
  00007	85 ff		 test	 edi, edi
  00009	74 0c		 je	 SHORT $LN3@Construct
  0000b	56		 push	 esi
  0000c	8b 75 0c	 mov	 esi, DWORD PTR __Val$[ebp]
  0000f	b9 86 00 00 00	 mov	 ecx, 134		; 00000086H
  00014	f3 a5		 rep movsd
  00016	5e		 pop	 esi
$LN3@Construct:
  00017	5f		 pop	 edi

; 49   : 	}

  00018	5d		 pop	 ebp
  00019	c3		 ret	 0
??$_Construct@UHelpText@@ABU1@@std@@YAXPAUHelpText@@ABU1@@Z ENDP ; std::_Construct<HelpText,HelpText const &>
_TEXT	ENDS
PUBLIC	??$_Val_type@PAUModeHelp@@@std@@YAPAUModeHelp@@PAU1@@Z ; std::_Val_type<ModeHelp *>
; Function compile flags: /Ogsp
; File c:\program files (x86)\microsoft visual studio 10.0\vc\include\xutility
;	COMDAT ??$_Val_type@PAUModeHelp@@@std@@YAPAUModeHelp@@PAU1@@Z
_TEXT	SEGMENT
___formal$ = 8						; size = 4
??$_Val_type@PAUModeHelp@@@std@@YAPAUModeHelp@@PAU1@@Z PROC ; std::_Val_type<ModeHelp *>, COMDAT

; 790  : 	return (0);

  00000	33 c0		 xor	 eax, eax

; 791  : 	}

  00002	c3		 ret	 0
??$_Val_type@PAUModeHelp@@@std@@YAPAUModeHelp@@PAU1@@Z ENDP ; std::_Val_type<ModeHelp *>
_TEXT	ENDS
PUBLIC	??$move@AAUModeHelp@@@std@@YA$$QAUModeHelp@@AAU1@@Z ; std::move<ModeHelp &>
; Function compile flags: /Ogsp
; File c:\program files (x86)\microsoft visual studio 10.0\vc\include\utility
;	COMDAT ??$move@AAUModeHelp@@@std@@YA$$QAUModeHelp@@AAU1@@Z
_TEXT	SEGMENT
__Arg$ = 8						; size = 4
??$move@AAUModeHelp@@@std@@YA$$QAUModeHelp@@AAU1@@Z PROC ; std::move<ModeHelp &>, COMDAT

; 86   : 	{	// forward _Arg as movable

  00000	55		 push	 ebp
  00001	8b ec		 mov	 ebp, esp

; 87   : 	return ((typename tr1::_Remove_reference<_Ty>::_Type&&)_Arg);

  00003	8b 45 08	 mov	 eax, DWORD PTR __Arg$[ebp]

; 88   : 	}

  00006	5d		 pop	 ebp
  00007	c3		 ret	 0
??$move@AAUModeHelp@@@std@@YA$$QAUModeHelp@@AAU1@@Z ENDP ; std::move<ModeHelp &>
_TEXT	ENDS
PUBLIC	??$_Val_type@PAUHelpText@@@std@@YAPAUHelpText@@PAU1@@Z ; std::_Val_type<HelpText *>
; Function compile flags: /Ogsp
; File c:\program files (x86)\microsoft visual studio 10.0\vc\include\xutility
;	COMDAT ??$_Val_type@PAUHelpText@@@std@@YAPAUHelpText@@PAU1@@Z
_TEXT	SEGMENT
___formal$ = 8						; size = 4
??$_Val_type@PAUHelpText@@@std@@YAPAUHelpText@@PAU1@@Z PROC ; std::_Val_type<HelpText *>, COMDAT

; 790  : 	return (0);

  00000	33 c0		 xor	 eax, eax

; 791  : 	}

  00002	c3		 ret	 0
??$_Val_type@PAUHelpText@@@std@@YAPAUHelpText@@PAU1@@Z ENDP ; std::_Val_type<HelpText *>
_TEXT	ENDS
PUBLIC	??$_Copy_impl@PAUHelpText@@PAU1@@std@@YAPAUHelpText@@PAU1@00U_Nonscalar_ptr_iterator_tag@0@@Z ; std::_Copy_impl<HelpText *,HelpText *>
; Function compile flags: /Ogsp
;	COMDAT ??$_Copy_impl@PAUHelpText@@PAU1@@std@@YAPAUHelpText@@PAU1@00U_Nonscalar_ptr_iterator_tag@0@@Z
_TEXT	SEGMENT
__First$ = 8						; size = 4
__Last$ = 12						; size = 4
__Dest$ = 16						; size = 4
___formal$ = 20						; size = 1
??$_Copy_impl@PAUHelpText@@PAU1@@std@@YAPAUHelpText@@PAU1@00U_Nonscalar_ptr_iterator_tag@0@@Z PROC ; std::_Copy_impl<HelpText *,HelpText *>, COMDAT

; 2142 : 	{	// copy [_First, _Last) to [_Dest, ...), arbitrary iterators

  00000	55		 push	 ebp
  00001	8b ec		 mov	 ebp, esp

; 2143 : 	for (; _First != _Last; ++_Dest, ++_First)

  00003	8b 55 08	 mov	 edx, DWORD PTR __First$[ebp]
  00006	3b 55 0c	 cmp	 edx, DWORD PTR __Last$[ebp]
  00009	74 1f		 je	 SHORT $LN8@Copy_impl
  0000b	56		 push	 esi
  0000c	b8 18 02 00 00	 mov	 eax, 536		; 00000218H
  00011	57		 push	 edi
$LL3@Copy_impl:

; 2144 : 		*_Dest = *_First;

  00012	8b 7d 10	 mov	 edi, DWORD PTR __Dest$[ebp]
  00015	01 45 10	 add	 DWORD PTR __Dest$[ebp], eax
  00018	8b f2		 mov	 esi, edx
  0001a	03 d0		 add	 edx, eax
  0001c	b9 86 00 00 00	 mov	 ecx, 134		; 00000086H
  00021	f3 a5		 rep movsd
  00023	3b 55 0c	 cmp	 edx, DWORD PTR __Last$[ebp]
  00026	75 ea		 jne	 SHORT $LL3@Copy_impl
  00028	5f		 pop	 edi
  00029	5e		 pop	 esi
$LN8@Copy_impl:

; 2145 : 	return (_Dest);

  0002a	8b 45 10	 mov	 eax, DWORD PTR __Dest$[ebp]

; 2146 : 	}

  0002d	5d		 pop	 ebp
  0002e	c3		 ret	 0
??$_Copy_impl@PAUHelpText@@PAU1@@std@@YAPAUHelpText@@PAU1@00U_Nonscalar_ptr_iterator_tag@0@@Z ENDP ; std::_Copy_impl<HelpText *,HelpText *>
_TEXT	ENDS
PUBLIC	??$forward@UModeHelp@@@std@@YA$$QAUModeHelp@@AAU1@@Z ; std::forward<ModeHelp>
; Function compile flags: /Ogsp
; File c:\program files (x86)\microsoft visual studio 10.0\vc\include\utility
;	COMDAT ??$forward@UModeHelp@@@std@@YA$$QAUModeHelp@@AAU1@@Z
_TEXT	SEGMENT
__Arg$ = 8						; size = 4
??$forward@UModeHelp@@@std@@YA$$QAUModeHelp@@AAU1@@Z PROC ; std::forward<ModeHelp>, COMDAT

; 78   : 	{	// forward _Arg, given explicitly specified type parameter

  00000	55		 push	 ebp
  00001	8b ec		 mov	 ebp, esp

; 79   : 	return ((_Ty&&)_Arg);

  00003	8b 45 08	 mov	 eax, DWORD PTR __Arg$[ebp]

; 80   : 	}

  00006	5d		 pop	 ebp
  00007	c3		 ret	 0
??$forward@UModeHelp@@@std@@YA$$QAUModeHelp@@AAU1@@Z ENDP ; std::forward<ModeHelp>
_TEXT	ENDS
PUBLIC	??$forward@UHelpText@@@std@@YA$$QAUHelpText@@AAU1@@Z ; std::forward<HelpText>
; Function compile flags: /Ogsp
;	COMDAT ??$forward@UHelpText@@@std@@YA$$QAUHelpText@@AAU1@@Z
_TEXT	SEGMENT
__Arg$ = 8						; size = 4
??$forward@UHelpText@@@std@@YA$$QAUHelpText@@AAU1@@Z PROC ; std::forward<HelpText>, COMDAT

; 78   : 	{	// forward _Arg, given explicitly specified type parameter

  00000	55		 push	 ebp
  00001	8b ec		 mov	 ebp, esp

; 79   : 	return ((_Ty&&)_Arg);

  00003	8b 45 08	 mov	 eax, DWORD PTR __Arg$[ebp]

; 80   : 	}

  00006	5d		 pop	 ebp
  00007	c3		 ret	 0
??$forward@UHelpText@@@std@@YA$$QAUHelpText@@AAU1@@Z ENDP ; std::forward<HelpText>
_TEXT	ENDS
PUBLIC	??$_Ptr_cat@V?$_Vector_const_iterator@V?$_Vector_val@UHelpText@@V?$allocator@UHelpText@@@std@@@std@@@std@@PAUHelpText@@@std@@YA?AU_Nonscalar_ptr_iterator_tag@0@AAV?$_Vector_const_iterator@V?$_Vector_val@UHelpText@@V?$allocator@UHelpText@@@std@@@std@@@0@AAPAUHelpText@@@Z ; std::_Ptr_cat<std::_Vector_const_iterator<std::_Vector_val<HelpText,std::allocator<HelpText> > >,HelpText *>
; Function compile flags: /Ogsp
; File c:\program files (x86)\microsoft visual studio 10.0\vc\include\xutility
;	COMDAT ??$_Ptr_cat@V?$_Vector_const_iterator@V?$_Vector_val@UHelpText@@V?$allocator@UHelpText@@@std@@@std@@@std@@PAUHelpText@@@std@@YA?AU_Nonscalar_ptr_iterator_tag@0@AAV?$_Vector_const_iterator@V?$_Vector_val@UHelpText@@V?$allocator@UHelpText@@@std@@@std@@@0@AAPAUHelpText@@@Z
_TEXT	SEGMENT
__Cat$ = -1						; size = 1
___formal$ = 8						; size = 4
___formal$ = 12						; size = 4
??$_Ptr_cat@V?$_Vector_const_iterator@V?$_Vector_val@UHelpText@@V?$allocator@UHelpText@@@std@@@std@@@std@@PAUHelpText@@@std@@YA?AU_Nonscalar_ptr_iterator_tag@0@AAV?$_Vector_const_iterator@V?$_Vector_val@UHelpText@@V?$allocator@UHelpText@@@std@@@std@@@0@AAPAUHelpText@@@Z PROC ; std::_Ptr_cat<std::_Vector_const_iterator<std::_Vector_val<HelpText,std::allocator<HelpText> > >,HelpText *>, COMDAT

; 485  : 	{	// return pointer category from arbitrary arguments

  00000	55		 push	 ebp
  00001	8b ec		 mov	 ebp, esp
  00003	51		 push	 ecx

; 486  : 	_Nonscalar_ptr_iterator_tag _Cat;
; 487  : 	return (_Cat);

  00004	8a 45 ff	 mov	 al, BYTE PTR __Cat$[ebp]

; 488  : 	}

  00007	c9		 leave
  00008	c3		 ret	 0
??$_Ptr_cat@V?$_Vector_const_iterator@V?$_Vector_val@UHelpText@@V?$allocator@UHelpText@@@std@@@std@@@std@@PAUHelpText@@@std@@YA?AU_Nonscalar_ptr_iterator_tag@0@AAV?$_Vector_const_iterator@V?$_Vector_val@UHelpText@@V?$allocator@UHelpText@@@std@@@std@@@0@AAPAUHelpText@@@Z ENDP ; std::_Ptr_cat<std::_Vector_const_iterator<std::_Vector_val<HelpText,std::allocator<HelpText> > >,HelpText *>
_TEXT	ENDS
PUBLIC	??D?$_Vector_const_iterator@V?$_Vector_val@UHelpText@@V?$allocator@UHelpText@@@std@@@std@@@std@@QBEABUHelpText@@XZ ; std::_Vector_const_iterator<std::_Vector_val<HelpText,std::allocator<HelpText> > >::operator*
; Function compile flags: /Ogsp
; File c:\program files (x86)\microsoft visual studio 10.0\vc\include\vector
;	COMDAT ??D?$_Vector_const_iterator@V?$_Vector_val@UHelpText@@V?$allocator@UHelpText@@@std@@@std@@@std@@QBEABUHelpText@@XZ
_TEXT	SEGMENT
??D?$_Vector_const_iterator@V?$_Vector_val@UHelpText@@V?$allocator@UHelpText@@@std@@@std@@@std@@QBEABUHelpText@@XZ PROC ; std::_Vector_const_iterator<std::_Vector_val<HelpText,std::allocator<HelpText> > >::operator*, COMDAT
; _this$ = ecx

; 64   :  #if _ITERATOR_DEBUG_LEVEL == 2
; 65   : 		if (this->_Getcont() == 0
; 66   : 			|| this->_Ptr == 0
; 67   : 			|| this->_Ptr < ((_Myvec *)this->_Getcont())->_Myfirst
; 68   : 			|| ((_Myvec *)this->_Getcont())->_Mylast <= this->_Ptr)
; 69   : 			{	// report error
; 70   : 			_DEBUG_ERROR("vector iterator not dereferencable");
; 71   : 			_SCL_SECURE_OUT_OF_RANGE;
; 72   : 			}
; 73   : 
; 74   :  #elif _ITERATOR_DEBUG_LEVEL == 1
; 75   : 		_SCL_SECURE_VALIDATE(this->_Getcont() != 0);
; 76   : 		_SCL_SECURE_VALIDATE_RANGE(
; 77   : 			this->_Ptr != 0
; 78   : 			&& ((_Myvec *)this->_Getcont())->_Myfirst <= this->_Ptr
; 79   : 			&& this->_Ptr < ((_Myvec *)this->_Getcont())->_Mylast);
; 80   :  #endif /* _ITERATOR_DEBUG_LEVEL */
; 81   : 
; 82   : 		__analysis_assume(this->_Ptr != 0);
; 83   : 
; 84   : 		return (*this->_Ptr);

  00000	8b 01		 mov	 eax, DWORD PTR [ecx]

; 85   : 		}

  00002	c3		 ret	 0
??D?$_Vector_const_iterator@V?$_Vector_val@UHelpText@@V?$allocator@UHelpText@@@std@@@std@@@std@@QBEABUHelpText@@XZ ENDP ; std::_Vector_const_iterator<std::_Vector_val<HelpText,std::allocator<HelpText> > >::operator*
_TEXT	ENDS
PUBLIC	??E?$_Vector_const_iterator@V?$_Vector_val@UHelpText@@V?$allocator@UHelpText@@@std@@@std@@@std@@QAEAAV01@XZ ; std::_Vector_const_iterator<std::_Vector_val<HelpText,std::allocator<HelpText> > >::operator++
; Function compile flags: /Ogsp
;	COMDAT ??E?$_Vector_const_iterator@V?$_Vector_val@UHelpText@@V?$allocator@UHelpText@@@std@@@std@@@std@@QAEAAV01@XZ
_TEXT	SEGMENT
??E?$_Vector_const_iterator@V?$_Vector_val@UHelpText@@V?$allocator@UHelpText@@@std@@@std@@@std@@QAEAAV01@XZ PROC ; std::_Vector_const_iterator<std::_Vector_val<HelpText,std::allocator<HelpText> > >::operator++, COMDAT
; _this$ = ecx

; 93   : 		{	// preincrement

  00000	8b c1		 mov	 eax, ecx

; 94   :  #if _ITERATOR_DEBUG_LEVEL == 2
; 95   : 		if (this->_Getcont() == 0
; 96   : 			|| this->_Ptr == 0
; 97   : 			|| ((_Myvec *)this->_Getcont())->_Mylast <= this->_Ptr)
; 98   : 			{	// report error
; 99   : 			_DEBUG_ERROR("vector iterator not incrementable");
; 100  : 			_SCL_SECURE_OUT_OF_RANGE;
; 101  : 			}
; 102  : 
; 103  :  #elif _ITERATOR_DEBUG_LEVEL == 1
; 104  : 		_SCL_SECURE_VALIDATE(this->_Getcont() != 0);
; 105  : 		_SCL_SECURE_VALIDATE_RANGE(
; 106  : 			this->_Ptr != 0
; 107  : 			&& this->_Ptr < ((_Myvec *)this->_Getcont())->_Mylast);
; 108  :  #endif /* _ITERATOR_DEBUG_LEVEL */
; 109  : 
; 110  : 		++this->_Ptr;

  00002	81 00 18 02 00
	00		 add	 DWORD PTR [eax], 536	; 00000218H

; 111  : 		return (*this);
; 112  : 		}

  00008	c3		 ret	 0
??E?$_Vector_const_iterator@V?$_Vector_val@UHelpText@@V?$allocator@UHelpText@@@std@@@std@@@std@@QAEAAV01@XZ ENDP ; std::_Vector_const_iterator<std::_Vector_val<HelpText,std::allocator<HelpText> > >::operator++
; Function compile flags: /Ogsp
; File c:\program files (x86)\microsoft sdks\windows\v7.0a\include\strsafe.h
_TEXT	ENDS
;	COMDAT ?StringValidateDestA@@YGJPBDII@Z
_TEXT	SEGMENT
_cchMax$ = 8						; size = 4
?StringValidateDestA@@YGJPBDII@Z PROC			; StringValidateDestA, COMDAT
; _cchDest$ = ecx

; 8721 : {

  00000	55		 push	 ebp
  00001	8b ec		 mov	 ebp, esp

; 8722 :     HRESULT hr = S_OK;

  00003	33 c0		 xor	 eax, eax

; 8723 : 
; 8724 :     if ((cchDest == 0) || (cchDest > cchMax))

  00005	85 c9		 test	 ecx, ecx
  00007	74 05		 je	 SHORT $LN1@StringVali
  00009	3b 4d 08	 cmp	 ecx, DWORD PTR _cchMax$[ebp]
  0000c	76 05		 jbe	 SHORT $LN2@StringVali
$LN1@StringVali:

; 8725 :     {
; 8726 :         hr = STRSAFE_E_INVALID_PARAMETER;

  0000e	b8 57 00 07 80	 mov	 eax, -2147024809	; 80070057H
$LN2@StringVali:

; 8727 :     }
; 8728 : 
; 8729 :     return hr;
; 8730 : }

  00013	5d		 pop	 ebp
  00014	c2 04 00	 ret	 4
?StringValidateDestA@@YGJPBDII@Z ENDP			; StringValidateDestA
; Function compile flags: /Ogsp
_TEXT	ENDS
;	COMDAT ?StringCopyWorkerA@@YGJPADIPAIPBDI@Z
_TEXT	SEGMENT
_hr$ = -4						; size = 4
_pcchNewDestLength$ = 8					; size = 4
_pszSrc$ = 12						; size = 4
_cchToCopy$ = 16					; size = 4
?StringCopyWorkerA@@YGJPADIPAIPBDI@Z PROC		; StringCopyWorkerA, COMDAT
; _pszDest$ = ecx
; _cchDest$ = eax

; 8947 : {

  00000	55		 push	 ebp
  00001	8b ec		 mov	 ebp, esp
  00003	51		 push	 ecx

; 8948 :     HRESULT hr = S_OK;

  00004	83 65 fc 00	 and	 DWORD PTR _hr$[ebp], 0
  00008	57		 push	 edi
  00009	8b f8		 mov	 edi, eax

; 8949 :     size_t cchNewDestLength = 0;

  0000b	33 c0		 xor	 eax, eax

; 8950 :     
; 8951 :     // ASSERT(cchDest != 0);
; 8952 : 
; 8953 :     while (cchDest && cchToCopy && (*pszSrc != '\0'))

  0000d	85 ff		 test	 edi, edi
  0000f	74 23		 je	 SHORT $LN9@StringCopy

; 8948 :     HRESULT hr = S_OK;

  00011	53		 push	 ebx
  00012	8b 5d 10	 mov	 ebx, DWORD PTR _cchToCopy$[ebp]
  00015	56		 push	 esi

; 8950 :     
; 8951 :     // ASSERT(cchDest != 0);
; 8952 : 
; 8953 :     while (cchDest && cchToCopy && (*pszSrc != '\0'))

  00016	8b 75 0c	 mov	 esi, DWORD PTR _pszSrc$[ebp]
  00019	2b f1		 sub	 esi, ecx
$LL4@StringCopy:
  0001b	85 db		 test	 ebx, ebx
  0001d	74 0f		 je	 SHORT $LN11@StringCopy
  0001f	8a 14 0e	 mov	 dl, BYTE PTR [esi+ecx]
  00022	84 d2		 test	 dl, dl
  00024	74 08		 je	 SHORT $LN11@StringCopy

; 8954 :     {
; 8955 :         *pszDest++ = *pszSrc++;

  00026	88 11		 mov	 BYTE PTR [ecx], dl
  00028	41		 inc	 ecx

; 8956 :         cchDest--;

  00029	4b		 dec	 ebx

; 8957 :         cchToCopy--;
; 8958 : 
; 8959 :         cchNewDestLength++;

  0002a	40		 inc	 eax
  0002b	4f		 dec	 edi
  0002c	75 ed		 jne	 SHORT $LL4@StringCopy
$LN11@StringCopy:
  0002e	5e		 pop	 esi
  0002f	5b		 pop	 ebx

; 8960 :     }
; 8961 : 
; 8962 :     if (cchDest == 0)

  00030	85 ff		 test	 edi, edi
  00032	75 09		 jne	 SHORT $LN2@StringCopy
$LN9@StringCopy:

; 8963 :     {
; 8964 :         // we are going to truncate pszDest
; 8965 :         pszDest--;

  00034	49		 dec	 ecx

; 8966 :         cchNewDestLength--;

  00035	48		 dec	 eax

; 8967 : 
; 8968 :         hr = STRSAFE_E_INSUFFICIENT_BUFFER;

  00036	c7 45 fc 7a 00
	07 80		 mov	 DWORD PTR _hr$[ebp], -2147024774 ; 8007007aH
$LN2@StringCopy:

; 8969 :     }
; 8970 : 
; 8971 :     *pszDest = '\0';

  0003d	c6 01 00	 mov	 BYTE PTR [ecx], 0

; 8972 : 
; 8973 :     if (pcchNewDestLength)

  00040	8b 4d 08	 mov	 ecx, DWORD PTR _pcchNewDestLength$[ebp]
  00043	5f		 pop	 edi
  00044	85 c9		 test	 ecx, ecx
  00046	74 02		 je	 SHORT $LN1@StringCopy

; 8974 :     {
; 8975 :         *pcchNewDestLength = cchNewDestLength;

  00048	89 01		 mov	 DWORD PTR [ecx], eax
$LN1@StringCopy:

; 8976 :     }
; 8977 : 
; 8978 :     return hr;

  0004a	8b 45 fc	 mov	 eax, DWORD PTR _hr$[ebp]

; 8979 : }

  0004d	c9		 leave
  0004e	c2 0c 00	 ret	 12			; 0000000cH
?StringCopyWorkerA@@YGJPADIPAIPBDI@Z ENDP		; StringCopyWorkerA
_TEXT	ENDS
PUBLIC	?_DECSTR@@YAXPADH@Z				; _DECSTR
; Function compile flags: /Ogsp
; File d:\lost saga for developer\youtube\tutorial\source\src\lsclient\stringprotect.h
;	COMDAT ?_DECSTR@@YAXPADH@Z
_TEXT	SEGMENT
_s$ = 8							; size = 4
_l$ = 12						; size = 4
?_DECSTR@@YAXPADH@Z PROC				; _DECSTR, COMDAT

; 40   : __forceinline void _DECSTR(char* s, int l){int i=0,l4=(l-1)/4,*p=(int*)s;s[l-1]=0;for(;i<l4;++i)*(p++)^=0xEAEBECED;for(i=l4*4;i<l-1;++i)s[i]^=0xED-i%4;}

  00000	55		 push	 ebp
  00001	8b ec		 mov	 ebp, esp
  00003	8b 4d 0c	 mov	 ecx, DWORD PTR _l$[ebp]
  00006	56		 push	 esi
  00007	8b 75 08	 mov	 esi, DWORD PTR _s$[ebp]
  0000a	57		 push	 edi
  0000b	8d 79 ff	 lea	 edi, DWORD PTR [ecx-1]
  0000e	8b c7		 mov	 eax, edi
  00010	99		 cdq
  00011	83 e2 03	 and	 edx, 3
  00014	03 c2		 add	 eax, edx
  00016	c1 f8 02	 sar	 eax, 2
  00019	8b d6		 mov	 edx, esi
  0001b	c6 44 0e ff 00	 mov	 BYTE PTR [esi+ecx-1], 0
  00020	85 c0		 test	 eax, eax
  00022	7e 0e		 jle	 SHORT $LN4@DECSTR
  00024	8b c8		 mov	 ecx, eax
$LL6@DECSTR:
  00026	81 32 ed ec eb
	ea		 xor	 DWORD PTR [edx], -353637139 ; eaebecedH
  0002c	83 c2 04	 add	 edx, 4
  0002f	49		 dec	 ecx
  00030	75 f4		 jne	 SHORT $LL6@DECSTR
$LN4@DECSTR:
  00032	c1 e0 02	 shl	 eax, 2
  00035	eb 17		 jmp	 SHORT $LN14@DECSTR
$LL3@DECSTR:
  00037	8b c8		 mov	 ecx, eax
  00039	81 e1 03 00 00
	80		 and	 ecx, -2147483645	; 80000003H
  0003f	79 05		 jns	 SHORT $LN13@DECSTR
  00041	49		 dec	 ecx
  00042	83 c9 fc	 or	 ecx, -4			; fffffffcH
  00045	41		 inc	 ecx
$LN13@DECSTR:
  00046	b2 ed		 mov	 dl, -19			; ffffffedH
  00048	2a d1		 sub	 dl, cl
  0004a	30 14 30	 xor	 BYTE PTR [eax+esi], dl
  0004d	40		 inc	 eax
$LN14@DECSTR:
  0004e	3b c7		 cmp	 eax, edi
  00050	7c e5		 jl	 SHORT $LL3@DECSTR
  00052	5f		 pop	 edi
  00053	5e		 pop	 esi
  00054	5d		 pop	 ebp
  00055	c3		 ret	 0
?_DECSTR@@YAXPADH@Z ENDP				; _DECSTR
_TEXT	ENDS
PUBLIC	?IsHideSkillBuffEmoticon@Setting@@SA_NXZ	; Setting::IsHideSkillBuffEmoticon
EXTRN	?m_Option@Setting@@1USettingOption@@A:BYTE	; Setting::m_Option
; Function compile flags: /Ogsp
; File d:\lost saga for developer\youtube\tutorial\source\src\lsclient\setting.h
;	COMDAT ?IsHideSkillBuffEmoticon@Setting@@SA_NXZ
_TEXT	SEGMENT
?IsHideSkillBuffEmoticon@Setting@@SA_NXZ PROC		; Setting::IsHideSkillBuffEmoticon, COMDAT

; 347  : 	static bool IsHideSkillBuffEmoticon() { return m_Option.m_bHideSkillBuffEmoticon; }

  00000	a0 61 00 00 00	 mov	 al, BYTE PTR ?m_Option@Setting@@1USettingOption@@A+97
  00005	c3		 ret	 0
?IsHideSkillBuffEmoticon@Setting@@SA_NXZ ENDP		; Setting::IsHideSkillBuffEmoticon
_TEXT	ENDS
PUBLIC	??0HelpText@@QAE@XZ				; HelpText::HelpText
; Function compile flags: /Ogsp
; File d:\lost saga for developer\youtube\tutorial\source\src\lsclient\gui\iomodehelpmanager.h
;	COMDAT ??0HelpText@@QAE@XZ
_TEXT	SEGMENT
??0HelpText@@QAE@XZ PROC				; HelpText::HelpText, COMDAT
; _this$ = ecx

; 17   : 	HelpText()

  00000	8b c1		 mov	 eax, ecx

; 18   : 	{
; 19   : 		m_dwColor	= 0;

  00002	33 c9		 xor	 ecx, ecx
  00004	89 08		 mov	 DWORD PTR [eax], ecx

; 20   : 		m_dwSwapTime= 0;

  00006	89 88 10 01 00
	00		 mov	 DWORD PTR [eax+272], ecx

; 21   : 		m_dwSwapCurTIme = 0;

  0000c	89 88 08 01 00
	00		 mov	 DWORD PTR [eax+264], ecx

; 22   : 		m_bSwapHelp = false;

  00012	88 88 0c 01 00
	00		 mov	 BYTE PTR [eax+268], cl

; 23   : 		strcpy( m_szHelp, "" );

  00018	88 48 04	 mov	 BYTE PTR [eax+4], cl

; 24   : 		strcpy( m_szSwapHelp, "" );

  0001b	88 88 14 01 00
	00		 mov	 BYTE PTR [eax+276], cl

; 25   : 	}

  00021	c3		 ret	 0
??0HelpText@@QAE@XZ ENDP				; HelpText::HelpText
_TEXT	ENDS
PUBLIC	??_C@_00CNPNBAHC@?$AA@				; `string'
PUBLIC	?SwapProcess@HelpText@@QAEXXZ			; HelpText::SwapProcess
EXTRN	__imp_?GetLoopSec@ioFrameTimer@@QBEKXZ:PROC
EXTRN	__imp_?GetSingleton@ioFrameTimer@@SAAAV1@XZ:PROC
;	COMDAT ??_C@_00CNPNBAHC@?$AA@
CONST	SEGMENT
??_C@_00CNPNBAHC@?$AA@ DB 00H				; `string'
; Function compile flags: /Ogsp
CONST	ENDS
;	COMDAT ?SwapProcess@HelpText@@QAEXXZ
_TEXT	SEGMENT
?SwapProcess@HelpText@@QAEXXZ PROC			; HelpText::SwapProcess, COMDAT
; _this$ = ecx

; 28   : 	{

  00000	53		 push	 ebx
  00001	8b d9		 mov	 ebx, ecx
  00003	56		 push	 esi

; 29   : 		if( strcmp( m_szSwapHelp, "" ) == 0 ) return;

  00004	33 c9		 xor	 ecx, ecx
  00006	57		 push	 edi
  00007	41		 inc	 ecx
  00008	bf 00 00 00 00	 mov	 edi, OFFSET ??_C@_00CNPNBAHC@?$AA@
  0000d	8d b3 14 01 00
	00		 lea	 esi, DWORD PTR [ebx+276]
  00013	33 c0		 xor	 eax, eax
  00015	f3 a6		 repe cmpsb
  00017	74 3e		 je	 SHORT $LN1@SwapProces

; 30   : 
; 31   : 		if( FRAMEGETTIME() - m_dwSwapCurTIme > m_dwSwapTime )

  00019	8b 35 00 00 00
	00		 mov	 esi, DWORD PTR __imp_?GetSingleton@ioFrameTimer@@SAAAV1@XZ
  0001f	ff d6		 call	 esi
  00021	8b c8		 mov	 ecx, eax
  00023	ff 15 00 00 00
	00		 call	 DWORD PTR __imp_?GetLoopSec@ioFrameTimer@@QBEKXZ
  00029	2b 83 08 01 00
	00		 sub	 eax, DWORD PTR [ebx+264]
  0002f	3b 83 10 01 00
	00		 cmp	 eax, DWORD PTR [ebx+272]
  00035	76 20		 jbe	 SHORT $LN1@SwapProces

; 32   : 		{
; 33   : 			m_dwSwapCurTIme = FRAMEGETTIME();

  00037	ff d6		 call	 esi
  00039	8b c8		 mov	 ecx, eax
  0003b	ff 15 00 00 00
	00		 call	 DWORD PTR __imp_?GetLoopSec@ioFrameTimer@@QBEKXZ

; 34   : 			m_bSwapHelp = !m_bSwapHelp;

  00041	80 bb 0c 01 00
	00 00		 cmp	 BYTE PTR [ebx+268], 0
  00048	89 83 08 01 00
	00		 mov	 DWORD PTR [ebx+264], eax
  0004e	0f 94 c1	 sete	 cl
  00051	88 8b 0c 01 00
	00		 mov	 BYTE PTR [ebx+268], cl
$LN1@SwapProces:

; 35   : 		}
; 36   : 	}

  00057	5f		 pop	 edi
  00058	5e		 pop	 esi
  00059	5b		 pop	 ebx
  0005a	c3		 ret	 0
?SwapProcess@HelpText@@QAEXXZ ENDP			; HelpText::SwapProcess
_TEXT	ENDS
PUBLIC	?DecryptValueToPool@?$CEncrypt@W4ModeType@@@@QAEXPAW4ModeType@@@Z ; CEncrypt<enum ModeType>::DecryptValueToPool
EXTRN	?DecryptByte@ccddaabb@@QBEXPBDPADH@Z:PROC	; ccddaabb::DecryptByte
; Function compile flags: /Ogsp
; File d:\lost saga for developer\youtube\tutorial\source\src\lsclient\encryptvalue.h
;	COMDAT ?DecryptValueToPool@?$CEncrypt@W4ModeType@@@@QAEXPAW4ModeType@@@Z
_TEXT	SEGMENT
_value$ = 8						; size = 4
?DecryptValueToPool@?$CEncrypt@W4ModeType@@@@QAEXPAW4ModeType@@@Z PROC ; CEncrypt<enum ModeType>::DecryptValueToPool, COMDAT
; _this$ = ecx

; 3039 : 	{

  00000	55		 push	 ebp
  00001	8b ec		 mov	 ebp, esp
  00003	56		 push	 esi

; 3040 : 		m_RC5.DecryptByte( m_MemPool, m_TempMem, sizeof(ModeType) );

  00004	8d 71 28	 lea	 esi, DWORD PTR [ecx+40]
  00007	6a 04		 push	 4
  00009	8d 41 1c	 lea	 eax, DWORD PTR [ecx+28]
  0000c	56		 push	 esi
  0000d	50		 push	 eax
  0000e	83 c1 0c	 add	 ecx, 12			; 0000000cH
  00011	e8 00 00 00 00	 call	 ?DecryptByte@ccddaabb@@QBEXPBDPADH@Z ; ccddaabb::DecryptByte

; 3041 : 		*value = *((ModeType*)m_TempMem);

  00016	8b 06		 mov	 eax, DWORD PTR [esi]
  00018	8b 4d 08	 mov	 ecx, DWORD PTR _value$[ebp]
  0001b	89 01		 mov	 DWORD PTR [ecx], eax
  0001d	5e		 pop	 esi

; 3042 : 	}

  0001e	5d		 pop	 ebp
  0001f	c2 04 00	 ret	 4
?DecryptValueToPool@?$CEncrypt@W4ModeType@@@@QAEXPAW4ModeType@@@Z ENDP ; CEncrypt<enum ModeType>::DecryptValueToPool
_TEXT	ENDS
PUBLIC	??1?$_Vector_val@UHelpText@@V?$allocator@UHelpText@@@std@@@std@@QAE@XZ ; std::_Vector_val<HelpText,std::allocator<HelpText> >::~_Vector_val<HelpText,std::allocator<HelpText> >
; Function compile flags: /Ogsp
; File c:\program files (x86)\microsoft visual studio 10.0\vc\include\vector
;	COMDAT ??1?$_Vector_val@UHelpText@@V?$allocator@UHelpText@@@std@@@std@@QAE@XZ
_TEXT	SEGMENT
??1?$_Vector_val@UHelpText@@V?$allocator@UHelpText@@@std@@@std@@QAE@XZ PROC ; std::_Vector_val<HelpText,std::allocator<HelpText> >::~_Vector_val<HelpText,std::allocator<HelpText> >, COMDAT
; _this$ = ecx

; 434  : 		}

  00000	c3		 ret	 0
??1?$_Vector_val@UHelpText@@V?$allocator@UHelpText@@@std@@@std@@QAE@XZ ENDP ; std::_Vector_val<HelpText,std::allocator<HelpText> >::~_Vector_val<HelpText,std::allocator<HelpText> >
_TEXT	ENDS
PUBLIC	??0?$allocator@UHelpText@@@std@@QAE@XZ		; std::allocator<HelpText>::allocator<HelpText>
; Function compile flags: /Ogsp
; File c:\program files (x86)\microsoft visual studio 10.0\vc\include\xmemory
;	COMDAT ??0?$allocator@UHelpText@@@std@@QAE@XZ
_TEXT	SEGMENT
??0?$allocator@UHelpText@@@std@@QAE@XZ PROC		; std::allocator<HelpText>::allocator<HelpText>, COMDAT
; _this$ = ecx

; 161  : 	_ALLOCATOR() _THROW0()

  00000	8b c1		 mov	 eax, ecx

; 162  : 		{	// construct default allocator (do nothing)
; 163  : 		}

  00002	c3		 ret	 0
??0?$allocator@UHelpText@@@std@@QAE@XZ ENDP		; std::allocator<HelpText>::allocator<HelpText>
_TEXT	ENDS
PUBLIC	??0?$allocator@UHelpText@@@std@@QAE@ABV01@@Z	; std::allocator<HelpText>::allocator<HelpText>
; Function compile flags: /Ogsp
;	COMDAT ??0?$allocator@UHelpText@@@std@@QAE@ABV01@@Z
_TEXT	SEGMENT
___formal$ = 8						; size = 4
??0?$allocator@UHelpText@@@std@@QAE@ABV01@@Z PROC	; std::allocator<HelpText>::allocator<HelpText>, COMDAT
; _this$ = ecx

; 165  : 	_ALLOCATOR(const _ALLOCATOR<_Ty>&) _THROW0()

  00000	8b c1		 mov	 eax, ecx

; 166  : 		{	// construct by copying (do nothing)
; 167  : 		}

  00002	c2 04 00	 ret	 4
??0?$allocator@UHelpText@@@std@@QAE@ABV01@@Z ENDP	; std::allocator<HelpText>::allocator<HelpText>
_TEXT	ENDS
PUBLIC	?deallocate@?$allocator@UHelpText@@@std@@QAEXPAUHelpText@@I@Z ; std::allocator<HelpText>::deallocate
; Function compile flags: /Ogsp
;	COMDAT ?deallocate@?$allocator@UHelpText@@@std@@QAEXPAUHelpText@@I@Z
_TEXT	SEGMENT
__Ptr$ = 8						; size = 4
___formal$ = 12						; size = 4
?deallocate@?$allocator@UHelpText@@@std@@QAEXPAUHelpText@@I@Z PROC ; std::allocator<HelpText>::deallocate, COMDAT
; _this$ = ecx

; 181  : 		{	// deallocate object at _Ptr, ignore size

  00000	55		 push	 ebp
  00001	8b ec		 mov	 ebp, esp

; 182  : 		::operator delete(_Ptr);

  00003	ff 75 08	 push	 DWORD PTR __Ptr$[ebp]
  00006	e8 00 00 00 00	 call	 ??3@YAXPAX@Z		; operator delete
  0000b	59		 pop	 ecx

; 183  : 		}

  0000c	5d		 pop	 ebp
  0000d	c2 08 00	 ret	 8
?deallocate@?$allocator@UHelpText@@@std@@QAEXPAUHelpText@@I@Z ENDP ; std::allocator<HelpText>::deallocate
_TEXT	ENDS
PUBLIC	??0?$_Vector_const_iterator@V?$_Vector_val@UHelpText@@V?$allocator@UHelpText@@@std@@@std@@@std@@QAE@PAUHelpText@@PBU_Container_base0@1@@Z ; std::_Vector_const_iterator<std::_Vector_val<HelpText,std::allocator<HelpText> > >::_Vector_const_iterator<std::_Vector_val<HelpText,std::allocator<HelpText> > >
; Function compile flags: /Ogsp
; File c:\program files (x86)\microsoft visual studio 10.0\vc\include\vector
;	COMDAT ??0?$_Vector_const_iterator@V?$_Vector_val@UHelpText@@V?$allocator@UHelpText@@@std@@@std@@@std@@QAE@PAUHelpText@@PBU_Container_base0@1@@Z
_TEXT	SEGMENT
__Parg$ = 8						; size = 4
__Pvector$ = 12						; size = 4
??0?$_Vector_const_iterator@V?$_Vector_val@UHelpText@@V?$allocator@UHelpText@@@std@@@std@@@std@@QAE@PAUHelpText@@PBU_Container_base0@1@@Z PROC ; std::_Vector_const_iterator<std::_Vector_val<HelpText,std::allocator<HelpText> > >::_Vector_const_iterator<std::_Vector_val<HelpText,std::allocator<HelpText> > >, COMDAT
; _this$ = ecx

; 45   : 		{	// construct with pointer _Parg

  00000	55		 push	 ebp
  00001	8b ec		 mov	 ebp, esp
  00003	8b c1		 mov	 eax, ecx
  00005	8b 4d 08	 mov	 ecx, DWORD PTR __Parg$[ebp]
  00008	89 08		 mov	 DWORD PTR [eax], ecx

; 46   : 		this->_Adopt(_Pvector);
; 47   : 		}

  0000a	5d		 pop	 ebp
  0000b	c2 08 00	 ret	 8
??0?$_Vector_const_iterator@V?$_Vector_val@UHelpText@@V?$allocator@UHelpText@@@std@@@std@@@std@@QAE@PAUHelpText@@PBU_Container_base0@1@@Z ENDP ; std::_Vector_const_iterator<std::_Vector_val<HelpText,std::allocator<HelpText> > >::_Vector_const_iterator<std::_Vector_val<HelpText,std::allocator<HelpText> > >
_TEXT	ENDS
PUBLIC	?_Compat@?$_Vector_const_iterator@V?$_Vector_val@UHelpText@@V?$allocator@UHelpText@@@std@@@std@@@std@@QBEXABV12@@Z ; std::_Vector_const_iterator<std::_Vector_val<HelpText,std::allocator<HelpText> > >::_Compat
; Function compile flags: /Ogsp
;	COMDAT ?_Compat@?$_Vector_const_iterator@V?$_Vector_val@UHelpText@@V?$allocator@UHelpText@@@std@@@std@@@std@@QBEXABV12@@Z
_TEXT	SEGMENT
___formal$ = 8						; size = 4
?_Compat@?$_Vector_const_iterator@V?$_Vector_val@UHelpText@@V?$allocator@UHelpText@@@std@@@std@@@std@@QBEXABV12@@Z PROC ; std::_Vector_const_iterator<std::_Vector_val<HelpText,std::allocator<HelpText> > >::_Compat, COMDAT
; _this$ = ecx

; 253  : 		}

  00000	c2 04 00	 ret	 4
?_Compat@?$_Vector_const_iterator@V?$_Vector_val@UHelpText@@V?$allocator@UHelpText@@@std@@@std@@@std@@QBEXABV12@@Z ENDP ; std::_Vector_const_iterator<std::_Vector_val<HelpText,std::allocator<HelpText> > >::_Compat
_TEXT	ENDS
EXTRN	__imp_??0exception@std@@QAE@ABV01@@Z:PROC
; Function compile flags: /Ogsp
;	COMDAT ??0bad_alloc@std@@QAE@ABV01@@Z
_TEXT	SEGMENT
___that$ = 8						; size = 4
??0bad_alloc@std@@QAE@ABV01@@Z PROC			; std::bad_alloc::bad_alloc, COMDAT
; _this$ = ecx
  00000	55		 push	 ebp
  00001	8b ec		 mov	 ebp, esp
  00003	56		 push	 esi
  00004	ff 75 08	 push	 DWORD PTR ___that$[ebp]
  00007	8b f1		 mov	 esi, ecx
  00009	ff 15 00 00 00
	00		 call	 DWORD PTR __imp_??0exception@std@@QAE@ABV01@@Z
  0000f	c7 06 00 00 00
	00		 mov	 DWORD PTR [esi], OFFSET ??_7bad_alloc@std@@6B@
  00015	8b c6		 mov	 eax, esi
  00017	5e		 pop	 esi
  00018	5d		 pop	 ebp
  00019	c2 04 00	 ret	 4
??0bad_alloc@std@@QAE@ABV01@@Z ENDP			; std::bad_alloc::bad_alloc
_TEXT	ENDS
PUBLIC	??$_Ptr_cat@UHelpText@@U1@@std@@YA?AU_Nonscalar_ptr_iterator_tag@0@PAUHelpText@@0@Z ; std::_Ptr_cat<HelpText,HelpText>
; Function compile flags: /Ogsp
; File c:\program files (x86)\microsoft visual studio 10.0\vc\include\xutility
;	COMDAT ??$_Ptr_cat@UHelpText@@U1@@std@@YA?AU_Nonscalar_ptr_iterator_tag@0@PAUHelpText@@0@Z
_TEXT	SEGMENT
__Cat$ = -1						; size = 1
___formal$ = 8						; size = 4
___formal$ = 12						; size = 4
??$_Ptr_cat@UHelpText@@U1@@std@@YA?AU_Nonscalar_ptr_iterator_tag@0@PAUHelpText@@0@Z PROC ; std::_Ptr_cat<HelpText,HelpText>, COMDAT

; 516  : 	{	// return pointer category from pointers

  00000	55		 push	 ebp
  00001	8b ec		 mov	 ebp, esp
  00003	51		 push	 ecx

; 517  : 	typename _Ptr_cat_helper<_Elem1, _Elem2>::_Type _Cat;
; 518  : 	return (_Cat);

  00004	8a 45 ff	 mov	 al, BYTE PTR __Cat$[ebp]

; 519  : 	}

  00007	c9		 leave
  00008	c3		 ret	 0
??$_Ptr_cat@UHelpText@@U1@@std@@YA?AU_Nonscalar_ptr_iterator_tag@0@PAUHelpText@@0@Z ENDP ; std::_Ptr_cat<HelpText,HelpText>
_TEXT	ENDS
PUBLIC	??$move@AAUHelpText@@@std@@YA$$QAUHelpText@@AAU1@@Z ; std::move<HelpText &>
; Function compile flags: /Ogsp
; File c:\program files (x86)\microsoft visual studio 10.0\vc\include\utility
;	COMDAT ??$move@AAUHelpText@@@std@@YA$$QAUHelpText@@AAU1@@Z
_TEXT	SEGMENT
__Arg$ = 8						; size = 4
??$move@AAUHelpText@@@std@@YA$$QAUHelpText@@AAU1@@Z PROC ; std::move<HelpText &>, COMDAT

; 86   : 	{	// forward _Arg as movable

  00000	55		 push	 ebp
  00001	8b ec		 mov	 ebp, esp

; 87   : 	return ((typename tr1::_Remove_reference<_Ty>::_Type&&)_Arg);

  00003	8b 45 08	 mov	 eax, DWORD PTR __Arg$[ebp]

; 88   : 	}

  00006	5d		 pop	 ebp
  00007	c3		 ret	 0
??$move@AAUHelpText@@@std@@YA$$QAUHelpText@@AAU1@@Z ENDP ; std::move<HelpText &>
_TEXT	ENDS
PUBLIC	??$_Destroy@UHelpText@@@std@@YAXPAUHelpText@@@Z	; std::_Destroy<HelpText>
; Function compile flags: /Ogsp
; File c:\program files (x86)\microsoft visual studio 10.0\vc\include\xmemory
;	COMDAT ??$_Destroy@UHelpText@@@std@@YAXPAUHelpText@@@Z
_TEXT	SEGMENT
__Ptr$ = 8						; size = 4
??$_Destroy@UHelpText@@@std@@YAXPAUHelpText@@@Z PROC	; std::_Destroy<HelpText>, COMDAT

; 63   : 	_Ptr->~_Ty();
; 64   : 	}

  00000	c3		 ret	 0
??$_Destroy@UHelpText@@@std@@YAXPAUHelpText@@@Z ENDP	; std::_Destroy<HelpText>
_TEXT	ENDS
PUBLIC	?HideHelp@ioModeHelpManager@@QAEXW4HelpType@1@@Z ; ioModeHelpManager::HideHelp
; Function compile flags: /Ogsp
; File d:\lost saga for developer\youtube\tutorial\source\src\lsclient\gui\iomodehelpmanager.cpp
;	COMDAT ?HideHelp@ioModeHelpManager@@QAEXW4HelpType@1@@Z
_TEXT	SEGMENT
_eHelpType$ = 8						; size = 4
?HideHelp@ioModeHelpManager@@QAEXW4HelpType@1@@Z PROC	; ioModeHelpManager::HideHelp, COMDAT
; _this$ = ecx

; 142  : 	if( m_eCurHelpType != eHelpType ) return;
; 143  : 	if( IsHidingAni() ) return;
; 144  : 
; 145  : 	SetHidingAni();
; 146  : }

  00000	c2 04 00	 ret	 4
?HideHelp@ioModeHelpManager@@QAEXW4HelpType@1@@Z ENDP	; ioModeHelpManager::HideHelp
_TEXT	ENDS
PUBLIC	?ProcessHelpText@ioModeHelpManager@@IAEXXZ	; ioModeHelpManager::ProcessHelpText
; Function compile flags: /Ogsp
;	COMDAT ?ProcessHelpText@ioModeHelpManager@@IAEXXZ
_TEXT	SEGMENT
tv137 = -4						; size = 4
?ProcessHelpText@ioModeHelpManager@@IAEXXZ PROC		; ioModeHelpManager::ProcessHelpText, COMDAT
; _this$ = ecx

; 194  : {

  00000	55		 push	 ebp
  00001	8b ec		 mov	 ebp, esp
  00003	51		 push	 ecx

; 195  : 	int iSize = m_vModeHelpList.size();

  00004	8b 41 08	 mov	 eax, DWORD PTR [ecx+8]
  00007	56		 push	 esi
  00008	8b 71 04	 mov	 esi, DWORD PTR [ecx+4]
  0000b	57		 push	 edi
  0000c	2b c6		 sub	 eax, esi
  0000e	6a 2c		 push	 44			; 0000002cH
  00010	99		 cdq
  00011	5f		 pop	 edi
  00012	f7 ff		 idiv	 edi

; 196  : 
; 197  : 	for( int i=0; i < iSize; ++i )

  00014	33 d2		 xor	 edx, edx
  00016	85 c0		 test	 eax, eax
  00018	7e 45		 jle	 SHORT $LN1@ProcessHel

; 195  : 	int iSize = m_vModeHelpList.size();

  0001a	8b 49 14	 mov	 ecx, DWORD PTR [ecx+20]
  0001d	8d 7e 04	 lea	 edi, DWORD PTR [esi+4]
$LL7@ProcessHel:

; 198  : 	{
; 199  : 		if( m_vModeHelpList[i].m_iType == m_eCurHelpType )

  00020	39 0f		 cmp	 DWORD PTR [edi], ecx
  00022	74 0a		 je	 SHORT $LN22@ProcessHel

; 196  : 
; 197  : 	for( int i=0; i < iSize; ++i )

  00024	42		 inc	 edx
  00025	83 c7 2c	 add	 edi, 44			; 0000002cH
  00028	3b d0		 cmp	 edx, eax
  0002a	7c f4		 jl	 SHORT $LL7@ProcessHel

; 198  : 	{
; 199  : 		if( m_vModeHelpList[i].m_iType == m_eCurHelpType )

  0002c	eb 31		 jmp	 SHORT $LN1@ProcessHel
$LN22@ProcessHel:

; 200  : 		{
; 201  : 			vHelpText &rvText = m_vModeHelpList[i].m_vText;

  0002e	6b d2 2c	 imul	 edx, 44			; 0000002cH
  00031	8d 74 32 1c	 lea	 esi, DWORD PTR [edx+esi+28]

; 202  : 			int iTextSize = rvText.size();

  00035	8b 46 04	 mov	 eax, DWORD PTR [esi+4]
  00038	2b 06		 sub	 eax, DWORD PTR [esi]
  0003a	bf 18 02 00 00	 mov	 edi, 536		; 00000218H
  0003f	99		 cdq
  00040	8b cf		 mov	 ecx, edi
  00042	f7 f9		 idiv	 ecx

; 203  : 			for (int j = 0; j < iTextSize ; j++)

  00044	85 c0		 test	 eax, eax
  00046	7e 17		 jle	 SHORT $LN1@ProcessHel

; 200  : 		{
; 201  : 			vHelpText &rvText = m_vModeHelpList[i].m_vText;

  00048	53		 push	 ebx
  00049	33 db		 xor	 ebx, ebx
  0004b	89 45 fc	 mov	 DWORD PTR tv137[ebp], eax
$LL3@ProcessHel:

; 204  : 			{
; 205  : 				rvText[j].SwapProcess();

  0004e	8b 0e		 mov	 ecx, DWORD PTR [esi]
  00050	03 cb		 add	 ecx, ebx
  00052	e8 00 00 00 00	 call	 ?SwapProcess@HelpText@@QAEXXZ ; HelpText::SwapProcess
  00057	03 df		 add	 ebx, edi
  00059	ff 4d fc	 dec	 DWORD PTR tv137[ebp]
  0005c	75 f0		 jne	 SHORT $LL3@ProcessHel
  0005e	5b		 pop	 ebx
$LN1@ProcessHel:
  0005f	5f		 pop	 edi
  00060	5e		 pop	 esi

; 206  : 			}
; 207  : 			break;
; 208  : 		}
; 209  : 	}
; 210  : }

  00061	c9		 leave
  00062	c3		 ret	 0
?ProcessHelpText@ioModeHelpManager@@IAEXXZ ENDP		; ioModeHelpManager::ProcessHelpText
_TEXT	ENDS
PUBLIC	?GetCurHelpText@ioModeHelpManager@@IBEPBV?$vector@UHelpText@@V?$allocator@UHelpText@@@std@@@std@@XZ ; ioModeHelpManager::GetCurHelpText
; Function compile flags: /Ogsp
;	COMDAT ?GetCurHelpText@ioModeHelpManager@@IBEPBV?$vector@UHelpText@@V?$allocator@UHelpText@@@std@@@std@@XZ
_TEXT	SEGMENT
?GetCurHelpText@ioModeHelpManager@@IBEPBV?$vector@UHelpText@@V?$allocator@UHelpText@@@std@@@std@@XZ PROC ; ioModeHelpManager::GetCurHelpText, COMDAT
; _this$ = ecx

; 214  : 	int iSize = m_vModeHelpList.size();

  00000	8b 41 08	 mov	 eax, DWORD PTR [ecx+8]
  00003	56		 push	 esi
  00004	8b 71 04	 mov	 esi, DWORD PTR [ecx+4]
  00007	57		 push	 edi
  00008	2b c6		 sub	 eax, esi
  0000a	6a 2c		 push	 44			; 0000002cH
  0000c	99		 cdq
  0000d	5f		 pop	 edi
  0000e	f7 ff		 idiv	 edi

; 215  : 
; 216  : 	for( int i=0; i < iSize; ++i )

  00010	33 d2		 xor	 edx, edx
  00012	85 c0		 test	 eax, eax
  00014	7e 12		 jle	 SHORT $LN2@GetCurHelp

; 214  : 	int iSize = m_vModeHelpList.size();

  00016	8b 49 14	 mov	 ecx, DWORD PTR [ecx+20]
  00019	8d 7e 04	 lea	 edi, DWORD PTR [esi+4]
$LL4@GetCurHelp:

; 217  : 	{
; 218  : 		if( m_vModeHelpList[i].m_iType == m_eCurHelpType )

  0001c	39 0f		 cmp	 DWORD PTR [edi], ecx
  0001e	74 0d		 je	 SHORT $LN14@GetCurHelp

; 215  : 
; 216  : 	for( int i=0; i < iSize; ++i )

  00020	42		 inc	 edx
  00021	83 c7 2c	 add	 edi, 44			; 0000002cH
  00024	3b d0		 cmp	 edx, eax
  00026	7c f4		 jl	 SHORT $LL4@GetCurHelp
$LN2@GetCurHelp:

; 221  : 		}
; 222  : 	}
; 223  : 
; 224  : 	return NULL;

  00028	33 c0		 xor	 eax, eax
$LN5@GetCurHelp:
  0002a	5f		 pop	 edi
  0002b	5e		 pop	 esi

; 225  : }

  0002c	c3		 ret	 0
$LN14@GetCurHelp:

; 219  : 		{
; 220  : 			return &m_vModeHelpList[i].m_vText;

  0002d	6b d2 2c	 imul	 edx, 44			; 0000002cH
  00030	8d 44 32 1c	 lea	 eax, DWORD PTR [edx+esi+28]
  00034	eb f4		 jmp	 SHORT $LN5@GetCurHelp
?GetCurHelpText@ioModeHelpManager@@IBEPBV?$vector@UHelpText@@V?$allocator@UHelpText@@@std@@@std@@XZ ENDP ; ioModeHelpManager::GetCurHelpText
_TEXT	ENDS
PUBLIC	?GetHelpText@ioModeHelpManager@@QBEPBV?$vector@UHelpText@@V?$allocator@UHelpText@@@std@@@std@@W4HelpType@1@@Z ; ioModeHelpManager::GetHelpText
; Function compile flags: /Ogsp
;	COMDAT ?GetHelpText@ioModeHelpManager@@QBEPBV?$vector@UHelpText@@V?$allocator@UHelpText@@@std@@@std@@W4HelpType@1@@Z
_TEXT	SEGMENT
_eType$ = 8						; size = 4
?GetHelpText@ioModeHelpManager@@QBEPBV?$vector@UHelpText@@V?$allocator@UHelpText@@@std@@@std@@W4HelpType@1@@Z PROC ; ioModeHelpManager::GetHelpText, COMDAT
; _this$ = ecx

; 228  : {

  00000	55		 push	 ebp
  00001	8b ec		 mov	 ebp, esp

; 229  : 	int iSize = m_vModeHelpList.size();

  00003	8b 41 08	 mov	 eax, DWORD PTR [ecx+8]
  00006	2b 41 04	 sub	 eax, DWORD PTR [ecx+4]
  00009	56		 push	 esi
  0000a	57		 push	 edi
  0000b	6a 2c		 push	 44			; 0000002cH
  0000d	99		 cdq
  0000e	5e		 pop	 esi
  0000f	f7 fe		 idiv	 esi

; 230  : 
; 231  : 	for( int i=0; i < iSize; ++i )

  00011	33 d2		 xor	 edx, edx
  00013	85 c0		 test	 eax, eax
  00015	7e 15		 jle	 SHORT $LN2@GetHelpTex

; 229  : 	int iSize = m_vModeHelpList.size();

  00017	8b 49 04	 mov	 ecx, DWORD PTR [ecx+4]
  0001a	8d 71 04	 lea	 esi, DWORD PTR [ecx+4]
$LL4@GetHelpTex:

; 232  : 	{
; 233  : 		if( m_vModeHelpList[i].m_iType == eType )

  0001d	8b 3e		 mov	 edi, DWORD PTR [esi]
  0001f	3b 7d 08	 cmp	 edi, DWORD PTR _eType$[ebp]
  00022	74 10		 je	 SHORT $LN14@GetHelpTex

; 230  : 
; 231  : 	for( int i=0; i < iSize; ++i )

  00024	42		 inc	 edx
  00025	83 c6 2c	 add	 esi, 44			; 0000002cH
  00028	3b d0		 cmp	 edx, eax
  0002a	7c f1		 jl	 SHORT $LL4@GetHelpTex
$LN2@GetHelpTex:

; 236  : 		}
; 237  : 	}
; 238  : 
; 239  : 	return NULL;

  0002c	33 c0		 xor	 eax, eax
$LN5@GetHelpTex:
  0002e	5f		 pop	 edi
  0002f	5e		 pop	 esi

; 240  : }

  00030	5d		 pop	 ebp
  00031	c2 04 00	 ret	 4
$LN14@GetHelpTex:

; 234  : 		{
; 235  : 			return &m_vModeHelpList[i].m_vText;

  00034	6b d2 2c	 imul	 edx, 44			; 0000002cH
  00037	8d 44 0a 1c	 lea	 eax, DWORD PTR [edx+ecx+28]
  0003b	eb f1		 jmp	 SHORT $LN5@GetHelpTex
?GetHelpText@ioModeHelpManager@@QBEPBV?$vector@UHelpText@@V?$allocator@UHelpText@@@std@@@std@@W4HelpType@1@@Z ENDP ; ioModeHelpManager::GetHelpText
_TEXT	ENDS
PUBLIC	?GetCurIconName@ioModeHelpManager@@IBEPBVioHashString@@XZ ; ioModeHelpManager::GetCurIconName
; Function compile flags: /Ogsp
;	COMDAT ?GetCurIconName@ioModeHelpManager@@IBEPBVioHashString@@XZ
_TEXT	SEGMENT
?GetCurIconName@ioModeHelpManager@@IBEPBVioHashString@@XZ PROC ; ioModeHelpManager::GetCurIconName, COMDAT
; _this$ = ecx

; 243  : {

  00000	57		 push	 edi

; 244  : 	if( m_eCurHelpType == HT_NONE )

  00001	8b 79 14	 mov	 edi, DWORD PTR [ecx+20]
  00004	85 ff		 test	 edi, edi
  00006	75 04		 jne	 SHORT $LN5@GetCurIcon

; 245  : 		return NULL;

  00008	33 c0		 xor	 eax, eax
  0000a	5f		 pop	 edi

; 258  : }

  0000b	c3		 ret	 0
$LN5@GetCurIcon:

; 246  : 
; 247  : 	int iSize = m_vModeHelpList.size();

  0000c	8b 41 08	 mov	 eax, DWORD PTR [ecx+8]
  0000f	56		 push	 esi
  00010	8b 71 04	 mov	 esi, DWORD PTR [ecx+4]
  00013	2b c6		 sub	 eax, esi
  00015	6a 2c		 push	 44			; 0000002cH
  00017	99		 cdq
  00018	59		 pop	 ecx
  00019	f7 f9		 idiv	 ecx

; 248  : 
; 249  : 	for( int i=0; i < iSize; ++i )

  0001b	33 c9		 xor	 ecx, ecx
  0001d	85 c0		 test	 eax, eax
  0001f	7e 0f		 jle	 SHORT $LN2@GetCurIcon

; 246  : 
; 247  : 	int iSize = m_vModeHelpList.size();

  00021	8d 56 04	 lea	 edx, DWORD PTR [esi+4]
$LL4@GetCurIcon:

; 250  : 	{
; 251  : 		if( m_vModeHelpList[i].m_iType == m_eCurHelpType )

  00024	39 3a		 cmp	 DWORD PTR [edx], edi
  00026	74 0d		 je	 SHORT $LN15@GetCurIcon

; 248  : 
; 249  : 	for( int i=0; i < iSize; ++i )

  00028	41		 inc	 ecx
  00029	83 c2 2c	 add	 edx, 44			; 0000002cH
  0002c	3b c8		 cmp	 ecx, eax
  0002e	7c f4		 jl	 SHORT $LL4@GetCurIcon
$LN2@GetCurIcon:

; 254  : 		}
; 255  : 	}
; 256  : 
; 257  : 	return NULL;

  00030	33 c0		 xor	 eax, eax
$LN17@GetCurIcon:
  00032	5e		 pop	 esi
  00033	5f		 pop	 edi

; 258  : }

  00034	c3		 ret	 0
$LN15@GetCurIcon:

; 252  : 		{
; 253  : 			return &m_vModeHelpList[i].m_szIconName;

  00035	6b c9 2c	 imul	 ecx, 44			; 0000002cH
  00038	8d 44 31 0c	 lea	 eax, DWORD PTR [ecx+esi+12]
  0003c	eb f4		 jmp	 SHORT $LN17@GetCurIcon
?GetCurIconName@ioModeHelpManager@@IBEPBVioHashString@@XZ ENDP ; ioModeHelpManager::GetCurIconName
_TEXT	ENDS
PUBLIC	?GetIconName@ioModeHelpManager@@QBEPBVioHashString@@W4HelpType@1@@Z ; ioModeHelpManager::GetIconName
; Function compile flags: /Ogsp
;	COMDAT ?GetIconName@ioModeHelpManager@@QBEPBVioHashString@@W4HelpType@1@@Z
_TEXT	SEGMENT
_eHelpType$ = 8						; size = 4
?GetIconName@ioModeHelpManager@@QBEPBVioHashString@@W4HelpType@1@@Z PROC ; ioModeHelpManager::GetIconName, COMDAT
; _this$ = ecx

; 261  : {

  00000	55		 push	 ebp
  00001	8b ec		 mov	 ebp, esp
  00003	57		 push	 edi

; 262  : 	if( eHelpType == HT_NONE )

  00004	8b 7d 08	 mov	 edi, DWORD PTR _eHelpType$[ebp]
  00007	85 ff		 test	 edi, edi
  00009	75 04		 jne	 SHORT $LN5@GetIconNam

; 263  : 		return NULL;

  0000b	33 c0		 xor	 eax, eax
  0000d	eb 28		 jmp	 SHORT $LN6@GetIconNam
$LN5@GetIconNam:

; 264  : 
; 265  : 	int iSize = m_vModeHelpList.size();

  0000f	8b 41 08	 mov	 eax, DWORD PTR [ecx+8]
  00012	2b 41 04	 sub	 eax, DWORD PTR [ecx+4]
  00015	56		 push	 esi
  00016	6a 2c		 push	 44			; 0000002cH
  00018	99		 cdq
  00019	5e		 pop	 esi
  0001a	f7 fe		 idiv	 esi

; 266  : 
; 267  : 	for( int i=0; i < iSize; ++i )

  0001c	33 d2		 xor	 edx, edx
  0001e	85 c0		 test	 eax, eax
  00020	7e 12		 jle	 SHORT $LN2@GetIconNam

; 264  : 
; 265  : 	int iSize = m_vModeHelpList.size();

  00022	8b 49 04	 mov	 ecx, DWORD PTR [ecx+4]
  00025	8d 71 04	 lea	 esi, DWORD PTR [ecx+4]
$LL4@GetIconNam:

; 268  : 	{
; 269  : 		if( m_vModeHelpList[i].m_iType == eHelpType )

  00028	39 3e		 cmp	 DWORD PTR [esi], edi
  0002a	74 10		 je	 SHORT $LN15@GetIconNam

; 266  : 
; 267  : 	for( int i=0; i < iSize; ++i )

  0002c	42		 inc	 edx
  0002d	83 c6 2c	 add	 esi, 44			; 0000002cH
  00030	3b d0		 cmp	 edx, eax
  00032	7c f4		 jl	 SHORT $LL4@GetIconNam
$LN2@GetIconNam:

; 272  : 		}
; 273  : 	}
; 274  : 
; 275  : 	return NULL;

  00034	33 c0		 xor	 eax, eax
$LN17@GetIconNam:
  00036	5e		 pop	 esi
$LN6@GetIconNam:
  00037	5f		 pop	 edi

; 276  : }

  00038	5d		 pop	 ebp
  00039	c2 04 00	 ret	 4
$LN15@GetIconNam:

; 270  : 		{
; 271  : 			return &m_vModeHelpList[i].m_szIconName;

  0003c	6b d2 2c	 imul	 edx, 44			; 0000002cH
  0003f	8d 44 0a 0c	 lea	 eax, DWORD PTR [edx+ecx+12]
  00043	eb f1		 jmp	 SHORT $LN17@GetIconNam
?GetIconName@ioModeHelpManager@@QBEPBVioHashString@@W4HelpType@1@@Z ENDP ; ioModeHelpManager::GetIconName
_TEXT	ENDS
PUBLIC	?GetDuration@ioModeHelpManager@@IAEHW4HelpType@1@@Z ; ioModeHelpManager::GetDuration
; Function compile flags: /Ogsp
;	COMDAT ?GetDuration@ioModeHelpManager@@IAEHW4HelpType@1@@Z
_TEXT	SEGMENT
_eHelpType$ = 8						; size = 4
?GetDuration@ioModeHelpManager@@IAEHW4HelpType@1@@Z PROC ; ioModeHelpManager::GetDuration, COMDAT
; _this$ = ecx

; 279  : {

  00000	55		 push	 ebp
  00001	8b ec		 mov	 ebp, esp

; 280  : 	int iSize = m_vModeHelpList.size();

  00003	8b 41 08	 mov	 eax, DWORD PTR [ecx+8]
  00006	2b 41 04	 sub	 eax, DWORD PTR [ecx+4]
  00009	56		 push	 esi
  0000a	57		 push	 edi
  0000b	6a 2c		 push	 44			; 0000002cH
  0000d	99		 cdq
  0000e	5e		 pop	 esi
  0000f	f7 fe		 idiv	 esi

; 281  : 	int iDuration = 0;

  00011	33 ff		 xor	 edi, edi

; 282  : 	for( int i=0; i < iSize; ++i )

  00013	33 d2		 xor	 edx, edx
  00015	85 c0		 test	 eax, eax
  00017	7e 20		 jle	 SHORT $LN2@GetDuratio

; 280  : 	int iSize = m_vModeHelpList.size();

  00019	8b 49 04	 mov	 ecx, DWORD PTR [ecx+4]
  0001c	8d 71 04	 lea	 esi, DWORD PTR [ecx+4]
  0001f	53		 push	 ebx
$LL4@GetDuratio:

; 283  : 	{
; 284  : 		if( m_vModeHelpList[i].m_iType == eHelpType )

  00020	8b 1e		 mov	 ebx, DWORD PTR [esi]
  00022	3b 5d 08	 cmp	 ebx, DWORD PTR _eHelpType$[ebp]
  00025	74 0a		 je	 SHORT $LN14@GetDuratio

; 282  : 	for( int i=0; i < iSize; ++i )

  00027	42		 inc	 edx
  00028	83 c6 2c	 add	 esi, 44			; 0000002cH
  0002b	3b d0		 cmp	 edx, eax
  0002d	7c f1		 jl	 SHORT $LL4@GetDuratio

; 283  : 	{
; 284  : 		if( m_vModeHelpList[i].m_iType == eHelpType )

  0002f	eb 07		 jmp	 SHORT $LN16@GetDuratio
$LN14@GetDuratio:

; 285  : 		{
; 286  : 			iDuration = m_vModeHelpList[i].m_iDuration;

  00031	6b d2 2c	 imul	 edx, 44			; 0000002cH
  00034	8b 7c 0a 08	 mov	 edi, DWORD PTR [edx+ecx+8]
$LN16@GetDuratio:
  00038	5b		 pop	 ebx
$LN2@GetDuratio:

; 287  : 			break;
; 288  : 		}
; 289  : 	}
; 290  : 
; 291  : 	return iDuration;

  00039	8b c7		 mov	 eax, edi
  0003b	5f		 pop	 edi
  0003c	5e		 pop	 esi

; 292  : }

  0003d	5d		 pop	 ebp
  0003e	c2 04 00	 ret	 4
?GetDuration@ioModeHelpManager@@IAEHW4HelpType@1@@Z ENDP ; ioModeHelpManager::GetDuration
_TEXT	ENDS
PUBLIC	?GetSingleton@ioModeHelpManager@@SAAAV1@XZ	; ioModeHelpManager::GetSingleton
; Function compile flags: /Ogsp
;	COMDAT ?GetSingleton@ioModeHelpManager@@SAAAV1@XZ
_TEXT	SEGMENT
?GetSingleton@ioModeHelpManager@@SAAAV1@XZ PROC		; ioModeHelpManager::GetSingleton, COMDAT

; 339  : 	return Singleton< ioModeHelpManager >::GetSingleton();

  00000	a1 00 00 00 00	 mov	 eax, DWORD PTR ?ms_Singleton@?$Singleton@VioModeHelpManager@@@@1PAVioModeHelpManager@@A ; Singleton<ioModeHelpManager>::ms_Singleton

; 340  : }

  00005	c3		 ret	 0
?GetSingleton@ioModeHelpManager@@SAAAV1@XZ ENDP		; ioModeHelpManager::GetSingleton
_TEXT	ENDS
PUBLIC	?GetSingletonPtr@ioModeHelpManager@@SAPAV1@XZ	; ioModeHelpManager::GetSingletonPtr
; Function compile flags: /Ogsp
;	COMDAT ?GetSingletonPtr@ioModeHelpManager@@SAPAV1@XZ
_TEXT	SEGMENT
?GetSingletonPtr@ioModeHelpManager@@SAPAV1@XZ PROC	; ioModeHelpManager::GetSingletonPtr, COMDAT

; 344  : 	return Singleton< ioModeHelpManager >::GetSingletonPtr();

  00000	a1 00 00 00 00	 mov	 eax, DWORD PTR ?ms_Singleton@?$Singleton@VioModeHelpManager@@@@1PAVioModeHelpManager@@A ; Singleton<ioModeHelpManager>::ms_Singleton

; 345  : }

  00005	c3		 ret	 0
?GetSingletonPtr@ioModeHelpManager@@SAPAV1@XZ ENDP	; ioModeHelpManager::GetSingletonPtr
_TEXT	ENDS
PUBLIC	?max_size@?$vector@UModeHelp@@V?$allocator@UModeHelp@@@std@@@std@@QBEIXZ ; std::vector<ModeHelp,std::allocator<ModeHelp> >::max_size
; Function compile flags: /Ogsp
; File c:\program files (x86)\microsoft visual studio 10.0\vc\include\vector
;	COMDAT ?max_size@?$vector@UModeHelp@@V?$allocator@UModeHelp@@@std@@@std@@QBEIXZ
_TEXT	SEGMENT
?max_size@?$vector@UModeHelp@@V?$allocator@UModeHelp@@@std@@@std@@QBEIXZ PROC ; std::vector<ModeHelp,std::allocator<ModeHelp> >::max_size, COMDAT
; _this$ = ecx

; 884  : 		return (this->_Alval.max_size());

  00000	b8 5d 74 d1 05	 mov	 eax, 97612893		; 05d1745dH

; 885  : 		}

  00005	c3		 ret	 0
?max_size@?$vector@UModeHelp@@V?$allocator@UModeHelp@@@std@@@std@@QBEIXZ ENDP ; std::vector<ModeHelp,std::allocator<ModeHelp> >::max_size
_TEXT	ENDS
PUBLIC	??0?$_Vector_val@UModeHelp@@V?$allocator@UModeHelp@@@std@@@std@@QAE@V?$allocator@UModeHelp@@@1@@Z ; std::_Vector_val<ModeHelp,std::allocator<ModeHelp> >::_Vector_val<ModeHelp,std::allocator<ModeHelp> >
; Function compile flags: /Ogsp
;	COMDAT ??0?$_Vector_val@UModeHelp@@V?$allocator@UModeHelp@@@std@@@std@@QAE@V?$allocator@UModeHelp@@@1@@Z
_TEXT	SEGMENT
__Al$ = 8						; size = 1
??0?$_Vector_val@UModeHelp@@V?$allocator@UModeHelp@@@std@@@std@@QAE@V?$allocator@UModeHelp@@@1@@Z PROC ; std::_Vector_val<ModeHelp,std::allocator<ModeHelp> >::_Vector_val<ModeHelp,std::allocator<ModeHelp> >, COMDAT
; _this$ = ecx

; 426  : 		{	// construct allocator from _Al

  00000	8b c1		 mov	 eax, ecx

; 427  : 		_Myfirst = 0;

  00002	33 c9		 xor	 ecx, ecx
  00004	89 08		 mov	 DWORD PTR [eax], ecx

; 428  : 		_Mylast = 0;

  00006	89 48 04	 mov	 DWORD PTR [eax+4], ecx

; 429  : 		_Myend = 0;

  00009	89 48 08	 mov	 DWORD PTR [eax+8], ecx

; 430  : 		}

  0000c	c2 04 00	 ret	 4
??0?$_Vector_val@UModeHelp@@V?$allocator@UModeHelp@@@std@@@std@@QAE@V?$allocator@UModeHelp@@@1@@Z ENDP ; std::_Vector_val<ModeHelp,std::allocator<ModeHelp> >::_Vector_val<ModeHelp,std::allocator<ModeHelp> >
_TEXT	ENDS
PUBLIC	?allocate@?$allocator@UModeHelp@@@std@@QAEPAUModeHelp@@I@Z ; std::allocator<ModeHelp>::allocate
; Function compile flags: /Ogsp
; File c:\program files (x86)\microsoft visual studio 10.0\vc\include\xmemory
;	COMDAT ?allocate@?$allocator@UModeHelp@@@std@@QAEPAUModeHelp@@I@Z
_TEXT	SEGMENT
__Count$ = 8						; size = 4
?allocate@?$allocator@UModeHelp@@@std@@QAEPAUModeHelp@@I@Z PROC ; std::allocator<ModeHelp>::allocate, COMDAT
; _this$ = ecx

; 186  : 		{	// allocate array of _Count elements

  00000	55		 push	 ebp
  00001	8b ec		 mov	 ebp, esp

; 187  : 		return (_Allocate(_Count, (pointer)0));

  00003	6a 00		 push	 0
  00005	ff 75 08	 push	 DWORD PTR __Count$[ebp]
  00008	e8 00 00 00 00	 call	 ??$_Allocate@UModeHelp@@@std@@YAPAUModeHelp@@IPAU1@@Z ; std::_Allocate<ModeHelp>
  0000d	59		 pop	 ecx
  0000e	59		 pop	 ecx

; 188  : 		}

  0000f	5d		 pop	 ebp
  00010	c2 04 00	 ret	 4
?allocate@?$allocator@UModeHelp@@@std@@QAEPAUModeHelp@@I@Z ENDP ; std::allocator<ModeHelp>::allocate
_TEXT	ENDS
PUBLIC	?max_size@?$vector@UHelpText@@V?$allocator@UHelpText@@@std@@@std@@QBEIXZ ; std::vector<HelpText,std::allocator<HelpText> >::max_size
; Function compile flags: /Ogsp
; File c:\program files (x86)\microsoft visual studio 10.0\vc\include\vector
;	COMDAT ?max_size@?$vector@UHelpText@@V?$allocator@UHelpText@@@std@@@std@@QBEIXZ
_TEXT	SEGMENT
?max_size@?$vector@UHelpText@@V?$allocator@UHelpText@@@std@@@std@@QBEIXZ PROC ; std::vector<HelpText,std::allocator<HelpText> >::max_size, COMDAT
; _this$ = ecx

; 884  : 		return (this->_Alval.max_size());

  00000	b8 c6 44 7a 00	 mov	 eax, 8012998		; 007a44c6H

; 885  : 		}

  00005	c3		 ret	 0
?max_size@?$vector@UHelpText@@V?$allocator@UHelpText@@@std@@@std@@QBEIXZ ENDP ; std::vector<HelpText,std::allocator<HelpText> >::max_size
_TEXT	ENDS
PUBLIC	?_Grow_to@?$vector@UHelpText@@V?$allocator@UHelpText@@@std@@@std@@IBEII@Z ; std::vector<HelpText,std::allocator<HelpText> >::_Grow_to
; Function compile flags: /Ogsp
;	COMDAT ?_Grow_to@?$vector@UHelpText@@V?$allocator@UHelpText@@@std@@@std@@IBEII@Z
_TEXT	SEGMENT
__Count$ = 8						; size = 4
?_Grow_to@?$vector@UHelpText@@V?$allocator@UHelpText@@@std@@@std@@IBEII@Z PROC ; std::vector<HelpText,std::allocator<HelpText> >::_Grow_to, COMDAT
; _this$ = ecx

; 1274 : 		{	// grow by 50% or at least to _Count

  00000	55		 push	 ebp
  00001	8b ec		 mov	 ebp, esp

; 1275 : 		size_type _Capacity = capacity();

  00003	8b 41 08	 mov	 eax, DWORD PTR [ecx+8]
  00006	2b 01		 sub	 eax, DWORD PTR [ecx]
  00008	b9 18 02 00 00	 mov	 ecx, 536		; 00000218H
  0000d	99		 cdq
  0000e	f7 f9		 idiv	 ecx

; 1276 : 
; 1277 : 		_Capacity = max_size() - _Capacity / 2 < _Capacity
; 1278 : 			? 0 : _Capacity + _Capacity / 2;	// try to grow by 50%

  00010	ba c6 44 7a 00	 mov	 edx, 8012998		; 007a44c6H
  00015	8b c8		 mov	 ecx, eax
  00017	d1 e9		 shr	 ecx, 1
  00019	2b d1		 sub	 edx, ecx
  0001b	3b d0		 cmp	 edx, eax
  0001d	73 04		 jae	 SHORT $LN4@Grow_to
  0001f	33 c0		 xor	 eax, eax
  00021	eb 02		 jmp	 SHORT $LN5@Grow_to
$LN4@Grow_to:
  00023	03 c1		 add	 eax, ecx
$LN5@Grow_to:

; 1279 : 		if (_Capacity < _Count)

  00025	3b 45 08	 cmp	 eax, DWORD PTR __Count$[ebp]

; 1280 : 			_Capacity = _Count;

  00028	0f 42 45 08	 cmovb	 eax, DWORD PTR __Count$[ebp]

; 1281 : 		return (_Capacity);
; 1282 : 		}

  0002c	5d		 pop	 ebp
  0002d	c2 04 00	 ret	 4
?_Grow_to@?$vector@UHelpText@@V?$allocator@UHelpText@@@std@@@std@@IBEII@Z ENDP ; std::vector<HelpText,std::allocator<HelpText> >::_Grow_to
_TEXT	ENDS
PUBLIC	?_Grow_to@?$vector@UModeHelp@@V?$allocator@UModeHelp@@@std@@@std@@IBEII@Z ; std::vector<ModeHelp,std::allocator<ModeHelp> >::_Grow_to
; Function compile flags: /Ogsp
;	COMDAT ?_Grow_to@?$vector@UModeHelp@@V?$allocator@UModeHelp@@@std@@@std@@IBEII@Z
_TEXT	SEGMENT
__Count$ = 8						; size = 4
?_Grow_to@?$vector@UModeHelp@@V?$allocator@UModeHelp@@@std@@@std@@IBEII@Z PROC ; std::vector<ModeHelp,std::allocator<ModeHelp> >::_Grow_to, COMDAT
; _this$ = ecx

; 1274 : 		{	// grow by 50% or at least to _Count

  00000	55		 push	 ebp
  00001	8b ec		 mov	 ebp, esp

; 1275 : 		size_type _Capacity = capacity();

  00003	8b 41 08	 mov	 eax, DWORD PTR [ecx+8]
  00006	2b 01		 sub	 eax, DWORD PTR [ecx]
  00008	6a 2c		 push	 44			; 0000002cH
  0000a	99		 cdq
  0000b	59		 pop	 ecx
  0000c	f7 f9		 idiv	 ecx

; 1276 : 
; 1277 : 		_Capacity = max_size() - _Capacity / 2 < _Capacity
; 1278 : 			? 0 : _Capacity + _Capacity / 2;	// try to grow by 50%

  0000e	ba 5d 74 d1 05	 mov	 edx, 97612893		; 05d1745dH
  00013	8b c8		 mov	 ecx, eax
  00015	d1 e9		 shr	 ecx, 1
  00017	2b d1		 sub	 edx, ecx
  00019	3b d0		 cmp	 edx, eax
  0001b	73 04		 jae	 SHORT $LN4@Grow_to@2
  0001d	33 c0		 xor	 eax, eax
  0001f	eb 02		 jmp	 SHORT $LN5@Grow_to@2
$LN4@Grow_to@2:
  00021	03 c1		 add	 eax, ecx
$LN5@Grow_to@2:

; 1279 : 		if (_Capacity < _Count)

  00023	3b 45 08	 cmp	 eax, DWORD PTR __Count$[ebp]

; 1280 : 			_Capacity = _Count;

  00026	0f 42 45 08	 cmovb	 eax, DWORD PTR __Count$[ebp]

; 1281 : 		return (_Capacity);
; 1282 : 		}

  0002a	5d		 pop	 ebp
  0002b	c2 04 00	 ret	 4
?_Grow_to@?$vector@UModeHelp@@V?$allocator@UModeHelp@@@std@@@std@@IBEII@Z ENDP ; std::vector<ModeHelp,std::allocator<ModeHelp> >::_Grow_to
_TEXT	ENDS
PUBLIC	??0?$_Vector_iterator@V?$_Vector_val@UModeHelp@@V?$allocator@UModeHelp@@@std@@@std@@@std@@QAE@PAUModeHelp@@PBU_Container_base0@1@@Z ; std::_Vector_iterator<std::_Vector_val<ModeHelp,std::allocator<ModeHelp> > >::_Vector_iterator<std::_Vector_val<ModeHelp,std::allocator<ModeHelp> > >
; Function compile flags: /Ogsp
;	COMDAT ??0?$_Vector_iterator@V?$_Vector_val@UModeHelp@@V?$allocator@UModeHelp@@@std@@@std@@@std@@QAE@PAUModeHelp@@PBU_Container_base0@1@@Z
_TEXT	SEGMENT
__Parg$ = 8						; size = 4
__Pvector$ = 12						; size = 4
??0?$_Vector_iterator@V?$_Vector_val@UModeHelp@@V?$allocator@UModeHelp@@@std@@@std@@@std@@QAE@PAUModeHelp@@PBU_Container_base0@1@@Z PROC ; std::_Vector_iterator<std::_Vector_val<ModeHelp,std::allocator<ModeHelp> > >::_Vector_iterator<std::_Vector_val<ModeHelp,std::allocator<ModeHelp> > >, COMDAT
; _this$ = ecx

; 304  : 		{	// construct with pointer _Parg

  00000	55		 push	 ebp
  00001	8b ec		 mov	 ebp, esp
  00003	8b c1		 mov	 eax, ecx
  00005	8b 4d 08	 mov	 ecx, DWORD PTR __Parg$[ebp]
  00008	89 08		 mov	 DWORD PTR [eax], ecx

; 305  : 		}

  0000a	5d		 pop	 ebp
  0000b	c2 08 00	 ret	 8
??0?$_Vector_iterator@V?$_Vector_val@UModeHelp@@V?$allocator@UModeHelp@@@std@@@std@@@std@@QAE@PAUModeHelp@@PBU_Container_base0@1@@Z ENDP ; std::_Vector_iterator<std::_Vector_val<ModeHelp,std::allocator<ModeHelp> > >::_Vector_iterator<std::_Vector_val<ModeHelp,std::allocator<ModeHelp> > >
_TEXT	ENDS
PUBLIC	?allocate@?$allocator@UHelpText@@@std@@QAEPAUHelpText@@I@Z ; std::allocator<HelpText>::allocate
; Function compile flags: /Ogsp
; File c:\program files (x86)\microsoft visual studio 10.0\vc\include\xmemory
;	COMDAT ?allocate@?$allocator@UHelpText@@@std@@QAEPAUHelpText@@I@Z
_TEXT	SEGMENT
__Count$ = 8						; size = 4
?allocate@?$allocator@UHelpText@@@std@@QAEPAUHelpText@@I@Z PROC ; std::allocator<HelpText>::allocate, COMDAT
; _this$ = ecx

; 186  : 		{	// allocate array of _Count elements

  00000	55		 push	 ebp
  00001	8b ec		 mov	 ebp, esp

; 187  : 		return (_Allocate(_Count, (pointer)0));

  00003	6a 00		 push	 0
  00005	ff 75 08	 push	 DWORD PTR __Count$[ebp]
  00008	e8 00 00 00 00	 call	 ??$_Allocate@UHelpText@@@std@@YAPAUHelpText@@IPAU1@@Z ; std::_Allocate<HelpText>
  0000d	59		 pop	 ecx
  0000e	59		 pop	 ecx

; 188  : 		}

  0000f	5d		 pop	 ebp
  00010	c2 04 00	 ret	 4
?allocate@?$allocator@UHelpText@@@std@@QAEPAUHelpText@@I@Z ENDP ; std::allocator<HelpText>::allocate
_TEXT	ENDS
PUBLIC	??8?$_Vector_const_iterator@V?$_Vector_val@UModeHelp@@V?$allocator@UModeHelp@@@std@@@std@@@std@@QBE_NABV01@@Z ; std::_Vector_const_iterator<std::_Vector_val<ModeHelp,std::allocator<ModeHelp> > >::operator==
; Function compile flags: /Ogsp
; File c:\program files (x86)\microsoft visual studio 10.0\vc\include\vector
;	COMDAT ??8?$_Vector_const_iterator@V?$_Vector_val@UModeHelp@@V?$allocator@UModeHelp@@@std@@@std@@@std@@QBE_NABV01@@Z
_TEXT	SEGMENT
__Right$ = 8						; size = 4
??8?$_Vector_const_iterator@V?$_Vector_val@UModeHelp@@V?$allocator@UModeHelp@@@std@@@std@@@std@@QBE_NABV01@@Z PROC ; std::_Vector_const_iterator<std::_Vector_val<ModeHelp,std::allocator<ModeHelp> > >::operator==, COMDAT
; _this$ = ecx

; 201  : 		{	// test for iterator equality

  00000	55		 push	 ebp
  00001	8b ec		 mov	 ebp, esp

; 202  : 		_Compat(_Right);
; 203  : 		return (this->_Ptr == _Right._Ptr);

  00003	8b 01		 mov	 eax, DWORD PTR [ecx]
  00005	8b 4d 08	 mov	 ecx, DWORD PTR __Right$[ebp]
  00008	2b 01		 sub	 eax, DWORD PTR [ecx]
  0000a	f7 d8		 neg	 eax
  0000c	1b c0		 sbb	 eax, eax
  0000e	40		 inc	 eax

; 204  : 		}

  0000f	5d		 pop	 ebp
  00010	c2 04 00	 ret	 4
??8?$_Vector_const_iterator@V?$_Vector_val@UModeHelp@@V?$allocator@UModeHelp@@@std@@@std@@@std@@QBE_NABV01@@Z ENDP ; std::_Vector_const_iterator<std::_Vector_val<ModeHelp,std::allocator<ModeHelp> > >::operator==
_TEXT	ENDS
PUBLIC	__$ArrayPad$
PUBLIC	??$SetTitle_e@$06@ioINILoader@@QAEXAAY06$$CBD@Z	; ioINILoader::SetTitle_e<7>
EXTRN	__imp_?SetTitle@ioINILoader@@QAEXPBD@Z:PROC
EXTRN	___security_cookie:DWORD
EXTRN	@__security_check_cookie@4:PROC
; Function compile flags: /Ogsp
; File d:\lost saga for developer\youtube\tutorial\source\src\io3dengine\ioiniloader.h
;	COMDAT ??$SetTitle_e@$06@ioINILoader@@QAEXAAY06$$CBD@Z
_TEXT	SEGMENT
__t$ = -16						; size = 7
__$ArrayPad$ = -4					; size = 4
_t$ = 8							; size = 4
??$SetTitle_e@$06@ioINILoader@@QAEXAAY06$$CBD@Z PROC	; ioINILoader::SetTitle_e<7>, COMDAT
; _this$ = ecx

; 188  : 	{

  00000	55		 push	 ebp
  00001	8b ec		 mov	 ebp, esp
  00003	83 ec 10	 sub	 esp, 16			; 00000010H
  00006	a1 00 00 00 00	 mov	 eax, DWORD PTR ___security_cookie
  0000b	33 c5		 xor	 eax, ebp
  0000d	89 45 fc	 mov	 DWORD PTR __$ArrayPad$[ebp], eax
  00010	8b 45 08	 mov	 eax, DWORD PTR _t$[ebp]

; 189  : 		_ENCSTR(t, _t);

  00013	8a 10		 mov	 dl, BYTE PTR [eax]
  00015	56		 push	 esi
  00016	8b f1		 mov	 esi, ecx
  00018	84 d2		 test	 dl, dl
  0001a	0f 84 c0 00 00
	00		 je	 $LN96@SetTitle_e
  00020	80 f2 ed	 xor	 dl, -19			; ffffffedH
  00023	88 55 f0	 mov	 BYTE PTR __t$[ebp], dl
  00026	8a 50 01	 mov	 dl, BYTE PTR [eax+1]
  00029	84 d2		 test	 dl, dl
  0002b	0f 84 a9 00 00
	00		 je	 $LN95@SetTitle_e
  00031	80 f2 ec	 xor	 dl, -20			; ffffffecH
  00034	88 55 f1	 mov	 BYTE PTR __t$[ebp+1], dl
  00037	8a 50 02	 mov	 dl, BYTE PTR [eax+2]
  0003a	84 d2		 test	 dl, dl
  0003c	0f 84 92 00 00
	00		 je	 $LN94@SetTitle_e
  00042	80 f2 eb	 xor	 dl, -21			; ffffffebH
  00045	88 55 f2	 mov	 BYTE PTR __t$[ebp+2], dl
  00048	8a 50 03	 mov	 dl, BYTE PTR [eax+3]
  0004b	84 d2		 test	 dl, dl
  0004d	74 7f		 je	 SHORT $LN93@SetTitle_e
  0004f	80 f2 ea	 xor	 dl, -22			; ffffffeaH
  00052	88 55 f3	 mov	 BYTE PTR __t$[ebp+3], dl
  00055	8a 50 04	 mov	 dl, BYTE PTR [eax+4]
  00058	84 d2		 test	 dl, dl
  0005a	74 6c		 je	 SHORT $LN92@SetTitle_e
  0005c	80 f2 ed	 xor	 dl, -19			; ffffffedH
  0005f	88 55 f4	 mov	 BYTE PTR __t$[ebp+4], dl
  00062	8a 50 05	 mov	 dl, BYTE PTR [eax+5]
  00065	84 d2		 test	 dl, dl
  00067	74 59		 je	 SHORT $LN91@SetTitle_e
  00069	80 f2 ec	 xor	 dl, -20			; ffffffecH
  0006c	80 78 06 00	 cmp	 BYTE PTR [eax+6], 0
  00070	88 55 f5	 mov	 BYTE PTR __t$[ebp+5], dl
  00073	74 6f		 je	 SHORT $LN1@SetTitle_e
  00075	8a 50 07	 mov	 dl, BYTE PTR [eax+7]
  00078	84 d2		 test	 dl, dl
  0007a	74 40		 je	 SHORT $LN89@SetTitle_e
  0007c	80 f2 ea	 xor	 dl, -22			; ffffffeaH
  0007f	88 55 f7	 mov	 BYTE PTR __t$[ebp+7], dl
  00082	8a 50 08	 mov	 dl, BYTE PTR [eax+8]
  00085	84 d2		 test	 dl, dl
  00087	74 2d		 je	 SHORT $LN88@SetTitle_e
  00089	80 f2 ed	 xor	 dl, -19			; ffffffedH
  0008c	88 55 f8	 mov	 BYTE PTR __t$[ebp+8], dl
  0008f	8a 50 09	 mov	 dl, BYTE PTR [eax+9]
  00092	84 d2		 test	 dl, dl
  00094	74 1a		 je	 SHORT $LN87@SetTitle_e
  00096	8a 40 0a	 mov	 al, BYTE PTR [eax+10]
  00099	80 f2 ec	 xor	 dl, -20			; ffffffecH
  0009c	88 55 f9	 mov	 BYTE PTR __t$[ebp+9], dl
  0009f	84 c0		 test	 al, al
  000a1	74 07		 je	 SHORT $LN86@SetTitle_e
  000a3	34 eb		 xor	 al, -21			; ffffffebH
  000a5	88 45 fa	 mov	 BYTE PTR __t$[ebp+10], al
  000a8	eb 3a		 jmp	 SHORT $LN1@SetTitle_e
$LN86@SetTitle_e:
  000aa	c6 45 fa eb	 mov	 BYTE PTR __t$[ebp+10], -21 ; ffffffebH
  000ae	eb 34		 jmp	 SHORT $LN1@SetTitle_e
$LN87@SetTitle_e:
  000b0	c6 45 f9 ec	 mov	 BYTE PTR __t$[ebp+9], -20 ; ffffffecH
  000b4	eb 2e		 jmp	 SHORT $LN1@SetTitle_e
$LN88@SetTitle_e:
  000b6	c6 45 f8 ed	 mov	 BYTE PTR __t$[ebp+8], -19 ; ffffffedH
  000ba	eb 28		 jmp	 SHORT $LN1@SetTitle_e
$LN89@SetTitle_e:
  000bc	c6 45 f7 ea	 mov	 BYTE PTR __t$[ebp+7], -22 ; ffffffeaH
  000c0	eb 22		 jmp	 SHORT $LN1@SetTitle_e
$LN91@SetTitle_e:
  000c2	c6 45 f5 ec	 mov	 BYTE PTR __t$[ebp+5], -20 ; ffffffecH
  000c6	eb 1c		 jmp	 SHORT $LN1@SetTitle_e
$LN92@SetTitle_e:
  000c8	c6 45 f4 ed	 mov	 BYTE PTR __t$[ebp+4], -19 ; ffffffedH
  000cc	eb 16		 jmp	 SHORT $LN1@SetTitle_e
$LN93@SetTitle_e:
  000ce	c6 45 f3 ea	 mov	 BYTE PTR __t$[ebp+3], -22 ; ffffffeaH
  000d2	eb 10		 jmp	 SHORT $LN1@SetTitle_e
$LN94@SetTitle_e:
  000d4	c6 45 f2 eb	 mov	 BYTE PTR __t$[ebp+2], -21 ; ffffffebH
  000d8	eb 0a		 jmp	 SHORT $LN1@SetTitle_e
$LN95@SetTitle_e:
  000da	c6 45 f1 ec	 mov	 BYTE PTR __t$[ebp+1], -20 ; ffffffecH
  000de	eb 04		 jmp	 SHORT $LN1@SetTitle_e
$LN96@SetTitle_e:
  000e0	c6 45 f0 ed	 mov	 BYTE PTR __t$[ebp], -19	; ffffffedH
$LN1@SetTitle_e:
  000e4	81 75 f0 ed ec
	eb ea		 xor	 DWORD PTR __t$[ebp], -353637139 ; eaebecedH
  000eb	6a 04		 push	 4
  000ed	c6 45 f6 00	 mov	 BYTE PTR __t$[ebp+6], 0
  000f1	58		 pop	 eax
$LL101@SetTitle_e:
  000f2	8b c8		 mov	 ecx, eax
  000f4	81 e1 03 00 00
	80		 and	 ecx, -2147483645	; 80000003H
  000fa	79 05		 jns	 SHORT $LN111@SetTitle_e
  000fc	49		 dec	 ecx
  000fd	83 c9 fc	 or	 ecx, -4			; fffffffcH
  00100	41		 inc	 ecx
$LN111@SetTitle_e:
  00101	b2 ed		 mov	 dl, -19			; ffffffedH
  00103	2a d1		 sub	 dl, cl
  00105	30 54 05 f0	 xor	 BYTE PTR __t$[ebp+eax], dl
  00109	40		 inc	 eax
  0010a	83 f8 06	 cmp	 eax, 6
  0010d	7c e3		 jl	 SHORT $LL101@SetTitle_e

; 190  : 		SetTitle(_t);

  0010f	8d 45 f0	 lea	 eax, DWORD PTR __t$[ebp]
  00112	50		 push	 eax
  00113	8b ce		 mov	 ecx, esi
  00115	ff 15 00 00 00
	00		 call	 DWORD PTR __imp_?SetTitle@ioINILoader@@QAEXPBD@Z

; 191  : 	}

  0011b	8b 4d fc	 mov	 ecx, DWORD PTR __$ArrayPad$[ebp]
  0011e	33 cd		 xor	 ecx, ebp
  00120	5e		 pop	 esi
  00121	e8 00 00 00 00	 call	 @__security_check_cookie@4
  00126	c9		 leave
  00127	c2 04 00	 ret	 4
??$SetTitle_e@$06@ioINILoader@@QAEXAAY06$$CBD@Z ENDP	; ioINILoader::SetTitle_e<7>
_TEXT	ENDS
PUBLIC	__$ArrayPad$
PUBLIC	??$LoadInt_e@$0P@@ioINILoader@@QAEHAAY0P@$$CBDH@Z ; ioINILoader::LoadInt_e<15>
EXTRN	__imp_?LoadInt@ioINILoader@@QAEHPBDH@Z:PROC
; Function compile flags: /Ogsp
;	COMDAT ??$LoadInt_e@$0P@@ioINILoader@@QAEHAAY0P@$$CBDH@Z
_TEXT	SEGMENT
__k$ = -24						; size = 15
__$ArrayPad$ = -4					; size = 4
_k$ = 8							; size = 4
_i$ = 12						; size = 4
??$LoadInt_e@$0P@@ioINILoader@@QAEHAAY0P@$$CBDH@Z PROC	; ioINILoader::LoadInt_e<15>, COMDAT
; _this$ = ecx

; 118  : 	{

  00000	55		 push	 ebp
  00001	8b ec		 mov	 ebp, esp
  00003	83 ec 18	 sub	 esp, 24			; 00000018H
  00006	a1 00 00 00 00	 mov	 eax, DWORD PTR ___security_cookie
  0000b	33 c5		 xor	 eax, ebp
  0000d	89 45 fc	 mov	 DWORD PTR __$ArrayPad$[ebp], eax
  00010	8b 45 08	 mov	 eax, DWORD PTR _k$[ebp]

; 119  : 		_ENCSTR(k, _k);

  00013	8a 10		 mov	 dl, BYTE PTR [eax]
  00015	56		 push	 esi
  00016	8b f1		 mov	 esi, ecx
  00018	84 d2		 test	 dl, dl
  0001a	0f 84 75 01 00
	00		 je	 $LN96@LoadInt_e
  00020	80 f2 ed	 xor	 dl, -19			; ffffffedH
  00023	88 55 e8	 mov	 BYTE PTR __k$[ebp], dl
  00026	8a 50 01	 mov	 dl, BYTE PTR [eax+1]
  00029	84 d2		 test	 dl, dl
  0002b	0f 84 5e 01 00
	00		 je	 $LN95@LoadInt_e
  00031	b1 ec		 mov	 cl, -20			; ffffffecH
  00033	32 d1		 xor	 dl, cl
  00035	88 55 e9	 mov	 BYTE PTR __k$[ebp+1], dl
  00038	8a 50 02	 mov	 dl, BYTE PTR [eax+2]
  0003b	84 d2		 test	 dl, dl
  0003d	0f 84 46 01 00
	00		 je	 $LN94@LoadInt_e
  00043	80 f2 eb	 xor	 dl, -21			; ffffffebH
  00046	88 55 ea	 mov	 BYTE PTR __k$[ebp+2], dl
  00049	8a 50 03	 mov	 dl, BYTE PTR [eax+3]
  0004c	84 d2		 test	 dl, dl
  0004e	0f 84 2f 01 00
	00		 je	 $LN93@LoadInt_e
  00054	80 f2 ea	 xor	 dl, -22			; ffffffeaH
  00057	88 55 eb	 mov	 BYTE PTR __k$[ebp+3], dl
  0005a	8a 50 04	 mov	 dl, BYTE PTR [eax+4]
  0005d	84 d2		 test	 dl, dl
  0005f	0f 84 18 01 00
	00		 je	 $LN92@LoadInt_e
  00065	80 f2 ed	 xor	 dl, -19			; ffffffedH
  00068	88 55 ec	 mov	 BYTE PTR __k$[ebp+4], dl
  0006b	8a 50 05	 mov	 dl, BYTE PTR [eax+5]
  0006e	84 d2		 test	 dl, dl
  00070	0f 84 02 01 00
	00		 je	 $LN91@LoadInt_e
  00076	32 d1		 xor	 dl, cl
  00078	88 55 ed	 mov	 BYTE PTR __k$[ebp+5], dl
  0007b	8a 50 06	 mov	 dl, BYTE PTR [eax+6]
  0007e	84 d2		 test	 dl, dl
  00080	0f 84 ec 00 00
	00		 je	 $LN90@LoadInt_e
  00086	80 f2 eb	 xor	 dl, -21			; ffffffebH
  00089	88 55 ee	 mov	 BYTE PTR __k$[ebp+6], dl
  0008c	8a 50 07	 mov	 dl, BYTE PTR [eax+7]
  0008f	84 d2		 test	 dl, dl
  00091	0f 84 d5 00 00
	00		 je	 $LN89@LoadInt_e
  00097	80 f2 ea	 xor	 dl, -22			; ffffffeaH
  0009a	88 55 ef	 mov	 BYTE PTR __k$[ebp+7], dl
  0009d	8a 50 08	 mov	 dl, BYTE PTR [eax+8]
  000a0	84 d2		 test	 dl, dl
  000a2	0f 84 be 00 00
	00		 je	 $LN88@LoadInt_e
  000a8	80 f2 ed	 xor	 dl, -19			; ffffffedH
  000ab	88 55 f0	 mov	 BYTE PTR __k$[ebp+8], dl
  000ae	8a 50 09	 mov	 dl, BYTE PTR [eax+9]
  000b1	84 d2		 test	 dl, dl
  000b3	0f 84 a8 00 00
	00		 je	 $LN87@LoadInt_e
  000b9	32 d1		 xor	 dl, cl
  000bb	88 55 f1	 mov	 BYTE PTR __k$[ebp+9], dl
  000be	8a 50 0a	 mov	 dl, BYTE PTR [eax+10]
  000c1	84 d2		 test	 dl, dl
  000c3	0f 84 92 00 00
	00		 je	 $LN86@LoadInt_e
  000c9	80 f2 eb	 xor	 dl, -21			; ffffffebH
  000cc	88 55 f2	 mov	 BYTE PTR __k$[ebp+10], dl
  000cf	8a 50 0b	 mov	 dl, BYTE PTR [eax+11]
  000d2	84 d2		 test	 dl, dl
  000d4	74 7f		 je	 SHORT $LN85@LoadInt_e
  000d6	80 f2 ea	 xor	 dl, -22			; ffffffeaH
  000d9	88 55 f3	 mov	 BYTE PTR __k$[ebp+11], dl
  000dc	8a 50 0c	 mov	 dl, BYTE PTR [eax+12]
  000df	84 d2		 test	 dl, dl
  000e1	74 6c		 je	 SHORT $LN84@LoadInt_e
  000e3	80 f2 ed	 xor	 dl, -19			; ffffffedH
  000e6	88 55 f4	 mov	 BYTE PTR __k$[ebp+12], dl
  000e9	8a 50 0d	 mov	 dl, BYTE PTR [eax+13]
  000ec	84 d2		 test	 dl, dl
  000ee	74 5a		 je	 SHORT $LN83@LoadInt_e
  000f0	32 d1		 xor	 dl, cl
  000f2	80 78 0e 00	 cmp	 BYTE PTR [eax+14], 0
  000f6	88 55 f5	 mov	 BYTE PTR __k$[ebp+13], dl
  000f9	0f 84 9a 00 00
	00		 je	 $LN1@LoadInt_e
  000ff	8a 50 0f	 mov	 dl, BYTE PTR [eax+15]
  00102	84 d2		 test	 dl, dl
  00104	74 3e		 je	 SHORT $LN81@LoadInt_e
  00106	80 f2 ea	 xor	 dl, -22			; ffffffeaH
  00109	88 55 f7	 mov	 BYTE PTR __k$[ebp+15], dl
  0010c	8a 50 10	 mov	 dl, BYTE PTR [eax+16]
  0010f	84 d2		 test	 dl, dl
  00111	74 2b		 je	 SHORT $LN80@LoadInt_e
  00113	80 f2 ed	 xor	 dl, -19			; ffffffedH
  00116	88 55 f8	 mov	 BYTE PTR __k$[ebp+16], dl
  00119	8a 50 11	 mov	 dl, BYTE PTR [eax+17]
  0011c	84 d2		 test	 dl, dl
  0011e	74 19		 je	 SHORT $LN79@LoadInt_e
  00120	8a 40 12	 mov	 al, BYTE PTR [eax+18]
  00123	32 d1		 xor	 dl, cl
  00125	88 55 f9	 mov	 BYTE PTR __k$[ebp+17], dl
  00128	84 c0		 test	 al, al
  0012a	74 07		 je	 SHORT $LN78@LoadInt_e
  0012c	34 eb		 xor	 al, -21			; ffffffebH
  0012e	88 45 fa	 mov	 BYTE PTR __k$[ebp+18], al
  00131	eb 66		 jmp	 SHORT $LN1@LoadInt_e
$LN78@LoadInt_e:
  00133	c6 45 fa eb	 mov	 BYTE PTR __k$[ebp+18], -21 ; ffffffebH
  00137	eb 60		 jmp	 SHORT $LN1@LoadInt_e
$LN79@LoadInt_e:
  00139	88 4d f9	 mov	 BYTE PTR __k$[ebp+17], cl
  0013c	eb 5b		 jmp	 SHORT $LN1@LoadInt_e
$LN80@LoadInt_e:
  0013e	c6 45 f8 ed	 mov	 BYTE PTR __k$[ebp+16], -19 ; ffffffedH
  00142	eb 55		 jmp	 SHORT $LN1@LoadInt_e
$LN81@LoadInt_e:
  00144	c6 45 f7 ea	 mov	 BYTE PTR __k$[ebp+15], -22 ; ffffffeaH
  00148	eb 4f		 jmp	 SHORT $LN1@LoadInt_e
$LN83@LoadInt_e:
  0014a	88 4d f5	 mov	 BYTE PTR __k$[ebp+13], cl
  0014d	eb 4a		 jmp	 SHORT $LN1@LoadInt_e
$LN84@LoadInt_e:
  0014f	c6 45 f4 ed	 mov	 BYTE PTR __k$[ebp+12], -19 ; ffffffedH
  00153	eb 44		 jmp	 SHORT $LN1@LoadInt_e
$LN85@LoadInt_e:
  00155	c6 45 f3 ea	 mov	 BYTE PTR __k$[ebp+11], -22 ; ffffffeaH
  00159	eb 3e		 jmp	 SHORT $LN1@LoadInt_e
$LN86@LoadInt_e:
  0015b	c6 45 f2 eb	 mov	 BYTE PTR __k$[ebp+10], -21 ; ffffffebH
  0015f	eb 38		 jmp	 SHORT $LN1@LoadInt_e
$LN87@LoadInt_e:
  00161	88 4d f1	 mov	 BYTE PTR __k$[ebp+9], cl
  00164	eb 33		 jmp	 SHORT $LN1@LoadInt_e
$LN88@LoadInt_e:
  00166	c6 45 f0 ed	 mov	 BYTE PTR __k$[ebp+8], -19 ; ffffffedH
  0016a	eb 2d		 jmp	 SHORT $LN1@LoadInt_e
$LN89@LoadInt_e:
  0016c	c6 45 ef ea	 mov	 BYTE PTR __k$[ebp+7], -22 ; ffffffeaH
  00170	eb 27		 jmp	 SHORT $LN1@LoadInt_e
$LN90@LoadInt_e:
  00172	c6 45 ee eb	 mov	 BYTE PTR __k$[ebp+6], -21 ; ffffffebH
  00176	eb 21		 jmp	 SHORT $LN1@LoadInt_e
$LN91@LoadInt_e:
  00178	88 4d ed	 mov	 BYTE PTR __k$[ebp+5], cl
  0017b	eb 1c		 jmp	 SHORT $LN1@LoadInt_e
$LN92@LoadInt_e:
  0017d	c6 45 ec ed	 mov	 BYTE PTR __k$[ebp+4], -19 ; ffffffedH
  00181	eb 16		 jmp	 SHORT $LN1@LoadInt_e
$LN93@LoadInt_e:
  00183	c6 45 eb ea	 mov	 BYTE PTR __k$[ebp+3], -22 ; ffffffeaH
  00187	eb 10		 jmp	 SHORT $LN1@LoadInt_e
$LN94@LoadInt_e:
  00189	c6 45 ea eb	 mov	 BYTE PTR __k$[ebp+2], -21 ; ffffffebH
  0018d	eb 0a		 jmp	 SHORT $LN1@LoadInt_e
$LN95@LoadInt_e:
  0018f	c6 45 e9 ec	 mov	 BYTE PTR __k$[ebp+1], -20 ; ffffffecH
  00193	eb 04		 jmp	 SHORT $LN1@LoadInt_e
$LN96@LoadInt_e:
  00195	c6 45 e8 ed	 mov	 BYTE PTR __k$[ebp], -19	; ffffffedH
$LN1@LoadInt_e:
  00199	6a 03		 push	 3
  0019b	8d 45 e8	 lea	 eax, DWORD PTR __k$[ebp]
  0019e	c6 45 f6 00	 mov	 BYTE PTR __k$[ebp+14], 0
  001a2	5a		 pop	 edx
$LL104@LoadInt_e:
  001a3	81 30 ed ec eb
	ea		 xor	 DWORD PTR [eax], -353637139 ; eaebecedH
  001a9	83 c0 04	 add	 eax, 4
  001ac	4a		 dec	 edx
  001ad	75 f4		 jne	 SHORT $LL104@LoadInt_e
  001af	6a 0c		 push	 12			; 0000000cH
  001b1	58		 pop	 eax
$LL101@LoadInt_e:
  001b2	8b c8		 mov	 ecx, eax
  001b4	81 e1 03 00 00
	80		 and	 ecx, -2147483645	; 80000003H
  001ba	79 05		 jns	 SHORT $LN111@LoadInt_e
  001bc	49		 dec	 ecx
  001bd	83 c9 fc	 or	 ecx, -4			; fffffffcH
  001c0	41		 inc	 ecx
$LN111@LoadInt_e:
  001c1	b2 ed		 mov	 dl, -19			; ffffffedH
  001c3	2a d1		 sub	 dl, cl
  001c5	30 54 05 e8	 xor	 BYTE PTR __k$[ebp+eax], dl
  001c9	40		 inc	 eax
  001ca	83 f8 0e	 cmp	 eax, 14			; 0000000eH
  001cd	7c e3		 jl	 SHORT $LL101@LoadInt_e

; 120  : 		return LoadInt(_k, i);

  001cf	ff 75 0c	 push	 DWORD PTR _i$[ebp]
  001d2	8d 45 e8	 lea	 eax, DWORD PTR __k$[ebp]
  001d5	50		 push	 eax
  001d6	8b ce		 mov	 ecx, esi
  001d8	ff 15 00 00 00
	00		 call	 DWORD PTR __imp_?LoadInt@ioINILoader@@QAEHPBDH@Z

; 121  : 	}

  001de	8b 4d fc	 mov	 ecx, DWORD PTR __$ArrayPad$[ebp]
  001e1	33 cd		 xor	 ecx, ebp
  001e3	5e		 pop	 esi
  001e4	e8 00 00 00 00	 call	 @__security_check_cookie@4
  001e9	c9		 leave
  001ea	c2 08 00	 ret	 8
??$LoadInt_e@$0P@@ioINILoader@@QAEHAAY0P@$$CBDH@Z ENDP	; ioINILoader::LoadInt_e<15>
_TEXT	ENDS
PUBLIC	__$ArrayPad$
PUBLIC	??$LoadInt_e@$04@ioINILoader@@QAEHAAY04$$CBDH@Z	; ioINILoader::LoadInt_e<5>
; Function compile flags: /Ogsp
;	COMDAT ??$LoadInt_e@$04@ioINILoader@@QAEHAAY04$$CBDH@Z
_TEXT	SEGMENT
__k$ = -16						; size = 5
__$ArrayPad$ = -4					; size = 4
_k$ = 8							; size = 4
_i$ = 12						; size = 4
??$LoadInt_e@$04@ioINILoader@@QAEHAAY04$$CBDH@Z PROC	; ioINILoader::LoadInt_e<5>, COMDAT
; _this$ = ecx

; 118  : 	{

  00000	55		 push	 ebp
  00001	8b ec		 mov	 ebp, esp
  00003	83 ec 10	 sub	 esp, 16			; 00000010H
  00006	a1 00 00 00 00	 mov	 eax, DWORD PTR ___security_cookie
  0000b	33 c5		 xor	 eax, ebp
  0000d	89 45 fc	 mov	 DWORD PTR __$ArrayPad$[ebp], eax
  00010	8b 45 08	 mov	 eax, DWORD PTR _k$[ebp]

; 119  : 		_ENCSTR(k, _k);

  00013	8a 10		 mov	 dl, BYTE PTR [eax]
  00015	84 d2		 test	 dl, dl
  00017	0f 84 92 00 00
	00		 je	 $LN96@LoadInt_e@2
  0001d	80 f2 ed	 xor	 dl, -19			; ffffffedH
  00020	88 55 f0	 mov	 BYTE PTR __k$[ebp], dl
  00023	8a 50 01	 mov	 dl, BYTE PTR [eax+1]
  00026	84 d2		 test	 dl, dl
  00028	74 7f		 je	 SHORT $LN95@LoadInt_e@2
  0002a	80 f2 ec	 xor	 dl, -20			; ffffffecH
  0002d	88 55 f1	 mov	 BYTE PTR __k$[ebp+1], dl
  00030	8a 50 02	 mov	 dl, BYTE PTR [eax+2]
  00033	84 d2		 test	 dl, dl
  00035	74 6c		 je	 SHORT $LN94@LoadInt_e@2
  00037	80 f2 eb	 xor	 dl, -21			; ffffffebH
  0003a	88 55 f2	 mov	 BYTE PTR __k$[ebp+2], dl
  0003d	8a 50 03	 mov	 dl, BYTE PTR [eax+3]
  00040	84 d2		 test	 dl, dl
  00042	74 59		 je	 SHORT $LN93@LoadInt_e@2
  00044	80 f2 ea	 xor	 dl, -22			; ffffffeaH
  00047	80 78 04 00	 cmp	 BYTE PTR [eax+4], 0
  0004b	88 55 f3	 mov	 BYTE PTR __k$[ebp+3], dl
  0004e	74 63		 je	 SHORT $LN1@LoadInt_e@2
  00050	8a 50 05	 mov	 dl, BYTE PTR [eax+5]
  00053	84 d2		 test	 dl, dl
  00055	74 40		 je	 SHORT $LN91@LoadInt_e@2
  00057	80 f2 ec	 xor	 dl, -20			; ffffffecH
  0005a	88 55 f5	 mov	 BYTE PTR __k$[ebp+5], dl
  0005d	8a 50 06	 mov	 dl, BYTE PTR [eax+6]
  00060	84 d2		 test	 dl, dl
  00062	74 2d		 je	 SHORT $LN90@LoadInt_e@2
  00064	80 f2 eb	 xor	 dl, -21			; ffffffebH
  00067	88 55 f6	 mov	 BYTE PTR __k$[ebp+6], dl
  0006a	8a 50 07	 mov	 dl, BYTE PTR [eax+7]
  0006d	84 d2		 test	 dl, dl
  0006f	74 1a		 je	 SHORT $LN89@LoadInt_e@2
  00071	8a 40 08	 mov	 al, BYTE PTR [eax+8]
  00074	80 f2 ea	 xor	 dl, -22			; ffffffeaH
  00077	88 55 f7	 mov	 BYTE PTR __k$[ebp+7], dl
  0007a	84 c0		 test	 al, al
  0007c	74 07		 je	 SHORT $LN88@LoadInt_e@2
  0007e	34 ed		 xor	 al, -19			; ffffffedH
  00080	88 45 f8	 mov	 BYTE PTR __k$[ebp+8], al
  00083	eb 2e		 jmp	 SHORT $LN1@LoadInt_e@2
$LN88@LoadInt_e@2:
  00085	c6 45 f8 ed	 mov	 BYTE PTR __k$[ebp+8], -19 ; ffffffedH
  00089	eb 28		 jmp	 SHORT $LN1@LoadInt_e@2
$LN89@LoadInt_e@2:
  0008b	c6 45 f7 ea	 mov	 BYTE PTR __k$[ebp+7], -22 ; ffffffeaH
  0008f	eb 22		 jmp	 SHORT $LN1@LoadInt_e@2
$LN90@LoadInt_e@2:
  00091	c6 45 f6 eb	 mov	 BYTE PTR __k$[ebp+6], -21 ; ffffffebH
  00095	eb 1c		 jmp	 SHORT $LN1@LoadInt_e@2
$LN91@LoadInt_e@2:
  00097	c6 45 f5 ec	 mov	 BYTE PTR __k$[ebp+5], -20 ; ffffffecH
  0009b	eb 16		 jmp	 SHORT $LN1@LoadInt_e@2
$LN93@LoadInt_e@2:
  0009d	c6 45 f3 ea	 mov	 BYTE PTR __k$[ebp+3], -22 ; ffffffeaH
  000a1	eb 10		 jmp	 SHORT $LN1@LoadInt_e@2
$LN94@LoadInt_e@2:
  000a3	c6 45 f2 eb	 mov	 BYTE PTR __k$[ebp+2], -21 ; ffffffebH
  000a7	eb 0a		 jmp	 SHORT $LN1@LoadInt_e@2
$LN95@LoadInt_e@2:
  000a9	c6 45 f1 ec	 mov	 BYTE PTR __k$[ebp+1], -20 ; ffffffecH
  000ad	eb 04		 jmp	 SHORT $LN1@LoadInt_e@2
$LN96@LoadInt_e@2:
  000af	c6 45 f0 ed	 mov	 BYTE PTR __k$[ebp], -19	; ffffffedH
$LN1@LoadInt_e@2:

; 120  : 		return LoadInt(_k, i);

  000b3	ff 75 0c	 push	 DWORD PTR _i$[ebp]
  000b6	81 75 f0 ed ec
	eb ea		 xor	 DWORD PTR __k$[ebp], -353637139 ; eaebecedH
  000bd	8d 45 f0	 lea	 eax, DWORD PTR __k$[ebp]
  000c0	50		 push	 eax
  000c1	c6 45 f4 00	 mov	 BYTE PTR __k$[ebp+4], 0
  000c5	ff 15 00 00 00
	00		 call	 DWORD PTR __imp_?LoadInt@ioINILoader@@QAEHPBDH@Z

; 121  : 	}

  000cb	8b 4d fc	 mov	 ecx, DWORD PTR __$ArrayPad$[ebp]
  000ce	33 cd		 xor	 ecx, ebp
  000d0	e8 00 00 00 00	 call	 @__security_check_cookie@4
  000d5	c9		 leave
  000d6	c2 08 00	 ret	 8
??$LoadInt_e@$04@ioINILoader@@QAEHAAY04$$CBDH@Z ENDP	; ioINILoader::LoadInt_e<5>
_TEXT	ENDS
PUBLIC	__$ArrayPad$
PUBLIC	??$LoadInt_e@$08@ioINILoader@@QAEHAAY08$$CBDH@Z	; ioINILoader::LoadInt_e<9>
; Function compile flags: /Ogsp
;	COMDAT ??$LoadInt_e@$08@ioINILoader@@QAEHAAY08$$CBDH@Z
_TEXT	SEGMENT
__k$ = -20						; size = 9
__$ArrayPad$ = -4					; size = 4
_k$ = 8							; size = 4
_i$ = 12						; size = 4
??$LoadInt_e@$08@ioINILoader@@QAEHAAY08$$CBDH@Z PROC	; ioINILoader::LoadInt_e<9>, COMDAT
; _this$ = ecx

; 118  : 	{

  00000	55		 push	 ebp
  00001	8b ec		 mov	 ebp, esp
  00003	83 ec 14	 sub	 esp, 20			; 00000014H
  00006	a1 00 00 00 00	 mov	 eax, DWORD PTR ___security_cookie
  0000b	33 c5		 xor	 eax, ebp
  0000d	89 45 fc	 mov	 DWORD PTR __$ArrayPad$[ebp], eax
  00010	8b 45 08	 mov	 eax, DWORD PTR _k$[ebp]

; 119  : 		_ENCSTR(k, _k);

  00013	8a 10		 mov	 dl, BYTE PTR [eax]
  00015	84 d2		 test	 dl, dl
  00017	0f 84 ee 00 00
	00		 je	 $LN96@LoadInt_e@3
  0001d	80 f2 ed	 xor	 dl, -19			; ffffffedH
  00020	88 55 ec	 mov	 BYTE PTR __k$[ebp], dl
  00023	8a 50 01	 mov	 dl, BYTE PTR [eax+1]
  00026	84 d2		 test	 dl, dl
  00028	0f 84 d7 00 00
	00		 je	 $LN95@LoadInt_e@3
  0002e	80 f2 ec	 xor	 dl, -20			; ffffffecH
  00031	88 55 ed	 mov	 BYTE PTR __k$[ebp+1], dl
  00034	8a 50 02	 mov	 dl, BYTE PTR [eax+2]
  00037	84 d2		 test	 dl, dl
  00039	0f 84 c0 00 00
	00		 je	 $LN94@LoadInt_e@3
  0003f	80 f2 eb	 xor	 dl, -21			; ffffffebH
  00042	88 55 ee	 mov	 BYTE PTR __k$[ebp+2], dl
  00045	8a 50 03	 mov	 dl, BYTE PTR [eax+3]
  00048	84 d2		 test	 dl, dl
  0004a	0f 84 a9 00 00
	00		 je	 $LN93@LoadInt_e@3
  00050	80 f2 ea	 xor	 dl, -22			; ffffffeaH
  00053	88 55 ef	 mov	 BYTE PTR __k$[ebp+3], dl
  00056	8a 50 04	 mov	 dl, BYTE PTR [eax+4]
  00059	84 d2		 test	 dl, dl
  0005b	0f 84 92 00 00
	00		 je	 $LN92@LoadInt_e@3
  00061	80 f2 ed	 xor	 dl, -19			; ffffffedH
  00064	88 55 f0	 mov	 BYTE PTR __k$[ebp+4], dl
  00067	8a 50 05	 mov	 dl, BYTE PTR [eax+5]
  0006a	84 d2		 test	 dl, dl
  0006c	74 7f		 je	 SHORT $LN91@LoadInt_e@3
  0006e	80 f2 ec	 xor	 dl, -20			; ffffffecH
  00071	88 55 f1	 mov	 BYTE PTR __k$[ebp+5], dl
  00074	8a 50 06	 mov	 dl, BYTE PTR [eax+6]
  00077	84 d2		 test	 dl, dl
  00079	74 6c		 je	 SHORT $LN90@LoadInt_e@3
  0007b	80 f2 eb	 xor	 dl, -21			; ffffffebH
  0007e	88 55 f2	 mov	 BYTE PTR __k$[ebp+6], dl
  00081	8a 50 07	 mov	 dl, BYTE PTR [eax+7]
  00084	84 d2		 test	 dl, dl
  00086	74 59		 je	 SHORT $LN89@LoadInt_e@3
  00088	80 f2 ea	 xor	 dl, -22			; ffffffeaH
  0008b	80 78 08 00	 cmp	 BYTE PTR [eax+8], 0
  0008f	88 55 f3	 mov	 BYTE PTR __k$[ebp+7], dl
  00092	74 7b		 je	 SHORT $LN1@LoadInt_e@3
  00094	8a 50 09	 mov	 dl, BYTE PTR [eax+9]
  00097	84 d2		 test	 dl, dl
  00099	74 40		 je	 SHORT $LN87@LoadInt_e@3
  0009b	80 f2 ec	 xor	 dl, -20			; ffffffecH
  0009e	88 55 f5	 mov	 BYTE PTR __k$[ebp+9], dl
  000a1	8a 50 0a	 mov	 dl, BYTE PTR [eax+10]
  000a4	84 d2		 test	 dl, dl
  000a6	74 2d		 je	 SHORT $LN86@LoadInt_e@3
  000a8	80 f2 eb	 xor	 dl, -21			; ffffffebH
  000ab	88 55 f6	 mov	 BYTE PTR __k$[ebp+10], dl
  000ae	8a 50 0b	 mov	 dl, BYTE PTR [eax+11]
  000b1	84 d2		 test	 dl, dl
  000b3	74 1a		 je	 SHORT $LN85@LoadInt_e@3
  000b5	8a 40 0c	 mov	 al, BYTE PTR [eax+12]
  000b8	80 f2 ea	 xor	 dl, -22			; ffffffeaH
  000bb	88 55 f7	 mov	 BYTE PTR __k$[ebp+11], dl
  000be	84 c0		 test	 al, al
  000c0	74 07		 je	 SHORT $LN84@LoadInt_e@3
  000c2	34 ed		 xor	 al, -19			; ffffffedH
  000c4	88 45 f8	 mov	 BYTE PTR __k$[ebp+12], al
  000c7	eb 46		 jmp	 SHORT $LN1@LoadInt_e@3
$LN84@LoadInt_e@3:
  000c9	c6 45 f8 ed	 mov	 BYTE PTR __k$[ebp+12], -19 ; ffffffedH
  000cd	eb 40		 jmp	 SHORT $LN1@LoadInt_e@3
$LN85@LoadInt_e@3:
  000cf	c6 45 f7 ea	 mov	 BYTE PTR __k$[ebp+11], -22 ; ffffffeaH
  000d3	eb 3a		 jmp	 SHORT $LN1@LoadInt_e@3
$LN86@LoadInt_e@3:
  000d5	c6 45 f6 eb	 mov	 BYTE PTR __k$[ebp+10], -21 ; ffffffebH
  000d9	eb 34		 jmp	 SHORT $LN1@LoadInt_e@3
$LN87@LoadInt_e@3:
  000db	c6 45 f5 ec	 mov	 BYTE PTR __k$[ebp+9], -20 ; ffffffecH
  000df	eb 2e		 jmp	 SHORT $LN1@LoadInt_e@3
$LN89@LoadInt_e@3:
  000e1	c6 45 f3 ea	 mov	 BYTE PTR __k$[ebp+7], -22 ; ffffffeaH
  000e5	eb 28		 jmp	 SHORT $LN1@LoadInt_e@3
$LN90@LoadInt_e@3:
  000e7	c6 45 f2 eb	 mov	 BYTE PTR __k$[ebp+6], -21 ; ffffffebH
  000eb	eb 22		 jmp	 SHORT $LN1@LoadInt_e@3
$LN91@LoadInt_e@3:
  000ed	c6 45 f1 ec	 mov	 BYTE PTR __k$[ebp+5], -20 ; ffffffecH
  000f1	eb 1c		 jmp	 SHORT $LN1@LoadInt_e@3
$LN92@LoadInt_e@3:
  000f3	c6 45 f0 ed	 mov	 BYTE PTR __k$[ebp+4], -19 ; ffffffedH
  000f7	eb 16		 jmp	 SHORT $LN1@LoadInt_e@3
$LN93@LoadInt_e@3:
  000f9	c6 45 ef ea	 mov	 BYTE PTR __k$[ebp+3], -22 ; ffffffeaH
  000fd	eb 10		 jmp	 SHORT $LN1@LoadInt_e@3
$LN94@LoadInt_e@3:
  000ff	c6 45 ee eb	 mov	 BYTE PTR __k$[ebp+2], -21 ; ffffffebH
  00103	eb 0a		 jmp	 SHORT $LN1@LoadInt_e@3
$LN95@LoadInt_e@3:
  00105	c6 45 ed ec	 mov	 BYTE PTR __k$[ebp+1], -20 ; ffffffecH
  00109	eb 04		 jmp	 SHORT $LN1@LoadInt_e@3
$LN96@LoadInt_e@3:
  0010b	c6 45 ec ed	 mov	 BYTE PTR __k$[ebp], -19	; ffffffedH
$LN1@LoadInt_e@3:
  0010f	6a 02		 push	 2
  00111	8d 45 ec	 lea	 eax, DWORD PTR __k$[ebp]
  00114	c6 45 f4 00	 mov	 BYTE PTR __k$[ebp+8], 0
  00118	5a		 pop	 edx
$LL104@LoadInt_e@3:
  00119	81 30 ed ec eb
	ea		 xor	 DWORD PTR [eax], -353637139 ; eaebecedH
  0011f	83 c0 04	 add	 eax, 4
  00122	4a		 dec	 edx
  00123	75 f4		 jne	 SHORT $LL104@LoadInt_e@3

; 120  : 		return LoadInt(_k, i);

  00125	ff 75 0c	 push	 DWORD PTR _i$[ebp]
  00128	8d 45 ec	 lea	 eax, DWORD PTR __k$[ebp]
  0012b	50		 push	 eax
  0012c	ff 15 00 00 00
	00		 call	 DWORD PTR __imp_?LoadInt@ioINILoader@@QAEHPBDH@Z

; 121  : 	}

  00132	8b 4d fc	 mov	 ecx, DWORD PTR __$ArrayPad$[ebp]
  00135	33 cd		 xor	 ecx, ebp
  00137	e8 00 00 00 00	 call	 @__security_check_cookie@4
  0013c	c9		 leave
  0013d	c2 08 00	 ret	 8
??$LoadInt_e@$08@ioINILoader@@QAEHAAY08$$CBDH@Z ENDP	; ioINILoader::LoadInt_e<9>
_TEXT	ENDS
PUBLIC	__$ArrayPad$
PUBLIC	??$LoadString_e@$09@ioINILoader@@QAEXAAY09$$CBDAAY00$$CBDPADH@Z ; ioINILoader::LoadString_e<10>
EXTRN	__imp_?LoadStringA@ioINILoader@@QAEXPBD0PADH@Z:PROC
; Function compile flags: /Ogsp
;	COMDAT ??$LoadString_e@$09@ioINILoader@@QAEXAAY09$$CBDAAY00$$CBDPADH@Z
_TEXT	SEGMENT
__k$ = -20						; size = 10
__$ArrayPad$ = -4					; size = 4
_k$ = 8							; size = 4
_d$ = 12						; size = 4
_b$ = 16						; size = 4
_i$ = 20						; size = 4
??$LoadString_e@$09@ioINILoader@@QAEXAAY09$$CBDAAY00$$CBDPADH@Z PROC ; ioINILoader::LoadString_e<10>, COMDAT
; _this$ = ecx

; 161  : 	{

  00000	55		 push	 ebp
  00001	8b ec		 mov	 ebp, esp
  00003	83 ec 14	 sub	 esp, 20			; 00000014H
  00006	a1 00 00 00 00	 mov	 eax, DWORD PTR ___security_cookie
  0000b	33 c5		 xor	 eax, ebp
  0000d	89 45 fc	 mov	 DWORD PTR __$ArrayPad$[ebp], eax
  00010	8b 45 08	 mov	 eax, DWORD PTR _k$[ebp]

; 162  : 		_ENCSTR(k, _k);

  00013	8a 10		 mov	 dl, BYTE PTR [eax]
  00015	56		 push	 esi
  00016	8b 75 0c	 mov	 esi, DWORD PTR _d$[ebp]
  00019	57		 push	 edi
  0001a	8b 7d 10	 mov	 edi, DWORD PTR _b$[ebp]
  0001d	84 d2		 test	 dl, dl
  0001f	0f 84 0d 01 00
	00		 je	 $LN96@LoadString
  00025	80 f2 ed	 xor	 dl, -19			; ffffffedH
  00028	88 55 ec	 mov	 BYTE PTR __k$[ebp], dl
  0002b	8a 50 01	 mov	 dl, BYTE PTR [eax+1]
  0002e	84 d2		 test	 dl, dl
  00030	0f 84 f6 00 00
	00		 je	 $LN95@LoadString
  00036	80 f2 ec	 xor	 dl, -20			; ffffffecH
  00039	88 55 ed	 mov	 BYTE PTR __k$[ebp+1], dl
  0003c	8a 50 02	 mov	 dl, BYTE PTR [eax+2]
  0003f	84 d2		 test	 dl, dl
  00041	0f 84 df 00 00
	00		 je	 $LN94@LoadString
  00047	80 f2 eb	 xor	 dl, -21			; ffffffebH
  0004a	88 55 ee	 mov	 BYTE PTR __k$[ebp+2], dl
  0004d	8a 50 03	 mov	 dl, BYTE PTR [eax+3]
  00050	84 d2		 test	 dl, dl
  00052	0f 84 c8 00 00
	00		 je	 $LN93@LoadString
  00058	80 f2 ea	 xor	 dl, -22			; ffffffeaH
  0005b	88 55 ef	 mov	 BYTE PTR __k$[ebp+3], dl
  0005e	8a 50 04	 mov	 dl, BYTE PTR [eax+4]
  00061	84 d2		 test	 dl, dl
  00063	0f 84 b1 00 00
	00		 je	 $LN92@LoadString
  00069	80 f2 ed	 xor	 dl, -19			; ffffffedH
  0006c	88 55 f0	 mov	 BYTE PTR __k$[ebp+4], dl
  0006f	8a 50 05	 mov	 dl, BYTE PTR [eax+5]
  00072	84 d2		 test	 dl, dl
  00074	0f 84 9a 00 00
	00		 je	 $LN91@LoadString
  0007a	80 f2 ec	 xor	 dl, -20			; ffffffecH
  0007d	88 55 f1	 mov	 BYTE PTR __k$[ebp+5], dl
  00080	8a 50 06	 mov	 dl, BYTE PTR [eax+6]
  00083	84 d2		 test	 dl, dl
  00085	0f 84 83 00 00
	00		 je	 $LN90@LoadString
  0008b	80 f2 eb	 xor	 dl, -21			; ffffffebH
  0008e	88 55 f2	 mov	 BYTE PTR __k$[ebp+6], dl
  00091	8a 50 07	 mov	 dl, BYTE PTR [eax+7]
  00094	84 d2		 test	 dl, dl
  00096	74 70		 je	 SHORT $LN89@LoadString
  00098	80 f2 ea	 xor	 dl, -22			; ffffffeaH
  0009b	88 55 f3	 mov	 BYTE PTR __k$[ebp+7], dl
  0009e	8a 50 08	 mov	 dl, BYTE PTR [eax+8]
  000a1	84 d2		 test	 dl, dl
  000a3	74 5d		 je	 SHORT $LN88@LoadString
  000a5	80 f2 ed	 xor	 dl, -19			; ffffffedH
  000a8	80 78 09 00	 cmp	 BYTE PTR [eax+9], 0
  000ac	88 55 f4	 mov	 BYTE PTR __k$[ebp+8], dl
  000af	0f 84 81 00 00
	00		 je	 $LN1@LoadString
  000b5	8a 50 0a	 mov	 dl, BYTE PTR [eax+10]
  000b8	84 d2		 test	 dl, dl
  000ba	74 40		 je	 SHORT $LN86@LoadString
  000bc	80 f2 eb	 xor	 dl, -21			; ffffffebH
  000bf	88 55 f6	 mov	 BYTE PTR __k$[ebp+10], dl
  000c2	8a 50 0b	 mov	 dl, BYTE PTR [eax+11]
  000c5	84 d2		 test	 dl, dl
  000c7	74 2d		 je	 SHORT $LN85@LoadString
  000c9	80 f2 ea	 xor	 dl, -22			; ffffffeaH
  000cc	88 55 f7	 mov	 BYTE PTR __k$[ebp+11], dl
  000cf	8a 50 0c	 mov	 dl, BYTE PTR [eax+12]
  000d2	84 d2		 test	 dl, dl
  000d4	74 1a		 je	 SHORT $LN84@LoadString
  000d6	8a 40 0d	 mov	 al, BYTE PTR [eax+13]
  000d9	80 f2 ed	 xor	 dl, -19			; ffffffedH
  000dc	88 55 f8	 mov	 BYTE PTR __k$[ebp+12], dl
  000df	84 c0		 test	 al, al
  000e1	74 07		 je	 SHORT $LN83@LoadString
  000e3	34 ec		 xor	 al, -20			; ffffffecH
  000e5	88 45 f9	 mov	 BYTE PTR __k$[ebp+13], al
  000e8	eb 4c		 jmp	 SHORT $LN1@LoadString
$LN83@LoadString:
  000ea	c6 45 f9 ec	 mov	 BYTE PTR __k$[ebp+13], -20 ; ffffffecH
  000ee	eb 46		 jmp	 SHORT $LN1@LoadString
$LN84@LoadString:
  000f0	c6 45 f8 ed	 mov	 BYTE PTR __k$[ebp+12], -19 ; ffffffedH
  000f4	eb 40		 jmp	 SHORT $LN1@LoadString
$LN85@LoadString:
  000f6	c6 45 f7 ea	 mov	 BYTE PTR __k$[ebp+11], -22 ; ffffffeaH
  000fa	eb 3a		 jmp	 SHORT $LN1@LoadString
$LN86@LoadString:
  000fc	c6 45 f6 eb	 mov	 BYTE PTR __k$[ebp+10], -21 ; ffffffebH
  00100	eb 34		 jmp	 SHORT $LN1@LoadString
$LN88@LoadString:
  00102	c6 45 f4 ed	 mov	 BYTE PTR __k$[ebp+8], -19 ; ffffffedH
  00106	eb 2e		 jmp	 SHORT $LN1@LoadString
$LN89@LoadString:
  00108	c6 45 f3 ea	 mov	 BYTE PTR __k$[ebp+7], -22 ; ffffffeaH
  0010c	eb 28		 jmp	 SHORT $LN1@LoadString
$LN90@LoadString:
  0010e	c6 45 f2 eb	 mov	 BYTE PTR __k$[ebp+6], -21 ; ffffffebH
  00112	eb 22		 jmp	 SHORT $LN1@LoadString
$LN91@LoadString:
  00114	c6 45 f1 ec	 mov	 BYTE PTR __k$[ebp+5], -20 ; ffffffecH
  00118	eb 1c		 jmp	 SHORT $LN1@LoadString
$LN92@LoadString:
  0011a	c6 45 f0 ed	 mov	 BYTE PTR __k$[ebp+4], -19 ; ffffffedH
  0011e	eb 16		 jmp	 SHORT $LN1@LoadString
$LN93@LoadString:
  00120	c6 45 ef ea	 mov	 BYTE PTR __k$[ebp+3], -22 ; ffffffeaH
  00124	eb 10		 jmp	 SHORT $LN1@LoadString
$LN94@LoadString:
  00126	c6 45 ee eb	 mov	 BYTE PTR __k$[ebp+2], -21 ; ffffffebH
  0012a	eb 0a		 jmp	 SHORT $LN1@LoadString
$LN95@LoadString:
  0012c	c6 45 ed ec	 mov	 BYTE PTR __k$[ebp+1], -20 ; ffffffecH
  00130	eb 04		 jmp	 SHORT $LN1@LoadString
$LN96@LoadString:
  00132	c6 45 ec ed	 mov	 BYTE PTR __k$[ebp], -19	; ffffffedH
$LN1@LoadString:
  00136	6a 02		 push	 2
  00138	8d 45 ec	 lea	 eax, DWORD PTR __k$[ebp]
  0013b	c6 45 f5 00	 mov	 BYTE PTR __k$[ebp+9], 0
  0013f	5a		 pop	 edx
$LL104@LoadString:
  00140	81 30 ed ec eb
	ea		 xor	 DWORD PTR [eax], -353637139 ; eaebecedH
  00146	83 c0 04	 add	 eax, 4
  00149	4a		 dec	 edx
  0014a	75 f4		 jne	 SHORT $LL104@LoadString

; 163  : 		LoadString(_k, d, b, i);

  0014c	ff 75 14	 push	 DWORD PTR _i$[ebp]
  0014f	80 75 f4 ed	 xor	 BYTE PTR __k$[ebp+8], -19 ; ffffffedH
  00153	57		 push	 edi
  00154	56		 push	 esi
  00155	8d 45 ec	 lea	 eax, DWORD PTR __k$[ebp]
  00158	50		 push	 eax
  00159	ff 15 00 00 00
	00		 call	 DWORD PTR __imp_?LoadStringA@ioINILoader@@QAEXPBD0PADH@Z

; 164  : 	}

  0015f	8b 4d fc	 mov	 ecx, DWORD PTR __$ArrayPad$[ebp]
  00162	5f		 pop	 edi
  00163	33 cd		 xor	 ecx, ebp
  00165	5e		 pop	 esi
  00166	e8 00 00 00 00	 call	 @__security_check_cookie@4
  0016b	c9		 leave
  0016c	c2 10 00	 ret	 16			; 00000010H
??$LoadString_e@$09@ioINILoader@@QAEXAAY09$$CBDAAY00$$CBDPADH@Z ENDP ; ioINILoader::LoadString_e<10>
_TEXT	ENDS
PUBLIC	??$_Cons_val@V?$allocator@UHelpText@@@std@@UHelpText@@AAU3@@std@@YAXAAV?$allocator@UHelpText@@@0@PAUHelpText@@AAU2@@Z ; std::_Cons_val<std::allocator<HelpText>,HelpText,HelpText &>
; Function compile flags: /Ogsp
; File c:\program files (x86)\microsoft visual studio 10.0\vc\include\xmemory
;	COMDAT ??$_Cons_val@V?$allocator@UHelpText@@@std@@UHelpText@@AAU3@@std@@YAXAAV?$allocator@UHelpText@@@0@PAUHelpText@@AAU2@@Z
_TEXT	SEGMENT
__Alval$ = 8						; size = 4
__Pdest$ = 12						; size = 4
__Src$ = 16						; size = 4
??$_Cons_val@V?$allocator@UHelpText@@@std@@UHelpText@@AAU3@@std@@YAXAAV?$allocator@UHelpText@@@0@PAUHelpText@@AAU2@@Z PROC ; std::_Cons_val<std::allocator<HelpText>,HelpText,HelpText &>, COMDAT

; 279  : 	{	// construct using allocator

  00000	55		 push	 ebp
  00001	8b ec		 mov	 ebp, esp
  00003	57		 push	 edi

; 280  : 	_Alval.construct(_Pdest, _STD forward<_Ty2>(_Src));

  00004	8b 7d 0c	 mov	 edi, DWORD PTR __Pdest$[ebp]
  00007	85 ff		 test	 edi, edi
  00009	74 0c		 je	 SHORT $LN7@Cons_val
  0000b	56		 push	 esi
  0000c	8b 75 10	 mov	 esi, DWORD PTR __Src$[ebp]
  0000f	b9 86 00 00 00	 mov	 ecx, 134		; 00000086H
  00014	f3 a5		 rep movsd
  00016	5e		 pop	 esi
$LN7@Cons_val:
  00017	5f		 pop	 edi

; 281  : 	}

  00018	5d		 pop	 ebp
  00019	c3		 ret	 0
??$_Cons_val@V?$allocator@UHelpText@@@std@@UHelpText@@AAU3@@std@@YAXAAV?$allocator@UHelpText@@@0@PAUHelpText@@AAU2@@Z ENDP ; std::_Cons_val<std::allocator<HelpText>,HelpText,HelpText &>
_TEXT	ENDS
PUBLIC	?construct@?$allocator@UHelpText@@@std@@QAEXPAUHelpText@@ABU3@@Z ; std::allocator<HelpText>::construct
; Function compile flags: /Ogsp
;	COMDAT ?construct@?$allocator@UHelpText@@@std@@QAEXPAUHelpText@@ABU3@@Z
_TEXT	SEGMENT
__Ptr$ = 8						; size = 4
__Val$ = 12						; size = 4
?construct@?$allocator@UHelpText@@@std@@QAEXPAUHelpText@@ABU3@@Z PROC ; std::allocator<HelpText>::construct, COMDAT
; _this$ = ecx

; 196  : 		{	// construct object at _Ptr with value _Val

  00000	55		 push	 ebp
  00001	8b ec		 mov	 ebp, esp
  00003	57		 push	 edi

; 197  : 		_Construct(_Ptr, _Val);

  00004	8b 7d 08	 mov	 edi, DWORD PTR __Ptr$[ebp]
  00007	85 ff		 test	 edi, edi
  00009	74 0c		 je	 SHORT $LN5@construct@2
  0000b	56		 push	 esi
  0000c	8b 75 0c	 mov	 esi, DWORD PTR __Val$[ebp]
  0000f	b9 86 00 00 00	 mov	 ecx, 134		; 00000086H
  00014	f3 a5		 rep movsd
  00016	5e		 pop	 esi
$LN5@construct@2:
  00017	5f		 pop	 edi

; 198  : 		}

  00018	5d		 pop	 ebp
  00019	c2 08 00	 ret	 8
?construct@?$allocator@UHelpText@@@std@@QAEXPAUHelpText@@ABU3@@Z ENDP ; std::allocator<HelpText>::construct
_TEXT	ENDS
PUBLIC	??$encodeString@$0BP@@ioINILoader_e@@AAEPADAAY0BP@$$CBDPAD@Z ; ioINILoader_e::encodeString<31>
; Function compile flags: /Ogsp
; File d:\lost saga for developer\youtube\tutorial\source\src\io3dengine\ioiniloader.h
;	COMDAT ??$encodeString@$0BP@@ioINILoader_e@@AAEPADAAY0BP@$$CBDPAD@Z
_TEXT	SEGMENT
_s$ = 8							; size = 4
_e$ = 12						; size = 4
??$encodeString@$0BP@@ioINILoader_e@@AAEPADAAY0BP@$$CBDPAD@Z PROC ; ioINILoader_e::encodeString<31>, COMDAT
; _this$ = ecx

; 215  : 	{

  00000	55		 push	 ebp
  00001	8b ec		 mov	 ebp, esp

; 216  : 		__ENCSTR(s, e);

  00003	8b 4d 08	 mov	 ecx, DWORD PTR _s$[ebp]
  00006	8a 11		 mov	 dl, BYTE PTR [ecx]
  00008	8b 45 0c	 mov	 eax, DWORD PTR _e$[ebp]
  0000b	53		 push	 ebx
  0000c	84 d2		 test	 dl, dl
  0000e	0f 84 6a 04 00
	00		 je	 $LN96@encodeStri
  00014	80 f2 ed	 xor	 dl, -19			; ffffffedH
  00017	88 10		 mov	 BYTE PTR [eax], dl
  00019	8a 51 01	 mov	 dl, BYTE PTR [ecx+1]
  0001c	84 d2		 test	 dl, dl
  0001e	0f 84 54 04 00
	00		 je	 $LN95@encodeStri
  00024	80 f2 ec	 xor	 dl, -20			; ffffffecH
  00027	88 50 01	 mov	 BYTE PTR [eax+1], dl
  0002a	8a 51 02	 mov	 dl, BYTE PTR [ecx+2]
  0002d	84 d2		 test	 dl, dl
  0002f	0f 84 3d 04 00
	00		 je	 $LN94@encodeStri
  00035	b3 eb		 mov	 bl, -21			; ffffffebH
  00037	32 d3		 xor	 dl, bl
  00039	88 50 02	 mov	 BYTE PTR [eax+2], dl
  0003c	8a 51 03	 mov	 dl, BYTE PTR [ecx+3]
  0003f	84 d2		 test	 dl, dl
  00041	0f 84 25 04 00
	00		 je	 $LN93@encodeStri
  00047	80 f2 ea	 xor	 dl, -22			; ffffffeaH
  0004a	88 50 03	 mov	 BYTE PTR [eax+3], dl
  0004d	8a 51 04	 mov	 dl, BYTE PTR [ecx+4]
  00050	84 d2		 test	 dl, dl
  00052	0f 84 0e 04 00
	00		 je	 $LN92@encodeStri
  00058	80 f2 ed	 xor	 dl, -19			; ffffffedH
  0005b	88 50 04	 mov	 BYTE PTR [eax+4], dl
  0005e	8a 51 05	 mov	 dl, BYTE PTR [ecx+5]
  00061	84 d2		 test	 dl, dl
  00063	0f 84 f7 03 00
	00		 je	 $LN91@encodeStri
  00069	80 f2 ec	 xor	 dl, -20			; ffffffecH
  0006c	88 50 05	 mov	 BYTE PTR [eax+5], dl
  0006f	8a 51 06	 mov	 dl, BYTE PTR [ecx+6]
  00072	84 d2		 test	 dl, dl
  00074	0f 84 e1 03 00
	00		 je	 $LN90@encodeStri
  0007a	32 d3		 xor	 dl, bl
  0007c	88 50 06	 mov	 BYTE PTR [eax+6], dl
  0007f	8a 51 07	 mov	 dl, BYTE PTR [ecx+7]
  00082	84 d2		 test	 dl, dl
  00084	0f 84 cb 03 00
	00		 je	 $LN89@encodeStri
  0008a	80 f2 ea	 xor	 dl, -22			; ffffffeaH
  0008d	88 50 07	 mov	 BYTE PTR [eax+7], dl
  00090	8a 51 08	 mov	 dl, BYTE PTR [ecx+8]
  00093	84 d2		 test	 dl, dl
  00095	0f 84 b4 03 00
	00		 je	 $LN88@encodeStri
  0009b	80 f2 ed	 xor	 dl, -19			; ffffffedH
  0009e	88 50 08	 mov	 BYTE PTR [eax+8], dl
  000a1	8a 51 09	 mov	 dl, BYTE PTR [ecx+9]
  000a4	84 d2		 test	 dl, dl
  000a6	0f 84 9d 03 00
	00		 je	 $LN87@encodeStri
  000ac	80 f2 ec	 xor	 dl, -20			; ffffffecH
  000af	88 50 09	 mov	 BYTE PTR [eax+9], dl
  000b2	8a 51 0a	 mov	 dl, BYTE PTR [ecx+10]
  000b5	84 d2		 test	 dl, dl
  000b7	0f 84 87 03 00
	00		 je	 $LN86@encodeStri
  000bd	32 d3		 xor	 dl, bl
  000bf	88 50 0a	 mov	 BYTE PTR [eax+10], dl
  000c2	8a 51 0b	 mov	 dl, BYTE PTR [ecx+11]
  000c5	84 d2		 test	 dl, dl
  000c7	0f 84 71 03 00
	00		 je	 $LN85@encodeStri
  000cd	80 f2 ea	 xor	 dl, -22			; ffffffeaH
  000d0	88 50 0b	 mov	 BYTE PTR [eax+11], dl
  000d3	8a 51 0c	 mov	 dl, BYTE PTR [ecx+12]
  000d6	84 d2		 test	 dl, dl
  000d8	0f 84 5a 03 00
	00		 je	 $LN84@encodeStri
  000de	80 f2 ed	 xor	 dl, -19			; ffffffedH
  000e1	88 50 0c	 mov	 BYTE PTR [eax+12], dl
  000e4	8a 51 0d	 mov	 dl, BYTE PTR [ecx+13]
  000e7	84 d2		 test	 dl, dl
  000e9	0f 84 43 03 00
	00		 je	 $LN83@encodeStri
  000ef	80 f2 ec	 xor	 dl, -20			; ffffffecH
  000f2	88 50 0d	 mov	 BYTE PTR [eax+13], dl
  000f5	8a 51 0e	 mov	 dl, BYTE PTR [ecx+14]
  000f8	84 d2		 test	 dl, dl
  000fa	0f 84 2d 03 00
	00		 je	 $LN82@encodeStri
  00100	32 d3		 xor	 dl, bl
  00102	88 50 0e	 mov	 BYTE PTR [eax+14], dl
  00105	8a 51 0f	 mov	 dl, BYTE PTR [ecx+15]
  00108	84 d2		 test	 dl, dl
  0010a	0f 84 17 03 00
	00		 je	 $LN81@encodeStri
  00110	80 f2 ea	 xor	 dl, -22			; ffffffeaH
  00113	88 50 0f	 mov	 BYTE PTR [eax+15], dl
  00116	8a 51 10	 mov	 dl, BYTE PTR [ecx+16]
  00119	84 d2		 test	 dl, dl
  0011b	0f 84 00 03 00
	00		 je	 $LN80@encodeStri
  00121	80 f2 ed	 xor	 dl, -19			; ffffffedH
  00124	88 50 10	 mov	 BYTE PTR [eax+16], dl
  00127	8a 51 11	 mov	 dl, BYTE PTR [ecx+17]
  0012a	84 d2		 test	 dl, dl
  0012c	0f 84 e9 02 00
	00		 je	 $LN79@encodeStri
  00132	80 f2 ec	 xor	 dl, -20			; ffffffecH
  00135	88 50 11	 mov	 BYTE PTR [eax+17], dl
  00138	8a 51 12	 mov	 dl, BYTE PTR [ecx+18]
  0013b	84 d2		 test	 dl, dl
  0013d	0f 84 d3 02 00
	00		 je	 $LN78@encodeStri
  00143	32 d3		 xor	 dl, bl
  00145	88 50 12	 mov	 BYTE PTR [eax+18], dl
  00148	8a 51 13	 mov	 dl, BYTE PTR [ecx+19]
  0014b	84 d2		 test	 dl, dl
  0014d	0f 84 bd 02 00
	00		 je	 $LN77@encodeStri
  00153	80 f2 ea	 xor	 dl, -22			; ffffffeaH
  00156	88 50 13	 mov	 BYTE PTR [eax+19], dl
  00159	8a 51 14	 mov	 dl, BYTE PTR [ecx+20]
  0015c	84 d2		 test	 dl, dl
  0015e	0f 84 a6 02 00
	00		 je	 $LN76@encodeStri
  00164	80 f2 ed	 xor	 dl, -19			; ffffffedH
  00167	88 50 14	 mov	 BYTE PTR [eax+20], dl
  0016a	8a 51 15	 mov	 dl, BYTE PTR [ecx+21]
  0016d	84 d2		 test	 dl, dl
  0016f	0f 84 8f 02 00
	00		 je	 $LN75@encodeStri
  00175	80 f2 ec	 xor	 dl, -20			; ffffffecH
  00178	88 50 15	 mov	 BYTE PTR [eax+21], dl
  0017b	8a 51 16	 mov	 dl, BYTE PTR [ecx+22]
  0017e	84 d2		 test	 dl, dl
  00180	0f 84 79 02 00
	00		 je	 $LN74@encodeStri
  00186	32 d3		 xor	 dl, bl
  00188	88 50 16	 mov	 BYTE PTR [eax+22], dl
  0018b	8a 51 17	 mov	 dl, BYTE PTR [ecx+23]
  0018e	84 d2		 test	 dl, dl
  00190	0f 84 60 02 00
	00		 je	 $LN73@encodeStri
  00196	80 f2 ea	 xor	 dl, -22			; ffffffeaH
  00199	88 50 17	 mov	 BYTE PTR [eax+23], dl
  0019c	8a 51 18	 mov	 dl, BYTE PTR [ecx+24]
  0019f	84 d2		 test	 dl, dl
  001a1	0f 84 46 02 00
	00		 je	 $LN72@encodeStri
  001a7	80 f2 ed	 xor	 dl, -19			; ffffffedH
  001aa	88 50 18	 mov	 BYTE PTR [eax+24], dl
  001ad	8a 51 19	 mov	 dl, BYTE PTR [ecx+25]
  001b0	84 d2		 test	 dl, dl
  001b2	0f 84 2c 02 00
	00		 je	 $LN71@encodeStri
  001b8	80 f2 ec	 xor	 dl, -20			; ffffffecH
  001bb	88 50 19	 mov	 BYTE PTR [eax+25], dl
  001be	8a 51 1a	 mov	 dl, BYTE PTR [ecx+26]
  001c1	84 d2		 test	 dl, dl
  001c3	0f 84 13 02 00
	00		 je	 $LN70@encodeStri
  001c9	32 d3		 xor	 dl, bl
  001cb	88 50 1a	 mov	 BYTE PTR [eax+26], dl
  001ce	8a 51 1b	 mov	 dl, BYTE PTR [ecx+27]
  001d1	84 d2		 test	 dl, dl
  001d3	0f 84 fa 01 00
	00		 je	 $LN69@encodeStri
  001d9	80 f2 ea	 xor	 dl, -22			; ffffffeaH
  001dc	88 50 1b	 mov	 BYTE PTR [eax+27], dl
  001df	8a 51 1c	 mov	 dl, BYTE PTR [ecx+28]
  001e2	84 d2		 test	 dl, dl
  001e4	0f 84 e0 01 00
	00		 je	 $LN68@encodeStri
  001ea	80 f2 ed	 xor	 dl, -19			; ffffffedH
  001ed	88 50 1c	 mov	 BYTE PTR [eax+28], dl
  001f0	8a 51 1d	 mov	 dl, BYTE PTR [ecx+29]
  001f3	84 d2		 test	 dl, dl
  001f5	0f 84 c6 01 00
	00		 je	 $LN67@encodeStri
  001fb	80 f2 ec	 xor	 dl, -20			; ffffffecH
  001fe	88 50 1d	 mov	 BYTE PTR [eax+29], dl
  00201	8a 51 1e	 mov	 dl, BYTE PTR [ecx+30]
  00204	84 d2		 test	 dl, dl
  00206	0f 84 ad 01 00
	00		 je	 $LN66@encodeStri
  0020c	32 d3		 xor	 dl, bl
  0020e	88 50 1e	 mov	 BYTE PTR [eax+30], dl
  00211	8a 51 1f	 mov	 dl, BYTE PTR [ecx+31]
  00214	84 d2		 test	 dl, dl
  00216	0f 84 94 01 00
	00		 je	 $LN65@encodeStri
  0021c	80 f2 ea	 xor	 dl, -22			; ffffffeaH
  0021f	88 50 1f	 mov	 BYTE PTR [eax+31], dl
  00222	8a 51 20	 mov	 dl, BYTE PTR [ecx+32]
  00225	84 d2		 test	 dl, dl
  00227	0f 84 7a 01 00
	00		 je	 $LN64@encodeStri
  0022d	80 f2 ed	 xor	 dl, -19			; ffffffedH
  00230	88 50 20	 mov	 BYTE PTR [eax+32], dl
  00233	8a 51 21	 mov	 dl, BYTE PTR [ecx+33]
  00236	84 d2		 test	 dl, dl
  00238	0f 84 60 01 00
	00		 je	 $LN63@encodeStri
  0023e	80 f2 ec	 xor	 dl, -20			; ffffffecH
  00241	88 50 21	 mov	 BYTE PTR [eax+33], dl
  00244	8a 51 22	 mov	 dl, BYTE PTR [ecx+34]
  00247	84 d2		 test	 dl, dl
  00249	0f 84 47 01 00
	00		 je	 $LN62@encodeStri
  0024f	32 d3		 xor	 dl, bl
  00251	88 50 22	 mov	 BYTE PTR [eax+34], dl
  00254	8a 51 23	 mov	 dl, BYTE PTR [ecx+35]
  00257	84 d2		 test	 dl, dl
  00259	0f 84 2e 01 00
	00		 je	 $LN61@encodeStri
  0025f	80 f2 ea	 xor	 dl, -22			; ffffffeaH
  00262	88 50 23	 mov	 BYTE PTR [eax+35], dl
  00265	8a 51 24	 mov	 dl, BYTE PTR [ecx+36]
  00268	84 d2		 test	 dl, dl
  0026a	0f 84 14 01 00
	00		 je	 $LN60@encodeStri
  00270	80 f2 ed	 xor	 dl, -19			; ffffffedH
  00273	88 50 24	 mov	 BYTE PTR [eax+36], dl
  00276	8a 51 25	 mov	 dl, BYTE PTR [ecx+37]
  00279	84 d2		 test	 dl, dl
  0027b	0f 84 fa 00 00
	00		 je	 $LN59@encodeStri
  00281	80 f2 ec	 xor	 dl, -20			; ffffffecH
  00284	88 50 25	 mov	 BYTE PTR [eax+37], dl
  00287	8a 51 26	 mov	 dl, BYTE PTR [ecx+38]
  0028a	84 d2		 test	 dl, dl
  0028c	0f 84 e1 00 00
	00		 je	 $LN58@encodeStri
  00292	32 d3		 xor	 dl, bl
  00294	88 50 26	 mov	 BYTE PTR [eax+38], dl
  00297	8a 51 27	 mov	 dl, BYTE PTR [ecx+39]
  0029a	84 d2		 test	 dl, dl
  0029c	0f 84 c8 00 00
	00		 je	 $LN57@encodeStri
  002a2	80 f2 ea	 xor	 dl, -22			; ffffffeaH
  002a5	88 50 27	 mov	 BYTE PTR [eax+39], dl
  002a8	8a 51 28	 mov	 dl, BYTE PTR [ecx+40]
  002ab	84 d2		 test	 dl, dl
  002ad	0f 84 ae 00 00
	00		 je	 $LN56@encodeStri
  002b3	80 f2 ed	 xor	 dl, -19			; ffffffedH
  002b6	88 50 28	 mov	 BYTE PTR [eax+40], dl
  002b9	8a 51 29	 mov	 dl, BYTE PTR [ecx+41]
  002bc	84 d2		 test	 dl, dl
  002be	0f 84 94 00 00
	00		 je	 $LN55@encodeStri
  002c4	80 f2 ec	 xor	 dl, -20			; ffffffecH
  002c7	88 50 29	 mov	 BYTE PTR [eax+41], dl
  002ca	8a 51 2a	 mov	 dl, BYTE PTR [ecx+42]
  002cd	84 d2		 test	 dl, dl
  002cf	74 7f		 je	 SHORT $LN54@encodeStri
  002d1	32 d3		 xor	 dl, bl
  002d3	88 50 2a	 mov	 BYTE PTR [eax+42], dl
  002d6	8a 51 2b	 mov	 dl, BYTE PTR [ecx+43]
  002d9	84 d2		 test	 dl, dl
  002db	74 6a		 je	 SHORT $LN53@encodeStri
  002dd	80 f2 ea	 xor	 dl, -22			; ffffffeaH
  002e0	88 50 2b	 mov	 BYTE PTR [eax+43], dl
  002e3	8a 51 2c	 mov	 dl, BYTE PTR [ecx+44]
  002e6	84 d2		 test	 dl, dl
  002e8	74 54		 je	 SHORT $LN52@encodeStri
  002ea	80 f2 ed	 xor	 dl, -19			; ffffffedH
  002ed	88 50 2c	 mov	 BYTE PTR [eax+44], dl
  002f0	8a 51 2d	 mov	 dl, BYTE PTR [ecx+45]
  002f3	84 d2		 test	 dl, dl
  002f5	74 3e		 je	 SHORT $LN51@encodeStri
  002f7	80 f2 ec	 xor	 dl, -20			; ffffffecH
  002fa	88 50 2d	 mov	 BYTE PTR [eax+45], dl
  002fd	8a 51 2e	 mov	 dl, BYTE PTR [ecx+46]
  00300	84 d2		 test	 dl, dl
  00302	74 29		 je	 SHORT $LN50@encodeStri
  00304	32 d3		 xor	 dl, bl
  00306	88 50 2e	 mov	 BYTE PTR [eax+46], dl
  00309	8a 51 2f	 mov	 dl, BYTE PTR [ecx+47]
  0030c	84 d2		 test	 dl, dl
  0030e	74 14		 je	 SHORT $LN49@encodeStri
  00310	80 f2 ea	 xor	 dl, -22			; ffffffeaH
  00313	88 50 2f	 mov	 BYTE PTR [eax+47], dl
  00316	8a 49 30	 mov	 cl, BYTE PTR [ecx+48]
  00319	80 f1 ed	 xor	 cl, -19			; ffffffedH
  0031c	88 48 30	 mov	 BYTE PTR [eax+48], cl
  0031f	e9 5d 01 00 00	 jmp	 $LN1@encodeStri
$LN49@encodeStri:
  00324	c6 40 2f ea	 mov	 BYTE PTR [eax+47], -22	; ffffffeaH
  00328	e9 54 01 00 00	 jmp	 $LN1@encodeStri
$LN50@encodeStri:
  0032d	88 58 2e	 mov	 BYTE PTR [eax+46], bl
  00330	e9 4c 01 00 00	 jmp	 $LN1@encodeStri
$LN51@encodeStri:
  00335	c6 40 2d ec	 mov	 BYTE PTR [eax+45], -20	; ffffffecH
  00339	e9 43 01 00 00	 jmp	 $LN1@encodeStri
$LN52@encodeStri:
  0033e	c6 40 2c ed	 mov	 BYTE PTR [eax+44], -19	; ffffffedH
  00342	e9 3a 01 00 00	 jmp	 $LN1@encodeStri
$LN53@encodeStri:
  00347	c6 40 2b ea	 mov	 BYTE PTR [eax+43], -22	; ffffffeaH
  0034b	e9 31 01 00 00	 jmp	 $LN1@encodeStri
$LN54@encodeStri:
  00350	88 58 2a	 mov	 BYTE PTR [eax+42], bl
  00353	e9 29 01 00 00	 jmp	 $LN1@encodeStri
$LN55@encodeStri:
  00358	c6 40 29 ec	 mov	 BYTE PTR [eax+41], -20	; ffffffecH
  0035c	e9 20 01 00 00	 jmp	 $LN1@encodeStri
$LN56@encodeStri:
  00361	c6 40 28 ed	 mov	 BYTE PTR [eax+40], -19	; ffffffedH
  00365	e9 17 01 00 00	 jmp	 $LN1@encodeStri
$LN57@encodeStri:
  0036a	c6 40 27 ea	 mov	 BYTE PTR [eax+39], -22	; ffffffeaH
  0036e	e9 0e 01 00 00	 jmp	 $LN1@encodeStri
$LN58@encodeStri:
  00373	88 58 26	 mov	 BYTE PTR [eax+38], bl
  00376	e9 06 01 00 00	 jmp	 $LN1@encodeStri
$LN59@encodeStri:
  0037b	c6 40 25 ec	 mov	 BYTE PTR [eax+37], -20	; ffffffecH
  0037f	e9 fd 00 00 00	 jmp	 $LN1@encodeStri
$LN60@encodeStri:
  00384	c6 40 24 ed	 mov	 BYTE PTR [eax+36], -19	; ffffffedH
  00388	e9 f4 00 00 00	 jmp	 $LN1@encodeStri
$LN61@encodeStri:
  0038d	c6 40 23 ea	 mov	 BYTE PTR [eax+35], -22	; ffffffeaH
  00391	e9 eb 00 00 00	 jmp	 $LN1@encodeStri
$LN62@encodeStri:
  00396	88 58 22	 mov	 BYTE PTR [eax+34], bl
  00399	e9 e3 00 00 00	 jmp	 $LN1@encodeStri
$LN63@encodeStri:
  0039e	c6 40 21 ec	 mov	 BYTE PTR [eax+33], -20	; ffffffecH
  003a2	e9 da 00 00 00	 jmp	 $LN1@encodeStri
$LN64@encodeStri:
  003a7	c6 40 20 ed	 mov	 BYTE PTR [eax+32], -19	; ffffffedH
  003ab	e9 d1 00 00 00	 jmp	 $LN1@encodeStri
$LN65@encodeStri:
  003b0	c6 40 1f ea	 mov	 BYTE PTR [eax+31], -22	; ffffffeaH
  003b4	e9 c8 00 00 00	 jmp	 $LN1@encodeStri
$LN66@encodeStri:
  003b9	88 58 1e	 mov	 BYTE PTR [eax+30], bl
  003bc	e9 c0 00 00 00	 jmp	 $LN1@encodeStri
$LN67@encodeStri:
  003c1	c6 40 1d ec	 mov	 BYTE PTR [eax+29], -20	; ffffffecH
  003c5	e9 b7 00 00 00	 jmp	 $LN1@encodeStri
$LN68@encodeStri:
  003ca	c6 40 1c ed	 mov	 BYTE PTR [eax+28], -19	; ffffffedH
  003ce	e9 ae 00 00 00	 jmp	 $LN1@encodeStri
$LN69@encodeStri:
  003d3	c6 40 1b ea	 mov	 BYTE PTR [eax+27], -22	; ffffffeaH
  003d7	e9 a5 00 00 00	 jmp	 $LN1@encodeStri
$LN70@encodeStri:
  003dc	88 58 1a	 mov	 BYTE PTR [eax+26], bl
  003df	e9 9d 00 00 00	 jmp	 $LN1@encodeStri
$LN71@encodeStri:
  003e4	c6 40 19 ec	 mov	 BYTE PTR [eax+25], -20	; ffffffecH
  003e8	e9 94 00 00 00	 jmp	 $LN1@encodeStri
$LN72@encodeStri:
  003ed	c6 40 18 ed	 mov	 BYTE PTR [eax+24], -19	; ffffffedH
  003f1	e9 8b 00 00 00	 jmp	 $LN1@encodeStri
$LN73@encodeStri:
  003f6	c6 40 17 ea	 mov	 BYTE PTR [eax+23], -22	; ffffffeaH
  003fa	e9 82 00 00 00	 jmp	 $LN1@encodeStri
$LN74@encodeStri:
  003ff	88 58 16	 mov	 BYTE PTR [eax+22], bl
  00402	eb 7d		 jmp	 SHORT $LN1@encodeStri
$LN75@encodeStri:
  00404	c6 40 15 ec	 mov	 BYTE PTR [eax+21], -20	; ffffffecH
  00408	eb 77		 jmp	 SHORT $LN1@encodeStri
$LN76@encodeStri:
  0040a	c6 40 14 ed	 mov	 BYTE PTR [eax+20], -19	; ffffffedH
  0040e	eb 71		 jmp	 SHORT $LN1@encodeStri
$LN77@encodeStri:
  00410	c6 40 13 ea	 mov	 BYTE PTR [eax+19], -22	; ffffffeaH
  00414	eb 6b		 jmp	 SHORT $LN1@encodeStri
$LN78@encodeStri:
  00416	88 58 12	 mov	 BYTE PTR [eax+18], bl
  00419	eb 66		 jmp	 SHORT $LN1@encodeStri
$LN79@encodeStri:
  0041b	c6 40 11 ec	 mov	 BYTE PTR [eax+17], -20	; ffffffecH
  0041f	eb 60		 jmp	 SHORT $LN1@encodeStri
$LN80@encodeStri:
  00421	c6 40 10 ed	 mov	 BYTE PTR [eax+16], -19	; ffffffedH
  00425	eb 5a		 jmp	 SHORT $LN1@encodeStri
$LN81@encodeStri:
  00427	c6 40 0f ea	 mov	 BYTE PTR [eax+15], -22	; ffffffeaH
  0042b	eb 54		 jmp	 SHORT $LN1@encodeStri
$LN82@encodeStri:
  0042d	88 58 0e	 mov	 BYTE PTR [eax+14], bl
  00430	eb 4f		 jmp	 SHORT $LN1@encodeStri
$LN83@encodeStri:
  00432	c6 40 0d ec	 mov	 BYTE PTR [eax+13], -20	; ffffffecH
  00436	eb 49		 jmp	 SHORT $LN1@encodeStri
$LN84@encodeStri:
  00438	c6 40 0c ed	 mov	 BYTE PTR [eax+12], -19	; ffffffedH
  0043c	eb 43		 jmp	 SHORT $LN1@encodeStri
$LN85@encodeStri:
  0043e	c6 40 0b ea	 mov	 BYTE PTR [eax+11], -22	; ffffffeaH
  00442	eb 3d		 jmp	 SHORT $LN1@encodeStri
$LN86@encodeStri:
  00444	88 58 0a	 mov	 BYTE PTR [eax+10], bl
  00447	eb 38		 jmp	 SHORT $LN1@encodeStri
$LN87@encodeStri:
  00449	c6 40 09 ec	 mov	 BYTE PTR [eax+9], -20	; ffffffecH
  0044d	eb 32		 jmp	 SHORT $LN1@encodeStri
$LN88@encodeStri:
  0044f	c6 40 08 ed	 mov	 BYTE PTR [eax+8], -19	; ffffffedH
  00453	eb 2c		 jmp	 SHORT $LN1@encodeStri
$LN89@encodeStri:
  00455	c6 40 07 ea	 mov	 BYTE PTR [eax+7], -22	; ffffffeaH
  00459	eb 26		 jmp	 SHORT $LN1@encodeStri
$LN90@encodeStri:
  0045b	88 58 06	 mov	 BYTE PTR [eax+6], bl
  0045e	eb 21		 jmp	 SHORT $LN1@encodeStri
$LN91@encodeStri:
  00460	c6 40 05 ec	 mov	 BYTE PTR [eax+5], -20	; ffffffecH
  00464	eb 1b		 jmp	 SHORT $LN1@encodeStri
$LN92@encodeStri:
  00466	c6 40 04 ed	 mov	 BYTE PTR [eax+4], -19	; ffffffedH
  0046a	eb 15		 jmp	 SHORT $LN1@encodeStri
$LN93@encodeStri:
  0046c	c6 40 03 ea	 mov	 BYTE PTR [eax+3], -22	; ffffffeaH
  00470	eb 0f		 jmp	 SHORT $LN1@encodeStri
$LN94@encodeStri:
  00472	c6 40 02 eb	 mov	 BYTE PTR [eax+2], -21	; ffffffebH
  00476	eb 09		 jmp	 SHORT $LN1@encodeStri
$LN95@encodeStri:
  00478	c6 40 01 ec	 mov	 BYTE PTR [eax+1], -20	; ffffffecH
  0047c	eb 03		 jmp	 SHORT $LN1@encodeStri
$LN96@encodeStri:
  0047e	c6 00 ed	 mov	 BYTE PTR [eax], -19	; ffffffedH
$LN1@encodeStri:
  00481	6a 07		 push	 7
  00483	5a		 pop	 edx
  00484	8b c8		 mov	 ecx, eax
  00486	c6 40 1e 00	 mov	 BYTE PTR [eax+30], 0
  0048a	5b		 pop	 ebx
$LL104@encodeStri:
  0048b	81 31 ed ec eb
	ea		 xor	 DWORD PTR [ecx], -353637139 ; eaebecedH
  00491	83 c1 04	 add	 ecx, 4
  00494	4a		 dec	 edx
  00495	75 f4		 jne	 SHORT $LL104@encodeStri
  00497	56		 push	 esi
  00498	6a 1c		 push	 28			; 0000001cH
  0049a	5e		 pop	 esi
$LL101@encodeStri:
  0049b	8b ce		 mov	 ecx, esi
  0049d	81 e1 03 00 00
	80		 and	 ecx, -2147483645	; 80000003H
  004a3	79 05		 jns	 SHORT $LN111@encodeStri
  004a5	49		 dec	 ecx
  004a6	83 c9 fc	 or	 ecx, -4			; fffffffcH
  004a9	41		 inc	 ecx
$LN111@encodeStri:
  004aa	b2 ed		 mov	 dl, -19			; ffffffedH
  004ac	2a d1		 sub	 dl, cl
  004ae	30 14 06	 xor	 BYTE PTR [esi+eax], dl
  004b1	46		 inc	 esi
  004b2	83 fe 1e	 cmp	 esi, 30			; 0000001eH
  004b5	7c e4		 jl	 SHORT $LL101@encodeStri
  004b7	5e		 pop	 esi

; 217  : 		return e;
; 218  : 	}

  004b8	5d		 pop	 ebp
  004b9	c2 08 00	 ret	 8
??$encodeString@$0BP@@ioINILoader_e@@AAEPADAAY0BP@$$CBDPAD@Z ENDP ; ioINILoader_e::encodeString<31>
_TEXT	ENDS
PUBLIC	?begin@?$vector@UHelpText@@V?$allocator@UHelpText@@@std@@@std@@QBE?AV?$_Vector_const_iterator@V?$_Vector_val@UHelpText@@V?$allocator@UHelpText@@@std@@@std@@@2@XZ ; std::vector<HelpText,std::allocator<HelpText> >::begin
; Function compile flags: /Ogsp
; File c:\program files (x86)\microsoft visual studio 10.0\vc\include\vector
;	COMDAT ?begin@?$vector@UHelpText@@V?$allocator@UHelpText@@@std@@@std@@QBE?AV?$_Vector_const_iterator@V?$_Vector_val@UHelpText@@V?$allocator@UHelpText@@@std@@@std@@@2@XZ
_TEXT	SEGMENT
___$ReturnUdt$ = 8					; size = 4
?begin@?$vector@UHelpText@@V?$allocator@UHelpText@@@std@@@std@@QBE?AV?$_Vector_const_iterator@V?$_Vector_val@UHelpText@@V?$allocator@UHelpText@@@std@@@std@@@2@XZ PROC ; std::vector<HelpText,std::allocator<HelpText> >::begin, COMDAT
; _this$ = ecx

; 786  : 		{	// return iterator for beginning of nonmutable sequence

  00000	55		 push	 ebp
  00001	8b ec		 mov	 ebp, esp

; 787  : 		return (const_iterator(this->_Myfirst, this));

  00003	8b 09		 mov	 ecx, DWORD PTR [ecx]
  00005	8b 45 08	 mov	 eax, DWORD PTR ___$ReturnUdt$[ebp]
  00008	89 08		 mov	 DWORD PTR [eax], ecx

; 788  : 		}

  0000a	5d		 pop	 ebp
  0000b	c2 04 00	 ret	 4
?begin@?$vector@UHelpText@@V?$allocator@UHelpText@@@std@@@std@@QBE?AV?$_Vector_const_iterator@V?$_Vector_val@UHelpText@@V?$allocator@UHelpText@@@std@@@std@@@2@XZ ENDP ; std::vector<HelpText,std::allocator<HelpText> >::begin
_TEXT	ENDS
PUBLIC	?end@?$vector@UHelpText@@V?$allocator@UHelpText@@@std@@@std@@QBE?AV?$_Vector_const_iterator@V?$_Vector_val@UHelpText@@V?$allocator@UHelpText@@@std@@@std@@@2@XZ ; std::vector<HelpText,std::allocator<HelpText> >::end
; Function compile flags: /Ogsp
;	COMDAT ?end@?$vector@UHelpText@@V?$allocator@UHelpText@@@std@@@std@@QBE?AV?$_Vector_const_iterator@V?$_Vector_val@UHelpText@@V?$allocator@UHelpText@@@std@@@std@@@2@XZ
_TEXT	SEGMENT
___$ReturnUdt$ = 8					; size = 4
?end@?$vector@UHelpText@@V?$allocator@UHelpText@@@std@@@std@@QBE?AV?$_Vector_const_iterator@V?$_Vector_val@UHelpText@@V?$allocator@UHelpText@@@std@@@std@@@2@XZ PROC ; std::vector<HelpText,std::allocator<HelpText> >::end, COMDAT
; _this$ = ecx

; 796  : 		{	// return iterator for end of nonmutable sequence

  00000	55		 push	 ebp
  00001	8b ec		 mov	 ebp, esp

; 797  : 		return (const_iterator(this->_Mylast, this));

  00003	8b 49 04	 mov	 ecx, DWORD PTR [ecx+4]
  00006	8b 45 08	 mov	 eax, DWORD PTR ___$ReturnUdt$[ebp]
  00009	89 08		 mov	 DWORD PTR [eax], ecx

; 798  : 		}

  0000b	5d		 pop	 ebp
  0000c	c2 04 00	 ret	 4
?end@?$vector@UHelpText@@V?$allocator@UHelpText@@@std@@@std@@QBE?AV?$_Vector_const_iterator@V?$_Vector_val@UHelpText@@V?$allocator@UHelpText@@@std@@@std@@@2@XZ ENDP ; std::vector<HelpText,std::allocator<HelpText> >::end
_TEXT	ENDS
PUBLIC	?_Buy@?$vector@UHelpText@@V?$allocator@UHelpText@@@std@@@std@@IAE_NI@Z ; std::vector<HelpText,std::allocator<HelpText> >::_Buy
; Function compile flags: /Ogsp
;	COMDAT ?_Buy@?$vector@UHelpText@@V?$allocator@UHelpText@@@std@@@std@@IAE_NI@Z
_TEXT	SEGMENT
__Capacity$ = 8						; size = 4
?_Buy@?$vector@UHelpText@@V?$allocator@UHelpText@@@std@@@std@@IAE_NI@Z PROC ; std::vector<HelpText,std::allocator<HelpText> >::_Buy, COMDAT
; _this$ = ecx

; 1250 : 		{	// allocate array with _Capacity elements

  00000	55		 push	 ebp
  00001	8b ec		 mov	 ebp, esp
  00003	56		 push	 esi

; 1251 : 		this->_Myfirst = 0;

  00004	33 c0		 xor	 eax, eax
  00006	57		 push	 edi

; 1252 : 		this->_Mylast = 0;
; 1253 : 		this->_Myend = 0;
; 1254 : 
; 1255 : 		if (_Capacity == 0)

  00007	8b 7d 08	 mov	 edi, DWORD PTR __Capacity$[ebp]
  0000a	8b f1		 mov	 esi, ecx
  0000c	89 06		 mov	 DWORD PTR [esi], eax
  0000e	89 46 04	 mov	 DWORD PTR [esi+4], eax
  00011	89 46 08	 mov	 DWORD PTR [esi+8], eax
  00014	3b f8		 cmp	 edi, eax
  00016	75 04		 jne	 SHORT $LN4@Buy

; 1256 : 			return (false);

  00018	32 c0		 xor	 al, al
  0001a	eb 2e		 jmp	 SHORT $LN5@Buy
$LN4@Buy:

; 1257 : 		else if (max_size() < _Capacity)

  0001c	81 ff c6 44 7a
	00		 cmp	 edi, 8012998		; 007a44c6H
  00022	76 0b		 jbe	 SHORT $LN2@Buy

; 1258 : 			_Xlen();	// result too long

  00024	68 00 00 00 00	 push	 OFFSET ??_C@_0BD@OLBABOEK@vector?$DMT?$DO?5too?5long?$AA@
  00029	ff 15 00 00 00
	00		 call	 DWORD PTR __imp_?_Xlength_error@std@@YAXPBD@Z
$LN19@Buy:
$LN2@Buy:

; 1259 : 		else
; 1260 : 			{	// nonempty array, allocate storage
; 1261 : 			this->_Myfirst = this->_Alval.allocate(_Capacity);

  0002f	50		 push	 eax
  00030	57		 push	 edi
  00031	e8 00 00 00 00	 call	 ??$_Allocate@UHelpText@@@std@@YAPAUHelpText@@IPAU1@@Z ; std::_Allocate<HelpText>

; 1262 : 			this->_Mylast = this->_Myfirst;
; 1263 : 			this->_Myend = this->_Myfirst + _Capacity;

  00036	69 ff 18 02 00
	00		 imul	 edi, 536		; 00000218H
  0003c	03 f8		 add	 edi, eax
  0003e	59		 pop	 ecx
  0003f	89 06		 mov	 DWORD PTR [esi], eax
  00041	89 46 04	 mov	 DWORD PTR [esi+4], eax
  00044	59		 pop	 ecx
  00045	89 7e 08	 mov	 DWORD PTR [esi+8], edi

; 1264 : 			}
; 1265 : 		return (true);

  00048	b0 01		 mov	 al, 1
$LN5@Buy:
  0004a	5f		 pop	 edi
  0004b	5e		 pop	 esi

; 1266 : 		}

  0004c	5d		 pop	 ebp
  0004d	c2 04 00	 ret	 4
$LN18@Buy:
?_Buy@?$vector@UHelpText@@V?$allocator@UHelpText@@@std@@@std@@IAE_NI@Z ENDP ; std::vector<HelpText,std::allocator<HelpText> >::_Buy
_TEXT	ENDS
PUBLIC	??$_Copy_impl@PAUHelpText@@PAU1@@std@@YAPAUHelpText@@PAU1@00@Z ; std::_Copy_impl<HelpText *,HelpText *>
; Function compile flags: /Ogsp
; File c:\program files (x86)\microsoft visual studio 10.0\vc\include\xutility
;	COMDAT ??$_Copy_impl@PAUHelpText@@PAU1@@std@@YAPAUHelpText@@PAU1@00@Z
_TEXT	SEGMENT
__Cat$528175 = -4					; size = 1
__First$ = 8						; size = 4
__Last$ = 12						; size = 4
__Dest$ = 16						; size = 4
??$_Copy_impl@PAUHelpText@@PAU1@@std@@YAPAUHelpText@@PAU1@00@Z PROC ; std::_Copy_impl<HelpText *,HelpText *>, COMDAT

; 2163 : 	{	// copy [_First, _Last) to [_Dest, ...)

  00000	55		 push	 ebp
  00001	8b ec		 mov	 ebp, esp
  00003	51		 push	 ecx

; 2164 : 	return (_Copy_impl(_First, _Last,
; 2165 : 		_Dest, _Ptr_cat(_First, _Dest)));

  00004	ff 75 fc	 push	 DWORD PTR __Cat$528175[ebp]
  00007	ff 75 10	 push	 DWORD PTR __Dest$[ebp]
  0000a	ff 75 0c	 push	 DWORD PTR __Last$[ebp]
  0000d	ff 75 08	 push	 DWORD PTR __First$[ebp]
  00010	e8 00 00 00 00	 call	 ??$_Copy_impl@PAUHelpText@@PAU1@@std@@YAPAUHelpText@@PAU1@00U_Nonscalar_ptr_iterator_tag@0@@Z ; std::_Copy_impl<HelpText *,HelpText *>
  00015	83 c4 10	 add	 esp, 16			; 00000010H

; 2166 : 	}

  00018	c9		 leave
  00019	c3		 ret	 0
??$_Copy_impl@PAUHelpText@@PAU1@@std@@YAPAUHelpText@@PAU1@00@Z ENDP ; std::_Copy_impl<HelpText *,HelpText *>
_TEXT	ENDS
PUBLIC	?construct@?$allocator@UHelpText@@@std@@QAEXPAUHelpText@@$$QAU3@@Z ; std::allocator<HelpText>::construct
; Function compile flags: /Ogsp
; File c:\program files (x86)\microsoft visual studio 10.0\vc\include\xmemory
;	COMDAT ?construct@?$allocator@UHelpText@@@std@@QAEXPAUHelpText@@$$QAU3@@Z
_TEXT	SEGMENT
__Ptr$ = 8						; size = 4
__Val$ = 12						; size = 4
?construct@?$allocator@UHelpText@@@std@@QAEXPAUHelpText@@$$QAU3@@Z PROC ; std::allocator<HelpText>::construct, COMDAT
; _this$ = ecx

; 201  : 		{	// construct object at _Ptr with value _Val

  00000	55		 push	 ebp
  00001	8b ec		 mov	 ebp, esp
  00003	57		 push	 edi

; 202  : 		::new ((void _FARQ *)_Ptr) _Ty(_STD forward<_Ty>(_Val));

  00004	8b 7d 08	 mov	 edi, DWORD PTR __Ptr$[ebp]
  00007	85 ff		 test	 edi, edi
  00009	74 0c		 je	 SHORT $LN3@construct@3
  0000b	56		 push	 esi
  0000c	8b 75 0c	 mov	 esi, DWORD PTR __Val$[ebp]
  0000f	b9 86 00 00 00	 mov	 ecx, 134		; 00000086H
  00014	f3 a5		 rep movsd
  00016	5e		 pop	 esi
$LN3@construct@3:
  00017	5f		 pop	 edi

; 203  : 		}

  00018	5d		 pop	 ebp
  00019	c2 08 00	 ret	 8
?construct@?$allocator@UHelpText@@@std@@QAEXPAUHelpText@@$$QAU3@@Z ENDP ; std::allocator<HelpText>::construct
_TEXT	ENDS
PUBLIC	?StringCbCopyA@@YGJPADIPBD@Z			; StringCbCopyA
; Function compile flags: /Ogsp
; File c:\program files (x86)\microsoft sdks\windows\v7.0a\include\strsafe.h
;	COMDAT ?StringCbCopyA@@YGJPADIPBD@Z
_TEXT	SEGMENT
_pszDest$ = 8						; size = 4
_cbDest$ = 12						; size = 4
_pszSrc$ = 16						; size = 4
?StringCbCopyA@@YGJPADIPBD@Z PROC			; StringCbCopyA, COMDAT

; 582  : {

  00000	55		 push	 ebp
  00001	8b ec		 mov	 ebp, esp

; 583  :     HRESULT hr;
; 584  :     size_t cchDest = cbDest / sizeof(char);
; 585  : 
; 586  :     hr = StringValidateDestA(pszDest, cchDest, STRSAFE_MAX_CCH);

  00003	8b 4d 0c	 mov	 ecx, DWORD PTR _cbDest$[ebp]
  00006	33 c0		 xor	 eax, eax
  00008	85 c9		 test	 ecx, ecx
  0000a	74 08		 je	 SHORT $LN4@StringCbCo
  0000c	81 f9 ff ff ff
	7f		 cmp	 ecx, 2147483647		; 7fffffffH
  00012	76 05		 jbe	 SHORT $LN5@StringCbCo
$LN4@StringCbCo:
  00014	b8 57 00 07 80	 mov	 eax, -2147024809	; 80070057H
$LN5@StringCbCo:

; 587  : 
; 588  :     if (SUCCEEDED(hr))

  00019	85 c0		 test	 eax, eax
  0001b	78 40		 js	 SHORT $LN1@StringCbCo

; 589  :     {
; 590  :         hr = StringCopyWorkerA(pszDest,
; 591  :                                cchDest,
; 592  :                                NULL,
; 593  :                                pszSrc,
; 594  :                                STRSAFE_MAX_LENGTH);

  0001d	8b 45 08	 mov	 eax, DWORD PTR _pszDest$[ebp]
  00020	53		 push	 ebx
  00021	33 db		 xor	 ebx, ebx
  00023	56		 push	 esi
  00024	8b f1		 mov	 esi, ecx
  00026	85 c9		 test	 ecx, ecx
  00028	74 26		 je	 SHORT $LN16@StringCbCo
  0002a	8b 55 10	 mov	 edx, DWORD PTR _pszSrc$[ebp]
  0002d	57		 push	 edi
  0002e	bf fe ff ff 7f	 mov	 edi, 2147483646		; 7ffffffeH
  00033	2b f9		 sub	 edi, ecx
  00035	2b d0		 sub	 edx, eax
$LL11@StringCbCo:
  00037	8d 0c 37	 lea	 ecx, DWORD PTR [edi+esi]
  0003a	85 c9		 test	 ecx, ecx
  0003c	74 0d		 je	 SHORT $LN10@StringCbCo
  0003e	8a 0c 02	 mov	 cl, BYTE PTR [edx+eax]
  00041	84 c9		 test	 cl, cl
  00043	74 06		 je	 SHORT $LN10@StringCbCo
  00045	88 08		 mov	 BYTE PTR [eax], cl
  00047	40		 inc	 eax
  00048	4e		 dec	 esi
  00049	75 ec		 jne	 SHORT $LL11@StringCbCo
$LN10@StringCbCo:
  0004b	5f		 pop	 edi
  0004c	85 f6		 test	 esi, esi
  0004e	75 06		 jne	 SHORT $LN9@StringCbCo
$LN16@StringCbCo:
  00050	48		 dec	 eax
  00051	bb 7a 00 07 80	 mov	 ebx, -2147024774	; 8007007aH
$LN9@StringCbCo:
  00056	c6 00 00	 mov	 BYTE PTR [eax], 0
  00059	5e		 pop	 esi
  0005a	8b c3		 mov	 eax, ebx
  0005c	5b		 pop	 ebx
$LN1@StringCbCo:

; 595  :     }
; 596  : 
; 597  :     return hr;
; 598  : }

  0005d	5d		 pop	 ebp
  0005e	c2 0c 00	 ret	 12			; 0000000cH
?StringCbCopyA@@YGJPADIPBD@Z ENDP			; StringCbCopyA
_TEXT	ENDS
PUBLIC	??B?$CEncrypt@W4ModeType@@@@QAE?AW4ModeType@@XZ	; CEncrypt<enum ModeType>::operator enum ModeType
; Function compile flags: /Ogsp
; File d:\lost saga for developer\youtube\tutorial\source\src\lsclient\encryptvalue.h
;	COMDAT ??B?$CEncrypt@W4ModeType@@@@QAE?AW4ModeType@@XZ
_TEXT	SEGMENT
_value$ = -4						; size = 4
??B?$CEncrypt@W4ModeType@@@@QAE?AW4ModeType@@XZ PROC	; CEncrypt<enum ModeType>::operator enum ModeType, COMDAT
; _this$ = ecx

; 134  : 	{

  00000	55		 push	 ebp
  00001	8b ec		 mov	 ebp, esp
  00003	51		 push	 ecx

; 135  : 		type value;
; 136  : 		DecryptValueToPool(&value);

  00004	8d 45 fc	 lea	 eax, DWORD PTR _value$[ebp]
  00007	50		 push	 eax
  00008	e8 00 00 00 00	 call	 ?DecryptValueToPool@?$CEncrypt@W4ModeType@@@@QAEXPAW4ModeType@@@Z ; CEncrypt<enum ModeType>::DecryptValueToPool

; 137  : 
; 138  : #ifdef _NOTUSE
; 139  : 		Debug();
; 140  : #endif
; 141  : 		return value;

  0000d	8b 45 fc	 mov	 eax, DWORD PTR _value$[ebp]

; 142  : 	}

  00010	c9		 leave
  00011	c3		 ret	 0
??B?$CEncrypt@W4ModeType@@@@QAE?AW4ModeType@@XZ ENDP	; CEncrypt<enum ModeType>::operator enum ModeType
_TEXT	ENDS
PUBLIC	??0?$_Vector_val@UHelpText@@V?$allocator@UHelpText@@@std@@@std@@QAE@V?$allocator@UHelpText@@@1@@Z ; std::_Vector_val<HelpText,std::allocator<HelpText> >::_Vector_val<HelpText,std::allocator<HelpText> >
; Function compile flags: /Ogsp
; File c:\program files (x86)\microsoft visual studio 10.0\vc\include\vector
;	COMDAT ??0?$_Vector_val@UHelpText@@V?$allocator@UHelpText@@@std@@@std@@QAE@V?$allocator@UHelpText@@@1@@Z
_TEXT	SEGMENT
__Al$ = 8						; size = 1
??0?$_Vector_val@UHelpText@@V?$allocator@UHelpText@@@std@@@std@@QAE@V?$allocator@UHelpText@@@1@@Z PROC ; std::_Vector_val<HelpText,std::allocator<HelpText> >::_Vector_val<HelpText,std::allocator<HelpText> >, COMDAT
; _this$ = ecx

; 426  : 		{	// construct allocator from _Al

  00000	8b c1		 mov	 eax, ecx

; 427  : 		_Myfirst = 0;

  00002	33 c9		 xor	 ecx, ecx
  00004	89 08		 mov	 DWORD PTR [eax], ecx

; 428  : 		_Mylast = 0;

  00006	89 48 04	 mov	 DWORD PTR [eax+4], ecx

; 429  : 		_Myend = 0;

  00009	89 48 08	 mov	 DWORD PTR [eax+8], ecx

; 430  : 		}

  0000c	c2 04 00	 ret	 4
??0?$_Vector_val@UHelpText@@V?$allocator@UHelpText@@@std@@@std@@QAE@V?$allocator@UHelpText@@@1@@Z ENDP ; std::_Vector_val<HelpText,std::allocator<HelpText> >::_Vector_val<HelpText,std::allocator<HelpText> >
_TEXT	ENDS
PUBLIC	??0?$_Vector_iterator@V?$_Vector_val@UHelpText@@V?$allocator@UHelpText@@@std@@@std@@@std@@QAE@PAUHelpText@@PBU_Container_base0@1@@Z ; std::_Vector_iterator<std::_Vector_val<HelpText,std::allocator<HelpText> > >::_Vector_iterator<std::_Vector_val<HelpText,std::allocator<HelpText> > >
; Function compile flags: /Ogsp
;	COMDAT ??0?$_Vector_iterator@V?$_Vector_val@UHelpText@@V?$allocator@UHelpText@@@std@@@std@@@std@@QAE@PAUHelpText@@PBU_Container_base0@1@@Z
_TEXT	SEGMENT
__Parg$ = 8						; size = 4
__Pvector$ = 12						; size = 4
??0?$_Vector_iterator@V?$_Vector_val@UHelpText@@V?$allocator@UHelpText@@@std@@@std@@@std@@QAE@PAUHelpText@@PBU_Container_base0@1@@Z PROC ; std::_Vector_iterator<std::_Vector_val<HelpText,std::allocator<HelpText> > >::_Vector_iterator<std::_Vector_val<HelpText,std::allocator<HelpText> > >, COMDAT
; _this$ = ecx

; 304  : 		{	// construct with pointer _Parg

  00000	55		 push	 ebp
  00001	8b ec		 mov	 ebp, esp
  00003	8b c1		 mov	 eax, ecx
  00005	8b 4d 08	 mov	 ecx, DWORD PTR __Parg$[ebp]
  00008	89 08		 mov	 DWORD PTR [eax], ecx

; 305  : 		}

  0000a	5d		 pop	 ebp
  0000b	c2 08 00	 ret	 8
??0?$_Vector_iterator@V?$_Vector_val@UHelpText@@V?$allocator@UHelpText@@@std@@@std@@@std@@QAE@PAUHelpText@@PBU_Container_base0@1@@Z ENDP ; std::_Vector_iterator<std::_Vector_val<HelpText,std::allocator<HelpText> > >::_Vector_iterator<std::_Vector_val<HelpText,std::allocator<HelpText> > >
_TEXT	ENDS
PUBLIC	??8?$_Vector_const_iterator@V?$_Vector_val@UHelpText@@V?$allocator@UHelpText@@@std@@@std@@@std@@QBE_NABV01@@Z ; std::_Vector_const_iterator<std::_Vector_val<HelpText,std::allocator<HelpText> > >::operator==
; Function compile flags: /Ogsp
;	COMDAT ??8?$_Vector_const_iterator@V?$_Vector_val@UHelpText@@V?$allocator@UHelpText@@@std@@@std@@@std@@QBE_NABV01@@Z
_TEXT	SEGMENT
__Right$ = 8						; size = 4
??8?$_Vector_const_iterator@V?$_Vector_val@UHelpText@@V?$allocator@UHelpText@@@std@@@std@@@std@@QBE_NABV01@@Z PROC ; std::_Vector_const_iterator<std::_Vector_val<HelpText,std::allocator<HelpText> > >::operator==, COMDAT
; _this$ = ecx

; 201  : 		{	// test for iterator equality

  00000	55		 push	 ebp
  00001	8b ec		 mov	 ebp, esp

; 202  : 		_Compat(_Right);
; 203  : 		return (this->_Ptr == _Right._Ptr);

  00003	8b 01		 mov	 eax, DWORD PTR [ecx]
  00005	8b 4d 08	 mov	 ecx, DWORD PTR __Right$[ebp]
  00008	2b 01		 sub	 eax, DWORD PTR [ecx]
  0000a	f7 d8		 neg	 eax
  0000c	1b c0		 sbb	 eax, eax
  0000e	40		 inc	 eax

; 204  : 		}

  0000f	5d		 pop	 ebp
  00010	c2 04 00	 ret	 4
??8?$_Vector_const_iterator@V?$_Vector_val@UHelpText@@V?$allocator@UHelpText@@@std@@@std@@@std@@QBE_NABV01@@Z ENDP ; std::_Vector_const_iterator<std::_Vector_val<HelpText,std::allocator<HelpText> > >::operator==
_TEXT	ENDS
PUBLIC	??$_Move@PAUHelpText@@PAU1@@std@@YAPAUHelpText@@PAU1@00U_Nonscalar_ptr_iterator_tag@0@@Z ; std::_Move<HelpText *,HelpText *>
; Function compile flags: /Ogsp
; File c:\program files (x86)\microsoft visual studio 10.0\vc\include\xutility
;	COMDAT ??$_Move@PAUHelpText@@PAU1@@std@@YAPAUHelpText@@PAU1@00U_Nonscalar_ptr_iterator_tag@0@@Z
_TEXT	SEGMENT
__First$ = 8						; size = 4
__Last$ = 12						; size = 4
__Dest$ = 16						; size = 4
___formal$ = 20						; size = 1
??$_Move@PAUHelpText@@PAU1@@std@@YAPAUHelpText@@PAU1@00U_Nonscalar_ptr_iterator_tag@0@@Z PROC ; std::_Move<HelpText *,HelpText *>, COMDAT

; 2512 : 	{	// move [_First, _Last) to [_Dest, ...), arbitrary iterators

  00000	55		 push	 ebp
  00001	8b ec		 mov	 ebp, esp

; 2513 : 	for (; _First != _Last; ++_Dest, ++_First)

  00003	8b 55 08	 mov	 edx, DWORD PTR __First$[ebp]
  00006	3b 55 0c	 cmp	 edx, DWORD PTR __Last$[ebp]
  00009	74 1f		 je	 SHORT $LN10@Move
  0000b	56		 push	 esi
  0000c	b8 18 02 00 00	 mov	 eax, 536		; 00000218H
  00011	57		 push	 edi
$LL3@Move:

; 2514 : 		*_Dest = _STD move(*_First);

  00012	8b 7d 10	 mov	 edi, DWORD PTR __Dest$[ebp]
  00015	01 45 10	 add	 DWORD PTR __Dest$[ebp], eax
  00018	8b f2		 mov	 esi, edx
  0001a	03 d0		 add	 edx, eax
  0001c	b9 86 00 00 00	 mov	 ecx, 134		; 00000086H
  00021	f3 a5		 rep movsd
  00023	3b 55 0c	 cmp	 edx, DWORD PTR __Last$[ebp]
  00026	75 ea		 jne	 SHORT $LL3@Move
  00028	5f		 pop	 edi
  00029	5e		 pop	 esi
$LN10@Move:

; 2515 : 	return (_Dest);

  0002a	8b 45 10	 mov	 eax, DWORD PTR __Dest$[ebp]

; 2516 : 	}

  0002d	5d		 pop	 ebp
  0002e	c3		 ret	 0
??$_Move@PAUHelpText@@PAU1@@std@@YAPAUHelpText@@PAU1@00U_Nonscalar_ptr_iterator_tag@0@@Z ENDP ; std::_Move<HelpText *,HelpText *>
_TEXT	ENDS
PUBLIC	?destroy@?$allocator@UHelpText@@@std@@QAEXPAUHelpText@@@Z ; std::allocator<HelpText>::destroy
; Function compile flags: /Ogsp
; File c:\program files (x86)\microsoft visual studio 10.0\vc\include\xmemory
;	COMDAT ?destroy@?$allocator@UHelpText@@@std@@QAEXPAUHelpText@@@Z
_TEXT	SEGMENT
__Ptr$ = 8						; size = 4
?destroy@?$allocator@UHelpText@@@std@@QAEXPAUHelpText@@@Z PROC ; std::allocator<HelpText>::destroy, COMDAT
; _this$ = ecx

; 213  : 		_Destroy(_Ptr);
; 214  : 		}

  00000	c2 04 00	 ret	 4
?destroy@?$allocator@UHelpText@@@std@@QAEXPAUHelpText@@@Z ENDP ; std::allocator<HelpText>::destroy
_TEXT	ENDS
PUBLIC	?ShowHelp@ioModeHelpManager@@QAEXW4HelpType@1@K@Z ; ioModeHelpManager::ShowHelp
; Function compile flags: /Ogsp
; File d:\lost saga for developer\youtube\tutorial\source\src\lsclient\gui\iomodehelpmanager.cpp
;	COMDAT ?ShowHelp@ioModeHelpManager@@QAEXW4HelpType@1@K@Z
_TEXT	SEGMENT
_eHelpType$ = 8						; size = 4
_dwHideHelpTime$ = 12					; size = 4
?ShowHelp@ioModeHelpManager@@QAEXW4HelpType@1@K@Z PROC	; ioModeHelpManager::ShowHelp, COMDAT
; _this$ = ecx

; 105  : {

  00000	55		 push	 ebp
  00001	8b ec		 mov	 ebp, esp
  00003	56		 push	 esi
  00004	8b f1		 mov	 esi, ecx

; 106  : 	if( m_eCurHelpType == HT_VIEW ) return;

  00006	8b 4e 14	 mov	 ecx, DWORD PTR [esi+20]
  00009	57		 push	 edi
  0000a	83 f9 01	 cmp	 ecx, 1
  0000d	74 78		 je	 SHORT $LN10@ShowHelp

; 107  : 	if( !COMPARE( eHelpType, HT_VIEW, HT_MAX ) ) return;

  0000f	8b 45 08	 mov	 eax, DWORD PTR _eHelpType$[ebp]
  00012	8d 50 ff	 lea	 edx, DWORD PTR [eax-1]
  00015	83 fa 25	 cmp	 edx, 37			; 00000025H
  00018	77 6d		 ja	 SHORT $LN10@ShowHelp

; 108  : 
; 109  : 	if( m_eCurHelpType == eHelpType && eHelpType != HT_SKILL && eHelpType != HT_BUFF ) return;

  0001a	3b c8		 cmp	 ecx, eax
  0001c	75 0a		 jne	 SHORT $LN9@ShowHelp
  0001e	83 f8 0e	 cmp	 eax, 14			; 0000000eH
  00021	74 05		 je	 SHORT $LN9@ShowHelp
  00023	83 f8 14	 cmp	 eax, 20			; 00000014H
  00026	75 5f		 jne	 SHORT $LN10@ShowHelp
$LN9@ShowHelp:

; 110  : 
; 111  : 	if( eHelpType == HT_STOP_GAUGE1 && m_eCurHelpType != HT_NONE )

  00028	83 f8 11	 cmp	 eax, 17			; 00000011H
  0002b	75 09		 jne	 SHORT $LN7@ShowHelp
  0002d	85 c9		 test	 ecx, ecx
  0002f	74 20		 je	 SHORT $LN5@ShowHelp

; 112  : 	{
; 113  : 		if( m_eCurHelpType != HT_DEATH_TIME )

  00031	83 f9 13	 cmp	 ecx, 19			; 00000013H
  00034	75 51		 jne	 SHORT $LN10@ShowHelp
$LN7@ShowHelp:

; 114  : 			return;
; 115  : 	}
; 116  : 
; 117  : 	if( eHelpType == HT_REVIVING && m_eCurHelpType == HT_DIE )

  00036	83 f8 02	 cmp	 eax, 2
  00039	75 0d		 jne	 SHORT $LN6@ShowHelp
  0003b	83 f9 12	 cmp	 ecx, 18			; 00000012H
  0003e	75 11		 jne	 SHORT $LN5@ShowHelp

; 118  : 	{
; 119  : 		m_dwReserveRevivalEndTime = dwHideHelpTime;

  00040	8b 45 0c	 mov	 eax, DWORD PTR _dwHideHelpTime$[ebp]
  00043	89 46 1c	 mov	 DWORD PTR [esi+28], eax

; 120  : 		return;

  00046	eb 3f		 jmp	 SHORT $LN10@ShowHelp
$LN6@ShowHelp:

; 121  : 	}
; 122  : 
; 123  : 	if( eHelpType == HT_DEATH_TIME && m_eCurHelpType != HT_NONE ) return;

  00048	83 f8 13	 cmp	 eax, 19			; 00000013H
  0004b	75 04		 jne	 SHORT $LN5@ShowHelp
  0004d	85 c9		 test	 ecx, ecx
  0004f	75 36		 jne	 SHORT $LN10@ShowHelp
$LN5@ShowHelp:

; 124  : 
; 125  : 	m_eCurHelpType = eHelpType;
; 126  : 	if( dwHideHelpTime == 0 )

  00051	8b 4d 0c	 mov	 ecx, DWORD PTR _dwHideHelpTime$[ebp]
  00054	89 46 14	 mov	 DWORD PTR [esi+20], eax
  00057	85 c9		 test	 ecx, ecx
  00059	75 29		 jne	 SHORT $LN4@ShowHelp

; 127  : 	{
; 128  : 		int iDuration = GetDuration( m_eCurHelpType );

  0005b	50		 push	 eax
  0005c	8b ce		 mov	 ecx, esi
  0005e	e8 00 00 00 00	 call	 ?GetDuration@ioModeHelpManager@@IAEHW4HelpType@1@@Z ; ioModeHelpManager::GetDuration
  00063	8b f8		 mov	 edi, eax

; 129  : 		if( iDuration != 0 )

  00065	85 ff		 test	 edi, edi
  00067	74 15		 je	 SHORT $LN3@ShowHelp

; 130  : 			m_dwHideHelpTime = FRAMEGETTIME() + iDuration;

  00069	ff 15 00 00 00
	00		 call	 DWORD PTR __imp_?GetSingleton@ioFrameTimer@@SAAAV1@XZ
  0006f	8b c8		 mov	 ecx, eax
  00071	ff 15 00 00 00
	00		 call	 DWORD PTR __imp_?GetLoopSec@ioFrameTimer@@QBEKXZ
  00077	03 c7		 add	 eax, edi
  00079	89 46 18	 mov	 DWORD PTR [esi+24], eax

; 131  : 		else

  0007c	eb 09		 jmp	 SHORT $LN10@ShowHelp
$LN3@ShowHelp:

; 132  : 			m_dwHideHelpTime = 0;

  0007e	83 66 18 00	 and	 DWORD PTR [esi+24], 0

; 133  : 	}
; 134  : 	else

  00082	eb 03		 jmp	 SHORT $LN10@ShowHelp
$LN4@ShowHelp:

; 135  : 		m_dwHideHelpTime = dwHideHelpTime;

  00084	89 4e 18	 mov	 DWORD PTR [esi+24], ecx
$LN10@ShowHelp:
  00087	5f		 pop	 edi
  00088	5e		 pop	 esi

; 136  : 		
; 137  : 	ShowHelpWnd();
; 138  : }

  00089	5d		 pop	 ebp
  0008a	c2 08 00	 ret	 8
?ShowHelp@ioModeHelpManager@@QAEXW4HelpType@1@K@Z ENDP	; ioModeHelpManager::ShowHelp
_TEXT	ENDS
PUBLIC	?SetHelpList@ioModeHelpManager@@IAEXW4HelpType@1@ABVioHashString@@11@Z ; ioModeHelpManager::SetHelpList
EXTRN	__imp_?c_str@ioHashString@@QBEPBDXZ:PROC
EXTRN	__imp_??4ioHashString@@QAEAAV0@ABV0@@Z:PROC
; Function compile flags: /Ogsp
;	COMDAT ?SetHelpList@ioModeHelpManager@@IAEXW4HelpType@1@ABVioHashString@@11@Z
_TEXT	SEGMENT
_j$524665 = 8						; size = 4
_eHelpType$ = 8						; size = 4
_rszText1$ = 12						; size = 4
_rszText2$ = 16						; size = 4
_iTextSize$524664 = 20					; size = 4
_rszIconName$ = 20					; size = 4
?SetHelpList@ioModeHelpManager@@IAEXW4HelpType@1@ABVioHashString@@11@Z PROC ; ioModeHelpManager::SetHelpList, COMDAT
; _this$ = ecx

; 296  : {

  00000	55		 push	 ebp
  00001	8b ec		 mov	 ebp, esp
  00003	56		 push	 esi
  00004	57		 push	 edi
  00005	8b f9		 mov	 edi, ecx

; 297  : 	int iSize = m_vModeHelpList.size();

  00007	8b 47 08	 mov	 eax, DWORD PTR [edi+8]
  0000a	2b 47 04	 sub	 eax, DWORD PTR [edi+4]
  0000d	6a 2c		 push	 44			; 0000002cH
  0000f	99		 cdq
  00010	59		 pop	 ecx
  00011	f7 f9		 idiv	 ecx

; 298  : 	for( int i=0; i < iSize; ++i )

  00013	33 f6		 xor	 esi, esi
  00015	85 c0		 test	 eax, eax
  00017	0f 8e 84 00 00
	00		 jle	 $LN4@SetHelpLis

; 297  : 	int iSize = m_vModeHelpList.size();

  0001d	8b 4f 04	 mov	 ecx, DWORD PTR [edi+4]
  00020	8d 51 04	 lea	 edx, DWORD PTR [ecx+4]
  00023	53		 push	 ebx
$LL10@SetHelpLis:

; 299  : 	{
; 300  : 		if( m_vModeHelpList[i].m_iType == eHelpType )

  00024	8b 1a		 mov	 ebx, DWORD PTR [edx]
  00026	3b 5d 08	 cmp	 ebx, DWORD PTR _eHelpType$[ebp]
  00029	74 0a		 je	 SHORT $LN29@SetHelpLis

; 298  : 	for( int i=0; i < iSize; ++i )

  0002b	46		 inc	 esi
  0002c	83 c2 2c	 add	 edx, 44			; 0000002cH
  0002f	3b f0		 cmp	 esi, eax
  00031	7c f1		 jl	 SHORT $LL10@SetHelpLis

; 299  : 	{
; 300  : 		if( m_vModeHelpList[i].m_iType == eHelpType )

  00033	eb 6b		 jmp	 SHORT $LN33@SetHelpLis
$LN29@SetHelpLis:

; 301  : 		{
; 302  : 			m_vModeHelpList[i].m_szIconName = rszIconName;

  00035	ff 75 14	 push	 DWORD PTR _rszIconName$[ebp]
  00038	6b f6 2c	 imul	 esi, 44			; 0000002cH
  0003b	8d 4c 31 0c	 lea	 ecx, DWORD PTR [ecx+esi+12]
  0003f	ff 15 00 00 00
	00		 call	 DWORD PTR __imp_??4ioHashString@@QAEAAV0@ABV0@@Z

; 303  : 
; 304  : 			vHelpText &rvText = m_vModeHelpList[i].m_vText;

  00045	8b 47 04	 mov	 eax, DWORD PTR [edi+4]
  00048	8d 74 06 1c	 lea	 esi, DWORD PTR [esi+eax+28]

; 305  : 			int iTextSize = rvText.size();

  0004c	8b 46 04	 mov	 eax, DWORD PTR [esi+4]
  0004f	2b 06		 sub	 eax, DWORD PTR [esi]
  00051	bb 18 02 00 00	 mov	 ebx, 536		; 00000218H
  00056	99		 cdq
  00057	8b cb		 mov	 ecx, ebx
  00059	f7 f9		 idiv	 ecx

; 306  : 			for (int j = 0; j < iTextSize ; j++)

  0005b	83 65 08 00	 and	 DWORD PTR _j$524665[ebp], 0
  0005f	89 45 14	 mov	 DWORD PTR _iTextSize$524664[ebp], eax
  00062	85 c0		 test	 eax, eax
  00064	7e 3a		 jle	 SHORT $LN33@SetHelpLis
$LL32@SetHelpLis:

; 307  : 			{
; 308  : 				if( j == 0)

  00066	83 7d 08 00	 cmp	 DWORD PTR _j$524665[ebp], 0
  0006a	75 07		 jne	 SHORT $LN3@SetHelpLis

; 309  : 					StringCbCopy( rvText[j].m_szHelp, sizeof(rvText[j].m_szHelp), rszText1.c_str() );

  0006c	8b 3e		 mov	 edi, DWORD PTR [esi]
  0006e	8b 4d 0c	 mov	 ecx, DWORD PTR _rszText1$[ebp]
  00071	eb 0d		 jmp	 SHORT $LN34@SetHelpLis
$LN3@SetHelpLis:

; 310  : 				else if( j == 1 )

  00073	83 7d 08 01	 cmp	 DWORD PTR _j$524665[ebp], 1
  00077	75 1c		 jne	 SHORT $LN5@SetHelpLis

; 311  : 					StringCbCopy( rvText[j].m_szHelp, sizeof(rvText[j].m_szHelp), rszText2.c_str() );

  00079	8b 3e		 mov	 edi, DWORD PTR [esi]
  0007b	8b 4d 10	 mov	 ecx, DWORD PTR _rszText2$[ebp]
  0007e	03 fb		 add	 edi, ebx
$LN34@SetHelpLis:
  00080	ff 15 00 00 00
	00		 call	 DWORD PTR __imp_?c_str@ioHashString@@QBEPBDXZ
  00086	50		 push	 eax
  00087	68 04 01 00 00	 push	 260			; 00000104H
  0008c	83 c7 04	 add	 edi, 4
  0008f	57		 push	 edi
  00090	e8 00 00 00 00	 call	 ?StringCbCopyA@@YGJPADIPBD@Z ; StringCbCopyA
$LN5@SetHelpLis:

; 306  : 			for (int j = 0; j < iTextSize ; j++)

  00095	ff 45 08	 inc	 DWORD PTR _j$524665[ebp]
  00098	8b 45 08	 mov	 eax, DWORD PTR _j$524665[ebp]
  0009b	3b 45 14	 cmp	 eax, DWORD PTR _iTextSize$524664[ebp]
  0009e	7c c6		 jl	 SHORT $LL32@SetHelpLis
$LN33@SetHelpLis:
  000a0	5b		 pop	 ebx
$LN4@SetHelpLis:
  000a1	5f		 pop	 edi
  000a2	5e		 pop	 esi

; 312  : 			}
; 313  : 			return;
; 314  : 		}
; 315  : 	}
; 316  : }

  000a3	5d		 pop	 ebp
  000a4	c2 10 00	 ret	 16			; 00000010H
?SetHelpList@ioModeHelpManager@@IAEXW4HelpType@1@ABVioHashString@@11@Z ENDP ; ioModeHelpManager::SetHelpList
_TEXT	ENDS
PUBLIC	?SetHelpList@ioModeHelpManager@@IAEXW4HelpType@1@ABVioHashString@@@Z ; ioModeHelpManager::SetHelpList
; Function compile flags: /Ogsp
;	COMDAT ?SetHelpList@ioModeHelpManager@@IAEXW4HelpType@1@ABVioHashString@@@Z
_TEXT	SEGMENT
_iTextSize$524684 = -4					; size = 4
_j$524685 = 8						; size = 4
_eHelpType$ = 8						; size = 4
_rszText2$ = 12						; size = 4
?SetHelpList@ioModeHelpManager@@IAEXW4HelpType@1@ABVioHashString@@@Z PROC ; ioModeHelpManager::SetHelpList, COMDAT
; _this$ = ecx

; 319  : {

  00000	55		 push	 ebp
  00001	8b ec		 mov	 ebp, esp
  00003	51		 push	 ecx

; 320  : 	int iSize = m_vModeHelpList.size();

  00004	8b 41 08	 mov	 eax, DWORD PTR [ecx+8]
  00007	2b 41 04	 sub	 eax, DWORD PTR [ecx+4]
  0000a	56		 push	 esi
  0000b	6a 2c		 push	 44			; 0000002cH
  0000d	99		 cdq
  0000e	5e		 pop	 esi
  0000f	f7 fe		 idiv	 esi

; 321  : 	for( int i=0; i < iSize; ++i )

  00011	33 d2		 xor	 edx, edx
  00013	85 c0		 test	 eax, eax
  00015	7e 66		 jle	 SHORT $LN2@SetHelpLis@2

; 320  : 	int iSize = m_vModeHelpList.size();

  00017	8b 49 04	 mov	 ecx, DWORD PTR [ecx+4]
  0001a	8d 71 04	 lea	 esi, DWORD PTR [ecx+4]
  0001d	57		 push	 edi
$LL8@SetHelpLis@2:

; 322  : 	{
; 323  : 		if( m_vModeHelpList[i].m_iType == eHelpType )

  0001e	8b 3e		 mov	 edi, DWORD PTR [esi]
  00020	3b 7d 08	 cmp	 edi, DWORD PTR _eHelpType$[ebp]
  00023	74 0a		 je	 SHORT $LN23@SetHelpLis@2

; 321  : 	for( int i=0; i < iSize; ++i )

  00025	42		 inc	 edx
  00026	83 c6 2c	 add	 esi, 44			; 0000002cH
  00029	3b d0		 cmp	 edx, eax
  0002b	7c f1		 jl	 SHORT $LL8@SetHelpLis@2

; 322  : 	{
; 323  : 		if( m_vModeHelpList[i].m_iType == eHelpType )

  0002d	eb 4d		 jmp	 SHORT $LN26@SetHelpLis@2
$LN23@SetHelpLis@2:

; 324  : 		{
; 325  : 			vHelpText &rvText = m_vModeHelpList[i].m_vText;

  0002f	6b d2 2c	 imul	 edx, 44			; 0000002cH
  00032	8d 74 0a 1c	 lea	 esi, DWORD PTR [edx+ecx+28]

; 326  : 			int iTextSize = rvText.size();

  00036	8b 46 04	 mov	 eax, DWORD PTR [esi+4]
  00039	2b 06		 sub	 eax, DWORD PTR [esi]
  0003b	b9 18 02 00 00	 mov	 ecx, 536		; 00000218H
  00040	99		 cdq
  00041	f7 f9		 idiv	 ecx

; 327  : 			for (int j = 0; j < iTextSize ; j++)

  00043	83 65 08 00	 and	 DWORD PTR _j$524685[ebp], 0
  00047	89 45 fc	 mov	 DWORD PTR _iTextSize$524684[ebp], eax
  0004a	85 c0		 test	 eax, eax
  0004c	7e 2e		 jle	 SHORT $LN26@SetHelpLis@2
$LL4@SetHelpLis@2:

; 328  : 			{
; 329  : 				if( j == 1 )

  0004e	83 7d 08 01	 cmp	 DWORD PTR _j$524685[ebp], 1
  00052	75 1d		 jne	 SHORT $LN3@SetHelpLis@2

; 330  : 					StringCbCopy( rvText[j].m_szHelp, sizeof(rvText[j].m_szHelp), rszText2.c_str() );

  00054	8b 4d 0c	 mov	 ecx, DWORD PTR _rszText2$[ebp]
  00057	8b 3e		 mov	 edi, DWORD PTR [esi]
  00059	ff 15 00 00 00
	00		 call	 DWORD PTR __imp_?c_str@ioHashString@@QBEPBDXZ
  0005f	50		 push	 eax
  00060	68 04 01 00 00	 push	 260			; 00000104H
  00065	81 c7 1c 02 00
	00		 add	 edi, 540		; 0000021cH
  0006b	57		 push	 edi
  0006c	e8 00 00 00 00	 call	 ?StringCbCopyA@@YGJPADIPBD@Z ; StringCbCopyA
$LN3@SetHelpLis@2:

; 327  : 			for (int j = 0; j < iTextSize ; j++)

  00071	ff 45 08	 inc	 DWORD PTR _j$524685[ebp]
  00074	8b 45 08	 mov	 eax, DWORD PTR _j$524685[ebp]
  00077	3b 45 fc	 cmp	 eax, DWORD PTR _iTextSize$524684[ebp]
  0007a	7c d2		 jl	 SHORT $LL4@SetHelpLis@2
$LN26@SetHelpLis@2:
  0007c	5f		 pop	 edi
$LN2@SetHelpLis@2:
  0007d	5e		 pop	 esi

; 331  : 			}
; 332  : 			return;
; 333  : 		}
; 334  : 	}
; 335  : }

  0007e	c9		 leave
  0007f	c2 08 00	 ret	 8
?SetHelpList@ioModeHelpManager@@IAEXW4HelpType@1@ABVioHashString@@@Z ENDP ; ioModeHelpManager::SetHelpList
_TEXT	ENDS
PUBLIC	??0?$vector@UModeHelp@@V?$allocator@UModeHelp@@@std@@@std@@QAE@XZ ; std::vector<ModeHelp,std::allocator<ModeHelp> >::vector<ModeHelp,std::allocator<ModeHelp> >
; Function compile flags: /Ogsp
; File c:\program files (x86)\microsoft visual studio 10.0\vc\include\vector
;	COMDAT ??0?$vector@UModeHelp@@V?$allocator@UModeHelp@@@std@@@std@@QAE@XZ
_TEXT	SEGMENT
??0?$vector@UModeHelp@@V?$allocator@UModeHelp@@@std@@@std@@QAE@XZ PROC ; std::vector<ModeHelp,std::allocator<ModeHelp> >::vector<ModeHelp,std::allocator<ModeHelp> >, COMDAT
; _this$ = ecx

; 507  : 		{	// construct empty vector

  00000	8b c1		 mov	 eax, ecx
  00002	33 c9		 xor	 ecx, ecx
  00004	89 08		 mov	 DWORD PTR [eax], ecx
  00006	89 48 04	 mov	 DWORD PTR [eax+4], ecx
  00009	89 48 08	 mov	 DWORD PTR [eax+8], ecx

; 508  : 		}

  0000c	c3		 ret	 0
??0?$vector@UModeHelp@@V?$allocator@UModeHelp@@@std@@@std@@QAE@XZ ENDP ; std::vector<ModeHelp,std::allocator<ModeHelp> >::vector<ModeHelp,std::allocator<ModeHelp> >
_TEXT	ENDS
PUBLIC	?begin@?$vector@UModeHelp@@V?$allocator@UModeHelp@@@std@@@std@@QAE?AV?$_Vector_iterator@V?$_Vector_val@UModeHelp@@V?$allocator@UModeHelp@@@std@@@std@@@2@XZ ; std::vector<ModeHelp,std::allocator<ModeHelp> >::begin
; Function compile flags: /Ogsp
;	COMDAT ?begin@?$vector@UModeHelp@@V?$allocator@UModeHelp@@@std@@@std@@QAE?AV?$_Vector_iterator@V?$_Vector_val@UModeHelp@@V?$allocator@UModeHelp@@@std@@@std@@@2@XZ
_TEXT	SEGMENT
___$ReturnUdt$ = 8					; size = 4
?begin@?$vector@UModeHelp@@V?$allocator@UModeHelp@@@std@@@std@@QAE?AV?$_Vector_iterator@V?$_Vector_val@UModeHelp@@V?$allocator@UModeHelp@@@std@@@std@@@2@XZ PROC ; std::vector<ModeHelp,std::allocator<ModeHelp> >::begin, COMDAT
; _this$ = ecx

; 781  : 		{	// return iterator for beginning of mutable sequence

  00000	55		 push	 ebp
  00001	8b ec		 mov	 ebp, esp

; 782  : 		return (iterator(this->_Myfirst, this));

  00003	8b 09		 mov	 ecx, DWORD PTR [ecx]
  00005	8b 45 08	 mov	 eax, DWORD PTR ___$ReturnUdt$[ebp]
  00008	89 08		 mov	 DWORD PTR [eax], ecx

; 783  : 		}

  0000a	5d		 pop	 ebp
  0000b	c2 04 00	 ret	 4
?begin@?$vector@UModeHelp@@V?$allocator@UModeHelp@@@std@@@std@@QAE?AV?$_Vector_iterator@V?$_Vector_val@UModeHelp@@V?$allocator@UModeHelp@@@std@@@std@@@2@XZ ENDP ; std::vector<ModeHelp,std::allocator<ModeHelp> >::begin
_TEXT	ENDS
PUBLIC	?end@?$vector@UModeHelp@@V?$allocator@UModeHelp@@@std@@@std@@QAE?AV?$_Vector_iterator@V?$_Vector_val@UModeHelp@@V?$allocator@UModeHelp@@@std@@@std@@@2@XZ ; std::vector<ModeHelp,std::allocator<ModeHelp> >::end
; Function compile flags: /Ogsp
;	COMDAT ?end@?$vector@UModeHelp@@V?$allocator@UModeHelp@@@std@@@std@@QAE?AV?$_Vector_iterator@V?$_Vector_val@UModeHelp@@V?$allocator@UModeHelp@@@std@@@std@@@2@XZ
_TEXT	SEGMENT
___$ReturnUdt$ = 8					; size = 4
?end@?$vector@UModeHelp@@V?$allocator@UModeHelp@@@std@@@std@@QAE?AV?$_Vector_iterator@V?$_Vector_val@UModeHelp@@V?$allocator@UModeHelp@@@std@@@std@@@2@XZ PROC ; std::vector<ModeHelp,std::allocator<ModeHelp> >::end, COMDAT
; _this$ = ecx

; 791  : 		{	// return iterator for end of mutable sequence

  00000	55		 push	 ebp
  00001	8b ec		 mov	 ebp, esp

; 792  : 		return (iterator(this->_Mylast, this));

  00003	8b 49 04	 mov	 ecx, DWORD PTR [ecx+4]
  00006	8b 45 08	 mov	 eax, DWORD PTR ___$ReturnUdt$[ebp]
  00009	89 08		 mov	 DWORD PTR [eax], ecx

; 793  : 		}

  0000b	5d		 pop	 ebp
  0000c	c2 04 00	 ret	 4
?end@?$vector@UModeHelp@@V?$allocator@UModeHelp@@@std@@@std@@QAE?AV?$_Vector_iterator@V?$_Vector_val@UModeHelp@@V?$allocator@UModeHelp@@@std@@@std@@@2@XZ ENDP ; std::vector<ModeHelp,std::allocator<ModeHelp> >::end
_TEXT	ENDS
PUBLIC	?_Make_iter@?$vector@UModeHelp@@V?$allocator@UModeHelp@@@std@@@std@@QBE?AV?$_Vector_iterator@V?$_Vector_val@UModeHelp@@V?$allocator@UModeHelp@@@std@@@std@@@2@V?$_Vector_const_iterator@V?$_Vector_val@UModeHelp@@V?$allocator@UModeHelp@@@std@@@std@@@2@@Z ; std::vector<ModeHelp,std::allocator<ModeHelp> >::_Make_iter
; Function compile flags: /Ogsp
;	COMDAT ?_Make_iter@?$vector@UModeHelp@@V?$allocator@UModeHelp@@@std@@@std@@QBE?AV?$_Vector_iterator@V?$_Vector_val@UModeHelp@@V?$allocator@UModeHelp@@@std@@@std@@@2@V?$_Vector_const_iterator@V?$_Vector_val@UModeHelp@@V?$allocator@UModeHelp@@@std@@@std@@@2@@Z
_TEXT	SEGMENT
___$ReturnUdt$ = 8					; size = 4
__Where$ = 12						; size = 4
?_Make_iter@?$vector@UModeHelp@@V?$allocator@UModeHelp@@@std@@@std@@QBE?AV?$_Vector_iterator@V?$_Vector_val@UModeHelp@@V?$allocator@UModeHelp@@@std@@@std@@@2@V?$_Vector_const_iterator@V?$_Vector_val@UModeHelp@@V?$allocator@UModeHelp@@@std@@@std@@@2@@Z PROC ; std::vector<ModeHelp,std::allocator<ModeHelp> >::_Make_iter, COMDAT
; _this$ = ecx

; 801  : 		{	// make iterator from const_iterator

  00000	55		 push	 ebp
  00001	8b ec		 mov	 ebp, esp

; 802  : 		return (iterator(_Where._Ptr, this));

  00003	8b 45 08	 mov	 eax, DWORD PTR ___$ReturnUdt$[ebp]
  00006	8b 4d 0c	 mov	 ecx, DWORD PTR __Where$[ebp]
  00009	89 08		 mov	 DWORD PTR [eax], ecx

; 803  : 		}

  0000b	5d		 pop	 ebp
  0000c	c2 08 00	 ret	 8
?_Make_iter@?$vector@UModeHelp@@V?$allocator@UModeHelp@@@std@@@std@@QBE?AV?$_Vector_iterator@V?$_Vector_val@UModeHelp@@V?$allocator@UModeHelp@@@std@@@std@@@2@V?$_Vector_const_iterator@V?$_Vector_val@UModeHelp@@V?$allocator@UModeHelp@@@std@@@std@@@2@@Z ENDP ; std::vector<ModeHelp,std::allocator<ModeHelp> >::_Make_iter
_TEXT	ENDS
PUBLIC	??9?$_Vector_const_iterator@V?$_Vector_val@UModeHelp@@V?$allocator@UModeHelp@@@std@@@std@@@std@@QBE_NABV01@@Z ; std::_Vector_const_iterator<std::_Vector_val<ModeHelp,std::allocator<ModeHelp> > >::operator!=
; Function compile flags: /Ogsp
;	COMDAT ??9?$_Vector_const_iterator@V?$_Vector_val@UModeHelp@@V?$allocator@UModeHelp@@@std@@@std@@@std@@QBE_NABV01@@Z
_TEXT	SEGMENT
__Right$ = 8						; size = 4
??9?$_Vector_const_iterator@V?$_Vector_val@UModeHelp@@V?$allocator@UModeHelp@@@std@@@std@@@std@@QBE_NABV01@@Z PROC ; std::_Vector_const_iterator<std::_Vector_val<ModeHelp,std::allocator<ModeHelp> > >::operator!=, COMDAT
; _this$ = ecx

; 207  : 		{	// test for iterator inequality

  00000	55		 push	 ebp
  00001	8b ec		 mov	 ebp, esp

; 208  : 		return (!(*this == _Right));

  00003	8b 01		 mov	 eax, DWORD PTR [ecx]
  00005	8b 55 08	 mov	 edx, DWORD PTR __Right$[ebp]
  00008	33 c9		 xor	 ecx, ecx
  0000a	3b 02		 cmp	 eax, DWORD PTR [edx]
  0000c	0f 95 c0	 setne	 al

; 209  : 		}

  0000f	5d		 pop	 ebp
  00010	c2 04 00	 ret	 4
??9?$_Vector_const_iterator@V?$_Vector_val@UModeHelp@@V?$allocator@UModeHelp@@@std@@@std@@@std@@QBE_NABV01@@Z ENDP ; std::_Vector_const_iterator<std::_Vector_val<ModeHelp,std::allocator<ModeHelp> > >::operator!=
_TEXT	ENDS
PUBLIC	??$?0$0BP@@ioINILoader_e@@QAE@AAY0BP@$$CBD_N@Z	; ioINILoader_e::ioINILoader_e<31>
EXTRN	__imp_??0ioINILoader@@QAE@PBD_N@Z:PROC
; Function compile flags: /Ogsp
; File d:\lost saga for developer\youtube\tutorial\source\src\io3dengine\ioiniloader.h
;	COMDAT ??$?0$0BP@@ioINILoader_e@@QAE@AAY0BP@$$CBD_N@Z
_TEXT	SEGMENT
_fn$ = 8						; size = 4
_b$ = 12						; size = 1
??$?0$0BP@@ioINILoader_e@@QAE@AAY0BP@$$CBD_N@Z PROC	; ioINILoader_e::ioINILoader_e<31>, COMDAT
; _this$ = ecx

; 224  : 	{

  00000	55		 push	 ebp
  00001	8b ec		 mov	 ebp, esp
  00003	53		 push	 ebx
  00004	56		 push	 esi
  00005	57		 push	 edi
  00006	8b f9		 mov	 edi, ecx
  00008	8b 4d 08	 mov	 ecx, DWORD PTR _fn$[ebp]
  0000b	8a 11		 mov	 dl, BYTE PTR [ecx]
  0000d	8d 87 50 03 00
	00		 lea	 eax, DWORD PTR [edi+848]
  00013	84 d2		 test	 dl, dl
  00015	0f 84 6a 04 00
	00		 je	 $LN99@ioINILoade
  0001b	80 f2 ed	 xor	 dl, -19			; ffffffedH
  0001e	88 10		 mov	 BYTE PTR [eax], dl
  00020	8a 51 01	 mov	 dl, BYTE PTR [ecx+1]
  00023	84 d2		 test	 dl, dl
  00025	0f 84 54 04 00
	00		 je	 $LN98@ioINILoade
  0002b	80 f2 ec	 xor	 dl, -20			; ffffffecH
  0002e	88 50 01	 mov	 BYTE PTR [eax+1], dl
  00031	8a 51 02	 mov	 dl, BYTE PTR [ecx+2]
  00034	84 d2		 test	 dl, dl
  00036	0f 84 3d 04 00
	00		 je	 $LN97@ioINILoade
  0003c	b3 eb		 mov	 bl, -21			; ffffffebH
  0003e	32 d3		 xor	 dl, bl
  00040	88 50 02	 mov	 BYTE PTR [eax+2], dl
  00043	8a 51 03	 mov	 dl, BYTE PTR [ecx+3]
  00046	84 d2		 test	 dl, dl
  00048	0f 84 25 04 00
	00		 je	 $LN96@ioINILoade
  0004e	80 f2 ea	 xor	 dl, -22			; ffffffeaH
  00051	88 50 03	 mov	 BYTE PTR [eax+3], dl
  00054	8a 51 04	 mov	 dl, BYTE PTR [ecx+4]
  00057	84 d2		 test	 dl, dl
  00059	0f 84 0e 04 00
	00		 je	 $LN95@ioINILoade
  0005f	80 f2 ed	 xor	 dl, -19			; ffffffedH
  00062	88 50 04	 mov	 BYTE PTR [eax+4], dl
  00065	8a 51 05	 mov	 dl, BYTE PTR [ecx+5]
  00068	84 d2		 test	 dl, dl
  0006a	0f 84 f7 03 00
	00		 je	 $LN94@ioINILoade
  00070	80 f2 ec	 xor	 dl, -20			; ffffffecH
  00073	88 50 05	 mov	 BYTE PTR [eax+5], dl
  00076	8a 51 06	 mov	 dl, BYTE PTR [ecx+6]
  00079	84 d2		 test	 dl, dl
  0007b	0f 84 e1 03 00
	00		 je	 $LN93@ioINILoade
  00081	32 d3		 xor	 dl, bl
  00083	88 50 06	 mov	 BYTE PTR [eax+6], dl
  00086	8a 51 07	 mov	 dl, BYTE PTR [ecx+7]
  00089	84 d2		 test	 dl, dl
  0008b	0f 84 cb 03 00
	00		 je	 $LN92@ioINILoade
  00091	80 f2 ea	 xor	 dl, -22			; ffffffeaH
  00094	88 50 07	 mov	 BYTE PTR [eax+7], dl
  00097	8a 51 08	 mov	 dl, BYTE PTR [ecx+8]
  0009a	84 d2		 test	 dl, dl
  0009c	0f 84 b4 03 00
	00		 je	 $LN91@ioINILoade
  000a2	80 f2 ed	 xor	 dl, -19			; ffffffedH
  000a5	88 50 08	 mov	 BYTE PTR [eax+8], dl
  000a8	8a 51 09	 mov	 dl, BYTE PTR [ecx+9]
  000ab	84 d2		 test	 dl, dl
  000ad	0f 84 9d 03 00
	00		 je	 $LN90@ioINILoade
  000b3	80 f2 ec	 xor	 dl, -20			; ffffffecH
  000b6	88 50 09	 mov	 BYTE PTR [eax+9], dl
  000b9	8a 51 0a	 mov	 dl, BYTE PTR [ecx+10]
  000bc	84 d2		 test	 dl, dl
  000be	0f 84 87 03 00
	00		 je	 $LN89@ioINILoade
  000c4	32 d3		 xor	 dl, bl
  000c6	88 50 0a	 mov	 BYTE PTR [eax+10], dl
  000c9	8a 51 0b	 mov	 dl, BYTE PTR [ecx+11]
  000cc	84 d2		 test	 dl, dl
  000ce	0f 84 71 03 00
	00		 je	 $LN88@ioINILoade
  000d4	80 f2 ea	 xor	 dl, -22			; ffffffeaH
  000d7	88 50 0b	 mov	 BYTE PTR [eax+11], dl
  000da	8a 51 0c	 mov	 dl, BYTE PTR [ecx+12]
  000dd	84 d2		 test	 dl, dl
  000df	0f 84 5a 03 00
	00		 je	 $LN87@ioINILoade
  000e5	80 f2 ed	 xor	 dl, -19			; ffffffedH
  000e8	88 50 0c	 mov	 BYTE PTR [eax+12], dl
  000eb	8a 51 0d	 mov	 dl, BYTE PTR [ecx+13]
  000ee	84 d2		 test	 dl, dl
  000f0	0f 84 43 03 00
	00		 je	 $LN86@ioINILoade
  000f6	80 f2 ec	 xor	 dl, -20			; ffffffecH
  000f9	88 50 0d	 mov	 BYTE PTR [eax+13], dl
  000fc	8a 51 0e	 mov	 dl, BYTE PTR [ecx+14]
  000ff	84 d2		 test	 dl, dl
  00101	0f 84 2d 03 00
	00		 je	 $LN85@ioINILoade
  00107	32 d3		 xor	 dl, bl
  00109	88 50 0e	 mov	 BYTE PTR [eax+14], dl
  0010c	8a 51 0f	 mov	 dl, BYTE PTR [ecx+15]
  0010f	84 d2		 test	 dl, dl
  00111	0f 84 17 03 00
	00		 je	 $LN84@ioINILoade
  00117	80 f2 ea	 xor	 dl, -22			; ffffffeaH
  0011a	88 50 0f	 mov	 BYTE PTR [eax+15], dl
  0011d	8a 51 10	 mov	 dl, BYTE PTR [ecx+16]
  00120	84 d2		 test	 dl, dl
  00122	0f 84 00 03 00
	00		 je	 $LN83@ioINILoade
  00128	80 f2 ed	 xor	 dl, -19			; ffffffedH
  0012b	88 50 10	 mov	 BYTE PTR [eax+16], dl
  0012e	8a 51 11	 mov	 dl, BYTE PTR [ecx+17]
  00131	84 d2		 test	 dl, dl
  00133	0f 84 e9 02 00
	00		 je	 $LN82@ioINILoade
  00139	80 f2 ec	 xor	 dl, -20			; ffffffecH
  0013c	88 50 11	 mov	 BYTE PTR [eax+17], dl
  0013f	8a 51 12	 mov	 dl, BYTE PTR [ecx+18]
  00142	84 d2		 test	 dl, dl
  00144	0f 84 d3 02 00
	00		 je	 $LN81@ioINILoade
  0014a	32 d3		 xor	 dl, bl
  0014c	88 50 12	 mov	 BYTE PTR [eax+18], dl
  0014f	8a 51 13	 mov	 dl, BYTE PTR [ecx+19]
  00152	84 d2		 test	 dl, dl
  00154	0f 84 bd 02 00
	00		 je	 $LN80@ioINILoade
  0015a	80 f2 ea	 xor	 dl, -22			; ffffffeaH
  0015d	88 50 13	 mov	 BYTE PTR [eax+19], dl
  00160	8a 51 14	 mov	 dl, BYTE PTR [ecx+20]
  00163	84 d2		 test	 dl, dl
  00165	0f 84 a6 02 00
	00		 je	 $LN79@ioINILoade
  0016b	80 f2 ed	 xor	 dl, -19			; ffffffedH
  0016e	88 50 14	 mov	 BYTE PTR [eax+20], dl
  00171	8a 51 15	 mov	 dl, BYTE PTR [ecx+21]
  00174	84 d2		 test	 dl, dl
  00176	0f 84 8f 02 00
	00		 je	 $LN78@ioINILoade
  0017c	80 f2 ec	 xor	 dl, -20			; ffffffecH
  0017f	88 50 15	 mov	 BYTE PTR [eax+21], dl
  00182	8a 51 16	 mov	 dl, BYTE PTR [ecx+22]
  00185	84 d2		 test	 dl, dl
  00187	0f 84 79 02 00
	00		 je	 $LN77@ioINILoade
  0018d	32 d3		 xor	 dl, bl
  0018f	88 50 16	 mov	 BYTE PTR [eax+22], dl
  00192	8a 51 17	 mov	 dl, BYTE PTR [ecx+23]
  00195	84 d2		 test	 dl, dl
  00197	0f 84 60 02 00
	00		 je	 $LN76@ioINILoade
  0019d	80 f2 ea	 xor	 dl, -22			; ffffffeaH
  001a0	88 50 17	 mov	 BYTE PTR [eax+23], dl
  001a3	8a 51 18	 mov	 dl, BYTE PTR [ecx+24]
  001a6	84 d2		 test	 dl, dl
  001a8	0f 84 46 02 00
	00		 je	 $LN75@ioINILoade
  001ae	80 f2 ed	 xor	 dl, -19			; ffffffedH
  001b1	88 50 18	 mov	 BYTE PTR [eax+24], dl
  001b4	8a 51 19	 mov	 dl, BYTE PTR [ecx+25]
  001b7	84 d2		 test	 dl, dl
  001b9	0f 84 2c 02 00
	00		 je	 $LN74@ioINILoade
  001bf	80 f2 ec	 xor	 dl, -20			; ffffffecH
  001c2	88 50 19	 mov	 BYTE PTR [eax+25], dl
  001c5	8a 51 1a	 mov	 dl, BYTE PTR [ecx+26]
  001c8	84 d2		 test	 dl, dl
  001ca	0f 84 13 02 00
	00		 je	 $LN73@ioINILoade
  001d0	32 d3		 xor	 dl, bl
  001d2	88 50 1a	 mov	 BYTE PTR [eax+26], dl
  001d5	8a 51 1b	 mov	 dl, BYTE PTR [ecx+27]
  001d8	84 d2		 test	 dl, dl
  001da	0f 84 fa 01 00
	00		 je	 $LN72@ioINILoade
  001e0	80 f2 ea	 xor	 dl, -22			; ffffffeaH
  001e3	88 50 1b	 mov	 BYTE PTR [eax+27], dl
  001e6	8a 51 1c	 mov	 dl, BYTE PTR [ecx+28]
  001e9	84 d2		 test	 dl, dl
  001eb	0f 84 e0 01 00
	00		 je	 $LN71@ioINILoade
  001f1	80 f2 ed	 xor	 dl, -19			; ffffffedH
  001f4	88 50 1c	 mov	 BYTE PTR [eax+28], dl
  001f7	8a 51 1d	 mov	 dl, BYTE PTR [ecx+29]
  001fa	84 d2		 test	 dl, dl
  001fc	0f 84 c6 01 00
	00		 je	 $LN70@ioINILoade
  00202	80 f2 ec	 xor	 dl, -20			; ffffffecH
  00205	88 50 1d	 mov	 BYTE PTR [eax+29], dl
  00208	8a 51 1e	 mov	 dl, BYTE PTR [ecx+30]
  0020b	84 d2		 test	 dl, dl
  0020d	0f 84 ad 01 00
	00		 je	 $LN69@ioINILoade
  00213	32 d3		 xor	 dl, bl
  00215	88 50 1e	 mov	 BYTE PTR [eax+30], dl
  00218	8a 51 1f	 mov	 dl, BYTE PTR [ecx+31]
  0021b	84 d2		 test	 dl, dl
  0021d	0f 84 94 01 00
	00		 je	 $LN68@ioINILoade
  00223	80 f2 ea	 xor	 dl, -22			; ffffffeaH
  00226	88 50 1f	 mov	 BYTE PTR [eax+31], dl
  00229	8a 51 20	 mov	 dl, BYTE PTR [ecx+32]
  0022c	84 d2		 test	 dl, dl
  0022e	0f 84 7a 01 00
	00		 je	 $LN67@ioINILoade
  00234	80 f2 ed	 xor	 dl, -19			; ffffffedH
  00237	88 50 20	 mov	 BYTE PTR [eax+32], dl
  0023a	8a 51 21	 mov	 dl, BYTE PTR [ecx+33]
  0023d	84 d2		 test	 dl, dl
  0023f	0f 84 60 01 00
	00		 je	 $LN66@ioINILoade
  00245	80 f2 ec	 xor	 dl, -20			; ffffffecH
  00248	88 50 21	 mov	 BYTE PTR [eax+33], dl
  0024b	8a 51 22	 mov	 dl, BYTE PTR [ecx+34]
  0024e	84 d2		 test	 dl, dl
  00250	0f 84 47 01 00
	00		 je	 $LN65@ioINILoade
  00256	32 d3		 xor	 dl, bl
  00258	88 50 22	 mov	 BYTE PTR [eax+34], dl
  0025b	8a 51 23	 mov	 dl, BYTE PTR [ecx+35]
  0025e	84 d2		 test	 dl, dl
  00260	0f 84 2e 01 00
	00		 je	 $LN64@ioINILoade
  00266	80 f2 ea	 xor	 dl, -22			; ffffffeaH
  00269	88 50 23	 mov	 BYTE PTR [eax+35], dl
  0026c	8a 51 24	 mov	 dl, BYTE PTR [ecx+36]
  0026f	84 d2		 test	 dl, dl
  00271	0f 84 14 01 00
	00		 je	 $LN63@ioINILoade
  00277	80 f2 ed	 xor	 dl, -19			; ffffffedH
  0027a	88 50 24	 mov	 BYTE PTR [eax+36], dl
  0027d	8a 51 25	 mov	 dl, BYTE PTR [ecx+37]
  00280	84 d2		 test	 dl, dl
  00282	0f 84 fa 00 00
	00		 je	 $LN62@ioINILoade
  00288	80 f2 ec	 xor	 dl, -20			; ffffffecH
  0028b	88 50 25	 mov	 BYTE PTR [eax+37], dl
  0028e	8a 51 26	 mov	 dl, BYTE PTR [ecx+38]
  00291	84 d2		 test	 dl, dl
  00293	0f 84 e1 00 00
	00		 je	 $LN61@ioINILoade
  00299	32 d3		 xor	 dl, bl
  0029b	88 50 26	 mov	 BYTE PTR [eax+38], dl
  0029e	8a 51 27	 mov	 dl, BYTE PTR [ecx+39]
  002a1	84 d2		 test	 dl, dl
  002a3	0f 84 c8 00 00
	00		 je	 $LN60@ioINILoade
  002a9	80 f2 ea	 xor	 dl, -22			; ffffffeaH
  002ac	88 50 27	 mov	 BYTE PTR [eax+39], dl
  002af	8a 51 28	 mov	 dl, BYTE PTR [ecx+40]
  002b2	84 d2		 test	 dl, dl
  002b4	0f 84 ae 00 00
	00		 je	 $LN59@ioINILoade
  002ba	80 f2 ed	 xor	 dl, -19			; ffffffedH
  002bd	88 50 28	 mov	 BYTE PTR [eax+40], dl
  002c0	8a 51 29	 mov	 dl, BYTE PTR [ecx+41]
  002c3	84 d2		 test	 dl, dl
  002c5	0f 84 94 00 00
	00		 je	 $LN58@ioINILoade
  002cb	80 f2 ec	 xor	 dl, -20			; ffffffecH
  002ce	88 50 29	 mov	 BYTE PTR [eax+41], dl
  002d1	8a 51 2a	 mov	 dl, BYTE PTR [ecx+42]
  002d4	84 d2		 test	 dl, dl
  002d6	74 7f		 je	 SHORT $LN57@ioINILoade
  002d8	32 d3		 xor	 dl, bl
  002da	88 50 2a	 mov	 BYTE PTR [eax+42], dl
  002dd	8a 51 2b	 mov	 dl, BYTE PTR [ecx+43]
  002e0	84 d2		 test	 dl, dl
  002e2	74 6a		 je	 SHORT $LN56@ioINILoade
  002e4	80 f2 ea	 xor	 dl, -22			; ffffffeaH
  002e7	88 50 2b	 mov	 BYTE PTR [eax+43], dl
  002ea	8a 51 2c	 mov	 dl, BYTE PTR [ecx+44]
  002ed	84 d2		 test	 dl, dl
  002ef	74 54		 je	 SHORT $LN55@ioINILoade
  002f1	80 f2 ed	 xor	 dl, -19			; ffffffedH
  002f4	88 50 2c	 mov	 BYTE PTR [eax+44], dl
  002f7	8a 51 2d	 mov	 dl, BYTE PTR [ecx+45]
  002fa	84 d2		 test	 dl, dl
  002fc	74 3e		 je	 SHORT $LN54@ioINILoade
  002fe	80 f2 ec	 xor	 dl, -20			; ffffffecH
  00301	88 50 2d	 mov	 BYTE PTR [eax+45], dl
  00304	8a 51 2e	 mov	 dl, BYTE PTR [ecx+46]
  00307	84 d2		 test	 dl, dl
  00309	74 29		 je	 SHORT $LN53@ioINILoade
  0030b	32 d3		 xor	 dl, bl
  0030d	88 50 2e	 mov	 BYTE PTR [eax+46], dl
  00310	8a 51 2f	 mov	 dl, BYTE PTR [ecx+47]
  00313	84 d2		 test	 dl, dl
  00315	74 14		 je	 SHORT $LN52@ioINILoade
  00317	80 f2 ea	 xor	 dl, -22			; ffffffeaH
  0031a	88 50 2f	 mov	 BYTE PTR [eax+47], dl
  0031d	8a 49 30	 mov	 cl, BYTE PTR [ecx+48]
  00320	80 f1 ed	 xor	 cl, -19			; ffffffedH
  00323	88 48 30	 mov	 BYTE PTR [eax+48], cl
  00326	e9 5d 01 00 00	 jmp	 $LN4@ioINILoade
$LN52@ioINILoade:
  0032b	c6 40 2f ea	 mov	 BYTE PTR [eax+47], -22	; ffffffeaH
  0032f	e9 54 01 00 00	 jmp	 $LN4@ioINILoade
$LN53@ioINILoade:
  00334	88 58 2e	 mov	 BYTE PTR [eax+46], bl
  00337	e9 4c 01 00 00	 jmp	 $LN4@ioINILoade
$LN54@ioINILoade:
  0033c	c6 40 2d ec	 mov	 BYTE PTR [eax+45], -20	; ffffffecH
  00340	e9 43 01 00 00	 jmp	 $LN4@ioINILoade
$LN55@ioINILoade:
  00345	c6 40 2c ed	 mov	 BYTE PTR [eax+44], -19	; ffffffedH
  00349	e9 3a 01 00 00	 jmp	 $LN4@ioINILoade
$LN56@ioINILoade:
  0034e	c6 40 2b ea	 mov	 BYTE PTR [eax+43], -22	; ffffffeaH
  00352	e9 31 01 00 00	 jmp	 $LN4@ioINILoade
$LN57@ioINILoade:
  00357	88 58 2a	 mov	 BYTE PTR [eax+42], bl
  0035a	e9 29 01 00 00	 jmp	 $LN4@ioINILoade
$LN58@ioINILoade:
  0035f	c6 40 29 ec	 mov	 BYTE PTR [eax+41], -20	; ffffffecH
  00363	e9 20 01 00 00	 jmp	 $LN4@ioINILoade
$LN59@ioINILoade:
  00368	c6 40 28 ed	 mov	 BYTE PTR [eax+40], -19	; ffffffedH
  0036c	e9 17 01 00 00	 jmp	 $LN4@ioINILoade
$LN60@ioINILoade:
  00371	c6 40 27 ea	 mov	 BYTE PTR [eax+39], -22	; ffffffeaH
  00375	e9 0e 01 00 00	 jmp	 $LN4@ioINILoade
$LN61@ioINILoade:
  0037a	88 58 26	 mov	 BYTE PTR [eax+38], bl
  0037d	e9 06 01 00 00	 jmp	 $LN4@ioINILoade
$LN62@ioINILoade:
  00382	c6 40 25 ec	 mov	 BYTE PTR [eax+37], -20	; ffffffecH
  00386	e9 fd 00 00 00	 jmp	 $LN4@ioINILoade
$LN63@ioINILoade:
  0038b	c6 40 24 ed	 mov	 BYTE PTR [eax+36], -19	; ffffffedH
  0038f	e9 f4 00 00 00	 jmp	 $LN4@ioINILoade
$LN64@ioINILoade:
  00394	c6 40 23 ea	 mov	 BYTE PTR [eax+35], -22	; ffffffeaH
  00398	e9 eb 00 00 00	 jmp	 $LN4@ioINILoade
$LN65@ioINILoade:
  0039d	88 58 22	 mov	 BYTE PTR [eax+34], bl
  003a0	e9 e3 00 00 00	 jmp	 $LN4@ioINILoade
$LN66@ioINILoade:
  003a5	c6 40 21 ec	 mov	 BYTE PTR [eax+33], -20	; ffffffecH
  003a9	e9 da 00 00 00	 jmp	 $LN4@ioINILoade
$LN67@ioINILoade:
  003ae	c6 40 20 ed	 mov	 BYTE PTR [eax+32], -19	; ffffffedH
  003b2	e9 d1 00 00 00	 jmp	 $LN4@ioINILoade
$LN68@ioINILoade:
  003b7	c6 40 1f ea	 mov	 BYTE PTR [eax+31], -22	; ffffffeaH
  003bb	e9 c8 00 00 00	 jmp	 $LN4@ioINILoade
$LN69@ioINILoade:
  003c0	88 58 1e	 mov	 BYTE PTR [eax+30], bl
  003c3	e9 c0 00 00 00	 jmp	 $LN4@ioINILoade
$LN70@ioINILoade:
  003c8	c6 40 1d ec	 mov	 BYTE PTR [eax+29], -20	; ffffffecH
  003cc	e9 b7 00 00 00	 jmp	 $LN4@ioINILoade
$LN71@ioINILoade:
  003d1	c6 40 1c ed	 mov	 BYTE PTR [eax+28], -19	; ffffffedH
  003d5	e9 ae 00 00 00	 jmp	 $LN4@ioINILoade
$LN72@ioINILoade:
  003da	c6 40 1b ea	 mov	 BYTE PTR [eax+27], -22	; ffffffeaH
  003de	e9 a5 00 00 00	 jmp	 $LN4@ioINILoade
$LN73@ioINILoade:
  003e3	88 58 1a	 mov	 BYTE PTR [eax+26], bl
  003e6	e9 9d 00 00 00	 jmp	 $LN4@ioINILoade
$LN74@ioINILoade:
  003eb	c6 40 19 ec	 mov	 BYTE PTR [eax+25], -20	; ffffffecH
  003ef	e9 94 00 00 00	 jmp	 $LN4@ioINILoade
$LN75@ioINILoade:
  003f4	c6 40 18 ed	 mov	 BYTE PTR [eax+24], -19	; ffffffedH
  003f8	e9 8b 00 00 00	 jmp	 $LN4@ioINILoade
$LN76@ioINILoade:
  003fd	c6 40 17 ea	 mov	 BYTE PTR [eax+23], -22	; ffffffeaH
  00401	e9 82 00 00 00	 jmp	 $LN4@ioINILoade
$LN77@ioINILoade:
  00406	88 58 16	 mov	 BYTE PTR [eax+22], bl
  00409	eb 7d		 jmp	 SHORT $LN4@ioINILoade
$LN78@ioINILoade:
  0040b	c6 40 15 ec	 mov	 BYTE PTR [eax+21], -20	; ffffffecH
  0040f	eb 77		 jmp	 SHORT $LN4@ioINILoade
$LN79@ioINILoade:
  00411	c6 40 14 ed	 mov	 BYTE PTR [eax+20], -19	; ffffffedH
  00415	eb 71		 jmp	 SHORT $LN4@ioINILoade
$LN80@ioINILoade:
  00417	c6 40 13 ea	 mov	 BYTE PTR [eax+19], -22	; ffffffeaH
  0041b	eb 6b		 jmp	 SHORT $LN4@ioINILoade
$LN81@ioINILoade:
  0041d	88 58 12	 mov	 BYTE PTR [eax+18], bl
  00420	eb 66		 jmp	 SHORT $LN4@ioINILoade
$LN82@ioINILoade:
  00422	c6 40 11 ec	 mov	 BYTE PTR [eax+17], -20	; ffffffecH
  00426	eb 60		 jmp	 SHORT $LN4@ioINILoade
$LN83@ioINILoade:
  00428	c6 40 10 ed	 mov	 BYTE PTR [eax+16], -19	; ffffffedH
  0042c	eb 5a		 jmp	 SHORT $LN4@ioINILoade
$LN84@ioINILoade:
  0042e	c6 40 0f ea	 mov	 BYTE PTR [eax+15], -22	; ffffffeaH
  00432	eb 54		 jmp	 SHORT $LN4@ioINILoade
$LN85@ioINILoade:
  00434	88 58 0e	 mov	 BYTE PTR [eax+14], bl
  00437	eb 4f		 jmp	 SHORT $LN4@ioINILoade
$LN86@ioINILoade:
  00439	c6 40 0d ec	 mov	 BYTE PTR [eax+13], -20	; ffffffecH
  0043d	eb 49		 jmp	 SHORT $LN4@ioINILoade
$LN87@ioINILoade:
  0043f	c6 40 0c ed	 mov	 BYTE PTR [eax+12], -19	; ffffffedH
  00443	eb 43		 jmp	 SHORT $LN4@ioINILoade
$LN88@ioINILoade:
  00445	c6 40 0b ea	 mov	 BYTE PTR [eax+11], -22	; ffffffeaH
  00449	eb 3d		 jmp	 SHORT $LN4@ioINILoade
$LN89@ioINILoade:
  0044b	88 58 0a	 mov	 BYTE PTR [eax+10], bl
  0044e	eb 38		 jmp	 SHORT $LN4@ioINILoade
$LN90@ioINILoade:
  00450	c6 40 09 ec	 mov	 BYTE PTR [eax+9], -20	; ffffffecH
  00454	eb 32		 jmp	 SHORT $LN4@ioINILoade
$LN91@ioINILoade:
  00456	c6 40 08 ed	 mov	 BYTE PTR [eax+8], -19	; ffffffedH
  0045a	eb 2c		 jmp	 SHORT $LN4@ioINILoade
$LN92@ioINILoade:
  0045c	c6 40 07 ea	 mov	 BYTE PTR [eax+7], -22	; ffffffeaH
  00460	eb 26		 jmp	 SHORT $LN4@ioINILoade
$LN93@ioINILoade:
  00462	88 58 06	 mov	 BYTE PTR [eax+6], bl
  00465	eb 21		 jmp	 SHORT $LN4@ioINILoade
$LN94@ioINILoade:
  00467	c6 40 05 ec	 mov	 BYTE PTR [eax+5], -20	; ffffffecH
  0046b	eb 1b		 jmp	 SHORT $LN4@ioINILoade
$LN95@ioINILoade:
  0046d	c6 40 04 ed	 mov	 BYTE PTR [eax+4], -19	; ffffffedH
  00471	eb 15		 jmp	 SHORT $LN4@ioINILoade
$LN96@ioINILoade:
  00473	c6 40 03 ea	 mov	 BYTE PTR [eax+3], -22	; ffffffeaH
  00477	eb 0f		 jmp	 SHORT $LN4@ioINILoade
$LN97@ioINILoade:
  00479	c6 40 02 eb	 mov	 BYTE PTR [eax+2], -21	; ffffffebH
  0047d	eb 09		 jmp	 SHORT $LN4@ioINILoade
$LN98@ioINILoade:
  0047f	c6 40 01 ec	 mov	 BYTE PTR [eax+1], -20	; ffffffecH
  00483	eb 03		 jmp	 SHORT $LN4@ioINILoade
$LN99@ioINILoade:
  00485	c6 00 ed	 mov	 BYTE PTR [eax], -19	; ffffffedH
$LN4@ioINILoade:
  00488	6a 07		 push	 7
  0048a	8b c8		 mov	 ecx, eax
  0048c	c6 40 1e 00	 mov	 BYTE PTR [eax+30], 0
  00490	5a		 pop	 edx
$LL107@ioINILoade:
  00491	81 31 ed ec eb
	ea		 xor	 DWORD PTR [ecx], -353637139 ; eaebecedH
  00497	83 c1 04	 add	 ecx, 4
  0049a	4a		 dec	 edx
  0049b	75 f4		 jne	 SHORT $LL107@ioINILoade
  0049d	6a 1c		 push	 28			; 0000001cH
  0049f	5e		 pop	 esi
$LL104@ioINILoade:
  004a0	8b ce		 mov	 ecx, esi
  004a2	81 e1 03 00 00
	80		 and	 ecx, -2147483645	; 80000003H
  004a8	79 05		 jns	 SHORT $LN114@ioINILoade
  004aa	49		 dec	 ecx
  004ab	83 c9 fc	 or	 ecx, -4			; fffffffcH
  004ae	41		 inc	 ecx
$LN114@ioINILoade:
  004af	b2 ed		 mov	 dl, -19			; ffffffedH
  004b1	2a d1		 sub	 dl, cl
  004b3	30 14 06	 xor	 BYTE PTR [esi+eax], dl
  004b6	46		 inc	 esi
  004b7	83 fe 1e	 cmp	 esi, 30			; 0000001eH
  004ba	7c e4		 jl	 SHORT $LL104@ioINILoade
  004bc	ff 75 0c	 push	 DWORD PTR _b$[ebp]
  004bf	8b cf		 mov	 ecx, edi
  004c1	50		 push	 eax
  004c2	ff 15 00 00 00
	00		 call	 DWORD PTR __imp_??0ioINILoader@@QAE@PBD_N@Z

; 225  : 	}

  004c8	8b c7		 mov	 eax, edi
  004ca	5f		 pop	 edi
  004cb	5e		 pop	 esi
  004cc	5b		 pop	 ebx
  004cd	5d		 pop	 ebp
  004ce	c2 08 00	 ret	 8
??$?0$0BP@@ioINILoader_e@@QAE@AAY0BP@$$CBD_N@Z ENDP	; ioINILoader_e::ioINILoader_e<31>
_TEXT	ENDS
PUBLIC	??$_Cons_val@V?$allocator@UHelpText@@@std@@UHelpText@@ABU3@@std@@YAXAAV?$allocator@UHelpText@@@0@PAUHelpText@@ABU2@@Z ; std::_Cons_val<std::allocator<HelpText>,HelpText,HelpText const &>
; Function compile flags: /Ogsp
; File c:\program files (x86)\microsoft visual studio 10.0\vc\include\xmemory
;	COMDAT ??$_Cons_val@V?$allocator@UHelpText@@@std@@UHelpText@@ABU3@@std@@YAXAAV?$allocator@UHelpText@@@0@PAUHelpText@@ABU2@@Z
_TEXT	SEGMENT
__Alval$ = 8						; size = 4
__Pdest$ = 12						; size = 4
__Src$ = 16						; size = 4
??$_Cons_val@V?$allocator@UHelpText@@@std@@UHelpText@@ABU3@@std@@YAXAAV?$allocator@UHelpText@@@0@PAUHelpText@@ABU2@@Z PROC ; std::_Cons_val<std::allocator<HelpText>,HelpText,HelpText const &>, COMDAT

; 279  : 	{	// construct using allocator

  00000	55		 push	 ebp
  00001	8b ec		 mov	 ebp, esp
  00003	57		 push	 edi

; 280  : 	_Alval.construct(_Pdest, _STD forward<_Ty2>(_Src));

  00004	8b 7d 0c	 mov	 edi, DWORD PTR __Pdest$[ebp]
  00007	85 ff		 test	 edi, edi
  00009	74 0c		 je	 SHORT $LN9@Cons_val@2
  0000b	56		 push	 esi
  0000c	8b 75 10	 mov	 esi, DWORD PTR __Src$[ebp]
  0000f	b9 86 00 00 00	 mov	 ecx, 134		; 00000086H
  00014	f3 a5		 rep movsd
  00016	5e		 pop	 esi
$LN9@Cons_val@2:
  00017	5f		 pop	 edi

; 281  : 	}

  00018	5d		 pop	 ebp
  00019	c3		 ret	 0
??$_Cons_val@V?$allocator@UHelpText@@@std@@UHelpText@@ABU3@@std@@YAXAAV?$allocator@UHelpText@@@0@PAUHelpText@@ABU2@@Z ENDP ; std::_Cons_val<std::allocator<HelpText>,HelpText,HelpText const &>
_TEXT	ENDS
PUBLIC	??$_Cons_val@V?$allocator@UHelpText@@@std@@UHelpText@@U3@@std@@YAXAAV?$allocator@UHelpText@@@0@PAUHelpText@@$$QAU2@@Z ; std::_Cons_val<std::allocator<HelpText>,HelpText,HelpText>
; Function compile flags: /Ogsp
;	COMDAT ??$_Cons_val@V?$allocator@UHelpText@@@std@@UHelpText@@U3@@std@@YAXAAV?$allocator@UHelpText@@@0@PAUHelpText@@$$QAU2@@Z
_TEXT	SEGMENT
__Alval$ = 8						; size = 4
__Pdest$ = 12						; size = 4
__Src$ = 16						; size = 4
??$_Cons_val@V?$allocator@UHelpText@@@std@@UHelpText@@U3@@std@@YAXAAV?$allocator@UHelpText@@@0@PAUHelpText@@$$QAU2@@Z PROC ; std::_Cons_val<std::allocator<HelpText>,HelpText,HelpText>, COMDAT

; 279  : 	{	// construct using allocator

  00000	55		 push	 ebp
  00001	8b ec		 mov	 ebp, esp
  00003	57		 push	 edi

; 280  : 	_Alval.construct(_Pdest, _STD forward<_Ty2>(_Src));

  00004	8b 7d 0c	 mov	 edi, DWORD PTR __Pdest$[ebp]
  00007	85 ff		 test	 edi, edi
  00009	74 0c		 je	 SHORT $LN7@Cons_val@3
  0000b	56		 push	 esi
  0000c	8b 75 10	 mov	 esi, DWORD PTR __Src$[ebp]
  0000f	b9 86 00 00 00	 mov	 ecx, 134		; 00000086H
  00014	f3 a5		 rep movsd
  00016	5e		 pop	 esi
$LN7@Cons_val@3:
  00017	5f		 pop	 edi

; 281  : 	}

  00018	5d		 pop	 ebp
  00019	c3		 ret	 0
??$_Cons_val@V?$allocator@UHelpText@@@std@@UHelpText@@U3@@std@@YAXAAV?$allocator@UHelpText@@@0@PAUHelpText@@$$QAU2@@Z ENDP ; std::_Cons_val<std::allocator<HelpText>,HelpText,HelpText>
_TEXT	ENDS
PUBLIC	?GetModeType@ioPlayMode@@SA?AW4ModeType@@XZ	; ioPlayMode::GetModeType
EXTRN	?m_ModeType@ioPlayMode@@1V?$CEncrypt@W4ModeType@@@@A:BYTE ; ioPlayMode::m_ModeType
; Function compile flags: /Ogsp
; File d:\lost saga for developer\youtube\tutorial\source\src\lsclient\ioplaymode.h
;	COMDAT ?GetModeType@ioPlayMode@@SA?AW4ModeType@@XZ
_TEXT	SEGMENT
?GetModeType@ioPlayMode@@SA?AW4ModeType@@XZ PROC	; ioPlayMode::GetModeType, COMDAT

; 782  : 	static ModeType GetModeType() { return m_ModeType; }

  00000	6a 04		 push	 4
  00002	68 28 00 00 00	 push	 OFFSET ?m_ModeType@ioPlayMode@@1V?$CEncrypt@W4ModeType@@@@A+40
  00007	68 1c 00 00 00	 push	 OFFSET ?m_ModeType@ioPlayMode@@1V?$CEncrypt@W4ModeType@@@@A+28
  0000c	b9 0c 00 00 00	 mov	 ecx, OFFSET ?m_ModeType@ioPlayMode@@1V?$CEncrypt@W4ModeType@@@@A+12
  00011	e8 00 00 00 00	 call	 ?DecryptByte@ccddaabb@@QBEXPBDPADH@Z ; ccddaabb::DecryptByte
  00016	a1 28 00 00 00	 mov	 eax, DWORD PTR ?m_ModeType@ioPlayMode@@1V?$CEncrypt@W4ModeType@@@@A+40
  0001b	c3		 ret	 0
?GetModeType@ioPlayMode@@SA?AW4ModeType@@XZ ENDP	; ioPlayMode::GetModeType
_TEXT	ENDS
PUBLIC	??0?$vector@UHelpText@@V?$allocator@UHelpText@@@std@@@std@@QAE@XZ ; std::vector<HelpText,std::allocator<HelpText> >::vector<HelpText,std::allocator<HelpText> >
; Function compile flags: /Ogsp
; File c:\program files (x86)\microsoft visual studio 10.0\vc\include\vector
;	COMDAT ??0?$vector@UHelpText@@V?$allocator@UHelpText@@@std@@@std@@QAE@XZ
_TEXT	SEGMENT
??0?$vector@UHelpText@@V?$allocator@UHelpText@@@std@@@std@@QAE@XZ PROC ; std::vector<HelpText,std::allocator<HelpText> >::vector<HelpText,std::allocator<HelpText> >, COMDAT
; _this$ = ecx

; 507  : 		{	// construct empty vector

  00000	8b c1		 mov	 eax, ecx
  00002	33 c9		 xor	 ecx, ecx
  00004	89 08		 mov	 DWORD PTR [eax], ecx
  00006	89 48 04	 mov	 DWORD PTR [eax+4], ecx
  00009	89 48 08	 mov	 DWORD PTR [eax+8], ecx

; 508  : 		}

  0000c	c3		 ret	 0
??0?$vector@UHelpText@@V?$allocator@UHelpText@@@std@@@std@@QAE@XZ ENDP ; std::vector<HelpText,std::allocator<HelpText> >::vector<HelpText,std::allocator<HelpText> >
_TEXT	ENDS
PUBLIC	?begin@?$vector@UHelpText@@V?$allocator@UHelpText@@@std@@@std@@QAE?AV?$_Vector_iterator@V?$_Vector_val@UHelpText@@V?$allocator@UHelpText@@@std@@@std@@@2@XZ ; std::vector<HelpText,std::allocator<HelpText> >::begin
; Function compile flags: /Ogsp
;	COMDAT ?begin@?$vector@UHelpText@@V?$allocator@UHelpText@@@std@@@std@@QAE?AV?$_Vector_iterator@V?$_Vector_val@UHelpText@@V?$allocator@UHelpText@@@std@@@std@@@2@XZ
_TEXT	SEGMENT
___$ReturnUdt$ = 8					; size = 4
?begin@?$vector@UHelpText@@V?$allocator@UHelpText@@@std@@@std@@QAE?AV?$_Vector_iterator@V?$_Vector_val@UHelpText@@V?$allocator@UHelpText@@@std@@@std@@@2@XZ PROC ; std::vector<HelpText,std::allocator<HelpText> >::begin, COMDAT
; _this$ = ecx

; 781  : 		{	// return iterator for beginning of mutable sequence

  00000	55		 push	 ebp
  00001	8b ec		 mov	 ebp, esp

; 782  : 		return (iterator(this->_Myfirst, this));

  00003	8b 09		 mov	 ecx, DWORD PTR [ecx]
  00005	8b 45 08	 mov	 eax, DWORD PTR ___$ReturnUdt$[ebp]
  00008	89 08		 mov	 DWORD PTR [eax], ecx

; 783  : 		}

  0000a	5d		 pop	 ebp
  0000b	c2 04 00	 ret	 4
?begin@?$vector@UHelpText@@V?$allocator@UHelpText@@@std@@@std@@QAE?AV?$_Vector_iterator@V?$_Vector_val@UHelpText@@V?$allocator@UHelpText@@@std@@@std@@@2@XZ ENDP ; std::vector<HelpText,std::allocator<HelpText> >::begin
_TEXT	ENDS
PUBLIC	?end@?$vector@UHelpText@@V?$allocator@UHelpText@@@std@@@std@@QAE?AV?$_Vector_iterator@V?$_Vector_val@UHelpText@@V?$allocator@UHelpText@@@std@@@std@@@2@XZ ; std::vector<HelpText,std::allocator<HelpText> >::end
; Function compile flags: /Ogsp
;	COMDAT ?end@?$vector@UHelpText@@V?$allocator@UHelpText@@@std@@@std@@QAE?AV?$_Vector_iterator@V?$_Vector_val@UHelpText@@V?$allocator@UHelpText@@@std@@@std@@@2@XZ
_TEXT	SEGMENT
___$ReturnUdt$ = 8					; size = 4
?end@?$vector@UHelpText@@V?$allocator@UHelpText@@@std@@@std@@QAE?AV?$_Vector_iterator@V?$_Vector_val@UHelpText@@V?$allocator@UHelpText@@@std@@@std@@@2@XZ PROC ; std::vector<HelpText,std::allocator<HelpText> >::end, COMDAT
; _this$ = ecx

; 791  : 		{	// return iterator for end of mutable sequence

  00000	55		 push	 ebp
  00001	8b ec		 mov	 ebp, esp

; 792  : 		return (iterator(this->_Mylast, this));

  00003	8b 49 04	 mov	 ecx, DWORD PTR [ecx+4]
  00006	8b 45 08	 mov	 eax, DWORD PTR ___$ReturnUdt$[ebp]
  00009	89 08		 mov	 DWORD PTR [eax], ecx

; 793  : 		}

  0000b	5d		 pop	 ebp
  0000c	c2 04 00	 ret	 4
?end@?$vector@UHelpText@@V?$allocator@UHelpText@@@std@@@std@@QAE?AV?$_Vector_iterator@V?$_Vector_val@UHelpText@@V?$allocator@UHelpText@@@std@@@std@@@2@XZ ENDP ; std::vector<HelpText,std::allocator<HelpText> >::end
_TEXT	ENDS
PUBLIC	?_Make_iter@?$vector@UHelpText@@V?$allocator@UHelpText@@@std@@@std@@QBE?AV?$_Vector_iterator@V?$_Vector_val@UHelpText@@V?$allocator@UHelpText@@@std@@@std@@@2@V?$_Vector_const_iterator@V?$_Vector_val@UHelpText@@V?$allocator@UHelpText@@@std@@@std@@@2@@Z ; std::vector<HelpText,std::allocator<HelpText> >::_Make_iter
; Function compile flags: /Ogsp
;	COMDAT ?_Make_iter@?$vector@UHelpText@@V?$allocator@UHelpText@@@std@@@std@@QBE?AV?$_Vector_iterator@V?$_Vector_val@UHelpText@@V?$allocator@UHelpText@@@std@@@std@@@2@V?$_Vector_const_iterator@V?$_Vector_val@UHelpText@@V?$allocator@UHelpText@@@std@@@std@@@2@@Z
_TEXT	SEGMENT
___$ReturnUdt$ = 8					; size = 4
__Where$ = 12						; size = 4
?_Make_iter@?$vector@UHelpText@@V?$allocator@UHelpText@@@std@@@std@@QBE?AV?$_Vector_iterator@V?$_Vector_val@UHelpText@@V?$allocator@UHelpText@@@std@@@std@@@2@V?$_Vector_const_iterator@V?$_Vector_val@UHelpText@@V?$allocator@UHelpText@@@std@@@std@@@2@@Z PROC ; std::vector<HelpText,std::allocator<HelpText> >::_Make_iter, COMDAT
; _this$ = ecx

; 801  : 		{	// make iterator from const_iterator

  00000	55		 push	 ebp
  00001	8b ec		 mov	 ebp, esp

; 802  : 		return (iterator(_Where._Ptr, this));

  00003	8b 45 08	 mov	 eax, DWORD PTR ___$ReturnUdt$[ebp]
  00006	8b 4d 0c	 mov	 ecx, DWORD PTR __Where$[ebp]
  00009	89 08		 mov	 DWORD PTR [eax], ecx

; 803  : 		}

  0000b	5d		 pop	 ebp
  0000c	c2 08 00	 ret	 8
?_Make_iter@?$vector@UHelpText@@V?$allocator@UHelpText@@@std@@@std@@QBE?AV?$_Vector_iterator@V?$_Vector_val@UHelpText@@V?$allocator@UHelpText@@@std@@@std@@@2@V?$_Vector_const_iterator@V?$_Vector_val@UHelpText@@V?$allocator@UHelpText@@@std@@@std@@@2@@Z ENDP ; std::vector<HelpText,std::allocator<HelpText> >::_Make_iter
_TEXT	ENDS
PUBLIC	??9?$_Vector_const_iterator@V?$_Vector_val@UHelpText@@V?$allocator@UHelpText@@@std@@@std@@@std@@QBE_NABV01@@Z ; std::_Vector_const_iterator<std::_Vector_val<HelpText,std::allocator<HelpText> > >::operator!=
; Function compile flags: /Ogsp
;	COMDAT ??9?$_Vector_const_iterator@V?$_Vector_val@UHelpText@@V?$allocator@UHelpText@@@std@@@std@@@std@@QBE_NABV01@@Z
_TEXT	SEGMENT
__Right$ = 8						; size = 4
??9?$_Vector_const_iterator@V?$_Vector_val@UHelpText@@V?$allocator@UHelpText@@@std@@@std@@@std@@QBE_NABV01@@Z PROC ; std::_Vector_const_iterator<std::_Vector_val<HelpText,std::allocator<HelpText> > >::operator!=, COMDAT
; _this$ = ecx

; 207  : 		{	// test for iterator inequality

  00000	55		 push	 ebp
  00001	8b ec		 mov	 ebp, esp

; 208  : 		return (!(*this == _Right));

  00003	8b 01		 mov	 eax, DWORD PTR [ecx]
  00005	8b 55 08	 mov	 edx, DWORD PTR __Right$[ebp]
  00008	33 c9		 xor	 ecx, ecx
  0000a	3b 02		 cmp	 eax, DWORD PTR [edx]
  0000c	0f 95 c0	 setne	 al

; 209  : 		}

  0000f	5d		 pop	 ebp
  00010	c2 04 00	 ret	 4
??9?$_Vector_const_iterator@V?$_Vector_val@UHelpText@@V?$allocator@UHelpText@@@std@@@std@@@std@@QBE_NABV01@@Z ENDP ; std::_Vector_const_iterator<std::_Vector_val<HelpText,std::allocator<HelpText> > >::operator!=
_TEXT	ENDS
PUBLIC	??$_Move@PAUHelpText@@PAU1@@std@@YAPAUHelpText@@PAU1@00@Z ; std::_Move<HelpText *,HelpText *>
; Function compile flags: /Ogsp
; File c:\program files (x86)\microsoft visual studio 10.0\vc\include\xutility
;	COMDAT ??$_Move@PAUHelpText@@PAU1@@std@@YAPAUHelpText@@PAU1@00@Z
_TEXT	SEGMENT
__Cat$528691 = -4					; size = 1
__First$ = 8						; size = 4
__Last$ = 12						; size = 4
__Dest$ = 16						; size = 4
??$_Move@PAUHelpText@@PAU1@@std@@YAPAUHelpText@@PAU1@00@Z PROC ; std::_Move<HelpText *,HelpText *>, COMDAT

; 2533 : 	{	// move [_First, _Last) to [_Dest, ...), unchecked

  00000	55		 push	 ebp
  00001	8b ec		 mov	 ebp, esp
  00003	51		 push	 ecx

; 2534 : 	return (_Move(_First, _Last,
; 2535 : 		_Dest, _Ptr_cat(_First, _Dest)));

  00004	ff 75 fc	 push	 DWORD PTR __Cat$528691[ebp]
  00007	ff 75 10	 push	 DWORD PTR __Dest$[ebp]
  0000a	ff 75 0c	 push	 DWORD PTR __Last$[ebp]
  0000d	ff 75 08	 push	 DWORD PTR __First$[ebp]
  00010	e8 00 00 00 00	 call	 ??$_Move@PAUHelpText@@PAU1@@std@@YAPAUHelpText@@PAU1@00U_Nonscalar_ptr_iterator_tag@0@@Z ; std::_Move<HelpText *,HelpText *>
  00015	83 c4 10	 add	 esp, 16			; 00000010H

; 2536 : 	}

  00018	c9		 leave
  00019	c3		 ret	 0
??$_Move@PAUHelpText@@PAU1@@std@@YAPAUHelpText@@PAU1@00@Z ENDP ; std::_Move<HelpText *,HelpText *>
_TEXT	ENDS
PUBLIC	??$_Dest_val@V?$allocator@UHelpText@@@std@@UHelpText@@@std@@YAXAAV?$allocator@UHelpText@@@0@PAUHelpText@@@Z ; std::_Dest_val<std::allocator<HelpText>,HelpText>
; Function compile flags: /Ogsp
; File c:\program files (x86)\microsoft visual studio 10.0\vc\include\xmemory
;	COMDAT ??$_Dest_val@V?$allocator@UHelpText@@@std@@UHelpText@@@std@@YAXAAV?$allocator@UHelpText@@@0@PAUHelpText@@@Z
_TEXT	SEGMENT
__Alval$ = 8						; size = 4
__Pdest$ = 12						; size = 4
??$_Dest_val@V?$allocator@UHelpText@@@std@@UHelpText@@@std@@YAXAAV?$allocator@UHelpText@@@0@PAUHelpText@@@Z PROC ; std::_Dest_val<std::allocator<HelpText>,HelpText>, COMDAT

; 287  : 	_Alval.destroy(_Pdest);
; 288  : 	}

  00000	c3		 ret	 0
??$_Dest_val@V?$allocator@UHelpText@@@std@@UHelpText@@@std@@YAXAAV?$allocator@UHelpText@@@0@PAUHelpText@@@Z ENDP ; std::_Dest_val<std::allocator<HelpText>,HelpText>
_TEXT	ENDS
PUBLIC	?ShowSkillHelp@ioModeHelpManager@@QAEXABVioHashString@@00@Z ; ioModeHelpManager::ShowSkillHelp
EXTRN	__imp_?IsEmpty@ioHashString@@QBE_NXZ:PROC
; Function compile flags: /Ogsp
; File d:\lost saga for developer\youtube\tutorial\source\src\lsclient\gui\iomodehelpmanager.cpp
;	COMDAT ?ShowSkillHelp@ioModeHelpManager@@QAEXABVioHashString@@00@Z
_TEXT	SEGMENT
_rszDescName$ = 8					; size = 4
_rszDesc$ = 12						; size = 4
_rszIconName$ = 16					; size = 4
?ShowSkillHelp@ioModeHelpManager@@QAEXABVioHashString@@00@Z PROC ; ioModeHelpManager::ShowSkillHelp, COMDAT
; _this$ = ecx

; 149  : {

  00000	55		 push	 ebp
  00001	8b ec		 mov	 ebp, esp

; 150  : 	if( Setting::IsHideSkillBuffEmoticon() )

  00003	80 3d 61 00 00
	00 00		 cmp	 BYTE PTR ?m_Option@Setting@@1USettingOption@@A+97, 0
  0000a	56		 push	 esi
  0000b	8b f1		 mov	 esi, ecx
  0000d	75 44		 jne	 SHORT $LN5@ShowSkillH

; 151  : 		return;
; 152  : 
; 153  : 	if( rszDescName.IsEmpty() ) return;

  0000f	8b 4d 08	 mov	 ecx, DWORD PTR _rszDescName$[ebp]
  00012	ff 15 00 00 00
	00		 call	 DWORD PTR __imp_?IsEmpty@ioHashString@@QBE_NXZ
  00018	84 c0		 test	 al, al
  0001a	75 37		 jne	 SHORT $LN5@ShowSkillH

; 154  : 	if( rszDesc.IsEmpty() ) return;

  0001c	8b 4d 0c	 mov	 ecx, DWORD PTR _rszDesc$[ebp]
  0001f	ff 15 00 00 00
	00		 call	 DWORD PTR __imp_?IsEmpty@ioHashString@@QBE_NXZ
  00025	84 c0		 test	 al, al
  00027	75 2a		 jne	 SHORT $LN5@ShowSkillH

; 155  : 	if( rszIconName.IsEmpty() ) return;

  00029	8b 4d 10	 mov	 ecx, DWORD PTR _rszIconName$[ebp]
  0002c	ff 15 00 00 00
	00		 call	 DWORD PTR __imp_?IsEmpty@ioHashString@@QBE_NXZ
  00032	84 c0		 test	 al, al
  00034	75 1d		 jne	 SHORT $LN5@ShowSkillH

; 156  : 
; 157  : 	SetHelpList( HT_SKILL, rszDescName, rszDesc, rszIconName );

  00036	ff 75 10	 push	 DWORD PTR _rszIconName$[ebp]
  00039	8b ce		 mov	 ecx, esi
  0003b	ff 75 0c	 push	 DWORD PTR _rszDesc$[ebp]
  0003e	ff 75 08	 push	 DWORD PTR _rszDescName$[ebp]
  00041	6a 0e		 push	 14			; 0000000eH
  00043	e8 00 00 00 00	 call	 ?SetHelpList@ioModeHelpManager@@IAEXW4HelpType@1@ABVioHashString@@11@Z ; ioModeHelpManager::SetHelpList

; 158  : 	ShowHelp( HT_SKILL );

  00048	6a 00		 push	 0
  0004a	6a 0e		 push	 14			; 0000000eH
  0004c	8b ce		 mov	 ecx, esi
  0004e	e8 00 00 00 00	 call	 ?ShowHelp@ioModeHelpManager@@QAEXW4HelpType@1@K@Z ; ioModeHelpManager::ShowHelp
$LN5@ShowSkillH:
  00053	5e		 pop	 esi

; 159  : }

  00054	5d		 pop	 ebp
  00055	c2 0c 00	 ret	 12			; 0000000cH
?ShowSkillHelp@ioModeHelpManager@@QAEXABVioHashString@@00@Z ENDP ; ioModeHelpManager::ShowSkillHelp
_TEXT	ENDS
PUBLIC	??_C@_0CI@GOKBCPJA@ioModeHelpManager?3?3ShowContribut@ ; `string'
PUBLIC	?ShowContributePraise@ioModeHelpManager@@QAEXH@Z ; ioModeHelpManager::ShowContributePraise
EXTRN	__imp_??1ioHashString@@QAE@XZ:PROC
EXTRN	__imp_??0ioHashString@@QAE@PBD@Z:PROC
EXTRN	__imp_?SafeSprintf@@YAXPADHPBDH@Z:PROC
EXTRN	__imp_?GetString@ioStringManager@@QAEPADPBD0HW4FileNamePrefix@1@@Z:PROC
EXTRN	__imp_?GetSingleton@ioStringManager@@SAAAV1@XZ:PROC
EXTRN	___CxxFrameHandler3:PROC
EXTRN	__EH_epilog3_GS:PROC
EXTRN	__EH_prolog3_GS:PROC
EXTRN	_memset:PROC
;	COMDAT ??_C@_0CI@GOKBCPJA@ioModeHelpManager?3?3ShowContribut@
CONST	SEGMENT
??_C@_0CI@GOKBCPJA@ioModeHelpManager?3?3ShowContribut@ DB 'ioModeHelpMana'
	DB	'ger::ShowContributePraise', 00H		; `string'
CONST	ENDS
;	COMDAT xdata$x
xdata$x	SEGMENT
__unwindtable$?ShowContributePraise@ioModeHelpManager@@QAEXH@Z DD 0ffffffffH
	DD	FLAT:__unwindfunclet$?ShowContributePraise@ioModeHelpManager@@QAEXH@Z$0
__ehfuncinfo$?ShowContributePraise@ioModeHelpManager@@QAEXH@Z DD 019930522H
	DD	01H
	DD	FLAT:__unwindtable$?ShowContributePraise@ioModeHelpManager@@QAEXH@Z
	DD	2 DUP(00H)
	DD	2 DUP(00H)
	DD	00H
	DD	01H
; Function compile flags: /Ogsp
xdata$x	ENDS
;	COMDAT ?ShowContributePraise@ioModeHelpManager@@QAEXH@Z
_TEXT	SEGMENT
$T528711 = -292						; size = 16
_szBuf$ = -276						; size = 260
__$EHRec$ = -12						; size = 12
_iContribute$ = 8					; size = 4
?ShowContributePraise@ioModeHelpManager@@QAEXH@Z PROC	; ioModeHelpManager::ShowContributePraise, COMDAT
; _this$ = ecx

; 162  : {

  00000	68 18 01 00 00	 push	 280			; 00000118H
  00005	b8 00 00 00 00	 mov	 eax, __ehhandler$?ShowContributePraise@ioModeHelpManager@@QAEXH@Z
  0000a	e8 00 00 00 00	 call	 __EH_prolog3_GS

; 163  : 	char szBuf[MAX_PATH];
; 164  : 
; 165  : 	memset( szBuf, 0, MAX_PATH );

  0000f	be 04 01 00 00	 mov	 esi, 260		; 00000104H
  00014	56		 push	 esi
  00015	8d 85 ec fe ff
	ff		 lea	 eax, DWORD PTR _szBuf$[ebp]
  0001b	6a 00		 push	 0
  0001d	50		 push	 eax
  0001e	8b d9		 mov	 ebx, ecx
  00020	e8 00 00 00 00	 call	 _memset
  00025	83 c4 0c	 add	 esp, 12			; 0000000cH

; 166  : 
; 167  : 	SafeSprintf( szBuf, sizeof( szBuf ), STR(1), iContribute );

  00028	ff 75 08	 push	 DWORD PTR _iContribute$[ebp]
  0002b	6a 00		 push	 0
  0002d	6a 01		 push	 1
  0002f	68 00 00 00 00	 push	 OFFSET ??_C@_00CNPNBAHC@?$AA@
  00034	68 00 00 00 00	 push	 OFFSET ??_C@_0CI@GOKBCPJA@ioModeHelpManager?3?3ShowContribut@
  00039	ff 15 00 00 00
	00		 call	 DWORD PTR __imp_?GetSingleton@ioStringManager@@SAAAV1@XZ
  0003f	8b c8		 mov	 ecx, eax
  00041	ff 15 00 00 00
	00		 call	 DWORD PTR __imp_?GetString@ioStringManager@@QAEPADPBD0HW4FileNamePrefix@1@@Z
  00047	50		 push	 eax
  00048	8d 85 ec fe ff
	ff		 lea	 eax, DWORD PTR _szBuf$[ebp]
  0004e	56		 push	 esi
  0004f	50		 push	 eax
  00050	ff 15 00 00 00
	00		 call	 DWORD PTR __imp_?SafeSprintf@@YAXPADHPBDH@Z
  00056	83 c4 10	 add	 esp, 16			; 00000010H

; 168  : 
; 169  : 	SetHelpList( HT_CONTRIBUTE_PRAISE, szBuf );

  00059	8d 85 ec fe ff
	ff		 lea	 eax, DWORD PTR _szBuf$[ebp]
  0005f	50		 push	 eax
  00060	8d 8d dc fe ff
	ff		 lea	 ecx, DWORD PTR $T528711[ebp]
  00066	ff 15 00 00 00
	00		 call	 DWORD PTR __imp_??0ioHashString@@QAE@PBD@Z
  0006c	83 65 fc 00	 and	 DWORD PTR __$EHRec$[ebp+8], 0
  00070	8d 85 dc fe ff
	ff		 lea	 eax, DWORD PTR $T528711[ebp]
  00076	50		 push	 eax
  00077	6a 19		 push	 25			; 00000019H
  00079	8b cb		 mov	 ecx, ebx
  0007b	e8 00 00 00 00	 call	 ?SetHelpList@ioModeHelpManager@@IAEXW4HelpType@1@ABVioHashString@@@Z ; ioModeHelpManager::SetHelpList
  00080	83 4d fc ff	 or	 DWORD PTR __$EHRec$[ebp+8], -1
  00084	8d 8d dc fe ff
	ff		 lea	 ecx, DWORD PTR $T528711[ebp]
  0008a	ff 15 00 00 00
	00		 call	 DWORD PTR __imp_??1ioHashString@@QAE@XZ

; 170  : 	ShowHelp( HT_CONTRIBUTE_PRAISE );

  00090	6a 00		 push	 0
  00092	6a 19		 push	 25			; 00000019H
  00094	8b cb		 mov	 ecx, ebx
  00096	e8 00 00 00 00	 call	 ?ShowHelp@ioModeHelpManager@@QAEXW4HelpType@1@K@Z ; ioModeHelpManager::ShowHelp

; 171  : }

  0009b	e8 00 00 00 00	 call	 __EH_epilog3_GS
  000a0	c2 04 00	 ret	 4
_TEXT	ENDS
;	COMDAT text$x
text$x	SEGMENT
__unwindfunclet$?ShowContributePraise@ioModeHelpManager@@QAEXH@Z$0:
  00000	8d 8d dc fe ff
	ff		 lea	 ecx, DWORD PTR $T528711[ebp]
  00006	ff 25 00 00 00
	00		 jmp	 DWORD PTR __imp_??1ioHashString@@QAE@XZ
__ehhandler$?ShowContributePraise@ioModeHelpManager@@QAEXH@Z:
  0000c	8b 54 24 08	 mov	 edx, DWORD PTR [esp+8]
  00010	8d 42 0c	 lea	 eax, DWORD PTR [edx+12]
  00013	8b 8a d8 fe ff
	ff		 mov	 ecx, DWORD PTR [edx-296]
  00019	33 c8		 xor	 ecx, eax
  0001b	e8 00 00 00 00	 call	 @__security_check_cookie@4
  00020	8b 4a fc	 mov	 ecx, DWORD PTR [edx-4]
  00023	33 c8		 xor	 ecx, eax
  00025	e8 00 00 00 00	 call	 @__security_check_cookie@4
  0002a	b8 00 00 00 00	 mov	 eax, OFFSET __ehfuncinfo$?ShowContributePraise@ioModeHelpManager@@QAEXH@Z
  0002f	e9 00 00 00 00	 jmp	 ___CxxFrameHandler3
text$x	ENDS
?ShowContributePraise@ioModeHelpManager@@QAEXH@Z ENDP	; ioModeHelpManager::ShowContributePraise
PUBLIC	?ShowHelpWhenHided@ioModeHelpManager@@IAE_NKPBVioPlayMode@@@Z ; ioModeHelpManager::ShowHelpWhenHided
; Function compile flags: /Ogsp
;	COMDAT ?ShowHelpWhenHided@ioModeHelpManager@@IAE_NKPBVioPlayMode@@@Z
_TEXT	SEGMENT
_bShowHelp$ = -1					; size = 1
_dwCurTime$ = 8						; size = 4
_pPlayMode$ = 12					; size = 4
?ShowHelpWhenHided@ioModeHelpManager@@IAE_NKPBVioPlayMode@@@Z PROC ; ioModeHelpManager::ShowHelpWhenHided, COMDAT
; _this$ = ecx

; 382  : {

  00000	55		 push	 ebp
  00001	8b ec		 mov	 ebp, esp
  00003	51		 push	 ecx
  00004	53		 push	 ebx
  00005	56		 push	 esi
  00006	8b f1		 mov	 esi, ecx

; 383  : 	bool bShowHelp = false;

  00008	33 db		 xor	 ebx, ebx

; 384  : 	if( m_eCurHelpType == HT_DIE )

  0000a	83 7e 14 12	 cmp	 DWORD PTR [esi+20], 18	; 00000012H
  0000e	88 5d ff	 mov	 BYTE PTR _bShowHelp$[ebp], bl
  00011	75 5b		 jne	 SHORT $LN9@ShowHelpWh

; 385  : 	{
; 386  : 		if( m_dwReserveRevivalEndTime != 0  )

  00013	8b 46 1c	 mov	 eax, DWORD PTR [esi+28]
  00016	3b c3		 cmp	 eax, ebx
  00018	74 19		 je	 SHORT $LN5@ShowHelpWh

; 387  : 		{
; 388  : 			if( m_dwReserveRevivalEndTime > dwCurTime )

  0001a	3b 45 08	 cmp	 eax, DWORD PTR _dwCurTime$[ebp]
  0001d	76 0f		 jbe	 SHORT $LN4@ShowHelpWh

; 389  : 			{
; 390  : 				m_eCurHelpType = HT_NONE;
; 391  : 				ShowHelp( HT_REVIVING, m_dwReserveRevivalEndTime );

  0001f	50		 push	 eax
  00020	6a 02		 push	 2
  00022	89 5e 14	 mov	 DWORD PTR [esi+20], ebx
  00025	e8 00 00 00 00	 call	 ?ShowHelp@ioModeHelpManager@@QAEXW4HelpType@1@K@Z ; ioModeHelpManager::ShowHelp

; 392  : 				bShowHelp = true;

  0002a	c6 45 ff 01	 mov	 BYTE PTR _bShowHelp$[ebp], 1
$LN4@ShowHelpWh:

; 393  : 			}
; 394  : 			m_dwReserveRevivalEndTime = 0;

  0002e	89 5e 1c	 mov	 DWORD PTR [esi+28], ebx

; 395  : 		}
; 396  : 		else if( pPlayMode && ( pPlayMode->GetModeType() == MT_CATCH || pPlayMode->GetModeType() == MT_CATCH_RUNNINGMAN || 

  00031	eb 3b		 jmp	 SHORT $LN9@ShowHelpWh
$LN5@ShowHelpWh:

; 397  : 			pPlayMode->GetModeType() == MT_CBT || pPlayMode->GetModeType() == MT_UNDERWEAR) )

  00033	39 5d 0c	 cmp	 DWORD PTR _pPlayMode$[ebp], ebx
  00036	74 36		 je	 SHORT $LN9@ShowHelpWh
  00038	e8 00 00 00 00	 call	 ?GetModeType@ioPlayMode@@SA?AW4ModeType@@XZ ; ioPlayMode::GetModeType
  0003d	83 f8 02	 cmp	 eax, 2
  00040	74 1e		 je	 SHORT $LN1@ShowHelpWh
  00042	e8 00 00 00 00	 call	 ?GetModeType@ioPlayMode@@SA?AW4ModeType@@XZ ; ioPlayMode::GetModeType
  00047	83 f8 0e	 cmp	 eax, 14			; 0000000eH
  0004a	74 14		 je	 SHORT $LN1@ShowHelpWh
  0004c	e8 00 00 00 00	 call	 ?GetModeType@ioPlayMode@@SA?AW4ModeType@@XZ ; ioPlayMode::GetModeType
  00051	83 f8 1a	 cmp	 eax, 26			; 0000001aH
  00054	74 0a		 je	 SHORT $LN1@ShowHelpWh
  00056	e8 00 00 00 00	 call	 ?GetModeType@ioPlayMode@@SA?AW4ModeType@@XZ ; ioPlayMode::GetModeType
  0005b	83 f8 19	 cmp	 eax, 25			; 00000019H
  0005e	75 0e		 jne	 SHORT $LN9@ShowHelpWh
$LN1@ShowHelpWh:

; 398  : 		{
; 399  : 			ShowHelp( HT_VIEW );

  00060	53		 push	 ebx
  00061	6a 01		 push	 1
  00063	8b ce		 mov	 ecx, esi
  00065	e8 00 00 00 00	 call	 ?ShowHelp@ioModeHelpManager@@QAEXW4HelpType@1@K@Z ; ioModeHelpManager::ShowHelp

; 400  : 			bShowHelp = true;

  0006a	c6 45 ff 01	 mov	 BYTE PTR _bShowHelp$[ebp], 1
$LN9@ShowHelpWh:

; 401  : 		}
; 402  : 	}
; 403  : 
; 404  : 	return bShowHelp;

  0006e	8a 45 ff	 mov	 al, BYTE PTR _bShowHelp$[ebp]
  00071	5e		 pop	 esi
  00072	5b		 pop	 ebx

; 405  : }

  00073	c9		 leave
  00074	c2 08 00	 ret	 8
?ShowHelpWhenHided@ioModeHelpManager@@IAE_NKPBVioPlayMode@@@Z ENDP ; ioModeHelpManager::ShowHelpWhenHided
_TEXT	ENDS
PUBLIC	??$_Uninit_move@PAUHelpText@@PAU1@V?$allocator@UHelpText@@@std@@U1@@std@@YAPAUHelpText@@PAU1@00AAV?$allocator@UHelpText@@@0@0U_Nonscalar_ptr_iterator_tag@0@@Z ; std::_Uninit_move<HelpText *,HelpText *,std::allocator<HelpText>,HelpText>
; Function compile flags: /Ogsp
; File c:\program files (x86)\microsoft visual studio 10.0\vc\include\memory
;	COMDAT ??$_Uninit_move@PAUHelpText@@PAU1@V?$allocator@UHelpText@@@std@@U1@@std@@YAPAUHelpText@@PAU1@00AAV?$allocator@UHelpText@@@0@0U_Nonscalar_ptr_iterator_tag@0@@Z
_TEXT	SEGMENT
__First$ = 8						; size = 4
__Last$ = 12						; size = 4
__Dest$ = 16						; size = 4
__Al$ = 20						; size = 4
___formal$ = 24						; size = 4
___formal$ = 28						; size = 1
??$_Uninit_move@PAUHelpText@@PAU1@V?$allocator@UHelpText@@@std@@U1@@std@@YAPAUHelpText@@PAU1@00AAV?$allocator@UHelpText@@@0@0U_Nonscalar_ptr_iterator_tag@0@@Z PROC ; std::_Uninit_move<HelpText *,HelpText *,std::allocator<HelpText>,HelpText>, COMDAT

; 424  : 	{	// move [_First, _Last) to raw _Dest, using _Al, arbitrary type

  00000	55		 push	 ebp
  00001	8b ec		 mov	 ebp, esp
  00003	57		 push	 edi

; 425  : 	_DEBUG_RANGE(_First, _Last);
; 426  : 	_DEBUG_POINTER(_Dest);
; 427  : 	_FwdIt _Next = _Dest;
; 428  : 
; 429  : 	_TRY_BEGIN
; 430  : 	for (; _First != _Last; ++_Dest, ++_First)

  00004	8b 7d 08	 mov	 edi, DWORD PTR __First$[ebp]
  00007	3b 7d 0c	 cmp	 edi, DWORD PTR __Last$[ebp]
  0000a	74 20		 je	 SHORT $LN23@Uninit_mov
  0000c	56		 push	 esi
  0000d	be 18 02 00 00	 mov	 esi, 536		; 00000218H
$LL6@Uninit_mov:

; 431  : 		_Cons_val(_Al, _Dest, (_Valty &&)*_First);

  00012	57		 push	 edi
  00013	ff 75 10	 push	 DWORD PTR __Dest$[ebp]
  00016	ff 75 14	 push	 DWORD PTR __Al$[ebp]
  00019	e8 00 00 00 00	 call	 ??$_Cons_val@V?$allocator@UHelpText@@@std@@UHelpText@@U3@@std@@YAXAAV?$allocator@UHelpText@@@0@PAUHelpText@@$$QAU2@@Z ; std::_Cons_val<std::allocator<HelpText>,HelpText,HelpText>
  0001e	01 75 10	 add	 DWORD PTR __Dest$[ebp], esi
  00021	03 fe		 add	 edi, esi
  00023	83 c4 0c	 add	 esp, 12			; 0000000cH
  00026	3b 7d 0c	 cmp	 edi, DWORD PTR __Last$[ebp]
  00029	75 e7		 jne	 SHORT $LL6@Uninit_mov
  0002b	5e		 pop	 esi
$LN23@Uninit_mov:

; 432  : 	_CATCH_ALL
; 433  : 	for (; _Next != _Dest; ++_Next)
; 434  : 		_Dest_val(_Al, _Next);
; 435  : 	_RERAISE;
; 436  : 	_CATCH_END
; 437  : 	return (_Dest);

  0002c	8b 45 10	 mov	 eax, DWORD PTR __Dest$[ebp]
  0002f	5f		 pop	 edi

; 438  : 	}

  00030	5d		 pop	 ebp
  00031	c3		 ret	 0
??$_Uninit_move@PAUHelpText@@PAU1@V?$allocator@UHelpText@@@std@@U1@@std@@YAPAUHelpText@@PAU1@00AAV?$allocator@UHelpText@@@0@0U_Nonscalar_ptr_iterator_tag@0@@Z ENDP ; std::_Uninit_move<HelpText *,HelpText *,std::allocator<HelpText>,HelpText>
_TEXT	ENDS
PUBLIC	??$_Uninit_copy@V?$_Vector_const_iterator@V?$_Vector_val@UHelpText@@V?$allocator@UHelpText@@@std@@@std@@@std@@PAUHelpText@@V?$allocator@UHelpText@@@2@@std@@YAPAUHelpText@@V?$_Vector_const_iterator@V?$_Vector_val@UHelpText@@V?$allocator@UHelpText@@@std@@@std@@@0@0PAU1@AAV?$allocator@UHelpText@@@0@U_Nonscalar_ptr_iterator_tag@0@@Z ; std::_Uninit_copy<std::_Vector_const_iterator<std::_Vector_val<HelpText,std::allocator<HelpText> > >,HelpText *,std::allocator<HelpText> >
; Function compile flags: /Ogsp
;	COMDAT ??$_Uninit_copy@V?$_Vector_const_iterator@V?$_Vector_val@UHelpText@@V?$allocator@UHelpText@@@std@@@std@@@std@@PAUHelpText@@V?$allocator@UHelpText@@@2@@std@@YAPAUHelpText@@V?$_Vector_const_iterator@V?$_Vector_val@UHelpText@@V?$allocator@UHelpText@@@std@@@std@@@0@0PAU1@AAV?$allocator@UHelpText@@@0@U_Nonscalar_ptr_iterator_tag@0@@Z
_TEXT	SEGMENT
__First$ = 8						; size = 4
__Last$ = 12						; size = 4
__Dest$ = 16						; size = 4
__Al$ = 20						; size = 4
___formal$ = 24						; size = 1
??$_Uninit_copy@V?$_Vector_const_iterator@V?$_Vector_val@UHelpText@@V?$allocator@UHelpText@@@std@@@std@@@std@@PAUHelpText@@V?$allocator@UHelpText@@@2@@std@@YAPAUHelpText@@V?$_Vector_const_iterator@V?$_Vector_val@UHelpText@@V?$allocator@UHelpText@@@std@@@std@@@0@0PAU1@AAV?$allocator@UHelpText@@@0@U_Nonscalar_ptr_iterator_tag@0@@Z PROC ; std::_Uninit_copy<std::_Vector_const_iterator<std::_Vector_val<HelpText,std::allocator<HelpText> > >,HelpText *,std::allocator<HelpText> >, COMDAT

; 369  : 	{	// copy [_First, _Last) to raw _Dest, using _Al, arbitrary type

  00000	55		 push	 ebp
  00001	8b ec		 mov	 ebp, esp

; 370  : 	_DEBUG_RANGE(_First, _Last);
; 371  : 	_DEBUG_POINTER(_Dest);
; 372  : 	_FwdIt _Next = _Dest;
; 373  : 
; 374  : 	_TRY_BEGIN
; 375  : 	for (; _First != _Last; ++_Dest, ++_First)

  00003	8b 45 08	 mov	 eax, DWORD PTR __First$[ebp]
  00006	3b 45 0c	 cmp	 eax, DWORD PTR __Last$[ebp]
  00009	74 26		 je	 SHORT $LN33@Uninit_cop
  0000b	56		 push	 esi
  0000c	be 18 02 00 00	 mov	 esi, 536		; 00000218H
$LL14@Uninit_cop:

; 376  : 		_Cons_val(_Al, _Dest, *_First);

  00011	ff 75 08	 push	 DWORD PTR __First$[ebp]
  00014	ff 75 10	 push	 DWORD PTR __Dest$[ebp]
  00017	ff 75 14	 push	 DWORD PTR __Al$[ebp]
  0001a	e8 00 00 00 00	 call	 ??$_Cons_val@V?$allocator@UHelpText@@@std@@UHelpText@@ABU3@@std@@YAXAAV?$allocator@UHelpText@@@0@PAUHelpText@@ABU2@@Z ; std::_Cons_val<std::allocator<HelpText>,HelpText,HelpText const &>
  0001f	01 75 08	 add	 DWORD PTR __First$[ebp], esi
  00022	8b 45 08	 mov	 eax, DWORD PTR __First$[ebp]
  00025	01 75 10	 add	 DWORD PTR __Dest$[ebp], esi
  00028	83 c4 0c	 add	 esp, 12			; 0000000cH
  0002b	3b 45 0c	 cmp	 eax, DWORD PTR __Last$[ebp]
  0002e	75 e1		 jne	 SHORT $LL14@Uninit_cop
  00030	5e		 pop	 esi
$LN33@Uninit_cop:

; 377  : 	_CATCH_ALL
; 378  : 	for (; _Next != _Dest; ++_Next)
; 379  : 		_Dest_val(_Al, _Next);
; 380  : 	_RERAISE;
; 381  : 	_CATCH_END
; 382  : 	return (_Dest);

  00031	8b 45 10	 mov	 eax, DWORD PTR __Dest$[ebp]

; 383  : 	}

  00034	5d		 pop	 ebp
  00035	c3		 ret	 0
??$_Uninit_copy@V?$_Vector_const_iterator@V?$_Vector_val@UHelpText@@V?$allocator@UHelpText@@@std@@@std@@@std@@PAUHelpText@@V?$allocator@UHelpText@@@2@@std@@YAPAUHelpText@@V?$_Vector_const_iterator@V?$_Vector_val@UHelpText@@V?$allocator@UHelpText@@@std@@@std@@@0@0PAU1@AAV?$allocator@UHelpText@@@0@U_Nonscalar_ptr_iterator_tag@0@@Z ENDP ; std::_Uninit_copy<std::_Vector_const_iterator<std::_Vector_val<HelpText,std::allocator<HelpText> > >,HelpText *,std::allocator<HelpText> >
_TEXT	ENDS
PUBLIC	??$_Uninit_copy@PAUHelpText@@PAU1@V?$allocator@UHelpText@@@std@@@std@@YAPAUHelpText@@PAU1@00AAV?$allocator@UHelpText@@@0@U_Nonscalar_ptr_iterator_tag@0@@Z ; std::_Uninit_copy<HelpText *,HelpText *,std::allocator<HelpText> >
; Function compile flags: /Ogsp
;	COMDAT ??$_Uninit_copy@PAUHelpText@@PAU1@V?$allocator@UHelpText@@@std@@@std@@YAPAUHelpText@@PAU1@00AAV?$allocator@UHelpText@@@0@U_Nonscalar_ptr_iterator_tag@0@@Z
_TEXT	SEGMENT
__First$ = 8						; size = 4
__Last$ = 12						; size = 4
__Dest$ = 16						; size = 4
__Al$ = 20						; size = 4
___formal$ = 24						; size = 1
??$_Uninit_copy@PAUHelpText@@PAU1@V?$allocator@UHelpText@@@std@@@std@@YAPAUHelpText@@PAU1@00AAV?$allocator@UHelpText@@@0@U_Nonscalar_ptr_iterator_tag@0@@Z PROC ; std::_Uninit_copy<HelpText *,HelpText *,std::allocator<HelpText> >, COMDAT

; 369  : 	{	// copy [_First, _Last) to raw _Dest, using _Al, arbitrary type

  00000	55		 push	 ebp
  00001	8b ec		 mov	 ebp, esp
  00003	57		 push	 edi

; 370  : 	_DEBUG_RANGE(_First, _Last);
; 371  : 	_DEBUG_POINTER(_Dest);
; 372  : 	_FwdIt _Next = _Dest;
; 373  : 
; 374  : 	_TRY_BEGIN
; 375  : 	for (; _First != _Last; ++_Dest, ++_First)

  00004	8b 7d 08	 mov	 edi, DWORD PTR __First$[ebp]
  00007	3b 7d 0c	 cmp	 edi, DWORD PTR __Last$[ebp]
  0000a	74 20		 je	 SHORT $LN23@Uninit_cop@2
  0000c	56		 push	 esi
  0000d	be 18 02 00 00	 mov	 esi, 536		; 00000218H
$LL6@Uninit_cop@2:

; 376  : 		_Cons_val(_Al, _Dest, *_First);

  00012	57		 push	 edi
  00013	ff 75 10	 push	 DWORD PTR __Dest$[ebp]
  00016	ff 75 14	 push	 DWORD PTR __Al$[ebp]
  00019	e8 00 00 00 00	 call	 ??$_Cons_val@V?$allocator@UHelpText@@@std@@UHelpText@@AAU3@@std@@YAXAAV?$allocator@UHelpText@@@0@PAUHelpText@@AAU2@@Z ; std::_Cons_val<std::allocator<HelpText>,HelpText,HelpText &>
  0001e	01 75 10	 add	 DWORD PTR __Dest$[ebp], esi
  00021	03 fe		 add	 edi, esi
  00023	83 c4 0c	 add	 esp, 12			; 0000000cH
  00026	3b 7d 0c	 cmp	 edi, DWORD PTR __Last$[ebp]
  00029	75 e7		 jne	 SHORT $LL6@Uninit_cop@2
  0002b	5e		 pop	 esi
$LN23@Uninit_cop@2:

; 377  : 	_CATCH_ALL
; 378  : 	for (; _Next != _Dest; ++_Next)
; 379  : 		_Dest_val(_Al, _Next);
; 380  : 	_RERAISE;
; 381  : 	_CATCH_END
; 382  : 	return (_Dest);

  0002c	8b 45 10	 mov	 eax, DWORD PTR __Dest$[ebp]
  0002f	5f		 pop	 edi

; 383  : 	}

  00030	5d		 pop	 ebp
  00031	c3		 ret	 0
??$_Uninit_copy@PAUHelpText@@PAU1@V?$allocator@UHelpText@@@std@@@std@@YAPAUHelpText@@PAU1@00AAV?$allocator@UHelpText@@@0@U_Nonscalar_ptr_iterator_tag@0@@Z ENDP ; std::_Uninit_copy<HelpText *,HelpText *,std::allocator<HelpText> >
_TEXT	ENDS
PUBLIC	??$_Destroy_range@V?$allocator@UHelpText@@@std@@@std@@YAXPAUHelpText@@0AAV?$allocator@UHelpText@@@0@U_Nonscalar_ptr_iterator_tag@0@@Z ; std::_Destroy_range<std::allocator<HelpText> >
; Function compile flags: /Ogsp
; File c:\program files (x86)\microsoft visual studio 10.0\vc\include\xmemory
;	COMDAT ??$_Destroy_range@V?$allocator@UHelpText@@@std@@@std@@YAXPAUHelpText@@0AAV?$allocator@UHelpText@@@0@U_Nonscalar_ptr_iterator_tag@0@@Z
_TEXT	SEGMENT
__First$ = 8						; size = 4
__Last$ = 12						; size = 4
__Al$ = 16						; size = 4
___formal$ = 20						; size = 1
??$_Destroy_range@V?$allocator@UHelpText@@@std@@@std@@YAXPAUHelpText@@0AAV?$allocator@UHelpText@@@0@U_Nonscalar_ptr_iterator_tag@0@@Z PROC ; std::_Destroy_range<std::allocator<HelpText> >, COMDAT

; 96   : 	for (; _First != _Last; ++_First)
; 97   : 		_Dest_val(_Al, _First);
; 98   : 	}

  00000	c3		 ret	 0
??$_Destroy_range@V?$allocator@UHelpText@@@std@@@std@@YAXPAUHelpText@@0AAV?$allocator@UHelpText@@@0@U_Nonscalar_ptr_iterator_tag@0@@Z ENDP ; std::_Destroy_range<std::allocator<HelpText> >
_TEXT	ENDS
PUBLIC	?Process@ioModeHelpManager@@QAEXPBVioPlayMode@@@Z ; ioModeHelpManager::Process
; Function compile flags: /Ogsp
; File d:\lost saga for developer\youtube\tutorial\source\src\lsclient\gui\iomodehelpmanager.cpp
;	COMDAT ?Process@ioModeHelpManager@@QAEXPBVioPlayMode@@@Z
_TEXT	SEGMENT
_pPlayMode$ = 8						; size = 4
?Process@ioModeHelpManager@@QAEXPBVioPlayMode@@@Z PROC	; ioModeHelpManager::Process, COMDAT
; _this$ = ecx

; 174  : {

  00000	56		 push	 esi
  00001	8b f1		 mov	 esi, ecx

; 175  : 	DWORD dwCurTime = FRAMEGETTIME();

  00003	ff 15 00 00 00
	00		 call	 DWORD PTR __imp_?GetSingleton@ioFrameTimer@@SAAAV1@XZ
  00009	8b c8		 mov	 ecx, eax
  0000b	ff 15 00 00 00
	00		 call	 DWORD PTR __imp_?GetLoopSec@ioFrameTimer@@QBEKXZ

; 176  : 
; 177  : 	if(	m_dwHideHelpTime > 0 &&	dwCurTime > m_dwHideHelpTime )

  00011	8b 4e 18	 mov	 ecx, DWORD PTR [esi+24]
  00014	85 c9		 test	 ecx, ecx
  00016	74 08		 je	 SHORT $LN6@Process
  00018	3b c1		 cmp	 eax, ecx
  0001a	76 04		 jbe	 SHORT $LN6@Process

; 178  : 	{
; 179  : 		m_dwHideHelpTime = 0;

  0001c	83 66 18 00	 and	 DWORD PTR [esi+24], 0

; 180  : 		SetHidingAni();	

$LN6@Process:
  00020	5e		 pop	 esi

; 181  : 	}
; 182  : 
; 183  : 	if( IsHidedAni() )
; 184  : 	{
; 185  : 		if( !ShowHelpWhenHided( dwCurTime, pPlayMode ) )
; 186  : 		{
; 187  : 			InitModeHelp();
; 188  : 			HideHelpWnd();
; 189  : 		}
; 190  : 	}
; 191  : }

  00021	c2 04 00	 ret	 4
?Process@ioModeHelpManager@@QAEXPBVioPlayMode@@@Z ENDP	; ioModeHelpManager::Process
_TEXT	ENDS
PUBLIC	??$_Uninitialized_move@PAUHelpText@@PAU1@V?$allocator@UHelpText@@@std@@@std@@YAPAUHelpText@@PAU1@00AAV?$allocator@UHelpText@@@0@@Z ; std::_Uninitialized_move<HelpText *,HelpText *,std::allocator<HelpText> >
; Function compile flags: /Ogsp
; File c:\program files (x86)\microsoft visual studio 10.0\vc\include\memory
;	COMDAT ??$_Uninitialized_move@PAUHelpText@@PAU1@V?$allocator@UHelpText@@@std@@@std@@YAPAUHelpText@@PAU1@00AAV?$allocator@UHelpText@@@0@@Z
_TEXT	SEGMENT
__Cat$528872 = -4					; size = 1
__First$ = 8						; size = 4
__Last$ = 12						; size = 4
__Dest$ = 16						; size = 4
__Al$ = 20						; size = 4
??$_Uninitialized_move@PAUHelpText@@PAU1@V?$allocator@UHelpText@@@std@@@std@@YAPAUHelpText@@PAU1@00AAV?$allocator@UHelpText@@@0@@Z PROC ; std::_Uninitialized_move<HelpText *,HelpText *,std::allocator<HelpText> >, COMDAT

; 469  : 	{	// move [_First, _Last) to raw _Dest, using _Al

  00000	55		 push	 ebp
  00001	8b ec		 mov	 ebp, esp
  00003	51		 push	 ecx

; 470  : 	return (_Uninit_move(_First, _Last, _Dest, _Al,
; 471  : 		_Val_type(_First), _Ptr_cat(_First, _Dest)));

  00004	ff 75 fc	 push	 DWORD PTR __Cat$528872[ebp]
  00007	6a 00		 push	 0
  00009	ff 75 14	 push	 DWORD PTR __Al$[ebp]
  0000c	ff 75 10	 push	 DWORD PTR __Dest$[ebp]
  0000f	ff 75 0c	 push	 DWORD PTR __Last$[ebp]
  00012	ff 75 08	 push	 DWORD PTR __First$[ebp]
  00015	e8 00 00 00 00	 call	 ??$_Uninit_move@PAUHelpText@@PAU1@V?$allocator@UHelpText@@@std@@U1@@std@@YAPAUHelpText@@PAU1@00AAV?$allocator@UHelpText@@@0@0U_Nonscalar_ptr_iterator_tag@0@@Z ; std::_Uninit_move<HelpText *,HelpText *,std::allocator<HelpText>,HelpText>
  0001a	83 c4 18	 add	 esp, 24			; 00000018H

; 472  : 	}

  0001d	c9		 leave
  0001e	c3		 ret	 0
??$_Uninitialized_move@PAUHelpText@@PAU1@V?$allocator@UHelpText@@@std@@@std@@YAPAUHelpText@@PAU1@00AAV?$allocator@UHelpText@@@0@@Z ENDP ; std::_Uninitialized_move<HelpText *,HelpText *,std::allocator<HelpText> >
_TEXT	ENDS
