; Listing generated by Microsoft (R) Optimizing Compiler Version 16.00.30319.01 

	TITLE	D:\Lost Saga For Developer\Youtube\Tutorial\Source\src\LSClient\ioMultiLightAttack.cpp
	.686P
	.XMM
	include listing.inc
	.model	flat

INCLUDELIB MSVCRT
INCLUDELIB OLDNAMES

PUBLIC	?_EEM_DS@?$deque@UD3DXVECTOR3@@V?$allocator@UD3DXVECTOR3@@@std@@@std@@2HB ; std::deque<D3DXVECTOR3,std::allocator<D3DXVECTOR3> >::_EEM_DS
;	COMDAT ?_EEM_DS@?$deque@UD3DXVECTOR3@@V?$allocator@UD3DXVECTOR3@@@std@@@std@@2HB
CONST	SEGMENT
?_EEM_DS@?$deque@UD3DXVECTOR3@@V?$allocator@UD3DXVECTOR3@@@std@@@std@@2HB DD 01H ; std::deque<D3DXVECTOR3,std::allocator<D3DXVECTOR3> >::_EEM_DS
CONST	ENDS
PUBLIC	?return1@@YAIXZ					; return1
; Function compile flags: /Ogsp
; File d:\lost saga for developer\youtube\tutorial\source\src\lsclient\stdafx.h
;	COMDAT ?return1@@YAIXZ
_TEXT	SEGMENT
?return1@@YAIXZ PROC					; return1, COMDAT

; 17   : 	__forceinline unsigned int return1() { __asm mov eax, 1 };

  00000	b8 01 00 00 00	 mov	 eax, 1
  00005	c3		 ret	 0
?return1@@YAIXZ ENDP					; return1
_TEXT	ENDS
PUBLIC	?return100@@YAIXZ				; return100
; Function compile flags: /Ogsp
;	COMDAT ?return100@@YAIXZ
_TEXT	SEGMENT
?return100@@YAIXZ PROC					; return100, COMDAT

; 25   : 	__forceinline unsigned int return100() { __asm mov eax, 100 };

  00000	b8 64 00 00 00	 mov	 eax, 100		; 00000064H
  00005	c3		 ret	 0
?return100@@YAIXZ ENDP					; return100
_TEXT	ENDS
PUBLIC	?GetCharName@ioBaseChar@@QBEABVioHashString@@XZ	; ioBaseChar::GetCharName
; Function compile flags: /Ogsp
; File d:\lost saga for developer\youtube\tutorial\source\src\lsclient\iobasechar.h
;	COMDAT ?GetCharName@ioBaseChar@@QBEABVioHashString@@XZ
_TEXT	SEGMENT
?GetCharName@ioBaseChar@@QBEABVioHashString@@XZ PROC	; ioBaseChar::GetCharName, COMDAT
; _this$ = ecx

; 2594 : 	inline const ioHashString& GetCharName() const { return m_Name; }

  00000	8d 81 d4 02 00
	00		 lea	 eax, DWORD PTR [ecx+724]
  00006	c3		 ret	 0
?GetCharName@ioBaseChar@@QBEABVioHashString@@XZ ENDP	; ioBaseChar::GetCharName
_TEXT	ENDS
PUBLIC	?GetTargetRot@ioBaseChar@@QBEABUD3DXQUATERNION@@XZ ; ioBaseChar::GetTargetRot
; Function compile flags: /Ogsp
;	COMDAT ?GetTargetRot@ioBaseChar@@QBEABUD3DXQUATERNION@@XZ
_TEXT	SEGMENT
?GetTargetRot@ioBaseChar@@QBEABUD3DXQUATERNION@@XZ PROC	; ioBaseChar::GetTargetRot, COMDAT
; _this$ = ecx

; 2599 : 	inline const D3DXQUATERNION& GetTargetRot() const { return m_qtTargetRot; }

  00000	8d 81 a4 06 00
	00		 lea	 eax, DWORD PTR [ecx+1700]
  00006	c3		 ret	 0
?GetTargetRot@ioBaseChar@@QBEABUD3DXQUATERNION@@XZ ENDP	; ioBaseChar::GetTargetRot
_TEXT	ENDS
PUBLIC	??_7bad_alloc@std@@6B@				; std::bad_alloc::`vftable'
PUBLIC	??0bad_alloc@std@@QAE@PBD@Z			; std::bad_alloc::bad_alloc
PUBLIC	??_R4bad_alloc@std@@6B@				; std::bad_alloc::`RTTI Complete Object Locator'
PUBLIC	??_R0?AVbad_alloc@std@@@8			; std::bad_alloc `RTTI Type Descriptor'
PUBLIC	??_R3bad_alloc@std@@8				; std::bad_alloc::`RTTI Class Hierarchy Descriptor'
PUBLIC	??_R2bad_alloc@std@@8				; std::bad_alloc::`RTTI Base Class Array'
PUBLIC	??_R1A@?0A@EA@bad_alloc@std@@8			; std::bad_alloc::`RTTI Base Class Descriptor at (0,-1,0,64)'
PUBLIC	??_R1A@?0A@EA@exception@std@@8			; std::exception::`RTTI Base Class Descriptor at (0,-1,0,64)'
PUBLIC	??_R0?AVexception@std@@@8			; std::exception `RTTI Type Descriptor'
PUBLIC	??_R3exception@std@@8				; std::exception::`RTTI Class Hierarchy Descriptor'
PUBLIC	??_R2exception@std@@8				; std::exception::`RTTI Base Class Array'
EXTRN	__imp_??0exception@std@@QAE@ABQBD@Z:PROC
EXTRN	??_7type_info@@6B@:QWORD			; type_info::`vftable'
EXTRN	??_Ebad_alloc@std@@UAEPAXI@Z:PROC		; std::bad_alloc::`vector deleting destructor'
EXTRN	?what@exception@std@@UBEPBDXZ:PROC		; std::exception::what
;	COMDAT ??_R2exception@std@@8
; File c:\program files (x86)\microsoft visual studio 10.0\vc\include\exception
rdata$r	SEGMENT
??_R2exception@std@@8 DD FLAT:??_R1A@?0A@EA@exception@std@@8 ; std::exception::`RTTI Base Class Array'
rdata$r	ENDS
;	COMDAT ??_R3exception@std@@8
rdata$r	SEGMENT
??_R3exception@std@@8 DD 00H				; std::exception::`RTTI Class Hierarchy Descriptor'
	DD	00H
	DD	01H
	DD	FLAT:??_R2exception@std@@8
rdata$r	ENDS
;	COMDAT ??_R0?AVexception@std@@@8
_DATA	SEGMENT
??_R0?AVexception@std@@@8 DD FLAT:??_7type_info@@6B@	; std::exception `RTTI Type Descriptor'
	DD	00H
	DB	'.?AVexception@std@@', 00H
_DATA	ENDS
;	COMDAT ??_R1A@?0A@EA@exception@std@@8
rdata$r	SEGMENT
??_R1A@?0A@EA@exception@std@@8 DD FLAT:??_R0?AVexception@std@@@8 ; std::exception::`RTTI Base Class Descriptor at (0,-1,0,64)'
	DD	00H
	DD	00H
	DD	0ffffffffH
	DD	00H
	DD	040H
	DD	FLAT:??_R3exception@std@@8
rdata$r	ENDS
;	COMDAT ??_R1A@?0A@EA@bad_alloc@std@@8
rdata$r	SEGMENT
??_R1A@?0A@EA@bad_alloc@std@@8 DD FLAT:??_R0?AVbad_alloc@std@@@8 ; std::bad_alloc::`RTTI Base Class Descriptor at (0,-1,0,64)'
	DD	01H
	DD	00H
	DD	0ffffffffH
	DD	00H
	DD	040H
	DD	FLAT:??_R3bad_alloc@std@@8
rdata$r	ENDS
;	COMDAT ??_R2bad_alloc@std@@8
rdata$r	SEGMENT
??_R2bad_alloc@std@@8 DD FLAT:??_R1A@?0A@EA@bad_alloc@std@@8 ; std::bad_alloc::`RTTI Base Class Array'
	DD	FLAT:??_R1A@?0A@EA@exception@std@@8
rdata$r	ENDS
;	COMDAT ??_R3bad_alloc@std@@8
rdata$r	SEGMENT
??_R3bad_alloc@std@@8 DD 00H				; std::bad_alloc::`RTTI Class Hierarchy Descriptor'
	DD	00H
	DD	02H
	DD	FLAT:??_R2bad_alloc@std@@8
rdata$r	ENDS
;	COMDAT ??_R0?AVbad_alloc@std@@@8
_DATA	SEGMENT
??_R0?AVbad_alloc@std@@@8 DD FLAT:??_7type_info@@6B@	; std::bad_alloc `RTTI Type Descriptor'
	DD	00H
	DB	'.?AVbad_alloc@std@@', 00H
_DATA	ENDS
;	COMDAT ??_R4bad_alloc@std@@6B@
rdata$r	SEGMENT
??_R4bad_alloc@std@@6B@ DD 00H				; std::bad_alloc::`RTTI Complete Object Locator'
	DD	00H
	DD	00H
	DD	FLAT:??_R0?AVbad_alloc@std@@@8
	DD	FLAT:??_R3bad_alloc@std@@8
rdata$r	ENDS
;	COMDAT ??_7bad_alloc@std@@6B@
CONST	SEGMENT
??_7bad_alloc@std@@6B@ DD FLAT:??_R4bad_alloc@std@@6B@	; std::bad_alloc::`vftable'
	DD	FLAT:??_Ebad_alloc@std@@UAEPAXI@Z
	DD	FLAT:?what@exception@std@@UBEPBDXZ
; Function compile flags: /Ogsp
CONST	ENDS
;	COMDAT ??0bad_alloc@std@@QAE@PBD@Z
_TEXT	SEGMENT
__Message$ = 8						; size = 4
??0bad_alloc@std@@QAE@PBD@Z PROC			; std::bad_alloc::bad_alloc, COMDAT
; _this$ = ecx

; 345  : 		{	// construct from message string

  00000	55		 push	 ebp
  00001	8b ec		 mov	 ebp, esp
  00003	56		 push	 esi
  00004	8d 45 08	 lea	 eax, DWORD PTR __Message$[ebp]
  00007	50		 push	 eax
  00008	8b f1		 mov	 esi, ecx
  0000a	ff 15 00 00 00
	00		 call	 DWORD PTR __imp_??0exception@std@@QAE@ABQBD@Z
  00010	c7 06 00 00 00
	00		 mov	 DWORD PTR [esi], OFFSET ??_7bad_alloc@std@@6B@

; 346  : 		}

  00016	8b c6		 mov	 eax, esi
  00018	5e		 pop	 esi
  00019	5d		 pop	 ebp
  0001a	c2 04 00	 ret	 4
??0bad_alloc@std@@QAE@PBD@Z ENDP			; std::bad_alloc::bad_alloc
_TEXT	ENDS
PUBLIC	??1bad_alloc@std@@UAE@XZ			; std::bad_alloc::~bad_alloc
EXTRN	__imp_??1exception@std@@UAE@XZ:PROC
; Function compile flags: /Ogsp
;	COMDAT ??1bad_alloc@std@@UAE@XZ
_TEXT	SEGMENT
??1bad_alloc@std@@UAE@XZ PROC				; std::bad_alloc::~bad_alloc, COMDAT
; _this$ = ecx

; 354  : 		{	// destroy the object

  00000	c7 01 00 00 00
	00		 mov	 DWORD PTR [ecx], OFFSET ??_7bad_alloc@std@@6B@

; 355  : 		}

  00006	ff 25 00 00 00
	00		 jmp	 DWORD PTR __imp_??1exception@std@@UAE@XZ
??1bad_alloc@std@@UAE@XZ ENDP				; std::bad_alloc::~bad_alloc
_TEXT	ENDS
EXTRN	??3@YAXPAX@Z:PROC				; operator delete
; Function compile flags: /Ogsp
;	COMDAT ??_Gbad_alloc@std@@UAEPAXI@Z
_TEXT	SEGMENT
___flags$ = 8						; size = 4
??_Gbad_alloc@std@@UAEPAXI@Z PROC			; std::bad_alloc::`scalar deleting destructor', COMDAT
; _this$ = ecx
  00000	55		 push	 ebp
  00001	8b ec		 mov	 ebp, esp
  00003	56		 push	 esi
  00004	8b f1		 mov	 esi, ecx
  00006	c7 06 00 00 00
	00		 mov	 DWORD PTR [esi], OFFSET ??_7bad_alloc@std@@6B@
  0000c	ff 15 00 00 00
	00		 call	 DWORD PTR __imp_??1exception@std@@UAE@XZ
  00012	f6 45 08 01	 test	 BYTE PTR ___flags$[ebp], 1
  00016	74 07		 je	 SHORT $LN1@scalar
  00018	56		 push	 esi
  00019	e8 00 00 00 00	 call	 ??3@YAXPAX@Z		; operator delete
  0001e	59		 pop	 ecx
$LN1@scalar:
  0001f	8b c6		 mov	 eax, esi
  00021	5e		 pop	 esi
  00022	5d		 pop	 ebp
  00023	c2 04 00	 ret	 4
??_Gbad_alloc@std@@UAEPAXI@Z ENDP			; std::bad_alloc::`scalar deleting destructor'
_TEXT	ENDS
PUBLIC	?IsInvisibleFace@ioBaseChar@@QBE_NXZ		; ioBaseChar::IsInvisibleFace
; Function compile flags: /Ogsp
; File d:\lost saga for developer\youtube\tutorial\source\src\lsclient\iobasechar.h
;	COMDAT ?IsInvisibleFace@ioBaseChar@@QBE_NXZ
_TEXT	SEGMENT
?IsInvisibleFace@ioBaseChar@@QBE_NXZ PROC		; ioBaseChar::IsInvisibleFace, COMDAT
; _this$ = ecx

; 3505 : 	inline bool IsInvisibleFace() const { return m_bInvisibleFace; }

  00000	8a 81 d5 1b 00
	00		 mov	 al, BYTE PTR [ecx+7125]
  00006	c3		 ret	 0
?IsInvisibleFace@ioBaseChar@@QBE_NXZ ENDP		; ioBaseChar::IsInvisibleFace
_TEXT	ENDS
PUBLIC	??2@YAPAXIPAX@Z					; operator new
; Function compile flags: /Ogsp
; File c:\program files (x86)\microsoft visual studio 10.0\vc\include\new
;	COMDAT ??2@YAPAXIPAX@Z
_TEXT	SEGMENT
___formal$ = 8						; size = 4
__Where$ = 12						; size = 4
??2@YAPAXIPAX@Z PROC					; operator new, COMDAT

; 56   : 	{	// construct array with placement at _Where

  00000	55		 push	 ebp
  00001	8b ec		 mov	 ebp, esp

; 57   : 	return (_Where);

  00003	8b 45 0c	 mov	 eax, DWORD PTR __Where$[ebp]

; 58   : 	}

  00006	5d		 pop	 ebp
  00007	c3		 ret	 0
??2@YAPAXIPAX@Z ENDP					; operator new
_TEXT	ENDS
PUBLIC	??3@YAXPAX0@Z					; operator delete
; Function compile flags: /Ogsp
;	COMDAT ??3@YAXPAX0@Z
_TEXT	SEGMENT
___formal$ = 8						; size = 4
___formal$ = 12						; size = 4
??3@YAXPAX0@Z PROC					; operator delete, COMDAT

; 62   : 	}

  00000	c3		 ret	 0
??3@YAXPAX0@Z ENDP					; operator delete
_TEXT	ENDS
PUBLIC	?GetCreator@ioBaseChar@@QAEPAVioPlayStage@@XZ	; ioBaseChar::GetCreator
; Function compile flags: /Ogsp
; File d:\lost saga for developer\youtube\tutorial\source\src\lsclient\iobasechar.h
;	COMDAT ?GetCreator@ioBaseChar@@QAEPAVioPlayStage@@XZ
_TEXT	SEGMENT
?GetCreator@ioBaseChar@@QAEPAVioPlayStage@@XZ PROC	; ioBaseChar::GetCreator, COMDAT
; _this$ = ecx

; 4013 : 	inline ioPlayStage* GetCreator() { return m_pCreator; }

  00000	8b 81 44 03 00
	00		 mov	 eax, DWORD PTR [ecx+836]
  00006	c3		 ret	 0
?GetCreator@ioBaseChar@@QAEPAVioPlayStage@@XZ ENDP	; ioBaseChar::GetCreator
_TEXT	ENDS
PUBLIC	?GetType@ioGrowthUpInfo@@QBE?AW4GrowthType@@XZ	; ioGrowthUpInfo::GetType
; Function compile flags: /Ogsp
; File d:\lost saga for developer\youtube\tutorial\source\src\lsclient\iogrowthupinfo.h
;	COMDAT ?GetType@ioGrowthUpInfo@@QBE?AW4GrowthType@@XZ
_TEXT	SEGMENT
?GetType@ioGrowthUpInfo@@QBE?AW4GrowthType@@XZ PROC	; ioGrowthUpInfo::GetType, COMDAT
; _this$ = ecx

; 23   : 	inline GrowthType GetType() const { return m_GrowthType; }

  00000	8b 41 04	 mov	 eax, DWORD PTR [ecx+4]
  00003	c3		 ret	 0
?GetType@ioGrowthUpInfo@@QBE?AW4GrowthType@@XZ ENDP	; ioGrowthUpInfo::GetType
_TEXT	ENDS
PUBLIC	??_R0?AVioGrowthUpInfo@@@8			; ioGrowthUpInfo `RTTI Type Descriptor'
PUBLIC	??_R0?AVioGrowthNormalUpInfo@@@8		; ioGrowthNormalUpInfo `RTTI Type Descriptor'
PUBLIC	?ToNormalUpInfo@@YAPAVioGrowthNormalUpInfo@@PAVioGrowthUpInfo@@@Z ; ToNormalUpInfo
EXTRN	___RTDynamicCast:PROC
;	COMDAT ??_R0?AVioGrowthUpInfo@@@8
_DATA	SEGMENT
??_R0?AVioGrowthUpInfo@@@8 DD FLAT:??_7type_info@@6B@	; ioGrowthUpInfo `RTTI Type Descriptor'
	DD	00H
	DB	'.?AVioGrowthUpInfo@@', 00H
_DATA	ENDS
;	COMDAT ??_R0?AVioGrowthNormalUpInfo@@@8
_DATA	SEGMENT
??_R0?AVioGrowthNormalUpInfo@@@8 DD FLAT:??_7type_info@@6B@ ; ioGrowthNormalUpInfo `RTTI Type Descriptor'
	DD	00H
	DB	'.?AVioGrowthNormalUpInfo@@', 00H
; Function compile flags: /Ogsp
_DATA	ENDS
;	COMDAT ?ToNormalUpInfo@@YAPAVioGrowthNormalUpInfo@@PAVioGrowthUpInfo@@@Z
_TEXT	SEGMENT
_pUpInfo$ = 8						; size = 4
?ToNormalUpInfo@@YAPAVioGrowthNormalUpInfo@@PAVioGrowthUpInfo@@@Z PROC ; ToNormalUpInfo, COMDAT

; 59   : {

  00000	55		 push	 ebp
  00001	8b ec		 mov	 ebp, esp

; 60   : 	if( !pUpInfo || pUpInfo->GetType() == GT_NONE )

  00003	8b 4d 08	 mov	 ecx, DWORD PTR _pUpInfo$[ebp]
  00006	85 c9		 test	 ecx, ecx
  00008	74 39		 je	 SHORT $LN6@ToNormalUp
  0000a	8b 41 04	 mov	 eax, DWORD PTR [ecx+4]
  0000d	85 c0		 test	 eax, eax
  0000f	74 32		 je	 SHORT $LN6@ToNormalUp

; 62   : 
; 63   : 	if( pUpInfo->GetType() == GT_CHAR_ATTACK || pUpInfo->GetType() == GT_SKILL_ATTACK )

  00011	83 f8 01	 cmp	 eax, 1
  00014	74 2d		 je	 SHORT $LN6@ToNormalUp
  00016	83 f8 07	 cmp	 eax, 7
  00019	74 28		 je	 SHORT $LN6@ToNormalUp

; 64   : 		return NULL;
; 65   : 	if( pUpInfo->GetType() == GT_BLOW_PUSH )

  0001b	83 f8 1e	 cmp	 eax, 30			; 0000001eH

; 66   : 		return NULL;

  0001e	74 23		 je	 SHORT $LN6@ToNormalUp

; 67   : 	if( pUpInfo->GetType() == GT_TELEPORT_ANI_RATE )

  00020	83 f8 20	 cmp	 eax, 32			; 00000020H

; 68   : 		return NULL;

  00023	74 1e		 je	 SHORT $LN6@ToNormalUp

; 69   : 	if( pUpInfo->GetType() == GT_SKILL_ATTACK_FORCE )

  00025	83 f8 1c	 cmp	 eax, 28			; 0000001cH

; 70   : 		return NULL;

  00028	74 19		 je	 SHORT $LN6@ToNormalUp

; 71   : 
; 72   : 	return dynamic_cast< ioGrowthNormalUpInfo* >( pUpInfo );

  0002a	6a 00		 push	 0
  0002c	68 00 00 00 00	 push	 OFFSET ??_R0?AVioGrowthNormalUpInfo@@@8
  00031	68 00 00 00 00	 push	 OFFSET ??_R0?AVioGrowthUpInfo@@@8
  00036	6a 00		 push	 0
  00038	51		 push	 ecx
  00039	e8 00 00 00 00	 call	 ___RTDynamicCast
  0003e	83 c4 14	 add	 esp, 20			; 00000014H

; 73   : }

  00041	5d		 pop	 ebp
  00042	c3		 ret	 0
$LN6@ToNormalUp:

; 61   : 		return NULL;

  00043	33 c0		 xor	 eax, eax

; 73   : }

  00045	5d		 pop	 ebp
  00046	c3		 ret	 0
?ToNormalUpInfo@@YAPAVioGrowthNormalUpInfo@@PAVioGrowthUpInfo@@@Z ENDP ; ToNormalUpInfo
_TEXT	ENDS
PUBLIC	?_Adopt@_Iterator_base0@std@@QAEXPBX@Z		; std::_Iterator_base0::_Adopt
; Function compile flags: /Ogsp
; File c:\program files (x86)\microsoft visual studio 10.0\vc\include\xutility
;	COMDAT ?_Adopt@_Iterator_base0@std@@QAEXPBX@Z
_TEXT	SEGMENT
___formal$ = 8						; size = 4
?_Adopt@_Iterator_base0@std@@QAEXPBX@Z PROC		; std::_Iterator_base0::_Adopt, COMDAT
; _this$ = ecx

; 49   : 		}

  00000	c2 04 00	 ret	 4
?_Adopt@_Iterator_base0@std@@QAEXPBX@Z ENDP		; std::_Iterator_base0::_Adopt
_TEXT	ENDS
PUBLIC	??_R0?AVioWeapon@@@8				; ioWeapon `RTTI Type Descriptor'
PUBLIC	??_R0?AVioSelectPositionMoveWeapon@@@8		; ioSelectPositionMoveWeapon `RTTI Type Descriptor'
PUBLIC	?ToSelectPositionMoveWeapon@@YAPAVioSelectPositionMoveWeapon@@PAVioWeapon@@@Z ; ToSelectPositionMoveWeapon
;	COMDAT ??_R0?AVioWeapon@@@8
; File d:\lost saga for developer\youtube\tutorial\source\src\lsclient\ioselectpositionmoveweapon.h
_DATA	SEGMENT
??_R0?AVioWeapon@@@8 DD FLAT:??_7type_info@@6B@		; ioWeapon `RTTI Type Descriptor'
	DD	00H
	DB	'.?AVioWeapon@@', 00H
_DATA	ENDS
;	COMDAT ??_R0?AVioSelectPositionMoveWeapon@@@8
_DATA	SEGMENT
??_R0?AVioSelectPositionMoveWeapon@@@8 DD FLAT:??_7type_info@@6B@ ; ioSelectPositionMoveWeapon `RTTI Type Descriptor'
	DD	00H
	DB	'.?AVioSelectPositionMoveWeapon@@', 00H
; Function compile flags: /Ogsp
_DATA	ENDS
;	COMDAT ?ToSelectPositionMoveWeapon@@YAPAVioSelectPositionMoveWeapon@@PAVioWeapon@@@Z
_TEXT	SEGMENT
_pWeapon$ = 8						; size = 4
?ToSelectPositionMoveWeapon@@YAPAVioSelectPositionMoveWeapon@@PAVioWeapon@@@Z PROC ; ToSelectPositionMoveWeapon, COMDAT

; 132  : {

  00000	55		 push	 ebp
  00001	8b ec		 mov	 ebp, esp
  00003	56		 push	 esi

; 133  : 	if( !pWeapon || pWeapon->GetType() != ioWeapon::WT_SELECT_POSITION_MOVE )

  00004	8b 75 08	 mov	 esi, DWORD PTR _pWeapon$[ebp]
  00007	85 f6		 test	 esi, esi
  00009	74 28		 je	 SHORT $LN1@ToSelectPo
  0000b	8b 06		 mov	 eax, DWORD PTR [esi]
  0000d	8b ce		 mov	 ecx, esi
  0000f	ff 90 10 01 00
	00		 call	 DWORD PTR [eax+272]
  00015	83 f8 48	 cmp	 eax, 72			; 00000048H
  00018	75 19		 jne	 SHORT $LN1@ToSelectPo

; 135  : 
; 136  : 	return dynamic_cast< ioSelectPositionMoveWeapon* >( pWeapon );

  0001a	6a 00		 push	 0
  0001c	68 00 00 00 00	 push	 OFFSET ??_R0?AVioSelectPositionMoveWeapon@@@8
  00021	68 00 00 00 00	 push	 OFFSET ??_R0?AVioWeapon@@@8
  00026	6a 00		 push	 0
  00028	56		 push	 esi
  00029	e8 00 00 00 00	 call	 ___RTDynamicCast
  0002e	83 c4 14	 add	 esp, 20			; 00000014H
  00031	eb 02		 jmp	 SHORT $LN3@ToSelectPo
$LN1@ToSelectPo:

; 134  : 		return NULL;

  00033	33 c0		 xor	 eax, eax
$LN3@ToSelectPo:
  00035	5e		 pop	 esi

; 137  : }

  00036	5d		 pop	 ebp
  00037	c3		 ret	 0
?ToSelectPositionMoveWeapon@@YAPAVioSelectPositionMoveWeapon@@PAVioWeapon@@@Z ENDP ; ToSelectPositionMoveWeapon
_TEXT	ENDS
PUBLIC	__real@00000000
PUBLIC	?IsSkillMotionEnd@ioMultiLightAttack@@UBE_NKPAVioBaseChar@@@Z ; ioMultiLightAttack::IsSkillMotionEnd
EXTRN	__fltused:DWORD
;	COMDAT __real@00000000
; File d:\lost saga for developer\youtube\tutorial\source\src\lsclient\iomultilightattack.cpp
CONST	SEGMENT
__real@00000000 DD 000000000r			; 0
; Function compile flags: /Ogsp
CONST	ENDS
;	COMDAT ?IsSkillMotionEnd@ioMultiLightAttack@@UBE_NKPAVioBaseChar@@@Z
_TEXT	SEGMENT
_dwActionStop$ = 8					; size = 4
_pOwner$ = 12						; size = 4
?IsSkillMotionEnd@ioMultiLightAttack@@UBE_NKPAVioBaseChar@@@Z PROC ; ioMultiLightAttack::IsSkillMotionEnd, COMDAT
; _this$ = ecx

; 549  : 	if( m_dwPreDelayStartTime > 0 )

  00000	83 b9 20 02 00
	00 00		 cmp	 DWORD PTR [ecx+544], 0
  00007	76 04		 jbe	 SHORT $LN7@IsSkillMot
$LN4@IsSkillMot:

; 550  : 		return false;

  00009	32 c0		 xor	 al, al
  0000b	eb 2b		 jmp	 SHORT $LN8@IsSkillMot
$LN7@IsSkillMot:

; 551  : 
; 552  : 	switch( m_State )

  0000d	8b 81 e4 10 00
	00		 mov	 eax, DWORD PTR [ecx+4324]
  00013	85 c0		 test	 eax, eax
  00015	78 1f		 js	 SHORT $LN1@IsSkillMot
  00017	83 f8 04	 cmp	 eax, 4
  0001a	7e ed		 jle	 SHORT $LN4@IsSkillMot
  0001c	83 f8 05	 cmp	 eax, 5
  0001f	75 15		 jne	 SHORT $LN1@IsSkillMot

; 553  : 	{
; 554  : 	case SS_PRE:
; 555  : 	case SS_ACTION:
; 556  : 	case SS_LOOP:
; 557  : 	case SS_WEAPON_PULL:
; 558  : 	case SS_TELEPORT:
; 559  : 		return false;
; 560  : 	case SS_END:
; 561  : 		if( m_fSkillEndNextJumpAmt == 0.0f )

  00021	f3 0f 10 81 4c
	05 00 00	 movss	 xmm0, DWORD PTR [ecx+1356]
  00029	0f 2e 05 00 00
	00 00		 ucomiss xmm0, DWORD PTR __real@00000000
  00030	9f		 lahf
  00031	f6 c4 44	 test	 ah, 68			; 00000044H

; 562  : 			return true;
; 563  : 		else 
; 564  : 			return false;		

  00034	7a d3		 jp	 SHORT $LN4@IsSkillMot
$LN1@IsSkillMot:

; 565  : 	}
; 566  : 	return true;

  00036	b0 01		 mov	 al, 1
$LN8@IsSkillMot:

; 567  : }

  00038	c2 08 00	 ret	 8
?IsSkillMotionEnd@ioMultiLightAttack@@UBE_NKPAVioBaseChar@@@Z ENDP ; ioMultiLightAttack::IsSkillMotionEnd
_TEXT	ENDS
PUBLIC	?IsAttackEndState@ioMultiLightAttack@@UBE_NXZ	; ioMultiLightAttack::IsAttackEndState
; Function compile flags: /Ogsp
;	COMDAT ?IsAttackEndState@ioMultiLightAttack@@UBE_NXZ
_TEXT	SEGMENT
?IsAttackEndState@ioMultiLightAttack@@UBE_NXZ PROC	; ioMultiLightAttack::IsAttackEndState, COMDAT
; _this$ = ecx

; 571  : 	if( m_State == SS_END )

  00000	83 b9 e4 10 00
	00 05		 cmp	 DWORD PTR [ecx+4324], 5
  00007	0f 94 c0	 sete	 al

; 572  : 		return true;
; 573  : 
; 574  : 	return false;
; 575  : }

  0000a	c3		 ret	 0
?IsAttackEndState@ioMultiLightAttack@@UBE_NXZ ENDP	; ioMultiLightAttack::IsAttackEndState
_TEXT	ENDS
PUBLIC	?CheckUseItemMesh@ioMultiLightAttack@@UAE_NXZ	; ioMultiLightAttack::CheckUseItemMesh
; Function compile flags: /Ogsp
;	COMDAT ?CheckUseItemMesh@ioMultiLightAttack@@UAE_NXZ
_TEXT	SEGMENT
?CheckUseItemMesh@ioMultiLightAttack@@UAE_NXZ PROC	; ioMultiLightAttack::CheckUseItemMesh, COMDAT
; _this$ = ecx

; 579  : 	return m_bUseItemMesh;

  00000	8a 81 08 0f 00
	00		 mov	 al, BYTE PTR [ecx+3848]

; 580  : }

  00006	c3		 ret	 0
?CheckUseItemMesh@ioMultiLightAttack@@UAE_NXZ ENDP	; ioMultiLightAttack::CheckUseItemMesh
_TEXT	ENDS
PUBLIC	?IsNoDropState@ioMultiLightAttack@@UBE_NXZ	; ioMultiLightAttack::IsNoDropState
; Function compile flags: /Ogsp
;	COMDAT ?IsNoDropState@ioMultiLightAttack@@UBE_NXZ
_TEXT	SEGMENT
?IsNoDropState@ioMultiLightAttack@@UBE_NXZ PROC		; ioMultiLightAttack::IsNoDropState, COMDAT
; _this$ = ecx

; 631  : 	return true;

  00000	b0 01		 mov	 al, 1

; 632  : }

  00002	c3		 ret	 0
?IsNoDropState@ioMultiLightAttack@@UBE_NXZ ENDP		; ioMultiLightAttack::IsNoDropState
_TEXT	ENDS
PUBLIC	??A?$vector@MV?$allocator@M@std@@@std@@QAEAAMI@Z ; std::vector<float,std::allocator<float> >::operator[]
; Function compile flags: /Ogsp
; File c:\program files (x86)\microsoft visual studio 10.0\vc\include\vector
;	COMDAT ??A?$vector@MV?$allocator@M@std@@@std@@QAEAAMI@Z
_TEXT	SEGMENT
__Pos$ = 8						; size = 4
??A?$vector@MV?$allocator@M@std@@@std@@QAEAAMI@Z PROC	; std::vector<float,std::allocator<float> >::operator[], COMDAT
; _this$ = ecx

; 928  : 		{	// subscript mutable sequence

  00000	55		 push	 ebp
  00001	8b ec		 mov	 ebp, esp

; 929  :  #if _ITERATOR_DEBUG_LEVEL == 2
; 930  : 		if (size() <= _Pos)
; 931  : 			{	// report error
; 932  : 			_DEBUG_ERROR("vector subscript out of range");
; 933  : 			_SCL_SECURE_OUT_OF_RANGE;
; 934  : 			}
; 935  : 
; 936  :  #elif _ITERATOR_DEBUG_LEVEL == 1
; 937  : 		_SCL_SECURE_VALIDATE_RANGE(_Pos < size());
; 938  :  #endif /* _ITERATOR_DEBUG_LEVEL */
; 939  : 
; 940  : 		return (*(this->_Myfirst + _Pos));

  00003	8b 01		 mov	 eax, DWORD PTR [ecx]
  00005	8b 4d 08	 mov	 ecx, DWORD PTR __Pos$[ebp]
  00008	8d 04 88	 lea	 eax, DWORD PTR [eax+ecx*4]

; 941  : 		}

  0000b	5d		 pop	 ebp
  0000c	c2 04 00	 ret	 4
??A?$vector@MV?$allocator@M@std@@@std@@QAEAAMI@Z ENDP	; std::vector<float,std::allocator<float> >::operator[]
_TEXT	ENDS
PUBLIC	?empty@?$vector@UBuffInfoStruct@@V?$allocator@UBuffInfoStruct@@@std@@@std@@QBE_NXZ ; std::vector<BuffInfoStruct,std::allocator<BuffInfoStruct> >::empty
; Function compile flags: /Ogsp
;	COMDAT ?empty@?$vector@UBuffInfoStruct@@V?$allocator@UBuffInfoStruct@@@std@@@std@@QBE_NXZ
_TEXT	SEGMENT
?empty@?$vector@UBuffInfoStruct@@V?$allocator@UBuffInfoStruct@@@std@@@std@@QBE_NXZ PROC ; std::vector<BuffInfoStruct,std::allocator<BuffInfoStruct> >::empty, COMDAT
; _this$ = ecx

; 889  : 		return (this->_Myfirst == this->_Mylast);

  00000	8b 01		 mov	 eax, DWORD PTR [ecx]
  00002	2b 41 04	 sub	 eax, DWORD PTR [ecx+4]
  00005	f7 d8		 neg	 eax
  00007	1b c0		 sbb	 eax, eax
  00009	40		 inc	 eax

; 890  : 		}

  0000a	c3		 ret	 0
?empty@?$vector@UBuffInfoStruct@@V?$allocator@UBuffInfoStruct@@@std@@@std@@QBE_NXZ ENDP ; std::vector<BuffInfoStruct,std::allocator<BuffInfoStruct> >::empty
_TEXT	ENDS
PUBLIC	??A?$vector@UBuffInfoStruct@@V?$allocator@UBuffInfoStruct@@@std@@@std@@QAEAAUBuffInfoStruct@@I@Z ; std::vector<BuffInfoStruct,std::allocator<BuffInfoStruct> >::operator[]
; Function compile flags: /Ogsp
;	COMDAT ??A?$vector@UBuffInfoStruct@@V?$allocator@UBuffInfoStruct@@@std@@@std@@QAEAAUBuffInfoStruct@@I@Z
_TEXT	SEGMENT
__Pos$ = 8						; size = 4
??A?$vector@UBuffInfoStruct@@V?$allocator@UBuffInfoStruct@@@std@@@std@@QAEAAUBuffInfoStruct@@I@Z PROC ; std::vector<BuffInfoStruct,std::allocator<BuffInfoStruct> >::operator[], COMDAT
; _this$ = ecx

; 928  : 		{	// subscript mutable sequence

  00000	55		 push	 ebp
  00001	8b ec		 mov	 ebp, esp

; 929  :  #if _ITERATOR_DEBUG_LEVEL == 2
; 930  : 		if (size() <= _Pos)
; 931  : 			{	// report error
; 932  : 			_DEBUG_ERROR("vector subscript out of range");
; 933  : 			_SCL_SECURE_OUT_OF_RANGE;
; 934  : 			}
; 935  : 
; 936  :  #elif _ITERATOR_DEBUG_LEVEL == 1
; 937  : 		_SCL_SECURE_VALIDATE_RANGE(_Pos < size());
; 938  :  #endif /* _ITERATOR_DEBUG_LEVEL */
; 939  : 
; 940  : 		return (*(this->_Myfirst + _Pos));

  00003	8b 45 08	 mov	 eax, DWORD PTR __Pos$[ebp]
  00006	6b c0 14	 imul	 eax, 20			; 00000014H
  00009	03 01		 add	 eax, DWORD PTR [ecx]

; 941  : 		}

  0000b	5d		 pop	 ebp
  0000c	c2 04 00	 ret	 4
??A?$vector@UBuffInfoStruct@@V?$allocator@UBuffInfoStruct@@@std@@@std@@QAEAAUBuffInfoStruct@@I@Z ENDP ; std::vector<BuffInfoStruct,std::allocator<BuffInfoStruct> >::operator[]
_TEXT	ENDS
PUBLIC	?size@?$vector@MV?$allocator@M@std@@@std@@QBEIXZ ; std::vector<float,std::allocator<float> >::size
; Function compile flags: /Ogsp
;	COMDAT ?size@?$vector@MV?$allocator@M@std@@@std@@QBEIXZ
_TEXT	SEGMENT
?size@?$vector@MV?$allocator@M@std@@@std@@QBEIXZ PROC	; std::vector<float,std::allocator<float> >::size, COMDAT
; _this$ = ecx

; 879  : 		return (this->_Mylast - this->_Myfirst);

  00000	8b 41 04	 mov	 eax, DWORD PTR [ecx+4]
  00003	2b 01		 sub	 eax, DWORD PTR [ecx]
  00005	c1 f8 02	 sar	 eax, 2

; 880  : 		}

  00008	c3		 ret	 0
?size@?$vector@MV?$allocator@M@std@@@std@@QBEIXZ ENDP	; std::vector<float,std::allocator<float> >::size
_TEXT	ENDS
PUBLIC	?_Inside@?$vector@MV?$allocator@M@std@@@std@@IBE_NPBM@Z ; std::vector<float,std::allocator<float> >::_Inside
; Function compile flags: /Ogsp
;	COMDAT ?_Inside@?$vector@MV?$allocator@M@std@@@std@@IBE_NPBM@Z
_TEXT	SEGMENT
__Ptr$ = 8						; size = 4
?_Inside@?$vector@MV?$allocator@M@std@@@std@@IBE_NPBM@Z PROC ; std::vector<float,std::allocator<float> >::_Inside, COMDAT
; _this$ = ecx

; 1285 : 		{	// test if _Ptr points inside vector

  00000	55		 push	 ebp
  00001	8b ec		 mov	 ebp, esp

; 1286 : 		return (_Ptr < this->_Mylast && this->_Myfirst <= _Ptr);

  00003	8b 45 08	 mov	 eax, DWORD PTR __Ptr$[ebp]
  00006	3b 41 04	 cmp	 eax, DWORD PTR [ecx+4]
  00009	73 09		 jae	 SHORT $LN3@Inside
  0000b	39 01		 cmp	 DWORD PTR [ecx], eax
  0000d	77 05		 ja	 SHORT $LN3@Inside
  0000f	33 c0		 xor	 eax, eax
  00011	40		 inc	 eax
  00012	eb 02		 jmp	 SHORT $LN4@Inside
$LN3@Inside:
  00014	33 c0		 xor	 eax, eax
$LN4@Inside:

; 1287 : 		}

  00016	5d		 pop	 ebp
  00017	c2 04 00	 ret	 4
?_Inside@?$vector@MV?$allocator@M@std@@@std@@IBE_NPBM@Z ENDP ; std::vector<float,std::allocator<float> >::_Inside
_TEXT	ENDS
PUBLIC	?_Orphan_range@?$vector@MV?$allocator@M@std@@@std@@IBEXPAM0@Z ; std::vector<float,std::allocator<float> >::_Orphan_range
; Function compile flags: /Ogsp
;	COMDAT ?_Orphan_range@?$vector@MV?$allocator@M@std@@@std@@IBEXPAM0@Z
_TEXT	SEGMENT
___formal$ = 8						; size = 4
___formal$ = 12						; size = 4
?_Orphan_range@?$vector@MV?$allocator@M@std@@@std@@IBEXPAM0@Z PROC ; std::vector<float,std::allocator<float> >::_Orphan_range, COMDAT
; _this$ = ecx

; 1454 : 		}

  00000	c2 08 00	 ret	 8
?_Orphan_range@?$vector@MV?$allocator@M@std@@@std@@IBEXPAM0@Z ENDP ; std::vector<float,std::allocator<float> >::_Orphan_range
_TEXT	ENDS
PUBLIC	?_Inside@?$vector@UBuffInfoStruct@@V?$allocator@UBuffInfoStruct@@@std@@@std@@IBE_NPBUBuffInfoStruct@@@Z ; std::vector<BuffInfoStruct,std::allocator<BuffInfoStruct> >::_Inside
; Function compile flags: /Ogsp
;	COMDAT ?_Inside@?$vector@UBuffInfoStruct@@V?$allocator@UBuffInfoStruct@@@std@@@std@@IBE_NPBUBuffInfoStruct@@@Z
_TEXT	SEGMENT
__Ptr$ = 8						; size = 4
?_Inside@?$vector@UBuffInfoStruct@@V?$allocator@UBuffInfoStruct@@@std@@@std@@IBE_NPBUBuffInfoStruct@@@Z PROC ; std::vector<BuffInfoStruct,std::allocator<BuffInfoStruct> >::_Inside, COMDAT
; _this$ = ecx

; 1285 : 		{	// test if _Ptr points inside vector

  00000	55		 push	 ebp
  00001	8b ec		 mov	 ebp, esp

; 1286 : 		return (_Ptr < this->_Mylast && this->_Myfirst <= _Ptr);

  00003	8b 45 08	 mov	 eax, DWORD PTR __Ptr$[ebp]
  00006	3b 41 04	 cmp	 eax, DWORD PTR [ecx+4]
  00009	73 09		 jae	 SHORT $LN3@Inside@2
  0000b	39 01		 cmp	 DWORD PTR [ecx], eax
  0000d	77 05		 ja	 SHORT $LN3@Inside@2
  0000f	33 c0		 xor	 eax, eax
  00011	40		 inc	 eax
  00012	eb 02		 jmp	 SHORT $LN4@Inside@2
$LN3@Inside@2:
  00014	33 c0		 xor	 eax, eax
$LN4@Inside@2:

; 1287 : 		}

  00016	5d		 pop	 ebp
  00017	c2 04 00	 ret	 4
?_Inside@?$vector@UBuffInfoStruct@@V?$allocator@UBuffInfoStruct@@@std@@@std@@IBE_NPBUBuffInfoStruct@@@Z ENDP ; std::vector<BuffInfoStruct,std::allocator<BuffInfoStruct> >::_Inside
_TEXT	ENDS
PUBLIC	?_Orphan_range@?$vector@UBuffInfoStruct@@V?$allocator@UBuffInfoStruct@@@std@@@std@@IBEXPAUBuffInfoStruct@@0@Z ; std::vector<BuffInfoStruct,std::allocator<BuffInfoStruct> >::_Orphan_range
; Function compile flags: /Ogsp
;	COMDAT ?_Orphan_range@?$vector@UBuffInfoStruct@@V?$allocator@UBuffInfoStruct@@@std@@@std@@IBEXPAUBuffInfoStruct@@0@Z
_TEXT	SEGMENT
___formal$ = 8						; size = 4
___formal$ = 12						; size = 4
?_Orphan_range@?$vector@UBuffInfoStruct@@V?$allocator@UBuffInfoStruct@@@std@@@std@@IBEXPAUBuffInfoStruct@@0@Z PROC ; std::vector<BuffInfoStruct,std::allocator<BuffInfoStruct> >::_Orphan_range, COMDAT
; _this$ = ecx

; 1454 : 		}

  00000	c2 08 00	 ret	 8
?_Orphan_range@?$vector@UBuffInfoStruct@@V?$allocator@UBuffInfoStruct@@@std@@@std@@IBEXPAUBuffInfoStruct@@0@Z ENDP ; std::vector<BuffInfoStruct,std::allocator<BuffInfoStruct> >::_Orphan_range
_TEXT	ENDS
PUBLIC	??0?$_Vector_const_iterator@V?$_Vector_val@KV?$allocator@K@std@@@std@@@std@@QAE@XZ ; std::_Vector_const_iterator<std::_Vector_val<unsigned long,std::allocator<unsigned long> > >::_Vector_const_iterator<std::_Vector_val<unsigned long,std::allocator<unsigned long> > >
; Function compile flags: /Ogsp
;	COMDAT ??0?$_Vector_const_iterator@V?$_Vector_val@KV?$allocator@K@std@@@std@@@std@@QAE@XZ
_TEXT	SEGMENT
??0?$_Vector_const_iterator@V?$_Vector_val@KV?$allocator@K@std@@@std@@@std@@QAE@XZ PROC ; std::_Vector_const_iterator<std::_Vector_val<unsigned long,std::allocator<unsigned long> > >::_Vector_const_iterator<std::_Vector_val<unsigned long,std::allocator<unsigned long> > >, COMDAT
; _this$ = ecx

; 40   : 		{	// construct with null pointer

  00000	8b c1		 mov	 eax, ecx
  00002	83 20 00	 and	 DWORD PTR [eax], 0

; 41   : 		}

  00005	c3		 ret	 0
??0?$_Vector_const_iterator@V?$_Vector_val@KV?$allocator@K@std@@@std@@@std@@QAE@XZ ENDP ; std::_Vector_const_iterator<std::_Vector_val<unsigned long,std::allocator<unsigned long> > >::_Vector_const_iterator<std::_Vector_val<unsigned long,std::allocator<unsigned long> > >
_TEXT	ENDS
PUBLIC	??D?$_Vector_const_iterator@V?$_Vector_val@KV?$allocator@K@std@@@std@@@std@@QBEABKXZ ; std::_Vector_const_iterator<std::_Vector_val<unsigned long,std::allocator<unsigned long> > >::operator*
; Function compile flags: /Ogsp
;	COMDAT ??D?$_Vector_const_iterator@V?$_Vector_val@KV?$allocator@K@std@@@std@@@std@@QBEABKXZ
_TEXT	SEGMENT
??D?$_Vector_const_iterator@V?$_Vector_val@KV?$allocator@K@std@@@std@@@std@@QBEABKXZ PROC ; std::_Vector_const_iterator<std::_Vector_val<unsigned long,std::allocator<unsigned long> > >::operator*, COMDAT
; _this$ = ecx

; 64   :  #if _ITERATOR_DEBUG_LEVEL == 2
; 65   : 		if (this->_Getcont() == 0
; 66   : 			|| this->_Ptr == 0
; 67   : 			|| this->_Ptr < ((_Myvec *)this->_Getcont())->_Myfirst
; 68   : 			|| ((_Myvec *)this->_Getcont())->_Mylast <= this->_Ptr)
; 69   : 			{	// report error
; 70   : 			_DEBUG_ERROR("vector iterator not dereferencable");
; 71   : 			_SCL_SECURE_OUT_OF_RANGE;
; 72   : 			}
; 73   : 
; 74   :  #elif _ITERATOR_DEBUG_LEVEL == 1
; 75   : 		_SCL_SECURE_VALIDATE(this->_Getcont() != 0);
; 76   : 		_SCL_SECURE_VALIDATE_RANGE(
; 77   : 			this->_Ptr != 0
; 78   : 			&& ((_Myvec *)this->_Getcont())->_Myfirst <= this->_Ptr
; 79   : 			&& this->_Ptr < ((_Myvec *)this->_Getcont())->_Mylast);
; 80   :  #endif /* _ITERATOR_DEBUG_LEVEL */
; 81   : 
; 82   : 		__analysis_assume(this->_Ptr != 0);
; 83   : 
; 84   : 		return (*this->_Ptr);

  00000	8b 01		 mov	 eax, DWORD PTR [ecx]

; 85   : 		}

  00002	c3		 ret	 0
??D?$_Vector_const_iterator@V?$_Vector_val@KV?$allocator@K@std@@@std@@@std@@QBEABKXZ ENDP ; std::_Vector_const_iterator<std::_Vector_val<unsigned long,std::allocator<unsigned long> > >::operator*
_TEXT	ENDS
PUBLIC	??E?$_Vector_const_iterator@V?$_Vector_val@KV?$allocator@K@std@@@std@@@std@@QAEAAV01@XZ ; std::_Vector_const_iterator<std::_Vector_val<unsigned long,std::allocator<unsigned long> > >::operator++
; Function compile flags: /Ogsp
;	COMDAT ??E?$_Vector_const_iterator@V?$_Vector_val@KV?$allocator@K@std@@@std@@@std@@QAEAAV01@XZ
_TEXT	SEGMENT
??E?$_Vector_const_iterator@V?$_Vector_val@KV?$allocator@K@std@@@std@@@std@@QAEAAV01@XZ PROC ; std::_Vector_const_iterator<std::_Vector_val<unsigned long,std::allocator<unsigned long> > >::operator++, COMDAT
; _this$ = ecx

; 93   : 		{	// preincrement

  00000	8b c1		 mov	 eax, ecx

; 94   :  #if _ITERATOR_DEBUG_LEVEL == 2
; 95   : 		if (this->_Getcont() == 0
; 96   : 			|| this->_Ptr == 0
; 97   : 			|| ((_Myvec *)this->_Getcont())->_Mylast <= this->_Ptr)
; 98   : 			{	// report error
; 99   : 			_DEBUG_ERROR("vector iterator not incrementable");
; 100  : 			_SCL_SECURE_OUT_OF_RANGE;
; 101  : 			}
; 102  : 
; 103  :  #elif _ITERATOR_DEBUG_LEVEL == 1
; 104  : 		_SCL_SECURE_VALIDATE(this->_Getcont() != 0);
; 105  : 		_SCL_SECURE_VALIDATE_RANGE(
; 106  : 			this->_Ptr != 0
; 107  : 			&& this->_Ptr < ((_Myvec *)this->_Getcont())->_Mylast);
; 108  :  #endif /* _ITERATOR_DEBUG_LEVEL */
; 109  : 
; 110  : 		++this->_Ptr;

  00002	83 00 04	 add	 DWORD PTR [eax], 4

; 111  : 		return (*this);
; 112  : 		}

  00005	c3		 ret	 0
??E?$_Vector_const_iterator@V?$_Vector_val@KV?$allocator@K@std@@@std@@@std@@QAEAAV01@XZ ENDP ; std::_Vector_const_iterator<std::_Vector_val<unsigned long,std::allocator<unsigned long> > >::operator++
_TEXT	ENDS
PUBLIC	?capacity@?$vector@MV?$allocator@M@std@@@std@@QBEIXZ ; std::vector<float,std::allocator<float> >::capacity
; Function compile flags: /Ogsp
;	COMDAT ?capacity@?$vector@MV?$allocator@M@std@@@std@@QBEIXZ
_TEXT	SEGMENT
?capacity@?$vector@MV?$allocator@M@std@@@std@@QBEIXZ PROC ; std::vector<float,std::allocator<float> >::capacity, COMDAT
; _this$ = ecx

; 777  : 		return (this->_Myend - this->_Myfirst);

  00000	8b 41 08	 mov	 eax, DWORD PTR [ecx+8]
  00003	2b 01		 sub	 eax, DWORD PTR [ecx]
  00005	c1 f8 02	 sar	 eax, 2

; 778  : 		}

  00008	c3		 ret	 0
?capacity@?$vector@MV?$allocator@M@std@@@std@@QBEIXZ ENDP ; std::vector<float,std::allocator<float> >::capacity
_TEXT	ENDS
PUBLIC	??_C@_0BD@OLBABOEK@vector?$DMT?$DO?5too?5long?$AA@ ; `string'
PUBLIC	?_Xlen@?$vector@MV?$allocator@M@std@@@std@@IBEXXZ ; std::vector<float,std::allocator<float> >::_Xlen
EXTRN	__imp_?_Xlength_error@std@@YAXPBD@Z:PROC
;	COMDAT ??_C@_0BD@OLBABOEK@vector?$DMT?$DO?5too?5long?$AA@
CONST	SEGMENT
??_C@_0BD@OLBABOEK@vector?$DMT?$DO?5too?5long?$AA@ DB 'vector<T> too long'
	DB	00H						; `string'
; Function compile flags: /Ogsp
CONST	ENDS
;	COMDAT ?_Xlen@?$vector@MV?$allocator@M@std@@@std@@IBEXXZ
_TEXT	SEGMENT
?_Xlen@?$vector@MV?$allocator@M@std@@@std@@IBEXXZ PROC	; std::vector<float,std::allocator<float> >::_Xlen, COMDAT
; _this$ = ecx

; 1427 : 		_Xlength_error("vector<T> too long");

  00000	68 00 00 00 00	 push	 OFFSET ??_C@_0BD@OLBABOEK@vector?$DMT?$DO?5too?5long?$AA@
  00005	ff 15 00 00 00
	00		 call	 DWORD PTR __imp_?_Xlength_error@std@@YAXPBD@Z
$LN4@Xlen:
$LN3@Xlen:
  0000b	cc		 int	 3
?_Xlen@?$vector@MV?$allocator@M@std@@@std@@IBEXXZ ENDP	; std::vector<float,std::allocator<float> >::_Xlen
_TEXT	ENDS
PUBLIC	?max_size@?$allocator@M@std@@QBEIXZ		; std::allocator<float>::max_size
; Function compile flags: /Ogsp
; File c:\program files (x86)\microsoft visual studio 10.0\vc\include\xmemory
;	COMDAT ?max_size@?$allocator@M@std@@QBEIXZ
_TEXT	SEGMENT
?max_size@?$allocator@M@std@@QBEIXZ PROC		; std::allocator<float>::max_size, COMDAT
; _this$ = ecx

; 218  : 		_SIZT _Count = (_SIZT)(-1) / sizeof (_Ty);
; 219  : 		return (0 < _Count ? _Count : 1);

  00000	b8 ff ff ff 3f	 mov	 eax, 1073741823		; 3fffffffH

; 220  : 		}

  00005	c3		 ret	 0
?max_size@?$allocator@M@std@@QBEIXZ ENDP		; std::allocator<float>::max_size
_TEXT	ENDS
PUBLIC	??0D3DXVECTOR3@@QAE@XZ				; D3DXVECTOR3::D3DXVECTOR3
; Function compile flags: /Ogsp
; File c:\program files (x86)\microsoft directx sdk (june 2010)\include\d3dx9math.h
;	COMDAT ??0D3DXVECTOR3@@QAE@XZ
_TEXT	SEGMENT
??0D3DXVECTOR3@@QAE@XZ PROC				; D3DXVECTOR3::D3DXVECTOR3, COMDAT
; _this$ = ecx

; 165  :     D3DXVECTOR3() {};

  00000	8b c1		 mov	 eax, ecx
  00002	c3		 ret	 0
??0D3DXVECTOR3@@QAE@XZ ENDP				; D3DXVECTOR3::D3DXVECTOR3
_TEXT	ENDS
PUBLIC	??0D3DXQUATERNION@@QAE@XZ			; D3DXQUATERNION::D3DXQUATERNION
; Function compile flags: /Ogsp
;	COMDAT ??0D3DXQUATERNION@@QAE@XZ
_TEXT	SEGMENT
??0D3DXQUATERNION@@QAE@XZ PROC				; D3DXQUATERNION::D3DXQUATERNION, COMDAT
; _this$ = ecx

; 429  :     D3DXQUATERNION() {}

  00000	8b c1		 mov	 eax, ecx
  00002	c3		 ret	 0
??0D3DXQUATERNION@@QAE@XZ ENDP				; D3DXQUATERNION::D3DXQUATERNION
_TEXT	ENDS
PUBLIC	??0D3DXVECTOR3@@QAE@MMM@Z			; D3DXVECTOR3::D3DXVECTOR3
; Function compile flags: /Ogsp
; File c:\program files (x86)\microsoft directx sdk (june 2010)\include\d3dx9math.inl
;	COMDAT ??0D3DXVECTOR3@@QAE@MMM@Z
_TEXT	SEGMENT
_fx$ = 8						; size = 4
_fy$ = 12						; size = 4
_fz$ = 16						; size = 4
??0D3DXVECTOR3@@QAE@MMM@Z PROC				; D3DXVECTOR3::D3DXVECTOR3, COMDAT
; _this$ = ecx

; 303  : {

  00000	55		 push	 ebp
  00001	8b ec		 mov	 ebp, esp

; 304  :     x = fx;

  00003	f3 0f 10 45 08	 movss	 xmm0, DWORD PTR _fx$[ebp]
  00008	8b c1		 mov	 eax, ecx
  0000a	f3 0f 11 00	 movss	 DWORD PTR [eax], xmm0

; 305  :     y = fy;

  0000e	f3 0f 10 45 0c	 movss	 xmm0, DWORD PTR _fy$[ebp]
  00013	f3 0f 11 40 04	 movss	 DWORD PTR [eax+4], xmm0

; 306  :     z = fz;

  00018	f3 0f 10 45 10	 movss	 xmm0, DWORD PTR _fz$[ebp]
  0001d	f3 0f 11 40 08	 movss	 DWORD PTR [eax+8], xmm0

; 307  : }

  00022	5d		 pop	 ebp
  00023	c2 0c 00	 ret	 12			; 0000000cH
??0D3DXVECTOR3@@QAE@MMM@Z ENDP				; D3DXVECTOR3::D3DXVECTOR3
_TEXT	ENDS
PUBLIC	__real@3f91df46a2526c7a
PUBLIC	??$DEGtoRAD@M@@YAMM@Z				; DEGtoRAD<float>
;	COMDAT __real@3f91df46a2526c7a
; File d:\lost saga for developer\youtube\tutorial\source\src\lsclient\veryoftenusedefine.h
CONST	SEGMENT
__real@3f91df46a2526c7a DQ 03f91df46a2526c7ar	; 0.0174533
; Function compile flags: /Ogsp
CONST	ENDS
;	COMDAT ??$DEGtoRAD@M@@YAMM@Z
_TEXT	SEGMENT
tv129 = 8						; size = 4
_val$ = 8						; size = 4
??$DEGtoRAD@M@@YAMM@Z PROC				; DEGtoRAD<float>, COMDAT

; 20   : type  DEGtoRAD (type val) {return (type) (val * 0.0174532925199);}

  00000	55		 push	 ebp
  00001	8b ec		 mov	 ebp, esp
  00003	d9 45 08	 fld	 DWORD PTR _val$[ebp]
  00006	dc 0d 00 00 00
	00		 fmul	 QWORD PTR __real@3f91df46a2526c7a
  0000c	d9 5d 08	 fstp	 DWORD PTR tv129[ebp]
  0000f	d9 45 08	 fld	 DWORD PTR tv129[ebp]
  00012	5d		 pop	 ebp
  00013	c3		 ret	 0
??$DEGtoRAD@M@@YAMM@Z ENDP				; DEGtoRAD<float>
_TEXT	ENDS
PUBLIC	??$addressof@$$CBM@std@@YAPBMABM@Z		; std::addressof<float const >
; Function compile flags: /Ogsp
; File c:\program files (x86)\microsoft visual studio 10.0\vc\include\xmemory
;	COMDAT ??$addressof@$$CBM@std@@YAPBMABM@Z
_TEXT	SEGMENT
__Val$ = 8						; size = 4
??$addressof@$$CBM@std@@YAPBMABM@Z PROC			; std::addressof<float const >, COMDAT

; 110  : 	{	// return address of _Val

  00000	55		 push	 ebp
  00001	8b ec		 mov	 ebp, esp

; 111  : 	return ((_Ty *) &(char&)_Val);

  00003	8b 45 08	 mov	 eax, DWORD PTR __Val$[ebp]

; 112  : 	}

  00006	5d		 pop	 ebp
  00007	c3		 ret	 0
??$addressof@$$CBM@std@@YAPBMABM@Z ENDP			; std::addressof<float const >
_TEXT	ENDS
PUBLIC	??$addressof@K@std@@YAPAKAAK@Z			; std::addressof<unsigned long>
; Function compile flags: /Ogsp
;	COMDAT ??$addressof@K@std@@YAPAKAAK@Z
_TEXT	SEGMENT
__Val$ = 8						; size = 4
??$addressof@K@std@@YAPAKAAK@Z PROC			; std::addressof<unsigned long>, COMDAT

; 110  : 	{	// return address of _Val

  00000	55		 push	 ebp
  00001	8b ec		 mov	 ebp, esp

; 111  : 	return ((_Ty *) &(char&)_Val);

  00003	8b 45 08	 mov	 eax, DWORD PTR __Val$[ebp]

; 112  : 	}

  00006	5d		 pop	 ebp
  00007	c3		 ret	 0
??$addressof@K@std@@YAPAKAAK@Z ENDP			; std::addressof<unsigned long>
_TEXT	ENDS
PUBLIC	??$forward@K@std@@YA$$QAKAAK@Z			; std::forward<unsigned long>
; Function compile flags: /Ogsp
; File c:\program files (x86)\microsoft visual studio 10.0\vc\include\utility
;	COMDAT ??$forward@K@std@@YA$$QAKAAK@Z
_TEXT	SEGMENT
__Arg$ = 8						; size = 4
??$forward@K@std@@YA$$QAKAAK@Z PROC			; std::forward<unsigned long>, COMDAT

; 78   : 	{	// forward _Arg, given explicitly specified type parameter

  00000	55		 push	 ebp
  00001	8b ec		 mov	 ebp, esp

; 79   : 	return ((_Ty&&)_Arg);

  00003	8b 45 08	 mov	 eax, DWORD PTR __Arg$[ebp]

; 80   : 	}

  00006	5d		 pop	 ebp
  00007	c3		 ret	 0
??$forward@K@std@@YA$$QAKAAK@Z ENDP			; std::forward<unsigned long>
_TEXT	ENDS
PUBLIC	??$addressof@$$CBUBuffInfoStruct@@@std@@YAPBUBuffInfoStruct@@ABU1@@Z ; std::addressof<BuffInfoStruct const >
; Function compile flags: /Ogsp
; File c:\program files (x86)\microsoft visual studio 10.0\vc\include\xmemory
;	COMDAT ??$addressof@$$CBUBuffInfoStruct@@@std@@YAPBUBuffInfoStruct@@ABU1@@Z
_TEXT	SEGMENT
__Val$ = 8						; size = 4
??$addressof@$$CBUBuffInfoStruct@@@std@@YAPBUBuffInfoStruct@@ABU1@@Z PROC ; std::addressof<BuffInfoStruct const >, COMDAT

; 110  : 	{	// return address of _Val

  00000	55		 push	 ebp
  00001	8b ec		 mov	 ebp, esp

; 111  : 	return ((_Ty *) &(char&)_Val);

  00003	8b 45 08	 mov	 eax, DWORD PTR __Val$[ebp]

; 112  : 	}

  00006	5d		 pop	 ebp
  00007	c3		 ret	 0
??$addressof@$$CBUBuffInfoStruct@@@std@@YAPBUBuffInfoStruct@@ABU1@@Z ENDP ; std::addressof<BuffInfoStruct const >
_TEXT	ENDS
PUBLIC	__TI2?AVbad_alloc@std@@
PUBLIC	??$_Allocate@M@std@@YAPAMIPAM@Z			; std::_Allocate<float>
PUBLIC	__CTA2?AVbad_alloc@std@@
PUBLIC	__CT??_R0?AVbad_alloc@std@@@8??0bad_alloc@std@@QAE@ABV01@@Z12
PUBLIC	??0bad_alloc@std@@QAE@ABV01@@Z			; std::bad_alloc::bad_alloc
PUBLIC	__CT??_R0?AVexception@std@@@8??0exception@std@@QAE@ABV01@@Z12
EXTRN	??2@YAPAXI@Z:PROC				; operator new
EXTRN	__CxxThrowException@8:PROC
EXTRN	??0exception@std@@QAE@ABV01@@Z:PROC		; std::exception::exception
;	COMDAT __CT??_R0?AVexception@std@@@8??0exception@std@@QAE@ABV01@@Z12
; File c:\program files (x86)\microsoft visual studio 10.0\vc\include\exception
xdata$x	SEGMENT
__CT??_R0?AVexception@std@@@8??0exception@std@@QAE@ABV01@@Z12 DD 00H
	DD	FLAT:??_R0?AVexception@std@@@8
	DD	00H
	DD	0ffffffffH
	ORG $+4
	DD	0cH
	DD	FLAT:??0exception@std@@QAE@ABV01@@Z
xdata$x	ENDS
;	COMDAT __CT??_R0?AVbad_alloc@std@@@8??0bad_alloc@std@@QAE@ABV01@@Z12
xdata$x	SEGMENT
__CT??_R0?AVbad_alloc@std@@@8??0bad_alloc@std@@QAE@ABV01@@Z12 DD 00H
	DD	FLAT:??_R0?AVbad_alloc@std@@@8
	DD	00H
	DD	0ffffffffH
	ORG $+4
	DD	0cH
	DD	FLAT:??0bad_alloc@std@@QAE@ABV01@@Z
xdata$x	ENDS
;	COMDAT __CTA2?AVbad_alloc@std@@
xdata$x	SEGMENT
__CTA2?AVbad_alloc@std@@ DD 02H
	DD	FLAT:__CT??_R0?AVbad_alloc@std@@@8??0bad_alloc@std@@QAE@ABV01@@Z12
	DD	FLAT:__CT??_R0?AVexception@std@@@8??0exception@std@@QAE@ABV01@@Z12
xdata$x	ENDS
;	COMDAT __TI2?AVbad_alloc@std@@
xdata$x	SEGMENT
__TI2?AVbad_alloc@std@@ DD 00H
	DD	FLAT:??1bad_alloc@std@@UAE@XZ
	DD	00H
	DD	FLAT:__CTA2?AVbad_alloc@std@@
; Function compile flags: /Ogsp
; File c:\program files (x86)\microsoft visual studio 10.0\vc\include\xmemory
xdata$x	ENDS
;	COMDAT ??$_Allocate@M@std@@YAPAMIPAM@Z
_TEXT	SEGMENT
$T553907 = -12						; size = 12
$T553912 = 8						; size = 4
__Count$ = 8						; size = 4
___formal$ = 12						; size = 4
??$_Allocate@M@std@@YAPAMIPAM@Z PROC			; std::_Allocate<float>, COMDAT

; 30   : 	{	// allocate storage for _Count elements of type _Ty

  00000	55		 push	 ebp
  00001	8b ec		 mov	 ebp, esp

; 31   : 	void *_Ptr = 0;
; 32   : 
; 33   : 	if (_Count <= 0)

  00003	8b 4d 08	 mov	 ecx, DWORD PTR __Count$[ebp]
  00006	83 ec 0c	 sub	 esp, 12			; 0000000cH
  00009	33 c0		 xor	 eax, eax
  0000b	85 c9		 test	 ecx, ecx

; 34   : 		_Count = 0;
; 35   : 	else if (((_SIZT)(-1) / sizeof (_Ty) < _Count)

  0000d	74 3e		 je	 SHORT $LN5@Allocate

; 36   : 		|| (_Ptr = ::operator new(_Count * sizeof (_Ty))) == 0)

  0000f	81 f9 ff ff ff
	3f		 cmp	 ecx, 1073741823		; 3fffffffH
  00015	77 10		 ja	 SHORT $LN1@Allocate
  00017	8b c1		 mov	 eax, ecx
  00019	c1 e0 02	 shl	 eax, 2
  0001c	50		 push	 eax
  0001d	e8 00 00 00 00	 call	 ??2@YAPAXI@Z		; operator new
  00022	59		 pop	 ecx
  00023	85 c0		 test	 eax, eax

; 38   : 
; 39   : 	return ((_Ty _FARQ *)_Ptr);

  00025	75 26		 jne	 SHORT $LN5@Allocate
$LN1@Allocate:

; 37   : 		_THROW_NCEE(bad_alloc, 0);

  00027	83 65 08 00	 and	 DWORD PTR $T553912[ebp], 0
  0002b	8d 45 08	 lea	 eax, DWORD PTR $T553912[ebp]
  0002e	50		 push	 eax
  0002f	8d 4d f4	 lea	 ecx, DWORD PTR $T553907[ebp]
  00032	ff 15 00 00 00
	00		 call	 DWORD PTR __imp_??0exception@std@@QAE@ABQBD@Z
  00038	68 00 00 00 00	 push	 OFFSET __TI2?AVbad_alloc@std@@
  0003d	8d 45 f4	 lea	 eax, DWORD PTR $T553907[ebp]
  00040	50		 push	 eax
  00041	c7 45 f4 00 00
	00 00		 mov	 DWORD PTR $T553907[ebp], OFFSET ??_7bad_alloc@std@@6B@
  00048	e8 00 00 00 00	 call	 __CxxThrowException@8
$LN10@Allocate:
$LN5@Allocate:

; 40   : 	}

  0004d	c9		 leave
  0004e	c3		 ret	 0
$LN9@Allocate:
??$_Allocate@M@std@@YAPAMIPAM@Z ENDP			; std::_Allocate<float>
_TEXT	ENDS
PUBLIC	?construct@?$allocator@K@std@@QAEXPAK$$QAK@Z	; std::allocator<unsigned long>::construct
; Function compile flags: /Ogsp
;	COMDAT ?construct@?$allocator@K@std@@QAEXPAK$$QAK@Z
_TEXT	SEGMENT
__Ptr$ = 8						; size = 4
__Val$ = 12						; size = 4
?construct@?$allocator@K@std@@QAEXPAK$$QAK@Z PROC	; std::allocator<unsigned long>::construct, COMDAT
; _this$ = ecx

; 201  : 		{	// construct object at _Ptr with value _Val

  00000	55		 push	 ebp
  00001	8b ec		 mov	 ebp, esp

; 202  : 		::new ((void _FARQ *)_Ptr) _Ty(_STD forward<_Ty>(_Val));

  00003	8b 45 08	 mov	 eax, DWORD PTR __Ptr$[ebp]
  00006	85 c0		 test	 eax, eax
  00008	74 07		 je	 SHORT $LN3@construct
  0000a	8b 4d 0c	 mov	 ecx, DWORD PTR __Val$[ebp]
  0000d	8b 09		 mov	 ecx, DWORD PTR [ecx]
  0000f	89 08		 mov	 DWORD PTR [eax], ecx
$LN3@construct:

; 203  : 		}

  00011	5d		 pop	 ebp
  00012	c2 08 00	 ret	 8
?construct@?$allocator@K@std@@QAEXPAK$$QAK@Z ENDP	; std::allocator<unsigned long>::construct
_TEXT	ENDS
PUBLIC	??$forward@AAM@std@@YAAAMAAM@Z			; std::forward<float &>
; Function compile flags: /Ogsp
; File c:\program files (x86)\microsoft visual studio 10.0\vc\include\utility
;	COMDAT ??$forward@AAM@std@@YAAAMAAM@Z
_TEXT	SEGMENT
__Arg$ = 8						; size = 4
??$forward@AAM@std@@YAAAMAAM@Z PROC			; std::forward<float &>, COMDAT

; 78   : 	{	// forward _Arg, given explicitly specified type parameter

  00000	55		 push	 ebp
  00001	8b ec		 mov	 ebp, esp

; 79   : 	return ((_Ty&&)_Arg);

  00003	8b 45 08	 mov	 eax, DWORD PTR __Arg$[ebp]

; 80   : 	}

  00006	5d		 pop	 ebp
  00007	c3		 ret	 0
??$forward@AAM@std@@YAAAMAAM@Z ENDP			; std::forward<float &>
_TEXT	ENDS
PUBLIC	??$construct@AAM@?$allocator@M@std@@QAEXPAMAAM@Z ; std::allocator<float>::construct<float &>
; Function compile flags: /Ogsp
; File c:\program files (x86)\microsoft visual studio 10.0\vc\include\xmemory
;	COMDAT ??$construct@AAM@?$allocator@M@std@@QAEXPAMAAM@Z
_TEXT	SEGMENT
__Ptr$ = 8						; size = 4
__Val$ = 12						; size = 4
??$construct@AAM@?$allocator@M@std@@QAEXPAMAAM@Z PROC	; std::allocator<float>::construct<float &>, COMDAT
; _this$ = ecx

; 206  : 		void construct(pointer _Ptr, _Other&& _Val)

  00000	55		 push	 ebp
  00001	8b ec		 mov	 ebp, esp

; 207  : 		{	// construct object at _Ptr with value _Val
; 208  : 		::new ((void _FARQ *)_Ptr) _Ty(_STD forward<_Other>(_Val));

  00003	8b 45 08	 mov	 eax, DWORD PTR __Ptr$[ebp]
  00006	85 c0		 test	 eax, eax
  00008	74 07		 je	 SHORT $LN3@construct@2
  0000a	8b 4d 0c	 mov	 ecx, DWORD PTR __Val$[ebp]
  0000d	d9 01		 fld	 DWORD PTR [ecx]
  0000f	d9 18		 fstp	 DWORD PTR [eax]
$LN3@construct@2:

; 209  : 		}

  00011	5d		 pop	 ebp
  00012	c2 08 00	 ret	 8
??$construct@AAM@?$allocator@M@std@@QAEXPAMAAM@Z ENDP	; std::allocator<float>::construct<float &>
_TEXT	ENDS
PUBLIC	??$forward@ABM@std@@YAABMABM@Z			; std::forward<float const &>
; Function compile flags: /Ogsp
; File c:\program files (x86)\microsoft visual studio 10.0\vc\include\utility
;	COMDAT ??$forward@ABM@std@@YAABMABM@Z
_TEXT	SEGMENT
__Arg$ = 8						; size = 4
??$forward@ABM@std@@YAABMABM@Z PROC			; std::forward<float const &>, COMDAT

; 78   : 	{	// forward _Arg, given explicitly specified type parameter

  00000	55		 push	 ebp
  00001	8b ec		 mov	 ebp, esp

; 79   : 	return ((_Ty&&)_Arg);

  00003	8b 45 08	 mov	 eax, DWORD PTR __Arg$[ebp]

; 80   : 	}

  00006	5d		 pop	 ebp
  00007	c3		 ret	 0
??$forward@ABM@std@@YAABMABM@Z ENDP			; std::forward<float const &>
_TEXT	ENDS
PUBLIC	??$forward@ABUBuffInfoStruct@@@std@@YAABUBuffInfoStruct@@ABU1@@Z ; std::forward<BuffInfoStruct const &>
; Function compile flags: /Ogsp
;	COMDAT ??$forward@ABUBuffInfoStruct@@@std@@YAABUBuffInfoStruct@@ABU1@@Z
_TEXT	SEGMENT
__Arg$ = 8						; size = 4
??$forward@ABUBuffInfoStruct@@@std@@YAABUBuffInfoStruct@@ABU1@@Z PROC ; std::forward<BuffInfoStruct const &>, COMDAT

; 78   : 	{	// forward _Arg, given explicitly specified type parameter

  00000	55		 push	 ebp
  00001	8b ec		 mov	 ebp, esp

; 79   : 	return ((_Ty&&)_Arg);

  00003	8b 45 08	 mov	 eax, DWORD PTR __Arg$[ebp]

; 80   : 	}

  00006	5d		 pop	 ebp
  00007	c3		 ret	 0
??$forward@ABUBuffInfoStruct@@@std@@YAABUBuffInfoStruct@@ABU1@@Z ENDP ; std::forward<BuffInfoStruct const &>
_TEXT	ENDS
PUBLIC	??$_Construct@MABM@std@@YAXPAMABM@Z		; std::_Construct<float,float const &>
; Function compile flags: /Ogsp
; File c:\program files (x86)\microsoft visual studio 10.0\vc\include\xmemory
;	COMDAT ??$_Construct@MABM@std@@YAXPAMABM@Z
_TEXT	SEGMENT
__Ptr$ = 8						; size = 4
__Val$ = 12						; size = 4
??$_Construct@MABM@std@@YAXPAMABM@Z PROC		; std::_Construct<float,float const &>, COMDAT

; 46   : 	{	// construct object at _Ptr with value _Val

  00000	55		 push	 ebp
  00001	8b ec		 mov	 ebp, esp

; 47   : 	void _FARQ *_Vptr = _Ptr;
; 48   : 	::new (_Vptr) _Ty1(_STD forward<_Ty2>(_Val));

  00003	8b 45 08	 mov	 eax, DWORD PTR __Ptr$[ebp]
  00006	85 c0		 test	 eax, eax
  00008	74 07		 je	 SHORT $LN3@Construct
  0000a	8b 4d 0c	 mov	 ecx, DWORD PTR __Val$[ebp]
  0000d	d9 01		 fld	 DWORD PTR [ecx]
  0000f	d9 18		 fstp	 DWORD PTR [eax]
$LN3@Construct:

; 49   : 	}

  00011	5d		 pop	 ebp
  00012	c3		 ret	 0
??$_Construct@MABM@std@@YAXPAMABM@Z ENDP		; std::_Construct<float,float const &>
_TEXT	ENDS
PUBLIC	??$_Ptr_cat@V?$_Vector_const_iterator@V?$_Vector_val@MV?$allocator@M@std@@@std@@@std@@PAM@std@@YA?AU_Nonscalar_ptr_iterator_tag@0@AAV?$_Vector_const_iterator@V?$_Vector_val@MV?$allocator@M@std@@@std@@@0@AAPAM@Z ; std::_Ptr_cat<std::_Vector_const_iterator<std::_Vector_val<float,std::allocator<float> > >,float *>
; Function compile flags: /Ogsp
; File c:\program files (x86)\microsoft visual studio 10.0\vc\include\xutility
;	COMDAT ??$_Ptr_cat@V?$_Vector_const_iterator@V?$_Vector_val@MV?$allocator@M@std@@@std@@@std@@PAM@std@@YA?AU_Nonscalar_ptr_iterator_tag@0@AAV?$_Vector_const_iterator@V?$_Vector_val@MV?$allocator@M@std@@@std@@@0@AAPAM@Z
_TEXT	SEGMENT
__Cat$ = -1						; size = 1
___formal$ = 8						; size = 4
___formal$ = 12						; size = 4
??$_Ptr_cat@V?$_Vector_const_iterator@V?$_Vector_val@MV?$allocator@M@std@@@std@@@std@@PAM@std@@YA?AU_Nonscalar_ptr_iterator_tag@0@AAV?$_Vector_const_iterator@V?$_Vector_val@MV?$allocator@M@std@@@std@@@0@AAPAM@Z PROC ; std::_Ptr_cat<std::_Vector_const_iterator<std::_Vector_val<float,std::allocator<float> > >,float *>, COMDAT

; 485  : 	{	// return pointer category from arbitrary arguments

  00000	55		 push	 ebp
  00001	8b ec		 mov	 ebp, esp
  00003	51		 push	 ecx

; 486  : 	_Nonscalar_ptr_iterator_tag _Cat;
; 487  : 	return (_Cat);

  00004	8a 45 ff	 mov	 al, BYTE PTR __Cat$[ebp]

; 488  : 	}

  00007	c9		 leave
  00008	c3		 ret	 0
??$_Ptr_cat@V?$_Vector_const_iterator@V?$_Vector_val@MV?$allocator@M@std@@@std@@@std@@PAM@std@@YA?AU_Nonscalar_ptr_iterator_tag@0@AAV?$_Vector_const_iterator@V?$_Vector_val@MV?$allocator@M@std@@@std@@@0@AAPAM@Z ENDP ; std::_Ptr_cat<std::_Vector_const_iterator<std::_Vector_val<float,std::allocator<float> > >,float *>
_TEXT	ENDS
PUBLIC	??$_Ptr_cat@V?$_Vector_const_iterator@V?$_Vector_val@UBuffInfoStruct@@V?$allocator@UBuffInfoStruct@@@std@@@std@@@std@@PAUBuffInfoStruct@@@std@@YA?AU_Nonscalar_ptr_iterator_tag@0@AAV?$_Vector_const_iterator@V?$_Vector_val@UBuffInfoStruct@@V?$allocator@UBuffInfoStruct@@@std@@@std@@@0@AAPAUBuffInfoStruct@@@Z ; std::_Ptr_cat<std::_Vector_const_iterator<std::_Vector_val<BuffInfoStruct,std::allocator<BuffInfoStruct> > >,BuffInfoStruct *>
; Function compile flags: /Ogsp
;	COMDAT ??$_Ptr_cat@V?$_Vector_const_iterator@V?$_Vector_val@UBuffInfoStruct@@V?$allocator@UBuffInfoStruct@@@std@@@std@@@std@@PAUBuffInfoStruct@@@std@@YA?AU_Nonscalar_ptr_iterator_tag@0@AAV?$_Vector_const_iterator@V?$_Vector_val@UBuffInfoStruct@@V?$allocator@UBuffInfoStruct@@@std@@@std@@@0@AAPAUBuffInfoStruct@@@Z
_TEXT	SEGMENT
__Cat$ = -1						; size = 1
___formal$ = 8						; size = 4
___formal$ = 12						; size = 4
??$_Ptr_cat@V?$_Vector_const_iterator@V?$_Vector_val@UBuffInfoStruct@@V?$allocator@UBuffInfoStruct@@@std@@@std@@@std@@PAUBuffInfoStruct@@@std@@YA?AU_Nonscalar_ptr_iterator_tag@0@AAV?$_Vector_const_iterator@V?$_Vector_val@UBuffInfoStruct@@V?$allocator@UBuffInfoStruct@@@std@@@std@@@0@AAPAUBuffInfoStruct@@@Z PROC ; std::_Ptr_cat<std::_Vector_const_iterator<std::_Vector_val<BuffInfoStruct,std::allocator<BuffInfoStruct> > >,BuffInfoStruct *>, COMDAT

; 485  : 	{	// return pointer category from arbitrary arguments

  00000	55		 push	 ebp
  00001	8b ec		 mov	 ebp, esp
  00003	51		 push	 ecx

; 486  : 	_Nonscalar_ptr_iterator_tag _Cat;
; 487  : 	return (_Cat);

  00004	8a 45 ff	 mov	 al, BYTE PTR __Cat$[ebp]

; 488  : 	}

  00007	c9		 leave
  00008	c3		 ret	 0
??$_Ptr_cat@V?$_Vector_const_iterator@V?$_Vector_val@UBuffInfoStruct@@V?$allocator@UBuffInfoStruct@@@std@@@std@@@std@@PAUBuffInfoStruct@@@std@@YA?AU_Nonscalar_ptr_iterator_tag@0@AAV?$_Vector_const_iterator@V?$_Vector_val@UBuffInfoStruct@@V?$allocator@UBuffInfoStruct@@@std@@@std@@@0@AAPAUBuffInfoStruct@@@Z ENDP ; std::_Ptr_cat<std::_Vector_const_iterator<std::_Vector_val<BuffInfoStruct,std::allocator<BuffInfoStruct> > >,BuffInfoStruct *>
_TEXT	ENDS
PUBLIC	??$_Val_type@PAUBuffInfoStruct@@@std@@YAPAUBuffInfoStruct@@PAU1@@Z ; std::_Val_type<BuffInfoStruct *>
; Function compile flags: /Ogsp
;	COMDAT ??$_Val_type@PAUBuffInfoStruct@@@std@@YAPAUBuffInfoStruct@@PAU1@@Z
_TEXT	SEGMENT
___formal$ = 8						; size = 4
??$_Val_type@PAUBuffInfoStruct@@@std@@YAPAUBuffInfoStruct@@PAU1@@Z PROC ; std::_Val_type<BuffInfoStruct *>, COMDAT

; 790  : 	return (0);

  00000	33 c0		 xor	 eax, eax

; 791  : 	}

  00002	c3		 ret	 0
??$_Val_type@PAUBuffInfoStruct@@@std@@YAPAUBuffInfoStruct@@PAU1@@Z ENDP ; std::_Val_type<BuffInfoStruct *>
_TEXT	ENDS
PUBLIC	??$_Val_type@PAM@std@@YAPAMPAM@Z		; std::_Val_type<float *>
; Function compile flags: /Ogsp
;	COMDAT ??$_Val_type@PAM@std@@YAPAMPAM@Z
_TEXT	SEGMENT
___formal$ = 8						; size = 4
??$_Val_type@PAM@std@@YAPAMPAM@Z PROC			; std::_Val_type<float *>, COMDAT

; 790  : 	return (0);

  00000	33 c0		 xor	 eax, eax

; 791  : 	}

  00002	c3		 ret	 0
??$_Val_type@PAM@std@@YAPAMPAM@Z ENDP			; std::_Val_type<float *>
_TEXT	ENDS
PUBLIC	??$_Uninit_move@MMM@std@@YAPAMPAM00AAV?$allocator@M@0@0U_Scalar_ptr_iterator_tag@0@@Z ; std::_Uninit_move<float,float,float>
EXTRN	__imp__memmove:PROC
; Function compile flags: /Ogsp
; File c:\program files (x86)\microsoft visual studio 10.0\vc\include\memory
;	COMDAT ??$_Uninit_move@MMM@std@@YAPAMPAM00AAV?$allocator@M@0@0U_Scalar_ptr_iterator_tag@0@@Z
_TEXT	SEGMENT
__First$ = 8						; size = 4
__Last$ = 12						; size = 4
__Dest$ = 16						; size = 4
___formal$ = 20						; size = 4
___formal$ = 24						; size = 4
___formal$ = 28						; size = 1
??$_Uninit_move@MMM@std@@YAPAMPAM00AAV?$allocator@M@0@0U_Scalar_ptr_iterator_tag@0@@Z PROC ; std::_Uninit_move<float,float,float>, COMDAT

; 456  : 	{	// move [_First, _Last) to raw _Dest, scalar type

  00000	55		 push	 ebp
  00001	8b ec		 mov	 ebp, esp
  00003	56		 push	 esi

; 457  : 	_DEBUG_RANGE(_First, _Last);
; 458  : 	_DEBUG_POINTER(_Dest);
; 459  : 	size_t _Count = (size_t)(_Last - _First);

  00004	8b 75 0c	 mov	 esi, DWORD PTR __Last$[ebp]
  00007	2b 75 08	 sub	 esi, DWORD PTR __First$[ebp]
  0000a	c1 fe 02	 sar	 esi, 2

; 460  : 	return ((_Ty2 *)_CSTD memmove(&*_Dest, &*_First,
; 461  : 		_Count * sizeof (*_First)) + _Count);	// NB: non-overlapping move

  0000d	c1 e6 02	 shl	 esi, 2
  00010	56		 push	 esi
  00011	ff 75 08	 push	 DWORD PTR __First$[ebp]
  00014	ff 75 10	 push	 DWORD PTR __Dest$[ebp]
  00017	ff 15 00 00 00
	00		 call	 DWORD PTR __imp__memmove
  0001d	83 c4 0c	 add	 esp, 12			; 0000000cH
  00020	03 c6		 add	 eax, esi
  00022	5e		 pop	 esi

; 462  : 	}

  00023	5d		 pop	 ebp
  00024	c3		 ret	 0
??$_Uninit_move@MMM@std@@YAPAMPAM00AAV?$allocator@M@0@0U_Scalar_ptr_iterator_tag@0@@Z ENDP ; std::_Uninit_move<float,float,float>
_TEXT	ENDS
PUBLIC	??D?$_Vector_const_iterator@V?$_Vector_val@MV?$allocator@M@std@@@std@@@std@@QBEABMXZ ; std::_Vector_const_iterator<std::_Vector_val<float,std::allocator<float> > >::operator*
; Function compile flags: /Ogsp
; File c:\program files (x86)\microsoft visual studio 10.0\vc\include\vector
;	COMDAT ??D?$_Vector_const_iterator@V?$_Vector_val@MV?$allocator@M@std@@@std@@@std@@QBEABMXZ
_TEXT	SEGMENT
??D?$_Vector_const_iterator@V?$_Vector_val@MV?$allocator@M@std@@@std@@@std@@QBEABMXZ PROC ; std::_Vector_const_iterator<std::_Vector_val<float,std::allocator<float> > >::operator*, COMDAT
; _this$ = ecx

; 64   :  #if _ITERATOR_DEBUG_LEVEL == 2
; 65   : 		if (this->_Getcont() == 0
; 66   : 			|| this->_Ptr == 0
; 67   : 			|| this->_Ptr < ((_Myvec *)this->_Getcont())->_Myfirst
; 68   : 			|| ((_Myvec *)this->_Getcont())->_Mylast <= this->_Ptr)
; 69   : 			{	// report error
; 70   : 			_DEBUG_ERROR("vector iterator not dereferencable");
; 71   : 			_SCL_SECURE_OUT_OF_RANGE;
; 72   : 			}
; 73   : 
; 74   :  #elif _ITERATOR_DEBUG_LEVEL == 1
; 75   : 		_SCL_SECURE_VALIDATE(this->_Getcont() != 0);
; 76   : 		_SCL_SECURE_VALIDATE_RANGE(
; 77   : 			this->_Ptr != 0
; 78   : 			&& ((_Myvec *)this->_Getcont())->_Myfirst <= this->_Ptr
; 79   : 			&& this->_Ptr < ((_Myvec *)this->_Getcont())->_Mylast);
; 80   :  #endif /* _ITERATOR_DEBUG_LEVEL */
; 81   : 
; 82   : 		__analysis_assume(this->_Ptr != 0);
; 83   : 
; 84   : 		return (*this->_Ptr);

  00000	8b 01		 mov	 eax, DWORD PTR [ecx]

; 85   : 		}

  00002	c3		 ret	 0
??D?$_Vector_const_iterator@V?$_Vector_val@MV?$allocator@M@std@@@std@@@std@@QBEABMXZ ENDP ; std::_Vector_const_iterator<std::_Vector_val<float,std::allocator<float> > >::operator*
_TEXT	ENDS
PUBLIC	??E?$_Vector_const_iterator@V?$_Vector_val@MV?$allocator@M@std@@@std@@@std@@QAEAAV01@XZ ; std::_Vector_const_iterator<std::_Vector_val<float,std::allocator<float> > >::operator++
; Function compile flags: /Ogsp
;	COMDAT ??E?$_Vector_const_iterator@V?$_Vector_val@MV?$allocator@M@std@@@std@@@std@@QAEAAV01@XZ
_TEXT	SEGMENT
??E?$_Vector_const_iterator@V?$_Vector_val@MV?$allocator@M@std@@@std@@@std@@QAEAAV01@XZ PROC ; std::_Vector_const_iterator<std::_Vector_val<float,std::allocator<float> > >::operator++, COMDAT
; _this$ = ecx

; 93   : 		{	// preincrement

  00000	8b c1		 mov	 eax, ecx

; 94   :  #if _ITERATOR_DEBUG_LEVEL == 2
; 95   : 		if (this->_Getcont() == 0
; 96   : 			|| this->_Ptr == 0
; 97   : 			|| ((_Myvec *)this->_Getcont())->_Mylast <= this->_Ptr)
; 98   : 			{	// report error
; 99   : 			_DEBUG_ERROR("vector iterator not incrementable");
; 100  : 			_SCL_SECURE_OUT_OF_RANGE;
; 101  : 			}
; 102  : 
; 103  :  #elif _ITERATOR_DEBUG_LEVEL == 1
; 104  : 		_SCL_SECURE_VALIDATE(this->_Getcont() != 0);
; 105  : 		_SCL_SECURE_VALIDATE_RANGE(
; 106  : 			this->_Ptr != 0
; 107  : 			&& this->_Ptr < ((_Myvec *)this->_Getcont())->_Mylast);
; 108  :  #endif /* _ITERATOR_DEBUG_LEVEL */
; 109  : 
; 110  : 		++this->_Ptr;

  00002	83 00 04	 add	 DWORD PTR [eax], 4

; 111  : 		return (*this);
; 112  : 		}

  00005	c3		 ret	 0
??E?$_Vector_const_iterator@V?$_Vector_val@MV?$allocator@M@std@@@std@@@std@@QAEAAV01@XZ ENDP ; std::_Vector_const_iterator<std::_Vector_val<float,std::allocator<float> > >::operator++
_TEXT	ENDS
PUBLIC	??D?$_Vector_const_iterator@V?$_Vector_val@UBuffInfoStruct@@V?$allocator@UBuffInfoStruct@@@std@@@std@@@std@@QBEABUBuffInfoStruct@@XZ ; std::_Vector_const_iterator<std::_Vector_val<BuffInfoStruct,std::allocator<BuffInfoStruct> > >::operator*
; Function compile flags: /Ogsp
;	COMDAT ??D?$_Vector_const_iterator@V?$_Vector_val@UBuffInfoStruct@@V?$allocator@UBuffInfoStruct@@@std@@@std@@@std@@QBEABUBuffInfoStruct@@XZ
_TEXT	SEGMENT
??D?$_Vector_const_iterator@V?$_Vector_val@UBuffInfoStruct@@V?$allocator@UBuffInfoStruct@@@std@@@std@@@std@@QBEABUBuffInfoStruct@@XZ PROC ; std::_Vector_const_iterator<std::_Vector_val<BuffInfoStruct,std::allocator<BuffInfoStruct> > >::operator*, COMDAT
; _this$ = ecx

; 64   :  #if _ITERATOR_DEBUG_LEVEL == 2
; 65   : 		if (this->_Getcont() == 0
; 66   : 			|| this->_Ptr == 0
; 67   : 			|| this->_Ptr < ((_Myvec *)this->_Getcont())->_Myfirst
; 68   : 			|| ((_Myvec *)this->_Getcont())->_Mylast <= this->_Ptr)
; 69   : 			{	// report error
; 70   : 			_DEBUG_ERROR("vector iterator not dereferencable");
; 71   : 			_SCL_SECURE_OUT_OF_RANGE;
; 72   : 			}
; 73   : 
; 74   :  #elif _ITERATOR_DEBUG_LEVEL == 1
; 75   : 		_SCL_SECURE_VALIDATE(this->_Getcont() != 0);
; 76   : 		_SCL_SECURE_VALIDATE_RANGE(
; 77   : 			this->_Ptr != 0
; 78   : 			&& ((_Myvec *)this->_Getcont())->_Myfirst <= this->_Ptr
; 79   : 			&& this->_Ptr < ((_Myvec *)this->_Getcont())->_Mylast);
; 80   :  #endif /* _ITERATOR_DEBUG_LEVEL */
; 81   : 
; 82   : 		__analysis_assume(this->_Ptr != 0);
; 83   : 
; 84   : 		return (*this->_Ptr);

  00000	8b 01		 mov	 eax, DWORD PTR [ecx]

; 85   : 		}

  00002	c3		 ret	 0
??D?$_Vector_const_iterator@V?$_Vector_val@UBuffInfoStruct@@V?$allocator@UBuffInfoStruct@@@std@@@std@@@std@@QBEABUBuffInfoStruct@@XZ ENDP ; std::_Vector_const_iterator<std::_Vector_val<BuffInfoStruct,std::allocator<BuffInfoStruct> > >::operator*
_TEXT	ENDS
PUBLIC	??E?$_Vector_const_iterator@V?$_Vector_val@UBuffInfoStruct@@V?$allocator@UBuffInfoStruct@@@std@@@std@@@std@@QAEAAV01@XZ ; std::_Vector_const_iterator<std::_Vector_val<BuffInfoStruct,std::allocator<BuffInfoStruct> > >::operator++
; Function compile flags: /Ogsp
;	COMDAT ??E?$_Vector_const_iterator@V?$_Vector_val@UBuffInfoStruct@@V?$allocator@UBuffInfoStruct@@@std@@@std@@@std@@QAEAAV01@XZ
_TEXT	SEGMENT
??E?$_Vector_const_iterator@V?$_Vector_val@UBuffInfoStruct@@V?$allocator@UBuffInfoStruct@@@std@@@std@@@std@@QAEAAV01@XZ PROC ; std::_Vector_const_iterator<std::_Vector_val<BuffInfoStruct,std::allocator<BuffInfoStruct> > >::operator++, COMDAT
; _this$ = ecx

; 93   : 		{	// preincrement

  00000	8b c1		 mov	 eax, ecx

; 94   :  #if _ITERATOR_DEBUG_LEVEL == 2
; 95   : 		if (this->_Getcont() == 0
; 96   : 			|| this->_Ptr == 0
; 97   : 			|| ((_Myvec *)this->_Getcont())->_Mylast <= this->_Ptr)
; 98   : 			{	// report error
; 99   : 			_DEBUG_ERROR("vector iterator not incrementable");
; 100  : 			_SCL_SECURE_OUT_OF_RANGE;
; 101  : 			}
; 102  : 
; 103  :  #elif _ITERATOR_DEBUG_LEVEL == 1
; 104  : 		_SCL_SECURE_VALIDATE(this->_Getcont() != 0);
; 105  : 		_SCL_SECURE_VALIDATE_RANGE(
; 106  : 			this->_Ptr != 0
; 107  : 			&& this->_Ptr < ((_Myvec *)this->_Getcont())->_Mylast);
; 108  :  #endif /* _ITERATOR_DEBUG_LEVEL */
; 109  : 
; 110  : 		++this->_Ptr;

  00002	83 00 14	 add	 DWORD PTR [eax], 20	; 00000014H

; 111  : 		return (*this);
; 112  : 		}

  00005	c3		 ret	 0
??E?$_Vector_const_iterator@V?$_Vector_val@UBuffInfoStruct@@V?$allocator@UBuffInfoStruct@@@std@@@std@@@std@@QAEAAV01@XZ ENDP ; std::_Vector_const_iterator<std::_Vector_val<BuffInfoStruct,std::allocator<BuffInfoStruct> > >::operator++
_TEXT	ENDS
PUBLIC	??$forward@UBuffInfoStruct@@@std@@YA$$QAUBuffInfoStruct@@AAU1@@Z ; std::forward<BuffInfoStruct>
; Function compile flags: /Ogsp
; File c:\program files (x86)\microsoft visual studio 10.0\vc\include\utility
;	COMDAT ??$forward@UBuffInfoStruct@@@std@@YA$$QAUBuffInfoStruct@@AAU1@@Z
_TEXT	SEGMENT
__Arg$ = 8						; size = 4
??$forward@UBuffInfoStruct@@@std@@YA$$QAUBuffInfoStruct@@AAU1@@Z PROC ; std::forward<BuffInfoStruct>, COMDAT

; 78   : 	{	// forward _Arg, given explicitly specified type parameter

  00000	55		 push	 ebp
  00001	8b ec		 mov	 ebp, esp

; 79   : 	return ((_Ty&&)_Arg);

  00003	8b 45 08	 mov	 eax, DWORD PTR __Arg$[ebp]

; 80   : 	}

  00006	5d		 pop	 ebp
  00007	c3		 ret	 0
??$forward@UBuffInfoStruct@@@std@@YA$$QAUBuffInfoStruct@@AAU1@@Z ENDP ; std::forward<BuffInfoStruct>
_TEXT	ENDS
PUBLIC	??$_Destroy@M@std@@YAXPAM@Z			; std::_Destroy<float>
; Function compile flags: /Ogsp
; File c:\program files (x86)\microsoft visual studio 10.0\vc\include\xmemory
;	COMDAT ??$_Destroy@M@std@@YAXPAM@Z
_TEXT	SEGMENT
__Ptr$ = 8						; size = 4
??$_Destroy@M@std@@YAXPAM@Z PROC			; std::_Destroy<float>, COMDAT

; 63   : 	_Ptr->~_Ty();
; 64   : 	}

  00000	c3		 ret	 0
??$_Destroy@M@std@@YAXPAM@Z ENDP			; std::_Destroy<float>
_TEXT	ENDS
PUBLIC	?_DECSTR@@YAXPADH@Z				; _DECSTR
; Function compile flags: /Ogsp
; File d:\lost saga for developer\youtube\tutorial\source\src\lsclient\stringprotect.h
;	COMDAT ?_DECSTR@@YAXPADH@Z
_TEXT	SEGMENT
_s$ = 8							; size = 4
_l$ = 12						; size = 4
?_DECSTR@@YAXPADH@Z PROC				; _DECSTR, COMDAT

; 40   : __forceinline void _DECSTR(char* s, int l){int i=0,l4=(l-1)/4,*p=(int*)s;s[l-1]=0;for(;i<l4;++i)*(p++)^=0xEAEBECED;for(i=l4*4;i<l-1;++i)s[i]^=0xED-i%4;}

  00000	55		 push	 ebp
  00001	8b ec		 mov	 ebp, esp
  00003	8b 4d 0c	 mov	 ecx, DWORD PTR _l$[ebp]
  00006	56		 push	 esi
  00007	8b 75 08	 mov	 esi, DWORD PTR _s$[ebp]
  0000a	57		 push	 edi
  0000b	8d 79 ff	 lea	 edi, DWORD PTR [ecx-1]
  0000e	8b c7		 mov	 eax, edi
  00010	99		 cdq
  00011	83 e2 03	 and	 edx, 3
  00014	03 c2		 add	 eax, edx
  00016	c1 f8 02	 sar	 eax, 2
  00019	8b d6		 mov	 edx, esi
  0001b	c6 44 0e ff 00	 mov	 BYTE PTR [esi+ecx-1], 0
  00020	85 c0		 test	 eax, eax
  00022	7e 0e		 jle	 SHORT $LN4@DECSTR
  00024	8b c8		 mov	 ecx, eax
$LL6@DECSTR:
  00026	81 32 ed ec eb
	ea		 xor	 DWORD PTR [edx], -353637139 ; eaebecedH
  0002c	83 c2 04	 add	 edx, 4
  0002f	49		 dec	 ecx
  00030	75 f4		 jne	 SHORT $LL6@DECSTR
$LN4@DECSTR:
  00032	c1 e0 02	 shl	 eax, 2
  00035	eb 17		 jmp	 SHORT $LN14@DECSTR
$LL3@DECSTR:
  00037	8b c8		 mov	 ecx, eax
  00039	81 e1 03 00 00
	80		 and	 ecx, -2147483645	; 80000003H
  0003f	79 05		 jns	 SHORT $LN13@DECSTR
  00041	49		 dec	 ecx
  00042	83 c9 fc	 or	 ecx, -4			; fffffffcH
  00045	41		 inc	 ecx
$LN13@DECSTR:
  00046	b2 ed		 mov	 dl, -19			; ffffffedH
  00048	2a d1		 sub	 dl, cl
  0004a	30 14 30	 xor	 BYTE PTR [eax+esi], dl
  0004d	40		 inc	 eax
$LN14@DECSTR:
  0004e	3b c7		 cmp	 eax, edi
  00050	7c e5		 jl	 SHORT $LL3@DECSTR
  00052	5f		 pop	 edi
  00053	5e		 pop	 esi
  00054	5d		 pop	 ebp
  00055	c3		 ret	 0
?_DECSTR@@YAXPADH@Z ENDP				; _DECSTR
_TEXT	ENDS
PUBLIC	?GetGroup@ioGameEntity@@QBEPAVioEntityGroup@@XZ	; ioGameEntity::GetGroup
; Function compile flags: /Ogsp
; File d:\lost saga for developer\youtube\tutorial\source\src\lsclient\iogameentity.h
;	COMDAT ?GetGroup@ioGameEntity@@QBEPAVioEntityGroup@@XZ
_TEXT	SEGMENT
?GetGroup@ioGameEntity@@QBEPAVioEntityGroup@@XZ PROC	; ioGameEntity::GetGroup, COMDAT
; _this$ = ecx

; 166  : 	inline ioEntityGroup* GetGroup() const { return m_pGroup; }

  00000	8b 41 04	 mov	 eax, DWORD PTR [ecx+4]
  00003	c3		 ret	 0
?GetGroup@ioGameEntity@@QBEPAVioEntityGroup@@XZ ENDP	; ioGameEntity::GetGroup
_TEXT	ENDS
PUBLIC	?GetName@ioItem@@QBEABVioHashString@@XZ		; ioItem::GetName
; Function compile flags: /Ogsp
; File d:\lost saga for developer\youtube\tutorial\source\src\lsclient\ioitem.h
;	COMDAT ?GetName@ioItem@@QBEABVioHashString@@XZ
_TEXT	SEGMENT
?GetName@ioItem@@QBEABVioHashString@@XZ PROC		; ioItem::GetName, COMDAT
; _this$ = ecx

; 269  : 	inline const ioHashString& GetName() const { return m_Name; }

  00000	8d 81 34 01 00
	00		 lea	 eax, DWORD PTR [ecx+308]
  00006	c3		 ret	 0
?GetName@ioItem@@QBEABVioHashString@@XZ ENDP		; ioItem::GetName
_TEXT	ENDS
PUBLIC	??0BuffInfoStruct@@QAE@XZ			; BuffInfoStruct::BuffInfoStruct
EXTRN	__imp_??1ioHashString@@QAE@XZ:PROC
EXTRN	__imp_?Clear@ioHashString@@QAEXXZ:PROC
EXTRN	__imp_??0ioHashString@@QAE@XZ:PROC
EXTRN	___CxxFrameHandler3:PROC
EXTRN	@__security_check_cookie@4:PROC
EXTRN	__EH_epilog3:PROC
EXTRN	__EH_prolog3:PROC
;	COMDAT xdata$x
; File d:\lost saga for developer\youtube\tutorial\source\src\lsclient\weaponattribute.h
xdata$x	SEGMENT
__unwindtable$??0BuffInfoStruct@@QAE@XZ DD 0ffffffffH
	DD	FLAT:__unwindfunclet$??0BuffInfoStruct@@QAE@XZ$0
__ehfuncinfo$??0BuffInfoStruct@@QAE@XZ DD 019930522H
	DD	01H
	DD	FLAT:__unwindtable$??0BuffInfoStruct@@QAE@XZ
	DD	2 DUP(00H)
	DD	2 DUP(00H)
	DD	00H
	DD	01H
; Function compile flags: /Ogsp
xdata$x	ENDS
;	COMDAT ??0BuffInfoStruct@@QAE@XZ
_TEXT	SEGMENT
_this$ = -16						; size = 4
__$EHRec$ = -12						; size = 12
??0BuffInfoStruct@@QAE@XZ PROC				; BuffInfoStruct::BuffInfoStruct, COMDAT
; _this$ = ecx

; 278  : 	BuffInfoStruct()

  00000	6a 04		 push	 4
  00002	b8 00 00 00 00	 mov	 eax, __ehhandler$??0BuffInfoStruct@@QAE@XZ
  00007	e8 00 00 00 00	 call	 __EH_prolog3
  0000c	8b f1		 mov	 esi, ecx
  0000e	89 75 f0	 mov	 DWORD PTR _this$[ebp], esi
  00011	ff 15 00 00 00
	00		 call	 DWORD PTR __imp_??0ioHashString@@QAE@XZ
  00017	83 65 fc 00	 and	 DWORD PTR __$EHRec$[ebp+8], 0

; 279  : 	{
; 280  : 		m_BuffName.Clear();

  0001b	8b ce		 mov	 ecx, esi
  0001d	ff 15 00 00 00
	00		 call	 DWORD PTR __imp_?Clear@ioHashString@@QAEXXZ

; 281  : 		m_iBuffType = 0;

  00023	83 66 10 00	 and	 DWORD PTR [esi+16], 0

; 282  : 	}

  00027	8b c6		 mov	 eax, esi
  00029	e8 00 00 00 00	 call	 __EH_epilog3
  0002e	c3		 ret	 0
_TEXT	ENDS
;	COMDAT text$x
text$x	SEGMENT
__unwindfunclet$??0BuffInfoStruct@@QAE@XZ$0:
  00000	8b 4d f0	 mov	 ecx, DWORD PTR _this$[ebp]
  00003	ff 25 00 00 00
	00		 jmp	 DWORD PTR __imp_??1ioHashString@@QAE@XZ
__ehhandler$??0BuffInfoStruct@@QAE@XZ:
  00009	8b 54 24 08	 mov	 edx, DWORD PTR [esp+8]
  0000d	8d 42 0c	 lea	 eax, DWORD PTR [edx+12]
  00010	8b 4a ec	 mov	 ecx, DWORD PTR [edx-20]
  00013	33 c8		 xor	 ecx, eax
  00015	e8 00 00 00 00	 call	 @__security_check_cookie@4
  0001a	b8 00 00 00 00	 mov	 eax, OFFSET __ehfuncinfo$??0BuffInfoStruct@@QAE@XZ
  0001f	e9 00 00 00 00	 jmp	 ___CxxFrameHandler3
text$x	ENDS
??0BuffInfoStruct@@QAE@XZ ENDP				; BuffInfoStruct::BuffInfoStruct
PUBLIC	??1BuffInfoStruct@@QAE@XZ			; BuffInfoStruct::~BuffInfoStruct
; Function compile flags: /Ogsp
;	COMDAT ??1BuffInfoStruct@@QAE@XZ
_TEXT	SEGMENT
??1BuffInfoStruct@@QAE@XZ PROC				; BuffInfoStruct::~BuffInfoStruct, COMDAT
; _this$ = ecx
  00000	ff 25 00 00 00
	00		 jmp	 DWORD PTR __imp_??1ioHashString@@QAE@XZ
??1BuffInfoStruct@@QAE@XZ ENDP				; BuffInfoStruct::~BuffInfoStruct
_TEXT	ENDS
PUBLIC	?GetWeaponIndex@ioWeapon@@QBEKXZ		; ioWeapon::GetWeaponIndex
; Function compile flags: /Ogsp
; File d:\lost saga for developer\youtube\tutorial\source\src\lsclient\ioweapon.h
;	COMDAT ?GetWeaponIndex@ioWeapon@@QBEKXZ
_TEXT	SEGMENT
?GetWeaponIndex@ioWeapon@@QBEKXZ PROC			; ioWeapon::GetWeaponIndex, COMDAT
; _this$ = ecx

; 536  : 	inline DWORD GetWeaponIndex() const { return m_dwWeaponIdx; }

  00000	8b 81 b8 04 00
	00		 mov	 eax, DWORD PTR [ecx+1208]
  00006	c3		 ret	 0
?GetWeaponIndex@ioWeapon@@QBEKXZ ENDP			; ioWeapon::GetWeaponIndex
_TEXT	ENDS
PUBLIC	?GetOwnerItem@ioSkill@@QBEPAVioItem@@XZ		; ioSkill::GetOwnerItem
; Function compile flags: /Ogsp
; File d:\lost saga for developer\youtube\tutorial\source\src\lsclient\ioskill.h
;	COMDAT ?GetOwnerItem@ioSkill@@QBEPAVioItem@@XZ
_TEXT	SEGMENT
?GetOwnerItem@ioSkill@@QBEPAVioItem@@XZ PROC		; ioSkill::GetOwnerItem, COMDAT
; _this$ = ecx

; 397  : 	inline ioItem *GetOwnerItem() const { return m_pOwnerItem; }

  00000	8b 81 a4 02 00
	00		 mov	 eax, DWORD PTR [ecx+676]
  00006	c3		 ret	 0
?GetOwnerItem@ioSkill@@QBEPAVioItem@@XZ ENDP		; ioSkill::GetOwnerItem
_TEXT	ENDS
PUBLIC	?GetName@ioSkill@@QBEABVioHashString@@XZ	; ioSkill::GetName
; Function compile flags: /Ogsp
;	COMDAT ?GetName@ioSkill@@QBEABVioHashString@@XZ
_TEXT	SEGMENT
?GetName@ioSkill@@QBEABVioHashString@@XZ PROC		; ioSkill::GetName, COMDAT
; _this$ = ecx

; 414  : 	inline const ioHashString& GetName() const { return m_Name; }

  00000	8d 41 24	 lea	 eax, DWORD PTR [ecx+36]
  00003	c3		 ret	 0
?GetName@ioSkill@@QBEABVioHashString@@XZ ENDP		; ioSkill::GetName
_TEXT	ENDS
PUBLIC	??_7?$CEncrypt@M@@6B@				; CEncrypt<float>::`vftable'
PUBLIC	??1?$CEncrypt@M@@UAE@XZ				; CEncrypt<float>::~CEncrypt<float>
PUBLIC	??_R4?$CEncrypt@M@@6B@				; CEncrypt<float>::`RTTI Complete Object Locator'
PUBLIC	??_R0?AV?$CEncrypt@M@@@8			; CEncrypt<float> `RTTI Type Descriptor'
PUBLIC	??_R3?$CEncrypt@M@@8				; CEncrypt<float>::`RTTI Class Hierarchy Descriptor'
PUBLIC	??_R2?$CEncrypt@M@@8				; CEncrypt<float>::`RTTI Base Class Array'
PUBLIC	??_R1A@?0A@EA@?$CEncrypt@M@@8			; CEncrypt<float>::`RTTI Base Class Descriptor at (0,-1,0,64)'
EXTRN	??1ccddaabb@@UAE@XZ:PROC			; ccddaabb::~ccddaabb
EXTRN	??_E?$CEncrypt@M@@UAEPAXI@Z:PROC		; CEncrypt<float>::`vector deleting destructor'
;	COMDAT ??_R1A@?0A@EA@?$CEncrypt@M@@8
; File d:\lost saga for developer\youtube\tutorial\source\src\lsclient\encryptvalue.h
rdata$r	SEGMENT
??_R1A@?0A@EA@?$CEncrypt@M@@8 DD FLAT:??_R0?AV?$CEncrypt@M@@@8 ; CEncrypt<float>::`RTTI Base Class Descriptor at (0,-1,0,64)'
	DD	00H
	DD	00H
	DD	0ffffffffH
	DD	00H
	DD	040H
	DD	FLAT:??_R3?$CEncrypt@M@@8
rdata$r	ENDS
;	COMDAT ??_R2?$CEncrypt@M@@8
rdata$r	SEGMENT
??_R2?$CEncrypt@M@@8 DD FLAT:??_R1A@?0A@EA@?$CEncrypt@M@@8 ; CEncrypt<float>::`RTTI Base Class Array'
rdata$r	ENDS
;	COMDAT ??_R3?$CEncrypt@M@@8
rdata$r	SEGMENT
??_R3?$CEncrypt@M@@8 DD 00H				; CEncrypt<float>::`RTTI Class Hierarchy Descriptor'
	DD	00H
	DD	01H
	DD	FLAT:??_R2?$CEncrypt@M@@8
rdata$r	ENDS
;	COMDAT ??_R0?AV?$CEncrypt@M@@@8
_DATA	SEGMENT
??_R0?AV?$CEncrypt@M@@@8 DD FLAT:??_7type_info@@6B@	; CEncrypt<float> `RTTI Type Descriptor'
	DD	00H
	DB	'.?AV?$CEncrypt@M@@', 00H
_DATA	ENDS
;	COMDAT ??_R4?$CEncrypt@M@@6B@
rdata$r	SEGMENT
??_R4?$CEncrypt@M@@6B@ DD 00H				; CEncrypt<float>::`RTTI Complete Object Locator'
	DD	00H
	DD	00H
	DD	FLAT:??_R0?AV?$CEncrypt@M@@@8
	DD	FLAT:??_R3?$CEncrypt@M@@8
rdata$r	ENDS
;	COMDAT ??_7?$CEncrypt@M@@6B@
CONST	SEGMENT
??_7?$CEncrypt@M@@6B@ DD FLAT:??_R4?$CEncrypt@M@@6B@	; CEncrypt<float>::`vftable'
	DD	FLAT:??_E?$CEncrypt@M@@UAEPAXI@Z
; Function compile flags: /Ogsp
CONST	ENDS
;	COMDAT ??1?$CEncrypt@M@@UAE@XZ
_TEXT	SEGMENT
??1?$CEncrypt@M@@UAE@XZ PROC				; CEncrypt<float>::~CEncrypt<float>, COMDAT
; _this$ = ecx

; 127  : 	{

  00000	c7 01 00 00 00
	00		 mov	 DWORD PTR [ecx], OFFSET ??_7?$CEncrypt@M@@6B@

; 128  : 	}

  00006	83 c1 0c	 add	 ecx, 12			; 0000000cH
  00009	e9 00 00 00 00	 jmp	 ??1ccddaabb@@UAE@XZ	; ccddaabb::~ccddaabb
??1?$CEncrypt@M@@UAE@XZ ENDP				; CEncrypt<float>::~CEncrypt<float>
_TEXT	ENDS
PUBLIC	??_7?$CEncrypt@K@@6B@				; CEncrypt<unsigned long>::`vftable'
PUBLIC	??1?$CEncrypt@K@@UAE@XZ				; CEncrypt<unsigned long>::~CEncrypt<unsigned long>
PUBLIC	??_R4?$CEncrypt@K@@6B@				; CEncrypt<unsigned long>::`RTTI Complete Object Locator'
PUBLIC	??_R0?AV?$CEncrypt@K@@@8			; CEncrypt<unsigned long> `RTTI Type Descriptor'
PUBLIC	??_R3?$CEncrypt@K@@8				; CEncrypt<unsigned long>::`RTTI Class Hierarchy Descriptor'
PUBLIC	??_R2?$CEncrypt@K@@8				; CEncrypt<unsigned long>::`RTTI Base Class Array'
PUBLIC	??_R1A@?0A@EA@?$CEncrypt@K@@8			; CEncrypt<unsigned long>::`RTTI Base Class Descriptor at (0,-1,0,64)'
EXTRN	??_E?$CEncrypt@K@@UAEPAXI@Z:PROC		; CEncrypt<unsigned long>::`vector deleting destructor'
;	COMDAT ??_R1A@?0A@EA@?$CEncrypt@K@@8
rdata$r	SEGMENT
??_R1A@?0A@EA@?$CEncrypt@K@@8 DD FLAT:??_R0?AV?$CEncrypt@K@@@8 ; CEncrypt<unsigned long>::`RTTI Base Class Descriptor at (0,-1,0,64)'
	DD	00H
	DD	00H
	DD	0ffffffffH
	DD	00H
	DD	040H
	DD	FLAT:??_R3?$CEncrypt@K@@8
rdata$r	ENDS
;	COMDAT ??_R2?$CEncrypt@K@@8
rdata$r	SEGMENT
??_R2?$CEncrypt@K@@8 DD FLAT:??_R1A@?0A@EA@?$CEncrypt@K@@8 ; CEncrypt<unsigned long>::`RTTI Base Class Array'
rdata$r	ENDS
;	COMDAT ??_R3?$CEncrypt@K@@8
rdata$r	SEGMENT
??_R3?$CEncrypt@K@@8 DD 00H				; CEncrypt<unsigned long>::`RTTI Class Hierarchy Descriptor'
	DD	00H
	DD	01H
	DD	FLAT:??_R2?$CEncrypt@K@@8
rdata$r	ENDS
;	COMDAT ??_R0?AV?$CEncrypt@K@@@8
_DATA	SEGMENT
??_R0?AV?$CEncrypt@K@@@8 DD FLAT:??_7type_info@@6B@	; CEncrypt<unsigned long> `RTTI Type Descriptor'
	DD	00H
	DB	'.?AV?$CEncrypt@K@@', 00H
_DATA	ENDS
;	COMDAT ??_R4?$CEncrypt@K@@6B@
rdata$r	SEGMENT
??_R4?$CEncrypt@K@@6B@ DD 00H				; CEncrypt<unsigned long>::`RTTI Complete Object Locator'
	DD	00H
	DD	00H
	DD	FLAT:??_R0?AV?$CEncrypt@K@@@8
	DD	FLAT:??_R3?$CEncrypt@K@@8
rdata$r	ENDS
;	COMDAT ??_7?$CEncrypt@K@@6B@
CONST	SEGMENT
??_7?$CEncrypt@K@@6B@ DD FLAT:??_R4?$CEncrypt@K@@6B@	; CEncrypt<unsigned long>::`vftable'
	DD	FLAT:??_E?$CEncrypt@K@@UAEPAXI@Z
; Function compile flags: /Ogsp
CONST	ENDS
;	COMDAT ??1?$CEncrypt@K@@UAE@XZ
_TEXT	SEGMENT
??1?$CEncrypt@K@@UAE@XZ PROC				; CEncrypt<unsigned long>::~CEncrypt<unsigned long>, COMDAT
; _this$ = ecx

; 127  : 	{

  00000	c7 01 00 00 00
	00		 mov	 DWORD PTR [ecx], OFFSET ??_7?$CEncrypt@K@@6B@

; 128  : 	}

  00006	83 c1 0c	 add	 ecx, 12			; 0000000cH
  00009	e9 00 00 00 00	 jmp	 ??1ccddaabb@@UAE@XZ	; ccddaabb::~ccddaabb
??1?$CEncrypt@K@@UAE@XZ ENDP				; CEncrypt<unsigned long>::~CEncrypt<unsigned long>
_TEXT	ENDS
PUBLIC	??_7?$CEncrypt@_N@@6B@				; CEncrypt<bool>::`vftable'
PUBLIC	??1?$CEncrypt@_N@@UAE@XZ			; CEncrypt<bool>::~CEncrypt<bool>
PUBLIC	??_R4?$CEncrypt@_N@@6B@				; CEncrypt<bool>::`RTTI Complete Object Locator'
PUBLIC	??_R0?AV?$CEncrypt@_N@@@8			; CEncrypt<bool> `RTTI Type Descriptor'
PUBLIC	??_R3?$CEncrypt@_N@@8				; CEncrypt<bool>::`RTTI Class Hierarchy Descriptor'
PUBLIC	??_R2?$CEncrypt@_N@@8				; CEncrypt<bool>::`RTTI Base Class Array'
PUBLIC	??_R1A@?0A@EA@?$CEncrypt@_N@@8			; CEncrypt<bool>::`RTTI Base Class Descriptor at (0,-1,0,64)'
EXTRN	??_E?$CEncrypt@_N@@UAEPAXI@Z:PROC		; CEncrypt<bool>::`vector deleting destructor'
;	COMDAT ??_R1A@?0A@EA@?$CEncrypt@_N@@8
rdata$r	SEGMENT
??_R1A@?0A@EA@?$CEncrypt@_N@@8 DD FLAT:??_R0?AV?$CEncrypt@_N@@@8 ; CEncrypt<bool>::`RTTI Base Class Descriptor at (0,-1,0,64)'
	DD	00H
	DD	00H
	DD	0ffffffffH
	DD	00H
	DD	040H
	DD	FLAT:??_R3?$CEncrypt@_N@@8
rdata$r	ENDS
;	COMDAT ??_R2?$CEncrypt@_N@@8
rdata$r	SEGMENT
??_R2?$CEncrypt@_N@@8 DD FLAT:??_R1A@?0A@EA@?$CEncrypt@_N@@8 ; CEncrypt<bool>::`RTTI Base Class Array'
rdata$r	ENDS
;	COMDAT ??_R3?$CEncrypt@_N@@8
rdata$r	SEGMENT
??_R3?$CEncrypt@_N@@8 DD 00H				; CEncrypt<bool>::`RTTI Class Hierarchy Descriptor'
	DD	00H
	DD	01H
	DD	FLAT:??_R2?$CEncrypt@_N@@8
rdata$r	ENDS
;	COMDAT ??_R0?AV?$CEncrypt@_N@@@8
_DATA	SEGMENT
??_R0?AV?$CEncrypt@_N@@@8 DD FLAT:??_7type_info@@6B@	; CEncrypt<bool> `RTTI Type Descriptor'
	DD	00H
	DB	'.?AV?$CEncrypt@_N@@', 00H
_DATA	ENDS
;	COMDAT ??_R4?$CEncrypt@_N@@6B@
rdata$r	SEGMENT
??_R4?$CEncrypt@_N@@6B@ DD 00H				; CEncrypt<bool>::`RTTI Complete Object Locator'
	DD	00H
	DD	00H
	DD	FLAT:??_R0?AV?$CEncrypt@_N@@@8
	DD	FLAT:??_R3?$CEncrypt@_N@@8
rdata$r	ENDS
;	COMDAT ??_7?$CEncrypt@_N@@6B@
CONST	SEGMENT
??_7?$CEncrypt@_N@@6B@ DD FLAT:??_R4?$CEncrypt@_N@@6B@	; CEncrypt<bool>::`vftable'
	DD	FLAT:??_E?$CEncrypt@_N@@UAEPAXI@Z
; Function compile flags: /Ogsp
CONST	ENDS
;	COMDAT ??1?$CEncrypt@_N@@UAE@XZ
_TEXT	SEGMENT
??1?$CEncrypt@_N@@UAE@XZ PROC				; CEncrypt<bool>::~CEncrypt<bool>, COMDAT
; _this$ = ecx

; 127  : 	{

  00000	c7 01 00 00 00
	00		 mov	 DWORD PTR [ecx], OFFSET ??_7?$CEncrypt@_N@@6B@

; 128  : 	}

  00006	83 c1 0c	 add	 ecx, 12			; 0000000cH
  00009	e9 00 00 00 00	 jmp	 ??1ccddaabb@@UAE@XZ	; ccddaabb::~ccddaabb
??1?$CEncrypt@_N@@UAE@XZ ENDP				; CEncrypt<bool>::~CEncrypt<bool>
_TEXT	ENDS
PUBLIC	??_7?$CEncrypt@H@@6B@				; CEncrypt<int>::`vftable'
PUBLIC	??1?$CEncrypt@H@@UAE@XZ				; CEncrypt<int>::~CEncrypt<int>
PUBLIC	??_R4?$CEncrypt@H@@6B@				; CEncrypt<int>::`RTTI Complete Object Locator'
PUBLIC	??_R0?AV?$CEncrypt@H@@@8			; CEncrypt<int> `RTTI Type Descriptor'
PUBLIC	??_R3?$CEncrypt@H@@8				; CEncrypt<int>::`RTTI Class Hierarchy Descriptor'
PUBLIC	??_R2?$CEncrypt@H@@8				; CEncrypt<int>::`RTTI Base Class Array'
PUBLIC	??_R1A@?0A@EA@?$CEncrypt@H@@8			; CEncrypt<int>::`RTTI Base Class Descriptor at (0,-1,0,64)'
EXTRN	??_E?$CEncrypt@H@@UAEPAXI@Z:PROC		; CEncrypt<int>::`vector deleting destructor'
;	COMDAT ??_R1A@?0A@EA@?$CEncrypt@H@@8
rdata$r	SEGMENT
??_R1A@?0A@EA@?$CEncrypt@H@@8 DD FLAT:??_R0?AV?$CEncrypt@H@@@8 ; CEncrypt<int>::`RTTI Base Class Descriptor at (0,-1,0,64)'
	DD	00H
	DD	00H
	DD	0ffffffffH
	DD	00H
	DD	040H
	DD	FLAT:??_R3?$CEncrypt@H@@8
rdata$r	ENDS
;	COMDAT ??_R2?$CEncrypt@H@@8
rdata$r	SEGMENT
??_R2?$CEncrypt@H@@8 DD FLAT:??_R1A@?0A@EA@?$CEncrypt@H@@8 ; CEncrypt<int>::`RTTI Base Class Array'
rdata$r	ENDS
;	COMDAT ??_R3?$CEncrypt@H@@8
rdata$r	SEGMENT
??_R3?$CEncrypt@H@@8 DD 00H				; CEncrypt<int>::`RTTI Class Hierarchy Descriptor'
	DD	00H
	DD	01H
	DD	FLAT:??_R2?$CEncrypt@H@@8
rdata$r	ENDS
;	COMDAT ??_R0?AV?$CEncrypt@H@@@8
_DATA	SEGMENT
??_R0?AV?$CEncrypt@H@@@8 DD FLAT:??_7type_info@@6B@	; CEncrypt<int> `RTTI Type Descriptor'
	DD	00H
	DB	'.?AV?$CEncrypt@H@@', 00H
_DATA	ENDS
;	COMDAT ??_R4?$CEncrypt@H@@6B@
rdata$r	SEGMENT
??_R4?$CEncrypt@H@@6B@ DD 00H				; CEncrypt<int>::`RTTI Complete Object Locator'
	DD	00H
	DD	00H
	DD	FLAT:??_R0?AV?$CEncrypt@H@@@8
	DD	FLAT:??_R3?$CEncrypt@H@@8
rdata$r	ENDS
;	COMDAT ??_7?$CEncrypt@H@@6B@
CONST	SEGMENT
??_7?$CEncrypt@H@@6B@ DD FLAT:??_R4?$CEncrypt@H@@6B@	; CEncrypt<int>::`vftable'
	DD	FLAT:??_E?$CEncrypt@H@@UAEPAXI@Z
; Function compile flags: /Ogsp
CONST	ENDS
;	COMDAT ??1?$CEncrypt@H@@UAE@XZ
_TEXT	SEGMENT
??1?$CEncrypt@H@@UAE@XZ PROC				; CEncrypt<int>::~CEncrypt<int>, COMDAT
; _this$ = ecx

; 127  : 	{

  00000	c7 01 00 00 00
	00		 mov	 DWORD PTR [ecx], OFFSET ??_7?$CEncrypt@H@@6B@

; 128  : 	}

  00006	83 c1 0c	 add	 ecx, 12			; 0000000cH
  00009	e9 00 00 00 00	 jmp	 ??1ccddaabb@@UAE@XZ	; ccddaabb::~ccddaabb
??1?$CEncrypt@H@@UAE@XZ ENDP				; CEncrypt<int>::~CEncrypt<int>
_TEXT	ENDS
PUBLIC	?size@?$vector@KV?$allocator@K@std@@@std@@QBEIXZ ; std::vector<unsigned long,std::allocator<unsigned long> >::size
; Function compile flags: /Ogsp
; File c:\program files (x86)\microsoft visual studio 10.0\vc\include\vector
;	COMDAT ?size@?$vector@KV?$allocator@K@std@@@std@@QBEIXZ
_TEXT	SEGMENT
?size@?$vector@KV?$allocator@K@std@@@std@@QBEIXZ PROC	; std::vector<unsigned long,std::allocator<unsigned long> >::size, COMDAT
; _this$ = ecx

; 879  : 		return (this->_Mylast - this->_Myfirst);

  00000	8b 41 04	 mov	 eax, DWORD PTR [ecx+4]
  00003	2b 01		 sub	 eax, DWORD PTR [ecx]
  00005	c1 f8 02	 sar	 eax, 2

; 880  : 		}

  00008	c3		 ret	 0
?size@?$vector@KV?$allocator@K@std@@@std@@QBEIXZ ENDP	; std::vector<unsigned long,std::allocator<unsigned long> >::size
; Function compile flags: /Ogsp
_TEXT	ENDS
;	COMDAT ??_G?$CEncrypt@M@@UAEPAXI@Z
_TEXT	SEGMENT
___flags$ = 8						; size = 4
??_G?$CEncrypt@M@@UAEPAXI@Z PROC			; CEncrypt<float>::`scalar deleting destructor', COMDAT
; _this$ = ecx
  00000	55		 push	 ebp
  00001	8b ec		 mov	 ebp, esp
  00003	56		 push	 esi
  00004	8b f1		 mov	 esi, ecx
  00006	8d 4e 0c	 lea	 ecx, DWORD PTR [esi+12]
  00009	c7 06 00 00 00
	00		 mov	 DWORD PTR [esi], OFFSET ??_7?$CEncrypt@M@@6B@
  0000f	e8 00 00 00 00	 call	 ??1ccddaabb@@UAE@XZ	; ccddaabb::~ccddaabb
  00014	f6 45 08 01	 test	 BYTE PTR ___flags$[ebp], 1
  00018	74 07		 je	 SHORT $LN1@scalar@2
  0001a	56		 push	 esi
  0001b	e8 00 00 00 00	 call	 ??3@YAXPAX@Z		; operator delete
  00020	59		 pop	 ecx
$LN1@scalar@2:
  00021	8b c6		 mov	 eax, esi
  00023	5e		 pop	 esi
  00024	5d		 pop	 ebp
  00025	c2 04 00	 ret	 4
??_G?$CEncrypt@M@@UAEPAXI@Z ENDP			; CEncrypt<float>::`scalar deleting destructor'
; Function compile flags: /Ogsp
_TEXT	ENDS
;	COMDAT ??_G?$CEncrypt@K@@UAEPAXI@Z
_TEXT	SEGMENT
___flags$ = 8						; size = 4
??_G?$CEncrypt@K@@UAEPAXI@Z PROC			; CEncrypt<unsigned long>::`scalar deleting destructor', COMDAT
; _this$ = ecx
  00000	55		 push	 ebp
  00001	8b ec		 mov	 ebp, esp
  00003	56		 push	 esi
  00004	8b f1		 mov	 esi, ecx
  00006	8d 4e 0c	 lea	 ecx, DWORD PTR [esi+12]
  00009	c7 06 00 00 00
	00		 mov	 DWORD PTR [esi], OFFSET ??_7?$CEncrypt@K@@6B@
  0000f	e8 00 00 00 00	 call	 ??1ccddaabb@@UAE@XZ	; ccddaabb::~ccddaabb
  00014	f6 45 08 01	 test	 BYTE PTR ___flags$[ebp], 1
  00018	74 07		 je	 SHORT $LN1@scalar@3
  0001a	56		 push	 esi
  0001b	e8 00 00 00 00	 call	 ??3@YAXPAX@Z		; operator delete
  00020	59		 pop	 ecx
$LN1@scalar@3:
  00021	8b c6		 mov	 eax, esi
  00023	5e		 pop	 esi
  00024	5d		 pop	 ebp
  00025	c2 04 00	 ret	 4
??_G?$CEncrypt@K@@UAEPAXI@Z ENDP			; CEncrypt<unsigned long>::`scalar deleting destructor'
; Function compile flags: /Ogsp
_TEXT	ENDS
;	COMDAT ??_G?$CEncrypt@_N@@UAEPAXI@Z
_TEXT	SEGMENT
___flags$ = 8						; size = 4
??_G?$CEncrypt@_N@@UAEPAXI@Z PROC			; CEncrypt<bool>::`scalar deleting destructor', COMDAT
; _this$ = ecx
  00000	55		 push	 ebp
  00001	8b ec		 mov	 ebp, esp
  00003	56		 push	 esi
  00004	8b f1		 mov	 esi, ecx
  00006	8d 4e 0c	 lea	 ecx, DWORD PTR [esi+12]
  00009	c7 06 00 00 00
	00		 mov	 DWORD PTR [esi], OFFSET ??_7?$CEncrypt@_N@@6B@
  0000f	e8 00 00 00 00	 call	 ??1ccddaabb@@UAE@XZ	; ccddaabb::~ccddaabb
  00014	f6 45 08 01	 test	 BYTE PTR ___flags$[ebp], 1
  00018	74 07		 je	 SHORT $LN1@scalar@4
  0001a	56		 push	 esi
  0001b	e8 00 00 00 00	 call	 ??3@YAXPAX@Z		; operator delete
  00020	59		 pop	 ecx
$LN1@scalar@4:
  00021	8b c6		 mov	 eax, esi
  00023	5e		 pop	 esi
  00024	5d		 pop	 ebp
  00025	c2 04 00	 ret	 4
??_G?$CEncrypt@_N@@UAEPAXI@Z ENDP			; CEncrypt<bool>::`scalar deleting destructor'
; Function compile flags: /Ogsp
_TEXT	ENDS
;	COMDAT ??_G?$CEncrypt@H@@UAEPAXI@Z
_TEXT	SEGMENT
___flags$ = 8						; size = 4
??_G?$CEncrypt@H@@UAEPAXI@Z PROC			; CEncrypt<int>::`scalar deleting destructor', COMDAT
; _this$ = ecx
  00000	55		 push	 ebp
  00001	8b ec		 mov	 ebp, esp
  00003	56		 push	 esi
  00004	8b f1		 mov	 esi, ecx
  00006	8d 4e 0c	 lea	 ecx, DWORD PTR [esi+12]
  00009	c7 06 00 00 00
	00		 mov	 DWORD PTR [esi], OFFSET ??_7?$CEncrypt@H@@6B@
  0000f	e8 00 00 00 00	 call	 ??1ccddaabb@@UAE@XZ	; ccddaabb::~ccddaabb
  00014	f6 45 08 01	 test	 BYTE PTR ___flags$[ebp], 1
  00018	74 07		 je	 SHORT $LN1@scalar@5
  0001a	56		 push	 esi
  0001b	e8 00 00 00 00	 call	 ??3@YAXPAX@Z		; operator delete
  00020	59		 pop	 ecx
$LN1@scalar@5:
  00021	8b c6		 mov	 eax, esi
  00023	5e		 pop	 esi
  00024	5d		 pop	 ebp
  00025	c2 04 00	 ret	 4
??_G?$CEncrypt@H@@UAEPAXI@Z ENDP			; CEncrypt<int>::`scalar deleting destructor'
_TEXT	ENDS
PUBLIC	??1?$_Vector_val@MV?$allocator@M@std@@@std@@QAE@XZ ; std::_Vector_val<float,std::allocator<float> >::~_Vector_val<float,std::allocator<float> >
; Function compile flags: /Ogsp
;	COMDAT ??1?$_Vector_val@MV?$allocator@M@std@@@std@@QAE@XZ
_TEXT	SEGMENT
??1?$_Vector_val@MV?$allocator@M@std@@@std@@QAE@XZ PROC	; std::_Vector_val<float,std::allocator<float> >::~_Vector_val<float,std::allocator<float> >, COMDAT
; _this$ = ecx

; 434  : 		}

  00000	c3		 ret	 0
??1?$_Vector_val@MV?$allocator@M@std@@@std@@QAE@XZ ENDP	; std::_Vector_val<float,std::allocator<float> >::~_Vector_val<float,std::allocator<float> >
_TEXT	ENDS
PUBLIC	??0?$allocator@M@std@@QAE@XZ			; std::allocator<float>::allocator<float>
; Function compile flags: /Ogsp
; File c:\program files (x86)\microsoft visual studio 10.0\vc\include\xmemory
;	COMDAT ??0?$allocator@M@std@@QAE@XZ
_TEXT	SEGMENT
??0?$allocator@M@std@@QAE@XZ PROC			; std::allocator<float>::allocator<float>, COMDAT
; _this$ = ecx

; 161  : 	_ALLOCATOR() _THROW0()

  00000	8b c1		 mov	 eax, ecx

; 162  : 		{	// construct default allocator (do nothing)
; 163  : 		}

  00002	c3		 ret	 0
??0?$allocator@M@std@@QAE@XZ ENDP			; std::allocator<float>::allocator<float>
_TEXT	ENDS
PUBLIC	?EncryptValueToPool@?$CEncrypt@M@@AAEXPBD@Z	; CEncrypt<float>::EncryptValueToPool
EXTRN	?EncryptByte@ccddaabb@@QAEXPBDPADH@Z:PROC	; ccddaabb::EncryptByte
; Function compile flags: /Ogsp
; File d:\lost saga for developer\youtube\tutorial\source\src\lsclient\encryptvalue.h
;	COMDAT ?EncryptValueToPool@?$CEncrypt@M@@AAEXPBD@Z
_TEXT	SEGMENT
_value$ = 8						; size = 4
?EncryptValueToPool@?$CEncrypt@M@@AAEXPBD@Z PROC	; CEncrypt<float>::EncryptValueToPool, COMDAT
; _this$ = ecx

; 67   : 	{

  00000	55		 push	 ebp
  00001	8b ec		 mov	 ebp, esp

; 68   : 		m_RC5.EncryptByte( value, m_MemPool, max(m_ValueSize, DEFAULT_ENCRYPT) );

  00003	0f b7 41 06	 movzx	 eax, WORD PTR [ecx+6]
  00007	83 f8 04	 cmp	 eax, 4
  0000a	77 03		 ja	 SHORT $LN4@EncryptVal
  0000c	6a 04		 push	 4
  0000e	58		 pop	 eax
$LN4@EncryptVal:
  0000f	50		 push	 eax
  00010	8d 41 1c	 lea	 eax, DWORD PTR [ecx+28]
  00013	50		 push	 eax
  00014	ff 75 08	 push	 DWORD PTR _value$[ebp]
  00017	83 c1 0c	 add	 ecx, 12			; 0000000cH
  0001a	e8 00 00 00 00	 call	 ?EncryptByte@ccddaabb@@QAEXPBDPADH@Z ; ccddaabb::EncryptByte

; 69   : 		
; 70   : 	}

  0001f	5d		 pop	 ebp
  00020	c2 04 00	 ret	 4
?EncryptValueToPool@?$CEncrypt@M@@AAEXPBD@Z ENDP	; CEncrypt<float>::EncryptValueToPool
_TEXT	ENDS
PUBLIC	?Init@?$CEncrypt@M@@AAEXXZ			; CEncrypt<float>::Init
EXTRN	?Setup@ccddaabb@@QAEXPBDHH@Z:PROC		; ccddaabb::Setup
EXTRN	__imp__rand:PROC
EXTRN	__imp__timeGetTime@0:PROC
EXTRN	__imp__GetCurrentProcessId@0:PROC
; Function compile flags: /Ogsp
;	COMDAT ?Init@?$CEncrypt@M@@AAEXXZ
_TEXT	SEGMENT
_pid$ = -8						; size = 4
_tick$ = -4						; size = 4
?Init@?$CEncrypt@M@@AAEXXZ PROC				; CEncrypt<float>::Init, COMDAT
; _this$ = ecx

; 73   : 	{

  00000	55		 push	 ebp
  00001	8b ec		 mov	 ebp, esp
  00003	51		 push	 ecx
  00004	51		 push	 ecx
  00005	53		 push	 ebx
  00006	56		 push	 esi
  00007	57		 push	 edi
  00008	8b f1		 mov	 esi, ecx

; 74   : 		DWORD pid = GetCurrentProcessId();

  0000a	ff 15 00 00 00
	00		 call	 DWORD PTR __imp__GetCurrentProcessId@0
  00010	89 45 f8	 mov	 DWORD PTR _pid$[ebp], eax

; 75   : 		DWORD tick = timeGetTime();

  00013	ff 15 00 00 00
	00		 call	 DWORD PTR __imp__timeGetTime@0

; 76   : 		m_ValueSize    = sizeof(type);
; 77   : 		m_MemPoolPos   = (unsigned short)( rand()+pid+tick )%(MAX_MEM_POOL-m_ValueSize);

  00019	8b 3d 00 00 00
	00		 mov	 edi, DWORD PTR __imp__rand
  0001f	89 45 fc	 mov	 DWORD PTR _tick$[ebp], eax
  00022	6a 04		 push	 4
  00024	58		 pop	 eax
  00025	66 89 46 06	 mov	 WORD PTR [esi+6], ax
  00029	ff d7		 call	 edi
  0002b	03 45 f8	 add	 eax, DWORD PTR _pid$[ebp]
  0002e	0f b7 4e 06	 movzx	 ecx, WORD PTR [esi+6]
  00032	03 45 fc	 add	 eax, DWORD PTR _tick$[ebp]
  00035	6a 0c		 push	 12			; 0000000cH
  00037	0f b7 c0	 movzx	 eax, ax
  0003a	5b		 pop	 ebx
  0003b	99		 cdq
  0003c	2b d9		 sub	 ebx, ecx
  0003e	f7 fb		 idiv	 ebx
  00040	66 89 56 04	 mov	 WORD PTR [esi+4], dx

; 78   : 		m_EncryptSeed  = (char)( rand()+pid+tick )%256;

  00044	ff d7		 call	 edi
  00046	02 45 f8	 add	 al, BYTE PTR _pid$[ebp]
  00049	02 45 fc	 add	 al, BYTE PTR _tick$[ebp]
  0004c	0f be c0	 movsx	 eax, al
  0004f	25 ff 00 00 80	 and	 eax, -2147483393	; 800000ffH
  00054	79 07		 jns	 SHORT $LN8@Init
  00056	48		 dec	 eax
  00057	0d 00 ff ff ff	 or	 eax, -256		; ffffff00H
  0005c	40		 inc	 eax
$LN8@Init:
  0005d	88 46 08	 mov	 BYTE PTR [esi+8], al

; 79   : 
; 80   : 		for (int i = 0; i < MAX_MEM_POOL ; i++)

  00060	33 db		 xor	 ebx, ebx
$LL3@Init:

; 81   : 			m_MemPool[i] = (char)( rand()+pid+tick )%256; // 

  00062	ff d7		 call	 edi
  00064	02 45 f8	 add	 al, BYTE PTR _pid$[ebp]
  00067	02 45 fc	 add	 al, BYTE PTR _tick$[ebp]
  0006a	0f be c0	 movsx	 eax, al
  0006d	25 ff 00 00 80	 and	 eax, -2147483393	; 800000ffH
  00072	79 07		 jns	 SHORT $LN9@Init
  00074	48		 dec	 eax
  00075	0d 00 ff ff ff	 or	 eax, -256		; ffffff00H
  0007a	40		 inc	 eax
$LN9@Init:
  0007b	88 44 1e 1c	 mov	 BYTE PTR [esi+ebx+28], al
  0007f	43		 inc	 ebx
  00080	83 fb 0c	 cmp	 ebx, 12			; 0000000cH
  00083	7c dd		 jl	 SHORT $LL3@Init

; 82   : 
; 83   : 		//UJ 130913, : szKey  
; 84   : 		//char szKey[ccddaabb::KEY_SIZE];//="";
; 85   : 		//for (int i = 0; i < ccddaabb::KEY_SIZE  ; i++)
; 86   : 		//	szKey[i] = (char)( rand()+pid+tick )%256; // 
; 87   : 		m_RC5.Setup( NULL, pid, tick );

  00085	ff 75 fc	 push	 DWORD PTR _tick$[ebp]
  00088	8d 4e 0c	 lea	 ecx, DWORD PTR [esi+12]
  0008b	ff 75 f8	 push	 DWORD PTR _pid$[ebp]
  0008e	6a 00		 push	 0
  00090	e8 00 00 00 00	 call	 ?Setup@ccddaabb@@QAEXPBDHH@Z ; ccddaabb::Setup
  00095	5f		 pop	 edi
  00096	5e		 pop	 esi
  00097	5b		 pop	 ebx

; 88   : 
; 89   : #ifdef _NOTUSE
; 90   : 		m_value        = 0;
; 91   : 		EncryptValueToPool((char*)&m_value);
; 92   : 		Debug();
; 93   : #endif
; 94   : 	}

  00098	c9		 leave
  00099	c3		 ret	 0
?Init@?$CEncrypt@M@@AAEXXZ ENDP				; CEncrypt<float>::Init
_TEXT	ENDS
PUBLIC	?DecryptValueToPool@?$CEncrypt@M@@QAEXPAM@Z	; CEncrypt<float>::DecryptValueToPool
EXTRN	?DecryptByte@ccddaabb@@QBEXPBDPADH@Z:PROC	; ccddaabb::DecryptByte
; Function compile flags: /Ogsp
;	COMDAT ?DecryptValueToPool@?$CEncrypt@M@@QAEXPAM@Z
_TEXT	SEGMENT
_value$ = 8						; size = 4
?DecryptValueToPool@?$CEncrypt@M@@QAEXPAM@Z PROC	; CEncrypt<float>::DecryptValueToPool, COMDAT
; _this$ = ecx

; 1648 : 	{

  00000	55		 push	 ebp
  00001	8b ec		 mov	 ebp, esp
  00003	56		 push	 esi

; 1649 : 		m_RC5.DecryptByte( m_MemPool, m_TempMem, 4 );

  00004	8d 71 28	 lea	 esi, DWORD PTR [ecx+40]
  00007	6a 04		 push	 4
  00009	8d 41 1c	 lea	 eax, DWORD PTR [ecx+28]
  0000c	56		 push	 esi
  0000d	50		 push	 eax
  0000e	83 c1 0c	 add	 ecx, 12			; 0000000cH
  00011	e8 00 00 00 00	 call	 ?DecryptByte@ccddaabb@@QBEXPBDPADH@Z ; ccddaabb::DecryptByte

; 1650 : 		*value = *((float*)m_TempMem);

  00016	d9 06		 fld	 DWORD PTR [esi]
  00018	8b 45 08	 mov	 eax, DWORD PTR _value$[ebp]
  0001b	d9 18		 fstp	 DWORD PTR [eax]
  0001d	5e		 pop	 esi

; 1651 : 	}

  0001e	5d		 pop	 ebp
  0001f	c2 04 00	 ret	 4
?DecryptValueToPool@?$CEncrypt@M@@QAEXPAM@Z ENDP	; CEncrypt<float>::DecryptValueToPool
_TEXT	ENDS
PUBLIC	?EncryptValueToPool@?$CEncrypt@K@@AAEXPBD@Z	; CEncrypt<unsigned long>::EncryptValueToPool
; Function compile flags: /Ogsp
;	COMDAT ?EncryptValueToPool@?$CEncrypt@K@@AAEXPBD@Z
_TEXT	SEGMENT
_value$ = 8						; size = 4
?EncryptValueToPool@?$CEncrypt@K@@AAEXPBD@Z PROC	; CEncrypt<unsigned long>::EncryptValueToPool, COMDAT
; _this$ = ecx

; 67   : 	{

  00000	55		 push	 ebp
  00001	8b ec		 mov	 ebp, esp

; 68   : 		m_RC5.EncryptByte( value, m_MemPool, max(m_ValueSize, DEFAULT_ENCRYPT) );

  00003	0f b7 41 06	 movzx	 eax, WORD PTR [ecx+6]
  00007	83 f8 04	 cmp	 eax, 4
  0000a	77 03		 ja	 SHORT $LN4@EncryptVal@2
  0000c	6a 04		 push	 4
  0000e	58		 pop	 eax
$LN4@EncryptVal@2:
  0000f	50		 push	 eax
  00010	8d 41 1c	 lea	 eax, DWORD PTR [ecx+28]
  00013	50		 push	 eax
  00014	ff 75 08	 push	 DWORD PTR _value$[ebp]
  00017	83 c1 0c	 add	 ecx, 12			; 0000000cH
  0001a	e8 00 00 00 00	 call	 ?EncryptByte@ccddaabb@@QAEXPBDPADH@Z ; ccddaabb::EncryptByte

; 69   : 		
; 70   : 	}

  0001f	5d		 pop	 ebp
  00020	c2 04 00	 ret	 4
?EncryptValueToPool@?$CEncrypt@K@@AAEXPBD@Z ENDP	; CEncrypt<unsigned long>::EncryptValueToPool
_TEXT	ENDS
PUBLIC	?Init@?$CEncrypt@K@@AAEXXZ			; CEncrypt<unsigned long>::Init
; Function compile flags: /Ogsp
;	COMDAT ?Init@?$CEncrypt@K@@AAEXXZ
_TEXT	SEGMENT
_pid$ = -8						; size = 4
_tick$ = -4						; size = 4
?Init@?$CEncrypt@K@@AAEXXZ PROC				; CEncrypt<unsigned long>::Init, COMDAT
; _this$ = ecx

; 73   : 	{

  00000	55		 push	 ebp
  00001	8b ec		 mov	 ebp, esp
  00003	51		 push	 ecx
  00004	51		 push	 ecx
  00005	53		 push	 ebx
  00006	56		 push	 esi
  00007	57		 push	 edi
  00008	8b f1		 mov	 esi, ecx

; 74   : 		DWORD pid = GetCurrentProcessId();

  0000a	ff 15 00 00 00
	00		 call	 DWORD PTR __imp__GetCurrentProcessId@0
  00010	89 45 f8	 mov	 DWORD PTR _pid$[ebp], eax

; 75   : 		DWORD tick = timeGetTime();

  00013	ff 15 00 00 00
	00		 call	 DWORD PTR __imp__timeGetTime@0

; 76   : 		m_ValueSize    = sizeof(type);
; 77   : 		m_MemPoolPos   = (unsigned short)( rand()+pid+tick )%(MAX_MEM_POOL-m_ValueSize);

  00019	8b 3d 00 00 00
	00		 mov	 edi, DWORD PTR __imp__rand
  0001f	89 45 fc	 mov	 DWORD PTR _tick$[ebp], eax
  00022	6a 04		 push	 4
  00024	58		 pop	 eax
  00025	66 89 46 06	 mov	 WORD PTR [esi+6], ax
  00029	ff d7		 call	 edi
  0002b	03 45 f8	 add	 eax, DWORD PTR _pid$[ebp]
  0002e	0f b7 4e 06	 movzx	 ecx, WORD PTR [esi+6]
  00032	03 45 fc	 add	 eax, DWORD PTR _tick$[ebp]
  00035	6a 0c		 push	 12			; 0000000cH
  00037	0f b7 c0	 movzx	 eax, ax
  0003a	5b		 pop	 ebx
  0003b	99		 cdq
  0003c	2b d9		 sub	 ebx, ecx
  0003e	f7 fb		 idiv	 ebx
  00040	66 89 56 04	 mov	 WORD PTR [esi+4], dx

; 78   : 		m_EncryptSeed  = (char)( rand()+pid+tick )%256;

  00044	ff d7		 call	 edi
  00046	02 45 f8	 add	 al, BYTE PTR _pid$[ebp]
  00049	02 45 fc	 add	 al, BYTE PTR _tick$[ebp]
  0004c	0f be c0	 movsx	 eax, al
  0004f	25 ff 00 00 80	 and	 eax, -2147483393	; 800000ffH
  00054	79 07		 jns	 SHORT $LN8@Init@2
  00056	48		 dec	 eax
  00057	0d 00 ff ff ff	 or	 eax, -256		; ffffff00H
  0005c	40		 inc	 eax
$LN8@Init@2:
  0005d	88 46 08	 mov	 BYTE PTR [esi+8], al

; 79   : 
; 80   : 		for (int i = 0; i < MAX_MEM_POOL ; i++)

  00060	33 db		 xor	 ebx, ebx
$LL3@Init@2:

; 81   : 			m_MemPool[i] = (char)( rand()+pid+tick )%256; // 

  00062	ff d7		 call	 edi
  00064	02 45 f8	 add	 al, BYTE PTR _pid$[ebp]
  00067	02 45 fc	 add	 al, BYTE PTR _tick$[ebp]
  0006a	0f be c0	 movsx	 eax, al
  0006d	25 ff 00 00 80	 and	 eax, -2147483393	; 800000ffH
  00072	79 07		 jns	 SHORT $LN9@Init@2
  00074	48		 dec	 eax
  00075	0d 00 ff ff ff	 or	 eax, -256		; ffffff00H
  0007a	40		 inc	 eax
$LN9@Init@2:
  0007b	88 44 1e 1c	 mov	 BYTE PTR [esi+ebx+28], al
  0007f	43		 inc	 ebx
  00080	83 fb 0c	 cmp	 ebx, 12			; 0000000cH
  00083	7c dd		 jl	 SHORT $LL3@Init@2

; 82   : 
; 83   : 		//UJ 130913, : szKey  
; 84   : 		//char szKey[ccddaabb::KEY_SIZE];//="";
; 85   : 		//for (int i = 0; i < ccddaabb::KEY_SIZE  ; i++)
; 86   : 		//	szKey[i] = (char)( rand()+pid+tick )%256; // 
; 87   : 		m_RC5.Setup( NULL, pid, tick );

  00085	ff 75 fc	 push	 DWORD PTR _tick$[ebp]
  00088	8d 4e 0c	 lea	 ecx, DWORD PTR [esi+12]
  0008b	ff 75 f8	 push	 DWORD PTR _pid$[ebp]
  0008e	6a 00		 push	 0
  00090	e8 00 00 00 00	 call	 ?Setup@ccddaabb@@QAEXPBDHH@Z ; ccddaabb::Setup
  00095	5f		 pop	 edi
  00096	5e		 pop	 esi
  00097	5b		 pop	 ebx

; 88   : 
; 89   : #ifdef _NOTUSE
; 90   : 		m_value        = 0;
; 91   : 		EncryptValueToPool((char*)&m_value);
; 92   : 		Debug();
; 93   : #endif
; 94   : 	}

  00098	c9		 leave
  00099	c3		 ret	 0
?Init@?$CEncrypt@K@@AAEXXZ ENDP				; CEncrypt<unsigned long>::Init
_TEXT	ENDS
PUBLIC	?DecryptValueToPool@?$CEncrypt@K@@QAEXPAK@Z	; CEncrypt<unsigned long>::DecryptValueToPool
; Function compile flags: /Ogsp
;	COMDAT ?DecryptValueToPool@?$CEncrypt@K@@QAEXPAK@Z
_TEXT	SEGMENT
_value$ = 8						; size = 4
?DecryptValueToPool@?$CEncrypt@K@@QAEXPAK@Z PROC	; CEncrypt<unsigned long>::DecryptValueToPool, COMDAT
; _this$ = ecx

; 1256 : 	{

  00000	55		 push	 ebp
  00001	8b ec		 mov	 ebp, esp
  00003	56		 push	 esi

; 1257 : 		m_RC5.DecryptByte( m_MemPool, m_TempMem, 4 );

  00004	8d 71 28	 lea	 esi, DWORD PTR [ecx+40]
  00007	6a 04		 push	 4
  00009	8d 41 1c	 lea	 eax, DWORD PTR [ecx+28]
  0000c	56		 push	 esi
  0000d	50		 push	 eax
  0000e	83 c1 0c	 add	 ecx, 12			; 0000000cH
  00011	e8 00 00 00 00	 call	 ?DecryptByte@ccddaabb@@QBEXPBDPADH@Z ; ccddaabb::DecryptByte

; 1258 : 		*value = *((DWORD*)m_TempMem);

  00016	8b 06		 mov	 eax, DWORD PTR [esi]
  00018	8b 4d 08	 mov	 ecx, DWORD PTR _value$[ebp]
  0001b	89 01		 mov	 DWORD PTR [ecx], eax
  0001d	5e		 pop	 esi

; 1259 : 	}

  0001e	5d		 pop	 ebp
  0001f	c2 04 00	 ret	 4
?DecryptValueToPool@?$CEncrypt@K@@QAEXPAK@Z ENDP	; CEncrypt<unsigned long>::DecryptValueToPool
_TEXT	ENDS
PUBLIC	?EncryptValueToPool@?$CEncrypt@_N@@AAEXPBD@Z	; CEncrypt<bool>::EncryptValueToPool
; Function compile flags: /Ogsp
;	COMDAT ?EncryptValueToPool@?$CEncrypt@_N@@AAEXPBD@Z
_TEXT	SEGMENT
_value$ = 8						; size = 4
?EncryptValueToPool@?$CEncrypt@_N@@AAEXPBD@Z PROC	; CEncrypt<bool>::EncryptValueToPool, COMDAT
; _this$ = ecx

; 67   : 	{

  00000	55		 push	 ebp
  00001	8b ec		 mov	 ebp, esp

; 68   : 		m_RC5.EncryptByte( value, m_MemPool, max(m_ValueSize, DEFAULT_ENCRYPT) );

  00003	0f b7 41 06	 movzx	 eax, WORD PTR [ecx+6]
  00007	83 f8 04	 cmp	 eax, 4
  0000a	77 03		 ja	 SHORT $LN4@EncryptVal@3
  0000c	6a 04		 push	 4
  0000e	58		 pop	 eax
$LN4@EncryptVal@3:
  0000f	50		 push	 eax
  00010	8d 41 1c	 lea	 eax, DWORD PTR [ecx+28]
  00013	50		 push	 eax
  00014	ff 75 08	 push	 DWORD PTR _value$[ebp]
  00017	83 c1 0c	 add	 ecx, 12			; 0000000cH
  0001a	e8 00 00 00 00	 call	 ?EncryptByte@ccddaabb@@QAEXPBDPADH@Z ; ccddaabb::EncryptByte

; 69   : 		
; 70   : 	}

  0001f	5d		 pop	 ebp
  00020	c2 04 00	 ret	 4
?EncryptValueToPool@?$CEncrypt@_N@@AAEXPBD@Z ENDP	; CEncrypt<bool>::EncryptValueToPool
_TEXT	ENDS
PUBLIC	?Init@?$CEncrypt@_N@@AAEXXZ			; CEncrypt<bool>::Init
; Function compile flags: /Ogsp
;	COMDAT ?Init@?$CEncrypt@_N@@AAEXXZ
_TEXT	SEGMENT
_pid$ = -8						; size = 4
_tick$ = -4						; size = 4
?Init@?$CEncrypt@_N@@AAEXXZ PROC			; CEncrypt<bool>::Init, COMDAT
; _this$ = ecx

; 73   : 	{

  00000	55		 push	 ebp
  00001	8b ec		 mov	 ebp, esp
  00003	51		 push	 ecx
  00004	51		 push	 ecx
  00005	53		 push	 ebx
  00006	56		 push	 esi
  00007	57		 push	 edi
  00008	8b f1		 mov	 esi, ecx

; 74   : 		DWORD pid = GetCurrentProcessId();

  0000a	ff 15 00 00 00
	00		 call	 DWORD PTR __imp__GetCurrentProcessId@0
  00010	89 45 f8	 mov	 DWORD PTR _pid$[ebp], eax

; 75   : 		DWORD tick = timeGetTime();

  00013	ff 15 00 00 00
	00		 call	 DWORD PTR __imp__timeGetTime@0

; 76   : 		m_ValueSize    = sizeof(type);
; 77   : 		m_MemPoolPos   = (unsigned short)( rand()+pid+tick )%(MAX_MEM_POOL-m_ValueSize);

  00019	8b 3d 00 00 00
	00		 mov	 edi, DWORD PTR __imp__rand
  0001f	89 45 fc	 mov	 DWORD PTR _tick$[ebp], eax
  00022	33 c0		 xor	 eax, eax
  00024	40		 inc	 eax
  00025	66 89 46 06	 mov	 WORD PTR [esi+6], ax
  00029	ff d7		 call	 edi
  0002b	03 45 f8	 add	 eax, DWORD PTR _pid$[ebp]
  0002e	0f b7 4e 06	 movzx	 ecx, WORD PTR [esi+6]
  00032	03 45 fc	 add	 eax, DWORD PTR _tick$[ebp]
  00035	6a 0c		 push	 12			; 0000000cH
  00037	0f b7 c0	 movzx	 eax, ax
  0003a	5b		 pop	 ebx
  0003b	99		 cdq
  0003c	2b d9		 sub	 ebx, ecx
  0003e	f7 fb		 idiv	 ebx
  00040	66 89 56 04	 mov	 WORD PTR [esi+4], dx

; 78   : 		m_EncryptSeed  = (char)( rand()+pid+tick )%256;

  00044	ff d7		 call	 edi
  00046	02 45 f8	 add	 al, BYTE PTR _pid$[ebp]
  00049	02 45 fc	 add	 al, BYTE PTR _tick$[ebp]
  0004c	0f be c0	 movsx	 eax, al
  0004f	25 ff 00 00 80	 and	 eax, -2147483393	; 800000ffH
  00054	79 07		 jns	 SHORT $LN8@Init@3
  00056	48		 dec	 eax
  00057	0d 00 ff ff ff	 or	 eax, -256		; ffffff00H
  0005c	40		 inc	 eax
$LN8@Init@3:
  0005d	88 46 08	 mov	 BYTE PTR [esi+8], al

; 79   : 
; 80   : 		for (int i = 0; i < MAX_MEM_POOL ; i++)

  00060	33 db		 xor	 ebx, ebx
$LL3@Init@3:

; 81   : 			m_MemPool[i] = (char)( rand()+pid+tick )%256; // 

  00062	ff d7		 call	 edi
  00064	02 45 f8	 add	 al, BYTE PTR _pid$[ebp]
  00067	02 45 fc	 add	 al, BYTE PTR _tick$[ebp]
  0006a	0f be c0	 movsx	 eax, al
  0006d	25 ff 00 00 80	 and	 eax, -2147483393	; 800000ffH
  00072	79 07		 jns	 SHORT $LN9@Init@3
  00074	48		 dec	 eax
  00075	0d 00 ff ff ff	 or	 eax, -256		; ffffff00H
  0007a	40		 inc	 eax
$LN9@Init@3:
  0007b	88 44 1e 1c	 mov	 BYTE PTR [esi+ebx+28], al
  0007f	43		 inc	 ebx
  00080	83 fb 0c	 cmp	 ebx, 12			; 0000000cH
  00083	7c dd		 jl	 SHORT $LL3@Init@3

; 82   : 
; 83   : 		//UJ 130913, : szKey  
; 84   : 		//char szKey[ccddaabb::KEY_SIZE];//="";
; 85   : 		//for (int i = 0; i < ccddaabb::KEY_SIZE  ; i++)
; 86   : 		//	szKey[i] = (char)( rand()+pid+tick )%256; // 
; 87   : 		m_RC5.Setup( NULL, pid, tick );

  00085	ff 75 fc	 push	 DWORD PTR _tick$[ebp]
  00088	8d 4e 0c	 lea	 ecx, DWORD PTR [esi+12]
  0008b	ff 75 f8	 push	 DWORD PTR _pid$[ebp]
  0008e	6a 00		 push	 0
  00090	e8 00 00 00 00	 call	 ?Setup@ccddaabb@@QAEXPBDHH@Z ; ccddaabb::Setup
  00095	5f		 pop	 edi
  00096	5e		 pop	 esi
  00097	5b		 pop	 ebx

; 88   : 
; 89   : #ifdef _NOTUSE
; 90   : 		m_value        = 0;
; 91   : 		EncryptValueToPool((char*)&m_value);
; 92   : 		Debug();
; 93   : #endif
; 94   : 	}

  00098	c9		 leave
  00099	c3		 ret	 0
?Init@?$CEncrypt@_N@@AAEXXZ ENDP			; CEncrypt<bool>::Init
_TEXT	ENDS
PUBLIC	?DecryptValueToPool@?$CEncrypt@_N@@QAEXPA_N@Z	; CEncrypt<bool>::DecryptValueToPool
; Function compile flags: /Ogsp
;	COMDAT ?DecryptValueToPool@?$CEncrypt@_N@@QAEXPA_N@Z
_TEXT	SEGMENT
_value$ = 8						; size = 4
?DecryptValueToPool@?$CEncrypt@_N@@QAEXPA_N@Z PROC	; CEncrypt<bool>::DecryptValueToPool, COMDAT
; _this$ = ecx

; 219  : 	{

  00000	55		 push	 ebp
  00001	8b ec		 mov	 ebp, esp
  00003	56		 push	 esi

; 220  : 		m_RC5.DecryptByte( m_MemPool, m_TempMem, 4 );

  00004	8d 71 28	 lea	 esi, DWORD PTR [ecx+40]
  00007	6a 04		 push	 4
  00009	8d 41 1c	 lea	 eax, DWORD PTR [ecx+28]
  0000c	56		 push	 esi
  0000d	50		 push	 eax
  0000e	83 c1 0c	 add	 ecx, 12			; 0000000cH
  00011	e8 00 00 00 00	 call	 ?DecryptByte@ccddaabb@@QBEXPBDPADH@Z ; ccddaabb::DecryptByte

; 221  : 		*value = *((bool*)m_TempMem);

  00016	8a 06		 mov	 al, BYTE PTR [esi]
  00018	8b 4d 08	 mov	 ecx, DWORD PTR _value$[ebp]
  0001b	88 01		 mov	 BYTE PTR [ecx], al
  0001d	5e		 pop	 esi

; 222  : 	}

  0001e	5d		 pop	 ebp
  0001f	c2 04 00	 ret	 4
?DecryptValueToPool@?$CEncrypt@_N@@QAEXPA_N@Z ENDP	; CEncrypt<bool>::DecryptValueToPool
_TEXT	ENDS
PUBLIC	?EncryptValueToPool@?$CEncrypt@H@@AAEXPBD@Z	; CEncrypt<int>::EncryptValueToPool
; Function compile flags: /Ogsp
;	COMDAT ?EncryptValueToPool@?$CEncrypt@H@@AAEXPBD@Z
_TEXT	SEGMENT
_value$ = 8						; size = 4
?EncryptValueToPool@?$CEncrypt@H@@AAEXPBD@Z PROC	; CEncrypt<int>::EncryptValueToPool, COMDAT
; _this$ = ecx

; 67   : 	{

  00000	55		 push	 ebp
  00001	8b ec		 mov	 ebp, esp

; 68   : 		m_RC5.EncryptByte( value, m_MemPool, max(m_ValueSize, DEFAULT_ENCRYPT) );

  00003	0f b7 41 06	 movzx	 eax, WORD PTR [ecx+6]
  00007	83 f8 04	 cmp	 eax, 4
  0000a	77 03		 ja	 SHORT $LN4@EncryptVal@4
  0000c	6a 04		 push	 4
  0000e	58		 pop	 eax
$LN4@EncryptVal@4:
  0000f	50		 push	 eax
  00010	8d 41 1c	 lea	 eax, DWORD PTR [ecx+28]
  00013	50		 push	 eax
  00014	ff 75 08	 push	 DWORD PTR _value$[ebp]
  00017	83 c1 0c	 add	 ecx, 12			; 0000000cH
  0001a	e8 00 00 00 00	 call	 ?EncryptByte@ccddaabb@@QAEXPBDPADH@Z ; ccddaabb::EncryptByte

; 69   : 		
; 70   : 	}

  0001f	5d		 pop	 ebp
  00020	c2 04 00	 ret	 4
?EncryptValueToPool@?$CEncrypt@H@@AAEXPBD@Z ENDP	; CEncrypt<int>::EncryptValueToPool
_TEXT	ENDS
PUBLIC	?Init@?$CEncrypt@H@@AAEXXZ			; CEncrypt<int>::Init
; Function compile flags: /Ogsp
;	COMDAT ?Init@?$CEncrypt@H@@AAEXXZ
_TEXT	SEGMENT
_pid$ = -8						; size = 4
_tick$ = -4						; size = 4
?Init@?$CEncrypt@H@@AAEXXZ PROC				; CEncrypt<int>::Init, COMDAT
; _this$ = ecx

; 73   : 	{

  00000	55		 push	 ebp
  00001	8b ec		 mov	 ebp, esp
  00003	51		 push	 ecx
  00004	51		 push	 ecx
  00005	53		 push	 ebx
  00006	56		 push	 esi
  00007	57		 push	 edi
  00008	8b f1		 mov	 esi, ecx

; 74   : 		DWORD pid = GetCurrentProcessId();

  0000a	ff 15 00 00 00
	00		 call	 DWORD PTR __imp__GetCurrentProcessId@0
  00010	89 45 f8	 mov	 DWORD PTR _pid$[ebp], eax

; 75   : 		DWORD tick = timeGetTime();

  00013	ff 15 00 00 00
	00		 call	 DWORD PTR __imp__timeGetTime@0

; 76   : 		m_ValueSize    = sizeof(type);
; 77   : 		m_MemPoolPos   = (unsigned short)( rand()+pid+tick )%(MAX_MEM_POOL-m_ValueSize);

  00019	8b 3d 00 00 00
	00		 mov	 edi, DWORD PTR __imp__rand
  0001f	89 45 fc	 mov	 DWORD PTR _tick$[ebp], eax
  00022	6a 04		 push	 4
  00024	58		 pop	 eax
  00025	66 89 46 06	 mov	 WORD PTR [esi+6], ax
  00029	ff d7		 call	 edi
  0002b	03 45 f8	 add	 eax, DWORD PTR _pid$[ebp]
  0002e	0f b7 4e 06	 movzx	 ecx, WORD PTR [esi+6]
  00032	03 45 fc	 add	 eax, DWORD PTR _tick$[ebp]
  00035	6a 0c		 push	 12			; 0000000cH
  00037	0f b7 c0	 movzx	 eax, ax
  0003a	5b		 pop	 ebx
  0003b	99		 cdq
  0003c	2b d9		 sub	 ebx, ecx
  0003e	f7 fb		 idiv	 ebx
  00040	66 89 56 04	 mov	 WORD PTR [esi+4], dx

; 78   : 		m_EncryptSeed  = (char)( rand()+pid+tick )%256;

  00044	ff d7		 call	 edi
  00046	02 45 f8	 add	 al, BYTE PTR _pid$[ebp]
  00049	02 45 fc	 add	 al, BYTE PTR _tick$[ebp]
  0004c	0f be c0	 movsx	 eax, al
  0004f	25 ff 00 00 80	 and	 eax, -2147483393	; 800000ffH
  00054	79 07		 jns	 SHORT $LN8@Init@4
  00056	48		 dec	 eax
  00057	0d 00 ff ff ff	 or	 eax, -256		; ffffff00H
  0005c	40		 inc	 eax
$LN8@Init@4:
  0005d	88 46 08	 mov	 BYTE PTR [esi+8], al

; 79   : 
; 80   : 		for (int i = 0; i < MAX_MEM_POOL ; i++)

  00060	33 db		 xor	 ebx, ebx
$LL3@Init@4:

; 81   : 			m_MemPool[i] = (char)( rand()+pid+tick )%256; // 

  00062	ff d7		 call	 edi
  00064	02 45 f8	 add	 al, BYTE PTR _pid$[ebp]
  00067	02 45 fc	 add	 al, BYTE PTR _tick$[ebp]
  0006a	0f be c0	 movsx	 eax, al
  0006d	25 ff 00 00 80	 and	 eax, -2147483393	; 800000ffH
  00072	79 07		 jns	 SHORT $LN9@Init@4
  00074	48		 dec	 eax
  00075	0d 00 ff ff ff	 or	 eax, -256		; ffffff00H
  0007a	40		 inc	 eax
$LN9@Init@4:
  0007b	88 44 1e 1c	 mov	 BYTE PTR [esi+ebx+28], al
  0007f	43		 inc	 ebx
  00080	83 fb 0c	 cmp	 ebx, 12			; 0000000cH
  00083	7c dd		 jl	 SHORT $LL3@Init@4

; 82   : 
; 83   : 		//UJ 130913, : szKey  
; 84   : 		//char szKey[ccddaabb::KEY_SIZE];//="";
; 85   : 		//for (int i = 0; i < ccddaabb::KEY_SIZE  ; i++)
; 86   : 		//	szKey[i] = (char)( rand()+pid+tick )%256; // 
; 87   : 		m_RC5.Setup( NULL, pid, tick );

  00085	ff 75 fc	 push	 DWORD PTR _tick$[ebp]
  00088	8d 4e 0c	 lea	 ecx, DWORD PTR [esi+12]
  0008b	ff 75 f8	 push	 DWORD PTR _pid$[ebp]
  0008e	6a 00		 push	 0
  00090	e8 00 00 00 00	 call	 ?Setup@ccddaabb@@QAEXPBDHH@Z ; ccddaabb::Setup
  00095	5f		 pop	 edi
  00096	5e		 pop	 esi
  00097	5b		 pop	 ebx

; 88   : 
; 89   : #ifdef _NOTUSE
; 90   : 		m_value        = 0;
; 91   : 		EncryptValueToPool((char*)&m_value);
; 92   : 		Debug();
; 93   : #endif
; 94   : 	}

  00098	c9		 leave
  00099	c3		 ret	 0
?Init@?$CEncrypt@H@@AAEXXZ ENDP				; CEncrypt<int>::Init
_TEXT	ENDS
PUBLIC	?DecryptValueToPool@?$CEncrypt@H@@QAEXPAH@Z	; CEncrypt<int>::DecryptValueToPool
; Function compile flags: /Ogsp
;	COMDAT ?DecryptValueToPool@?$CEncrypt@H@@QAEXPAH@Z
_TEXT	SEGMENT
_value$ = 8						; size = 4
?DecryptValueToPool@?$CEncrypt@H@@QAEXPAH@Z PROC	; CEncrypt<int>::DecryptValueToPool, COMDAT
; _this$ = ecx

; 837  : 	{

  00000	55		 push	 ebp
  00001	8b ec		 mov	 ebp, esp
  00003	56		 push	 esi

; 838  : 		m_RC5.DecryptByte( m_MemPool, m_TempMem, 4 );

  00004	8d 71 28	 lea	 esi, DWORD PTR [ecx+40]
  00007	6a 04		 push	 4
  00009	8d 41 1c	 lea	 eax, DWORD PTR [ecx+28]
  0000c	56		 push	 esi
  0000d	50		 push	 eax
  0000e	83 c1 0c	 add	 ecx, 12			; 0000000cH
  00011	e8 00 00 00 00	 call	 ?DecryptByte@ccddaabb@@QBEXPBDPADH@Z ; ccddaabb::DecryptByte

; 839  : 		*value = *((int*)m_TempMem);

  00016	8b 06		 mov	 eax, DWORD PTR [esi]
  00018	8b 4d 08	 mov	 ecx, DWORD PTR _value$[ebp]
  0001b	89 01		 mov	 DWORD PTR [ecx], eax
  0001d	5e		 pop	 esi

; 840  : 	}

  0001e	5d		 pop	 ebp
  0001f	c2 04 00	 ret	 4
?DecryptValueToPool@?$CEncrypt@H@@QAEXPAH@Z ENDP	; CEncrypt<int>::DecryptValueToPool
_TEXT	ENDS
PUBLIC	?_Inside@?$vector@KV?$allocator@K@std@@@std@@IBE_NPBK@Z ; std::vector<unsigned long,std::allocator<unsigned long> >::_Inside
; Function compile flags: /Ogsp
; File c:\program files (x86)\microsoft visual studio 10.0\vc\include\vector
;	COMDAT ?_Inside@?$vector@KV?$allocator@K@std@@@std@@IBE_NPBK@Z
_TEXT	SEGMENT
__Ptr$ = 8						; size = 4
?_Inside@?$vector@KV?$allocator@K@std@@@std@@IBE_NPBK@Z PROC ; std::vector<unsigned long,std::allocator<unsigned long> >::_Inside, COMDAT
; _this$ = ecx

; 1285 : 		{	// test if _Ptr points inside vector

  00000	55		 push	 ebp
  00001	8b ec		 mov	 ebp, esp

; 1286 : 		return (_Ptr < this->_Mylast && this->_Myfirst <= _Ptr);

  00003	8b 45 08	 mov	 eax, DWORD PTR __Ptr$[ebp]
  00006	3b 41 04	 cmp	 eax, DWORD PTR [ecx+4]
  00009	73 09		 jae	 SHORT $LN3@Inside@3
  0000b	39 01		 cmp	 DWORD PTR [ecx], eax
  0000d	77 05		 ja	 SHORT $LN3@Inside@3
  0000f	33 c0		 xor	 eax, eax
  00011	40		 inc	 eax
  00012	eb 02		 jmp	 SHORT $LN4@Inside@3
$LN3@Inside@3:
  00014	33 c0		 xor	 eax, eax
$LN4@Inside@3:

; 1287 : 		}

  00016	5d		 pop	 ebp
  00017	c2 04 00	 ret	 4
?_Inside@?$vector@KV?$allocator@K@std@@@std@@IBE_NPBK@Z ENDP ; std::vector<unsigned long,std::allocator<unsigned long> >::_Inside
_TEXT	ENDS
PUBLIC	?_Orphan_range@?$vector@KV?$allocator@K@std@@@std@@IBEXPAK0@Z ; std::vector<unsigned long,std::allocator<unsigned long> >::_Orphan_range
; Function compile flags: /Ogsp
;	COMDAT ?_Orphan_range@?$vector@KV?$allocator@K@std@@@std@@IBEXPAK0@Z
_TEXT	SEGMENT
___formal$ = 8						; size = 4
___formal$ = 12						; size = 4
?_Orphan_range@?$vector@KV?$allocator@K@std@@@std@@IBEXPAK0@Z PROC ; std::vector<unsigned long,std::allocator<unsigned long> >::_Orphan_range, COMDAT
; _this$ = ecx

; 1454 : 		}

  00000	c2 08 00	 ret	 8
?_Orphan_range@?$vector@KV?$allocator@K@std@@@std@@IBEXPAK0@Z ENDP ; std::vector<unsigned long,std::allocator<unsigned long> >::_Orphan_range
_TEXT	ENDS
PUBLIC	??1?$_Vector_val@KV?$allocator@K@std@@@std@@QAE@XZ ; std::_Vector_val<unsigned long,std::allocator<unsigned long> >::~_Vector_val<unsigned long,std::allocator<unsigned long> >
; Function compile flags: /Ogsp
;	COMDAT ??1?$_Vector_val@KV?$allocator@K@std@@@std@@QAE@XZ
_TEXT	SEGMENT
??1?$_Vector_val@KV?$allocator@K@std@@@std@@QAE@XZ PROC	; std::_Vector_val<unsigned long,std::allocator<unsigned long> >::~_Vector_val<unsigned long,std::allocator<unsigned long> >, COMDAT
; _this$ = ecx

; 434  : 		}

  00000	c3		 ret	 0
??1?$_Vector_val@KV?$allocator@K@std@@@std@@QAE@XZ ENDP	; std::_Vector_val<unsigned long,std::allocator<unsigned long> >::~_Vector_val<unsigned long,std::allocator<unsigned long> >
_TEXT	ENDS
PUBLIC	??0?$allocator@K@std@@QAE@XZ			; std::allocator<unsigned long>::allocator<unsigned long>
; Function compile flags: /Ogsp
; File c:\program files (x86)\microsoft visual studio 10.0\vc\include\xmemory
;	COMDAT ??0?$allocator@K@std@@QAE@XZ
_TEXT	SEGMENT
??0?$allocator@K@std@@QAE@XZ PROC			; std::allocator<unsigned long>::allocator<unsigned long>, COMDAT
; _this$ = ecx

; 161  : 	_ALLOCATOR() _THROW0()

  00000	8b c1		 mov	 eax, ecx

; 162  : 		{	// construct default allocator (do nothing)
; 163  : 		}

  00002	c3		 ret	 0
??0?$allocator@K@std@@QAE@XZ ENDP			; std::allocator<unsigned long>::allocator<unsigned long>
_TEXT	ENDS
PUBLIC	?capacity@?$vector@UBuffInfoStruct@@V?$allocator@UBuffInfoStruct@@@std@@@std@@QBEIXZ ; std::vector<BuffInfoStruct,std::allocator<BuffInfoStruct> >::capacity
; Function compile flags: /Ogsp
; File c:\program files (x86)\microsoft visual studio 10.0\vc\include\vector
;	COMDAT ?capacity@?$vector@UBuffInfoStruct@@V?$allocator@UBuffInfoStruct@@@std@@@std@@QBEIXZ
_TEXT	SEGMENT
?capacity@?$vector@UBuffInfoStruct@@V?$allocator@UBuffInfoStruct@@@std@@@std@@QBEIXZ PROC ; std::vector<BuffInfoStruct,std::allocator<BuffInfoStruct> >::capacity, COMDAT
; _this$ = ecx

; 777  : 		return (this->_Myend - this->_Myfirst);

  00000	8b 41 08	 mov	 eax, DWORD PTR [ecx+8]
  00003	2b 01		 sub	 eax, DWORD PTR [ecx]
  00005	6a 14		 push	 20			; 00000014H
  00007	99		 cdq
  00008	59		 pop	 ecx
  00009	f7 f9		 idiv	 ecx

; 778  : 		}

  0000b	c3		 ret	 0
?capacity@?$vector@UBuffInfoStruct@@V?$allocator@UBuffInfoStruct@@@std@@@std@@QBEIXZ ENDP ; std::vector<BuffInfoStruct,std::allocator<BuffInfoStruct> >::capacity
_TEXT	ENDS
PUBLIC	?size@?$vector@UBuffInfoStruct@@V?$allocator@UBuffInfoStruct@@@std@@@std@@QBEIXZ ; std::vector<BuffInfoStruct,std::allocator<BuffInfoStruct> >::size
; Function compile flags: /Ogsp
;	COMDAT ?size@?$vector@UBuffInfoStruct@@V?$allocator@UBuffInfoStruct@@@std@@@std@@QBEIXZ
_TEXT	SEGMENT
?size@?$vector@UBuffInfoStruct@@V?$allocator@UBuffInfoStruct@@@std@@@std@@QBEIXZ PROC ; std::vector<BuffInfoStruct,std::allocator<BuffInfoStruct> >::size, COMDAT
; _this$ = ecx

; 879  : 		return (this->_Mylast - this->_Myfirst);

  00000	8b 41 04	 mov	 eax, DWORD PTR [ecx+4]
  00003	2b 01		 sub	 eax, DWORD PTR [ecx]
  00005	6a 14		 push	 20			; 00000014H
  00007	99		 cdq
  00008	59		 pop	 ecx
  00009	f7 f9		 idiv	 ecx

; 880  : 		}

  0000b	c3		 ret	 0
?size@?$vector@UBuffInfoStruct@@V?$allocator@UBuffInfoStruct@@@std@@@std@@QBEIXZ ENDP ; std::vector<BuffInfoStruct,std::allocator<BuffInfoStruct> >::size
_TEXT	ENDS
PUBLIC	??1?$_Vector_val@UBuffInfoStruct@@V?$allocator@UBuffInfoStruct@@@std@@@std@@QAE@XZ ; std::_Vector_val<BuffInfoStruct,std::allocator<BuffInfoStruct> >::~_Vector_val<BuffInfoStruct,std::allocator<BuffInfoStruct> >
; Function compile flags: /Ogsp
;	COMDAT ??1?$_Vector_val@UBuffInfoStruct@@V?$allocator@UBuffInfoStruct@@@std@@@std@@QAE@XZ
_TEXT	SEGMENT
??1?$_Vector_val@UBuffInfoStruct@@V?$allocator@UBuffInfoStruct@@@std@@@std@@QAE@XZ PROC ; std::_Vector_val<BuffInfoStruct,std::allocator<BuffInfoStruct> >::~_Vector_val<BuffInfoStruct,std::allocator<BuffInfoStruct> >, COMDAT
; _this$ = ecx

; 434  : 		}

  00000	c3		 ret	 0
??1?$_Vector_val@UBuffInfoStruct@@V?$allocator@UBuffInfoStruct@@@std@@@std@@QAE@XZ ENDP ; std::_Vector_val<BuffInfoStruct,std::allocator<BuffInfoStruct> >::~_Vector_val<BuffInfoStruct,std::allocator<BuffInfoStruct> >
_TEXT	ENDS
PUBLIC	??0?$allocator@UBuffInfoStruct@@@std@@QAE@XZ	; std::allocator<BuffInfoStruct>::allocator<BuffInfoStruct>
; Function compile flags: /Ogsp
; File c:\program files (x86)\microsoft visual studio 10.0\vc\include\xmemory
;	COMDAT ??0?$allocator@UBuffInfoStruct@@@std@@QAE@XZ
_TEXT	SEGMENT
??0?$allocator@UBuffInfoStruct@@@std@@QAE@XZ PROC	; std::allocator<BuffInfoStruct>::allocator<BuffInfoStruct>, COMDAT
; _this$ = ecx

; 161  : 	_ALLOCATOR() _THROW0()

  00000	8b c1		 mov	 eax, ecx

; 162  : 		{	// construct default allocator (do nothing)
; 163  : 		}

  00002	c3		 ret	 0
??0?$allocator@UBuffInfoStruct@@@std@@QAE@XZ ENDP	; std::allocator<BuffInfoStruct>::allocator<BuffInfoStruct>
_TEXT	ENDS
PUBLIC	?deallocate@?$allocator@UBuffInfoStruct@@@std@@QAEXPAUBuffInfoStruct@@I@Z ; std::allocator<BuffInfoStruct>::deallocate
; Function compile flags: /Ogsp
;	COMDAT ?deallocate@?$allocator@UBuffInfoStruct@@@std@@QAEXPAUBuffInfoStruct@@I@Z
_TEXT	SEGMENT
__Ptr$ = 8						; size = 4
___formal$ = 12						; size = 4
?deallocate@?$allocator@UBuffInfoStruct@@@std@@QAEXPAUBuffInfoStruct@@I@Z PROC ; std::allocator<BuffInfoStruct>::deallocate, COMDAT
; _this$ = ecx

; 181  : 		{	// deallocate object at _Ptr, ignore size

  00000	55		 push	 ebp
  00001	8b ec		 mov	 ebp, esp

; 182  : 		::operator delete(_Ptr);

  00003	ff 75 08	 push	 DWORD PTR __Ptr$[ebp]
  00006	e8 00 00 00 00	 call	 ??3@YAXPAX@Z		; operator delete
  0000b	59		 pop	 ecx

; 183  : 		}

  0000c	5d		 pop	 ebp
  0000d	c2 08 00	 ret	 8
?deallocate@?$allocator@UBuffInfoStruct@@@std@@QAEXPAUBuffInfoStruct@@I@Z ENDP ; std::allocator<BuffInfoStruct>::deallocate
_TEXT	ENDS
PUBLIC	??0?$allocator@M@std@@QAE@ABV01@@Z		; std::allocator<float>::allocator<float>
; Function compile flags: /Ogsp
;	COMDAT ??0?$allocator@M@std@@QAE@ABV01@@Z
_TEXT	SEGMENT
___formal$ = 8						; size = 4
??0?$allocator@M@std@@QAE@ABV01@@Z PROC			; std::allocator<float>::allocator<float>, COMDAT
; _this$ = ecx

; 165  : 	_ALLOCATOR(const _ALLOCATOR<_Ty>&) _THROW0()

  00000	8b c1		 mov	 eax, ecx

; 166  : 		{	// construct by copying (do nothing)
; 167  : 		}

  00002	c2 04 00	 ret	 4
??0?$allocator@M@std@@QAE@ABV01@@Z ENDP			; std::allocator<float>::allocator<float>
_TEXT	ENDS
PUBLIC	?deallocate@?$allocator@M@std@@QAEXPAMI@Z	; std::allocator<float>::deallocate
; Function compile flags: /Ogsp
;	COMDAT ?deallocate@?$allocator@M@std@@QAEXPAMI@Z
_TEXT	SEGMENT
__Ptr$ = 8						; size = 4
___formal$ = 12						; size = 4
?deallocate@?$allocator@M@std@@QAEXPAMI@Z PROC		; std::allocator<float>::deallocate, COMDAT
; _this$ = ecx

; 181  : 		{	// deallocate object at _Ptr, ignore size

  00000	55		 push	 ebp
  00001	8b ec		 mov	 ebp, esp

; 182  : 		::operator delete(_Ptr);

  00003	ff 75 08	 push	 DWORD PTR __Ptr$[ebp]
  00006	e8 00 00 00 00	 call	 ??3@YAXPAX@Z		; operator delete
  0000b	59		 pop	 ecx

; 183  : 		}

  0000c	5d		 pop	 ebp
  0000d	c2 08 00	 ret	 8
?deallocate@?$allocator@M@std@@QAEXPAMI@Z ENDP		; std::allocator<float>::deallocate
_TEXT	ENDS
PUBLIC	?capacity@?$vector@KV?$allocator@K@std@@@std@@QBEIXZ ; std::vector<unsigned long,std::allocator<unsigned long> >::capacity
; Function compile flags: /Ogsp
; File c:\program files (x86)\microsoft visual studio 10.0\vc\include\vector
;	COMDAT ?capacity@?$vector@KV?$allocator@K@std@@@std@@QBEIXZ
_TEXT	SEGMENT
?capacity@?$vector@KV?$allocator@K@std@@@std@@QBEIXZ PROC ; std::vector<unsigned long,std::allocator<unsigned long> >::capacity, COMDAT
; _this$ = ecx

; 777  : 		return (this->_Myend - this->_Myfirst);

  00000	8b 41 08	 mov	 eax, DWORD PTR [ecx+8]
  00003	2b 01		 sub	 eax, DWORD PTR [ecx]
  00005	c1 f8 02	 sar	 eax, 2

; 778  : 		}

  00008	c3		 ret	 0
?capacity@?$vector@KV?$allocator@K@std@@@std@@QBEIXZ ENDP ; std::vector<unsigned long,std::allocator<unsigned long> >::capacity
_TEXT	ENDS
PUBLIC	?_Xlen@?$vector@KV?$allocator@K@std@@@std@@IBEXXZ ; std::vector<unsigned long,std::allocator<unsigned long> >::_Xlen
; Function compile flags: /Ogsp
;	COMDAT ?_Xlen@?$vector@KV?$allocator@K@std@@@std@@IBEXXZ
_TEXT	SEGMENT
?_Xlen@?$vector@KV?$allocator@K@std@@@std@@IBEXXZ PROC	; std::vector<unsigned long,std::allocator<unsigned long> >::_Xlen, COMDAT
; _this$ = ecx

; 1427 : 		_Xlength_error("vector<T> too long");

  00000	68 00 00 00 00	 push	 OFFSET ??_C@_0BD@OLBABOEK@vector?$DMT?$DO?5too?5long?$AA@
  00005	ff 15 00 00 00
	00		 call	 DWORD PTR __imp_?_Xlength_error@std@@YAXPBD@Z
$LN4@Xlen@2:
$LN3@Xlen@2:
  0000b	cc		 int	 3
?_Xlen@?$vector@KV?$allocator@K@std@@@std@@IBEXXZ ENDP	; std::vector<unsigned long,std::allocator<unsigned long> >::_Xlen
_TEXT	ENDS
PUBLIC	??0?$allocator@K@std@@QAE@ABV01@@Z		; std::allocator<unsigned long>::allocator<unsigned long>
; Function compile flags: /Ogsp
; File c:\program files (x86)\microsoft visual studio 10.0\vc\include\xmemory
;	COMDAT ??0?$allocator@K@std@@QAE@ABV01@@Z
_TEXT	SEGMENT
___formal$ = 8						; size = 4
??0?$allocator@K@std@@QAE@ABV01@@Z PROC			; std::allocator<unsigned long>::allocator<unsigned long>, COMDAT
; _this$ = ecx

; 165  : 	_ALLOCATOR(const _ALLOCATOR<_Ty>&) _THROW0()

  00000	8b c1		 mov	 eax, ecx

; 166  : 		{	// construct by copying (do nothing)
; 167  : 		}

  00002	c2 04 00	 ret	 4
??0?$allocator@K@std@@QAE@ABV01@@Z ENDP			; std::allocator<unsigned long>::allocator<unsigned long>
_TEXT	ENDS
PUBLIC	?deallocate@?$allocator@K@std@@QAEXPAKI@Z	; std::allocator<unsigned long>::deallocate
; Function compile flags: /Ogsp
;	COMDAT ?deallocate@?$allocator@K@std@@QAEXPAKI@Z
_TEXT	SEGMENT
__Ptr$ = 8						; size = 4
___formal$ = 12						; size = 4
?deallocate@?$allocator@K@std@@QAEXPAKI@Z PROC		; std::allocator<unsigned long>::deallocate, COMDAT
; _this$ = ecx

; 181  : 		{	// deallocate object at _Ptr, ignore size

  00000	55		 push	 ebp
  00001	8b ec		 mov	 ebp, esp

; 182  : 		::operator delete(_Ptr);

  00003	ff 75 08	 push	 DWORD PTR __Ptr$[ebp]
  00006	e8 00 00 00 00	 call	 ??3@YAXPAX@Z		; operator delete
  0000b	59		 pop	 ecx

; 183  : 		}

  0000c	5d		 pop	 ebp
  0000d	c2 08 00	 ret	 8
?deallocate@?$allocator@K@std@@QAEXPAKI@Z ENDP		; std::allocator<unsigned long>::deallocate
_TEXT	ENDS
PUBLIC	?_Xlen@?$vector@UBuffInfoStruct@@V?$allocator@UBuffInfoStruct@@@std@@@std@@IBEXXZ ; std::vector<BuffInfoStruct,std::allocator<BuffInfoStruct> >::_Xlen
; Function compile flags: /Ogsp
; File c:\program files (x86)\microsoft visual studio 10.0\vc\include\vector
;	COMDAT ?_Xlen@?$vector@UBuffInfoStruct@@V?$allocator@UBuffInfoStruct@@@std@@@std@@IBEXXZ
_TEXT	SEGMENT
?_Xlen@?$vector@UBuffInfoStruct@@V?$allocator@UBuffInfoStruct@@@std@@@std@@IBEXXZ PROC ; std::vector<BuffInfoStruct,std::allocator<BuffInfoStruct> >::_Xlen, COMDAT
; _this$ = ecx

; 1427 : 		_Xlength_error("vector<T> too long");

  00000	68 00 00 00 00	 push	 OFFSET ??_C@_0BD@OLBABOEK@vector?$DMT?$DO?5too?5long?$AA@
  00005	ff 15 00 00 00
	00		 call	 DWORD PTR __imp_?_Xlength_error@std@@YAXPBD@Z
$LN4@Xlen@3:
$LN3@Xlen@3:
  0000b	cc		 int	 3
?_Xlen@?$vector@UBuffInfoStruct@@V?$allocator@UBuffInfoStruct@@@std@@@std@@IBEXXZ ENDP ; std::vector<BuffInfoStruct,std::allocator<BuffInfoStruct> >::_Xlen
_TEXT	ENDS
PUBLIC	??0?$allocator@UBuffInfoStruct@@@std@@QAE@ABV01@@Z ; std::allocator<BuffInfoStruct>::allocator<BuffInfoStruct>
; Function compile flags: /Ogsp
; File c:\program files (x86)\microsoft visual studio 10.0\vc\include\xmemory
;	COMDAT ??0?$allocator@UBuffInfoStruct@@@std@@QAE@ABV01@@Z
_TEXT	SEGMENT
___formal$ = 8						; size = 4
??0?$allocator@UBuffInfoStruct@@@std@@QAE@ABV01@@Z PROC	; std::allocator<BuffInfoStruct>::allocator<BuffInfoStruct>, COMDAT
; _this$ = ecx

; 165  : 	_ALLOCATOR(const _ALLOCATOR<_Ty>&) _THROW0()

  00000	8b c1		 mov	 eax, ecx

; 166  : 		{	// construct by copying (do nothing)
; 167  : 		}

  00002	c2 04 00	 ret	 4
??0?$allocator@UBuffInfoStruct@@@std@@QAE@ABV01@@Z ENDP	; std::allocator<BuffInfoStruct>::allocator<BuffInfoStruct>
_TEXT	ENDS
PUBLIC	?max_size@?$allocator@K@std@@QBEIXZ		; std::allocator<unsigned long>::max_size
; Function compile flags: /Ogsp
;	COMDAT ?max_size@?$allocator@K@std@@QBEIXZ
_TEXT	SEGMENT
?max_size@?$allocator@K@std@@QBEIXZ PROC		; std::allocator<unsigned long>::max_size, COMDAT
; _this$ = ecx

; 218  : 		_SIZT _Count = (_SIZT)(-1) / sizeof (_Ty);
; 219  : 		return (0 < _Count ? _Count : 1);

  00000	b8 ff ff ff 3f	 mov	 eax, 1073741823		; 3fffffffH

; 220  : 		}

  00005	c3		 ret	 0
?max_size@?$allocator@K@std@@QBEIXZ ENDP		; std::allocator<unsigned long>::max_size
_TEXT	ENDS
PUBLIC	?max_size@?$allocator@UBuffInfoStruct@@@std@@QBEIXZ ; std::allocator<BuffInfoStruct>::max_size
; Function compile flags: /Ogsp
;	COMDAT ?max_size@?$allocator@UBuffInfoStruct@@@std@@QBEIXZ
_TEXT	SEGMENT
?max_size@?$allocator@UBuffInfoStruct@@@std@@QBEIXZ PROC ; std::allocator<BuffInfoStruct>::max_size, COMDAT
; _this$ = ecx

; 218  : 		_SIZT _Count = (_SIZT)(-1) / sizeof (_Ty);
; 219  : 		return (0 < _Count ? _Count : 1);

  00000	b8 cc cc cc 0c	 mov	 eax, 214748364		; 0cccccccH

; 220  : 		}

  00005	c3		 ret	 0
?max_size@?$allocator@UBuffInfoStruct@@@std@@QBEIXZ ENDP ; std::allocator<BuffInfoStruct>::max_size
_TEXT	ENDS
PUBLIC	??0?$_Vector_const_iterator@V?$_Vector_val@MV?$allocator@M@std@@@std@@@std@@QAE@PAMPBU_Container_base0@1@@Z ; std::_Vector_const_iterator<std::_Vector_val<float,std::allocator<float> > >::_Vector_const_iterator<std::_Vector_val<float,std::allocator<float> > >
; Function compile flags: /Ogsp
; File c:\program files (x86)\microsoft visual studio 10.0\vc\include\vector
;	COMDAT ??0?$_Vector_const_iterator@V?$_Vector_val@MV?$allocator@M@std@@@std@@@std@@QAE@PAMPBU_Container_base0@1@@Z
_TEXT	SEGMENT
__Parg$ = 8						; size = 4
__Pvector$ = 12						; size = 4
??0?$_Vector_const_iterator@V?$_Vector_val@MV?$allocator@M@std@@@std@@@std@@QAE@PAMPBU_Container_base0@1@@Z PROC ; std::_Vector_const_iterator<std::_Vector_val<float,std::allocator<float> > >::_Vector_const_iterator<std::_Vector_val<float,std::allocator<float> > >, COMDAT
; _this$ = ecx

; 45   : 		{	// construct with pointer _Parg

  00000	55		 push	 ebp
  00001	8b ec		 mov	 ebp, esp
  00003	8b c1		 mov	 eax, ecx
  00005	8b 4d 08	 mov	 ecx, DWORD PTR __Parg$[ebp]
  00008	89 08		 mov	 DWORD PTR [eax], ecx

; 46   : 		this->_Adopt(_Pvector);
; 47   : 		}

  0000a	5d		 pop	 ebp
  0000b	c2 08 00	 ret	 8
??0?$_Vector_const_iterator@V?$_Vector_val@MV?$allocator@M@std@@@std@@@std@@QAE@PAMPBU_Container_base0@1@@Z ENDP ; std::_Vector_const_iterator<std::_Vector_val<float,std::allocator<float> > >::_Vector_const_iterator<std::_Vector_val<float,std::allocator<float> > >
_TEXT	ENDS
PUBLIC	??0?$_Vector_const_iterator@V?$_Vector_val@KV?$allocator@K@std@@@std@@@std@@QAE@PAKPBU_Container_base0@1@@Z ; std::_Vector_const_iterator<std::_Vector_val<unsigned long,std::allocator<unsigned long> > >::_Vector_const_iterator<std::_Vector_val<unsigned long,std::allocator<unsigned long> > >
; Function compile flags: /Ogsp
;	COMDAT ??0?$_Vector_const_iterator@V?$_Vector_val@KV?$allocator@K@std@@@std@@@std@@QAE@PAKPBU_Container_base0@1@@Z
_TEXT	SEGMENT
__Parg$ = 8						; size = 4
__Pvector$ = 12						; size = 4
??0?$_Vector_const_iterator@V?$_Vector_val@KV?$allocator@K@std@@@std@@@std@@QAE@PAKPBU_Container_base0@1@@Z PROC ; std::_Vector_const_iterator<std::_Vector_val<unsigned long,std::allocator<unsigned long> > >::_Vector_const_iterator<std::_Vector_val<unsigned long,std::allocator<unsigned long> > >, COMDAT
; _this$ = ecx

; 45   : 		{	// construct with pointer _Parg

  00000	55		 push	 ebp
  00001	8b ec		 mov	 ebp, esp
  00003	8b c1		 mov	 eax, ecx
  00005	8b 4d 08	 mov	 ecx, DWORD PTR __Parg$[ebp]
  00008	89 08		 mov	 DWORD PTR [eax], ecx

; 46   : 		this->_Adopt(_Pvector);
; 47   : 		}

  0000a	5d		 pop	 ebp
  0000b	c2 08 00	 ret	 8
??0?$_Vector_const_iterator@V?$_Vector_val@KV?$allocator@K@std@@@std@@@std@@QAE@PAKPBU_Container_base0@1@@Z ENDP ; std::_Vector_const_iterator<std::_Vector_val<unsigned long,std::allocator<unsigned long> > >::_Vector_const_iterator<std::_Vector_val<unsigned long,std::allocator<unsigned long> > >
_TEXT	ENDS
PUBLIC	??0?$_Vector_const_iterator@V?$_Vector_val@UBuffInfoStruct@@V?$allocator@UBuffInfoStruct@@@std@@@std@@@std@@QAE@PAUBuffInfoStruct@@PBU_Container_base0@1@@Z ; std::_Vector_const_iterator<std::_Vector_val<BuffInfoStruct,std::allocator<BuffInfoStruct> > >::_Vector_const_iterator<std::_Vector_val<BuffInfoStruct,std::allocator<BuffInfoStruct> > >
; Function compile flags: /Ogsp
;	COMDAT ??0?$_Vector_const_iterator@V?$_Vector_val@UBuffInfoStruct@@V?$allocator@UBuffInfoStruct@@@std@@@std@@@std@@QAE@PAUBuffInfoStruct@@PBU_Container_base0@1@@Z
_TEXT	SEGMENT
__Parg$ = 8						; size = 4
__Pvector$ = 12						; size = 4
??0?$_Vector_const_iterator@V?$_Vector_val@UBuffInfoStruct@@V?$allocator@UBuffInfoStruct@@@std@@@std@@@std@@QAE@PAUBuffInfoStruct@@PBU_Container_base0@1@@Z PROC ; std::_Vector_const_iterator<std::_Vector_val<BuffInfoStruct,std::allocator<BuffInfoStruct> > >::_Vector_const_iterator<std::_Vector_val<BuffInfoStruct,std::allocator<BuffInfoStruct> > >, COMDAT
; _this$ = ecx

; 45   : 		{	// construct with pointer _Parg

  00000	55		 push	 ebp
  00001	8b ec		 mov	 ebp, esp
  00003	8b c1		 mov	 eax, ecx
  00005	8b 4d 08	 mov	 ecx, DWORD PTR __Parg$[ebp]
  00008	89 08		 mov	 DWORD PTR [eax], ecx

; 46   : 		this->_Adopt(_Pvector);
; 47   : 		}

  0000a	5d		 pop	 ebp
  0000b	c2 08 00	 ret	 8
??0?$_Vector_const_iterator@V?$_Vector_val@UBuffInfoStruct@@V?$allocator@UBuffInfoStruct@@@std@@@std@@@std@@QAE@PAUBuffInfoStruct@@PBU_Container_base0@1@@Z ENDP ; std::_Vector_const_iterator<std::_Vector_val<BuffInfoStruct,std::allocator<BuffInfoStruct> > >::_Vector_const_iterator<std::_Vector_val<BuffInfoStruct,std::allocator<BuffInfoStruct> > >
_TEXT	ENDS
PUBLIC	?_Compat@?$_Vector_const_iterator@V?$_Vector_val@MV?$allocator@M@std@@@std@@@std@@QBEXABV12@@Z ; std::_Vector_const_iterator<std::_Vector_val<float,std::allocator<float> > >::_Compat
; Function compile flags: /Ogsp
;	COMDAT ?_Compat@?$_Vector_const_iterator@V?$_Vector_val@MV?$allocator@M@std@@@std@@@std@@QBEXABV12@@Z
_TEXT	SEGMENT
___formal$ = 8						; size = 4
?_Compat@?$_Vector_const_iterator@V?$_Vector_val@MV?$allocator@M@std@@@std@@@std@@QBEXABV12@@Z PROC ; std::_Vector_const_iterator<std::_Vector_val<float,std::allocator<float> > >::_Compat, COMDAT
; _this$ = ecx

; 253  : 		}

  00000	c2 04 00	 ret	 4
?_Compat@?$_Vector_const_iterator@V?$_Vector_val@MV?$allocator@M@std@@@std@@@std@@QBEXABV12@@Z ENDP ; std::_Vector_const_iterator<std::_Vector_val<float,std::allocator<float> > >::_Compat
_TEXT	ENDS
PUBLIC	?_Compat@?$_Vector_const_iterator@V?$_Vector_val@KV?$allocator@K@std@@@std@@@std@@QBEXABV12@@Z ; std::_Vector_const_iterator<std::_Vector_val<unsigned long,std::allocator<unsigned long> > >::_Compat
; Function compile flags: /Ogsp
;	COMDAT ?_Compat@?$_Vector_const_iterator@V?$_Vector_val@KV?$allocator@K@std@@@std@@@std@@QBEXABV12@@Z
_TEXT	SEGMENT
___formal$ = 8						; size = 4
?_Compat@?$_Vector_const_iterator@V?$_Vector_val@KV?$allocator@K@std@@@std@@@std@@QBEXABV12@@Z PROC ; std::_Vector_const_iterator<std::_Vector_val<unsigned long,std::allocator<unsigned long> > >::_Compat, COMDAT
; _this$ = ecx

; 253  : 		}

  00000	c2 04 00	 ret	 4
?_Compat@?$_Vector_const_iterator@V?$_Vector_val@KV?$allocator@K@std@@@std@@@std@@QBEXABV12@@Z ENDP ; std::_Vector_const_iterator<std::_Vector_val<unsigned long,std::allocator<unsigned long> > >::_Compat
_TEXT	ENDS
PUBLIC	?_Compat@?$_Vector_const_iterator@V?$_Vector_val@UBuffInfoStruct@@V?$allocator@UBuffInfoStruct@@@std@@@std@@@std@@QBEXABV12@@Z ; std::_Vector_const_iterator<std::_Vector_val<BuffInfoStruct,std::allocator<BuffInfoStruct> > >::_Compat
; Function compile flags: /Ogsp
;	COMDAT ?_Compat@?$_Vector_const_iterator@V?$_Vector_val@UBuffInfoStruct@@V?$allocator@UBuffInfoStruct@@@std@@@std@@@std@@QBEXABV12@@Z
_TEXT	SEGMENT
___formal$ = 8						; size = 4
?_Compat@?$_Vector_const_iterator@V?$_Vector_val@UBuffInfoStruct@@V?$allocator@UBuffInfoStruct@@@std@@@std@@@std@@QBEXABV12@@Z PROC ; std::_Vector_const_iterator<std::_Vector_val<BuffInfoStruct,std::allocator<BuffInfoStruct> > >::_Compat, COMDAT
; _this$ = ecx

; 253  : 		}

  00000	c2 04 00	 ret	 4
?_Compat@?$_Vector_const_iterator@V?$_Vector_val@UBuffInfoStruct@@V?$allocator@UBuffInfoStruct@@@std@@@std@@@std@@QBEXABV12@@Z ENDP ; std::_Vector_const_iterator<std::_Vector_val<BuffInfoStruct,std::allocator<BuffInfoStruct> > >::_Compat
_TEXT	ENDS
PUBLIC	??$_Allocate@UBuffInfoStruct@@@std@@YAPAUBuffInfoStruct@@IPAU1@@Z ; std::_Allocate<BuffInfoStruct>
; Function compile flags: /Ogsp
; File c:\program files (x86)\microsoft visual studio 10.0\vc\include\xmemory
;	COMDAT ??$_Allocate@UBuffInfoStruct@@@std@@YAPAUBuffInfoStruct@@IPAU1@@Z
_TEXT	SEGMENT
$T554221 = -12						; size = 12
$T554225 = 8						; size = 4
__Count$ = 8						; size = 4
___formal$ = 12						; size = 4
??$_Allocate@UBuffInfoStruct@@@std@@YAPAUBuffInfoStruct@@IPAU1@@Z PROC ; std::_Allocate<BuffInfoStruct>, COMDAT

; 30   : 	{	// allocate storage for _Count elements of type _Ty

  00000	55		 push	 ebp
  00001	8b ec		 mov	 ebp, esp

; 31   : 	void *_Ptr = 0;
; 32   : 
; 33   : 	if (_Count <= 0)

  00003	8b 4d 08	 mov	 ecx, DWORD PTR __Count$[ebp]
  00006	83 ec 0c	 sub	 esp, 12			; 0000000cH
  00009	33 c0		 xor	 eax, eax
  0000b	85 c9		 test	 ecx, ecx

; 34   : 		_Count = 0;
; 35   : 	else if (((_SIZT)(-1) / sizeof (_Ty) < _Count)

  0000d	74 3c		 je	 SHORT $LN5@Allocate@2

; 36   : 		|| (_Ptr = ::operator new(_Count * sizeof (_Ty))) == 0)

  0000f	81 f9 cc cc cc
	0c		 cmp	 ecx, 214748364		; 0cccccccH
  00015	77 0e		 ja	 SHORT $LN1@Allocate@2
  00017	6b c9 14	 imul	 ecx, 20			; 00000014H
  0001a	51		 push	 ecx
  0001b	e8 00 00 00 00	 call	 ??2@YAPAXI@Z		; operator new
  00020	59		 pop	 ecx
  00021	85 c0		 test	 eax, eax

; 38   : 
; 39   : 	return ((_Ty _FARQ *)_Ptr);

  00023	75 26		 jne	 SHORT $LN5@Allocate@2
$LN1@Allocate@2:

; 37   : 		_THROW_NCEE(bad_alloc, 0);

  00025	83 65 08 00	 and	 DWORD PTR $T554225[ebp], 0
  00029	8d 45 08	 lea	 eax, DWORD PTR $T554225[ebp]
  0002c	50		 push	 eax
  0002d	8d 4d f4	 lea	 ecx, DWORD PTR $T554221[ebp]
  00030	ff 15 00 00 00
	00		 call	 DWORD PTR __imp_??0exception@std@@QAE@ABQBD@Z
  00036	68 00 00 00 00	 push	 OFFSET __TI2?AVbad_alloc@std@@
  0003b	8d 45 f4	 lea	 eax, DWORD PTR $T554221[ebp]
  0003e	50		 push	 eax
  0003f	c7 45 f4 00 00
	00 00		 mov	 DWORD PTR $T554221[ebp], OFFSET ??_7bad_alloc@std@@6B@
  00046	e8 00 00 00 00	 call	 __CxxThrowException@8
$LN10@Allocate@2:
$LN5@Allocate@2:

; 40   : 	}

  0004b	c9		 leave
  0004c	c3		 ret	 0
$LN9@Allocate@2:
??$_Allocate@UBuffInfoStruct@@@std@@YAPAUBuffInfoStruct@@IPAU1@@Z ENDP ; std::_Allocate<BuffInfoStruct>
_TEXT	ENDS
PUBLIC	??$_Allocate@K@std@@YAPAKIPAK@Z			; std::_Allocate<unsigned long>
; Function compile flags: /Ogsp
;	COMDAT ??$_Allocate@K@std@@YAPAKIPAK@Z
_TEXT	SEGMENT
$T554230 = -12						; size = 12
$T554234 = 8						; size = 4
__Count$ = 8						; size = 4
___formal$ = 12						; size = 4
??$_Allocate@K@std@@YAPAKIPAK@Z PROC			; std::_Allocate<unsigned long>, COMDAT

; 30   : 	{	// allocate storage for _Count elements of type _Ty

  00000	55		 push	 ebp
  00001	8b ec		 mov	 ebp, esp

; 31   : 	void *_Ptr = 0;
; 32   : 
; 33   : 	if (_Count <= 0)

  00003	8b 4d 08	 mov	 ecx, DWORD PTR __Count$[ebp]
  00006	83 ec 0c	 sub	 esp, 12			; 0000000cH
  00009	33 c0		 xor	 eax, eax
  0000b	85 c9		 test	 ecx, ecx

; 34   : 		_Count = 0;
; 35   : 	else if (((_SIZT)(-1) / sizeof (_Ty) < _Count)

  0000d	74 3e		 je	 SHORT $LN5@Allocate@3

; 36   : 		|| (_Ptr = ::operator new(_Count * sizeof (_Ty))) == 0)

  0000f	81 f9 ff ff ff
	3f		 cmp	 ecx, 1073741823		; 3fffffffH
  00015	77 10		 ja	 SHORT $LN1@Allocate@3
  00017	8b c1		 mov	 eax, ecx
  00019	c1 e0 02	 shl	 eax, 2
  0001c	50		 push	 eax
  0001d	e8 00 00 00 00	 call	 ??2@YAPAXI@Z		; operator new
  00022	59		 pop	 ecx
  00023	85 c0		 test	 eax, eax

; 38   : 
; 39   : 	return ((_Ty _FARQ *)_Ptr);

  00025	75 26		 jne	 SHORT $LN5@Allocate@3
$LN1@Allocate@3:

; 37   : 		_THROW_NCEE(bad_alloc, 0);

  00027	83 65 08 00	 and	 DWORD PTR $T554234[ebp], 0
  0002b	8d 45 08	 lea	 eax, DWORD PTR $T554234[ebp]
  0002e	50		 push	 eax
  0002f	8d 4d f4	 lea	 ecx, DWORD PTR $T554230[ebp]
  00032	ff 15 00 00 00
	00		 call	 DWORD PTR __imp_??0exception@std@@QAE@ABQBD@Z
  00038	68 00 00 00 00	 push	 OFFSET __TI2?AVbad_alloc@std@@
  0003d	8d 45 f4	 lea	 eax, DWORD PTR $T554230[ebp]
  00040	50		 push	 eax
  00041	c7 45 f4 00 00
	00 00		 mov	 DWORD PTR $T554230[ebp], OFFSET ??_7bad_alloc@std@@6B@
  00048	e8 00 00 00 00	 call	 __CxxThrowException@8
$LN10@Allocate@3:
$LN5@Allocate@3:

; 40   : 	}

  0004d	c9		 leave
  0004e	c3		 ret	 0
$LN9@Allocate@3:
??$_Allocate@K@std@@YAPAKIPAK@Z ENDP			; std::_Allocate<unsigned long>
_TEXT	ENDS
EXTRN	__imp_??0exception@std@@QAE@ABV01@@Z:PROC
; Function compile flags: /Ogsp
;	COMDAT ??0bad_alloc@std@@QAE@ABV01@@Z
_TEXT	SEGMENT
___that$ = 8						; size = 4
??0bad_alloc@std@@QAE@ABV01@@Z PROC			; std::bad_alloc::bad_alloc, COMDAT
; _this$ = ecx
  00000	55		 push	 ebp
  00001	8b ec		 mov	 ebp, esp
  00003	56		 push	 esi
  00004	ff 75 08	 push	 DWORD PTR ___that$[ebp]
  00007	8b f1		 mov	 esi, ecx
  00009	ff 15 00 00 00
	00		 call	 DWORD PTR __imp_??0exception@std@@QAE@ABV01@@Z
  0000f	c7 06 00 00 00
	00		 mov	 DWORD PTR [esi], OFFSET ??_7bad_alloc@std@@6B@
  00015	8b c6		 mov	 eax, esi
  00017	5e		 pop	 esi
  00018	5d		 pop	 ebp
  00019	c2 04 00	 ret	 4
??0bad_alloc@std@@QAE@ABV01@@Z ENDP			; std::bad_alloc::bad_alloc
_TEXT	ENDS
PUBLIC	??$_Ptr_cat@UBuffInfoStruct@@U1@@std@@YA?AU_Nonscalar_ptr_iterator_tag@0@PAUBuffInfoStruct@@0@Z ; std::_Ptr_cat<BuffInfoStruct,BuffInfoStruct>
; Function compile flags: /Ogsp
; File c:\program files (x86)\microsoft visual studio 10.0\vc\include\xutility
;	COMDAT ??$_Ptr_cat@UBuffInfoStruct@@U1@@std@@YA?AU_Nonscalar_ptr_iterator_tag@0@PAUBuffInfoStruct@@0@Z
_TEXT	SEGMENT
__Cat$ = -1						; size = 1
___formal$ = 8						; size = 4
___formal$ = 12						; size = 4
??$_Ptr_cat@UBuffInfoStruct@@U1@@std@@YA?AU_Nonscalar_ptr_iterator_tag@0@PAUBuffInfoStruct@@0@Z PROC ; std::_Ptr_cat<BuffInfoStruct,BuffInfoStruct>, COMDAT

; 516  : 	{	// return pointer category from pointers

  00000	55		 push	 ebp
  00001	8b ec		 mov	 ebp, esp
  00003	51		 push	 ecx

; 517  : 	typename _Ptr_cat_helper<_Elem1, _Elem2>::_Type _Cat;
; 518  : 	return (_Cat);

  00004	8a 45 ff	 mov	 al, BYTE PTR __Cat$[ebp]

; 519  : 	}

  00007	c9		 leave
  00008	c3		 ret	 0
??$_Ptr_cat@UBuffInfoStruct@@U1@@std@@YA?AU_Nonscalar_ptr_iterator_tag@0@PAUBuffInfoStruct@@0@Z ENDP ; std::_Ptr_cat<BuffInfoStruct,BuffInfoStruct>
_TEXT	ENDS
PUBLIC	??$_Ptr_cat@MM@std@@YA?AU_Scalar_ptr_iterator_tag@0@PAM0@Z ; std::_Ptr_cat<float,float>
; Function compile flags: /Ogsp
;	COMDAT ??$_Ptr_cat@MM@std@@YA?AU_Scalar_ptr_iterator_tag@0@PAM0@Z
_TEXT	SEGMENT
__Cat$ = -1						; size = 1
___formal$ = 8						; size = 4
___formal$ = 12						; size = 4
??$_Ptr_cat@MM@std@@YA?AU_Scalar_ptr_iterator_tag@0@PAM0@Z PROC ; std::_Ptr_cat<float,float>, COMDAT

; 516  : 	{	// return pointer category from pointers

  00000	55		 push	 ebp
  00001	8b ec		 mov	 ebp, esp
  00003	51		 push	 ecx

; 517  : 	typename _Ptr_cat_helper<_Elem1, _Elem2>::_Type _Cat;
; 518  : 	return (_Cat);

  00004	8a 45 ff	 mov	 al, BYTE PTR __Cat$[ebp]

; 519  : 	}

  00007	c9		 leave
  00008	c3		 ret	 0
??$_Ptr_cat@MM@std@@YA?AU_Scalar_ptr_iterator_tag@0@PAM0@Z ENDP ; std::_Ptr_cat<float,float>
_TEXT	ENDS
PUBLIC	??$_Move@PAMPAM@std@@YAPAMPAM00U_Scalar_ptr_iterator_tag@0@@Z ; std::_Move<float *,float *>
; Function compile flags: /Ogsp
;	COMDAT ??$_Move@PAMPAM@std@@YAPAMPAM00U_Scalar_ptr_iterator_tag@0@@Z
_TEXT	SEGMENT
__First$ = 8						; size = 4
__Last$ = 12						; size = 4
__Dest$ = 16						; size = 4
___formal$ = 20						; size = 1
??$_Move@PAMPAM@std@@YAPAMPAM00U_Scalar_ptr_iterator_tag@0@@Z PROC ; std::_Move<float *,float *>, COMDAT

; 2522 : 	{	// move [_First, _Last) to [_Dest, ...), pointers to scalars

  00000	55		 push	 ebp
  00001	8b ec		 mov	 ebp, esp
  00003	56		 push	 esi

; 2523 : 	ptrdiff_t _Count = _Last - _First;

  00004	8b 75 0c	 mov	 esi, DWORD PTR __Last$[ebp]
  00007	2b 75 08	 sub	 esi, DWORD PTR __First$[ebp]
  0000a	57		 push	 edi

; 2524 : 	_CSTD memmove(&*_Dest, &*_First,
; 2525 : 		_Count * sizeof (*_First));

  0000b	8b 7d 10	 mov	 edi, DWORD PTR __Dest$[ebp]
  0000e	c1 fe 02	 sar	 esi, 2
  00011	c1 e6 02	 shl	 esi, 2
  00014	56		 push	 esi
  00015	ff 75 08	 push	 DWORD PTR __First$[ebp]
  00018	57		 push	 edi
  00019	ff 15 00 00 00
	00		 call	 DWORD PTR __imp__memmove
  0001f	83 c4 0c	 add	 esp, 12			; 0000000cH

; 2526 : 	return (_Dest + _Count);

  00022	8d 04 3e	 lea	 eax, DWORD PTR [esi+edi]
  00025	5f		 pop	 edi
  00026	5e		 pop	 esi

; 2527 : 	}

  00027	5d		 pop	 ebp
  00028	c3		 ret	 0
??$_Move@PAMPAM@std@@YAPAMPAM00U_Scalar_ptr_iterator_tag@0@@Z ENDP ; std::_Move<float *,float *>
_TEXT	ENDS
PUBLIC	??$_Ptr_cat@KK@std@@YA?AU_Scalar_ptr_iterator_tag@0@PAK0@Z ; std::_Ptr_cat<unsigned long,unsigned long>
; Function compile flags: /Ogsp
;	COMDAT ??$_Ptr_cat@KK@std@@YA?AU_Scalar_ptr_iterator_tag@0@PAK0@Z
_TEXT	SEGMENT
__Cat$ = -1						; size = 1
___formal$ = 8						; size = 4
___formal$ = 12						; size = 4
??$_Ptr_cat@KK@std@@YA?AU_Scalar_ptr_iterator_tag@0@PAK0@Z PROC ; std::_Ptr_cat<unsigned long,unsigned long>, COMDAT

; 516  : 	{	// return pointer category from pointers

  00000	55		 push	 ebp
  00001	8b ec		 mov	 ebp, esp
  00003	51		 push	 ecx

; 517  : 	typename _Ptr_cat_helper<_Elem1, _Elem2>::_Type _Cat;
; 518  : 	return (_Cat);

  00004	8a 45 ff	 mov	 al, BYTE PTR __Cat$[ebp]

; 519  : 	}

  00007	c9		 leave
  00008	c3		 ret	 0
??$_Ptr_cat@KK@std@@YA?AU_Scalar_ptr_iterator_tag@0@PAK0@Z ENDP ; std::_Ptr_cat<unsigned long,unsigned long>
_TEXT	ENDS
PUBLIC	??$_Move@PAKPAK@std@@YAPAKPAK00U_Scalar_ptr_iterator_tag@0@@Z ; std::_Move<unsigned long *,unsigned long *>
; Function compile flags: /Ogsp
;	COMDAT ??$_Move@PAKPAK@std@@YAPAKPAK00U_Scalar_ptr_iterator_tag@0@@Z
_TEXT	SEGMENT
__First$ = 8						; size = 4
__Last$ = 12						; size = 4
__Dest$ = 16						; size = 4
___formal$ = 20						; size = 1
??$_Move@PAKPAK@std@@YAPAKPAK00U_Scalar_ptr_iterator_tag@0@@Z PROC ; std::_Move<unsigned long *,unsigned long *>, COMDAT

; 2522 : 	{	// move [_First, _Last) to [_Dest, ...), pointers to scalars

  00000	55		 push	 ebp
  00001	8b ec		 mov	 ebp, esp
  00003	56		 push	 esi

; 2523 : 	ptrdiff_t _Count = _Last - _First;

  00004	8b 75 0c	 mov	 esi, DWORD PTR __Last$[ebp]
  00007	2b 75 08	 sub	 esi, DWORD PTR __First$[ebp]
  0000a	57		 push	 edi

; 2524 : 	_CSTD memmove(&*_Dest, &*_First,
; 2525 : 		_Count * sizeof (*_First));

  0000b	8b 7d 10	 mov	 edi, DWORD PTR __Dest$[ebp]
  0000e	c1 fe 02	 sar	 esi, 2
  00011	c1 e6 02	 shl	 esi, 2
  00014	56		 push	 esi
  00015	ff 75 08	 push	 DWORD PTR __First$[ebp]
  00018	57		 push	 edi
  00019	ff 15 00 00 00
	00		 call	 DWORD PTR __imp__memmove
  0001f	83 c4 0c	 add	 esp, 12			; 0000000cH

; 2526 : 	return (_Dest + _Count);

  00022	8d 04 3e	 lea	 eax, DWORD PTR [esi+edi]
  00025	5f		 pop	 edi
  00026	5e		 pop	 esi

; 2527 : 	}

  00027	5d		 pop	 ebp
  00028	c3		 ret	 0
??$_Move@PAKPAK@std@@YAPAKPAK00U_Scalar_ptr_iterator_tag@0@@Z ENDP ; std::_Move<unsigned long *,unsigned long *>
_TEXT	ENDS
PUBLIC	??$_Destroy_range@V?$allocator@M@std@@@std@@YAXPAM0AAV?$allocator@M@0@U_Scalar_ptr_iterator_tag@0@@Z ; std::_Destroy_range<std::allocator<float> >
; Function compile flags: /Ogsp
; File c:\program files (x86)\microsoft visual studio 10.0\vc\include\xmemory
;	COMDAT ??$_Destroy_range@V?$allocator@M@std@@@std@@YAXPAM0AAV?$allocator@M@0@U_Scalar_ptr_iterator_tag@0@@Z
_TEXT	SEGMENT
__First$ = 8						; size = 4
__Last$ = 12						; size = 4
__Al$ = 16						; size = 4
___formal$ = 20						; size = 1
??$_Destroy_range@V?$allocator@M@std@@@std@@YAXPAM0AAV?$allocator@M@0@U_Scalar_ptr_iterator_tag@0@@Z PROC ; std::_Destroy_range<std::allocator<float> >, COMDAT

; 105  : 	}

  00000	c3		 ret	 0
??$_Destroy_range@V?$allocator@M@std@@@std@@YAXPAM0AAV?$allocator@M@0@U_Scalar_ptr_iterator_tag@0@@Z ENDP ; std::_Destroy_range<std::allocator<float> >
_TEXT	ENDS
PUBLIC	??$_Destroy_range@V?$allocator@K@std@@@std@@YAXPAK0AAV?$allocator@K@0@U_Scalar_ptr_iterator_tag@0@@Z ; std::_Destroy_range<std::allocator<unsigned long> >
; Function compile flags: /Ogsp
;	COMDAT ??$_Destroy_range@V?$allocator@K@std@@@std@@YAXPAK0AAV?$allocator@K@0@U_Scalar_ptr_iterator_tag@0@@Z
_TEXT	SEGMENT
__First$ = 8						; size = 4
__Last$ = 12						; size = 4
__Al$ = 16						; size = 4
___formal$ = 20						; size = 1
??$_Destroy_range@V?$allocator@K@std@@@std@@YAXPAK0AAV?$allocator@K@0@U_Scalar_ptr_iterator_tag@0@@Z PROC ; std::_Destroy_range<std::allocator<unsigned long> >, COMDAT

; 105  : 	}

  00000	c3		 ret	 0
??$_Destroy_range@V?$allocator@K@std@@@std@@YAXPAK0AAV?$allocator@K@0@U_Scalar_ptr_iterator_tag@0@@Z ENDP ; std::_Destroy_range<std::allocator<unsigned long> >
_TEXT	ENDS
PUBLIC	??4BuffInfoStruct@@QAEAAU0@ABU0@@Z		; BuffInfoStruct::operator=
EXTRN	__imp_??4ioHashString@@QAEAAV0@ABV0@@Z:PROC
; Function compile flags: /Ogsp
;	COMDAT ??4BuffInfoStruct@@QAEAAU0@ABU0@@Z
_TEXT	SEGMENT
___that$ = 8						; size = 4
??4BuffInfoStruct@@QAEAAU0@ABU0@@Z PROC			; BuffInfoStruct::operator=, COMDAT
; _this$ = ecx
  00000	55		 push	 ebp
  00001	8b ec		 mov	 ebp, esp
  00003	56		 push	 esi
  00004	57		 push	 edi
  00005	8b 7d 08	 mov	 edi, DWORD PTR ___that$[ebp]
  00008	57		 push	 edi
  00009	8b f1		 mov	 esi, ecx
  0000b	ff 15 00 00 00
	00		 call	 DWORD PTR __imp_??4ioHashString@@QAEAAV0@ABV0@@Z
  00011	8b 47 10	 mov	 eax, DWORD PTR [edi+16]
  00014	89 46 10	 mov	 DWORD PTR [esi+16], eax
  00017	5f		 pop	 edi
  00018	8b c6		 mov	 eax, esi
  0001a	5e		 pop	 esi
  0001b	5d		 pop	 ebp
  0001c	c2 04 00	 ret	 4
??4BuffInfoStruct@@QAEAAU0@ABU0@@Z ENDP			; BuffInfoStruct::operator=
_TEXT	ENDS
PUBLIC	??$move@AAUBuffInfoStruct@@@std@@YA$$QAUBuffInfoStruct@@AAU1@@Z ; std::move<BuffInfoStruct &>
; Function compile flags: /Ogsp
; File c:\program files (x86)\microsoft visual studio 10.0\vc\include\utility
;	COMDAT ??$move@AAUBuffInfoStruct@@@std@@YA$$QAUBuffInfoStruct@@AAU1@@Z
_TEXT	SEGMENT
__Arg$ = 8						; size = 4
??$move@AAUBuffInfoStruct@@@std@@YA$$QAUBuffInfoStruct@@AAU1@@Z PROC ; std::move<BuffInfoStruct &>, COMDAT

; 86   : 	{	// forward _Arg as movable

  00000	55		 push	 ebp
  00001	8b ec		 mov	 ebp, esp

; 87   : 	return ((typename tr1::_Remove_reference<_Ty>::_Type&&)_Arg);

  00003	8b 45 08	 mov	 eax, DWORD PTR __Arg$[ebp]

; 88   : 	}

  00006	5d		 pop	 ebp
  00007	c3		 ret	 0
??$move@AAUBuffInfoStruct@@@std@@YA$$QAUBuffInfoStruct@@AAU1@@Z ENDP ; std::move<BuffInfoStruct &>
_TEXT	ENDS
PUBLIC	??$_Val_type@PAK@std@@YAPAKPAK@Z		; std::_Val_type<unsigned long *>
; Function compile flags: /Ogsp
; File c:\program files (x86)\microsoft visual studio 10.0\vc\include\xutility
;	COMDAT ??$_Val_type@PAK@std@@YAPAKPAK@Z
_TEXT	SEGMENT
___formal$ = 8						; size = 4
??$_Val_type@PAK@std@@YAPAKPAK@Z PROC			; std::_Val_type<unsigned long *>, COMDAT

; 790  : 	return (0);

  00000	33 c0		 xor	 eax, eax

; 791  : 	}

  00002	c3		 ret	 0
??$_Val_type@PAK@std@@YAPAKPAK@Z ENDP			; std::_Val_type<unsigned long *>
_TEXT	ENDS
PUBLIC	??$_Uninit_move@KKK@std@@YAPAKPAK00AAV?$allocator@K@0@0U_Scalar_ptr_iterator_tag@0@@Z ; std::_Uninit_move<unsigned long,unsigned long,unsigned long>
; Function compile flags: /Ogsp
; File c:\program files (x86)\microsoft visual studio 10.0\vc\include\memory
;	COMDAT ??$_Uninit_move@KKK@std@@YAPAKPAK00AAV?$allocator@K@0@0U_Scalar_ptr_iterator_tag@0@@Z
_TEXT	SEGMENT
__First$ = 8						; size = 4
__Last$ = 12						; size = 4
__Dest$ = 16						; size = 4
___formal$ = 20						; size = 4
___formal$ = 24						; size = 4
___formal$ = 28						; size = 1
??$_Uninit_move@KKK@std@@YAPAKPAK00AAV?$allocator@K@0@0U_Scalar_ptr_iterator_tag@0@@Z PROC ; std::_Uninit_move<unsigned long,unsigned long,unsigned long>, COMDAT

; 456  : 	{	// move [_First, _Last) to raw _Dest, scalar type

  00000	55		 push	 ebp
  00001	8b ec		 mov	 ebp, esp
  00003	56		 push	 esi

; 457  : 	_DEBUG_RANGE(_First, _Last);
; 458  : 	_DEBUG_POINTER(_Dest);
; 459  : 	size_t _Count = (size_t)(_Last - _First);

  00004	8b 75 0c	 mov	 esi, DWORD PTR __Last$[ebp]
  00007	2b 75 08	 sub	 esi, DWORD PTR __First$[ebp]
  0000a	c1 fe 02	 sar	 esi, 2

; 460  : 	return ((_Ty2 *)_CSTD memmove(&*_Dest, &*_First,
; 461  : 		_Count * sizeof (*_First)) + _Count);	// NB: non-overlapping move

  0000d	c1 e6 02	 shl	 esi, 2
  00010	56		 push	 esi
  00011	ff 75 08	 push	 DWORD PTR __First$[ebp]
  00014	ff 75 10	 push	 DWORD PTR __Dest$[ebp]
  00017	ff 15 00 00 00
	00		 call	 DWORD PTR __imp__memmove
  0001d	83 c4 0c	 add	 esp, 12			; 0000000cH
  00020	03 c6		 add	 eax, esi
  00022	5e		 pop	 esi

; 462  : 	}

  00023	5d		 pop	 ebp
  00024	c3		 ret	 0
??$_Uninit_move@KKK@std@@YAPAKPAK00AAV?$allocator@K@0@0U_Scalar_ptr_iterator_tag@0@@Z ENDP ; std::_Uninit_move<unsigned long,unsigned long,unsigned long>
_TEXT	ENDS
PUBLIC	??_GBuffInfoStruct@@QAEPAXI@Z			; BuffInfoStruct::`scalar deleting destructor'
; Function compile flags: /Ogsp
;	COMDAT ??_GBuffInfoStruct@@QAEPAXI@Z
_TEXT	SEGMENT
___flags$ = 8						; size = 4
??_GBuffInfoStruct@@QAEPAXI@Z PROC			; BuffInfoStruct::`scalar deleting destructor', COMDAT
; _this$ = ecx
  00000	55		 push	 ebp
  00001	8b ec		 mov	 ebp, esp
  00003	56		 push	 esi
  00004	8b f1		 mov	 esi, ecx
  00006	ff 15 00 00 00
	00		 call	 DWORD PTR __imp_??1ioHashString@@QAE@XZ
  0000c	f6 45 08 01	 test	 BYTE PTR ___flags$[ebp], 1
  00010	74 07		 je	 SHORT $LN1@scalar@6
  00012	56		 push	 esi
  00013	e8 00 00 00 00	 call	 ??3@YAXPAX@Z		; operator delete
  00018	59		 pop	 ecx
$LN1@scalar@6:
  00019	8b c6		 mov	 eax, esi
  0001b	5e		 pop	 esi
  0001c	5d		 pop	 ebp
  0001d	c2 04 00	 ret	 4
??_GBuffInfoStruct@@QAEPAXI@Z ENDP			; BuffInfoStruct::`scalar deleting destructor'
_TEXT	ENDS
PUBLIC	??$forward@AAUBuffInfoStruct@@@std@@YAAAUBuffInfoStruct@@AAU1@@Z ; std::forward<BuffInfoStruct &>
; Function compile flags: /Ogsp
; File c:\program files (x86)\microsoft visual studio 10.0\vc\include\utility
;	COMDAT ??$forward@AAUBuffInfoStruct@@@std@@YAAAUBuffInfoStruct@@AAU1@@Z
_TEXT	SEGMENT
__Arg$ = 8						; size = 4
??$forward@AAUBuffInfoStruct@@@std@@YAAAUBuffInfoStruct@@AAU1@@Z PROC ; std::forward<BuffInfoStruct &>, COMDAT

; 78   : 	{	// forward _Arg, given explicitly specified type parameter

  00000	55		 push	 ebp
  00001	8b ec		 mov	 ebp, esp

; 79   : 	return ((_Ty&&)_Arg);

  00003	8b 45 08	 mov	 eax, DWORD PTR __Arg$[ebp]

; 80   : 	}

  00006	5d		 pop	 ebp
  00007	c3		 ret	 0
??$forward@AAUBuffInfoStruct@@@std@@YAAAUBuffInfoStruct@@AAU1@@Z ENDP ; std::forward<BuffInfoStruct &>
_TEXT	ENDS
PUBLIC	??0BuffInfoStruct@@QAE@ABU0@@Z			; BuffInfoStruct::BuffInfoStruct
EXTRN	__imp_??0ioHashString@@QAE@ABV0@@Z:PROC
; Function compile flags: /Ogsp
;	COMDAT ??0BuffInfoStruct@@QAE@ABU0@@Z
_TEXT	SEGMENT
___that$ = 8						; size = 4
??0BuffInfoStruct@@QAE@ABU0@@Z PROC			; BuffInfoStruct::BuffInfoStruct, COMDAT
; _this$ = ecx
  00000	55		 push	 ebp
  00001	8b ec		 mov	 ebp, esp
  00003	56		 push	 esi
  00004	57		 push	 edi
  00005	8b 7d 08	 mov	 edi, DWORD PTR ___that$[ebp]
  00008	57		 push	 edi
  00009	8b f1		 mov	 esi, ecx
  0000b	ff 15 00 00 00
	00		 call	 DWORD PTR __imp_??0ioHashString@@QAE@ABV0@@Z
  00011	8b 47 10	 mov	 eax, DWORD PTR [edi+16]
  00014	89 46 10	 mov	 DWORD PTR [esi+16], eax
  00017	5f		 pop	 edi
  00018	8b c6		 mov	 eax, esi
  0001a	5e		 pop	 esi
  0001b	5d		 pop	 ebp
  0001c	c2 04 00	 ret	 4
??0BuffInfoStruct@@QAE@ABU0@@Z ENDP			; BuffInfoStruct::BuffInfoStruct
_TEXT	ENDS
PUBLIC	??_C@_00CNPNBAHC@?$AA@				; `string'
PUBLIC	?AddOwnerBuff@ioMultiLightAttack@@QAEXPAVioBaseChar@@@Z ; ioMultiLightAttack::AddOwnerBuff
EXTRN	?AddNewBuff@ioBaseChar@@QAEPAVioBuff@@ABVioHashString@@00PAVioSkill@@_N@Z:PROC ; ioBaseChar::AddNewBuff
EXTRN	__imp_??0ioHashString@@QAE@PBD@Z:PROC
;	COMDAT ??_C@_00CNPNBAHC@?$AA@
; File c:\program files (x86)\microsoft visual studio 10.0\vc\include\vector
CONST	SEGMENT
??_C@_00CNPNBAHC@?$AA@ DB 00H				; `string'
CONST	ENDS
;	COMDAT xdata$x
xdata$x	SEGMENT
__unwindtable$?AddOwnerBuff@ioMultiLightAttack@@QAEXPAVioBaseChar@@@Z DD 0ffffffffH
	DD	FLAT:__unwindfunclet$?AddOwnerBuff@ioMultiLightAttack@@QAEXPAVioBaseChar@@@Z$0
__ehfuncinfo$?AddOwnerBuff@ioMultiLightAttack@@QAEXPAVioBaseChar@@@Z DD 019930522H
	DD	01H
	DD	FLAT:__unwindtable$?AddOwnerBuff@ioMultiLightAttack@@QAEXPAVioBaseChar@@@Z
	DD	2 DUP(00H)
	DD	2 DUP(00H)
	DD	00H
	DD	01H
; Function compile flags: /Ogsp
; File d:\lost saga for developer\youtube\tutorial\source\src\lsclient\iomultilightattack.cpp
xdata$x	ENDS
;	COMDAT ?AddOwnerBuff@ioMultiLightAttack@@QAEXPAVioBaseChar@@@Z
_TEXT	SEGMENT
$T554278 = -32						; size = 16
tv153 = -16						; size = 4
__$EHRec$ = -12						; size = 12
_pChar$ = 8						; size = 4
?AddOwnerBuff@ioMultiLightAttack@@QAEXPAVioBaseChar@@@Z PROC ; ioMultiLightAttack::AddOwnerBuff, COMDAT
; _this$ = ecx

; 468  : {

  00000	6a 14		 push	 20			; 00000014H
  00002	b8 00 00 00 00	 mov	 eax, __ehhandler$?AddOwnerBuff@ioMultiLightAttack@@QAEXPAVioBaseChar@@@Z
  00007	e8 00 00 00 00	 call	 __EH_prolog3
  0000c	8b f1		 mov	 esi, ecx

; 469  : 	if( !pChar )	return;

  0000e	8b 7d 08	 mov	 edi, DWORD PTR _pChar$[ebp]
  00011	85 ff		 test	 edi, edi
  00013	74 67		 je	 SHORT $LN1@AddOwnerBu

; 470  : 	if( m_OwnerBuffList.empty() ) return;

  00015	8b 8e e8 10 00
	00		 mov	 ecx, DWORD PTR [esi+4328]
  0001b	8b 86 ec 10 00
	00		 mov	 eax, DWORD PTR [esi+4332]
  00021	3b c8		 cmp	 ecx, eax
  00023	74 57		 je	 SHORT $LN1@AddOwnerBu

; 471  : 
; 472  : 	int iCnt = m_OwnerBuffList.size();

  00025	2b c1		 sub	 eax, ecx
  00027	6a 14		 push	 20			; 00000014H
  00029	99		 cdq
  0002a	59		 pop	 ecx
  0002b	f7 f9		 idiv	 ecx

; 473  : 	for( int i = 0; i < iCnt; ++i )

  0002d	85 c0		 test	 eax, eax
  0002f	7e 4b		 jle	 SHORT $LN1@AddOwnerBu

; 471  : 
; 472  : 	int iCnt = m_OwnerBuffList.size();

  00031	81 c7 d4 02 00
	00		 add	 edi, 724		; 000002d4H
  00037	33 db		 xor	 ebx, ebx
  00039	89 45 f0	 mov	 DWORD PTR tv153[ebp], eax
$LL3@AddOwnerBu:

; 474  : 	{
; 475  : 		pChar->AddNewBuff( m_OwnerBuffList[i].m_BuffName, pChar->GetCharName(), "", this );

  0003c	68 00 00 00 00	 push	 OFFSET ??_C@_00CNPNBAHC@?$AA@
  00041	8d 4d e0	 lea	 ecx, DWORD PTR $T554278[ebp]
  00044	ff 15 00 00 00
	00		 call	 DWORD PTR __imp_??0ioHashString@@QAE@PBD@Z
  0004a	8b 4d 08	 mov	 ecx, DWORD PTR _pChar$[ebp]
  0004d	83 65 fc 00	 and	 DWORD PTR __$EHRec$[ebp+8], 0
  00051	6a 00		 push	 0
  00053	56		 push	 esi
  00054	8d 45 e0	 lea	 eax, DWORD PTR $T554278[ebp]
  00057	50		 push	 eax
  00058	8b 86 e8 10 00
	00		 mov	 eax, DWORD PTR [esi+4328]
  0005e	57		 push	 edi
  0005f	03 c3		 add	 eax, ebx
  00061	50		 push	 eax
  00062	e8 00 00 00 00	 call	 ?AddNewBuff@ioBaseChar@@QAEPAVioBuff@@ABVioHashString@@00PAVioSkill@@_N@Z ; ioBaseChar::AddNewBuff
  00067	83 4d fc ff	 or	 DWORD PTR __$EHRec$[ebp+8], -1
  0006b	8d 4d e0	 lea	 ecx, DWORD PTR $T554278[ebp]
  0006e	ff 15 00 00 00
	00		 call	 DWORD PTR __imp_??1ioHashString@@QAE@XZ
  00074	83 c3 14	 add	 ebx, 20			; 00000014H
  00077	ff 4d f0	 dec	 DWORD PTR tv153[ebp]
  0007a	75 c0		 jne	 SHORT $LL3@AddOwnerBu
$LN1@AddOwnerBu:

; 476  : 	}
; 477  : }

  0007c	e8 00 00 00 00	 call	 __EH_epilog3
  00081	c2 04 00	 ret	 4
_TEXT	ENDS
;	COMDAT text$x
text$x	SEGMENT
__unwindfunclet$?AddOwnerBuff@ioMultiLightAttack@@QAEXPAVioBaseChar@@@Z$0:
  00000	8d 4d e0	 lea	 ecx, DWORD PTR $T554278[ebp]
  00003	ff 25 00 00 00
	00		 jmp	 DWORD PTR __imp_??1ioHashString@@QAE@XZ
__ehhandler$?AddOwnerBuff@ioMultiLightAttack@@QAEXPAVioBaseChar@@@Z:
  00009	8b 54 24 08	 mov	 edx, DWORD PTR [esp+8]
  0000d	8d 42 0c	 lea	 eax, DWORD PTR [edx+12]
  00010	8b 4a dc	 mov	 ecx, DWORD PTR [edx-36]
  00013	33 c8		 xor	 ecx, eax
  00015	e8 00 00 00 00	 call	 @__security_check_cookie@4
  0001a	b8 00 00 00 00	 mov	 eax, OFFSET __ehfuncinfo$?AddOwnerBuff@ioMultiLightAttack@@QAEXPAVioBaseChar@@@Z
  0001f	e9 00 00 00 00	 jmp	 ___CxxFrameHandler3
text$x	ENDS
?AddOwnerBuff@ioMultiLightAttack@@QAEXPAVioBaseChar@@@Z ENDP ; ioMultiLightAttack::AddOwnerBuff
PUBLIC	?RemoveOwnerBuff@ioMultiLightAttack@@QAEXPAVioBaseChar@@@Z ; ioMultiLightAttack::RemoveOwnerBuff
EXTRN	?RemoveBuff@ioBaseChar@@QAE_NABVioHashString@@_N@Z:PROC ; ioBaseChar::RemoveBuff
; Function compile flags: /Ogsp
;	COMDAT ?RemoveOwnerBuff@ioMultiLightAttack@@QAEXPAVioBaseChar@@@Z
_TEXT	SEGMENT
_pChar$ = 8						; size = 4
?RemoveOwnerBuff@ioMultiLightAttack@@QAEXPAVioBaseChar@@@Z PROC ; ioMultiLightAttack::RemoveOwnerBuff, COMDAT
; _this$ = ecx

; 480  : {

  00000	55		 push	 ebp
  00001	8b ec		 mov	 ebp, esp
  00003	56		 push	 esi
  00004	57		 push	 edi

; 481  : 	if( !pChar )	return;

  00005	33 ff		 xor	 edi, edi
  00007	8b f1		 mov	 esi, ecx
  00009	39 7d 08	 cmp	 DWORD PTR _pChar$[ebp], edi
  0000c	74 39		 je	 SHORT $LN1@RemoveOwne

; 482  : 	if( m_OwnerBuffList.empty() ) return;

  0000e	8b 8e e8 10 00
	00		 mov	 ecx, DWORD PTR [esi+4328]
  00014	8b 86 ec 10 00
	00		 mov	 eax, DWORD PTR [esi+4332]
  0001a	3b c8		 cmp	 ecx, eax
  0001c	74 29		 je	 SHORT $LN1@RemoveOwne

; 483  : 	int iCnt = m_OwnerBuffList.size();

  0001e	2b c1		 sub	 eax, ecx
  00020	6a 14		 push	 20			; 00000014H
  00022	99		 cdq
  00023	59		 pop	 ecx
  00024	f7 f9		 idiv	 ecx

; 484  : 	for( int i=0; i<iCnt; ++i)

  00026	3b c7		 cmp	 eax, edi
  00028	7e 1d		 jle	 SHORT $LN1@RemoveOwne

; 483  : 	int iCnt = m_OwnerBuffList.size();

  0002a	53		 push	 ebx
  0002b	8b d8		 mov	 ebx, eax
$LL3@RemoveOwne:

; 485  : 	{
; 486  : 		pChar->RemoveBuff( m_OwnerBuffList[i].m_BuffName );

  0002d	8b 86 e8 10 00
	00		 mov	 eax, DWORD PTR [esi+4328]
  00033	8b 4d 08	 mov	 ecx, DWORD PTR _pChar$[ebp]
  00036	6a 01		 push	 1
  00038	03 c7		 add	 eax, edi
  0003a	50		 push	 eax
  0003b	e8 00 00 00 00	 call	 ?RemoveBuff@ioBaseChar@@QAE_NABVioHashString@@_N@Z ; ioBaseChar::RemoveBuff
  00040	83 c7 14	 add	 edi, 20			; 00000014H
  00043	4b		 dec	 ebx
  00044	75 e7		 jne	 SHORT $LL3@RemoveOwne
  00046	5b		 pop	 ebx
$LN1@RemoveOwne:
  00047	5f		 pop	 edi
  00048	5e		 pop	 esi

; 487  : 	}
; 488  : }

  00049	5d		 pop	 ebp
  0004a	c2 04 00	 ret	 4
?RemoveOwnerBuff@ioMultiLightAttack@@QAEXPAVioBaseChar@@@Z ENDP ; ioMultiLightAttack::RemoveOwnerBuff
_TEXT	ENDS
PUBLIC	??K?$CEncrypt@M@@QAEMABM@Z			; CEncrypt<float>::operator/
; Function compile flags: /Ogsp
; File d:\lost saga for developer\youtube\tutorial\source\src\lsclient\encryptvalue.h
;	COMDAT ??K?$CEncrypt@M@@QAEMABM@Z
_TEXT	SEGMENT
_value$ = -4						; size = 4
tv130 = 8						; size = 4
_inValue$ = 8						; size = 4
??K?$CEncrypt@M@@QAEMABM@Z PROC				; CEncrypt<float>::operator/, COMDAT
; _this$ = ecx

; 1695 : 	{

  00000	55		 push	 ebp
  00001	8b ec		 mov	 ebp, esp
  00003	51		 push	 ecx

; 1696 : 		type value;
; 1697 : 		DecryptValueToPool(&value);

  00004	8d 45 fc	 lea	 eax, DWORD PTR _value$[ebp]
  00007	50		 push	 eax
  00008	e8 00 00 00 00	 call	 ?DecryptValueToPool@?$CEncrypt@M@@QAEXPAM@Z ; CEncrypt<float>::DecryptValueToPool

; 1698 : #ifdef _NOTUSE
; 1699 : 		Debug();
; 1700 : #endif
; 1701 : 		return value / inValue;

  0000d	d9 45 fc	 fld	 DWORD PTR _value$[ebp]
  00010	8b 45 08	 mov	 eax, DWORD PTR _inValue$[ebp]
  00013	d8 30		 fdiv	 DWORD PTR [eax]
  00015	d9 5d 08	 fstp	 DWORD PTR tv130[ebp]
  00018	d9 45 08	 fld	 DWORD PTR tv130[ebp]

; 1702 : 	}

  0001b	c9		 leave
  0001c	c2 04 00	 ret	 4
??K?$CEncrypt@M@@QAEMABM@Z ENDP				; CEncrypt<float>::operator/
_TEXT	ENDS
PUBLIC	??M?$CEncrypt@M@@QAE_NABM@Z			; CEncrypt<float>::operator<
; Function compile flags: /Ogsp
;	COMDAT ??M?$CEncrypt@M@@QAE_NABM@Z
_TEXT	SEGMENT
_value$ = -4						; size = 4
_inValue$ = 8						; size = 4
??M?$CEncrypt@M@@QAE_NABM@Z PROC			; CEncrypt<float>::operator<, COMDAT
; _this$ = ecx

; 1791 : 	{

  00000	55		 push	 ebp
  00001	8b ec		 mov	 ebp, esp
  00003	51		 push	 ecx

; 1792 : 		type value;
; 1793 : 		DecryptValueToPool(&value);

  00004	8d 45 fc	 lea	 eax, DWORD PTR _value$[ebp]
  00007	50		 push	 eax
  00008	e8 00 00 00 00	 call	 ?DecryptValueToPool@?$CEncrypt@M@@QAEXPAM@Z ; CEncrypt<float>::DecryptValueToPool

; 1794 : #ifdef _NOTUSE
; 1795 : 		Debug();
; 1796 : #endif
; 1797 : 		return (value < inValue);

  0000d	8b 45 08	 mov	 eax, DWORD PTR _inValue$[ebp]
  00010	f3 0f 10 08	 movss	 xmm1, DWORD PTR [eax]
  00014	f3 0f 10 45 fc	 movss	 xmm0, DWORD PTR _value$[ebp]
  00019	0f 5a c0	 cvtps2pd xmm0, xmm0
  0001c	0f 5a c9	 cvtps2pd xmm1, xmm1
  0001f	33 c0		 xor	 eax, eax
  00021	66 0f 2f c8	 comisd	 xmm1, xmm0
  00025	76 01		 jbe	 SHORT $LN4@operator
  00027	40		 inc	 eax
$LN4@operator:

; 1798 : 	} 

  00028	c9		 leave
  00029	c2 04 00	 ret	 4
??M?$CEncrypt@M@@QAE_NABM@Z ENDP			; CEncrypt<float>::operator<
_TEXT	ENDS
PUBLIC	??H?$CEncrypt@K@@QAEKABK@Z			; CEncrypt<unsigned long>::operator+
; Function compile flags: /Ogsp
;	COMDAT ??H?$CEncrypt@K@@QAEKABK@Z
_TEXT	SEGMENT
_value$ = -4						; size = 4
_inValue$ = 8						; size = 4
??H?$CEncrypt@K@@QAEKABK@Z PROC				; CEncrypt<unsigned long>::operator+, COMDAT
; _this$ = ecx

; 1285 : 	{

  00000	55		 push	 ebp
  00001	8b ec		 mov	 ebp, esp
  00003	51		 push	 ecx

; 1286 : 		type value;
; 1287 : 		DecryptValueToPool(&value);

  00004	8d 45 fc	 lea	 eax, DWORD PTR _value$[ebp]
  00007	50		 push	 eax
  00008	e8 00 00 00 00	 call	 ?DecryptValueToPool@?$CEncrypt@K@@QAEXPAK@Z ; CEncrypt<unsigned long>::DecryptValueToPool

; 1288 : #ifdef _NOTUSE
; 1289 : 		Debug();
; 1290 : #endif
; 1291 : 		return value + inValue;

  0000d	8b 45 08	 mov	 eax, DWORD PTR _inValue$[ebp]
  00010	8b 00		 mov	 eax, DWORD PTR [eax]
  00012	03 45 fc	 add	 eax, DWORD PTR _value$[ebp]

; 1292 : 	}

  00015	c9		 leave
  00016	c2 04 00	 ret	 4
??H?$CEncrypt@K@@QAEKABK@Z ENDP				; CEncrypt<unsigned long>::operator+
_TEXT	ENDS
PUBLIC	??4?$CEncrypt@K@@QAEKM@Z			; CEncrypt<unsigned long>::operator=
EXTRN	__ftol2:PROC
; Function compile flags: /Ogsp
;	COMDAT ??4?$CEncrypt@K@@QAEKM@Z
_TEXT	SEGMENT
_value$ = 8						; size = 4
_inValue$ = 8						; size = 4
??4?$CEncrypt@K@@QAEKM@Z PROC				; CEncrypt<unsigned long>::operator=, COMDAT
; _this$ = ecx

; 1654 : 	{	

  00000	55		 push	 ebp
  00001	8b ec		 mov	 ebp, esp

; 1655 : 		type value = inValue;

  00003	d9 45 08	 fld	 DWORD PTR _inValue$[ebp]
  00006	56		 push	 esi
  00007	8b f1		 mov	 esi, ecx
  00009	e8 00 00 00 00	 call	 __ftol2
  0000e	89 45 08	 mov	 DWORD PTR _value$[ebp], eax

; 1656 : 		EncryptValueToPool((char*)&value);

  00011	8d 45 08	 lea	 eax, DWORD PTR _value$[ebp]
  00014	50		 push	 eax
  00015	8b ce		 mov	 ecx, esi
  00017	e8 00 00 00 00	 call	 ?EncryptValueToPool@?$CEncrypt@K@@AAEXPBD@Z ; CEncrypt<unsigned long>::EncryptValueToPool

; 1657 : #ifdef _NOTUSE
; 1658 : 		m_value = inValue;
; 1659 : 		Debug();
; 1660 : #endif
; 1661 : 		return value;

  0001c	8b 45 08	 mov	 eax, DWORD PTR _value$[ebp]
  0001f	5e		 pop	 esi

; 1662 : 	}

  00020	5d		 pop	 ebp
  00021	c2 04 00	 ret	 4
??4?$CEncrypt@K@@QAEKM@Z ENDP				; CEncrypt<unsigned long>::operator=
_TEXT	ENDS
PUBLIC	??N?$CEncrypt@H@@QAE_NABH@Z			; CEncrypt<int>::operator<=
; Function compile flags: /Ogsp
;	COMDAT ??N?$CEncrypt@H@@QAE_NABH@Z
_TEXT	SEGMENT
_value$ = -4						; size = 4
_inValue$ = 8						; size = 4
??N?$CEncrypt@H@@QAE_NABH@Z PROC			; CEncrypt<int>::operator<=, COMDAT
; _this$ = ecx

; 1020 : 	{

  00000	55		 push	 ebp
  00001	8b ec		 mov	 ebp, esp
  00003	51		 push	 ecx

; 1021 : 		
; 1022 : 		type value;
; 1023 : 		DecryptValueToPool(&value);

  00004	8d 45 fc	 lea	 eax, DWORD PTR _value$[ebp]
  00007	50		 push	 eax
  00008	e8 00 00 00 00	 call	 ?DecryptValueToPool@?$CEncrypt@H@@QAEXPAH@Z ; CEncrypt<int>::DecryptValueToPool

; 1024 : #ifdef _NOTUSE
; 1025 : 		Debug();
; 1026 : #endif
; 1027 : 		return (value <= inValue);

  0000d	8b 4d 08	 mov	 ecx, DWORD PTR _inValue$[ebp]
  00010	8b 55 fc	 mov	 edx, DWORD PTR _value$[ebp]
  00013	33 c0		 xor	 eax, eax
  00015	3b 11		 cmp	 edx, DWORD PTR [ecx]
  00017	0f 9e c0	 setle	 al

; 1028 : 	}		

  0001a	c9		 leave
  0001b	c2 04 00	 ret	 4
??N?$CEncrypt@H@@QAE_NABH@Z ENDP			; CEncrypt<int>::operator<=
_TEXT	ENDS
PUBLIC	??0?$_Vector_iterator@V?$_Vector_val@KV?$allocator@K@std@@@std@@@std@@QAE@XZ ; std::_Vector_iterator<std::_Vector_val<unsigned long,std::allocator<unsigned long> > >::_Vector_iterator<std::_Vector_val<unsigned long,std::allocator<unsigned long> > >
; Function compile flags: /Ogsp
; File c:\program files (x86)\microsoft visual studio 10.0\vc\include\vector
;	COMDAT ??0?$_Vector_iterator@V?$_Vector_val@KV?$allocator@K@std@@@std@@@std@@QAE@XZ
_TEXT	SEGMENT
??0?$_Vector_iterator@V?$_Vector_val@KV?$allocator@K@std@@@std@@@std@@QAE@XZ PROC ; std::_Vector_iterator<std::_Vector_val<unsigned long,std::allocator<unsigned long> > >::_Vector_iterator<std::_Vector_val<unsigned long,std::allocator<unsigned long> > >, COMDAT
; _this$ = ecx

; 298  : 	_Vector_iterator()

  00000	8b c1		 mov	 eax, ecx
  00002	83 20 00	 and	 DWORD PTR [eax], 0

; 299  : 		{	// construct with null vector pointer
; 300  : 		}

  00005	c3		 ret	 0
??0?$_Vector_iterator@V?$_Vector_val@KV?$allocator@K@std@@@std@@@std@@QAE@XZ ENDP ; std::_Vector_iterator<std::_Vector_val<unsigned long,std::allocator<unsigned long> > >::_Vector_iterator<std::_Vector_val<unsigned long,std::allocator<unsigned long> > >
_TEXT	ENDS
PUBLIC	??D?$_Vector_iterator@V?$_Vector_val@KV?$allocator@K@std@@@std@@@std@@QBEAAKXZ ; std::_Vector_iterator<std::_Vector_val<unsigned long,std::allocator<unsigned long> > >::operator*
; Function compile flags: /Ogsp
;	COMDAT ??D?$_Vector_iterator@V?$_Vector_val@KV?$allocator@K@std@@@std@@@std@@QBEAAKXZ
_TEXT	SEGMENT
??D?$_Vector_iterator@V?$_Vector_val@KV?$allocator@K@std@@@std@@@std@@QBEAAKXZ PROC ; std::_Vector_iterator<std::_Vector_val<unsigned long,std::allocator<unsigned long> > >::operator*, COMDAT
; _this$ = ecx

; 322  : 		return ((reference)**(_Mybase *)this);

  00000	8b 01		 mov	 eax, DWORD PTR [ecx]

; 323  : 		}

  00002	c3		 ret	 0
??D?$_Vector_iterator@V?$_Vector_val@KV?$allocator@K@std@@@std@@@std@@QBEAAKXZ ENDP ; std::_Vector_iterator<std::_Vector_val<unsigned long,std::allocator<unsigned long> > >::operator*
_TEXT	ENDS
PUBLIC	??E?$_Vector_iterator@V?$_Vector_val@KV?$allocator@K@std@@@std@@@std@@QAEAAV01@XZ ; std::_Vector_iterator<std::_Vector_val<unsigned long,std::allocator<unsigned long> > >::operator++
; Function compile flags: /Ogsp
;	COMDAT ??E?$_Vector_iterator@V?$_Vector_val@KV?$allocator@K@std@@@std@@@std@@QAEAAV01@XZ
_TEXT	SEGMENT
??E?$_Vector_iterator@V?$_Vector_val@KV?$allocator@K@std@@@std@@@std@@QAEAAV01@XZ PROC ; std::_Vector_iterator<std::_Vector_val<unsigned long,std::allocator<unsigned long> > >::operator++, COMDAT
; _this$ = ecx

; 331  : 		{	// preincrement

  00000	8b c1		 mov	 eax, ecx

; 332  : 		++*(_Mybase *)this;

  00002	83 00 04	 add	 DWORD PTR [eax], 4

; 333  : 		return (*this);
; 334  : 		}

  00005	c3		 ret	 0
??E?$_Vector_iterator@V?$_Vector_val@KV?$allocator@K@std@@@std@@@std@@QAEAAV01@XZ ENDP ; std::_Vector_iterator<std::_Vector_val<unsigned long,std::allocator<unsigned long> > >::operator++
_TEXT	ENDS
PUBLIC	?begin@?$vector@MV?$allocator@M@std@@@std@@QBE?AV?$_Vector_const_iterator@V?$_Vector_val@MV?$allocator@M@std@@@std@@@2@XZ ; std::vector<float,std::allocator<float> >::begin
; Function compile flags: /Ogsp
;	COMDAT ?begin@?$vector@MV?$allocator@M@std@@@std@@QBE?AV?$_Vector_const_iterator@V?$_Vector_val@MV?$allocator@M@std@@@std@@@2@XZ
_TEXT	SEGMENT
___$ReturnUdt$ = 8					; size = 4
?begin@?$vector@MV?$allocator@M@std@@@std@@QBE?AV?$_Vector_const_iterator@V?$_Vector_val@MV?$allocator@M@std@@@std@@@2@XZ PROC ; std::vector<float,std::allocator<float> >::begin, COMDAT
; _this$ = ecx

; 786  : 		{	// return iterator for beginning of nonmutable sequence

  00000	55		 push	 ebp
  00001	8b ec		 mov	 ebp, esp

; 787  : 		return (const_iterator(this->_Myfirst, this));

  00003	8b 09		 mov	 ecx, DWORD PTR [ecx]
  00005	8b 45 08	 mov	 eax, DWORD PTR ___$ReturnUdt$[ebp]
  00008	89 08		 mov	 DWORD PTR [eax], ecx

; 788  : 		}

  0000a	5d		 pop	 ebp
  0000b	c2 04 00	 ret	 4
?begin@?$vector@MV?$allocator@M@std@@@std@@QBE?AV?$_Vector_const_iterator@V?$_Vector_val@MV?$allocator@M@std@@@std@@@2@XZ ENDP ; std::vector<float,std::allocator<float> >::begin
_TEXT	ENDS
PUBLIC	?end@?$vector@MV?$allocator@M@std@@@std@@QBE?AV?$_Vector_const_iterator@V?$_Vector_val@MV?$allocator@M@std@@@std@@@2@XZ ; std::vector<float,std::allocator<float> >::end
; Function compile flags: /Ogsp
;	COMDAT ?end@?$vector@MV?$allocator@M@std@@@std@@QBE?AV?$_Vector_const_iterator@V?$_Vector_val@MV?$allocator@M@std@@@std@@@2@XZ
_TEXT	SEGMENT
___$ReturnUdt$ = 8					; size = 4
?end@?$vector@MV?$allocator@M@std@@@std@@QBE?AV?$_Vector_const_iterator@V?$_Vector_val@MV?$allocator@M@std@@@std@@@2@XZ PROC ; std::vector<float,std::allocator<float> >::end, COMDAT
; _this$ = ecx

; 796  : 		{	// return iterator for end of nonmutable sequence

  00000	55		 push	 ebp
  00001	8b ec		 mov	 ebp, esp

; 797  : 		return (const_iterator(this->_Mylast, this));

  00003	8b 49 04	 mov	 ecx, DWORD PTR [ecx+4]
  00006	8b 45 08	 mov	 eax, DWORD PTR ___$ReturnUdt$[ebp]
  00009	89 08		 mov	 DWORD PTR [eax], ecx

; 798  : 		}

  0000b	5d		 pop	 ebp
  0000c	c2 04 00	 ret	 4
?end@?$vector@MV?$allocator@M@std@@@std@@QBE?AV?$_Vector_const_iterator@V?$_Vector_val@MV?$allocator@M@std@@@std@@@2@XZ ENDP ; std::vector<float,std::allocator<float> >::end
_TEXT	ENDS
PUBLIC	?begin@?$vector@UBuffInfoStruct@@V?$allocator@UBuffInfoStruct@@@std@@@std@@QBE?AV?$_Vector_const_iterator@V?$_Vector_val@UBuffInfoStruct@@V?$allocator@UBuffInfoStruct@@@std@@@std@@@2@XZ ; std::vector<BuffInfoStruct,std::allocator<BuffInfoStruct> >::begin
; Function compile flags: /Ogsp
;	COMDAT ?begin@?$vector@UBuffInfoStruct@@V?$allocator@UBuffInfoStruct@@@std@@@std@@QBE?AV?$_Vector_const_iterator@V?$_Vector_val@UBuffInfoStruct@@V?$allocator@UBuffInfoStruct@@@std@@@std@@@2@XZ
_TEXT	SEGMENT
___$ReturnUdt$ = 8					; size = 4
?begin@?$vector@UBuffInfoStruct@@V?$allocator@UBuffInfoStruct@@@std@@@std@@QBE?AV?$_Vector_const_iterator@V?$_Vector_val@UBuffInfoStruct@@V?$allocator@UBuffInfoStruct@@@std@@@std@@@2@XZ PROC ; std::vector<BuffInfoStruct,std::allocator<BuffInfoStruct> >::begin, COMDAT
; _this$ = ecx

; 786  : 		{	// return iterator for beginning of nonmutable sequence

  00000	55		 push	 ebp
  00001	8b ec		 mov	 ebp, esp

; 787  : 		return (const_iterator(this->_Myfirst, this));

  00003	8b 09		 mov	 ecx, DWORD PTR [ecx]
  00005	8b 45 08	 mov	 eax, DWORD PTR ___$ReturnUdt$[ebp]
  00008	89 08		 mov	 DWORD PTR [eax], ecx

; 788  : 		}

  0000a	5d		 pop	 ebp
  0000b	c2 04 00	 ret	 4
?begin@?$vector@UBuffInfoStruct@@V?$allocator@UBuffInfoStruct@@@std@@@std@@QBE?AV?$_Vector_const_iterator@V?$_Vector_val@UBuffInfoStruct@@V?$allocator@UBuffInfoStruct@@@std@@@std@@@2@XZ ENDP ; std::vector<BuffInfoStruct,std::allocator<BuffInfoStruct> >::begin
_TEXT	ENDS
PUBLIC	?end@?$vector@UBuffInfoStruct@@V?$allocator@UBuffInfoStruct@@@std@@@std@@QBE?AV?$_Vector_const_iterator@V?$_Vector_val@UBuffInfoStruct@@V?$allocator@UBuffInfoStruct@@@std@@@std@@@2@XZ ; std::vector<BuffInfoStruct,std::allocator<BuffInfoStruct> >::end
; Function compile flags: /Ogsp
;	COMDAT ?end@?$vector@UBuffInfoStruct@@V?$allocator@UBuffInfoStruct@@@std@@@std@@QBE?AV?$_Vector_const_iterator@V?$_Vector_val@UBuffInfoStruct@@V?$allocator@UBuffInfoStruct@@@std@@@std@@@2@XZ
_TEXT	SEGMENT
___$ReturnUdt$ = 8					; size = 4
?end@?$vector@UBuffInfoStruct@@V?$allocator@UBuffInfoStruct@@@std@@@std@@QBE?AV?$_Vector_const_iterator@V?$_Vector_val@UBuffInfoStruct@@V?$allocator@UBuffInfoStruct@@@std@@@std@@@2@XZ PROC ; std::vector<BuffInfoStruct,std::allocator<BuffInfoStruct> >::end, COMDAT
; _this$ = ecx

; 796  : 		{	// return iterator for end of nonmutable sequence

  00000	55		 push	 ebp
  00001	8b ec		 mov	 ebp, esp

; 797  : 		return (const_iterator(this->_Mylast, this));

  00003	8b 49 04	 mov	 ecx, DWORD PTR [ecx+4]
  00006	8b 45 08	 mov	 eax, DWORD PTR ___$ReturnUdt$[ebp]
  00009	89 08		 mov	 DWORD PTR [eax], ecx

; 798  : 		}

  0000b	5d		 pop	 ebp
  0000c	c2 04 00	 ret	 4
?end@?$vector@UBuffInfoStruct@@V?$allocator@UBuffInfoStruct@@@std@@@std@@QBE?AV?$_Vector_const_iterator@V?$_Vector_val@UBuffInfoStruct@@V?$allocator@UBuffInfoStruct@@@std@@@std@@@2@XZ ENDP ; std::vector<BuffInfoStruct,std::allocator<BuffInfoStruct> >::end
_TEXT	ENDS
PUBLIC	?max_size@?$vector@MV?$allocator@M@std@@@std@@QBEIXZ ; std::vector<float,std::allocator<float> >::max_size
; Function compile flags: /Ogsp
;	COMDAT ?max_size@?$vector@MV?$allocator@M@std@@@std@@QBEIXZ
_TEXT	SEGMENT
?max_size@?$vector@MV?$allocator@M@std@@@std@@QBEIXZ PROC ; std::vector<float,std::allocator<float> >::max_size, COMDAT
; _this$ = ecx

; 884  : 		return (this->_Alval.max_size());

  00000	b8 ff ff ff 3f	 mov	 eax, 1073741823		; 3fffffffH

; 885  : 		}

  00005	c3		 ret	 0
?max_size@?$vector@MV?$allocator@M@std@@@std@@QBEIXZ ENDP ; std::vector<float,std::allocator<float> >::max_size
_TEXT	ENDS
PUBLIC	?_Grow_to@?$vector@MV?$allocator@M@std@@@std@@IBEII@Z ; std::vector<float,std::allocator<float> >::_Grow_to
; Function compile flags: /Ogsp
;	COMDAT ?_Grow_to@?$vector@MV?$allocator@M@std@@@std@@IBEII@Z
_TEXT	SEGMENT
__Count$ = 8						; size = 4
?_Grow_to@?$vector@MV?$allocator@M@std@@@std@@IBEII@Z PROC ; std::vector<float,std::allocator<float> >::_Grow_to, COMDAT
; _this$ = ecx

; 1274 : 		{	// grow by 50% or at least to _Count

  00000	55		 push	 ebp
  00001	8b ec		 mov	 ebp, esp

; 1275 : 		size_type _Capacity = capacity();

  00003	8b 41 08	 mov	 eax, DWORD PTR [ecx+8]
  00006	2b 01		 sub	 eax, DWORD PTR [ecx]

; 1276 : 
; 1277 : 		_Capacity = max_size() - _Capacity / 2 < _Capacity
; 1278 : 			? 0 : _Capacity + _Capacity / 2;	// try to grow by 50%

  00008	ba ff ff ff 3f	 mov	 edx, 1073741823		; 3fffffffH
  0000d	c1 f8 02	 sar	 eax, 2
  00010	8b c8		 mov	 ecx, eax
  00012	d1 e9		 shr	 ecx, 1
  00014	2b d1		 sub	 edx, ecx
  00016	3b d0		 cmp	 edx, eax
  00018	73 04		 jae	 SHORT $LN4@Grow_to
  0001a	33 c0		 xor	 eax, eax
  0001c	eb 02		 jmp	 SHORT $LN5@Grow_to
$LN4@Grow_to:
  0001e	03 c1		 add	 eax, ecx
$LN5@Grow_to:

; 1279 : 		if (_Capacity < _Count)

  00020	3b 45 08	 cmp	 eax, DWORD PTR __Count$[ebp]

; 1280 : 			_Capacity = _Count;

  00023	0f 42 45 08	 cmovb	 eax, DWORD PTR __Count$[ebp]

; 1281 : 		return (_Capacity);
; 1282 : 		}

  00027	5d		 pop	 ebp
  00028	c2 04 00	 ret	 4
?_Grow_to@?$vector@MV?$allocator@M@std@@@std@@IBEII@Z ENDP ; std::vector<float,std::allocator<float> >::_Grow_to
_TEXT	ENDS
PUBLIC	?allocate@?$allocator@M@std@@QAEPAMI@Z		; std::allocator<float>::allocate
; Function compile flags: /Ogsp
; File c:\program files (x86)\microsoft visual studio 10.0\vc\include\xmemory
;	COMDAT ?allocate@?$allocator@M@std@@QAEPAMI@Z
_TEXT	SEGMENT
__Count$ = 8						; size = 4
?allocate@?$allocator@M@std@@QAEPAMI@Z PROC		; std::allocator<float>::allocate, COMDAT
; _this$ = ecx

; 186  : 		{	// allocate array of _Count elements

  00000	55		 push	 ebp
  00001	8b ec		 mov	 ebp, esp

; 187  : 		return (_Allocate(_Count, (pointer)0));

  00003	6a 00		 push	 0
  00005	ff 75 08	 push	 DWORD PTR __Count$[ebp]
  00008	e8 00 00 00 00	 call	 ??$_Allocate@M@std@@YAPAMIPAM@Z ; std::_Allocate<float>
  0000d	59		 pop	 ecx
  0000e	59		 pop	 ecx

; 188  : 		}

  0000f	5d		 pop	 ebp
  00010	c2 04 00	 ret	 4
?allocate@?$allocator@M@std@@QAEPAMI@Z ENDP		; std::allocator<float>::allocate
_TEXT	ENDS
PUBLIC	__$ArrayPad$
PUBLIC	??$LoadInt_e@$0N@@ioINILoader@@QAEHAAY0N@$$CBDH@Z ; ioINILoader::LoadInt_e<13>
EXTRN	__imp_?LoadInt@ioINILoader@@QAEHPBDH@Z:PROC
EXTRN	___security_cookie:DWORD
; Function compile flags: /Ogsp
; File d:\lost saga for developer\youtube\tutorial\source\src\io3dengine\ioiniloader.h
;	COMDAT ??$LoadInt_e@$0N@@ioINILoader@@QAEHAAY0N@$$CBDH@Z
_TEXT	SEGMENT
__k$ = -24						; size = 13
__$ArrayPad$ = -4					; size = 4
_k$ = 8							; size = 4
_i$ = 12						; size = 4
??$LoadInt_e@$0N@@ioINILoader@@QAEHAAY0N@$$CBDH@Z PROC	; ioINILoader::LoadInt_e<13>, COMDAT
; _this$ = ecx

; 118  : 	{

  00000	55		 push	 ebp
  00001	8b ec		 mov	 ebp, esp
  00003	83 ec 18	 sub	 esp, 24			; 00000018H
  00006	a1 00 00 00 00	 mov	 eax, DWORD PTR ___security_cookie
  0000b	33 c5		 xor	 eax, ebp
  0000d	89 45 fc	 mov	 DWORD PTR __$ArrayPad$[ebp], eax
  00010	8b 45 08	 mov	 eax, DWORD PTR _k$[ebp]

; 119  : 		_ENCSTR(k, _k);

  00013	8a 10		 mov	 dl, BYTE PTR [eax]
  00015	56		 push	 esi
  00016	8b f1		 mov	 esi, ecx
  00018	84 d2		 test	 dl, dl
  0001a	0f 84 4d 01 00
	00		 je	 $LN96@LoadInt_e
  00020	80 f2 ed	 xor	 dl, -19			; ffffffedH
  00023	88 55 e8	 mov	 BYTE PTR __k$[ebp], dl
  00026	8a 50 01	 mov	 dl, BYTE PTR [eax+1]
  00029	84 d2		 test	 dl, dl
  0002b	0f 84 36 01 00
	00		 je	 $LN95@LoadInt_e
  00031	b1 ec		 mov	 cl, -20			; ffffffecH
  00033	32 d1		 xor	 dl, cl
  00035	88 55 e9	 mov	 BYTE PTR __k$[ebp+1], dl
  00038	8a 50 02	 mov	 dl, BYTE PTR [eax+2]
  0003b	84 d2		 test	 dl, dl
  0003d	0f 84 1e 01 00
	00		 je	 $LN94@LoadInt_e
  00043	80 f2 eb	 xor	 dl, -21			; ffffffebH
  00046	88 55 ea	 mov	 BYTE PTR __k$[ebp+2], dl
  00049	8a 50 03	 mov	 dl, BYTE PTR [eax+3]
  0004c	84 d2		 test	 dl, dl
  0004e	0f 84 07 01 00
	00		 je	 $LN93@LoadInt_e
  00054	80 f2 ea	 xor	 dl, -22			; ffffffeaH
  00057	88 55 eb	 mov	 BYTE PTR __k$[ebp+3], dl
  0005a	8a 50 04	 mov	 dl, BYTE PTR [eax+4]
  0005d	84 d2		 test	 dl, dl
  0005f	0f 84 f0 00 00
	00		 je	 $LN92@LoadInt_e
  00065	80 f2 ed	 xor	 dl, -19			; ffffffedH
  00068	88 55 ec	 mov	 BYTE PTR __k$[ebp+4], dl
  0006b	8a 50 05	 mov	 dl, BYTE PTR [eax+5]
  0006e	84 d2		 test	 dl, dl
  00070	0f 84 da 00 00
	00		 je	 $LN91@LoadInt_e
  00076	32 d1		 xor	 dl, cl
  00078	88 55 ed	 mov	 BYTE PTR __k$[ebp+5], dl
  0007b	8a 50 06	 mov	 dl, BYTE PTR [eax+6]
  0007e	84 d2		 test	 dl, dl
  00080	0f 84 c4 00 00
	00		 je	 $LN90@LoadInt_e
  00086	80 f2 eb	 xor	 dl, -21			; ffffffebH
  00089	88 55 ee	 mov	 BYTE PTR __k$[ebp+6], dl
  0008c	8a 50 07	 mov	 dl, BYTE PTR [eax+7]
  0008f	84 d2		 test	 dl, dl
  00091	0f 84 ad 00 00
	00		 je	 $LN89@LoadInt_e
  00097	80 f2 ea	 xor	 dl, -22			; ffffffeaH
  0009a	88 55 ef	 mov	 BYTE PTR __k$[ebp+7], dl
  0009d	8a 50 08	 mov	 dl, BYTE PTR [eax+8]
  000a0	84 d2		 test	 dl, dl
  000a2	0f 84 96 00 00
	00		 je	 $LN88@LoadInt_e
  000a8	80 f2 ed	 xor	 dl, -19			; ffffffedH
  000ab	88 55 f0	 mov	 BYTE PTR __k$[ebp+8], dl
  000ae	8a 50 09	 mov	 dl, BYTE PTR [eax+9]
  000b1	84 d2		 test	 dl, dl
  000b3	0f 84 80 00 00
	00		 je	 $LN87@LoadInt_e
  000b9	32 d1		 xor	 dl, cl
  000bb	88 55 f1	 mov	 BYTE PTR __k$[ebp+9], dl
  000be	8a 50 0a	 mov	 dl, BYTE PTR [eax+10]
  000c1	84 d2		 test	 dl, dl
  000c3	74 6e		 je	 SHORT $LN86@LoadInt_e
  000c5	80 f2 eb	 xor	 dl, -21			; ffffffebH
  000c8	88 55 f2	 mov	 BYTE PTR __k$[ebp+10], dl
  000cb	8a 50 0b	 mov	 dl, BYTE PTR [eax+11]
  000ce	84 d2		 test	 dl, dl
  000d0	74 5b		 je	 SHORT $LN85@LoadInt_e
  000d2	80 f2 ea	 xor	 dl, -22			; ffffffeaH
  000d5	80 78 0c 00	 cmp	 BYTE PTR [eax+12], 0
  000d9	88 55 f3	 mov	 BYTE PTR __k$[ebp+11], dl
  000dc	0f 84 8f 00 00
	00		 je	 $LN1@LoadInt_e
  000e2	8a 50 0d	 mov	 dl, BYTE PTR [eax+13]
  000e5	84 d2		 test	 dl, dl
  000e7	74 3f		 je	 SHORT $LN83@LoadInt_e
  000e9	32 d1		 xor	 dl, cl
  000eb	88 55 f5	 mov	 BYTE PTR __k$[ebp+13], dl
  000ee	8a 50 0e	 mov	 dl, BYTE PTR [eax+14]
  000f1	84 d2		 test	 dl, dl
  000f3	74 2d		 je	 SHORT $LN82@LoadInt_e
  000f5	80 f2 eb	 xor	 dl, -21			; ffffffebH
  000f8	88 55 f6	 mov	 BYTE PTR __k$[ebp+14], dl
  000fb	8a 50 0f	 mov	 dl, BYTE PTR [eax+15]
  000fe	84 d2		 test	 dl, dl
  00100	74 1a		 je	 SHORT $LN81@LoadInt_e
  00102	8a 40 10	 mov	 al, BYTE PTR [eax+16]
  00105	80 f2 ea	 xor	 dl, -22			; ffffffeaH
  00108	88 55 f7	 mov	 BYTE PTR __k$[ebp+15], dl
  0010b	84 c0		 test	 al, al
  0010d	74 07		 je	 SHORT $LN80@LoadInt_e
  0010f	34 ed		 xor	 al, -19			; ffffffedH
  00111	88 45 f8	 mov	 BYTE PTR __k$[ebp+16], al
  00114	eb 5b		 jmp	 SHORT $LN1@LoadInt_e
$LN80@LoadInt_e:
  00116	c6 45 f8 ed	 mov	 BYTE PTR __k$[ebp+16], -19 ; ffffffedH
  0011a	eb 55		 jmp	 SHORT $LN1@LoadInt_e
$LN81@LoadInt_e:
  0011c	c6 45 f7 ea	 mov	 BYTE PTR __k$[ebp+15], -22 ; ffffffeaH
  00120	eb 4f		 jmp	 SHORT $LN1@LoadInt_e
$LN82@LoadInt_e:
  00122	c6 45 f6 eb	 mov	 BYTE PTR __k$[ebp+14], -21 ; ffffffebH
  00126	eb 49		 jmp	 SHORT $LN1@LoadInt_e
$LN83@LoadInt_e:
  00128	88 4d f5	 mov	 BYTE PTR __k$[ebp+13], cl
  0012b	eb 44		 jmp	 SHORT $LN1@LoadInt_e
$LN85@LoadInt_e:
  0012d	c6 45 f3 ea	 mov	 BYTE PTR __k$[ebp+11], -22 ; ffffffeaH
  00131	eb 3e		 jmp	 SHORT $LN1@LoadInt_e
$LN86@LoadInt_e:
  00133	c6 45 f2 eb	 mov	 BYTE PTR __k$[ebp+10], -21 ; ffffffebH
  00137	eb 38		 jmp	 SHORT $LN1@LoadInt_e
$LN87@LoadInt_e:
  00139	88 4d f1	 mov	 BYTE PTR __k$[ebp+9], cl
  0013c	eb 33		 jmp	 SHORT $LN1@LoadInt_e
$LN88@LoadInt_e:
  0013e	c6 45 f0 ed	 mov	 BYTE PTR __k$[ebp+8], -19 ; ffffffedH
  00142	eb 2d		 jmp	 SHORT $LN1@LoadInt_e
$LN89@LoadInt_e:
  00144	c6 45 ef ea	 mov	 BYTE PTR __k$[ebp+7], -22 ; ffffffeaH
  00148	eb 27		 jmp	 SHORT $LN1@LoadInt_e
$LN90@LoadInt_e:
  0014a	c6 45 ee eb	 mov	 BYTE PTR __k$[ebp+6], -21 ; ffffffebH
  0014e	eb 21		 jmp	 SHORT $LN1@LoadInt_e
$LN91@LoadInt_e:
  00150	88 4d ed	 mov	 BYTE PTR __k$[ebp+5], cl
  00153	eb 1c		 jmp	 SHORT $LN1@LoadInt_e
$LN92@LoadInt_e:
  00155	c6 45 ec ed	 mov	 BYTE PTR __k$[ebp+4], -19 ; ffffffedH
  00159	eb 16		 jmp	 SHORT $LN1@LoadInt_e
$LN93@LoadInt_e:
  0015b	c6 45 eb ea	 mov	 BYTE PTR __k$[ebp+3], -22 ; ffffffeaH
  0015f	eb 10		 jmp	 SHORT $LN1@LoadInt_e
$LN94@LoadInt_e:
  00161	c6 45 ea eb	 mov	 BYTE PTR __k$[ebp+2], -21 ; ffffffebH
  00165	eb 0a		 jmp	 SHORT $LN1@LoadInt_e
$LN95@LoadInt_e:
  00167	c6 45 e9 ec	 mov	 BYTE PTR __k$[ebp+1], -20 ; ffffffecH
  0016b	eb 04		 jmp	 SHORT $LN1@LoadInt_e
$LN96@LoadInt_e:
  0016d	c6 45 e8 ed	 mov	 BYTE PTR __k$[ebp], -19	; ffffffedH
$LN1@LoadInt_e:
  00171	6a 03		 push	 3
  00173	8d 45 e8	 lea	 eax, DWORD PTR __k$[ebp]
  00176	c6 45 f4 00	 mov	 BYTE PTR __k$[ebp+12], 0
  0017a	5a		 pop	 edx
$LL104@LoadInt_e:
  0017b	81 30 ed ec eb
	ea		 xor	 DWORD PTR [eax], -353637139 ; eaebecedH
  00181	83 c0 04	 add	 eax, 4
  00184	4a		 dec	 edx
  00185	75 f4		 jne	 SHORT $LL104@LoadInt_e

; 120  : 		return LoadInt(_k, i);

  00187	ff 75 0c	 push	 DWORD PTR _i$[ebp]
  0018a	8d 45 e8	 lea	 eax, DWORD PTR __k$[ebp]
  0018d	50		 push	 eax
  0018e	8b ce		 mov	 ecx, esi
  00190	ff 15 00 00 00
	00		 call	 DWORD PTR __imp_?LoadInt@ioINILoader@@QAEHPBDH@Z

; 121  : 	}

  00196	8b 4d fc	 mov	 ecx, DWORD PTR __$ArrayPad$[ebp]
  00199	33 cd		 xor	 ecx, ebp
  0019b	5e		 pop	 esi
  0019c	e8 00 00 00 00	 call	 @__security_check_cookie@4
  001a1	c9		 leave
  001a2	c2 08 00	 ret	 8
??$LoadInt_e@$0N@@ioINILoader@@QAEHAAY0N@$$CBDH@Z ENDP	; ioINILoader::LoadInt_e<13>
_TEXT	ENDS
PUBLIC	_this$GSCopy$
PUBLIC	__$ArrayPad$
PUBLIC	??$LoadString_e@$0BC@@ioINILoader@@QAEXAAY0BC@$$CBDAAY00$$CBDPADH@Z ; ioINILoader::LoadString_e<18>
EXTRN	__imp_?LoadStringA@ioINILoader@@QAEXPBD0PADH@Z:PROC
; Function compile flags: /Ogsp
;	COMDAT ??$LoadString_e@$0BC@@ioINILoader@@QAEXAAY0BC@$$CBDAAY00$$CBDPADH@Z
_TEXT	SEGMENT
_this$GSCopy$ = -32					; size = 4
__k$ = -28						; size = 18
__$ArrayPad$ = -4					; size = 4
_k$ = 8							; size = 4
_d$ = 12						; size = 4
_b$ = 16						; size = 4
_i$ = 20						; size = 4
??$LoadString_e@$0BC@@ioINILoader@@QAEXAAY0BC@$$CBDAAY00$$CBDPADH@Z PROC ; ioINILoader::LoadString_e<18>, COMDAT
; _this$ = ecx

; 161  : 	{

  00000	55		 push	 ebp
  00001	8b ec		 mov	 ebp, esp
  00003	83 ec 20	 sub	 esp, 32			; 00000020H
  00006	a1 00 00 00 00	 mov	 eax, DWORD PTR ___security_cookie
  0000b	33 c5		 xor	 eax, ebp
  0000d	89 45 fc	 mov	 DWORD PTR __$ArrayPad$[ebp], eax
  00010	8b 45 08	 mov	 eax, DWORD PTR _k$[ebp]

; 162  : 		_ENCSTR(k, _k);

  00013	8a 10		 mov	 dl, BYTE PTR [eax]
  00015	56		 push	 esi
  00016	8b 75 0c	 mov	 esi, DWORD PTR _d$[ebp]
  00019	57		 push	 edi
  0001a	8b 7d 10	 mov	 edi, DWORD PTR _b$[ebp]
  0001d	89 4d e0	 mov	 DWORD PTR _this$GSCopy$[ebp], ecx
  00020	84 d2		 test	 dl, dl
  00022	0f 84 be 01 00
	00		 je	 $LN96@LoadString
  00028	80 f2 ed	 xor	 dl, -19			; ffffffedH
  0002b	88 55 e4	 mov	 BYTE PTR __k$[ebp], dl
  0002e	8a 50 01	 mov	 dl, BYTE PTR [eax+1]
  00031	84 d2		 test	 dl, dl
  00033	0f 84 a7 01 00
	00		 je	 $LN95@LoadString
  00039	80 f2 ec	 xor	 dl, -20			; ffffffecH
  0003c	88 55 e5	 mov	 BYTE PTR __k$[ebp+1], dl
  0003f	8a 50 02	 mov	 dl, BYTE PTR [eax+2]
  00042	84 d2		 test	 dl, dl
  00044	0f 84 90 01 00
	00		 je	 $LN94@LoadString
  0004a	b1 eb		 mov	 cl, -21			; ffffffebH
  0004c	32 d1		 xor	 dl, cl
  0004e	88 55 e6	 mov	 BYTE PTR __k$[ebp+2], dl
  00051	8a 50 03	 mov	 dl, BYTE PTR [eax+3]
  00054	84 d2		 test	 dl, dl
  00056	0f 84 78 01 00
	00		 je	 $LN93@LoadString
  0005c	80 f2 ea	 xor	 dl, -22			; ffffffeaH
  0005f	88 55 e7	 mov	 BYTE PTR __k$[ebp+3], dl
  00062	8a 50 04	 mov	 dl, BYTE PTR [eax+4]
  00065	84 d2		 test	 dl, dl
  00067	0f 84 61 01 00
	00		 je	 $LN92@LoadString
  0006d	80 f2 ed	 xor	 dl, -19			; ffffffedH
  00070	88 55 e8	 mov	 BYTE PTR __k$[ebp+4], dl
  00073	8a 50 05	 mov	 dl, BYTE PTR [eax+5]
  00076	84 d2		 test	 dl, dl
  00078	0f 84 4a 01 00
	00		 je	 $LN91@LoadString
  0007e	80 f2 ec	 xor	 dl, -20			; ffffffecH
  00081	88 55 e9	 mov	 BYTE PTR __k$[ebp+5], dl
  00084	8a 50 06	 mov	 dl, BYTE PTR [eax+6]
  00087	84 d2		 test	 dl, dl
  00089	0f 84 34 01 00
	00		 je	 $LN90@LoadString
  0008f	32 d1		 xor	 dl, cl
  00091	88 55 ea	 mov	 BYTE PTR __k$[ebp+6], dl
  00094	8a 50 07	 mov	 dl, BYTE PTR [eax+7]
  00097	84 d2		 test	 dl, dl
  00099	0f 84 1e 01 00
	00		 je	 $LN89@LoadString
  0009f	80 f2 ea	 xor	 dl, -22			; ffffffeaH
  000a2	88 55 eb	 mov	 BYTE PTR __k$[ebp+7], dl
  000a5	8a 50 08	 mov	 dl, BYTE PTR [eax+8]
  000a8	84 d2		 test	 dl, dl
  000aa	0f 84 07 01 00
	00		 je	 $LN88@LoadString
  000b0	80 f2 ed	 xor	 dl, -19			; ffffffedH
  000b3	88 55 ec	 mov	 BYTE PTR __k$[ebp+8], dl
  000b6	8a 50 09	 mov	 dl, BYTE PTR [eax+9]
  000b9	84 d2		 test	 dl, dl
  000bb	0f 84 f0 00 00
	00		 je	 $LN87@LoadString
  000c1	80 f2 ec	 xor	 dl, -20			; ffffffecH
  000c4	88 55 ed	 mov	 BYTE PTR __k$[ebp+9], dl
  000c7	8a 50 0a	 mov	 dl, BYTE PTR [eax+10]
  000ca	84 d2		 test	 dl, dl
  000cc	0f 84 da 00 00
	00		 je	 $LN86@LoadString
  000d2	32 d1		 xor	 dl, cl
  000d4	88 55 ee	 mov	 BYTE PTR __k$[ebp+10], dl
  000d7	8a 50 0b	 mov	 dl, BYTE PTR [eax+11]
  000da	84 d2		 test	 dl, dl
  000dc	0f 84 c4 00 00
	00		 je	 $LN85@LoadString
  000e2	80 f2 ea	 xor	 dl, -22			; ffffffeaH
  000e5	88 55 ef	 mov	 BYTE PTR __k$[ebp+11], dl
  000e8	8a 50 0c	 mov	 dl, BYTE PTR [eax+12]
  000eb	84 d2		 test	 dl, dl
  000ed	0f 84 ad 00 00
	00		 je	 $LN84@LoadString
  000f3	80 f2 ed	 xor	 dl, -19			; ffffffedH
  000f6	88 55 f0	 mov	 BYTE PTR __k$[ebp+12], dl
  000f9	8a 50 0d	 mov	 dl, BYTE PTR [eax+13]
  000fc	84 d2		 test	 dl, dl
  000fe	0f 84 96 00 00
	00		 je	 $LN83@LoadString
  00104	80 f2 ec	 xor	 dl, -20			; ffffffecH
  00107	88 55 f1	 mov	 BYTE PTR __k$[ebp+13], dl
  0010a	8a 50 0e	 mov	 dl, BYTE PTR [eax+14]
  0010d	84 d2		 test	 dl, dl
  0010f	0f 84 80 00 00
	00		 je	 $LN82@LoadString
  00115	32 d1		 xor	 dl, cl
  00117	88 55 f2	 mov	 BYTE PTR __k$[ebp+14], dl
  0011a	8a 50 0f	 mov	 dl, BYTE PTR [eax+15]
  0011d	84 d2		 test	 dl, dl
  0011f	74 6e		 je	 SHORT $LN81@LoadString
  00121	80 f2 ea	 xor	 dl, -22			; ffffffeaH
  00124	88 55 f3	 mov	 BYTE PTR __k$[ebp+15], dl
  00127	8a 50 10	 mov	 dl, BYTE PTR [eax+16]
  0012a	84 d2		 test	 dl, dl
  0012c	74 5b		 je	 SHORT $LN80@LoadString
  0012e	80 f2 ed	 xor	 dl, -19			; ffffffedH
  00131	80 78 11 00	 cmp	 BYTE PTR [eax+17], 0
  00135	88 55 f4	 mov	 BYTE PTR __k$[ebp+16], dl
  00138	0f 84 ac 00 00
	00		 je	 $LN111@LoadString
  0013e	8a 50 12	 mov	 dl, BYTE PTR [eax+18]
  00141	84 d2		 test	 dl, dl
  00143	74 3f		 je	 SHORT $LN78@LoadString
  00145	32 d1		 xor	 dl, cl
  00147	88 55 f6	 mov	 BYTE PTR __k$[ebp+18], dl
  0014a	8a 50 13	 mov	 dl, BYTE PTR [eax+19]
  0014d	84 d2		 test	 dl, dl
  0014f	74 2d		 je	 SHORT $LN77@LoadString
  00151	80 f2 ea	 xor	 dl, -22			; ffffffeaH
  00154	88 55 f7	 mov	 BYTE PTR __k$[ebp+19], dl
  00157	8a 50 14	 mov	 dl, BYTE PTR [eax+20]
  0015a	84 d2		 test	 dl, dl
  0015c	74 1a		 je	 SHORT $LN76@LoadString
  0015e	8a 40 15	 mov	 al, BYTE PTR [eax+21]
  00161	80 f2 ed	 xor	 dl, -19			; ffffffedH
  00164	88 55 f8	 mov	 BYTE PTR __k$[ebp+20], dl
  00167	84 c0		 test	 al, al
  00169	74 07		 je	 SHORT $LN75@LoadString
  0016b	34 ec		 xor	 al, -20			; ffffffecH
  0016d	88 45 f9	 mov	 BYTE PTR __k$[ebp+21], al
  00170	eb 78		 jmp	 SHORT $LN111@LoadString
$LN75@LoadString:
  00172	c6 45 f9 ec	 mov	 BYTE PTR __k$[ebp+21], -20 ; ffffffecH
  00176	eb 72		 jmp	 SHORT $LN111@LoadString
$LN76@LoadString:
  00178	c6 45 f8 ed	 mov	 BYTE PTR __k$[ebp+20], -19 ; ffffffedH
  0017c	eb 6c		 jmp	 SHORT $LN111@LoadString
$LN77@LoadString:
  0017e	c6 45 f7 ea	 mov	 BYTE PTR __k$[ebp+19], -22 ; ffffffeaH
  00182	eb 66		 jmp	 SHORT $LN111@LoadString
$LN78@LoadString:
  00184	88 4d f6	 mov	 BYTE PTR __k$[ebp+18], cl
  00187	eb 61		 jmp	 SHORT $LN111@LoadString
$LN80@LoadString:
  00189	c6 45 f4 ed	 mov	 BYTE PTR __k$[ebp+16], -19 ; ffffffedH
  0018d	eb 5b		 jmp	 SHORT $LN111@LoadString
$LN81@LoadString:
  0018f	c6 45 f3 ea	 mov	 BYTE PTR __k$[ebp+15], -22 ; ffffffeaH
  00193	eb 55		 jmp	 SHORT $LN111@LoadString
$LN82@LoadString:
  00195	88 4d f2	 mov	 BYTE PTR __k$[ebp+14], cl
  00198	eb 50		 jmp	 SHORT $LN111@LoadString
$LN83@LoadString:
  0019a	c6 45 f1 ec	 mov	 BYTE PTR __k$[ebp+13], -20 ; ffffffecH
  0019e	eb 4a		 jmp	 SHORT $LN111@LoadString
$LN84@LoadString:
  001a0	c6 45 f0 ed	 mov	 BYTE PTR __k$[ebp+12], -19 ; ffffffedH
  001a4	eb 44		 jmp	 SHORT $LN111@LoadString
$LN85@LoadString:
  001a6	c6 45 ef ea	 mov	 BYTE PTR __k$[ebp+11], -22 ; ffffffeaH
  001aa	eb 3e		 jmp	 SHORT $LN111@LoadString
$LN86@LoadString:
  001ac	88 4d ee	 mov	 BYTE PTR __k$[ebp+10], cl
  001af	eb 39		 jmp	 SHORT $LN111@LoadString
$LN87@LoadString:
  001b1	c6 45 ed ec	 mov	 BYTE PTR __k$[ebp+9], -20 ; ffffffecH
  001b5	eb 33		 jmp	 SHORT $LN111@LoadString
$LN88@LoadString:
  001b7	c6 45 ec ed	 mov	 BYTE PTR __k$[ebp+8], -19 ; ffffffedH
  001bb	eb 2d		 jmp	 SHORT $LN111@LoadString
$LN89@LoadString:
  001bd	c6 45 eb ea	 mov	 BYTE PTR __k$[ebp+7], -22 ; ffffffeaH
  001c1	eb 27		 jmp	 SHORT $LN111@LoadString
$LN90@LoadString:
  001c3	88 4d ea	 mov	 BYTE PTR __k$[ebp+6], cl
  001c6	eb 22		 jmp	 SHORT $LN111@LoadString
$LN91@LoadString:
  001c8	c6 45 e9 ec	 mov	 BYTE PTR __k$[ebp+5], -20 ; ffffffecH
  001cc	eb 1c		 jmp	 SHORT $LN111@LoadString
$LN92@LoadString:
  001ce	c6 45 e8 ed	 mov	 BYTE PTR __k$[ebp+4], -19 ; ffffffedH
  001d2	eb 16		 jmp	 SHORT $LN111@LoadString
$LN93@LoadString:
  001d4	c6 45 e7 ea	 mov	 BYTE PTR __k$[ebp+3], -22 ; ffffffeaH
  001d8	eb 10		 jmp	 SHORT $LN111@LoadString
$LN94@LoadString:
  001da	c6 45 e6 eb	 mov	 BYTE PTR __k$[ebp+2], -21 ; ffffffebH
  001de	eb 0a		 jmp	 SHORT $LN111@LoadString
$LN95@LoadString:
  001e0	c6 45 e5 ec	 mov	 BYTE PTR __k$[ebp+1], -20 ; ffffffecH
  001e4	eb 04		 jmp	 SHORT $LN111@LoadString
$LN96@LoadString:
  001e6	c6 45 e4 ed	 mov	 BYTE PTR __k$[ebp], -19	; ffffffedH
$LN111@LoadString:
  001ea	6a 04		 push	 4
  001ec	8d 45 e4	 lea	 eax, DWORD PTR __k$[ebp]
  001ef	c6 45 f5 00	 mov	 BYTE PTR __k$[ebp+17], 0
  001f3	5a		 pop	 edx
$LL104@LoadString:
  001f4	81 30 ed ec eb
	ea		 xor	 DWORD PTR [eax], -353637139 ; eaebecedH
  001fa	83 c0 04	 add	 eax, 4
  001fd	4a		 dec	 edx
  001fe	75 f4		 jne	 SHORT $LL104@LoadString

; 163  : 		LoadString(_k, d, b, i);

  00200	ff 75 14	 push	 DWORD PTR _i$[ebp]
  00203	8b 4d e0	 mov	 ecx, DWORD PTR _this$GSCopy$[ebp]
  00206	80 75 f4 ed	 xor	 BYTE PTR __k$[ebp+16], -19 ; ffffffedH
  0020a	57		 push	 edi
  0020b	56		 push	 esi
  0020c	8d 45 e4	 lea	 eax, DWORD PTR __k$[ebp]
  0020f	50		 push	 eax
  00210	ff 15 00 00 00
	00		 call	 DWORD PTR __imp_?LoadStringA@ioINILoader@@QAEXPBD0PADH@Z

; 164  : 	}

  00216	8b 4d fc	 mov	 ecx, DWORD PTR __$ArrayPad$[ebp]
  00219	5f		 pop	 edi
  0021a	33 cd		 xor	 ecx, ebp
  0021c	5e		 pop	 esi
  0021d	e8 00 00 00 00	 call	 @__security_check_cookie@4
  00222	c9		 leave
  00223	c2 10 00	 ret	 16			; 00000010H
??$LoadString_e@$0BC@@ioINILoader@@QAEXAAY0BC@$$CBDAAY00$$CBDPADH@Z ENDP ; ioINILoader::LoadString_e<18>
_TEXT	ENDS
PUBLIC	__$ArrayPad$
PUBLIC	??$LoadFloat_e@$0BH@@ioINILoader@@QAEMAAY0BH@$$CBDM@Z ; ioINILoader::LoadFloat_e<23>
EXTRN	__imp_?LoadFloat@ioINILoader@@QAEMPBDM@Z:PROC
; Function compile flags: /Ogsp
;	COMDAT ??$LoadFloat_e@$0BH@@ioINILoader@@QAEMAAY0BH@$$CBDM@Z
_TEXT	SEGMENT
__k$ = -32						; size = 23
__$ArrayPad$ = -4					; size = 4
_k$ = 8							; size = 4
_f$ = 12						; size = 4
??$LoadFloat_e@$0BH@@ioINILoader@@QAEMAAY0BH@$$CBDM@Z PROC ; ioINILoader::LoadFloat_e<23>, COMDAT
; _this$ = ecx

; 135  : 	{

  00000	55		 push	 ebp
  00001	8b ec		 mov	 ebp, esp
  00003	83 ec 20	 sub	 esp, 32			; 00000020H
  00006	a1 00 00 00 00	 mov	 eax, DWORD PTR ___security_cookie
  0000b	33 c5		 xor	 eax, ebp
  0000d	89 45 fc	 mov	 DWORD PTR __$ArrayPad$[ebp], eax
  00010	8b 45 08	 mov	 eax, DWORD PTR _k$[ebp]

; 136  : 		_ENCSTR(k, _k);

  00013	8a 10		 mov	 dl, BYTE PTR [eax]
  00015	53		 push	 ebx
  00016	56		 push	 esi
  00017	8b f1		 mov	 esi, ecx
  00019	84 d2		 test	 dl, dl
  0001b	0f 84 2d 02 00
	00		 je	 $LN96@LoadFloat_
  00021	80 f2 ed	 xor	 dl, -19			; ffffffedH
  00024	88 55 e0	 mov	 BYTE PTR __k$[ebp], dl
  00027	8a 50 01	 mov	 dl, BYTE PTR [eax+1]
  0002a	84 d2		 test	 dl, dl
  0002c	0f 84 16 02 00
	00		 je	 $LN95@LoadFloat_
  00032	b1 ec		 mov	 cl, -20			; ffffffecH
  00034	32 d1		 xor	 dl, cl
  00036	88 55 e1	 mov	 BYTE PTR __k$[ebp+1], dl
  00039	8a 50 02	 mov	 dl, BYTE PTR [eax+2]
  0003c	84 d2		 test	 dl, dl
  0003e	0f 84 fe 01 00
	00		 je	 $LN94@LoadFloat_
  00044	80 f2 eb	 xor	 dl, -21			; ffffffebH
  00047	88 55 e2	 mov	 BYTE PTR __k$[ebp+2], dl
  0004a	8a 50 03	 mov	 dl, BYTE PTR [eax+3]
  0004d	84 d2		 test	 dl, dl
  0004f	0f 84 e7 01 00
	00		 je	 $LN93@LoadFloat_
  00055	b3 ea		 mov	 bl, -22			; ffffffeaH
  00057	32 d3		 xor	 dl, bl
  00059	88 55 e3	 mov	 BYTE PTR __k$[ebp+3], dl
  0005c	8a 50 04	 mov	 dl, BYTE PTR [eax+4]
  0005f	84 d2		 test	 dl, dl
  00061	0f 84 cf 01 00
	00		 je	 $LN92@LoadFloat_
  00067	80 f2 ed	 xor	 dl, -19			; ffffffedH
  0006a	88 55 e4	 mov	 BYTE PTR __k$[ebp+4], dl
  0006d	8a 50 05	 mov	 dl, BYTE PTR [eax+5]
  00070	84 d2		 test	 dl, dl
  00072	0f 84 b9 01 00
	00		 je	 $LN91@LoadFloat_
  00078	32 d1		 xor	 dl, cl
  0007a	88 55 e5	 mov	 BYTE PTR __k$[ebp+5], dl
  0007d	8a 50 06	 mov	 dl, BYTE PTR [eax+6]
  00080	84 d2		 test	 dl, dl
  00082	0f 84 a3 01 00
	00		 je	 $LN90@LoadFloat_
  00088	80 f2 eb	 xor	 dl, -21			; ffffffebH
  0008b	88 55 e6	 mov	 BYTE PTR __k$[ebp+6], dl
  0008e	8a 50 07	 mov	 dl, BYTE PTR [eax+7]
  00091	84 d2		 test	 dl, dl
  00093	0f 84 8d 01 00
	00		 je	 $LN89@LoadFloat_
  00099	32 d3		 xor	 dl, bl
  0009b	88 55 e7	 mov	 BYTE PTR __k$[ebp+7], dl
  0009e	8a 50 08	 mov	 dl, BYTE PTR [eax+8]
  000a1	84 d2		 test	 dl, dl
  000a3	0f 84 77 01 00
	00		 je	 $LN88@LoadFloat_
  000a9	80 f2 ed	 xor	 dl, -19			; ffffffedH
  000ac	88 55 e8	 mov	 BYTE PTR __k$[ebp+8], dl
  000af	8a 50 09	 mov	 dl, BYTE PTR [eax+9]
  000b2	84 d2		 test	 dl, dl
  000b4	0f 84 61 01 00
	00		 je	 $LN87@LoadFloat_
  000ba	32 d1		 xor	 dl, cl
  000bc	88 55 e9	 mov	 BYTE PTR __k$[ebp+9], dl
  000bf	8a 50 0a	 mov	 dl, BYTE PTR [eax+10]
  000c2	84 d2		 test	 dl, dl
  000c4	0f 84 4b 01 00
	00		 je	 $LN86@LoadFloat_
  000ca	80 f2 eb	 xor	 dl, -21			; ffffffebH
  000cd	88 55 ea	 mov	 BYTE PTR __k$[ebp+10], dl
  000d0	8a 50 0b	 mov	 dl, BYTE PTR [eax+11]
  000d3	84 d2		 test	 dl, dl
  000d5	0f 84 35 01 00
	00		 je	 $LN85@LoadFloat_
  000db	32 d3		 xor	 dl, bl
  000dd	88 55 eb	 mov	 BYTE PTR __k$[ebp+11], dl
  000e0	8a 50 0c	 mov	 dl, BYTE PTR [eax+12]
  000e3	84 d2		 test	 dl, dl
  000e5	0f 84 1f 01 00
	00		 je	 $LN84@LoadFloat_
  000eb	80 f2 ed	 xor	 dl, -19			; ffffffedH
  000ee	88 55 ec	 mov	 BYTE PTR __k$[ebp+12], dl
  000f1	8a 50 0d	 mov	 dl, BYTE PTR [eax+13]
  000f4	84 d2		 test	 dl, dl
  000f6	0f 84 09 01 00
	00		 je	 $LN83@LoadFloat_
  000fc	32 d1		 xor	 dl, cl
  000fe	88 55 ed	 mov	 BYTE PTR __k$[ebp+13], dl
  00101	8a 50 0e	 mov	 dl, BYTE PTR [eax+14]
  00104	84 d2		 test	 dl, dl
  00106	0f 84 f3 00 00
	00		 je	 $LN82@LoadFloat_
  0010c	80 f2 eb	 xor	 dl, -21			; ffffffebH
  0010f	88 55 ee	 mov	 BYTE PTR __k$[ebp+14], dl
  00112	8a 50 0f	 mov	 dl, BYTE PTR [eax+15]
  00115	84 d2		 test	 dl, dl
  00117	0f 84 dd 00 00
	00		 je	 $LN81@LoadFloat_
  0011d	32 d3		 xor	 dl, bl
  0011f	88 55 ef	 mov	 BYTE PTR __k$[ebp+15], dl
  00122	8a 50 10	 mov	 dl, BYTE PTR [eax+16]
  00125	84 d2		 test	 dl, dl
  00127	0f 84 c7 00 00
	00		 je	 $LN80@LoadFloat_
  0012d	80 f2 ed	 xor	 dl, -19			; ffffffedH
  00130	88 55 f0	 mov	 BYTE PTR __k$[ebp+16], dl
  00133	8a 50 11	 mov	 dl, BYTE PTR [eax+17]
  00136	84 d2		 test	 dl, dl
  00138	0f 84 b1 00 00
	00		 je	 $LN79@LoadFloat_
  0013e	32 d1		 xor	 dl, cl
  00140	88 55 f1	 mov	 BYTE PTR __k$[ebp+17], dl
  00143	8a 50 12	 mov	 dl, BYTE PTR [eax+18]
  00146	84 d2		 test	 dl, dl
  00148	0f 84 9b 00 00
	00		 je	 $LN78@LoadFloat_
  0014e	80 f2 eb	 xor	 dl, -21			; ffffffebH
  00151	88 55 f2	 mov	 BYTE PTR __k$[ebp+18], dl
  00154	8a 50 13	 mov	 dl, BYTE PTR [eax+19]
  00157	84 d2		 test	 dl, dl
  00159	0f 84 85 00 00
	00		 je	 $LN77@LoadFloat_
  0015f	32 d3		 xor	 dl, bl
  00161	88 55 f3	 mov	 BYTE PTR __k$[ebp+19], dl
  00164	8a 50 14	 mov	 dl, BYTE PTR [eax+20]
  00167	84 d2		 test	 dl, dl
  00169	74 73		 je	 SHORT $LN76@LoadFloat_
  0016b	80 f2 ed	 xor	 dl, -19			; ffffffedH
  0016e	88 55 f4	 mov	 BYTE PTR __k$[ebp+20], dl
  00171	8a 50 15	 mov	 dl, BYTE PTR [eax+21]
  00174	84 d2		 test	 dl, dl
  00176	74 61		 je	 SHORT $LN75@LoadFloat_
  00178	32 d1		 xor	 dl, cl
  0017a	80 78 16 00	 cmp	 BYTE PTR [eax+22], 0
  0017e	88 55 f5	 mov	 BYTE PTR __k$[ebp+21], dl
  00181	0f 84 cb 00 00
	00		 je	 $LN1@LoadFloat_
  00187	8a 50 17	 mov	 dl, BYTE PTR [eax+23]
  0018a	84 d2		 test	 dl, dl
  0018c	74 46		 je	 SHORT $LN73@LoadFloat_
  0018e	32 d3		 xor	 dl, bl
  00190	88 55 f7	 mov	 BYTE PTR __k$[ebp+23], dl
  00193	8a 50 18	 mov	 dl, BYTE PTR [eax+24]
  00196	84 d2		 test	 dl, dl
  00198	74 34		 je	 SHORT $LN72@LoadFloat_
  0019a	80 f2 ed	 xor	 dl, -19			; ffffffedH
  0019d	88 55 f8	 mov	 BYTE PTR __k$[ebp+24], dl
  001a0	8a 50 19	 mov	 dl, BYTE PTR [eax+25]
  001a3	84 d2		 test	 dl, dl
  001a5	74 1f		 je	 SHORT $LN71@LoadFloat_
  001a7	8a 40 1a	 mov	 al, BYTE PTR [eax+26]
  001aa	32 d1		 xor	 dl, cl
  001ac	88 55 f9	 mov	 BYTE PTR __k$[ebp+25], dl
  001af	84 c0		 test	 al, al
  001b1	74 0a		 je	 SHORT $LN70@LoadFloat_
  001b3	34 eb		 xor	 al, -21			; ffffffebH
  001b5	88 45 fa	 mov	 BYTE PTR __k$[ebp+26], al
  001b8	e9 95 00 00 00	 jmp	 $LN1@LoadFloat_
$LN70@LoadFloat_:
  001bd	c6 45 fa eb	 mov	 BYTE PTR __k$[ebp+26], -21 ; ffffffebH
  001c1	e9 8c 00 00 00	 jmp	 $LN1@LoadFloat_
$LN71@LoadFloat_:
  001c6	88 4d f9	 mov	 BYTE PTR __k$[ebp+25], cl
  001c9	e9 84 00 00 00	 jmp	 $LN1@LoadFloat_
$LN72@LoadFloat_:
  001ce	c6 45 f8 ed	 mov	 BYTE PTR __k$[ebp+24], -19 ; ffffffedH
  001d2	eb 7e		 jmp	 SHORT $LN1@LoadFloat_
$LN73@LoadFloat_:
  001d4	88 5d f7	 mov	 BYTE PTR __k$[ebp+23], bl
  001d7	eb 79		 jmp	 SHORT $LN1@LoadFloat_
$LN75@LoadFloat_:
  001d9	88 4d f5	 mov	 BYTE PTR __k$[ebp+21], cl
  001dc	eb 74		 jmp	 SHORT $LN1@LoadFloat_
$LN76@LoadFloat_:
  001de	c6 45 f4 ed	 mov	 BYTE PTR __k$[ebp+20], -19 ; ffffffedH
  001e2	eb 6e		 jmp	 SHORT $LN1@LoadFloat_
$LN77@LoadFloat_:
  001e4	88 5d f3	 mov	 BYTE PTR __k$[ebp+19], bl
  001e7	eb 69		 jmp	 SHORT $LN1@LoadFloat_
$LN78@LoadFloat_:
  001e9	c6 45 f2 eb	 mov	 BYTE PTR __k$[ebp+18], -21 ; ffffffebH
  001ed	eb 63		 jmp	 SHORT $LN1@LoadFloat_
$LN79@LoadFloat_:
  001ef	88 4d f1	 mov	 BYTE PTR __k$[ebp+17], cl
  001f2	eb 5e		 jmp	 SHORT $LN1@LoadFloat_
$LN80@LoadFloat_:
  001f4	c6 45 f0 ed	 mov	 BYTE PTR __k$[ebp+16], -19 ; ffffffedH
  001f8	eb 58		 jmp	 SHORT $LN1@LoadFloat_
$LN81@LoadFloat_:
  001fa	88 5d ef	 mov	 BYTE PTR __k$[ebp+15], bl
  001fd	eb 53		 jmp	 SHORT $LN1@LoadFloat_
$LN82@LoadFloat_:
  001ff	c6 45 ee eb	 mov	 BYTE PTR __k$[ebp+14], -21 ; ffffffebH
  00203	eb 4d		 jmp	 SHORT $LN1@LoadFloat_
$LN83@LoadFloat_:
  00205	88 4d ed	 mov	 BYTE PTR __k$[ebp+13], cl
  00208	eb 48		 jmp	 SHORT $LN1@LoadFloat_
$LN84@LoadFloat_:
  0020a	c6 45 ec ed	 mov	 BYTE PTR __k$[ebp+12], -19 ; ffffffedH
  0020e	eb 42		 jmp	 SHORT $LN1@LoadFloat_
$LN85@LoadFloat_:
  00210	88 5d eb	 mov	 BYTE PTR __k$[ebp+11], bl
  00213	eb 3d		 jmp	 SHORT $LN1@LoadFloat_
$LN86@LoadFloat_:
  00215	c6 45 ea eb	 mov	 BYTE PTR __k$[ebp+10], -21 ; ffffffebH
  00219	eb 37		 jmp	 SHORT $LN1@LoadFloat_
$LN87@LoadFloat_:
  0021b	88 4d e9	 mov	 BYTE PTR __k$[ebp+9], cl
  0021e	eb 32		 jmp	 SHORT $LN1@LoadFloat_
$LN88@LoadFloat_:
  00220	c6 45 e8 ed	 mov	 BYTE PTR __k$[ebp+8], -19 ; ffffffedH
  00224	eb 2c		 jmp	 SHORT $LN1@LoadFloat_
$LN89@LoadFloat_:
  00226	88 5d e7	 mov	 BYTE PTR __k$[ebp+7], bl
  00229	eb 27		 jmp	 SHORT $LN1@LoadFloat_
$LN90@LoadFloat_:
  0022b	c6 45 e6 eb	 mov	 BYTE PTR __k$[ebp+6], -21 ; ffffffebH
  0022f	eb 21		 jmp	 SHORT $LN1@LoadFloat_
$LN91@LoadFloat_:
  00231	88 4d e5	 mov	 BYTE PTR __k$[ebp+5], cl
  00234	eb 1c		 jmp	 SHORT $LN1@LoadFloat_
$LN92@LoadFloat_:
  00236	c6 45 e4 ed	 mov	 BYTE PTR __k$[ebp+4], -19 ; ffffffedH
  0023a	eb 16		 jmp	 SHORT $LN1@LoadFloat_
$LN93@LoadFloat_:
  0023c	c6 45 e3 ea	 mov	 BYTE PTR __k$[ebp+3], -22 ; ffffffeaH
  00240	eb 10		 jmp	 SHORT $LN1@LoadFloat_
$LN94@LoadFloat_:
  00242	c6 45 e2 eb	 mov	 BYTE PTR __k$[ebp+2], -21 ; ffffffebH
  00246	eb 0a		 jmp	 SHORT $LN1@LoadFloat_
$LN95@LoadFloat_:
  00248	c6 45 e1 ec	 mov	 BYTE PTR __k$[ebp+1], -20 ; ffffffecH
  0024c	eb 04		 jmp	 SHORT $LN1@LoadFloat_
$LN96@LoadFloat_:
  0024e	c6 45 e0 ed	 mov	 BYTE PTR __k$[ebp], -19	; ffffffedH
$LN1@LoadFloat_:
  00252	6a 05		 push	 5
  00254	8d 45 e0	 lea	 eax, DWORD PTR __k$[ebp]
  00257	c6 45 f6 00	 mov	 BYTE PTR __k$[ebp+22], 0
  0025b	5a		 pop	 edx
$LL104@LoadFloat_:
  0025c	81 30 ed ec eb
	ea		 xor	 DWORD PTR [eax], -353637139 ; eaebecedH
  00262	83 c0 04	 add	 eax, 4
  00265	4a		 dec	 edx
  00266	75 f4		 jne	 SHORT $LL104@LoadFloat_
  00268	6a 14		 push	 20			; 00000014H
  0026a	58		 pop	 eax
$LL101@LoadFloat_:
  0026b	8b c8		 mov	 ecx, eax
  0026d	81 e1 03 00 00
	80		 and	 ecx, -2147483645	; 80000003H
  00273	79 05		 jns	 SHORT $LN111@LoadFloat_
  00275	49		 dec	 ecx
  00276	83 c9 fc	 or	 ecx, -4			; fffffffcH
  00279	41		 inc	 ecx
$LN111@LoadFloat_:
  0027a	b2 ed		 mov	 dl, -19			; ffffffedH
  0027c	2a d1		 sub	 dl, cl
  0027e	30 54 05 e0	 xor	 BYTE PTR __k$[ebp+eax], dl
  00282	40		 inc	 eax
  00283	83 f8 16	 cmp	 eax, 22			; 00000016H
  00286	7c e3		 jl	 SHORT $LL101@LoadFloat_

; 137  : 		return LoadFloat(_k, f);

  00288	f3 0f 10 45 0c	 movss	 xmm0, DWORD PTR _f$[ebp]
  0028d	51		 push	 ecx
  0028e	8d 45 e0	 lea	 eax, DWORD PTR __k$[ebp]
  00291	f3 0f 11 04 24	 movss	 DWORD PTR [esp], xmm0
  00296	50		 push	 eax
  00297	8b ce		 mov	 ecx, esi
  00299	ff 15 00 00 00
	00		 call	 DWORD PTR __imp_?LoadFloat@ioINILoader@@QAEMPBDM@Z

; 138  : 	}

  0029f	8b 4d fc	 mov	 ecx, DWORD PTR __$ArrayPad$[ebp]
  002a2	5e		 pop	 esi
  002a3	33 cd		 xor	 ecx, ebp
  002a5	5b		 pop	 ebx
  002a6	e8 00 00 00 00	 call	 @__security_check_cookie@4
  002ab	c9		 leave
  002ac	c2 08 00	 ret	 8
??$LoadFloat_e@$0BH@@ioINILoader@@QAEMAAY0BH@$$CBDM@Z ENDP ; ioINILoader::LoadFloat_e<23>
_TEXT	ENDS
PUBLIC	__$ArrayPad$
PUBLIC	??$LoadInt_e@$0BE@@ioINILoader@@QAEHAAY0BE@$$CBDH@Z ; ioINILoader::LoadInt_e<20>
; Function compile flags: /Ogsp
;	COMDAT ??$LoadInt_e@$0BE@@ioINILoader@@QAEHAAY0BE@$$CBDH@Z
_TEXT	SEGMENT
__k$ = -28						; size = 20
__$ArrayPad$ = -4					; size = 4
_k$ = 8							; size = 4
_i$ = 12						; size = 4
??$LoadInt_e@$0BE@@ioINILoader@@QAEHAAY0BE@$$CBDH@Z PROC ; ioINILoader::LoadInt_e<20>, COMDAT
; _this$ = ecx

; 118  : 	{

  00000	55		 push	 ebp
  00001	8b ec		 mov	 ebp, esp
  00003	83 ec 1c	 sub	 esp, 28			; 0000001cH
  00006	a1 00 00 00 00	 mov	 eax, DWORD PTR ___security_cookie
  0000b	33 c5		 xor	 eax, ebp
  0000d	89 45 fc	 mov	 DWORD PTR __$ArrayPad$[ebp], eax
  00010	8b 45 08	 mov	 eax, DWORD PTR _k$[ebp]

; 119  : 		_ENCSTR(k, _k);

  00013	8a 10		 mov	 dl, BYTE PTR [eax]
  00015	53		 push	 ebx
  00016	56		 push	 esi
  00017	8b f1		 mov	 esi, ecx
  00019	84 d2		 test	 dl, dl
  0001b	0f 84 dd 01 00
	00		 je	 $LN96@LoadInt_e@2
  00021	80 f2 ed	 xor	 dl, -19			; ffffffedH
  00024	88 55 e4	 mov	 BYTE PTR __k$[ebp], dl
  00027	8a 50 01	 mov	 dl, BYTE PTR [eax+1]
  0002a	84 d2		 test	 dl, dl
  0002c	0f 84 c6 01 00
	00		 je	 $LN95@LoadInt_e@2
  00032	b3 ec		 mov	 bl, -20			; ffffffecH
  00034	32 d3		 xor	 dl, bl
  00036	88 55 e5	 mov	 BYTE PTR __k$[ebp+1], dl
  00039	8a 50 02	 mov	 dl, BYTE PTR [eax+2]
  0003c	84 d2		 test	 dl, dl
  0003e	0f 84 ae 01 00
	00		 je	 $LN94@LoadInt_e@2
  00044	b1 eb		 mov	 cl, -21			; ffffffebH
  00046	32 d1		 xor	 dl, cl
  00048	88 55 e6	 mov	 BYTE PTR __k$[ebp+2], dl
  0004b	8a 50 03	 mov	 dl, BYTE PTR [eax+3]
  0004e	84 d2		 test	 dl, dl
  00050	0f 84 96 01 00
	00		 je	 $LN93@LoadInt_e@2
  00056	80 f2 ea	 xor	 dl, -22			; ffffffeaH
  00059	88 55 e7	 mov	 BYTE PTR __k$[ebp+3], dl
  0005c	8a 50 04	 mov	 dl, BYTE PTR [eax+4]
  0005f	84 d2		 test	 dl, dl
  00061	0f 84 7f 01 00
	00		 je	 $LN92@LoadInt_e@2
  00067	80 f2 ed	 xor	 dl, -19			; ffffffedH
  0006a	88 55 e8	 mov	 BYTE PTR __k$[ebp+4], dl
  0006d	8a 50 05	 mov	 dl, BYTE PTR [eax+5]
  00070	84 d2		 test	 dl, dl
  00072	0f 84 69 01 00
	00		 je	 $LN91@LoadInt_e@2
  00078	32 d3		 xor	 dl, bl
  0007a	88 55 e9	 mov	 BYTE PTR __k$[ebp+5], dl
  0007d	8a 50 06	 mov	 dl, BYTE PTR [eax+6]
  00080	84 d2		 test	 dl, dl
  00082	0f 84 54 01 00
	00		 je	 $LN90@LoadInt_e@2
  00088	32 d1		 xor	 dl, cl
  0008a	88 55 ea	 mov	 BYTE PTR __k$[ebp+6], dl
  0008d	8a 50 07	 mov	 dl, BYTE PTR [eax+7]
  00090	84 d2		 test	 dl, dl
  00092	0f 84 3e 01 00
	00		 je	 $LN89@LoadInt_e@2
  00098	80 f2 ea	 xor	 dl, -22			; ffffffeaH
  0009b	88 55 eb	 mov	 BYTE PTR __k$[ebp+7], dl
  0009e	8a 50 08	 mov	 dl, BYTE PTR [eax+8]
  000a1	84 d2		 test	 dl, dl
  000a3	0f 84 27 01 00
	00		 je	 $LN88@LoadInt_e@2
  000a9	80 f2 ed	 xor	 dl, -19			; ffffffedH
  000ac	88 55 ec	 mov	 BYTE PTR __k$[ebp+8], dl
  000af	8a 50 09	 mov	 dl, BYTE PTR [eax+9]
  000b2	84 d2		 test	 dl, dl
  000b4	0f 84 11 01 00
	00		 je	 $LN87@LoadInt_e@2
  000ba	32 d3		 xor	 dl, bl
  000bc	88 55 ed	 mov	 BYTE PTR __k$[ebp+9], dl
  000bf	8a 50 0a	 mov	 dl, BYTE PTR [eax+10]
  000c2	84 d2		 test	 dl, dl
  000c4	0f 84 fc 00 00
	00		 je	 $LN86@LoadInt_e@2
  000ca	32 d1		 xor	 dl, cl
  000cc	88 55 ee	 mov	 BYTE PTR __k$[ebp+10], dl
  000cf	8a 50 0b	 mov	 dl, BYTE PTR [eax+11]
  000d2	84 d2		 test	 dl, dl
  000d4	0f 84 e6 00 00
	00		 je	 $LN85@LoadInt_e@2
  000da	80 f2 ea	 xor	 dl, -22			; ffffffeaH
  000dd	88 55 ef	 mov	 BYTE PTR __k$[ebp+11], dl
  000e0	8a 50 0c	 mov	 dl, BYTE PTR [eax+12]
  000e3	84 d2		 test	 dl, dl
  000e5	0f 84 cf 00 00
	00		 je	 $LN84@LoadInt_e@2
  000eb	80 f2 ed	 xor	 dl, -19			; ffffffedH
  000ee	88 55 f0	 mov	 BYTE PTR __k$[ebp+12], dl
  000f1	8a 50 0d	 mov	 dl, BYTE PTR [eax+13]
  000f4	84 d2		 test	 dl, dl
  000f6	0f 84 b9 00 00
	00		 je	 $LN83@LoadInt_e@2
  000fc	32 d3		 xor	 dl, bl
  000fe	88 55 f1	 mov	 BYTE PTR __k$[ebp+13], dl
  00101	8a 50 0e	 mov	 dl, BYTE PTR [eax+14]
  00104	84 d2		 test	 dl, dl
  00106	0f 84 a4 00 00
	00		 je	 $LN82@LoadInt_e@2
  0010c	32 d1		 xor	 dl, cl
  0010e	88 55 f2	 mov	 BYTE PTR __k$[ebp+14], dl
  00111	8a 50 0f	 mov	 dl, BYTE PTR [eax+15]
  00114	84 d2		 test	 dl, dl
  00116	0f 84 8e 00 00
	00		 je	 $LN81@LoadInt_e@2
  0011c	80 f2 ea	 xor	 dl, -22			; ffffffeaH
  0011f	88 55 f3	 mov	 BYTE PTR __k$[ebp+15], dl
  00122	8a 50 10	 mov	 dl, BYTE PTR [eax+16]
  00125	84 d2		 test	 dl, dl
  00127	74 7b		 je	 SHORT $LN80@LoadInt_e@2
  00129	80 f2 ed	 xor	 dl, -19			; ffffffedH
  0012c	88 55 f4	 mov	 BYTE PTR __k$[ebp+16], dl
  0012f	8a 50 11	 mov	 dl, BYTE PTR [eax+17]
  00132	84 d2		 test	 dl, dl
  00134	74 69		 je	 SHORT $LN79@LoadInt_e@2
  00136	32 d3		 xor	 dl, bl
  00138	88 55 f5	 mov	 BYTE PTR __k$[ebp+17], dl
  0013b	8a 50 12	 mov	 dl, BYTE PTR [eax+18]
  0013e	84 d2		 test	 dl, dl
  00140	74 58		 je	 SHORT $LN78@LoadInt_e@2
  00142	32 d1		 xor	 dl, cl
  00144	80 78 13 00	 cmp	 BYTE PTR [eax+19], 0
  00148	88 55 f6	 mov	 BYTE PTR __k$[ebp+18], dl
  0014b	0f 84 b1 00 00
	00		 je	 $LN1@LoadInt_e@2
  00151	8a 50 14	 mov	 dl, BYTE PTR [eax+20]
  00154	84 d2		 test	 dl, dl
  00156	74 3c		 je	 SHORT $LN76@LoadInt_e@2
  00158	80 f2 ed	 xor	 dl, -19			; ffffffedH
  0015b	88 55 f8	 mov	 BYTE PTR __k$[ebp+20], dl
  0015e	8a 50 15	 mov	 dl, BYTE PTR [eax+21]
  00161	84 d2		 test	 dl, dl
  00163	74 2a		 je	 SHORT $LN75@LoadInt_e@2
  00165	32 d3		 xor	 dl, bl
  00167	88 55 f9	 mov	 BYTE PTR __k$[ebp+21], dl
  0016a	8a 50 16	 mov	 dl, BYTE PTR [eax+22]
  0016d	84 d2		 test	 dl, dl
  0016f	74 19		 je	 SHORT $LN74@LoadInt_e@2
  00171	8a 40 17	 mov	 al, BYTE PTR [eax+23]
  00174	32 d1		 xor	 dl, cl
  00176	88 55 fa	 mov	 BYTE PTR __k$[ebp+22], dl
  00179	84 c0		 test	 al, al
  0017b	74 07		 je	 SHORT $LN73@LoadInt_e@2
  0017d	34 ea		 xor	 al, -22			; ffffffeaH
  0017f	88 45 fb	 mov	 BYTE PTR __k$[ebp+23], al
  00182	eb 7e		 jmp	 SHORT $LN1@LoadInt_e@2
$LN73@LoadInt_e@2:
  00184	c6 45 fb ea	 mov	 BYTE PTR __k$[ebp+23], -22 ; ffffffeaH
  00188	eb 78		 jmp	 SHORT $LN1@LoadInt_e@2
$LN74@LoadInt_e@2:
  0018a	88 4d fa	 mov	 BYTE PTR __k$[ebp+22], cl
  0018d	eb 73		 jmp	 SHORT $LN1@LoadInt_e@2
$LN75@LoadInt_e@2:
  0018f	88 5d f9	 mov	 BYTE PTR __k$[ebp+21], bl
  00192	eb 6e		 jmp	 SHORT $LN1@LoadInt_e@2
$LN76@LoadInt_e@2:
  00194	c6 45 f8 ed	 mov	 BYTE PTR __k$[ebp+20], -19 ; ffffffedH
  00198	eb 68		 jmp	 SHORT $LN1@LoadInt_e@2
$LN78@LoadInt_e@2:
  0019a	88 4d f6	 mov	 BYTE PTR __k$[ebp+18], cl
  0019d	eb 63		 jmp	 SHORT $LN1@LoadInt_e@2
$LN79@LoadInt_e@2:
  0019f	88 5d f5	 mov	 BYTE PTR __k$[ebp+17], bl
  001a2	eb 5e		 jmp	 SHORT $LN1@LoadInt_e@2
$LN80@LoadInt_e@2:
  001a4	c6 45 f4 ed	 mov	 BYTE PTR __k$[ebp+16], -19 ; ffffffedH
  001a8	eb 58		 jmp	 SHORT $LN1@LoadInt_e@2
$LN81@LoadInt_e@2:
  001aa	c6 45 f3 ea	 mov	 BYTE PTR __k$[ebp+15], -22 ; ffffffeaH
  001ae	eb 52		 jmp	 SHORT $LN1@LoadInt_e@2
$LN82@LoadInt_e@2:
  001b0	88 4d f2	 mov	 BYTE PTR __k$[ebp+14], cl
  001b3	eb 4d		 jmp	 SHORT $LN1@LoadInt_e@2
$LN83@LoadInt_e@2:
  001b5	88 5d f1	 mov	 BYTE PTR __k$[ebp+13], bl
  001b8	eb 48		 jmp	 SHORT $LN1@LoadInt_e@2
$LN84@LoadInt_e@2:
  001ba	c6 45 f0 ed	 mov	 BYTE PTR __k$[ebp+12], -19 ; ffffffedH
  001be	eb 42		 jmp	 SHORT $LN1@LoadInt_e@2
$LN85@LoadInt_e@2:
  001c0	c6 45 ef ea	 mov	 BYTE PTR __k$[ebp+11], -22 ; ffffffeaH
  001c4	eb 3c		 jmp	 SHORT $LN1@LoadInt_e@2
$LN86@LoadInt_e@2:
  001c6	88 4d ee	 mov	 BYTE PTR __k$[ebp+10], cl
  001c9	eb 37		 jmp	 SHORT $LN1@LoadInt_e@2
$LN87@LoadInt_e@2:
  001cb	88 5d ed	 mov	 BYTE PTR __k$[ebp+9], bl
  001ce	eb 32		 jmp	 SHORT $LN1@LoadInt_e@2
$LN88@LoadInt_e@2:
  001d0	c6 45 ec ed	 mov	 BYTE PTR __k$[ebp+8], -19 ; ffffffedH
  001d4	eb 2c		 jmp	 SHORT $LN1@LoadInt_e@2
$LN89@LoadInt_e@2:
  001d6	c6 45 eb ea	 mov	 BYTE PTR __k$[ebp+7], -22 ; ffffffeaH
  001da	eb 26		 jmp	 SHORT $LN1@LoadInt_e@2
$LN90@LoadInt_e@2:
  001dc	88 4d ea	 mov	 BYTE PTR __k$[ebp+6], cl
  001df	eb 21		 jmp	 SHORT $LN1@LoadInt_e@2
$LN91@LoadInt_e@2:
  001e1	88 5d e9	 mov	 BYTE PTR __k$[ebp+5], bl
  001e4	eb 1c		 jmp	 SHORT $LN1@LoadInt_e@2
$LN92@LoadInt_e@2:
  001e6	c6 45 e8 ed	 mov	 BYTE PTR __k$[ebp+4], -19 ; ffffffedH
  001ea	eb 16		 jmp	 SHORT $LN1@LoadInt_e@2
$LN93@LoadInt_e@2:
  001ec	c6 45 e7 ea	 mov	 BYTE PTR __k$[ebp+3], -22 ; ffffffeaH
  001f0	eb 10		 jmp	 SHORT $LN1@LoadInt_e@2
$LN94@LoadInt_e@2:
  001f2	c6 45 e6 eb	 mov	 BYTE PTR __k$[ebp+2], -21 ; ffffffebH
  001f6	eb 0a		 jmp	 SHORT $LN1@LoadInt_e@2
$LN95@LoadInt_e@2:
  001f8	c6 45 e5 ec	 mov	 BYTE PTR __k$[ebp+1], -20 ; ffffffecH
  001fc	eb 04		 jmp	 SHORT $LN1@LoadInt_e@2
$LN96@LoadInt_e@2:
  001fe	c6 45 e4 ed	 mov	 BYTE PTR __k$[ebp], -19	; ffffffedH
$LN1@LoadInt_e@2:
  00202	6a 04		 push	 4
  00204	8d 45 e4	 lea	 eax, DWORD PTR __k$[ebp]
  00207	c6 45 f7 00	 mov	 BYTE PTR __k$[ebp+19], 0
  0020b	5a		 pop	 edx
$LL104@LoadInt_e@2:
  0020c	81 30 ed ec eb
	ea		 xor	 DWORD PTR [eax], -353637139 ; eaebecedH
  00212	83 c0 04	 add	 eax, 4
  00215	4a		 dec	 edx
  00216	75 f4		 jne	 SHORT $LL104@LoadInt_e@2
  00218	6a 10		 push	 16			; 00000010H
  0021a	58		 pop	 eax
$LL101@LoadInt_e@2:
  0021b	8b c8		 mov	 ecx, eax
  0021d	81 e1 03 00 00
	80		 and	 ecx, -2147483645	; 80000003H
  00223	79 05		 jns	 SHORT $LN111@LoadInt_e@2
  00225	49		 dec	 ecx
  00226	83 c9 fc	 or	 ecx, -4			; fffffffcH
  00229	41		 inc	 ecx
$LN111@LoadInt_e@2:
  0022a	b2 ed		 mov	 dl, -19			; ffffffedH
  0022c	2a d1		 sub	 dl, cl
  0022e	30 54 05 e4	 xor	 BYTE PTR __k$[ebp+eax], dl
  00232	40		 inc	 eax
  00233	83 f8 13	 cmp	 eax, 19			; 00000013H
  00236	7c e3		 jl	 SHORT $LL101@LoadInt_e@2

; 120  : 		return LoadInt(_k, i);

  00238	ff 75 0c	 push	 DWORD PTR _i$[ebp]
  0023b	8d 45 e4	 lea	 eax, DWORD PTR __k$[ebp]
  0023e	50		 push	 eax
  0023f	8b ce		 mov	 ecx, esi
  00241	ff 15 00 00 00
	00		 call	 DWORD PTR __imp_?LoadInt@ioINILoader@@QAEHPBDH@Z

; 121  : 	}

  00247	8b 4d fc	 mov	 ecx, DWORD PTR __$ArrayPad$[ebp]
  0024a	5e		 pop	 esi
  0024b	33 cd		 xor	 ecx, ebp
  0024d	5b		 pop	 ebx
  0024e	e8 00 00 00 00	 call	 @__security_check_cookie@4
  00253	c9		 leave
  00254	c2 08 00	 ret	 8
??$LoadInt_e@$0BE@@ioINILoader@@QAEHAAY0BE@$$CBDH@Z ENDP ; ioINILoader::LoadInt_e<20>
_TEXT	ENDS
PUBLIC	__$ArrayPad$
PUBLIC	??$LoadFloat_e@$0BD@@ioINILoader@@QAEMAAY0BD@$$CBDM@Z ; ioINILoader::LoadFloat_e<19>
; Function compile flags: /Ogsp
;	COMDAT ??$LoadFloat_e@$0BD@@ioINILoader@@QAEMAAY0BD@$$CBDM@Z
_TEXT	SEGMENT
__k$ = -28						; size = 19
__$ArrayPad$ = -4					; size = 4
_k$ = 8							; size = 4
_f$ = 12						; size = 4
??$LoadFloat_e@$0BD@@ioINILoader@@QAEMAAY0BD@$$CBDM@Z PROC ; ioINILoader::LoadFloat_e<19>, COMDAT
; _this$ = ecx

; 135  : 	{

  00000	55		 push	 ebp
  00001	8b ec		 mov	 ebp, esp
  00003	83 ec 1c	 sub	 esp, 28			; 0000001cH
  00006	a1 00 00 00 00	 mov	 eax, DWORD PTR ___security_cookie
  0000b	33 c5		 xor	 eax, ebp
  0000d	89 45 fc	 mov	 DWORD PTR __$ArrayPad$[ebp], eax
  00010	8b 45 08	 mov	 eax, DWORD PTR _k$[ebp]

; 136  : 		_ENCSTR(k, _k);

  00013	8a 10		 mov	 dl, BYTE PTR [eax]
  00015	56		 push	 esi
  00016	8b f1		 mov	 esi, ecx
  00018	84 d2		 test	 dl, dl
  0001a	0f 84 cf 01 00
	00		 je	 $LN96@LoadFloat_@2
  00020	80 f2 ed	 xor	 dl, -19			; ffffffedH
  00023	88 55 e4	 mov	 BYTE PTR __k$[ebp], dl
  00026	8a 50 01	 mov	 dl, BYTE PTR [eax+1]
  00029	84 d2		 test	 dl, dl
  0002b	0f 84 b8 01 00
	00		 je	 $LN95@LoadFloat_@2
  00031	b1 ec		 mov	 cl, -20			; ffffffecH
  00033	32 d1		 xor	 dl, cl
  00035	88 55 e5	 mov	 BYTE PTR __k$[ebp+1], dl
  00038	8a 50 02	 mov	 dl, BYTE PTR [eax+2]
  0003b	84 d2		 test	 dl, dl
  0003d	0f 84 a0 01 00
	00		 je	 $LN94@LoadFloat_@2
  00043	80 f2 eb	 xor	 dl, -21			; ffffffebH
  00046	88 55 e6	 mov	 BYTE PTR __k$[ebp+2], dl
  00049	8a 50 03	 mov	 dl, BYTE PTR [eax+3]
  0004c	84 d2		 test	 dl, dl
  0004e	0f 84 89 01 00
	00		 je	 $LN93@LoadFloat_@2
  00054	80 f2 ea	 xor	 dl, -22			; ffffffeaH
  00057	88 55 e7	 mov	 BYTE PTR __k$[ebp+3], dl
  0005a	8a 50 04	 mov	 dl, BYTE PTR [eax+4]
  0005d	84 d2		 test	 dl, dl
  0005f	0f 84 72 01 00
	00		 je	 $LN92@LoadFloat_@2
  00065	80 f2 ed	 xor	 dl, -19			; ffffffedH
  00068	88 55 e8	 mov	 BYTE PTR __k$[ebp+4], dl
  0006b	8a 50 05	 mov	 dl, BYTE PTR [eax+5]
  0006e	84 d2		 test	 dl, dl
  00070	0f 84 5c 01 00
	00		 je	 $LN91@LoadFloat_@2
  00076	32 d1		 xor	 dl, cl
  00078	88 55 e9	 mov	 BYTE PTR __k$[ebp+5], dl
  0007b	8a 50 06	 mov	 dl, BYTE PTR [eax+6]
  0007e	84 d2		 test	 dl, dl
  00080	0f 84 46 01 00
	00		 je	 $LN90@LoadFloat_@2
  00086	80 f2 eb	 xor	 dl, -21			; ffffffebH
  00089	88 55 ea	 mov	 BYTE PTR __k$[ebp+6], dl
  0008c	8a 50 07	 mov	 dl, BYTE PTR [eax+7]
  0008f	84 d2		 test	 dl, dl
  00091	0f 84 2f 01 00
	00		 je	 $LN89@LoadFloat_@2
  00097	80 f2 ea	 xor	 dl, -22			; ffffffeaH
  0009a	88 55 eb	 mov	 BYTE PTR __k$[ebp+7], dl
  0009d	8a 50 08	 mov	 dl, BYTE PTR [eax+8]
  000a0	84 d2		 test	 dl, dl
  000a2	0f 84 18 01 00
	00		 je	 $LN88@LoadFloat_@2
  000a8	80 f2 ed	 xor	 dl, -19			; ffffffedH
  000ab	88 55 ec	 mov	 BYTE PTR __k$[ebp+8], dl
  000ae	8a 50 09	 mov	 dl, BYTE PTR [eax+9]
  000b1	84 d2		 test	 dl, dl
  000b3	0f 84 02 01 00
	00		 je	 $LN87@LoadFloat_@2
  000b9	32 d1		 xor	 dl, cl
  000bb	88 55 ed	 mov	 BYTE PTR __k$[ebp+9], dl
  000be	8a 50 0a	 mov	 dl, BYTE PTR [eax+10]
  000c1	84 d2		 test	 dl, dl
  000c3	0f 84 ec 00 00
	00		 je	 $LN86@LoadFloat_@2
  000c9	80 f2 eb	 xor	 dl, -21			; ffffffebH
  000cc	88 55 ee	 mov	 BYTE PTR __k$[ebp+10], dl
  000cf	8a 50 0b	 mov	 dl, BYTE PTR [eax+11]
  000d2	84 d2		 test	 dl, dl
  000d4	0f 84 d5 00 00
	00		 je	 $LN85@LoadFloat_@2
  000da	80 f2 ea	 xor	 dl, -22			; ffffffeaH
  000dd	88 55 ef	 mov	 BYTE PTR __k$[ebp+11], dl
  000e0	8a 50 0c	 mov	 dl, BYTE PTR [eax+12]
  000e3	84 d2		 test	 dl, dl
  000e5	0f 84 be 00 00
	00		 je	 $LN84@LoadFloat_@2
  000eb	80 f2 ed	 xor	 dl, -19			; ffffffedH
  000ee	88 55 f0	 mov	 BYTE PTR __k$[ebp+12], dl
  000f1	8a 50 0d	 mov	 dl, BYTE PTR [eax+13]
  000f4	84 d2		 test	 dl, dl
  000f6	0f 84 a8 00 00
	00		 je	 $LN83@LoadFloat_@2
  000fc	32 d1		 xor	 dl, cl
  000fe	88 55 f1	 mov	 BYTE PTR __k$[ebp+13], dl
  00101	8a 50 0e	 mov	 dl, BYTE PTR [eax+14]
  00104	84 d2		 test	 dl, dl
  00106	0f 84 92 00 00
	00		 je	 $LN82@LoadFloat_@2
  0010c	80 f2 eb	 xor	 dl, -21			; ffffffebH
  0010f	88 55 f2	 mov	 BYTE PTR __k$[ebp+14], dl
  00112	8a 50 0f	 mov	 dl, BYTE PTR [eax+15]
  00115	84 d2		 test	 dl, dl
  00117	74 7f		 je	 SHORT $LN81@LoadFloat_@2
  00119	80 f2 ea	 xor	 dl, -22			; ffffffeaH
  0011c	88 55 f3	 mov	 BYTE PTR __k$[ebp+15], dl
  0011f	8a 50 10	 mov	 dl, BYTE PTR [eax+16]
  00122	84 d2		 test	 dl, dl
  00124	74 6c		 je	 SHORT $LN80@LoadFloat_@2
  00126	80 f2 ed	 xor	 dl, -19			; ffffffedH
  00129	88 55 f4	 mov	 BYTE PTR __k$[ebp+16], dl
  0012c	8a 50 11	 mov	 dl, BYTE PTR [eax+17]
  0012f	84 d2		 test	 dl, dl
  00131	74 5a		 je	 SHORT $LN79@LoadFloat_@2
  00133	32 d1		 xor	 dl, cl
  00135	80 78 12 00	 cmp	 BYTE PTR [eax+18], 0
  00139	88 55 f5	 mov	 BYTE PTR __k$[ebp+17], dl
  0013c	0f 84 b1 00 00
	00		 je	 $LN1@LoadFloat_@2
  00142	8a 50 13	 mov	 dl, BYTE PTR [eax+19]
  00145	84 d2		 test	 dl, dl
  00147	74 3e		 je	 SHORT $LN77@LoadFloat_@2
  00149	80 f2 ea	 xor	 dl, -22			; ffffffeaH
  0014c	88 55 f7	 mov	 BYTE PTR __k$[ebp+19], dl
  0014f	8a 50 14	 mov	 dl, BYTE PTR [eax+20]
  00152	84 d2		 test	 dl, dl
  00154	74 2b		 je	 SHORT $LN76@LoadFloat_@2
  00156	80 f2 ed	 xor	 dl, -19			; ffffffedH
  00159	88 55 f8	 mov	 BYTE PTR __k$[ebp+20], dl
  0015c	8a 50 15	 mov	 dl, BYTE PTR [eax+21]
  0015f	84 d2		 test	 dl, dl
  00161	74 19		 je	 SHORT $LN75@LoadFloat_@2
  00163	8a 40 16	 mov	 al, BYTE PTR [eax+22]
  00166	32 d1		 xor	 dl, cl
  00168	88 55 f9	 mov	 BYTE PTR __k$[ebp+21], dl
  0016b	84 c0		 test	 al, al
  0016d	74 07		 je	 SHORT $LN74@LoadFloat_@2
  0016f	34 eb		 xor	 al, -21			; ffffffebH
  00171	88 45 fa	 mov	 BYTE PTR __k$[ebp+22], al
  00174	eb 7d		 jmp	 SHORT $LN1@LoadFloat_@2
$LN74@LoadFloat_@2:
  00176	c6 45 fa eb	 mov	 BYTE PTR __k$[ebp+22], -21 ; ffffffebH
  0017a	eb 77		 jmp	 SHORT $LN1@LoadFloat_@2
$LN75@LoadFloat_@2:
  0017c	88 4d f9	 mov	 BYTE PTR __k$[ebp+21], cl
  0017f	eb 72		 jmp	 SHORT $LN1@LoadFloat_@2
$LN76@LoadFloat_@2:
  00181	c6 45 f8 ed	 mov	 BYTE PTR __k$[ebp+20], -19 ; ffffffedH
  00185	eb 6c		 jmp	 SHORT $LN1@LoadFloat_@2
$LN77@LoadFloat_@2:
  00187	c6 45 f7 ea	 mov	 BYTE PTR __k$[ebp+19], -22 ; ffffffeaH
  0018b	eb 66		 jmp	 SHORT $LN1@LoadFloat_@2
$LN79@LoadFloat_@2:
  0018d	88 4d f5	 mov	 BYTE PTR __k$[ebp+17], cl
  00190	eb 61		 jmp	 SHORT $LN1@LoadFloat_@2
$LN80@LoadFloat_@2:
  00192	c6 45 f4 ed	 mov	 BYTE PTR __k$[ebp+16], -19 ; ffffffedH
  00196	eb 5b		 jmp	 SHORT $LN1@LoadFloat_@2
$LN81@LoadFloat_@2:
  00198	c6 45 f3 ea	 mov	 BYTE PTR __k$[ebp+15], -22 ; ffffffeaH
  0019c	eb 55		 jmp	 SHORT $LN1@LoadFloat_@2
$LN82@LoadFloat_@2:
  0019e	c6 45 f2 eb	 mov	 BYTE PTR __k$[ebp+14], -21 ; ffffffebH
  001a2	eb 4f		 jmp	 SHORT $LN1@LoadFloat_@2
$LN83@LoadFloat_@2:
  001a4	88 4d f1	 mov	 BYTE PTR __k$[ebp+13], cl
  001a7	eb 4a		 jmp	 SHORT $LN1@LoadFloat_@2
$LN84@LoadFloat_@2:
  001a9	c6 45 f0 ed	 mov	 BYTE PTR __k$[ebp+12], -19 ; ffffffedH
  001ad	eb 44		 jmp	 SHORT $LN1@LoadFloat_@2
$LN85@LoadFloat_@2:
  001af	c6 45 ef ea	 mov	 BYTE PTR __k$[ebp+11], -22 ; ffffffeaH
  001b3	eb 3e		 jmp	 SHORT $LN1@LoadFloat_@2
$LN86@LoadFloat_@2:
  001b5	c6 45 ee eb	 mov	 BYTE PTR __k$[ebp+10], -21 ; ffffffebH
  001b9	eb 38		 jmp	 SHORT $LN1@LoadFloat_@2
$LN87@LoadFloat_@2:
  001bb	88 4d ed	 mov	 BYTE PTR __k$[ebp+9], cl
  001be	eb 33		 jmp	 SHORT $LN1@LoadFloat_@2
$LN88@LoadFloat_@2:
  001c0	c6 45 ec ed	 mov	 BYTE PTR __k$[ebp+8], -19 ; ffffffedH
  001c4	eb 2d		 jmp	 SHORT $LN1@LoadFloat_@2
$LN89@LoadFloat_@2:
  001c6	c6 45 eb ea	 mov	 BYTE PTR __k$[ebp+7], -22 ; ffffffeaH
  001ca	eb 27		 jmp	 SHORT $LN1@LoadFloat_@2
$LN90@LoadFloat_@2:
  001cc	c6 45 ea eb	 mov	 BYTE PTR __k$[ebp+6], -21 ; ffffffebH
  001d0	eb 21		 jmp	 SHORT $LN1@LoadFloat_@2
$LN91@LoadFloat_@2:
  001d2	88 4d e9	 mov	 BYTE PTR __k$[ebp+5], cl
  001d5	eb 1c		 jmp	 SHORT $LN1@LoadFloat_@2
$LN92@LoadFloat_@2:
  001d7	c6 45 e8 ed	 mov	 BYTE PTR __k$[ebp+4], -19 ; ffffffedH
  001db	eb 16		 jmp	 SHORT $LN1@LoadFloat_@2
$LN93@LoadFloat_@2:
  001dd	c6 45 e7 ea	 mov	 BYTE PTR __k$[ebp+3], -22 ; ffffffeaH
  001e1	eb 10		 jmp	 SHORT $LN1@LoadFloat_@2
$LN94@LoadFloat_@2:
  001e3	c6 45 e6 eb	 mov	 BYTE PTR __k$[ebp+2], -21 ; ffffffebH
  001e7	eb 0a		 jmp	 SHORT $LN1@LoadFloat_@2
$LN95@LoadFloat_@2:
  001e9	c6 45 e5 ec	 mov	 BYTE PTR __k$[ebp+1], -20 ; ffffffecH
  001ed	eb 04		 jmp	 SHORT $LN1@LoadFloat_@2
$LN96@LoadFloat_@2:
  001ef	c6 45 e4 ed	 mov	 BYTE PTR __k$[ebp], -19	; ffffffedH
$LN1@LoadFloat_@2:
  001f3	6a 04		 push	 4
  001f5	8d 45 e4	 lea	 eax, DWORD PTR __k$[ebp]
  001f8	c6 45 f6 00	 mov	 BYTE PTR __k$[ebp+18], 0
  001fc	5a		 pop	 edx
$LL104@LoadFloat_@2:
  001fd	81 30 ed ec eb
	ea		 xor	 DWORD PTR [eax], -353637139 ; eaebecedH
  00203	83 c0 04	 add	 eax, 4
  00206	4a		 dec	 edx
  00207	75 f4		 jne	 SHORT $LL104@LoadFloat_@2
  00209	6a 10		 push	 16			; 00000010H
  0020b	58		 pop	 eax
$LL101@LoadFloat_@2:
  0020c	8b c8		 mov	 ecx, eax
  0020e	81 e1 03 00 00
	80		 and	 ecx, -2147483645	; 80000003H
  00214	79 05		 jns	 SHORT $LN111@LoadFloat_@2
  00216	49		 dec	 ecx
  00217	83 c9 fc	 or	 ecx, -4			; fffffffcH
  0021a	41		 inc	 ecx
$LN111@LoadFloat_@2:
  0021b	b2 ed		 mov	 dl, -19			; ffffffedH
  0021d	2a d1		 sub	 dl, cl
  0021f	30 54 05 e4	 xor	 BYTE PTR __k$[ebp+eax], dl
  00223	40		 inc	 eax
  00224	83 f8 12	 cmp	 eax, 18			; 00000012H
  00227	7c e3		 jl	 SHORT $LL101@LoadFloat_@2

; 137  : 		return LoadFloat(_k, f);

  00229	f3 0f 10 45 0c	 movss	 xmm0, DWORD PTR _f$[ebp]
  0022e	51		 push	 ecx
  0022f	8d 45 e4	 lea	 eax, DWORD PTR __k$[ebp]
  00232	f3 0f 11 04 24	 movss	 DWORD PTR [esp], xmm0
  00237	50		 push	 eax
  00238	8b ce		 mov	 ecx, esi
  0023a	ff 15 00 00 00
	00		 call	 DWORD PTR __imp_?LoadFloat@ioINILoader@@QAEMPBDM@Z

; 138  : 	}

  00240	8b 4d fc	 mov	 ecx, DWORD PTR __$ArrayPad$[ebp]
  00243	33 cd		 xor	 ecx, ebp
  00245	5e		 pop	 esi
  00246	e8 00 00 00 00	 call	 @__security_check_cookie@4
  0024b	c9		 leave
  0024c	c2 08 00	 ret	 8
??$LoadFloat_e@$0BD@@ioINILoader@@QAEMAAY0BD@$$CBDM@Z ENDP ; ioINILoader::LoadFloat_e<19>
_TEXT	ENDS
PUBLIC	__$ArrayPad$
PUBLIC	??$LoadFloat_e@$0BI@@ioINILoader@@QAEMAAY0BI@$$CBDM@Z ; ioINILoader::LoadFloat_e<24>
; Function compile flags: /Ogsp
;	COMDAT ??$LoadFloat_e@$0BI@@ioINILoader@@QAEMAAY0BI@$$CBDM@Z
_TEXT	SEGMENT
__k$ = -32						; size = 24
__$ArrayPad$ = -4					; size = 4
_k$ = 8							; size = 4
_f$ = 12						; size = 4
??$LoadFloat_e@$0BI@@ioINILoader@@QAEMAAY0BI@$$CBDM@Z PROC ; ioINILoader::LoadFloat_e<24>, COMDAT
; _this$ = ecx

; 135  : 	{

  00000	55		 push	 ebp
  00001	8b ec		 mov	 ebp, esp
  00003	83 ec 20	 sub	 esp, 32			; 00000020H
  00006	a1 00 00 00 00	 mov	 eax, DWORD PTR ___security_cookie
  0000b	33 c5		 xor	 eax, ebp
  0000d	89 45 fc	 mov	 DWORD PTR __$ArrayPad$[ebp], eax
  00010	8b 45 08	 mov	 eax, DWORD PTR _k$[ebp]

; 136  : 		_ENCSTR(k, _k);

  00013	8a 10		 mov	 dl, BYTE PTR [eax]
  00015	53		 push	 ebx
  00016	56		 push	 esi
  00017	8b f1		 mov	 esi, ecx
  00019	84 d2		 test	 dl, dl
  0001b	0f 84 45 02 00
	00		 je	 $LN96@LoadFloat_@3
  00021	80 f2 ed	 xor	 dl, -19			; ffffffedH
  00024	88 55 e0	 mov	 BYTE PTR __k$[ebp], dl
  00027	8a 50 01	 mov	 dl, BYTE PTR [eax+1]
  0002a	84 d2		 test	 dl, dl
  0002c	0f 84 2e 02 00
	00		 je	 $LN95@LoadFloat_@3
  00032	b3 ec		 mov	 bl, -20			; ffffffecH
  00034	32 d3		 xor	 dl, bl
  00036	88 55 e1	 mov	 BYTE PTR __k$[ebp+1], dl
  00039	8a 50 02	 mov	 dl, BYTE PTR [eax+2]
  0003c	84 d2		 test	 dl, dl
  0003e	0f 84 16 02 00
	00		 je	 $LN94@LoadFloat_@3
  00044	b1 eb		 mov	 cl, -21			; ffffffebH
  00046	32 d1		 xor	 dl, cl
  00048	88 55 e2	 mov	 BYTE PTR __k$[ebp+2], dl
  0004b	8a 50 03	 mov	 dl, BYTE PTR [eax+3]
  0004e	84 d2		 test	 dl, dl
  00050	0f 84 fe 01 00
	00		 je	 $LN93@LoadFloat_@3
  00056	80 f2 ea	 xor	 dl, -22			; ffffffeaH
  00059	88 55 e3	 mov	 BYTE PTR __k$[ebp+3], dl
  0005c	8a 50 04	 mov	 dl, BYTE PTR [eax+4]
  0005f	84 d2		 test	 dl, dl
  00061	0f 84 e7 01 00
	00		 je	 $LN92@LoadFloat_@3
  00067	80 f2 ed	 xor	 dl, -19			; ffffffedH
  0006a	88 55 e4	 mov	 BYTE PTR __k$[ebp+4], dl
  0006d	8a 50 05	 mov	 dl, BYTE PTR [eax+5]
  00070	84 d2		 test	 dl, dl
  00072	0f 84 d1 01 00
	00		 je	 $LN91@LoadFloat_@3
  00078	32 d3		 xor	 dl, bl
  0007a	88 55 e5	 mov	 BYTE PTR __k$[ebp+5], dl
  0007d	8a 50 06	 mov	 dl, BYTE PTR [eax+6]
  00080	84 d2		 test	 dl, dl
  00082	0f 84 bc 01 00
	00		 je	 $LN90@LoadFloat_@3
  00088	32 d1		 xor	 dl, cl
  0008a	88 55 e6	 mov	 BYTE PTR __k$[ebp+6], dl
  0008d	8a 50 07	 mov	 dl, BYTE PTR [eax+7]
  00090	84 d2		 test	 dl, dl
  00092	0f 84 a6 01 00
	00		 je	 $LN89@LoadFloat_@3
  00098	80 f2 ea	 xor	 dl, -22			; ffffffeaH
  0009b	88 55 e7	 mov	 BYTE PTR __k$[ebp+7], dl
  0009e	8a 50 08	 mov	 dl, BYTE PTR [eax+8]
  000a1	84 d2		 test	 dl, dl
  000a3	0f 84 8f 01 00
	00		 je	 $LN88@LoadFloat_@3
  000a9	80 f2 ed	 xor	 dl, -19			; ffffffedH
  000ac	88 55 e8	 mov	 BYTE PTR __k$[ebp+8], dl
  000af	8a 50 09	 mov	 dl, BYTE PTR [eax+9]
  000b2	84 d2		 test	 dl, dl
  000b4	0f 84 79 01 00
	00		 je	 $LN87@LoadFloat_@3
  000ba	32 d3		 xor	 dl, bl
  000bc	88 55 e9	 mov	 BYTE PTR __k$[ebp+9], dl
  000bf	8a 50 0a	 mov	 dl, BYTE PTR [eax+10]
  000c2	84 d2		 test	 dl, dl
  000c4	0f 84 64 01 00
	00		 je	 $LN86@LoadFloat_@3
  000ca	32 d1		 xor	 dl, cl
  000cc	88 55 ea	 mov	 BYTE PTR __k$[ebp+10], dl
  000cf	8a 50 0b	 mov	 dl, BYTE PTR [eax+11]
  000d2	84 d2		 test	 dl, dl
  000d4	0f 84 4e 01 00
	00		 je	 $LN85@LoadFloat_@3
  000da	80 f2 ea	 xor	 dl, -22			; ffffffeaH
  000dd	88 55 eb	 mov	 BYTE PTR __k$[ebp+11], dl
  000e0	8a 50 0c	 mov	 dl, BYTE PTR [eax+12]
  000e3	84 d2		 test	 dl, dl
  000e5	0f 84 37 01 00
	00		 je	 $LN84@LoadFloat_@3
  000eb	80 f2 ed	 xor	 dl, -19			; ffffffedH
  000ee	88 55 ec	 mov	 BYTE PTR __k$[ebp+12], dl
  000f1	8a 50 0d	 mov	 dl, BYTE PTR [eax+13]
  000f4	84 d2		 test	 dl, dl
  000f6	0f 84 21 01 00
	00		 je	 $LN83@LoadFloat_@3
  000fc	32 d3		 xor	 dl, bl
  000fe	88 55 ed	 mov	 BYTE PTR __k$[ebp+13], dl
  00101	8a 50 0e	 mov	 dl, BYTE PTR [eax+14]
  00104	84 d2		 test	 dl, dl
  00106	0f 84 0c 01 00
	00		 je	 $LN82@LoadFloat_@3
  0010c	32 d1		 xor	 dl, cl
  0010e	88 55 ee	 mov	 BYTE PTR __k$[ebp+14], dl
  00111	8a 50 0f	 mov	 dl, BYTE PTR [eax+15]
  00114	84 d2		 test	 dl, dl
  00116	0f 84 f6 00 00
	00		 je	 $LN81@LoadFloat_@3
  0011c	80 f2 ea	 xor	 dl, -22			; ffffffeaH
  0011f	88 55 ef	 mov	 BYTE PTR __k$[ebp+15], dl
  00122	8a 50 10	 mov	 dl, BYTE PTR [eax+16]
  00125	84 d2		 test	 dl, dl
  00127	0f 84 df 00 00
	00		 je	 $LN80@LoadFloat_@3
  0012d	80 f2 ed	 xor	 dl, -19			; ffffffedH
  00130	88 55 f0	 mov	 BYTE PTR __k$[ebp+16], dl
  00133	8a 50 11	 mov	 dl, BYTE PTR [eax+17]
  00136	84 d2		 test	 dl, dl
  00138	0f 84 c9 00 00
	00		 je	 $LN79@LoadFloat_@3
  0013e	32 d3		 xor	 dl, bl
  00140	88 55 f1	 mov	 BYTE PTR __k$[ebp+17], dl
  00143	8a 50 12	 mov	 dl, BYTE PTR [eax+18]
  00146	84 d2		 test	 dl, dl
  00148	0f 84 b4 00 00
	00		 je	 $LN78@LoadFloat_@3
  0014e	32 d1		 xor	 dl, cl
  00150	88 55 f2	 mov	 BYTE PTR __k$[ebp+18], dl
  00153	8a 50 13	 mov	 dl, BYTE PTR [eax+19]
  00156	84 d2		 test	 dl, dl
  00158	0f 84 9e 00 00
	00		 je	 $LN77@LoadFloat_@3
  0015e	80 f2 ea	 xor	 dl, -22			; ffffffeaH
  00161	88 55 f3	 mov	 BYTE PTR __k$[ebp+19], dl
  00164	8a 50 14	 mov	 dl, BYTE PTR [eax+20]
  00167	84 d2		 test	 dl, dl
  00169	0f 84 87 00 00
	00		 je	 $LN76@LoadFloat_@3
  0016f	80 f2 ed	 xor	 dl, -19			; ffffffedH
  00172	88 55 f4	 mov	 BYTE PTR __k$[ebp+20], dl
  00175	8a 50 15	 mov	 dl, BYTE PTR [eax+21]
  00178	84 d2		 test	 dl, dl
  0017a	74 75		 je	 SHORT $LN75@LoadFloat_@3
  0017c	32 d3		 xor	 dl, bl
  0017e	88 55 f5	 mov	 BYTE PTR __k$[ebp+21], dl
  00181	8a 50 16	 mov	 dl, BYTE PTR [eax+22]
  00184	84 d2		 test	 dl, dl
  00186	74 64		 je	 SHORT $LN74@LoadFloat_@3
  00188	32 d1		 xor	 dl, cl
  0018a	80 78 17 00	 cmp	 BYTE PTR [eax+23], 0
  0018e	88 55 f6	 mov	 BYTE PTR __k$[ebp+22], dl
  00191	0f 84 d3 00 00
	00		 je	 $LN1@LoadFloat_@3
  00197	8a 50 18	 mov	 dl, BYTE PTR [eax+24]
  0019a	84 d2		 test	 dl, dl
  0019c	74 48		 je	 SHORT $LN72@LoadFloat_@3
  0019e	80 f2 ed	 xor	 dl, -19			; ffffffedH
  001a1	88 55 f8	 mov	 BYTE PTR __k$[ebp+24], dl
  001a4	8a 50 19	 mov	 dl, BYTE PTR [eax+25]
  001a7	84 d2		 test	 dl, dl
  001a9	74 33		 je	 SHORT $LN71@LoadFloat_@3
  001ab	32 d3		 xor	 dl, bl
  001ad	88 55 f9	 mov	 BYTE PTR __k$[ebp+25], dl
  001b0	8a 50 1a	 mov	 dl, BYTE PTR [eax+26]
  001b3	84 d2		 test	 dl, dl
  001b5	74 1f		 je	 SHORT $LN70@LoadFloat_@3
  001b7	8a 40 1b	 mov	 al, BYTE PTR [eax+27]
  001ba	32 d1		 xor	 dl, cl
  001bc	88 55 fa	 mov	 BYTE PTR __k$[ebp+26], dl
  001bf	84 c0		 test	 al, al
  001c1	74 0a		 je	 SHORT $LN69@LoadFloat_@3
  001c3	34 ea		 xor	 al, -22			; ffffffeaH
  001c5	88 45 fb	 mov	 BYTE PTR __k$[ebp+27], al
  001c8	e9 9d 00 00 00	 jmp	 $LN1@LoadFloat_@3
$LN69@LoadFloat_@3:
  001cd	c6 45 fb ea	 mov	 BYTE PTR __k$[ebp+27], -22 ; ffffffeaH
  001d1	e9 94 00 00 00	 jmp	 $LN1@LoadFloat_@3
$LN70@LoadFloat_@3:
  001d6	88 4d fa	 mov	 BYTE PTR __k$[ebp+26], cl
  001d9	e9 8c 00 00 00	 jmp	 $LN1@LoadFloat_@3
$LN71@LoadFloat_@3:
  001de	88 5d f9	 mov	 BYTE PTR __k$[ebp+25], bl
  001e1	e9 84 00 00 00	 jmp	 $LN1@LoadFloat_@3
$LN72@LoadFloat_@3:
  001e6	c6 45 f8 ed	 mov	 BYTE PTR __k$[ebp+24], -19 ; ffffffedH
  001ea	eb 7e		 jmp	 SHORT $LN1@LoadFloat_@3
$LN74@LoadFloat_@3:
  001ec	88 4d f6	 mov	 BYTE PTR __k$[ebp+22], cl
  001ef	eb 79		 jmp	 SHORT $LN1@LoadFloat_@3
$LN75@LoadFloat_@3:
  001f1	88 5d f5	 mov	 BYTE PTR __k$[ebp+21], bl
  001f4	eb 74		 jmp	 SHORT $LN1@LoadFloat_@3
$LN76@LoadFloat_@3:
  001f6	c6 45 f4 ed	 mov	 BYTE PTR __k$[ebp+20], -19 ; ffffffedH
  001fa	eb 6e		 jmp	 SHORT $LN1@LoadFloat_@3
$LN77@LoadFloat_@3:
  001fc	c6 45 f3 ea	 mov	 BYTE PTR __k$[ebp+19], -22 ; ffffffeaH
  00200	eb 68		 jmp	 SHORT $LN1@LoadFloat_@3
$LN78@LoadFloat_@3:
  00202	88 4d f2	 mov	 BYTE PTR __k$[ebp+18], cl
  00205	eb 63		 jmp	 SHORT $LN1@LoadFloat_@3
$LN79@LoadFloat_@3:
  00207	88 5d f1	 mov	 BYTE PTR __k$[ebp+17], bl
  0020a	eb 5e		 jmp	 SHORT $LN1@LoadFloat_@3
$LN80@LoadFloat_@3:
  0020c	c6 45 f0 ed	 mov	 BYTE PTR __k$[ebp+16], -19 ; ffffffedH
  00210	eb 58		 jmp	 SHORT $LN1@LoadFloat_@3
$LN81@LoadFloat_@3:
  00212	c6 45 ef ea	 mov	 BYTE PTR __k$[ebp+15], -22 ; ffffffeaH
  00216	eb 52		 jmp	 SHORT $LN1@LoadFloat_@3
$LN82@LoadFloat_@3:
  00218	88 4d ee	 mov	 BYTE PTR __k$[ebp+14], cl
  0021b	eb 4d		 jmp	 SHORT $LN1@LoadFloat_@3
$LN83@LoadFloat_@3:
  0021d	88 5d ed	 mov	 BYTE PTR __k$[ebp+13], bl
  00220	eb 48		 jmp	 SHORT $LN1@LoadFloat_@3
$LN84@LoadFloat_@3:
  00222	c6 45 ec ed	 mov	 BYTE PTR __k$[ebp+12], -19 ; ffffffedH
  00226	eb 42		 jmp	 SHORT $LN1@LoadFloat_@3
$LN85@LoadFloat_@3:
  00228	c6 45 eb ea	 mov	 BYTE PTR __k$[ebp+11], -22 ; ffffffeaH
  0022c	eb 3c		 jmp	 SHORT $LN1@LoadFloat_@3
$LN86@LoadFloat_@3:
  0022e	88 4d ea	 mov	 BYTE PTR __k$[ebp+10], cl
  00231	eb 37		 jmp	 SHORT $LN1@LoadFloat_@3
$LN87@LoadFloat_@3:
  00233	88 5d e9	 mov	 BYTE PTR __k$[ebp+9], bl
  00236	eb 32		 jmp	 SHORT $LN1@LoadFloat_@3
$LN88@LoadFloat_@3:
  00238	c6 45 e8 ed	 mov	 BYTE PTR __k$[ebp+8], -19 ; ffffffedH
  0023c	eb 2c		 jmp	 SHORT $LN1@LoadFloat_@3
$LN89@LoadFloat_@3:
  0023e	c6 45 e7 ea	 mov	 BYTE PTR __k$[ebp+7], -22 ; ffffffeaH
  00242	eb 26		 jmp	 SHORT $LN1@LoadFloat_@3
$LN90@LoadFloat_@3:
  00244	88 4d e6	 mov	 BYTE PTR __k$[ebp+6], cl
  00247	eb 21		 jmp	 SHORT $LN1@LoadFloat_@3
$LN91@LoadFloat_@3:
  00249	88 5d e5	 mov	 BYTE PTR __k$[ebp+5], bl
  0024c	eb 1c		 jmp	 SHORT $LN1@LoadFloat_@3
$LN92@LoadFloat_@3:
  0024e	c6 45 e4 ed	 mov	 BYTE PTR __k$[ebp+4], -19 ; ffffffedH
  00252	eb 16		 jmp	 SHORT $LN1@LoadFloat_@3
$LN93@LoadFloat_@3:
  00254	c6 45 e3 ea	 mov	 BYTE PTR __k$[ebp+3], -22 ; ffffffeaH
  00258	eb 10		 jmp	 SHORT $LN1@LoadFloat_@3
$LN94@LoadFloat_@3:
  0025a	c6 45 e2 eb	 mov	 BYTE PTR __k$[ebp+2], -21 ; ffffffebH
  0025e	eb 0a		 jmp	 SHORT $LN1@LoadFloat_@3
$LN95@LoadFloat_@3:
  00260	c6 45 e1 ec	 mov	 BYTE PTR __k$[ebp+1], -20 ; ffffffecH
  00264	eb 04		 jmp	 SHORT $LN1@LoadFloat_@3
$LN96@LoadFloat_@3:
  00266	c6 45 e0 ed	 mov	 BYTE PTR __k$[ebp], -19	; ffffffedH
$LN1@LoadFloat_@3:
  0026a	6a 05		 push	 5
  0026c	8d 45 e0	 lea	 eax, DWORD PTR __k$[ebp]
  0026f	c6 45 f7 00	 mov	 BYTE PTR __k$[ebp+23], 0
  00273	5a		 pop	 edx
$LL104@LoadFloat_@3:
  00274	81 30 ed ec eb
	ea		 xor	 DWORD PTR [eax], -353637139 ; eaebecedH
  0027a	83 c0 04	 add	 eax, 4
  0027d	4a		 dec	 edx
  0027e	75 f4		 jne	 SHORT $LL104@LoadFloat_@3
  00280	6a 14		 push	 20			; 00000014H
  00282	58		 pop	 eax
$LL101@LoadFloat_@3:
  00283	8b c8		 mov	 ecx, eax
  00285	81 e1 03 00 00
	80		 and	 ecx, -2147483645	; 80000003H
  0028b	79 05		 jns	 SHORT $LN111@LoadFloat_@3
  0028d	49		 dec	 ecx
  0028e	83 c9 fc	 or	 ecx, -4			; fffffffcH
  00291	41		 inc	 ecx
$LN111@LoadFloat_@3:
  00292	b2 ed		 mov	 dl, -19			; ffffffedH
  00294	2a d1		 sub	 dl, cl
  00296	30 54 05 e0	 xor	 BYTE PTR __k$[ebp+eax], dl
  0029a	40		 inc	 eax
  0029b	83 f8 17	 cmp	 eax, 23			; 00000017H
  0029e	7c e3		 jl	 SHORT $LL101@LoadFloat_@3

; 137  : 		return LoadFloat(_k, f);

  002a0	f3 0f 10 45 0c	 movss	 xmm0, DWORD PTR _f$[ebp]
  002a5	51		 push	 ecx
  002a6	8d 45 e0	 lea	 eax, DWORD PTR __k$[ebp]
  002a9	f3 0f 11 04 24	 movss	 DWORD PTR [esp], xmm0
  002ae	50		 push	 eax
  002af	8b ce		 mov	 ecx, esi
  002b1	ff 15 00 00 00
	00		 call	 DWORD PTR __imp_?LoadFloat@ioINILoader@@QAEMPBDM@Z

; 138  : 	}

  002b7	8b 4d fc	 mov	 ecx, DWORD PTR __$ArrayPad$[ebp]
  002ba	5e		 pop	 esi
  002bb	33 cd		 xor	 ecx, ebp
  002bd	5b		 pop	 ebx
  002be	e8 00 00 00 00	 call	 @__security_check_cookie@4
  002c3	c9		 leave
  002c4	c2 08 00	 ret	 8
??$LoadFloat_e@$0BI@@ioINILoader@@QAEMAAY0BI@$$CBDM@Z ENDP ; ioINILoader::LoadFloat_e<24>
_TEXT	ENDS
PUBLIC	__$ArrayPad$
PUBLIC	??$LoadFloat_e@$0BE@@ioINILoader@@QAEMAAY0BE@$$CBDM@Z ; ioINILoader::LoadFloat_e<20>
; Function compile flags: /Ogsp
;	COMDAT ??$LoadFloat_e@$0BE@@ioINILoader@@QAEMAAY0BE@$$CBDM@Z
_TEXT	SEGMENT
__k$ = -28						; size = 20
__$ArrayPad$ = -4					; size = 4
_k$ = 8							; size = 4
_f$ = 12						; size = 4
??$LoadFloat_e@$0BE@@ioINILoader@@QAEMAAY0BE@$$CBDM@Z PROC ; ioINILoader::LoadFloat_e<20>, COMDAT
; _this$ = ecx

; 135  : 	{

  00000	55		 push	 ebp
  00001	8b ec		 mov	 ebp, esp
  00003	83 ec 1c	 sub	 esp, 28			; 0000001cH
  00006	a1 00 00 00 00	 mov	 eax, DWORD PTR ___security_cookie
  0000b	33 c5		 xor	 eax, ebp
  0000d	89 45 fc	 mov	 DWORD PTR __$ArrayPad$[ebp], eax
  00010	8b 45 08	 mov	 eax, DWORD PTR _k$[ebp]

; 136  : 		_ENCSTR(k, _k);

  00013	8a 10		 mov	 dl, BYTE PTR [eax]
  00015	53		 push	 ebx
  00016	56		 push	 esi
  00017	8b f1		 mov	 esi, ecx
  00019	84 d2		 test	 dl, dl
  0001b	0f 84 dd 01 00
	00		 je	 $LN96@LoadFloat_@4
  00021	80 f2 ed	 xor	 dl, -19			; ffffffedH
  00024	88 55 e4	 mov	 BYTE PTR __k$[ebp], dl
  00027	8a 50 01	 mov	 dl, BYTE PTR [eax+1]
  0002a	84 d2		 test	 dl, dl
  0002c	0f 84 c6 01 00
	00		 je	 $LN95@LoadFloat_@4
  00032	b3 ec		 mov	 bl, -20			; ffffffecH
  00034	32 d3		 xor	 dl, bl
  00036	88 55 e5	 mov	 BYTE PTR __k$[ebp+1], dl
  00039	8a 50 02	 mov	 dl, BYTE PTR [eax+2]
  0003c	84 d2		 test	 dl, dl
  0003e	0f 84 ae 01 00
	00		 je	 $LN94@LoadFloat_@4
  00044	b1 eb		 mov	 cl, -21			; ffffffebH
  00046	32 d1		 xor	 dl, cl
  00048	88 55 e6	 mov	 BYTE PTR __k$[ebp+2], dl
  0004b	8a 50 03	 mov	 dl, BYTE PTR [eax+3]
  0004e	84 d2		 test	 dl, dl
  00050	0f 84 96 01 00
	00		 je	 $LN93@LoadFloat_@4
  00056	80 f2 ea	 xor	 dl, -22			; ffffffeaH
  00059	88 55 e7	 mov	 BYTE PTR __k$[ebp+3], dl
  0005c	8a 50 04	 mov	 dl, BYTE PTR [eax+4]
  0005f	84 d2		 test	 dl, dl
  00061	0f 84 7f 01 00
	00		 je	 $LN92@LoadFloat_@4
  00067	80 f2 ed	 xor	 dl, -19			; ffffffedH
  0006a	88 55 e8	 mov	 BYTE PTR __k$[ebp+4], dl
  0006d	8a 50 05	 mov	 dl, BYTE PTR [eax+5]
  00070	84 d2		 test	 dl, dl
  00072	0f 84 69 01 00
	00		 je	 $LN91@LoadFloat_@4
  00078	32 d3		 xor	 dl, bl
  0007a	88 55 e9	 mov	 BYTE PTR __k$[ebp+5], dl
  0007d	8a 50 06	 mov	 dl, BYTE PTR [eax+6]
  00080	84 d2		 test	 dl, dl
  00082	0f 84 54 01 00
	00		 je	 $LN90@LoadFloat_@4
  00088	32 d1		 xor	 dl, cl
  0008a	88 55 ea	 mov	 BYTE PTR __k$[ebp+6], dl
  0008d	8a 50 07	 mov	 dl, BYTE PTR [eax+7]
  00090	84 d2		 test	 dl, dl
  00092	0f 84 3e 01 00
	00		 je	 $LN89@LoadFloat_@4
  00098	80 f2 ea	 xor	 dl, -22			; ffffffeaH
  0009b	88 55 eb	 mov	 BYTE PTR __k$[ebp+7], dl
  0009e	8a 50 08	 mov	 dl, BYTE PTR [eax+8]
  000a1	84 d2		 test	 dl, dl
  000a3	0f 84 27 01 00
	00		 je	 $LN88@LoadFloat_@4
  000a9	80 f2 ed	 xor	 dl, -19			; ffffffedH
  000ac	88 55 ec	 mov	 BYTE PTR __k$[ebp+8], dl
  000af	8a 50 09	 mov	 dl, BYTE PTR [eax+9]
  000b2	84 d2		 test	 dl, dl
  000b4	0f 84 11 01 00
	00		 je	 $LN87@LoadFloat_@4
  000ba	32 d3		 xor	 dl, bl
  000bc	88 55 ed	 mov	 BYTE PTR __k$[ebp+9], dl
  000bf	8a 50 0a	 mov	 dl, BYTE PTR [eax+10]
  000c2	84 d2		 test	 dl, dl
  000c4	0f 84 fc 00 00
	00		 je	 $LN86@LoadFloat_@4
  000ca	32 d1		 xor	 dl, cl
  000cc	88 55 ee	 mov	 BYTE PTR __k$[ebp+10], dl
  000cf	8a 50 0b	 mov	 dl, BYTE PTR [eax+11]
  000d2	84 d2		 test	 dl, dl
  000d4	0f 84 e6 00 00
	00		 je	 $LN85@LoadFloat_@4
  000da	80 f2 ea	 xor	 dl, -22			; ffffffeaH
  000dd	88 55 ef	 mov	 BYTE PTR __k$[ebp+11], dl
  000e0	8a 50 0c	 mov	 dl, BYTE PTR [eax+12]
  000e3	84 d2		 test	 dl, dl
  000e5	0f 84 cf 00 00
	00		 je	 $LN84@LoadFloat_@4
  000eb	80 f2 ed	 xor	 dl, -19			; ffffffedH
  000ee	88 55 f0	 mov	 BYTE PTR __k$[ebp+12], dl
  000f1	8a 50 0d	 mov	 dl, BYTE PTR [eax+13]
  000f4	84 d2		 test	 dl, dl
  000f6	0f 84 b9 00 00
	00		 je	 $LN83@LoadFloat_@4
  000fc	32 d3		 xor	 dl, bl
  000fe	88 55 f1	 mov	 BYTE PTR __k$[ebp+13], dl
  00101	8a 50 0e	 mov	 dl, BYTE PTR [eax+14]
  00104	84 d2		 test	 dl, dl
  00106	0f 84 a4 00 00
	00		 je	 $LN82@LoadFloat_@4
  0010c	32 d1		 xor	 dl, cl
  0010e	88 55 f2	 mov	 BYTE PTR __k$[ebp+14], dl
  00111	8a 50 0f	 mov	 dl, BYTE PTR [eax+15]
  00114	84 d2		 test	 dl, dl
  00116	0f 84 8e 00 00
	00		 je	 $LN81@LoadFloat_@4
  0011c	80 f2 ea	 xor	 dl, -22			; ffffffeaH
  0011f	88 55 f3	 mov	 BYTE PTR __k$[ebp+15], dl
  00122	8a 50 10	 mov	 dl, BYTE PTR [eax+16]
  00125	84 d2		 test	 dl, dl
  00127	74 7b		 je	 SHORT $LN80@LoadFloat_@4
  00129	80 f2 ed	 xor	 dl, -19			; ffffffedH
  0012c	88 55 f4	 mov	 BYTE PTR __k$[ebp+16], dl
  0012f	8a 50 11	 mov	 dl, BYTE PTR [eax+17]
  00132	84 d2		 test	 dl, dl
  00134	74 69		 je	 SHORT $LN79@LoadFloat_@4
  00136	32 d3		 xor	 dl, bl
  00138	88 55 f5	 mov	 BYTE PTR __k$[ebp+17], dl
  0013b	8a 50 12	 mov	 dl, BYTE PTR [eax+18]
  0013e	84 d2		 test	 dl, dl
  00140	74 58		 je	 SHORT $LN78@LoadFloat_@4
  00142	32 d1		 xor	 dl, cl
  00144	80 78 13 00	 cmp	 BYTE PTR [eax+19], 0
  00148	88 55 f6	 mov	 BYTE PTR __k$[ebp+18], dl
  0014b	0f 84 b1 00 00
	00		 je	 $LN1@LoadFloat_@4
  00151	8a 50 14	 mov	 dl, BYTE PTR [eax+20]
  00154	84 d2		 test	 dl, dl
  00156	74 3c		 je	 SHORT $LN76@LoadFloat_@4
  00158	80 f2 ed	 xor	 dl, -19			; ffffffedH
  0015b	88 55 f8	 mov	 BYTE PTR __k$[ebp+20], dl
  0015e	8a 50 15	 mov	 dl, BYTE PTR [eax+21]
  00161	84 d2		 test	 dl, dl
  00163	74 2a		 je	 SHORT $LN75@LoadFloat_@4
  00165	32 d3		 xor	 dl, bl
  00167	88 55 f9	 mov	 BYTE PTR __k$[ebp+21], dl
  0016a	8a 50 16	 mov	 dl, BYTE PTR [eax+22]
  0016d	84 d2		 test	 dl, dl
  0016f	74 19		 je	 SHORT $LN74@LoadFloat_@4
  00171	8a 40 17	 mov	 al, BYTE PTR [eax+23]
  00174	32 d1		 xor	 dl, cl
  00176	88 55 fa	 mov	 BYTE PTR __k$[ebp+22], dl
  00179	84 c0		 test	 al, al
  0017b	74 07		 je	 SHORT $LN73@LoadFloat_@4
  0017d	34 ea		 xor	 al, -22			; ffffffeaH
  0017f	88 45 fb	 mov	 BYTE PTR __k$[ebp+23], al
  00182	eb 7e		 jmp	 SHORT $LN1@LoadFloat_@4
$LN73@LoadFloat_@4:
  00184	c6 45 fb ea	 mov	 BYTE PTR __k$[ebp+23], -22 ; ffffffeaH
  00188	eb 78		 jmp	 SHORT $LN1@LoadFloat_@4
$LN74@LoadFloat_@4:
  0018a	88 4d fa	 mov	 BYTE PTR __k$[ebp+22], cl
  0018d	eb 73		 jmp	 SHORT $LN1@LoadFloat_@4
$LN75@LoadFloat_@4:
  0018f	88 5d f9	 mov	 BYTE PTR __k$[ebp+21], bl
  00192	eb 6e		 jmp	 SHORT $LN1@LoadFloat_@4
$LN76@LoadFloat_@4:
  00194	c6 45 f8 ed	 mov	 BYTE PTR __k$[ebp+20], -19 ; ffffffedH
  00198	eb 68		 jmp	 SHORT $LN1@LoadFloat_@4
$LN78@LoadFloat_@4:
  0019a	88 4d f6	 mov	 BYTE PTR __k$[ebp+18], cl
  0019d	eb 63		 jmp	 SHORT $LN1@LoadFloat_@4
$LN79@LoadFloat_@4:
  0019f	88 5d f5	 mov	 BYTE PTR __k$[ebp+17], bl
  001a2	eb 5e		 jmp	 SHORT $LN1@LoadFloat_@4
$LN80@LoadFloat_@4:
  001a4	c6 45 f4 ed	 mov	 BYTE PTR __k$[ebp+16], -19 ; ffffffedH
  001a8	eb 58		 jmp	 SHORT $LN1@LoadFloat_@4
$LN81@LoadFloat_@4:
  001aa	c6 45 f3 ea	 mov	 BYTE PTR __k$[ebp+15], -22 ; ffffffeaH
  001ae	eb 52		 jmp	 SHORT $LN1@LoadFloat_@4
$LN82@LoadFloat_@4:
  001b0	88 4d f2	 mov	 BYTE PTR __k$[ebp+14], cl
  001b3	eb 4d		 jmp	 SHORT $LN1@LoadFloat_@4
$LN83@LoadFloat_@4:
  001b5	88 5d f1	 mov	 BYTE PTR __k$[ebp+13], bl
  001b8	eb 48		 jmp	 SHORT $LN1@LoadFloat_@4
$LN84@LoadFloat_@4:
  001ba	c6 45 f0 ed	 mov	 BYTE PTR __k$[ebp+12], -19 ; ffffffedH
  001be	eb 42		 jmp	 SHORT $LN1@LoadFloat_@4
$LN85@LoadFloat_@4:
  001c0	c6 45 ef ea	 mov	 BYTE PTR __k$[ebp+11], -22 ; ffffffeaH
  001c4	eb 3c		 jmp	 SHORT $LN1@LoadFloat_@4
$LN86@LoadFloat_@4:
  001c6	88 4d ee	 mov	 BYTE PTR __k$[ebp+10], cl
  001c9	eb 37		 jmp	 SHORT $LN1@LoadFloat_@4
$LN87@LoadFloat_@4:
  001cb	88 5d ed	 mov	 BYTE PTR __k$[ebp+9], bl
  001ce	eb 32		 jmp	 SHORT $LN1@LoadFloat_@4
$LN88@LoadFloat_@4:
  001d0	c6 45 ec ed	 mov	 BYTE PTR __k$[ebp+8], -19 ; ffffffedH
  001d4	eb 2c		 jmp	 SHORT $LN1@LoadFloat_@4
$LN89@LoadFloat_@4:
  001d6	c6 45 eb ea	 mov	 BYTE PTR __k$[ebp+7], -22 ; ffffffeaH
  001da	eb 26		 jmp	 SHORT $LN1@LoadFloat_@4
$LN90@LoadFloat_@4:
  001dc	88 4d ea	 mov	 BYTE PTR __k$[ebp+6], cl
  001df	eb 21		 jmp	 SHORT $LN1@LoadFloat_@4
$LN91@LoadFloat_@4:
  001e1	88 5d e9	 mov	 BYTE PTR __k$[ebp+5], bl
  001e4	eb 1c		 jmp	 SHORT $LN1@LoadFloat_@4
$LN92@LoadFloat_@4:
  001e6	c6 45 e8 ed	 mov	 BYTE PTR __k$[ebp+4], -19 ; ffffffedH
  001ea	eb 16		 jmp	 SHORT $LN1@LoadFloat_@4
$LN93@LoadFloat_@4:
  001ec	c6 45 e7 ea	 mov	 BYTE PTR __k$[ebp+3], -22 ; ffffffeaH
  001f0	eb 10		 jmp	 SHORT $LN1@LoadFloat_@4
$LN94@LoadFloat_@4:
  001f2	c6 45 e6 eb	 mov	 BYTE PTR __k$[ebp+2], -21 ; ffffffebH
  001f6	eb 0a		 jmp	 SHORT $LN1@LoadFloat_@4
$LN95@LoadFloat_@4:
  001f8	c6 45 e5 ec	 mov	 BYTE PTR __k$[ebp+1], -20 ; ffffffecH
  001fc	eb 04		 jmp	 SHORT $LN1@LoadFloat_@4
$LN96@LoadFloat_@4:
  001fe	c6 45 e4 ed	 mov	 BYTE PTR __k$[ebp], -19	; ffffffedH
$LN1@LoadFloat_@4:
  00202	6a 04		 push	 4
  00204	8d 45 e4	 lea	 eax, DWORD PTR __k$[ebp]
  00207	c6 45 f7 00	 mov	 BYTE PTR __k$[ebp+19], 0
  0020b	5a		 pop	 edx
$LL104@LoadFloat_@4:
  0020c	81 30 ed ec eb
	ea		 xor	 DWORD PTR [eax], -353637139 ; eaebecedH
  00212	83 c0 04	 add	 eax, 4
  00215	4a		 dec	 edx
  00216	75 f4		 jne	 SHORT $LL104@LoadFloat_@4
  00218	6a 10		 push	 16			; 00000010H
  0021a	58		 pop	 eax
$LL101@LoadFloat_@4:
  0021b	8b c8		 mov	 ecx, eax
  0021d	81 e1 03 00 00
	80		 and	 ecx, -2147483645	; 80000003H
  00223	79 05		 jns	 SHORT $LN111@LoadFloat_@4
  00225	49		 dec	 ecx
  00226	83 c9 fc	 or	 ecx, -4			; fffffffcH
  00229	41		 inc	 ecx
$LN111@LoadFloat_@4:
  0022a	b2 ed		 mov	 dl, -19			; ffffffedH
  0022c	2a d1		 sub	 dl, cl
  0022e	30 54 05 e4	 xor	 BYTE PTR __k$[ebp+eax], dl
  00232	40		 inc	 eax
  00233	83 f8 13	 cmp	 eax, 19			; 00000013H
  00236	7c e3		 jl	 SHORT $LL101@LoadFloat_@4

; 137  : 		return LoadFloat(_k, f);

  00238	f3 0f 10 45 0c	 movss	 xmm0, DWORD PTR _f$[ebp]
  0023d	51		 push	 ecx
  0023e	8d 45 e4	 lea	 eax, DWORD PTR __k$[ebp]
  00241	f3 0f 11 04 24	 movss	 DWORD PTR [esp], xmm0
  00246	50		 push	 eax
  00247	8b ce		 mov	 ecx, esi
  00249	ff 15 00 00 00
	00		 call	 DWORD PTR __imp_?LoadFloat@ioINILoader@@QAEMPBDM@Z

; 138  : 	}

  0024f	8b 4d fc	 mov	 ecx, DWORD PTR __$ArrayPad$[ebp]
  00252	5e		 pop	 esi
  00253	33 cd		 xor	 ecx, ebp
  00255	5b		 pop	 ebx
  00256	e8 00 00 00 00	 call	 @__security_check_cookie@4
  0025b	c9		 leave
  0025c	c2 08 00	 ret	 8
??$LoadFloat_e@$0BE@@ioINILoader@@QAEMAAY0BE@$$CBDM@Z ENDP ; ioINILoader::LoadFloat_e<20>
_TEXT	ENDS
PUBLIC	_this$GSCopy$
PUBLIC	__$ArrayPad$
PUBLIC	??$LoadString_e@$0N@@ioINILoader@@QAEXAAY0N@$$CBDAAY00$$CBDPADH@Z ; ioINILoader::LoadString_e<13>
; Function compile flags: /Ogsp
;	COMDAT ??$LoadString_e@$0N@@ioINILoader@@QAEXAAY0N@$$CBDAAY00$$CBDPADH@Z
_TEXT	SEGMENT
_this$GSCopy$ = -28					; size = 4
__k$ = -24						; size = 13
__$ArrayPad$ = -4					; size = 4
_k$ = 8							; size = 4
_d$ = 12						; size = 4
_b$ = 16						; size = 4
_i$ = 20						; size = 4
??$LoadString_e@$0N@@ioINILoader@@QAEXAAY0N@$$CBDAAY00$$CBDPADH@Z PROC ; ioINILoader::LoadString_e<13>, COMDAT
; _this$ = ecx

; 161  : 	{

  00000	55		 push	 ebp
  00001	8b ec		 mov	 ebp, esp
  00003	83 ec 1c	 sub	 esp, 28			; 0000001cH
  00006	a1 00 00 00 00	 mov	 eax, DWORD PTR ___security_cookie
  0000b	33 c5		 xor	 eax, ebp
  0000d	89 45 fc	 mov	 DWORD PTR __$ArrayPad$[ebp], eax
  00010	8b 45 08	 mov	 eax, DWORD PTR _k$[ebp]

; 162  : 		_ENCSTR(k, _k);

  00013	8a 10		 mov	 dl, BYTE PTR [eax]
  00015	56		 push	 esi
  00016	8b 75 0c	 mov	 esi, DWORD PTR _d$[ebp]
  00019	57		 push	 edi
  0001a	8b 7d 10	 mov	 edi, DWORD PTR _b$[ebp]
  0001d	89 4d e4	 mov	 DWORD PTR _this$GSCopy$[ebp], ecx
  00020	84 d2		 test	 dl, dl
  00022	0f 84 4d 01 00
	00		 je	 $LN96@LoadString@2
  00028	80 f2 ed	 xor	 dl, -19			; ffffffedH
  0002b	88 55 e8	 mov	 BYTE PTR __k$[ebp], dl
  0002e	8a 50 01	 mov	 dl, BYTE PTR [eax+1]
  00031	84 d2		 test	 dl, dl
  00033	0f 84 36 01 00
	00		 je	 $LN95@LoadString@2
  00039	b1 ec		 mov	 cl, -20			; ffffffecH
  0003b	32 d1		 xor	 dl, cl
  0003d	88 55 e9	 mov	 BYTE PTR __k$[ebp+1], dl
  00040	8a 50 02	 mov	 dl, BYTE PTR [eax+2]
  00043	84 d2		 test	 dl, dl
  00045	0f 84 1e 01 00
	00		 je	 $LN94@LoadString@2
  0004b	80 f2 eb	 xor	 dl, -21			; ffffffebH
  0004e	88 55 ea	 mov	 BYTE PTR __k$[ebp+2], dl
  00051	8a 50 03	 mov	 dl, BYTE PTR [eax+3]
  00054	84 d2		 test	 dl, dl
  00056	0f 84 07 01 00
	00		 je	 $LN93@LoadString@2
  0005c	80 f2 ea	 xor	 dl, -22			; ffffffeaH
  0005f	88 55 eb	 mov	 BYTE PTR __k$[ebp+3], dl
  00062	8a 50 04	 mov	 dl, BYTE PTR [eax+4]
  00065	84 d2		 test	 dl, dl
  00067	0f 84 f0 00 00
	00		 je	 $LN92@LoadString@2
  0006d	80 f2 ed	 xor	 dl, -19			; ffffffedH
  00070	88 55 ec	 mov	 BYTE PTR __k$[ebp+4], dl
  00073	8a 50 05	 mov	 dl, BYTE PTR [eax+5]
  00076	84 d2		 test	 dl, dl
  00078	0f 84 da 00 00
	00		 je	 $LN91@LoadString@2
  0007e	32 d1		 xor	 dl, cl
  00080	88 55 ed	 mov	 BYTE PTR __k$[ebp+5], dl
  00083	8a 50 06	 mov	 dl, BYTE PTR [eax+6]
  00086	84 d2		 test	 dl, dl
  00088	0f 84 c4 00 00
	00		 je	 $LN90@LoadString@2
  0008e	80 f2 eb	 xor	 dl, -21			; ffffffebH
  00091	88 55 ee	 mov	 BYTE PTR __k$[ebp+6], dl
  00094	8a 50 07	 mov	 dl, BYTE PTR [eax+7]
  00097	84 d2		 test	 dl, dl
  00099	0f 84 ad 00 00
	00		 je	 $LN89@LoadString@2
  0009f	80 f2 ea	 xor	 dl, -22			; ffffffeaH
  000a2	88 55 ef	 mov	 BYTE PTR __k$[ebp+7], dl
  000a5	8a 50 08	 mov	 dl, BYTE PTR [eax+8]
  000a8	84 d2		 test	 dl, dl
  000aa	0f 84 96 00 00
	00		 je	 $LN88@LoadString@2
  000b0	80 f2 ed	 xor	 dl, -19			; ffffffedH
  000b3	88 55 f0	 mov	 BYTE PTR __k$[ebp+8], dl
  000b6	8a 50 09	 mov	 dl, BYTE PTR [eax+9]
  000b9	84 d2		 test	 dl, dl
  000bb	0f 84 80 00 00
	00		 je	 $LN87@LoadString@2
  000c1	32 d1		 xor	 dl, cl
  000c3	88 55 f1	 mov	 BYTE PTR __k$[ebp+9], dl
  000c6	8a 50 0a	 mov	 dl, BYTE PTR [eax+10]
  000c9	84 d2		 test	 dl, dl
  000cb	74 6e		 je	 SHORT $LN86@LoadString@2
  000cd	80 f2 eb	 xor	 dl, -21			; ffffffebH
  000d0	88 55 f2	 mov	 BYTE PTR __k$[ebp+10], dl
  000d3	8a 50 0b	 mov	 dl, BYTE PTR [eax+11]
  000d6	84 d2		 test	 dl, dl
  000d8	74 5b		 je	 SHORT $LN85@LoadString@2
  000da	80 f2 ea	 xor	 dl, -22			; ffffffeaH
  000dd	80 78 0c 00	 cmp	 BYTE PTR [eax+12], 0
  000e1	88 55 f3	 mov	 BYTE PTR __k$[ebp+11], dl
  000e4	0f 84 8f 00 00
	00		 je	 $LN111@LoadString@2
  000ea	8a 50 0d	 mov	 dl, BYTE PTR [eax+13]
  000ed	84 d2		 test	 dl, dl
  000ef	74 3f		 je	 SHORT $LN83@LoadString@2
  000f1	32 d1		 xor	 dl, cl
  000f3	88 55 f5	 mov	 BYTE PTR __k$[ebp+13], dl
  000f6	8a 50 0e	 mov	 dl, BYTE PTR [eax+14]
  000f9	84 d2		 test	 dl, dl
  000fb	74 2d		 je	 SHORT $LN82@LoadString@2
  000fd	80 f2 eb	 xor	 dl, -21			; ffffffebH
