; Listing generated by Microsoft (R) Optimizing Compiler Version 16.00.30319.01 

	TITLE	D:\Lost Saga For Developer\Youtube\Tutorial\Source\src\LSClient\ioMultiFlyJumpBuff.cpp
	.686P
	.XMM
	include listing.inc
	.model	flat

INCLUDELIB MSVCRT
INCLUDELIB OLDNAMES

PUBLIC	?return1@@YAIXZ					; return1
; Function compile flags: /Ogsp
; File d:\lost saga for developer\youtube\tutorial\source\src\lsclient\stdafx.h
;	COMDAT ?return1@@YAIXZ
_TEXT	SEGMENT
?return1@@YAIXZ PROC					; return1, COMDAT

; 17   : 	__forceinline unsigned int return1() { __asm mov eax, 1 };

  00000	b8 01 00 00 00	 mov	 eax, 1
  00005	c3		 ret	 0
?return1@@YAIXZ ENDP					; return1
_TEXT	ENDS
PUBLIC	?GetState@ioBaseChar@@QBE?AW4CharState@@XZ	; ioBaseChar::GetState
; Function compile flags: /Ogsp
; File d:\lost saga for developer\youtube\tutorial\source\src\lsclient\iobasechar.h
;	COMDAT ?GetState@ioBaseChar@@QBE?AW4CharState@@XZ
_TEXT	SEGMENT
?GetState@ioBaseChar@@QBE?AW4CharState@@XZ PROC		; ioBaseChar::GetState, COMDAT
; _this$ = ecx

; 2156 : 	inline CharState GetState() const { return m_CharState; }	

  00000	8a 81 10 03 00
	00		 mov	 al, BYTE PTR [ecx+784]
  00006	c3		 ret	 0
?GetState@ioBaseChar@@QBE?AW4CharState@@XZ ENDP		; ioBaseChar::GetState
_TEXT	ENDS
PUBLIC	?GetUsedBuffFlyJump@ioBaseChar@@QBEHXZ		; ioBaseChar::GetUsedBuffFlyJump
; Function compile flags: /Ogsp
;	COMDAT ?GetUsedBuffFlyJump@ioBaseChar@@QBEHXZ
_TEXT	SEGMENT
?GetUsedBuffFlyJump@ioBaseChar@@QBEHXZ PROC		; ioBaseChar::GetUsedBuffFlyJump, COMDAT
; _this$ = ecx

; 2623 : 	inline int GetUsedBuffFlyJump() const { return m_UsedBuffFlyJump; }

  00000	8b 81 b0 0e 00
	00		 mov	 eax, DWORD PTR [ecx+3760]
  00006	c3		 ret	 0
?GetUsedBuffFlyJump@ioBaseChar@@QBEHXZ ENDP		; ioBaseChar::GetUsedBuffFlyJump
_TEXT	ENDS
PUBLIC	??_7bad_alloc@std@@6B@				; std::bad_alloc::`vftable'
PUBLIC	??0bad_alloc@std@@QAE@PBD@Z			; std::bad_alloc::bad_alloc
PUBLIC	??_R4bad_alloc@std@@6B@				; std::bad_alloc::`RTTI Complete Object Locator'
PUBLIC	??_R0?AVbad_alloc@std@@@8			; std::bad_alloc `RTTI Type Descriptor'
PUBLIC	??_R3bad_alloc@std@@8				; std::bad_alloc::`RTTI Class Hierarchy Descriptor'
PUBLIC	??_R2bad_alloc@std@@8				; std::bad_alloc::`RTTI Base Class Array'
PUBLIC	??_R1A@?0A@EA@bad_alloc@std@@8			; std::bad_alloc::`RTTI Base Class Descriptor at (0,-1,0,64)'
PUBLIC	??_R1A@?0A@EA@exception@std@@8			; std::exception::`RTTI Base Class Descriptor at (0,-1,0,64)'
PUBLIC	??_R0?AVexception@std@@@8			; std::exception `RTTI Type Descriptor'
PUBLIC	??_R3exception@std@@8				; std::exception::`RTTI Class Hierarchy Descriptor'
PUBLIC	??_R2exception@std@@8				; std::exception::`RTTI Base Class Array'
EXTRN	__imp_??0exception@std@@QAE@ABQBD@Z:PROC
EXTRN	??_7type_info@@6B@:QWORD			; type_info::`vftable'
EXTRN	??_Ebad_alloc@std@@UAEPAXI@Z:PROC		; std::bad_alloc::`vector deleting destructor'
EXTRN	?what@exception@std@@UBEPBDXZ:PROC		; std::exception::what
;	COMDAT ??_R2exception@std@@8
; File c:\program files (x86)\microsoft visual studio 10.0\vc\include\exception
rdata$r	SEGMENT
??_R2exception@std@@8 DD FLAT:??_R1A@?0A@EA@exception@std@@8 ; std::exception::`RTTI Base Class Array'
rdata$r	ENDS
;	COMDAT ??_R3exception@std@@8
rdata$r	SEGMENT
??_R3exception@std@@8 DD 00H				; std::exception::`RTTI Class Hierarchy Descriptor'
	DD	00H
	DD	01H
	DD	FLAT:??_R2exception@std@@8
rdata$r	ENDS
;	COMDAT ??_R0?AVexception@std@@@8
_DATA	SEGMENT
??_R0?AVexception@std@@@8 DD FLAT:??_7type_info@@6B@	; std::exception `RTTI Type Descriptor'
	DD	00H
	DB	'.?AVexception@std@@', 00H
_DATA	ENDS
;	COMDAT ??_R1A@?0A@EA@exception@std@@8
rdata$r	SEGMENT
??_R1A@?0A@EA@exception@std@@8 DD FLAT:??_R0?AVexception@std@@@8 ; std::exception::`RTTI Base Class Descriptor at (0,-1,0,64)'
	DD	00H
	DD	00H
	DD	0ffffffffH
	DD	00H
	DD	040H
	DD	FLAT:??_R3exception@std@@8
rdata$r	ENDS
;	COMDAT ??_R1A@?0A@EA@bad_alloc@std@@8
rdata$r	SEGMENT
??_R1A@?0A@EA@bad_alloc@std@@8 DD FLAT:??_R0?AVbad_alloc@std@@@8 ; std::bad_alloc::`RTTI Base Class Descriptor at (0,-1,0,64)'
	DD	01H
	DD	00H
	DD	0ffffffffH
	DD	00H
	DD	040H
	DD	FLAT:??_R3bad_alloc@std@@8
rdata$r	ENDS
;	COMDAT ??_R2bad_alloc@std@@8
rdata$r	SEGMENT
??_R2bad_alloc@std@@8 DD FLAT:??_R1A@?0A@EA@bad_alloc@std@@8 ; std::bad_alloc::`RTTI Base Class Array'
	DD	FLAT:??_R1A@?0A@EA@exception@std@@8
rdata$r	ENDS
;	COMDAT ??_R3bad_alloc@std@@8
rdata$r	SEGMENT
??_R3bad_alloc@std@@8 DD 00H				; std::bad_alloc::`RTTI Class Hierarchy Descriptor'
	DD	00H
	DD	02H
	DD	FLAT:??_R2bad_alloc@std@@8
rdata$r	ENDS
;	COMDAT ??_R0?AVbad_alloc@std@@@8
_DATA	SEGMENT
??_R0?AVbad_alloc@std@@@8 DD FLAT:??_7type_info@@6B@	; std::bad_alloc `RTTI Type Descriptor'
	DD	00H
	DB	'.?AVbad_alloc@std@@', 00H
_DATA	ENDS
;	COMDAT ??_R4bad_alloc@std@@6B@
rdata$r	SEGMENT
??_R4bad_alloc@std@@6B@ DD 00H				; std::bad_alloc::`RTTI Complete Object Locator'
	DD	00H
	DD	00H
	DD	FLAT:??_R0?AVbad_alloc@std@@@8
	DD	FLAT:??_R3bad_alloc@std@@8
rdata$r	ENDS
;	COMDAT ??_7bad_alloc@std@@6B@
CONST	SEGMENT
??_7bad_alloc@std@@6B@ DD FLAT:??_R4bad_alloc@std@@6B@	; std::bad_alloc::`vftable'
	DD	FLAT:??_Ebad_alloc@std@@UAEPAXI@Z
	DD	FLAT:?what@exception@std@@UBEPBDXZ
; Function compile flags: /Ogsp
CONST	ENDS
;	COMDAT ??0bad_alloc@std@@QAE@PBD@Z
_TEXT	SEGMENT
__Message$ = 8						; size = 4
??0bad_alloc@std@@QAE@PBD@Z PROC			; std::bad_alloc::bad_alloc, COMDAT
; _this$ = ecx

; 345  : 		{	// construct from message string

  00000	55		 push	 ebp
  00001	8b ec		 mov	 ebp, esp
  00003	56		 push	 esi
  00004	8d 45 08	 lea	 eax, DWORD PTR __Message$[ebp]
  00007	50		 push	 eax
  00008	8b f1		 mov	 esi, ecx
  0000a	ff 15 00 00 00
	00		 call	 DWORD PTR __imp_??0exception@std@@QAE@ABQBD@Z
  00010	c7 06 00 00 00
	00		 mov	 DWORD PTR [esi], OFFSET ??_7bad_alloc@std@@6B@

; 346  : 		}

  00016	8b c6		 mov	 eax, esi
  00018	5e		 pop	 esi
  00019	5d		 pop	 ebp
  0001a	c2 04 00	 ret	 4
??0bad_alloc@std@@QAE@PBD@Z ENDP			; std::bad_alloc::bad_alloc
_TEXT	ENDS
PUBLIC	??1bad_alloc@std@@UAE@XZ			; std::bad_alloc::~bad_alloc
EXTRN	__imp_??1exception@std@@UAE@XZ:PROC
; Function compile flags: /Ogsp
;	COMDAT ??1bad_alloc@std@@UAE@XZ
_TEXT	SEGMENT
??1bad_alloc@std@@UAE@XZ PROC				; std::bad_alloc::~bad_alloc, COMDAT
; _this$ = ecx

; 354  : 		{	// destroy the object

  00000	c7 01 00 00 00
	00		 mov	 DWORD PTR [ecx], OFFSET ??_7bad_alloc@std@@6B@

; 355  : 		}

  00006	ff 25 00 00 00
	00		 jmp	 DWORD PTR __imp_??1exception@std@@UAE@XZ
??1bad_alloc@std@@UAE@XZ ENDP				; std::bad_alloc::~bad_alloc
_TEXT	ENDS
EXTRN	??3@YAXPAX@Z:PROC				; operator delete
; Function compile flags: /Ogsp
;	COMDAT ??_Gbad_alloc@std@@UAEPAXI@Z
_TEXT	SEGMENT
___flags$ = 8						; size = 4
??_Gbad_alloc@std@@UAEPAXI@Z PROC			; std::bad_alloc::`scalar deleting destructor', COMDAT
; _this$ = ecx
  00000	55		 push	 ebp
  00001	8b ec		 mov	 ebp, esp
  00003	56		 push	 esi
  00004	8b f1		 mov	 esi, ecx
  00006	c7 06 00 00 00
	00		 mov	 DWORD PTR [esi], OFFSET ??_7bad_alloc@std@@6B@
  0000c	ff 15 00 00 00
	00		 call	 DWORD PTR __imp_??1exception@std@@UAE@XZ
  00012	f6 45 08 01	 test	 BYTE PTR ___flags$[ebp], 1
  00016	74 07		 je	 SHORT $LN1@scalar
  00018	56		 push	 esi
  00019	e8 00 00 00 00	 call	 ??3@YAXPAX@Z		; operator delete
  0001e	59		 pop	 ecx
$LN1@scalar:
  0001f	8b c6		 mov	 eax, esi
  00021	5e		 pop	 esi
  00022	5d		 pop	 ebp
  00023	c2 04 00	 ret	 4
??_Gbad_alloc@std@@UAEPAXI@Z ENDP			; std::bad_alloc::`scalar deleting destructor'
_TEXT	ENDS
PUBLIC	??2@YAPAXIPAX@Z					; operator new
; Function compile flags: /Ogsp
; File c:\program files (x86)\microsoft visual studio 10.0\vc\include\new
;	COMDAT ??2@YAPAXIPAX@Z
_TEXT	SEGMENT
___formal$ = 8						; size = 4
__Where$ = 12						; size = 4
??2@YAPAXIPAX@Z PROC					; operator new, COMDAT

; 56   : 	{	// construct array with placement at _Where

  00000	55		 push	 ebp
  00001	8b ec		 mov	 ebp, esp

; 57   : 	return (_Where);

  00003	8b 45 0c	 mov	 eax, DWORD PTR __Where$[ebp]

; 58   : 	}

  00006	5d		 pop	 ebp
  00007	c3		 ret	 0
??2@YAPAXIPAX@Z ENDP					; operator new
_TEXT	ENDS
PUBLIC	??3@YAXPAX0@Z					; operator delete
; Function compile flags: /Ogsp
;	COMDAT ??3@YAXPAX0@Z
_TEXT	SEGMENT
___formal$ = 8						; size = 4
___formal$ = 12						; size = 4
??3@YAXPAX0@Z PROC					; operator delete, COMDAT

; 62   : 	}

  00000	c3		 ret	 0
??3@YAXPAX0@Z ENDP					; operator delete
_TEXT	ENDS
PUBLIC	?IsCanJumpAttack@ioMultiFlyJumpBuff@@UBE_NXZ	; ioMultiFlyJumpBuff::IsCanJumpAttack
; Function compile flags: /Ogsp
; File d:\lost saga for developer\youtube\tutorial\source\src\lsclient\iomultiflyjumpbuff.cpp
;	COMDAT ?IsCanJumpAttack@ioMultiFlyJumpBuff@@UBE_NXZ
_TEXT	SEGMENT
?IsCanJumpAttack@ioMultiFlyJumpBuff@@UBE_NXZ PROC	; ioMultiFlyJumpBuff::IsCanJumpAttack, COMDAT
; _this$ = ecx

; 207  : 	return m_bJumpAttack;

  00000	8a 81 bc 09 00
	00		 mov	 al, BYTE PTR [ecx+2492]

; 208  : }

  00006	c3		 ret	 0
?IsCanJumpAttack@ioMultiFlyJumpBuff@@UBE_NXZ ENDP	; ioMultiFlyJumpBuff::IsCanJumpAttack
_TEXT	ENDS
PUBLIC	?OnReduceGauge@ioMultiFlyJumpBuff@@UBE_NXZ	; ioMultiFlyJumpBuff::OnReduceGauge
; Function compile flags: /Ogsp
;	COMDAT ?OnReduceGauge@ioMultiFlyJumpBuff@@UBE_NXZ
_TEXT	SEGMENT
?OnReduceGauge@ioMultiFlyJumpBuff@@UBE_NXZ PROC		; ioMultiFlyJumpBuff::OnReduceGauge, COMDAT
; _this$ = ecx

; 221  : 	return m_bReduceGauge;

  00000	8a 81 20 0a 00
	00		 mov	 al, BYTE PTR [ecx+2592]

; 222  : }

  00006	c3		 ret	 0
?OnReduceGauge@ioMultiFlyJumpBuff@@UBE_NXZ ENDP		; ioMultiFlyJumpBuff::OnReduceGauge
_TEXT	ENDS
PUBLIC	?_Adopt@_Iterator_base0@std@@QAEXPBX@Z		; std::_Iterator_base0::_Adopt
; Function compile flags: /Ogsp
; File c:\program files (x86)\microsoft visual studio 10.0\vc\include\xutility
;	COMDAT ?_Adopt@_Iterator_base0@std@@QAEXPBX@Z
_TEXT	SEGMENT
___formal$ = 8						; size = 4
?_Adopt@_Iterator_base0@std@@QAEXPBX@Z PROC		; std::_Iterator_base0::_Adopt, COMDAT
; _this$ = ecx

; 49   : 		}

  00000	c2 04 00	 ret	 4
?_Adopt@_Iterator_base0@std@@QAEXPBX@Z ENDP		; std::_Iterator_base0::_Adopt
_TEXT	ENDS
PUBLIC	??A?$vector@VioHashString@@V?$allocator@VioHashString@@@std@@@std@@QBEABVioHashString@@I@Z ; std::vector<ioHashString,std::allocator<ioHashString> >::operator[]
; Function compile flags: /Ogsp
; File c:\program files (x86)\microsoft visual studio 10.0\vc\include\vector
;	COMDAT ??A?$vector@VioHashString@@V?$allocator@VioHashString@@@std@@@std@@QBEABVioHashString@@I@Z
_TEXT	SEGMENT
__Pos$ = 8						; size = 4
??A?$vector@VioHashString@@V?$allocator@VioHashString@@@std@@@std@@QBEABVioHashString@@I@Z PROC ; std::vector<ioHashString,std::allocator<ioHashString> >::operator[], COMDAT
; _this$ = ecx

; 912  : 		{	// subscript nonmutable sequence

  00000	55		 push	 ebp
  00001	8b ec		 mov	 ebp, esp

; 913  :  #if _ITERATOR_DEBUG_LEVEL == 2
; 914  : 		if (size() <= _Pos)
; 915  : 			{	// report error
; 916  : 			_DEBUG_ERROR("vector subscript out of range");
; 917  : 			_SCL_SECURE_OUT_OF_RANGE;
; 918  : 			}
; 919  : 
; 920  :  #elif _ITERATOR_DEBUG_LEVEL == 1
; 921  : 		_SCL_SECURE_VALIDATE_RANGE(_Pos < size());
; 922  :  #endif /* _ITERATOR_DEBUG_LEVEL */
; 923  : 
; 924  : 		return (*(this->_Myfirst + _Pos));

  00003	8b 45 08	 mov	 eax, DWORD PTR __Pos$[ebp]
  00006	c1 e0 04	 shl	 eax, 4
  00009	03 01		 add	 eax, DWORD PTR [ecx]

; 925  : 		}

  0000b	5d		 pop	 ebp
  0000c	c2 04 00	 ret	 4
??A?$vector@VioHashString@@V?$allocator@VioHashString@@@std@@@std@@QBEABVioHashString@@I@Z ENDP ; std::vector<ioHashString,std::allocator<ioHashString> >::operator[]
_TEXT	ENDS
PUBLIC	??A?$vector@UCharBuffJumpInfo@@V?$allocator@UCharBuffJumpInfo@@@std@@@std@@QBEABUCharBuffJumpInfo@@I@Z ; std::vector<CharBuffJumpInfo,std::allocator<CharBuffJumpInfo> >::operator[]
; Function compile flags: /Ogsp
;	COMDAT ??A?$vector@UCharBuffJumpInfo@@V?$allocator@UCharBuffJumpInfo@@@std@@@std@@QBEABUCharBuffJumpInfo@@I@Z
_TEXT	SEGMENT
__Pos$ = 8						; size = 4
??A?$vector@UCharBuffJumpInfo@@V?$allocator@UCharBuffJumpInfo@@@std@@@std@@QBEABUCharBuffJumpInfo@@I@Z PROC ; std::vector<CharBuffJumpInfo,std::allocator<CharBuffJumpInfo> >::operator[], COMDAT
; _this$ = ecx

; 912  : 		{	// subscript nonmutable sequence

  00000	55		 push	 ebp
  00001	8b ec		 mov	 ebp, esp

; 913  :  #if _ITERATOR_DEBUG_LEVEL == 2
; 914  : 		if (size() <= _Pos)
; 915  : 			{	// report error
; 916  : 			_DEBUG_ERROR("vector subscript out of range");
; 917  : 			_SCL_SECURE_OUT_OF_RANGE;
; 918  : 			}
; 919  : 
; 920  :  #elif _ITERATOR_DEBUG_LEVEL == 1
; 921  : 		_SCL_SECURE_VALIDATE_RANGE(_Pos < size());
; 922  :  #endif /* _ITERATOR_DEBUG_LEVEL */
; 923  : 
; 924  : 		return (*(this->_Myfirst + _Pos));

  00003	8b 45 08	 mov	 eax, DWORD PTR __Pos$[ebp]
  00006	6b c0 78	 imul	 eax, 120		; 00000078H
  00009	03 01		 add	 eax, DWORD PTR [ecx]

; 925  : 		}

  0000b	5d		 pop	 ebp
  0000c	c2 04 00	 ret	 4
??A?$vector@UCharBuffJumpInfo@@V?$allocator@UCharBuffJumpInfo@@@std@@@std@@QBEABUCharBuffJumpInfo@@I@Z ENDP ; std::vector<CharBuffJumpInfo,std::allocator<CharBuffJumpInfo> >::operator[]
_TEXT	ENDS
PUBLIC	?capacity@?$vector@VioHashString@@V?$allocator@VioHashString@@@std@@@std@@QBEIXZ ; std::vector<ioHashString,std::allocator<ioHashString> >::capacity
; Function compile flags: /Ogsp
;	COMDAT ?capacity@?$vector@VioHashString@@V?$allocator@VioHashString@@@std@@@std@@QBEIXZ
_TEXT	SEGMENT
?capacity@?$vector@VioHashString@@V?$allocator@VioHashString@@@std@@@std@@QBEIXZ PROC ; std::vector<ioHashString,std::allocator<ioHashString> >::capacity, COMDAT
; _this$ = ecx

; 777  : 		return (this->_Myend - this->_Myfirst);

  00000	8b 41 08	 mov	 eax, DWORD PTR [ecx+8]
  00003	2b 01		 sub	 eax, DWORD PTR [ecx]
  00005	c1 f8 04	 sar	 eax, 4

; 778  : 		}

  00008	c3		 ret	 0
?capacity@?$vector@VioHashString@@V?$allocator@VioHashString@@@std@@@std@@QBEIXZ ENDP ; std::vector<ioHashString,std::allocator<ioHashString> >::capacity
_TEXT	ENDS
PUBLIC	?_Inside@?$vector@VioHashString@@V?$allocator@VioHashString@@@std@@@std@@IBE_NPBVioHashString@@@Z ; std::vector<ioHashString,std::allocator<ioHashString> >::_Inside
; Function compile flags: /Ogsp
;	COMDAT ?_Inside@?$vector@VioHashString@@V?$allocator@VioHashString@@@std@@@std@@IBE_NPBVioHashString@@@Z
_TEXT	SEGMENT
__Ptr$ = 8						; size = 4
?_Inside@?$vector@VioHashString@@V?$allocator@VioHashString@@@std@@@std@@IBE_NPBVioHashString@@@Z PROC ; std::vector<ioHashString,std::allocator<ioHashString> >::_Inside, COMDAT
; _this$ = ecx

; 1285 : 		{	// test if _Ptr points inside vector

  00000	55		 push	 ebp
  00001	8b ec		 mov	 ebp, esp

; 1286 : 		return (_Ptr < this->_Mylast && this->_Myfirst <= _Ptr);

  00003	8b 45 08	 mov	 eax, DWORD PTR __Ptr$[ebp]
  00006	3b 41 04	 cmp	 eax, DWORD PTR [ecx+4]
  00009	73 09		 jae	 SHORT $LN3@Inside
  0000b	39 01		 cmp	 DWORD PTR [ecx], eax
  0000d	77 05		 ja	 SHORT $LN3@Inside
  0000f	33 c0		 xor	 eax, eax
  00011	40		 inc	 eax
  00012	eb 02		 jmp	 SHORT $LN4@Inside
$LN3@Inside:
  00014	33 c0		 xor	 eax, eax
$LN4@Inside:

; 1287 : 		}

  00016	5d		 pop	 ebp
  00017	c2 04 00	 ret	 4
?_Inside@?$vector@VioHashString@@V?$allocator@VioHashString@@@std@@@std@@IBE_NPBVioHashString@@@Z ENDP ; std::vector<ioHashString,std::allocator<ioHashString> >::_Inside
_TEXT	ENDS
PUBLIC	?_Orphan_range@?$vector@VioHashString@@V?$allocator@VioHashString@@@std@@@std@@IBEXPAVioHashString@@0@Z ; std::vector<ioHashString,std::allocator<ioHashString> >::_Orphan_range
; Function compile flags: /Ogsp
;	COMDAT ?_Orphan_range@?$vector@VioHashString@@V?$allocator@VioHashString@@@std@@@std@@IBEXPAVioHashString@@0@Z
_TEXT	SEGMENT
___formal$ = 8						; size = 4
___formal$ = 12						; size = 4
?_Orphan_range@?$vector@VioHashString@@V?$allocator@VioHashString@@@std@@@std@@IBEXPAVioHashString@@0@Z PROC ; std::vector<ioHashString,std::allocator<ioHashString> >::_Orphan_range, COMDAT
; _this$ = ecx

; 1454 : 		}

  00000	c2 08 00	 ret	 8
?_Orphan_range@?$vector@VioHashString@@V?$allocator@VioHashString@@@std@@@std@@IBEXPAVioHashString@@0@Z ENDP ; std::vector<ioHashString,std::allocator<ioHashString> >::_Orphan_range
_TEXT	ENDS
PUBLIC	?DecryptValueToPool@?$CEncrypt@W4JumpState@@@@QAEXPAW4JumpState@@@Z ; CEncrypt<enum JumpState>::DecryptValueToPool
EXTRN	?DecryptByte@ccddaabb@@QBEXPBDPADH@Z:PROC	; ccddaabb::DecryptByte
; Function compile flags: /Ogsp
; File d:\lost saga for developer\youtube\tutorial\source\src\lsclient\encryptvalue.h
;	COMDAT ?DecryptValueToPool@?$CEncrypt@W4JumpState@@@@QAEXPAW4JumpState@@@Z
_TEXT	SEGMENT
_value$ = 8						; size = 4
?DecryptValueToPool@?$CEncrypt@W4JumpState@@@@QAEXPAW4JumpState@@@Z PROC ; CEncrypt<enum JumpState>::DecryptValueToPool, COMDAT
; _this$ = ecx

; 2317 : 	{

  00000	55		 push	 ebp
  00001	8b ec		 mov	 ebp, esp
  00003	56		 push	 esi

; 2318 : 		m_RC5.DecryptByte( m_MemPool, m_TempMem, sizeof(JumpState) );

  00004	8d 71 28	 lea	 esi, DWORD PTR [ecx+40]
  00007	6a 04		 push	 4
  00009	8d 41 1c	 lea	 eax, DWORD PTR [ecx+28]
  0000c	56		 push	 esi
  0000d	50		 push	 eax
  0000e	83 c1 0c	 add	 ecx, 12			; 0000000cH
  00011	e8 00 00 00 00	 call	 ?DecryptByte@ccddaabb@@QBEXPBDPADH@Z ; ccddaabb::DecryptByte

; 2319 : 		*value = *((JumpState*)m_TempMem);

  00016	8b 06		 mov	 eax, DWORD PTR [esi]
  00018	8b 4d 08	 mov	 ecx, DWORD PTR _value$[ebp]
  0001b	89 01		 mov	 DWORD PTR [ecx], eax
  0001d	5e		 pop	 esi

; 2320 : 	}

  0001e	5d		 pop	 ebp
  0001f	c2 04 00	 ret	 4
?DecryptValueToPool@?$CEncrypt@W4JumpState@@@@QAEXPAW4JumpState@@@Z ENDP ; CEncrypt<enum JumpState>::DecryptValueToPool
_TEXT	ENDS
PUBLIC	??$addressof@VioHashString@@@std@@YAPAVioHashString@@AAV1@@Z ; std::addressof<ioHashString>
; Function compile flags: /Ogsp
; File c:\program files (x86)\microsoft visual studio 10.0\vc\include\xmemory
;	COMDAT ??$addressof@VioHashString@@@std@@YAPAVioHashString@@AAV1@@Z
_TEXT	SEGMENT
__Val$ = 8						; size = 4
??$addressof@VioHashString@@@std@@YAPAVioHashString@@AAV1@@Z PROC ; std::addressof<ioHashString>, COMDAT

; 110  : 	{	// return address of _Val

  00000	55		 push	 ebp
  00001	8b ec		 mov	 ebp, esp

; 111  : 	return ((_Ty *) &(char&)_Val);

  00003	8b 45 08	 mov	 eax, DWORD PTR __Val$[ebp]

; 112  : 	}

  00006	5d		 pop	 ebp
  00007	c3		 ret	 0
??$addressof@VioHashString@@@std@@YAPAVioHashString@@AAV1@@Z ENDP ; std::addressof<ioHashString>
_TEXT	ENDS
PUBLIC	??$forward@VioHashString@@@std@@YA$$QAVioHashString@@AAV1@@Z ; std::forward<ioHashString>
; Function compile flags: /Ogsp
; File c:\program files (x86)\microsoft visual studio 10.0\vc\include\utility
;	COMDAT ??$forward@VioHashString@@@std@@YA$$QAVioHashString@@AAV1@@Z
_TEXT	SEGMENT
__Arg$ = 8						; size = 4
??$forward@VioHashString@@@std@@YA$$QAVioHashString@@AAV1@@Z PROC ; std::forward<ioHashString>, COMDAT

; 78   : 	{	// forward _Arg, given explicitly specified type parameter

  00000	55		 push	 ebp
  00001	8b ec		 mov	 ebp, esp

; 79   : 	return ((_Ty&&)_Arg);

  00003	8b 45 08	 mov	 eax, DWORD PTR __Arg$[ebp]

; 80   : 	}

  00006	5d		 pop	 ebp
  00007	c3		 ret	 0
??$forward@VioHashString@@@std@@YA$$QAVioHashString@@AAV1@@Z ENDP ; std::forward<ioHashString>
_TEXT	ENDS
PUBLIC	??$addressof@$$CBVioHashString@@@std@@YAPBVioHashString@@ABV1@@Z ; std::addressof<ioHashString const >
; Function compile flags: /Ogsp
; File c:\program files (x86)\microsoft visual studio 10.0\vc\include\xmemory
;	COMDAT ??$addressof@$$CBVioHashString@@@std@@YAPBVioHashString@@ABV1@@Z
_TEXT	SEGMENT
__Val$ = 8						; size = 4
??$addressof@$$CBVioHashString@@@std@@YAPBVioHashString@@ABV1@@Z PROC ; std::addressof<ioHashString const >, COMDAT

; 110  : 	{	// return address of _Val

  00000	55		 push	 ebp
  00001	8b ec		 mov	 ebp, esp

; 111  : 	return ((_Ty *) &(char&)_Val);

  00003	8b 45 08	 mov	 eax, DWORD PTR __Val$[ebp]

; 112  : 	}

  00006	5d		 pop	 ebp
  00007	c3		 ret	 0
??$addressof@$$CBVioHashString@@@std@@YAPBVioHashString@@ABV1@@Z ENDP ; std::addressof<ioHashString const >
_TEXT	ENDS
PUBLIC	?construct@?$allocator@VioHashString@@@std@@QAEXPAVioHashString@@$$QAV3@@Z ; std::allocator<ioHashString>::construct
EXTRN	__imp_??0ioHashString@@QAE@ABV0@@Z:PROC
EXTRN	___CxxFrameHandler3:PROC
EXTRN	@__security_check_cookie@4:PROC
EXTRN	__EH_epilog3:PROC
EXTRN	__EH_prolog3:PROC
;	COMDAT xdata$x
; File c:\program files (x86)\microsoft visual studio 10.0\vc\include\utility
xdata$x	SEGMENT
__unwindtable$?construct@?$allocator@VioHashString@@@std@@QAEXPAVioHashString@@$$QAV3@@Z DD 0ffffffffH
	DD	FLAT:__unwindfunclet$?construct@?$allocator@VioHashString@@@std@@QAEXPAVioHashString@@$$QAV3@@Z$0
__ehfuncinfo$?construct@?$allocator@VioHashString@@@std@@QAEXPAVioHashString@@$$QAV3@@Z DD 019930522H
	DD	01H
	DD	FLAT:__unwindtable$?construct@?$allocator@VioHashString@@@std@@QAEXPAVioHashString@@$$QAV3@@Z
	DD	2 DUP(00H)
	DD	2 DUP(00H)
	DD	00H
	DD	01H
; Function compile flags: /Ogsp
; File c:\program files (x86)\microsoft visual studio 10.0\vc\include\xmemory
xdata$x	ENDS
;	COMDAT ?construct@?$allocator@VioHashString@@@std@@QAEXPAVioHashString@@$$QAV3@@Z
_TEXT	SEGMENT
$T527582 = -16						; size = 4
__$EHRec$ = -12						; size = 12
__Ptr$ = 8						; size = 4
__Val$ = 12						; size = 4
?construct@?$allocator@VioHashString@@@std@@QAEXPAVioHashString@@$$QAV3@@Z PROC ; std::allocator<ioHashString>::construct, COMDAT
; _this$ = ecx

; 201  : 		{	// construct object at _Ptr with value _Val

  00000	6a 04		 push	 4
  00002	b8 00 00 00 00	 mov	 eax, __ehhandler$?construct@?$allocator@VioHashString@@@std@@QAEXPAVioHashString@@$$QAV3@@Z
  00007	e8 00 00 00 00	 call	 __EH_prolog3

; 202  : 		::new ((void _FARQ *)_Ptr) _Ty(_STD forward<_Ty>(_Val));

  0000c	8b 4d 08	 mov	 ecx, DWORD PTR __Ptr$[ebp]
  0000f	89 4d f0	 mov	 DWORD PTR $T527582[ebp], ecx
  00012	83 65 fc 00	 and	 DWORD PTR __$EHRec$[ebp+8], 0
  00016	85 c9		 test	 ecx, ecx
  00018	74 09		 je	 SHORT $LN3@construct
  0001a	ff 75 0c	 push	 DWORD PTR __Val$[ebp]
  0001d	ff 15 00 00 00
	00		 call	 DWORD PTR __imp_??0ioHashString@@QAE@ABV0@@Z
$LN3@construct:

; 203  : 		}

  00023	e8 00 00 00 00	 call	 __EH_epilog3
  00028	c2 08 00	 ret	 8
_TEXT	ENDS
;	COMDAT text$x
text$x	SEGMENT
__unwindfunclet$?construct@?$allocator@VioHashString@@@std@@QAEXPAVioHashString@@$$QAV3@@Z$0:
  00000	ff 75 08	 push	 DWORD PTR __Ptr$[ebp]
  00003	ff 75 f0	 push	 DWORD PTR $T527582[ebp]
  00006	e8 00 00 00 00	 call	 ??3@YAXPAX0@Z		; operator delete
  0000b	59		 pop	 ecx
  0000c	59		 pop	 ecx
  0000d	c3		 ret	 0
__ehhandler$?construct@?$allocator@VioHashString@@@std@@QAEXPAVioHashString@@$$QAV3@@Z:
  0000e	8b 54 24 08	 mov	 edx, DWORD PTR [esp+8]
  00012	8d 42 0c	 lea	 eax, DWORD PTR [edx+12]
  00015	8b 4a ec	 mov	 ecx, DWORD PTR [edx-20]
  00018	33 c8		 xor	 ecx, eax
  0001a	e8 00 00 00 00	 call	 @__security_check_cookie@4
  0001f	b8 00 00 00 00	 mov	 eax, OFFSET __ehfuncinfo$?construct@?$allocator@VioHashString@@@std@@QAEXPAVioHashString@@$$QAV3@@Z
  00024	e9 00 00 00 00	 jmp	 ___CxxFrameHandler3
text$x	ENDS
?construct@?$allocator@VioHashString@@@std@@QAEXPAVioHashString@@$$QAV3@@Z ENDP ; std::allocator<ioHashString>::construct
PUBLIC	??$_Copy_impl@PAVioHashString@@PAV1@@std@@YAPAVioHashString@@PAV1@00U_Nonscalar_ptr_iterator_tag@0@@Z ; std::_Copy_impl<ioHashString *,ioHashString *>
EXTRN	__imp_??4ioHashString@@QAEAAV0@ABV0@@Z:PROC
; Function compile flags: /Ogsp
; File c:\program files (x86)\microsoft visual studio 10.0\vc\include\xutility
;	COMDAT ??$_Copy_impl@PAVioHashString@@PAV1@@std@@YAPAVioHashString@@PAV1@00U_Nonscalar_ptr_iterator_tag@0@@Z
_TEXT	SEGMENT
__First$ = 8						; size = 4
__Last$ = 12						; size = 4
__Dest$ = 16						; size = 4
___formal$ = 20						; size = 1
??$_Copy_impl@PAVioHashString@@PAV1@@std@@YAPAVioHashString@@PAV1@00U_Nonscalar_ptr_iterator_tag@0@@Z PROC ; std::_Copy_impl<ioHashString *,ioHashString *>, COMDAT

; 2142 : 	{	// copy [_First, _Last) to [_Dest, ...), arbitrary iterators

  00000	55		 push	 ebp
  00001	8b ec		 mov	 ebp, esp
  00003	56		 push	 esi

; 2143 : 	for (; _First != _Last; ++_Dest, ++_First)

  00004	8b 75 08	 mov	 esi, DWORD PTR __First$[ebp]
  00007	eb 11		 jmp	 SHORT $LN9@Copy_impl
$LL3@Copy_impl:

; 2144 : 		*_Dest = *_First;

  00009	8b 4d 10	 mov	 ecx, DWORD PTR __Dest$[ebp]
  0000c	56		 push	 esi
  0000d	ff 15 00 00 00
	00		 call	 DWORD PTR __imp_??4ioHashString@@QAEAAV0@ABV0@@Z
  00013	83 45 10 10	 add	 DWORD PTR __Dest$[ebp], 16 ; 00000010H
  00017	83 c6 10	 add	 esi, 16			; 00000010H
$LN9@Copy_impl:

; 2143 : 	for (; _First != _Last; ++_Dest, ++_First)

  0001a	3b 75 0c	 cmp	 esi, DWORD PTR __Last$[ebp]
  0001d	75 ea		 jne	 SHORT $LL3@Copy_impl

; 2145 : 	return (_Dest);

  0001f	8b 45 10	 mov	 eax, DWORD PTR __Dest$[ebp]
  00022	5e		 pop	 esi

; 2146 : 	}

  00023	5d		 pop	 ebp
  00024	c3		 ret	 0
??$_Copy_impl@PAVioHashString@@PAV1@@std@@YAPAVioHashString@@PAV1@00U_Nonscalar_ptr_iterator_tag@0@@Z ENDP ; std::_Copy_impl<ioHashString *,ioHashString *>
_TEXT	ENDS
PUBLIC	??$_Val_type@PAVioHashString@@@std@@YAPAVioHashString@@PAV1@@Z ; std::_Val_type<ioHashString *>
; Function compile flags: /Ogsp
;	COMDAT ??$_Val_type@PAVioHashString@@@std@@YAPAVioHashString@@PAV1@@Z
_TEXT	SEGMENT
___formal$ = 8						; size = 4
??$_Val_type@PAVioHashString@@@std@@YAPAVioHashString@@PAV1@@Z PROC ; std::_Val_type<ioHashString *>, COMDAT

; 790  : 	return (0);

  00000	33 c0		 xor	 eax, eax

; 791  : 	}

  00002	c3		 ret	 0
??$_Val_type@PAVioHashString@@@std@@YAPAVioHashString@@PAV1@@Z ENDP ; std::_Val_type<ioHashString *>
_TEXT	ENDS
PUBLIC	?_DECSTR@@YAXPADH@Z				; _DECSTR
; Function compile flags: /Ogsp
; File d:\lost saga for developer\youtube\tutorial\source\src\lsclient\stringprotect.h
;	COMDAT ?_DECSTR@@YAXPADH@Z
_TEXT	SEGMENT
_s$ = 8							; size = 4
_l$ = 12						; size = 4
?_DECSTR@@YAXPADH@Z PROC				; _DECSTR, COMDAT

; 40   : __forceinline void _DECSTR(char* s, int l){int i=0,l4=(l-1)/4,*p=(int*)s;s[l-1]=0;for(;i<l4;++i)*(p++)^=0xEAEBECED;for(i=l4*4;i<l-1;++i)s[i]^=0xED-i%4;}

  00000	55		 push	 ebp
  00001	8b ec		 mov	 ebp, esp
  00003	8b 4d 0c	 mov	 ecx, DWORD PTR _l$[ebp]
  00006	56		 push	 esi
  00007	8b 75 08	 mov	 esi, DWORD PTR _s$[ebp]
  0000a	57		 push	 edi
  0000b	8d 79 ff	 lea	 edi, DWORD PTR [ecx-1]
  0000e	8b c7		 mov	 eax, edi
  00010	99		 cdq
  00011	83 e2 03	 and	 edx, 3
  00014	03 c2		 add	 eax, edx
  00016	c1 f8 02	 sar	 eax, 2
  00019	8b d6		 mov	 edx, esi
  0001b	c6 44 0e ff 00	 mov	 BYTE PTR [esi+ecx-1], 0
  00020	85 c0		 test	 eax, eax
  00022	7e 0e		 jle	 SHORT $LN4@DECSTR
  00024	8b c8		 mov	 ecx, eax
$LL6@DECSTR:
  00026	81 32 ed ec eb
	ea		 xor	 DWORD PTR [edx], -353637139 ; eaebecedH
  0002c	83 c2 04	 add	 edx, 4
  0002f	49		 dec	 ecx
  00030	75 f4		 jne	 SHORT $LL6@DECSTR
$LN4@DECSTR:
  00032	c1 e0 02	 shl	 eax, 2
  00035	eb 17		 jmp	 SHORT $LN14@DECSTR
$LL3@DECSTR:
  00037	8b c8		 mov	 ecx, eax
  00039	81 e1 03 00 00
	80		 and	 ecx, -2147483645	; 80000003H
  0003f	79 05		 jns	 SHORT $LN13@DECSTR
  00041	49		 dec	 ecx
  00042	83 c9 fc	 or	 ecx, -4			; fffffffcH
  00045	41		 inc	 ecx
$LN13@DECSTR:
  00046	b2 ed		 mov	 dl, -19			; ffffffedH
  00048	2a d1		 sub	 dl, cl
  0004a	30 14 30	 xor	 BYTE PTR [eax+esi], dl
  0004d	40		 inc	 eax
$LN14@DECSTR:
  0004e	3b c7		 cmp	 eax, edi
  00050	7c e5		 jl	 SHORT $LL3@DECSTR
  00052	5f		 pop	 edi
  00053	5e		 pop	 esi
  00054	5d		 pop	 ebp
  00055	c3		 ret	 0
?_DECSTR@@YAXPADH@Z ENDP				; _DECSTR
_TEXT	ENDS
PUBLIC	?GetName@ioSkill@@QBEABVioHashString@@XZ	; ioSkill::GetName
; Function compile flags: /Ogsp
; File d:\lost saga for developer\youtube\tutorial\source\src\lsclient\ioskill.h
;	COMDAT ?GetName@ioSkill@@QBEABVioHashString@@XZ
_TEXT	SEGMENT
?GetName@ioSkill@@QBEABVioHashString@@XZ PROC		; ioSkill::GetName, COMDAT
; _this$ = ecx

; 414  : 	inline const ioHashString& GetName() const { return m_Name; }

  00000	8d 41 24	 lea	 eax, DWORD PTR [ecx+36]
  00003	c3		 ret	 0
?GetName@ioSkill@@QBEABVioHashString@@XZ ENDP		; ioSkill::GetName
_TEXT	ENDS
PUBLIC	??_R0?AVioSkill@@@8				; ioSkill `RTTI Type Descriptor'
PUBLIC	??_R0?AVioPassiveSkill@@@8			; ioPassiveSkill `RTTI Type Descriptor'
PUBLIC	?ToPassiveSkill@@YAPAVioPassiveSkill@@PAVioSkill@@@Z ; ToPassiveSkill
EXTRN	___RTDynamicCast:PROC
;	COMDAT ??_R0?AVioSkill@@@8
; File d:\lost saga for developer\youtube\tutorial\source\src\lsclient\iopassiveskill.h
_DATA	SEGMENT
??_R0?AVioSkill@@@8 DD FLAT:??_7type_info@@6B@		; ioSkill `RTTI Type Descriptor'
	DD	00H
	DB	'.?AVioSkill@@', 00H
_DATA	ENDS
;	COMDAT ??_R0?AVioPassiveSkill@@@8
_DATA	SEGMENT
??_R0?AVioPassiveSkill@@@8 DD FLAT:??_7type_info@@6B@	; ioPassiveSkill `RTTI Type Descriptor'
	DD	00H
	DB	'.?AVioPassiveSkill@@', 00H
; Function compile flags: /Ogsp
_DATA	ENDS
;	COMDAT ?ToPassiveSkill@@YAPAVioPassiveSkill@@PAVioSkill@@@Z
_TEXT	SEGMENT
_pSkill$ = 8						; size = 4
?ToPassiveSkill@@YAPAVioPassiveSkill@@PAVioSkill@@@Z PROC ; ToPassiveSkill, COMDAT

; 200  : {

  00000	55		 push	 ebp
  00001	8b ec		 mov	 ebp, esp
  00003	56		 push	 esi

; 201  : 	if( !pSkill || pSkill->GetTypeID() != ST_PASSIVE )

  00004	8b 75 08	 mov	 esi, DWORD PTR _pSkill$[ebp]
  00007	85 f6		 test	 esi, esi
  00009	74 25		 je	 SHORT $LN1@ToPassiveS
  0000b	8b 06		 mov	 eax, DWORD PTR [esi]
  0000d	8b ce		 mov	 ecx, esi
  0000f	ff 50 08	 call	 DWORD PTR [eax+8]
  00012	83 f8 04	 cmp	 eax, 4
  00015	75 19		 jne	 SHORT $LN1@ToPassiveS

; 203  : 	
; 204  : 	return dynamic_cast< ioPassiveSkill* >( pSkill );

  00017	6a 00		 push	 0
  00019	68 00 00 00 00	 push	 OFFSET ??_R0?AVioPassiveSkill@@@8
  0001e	68 00 00 00 00	 push	 OFFSET ??_R0?AVioSkill@@@8
  00023	6a 00		 push	 0
  00025	56		 push	 esi
  00026	e8 00 00 00 00	 call	 ___RTDynamicCast
  0002b	83 c4 14	 add	 esp, 20			; 00000014H
  0002e	eb 02		 jmp	 SHORT $LN3@ToPassiveS
$LN1@ToPassiveS:

; 202  : 		return NULL;

  00030	33 c0		 xor	 eax, eax
$LN3@ToPassiveS:
  00032	5e		 pop	 esi

; 205  : }

  00033	5d		 pop	 ebp
  00034	c3		 ret	 0
?ToPassiveSkill@@YAPAVioPassiveSkill@@PAVioSkill@@@Z ENDP ; ToPassiveSkill
_TEXT	ENDS
PUBLIC	?GetName@ioBuff@@QBEABVioHashString@@XZ		; ioBuff::GetName
; Function compile flags: /Ogsp
; File d:\lost saga for developer\youtube\tutorial\source\src\lsclient\iobuff.h
;	COMDAT ?GetName@ioBuff@@QBEABVioHashString@@XZ
_TEXT	SEGMENT
?GetName@ioBuff@@QBEABVioHashString@@XZ PROC		; ioBuff::GetName, COMDAT
; _this$ = ecx

; 440  : 	inline const ioHashString& GetName() const { return m_Name; }

  00000	8d 81 34 02 00
	00		 lea	 eax, DWORD PTR [ecx+564]
  00006	c3		 ret	 0
?GetName@ioBuff@@QBEABVioHashString@@XZ ENDP		; ioBuff::GetName
_TEXT	ENDS
PUBLIC	?GetSkillName@ioBuff@@QBEABVioHashString@@XZ	; ioBuff::GetSkillName
; Function compile flags: /Ogsp
;	COMDAT ?GetSkillName@ioBuff@@QBEABVioHashString@@XZ
_TEXT	SEGMENT
?GetSkillName@ioBuff@@QBEABVioHashString@@XZ PROC	; ioBuff::GetSkillName, COMDAT
; _this$ = ecx

; 441  : 	inline const ioHashString& GetSkillName() const { return m_SkillName; }

  00000	8d 81 54 02 00
	00		 lea	 eax, DWORD PTR [ecx+596]
  00006	c3		 ret	 0
?GetSkillName@ioBuff@@QBEABVioHashString@@XZ ENDP	; ioBuff::GetSkillName
_TEXT	ENDS
PUBLIC	?size@?$vector@VioHashString@@V?$allocator@VioHashString@@@std@@@std@@QBEIXZ ; std::vector<ioHashString,std::allocator<ioHashString> >::size
; Function compile flags: /Ogsp
; File c:\program files (x86)\microsoft visual studio 10.0\vc\include\vector
;	COMDAT ?size@?$vector@VioHashString@@V?$allocator@VioHashString@@@std@@@std@@QBEIXZ
_TEXT	SEGMENT
?size@?$vector@VioHashString@@V?$allocator@VioHashString@@@std@@@std@@QBEIXZ PROC ; std::vector<ioHashString,std::allocator<ioHashString> >::size, COMDAT
; _this$ = ecx

; 879  : 		return (this->_Mylast - this->_Myfirst);

  00000	8b 41 04	 mov	 eax, DWORD PTR [ecx+4]
  00003	2b 01		 sub	 eax, DWORD PTR [ecx]
  00005	c1 f8 04	 sar	 eax, 4

; 880  : 		}

  00008	c3		 ret	 0
?size@?$vector@VioHashString@@V?$allocator@VioHashString@@@std@@@std@@QBEIXZ ENDP ; std::vector<ioHashString,std::allocator<ioHashString> >::size
_TEXT	ENDS
PUBLIC	??_7?$CEncrypt@K@@6B@				; CEncrypt<unsigned long>::`vftable'
PUBLIC	??1?$CEncrypt@K@@UAE@XZ				; CEncrypt<unsigned long>::~CEncrypt<unsigned long>
PUBLIC	??_R4?$CEncrypt@K@@6B@				; CEncrypt<unsigned long>::`RTTI Complete Object Locator'
PUBLIC	??_R0?AV?$CEncrypt@K@@@8			; CEncrypt<unsigned long> `RTTI Type Descriptor'
PUBLIC	??_R3?$CEncrypt@K@@8				; CEncrypt<unsigned long>::`RTTI Class Hierarchy Descriptor'
PUBLIC	??_R2?$CEncrypt@K@@8				; CEncrypt<unsigned long>::`RTTI Base Class Array'
PUBLIC	??_R1A@?0A@EA@?$CEncrypt@K@@8			; CEncrypt<unsigned long>::`RTTI Base Class Descriptor at (0,-1,0,64)'
EXTRN	??1ccddaabb@@UAE@XZ:PROC			; ccddaabb::~ccddaabb
EXTRN	??_E?$CEncrypt@K@@UAEPAXI@Z:PROC		; CEncrypt<unsigned long>::`vector deleting destructor'
;	COMDAT ??_R1A@?0A@EA@?$CEncrypt@K@@8
; File d:\lost saga for developer\youtube\tutorial\source\src\lsclient\encryptvalue.h
rdata$r	SEGMENT
??_R1A@?0A@EA@?$CEncrypt@K@@8 DD FLAT:??_R0?AV?$CEncrypt@K@@@8 ; CEncrypt<unsigned long>::`RTTI Base Class Descriptor at (0,-1,0,64)'
	DD	00H
	DD	00H
	DD	0ffffffffH
	DD	00H
	DD	040H
	DD	FLAT:??_R3?$CEncrypt@K@@8
rdata$r	ENDS
;	COMDAT ??_R2?$CEncrypt@K@@8
rdata$r	SEGMENT
??_R2?$CEncrypt@K@@8 DD FLAT:??_R1A@?0A@EA@?$CEncrypt@K@@8 ; CEncrypt<unsigned long>::`RTTI Base Class Array'
rdata$r	ENDS
;	COMDAT ??_R3?$CEncrypt@K@@8
rdata$r	SEGMENT
??_R3?$CEncrypt@K@@8 DD 00H				; CEncrypt<unsigned long>::`RTTI Class Hierarchy Descriptor'
	DD	00H
	DD	01H
	DD	FLAT:??_R2?$CEncrypt@K@@8
rdata$r	ENDS
;	COMDAT ??_R0?AV?$CEncrypt@K@@@8
_DATA	SEGMENT
??_R0?AV?$CEncrypt@K@@@8 DD FLAT:??_7type_info@@6B@	; CEncrypt<unsigned long> `RTTI Type Descriptor'
	DD	00H
	DB	'.?AV?$CEncrypt@K@@', 00H
_DATA	ENDS
;	COMDAT ??_R4?$CEncrypt@K@@6B@
rdata$r	SEGMENT
??_R4?$CEncrypt@K@@6B@ DD 00H				; CEncrypt<unsigned long>::`RTTI Complete Object Locator'
	DD	00H
	DD	00H
	DD	FLAT:??_R0?AV?$CEncrypt@K@@@8
	DD	FLAT:??_R3?$CEncrypt@K@@8
rdata$r	ENDS
;	COMDAT ??_7?$CEncrypt@K@@6B@
CONST	SEGMENT
??_7?$CEncrypt@K@@6B@ DD FLAT:??_R4?$CEncrypt@K@@6B@	; CEncrypt<unsigned long>::`vftable'
	DD	FLAT:??_E?$CEncrypt@K@@UAEPAXI@Z
; Function compile flags: /Ogsp
CONST	ENDS
;	COMDAT ??1?$CEncrypt@K@@UAE@XZ
_TEXT	SEGMENT
??1?$CEncrypt@K@@UAE@XZ PROC				; CEncrypt<unsigned long>::~CEncrypt<unsigned long>, COMDAT
; _this$ = ecx

; 127  : 	{

  00000	c7 01 00 00 00
	00		 mov	 DWORD PTR [ecx], OFFSET ??_7?$CEncrypt@K@@6B@

; 128  : 	}

  00006	83 c1 0c	 add	 ecx, 12			; 0000000cH
  00009	e9 00 00 00 00	 jmp	 ??1ccddaabb@@UAE@XZ	; ccddaabb::~ccddaabb
??1?$CEncrypt@K@@UAE@XZ ENDP				; CEncrypt<unsigned long>::~CEncrypt<unsigned long>
_TEXT	ENDS
PUBLIC	??_7?$CEncrypt@_N@@6B@				; CEncrypt<bool>::`vftable'
PUBLIC	??1?$CEncrypt@_N@@UAE@XZ			; CEncrypt<bool>::~CEncrypt<bool>
PUBLIC	??_R4?$CEncrypt@_N@@6B@				; CEncrypt<bool>::`RTTI Complete Object Locator'
PUBLIC	??_R0?AV?$CEncrypt@_N@@@8			; CEncrypt<bool> `RTTI Type Descriptor'
PUBLIC	??_R3?$CEncrypt@_N@@8				; CEncrypt<bool>::`RTTI Class Hierarchy Descriptor'
PUBLIC	??_R2?$CEncrypt@_N@@8				; CEncrypt<bool>::`RTTI Base Class Array'
PUBLIC	??_R1A@?0A@EA@?$CEncrypt@_N@@8			; CEncrypt<bool>::`RTTI Base Class Descriptor at (0,-1,0,64)'
EXTRN	??_E?$CEncrypt@_N@@UAEPAXI@Z:PROC		; CEncrypt<bool>::`vector deleting destructor'
;	COMDAT ??_R1A@?0A@EA@?$CEncrypt@_N@@8
rdata$r	SEGMENT
??_R1A@?0A@EA@?$CEncrypt@_N@@8 DD FLAT:??_R0?AV?$CEncrypt@_N@@@8 ; CEncrypt<bool>::`RTTI Base Class Descriptor at (0,-1,0,64)'
	DD	00H
	DD	00H
	DD	0ffffffffH
	DD	00H
	DD	040H
	DD	FLAT:??_R3?$CEncrypt@_N@@8
rdata$r	ENDS
;	COMDAT ??_R2?$CEncrypt@_N@@8
rdata$r	SEGMENT
??_R2?$CEncrypt@_N@@8 DD FLAT:??_R1A@?0A@EA@?$CEncrypt@_N@@8 ; CEncrypt<bool>::`RTTI Base Class Array'
rdata$r	ENDS
;	COMDAT ??_R3?$CEncrypt@_N@@8
rdata$r	SEGMENT
??_R3?$CEncrypt@_N@@8 DD 00H				; CEncrypt<bool>::`RTTI Class Hierarchy Descriptor'
	DD	00H
	DD	01H
	DD	FLAT:??_R2?$CEncrypt@_N@@8
rdata$r	ENDS
;	COMDAT ??_R0?AV?$CEncrypt@_N@@@8
_DATA	SEGMENT
??_R0?AV?$CEncrypt@_N@@@8 DD FLAT:??_7type_info@@6B@	; CEncrypt<bool> `RTTI Type Descriptor'
	DD	00H
	DB	'.?AV?$CEncrypt@_N@@', 00H
_DATA	ENDS
;	COMDAT ??_R4?$CEncrypt@_N@@6B@
rdata$r	SEGMENT
??_R4?$CEncrypt@_N@@6B@ DD 00H				; CEncrypt<bool>::`RTTI Complete Object Locator'
	DD	00H
	DD	00H
	DD	FLAT:??_R0?AV?$CEncrypt@_N@@@8
	DD	FLAT:??_R3?$CEncrypt@_N@@8
rdata$r	ENDS
;	COMDAT ??_7?$CEncrypt@_N@@6B@
CONST	SEGMENT
??_7?$CEncrypt@_N@@6B@ DD FLAT:??_R4?$CEncrypt@_N@@6B@	; CEncrypt<bool>::`vftable'
	DD	FLAT:??_E?$CEncrypt@_N@@UAEPAXI@Z
; Function compile flags: /Ogsp
CONST	ENDS
;	COMDAT ??1?$CEncrypt@_N@@UAE@XZ
_TEXT	SEGMENT
??1?$CEncrypt@_N@@UAE@XZ PROC				; CEncrypt<bool>::~CEncrypt<bool>, COMDAT
; _this$ = ecx

; 127  : 	{

  00000	c7 01 00 00 00
	00		 mov	 DWORD PTR [ecx], OFFSET ??_7?$CEncrypt@_N@@6B@

; 128  : 	}

  00006	83 c1 0c	 add	 ecx, 12			; 0000000cH
  00009	e9 00 00 00 00	 jmp	 ??1ccddaabb@@UAE@XZ	; ccddaabb::~ccddaabb
??1?$CEncrypt@_N@@UAE@XZ ENDP				; CEncrypt<bool>::~CEncrypt<bool>
; Function compile flags: /Ogsp
_TEXT	ENDS
;	COMDAT ??_G?$CEncrypt@K@@UAEPAXI@Z
_TEXT	SEGMENT
___flags$ = 8						; size = 4
??_G?$CEncrypt@K@@UAEPAXI@Z PROC			; CEncrypt<unsigned long>::`scalar deleting destructor', COMDAT
; _this$ = ecx
  00000	55		 push	 ebp
  00001	8b ec		 mov	 ebp, esp
  00003	56		 push	 esi
  00004	8b f1		 mov	 esi, ecx
  00006	8d 4e 0c	 lea	 ecx, DWORD PTR [esi+12]
  00009	c7 06 00 00 00
	00		 mov	 DWORD PTR [esi], OFFSET ??_7?$CEncrypt@K@@6B@
  0000f	e8 00 00 00 00	 call	 ??1ccddaabb@@UAE@XZ	; ccddaabb::~ccddaabb
  00014	f6 45 08 01	 test	 BYTE PTR ___flags$[ebp], 1
  00018	74 07		 je	 SHORT $LN1@scalar@2
  0001a	56		 push	 esi
  0001b	e8 00 00 00 00	 call	 ??3@YAXPAX@Z		; operator delete
  00020	59		 pop	 ecx
$LN1@scalar@2:
  00021	8b c6		 mov	 eax, esi
  00023	5e		 pop	 esi
  00024	5d		 pop	 ebp
  00025	c2 04 00	 ret	 4
??_G?$CEncrypt@K@@UAEPAXI@Z ENDP			; CEncrypt<unsigned long>::`scalar deleting destructor'
; Function compile flags: /Ogsp
_TEXT	ENDS
;	COMDAT ??_G?$CEncrypt@_N@@UAEPAXI@Z
_TEXT	SEGMENT
___flags$ = 8						; size = 4
??_G?$CEncrypt@_N@@UAEPAXI@Z PROC			; CEncrypt<bool>::`scalar deleting destructor', COMDAT
; _this$ = ecx
  00000	55		 push	 ebp
  00001	8b ec		 mov	 ebp, esp
  00003	56		 push	 esi
  00004	8b f1		 mov	 esi, ecx
  00006	8d 4e 0c	 lea	 ecx, DWORD PTR [esi+12]
  00009	c7 06 00 00 00
	00		 mov	 DWORD PTR [esi], OFFSET ??_7?$CEncrypt@_N@@6B@
  0000f	e8 00 00 00 00	 call	 ??1ccddaabb@@UAE@XZ	; ccddaabb::~ccddaabb
  00014	f6 45 08 01	 test	 BYTE PTR ___flags$[ebp], 1
  00018	74 07		 je	 SHORT $LN1@scalar@3
  0001a	56		 push	 esi
  0001b	e8 00 00 00 00	 call	 ??3@YAXPAX@Z		; operator delete
  00020	59		 pop	 ecx
$LN1@scalar@3:
  00021	8b c6		 mov	 eax, esi
  00023	5e		 pop	 esi
  00024	5d		 pop	 ebp
  00025	c2 04 00	 ret	 4
??_G?$CEncrypt@_N@@UAEPAXI@Z ENDP			; CEncrypt<bool>::`scalar deleting destructor'
_TEXT	ENDS
PUBLIC	??1?$_Vector_val@VioHashString@@V?$allocator@VioHashString@@@std@@@std@@QAE@XZ ; std::_Vector_val<ioHashString,std::allocator<ioHashString> >::~_Vector_val<ioHashString,std::allocator<ioHashString> >
; Function compile flags: /Ogsp
; File c:\program files (x86)\microsoft visual studio 10.0\vc\include\vector
;	COMDAT ??1?$_Vector_val@VioHashString@@V?$allocator@VioHashString@@@std@@@std@@QAE@XZ
_TEXT	SEGMENT
??1?$_Vector_val@VioHashString@@V?$allocator@VioHashString@@@std@@@std@@QAE@XZ PROC ; std::_Vector_val<ioHashString,std::allocator<ioHashString> >::~_Vector_val<ioHashString,std::allocator<ioHashString> >, COMDAT
; _this$ = ecx

; 434  : 		}

  00000	c3		 ret	 0
??1?$_Vector_val@VioHashString@@V?$allocator@VioHashString@@@std@@@std@@QAE@XZ ENDP ; std::_Vector_val<ioHashString,std::allocator<ioHashString> >::~_Vector_val<ioHashString,std::allocator<ioHashString> >
_TEXT	ENDS
PUBLIC	??0?$allocator@VioHashString@@@std@@QAE@XZ	; std::allocator<ioHashString>::allocator<ioHashString>
; Function compile flags: /Ogsp
; File c:\program files (x86)\microsoft visual studio 10.0\vc\include\xmemory
;	COMDAT ??0?$allocator@VioHashString@@@std@@QAE@XZ
_TEXT	SEGMENT
??0?$allocator@VioHashString@@@std@@QAE@XZ PROC		; std::allocator<ioHashString>::allocator<ioHashString>, COMDAT
; _this$ = ecx

; 161  : 	_ALLOCATOR() _THROW0()

  00000	8b c1		 mov	 eax, ecx

; 162  : 		{	// construct default allocator (do nothing)
; 163  : 		}

  00002	c3		 ret	 0
??0?$allocator@VioHashString@@@std@@QAE@XZ ENDP		; std::allocator<ioHashString>::allocator<ioHashString>
_TEXT	ENDS
PUBLIC	??0?$allocator@VioHashString@@@std@@QAE@ABV01@@Z ; std::allocator<ioHashString>::allocator<ioHashString>
; Function compile flags: /Ogsp
;	COMDAT ??0?$allocator@VioHashString@@@std@@QAE@ABV01@@Z
_TEXT	SEGMENT
___formal$ = 8						; size = 4
??0?$allocator@VioHashString@@@std@@QAE@ABV01@@Z PROC	; std::allocator<ioHashString>::allocator<ioHashString>, COMDAT
; _this$ = ecx

; 165  : 	_ALLOCATOR(const _ALLOCATOR<_Ty>&) _THROW0()

  00000	8b c1		 mov	 eax, ecx

; 166  : 		{	// construct by copying (do nothing)
; 167  : 		}

  00002	c2 04 00	 ret	 4
??0?$allocator@VioHashString@@@std@@QAE@ABV01@@Z ENDP	; std::allocator<ioHashString>::allocator<ioHashString>
_TEXT	ENDS
PUBLIC	?DecryptValueToPool@?$CEncrypt@M@@QAEXPAM@Z	; CEncrypt<float>::DecryptValueToPool
EXTRN	__fltused:DWORD
; Function compile flags: /Ogsp
; File d:\lost saga for developer\youtube\tutorial\source\src\lsclient\encryptvalue.h
;	COMDAT ?DecryptValueToPool@?$CEncrypt@M@@QAEXPAM@Z
_TEXT	SEGMENT
_value$ = 8						; size = 4
?DecryptValueToPool@?$CEncrypt@M@@QAEXPAM@Z PROC	; CEncrypt<float>::DecryptValueToPool, COMDAT
; _this$ = ecx

; 1648 : 	{

  00000	55		 push	 ebp
  00001	8b ec		 mov	 ebp, esp
  00003	56		 push	 esi

; 1649 : 		m_RC5.DecryptByte( m_MemPool, m_TempMem, 4 );

  00004	8d 71 28	 lea	 esi, DWORD PTR [ecx+40]
  00007	6a 04		 push	 4
  00009	8d 41 1c	 lea	 eax, DWORD PTR [ecx+28]
  0000c	56		 push	 esi
  0000d	50		 push	 eax
  0000e	83 c1 0c	 add	 ecx, 12			; 0000000cH
  00011	e8 00 00 00 00	 call	 ?DecryptByte@ccddaabb@@QBEXPBDPADH@Z ; ccddaabb::DecryptByte

; 1650 : 		*value = *((float*)m_TempMem);

  00016	d9 06		 fld	 DWORD PTR [esi]
  00018	8b 45 08	 mov	 eax, DWORD PTR _value$[ebp]
  0001b	d9 18		 fstp	 DWORD PTR [eax]
  0001d	5e		 pop	 esi

; 1651 : 	}

  0001e	5d		 pop	 ebp
  0001f	c2 04 00	 ret	 4
?DecryptValueToPool@?$CEncrypt@M@@QAEXPAM@Z ENDP	; CEncrypt<float>::DecryptValueToPool
_TEXT	ENDS
PUBLIC	?EncryptValueToPool@?$CEncrypt@K@@AAEXPBD@Z	; CEncrypt<unsigned long>::EncryptValueToPool
EXTRN	?EncryptByte@ccddaabb@@QAEXPBDPADH@Z:PROC	; ccddaabb::EncryptByte
; Function compile flags: /Ogsp
;	COMDAT ?EncryptValueToPool@?$CEncrypt@K@@AAEXPBD@Z
_TEXT	SEGMENT
_value$ = 8						; size = 4
?EncryptValueToPool@?$CEncrypt@K@@AAEXPBD@Z PROC	; CEncrypt<unsigned long>::EncryptValueToPool, COMDAT
; _this$ = ecx

; 67   : 	{

  00000	55		 push	 ebp
  00001	8b ec		 mov	 ebp, esp

; 68   : 		m_RC5.EncryptByte( value, m_MemPool, max(m_ValueSize, DEFAULT_ENCRYPT) );

  00003	0f b7 41 06	 movzx	 eax, WORD PTR [ecx+6]
  00007	83 f8 04	 cmp	 eax, 4
  0000a	77 03		 ja	 SHORT $LN4@EncryptVal
  0000c	6a 04		 push	 4
  0000e	58		 pop	 eax
$LN4@EncryptVal:
  0000f	50		 push	 eax
  00010	8d 41 1c	 lea	 eax, DWORD PTR [ecx+28]
  00013	50		 push	 eax
  00014	ff 75 08	 push	 DWORD PTR _value$[ebp]
  00017	83 c1 0c	 add	 ecx, 12			; 0000000cH
  0001a	e8 00 00 00 00	 call	 ?EncryptByte@ccddaabb@@QAEXPBDPADH@Z ; ccddaabb::EncryptByte

; 69   : 		
; 70   : 	}

  0001f	5d		 pop	 ebp
  00020	c2 04 00	 ret	 4
?EncryptValueToPool@?$CEncrypt@K@@AAEXPBD@Z ENDP	; CEncrypt<unsigned long>::EncryptValueToPool
_TEXT	ENDS
PUBLIC	?Init@?$CEncrypt@K@@AAEXXZ			; CEncrypt<unsigned long>::Init
EXTRN	?Setup@ccddaabb@@QAEXPBDHH@Z:PROC		; ccddaabb::Setup
EXTRN	__imp__rand:PROC
EXTRN	__imp__timeGetTime@0:PROC
EXTRN	__imp__GetCurrentProcessId@0:PROC
; Function compile flags: /Ogsp
;	COMDAT ?Init@?$CEncrypt@K@@AAEXXZ
_TEXT	SEGMENT
_pid$ = -8						; size = 4
_tick$ = -4						; size = 4
?Init@?$CEncrypt@K@@AAEXXZ PROC				; CEncrypt<unsigned long>::Init, COMDAT
; _this$ = ecx

; 73   : 	{

  00000	55		 push	 ebp
  00001	8b ec		 mov	 ebp, esp
  00003	51		 push	 ecx
  00004	51		 push	 ecx
  00005	53		 push	 ebx
  00006	56		 push	 esi
  00007	57		 push	 edi
  00008	8b f1		 mov	 esi, ecx

; 74   : 		DWORD pid = GetCurrentProcessId();

  0000a	ff 15 00 00 00
	00		 call	 DWORD PTR __imp__GetCurrentProcessId@0
  00010	89 45 f8	 mov	 DWORD PTR _pid$[ebp], eax

; 75   : 		DWORD tick = timeGetTime();

  00013	ff 15 00 00 00
	00		 call	 DWORD PTR __imp__timeGetTime@0

; 76   : 		m_ValueSize    = sizeof(type);
; 77   : 		m_MemPoolPos   = (unsigned short)( rand()+pid+tick )%(MAX_MEM_POOL-m_ValueSize);

  00019	8b 3d 00 00 00
	00		 mov	 edi, DWORD PTR __imp__rand
  0001f	89 45 fc	 mov	 DWORD PTR _tick$[ebp], eax
  00022	6a 04		 push	 4
  00024	58		 pop	 eax
  00025	66 89 46 06	 mov	 WORD PTR [esi+6], ax
  00029	ff d7		 call	 edi
  0002b	03 45 f8	 add	 eax, DWORD PTR _pid$[ebp]
  0002e	0f b7 4e 06	 movzx	 ecx, WORD PTR [esi+6]
  00032	03 45 fc	 add	 eax, DWORD PTR _tick$[ebp]
  00035	6a 0c		 push	 12			; 0000000cH
  00037	0f b7 c0	 movzx	 eax, ax
  0003a	5b		 pop	 ebx
  0003b	99		 cdq
  0003c	2b d9		 sub	 ebx, ecx
  0003e	f7 fb		 idiv	 ebx
  00040	66 89 56 04	 mov	 WORD PTR [esi+4], dx

; 78   : 		m_EncryptSeed  = (char)( rand()+pid+tick )%256;

  00044	ff d7		 call	 edi
  00046	02 45 f8	 add	 al, BYTE PTR _pid$[ebp]
  00049	02 45 fc	 add	 al, BYTE PTR _tick$[ebp]
  0004c	0f be c0	 movsx	 eax, al
  0004f	25 ff 00 00 80	 and	 eax, -2147483393	; 800000ffH
  00054	79 07		 jns	 SHORT $LN8@Init
  00056	48		 dec	 eax
  00057	0d 00 ff ff ff	 or	 eax, -256		; ffffff00H
  0005c	40		 inc	 eax
$LN8@Init:
  0005d	88 46 08	 mov	 BYTE PTR [esi+8], al

; 79   : 
; 80   : 		for (int i = 0; i < MAX_MEM_POOL ; i++)

  00060	33 db		 xor	 ebx, ebx
$LL3@Init:

; 81   : 			m_MemPool[i] = (char)( rand()+pid+tick )%256; // 더미

  00062	ff d7		 call	 edi
  00064	02 45 f8	 add	 al, BYTE PTR _pid$[ebp]
  00067	02 45 fc	 add	 al, BYTE PTR _tick$[ebp]
  0006a	0f be c0	 movsx	 eax, al
  0006d	25 ff 00 00 80	 and	 eax, -2147483393	; 800000ffH
  00072	79 07		 jns	 SHORT $LN9@Init
  00074	48		 dec	 eax
  00075	0d 00 ff ff ff	 or	 eax, -256		; ffffff00H
  0007a	40		 inc	 eax
$LN9@Init:
  0007b	88 44 1e 1c	 mov	 BYTE PTR [esi+ebx+28], al
  0007f	43		 inc	 ebx
  00080	83 fb 0c	 cmp	 ebx, 12			; 0000000cH
  00083	7c dd		 jl	 SHORT $LL3@Init

; 82   : 
; 83   : 		//UJ 130913, 최적화: szKey 사용안하도록 간략화
; 84   : 		//char szKey[ccddaabb::KEY_SIZE];//="";
; 85   : 		//for (int i = 0; i < ccddaabb::KEY_SIZE  ; i++)
; 86   : 		//	szKey[i] = (char)( rand()+pid+tick )%256; // 더미
; 87   : 		m_RC5.Setup( NULL, pid, tick );

  00085	ff 75 fc	 push	 DWORD PTR _tick$[ebp]
  00088	8d 4e 0c	 lea	 ecx, DWORD PTR [esi+12]
  0008b	ff 75 f8	 push	 DWORD PTR _pid$[ebp]
  0008e	6a 00		 push	 0
  00090	e8 00 00 00 00	 call	 ?Setup@ccddaabb@@QAEXPBDHH@Z ; ccddaabb::Setup
  00095	5f		 pop	 edi
  00096	5e		 pop	 esi
  00097	5b		 pop	 ebx

; 88   : 
; 89   : #ifdef _NOTUSE
; 90   : 		m_value        = 0;
; 91   : 		EncryptValueToPool((char*)&m_value);
; 92   : 		Debug();
; 93   : #endif
; 94   : 	}

  00098	c9		 leave
  00099	c3		 ret	 0
?Init@?$CEncrypt@K@@AAEXXZ ENDP				; CEncrypt<unsigned long>::Init
_TEXT	ENDS
PUBLIC	?DecryptValueToPool@?$CEncrypt@K@@QAEXPAK@Z	; CEncrypt<unsigned long>::DecryptValueToPool
; Function compile flags: /Ogsp
;	COMDAT ?DecryptValueToPool@?$CEncrypt@K@@QAEXPAK@Z
_TEXT	SEGMENT
_value$ = 8						; size = 4
?DecryptValueToPool@?$CEncrypt@K@@QAEXPAK@Z PROC	; CEncrypt<unsigned long>::DecryptValueToPool, COMDAT
; _this$ = ecx

; 1256 : 	{

  00000	55		 push	 ebp
  00001	8b ec		 mov	 ebp, esp
  00003	56		 push	 esi

; 1257 : 		m_RC5.DecryptByte( m_MemPool, m_TempMem, 4 );

  00004	8d 71 28	 lea	 esi, DWORD PTR [ecx+40]
  00007	6a 04		 push	 4
  00009	8d 41 1c	 lea	 eax, DWORD PTR [ecx+28]
  0000c	56		 push	 esi
  0000d	50		 push	 eax
  0000e	83 c1 0c	 add	 ecx, 12			; 0000000cH
  00011	e8 00 00 00 00	 call	 ?DecryptByte@ccddaabb@@QBEXPBDPADH@Z ; ccddaabb::DecryptByte

; 1258 : 		*value = *((DWORD*)m_TempMem);

  00016	8b 06		 mov	 eax, DWORD PTR [esi]
  00018	8b 4d 08	 mov	 ecx, DWORD PTR _value$[ebp]
  0001b	89 01		 mov	 DWORD PTR [ecx], eax
  0001d	5e		 pop	 esi

; 1259 : 	}

  0001e	5d		 pop	 ebp
  0001f	c2 04 00	 ret	 4
?DecryptValueToPool@?$CEncrypt@K@@QAEXPAK@Z ENDP	; CEncrypt<unsigned long>::DecryptValueToPool
_TEXT	ENDS
PUBLIC	?EncryptValueToPool@?$CEncrypt@_N@@AAEXPBD@Z	; CEncrypt<bool>::EncryptValueToPool
; Function compile flags: /Ogsp
;	COMDAT ?EncryptValueToPool@?$CEncrypt@_N@@AAEXPBD@Z
_TEXT	SEGMENT
_value$ = 8						; size = 4
?EncryptValueToPool@?$CEncrypt@_N@@AAEXPBD@Z PROC	; CEncrypt<bool>::EncryptValueToPool, COMDAT
; _this$ = ecx

; 67   : 	{

  00000	55		 push	 ebp
  00001	8b ec		 mov	 ebp, esp

; 68   : 		m_RC5.EncryptByte( value, m_MemPool, max(m_ValueSize, DEFAULT_ENCRYPT) );

  00003	0f b7 41 06	 movzx	 eax, WORD PTR [ecx+6]
  00007	83 f8 04	 cmp	 eax, 4
  0000a	77 03		 ja	 SHORT $LN4@EncryptVal@2
  0000c	6a 04		 push	 4
  0000e	58		 pop	 eax
$LN4@EncryptVal@2:
  0000f	50		 push	 eax
  00010	8d 41 1c	 lea	 eax, DWORD PTR [ecx+28]
  00013	50		 push	 eax
  00014	ff 75 08	 push	 DWORD PTR _value$[ebp]
  00017	83 c1 0c	 add	 ecx, 12			; 0000000cH
  0001a	e8 00 00 00 00	 call	 ?EncryptByte@ccddaabb@@QAEXPBDPADH@Z ; ccddaabb::EncryptByte

; 69   : 		
; 70   : 	}

  0001f	5d		 pop	 ebp
  00020	c2 04 00	 ret	 4
?EncryptValueToPool@?$CEncrypt@_N@@AAEXPBD@Z ENDP	; CEncrypt<bool>::EncryptValueToPool
_TEXT	ENDS
PUBLIC	?Init@?$CEncrypt@_N@@AAEXXZ			; CEncrypt<bool>::Init
; Function compile flags: /Ogsp
;	COMDAT ?Init@?$CEncrypt@_N@@AAEXXZ
_TEXT	SEGMENT
_pid$ = -8						; size = 4
_tick$ = -4						; size = 4
?Init@?$CEncrypt@_N@@AAEXXZ PROC			; CEncrypt<bool>::Init, COMDAT
; _this$ = ecx

; 73   : 	{

  00000	55		 push	 ebp
  00001	8b ec		 mov	 ebp, esp
  00003	51		 push	 ecx
  00004	51		 push	 ecx
  00005	53		 push	 ebx
  00006	56		 push	 esi
  00007	57		 push	 edi
  00008	8b f1		 mov	 esi, ecx

; 74   : 		DWORD pid = GetCurrentProcessId();

  0000a	ff 15 00 00 00
	00		 call	 DWORD PTR __imp__GetCurrentProcessId@0
  00010	89 45 f8	 mov	 DWORD PTR _pid$[ebp], eax

; 75   : 		DWORD tick = timeGetTime();

  00013	ff 15 00 00 00
	00		 call	 DWORD PTR __imp__timeGetTime@0

; 76   : 		m_ValueSize    = sizeof(type);
; 77   : 		m_MemPoolPos   = (unsigned short)( rand()+pid+tick )%(MAX_MEM_POOL-m_ValueSize);

  00019	8b 3d 00 00 00
	00		 mov	 edi, DWORD PTR __imp__rand
  0001f	89 45 fc	 mov	 DWORD PTR _tick$[ebp], eax
  00022	33 c0		 xor	 eax, eax
  00024	40		 inc	 eax
  00025	66 89 46 06	 mov	 WORD PTR [esi+6], ax
  00029	ff d7		 call	 edi
  0002b	03 45 f8	 add	 eax, DWORD PTR _pid$[ebp]
  0002e	0f b7 4e 06	 movzx	 ecx, WORD PTR [esi+6]
  00032	03 45 fc	 add	 eax, DWORD PTR _tick$[ebp]
  00035	6a 0c		 push	 12			; 0000000cH
  00037	0f b7 c0	 movzx	 eax, ax
  0003a	5b		 pop	 ebx
  0003b	99		 cdq
  0003c	2b d9		 sub	 ebx, ecx
  0003e	f7 fb		 idiv	 ebx
  00040	66 89 56 04	 mov	 WORD PTR [esi+4], dx

; 78   : 		m_EncryptSeed  = (char)( rand()+pid+tick )%256;

  00044	ff d7		 call	 edi
  00046	02 45 f8	 add	 al, BYTE PTR _pid$[ebp]
  00049	02 45 fc	 add	 al, BYTE PTR _tick$[ebp]
  0004c	0f be c0	 movsx	 eax, al
  0004f	25 ff 00 00 80	 and	 eax, -2147483393	; 800000ffH
  00054	79 07		 jns	 SHORT $LN8@Init@2
  00056	48		 dec	 eax
  00057	0d 00 ff ff ff	 or	 eax, -256		; ffffff00H
  0005c	40		 inc	 eax
$LN8@Init@2:
  0005d	88 46 08	 mov	 BYTE PTR [esi+8], al

; 79   : 
; 80   : 		for (int i = 0; i < MAX_MEM_POOL ; i++)

  00060	33 db		 xor	 ebx, ebx
$LL3@Init@2:

; 81   : 			m_MemPool[i] = (char)( rand()+pid+tick )%256; // 더미

  00062	ff d7		 call	 edi
  00064	02 45 f8	 add	 al, BYTE PTR _pid$[ebp]
  00067	02 45 fc	 add	 al, BYTE PTR _tick$[ebp]
  0006a	0f be c0	 movsx	 eax, al
  0006d	25 ff 00 00 80	 and	 eax, -2147483393	; 800000ffH
  00072	79 07		 jns	 SHORT $LN9@Init@2
  00074	48		 dec	 eax
  00075	0d 00 ff ff ff	 or	 eax, -256		; ffffff00H
  0007a	40		 inc	 eax
$LN9@Init@2:
  0007b	88 44 1e 1c	 mov	 BYTE PTR [esi+ebx+28], al
  0007f	43		 inc	 ebx
  00080	83 fb 0c	 cmp	 ebx, 12			; 0000000cH
  00083	7c dd		 jl	 SHORT $LL3@Init@2

; 82   : 
; 83   : 		//UJ 130913, 최적화: szKey 사용안하도록 간략화
; 84   : 		//char szKey[ccddaabb::KEY_SIZE];//="";
; 85   : 		//for (int i = 0; i < ccddaabb::KEY_SIZE  ; i++)
; 86   : 		//	szKey[i] = (char)( rand()+pid+tick )%256; // 더미
; 87   : 		m_RC5.Setup( NULL, pid, tick );

  00085	ff 75 fc	 push	 DWORD PTR _tick$[ebp]
  00088	8d 4e 0c	 lea	 ecx, DWORD PTR [esi+12]
  0008b	ff 75 f8	 push	 DWORD PTR _pid$[ebp]
  0008e	6a 00		 push	 0
  00090	e8 00 00 00 00	 call	 ?Setup@ccddaabb@@QAEXPBDHH@Z ; ccddaabb::Setup
  00095	5f		 pop	 edi
  00096	5e		 pop	 esi
  00097	5b		 pop	 ebx

; 88   : 
; 89   : #ifdef _NOTUSE
; 90   : 		m_value        = 0;
; 91   : 		EncryptValueToPool((char*)&m_value);
; 92   : 		Debug();
; 93   : #endif
; 94   : 	}

  00098	c9		 leave
  00099	c3		 ret	 0
?Init@?$CEncrypt@_N@@AAEXXZ ENDP			; CEncrypt<bool>::Init
_TEXT	ENDS
PUBLIC	?DecryptValueToPool@?$CEncrypt@_N@@QAEXPA_N@Z	; CEncrypt<bool>::DecryptValueToPool
; Function compile flags: /Ogsp
;	COMDAT ?DecryptValueToPool@?$CEncrypt@_N@@QAEXPA_N@Z
_TEXT	SEGMENT
_value$ = 8						; size = 4
?DecryptValueToPool@?$CEncrypt@_N@@QAEXPA_N@Z PROC	; CEncrypt<bool>::DecryptValueToPool, COMDAT
; _this$ = ecx

; 219  : 	{

  00000	55		 push	 ebp
  00001	8b ec		 mov	 ebp, esp
  00003	56		 push	 esi

; 220  : 		m_RC5.DecryptByte( m_MemPool, m_TempMem, 4 );

  00004	8d 71 28	 lea	 esi, DWORD PTR [ecx+40]
  00007	6a 04		 push	 4
  00009	8d 41 1c	 lea	 eax, DWORD PTR [ecx+28]
  0000c	56		 push	 esi
  0000d	50		 push	 eax
  0000e	83 c1 0c	 add	 ecx, 12			; 0000000cH
  00011	e8 00 00 00 00	 call	 ?DecryptByte@ccddaabb@@QBEXPBDPADH@Z ; ccddaabb::DecryptByte

; 221  : 		*value = *((bool*)m_TempMem);

  00016	8a 06		 mov	 al, BYTE PTR [esi]
  00018	8b 4d 08	 mov	 ecx, DWORD PTR _value$[ebp]
  0001b	88 01		 mov	 BYTE PTR [ecx], al
  0001d	5e		 pop	 esi

; 222  : 	}

  0001e	5d		 pop	 ebp
  0001f	c2 04 00	 ret	 4
?DecryptValueToPool@?$CEncrypt@_N@@QAEXPA_N@Z ENDP	; CEncrypt<bool>::DecryptValueToPool
_TEXT	ENDS
PUBLIC	??_C@_0BD@OLBABOEK@vector?$DMT?$DO?5too?5long?$AA@ ; `string'
PUBLIC	?_Xlen@?$vector@VioHashString@@V?$allocator@VioHashString@@@std@@@std@@IBEXXZ ; std::vector<ioHashString,std::allocator<ioHashString> >::_Xlen
EXTRN	__imp_?_Xlength_error@std@@YAXPBD@Z:PROC
;	COMDAT ??_C@_0BD@OLBABOEK@vector?$DMT?$DO?5too?5long?$AA@
; File c:\program files (x86)\microsoft visual studio 10.0\vc\include\vector
CONST	SEGMENT
??_C@_0BD@OLBABOEK@vector?$DMT?$DO?5too?5long?$AA@ DB 'vector<T> too long'
	DB	00H						; `string'
; Function compile flags: /Ogsp
CONST	ENDS
;	COMDAT ?_Xlen@?$vector@VioHashString@@V?$allocator@VioHashString@@@std@@@std@@IBEXXZ
_TEXT	SEGMENT
?_Xlen@?$vector@VioHashString@@V?$allocator@VioHashString@@@std@@@std@@IBEXXZ PROC ; std::vector<ioHashString,std::allocator<ioHashString> >::_Xlen, COMDAT
; _this$ = ecx

; 1427 : 		_Xlength_error("vector<T> too long");

  00000	68 00 00 00 00	 push	 OFFSET ??_C@_0BD@OLBABOEK@vector?$DMT?$DO?5too?5long?$AA@
  00005	ff 15 00 00 00
	00		 call	 DWORD PTR __imp_?_Xlength_error@std@@YAXPBD@Z
$LN4@Xlen:
$LN3@Xlen:
  0000b	cc		 int	 3
?_Xlen@?$vector@VioHashString@@V?$allocator@VioHashString@@@std@@@std@@IBEXXZ ENDP ; std::vector<ioHashString,std::allocator<ioHashString> >::_Xlen
_TEXT	ENDS
PUBLIC	?deallocate@?$allocator@VioHashString@@@std@@QAEXPAVioHashString@@I@Z ; std::allocator<ioHashString>::deallocate
; Function compile flags: /Ogsp
; File c:\program files (x86)\microsoft visual studio 10.0\vc\include\xmemory
;	COMDAT ?deallocate@?$allocator@VioHashString@@@std@@QAEXPAVioHashString@@I@Z
_TEXT	SEGMENT
__Ptr$ = 8						; size = 4
___formal$ = 12						; size = 4
?deallocate@?$allocator@VioHashString@@@std@@QAEXPAVioHashString@@I@Z PROC ; std::allocator<ioHashString>::deallocate, COMDAT
; _this$ = ecx

; 181  : 		{	// deallocate object at _Ptr, ignore size

  00000	55		 push	 ebp
  00001	8b ec		 mov	 ebp, esp

; 182  : 		::operator delete(_Ptr);

  00003	ff 75 08	 push	 DWORD PTR __Ptr$[ebp]
  00006	e8 00 00 00 00	 call	 ??3@YAXPAX@Z		; operator delete
  0000b	59		 pop	 ecx

; 183  : 		}

  0000c	5d		 pop	 ebp
  0000d	c2 08 00	 ret	 8
?deallocate@?$allocator@VioHashString@@@std@@QAEXPAVioHashString@@I@Z ENDP ; std::allocator<ioHashString>::deallocate
_TEXT	ENDS
PUBLIC	??0?$_Vector_const_iterator@V?$_Vector_val@VioHashString@@V?$allocator@VioHashString@@@std@@@std@@@std@@QAE@PAVioHashString@@PBU_Container_base0@1@@Z ; std::_Vector_const_iterator<std::_Vector_val<ioHashString,std::allocator<ioHashString> > >::_Vector_const_iterator<std::_Vector_val<ioHashString,std::allocator<ioHashString> > >
; Function compile flags: /Ogsp
; File c:\program files (x86)\microsoft visual studio 10.0\vc\include\vector
;	COMDAT ??0?$_Vector_const_iterator@V?$_Vector_val@VioHashString@@V?$allocator@VioHashString@@@std@@@std@@@std@@QAE@PAVioHashString@@PBU_Container_base0@1@@Z
_TEXT	SEGMENT
__Parg$ = 8						; size = 4
__Pvector$ = 12						; size = 4
??0?$_Vector_const_iterator@V?$_Vector_val@VioHashString@@V?$allocator@VioHashString@@@std@@@std@@@std@@QAE@PAVioHashString@@PBU_Container_base0@1@@Z PROC ; std::_Vector_const_iterator<std::_Vector_val<ioHashString,std::allocator<ioHashString> > >::_Vector_const_iterator<std::_Vector_val<ioHashString,std::allocator<ioHashString> > >, COMDAT
; _this$ = ecx

; 45   : 		{	// construct with pointer _Parg

  00000	55		 push	 ebp
  00001	8b ec		 mov	 ebp, esp
  00003	8b c1		 mov	 eax, ecx
  00005	8b 4d 08	 mov	 ecx, DWORD PTR __Parg$[ebp]
  00008	89 08		 mov	 DWORD PTR [eax], ecx

; 46   : 		this->_Adopt(_Pvector);
; 47   : 		}

  0000a	5d		 pop	 ebp
  0000b	c2 08 00	 ret	 8
??0?$_Vector_const_iterator@V?$_Vector_val@VioHashString@@V?$allocator@VioHashString@@@std@@@std@@@std@@QAE@PAVioHashString@@PBU_Container_base0@1@@Z ENDP ; std::_Vector_const_iterator<std::_Vector_val<ioHashString,std::allocator<ioHashString> > >::_Vector_const_iterator<std::_Vector_val<ioHashString,std::allocator<ioHashString> > >
_TEXT	ENDS
PUBLIC	??0?$_Vector_iterator@V?$_Vector_val@VioHashString@@V?$allocator@VioHashString@@@std@@@std@@@std@@QAE@PAVioHashString@@PBU_Container_base0@1@@Z ; std::_Vector_iterator<std::_Vector_val<ioHashString,std::allocator<ioHashString> > >::_Vector_iterator<std::_Vector_val<ioHashString,std::allocator<ioHashString> > >
; Function compile flags: /Ogsp
;	COMDAT ??0?$_Vector_iterator@V?$_Vector_val@VioHashString@@V?$allocator@VioHashString@@@std@@@std@@@std@@QAE@PAVioHashString@@PBU_Container_base0@1@@Z
_TEXT	SEGMENT
__Parg$ = 8						; size = 4
__Pvector$ = 12						; size = 4
??0?$_Vector_iterator@V?$_Vector_val@VioHashString@@V?$allocator@VioHashString@@@std@@@std@@@std@@QAE@PAVioHashString@@PBU_Container_base0@1@@Z PROC ; std::_Vector_iterator<std::_Vector_val<ioHashString,std::allocator<ioHashString> > >::_Vector_iterator<std::_Vector_val<ioHashString,std::allocator<ioHashString> > >, COMDAT
; _this$ = ecx

; 304  : 		{	// construct with pointer _Parg

  00000	55		 push	 ebp
  00001	8b ec		 mov	 ebp, esp
  00003	8b c1		 mov	 eax, ecx
  00005	8b 4d 08	 mov	 ecx, DWORD PTR __Parg$[ebp]
  00008	89 08		 mov	 DWORD PTR [eax], ecx

; 305  : 		}

  0000a	5d		 pop	 ebp
  0000b	c2 08 00	 ret	 8
??0?$_Vector_iterator@V?$_Vector_val@VioHashString@@V?$allocator@VioHashString@@@std@@@std@@@std@@QAE@PAVioHashString@@PBU_Container_base0@1@@Z ENDP ; std::_Vector_iterator<std::_Vector_val<ioHashString,std::allocator<ioHashString> > >::_Vector_iterator<std::_Vector_val<ioHashString,std::allocator<ioHashString> > >
_TEXT	ENDS
PUBLIC	?max_size@?$allocator@VioHashString@@@std@@QBEIXZ ; std::allocator<ioHashString>::max_size
; Function compile flags: /Ogsp
; File c:\program files (x86)\microsoft visual studio 10.0\vc\include\xmemory
;	COMDAT ?max_size@?$allocator@VioHashString@@@std@@QBEIXZ
_TEXT	SEGMENT
?max_size@?$allocator@VioHashString@@@std@@QBEIXZ PROC	; std::allocator<ioHashString>::max_size, COMDAT
; _this$ = ecx

; 218  : 		_SIZT _Count = (_SIZT)(-1) / sizeof (_Ty);
; 219  : 		return (0 < _Count ? _Count : 1);

  00000	b8 ff ff ff 0f	 mov	 eax, 268435455		; 0fffffffH

; 220  : 		}

  00005	c3		 ret	 0
?max_size@?$allocator@VioHashString@@@std@@QBEIXZ ENDP	; std::allocator<ioHashString>::max_size
_TEXT	ENDS
PUBLIC	?_Compat@?$_Vector_const_iterator@V?$_Vector_val@VioHashString@@V?$allocator@VioHashString@@@std@@@std@@@std@@QBEXABV12@@Z ; std::_Vector_const_iterator<std::_Vector_val<ioHashString,std::allocator<ioHashString> > >::_Compat
; Function compile flags: /Ogsp
; File c:\program files (x86)\microsoft visual studio 10.0\vc\include\vector
;	COMDAT ?_Compat@?$_Vector_const_iterator@V?$_Vector_val@VioHashString@@V?$allocator@VioHashString@@@std@@@std@@@std@@QBEXABV12@@Z
_TEXT	SEGMENT
___formal$ = 8						; size = 4
?_Compat@?$_Vector_const_iterator@V?$_Vector_val@VioHashString@@V?$allocator@VioHashString@@@std@@@std@@@std@@QBEXABV12@@Z PROC ; std::_Vector_const_iterator<std::_Vector_val<ioHashString,std::allocator<ioHashString> > >::_Compat, COMDAT
; _this$ = ecx

; 253  : 		}

  00000	c2 04 00	 ret	 4
?_Compat@?$_Vector_const_iterator@V?$_Vector_val@VioHashString@@V?$allocator@VioHashString@@@std@@@std@@@std@@QBEXABV12@@Z ENDP ; std::_Vector_const_iterator<std::_Vector_val<ioHashString,std::allocator<ioHashString> > >::_Compat
_TEXT	ENDS
PUBLIC	__TI2?AVbad_alloc@std@@
PUBLIC	??$_Allocate@VioHashString@@@std@@YAPAVioHashString@@IPAV1@@Z ; std::_Allocate<ioHashString>
PUBLIC	__CTA2?AVbad_alloc@std@@
PUBLIC	__CT??_R0?AVbad_alloc@std@@@8??0bad_alloc@std@@QAE@ABV01@@Z12
PUBLIC	??0bad_alloc@std@@QAE@ABV01@@Z			; std::bad_alloc::bad_alloc
PUBLIC	__CT??_R0?AVexception@std@@@8??0exception@std@@QAE@ABV01@@Z12
EXTRN	??2@YAPAXI@Z:PROC				; operator new
EXTRN	__CxxThrowException@8:PROC
EXTRN	??0exception@std@@QAE@ABV01@@Z:PROC		; std::exception::exception
;	COMDAT __CT??_R0?AVexception@std@@@8??0exception@std@@QAE@ABV01@@Z12
; File c:\program files (x86)\microsoft visual studio 10.0\vc\include\exception
xdata$x	SEGMENT
__CT??_R0?AVexception@std@@@8??0exception@std@@QAE@ABV01@@Z12 DD 00H
	DD	FLAT:??_R0?AVexception@std@@@8
	DD	00H
	DD	0ffffffffH
	ORG $+4
	DD	0cH
	DD	FLAT:??0exception@std@@QAE@ABV01@@Z
xdata$x	ENDS
;	COMDAT __CT??_R0?AVbad_alloc@std@@@8??0bad_alloc@std@@QAE@ABV01@@Z12
xdata$x	SEGMENT
__CT??_R0?AVbad_alloc@std@@@8??0bad_alloc@std@@QAE@ABV01@@Z12 DD 00H
	DD	FLAT:??_R0?AVbad_alloc@std@@@8
	DD	00H
	DD	0ffffffffH
	ORG $+4
	DD	0cH
	DD	FLAT:??0bad_alloc@std@@QAE@ABV01@@Z
xdata$x	ENDS
;	COMDAT __CTA2?AVbad_alloc@std@@
xdata$x	SEGMENT
__CTA2?AVbad_alloc@std@@ DD 02H
	DD	FLAT:__CT??_R0?AVbad_alloc@std@@@8??0bad_alloc@std@@QAE@ABV01@@Z12
	DD	FLAT:__CT??_R0?AVexception@std@@@8??0exception@std@@QAE@ABV01@@Z12
xdata$x	ENDS
;	COMDAT __TI2?AVbad_alloc@std@@
xdata$x	SEGMENT
__TI2?AVbad_alloc@std@@ DD 00H
	DD	FLAT:??1bad_alloc@std@@UAE@XZ
	DD	00H
	DD	FLAT:__CTA2?AVbad_alloc@std@@
; Function compile flags: /Ogsp
; File c:\program files (x86)\microsoft visual studio 10.0\vc\include\xmemory
xdata$x	ENDS
;	COMDAT ??$_Allocate@VioHashString@@@std@@YAPAVioHashString@@IPAV1@@Z
_TEXT	SEGMENT
$T527726 = -12						; size = 12
$T527731 = 8						; size = 4
__Count$ = 8						; size = 4
___formal$ = 12						; size = 4
??$_Allocate@VioHashString@@@std@@YAPAVioHashString@@IPAV1@@Z PROC ; std::_Allocate<ioHashString>, COMDAT

; 30   : 	{	// allocate storage for _Count elements of type _Ty

  00000	55		 push	 ebp
  00001	8b ec		 mov	 ebp, esp

; 31   : 	void *_Ptr = 0;
; 32   : 
; 33   : 	if (_Count <= 0)

  00003	8b 4d 08	 mov	 ecx, DWORD PTR __Count$[ebp]
  00006	83 ec 0c	 sub	 esp, 12			; 0000000cH
  00009	33 c0		 xor	 eax, eax
  0000b	85 c9		 test	 ecx, ecx

; 34   : 		_Count = 0;
; 35   : 	else if (((_SIZT)(-1) / sizeof (_Ty) < _Count)

  0000d	74 3c		 je	 SHORT $LN5@Allocate

; 36   : 		|| (_Ptr = ::operator new(_Count * sizeof (_Ty))) == 0)

  0000f	81 f9 ff ff ff
	0f		 cmp	 ecx, 268435455		; 0fffffffH
  00015	77 0e		 ja	 SHORT $LN1@Allocate
  00017	c1 e1 04	 shl	 ecx, 4
  0001a	51		 push	 ecx
  0001b	e8 00 00 00 00	 call	 ??2@YAPAXI@Z		; operator new
  00020	59		 pop	 ecx
  00021	85 c0		 test	 eax, eax

; 38   : 
; 39   : 	return ((_Ty _FARQ *)_Ptr);

  00023	75 26		 jne	 SHORT $LN5@Allocate
$LN1@Allocate:

; 37   : 		_THROW_NCEE(bad_alloc, 0);

  00025	83 65 08 00	 and	 DWORD PTR $T527731[ebp], 0
  00029	8d 45 08	 lea	 eax, DWORD PTR $T527731[ebp]
  0002c	50		 push	 eax
  0002d	8d 4d f4	 lea	 ecx, DWORD PTR $T527726[ebp]
  00030	ff 15 00 00 00
	00		 call	 DWORD PTR __imp_??0exception@std@@QAE@ABQBD@Z
  00036	68 00 00 00 00	 push	 OFFSET __TI2?AVbad_alloc@std@@
  0003b	8d 45 f4	 lea	 eax, DWORD PTR $T527726[ebp]
  0003e	50		 push	 eax
  0003f	c7 45 f4 00 00
	00 00		 mov	 DWORD PTR $T527726[ebp], OFFSET ??_7bad_alloc@std@@6B@
  00046	e8 00 00 00 00	 call	 __CxxThrowException@8
$LN10@Allocate:
$LN5@Allocate:

; 40   : 	}

  0004b	c9		 leave
  0004c	c3		 ret	 0
$LN9@Allocate:
??$_Allocate@VioHashString@@@std@@YAPAVioHashString@@IPAV1@@Z ENDP ; std::_Allocate<ioHashString>
_TEXT	ENDS
EXTRN	__imp_??0exception@std@@QAE@ABV01@@Z:PROC
; Function compile flags: /Ogsp
;	COMDAT ??0bad_alloc@std@@QAE@ABV01@@Z
_TEXT	SEGMENT
___that$ = 8						; size = 4
??0bad_alloc@std@@QAE@ABV01@@Z PROC			; std::bad_alloc::bad_alloc, COMDAT
; _this$ = ecx
  00000	55		 push	 ebp
  00001	8b ec		 mov	 ebp, esp
  00003	56		 push	 esi
  00004	ff 75 08	 push	 DWORD PTR ___that$[ebp]
  00007	8b f1		 mov	 esi, ecx
  00009	ff 15 00 00 00
	00		 call	 DWORD PTR __imp_??0exception@std@@QAE@ABV01@@Z
  0000f	c7 06 00 00 00
	00		 mov	 DWORD PTR [esi], OFFSET ??_7bad_alloc@std@@6B@
  00015	8b c6		 mov	 eax, esi
  00017	5e		 pop	 esi
  00018	5d		 pop	 ebp
  00019	c2 04 00	 ret	 4
??0bad_alloc@std@@QAE@ABV01@@Z ENDP			; std::bad_alloc::bad_alloc
_TEXT	ENDS
PUBLIC	??$forward@ABVioHashString@@@std@@YAABVioHashString@@ABV1@@Z ; std::forward<ioHashString const &>
; Function compile flags: /Ogsp
; File c:\program files (x86)\microsoft visual studio 10.0\vc\include\utility
;	COMDAT ??$forward@ABVioHashString@@@std@@YAABVioHashString@@ABV1@@Z
_TEXT	SEGMENT
__Arg$ = 8						; size = 4
??$forward@ABVioHashString@@@std@@YAABVioHashString@@ABV1@@Z PROC ; std::forward<ioHashString const &>, COMDAT

; 78   : 	{	// forward _Arg, given explicitly specified type parameter

  00000	55		 push	 ebp
  00001	8b ec		 mov	 ebp, esp

; 79   : 	return ((_Ty&&)_Arg);

  00003	8b 45 08	 mov	 eax, DWORD PTR __Arg$[ebp]

; 80   : 	}

  00006	5d		 pop	 ebp
  00007	c3		 ret	 0
??$forward@ABVioHashString@@@std@@YAABVioHashString@@ABV1@@Z ENDP ; std::forward<ioHashString const &>
_TEXT	ENDS
PUBLIC	??$forward@AAVioHashString@@@std@@YAAAVioHashString@@AAV1@@Z ; std::forward<ioHashString &>
; Function compile flags: /Ogsp
;	COMDAT ??$forward@AAVioHashString@@@std@@YAAAVioHashString@@AAV1@@Z
_TEXT	SEGMENT
__Arg$ = 8						; size = 4
??$forward@AAVioHashString@@@std@@YAAAVioHashString@@AAV1@@Z PROC ; std::forward<ioHashString &>, COMDAT

; 78   : 	{	// forward _Arg, given explicitly specified type parameter

  00000	55		 push	 ebp
  00001	8b ec		 mov	 ebp, esp

; 79   : 	return ((_Ty&&)_Arg);

  00003	8b 45 08	 mov	 eax, DWORD PTR __Arg$[ebp]

; 80   : 	}

  00006	5d		 pop	 ebp
  00007	c3		 ret	 0
??$forward@AAVioHashString@@@std@@YAAAVioHashString@@AAV1@@Z ENDP ; std::forward<ioHashString &>
_TEXT	ENDS
PUBLIC	??$_Ptr_cat@VioHashString@@V1@@std@@YA?AU_Nonscalar_ptr_iterator_tag@0@PAVioHashString@@0@Z ; std::_Ptr_cat<ioHashString,ioHashString>
; Function compile flags: /Ogsp
; File c:\program files (x86)\microsoft visual studio 10.0\vc\include\xutility
;	COMDAT ??$_Ptr_cat@VioHashString@@V1@@std@@YA?AU_Nonscalar_ptr_iterator_tag@0@PAVioHashString@@0@Z
_TEXT	SEGMENT
__Cat$ = -1						; size = 1
___formal$ = 8						; size = 4
___formal$ = 12						; size = 4
??$_Ptr_cat@VioHashString@@V1@@std@@YA?AU_Nonscalar_ptr_iterator_tag@0@PAVioHashString@@0@Z PROC ; std::_Ptr_cat<ioHashString,ioHashString>, COMDAT

; 516  : 	{	// return pointer category from pointers

  00000	55		 push	 ebp
  00001	8b ec		 mov	 ebp, esp
  00003	51		 push	 ecx

; 517  : 	typename _Ptr_cat_helper<_Elem1, _Elem2>::_Type _Cat;
; 518  : 	return (_Cat);

  00004	8a 45 ff	 mov	 al, BYTE PTR __Cat$[ebp]

; 519  : 	}

  00007	c9		 leave
  00008	c3		 ret	 0
??$_Ptr_cat@VioHashString@@V1@@std@@YA?AU_Nonscalar_ptr_iterator_tag@0@PAVioHashString@@0@Z ENDP ; std::_Ptr_cat<ioHashString,ioHashString>
_TEXT	ENDS
PUBLIC	??$move@AAVioHashString@@@std@@YA$$QAVioHashString@@AAV1@@Z ; std::move<ioHashString &>
; Function compile flags: /Ogsp
; File c:\program files (x86)\microsoft visual studio 10.0\vc\include\utility
;	COMDAT ??$move@AAVioHashString@@@std@@YA$$QAVioHashString@@AAV1@@Z
_TEXT	SEGMENT
__Arg$ = 8						; size = 4
??$move@AAVioHashString@@@std@@YA$$QAVioHashString@@AAV1@@Z PROC ; std::move<ioHashString &>, COMDAT

; 86   : 	{	// forward _Arg as movable

  00000	55		 push	 ebp
  00001	8b ec		 mov	 ebp, esp

; 87   : 	return ((typename tr1::_Remove_reference<_Ty>::_Type&&)_Arg);

  00003	8b 45 08	 mov	 eax, DWORD PTR __Arg$[ebp]

; 88   : 	}

  00006	5d		 pop	 ebp
  00007	c3		 ret	 0
??$move@AAVioHashString@@@std@@YA$$QAVioHashString@@AAV1@@Z ENDP ; std::move<ioHashString &>
_TEXT	ENDS
PUBLIC	??_GioHashString@@QAEPAXI@Z			; ioHashString::`scalar deleting destructor'
EXTRN	__imp_??1ioHashString@@QAE@XZ:PROC
; Function compile flags: /Ogsp
;	COMDAT ??_GioHashString@@QAEPAXI@Z
_TEXT	SEGMENT
___flags$ = 8						; size = 4
??_GioHashString@@QAEPAXI@Z PROC			; ioHashString::`scalar deleting destructor', COMDAT
; _this$ = ecx
  00000	55		 push	 ebp
  00001	8b ec		 mov	 ebp, esp
  00003	56		 push	 esi
  00004	8b f1		 mov	 esi, ecx
  00006	ff 15 00 00 00
	00		 call	 DWORD PTR __imp_??1ioHashString@@QAE@XZ
  0000c	f6 45 08 01	 test	 BYTE PTR ___flags$[ebp], 1
  00010	74 07		 je	 SHORT $LN1@scalar@4
  00012	56		 push	 esi
  00013	e8 00 00 00 00	 call	 ??3@YAXPAX@Z		; operator delete
  00018	59		 pop	 ecx
$LN1@scalar@4:
  00019	8b c6		 mov	 eax, esi
  0001b	5e		 pop	 esi
  0001c	5d		 pop	 ebp
  0001d	c2 04 00	 ret	 4
??_GioHashString@@QAEPAXI@Z ENDP			; ioHashString::`scalar deleting destructor'
_TEXT	ENDS
PUBLIC	??$_Construct@VioHashString@@ABV1@@std@@YAXPAVioHashString@@ABV1@@Z ; std::_Construct<ioHashString,ioHashString const &>
;	COMDAT xdata$x
xdata$x	SEGMENT
__unwindtable$??$_Construct@VioHashString@@ABV1@@std@@YAXPAVioHashString@@ABV1@@Z DD 0ffffffffH
	DD	FLAT:__unwindfunclet$??$_Construct@VioHashString@@ABV1@@std@@YAXPAVioHashString@@ABV1@@Z$0
__ehfuncinfo$??$_Construct@VioHashString@@ABV1@@std@@YAXPAVioHashString@@ABV1@@Z DD 019930522H
	DD	01H
	DD	FLAT:__unwindtable$??$_Construct@VioHashString@@ABV1@@std@@YAXPAVioHashString@@ABV1@@Z
	DD	2 DUP(00H)
	DD	2 DUP(00H)
	DD	00H
	DD	01H
; Function compile flags: /Ogsp
; File c:\program files (x86)\microsoft visual studio 10.0\vc\include\xmemory
xdata$x	ENDS
;	COMDAT ??$_Construct@VioHashString@@ABV1@@std@@YAXPAVioHashString@@ABV1@@Z
_TEXT	SEGMENT
$T527750 = -16						; size = 4
__$EHRec$ = -12						; size = 12
__Vptr$ = 8						; size = 4
__Ptr$ = 8						; size = 4
__Val$ = 12						; size = 4
??$_Construct@VioHashString@@ABV1@@std@@YAXPAVioHashString@@ABV1@@Z PROC ; std::_Construct<ioHashString,ioHashString const &>, COMDAT

; 46   : 	{	// construct object at _Ptr with value _Val

  00000	6a 04		 push	 4
  00002	b8 00 00 00 00	 mov	 eax, __ehhandler$??$_Construct@VioHashString@@ABV1@@std@@YAXPAVioHashString@@ABV1@@Z
  00007	e8 00 00 00 00	 call	 __EH_prolog3

; 47   : 	void _FARQ *_Vptr = _Ptr;

  0000c	8b 4d 08	 mov	 ecx, DWORD PTR __Ptr$[ebp]
  0000f	89 4d 08	 mov	 DWORD PTR __Vptr$[ebp], ecx

; 48   : 	::new (_Vptr) _Ty1(_STD forward<_Ty2>(_Val));

  00012	89 4d f0	 mov	 DWORD PTR $T527750[ebp], ecx
  00015	83 65 fc 00	 and	 DWORD PTR __$EHRec$[ebp+8], 0
  00019	85 c9		 test	 ecx, ecx
  0001b	74 09		 je	 SHORT $LN3@Construct
  0001d	ff 75 0c	 push	 DWORD PTR __Val$[ebp]
  00020	ff 15 00 00 00
	00		 call	 DWORD PTR __imp_??0ioHashString@@QAE@ABV0@@Z
$LN3@Construct:

; 49   : 	}

  00026	e8 00 00 00 00	 call	 __EH_epilog3
  0002b	c3		 ret	 0
_TEXT	ENDS
;	COMDAT text$x
text$x	SEGMENT
__unwindfunclet$??$_Construct@VioHashString@@ABV1@@std@@YAXPAVioHashString@@ABV1@@Z$0:
  00000	ff 75 08	 push	 DWORD PTR __Vptr$[ebp]
  00003	ff 75 f0	 push	 DWORD PTR $T527750[ebp]
  00006	e8 00 00 00 00	 call	 ??3@YAXPAX0@Z		; operator delete
  0000b	59		 pop	 ecx
  0000c	59		 pop	 ecx
  0000d	c3		 ret	 0
__ehhandler$??$_Construct@VioHashString@@ABV1@@std@@YAXPAVioHashString@@ABV1@@Z:
  0000e	8b 54 24 08	 mov	 edx, DWORD PTR [esp+8]
  00012	8d 42 0c	 lea	 eax, DWORD PTR [edx+12]
  00015	8b 4a ec	 mov	 ecx, DWORD PTR [edx-20]
  00018	33 c8		 xor	 ecx, eax
  0001a	e8 00 00 00 00	 call	 @__security_check_cookie@4
  0001f	b8 00 00 00 00	 mov	 eax, OFFSET __ehfuncinfo$??$_Construct@VioHashString@@ABV1@@std@@YAXPAVioHashString@@ABV1@@Z
  00024	e9 00 00 00 00	 jmp	 ___CxxFrameHandler3
text$x	ENDS
??$_Construct@VioHashString@@ABV1@@std@@YAXPAVioHashString@@ABV1@@Z ENDP ; std::_Construct<ioHashString,ioHashString const &>
PUBLIC	?GetBuffFlyJumpName@ioBaseChar@@QBEABVioHashString@@XZ ; ioBaseChar::GetBuffFlyJumpName
; Function compile flags: /Ogsp
; File d:\lost saga for developer\youtube\tutorial\source\src\lsclient\iobasechar.h
;	COMDAT ?GetBuffFlyJumpName@ioBaseChar@@QBEABVioHashString@@XZ
_TEXT	SEGMENT
?GetBuffFlyJumpName@ioBaseChar@@QBEABVioHashString@@XZ PROC ; ioBaseChar::GetBuffFlyJumpName, COMDAT
; _this$ = ecx

; 3055 : 	const ioHashString& GetBuffFlyJumpName() const { return m_vBuffFlyJumpInfoList[0].m_Name; }

  00000	8b 81 e4 18 00
	00		 mov	 eax, DWORD PTR [ecx+6372]
  00006	c3		 ret	 0
?GetBuffFlyJumpName@ioBaseChar@@QBEABVioHashString@@XZ ENDP ; ioBaseChar::GetBuffFlyJumpName
_TEXT	ENDS
PUBLIC	?EndBuff@ioMultiFlyJumpBuff@@UAEXXZ		; ioMultiFlyJumpBuff::EndBuff
EXTRN	?EndBuff@ioBuff@@UAEXXZ:PROC			; ioBuff::EndBuff
EXTRN	?RemoveBuffMultiFlyJumpValue@ioBaseChar@@QAEXABVioHashString@@@Z:PROC ; ioBaseChar::RemoveBuffMultiFlyJumpValue
EXTRN	?GetOwner@ioBuff@@QAEPAVioBaseChar@@XZ:PROC	; ioBuff::GetOwner
; Function compile flags: /Ogsp
; File d:\lost saga for developer\youtube\tutorial\source\src\lsclient\iomultiflyjumpbuff.cpp
;	COMDAT ?EndBuff@ioMultiFlyJumpBuff@@UAEXXZ
_TEXT	SEGMENT
?EndBuff@ioMultiFlyJumpBuff@@UAEXXZ PROC		; ioMultiFlyJumpBuff::EndBuff, COMDAT
; _this$ = ecx

; 211  : {

  00000	56		 push	 esi
  00001	8b f1		 mov	 esi, ecx

; 212  : 	ioBaseChar *pOwner = GetOwner();

  00003	e8 00 00 00 00	 call	 ?GetOwner@ioBuff@@QAEPAVioBaseChar@@XZ ; ioBuff::GetOwner

; 213  : 	if( pOwner )

  00008	85 c0		 test	 eax, eax
  0000a	74 0e		 je	 SHORT $LN1@EndBuff

; 214  : 		pOwner->RemoveBuffMultiFlyJumpValue( GetName() );

  0000c	8d 8e 34 02 00
	00		 lea	 ecx, DWORD PTR [esi+564]
  00012	51		 push	 ecx
  00013	8b c8		 mov	 ecx, eax
  00015	e8 00 00 00 00	 call	 ?RemoveBuffMultiFlyJumpValue@ioBaseChar@@QAEXABVioHashString@@@Z ; ioBaseChar::RemoveBuffMultiFlyJumpValue
$LN1@EndBuff:

; 215  : 
; 216  : 	ioBuff::EndBuff();

  0001a	8b ce		 mov	 ecx, esi
  0001c	5e		 pop	 esi
  0001d	e9 00 00 00 00	 jmp	 ?EndBuff@ioBuff@@UAEXXZ	; ioBuff::EndBuff
?EndBuff@ioMultiFlyJumpBuff@@UAEXXZ ENDP		; ioMultiFlyJumpBuff::EndBuff
_TEXT	ENDS
PUBLIC	??K?$CEncrypt@M@@QAEMABM@Z			; CEncrypt<float>::operator/
; Function compile flags: /Ogsp
; File d:\lost saga for developer\youtube\tutorial\source\src\lsclient\encryptvalue.h
;	COMDAT ??K?$CEncrypt@M@@QAEMABM@Z
_TEXT	SEGMENT
_value$ = -4						; size = 4
tv130 = 8						; size = 4
_inValue$ = 8						; size = 4
??K?$CEncrypt@M@@QAEMABM@Z PROC				; CEncrypt<float>::operator/, COMDAT
; _this$ = ecx

; 1695 : 	{

  00000	55		 push	 ebp
  00001	8b ec		 mov	 ebp, esp
  00003	51		 push	 ecx

; 1696 : 		type value;
; 1697 : 		DecryptValueToPool(&value);

  00004	8d 45 fc	 lea	 eax, DWORD PTR _value$[ebp]
  00007	50		 push	 eax
  00008	e8 00 00 00 00	 call	 ?DecryptValueToPool@?$CEncrypt@M@@QAEXPAM@Z ; CEncrypt<float>::DecryptValueToPool

; 1698 : #ifdef _NOTUSE
; 1699 : 		Debug();
; 1700 : #endif
; 1701 : 		return value / inValue;

  0000d	d9 45 fc	 fld	 DWORD PTR _value$[ebp]
  00010	8b 45 08	 mov	 eax, DWORD PTR _inValue$[ebp]
  00013	d8 30		 fdiv	 DWORD PTR [eax]
  00015	d9 5d 08	 fstp	 DWORD PTR tv130[ebp]
  00018	d9 45 08	 fld	 DWORD PTR tv130[ebp]

; 1702 : 	}

  0001b	c9		 leave
  0001c	c2 04 00	 ret	 4
??K?$CEncrypt@M@@QAEMABM@Z ENDP				; CEncrypt<float>::operator/
_TEXT	ENDS
PUBLIC	??N?$CEncrypt@M@@QAE_NABM@Z			; CEncrypt<float>::operator<=
; Function compile flags: /Ogsp
;	COMDAT ??N?$CEncrypt@M@@QAE_NABM@Z
_TEXT	SEGMENT
_value$ = -4						; size = 4
_inValue$ = 8						; size = 4
??N?$CEncrypt@M@@QAE_NABM@Z PROC			; CEncrypt<float>::operator<=, COMDAT
; _this$ = ecx

; 1821 : 	{

  00000	55		 push	 ebp
  00001	8b ec		 mov	 ebp, esp
  00003	51		 push	 ecx

; 1822 : 		type value;
; 1823 : 		DecryptValueToPool(&value);

  00004	8d 45 fc	 lea	 eax, DWORD PTR _value$[ebp]
  00007	50		 push	 eax
  00008	e8 00 00 00 00	 call	 ?DecryptValueToPool@?$CEncrypt@M@@QAEXPAM@Z ; CEncrypt<float>::DecryptValueToPool

; 1824 : #ifdef _NOTUSE
; 1825 : 		Debug();
; 1826 : #endif
; 1827 : 		return (value <= inValue);

  0000d	8b 45 08	 mov	 eax, DWORD PTR _inValue$[ebp]
  00010	f3 0f 10 08	 movss	 xmm1, DWORD PTR [eax]
  00014	f3 0f 10 45 fc	 movss	 xmm0, DWORD PTR _value$[ebp]
  00019	0f 5a c0	 cvtps2pd xmm0, xmm0
  0001c	0f 5a c9	 cvtps2pd xmm1, xmm1
  0001f	33 c0		 xor	 eax, eax
  00021	66 0f 2f c8	 comisd	 xmm1, xmm0
  00025	72 01		 jb	 SHORT $LN4@operator
  00027	40		 inc	 eax
$LN4@operator:

; 1828 : 	}

  00028	c9		 leave
  00029	c2 04 00	 ret	 4
??N?$CEncrypt@M@@QAE_NABM@Z ENDP			; CEncrypt<float>::operator<=
_TEXT	ENDS
PUBLIC	??N?$CEncrypt@K@@QAE_NABH@Z			; CEncrypt<unsigned long>::operator<=
; Function compile flags: /Ogsp
;	COMDAT ??N?$CEncrypt@K@@QAE_NABH@Z
_TEXT	SEGMENT
_value$ = -4						; size = 4
_inValue$ = 8						; size = 4
??N?$CEncrypt@K@@QAE_NABH@Z PROC			; CEncrypt<unsigned long>::operator<=, COMDAT
; _this$ = ecx

; 1020 : 	{

  00000	55		 push	 ebp
  00001	8b ec		 mov	 ebp, esp
  00003	51		 push	 ecx

; 1021 : 		
; 1022 : 		type value;
; 1023 : 		DecryptValueToPool(&value);

  00004	8d 45 fc	 lea	 eax, DWORD PTR _value$[ebp]
  00007	50		 push	 eax
  00008	e8 00 00 00 00	 call	 ?DecryptValueToPool@?$CEncrypt@K@@QAEXPAK@Z ; CEncrypt<unsigned long>::DecryptValueToPool

; 1024 : #ifdef _NOTUSE
; 1025 : 		Debug();
; 1026 : #endif
; 1027 : 		return (value <= inValue);

  0000d	8b 45 08	 mov	 eax, DWORD PTR _inValue$[ebp]
  00010	8b 00		 mov	 eax, DWORD PTR [eax]
  00012	3b 45 fc	 cmp	 eax, DWORD PTR _value$[ebp]
  00015	1b c0		 sbb	 eax, eax
  00017	40		 inc	 eax

; 1028 : 	}		

  00018	c9		 leave
  00019	c2 04 00	 ret	 4
??N?$CEncrypt@K@@QAE_NABH@Z ENDP			; CEncrypt<unsigned long>::operator<=
_TEXT	ENDS
PUBLIC	??H?$CEncrypt@K@@QAEKABK@Z			; CEncrypt<unsigned long>::operator+
; Function compile flags: /Ogsp
;	COMDAT ??H?$CEncrypt@K@@QAEKABK@Z
_TEXT	SEGMENT
_value$ = -4						; size = 4
_inValue$ = 8						; size = 4
??H?$CEncrypt@K@@QAEKABK@Z PROC				; CEncrypt<unsigned long>::operator+, COMDAT
; _this$ = ecx

; 1285 : 	{

  00000	55		 push	 ebp
  00001	8b ec		 mov	 ebp, esp
  00003	51		 push	 ecx

; 1286 : 		type value;
; 1287 : 		DecryptValueToPool(&value);

  00004	8d 45 fc	 lea	 eax, DWORD PTR _value$[ebp]
  00007	50		 push	 eax
  00008	e8 00 00 00 00	 call	 ?DecryptValueToPool@?$CEncrypt@K@@QAEXPAK@Z ; CEncrypt<unsigned long>::DecryptValueToPool

; 1288 : #ifdef _NOTUSE
; 1289 : 		Debug();
; 1290 : #endif
; 1291 : 		return value + inValue;

  0000d	8b 45 08	 mov	 eax, DWORD PTR _inValue$[ebp]
  00010	8b 00		 mov	 eax, DWORD PTR [eax]
  00012	03 45 fc	 add	 eax, DWORD PTR _value$[ebp]

; 1292 : 	}

  00015	c9		 leave
  00016	c2 04 00	 ret	 4
??H?$CEncrypt@K@@QAEKABK@Z ENDP				; CEncrypt<unsigned long>::operator+
_TEXT	ENDS
PUBLIC	??B?$CEncrypt@W4JumpState@@@@QBE?AW4JumpState@@XZ ; CEncrypt<enum JumpState>::operator enum JumpState
; Function compile flags: /Ogsp
;	COMDAT ??B?$CEncrypt@W4JumpState@@@@QBE?AW4JumpState@@XZ
_TEXT	SEGMENT
_value$ = -4						; size = 4
??B?$CEncrypt@W4JumpState@@@@QBE?AW4JumpState@@XZ PROC	; CEncrypt<enum JumpState>::operator enum JumpState, COMDAT
; _this$ = ecx

; 145  : 	{

  00000	55		 push	 ebp
  00001	8b ec		 mov	 ebp, esp
  00003	51		 push	 ecx

; 146  : 		//UJ 130829, const도 똑같이 하면 된다 --start
; 147  : 		type value;
; 148  : 		CEncrypt<type>* pThis = const_cast<CEncrypt<type>*>(this);
; 149  : 		pThis->DecryptValueToPool(&value);

  00004	8d 45 fc	 lea	 eax, DWORD PTR _value$[ebp]
  00007	50		 push	 eax
  00008	e8 00 00 00 00	 call	 ?DecryptValueToPool@?$CEncrypt@W4JumpState@@@@QAEXPAW4JumpState@@@Z ; CEncrypt<enum JumpState>::DecryptValueToPool

; 150  : 		//// const에서 DecryptValueToPool 사용할 수 없으므로 아래와 같이함.
; 151  :  		//type value;
; 152  : 		//char szTempMem[MAX_ENCRYPT];
; 153  : 		//m_RC5.DecryptByte( m_MemPool, szTempMem, max(m_ValueSize, DEFAULT_ENCRYPT) );
; 154  : 		//memcpy( &value, szTempMem, m_ValueSize );
; 155  : 		//UJ --end
; 156  : 
; 157  : #ifdef _NOTUSE
; 158  : 		Debug();
; 159  : #endif
; 160  : 		return value;

  0000d	8b 45 fc	 mov	 eax, DWORD PTR _value$[ebp]

; 161  : 	}

  00010	c9		 leave
  00011	c3		 ret	 0
??B?$CEncrypt@W4JumpState@@@@QBE?AW4JumpState@@XZ ENDP	; CEncrypt<enum JumpState>::operator enum JumpState
_TEXT	ENDS
PUBLIC	__$ArrayPad$
PUBLIC	??$LoadBool_e@$0O@@ioINILoader@@QAE_NAAY0O@$$CBD_N@Z ; ioINILoader::LoadBool_e<14>
EXTRN	__imp_?LoadBool@ioINILoader@@QAE_NPBD_N@Z:PROC
EXTRN	___security_cookie:DWORD
; Function compile flags: /Ogsp
; File d:\lost saga for developer\youtube\tutorial\source\src\io3dengine\ioiniloader.h
;	COMDAT ??$LoadBool_e@$0O@@ioINILoader@@QAE_NAAY0O@$$CBD_N@Z
_TEXT	SEGMENT
__k$ = -24						; size = 14
__$ArrayPad$ = -4					; size = 4
_k$ = 8							; size = 4
_b$ = 12						; size = 1
??$LoadBool_e@$0O@@ioINILoader@@QAE_NAAY0O@$$CBD_N@Z PROC ; ioINILoader::LoadBool_e<14>, COMDAT
; _this$ = ecx

; 101  : 	{

  00000	55		 push	 ebp
  00001	8b ec		 mov	 ebp, esp
  00003	83 ec 18	 sub	 esp, 24			; 00000018H
  00006	a1 00 00 00 00	 mov	 eax, DWORD PTR ___security_cookie
  0000b	33 c5		 xor	 eax, ebp
  0000d	89 45 fc	 mov	 DWORD PTR __$ArrayPad$[ebp], eax
  00010	8b 45 08	 mov	 eax, DWORD PTR _k$[ebp]

; 102  : 		_ENCSTR(k, _k);

  00013	8a 10		 mov	 dl, BYTE PTR [eax]
  00015	56		 push	 esi
  00016	8b f1		 mov	 esi, ecx
  00018	84 d2		 test	 dl, dl
  0001a	0f 84 64 01 00
	00		 je	 $LN96@LoadBool_e
  00020	80 f2 ed	 xor	 dl, -19			; ffffffedH
  00023	88 55 e8	 mov	 BYTE PTR __k$[ebp], dl
  00026	8a 50 01	 mov	 dl, BYTE PTR [eax+1]
  00029	84 d2		 test	 dl, dl
  0002b	0f 84 4d 01 00
	00		 je	 $LN95@LoadBool_e
  00031	80 f2 ec	 xor	 dl, -20			; ffffffecH
  00034	88 55 e9	 mov	 BYTE PTR __k$[ebp+1], dl
  00037	8a 50 02	 mov	 dl, BYTE PTR [eax+2]
  0003a	84 d2		 test	 dl, dl
  0003c	0f 84 36 01 00
	00		 je	 $LN94@LoadBool_e
  00042	b1 eb		 mov	 cl, -21			; ffffffebH
  00044	32 d1		 xor	 dl, cl
  00046	88 55 ea	 mov	 BYTE PTR __k$[ebp+2], dl
  00049	8a 50 03	 mov	 dl, BYTE PTR [eax+3]
  0004c	84 d2		 test	 dl, dl
  0004e	0f 84 1e 01 00
	00		 je	 $LN93@LoadBool_e
  00054	80 f2 ea	 xor	 dl, -22			; ffffffeaH
  00057	88 55 eb	 mov	 BYTE PTR __k$[ebp+3], dl
  0005a	8a 50 04	 mov	 dl, BYTE PTR [eax+4]
  0005d	84 d2		 test	 dl, dl
  0005f	0f 84 07 01 00
	00		 je	 $LN92@LoadBool_e
  00065	80 f2 ed	 xor	 dl, -19			; ffffffedH
  00068	88 55 ec	 mov	 BYTE PTR __k$[ebp+4], dl
  0006b	8a 50 05	 mov	 dl, BYTE PTR [eax+5]
  0006e	84 d2		 test	 dl, dl
  00070	0f 84 f0 00 00
	00		 je	 $LN91@LoadBool_e
  00076	80 f2 ec	 xor	 dl, -20			; ffffffecH
  00079	88 55 ed	 mov	 BYTE PTR __k$[ebp+5], dl
  0007c	8a 50 06	 mov	 dl, BYTE PTR [eax+6]
  0007f	84 d2		 test	 dl, dl
  00081	0f 84 da 00 00
	00		 je	 $LN90@LoadBool_e
  00087	32 d1		 xor	 dl, cl
  00089	88 55 ee	 mov	 BYTE PTR __k$[ebp+6], dl
  0008c	8a 50 07	 mov	 dl, BYTE PTR [eax+7]
  0008f	84 d2		 test	 dl, dl
  00091	0f 84 c4 00 00
	00		 je	 $LN89@LoadBool_e
  00097	80 f2 ea	 xor	 dl, -22			; ffffffeaH
  0009a	88 55 ef	 mov	 BYTE PTR __k$[ebp+7], dl
  0009d	8a 50 08	 mov	 dl, BYTE PTR [eax+8]
  000a0	84 d2		 test	 dl, dl
  000a2	0f 84 ad 00 00
	00		 je	 $LN88@LoadBool_e
  000a8	80 f2 ed	 xor	 dl, -19			; ffffffedH
  000ab	88 55 f0	 mov	 BYTE PTR __k$[ebp+8], dl
  000ae	8a 50 09	 mov	 dl, BYTE PTR [eax+9]
  000b1	84 d2		 test	 dl, dl
  000b3	0f 84 96 00 00
	00		 je	 $LN87@LoadBool_e
  000b9	80 f2 ec	 xor	 dl, -20			; ffffffecH
  000bc	88 55 f1	 mov	 BYTE PTR __k$[ebp+9], dl
  000bf	8a 50 0a	 mov	 dl, BYTE PTR [eax+10]
  000c2	84 d2		 test	 dl, dl
  000c4	0f 84 80 00 00
	00		 je	 $LN86@LoadBool_e
  000ca	32 d1		 xor	 dl, cl
  000cc	88 55 f2	 mov	 BYTE PTR __k$[ebp+10], dl
  000cf	8a 50 0b	 mov	 dl, BYTE PTR [eax+11]
  000d2	84 d2		 test	 dl, dl
  000d4	74 6e		 je	 SHORT $LN85@LoadBool_e
  000d6	80 f2 ea	 xor	 dl, -22			; ffffffeaH
  000d9	88 55 f3	 mov	 BYTE PTR __k$[ebp+11], dl
  000dc	8a 50 0c	 mov	 dl, BYTE PTR [eax+12]
  000df	84 d2		 test	 dl, dl
  000e1	74 5b		 je	 SHORT $LN84@LoadBool_e
  000e3	80 f2 ed	 xor	 dl, -19			; ffffffedH
  000e6	80 78 0d 00	 cmp	 BYTE PTR [eax+13], 0
  000ea	88 55 f4	 mov	 BYTE PTR __k$[ebp+12], dl
  000ed	0f 84 95 00 00
	00		 je	 $LN1@LoadBool_e
  000f3	8a 50 0e	 mov	 dl, BYTE PTR [eax+14]
  000f6	84 d2		 test	 dl, dl
  000f8	74 3f		 je	 SHORT $LN82@LoadBool_e
  000fa	32 d1		 xor	 dl, cl
  000fc	88 55 f6	 mov	 BYTE PTR __k$[ebp+14], dl
  000ff	8a 50 0f	 mov	 dl, BYTE PTR [eax+15]
  00102	84 d2		 test	 dl, dl
  00104	74 2d		 je	 SHORT $LN81@LoadBool_e
  00106	80 f2 ea	 xor	 dl, -22			; ffffffeaH
  00109	88 55 f7	 mov	 BYTE PTR __k$[ebp+15], dl
  0010c	8a 50 10	 mov	 dl, BYTE PTR [eax+16]
  0010f	84 d2		 test	 dl, dl
  00111	74 1a		 je	 SHORT $LN80@LoadBool_e
  00113	8a 40 11	 mov	 al, BYTE PTR [eax+17]
  00116	80 f2 ed	 xor	 dl, -19			; ffffffedH
  00119	88 55 f8	 mov	 BYTE PTR __k$[ebp+16], dl
  0011c	84 c0		 test	 al, al
  0011e	74 07		 je	 SHORT $LN79@LoadBool_e
  00120	34 ec		 xor	 al, -20			; ffffffecH
  00122	88 45 f9	 mov	 BYTE PTR __k$[ebp+17], al
  00125	eb 61		 jmp	 SHORT $LN1@LoadBool_e
$LN79@LoadBool_e:
  00127	c6 45 f9 ec	 mov	 BYTE PTR __k$[ebp+17], -20 ; ffffffecH
  0012b	eb 5b		 jmp	 SHORT $LN1@LoadBool_e
$LN80@LoadBool_e:
  0012d	c6 45 f8 ed	 mov	 BYTE PTR __k$[ebp+16], -19 ; ffffffedH
  00131	eb 55		 jmp	 SHORT $LN1@LoadBool_e
$LN81@LoadBool_e:
  00133	c6 45 f7 ea	 mov	 BYTE PTR __k$[ebp+15], -22 ; ffffffeaH
  00137	eb 4f		 jmp	 SHORT $LN1@LoadBool_e
$LN82@LoadBool_e:
  00139	88 4d f6	 mov	 BYTE PTR __k$[ebp+14], cl
  0013c	eb 4a		 jmp	 SHORT $LN1@LoadBool_e
$LN84@LoadBool_e:
  0013e	c6 45 f4 ed	 mov	 BYTE PTR __k$[ebp+12], -19 ; ffffffedH
  00142	eb 44		 jmp	 SHORT $LN1@LoadBool_e
$LN85@LoadBool_e:
  00144	c6 45 f3 ea	 mov	 BYTE PTR __k$[ebp+11], -22 ; ffffffeaH
  00148	eb 3e		 jmp	 SHORT $LN1@LoadBool_e
$LN86@LoadBool_e:
  0014a	88 4d f2	 mov	 BYTE PTR __k$[ebp+10], cl
  0014d	eb 39		 jmp	 SHORT $LN1@LoadBool_e
$LN87@LoadBool_e:
  0014f	c6 45 f1 ec	 mov	 BYTE PTR __k$[ebp+9], -20 ; ffffffecH
  00153	eb 33		 jmp	 SHORT $LN1@LoadBool_e
$LN88@LoadBool_e:
  00155	c6 45 f0 ed	 mov	 BYTE PTR __k$[ebp+8], -19 ; ffffffedH
  00159	eb 2d		 jmp	 SHORT $LN1@LoadBool_e
$LN89@LoadBool_e:
  0015b	c6 45 ef ea	 mov	 BYTE PTR __k$[ebp+7], -22 ; ffffffeaH
  0015f	eb 27		 jmp	 SHORT $LN1@LoadBool_e
$LN90@LoadBool_e:
  00161	88 4d ee	 mov	 BYTE PTR __k$[ebp+6], cl
  00164	eb 22		 jmp	 SHORT $LN1@LoadBool_e
$LN91@LoadBool_e:
  00166	c6 45 ed ec	 mov	 BYTE PTR __k$[ebp+5], -20 ; ffffffecH
  0016a	eb 1c		 jmp	 SHORT $LN1@LoadBool_e
$LN92@LoadBool_e:
  0016c	c6 45 ec ed	 mov	 BYTE PTR __k$[ebp+4], -19 ; ffffffedH
  00170	eb 16		 jmp	 SHORT $LN1@LoadBool_e
$LN93@LoadBool_e:
  00172	c6 45 eb ea	 mov	 BYTE PTR __k$[ebp+3], -22 ; ffffffeaH
  00176	eb 10		 jmp	 SHORT $LN1@LoadBool_e
$LN94@LoadBool_e:
  00178	c6 45 ea eb	 mov	 BYTE PTR __k$[ebp+2], -21 ; ffffffebH
  0017c	eb 0a		 jmp	 SHORT $LN1@LoadBool_e
$LN95@LoadBool_e:
  0017e	c6 45 e9 ec	 mov	 BYTE PTR __k$[ebp+1], -20 ; ffffffecH
  00182	eb 04		 jmp	 SHORT $LN1@LoadBool_e
$LN96@LoadBool_e:
  00184	c6 45 e8 ed	 mov	 BYTE PTR __k$[ebp], -19	; ffffffedH
$LN1@LoadBool_e:
  00188	6a 03		 push	 3
  0018a	8d 45 e8	 lea	 eax, DWORD PTR __k$[ebp]
  0018d	c6 45 f5 00	 mov	 BYTE PTR __k$[ebp+13], 0
  00191	5a		 pop	 edx
$LL104@LoadBool_e:
  00192	81 30 ed ec eb
	ea		 xor	 DWORD PTR [eax], -353637139 ; eaebecedH
  00198	83 c0 04	 add	 eax, 4
  0019b	4a		 dec	 edx
  0019c	75 f4		 jne	 SHORT $LL104@LoadBool_e

; 103  : 		return LoadBool(_k, b);

  0019e	ff 75 0c	 push	 DWORD PTR _b$[ebp]
  001a1	80 75 f4 ed	 xor	 BYTE PTR __k$[ebp+12], -19 ; ffffffedH
  001a5	8d 45 e8	 lea	 eax, DWORD PTR __k$[ebp]
  001a8	50		 push	 eax
  001a9	8b ce		 mov	 ecx, esi
  001ab	ff 15 00 00 00
	00		 call	 DWORD PTR __imp_?LoadBool@ioINILoader@@QAE_NPBD_N@Z

; 104  : 	}

  001b1	8b 4d fc	 mov	 ecx, DWORD PTR __$ArrayPad$[ebp]
  001b4	33 cd		 xor	 ecx, ebp
  001b6	5e		 pop	 esi
  001b7	e8 00 00 00 00	 call	 @__security_check_cookie@4
  001bc	c9		 leave
  001bd	c2 08 00	 ret	 8
??$LoadBool_e@$0O@@ioINILoader@@QAE_NAAY0O@$$CBD_N@Z ENDP ; ioINILoader::LoadBool_e<14>
_TEXT	ENDS
PUBLIC	__$ArrayPad$
PUBLIC	??$LoadBool_e@$0N@@ioINILoader@@QAE_NAAY0N@$$CBD_N@Z ; ioINILoader::LoadBool_e<13>
; Function compile flags: /Ogsp
;	COMDAT ??$LoadBool_e@$0N@@ioINILoader@@QAE_NAAY0N@$$CBD_N@Z
_TEXT	SEGMENT
__k$ = -24						; size = 13
__$ArrayPad$ = -4					; size = 4
_k$ = 8							; size = 4
_b$ = 12						; size = 1
??$LoadBool_e@$0N@@ioINILoader@@QAE_NAAY0N@$$CBD_N@Z PROC ; ioINILoader::LoadBool_e<13>, COMDAT
; _this$ = ecx

; 101  : 	{

  00000	55		 push	 ebp
  00001	8b ec		 mov	 ebp, esp
  00003	83 ec 18	 sub	 esp, 24			; 00000018H
  00006	a1 00 00 00 00	 mov	 eax, DWORD PTR ___security_cookie
  0000b	33 c5		 xor	 eax, ebp
  0000d	89 45 fc	 mov	 DWORD PTR __$ArrayPad$[ebp], eax
  00010	8b 45 08	 mov	 eax, DWORD PTR _k$[ebp]

; 102  : 		_ENCSTR(k, _k);

  00013	8a 10		 mov	 dl, BYTE PTR [eax]
  00015	56		 push	 esi
  00016	8b f1		 mov	 esi, ecx
  00018	84 d2		 test	 dl, dl
  0001a	0f 84 4d 01 00
	00		 je	 $LN96@LoadBool_e@2
  00020	80 f2 ed	 xor	 dl, -19			; ffffffedH
  00023	88 55 e8	 mov	 BYTE PTR __k$[ebp], dl
  00026	8a 50 01	 mov	 dl, BYTE PTR [eax+1]
  00029	84 d2		 test	 dl, dl
  0002b	0f 84 36 01 00
	00		 je	 $LN95@LoadBool_e@2
  00031	b1 ec		 mov	 cl, -20			; ffffffecH
  00033	32 d1		 xor	 dl, cl
  00035	88 55 e9	 mov	 BYTE PTR __k$[ebp+1], dl
  00038	8a 50 02	 mov	 dl, BYTE PTR [eax+2]
  0003b	84 d2		 test	 dl, dl
  0003d	0f 84 1e 01 00
	00		 je	 $LN94@LoadBool_e@2
  00043	80 f2 eb	 xor	 dl, -21			; ffffffebH
  00046	88 55 ea	 mov	 BYTE PTR __k$[ebp+2], dl
  00049	8a 50 03	 mov	 dl, BYTE PTR [eax+3]
  0004c	84 d2		 test	 dl, dl
  0004e	0f 84 07 01 00
	00		 je	 $LN93@LoadBool_e@2
  00054	80 f2 ea	 xor	 dl, -22			; ffffffeaH
  00057	88 55 eb	 mov	 BYTE PTR __k$[ebp+3], dl
  0005a	8a 50 04	 mov	 dl, BYTE PTR [eax+4]
  0005d	84 d2		 test	 dl, dl
  0005f	0f 84 f0 00 00
	00		 je	 $LN92@LoadBool_e@2
  00065	80 f2 ed	 xor	 dl, -19			; ffffffedH
  00068	88 55 ec	 mov	 BYTE PTR __k$[ebp+4], dl
  0006b	8a 50 05	 mov	 dl, BYTE PTR [eax+5]
  0006e	84 d2		 test	 dl, dl
  00070	0f 84 da 00 00
	00		 je	 $LN91@LoadBool_e@2
  00076	32 d1		 xor	 dl, cl
  00078	88 55 ed	 mov	 BYTE PTR __k$[ebp+5], dl
  0007b	8a 50 06	 mov	 dl, BYTE PTR [eax+6]
  0007e	84 d2		 test	 dl, dl
  00080	0f 84 c4 00 00
	00		 je	 $LN90@LoadBool_e@2
  00086	80 f2 eb	 xor	 dl, -21			; ffffffebH
  00089	88 55 ee	 mov	 BYTE PTR __k$[ebp+6], dl
  0008c	8a 50 07	 mov	 dl, BYTE PTR [eax+7]
  0008f	84 d2		 test	 dl, dl
  00091	0f 84 ad 00 00
	00		 je	 $LN89@LoadBool_e@2
  00097	80 f2 ea	 xor	 dl, -22			; ffffffeaH
  0009a	88 55 ef	 mov	 BYTE PTR __k$[ebp+7], dl
  0009d	8a 50 08	 mov	 dl, BYTE PTR [eax+8]
  000a0	84 d2		 test	 dl, dl
  000a2	0f 84 96 00 00
	00		 je	 $LN88@LoadBool_e@2
  000a8	80 f2 ed	 xor	 dl, -19			; ffffffedH
  000ab	88 55 f0	 mov	 BYTE PTR __k$[ebp+8], dl
  000ae	8a 50 09	 mov	 dl, BYTE PTR [eax+9]
  000b1	84 d2		 test	 dl, dl
  000b3	0f 84 80 00 00
	00		 je	 $LN87@LoadBool_e@2
  000b9	32 d1		 xor	 dl, cl
  000bb	88 55 f1	 mov	 BYTE PTR __k$[ebp+9], dl
  000be	8a 50 0a	 mov	 dl, BYTE PTR [eax+10]
  000c1	84 d2		 test	 dl, dl
  000c3	74 6e		 je	 SHORT $LN86@LoadBool_e@2
  000c5	80 f2 eb	 xor	 dl, -21			; ffffffebH
  000c8	88 55 f2	 mov	 BYTE PTR __k$[ebp+10], dl
  000cb	8a 50 0b	 mov	 dl, BYTE PTR [eax+11]
  000ce	84 d2		 test	 dl, dl
  000d0	74 5b		 je	 SHORT $LN85@LoadBool_e@2
  000d2	80 f2 ea	 xor	 dl, -22			; ffffffeaH
  000d5	80 78 0c 00	 cmp	 BYTE PTR [eax+12], 0
  000d9	88 55 f3	 mov	 BYTE PTR __k$[ebp+11], dl
  000dc	0f 84 8f 00 00
	00		 je	 $LN1@LoadBool_e@2
  000e2	8a 50 0d	 mov	 dl, BYTE PTR [eax+13]
  000e5	84 d2		 test	 dl, dl
  000e7	74 3f		 je	 SHORT $LN83@LoadBool_e@2
  000e9	32 d1		 xor	 dl, cl
  000eb	88 55 f5	 mov	 BYTE PTR __k$[ebp+13], dl
  000ee	8a 50 0e	 mov	 dl, BYTE PTR [eax+14]
  000f1	84 d2		 test	 dl, dl
  000f3	74 2d		 je	 SHORT $LN82@LoadBool_e@2
  000f5	80 f2 eb	 xor	 dl, -21			; ffffffebH
  000f8	88 55 f6	 mov	 BYTE PTR __k$[ebp+14], dl
  000fb	8a 50 0f	 mov	 dl, BYTE PTR [eax+15]
  000fe	84 d2		 test	 dl, dl
  00100	74 1a		 je	 SHORT $LN81@LoadBool_e@2
  00102	8a 40 10	 mov	 al, BYTE PTR [eax+16]
  00105	80 f2 ea	 xor	 dl, -22			; ffffffeaH
  00108	88 55 f7	 mov	 BYTE PTR __k$[ebp+15], dl
  0010b	84 c0		 test	 al, al
  0010d	74 07		 je	 SHORT $LN80@LoadBool_e@2
  0010f	34 ed		 xor	 al, -19			; ffffffedH
  00111	88 45 f8	 mov	 BYTE PTR __k$[ebp+16], al
  00114	eb 5b		 jmp	 SHORT $LN1@LoadBool_e@2
$LN80@LoadBool_e@2:
  00116	c6 45 f8 ed	 mov	 BYTE PTR __k$[ebp+16], -19 ; ffffffedH
  0011a	eb 55		 jmp	 SHORT $LN1@LoadBool_e@2
$LN81@LoadBool_e@2:
  0011c	c6 45 f7 ea	 mov	 BYTE PTR __k$[ebp+15], -22 ; ffffffeaH
  00120	eb 4f		 jmp	 SHORT $LN1@LoadBool_e@2
$LN82@LoadBool_e@2:
  00122	c6 45 f6 eb	 mov	 BYTE PTR __k$[ebp+14], -21 ; ffffffebH
  00126	eb 49		 jmp	 SHORT $LN1@LoadBool_e@2
$LN83@LoadBool_e@2:
  00128	88 4d f5	 mov	 BYTE PTR __k$[ebp+13], cl
  0012b	eb 44		 jmp	 SHORT $LN1@LoadBool_e@2
$LN85@LoadBool_e@2:
  0012d	c6 45 f3 ea	 mov	 BYTE PTR __k$[ebp+11], -22 ; ffffffeaH
  00131	eb 3e		 jmp	 SHORT $LN1@LoadBool_e@2
$LN86@LoadBool_e@2:
  00133	c6 45 f2 eb	 mov	 BYTE PTR __k$[ebp+10], -21 ; ffffffebH
  00137	eb 38		 jmp	 SHORT $LN1@LoadBool_e@2
$LN87@LoadBool_e@2:
  00139	88 4d f1	 mov	 BYTE PTR __k$[ebp+9], cl
  0013c	eb 33		 jmp	 SHORT $LN1@LoadBool_e@2
$LN88@LoadBool_e@2:
  0013e	c6 45 f0 ed	 mov	 BYTE PTR __k$[ebp+8], -19 ; ffffffedH
  00142	eb 2d		 jmp	 SHORT $LN1@LoadBool_e@2
$LN89@LoadBool_e@2:
  00144	c6 45 ef ea	 mov	 BYTE PTR __k$[ebp+7], -22 ; ffffffeaH
  00148	eb 27		 jmp	 SHORT $LN1@LoadBool_e@2
$LN90@LoadBool_e@2:
  0014a	c6 45 ee eb	 mov	 BYTE PTR __k$[ebp+6], -21 ; ffffffebH
  0014e	eb 21		 jmp	 SHORT $LN1@LoadBool_e@2
$LN91@LoadBool_e@2:
  00150	88 4d ed	 mov	 BYTE PTR __k$[ebp+5], cl
  00153	eb 1c		 jmp	 SHORT $LN1@LoadBool_e@2
$LN92@LoadBool_e@2:
  00155	c6 45 ec ed	 mov	 BYTE PTR __k$[ebp+4], -19 ; ffffffedH
  00159	eb 16		 jmp	 SHORT $LN1@LoadBool_e@2
$LN93@LoadBool_e@2:
  0015b	c6 45 eb ea	 mov	 BYTE PTR __k$[ebp+3], -22 ; ffffffeaH
  0015f	eb 10		 jmp	 SHORT $LN1@LoadBool_e@2
$LN94@LoadBool_e@2:
  00161	c6 45 ea eb	 mov	 BYTE PTR __k$[ebp+2], -21 ; ffffffebH
  00165	eb 0a		 jmp	 SHORT $LN1@LoadBool_e@2
$LN95@LoadBool_e@2:
  00167	c6 45 e9 ec	 mov	 BYTE PTR __k$[ebp+1], -20 ; ffffffecH
  0016b	eb 04		 jmp	 SHORT $LN1@LoadBool_e@2
$LN96@LoadBool_e@2:
  0016d	c6 45 e8 ed	 mov	 BYTE PTR __k$[ebp], -19	; ffffffedH
$LN1@LoadBool_e@2:
  00171	6a 03		 push	 3
  00173	8d 45 e8	 lea	 eax, DWORD PTR __k$[ebp]
  00176	c6 45 f4 00	 mov	 BYTE PTR __k$[ebp+12], 0
  0017a	5a		 pop	 edx
$LL104@LoadBool_e@2:
  0017b	81 30 ed ec eb
	ea		 xor	 DWORD PTR [eax], -353637139 ; eaebecedH
  00181	83 c0 04	 add	 eax, 4
  00184	4a		 dec	 edx
  00185	75 f4		 jne	 SHORT $LL104@LoadBool_e@2

; 103  : 		return LoadBool(_k, b);

  00187	ff 75 0c	 push	 DWORD PTR _b$[ebp]
  0018a	8d 45 e8	 lea	 eax, DWORD PTR __k$[ebp]
  0018d	50		 push	 eax
  0018e	8b ce		 mov	 ecx, esi
  00190	ff 15 00 00 00
	00		 call	 DWORD PTR __imp_?LoadBool@ioINILoader@@QAE_NPBD_N@Z

; 104  : 	}

  00196	8b 4d fc	 mov	 ecx, DWORD PTR __$ArrayPad$[ebp]
  00199	33 cd		 xor	 ecx, ebp
  0019b	5e		 pop	 esi
  0019c	e8 00 00 00 00	 call	 @__security_check_cookie@4
  001a1	c9		 leave
  001a2	c2 08 00	 ret	 8
??$LoadBool_e@$0N@@ioINILoader@@QAE_NAAY0N@$$CBD_N@Z ENDP ; ioINILoader::LoadBool_e<13>
_TEXT	ENDS
PUBLIC	__$ArrayPad$
PUBLIC	??$LoadFloat_e@$0O@@ioINILoader@@QAEMAAY0O@$$CBDM@Z ; ioINILoader::LoadFloat_e<14>
EXTRN	__imp_?LoadFloat@ioINILoader@@QAEMPBDM@Z:PROC
; Function compile flags: /Ogsp
;	COMDAT ??$LoadFloat_e@$0O@@ioINILoader@@QAEMAAY0O@$$CBDM@Z
_TEXT	SEGMENT
__k$ = -24						; size = 14
__$ArrayPad$ = -4					; size = 4
_k$ = 8							; size = 4
_f$ = 12						; size = 4
??$LoadFloat_e@$0O@@ioINILoader@@QAEMAAY0O@$$CBDM@Z PROC ; ioINILoader::LoadFloat_e<14>, COMDAT
; _this$ = ecx

; 135  : 	{

  00000	55		 push	 ebp
  00001	8b ec		 mov	 ebp, esp
  00003	83 ec 18	 sub	 esp, 24			; 00000018H
  00006	a1 00 00 00 00	 mov	 eax, DWORD PTR ___security_cookie
  0000b	33 c5		 xor	 eax, ebp
  0000d	89 45 fc	 mov	 DWORD PTR __$ArrayPad$[ebp], eax
  00010	8b 45 08	 mov	 eax, DWORD PTR _k$[ebp]

; 136  : 		_ENCSTR(k, _k);

  00013	8a 10		 mov	 dl, BYTE PTR [eax]
  00015	56		 push	 esi
  00016	8b f1		 mov	 esi, ecx
  00018	84 d2		 test	 dl, dl
  0001a	0f 84 64 01 00
	00		 je	 $LN96@LoadFloat_
  00020	80 f2 ed	 xor	 dl, -19			; ffffffedH
  00023	88 55 e8	 mov	 BYTE PTR __k$[ebp], dl
  00026	8a 50 01	 mov	 dl, BYTE PTR [eax+1]
  00029	84 d2		 test	 dl, dl
  0002b	0f 84 4d 01 00
	00		 je	 $LN95@LoadFloat_
  00031	80 f2 ec	 xor	 dl, -20			; ffffffecH
  00034	88 55 e9	 mov	 BYTE PTR __k$[ebp+1], dl
  00037	8a 50 02	 mov	 dl, BYTE PTR [eax+2]
  0003a	84 d2		 test	 dl, dl
  0003c	0f 84 36 01 00
	00		 je	 $LN94@LoadFloat_
  00042	b1 eb		 mov	 cl, -21			; ffffffebH
  00044	32 d1		 xor	 dl, cl
  00046	88 55 ea	 mov	 BYTE PTR __k$[ebp+2], dl
  00049	8a 50 03	 mov	 dl, BYTE PTR [eax+3]
  0004c	84 d2		 test	 dl, dl
  0004e	0f 84 1e 01 00
	00		 je	 $LN93@LoadFloat_
  00054	80 f2 ea	 xor	 dl, -22			; ffffffeaH
  00057	88 55 eb	 mov	 BYTE PTR __k$[ebp+3], dl
  0005a	8a 50 04	 mov	 dl, BYTE PTR [eax+4]
  0005d	84 d2		 test	 dl, dl
  0005f	0f 84 07 01 00
	00		 je	 $LN92@LoadFloat_
  00065	80 f2 ed	 xor	 dl, -19			; ffffffedH
  00068	88 55 ec	 mov	 BYTE PTR __k$[ebp+4], dl
  0006b	8a 50 05	 mov	 dl, BYTE PTR [eax+5]
  0006e	84 d2		 test	 dl, dl
  00070	0f 84 f0 00 00
	00		 je	 $LN91@LoadFloat_
  00076	80 f2 ec	 xor	 dl, -20			; ffffffecH
  00079	88 55 ed	 mov	 BYTE PTR __k$[ebp+5], dl
  0007c	8a 50 06	 mov	 dl, BYTE PTR [eax+6]
  0007f	84 d2		 test	 dl, dl
  00081	0f 84 da 00 00
	00		 je	 $LN90@LoadFloat_
  00087	32 d1		 xor	 dl, cl
  00089	88 55 ee	 mov	 BYTE PTR __k$[ebp+6], dl
  0008c	8a 50 07	 mov	 dl, BYTE PTR [eax+7]
  0008f	84 d2		 test	 dl, dl
  00091	0f 84 c4 00 00
	00		 je	 $LN89@LoadFloat_
  00097	80 f2 ea	 xor	 dl, -22			; ffffffeaH
  0009a	88 55 ef	 mov	 BYTE PTR __k$[ebp+7], dl
  0009d	8a 50 08	 mov	 dl, BYTE PTR [eax+8]
  000a0	84 d2		 test	 dl, dl
  000a2	0f 84 ad 00 00
	00		 je	 $LN88@LoadFloat_
  000a8	80 f2 ed	 xor	 dl, -19			; ffffffedH
  000ab	88 55 f0	 mov	 BYTE PTR __k$[ebp+8], dl
  000ae	8a 50 09	 mov	 dl, BYTE PTR [eax+9]
  000b1	84 d2		 test	 dl, dl
  000b3	0f 84 96 00 00
	00		 je	 $LN87@LoadFloat_
  000b9	80 f2 ec	 xor	 dl, -20			; ffffffecH
  000bc	88 55 f1	 mov	 BYTE PTR __k$[ebp+9], dl
  000bf	8a 50 0a	 mov	 dl, BYTE PTR [eax+10]
  000c2	84 d2		 test	 dl, dl
  000c4	0f 84 80 00 00
	00		 je	 $LN86@LoadFloat_
  000ca	32 d1		 xor	 dl, cl
  000cc	88 55 f2	 mov	 BYTE PTR __k$[ebp+10], dl
  000cf	8a 50 0b	 mov	 dl, BYTE PTR [eax+11]
  000d2	84 d2		 test	 dl, dl
  000d4	74 6e		 je	 SHORT $LN85@LoadFloat_
  000d6	80 f2 ea	 xor	 dl, -22			; ffffffeaH
  000d9	88 55 f3	 mov	 BYTE PTR __k$[ebp+11], dl
  000dc	8a 50 0c	 mov	 dl, BYTE PTR [eax+12]
  000df	84 d2		 test	 dl, dl
  000e1	74 5b		 je	 SHORT $LN84@LoadFloat_
  000e3	80 f2 ed	 xor	 dl, -19			; ffffffedH
  000e6	80 78 0d 00	 cmp	 BYTE PTR [eax+13], 0
  000ea	88 55 f4	 mov	 BYTE PTR __k$[ebp+12], dl
  000ed	0f 84 95 00 00
	00		 je	 $LN1@LoadFloat_
  000f3	8a 50 0e	 mov	 dl, BYTE PTR [eax+14]
  000f6	84 d2		 test	 dl, dl
  000f8	74 3f		 je	 SHORT $LN82@LoadFloat_
  000fa	32 d1		 xor	 dl, cl
  000fc	88 55 f6	 mov	 BYTE PTR __k$[ebp+14], dl
  000ff	8a 50 0f	 mov	 dl, BYTE PTR [eax+15]
  00102	84 d2		 test	 dl, dl
  00104	74 2d		 je	 SHORT $LN81@LoadFloat_
  00106	80 f2 ea	 xor	 dl, -22			; ffffffeaH
  00109	88 55 f7	 mov	 BYTE PTR __k$[ebp+15], dl
  0010c	8a 50 10	 mov	 dl, BYTE PTR [eax+16]
  0010f	84 d2		 test	 dl, dl
  00111	74 1a		 je	 SHORT $LN80@LoadFloat_
  00113	8a 40 11	 mov	 al, BYTE PTR [eax+17]
  00116	80 f2 ed	 xor	 dl, -19			; ffffffedH
  00119	88 55 f8	 mov	 BYTE PTR __k$[ebp+16], dl
  0011c	84 c0		 test	 al, al
  0011e	74 07		 je	 SHORT $LN79@LoadFloat_
  00120	34 ec		 xor	 al, -20			; ffffffecH
  00122	88 45 f9	 mov	 BYTE PTR __k$[ebp+17], al
  00125	eb 61		 jmp	 SHORT $LN1@LoadFloat_
$LN79@LoadFloat_:
  00127	c6 45 f9 ec	 mov	 BYTE PTR __k$[ebp+17], -20 ; ffffffecH
  0012b	eb 5b		 jmp	 SHORT $LN1@LoadFloat_
$LN80@LoadFloat_:
  0012d	c6 45 f8 ed	 mov	 BYTE PTR __k$[ebp+16], -19 ; ffffffedH
  00131	eb 55		 jmp	 SHORT $LN1@LoadFloat_
$LN81@LoadFloat_:
  00133	c6 45 f7 ea	 mov	 BYTE PTR __k$[ebp+15], -22 ; ffffffeaH
  00137	eb 4f		 jmp	 SHORT $LN1@LoadFloat_
$LN82@LoadFloat_:
  00139	88 4d f6	 mov	 BYTE PTR __k$[ebp+14], cl
  0013c	eb 4a		 jmp	 SHORT $LN1@LoadFloat_
$LN84@LoadFloat_:
  0013e	c6 45 f4 ed	 mov	 BYTE PTR __k$[ebp+12], -19 ; ffffffedH
  00142	eb 44		 jmp	 SHORT $LN1@LoadFloat_
$LN85@LoadFloat_:
  00144	c6 45 f3 ea	 mov	 BYTE PTR __k$[ebp+11], -22 ; ffffffeaH
  00148	eb 3e		 jmp	 SHORT $LN1@LoadFloat_
$LN86@LoadFloat_:
  0014a	88 4d f2	 mov	 BYTE PTR __k$[ebp+10], cl
  0014d	eb 39		 jmp	 SHORT $LN1@LoadFloat_
$LN87@LoadFloat_:
  0014f	c6 45 f1 ec	 mov	 BYTE PTR __k$[ebp+9], -20 ; ffffffecH
  00153	eb 33		 jmp	 SHORT $LN1@LoadFloat_
$LN88@LoadFloat_:
  00155	c6 45 f0 ed	 mov	 BYTE PTR __k$[ebp+8], -19 ; ffffffedH
  00159	eb 2d		 jmp	 SHORT $LN1@LoadFloat_
$LN89@LoadFloat_:
  0015b	c6 45 ef ea	 mov	 BYTE PTR __k$[ebp+7], -22 ; ffffffeaH
  0015f	eb 27		 jmp	 SHORT $LN1@LoadFloat_
$LN90@LoadFloat_:
  00161	88 4d ee	 mov	 BYTE PTR __k$[ebp+6], cl
  00164	eb 22		 jmp	 SHORT $LN1@LoadFloat_
$LN91@LoadFloat_:
  00166	c6 45 ed ec	 mov	 BYTE PTR __k$[ebp+5], -20 ; ffffffecH
  0016a	eb 1c		 jmp	 SHORT $LN1@LoadFloat_
$LN92@LoadFloat_:
  0016c	c6 45 ec ed	 mov	 BYTE PTR __k$[ebp+4], -19 ; ffffffedH
  00170	eb 16		 jmp	 SHORT $LN1@LoadFloat_
$LN93@LoadFloat_:
  00172	c6 45 eb ea	 mov	 BYTE PTR __k$[ebp+3], -22 ; ffffffeaH
  00176	eb 10		 jmp	 SHORT $LN1@LoadFloat_
$LN94@LoadFloat_:
  00178	c6 45 ea eb	 mov	 BYTE PTR __k$[ebp+2], -21 ; ffffffebH
  0017c	eb 0a		 jmp	 SHORT $LN1@LoadFloat_
$LN95@LoadFloat_:
  0017e	c6 45 e9 ec	 mov	 BYTE PTR __k$[ebp+1], -20 ; ffffffecH
  00182	eb 04		 jmp	 SHORT $LN1@LoadFloat_
$LN96@LoadFloat_:
  00184	c6 45 e8 ed	 mov	 BYTE PTR __k$[ebp], -19	; ffffffedH
$LN1@LoadFloat_:
  00188	6a 03		 push	 3
  0018a	8d 45 e8	 lea	 eax, DWORD PTR __k$[ebp]
  0018d	c6 45 f5 00	 mov	 BYTE PTR __k$[ebp+13], 0
  00191	5a		 pop	 edx
$LL104@LoadFloat_:
  00192	81 30 ed ec eb
	ea		 xor	 DWORD PTR [eax], -353637139 ; eaebecedH
  00198	83 c0 04	 add	 eax, 4
  0019b	4a		 dec	 edx
  0019c	75 f4		 jne	 SHORT $LL104@LoadFloat_

; 137  : 		return LoadFloat(_k, f);

  0019e	f3 0f 10 45 0c	 movss	 xmm0, DWORD PTR _f$[ebp]
  001a3	80 75 f4 ed	 xor	 BYTE PTR __k$[ebp+12], -19 ; ffffffedH
  001a7	51		 push	 ecx
  001a8	8d 45 e8	 lea	 eax, DWORD PTR __k$[ebp]
  001ab	f3 0f 11 04 24	 movss	 DWORD PTR [esp], xmm0
  001b0	50		 push	 eax
  001b1	8b ce		 mov	 ecx, esi
  001b3	ff 15 00 00 00
	00		 call	 DWORD PTR __imp_?LoadFloat@ioINILoader@@QAEMPBDM@Z

; 138  : 	}

  001b9	8b 4d fc	 mov	 ecx, DWORD PTR __$ArrayPad$[ebp]
  001bc	33 cd		 xor	 ecx, ebp
  001be	5e		 pop	 esi
  001bf	e8 00 00 00 00	 call	 @__security_check_cookie@4
  001c4	c9		 leave
  001c5	c2 08 00	 ret	 8
??$LoadFloat_e@$0O@@ioINILoader@@QAEMAAY0O@$$CBDM@Z ENDP ; ioINILoader::LoadFloat_e<14>
_TEXT	ENDS
PUBLIC	__$ArrayPad$
PUBLIC	??$LoadFloat_e@$0L@@ioINILoader@@QAEMAAY0L@$$CBDM@Z ; ioINILoader::LoadFloat_e<11>
; Function compile flags: /Ogsp
;	COMDAT ??$LoadFloat_e@$0L@@ioINILoader@@QAEMAAY0L@$$CBDM@Z
_TEXT	SEGMENT
__k$ = -20						; size = 11
__$ArrayPad$ = -4					; size = 4
_k$ = 8							; size = 4
_f$ = 12						; size = 4
??$LoadFloat_e@$0L@@ioINILoader@@QAEMAAY0L@$$CBDM@Z PROC ; ioINILoader::LoadFloat_e<11>, COMDAT
; _this$ = ecx

; 135  : 	{

  00000	55		 push	 ebp
  00001	8b ec		 mov	 ebp, esp
  00003	83 ec 14	 sub	 esp, 20			; 00000014H
  00006	a1 00 00 00 00	 mov	 eax, DWORD PTR ___security_cookie
  0000b	33 c5		 xor	 eax, ebp
  0000d	89 45 fc	 mov	 DWORD PTR __$ArrayPad$[ebp], eax
  00010	8b 45 08	 mov	 eax, DWORD PTR _k$[ebp]

; 136  : 		_ENCSTR(k, _k);

  00013	8a 10		 mov	 dl, BYTE PTR [eax]
  00015	56		 push	 esi
  00016	8b f1		 mov	 esi, ecx
  00018	84 d2		 test	 dl, dl
  0001a	0f 84 24 01 00
	00		 je	 $LN96@LoadFloat_@2
  00020	80 f2 ed	 xor	 dl, -19			; ffffffedH
  00023	88 55 ec	 mov	 BYTE PTR __k$[ebp], dl
  00026	8a 50 01	 mov	 dl, BYTE PTR [eax+1]
  00029	84 d2		 test	 dl, dl
  0002b	0f 84 0d 01 00
	00		 je	 $LN95@LoadFloat_@2
  00031	80 f2 ec	 xor	 dl, -20			; ffffffecH
  00034	88 55 ed	 mov	 BYTE PTR __k$[ebp+1], dl
  00037	8a 50 02	 mov	 dl, BYTE PTR [eax+2]
  0003a	84 d2		 test	 dl, dl
  0003c	0f 84 f6 00 00
	00		 je	 $LN94@LoadFloat_@2
  00042	80 f2 eb	 xor	 dl, -21			; ffffffebH
  00045	88 55 ee	 mov	 BYTE PTR __k$[ebp+2], dl
  00048	8a 50 03	 mov	 dl, BYTE PTR [eax+3]
  0004b	84 d2		 test	 dl, dl
  0004d	0f 84 df 00 00
	00		 je	 $LN93@LoadFloat_@2
  00053	80 f2 ea	 xor	 dl, -22			; ffffffeaH
  00056	88 55 ef	 mov	 BYTE PTR __k$[ebp+3], dl
  00059	8a 50 04	 mov	 dl, BYTE PTR [eax+4]
  0005c	84 d2		 test	 dl, dl
  0005e	0f 84 c8 00 00
	00		 je	 $LN92@LoadFloat_@2
  00064	80 f2 ed	 xor	 dl, -19			; ffffffedH
  00067	88 55 f0	 mov	 BYTE PTR __k$[ebp+4], dl
  0006a	8a 50 05	 mov	 dl, BYTE PTR [eax+5]
  0006d	84 d2		 test	 dl, dl
  0006f	0f 84 b1 00 00
	00		 je	 $LN91@LoadFloat_@2
  00075	80 f2 ec	 xor	 dl, -20			; ffffffecH
  00078	88 55 f1	 mov	 BYTE PTR __k$[ebp+5], dl
  0007b	8a 50 06	 mov	 dl, BYTE PTR [eax+6]
  0007e	84 d2		 test	 dl, dl
  00080	0f 84 9a 00 00
	00		 je	 $LN90@LoadFloat_@2
  00086	80 f2 eb	 xor	 dl, -21			; ffffffebH
  00089	88 55 f2	 mov	 BYTE PTR __k$[ebp+6], dl
  0008c	8a 50 07	 mov	 dl, BYTE PTR [eax+7]
  0008f	84 d2		 test	 dl, dl
  00091	0f 84 83 00 00
	00		 je	 $LN89@LoadFloat_@2
  00097	80 f2 ea	 xor	 dl, -22			; ffffffeaH
  0009a	88 55 f3	 mov	 BYTE PTR __k$[ebp+7], dl
  0009d	8a 50 08	 mov	 dl, BYTE PTR [eax+8]
  000a0	84 d2		 test	 dl, dl
  000a2	74 70		 je	 SHORT $LN88@LoadFloat_@2
  000a4	80 f2 ed	 xor	 dl, -19			; ffffffedH
  000a7	88 55 f4	 mov	 BYTE PTR __k$[ebp+8], dl
  000aa	8a 50 09	 mov	 dl, BYTE PTR [eax+9]
  000ad	84 d2		 test	 dl, dl
  000af	74 5d		 je	 SHORT $LN87@LoadFloat_@2
  000b1	80 f2 ec	 xor	 dl, -20			; ffffffecH
  000b4	80 78 0a 00	 cmp	 BYTE PTR [eax+10], 0
  000b8	88 55 f5	 mov	 BYTE PTR __k$[ebp+9], dl
  000bb	0f 84 87 00 00
	00		 je	 $LN1@LoadFloat_@2
  000c1	8a 50 0b	 mov	 dl, BYTE PTR [eax+11]
  000c4	84 d2		 test	 dl, dl
  000c6	74 40		 je	 SHORT $LN85@LoadFloat_@2
  000c8	80 f2 ea	 xor	 dl, -22			; ffffffeaH
  000cb	88 55 f7	 mov	 BYTE PTR __k$[ebp+11], dl
  000ce	8a 50 0c	 mov	 dl, BYTE PTR [eax+12]
  000d1	84 d2		 test	 dl, dl
  000d3	74 2d		 je	 SHORT $LN84@LoadFloat_@2
  000d5	80 f2 ed	 xor	 dl, -19			; ffffffedH
  000d8	88 55 f8	 mov	 BYTE PTR __k$[ebp+12], dl
  000db	8a 50 0d	 mov	 dl, BYTE PTR [eax+13]
  000de	84 d2		 test	 dl, dl
  000e0	74 1a		 je	 SHORT $LN83@LoadFloat_@2
  000e2	8a 40 0e	 mov	 al, BYTE PTR [eax+14]
  000e5	80 f2 ec	 xor	 dl, -20			; ffffffecH
  000e8	88 55 f9	 mov	 BYTE PTR __k$[ebp+13], dl
  000eb	84 c0		 test	 al, al
  000ed	74 07		 je	 SHORT $LN82@LoadFloat_@2
  000ef	34 eb		 xor	 al, -21			; ffffffebH
  000f1	88 45 fa	 mov	 BYTE PTR __k$[ebp+14], al
  000f4	eb 52		 jmp	 SHORT $LN1@LoadFloat_@2
$LN82@LoadFloat_@2:
  000f6	c6 45 fa eb	 mov	 BYTE PTR __k$[ebp+14], -21 ; ffffffebH
  000fa	eb 4c		 jmp	 SHORT $LN1@LoadFloat_@2
$LN83@LoadFloat_@2:
  000fc	c6 45 f9 ec	 mov	 BYTE PTR __k$[ebp+13], -20 ; ffffffecH
  00100	eb 46		 jmp	 SHORT $LN1@LoadFloat_@2
$LN84@LoadFloat_@2:
  00102	c6 45 f8 ed	 mov	 BYTE PTR __k$[ebp+12], -19 ; ffffffedH
  00106	eb 40		 jmp	 SHORT $LN1@LoadFloat_@2
$LN85@LoadFloat_@2:
  00108	c6 45 f7 ea	 mov	 BYTE PTR __k$[ebp+11], -22 ; ffffffeaH
  0010c	eb 3a		 jmp	 SHORT $LN1@LoadFloat_@2
$LN87@LoadFloat_@2:
  0010e	c6 45 f5 ec	 mov	 BYTE PTR __k$[ebp+9], -20 ; ffffffecH
  00112	eb 34		 jmp	 SHORT $LN1@LoadFloat_@2
$LN88@LoadFloat_@2:
  00114	c6 45 f4 ed	 mov	 BYTE PTR __k$[ebp+8], -19 ; ffffffedH
  00118	eb 2e		 jmp	 SHORT $LN1@LoadFloat_@2
$LN89@LoadFloat_@2:
  0011a	c6 45 f3 ea	 mov	 BYTE PTR __k$[ebp+7], -22 ; ffffffeaH
  0011e	eb 28		 jmp	 SHORT $LN1@LoadFloat_@2
$LN90@LoadFloat_@2:
  00120	c6 45 f2 eb	 mov	 BYTE PTR __k$[ebp+6], -21 ; ffffffebH
  00124	eb 22		 jmp	 SHORT $LN1@LoadFloat_@2
$LN91@LoadFloat_@2:
  00126	c6 45 f1 ec	 mov	 BYTE PTR __k$[ebp+5], -20 ; ffffffecH
  0012a	eb 1c		 jmp	 SHORT $LN1@LoadFloat_@2
$LN92@LoadFloat_@2:
  0012c	c6 45 f0 ed	 mov	 BYTE PTR __k$[ebp+4], -19 ; ffffffedH
  00130	eb 16		 jmp	 SHORT $LN1@LoadFloat_@2
$LN93@LoadFloat_@2:
  00132	c6 45 ef ea	 mov	 BYTE PTR __k$[ebp+3], -22 ; ffffffeaH
  00136	eb 10		 jmp	 SHORT $LN1@LoadFloat_@2
$LN94@LoadFloat_@2:
  00138	c6 45 ee eb	 mov	 BYTE PTR __k$[ebp+2], -21 ; ffffffebH
  0013c	eb 0a		 jmp	 SHORT $LN1@LoadFloat_@2
$LN95@LoadFloat_@2:
  0013e	c6 45 ed ec	 mov	 BYTE PTR __k$[ebp+1], -20 ; ffffffecH
  00142	eb 04		 jmp	 SHORT $LN1@LoadFloat_@2
$LN96@LoadFloat_@2:
  00144	c6 45 ec ed	 mov	 BYTE PTR __k$[ebp], -19	; ffffffedH
$LN1@LoadFloat_@2:
  00148	6a 02		 push	 2
  0014a	8d 45 ec	 lea	 eax, DWORD PTR __k$[ebp]
  0014d	c6 45 f6 00	 mov	 BYTE PTR __k$[ebp+10], 0
  00151	5a		 pop	 edx
$LL104@LoadFloat_@2:
  00152	81 30 ed ec eb
	ea		 xor	 DWORD PTR [eax], -353637139 ; eaebecedH
  00158	83 c0 04	 add	 eax, 4
  0015b	4a		 dec	 edx
  0015c	75 f4		 jne	 SHORT $LL104@LoadFloat_@2
  0015e	6a 08		 push	 8
  00160	58		 pop	 eax
$LL101@LoadFloat_@2:
  00161	8b c8		 mov	 ecx, eax
  00163	81 e1 03 00 00
	80		 and	 ecx, -2147483645	; 80000003H
  00169	79 05		 jns	 SHORT $LN111@LoadFloat_@2
  0016b	49		 dec	 ecx
  0016c	83 c9 fc	 or	 ecx, -4			; fffffffcH
  0016f	41		 inc	 ecx
$LN111@LoadFloat_@2:
  00170	b2 ed		 mov	 dl, -19			; ffffffedH
  00172	2a d1		 sub	 dl, cl
  00174	30 54 05 ec	 xor	 BYTE PTR __k$[ebp+eax], dl
  00178	40		 inc	 eax
  00179	83 f8 0a	 cmp	 eax, 10			; 0000000aH
  0017c	7c e3		 jl	 SHORT $LL101@LoadFloat_@2

; 137  : 		return LoadFloat(_k, f);

  0017e	f3 0f 10 45 0c	 movss	 xmm0, DWORD PTR _f$[ebp]
  00183	51		 push	 ecx
  00184	8d 45 ec	 lea	 eax, DWORD PTR __k$[ebp]
  00187	f3 0f 11 04 24	 movss	 DWORD PTR [esp], xmm0
  0018c	50		 push	 eax
  0018d	8b ce		 mov	 ecx, esi
  0018f	ff 15 00 00 00
	00		 call	 DWORD PTR __imp_?LoadFloat@ioINILoader@@QAEMPBDM@Z

; 138  : 	}

  00195	8b 4d fc	 mov	 ecx, DWORD PTR __$ArrayPad$[ebp]
  00198	33 cd		 xor	 ecx, ebp
  0019a	5e		 pop	 esi
  0019b	e8 00 00 00 00	 call	 @__security_check_cookie@4
  001a0	c9		 leave
  001a1	c2 08 00	 ret	 8
??$LoadFloat_e@$0L@@ioINILoader@@QAEMAAY0L@$$CBDM@Z ENDP ; ioINILoader::LoadFloat_e<11>
_TEXT	ENDS
PUBLIC	__$ArrayPad$
PUBLIC	??$LoadFloat_e@$0BA@@ioINILoader@@QAEMAAY0BA@$$CBDM@Z ; ioINILoader::LoadFloat_e<16>
; Function compile flags: /Ogsp
;	COMDAT ??$LoadFloat_e@$0BA@@ioINILoader@@QAEMAAY0BA@$$CBDM@Z
_TEXT	SEGMENT
__k$ = -24						; size = 16
__$ArrayPad$ = -4					; size = 4
_k$ = 8							; size = 4
_f$ = 12						; size = 4
??$LoadFloat_e@$0BA@@ioINILoader@@QAEMAAY0BA@$$CBDM@Z PROC ; ioINILoader::LoadFloat_e<16>, COMDAT
; _this$ = ecx

; 135  : 	{

  00000	55		 push	 ebp
  00001	8b ec		 mov	 ebp, esp
  00003	83 ec 18	 sub	 esp, 24			; 00000018H
  00006	a1 00 00 00 00	 mov	 eax, DWORD PTR ___security_cookie
  0000b	33 c5		 xor	 eax, ebp
  0000d	89 45 fc	 mov	 DWORD PTR __$ArrayPad$[ebp], eax
  00010	8b 45 08	 mov	 eax, DWORD PTR _k$[ebp]

; 136  : 		_ENCSTR(k, _k);

  00013	8a 10		 mov	 dl, BYTE PTR [eax]
  00015	56		 push	 esi
  00016	8b f1		 mov	 esi, ecx
  00018	84 d2		 test	 dl, dl
  0001a	0f 84 8c 01 00
	00		 je	 $LN96@LoadFloat_@3
  00020	80 f2 ed	 xor	 dl, -19			; ffffffedH
  00023	88 55 e8	 mov	 BYTE PTR __k$[ebp], dl
  00026	8a 50 01	 mov	 dl, BYTE PTR [eax+1]
  00029	84 d2		 test	 dl, dl
  0002b	0f 84 75 01 00
	00		 je	 $LN95@LoadFloat_@3
  00031	80 f2 ec	 xor	 dl, -20			; ffffffecH
  00034	88 55 e9	 mov	 BYTE PTR __k$[ebp+1], dl
  00037	8a 50 02	 mov	 dl, BYTE PTR [eax+2]
  0003a	84 d2		 test	 dl, dl
  0003c	0f 84 5e 01 00
	00		 je	 $LN94@LoadFloat_@3
  00042	b1 eb		 mov	 cl, -21			; ffffffebH
  00044	32 d1		 xor	 dl, cl
  00046	88 55 ea	 mov	 BYTE PTR __k$[ebp+2], dl
  00049	8a 50 03	 mov	 dl, BYTE PTR [eax+3]
  0004c	84 d2		 test	 dl, dl
  0004e	0f 84 46 01 00
	00		 je	 $LN93@LoadFloat_@3
  00054	80 f2 ea	 xor	 dl, -22			; ffffffeaH
  00057	88 55 eb	 mov	 BYTE PTR __k$[ebp+3], dl
  0005a	8a 50 04	 mov	 dl, BYTE PTR [eax+4]
  0005d	84 d2		 test	 dl, dl
  0005f	0f 84 2f 01 00
	00		 je	 $LN92@LoadFloat_@3
  00065	80 f2 ed	 xor	 dl, -19			; ffffffedH
  00068	88 55 ec	 mov	 BYTE PTR __k$[ebp+4], dl
  0006b	8a 50 05	 mov	 dl, BYTE PTR [eax+5]
  0006e	84 d2		 test	 dl, dl
  00070	0f 84 18 01 00
	00		 je	 $LN91@LoadFloat_@3
  00076	80 f2 ec	 xor	 dl, -20			; ffffffecH
  00079	88 55 ed	 mov	 BYTE PTR __k$[ebp+5], dl
  0007c	8a 50 06	 mov	 dl, BYTE PTR [eax+6]
  0007f	84 d2		 test	 dl, dl
  00081	0f 84 02 01 00
	00		 je	 $LN90@LoadFloat_@3
  00087	32 d1		 xor	 dl, cl
  00089	88 55 ee	 mov	 BYTE PTR __k$[ebp+6], dl
  0008c	8a 50 07	 mov	 dl, BYTE PTR [eax+7]
  0008f	84 d2		 test	 dl, dl
  00091	0f 84 ec 00 00
	00		 je	 $LN89@LoadFloat_@3
  00097	80 f2 ea	 xor	 dl, -22			; ffffffeaH
  0009a	88 55 ef	 mov	 BYTE PTR __k$[ebp+7], dl
  0009d	8a 50 08	 mov	 dl, BYTE PTR [eax+8]
  000a0	84 d2		 test	 dl, dl
  000a2	0f 84 d5 00 00
	00		 je	 $LN88@LoadFloat_@3
  000a8	80 f2 ed	 xor	 dl, -19			; ffffffedH
  000ab	88 55 f0	 mov	 BYTE PTR __k$[ebp+8], dl
  000ae	8a 50 09	 mov	 dl, BYTE PTR [eax+9]
  000b1	84 d2		 test	 dl, dl
  000b3	0f 84 be 00 00
	00		 je	 $LN87@LoadFloat_@3
  000b9	80 f2 ec	 xor	 dl, -20			; ffffffecH
  000bc	88 55 f1	 mov	 BYTE PTR __k$[ebp+9], dl
  000bf	8a 50 0a	 mov	 dl, BYTE PTR [eax+10]
  000c2	84 d2		 test	 dl, dl
  000c4	0f 84 a8 00 00
	00		 je	 $LN86@LoadFloat_@3
  000ca	32 d1		 xor	 dl, cl
  000cc	88 55 f2	 mov	 BYTE PTR __k$[ebp+10], dl
  000cf	8a 50 0b	 mov	 dl, BYTE PTR [eax+11]
  000d2	84 d2		 test	 dl, dl
  000d4	0f 84 92 00 00
	00		 je	 $LN85@LoadFloat_@3
  000da	80 f2 ea	 xor	 dl, -22			; ffffffeaH
  000dd	88 55 f3	 mov	 BYTE PTR __k$[ebp+11], dl
  000e0	8a 50 0c	 mov	 dl, BYTE PTR [eax+12]
  000e3	84 d2		 test	 dl, dl
  000e5	74 7f		 je	 SHORT $LN84@LoadFloat_@3
  000e7	80 f2 ed	 xor	 dl, -19			; ffffffedH
  000ea	88 55 f4	 mov	 BYTE PTR __k$[ebp+12], dl
  000ed	8a 50 0d	 mov	 dl, BYTE PTR [eax+13]
  000f0	84 d2		 test	 dl, dl
  000f2	74 6c		 je	 SHORT $LN83@LoadFloat_@3
  000f4	80 f2 ec	 xor	 dl, -20			; ffffffecH
  000f7	88 55 f5	 mov	 BYTE PTR __k$[ebp+13], dl
  000fa	8a 50 0e	 mov	 dl, BYTE PTR [eax+14]
  000fd	84 d2		 test	 dl, dl
  000ff	74 5a		 je	 SHORT $LN82@LoadFloat_@3
  00101	32 d1		 xor	 dl, cl
  00103	80 78 0f 00	 cmp	 BYTE PTR [eax+15], 0
  00107	88 55 f6	 mov	 BYTE PTR __k$[ebp+14], dl
  0010a	0f 84 a0 00 00
	00		 je	 $LN1@LoadFloat_@3
  00110	8a 50 10	 mov	 dl, BYTE PTR [eax+16]
  00113	84 d2		 test	 dl, dl
  00115	74 3e		 je	 SHORT $LN80@LoadFloat_@3
  00117	80 f2 ed	 xor	 dl, -19			; ffffffedH
  0011a	88 55 f8	 mov	 BYTE PTR __k$[ebp+16], dl
  0011d	8a 50 11	 mov	 dl, BYTE PTR [eax+17]
  00120	84 d2		 test	 dl, dl
  00122	74 2b		 je	 SHORT $LN79@LoadFloat_@3
  00124	80 f2 ec	 xor	 dl, -20			; ffffffecH
  00127	88 55 f9	 mov	 BYTE PTR __k$[ebp+17], dl
  0012a	8a 50 12	 mov	 dl, BYTE PTR [eax+18]
  0012d	84 d2		 test	 dl, dl
  0012f	74 19		 je	 SHORT $LN78@LoadFloat_@3
  00131	8a 40 13	 mov	 al, BYTE PTR [eax+19]
  00134	32 d1		 xor	 dl, cl
  00136	88 55 fa	 mov	 BYTE PTR __k$[ebp+18], dl
  00139	84 c0		 test	 al, al
  0013b	74 07		 je	 SHORT $LN77@LoadFloat_@3
  0013d	34 ea		 xor	 al, -22			; ffffffeaH
  0013f	88 45 fb	 mov	 BYTE PTR __k$[ebp+19], al
  00142	eb 6c		 jmp	 SHORT $LN1@LoadFloat_@3
$LN77@LoadFloat_@3:
  00144	c6 45 fb ea	 mov	 BYTE PTR __k$[ebp+19], -22 ; ffffffeaH
  00148	eb 66		 jmp	 SHORT $LN1@LoadFloat_@3
$LN78@LoadFloat_@3:
  0014a	88 4d fa	 mov	 BYTE PTR __k$[ebp+18], cl
  0014d	eb 61		 jmp	 SHORT $LN1@LoadFloat_@3
$LN79@LoadFloat_@3:
  0014f	c6 45 f9 ec	 mov	 BYTE PTR __k$[ebp+17], -20 ; ffffffecH
  00153	eb 5b		 jmp	 SHORT $LN1@LoadFloat_@3
$LN80@LoadFloat_@3:
  00155	c6 45 f8 ed	 mov	 BYTE PTR __k$[ebp+16], -19 ; ffffffedH
  00159	eb 55		 jmp	 SHORT $LN1@LoadFloat_@3
$LN82@LoadFloat_@3:
  0015b	88 4d f6	 mov	 BYTE PTR __k$[ebp+14], cl
  0015e	eb 50		 jmp	 SHORT $LN1@LoadFloat_@3
$LN83@LoadFloat_@3:
  00160	c6 45 f5 ec	 mov	 BYTE PTR __k$[ebp+13], -20 ; ffffffecH
  00164	eb 4a		 jmp	 SHORT $LN1@LoadFloat_@3
$LN84@LoadFloat_@3:
  00166	c6 45 f4 ed	 mov	 BYTE PTR __k$[ebp+12], -19 ; ffffffedH
  0016a	eb 44		 jmp	 SHORT $LN1@LoadFloat_@3
$LN85@LoadFloat_@3:
  0016c	c6 45 f3 ea	 mov	 BYTE PTR __k$[ebp+11], -22 ; ffffffeaH
  00170	eb 3e		 jmp	 SHORT $LN1@LoadFloat_@3
$LN86@LoadFloat_@3:
  00172	88 4d f2	 mov	 BYTE PTR __k$[ebp+10], cl
  00175	eb 39		 jmp	 SHORT $LN1@LoadFloat_@3
$LN87@LoadFloat_@3:
  00177	c6 45 f1 ec	 mov	 BYTE PTR __k$[ebp+9], -20 ; ffffffecH
  0017b	eb 33		 jmp	 SHORT $LN1@LoadFloat_@3
$LN88@LoadFloat_@3:
  0017d	c6 45 f0 ed	 mov	 BYTE PTR __k$[ebp+8], -19 ; ffffffedH
  00181	eb 2d		 jmp	 SHORT $LN1@LoadFloat_@3
$LN89@LoadFloat_@3:
  00183	c6 45 ef ea	 mov	 BYTE PTR __k$[ebp+7], -22 ; ffffffeaH
  00187	eb 27		 jmp	 SHORT $LN1@LoadFloat_@3
$LN90@LoadFloat_@3:
  00189	88 4d ee	 mov	 BYTE PTR __k$[ebp+6], cl
  0018c	eb 22		 jmp	 SHORT $LN1@LoadFloat_@3
$LN91@LoadFloat_@3:
  0018e	c6 45 ed ec	 mov	 BYTE PTR __k$[ebp+5], -20 ; ffffffecH
  00192	eb 1c		 jmp	 SHORT $LN1@LoadFloat_@3
$LN92@LoadFloat_@3:
  00194	c6 45 ec ed	 mov	 BYTE PTR __k$[ebp+4], -19 ; ffffffedH
  00198	eb 16		 jmp	 SHORT $LN1@LoadFloat_@3
$LN93@LoadFloat_@3:
  0019a	c6 45 eb ea	 mov	 BYTE PTR __k$[ebp+3], -22 ; ffffffeaH
  0019e	eb 10		 jmp	 SHORT $LN1@LoadFloat_@3
$LN94@LoadFloat_@3:
  001a0	c6 45 ea eb	 mov	 BYTE PTR __k$[ebp+2], -21 ; ffffffebH
  001a4	eb 0a		 jmp	 SHORT $LN1@LoadFloat_@3
$LN95@LoadFloat_@3:
  001a6	c6 45 e9 ec	 mov	 BYTE PTR __k$[ebp+1], -20 ; ffffffecH
  001aa	eb 04		 jmp	 SHORT $LN1@LoadFloat_@3
$LN96@LoadFloat_@3:
  001ac	c6 45 e8 ed	 mov	 BYTE PTR __k$[ebp], -19	; ffffffedH
$LN1@LoadFloat_@3:
  001b0	6a 03		 push	 3
  001b2	8d 45 e8	 lea	 eax, DWORD PTR __k$[ebp]
  001b5	c6 45 f7 00	 mov	 BYTE PTR __k$[ebp+15], 0
  001b9	5a		 pop	 edx
$LL104@LoadFloat_@3:
  001ba	81 30 ed ec eb
	ea		 xor	 DWORD PTR [eax], -353637139 ; eaebecedH
  001c0	83 c0 04	 add	 eax, 4
  001c3	4a		 dec	 edx
  001c4	75 f4		 jne	 SHORT $LL104@LoadFloat_@3
  001c6	6a 0c		 push	 12			; 0000000cH
  001c8	58		 pop	 eax
$LL101@LoadFloat_@3:
  001c9	8b c8		 mov	 ecx, eax
  001cb	81 e1 03 00 00
	80		 and	 ecx, -2147483645	; 80000003H
  001d1	79 05		 jns	 SHORT $LN111@LoadFloat_@3
  001d3	49		 dec	 ecx
  001d4	83 c9 fc	 or	 ecx, -4			; fffffffcH
  001d7	41		 inc	 ecx
$LN111@LoadFloat_@3:
  001d8	b2 ed		 mov	 dl, -19			; ffffffedH
  001da	2a d1		 sub	 dl, cl
  001dc	30 54 05 e8	 xor	 BYTE PTR __k$[ebp+eax], dl
  001e0	40		 inc	 eax
  001e1	83 f8 0f	 cmp	 eax, 15			; 0000000fH
  001e4	7c e3		 jl	 SHORT $LL101@LoadFloat_@3

; 137  : 		return LoadFloat(_k, f);

  001e6	f3 0f 10 45 0c	 movss	 xmm0, DWORD PTR _f$[ebp]
  001eb	51		 push	 ecx
  001ec	8d 45 e8	 lea	 eax, DWORD PTR __k$[ebp]
  001ef	f3 0f 11 04 24	 movss	 DWORD PTR [esp], xmm0
  001f4	50		 push	 eax
  001f5	8b ce		 mov	 ecx, esi
  001f7	ff 15 00 00 00
	00		 call	 DWORD PTR __imp_?LoadFloat@ioINILoader@@QAEMPBDM@Z

; 138  : 	}

  001fd	8b 4d fc	 mov	 ecx, DWORD PTR __$ArrayPad$[ebp]
  00200	33 cd		 xor	 ecx, ebp
  00202	5e		 pop	 esi
  00203	e8 00 00 00 00	 call	 @__security_check_cookie@4
  00208	c9		 leave
  00209	c2 08 00	 ret	 8
??$LoadFloat_e@$0BA@@ioINILoader@@QAEMAAY0BA@$$CBDM@Z ENDP ; ioINILoader::LoadFloat_e<16>
_TEXT	ENDS
PUBLIC	__$ArrayPad$
PUBLIC	??$LoadFloat_e@$0BC@@ioINILoader@@QAEMAAY0BC@$$CBDM@Z ; ioINILoader::LoadFloat_e<18>
; Function compile flags: /Ogsp
;	COMDAT ??$LoadFloat_e@$0BC@@ioINILoader@@QAEMAAY0BC@$$CBDM@Z
_TEXT	SEGMENT
__k$ = -28						; size = 18
__$ArrayPad$ = -4					; size = 4
_k$ = 8							; size = 4
_f$ = 12						; size = 4
??$LoadFloat_e@$0BC@@ioINILoader@@QAEMAAY0BC@$$CBDM@Z PROC ; ioINILoader::LoadFloat_e<18>, COMDAT
; _this$ = ecx

; 135  : 	{

  00000	55		 push	 ebp
  00001	8b ec		 mov	 ebp, esp
  00003	83 ec 1c	 sub	 esp, 28			; 0000001cH
  00006	a1 00 00 00 00	 mov	 eax, DWORD PTR ___security_cookie
  0000b	33 c5		 xor	 eax, ebp
  0000d	89 45 fc	 mov	 DWORD PTR __$ArrayPad$[ebp], eax
  00010	8b 45 08	 mov	 eax, DWORD PTR _k$[ebp]

; 136  : 		_ENCSTR(k, _k);

  00013	8a 10		 mov	 dl, BYTE PTR [eax]
  00015	56		 push	 esi
  00016	8b f1		 mov	 esi, ecx
  00018	84 d2		 test	 dl, dl
  0001a	0f 84 be 01 00
	00		 je	 $LN96@LoadFloat_@4
  00020	80 f2 ed	 xor	 dl, -19			; ffffffedH
  00023	88 55 e4	 mov	 BYTE PTR __k$[ebp], dl
  00026	8a 50 01	 mov	 dl, BYTE PTR [eax+1]
  00029	84 d2		 test	 dl, dl
  0002b	0f 84 a7 01 00
	00		 je	 $LN95@LoadFloat_@4
  00031	80 f2 ec	 xor	 dl, -20			; ffffffecH
  00034	88 55 e5	 mov	 BYTE PTR __k$[ebp+1], dl
  00037	8a 50 02	 mov	 dl, BYTE PTR [eax+2]
  0003a	84 d2		 test	 dl, dl
  0003c	0f 84 90 01 00
	00		 je	 $LN94@LoadFloat_@4
  00042	b1 eb		 mov	 cl, -21			; ffffffebH
  00044	32 d1		 xor	 dl, cl
  00046	88 55 e6	 mov	 BYTE PTR __k$[ebp+2], dl
  00049	8a 50 03	 mov	 dl, BYTE PTR [eax+3]
  0004c	84 d2		 test	 dl, dl
  0004e	0f 84 78 01 00
	00		 je	 $LN93@LoadFloat_@4
  00054	80 f2 ea	 xor	 dl, -22			; ffffffeaH
  00057	88 55 e7	 mov	 BYTE PTR __k$[ebp+3], dl
  0005a	8a 50 04	 mov	 dl, BYTE PTR [eax+4]
  0005d	84 d2		 test	 dl, dl
  0005f	0f 84 61 01 00
	00		 je	 $LN92@LoadFloat_@4
  00065	80 f2 ed	 xor	 dl, -19			; ffffffedH
  00068	88 55 e8	 mov	 BYTE PTR __k$[ebp+4], dl
  0006b	8a 50 05	 mov	 dl, BYTE PTR [eax+5]
  0006e	84 d2		 test	 dl, dl
  00070	0f 84 4a 01 00
	00		 je	 $LN91@LoadFloat_@4
  00076	80 f2 ec	 xor	 dl, -20			; ffffffecH
  00079	88 55 e9	 mov	 BYTE PTR __k$[ebp+5], dl
  0007c	8a 50 06	 mov	 dl, BYTE PTR [eax+6]
  0007f	84 d2		 test	 dl, dl
  00081	0f 84 34 01 00
	00		 je	 $LN90@LoadFloat_@4
  00087	32 d1		 xor	 dl, cl
  00089	88 55 ea	 mov	 BYTE PTR __k$[ebp+6], dl
  0008c	8a 50 07	 mov	 dl, BYTE PTR [eax+7]
  0008f	84 d2		 test	 dl, dl
  00091	0f 84 1e 01 00
	00		 je	 $LN89@LoadFloat_@4
  00097	80 f2 ea	 xor	 dl, -22			; ffffffeaH
  0009a	88 55 eb	 mov	 BYTE PTR __k$[ebp+7], dl
  0009d	8a 50 08	 mov	 dl, BYTE PTR [eax+8]
  000a0	84 d2		 test	 dl, dl
  000a2	0f 84 07 01 00
	00		 je	 $LN88@LoadFloat_@4
  000a8	80 f2 ed	 xor	 dl, -19			; ffffffedH
  000ab	88 55 ec	 mov	 BYTE PTR __k$[ebp+8], dl
  000ae	8a 50 09	 mov	 dl, BYTE PTR [eax+9]
  000b1	84 d2		 test	 dl, dl
  000b3	0f 84 f0 00 00
	00		 je	 $LN87@LoadFloat_@4
  000b9	80 f2 ec	 xor	 dl, -20			; ffffffecH
  000bc	88 55 ed	 mov	 BYTE PTR __k$[ebp+9], dl
  000bf	8a 50 0a	 mov	 dl, BYTE PTR [eax+10]
  000c2	84 d2		 test	 dl, dl
  000c4	0f 84 da 00 00
	00		 je	 $LN86@LoadFloat_@4
  000ca	32 d1		 xor	 dl, cl
  000cc	88 55 ee	 mov	 BYTE PTR __k$[ebp+10], dl
  000cf	8a 50 0b	 mov	 dl, BYTE PTR [eax+11]
  000d2	84 d2		 test	 dl, dl
  000d4	0f 84 c4 00 00
	00		 je	 $LN85@LoadFloat_@4
  000da	80 f2 ea	 xor	 dl, -22			; ffffffeaH
  000dd	88 55 ef	 mov	 BYTE PTR __k$[ebp+11], dl
  000e0	8a 50 0c	 mov	 dl, BYTE PTR [eax+12]
  000e3	84 d2		 test	 dl, dl
  000e5	0f 84 ad 00 00
	00		 je	 $LN84@LoadFloat_@4
  000eb	80 f2 ed	 xor	 dl, -19			; ffffffedH
  000ee	88 55 f0	 mov	 BYTE PTR __k$[ebp+12], dl
  000f1	8a 50 0d	 mov	 dl, BYTE PTR [eax+13]
  000f4	84 d2		 test	 dl, dl
  000f6	0f 84 96 00 00
	00		 je	 $LN83@LoadFloat_@4
  000fc	80 f2 ec	 xor	 dl, -20			; ffffffecH
  000ff	88 55 f1	 mov	 BYTE PTR __k$[ebp+13], dl
  00102	8a 50 0e	 mov	 dl, BYTE PTR [eax+14]
  00105	84 d2		 test	 dl, dl
  00107	0f 84 80 00 00
	00		 je	 $LN82@LoadFloat_@4
  0010d	32 d1		 xor	 dl, cl
  0010f	88 55 f2	 mov	 BYTE PTR __k$[ebp+14], dl
  00112	8a 50 0f	 mov	 dl, BYTE PTR [eax+15]
  00115	84 d2		 test	 dl, dl
  00117	74 6e		 je	 SHORT $LN81@LoadFloat_@4
  00119	80 f2 ea	 xor	 dl, -22			; ffffffeaH
  0011c	88 55 f3	 mov	 BYTE PTR __k$[ebp+15], dl
  0011f	8a 50 10	 mov	 dl, BYTE PTR [eax+16]
  00122	84 d2		 test	 dl, dl
  00124	74 5b		 je	 SHORT $LN80@LoadFloat_@4
  00126	80 f2 ed	 xor	 dl, -19			; ffffffedH
  00129	80 78 11 00	 cmp	 BYTE PTR [eax+17], 0
  0012d	88 55 f4	 mov	 BYTE PTR __k$[ebp+16], dl
  00130	0f 84 ac 00 00
	00		 je	 $LN1@LoadFloat_@4
  00136	8a 50 12	 mov	 dl, BYTE PTR [eax+18]
  00139	84 d2		 test	 dl, dl
  0013b	74 3f		 je	 SHORT $LN78@LoadFloat_@4
  0013d	32 d1		 xor	 dl, cl
  0013f	88 55 f6	 mov	 BYTE PTR __k$[ebp+18], dl
  00142	8a 50 13	 mov	 dl, BYTE PTR [eax+19]
  00145	84 d2		 test	 dl, dl
  00147	74 2d		 je	 SHORT $LN77@LoadFloat_@4
  00149	80 f2 ea	 xor	 dl, -22			; ffffffeaH
  0014c	88 55 f7	 mov	 BYTE PTR __k$[ebp+19], dl
  0014f	8a 50 14	 mov	 dl, BYTE PTR [eax+20]
  00152	84 d2		 test	 dl, dl
  00154	74 1a		 je	 SHORT $LN76@LoadFloat_@4
  00156	8a 40 15	 mov	 al, BYTE PTR [eax+21]
  00159	80 f2 ed	 xor	 dl, -19			; ffffffedH
  0015c	88 55 f8	 mov	 BYTE PTR __k$[ebp+20], dl
  0015f	84 c0		 test	 al, al
  00161	74 07		 je	 SHORT $LN75@LoadFloat_@4
  00163	34 ec		 xor	 al, -20			; ffffffecH
  00165	88 45 f9	 mov	 BYTE PTR __k$[ebp+21], al
  00168	eb 78		 jmp	 SHORT $LN1@LoadFloat_@4
$LN75@LoadFloat_@4:
  0016a	c6 45 f9 ec	 mov	 BYTE PTR __k$[ebp+21], -20 ; ffffffecH
  0016e	eb 72		 jmp	 SHORT $LN1@LoadFloat_@4
$LN76@LoadFloat_@4:
  00170	c6 45 f8 ed	 mov	 BYTE PTR __k$[ebp+20], -19 ; ffffffedH
  00174	eb 6c		 jmp	 SHORT $LN1@LoadFloat_@4
$LN77@LoadFloat_@4:
  00176	c6 45 f7 ea	 mov	 BYTE PTR __k$[ebp+19], -22 ; ffffffeaH
  0017a	eb 66		 jmp	 SHORT $LN1@LoadFloat_@4
$LN78@LoadFloat_@4:
  0017c	88 4d f6	 mov	 BYTE PTR __k$[ebp+18], cl
  0017f	eb 61		 jmp	 SHORT $LN1@LoadFloat_@4
$LN80@LoadFloat_@4:
  00181	c6 45 f4 ed	 mov	 BYTE PTR __k$[ebp+16], -19 ; ffffffedH
  00185	eb 5b		 jmp	 SHORT $LN1@LoadFloat_@4
$LN81@LoadFloat_@4:
  00187	c6 45 f3 ea	 mov	 BYTE PTR __k$[ebp+15], -22 ; ffffffeaH
  0018b	eb 55		 jmp	 SHORT $LN1@LoadFloat_@4
$LN82@LoadFloat_@4:
  0018d	88 4d f2	 mov	 BYTE PTR __k$[ebp+14], cl
  00190	eb 50		 jmp	 SHORT $LN1@LoadFloat_@4
$LN83@LoadFloat_@4:
  00192	c6 45 f1 ec	 mov	 BYTE PTR __k$[ebp+13], -20 ; ffffffecH
  00196	eb 4a		 jmp	 SHORT $LN1@LoadFloat_@4
$LN84@LoadFloat_@4:
  00198	c6 45 f0 ed	 mov	 BYTE PTR __k$[ebp+12], -19 ; ffffffedH
  0019c	eb 44		 jmp	 SHORT $LN1@LoadFloat_@4
$LN85@LoadFloat_@4:
  0019e	c6 45 ef ea	 mov	 BYTE PTR __k$[ebp+11], -22 ; ffffffeaH
  001a2	eb 3e		 jmp	 SHORT $LN1@LoadFloat_@4
$LN86@LoadFloat_@4:
  001a4	88 4d ee	 mov	 BYTE PTR __k$[ebp+10], cl
  001a7	eb 39		 jmp	 SHORT $LN1@LoadFloat_@4
$LN87@LoadFloat_@4:
  001a9	c6 45 ed ec	 mov	 BYTE PTR __k$[ebp+9], -20 ; ffffffecH
  001ad	eb 33		 jmp	 SHORT $LN1@LoadFloat_@4
$LN88@LoadFloat_@4:
  001af	c6 45 ec ed	 mov	 BYTE PTR __k$[ebp+8], -19 ; ffffffedH
  001b3	eb 2d		 jmp	 SHORT $LN1@LoadFloat_@4
$LN89@LoadFloat_@4:
  001b5	c6 45 eb ea	 mov	 BYTE PTR __k$[ebp+7], -22 ; ffffffeaH
  001b9	eb 27		 jmp	 SHORT $LN1@LoadFloat_@4
$LN90@LoadFloat_@4:
  001bb	88 4d ea	 mov	 BYTE PTR __k$[ebp+6], cl
  001be	eb 22		 jmp	 SHORT $LN1@LoadFloat_@4
$LN91@LoadFloat_@4:
  001c0	c6 45 e9 ec	 mov	 BYTE PTR __k$[ebp+5], -20 ; ffffffecH
  001c4	eb 1c		 jmp	 SHORT $LN1@LoadFloat_@4
$LN92@LoadFloat_@4:
  001c6	c6 45 e8 ed	 mov	 BYTE PTR __k$[ebp+4], -19 ; ffffffedH
  001ca	eb 16		 jmp	 SHORT $LN1@LoadFloat_@4
$LN93@LoadFloat_@4:
  001cc	c6 45 e7 ea	 mov	 BYTE PTR __k$[ebp+3], -22 ; ffffffeaH
  001d0	eb 10		 jmp	 SHORT $LN1@LoadFloat_@4
$LN94@LoadFloat_@4:
  001d2	c6 45 e6 eb	 mov	 BYTE PTR __k$[ebp+2], -21 ; ffffffebH
  001d6	eb 0a		 jmp	 SHORT $LN1@LoadFloat_@4
$LN95@LoadFloat_@4:
  001d8	c6 45 e5 ec	 mov	 BYTE PTR __k$[ebp+1], -20 ; ffffffecH
  001dc	eb 04		 jmp	 SHORT $LN1@LoadFloat_@4
$LN96@LoadFloat_@4:
  001de	c6 45 e4 ed	 mov	 BYTE PTR __k$[ebp], -19	; ffffffedH
$LN1@LoadFloat_@4:
  001e2	6a 04		 push	 4
  001e4	8d 45 e4	 lea	 eax, DWORD PTR __k$[ebp]
  001e7	c6 45 f5 00	 mov	 BYTE PTR __k$[ebp+17], 0
  001eb	5a		 pop	 edx
$LL104@LoadFloat_@4:
  001ec	81 30 ed ec eb
	ea		 xor	 DWORD PTR [eax], -353637139 ; eaebecedH
  001f2	83 c0 04	 add	 eax, 4
  001f5	4a		 dec	 edx
  001f6	75 f4		 jne	 SHORT $LL104@LoadFloat_@4

; 137  : 		return LoadFloat(_k, f);

  001f8	f3 0f 10 45 0c	 movss	 xmm0, DWORD PTR _f$[ebp]
  001fd	80 75 f4 ed	 xor	 BYTE PTR __k$[ebp+16], -19 ; ffffffedH
  00201	51		 push	 ecx
  00202	8d 45 e4	 lea	 eax, DWORD PTR __k$[ebp]
  00205	f3 0f 11 04 24	 movss	 DWORD PTR [esp], xmm0
  0020a	50		 push	 eax
  0020b	8b ce		 mov	 ecx, esi
  0020d	ff 15 00 00 00
	00		 call	 DWORD PTR __imp_?LoadFloat@ioINILoader@@QAEMPBDM@Z

; 138  : 	}

  00213	8b 4d fc	 mov	 ecx, DWORD PTR __$ArrayPad$[ebp]
  00216	33 cd		 xor	 ecx, ebp
  00218	5e		 pop	 esi
  00219	e8 00 00 00 00	 call	 @__security_check_cookie@4
  0021e	c9		 leave
  0021f	c2 08 00	 ret	 8
??$LoadFloat_e@$0BC@@ioINILoader@@QAEMAAY0BC@$$CBDM@Z ENDP ; ioINILoader::LoadFloat_e<18>
_TEXT	ENDS
PUBLIC	__$ArrayPad$
PUBLIC	??$LoadFloat_e@$0BB@@ioINILoader@@QAEMAAY0BB@$$CBDM@Z ; ioINILoader::LoadFloat_e<17>
; Function compile flags: /Ogsp
;	COMDAT ??$LoadFloat_e@$0BB@@ioINILoader@@QAEMAAY0BB@$$CBDM@Z
_TEXT	SEGMENT
__k$ = -28						; size = 17
__$ArrayPad$ = -4					; size = 4
_k$ = 8							; size = 4
_f$ = 12						; size = 4
??$LoadFloat_e@$0BB@@ioINILoader@@QAEMAAY0BB@$$CBDM@Z PROC ; ioINILoader::LoadFloat_e<17>, COMDAT
; _this$ = ecx

; 135  : 	{

  00000	55		 push	 ebp
  00001	8b ec		 mov	 ebp, esp
  00003	83 ec 1c	 sub	 esp, 28			; 0000001cH
  00006	a1 00 00 00 00	 mov	 eax, DWORD PTR ___security_cookie
  0000b	33 c5		 xor	 eax, ebp
  0000d	89 45 fc	 mov	 DWORD PTR __$ArrayPad$[ebp], eax
  00010	8b 45 08	 mov	 eax, DWORD PTR _k$[ebp]

; 136  : 		_ENCSTR(k, _k);

  00013	8a 10		 mov	 dl, BYTE PTR [eax]
  00015	56		 push	 esi
  00016	8b f1		 mov	 esi, ecx
  00018	84 d2		 test	 dl, dl
  0001a	0f 84 a7 01 00
	00		 je	 $LN96@LoadFloat_@5
  00020	80 f2 ed	 xor	 dl, -19			; ffffffedH
  00023	88 55 e4	 mov	 BYTE PTR __k$[ebp], dl
  00026	8a 50 01	 mov	 dl, BYTE PTR [eax+1]
  00029	84 d2		 test	 dl, dl
  0002b	0f 84 90 01 00
	00		 je	 $LN95@LoadFloat_@5
  00031	b1 ec		 mov	 cl, -20			; ffffffecH
  00033	32 d1		 xor	 dl, cl
  00035	88 55 e5	 mov	 BYTE PTR __k$[ebp+1], dl
  00038	8a 50 02	 mov	 dl, BYTE PTR [eax+2]
  0003b	84 d2		 test	 dl, dl
  0003d	0f 84 78 01 00
	00		 je	 $LN94@LoadFloat_@5
  00043	80 f2 eb	 xor	 dl, -21			; ffffffebH
  00046	88 55 e6	 mov	 BYTE PTR __k$[ebp+2], dl
  00049	8a 50 03	 mov	 dl, BYTE PTR [eax+3]
  0004c	84 d2		 test	 dl, dl
  0004e	0f 84 61 01 00
	00		 je	 $LN93@LoadFloat_@5
  00054	80 f2 ea	 xor	 dl, -22			; ffffffeaH
  00057	88 55 e7	 mov	 BYTE PTR __k$[ebp+3], dl
  0005a	8a 50 04	 mov	 dl, BYTE PTR [eax+4]
  0005d	84 d2		 test	 dl, dl
  0005f	0f 84 4a 01 00
	00		 je	 $LN92@LoadFloat_@5
  00065	80 f2 ed	 xor	 dl, -19			; ffffffedH
  00068	88 55 e8	 mov	 BYTE PTR __k$[ebp+4], dl
  0006b	8a 50 05	 mov	 dl, BYTE PTR [eax+5]
  0006e	84 d2		 test	 dl, dl
  00070	0f 84 34 01 00
	00		 je	 $LN91@LoadFloat_@5
  00076	32 d1		 xor	 dl, cl
  00078	88 55 e9	 mov	 BYTE PTR __k$[ebp+5], dl
  0007b	8a 50 06	 mov	 dl, BYTE PTR [eax+6]
  0007e	84 d2		 test	 dl, dl
  00080	0f 84 1e 01 00
	00		 je	 $LN90@LoadFloat_@5
  00086	80 f2 eb	 xor	 dl, -21			; ffffffebH
  00089	88 55 ea	 mov	 BYTE PTR __k$[ebp+6], dl
  0008c	8a 50 07	 mov	 dl, BYTE PTR [eax+7]
  0008f	84 d2		 test	 dl, dl
  00091	0f 84 07 01 00
	00		 je	 $LN89@LoadFloat_@5
  00097	80 f2 ea	 xor	 dl, -22			; ffffffeaH
  0009a	88 55 eb	 mov	 BYTE PTR __k$[ebp+7], dl
  0009d	8a 50 08	 mov	 dl, BYTE PTR [eax+8]
  000a0	84 d2		 test	 dl, dl
  000a2	0f 84 f0 00 00
	00		 je	 $LN88@LoadFloat_@5
  000a8	80 f2 ed	 xor	 dl, -19			; ffffffedH
  000ab	88 55 ec	 mov	 BYTE PTR __k$[ebp+8], dl
  000ae	8a 50 09	 mov	 dl, BYTE PTR [eax+9]
  000b1	84 d2		 test	 dl, dl
  000b3	0f 84 da 00 00
	00		 je	 $LN87@LoadFloat_@5
  000b9	32 d1		 xor	 dl, cl
  000bb	88 55 ed	 mov	 BYTE PTR __k$[ebp+9], dl
  000be	8a 50 0a	 mov	 dl, BYTE PTR [eax+10]
  000c1	84 d2		 test	 dl, dl
  000c3	0f 84 c4 00 00
	00		 je	 $LN86@LoadFloat_@5
  000c9	80 f2 eb	 xor	 dl, -21			; ffffffebH
  000cc	88 55 ee	 mov	 BYTE PTR __k$[ebp+10], dl
  000cf	8a 50 0b	 mov	 dl, BYTE PTR [eax+11]
  000d2	84 d2		 test	 dl, dl
  000d4	0f 84 ad 00 00
	00		 je	 $LN85@LoadFloat_@5
  000da	80 f2 ea	 xor	 dl, -22			; ffffffeaH
  000dd	88 55 ef	 mov	 BYTE PTR __k$[ebp+11], dl
  000e0	8a 50 0c	 mov	 dl, BYTE PTR [eax+12]
  000e3	84 d2		 test	 dl, dl
  000e5	0f 84 96 00 00
	00		 je	 $LN84@LoadFloat_@5
  000eb	80 f2 ed	 xor	 dl, -19			; ffffffedH
  000ee	88 55 f0	 mov	 BYTE PTR __k$[ebp+12], dl
  000f1	8a 50 0d	 mov	 dl, BYTE PTR [eax+13]
  000f4	84 d2		 test	 dl, dl
  000f6	0f 84 80 00 00
	00		 je	 $LN83@LoadFloat_@5
  000fc	32 d1		 xor	 dl, cl
  000fe	88 55 f1	 mov	 BYTE PTR __k$[ebp+13], dl
  00101	8a 50 0e	 mov	 dl, BYTE PTR [eax+14]
  00104	84 d2		 test	 dl, dl
  00106	74 6e		 je	 SHORT $LN82@LoadFloat_@5
  00108	80 f2 eb	 xor	 dl, -21			; ffffffebH
  0010b	88 55 f2	 mov	 BYTE PTR __k$[ebp+14], dl
  0010e	8a 50 0f	 mov	 dl, BYTE PTR [eax+15]
  00111	84 d2		 test	 dl, dl
  00113	74 5b		 je	 SHORT $LN81@LoadFloat_@5
  00115	80 f2 ea	 xor	 dl, -22			; ffffffeaH
  00118	80 78 10 00	 cmp	 BYTE PTR [eax+16], 0
  0011c	88 55 f3	 mov	 BYTE PTR __k$[ebp+15], dl
  0011f	0f 84 a6 00 00
	00		 je	 $LN1@LoadFloat_@5
  00125	8a 50 11	 mov	 dl, BYTE PTR [eax+17]
  00128	84 d2		 test	 dl, dl
  0012a	74 3f		 je	 SHORT $LN79@LoadFloat_@5
  0012c	32 d1		 xor	 dl, cl
  0012e	88 55 f5	 mov	 BYTE PTR __k$[ebp+17], dl
  00131	8a 50 12	 mov	 dl, BYTE PTR [eax+18]
  00134	84 d2		 test	 dl, dl
  00136	74 2d		 je	 SHORT $LN78@LoadFloat_@5
  00138	80 f2 eb	 xor	 dl, -21			; ffffffebH
  0013b	88 55 f6	 mov	 BYTE PTR __k$[ebp+18], dl
  0013e	8a 50 13	 mov	 dl, BYTE PTR [eax+19]
  00141	84 d2		 test	 dl, dl
  00143	74 1a		 je	 SHORT $LN77@LoadFloat_@5
  00145	8a 40 14	 mov	 al, BYTE PTR [eax+20]
  00148	80 f2 ea	 xor	 dl, -22			; ffffffeaH
  0014b	88 55 f7	 mov	 BYTE PTR __k$[ebp+19], dl
  0014e	84 c0		 test	 al, al
  00150	74 07		 je	 SHORT $LN76@LoadFloat_@5
  00152	34 ed		 xor	 al, -19			; ffffffedH
  00154	88 45 f8	 mov	 BYTE PTR __k$[ebp+20], al
  00157	eb 72		 jmp	 SHORT $LN1@LoadFloat_@5
$LN76@LoadFloat_@5:
  00159	c6 45 f8 ed	 mov	 BYTE PTR __k$[ebp+20], -19 ; ffffffedH
  0015d	eb 6c		 jmp	 SHORT $LN1@LoadFloat_@5
$LN77@LoadFloat_@5:
  0015f	c6 45 f7 ea	 mov	 BYTE PTR __k$[ebp+19], -22 ; ffffffeaH
  00163	eb 66		 jmp	 SHORT $LN1@LoadFloat_@5
$LN78@LoadFloat_@5:
  00165	c6 45 f6 eb	 mov	 BYTE PTR __k$[ebp+18], -21 ; ffffffebH
  00169	eb 60		 jmp	 SHORT $LN1@LoadFloat_@5
$LN79@LoadFloat_@5:
  0016b	88 4d f5	 mov	 BYTE PTR __k$[ebp+17], cl
  0016e	eb 5b		 jmp	 SHORT $LN1@LoadFloat_@5
$LN81@LoadFloat_@5:
  00170	c6 45 f3 ea	 mov	 BYTE PTR __k$[ebp+15], -22 ; ffffffeaH
  00174	eb 55		 jmp	 SHORT $LN1@LoadFloat_@5
$LN82@LoadFloat_@5:
  00176	c6 45 f2 eb	 mov	 BYTE PTR __k$[ebp+14], -21 ; ffffffebH
  0017a	eb 4f		 jmp	 SHORT $LN1@LoadFloat_@5
$LN83@LoadFloat_@5:
  0017c	88 4d f1	 mov	 BYTE PTR __k$[ebp+13], cl
  0017f	eb 4a		 jmp	 SHORT $LN1@LoadFloat_@5
$LN84@LoadFloat_@5:
  00181	c6 45 f0 ed	 mov	 BYTE PTR __k$[ebp+12], -19 ; ffffffedH
  00185	eb 44		 jmp	 SHORT $LN1@LoadFloat_@5
$LN85@LoadFloat_@5:
  00187	c6 45 ef ea	 mov	 BYTE PTR __k$[ebp+11], -22 ; ffffffeaH
  0018b	eb 3e		 jmp	 SHORT $LN1@LoadFloat_@5
$LN86@LoadFloat_@5:
  0018d	c6 45 ee eb	 mov	 BYTE PTR __k$[ebp+10], -21 ; ffffffebH
  00191	eb 38		 jmp	 SHORT $LN1@LoadFloat_@5
$LN87@LoadFloat_@5:
  00193	88 4d ed	 mov	 BYTE PTR __k$[ebp+9], cl
  00196	eb 33		 jmp	 SHORT $LN1@LoadFloat_@5
$LN88@LoadFloat_@5:
  00198	c6 45 ec ed	 mov	 BYTE PTR __k$[ebp+8], -19 ; ffffffedH
  0019c	eb 2d		 jmp	 SHORT $LN1@LoadFloat_@5
$LN89@LoadFloat_@5:
  0019e	c6 45 eb ea	 mov	 BYTE PTR __k$[ebp+7], -22 ; ffffffeaH
  001a2	eb 27		 jmp	 SHORT $LN1@LoadFloat_@5
$LN90@LoadFloat_@5:
  001a4	c6 45 ea eb	 mov	 BYTE PTR __k$[ebp+6], -21 ; ffffffebH
  001a8	eb 21		 jmp	 SHORT $LN1@LoadFloat_@5
$LN91@LoadFloat_@5:
  001aa	88 4d e9	 mov	 BYTE PTR __k$[ebp+5], cl
  001ad	eb 1c		 jmp	 SHORT $LN1@LoadFloat_@5
$LN92@LoadFloat_@5:
  001af	c6 45 e8 ed	 mov	 BYTE PTR __k$[ebp+4], -19 ; ffffffedH
  001b3	eb 16		 jmp	 SHORT $LN1@LoadFloat_@5
$LN93@LoadFloat_@5:
  001b5	c6 45 e7 ea	 mov	 BYTE PTR __k$[ebp+3], -22 ; ffffffeaH
  001b9	eb 10		 jmp	 SHORT $LN1@LoadFloat_@5
$LN94@LoadFloat_@5:
  001bb	c6 45 e6 eb	 mov	 BYTE PTR __k$[ebp+2], -21 ; ffffffebH
  001bf	eb 0a		 jmp	 SHORT $LN1@LoadFloat_@5
$LN95@LoadFloat_@5:
  001c1	c6 45 e5 ec	 mov	 BYTE PTR __k$[ebp+1], -20 ; ffffffecH
  001c5	eb 04		 jmp	 SHORT $LN1@LoadFloat_@5
$LN96@LoadFloat_@5:
  001c7	c6 45 e4 ed	 mov	 BYTE PTR __k$[ebp], -19	; ffffffedH
$LN1@LoadFloat_@5:
  001cb	6a 04		 push	 4
  001cd	8d 45 e4	 lea	 eax, DWORD PTR __k$[ebp]
  001d0	c6 45 f4 00	 mov	 BYTE PTR __k$[ebp+16], 0
  001d4	5a		 pop	 edx
$LL104@LoadFloat_@5:
  001d5	81 30 ed ec eb
	ea		 xor	 DWORD PTR [eax], -353637139 ; eaebecedH
  001db	83 c0 04	 add	 eax, 4
  001de	4a		 dec	 edx
  001df	75 f4		 jne	 SHORT $LL104@LoadFloat_@5

; 137  : 		return LoadFloat(_k, f);

  001e1	f3 0f 10 45 0c	 movss	 xmm0, DWORD PTR _f$[ebp]
  001e6	51		 push	 ecx
  001e7	8d 45 e4	 lea	 eax, DWORD PTR __k$[ebp]
  001ea	f3 0f 11 04 24	 movss	 DWORD PTR [esp], xmm0
  001ef	50		 push	 eax
  001f0	8b ce		 mov	 ecx, esi
  001f2	ff 15 00 00 00
	00		 call	 DWORD PTR __imp_?LoadFloat@ioINILoader@@QAEMPBDM@Z

; 138  : 	}

  001f8	8b 4d fc	 mov	 ecx, DWORD PTR __$ArrayPad$[ebp]
  001fb	33 cd		 xor	 ecx, ebp
  001fd	5e		 pop	 esi
  001fe	e8 00 00 00 00	 call	 @__security_check_cookie@4
  00203	c9		 leave
  00204	c2 08 00	 ret	 8
??$LoadFloat_e@$0BB@@ioINILoader@@QAEMAAY0BB@$$CBDM@Z ENDP ; ioINILoader::LoadFloat_e<17>
_TEXT	ENDS
PUBLIC	__$ArrayPad$
PUBLIC	??$LoadFloat_e@$0BI@@ioINILoader@@QAEMAAY0BI@$$CBDM@Z ; ioINILoader::LoadFloat_e<24>
; Function compile flags: /Ogsp
;	COMDAT ??$LoadFloat_e@$0BI@@ioINILoader@@QAEMAAY0BI@$$CBDM@Z
_TEXT	SEGMENT
__k$ = -32						; size = 24
__$ArrayPad$ = -4					; size = 4
_k$ = 8							; size = 4
_f$ = 12						; size = 4
??$LoadFloat_e@$0BI@@ioINILoader@@QAEMAAY0BI@$$CBDM@Z PROC ; ioINILoader::LoadFloat_e<24>, COMDAT
; _this$ = ecx

; 135  : 	{

  00000	55		 push	 ebp
  00001	8b ec		 mov	 ebp, esp
  00003	83 ec 20	 sub	 esp, 32			; 00000020H
  00006	a1 00 00 00 00	 mov	 eax, DWORD PTR ___security_cookie
  0000b	33 c5		 xor	 eax, ebp
  0000d	89 45 fc	 mov	 DWORD PTR __$ArrayPad$[ebp], eax
  00010	8b 45 08	 mov	 eax, DWORD PTR _k$[ebp]

; 136  : 		_ENCSTR(k, _k);

  00013	8a 10		 mov	 dl, BYTE PTR [eax]
  00015	53		 push	 ebx
  00016	56		 push	 esi
  00017	8b f1		 mov	 esi, ecx
  00019	84 d2		 test	 dl, dl
  0001b	0f 84 45 02 00
	00		 je	 $LN96@LoadFloat_@6
  00021	80 f2 ed	 xor	 dl, -19			; ffffffedH
  00024	88 55 e0	 mov	 BYTE PTR __k$[ebp], dl
  00027	8a 50 01	 mov	 dl, BYTE PTR [eax+1]
  0002a	84 d2		 test	 dl, dl
  0002c	0f 84 2e 02 00
	00		 je	 $LN95@LoadFloat_@6
  00032	b3 ec		 mov	 bl, -20			; ffffffecH
  00034	32 d3		 xor	 dl, bl
  00036	88 55 e1	 mov	 BYTE PTR __k$[ebp+1], dl
  00039	8a 50 02	 mov	 dl, BYTE PTR [eax+2]
  0003c	84 d2		 test	 dl, dl
  0003e	0f 84 16 02 00
	00		 je	 $LN94@LoadFloat_@6
  00044	b1 eb		 mov	 cl, -21			; ffffffebH
  00046	32 d1		 xor	 dl, cl
  00048	88 55 e2	 mov	 BYTE PTR __k$[ebp+2], dl
  0004b	8a 50 03	 mov	 dl, BYTE PTR [eax+3]
  0004e	84 d2		 test	 dl, dl
  00050	0f 84 fe 01 00
	00		 je	 $LN93@LoadFloat_@6
  00056	80 f2 ea	 xor	 dl, -22			; ffffffeaH
  00059	88 55 e3	 mov	 BYTE PTR __k$[ebp+3], dl
  0005c	8a 50 04	 mov	 dl, BYTE PTR [eax+4]
  0005f	84 d2		 test	 dl, dl
  00061	0f 84 e7 01 00
	00		 je	 $LN92@LoadFloat_@6
  00067	80 f2 ed	 xor	 dl, -19			; ffffffedH
  0006a	88 55 e4	 mov	 BYTE PTR __k$[ebp+4], dl
  0006d	8a 50 05	 mov	 dl, BYTE PTR [eax+5]
  00070	84 d2		 test	 dl, dl
  00072	0f 84 d1 01 00
	00		 je	 $LN91@LoadFloat_@6
  00078	32 d3		 xor	 dl, bl
  0007a	88 55 e5	 mov	 BYTE PTR __k$[ebp+5], dl
  0007d	8a 50 06	 mov	 dl, BYTE PTR [eax+6]
  00080	84 d2		 test	 dl, dl
  00082	0f 84 bc 01 00
	00		 je	 $LN90@LoadFloat_@6
  00088	32 d1		 xor	 dl, cl
  0008a	88 55 e6	 mov	 BYTE PTR __k$[ebp+6], dl
  0008d	8a 50 07	 mov	 dl, BYTE PTR [eax+7]
  00090	84 d2		 test	 dl, dl
  00092	0f 84 a6 01 00
	00		 je	 $LN89@LoadFloat_@6
  00098	80 f2 ea	 xor	 dl, -22			; ffffffeaH
  0009b	88 55 e7	 mov	 BYTE PTR __k$[ebp+7], dl
  0009e	8a 50 08	 mov	 dl, BYTE PTR [eax+8]
  000a1	84 d2		 test	 dl, dl
  000a3	0f 84 8f 01 00
	00		 je	 $LN88@LoadFloat_@6
  000a9	80 f2 ed	 xor	 dl, -19			; ffffffedH
  000ac	88 55 e8	 mov	 BYTE PTR __k$[ebp+8], dl
  000af	8a 50 09	 mov	 dl, BYTE PTR [eax+9]
  000b2	84 d2		 test	 dl, dl
  000b4	0f 84 79 01 00
	00		 je	 $LN87@LoadFloat_@6
  000ba	32 d3		 xor	 dl, bl
  000bc	88 55 e9	 mov	 BYTE PTR __k$[ebp+9], dl
  000bf	8a 50 0a	 mov	 dl, BYTE PTR [eax+10]
  000c2	84 d2		 test	 dl, dl
  000c4	0f 84 64 01 00
	00		 je	 $LN86@LoadFloat_@6
  000ca	32 d1		 xor	 dl, cl
  000cc	88 55 ea	 mov	 BYTE PTR __k$[ebp+10], dl
  000cf	8a 50 0b	 mov	 dl, BYTE PTR [eax+11]
  000d2	84 d2		 test	 dl, dl
  000d4	0f 84 4e 01 00
	00		 je	 $LN85@LoadFloat_@6
  000da	80 f2 ea	 xor	 dl, -22			; ffffffeaH
  000dd	88 55 eb	 mov	 BYTE PTR __k$[ebp+11], dl
  000e0	8a 50 0c	 mov	 dl, BYTE PTR [eax+12]
  000e3	84 d2		 test	 dl, dl
  000e5	0f 84 37 01 00
	00		 je	 $LN84@LoadFloat_@6
  000eb	80 f2 ed	 xor	 dl, -19			; ffffffedH
  000ee	88 55 ec	 mov	 BYTE PTR __k$[ebp+12], dl
  000f1	8a 50 0d	 mov	 dl, BYTE PTR [eax+13]
  000f4	84 d2		 test	 dl, dl
  000f6	0f 84 21 01 00
	00		 je	 $LN83@LoadFloat_@6
  000fc	32 d3		 xor	 dl, bl
  000fe	88 55 ed	 mov	 BYTE PTR __k$[ebp+13], dl
  00101	8a 50 0e	 mov	 dl, BYTE PTR [eax+14]
  00104	84 d2		 test	 dl, dl
  00106	0f 84 0c 01 00
	00		 je	 $LN82@LoadFloat_@6
  0010c	32 d1		 xor	 dl, cl
  0010e	88 55 ee	 mov	 BYTE PTR __k$[ebp+14], dl
  00111	8a 50 0f	 mov	 dl, BYTE PTR [eax+15]
  00114	84 d2		 test	 dl, dl
  00116	0f 84 f6 00 00
	00		 je	 $LN81@LoadFloat_@6
  0011c	80 f2 ea	 xor	 dl, -22			; ffffffeaH
  0011f	88 55 ef	 mov	 BYTE PTR __k$[ebp+15], dl
  00122	8a 50 10	 mov	 dl, BYTE PTR [eax+16]
  00125	84 d2		 test	 dl, dl
  00127	0f 84 df 00 00
	00		 je	 $LN80@LoadFloat_@6
  0012d	80 f2 ed	 xor	 dl, -19			; ffffffedH
  00130	88 55 f0	 mov	 BYTE PTR __k$[ebp+16], dl
  00133	8a 50 11	 mov	 dl, BYTE PTR [eax+17]
  00136	84 d2		 test	 dl, dl
  00138	0f 84 c9 00 00
	00		 je	 $LN79@LoadFloat_@6
  0013e	32 d3		 xor	 dl, bl
  00140	88 55 f1	 mov	 BYTE PTR __k$[ebp+17], dl
  00143	8a 50 12	 mov	 dl, BYTE PTR [eax+18]
  00146	84 d2		 test	 dl, dl
  00148	0f 84 b4 00 00
	00		 je	 $LN78@LoadFloat_@6
  0014e	32 d1		 xor	 dl, cl
  00150	88 55 f2	 mov	 BYTE PTR __k$[ebp+18], dl
  00153	8a 50 13	 mov	 dl, BYTE PTR [eax+19]
  00156	84 d2		 test	 dl, dl
  00158	0f 84 9e 00 00
	00		 je	 $LN77@LoadFloat_@6
  0015e	80 f2 ea	 xor	 dl, -22			; ffffffeaH
  00161	88 55 f3	 mov	 BYTE PTR __k$[ebp+19], dl
  00164	8a 50 14	 mov	 dl, BYTE PTR [eax+20]
  00167	84 d2		 test	 dl, dl
  00169	0f 84 87 00 00
	00		 je	 $LN76@LoadFloat_@6
  0016f	80 f2 ed	 xor	 dl, -19			; ffffffedH
  00172	88 55 f4	 mov	 BYTE PTR __k$[ebp+20], dl
  00175	8a 50 15	 mov	 dl, BYTE PTR [eax+21]
  00178	84 d2		 test	 dl, dl
  0017a	74 75		 je	 SHORT $LN75@LoadFloat_@6
  0017c	32 d3		 xor	 dl, bl
  0017e	88 55 f5	 mov	 BYTE PTR __k$[ebp+21], dl
  00181	8a 50 16	 mov	 dl, BYTE PTR [eax+22]
  00184	84 d2		 test	 dl, dl
  00186	74 64		 je	 SHORT $LN74@LoadFloat_@6
  00188	32 d1		 xor	 dl, cl
  0018a	80 78 17 00	 cmp	 BYTE PTR [eax+23], 0
  0018e	88 55 f6	 mov	 BYTE PTR __k$[ebp+22], dl
  00191	0f 84 d3 00 00
	00		 je	 $LN1@LoadFloat_@6
  00197	8a 50 18	 mov	 dl, BYTE PTR [eax+24]
  0019a	84 d2		 test	 dl, dl
  0019c	74 48		 je	 SHORT $LN72@LoadFloat_@6
  0019e	80 f2 ed	 xor	 dl, -19			; ffffffedH
  001a1	88 55 f8	 mov	 BYTE PTR __k$[ebp+24], dl
  001a4	8a 50 19	 mov	 dl, BYTE PTR [eax+25]
  001a7	84 d2		 test	 dl, dl
  001a9	74 33		 je	 SHORT $LN71@LoadFloat_@6
  001ab	32 d3		 xor	 dl, bl
  001ad	88 55 f9	 mov	 BYTE PTR __k$[ebp+25], dl
  001b0	8a 50 1a	 mov	 dl, BYTE PTR [eax+26]
  001b3	84 d2		 test	 dl, dl
  001b5	74 1f		 je	 SHORT $LN70@LoadFloat_@6
  001b7	8a 40 1b	 mov	 al, BYTE PTR [eax+27]
  001ba	32 d1		 xor	 dl, cl
  001bc	88 55 fa	 mov	 BYTE PTR __k$[ebp+26], dl
  001bf	84 c0		 test	 al, al
  001c1	74 0a		 je	 SHORT $LN69@LoadFloat_@6
  001c3	34 ea		 xor	 al, -22			; ffffffeaH
  001c5	88 45 fb	 mov	 BYTE PTR __k$[ebp+27], al
  001c8	e9 9d 00 00 00	 jmp	 $LN1@LoadFloat_@6
$LN69@LoadFloat_@6:
  001cd	c6 45 fb ea	 mov	 BYTE PTR __k$[ebp+27], -22 ; ffffffeaH
  001d1	e9 94 00 00 00	 jmp	 $LN1@LoadFloat_@6
$LN70@LoadFloat_@6:
  001d6	88 4d fa	 mov	 BYTE PTR __k$[ebp+26], cl
  001d9	e9 8c 00 00 00	 jmp	 $LN1@LoadFloat_@6
$LN71@LoadFloat_@6:
  001de	88 5d f9	 mov	 BYTE PTR __k$[ebp+25], bl
  001e1	e9 84 00 00 00	 jmp	 $LN1@LoadFloat_@6
$LN72@LoadFloat_@6:
  001e6	c6 45 f8 ed	 mov	 BYTE PTR __k$[ebp+24], -19 ; ffffffedH
  001ea	eb 7e		 jmp	 SHORT $LN1@LoadFloat_@6
$LN74@LoadFloat_@6:
  001ec	88 4d f6	 mov	 BYTE PTR __k$[ebp+22], cl
  001ef	eb 79		 jmp	 SHORT $LN1@LoadFloat_@6
$LN75@LoadFloat_@6:
  001f1	88 5d f5	 mov	 BYTE PTR __k$[ebp+21], bl
  001f4	eb 74		 jmp	 SHORT $LN1@LoadFloat_@6
$LN76@LoadFloat_@6:
  001f6	c6 45 f4 ed	 mov	 BYTE PTR __k$[ebp+20], -19 ; ffffffedH
  001fa	eb 6e		 jmp	 SHORT $LN1@LoadFloat_@6
$LN77@LoadFloat_@6:
  001fc	c6 45 f3 ea	 mov	 BYTE PTR __k$[ebp+19], -22 ; ffffffeaH
  00200	eb 68		 jmp	 SHORT $LN1@LoadFloat_@6
$LN78@LoadFloat_@6:
  00202	88 4d f2	 mov	 BYTE PTR __k$[ebp+18], cl
  00205	eb 63		 jmp	 SHORT $LN1@LoadFloat_@6
$LN79@LoadFloat_@6:
  00207	88 5d f1	 mov	 BYTE PTR __k$[ebp+17], bl
  0020a	eb 5e		 jmp	 SHORT $LN1@LoadFloat_@6
$LN80@LoadFloat_@6:
  0020c	c6 45 f0 ed	 mov	 BYTE PTR __k$[ebp+16], -19 ; ffffffedH
  00210	eb 58		 jmp	 SHORT $LN1@LoadFloat_@6
$LN81@LoadFloat_@6:
  00212	c6 45 ef ea	 mov	 BYTE PTR __k$[ebp+15], -22 ; ffffffeaH
  00216	eb 52		 jmp	 SHORT $LN1@LoadFloat_@6
$LN82@LoadFloat_@6:
  00218	88 4d ee	 mov	 BYTE PTR __k$[ebp+14], cl
  0021b	eb 4d		 jmp	 SHORT $LN1@LoadFloat_@6
$LN83@LoadFloat_@6:
  0021d	88 5d ed	 mov	 BYTE PTR __k$[ebp+13], bl
  00220	eb 48		 jmp	 SHORT $LN1@LoadFloat_@6
$LN84@LoadFloat_@6:
  00222	c6 45 ec ed	 mov	 BYTE PTR __k$[ebp+12], -19 ; ffffffedH
  00226	eb 42		 jmp	 SHORT $LN1@LoadFloat_@6
$LN85@LoadFloat_@6:
  00228	c6 45 eb ea	 mov	 BYTE PTR __k$[ebp+11], -22 ; ffffffeaH
  0022c	eb 3c		 jmp	 SHORT $LN1@LoadFloat_@6
$LN86@LoadFloat_@6:
  0022e	88 4d ea	 mov	 BYTE PTR __k$[ebp+10], cl
  00231	eb 37		 jmp	 SHORT $LN1@LoadFloat_@6
$LN87@LoadFloat_@6:
  00233	88 5d e9	 mov	 BYTE PTR __k$[ebp+9], bl
  00236	eb 32		 jmp	 SHORT $LN1@LoadFloat_@6
$LN88@LoadFloat_@6:
  00238	c6 45 e8 ed	 mov	 BYTE PTR __k$[ebp+8], -19 ; ffffffedH
  0023c	eb 2c		 jmp	 SHORT $LN1@LoadFloat_@6
$LN89@LoadFloat_@6:
  0023e	c6 45 e7 ea	 mov	 BYTE PTR __k$[ebp+7], -22 ; ffffffeaH
  00242	eb 26		 jmp	 SHORT $LN1@LoadFloat_@6
$LN90@LoadFloat_@6:
  00244	88 4d e6	 mov	 BYTE PTR __k$[ebp+6], cl
  00247	eb 21		 jmp	 SHORT $LN1@LoadFloat_@6
$LN91@LoadFloat_@6:
  00249	88 5d e5	 mov	 BYTE PTR __k$[ebp+5], bl
  0024c	eb 1c		 jmp	 SHORT $LN1@LoadFloat_@6
$LN92@LoadFloat_@6:
  0024e	c6 45 e4 ed	 mov	 BYTE PTR __k$[ebp+4], -19 ; ffffffedH
  00252	eb 16		 jmp	 SHORT $LN1@LoadFloat_@6
$LN93@LoadFloat_@6:
  00254	c6 45 e3 ea	 mov	 BYTE PTR __k$[ebp+3], -22 ; ffffffeaH
  00258	eb 10		 jmp	 SHORT $LN1@LoadFloat_@6
$LN94@LoadFloat_@6:
  0025a	c6 45 e2 eb	 mov	 BYTE PTR __k$[ebp+2], -21 ; ffffffebH
  0025e	eb 0a		 jmp	 SHORT $LN1@LoadFloat_@6
$LN95@LoadFloat_@6:
  00260	c6 45 e1 ec	 mov	 BYTE PTR __k$[ebp+1], -20 ; ffffffecH
  00264	eb 04		 jmp	 SHORT $LN1@LoadFloat_@6
$LN96@LoadFloat_@6:
  00266	c6 45 e0 ed	 mov	 BYTE PTR __k$[ebp], -19	; ffffffedH
$LN1@LoadFloat_@6:
  0026a	6a 05		 push	 5
  0026c	8d 45 e0	 lea	 eax, DWORD PTR __k$[ebp]
  0026f	c6 45 f7 00	 mov	 BYTE PTR __k$[ebp+23], 0
  00273	5a		 pop	 edx
$LL104@LoadFloat_@6:
  00274	81 30 ed ec eb
	ea		 xor	 DWORD PTR [eax], -353637139 ; eaebecedH
  0027a	83 c0 04	 add	 eax, 4
  0027d	4a		 dec	 edx
  0027e	75 f4		 jne	 SHORT $LL104@LoadFloat_@6
  00280	6a 14		 push	 20			; 00000014H
  00282	58		 pop	 eax
$LL101@LoadFloat_@6:
  00283	8b c8		 mov	 ecx, eax
  00285	81 e1 03 00 00
	80		 and	 ecx, -2147483645	; 80000003H
  0028b	79 05		 jns	 SHORT $LN111@LoadFloat_@6
  0028d	49		 dec	 ecx
  0028e	83 c9 fc	 or	 ecx, -4			; fffffffcH
  00291	41		 inc	 ecx
$LN111@LoadFloat_@6:
  00292	b2 ed		 mov	 dl, -19			; ffffffedH
  00294	2a d1		 sub	 dl, cl
  00296	30 54 05 e0	 xor	 BYTE PTR __k$[ebp+eax], dl
  0029a	40		 inc	 eax
  0029b	83 f8 17	 cmp	 eax, 23			; 00000017H
  0029e	7c e3		 jl	 SHORT $LL101@LoadFloat_@6

; 137  : 		return LoadFloat(_k, f);

  002a0	f3 0f 10 45 0c	 movss	 xmm0, DWORD PTR _f$[ebp]
  002a5	51		 push	 ecx
  002a6	8d 45 e0	 lea	 eax, DWORD PTR __k$[ebp]
  002a9	f3 0f 11 04 24	 movss	 DWORD PTR [esp], xmm0
  002ae	50		 push	 eax
  002af	8b ce		 mov	 ecx, esi
  002b1	ff 15 00 00 00
	00		 call	 DWORD PTR __imp_?LoadFloat@ioINILoader@@QAEMPBDM@Z

; 138  : 	}

  002b7	8b 4d fc	 mov	 ecx, DWORD PTR __$ArrayPad$[ebp]
  002ba	5e		 pop	 esi
  002bb	33 cd		 xor	 ecx, ebp
  002bd	5b		 pop	 ebx
  002be	e8 00 00 00 00	 call	 @__security_check_cookie@4
  002c3	c9		 leave
  002c4	c2 08 00	 ret	 8
??$LoadFloat_e@$0BI@@ioINILoader@@QAEMAAY0BI@$$CBDM@Z ENDP ; ioINILoader::LoadFloat_e<24>
_TEXT	ENDS
PUBLIC	__$ArrayPad$
PUBLIC	??$LoadFloat_e@$0BD@@ioINILoader@@QAEMAAY0BD@$$CBDM@Z ; ioINILoader::LoadFloat_e<19>
; Function compile flags: /Ogsp
;	COMDAT ??$LoadFloat_e@$0BD@@ioINILoader@@QAEMAAY0BD@$$CBDM@Z
_TEXT	SEGMENT
__k$ = -28						; size = 19
__$ArrayPad$ = -4					; size = 4
_k$ = 8							; size = 4
_f$ = 12						; size = 4
??$LoadFloat_e@$0BD@@ioINILoader@@QAEMAAY0BD@$$CBDM@Z PROC ; ioINILoader::LoadFloat_e<19>, COMDAT
; _this$ = ecx

; 135  : 	{

  00000	55		 push	 ebp
  00001	8b ec		 mov	 ebp, esp
  00003	83 ec 1c	 sub	 esp, 28			; 0000001cH
  00006	a1 00 00 00 00	 mov	 eax, DWORD PTR ___security_cookie
  0000b	33 c5		 xor	 eax, ebp
  0000d	89 45 fc	 mov	 DWORD PTR __$ArrayPad$[ebp], eax
  00010	8b 45 08	 mov	 eax, DWORD PTR _k$[ebp]

; 136  : 		_ENCSTR(k, _k);

  00013	8a 10		 mov	 dl, BYTE PTR [eax]
  00015	56		 push	 esi
  00016	8b f1		 mov	 esi, ecx
  00018	84 d2		 test	 dl, dl
  0001a	0f 84 cf 01 00
	00		 je	 $LN96@LoadFloat_@7
  00020	80 f2 ed	 xor	 dl, -19			; ffffffedH
  00023	88 55 e4	 mov	 BYTE PTR __k$[ebp], dl
  00026	8a 50 01	 mov	 dl, BYTE PTR [eax+1]
  00029	84 d2		 test	 dl, dl
  0002b	0f 84 b8 01 00
	00		 je	 $LN95@LoadFloat_@7
  00031	b1 ec		 mov	 cl, -20			; ffffffecH
  00033	32 d1		 xor	 dl, cl
  00035	88 55 e5	 mov	 BYTE PTR __k$[ebp+1], dl
  00038	8a 50 02	 mov	 dl, BYTE PTR [eax+2]
  0003b	84 d2		 test	 dl, dl
  0003d	0f 84 a0 01 00
	00		 je	 $LN94@LoadFloat_@7
  00043	80 f2 eb	 xor	 dl, -21			; ffffffebH
  00046	88 55 e6	 mov	 BYTE PTR __k$[ebp+2], dl
  00049	8a 50 03	 mov	 dl, BYTE PTR [eax+3]
  0004c	84 d2		 test	 dl, dl
  0004e	0f 84 89 01 00
	00		 je	 $LN93@LoadFloat_@7
  00054	80 f2 ea	 xor	 dl, -22			; ffffffeaH
  00057	88 55 e7	 mov	 BYTE PTR __k$[ebp+3], dl
  0005a	8a 50 04	 mov	 dl, BYTE PTR [eax+4]
  0005d	84 d2		 test	 dl, dl
  0005f	0f 84 72 01 00
	00		 je	 $LN92@LoadFloat_@7
  00065	80 f2 ed	 xor	 dl, -19			; ffffffedH
  00068	88 55 e8	 mov	 BYTE PTR __k$[ebp+4], dl
  0006b	8a 50 05	 mov	 dl, BYTE PTR [eax+5]
  0006e	84 d2		 test	 dl, dl
  00070	0f 84 5c 01 00
	00		 je	 $LN91@LoadFloat_@7
  00076	32 d1		 xor	 dl, cl
  00078	88 55 e9	 mov	 BYTE PTR __k$[ebp+5], dl
  0007b	8a 50 06	 mov	 dl, BYTE PTR [eax+6]
  0007e	84 d2		 test	 dl, dl
  00080	0f 84 46 01 00
	00		 je	 $LN90@LoadFloat_@7
  00086	80 f2 eb	 xor	 dl, -21			; ffffffebH
  00089	88 55 ea	 mov	 BYTE PTR __k$[ebp+6], dl
  0008c	8a 50 07	 mov	 dl, BYTE PTR [eax+7]
  0008f	84 d2		 test	 dl, dl
  00091	0f 84 2f 01 00
	00		 je	 $LN89@LoadFloat_@7
  00097	80 f2 ea	 xor	 dl, -22			; ffffffeaH
  0009a	88 55 eb	 mov	 BYTE PTR __k$[ebp+7], dl
  0009d	8a 50 08	 mov	 dl, BYTE PTR [eax+8]
  000a0	84 d2		 test	 dl, dl
  000a2	0f 84 18 01 00
	00		 je	 $LN88@LoadFloat_@7
  000a8	80 f2 ed	 xor	 dl, -19			; ffffffedH
  000ab	88 55 ec	 mov	 BYTE PTR __k$[ebp+8], dl
  000ae	8a 50 09	 mov	 dl, BYTE PTR [eax+9]
  000b1	84 d2		 test	 dl, dl
  000b3	0f 84 02 01 00
	00		 je	 $LN87@LoadFloat_@7
  000b9	32 d1		 xor	 dl, cl
  000bb	88 55 ed	 mov	 BYTE PTR __k$[ebp+9], dl
  000be	8a 50 0a	 mov	 dl, BYTE PTR [eax+10]
  000c1	84 d2		 test	 dl, dl
  000c3	0f 84 ec 00 00
	00		 je	 $LN86@LoadFloat_@7
  000c9	80 f2 eb	 xor	 dl, -21			; ffffffebH
  000cc	88 55 ee	 mov	 BYTE PTR __k$[ebp+10], dl
  000cf	8a 50 0b	 mov	 dl, BYTE PTR [eax+11]
  000d2	84 d2		 test	 dl, dl
  000d4	0f 84 d5 00 00
	00		 je	 $LN85@LoadFloat_@7
  000da	80 f2 ea	 xor	 dl, -22			; ffffffeaH
  000dd	88 55 ef	 mov	 BYTE PTR __k$[ebp+11], dl
  000e0	8a 50 0c	 mov	 dl, BYTE PTR [eax+12]
  000e3	84 d2		 test	 dl, dl
  000e5	0f 84 be 00 00
	00		 je	 $LN84@LoadFloat_@7
  000eb	80 f2 ed	 xor	 dl, -19			; ffffffedH
  000ee	88 55 f0	 mov	 BYTE PTR __k$[ebp+12], dl
  000f1	8a 50 0d	 mov	 dl, BYTE PTR [eax+13]
  000f4	84 d2		 test	 dl, dl
  000f6	0f 84 a8 00 00
	00		 je	 $LN83@LoadFloat_@7
  000fc	32 d1		 xor	 dl, cl
  000fe	88 55 f1	 mov	 BYTE PTR __k$[ebp+13], dl
  00101	8a 50 0e	 mov	 dl, BYTE PTR [eax+14]
  00104	84 d2		 test	 dl, dl
  00106	0f 84 92 00 00
	00		 je	 $LN82@LoadFloat_@7
  0010c	80 f2 eb	 xor	 dl, -21			; ffffffebH
  0010f	88 55 f2	 mov	 BYTE PTR __k$[ebp+14], dl
  00112	8a 50 0f	 mov	 dl, BYTE PTR [eax+15]
  00115	84 d2		 test	 dl, dl
  00117	74 7f		 je	 SHORT $LN81@LoadFloat_@7
  00119	80 f2 ea	 xor	 dl, -22			; ffffffeaH
  0011c	88 55 f3	 mov	 BYTE PTR __k$[ebp+15], dl
  0011f	8a 50 10	 mov	 dl, BYTE PTR [eax+16]
  00122	84 d2		 test	 dl, dl
  00124	74 6c		 je	 SHORT $LN80@LoadFloat_@7
  00126	80 f2 ed	 xor	 dl, -19			; ffffffedH
  00129	88 55 f4	 mov	 BYTE PTR __k$[ebp+16], dl
  0012c	8a 50 11	 mov	 dl, BYTE PTR [eax+17]
  0012f	84 d2		 test	 dl, dl
  00131	74 5a		 je	 SHORT $LN79@LoadFloat_@7
  00133	32 d1		 xor	 dl, cl
  00135	80 78 12 00	 cmp	 BYTE PTR [eax+18], 0
  00139	88 55 f5	 mov	 BYTE PTR __k$[ebp+17], dl
  0013c	0f 84 b1 00 00
	00		 je	 $LN1@LoadFloat_@7
  00142	8a 50 13	 mov	 dl, BYTE PTR [eax+19]
  00145	84 d2		 test	 dl, dl
  00147	74 3e		 je	 SHORT $LN77@LoadFloat_@7
  00149	80 f2 ea	 xor	 dl, -22			; ffffffeaH
  0014c	88 55 f7	 mov	 BYTE PTR __k$[ebp+19], dl
  0014f	8a 50 14	 mov	 dl, BYTE PTR [eax+20]
  00152	84 d2		 test	 dl, dl
  00154	74 2b		 je	 SHORT $LN76@LoadFloat_@7
  00156	80 f2 ed	 xor	 dl, -19			; ffffffedH
  00159	88 55 f8	 mov	 BYTE PTR __k$[ebp+20], dl
  0015c	8a 50 15	 mov	 dl, BYTE PTR [eax+21]
  0015f	84 d2		 test	 dl, dl
  00161	74 19		 je	 SHORT $LN75@LoadFloat_@7
  00163	8a 40 16	 mov	 al, BYTE PTR [eax+22]
  00166	32 d1		 xor	 dl, cl
  00168	88 55 f9	 mov	 BYTE PTR __k$[ebp+21], dl
  0016b	84 c0		 test	 al, al
  0016d	74 07		 je	 SHORT $LN74@LoadFloat_@7
  0016f	34 eb		 xor	 al, -21			; ffffffebH
  00171	88 45 fa	 mov	 BYTE PTR __k$[ebp+22], al
  00174	eb 7d		 jmp	 SHORT $LN1@LoadFloat_@7
$LN74@LoadFloat_@7:
  00176	c6 45 fa eb	 mov	 BYTE PTR __k$[ebp+22], -21 ; ffffffebH
  0017a	eb 77		 jmp	 SHORT $LN1@LoadFloat_@7
$LN75@LoadFloat_@7:
  0017c	88 4d f9	 mov	 BYTE PTR __k$[ebp+21], cl
  0017f	eb 72		 jmp	 SHORT $LN1@LoadFloat_@7
$LN76@LoadFloat_@7:
  00181	c6 45 f8 ed	 mov	 BYTE PTR __k$[ebp+20], -19 ; ffffffedH
  00185	eb 6c		 jmp	 SHORT $LN1@LoadFloat_@7
$LN77@LoadFloat_@7:
  00187	c6 45 f7 ea	 mov	 BYTE PTR __k$[ebp+19], -22 ; ffffffeaH
  0018b	eb 66		 jmp	 SHORT $LN1@LoadFloat_@7
$LN79@LoadFloat_@7:
  0018d	88 4d f5	 mov	 BYTE PTR __k$[ebp+17], cl
  00190	eb 61		 jmp	 SHORT $LN1@LoadFloat_@7
$LN80@LoadFloat_@7:
  00192	c6 45 f4 ed	 mov	 BYTE PTR __k$[ebp+16], -19 ; ffffffedH
  00196	eb 5b		 jmp	 SHORT $LN1@LoadFloat_@7
$LN81@LoadFloat_@7:
  00198	c6 45 f3 ea	 mov	 BYTE PTR __k$[ebp+15], -22 ; ffffffeaH
  0019c	eb 55		 jmp	 SHORT $LN1@LoadFloat_@7
$LN82@LoadFloat_@7:
  0019e	c6 45 f2 eb	 mov	 BYTE PTR __k$[ebp+14], -21 ; ffffffebH
  001a2	eb 4f		 jmp	 SHORT $LN1@LoadFloat_@7
$LN83@LoadFloat_@7:
  001a4	88 4d f1	 mov	 BYTE PTR __k$[ebp+13], cl
  001a7	eb 4a		 jmp	 SHORT $LN1@LoadFloat_@7
$LN84@LoadFloat_@7:
  001a9	c6 45 f0 ed	 mov	 BYTE PTR __k$[ebp+12], -19 ; ffffffedH
  001ad	eb 44		 jmp	 SHORT $LN1@LoadFloat_@7
$LN85@LoadFloat_@7:
  001af	c6 45 ef ea	 mov	 BYTE PTR __k$[ebp+11], -22 ; ffffffeaH
  001b3	eb 3e		 jmp	 SHORT $LN1@LoadFloat_@7
$LN86@LoadFloat_@7:
  001b5	c6 45 ee eb	 mov	 BYTE PTR __k$[ebp+10], -21 ; ffffffebH
  001b9	eb 38		 jmp	 SHORT $LN1@LoadFloat_@7
$LN87@LoadFloat_@7:
  001bb	88 4d ed	 mov	 BYTE PTR __k$[ebp+9], cl
  001be	eb 33		 jmp	 SHORT $LN1@LoadFloat_@7
$LN88@LoadFloat_@7:
  001c0	c6 45 ec ed	 mov	 BYTE PTR __k$[ebp+8], -19 ; ffffffedH
  001c4	eb 2d		 jmp	 SHORT $LN1@LoadFloat_@7
$LN89@LoadFloat_@7:
  001c6	c6 45 eb ea	 mov	 BYTE PTR __k$[ebp+7], -22 ; ffffffeaH
  001ca	eb 27		 jmp	 SHORT $LN1@LoadFloat_@7
$LN90@LoadFloat_@7:
  001cc	c6 45 ea eb	 mov	 BYTE PTR __k$[ebp+6], -21 ; ffffffebH
  001d0	eb 21		 jmp	 SHORT $LN1@LoadFloat_@7
$LN91@LoadFloat_@7:
  001d2	88 4d e9	 mov	 BYTE PTR __k$[ebp+5], cl
  001d5	eb 1c		 jmp	 SHORT $LN1@LoadFloat_@7
$LN92@LoadFloat_@7:
  001d7	c6 45 e8 ed	 mov	 BYTE PTR __k$[ebp+4], -19 ; ffffffedH
  001db	eb 16		 jmp	 SHORT $LN1@LoadFloat_@7
$LN93@LoadFloat_@7:
  001dd	c6 45 e7 ea	 mov	 BYTE PTR __k$[ebp+3], -22 ; ffffffeaH
  001e1	eb 10		 jmp	 SHORT $LN1@LoadFloat_@7
$LN94@LoadFloat_@7:
  001e3	c6 45 e6 eb	 mov	 BYTE PTR __k$[ebp+2], -21 ; ffffffebH
  001e7	eb 0a		 jmp	 SHORT $LN1@LoadFloat_@7
$LN95@LoadFloat_@7:
  001e9	c6 45 e5 ec	 mov	 BYTE PTR __k$[ebp+1], -20 ; ffffffecH
  001ed	eb 04		 jmp	 SHORT $LN1@LoadFloat_@7
$LN96@LoadFloat_@7:
  001ef	c6 45 e4 ed	 mov	 BYTE PTR __k$[ebp], -19	; ffffffedH
$LN1@LoadFloat_@7:
  001f3	6a 04		 push	 4
  001f5	8d 45 e4	 lea	 eax, DWORD PTR __k$[ebp]
  001f8	c6 45 f6 00	 mov	 BYTE PTR __k$[ebp+18], 0
  001fc	5a		 pop	 edx
$LL104@LoadFloat_@7:
  001fd	81 30 ed ec eb
	ea		 xor	 DWORD PTR [eax], -353637139 ; eaebecedH
  00203	83 c0 04	 add	 eax, 4
  00206	4a		 dec	 edx
  00207	75 f4		 jne	 SHORT $LL104@LoadFloat_@7
  00209	6a 10		 push	 16			; 00000010H
  0020b	58		 pop	 eax
$LL101@LoadFloat_@7:
  0020c	8b c8		 mov	 ecx, eax
  0020e	81 e1 03 00 00
	80		 and	 ecx, -2147483645	; 80000003H
  00214	79 05		 jns	 SHORT $LN111@LoadFloat_@7
  00216	49		 dec	 ecx
  00217	83 c9 fc	 or	 ecx, -4			; fffffffcH
  0021a	41		 inc	 ecx
$LN111@LoadFloat_@7:
  0021b	b2 ed		 mov	 dl, -19			; ffffffedH
  0021d	2a d1		 sub	 dl, cl
  0021f	30 54 05 e4	 xor	 BYTE PTR __k$[ebp+eax], dl
  00223	40		 inc	 eax
  00224	83 f8 12	 cmp	 eax, 18			; 00000012H
  00227	7c e3		 jl	 SHORT $LL101@LoadFloat_@7

; 137  : 		return LoadFloat(_k, f);

  00229	f3 0f 10 45 0c	 movss	 xmm0, DWORD PTR _f$[ebp]
  0022e	51		 push	 ecx
  0022f	8d 45 e4	 lea	 eax, DWORD PTR __k$[ebp]
  00232	f3 0f 11 04 24	 movss	 DWORD PTR [esp], xmm0
  00237	50		 push	 eax
  00238	8b ce		 mov	 ecx, esi
  0023a	ff 15 00 00 00
	00		 call	 DWORD PTR __imp_?LoadFloat@ioINILoader@@QAEMPBDM@Z

; 138  : 	}

  00240	8b 4d fc	 mov	 ecx, DWORD PTR __$ArrayPad$[ebp]
  00243	33 cd		 xor	 ecx, ebp
  00245	5e		 pop	 esi
  00246	e8 00 00 00 00	 call	 @__security_check_cookie@4
  0024b	c9		 leave
  0024c	c2 08 00	 ret	 8
??$LoadFloat_e@$0BD@@ioINILoader@@QAEMAAY0BD@$$CBDM@Z ENDP ; ioINILoader::LoadFloat_e<19>
_TEXT	ENDS
PUBLIC	__$ArrayPad$
PUBLIC	??$LoadInt_e@$0BB@@ioINILoader@@QAEHAAY0BB@$$CBDH@Z ; ioINILoader::LoadInt_e<17>
EXTRN	__imp_?LoadInt@ioINILoader@@QAEHPBDH@Z:PROC
; Function compile flags: /Ogsp
;	COMDAT ??$LoadInt_e@$0BB@@ioINILoader@@QAEHAAY0BB@$$CBDH@Z
_TEXT	SEGMENT
__k$ = -28						; size = 17
__$ArrayPad$ = -4					; size = 4
_k$ = 8							; size = 4
_i$ = 12						; size = 4
??$LoadInt_e@$0BB@@ioINILoader@@QAEHAAY0BB@$$CBDH@Z PROC ; ioINILoader::LoadInt_e<17>, COMDAT
; _this$ = ecx

; 118  : 	{

  00000	55		 push	 ebp
  00001	8b ec		 mov	 ebp, esp
  00003	83 ec 1c	 sub	 esp, 28			; 0000001cH
  00006	a1 00 00 00 00	 mov	 eax, DWORD PTR ___security_cookie
  0000b	33 c5		 xor	 eax, ebp
  0000d	89 45 fc	 mov	 DWORD PTR __$ArrayPad$[ebp], eax
  00010	8b 45 08	 mov	 eax, DWORD PTR _k$[ebp]

; 119  : 		_ENCSTR(k, _k);

  00013	8a 10		 mov	 dl, BYTE PTR [eax]
  00015	56		 push	 esi
  00016	8b f1		 mov	 esi, ecx
  00018	84 d2		 test	 dl, dl
  0001a	0f 84 a7 01 00
	00		 je	 $LN96@LoadInt_e
  00020	80 f2 ed	 xor	 dl, -19			; ffffffedH
  00023	88 55 e4	 mov	 BYTE PTR __k$[ebp], dl
  00026	8a 50 01	 mov	 dl, BYTE PTR [eax+1]
  00029	84 d2		 test	 dl, dl
  0002b	0f 84 90 01 00
	00		 je	 $LN95@LoadInt_e
  00031	b1 ec		 mov	 cl, -20			; ffffffecH
  00033	32 d1		 xor	 dl, cl
  00035	88 55 e5	 mov	 BYTE PTR __k$[ebp+1], dl
  00038	8a 50 02	 mov	 dl, BYTE PTR [eax+2]
  0003b	84 d2		 test	 dl, dl
  0003d	0f 84 78 01 00
	00		 je	 $LN94@LoadInt_e
  00043	80 f2 eb	 xor	 dl, -21			; ffffffebH
  00046	88 55 e6	 mov	 BYTE PTR __k$[ebp+2], dl
  00049	8a 50 03	 mov	 dl, BYTE PTR [eax+3]
  0004c	84 d2		 test	 dl, dl
  0004e	0f 84 61 01 00
	00		 je	 $LN93@LoadInt_e
  00054	80 f2 ea	 xor	 dl, -22			; ffffffeaH
  00057	88 55 e7	 mov	 BYTE PTR __k$[ebp+3], dl
  0005a	8a 50 04	 mov	 dl, BYTE PTR [eax+4]
  0005d	84 d2		 test	 dl, dl
  0005f	0f 84 4a 01 00
	00		 je	 $LN92@LoadInt_e
  00065	80 f2 ed	 xor	 dl, -19			; ffffffedH
  00068	88 55 e8	 mov	 BYTE PTR __k$[ebp+4], dl
  0006b	8a 50 05	 mov	 dl, BYTE PTR [eax+5]
  0006e	84 d2		 test	 dl, dl
  00070	0f 84 34 01 00
	00		 je	 $LN91@LoadInt_e
  00076	32 d1		 xor	 dl, cl
  00078	88 55 e9	 mov	 BYTE PTR __k$[ebp+5], dl
  0007b	8a 50 06	 mov	 dl, BYTE PTR [eax+6]
  0007e	84 d2		 test	 dl, dl
  00080	0f 84 1e 01 00
	00		 je	 $LN90@LoadInt_e
  00086	80 f2 eb	 xor	 dl, -21			; ffffffebH
  00089	88 55 ea	 mov	 BYTE PTR __k$[ebp+6], dl
  0008c	8a 50 07	 mov	 dl, BYTE PTR [eax+7]
  0008f	84 d2		 test	 dl, dl
  00091	0f 84 07 01 00
	00		 je	 $LN89@LoadInt_e
  00097	80 f2 ea	 xor	 dl, -22			; ffffffeaH
  0009a	88 55 eb	 mov	 BYTE PTR __k$[ebp+7], dl
  0009d	8a 50 08	 mov	 dl, BYTE PTR [eax+8]
  000a0	84 d2		 test	 dl, dl
  000a2	0f 84 f0 00 00
	00		 je	 $LN88@LoadInt_e
  000a8	80 f2 ed	 xor	 dl, -19			; ffffffedH
  000ab	88 55 ec	 mov	 BYTE PTR __k$[ebp+8], dl
  000ae	8a 50 09	 mov	 dl, BYTE PTR [eax+9]
  000b1	84 d2		 test	 dl, dl
  000b3	0f 84 da 00 00
	00		 je	 $LN87@LoadInt_e
  000b9	32 d1		 xor	 dl, cl
  000bb	88 55 ed	 mov	 BYTE PTR __k$[ebp+9], dl
  000be	8a 50 0a	 mov	 dl, BYTE PTR [eax+10]
  000c1	84 d2		 test	 dl, dl
  000c3	0f 84 c4 00 00
	00		 je	 $LN86@LoadInt_e
  000c9	80 f2 eb	 xor	 dl, -21			; ffffffebH
  000cc	88 55 ee	 mov	 BYTE PTR __k$[ebp+10], dl
  000cf	8a 50 0b	 mov	 dl, BYTE PTR [eax+11]
  000d2	84 d2		 test	 dl, dl
  000d4	0f 84 ad 00 00
	00		 je	 $LN85@LoadInt_e
  000da	80 f2 ea	 xor	 dl, -22			; ffffffeaH
  000dd	88 55 ef	 mov	 BYTE PTR __k$[ebp+11], dl
  000e0	8a 50 0c	 mov	 dl, BYTE PTR [eax+12]
  000e3	84 d2		 test	 dl, dl
  000e5	0f 84 96 00 00
	00		 je	 $LN84@LoadInt_e
  000eb	80 f2 ed	 xor	 dl, -19			; ffffffedH
  000ee	88 55 f0	 mov	 BYTE PTR __k$[ebp+12], dl
  000f1	8a 50 0d	 mov	 dl, BYTE PTR [eax+13]
  000f4	84 d2		 test	 dl, dl
  000f6	0f 84 80 00 00
	00		 je	 $LN83@LoadInt_e
  000fc	32 d1		 xor	 dl, cl
  000fe	88 55 f1	 mov	 BYTE PTR __k$[ebp+13], dl
  00101	8a 50 0e	 mov	 dl, BYTE PTR [eax+14]
  00104	84 d2		 test	 dl, dl
  00106	74 6e		 je	 SHORT $LN82@LoadInt_e
  00108	80 f2 eb	 xor	 dl, -21			; ffffffebH
  0010b	88 55 f2	 mov	 BYTE PTR __k$[ebp+14], dl
  0010e	8a 50 0f	 mov	 dl, BYTE PTR [eax+15]
  00111	84 d2		 test	 dl, dl
  00113	74 5b		 je	 SHORT $LN81@LoadInt_e
  00115	80 f2 ea	 xor	 dl, -22			; ffffffeaH
  00118	80 78 10 00	 cmp	 BYTE PTR [eax+16], 0
  0011c	88 55 f3	 mov	 BYTE PTR __k$[ebp+15], dl
  0011f	0f 84 a6 00 00
	00		 je	 $LN1@LoadInt_e
  00125	8a 50 11	 mov	 dl, BYTE PTR [eax+17]
  00128	84 d2		 test	 dl, dl
  0012a	74 3f		 je	 SHORT $LN79@LoadInt_e
  0012c	32 d1		 xor	 dl, cl
  0012e	88 55 f5	 mov	 BYTE PTR __k$[ebp+17], dl
  00131	8a 50 12	 mov	 dl, BYTE PTR [eax+18]
  00134	84 d2		 test	 dl, dl
  00136	74 2d		 je	 SHORT $LN78@LoadInt_e
  00138	80 f2 eb	 xor	 dl, -21			; ffffffebH
  0013b	88 55 f6	 mov	 BYTE PTR __k$[ebp+18], dl
  0013e	8a 50 13	 mov	 dl, BYTE PTR [eax+19]
  00141	84 d2		 test	 dl, dl
  00143	74 1a		 je	 SHORT $LN77@LoadInt_e
  00145	8a 40 14	 mov	 al, BYTE PTR [eax+20]
  00148	80 f2 ea	 xor	 dl, -22			; ffffffeaH
  0014b	88 55 f7	 mov	 BYTE PTR __k$[ebp+19], dl
  0014e	84 c0		 test	 al, al
  00150	74 07		 je	 SHORT $LN76@LoadInt_e
  00152	34 ed		 xor	 al, -19			; ffffffedH
  00154	88 45 f8	 mov	 BYTE PTR __k$[ebp+20], al
  00157	eb 72		 jmp	 SHORT $LN1@LoadInt_e
$LN76@LoadInt_e:
  00159	c6 45 f8 ed	 mov	 BYTE PTR __k$[ebp+20], -19 ; ffffffedH
  0015d	eb 6c		 jmp	 SHORT $LN1@LoadInt_e
$LN77@LoadInt_e:
  0015f	c6 45 f7 ea	 mov	 BYTE PTR __k$[ebp+19], -22 ; ffffffeaH
  00163	eb 66		 jmp	 SHORT $LN1@LoadInt_e
$LN78@LoadInt_e:
  00165	c6 45 f6 eb	 mov	 BYTE PTR __k$[ebp+18], -21 ; ffffffebH
  00169	eb 60		 jmp	 SHORT $LN1@LoadInt_e
$LN79@LoadInt_e:
  0016b	88 4d f5	 mov	 BYTE PTR __k$[ebp+17], cl
  0016e	eb 5b		 jmp	 SHORT $LN1@LoadInt_e
$LN81@LoadInt_e:
  00170	c6 45 f3 ea	 mov	 BYTE PTR __k$[ebp+15], -22 ; ffffffeaH
  00174	eb 55		 jmp	 SHORT $LN1@LoadInt_e
$LN82@LoadInt_e:
  00176	c6 45 f2 eb	 mov	 BYTE PTR __k$[ebp+14], -21 ; ffffffebH
  0017a	eb 4f		 jmp	 SHORT $LN1@LoadInt_e
$LN83@LoadInt_e:
  0017c	88 4d f1	 mov	 BYTE PTR __k$[ebp+13], cl
  0017f	eb 4a		 jmp	 SHORT $LN1@LoadInt_e
$LN84@LoadInt_e:
  00181	c6 45 f0 ed	 mov	 BYTE PTR __k$[ebp+12], -19 ; ffffffedH
  00185	eb 44		 jmp	 SHORT $LN1@LoadInt_e
$LN85@LoadInt_e:
  00187	c6 45 ef ea	 mov	 BYTE PTR __k$[ebp+11], -22 ; ffffffeaH
  0018b	eb 3e		 jmp	 SHORT $LN1@LoadInt_e
$LN86@LoadInt_e:
  0018d	c6 45 ee eb	 mov	 BYTE PTR __k$[ebp+10], -21 ; ffffffebH
  00191	eb 38		 jmp	 SHORT $LN1@LoadInt_e
$LN87@LoadInt_e:
  00193	88 4d ed	 mov	 BYTE PTR __k$[ebp+9], cl
  00196	eb 33		 jmp	 SHORT $LN1@LoadInt_e
$LN88@LoadInt_e:
  00198	c6 45 ec ed	 mov	 BYTE PTR __k$[ebp+8], -19 ; ffffffedH
  0019c	eb 2d		 jmp	 SHORT $LN1@LoadInt_e
$LN89@LoadInt_e:
  0019e	c6 45 eb ea	 mov	 BYTE PTR __k$[ebp+7], -22 ; ffffffeaH
  001a2	eb 27		 jmp	 SHORT $LN1@LoadInt_e
$LN90@LoadInt_e:
  001a4	c6 45 ea eb	 mov	 BYTE PTR __k$[ebp+6], -21 ; ffffffebH
  001a8	eb 21		 jmp	 SHORT $LN1@LoadInt_e
$LN91@LoadInt_e:
  001aa	88 4d e9	 mov	 BYTE PTR __k$[ebp+5], cl
  001ad	eb 1c		 jmp	 SHORT $LN1@LoadInt_e
$LN92@LoadInt_e:
  001af	c6 45 e8 ed	 mov	 BYTE PTR __k$[ebp+4], -19 ; ffffffedH
  001b3	eb 16		 jmp	 SHORT $LN1@LoadInt_e
$LN93@LoadInt_e:
  001b5	c6 45 e7 ea	 mov	 BYTE PTR __k$[ebp+3], -22 ; ffffffeaH
  001b9	eb 10		 jmp	 SHORT $LN1@LoadInt_e
$LN94@LoadInt_e:
  001bb	c6 45 e6 eb	 mov	 BYTE PTR __k$[ebp+2], -21 ; ffffffebH
  001bf	eb 0a		 jmp	 SHORT $LN1@LoadInt_e
$LN95@LoadInt_e:
  001c1	c6 45 e5 ec	 mov	 BYTE PTR __k$[ebp+1], -20 ; ffffffecH
  001c5	eb 04		 jmp	 SHORT $LN1@LoadInt_e
$LN96@LoadInt_e:
  001c7	c6 45 e4 ed	 mov	 BYTE PTR __k$[ebp], -19	; ffffffedH
$LN1@LoadInt_e:
  001cb	6a 04		 push	 4
  001cd	8d 45 e4	 lea	 eax, DWORD PTR __k$[ebp]
  001d0	c6 45 f4 00	 mov	 BYTE PTR __k$[ebp+16], 0
  001d4	5a		 pop	 edx
$LL104@LoadInt_e:
  001d5	81 30 ed ec eb
	ea		 xor	 DWORD PTR [eax], -353637139 ; eaebecedH
  001db	83 c0 04	 add	 eax, 4
  001de	4a		 dec	 edx
  001df	75 f4		 jne	 SHORT $LL104@LoadInt_e

; 120  : 		return LoadInt(_k, i);

  001e1	ff 75 0c	 push	 DWORD PTR _i$[ebp]
  001e4	8d 45 e4	 lea	 eax, DWORD PTR __k$[ebp]
  001e7	50		 push	 eax
  001e8	8b ce		 mov	 ecx, esi
  001ea	ff 15 00 00 00
	00		 call	 DWORD PTR __imp_?LoadInt@ioINILoader@@QAEHPBDH@Z

; 121  : 	}

  001f0	8b 4d fc	 mov	 ecx, DWORD PTR __$ArrayPad$[ebp]
  001f3	33 cd		 xor	 ecx, ebp
  001f5	5e		 pop	 esi
  001f6	e8 00 00 00 00	 call	 @__security_check_cookie@4
  001fb	c9		 leave
  001fc	c2 08 00	 ret	 8
??$LoadInt_e@$0BB@@ioINILoader@@QAEHAAY0BB@$$CBDH@Z ENDP ; ioINILoader::LoadInt_e<17>
_TEXT	ENDS
PUBLIC	__$ArrayPad$
PUBLIC	??$LoadInt_e@$0N@@ioINILoader@@QAEHAAY0N@$$CBDH@Z ; ioINILoader::LoadInt_e<13>
; Function compile flags: /Ogsp
;	COMDAT ??$LoadInt_e@$0N@@ioINILoader@@QAEHAAY0N@$$CBDH@Z
_TEXT	SEGMENT
__k$ = -24						; size = 13
__$ArrayPad$ = -4					; size = 4
_k$ = 8							; size = 4
_i$ = 12						; size = 4
??$LoadInt_e@$0N@@ioINILoader@@QAEHAAY0N@$$CBDH@Z PROC	; ioINILoader::LoadInt_e<13>, COMDAT
; _this$ = ecx

; 118  : 	{

  00000	55		 push	 ebp
  00001	8b ec		 mov	 ebp, esp
  00003	83 ec 18	 sub	 esp, 24			; 00000018H
  00006	a1 00 00 00 00	 mov	 eax, DWORD PTR ___security_cookie
  0000b	33 c5		 xor	 eax, ebp
  0000d	89 45 fc	 mov	 DWORD PTR __$ArrayPad$[ebp], eax
  00010	8b 45 08	 mov	 eax, DWORD PTR _k$[ebp]

; 119  : 		_ENCSTR(k, _k);

  00013	8a 10		 mov	 dl, BYTE PTR [eax]
  00015	56		 push	 esi
  00016	8b f1		 mov	 esi, ecx
  00018	84 d2		 test	 dl, dl
  0001a	0f 84 4d 01 00
	00		 je	 $LN96@LoadInt_e@2
  00020	80 f2 ed	 xor	 dl, -19			; ffffffedH
  00023	88 55 e8	 mov	 BYTE PTR __k$[ebp], dl
  00026	8a 50 01	 mov	 dl, BYTE PTR [eax+1]
  00029	84 d2		 test	 dl, dl
  0002b	0f 84 36 01 00
	00		 je	 $LN95@LoadInt_e@2
  00031	b1 ec		 mov	 cl, -20			; ffffffecH
  00033	32 d1		 xor	 dl, cl
  00035	88 55 e9	 mov	 BYTE PTR __k$[ebp+1], dl
  00038	8a 50 02	 mov	 dl, BYTE PTR [eax+2]
  0003b	84 d2		 test	 dl, dl
  0003d	0f 84 1e 01 00
	00		 je	 $LN94@LoadInt_e@2
  00043	80 f2 eb	 xor	 dl, -21			; ffffffebH
  00046	88 55 ea	 mov	 BYTE PTR __k$[ebp+2], dl
  00049	8a 50 03	 mov	 dl, BYTE PTR [eax+3]
  0004c	84 d2		 test	 dl, dl
  0004e	0f 84 07 01 00
	00		 je	 $LN93@LoadInt_e@2
  00054	80 f2 ea	 xor	 dl, -22			; ffffffeaH
  00057	88 55 eb	 mov	 BYTE PTR __k$[ebp+3], dl
  0005a	8a 50 04	 mov	 dl, BYTE PTR [eax+4]
  0005d	84 d2		 test	 dl, dl
  0005f	0f 84 f0 00 00
	00		 je	 $LN92@LoadInt_e@2
  00065	80 f2 ed	 xor	 dl, -19			; ffffffedH
  00068	88 55 ec	 mov	 BYTE PTR __k$[ebp+4], dl
  0006b	8a 50 05	 mov	 dl, BYTE PTR [eax+5]
  0006e	84 d2		 test	 dl, dl
  00070	0f 84 da 00 00
	00		 je	 $LN91@LoadInt_e@2
  00076	32 d1		 xor	 dl, cl
  00078	88 55 ed	 mov	 BYTE PTR __k$[ebp+5], dl
  0007b	8a 50 06	 mov	 dl, BYTE PTR [eax+6]
  0007e	84 d2		 test	 dl, dl
  00080	0f 84 c4 00 00
	00		 je	 $LN90@LoadInt_e@2
  00086	80 f2 eb	 xor	 dl, -21			; ffffffebH
  00089	88 55 ee	 mov	 BYTE PTR __k$[ebp+6], dl
  0008c	8a 50 07	 mov	 dl, BYTE PTR [eax+7]
  0008f	84 d2		 test	 dl, dl
  00091	0f 84 ad 00 00
	00		 je	 $LN89@LoadInt_e@2
  00097	80 f2 ea	 xor	 dl, -22			; ffffffeaH
  0009a	88 55 ef	 mov	 BYTE PTR __k$[ebp+7], dl
  0009d	8a 50 08	 mov	 dl, BYTE PTR [eax+8]
  000a0	84 d2		 test	 dl, dl
  000a2	0f 84 96 00 00
	00		 je	 $LN88@LoadInt_e@2
  000a8	80 f2 ed	 xor	 dl, -19			; ffffffedH
  000ab	88 55 f0	 mov	 BYTE PTR __k$[ebp+8], dl
  000ae	8a 50 09	 mov	 dl, BYTE PTR [eax+9]
  000b1	84 d2		 test	 dl, dl
  000b3	0f 84 80 00 00
	00		 je	 $LN87@LoadInt_e@2
  000b9	32 d1		 xor	 dl, cl
  000bb	88 55 f1	 mov	 BYTE PTR __k$[ebp+9], dl
  000be	8a 50 0a	 mov	 dl, BYTE PTR [eax+10]
  000c1	84 d2		 test	 dl, dl
  000c3	74 6e		 je	 SHORT $LN86@LoadInt_e@2
  000c5	80 f2 eb	 xor	 dl, -21			; ffffffebH
  000c8	88 55 f2	 mov	 BYTE PTR __k$[ebp+10], dl
  000cb	8a 50 0b	 mov	 dl, BYTE PTR [eax+11]
  000ce	84 d2		 test	 dl, dl
  000d0	74 5b		 je	 SHORT $LN85@LoadInt_e@2
  000d2	80 f2 ea	 xor	 dl, -22			; ffffffeaH
  000d5	80 78 0c 00	 cmp	 BYTE PTR [eax+12], 0
  000d9	88 55 f3	 mov	 BYTE PTR __k$[ebp+11], dl
  000dc	0f 84 8f 00 00
	00		 je	 $LN1@LoadInt_e@2
  000e2	8a 50 0d	 mov	 dl, BYTE PTR [eax+13]
  000e5	84 d2		 test	 dl, dl
  000e7	74 3f		 je	 SHORT $LN83@LoadInt_e@2
  000e9	32 d1		 xor	 dl, cl
  000eb	88 55 f5	 mov	 BYTE PTR __k$[ebp+13], dl
  000ee	8a 50 0e	 mov	 dl, BYTE PTR [eax+14]
  000f1	84 d2		 test	 dl, dl
  000f3	74 2d		 je	 SHORT $LN82@LoadInt_e@2
  000f5	80 f2 eb	 xor	 dl, -21			; ffffffebH
  000f8	88 55 f6	 mov	 BYTE PTR __k$[ebp+14], dl
  000fb	8a 50 0f	 mov	 dl, BYTE PTR [eax+15]
  000fe	84 d2		 test	 dl, dl
  00100	74 1a		 je	 SHORT $LN81@LoadInt_e@2
  00102	8a 40 10	 mov	 al, BYTE PTR [eax+16]
  00105	80 f2 ea	 xor	 dl, -22			; ffffffeaH
  00108	88 55 f7	 mov	 BYTE PTR __k$[ebp+15], dl
  0010b	84 c0		 test	 al, al
  0010d	74 07		 je	 SHORT $LN80@LoadInt_e@2
  0010f	34 ed		 xor	 al, -19			; ffffffedH
  00111	88 45 f8	 mov	 BYTE PTR __k$[ebp+16], al
  00114	eb 5b		 jmp	 SHORT $LN1@LoadInt_e@2
$LN80@LoadInt_e@2:
  00116	c6 45 f8 ed	 mov	 BYTE PTR __k$[ebp+16], -19 ; ffffffedH
  0011a	eb 55		 jmp	 SHORT $LN1@LoadInt_e@2
$LN81@LoadInt_e@2:
  0011c	c6 45 f7 ea	 mov	 BYTE PTR __k$[ebp+15], -22 ; ffffffeaH
  00120	eb 4f		 jmp	 SHORT $LN1@LoadInt_e@2
$LN82@LoadInt_e@2:
  00122	c6 45 f6 eb	 mov	 BYTE PTR __k$[ebp+14], -21 ; ffffffebH
  00126	eb 49		 jmp	 SHORT $LN1@LoadInt_e@2
$LN83@LoadInt_e@2:
  00128	88 4d f5	 mov	 BYTE PTR __k$[ebp+13], cl
  0012b	eb 44		 jmp	 SHORT $LN1@LoadInt_e@2
$LN85@LoadInt_e@2:
  0012d	c6 45 f3 ea	 mov	 BYTE PTR __k$[ebp+11], -22 ; ffffffeaH
  00131	eb 3e		 jmp	 SHORT $LN1@LoadInt_e@2
$LN86@LoadInt_e@2:
  00133	c6 45 f2 eb	 mov	 BYTE PTR __k$[ebp+10], -21 ; ffffffebH
  00137	eb 38		 jmp	 SHORT $LN1@LoadInt_e@2
$LN87@LoadInt_e@2:
  00139	88 4d f1	 mov	 BYTE PTR __k$[ebp+9], cl
  0013c	eb 33		 jmp	 SHORT $LN1@LoadInt_e@2
$LN88@LoadInt_e@2:
  0013e	c6 45 f0 ed	 mov	 BYTE PTR __k$[ebp+8], -19 ; ffffffedH
  00142	eb 2d		 jmp	 SHORT $LN1@LoadInt_e@2
$LN89@LoadInt_e@2:
  00144	c6 45 ef ea	 mov	 BYTE PTR __k$[ebp+7], -22 ; ffffffeaH
  00148	eb 27		 jmp	 SHORT $LN1@LoadInt_e@2
$LN90@LoadInt_e@2:
  0014a	c6 45 ee eb	 mov	 BYTE PTR __k$[ebp+6], -21 ; ffffffebH
  0014e	eb 21		 jmp	 SHORT $LN1@LoadInt_e@2
$LN91@LoadInt_e@2:
  00150	88 4d ed	 mov	 BYTE PTR __k$[ebp+5], cl
  00153	eb 1c		 jmp	 SHORT $LN1@LoadInt_e@2
$LN92@LoadInt_e@2:
  00155	c6 45 ec ed	 mov	 BYTE PTR __k$[ebp+4], -19 ; ffffffedH
  00159	eb 16		 jmp	 SHORT $LN1@LoadInt_e@2
$LN93@LoadInt_e@2:
  0015b	c6 45 eb ea	 mov	 BYTE PTR __k$[ebp+3], -22 ; ffffffeaH
  0015f	eb 10		 jmp	 SHORT $LN1@LoadInt_e@2
$LN94@LoadInt_e@2:
  00161	c6 45 ea eb	 mov	 BYTE PTR __k$[ebp+2], -21 ; ffffffebH
  00165	eb 0a		 jmp	 SHORT $LN1@LoadInt_e@2
$LN95@LoadInt_e@2:
  00167	c6 45 e9 ec	 mov	 BYTE PTR __k$[ebp+1], -20 ; ffffffecH
  0016b	eb 04		 jmp	 SHORT $LN1@LoadInt_e@2
$LN96@LoadInt_e@2:
  0016d	c6 45 e8 ed	 mov	 BYTE PTR __k$[ebp], -19	; ffffffedH
$LN1@LoadInt_e@2:
  00171	6a 03		 push	 3
  00173	8d 45 e8	 lea	 eax, DWORD PTR __k$[ebp]
  00176	c6 45 f4 00	 mov	 BYTE PTR __k$[ebp+12], 0
  0017a	5a		 pop	 edx
$LL104@LoadInt_e@2:
  0017b	81 30 ed ec eb
	ea		 xor	 DWORD PTR [eax], -353637139 ; eaebecedH
  00181	83 c0 04	 add	 eax, 4
  00184	4a		 dec	 edx
  00185	75 f4		 jne	 SHORT $LL104@LoadInt_e@2

; 120  : 		return LoadInt(_k, i);

  00187	ff 75 0c	 push	 DWORD PTR _i$[ebp]
  0018a	8d 45 e8	 lea	 eax, DWORD PTR __k$[ebp]
  0018d	50		 push	 eax
  0018e	8b ce		 mov	 ecx, esi
  00190	ff 15 00 00 00
	00		 call	 DWORD PTR __imp_?LoadInt@ioINILoader@@QAEHPBDH@Z

; 121  : 	}

  00196	8b 4d fc	 mov	 ecx, DWORD PTR __$ArrayPad$[ebp]
  00199	33 cd		 xor	 ecx, ebp
  0019b	5e		 pop	 esi
  0019c	e8 00 00 00 00	 call	 @__security_check_cookie@4
  001a1	c9		 leave
  001a2	c2 08 00	 ret	 8
??$LoadInt_e@$0N@@ioINILoader@@QAEHAAY0N@$$CBDH@Z ENDP	; ioINILoader::LoadInt_e<13>
_TEXT	ENDS
PUBLIC	__$ArrayPad$
PUBLIC	??$LoadBool_e@$0BD@@ioINILoader@@QAE_NAAY0BD@$$CBD_N@Z ; ioINILoader::LoadBool_e<19>
; Function compile flags: /Ogsp
;	COMDAT ??$LoadBool_e@$0BD@@ioINILoader@@QAE_NAAY0BD@$$CBD_N@Z
_TEXT	SEGMENT
__k$ = -28						; size = 19
__$ArrayPad$ = -4					; size = 4
_k$ = 8							; size = 4
_b$ = 12						; size = 1
??$LoadBool_e@$0BD@@ioINILoader@@QAE_NAAY0BD@$$CBD_N@Z PROC ; ioINILoader::LoadBool_e<19>, COMDAT
; _this$ = ecx

; 101  : 	{

  00000	55		 push	 ebp
  00001	8b ec		 mov	 ebp, esp
  00003	83 ec 1c	 sub	 esp, 28			; 0000001cH
  00006	a1 00 00 00 00	 mov	 eax, DWORD PTR ___security_cookie
  0000b	33 c5		 xor	 eax, ebp
  0000d	89 45 fc	 mov	 DWORD PTR __$ArrayPad$[ebp], eax
  00010	8b 45 08	 mov	 eax, DWORD PTR _k$[ebp]

; 102  : 		_ENCSTR(k, _k);

  00013	8a 10		 mov	 dl, BYTE PTR [eax]
  00015	56		 push	 esi
  00016	8b f1		 mov	 esi, ecx
  00018	84 d2		 test	 dl, dl
  0001a	0f 84 cf 01 00
	00		 je	 $LN96@LoadBool_e@3
  00020	80 f2 ed	 xor	 dl, -19			; ffffffedH
  00023	88 55 e4	 mov	 BYTE PTR __k$[ebp], dl
  00026	8a 50 01	 mov	 dl, BYTE PTR [eax+1]
  00029	84 d2		 test	 dl, dl
  0002b	0f 84 b8 01 00
	00		 je	 $LN95@LoadBool_e@3
  00031	b1 ec		 mov	 cl, -20			; ffffffecH
  00033	32 d1		 xor	 dl, cl
  00035	88 55 e5	 mov	 BYTE PTR __k$[ebp+1], dl
  00038	8a 50 02	 mov	 dl, BYTE PTR [eax+2]
  0003b	84 d2		 test	 dl, dl
  0003d	0f 84 a0 01 00
	00		 je	 $LN94@LoadBool_e@3
  00043	80 f2 eb	 xor	 dl, -21			; ffffffebH
  00046	88 55 e6	 mov	 BYTE PTR __k$[ebp+2], dl
  00049	8a 50 03	 mov	 dl, BYTE PTR [eax+3]
  0004c	84 d2		 test	 dl, dl
  0004e	0f 84 89 01 00
	00		 je	 $LN93@LoadBool_e@3
  00054	80 f2 ea	 xor	 dl, -22			; ffffffeaH
  00057	88 55 e7	 mov	 BYTE PTR __k$[ebp+3], dl
  0005a	8a 50 04	 mov	 dl, BYTE PTR [eax+4]
  0005d	84 d2		 test	 dl, dl
  0005f	0f 84 72 01 00
	00		 je	 $LN92@LoadBool_e@3
  00065	80 f2 ed	 xor	 dl, -19			; ffffffedH
  00068	88 55 e8	 mov	 BYTE PTR __k$[ebp+4], dl
  0006b	8a 50 05	 mov	 dl, BYTE PTR [eax+5]
  0006e	84 d2		 test	 dl, dl
  00070	0f 84 5c 01 00
	00		 je	 $LN91@LoadBool_e@3
  00076	32 d1		 xor	 dl, cl
  00078	88 55 e9	 mov	 BYTE PTR __k$[ebp+5], dl
  0007b	8a 50 06	 mov	 dl, BYTE PTR [eax+6]
  0007e	84 d2		 test	 dl, dl
  00080	0f 84 46 01 00
	00		 je	 $LN90@LoadBool_e@3
  00086	80 f2 eb	 xor	 dl, -21			; ffffffebH
  00089	88 55 ea	 mov	 BYTE PTR __k$[ebp+6], dl
  0008c	8a 50 07	 mov	 dl, BYTE PTR [eax+7]
  0008f	84 d2		 test	 dl, dl
  00091	0f 84 2f 01 00
	00		 je	 $LN89@LoadBool_e@3
  00097	80 f2 ea	 xor	 dl, -22			; ffffffeaH
  0009a	88 55 eb	 mov	 BYTE PTR __k$[ebp+7], dl
  0009d	8a 50 08	 mov	 dl, BYTE PTR [eax+8]
  000a0	84 d2		 test	 dl, dl
  000a2	0f 84 18 01 00
	00		 je	 $LN88@LoadBool_e@3
  000a8	80 f2 ed	 xor	 dl, -19			; ffffffedH
  000ab	88 55 ec	 mov	 BYTE PTR __k$[ebp+8], dl
  000ae	8a 50 09	 mov	 dl, BYTE PTR [eax+9]
  000b1	84 d2		 test	 dl, dl
  000b3	0f 84 02 01 00
	00		 je	 $LN87@LoadBool_e@3
  000b9	32 d1		 xor	 dl, cl
  000bb	88 55 ed	 mov	 BYTE PTR __k$[ebp+9], dl
  000be	8a 50 0a	 mov	 dl, BYTE PTR [eax+10]
  000c1	84 d2		 test	 dl, dl
  000c3	0f 84 ec 00 00
	00		 je	 $LN86@LoadBool_e@3
  000c9	80 f2 eb	 xor	 dl, -21			; ffffffebH
  000cc	88 55 ee	 mov	 BYTE PTR __k$[ebp+10], dl
  000cf	8a 50 0b	 mov	 dl, BYTE PTR [eax+11]
  000d2	84 d2		 test	 dl, dl
  000d4	0f 84 d5 00 00
	00		 je	 $LN85@LoadBool_e@3
  000da	80 f2 ea	 xor	 dl, -22			; ffffffeaH
  000dd	88 55 ef	 mov	 BYTE PTR __k$[ebp+11], dl
  000e0	8a 50 0c	 mov	 dl, BYTE PTR [eax+12]
  000e3	84 d2		 test	 dl, dl
  000e5	0f 84 be 00 00
	00		 je	 $LN84@LoadBool_e@3
  000eb	80 f2 ed	 xor	 dl, -19			; ffffffedH
  000ee	88 55 f0	 mov	 BYTE PTR __k$[ebp+12], dl
  000f1	8a 50 0d	 mov	 dl, BYTE PTR [eax+13]
  000f4	84 d2		 test	 dl, dl
  000f6	0f 84 a8 00 00
	00		 je	 $LN83@LoadBool_e@3
  000fc	32 d1		 xor	 dl, cl
  000fe	88 55 f1	 mov	 BYTE PTR __k$[ebp+13], dl
  00101	8a 50 0e	 mov	 dl, BYTE PTR [eax+14]
  00104	84 d2		 test	 dl, dl
  00106	0f 84 92 00 00
	00		 je	 $LN82@LoadBool_e@3
  0010c	80 f2 eb	 xor	 dl, -21			; ffffffebH
  0010f	88 55 f2	 mov	 BYTE PTR __k$[ebp+14], dl
  00112	8a 50 0f	 mov	 dl, BYTE PTR [eax+15]
  00115	84 d2		 test	 dl, dl
  00117	74 7f		 je	 SHORT $LN81@LoadBool_e@3
  00119	80 f2 ea	 xor	 dl, -22			; ffffffeaH
  0011c	88 55 f3	 mov	 BYTE PTR __k$[ebp+15], dl
  0011f	8a 50 10	 mov	 dl, BYTE PTR [eax+16]
  00122	84 d2		 test	 dl, dl
  00124	74 6c		 je	 SHORT $LN80@LoadBool_e@3
  00126	80 f2 ed	 xor	 dl, -19			; ffffffedH
  00129	88 55 f4	 mov	 BYTE PTR __k$[ebp+16], dl
  0012c	8a 50 11	 mov	 dl, BYTE PTR [eax+17]
  0012f	84 d2		 test	 dl, dl
  00131	74 5a		 je	 SHORT $LN79@LoadBool_e@3
  00133	32 d1		 xor	 dl, cl
  00135	80 78 12 00	 cmp	 BYTE PTR [eax+18], 0
  00139	88 55 f5	 mov	 BYTE PTR __k$[ebp+17], dl
  0013c	0f 84 b1 00 00
	00		 je	 $LN1@LoadBool_e@3
  00142	8a 50 13	 mov	 dl, BYTE PTR [eax+19]
  00145	84 d2		 test	 dl, dl
  00147	74 3e		 je	 SHORT $LN77@LoadBool_e@3
  00149	80 f2 ea	 xor	 dl, -22			; ffffffeaH
  0014c	88 55 f7	 mov	 BYTE PTR __k$[ebp+19], dl
  0014f	8a 50 14	 mov	 dl, BYTE PTR [eax+20]
  00152	84 d2		 test	 dl, dl
  00154	74 2b		 je	 SHORT $LN76@LoadBool_e@3
  00156	80 f2 ed	 xor	 dl, -19			; ffffffedH
  00159	88 55 f8	 mov	 BYTE PTR __k$[ebp+20], dl
  0015c	8a 50 15	 mov	 dl, BYTE PTR [eax+21]
  0015f	84 d2		 test	 dl, dl
  00161	74 19		 je	 SHORT $LN75@LoadBool_e@3
  00163	8a 40 16	 mov	 al, BYTE PTR [eax+22]
  00166	32 d1		 xor	 dl, cl
  00168	88 55 f9	 mov	 BYTE PTR __k$[ebp+21], dl
  0016b	84 c0		 test	 al, al
  0016d	74 07		 je	 SHORT $LN74@LoadBool_e@3
  0016f	34 eb		 xor	 al, -21			; ffffffebH
  00171	88 45 fa	 mov	 BYTE PTR __k$[ebp+22], al
  00174	eb 7d		 jmp	 SHORT $LN1@LoadBool_e@3
$LN74@LoadBool_e@3:
  00176	c6 45 fa eb	 mov	 BYTE PTR __k$[ebp+22], -21 ; ffffffebH
  0017a	eb 77		 jmp	 SHORT $LN1@LoadBool_e@3
$LN75@LoadBool_e@3:
  0017c	88 4d f9	 mov	 BYTE PTR __k$[ebp+21], cl
  0017f	eb 72		 jmp	 SHORT $LN1@LoadBool_e@3
$LN76@LoadBool_e@3:
  00181	c6 45 f8 ed	 mov	 BYTE PTR __k$[ebp+20], -19 ; ffffffedH
  00185	eb 6c		 jmp	 SHORT $LN1@LoadBool_e@3
$LN77@LoadBool_e@3:
  00187	c6 45 f7 ea	 mov	 BYTE PTR __k$[ebp+19], -22 ; ffffffeaH
  0018b	eb 66		 jmp	 SHORT $LN1@LoadBool_e@3
$LN79@LoadBool_e@3:
  0018d	88 4d f5	 mov	 BYTE PTR __k$[ebp+17], cl
  00190	eb 61		 jmp	 SHORT $LN1@LoadBool_e@3
$LN80@LoadBool_e@3:
  00192	c6 45 f4 ed	 mov	 BYTE PTR __k$[ebp+16], -19 ; ffffffedH
  00196	eb 5b		 jmp	 SHORT $LN1@LoadBool_e@3
$LN81@LoadBool_e@3:
  00198	c6 45 f3 ea	 mov	 BYTE PTR __k$[ebp+15], -22 ; ffffffeaH
  0019c	eb 55		 jmp	 SHORT $LN1@LoadBool_e@3
$LN82@LoadBool_e@3:
  0019e	c6 45 f2 eb	 mov	 BYTE PTR __k$[ebp+14], -21 ; ffffffebH
  001a2	eb 4f		 jmp	 SHORT $LN1@LoadBool_e@3
$LN83@LoadBool_e@3:
  001a4	88 4d f1	 mov	 BYTE PTR __k$[ebp+13], cl
  001a7	eb 4a		 jmp	 SHORT $LN1@LoadBool_e@3
$LN84@LoadBool_e@3:
  001a9	c6 45 f0 ed	 mov	 BYTE PTR __k$[ebp+12], -19 ; ffffffedH
  001ad	eb 44		 jmp	 SHORT $LN1@LoadBool_e@3
$LN85@LoadBool_e@3:
  001af	c6 45 ef ea	 mov	 BYTE PTR __k$[ebp+11], -22 ; ffffffeaH
  001b3	eb 3e		 jmp	 SHORT $LN1@LoadBool_e@3
$LN86@LoadBool_e@3:
  001b5	c6 45 ee eb	 mov	 BYTE PTR __k$[ebp+10], -21 ; ffffffebH
  001b9	eb 38		 jmp	 SHORT $LN1@LoadBool_e@3
$LN87@LoadBool_e@3:
  001bb	88 4d ed	 mov	 BYTE PTR __k$[ebp+9], cl
  001be	eb 33		 jmp	 SHORT $LN1@LoadBool_e@3
$LN88@LoadBool_e@3:
  001c0	c6 45 ec ed	 mov	 BYTE PTR __k$[ebp+8], -19 ; ffffffedH
  001c4	eb 2d		 jmp	 SHORT $LN1@LoadBool_e@3
$LN89@LoadBool_e@3:
  001c6	c6 45 eb ea	 mov	 BYTE PTR __k$[ebp+7], -22 ; ffffffeaH
  001ca	eb 27		 jmp	 SHORT $LN1@LoadBool_e@3
$LN90@LoadBool_e@3:
  001cc	c6 45 ea eb	 mov	 BYTE PTR __k$[ebp+6], -21 ; ffffffebH
  001d0	eb 21		 jmp	 SHORT $LN1@LoadBool_e@3
$LN91@LoadBool_e@3:
  001d2	88 4d e9	 mov	 BYTE PTR __k$[ebp+5], cl
  001d5	eb 1c		 jmp	 SHORT $LN1@LoadBool_e@3
$LN92@LoadBool_e@3:
  001d7	c6 45 e8 ed	 mov	 BYTE PTR __k$[ebp+4], -19 ; ffffffedH
  001db	eb 16		 jmp	 SHORT $LN1@LoadBool_e@3
$LN93@LoadBool_e@3:
  001dd	c6 45 e7 ea	 mov	 BYTE PTR __k$[ebp+3], -22 ; ffffffeaH
  001e1	eb 10		 jmp	 SHORT $LN1@LoadBool_e@3
$LN94@LoadBool_e@3:
  001e3	c6 45 e6 eb	 mov	 BYTE PTR __k$[ebp+2], -21 ; ffffffebH
  001e7	eb 0a		 jmp	 SHORT $LN1@LoadBool_e@3
$LN95@LoadBool_e@3:
  001e9	c6 45 e5 ec	 mov	 BYTE PTR __k$[ebp+1], -20 ; ffffffecH
  001ed	eb 04		 jmp	 SHORT $LN1@LoadBool_e@3
$LN96@LoadBool_e@3:
  001ef	c6 45 e4 ed	 mov	 BYTE PTR __k$[ebp], -19	; ffffffedH
$LN1@LoadBool_e@3:
  001f3	6a 04		 push	 4
  001f5	8d 45 e4	 lea	 eax, DWORD PTR __k$[ebp]
  001f8	c6 45 f6 00	 mov	 BYTE PTR __k$[ebp+18], 0
  001fc	5a		 pop	 edx
$LL104@LoadBool_e@3:
  001fd	81 30 ed ec eb
	ea		 xor	 DWORD PTR [eax], -353637139 ; eaebecedH
  00203	83 c0 04	 add	 eax, 4
  00206	4a		 dec	 edx
  00207	75 f4		 jne	 SHORT $LL104@LoadBool_e@3
  00209	6a 10		 push	 16			; 00000010H
  0020b	58		 pop	 eax
$LL101@LoadBool_e@3:
  0020c	8b c8		 mov	 ecx, eax
  0020e	81 e1 03 00 00
	80		 and	 ecx, -2147483645	; 80000003H
  00214	79 05		 jns	 SHORT $LN111@LoadBool_e@3
  00216	49		 dec	 ecx
  00217	83 c9 fc	 or	 ecx, -4			; fffffffcH
  0021a	41		 inc	 ecx
$LN111@LoadBool_e@3:
  0021b	b2 ed		 mov	 dl, -19			; ffffffedH
  0021d	2a d1		 sub	 dl, cl
  0021f	30 54 05 e4	 xor	 BYTE PTR __k$[ebp+eax], dl
  00223	40		 inc	 eax
  00224	83 f8 12	 cmp	 eax, 18			; 00000012H
  00227	7c e3		 jl	 SHORT $LL101@LoadBool_e@3

; 103  : 		return LoadBool(_k, b);

  00229	ff 75 0c	 push	 DWORD PTR _b$[ebp]
  0022c	8d 45 e4	 lea	 eax, DWORD PTR __k$[ebp]
  0022f	50		 push	 eax
  00230	8b ce		 mov	 ecx, esi
  00232	ff 15 00 00 00
	00		 call	 DWORD PTR __imp_?LoadBool@ioINILoader@@QAE_NPBD_N@Z

; 104  : 	}

  00238	8b 4d fc	 mov	 ecx, DWORD PTR __$ArrayPad$[ebp]
  0023b	33 cd		 xor	 ecx, ebp
  0023d	5e		 pop	 esi
  0023e	e8 00 00 00 00	 call	 @__security_check_cookie@4
  00243	c9		 leave
  00244	c2 08 00	 ret	 8
??$LoadBool_e@$0BD@@ioINILoader@@QAE_NAAY0BD@$$CBD_N@Z ENDP ; ioINILoader::LoadBool_e<19>
_TEXT	ENDS
PUBLIC	_this$GSCopy$
PUBLIC	__$ArrayPad$
PUBLIC	??$LoadString_e@$0BF@@ioINILoader@@QAEXAAY0BF@$$CBDAAY00$$CBDPADH@Z ; ioINILoader::LoadString_e<21>
EXTRN	__imp_?LoadStringA@ioINILoader@@QAEXPBD0PADH@Z:PROC
; Function compile flags: /Ogsp
;	COMDAT ??$LoadString_e@$0BF@@ioINILoader@@QAEXAAY0BF@$$CBDAAY00$$CBDPADH@Z
_TEXT	SEGMENT
_this$GSCopy$ = -36					; size = 4
__k$ = -32						; size = 21
__$ArrayPad$ = -4					; size = 4
_k$ = 8							; size = 4
_d$ = 12						; size = 4
_b$ = 16						; size = 4
_i$ = 20						; size = 4
??$LoadString_e@$0BF@@ioINILoader@@QAEXAAY0BF@$$CBDAAY00$$CBDPADH@Z PROC ; ioINILoader::LoadString_e<21>, COMDAT
; _this$ = ecx

; 161  : 	{

  00000	55		 push	 ebp
  00001	8b ec		 mov	 ebp, esp
  00003	83 ec 24	 sub	 esp, 36			; 00000024H
  00006	a1 00 00 00 00	 mov	 eax, DWORD PTR ___security_cookie
  0000b	33 c5		 xor	 eax, ebp
  0000d	89 45 fc	 mov	 DWORD PTR __$ArrayPad$[ebp], eax
  00010	8b 45 08	 mov	 eax, DWORD PTR _k$[ebp]

; 162  : 		_ENCSTR(k, _k);

  00013	8a 10		 mov	 dl, BYTE PTR [eax]
  00015	53		 push	 ebx
  00016	56		 push	 esi
  00017	8b 75 0c	 mov	 esi, DWORD PTR _d$[ebp]
  0001a	57		 push	 edi
  0001b	8b 7d 10	 mov	 edi, DWORD PTR _b$[ebp]
  0001e	89 4d dc	 mov	 DWORD PTR _this$GSCopy$[ebp], ecx
  00021	84 d2		 test	 dl, dl
  00023	0f 84 f7 01 00
	00		 je	 $LN96@LoadString
  00029	80 f2 ed	 xor	 dl, -19			; ffffffedH
  0002c	88 55 e0	 mov	 BYTE PTR __k$[ebp], dl
  0002f	8a 50 01	 mov	 dl, BYTE PTR [eax+1]
  00032	84 d2		 test	 dl, dl
  00034	0f 84 e0 01 00
	00		 je	 $LN95@LoadString
  0003a	b1 ec		 mov	 cl, -20			; ffffffecH
  0003c	32 d1		 xor	 dl, cl
  0003e	88 55 e1	 mov	 BYTE PTR __k$[ebp+1], dl
  00041	8a 50 02	 mov	 dl, BYTE PTR [eax+2]
  00044	84 d2		 test	 dl, dl
  00046	0f 84 c8 01 00
	00		 je	 $LN94@LoadString
  0004c	b3 eb		 mov	 bl, -21			; ffffffebH
  0004e	32 d3		 xor	 dl, bl
  00050	88 55 e2	 mov	 BYTE PTR __k$[ebp+2], dl
  00053	8a 50 03	 mov	 dl, BYTE PTR [eax+3]
  00056	84 d2		 test	 dl, dl
  00058	0f 84 b0 01 00
	00		 je	 $LN93@LoadString
  0005e	80 f2 ea	 xor	 dl, -22			; ffffffeaH
  00061	88 55 e3	 mov	 BYTE PTR __k$[ebp+3], dl
  00064	8a 50 04	 mov	 dl, BYTE PTR [eax+4]
  00067	84 d2		 test	 dl, dl
  00069	0f 84 99 01 00
	00		 je	 $LN92@LoadString
  0006f	80 f2 ed	 xor	 dl, -19			; ffffffedH
  00072	88 55 e4	 mov	 BYTE PTR __k$[ebp+4], dl
  00075	8a 50 05	 mov	 dl, BYTE PTR [eax+5]
  00078	84 d2		 test	 dl, dl
  0007a	0f 84 83 01 00
	00		 je	 $LN91@LoadString
  00080	32 d1		 xor	 dl, cl
  00082	88 55 e5	 mov	 BYTE PTR __k$[ebp+5], dl
  00085	8a 50 06	 mov	 dl, BYTE PTR [eax+6]
  00088	84 d2		 test	 dl, dl
  0008a	0f 84 6e 01 00
	00		 je	 $LN90@LoadString
  00090	32 d3		 xor	 dl, bl
  00092	88 55 e6	 mov	 BYTE PTR __k$[ebp+6], dl
  00095	8a 50 07	 mov	 dl, BYTE PTR [eax+7]
  00098	84 d2		 test	 dl, dl
  0009a	0f 84 58 01 00
	00		 je	 $LN89@LoadString
  000a0	80 f2 ea	 xor	 dl, -22			; ffffffeaH
  000a3	88 55 e7	 mov	 BYTE PTR __k$[ebp+7], dl
  000a6	8a 50 08	 mov	 dl, BYTE PTR [eax+8]
  000a9	84 d2		 test	 dl, dl
  000ab	0f 84 41 01 00
	00		 je	 $LN88@LoadString
  000b1	80 f2 ed	 xor	 dl, -19			; ffffffedH
  000b4	88 55 e8	 mov	 BYTE PTR __k$[ebp+8], dl
  000b7	8a 50 09	 mov	 dl, BYTE PTR [eax+9]
  000ba	84 d2		 test	 dl, dl
  000bc	0f 84 2b 01 00
	00		 je	 $LN87@LoadString
  000c2	32 d1		 xor	 dl, cl
  000c4	88 55 e9	 mov	 BYTE PTR __k$[ebp+9], dl
  000c7	8a 50 0a	 mov	 dl, BYTE PTR [eax+10]
  000ca	84 d2		 test	 dl, dl
  000cc	0f 84 16 01 00
	00		 je	 $LN86@LoadString
  000d2	32 d3		 xor	 dl, bl
  000d4	88 55 ea	 mov	 BYTE PTR __k$[ebp+10], dl
  000d7	8a 50 0b	 mov	 dl, BYTE PTR [eax+11]
  000da	84 d2		 test	 dl, dl
  000dc	0f 84 00 01 00
	00		 je	 $LN85@LoadString
  000e2	80 f2 ea	 xor	 dl, -22			; ffffffeaH
  000e5	88 55 eb	 mov	 BYTE PTR __k$[ebp+11], dl
  000e8	8a 50 0c	 mov	 dl, BYTE PTR [eax+12]
  000eb	84 d2		 test	 dl, dl
  000ed	0f 84 e9 00 00
	00		 je	 $LN84@LoadString
  000f3	80 f2 ed	 xor	 dl, -19			; ffffffedH
  000f6	88 55 ec	 mov	 BYTE PTR __k$[ebp+12], dl
  000f9	8a 50 0d	 mov	 dl, BYTE PTR [eax+13]
  000fc	84 d2		 test	 dl, dl
  000fe	0f 84 d3 00 00
	00		 je	 $LN83@LoadString
  00104	32 d1		 xor	 dl, cl
  00106	88 55 ed	 mov	 BYTE PTR __k$[ebp+13], dl
  00109	8a 50 0e	 mov	 dl, BYTE PTR [eax+14]
  0010c	84 d2		 test	 dl, dl
  0010e	0f 84 be 00 00
	00		 je	 $LN82@LoadString
  00114	32 d3		 xor	 dl, bl
  00116	88 55 ee	 mov	 BYTE PTR __k$[ebp+14], dl
  00119	8a 50 0f	 mov	 dl, BYTE PTR [eax+15]
  0011c	84 d2		 test	 dl, dl
  0011e	0f 84 a8 00 00
	00		 je	 $LN81@LoadString
  00124	80 f2 ea	 xor	 dl, -22			; ffffffeaH
  00127	88 55 ef	 mov	 BYTE PTR __k$[ebp+15], dl
  0012a	8a 50 10	 mov	 dl, BYTE PTR [eax+16]
  0012d	84 d2		 test	 dl, dl
  0012f	0f 84 91 00 00
	00		 je	 $LN80@LoadString
  00135	80 f2 ed	 xor	 dl, -19			; ffffffedH
  00138	88 55 f0	 mov	 BYTE PTR __k$[ebp+16], dl
  0013b	8a 50 11	 mov	 dl, BYTE PTR [eax+17]
  0013e	84 d2		 test	 dl, dl
  00140	74 7f		 je	 SHORT $LN79@LoadString
  00142	32 d1		 xor	 dl, cl
  00144	88 55 f1	 mov	 BYTE PTR __k$[ebp+17], dl
  00147	8a 50 12	 mov	 dl, BYTE PTR [eax+18]
  0014a	84 d2		 test	 dl, dl
  0014c	74 6e		 je	 SHORT $LN78@LoadString
  0014e	32 d3		 xor	 dl, bl
  00150	88 55 f2	 mov	 BYTE PTR __k$[ebp+18], dl
  00153	8a 50 13	 mov	 dl, BYTE PTR [eax+19]
  00156	84 d2		 test	 dl, dl
  00158	74 5c		 je	 SHORT $LN77@LoadString
  0015a	80 f2 ea	 xor	 dl, -22			; ffffffeaH
  0015d	80 78 14 00	 cmp	 BYTE PTR [eax+20], 0
  00161	88 55 f3	 mov	 BYTE PTR __k$[ebp+19], dl
  00164	0f 84 ba 00 00
	00		 je	 $LN111@LoadString
  0016a	8a 50 15	 mov	 dl, BYTE PTR [eax+21]
  0016d	84 d2		 test	 dl, dl
  0016f	74 40		 je	 SHORT $LN75@LoadString
  00171	32 d1		 xor	 dl, cl
  00173	88 55 f5	 mov	 BYTE PTR __k$[ebp+21], dl
  00176	8a 50 16	 mov	 dl, BYTE PTR [eax+22]
  00179	84 d2		 test	 dl, dl
  0017b	74 2f		 je	 SHORT $LN74@LoadString
  0017d	32 d3		 xor	 dl, bl
  0017f	88 55 f6	 mov	 BYTE PTR __k$[ebp+22], dl
  00182	8a 50 17	 mov	 dl, BYTE PTR [eax+23]
  00185	84 d2		 test	 dl, dl
  00187	74 1d		 je	 SHORT $LN73@LoadString
  00189	8a 40 18	 mov	 al, BYTE PTR [eax+24]
  0018c	80 f2 ea	 xor	 dl, -22			; ffffffeaH
  0018f	88 55 f7	 mov	 BYTE PTR __k$[ebp+23], dl
  00192	84 c0		 test	 al, al
  00194	74 0a		 je	 SHORT $LN72@LoadString
  00196	34 ed		 xor	 al, -19			; ffffffedH
  00198	88 45 f8	 mov	 BYTE PTR __k$[ebp+24], al
  0019b	e9 84 00 00 00	 jmp	 $LN111@LoadString
$LN72@LoadString:
  001a0	c6 45 f8 ed	 mov	 BYTE PTR __k$[ebp+24], -19 ; ffffffedH
  001a4	eb 7e		 jmp	 SHORT $LN111@LoadString
$LN73@LoadString:
  001a6	c6 45 f7 ea	 mov	 BYTE PTR __k$[ebp+23], -22 ; ffffffeaH
  001aa	eb 78		 jmp	 SHORT $LN111@LoadString
$LN74@LoadString:
  001ac	88 5d f6	 mov	 BYTE PTR __k$[ebp+22], bl
  001af	eb 73		 jmp	 SHORT $LN111@LoadString
$LN75@LoadString:
  001b1	88 4d f5	 mov	 BYTE PTR __k$[ebp+21], cl
  001b4	eb 6e		 jmp	 SHORT $LN111@LoadString
$LN77@LoadString:
  001b6	c6 45 f3 ea	 mov	 BYTE PTR __k$[ebp+19], -22 ; ffffffeaH
  001ba	eb 68		 jmp	 SHORT $LN111@LoadString
$LN78@LoadString:
  001bc	88 5d f2	 mov	 BYTE PTR __k$[ebp+18], bl
  001bf	eb 63		 jmp	 SHORT $LN111@LoadString
$LN79@LoadString:
  001c1	88 4d f1	 mov	 BYTE PTR __k$[ebp+17], cl
  001c4	eb 5e		 jmp	 SHORT $LN111@LoadString
$LN80@LoadString:
  001c6	c6 45 f0 ed	 mov	 BYTE PTR __k$[ebp+16], -19 ; ffffffedH
  001ca	eb 58		 jmp	 SHORT $LN111@LoadString
$LN81@LoadString:
  001cc	c6 45 ef ea	 mov	 BYTE PTR __k$[ebp+15], -22 ; ffffffeaH
  001d0	eb 52		 jmp	 SHORT $LN111@LoadString
$LN82@LoadString:
  001d2	88 5d ee	 mov	 BYTE PTR __k$[ebp+14], bl
  001d5	eb 4d		 jmp	 SHORT $LN111@LoadString
$LN83@LoadString:
  001d7	88 4d ed	 mov	 BYTE PTR __k$[ebp+13], cl
  001da	eb 48		 jmp	 SHORT $LN111@LoadString
$LN84@LoadString:
  001dc	c6 45 ec ed	 mov	 BYTE PTR __k$[ebp+12], -19 ; ffffffedH
  001e0	eb 42		 jmp	 SHORT $LN111@LoadString
$LN85@LoadString:
  001e2	c6 45 eb ea	 mov	 BYTE PTR __k$[ebp+11], -22 ; ffffffeaH
  001e6	eb 3c		 jmp	 SHORT $LN111@LoadString
$LN86@LoadString:
  001e8	88 5d ea	 mov	 BYTE PTR __k$[ebp+10], bl
  001eb	eb 37		 jmp	 SHORT $LN111@LoadString
$LN87@LoadString:
  001ed	88 4d e9	 mov	 BYTE PTR __k$[ebp+9], cl
  001f0	eb 32		 jmp	 SHORT $LN111@LoadString
$LN88@LoadString:
  001f2	c6 45 e8 ed	 mov	 BYTE PTR __k$[ebp+8], -19 ; ffffffedH
  001f6	eb 2c		 jmp	 SHORT $LN111@LoadString
$LN89@LoadString:
  001f8	c6 45 e7 ea	 mov	 BYTE PTR __k$[ebp+7], -22 ; ffffffeaH
  001fc	eb 26		 jmp	 SHORT $LN111@LoadString
$LN90@LoadString:
  001fe	88 5d e6	 mov	 BYTE PTR __k$[ebp+6], bl
  00201	eb 21		 jmp	 SHORT $LN111@LoadString
$LN91@LoadString:
  00203	88 4d e5	 mov	 BYTE PTR __k$[ebp+5], cl
  00206	eb 1c		 jmp	 SHORT $LN111@LoadString
$LN92@LoadString:
  00208	c6 45 e4 ed	 mov	 BYTE PTR __k$[ebp+4], -19 ; ffffffedH
  0020c	eb 16		 jmp	 SHORT $LN111@LoadString
$LN93@LoadString:
  0020e	c6 45 e3 ea	 mov	 BYTE PTR __k$[ebp+3], -22 ; ffffffeaH
  00212	eb 10		 jmp	 SHORT $LN111@LoadString
$LN94@LoadString:
  00214	c6 45 e2 eb	 mov	 BYTE PTR __k$[ebp+2], -21 ; ffffffebH
  00218	eb 0a		 jmp	 SHORT $LN111@LoadString
$LN95@LoadString:
  0021a	c6 45 e1 ec	 mov	 BYTE PTR __k$[ebp+1], -20 ; ffffffecH
  0021e	eb 04		 jmp	 SHORT $LN111@LoadString
$LN96@LoadString:
  00220	c6 45 e0 ed	 mov	 BYTE PTR __k$[ebp], -19	; ffffffedH
$LN111@LoadString:
  00224	6a 05		 push	 5
  00226	8d 45 e0	 lea	 eax, DWORD PTR __k$[ebp]
  00229	c6 45 f4 00	 mov	 BYTE PTR __k$[ebp+20], 0
  0022d	5a		 pop	 edx
$LL104@LoadString:
  0022e	81 30 ed ec eb
	ea		 xor	 DWORD PTR [eax], -353637139 ; eaebecedH
  00234	83 c0 04	 add	 eax, 4
  00237	4a		 dec	 edx
  00238	75 f4		 jne	 SHORT $LL104@LoadString

; 163  : 		LoadString(_k, d, b, i);

  0023a	ff 75 14	 push	 DWORD PTR _i$[ebp]
  0023d	8b 4d dc	 mov	 ecx, DWORD PTR _this$GSCopy$[ebp]
  00240	57		 push	 edi
  00241	56		 push	 esi
  00242	8d 45 e0	 lea	 eax, DWORD PTR __k$[ebp]
  00245	50		 push	 eax
  00246	ff 15 00 00 00
	00		 call	 DWORD PTR __imp_?LoadStringA@ioINILoader@@QAEXPBD0PADH@Z

; 164  : 	}

  0024c	8b 4d fc	 mov	 ecx, DWORD PTR __$ArrayPad$[ebp]
  0024f	5f		 pop	 edi
  00250	5e		 pop	 esi
  00251	33 cd		 xor	 ecx, ebp
  00253	5b		 pop	 ebx
  00254	e8 00 00 00 00	 call	 @__security_check_cookie@4
  00259	c9		 leave
  0025a	c2 10 00	 ret	 16			; 00000010H
??$LoadString_e@$0BF@@ioINILoader@@QAEXAAY0BF@$$CBDAAY00$$CBDPADH@Z ENDP ; ioINILoader::LoadString_e<21>
_TEXT	ENDS
PUBLIC	_this$GSCopy$
PUBLIC	__$ArrayPad$
PUBLIC	??$LoadString_e@$0BE@@ioINILoader@@QAEXAAY0BE@$$CBDAAY00$$CBDPADH@Z ; ioINILoader::LoadString_e<20>
; Function compile flags: /Ogsp
;	COMDAT ??$LoadString_e@$0BE@@ioINILoader@@QAEXAAY0BE@$$CBDAAY00$$CBDPADH@Z
_TEXT	SEGMENT
_this$GSCopy$ = -32					; size = 4
__k$ = -28						; size = 20
__$ArrayPad$ = -4					; size = 4
_k$ = 8							; size = 4
_d$ = 12						; size = 4
_b$ = 16						; size = 4
_i$ = 20						; size = 4
??$LoadString_e@$0BE@@ioINILoader@@QAEXAAY0BE@$$CBDAAY00$$CBDPADH@Z PROC ; ioINILoader::LoadString_e<20>, COMDAT
; _this$ = ecx

; 161  : 	{

  00000	55		 push	 ebp
  00001	8b ec		 mov	 ebp, esp
  00003	83 ec 20	 sub	 esp, 32			; 00000020H
  00006	a1 00 00 00 00	 mov	 eax, DWORD PTR ___security_cookie
  0000b	33 c5		 xor	 eax, ebp
  0000d	89 45 fc	 mov	 DWORD PTR __$ArrayPad$[ebp], eax
  00010	8b 45 08	 mov	 eax, DWORD PTR _k$[ebp]

; 162  : 		_ENCSTR(k, _k);

  00013	8a 10		 mov	 dl, BYTE PTR [eax]
  00015	53		 push	 ebx
  00016	56		 push	 esi
  00017	8b 75 0c	 mov	 esi, DWORD PTR _d$[ebp]
  0001a	57		 push	 edi
  0001b	8b 7d 10	 mov	 edi, DWORD PTR _b$[ebp]
  0001e	89 4d e0	 mov	 DWORD PTR _this$GSCopy$[ebp], ecx
  00021	84 d2		 test	 dl, dl
  00023	0f 84 dd 01 00
	00		 je	 $LN96@LoadString@2
  00029	80 f2 ed	 xor	 dl, -19			; ffffffedH
  0002c	88 55 e4	 mov	 BYTE PTR __k$[ebp], dl
  0002f	8a 50 01	 mov	 dl, BYTE PTR [eax+1]
  00032	84 d2		 test	 dl, dl
  00034	0f 84 c6 01 00
	00		 je	 $LN95@LoadString@2
  0003a	b3 ec		 mov	 bl, -20			; ffffffecH
  0003c	32 d3		 xor	 dl, bl
  0003e	88 55 e5	 mov	 BYTE PTR __k$[ebp+1], dl
  00041	8a 50 02	 mov	 dl, BYTE PTR [eax+2]
  00044	84 d2		 test	 dl, dl
  00046	0f 84 ae 01 00
	00		 je	 $LN94@LoadString@2
  0004c	b1 eb		 mov	 cl, -21			; ffffffebH
  0004e	32 d1		 xor	 dl, cl
  00050	88 55 e6	 mov	 BYTE PTR __k$[ebp+2], dl
  00053	8a 50 03	 mov	 dl, BYTE PTR [eax+3]
  00056	84 d2		 test	 dl, dl
  00058	0f 84 96 01 00
	00		 je	 $LN93@LoadString@2
  0005e	80 f2 ea	 xor	 dl, -22			; ffffffeaH
  00061	88 55 e7	 mov	 BYTE PTR __k$[ebp+3], dl
  00064	8a 50 04	 mov	 dl, BYTE PTR [eax+4]
  00067	84 d2		 test	 dl, dl
  00069	0f 84 7f 01 00
	00		 je	 $LN92@LoadString@2
  0006f	80 f2 ed	 xor	 dl, -19			; ffffffedH
  00072	88 55 e8	 mov	 BYTE PTR __k$[ebp+4], dl
  00075	8a 50 05	 mov	 dl, BYTE PTR [eax+5]
  00078	84 d2		 test	 dl, dl
  0007a	0f 84 69 01 00
	00		 je	 $LN91@LoadString@2
  00080	32 d3		 xor	 dl, bl
  00082	88 55 e9	 mov	 BYTE PTR __k$[ebp+5], dl
  00085	8a 50 06	 mov	 dl, BYTE PTR [eax+6]
  00088	84 d2		 test	 dl, dl
  0008a	0f 84 54 01 00
	00		 je	 $LN90@LoadString@2
  00090	32 d1		 xor	 dl, cl
  00092	88 55 ea	 mov	 BYTE PTR __k$[ebp+6], dl
  00095	8a 50 07	 mov	 dl, BYTE PTR [eax+7]
  00098	84 d2		 test	 dl, dl
  0009a	0f 84 3e 01 00
	00		 je	 $LN89@LoadString@2
  000a0	80 f2 ea	 xor	 dl, -22			; ffffffeaH
  000a3	88 55 eb	 mov	 BYTE PTR __k$[ebp+7], dl
  000a6	8a 50 08	 mov	 dl, BYTE PTR [eax+8]
  000a9	84 d2		 test	 dl, dl
  000ab	0f 84 27 01 00
	00		 je	 $LN88@LoadString@2
  000b1	80 f2 ed	 xor	 dl, -19			; ffffffedH
  000b4	88 55 ec	 mov	 BYTE PTR __k$[ebp+8], dl
  000b7	8a 50 09	 mov	 dl, BYTE PTR [eax+9]
  000ba	84 d2		 test	 dl, dl
  000bc	0f 84 11 01 00
	00		 je	 $LN87@LoadString@2
  000c2	32 d3		 xor	 dl, bl
  000c4	88 55 ed	 mov	 BYTE PTR __k$[ebp+9], dl
  000c7	8a 50 0a	 mov	 dl, BYTE PTR [eax+10]
  000ca	84 d2		 test	 dl, dl
  000cc	0f 84 fc 00 00
	00		 je	 $LN86@LoadString@2
  000d2	32 d1		 xor	 dl, cl
  000d4	88 55 ee	 mov	 BYTE PTR __k$[ebp+10], dl
  000d7	8a 50 0b	 mov	 dl, BYTE PTR [eax+11]
  000da	84 d2		 test	 dl, dl
  000dc	0f 84 e6 00 00
	00		 je	 $LN85@LoadString@2
  000e2	80 f2 ea	 xor	 dl, -22			; ffffffeaH
  000e5	88 55 ef	 mov	 BYTE PTR __k$[ebp+11], dl
  000e8	8a 50 0c	 mov	 dl, BYTE PTR [eax+12]
  000eb	84 d2		 test	 dl, dl
  000ed	0f 84 cf 00 00
	00		 je	 $LN84@LoadString@2
  000f3	80 f2 ed	 xor	 dl, -19			; ffffffedH
  000f6	88 55 f0	 mov	 BYTE PTR __k$[ebp+12], dl
  000f9	8a 50 0d	 mov	 dl, BYTE PTR [eax+13]
  000fc	84 d2		 test	 dl, dl
  000fe	0f 84 b9 00 00
	00		 je	 $LN83@LoadString@2
  00104	32 d3		 xor	 dl, bl
  00106	88 55 f1	 mov	 BYTE PTR __k$[ebp+13], dl
  00109	8a 50 0e	 mov	 dl, BYTE PTR [eax+14]
  0010c	84 d2		 test	 dl, dl
  0010e	0f 84 a4 00 00
	00		 je	 $LN82@LoadString@2
  00114	32 d1		 xor	 dl, cl
  00116	88 55 f2	 mov	 BYTE PTR __k$[ebp+14], dl
  00119	8a 50 0f	 mov	 dl, BYTE PTR [eax+15]
  0011c	84 d2		 test	 dl, dl
  0011e	0f 84 8e 00 00
	00		 je	 $LN81@LoadString@2
  00124	80 f2 ea	 xor	 dl, -22			; ffffffeaH
  00127	88 55 f3	 mov	 BYTE PTR __k$[ebp+15], dl
  0012a	8a 50 10	 mov	 dl, BYTE PTR [eax+16]
  0012d	84 d2		 test	 dl, dl
  0012f	74 7b		 je	 SHORT $LN80@LoadString@2
  00131	80 f2 ed	 xor	 dl, -19			; ffffffedH
  00134	88 55 f4	 mov	 BYTE PTR __k$[ebp+16], dl
  00137	8a 50 11	 mov	 dl, BYTE PTR [eax+17]
  0013a	84 d2		 test	 dl, dl
  0013c	74 69		 je	 SHORT $LN79@LoadString@2
  0013e	32 d3		 xor	 dl, bl
  00140	88 55 f5	 mov	 BYTE PTR __k$[ebp+17], dl
  00143	8a 50 12	 mov	 dl, BYTE PTR [eax+18]
  00146	84 d2		 test	 dl, dl
  00148	74 58		 je	 SHORT $LN78@LoadString@2
  0014a	32 d1		 xor	 dl, cl
  0014c	80 78 13 00	 cmp	 BYTE PTR [eax+19], 0
  00150	88 55 f6	 mov	 BYTE PTR __k$[ebp+18], dl
  00153	0f 84 b1 00 00
	00		 je	 $LN111@LoadString@2
  00159	8a 50 14	 mov	 dl, BYTE PTR [eax+20]
  0015c	84 d2		 test	 dl, dl
  0015e	74 3c		 je	 SHORT $LN76@LoadString@2
  00160	80 f2 ed	 xor	 dl, -19			; ffffffedH
  00163	88 55 f8	 mov	 BYTE PTR __k$[ebp+20], dl
  00166	8a 50 15	 mov	 dl, BYTE PTR [eax+21]
  00169	84 d2		 test	 dl, dl
  0016b	74 2a		 je	 SHORT $LN75@LoadString@2
  0016d	32 d3		 xor	 dl, bl
  0016f	88 55 f9	 mov	 BYTE PTR __k$[ebp+21], dl
  00172	8a 50 16	 mov	 dl, BYTE PTR [eax+22]
  00175	84 d2		 test	 dl, dl
  00177	74 19		 je	 SHORT $LN74@LoadString@2
  00179	8a 40 17	 mov	 al, BYTE PTR [eax+23]
  0017c	32 d1		 xor	 dl, cl
  0017e	88 55 fa	 mov	 BYTE PTR __k$[ebp+22], dl
  00181	84 c0		 test	 al, al
  00183	74 07		 je	 SHORT $LN73@LoadString@2
  00185	34 ea		 xor	 al, -22			; ffffffeaH
  00187	88 45 fb	 mov	 BYTE PTR __k$[ebp+23], al
  0018a	eb 7e		 jmp	 SHORT $LN111@LoadString@2
$LN73@LoadString@2:
  0018c	c6 45 fb ea	 mov	 BYTE PTR __k$[ebp+23], -22 ; ffffffeaH
  00190	eb 78		 jmp	 SHORT $LN111@LoadString@2
$LN74@LoadString@2:
  00192	88 4d fa	 mov	 BYTE PTR __k$[ebp+22], cl
  00195	eb 73		 jmp	 SHORT $LN111@LoadString@2
$LN75@LoadString@2:
  00197	88 5d f9	 mov	 BYTE PTR __k$[ebp+21], bl
  0019a	eb 6e		 jmp	 SHORT $LN111@LoadString@2
$LN76@LoadString@2:
  0019c	c6 45 f8 ed	 mov	 BYTE PTR __k$[ebp+20], -19 ; ffffffedH
  001a0	eb 68		 jmp	 SHORT $LN111@LoadString@2
$LN78@LoadString@2:
  001a2	88 4d f6	 mov	 BYTE PTR __k$[ebp+18], cl
  001a5	eb 63		 jmp	 SHORT $LN111@LoadString@2
$LN79@LoadString@2:
  001a7	88 5d f5	 mov	 BYTE PTR __k$[ebp+17], bl
  001aa	eb 5e		 jmp	 SHORT $LN111@LoadString@2
$LN80@LoadString@2:
  001ac	c6 45 f4 ed	 mov	 BYTE PTR __k$[ebp+16], -19 ; ffffffedH
  001b0	eb 58		 jmp	 SHORT $LN111@LoadString@2
$LN81@LoadString@2:
  001b2	c6 45 f3 ea	 mov	 BYTE PTR __k$[ebp+15], -22 ; ffffffeaH
  001b6	eb 52		 jmp	 SHORT $LN111@LoadString@2
$LN82@LoadString@2:
  001b8	88 4d f2	 mov	 BYTE PTR __k$[ebp+14], cl
  001bb	eb 4d		 jmp	 SHORT $LN111@LoadString@2
$LN83@LoadString@2:
  001bd	88 5d f1	 mov	 BYTE PTR __k$[ebp+13], bl
  001c0	eb 48		 jmp	 SHORT $LN111@LoadString@2
$LN84@LoadString@2:
  001c2	c6 45 f0 ed	 mov	 BYTE PTR __k$[ebp+12], -19 ; ffffffedH
  001c6	eb 42		 jmp	 SHORT $LN111@LoadString@2
$LN85@LoadString@2:
  001c8	c6 45 ef ea	 mov	 BYTE PTR __k$[ebp+11], -22 ; ffffffeaH
  001cc	eb 3c		 jmp	 SHORT $LN111@LoadString@2
$LN86@LoadString@2:
  001ce	88 4d ee	 mov	 BYTE PTR __k$[ebp+10], cl
  001d1	eb 37		 jmp	 SHORT $LN111@LoadString@2
$LN87@LoadString@2:
  001d3	88 5d ed	 mov	 BYTE PTR __k$[ebp+9], bl
  001d6	eb 32		 jmp	 SHORT $LN111@LoadString@2
$LN88@LoadString@2:
  001d8	c6 45 ec ed	 mov	 BYTE PTR __k$[ebp+8], -19 ; ffffffedH
  001dc	eb 2c		 jmp	 SHORT $LN111@LoadString@2
$LN89@LoadString@2:
  001de	c6 45 eb ea	 mov	 BYTE PTR __k$[ebp+7], -22 ; ffffffeaH
  001e2	eb 26		 jmp	 SHORT $LN111@LoadString@2
$LN90@LoadString@2:
  001e4	88 4d ea	 mov	 BYTE PTR __k$[ebp+6], cl
  001e7	eb 21		 jmp	 SHORT $LN111@LoadString@2
$LN91@LoadString@2:
  001e9	88 5d e9	 mov	 BYTE PTR __k$[ebp+5], bl
  001ec	eb 1c		 jmp	 SHORT $LN111@LoadString@2
$LN92@LoadString@2:
  001ee	c6 45 e8 ed	 mov	 BYTE PTR __k$[ebp+4], -19 ; ffffffedH
  001f2	eb 16		 jmp	 SHORT $LN111@LoadString@2
$LN93@LoadString@2:
  001f4	c6 45 e7 ea	 mov	 BYTE PTR __k$[ebp+3], -22 ; ffffffeaH
  001f8	eb 10		 jmp	 SHORT $LN111@LoadString@2
$LN94@LoadString@2:
  001fa	c6 45 e6 eb	 mov	 BYTE PTR __k$[ebp+2], -21 ; ffffffebH
  001fe	eb 0a		 jmp	 SHORT $LN111@LoadString@2
$LN95@LoadString@2:
  00200	c6 45 e5 ec	 mov	 BYTE PTR __k$[ebp+1], -20 ; ffffffecH
  00204	eb 04		 jmp	 SHORT $LN111@LoadString@2
$LN96@LoadString@2:
  00206	c6 45 e4 ed	 mov	 BYTE PTR __k$[ebp], -19	; ffffffedH
$LN111@LoadString@2:
  0020a	6a 04		 push	 4
  0020c	8d 45 e4	 lea	 eax, DWORD PTR __k$[ebp]
  0020f	c6 45 f7 00	 mov	 BYTE PTR __k$[ebp+19], 0
  00213	5a		 pop	 edx
$LL104@LoadString@2:
  00214	81 30 ed ec eb
	ea		 xor	 DWORD PTR [eax], -353637139 ; eaebecedH
  0021a	83 c0 04	 add	 eax, 4
  0021d	4a		 dec	 edx
  0021e	75 f4		 jne	 SHORT $LL104@LoadString@2
  00220	6a 10		 push	 16			; 00000010H
  00222	58		 pop	 eax
$LL101@LoadString@2:
  00223	8b c8		 mov	 ecx, eax
  00225	81 e1 03 00 00
	80		 and	 ecx, -2147483645	; 80000003H
  0022b	79 05		 jns	 SHORT $LN112@LoadString@2
  0022d	49		 dec	 ecx
  0022e	83 c9 fc	 or	 ecx, -4			; fffffffcH
  00231	41		 inc	 ecx
$LN112@LoadString@2:
  00232	b2 ed		 mov	 dl, -19			; ffffffedH
  00234	2a d1		 sub	 dl, cl
  00236	30 54 05 e4	 xor	 BYTE PTR __k$[ebp+eax], dl
  0023a	40		 inc	 eax
  0023b	83 f8 13	 cmp	 eax, 19			; 00000013H
  0023e	7c e3		 jl	 SHORT $LL101@LoadString@2

; 163  : 		LoadString(_k, d, b, i);

  00240	ff 75 14	 push	 DWORD PTR _i$[ebp]
  00243	8b 4d e0	 mov	 ecx, DWORD PTR _this$GSCopy$[ebp]
  00246	57		 push	 edi
  00247	56		 push	 esi
  00248	8d 45 e4	 lea	 eax, DWORD PTR __k$[ebp]
  0024b	50		 push	 eax
  0024c	ff 15 00 00 00
	00		 call	 DWORD PTR __imp_?LoadStringA@ioINILoader@@QAEXPBD0PADH@Z

; 164  : 	}

  00252	8b 4d fc	 mov	 ecx, DWORD PTR __$ArrayPad$[ebp]
  00255	5f		 pop	 edi
  00256	5e		 pop	 esi
  00257	33 cd		 xor	 ecx, ebp
  00259	5b		 pop	 ebx
  0025a	e8 00 00 00 00	 call	 @__security_check_cookie@4
  0025f	c9		 leave
  00260	c2 10 00	 ret	 16			; 00000010H
??$LoadString_e@$0BE@@ioINILoader@@QAEXAAY0BE@$$CBDAAY00$$CBDPADH@Z ENDP ; ioINILoader::LoadString_e<20>
_TEXT	ENDS
PUBLIC	_this$GSCopy$
PUBLIC	__$ArrayPad$
PUBLIC	??$LoadString_e@$0BL@@ioINILoader@@QAEXAAY0BL@$$CBDAAY00$$CBDPADH@Z ; ioINILoader::LoadString_e<27>
; Function compile flags: /Ogsp
;	COMDAT ??$LoadString_e@$0BL@@ioINILoader@@QAEXAAY0BL@$$CBDAAY00$$CBDPADH@Z
_TEXT	SEGMENT
_this$GSCopy$ = -40					; size = 4
__k$ = -36						; size = 27
__$ArrayPad$ = -4					; size = 4
_k$ = 8							; size = 4
_d$ = 12						; size = 4
_b$ = 16						; size = 4
_i$ = 20						; size = 4
??$LoadString_e@$0BL@@ioINILoader@@QAEXAAY0BL@$$CBDAAY00$$CBDPADH@Z PROC ; ioINILoader::LoadString_e<27>, COMDAT
; _this$ = ecx

; 161  : 	{

  00000	55		 push	 ebp
  00001	8b ec		 mov	 ebp, esp
  00003	83 ec 28	 sub	 esp, 40			; 00000028H
  00006	a1 00 00 00 00	 mov	 eax, DWORD PTR ___security_cookie
  0000b	33 c5		 xor	 eax, ebp
  0000d	89 45 fc	 mov	 DWORD PTR __$ArrayPad$[ebp], eax
  00010	8b 45 08	 mov	 eax, DWORD PTR _k$[ebp]

; 162  : 		_ENCSTR(k, _k);

  00013	8a 10		 mov	 dl, BYTE PTR [eax]
  00015	53		 push	 ebx
  00016	56		 push	 esi
  00017	8b 75 0c	 mov	 esi, DWORD PTR _d$[ebp]
  0001a	57		 push	 edi
  0001b	8b 7d 10	 mov	 edi, DWORD PTR _b$[ebp]
  0001e	89 4d d8	 mov	 DWORD PTR _this$GSCopy$[ebp], ecx
  00021	84 d2		 test	 dl, dl
  00023	0f 84 91 02 00
	00		 je	 $LN96@LoadString@3
  00029	80 f2 ed	 xor	 dl, -19			; ffffffedH
  0002c	88 55 dc	 mov	 BYTE PTR __k$[ebp], dl
  0002f	8a 50 01	 mov	 dl, BYTE PTR [eax+1]
  00032	84 d2		 test	 dl, dl
  00034	0f 84 7a 02 00
	00		 je	 $LN95@LoadString@3
  0003a	b1 ec		 mov	 cl, -20			; ffffffecH
  0003c	32 d1		 xor	 dl, cl
  0003e	88 55 dd	 mov	 BYTE PTR __k$[ebp+1], dl
  00041	8a 50 02	 mov	 dl, BYTE PTR [eax+2]
  00044	84 d2		 test	 dl, dl
  00046	0f 84 62 02 00
	00		 je	 $LN94@LoadString@3
  0004c	80 f2 eb	 xor	 dl, -21			; ffffffebH
  0004f	88 55 de	 mov	 BYTE PTR __k$[ebp+2], dl
  00052	8a 50 03	 mov	 dl, BYTE PTR [eax+3]
  00055	84 d2		 test	 dl, dl
  00057	0f 84 4b 02 00
	00		 je	 $LN93@LoadString@3
  0005d	b3 ea		 mov	 bl, -22			; ffffffeaH
  0005f	32 d3		 xor	 dl, bl
  00061	88 55 df	 mov	 BYTE PTR __k$[ebp+3], dl
  00064	8a 50 04	 mov	 dl, BYTE PTR [eax+4]
  00067	84 d2		 test	 dl, dl
  00069	0f 84 33 02 00
	00		 je	 $LN92@LoadString@3
  0006f	80 f2 ed	 xor	 dl, -19			; ffffffedH
  00072	88 55 e0	 mov	 BYTE PTR __k$[ebp+4], dl
  00075	8a 50 05	 mov	 dl, BYTE PTR [eax+5]
  00078	84 d2		 test	 dl, dl
  0007a	0f 84 1d 02 00
	00		 je	 $LN91@LoadString@3
  00080	32 d1		 xor	 dl, cl
  00082	88 55 e1	 mov	 BYTE PTR __k$[ebp+5], dl
  00085	8a 50 06	 mov	 dl, BYTE PTR [eax+6]
  00088	84 d2		 test	 dl, dl
  0008a	0f 84 07 02 00
	00		 je	 $LN90@LoadString@3
  00090	80 f2 eb	 xor	 dl, -21			; ffffffebH
  00093	88 55 e2	 mov	 BYTE PTR __k$[ebp+6], dl
  00096	8a 50 07	 mov	 dl, BYTE PTR [eax+7]
  00099	84 d2		 test	 dl, dl
  0009b	0f 84 f1 01 00
	00		 je	 $LN89@LoadString@3
  000a1	32 d3		 xor	 dl, bl
  000a3	88 55 e3	 mov	 BYTE PTR __k$[ebp+7], dl
  000a6	8a 50 08	 mov	 dl, BYTE PTR [eax+8]
  000a9	84 d2		 test	 dl, dl
  000ab	0f 84 db 01 00
	00		 je	 $LN88@LoadString@3
  000b1	80 f2 ed	 xor	 dl, -19			; ffffffedH
  000b4	88 55 e4	 mov	 BYTE PTR __k$[ebp+8], dl
  000b7	8a 50 09	 mov	 dl, BYTE PTR [eax+9]
  000ba	84 d2		 test	 dl, dl
  000bc	0f 84 c5 01 00
	00		 je	 $LN87@LoadString@3
  000c2	32 d1		 xor	 dl, cl
  000c4	88 55 e5	 mov	 BYTE PTR __k$[ebp+9], dl
  000c7	8a 50 0a	 mov	 dl, BYTE PTR [eax+10]
  000ca	84 d2		 test	 dl, dl
  000cc	0f 84 af 01 00
	00		 je	 $LN86@LoadString@3
  000d2	80 f2 eb	 xor	 dl, -21			; ffffffebH
  000d5	88 55 e6	 mov	 BYTE PTR __k$[ebp+10], dl
  000d8	8a 50 0b	 mov	 dl, BYTE PTR [eax+11]
  000db	84 d2		 test	 dl, dl
  000dd	0f 84 99 01 00
	00		 je	 $LN85@LoadString@3
  000e3	32 d3		 xor	 dl, bl
  000e5	88 55 e7	 mov	 BYTE PTR __k$[ebp+11], dl
  000e8	8a 50 0c	 mov	 dl, BYTE PTR [eax+12]
  000eb	84 d2		 test	 dl, dl
  000ed	0f 84 83 01 00
	00		 je	 $LN84@LoadString@3
  000f3	80 f2 ed	 xor	 dl, -19			; ffffffedH
  000f6	88 55 e8	 mov	 BYTE PTR __k$[ebp+12], dl
  000f9	8a 50 0d	 mov	 dl, BYTE PTR [eax+13]
  000fc	84 d2		 test	 dl, dl
  000fe	0f 84 6d 01 00
	00		 je	 $LN83@LoadString@3
  00104	32 d1		 xor	 dl, cl
  00106	88 55 e9	 mov	 BYTE PTR __k$[ebp+13], dl
  00109	8a 50 0e	 mov	 dl, BYTE PTR [eax+14]
  0010c	84 d2		 test	 dl, dl
  0010e	0f 84 57 01 00
	00		 je	 $LN82@LoadString@3
  00114	80 f2 eb	 xor	 dl, -21			; ffffffebH
  00117	88 55 ea	 mov	 BYTE PTR __k$[ebp+14], dl
  0011a	8a 50 0f	 mov	 dl, BYTE PTR [eax+15]
  0011d	84 d2		 test	 dl, dl
  0011f	0f 84 41 01 00
	00		 je	 $LN81@LoadString@3
  00125	32 d3		 xor	 dl, bl
  00127	88 55 eb	 mov	 BYTE PTR __k$[ebp+15], dl
  0012a	8a 50 10	 mov	 dl, BYTE PTR [eax+16]
  0012d	84 d2		 test	 dl, dl
  0012f	0f 84 2b 01 00
	00		 je	 $LN80@LoadString@3
  00135	80 f2 ed	 xor	 dl, -19			; ffffffedH
  00138	88 55 ec	 mov	 BYTE PTR __k$[ebp+16], dl
  0013b	8a 50 11	 mov	 dl, BYTE PTR [eax+17]
  0013e	84 d2		 test	 dl, dl
  00140	0f 84 15 01 00
	00		 je	 $LN79@LoadString@3
  00146	32 d1		 xor	 dl, cl
  00148	88 55 ed	 mov	 BYTE PTR __k$[ebp+17], dl
  0014b	8a 50 12	 mov	 dl, BYTE PTR [eax+18]
  0014e	84 d2		 test	 dl, dl
  00150	0f 84 ff 00 00
	00		 je	 $LN78@LoadString@3
  00156	80 f2 eb	 xor	 dl, -21			; ffffffebH
  00159	88 55 ee	 mov	 BYTE PTR __k$[ebp+18], dl
  0015c	8a 50 13	 mov	 dl, BYTE PTR [eax+19]
  0015f	84 d2		 test	 dl, dl
  00161	0f 84 e9 00 00
	00		 je	 $LN77@LoadString@3
  00167	32 d3		 xor	 dl, bl
  00169	88 55 ef	 mov	 BYTE PTR __k$[ebp+19], dl
  0016c	8a 50 14	 mov	 dl, BYTE PTR [eax+20]
  0016f	84 d2		 test	 dl, dl
  00171	0f 84 d3 00 00
	00		 je	 $LN76@LoadString@3
  00177	80 f2 ed	 xor	 dl, -19			; ffffffedH
  0017a	88 55 f0	 mov	 BYTE PTR __k$[ebp+20], dl
  0017d	8a 50 15	 mov	 dl, BYTE PTR [eax+21]
  00180	84 d2		 test	 dl, dl
  00182	0f 84 bd 00 00
	00		 je	 $LN75@LoadString@3
  00188	32 d1		 xor	 dl, cl
  0018a	88 55 f1	 mov	 BYTE PTR __k$[ebp+21], dl
  0018d	8a 50 16	 mov	 dl, BYTE PTR [eax+22]
  00190	84 d2		 test	 dl, dl
  00192	0f 84 a7 00 00
	00		 je	 $LN74@LoadString@3
  00198	80 f2 eb	 xor	 dl, -21			; ffffffebH
  0019b	88 55 f2	 mov	 BYTE PTR __k$[ebp+22], dl
  0019e	8a 50 17	 mov	 dl, BYTE PTR [eax+23]
  001a1	84 d2		 test	 dl, dl
  001a3	0f 84 91 00 00
	00		 je	 $LN73@LoadString@3
  001a9	32 d3		 xor	 dl, bl
  001ab	88 55 f3	 mov	 BYTE PTR __k$[ebp+23], dl
  001ae	8a 50 18	 mov	 dl, BYTE PTR [eax+24]
  001b1	84 d2		 test	 dl, dl
  001b3	74 7c		 je	 SHORT $LN72@LoadString@3
  001b5	80 f2 ed	 xor	 dl, -19			; ffffffedH
  001b8	88 55 f4	 mov	 BYTE PTR __k$[ebp+24], dl
  001bb	8a 50 19	 mov	 dl, BYTE PTR [eax+25]
  001be	84 d2		 test	 dl, dl
  001c0	74 67		 je	 SHORT $LN71@LoadString@3
  001c2	32 d1		 xor	 dl, cl
  001c4	80 78 1a 00	 cmp	 BYTE PTR [eax+26], 0
  001c8	88 55 f5	 mov	 BYTE PTR __k$[ebp+25], dl
  001cb	0f 84 ed 00 00
	00		 je	 $LN111@LoadString@3
  001d1	8a 50 1b	 mov	 dl, BYTE PTR [eax+27]
  001d4	84 d2		 test	 dl, dl
  001d6	74 49		 je	 SHORT $LN69@LoadString@3
  001d8	32 d3		 xor	 dl, bl
  001da	88 55 f7	 mov	 BYTE PTR __k$[ebp+27], dl
  001dd	8a 50 1c	 mov	 dl, BYTE PTR [eax+28]
  001e0	84 d2		 test	 dl, dl
  001e2	74 34		 je	 SHORT $LN68@LoadString@3
  001e4	80 f2 ed	 xor	 dl, -19			; ffffffedH
  001e7	88 55 f8	 mov	 BYTE PTR __k$[ebp+28], dl
  001ea	8a 50 1d	 mov	 dl, BYTE PTR [eax+29]
  001ed	84 d2		 test	 dl, dl
  001ef	74 1f		 je	 SHORT $LN67@LoadString@3
  001f1	8a 40 1e	 mov	 al, BYTE PTR [eax+30]
  001f4	32 d1		 xor	 dl, cl
  001f6	88 55 f9	 mov	 BYTE PTR __k$[ebp+29], dl
  001f9	84 c0		 test	 al, al
  001fb	74 0a		 je	 SHORT $LN66@LoadString@3
  001fd	34 eb		 xor	 al, -21			; ffffffebH
  001ff	88 45 fa	 mov	 BYTE PTR __k$[ebp+30], al
  00202	e9 b7 00 00 00	 jmp	 $LN111@LoadString@3
$LN66@LoadString@3:
  00207	c6 45 fa eb	 mov	 BYTE PTR __k$[ebp+30], -21 ; ffffffebH
  0020b	e9 ae 00 00 00	 jmp	 $LN111@LoadString@3
$LN67@LoadString@3:
  00210	88 4d f9	 mov	 BYTE PTR __k$[ebp+29], cl
  00213	e9 a6 00 00 00	 jmp	 $LN111@LoadString@3
$LN68@LoadString@3:
  00218	c6 45 f8 ed	 mov	 BYTE PTR __k$[ebp+28], -19 ; ffffffedH
  0021c	e9 9d 00 00 00	 jmp	 $LN111@LoadString@3
$LN69@LoadString@3:
  00221	88 5d f7	 mov	 BYTE PTR __k$[ebp+27], bl
  00224	e9 95 00 00 00	 jmp	 $LN111@LoadString@3
$LN71@LoadString@3:
  00229	88 4d f5	 mov	 BYTE PTR __k$[ebp+25], cl
  0022c	e9 8d 00 00 00	 jmp	 $LN111@LoadString@3
$LN72@LoadString@3:
  00231	c6 45 f4 ed	 mov	 BYTE PTR __k$[ebp+24], -19 ; ffffffedH
  00235	e9 84 00 00 00	 jmp	 $LN111@LoadString@3
$LN73@LoadString@3:
  0023a	88 5d f3	 mov	 BYTE PTR __k$[ebp+23], bl
  0023d	eb 7f		 jmp	 SHORT $LN111@LoadString@3
$LN74@LoadString@3:
  0023f	c6 45 f2 eb	 mov	 BYTE PTR __k$[ebp+22], -21 ; ffffffebH
  00243	eb 79		 jmp	 SHORT $LN111@LoadString@3
$LN75@LoadString@3:
  00245	88 4d f1	 mov	 BYTE PTR __k$[ebp+21], cl
  00248	eb 74		 jmp	 SHORT $LN111@LoadString@3
$LN76@LoadString@3:
  0024a	c6 45 f0 ed	 mov	 BYTE PTR __k$[ebp+20], -19 ; ffffffedH
  0024e	eb 6e		 jmp	 SHORT $LN111@LoadString@3
$LN77@LoadString@3:
  00250	88 5d ef	 mov	 BYTE PTR __k$[ebp+19], bl
  00253	eb 69		 jmp	 SHORT $LN111@LoadString@3
$LN78@LoadString@3:
  00255	c6 45 ee eb	 mov	 BYTE PTR __k$[ebp+18], -21 ; ffffffebH
  00259	eb 63		 jmp	 SHORT $LN111@LoadString@3
$LN79@LoadString@3:
  0025b	88 4d ed	 mov	 BYTE PTR __k$[ebp+17], cl
  0025e	eb 5e		 jmp	 SHORT $LN111@LoadString@3
$LN80@LoadString@3:
  00260	c6 45 ec ed	 mov	 BYTE PTR __k$[ebp+16], -19 ; ffffffedH
  00264	eb 58		 jmp	 SHORT $LN111@LoadString@3
$LN81@LoadString@3:
  00266	88 5d eb	 mov	 BYTE PTR __k$[ebp+15], bl
  00269	eb 53		 jmp	 SHORT $LN111@LoadString@3
$LN82@LoadString@3:
  0026b	c6 45 ea eb	 mov	 BYTE PTR __k$[ebp+14], -21 ; ffffffebH
  0026f	eb 4d		 jmp	 SHORT $LN111@LoadString@3
$LN83@LoadString@3:
  00271	88 4d e9	 mov	 BYTE PTR __k$[ebp+13], cl
  00274	eb 48		 jmp	 SHORT $LN111@LoadString@3
$LN84@LoadString@3:
  00276	c6 45 e8 ed	 mov	 BYTE PTR __k$[ebp+12], -19 ; ffffffedH
  0027a	eb 42		 jmp	 SHORT $LN111@LoadString@3
$LN85@LoadString@3:
  0027c	88 5d e7	 mov	 BYTE PTR __k$[ebp+11], bl
  0027f	eb 3d		 jmp	 SHORT $LN111@LoadString@3
$LN86@LoadString@3:
  00281	c6 45 e6 eb	 mov	 BYTE PTR __k$[ebp+10], -21 ; ffffffebH
  00285	eb 37		 jmp	 SHORT $LN111@LoadString@3
$LN87@LoadString@3:
  00287	88 4d e5	 mov	 BYTE PTR __k$[ebp+9], cl
  0028a	eb 32		 jmp	 SHORT $LN111@LoadString@3
$LN88@LoadString@3:
  0028c	c6 45 e4 ed	 mov	 BYTE PTR __k$[ebp+8], -19 ; ffffffedH
  00290	eb 2c		 jmp	 SHORT $LN111@LoadString@3
$LN89@LoadString@3:
  00292	88 5d e3	 mov	 BYTE PTR __k$[ebp+7], bl
  00295	eb 27		 jmp	 SHORT $LN111@LoadString@3
$LN90@LoadString@3:
  00297	c6 45 e2 eb	 mov	 BYTE PTR __k$[ebp+6], -21 ; ffffffebH
  0029b	eb 21		 jmp	 SHORT $LN111@LoadString@3
$LN91@LoadString@3:
  0029d	88 4d e1	 mov	 BYTE PTR __k$[ebp+5], cl
  002a0	eb 1c		 jmp	 SHORT $LN111@LoadString@3
$LN92@LoadString@3:
  002a2	c6 45 e0 ed	 mov	 BYTE PTR __k$[ebp+4], -19 ; ffffffedH
  002a6	eb 16		 jmp	 SHORT $LN111@LoadString@3
$LN93@LoadString@3:
  002a8	c6 45 df ea	 mov	 BYTE PTR __k$[ebp+3], -22 ; ffffffeaH
  002ac	eb 10		 jmp	 SHORT $LN111@LoadString@3
$LN94@LoadString@3:
  002ae	c6 45 de eb	 mov	 BYTE PTR __k$[ebp+2], -21 ; ffffffebH
  002b2	eb 0a		 jmp	 SHORT $LN111@LoadString@3
$LN95@LoadString@3:
  002b4	c6 45 dd ec	 mov	 BYTE PTR __k$[ebp+1], -20 ; ffffffecH
  002b8	eb 04		 jmp	 SHORT $LN111@LoadString@3
$LN96@LoadString@3:
  002ba	c6 45 dc ed	 mov	 BYTE PTR __k$[ebp], -19	; ffffffedH
$LN111@LoadString@3:
  002be	6a 06		 push	 6
  002c0	8d 45 dc	 lea	 eax, DWORD PTR __k$[ebp]
  002c3	c6 45 f6 00	 mov	 BYTE PTR __k$[ebp+26], 0
  002c7	5a		 pop	 edx
$LL104@LoadString@3:
  002c8	81 30 ed ec eb
	ea		 xor	 DWORD PTR [eax], -353637139 ; eaebecedH
  002ce	83 c0 04	 add	 eax, 4
  002d1	4a		 dec	 edx
  002d2	75 f4		 jne	 SHORT $LL104@LoadString@3
  002d4	6a 18		 push	 24			; 00000018H
  002d6	58		 pop	 eax
$LL101@LoadString@3:
  002d7	8b c8		 mov	 ecx, eax
  002d9	81 e1 03 00 00
	80		 and	 ecx, -2147483645	; 80000003H
  002df	79 05		 jns	 SHORT $LN112@LoadString@3
  002e1	49		 dec	 ecx
  002e2	83 c9 fc	 or	 ecx, -4			; fffffffcH
  002e5	41		 inc	 ecx
$LN112@LoadString@3:
  002e6	b2 ed		 mov	 dl, -19			; ffffffedH
  002e8	2a d1		 sub	 dl, cl
  002ea	30 54 05 dc	 xor	 BYTE PTR __k$[ebp+eax], dl
  002ee	40		 inc	 eax
  002ef	83 f8 1a	 cmp	 eax, 26			; 0000001aH
  002f2	7c e3		 jl	 SHORT $LL101@LoadString@3

; 163  : 		LoadString(_k, d, b, i);

  002f4	ff 75 14	 push	 DWORD PTR _i$[ebp]
  002f7	8b 4d d8	 mov	 ecx, DWORD PTR _this$GSCopy$[ebp]
  002fa	57		 push	 edi
  002fb	56		 push	 esi
  002fc	8d 45 dc	 lea	 eax, DWORD PTR __k$[ebp]
  002ff	50		 push	 eax
  00300	ff 15 00 00 00
	00		 call	 DWORD PTR __imp_?LoadStringA@ioINILoader@@QAEXPBD0PADH@Z

; 164  : 	}

  00306	8b 4d fc	 mov	 ecx, DWORD PTR __$ArrayPad$[ebp]
  00309	5f		 pop	 edi
  0030a	5e		 pop	 esi
  0030b	33 cd		 xor	 ecx, ebp
  0030d	5b		 pop	 ebx
  0030e	e8 00 00 00 00	 call	 @__security_check_cookie@4
  00313	c9		 leave
  00314	c2 10 00	 ret	 16			; 00000010H
??$LoadString_e@$0BL@@ioINILoader@@QAEXAAY0BL@$$CBDAAY00$$CBDPADH@Z ENDP ; ioINILoader::LoadString_e<27>
_TEXT	ENDS
PUBLIC	_this$GSCopy$
PUBLIC	__$ArrayPad$
PUBLIC	??$LoadString_e@$0BK@@ioINILoader@@QAEXAAY0BK@$$CBDAAY00$$CBDPADH@Z ; ioINILoader::LoadString_e<26>
; Function compile flags: /Ogsp
;	COMDAT ??$LoadString_e@$0BK@@ioINILoader@@QAEXAAY0BK@$$CBDAAY00$$CBDPADH@Z
_TEXT	SEGMENT
_this$GSCopy$ = -40					; size = 4
__k$ = -36						; size = 26
__$ArrayPad$ = -4					; size = 4
_k$ = 8							; size = 4
_d$ = 12						; size = 4
_b$ = 16						; size = 4
_i$ = 20						; size = 4
??$LoadString_e@$0BK@@ioINILoader@@QAEXAAY0BK@$$CBDAAY00$$CBDPADH@Z PROC ; ioINILoader::LoadString_e<26>, COMDAT
; _this$ = ecx

; 161  : 	{

  00000	55		 push	 ebp
  00001	8b ec		 mov	 ebp, esp
  00003	83 ec 28	 sub	 esp, 40			; 00000028H
  00006	a1 00 00 00 00	 mov	 eax, DWORD PTR ___security_cookie
  0000b	33 c5		 xor	 eax, ebp
  0000d	89 45 fc	 mov	 DWORD PTR __$ArrayPad$[ebp], eax
  00010	8b 45 08	 mov	 eax, DWORD PTR _k$[ebp]

; 162  : 		_ENCSTR(k, _k);

  00013	8a 10		 mov	 dl, BYTE PTR [eax]
  00015	53		 push	 ebx
  00016	56		 push	 esi
  00017	8b 75 0c	 mov	 esi, DWORD PTR _d$[ebp]
  0001a	57		 push	 edi
  0001b	8b 7d 10	 mov	 edi, DWORD PTR _b$[ebp]
  0001e	89 4d d8	 mov	 DWORD PTR _this$GSCopy$[ebp], ecx
  00021	84 d2		 test	 dl, dl
  00023	0f 84 79 02 00
	00		 je	 $LN96@LoadString@4
  00029	80 f2 ed	 xor	 dl, -19			; ffffffedH
  0002c	88 55 dc	 mov	 BYTE PTR __k$[ebp], dl
  0002f	8a 50 01	 mov	 dl, BYTE PTR [eax+1]
  00032	84 d2		 test	 dl, dl
  00034	0f 84 62 02 00
	00		 je	 $LN95@LoadString@4
  0003a	80 f2 ec	 xor	 dl, -20			; ffffffecH
  0003d	88 55 dd	 mov	 BYTE PTR __k$[ebp+1], dl
  00040	8a 50 02	 mov	 dl, BYTE PTR [eax+2]
  00043	84 d2		 test	 dl, dl
  00045	0f 84 4b 02 00
	00		 je	 $LN94@LoadString@4
  0004b	b1 eb		 mov	 cl, -21			; ffffffebH
  0004d	32 d1		 xor	 dl, cl
  0004f	88 55 de	 mov	 BYTE PTR __k$[ebp+2], dl
  00052	8a 50 03	 mov	 dl, BYTE PTR [eax+3]
  00055	84 d2		 test	 dl, dl
  00057	0f 84 33 02 00
	00		 je	 $LN93@LoadString@4
  0005d	b3 ea		 mov	 bl, -22			; ffffffeaH
  0005f	32 d3		 xor	 dl, bl
  00061	88 55 df	 mov	 BYTE PTR __k$[ebp+3], dl
  00064	8a 50 04	 mov	 dl, BYTE PTR [eax+4]
  00067	84 d2		 test	 dl, dl
  00069	0f 84 1b 02 00
	00		 je	 $LN92@LoadString@4
  0006f	80 f2 ed	 xor	 dl, -19			; ffffffedH
  00072	88 55 e0	 mov	 BYTE PTR __k$[ebp+4], dl
  00075	8a 50 05	 mov	 dl, BYTE PTR [eax+5]
  00078	84 d2		 test	 dl, dl
  0007a	0f 84 04 02 00
	00		 je	 $LN91@LoadString@4
  00080	80 f2 ec	 xor	 dl, -20			; ffffffecH
  00083	88 55 e1	 mov	 BYTE PTR __k$[ebp+5], dl
  00086	8a 50 06	 mov	 dl, BYTE PTR [eax+6]
  00089	84 d2		 test	 dl, dl
  0008b	0f 84 ee 01 00
	00		 je	 $LN90@LoadString@4
  00091	32 d1		 xor	 dl, cl
  00093	88 55 e2	 mov	 BYTE PTR __k$[ebp+6], dl
  00096	8a 50 07	 mov	 dl, BYTE PTR [eax+7]
  00099	84 d2		 test	 dl, dl
  0009b	0f 84 d9 01 00
	00		 je	 $LN89@LoadString@4
  000a1	32 d3		 xor	 dl, bl
  000a3	88 55 e3	 mov	 BYTE PTR __k$[ebp+7], dl
  000a6	8a 50 08	 mov	 dl, BYTE PTR [eax+8]
  000a9	84 d2		 test	 dl, dl
  000ab	0f 84 c3 01 00
	00		 je	 $LN88@LoadString@4
  000b1	80 f2 ed	 xor	 dl, -19			; ffffffedH
  000b4	88 55 e4	 mov	 BYTE PTR __k$[ebp+8], dl
  000b7	8a 50 09	 mov	 dl, BYTE PTR [eax+9]
  000ba	84 d2		 test	 dl, dl
  000bc	0f 84 ac 01 00
	00		 je	 $LN87@LoadString@4
  000c2	80 f2 ec	 xor	 dl, -20			; ffffffecH
  000c5	88 55 e5	 mov	 BYTE PTR __k$[ebp+9], dl
  000c8	8a 50 0a	 mov	 dl, BYTE PTR [eax+10]
  000cb	84 d2		 test	 dl, dl
  000cd	0f 84 96 01 00
	00		 je	 $LN86@LoadString@4
  000d3	32 d1		 xor	 dl, cl
  000d5	88 55 e6	 mov	 BYTE PTR __k$[ebp+10], dl
  000d8	8a 50 0b	 mov	 dl, BYTE PTR [eax+11]
  000db	84 d2		 test	 dl, dl
  000dd	0f 84 81 01 00
	00		 je	 $LN85@LoadString@4
  000e3	32 d3		 xor	 dl, bl
  000e5	88 55 e7	 mov	 BYTE PTR __k$[ebp+11], dl
  000e8	8a 50 0c	 mov	 dl, BYTE PTR [eax+12]
  000eb	84 d2		 test	 dl, dl
  000ed	0f 84 6b 01 00
	00		 je	 $LN84@LoadString@4
  000f3	80 f2 ed	 xor	 dl, -19			; ffffffedH
  000f6	88 55 e8	 mov	 BYTE PTR __k$[ebp+12], dl
  000f9	8a 50 0d	 mov	 dl, BYTE PTR [eax+13]
  000fc	84 d2		 test	 dl, dl
  000fe	0f 84 54 01 00
	00		 je	 $LN83@LoadString@4
  00104	80 f2 ec	 xor	 dl, -20			; ffffffecH
  00107	88 55 e9	 mov	 BYTE PTR __k$[ebp+13], dl
  0010a	8a 50 0e	 mov	 dl, BYTE PTR [eax+14]
  0010d	84 d2		 test	 dl, dl
  0010f	0f 84 3e 01 00
	00		 je	 $LN82@LoadString@4
  00115	32 d1		 xor	 dl, cl
  00117	88 55 ea	 mov	 BYTE PTR __k$[ebp+14], dl
  0011a	8a 50 0f	 mov	 dl, BYTE PTR [eax+15]
  0011d	84 d2		 test	 dl, dl
  0011f	0f 84 29 01 00
	00		 je	 $LN81@LoadString@4
  00125	32 d3		 xor	 dl, bl
  00127	88 55 eb	 mov	 BYTE PTR __k$[ebp+15], dl
  0012a	8a 50 10	 mov	 dl, BYTE PTR [eax+16]
  0012d	84 d2		 test	 dl, dl
  0012f	0f 84 13 01 00
	00		 je	 $LN80@LoadString@4
  00135	80 f2 ed	 xor	 dl, -19			; ffffffedH
  00138	88 55 ec	 mov	 BYTE PTR __k$[ebp+16], dl
  0013b	8a 50 11	 mov	 dl, BYTE PTR [eax+17]
  0013e	84 d2		 test	 dl, dl
  00140	0f 84 fc 00 00
	00		 je	 $LN79@LoadString@4
  00146	80 f2 ec	 xor	 dl, -20			; ffffffecH
  00149	88 55 ed	 mov	 BYTE PTR __k$[ebp+17], dl
  0014c	8a 50 12	 mov	 dl, BYTE PTR [eax+18]
  0014f	84 d2		 test	 dl, dl
  00151	0f 84 e6 00 00
	00		 je	 $LN78@LoadString@4
  00157	32 d1		 xor	 dl, cl
  00159	88 55 ee	 mov	 BYTE PTR __k$[ebp+18], dl
  0015c	8a 50 13	 mov	 dl, BYTE PTR [eax+19]
  0015f	84 d2		 test	 dl, dl
  00161	0f 84 d1 00 00
	00		 je	 $LN77@LoadString@4
  00167	32 d3		 xor	 dl, bl
  00169	88 55 ef	 mov	 BYTE PTR __k$[ebp+19], dl
  0016c	8a 50 14	 mov	 dl, BYTE PTR [eax+20]
  0016f	84 d2		 test	 dl, dl
  00171	0f 84 bb 00 00
	00		 je	 $LN76@LoadString@4
  00177	80 f2 ed	 xor	 dl, -19			; ffffffedH
  0017a	88 55 f0	 mov	 BYTE PTR __k$[ebp+20], dl
  0017d	8a 50 15	 mov	 dl, BYTE PTR [eax+21]
  00180	84 d2		 test	 dl, dl
  00182	0f 84 a4 00 00
	00		 je	 $LN75@LoadString@4
  00188	80 f2 ec	 xor	 dl, -20			; ffffffecH
  0018b	88 55 f1	 mov	 BYTE PTR __k$[ebp+21], dl
  0018e	8a 50 16	 mov	 dl, BYTE PTR [eax+22]
  00191	84 d2		 test	 dl, dl
  00193	0f 84 8e 00 00
	00		 je	 $LN74@LoadString@4
  00199	32 d1		 xor	 dl, cl
  0019b	88 55 f2	 mov	 BYTE PTR __k$[ebp+22], dl
  0019e	8a 50 17	 mov	 dl, BYTE PTR [eax+23]
  001a1	84 d2		 test	 dl, dl
  001a3	74 7d		 je	 SHORT $LN73@LoadString@4
  001a5	32 d3		 xor	 dl, bl
  001a7	88 55 f3	 mov	 BYTE PTR __k$[ebp+23], dl
  001aa	8a 50 18	 mov	 dl, BYTE PTR [eax+24]
  001ad	84 d2		 test	 dl, dl
  001af	74 68		 je	 SHORT $LN72@LoadString@4
  001b1	80 f2 ed	 xor	 dl, -19			; ffffffedH
  001b4	80 78 19 00	 cmp	 BYTE PTR [eax+25], 0
  001b8	88 55 f4	 mov	 BYTE PTR __k$[ebp+24], dl
  001bb	0f 84 e5 00 00
	00		 je	 $LN111@LoadString@4
  001c1	8a 50 1a	 mov	 dl, BYTE PTR [eax+26]
  001c4	84 d2		 test	 dl, dl
  001c6	74 49		 je	 SHORT $LN70@LoadString@4
  001c8	32 d1		 xor	 dl, cl
  001ca	88 55 f6	 mov	 BYTE PTR __k$[ebp+26], dl
  001cd	8a 50 1b	 mov	 dl, BYTE PTR [eax+27]
  001d0	84 d2		 test	 dl, dl
  001d2	74 35		 je	 SHORT $LN69@LoadString@4
  001d4	32 d3		 xor	 dl, bl
  001d6	88 55 f7	 mov	 BYTE PTR __k$[ebp+27], dl
  001d9	8a 50 1c	 mov	 dl, BYTE PTR [eax+28]
  001dc	84 d2		 test	 dl, dl
  001de	74 20		 je	 SHORT $LN68@LoadString@4
  001e0	8a 40 1d	 mov	 al, BYTE PTR [eax+29]
  001e3	80 f2 ed	 xor	 dl, -19			; ffffffedH
  001e6	88 55 f8	 mov	 BYTE PTR __k$[ebp+28], dl
  001e9	84 c0		 test	 al, al
  001eb	74 0a		 je	 SHORT $LN67@LoadString@4
  001ed	34 ec		 xor	 al, -20			; ffffffecH
  001ef	88 45 f9	 mov	 BYTE PTR __k$[ebp+29], al
  001f2	e9 af 00 00 00	 jmp	 $LN111@LoadString@4
$LN67@LoadString@4:
  001f7	c6 45 f9 ec	 mov	 BYTE PTR __k$[ebp+29], -20 ; ffffffecH
  001fb	e9 a6 00 00 00	 jmp	 $LN111@LoadString@4
$LN68@LoadString@4:
  00200	c6 45 f8 ed	 mov	 BYTE PTR __k$[ebp+28], -19 ; ffffffedH
  00204	e9 9d 00 00 00	 jmp	 $LN111@LoadString@4
$LN69@LoadString@4:
  00209	88 5d f7	 mov	 BYTE PTR __k$[ebp+27], bl
  0020c	e9 95 00 00 00	 jmp	 $LN111@LoadString@4
$LN70@LoadString@4:
  00211	88 4d f6	 mov	 BYTE PTR __k$[ebp+26], cl
  00214	e9 8d 00 00 00	 jmp	 $LN111@LoadString@4
$LN72@LoadString@4:
  00219	c6 45 f4 ed	 mov	 BYTE PTR __k$[ebp+24], -19 ; ffffffedH
  0021d	e9 84 00 00 00	 jmp	 $LN111@LoadString@4
$LN73@LoadString@4:
  00222	88 5d f3	 mov	 BYTE PTR __k$[ebp+23], bl
  00225	eb 7f		 jmp	 SHORT $LN111@LoadString@4
$LN74@LoadString@4:
  00227	88 4d f2	 mov	 BYTE PTR __k$[ebp+22], cl
  0022a	eb 7a		 jmp	 SHORT $LN111@LoadString@4
$LN75@LoadString@4:
  0022c	c6 45 f1 ec	 mov	 BYTE PTR __k$[ebp+21], -20 ; ffffffecH
  00230	eb 74		 jmp	 SHORT $LN111@LoadString@4
$LN76@LoadString@4:
  00232	c6 45 f0 ed	 mov	 BYTE PTR __k$[ebp+20], -19 ; ffffffedH
  00236	eb 6e		 jmp	 SHORT $LN111@LoadString@4
$LN77@LoadString@4:
  00238	88 5d ef	 mov	 BYTE PTR __k$[ebp+19], bl
  0023b	eb 69		 jmp	 SHORT $LN111@LoadString@4
$LN78@LoadString@4:
  0023d	88 4d ee	 mov	 BYTE PTR __k$[ebp+18], cl
  00240	eb 64		 jmp	 SHORT $LN111@LoadString@4
$LN79@LoadString@4:
  00242	c6 45 ed ec	 mov	 BYTE PTR __k$[ebp+17], -20 ; ffffffecH
  00246	eb 5e		 jmp	 SHORT $LN111@LoadString@4
$LN80@LoadString@4:
  00248	c6 45 ec ed	 mov	 BYTE PTR __k$[ebp+16], -19 ; ffffffedH
  0024c	eb 58		 jmp	 SHORT $LN111@LoadString@4
$LN81@LoadString@4:
  0024e	88 5d eb	 mov	 BYTE PTR __k$[ebp+15], bl
  00251	eb 53		 jmp	 SHORT $LN111@LoadString@4
$LN82@LoadString@4:
  00253	88 4d ea	 mov	 BYTE PTR __k$[ebp+14], cl
  00256	eb 4e		 jmp	 SHORT $LN111@LoadString@4
$LN83@LoadString@4:
  00258	c6 45 e9 ec	 mov	 BYTE PTR __k$[ebp+13], -20 ; ffffffecH
  0025c	eb 48		 jmp	 SHORT $LN111@LoadString@4
$LN84@LoadString@4:
  0025e	c6 45 e8 ed	 mov	 BYTE PTR __k$[ebp+12], -19 ; ffffffedH
  00262	eb 42		 jmp	 SHORT $LN111@LoadString@4
$LN85@LoadString@4:
  00264	88 5d e7	 mov	 BYTE PTR __k$[ebp+11], bl
  00267	eb 3d		 jmp	 SHORT $LN111@LoadString@4
$LN86@LoadString@4:
  00269	88 4d e6	 mov	 BYTE PTR __k$[ebp+10], cl
  0026c	eb 38		 jmp	 SHORT $LN111@LoadString@4
$LN87@LoadString@4:
  0026e	c6 45 e5 ec	 mov	 BYTE PTR __k$[ebp+9], -20 ; ffffffecH
  00272	eb 32		 jmp	 SHORT $LN111@LoadString@4
$LN88@LoadString@4:
  00274	c6 45 e4 ed	 mov	 BYTE PTR __k$[ebp+8], -19 ; ffffffedH
  00278	eb 2c		 jmp	 SHORT $LN111@LoadString@4
$LN89@LoadString@4:
  0027a	88 5d e3	 mov	 BYTE PTR __k$[ebp+7], bl
  0027d	eb 27		 jmp	 SHORT $LN111@LoadString@4
$LN90@LoadString@4:
  0027f	88 4d e2	 mov	 BYTE PTR __k$[ebp+6], cl
  00282	eb 22		 jmp	 SHORT $LN111@LoadString@4
$LN91@LoadString@4:
  00284	c6 45 e1 ec	 mov	 BYTE PTR __k$[ebp+5], -20 ; ffffffecH
  00288	eb 1c		 jmp	 SHORT $LN111@LoadString@4
$LN92@LoadString@4:
  0028a	c6 45 e0 ed	 mov	 BYTE PTR __k$[ebp+4], -19 ; ffffffedH
  0028e	eb 16		 jmp	 SHORT $LN111@LoadString@4
$LN93@LoadString@4:
  00290	c6 45 df ea	 mov	 BYTE PTR __k$[ebp+3], -22 ; ffffffeaH
  00294	eb 10		 jmp	 SHORT $LN111@LoadString@4
$LN94@LoadString@4:
  00296	c6 45 de eb	 mov	 BYTE PTR __k$[ebp+2], -21 ; ffffffebH
  0029a	eb 0a		 jmp	 SHORT $LN111@LoadString@4
$LN95@LoadString@4:
  0029c	c6 45 dd ec	 mov	 BYTE PTR __k$[ebp+1], -20 ; ffffffecH
  002a0	eb 04		 jmp	 SHORT $LN111@LoadString@4
$LN96@LoadString@4:
  002a2	c6 45 dc ed	 mov	 BYTE PTR __k$[ebp], -19	; ffffffedH
$LN111@LoadString@4:
  002a6	6a 06		 push	 6
  002a8	8d 45 dc	 lea	 eax, DWORD PTR __k$[ebp]
  002ab	c6 45 f5 00	 mov	 BYTE PTR __k$[ebp+25], 0
  002af	5a		 pop	 edx
$LL104@LoadString@4:
  002b0	81 30 ed ec eb
	ea		 xor	 DWORD PTR [eax], -353637139 ; eaebecedH
  002b6	83 c0 04	 add	 eax, 4
  002b9	4a		 dec	 edx
  002ba	75 f4		 jne	 SHORT $LL104@LoadString@4

; 163  : 		LoadString(_k, d, b, i);

  002bc	ff 75 14	 push	 DWORD PTR _i$[ebp]
  002bf	8b 4d d8	 mov	 ecx, DWORD PTR _this$GSCopy$[ebp]
  002c2	80 75 f4 ed	 xor	 BYTE PTR __k$[ebp+24], -19 ; ffffffedH
  002c6	57		 push	 edi
  002c7	56		 push	 esi
  002c8	8d 45 dc	 lea	 eax, DWORD PTR __k$[ebp]
  002cb	50		 push	 eax
  002cc	ff 15 00 00 00
	00		 call	 DWORD PTR __imp_?LoadStringA@ioINILoader@@QAEXPBD0PADH@Z

; 164  : 	}

  002d2	8b 4d fc	 mov	 ecx, DWORD PTR __$ArrayPad$[ebp]
  002d5	5f		 pop	 edi
  002d6	5e		 pop	 esi
  002d7	33 cd		 xor	 ecx, ebp
  002d9	5b		 pop	 ebx
  002da	e8 00 00 00 00	 call	 @__security_check_cookie@4
  002df	c9		 leave
  002e0	c2 10 00	 ret	 16			; 00000010H
??$LoadString_e@$0BK@@ioINILoader@@QAEXAAY0BK@$$CBDAAY00$$CBDPADH@Z ENDP ; ioINILoader::LoadString_e<26>
_TEXT	ENDS
PUBLIC	__$ArrayPad$
PUBLIC	??$LoadInt_e@$0BC@@ioINILoader@@QAEHAAY0BC@$$CBDH@Z ; ioINILoader::LoadInt_e<18>
; Function compile flags: /Ogsp
;	COMDAT ??$LoadInt_e@$0BC@@ioINILoader@@QAEHAAY0BC@$$CBDH@Z
_TEXT	SEGMENT
__k$ = -28						; size = 18
__$ArrayPad$ = -4					; size = 4
_k$ = 8							; size = 4
_i$ = 12						; size = 4
??$LoadInt_e@$0BC@@ioINILoader@@QAEHAAY0BC@$$CBDH@Z PROC ; ioINILoader::LoadInt_e<18>, COMDAT
; _this$ = ecx

; 118  : 	{

  00000	55		 push	 ebp
  00001	8b ec		 mov	 ebp, esp
  00003	83 ec 1c	 sub	 esp, 28			; 0000001cH
  00006	a1 00 00 00 00	 mov	 eax, DWORD PTR ___security_cookie
  0000b	33 c5		 xor	 eax, ebp
  0000d	89 45 fc	 mov	 DWORD PTR __$ArrayPad$[ebp], eax
  00010	8b 45 08	 mov	 eax, DWORD PTR _k$[ebp]

; 119  : 		_ENCSTR(k, _k);

  00013	8a 10		 mov	 dl, BYTE PTR [eax]
  00015	56		 push	 esi
  00016	8b f1		 mov	 esi, ecx
  00018	84 d2		 test	 dl, dl
  0001a	0f 84 be 01 00
	00		 je	 $LN96@LoadInt_e@3
  00020	80 f2 ed	 xor	 dl, -19			; ffffffedH
  00023	88 55 e4	 mov	 BYTE PTR __k$[ebp], dl
  00026	8a 50 01	 mov	 dl, BYTE PTR [eax+1]
  00029	84 d2		 test	 dl, dl
  0002b	0f 84 a7 01 00
	00		 je	 $LN95@LoadInt_e@3
  00031	80 f2 ec	 xor	 dl, -20			; ffffffecH
  00034	88 55 e5	 mov	 BYTE PTR __k$[ebp+1], dl
  00037	8a 50 02	 mov	 dl, BYTE PTR [eax+2]
  0003a	84 d2		 test	 dl, dl
  0003c	0f 84 90 01 00
	00		 je	 $LN94@LoadInt_e@3
  00042	b1 eb		 mov	 cl, -21			; ffffffebH
  00044	32 d1		 xor	 dl, cl
  00046	88 55 e6	 mov	 BYTE PTR __k$[ebp+2], dl
  00049	8a 50 03	 mov	 dl, BYTE PTR [eax+3]
  0004c	84 d2		 test	 dl, dl
  0004e	0f 84 78 01 00
	00		 je	 $LN93@LoadInt_e@3
  00054	80 f2 ea	 xor	 dl, -22			; ffffffeaH
  00057	88 55 e7	 mov	 BYTE PTR __k$[ebp+3], dl
  0005a	8a 50 04	 mov	 dl, BYTE PTR [eax+4]
  0005d	84 d2		 test	 dl, dl
  0005f	0f 84 61 01 00
	00		 je	 $LN92@LoadInt_e@3
  00065	80 f2 ed	 xor	 dl, -19			; ffffffedH
  00068	88 55 e8	 mov	 BYTE PTR __k$[ebp+4], dl
  0006b	8a 50 05	 mov	 dl, BYTE PTR [eax+5]
  0006e	84 d2		 test	 dl, dl
  00070	0f 84 4a 01 00
	00		 je	 $LN91@LoadInt_e@3
  00076	80 f2 ec	 xor	 dl, -20			; ffffffecH
  00079	88 55 e9	 mov	 BYTE PTR __k$[ebp+5], dl
  0007c	8a 50 06	 mov	 dl, BYTE PTR [eax+6]
  0007f	84 d2		 test	 dl, dl
  00081	0f 84 34 01 00
	00		 je	 $LN90@LoadInt_e@3
  00087	32 d1		 xor	 dl, cl
  00089	88 55 ea	 mov	 BYTE PTR __k$[ebp+6], dl
  0008c	8a 50 07	 mov	 dl, BYTE PTR [eax+7]
  0008f	84 d2		 test	 dl, dl
  00091	0f 84 1e 01 00
	00		 je	 $LN89@LoadInt_e@3
  00097	80 f2 ea	 xor	 dl, -22			; ffffffeaH
  0009a	88 55 eb	 mov	 BYTE PTR __k$[ebp+7], dl
  0009d	8a 50 08	 mov	 dl, BYTE PTR [eax+8]
  000a0	84 d2		 test	 dl, dl
  000a2	0f 84 07 01 00
	00		 je	 $LN88@LoadInt_e@3
  000a8	80 f2 ed	 xor	 dl, -19			; ffffffedH
  000ab	88 55 ec	 mov	 BYTE PTR __k$[ebp+8], dl
  000ae	8a 50 09	 mov	 dl, BYTE PTR [eax+9]
  000b1	84 d2		 test	 dl, dl
  000b3	0f 84 f0 00 00
	00		 je	 $LN87@LoadInt_e@3
  000b9	80 f2 ec	 xor	 dl, -20			; ffffffecH
  000bc	88 55 ed	 mov	 BYTE PTR __k$[ebp+9], dl
  000bf	8a 50 0a	 mov	 dl, BYTE PTR [eax+10]
  000c2	84 d2		 test	 dl, dl
  000c4	0f 84 da 00 00
	00		 je	 $LN86@LoadInt_e@3
  000ca	32 d1		 xor	 dl, cl
  000cc	88 55 ee	 mov	 BYTE PTR __k$[ebp+10], dl
  000cf	8a 50 0b	 mov	 dl, BYTE PTR [eax+11]
  000d2	84 d2		 test	 dl, dl
  000d4	0f 84 c4 00 00
	00		 je	 $LN85@LoadInt_e@3
  000da	80 f2 ea	 xor	 dl, -22			; ffffffeaH
  000dd	88 55 ef	 mov	 BYTE PTR __k$[ebp+11], dl
  000e0	8a 50 0c	 mov	 dl, BYTE PTR [eax+12]
  000e3	84 d2		 test	 dl, dl
  000e5	0f 84 ad 00 00
	00		 je	 $LN84@LoadInt_e@3
  000eb	80 f2 ed	 xor	 dl, -19			; ffffffedH
  000ee	88 55 f0	 mov	 BYTE PTR __k$[ebp+12], dl
  000f1	8a 50 0d	 mov	 dl, BYTE PTR [eax+13]
  000f4	84 d2		 test	 dl, dl
  000f6	0f 84 96 00 00
	00		 je	 $LN83@LoadInt_e@3
  000fc	80 f2 ec	 xor	 dl, -20			; ffffffecH
  000ff	88 55 f1	 mov	 BYTE PTR __k$[ebp+13], dl
  00102	8a 50 0e	 mov	 dl, BYTE PTR [eax+14]
  00105	84 d2		 test	 dl, dl
  00107	0f 84 80 00 00
	00		 je	 $LN82@LoadInt_e@3
  0010d	32 d1		 xor	 dl, cl
  0010f	88 55 f2	 mov	 BYTE PTR __k$[ebp+14], dl
  00112	8a 50 0f	 mov	 dl, BYTE PTR [eax+15]
  00115	84 d2		 test	 dl, dl
  00117	74 6e		 je	 SHORT $LN81@LoadInt_e@3
  00119	80 f2 ea	 xor	 dl, -22			; ffffffeaH
  0011c	88 55 f3	 mov	 BYTE PTR __k$[ebp+15], dl
  0011f	8a 50 10	 mov	 dl, BYTE PTR [eax+16]
  00122	84 d2		 test	 dl, dl
  00124	74 5b		 je	 SHORT $LN80@LoadInt_e@3
  00126	80 f2 ed	 xor	 dl, -19			; ffffffedH
  00129	80 78 11 00	 cmp	 BYTE PTR [eax+17], 0
  0012d	88 55 f4	 mov	 BYTE PTR __k$[ebp+16], dl
  00130	0f 84 ac 00 00
	00		 je	 $LN1@LoadInt_e@3
  00136	8a 50 12	 mov	 dl, BYTE PTR [eax+18]
  00139	84 d2		 test	 dl, dl
  0013b	74 3f		 je	 SHORT $LN78@LoadInt_e@3
  0013d	32 d1		 xor	 dl, cl
  0013f	88 55 f6	 mov	 BYTE PTR __k$[ebp+18], dl
  00142	8a 50 13	 mov	 dl, BYTE PTR [eax+19]
  00145	84 d2		 test	 dl, dl
  00147	74 2d		 je	 SHORT $LN77@LoadInt_e@3
  00149	80 f2 ea	 xor	 dl, -22			; ffffffeaH
  0014c	88 55 f7	 mov	 BYTE PTR __k$[ebp+19], dl
  0014f	8a 50 14	 mov	 dl, BYTE PTR [eax+20]
  00152	84 d2		 test	 dl, dl
  00154	74 1a		 je	 SHORT $LN76@LoadInt_e@3
  00156	8a 40 15	 mov	 al, BYTE PTR [eax+21]
  00159	80 f2 ed	 xor	 dl, -19			; ffffffedH
  0015c	88 55 f8	 mov	 BYTE PTR __k$[ebp+20], dl
  0015f	84 c0		 test	 al, al
  00161	74 07		 je	 SHORT $LN75@LoadInt_e@3
  00163	34 ec		 xor	 al, -20			; ffffffecH
  00165	88 45 f9	 mov	 BYTE PTR __k$[ebp+21], al
  00168	eb 78		 jmp	 SHORT $LN1@LoadInt_e@3
$LN75@LoadInt_e@3:
  0016a	c6 45 f9 ec	 mov	 BYTE PTR __k$[ebp+21], -20 ; ffffffecH
  0016e	eb 72		 jmp	 SHORT $LN1@LoadInt_e@3
$LN76@LoadInt_e@3:
  00170	c6 45 f8 ed	 mov	 BYTE PTR __k$[ebp+20], -19 ; ffffffedH
  00174	eb 6c		 jmp	 SHORT $LN1@LoadInt_e@3
$LN77@LoadInt_e@3:
  00176	c6 45 f7 ea	 mov	 BYTE PTR __k$[ebp+19], -22 ; ffffffeaH
  0017a	eb 66		 jmp	 SHORT $LN1@LoadInt_e@3
$LN78@LoadInt_e@3:
  0017c	88 4d f6	 mov	 BYTE PTR __k$[ebp+18], cl
  0017f	eb 61		 jmp	 SHORT $LN1@LoadInt_e@3
$LN80@LoadInt_e@3:
  00181	c6 45 f4 ed	 mov	 BYTE PTR __k$[ebp+16], -19 ; ffffffedH
  00185	eb 5b		 jmp	 SHORT $LN1@LoadInt_e@3
$LN81@LoadInt_e@3:
  00187	c6 45 f3 ea	 mov	 BYTE PTR __k$[ebp+15], -22 ; ffffffeaH
  0018b	eb 55		 jmp	 SHORT $LN1@LoadInt_e@3
$LN82@LoadInt_e@3:
  0018d	88 4d f2	 mov	 BYTE PTR __k$[ebp+14], cl
  00190	eb 50		 jmp	 SHORT $LN1@LoadInt_e@3
$LN83@LoadInt_e@3:
  00192	c6 45 f1 ec	 mov	 BYTE PTR __k$[ebp+13], -20 ; ffffffecH
  00196	eb 4a		 jmp	 SHORT $LN1@LoadInt_e@3
$LN84@LoadInt_e@3:
  00198	c6 45 f0 ed	 mov	 BYTE PTR __k$[ebp+12], -19 ; ffffffedH
  0019c	eb 44		 jmp	 SHORT $LN1@LoadInt_e@3
$LN85@LoadInt_e@3:
  0019e	c6 45 ef ea	 mov	 BYTE PTR __k$[ebp+11], -22 ; ffffffeaH
  001a2	eb 3e		 jmp	 SHORT $LN1@LoadInt_e@3
$LN86@LoadInt_e@3:
  001a4	88 4d ee	 mov	 BYTE PTR __k$[ebp+10], cl
  001a7	eb 39		 jmp	 SHORT $LN1@LoadInt_e@3
$LN87@LoadInt_e@3:
  001a9	c6 45 ed ec	 mov	 BYTE PTR __k$[ebp+9], -20 ; ffffffecH
  001ad	eb 33		 jmp	 SHORT $LN1@LoadInt_e@3
$LN88@LoadInt_e@3:
  001af	c6 45 ec ed	 mov	 BYTE PTR __k$[ebp+8], -19 ; ffffffedH
  001b3	eb 2d		 jmp	 SHORT $LN1@LoadInt_e@3
$LN89@LoadInt_e@3:
  001b5	c6 45 eb ea	 mov	 BYTE PTR __k$[ebp+7], -22 ; ffffffeaH
  001b9	eb 27		 jmp	 SHORT $LN1@LoadInt_e@3
$LN90@LoadInt_e@3:
  001bb	88 4d ea	 mov	 BYTE PTR __k$[ebp+6], cl
  001be	eb 22		 jmp	 SHORT $LN1@LoadInt_e@3
$LN91@LoadInt_e@3:
  001c0	c6 45 e9 ec	 mov	 BYTE PTR __k$[ebp+5], -20 ; ffffffecH
  001c4	eb 1c		 jmp	 SHORT $LN1@LoadInt_e@3
$LN92@LoadInt_e@3:
  001c6	c6 45 e8 ed	 mov	 BYTE PTR __k$[ebp+4], -19 ; ffffffedH
  001ca	eb 16		 jmp	 SHORT $LN1@LoadInt_e@3
$LN93@LoadInt_e@3:
  001cc	c6 45 e7 ea	 mov	 BYTE PTR __k$[ebp+3], -22 ; ffffffeaH
  001d0	eb 10		 jmp	 SHORT $LN1@LoadInt_e@3
$LN94@LoadInt_e@3:
  001d2	c6 45 e6 eb	 mov	 BYTE PTR __k$[ebp+2], -21 ; ffffffebH
  001d6	eb 0a		 jmp	 SHORT $LN1@LoadInt_e@3
$LN95@LoadInt_e@3:
  001d8	c6 45 e5 ec	 mov	 BYTE PTR __k$[ebp+1], -20 ; ffffffecH
  001dc	eb 04		 jmp	 SHORT $LN1@LoadInt_e@3
$LN96@LoadInt_e@3:
  001de	c6 45 e4 ed	 mov	 BYTE PTR __k$[ebp], -19	; ffffffedH
$LN1@LoadInt_e@3:
  001e2	6a 04		 push	 4
  001e4	8d 45 e4	 lea	 eax, DWORD PTR __k$[ebp]
  001e7	c6 45 f5 00	 mov	 BYTE PTR __k$[ebp+17], 0
  001eb	5a		 pop	 edx
$LL104@LoadInt_e@3:
  001ec	81 30 ed ec eb
	ea		 xor	 DWORD PTR [eax], -353637139 ; eaebecedH
  001f2	83 c0 04	 add	 eax, 4
  001f5	4a		 dec	 edx
  001f6	75 f4		 jne	 SHORT $LL104@LoadInt_e@3

; 120  : 		return LoadInt(_k, i);

  001f8	ff 75 0c	 push	 DWORD PTR _i$[ebp]
  001fb	80 75 f4 ed	 xor	 BYTE PTR __k$[ebp+16], -19 ; ffffffedH
  001ff	8d 45 e4	 lea	 eax, DWORD PTR __k$[ebp]
  00202	50		 push	 eax
  00203	8b ce		 mov	 ecx, esi
  00205	ff 15 00 00 00
	00		 call	 DWORD PTR __imp_?LoadInt@ioINILoader@@QAEHPBDH@Z

; 121  : 	}

  0020b	8b 4d fc	 mov	 ecx, DWORD PTR __$ArrayPad$[ebp]
  0020e	33 cd		 xor	 ecx, ebp
  00210	5e		 pop	 esi
  00211	e8 00 00 00 00	 call	 @__security_check_cookie@4
  00216	c9		 leave
  00217	c2 08 00	 ret	 8
??$LoadInt_e@$0BC@@ioINILoader@@QAEHAAY0BC@$$CBDH@Z ENDP ; ioINILoader::LoadInt_e<18>
_TEXT	ENDS
PUBLIC	__$ArrayPad$
PUBLIC	??$LoadBool_e@$0BL@@ioINILoader@@QAE_NAAY0BL@$$CBD_N@Z ; ioINILoader::LoadBool_e<27>
; Function compile flags: /Ogsp
;	COMDAT ??$LoadBool_e@$0BL@@ioINILoader@@QAE_NAAY0BL@$$CBD_N@Z
_TEXT	SEGMENT
__k$ = -36						; size = 27
__$ArrayPad$ = -4					; size = 4
_k$ = 8							; size = 4
_b$ = 12						; size = 1
??$LoadBool_e@$0BL@@ioINILoader@@QAE_NAAY0BL@$$CBD_N@Z PROC ; ioINILoader::LoadBool_e<27>, COMDAT
; _this$ = ecx

; 101  : 	{

  00000	55		 push	 ebp
  00001	8b ec		 mov	 ebp, esp
  00003	83 ec 24	 sub	 esp, 36			; 00000024H
  00006	a1 00 00 00 00	 mov	 eax, DWORD PTR ___security_cookie
  0000b	33 c5		 xor	 eax, ebp
  0000d	89 45 fc	 mov	 DWORD PTR __$ArrayPad$[ebp], eax
  00010	8b 45 08	 mov	 eax, DWORD PTR _k$[ebp]

; 102  : 		_ENCSTR(k, _k);

  00013	8a 10		 mov	 dl, BYTE PTR [eax]
  00015	53		 push	 ebx
  00016	56		 push	 esi
  00017	8b f1		 mov	 esi, ecx
  00019	84 d2		 test	 dl, dl
  0001b	0f 84 91 02 00
	00		 je	 $LN96@LoadBool_e@4
  00021	80 f2 ed	 xor	 dl, -19			; ffffffedH
  00024	88 55 dc	 mov	 BYTE PTR __k$[ebp], dl
  00027	8a 50 01	 mov	 dl, BYTE PTR [eax+1]
  0002a	84 d2		 test	 dl, dl
  0002c	0f 84 7a 02 00
	00		 je	 $LN95@LoadBool_e@4
  00032	b1 ec		 mov	 cl, -20			; ffffffecH
  00034	32 d1		 xor	 dl, cl
  00036	88 55 dd	 mov	 BYTE PTR __k$[ebp+1], dl
  00039	8a 50 02	 mov	 dl, BYTE PTR [eax+2]
  0003c	84 d2		 test	 dl, dl
  0003e	0f 84 62 02 00
	00		 je	 $LN94@LoadBool_e@4
  00044	80 f2 eb	 xor	 dl, -21			; ffffffebH
  00047	88 55 de	 mov	 BYTE PTR __k$[ebp+2], dl
  0004a	8a 50 03	 mov	 dl, BYTE PTR [eax+3]
  0004d	84 d2		 test	 dl, dl
  0004f	0f 84 4b 02 00
	00		 je	 $LN93@LoadBool_e@4
  00055	b3 ea		 mov	 bl, -22			; ffffffeaH
  00057	32 d3		 xor	 dl, bl
  00059	88 55 df	 mov	 BYTE PTR __k$[ebp+3], dl
  0005c	8a 50 04	 mov	 dl, BYTE PTR [eax+4]
  0005f	84 d2		 test	 dl, dl
  00061	0f 84 33 02 00
	00		 je	 $LN92@LoadBool_e@4
  00067	80 f2 ed	 xor	 dl, -19			; ffffffedH
  0006a	88 55 e0	 mov	 BYTE PTR __k$[ebp+4], dl
  0006d	8a 50 05	 mov	 dl, BYTE PTR [eax+5]
  00070	84 d2		 test	 dl, dl
  00072	0f 84 1d 02 00
	00		 je	 $LN91@LoadBool_e@4
  00078	32 d1		 xor	 dl, cl
  0007a	88 55 e1	 mov	 BYTE PTR __k$[ebp+5], dl
  0007d	8a 50 06	 mov	 dl, BYTE PTR [eax+6]
  00080	84 d2		 test	 dl, dl
  00082	0f 84 07 02 00
	00		 je	 $LN90@LoadBool_e@4
  00088	80 f2 eb	 xor	 dl, -21			; ffffffebH
  0008b	88 55 e2	 mov	 BYTE PTR __k$[ebp+6], dl
  0008e	8a 50 07	 mov	 dl, BYTE PTR [eax+7]
  00091	84 d2		 test	 dl, dl
  00093	0f 84 f1 01 00
	00		 je	 $LN89@LoadBool_e@4
  00099	32 d3		 xor	 dl, bl
  0009b	88 55 e3	 mov	 BYTE PTR __k$[ebp+7], dl
  0009e	8a 50 08	 mov	 dl, BYTE PTR [eax+8]
  000a1	84 d2		 test	 dl, dl
  000a3	0f 84 db 01 00
	00		 je	 $LN88@LoadBool_e@4
  000a9	80 f2 ed	 xor	 dl, -19			; ffffffedH
  000ac	88 55 e4	 mov	 BYTE PTR __k$[ebp+8], dl
  000af	8a 50 09	 mov	 dl, BYTE PTR [eax+9]
  000b2	84 d2		 test	 dl, dl
  000b4	0f 84 c5 01 00
	00		 je	 $LN87@LoadBool_e@4
  000ba	32 d1		 xor	 dl, cl
  000bc	88 55 e5	 mov	 BYTE PTR __k$[ebp+9], dl
  000bf	8a 50 0a	 mov	 dl, BYTE PTR [eax+10]
  000c2	84 d2		 test	 dl, dl
  000c4	0f 84 af 01 00
	00		 je	 $LN86@LoadBool_e@4
  000ca	80 f2 eb	 xor	 dl, -21			; ffffffebH
  000cd	88 55 e6	 mov	 BYTE PTR __k$[ebp+10], dl
  000d0	8a 50 0b	 mov	 dl, BYTE PTR [eax+11]
  000d3	84 d2		 test	 dl, dl
  000d5	0f 84 99 01 00
	00		 je	 $LN85@LoadBool_e@4
  000db	32 d3		 xor	 dl, bl
  000dd	88 55 e7	 mov	 BYTE PTR __k$[ebp+11], dl
  000e0	8a 50 0c	 mov	 dl, BYTE PTR [eax+12]
  000e3	84 d2		 test	 dl, dl
  000e5	0f 84 83 01 00
	00		 je	 $LN84@LoadBool_e@4
  000eb	80 f2 ed	 xor	 dl, -19			; ffffffedH
  000ee	88 55 e8	 mov	 BYTE PTR __k$[ebp+12], dl
  000f1	8a 50 0d	 mov	 dl, BYTE PTR [eax+13]
  000f4	84 d2		 test	 dl, dl
  000f6	0f 84 6d 01 00
	00		 je	 $LN83@LoadBool_e@4
  000fc	32 d1		 xor	 dl, cl
  000fe	88 55 e9	 mov	 BYTE PTR __k$[ebp+13], dl
  00101	8a 50 0e	 mov	 dl, BYTE PTR [eax+14]
  00104	84 d2		 test	 dl, dl
  00106	0f 84 57 01 00
	00		 je	 $LN82@LoadBool_e@4
  0010c	80 f2 eb	 xor	 dl, -21			; ffffffebH
  0010f	88 55 ea	 mov	 BYTE PTR __k$[ebp+14], dl
  00112	8a 50 0f	 mov	 dl, BYTE PTR [eax+15]
  00115	84 d2		 test	 dl, dl
  00117	0f 84 41 01 00
	00		 je	 $LN81@LoadBool_e@4
  0011d	32 d3		 xor	 dl, bl
  0011f	88 55 eb	 mov	 BYTE PTR __k$[ebp+15], dl
  00122	8a 50 10	 mov	 dl, BYTE PTR [eax+16]
  00125	84 d2		 test	 dl, dl
  00127	0f 84 2b 01 00
	00		 je	 $LN80@LoadBool_e@4
  0012d	80 f2 ed	 xor	 dl, -19			; ffffffedH
  00130	88 55 ec	 mov	 BYTE PTR __k$[ebp+16], dl
  00133	8a 50 11	 mov	 dl, BYTE PTR [eax+17]
  00136	84 d2		 test	 dl, dl
  00138	0f 84 15 01 00
	00		 je	 $LN79@LoadBool_e@4
  0013e	32 d1		 xor	 dl, cl
  00140	88 55 ed	 mov	 BYTE PTR __k$[ebp+17], dl
  00143	8a 50 12	 mov	 dl, BYTE PTR [eax+18]
  00146	84 d2		 test	 dl, dl
  00148	0f 84 ff 00 00
	00		 je	 $LN78@LoadBool_e@4
  0014e	80 f2 eb	 xor	 dl, -21			; ffffffebH
  00151	88 55 ee	 mov	 BYTE PTR __k$[ebp+18], dl
  00154	8a 50 13	 mov	 dl, BYTE PTR [eax+19]
  00157	84 d2		 test	 dl, dl
  00159	0f 84 e9 00 00
	00		 je	 $LN77@LoadBool_e@4
  0015f	32 d3		 xor	 dl, bl
  00161	88 55 ef	 mov	 BYTE PTR __k$[ebp+19], dl
  00164	8a 50 14	 mov	 dl, BYTE PTR [eax+20]
  00167	84 d2		 test	 dl, dl
  00169	0f 84 d3 00 00
	00		 je	 $LN76@LoadBool_e@4
  0016f	80 f2 ed	 xor	 dl, -19			; ffffffedH
  00172	88 55 f0	 mov	 BYTE PTR __k$[ebp+20], dl
  00175	8a 50 15	 mov	 dl, BYTE PTR [eax+21]
  00178	84 d2		 test	 dl, dl
  0017a	0f 84 bd 00 00
	00		 je	 $LN75@LoadBool_e@4
  00180	32 d1		 xor	 dl, cl
  00182	88 55 f1	 mov	 BYTE PTR __k$[ebp+21], dl
  00185	8a 50 16	 mov	 dl, BYTE PTR [eax+22]
  00188	84 d2		 test	 dl, dl
  0018a	0f 84 a7 00 00
	00		 je	 $LN74@LoadBool_e@4
  00190	80 f2 eb	 xor	 dl, -21			; ffffffebH
  00193	88 55 f2	 mov	 BYTE PTR __k$[ebp+22], dl
  00196	8a 50 17	 mov	 dl, BYTE PTR [eax+23]
  00199	84 d2		 test	 dl, dl
  0019b	0f 84 91 00 00
	00		 je	 $LN73@LoadBool_e@4
  001a1	32 d3		 xor	 dl, bl
  001a3	88 55 f3	 mov	 BYTE PTR __k$[ebp+23], dl
  001a6	8a 50 18	 mov	 dl, BYTE PTR [eax+24]
  001a9	84 d2		 test	 dl, dl
  001ab	74 7c		 je	 SHORT $LN72@LoadBool_e@4
  001ad	80 f2 ed	 xor	 dl, -19			; ffffffedH
  001b0	88 55 f4	 mov	 BYTE PTR __k$[ebp+24], dl
  001b3	8a 50 19	 mov	 dl, BYTE PTR [eax+25]
  001b6	84 d2		 test	 dl, dl
  001b8	74 67		 je	 SHORT $LN71@LoadBool_e@4
  001ba	32 d1		 xor	 dl, cl
  001bc	80 78 1a 00	 cmp	 BYTE PTR [eax+26], 0
  001c0	88 55 f5	 mov	 BYTE PTR __k$[ebp+25], dl
  001c3	0f 84 ed 00 00
	00		 je	 $LN1@LoadBool_e@4
  001c9	8a 50 1b	 mov	 dl, BYTE PTR [eax+27]
  001cc	84 d2		 test	 dl, dl
  001ce	74 49		 je	 SHORT $LN69@LoadBool_e@4
  001d0	32 d3		 xor	 dl, bl
  001d2	88 55 f7	 mov	 BYTE PTR __k$[ebp+27], dl
  001d5	8a 50 1c	 mov	 dl, BYTE PTR [eax+28]
  001d8	84 d2		 test	 dl, dl
  001da	74 34		 je	 SHORT $LN68@LoadBool_e@4
  001dc	80 f2 ed	 xor	 dl, -19			; ffffffedH
  001df	88 55 f8	 mov	 BYTE PTR __k$[ebp+28], dl
  001e2	8a 50 1d	 mov	 dl, BYTE PTR [eax+29]
  001e5	84 d2		 test	 dl, dl
  001e7	74 1f		 je	 SHORT $LN67@LoadBool_e@4
  001e9	8a 40 1e	 mov	 al, BYTE PTR [eax+30]
  001ec	32 d1		 xor	 dl, cl
  001ee	88 55 f9	 mov	 BYTE PTR __k$[ebp+29], dl
  001f1	84 c0		 test	 al, al
  001f3	74 0a		 je	 SHORT $LN66@LoadBool_e@4
  001f5	34 eb		 xor	 al, -21			; ffffffebH
  001f7	88 45 fa	 mov	 BYTE PTR __k$[ebp+30], al
  001fa	e9 b7 00 00 00	 jmp	 $LN1@LoadBool_e@4
$LN66@LoadBool_e@4:
  001ff	c6 45 fa eb	 mov	 BYTE PTR __k$[ebp+30], -21 ; ffffffebH
  00203	e9 ae 00 00 00	 jmp	 $LN1@LoadBool_e@4
$LN67@LoadBool_e@4:
  00208	88 4d f9	 mov	 BYTE PTR __k$[ebp+29], cl
  0020b	e9 a6 00 00 00	 jmp	 $LN1@LoadBool_e@4
$LN68@LoadBool_e@4:
  00210	c6 45 f8 ed	 mov	 BYTE PTR __k$[ebp+28], -19 ; ffffffedH
  00214	e9 9d 00 00 00	 jmp	 $LN1@LoadBool_e@4
$LN69@LoadBool_e@4:
  00219	88 5d f7	 mov	 BYTE PTR __k$[ebp+27], bl
  0021c	e9 95 00 00 00	 jmp	 $LN1@LoadBool_e@4
$LN71@LoadBool_e@4:
  00221	88 4d f5	 mov	 BYTE PTR __k$[ebp+25], cl
  00224	e9 8d 00 00 00	 jmp	 $LN1@LoadBool_e@4
$LN72@LoadBool_e@4:
  00229	c6 45 f4 ed	 mov	 BYTE PTR __k$[ebp+24], -19 ; ffffffedH
  0022d	e9 84 00 00 00	 jmp	 $LN1@LoadBool_e@4
$LN73@LoadBool_e@4:
  00232	88 5d f3	 mov	 BYTE PTR __k$[ebp+23], bl
  00235	eb 7f		 jmp	 SHORT $LN1@LoadBool_e@4
$LN74@LoadBool_e@4:
  00237	c6 45 f2 eb	 mov	 BYTE PTR __k$[ebp+22], -21 ; ffffffebH
  0023b	eb 79		 jmp	 SHORT $LN1@LoadBool_e@4
$LN75@LoadBool_e@4:
  0023d	88 4d f1	 mov	 BYTE PTR __k$[ebp+21], cl
  00240	eb 74		 jmp	 SHORT $LN1@LoadBool_e@4
$LN76@LoadBool_e@4:
  00242	c6 45 f0 ed	 mov	 BYTE PTR __k$[ebp+20], -19 ; ffffffedH
  00246	eb 6e		 jmp	 SHORT $LN1@LoadBool_e@4
$LN77@LoadBool_e@4:
  00248	88 5d ef	 mov	 BYTE PTR __k$[ebp+19], bl
  0024b	eb 69		 jmp	 SHORT $LN1@LoadBool_e@4
$LN78@LoadBool_e@4:
  0024d	c6 45 ee eb	 mov	 BYTE PTR __k$[ebp+18], -21 ; ffffffebH
  00251	eb 63		 jmp	 SHORT $LN1@LoadBool_e@4
$LN79@LoadBool_e@4:
  00253	88 4d ed	 mov	 BYTE PTR __k$[ebp+17], cl
  00256	eb 5e		 jmp	 SHORT $LN1@LoadBool_e@4
$LN80@LoadBool_e@4:
  00258	c6 45 ec ed	 mov	 BYTE PTR __k$[ebp+16], -19 ; ffffffedH
  0025c	eb 58		 jmp	 SHORT $LN1@LoadBool_e@4
$LN81@LoadBool_e@4:
  0025e	88 5d eb	 mov	 BYTE PTR __k$[ebp+15], bl
  00261	eb 53		 jmp	 SHORT $LN1@LoadBool_e@4
$LN82@LoadBool_e@4:
  00263	c6 45 ea eb	 mov	 BYTE PTR __k$[ebp+14], -21 ; ffffffebH
  00267	eb 4d		 jmp	 SHORT $LN1@LoadBool_e@4
$LN83@LoadBool_e@4:
  00269	88 4d e9	 mov	 BYTE PTR __k$[ebp+13], cl
  0026c	eb 48		 jmp	 SHORT $LN1@LoadBool_e@4
$LN84@LoadBool_e@4:
  0026e	c6 45 e8 ed	 mov	 BYTE PTR __k$[ebp+12], -19 ; ffffffedH
  00272	eb 42		 jmp	 SHORT $LN1@LoadBool_e@4
$LN85@LoadBool_e@4:
  00274	88 5d e7	 mov	 BYTE PTR __k$[ebp+11], bl
  00277	eb 3d		 jmp	 SHORT $LN1@LoadBool_e@4
$LN86@LoadBool_e@4:
  00279	c6 45 e6 eb	 mov	 BYTE PTR __k$[ebp+10], -21 ; ffffffebH
  0027d	eb 37		 jmp	 SHORT $LN1@LoadBool_e@4
$LN87@LoadBool_e@4:
  0027f	88 4d e5	 mov	 BYTE PTR __k$[ebp+9], cl
  00282	eb 32		 jmp	 SHORT $LN1@LoadBool_e@4
$LN88@LoadBool_e@4:
  00284	c6 45 e4 ed	 mov	 BYTE PTR __k$[ebp+8], -19 ; ffffffedH
  00288	eb 2c		 jmp	 SHORT $LN1@LoadBool_e@4
$LN89@LoadBool_e@4:
  0028a	88 5d e3	 mov	 BYTE PTR __k$[ebp+7], bl
  0028d	eb 27		 jmp	 SHORT $LN1@LoadBool_e@4
$LN90@LoadBool_e@4:
  0028f	c6 45 e2 eb	 mov	 BYTE PTR __k$[ebp+6], -21 ; ffffffebH
  00293	eb 21		 jmp	 SHORT $LN1@LoadBool_e@4
$LN91@LoadBool_e@4:
  00295	88 4d e1	 mov	 BYTE PTR __k$[ebp+5], cl
  00298	eb 1c		 jmp	 SHORT $LN1@LoadBool_e@4
$LN92@LoadBool_e@4:
  0029a	c6 45 e0 ed	 mov	 BYTE PTR __k$[ebp+4], -19 ; ffffffedH
  0029e	eb 16		 jmp	 SHORT $LN1@LoadBool_e@4
$LN93@LoadBool_e@4:
  002a0	c6 45 df ea	 mov	 BYTE PTR __k$[ebp+3], -22 ; ffffffeaH
  002a4	eb 10		 jmp	 SHORT $LN1@LoadBool_e@4
$LN94@LoadBool_e@4:
  002a6	c6 45 de eb	 mov	 BYTE PTR __k$[ebp+2], -21 ; ffffffebH
  002aa	eb 0a		 jmp	 SHORT $LN1@LoadBool_e@4
$LN95@LoadBool_e@4:
  002ac	c6 45 dd ec	 mov	 BYTE PTR __k$[ebp+1], -20 ; ffffffecH
  002b0	eb 04		 jmp	 SHORT $LN1@LoadBool_e@4
$LN96@LoadBool_e@4:
  002b2	c6 45 dc ed	 mov	 BYTE PTR __k$[ebp], -19	; ffffffedH
$LN1@LoadBool_e@4:
  002b6	6a 06		 push	 6
  002b8	8d 45 dc	 lea	 eax, DWORD PTR __k$[ebp]
  002bb	c6 45 f6 00	 mov	 BYTE PTR __k$[ebp+26], 0
  002bf	5a		 pop	 edx
$LL104@LoadBool_e@4:
  002c0	81 30 ed ec eb
	ea		 xor	 DWORD PTR [eax], -353637139 ; eaebecedH
  002c6	83 c0 04	 add	 eax, 4
  002c9	4a		 dec	 edx
  002ca	75 f4		 jne	 SHORT $LL104@LoadBool_e@4
  002cc	6a 18		 push	 24			; 00000018H
  002ce	58		 pop	 eax
$LL101@LoadBool_e@4:
  002cf	8b c8		 mov	 ecx, eax
  002d1	81 e1 03 00 00
	80		 and	 ecx, -2147483645	; 80000003H
  002d7	79 05		 jns	 SHORT $LN111@LoadBool_e@4
  002d9	49		 dec	 ecx
  002da	83 c9 fc	 or	 ecx, -4			; fffffffcH
  002dd	41		 inc	 ecx
$LN111@LoadBool_e@4:
  002de	b2 ed		 mov	 dl, -19			; ffffffedH
  002e0	2a d1		 sub	 dl, cl
  002e2	30 54 05 dc	 xor	 BYTE PTR __k$[ebp+eax], dl
  002e6	40		 inc	 eax
  002e7	83 f8 1a	 cmp	 eax, 26			; 0000001aH
  002ea	7c e3		 jl	 SHORT $LL101@LoadBool_e@4

; 103  : 		return LoadBool(_k, b);

  002ec	ff 75 0c	 push	 DWORD PTR _b$[ebp]
  002ef	8d 45 dc	 lea	 eax, DWORD PTR __k$[ebp]
  002f2	50		 push	 eax
  002f3	8b ce		 mov	 ecx, esi
  002f5	ff 15 00 00 00
	00		 call	 DWORD PTR __imp_?LoadBool@ioINILoader@@QAE_NPBD_N@Z

; 104  : 	}

  002fb	8b 4d fc	 mov	 ecx, DWORD PTR __$ArrayPad$[ebp]
  002fe	5e		 pop	 esi
  002ff	33 cd		 xor	 ecx, ebp
  00301	5b		 pop	 ebx
  00302	e8 00 00 00 00	 call	 @__security_check_cookie@4
  00307	c9		 leave
  00308	c2 08 00	 ret	 8
??$LoadBool_e@$0BL@@ioINILoader@@QAE_NAAY0BL@$$CBD_N@Z ENDP ; ioINILoader::LoadBool_e<27>
_TEXT	ENDS
PUBLIC	??$_Cons_val@V?$allocator@VioHashString@@@std@@VioHashString@@V3@@std@@YAXAAV?$allocator@VioHashString@@@0@PAVioHashString@@$$QAV2@@Z ; std::_Cons_val<std::allocator<ioHashString>,ioHashString,ioHashString>
; Function compile flags: /Ogsp
; File c:\program files (x86)\microsoft visual studio 10.0\vc\include\xmemory
;	COMDAT ??$_Cons_val@V?$allocator@VioHashString@@@std@@VioHashString@@V3@@std@@YAXAAV?$allocator@VioHashString@@@0@PAVioHashString@@$$QAV2@@Z
_TEXT	SEGMENT
__Alval$ = 8						; size = 4
__Pdest$ = 12						; size = 4
__Src$ = 16						; size = 4
??$_Cons_val@V?$allocator@VioHashString@@@std@@VioHashString@@V3@@std@@YAXAAV?$allocator@VioHashString@@@0@PAVioHashString@@$$QAV2@@Z PROC ; std::_Cons_val<std::allocator<ioHashString>,ioHashString,ioHashString>, COMDAT

; 279  : 	{	// construct using allocator

  00000	55		 push	 ebp
  00001	8b ec		 mov	 ebp, esp

; 280  : 	_Alval.construct(_Pdest, _STD forward<_Ty2>(_Src));

  00003	ff 75 10	 push	 DWORD PTR __Src$[ebp]
  00006	8b 4d 08	 mov	 ecx, DWORD PTR __Alval$[ebp]
  00009	ff 75 0c	 push	 DWORD PTR __Pdest$[ebp]
  0000c	e8 00 00 00 00	 call	 ?construct@?$allocator@VioHashString@@@std@@QAEXPAVioHashString@@$$QAV3@@Z ; std::allocator<ioHashString>::construct

; 281  : 	}

  00011	5d		 pop	 ebp
  00012	c3		 ret	 0
??$_Cons_val@V?$allocator@VioHashString@@@std@@VioHashString@@V3@@std@@YAXAAV?$allocator@VioHashString@@@0@PAVioHashString@@$$QAV2@@Z ENDP ; std::_Cons_val<std::allocator<ioHashString>,ioHashString,ioHashString>
_TEXT	ENDS
PUBLIC	??$_Copy_impl@PAVioHashString@@PAV1@@std@@YAPAVioHashString@@PAV1@00@Z ; std::_Copy_impl<ioHashString *,ioHashString *>
; Function compile flags: /Ogsp
; File c:\program files (x86)\microsoft visual studio 10.0\vc\include\xutility
;	COMDAT ??$_Copy_impl@PAVioHashString@@PAV1@@std@@YAPAVioHashString@@PAV1@00@Z
_TEXT	SEGMENT
__Cat$528201 = -4					; size = 1
__First$ = 8						; size = 4
__Last$ = 12						; size = 4
__Dest$ = 16						; size = 4
??$_Copy_impl@PAVioHashString@@PAV1@@std@@YAPAVioHashString@@PAV1@00@Z PROC ; std::_Copy_impl<ioHashString *,ioHashString *>, COMDAT

; 2163 : 	{	// copy [_First, _Last) to [_Dest, ...)

  00000	55		 push	 ebp
  00001	8b ec		 mov	 ebp, esp
  00003	51		 push	 ecx

; 2164 : 	return (_Copy_impl(_First, _Last,
; 2165 : 		_Dest, _Ptr_cat(_First, _Dest)));

  00004	ff 75 fc	 push	 DWORD PTR __Cat$528201[ebp]
  00007	ff 75 10	 push	 DWORD PTR __Dest$[ebp]
  0000a	ff 75 0c	 push	 DWORD PTR __Last$[ebp]
  0000d	ff 75 08	 push	 DWORD PTR __First$[ebp]
  00010	e8 00 00 00 00	 call	 ??$_Copy_impl@PAVioHashString@@PAV1@@std@@YAPAVioHashString@@PAV1@00U_Nonscalar_ptr_iterator_tag@0@@Z ; std::_Copy_impl<ioHashString *,ioHashString *>
  00015	83 c4 10	 add	 esp, 16			; 00000010H

; 2166 : 	}

  00018	c9		 leave
  00019	c3		 ret	 0
??$_Copy_impl@PAVioHashString@@PAV1@@std@@YAPAVioHashString@@PAV1@00@Z ENDP ; std::_Copy_impl<ioHashString *,ioHashString *>
_TEXT	ENDS
PUBLIC	??$construct@AAVioHashString@@@?$allocator@VioHashString@@@std@@QAEXPAVioHashString@@AAV2@@Z ; std::allocator<ioHashString>::construct<ioHashString &>
;	COMDAT xdata$x
; File c:\program files (x86)\microsoft visual studio 10.0\vc\include\utility
xdata$x	SEGMENT
__unwindtable$??$construct@AAVioHashString@@@?$allocator@VioHashString@@@std@@QAEXPAVioHashString@@AAV2@@Z DD 0ffffffffH
	DD	FLAT:__unwindfunclet$??$construct@AAVioHashString@@@?$allocator@VioHashString@@@std@@QAEXPAVioHashString@@AAV2@@Z$0
__ehfuncinfo$??$construct@AAVioHashString@@@?$allocator@VioHashString@@@std@@QAEXPAVioHashString@@AAV2@@Z DD 019930522H
	DD	01H
	DD	FLAT:__unwindtable$??$construct@AAVioHashString@@@?$allocator@VioHashString@@@std@@QAEXPAVioHashString@@AAV2@@Z
	DD	2 DUP(00H)
	DD	2 DUP(00H)
	DD	00H
	DD	01H
; Function compile flags: /Ogsp
; File c:\program files (x86)\microsoft visual studio 10.0\vc\include\xmemory
xdata$x	ENDS
;	COMDAT ??$construct@AAVioHashString@@@?$allocator@VioHashString@@@std@@QAEXPAVioHashString@@AAV2@@Z
_TEXT	SEGMENT
$T528206 = -16						; size = 4
__$EHRec$ = -12						; size = 12
__Ptr$ = 8						; size = 4
__Val$ = 12						; size = 4
??$construct@AAVioHashString@@@?$allocator@VioHashString@@@std@@QAEXPAVioHashString@@AAV2@@Z PROC ; std::allocator<ioHashString>::construct<ioHashString &>, COMDAT
; _this$ = ecx

; 206  : 		void construct(pointer _Ptr, _Other&& _Val)

  00000	6a 04		 push	 4
  00002	b8 00 00 00 00	 mov	 eax, __ehhandler$??$construct@AAVioHashString@@@?$allocator@VioHashString@@@std@@QAEXPAVioHashString@@AAV2@@Z
  00007	e8 00 00 00 00	 call	 __EH_prolog3

; 207  : 		{	// construct object at _Ptr with value _Val
; 208  : 		::new ((void _FARQ *)_Ptr) _Ty(_STD forward<_Other>(_Val));

  0000c	8b 4d 08	 mov	 ecx, DWORD PTR __Ptr$[ebp]
  0000f	89 4d f0	 mov	 DWORD PTR $T528206[ebp], ecx
  00012	83 65 fc 00	 and	 DWORD PTR __$EHRec$[ebp+8], 0
  00016	85 c9		 test	 ecx, ecx
  00018	74 09		 je	 SHORT $LN3@construct@2
  0001a	ff 75 0c	 push	 DWORD PTR __Val$[ebp]
  0001d	ff 15 00 00 00
	00		 call	 DWORD PTR __imp_??0ioHashString@@QAE@ABV0@@Z
$LN3@construct@2:

; 209  : 		}

  00023	e8 00 00 00 00	 call	 __EH_epilog3
  00028	c2 08 00	 ret	 8
_TEXT	ENDS
;	COMDAT text$x
text$x	SEGMENT
__unwindfunclet$??$construct@AAVioHashString@@@?$allocator@VioHashString@@@std@@QAEXPAVioHashString@@AAV2@@Z$0:
  00000	ff 75 08	 push	 DWORD PTR __Ptr$[ebp]
  00003	ff 75 f0	 push	 DWORD PTR $T528206[ebp]
  00006	e8 00 00 00 00	 call	 ??3@YAXPAX0@Z		; operator delete
  0000b	59		 pop	 ecx
  0000c	59		 pop	 ecx
  0000d	c3		 ret	 0
__ehhandler$??$construct@AAVioHashString@@@?$allocator@VioHashString@@@std@@QAEXPAVioHashString@@AAV2@@Z:
  0000e	8b 54 24 08	 mov	 edx, DWORD PTR [esp+8]
  00012	8d 42 0c	 lea	 eax, DWORD PTR [edx+12]
  00015	8b 4a ec	 mov	 ecx, DWORD PTR [edx-20]
  00018	33 c8		 xor	 ecx, eax
  0001a	e8 00 00 00 00	 call	 @__security_check_cookie@4
  0001f	b8 00 00 00 00	 mov	 eax, OFFSET __ehfuncinfo$??$construct@AAVioHashString@@@?$allocator@VioHashString@@@std@@QAEXPAVioHashString@@AAV2@@Z
  00024	e9 00 00 00 00	 jmp	 ___CxxFrameHandler3
text$x	ENDS
??$construct@AAVioHashString@@@?$allocator@VioHashString@@@std@@QAEXPAVioHashString@@AAV2@@Z ENDP ; std::allocator<ioHashString>::construct<ioHashString &>
PUBLIC	??B?$CEncrypt@M@@QAEMXZ				; CEncrypt<float>::operator float
; Function compile flags: /Ogsp
; File d:\lost saga for developer\youtube\tutorial\source\src\lsclient\encryptvalue.h
;	COMDAT ??B?$CEncrypt@M@@QAEMXZ
_TEXT	SEGMENT
_value$ = -4						; size = 4
??B?$CEncrypt@M@@QAEMXZ PROC				; CEncrypt<float>::operator float, COMDAT
; _this$ = ecx

; 134  : 	{

  00000	55		 push	 ebp
  00001	8b ec		 mov	 ebp, esp
  00003	51		 push	 ecx

; 135  : 		type value;
; 136  : 		DecryptValueToPool(&value);

  00004	8d 45 fc	 lea	 eax, DWORD PTR _value$[ebp]
  00007	50		 push	 eax
  00008	e8 00 00 00 00	 call	 ?DecryptValueToPool@?$CEncrypt@M@@QAEXPAM@Z ; CEncrypt<float>::DecryptValueToPool

; 137  : 
; 138  : #ifdef _NOTUSE
; 139  : 		Debug();
; 140  : #endif
; 141  : 		return value;

  0000d	d9 45 fc	 fld	 DWORD PTR _value$[ebp]

; 142  : 	}

  00010	c9		 leave
  00011	c3		 ret	 0
??B?$CEncrypt@M@@QAEMXZ ENDP				; CEncrypt<float>::operator float
_TEXT	ENDS
PUBLIC	??0?$CEncrypt@K@@QAE@XZ				; CEncrypt<unsigned long>::CEncrypt<unsigned long>
EXTRN	??0ccddaabb@@QAE@XZ:PROC			; ccddaabb::ccddaabb
;	COMDAT xdata$x
xdata$x	SEGMENT
__unwindtable$??0?$CEncrypt@K@@QAE@XZ DD 0ffffffffH
	DD	FLAT:__unwindfunclet$??0?$CEncrypt@K@@QAE@XZ$0
__ehfuncinfo$??0?$CEncrypt@K@@QAE@XZ DD 019930522H
	DD	01H
	DD	FLAT:__unwindtable$??0?$CEncrypt@K@@QAE@XZ
	DD	2 DUP(00H)
	DD	2 DUP(00H)
	DD	00H
	DD	01H
; Function compile flags: /Ogsp
xdata$x	ENDS
;	COMDAT ??0?$CEncrypt@K@@QAE@XZ
_TEXT	SEGMENT
_this$ = -16						; size = 4
__$EHRec$ = -12						; size = 12
??0?$CEncrypt@K@@QAE@XZ PROC				; CEncrypt<unsigned long>::CEncrypt<unsigned long>, COMDAT
; _this$ = ecx

; 109  : 	CEncrypt()

  00000	6a 04		 push	 4
  00002	b8 00 00 00 00	 mov	 eax, __ehhandler$??0?$CEncrypt@K@@QAE@XZ
  00007	e8 00 00 00 00	 call	 __EH_prolog3
  0000c	8b f1		 mov	 esi, ecx
  0000e	89 75 f0	 mov	 DWORD PTR _this$[ebp], esi
  00011	8d 4e 0c	 lea	 ecx, DWORD PTR [esi+12]
  00014	c7 06 00 00 00
	00		 mov	 DWORD PTR [esi], OFFSET ??_7?$CEncrypt@K@@6B@
  0001a	e8 00 00 00 00	 call	 ??0ccddaabb@@QAE@XZ	; ccddaabb::ccddaabb
  0001f	83 65 fc 00	 and	 DWORD PTR __$EHRec$[ebp+8], 0

; 110  : 	{
; 111  : 		Init();

  00023	8b ce		 mov	 ecx, esi
  00025	e8 00 00 00 00	 call	 ?Init@?$CEncrypt@K@@AAEXXZ ; CEncrypt<unsigned long>::Init

; 112  : 	}

  0002a	8b c6		 mov	 eax, esi
  0002c	e8 00 00 00 00	 call	 __EH_epilog3
  00031	c3		 ret	 0
_TEXT	ENDS
;	COMDAT text$x
text$x	SEGMENT
__unwindfunclet$??0?$CEncrypt@K@@QAE@XZ$0:
  00000	8b 4d f0	 mov	 ecx, DWORD PTR _this$[ebp]
  00003	83 c1 0c	 add	 ecx, 12			; 0000000cH
  00006	e9 00 00 00 00	 jmp	 ??1ccddaabb@@UAE@XZ	; ccddaabb::~ccddaabb
__ehhandler$??0?$CEncrypt@K@@QAE@XZ:
  0000b	8b 54 24 08	 mov	 edx, DWORD PTR [esp+8]
  0000f	8d 42 0c	 lea	 eax, DWORD PTR [edx+12]
  00012	8b 4a ec	 mov	 ecx, DWORD PTR [edx-20]
  00015	33 c8		 xor	 ecx, eax
  00017	e8 00 00 00 00	 call	 @__security_check_cookie@4
  0001c	b8 00 00 00 00	 mov	 eax, OFFSET __ehfuncinfo$??0?$CEncrypt@K@@QAE@XZ
  00021	e9 00 00 00 00	 jmp	 ___CxxFrameHandler3
text$x	ENDS
??0?$CEncrypt@K@@QAE@XZ ENDP				; CEncrypt<unsigned long>::CEncrypt<unsigned long>
PUBLIC	??B?$CEncrypt@K@@QAEKXZ				; CEncrypt<unsigned long>::operator unsigned long
; Function compile flags: /Ogsp
;	COMDAT ??B?$CEncrypt@K@@QAEKXZ
_TEXT	SEGMENT
_value$ = -4						; size = 4
??B?$CEncrypt@K@@QAEKXZ PROC				; CEncrypt<unsigned long>::operator unsigned long, COMDAT
; _this$ = ecx

; 134  : 	{

  00000	55		 push	 ebp
  00001	8b ec		 mov	 ebp, esp
  00003	51		 push	 ecx

; 135  : 		type value;
; 136  : 		DecryptValueToPool(&value);

  00004	8d 45 fc	 lea	 eax, DWORD PTR _value$[ebp]
  00007	50		 push	 eax
  00008	e8 00 00 00 00	 call	 ?DecryptValueToPool@?$CEncrypt@K@@QAEXPAK@Z ; CEncrypt<unsigned long>::DecryptValueToPool

; 137  : 
; 138  : #ifdef _NOTUSE
; 139  : 		Debug();
; 140  : #endif
; 141  : 		return value;

  0000d	8b 45 fc	 mov	 eax, DWORD PTR _value$[ebp]

; 142  : 	}

  00010	c9		 leave
  00011	c3		 ret	 0
??B?$CEncrypt@K@@QAEKXZ ENDP				; CEncrypt<unsigned long>::operator unsigned long
_TEXT	ENDS
PUBLIC	??B?$CEncrypt@K@@QBEKXZ				; CEncrypt<unsigned long>::operator unsigned long
; Function compile flags: /Ogsp
;	COMDAT ??B?$CEncrypt@K@@QBEKXZ
_TEXT	SEGMENT
_value$ = -4						; size = 4
??B?$CEncrypt@K@@QBEKXZ PROC				; CEncrypt<unsigned long>::operator unsigned long, COMDAT
; _this$ = ecx

; 145  : 	{

  00000	55		 push	 ebp
  00001	8b ec		 mov	 ebp, esp
  00003	51		 push	 ecx

; 146  : 		//UJ 130829, const도 똑같이 하면 된다 --start
; 147  : 		type value;
; 148  : 		CEncrypt<type>* pThis = const_cast<CEncrypt<type>*>(this);
; 149  : 		pThis->DecryptValueToPool(&value);

  00004	8d 45 fc	 lea	 eax, DWORD PTR _value$[ebp]
  00007	50		 push	 eax
  00008	e8 00 00 00 00	 call	 ?DecryptValueToPool@?$CEncrypt@K@@QAEXPAK@Z ; CEncrypt<unsigned long>::DecryptValueToPool

; 150  : 		//// const에서 DecryptValueToPool 사용할 수 없으므로 아래와 같이함.
; 151  :  		//type value;
; 152  : 		//char szTempMem[MAX_ENCRYPT];
; 153  : 		//m_RC5.DecryptByte( m_MemPool, szTempMem, max(m_ValueSize, DEFAULT_ENCRYPT) );
; 154  : 		//memcpy( &value, szTempMem, m_ValueSize );
; 155  : 		//UJ --end
; 156  : 
; 157  : #ifdef _NOTUSE
; 158  : 		Debug();
; 159  : #endif
; 160  : 		return value;

  0000d	8b 45 fc	 mov	 eax, DWORD PTR _value$[ebp]

; 161  : 	}

  00010	c9		 leave
  00011	c3		 ret	 0
??B?$CEncrypt@K@@QBEKXZ ENDP				; CEncrypt<unsigned long>::operator unsigned long
_TEXT	ENDS
PUBLIC	??4?$CEncrypt@K@@QAEKK@Z			; CEncrypt<unsigned long>::operator=
; Function compile flags: /Ogsp
;	COMDAT ??4?$CEncrypt@K@@QAEKK@Z
_TEXT	SEGMENT
_value$ = 8						; size = 4
_inValue$ = 8						; size = 4
??4?$CEncrypt@K@@QAEKK@Z PROC				; CEncrypt<unsigned long>::operator=, COMDAT
; _this$ = ecx

; 1262 : 	{

  00000	55		 push	 ebp
  00001	8b ec		 mov	 ebp, esp

; 1263 : 		
; 1264 : 		type value = inValue;

  00003	8b 45 08	 mov	 eax, DWORD PTR _inValue$[ebp]
  00006	89 45 08	 mov	 DWORD PTR _value$[ebp], eax

; 1265 : 		EncryptValueToPool((char*)&value);

  00009	8d 45 08	 lea	 eax, DWORD PTR _value$[ebp]
  0000c	50		 push	 eax
  0000d	e8 00 00 00 00	 call	 ?EncryptValueToPool@?$CEncrypt@K@@AAEXPBD@Z ; CEncrypt<unsigned long>::EncryptValueToPool

; 1266 : #ifdef _NOTUSE
; 1267 : 		m_value = inValue;
; 1268 : 		Debug();
; 1269 : #endif
; 1270 : 		return value;

  00012	8b 45 08	 mov	 eax, DWORD PTR _value$[ebp]

; 1271 : 	}

  00015	5d		 pop	 ebp
  00016	c2 04 00	 ret	 4
??4?$CEncrypt@K@@QAEKK@Z ENDP				; CEncrypt<unsigned long>::operator=
_TEXT	ENDS
PUBLIC	??0?$CEncrypt@_N@@QAE@XZ			; CEncrypt<bool>::CEncrypt<bool>
;	COMDAT xdata$x
xdata$x	SEGMENT
__unwindtable$??0?$CEncrypt@_N@@QAE@XZ DD 0ffffffffH
	DD	FLAT:__unwindfunclet$??0?$CEncrypt@_N@@QAE@XZ$0
__ehfuncinfo$??0?$CEncrypt@_N@@QAE@XZ DD 019930522H
	DD	01H
	DD	FLAT:__unwindtable$??0?$CEncrypt@_N@@QAE@XZ
	DD	2 DUP(00H)
	DD	2 DUP(00H)
	DD	00H
	DD	01H
; Function compile flags: /Ogsp
xdata$x	ENDS
;	COMDAT ??0?$CEncrypt@_N@@QAE@XZ
_TEXT	SEGMENT
_this$ = -16						; size = 4
__$EHRec$ = -12						; size = 12
??0?$CEncrypt@_N@@QAE@XZ PROC				; CEncrypt<bool>::CEncrypt<bool>, COMDAT
; _this$ = ecx

; 109  : 	CEncrypt()

  00000	6a 04		 push	 4
  00002	b8 00 00 00 00	 mov	 eax, __ehhandler$??0?$CEncrypt@_N@@QAE@XZ
  00007	e8 00 00 00 00	 call	 __EH_prolog3
  0000c	8b f1		 mov	 esi, ecx
  0000e	89 75 f0	 mov	 DWORD PTR _this$[ebp], esi
  00011	8d 4e 0c	 lea	 ecx, DWORD PTR [esi+12]
  00014	c7 06 00 00 00
	00		 mov	 DWORD PTR [esi], OFFSET ??_7?$CEncrypt@_N@@6B@
  0001a	e8 00 00 00 00	 call	 ??0ccddaabb@@QAE@XZ	; ccddaabb::ccddaabb
  0001f	83 65 fc 00	 and	 DWORD PTR __$EHRec$[ebp+8], 0

; 110  : 	{
; 111  : 		Init();

  00023	8b ce		 mov	 ecx, esi
  00025	e8 00 00 00 00	 call	 ?Init@?$CEncrypt@_N@@AAEXXZ ; CEncrypt<bool>::Init

; 112  : 	}

  0002a	8b c6		 mov	 eax, esi
  0002c	e8 00 00 00 00	 call	 __EH_epilog3
  00031	c3		 ret	 0
_TEXT	ENDS
;	COMDAT text$x
text$x	SEGMENT
__unwindfunclet$??0?$CEncrypt@_N@@QAE@XZ$0:
  00000	8b 4d f0	 mov	 ecx, DWORD PTR _this$[ebp]
  00003	83 c1 0c	 add	 ecx, 12			; 0000000cH
  00006	e9 00 00 00 00	 jmp	 ??1ccddaabb@@UAE@XZ	; ccddaabb::~ccddaabb
__ehhandler$??0?$CEncrypt@_N@@QAE@XZ:
  0000b	8b 54 24 08	 mov	 edx, DWORD PTR [esp+8]
  0000f	8d 42 0c	 lea	 eax, DWORD PTR [edx+12]
  00012	8b 4a ec	 mov	 ecx, DWORD PTR [edx-20]
  00015	33 c8		 xor	 ecx, eax
  00017	e8 00 00 00 00	 call	 @__security_check_cookie@4
  0001c	b8 00 00 00 00	 mov	 eax, OFFSET __ehfuncinfo$??0?$CEncrypt@_N@@QAE@XZ
  00021	e9 00 00 00 00	 jmp	 ___CxxFrameHandler3
text$x	ENDS
??0?$CEncrypt@_N@@QAE@XZ ENDP				; CEncrypt<bool>::CEncrypt<bool>
PUBLIC	??B?$CEncrypt@_N@@QAE_NXZ			; CEncrypt<bool>::operator bool
; Function compile flags: /Ogsp
;	COMDAT ??B?$CEncrypt@_N@@QAE_NXZ
_TEXT	SEGMENT
_value$ = -1						; size = 1
??B?$CEncrypt@_N@@QAE_NXZ PROC				; CEncrypt<bool>::operator bool, COMDAT
; _this$ = ecx

; 134  : 	{

  00000	55		 push	 ebp
  00001	8b ec		 mov	 ebp, esp
  00003	51		 push	 ecx

; 135  : 		type value;
; 136  : 		DecryptValueToPool(&value);

  00004	8d 45 ff	 lea	 eax, DWORD PTR _value$[ebp]
  00007	50		 push	 eax
  00008	e8 00 00 00 00	 call	 ?DecryptValueToPool@?$CEncrypt@_N@@QAEXPA_N@Z ; CEncrypt<bool>::DecryptValueToPool

; 137  : 
; 138  : #ifdef _NOTUSE
; 139  : 		Debug();
; 140  : #endif
; 141  : 		return value;

  0000d	8a 45 ff	 mov	 al, BYTE PTR _value$[ebp]

; 142  : 	}

  00010	c9		 leave
  00011	c3		 ret	 0
??B?$CEncrypt@_N@@QAE_NXZ ENDP				; CEncrypt<bool>::operator bool
_TEXT	ENDS
PUBLIC	??B?$CEncrypt@_N@@QBE_NXZ			; CEncrypt<bool>::operator bool
; Function compile flags: /Ogsp
;	COMDAT ??B?$CEncrypt@_N@@QBE_NXZ
_TEXT	SEGMENT
_value$ = -1						; size = 1
??B?$CEncrypt@_N@@QBE_NXZ PROC				; CEncrypt<bool>::operator bool, COMDAT
; _this$ = ecx

; 145  : 	{

  00000	55		 push	 ebp
  00001	8b ec		 mov	 ebp, esp
  00003	51		 push	 ecx

; 146  : 		//UJ 130829, const도 똑같이 하면 된다 --start
; 147  : 		type value;
; 148  : 		CEncrypt<type>* pThis = const_cast<CEncrypt<type>*>(this);
; 149  : 		pThis->DecryptValueToPool(&value);

  00004	8d 45 ff	 lea	 eax, DWORD PTR _value$[ebp]
  00007	50		 push	 eax
  00008	e8 00 00 00 00	 call	 ?DecryptValueToPool@?$CEncrypt@_N@@QAEXPA_N@Z ; CEncrypt<bool>::DecryptValueToPool

; 150  : 		//// const에서 DecryptValueToPool 사용할 수 없으므로 아래와 같이함.
; 151  :  		//type value;
; 152  : 		//char szTempMem[MAX_ENCRYPT];
; 153  : 		//m_RC5.DecryptByte( m_MemPool, szTempMem, max(m_ValueSize, DEFAULT_ENCRYPT) );
; 154  : 		//memcpy( &value, szTempMem, m_ValueSize );
; 155  : 		//UJ --end
; 156  : 
; 157  : #ifdef _NOTUSE
; 158  : 		Debug();
; 159  : #endif
; 160  : 		return value;

  0000d	8a 45 ff	 mov	 al, BYTE PTR _value$[ebp]

; 161  : 	}

  00010	c9		 leave
  00011	c3		 ret	 0
??B?$CEncrypt@_N@@QBE_NXZ ENDP				; CEncrypt<bool>::operator bool
_TEXT	ENDS
PUBLIC	??4?$CEncrypt@_N@@QAE_N_N@Z			; CEncrypt<bool>::operator=
; Function compile flags: /Ogsp
;	COMDAT ??4?$CEncrypt@_N@@QAE_N_N@Z
_TEXT	SEGMENT
_inValue$ = 8						; size = 1
_value$ = 11						; size = 1
??4?$CEncrypt@_N@@QAE_N_N@Z PROC			; CEncrypt<bool>::operator=, COMDAT
; _this$ = ecx

; 225  : 	{

  00000	55		 push	 ebp
  00001	8b ec		 mov	 ebp, esp

; 226  : 		type value = inValue;

  00003	8a 45 08	 mov	 al, BYTE PTR _inValue$[ebp]
  00006	88 45 0b	 mov	 BYTE PTR _value$[ebp], al

; 227  : 		EncryptValueToPool((char*)&value);

  00009	8d 45 0b	 lea	 eax, DWORD PTR _value$[ebp]
  0000c	50		 push	 eax
  0000d	e8 00 00 00 00	 call	 ?EncryptValueToPool@?$CEncrypt@_N@@AAEXPBD@Z ; CEncrypt<bool>::EncryptValueToPool

; 228  : #ifdef _NOTUSE
; 229  : 		m_value = inValue;
; 230  : 		Debug();
; 231  : #endif
; 232  : 		return value;

  00012	8a 45 0b	 mov	 al, BYTE PTR _value$[ebp]

; 233  : 	}

  00015	5d		 pop	 ebp
  00016	c2 04 00	 ret	 4
??4?$CEncrypt@_N@@QAE_N_N@Z ENDP			; CEncrypt<bool>::operator=
_TEXT	ENDS
PUBLIC	?begin@?$vector@VioHashString@@V?$allocator@VioHashString@@@std@@@std@@QAE?AV?$_Vector_iterator@V?$_Vector_val@VioHashString@@V?$allocator@VioHashString@@@std@@@std@@@2@XZ ; std::vector<ioHashString,std::allocator<ioHashString> >::begin
; Function compile flags: /Ogsp
; File c:\program files (x86)\microsoft visual studio 10.0\vc\include\vector
;	COMDAT ?begin@?$vector@VioHashString@@V?$allocator@VioHashString@@@std@@@std@@QAE?AV?$_Vector_iterator@V?$_Vector_val@VioHashString@@V?$allocator@VioHashString@@@std@@@std@@@2@XZ
_TEXT	SEGMENT
___$ReturnUdt$ = 8					; size = 4
?begin@?$vector@VioHashString@@V?$allocator@VioHashString@@@std@@@std@@QAE?AV?$_Vector_iterator@V?$_Vector_val@VioHashString@@V?$allocator@VioHashString@@@std@@@std@@@2@XZ PROC ; std::vector<ioHashString,std::allocator<ioHashString> >::begin, COMDAT
; _this$ = ecx

; 781  : 		{	// return iterator for beginning of mutable sequence

  00000	55		 push	 ebp
  00001	8b ec		 mov	 ebp, esp

; 782  : 		return (iterator(this->_Myfirst, this));

  00003	8b 09		 mov	 ecx, DWORD PTR [ecx]
  00005	8b 45 08	 mov	 eax, DWORD PTR ___$ReturnUdt$[ebp]
  00008	89 08		 mov	 DWORD PTR [eax], ecx

; 783  : 		}

  0000a	5d		 pop	 ebp
  0000b	c2 04 00	 ret	 4
?begin@?$vector@VioHashString@@V?$allocator@VioHashString@@@std@@@std@@QAE?AV?$_Vector_iterator@V?$_Vector_val@VioHashString@@V?$allocator@VioHashString@@@std@@@std@@@2@XZ ENDP ; std::vector<ioHashString,std::allocator<ioHashString> >::begin
_TEXT	ENDS
PUBLIC	?end@?$vector@VioHashString@@V?$allocator@VioHashString@@@std@@@std@@QAE?AV?$_Vector_iterator@V?$_Vector_val@VioHashString@@V?$allocator@VioHashString@@@std@@@std@@@2@XZ ; std::vector<ioHashString,std::allocator<ioHashString> >::end
; Function compile flags: /Ogsp
;	COMDAT ?end@?$vector@VioHashString@@V?$allocator@VioHashString@@@std@@@std@@QAE?AV?$_Vector_iterator@V?$_Vector_val@VioHashString@@V?$allocator@VioHashString@@@std@@@std@@@2@XZ
_TEXT	SEGMENT
___$ReturnUdt$ = 8					; size = 4
?end@?$vector@VioHashString@@V?$allocator@VioHashString@@@std@@@std@@QAE?AV?$_Vector_iterator@V?$_Vector_val@VioHashString@@V?$allocator@VioHashString@@@std@@@std@@@2@XZ PROC ; std::vector<ioHashString,std::allocator<ioHashString> >::end, COMDAT
; _this$ = ecx

; 791  : 		{	// return iterator for end of mutable sequence

  00000	55		 push	 ebp
  00001	8b ec		 mov	 ebp, esp

; 792  : 		return (iterator(this->_Mylast, this));

  00003	8b 49 04	 mov	 ecx, DWORD PTR [ecx+4]
  00006	8b 45 08	 mov	 eax, DWORD PTR ___$ReturnUdt$[ebp]
  00009	89 08		 mov	 DWORD PTR [eax], ecx

; 793  : 		}

  0000b	5d		 pop	 ebp
  0000c	c2 04 00	 ret	 4
?end@?$vector@VioHashString@@V?$allocator@VioHashString@@@std@@@std@@QAE?AV?$_Vector_iterator@V?$_Vector_val@VioHashString@@V?$allocator@VioHashString@@@std@@@std@@@2@XZ ENDP ; std::vector<ioHashString,std::allocator<ioHashString> >::end
_TEXT	ENDS
PUBLIC	??0?$_Vector_val@VioHashString@@V?$allocator@VioHashString@@@std@@@std@@QAE@V?$allocator@VioHashString@@@1@@Z ; std::_Vector_val<ioHashString,std::allocator<ioHashString> >::_Vector_val<ioHashString,std::allocator<ioHashString> >
; Function compile flags: /Ogsp
;	COMDAT ??0?$_Vector_val@VioHashString@@V?$allocator@VioHashString@@@std@@@std@@QAE@V?$allocator@VioHashString@@@1@@Z
_TEXT	SEGMENT
__Al$ = 8						; size = 1
??0?$_Vector_val@VioHashString@@V?$allocator@VioHashString@@@std@@@std@@QAE@V?$allocator@VioHashString@@@1@@Z PROC ; std::_Vector_val<ioHashString,std::allocator<ioHashString> >::_Vector_val<ioHashString,std::allocator<ioHashString> >, COMDAT
; _this$ = ecx

; 426  : 		{	// construct allocator from _Al

  00000	8b c1		 mov	 eax, ecx

; 427  : 		_Myfirst = 0;

  00002	33 c9		 xor	 ecx, ecx
  00004	89 08		 mov	 DWORD PTR [eax], ecx

; 428  : 		_Mylast = 0;

  00006	89 48 04	 mov	 DWORD PTR [eax+4], ecx

; 429  : 		_Myend = 0;

  00009	89 48 08	 mov	 DWORD PTR [eax+8], ecx

; 430  : 		}

  0000c	c2 04 00	 ret	 4
??0?$_Vector_val@VioHashString@@V?$allocator@VioHashString@@@std@@@std@@QAE@V?$allocator@VioHashString@@@1@@Z ENDP ; std::_Vector_val<ioHashString,std::allocator<ioHashString> >::_Vector_val<ioHashString,std::allocator<ioHashString> >
_TEXT	ENDS
PUBLIC	?_Make_iter@?$vector@VioHashString@@V?$allocator@VioHashString@@@std@@@std@@QBE?AV?$_Vector_iterator@V?$_Vector_val@VioHashString@@V?$allocator@VioHashString@@@std@@@std@@@2@V?$_Vector_const_iterator@V?$_Vector_val@VioHashString@@V?$allocator@VioHashString@@@std@@@std@@@2@@Z ; std::vector<ioHashString,std::allocator<ioHashString> >::_Make_iter
; Function compile flags: /Ogsp
;	COMDAT ?_Make_iter@?$vector@VioHashString@@V?$allocator@VioHashString@@@std@@@std@@QBE?AV?$_Vector_iterator@V?$_Vector_val@VioHashString@@V?$allocator@VioHashString@@@std@@@std@@@2@V?$_Vector_const_iterator@V?$_Vector_val@VioHashString@@V?$allocator@VioHashString@@@std@@@std@@@2@@Z
_TEXT	SEGMENT
___$ReturnUdt$ = 8					; size = 4
__Where$ = 12						; size = 4
?_Make_iter@?$vector@VioHashString@@V?$allocator@VioHashString@@@std@@@std@@QBE?AV?$_Vector_iterator@V?$_Vector_val@VioHashString@@V?$allocator@VioHashString@@@std@@@std@@@2@V?$_Vector_const_iterator@V?$_Vector_val@VioHashString@@V?$allocator@VioHashString@@@std@@@std@@@2@@Z PROC ; std::vector<ioHashString,std::allocator<ioHashString> >::_Make_iter, COMDAT
; _this$ = ecx

; 801  : 		{	// make iterator from const_iterator

  00000	55		 push	 ebp
  00001	8b ec		 mov	 ebp, esp

; 802  : 		return (iterator(_Where._Ptr, this));

  00003	8b 45 08	 mov	 eax, DWORD PTR ___$ReturnUdt$[ebp]
  00006	8b 4d 0c	 mov	 ecx, DWORD PTR __Where$[ebp]
  00009	89 08		 mov	 DWORD PTR [eax], ecx

; 803  : 		}

  0000b	5d		 pop	 ebp
  0000c	c2 08 00	 ret	 8
?_Make_iter@?$vector@VioHashString@@V?$allocator@VioHashString@@@std@@@std@@QBE?AV?$_Vector_iterator@V?$_Vector_val@VioHashString@@V?$allocator@VioHashString@@@std@@@std@@@2@V?$_Vector_const_iterator@V?$_Vector_val@VioHashString@@V?$allocator@VioHashString@@@std@@@std@@@2@@Z ENDP ; std::vector<ioHashString,std::allocator<ioHashString> >::_Make_iter
_TEXT	ENDS
PUBLIC	?max_size@?$vector@VioHashString@@V?$allocator@VioHashString@@@std@@@std@@QBEIXZ ; std::vector<ioHashString,std::allocator<ioHashString> >::max_size
; Function compile flags: /Ogsp
;	COMDAT ?max_size@?$vector@VioHashString@@V?$allocator@VioHashString@@@std@@@std@@QBEIXZ
_TEXT	SEGMENT
?max_size@?$vector@VioHashString@@V?$allocator@VioHashString@@@std@@@std@@QBEIXZ PROC ; std::vector<ioHashString,std::allocator<ioHashString> >::max_size, COMDAT
; _this$ = ecx

; 884  : 		return (this->_Alval.max_size());

  00000	b8 ff ff ff 0f	 mov	 eax, 268435455		; 0fffffffH

; 885  : 		}

  00005	c3		 ret	 0
?max_size@?$vector@VioHashString@@V?$allocator@VioHashString@@@std@@@std@@QBEIXZ ENDP ; std::vector<ioHashString,std::allocator<ioHashString> >::max_size
_TEXT	ENDS
PUBLIC	?allocate@?$allocator@VioHashString@@@std@@QAEPAVioHashString@@I@Z ; std::allocator<ioHashString>::allocate
; Function compile flags: /Ogsp
; File c:\program files (x86)\microsoft visual studio 10.0\vc\include\xmemory
;	COMDAT ?allocate@?$allocator@VioHashString@@@std@@QAEPAVioHashString@@I@Z
_TEXT	SEGMENT
__Count$ = 8						; size = 4
?allocate@?$allocator@VioHashString@@@std@@QAEPAVioHashString@@I@Z PROC ; std::allocator<ioHashString>::allocate, COMDAT
; _this$ = ecx

; 186  : 		{	// allocate array of _Count elements

  00000	55		 push	 ebp
  00001	8b ec		 mov	 ebp, esp

; 187  : 		return (_Allocate(_Count, (pointer)0));

  00003	6a 00		 push	 0
  00005	ff 75 08	 push	 DWORD PTR __Count$[ebp]
  00008	e8 00 00 00 00	 call	 ??$_Allocate@VioHashString@@@std@@YAPAVioHashString@@IPAV1@@Z ; std::_Allocate<ioHashString>
  0000d	59		 pop	 ecx
  0000e	59		 pop	 ecx

; 188  : 		}

  0000f	5d		 pop	 ebp
  00010	c2 04 00	 ret	 4
?allocate@?$allocator@VioHashString@@@std@@QAEPAVioHashString@@I@Z ENDP ; std::allocator<ioHashString>::allocate
_TEXT	ENDS
PUBLIC	??8?$_Vector_const_iterator@V?$_Vector_val@VioHashString@@V?$allocator@VioHashString@@@std@@@std@@@std@@QBE_NABV01@@Z ; std::_Vector_const_iterator<std::_Vector_val<ioHashString,std::allocator<ioHashString> > >::operator==
; Function compile flags: /Ogsp
; File c:\program files (x86)\microsoft visual studio 10.0\vc\include\vector
;	COMDAT ??8?$_Vector_const_iterator@V?$_Vector_val@VioHashString@@V?$allocator@VioHashString@@@std@@@std@@@std@@QBE_NABV01@@Z
_TEXT	SEGMENT
__Right$ = 8						; size = 4
??8?$_Vector_const_iterator@V?$_Vector_val@VioHashString@@V?$allocator@VioHashString@@@std@@@std@@@std@@QBE_NABV01@@Z PROC ; std::_Vector_const_iterator<std::_Vector_val<ioHashString,std::allocator<ioHashString> > >::operator==, COMDAT
; _this$ = ecx

; 201  : 		{	// test for iterator equality

  00000	55		 push	 ebp
  00001	8b ec		 mov	 ebp, esp

; 202  : 		_Compat(_Right);
; 203  : 		return (this->_Ptr == _Right._Ptr);

  00003	8b 01		 mov	 eax, DWORD PTR [ecx]
  00005	8b 4d 08	 mov	 ecx, DWORD PTR __Right$[ebp]
  00008	2b 01		 sub	 eax, DWORD PTR [ecx]
  0000a	f7 d8		 neg	 eax
  0000c	1b c0		 sbb	 eax, eax
  0000e	40		 inc	 eax

; 204  : 		}

  0000f	5d		 pop	 ebp
  00010	c2 04 00	 ret	 4
??8?$_Vector_const_iterator@V?$_Vector_val@VioHashString@@V?$allocator@VioHashString@@@std@@@std@@@std@@QBE_NABV01@@Z ENDP ; std::_Vector_const_iterator<std::_Vector_val<ioHashString,std::allocator<ioHashString> > >::operator==
_TEXT	ENDS
PUBLIC	??$_Move@PAVioHashString@@PAV1@@std@@YAPAVioHashString@@PAV1@00U_Nonscalar_ptr_iterator_tag@0@@Z ; std::_Move<ioHashString *,ioHashString *>
; Function compile flags: /Ogsp
; File c:\program files (x86)\microsoft visual studio 10.0\vc\include\xutility
;	COMDAT ??$_Move@PAVioHashString@@PAV1@@std@@YAPAVioHashString@@PAV1@00U_Nonscalar_ptr_iterator_tag@0@@Z
_TEXT	SEGMENT
__First$ = 8						; size = 4
__Last$ = 12						; size = 4
__Dest$ = 16						; size = 4
___formal$ = 20						; size = 1
??$_Move@PAVioHashString@@PAV1@@std@@YAPAVioHashString@@PAV1@00U_Nonscalar_ptr_iterator_tag@0@@Z PROC ; std::_Move<ioHashString *,ioHashString *>, COMDAT

; 2512 : 	{	// move [_First, _Last) to [_Dest, ...), arbitrary iterators

  00000	55		 push	 ebp
  00001	8b ec		 mov	 ebp, esp
  00003	56		 push	 esi

; 2513 : 	for (; _First != _Last; ++_Dest, ++_First)

  00004	8b 75 08	 mov	 esi, DWORD PTR __First$[ebp]
  00007	eb 11		 jmp	 SHORT $LN11@Move
$LL3@Move:

; 2514 : 		*_Dest = _STD move(*_First);

  00009	8b 4d 10	 mov	 ecx, DWORD PTR __Dest$[ebp]
  0000c	56		 push	 esi
  0000d	ff 15 00 00 00
	00		 call	 DWORD PTR __imp_??4ioHashString@@QAEAAV0@ABV0@@Z
  00013	83 45 10 10	 add	 DWORD PTR __Dest$[ebp], 16 ; 00000010H
  00017	83 c6 10	 add	 esi, 16			; 00000010H
$LN11@Move:

; 2513 : 	for (; _First != _Last; ++_Dest, ++_First)

  0001a	3b 75 0c	 cmp	 esi, DWORD PTR __Last$[ebp]
  0001d	75 ea		 jne	 SHORT $LL3@Move

; 2515 : 	return (_Dest);

  0001f	8b 45 10	 mov	 eax, DWORD PTR __Dest$[ebp]
  00022	5e		 pop	 esi

; 2516 : 	}

  00023	5d		 pop	 ebp
  00024	c3		 ret	 0
??$_Move@PAVioHashString@@PAV1@@std@@YAPAVioHashString@@PAV1@00U_Nonscalar_ptr_iterator_tag@0@@Z ENDP ; std::_Move<ioHashString *,ioHashString *>
_TEXT	ENDS
PUBLIC	??$_Destroy@VioHashString@@@std@@YAXPAVioHashString@@@Z ; std::_Destroy<ioHashString>
; Function compile flags: /Ogsp
; File c:\program files (x86)\microsoft visual studio 10.0\vc\include\xmemory
;	COMDAT ??$_Destroy@VioHashString@@@std@@YAXPAVioHashString@@@Z
_TEXT	SEGMENT
__Ptr$ = 8						; size = 4
??$_Destroy@VioHashString@@@std@@YAXPAVioHashString@@@Z PROC ; std::_Destroy<ioHashString>, COMDAT

; 62   : 	{	// destroy object at _Ptr

  00000	55		 push	 ebp
  00001	8b ec		 mov	 ebp, esp

; 63   : 	_Ptr->~_Ty();

  00003	8b 4d 08	 mov	 ecx, DWORD PTR __Ptr$[ebp]

; 64   : 	}

  00006	5d		 pop	 ebp

; 63   : 	_Ptr->~_Ty();

  00007	ff 25 00 00 00
	00		 jmp	 DWORD PTR __imp_??1ioHashString@@QAE@XZ
??$_Destroy@VioHashString@@@std@@YAXPAVioHashString@@@Z ENDP ; std::_Destroy<ioHashString>
_TEXT	ENDS
PUBLIC	?construct@?$allocator@VioHashString@@@std@@QAEXPAVioHashString@@ABV3@@Z ; std::allocator<ioHashString>::construct
; Function compile flags: /Ogsp
;	COMDAT ?construct@?$allocator@VioHashString@@@std@@QAEXPAVioHashString@@ABV3@@Z
_TEXT	SEGMENT
__Ptr$ = 8						; size = 4
__Val$ = 12						; size = 4
?construct@?$allocator@VioHashString@@@std@@QAEXPAVioHashString@@ABV3@@Z PROC ; std::allocator<ioHashString>::construct, COMDAT
; _this$ = ecx

; 196  : 		{	// construct object at _Ptr with value _Val

  00000	55		 push	 ebp
  00001	8b ec		 mov	 ebp, esp

; 197  : 		_Construct(_Ptr, _Val);

  00003	ff 75 0c	 push	 DWORD PTR __Val$[ebp]
  00006	ff 75 08	 push	 DWORD PTR __Ptr$[ebp]
  00009	e8 00 00 00 00	 call	 ??$_Construct@VioHashString@@ABV1@@std@@YAXPAVioHashString@@ABV1@@Z ; std::_Construct<ioHashString,ioHashString const &>
  0000e	59		 pop	 ecx
  0000f	59		 pop	 ecx

; 198  : 		}

  00010	5d		 pop	 ebp
  00011	c2 08 00	 ret	 8
?construct@?$allocator@VioHashString@@@std@@QAEXPAVioHashString@@ABV3@@Z ENDP ; std::allocator<ioHashString>::construct
_TEXT	ENDS
PUBLIC	?GetJumpState@ioBaseChar@@QBE?AW4JumpState@@XZ	; ioBaseChar::GetJumpState
; Function compile flags: /Ogsp
; File d:\lost saga for developer\youtube\tutorial\source\src\lsclient\iobasechar.h
;	COMDAT ?GetJumpState@ioBaseChar@@QBE?AW4JumpState@@XZ
_TEXT	SEGMENT
_value$528353 = -4					; size = 4
?GetJumpState@ioBaseChar@@QBE?AW4JumpState@@XZ PROC	; ioBaseChar::GetJumpState, COMDAT
; _this$ = ecx

; 2158 : 	inline JumpState GetJumpState() const { return m_JumpState; }

  00000	55		 push	 ebp
  00001	8b ec		 mov	 ebp, esp
  00003	51		 push	 ecx
  00004	8d 45 fc	 lea	 eax, DWORD PTR _value$528353[ebp]
  00007	50		 push	 eax
  00008	81 c1 40 0e 00
	00		 add	 ecx, 3648		; 00000e40H
  0000e	e8 00 00 00 00	 call	 ?DecryptValueToPool@?$CEncrypt@W4JumpState@@@@QAEXPAW4JumpState@@@Z ; CEncrypt<enum JumpState>::DecryptValueToPool
  00013	8b 45 fc	 mov	 eax, DWORD PTR _value$528353[ebp]
  00016	c9		 leave
  00017	c3		 ret	 0
?GetJumpState@ioBaseChar@@QBE?AW4JumpState@@XZ ENDP	; ioBaseChar::GetJumpState
_TEXT	ENDS
PUBLIC	__real@00000000
PUBLIC	?ProcessPassive@ioMultiFlyJumpBuff@@IAEXXZ	; ioMultiFlyJumpBuff::ProcessPassive
EXTRN	?ShowEquipItemMesh@ioBaseChar@@QAEX_NH@Z:PROC	; ioBaseChar::ShowEquipItemMesh
EXTRN	?GetEquipedItem@ioBaseChar@@QAEPAVioItem@@ABVioHashString@@@Z:PROC ; ioBaseChar::GetEquipedItem
EXTRN	?SetBuffFlyJumpEnd@ioBaseChar@@QAEXXZ:PROC	; ioBaseChar::SetBuffFlyJumpEnd
EXTRN	__imp_?IsEmpty@ioHashString@@QBE_NXZ:PROC
EXTRN	?GetEquipedSkill@ioBaseChar@@QAEPAVioSkill@@H@Z:PROC ; ioBaseChar::GetEquipedSkill
EXTRN	?IsFloating@ioBaseChar@@QAE_NXZ:PROC		; ioBaseChar::IsFloating
EXTRN	__imp_?GetLoopSec@ioFrameTimer@@QBEKXZ:PROC
EXTRN	__imp_?GetSingleton@ioFrameTimer@@SAAAV1@XZ:PROC
EXTRN	__imp_??9ioHashString@@QBE_NABV0@@Z:PROC
;	COMDAT __real@00000000
; File d:\lost saga for developer\youtube\tutorial\source\src\lsclient\encryptvalue.h
CONST	SEGMENT
__real@00000000 DD 000000000r			; 0
; Function compile flags: /Ogsp
; File d:\lost saga for developer\youtube\tutorial\source\src\lsclient\iomultiflyjumpbuff.cpp
CONST	ENDS
;	COMDAT ?ProcessPassive@ioMultiFlyJumpBuff@@IAEXXZ
_TEXT	SEGMENT
_value$528423 = -20					; size = 4
_value$528409 = -20					; size = 4
_dwCurTime$ = -20					; size = 4
_value$528405 = -16					; size = 4
_value$528393 = -12					; size = 4
_value$528372 = -12					; size = 4
_value$528366 = -12					; size = 4
_fCurTicGauge$ = -12					; size = 4
_value$528401 = -8					; size = 4
_value$528397 = -8					; size = 4
_value$528389 = -8					; size = 4
_i$523991 = -8						; size = 4
_value$528447 = -1					; size = 1
?ProcessPassive@ioMultiFlyJumpBuff@@IAEXXZ PROC		; ioMultiFlyJumpBuff::ProcessPassive, COMDAT
; _this$ = ecx

; 225  : {

  00000	55		 push	 ebp
  00001	8b ec		 mov	 ebp, esp
  00003	83 ec 14	 sub	 esp, 20			; 00000014H
  00006	56		 push	 esi
  00007	8b f1		 mov	 esi, ecx

; 226  : 	if( !m_pOwner )

  00009	83 be 74 02 00
	00 00		 cmp	 DWORD PTR [esi+628], 0
  00010	0f 84 84 02 00
	00		 je	 $LN23@ProcessPas

; 227  : 		return;
; 228  : 
; 229  : 	if( m_fGaugePerTick <= 0.0f || m_dwTickTime <= 0 )

  00016	57		 push	 edi
  00017	8d 45 f4	 lea	 eax, DWORD PTR _value$528366[ebp]
  0001a	50		 push	 eax
  0001b	8d 8e dc 02 00
	00		 lea	 ecx, DWORD PTR [esi+732]
  00021	e8 00 00 00 00	 call	 ?DecryptValueToPool@?$CEncrypt@M@@QAEXPAM@Z ; CEncrypt<float>::DecryptValueToPool
  00026	0f 57 c0	 xorps	 xmm0, xmm0
  00029	0f 2f 45 f4	 comiss	 xmm0, DWORD PTR _value$528366[ebp]
  0002d	0f 83 66 02 00
	00		 jae	 $LN77@ProcessPas
  00033	8d 45 f4	 lea	 eax, DWORD PTR _value$528372[ebp]
  00036	8d 8e 0c 03 00
	00		 lea	 ecx, DWORD PTR [esi+780]
  0003c	50		 push	 eax
  0003d	e8 00 00 00 00	 call	 ?DecryptValueToPool@?$CEncrypt@K@@QAEXPAK@Z ; CEncrypt<unsigned long>::DecryptValueToPool
  00042	83 7d f4 00	 cmp	 DWORD PTR _value$528372[ebp], 0
  00046	0f 86 4d 02 00
	00		 jbe	 $LN77@ProcessPas

; 230  : 		return;
; 231  : 	
; 232  : 	if( GetName() != m_pOwner->GetBuffFlyJumpName() )

  0004c	8b 86 74 02 00
	00		 mov	 eax, DWORD PTR [esi+628]
  00052	ff b0 e4 18 00
	00		 push	 DWORD PTR [eax+6372]
  00058	8d 8e 34 02 00
	00		 lea	 ecx, DWORD PTR [esi+564]
  0005e	ff 15 00 00 00
	00		 call	 DWORD PTR __imp_??9ioHashString@@QBE_NABV0@@Z
  00064	84 c0		 test	 al, al
  00066	0f 85 2d 02 00
	00		 jne	 $LN77@ProcessPas

; 233  : 	{
; 234  : 		return;
; 235  : 	}
; 236  : 
; 237  : 
; 238  : 	float fCurTicGauge = m_fGaugePerTick / m_fTicGaugeRateByGrowth;

  0006c	53		 push	 ebx
  0006d	8d 45 f8	 lea	 eax, DWORD PTR _value$528389[ebp]
  00070	50		 push	 eax
  00071	8d 8e 00 05 00
	00		 lea	 ecx, DWORD PTR [esi+1280]
  00077	e8 00 00 00 00	 call	 ?DecryptValueToPool@?$CEncrypt@M@@QAEXPAM@Z ; CEncrypt<float>::DecryptValueToPool
  0007c	8d 45 f4	 lea	 eax, DWORD PTR _value$528393[ebp]
  0007f	50		 push	 eax
  00080	8d 8e dc 02 00
	00		 lea	 ecx, DWORD PTR [esi+732]
  00086	e8 00 00 00 00	 call	 ?DecryptValueToPool@?$CEncrypt@M@@QAEXPAM@Z ; CEncrypt<float>::DecryptValueToPool
  0008b	f3 0f 10 45 f4	 movss	 xmm0, DWORD PTR _value$528393[ebp]
  00090	f3 0f 10 4d f8	 movss	 xmm1, DWORD PTR _value$528389[ebp]
  00095	0f 5a c0	 cvtps2pd xmm0, xmm0
  00098	0f 5a c9	 cvtps2pd xmm1, xmm1
  0009b	f2 0f 5e c1	 divsd	 xmm0, xmm1
  0009f	66 0f 5a c0	 cvtpd2ps xmm0, xmm0
  000a3	f3 0f 11 45 f4	 movss	 DWORD PTR _fCurTicGauge$[ebp], xmm0

; 239  : 	DWORD dwCurTime = FRAMEGETTIME();

  000a8	ff 15 00 00 00
	00		 call	 DWORD PTR __imp_?GetSingleton@ioFrameTimer@@SAAAV1@XZ
  000ae	8b c8		 mov	 ecx, eax
  000b0	ff 15 00 00 00
	00		 call	 DWORD PTR __imp_?GetLoopSec@ioFrameTimer@@QBEKXZ
  000b6	8b f8		 mov	 edi, eax

; 240  : 	int iTickGap = (int)( dwCurTime - m_dwCheckTime );

  000b8	8d 45 f8	 lea	 eax, DWORD PTR _value$528397[ebp]
  000bb	50		 push	 eax
  000bc	8d 8e 3c 03 00
	00		 lea	 ecx, DWORD PTR [esi+828]
  000c2	89 7d ec	 mov	 DWORD PTR _dwCurTime$[ebp], edi
  000c5	e8 00 00 00 00	 call	 ?DecryptValueToPool@?$CEncrypt@K@@QAEXPAK@Z ; CEncrypt<unsigned long>::DecryptValueToPool
  000ca	2b 7d f8	 sub	 edi, DWORD PTR _value$528397[ebp]

; 241  : 	int iCurTicTime = m_dwTickTime + m_dwTicTimeByGrowth;

  000cd	8d 45 f8	 lea	 eax, DWORD PTR _value$528401[ebp]
  000d0	50		 push	 eax
  000d1	8d 8e 30 05 00
	00		 lea	 ecx, DWORD PTR [esi+1328]
  000d7	e8 00 00 00 00	 call	 ?DecryptValueToPool@?$CEncrypt@K@@QAEXPAK@Z ; CEncrypt<unsigned long>::DecryptValueToPool
  000dc	8d 45 f0	 lea	 eax, DWORD PTR _value$528405[ebp]
  000df	50		 push	 eax
  000e0	8d 8e 0c 03 00
	00		 lea	 ecx, DWORD PTR [esi+780]
  000e6	e8 00 00 00 00	 call	 ?DecryptValueToPool@?$CEncrypt@K@@QAEXPAK@Z ; CEncrypt<unsigned long>::DecryptValueToPool
  000eb	8b 45 f8	 mov	 eax, DWORD PTR _value$528401[ebp]
  000ee	03 45 f0	 add	 eax, DWORD PTR _value$528405[ebp]

; 242  : 
; 243  : 	// 활강중에만 스킬 게이지가 감소한다.
; 244  : 	if( iTickGap >= iCurTicTime )

  000f1	3b f8		 cmp	 edi, eax
  000f3	0f 8c 9f 01 00
	00		 jl	 $LN78@ProcessPas

; 245  : 	{
; 246  : 		m_dwCheckTime = dwCurTime - ( iTickGap - iCurTicTime );

  000f9	2b c7		 sub	 eax, edi
  000fb	03 45 ec	 add	 eax, DWORD PTR _dwCurTime$[ebp]
  000fe	8d 8e 3c 03 00
	00		 lea	 ecx, DWORD PTR [esi+828]
  00104	89 45 ec	 mov	 DWORD PTR _value$528409[ebp], eax
  00107	8d 45 ec	 lea	 eax, DWORD PTR _value$528409[ebp]
  0010a	50		 push	 eax
  0010b	e8 00 00 00 00	 call	 ?EncryptValueToPool@?$CEncrypt@K@@AAEXPBD@Z ; CEncrypt<unsigned long>::EncryptValueToPool

; 247  : 		if( fCurTicGauge != 0.0f )

  00110	f3 0f 10 45 f4	 movss	 xmm0, DWORD PTR _fCurTicGauge$[ebp]
  00115	0f 2e 05 00 00
	00 00		 ucomiss xmm0, DWORD PTR __real@00000000
  0011c	9f		 lahf
  0011d	f6 c4 44	 test	 ah, 68			; 00000044H
  00120	0f 8b 72 01 00
	00		 jnp	 $LN78@ProcessPas

; 248  : 		{
; 249  : 			if( (m_pOwner->GetState() == CS_JUMP && m_pOwner->GetJumpState() == JS_JUMPPING) &&
; 250  : 				m_pOwner->GetUsedBuffFlyJump() != BJUT_NONE &&
; 251  : 				m_pOwner->GetUsedBuffFlyJump() != BJUT_END &&
; 252  : 				m_pOwner->IsFloating() )

  00126	8b 86 74 02 00
	00		 mov	 eax, DWORD PTR [esi+628]
  0012c	80 b8 10 03 00
	00 04		 cmp	 BYTE PTR [eax+784], 4
  00133	0f 85 ca 00 00
	00		 jne	 $LN75@ProcessPas
  00139	8d 4d ec	 lea	 ecx, DWORD PTR _value$528423[ebp]
  0013c	51		 push	 ecx
  0013d	8d 88 40 0e 00
	00		 lea	 ecx, DWORD PTR [eax+3648]
  00143	e8 00 00 00 00	 call	 ?DecryptValueToPool@?$CEncrypt@W4JumpState@@@@QAEXPAW4JumpState@@@Z ; CEncrypt<enum JumpState>::DecryptValueToPool
  00148	83 7d ec 02	 cmp	 DWORD PTR _value$528423[ebp], 2
  0014c	0f 85 b1 00 00
	00		 jne	 $LN75@ProcessPas
  00152	8b 8e 74 02 00
	00		 mov	 ecx, DWORD PTR [esi+628]
  00158	8b 81 b0 0e 00
	00		 mov	 eax, DWORD PTR [ecx+3760]
  0015e	85 c0		 test	 eax, eax
  00160	0f 84 9d 00 00
	00		 je	 $LN75@ProcessPas
  00166	83 f8 04	 cmp	 eax, 4
  00169	0f 84 94 00 00
	00		 je	 $LN75@ProcessPas
  0016f	e8 00 00 00 00	 call	 ?IsFloating@ioBaseChar@@QAE_NXZ ; ioBaseChar::IsFloating
  00174	84 c0		 test	 al, al
  00176	0f 84 87 00 00
	00		 je	 $LN75@ProcessPas

; 253  : 			{
; 254  : 				
; 255  : 				for( int i=ES_WEAPON; i < MAX_EQUIP_SLOT; ++i )

  0017c	83 65 f8 00	 and	 DWORD PTR _i$523991[ebp], 0
$LL76@ProcessPas:

; 256  : 				{
; 257  : 					ioSkill *pSkill = m_pOwner->GetEquipedSkill(i);

  00180	ff 75 f8	 push	 DWORD PTR _i$523991[ebp]
  00183	8b 8e 74 02 00
	00		 mov	 ecx, DWORD PTR [esi+628]
  00189	e8 00 00 00 00	 call	 ?GetEquipedSkill@ioBaseChar@@QAEPAVioSkill@@H@Z ; ioBaseChar::GetEquipedSkill

; 258  : 					ioPassiveSkill *pPassiveSkill = ToPassiveSkill(pSkill);

  0018e	50		 push	 eax
  0018f	e8 00 00 00 00	 call	 ?ToPassiveSkill@@YAPAVioPassiveSkill@@PAVioSkill@@@Z ; ToPassiveSkill
  00194	8b f8		 mov	 edi, eax
  00196	59		 pop	 ecx

; 259  : 
; 260  : 					if( !pPassiveSkill )

  00197	85 ff		 test	 edi, edi
  00199	74 56		 je	 SHORT $LN17@ProcessPas

; 261  : 						continue;
; 262  : 
; 263  : 					if( GetSkillName().IsEmpty() ||  pPassiveSkill->GetName() != GetSkillName() )

  0019b	8d 9e 54 02 00
	00		 lea	 ebx, DWORD PTR [esi+596]
  001a1	8b cb		 mov	 ecx, ebx
  001a3	ff 15 00 00 00
	00		 call	 DWORD PTR __imp_?IsEmpty@ioHashString@@QBE_NXZ
  001a9	84 c0		 test	 al, al
  001ab	75 44		 jne	 SHORT $LN17@ProcessPas
  001ad	53		 push	 ebx
  001ae	8d 4f 24	 lea	 ecx, DWORD PTR [edi+36]
  001b1	ff 15 00 00 00
	00		 call	 DWORD PTR __imp_??9ioHashString@@QBE_NABV0@@Z
  001b7	84 c0		 test	 al, al
  001b9	75 36		 jne	 SHORT $LN17@ProcessPas

; 264  : 						continue;
; 265  : 
; 266  : 					if( pPassiveSkill->UsePassiveGauge() )

  001bb	8b 07		 mov	 eax, DWORD PTR [edi]
  001bd	8b cf		 mov	 ecx, edi
  001bf	ff 90 a4 01 00
	00		 call	 DWORD PTR [eax+420]
  001c5	84 c0		 test	 al, al
  001c7	74 28		 je	 SHORT $LN17@ProcessPas

; 267  : 					{
; 268  : 						if( pPassiveSkill->ReduceCurPassiveGauge( fCurTicGauge ) <= 0.0f )

  001c9	f3 0f 10 45 f4	 movss	 xmm0, DWORD PTR _fCurTicGauge$[ebp]
  001ce	8b 07		 mov	 eax, DWORD PTR [edi]
  001d0	51		 push	 ecx
  001d1	8b cf		 mov	 ecx, edi
  001d3	f3 0f 11 04 24	 movss	 DWORD PTR [esp], xmm0
  001d8	ff 90 a0 01 00
	00		 call	 DWORD PTR [eax+416]
  001de	d9 ee		 fldz
  001e0	df f1		 fcomip	 ST(1)
  001e2	dd d8		 fstp	 ST(0)
  001e4	72 0b		 jb	 SHORT $LN17@ProcessPas

; 269  : 						{
; 270  : 							m_pOwner->SetBuffFlyJumpEnd();

  001e6	8b 8e 74 02 00
	00		 mov	 ecx, DWORD PTR [esi+628]
  001ec	e8 00 00 00 00	 call	 ?SetBuffFlyJumpEnd@ioBaseChar@@QAEXXZ ; ioBaseChar::SetBuffFlyJumpEnd
$LN17@ProcessPas:

; 253  : 			{
; 254  : 				
; 255  : 				for( int i=ES_WEAPON; i < MAX_EQUIP_SLOT; ++i )

  001f1	ff 45 f8	 inc	 DWORD PTR _i$523991[ebp]
  001f4	83 7d f8 09	 cmp	 DWORD PTR _i$523991[ebp], 9
  001f8	7c 86		 jl	 SHORT $LL76@ProcessPas

; 271  : 						}
; 272  : 					}
; 273  : 				}
; 274  : 
; 275  : 				m_bReduceGauge = true;

  001fa	c6 86 20 0a 00
	00 01		 mov	 BYTE PTR [esi+2592], 1

; 276  : 			}
; 277  : 			else

  00201	eb 07		 jmp	 SHORT $LN10@ProcessPas
$LN75@ProcessPas:

; 278  : 			{
; 279  : 				m_bReduceGauge = false;

  00203	c6 86 20 0a 00
	00 00		 mov	 BYTE PTR [esi+2592], 0
$LN10@ProcessPas:

; 280  : 			}
; 281  : 
; 282  : 			//if( m_bInvisibleMeshOnFlyJump && ( m_bHideMesh != m_bReduceGauge ) )
; 283  : 			if( m_bInvisibleMeshOnFlyJump && ( m_bHideMesh != m_bReduceGauge ) && !m_ItemName.IsEmpty() )

  0020a	8d 45 ff	 lea	 eax, DWORD PTR _value$528447[ebp]
  0020d	50		 push	 eax
  0020e	8d 8e 24 0a 00
	00		 lea	 ecx, DWORD PTR [esi+2596]
  00214	e8 00 00 00 00	 call	 ?DecryptValueToPool@?$CEncrypt@_N@@QAEXPA_N@Z ; CEncrypt<bool>::DecryptValueToPool
  00219	80 7d ff 00	 cmp	 BYTE PTR _value$528447[ebp], 0
  0021d	74 79		 je	 SHORT $LN78@ProcessPas
  0021f	8a 86 54 0a 00
	00		 mov	 al, BYTE PTR [esi+2644]
  00225	3a 86 20 0a 00
	00		 cmp	 al, BYTE PTR [esi+2592]
  0022b	74 6b		 je	 SHORT $LN78@ProcessPas
  0022d	8d be 44 02 00
	00		 lea	 edi, DWORD PTR [esi+580]
  00233	8b cf		 mov	 ecx, edi
  00235	ff 15 00 00 00
	00		 call	 DWORD PTR __imp_?IsEmpty@ioHashString@@QBE_NXZ
  0023b	84 c0		 test	 al, al
  0023d	75 59		 jne	 SHORT $LN78@ProcessPas

; 284  : 			{
; 285  : 				//int iItemType = m_pOwnerItem->GetType();
; 286  : 				ioItem *pOwnerItem = m_pOwner->GetEquipedItem( m_ItemName );

  0023f	8b 8e 74 02 00
	00		 mov	 ecx, DWORD PTR [esi+628]
  00245	57		 push	 edi
  00246	e8 00 00 00 00	 call	 ?GetEquipedItem@ioBaseChar@@QAEPAVioItem@@ABVioHashString@@@Z ; ioBaseChar::GetEquipedItem

; 287  : 				if( !pOwnerItem )

  0024b	85 c0		 test	 eax, eax
  0024d	74 49		 je	 SHORT $LN78@ProcessPas

; 288  : 					return;
; 289  : 
; 290  : 				int iItemType = pOwnerItem->GetType();

  0024f	8b 10		 mov	 edx, DWORD PTR [eax]
  00251	8b c8		 mov	 ecx, eax
  00253	ff 52 08	 call	 DWORD PTR [edx+8]

; 291  : 
; 292  : 				EquipSlot eSlot = ES_UNKNOWN;
; 293  : 				switch( iItemType )

  00256	48		 dec	 eax
  00257	74 17		 je	 SHORT $LN5@ProcessPas
  00259	48		 dec	 eax
  0025a	74 0f		 je	 SHORT $LN4@ProcessPas
  0025c	48		 dec	 eax
  0025d	74 08		 je	 SHORT $LN3@ProcessPas
  0025f	48		 dec	 eax
  00260	75 2a		 jne	 SHORT $LN1@ProcessPas

; 304  : 				case ioItem::IT_CLOAK:
; 305  : 					eSlot = ES_CLOAK;

  00262	6a 03		 push	 3
$LN79@ProcessPas:
  00264	58		 pop	 eax

; 306  : 					break;

  00265	eb 0b		 jmp	 SHORT $LN6@ProcessPas
$LN3@ProcessPas:

; 301  : 				case ioItem::IT_HELMET:
; 302  : 					eSlot = ES_HELMET;

  00267	6a 02		 push	 2

; 303  : 					break;

  00269	eb f9		 jmp	 SHORT $LN79@ProcessPas
$LN4@ProcessPas:

; 297  : 					break;
; 298  : 				case ioItem::IT_ARMOR:
; 299  : 					eSlot = ES_ARMOR;

  0026b	33 c0		 xor	 eax, eax
  0026d	40		 inc	 eax

; 300  : 					break;

  0026e	eb 02		 jmp	 SHORT $LN6@ProcessPas
$LN5@ProcessPas:

; 294  : 				{
; 295  : 				case ioItem::IT_WEAPON:
; 296  : 					eSlot = ES_WEAPON;

  00270	33 c0		 xor	 eax, eax
$LN6@ProcessPas:

; 307  : 				}
; 308  : 
; 309  : 				if( eSlot <= ES_CLOAK )
; 310  : 					m_pOwner->ShowEquipItemMesh( !m_bReduceGauge, eSlot );

  00272	80 be 20 0a 00
	00 00		 cmp	 BYTE PTR [esi+2592], 0
  00279	8b 8e 74 02 00
	00		 mov	 ecx, DWORD PTR [esi+628]
  0027f	50		 push	 eax
  00280	0f 94 c0	 sete	 al
  00283	0f b6 c0	 movzx	 eax, al
  00286	50		 push	 eax
  00287	e8 00 00 00 00	 call	 ?ShowEquipItemMesh@ioBaseChar@@QAEX_NH@Z ; ioBaseChar::ShowEquipItemMesh
$LN1@ProcessPas:

; 311  : 
; 312  : 				m_bHideMesh = m_bReduceGauge;

  0028c	8a 86 20 0a 00
	00		 mov	 al, BYTE PTR [esi+2592]
  00292	88 86 54 0a 00
	00		 mov	 BYTE PTR [esi+2644], al
$LN78@ProcessPas:
  00298	5b		 pop	 ebx
$LN77@ProcessPas:
  00299	5f		 pop	 edi
$LN23@ProcessPas:
  0029a	5e		 pop	 esi

; 313  : 			}				
; 314  : 		}
; 315  : 	}
; 316  : }

  0029b	c9		 leave
  0029c	c3		 ret	 0
?ProcessPassive@ioMultiFlyJumpBuff@@IAEXXZ ENDP		; ioMultiFlyJumpBuff::ProcessPassive
_TEXT	ENDS
PUBLIC	??0?$CEncrypt@K@@QAE@ABV0@@Z			; CEncrypt<unsigned long>::CEncrypt<unsigned long>
;	COMDAT xdata$x
; File d:\lost saga for developer\youtube\tutorial\source\src\lsclient\encryptvalue.h
xdata$x	SEGMENT
__unwindtable$??0?$CEncrypt@K@@QAE@ABV0@@Z DD 0ffffffffH
	DD	FLAT:__unwindfunclet$??0?$CEncrypt@K@@QAE@ABV0@@Z$0
__ehfuncinfo$??0?$CEncrypt@K@@QAE@ABV0@@Z DD 019930522H
	DD	01H
	DD	FLAT:__unwindtable$??0?$CEncrypt@K@@QAE@ABV0@@Z
	DD	2 DUP(00H)
	DD	2 DUP(00H)
	DD	00H
	DD	01H
; Function compile flags: /Ogsp
xdata$x	ENDS
;	COMDAT ??0?$CEncrypt@K@@QAE@ABV0@@Z
_TEXT	SEGMENT
_this$ = -16						; size = 4
__$EHRec$ = -12						; size = 12
_value$528471 = 8					; size = 4
_value$528466 = 8					; size = 4
_inValue$ = 8						; size = 4
??0?$CEncrypt@K@@QAE@ABV0@@Z PROC			; CEncrypt<unsigned long>::CEncrypt<unsigned long>, COMDAT
; _this$ = ecx

; 120  : 	CEncrypt( const CEncrypt<type> &inValue )   // 선언과 동시에 값을 대입하기 위해서

  00000	6a 04		 push	 4
  00002	b8 00 00 00 00	 mov	 eax, __ehhandler$??0?$CEncrypt@K@@QAE@ABV0@@Z
  00007	e8 00 00 00 00	 call	 __EH_prolog3
  0000c	8b f1		 mov	 esi, ecx
  0000e	89 75 f0	 mov	 DWORD PTR _this$[ebp], esi
  00011	8d 4e 0c	 lea	 ecx, DWORD PTR [esi+12]
  00014	c7 06 00 00 00
	00		 mov	 DWORD PTR [esi], OFFSET ??_7?$CEncrypt@K@@6B@
  0001a	e8 00 00 00 00	 call	 ??0ccddaabb@@QAE@XZ	; ccddaabb::ccddaabb
  0001f	83 65 fc 00	 and	 DWORD PTR __$EHRec$[ebp+8], 0

; 121  : 	{
; 122  : 		Init();

  00023	8b ce		 mov	 ecx, esi
  00025	e8 00 00 00 00	 call	 ?Init@?$CEncrypt@K@@AAEXXZ ; CEncrypt<unsigned long>::Init

; 123  : 		*this = inValue;

  0002a	8b 4d 08	 mov	 ecx, DWORD PTR _inValue$[ebp]
  0002d	8d 45 08	 lea	 eax, DWORD PTR _value$528466[ebp]
  00030	50		 push	 eax
  00031	e8 00 00 00 00	 call	 ?DecryptValueToPool@?$CEncrypt@K@@QAEXPAK@Z ; CEncrypt<unsigned long>::DecryptValueToPool
  00036	8b 45 08	 mov	 eax, DWORD PTR _value$528466[ebp]
  00039	89 45 08	 mov	 DWORD PTR _value$528471[ebp], eax
  0003c	8d 45 08	 lea	 eax, DWORD PTR _value$528471[ebp]
  0003f	50		 push	 eax
  00040	8b ce		 mov	 ecx, esi
  00042	e8 00 00 00 00	 call	 ?EncryptValueToPool@?$CEncrypt@K@@AAEXPBD@Z ; CEncrypt<unsigned long>::EncryptValueToPool

; 124  : 	}

  00047	8b c6		 mov	 eax, esi
  00049	e8 00 00 00 00	 call	 __EH_epilog3
  0004e	c2 04 00	 ret	 4
_TEXT	ENDS
;	COMDAT text$x
text$x	SEGMENT
__unwindfunclet$??0?$CEncrypt@K@@QAE@ABV0@@Z$0:
  00000	8b 4d f0	 mov	 ecx, DWORD PTR _this$[ebp]
  00003	83 c1 0c	 add	 ecx, 12			; 0000000cH
  00006	e9 00 00 00 00	 jmp	 ??1ccddaabb@@UAE@XZ	; ccddaabb::~ccddaabb
__ehhandler$??0?$CEncrypt@K@@QAE@ABV0@@Z:
  0000b	8b 54 24 08	 mov	 edx, DWORD PTR [esp+8]
  0000f	8d 42 0c	 lea	 eax, DWORD PTR [edx+12]
  00012	8b 4a ec	 mov	 ecx, DWORD PTR [edx-20]
  00015	33 c8		 xor	 ecx, eax
  00017	e8 00 00 00 00	 call	 @__security_check_cookie@4
  0001c	b8 00 00 00 00	 mov	 eax, OFFSET __ehfuncinfo$??0?$CEncrypt@K@@QAE@ABV0@@Z
  00021	e9 00 00 00 00	 jmp	 ___CxxFrameHandler3
text$x	ENDS
??0?$CEncrypt@K@@QAE@ABV0@@Z ENDP			; CEncrypt<unsigned long>::CEncrypt<unsigned long>
PUBLIC	??0?$CEncrypt@_N@@QAE@ABV0@@Z			; CEncrypt<bool>::CEncrypt<bool>
;	COMDAT xdata$x
xdata$x	SEGMENT
__unwindtable$??0?$CEncrypt@_N@@QAE@ABV0@@Z DD 0ffffffffH
	DD	FLAT:__unwindfunclet$??0?$CEncrypt@_N@@QAE@ABV0@@Z$0
__ehfuncinfo$??0?$CEncrypt@_N@@QAE@ABV0@@Z DD 019930522H
	DD	01H
	DD	FLAT:__unwindtable$??0?$CEncrypt@_N@@QAE@ABV0@@Z
	DD	2 DUP(00H)
	DD	2 DUP(00H)
	DD	00H
	DD	01H
; Function compile flags: /Ogsp
xdata$x	ENDS
;	COMDAT ??0?$CEncrypt@_N@@QAE@ABV0@@Z
_TEXT	SEGMENT
_this$ = -16						; size = 4
__$EHRec$ = -12						; size = 12
_inValue$ = 8						; size = 4
_value$528490 = 11					; size = 1
_value$528485 = 11					; size = 1
??0?$CEncrypt@_N@@QAE@ABV0@@Z PROC			; CEncrypt<bool>::CEncrypt<bool>, COMDAT
; _this$ = ecx

; 120  : 	CEncrypt( const CEncrypt<type> &inValue )   // 선언과 동시에 값을 대입하기 위해서

  00000	6a 04		 push	 4
  00002	b8 00 00 00 00	 mov	 eax, __ehhandler$??0?$CEncrypt@_N@@QAE@ABV0@@Z
  00007	e8 00 00 00 00	 call	 __EH_prolog3
  0000c	8b f1		 mov	 esi, ecx
  0000e	89 75 f0	 mov	 DWORD PTR _this$[ebp], esi
  00011	8d 4e 0c	 lea	 ecx, DWORD PTR [esi+12]
  00014	c7 06 00 00 00
	00		 mov	 DWORD PTR [esi], OFFSET ??_7?$CEncrypt@_N@@6B@
  0001a	e8 00 00 00 00	 call	 ??0ccddaabb@@QAE@XZ	; ccddaabb::ccddaabb
  0001f	83 65 fc 00	 and	 DWORD PTR __$EHRec$[ebp+8], 0

; 121  : 	{
; 122  : 		Init();

  00023	8b ce		 mov	 ecx, esi
  00025	e8 00 00 00 00	 call	 ?Init@?$CEncrypt@_N@@AAEXXZ ; CEncrypt<bool>::Init

; 123  : 		*this = inValue;

  0002a	8b 4d 08	 mov	 ecx, DWORD PTR _inValue$[ebp]
  0002d	8d 45 0b	 lea	 eax, DWORD PTR _value$528485[ebp]
  00030	50		 push	 eax
  00031	e8 00 00 00 00	 call	 ?DecryptValueToPool@?$CEncrypt@_N@@QAEXPA_N@Z ; CEncrypt<bool>::DecryptValueToPool
  00036	8a 45 0b	 mov	 al, BYTE PTR _value$528485[ebp]
  00039	88 45 0b	 mov	 BYTE PTR _value$528490[ebp], al
  0003c	8d 45 0b	 lea	 eax, DWORD PTR _value$528490[ebp]
  0003f	50		 push	 eax
  00040	8b ce		 mov	 ecx, esi
  00042	e8 00 00 00 00	 call	 ?EncryptValueToPool@?$CEncrypt@_N@@AAEXPBD@Z ; CEncrypt<bool>::EncryptValueToPool

; 124  : 	}

  00047	8b c6		 mov	 eax, esi
  00049	e8 00 00 00 00	 call	 __EH_epilog3
  0004e	c2 04 00	 ret	 4
_TEXT	ENDS
;	COMDAT text$x
text$x	SEGMENT
__unwindfunclet$??0?$CEncrypt@_N@@QAE@ABV0@@Z$0:
  00000	8b 4d f0	 mov	 ecx, DWORD PTR _this$[ebp]
  00003	83 c1 0c	 add	 ecx, 12			; 0000000cH
  00006	e9 00 00 00 00	 jmp	 ??1ccddaabb@@UAE@XZ	; ccddaabb::~ccddaabb
__ehhandler$??0?$CEncrypt@_N@@QAE@ABV0@@Z:
  0000b	8b 54 24 08	 mov	 edx, DWORD PTR [esp+8]
  0000f	8d 42 0c	 lea	 eax, DWORD PTR [edx+12]
  00012	8b 4a ec	 mov	 ecx, DWORD PTR [edx-20]
  00015	33 c8		 xor	 ecx, eax
  00017	e8 00 00 00 00	 call	 @__security_check_cookie@4
  0001c	b8 00 00 00 00	 mov	 eax, OFFSET __ehfuncinfo$??0?$CEncrypt@_N@@QAE@ABV0@@Z
  00021	e9 00 00 00 00	 jmp	 ___CxxFrameHandler3
text$x	ENDS
??0?$CEncrypt@_N@@QAE@ABV0@@Z ENDP			; CEncrypt<bool>::CEncrypt<bool>
PUBLIC	?_Grow_to@?$vector@VioHashString@@V?$allocator@VioHashString@@@std@@@std@@IBEII@Z ; std::vector<ioHashString,std::allocator<ioHashString> >::_Grow_to
; Function compile flags: /Ogsp
; File c:\program files (x86)\microsoft visual studio 10.0\vc\include\vector
;	COMDAT ?_Grow_to@?$vector@VioHashString@@V?$allocator@VioHashString@@@std@@@std@@IBEII@Z
_TEXT	SEGMENT
__Count$ = 8						; size = 4
?_Grow_to@?$vector@VioHashString@@V?$allocator@VioHashString@@@std@@@std@@IBEII@Z PROC ; std::vector<ioHashString,std::allocator<ioHashString> >::_Grow_to, COMDAT
; _this$ = ecx

; 1274 : 		{	// grow by 50% or at least to _Count

  00000	55		 push	 ebp
  00001	8b ec		 mov	 ebp, esp

; 1275 : 		size_type _Capacity = capacity();

  00003	8b 41 08	 mov	 eax, DWORD PTR [ecx+8]
  00006	2b 01		 sub	 eax, DWORD PTR [ecx]

; 1276 : 
; 1277 : 		_Capacity = max_size() - _Capacity / 2 < _Capacity
; 1278 : 			? 0 : _Capacity + _Capacity / 2;	// try to grow by 50%

  00008	ba ff ff ff 0f	 mov	 edx, 268435455		; 0fffffffH
  0000d	c1 f8 04	 sar	 eax, 4
  00010	8b c8		 mov	 ecx, eax
  00012	d1 e9		 shr	 ecx, 1
  00014	2b d1		 sub	 edx, ecx
  00016	3b d0		 cmp	 edx, eax
  00018	73 04		 jae	 SHORT $LN4@Grow_to
  0001a	33 c0		 xor	 eax, eax
  0001c	eb 02		 jmp	 SHORT $LN5@Grow_to
$LN4@Grow_to:
  0001e	03 c1		 add	 eax, ecx
$LN5@Grow_to:

; 1279 : 		if (_Capacity < _Count)

  00020	3b 45 08	 cmp	 eax, DWORD PTR __Count$[ebp]

; 1280 : 			_Capacity = _Count;

  00023	0f 42 45 08	 cmovb	 eax, DWORD PTR __Count$[ebp]

; 1281 : 		return (_Capacity);
; 1282 : 		}

  00027	5d		 pop	 ebp
  00028	c2 04 00	 ret	 4
?_Grow_to@?$vector@VioHashString@@V?$allocator@VioHashString@@@std@@@std@@IBEII@Z ENDP ; std::vector<ioHashString,std::allocator<ioHashString> >::_Grow_to
_TEXT	ENDS
PUBLIC	??$_Cons_val@V?$allocator@VioHashString@@@std@@VioHashString@@AAV3@@std@@YAXAAV?$allocator@VioHashString@@@0@PAVioHashString@@AAV2@@Z ; std::_Cons_val<std::allocator<ioHashString>,ioHashString,ioHashString &>
; Function compile flags: /Ogsp
; File c:\program files (x86)\microsoft visual studio 10.0\vc\include\xmemory
;	COMDAT ??$_Cons_val@V?$allocator@VioHashString@@@std@@VioHashString@@AAV3@@std@@YAXAAV?$allocator@VioHashString@@@0@PAVioHashString@@AAV2@@Z
_TEXT	SEGMENT
__Alval$ = 8						; size = 4
__Pdest$ = 12						; size = 4
__Src$ = 16						; size = 4
??$_Cons_val@V?$allocator@VioHashString@@@std@@VioHashString@@AAV3@@std@@YAXAAV?$allocator@VioHashString@@@0@PAVioHashString@@AAV2@@Z PROC ; std::_Cons_val<std::allocator<ioHashString>,ioHashString,ioHashString &>, COMDAT

; 279  : 	{	// construct using allocator

  00000	55		 push	 ebp
  00001	8b ec		 mov	 ebp, esp

; 280  : 	_Alval.construct(_Pdest, _STD forward<_Ty2>(_Src));

  00003	ff 75 10	 push	 DWORD PTR __Src$[ebp]
  00006	8b 4d 08	 mov	 ecx, DWORD PTR __Alval$[ebp]
  00009	ff 75 0c	 push	 DWORD PTR __Pdest$[ebp]
  0000c	e8 00 00 00 00	 call	 ??$construct@AAVioHashString@@@?$allocator@VioHashString@@@std@@QAEXPAVioHashString@@AAV2@@Z ; std::allocator<ioHashString>::construct<ioHashString &>

; 281  : 	}

  00011	5d		 pop	 ebp
  00012	c3		 ret	 0
??$_Cons_val@V?$allocator@VioHashString@@@std@@VioHashString@@AAV3@@std@@YAXAAV?$allocator@VioHashString@@@0@PAVioHashString@@AAV2@@Z ENDP ; std::_Cons_val<std::allocator<ioHashString>,ioHashString,ioHashString &>
_TEXT	ENDS
PUBLIC	??0?$vector@VioHashString@@V?$allocator@VioHashString@@@std@@@std@@QAE@XZ ; std::vector<ioHashString,std::allocator<ioHashString> >::vector<ioHashString,std::allocator<ioHashString> >
; Function compile flags: /Ogsp
; File c:\program files (x86)\microsoft visual studio 10.0\vc\include\vector
;	COMDAT ??0?$vector@VioHashString@@V?$allocator@VioHashString@@@std@@@std@@QAE@XZ
_TEXT	SEGMENT
??0?$vector@VioHashString@@V?$allocator@VioHashString@@@std@@@std@@QAE@XZ PROC ; std::vector<ioHashString,std::allocator<ioHashString> >::vector<ioHashString,std::allocator<ioHashString> >, COMDAT
; _this$ = ecx

; 507  : 		{	// construct empty vector

  00000	8b c1		 mov	 eax, ecx
  00002	33 c9		 xor	 ecx, ecx
  00004	89 08		 mov	 DWORD PTR [eax], ecx
  00006	89 48 04	 mov	 DWORD PTR [eax+4], ecx
  00009	89 48 08	 mov	 DWORD PTR [eax+8], ecx

; 508  : 		}

  0000c	c3		 ret	 0
??0?$vector@VioHashString@@V?$allocator@VioHashString@@@std@@@std@@QAE@XZ ENDP ; std::vector<ioHashString,std::allocator<ioHashString> >::vector<ioHashString,std::allocator<ioHashString> >
_TEXT	ENDS
PUBLIC	?_Buy@?$vector@VioHashString@@V?$allocator@VioHashString@@@std@@@std@@IAE_NI@Z ; std::vector<ioHashString,std::allocator<ioHashString> >::_Buy
; Function compile flags: /Ogsp
;	COMDAT ?_Buy@?$vector@VioHashString@@V?$allocator@VioHashString@@@std@@@std@@IAE_NI@Z
_TEXT	SEGMENT
__Capacity$ = 8						; size = 4
?_Buy@?$vector@VioHashString@@V?$allocator@VioHashString@@@std@@@std@@IAE_NI@Z PROC ; std::vector<ioHashString,std::allocator<ioHashString> >::_Buy, COMDAT
; _this$ = ecx

; 1250 : 		{	// allocate array with _Capacity elements

  00000	55		 push	 ebp
  00001	8b ec		 mov	 ebp, esp
  00003	56		 push	 esi

; 1251 : 		this->_Myfirst = 0;

  00004	33 c0		 xor	 eax, eax
  00006	57		 push	 edi

; 1252 : 		this->_Mylast = 0;
; 1253 : 		this->_Myend = 0;
; 1254 : 
; 1255 : 		if (_Capacity == 0)

  00007	8b 7d 08	 mov	 edi, DWORD PTR __Capacity$[ebp]
  0000a	8b f1		 mov	 esi, ecx
  0000c	89 06		 mov	 DWORD PTR [esi], eax
  0000e	89 46 04	 mov	 DWORD PTR [esi+4], eax
  00011	89 46 08	 mov	 DWORD PTR [esi+8], eax
  00014	3b f8		 cmp	 edi, eax
  00016	75 04		 jne	 SHORT $LN4@Buy

; 1256 : 			return (false);

  00018	32 c0		 xor	 al, al
  0001a	eb 2b		 jmp	 SHORT $LN5@Buy
$LN4@Buy:

; 1257 : 		else if (max_size() < _Capacity)

  0001c	81 ff ff ff ff
	0f		 cmp	 edi, 268435455		; 0fffffffH
  00022	76 0b		 jbe	 SHORT $LN2@Buy

; 1258 : 			_Xlen();	// result too long

  00024	68 00 00 00 00	 push	 OFFSET ??_C@_0BD@OLBABOEK@vector?$DMT?$DO?5too?5long?$AA@
  00029	ff 15 00 00 00
	00		 call	 DWORD PTR __imp_?_Xlength_error@std@@YAXPBD@Z
$LN19@Buy:
$LN2@Buy:

; 1259 : 		else
; 1260 : 			{	// nonempty array, allocate storage
; 1261 : 			this->_Myfirst = this->_Alval.allocate(_Capacity);

  0002f	50		 push	 eax
  00030	57		 push	 edi
  00031	e8 00 00 00 00	 call	 ??$_Allocate@VioHashString@@@std@@YAPAVioHashString@@IPAV1@@Z ; std::_Allocate<ioHashString>

; 1262 : 			this->_Mylast = this->_Myfirst;
; 1263 : 			this->_Myend = this->_Myfirst + _Capacity;

  00036	c1 e7 04	 shl	 edi, 4
  00039	03 f8		 add	 edi, eax
  0003b	59		 pop	 ecx
  0003c	89 06		 mov	 DWORD PTR [esi], eax
  0003e	89 46 04	 mov	 DWORD PTR [esi+4], eax
  00041	59		 pop	 ecx
  00042	89 7e 08	 mov	 DWORD PTR [esi+8], edi

; 1264 : 			}
; 1265 : 		return (true);

  00045	b0 01		 mov	 al, 1
$LN5@Buy:
  00047	5f		 pop	 edi
  00048	5e		 pop	 esi

; 1266 : 		}

  00049	5d		 pop	 ebp
  0004a	c2 04 00	 ret	 4
$LN18@Buy:
?_Buy@?$vector@VioHashString@@V?$allocator@VioHashString@@@std@@@std@@IAE_NI@Z ENDP ; std::vector<ioHashString,std::allocator<ioHashString> >::_Buy
_TEXT	ENDS
PUBLIC	??9?$_Vector_const_iterator@V?$_Vector_val@VioHashString@@V?$allocator@VioHashString@@@std@@@std@@@std@@QBE_NABV01@@Z ; std::_Vector_const_iterator<std::_Vector_val<ioHashString,std::allocator<ioHashString> > >::operator!=
; Function compile flags: /Ogsp
;	COMDAT ??9?$_Vector_const_iterator@V?$_Vector_val@VioHashString@@V?$allocator@VioHashString@@@std@@@std@@@std@@QBE_NABV01@@Z
_TEXT	SEGMENT
__Right$ = 8						; size = 4
??9?$_Vector_const_iterator@V?$_Vector_val@VioHashString@@V?$allocator@VioHashString@@@std@@@std@@@std@@QBE_NABV01@@Z PROC ; std::_Vector_const_iterator<std::_Vector_val<ioHashString,std::allocator<ioHashString> > >::operator!=, COMDAT
; _this$ = ecx

; 207  : 		{	// test for iterator inequality

  00000	55		 push	 ebp
  00001	8b ec		 mov	 ebp, esp

; 208  : 		return (!(*this == _Right));

  00003	8b 01		 mov	 eax, DWORD PTR [ecx]
  00005	8b 55 08	 mov	 edx, DWORD PTR __Right$[ebp]
  00008	33 c9		 xor	 ecx, ecx
  0000a	3b 02		 cmp	 eax, DWORD PTR [edx]
  0000c	0f 95 c0	 setne	 al

; 209  : 		}

  0000f	5d		 pop	 ebp
  00010	c2 04 00	 ret	 4
??9?$_Vector_const_iterator@V?$_Vector_val@VioHashString@@V?$allocator@VioHashString@@@std@@@std@@@std@@QBE_NABV01@@Z ENDP ; std::_Vector_const_iterator<std::_Vector_val<ioHashString,std::allocator<ioHashString> > >::operator!=
_TEXT	ENDS
PUBLIC	??$_Move@PAVioHashString@@PAV1@@std@@YAPAVioHashString@@PAV1@00@Z ; std::_Move<ioHashString *,ioHashString *>
; Function compile flags: /Ogsp
; File c:\program files (x86)\microsoft visual studio 10.0\vc\include\xutility
;	COMDAT ??$_Move@PAVioHashString@@PAV1@@std@@YAPAVioHashString@@PAV1@00@Z
_TEXT	SEGMENT
__Cat$528586 = -4					; size = 1
__First$ = 8						; size = 4
__Last$ = 12						; size = 4
__Dest$ = 16						; size = 4
??$_Move@PAVioHashString@@PAV1@@std@@YAPAVioHashString@@PAV1@00@Z PROC ; std::_Move<ioHashString *,ioHashString *>, COMDAT

; 2533 : 	{	// move [_First, _Last) to [_Dest, ...), unchecked

  00000	55		 push	 ebp
  00001	8b ec		 mov	 ebp, esp
  00003	51		 push	 ecx

; 2534 : 	return (_Move(_First, _Last,
; 2535 : 		_Dest, _Ptr_cat(_First, _Dest)));

  00004	ff 75 fc	 push	 DWORD PTR __Cat$528586[ebp]
  00007	ff 75 10	 push	 DWORD PTR __Dest$[ebp]
  0000a	ff 75 0c	 push	 DWORD PTR __Last$[ebp]
  0000d	ff 75 08	 push	 DWORD PTR __First$[ebp]
  00010	e8 00 00 00 00	 call	 ??$_Move@PAVioHashString@@PAV1@@std@@YAPAVioHashString@@PAV1@00U_Nonscalar_ptr_iterator_tag@0@@Z ; std::_Move<ioHashString *,ioHashString *>
  00015	83 c4 10	 add	 esp, 16			; 00000010H

; 2536 : 	}

  00018	c9		 leave
  00019	c3		 ret	 0
??$_Move@PAVioHashString@@PAV1@@std@@YAPAVioHashString@@PAV1@00@Z ENDP ; std::_Move<ioHashString *,ioHashString *>
_TEXT	ENDS
PUBLIC	?destroy@?$allocator@VioHashString@@@std@@QAEXPAVioHashString@@@Z ; std::allocator<ioHashString>::destroy
; Function compile flags: /Ogsp
; File c:\program files (x86)\microsoft visual studio 10.0\vc\include\xmemory
;	COMDAT ?destroy@?$allocator@VioHashString@@@std@@QAEXPAVioHashString@@@Z
_TEXT	SEGMENT
__Ptr$ = 8						; size = 4
?destroy@?$allocator@VioHashString@@@std@@QAEXPAVioHashString@@@Z PROC ; std::allocator<ioHashString>::destroy, COMDAT
; _this$ = ecx

; 212  : 		{	// destroy object at _Ptr

  00000	55		 push	 ebp
  00001	8b ec		 mov	 ebp, esp

; 213  : 		_Destroy(_Ptr);

  00003	8b 4d 08	 mov	 ecx, DWORD PTR __Ptr$[ebp]
  00006	ff 15 00 00 00
	00		 call	 DWORD PTR __imp_??1ioHashString@@QAE@XZ

; 214  : 		}

  0000c	5d		 pop	 ebp
  0000d	c2 04 00	 ret	 4
?destroy@?$allocator@VioHashString@@@std@@QAEXPAVioHashString@@@Z ENDP ; std::allocator<ioHashString>::destroy
_TEXT	ENDS
PUBLIC	??$_Cons_val@V?$allocator@VioHashString@@@std@@VioHashString@@ABV3@@std@@YAXAAV?$allocator@VioHashString@@@0@PAVioHashString@@ABV2@@Z ; std::_Cons_val<std::allocator<ioHashString>,ioHashString,ioHashString const &>
; Function compile flags: /Ogsp
;	COMDAT ??$_Cons_val@V?$allocator@VioHashString@@@std@@VioHashString@@ABV3@@std@@YAXAAV?$allocator@VioHashString@@@0@PAVioHashString@@ABV2@@Z
_TEXT	SEGMENT
__Alval$ = 8						; size = 4
__Pdest$ = 12						; size = 4
__Src$ = 16						; size = 4
??$_Cons_val@V?$allocator@VioHashString@@@std@@VioHashString@@ABV3@@std@@YAXAAV?$allocator@VioHashString@@@0@PAVioHashString@@ABV2@@Z PROC ; std::_Cons_val<std::allocator<ioHashString>,ioHashString,ioHashString const &>, COMDAT

; 279  : 	{	// construct using allocator

  00000	55		 push	 ebp
  00001	8b ec		 mov	 ebp, esp

; 280  : 	_Alval.construct(_Pdest, _STD forward<_Ty2>(_Src));

  00003	ff 75 10	 push	 DWORD PTR __Src$[ebp]
  00006	ff 75 0c	 push	 DWORD PTR __Pdest$[ebp]
  00009	e8 00 00 00 00	 call	 ??$_Construct@VioHashString@@ABV1@@std@@YAXPAVioHashString@@ABV1@@Z ; std::_Construct<ioHashString,ioHashString const &>
  0000e	59		 pop	 ecx
  0000f	59		 pop	 ecx

; 281  : 	}

  00010	5d		 pop	 ebp
  00011	c3		 ret	 0
??$_Cons_val@V?$allocator@VioHashString@@@std@@VioHashString@@ABV3@@std@@YAXAAV?$allocator@VioHashString@@@0@PAVioHashString@@ABV2@@Z ENDP ; std::_Cons_val<std::allocator<ioHashString>,ioHashString,ioHashString const &>
_TEXT	ENDS
PUBLIC	?ProcessBuff@ioMultiFlyJumpBuff@@UAEXM@Z	; ioMultiFlyJumpBuff::ProcessBuff
EXTRN	?CheckCallingAreaWeapon@ioBuff@@IAEXXZ:PROC	; ioBuff::CheckCallingAreaWeapon
EXTRN	?ProcessBuff@ioBuff@@UAEXM@Z:PROC		; ioBuff::ProcessBuff
; Function compile flags: /Ogsp
; File d:\lost saga for developer\youtube\tutorial\source\src\lsclient\iomultiflyjumpbuff.cpp
;	COMDAT ?ProcessBuff@ioMultiFlyJumpBuff@@UAEXM@Z
_TEXT	SEGMENT
_fTimePerSec$ = 8					; size = 4
?ProcessBuff@ioMultiFlyJumpBuff@@UAEXM@Z PROC		; ioMultiFlyJumpBuff::ProcessBuff, COMDAT
; _this$ = ecx

; 189  : {

  00000	55		 push	 ebp
  00001	8b ec		 mov	 ebp, esp
  00003	56		 push	 esi
  00004	8b f1		 mov	 esi, ecx

; 190  : 	switch( m_iOperationType )

  00006	8b 86 d0 03 00
	00		 mov	 eax, DWORD PTR [esi+976]
  0000c	83 e8 00	 sub	 eax, 0
  0000f	74 19		 je	 SHORT $LN1@ProcessBuf
  00011	48		 dec	 eax
  00012	74 04		 je	 SHORT $LN2@ProcessBuf
  00014	48		 dec	 eax
  00015	48		 dec	 eax
  00016	75 1e		 jne	 SHORT $LN4@ProcessBuf
$LN2@ProcessBuf:

; 191  : 	{
; 192  : 	case OT_SWITCH:
; 193  : 		break;
; 194  : 	case OT_DELAY:
; 195  : 	case OT_ACTIVE:
; 196  : 		ioBuff::ProcessBuff( fTimePerSec );

  00018	f3 0f 10 45 08	 movss	 xmm0, DWORD PTR _fTimePerSec$[ebp]
  0001d	51		 push	 ecx
  0001e	f3 0f 11 04 24	 movss	 DWORD PTR [esp], xmm0
  00023	e8 00 00 00 00	 call	 ?ProcessBuff@ioBuff@@UAEXM@Z ; ioBuff::ProcessBuff

; 197  : 		break;

  00028	eb 0c		 jmp	 SHORT $LN4@ProcessBuf
$LN1@ProcessBuf:

; 198  : 	case OT_PASSIVE:
; 199  : 		ProcessPassive();

  0002a	e8 00 00 00 00	 call	 ?ProcessPassive@ioMultiFlyJumpBuff@@IAEXXZ ; ioMultiFlyJumpBuff::ProcessPassive

; 200  : 		CheckCallingAreaWeapon();

  0002f	8b ce		 mov	 ecx, esi
  00031	e8 00 00 00 00	 call	 ?CheckCallingAreaWeapon@ioBuff@@IAEXXZ ; ioBuff::CheckCallingAreaWeapon
$LN4@ProcessBuf:
  00036	5e		 pop	 esi

; 201  : 		break;
; 202  : 	}
; 203  : }

  00037	5d		 pop	 ebp
  00038	c2 04 00	 ret	 4
?ProcessBuff@ioMultiFlyJumpBuff@@UAEXM@Z ENDP		; ioMultiFlyJumpBuff::ProcessBuff
_TEXT	ENDS
PUBLIC	??$_Dest_val@V?$allocator@VioHashString@@@std@@VioHashString@@@std@@YAXAAV?$allocator@VioHashString@@@0@PAVioHashString@@@Z ; std::_Dest_val<std::allocator<ioHashString>,ioHashString>
; Function compile flags: /Ogsp
; File c:\program files (x86)\microsoft visual studio 10.0\vc\include\xmemory
;	COMDAT ??$_Dest_val@V?$allocator@VioHashString@@@std@@VioHashString@@@std@@YAXAAV?$allocator@VioHashString@@@0@PAVioHashString@@@Z
_TEXT	SEGMENT
__Alval$ = 8						; size = 4
__Pdest$ = 12						; size = 4
??$_Dest_val@V?$allocator@VioHashString@@@std@@VioHashString@@@std@@YAXAAV?$allocator@VioHashString@@@0@PAVioHashString@@@Z PROC ; std::_Dest_val<std::allocator<ioHashString>,ioHashString>, COMDAT

; 286  : 	{	// destroy using allocator

  00000	55		 push	 ebp
  00001	8b ec		 mov	 ebp, esp

; 287  : 	_Alval.destroy(_Pdest);

  00003	8b 4d 0c	 mov	 ecx, DWORD PTR __Pdest$[ebp]

; 288  : 	}

  00006	5d		 pop	 ebp

; 287  : 	_Alval.destroy(_Pdest);

  00007	ff 25 00 00 00
	00		 jmp	 DWORD PTR __imp_??1ioHashString@@QAE@XZ
??$_Dest_val@V?$allocator@VioHashString@@@std@@VioHashString@@@std@@YAXAAV?$allocator@VioHashString@@@0@PAVioHashString@@@Z ENDP ; std::_Dest_val<std::allocator<ioHashString>,ioHashString>
_TEXT	ENDS
PUBLIC	??$_Uninit_copy@PAVioHashString@@PAV1@V?$allocator@VioHashString@@@std@@@std@@YAPAVioHashString@@PAV1@00AAV?$allocator@VioHashString@@@0@U_Nonscalar_ptr_iterator_tag@0@@Z ; std::_Uninit_copy<ioHashString *,ioHashString *,std::allocator<ioHashString> >
EXTRN	__EH_prolog3_catch:PROC
;	COMDAT xdata$x
; File c:\program files (x86)\microsoft visual studio 10.0\vc\include\vector
xdata$x	SEGMENT
__catchsym$??$_Uninit_copy@PAVioHashString@@PAV1@V?$allocator@VioHashString@@@std@@@std@@YAPAVioHashString@@PAV1@00AAV?$allocator@VioHashString@@@0@U_Nonscalar_ptr_iterator_tag@0@@Z$2 DD 040H
	DD	00H
	DD	00H
	DD	FLAT:__catch$??$_Uninit_copy@PAVioHashString@@PAV1@V?$allocator@VioHashString@@@std@@@std@@YAPAVioHashString@@PAV1@00AAV?$allocator@VioHashString@@@0@U_Nonscalar_ptr_iterator_tag@0@@Z$0
__unwindtable$??$_Uninit_copy@PAVioHashString@@PAV1@V?$allocator@VioHashString@@@std@@@std@@YAPAVioHashString@@PAV1@00AAV?$allocator@VioHashString@@@0@U_Nonscalar_ptr_iterator_tag@0@@Z DD 0ffffffffH
	DD	00H
	DD	0ffffffffH
	DD	00H
__tryblocktable$??$_Uninit_copy@PAVioHashString@@PAV1@V?$allocator@VioHashString@@@std@@@std@@YAPAVioHashString@@PAV1@00AAV?$allocator@VioHashString@@@0@U_Nonscalar_ptr_iterator_tag@0@@Z DD 00H
	DD	00H
	DD	01H
	DD	01H
	DD	FLAT:__catchsym$??$_Uninit_copy@PAVioHashString@@PAV1@V?$allocator@VioHashString@@@std@@@std@@YAPAVioHashString@@PAV1@00AAV?$allocator@VioHashString@@@0@U_Nonscalar_ptr_iterator_tag@0@@Z$2
__ehfuncinfo$??$_Uninit_copy@PAVioHashString@@PAV1@V?$allocator@VioHashString@@@std@@@std@@YAPAVioHashString@@PAV1@00AAV?$allocator@VioHashString@@@0@U_Nonscalar_ptr_iterator_tag@0@@Z DD 019930522H
	DD	02H
	DD	FLAT:__unwindtable$??$_Uninit_copy@PAVioHashString@@PAV1@V?$allocator@VioHashString@@@std@@@std@@YAPAVioHashString@@PAV1@00AAV?$allocator@VioHashString@@@0@U_Nonscalar_ptr_iterator_tag@0@@Z
	DD	01H
	DD	FLAT:__tryblocktable$??$_Uninit_copy@PAVioHashString@@PAV1@V?$allocator@VioHashString@@@std@@@std@@YAPAVioHashString@@PAV1@00AAV?$allocator@VioHashString@@@0@U_Nonscalar_ptr_iterator_tag@0@@Z
	DD	2 DUP(00H)
	DD	00H
	DD	01H
; Function compile flags: /Ogsp
; File c:\program files (x86)\microsoft visual studio 10.0\vc\include\memory
xdata$x	ENDS
;	COMDAT ??$_Uninit_copy@PAVioHashString@@PAV1@V?$allocator@VioHashString@@@std@@@std@@YAPAVioHashString@@PAV1@00AAV?$allocator@VioHashString@@@0@U_Nonscalar_ptr_iterator_tag@0@@Z
_TEXT	SEGMENT
__Next$ = -20						; size = 4
__$EHRec$ = -16						; size = 16
__First$ = 8						; size = 4
__Last$ = 12						; size = 4
__Dest$ = 16						; size = 4
__Al$ = 20						; size = 4
___formal$ = 24						; size = 1
??$_Uninit_copy@PAVioHashString@@PAV1@V?$allocator@VioHashString@@@std@@@std@@YAPAVioHashString@@PAV1@00AAV?$allocator@VioHashString@@@0@U_Nonscalar_ptr_iterator_tag@0@@Z PROC ; std::_Uninit_copy<ioHashString *,ioHashString *,std::allocator<ioHashString> >, COMDAT

; 369  : 	{	// copy [_First, _Last) to raw _Dest, using _Al, arbitrary type

  00000	6a 08		 push	 8
  00002	b8 00 00 00 00	 mov	 eax, __ehhandler$??$_Uninit_copy@PAVioHashString@@PAV1@V?$allocator@VioHashString@@@std@@@std@@YAPAVioHashString@@PAV1@00AAV?$allocator@VioHashString@@@0@U_Nonscalar_ptr_iterator_tag@0@@Z
  00007	e8 00 00 00 00	 call	 __EH_prolog3_catch

; 370  : 	_DEBUG_RANGE(_First, _Last);
; 371  : 	_DEBUG_POINTER(_Dest);
; 372  : 	_FwdIt _Next = _Dest;

  0000c	8b 45 10	 mov	 eax, DWORD PTR __Dest$[ebp]

; 373  : 
; 374  : 	_TRY_BEGIN

  0000f	83 65 fc 00	 and	 DWORD PTR __$EHRec$[ebp+12], 0
  00013	8b 75 08	 mov	 esi, DWORD PTR __First$[ebp]
  00016	89 45 ec	 mov	 DWORD PTR __Next$[ebp], eax
$LL6@Uninit_cop:

; 375  : 	for (; _First != _Last; ++_Dest, ++_First)

  00019	3b 75 0c	 cmp	 esi, DWORD PTR __Last$[ebp]
  0001c	74 33		 je	 SHORT $LN4@Uninit_cop

; 376  : 		_Cons_val(_Al, _Dest, *_First);

  0001e	8b 4d 14	 mov	 ecx, DWORD PTR __Al$[ebp]
  00021	56		 push	 esi
  00022	ff 75 10	 push	 DWORD PTR __Dest$[ebp]
  00025	e8 00 00 00 00	 call	 ??$construct@AAVioHashString@@@?$allocator@VioHashString@@@std@@QAEXPAVioHashString@@AAV2@@Z ; std::allocator<ioHashString>::construct<ioHashString &>
  0002a	83 45 10 10	 add	 DWORD PTR __Dest$[ebp], 16 ; 00000010H
  0002e	83 c6 10	 add	 esi, 16			; 00000010H
  00031	eb e6		 jmp	 SHORT $LL6@Uninit_cop
__catch$??$_Uninit_copy@PAVioHashString@@PAV1@V?$allocator@VioHashString@@@std@@@std@@YAPAVioHashString@@PAV1@00AAV?$allocator@VioHashString@@@0@U_Nonscalar_ptr_iterator_tag@0@@Z$0:

; 377  : 	_CATCH_ALL
; 378  : 	for (; _Next != _Dest; ++_Next)

  00033	8b 75 ec	 mov	 esi, DWORD PTR __Next$[ebp]
  00036	eb 0b		 jmp	 SHORT $LN33@Uninit_cop
$LL3@Uninit_cop:

; 379  : 		_Dest_val(_Al, _Next);

  00038	8b ce		 mov	 ecx, esi
  0003a	ff 15 00 00 00
	00		 call	 DWORD PTR __imp_??1ioHashString@@QAE@XZ
  00040	83 c6 10	 add	 esi, 16			; 00000010H
$LN33@Uninit_cop:

; 377  : 	_CATCH_ALL
; 378  : 	for (; _Next != _Dest; ++_Next)

  00043	3b 75 10	 cmp	 esi, DWORD PTR __Dest$[ebp]
  00046	75 f0		 jne	 SHORT $LL3@Uninit_cop

; 380  : 	_RERAISE;

  00048	6a 00		 push	 0
  0004a	6a 00		 push	 0
  0004c	e8 00 00 00 00	 call	 __CxxThrowException@8
$LN34@Uninit_cop:
$LN4@Uninit_cop:

; 381  : 	_CATCH_END
; 382  : 	return (_Dest);

  00051	8b 45 10	 mov	 eax, DWORD PTR __Dest$[ebp]

; 383  : 	}

  00054	e8 00 00 00 00	 call	 __EH_epilog3
  00059	c3		 ret	 0
$LN32@Uninit_cop:
_TEXT	ENDS
;	COMDAT text$x
text$x	SEGMENT
__ehhandler$??$_Uninit_copy@PAVioHashString@@PAV1@V?$allocator@VioHashString@@@std@@@std@@YAPAVioHashString@@PAV1@00AAV?$allocator@VioHashString@@@0@U_Nonscalar_ptr_iterator_tag@0@@Z:
  00000	8b 54 24 08	 mov	 edx, DWORD PTR [esp+8]
  00004	8d 42 0c	 lea	 eax, DWORD PTR [edx+12]
  00007	8b 4a e8	 mov	 ecx, DWORD PTR [edx-24]
  0000a	33 c8		 xor	 ecx, eax
  0000c	e8 00 00 00 00	 call	 @__security_check_cookie@4
  00011	b8 00 00 00 00	 mov	 eax, OFFSET __ehfuncinfo$??$_Uninit_copy@PAVioHashString@@PAV1@V?$allocator@VioHashString@@@std@@@std@@YAPAVioHashString@@PAV1@00AAV?$allocator@VioHashString@@@0@U_Nonscalar_ptr_iterator_tag@0@@Z
  00016	e9 00 00 00 00	 jmp	 ___CxxFrameHandler3
text$x	ENDS
??$_Uninit_copy@PAVioHashString@@PAV1@V?$allocator@VioHashString@@@std@@@std@@YAPAVioHashString@@PAV1@00AAV?$allocator@VioHashString@@@0@U_Nonscalar_ptr_iterator_tag@0@@Z ENDP ; std::_Uninit_copy<ioHashString *,ioHashString *,std::allocator<ioHashString> >
PUBLIC	??$_Uninit_move@PAVioHashString@@PAV1@V?$allocator@VioHashString@@@std@@V1@@std@@YAPAVioHashString@@PAV1@00AAV?$allocator@VioHashString@@@0@0U_Nonscalar_ptr_iterator_tag@0@@Z ; std::_Uninit_move<ioHashString *,ioHashString *,std::allocator<ioHashString>,ioHashString>
;	COMDAT xdata$x
; File c:\program files (x86)\microsoft visual studio 10.0\vc\include\vector
xdata$x	SEGMENT
__catchsym$??$_Uninit_move@PAVioHashString@@PAV1@V?$allocator@VioHashString@@@std@@V1@@std@@YAPAVioHashString@@PAV1@00AAV?$allocator@VioHashString@@@0@0U_Nonscalar_ptr_iterator_tag@0@@Z$2 DD 040H
	DD	00H
	DD	00H
	DD	FLAT:__catch$??$_Uninit_move@PAVioHashString@@PAV1@V?$allocator@VioHashString@@@std@@V1@@std@@YAPAVioHashString@@PAV1@00AAV?$allocator@VioHashString@@@0@0U_Nonscalar_ptr_iterator_tag@0@@Z$0
__unwindtable$??$_Uninit_move@PAVioHashString@@PAV1@V?$allocator@VioHashString@@@std@@V1@@std@@YAPAVioHashString@@PAV1@00AAV?$allocator@VioHashString@@@0@0U_Nonscalar_ptr_iterator_tag@0@@Z DD 0ffffffffH
	DD	00H
	DD	0ffffffffH
	DD	00H
__tryblocktable$??$_Uninit_move@PAVioHashString@@PAV1@V?$allocator@VioHashString@@@std@@V1@@std@@YAPAVioHashString@@PAV1@00AAV?$allocator@VioHashString@@@0@0U_Nonscalar_ptr_iterator_tag@0@@Z DD 00H
	DD	00H
	DD	01H
	DD	01H
	DD	FLAT:__catchsym$??$_Uninit_move@PAVioHashString@@PAV1@V?$allocator@VioHashString@@@std@@V1@@std@@YAPAVioHashString@@PAV1@00AAV?$allocator@VioHashString@@@0@0U_Nonscalar_ptr_iterator_tag@0@@Z$2
__ehfuncinfo$??$_Uninit_move@PAVioHashString@@PAV1@V?$allocator@VioHashString@@@std@@V1@@std@@YAPAVioHashString@@PAV1@00AAV?$allocator@VioHashString@@@0@0U_Nonscalar_ptr_iterator_tag@0@@Z DD 019930522H
	DD	02H
	DD	FLAT:__unwindtable$??$_Uninit_move@PAVioHashString@@PAV1@V?$allocator@VioHashString@@@std@@V1@@std@@YAPAVioHashString@@PAV1@00AAV?$allocator@VioHashString@@@0@0U_Nonscalar_ptr_iterator_tag@0@@Z
	DD	01H
	DD	FLAT:__tryblocktable$??$_Uninit_move@PAVioHashString@@PAV1@V?$allocator@VioHashString@@@std@@V1@@std@@YAPAVioHashString@@PAV1@00AAV?$allocator@VioHashString@@@0@0U_Nonscalar_ptr_iterator_tag@0@@Z
	DD	2 DUP(00H)
	DD	00H
	DD	01H
; Function compile flags: /Ogsp
; File c:\program files (x86)\microsoft visual studio 10.0\vc\include\memory
xdata$x	ENDS
;	COMDAT ??$_Uninit_move@PAVioHashString@@PAV1@V?$allocator@VioHashString@@@std@@V1@@std@@YAPAVioHashString@@PAV1@00AAV?$allocator@VioHashString@@@0@0U_Nonscalar_ptr_iterator_tag@0@@Z
_TEXT	SEGMENT
__Next$ = -20						; size = 4
__$EHRec$ = -16						; size = 16
__First$ = 8						; size = 4
__Last$ = 12						; size = 4
__Dest$ = 16						; size = 4
__Al$ = 20						; size = 4
___formal$ = 24						; size = 4
___formal$ = 28						; size = 1
??$_Uninit_move@PAVioHashString@@PAV1@V?$allocator@VioHashString@@@std@@V1@@std@@YAPAVioHashString@@PAV1@00AAV?$allocator@VioHashString@@@0@0U_Nonscalar_ptr_iterator_tag@0@@Z PROC ; std::_Uninit_move<ioHashString *,ioHashString *,std::allocator<ioHashString>,ioHashString>, COMDAT

; 424  : 	{	// move [_First, _Last) to raw _Dest, using _Al, arbitrary type

  00000	6a 08		 push	 8
  00002	b8 00 00 00 00	 mov	 eax, __ehhandler$??$_Uninit_move@PAVioHashString@@PAV1@V?$allocator@VioHashString@@@std@@V1@@std@@YAPAVioHashString@@PAV1@00AAV?$allocator@VioHashString@@@0@0U_Nonscalar_ptr_iterator_tag@0@@Z
  00007	e8 00 00 00 00	 call	 __EH_prolog3_catch

; 425  : 	_DEBUG_RANGE(_First, _Last);
; 426  : 	_DEBUG_POINTER(_Dest);
; 427  : 	_FwdIt _Next = _Dest;

  0000c	8b 45 10	 mov	 eax, DWORD PTR __Dest$[ebp]

; 428  : 
; 429  : 	_TRY_BEGIN

  0000f	83 65 fc 00	 and	 DWORD PTR __$EHRec$[ebp+12], 0
  00013	8b 75 08	 mov	 esi, DWORD PTR __First$[ebp]
  00016	89 45 ec	 mov	 DWORD PTR __Next$[ebp], eax
$LL6@Uninit_mov:

; 430  : 	for (; _First != _Last; ++_Dest, ++_First)

  00019	3b 75 0c	 cmp	 esi, DWORD PTR __Last$[ebp]
  0001c	74 33		 je	 SHORT $LN4@Uninit_mov

; 431  : 		_Cons_val(_Al, _Dest, (_Valty &&)*_First);

  0001e	8b 4d 14	 mov	 ecx, DWORD PTR __Al$[ebp]
  00021	56		 push	 esi
  00022	ff 75 10	 push	 DWORD PTR __Dest$[ebp]
  00025	e8 00 00 00 00	 call	 ?construct@?$allocator@VioHashString@@@std@@QAEXPAVioHashString@@$$QAV3@@Z ; std::allocator<ioHashString>::construct
  0002a	83 45 10 10	 add	 DWORD PTR __Dest$[ebp], 16 ; 00000010H
  0002e	83 c6 10	 add	 esi, 16			; 00000010H
  00031	eb e6		 jmp	 SHORT $LL6@Uninit_mov
__catch$??$_Uninit_move@PAVioHashString@@PAV1@V?$allocator@VioHashString@@@std@@V1@@std@@YAPAVioHashString@@PAV1@00AAV?$allocator@VioHashString@@@0@0U_Nonscalar_ptr_iterator_tag@0@@Z$0:

; 432  : 	_CATCH_ALL
; 433  : 	for (; _Next != _Dest; ++_Next)

  00033	8b 75 ec	 mov	 esi, DWORD PTR __Next$[ebp]
  00036	eb 0b		 jmp	 SHORT $LN33@Uninit_mov
$LL3@Uninit_mov:

; 434  : 		_Dest_val(_Al, _Next);

  00038	8b ce		 mov	 ecx, esi
  0003a	ff 15 00 00 00
	00		 call	 DWORD PTR __imp_??1ioHashString@@QAE@XZ
  00040	83 c6 10	 add	 esi, 16			; 00000010H
$LN33@Uninit_mov:

; 432  : 	_CATCH_ALL
; 433  : 	for (; _Next != _Dest; ++_Next)

  00043	3b 75 10	 cmp	 esi, DWORD PTR __Dest$[ebp]
  00046	75 f0		 jne	 SHORT $LL3@Uninit_mov

; 435  : 	_RERAISE;

  00048	6a 00		 push	 0
  0004a	6a 00		 push	 0
  0004c	e8 00 00 00 00	 call	 __CxxThrowException@8
$LN34@Uninit_mov:
$LN4@Uninit_mov:

; 436  : 	_CATCH_END
; 437  : 	return (_Dest);

  00051	8b 45 10	 mov	 eax, DWORD PTR __Dest$[ebp]

; 438  : 	}

  00054	e8 00 00 00 00	 call	 __EH_epilog3
  00059	c3		 ret	 0
$LN32@Uninit_mov:
_TEXT	ENDS
;	COMDAT text$x
text$x	SEGMENT
__ehhandler$??$_Uninit_move@PAVioHashString@@PAV1@V?$allocator@VioHashString@@@std@@V1@@std@@YAPAVioHashString@@PAV1@00AAV?$allocator@VioHashString@@@0@0U_Nonscalar_ptr_iterator_tag@0@@Z:
  00000	8b 54 24 08	 mov	 edx, DWORD PTR [esp+8]
  00004	8d 42 0c	 lea	 eax, DWORD PTR [edx+12]
  00007	8b 4a e8	 mov	 ecx, DWORD PTR [edx-24]
  0000a	33 c8		 xor	 ecx, eax
  0000c	e8 00 00 00 00	 call	 @__security_check_cookie@4
  00011	b8 00 00 00 00	 mov	 eax, OFFSET __ehfuncinfo$??$_Uninit_move@PAVioHashString@@PAV1@V?$allocator@VioHashString@@@std@@V1@@std@@YAPAVioHashString@@PAV1@00AAV?$allocator@VioHashString@@@0@0U_Nonscalar_ptr_iterator_tag@0@@Z
  00016	e9 00 00 00 00	 jmp	 ___CxxFrameHandler3
text$x	ENDS
??$_Uninit_move@PAVioHashString@@PAV1@V?$allocator@VioHashString@@@std@@V1@@std@@YAPAVioHashString@@PAV1@00AAV?$allocator@VioHashString@@@0@0U_Nonscalar_ptr_iterator_tag@0@@Z ENDP ; std::_Uninit_move<ioHashString *,ioHashString *,std::allocator<ioHashString>,ioHashString>
PUBLIC	??$_Destroy_range@V?$allocator@VioHashString@@@std@@@std@@YAXPAVioHashString@@0AAV?$allocator@VioHashString@@@0@U_Nonscalar_ptr_iterator_tag@0@@Z ; std::_Destroy_range<std::allocator<ioHashString> >
; Function compile flags: /Ogsp
; File c:\program files (x86)\microsoft visual studio 10.0\vc\include\xmemory
;	COMDAT ??$_Destroy_range@V?$allocator@VioHashString@@@std@@@std@@YAXPAVioHashString@@0AAV?$allocator@VioHashString@@@0@U_Nonscalar_ptr_iterator_tag@0@@Z
_TEXT	SEGMENT
__First$ = 8						; size = 4
__Last$ = 12						; size = 4
__Al$ = 16						; size = 4
___formal$ = 20						; size = 1
??$_Destroy_range@V?$allocator@VioHashString@@@std@@@std@@YAXPAVioHashString@@0AAV?$allocator@VioHashString@@@0@U_Nonscalar_ptr_iterator_tag@0@@Z PROC ; std::_Destroy_range<std::allocator<ioHashString> >, COMDAT

; 95   : 	{	// destroy [_First, _Last), arbitrary type

  00000	55		 push	 ebp
  00001	8b ec		 mov	 ebp, esp
  00003	56		 push	 esi

; 96   : 	for (; _First != _Last; ++_First)

  00004	8b 75 08	 mov	 esi, DWORD PTR __First$[ebp]
  00007	eb 0b		 jmp	 SHORT $LN17@Destroy_ra
$LL3@Destroy_ra:

; 97   : 		_Dest_val(_Al, _First);

  00009	8b ce		 mov	 ecx, esi
  0000b	ff 15 00 00 00
	00		 call	 DWORD PTR __imp_??1ioHashString@@QAE@XZ
  00011	83 c6 10	 add	 esi, 16			; 00000010H
$LN17@Destroy_ra:

; 96   : 	for (; _First != _Last; ++_First)

  00014	3b 75 0c	 cmp	 esi, DWORD PTR __Last$[ebp]
  00017	75 f0		 jne	 SHORT $LL3@Destroy_ra
  00019	5e		 pop	 esi

; 98   : 	}

  0001a	5d		 pop	 ebp
  0001b	c3		 ret	 0
??$_Destroy_range@V?$allocator@VioHashString@@@std@@@std@@YAXPAVioHashString@@0AAV?$allocator@VioHashString@@@0@U_Nonscalar_ptr_iterator_tag@0@@Z ENDP ; std::_Destroy_range<std::allocator<ioHashString> >
_TEXT	ENDS
PUBLIC	??$_Uninitialized_copy@PAVioHashString@@PAV1@V?$allocator@VioHashString@@@std@@@std@@YAPAVioHashString@@PAV1@00AAV?$allocator@VioHashString@@@0@@Z ; std::_Uninitialized_copy<ioHashString *,ioHashString *,std::allocator<ioHashString> >
; Function compile flags: /Ogsp
; File c:\program files (x86)\microsoft visual studio 10.0\vc\include\memory
;	COMDAT ??$_Uninitialized_copy@PAVioHashString@@PAV1@V?$allocator@VioHashString@@@std@@@std@@YAPAVioHashString@@PAV1@00AAV?$allocator@VioHashString@@@0@@Z
_TEXT	SEGMENT
__Cat$528783 = -4					; size = 1
__First$ = 8						; size = 4
__Last$ = 12						; size = 4
__Dest$ = 16						; size = 4
__Al$ = 20						; size = 4
??$_Uninitialized_copy@PAVioHashString@@PAV1@V?$allocator@VioHashString@@@std@@@std@@YAPAVioHashString@@PAV1@00AAV?$allocator@VioHashString@@@0@@Z PROC ; std::_Uninitialized_copy<ioHashString *,ioHashString *,std::allocator<ioHashString> >, COMDAT

; 412  : 	{	// copy [_First, _Last) to raw _Dest, using _Al

  00000	55		 push	 ebp
  00001	8b ec		 mov	 ebp, esp
  00003	51		 push	 ecx

; 413  : 	return (_Uninit_copy(_First, _Last, _Dest, _Al,
; 414  : 		_Ptr_cat(_First, _Dest)));

  00004	ff 75 fc	 push	 DWORD PTR __Cat$528783[ebp]
  00007	ff 75 14	 push	 DWORD PTR __Al$[ebp]
  0000a	ff 75 10	 push	 DWORD PTR __Dest$[ebp]
  0000d	ff 75 0c	 push	 DWORD PTR __Last$[ebp]
  00010	ff 75 08	 push	 DWORD PTR __First$[ebp]
  00013	e8 00 00 00 00	 call	 ??$_Uninit_copy@PAVioHashString@@PAV1@V?$allocator@VioHashString@@@std@@@std@@YAPAVioHashString@@PAV1@00AAV?$allocator@VioHashString@@@0@U_Nonscalar_ptr_iterator_tag@0@@Z ; std::_Uninit_copy<ioHashString *,ioHashString *,std::allocator<ioHashString> >
  00018	83 c4 14	 add	 esp, 20			; 00000014H

; 415  : 	}

  0001b	c9		 leave
  0001c	c3		 ret	 0
??$_Uninitialized_copy@PAVioHashString@@PAV1@V?$allocator@VioHashString@@@std@@@std@@YAPAVioHashString@@PAV1@00AAV?$allocator@VioHashString@@@0@@Z ENDP ; std::_Uninitialized_copy<ioHashString *,ioHashString *,std::allocator<ioHashString> >
_TEXT	ENDS
PUBLIC	??$_Uninitialized_move@PAVioHashString@@PAV1@V?$allocator@VioHashString@@@std@@@std@@YAPAVioHashString@@PAV1@00AAV?$allocator@VioHashString@@@0@@Z ; std::_Uninitialized_move<ioHashString *,ioHashString *,std::allocator<ioHashString> >
; Function compile flags: /Ogsp
;	COMDAT ??$_Uninitialized_move@PAVioHashString@@PAV1@V?$allocator@VioHashString@@@std@@@std@@YAPAVioHashString@@PAV1@00AAV?$allocator@VioHashString@@@0@@Z
_TEXT	SEGMENT
__Cat$528790 = -4					; size = 1
__First$ = 8						; size = 4
__Last$ = 12						; size = 4
__Dest$ = 16						; size = 4
__Al$ = 20						; size = 4
??$_Uninitialized_move@PAVioHashString@@PAV1@V?$allocator@VioHashString@@@std@@@std@@YAPAVioHashString@@PAV1@00AAV?$allocator@VioHashString@@@0@@Z PROC ; std::_Uninitialized_move<ioHashString *,ioHashString *,std::allocator<ioHashString> >, COMDAT

; 469  : 	{	// move [_First, _Last) to raw _Dest, using _Al

  00000	55		 push	 ebp
  00001	8b ec		 mov	 ebp, esp
  00003	51		 push	 ecx

; 470  : 	return (_Uninit_move(_First, _Last, _Dest, _Al,
; 471  : 		_Val_type(_First), _Ptr_cat(_First, _Dest)));

  00004	ff 75 fc	 push	 DWORD PTR __Cat$528790[ebp]
  00007	6a 00		 push	 0
  00009	ff 75 14	 push	 DWORD PTR __Al$[ebp]
  0000c	ff 75 10	 push	 DWORD PTR __Dest$[ebp]
  0000f	ff 75 0c	 push	 DWORD PTR __Last$[ebp]
  00012	ff 75 08	 push	 DWORD PTR __First$[ebp]
  00015	e8 00 00 00 00	 call	 ??$_Uninit_move@PAVioHashString@@PAV1@V?$allocator@VioHashString@@@std@@V1@@std@@YAPAVioHashString@@PAV1@00AAV?$allocator@VioHashString@@@0@0U_Nonscalar_ptr_iterator_tag@0@@Z ; std::_Uninit_move<ioHashString *,ioHashString *,std::allocator<ioHashString>,ioHashString>
  0001a	83 c4 18	 add	 esp, 24			; 00000018H

; 472  : 	}

  0001d	c9		 leave
  0001e	c3		 ret	 0
??$_Uninitialized_move@PAVioHashString@@PAV1@V?$allocator@VioHashString@@@std@@@std@@YAPAVioHashString@@PAV1@00AAV?$allocator@VioHashString@@@0@@Z ENDP ; std::_Uninitialized_move<ioHashString *,ioHashString *,std::allocator<ioHashString> >
_TEXT	ENDS
PUBLIC	??$_Destroy_range@V?$allocator@VioHashString@@@std@@@std@@YAXPAVioHashString@@0AAV?$allocator@VioHashString@@@0@@Z ; std::_Destroy_range<std::allocator<ioHashString> >
; Function compile flags: /Ogsp
; File c:\program files (x86)\microsoft visual studio 10.0\vc\include\xmemory
;	COMDAT ??$_Destroy_range@V?$allocator@VioHashString@@@std@@@std@@YAXPAVioHashString@@0AAV?$allocator@VioHashString@@@0@@Z
_TEXT	SEGMENT
__First$ = 8						; size = 4
__Last$ = 12						; size = 4
__Al$ = 16						; size = 4
??$_Destroy_range@V?$allocator@VioHashString@@@std@@@std@@YAXPAVioHashString@@0AAV?$allocator@VioHashString@@@0@@Z PROC ; std::_Destroy_range<std::allocator<ioHashString> >, COMDAT

; 87   : 	{	// destroy [_First, _Last)

  00000	55		 push	 ebp
  00001	8b ec		 mov	 ebp, esp
  00003	56		 push	 esi

; 88   : 	_Destroy_range(_First, _Last, _Al, _Ptr_cat(_First, _Last));

  00004	8b 75 08	 mov	 esi, DWORD PTR __First$[ebp]
  00007	eb 0b		 jmp	 SHORT $LN21@Destroy_ra@2
$LL7@Destroy_ra@2:
  00009	8b ce		 mov	 ecx, esi
  0000b	ff 15 00 00 00
	00		 call	 DWORD PTR __imp_??1ioHashString@@QAE@XZ
  00011	83 c6 10	 add	 esi, 16			; 00000010H
$LN21@Destroy_ra@2:
  00014	3b 75 0c	 cmp	 esi, DWORD PTR __Last$[ebp]
  00017	75 f0		 jne	 SHORT $LL7@Destroy_ra@2
  00019	5e		 pop	 esi

; 89   : 	}

  0001a	5d		 pop	 ebp
  0001b	c3		 ret	 0
??$_Destroy_range@V?$allocator@VioHashString@@@std@@@std@@YAXPAVioHashString@@0AAV?$allocator@VioHashString@@@0@@Z ENDP ; std::_Destroy_range<std::allocator<ioHashString> >
_TEXT	ENDS
PUBLIC	??$_Ucopy@PAVioHashString@@@?$vector@VioHashString@@V?$allocator@VioHashString@@@std@@@std@@IAEPAVioHashString@@PAV2@00@Z ; std::vector<ioHashString,std::allocator<ioHashString> >::_Ucopy<ioHashString *>
; Function compile flags: /Ogsp
; File c:\program files (x86)\microsoft visual studio 10.0\vc\include\vector
;	COMDAT ??$_Ucopy@PAVioHashString@@@?$vector@VioHashString@@V?$allocator@VioHashString@@@std@@@std@@IAEPAVioHashString@@PAV2@00@Z
_TEXT	SEGMENT
__First$ = 8						; size = 4
__Last$ = 12						; size = 4
__Cat$528860 = 16					; size = 1
__Ptr$ = 16						; size = 4
??$_Ucopy@PAVioHashString@@@?$vector@VioHashString@@V?$allocator@VioHashString@@@std@@@std@@IAEPAVioHashString@@PAV2@00@Z PROC ; std::vector<ioHashString,std::allocator<ioHashString> >::_Ucopy<ioHashString *>, COMDAT
; _this$ = ecx

; 1315 : 		pointer _Ucopy(_Iter _First, _Iter _Last, pointer _Ptr)

  00000	55		 push	 ebp
  00001	8b ec		 mov	 ebp, esp

; 1316 : 		{	// copy initializing [_First, _Last), using allocator
; 1317 : 		return (_Uninitialized_copy(_First, _Last,
; 1318 : 			_Ptr, this->_Alval));

  00003	ff 75 10	 push	 DWORD PTR __Cat$528860[ebp]
  00006	83 c1 0c	 add	 ecx, 12			; 0000000cH
  00009	51		 push	 ecx
  0000a	ff 75 10	 push	 DWORD PTR __Ptr$[ebp]
  0000d	ff 75 0c	 push	 DWORD PTR __Last$[ebp]
  00010	ff 75 08	 push	 DWORD PTR __First$[ebp]
  00013	e8 00 00 00 00	 call	 ??$_Uninit_copy@PAVioHashString@@PAV1@V?$allocator@VioHashString@@@std@@@std@@YAPAVioHashString@@PAV1@00AAV?$allocator@VioHashString@@@0@U_Nonscalar_ptr_iterator_tag@0@@Z ; std::_Uninit_copy<ioHashString *,ioHashString *,std::allocator<ioHashString> >
  00018	83 c4 14	 add	 esp, 20			; 00000014H

; 1319 : 		}

  0001b	5d		 pop	 ebp
  0001c	c2 0c 00	 ret	 12			; 0000000cH
??$_Ucopy@PAVioHashString@@@?$vector@VioHashString@@V?$allocator@VioHashString@@@std@@@std@@IAEPAVioHashString@@PAV2@00@Z ENDP ; std::vector<ioHashString,std::allocator<ioHashString> >::_Ucopy<ioHashString *>
_TEXT	ENDS
PUBLIC	??$_Umove@PAVioHashString@@@?$vector@VioHashString@@V?$allocator@VioHashString@@@std@@@std@@IAEPAVioHashString@@PAV2@00@Z ; std::vector<ioHashString,std::allocator<ioHashString> >::_Umove<ioHashString *>
; Function compile flags: /Ogsp
;	COMDAT ??$_Umove@PAVioHashString@@@?$vector@VioHashString@@V?$allocator@VioHashString@@@std@@@std@@IAEPAVioHashString@@PAV2@00@Z
_TEXT	SEGMENT
__First$ = 8						; size = 4
__Last$ = 12						; size = 4
__Ptr$ = 16						; size = 4
??$_Umove@PAVioHashString@@@?$vector@VioHashString@@V?$allocator@VioHashString@@@std@@@std@@IAEPAVioHashString@@PAV2@00@Z PROC ; std::vector<ioHashString,std::allocator<ioHashString> >::_Umove<ioHashString *>, COMDAT
; _this$ = ecx

; 1322 : 		pointer _Umove(_Iter _First, _Iter _Last, pointer _Ptr)

  00000	55		 push	 ebp
  00001	8b ec		 mov	 ebp, esp

; 1323 : 		{	// move initializing [_First, _Last), using allocator
; 1324 : 		return (_Uninitialized_move(_First, _Last,
; 1325 : 			_Ptr, this->_Alval));

  00003	83 c1 0c	 add	 ecx, 12			; 0000000cH
  00006	51		 push	 ecx
  00007	ff 75 10	 push	 DWORD PTR __Ptr$[ebp]
  0000a	ff 75 0c	 push	 DWORD PTR __Last$[ebp]
  0000d	ff 75 08	 push	 DWORD PTR __First$[ebp]
  00010	e8 00 00 00 00	 call	 ??$_Uninitialized_move@PAVioHashString@@PAV1@V?$allocator@VioHashString@@@std@@@std@@YAPAVioHashString@@PAV1@00AAV?$allocator@VioHashString@@@0@@Z ; std::_Uninitialized_move<ioHashString *,ioHashString *,std::allocator<ioHashString> >
  00015	83 c4 10	 add	 esp, 16			; 00000010H

; 1326 : 		}

  00018	5d		 pop	 ebp
  00019	c2 0c 00	 ret	 12			; 0000000cH
??$_Umove@PAVioHashString@@@?$vector@VioHashString@@V?$allocator@VioHashString@@@std@@@std@@IAEPAVioHashString@@PAV2@00@Z ENDP ; std::vector<ioHashString,std::allocator<ioHashString> >::_Umove<ioHashString *>
_TEXT	ENDS
PUBLIC	?_Destroy@?$vector@VioHashString@@V?$allocator@VioHashString@@@std@@@std@@IAEXPAVioHashString@@0@Z ; std::vector<ioHashString,std::allocator<ioHashString> >::_Destroy
; Function compile flags: /Ogsp
;	COMDAT ?_Destroy@?$vector@VioHashString@@V?$allocator@VioHashString@@@std@@@std@@IAEXPAVioHashString@@0@Z
_TEXT	SEGMENT
__First$ = 8						; size = 4
__Last$ = 12						; size = 4
?_Destroy@?$vector@VioHashString@@V?$allocator@VioHashString@@@std@@@std@@IAEXPAVioHashString@@0@Z PROC ; std::vector<ioHashString,std::allocator<ioHashString> >::_Destroy, COMDAT
; _this$ = ecx

; 1269 : 		{	// destroy [_First, _Last) using allocator

  00000	55		 push	 ebp
  00001	8b ec		 mov	 ebp, esp
  00003	56		 push	 esi

; 1270 : 		_Destroy_range(_First, _Last, this->_Alval);

  00004	8b 75 08	 mov	 esi, DWORD PTR __First$[ebp]
  00007	eb 0b		 jmp	 SHORT $LN23@Destroy
$LL9@Destroy:
  00009	8b ce		 mov	 ecx, esi
  0000b	ff 15 00 00 00
	00		 call	 DWORD PTR __imp_??1ioHashString@@QAE@XZ
  00011	83 c6 10	 add	 esi, 16			; 00000010H
$LN23@Destroy:
  00014	3b 75 0c	 cmp	 esi, DWORD PTR __Last$[ebp]
  00017	75 f0		 jne	 SHORT $LL9@Destroy
  00019	5e		 pop	 esi

; 1271 : 		}

  0001a	5d		 pop	 ebp
  0001b	c2 08 00	 ret	 8
?_Destroy@?$vector@VioHashString@@V?$allocator@VioHashString@@@std@@@std@@IAEXPAVioHashString@@0@Z ENDP ; std::vector<ioHashString,std::allocator<ioHashString> >::_Destroy
_TEXT	ENDS
PUBLIC	?reserve@?$vector@VioHashString@@V?$allocator@VioHashString@@@std@@@std@@QAEXI@Z ; std::vector<ioHashString,std::allocator<ioHashString> >::reserve
EXTRN	__imp_?_Orphan_all@_Container_base0@std@@QAEXXZ:PROC
;	COMDAT xdata$x
; File c:\program files (x86)\microsoft visual studio 10.0\vc\include\xmemory
xdata$x	SEGMENT
__catchsym$?reserve@?$vector@VioHashString@@V?$allocator@VioHashString@@@std@@@std@@QAEXI@Z$2 DD 040H
	DD	00H
	DD	00H
	DD	FLAT:__catch$?reserve@?$vector@VioHashString@@V?$allocator@VioHashString@@@std@@@std@@QAEXI@Z$0
__unwindtable$?reserve@?$vector@VioHashString@@V?$allocator@VioHashString@@@std@@@std@@QAEXI@Z DD 0ffffffffH
	DD	00H
	DD	0ffffffffH
	DD	00H
__tryblocktable$?reserve@?$vector@VioHashString@@V?$allocator@VioHashString@@@std@@@std@@QAEXI@Z DD 00H
	DD	00H
	DD	01H
	DD	01H
	DD	FLAT:__catchsym$?reserve@?$vector@VioHashString@@V?$allocator@VioHashString@@@std@@@std@@QAEXI@Z$2
__ehfuncinfo$?reserve@?$vector@VioHashString@@V?$allocator@VioHashString@@@std@@@std@@QAEXI@Z DD 019930522H
	DD	02H
	DD	FLAT:__unwindtable$?reserve@?$vector@VioHashString@@V?$allocator@VioHashString@@@std@@@std@@QAEXI@Z
	DD	01H
	DD	FLAT:__tryblocktable$?reserve@?$vector@VioHashString@@V?$allocator@VioHashString@@@std@@@std@@QAEXI@Z
	DD	2 DUP(00H)
	DD	00H
	DD	01H
; Function compile flags: /Ogsp
; File c:\program files (x86)\microsoft visual studio 10.0\vc\include\vector
xdata$x	ENDS
;	COMDAT ?reserve@?$vector@VioHashString@@V?$allocator@VioHashString@@@std@@@std@@QAEXI@Z
_TEXT	SEGMENT
tv300 = -24						; size = 4
__Ptr$524084 = -20					; size = 4
__$EHRec$ = -16						; size = 16
$T529033 = 8						; size = 4
__Count$ = 8						; size = 4
?reserve@?$vector@VioHashString@@V?$allocator@VioHashString@@@std@@@std@@QAEXI@Z PROC ; std::vector<ioHashString,std::allocator<ioHashString> >::reserve, COMDAT
; _this$ = ecx

; 746  : 		{	// determine new minimum length of allocated storage

  00000	6a 0c		 push	 12			; 0000000cH
  00002	b8 00 00 00 00	 mov	 eax, __ehhandler$?reserve@?$vector@VioHashString@@V?$allocator@VioHashString@@@std@@@std@@QAEXI@Z
  00007	e8 00 00 00 00	 call	 __EH_prolog3_catch
  0000c	8b f1		 mov	 esi, ecx

; 747  : 		if (max_size() < _Count)

  0000e	8b 5d 08	 mov	 ebx, DWORD PTR __Count$[ebp]
  00011	81 fb ff ff ff
	0f		 cmp	 ebx, 268435455		; 0fffffffH
  00017	76 0b		 jbe	 SHORT $LN5@reserve

; 748  : 			_Xlen();	// result too long

  00019	68 00 00 00 00	 push	 OFFSET ??_C@_0BD@OLBABOEK@vector?$DMT?$DO?5too?5long?$AA@
  0001e	ff 15 00 00 00
	00		 call	 DWORD PTR __imp_?_Xlength_error@std@@YAXPBD@Z
$LN59@reserve:
$LN5@reserve:

; 749  : 		else if (capacity() < _Count)

  00024	8b 46 08	 mov	 eax, DWORD PTR [esi+8]
  00027	2b 06		 sub	 eax, DWORD PTR [esi]
  00029	c1 f8 04	 sar	 eax, 4
  0002c	3b c3		 cmp	 eax, ebx
  0002e	73 7a		 jae	 SHORT $LN3@reserve

; 750  : 			{	// not enough room, reallocate
; 751  : 			pointer _Ptr = this->_Alval.allocate(_Count);

  00030	6a 00		 push	 0
  00032	53		 push	 ebx
  00033	e8 00 00 00 00	 call	 ??$_Allocate@VioHashString@@@std@@YAPAVioHashString@@IPAV1@@Z ; std::_Allocate<ioHashString>

; 752  : 
; 753  : 			_TRY_BEGIN
; 754  : 			_Umove(this->_Myfirst, this->_Mylast, _Ptr);

  00038	8b 0e		 mov	 ecx, DWORD PTR [esi]
  0003a	83 65 fc 00	 and	 DWORD PTR __$EHRec$[ebp+12], 0
  0003e	8d 56 0c	 lea	 edx, DWORD PTR [esi+12]
  00041	52		 push	 edx
  00042	89 45 ec	 mov	 DWORD PTR __Ptr$524084[ebp], eax
  00045	ff 75 ec	 push	 DWORD PTR __Ptr$524084[ebp]
  00048	8b 46 04	 mov	 eax, DWORD PTR [esi+4]
  0004b	50		 push	 eax
  0004c	51		 push	 ecx
  0004d	e8 00 00 00 00	 call	 ??$_Uninitialized_move@PAVioHashString@@PAV1@V?$allocator@VioHashString@@@std@@@std@@YAPAVioHashString@@PAV1@00AAV?$allocator@VioHashString@@@0@@Z ; std::_Uninitialized_move<ioHashString *,ioHashString *,std::allocator<ioHashString> >

; 758  : 			_CATCH_END
; 759  : 
; 760  : 			size_type _Size = size();

  00052	8b 4e 04	 mov	 ecx, DWORD PTR [esi+4]
  00055	8b 06		 mov	 eax, DWORD PTR [esi]
  00057	83 4d fc ff	 or	 DWORD PTR __$EHRec$[ebp+12], -1
  0005b	8b f9		 mov	 edi, ecx
  0005d	83 c4 18	 add	 esp, 24			; 00000018H
  00060	2b f8		 sub	 edi, eax
  00062	89 4d e8	 mov	 DWORD PTR tv300[ebp], ecx
  00065	85 c0		 test	 eax, eax
  00067	74 24		 je	 SHORT $LN51@reserve

; 761  : 			if (this->_Myfirst != 0)
; 762  : 				{	// destroy and deallocate old array
; 763  : 				_Destroy(this->_Myfirst, this->_Mylast);

  00069	89 45 08	 mov	 DWORD PTR $T529033[ebp], eax
  0006c	3b c1		 cmp	 eax, ecx
  0006e	74 15		 je	 SHORT $LN37@reserve
$LN39@reserve:
  00070	8b 4d 08	 mov	 ecx, DWORD PTR $T529033[ebp]
  00073	ff 15 00 00 00
	00		 call	 DWORD PTR __imp_??1ioHashString@@QAE@XZ
  00079	83 45 08 10	 add	 DWORD PTR $T529033[ebp], 16 ; 00000010H
  0007d	8b 45 08	 mov	 eax, DWORD PTR $T529033[ebp]
  00080	3b 45 e8	 cmp	 eax, DWORD PTR tv300[ebp]
  00083	75 eb		 jne	 SHORT $LN39@reserve
$LN37@reserve:

; 764  : 				this->_Alval.deallocate(this->_Myfirst,
; 765  : 					this->_Myend - this->_Myfirst);

  00085	ff 36		 push	 DWORD PTR [esi]
  00087	e8 00 00 00 00	 call	 ??3@YAXPAX@Z		; operator delete
  0008c	59		 pop	 ecx
$LN51@reserve:

; 766  : 				}
; 767  : 
; 768  : 			this->_Orphan_all();

  0008d	8b ce		 mov	 ecx, esi
  0008f	ff 15 00 00 00
	00		 call	 DWORD PTR __imp_?_Orphan_all@_Container_base0@std@@QAEXXZ

; 769  : 			this->_Myend = _Ptr + _Count;

  00095	8b 45 ec	 mov	 eax, DWORD PTR __Ptr$524084[ebp]
  00098	c1 e3 04	 shl	 ebx, 4
  0009b	03 d8		 add	 ebx, eax

; 770  : 			this->_Mylast = _Ptr + _Size;

  0009d	83 e7 f0	 and	 edi, -16		; fffffff0H
  000a0	03 f8		 add	 edi, eax
  000a2	89 5e 08	 mov	 DWORD PTR [esi+8], ebx
  000a5	89 7e 04	 mov	 DWORD PTR [esi+4], edi

; 771  : 			this->_Myfirst = _Ptr;

  000a8	89 06		 mov	 DWORD PTR [esi], eax
$LN3@reserve:

; 772  : 			}
; 773  : 		}

  000aa	e8 00 00 00 00	 call	 __EH_epilog3
  000af	c2 04 00	 ret	 4
__catch$?reserve@?$vector@VioHashString@@V?$allocator@VioHashString@@@std@@@std@@QAEXI@Z$0:

; 755  : 			_CATCH_ALL
; 756  : 			this->_Alval.deallocate(_Ptr, _Count);

  000b2	ff 75 ec	 push	 DWORD PTR __Ptr$524084[ebp]
  000b5	e8 00 00 00 00	 call	 ??3@YAXPAX@Z		; operator delete
  000ba	59		 pop	 ecx

; 757  : 			_RERAISE;

  000bb	6a 00		 push	 0
  000bd	6a 00		 push	 0
  000bf	e8 00 00 00 00	 call	 __CxxThrowException@8
$LN60@reserve:
$LN58@reserve:
  000c4	cc		 int	 3
_TEXT	ENDS
;	COMDAT text$x
text$x	SEGMENT
__ehhandler$?reserve@?$vector@VioHashString@@V?$allocator@VioHashString@@@std@@@std@@QAEXI@Z:
  00000	8b 54 24 08	 mov	 edx, DWORD PTR [esp+8]
  00004	8d 42 0c	 lea	 eax, DWORD PTR [edx+12]
  00007	8b 4a e4	 mov	 ecx, DWORD PTR [edx-28]
  0000a	33 c8		 xor	 ecx, eax
  0000c	e8 00 00 00 00	 call	 @__security_check_cookie@4
  00011	b8 00 00 00 00	 mov	 eax, OFFSET __ehfuncinfo$?reserve@?$vector@VioHashString@@V?$allocator@VioHashString@@@std@@@std@@QAEXI@Z
  00016	e9 00 00 00 00	 jmp	 ___CxxFrameHandler3
text$x	ENDS
?reserve@?$vector@VioHashString@@V?$allocator@VioHashString@@@std@@@std@@QAEXI@Z ENDP ; std::vector<ioHashString,std::allocator<ioHashString> >::reserve
PUBLIC	?_Reserve@?$vector@VioHashString@@V?$allocator@VioHashString@@@std@@@std@@IAEXI@Z ; std::vector<ioHashString,std::allocator<ioHashString> >::_Reserve
; Function compile flags: /Ogsp
;	COMDAT ?_Reserve@?$vector@VioHashString@@V?$allocator@VioHashString@@@std@@@std@@IAEXI@Z
_TEXT	SEGMENT
__Count$ = 8						; size = 4
?_Reserve@?$vector@VioHashString@@V?$allocator@VioHashString@@@std@@@std@@IAEXI@Z PROC ; std::vector<ioHashString,std::allocator<ioHashString> >::_Reserve, COMDAT
; _this$ = ecx

; 1290 : 		{	// ensure room for _Count new elements, grow exponentially

  00000	55		 push	 ebp
  00001	8b ec		 mov	 ebp, esp
  00003	56		 push	 esi
  00004	8b f1		 mov	 esi, ecx

; 1291 : 		size_type _Size = size();

  00006	8b 0e		 mov	 ecx, DWORD PTR [esi]
  00008	8b 46 04	 mov	 eax, DWORD PTR [esi+4]
  0000b	2b c1		 sub	 eax, ecx

; 1292 : 		if (max_size() - _Count < _Size)

  0000d	ba ff ff ff 0f	 mov	 edx, 268435455		; 0fffffffH
  00012	2b 55 08	 sub	 edx, DWORD PTR __Count$[ebp]
  00015	c1 f8 04	 sar	 eax, 4
  00018	3b d0		 cmp	 edx, eax
  0001a	73 0b		 jae	 SHORT $LN4@Reserve

; 1293 : 			_Xlen();

  0001c	68 00 00 00 00	 push	 OFFSET ??_C@_0BD@OLBABOEK@vector?$DMT?$DO?5too?5long?$AA@
  00021	ff 15 00 00 00
	00		 call	 DWORD PTR __imp_?_Xlength_error@std@@YAXPBD@Z
$LN21@Reserve:
$LN4@Reserve:

; 1294 : 		else if ((_Size += _Count) <= capacity())

  00027	8b 56 08	 mov	 edx, DWORD PTR [esi+8]
  0002a	03 45 08	 add	 eax, DWORD PTR __Count$[ebp]
  0002d	2b d1		 sub	 edx, ecx
  0002f	c1 fa 04	 sar	 edx, 4
  00032	3b c2		 cmp	 eax, edx
  00034	76 10		 jbe	 SHORT $LN1@Reserve

; 1295 : 			;
; 1296 : 		else
; 1297 : 			reserve(_Grow_to(_Size));

  00036	50		 push	 eax
  00037	8b ce		 mov	 ecx, esi
  00039	e8 00 00 00 00	 call	 ?_Grow_to@?$vector@VioHashString@@V?$allocator@VioHashString@@@std@@@std@@IBEII@Z ; std::vector<ioHashString,std::allocator<ioHashString> >::_Grow_to
  0003e	50		 push	 eax
  0003f	8b ce		 mov	 ecx, esi
  00041	e8 00 00 00 00	 call	 ?reserve@?$vector@VioHashString@@V?$allocator@VioHashString@@@std@@@std@@QAEXI@Z ; std::vector<ioHashString,std::allocator<ioHashString> >::reserve
$LN1@Reserve:
  00046	5e		 pop	 esi

; 1298 : 		}

  00047	5d		 pop	 ebp
  00048	c2 04 00	 ret	 4
$LN20@Reserve:
?_Reserve@?$vector@VioHashString@@V?$allocator@VioHashString@@@std@@@std@@IAEXI@Z ENDP ; std::vector<ioHashString,std::allocator<ioHashString> >::_Reserve
_TEXT	ENDS
PUBLIC	?erase@?$vector@VioHashString@@V?$allocator@VioHashString@@@std@@@std@@QAE?AV?$_Vector_iterator@V?$_Vector_val@VioHashString@@V?$allocator@VioHashString@@@std@@@std@@@2@V?$_Vector_const_iterator@V?$_Vector_val@VioHashString@@V?$allocator@VioHashString@@@std@@@std@@@2@0@Z ; std::vector<ioHashString,std::allocator<ioHashString> >::erase
; Function compile flags: /Ogsp
;	COMDAT ?erase@?$vector@VioHashString@@V?$allocator@VioHashString@@@std@@@std@@QAE?AV?$_Vector_iterator@V?$_Vector_val@VioHashString@@V?$allocator@VioHashString@@@std@@@std@@@2@V?$_Vector_const_iterator@V?$_Vector_val@VioHashString@@V?$allocator@VioHashString@@@std@@@std@@@2@0@Z
_TEXT	SEGMENT
$T529258 = -4						; size = 4
___$ReturnUdt$ = 8					; size = 4
__First_arg$ = 12					; size = 4
__Cat$529202 = 16					; size = 1
__Last_arg$ = 16					; size = 4
?erase@?$vector@VioHashString@@V?$allocator@VioHashString@@@std@@@std@@QAE?AV?$_Vector_iterator@V?$_Vector_val@VioHashString@@V?$allocator@VioHashString@@@std@@@std@@@2@V?$_Vector_const_iterator@V?$_Vector_val@VioHashString@@V?$allocator@VioHashString@@@std@@@std@@@2@0@Z PROC ; std::vector<ioHashString,std::allocator<ioHashString> >::erase, COMDAT
; _this$ = ecx

; 1190 : 		{	// erase [_First, _Last)

  00000	55		 push	 ebp
  00001	8b ec		 mov	 ebp, esp
  00003	51		 push	 ecx

; 1191 : 		iterator _First = _Make_iter(_First_arg);

  00004	8b 45 08	 mov	 eax, DWORD PTR ___$ReturnUdt$[ebp]
  00007	56		 push	 esi
  00008	8b f1		 mov	 esi, ecx
  0000a	8b 4d 0c	 mov	 ecx, DWORD PTR __First_arg$[ebp]
  0000d	89 08		 mov	 DWORD PTR [eax], ecx

; 1192 : 		iterator _Last = _Make_iter(_Last_arg);
; 1193 : 
; 1194 : 		if (_First != _Last)

  0000f	3b 4d 10	 cmp	 ecx, DWORD PTR __Last_arg$[ebp]
  00012	74 38		 je	 SHORT $LN1@erase

; 1195 : 			{	// worth doing, copy down over hole
; 1196 :  #if _ITERATOR_DEBUG_LEVEL == 2
; 1197 : 			if (_Last < _First || _VICONT(_First) != this
; 1198 : 				|| _VIPTR(_First) < this->_Myfirst
; 1199 : 				|| this->_Mylast < _VIPTR(_Last))
; 1200 : 				_DEBUG_ERROR("vector erase iterator outside range");
; 1201 : 			pointer _Ptr = _Move(_VIPTR(_Last), this->_Mylast,
; 1202 : 				_VIPTR(_First));
; 1203 : 			_Orphan_range(_VIPTR(_First), this->_Mylast);
; 1204 : 
; 1205 :  #else /* _ITERATOR_DEBUG_LEVEL == 2 */
; 1206 : 			pointer _Ptr = _Move(_VIPTR(_Last), this->_Mylast,
; 1207 : 				_VIPTR(_First));

  00014	8b 46 04	 mov	 eax, DWORD PTR [esi+4]
  00017	53		 push	 ebx
  00018	57		 push	 edi
  00019	ff 75 10	 push	 DWORD PTR __Cat$529202[ebp]
  0001c	51		 push	 ecx
  0001d	50		 push	 eax
  0001e	ff 75 10	 push	 DWORD PTR __Last_arg$[ebp]
  00021	e8 00 00 00 00	 call	 ??$_Move@PAVioHashString@@PAV1@@std@@YAPAVioHashString@@PAV1@00U_Nonscalar_ptr_iterator_tag@0@@Z ; std::_Move<ioHashString *,ioHashString *>

; 1208 :  #endif /* _ITERATOR_DEBUG_LEVEL == 2 */
; 1209 : 
; 1210 : 			_Destroy(_Ptr, this->_Mylast);

  00026	8b 7e 04	 mov	 edi, DWORD PTR [esi+4]
  00029	8b d8		 mov	 ebx, eax
  0002b	83 c4 10	 add	 esp, 16			; 00000010H
  0002e	89 5d fc	 mov	 DWORD PTR $T529258[ebp], ebx
  00031	3b df		 cmp	 ebx, edi
  00033	74 12		 je	 SHORT $LN36@erase
$LL52@erase:
  00035	8b 4d fc	 mov	 ecx, DWORD PTR $T529258[ebp]
  00038	ff 15 00 00 00
	00		 call	 DWORD PTR __imp_??1ioHashString@@QAE@XZ
  0003e	83 45 fc 10	 add	 DWORD PTR $T529258[ebp], 16 ; 00000010H
  00042	39 7d fc	 cmp	 DWORD PTR $T529258[ebp], edi
  00045	75 ee		 jne	 SHORT $LL52@erase
$LN36@erase:

; 1211 : 			this->_Mylast = _Ptr;

  00047	5f		 pop	 edi
  00048	89 5e 04	 mov	 DWORD PTR [esi+4], ebx
  0004b	5b		 pop	 ebx
$LN1@erase:

; 1212 : 			}
; 1213 : 		return (_First);

  0004c	8b 45 08	 mov	 eax, DWORD PTR ___$ReturnUdt$[ebp]
  0004f	5e		 pop	 esi

; 1214 : 		}

  00050	c9		 leave
  00051	c2 0c 00	 ret	 12			; 0000000cH
?erase@?$vector@VioHashString@@V?$allocator@VioHashString@@@std@@@std@@QAE?AV?$_Vector_iterator@V?$_Vector_val@VioHashString@@V?$allocator@VioHashString@@@std@@@std@@@2@V?$_Vector_const_iterator@V?$_Vector_val@VioHashString@@V?$allocator@VioHashString@@@std@@@std@@@2@0@Z ENDP ; std::vector<ioHashString,std::allocator<ioHashString> >::erase
_TEXT	ENDS
PUBLIC	?_Tidy@?$vector@VioHashString@@V?$allocator@VioHashString@@@std@@@std@@IAEXXZ ; std::vector<ioHashString,std::allocator<ioHashString> >::_Tidy
; Function compile flags: /Ogsp
;	COMDAT ?_Tidy@?$vector@VioHashString@@V?$allocator@VioHashString@@@std@@@std@@IAEXXZ
_TEXT	SEGMENT
?_Tidy@?$vector@VioHashString@@V?$allocator@VioHashString@@@std@@@std@@IAEXXZ PROC ; std::vector<ioHashString,std::allocator<ioHashString> >::_Tidy, COMDAT
; _this$ = ecx

; 1301 : 		{	// free all storage

  00000	56		 push	 esi
  00001	8b f1		 mov	 esi, ecx

; 1302 : 		if (this->_Myfirst != 0)

  00003	83 3e 00	 cmp	 DWORD PTR [esi], 0
  00006	74 28		 je	 SHORT $LN24@Tidy

; 1303 : 			{	// something to free, destroy and deallocate it
; 1304 : 			this->_Orphan_all();

  00008	53		 push	 ebx
  00009	57		 push	 edi
  0000a	ff 15 00 00 00
	00		 call	 DWORD PTR __imp_?_Orphan_all@_Container_base0@std@@QAEXXZ

; 1305 : 			_Destroy(this->_Myfirst, this->_Mylast);

  00010	8b 5e 04	 mov	 ebx, DWORD PTR [esi+4]
  00013	8b 3e		 mov	 edi, DWORD PTR [esi]
  00015	eb 0b		 jmp	 SHORT $LN28@Tidy
$LL12@Tidy:
  00017	8b cf		 mov	 ecx, edi
  00019	ff 15 00 00 00
	00		 call	 DWORD PTR __imp_??1ioHashString@@QAE@XZ
  0001f	83 c7 10	 add	 edi, 16			; 00000010H
$LN28@Tidy:
  00022	3b fb		 cmp	 edi, ebx
  00024	75 f1		 jne	 SHORT $LL12@Tidy

; 1306 : 			this->_Alval.deallocate(this->_Myfirst,
; 1307 : 				this->_Myend - this->_Myfirst);

  00026	ff 36		 push	 DWORD PTR [esi]
  00028	e8 00 00 00 00	 call	 ??3@YAXPAX@Z		; operator delete
  0002d	59		 pop	 ecx
  0002e	5f		 pop	 edi
  0002f	5b		 pop	 ebx
$LN24@Tidy:

; 1308 : 			}
; 1309 : 		this->_Myfirst = 0;

  00030	33 c0		 xor	 eax, eax
  00032	89 06		 mov	 DWORD PTR [esi], eax

; 1310 : 		this->_Mylast = 0;

  00034	89 46 04	 mov	 DWORD PTR [esi+4], eax

; 1311 : 		this->_Myend = 0;

  00037	89 46 08	 mov	 DWORD PTR [esi+8], eax
  0003a	5e		 pop	 esi

; 1312 : 		}

  0003b	c3		 ret	 0
?_Tidy@?$vector@VioHashString@@V?$allocator@VioHashString@@@std@@@std@@IAEXXZ ENDP ; std::vector<ioHashString,std::allocator<ioHashString> >::_Tidy
_TEXT	ENDS
PUBLIC	?push_back@?$vector@VioHashString@@V?$allocator@VioHashString@@@std@@@std@@QAEX$$QAVioHashString@@@Z ; std::vector<ioHashString,std::allocator<ioHashString> >::push_back
; Function compile flags: /Ogsp
;	COMDAT ?push_back@?$vector@VioHashString@@V?$allocator@VioHashString@@@std@@@std@@QAEX$$QAVioHashString@@@Z
_TEXT	SEGMENT
__Val$ = 8						; size = 4
?push_back@?$vector@VioHashString@@V?$allocator@VioHashString@@@std@@@std@@QAEX$$QAVioHashString@@@Z PROC ; std::vector<ioHashString,std::allocator<ioHashString> >::push_back, COMDAT
; _this$ = ecx

; 631  : 		{	// insert element at end

  00000	55		 push	 ebp
  00001	8b ec		 mov	 ebp, esp
  00003	56		 push	 esi
  00004	8b f1		 mov	 esi, ecx

; 632  : 		if (_Inside(_STD addressof(_Val)))

  00006	8b 46 04	 mov	 eax, DWORD PTR [esi+4]
  00009	57		 push	 edi
  0000a	8b 7d 08	 mov	 edi, DWORD PTR __Val$[ebp]
  0000d	3b f8		 cmp	 edi, eax
  0000f	73 1d		 jae	 SHORT $LN4@push_back
  00011	8b 0e		 mov	 ecx, DWORD PTR [esi]
  00013	3b cf		 cmp	 ecx, edi
  00015	77 17		 ja	 SHORT $LN4@push_back

; 633  : 			{	// push back an element
; 634  : 			size_type _Idx = _STD addressof(_Val) - this->_Myfirst;

  00017	2b f9		 sub	 edi, ecx

; 635  : 			if (this->_Mylast == this->_Myend)

  00019	3b 46 08	 cmp	 eax, DWORD PTR [esi+8]
  0001c	75 09		 jne	 SHORT $LN3@push_back

; 636  : 				_Reserve(1);

  0001e	6a 01		 push	 1
  00020	8b ce		 mov	 ecx, esi
  00022	e8 00 00 00 00	 call	 ?_Reserve@?$vector@VioHashString@@V?$allocator@VioHashString@@@std@@@std@@IAEXI@Z ; std::vector<ioHashString,std::allocator<ioHashString> >::_Reserve
$LN3@push_back:

; 637  : 			_Orphan_range(this->_Mylast, this->_Mylast);
; 638  : 			_Cons_val(this->_Alval,
; 639  : 				this->_Mylast,
; 640  : 				_STD forward<_Ty>(this->_Myfirst[_Idx]));

  00027	83 e7 f0	 and	 edi, -16		; fffffff0H
  0002a	03 3e		 add	 edi, DWORD PTR [esi]

; 641  : 			++this->_Mylast;
; 642  : 			}
; 643  : 		else

  0002c	eb 0e		 jmp	 SHORT $LN1@push_back
$LN4@push_back:

; 644  : 			{	// push back a non-element
; 645  : 			if (this->_Mylast == this->_Myend)

  0002e	3b 46 08	 cmp	 eax, DWORD PTR [esi+8]
  00031	75 09		 jne	 SHORT $LN1@push_back

; 646  : 				_Reserve(1);

  00033	6a 01		 push	 1
  00035	8b ce		 mov	 ecx, esi
  00037	e8 00 00 00 00	 call	 ?_Reserve@?$vector@VioHashString@@V?$allocator@VioHashString@@@std@@@std@@IAEXI@Z ; std::vector<ioHashString,std::allocator<ioHashString> >::_Reserve
$LN1@push_back:

; 647  : 			_Orphan_range(this->_Mylast, this->_Mylast);
; 648  : 			_Cons_val(this->_Alval,
; 649  : 				this->_Mylast,
; 650  : 				_STD forward<_Ty>(_Val));

  0003c	57		 push	 edi
  0003d	ff 76 04	 push	 DWORD PTR [esi+4]
  00040	8d 4e 0c	 lea	 ecx, DWORD PTR [esi+12]
  00043	e8 00 00 00 00	 call	 ?construct@?$allocator@VioHashString@@@std@@QAEXPAVioHashString@@$$QAV3@@Z ; std::allocator<ioHashString>::construct

; 651  : 			++this->_Mylast;

  00048	83 46 04 10	 add	 DWORD PTR [esi+4], 16	; 00000010H
  0004c	5f		 pop	 edi
  0004d	5e		 pop	 esi

; 652  : 			}
; 653  : 		}

  0004e	5d		 pop	 ebp
  0004f	c2 04 00	 ret	 4
?push_back@?$vector@VioHashString@@V?$allocator@VioHashString@@@std@@@std@@QAEX$$QAVioHashString@@@Z ENDP ; std::vector<ioHashString,std::allocator<ioHashString> >::push_back
_TEXT	ENDS
PUBLIC	?push_back@?$vector@VioHashString@@V?$allocator@VioHashString@@@std@@@std@@QAEXABVioHashString@@@Z ; std::vector<ioHashString,std::allocator<ioHashString> >::push_back
; Function compile flags: /Ogsp
;	COMDAT ?push_back@?$vector@VioHashString@@V?$allocator@VioHashString@@@std@@@std@@QAEXABVioHashString@@@Z
_TEXT	SEGMENT
__Val$ = 8						; size = 4
?push_back@?$vector@VioHashString@@V?$allocator@VioHashString@@@std@@@std@@QAEXABVioHashString@@@Z PROC ; std::vector<ioHashString,std::allocator<ioHashString> >::push_back, COMDAT
; _this$ = ecx

; 976  : 		{	// insert element at end

  00000	55		 push	 ebp
  00001	8b ec		 mov	 ebp, esp
  00003	56		 push	 esi
  00004	8b f1		 mov	 esi, ecx

; 977  : 		if (_Inside(_STD addressof(_Val)))

  00006	8b 46 04	 mov	 eax, DWORD PTR [esi+4]
  00009	57		 push	 edi
  0000a	8b 7d 08	 mov	 edi, DWORD PTR __Val$[ebp]
  0000d	3b f8		 cmp	 edi, eax
  0000f	73 29		 jae	 SHORT $LN4@push_back@2
  00011	8b 0e		 mov	 ecx, DWORD PTR [esi]
  00013	3b cf		 cmp	 ecx, edi
  00015	77 23		 ja	 SHORT $LN4@push_back@2

; 978  : 			{	// push back an element
; 979  : 			size_type _Idx = _STD addressof(_Val) - this->_Myfirst;

  00017	2b f9		 sub	 edi, ecx

; 980  : 			if (this->_Mylast == this->_Myend)

  00019	3b 46 08	 cmp	 eax, DWORD PTR [esi+8]
  0001c	75 09		 jne	 SHORT $LN3@push_back@2

; 981  : 				_Reserve(1);

  0001e	6a 01		 push	 1
  00020	8b ce		 mov	 ecx, esi
  00022	e8 00 00 00 00	 call	 ?_Reserve@?$vector@VioHashString@@V?$allocator@VioHashString@@@std@@@std@@IAEXI@Z ; std::vector<ioHashString,std::allocator<ioHashString> >::_Reserve
$LN3@push_back@2:

; 982  : 			_Orphan_range(this->_Mylast, this->_Mylast);
; 983  : 			_Cons_val(this->_Alval,
; 984  : 				this->_Mylast,
; 985  : 				this->_Myfirst[_Idx]);

  00027	83 e7 f0	 and	 edi, -16		; fffffff0H
  0002a	03 3e		 add	 edi, DWORD PTR [esi]
  0002c	8d 4e 0c	 lea	 ecx, DWORD PTR [esi+12]
  0002f	57		 push	 edi
  00030	ff 76 04	 push	 DWORD PTR [esi+4]
  00033	e8 00 00 00 00	 call	 ??$construct@AAVioHashString@@@?$allocator@VioHashString@@@std@@QAEXPAVioHashString@@AAV2@@Z ; std::allocator<ioHashString>::construct<ioHashString &>

; 986  : 			++this->_Mylast;
; 987  : 			}
; 988  : 		else

  00038	eb 19		 jmp	 SHORT $LN30@push_back@2
$LN4@push_back@2:

; 989  : 			{	// push back a non-element
; 990  : 			if (this->_Mylast == this->_Myend)

  0003a	3b 46 08	 cmp	 eax, DWORD PTR [esi+8]
  0003d	75 09		 jne	 SHORT $LN1@push_back@2

; 991  : 				_Reserve(1);

  0003f	6a 01		 push	 1
  00041	8b ce		 mov	 ecx, esi
  00043	e8 00 00 00 00	 call	 ?_Reserve@?$vector@VioHashString@@V?$allocator@VioHashString@@@std@@@std@@IAEXI@Z ; std::vector<ioHashString,std::allocator<ioHashString> >::_Reserve
$LN1@push_back@2:

; 992  : 			_Orphan_range(this->_Mylast, this->_Mylast);
; 993  : 			_Cons_val(this->_Alval,
; 994  : 				this->_Mylast,
; 995  : 				_Val);

  00048	57		 push	 edi
  00049	ff 76 04	 push	 DWORD PTR [esi+4]
  0004c	e8 00 00 00 00	 call	 ??$_Construct@VioHashString@@ABV1@@std@@YAXPAVioHashString@@ABV1@@Z ; std::_Construct<ioHashString,ioHashString const &>
  00051	59		 pop	 ecx
  00052	59		 pop	 ecx
$LN30@push_back@2:

; 996  : 			++this->_Mylast;

  00053	83 46 04 10	 add	 DWORD PTR [esi+4], 16	; 00000010H
  00057	5f		 pop	 edi
  00058	5e		 pop	 esi

; 997  : 			}
; 998  : 		}

  00059	5d		 pop	 ebp
  0005a	c2 04 00	 ret	 4
?push_back@?$vector@VioHashString@@V?$allocator@VioHashString@@@std@@@std@@QAEXABVioHashString@@@Z ENDP ; std::vector<ioHashString,std::allocator<ioHashString> >::push_back
_TEXT	ENDS
PUBLIC	??1?$vector@VioHashString@@V?$allocator@VioHashString@@@std@@@std@@QAE@XZ ; std::vector<ioHashString,std::allocator<ioHashString> >::~vector<ioHashString,std::allocator<ioHashString> >
; Function compile flags: /Ogsp
;	COMDAT ??1?$vector@VioHashString@@V?$allocator@VioHashString@@@std@@@std@@QAE@XZ
_TEXT	SEGMENT
??1?$vector@VioHashString@@V?$allocator@VioHashString@@@std@@@std@@QAE@XZ PROC ; std::vector<ioHashString,std::allocator<ioHashString> >::~vector<ioHashString,std::allocator<ioHashString> >, COMDAT
; _this$ = ecx

; 705  : 		_Tidy();

  00000	e9 00 00 00 00	 jmp	 ?_Tidy@?$vector@VioHashString@@V?$allocator@VioHashString@@@std@@@std@@IAEXXZ ; std::vector<ioHashString,std::allocator<ioHashString> >::_Tidy
??1?$vector@VioHashString@@V?$allocator@VioHashString@@@std@@@std@@QAE@XZ ENDP ; std::vector<ioHashString,std::allocator<ioHashString> >::~vector<ioHashString,std::allocator<ioHashString> >
_TEXT	ENDS
PUBLIC	?clear@?$vector@VioHashString@@V?$allocator@VioHashString@@@std@@@std@@QAEXXZ ; std::vector<ioHashString,std::allocator<ioHashString> >::clear
; Function compile flags: /Ogsp
;	COMDAT ?clear@?$vector@VioHashString@@V?$allocator@VioHashString@@@std@@@std@@QAEXXZ
_TEXT	SEGMENT
$T529518 = -4						; size = 4
?clear@?$vector@VioHashString@@V?$allocator@VioHashString@@@std@@@std@@QAEXXZ PROC ; std::vector<ioHashString,std::allocator<ioHashString> >::clear, COMDAT
; _this$ = ecx

; 1217 : 		{	// erase all

  00000	55		 push	 ebp
  00001	8b ec		 mov	 ebp, esp
  00003	51		 push	 ecx

; 1218 : 		erase(begin(), end());

  00004	8b 41 04	 mov	 eax, DWORD PTR [ecx+4]
  00007	8b 11		 mov	 edx, DWORD PTR [ecx]
  00009	50		 push	 eax
  0000a	52		 push	 edx
  0000b	8d 45 fc	 lea	 eax, DWORD PTR $T529518[ebp]
  0000e	50		 push	 eax
  0000f	e8 00 00 00 00	 call	 ?erase@?$vector@VioHashString@@V?$allocator@VioHashString@@@std@@@std@@QAE?AV?$_Vector_iterator@V?$_Vector_val@VioHashString@@V?$allocator@VioHashString@@@std@@@std@@@2@V?$_Vector_const_iterator@V?$_Vector_val@VioHashString@@V?$allocator@VioHashString@@@std@@@std@@@2@0@Z ; std::vector<ioHashString,std::allocator<ioHashString> >::erase

; 1219 : 		}

  00014	c9		 leave
  00015	c3		 ret	 0
?clear@?$vector@VioHashString@@V?$allocator@VioHashString@@@std@@@std@@QAEXXZ ENDP ; std::vector<ioHashString,std::allocator<ioHashString> >::clear
_TEXT	ENDS
PUBLIC	??_7ioMultiFlyJumpBuff@@6B@			; ioMultiFlyJumpBuff::`vftable'
PUBLIC	??0ioMultiFlyJumpBuff@@QAE@XZ			; ioMultiFlyJumpBuff::ioMultiFlyJumpBuff
PUBLIC	??_R4ioMultiFlyJumpBuff@@6B@			; ioMultiFlyJumpBuff::`RTTI Complete Object Locator'
PUBLIC	??_R0?AVioMultiFlyJumpBuff@@@8			; ioMultiFlyJumpBuff `RTTI Type Descriptor'
PUBLIC	??_R3ioMultiFlyJumpBuff@@8			; ioMultiFlyJumpBuff::`RTTI Class Hierarchy Descriptor'
PUBLIC	??_R2ioMultiFlyJumpBuff@@8			; ioMultiFlyJumpBuff::`RTTI Base Class Array'
PUBLIC	??_R1A@?0A@EA@ioMultiFlyJumpBuff@@8		; ioMultiFlyJumpBuff::`RTTI Base Class Descriptor at (0,-1,0,64)'
PUBLIC	??_R1A@?0A@EA@ioBuff@@8				; ioBuff::`RTTI Base Class Descriptor at (0,-1,0,64)'
PUBLIC	??_R0?AVioBuff@@@8				; ioBuff `RTTI Type Descriptor'
PUBLIC	??_R3ioBuff@@8					; ioBuff::`RTTI Class Hierarchy Descriptor'
PUBLIC	??_R2ioBuff@@8					; ioBuff::`RTTI Base Class Array'
PUBLIC	?LoadProperty@ioMultiFlyJumpBuff@@UAEXAAVioINILoader@@@Z ; ioMultiFlyJumpBuff::LoadProperty
PUBLIC	?Clone@ioMultiFlyJumpBuff@@UAEPAVioBuff@@XZ	; ioMultiFlyJumpBuff::Clone
PUBLIC	?StartBuff@ioMultiFlyJumpBuff@@UAEXPAVioBaseChar@@@Z ; ioMultiFlyJumpBuff::StartBuff
PUBLIC	?ApplyStartBuff@ioMultiFlyJumpBuff@@UAE_NPAVioBaseChar@@KK@Z ; ioMultiFlyJumpBuff::ApplyStartBuff
PUBLIC	?IsWaitSelfRemove@ioBuff@@UAE_NXZ		; ioBuff::IsWaitSelfRemove
EXTRN	??1ioBuff@@UAE@XZ:PROC				; ioBuff::~ioBuff
EXTRN	??0ioBuff@@QAE@XZ:PROC				; ioBuff::ioBuff
EXTRN	?StartBuffWithAniTime@ioBuff@@UAEXPAVioBaseChar@@K@Z:PROC ; ioBuff::StartBuffWithAniTime
EXTRN	?CancelBuff@ioBuff@@UAEXXZ:PROC			; ioBuff::CancelBuff
EXTRN	?GetBuffInfo@ioBuff@@UAEXAAVSP2Packet@@@Z:PROC	; ioBuff::GetBuffInfo
EXTRN	?ApplyBuffInfo@ioBuff@@UAEXAAVSP2Packet@@@Z:PROC ; ioBuff::ApplyBuffInfo
EXTRN	?AccumulateBuff@ioBuff@@UAEXXZ:PROC		; ioBuff::AccumulateBuff
EXTRN	?IsLiveButStopped@ioBuff@@UBE_NXZ:PROC		; ioBuff::IsLiveButStopped
EXTRN	?SetAction@ioBuff@@MAEXXZ:PROC			; ioBuff::SetAction
EXTRN	?ProcessDelay@ioBuff@@MAEXM@Z:PROC		; ioBuff::ProcessDelay
EXTRN	?SetExtraDurationByGrowth@ioBuff@@UAEXM@Z:PROC	; ioBuff::SetExtraDurationByGrowth
EXTRN	?SetWeaponIndex@ioBuff@@UAEXK@Z:PROC		; ioBuff::SetWeaponIndex
EXTRN	?IsCharCollisionSkip@ioBuff@@UBE_NXZ:PROC	; ioBuff::IsCharCollisionSkip
EXTRN	?IsCollisionAvailableWeapon@ioBuff@@UBE_NXZ:PROC ; ioBuff::IsCollisionAvailableWeapon
EXTRN	?IsProtected@ioBuff@@UBE_NXZ:PROC		; ioBuff::IsProtected
EXTRN	?UseActiveCount@ioBuff@@UBE_NXZ:PROC		; ioBuff::UseActiveCount
EXTRN	?CheckActiveCount@ioBuff@@UAEXXZ:PROC		; ioBuff::CheckActiveCount
EXTRN	?CheckRemoveEquipSkillBuff@ioBuff@@UAEX_N@Z:PROC ; ioBuff::CheckRemoveEquipSkillBuff
EXTRN	?ApplyExtraBuffInfo@ioBuff@@UAEXAAVSP2Packet@@@Z:PROC ; ioBuff::ApplyExtraBuffInfo
EXTRN	?SetBuffGrapplingState@ioBuff@@UAE_NPAVioBaseChar@@ABVioHashString@@@Z:PROC ; ioBuff::SetBuffGrapplingState
EXTRN	?GetGrapplingTargetPos@ioBuff@@UAE?AUD3DXVECTOR3@@PAVioBaseChar@@@Z:PROC ; ioBuff::GetGrapplingTargetPos
EXTRN	??_EioMultiFlyJumpBuff@@UAEPAXI@Z:PROC		; ioMultiFlyJumpBuff::`vector deleting destructor'
;	COMDAT ??_R2ioBuff@@8
; File c:\program files (x86)\microsoft visual studio 10.0\vc\include\xmemory
rdata$r	SEGMENT
??_R2ioBuff@@8 DD FLAT:??_R1A@?0A@EA@ioBuff@@8		; ioBuff::`RTTI Base Class Array'
rdata$r	ENDS
;	COMDAT ??_R3ioBuff@@8
rdata$r	SEGMENT
??_R3ioBuff@@8 DD 00H					; ioBuff::`RTTI Class Hierarchy Descriptor'
	DD	00H
	DD	01H
	DD	FLAT:??_R2ioBuff@@8
rdata$r	ENDS
;	COMDAT ??_R0?AVioBuff@@@8
_DATA	SEGMENT
??_R0?AVioBuff@@@8 DD FLAT:??_7type_info@@6B@		; ioBuff `RTTI Type Descriptor'
	DD	00H
	DB	'.?AVioBuff@@', 00H
_DATA	ENDS
;	COMDAT ??_R1A@?0A@EA@ioBuff@@8
rdata$r	SEGMENT
??_R1A@?0A@EA@ioBuff@@8 DD FLAT:??_R0?AVioBuff@@@8	; ioBuff::`RTTI Base Class Descriptor at (0,-1,0,64)'
	DD	00H
	DD	00H
	DD	0ffffffffH
	DD	00H
	DD	040H
	DD	FLAT:??_R3ioBuff@@8
rdata$r	ENDS
;	COMDAT ??_R1A@?0A@EA@ioMultiFlyJumpBuff@@8
rdata$r	SEGMENT
??_R1A@?0A@EA@ioMultiFlyJumpBuff@@8 DD FLAT:??_R0?AVioMultiFlyJumpBuff@@@8 ; ioMultiFlyJumpBuff::`RTTI Base Class Descriptor at (0,-1,0,64)'
	DD	01H
	DD	00H
	DD	0ffffffffH
	DD	00H
	DD	040H
	DD	FLAT:??_R3ioMultiFlyJumpBuff@@8
rdata$r	ENDS
;	COMDAT ??_R2ioMultiFlyJumpBuff@@8
rdata$r	SEGMENT
??_R2ioMultiFlyJumpBuff@@8 DD FLAT:??_R1A@?0A@EA@ioMultiFlyJumpBuff@@8 ; ioMultiFlyJumpBuff::`RTTI Base Class Array'
	DD	FLAT:??_R1A@?0A@EA@ioBuff@@8
rdata$r	ENDS
;	COMDAT ??_R3ioMultiFlyJumpBuff@@8
rdata$r	SEGMENT
??_R3ioMultiFlyJumpBuff@@8 DD 00H			; ioMultiFlyJumpBuff::`RTTI Class Hierarchy Descriptor'
	DD	00H
	DD	02H
	DD	FLAT:??_R2ioMultiFlyJumpBuff@@8
rdata$r	ENDS
;	COMDAT ??_R0?AVioMultiFlyJumpBuff@@@8
_DATA	SEGMENT
??_R0?AVioMultiFlyJumpBuff@@@8 DD FLAT:??_7type_info@@6B@ ; ioMultiFlyJumpBuff `RTTI Type Descriptor'
	DD	00H
	DB	'.?AVioMultiFlyJumpBuff@@', 00H
_DATA	ENDS
;	COMDAT ??_R4ioMultiFlyJumpBuff@@6B@
rdata$r	SEGMENT
??_R4ioMultiFlyJumpBuff@@6B@ DD 00H			; ioMultiFlyJumpBuff::`RTTI Complete Object Locator'
	DD	00H
	DD	00H
	DD	FLAT:??_R0?AVioMultiFlyJumpBuff@@@8
	DD	FLAT:??_R3ioMultiFlyJumpBuff@@8
rdata$r	ENDS
;	COMDAT ??_7ioMultiFlyJumpBuff@@6B@
CONST	SEGMENT
??_7ioMultiFlyJumpBuff@@6B@ DD FLAT:??_R4ioMultiFlyJumpBuff@@6B@ ; ioMultiFlyJumpBuff::`vftable'
	DD	FLAT:?LoadProperty@ioMultiFlyJumpBuff@@UAEXAAVioINILoader@@@Z
	DD	FLAT:?Clone@ioMultiFlyJumpBuff@@UAEPAVioBuff@@XZ
	DD	FLAT:?StartBuff@ioMultiFlyJumpBuff@@UAEXPAVioBaseChar@@@Z
	DD	FLAT:?StartBuffWithAniTime@ioBuff@@UAEXPAVioBaseChar@@K@Z
	DD	FLAT:?ApplyStartBuff@ioMultiFlyJumpBuff@@UAE_NPAVioBaseChar@@KK@Z
	DD	FLAT:?ProcessBuff@ioMultiFlyJumpBuff@@UAEXM@Z
	DD	FLAT:?EndBuff@ioMultiFlyJumpBuff@@UAEXXZ
	DD	FLAT:?CancelBuff@ioBuff@@UAEXXZ
	DD	FLAT:?GetBuffInfo@ioBuff@@UAEXAAVSP2Packet@@@Z
	DD	FLAT:?ApplyBuffInfo@ioBuff@@UAEXAAVSP2Packet@@@Z
	DD	FLAT:?AccumulateBuff@ioBuff@@UAEXXZ
	DD	FLAT:?IsLiveButStopped@ioBuff@@UBE_NXZ
	DD	FLAT:?IsCanJumpAttack@ioMultiFlyJumpBuff@@UBE_NXZ
	DD	FLAT:?SetAction@ioBuff@@MAEXXZ
	DD	FLAT:?ProcessDelay@ioBuff@@MAEXM@Z
	DD	FLAT:?SetExtraDurationByGrowth@ioBuff@@UAEXM@Z
	DD	FLAT:?SetWeaponIndex@ioBuff@@UAEXK@Z
	DD	FLAT:?OnReduceGauge@ioMultiFlyJumpBuff@@UBE_NXZ
	DD	FLAT:?IsCharCollisionSkip@ioBuff@@UBE_NXZ
	DD	FLAT:?IsCollisionAvailableWeapon@ioBuff@@UBE_NXZ
	DD	FLAT:?IsProtected@ioBuff@@UBE_NXZ
	DD	FLAT:?UseActiveCount@ioBuff@@UBE_NXZ
	DD	FLAT:?CheckActiveCount@ioBuff@@UAEXXZ
	DD	FLAT:?CheckRemoveEquipSkillBuff@ioBuff@@UAEX_N@Z
	DD	FLAT:?ApplyExtraBuffInfo@ioBuff@@UAEXAAVSP2Packet@@@Z
	DD	FLAT:?SetBuffGrapplingState@ioBuff@@UAE_NPAVioBaseChar@@ABVioHashString@@@Z
	DD	FLAT:?GetGrapplingTargetPos@ioBuff@@UAE?AUD3DXVECTOR3@@PAVioBaseChar@@@Z
	DD	FLAT:?IsWaitSelfRemove@ioBuff@@UAE_NXZ
	DD	FLAT:??_EioMultiFlyJumpBuff@@UAEPAXI@Z
CONST	ENDS
;	COMDAT xdata$x
xdata$x	SEGMENT
__ehfuncinfo$??0ioMultiFlyJumpBuff@@QAE@XZ DD 019930522H
	DD	05H
	DD	FLAT:__unwindtable$??0ioMultiFlyJumpBuff@@QAE@XZ
	DD	2 DUP(00H)
	DD	2 DUP(00H)
	DD	00H
	DD	01H
__unwindtable$??0ioMultiFlyJumpBuff@@QAE@XZ DD 0ffffffffH
	DD	FLAT:__unwindfunclet$??0ioMultiFlyJumpBuff@@QAE@XZ$0
	DD	00H
	DD	FLAT:__unwindfunclet$??0ioMultiFlyJumpBuff@@QAE@XZ$1
	DD	01H
	DD	FLAT:__unwindfunclet$??0ioMultiFlyJumpBuff@@QAE@XZ$2
	DD	02H
	DD	FLAT:__unwindfunclet$??0ioMultiFlyJumpBuff@@QAE@XZ$3
	DD	03H
	DD	FLAT:__unwindfunclet$??0ioMultiFlyJumpBuff@@QAE@XZ$4
; Function compile flags: /Ogsp
; File d:\lost saga for developer\youtube\tutorial\source\src\lsclient\iomultiflyjumpbuff.cpp
xdata$x	ENDS
;	COMDAT ??0ioMultiFlyJumpBuff@@QAE@XZ
_TEXT	SEGMENT
_this$ = -16						; size = 4
__$EHRec$ = -12						; size = 12
??0ioMultiFlyJumpBuff@@QAE@XZ PROC			; ioMultiFlyJumpBuff::ioMultiFlyJumpBuff, COMDAT
; _this$ = ecx

; 13   : {

  00000	6a 04		 push	 4
  00002	b8 00 00 00 00	 mov	 eax, __ehhandler$??0ioMultiFlyJumpBuff@@QAE@XZ
  00007	e8 00 00 00 00	 call	 __EH_prolog3
  0000c	8b f1		 mov	 esi, ecx
  0000e	89 75 f0	 mov	 DWORD PTR _this$[ebp], esi
  00011	e8 00 00 00 00	 call	 ??0ioBuff@@QAE@XZ	; ioBuff::ioBuff
  00016	33 c9		 xor	 ecx, ecx
  00018	c7 06 00 00 00
	00		 mov	 DWORD PTR [esi], OFFSET ??_7ioMultiFlyJumpBuff@@6B@
  0001e	89 4d fc	 mov	 DWORD PTR __$EHRec$[ebp+8], ecx
  00021	89 8e 6c 09 00
	00		 mov	 DWORD PTR [esi+2412], ecx
  00027	89 8e 70 09 00
	00		 mov	 DWORD PTR [esi+2416], ecx
  0002d	89 8e 74 09 00
	00		 mov	 DWORD PTR [esi+2420], ecx
  00033	89 8e 7c 09 00
	00		 mov	 DWORD PTR [esi+2428], ecx
  00039	89 8e 80 09 00
	00		 mov	 DWORD PTR [esi+2432], ecx
  0003f	89 8e 84 09 00
	00		 mov	 DWORD PTR [esi+2436], ecx
  00045	8d 8e c0 09 00
	00		 lea	 ecx, DWORD PTR [esi+2496]
  0004b	c6 45 fc 02	 mov	 BYTE PTR __$EHRec$[ebp+8], 2
  0004f	e8 00 00 00 00	 call	 ??0?$CEncrypt@_N@@QAE@XZ ; CEncrypt<bool>::CEncrypt<bool>
  00054	8d 8e f0 09 00
	00		 lea	 ecx, DWORD PTR [esi+2544]
  0005a	c6 45 fc 03	 mov	 BYTE PTR __$EHRec$[ebp+8], 3
  0005e	e8 00 00 00 00	 call	 ??0?$CEncrypt@K@@QAE@XZ	; CEncrypt<unsigned long>::CEncrypt<unsigned long>
  00063	8d 8e 24 0a 00
	00		 lea	 ecx, DWORD PTR [esi+2596]
  00069	c6 45 fc 04	 mov	 BYTE PTR __$EHRec$[ebp+8], 4
  0006d	e8 00 00 00 00	 call	 ??0?$CEncrypt@_N@@QAE@XZ ; CEncrypt<bool>::CEncrypt<bool>

; 14   : }

  00072	8b c6		 mov	 eax, esi
  00074	e8 00 00 00 00	 call	 __EH_epilog3
  00079	c3		 ret	 0
_TEXT	ENDS
;	COMDAT text$x
text$x	SEGMENT
__unwindfunclet$??0ioMultiFlyJumpBuff@@QAE@XZ$0:
  00000	8b 4d f0	 mov	 ecx, DWORD PTR _this$[ebp]
  00003	e9 00 00 00 00	 jmp	 ??1ioBuff@@UAE@XZ	; ioBuff::~ioBuff
__unwindfunclet$??0ioMultiFlyJumpBuff@@QAE@XZ$1:
  00008	8b 4d f0	 mov	 ecx, DWORD PTR _this$[ebp]
  0000b	81 c1 6c 09 00
	00		 add	 ecx, 2412		; 0000096cH
  00011	e9 00 00 00 00	 jmp	 ??1?$vector@VioHashString@@V?$allocator@VioHashString@@@std@@@std@@QAE@XZ ; std::vector<ioHashString,std::allocator<ioHashString> >::~vector<ioHashString,std::allocator<ioHashString> >
__unwindfunclet$??0ioMultiFlyJumpBuff@@QAE@XZ$2:
  00016	8b 4d f0	 mov	 ecx, DWORD PTR _this$[ebp]
  00019	81 c1 7c 09 00
	00		 add	 ecx, 2428		; 0000097cH
  0001f	e9 00 00 00 00	 jmp	 ??1?$vector@VioHashString@@V?$allocator@VioHashString@@@std@@@std@@QAE@XZ ; std::vector<ioHashString,std::allocator<ioHashString> >::~vector<ioHashString,std::allocator<ioHashString> >
__unwindfunclet$??0ioMultiFlyJumpBuff@@QAE@XZ$3:
  00024	8b 4d f0	 mov	 ecx, DWORD PTR _this$[ebp]
  00027	81 c1 c0 09 00
	00		 add	 ecx, 2496		; 000009c0H
  0002d	e9 00 00 00 00	 jmp	 ??1?$CEncrypt@_N@@UAE@XZ ; CEncrypt<bool>::~CEncrypt<bool>
__unwindfunclet$??0ioMultiFlyJumpBuff@@QAE@XZ$4:
  00032	8b 4d f0	 mov	 ecx, DWORD PTR _this$[ebp]
  00035	81 c1 f0 09 00
	00		 add	 ecx, 2544		; 000009f0H
  0003b	e9 00 00 00 00	 jmp	 ??1?$CEncrypt@K@@UAE@XZ	; CEncrypt<unsigned long>::~CEncrypt<unsigned long>
__ehhandler$??0ioMultiFlyJumpBuff@@QAE@XZ:
  00040	8b 54 24 08	 mov	 edx, DWORD PTR [esp+8]
  00044	8d 42 0c	 lea	 eax, DWORD PTR [edx+12]
  00047	8b 4a ec	 mov	 ecx, DWORD PTR [edx-20]
  0004a	33 c8		 xor	 ecx, eax
  0004c	e8 00 00 00 00	 call	 @__security_check_cookie@4
  00051	b8 00 00 00 00	 mov	 eax, OFFSET __ehfuncinfo$??0ioMultiFlyJumpBuff@@QAE@XZ
  00056	e9 00 00 00 00	 jmp	 ___CxxFrameHandler3
text$x	ENDS
??0ioMultiFlyJumpBuff@@QAE@XZ ENDP			; ioMultiFlyJumpBuff::ioMultiFlyJumpBuff
; Function compile flags: /Ogsp
; File d:\lost saga for developer\youtube\tutorial\source\src\lsclient\iobuff.h
;	COMDAT ?IsWaitSelfRemove@ioBuff@@UAE_NXZ
_TEXT	SEGMENT
?IsWaitSelfRemove@ioBuff@@UAE_NXZ PROC			; ioBuff::IsWaitSelfRemove, COMDAT
; _this$ = ecx

; 519  : 	virtual bool IsWaitSelfRemove() { return m_bWaitSelfRemove; }

  00000	8a 81 65 09 00
	00		 mov	 al, BYTE PTR [ecx+2405]
  00006	c3		 ret	 0
?IsWaitSelfRemove@ioBuff@@UAE_NXZ ENDP			; ioBuff::IsWaitSelfRemove
_TEXT	ENDS
PUBLIC	??0ioMultiFlyJumpBuff@@QAE@ABV0@@Z		; ioMultiFlyJumpBuff::ioMultiFlyJumpBuff
EXTRN	??0ioBuff@@QAE@ABV0@@Z:PROC			; ioBuff::ioBuff
;	COMDAT xdata$x
; File c:\program files (x86)\microsoft visual studio 10.0\vc\include\vector
xdata$x	SEGMENT
__ehfuncinfo$??0ioMultiFlyJumpBuff@@QAE@ABV0@@Z DD 019930522H
	DD	06H
	DD	FLAT:__unwindtable$??0ioMultiFlyJumpBuff@@QAE@ABV0@@Z
	DD	2 DUP(00H)
	DD	2 DUP(00H)
	DD	00H
	DD	01H
__unwindtable$??0ioMultiFlyJumpBuff@@QAE@ABV0@@Z DD 0ffffffffH
	DD	FLAT:__unwindfunclet$??0ioMultiFlyJumpBuff@@QAE@ABV0@@Z$0
	DD	00H
	DD	FLAT:__unwindfunclet$??0ioMultiFlyJumpBuff@@QAE@ABV0@@Z$1
	DD	01H
	DD	FLAT:__unwindfunclet$??0ioMultiFlyJumpBuff@@QAE@ABV0@@Z$2
	DD	02H
	DD	FLAT:__unwindfunclet$??0ioMultiFlyJumpBuff@@QAE@ABV0@@Z$3
	DD	03H
	DD	FLAT:__unwindfunclet$??0ioMultiFlyJumpBuff@@QAE@ABV0@@Z$4
	DD	04H
	DD	FLAT:__unwindfunclet$??0ioMultiFlyJumpBuff@@QAE@ABV0@@Z$5
; Function compile flags: /Ogsp
; File d:\lost saga for developer\youtube\tutorial\source\src\lsclient\iomultiflyjumpbuff.cpp
xdata$x	ENDS
;	COMDAT ??0ioMultiFlyJumpBuff@@QAE@ABV0@@Z
_TEXT	SEGMENT
_this$ = -20						; size = 4
tv398 = -16						; size = 4
tv155 = -16						; size = 4
__$EHRec$ = -12						; size = 12
tv665 = 8						; size = 4
tv652 = 8						; size = 4
$T529843 = 8						; size = 4
$T529756 = 8						; size = 4
_rhs$ = 8						; size = 4
??0ioMultiFlyJumpBuff@@QAE@ABV0@@Z PROC			; ioMultiFlyJumpBuff::ioMultiFlyJumpBuff, COMDAT
; _this$ = ecx

; 35   : {

  00000	6a 08		 push	 8
  00002	b8 00 00 00 00	 mov	 eax, __ehhandler$??0ioMultiFlyJumpBuff@@QAE@ABV0@@Z
  00007	e8 00 00 00 00	 call	 __EH_prolog3
  0000c	8b f9		 mov	 edi, ecx
  0000e	89 7d ec	 mov	 DWORD PTR _this$[ebp], edi
  00011	8b 75 08	 mov	 esi, DWORD PTR _rhs$[ebp]
  00014	56		 push	 esi
  00015	e8 00 00 00 00	 call	 ??0ioBuff@@QAE@ABV0@@Z	; ioBuff::ioBuff
  0001a	33 c9		 xor	 ecx, ecx
  0001c	c7 07 00 00 00
	00		 mov	 DWORD PTR [edi], OFFSET ??_7ioMultiFlyJumpBuff@@6B@
  00022	89 4d fc	 mov	 DWORD PTR __$EHRec$[ebp+8], ecx
  00025	89 8f 6c 09 00
	00		 mov	 DWORD PTR [edi+2412], ecx
  0002b	89 8f 70 09 00
	00		 mov	 DWORD PTR [edi+2416], ecx
  00031	89 8f 74 09 00
	00		 mov	 DWORD PTR [edi+2420], ecx
  00037	89 8f 7c 09 00
	00		 mov	 DWORD PTR [edi+2428], ecx
  0003d	89 8f 80 09 00
	00		 mov	 DWORD PTR [edi+2432], ecx
  00043	89 8f 84 09 00
	00		 mov	 DWORD PTR [edi+2436], ecx
  00049	8b 86 8c 09 00
	00		 mov	 eax, DWORD PTR [esi+2444]
  0004f	89 87 8c 09 00
	00		 mov	 DWORD PTR [edi+2444], eax
  00055	8a 86 90 09 00
	00		 mov	 al, BYTE PTR [esi+2448]
  0005b	88 87 90 09 00
	00		 mov	 BYTE PTR [edi+2448], al
  00061	8a 86 91 09 00
	00		 mov	 al, BYTE PTR [esi+2449]
  00067	88 87 91 09 00
	00		 mov	 BYTE PTR [edi+2449], al
  0006d	d9 86 94 09 00
	00		 fld	 DWORD PTR [esi+2452]
  00073	d9 9f 94 09 00
	00		 fstp	 DWORD PTR [edi+2452]
  00079	8d 8f c0 09 00
	00		 lea	 ecx, DWORD PTR [edi+2496]
  0007f	d9 86 98 09 00
	00		 fld	 DWORD PTR [esi+2456]
  00085	c6 45 fc 02	 mov	 BYTE PTR __$EHRec$[ebp+8], 2
  00089	d9 9f 98 09 00
	00		 fstp	 DWORD PTR [edi+2456]
  0008f	d9 86 9c 09 00
	00		 fld	 DWORD PTR [esi+2460]
  00095	d9 9f 9c 09 00
	00		 fstp	 DWORD PTR [edi+2460]
  0009b	d9 86 a0 09 00
	00		 fld	 DWORD PTR [esi+2464]
  000a1	d9 9f a0 09 00
	00		 fstp	 DWORD PTR [edi+2464]
  000a7	d9 86 a4 09 00
	00		 fld	 DWORD PTR [esi+2468]
  000ad	d9 9f a4 09 00
	00		 fstp	 DWORD PTR [edi+2468]
  000b3	d9 86 a8 09 00
	00		 fld	 DWORD PTR [esi+2472]
  000b9	d9 9f a8 09 00
	00		 fstp	 DWORD PTR [edi+2472]
  000bf	d9 86 ac 09 00
	00		 fld	 DWORD PTR [esi+2476]
  000c5	d9 9f ac 09 00
	00		 fstp	 DWORD PTR [edi+2476]
  000cb	d9 86 b0 09 00
	00		 fld	 DWORD PTR [esi+2480]
  000d1	d9 9f b0 09 00
	00		 fstp	 DWORD PTR [edi+2480]
  000d7	d9 86 b4 09 00
	00		 fld	 DWORD PTR [esi+2484]
  000dd	d9 9f b4 09 00
	00		 fstp	 DWORD PTR [edi+2484]
  000e3	8b 86 b8 09 00
	00		 mov	 eax, DWORD PTR [esi+2488]
  000e9	89 87 b8 09 00
	00		 mov	 DWORD PTR [edi+2488], eax
  000ef	8a 86 bc 09 00
	00		 mov	 al, BYTE PTR [esi+2492]
  000f5	88 87 bc 09 00
	00		 mov	 BYTE PTR [edi+2492], al
  000fb	8d 86 c0 09 00
	00		 lea	 eax, DWORD PTR [esi+2496]
  00101	50		 push	 eax
  00102	e8 00 00 00 00	 call	 ??0?$CEncrypt@_N@@QAE@ABV0@@Z ; CEncrypt<bool>::CEncrypt<bool>
  00107	8d 86 f0 09 00
	00		 lea	 eax, DWORD PTR [esi+2544]
  0010d	50		 push	 eax
  0010e	8d 8f f0 09 00
	00		 lea	 ecx, DWORD PTR [edi+2544]
  00114	c6 45 fc 03	 mov	 BYTE PTR __$EHRec$[ebp+8], 3
  00118	e8 00 00 00 00	 call	 ??0?$CEncrypt@K@@QAE@ABV0@@Z ; CEncrypt<unsigned long>::CEncrypt<unsigned long>
  0011d	8d 86 24 0a 00
	00		 lea	 eax, DWORD PTR [esi+2596]
  00123	50		 push	 eax
  00124	8d 8f 24 0a 00
	00		 lea	 ecx, DWORD PTR [edi+2596]
  0012a	c6 45 fc 04	 mov	 BYTE PTR __$EHRec$[ebp+8], 4
  0012e	e8 00 00 00 00	 call	 ??0?$CEncrypt@_N@@QAE@ABV0@@Z ; CEncrypt<bool>::CEncrypt<bool>

; 36   : 	m_vJumpAnimationList.clear();

  00133	8b 87 70 09 00
	00		 mov	 eax, DWORD PTR [edi+2416]
  00139	8b 8f 6c 09 00
	00		 mov	 ecx, DWORD PTR [edi+2412]
  0013f	50		 push	 eax
  00140	51		 push	 ecx
  00141	8d 45 08	 lea	 eax, DWORD PTR $T529756[ebp]
  00144	50		 push	 eax
  00145	8d 8f 6c 09 00
	00		 lea	 ecx, DWORD PTR [edi+2412]
  0014b	c6 45 fc 05	 mov	 BYTE PTR __$EHRec$[ebp+8], 5
  0014f	e8 00 00 00 00	 call	 ?erase@?$vector@VioHashString@@V?$allocator@VioHashString@@@std@@@std@@QAE?AV?$_Vector_iterator@V?$_Vector_val@VioHashString@@V?$allocator@VioHashString@@@std@@@std@@@2@V?$_Vector_const_iterator@V?$_Vector_val@VioHashString@@V?$allocator@VioHashString@@@std@@@std@@@2@0@Z ; std::vector<ioHashString,std::allocator<ioHashString> >::erase

; 37   : 	int iCnt = rhs.m_vJumpAnimationList.size();

  00154	8b 86 70 09 00
	00		 mov	 eax, DWORD PTR [esi+2416]
  0015a	2b 86 6c 09 00
	00		 sub	 eax, DWORD PTR [esi+2412]
  00160	c1 f8 04	 sar	 eax, 4

; 38   : 	for( int i=0; i < iCnt; i++ )

  00163	85 c0		 test	 eax, eax
  00165	7e 25		 jle	 SHORT $LN4@ioMultiFly

; 35   : {

  00167	83 65 08 00	 and	 DWORD PTR tv652[ebp], 0
  0016b	89 45 f0	 mov	 DWORD PTR tv398[ebp], eax
$LN6@ioMultiFly:

; 38   : 	for( int i=0; i < iCnt; i++ )

  0016e	8b 86 6c 09 00
	00		 mov	 eax, DWORD PTR [esi+2412]
  00174	03 45 08	 add	 eax, DWORD PTR tv652[ebp]

; 39   : 		m_vJumpAnimationList.push_back( rhs.m_vJumpAnimationList[i] );

  00177	8d 8f 6c 09 00
	00		 lea	 ecx, DWORD PTR [edi+2412]
  0017d	50		 push	 eax
  0017e	e8 00 00 00 00	 call	 ?push_back@?$vector@VioHashString@@V?$allocator@VioHashString@@@std@@@std@@QAEXABVioHashString@@@Z ; std::vector<ioHashString,std::allocator<ioHashString> >::push_back
  00183	83 45 08 10	 add	 DWORD PTR tv652[ebp], 16 ; 00000010H
  00187	ff 4d f0	 dec	 DWORD PTR tv398[ebp]
  0018a	75 e2		 jne	 SHORT $LN6@ioMultiFly
$LN4@ioMultiFly:

; 40   : 
; 41   : 	m_vJumpExtraAnimationList.clear();

  0018c	8b 87 80 09 00
	00		 mov	 eax, DWORD PTR [edi+2432]
  00192	8b 8f 7c 09 00
	00		 mov	 ecx, DWORD PTR [edi+2428]
  00198	50		 push	 eax
  00199	51		 push	 ecx
  0019a	8d 45 08	 lea	 eax, DWORD PTR $T529843[ebp]
  0019d	50		 push	 eax
  0019e	8d 8f 7c 09 00
	00		 lea	 ecx, DWORD PTR [edi+2428]
  001a4	e8 00 00 00 00	 call	 ?erase@?$vector@VioHashString@@V?$allocator@VioHashString@@@std@@@std@@QAE?AV?$_Vector_iterator@V?$_Vector_val@VioHashString@@V?$allocator@VioHashString@@@std@@@std@@@2@V?$_Vector_const_iterator@V?$_Vector_val@VioHashString@@V?$allocator@VioHashString@@@std@@@std@@@2@0@Z ; std::vector<ioHashString,std::allocator<ioHashString> >::erase

; 42   : 	iCnt = rhs.m_vJumpExtraAnimationList.size();

  001a9	8b 86 80 09 00
	00		 mov	 eax, DWORD PTR [esi+2432]
  001af	2b 86 7c 09 00
	00		 sub	 eax, DWORD PTR [esi+2428]
  001b5	c1 f8 04	 sar	 eax, 4

; 43   : 	for( int i=0; i < iCnt; i++ )

  001b8	85 c0		 test	 eax, eax
  001ba	7e 25		 jle	 SHORT $LN1@ioMultiFly

; 40   : 
; 41   : 	m_vJumpExtraAnimationList.clear();

  001bc	83 65 08 00	 and	 DWORD PTR tv665[ebp], 0
  001c0	89 45 f0	 mov	 DWORD PTR tv155[ebp], eax
$LN3@ioMultiFly:

; 43   : 	for( int i=0; i < iCnt; i++ )

  001c3	8b 86 7c 09 00
	00		 mov	 eax, DWORD PTR [esi+2428]
  001c9	03 45 08	 add	 eax, DWORD PTR tv665[ebp]

; 44   : 		m_vJumpExtraAnimationList.push_back( rhs.m_vJumpExtraAnimationList[i] );

  001cc	8d 8f 7c 09 00
	00		 lea	 ecx, DWORD PTR [edi+2428]
  001d2	50		 push	 eax
  001d3	e8 00 00 00 00	 call	 ?push_back@?$vector@VioHashString@@V?$allocator@VioHashString@@@std@@@std@@QAEXABVioHashString@@@Z ; std::vector<ioHashString,std::allocator<ioHashString> >::push_back
  001d8	83 45 08 10	 add	 DWORD PTR tv665[ebp], 16 ; 00000010H
  001dc	ff 4d f0	 dec	 DWORD PTR tv155[ebp]
  001df	75 e2		 jne	 SHORT $LN3@ioMultiFly
$LN1@ioMultiFly:

; 45   : }

  001e1	8b c7		 mov	 eax, edi
  001e3	e8 00 00 00 00	 call	 __EH_epilog3
  001e8	c2 04 00	 ret	 4
_TEXT	ENDS
;	COMDAT text$x
text$x	SEGMENT
__unwindfunclet$??0ioMultiFlyJumpBuff@@QAE@ABV0@@Z$0:
  00000	8b 4d ec	 mov	 ecx, DWORD PTR _this$[ebp]
  00003	e9 00 00 00 00	 jmp	 ??1ioBuff@@UAE@XZ	; ioBuff::~ioBuff
__unwindfunclet$??0ioMultiFlyJumpBuff@@QAE@ABV0@@Z$1:
  00008	8b 4d ec	 mov	 ecx, DWORD PTR _this$[ebp]
  0000b	81 c1 6c 09 00
	00		 add	 ecx, 2412		; 0000096cH
  00011	e9 00 00 00 00	 jmp	 ??1?$vector@VioHashString@@V?$allocator@VioHashString@@@std@@@std@@QAE@XZ ; std::vector<ioHashString,std::allocator<ioHashString> >::~vector<ioHashString,std::allocator<ioHashString> >
__unwindfunclet$??0ioMultiFlyJumpBuff@@QAE@ABV0@@Z$2:
  00016	8b 4d ec	 mov	 ecx, DWORD PTR _this$[ebp]
  00019	81 c1 7c 09 00
	00		 add	 ecx, 2428		; 0000097cH
  0001f	e9 00 00 00 00	 jmp	 ??1?$vector@VioHashString@@V?$allocator@VioHashString@@@std@@@std@@QAE@XZ ; std::vector<ioHashString,std::allocator<ioHashString> >::~vector<ioHashString,std::allocator<ioHashString> >
__unwindfunclet$??0ioMultiFlyJumpBuff@@QAE@ABV0@@Z$3:
  00024	8b 4d ec	 mov	 ecx, DWORD PTR _this$[ebp]
  00027	81 c1 c0 09 00
	00		 add	 ecx, 2496		; 000009c0H
  0002d	e9 00 00 00 00	 jmp	 ??1?$CEncrypt@_N@@UAE@XZ ; CEncrypt<bool>::~CEncrypt<bool>
__unwindfunclet$??0ioMultiFlyJumpBuff@@QAE@ABV0@@Z$4:
  00032	8b 4d ec	 mov	 ecx, DWORD PTR _this$[ebp]
  00035	81 c1 f0 09 00
	00		 add	 ecx, 2544		; 000009f0H
  0003b	e9 00 00 00 00	 jmp	 ??1?$CEncrypt@K@@UAE@XZ	; CEncrypt<unsigned long>::~CEncrypt<unsigned long>
__unwindfunclet$??0ioMultiFlyJumpBuff@@QAE@ABV0@@Z$5:
  00040	8b 4d ec	 mov	 ecx, DWORD PTR _this$[ebp]
  00043	81 c1 24 0a 00
	00		 add	 ecx, 2596		; 00000a24H
  00049	e9 00 00 00 00	 jmp	 ??1?$CEncrypt@_N@@UAE@XZ ; CEncrypt<bool>::~CEncrypt<bool>
__ehhandler$??0ioMultiFlyJumpBuff@@QAE@ABV0@@Z:
  0004e	8b 54 24 08	 mov	 edx, DWORD PTR [esp+8]
  00052	8d 42 0c	 lea	 eax, DWORD PTR [edx+12]
  00055	8b 4a e8	 mov	 ecx, DWORD PTR [edx-24]
  00058	33 c8		 xor	 ecx, eax
  0005a	e8 00 00 00 00	 call	 @__security_check_cookie@4
  0005f	b8 00 00 00 00	 mov	 eax, OFFSET __ehfuncinfo$??0ioMultiFlyJumpBuff@@QAE@ABV0@@Z
  00064	e9 00 00 00 00	 jmp	 ___CxxFrameHandler3
text$x	ENDS
??0ioMultiFlyJumpBuff@@QAE@ABV0@@Z ENDP			; ioMultiFlyJumpBuff::ioMultiFlyJumpBuff
PUBLIC	??1ioMultiFlyJumpBuff@@UAE@XZ			; ioMultiFlyJumpBuff::~ioMultiFlyJumpBuff
;	COMDAT xdata$x
; File c:\program files (x86)\microsoft visual studio 10.0\vc\include\vector
xdata$x	SEGMENT
__ehfuncinfo$??1ioMultiFlyJumpBuff@@UAE@XZ DD 019930522H
	DD	05H
	DD	FLAT:__unwindtable$??1ioMultiFlyJumpBuff@@UAE@XZ
	DD	2 DUP(00H)
	DD	2 DUP(00H)
	DD	00H
	DD	01H
__unwindtable$??1ioMultiFlyJumpBuff@@UAE@XZ DD 0ffffffffH
	DD	FLAT:__unwindfunclet$??1ioMultiFlyJumpBuff@@UAE@XZ$0
	DD	00H
	DD	FLAT:__unwindfunclet$??1ioMultiFlyJumpBuff@@UAE@XZ$1
	DD	01H
	DD	FLAT:__unwindfunclet$??1ioMultiFlyJumpBuff@@UAE@XZ$2
	DD	02H
	DD	FLAT:__unwindfunclet$??1ioMultiFlyJumpBuff@@UAE@XZ$3
	DD	03H
	DD	FLAT:__unwindfunclet$??1ioMultiFlyJumpBuff@@UAE@XZ$4
; Function compile flags: /Ogsp
; File d:\lost saga for developer\youtube\tutorial\source\src\lsclient\iomultiflyjumpbuff.cpp
xdata$x	ENDS
;	COMDAT ??1ioMultiFlyJumpBuff@@UAE@XZ
_TEXT	SEGMENT
_this$ = -16						; size = 4
__$EHRec$ = -12						; size = 12
??1ioMultiFlyJumpBuff@@UAE@XZ PROC			; ioMultiFlyJumpBuff::~ioMultiFlyJumpBuff, COMDAT
; _this$ = ecx

; 48   : {

  00000	6a 04		 push	 4
  00002	b8 00 00 00 00	 mov	 eax, __ehhandler$??1ioMultiFlyJumpBuff@@UAE@XZ
  00007	e8 00 00 00 00	 call	 __EH_prolog3
  0000c	8b f1		 mov	 esi, ecx
  0000e	89 75 f0	 mov	 DWORD PTR _this$[ebp], esi
  00011	c7 06 00 00 00
	00		 mov	 DWORD PTR [esi], OFFSET ??_7ioMultiFlyJumpBuff@@6B@

; 49   : }

  00017	bf 00 00 00 00	 mov	 edi, OFFSET ??_7?$CEncrypt@_N@@6B@
  0001c	8d 8e 30 0a 00
	00		 lea	 ecx, DWORD PTR [esi+2608]
  00022	c7 45 fc 04 00
	00 00		 mov	 DWORD PTR __$EHRec$[ebp+8], 4
  00029	89 be 24 0a 00
	00		 mov	 DWORD PTR [esi+2596], edi
  0002f	e8 00 00 00 00	 call	 ??1ccddaabb@@UAE@XZ	; ccddaabb::~ccddaabb
  00034	8d 8e fc 09 00
	00		 lea	 ecx, DWORD PTR [esi+2556]
  0003a	c6 45 fc 03	 mov	 BYTE PTR __$EHRec$[ebp+8], 3
  0003e	c7 86 f0 09 00
	00 00 00 00 00	 mov	 DWORD PTR [esi+2544], OFFSET ??_7?$CEncrypt@K@@6B@
  00048	e8 00 00 00 00	 call	 ??1ccddaabb@@UAE@XZ	; ccddaabb::~ccddaabb
  0004d	8d 8e cc 09 00
	00		 lea	 ecx, DWORD PTR [esi+2508]
  00053	c6 45 fc 02	 mov	 BYTE PTR __$EHRec$[ebp+8], 2
  00057	89 be c0 09 00
	00		 mov	 DWORD PTR [esi+2496], edi
  0005d	e8 00 00 00 00	 call	 ??1ccddaabb@@UAE@XZ	; ccddaabb::~ccddaabb
  00062	8d 8e 7c 09 00
	00		 lea	 ecx, DWORD PTR [esi+2428]
  00068	c6 45 fc 01	 mov	 BYTE PTR __$EHRec$[ebp+8], 1
  0006c	e8 00 00 00 00	 call	 ?_Tidy@?$vector@VioHashString@@V?$allocator@VioHashString@@@std@@@std@@IAEXXZ ; std::vector<ioHashString,std::allocator<ioHashString> >::_Tidy
  00071	8d 8e 6c 09 00
	00		 lea	 ecx, DWORD PTR [esi+2412]
  00077	c6 45 fc 00	 mov	 BYTE PTR __$EHRec$[ebp+8], 0
  0007b	e8 00 00 00 00	 call	 ?_Tidy@?$vector@VioHashString@@V?$allocator@VioHashString@@@std@@@std@@IAEXXZ ; std::vector<ioHashString,std::allocator<ioHashString> >::_Tidy
  00080	83 4d fc ff	 or	 DWORD PTR __$EHRec$[ebp+8], -1
  00084	8b ce		 mov	 ecx, esi
  00086	e8 00 00 00 00	 call	 ??1ioBuff@@UAE@XZ	; ioBuff::~ioBuff
  0008b	e8 00 00 00 00	 call	 __EH_epilog3
  00090	c3		 ret	 0
_TEXT	ENDS
;	COMDAT text$x
text$x	SEGMENT
__unwindfunclet$??1ioMultiFlyJumpBuff@@UAE@XZ$0:
  00000	8b 4d f0	 mov	 ecx, DWORD PTR _this$[ebp]
  00003	e9 00 00 00 00	 jmp	 ??1ioBuff@@UAE@XZ	; ioBuff::~ioBuff
__unwindfunclet$??1ioMultiFlyJumpBuff@@UAE@XZ$1:
  00008	8b 4d f0	 mov	 ecx, DWORD PTR _this$[ebp]
  0000b	81 c1 6c 09 00
	00		 add	 ecx, 2412		; 0000096cH
  00011	e9 00 00 00 00	 jmp	 ??1?$vector@VioHashString@@V?$allocator@VioHashString@@@std@@@std@@QAE@XZ ; std::vector<ioHashString,std::allocator<ioHashString> >::~vector<ioHashString,std::allocator<ioHashString> >
__unwindfunclet$??1ioMultiFlyJumpBuff@@UAE@XZ$2:
  00016	8b 4d f0	 mov	 ecx, DWORD PTR _this$[ebp]
  00019	81 c1 7c 09 00
	00		 add	 ecx, 2428		; 0000097cH
  0001f	e9 00 00 00 00	 jmp	 ??1?$vector@VioHashString@@V?$allocator@VioHashString@@@std@@@std@@QAE@XZ ; std::vector<ioHashString,std::allocator<ioHashString> >::~vector<ioHashString,std::allocator<ioHashString> >
__unwindfunclet$??1ioMultiFlyJumpBuff@@UAE@XZ$3:
  00024	8b 4d f0	 mov	 ecx, DWORD PTR _this$[ebp]
  00027	81 c1 c0 09 00
	00		 add	 ecx, 2496		; 000009c0H
  0002d	e9 00 00 00 00	 jmp	 ??1?$CEncrypt@_N@@UAE@XZ ; CEncrypt<bool>::~CEncrypt<bool>
__unwindfunclet$??1ioMultiFlyJumpBuff@@UAE@XZ$4:
  00032	8b 4d f0	 mov	 ecx, DWORD PTR _this$[ebp]
  00035	81 c1 f0 09 00
	00		 add	 ecx, 2544		; 000009f0H
  0003b	e9 00 00 00 00	 jmp	 ??1?$CEncrypt@K@@UAE@XZ	; CEncrypt<unsigned long>::~CEncrypt<unsigned long>
__ehhandler$??1ioMultiFlyJumpBuff@@UAE@XZ:
  00040	8b 54 24 08	 mov	 edx, DWORD PTR [esp+8]
  00044	8d 42 0c	 lea	 eax, DWORD PTR [edx+12]
  00047	8b 4a ec	 mov	 ecx, DWORD PTR [edx-20]
  0004a	33 c8		 xor	 ecx, eax
  0004c	e8 00 00 00 00	 call	 @__security_check_cookie@4
  00051	b8 00 00 00 00	 mov	 eax, OFFSET __ehfuncinfo$??1ioMultiFlyJumpBuff@@UAE@XZ
  00056	e9 00 00 00 00	 jmp	 ___CxxFrameHandler3
text$x	ENDS
??1ioMultiFlyJumpBuff@@UAE@XZ ENDP			; ioMultiFlyJumpBuff::~ioMultiFlyJumpBuff
;	COMDAT xdata$x
xdata$x	SEGMENT
__unwindtable$?Clone@ioMultiFlyJumpBuff@@UAEPAVioBuff@@XZ DD 0ffffffffH
	DD	FLAT:__unwindfunclet$?Clone@ioMultiFlyJumpBuff@@UAEPAVioBuff@@XZ$0
__ehfuncinfo$?Clone@ioMultiFlyJumpBuff@@UAEPAVioBuff@@XZ DD 019930522H
	DD	01H
	DD	FLAT:__unwindtable$?Clone@ioMultiFlyJumpBuff@@UAEPAVioBuff@@XZ
	DD	2 DUP(00H)
	DD	2 DUP(00H)
	DD	00H
	DD	01H
; Function compile flags: /Ogsp
xdata$x	ENDS
;	COMDAT ?Clone@ioMultiFlyJumpBuff@@UAEPAVioBuff@@XZ
_TEXT	SEGMENT
$T529928 = -16						; size = 4
__$EHRec$ = -12						; size = 12
?Clone@ioMultiFlyJumpBuff@@UAEPAVioBuff@@XZ PROC	; ioMultiFlyJumpBuff::Clone, COMDAT
; _this$ = ecx

; 52   : {

  00000	6a 04		 push	 4
  00002	b8 00 00 00 00	 mov	 eax, __ehhandler$?Clone@ioMultiFlyJumpBuff@@UAEPAVioBuff@@XZ
  00007	e8 00 00 00 00	 call	 __EH_prolog3
  0000c	8b f1		 mov	 esi, ecx

; 53   : 	return new ioMultiFlyJumpBuff( *this );

  0000e	68 58 0a 00 00	 push	 2648			; 00000a58H
  00013	e8 00 00 00 00	 call	 ??2@YAPAXI@Z		; operator new
  00018	59		 pop	 ecx
  00019	8b c8		 mov	 ecx, eax
  0001b	89 4d f0	 mov	 DWORD PTR $T529928[ebp], ecx
  0001e	33 c0		 xor	 eax, eax
  00020	89 45 fc	 mov	 DWORD PTR __$EHRec$[ebp+8], eax
  00023	3b c8		 cmp	 ecx, eax
  00025	74 06		 je	 SHORT $LN3@Clone
  00027	56		 push	 esi
  00028	e8 00 00 00 00	 call	 ??0ioMultiFlyJumpBuff@@QAE@ABV0@@Z ; ioMultiFlyJumpBuff::ioMultiFlyJumpBuff
$LN3@Clone:

; 54   : }

  0002d	e8 00 00 00 00	 call	 __EH_epilog3
  00032	c3		 ret	 0
_TEXT	ENDS
;	COMDAT text$x
text$x	SEGMENT
__unwindfunclet$?Clone@ioMultiFlyJumpBuff@@UAEPAVioBuff@@XZ$0:
  00000	ff 75 f0	 push	 DWORD PTR $T529928[ebp]
  00003	e8 00 00 00 00	 call	 ??3@YAXPAX@Z		; operator delete
  00008	59		 pop	 ecx
  00009	c3		 ret	 0
__ehhandler$?Clone@ioMultiFlyJumpBuff@@UAEPAVioBuff@@XZ:
  0000a	8b 54 24 08	 mov	 edx, DWORD PTR [esp+8]
  0000e	8d 42 0c	 lea	 eax, DWORD PTR [edx+12]
  00011	8b 4a ec	 mov	 ecx, DWORD PTR [edx-20]
  00014	33 c8		 xor	 ecx, eax
  00016	e8 00 00 00 00	 call	 @__security_check_cookie@4
  0001b	b8 00 00 00 00	 mov	 eax, OFFSET __ehfuncinfo$?Clone@ioMultiFlyJumpBuff@@UAEPAVioBuff@@XZ
  00020	e9 00 00 00 00	 jmp	 ___CxxFrameHandler3
text$x	ENDS
?Clone@ioMultiFlyJumpBuff@@UAEPAVioBuff@@XZ ENDP	; ioMultiFlyJumpBuff::Clone
PUBLIC	??_C@_00CNPNBAHC@?$AA@				; `string'
PUBLIC	__real@4f800000
PUBLIC	_rkLoader$GSCopy$
PUBLIC	_this$GSCopy$
EXTRN	__imp_??0ioHashString@@QAE@PBD@Z:PROC
EXTRN	?LoadProperty@ioBuff@@UAEXAAVioINILoader@@@Z:PROC ; ioBuff::LoadProperty
EXTRN	__EH_epilog3_GS:PROC
EXTRN	__EH_prolog3_GS:PROC
EXTRN	_memset:PROC
;	COMDAT ??_C@_00CNPNBAHC@?$AA@
; File d:\lost saga for developer\youtube\tutorial\source\src\lsclient\stringprotect.h
CONST	SEGMENT
??_C@_00CNPNBAHC@?$AA@ DB 00H				; `string'
CONST	ENDS
;	COMDAT __real@4f800000
CONST	SEGMENT
__real@4f800000 DD 04f800000r			; 4.29497e+009
CONST	ENDS
;	COMDAT xdata$x
xdata$x	SEGMENT
__ehfuncinfo$?LoadProperty@ioMultiFlyJumpBuff@@UAEXAAVioINILoader@@@Z DD 019930522H
	DD	08H
	DD	FLAT:__unwindtable$?LoadProperty@ioMultiFlyJumpBuff@@UAEXAAVioINILoader@@@Z
	DD	2 DUP(00H)
	DD	2 DUP(00H)
	DD	00H
	DD	01H
__unwindtable$?LoadProperty@ioMultiFlyJumpBuff@@UAEXAAVioINILoader@@@Z DD 0ffffffffH
	DD	FLAT:__unwindfunclet$?LoadProperty@ioMultiFlyJumpBuff@@UAEXAAVioINILoader@@@Z$0
	DD	0ffffffffH
	DD	FLAT:__unwindfunclet$?LoadProperty@ioMultiFlyJumpBuff@@UAEXAAVioINILoader@@@Z$1
	DD	0ffffffffH
	DD	FLAT:__unwindfunclet$?LoadProperty@ioMultiFlyJumpBuff@@UAEXAAVioINILoader@@@Z$2
	DD	0ffffffffH
	DD	FLAT:__unwindfunclet$?LoadProperty@ioMultiFlyJumpBuff@@UAEXAAVioINILoader@@@Z$3
	DD	0ffffffffH
	DD	FLAT:__unwindfunclet$?LoadProperty@ioMultiFlyJumpBuff@@UAEXAAVioINILoader@@@Z$4
	DD	0ffffffffH
	DD	FLAT:__unwindfunclet$?LoadProperty@ioMultiFlyJumpBuff@@UAEXAAVioINILoader@@@Z$5
	DD	0ffffffffH
	DD	FLAT:__unwindfunclet$?LoadProperty@ioMultiFlyJumpBuff@@UAEXAAVioINILoader@@@Z$6
	DD	0ffffffffH
	DD	FLAT:__unwindfunclet$?LoadProperty@ioMultiFlyJumpBuff@@UAEXAAVioINILoader@@@Z$7
; Function compile flags: /Ogsp
; File d:\lost saga for developer\youtube\tutorial\source\src\lsclient\iomultiflyjumpbuff.cpp
xdata$x	ENDS
;	COMDAT ?LoadProperty@ioMultiFlyJumpBuff@@UAEXAAVioINILoader@@@Z
_TEXT	SEGMENT
$T529945 = -1032					; size = 16
$T529947 = -1016					; size = 16
$T529944 = -1000					; size = 16
$T529941 = -984						; size = 16
$T529942 = -968						; size = 16
$T529946 = -952						; size = 16
$T529943 = -936						; size = 16
$T529948 = -920						; size = 16
_this$GSCopy$ = -904					; size = 4
tv23499 = -900						; size = 4
tv23475 = -900						; size = 4
tv23467 = -900						; size = 4
tv23447 = -900						; size = 4
$T531785 = -900						; size = 4
_i$531200 = -900					; size = 4
_i$530608 = -900					; size = 4
_rkLoader$GSCopy$ = -896				; size = 4
_szBuf$ = -892						; size = 260
__k$531956 = -632					; size = 21
__k$531831 = -604					; size = 21
__k$532443 = -576					; size = 27
__k$533068 = -544					; size = 27
__k$532318 = -512					; size = 27
__k$532693 = -480					; size = 26
__k$532581 = -448					; size = 26
__k$531363 = -416					; size = 17
__k$530872 = -392					; size = 17
__k$531211 = -368					; size = 24
__k$530997 = -340					; size = 17
__k$532085 = -316					; size = 20
__k$532210 = -292					; size = 20
__k$532831 = -268					; size = 19
__k$531626 = -244					; size = 19
__k$531238 = -220					; size = 19
__k$530097 = -196					; size = 13
__k$531501 = -176					; size = 13
__k$532943 = -156					; size = 18
__k$530747 = -132					; size = 18
__k$530618 = -108					; size = 16
__k$530226 = -88					; size = 14
__k$530044 = -68					; size = 14
__k$530489 = -48					; size = 11
__k$530351 = -32					; size = 11
__$EHRec$ = -12						; size = 12
_rkLoader$ = 8						; size = 4
?LoadProperty@ioMultiFlyJumpBuff@@UAEXAAVioINILoader@@@Z PROC ; ioMultiFlyJumpBuff::LoadProperty, COMDAT
; _this$ = ecx

; 57   : {

  00000	68 fc 03 00 00	 push	 1020			; 000003fcH
  00005	b8 00 00 00 00	 mov	 eax, __ehhandler$?LoadProperty@ioMultiFlyJumpBuff@@UAEXAAVioINILoader@@@Z
  0000a	e8 00 00 00 00	 call	 __EH_prolog3_GS
  0000f	8b 45 08	 mov	 eax, DWORD PTR _rkLoader$[ebp]
  00012	8b f1		 mov	 esi, ecx

; 58   : 	ioBuff::LoadProperty( rkLoader );

  00014	50		 push	 eax

; 103  : 	rkLoader.LoadString_e( "jump_extra_animation_left", "", szBuf, MAX_PATH );

  00015	89 b5 78 fc ff
	ff		 mov	 DWORD PTR _this$GSCopy$[ebp], esi
  0001b	89 85 80 fc ff
	ff		 mov	 DWORD PTR _rkLoader$GSCopy$[ebp], eax
  00021	e8 00 00 00 00	 call	 ?LoadProperty@ioBuff@@UAEXAAVioINILoader@@@Z ; ioBuff::LoadProperty
  00026	68 03 01 00 00	 push	 259			; 00000103H
  0002b	8d 85 85 fc ff
	ff		 lea	 eax, DWORD PTR _szBuf$[ebp+1]
  00031	6a 00		 push	 0
  00033	50		 push	 eax
  00034	c6 85 84 fc ff
	ff 00		 mov	 BYTE PTR _szBuf$[ebp], 0
  0003b	e8 00 00 00 00	 call	 _memset
  00040	83 c4 0c	 add	 esp, 12			; 0000000cH
  00043	6a 03		 push	 3
  00045	c7 45 bc 88 82
	8a 88		 mov	 DWORD PTR __k$530044[ebp], -2004188536 ; 888a8288H
  0004c	c7 45 c0 81 89
	b4 98		 mov	 DWORD PTR __k$530044[ebp+4], -1732998783 ; 98b48981H
  00053	c7 45 c4 82 98
	8a 9e		 mov	 DWORD PTR __k$530044[ebp+8], -1635084158 ; 9e8a9882H
  0005a	8d 45 bc	 lea	 eax, DWORD PTR __k$530044[ebp]
  0005d	66 c7 45 c8 88
	00		 mov	 WORD PTR __k$530044[ebp+12], 136 ; 00000088H
  00063	59		 pop	 ecx
  00064	bf ed ec eb ea	 mov	 edi, -353637139		; eaebecedH
$LL114@LoadProper:

; 59   : 
; 60   : 	char szBuf[MAX_PATH] = "";
; 61   : 	
; 62   : 	m_bEnableRotate = rkLoader.LoadBool_e( "enable_rotate", false );

  00069	31 38		 xor	 DWORD PTR [eax], edi
  0006b	83 c0 04	 add	 eax, 4
  0006e	49		 dec	 ecx
  0006f	75 f8		 jne	 SHORT $LL114@LoadProper
  00071	8b 1d 00 00 00
	00		 mov	 ebx, DWORD PTR __imp_?LoadBool@ioINILoader@@QAE_NPBD_N@Z
  00077	80 75 c8 ed	 xor	 BYTE PTR __k$530044[ebp+12], -19 ; ffffffedH
  0007b	51		 push	 ecx
  0007c	8b 8d 80 fc ff
	ff		 mov	 ecx, DWORD PTR _rkLoader$GSCopy$[ebp]
  00082	8d 45 bc	 lea	 eax, DWORD PTR __k$530044[ebp]
  00085	50		 push	 eax
  00086	ff d3		 call	 ebx
  00088	88 86 90 09 00
	00		 mov	 BYTE PTR [esi+2448], al
  0008e	6a 03		 push	 3

; 63   : 	m_bContinueJump = rkLoader.LoadBool_e( "continue_fly", false );

  00090	c7 85 3c ff ff
	ff 8e 83 85 9e	 mov	 DWORD PTR __k$530097[ebp], -1635417202 ; 9e85838eH
  0009a	c7 85 40 ff ff
	ff 84 82 9e 8f	 mov	 DWORD PTR __k$530097[ebp+4], -1885437308 ; 8f9e8284H
  000a4	c7 85 44 ff ff
	ff b2 8a 87 93	 mov	 DWORD PTR __k$530097[ebp+8], -1819833678 ; 93878ab2H
  000ae	8d 85 3c ff ff
	ff		 lea	 eax, DWORD PTR __k$530097[ebp]
  000b4	c6 85 48 ff ff
	ff 00		 mov	 BYTE PTR __k$530097[ebp+12], 0
  000bb	59		 pop	 ecx
$LL220@LoadProper:
  000bc	31 38		 xor	 DWORD PTR [eax], edi
  000be	83 c0 04	 add	 eax, 4
  000c1	49		 dec	 ecx
  000c2	75 f8		 jne	 SHORT $LL220@LoadProper
  000c4	51		 push	 ecx
  000c5	8b 8d 80 fc ff
	ff		 mov	 ecx, DWORD PTR _rkLoader$GSCopy$[ebp]
  000cb	8d 85 3c ff ff
	ff		 lea	 eax, DWORD PTR __k$530097[ebp]
  000d1	50		 push	 eax
  000d2	ff d3		 call	 ebx
  000d4	88 86 91 09 00
	00		 mov	 BYTE PTR [esi+2449], al

; 64   : 
; 65   : 	m_fAniRate = rkLoader.LoadFloat_e( "jump_ani_rate", FLOAT1 );

  000da	b8 01 00 00 00	 mov	 eax, 1
  000df	6a 03		 push	 3
  000e1	5a		 pop	 edx
  000e2	6a 04		 push	 4
  000e4	c7 45 a8 87 99
	86 9a		 mov	 DWORD PTR __k$530226[ebp], -1702454905 ; 9a869987H
  000eb	c7 45 ac b2 8d
	85 83		 mov	 DWORD PTR __k$530226[ebp+4], -2088399438 ; 83858db2H
  000f2	c7 45 b0 b2 9e
	8a 9e		 mov	 DWORD PTR __k$530226[ebp+8], -1635082574 ; 9e8a9eb2H
  000f9	8d 4d a8	 lea	 ecx, DWORD PTR __k$530226[ebp]
  000fc	66 c7 45 b4 88
	00		 mov	 WORD PTR __k$530226[ebp+12], 136 ; 00000088H
  00102	5b		 pop	 ebx
$LL328@LoadProper:
  00103	31 39		 xor	 DWORD PTR [ecx], edi
  00105	03 cb		 add	 ecx, ebx
  00107	4a		 dec	 edx
  00108	75 f9		 jne	 SHORT $LL328@LoadProper
  0010a	80 75 b4 ed	 xor	 BYTE PTR __k$530226[ebp+12], -19 ; ffffffedH
  0010e	89 85 7c fc ff
	ff		 mov	 DWORD PTR tv23499[ebp], eax
  00114	db 85 7c fc ff
	ff		 fild	 DWORD PTR tv23499[ebp]
  0011a	85 c0		 test	 eax, eax
  0011c	79 06		 jns	 SHORT $LN2788@LoadProper
  0011e	d8 05 00 00 00
	00		 fadd	 DWORD PTR __real@4f800000
$LN2788@LoadProper:
  00124	51		 push	 ecx
  00125	8b 8d 80 fc ff
	ff		 mov	 ecx, DWORD PTR _rkLoader$GSCopy$[ebp]
  0012b	d9 1c 24	 fstp	 DWORD PTR [esp]
  0012e	8d 45 a8	 lea	 eax, DWORD PTR __k$530226[ebp]
  00131	50		 push	 eax
  00132	ff 15 00 00 00
	00		 call	 DWORD PTR __imp_?LoadFloat@ioINILoader@@QAEMPBDM@Z
  00138	d9 9e b4 09 00
	00		 fstp	 DWORD PTR [esi+2484]
  0013e	6a 02		 push	 2

; 66   : 	m_fJumpPower = rkLoader.LoadFloat_e( "jump_power", 0.0f );

  00140	c7 45 e0 87 99
	86 9a		 mov	 DWORD PTR __k$530351[ebp], -1702454905 ; 9a869987H
  00147	c7 45 e4 b2 9c
	84 9d		 mov	 DWORD PTR __k$530351[ebp+4], -1652253518 ; 9d849cb2H
  0014e	66 c7 45 e8 88
	9e		 mov	 WORD PTR __k$530351[ebp+8], 40584 ; 00009e88H
  00154	8d 45 e0	 lea	 eax, DWORD PTR __k$530351[ebp]
  00157	c6 45 ea 00	 mov	 BYTE PTR __k$530351[ebp+10], 0
  0015b	59		 pop	 ecx
$LL434@LoadProper:
  0015c	31 38		 xor	 DWORD PTR [eax], edi
  0015e	03 c3		 add	 eax, ebx
  00160	49		 dec	 ecx
  00161	75 f9		 jne	 SHORT $LL434@LoadProper
  00163	6a 08		 push	 8
  00165	58		 pop	 eax
$LL431@LoadProper:
  00166	8b c8		 mov	 ecx, eax
  00168	81 e1 03 00 00
	80		 and	 ecx, -2147483645	; 80000003H
  0016e	79 05		 jns	 SHORT $LN2789@LoadProper
  00170	49		 dec	 ecx
  00171	83 c9 fc	 or	 ecx, -4			; fffffffcH
  00174	41		 inc	 ecx
$LN2789@LoadProper:
  00175	b2 ed		 mov	 dl, -19			; ffffffedH
  00177	2a d1		 sub	 dl, cl
  00179	30 54 05 e0	 xor	 BYTE PTR __k$530351[ebp+eax], dl
  0017d	40		 inc	 eax
  0017e	83 f8 0a	 cmp	 eax, 10			; 0000000aH
  00181	7c e3		 jl	 SHORT $LL431@LoadProper
  00183	0f 57 c0	 xorps	 xmm0, xmm0
  00186	51		 push	 ecx
  00187	8b 8d 80 fc ff
	ff		 mov	 ecx, DWORD PTR _rkLoader$GSCopy$[ebp]
  0018d	8d 45 e0	 lea	 eax, DWORD PTR __k$530351[ebp]
  00190	f3 0f 11 04 24	 movss	 DWORD PTR [esp], xmm0
  00195	50		 push	 eax
  00196	ff 15 00 00 00
	00		 call	 DWORD PTR __imp_?LoadFloat@ioINILoader@@QAEMPBDM@Z
  0019c	d9 9e 94 09 00
	00		 fstp	 DWORD PTR [esi+2452]
  001a2	6a 02		 push	 2

; 67   : 	m_fJumpForce = rkLoader.LoadFloat_e( "jump_force", 0.0f );

  001a4	c7 45 d0 87 99
	86 9a		 mov	 DWORD PTR __k$530489[ebp], -1702454905 ; 9a869987H
  001ab	c7 45 d4 b2 8a
	84 98		 mov	 DWORD PTR __k$530489[ebp+4], -1736144206 ; 98848ab2H
  001b2	66 c7 45 d8 8e
	89		 mov	 WORD PTR __k$530489[ebp+8], 35214 ; 0000898eH
  001b8	8d 45 d0	 lea	 eax, DWORD PTR __k$530489[ebp]
  001bb	c6 45 da 00	 mov	 BYTE PTR __k$530489[ebp+10], 0
  001bf	59		 pop	 ecx
$LL540@LoadProper:
  001c0	31 38		 xor	 DWORD PTR [eax], edi
  001c2	03 c3		 add	 eax, ebx
  001c4	49		 dec	 ecx
  001c5	75 f9		 jne	 SHORT $LL540@LoadProper
  001c7	6a 08		 push	 8
  001c9	58		 pop	 eax
$LL537@LoadProper:
  001ca	8b c8		 mov	 ecx, eax
  001cc	81 e1 03 00 00
	80		 and	 ecx, -2147483645	; 80000003H
  001d2	79 05		 jns	 SHORT $LN2790@LoadProper
  001d4	49		 dec	 ecx
  001d5	83 c9 fc	 or	 ecx, -4			; fffffffcH
  001d8	41		 inc	 ecx
$LN2790@LoadProper:
  001d9	b2 ed		 mov	 dl, -19			; ffffffedH
  001db	2a d1		 sub	 dl, cl
  001dd	30 54 05 d0	 xor	 BYTE PTR __k$530489[ebp+eax], dl
  001e1	40		 inc	 eax
  001e2	83 f8 0a	 cmp	 eax, 10			; 0000000aH
  001e5	7c e3		 jl	 SHORT $LL537@LoadProper
  001e7	0f 57 c0	 xorps	 xmm0, xmm0
  001ea	51		 push	 ecx
  001eb	8b 8d 80 fc ff
	ff		 mov	 ecx, DWORD PTR _rkLoader$GSCopy$[ebp]
  001f1	8d 45 d0	 lea	 eax, DWORD PTR __k$530489[ebp]
  001f4	f3 0f 11 04 24	 movss	 DWORD PTR [esp], xmm0
  001f9	50		 push	 eax
  001fa	ff 15 00 00 00
	00		 call	 DWORD PTR __imp_?LoadFloat@ioINILoader@@QAEMPBDM@Z
  00200	d9 9e 98 09 00
	00		 fstp	 DWORD PTR [esi+2456]

; 68   : 	m_fJumpSpeedRate = rkLoader.LoadFloat_e( "jump_speed_rate", FLOAT1 );

  00206	b8 01 00 00 00	 mov	 eax, 1
  0020b	6a 03		 push	 3
  0020d	c7 45 94 87 99
	86 9a		 mov	 DWORD PTR __k$530618[ebp], -1702454905 ; 9a869987H
  00214	c7 45 98 b2 9f
	9b 8f		 mov	 DWORD PTR __k$530618[ebp+4], -1885626446 ; 8f9b9fb2H
  0021b	c7 45 9c 88 88
	b4 98		 mov	 DWORD PTR __k$530618[ebp+8], -1732999032 ; 98b48888H
  00222	8d 4d 94	 lea	 ecx, DWORD PTR __k$530618[ebp]
  00225	c7 45 a0 8c 98
	8e 00		 mov	 DWORD PTR __k$530618[ebp+12], 9345164 ; 008e988cH
  0022c	5a		 pop	 edx
$LL648@LoadProper:
  0022d	31 39		 xor	 DWORD PTR [ecx], edi
  0022f	03 cb		 add	 ecx, ebx
  00231	4a		 dec	 edx
  00232	75 f9		 jne	 SHORT $LL648@LoadProper
  00234	c7 85 7c fc ff
	ff 0c 00 00 00	 mov	 DWORD PTR _i$530608[ebp], 12 ; 0000000cH
$LL645@LoadProper:
  0023e	8b 8d 7c fc ff
	ff		 mov	 ecx, DWORD PTR _i$530608[ebp]
  00244	81 e1 03 00 00
	80		 and	 ecx, -2147483645	; 80000003H
  0024a	79 05		 jns	 SHORT $LN2791@LoadProper
  0024c	49		 dec	 ecx
  0024d	83 c9 fc	 or	 ecx, -4			; fffffffcH
  00250	41		 inc	 ecx
$LN2791@LoadProper:
  00251	b2 ed		 mov	 dl, -19			; ffffffedH
  00253	2a d1		 sub	 dl, cl
  00255	8b 8d 7c fc ff
	ff		 mov	 ecx, DWORD PTR _i$530608[ebp]
  0025b	30 54 0d 94	 xor	 BYTE PTR __k$530618[ebp+ecx], dl
  0025f	ff 85 7c fc ff
	ff		 inc	 DWORD PTR _i$530608[ebp]
  00265	83 bd 7c fc ff
	ff 0f		 cmp	 DWORD PTR _i$530608[ebp], 15 ; 0000000fH
  0026c	7c d0		 jl	 SHORT $LL645@LoadProper
  0026e	89 85 7c fc ff
	ff		 mov	 DWORD PTR tv23475[ebp], eax
  00274	db 85 7c fc ff
	ff		 fild	 DWORD PTR tv23475[ebp]
  0027a	85 c0		 test	 eax, eax
  0027c	79 06		 jns	 SHORT $LN2792@LoadProper
  0027e	d8 05 00 00 00
	00		 fadd	 DWORD PTR __real@4f800000
$LN2792@LoadProper:
  00284	51		 push	 ecx
  00285	8b 8d 80 fc ff
	ff		 mov	 ecx, DWORD PTR _rkLoader$GSCopy$[ebp]
  0028b	d9 1c 24	 fstp	 DWORD PTR [esp]
  0028e	8d 45 94	 lea	 eax, DWORD PTR __k$530618[ebp]
  00291	50		 push	 eax
  00292	ff 15 00 00 00
	00		 call	 DWORD PTR __imp_?LoadFloat@ioINILoader@@QAEMPBDM@Z
  00298	d9 9e 9c 09 00
	00		 fstp	 DWORD PTR [esi+2460]

; 69   : 	m_fGravityRate = rkLoader.LoadFloat_e( "jump_gravity_rate", FLOAT1 );

  0029e	b8 01 00 00 00	 mov	 eax, 1
  002a3	c7 85 7c ff ff
	ff 87 99 86 9a	 mov	 DWORD PTR __k$530747[ebp], -1702454905 ; 9a869987H
  002ad	c7 45 80 b2 8b
	99 8b		 mov	 DWORD PTR __k$530747[ebp+4], -1952871502 ; 8b998bb2H
  002b4	c7 45 84 9b 85
	9f 93		 mov	 DWORD PTR __k$530747[ebp+8], -1818262117 ; 939f859bH
  002bb	c7 45 88 b2 9e
	8a 9e		 mov	 DWORD PTR __k$530747[ebp+12], -1635082574 ; 9e8a9eb2H
  002c2	8d 8d 7c ff ff
	ff		 lea	 ecx, DWORD PTR __k$530747[ebp]
  002c8	66 c7 45 8c 88
	00		 mov	 WORD PTR __k$530747[ebp+16], 136 ; 00000088H
  002ce	8b d3		 mov	 edx, ebx
$LL756@LoadProper:
  002d0	31 39		 xor	 DWORD PTR [ecx], edi
  002d2	03 cb		 add	 ecx, ebx
  002d4	4a		 dec	 edx
  002d5	75 f9		 jne	 SHORT $LL756@LoadProper
  002d7	80 75 8c ed	 xor	 BYTE PTR __k$530747[ebp+16], -19 ; ffffffedH
  002db	89 85 7c fc ff
	ff		 mov	 DWORD PTR tv23467[ebp], eax
  002e1	db 85 7c fc ff
	ff		 fild	 DWORD PTR tv23467[ebp]
  002e7	85 c0		 test	 eax, eax
  002e9	79 06		 jns	 SHORT $LN2793@LoadProper
  002eb	d8 05 00 00 00
	00		 fadd	 DWORD PTR __real@4f800000
$LN2793@LoadProper:
  002f1	51		 push	 ecx
  002f2	8b 8d 80 fc ff
	ff		 mov	 ecx, DWORD PTR _rkLoader$GSCopy$[ebp]
  002f8	d9 1c 24	 fstp	 DWORD PTR [esp]
  002fb	8d 85 7c ff ff
	ff		 lea	 eax, DWORD PTR __k$530747[ebp]
  00301	50		 push	 eax
  00302	ff 15 00 00 00
	00		 call	 DWORD PTR __imp_?LoadFloat@ioINILoader@@QAEMPBDM@Z
  00308	d9 9e a0 09 00
	00		 fstp	 DWORD PTR [esi+2464]

; 70   : 
; 71   : 	m_fJumpExtraPower = rkLoader.LoadFloat_e( "jump_extra_power", 0.0f );

  0030e	c7 85 78 fe ff
	ff 87 99 86 9a	 mov	 DWORD PTR __k$530872[ebp], -1702454905 ; 9a869987H
  00318	c7 85 7c fe ff
	ff b2 89 93 9e	 mov	 DWORD PTR __k$530872[ebp+4], -1634498126 ; 9e9389b2H
  00322	c7 85 80 fe ff
	ff 9f 8d b4 9a	 mov	 DWORD PTR __k$530872[ebp+8], -1699443297 ; 9ab48d9fH
  0032c	c7 85 84 fe ff
	ff 82 9b 8e 98	 mov	 DWORD PTR __k$530872[ebp+12], -1735484542 ; 988e9b82H
  00336	8d 85 78 fe ff
	ff		 lea	 eax, DWORD PTR __k$530872[ebp]
  0033c	c6 85 88 fe ff
	ff 00		 mov	 BYTE PTR __k$530872[ebp+16], 0
  00343	8b cb		 mov	 ecx, ebx
$LL862@LoadProper:
  00345	31 38		 xor	 DWORD PTR [eax], edi
  00347	03 c3		 add	 eax, ebx
  00349	49		 dec	 ecx
  0034a	75 f9		 jne	 SHORT $LL862@LoadProper
  0034c	0f 57 c0	 xorps	 xmm0, xmm0
  0034f	51		 push	 ecx
  00350	8b 8d 80 fc ff
	ff		 mov	 ecx, DWORD PTR _rkLoader$GSCopy$[ebp]
  00356	8d 85 78 fe ff
	ff		 lea	 eax, DWORD PTR __k$530872[ebp]
  0035c	f3 0f 11 04 24	 movss	 DWORD PTR [esp], xmm0
  00361	50		 push	 eax
  00362	ff 15 00 00 00
	00		 call	 DWORD PTR __imp_?LoadFloat@ioINILoader@@QAEMPBDM@Z
  00368	d9 9e a4 09 00
	00		 fstp	 DWORD PTR [esi+2468]

; 72   : 	m_fJumpExtraForce = rkLoader.LoadFloat_e( "jump_extra_force", 0.0f );

  0036e	c7 85 ac fe ff
	ff 87 99 86 9a	 mov	 DWORD PTR __k$530997[ebp], -1702454905 ; 9a869987H
  00378	c7 85 b0 fe ff
	ff b2 89 93 9e	 mov	 DWORD PTR __k$530997[ebp+4], -1634498126 ; 9e9389b2H
  00382	c7 85 b4 fe ff
	ff 9f 8d b4 8c	 mov	 DWORD PTR __k$530997[ebp+8], -1934324321 ; 8cb48d9fH
  0038c	c7 85 b8 fe ff
	ff 82 9e 88 8f	 mov	 DWORD PTR __k$530997[ebp+12], -1886871934 ; 8f889e82H
  00396	8d 85 ac fe ff
	ff		 lea	 eax, DWORD PTR __k$530997[ebp]
  0039c	c6 85 bc fe ff
	ff 00		 mov	 BYTE PTR __k$530997[ebp+16], 0
  003a3	8b cb		 mov	 ecx, ebx
$LL968@LoadProper:
  003a5	31 38		 xor	 DWORD PTR [eax], edi
  003a7	03 c3		 add	 eax, ebx
  003a9	49		 dec	 ecx
  003aa	75 f9		 jne	 SHORT $LL968@LoadProper
  003ac	0f 57 c0	 xorps	 xmm0, xmm0
  003af	51		 push	 ecx
  003b0	8b 8d 80 fc ff
	ff		 mov	 ecx, DWORD PTR _rkLoader$GSCopy$[ebp]
  003b6	8d 85 ac fe ff
	ff		 lea	 eax, DWORD PTR __k$530997[ebp]
  003bc	f3 0f 11 04 24	 movss	 DWORD PTR [esp], xmm0
  003c1	50		 push	 eax
  003c2	ff 15 00 00 00
	00		 call	 DWORD PTR __imp_?LoadFloat@ioINILoader@@QAEMPBDM@Z
  003c8	d9 9e a8 09 00
	00		 fstp	 DWORD PTR [esi+2472]

; 73   : 	m_fExtraGravityRate = rkLoader.LoadFloat_e( "jump_extra_gravity_rate", FLOAT1 );

  003ce	b8 01 00 00 00	 mov	 eax, 1
  003d3	6a 05		 push	 5
  003d5	c7 85 90 fe ff
	ff 87 99 86 9a	 mov	 DWORD PTR __k$531211[ebp], -1702454905 ; 9a869987H
  003df	c7 85 94 fe ff
	ff b2 89 93 9e	 mov	 DWORD PTR __k$531211[ebp+4], -1634498126 ; 9e9389b2H
  003e9	c7 85 98 fe ff
	ff 9f 8d b4 8d	 mov	 DWORD PTR __k$531211[ebp+8], -1917547105 ; 8db48d9fH
  003f3	c7 85 9c fe ff
	ff 9f 8d 9d 83	 mov	 DWORD PTR __k$531211[ebp+12], -2086826593 ; 839d8d9fH
  003fd	c7 85 a0 fe ff
	ff 99 95 b4 98	 mov	 DWORD PTR __k$531211[ebp+16], -1732995687 ; 98b49599H
  00407	8d 8d 90 fe ff
	ff		 lea	 ecx, DWORD PTR __k$531211[ebp]
  0040d	c7 85 a4 fe ff
	ff 8c 98 8e 00	 mov	 DWORD PTR __k$531211[ebp+20], 9345164 ; 008e988cH
  00417	5a		 pop	 edx
$LL1076@LoadProper:
  00418	31 39		 xor	 DWORD PTR [ecx], edi
  0041a	03 cb		 add	 ecx, ebx
  0041c	4a		 dec	 edx
  0041d	75 f9		 jne	 SHORT $LL1076@LoadProper
  0041f	c7 85 7c fc ff
	ff 14 00 00 00	 mov	 DWORD PTR _i$531200[ebp], 20 ; 00000014H
$LL1073@LoadProper:
  00429	8b 8d 7c fc ff
	ff		 mov	 ecx, DWORD PTR _i$531200[ebp]
  0042f	81 e1 03 00 00
	80		 and	 ecx, -2147483645	; 80000003H
  00435	79 05		 jns	 SHORT $LN2794@LoadProper
  00437	49		 dec	 ecx
  00438	83 c9 fc	 or	 ecx, -4			; fffffffcH
  0043b	41		 inc	 ecx
$LN2794@LoadProper:
  0043c	b2 ed		 mov	 dl, -19			; ffffffedH
  0043e	2a d1		 sub	 dl, cl
  00440	8b 8d 7c fc ff
	ff		 mov	 ecx, DWORD PTR _i$531200[ebp]
  00446	30 94 0d 90 fe
	ff ff		 xor	 BYTE PTR __k$531211[ebp+ecx], dl
  0044d	ff 85 7c fc ff
	ff		 inc	 DWORD PTR _i$531200[ebp]
  00453	83 bd 7c fc ff
	ff 17		 cmp	 DWORD PTR _i$531200[ebp], 23 ; 00000017H
  0045a	7c cd		 jl	 SHORT $LL1073@LoadProper
  0045c	89 85 7c fc ff
	ff		 mov	 DWORD PTR tv23447[ebp], eax
  00462	db 85 7c fc ff
	ff		 fild	 DWORD PTR tv23447[ebp]
  00468	85 c0		 test	 eax, eax
  0046a	79 06		 jns	 SHORT $LN2795@LoadProper
  0046c	d8 05 00 00 00
	00		 fadd	 DWORD PTR __real@4f800000
$LN2795@LoadProper:
  00472	51		 push	 ecx
  00473	8b 8d 80 fc ff
	ff		 mov	 ecx, DWORD PTR _rkLoader$GSCopy$[ebp]
  00479	d9 1c 24	 fstp	 DWORD PTR [esp]
  0047c	8d 85 90 fe ff
	ff		 lea	 eax, DWORD PTR __k$531211[ebp]
  00482	50		 push	 eax
  00483	ff 15 00 00 00
	00		 call	 DWORD PTR __imp_?LoadFloat@ioINILoader@@QAEMPBDM@Z
  00489	d9 9e ac 09 00
	00		 fstp	 DWORD PTR [esi+2476]

; 74   : 
; 75   : 	m_fEnableHeight = rkLoader.LoadFloat_e( "jump_enable_height", 0.0f );

  0048f	c7 85 24 ff ff
	ff 87 99 86 9a	 mov	 DWORD PTR __k$531238[ebp], -1702454905 ; 9a869987H
  00499	c7 85 28 ff ff
	ff b2 89 85 8b	 mov	 DWORD PTR __k$531238[ebp+4], -1954182734 ; 8b8589b2H
  004a3	c7 85 2c ff ff
	ff 8f 80 8e b5	 mov	 DWORD PTR __k$531238[ebp+8], -1248952177 ; b58e808fH
  004ad	c7 85 30 ff ff
	ff 85 89 82 8d	 mov	 DWORD PTR __k$531238[ebp+12], -1920824955 ; 8d828985H
  004b7	66 c7 85 34 ff
	ff ff 85 98	 mov	 WORD PTR __k$531238[ebp+16], 39045 ; 00009885H
  004c0	8d 85 24 ff ff
	ff		 lea	 eax, DWORD PTR __k$531238[ebp]
  004c6	c6 85 36 ff ff
	ff 00		 mov	 BYTE PTR __k$531238[ebp+18], 0
  004cd	8b cb		 mov	 ecx, ebx
$LL1182@LoadProper:
  004cf	31 38		 xor	 DWORD PTR [eax], edi
  004d1	03 c3		 add	 eax, ebx
  004d3	49		 dec	 ecx
  004d4	75 f9		 jne	 SHORT $LL1182@LoadProper
  004d6	6a 10		 push	 16			; 00000010H
  004d8	58		 pop	 eax
$LL1179@LoadProper:
  004d9	8b c8		 mov	 ecx, eax
  004db	81 e1 03 00 00
	80		 and	 ecx, -2147483645	; 80000003H
  004e1	79 05		 jns	 SHORT $LN2796@LoadProper
  004e3	49		 dec	 ecx
  004e4	83 c9 fc	 or	 ecx, -4			; fffffffcH
  004e7	41		 inc	 ecx
$LN2796@LoadProper:
  004e8	b2 ed		 mov	 dl, -19			; ffffffedH
  004ea	2a d1		 sub	 dl, cl
  004ec	30 94 05 24 ff
	ff ff		 xor	 BYTE PTR __k$531238[ebp+eax], dl
  004f3	40		 inc	 eax
  004f4	83 f8 12	 cmp	 eax, 18			; 00000012H
  004f7	7c e0		 jl	 SHORT $LL1179@LoadProper
  004f9	0f 57 c0	 xorps	 xmm0, xmm0
  004fc	51		 push	 ecx
  004fd	8b 8d 80 fc ff
	ff		 mov	 ecx, DWORD PTR _rkLoader$GSCopy$[ebp]
  00503	8d 85 24 ff ff
	ff		 lea	 eax, DWORD PTR __k$531238[ebp]
  00509	f3 0f 11 04 24	 movss	 DWORD PTR [esp], xmm0
  0050e	50		 push	 eax
  0050f	ff 15 00 00 00
	00		 call	 DWORD PTR __imp_?LoadFloat@ioINILoader@@QAEMPBDM@Z
  00515	d9 9e b0 09 00
	00		 fstp	 DWORD PTR [esi+2480]

; 76   : 	m_dwJumpEnableTime = rkLoader.LoadInt_e( "jump_enable_time", 0 );

  0051b	c7 85 60 fe ff
	ff 87 99 86 9a	 mov	 DWORD PTR __k$531363[ebp], -1702454905 ; 9a869987H
  00525	c7 85 64 fe ff
	ff b2 89 85 8b	 mov	 DWORD PTR __k$531363[ebp+4], -1954182734 ; 8b8589b2H
  0052f	c7 85 68 fe ff
	ff 8f 80 8e b5	 mov	 DWORD PTR __k$531363[ebp+8], -1248952177 ; b58e808fH
  00539	c7 85 6c fe ff
	ff 99 85 86 8f	 mov	 DWORD PTR __k$531363[ebp+12], -1887009383 ; 8f868599H
  00543	8d 85 60 fe ff
	ff		 lea	 eax, DWORD PTR __k$531363[ebp]
  00549	c6 85 70 fe ff
	ff 00		 mov	 BYTE PTR __k$531363[ebp+16], 0
  00550	8b cb		 mov	 ecx, ebx
$LL1288@LoadProper:
  00552	31 38		 xor	 DWORD PTR [eax], edi
  00554	03 c3		 add	 eax, ebx
  00556	49		 dec	 ecx
  00557	75 f9		 jne	 SHORT $LL1288@LoadProper
  00559	8b 1d 00 00 00
	00		 mov	 ebx, DWORD PTR __imp_?LoadInt@ioINILoader@@QAEHPBDH@Z
  0055f	51		 push	 ecx
  00560	8b 8d 80 fc ff
	ff		 mov	 ecx, DWORD PTR _rkLoader$GSCopy$[ebp]
  00566	8d 85 60 fe ff
	ff		 lea	 eax, DWORD PTR __k$531363[ebp]
  0056c	50		 push	 eax
  0056d	ff d3		 call	 ebx
  0056f	89 86 8c 09 00
	00		 mov	 DWORD PTR [esi+2444], eax
  00575	6a 03		 push	 3

; 77   : 
; 78   : 	m_iMaxJumpCnt = rkLoader.LoadInt_e( "jump_max_cnt", 2 );

  00577	c7 85 50 ff ff
	ff 87 99 86 9a	 mov	 DWORD PTR __k$531501[ebp], -1702454905 ; 9a869987H
  00581	c7 85 54 ff ff
	ff b2 81 8a 92	 mov	 DWORD PTR __k$531501[ebp+4], -1836416590 ; 928a81b2H
  0058b	c7 85 58 ff ff
	ff b2 8f 85 9e	 mov	 DWORD PTR __k$531501[ebp+8], -1635414094 ; 9e858fb2H
  00595	8d 85 50 ff ff
	ff		 lea	 eax, DWORD PTR __k$531501[ebp]
  0059b	c6 85 5c ff ff
	ff 00		 mov	 BYTE PTR __k$531501[ebp+12], 0
  005a2	59		 pop	 ecx
$LL1394@LoadProper:
  005a3	31 38		 xor	 DWORD PTR [eax], edi
  005a5	83 c0 04	 add	 eax, 4
  005a8	49		 dec	 ecx
  005a9	75 f8		 jne	 SHORT $LL1394@LoadProper
  005ab	8b 8d 80 fc ff
	ff		 mov	 ecx, DWORD PTR _rkLoader$GSCopy$[ebp]
  005b1	6a 02		 push	 2
  005b3	8d 85 50 ff ff
	ff		 lea	 eax, DWORD PTR __k$531501[ebp]
  005b9	50		 push	 eax
  005ba	ff d3		 call	 ebx
  005bc	89 86 b8 09 00
	00		 mov	 DWORD PTR [esi+2488], eax
  005c2	6a 04		 push	 4

; 79   : 
; 80   : 	m_bJumpAttack = rkLoader.LoadBool_e( "jump_attack_enable", false );

  005c4	c7 85 0c ff ff
	ff 87 99 86 9a	 mov	 DWORD PTR __k$531626[ebp], -1702454905 ; 9a869987H
  005ce	c7 85 10 ff ff
	ff b2 8d 9f 9e	 mov	 DWORD PTR __k$531626[ebp+4], -1633710670 ; 9e9f8db2H
  005d8	c7 85 14 ff ff
	ff 8c 8f 80 b5	 mov	 DWORD PTR __k$531626[ebp+8], -1249865844 ; b5808f8cH
  005e2	c7 85 18 ff ff
	ff 88 82 8a 88	 mov	 DWORD PTR __k$531626[ebp+12], -2004188536 ; 888a8288H
  005ec	66 c7 85 1c ff
	ff ff 81 89	 mov	 WORD PTR __k$531626[ebp+16], 35201 ; 00008981H
  005f5	8d 85 0c ff ff
	ff		 lea	 eax, DWORD PTR __k$531626[ebp]
  005fb	c6 85 1e ff ff
	ff 00		 mov	 BYTE PTR __k$531626[ebp+18], 0
  00602	59		 pop	 ecx
$LL1500@LoadProper:
  00603	31 38		 xor	 DWORD PTR [eax], edi
  00605	83 c0 04	 add	 eax, 4
  00608	49		 dec	 ecx
  00609	75 f8		 jne	 SHORT $LL1500@LoadProper
  0060b	6a 10		 push	 16			; 00000010H
  0060d	58		 pop	 eax
$LL1497@LoadProper:
  0060e	8b c8		 mov	 ecx, eax
  00610	81 e1 03 00 00
	80		 and	 ecx, -2147483645	; 80000003H
  00616	79 05		 jns	 SHORT $LN2797@LoadProper
  00618	49		 dec	 ecx
  00619	83 c9 fc	 or	 ecx, -4			; fffffffcH
  0061c	41		 inc	 ecx
$LN2797@LoadProper:
  0061d	b2 ed		 mov	 dl, -19			; ffffffedH
  0061f	2a d1		 sub	 dl, cl
  00621	30 94 05 0c ff
	ff ff		 xor	 BYTE PTR __k$531626[ebp+eax], dl
  00628	40		 inc	 eax
  00629	83 f8 12	 cmp	 eax, 18			; 00000012H
  0062c	7c e0		 jl	 SHORT $LL1497@LoadProper
  0062e	8b 8d 80 fc ff
	ff		 mov	 ecx, DWORD PTR _rkLoader$GSCopy$[ebp]
  00634	6a 00		 push	 0
  00636	8d 85 0c ff ff
	ff		 lea	 eax, DWORD PTR __k$531626[ebp]
  0063c	50		 push	 eax
  0063d	ff 15 00 00 00
	00		 call	 DWORD PTR __imp_?LoadBool@ioINILoader@@QAE_NPBD_N@Z
  00643	88 86 bc 09 00
	00		 mov	 BYTE PTR [esi+2492], al

; 81   : 
; 82   : 	m_vJumpAnimationList.clear();

  00649	8b 86 70 09 00
	00		 mov	 eax, DWORD PTR [esi+2416]
  0064f	8b 8e 6c 09 00
	00		 mov	 ecx, DWORD PTR [esi+2412]
  00655	50		 push	 eax
  00656	51		 push	 ecx
  00657	8d 85 7c fc ff
	ff		 lea	 eax, DWORD PTR $T531785[ebp]
  0065d	50		 push	 eax
  0065e	8d 8e 6c 09 00
	00		 lea	 ecx, DWORD PTR [esi+2412]
  00664	e8 00 00 00 00	 call	 ?erase@?$vector@VioHashString@@V?$allocator@VioHashString@@@std@@@std@@QAE?AV?$_Vector_iterator@V?$_Vector_val@VioHashString@@V?$allocator@VioHashString@@@std@@@std@@@2@V?$_Vector_const_iterator@V?$_Vector_val@VioHashString@@V?$allocator@VioHashString@@@std@@@std@@@2@0@Z ; std::vector<ioHashString,std::allocator<ioHashString> >::erase

; 83   : 	m_vJumpAnimationList.reserve( 4 );

  00669	6a 04		 push	 4
  0066b	8d 8e 6c 09 00
	00		 lea	 ecx, DWORD PTR [esi+2412]
  00671	e8 00 00 00 00	 call	 ?reserve@?$vector@VioHashString@@V?$allocator@VioHashString@@@std@@@std@@QAEXI@Z ; std::vector<ioHashString,std::allocator<ioHashString> >::reserve
  00676	6a 05		 push	 5

; 84   : 
; 85   : 	rkLoader.LoadString_e( "jump_animation_front", "", szBuf, MAX_PATH );

  00678	c7 85 a4 fd ff
	ff 87 99 86 9a	 mov	 DWORD PTR __k$531831[ebp], -1702454905 ; 9a869987H
  00682	c7 85 a8 fd ff
	ff b2 8d 85 83	 mov	 DWORD PTR __k$531831[ebp+4], -2088399438 ; 83858db2H
  0068c	c7 85 ac fd ff
	ff 80 8d 9f 83	 mov	 DWORD PTR __k$531831[ebp+8], -2086695552 ; 839f8d80H
  00696	c7 85 b0 fd ff
	ff 82 82 b4 8c	 mov	 DWORD PTR __k$531831[ebp+12], -1934327166 ; 8cb48282H
  006a0	c7 85 b4 fd ff
	ff 9f 83 85 9e	 mov	 DWORD PTR __k$531831[ebp+16], -1635417185 ; 9e85839fH
  006aa	8d 85 a4 fd ff
	ff		 lea	 eax, DWORD PTR __k$531831[ebp]
  006b0	c6 85 b8 fd ff
	ff 00		 mov	 BYTE PTR __k$531831[ebp+20], 0
  006b7	59		 pop	 ecx
$LL1624@LoadProper:
  006b8	31 38		 xor	 DWORD PTR [eax], edi
  006ba	83 c0 04	 add	 eax, 4
  006bd	49		 dec	 ecx
  006be	75 f8		 jne	 SHORT $LL1624@LoadProper
  006c0	8b 8d 80 fc ff
	ff		 mov	 ecx, DWORD PTR _rkLoader$GSCopy$[ebp]
  006c6	8b 35 00 00 00
	00		 mov	 esi, DWORD PTR __imp_?LoadStringA@ioINILoader@@QAEXPBD0PADH@Z
  006cc	68 04 01 00 00	 push	 260			; 00000104H
  006d1	8d 85 84 fc ff
	ff		 lea	 eax, DWORD PTR _szBuf$[ebp]
  006d7	50		 push	 eax
  006d8	68 00 00 00 00	 push	 OFFSET ??_C@_00CNPNBAHC@?$AA@
  006dd	8d 85 a4 fd ff
	ff		 lea	 eax, DWORD PTR __k$531831[ebp]
  006e3	50		 push	 eax
  006e4	ff d6		 call	 esi

; 86   : 	m_vJumpAnimationList.push_back( ioHashString(szBuf) );

  006e6	8b 3d 00 00 00
	00		 mov	 edi, DWORD PTR __imp_??0ioHashString@@QAE@PBD@Z
  006ec	8d 85 84 fc ff
	ff		 lea	 eax, DWORD PTR _szBuf$[ebp]
  006f2	50		 push	 eax
  006f3	8d 8d 28 fc ff
	ff		 lea	 ecx, DWORD PTR $T529941[ebp]
  006f9	ff d7		 call	 edi
  006fb	8b 8d 78 fc ff
	ff		 mov	 ecx, DWORD PTR _this$GSCopy$[ebp]
  00701	83 65 fc 00	 and	 DWORD PTR __$EHRec$[ebp+8], 0
  00705	50		 push	 eax
  00706	81 c1 6c 09 00
	00		 add	 ecx, 2412		; 0000096cH
  0070c	e8 00 00 00 00	 call	 ?push_back@?$vector@VioHashString@@V?$allocator@VioHashString@@@std@@@std@@QAEX$$QAVioHashString@@@Z ; std::vector<ioHashString,std::allocator<ioHashString> >::push_back
  00711	8b 1d 00 00 00
	00		 mov	 ebx, DWORD PTR __imp_??1ioHashString@@QAE@XZ
  00717	83 4d fc ff	 or	 DWORD PTR __$EHRec$[ebp+8], -1
  0071b	8d 8d 28 fc ff
	ff		 lea	 ecx, DWORD PTR $T529941[ebp]
  00721	ff d3		 call	 ebx
  00723	6a 05		 push	 5

; 87   : 	rkLoader.LoadString_e( "jump_animation_right", "", szBuf, MAX_PATH );

  00725	c7 85 88 fd ff
	ff 87 99 86 9a	 mov	 DWORD PTR __k$531956[ebp], -1702454905 ; 9a869987H
  0072f	c7 85 8c fd ff
	ff b2 8d 85 83	 mov	 DWORD PTR __k$531956[ebp+4], -2088399438 ; 83858db2H
  00739	c7 85 90 fd ff
	ff 80 8d 9f 83	 mov	 DWORD PTR __k$531956[ebp+8], -2086695552 ; 839f8d80H
  00743	c7 85 94 fd ff
	ff 82 82 b4 98	 mov	 DWORD PTR __k$531956[ebp+12], -1733000574 ; 98b48282H
  0074d	c7 85 98 fd ff
	ff 84 8b 83 9e	 mov	 DWORD PTR __k$531956[ebp+16], -1635546236 ; 9e838b84H
  00757	8d 85 88 fd ff
	ff		 lea	 eax, DWORD PTR __k$531956[ebp]
  0075d	c6 85 9c fd ff
	ff 00		 mov	 BYTE PTR __k$531956[ebp+20], 0
  00764	59		 pop	 ecx
$LL1730@LoadProper:
  00765	81 30 ed ec eb
	ea		 xor	 DWORD PTR [eax], -353637139 ; eaebecedH
  0076b	83 c0 04	 add	 eax, 4
  0076e	49		 dec	 ecx
  0076f	75 f4		 jne	 SHORT $LL1730@LoadProper
  00771	8b 8d 80 fc ff
	ff		 mov	 ecx, DWORD PTR _rkLoader$GSCopy$[ebp]
  00777	68 04 01 00 00	 push	 260			; 00000104H
  0077c	8d 85 84 fc ff
	ff		 lea	 eax, DWORD PTR _szBuf$[ebp]
  00782	50		 push	 eax
  00783	68 00 00 00 00	 push	 OFFSET ??_C@_00CNPNBAHC@?$AA@
  00788	8d 85 88 fd ff
	ff		 lea	 eax, DWORD PTR __k$531956[ebp]
  0078e	50		 push	 eax
  0078f	ff d6		 call	 esi

; 88   : 	m_vJumpAnimationList.push_back( ioHashString(szBuf) );

  00791	8d 85 84 fc ff
	ff		 lea	 eax, DWORD PTR _szBuf$[ebp]
  00797	50		 push	 eax
  00798	8d 8d 38 fc ff
	ff		 lea	 ecx, DWORD PTR $T529942[ebp]
  0079e	ff d7		 call	 edi
  007a0	8b 8d 78 fc ff
	ff		 mov	 ecx, DWORD PTR _this$GSCopy$[ebp]
  007a6	50		 push	 eax
  007a7	81 c1 6c 09 00
	00		 add	 ecx, 2412		; 0000096cH
  007ad	c7 45 fc 01 00
	00 00		 mov	 DWORD PTR __$EHRec$[ebp+8], 1
  007b4	e8 00 00 00 00	 call	 ?push_back@?$vector@VioHashString@@V?$allocator@VioHashString@@@std@@@std@@QAEX$$QAVioHashString@@@Z ; std::vector<ioHashString,std::allocator<ioHashString> >::push_back
  007b9	83 4d fc ff	 or	 DWORD PTR __$EHRec$[ebp+8], -1
  007bd	8d 8d 38 fc ff
	ff		 lea	 ecx, DWORD PTR $T529942[ebp]
  007c3	ff d3		 call	 ebx
  007c5	6a 04		 push	 4

; 89   : 	rkLoader.LoadString_e( "jump_animation_back", "", szBuf, MAX_PATH );

  007c7	c7 85 c4 fe ff
	ff 87 99 86 9a	 mov	 DWORD PTR __k$532085[ebp], -1702454905 ; 9a869987H
  007d1	c7 85 c8 fe ff
	ff b2 8d 85 83	 mov	 DWORD PTR __k$532085[ebp+4], -2088399438 ; 83858db2H
  007db	c7 85 cc fe ff
	ff 80 8d 9f 83	 mov	 DWORD PTR __k$532085[ebp+8], -2086695552 ; 839f8d80H
  007e5	c7 85 d0 fe ff
	ff 82 82 b4 88	 mov	 DWORD PTR __k$532085[ebp+12], -2001436030 ; 88b48282H
  007ef	8d 85 c4 fe ff
	ff		 lea	 eax, DWORD PTR __k$532085[ebp]
  007f5	c7 85 d4 fe ff
	ff 8c 8f 80 00	 mov	 DWORD PTR __k$532085[ebp+16], 8425356 ; 00808f8cH
  007ff	59		 pop	 ecx
$LL1836@LoadProper:
  00800	81 30 ed ec eb
	ea		 xor	 DWORD PTR [eax], -353637139 ; eaebecedH
  00806	83 c0 04	 add	 eax, 4
  00809	49		 dec	 ecx
  0080a	75 f4		 jne	 SHORT $LL1836@LoadProper
  0080c	6a 10		 push	 16			; 00000010H
  0080e	58		 pop	 eax
$LL1833@LoadProper:
  0080f	8b c8		 mov	 ecx, eax
  00811	81 e1 03 00 00
	80		 and	 ecx, -2147483645	; 80000003H
  00817	79 05		 jns	 SHORT $LN2798@LoadProper
  00819	49		 dec	 ecx
  0081a	83 c9 fc	 or	 ecx, -4			; fffffffcH
  0081d	41		 inc	 ecx
$LN2798@LoadProper:
  0081e	b2 ed		 mov	 dl, -19			; ffffffedH
  00820	2a d1		 sub	 dl, cl
  00822	30 94 05 c4 fe
	ff ff		 xor	 BYTE PTR __k$532085[ebp+eax], dl
  00829	40		 inc	 eax
  0082a	83 f8 13	 cmp	 eax, 19			; 00000013H
  0082d	7c e0		 jl	 SHORT $LL1833@LoadProper
  0082f	8b 8d 80 fc ff
	ff		 mov	 ecx, DWORD PTR _rkLoader$GSCopy$[ebp]
  00835	68 04 01 00 00	 push	 260			; 00000104H
  0083a	8d 85 84 fc ff
	ff		 lea	 eax, DWORD PTR _szBuf$[ebp]
  00840	50		 push	 eax
  00841	68 00 00 00 00	 push	 OFFSET ??_C@_00CNPNBAHC@?$AA@
  00846	8d 85 c4 fe ff
	ff		 lea	 eax, DWORD PTR __k$532085[ebp]
  0084c	50		 push	 eax
  0084d	ff d6		 call	 esi

; 90   : 	m_vJumpAnimationList.push_back( ioHashString(szBuf) );

  0084f	8d 85 84 fc ff
	ff		 lea	 eax, DWORD PTR _szBuf$[ebp]
  00855	50		 push	 eax
  00856	8d 8d 58 fc ff
	ff		 lea	 ecx, DWORD PTR $T529943[ebp]
  0085c	ff d7		 call	 edi
  0085e	8b 8d 78 fc ff
	ff		 mov	 ecx, DWORD PTR _this$GSCopy$[ebp]
  00864	50		 push	 eax
  00865	81 c1 6c 09 00
	00		 add	 ecx, 2412		; 0000096cH
  0086b	c7 45 fc 02 00
	00 00		 mov	 DWORD PTR __$EHRec$[ebp+8], 2
  00872	e8 00 00 00 00	 call	 ?push_back@?$vector@VioHashString@@V?$allocator@VioHashString@@@std@@@std@@QAEX$$QAVioHashString@@@Z ; std::vector<ioHashString,std::allocator<ioHashString> >::push_back
  00877	83 4d fc ff	 or	 DWORD PTR __$EHRec$[ebp+8], -1
  0087b	8d 8d 58 fc ff
	ff		 lea	 ecx, DWORD PTR $T529943[ebp]
  00881	ff d3		 call	 ebx
  00883	6a 04		 push	 4

; 91   : 	rkLoader.LoadString_e( "jump_animation_left", "", szBuf, MAX_PATH );

  00885	c7 85 dc fe ff
	ff 87 99 86 9a	 mov	 DWORD PTR __k$532210[ebp], -1702454905 ; 9a869987H
  0088f	c7 85 e0 fe ff
	ff b2 8d 85 83	 mov	 DWORD PTR __k$532210[ebp+4], -2088399438 ; 83858db2H
  00899	c7 85 e4 fe ff
	ff 80 8d 9f 83	 mov	 DWORD PTR __k$532210[ebp+8], -2086695552 ; 839f8d80H
  008a3	c7 85 e8 fe ff
	ff 82 82 b4 86	 mov	 DWORD PTR __k$532210[ebp+12], -2034990462 ; 86b48282H
  008ad	8d 85 dc fe ff
	ff		 lea	 eax, DWORD PTR __k$532210[ebp]
  008b3	c7 85 ec fe ff
	ff 88 8a 9f 00	 mov	 DWORD PTR __k$532210[ebp+16], 10455688 ; 009f8a88H
  008bd	59		 pop	 ecx
$LL1942@LoadProper:
  008be	81 30 ed ec eb
	ea		 xor	 DWORD PTR [eax], -353637139 ; eaebecedH
  008c4	83 c0 04	 add	 eax, 4
  008c7	49		 dec	 ecx
  008c8	75 f4		 jne	 SHORT $LL1942@LoadProper
  008ca	6a 10		 push	 16			; 00000010H
  008cc	58		 pop	 eax
$LL1939@LoadProper:
  008cd	8b c8		 mov	 ecx, eax
  008cf	81 e1 03 00 00
	80		 and	 ecx, -2147483645	; 80000003H
  008d5	79 05		 jns	 SHORT $LN2799@LoadProper
  008d7	49		 dec	 ecx
  008d8	83 c9 fc	 or	 ecx, -4			; fffffffcH
  008db	41		 inc	 ecx
$LN2799@LoadProper:
  008dc	b2 ed		 mov	 dl, -19			; ffffffedH
  008de	2a d1		 sub	 dl, cl
  008e0	30 94 05 dc fe
	ff ff		 xor	 BYTE PTR __k$532210[ebp+eax], dl
  008e7	40		 inc	 eax
  008e8	83 f8 13	 cmp	 eax, 19			; 00000013H
  008eb	7c e0		 jl	 SHORT $LL1939@LoadProper
  008ed	8b 8d 80 fc ff
	ff		 mov	 ecx, DWORD PTR _rkLoader$GSCopy$[ebp]
  008f3	68 04 01 00 00	 push	 260			; 00000104H
  008f8	8d 85 84 fc ff
	ff		 lea	 eax, DWORD PTR _szBuf$[ebp]
  008fe	50		 push	 eax
  008ff	68 00 00 00 00	 push	 OFFSET ??_C@_00CNPNBAHC@?$AA@
  00904	8d 85 dc fe ff
	ff		 lea	 eax, DWORD PTR __k$532210[ebp]
  0090a	50		 push	 eax
  0090b	ff d6		 call	 esi

; 92   : 	m_vJumpAnimationList.push_back( ioHashString(szBuf) );

  0090d	8d 85 84 fc ff
	ff		 lea	 eax, DWORD PTR _szBuf$[ebp]
  00913	50		 push	 eax
  00914	8d 8d 18 fc ff
	ff		 lea	 ecx, DWORD PTR $T529944[ebp]
  0091a	ff d7		 call	 edi
  0091c	8b 8d 78 fc ff
	ff		 mov	 ecx, DWORD PTR _this$GSCopy$[ebp]
  00922	50		 push	 eax
  00923	81 c1 6c 09 00
	00		 add	 ecx, 2412		; 0000096cH
  00929	c7 45 fc 03 00
	00 00		 mov	 DWORD PTR __$EHRec$[ebp+8], 3
  00930	e8 00 00 00 00	 call	 ?push_back@?$vector@VioHashString@@V?$allocator@VioHashString@@@std@@@std@@QAEX$$QAVioHashString@@@Z ; std::vector<ioHashString,std::allocator<ioHashString> >::push_back
  00935	83 4d fc ff	 or	 DWORD PTR __$EHRec$[ebp+8], -1
  00939	8d 8d 18 fc ff
	ff		 lea	 ecx, DWORD PTR $T529944[ebp]
  0093f	ff d3		 call	 ebx

; 93   : 
; 94   : 	m_vJumpExtraAnimationList.clear();

  00941	8b 8d 78 fc ff
	ff		 mov	 ecx, DWORD PTR _this$GSCopy$[ebp]
  00947	81 c1 7c 09 00
	00		 add	 ecx, 2428		; 0000097cH
  0094d	e8 00 00 00 00	 call	 ?clear@?$vector@VioHashString@@V?$allocator@VioHashString@@@std@@@std@@QAEXXZ ; std::vector<ioHashString,std::allocator<ioHashString> >::clear

; 95   : 	m_vJumpExtraAnimationList.reserve( 4 );

  00952	8b 8d 78 fc ff
	ff		 mov	 ecx, DWORD PTR _this$GSCopy$[ebp]
  00958	6a 04		 push	 4
  0095a	81 c1 7c 09 00
	00		 add	 ecx, 2428		; 0000097cH
  00960	e8 00 00 00 00	 call	 ?reserve@?$vector@VioHashString@@V?$allocator@VioHashString@@@std@@@std@@QAEXI@Z ; std::vector<ioHashString,std::allocator<ioHashString> >::reserve
  00965	6a 06		 push	 6

; 96   : 
; 97   : 	rkLoader.LoadString_e( "jump_extra_animation_front", "", szBuf, MAX_PATH );

  00967	c7 85 00 fe ff
	ff 87 99 86 9a	 mov	 DWORD PTR __k$532318[ebp], -1702454905 ; 9a869987H
  00971	c7 85 04 fe ff
	ff b2 89 93 9e	 mov	 DWORD PTR __k$532318[ebp+4], -1634498126 ; 9e9389b2H
  0097b	c7 85 08 fe ff
	ff 9f 8d b4 8b	 mov	 DWORD PTR __k$532318[ebp+8], -1951101537 ; 8bb48d9fH
  00985	c7 85 0c fe ff
	ff 83 85 86 8b	 mov	 DWORD PTR __k$532318[ebp+12], -1954118269 ; 8b868583H
  0098f	c7 85 10 fe ff
	ff 99 85 84 84	 mov	 DWORD PTR __k$532318[ebp+16], -2071689831 ; 84848599H
  00999	c7 85 14 fe ff
	ff b2 8a 99 85	 mov	 DWORD PTR __k$532318[ebp+20], -2053535054 ; 85998ab2H
  009a3	66 c7 85 18 fe
	ff ff 83 98	 mov	 WORD PTR __k$532318[ebp+24], 39043 ; 00009883H
  009ac	8d 85 00 fe ff
	ff		 lea	 eax, DWORD PTR __k$532318[ebp]
  009b2	c6 85 1a fe ff
	ff 00		 mov	 BYTE PTR __k$532318[ebp+26], 0
  009b9	59		 pop	 ecx
$LL2048@LoadProper:
  009ba	81 30 ed ec eb
	ea		 xor	 DWORD PTR [eax], -353637139 ; eaebecedH
  009c0	83 c0 04	 add	 eax, 4
  009c3	49		 dec	 ecx
  009c4	75 f4		 jne	 SHORT $LL2048@LoadProper
  009c6	6a 18		 push	 24			; 00000018H
  009c8	58		 pop	 eax
$LL2045@LoadProper:
  009c9	8b c8		 mov	 ecx, eax
  009cb	81 e1 03 00 00
	80		 and	 ecx, -2147483645	; 80000003H
  009d1	79 05		 jns	 SHORT $LN2800@LoadProper
  009d3	49		 dec	 ecx
  009d4	83 c9 fc	 or	 ecx, -4			; fffffffcH
  009d7	41		 inc	 ecx
$LN2800@LoadProper:
  009d8	b2 ed		 mov	 dl, -19			; ffffffedH
  009da	2a d1		 sub	 dl, cl
  009dc	30 94 05 00 fe
	ff ff		 xor	 BYTE PTR __k$532318[ebp+eax], dl
  009e3	40		 inc	 eax
  009e4	83 f8 1a	 cmp	 eax, 26			; 0000001aH
  009e7	7c e0		 jl	 SHORT $LL2045@LoadProper
  009e9	8b 8d 80 fc ff
	ff		 mov	 ecx, DWORD PTR _rkLoader$GSCopy$[ebp]
  009ef	68 04 01 00 00	 push	 260			; 00000104H
  009f4	8d 85 84 fc ff
	ff		 lea	 eax, DWORD PTR _szBuf$[ebp]
  009fa	50		 push	 eax
  009fb	68 00 00 00 00	 push	 OFFSET ??_C@_00CNPNBAHC@?$AA@
  00a00	8d 85 00 fe ff
	ff		 lea	 eax, DWORD PTR __k$532318[ebp]
  00a06	50		 push	 eax
  00a07	ff d6		 call	 esi

; 98   : 	m_vJumpExtraAnimationList.push_back( ioHashString(szBuf) );

  00a09	8d 85 84 fc ff
	ff		 lea	 eax, DWORD PTR _szBuf$[ebp]
  00a0f	50		 push	 eax
  00a10	8d 8d f8 fb ff
	ff		 lea	 ecx, DWORD PTR $T529945[ebp]
  00a16	ff d7		 call	 edi
  00a18	8b 8d 78 fc ff
	ff		 mov	 ecx, DWORD PTR _this$GSCopy$[ebp]
  00a1e	50		 push	 eax
  00a1f	81 c1 7c 09 00
	00		 add	 ecx, 2428		; 0000097cH
  00a25	c7 45 fc 04 00
	00 00		 mov	 DWORD PTR __$EHRec$[ebp+8], 4
  00a2c	e8 00 00 00 00	 call	 ?push_back@?$vector@VioHashString@@V?$allocator@VioHashString@@@std@@@std@@QAEX$$QAVioHashString@@@Z ; std::vector<ioHashString,std::allocator<ioHashString> >::push_back
  00a31	83 4d fc ff	 or	 DWORD PTR __$EHRec$[ebp+8], -1
  00a35	8d 8d f8 fb ff
	ff		 lea	 ecx, DWORD PTR $T529945[ebp]
  00a3b	ff d3		 call	 ebx
  00a3d	6a 06		 push	 6

; 99   : 	rkLoader.LoadString_e( "jump_extra_animation_right", "", szBuf, MAX_PATH );

  00a3f	c7 85 c0 fd ff
	ff 87 99 86 9a	 mov	 DWORD PTR __k$532443[ebp], -1702454905 ; 9a869987H
  00a49	c7 85 c4 fd ff
	ff b2 89 93 9e	 mov	 DWORD PTR __k$532443[ebp+4], -1634498126 ; 9e9389b2H
  00a53	c7 85 c8 fd ff
	ff 9f 8d b4 8b	 mov	 DWORD PTR __k$532443[ebp+8], -1951101537 ; 8bb48d9fH
  00a5d	c7 85 cc fd ff
	ff 83 85 86 8b	 mov	 DWORD PTR __k$532443[ebp+12], -1954118269 ; 8b868583H
  00a67	c7 85 d0 fd ff
	ff 99 85 84 84	 mov	 DWORD PTR __k$532443[ebp+16], -2071689831 ; 84848599H
  00a71	c7 85 d4 fd ff
	ff b2 9e 82 8d	 mov	 DWORD PTR __k$532443[ebp+20], -1920819534 ; 8d829eb2H
  00a7b	66 c7 85 d8 fd
	ff ff 85 98	 mov	 WORD PTR __k$532443[ebp+24], 39045 ; 00009885H
  00a84	8d 85 c0 fd ff
	ff		 lea	 eax, DWORD PTR __k$532443[ebp]
  00a8a	c6 85 da fd ff
	ff 00		 mov	 BYTE PTR __k$532443[ebp+26], 0
  00a91	59		 pop	 ecx
$LL2154@LoadProper:
  00a92	81 30 ed ec eb
	ea		 xor	 DWORD PTR [eax], -353637139 ; eaebecedH
  00a98	83 c0 04	 add	 eax, 4
  00a9b	49		 dec	 ecx
  00a9c	75 f4		 jne	 SHORT $LL2154@LoadProper
  00a9e	6a 18		 push	 24			; 00000018H
  00aa0	58		 pop	 eax
$LL2151@LoadProper:
  00aa1	8b c8		 mov	 ecx, eax
  00aa3	81 e1 03 00 00
	80		 and	 ecx, -2147483645	; 80000003H
  00aa9	79 05		 jns	 SHORT $LN2801@LoadProper
  00aab	49		 dec	 ecx
  00aac	83 c9 fc	 or	 ecx, -4			; fffffffcH
  00aaf	41		 inc	 ecx
$LN2801@LoadProper:
  00ab0	b2 ed		 mov	 dl, -19			; ffffffedH
  00ab2	2a d1		 sub	 dl, cl
  00ab4	30 94 05 c0 fd
	ff ff		 xor	 BYTE PTR __k$532443[ebp+eax], dl
  00abb	40		 inc	 eax
  00abc	83 f8 1a	 cmp	 eax, 26			; 0000001aH
  00abf	7c e0		 jl	 SHORT $LL2151@LoadProper
  00ac1	8b 8d 80 fc ff
	ff		 mov	 ecx, DWORD PTR _rkLoader$GSCopy$[ebp]
  00ac7	68 04 01 00 00	 push	 260			; 00000104H
  00acc	8d 85 84 fc ff
	ff		 lea	 eax, DWORD PTR _szBuf$[ebp]
  00ad2	50		 push	 eax
  00ad3	68 00 00 00 00	 push	 OFFSET ??_C@_00CNPNBAHC@?$AA@
  00ad8	8d 85 c0 fd ff
	ff		 lea	 eax, DWORD PTR __k$532443[ebp]
  00ade	50		 push	 eax
  00adf	ff d6		 call	 esi

; 100  : 	m_vJumpExtraAnimationList.push_back( ioHashString(szBuf) );

  00ae1	8d 85 84 fc ff
	ff		 lea	 eax, DWORD PTR _szBuf$[ebp]
  00ae7	50		 push	 eax
  00ae8	8d 8d 48 fc ff
	ff		 lea	 ecx, DWORD PTR $T529946[ebp]
  00aee	ff d7		 call	 edi
  00af0	8b 8d 78 fc ff
	ff		 mov	 ecx, DWORD PTR _this$GSCopy$[ebp]
  00af6	50		 push	 eax
  00af7	81 c1 7c 09 00
	00		 add	 ecx, 2428		; 0000097cH
  00afd	c7 45 fc 05 00
	00 00		 mov	 DWORD PTR __$EHRec$[ebp+8], 5
  00b04	e8 00 00 00 00	 call	 ?push_back@?$vector@VioHashString@@V?$allocator@VioHashString@@@std@@@std@@QAEX$$QAVioHashString@@@Z ; std::vector<ioHashString,std::allocator<ioHashString> >::push_back
  00b09	83 4d fc ff	 or	 DWORD PTR __$EHRec$[ebp+8], -1
  00b0d	8d 8d 48 fc ff
	ff		 lea	 ecx, DWORD PTR $T529946[ebp]
  00b13	ff d3		 call	 ebx
  00b15	6a 06		 push	 6

; 101  : 	rkLoader.LoadString_e( "jump_extra_animation_back", "", szBuf, MAX_PATH );

  00b17	c7 85 40 fe ff
	ff 87 99 86 9a	 mov	 DWORD PTR __k$532581[ebp], -1702454905 ; 9a869987H
  00b21	c7 85 44 fe ff
	ff b2 89 93 9e	 mov	 DWORD PTR __k$532581[ebp+4], -1634498126 ; 9e9389b2H
  00b2b	c7 85 48 fe ff
	ff 9f 8d b4 8b	 mov	 DWORD PTR __k$532581[ebp+8], -1951101537 ; 8bb48d9fH
  00b35	c7 85 4c fe ff
	ff 83 85 86 8b	 mov	 DWORD PTR __k$532581[ebp+12], -1954118269 ; 8b868583H
  00b3f	c7 85 50 fe ff
	ff 99 85 84 84	 mov	 DWORD PTR __k$532581[ebp+16], -2071689831 ; 84848599H
  00b49	c7 85 54 fe ff
	ff b2 8e 8a 89	 mov	 DWORD PTR __k$532581[ebp+20], -1987408206 ; 898a8eb2H
  00b53	8d 85 40 fe ff
	ff		 lea	 eax, DWORD PTR __k$532581[ebp]
  00b59	66 c7 85 58 fe
	ff ff 86 00	 mov	 WORD PTR __k$532581[ebp+24], 134 ; 00000086H
  00b62	59		 pop	 ecx
$LL2260@LoadProper:
  00b63	81 30 ed ec eb
	ea		 xor	 DWORD PTR [eax], -353637139 ; eaebecedH
  00b69	83 c0 04	 add	 eax, 4
  00b6c	49		 dec	 ecx
  00b6d	75 f4		 jne	 SHORT $LL2260@LoadProper
  00b6f	8b 8d 80 fc ff
	ff		 mov	 ecx, DWORD PTR _rkLoader$GSCopy$[ebp]
  00b75	80 b5 58 fe ff
	ff ed		 xor	 BYTE PTR __k$532581[ebp+24], -19 ; ffffffedH
  00b7c	68 04 01 00 00	 push	 260			; 00000104H
  00b81	8d 85 84 fc ff
	ff		 lea	 eax, DWORD PTR _szBuf$[ebp]
  00b87	50		 push	 eax
  00b88	68 00 00 00 00	 push	 OFFSET ??_C@_00CNPNBAHC@?$AA@
  00b8d	8d 85 40 fe ff
	ff		 lea	 eax, DWORD PTR __k$532581[ebp]
  00b93	50		 push	 eax
  00b94	ff d6		 call	 esi

; 102  : 	m_vJumpExtraAnimationList.push_back( ioHashString(szBuf) );

  00b96	8d 85 84 fc ff
	ff		 lea	 eax, DWORD PTR _szBuf$[ebp]
  00b9c	50		 push	 eax
  00b9d	8d 8d 08 fc ff
	ff		 lea	 ecx, DWORD PTR $T529947[ebp]
  00ba3	ff d7		 call	 edi
  00ba5	8b 8d 78 fc ff
	ff		 mov	 ecx, DWORD PTR _this$GSCopy$[ebp]
  00bab	50		 push	 eax
  00bac	81 c1 7c 09 00
	00		 add	 ecx, 2428		; 0000097cH
  00bb2	c7 45 fc 06 00
	00 00		 mov	 DWORD PTR __$EHRec$[ebp+8], 6
  00bb9	e8 00 00 00 00	 call	 ?push_back@?$vector@VioHashString@@V?$allocator@VioHashString@@@std@@@std@@QAEX$$QAVioHashString@@@Z ; std::vector<ioHashString,std::allocator<ioHashString> >::push_back
  00bbe	83 4d fc ff	 or	 DWORD PTR __$EHRec$[ebp+8], -1
  00bc2	8d 8d 08 fc ff
	ff		 lea	 ecx, DWORD PTR $T529947[ebp]
  00bc8	ff d3		 call	 ebx
  00bca	6a 06		 push	 6

; 103  : 	rkLoader.LoadString_e( "jump_extra_animation_left", "", szBuf, MAX_PATH );

  00bcc	c7 85 20 fe ff
	ff 87 99 86 9a	 mov	 DWORD PTR __k$532693[ebp], -1702454905 ; 9a869987H
  00bd6	c7 85 24 fe ff
	ff b2 89 93 9e	 mov	 DWORD PTR __k$532693[ebp+4], -1634498126 ; 9e9389b2H
  00be0	c7 85 28 fe ff
	ff 9f 8d b4 8b	 mov	 DWORD PTR __k$532693[ebp+8], -1951101537 ; 8bb48d9fH
  00bea	c7 85 2c fe ff
	ff 83 85 86 8b	 mov	 DWORD PTR __k$532693[ebp+12], -1954118269 ; 8b868583H
  00bf4	c7 85 30 fe ff
	ff 99 85 84 84	 mov	 DWORD PTR __k$532693[ebp+16], -2071689831 ; 84848599H
  00bfe	c7 85 34 fe ff
	ff b2 80 8e 8c	 mov	 DWORD PTR __k$532693[ebp+20], -1936817998 ; 8c8e80b2H
  00c08	8d 85 20 fe ff
	ff		 lea	 eax, DWORD PTR __k$532693[ebp]
  00c0e	66 c7 85 38 fe
	ff ff 99 00	 mov	 WORD PTR __k$532693[ebp+24], 153 ; 00000099H
  00c17	59		 pop	 ecx
$LL2366@LoadProper:
  00c18	81 30 ed ec eb
	ea		 xor	 DWORD PTR [eax], -353637139 ; eaebecedH
  00c1e	83 c0 04	 add	 eax, 4
  00c21	49		 dec	 ecx
  00c22	75 f4		 jne	 SHORT $LL2366@LoadProper
  00c24	8b 8d 80 fc ff
	ff		 mov	 ecx, DWORD PTR _rkLoader$GSCopy$[ebp]
  00c2a	80 b5 38 fe ff
	ff ed		 xor	 BYTE PTR __k$532693[ebp+24], -19 ; ffffffedH
  00c31	68 04 01 00 00	 push	 260			; 00000104H
  00c36	8d 85 84 fc ff
	ff		 lea	 eax, DWORD PTR _szBuf$[ebp]
  00c3c	50		 push	 eax
  00c3d	68 00 00 00 00	 push	 OFFSET ??_C@_00CNPNBAHC@?$AA@
  00c42	8d 85 20 fe ff
	ff		 lea	 eax, DWORD PTR __k$532693[ebp]
  00c48	50		 push	 eax
  00c49	ff d6		 call	 esi

; 104  : 	m_vJumpExtraAnimationList.push_back( ioHashString(szBuf) );

  00c4b	8d 85 84 fc ff
	ff		 lea	 eax, DWORD PTR _szBuf$[ebp]
  00c51	50		 push	 eax
  00c52	8d 8d 68 fc ff
	ff		 lea	 ecx, DWORD PTR $T529948[ebp]
  00c58	ff d7		 call	 edi
  00c5a	8b 8d 78 fc ff
	ff		 mov	 ecx, DWORD PTR _this$GSCopy$[ebp]
  00c60	50		 push	 eax
  00c61	81 c1 7c 09 00
	00		 add	 ecx, 2428		; 0000097cH
  00c67	c7 45 fc 07 00
	00 00		 mov	 DWORD PTR __$EHRec$[ebp+8], 7
  00c6e	e8 00 00 00 00	 call	 ?push_back@?$vector@VioHashString@@V?$allocator@VioHashString@@@std@@@std@@QAEX$$QAVioHashString@@@Z ; std::vector<ioHashString,std::allocator<ioHashString> >::push_back
  00c73	83 4d fc ff	 or	 DWORD PTR __$EHRec$[ebp+8], -1
  00c77	8d 8d 68 fc ff
	ff		 lea	 ecx, DWORD PTR $T529948[ebp]
  00c7d	ff d3		 call	 ebx
  00c7f	6a 04		 push	 4

; 105  : 
; 106  : 	m_bEnableMoveRotate = rkLoader.LoadBool_e( "enable_move_rotate", false );

  00c81	c7 85 f4 fe ff
	ff 88 82 8a 88	 mov	 DWORD PTR __k$532831[ebp], -2004188536 ; 888a8288H
  00c8b	c7 85 f8 fe ff
	ff 81 89 b4 87	 mov	 DWORD PTR __k$532831[ebp+4], -2018211455 ; 87b48981H
  00c95	c7 85 fc fe ff
	ff 82 9a 8e b5	 mov	 DWORD PTR __k$532831[ebp+8], -1248945534 ; b58e9a82H
  00c9f	c7 85 00 ff ff
	ff 9f 83 9f 8b	 mov	 DWORD PTR __k$532831[ebp+12], -1952480353 ; 8b9f839fH
  00ca9	66 c7 85 04 ff
	ff ff 99 89	 mov	 WORD PTR __k$532831[ebp+16], 35225 ; 00008999H
  00cb2	8d 85 f4 fe ff
	ff		 lea	 eax, DWORD PTR __k$532831[ebp]
  00cb8	c6 85 06 ff ff
	ff 00		 mov	 BYTE PTR __k$532831[ebp+18], 0
  00cbf	59		 pop	 ecx
  00cc0	bf ed ec eb ea	 mov	 edi, -353637139		; eaebecedH
$LL2472@LoadProper:
  00cc5	31 38		 xor	 DWORD PTR [eax], edi
  00cc7	83 c0 04	 add	 eax, 4
  00cca	49		 dec	 ecx
  00ccb	75 f8		 jne	 SHORT $LL2472@LoadProper
  00ccd	6a 10		 push	 16			; 00000010H
  00ccf	58		 pop	 eax
$LL2469@LoadProper:
  00cd0	8b c8		 mov	 ecx, eax
  00cd2	81 e1 03 00 00
	80		 and	 ecx, -2147483645	; 80000003H
  00cd8	79 05		 jns	 SHORT $LN2802@LoadProper
  00cda	49		 dec	 ecx
  00cdb	83 c9 fc	 or	 ecx, -4			; fffffffcH
  00cde	41		 inc	 ecx
$LN2802@LoadProper:
  00cdf	b2 ed		 mov	 dl, -19			; ffffffedH
  00ce1	2a d1		 sub	 dl, cl
  00ce3	30 94 05 f4 fe
	ff ff		 xor	 BYTE PTR __k$532831[ebp+eax], dl
  00cea	40		 inc	 eax
  00ceb	83 f8 12	 cmp	 eax, 18			; 00000012H
  00cee	7c e0		 jl	 SHORT $LL2469@LoadProper
  00cf0	8b 8d 80 fc ff
	ff		 mov	 ecx, DWORD PTR _rkLoader$GSCopy$[ebp]
  00cf6	8b 1d 00 00 00
	00		 mov	 ebx, DWORD PTR __imp_?LoadBool@ioINILoader@@QAE_NPBD_N@Z
  00cfc	6a 00		 push	 0
  00cfe	8d 85 f4 fe ff
	ff		 lea	 eax, DWORD PTR __k$532831[ebp]
  00d04	50		 push	 eax
  00d05	ff d3		 call	 ebx
  00d07	8b b5 78 fc ff
	ff		 mov	 esi, DWORD PTR _this$GSCopy$[ebp]
  00d0d	0f b6 c0	 movzx	 eax, al
  00d10	50		 push	 eax
  00d11	8d 8e c0 09 00
	00		 lea	 ecx, DWORD PTR [esi+2496]
  00d17	e8 00 00 00 00	 call	 ??4?$CEncrypt@_N@@QAE_N_N@Z ; CEncrypt<bool>::operator=
  00d1c	6a 04		 push	 4

; 107  : 	m_dwMoveRotateSpeed = (DWORD)rkLoader.LoadInt_e( "move_rotate_speed", 0 );

  00d1e	c7 85 64 ff ff
	ff 80 83 9d 8f	 mov	 DWORD PTR __k$532943[ebp], -1885502592 ; 8f9d8380H
  00d28	c7 85 68 ff ff
	ff b2 9e 84 9e	 mov	 DWORD PTR __k$532943[ebp+4], -1635475790 ; 9e849eb2H
  00d32	c7 85 6c ff ff
	ff 8c 98 8e b5	 mov	 DWORD PTR __k$532943[ebp+8], -1248946036 ; b58e988cH
  00d3c	c7 85 70 ff ff
	ff 9e 9c 8e 8f	 mov	 DWORD PTR __k$532943[ebp+12], -1886479202 ; 8f8e9c9eH
  00d46	8d 85 64 ff ff
	ff		 lea	 eax, DWORD PTR __k$532943[ebp]
  00d4c	66 c7 85 74 ff
	ff ff 89 00	 mov	 WORD PTR __k$532943[ebp+16], 137 ; 00000089H
  00d55	59		 pop	 ecx
$LL2578@LoadProper:
  00d56	31 38		 xor	 DWORD PTR [eax], edi
  00d58	83 c0 04	 add	 eax, 4
  00d5b	49		 dec	 ecx
  00d5c	75 f8		 jne	 SHORT $LL2578@LoadProper
  00d5e	80 b5 74 ff ff
	ff ed		 xor	 BYTE PTR __k$532943[ebp+16], -19 ; ffffffedH
  00d65	51		 push	 ecx
  00d66	8b 8d 80 fc ff
	ff		 mov	 ecx, DWORD PTR _rkLoader$GSCopy$[ebp]
  00d6c	8d 85 64 ff ff
	ff		 lea	 eax, DWORD PTR __k$532943[ebp]
  00d72	50		 push	 eax
  00d73	ff 15 00 00 00
	00		 call	 DWORD PTR __imp_?LoadInt@ioINILoader@@QAEHPBDH@Z
  00d79	50		 push	 eax
  00d7a	8d 8e f0 09 00
	00		 lea	 ecx, DWORD PTR [esi+2544]
  00d80	e8 00 00 00 00	 call	 ??4?$CEncrypt@K@@QAEKK@Z ; CEncrypt<unsigned long>::operator=
  00d85	6a 06		 push	 6

; 108  : 
; 109  : 	m_bInvisibleMeshOnFlyJump = rkLoader.LoadBool_e( "invisible_mesh_on_fly_jump", false );

  00d87	c7 85 e0 fd ff
	ff 84 82 9d 83	 mov	 DWORD PTR __k$533068[ebp], -2086829436 ; 839d8284H
  00d91	c7 85 e4 fd ff
	ff 9e 85 89 86	 mov	 DWORD PTR __k$533068[ebp+4], -2037807714 ; 8689859eH
  00d9b	c7 85 e8 fd ff
	ff 88 b3 86 8f	 mov	 DWORD PTR __k$533068[ebp+8], -1886997624 ; 8f86b388H
  00da5	c7 85 ec fd ff
	ff 9e 84 b4 85	 mov	 DWORD PTR __k$533068[ebp+12], -2051767138 ; 85b4849eH
  00daf	c7 85 f0 fd ff
	ff 83 b3 8d 86	 mov	 DWORD PTR __k$533068[ebp+16], -2037533821 ; 868db383H
  00db9	c7 85 f4 fd ff
	ff 94 b3 81 9f	 mov	 DWORD PTR __k$533068[ebp+20], -1618889836 ; 9f81b394H
  00dc3	66 c7 85 f8 fd
	ff ff 80 9c	 mov	 WORD PTR __k$533068[ebp+24], 40064 ; 00009c80H
  00dcc	8d 85 e0 fd ff
	ff		 lea	 eax, DWORD PTR __k$533068[ebp]
  00dd2	c6 85 fa fd ff
	ff 00		 mov	 BYTE PTR __k$533068[ebp+26], 0
  00dd9	59		 pop	 ecx
$LL2684@LoadProper:
  00dda	31 38		 xor	 DWORD PTR [eax], edi
  00ddc	83 c0 04	 add	 eax, 4
  00ddf	49		 dec	 ecx
  00de0	75 f8		 jne	 SHORT $LL2684@LoadProper
  00de2	6a 18		 push	 24			; 00000018H
  00de4	58		 pop	 eax
$LL2681@LoadProper:
  00de5	8b c8		 mov	 ecx, eax
  00de7	81 e1 03 00 00
	80		 and	 ecx, -2147483645	; 80000003H
  00ded	79 05		 jns	 SHORT $LN2803@LoadProper
  00def	49		 dec	 ecx
  00df0	83 c9 fc	 or	 ecx, -4			; fffffffcH
  00df3	41		 inc	 ecx
$LN2803@LoadProper:
  00df4	b2 ed		 mov	 dl, -19			; ffffffedH
  00df6	2a d1		 sub	 dl, cl
  00df8	30 94 05 e0 fd
	ff ff		 xor	 BYTE PTR __k$533068[ebp+eax], dl
  00dff	40		 inc	 eax
  00e00	83 f8 1a	 cmp	 eax, 26			; 0000001aH
  00e03	7c e0		 jl	 SHORT $LL2681@LoadProper
  00e05	8b 8d 80 fc ff
	ff		 mov	 ecx, DWORD PTR _rkLoader$GSCopy$[ebp]
  00e0b	6a 00		 push	 0
  00e0d	8d 85 e0 fd ff
	ff		 lea	 eax, DWORD PTR __k$533068[ebp]
  00e13	50		 push	 eax
  00e14	ff d3		 call	 ebx
  00e16	0f b6 c0	 movzx	 eax, al
  00e19	50		 push	 eax
  00e1a	8d 8e 24 0a 00
	00		 lea	 ecx, DWORD PTR [esi+2596]
  00e20	e8 00 00 00 00	 call	 ??4?$CEncrypt@_N@@QAE_N_N@Z ; CEncrypt<bool>::operator=

; 110  : }

  00e25	e8 00 00 00 00	 call	 __EH_epilog3_GS
  00e2a	c2 04 00	 ret	 4
_TEXT	ENDS
;	COMDAT text$x
text$x	SEGMENT
__unwindfunclet$?LoadProperty@ioMultiFlyJumpBuff@@UAEXAAVioINILoader@@@Z$0:
  00000	8d 8d 28 fc ff
	ff		 lea	 ecx, DWORD PTR $T529941[ebp]
  00006	ff 25 00 00 00
	00		 jmp	 DWORD PTR __imp_??1ioHashString@@QAE@XZ
__unwindfunclet$?LoadProperty@ioMultiFlyJumpBuff@@UAEXAAVioINILoader@@@Z$1:
  0000c	8d 8d 38 fc ff
	ff		 lea	 ecx, DWORD PTR $T529942[ebp]
  00012	ff 25 00 00 00
	00		 jmp	 DWORD PTR __imp_??1ioHashString@@QAE@XZ
__unwindfunclet$?LoadProperty@ioMultiFlyJumpBuff@@UAEXAAVioINILoader@@@Z$2:
  00018	8d 8d 58 fc ff
	ff		 lea	 ecx, DWORD PTR $T529943[ebp]
  0001e	ff 25 00 00 00
	00		 jmp	 DWORD PTR __imp_??1ioHashString@@QAE@XZ
__unwindfunclet$?LoadProperty@ioMultiFlyJumpBuff@@UAEXAAVioINILoader@@@Z$3:
  00024	8d 8d 18 fc ff
	ff		 lea	 ecx, DWORD PTR $T529944[ebp]
  0002a	ff 25 00 00 00
	00		 jmp	 DWORD PTR __imp_??1ioHashString@@QAE@XZ
__unwindfunclet$?LoadProperty@ioMultiFlyJumpBuff@@UAEXAAVioINILoader@@@Z$4:
  00030	8d 8d f8 fb ff
	ff		 lea	 ecx, DWORD PTR $T529945[ebp]
  00036	ff 25 00 00 00
	00		 jmp	 DWORD PTR __imp_??1ioHashString@@QAE@XZ
__unwindfunclet$?LoadProperty@ioMultiFlyJumpBuff@@UAEXAAVioINILoader@@@Z$5:
  0003c	8d 8d 48 fc ff
	ff		 lea	 ecx, DWORD PTR $T529946[ebp]
  00042	ff 25 00 00 00
	00		 jmp	 DWORD PTR __imp_??1ioHashString@@QAE@XZ
__unwindfunclet$?LoadProperty@ioMultiFlyJumpBuff@@UAEXAAVioINILoader@@@Z$6:
  00048	8d 8d 08 fc ff
	ff		 lea	 ecx, DWORD PTR $T529947[ebp]
  0004e	ff 25 00 00 00
	00		 jmp	 DWORD PTR __imp_??1ioHashString@@QAE@XZ
__unwindfunclet$?LoadProperty@ioMultiFlyJumpBuff@@UAEXAAVioINILoader@@@Z$7:
  00054	8d 8d 68 fc ff
	ff		 lea	 ecx, DWORD PTR $T529948[ebp]
  0005a	ff 25 00 00 00
	00		 jmp	 DWORD PTR __imp_??1ioHashString@@QAE@XZ
__ehhandler$?LoadProperty@ioMultiFlyJumpBuff@@UAEXAAVioINILoader@@@Z:
  00060	8b 54 24 08	 mov	 edx, DWORD PTR [esp+8]
  00064	8d 42 0c	 lea	 eax, DWORD PTR [edx+12]
  00067	8b 8a f4 fb ff
	ff		 mov	 ecx, DWORD PTR [edx-1036]
  0006d	33 c8		 xor	 ecx, eax
  0006f	e8 00 00 00 00	 call	 @__security_check_cookie@4
  00074	8b 4a fc	 mov	 ecx, DWORD PTR [edx-4]
  00077	33 c8		 xor	 ecx, eax
  00079	e8 00 00 00 00	 call	 @__security_check_cookie@4
  0007e	b8 00 00 00 00	 mov	 eax, OFFSET __ehfuncinfo$?LoadProperty@ioMultiFlyJumpBuff@@UAEXAAVioINILoader@@@Z
  00083	e9 00 00 00 00	 jmp	 ___CxxFrameHandler3
text$x	ENDS
?LoadProperty@ioMultiFlyJumpBuff@@UAEXAAVioINILoader@@@Z ENDP ; ioMultiFlyJumpBuff::LoadProperty
PUBLIC	??1CharBuffJumpInfo@@QAE@XZ			; CharBuffJumpInfo::~CharBuffJumpInfo
;	COMDAT xdata$x
xdata$x	SEGMENT
__unwindtable$??1CharBuffJumpInfo@@QAE@XZ DD 0ffffffffH
	DD	FLAT:__unwindfunclet$??1CharBuffJumpInfo@@QAE@XZ$0
	DD	00H
	DD	FLAT:__unwindfunclet$??1CharBuffJumpInfo@@QAE@XZ$1
__ehfuncinfo$??1CharBuffJumpInfo@@QAE@XZ DD 019930522H
	DD	02H
	DD	FLAT:__unwindtable$??1CharBuffJumpInfo@@QAE@XZ
	DD	2 DUP(00H)
	DD	2 DUP(00H)
	DD	00H
	DD	01H
; Function compile flags: /Ogsp
xdata$x	ENDS
;	COMDAT ??1CharBuffJumpInfo@@QAE@XZ
_TEXT	SEGMENT
_this$ = -16						; size = 4
__$EHRec$ = -12						; size = 12
??1CharBuffJumpInfo@@QAE@XZ PROC			; CharBuffJumpInfo::~CharBuffJumpInfo, COMDAT
; _this$ = ecx
  00000	6a 04		 push	 4
  00002	b8 00 00 00 00	 mov	 eax, __ehhandler$??1CharBuffJumpInfo@@QAE@XZ
  00007	e8 00 00 00 00	 call	 __EH_prolog3
  0000c	8b f1		 mov	 esi, ecx
  0000e	89 75 f0	 mov	 DWORD PTR _this$[ebp], esi
  00011	8d 4e 58	 lea	 ecx, DWORD PTR [esi+88]
  00014	c7 45 fc 01 00
	00 00		 mov	 DWORD PTR __$EHRec$[ebp+8], 1
  0001b	e8 00 00 00 00	 call	 ?_Tidy@?$vector@VioHashString@@V?$allocator@VioHashString@@@std@@@std@@IAEXXZ ; std::vector<ioHashString,std::allocator<ioHashString> >::_Tidy
  00020	8d 4e 48	 lea	 ecx, DWORD PTR [esi+72]
  00023	c6 45 fc 00	 mov	 BYTE PTR __$EHRec$[ebp+8], 0
  00027	e8 00 00 00 00	 call	 ?_Tidy@?$vector@VioHashString@@V?$allocator@VioHashString@@@std@@@std@@IAEXXZ ; std::vector<ioHashString,std::allocator<ioHashString> >::_Tidy
  0002c	83 4d fc ff	 or	 DWORD PTR __$EHRec$[ebp+8], -1
  00030	8b ce		 mov	 ecx, esi
  00032	ff 15 00 00 00
	00		 call	 DWORD PTR __imp_??1ioHashString@@QAE@XZ
  00038	e8 00 00 00 00	 call	 __EH_epilog3
  0003d	c3		 ret	 0
_TEXT	ENDS
;	COMDAT text$x
text$x	SEGMENT
__unwindfunclet$??1CharBuffJumpInfo@@QAE@XZ$0:
  00000	8b 4d f0	 mov	 ecx, DWORD PTR _this$[ebp]
  00003	ff 25 00 00 00
	00		 jmp	 DWORD PTR __imp_??1ioHashString@@QAE@XZ
__unwindfunclet$??1CharBuffJumpInfo@@QAE@XZ$1:
  00009	8b 4d f0	 mov	 ecx, DWORD PTR _this$[ebp]
  0000c	83 c1 48	 add	 ecx, 72			; 00000048H
  0000f	e9 00 00 00 00	 jmp	 ??1?$vector@VioHashString@@V?$allocator@VioHashString@@@std@@@std@@QAE@XZ ; std::vector<ioHashString,std::allocator<ioHashString> >::~vector<ioHashString,std::allocator<ioHashString> >
__ehhandler$??1CharBuffJumpInfo@@QAE@XZ:
  00014	8b 54 24 08	 mov	 edx, DWORD PTR [esp+8]
  00018	8d 42 0c	 lea	 eax, DWORD PTR [edx+12]
  0001b	8b 4a ec	 mov	 ecx, DWORD PTR [edx-20]
  0001e	33 c8		 xor	 ecx, eax
  00020	e8 00 00 00 00	 call	 @__security_check_cookie@4
  00025	b8 00 00 00 00	 mov	 eax, OFFSET __ehfuncinfo$??1CharBuffJumpInfo@@QAE@XZ
  0002a	e9 00 00 00 00	 jmp	 ___CxxFrameHandler3
text$x	ENDS
??1CharBuffJumpInfo@@QAE@XZ ENDP			; CharBuffJumpInfo::~CharBuffJumpInfo
PUBLIC	??4?$vector@VioHashString@@V?$allocator@VioHashString@@@std@@@std@@QAEAAV01@ABV01@@Z ; std::vector<ioHashString,std::allocator<ioHashString> >::operator=
; Function compile flags: /Ogsp
; File c:\program files (x86)\microsoft visual studio 10.0\vc\include\vector
;	COMDAT ??4?$vector@VioHashString@@V?$allocator@VioHashString@@@std@@@std@@QAEAAV01@ABV01@@Z
_TEXT	SEGMENT
tv555 = 8						; size = 4
__Cat$533704 = 8					; size = 1
__Cat$533577 = 8					; size = 1
__Cat$533555 = 8					; size = 1
__Cat$533434 = 8					; size = 1
$T533489 = 8						; size = 4
$T533401 = 8						; size = 4
__Right$ = 8						; size = 4
??4?$vector@VioHashString@@V?$allocator@VioHashString@@@std@@@std@@QAEAAV01@ABV01@@Z PROC ; std::vector<ioHashString,std::allocator<ioHashString> >::operator=, COMDAT
; _this$ = ecx

; 709  : 		{	// assign _Right

  00000	55		 push	 ebp
  00001	8b ec		 mov	 ebp, esp
  00003	56		 push	 esi
  00004	57		 push	 edi

; 710  : 		if (this != &_Right)

  00005	8b 7d 08	 mov	 edi, DWORD PTR __Right$[ebp]
  00008	8b f1		 mov	 esi, ecx
  0000a	3b f7		 cmp	 esi, edi
  0000c	0f 84 fd 00 00
	00		 je	 $LN1@operator@2

; 711  : 			{	// worth doing
; 712  : 			this->_Orphan_all();

  00012	53		 push	 ebx
  00013	ff 15 00 00 00
	00		 call	 DWORD PTR __imp_?_Orphan_all@_Container_base0@std@@QAEXXZ

; 713  : 
; 714  : 			if (_Right.size() == 0)

  00019	8b 5f 04	 mov	 ebx, DWORD PTR [edi+4]

; 715  : 				clear();	// new sequence empty, erase existing sequence

  0001c	8b 46 04	 mov	 eax, DWORD PTR [esi+4]
  0001f	8b cb		 mov	 ecx, ebx
  00021	2b 0f		 sub	 ecx, DWORD PTR [edi]
  00023	c1 f9 04	 sar	 ecx, 4
  00026	85 c9		 test	 ecx, ecx
  00028	75 14		 jne	 SHORT $LN8@operator@2
  0002a	8b 0e		 mov	 ecx, DWORD PTR [esi]
  0002c	50		 push	 eax
  0002d	51		 push	 ecx
  0002e	8d 45 08	 lea	 eax, DWORD PTR $T533401[ebp]
  00031	50		 push	 eax
  00032	8b ce		 mov	 ecx, esi
  00034	e8 00 00 00 00	 call	 ?erase@?$vector@VioHashString@@V?$allocator@VioHashString@@@std@@@std@@QAE?AV?$_Vector_iterator@V?$_Vector_val@VioHashString@@V?$allocator@VioHashString@@@std@@@std@@@2@V?$_Vector_const_iterator@V?$_Vector_val@VioHashString@@V?$allocator@VioHashString@@@std@@@std@@@2@0@Z ; std::vector<ioHashString,std::allocator<ioHashString> >::erase

; 716  : 			else if (_Right.size() <= size())

  00039	e9 d0 00 00 00	 jmp	 $LN113@operator@2
$LN8@operator@2:
  0003e	8b 16		 mov	 edx, DWORD PTR [esi]
  00040	89 45 08	 mov	 DWORD PTR tv555[ebp], eax
  00043	2b c2		 sub	 eax, edx
  00045	c1 f8 04	 sar	 eax, 4
  00048	3b c8		 cmp	 ecx, eax
  0004a	77 3a		 ja	 SHORT $LN6@operator@2

; 717  : 				{	// enough elements, copy new and destroy old
; 718  : 				pointer _Ptr = _STD _Copy_impl(_Right._Myfirst, _Right._Mylast,
; 719  : 					this->_Myfirst);	// copy new

  0004c	ff 75 08	 push	 DWORD PTR __Cat$533434[ebp]
  0004f	52		 push	 edx
  00050	53		 push	 ebx
  00051	ff 37		 push	 DWORD PTR [edi]
  00053	e8 00 00 00 00	 call	 ??$_Copy_impl@PAVioHashString@@PAV1@@std@@YAPAVioHashString@@PAV1@00U_Nonscalar_ptr_iterator_tag@0@@Z ; std::_Copy_impl<ioHashString *,ioHashString *>

; 720  : 				_Destroy(_Ptr, this->_Mylast);	// destroy old

  00058	8b 5e 04	 mov	 ebx, DWORD PTR [esi+4]
  0005b	83 c4 10	 add	 esp, 16			; 00000010H
  0005e	89 45 08	 mov	 DWORD PTR $T533489[ebp], eax
  00061	3b c3		 cmp	 eax, ebx
  00063	74 12		 je	 SHORT $LN46@operator@2
$LL112@operator@2:
  00065	8b 4d 08	 mov	 ecx, DWORD PTR $T533489[ebp]
  00068	ff 15 00 00 00
	00		 call	 DWORD PTR __imp_??1ioHashString@@QAE@XZ
  0006e	83 45 08 10	 add	 DWORD PTR $T533489[ebp], 16 ; 00000010H
  00072	39 5d 08	 cmp	 DWORD PTR $T533489[ebp], ebx
  00075	75 ee		 jne	 SHORT $LL112@operator@2
$LN46@operator@2:

; 721  : 				this->_Mylast = this->_Myfirst + _Right.size();

  00077	8b 47 04	 mov	 eax, DWORD PTR [edi+4]
  0007a	2b 07		 sub	 eax, DWORD PTR [edi]
  0007c	83 e0 f0	 and	 eax, -16		; fffffff0H
  0007f	03 06		 add	 eax, DWORD PTR [esi]

; 722  : 				}
; 723  : 			else if (_Right.size() <= capacity())

  00081	e9 85 00 00 00	 jmp	 $LN114@operator@2
$LN6@operator@2:
  00086	8b 5e 08	 mov	 ebx, DWORD PTR [esi+8]
  00089	2b da		 sub	 ebx, edx
  0008b	c1 fb 04	 sar	 ebx, 4
  0008e	3b cb		 cmp	 ecx, ebx
  00090	77 2c		 ja	 SHORT $LN4@operator@2

; 724  : 				{	// enough room, copy and construct new
; 725  : 				pointer _Ptr = _Right._Myfirst + size();
; 726  : 				_STD _Copy_impl(_Right._Myfirst, _Ptr, this->_Myfirst);

  00092	ff 75 08	 push	 DWORD PTR __Cat$533555[ebp]
  00095	8b 0f		 mov	 ecx, DWORD PTR [edi]
  00097	03 c0		 add	 eax, eax
  00099	52		 push	 edx
  0009a	8d 1c c1	 lea	 ebx, DWORD PTR [ecx+eax*8]
  0009d	53		 push	 ebx
  0009e	51		 push	 ecx
  0009f	e8 00 00 00 00	 call	 ??$_Copy_impl@PAVioHashString@@PAV1@@std@@YAPAVioHashString@@PAV1@00U_Nonscalar_ptr_iterator_tag@0@@Z ; std::_Copy_impl<ioHashString *,ioHashString *>

; 727  : 				this->_Mylast = _Ucopy(_Ptr, _Right._Mylast, this->_Mylast);

  000a4	ff 75 08	 push	 DWORD PTR __Cat$533577[ebp]
  000a7	8b 46 04	 mov	 eax, DWORD PTR [esi+4]
  000aa	8b 7f 04	 mov	 edi, DWORD PTR [edi+4]
  000ad	8d 4e 0c	 lea	 ecx, DWORD PTR [esi+12]
  000b0	51		 push	 ecx
  000b1	50		 push	 eax
  000b2	57		 push	 edi
  000b3	53		 push	 ebx
  000b4	e8 00 00 00 00	 call	 ??$_Uninit_copy@PAVioHashString@@PAV1@V?$allocator@VioHashString@@@std@@@std@@YAPAVioHashString@@PAV1@00AAV?$allocator@VioHashString@@@0@U_Nonscalar_ptr_iterator_tag@0@@Z ; std::_Uninit_copy<ioHashString *,ioHashString *,std::allocator<ioHashString> >
  000b9	83 c4 24	 add	 esp, 36			; 00000024H

; 728  : 				}
; 729  : 			else

  000bc	eb 4d		 jmp	 SHORT $LN114@operator@2
$LN4@operator@2:

; 730  : 				{	// not enough room, allocate new array and construct new
; 731  : 				if (this->_Myfirst != 0)

  000be	85 d2		 test	 edx, edx
  000c0	74 1c		 je	 SHORT $LN98@operator@2

; 732  : 					{	// discard old array
; 733  : 					_Destroy(this->_Myfirst, this->_Mylast);

  000c2	8b da		 mov	 ebx, edx
  000c4	eb 0b		 jmp	 SHORT $LN115@operator@2
$LL86@operator@2:
  000c6	8b cb		 mov	 ecx, ebx
  000c8	ff 15 00 00 00
	00		 call	 DWORD PTR __imp_??1ioHashString@@QAE@XZ
  000ce	83 c3 10	 add	 ebx, 16			; 00000010H
$LN115@operator@2:
  000d1	3b 5d 08	 cmp	 ebx, DWORD PTR tv555[ebp]
  000d4	75 f0		 jne	 SHORT $LL86@operator@2

; 734  : 					this->_Alval.deallocate(this->_Myfirst,
; 735  : 						this->_Myend - this->_Myfirst);

  000d6	ff 36		 push	 DWORD PTR [esi]
  000d8	e8 00 00 00 00	 call	 ??3@YAXPAX@Z		; operator delete
  000dd	59		 pop	 ecx
$LN98@operator@2:

; 736  : 					}
; 737  : 				if (_Buy(_Right.size()))

  000de	8b 47 04	 mov	 eax, DWORD PTR [edi+4]
  000e1	2b 07		 sub	 eax, DWORD PTR [edi]
  000e3	8b ce		 mov	 ecx, esi
  000e5	c1 f8 04	 sar	 eax, 4
  000e8	50		 push	 eax
  000e9	e8 00 00 00 00	 call	 ?_Buy@?$vector@VioHashString@@V?$allocator@VioHashString@@@std@@@std@@IAE_NI@Z ; std::vector<ioHashString,std::allocator<ioHashString> >::_Buy
  000ee	84 c0		 test	 al, al
  000f0	74 1c		 je	 SHORT $LN113@operator@2

; 738  : 					this->_Mylast = _Ucopy(_Right._Myfirst, _Right._Mylast,
; 739  : 						this->_Myfirst);

  000f2	ff 75 08	 push	 DWORD PTR __Cat$533704[ebp]
  000f5	8b 06		 mov	 eax, DWORD PTR [esi]
  000f7	8b 4f 04	 mov	 ecx, DWORD PTR [edi+4]
  000fa	8b 3f		 mov	 edi, DWORD PTR [edi]
  000fc	8d 56 0c	 lea	 edx, DWORD PTR [esi+12]
  000ff	52		 push	 edx
  00100	50		 push	 eax
  00101	51		 push	 ecx
  00102	57		 push	 edi
  00103	e8 00 00 00 00	 call	 ??$_Uninit_copy@PAVioHashString@@PAV1@V?$allocator@VioHashString@@@std@@@std@@YAPAVioHashString@@PAV1@00AAV?$allocator@VioHashString@@@0@U_Nonscalar_ptr_iterator_tag@0@@Z ; std::_Uninit_copy<ioHashString *,ioHashString *,std::allocator<ioHashString> >
  00108	83 c4 14	 add	 esp, 20			; 00000014H
$LN114@operator@2:
  0010b	89 46 04	 mov	 DWORD PTR [esi+4], eax
$LN113@operator@2:
  0010e	5b		 pop	 ebx
$LN1@operator@2:
  0010f	5f		 pop	 edi

; 740  : 				}
; 741  : 			}
; 742  : 		return (*this);

  00110	8b c6		 mov	 eax, esi
  00112	5e		 pop	 esi

; 743  : 		}

  00113	5d		 pop	 ebp
  00114	c2 04 00	 ret	 4
??4?$vector@VioHashString@@V?$allocator@VioHashString@@@std@@@std@@QAEAAV01@ABV01@@Z ENDP ; std::vector<ioHashString,std::allocator<ioHashString> >::operator=
_TEXT	ENDS
PUBLIC	__real@3f800000
PUBLIC	??0CharBuffJumpInfo@@QAE@XZ			; CharBuffJumpInfo::CharBuffJumpInfo
EXTRN	__imp_??0ioHashString@@QAE@XZ:PROC
;	COMDAT __real@3f800000
; File c:\program files (x86)\microsoft visual studio 10.0\vc\include\xutility
CONST	SEGMENT
__real@3f800000 DD 03f800000r			; 1
CONST	ENDS
;	COMDAT xdata$x
xdata$x	SEGMENT
__unwindtable$??0CharBuffJumpInfo@@QAE@XZ DD 0ffffffffH
	DD	FLAT:__unwindfunclet$??0CharBuffJumpInfo@@QAE@XZ$0
	DD	00H
	DD	FLAT:__unwindfunclet$??0CharBuffJumpInfo@@QAE@XZ$1
	DD	01H
	DD	FLAT:__unwindfunclet$??0CharBuffJumpInfo@@QAE@XZ$2
__ehfuncinfo$??0CharBuffJumpInfo@@QAE@XZ DD 019930522H
	DD	03H
	DD	FLAT:__unwindtable$??0CharBuffJumpInfo@@QAE@XZ
	DD	2 DUP(00H)
	DD	2 DUP(00H)
	DD	00H
	DD	01H
; Function compile flags: /Ogsp
; File d:\lost saga for developer\youtube\tutorial\source\src\lsclient\playentityhelpstruct.h
xdata$x	ENDS
;	COMDAT ??0CharBuffJumpInfo@@QAE@XZ
_TEXT	SEGMENT
tv444 = -20						; size = 4
tv438 = -20						; size = 4
tv434 = -20						; size = 4
$T533927 = -20						; size = 4
$T533847 = -20						; size = 4
_this$ = -16						; size = 4
__$EHRec$ = -12						; size = 12
??0CharBuffJumpInfo@@QAE@XZ PROC			; CharBuffJumpInfo::CharBuffJumpInfo, COMDAT
; _this$ = ecx

; 886  : 	CharBuffJumpInfo()

  00000	6a 08		 push	 8
  00002	b8 00 00 00 00	 mov	 eax, __ehhandler$??0CharBuffJumpInfo@@QAE@XZ
  00007	e8 00 00 00 00	 call	 __EH_prolog3
  0000c	8b f1		 mov	 esi, ecx
  0000e	89 75 f0	 mov	 DWORD PTR _this$[ebp], esi
  00011	ff 15 00 00 00
	00		 call	 DWORD PTR __imp_??0ioHashString@@QAE@XZ
  00017	33 db		 xor	 ebx, ebx
  00019	8d 4e 48	 lea	 ecx, DWORD PTR [esi+72]
  0001c	89 5d fc	 mov	 DWORD PTR __$EHRec$[ebp+8], ebx
  0001f	89 19		 mov	 DWORD PTR [ecx], ebx
  00021	89 59 04	 mov	 DWORD PTR [ecx+4], ebx
  00024	89 59 08	 mov	 DWORD PTR [ecx+8], ebx
  00027	89 5e 58	 mov	 DWORD PTR [esi+88], ebx
  0002a	89 5e 5c	 mov	 DWORD PTR [esi+92], ebx
  0002d	89 5e 60	 mov	 DWORD PTR [esi+96], ebx

; 887  : 	{
; 888  : 		m_BuffJumpType = BJT_NONE;
; 889  : 		m_bEnableRotate = false;
; 890  : 
; 891  : 		m_fBuffJumpPower = 0.0f;

  00030	0f 57 c0	 xorps	 xmm0, xmm0
  00033	c6 45 fc 02	 mov	 BYTE PTR __$EHRec$[ebp+8], 2
  00037	89 5e 10	 mov	 DWORD PTR [esi+16], ebx
  0003a	88 5e 14	 mov	 BYTE PTR [esi+20], bl
  0003d	f3 0f 11 46 18	 movss	 DWORD PTR [esi+24], xmm0

; 892  : 		m_fBuffJumpForce = 0.0f;

  00042	f3 0f 11 46 1c	 movss	 DWORD PTR [esi+28], xmm0

; 893  : 		m_fBuffJumpSpeedRate = 0.0f;

  00047	f3 0f 11 46 20	 movss	 DWORD PTR [esi+32], xmm0

; 894  : 		m_fBuffJumpGravityRate = FLOAT1;

  0004c	b8 01 00 00 00	 mov	 eax, 1
  00051	89 45 ec	 mov	 DWORD PTR tv444[ebp], eax
  00054	db 45 ec	 fild	 DWORD PTR tv444[ebp]
  00057	85 c0		 test	 eax, eax
  00059	79 06		 jns	 SHORT $LN65@CharBuffJu
  0005b	d8 05 00 00 00
	00		 fadd	 DWORD PTR __real@4f800000
$LN65@CharBuffJu:
  00061	d9 5e 24	 fstp	 DWORD PTR [esi+36]

; 895  : 
; 896  : 		m_fBuffJumpExtraPower = 0.0f;

  00064	f3 0f 11 46 28	 movss	 DWORD PTR [esi+40], xmm0

; 897  : 		m_fBuffJumpExtraForce = 0.0f;

  00069	f3 0f 11 46 2c	 movss	 DWORD PTR [esi+44], xmm0

; 898  : 		m_fBuffJumpExtraGravityRate = FLOAT1;

  0006e	b8 01 00 00 00	 mov	 eax, 1
  00073	89 45 ec	 mov	 DWORD PTR tv438[ebp], eax
  00076	db 45 ec	 fild	 DWORD PTR tv438[ebp]
  00079	85 c0		 test	 eax, eax
  0007b	79 06		 jns	 SHORT $LN66@CharBuffJu
  0007d	d8 05 00 00 00
	00		 fadd	 DWORD PTR __real@4f800000
$LN66@CharBuffJu:
  00083	d9 5e 30	 fstp	 DWORD PTR [esi+48]

; 899  : 
; 900  : 		m_fBuffJumpAniRate = FLOAT1;

  00086	b8 01 00 00 00	 mov	 eax, 1
  0008b	89 45 ec	 mov	 DWORD PTR tv434[ebp], eax
  0008e	db 45 ec	 fild	 DWORD PTR tv434[ebp]
  00091	85 c0		 test	 eax, eax
  00093	79 06		 jns	 SHORT $LN67@CharBuffJu
  00095	d8 05 00 00 00
	00		 fadd	 DWORD PTR __real@4f800000
$LN67@CharBuffJu:
  0009b	d9 5e 34	 fstp	 DWORD PTR [esi+52]

; 901  : 		m_fBuffJumpHeight = 0.0f;

  0009e	f3 0f 11 46 40	 movss	 DWORD PTR [esi+64], xmm0

; 902  : 
; 903  : 		m_fBuffJumpLandingRate = 0.0f;

  000a3	f3 0f 11 46 38	 movss	 DWORD PTR [esi+56], xmm0

; 904  : 
; 905  : 		m_iBuffJumpMaxCnt = 0;

  000a8	89 5e 3c	 mov	 DWORD PTR [esi+60], ebx

; 906  : 		m_dwBuffJumpEnableTime = 0;

  000ab	89 5e 44	 mov	 DWORD PTR [esi+68], ebx

; 907  : 
; 908  : 		m_vBuffJumpAnimationList.clear();

  000ae	8b 41 04	 mov	 eax, DWORD PTR [ecx+4]
  000b1	8b 11		 mov	 edx, DWORD PTR [ecx]
  000b3	50		 push	 eax
  000b4	52		 push	 edx
  000b5	8d 45 ec	 lea	 eax, DWORD PTR $T533847[ebp]
  000b8	50		 push	 eax
  000b9	e8 00 00 00 00	 call	 ?erase@?$vector@VioHashString@@V?$allocator@VioHashString@@@std@@@std@@QAE?AV?$_Vector_iterator@V?$_Vector_val@VioHashString@@V?$allocator@VioHashString@@@std@@@std@@@2@V?$_Vector_const_iterator@V?$_Vector_val@VioHashString@@V?$allocator@VioHashString@@@std@@@std@@@2@0@Z ; std::vector<ioHashString,std::allocator<ioHashString> >::erase

; 909  : 		m_vBuffJumpExtraAnimationList.clear();

  000be	8b 46 5c	 mov	 eax, DWORD PTR [esi+92]
  000c1	8b 4e 58	 mov	 ecx, DWORD PTR [esi+88]
  000c4	50		 push	 eax
  000c5	51		 push	 ecx
  000c6	8d 45 ec	 lea	 eax, DWORD PTR $T533927[ebp]
  000c9	50		 push	 eax
  000ca	8d 4e 58	 lea	 ecx, DWORD PTR [esi+88]
  000cd	e8 00 00 00 00	 call	 ?erase@?$vector@VioHashString@@V?$allocator@VioHashString@@@std@@@std@@QAE?AV?$_Vector_iterator@V?$_Vector_val@VioHashString@@V?$allocator@VioHashString@@@std@@@std@@@2@V?$_Vector_const_iterator@V?$_Vector_val@VioHashString@@V?$allocator@VioHashString@@@std@@@std@@@2@0@Z ; std::vector<ioHashString,std::allocator<ioHashString> >::erase

; 910  : 
; 911  : 		m_bEnableMoveRotate = false;
; 912  : 		m_dwMoveRotateSpeed = 0;
; 913  : 
; 914  : 		m_fBuffJumpMaxHeight = 0.0f;

  000d2	0f 57 c0	 xorps	 xmm0, xmm0
  000d5	f3 0f 11 46 70	 movss	 DWORD PTR [esi+112], xmm0

; 915  : 		m_fBuffJumpEnableGauge = 1.0f;

  000da	f3 0f 10 05 00
	00 00 00	 movss	 xmm0, DWORD PTR __real@3f800000
  000e2	88 5e 68	 mov	 BYTE PTR [esi+104], bl
  000e5	89 5e 6c	 mov	 DWORD PTR [esi+108], ebx
  000e8	f3 0f 11 46 74	 movss	 DWORD PTR [esi+116], xmm0

; 916  : 	}

  000ed	8b c6		 mov	 eax, esi
  000ef	e8 00 00 00 00	 call	 __EH_epilog3
  000f4	c3		 ret	 0
_TEXT	ENDS
;	COMDAT text$x
text$x	SEGMENT
__unwindfunclet$??0CharBuffJumpInfo@@QAE@XZ$0:
  00000	8b 4d f0	 mov	 ecx, DWORD PTR _this$[ebp]
  00003	ff 25 00 00 00
	00		 jmp	 DWORD PTR __imp_??1ioHashString@@QAE@XZ
__unwindfunclet$??0CharBuffJumpInfo@@QAE@XZ$1:
  00009	8b 4d f0	 mov	 ecx, DWORD PTR _this$[ebp]
  0000c	83 c1 48	 add	 ecx, 72			; 00000048H
  0000f	e9 00 00 00 00	 jmp	 ??1?$vector@VioHashString@@V?$allocator@VioHashString@@@std@@@std@@QAE@XZ ; std::vector<ioHashString,std::allocator<ioHashString> >::~vector<ioHashString,std::allocator<ioHashString> >
__unwindfunclet$??0CharBuffJumpInfo@@QAE@XZ$2:
  00014	8b 4d f0	 mov	 ecx, DWORD PTR _this$[ebp]
  00017	83 c1 58	 add	 ecx, 88			; 00000058H
  0001a	e9 00 00 00 00	 jmp	 ??1?$vector@VioHashString@@V?$allocator@VioHashString@@@std@@@std@@QAE@XZ ; std::vector<ioHashString,std::allocator<ioHashString> >::~vector<ioHashString,std::allocator<ioHashString> >
__ehhandler$??0CharBuffJumpInfo@@QAE@XZ:
  0001f	8b 54 24 08	 mov	 edx, DWORD PTR [esp+8]
  00023	8d 42 0c	 lea	 eax, DWORD PTR [edx+12]
  00026	8b 4a e8	 mov	 ecx, DWORD PTR [edx-24]
  00029	33 c8		 xor	 ecx, eax
  0002b	e8 00 00 00 00	 call	 @__security_check_cookie@4
  00030	b8 00 00 00 00	 mov	 eax, OFFSET __ehfuncinfo$??0CharBuffJumpInfo@@QAE@XZ
  00035	e9 00 00 00 00	 jmp	 ___CxxFrameHandler3
text$x	ENDS
??0CharBuffJumpInfo@@QAE@XZ ENDP			; CharBuffJumpInfo::CharBuffJumpInfo
; Function compile flags: /Ogsp
;	COMDAT ??_GioMultiFlyJumpBuff@@UAEPAXI@Z
_TEXT	SEGMENT
___flags$ = 8						; size = 4
??_GioMultiFlyJumpBuff@@UAEPAXI@Z PROC			; ioMultiFlyJumpBuff::`scalar deleting destructor', COMDAT
; _this$ = ecx
  00000	55		 push	 ebp
  00001	8b ec		 mov	 ebp, esp
  00003	56		 push	 esi
  00004	8b f1		 mov	 esi, ecx
  00006	e8 00 00 00 00	 call	 ??1ioMultiFlyJumpBuff@@UAE@XZ ; ioMultiFlyJumpBuff::~ioMultiFlyJumpBuff
  0000b	f6 45 08 01	 test	 BYTE PTR ___flags$[ebp], 1
  0000f	74 07		 je	 SHORT $LN1@scalar@5
  00011	56		 push	 esi
  00012	e8 00 00 00 00	 call	 ??3@YAXPAX@Z		; operator delete
  00017	59		 pop	 ecx
$LN1@scalar@5:
  00018	8b c6		 mov	 eax, esi
  0001a	5e		 pop	 esi
  0001b	5d		 pop	 ebp
  0001c	c2 04 00	 ret	 4
??_GioMultiFlyJumpBuff@@UAEPAXI@Z ENDP			; ioMultiFlyJumpBuff::`scalar deleting destructor'
_TEXT	ENDS
EXTRN	?SetBuffMultiFlyJumpValue@ioBaseChar@@QAEXABUCharBuffJumpInfo@@@Z:PROC ; ioBaseChar::SetBuffMultiFlyJumpValue
EXTRN	?StartBuff@ioBuff@@UAEXPAVioBaseChar@@@Z:PROC	; ioBuff::StartBuff
;	COMDAT xdata$x
; File d:\lost saga for developer\youtube\tutorial\source\src\lsclient\encryptvalue.h
xdata$x	SEGMENT
__unwindtable$?StartBuff@ioMultiFlyJumpBuff@@UAEXPAVioBaseChar@@@Z DD 0ffffffffH
	DD	FLAT:__unwindfunclet$?StartBuff@ioMultiFlyJumpBuff@@UAEXPAVioBaseChar@@@Z$0
__ehfuncinfo$?StartBuff@ioMultiFlyJumpBuff@@UAEXPAVioBaseChar@@@Z DD 019930522H
	DD	01H
	DD	FLAT:__unwindtable$?StartBuff@ioMultiFlyJumpBuff@@UAEXPAVioBaseChar@@@Z
	DD	2 DUP(00H)
	DD	2 DUP(00H)
	DD	00H
	DD	01H
; Function compile flags: /Ogsp
; File d:\lost saga for developer\youtube\tutorial\source\src\lsclient\iomultiflyjumpbuff.cpp
xdata$x	ENDS
;	COMDAT ?StartBuff@ioMultiFlyJumpBuff@@UAEXPAVioBaseChar@@@Z
_TEXT	SEGMENT
_kInfo$ = -140						; size = 120
_value$533973 = -20					; size = 4
_value$533969 = -13					; size = 1
__$EHRec$ = -12						; size = 12
_pOwner$ = 8						; size = 4
?StartBuff@ioMultiFlyJumpBuff@@UAEXPAVioBaseChar@@@Z PROC ; ioMultiFlyJumpBuff::StartBuff, COMDAT
; _this$ = ecx

; 113  : {

  00000	68 80 00 00 00	 push	 128			; 00000080H
  00005	b8 00 00 00 00	 mov	 eax, __ehhandler$?StartBuff@ioMultiFlyJumpBuff@@UAEXPAVioBaseChar@@@Z
  0000a	e8 00 00 00 00	 call	 __EH_prolog3
  0000f	8b f1		 mov	 esi, ecx

; 114  : 	ioBuff::StartBuff( pOwner );

  00011	ff 75 08	 push	 DWORD PTR _pOwner$[ebp]
  00014	e8 00 00 00 00	 call	 ?StartBuff@ioBuff@@UAEXPAVioBaseChar@@@Z ; ioBuff::StartBuff

; 115  : 
; 116  : 	CharBuffJumpInfo kInfo;

  00019	8d 8d 74 ff ff
	ff		 lea	 ecx, DWORD PTR _kInfo$[ebp]
  0001f	e8 00 00 00 00	 call	 ??0CharBuffJumpInfo@@QAE@XZ ; CharBuffJumpInfo::CharBuffJumpInfo
  00024	83 65 fc 00	 and	 DWORD PTR __$EHRec$[ebp+8], 0

; 117  : 	kInfo.m_BuffJumpType = BJT_MULT_FLY;
; 118  : 	kInfo.m_Name = GetName();

  00028	8d 86 34 02 00
	00		 lea	 eax, DWORD PTR [esi+564]
  0002e	50		 push	 eax
  0002f	8d 8d 74 ff ff
	ff		 lea	 ecx, DWORD PTR _kInfo$[ebp]
  00035	c7 45 84 03 00
	00 00		 mov	 DWORD PTR _kInfo$[ebp+16], 3
  0003c	ff 15 00 00 00
	00		 call	 DWORD PTR __imp_??4ioHashString@@QAEAAV0@ABV0@@Z

; 119  : 	kInfo.m_bEnableRotate = m_bEnableRotate;
; 120  : 	kInfo.m_bContinue = m_bContinueJump;
; 121  : 	kInfo.m_fBuffJumpPower = m_fJumpPower;

  00042	f3 0f 10 86 94
	09 00 00	 movss	 xmm0, DWORD PTR [esi+2452]
  0004a	8a 86 90 09 00
	00		 mov	 al, BYTE PTR [esi+2448]
  00050	f3 0f 11 45 8c	 movss	 DWORD PTR _kInfo$[ebp+24], xmm0

; 122  : 	kInfo.m_fBuffJumpForce = m_fJumpForce;

  00055	f3 0f 10 86 98
	09 00 00	 movss	 xmm0, DWORD PTR [esi+2456]
  0005d	f3 0f 11 45 90	 movss	 DWORD PTR _kInfo$[ebp+28], xmm0

; 123  : 	kInfo.m_fBuffJumpSpeedRate = m_fJumpSpeedRate;

  00062	f3 0f 10 86 9c
	09 00 00	 movss	 xmm0, DWORD PTR [esi+2460]
  0006a	f3 0f 11 45 94	 movss	 DWORD PTR _kInfo$[ebp+32], xmm0

; 124  : 	kInfo.m_fBuffJumpGravityRate = m_fGravityRate;

  0006f	f3 0f 10 86 a0
	09 00 00	 movss	 xmm0, DWORD PTR [esi+2464]
  00077	f3 0f 11 45 98	 movss	 DWORD PTR _kInfo$[ebp+36], xmm0

; 125  : 
; 126  : 	kInfo.m_fBuffJumpExtraPower = m_fJumpExtraPower;

  0007c	f3 0f 10 86 a4
	09 00 00	 movss	 xmm0, DWORD PTR [esi+2468]
  00084	88 45 88	 mov	 BYTE PTR _kInfo$[ebp+20], al
  00087	8a 86 91 09 00
	00		 mov	 al, BYTE PTR [esi+2449]
  0008d	f3 0f 11 45 9c	 movss	 DWORD PTR _kInfo$[ebp+40], xmm0

; 127  : 	kInfo.m_fBuffJumpExtraForce = m_fJumpExtraForce;

  00092	f3 0f 10 86 a8
	09 00 00	 movss	 xmm0, DWORD PTR [esi+2472]
  0009a	f3 0f 11 45 a0	 movss	 DWORD PTR _kInfo$[ebp+44], xmm0

; 128  : 	kInfo.m_fBuffJumpExtraGravityRate = m_fExtraGravityRate;

  0009f	f3 0f 10 86 ac
	09 00 00	 movss	 xmm0, DWORD PTR [esi+2476]

; 129  : 
; 130  : 	kInfo.m_fBuffJumpHeight = m_fEnableHeight;
; 131  : 	kInfo.m_iBuffJumpMaxCnt = max( 2, m_iMaxJumpCnt);

  000a7	6a 02		 push	 2
  000a9	88 45 89	 mov	 BYTE PTR _kInfo$[ebp+21], al
  000ac	8b 86 b8 09 00
	00		 mov	 eax, DWORD PTR [esi+2488]
  000b2	59		 pop	 ecx
  000b3	f3 0f 11 45 a4	 movss	 DWORD PTR _kInfo$[ebp+48], xmm0
  000b8	f3 0f 10 86 b0
	09 00 00	 movss	 xmm0, DWORD PTR [esi+2480]
  000c0	f3 0f 11 45 b4	 movss	 DWORD PTR _kInfo$[ebp+64], xmm0
  000c5	89 4d b0	 mov	 DWORD PTR _kInfo$[ebp+60], ecx
  000c8	3b c1		 cmp	 eax, ecx
  000ca	7c 03		 jl	 SHORT $LN4@StartBuff
  000cc	89 45 b0	 mov	 DWORD PTR _kInfo$[ebp+60], eax
$LN4@StartBuff:

; 132  : 
; 133  : 	kInfo.m_dwBuffJumpEnableTime = m_dwJumpEnableTime;

  000cf	8b 86 8c 09 00
	00		 mov	 eax, DWORD PTR [esi+2444]

; 134  : 
; 135  : 	kInfo.m_fBuffJumpAniRate = m_fAniRate;

  000d5	f3 0f 10 86 b4
	09 00 00	 movss	 xmm0, DWORD PTR [esi+2484]
  000dd	89 45 b8	 mov	 DWORD PTR _kInfo$[ebp+68], eax

; 136  : 	kInfo.m_vBuffJumpAnimationList = m_vJumpAnimationList;

  000e0	8d 86 6c 09 00
	00		 lea	 eax, DWORD PTR [esi+2412]
  000e6	50		 push	 eax
  000e7	8d 4d bc	 lea	 ecx, DWORD PTR _kInfo$[ebp+72]
  000ea	f3 0f 11 45 a8	 movss	 DWORD PTR _kInfo$[ebp+52], xmm0
  000ef	e8 00 00 00 00	 call	 ??4?$vector@VioHashString@@V?$allocator@VioHashString@@@std@@@std@@QAEAAV01@ABV01@@Z ; std::vector<ioHashString,std::allocator<ioHashString> >::operator=

; 137  : 	kInfo.m_vBuffJumpExtraAnimationList = m_vJumpExtraAnimationList;

  000f4	8d 86 7c 09 00
	00		 lea	 eax, DWORD PTR [esi+2428]
  000fa	50		 push	 eax
  000fb	8d 4d cc	 lea	 ecx, DWORD PTR _kInfo$[ebp+88]
  000fe	e8 00 00 00 00	 call	 ??4?$vector@VioHashString@@V?$allocator@VioHashString@@@std@@@std@@QAEAAV01@ABV01@@Z ; std::vector<ioHashString,std::allocator<ioHashString> >::operator=

; 138  : 
; 139  : 	kInfo.m_bEnableMoveRotate = m_bEnableMoveRotate;

  00103	8d 45 f3	 lea	 eax, DWORD PTR _value$533969[ebp]
  00106	50		 push	 eax
  00107	8d 8e c0 09 00
	00		 lea	 ecx, DWORD PTR [esi+2496]
  0010d	e8 00 00 00 00	 call	 ?DecryptValueToPool@?$CEncrypt@_N@@QAEXPA_N@Z ; CEncrypt<bool>::DecryptValueToPool
  00112	8a 45 f3	 mov	 al, BYTE PTR _value$533969[ebp]
  00115	88 45 dc	 mov	 BYTE PTR _kInfo$[ebp+104], al

; 140  : 	kInfo.m_dwMoveRotateSpeed = m_dwMoveRotateSpeed;

  00118	8d 45 ec	 lea	 eax, DWORD PTR _value$533973[ebp]
  0011b	50		 push	 eax
  0011c	8d 8e f0 09 00
	00		 lea	 ecx, DWORD PTR [esi+2544]
  00122	e8 00 00 00 00	 call	 ?DecryptValueToPool@?$CEncrypt@K@@QAEXPAK@Z ; CEncrypt<unsigned long>::DecryptValueToPool
  00127	8b 45 ec	 mov	 eax, DWORD PTR _value$533973[ebp]

; 141  : 
; 142  : 	pOwner->SetBuffMultiFlyJumpValue( kInfo );

  0012a	8b 4d 08	 mov	 ecx, DWORD PTR _pOwner$[ebp]
  0012d	89 45 e0	 mov	 DWORD PTR _kInfo$[ebp+108], eax
  00130	8d 85 74 ff ff
	ff		 lea	 eax, DWORD PTR _kInfo$[ebp]
  00136	50		 push	 eax
  00137	e8 00 00 00 00	 call	 ?SetBuffMultiFlyJumpValue@ioBaseChar@@QAEXABUCharBuffJumpInfo@@@Z ; ioBaseChar::SetBuffMultiFlyJumpValue

; 143  : 
; 144  : 	m_bReduceGauge = false;
; 145  : 	m_bHideMesh = true;
; 146  : }

  0013c	83 4d fc ff	 or	 DWORD PTR __$EHRec$[ebp+8], -1
  00140	8d 8d 74 ff ff
	ff		 lea	 ecx, DWORD PTR _kInfo$[ebp]
  00146	c6 86 20 0a 00
	00 00		 mov	 BYTE PTR [esi+2592], 0
  0014d	c6 86 54 0a 00
	00 01		 mov	 BYTE PTR [esi+2644], 1
  00154	e8 00 00 00 00	 call	 ??1CharBuffJumpInfo@@QAE@XZ
  00159	e8 00 00 00 00	 call	 __EH_epilog3
  0015e	c2 04 00	 ret	 4
_TEXT	ENDS
;	COMDAT text$x
text$x	SEGMENT
__unwindfunclet$?StartBuff@ioMultiFlyJumpBuff@@UAEXPAVioBaseChar@@@Z$0:
  00000	8d 8d 74 ff ff
	ff		 lea	 ecx, DWORD PTR _kInfo$[ebp]
  00006	e9 00 00 00 00	 jmp	 ??1CharBuffJumpInfo@@QAE@XZ
__ehhandler$?StartBuff@ioMultiFlyJumpBuff@@UAEXPAVioBaseChar@@@Z:
  0000b	8b 54 24 08	 mov	 edx, DWORD PTR [esp+8]
  0000f	8d 42 0c	 lea	 eax, DWORD PTR [edx+12]
  00012	8b 8a 70 ff ff
	ff		 mov	 ecx, DWORD PTR [edx-144]
  00018	33 c8		 xor	 ecx, eax
  0001a	e8 00 00 00 00	 call	 @__security_check_cookie@4
  0001f	b8 00 00 00 00	 mov	 eax, OFFSET __ehfuncinfo$?StartBuff@ioMultiFlyJumpBuff@@UAEXPAVioBaseChar@@@Z
  00024	e9 00 00 00 00	 jmp	 ___CxxFrameHandler3
text$x	ENDS
?StartBuff@ioMultiFlyJumpBuff@@UAEXPAVioBaseChar@@@Z ENDP ; ioMultiFlyJumpBuff::StartBuff
EXTRN	?ApplyStartBuff@ioBuff@@UAE_NPAVioBaseChar@@KK@Z:PROC ; ioBuff::ApplyStartBuff
;	COMDAT xdata$x
; File d:\lost saga for developer\youtube\tutorial\source\src\lsclient\encryptvalue.h
xdata$x	SEGMENT
__unwindtable$?ApplyStartBuff@ioMultiFlyJumpBuff@@UAE_NPAVioBaseChar@@KK@Z DD 0ffffffffH
	DD	FLAT:__unwindfunclet$?ApplyStartBuff@ioMultiFlyJumpBuff@@UAE_NPAVioBaseChar@@KK@Z$0
__ehfuncinfo$?ApplyStartBuff@ioMultiFlyJumpBuff@@UAE_NPAVioBaseChar@@KK@Z DD 019930522H
	DD	01H
	DD	FLAT:__unwindtable$?ApplyStartBuff@ioMultiFlyJumpBuff@@UAE_NPAVioBaseChar@@KK@Z
	DD	2 DUP(00H)
	DD	2 DUP(00H)
	DD	00H
	DD	01H
; Function compile flags: /Ogsp
; File d:\lost saga for developer\youtube\tutorial\source\src\lsclient\iomultiflyjumpbuff.cpp
xdata$x	ENDS
;	COMDAT ?ApplyStartBuff@ioMultiFlyJumpBuff@@UAE_NPAVioBaseChar@@KK@Z
_TEXT	SEGMENT
_kInfo$ = -132						; size = 120
__$EHRec$ = -12						; size = 12
_pOwner$ = 8						; size = 4
_dwGlobalTime$ = 12					; size = 4
_value$533996 = 16					; size = 4
_dwGapTime$ = 16					; size = 4
_value$533992 = 19					; size = 1
?ApplyStartBuff@ioMultiFlyJumpBuff@@UAE_NPAVioBaseChar@@KK@Z PROC ; ioMultiFlyJumpBuff::ApplyStartBuff, COMDAT
; _this$ = ecx

; 149  : {

  00000	6a 78		 push	 120			; 00000078H
  00002	b8 00 00 00 00	 mov	 eax, __ehhandler$?ApplyStartBuff@ioMultiFlyJumpBuff@@UAE_NPAVioBaseChar@@KK@Z
  00007	e8 00 00 00 00	 call	 __EH_prolog3
  0000c	8b f1		 mov	 esi, ecx

; 150  : 	if( !ioBuff::ApplyStartBuff( pOwner, dwGlobalTime, dwGapTime ) )

  0000e	ff 75 10	 push	 DWORD PTR _dwGapTime$[ebp]
  00011	ff 75 0c	 push	 DWORD PTR _dwGlobalTime$[ebp]
  00014	ff 75 08	 push	 DWORD PTR _pOwner$[ebp]
  00017	e8 00 00 00 00	 call	 ?ApplyStartBuff@ioBuff@@UAE_NPAVioBaseChar@@KK@Z ; ioBuff::ApplyStartBuff
  0001c	84 c0		 test	 al, al
  0001e	0f 84 42 01 00
	00		 je	 $LN2@ApplyStart
$LN1@ApplyStart:

; 151  : 	{
; 152  : 		return false;
; 153  : 	}
; 154  : 
; 155  : 	CharBuffJumpInfo kInfo;

  00024	8d 8d 7c ff ff
	ff		 lea	 ecx, DWORD PTR _kInfo$[ebp]
  0002a	e8 00 00 00 00	 call	 ??0CharBuffJumpInfo@@QAE@XZ ; CharBuffJumpInfo::CharBuffJumpInfo
  0002f	83 65 fc 00	 and	 DWORD PTR __$EHRec$[ebp+8], 0

; 156  : 	kInfo.m_BuffJumpType = BJT_MULT_FLY;
; 157  : 	kInfo.m_Name = GetName();

  00033	8d 86 34 02 00
	00		 lea	 eax, DWORD PTR [esi+564]
  00039	50		 push	 eax
  0003a	8d 8d 7c ff ff
	ff		 lea	 ecx, DWORD PTR _kInfo$[ebp]
  00040	c7 45 8c 03 00
	00 00		 mov	 DWORD PTR _kInfo$[ebp+16], 3
  00047	ff 15 00 00 00
	00		 call	 DWORD PTR __imp_??4ioHashString@@QAEAAV0@ABV0@@Z

; 158  : 	kInfo.m_bEnableRotate = m_bEnableRotate;
; 159  : 	kInfo.m_bContinue = m_bContinueJump;
; 160  : 	kInfo.m_fBuffJumpPower = m_fJumpPower;

  0004d	f3 0f 10 86 94
	09 00 00	 movss	 xmm0, DWORD PTR [esi+2452]
  00055	8a 86 90 09 00
	00		 mov	 al, BYTE PTR [esi+2448]
  0005b	f3 0f 11 45 94	 movss	 DWORD PTR _kInfo$[ebp+24], xmm0

; 161  : 	kInfo.m_fBuffJumpForce = m_fJumpForce;

  00060	f3 0f 10 86 98
	09 00 00	 movss	 xmm0, DWORD PTR [esi+2456]
  00068	f3 0f 11 45 98	 movss	 DWORD PTR _kInfo$[ebp+28], xmm0

; 162  : 	kInfo.m_fBuffJumpSpeedRate = m_fJumpSpeedRate;

  0006d	f3 0f 10 86 9c
	09 00 00	 movss	 xmm0, DWORD PTR [esi+2460]
  00075	f3 0f 11 45 9c	 movss	 DWORD PTR _kInfo$[ebp+32], xmm0

; 163  : 	kInfo.m_fBuffJumpGravityRate = m_fGravityRate;

  0007a	f3 0f 10 86 a0
	09 00 00	 movss	 xmm0, DWORD PTR [esi+2464]
  00082	f3 0f 11 45 a0	 movss	 DWORD PTR _kInfo$[ebp+36], xmm0

; 164  : 
; 165  : 	kInfo.m_fBuffJumpExtraPower = m_fJumpExtraPower;

  00087	f3 0f 10 86 a4
	09 00 00	 movss	 xmm0, DWORD PTR [esi+2468]
  0008f	88 45 90	 mov	 BYTE PTR _kInfo$[ebp+20], al
  00092	8a 86 91 09 00
	00		 mov	 al, BYTE PTR [esi+2449]
  00098	f3 0f 11 45 a4	 movss	 DWORD PTR _kInfo$[ebp+40], xmm0

; 166  : 	kInfo.m_fBuffJumpExtraForce = m_fJumpExtraForce;

  0009d	f3 0f 10 86 a8
	09 00 00	 movss	 xmm0, DWORD PTR [esi+2472]
  000a5	f3 0f 11 45 a8	 movss	 DWORD PTR _kInfo$[ebp+44], xmm0

; 167  : 	kInfo.m_fBuffJumpExtraGravityRate = m_fExtraGravityRate;

  000aa	f3 0f 10 86 ac
	09 00 00	 movss	 xmm0, DWORD PTR [esi+2476]

; 168  : 
; 169  : 	kInfo.m_fBuffJumpHeight = m_fEnableHeight;
; 170  : 	kInfo.m_iBuffJumpMaxCnt = max( 2, m_iMaxJumpCnt);

  000b2	6a 02		 push	 2
  000b4	88 45 91	 mov	 BYTE PTR _kInfo$[ebp+21], al
  000b7	8b 86 b8 09 00
	00		 mov	 eax, DWORD PTR [esi+2488]
  000bd	59		 pop	 ecx
  000be	f3 0f 11 45 ac	 movss	 DWORD PTR _kInfo$[ebp+48], xmm0
  000c3	f3 0f 10 86 b0
	09 00 00	 movss	 xmm0, DWORD PTR [esi+2480]
  000cb	f3 0f 11 45 bc	 movss	 DWORD PTR _kInfo$[ebp+64], xmm0
  000d0	89 4d b8	 mov	 DWORD PTR _kInfo$[ebp+60], ecx
  000d3	3b c1		 cmp	 eax, ecx
  000d5	7c 03		 jl	 SHORT $LN5@ApplyStart
  000d7	89 45 b8	 mov	 DWORD PTR _kInfo$[ebp+60], eax
$LN5@ApplyStart:

; 171  : 
; 172  : 	kInfo.m_dwBuffJumpEnableTime = m_dwJumpEnableTime;

  000da	8b 86 8c 09 00
	00		 mov	 eax, DWORD PTR [esi+2444]

; 173  : 
; 174  : 	kInfo.m_fBuffJumpAniRate = m_fAniRate;

  000e0	f3 0f 10 86 b4
	09 00 00	 movss	 xmm0, DWORD PTR [esi+2484]
  000e8	89 45 c0	 mov	 DWORD PTR _kInfo$[ebp+68], eax

; 175  : 	kInfo.m_vBuffJumpAnimationList = m_vJumpAnimationList;

  000eb	8d 86 6c 09 00
	00		 lea	 eax, DWORD PTR [esi+2412]
  000f1	50		 push	 eax
  000f2	8d 4d c4	 lea	 ecx, DWORD PTR _kInfo$[ebp+72]
  000f5	f3 0f 11 45 b0	 movss	 DWORD PTR _kInfo$[ebp+52], xmm0
  000fa	e8 00 00 00 00	 call	 ??4?$vector@VioHashString@@V?$allocator@VioHashString@@@std@@@std@@QAEAAV01@ABV01@@Z ; std::vector<ioHashString,std::allocator<ioHashString> >::operator=

; 176  : 	kInfo.m_vBuffJumpExtraAnimationList = m_vJumpExtraAnimationList;

  000ff	8d 86 7c 09 00
	00		 lea	 eax, DWORD PTR [esi+2428]
  00105	50		 push	 eax
  00106	8d 4d d4	 lea	 ecx, DWORD PTR _kInfo$[ebp+88]
  00109	e8 00 00 00 00	 call	 ??4?$vector@VioHashString@@V?$allocator@VioHashString@@@std@@@std@@QAEAAV01@ABV01@@Z ; std::vector<ioHashString,std::allocator<ioHashString> >::operator=

; 177  : 
; 178  : 	kInfo.m_bEnableMoveRotate = m_bEnableMoveRotate;

  0010e	8d 45 13	 lea	 eax, DWORD PTR _value$533992[ebp]
  00111	50		 push	 eax
  00112	8d 8e c0 09 00
	00		 lea	 ecx, DWORD PTR [esi+2496]
  00118	e8 00 00 00 00	 call	 ?DecryptValueToPool@?$CEncrypt@_N@@QAEXPA_N@Z ; CEncrypt<bool>::DecryptValueToPool
  0011d	8a 45 13	 mov	 al, BYTE PTR _value$533992[ebp]
  00120	88 45 e4	 mov	 BYTE PTR _kInfo$[ebp+104], al

; 179  : 	kInfo.m_dwMoveRotateSpeed = m_dwMoveRotateSpeed;

  00123	8d 45 10	 lea	 eax, DWORD PTR _value$533996[ebp]
  00126	50		 push	 eax
  00127	8d 8e f0 09 00
	00		 lea	 ecx, DWORD PTR [esi+2544]
  0012d	e8 00 00 00 00	 call	 ?DecryptValueToPool@?$CEncrypt@K@@QAEXPAK@Z ; CEncrypt<unsigned long>::DecryptValueToPool
  00132	8b 45 10	 mov	 eax, DWORD PTR _value$533996[ebp]

; 180  : 
; 181  : 	pOwner->SetBuffMultiFlyJumpValue( kInfo );

  00135	8b 4d 08	 mov	 ecx, DWORD PTR _pOwner$[ebp]
  00138	89 45 e8	 mov	 DWORD PTR _kInfo$[ebp+108], eax
  0013b	8d 85 7c ff ff
	ff		 lea	 eax, DWORD PTR _kInfo$[ebp]
  00141	50		 push	 eax
  00142	e8 00 00 00 00	 call	 ?SetBuffMultiFlyJumpValue@ioBaseChar@@QAEXABUCharBuffJumpInfo@@@Z ; ioBaseChar::SetBuffMultiFlyJumpValue

; 182  : 
; 183  : 	m_bReduceGauge = false;
; 184  : 	m_bHideMesh = true;
; 185  : 	return true;

  00147	83 4d fc ff	 or	 DWORD PTR __$EHRec$[ebp+8], -1
  0014b	8d 8d 7c ff ff
	ff		 lea	 ecx, DWORD PTR _kInfo$[ebp]
  00151	c6 86 20 0a 00
	00 00		 mov	 BYTE PTR [esi+2592], 0
  00158	c6 86 54 0a 00
	00 01		 mov	 BYTE PTR [esi+2644], 1
  0015f	e8 00 00 00 00	 call	 ??1CharBuffJumpInfo@@QAE@XZ
  00164	b0 01		 mov	 al, 1
$LN2@ApplyStart:

; 186  : }

  00166	e8 00 00 00 00	 call	 __EH_epilog3
  0016b	c2 0c 00	 ret	 12			; 0000000cH
_TEXT	ENDS
;	COMDAT text$x
text$x	SEGMENT
__unwindfunclet$?ApplyStartBuff@ioMultiFlyJumpBuff@@UAE_NPAVioBaseChar@@KK@Z$0:
  00000	8d 8d 7c ff ff
	ff		 lea	 ecx, DWORD PTR _kInfo$[ebp]
  00006	e9 00 00 00 00	 jmp	 ??1CharBuffJumpInfo@@QAE@XZ
__ehhandler$?ApplyStartBuff@ioMultiFlyJumpBuff@@UAE_NPAVioBaseChar@@KK@Z:
  0000b	8b 54 24 08	 mov	 edx, DWORD PTR [esp+8]
  0000f	8d 42 0c	 lea	 eax, DWORD PTR [edx+12]
  00012	8b 8a 78 ff ff
	ff		 mov	 ecx, DWORD PTR [edx-136]
  00018	33 c8		 xor	 ecx, eax
  0001a	e8 00 00 00 00	 call	 @__security_check_cookie@4
  0001f	b8 00 00 00 00	 mov	 eax, OFFSET __ehfuncinfo$?ApplyStartBuff@ioMultiFlyJumpBuff@@UAE_NPAVioBaseChar@@KK@Z
  00024	e9 00 00 00 00	 jmp	 ___CxxFrameHandler3
text$x	ENDS
?ApplyStartBuff@ioMultiFlyJumpBuff@@UAE_NPAVioBaseChar@@KK@Z ENDP ; ioMultiFlyJumpBuff::ApplyStartBuff
END
