; Listing generated by Microsoft (R) Optimizing Compiler Version 16.00.30319.01 

	TITLE	D:\Lost Saga For Developer\Youtube\Tutorial\Source\src\LSClient\ioNamedTitleInfoManager.cpp
	.686P
	.XMM
	include listing.inc
	.model	flat

INCLUDELIB MSVCRT
INCLUDELIB OLDNAMES

PUBLIC	?_EEM_DS@?$deque@UD3DXVECTOR3@@V?$allocator@UD3DXVECTOR3@@@std@@@std@@2HB ; std::deque<D3DXVECTOR3,std::allocator<D3DXVECTOR3> >::_EEM_DS
PUBLIC	?ms_Singleton@?$Singleton@VioNamedTitleInfoManager@@@@1PAVioNamedTitleInfoManager@@A ; Singleton<ioNamedTitleInfoManager>::ms_Singleton
;	COMDAT ?ms_Singleton@?$Singleton@VioNamedTitleInfoManager@@@@1PAVioNamedTitleInfoManager@@A
_BSS	SEGMENT
?ms_Singleton@?$Singleton@VioNamedTitleInfoManager@@@@1PAVioNamedTitleInfoManager@@A DD 01H DUP (?) ; Singleton<ioNamedTitleInfoManager>::ms_Singleton
_BSS	ENDS
;	COMDAT ?_EEM_DS@?$deque@UD3DXVECTOR3@@V?$allocator@UD3DXVECTOR3@@@std@@@std@@2HB
CONST	SEGMENT
?_EEM_DS@?$deque@UD3DXVECTOR3@@V?$allocator@UD3DXVECTOR3@@@std@@@std@@2HB DD 01H ; std::deque<D3DXVECTOR3,std::allocator<D3DXVECTOR3> >::_EEM_DS
CONST	ENDS
PUBLIC	??_7bad_alloc@std@@6B@				; std::bad_alloc::`vftable'
PUBLIC	??0bad_alloc@std@@QAE@PBD@Z			; std::bad_alloc::bad_alloc
PUBLIC	??_R4bad_alloc@std@@6B@				; std::bad_alloc::`RTTI Complete Object Locator'
PUBLIC	??_R0?AVbad_alloc@std@@@8			; std::bad_alloc `RTTI Type Descriptor'
PUBLIC	??_R3bad_alloc@std@@8				; std::bad_alloc::`RTTI Class Hierarchy Descriptor'
PUBLIC	??_R2bad_alloc@std@@8				; std::bad_alloc::`RTTI Base Class Array'
PUBLIC	??_R1A@?0A@EA@bad_alloc@std@@8			; std::bad_alloc::`RTTI Base Class Descriptor at (0,-1,0,64)'
PUBLIC	??_R1A@?0A@EA@exception@std@@8			; std::exception::`RTTI Base Class Descriptor at (0,-1,0,64)'
PUBLIC	??_R0?AVexception@std@@@8			; std::exception `RTTI Type Descriptor'
PUBLIC	??_R3exception@std@@8				; std::exception::`RTTI Class Hierarchy Descriptor'
PUBLIC	??_R2exception@std@@8				; std::exception::`RTTI Base Class Array'
EXTRN	__imp_??0exception@std@@QAE@ABQBD@Z:PROC
EXTRN	??_7type_info@@6B@:QWORD			; type_info::`vftable'
EXTRN	??_Ebad_alloc@std@@UAEPAXI@Z:PROC		; std::bad_alloc::`vector deleting destructor'
EXTRN	?what@exception@std@@UBEPBDXZ:PROC		; std::exception::what
;	COMDAT ??_R2exception@std@@8
; File c:\program files (x86)\microsoft visual studio 10.0\vc\include\exception
rdata$r	SEGMENT
??_R2exception@std@@8 DD FLAT:??_R1A@?0A@EA@exception@std@@8 ; std::exception::`RTTI Base Class Array'
rdata$r	ENDS
;	COMDAT ??_R3exception@std@@8
rdata$r	SEGMENT
??_R3exception@std@@8 DD 00H				; std::exception::`RTTI Class Hierarchy Descriptor'
	DD	00H
	DD	01H
	DD	FLAT:??_R2exception@std@@8
rdata$r	ENDS
;	COMDAT ??_R0?AVexception@std@@@8
_DATA	SEGMENT
??_R0?AVexception@std@@@8 DD FLAT:??_7type_info@@6B@	; std::exception `RTTI Type Descriptor'
	DD	00H
	DB	'.?AVexception@std@@', 00H
_DATA	ENDS
;	COMDAT ??_R1A@?0A@EA@exception@std@@8
rdata$r	SEGMENT
??_R1A@?0A@EA@exception@std@@8 DD FLAT:??_R0?AVexception@std@@@8 ; std::exception::`RTTI Base Class Descriptor at (0,-1,0,64)'
	DD	00H
	DD	00H
	DD	0ffffffffH
	DD	00H
	DD	040H
	DD	FLAT:??_R3exception@std@@8
rdata$r	ENDS
;	COMDAT ??_R1A@?0A@EA@bad_alloc@std@@8
rdata$r	SEGMENT
??_R1A@?0A@EA@bad_alloc@std@@8 DD FLAT:??_R0?AVbad_alloc@std@@@8 ; std::bad_alloc::`RTTI Base Class Descriptor at (0,-1,0,64)'
	DD	01H
	DD	00H
	DD	0ffffffffH
	DD	00H
	DD	040H
	DD	FLAT:??_R3bad_alloc@std@@8
rdata$r	ENDS
;	COMDAT ??_R2bad_alloc@std@@8
rdata$r	SEGMENT
??_R2bad_alloc@std@@8 DD FLAT:??_R1A@?0A@EA@bad_alloc@std@@8 ; std::bad_alloc::`RTTI Base Class Array'
	DD	FLAT:??_R1A@?0A@EA@exception@std@@8
rdata$r	ENDS
;	COMDAT ??_R3bad_alloc@std@@8
rdata$r	SEGMENT
??_R3bad_alloc@std@@8 DD 00H				; std::bad_alloc::`RTTI Class Hierarchy Descriptor'
	DD	00H
	DD	02H
	DD	FLAT:??_R2bad_alloc@std@@8
rdata$r	ENDS
;	COMDAT ??_R0?AVbad_alloc@std@@@8
_DATA	SEGMENT
??_R0?AVbad_alloc@std@@@8 DD FLAT:??_7type_info@@6B@	; std::bad_alloc `RTTI Type Descriptor'
	DD	00H
	DB	'.?AVbad_alloc@std@@', 00H
_DATA	ENDS
;	COMDAT ??_R4bad_alloc@std@@6B@
rdata$r	SEGMENT
??_R4bad_alloc@std@@6B@ DD 00H				; std::bad_alloc::`RTTI Complete Object Locator'
	DD	00H
	DD	00H
	DD	FLAT:??_R0?AVbad_alloc@std@@@8
	DD	FLAT:??_R3bad_alloc@std@@8
rdata$r	ENDS
;	COMDAT ??_7bad_alloc@std@@6B@
CONST	SEGMENT
??_7bad_alloc@std@@6B@ DD FLAT:??_R4bad_alloc@std@@6B@	; std::bad_alloc::`vftable'
	DD	FLAT:??_Ebad_alloc@std@@UAEPAXI@Z
	DD	FLAT:?what@exception@std@@UBEPBDXZ
; Function compile flags: /Ogsp
CONST	ENDS
;	COMDAT ??0bad_alloc@std@@QAE@PBD@Z
_TEXT	SEGMENT
__Message$ = 8						; size = 4
??0bad_alloc@std@@QAE@PBD@Z PROC			; std::bad_alloc::bad_alloc, COMDAT
; _this$ = ecx

; 345  : 		{	// construct from message string

  00000	55		 push	 ebp
  00001	8b ec		 mov	 ebp, esp
  00003	56		 push	 esi
  00004	8d 45 08	 lea	 eax, DWORD PTR __Message$[ebp]
  00007	50		 push	 eax
  00008	8b f1		 mov	 esi, ecx
  0000a	ff 15 00 00 00
	00		 call	 DWORD PTR __imp_??0exception@std@@QAE@ABQBD@Z
  00010	c7 06 00 00 00
	00		 mov	 DWORD PTR [esi], OFFSET ??_7bad_alloc@std@@6B@

; 346  : 		}

  00016	8b c6		 mov	 eax, esi
  00018	5e		 pop	 esi
  00019	5d		 pop	 ebp
  0001a	c2 04 00	 ret	 4
??0bad_alloc@std@@QAE@PBD@Z ENDP			; std::bad_alloc::bad_alloc
_TEXT	ENDS
PUBLIC	??1bad_alloc@std@@UAE@XZ			; std::bad_alloc::~bad_alloc
EXTRN	__imp_??1exception@std@@UAE@XZ:PROC
; Function compile flags: /Ogsp
;	COMDAT ??1bad_alloc@std@@UAE@XZ
_TEXT	SEGMENT
??1bad_alloc@std@@UAE@XZ PROC				; std::bad_alloc::~bad_alloc, COMDAT
; _this$ = ecx

; 354  : 		{	// destroy the object

  00000	c7 01 00 00 00
	00		 mov	 DWORD PTR [ecx], OFFSET ??_7bad_alloc@std@@6B@

; 355  : 		}

  00006	ff 25 00 00 00
	00		 jmp	 DWORD PTR __imp_??1exception@std@@UAE@XZ
??1bad_alloc@std@@UAE@XZ ENDP				; std::bad_alloc::~bad_alloc
_TEXT	ENDS
EXTRN	??3@YAXPAX@Z:PROC				; operator delete
; Function compile flags: /Ogsp
;	COMDAT ??_Gbad_alloc@std@@UAEPAXI@Z
_TEXT	SEGMENT
___flags$ = 8						; size = 4
??_Gbad_alloc@std@@UAEPAXI@Z PROC			; std::bad_alloc::`scalar deleting destructor', COMDAT
; _this$ = ecx
  00000	55		 push	 ebp
  00001	8b ec		 mov	 ebp, esp
  00003	56		 push	 esi
  00004	8b f1		 mov	 esi, ecx
  00006	c7 06 00 00 00
	00		 mov	 DWORD PTR [esi], OFFSET ??_7bad_alloc@std@@6B@
  0000c	ff 15 00 00 00
	00		 call	 DWORD PTR __imp_??1exception@std@@UAE@XZ
  00012	f6 45 08 01	 test	 BYTE PTR ___flags$[ebp], 1
  00016	74 07		 je	 SHORT $LN1@scalar
  00018	56		 push	 esi
  00019	e8 00 00 00 00	 call	 ??3@YAXPAX@Z		; operator delete
  0001e	59		 pop	 ecx
$LN1@scalar:
  0001f	8b c6		 mov	 eax, esi
  00021	5e		 pop	 esi
  00022	5d		 pop	 ebp
  00023	c2 04 00	 ret	 4
??_Gbad_alloc@std@@UAEPAXI@Z ENDP			; std::bad_alloc::`scalar deleting destructor'
_TEXT	ENDS
PUBLIC	??2@YAPAXIPAX@Z					; operator new
; Function compile flags: /Ogsp
; File c:\program files (x86)\microsoft visual studio 10.0\vc\include\new
;	COMDAT ??2@YAPAXIPAX@Z
_TEXT	SEGMENT
___formal$ = 8						; size = 4
__Where$ = 12						; size = 4
??2@YAPAXIPAX@Z PROC					; operator new, COMDAT

; 56   : 	{	// construct array with placement at _Where

  00000	55		 push	 ebp
  00001	8b ec		 mov	 ebp, esp

; 57   : 	return (_Where);

  00003	8b 45 0c	 mov	 eax, DWORD PTR __Where$[ebp]

; 58   : 	}

  00006	5d		 pop	 ebp
  00007	c3		 ret	 0
??2@YAPAXIPAX@Z ENDP					; operator new
_TEXT	ENDS
PUBLIC	??3@YAXPAX0@Z					; operator delete
; Function compile flags: /Ogsp
;	COMDAT ??3@YAXPAX0@Z
_TEXT	SEGMENT
___formal$ = 8						; size = 4
___formal$ = 12						; size = 4
??3@YAXPAX0@Z PROC					; operator delete, COMDAT

; 62   : 	}

  00000	c3		 ret	 0
??3@YAXPAX0@Z ENDP					; operator delete
_TEXT	ENDS
PUBLIC	?_Adopt@_Iterator_base0@std@@QAEXPBX@Z		; std::_Iterator_base0::_Adopt
; Function compile flags: /Ogsp
; File c:\program files (x86)\microsoft visual studio 10.0\vc\include\xutility
;	COMDAT ?_Adopt@_Iterator_base0@std@@QAEXPBX@Z
_TEXT	SEGMENT
___formal$ = 8						; size = 4
?_Adopt@_Iterator_base0@std@@QAEXPBX@Z PROC		; std::_Iterator_base0::_Adopt, COMDAT
; _this$ = ecx

; 49   : 		}

  00000	c2 04 00	 ret	 4
?_Adopt@_Iterator_base0@std@@QAEXPBX@Z ENDP		; std::_Iterator_base0::_Adopt
_TEXT	ENDS
PUBLIC	??1ioINILoader_e@@QAE@XZ			; ioINILoader_e::~ioINILoader_e
EXTRN	__imp_??1ioINILoader@@QAE@XZ:PROC
; Function compile flags: /Ogsp
;	COMDAT ??1ioINILoader_e@@QAE@XZ
_TEXT	SEGMENT
??1ioINILoader_e@@QAE@XZ PROC				; ioINILoader_e::~ioINILoader_e, COMDAT
; _this$ = ecx
  00000	ff 25 00 00 00
	00		 jmp	 DWORD PTR __imp_??1ioINILoader@@QAE@XZ
??1ioINILoader_e@@QAE@XZ ENDP				; ioINILoader_e::~ioINILoader_e
_TEXT	ENDS
PUBLIC	?GetNamedTitleIcon@ioNamedTitleInfoManager@@QAE?AVioHashString@@XZ ; ioNamedTitleInfoManager::GetNamedTitleIcon
EXTRN	__imp_??0ioHashString@@QAE@ABV0@@Z:PROC
; Function compile flags: /Ogsp
; File d:\lost saga for developer\youtube\tutorial\source\src\lsclient\ionamedtitleinfomanager.cpp
;	COMDAT ?GetNamedTitleIcon@ioNamedTitleInfoManager@@QAE?AVioHashString@@XZ
_TEXT	SEGMENT
$T536852 = -4						; size = 4
___$ReturnUdt$ = 8					; size = 4
?GetNamedTitleIcon@ioNamedTitleInfoManager@@QAE?AVioHashString@@XZ PROC ; ioNamedTitleInfoManager::GetNamedTitleIcon, COMDAT
; _this$ = ecx

; 224  : {

  00000	55		 push	 ebp
  00001	8b ec		 mov	 ebp, esp
  00003	51		 push	 ecx
  00004	83 65 fc 00	 and	 DWORD PTR $T536852[ebp], 0

; 225  : 	return m_szNamedTitleIcon;

  00008	83 c1 28	 add	 ecx, 40			; 00000028H
  0000b	51		 push	 ecx
  0000c	8b 4d 08	 mov	 ecx, DWORD PTR ___$ReturnUdt$[ebp]
  0000f	ff 15 00 00 00
	00		 call	 DWORD PTR __imp_??0ioHashString@@QAE@ABV0@@Z
  00015	8b 45 08	 mov	 eax, DWORD PTR ___$ReturnUdt$[ebp]

; 226  : }

  00018	c9		 leave
  00019	c2 04 00	 ret	 4
?GetNamedTitleIcon@ioNamedTitleInfoManager@@QAE?AVioHashString@@XZ ENDP ; ioNamedTitleInfoManager::GetNamedTitleIcon
_TEXT	ENDS
PUBLIC	?GetNamedTitlePremiumIcon@ioNamedTitleInfoManager@@QAE?AVioHashString@@XZ ; ioNamedTitleInfoManager::GetNamedTitlePremiumIcon
; Function compile flags: /Ogsp
;	COMDAT ?GetNamedTitlePremiumIcon@ioNamedTitleInfoManager@@QAE?AVioHashString@@XZ
_TEXT	SEGMENT
$T536857 = -4						; size = 4
___$ReturnUdt$ = 8					; size = 4
?GetNamedTitlePremiumIcon@ioNamedTitleInfoManager@@QAE?AVioHashString@@XZ PROC ; ioNamedTitleInfoManager::GetNamedTitlePremiumIcon, COMDAT
; _this$ = ecx

; 229  : {

  00000	55		 push	 ebp
  00001	8b ec		 mov	 ebp, esp
  00003	51		 push	 ecx
  00004	83 65 fc 00	 and	 DWORD PTR $T536857[ebp], 0

; 230  : 	return m_szNamedTitlePremiumIcon;

  00008	83 c1 38	 add	 ecx, 56			; 00000038H
  0000b	51		 push	 ecx
  0000c	8b 4d 08	 mov	 ecx, DWORD PTR ___$ReturnUdt$[ebp]
  0000f	ff 15 00 00 00
	00		 call	 DWORD PTR __imp_??0ioHashString@@QAE@ABV0@@Z
  00015	8b 45 08	 mov	 eax, DWORD PTR ___$ReturnUdt$[ebp]

; 231  : }

  00018	c9		 leave
  00019	c2 04 00	 ret	 4
?GetNamedTitlePremiumIcon@ioNamedTitleInfoManager@@QAE?AVioHashString@@XZ ENDP ; ioNamedTitleInfoManager::GetNamedTitlePremiumIcon
_TEXT	ENDS
PUBLIC	?GetNamedTitleUiMark@ioNamedTitleInfoManager@@QAE?AVioHashString@@XZ ; ioNamedTitleInfoManager::GetNamedTitleUiMark
; Function compile flags: /Ogsp
;	COMDAT ?GetNamedTitleUiMark@ioNamedTitleInfoManager@@QAE?AVioHashString@@XZ
_TEXT	SEGMENT
$T536862 = -4						; size = 4
___$ReturnUdt$ = 8					; size = 4
?GetNamedTitleUiMark@ioNamedTitleInfoManager@@QAE?AVioHashString@@XZ PROC ; ioNamedTitleInfoManager::GetNamedTitleUiMark, COMDAT
; _this$ = ecx

; 234  : {

  00000	55		 push	 ebp
  00001	8b ec		 mov	 ebp, esp
  00003	51		 push	 ecx
  00004	83 65 fc 00	 and	 DWORD PTR $T536862[ebp], 0

; 235  : 	return m_szNamedTitleUIMark;

  00008	83 c1 48	 add	 ecx, 72			; 00000048H
  0000b	51		 push	 ecx
  0000c	8b 4d 08	 mov	 ecx, DWORD PTR ___$ReturnUdt$[ebp]
  0000f	ff 15 00 00 00
	00		 call	 DWORD PTR __imp_??0ioHashString@@QAE@ABV0@@Z
  00015	8b 45 08	 mov	 eax, DWORD PTR ___$ReturnUdt$[ebp]

; 236  : }

  00018	c9		 leave
  00019	c2 04 00	 ret	 4
?GetNamedTitleUiMark@ioNamedTitleInfoManager@@QAE?AVioHashString@@XZ ENDP ; ioNamedTitleInfoManager::GetNamedTitleUiMark
_TEXT	ENDS
PUBLIC	?GetNamedTitleTextColor@ioNamedTitleInfoManager@@QAEKKHEE@Z ; ioNamedTitleInfoManager::GetNamedTitleTextColor
; Function compile flags: /Ogsp
;	COMDAT ?GetNamedTitleTextColor@ioNamedTitleInfoManager@@QAEKKHEE@Z
_TEXT	SEGMENT
_dwCode$ = 8						; size = 4
_nLevel$ = 12						; size = 4
_byPremium$ = 16					; size = 1
_byEquip$ = 20						; size = 1
?GetNamedTitleTextColor@ioNamedTitleInfoManager@@QAEKKHEE@Z PROC ; ioNamedTitleInfoManager::GetNamedTitleTextColor, COMDAT
; _this$ = ecx

; 239  : {

  00000	55		 push	 ebp
  00001	8b ec		 mov	 ebp, esp

; 240  : 	if ( byEquip )

  00003	80 7d 14 00	 cmp	 BYTE PTR _byEquip$[ebp], 0
  00007	74 05		 je	 SHORT $LN3@GetNamedTi

; 241  : 		return m_dwTextEquipColor;

  00009	8b 41 24	 mov	 eax, DWORD PTR [ecx+36]
  0000c	eb 0e		 jmp	 SHORT $LN4@GetNamedTi
$LN3@GetNamedTi:

; 242  : 	else if ( byPremium )

  0000e	80 7d 10 00	 cmp	 BYTE PTR _byPremium$[ebp], 0
  00012	74 05		 je	 SHORT $LN1@GetNamedTi

; 243  : 		return m_dwTextPremiumColor;

  00014	8b 41 20	 mov	 eax, DWORD PTR [ecx+32]
  00017	eb 03		 jmp	 SHORT $LN4@GetNamedTi
$LN1@GetNamedTi:

; 244  : 
; 245  : 	return m_dwTextBaseColor;

  00019	8b 41 1c	 mov	 eax, DWORD PTR [ecx+28]
$LN4@GetNamedTi:

; 246  : }

  0001c	5d		 pop	 ebp
  0001d	c2 10 00	 ret	 16			; 00000010H
?GetNamedTitleTextColor@ioNamedTitleInfoManager@@QAEKKHEE@Z ENDP ; ioNamedTitleInfoManager::GetNamedTitleTextColor
_TEXT	ENDS
PUBLIC	??_C@_0CN@OIJFFEGC@ioNamedTitleInfoManager?3?3OnNamed@ ; `string'
PUBLIC	??_C@_00CNPNBAHC@?$AA@				; `string'
PUBLIC	??_R0?AVioWnd@@@8				; ioWnd `RTTI Type Descriptor'
PUBLIC	??_R0?AVMyInventoryWnd@@@8			; MyInventoryWnd `RTTI Type Descriptor'
PUBLIC	?OnNamedTitlePremium@ioNamedTitleInfoManager@@QAEXAAVSP2Packet@@@Z ; ioNamedTitleInfoManager::OnNamedTitlePremium
EXTRN	?SetMsgBox@ioSP2GUIManager@@QAEXHPAVioWnd@@PBDH@Z:PROC ; ioSP2GUIManager::SetMsgBox
EXTRN	__imp_?GetString@ioStringManager@@QAEPADPBD0HW4FileNamePrefix@1@@Z:PROC
EXTRN	__imp_?GetSingleton@ioStringManager@@SAAAV1@XZ:PROC
EXTRN	?ShowNamedTitlePremiumResultWnd@MyInventoryWnd@@QAEXKHE@Z:PROC ; MyInventoryWnd::ShowNamedTitlePremiumResultWnd
EXTRN	__imp_?IsShow@ioWnd@@QBE_NXZ:PROC
EXTRN	__imp_?FindWnd@ioGUIManager@@QAEPAVioWnd@@K@Z:PROC
EXTRN	?GetSingleton@ioSP2GUIManager@@SAAAV1@XZ:PROC	; ioSP2GUIManager::GetSingleton
EXTRN	??5SP2Packet@@QAEAAV0@AAK@Z:PROC		; SP2Packet::operator>>
EXTRN	??5SP2Packet@@QAEAAV0@AAH@Z:PROC		; SP2Packet::operator>>
EXTRN	?MouseBusy@TCPNetwork@@YAX_N@Z:PROC		; TCPNetwork::MouseBusy
EXTRN	___RTDynamicCast:PROC
;	COMDAT ??_C@_0CN@OIJFFEGC@ioNamedTitleInfoManager?3?3OnNamed@
CONST	SEGMENT
??_C@_0CN@OIJFFEGC@ioNamedTitleInfoManager?3?3OnNamed@ DB 'ioNamedTitleIn'
	DB	'foManager::OnNamedTitlePremium', 00H	; `string'
CONST	ENDS
;	COMDAT ??_C@_00CNPNBAHC@?$AA@
CONST	SEGMENT
??_C@_00CNPNBAHC@?$AA@ DB 00H				; `string'
CONST	ENDS
;	COMDAT ??_R0?AVioWnd@@@8
_DATA	SEGMENT
??_R0?AVioWnd@@@8 DD FLAT:??_7type_info@@6B@		; ioWnd `RTTI Type Descriptor'
	DD	00H
	DB	'.?AVioWnd@@', 00H
_DATA	ENDS
;	COMDAT ??_R0?AVMyInventoryWnd@@@8
_DATA	SEGMENT
??_R0?AVMyInventoryWnd@@@8 DD FLAT:??_7type_info@@6B@	; MyInventoryWnd `RTTI Type Descriptor'
	DD	00H
	DB	'.?AVMyInventoryWnd@@', 00H
; Function compile flags: /Ogsp
_DATA	ENDS
;	COMDAT ?OnNamedTitlePremium@ioNamedTitleInfoManager@@QAEXAAVSP2Packet@@@Z
_TEXT	SEGMENT
_nResult$ = -4						; size = 4
_dwCode$533710 = 8					; size = 4
_rkPacket$ = 8						; size = 4
?OnNamedTitlePremium@ioNamedTitleInfoManager@@QAEXAAVSP2Packet@@@Z PROC ; ioNamedTitleInfoManager::OnNamedTitlePremium, COMDAT
; _this$ = ecx

; 377  : {

  00000	55		 push	 ebp
  00001	8b ec		 mov	 ebp, esp
  00003	51		 push	 ecx
  00004	56		 push	 esi
  00005	57		 push	 edi

; 378  : 	TCPNetwork::MouseBusy( false );

  00006	33 f6		 xor	 esi, esi
  00008	56		 push	 esi
  00009	e8 00 00 00 00	 call	 ?MouseBusy@TCPNetwork@@YAX_N@Z ; TCPNetwork::MouseBusy
  0000e	59		 pop	 ecx

; 379  : 
; 380  : 	int nResult;
; 381  : 	rkPacket >> nResult;

  0000f	8b 4d 08	 mov	 ecx, DWORD PTR _rkPacket$[ebp]
  00012	8d 45 fc	 lea	 eax, DWORD PTR _nResult$[ebp]
  00015	50		 push	 eax
  00016	e8 00 00 00 00	 call	 ??5SP2Packet@@QAEAAV0@AAH@Z ; SP2Packet::operator>>

; 382  : 
; 383  : 	if ( nResult == SET_PREMIUM_TITLE_SUCCESS )

  0001b	83 7d fc 01	 cmp	 DWORD PTR _nResult$[ebp], 1
  0001f	75 54		 jne	 SHORT $LN3@OnNamedTit

; 384  : 	{
; 385  : 		DWORD dwCode;
; 386  : 		rkPacket >> dwCode;

  00021	8b 4d 08	 mov	 ecx, DWORD PTR _rkPacket$[ebp]
  00024	8d 45 08	 lea	 eax, DWORD PTR _dwCode$533710[ebp]
  00027	50		 push	 eax
  00028	e8 00 00 00 00	 call	 ??5SP2Packet@@QAEAAV0@AAK@Z ; SP2Packet::operator>>

; 387  : 		
; 388  : 		MyInventoryWnd *pInvenWnd = dynamic_cast<MyInventoryWnd*>(g_GUIMgr.FindWnd(MY_INVENTORY_WND));

  0002d	56		 push	 esi
  0002e	68 00 00 00 00	 push	 OFFSET ??_R0?AVMyInventoryWnd@@@8
  00033	68 00 00 00 00	 push	 OFFSET ??_R0?AVioWnd@@@8
  00038	56		 push	 esi
  00039	68 96 17 00 00	 push	 6038			; 00001796H
  0003e	e8 00 00 00 00	 call	 ?GetSingleton@ioSP2GUIManager@@SAAAV1@XZ ; ioSP2GUIManager::GetSingleton
  00043	8b c8		 mov	 ecx, eax
  00045	ff 15 00 00 00
	00		 call	 DWORD PTR __imp_?FindWnd@ioGUIManager@@QAEPAVioWnd@@K@Z
  0004b	50		 push	 eax
  0004c	e8 00 00 00 00	 call	 ___RTDynamicCast
  00051	8b f8		 mov	 edi, eax
  00053	83 c4 14	 add	 esp, 20			; 00000014H

; 389  : 		if( pInvenWnd && pInvenWnd->IsShow() )

  00056	3b fe		 cmp	 edi, esi
  00058	74 48		 je	 SHORT $LN1@OnNamedTit
  0005a	8b cf		 mov	 ecx, edi
  0005c	ff 15 00 00 00
	00		 call	 DWORD PTR __imp_?IsShow@ioWnd@@QBE_NXZ
  00062	84 c0		 test	 al, al
  00064	74 3c		 je	 SHORT $LN1@OnNamedTit

; 390  : 			pInvenWnd->ShowNamedTitlePremiumResultWnd( dwCode, 0, 1 );

  00066	6a 01		 push	 1
  00068	56		 push	 esi
  00069	ff 75 08	 push	 DWORD PTR _dwCode$533710[ebp]
  0006c	8b cf		 mov	 ecx, edi
  0006e	e8 00 00 00 00	 call	 ?ShowNamedTitlePremiumResultWnd@MyInventoryWnd@@QAEXKHE@Z ; MyInventoryWnd::ShowNamedTitlePremiumResultWnd

; 391  : 	}
; 392  : 	else

  00073	eb 2d		 jmp	 SHORT $LN1@OnNamedTit
$LN3@OnNamedTit:

; 393  : 		g_GUIMgr.SetMsgBox( MB_OK, NULL, STR(1), nResult );

  00075	ff 75 fc	 push	 DWORD PTR _nResult$[ebp]
  00078	56		 push	 esi
  00079	6a 01		 push	 1
  0007b	68 00 00 00 00	 push	 OFFSET ??_C@_00CNPNBAHC@?$AA@
  00080	68 00 00 00 00	 push	 OFFSET ??_C@_0CN@OIJFFEGC@ioNamedTitleInfoManager?3?3OnNamed@
  00085	ff 15 00 00 00
	00		 call	 DWORD PTR __imp_?GetSingleton@ioStringManager@@SAAAV1@XZ
  0008b	8b c8		 mov	 ecx, eax
  0008d	ff 15 00 00 00
	00		 call	 DWORD PTR __imp_?GetString@ioStringManager@@QAEPADPBD0HW4FileNamePrefix@1@@Z
  00093	50		 push	 eax
  00094	56		 push	 esi
  00095	56		 push	 esi
  00096	e8 00 00 00 00	 call	 ?GetSingleton@ioSP2GUIManager@@SAAAV1@XZ ; ioSP2GUIManager::GetSingleton
  0009b	8b c8		 mov	 ecx, eax
  0009d	e8 00 00 00 00	 call	 ?SetMsgBox@ioSP2GUIManager@@QAEXHPAVioWnd@@PBDH@Z ; ioSP2GUIManager::SetMsgBox
$LN1@OnNamedTit:
  000a2	5f		 pop	 edi
  000a3	5e		 pop	 esi

; 394  : }

  000a4	c9		 leave
  000a5	c2 04 00	 ret	 4
?OnNamedTitlePremium@ioNamedTitleInfoManager@@QAEXAAVSP2Packet@@@Z ENDP ; ioNamedTitleInfoManager::OnNamedTitlePremium
_TEXT	ENDS
PUBLIC	??_C@_0CM@BMJAANMP@ioNamedTitleInfoManager?3?3OnNamed@ ; `string'
PUBLIC	?OnNamedTitleEtcUse@ioNamedTitleInfoManager@@QAEXAAVSP2Packet@@@Z ; ioNamedTitleInfoManager::OnNamedTitleEtcUse
EXTRN	?ShowNamedTitleResultWnd@MyInventoryWnd@@QAEXKHE@Z:PROC ; MyInventoryWnd::ShowNamedTitleResultWnd
;	COMDAT ??_C@_0CM@BMJAANMP@ioNamedTitleInfoManager?3?3OnNamed@
CONST	SEGMENT
??_C@_0CM@BMJAANMP@ioNamedTitleInfoManager?3?3OnNamed@ DB 'ioNamedTitleIn'
	DB	'foManager::OnNamedTitleEtcUse', 00H		; `string'
; Function compile flags: /Ogsp
CONST	ENDS
;	COMDAT ?OnNamedTitleEtcUse@ioNamedTitleInfoManager@@QAEXAAVSP2Packet@@@Z
_TEXT	SEGMENT
_nResult$ = -4						; size = 4
_dwCode$533723 = 8					; size = 4
_rkPacket$ = 8						; size = 4
?OnNamedTitleEtcUse@ioNamedTitleInfoManager@@QAEXAAVSP2Packet@@@Z PROC ; ioNamedTitleInfoManager::OnNamedTitleEtcUse, COMDAT
; _this$ = ecx

; 397  : {

  00000	55		 push	 ebp
  00001	8b ec		 mov	 ebp, esp
  00003	51		 push	 ecx
  00004	56		 push	 esi
  00005	57		 push	 edi

; 398  : 	TCPNetwork::MouseBusy( false );

  00006	33 f6		 xor	 esi, esi
  00008	56		 push	 esi
  00009	e8 00 00 00 00	 call	 ?MouseBusy@TCPNetwork@@YAX_N@Z ; TCPNetwork::MouseBusy
  0000e	59		 pop	 ecx

; 399  : 	
; 400  : 	int nResult;
; 401  : 	rkPacket >> nResult;

  0000f	8b 4d 08	 mov	 ecx, DWORD PTR _rkPacket$[ebp]
  00012	8d 45 fc	 lea	 eax, DWORD PTR _nResult$[ebp]
  00015	50		 push	 eax
  00016	e8 00 00 00 00	 call	 ??5SP2Packet@@QAEAAV0@AAH@Z ; SP2Packet::operator>>

; 402  : 
; 403  : 	if ( nResult == TITLE_ETC_USE_SUCCESS )

  0001b	83 7d fc 01	 cmp	 DWORD PTR _nResult$[ebp], 1
  0001f	75 53		 jne	 SHORT $LN3@OnNamedTit@2

; 404  : 	{
; 405  : 		DWORD dwCode;
; 406  : 		rkPacket >> dwCode;

  00021	8b 4d 08	 mov	 ecx, DWORD PTR _rkPacket$[ebp]
  00024	8d 45 08	 lea	 eax, DWORD PTR _dwCode$533723[ebp]
  00027	50		 push	 eax
  00028	e8 00 00 00 00	 call	 ??5SP2Packet@@QAEAAV0@AAK@Z ; SP2Packet::operator>>

; 407  : 
; 408  : 		MyInventoryWnd *pInvenWnd = dynamic_cast<MyInventoryWnd*>(g_GUIMgr.FindWnd(MY_INVENTORY_WND));

  0002d	56		 push	 esi
  0002e	68 00 00 00 00	 push	 OFFSET ??_R0?AVMyInventoryWnd@@@8
  00033	68 00 00 00 00	 push	 OFFSET ??_R0?AVioWnd@@@8
  00038	56		 push	 esi
  00039	68 96 17 00 00	 push	 6038			; 00001796H
  0003e	e8 00 00 00 00	 call	 ?GetSingleton@ioSP2GUIManager@@SAAAV1@XZ ; ioSP2GUIManager::GetSingleton
  00043	8b c8		 mov	 ecx, eax
  00045	ff 15 00 00 00
	00		 call	 DWORD PTR __imp_?FindWnd@ioGUIManager@@QAEPAVioWnd@@K@Z
  0004b	50		 push	 eax
  0004c	e8 00 00 00 00	 call	 ___RTDynamicCast
  00051	8b f8		 mov	 edi, eax
  00053	83 c4 14	 add	 esp, 20			; 00000014H

; 409  : 		if( pInvenWnd && pInvenWnd->IsShow() )

  00056	3b fe		 cmp	 edi, esi
  00058	74 47		 je	 SHORT $LN1@OnNamedTit@2
  0005a	8b cf		 mov	 ecx, edi
  0005c	ff 15 00 00 00
	00		 call	 DWORD PTR __imp_?IsShow@ioWnd@@QBE_NXZ
  00062	84 c0		 test	 al, al
  00064	74 3b		 je	 SHORT $LN1@OnNamedTit@2

; 410  : 			pInvenWnd->ShowNamedTitleResultWnd( dwCode, 0, 0 );

  00066	56		 push	 esi
  00067	56		 push	 esi
  00068	ff 75 08	 push	 DWORD PTR _dwCode$533723[ebp]
  0006b	8b cf		 mov	 ecx, edi
  0006d	e8 00 00 00 00	 call	 ?ShowNamedTitleResultWnd@MyInventoryWnd@@QAEXKHE@Z ; MyInventoryWnd::ShowNamedTitleResultWnd

; 411  : 	}
; 412  : 	else

  00072	eb 2d		 jmp	 SHORT $LN1@OnNamedTit@2
$LN3@OnNamedTit@2:

; 413  : 		g_GUIMgr.SetMsgBox( MB_OK, NULL, STR(1), nResult );

  00074	ff 75 fc	 push	 DWORD PTR _nResult$[ebp]
  00077	56		 push	 esi
  00078	6a 01		 push	 1
  0007a	68 00 00 00 00	 push	 OFFSET ??_C@_00CNPNBAHC@?$AA@
  0007f	68 00 00 00 00	 push	 OFFSET ??_C@_0CM@BMJAANMP@ioNamedTitleInfoManager?3?3OnNamed@
  00084	ff 15 00 00 00
	00		 call	 DWORD PTR __imp_?GetSingleton@ioStringManager@@SAAAV1@XZ
  0008a	8b c8		 mov	 ecx, eax
  0008c	ff 15 00 00 00
	00		 call	 DWORD PTR __imp_?GetString@ioStringManager@@QAEPADPBD0HW4FileNamePrefix@1@@Z
  00092	50		 push	 eax
  00093	56		 push	 esi
  00094	56		 push	 esi
  00095	e8 00 00 00 00	 call	 ?GetSingleton@ioSP2GUIManager@@SAAAV1@XZ ; ioSP2GUIManager::GetSingleton
  0009a	8b c8		 mov	 ecx, eax
  0009c	e8 00 00 00 00	 call	 ?SetMsgBox@ioSP2GUIManager@@QAEXHPAVioWnd@@PBDH@Z ; ioSP2GUIManager::SetMsgBox
$LN1@OnNamedTit@2:
  000a1	5f		 pop	 edi
  000a2	5e		 pop	 esi

; 414  : }

  000a3	c9		 leave
  000a4	c2 04 00	 ret	 4
?OnNamedTitleEtcUse@ioNamedTitleInfoManager@@QAEXAAVSP2Packet@@@Z ENDP ; ioNamedTitleInfoManager::OnNamedTitleEtcUse
_TEXT	ENDS
PUBLIC	?OnNamedTitleEquip@ioNamedTitleInfoManager@@QAEXAAVSP2Packet@@PAVioPlayStage@@@Z ; ioNamedTitleInfoManager::OnNamedTitleEquip
EXTRN	__imp_??1ioHashString@@QAE@XZ:PROC
EXTRN	?SetNamedTitle@ioBaseGUISupport@@QAEXKHE@Z:PROC	; ioBaseGUISupport::SetNamedTitle
EXTRN	?GetBaseChar@ioPlayStage@@QAEPAVioBaseChar@@ABVioHashString@@@Z:PROC ; ioPlayStage::GetBaseChar
EXTRN	?SetNamedTitle@UserInfoNode@@QAEXKHE@Z:PROC	; UserInfoNode::SetNamedTitle
EXTRN	?GetUserInfoNode@ioUserInfoMgr@@QAEPAVUserInfoNode@@ABVioHashString@@_N@Z:PROC ; ioUserInfoMgr::GetUserInfoNode
EXTRN	?GetSingleton@ioUserInfoMgr@@SAAAV1@XZ:PROC	; ioUserInfoMgr::GetSingleton
EXTRN	??5SP2Packet@@QAEAAV0@AAE@Z:PROC		; SP2Packet::operator>>
EXTRN	??5SP2Packet@@QAEAAV0@AAVioHashString@@@Z:PROC	; SP2Packet::operator>>
EXTRN	__imp_??0ioHashString@@QAE@XZ:PROC
EXTRN	___CxxFrameHandler3:PROC
EXTRN	@__security_check_cookie@4:PROC
EXTRN	__EH_epilog3:PROC
EXTRN	__EH_prolog3:PROC
;	COMDAT xdata$x
xdata$x	SEGMENT
__unwindtable$?OnNamedTitleEquip@ioNamedTitleInfoManager@@QAEXAAVSP2Packet@@PAVioPlayStage@@@Z DD 0ffffffffH
	DD	FLAT:__unwindfunclet$?OnNamedTitleEquip@ioNamedTitleInfoManager@@QAEXAAVSP2Packet@@PAVioPlayStage@@@Z$0
__ehfuncinfo$?OnNamedTitleEquip@ioNamedTitleInfoManager@@QAEXAAVSP2Packet@@PAVioPlayStage@@@Z DD 019930522H
	DD	01H
	DD	FLAT:__unwindtable$?OnNamedTitleEquip@ioNamedTitleInfoManager@@QAEXAAVSP2Packet@@PAVioPlayStage@@@Z
	DD	2 DUP(00H)
	DD	2 DUP(00H)
	DD	00H
	DD	01H
; Function compile flags: /Ogsp
xdata$x	ENDS
;	COMDAT ?OnNamedTitleEquip@ioNamedTitleInfoManager@@QAEXAAVSP2Packet@@PAVioPlayStage@@@Z
_TEXT	SEGMENT
_szOwner$ = -40						; size = 16
_dwCode$ = -24						; size = 4
_nLevel$ = -20						; size = 4
_byPremium$ = -16					; size = 1
__$EHRec$ = -12						; size = 12
_rkPacket$ = 8						; size = 4
_pPlayStage$ = 12					; size = 4
?OnNamedTitleEquip@ioNamedTitleInfoManager@@QAEXAAVSP2Packet@@PAVioPlayStage@@@Z PROC ; ioNamedTitleInfoManager::OnNamedTitleEquip, COMDAT
; _this$ = ecx

; 417  : {

  00000	6a 1c		 push	 28			; 0000001cH
  00002	b8 00 00 00 00	 mov	 eax, __ehhandler$?OnNamedTitleEquip@ioNamedTitleInfoManager@@QAEXAAVSP2Packet@@PAVioPlayStage@@@Z
  00007	e8 00 00 00 00	 call	 __EH_prolog3

; 418  : 	TCPNetwork::MouseBusy( false );

  0000c	6a 00		 push	 0
  0000e	e8 00 00 00 00	 call	 ?MouseBusy@TCPNetwork@@YAX_N@Z ; TCPNetwork::MouseBusy

; 419  : 
; 420  : 	if ( !pPlayStage )

  00013	83 7d 0c 00	 cmp	 DWORD PTR _pPlayStage$[ebp], 0
  00017	59		 pop	 ecx
  00018	0f 84 92 00 00
	00		 je	 $LN4@OnNamedTit@3

; 421  : 		return;
; 422  : 
; 423  : 	ioHashString szOwner;

  0001e	8d 4d d8	 lea	 ecx, DWORD PTR _szOwner$[ebp]
  00021	ff 15 00 00 00
	00		 call	 DWORD PTR __imp_??0ioHashString@@QAE@XZ

; 424  : 	rkPacket >> szOwner;

  00027	8b 4d 08	 mov	 ecx, DWORD PTR _rkPacket$[ebp]
  0002a	83 65 fc 00	 and	 DWORD PTR __$EHRec$[ebp+8], 0
  0002e	8d 45 d8	 lea	 eax, DWORD PTR _szOwner$[ebp]
  00031	50		 push	 eax
  00032	e8 00 00 00 00	 call	 ??5SP2Packet@@QAEAAV0@AAVioHashString@@@Z ; SP2Packet::operator>>

; 425  : 
; 426  : 	DWORD dwCode;
; 427  : 	BYTE byPremium;
; 428  : 	int nLevel;
; 429  : 
; 430  : 	rkPacket >> dwCode >> byPremium >> nLevel;

  00037	8b 4d 08	 mov	 ecx, DWORD PTR _rkPacket$[ebp]
  0003a	8d 45 ec	 lea	 eax, DWORD PTR _nLevel$[ebp]
  0003d	50		 push	 eax
  0003e	8d 45 f0	 lea	 eax, DWORD PTR _byPremium$[ebp]
  00041	50		 push	 eax
  00042	8d 45 e8	 lea	 eax, DWORD PTR _dwCode$[ebp]
  00045	50		 push	 eax
  00046	e8 00 00 00 00	 call	 ??5SP2Packet@@QAEAAV0@AAK@Z ; SP2Packet::operator>>
  0004b	8b c8		 mov	 ecx, eax
  0004d	e8 00 00 00 00	 call	 ??5SP2Packet@@QAEAAV0@AAE@Z ; SP2Packet::operator>>
  00052	8b c8		 mov	 ecx, eax
  00054	e8 00 00 00 00	 call	 ??5SP2Packet@@QAEAAV0@AAH@Z ; SP2Packet::operator>>

; 431  : 	
; 432  : 	// 유저 노드 적용
; 433  : 	UserInfoNode *pInfo = g_UserInfoMgr.GetUserInfoNode( szOwner, false );

  00059	8d 45 d8	 lea	 eax, DWORD PTR _szOwner$[ebp]
  0005c	6a 00		 push	 0
  0005e	50		 push	 eax
  0005f	e8 00 00 00 00	 call	 ?GetSingleton@ioUserInfoMgr@@SAAAV1@XZ ; ioUserInfoMgr::GetSingleton
  00064	8b c8		 mov	 ecx, eax
  00066	e8 00 00 00 00	 call	 ?GetUserInfoNode@ioUserInfoMgr@@QAEPAVUserInfoNode@@ABVioHashString@@_N@Z ; ioUserInfoMgr::GetUserInfoNode

; 434  : 	if ( pInfo )

  0006b	85 c0		 test	 eax, eax
  0006d	74 10		 je	 SHORT $LN2@OnNamedTit@3

; 435  : 		pInfo->SetNamedTitle( dwCode, nLevel, byPremium );

  0006f	ff 75 f0	 push	 DWORD PTR _byPremium$[ebp]
  00072	8b c8		 mov	 ecx, eax
  00074	ff 75 ec	 push	 DWORD PTR _nLevel$[ebp]
  00077	ff 75 e8	 push	 DWORD PTR _dwCode$[ebp]
  0007a	e8 00 00 00 00	 call	 ?SetNamedTitle@UserInfoNode@@QAEXKHE@Z ; UserInfoNode::SetNamedTitle
$LN2@OnNamedTit@3:

; 436  : 
; 437  : 	// 캐릭터 적용
; 438  : 	ioBaseChar *pOwner = pPlayStage->GetBaseChar( szOwner );

  0007f	8b 4d 0c	 mov	 ecx, DWORD PTR _pPlayStage$[ebp]
  00082	8d 45 d8	 lea	 eax, DWORD PTR _szOwner$[ebp]
  00085	50		 push	 eax
  00086	e8 00 00 00 00	 call	 ?GetBaseChar@ioPlayStage@@QAEPAVioBaseChar@@ABVioHashString@@@Z ; ioPlayStage::GetBaseChar

; 439  : 	if ( pOwner )

  0008b	85 c0		 test	 eax, eax
  0008d	74 14		 je	 SHORT $LN1@OnNamedTit@3

; 440  : 		pOwner->SetNamedTitle( dwCode, nLevel, byPremium );

  0008f	ff 75 f0	 push	 DWORD PTR _byPremium$[ebp]
  00092	8d 88 cc 01 00
	00		 lea	 ecx, DWORD PTR [eax+460]
  00098	ff 75 ec	 push	 DWORD PTR _nLevel$[ebp]
  0009b	ff 75 e8	 push	 DWORD PTR _dwCode$[ebp]
  0009e	e8 00 00 00 00	 call	 ?SetNamedTitle@ioBaseGUISupport@@QAEXKHE@Z ; ioBaseGUISupport::SetNamedTitle
$LN1@OnNamedTit@3:

; 441  : }

  000a3	83 4d fc ff	 or	 DWORD PTR __$EHRec$[ebp+8], -1
  000a7	8d 4d d8	 lea	 ecx, DWORD PTR _szOwner$[ebp]
  000aa	ff 15 00 00 00
	00		 call	 DWORD PTR __imp_??1ioHashString@@QAE@XZ
$LN4@OnNamedTit@3:
  000b0	e8 00 00 00 00	 call	 __EH_epilog3
  000b5	c2 08 00	 ret	 8
_TEXT	ENDS
;	COMDAT text$x
text$x	SEGMENT
__unwindfunclet$?OnNamedTitleEquip@ioNamedTitleInfoManager@@QAEXAAVSP2Packet@@PAVioPlayStage@@@Z$0:
  00000	8d 4d d8	 lea	 ecx, DWORD PTR _szOwner$[ebp]
  00003	ff 25 00 00 00
	00		 jmp	 DWORD PTR __imp_??1ioHashString@@QAE@XZ
__ehhandler$?OnNamedTitleEquip@ioNamedTitleInfoManager@@QAEXAAVSP2Packet@@PAVioPlayStage@@@Z:
  00009	8b 54 24 08	 mov	 edx, DWORD PTR [esp+8]
  0000d	8d 42 0c	 lea	 eax, DWORD PTR [edx+12]
  00010	8b 4a d4	 mov	 ecx, DWORD PTR [edx-44]
  00013	33 c8		 xor	 ecx, eax
  00015	e8 00 00 00 00	 call	 @__security_check_cookie@4
  0001a	b8 00 00 00 00	 mov	 eax, OFFSET __ehfuncinfo$?OnNamedTitleEquip@ioNamedTitleInfoManager@@QAEXAAVSP2Packet@@PAVioPlayStage@@@Z
  0001f	e9 00 00 00 00	 jmp	 ___CxxFrameHandler3
text$x	ENDS
?OnNamedTitleEquip@ioNamedTitleInfoManager@@QAEXAAVSP2Packet@@PAVioPlayStage@@@Z ENDP ; ioNamedTitleInfoManager::OnNamedTitleEquip
PUBLIC	?size@?$vector@UtagNamedTitleGrade@@V?$allocator@UtagNamedTitleGrade@@@std@@@std@@QBEIXZ ; std::vector<tagNamedTitleGrade,std::allocator<tagNamedTitleGrade> >::size
; Function compile flags: /Ogsp
; File c:\program files (x86)\microsoft visual studio 10.0\vc\include\vector
;	COMDAT ?size@?$vector@UtagNamedTitleGrade@@V?$allocator@UtagNamedTitleGrade@@@std@@@std@@QBEIXZ
_TEXT	SEGMENT
?size@?$vector@UtagNamedTitleGrade@@V?$allocator@UtagNamedTitleGrade@@@std@@@std@@QBEIXZ PROC ; std::vector<tagNamedTitleGrade,std::allocator<tagNamedTitleGrade> >::size, COMDAT
; _this$ = ecx

; 879  : 		return (this->_Mylast - this->_Myfirst);

  00000	8b 41 04	 mov	 eax, DWORD PTR [ecx+4]
  00003	2b 01		 sub	 eax, DWORD PTR [ecx]
  00005	6a 14		 push	 20			; 00000014H
  00007	99		 cdq
  00008	59		 pop	 ecx
  00009	f7 f9		 idiv	 ecx

; 880  : 		}

  0000b	c3		 ret	 0
?size@?$vector@UtagNamedTitleGrade@@V?$allocator@UtagNamedTitleGrade@@@std@@@std@@QBEIXZ ENDP ; std::vector<tagNamedTitleGrade,std::allocator<tagNamedTitleGrade> >::size
_TEXT	ENDS
PUBLIC	??A?$vector@UtagNamedTitleGrade@@V?$allocator@UtagNamedTitleGrade@@@std@@@std@@QBEABUtagNamedTitleGrade@@I@Z ; std::vector<tagNamedTitleGrade,std::allocator<tagNamedTitleGrade> >::operator[]
; Function compile flags: /Ogsp
;	COMDAT ??A?$vector@UtagNamedTitleGrade@@V?$allocator@UtagNamedTitleGrade@@@std@@@std@@QBEABUtagNamedTitleGrade@@I@Z
_TEXT	SEGMENT
__Pos$ = 8						; size = 4
??A?$vector@UtagNamedTitleGrade@@V?$allocator@UtagNamedTitleGrade@@@std@@@std@@QBEABUtagNamedTitleGrade@@I@Z PROC ; std::vector<tagNamedTitleGrade,std::allocator<tagNamedTitleGrade> >::operator[], COMDAT
; _this$ = ecx

; 912  : 		{	// subscript nonmutable sequence

  00000	55		 push	 ebp
  00001	8b ec		 mov	 ebp, esp

; 913  :  #if _ITERATOR_DEBUG_LEVEL == 2
; 914  : 		if (size() <= _Pos)
; 915  : 			{	// report error
; 916  : 			_DEBUG_ERROR("vector subscript out of range");
; 917  : 			_SCL_SECURE_OUT_OF_RANGE;
; 918  : 			}
; 919  : 
; 920  :  #elif _ITERATOR_DEBUG_LEVEL == 1
; 921  : 		_SCL_SECURE_VALIDATE_RANGE(_Pos < size());
; 922  :  #endif /* _ITERATOR_DEBUG_LEVEL */
; 923  : 
; 924  : 		return (*(this->_Myfirst + _Pos));

  00003	8b 45 08	 mov	 eax, DWORD PTR __Pos$[ebp]
  00006	6b c0 14	 imul	 eax, 20			; 00000014H
  00009	03 01		 add	 eax, DWORD PTR [ecx]

; 925  : 		}

  0000b	5d		 pop	 ebp
  0000c	c2 04 00	 ret	 4
??A?$vector@UtagNamedTitleGrade@@V?$allocator@UtagNamedTitleGrade@@@std@@@std@@QBEABUtagNamedTitleGrade@@I@Z ENDP ; std::vector<tagNamedTitleGrade,std::allocator<tagNamedTitleGrade> >::operator[]
_TEXT	ENDS
PUBLIC	??A?$vector@UtagNamedTitleGrade@@V?$allocator@UtagNamedTitleGrade@@@std@@@std@@QAEAAUtagNamedTitleGrade@@I@Z ; std::vector<tagNamedTitleGrade,std::allocator<tagNamedTitleGrade> >::operator[]
; Function compile flags: /Ogsp
;	COMDAT ??A?$vector@UtagNamedTitleGrade@@V?$allocator@UtagNamedTitleGrade@@@std@@@std@@QAEAAUtagNamedTitleGrade@@I@Z
_TEXT	SEGMENT
__Pos$ = 8						; size = 4
??A?$vector@UtagNamedTitleGrade@@V?$allocator@UtagNamedTitleGrade@@@std@@@std@@QAEAAUtagNamedTitleGrade@@I@Z PROC ; std::vector<tagNamedTitleGrade,std::allocator<tagNamedTitleGrade> >::operator[], COMDAT
; _this$ = ecx

; 928  : 		{	// subscript mutable sequence

  00000	55		 push	 ebp
  00001	8b ec		 mov	 ebp, esp

; 929  :  #if _ITERATOR_DEBUG_LEVEL == 2
; 930  : 		if (size() <= _Pos)
; 931  : 			{	// report error
; 932  : 			_DEBUG_ERROR("vector subscript out of range");
; 933  : 			_SCL_SECURE_OUT_OF_RANGE;
; 934  : 			}
; 935  : 
; 936  :  #elif _ITERATOR_DEBUG_LEVEL == 1
; 937  : 		_SCL_SECURE_VALIDATE_RANGE(_Pos < size());
; 938  :  #endif /* _ITERATOR_DEBUG_LEVEL */
; 939  : 
; 940  : 		return (*(this->_Myfirst + _Pos));

  00003	8b 45 08	 mov	 eax, DWORD PTR __Pos$[ebp]
  00006	6b c0 14	 imul	 eax, 20			; 00000014H
  00009	03 01		 add	 eax, DWORD PTR [ecx]

; 941  : 		}

  0000b	5d		 pop	 ebp
  0000c	c2 04 00	 ret	 4
??A?$vector@UtagNamedTitleGrade@@V?$allocator@UtagNamedTitleGrade@@@std@@@std@@QAEAAUtagNamedTitleGrade@@I@Z ENDP ; std::vector<tagNamedTitleGrade,std::allocator<tagNamedTitleGrade> >::operator[]
_TEXT	ENDS
PUBLIC	??0?$Singleton@VioNamedTitleInfoManager@@@@QAE@XZ ; Singleton<ioNamedTitleInfoManager>::Singleton<ioNamedTitleInfoManager>
; Function compile flags: /Ogsp
; File d:\lost saga for developer\youtube\tutorial\source\src\io3dengine\iosingleton.h
;	COMDAT ??0?$Singleton@VioNamedTitleInfoManager@@@@QAE@XZ
_TEXT	SEGMENT
??0?$Singleton@VioNamedTitleInfoManager@@@@QAE@XZ PROC	; Singleton<ioNamedTitleInfoManager>::Singleton<ioNamedTitleInfoManager>, COMDAT
; _this$ = ecx

; 27   : 	Singleton()

  00000	8b c1		 mov	 eax, ecx

; 28   : 	{
; 29   : 		assert( !ms_Singleton );
; 30   : 		int offset = (int)(T*)1 - (int)(Singleton <T>*)(T*)1;
; 31   : 		ms_Singleton = (T*)((int)this + offset);

  00002	8d 48 fc	 lea	 ecx, DWORD PTR [eax-4]
  00005	89 0d 00 00 00
	00		 mov	 DWORD PTR ?ms_Singleton@?$Singleton@VioNamedTitleInfoManager@@@@1PAVioNamedTitleInfoManager@@A, ecx ; Singleton<ioNamedTitleInfoManager>::ms_Singleton

; 32   : 	}

  0000b	c3		 ret	 0
??0?$Singleton@VioNamedTitleInfoManager@@@@QAE@XZ ENDP	; Singleton<ioNamedTitleInfoManager>::Singleton<ioNamedTitleInfoManager>
_TEXT	ENDS
PUBLIC	??1?$Singleton@VioNamedTitleInfoManager@@@@QAE@XZ ; Singleton<ioNamedTitleInfoManager>::~Singleton<ioNamedTitleInfoManager>
; Function compile flags: /Ogsp
;	COMDAT ??1?$Singleton@VioNamedTitleInfoManager@@@@QAE@XZ
_TEXT	SEGMENT
??1?$Singleton@VioNamedTitleInfoManager@@@@QAE@XZ PROC	; Singleton<ioNamedTitleInfoManager>::~Singleton<ioNamedTitleInfoManager>, COMDAT
; _this$ = ecx

; 36   : 		assert( ms_Singleton );
; 37   : 		ms_Singleton = 0;

  00000	83 25 00 00 00
	00 00		 and	 DWORD PTR ?ms_Singleton@?$Singleton@VioNamedTitleInfoManager@@@@1PAVioNamedTitleInfoManager@@A, 0 ; Singleton<ioNamedTitleInfoManager>::ms_Singleton

; 38   : 	}

  00007	c3		 ret	 0
??1?$Singleton@VioNamedTitleInfoManager@@@@QAE@XZ ENDP	; Singleton<ioNamedTitleInfoManager>::~Singleton<ioNamedTitleInfoManager>
_TEXT	ENDS
PUBLIC	?GetSingleton@?$Singleton@VioNamedTitleInfoManager@@@@SAAAVioNamedTitleInfoManager@@XZ ; Singleton<ioNamedTitleInfoManager>::GetSingleton
; Function compile flags: /Ogsp
;	COMDAT ?GetSingleton@?$Singleton@VioNamedTitleInfoManager@@@@SAAAVioNamedTitleInfoManager@@XZ
_TEXT	SEGMENT
?GetSingleton@?$Singleton@VioNamedTitleInfoManager@@@@SAAAVioNamedTitleInfoManager@@XZ PROC ; Singleton<ioNamedTitleInfoManager>::GetSingleton, COMDAT

; 42   : 		assert( ms_Singleton );
; 43   : 		return (*ms_Singleton);

  00000	a1 00 00 00 00	 mov	 eax, DWORD PTR ?ms_Singleton@?$Singleton@VioNamedTitleInfoManager@@@@1PAVioNamedTitleInfoManager@@A ; Singleton<ioNamedTitleInfoManager>::ms_Singleton

; 44   : 	}

  00005	c3		 ret	 0
?GetSingleton@?$Singleton@VioNamedTitleInfoManager@@@@SAAAVioNamedTitleInfoManager@@XZ ENDP ; Singleton<ioNamedTitleInfoManager>::GetSingleton
_TEXT	ENDS
PUBLIC	??R?$less@K@std@@QBE_NABK0@Z			; std::less<unsigned long>::operator()
; Function compile flags: /Ogsp
; File c:\program files (x86)\microsoft visual studio 10.0\vc\include\xfunctional
;	COMDAT ??R?$less@K@std@@QBE_NABK0@Z
_TEXT	SEGMENT
__Left$ = 8						; size = 4
__Right$ = 12						; size = 4
??R?$less@K@std@@QBE_NABK0@Z PROC			; std::less<unsigned long>::operator(), COMDAT
; _this$ = ecx

; 124  : 		{	// apply operator< to operands

  00000	55		 push	 ebp
  00001	8b ec		 mov	 ebp, esp

; 125  : 		return (_Left < _Right);

  00003	8b 45 08	 mov	 eax, DWORD PTR __Left$[ebp]
  00006	8b 00		 mov	 eax, DWORD PTR [eax]
  00008	8b 4d 0c	 mov	 ecx, DWORD PTR __Right$[ebp]
  0000b	3b 01		 cmp	 eax, DWORD PTR [ecx]
  0000d	1b c0		 sbb	 eax, eax
  0000f	f7 d8		 neg	 eax

; 126  : 		}

  00011	5d		 pop	 ebp
  00012	c2 08 00	 ret	 8
??R?$less@K@std@@QBE_NABK0@Z ENDP			; std::less<unsigned long>::operator()
_TEXT	ENDS
PUBLIC	?capacity@?$vector@UtagNamedTitleGrade@@V?$allocator@UtagNamedTitleGrade@@@std@@@std@@QBEIXZ ; std::vector<tagNamedTitleGrade,std::allocator<tagNamedTitleGrade> >::capacity
; Function compile flags: /Ogsp
; File c:\program files (x86)\microsoft visual studio 10.0\vc\include\vector
;	COMDAT ?capacity@?$vector@UtagNamedTitleGrade@@V?$allocator@UtagNamedTitleGrade@@@std@@@std@@QBEIXZ
_TEXT	SEGMENT
?capacity@?$vector@UtagNamedTitleGrade@@V?$allocator@UtagNamedTitleGrade@@@std@@@std@@QBEIXZ PROC ; std::vector<tagNamedTitleGrade,std::allocator<tagNamedTitleGrade> >::capacity, COMDAT
; _this$ = ecx

; 777  : 		return (this->_Myend - this->_Myfirst);

  00000	8b 41 08	 mov	 eax, DWORD PTR [ecx+8]
  00003	2b 01		 sub	 eax, DWORD PTR [ecx]
  00005	6a 14		 push	 20			; 00000014H
  00007	99		 cdq
  00008	59		 pop	 ecx
  00009	f7 f9		 idiv	 ecx

; 778  : 		}

  0000b	c3		 ret	 0
?capacity@?$vector@UtagNamedTitleGrade@@V?$allocator@UtagNamedTitleGrade@@@std@@@std@@QBEIXZ ENDP ; std::vector<tagNamedTitleGrade,std::allocator<tagNamedTitleGrade> >::capacity
_TEXT	ENDS
PUBLIC	?_Inside@?$vector@UtagNamedTitleGrade@@V?$allocator@UtagNamedTitleGrade@@@std@@@std@@IBE_NPBUtagNamedTitleGrade@@@Z ; std::vector<tagNamedTitleGrade,std::allocator<tagNamedTitleGrade> >::_Inside
; Function compile flags: /Ogsp
;	COMDAT ?_Inside@?$vector@UtagNamedTitleGrade@@V?$allocator@UtagNamedTitleGrade@@@std@@@std@@IBE_NPBUtagNamedTitleGrade@@@Z
_TEXT	SEGMENT
__Ptr$ = 8						; size = 4
?_Inside@?$vector@UtagNamedTitleGrade@@V?$allocator@UtagNamedTitleGrade@@@std@@@std@@IBE_NPBUtagNamedTitleGrade@@@Z PROC ; std::vector<tagNamedTitleGrade,std::allocator<tagNamedTitleGrade> >::_Inside, COMDAT
; _this$ = ecx

; 1285 : 		{	// test if _Ptr points inside vector

  00000	55		 push	 ebp
  00001	8b ec		 mov	 ebp, esp

; 1286 : 		return (_Ptr < this->_Mylast && this->_Myfirst <= _Ptr);

  00003	8b 45 08	 mov	 eax, DWORD PTR __Ptr$[ebp]
  00006	3b 41 04	 cmp	 eax, DWORD PTR [ecx+4]
  00009	73 09		 jae	 SHORT $LN3@Inside
  0000b	39 01		 cmp	 DWORD PTR [ecx], eax
  0000d	77 05		 ja	 SHORT $LN3@Inside
  0000f	33 c0		 xor	 eax, eax
  00011	40		 inc	 eax
  00012	eb 02		 jmp	 SHORT $LN4@Inside
$LN3@Inside:
  00014	33 c0		 xor	 eax, eax
$LN4@Inside:

; 1287 : 		}

  00016	5d		 pop	 ebp
  00017	c2 04 00	 ret	 4
?_Inside@?$vector@UtagNamedTitleGrade@@V?$allocator@UtagNamedTitleGrade@@@std@@@std@@IBE_NPBUtagNamedTitleGrade@@@Z ENDP ; std::vector<tagNamedTitleGrade,std::allocator<tagNamedTitleGrade> >::_Inside
_TEXT	ENDS
PUBLIC	?_Orphan_range@?$vector@UtagNamedTitleGrade@@V?$allocator@UtagNamedTitleGrade@@@std@@@std@@IBEXPAUtagNamedTitleGrade@@0@Z ; std::vector<tagNamedTitleGrade,std::allocator<tagNamedTitleGrade> >::_Orphan_range
; Function compile flags: /Ogsp
;	COMDAT ?_Orphan_range@?$vector@UtagNamedTitleGrade@@V?$allocator@UtagNamedTitleGrade@@@std@@@std@@IBEXPAUtagNamedTitleGrade@@0@Z
_TEXT	SEGMENT
___formal$ = 8						; size = 4
___formal$ = 12						; size = 4
?_Orphan_range@?$vector@UtagNamedTitleGrade@@V?$allocator@UtagNamedTitleGrade@@@std@@@std@@IBEXPAUtagNamedTitleGrade@@0@Z PROC ; std::vector<tagNamedTitleGrade,std::allocator<tagNamedTitleGrade> >::_Orphan_range, COMDAT
; _this$ = ecx

; 1454 : 		}

  00000	c2 08 00	 ret	 8
?_Orphan_range@?$vector@UtagNamedTitleGrade@@V?$allocator@UtagNamedTitleGrade@@@std@@@std@@IBEXPAUtagNamedTitleGrade@@0@Z ENDP ; std::vector<tagNamedTitleGrade,std::allocator<tagNamedTitleGrade> >::_Orphan_range
_TEXT	ENDS
PUBLIC	?size@?$_Tree@V?$_Tmap_traits@KUtagNamedTitleInfo@@U?$less@K@std@@V?$allocator@U?$pair@$$CBKUtagNamedTitleInfo@@@std@@@3@$0A@@std@@@std@@QBEIXZ ; std::_Tree<std::_Tmap_traits<unsigned long,tagNamedTitleInfo,std::less<unsigned long>,std::allocator<std::pair<unsigned long const ,tagNamedTitleInfo> >,0> >::size
; Function compile flags: /Ogsp
; File c:\program files (x86)\microsoft visual studio 10.0\vc\include\xtree
;	COMDAT ?size@?$_Tree@V?$_Tmap_traits@KUtagNamedTitleInfo@@U?$less@K@std@@V?$allocator@U?$pair@$$CBKUtagNamedTitleInfo@@@std@@@3@$0A@@std@@@std@@QBEIXZ
_TEXT	SEGMENT
?size@?$_Tree@V?$_Tmap_traits@KUtagNamedTitleInfo@@U?$less@K@std@@V?$allocator@U?$pair@$$CBKUtagNamedTitleInfo@@@std@@@3@$0A@@std@@@std@@QBEIXZ PROC ; std::_Tree<std::_Tmap_traits<unsigned long,tagNamedTitleInfo,std::less<unsigned long>,std::allocator<std::pair<unsigned long const ,tagNamedTitleInfo> >,0> >::size, COMDAT
; _this$ = ecx

; 869  : 		return (this->_Mysize);

  00000	8b 41 08	 mov	 eax, DWORD PTR [ecx+8]

; 870  : 		}

  00003	c3		 ret	 0
?size@?$_Tree@V?$_Tmap_traits@KUtagNamedTitleInfo@@U?$less@K@std@@V?$allocator@U?$pair@$$CBKUtagNamedTitleInfo@@@std@@@3@$0A@@std@@@std@@QBEIXZ ENDP ; std::_Tree<std::_Tmap_traits<unsigned long,tagNamedTitleInfo,std::less<unsigned long>,std::allocator<std::pair<unsigned long const ,tagNamedTitleInfo> >,0> >::size
_TEXT	ENDS
PUBLIC	??0?$allocator@U?$pair@$$CBKUtagNamedTitleInfo@@@std@@@std@@QAE@XZ ; std::allocator<std::pair<unsigned long const ,tagNamedTitleInfo> >::allocator<std::pair<unsigned long const ,tagNamedTitleInfo> >
; Function compile flags: /Ogsp
; File c:\program files (x86)\microsoft visual studio 10.0\vc\include\xmemory
;	COMDAT ??0?$allocator@U?$pair@$$CBKUtagNamedTitleInfo@@@std@@@std@@QAE@XZ
_TEXT	SEGMENT
??0?$allocator@U?$pair@$$CBKUtagNamedTitleInfo@@@std@@@std@@QAE@XZ PROC ; std::allocator<std::pair<unsigned long const ,tagNamedTitleInfo> >::allocator<std::pair<unsigned long const ,tagNamedTitleInfo> >, COMDAT
; _this$ = ecx

; 161  : 	_ALLOCATOR() _THROW0()

  00000	8b c1		 mov	 eax, ecx

; 162  : 		{	// construct default allocator (do nothing)
; 163  : 		}

  00002	c3		 ret	 0
??0?$allocator@U?$pair@$$CBKUtagNamedTitleInfo@@@std@@@std@@QAE@XZ ENDP ; std::allocator<std::pair<unsigned long const ,tagNamedTitleInfo> >::allocator<std::pair<unsigned long const ,tagNamedTitleInfo> >
_TEXT	ENDS
PUBLIC	??8?$_Tree_const_iterator@V?$_Tree_val@V?$_Tmap_traits@KUtagNamedTitleInfo@@U?$less@K@std@@V?$allocator@U?$pair@$$CBKUtagNamedTitleInfo@@@std@@@3@$0A@@std@@@std@@@std@@QBE_NABV01@@Z ; std::_Tree_const_iterator<std::_Tree_val<std::_Tmap_traits<unsigned long,tagNamedTitleInfo,std::less<unsigned long>,std::allocator<std::pair<unsigned long const ,tagNamedTitleInfo> >,0> > >::operator==
; Function compile flags: /Ogsp
; File c:\program files (x86)\microsoft visual studio 10.0\vc\include\xtree
;	COMDAT ??8?$_Tree_const_iterator@V?$_Tree_val@V?$_Tmap_traits@KUtagNamedTitleInfo@@U?$less@K@std@@V?$allocator@U?$pair@$$CBKUtagNamedTitleInfo@@@std@@@3@$0A@@std@@@std@@@std@@QBE_NABV01@@Z
_TEXT	SEGMENT
__Right$ = 8						; size = 4
??8?$_Tree_const_iterator@V?$_Tree_val@V?$_Tmap_traits@KUtagNamedTitleInfo@@U?$less@K@std@@V?$allocator@U?$pair@$$CBKUtagNamedTitleInfo@@@std@@@3@$0A@@std@@@std@@@std@@QBE_NABV01@@Z PROC ; std::_Tree_const_iterator<std::_Tree_val<std::_Tmap_traits<unsigned long,tagNamedTitleInfo,std::less<unsigned long>,std::allocator<std::pair<unsigned long const ,tagNamedTitleInfo> >,0> > >::operator==, COMDAT
; _this$ = ecx

; 316  : 		{	// test for iterator equality

  00000	55		 push	 ebp
  00001	8b ec		 mov	 ebp, esp

; 317  :  #if _ITERATOR_DEBUG_LEVEL == 2
; 318  : 		if (this->_Getcont() == 0
; 319  : 			|| this->_Getcont() != _Right._Getcont())
; 320  : 			{	// report error
; 321  : 			_DEBUG_ERROR("map/set iterators incompatible");
; 322  : 			_SCL_SECURE_INVALID_ARGUMENT;
; 323  : 			}
; 324  : 
; 325  :  #elif _ITERATOR_DEBUG_LEVEL == 1
; 326  : 		_SCL_SECURE_VALIDATE(this->_Getcont() != 0
; 327  : 			&& this->_Getcont() == _Right._Getcont());
; 328  :  #endif /* _ITERATOR_DEBUG_LEVEL */
; 329  : 
; 330  : 		return (this->_Ptr == _Right._Ptr);

  00003	8b 01		 mov	 eax, DWORD PTR [ecx]
  00005	8b 4d 08	 mov	 ecx, DWORD PTR __Right$[ebp]
  00008	2b 01		 sub	 eax, DWORD PTR [ecx]
  0000a	f7 d8		 neg	 eax
  0000c	1b c0		 sbb	 eax, eax
  0000e	40		 inc	 eax

; 331  : 		}

  0000f	5d		 pop	 ebp
  00010	c2 04 00	 ret	 4
??8?$_Tree_const_iterator@V?$_Tree_val@V?$_Tmap_traits@KUtagNamedTitleInfo@@U?$less@K@std@@V?$allocator@U?$pair@$$CBKUtagNamedTitleInfo@@@std@@@3@$0A@@std@@@std@@@std@@QBE_NABV01@@Z ENDP ; std::_Tree_const_iterator<std::_Tree_val<std::_Tmap_traits<unsigned long,tagNamedTitleInfo,std::less<unsigned long>,std::allocator<std::pair<unsigned long const ,tagNamedTitleInfo> >,0> > >::operator==
_TEXT	ENDS
PUBLIC	?_Mynode@?$_Tree_unchecked_const_iterator@V?$_Tree_val@V?$_Tmap_traits@KUtagNamedTitleInfo@@U?$less@K@std@@V?$allocator@U?$pair@$$CBKUtagNamedTitleInfo@@@std@@@3@$0A@@std@@@std@@U_Iterator_base0@2@@std@@QBEPAU_Node@?$_Tree_nod@V?$_Tmap_traits@KUtagNamedTitleInfo@@U?$less@K@std@@V?$allocator@U?$pair@$$CBKUtagNamedTitleInfo@@@std@@@3@$0A@@std@@@2@XZ ; std::_Tree_unchecked_const_iterator<std::_Tree_val<std::_Tmap_traits<unsigned long,tagNamedTitleInfo,std::less<unsigned long>,std::allocator<std::pair<unsigned long const ,tagNamedTitleInfo> >,0> >,std::_Iterator_base0>::_Mynode
; Function compile flags: /Ogsp
;	COMDAT ?_Mynode@?$_Tree_unchecked_const_iterator@V?$_Tree_val@V?$_Tmap_traits@KUtagNamedTitleInfo@@U?$less@K@std@@V?$allocator@U?$pair@$$CBKUtagNamedTitleInfo@@@std@@@3@$0A@@std@@@std@@U_Iterator_base0@2@@std@@QBEPAU_Node@?$_Tree_nod@V?$_Tmap_traits@KUtagNamedTitleInfo@@U?$less@K@std@@V?$allocator@U?$pair@$$CBKUtagNamedTitleInfo@@@std@@@3@$0A@@std@@@2@XZ
_TEXT	SEGMENT
?_Mynode@?$_Tree_unchecked_const_iterator@V?$_Tree_val@V?$_Tmap_traits@KUtagNamedTitleInfo@@U?$less@K@std@@V?$allocator@U?$pair@$$CBKUtagNamedTitleInfo@@@std@@@3@$0A@@std@@@std@@U_Iterator_base0@2@@std@@QBEPAU_Node@?$_Tree_nod@V?$_Tmap_traits@KUtagNamedTitleInfo@@U?$less@K@std@@V?$allocator@U?$pair@$$CBKUtagNamedTitleInfo@@@std@@@3@$0A@@std@@@2@XZ PROC ; std::_Tree_unchecked_const_iterator<std::_Tree_val<std::_Tmap_traits<unsigned long,tagNamedTitleInfo,std::less<unsigned long>,std::allocator<std::pair<unsigned long const ,tagNamedTitleInfo> >,0> >,std::_Iterator_base0>::_Mynode, COMDAT
; _this$ = ecx

; 122  : 		return (_Ptr);

  00000	8b 01		 mov	 eax, DWORD PTR [ecx]

; 123  : 		}

  00002	c3		 ret	 0
?_Mynode@?$_Tree_unchecked_const_iterator@V?$_Tree_val@V?$_Tmap_traits@KUtagNamedTitleInfo@@U?$less@K@std@@V?$allocator@U?$pair@$$CBKUtagNamedTitleInfo@@@std@@@3@$0A@@std@@@std@@U_Iterator_base0@2@@std@@QBEPAU_Node@?$_Tree_nod@V?$_Tmap_traits@KUtagNamedTitleInfo@@U?$less@K@std@@V?$allocator@U?$pair@$$CBKUtagNamedTitleInfo@@@std@@@3@$0A@@std@@@2@XZ ENDP ; std::_Tree_unchecked_const_iterator<std::_Tree_val<std::_Tmap_traits<unsigned long,tagNamedTitleInfo,std::less<unsigned long>,std::allocator<std::pair<unsigned long const ,tagNamedTitleInfo> >,0> >,std::_Iterator_base0>::_Mynode
_TEXT	ENDS
PUBLIC	??_C@_0BD@OLBABOEK@vector?$DMT?$DO?5too?5long?$AA@ ; `string'
PUBLIC	?_Xlen@?$vector@UtagNamedTitleGrade@@V?$allocator@UtagNamedTitleGrade@@@std@@@std@@IBEXXZ ; std::vector<tagNamedTitleGrade,std::allocator<tagNamedTitleGrade> >::_Xlen
EXTRN	__imp_?_Xlength_error@std@@YAXPBD@Z:PROC
;	COMDAT ??_C@_0BD@OLBABOEK@vector?$DMT?$DO?5too?5long?$AA@
; File c:\program files (x86)\microsoft visual studio 10.0\vc\include\vector
CONST	SEGMENT
??_C@_0BD@OLBABOEK@vector?$DMT?$DO?5too?5long?$AA@ DB 'vector<T> too long'
	DB	00H						; `string'
; Function compile flags: /Ogsp
CONST	ENDS
;	COMDAT ?_Xlen@?$vector@UtagNamedTitleGrade@@V?$allocator@UtagNamedTitleGrade@@@std@@@std@@IBEXXZ
_TEXT	SEGMENT
?_Xlen@?$vector@UtagNamedTitleGrade@@V?$allocator@UtagNamedTitleGrade@@@std@@@std@@IBEXXZ PROC ; std::vector<tagNamedTitleGrade,std::allocator<tagNamedTitleGrade> >::_Xlen, COMDAT
; _this$ = ecx

; 1427 : 		_Xlength_error("vector<T> too long");

  00000	68 00 00 00 00	 push	 OFFSET ??_C@_0BD@OLBABOEK@vector?$DMT?$DO?5too?5long?$AA@
  00005	ff 15 00 00 00
	00		 call	 DWORD PTR __imp_?_Xlength_error@std@@YAXPBD@Z
$LN4@Xlen:
$LN3@Xlen:
  0000b	cc		 int	 3
?_Xlen@?$vector@UtagNamedTitleGrade@@V?$allocator@UtagNamedTitleGrade@@@std@@@std@@IBEXXZ ENDP ; std::vector<tagNamedTitleGrade,std::allocator<tagNamedTitleGrade> >::_Xlen
_TEXT	ENDS
PUBLIC	?_Isnil@?$_Tree_val@V?$_Tmap_traits@KUtagNamedTitleInfo@@U?$less@K@std@@V?$allocator@U?$pair@$$CBKUtagNamedTitleInfo@@@std@@@3@$0A@@std@@@std@@SAAADPAU_Node@?$_Tree_nod@V?$_Tmap_traits@KUtagNamedTitleInfo@@U?$less@K@std@@V?$allocator@U?$pair@$$CBKUtagNamedTitleInfo@@@std@@@3@$0A@@std@@@2@@Z ; std::_Tree_val<std::_Tmap_traits<unsigned long,tagNamedTitleInfo,std::less<unsigned long>,std::allocator<std::pair<unsigned long const ,tagNamedTitleInfo> >,0> >::_Isnil
; Function compile flags: /Ogsp
; File c:\program files (x86)\microsoft visual studio 10.0\vc\include\xtree
;	COMDAT ?_Isnil@?$_Tree_val@V?$_Tmap_traits@KUtagNamedTitleInfo@@U?$less@K@std@@V?$allocator@U?$pair@$$CBKUtagNamedTitleInfo@@@std@@@3@$0A@@std@@@std@@SAAADPAU_Node@?$_Tree_nod@V?$_Tmap_traits@KUtagNamedTitleInfo@@U?$less@K@std@@V?$allocator@U?$pair@$$CBKUtagNamedTitleInfo@@@std@@@3@$0A@@std@@@2@@Z
_TEXT	SEGMENT
__Pnode$ = 8						; size = 4
?_Isnil@?$_Tree_val@V?$_Tmap_traits@KUtagNamedTitleInfo@@U?$less@K@std@@V?$allocator@U?$pair@$$CBKUtagNamedTitleInfo@@@std@@@3@$0A@@std@@@std@@SAAADPAU_Node@?$_Tree_nod@V?$_Tmap_traits@KUtagNamedTitleInfo@@U?$less@K@std@@V?$allocator@U?$pair@$$CBKUtagNamedTitleInfo@@@std@@@3@$0A@@std@@@2@@Z PROC ; std::_Tree_val<std::_Tmap_traits<unsigned long,tagNamedTitleInfo,std::less<unsigned long>,std::allocator<std::pair<unsigned long const ,tagNamedTitleInfo> >,0> >::_Isnil, COMDAT

; 611  : 		{	// return reference to nil flag in node

  00000	55		 push	 ebp
  00001	8b ec		 mov	 ebp, esp

; 612  : 		return ((char&)(*_Pnode)._Isnil);

  00003	8b 45 08	 mov	 eax, DWORD PTR __Pnode$[ebp]
  00006	83 c0 35	 add	 eax, 53			; 00000035H

; 613  : 		}

  00009	5d		 pop	 ebp
  0000a	c3		 ret	 0
?_Isnil@?$_Tree_val@V?$_Tmap_traits@KUtagNamedTitleInfo@@U?$less@K@std@@V?$allocator@U?$pair@$$CBKUtagNamedTitleInfo@@@std@@@3@$0A@@std@@@std@@SAAADPAU_Node@?$_Tree_nod@V?$_Tmap_traits@KUtagNamedTitleInfo@@U?$less@K@std@@V?$allocator@U?$pair@$$CBKUtagNamedTitleInfo@@@std@@@3@$0A@@std@@@2@@Z ENDP ; std::_Tree_val<std::_Tmap_traits<unsigned long,tagNamedTitleInfo,std::less<unsigned long>,std::allocator<std::pair<unsigned long const ,tagNamedTitleInfo> >,0> >::_Isnil
_TEXT	ENDS
PUBLIC	?_Left@?$_Tree_val@V?$_Tmap_traits@KUtagNamedTitleInfo@@U?$less@K@std@@V?$allocator@U?$pair@$$CBKUtagNamedTitleInfo@@@std@@@3@$0A@@std@@@std@@SAAAPAU_Node@?$_Tree_nod@V?$_Tmap_traits@KUtagNamedTitleInfo@@U?$less@K@std@@V?$allocator@U?$pair@$$CBKUtagNamedTitleInfo@@@std@@@3@$0A@@std@@@2@PAU342@@Z ; std::_Tree_val<std::_Tmap_traits<unsigned long,tagNamedTitleInfo,std::less<unsigned long>,std::allocator<std::pair<unsigned long const ,tagNamedTitleInfo> >,0> >::_Left
; Function compile flags: /Ogsp
;	COMDAT ?_Left@?$_Tree_val@V?$_Tmap_traits@KUtagNamedTitleInfo@@U?$less@K@std@@V?$allocator@U?$pair@$$CBKUtagNamedTitleInfo@@@std@@@3@$0A@@std@@@std@@SAAAPAU_Node@?$_Tree_nod@V?$_Tmap_traits@KUtagNamedTitleInfo@@U?$less@K@std@@V?$allocator@U?$pair@$$CBKUtagNamedTitleInfo@@@std@@@3@$0A@@std@@@2@PAU342@@Z
_TEXT	SEGMENT
__Pnode$ = 8						; size = 4
?_Left@?$_Tree_val@V?$_Tmap_traits@KUtagNamedTitleInfo@@U?$less@K@std@@V?$allocator@U?$pair@$$CBKUtagNamedTitleInfo@@@std@@@3@$0A@@std@@@std@@SAAAPAU_Node@?$_Tree_nod@V?$_Tmap_traits@KUtagNamedTitleInfo@@U?$less@K@std@@V?$allocator@U?$pair@$$CBKUtagNamedTitleInfo@@@std@@@3@$0A@@std@@@2@PAU342@@Z PROC ; std::_Tree_val<std::_Tmap_traits<unsigned long,tagNamedTitleInfo,std::less<unsigned long>,std::allocator<std::pair<unsigned long const ,tagNamedTitleInfo> >,0> >::_Left, COMDAT

; 621  : 		{	// return reference to left pointer in node

  00000	55		 push	 ebp
  00001	8b ec		 mov	 ebp, esp

; 622  : 		return ((_Nodepref)(*_Pnode)._Left);

  00003	8b 45 08	 mov	 eax, DWORD PTR __Pnode$[ebp]

; 623  : 		}

  00006	5d		 pop	 ebp
  00007	c3		 ret	 0
?_Left@?$_Tree_val@V?$_Tmap_traits@KUtagNamedTitleInfo@@U?$less@K@std@@V?$allocator@U?$pair@$$CBKUtagNamedTitleInfo@@@std@@@3@$0A@@std@@@std@@SAAAPAU_Node@?$_Tree_nod@V?$_Tmap_traits@KUtagNamedTitleInfo@@U?$less@K@std@@V?$allocator@U?$pair@$$CBKUtagNamedTitleInfo@@@std@@@3@$0A@@std@@@2@PAU342@@Z ENDP ; std::_Tree_val<std::_Tmap_traits<unsigned long,tagNamedTitleInfo,std::less<unsigned long>,std::allocator<std::pair<unsigned long const ,tagNamedTitleInfo> >,0> >::_Left
_TEXT	ENDS
PUBLIC	?_Parent@?$_Tree_val@V?$_Tmap_traits@KUtagNamedTitleInfo@@U?$less@K@std@@V?$allocator@U?$pair@$$CBKUtagNamedTitleInfo@@@std@@@3@$0A@@std@@@std@@SAAAPAU_Node@?$_Tree_nod@V?$_Tmap_traits@KUtagNamedTitleInfo@@U?$less@K@std@@V?$allocator@U?$pair@$$CBKUtagNamedTitleInfo@@@std@@@3@$0A@@std@@@2@PAU342@@Z ; std::_Tree_val<std::_Tmap_traits<unsigned long,tagNamedTitleInfo,std::less<unsigned long>,std::allocator<std::pair<unsigned long const ,tagNamedTitleInfo> >,0> >::_Parent
; Function compile flags: /Ogsp
;	COMDAT ?_Parent@?$_Tree_val@V?$_Tmap_traits@KUtagNamedTitleInfo@@U?$less@K@std@@V?$allocator@U?$pair@$$CBKUtagNamedTitleInfo@@@std@@@3@$0A@@std@@@std@@SAAAPAU_Node@?$_Tree_nod@V?$_Tmap_traits@KUtagNamedTitleInfo@@U?$less@K@std@@V?$allocator@U?$pair@$$CBKUtagNamedTitleInfo@@@std@@@3@$0A@@std@@@2@PAU342@@Z
_TEXT	SEGMENT
__Pnode$ = 8						; size = 4
?_Parent@?$_Tree_val@V?$_Tmap_traits@KUtagNamedTitleInfo@@U?$less@K@std@@V?$allocator@U?$pair@$$CBKUtagNamedTitleInfo@@@std@@@3@$0A@@std@@@std@@SAAAPAU_Node@?$_Tree_nod@V?$_Tmap_traits@KUtagNamedTitleInfo@@U?$less@K@std@@V?$allocator@U?$pair@$$CBKUtagNamedTitleInfo@@@std@@@3@$0A@@std@@@2@PAU342@@Z PROC ; std::_Tree_val<std::_Tmap_traits<unsigned long,tagNamedTitleInfo,std::less<unsigned long>,std::allocator<std::pair<unsigned long const ,tagNamedTitleInfo> >,0> >::_Parent, COMDAT

; 626  : 		{	// return reference to parent pointer in node

  00000	55		 push	 ebp
  00001	8b ec		 mov	 ebp, esp

; 627  : 		return ((_Nodepref)(*_Pnode)._Parent);

  00003	8b 45 08	 mov	 eax, DWORD PTR __Pnode$[ebp]
  00006	83 c0 04	 add	 eax, 4

; 628  : 		}

  00009	5d		 pop	 ebp
  0000a	c3		 ret	 0
?_Parent@?$_Tree_val@V?$_Tmap_traits@KUtagNamedTitleInfo@@U?$less@K@std@@V?$allocator@U?$pair@$$CBKUtagNamedTitleInfo@@@std@@@3@$0A@@std@@@std@@SAAAPAU_Node@?$_Tree_nod@V?$_Tmap_traits@KUtagNamedTitleInfo@@U?$less@K@std@@V?$allocator@U?$pair@$$CBKUtagNamedTitleInfo@@@std@@@3@$0A@@std@@@2@PAU342@@Z ENDP ; std::_Tree_val<std::_Tmap_traits<unsigned long,tagNamedTitleInfo,std::less<unsigned long>,std::allocator<std::pair<unsigned long const ,tagNamedTitleInfo> >,0> >::_Parent
_TEXT	ENDS
PUBLIC	?_Right@?$_Tree_val@V?$_Tmap_traits@KUtagNamedTitleInfo@@U?$less@K@std@@V?$allocator@U?$pair@$$CBKUtagNamedTitleInfo@@@std@@@3@$0A@@std@@@std@@SAAAPAU_Node@?$_Tree_nod@V?$_Tmap_traits@KUtagNamedTitleInfo@@U?$less@K@std@@V?$allocator@U?$pair@$$CBKUtagNamedTitleInfo@@@std@@@3@$0A@@std@@@2@PAU342@@Z ; std::_Tree_val<std::_Tmap_traits<unsigned long,tagNamedTitleInfo,std::less<unsigned long>,std::allocator<std::pair<unsigned long const ,tagNamedTitleInfo> >,0> >::_Right
; Function compile flags: /Ogsp
;	COMDAT ?_Right@?$_Tree_val@V?$_Tmap_traits@KUtagNamedTitleInfo@@U?$less@K@std@@V?$allocator@U?$pair@$$CBKUtagNamedTitleInfo@@@std@@@3@$0A@@std@@@std@@SAAAPAU_Node@?$_Tree_nod@V?$_Tmap_traits@KUtagNamedTitleInfo@@U?$less@K@std@@V?$allocator@U?$pair@$$CBKUtagNamedTitleInfo@@@std@@@3@$0A@@std@@@2@PAU342@@Z
_TEXT	SEGMENT
__Pnode$ = 8						; size = 4
?_Right@?$_Tree_val@V?$_Tmap_traits@KUtagNamedTitleInfo@@U?$less@K@std@@V?$allocator@U?$pair@$$CBKUtagNamedTitleInfo@@@std@@@3@$0A@@std@@@std@@SAAAPAU_Node@?$_Tree_nod@V?$_Tmap_traits@KUtagNamedTitleInfo@@U?$less@K@std@@V?$allocator@U?$pair@$$CBKUtagNamedTitleInfo@@@std@@@3@$0A@@std@@@2@PAU342@@Z PROC ; std::_Tree_val<std::_Tmap_traits<unsigned long,tagNamedTitleInfo,std::less<unsigned long>,std::allocator<std::pair<unsigned long const ,tagNamedTitleInfo> >,0> >::_Right, COMDAT

; 631  : 		{	// return reference to right pointer in node

  00000	55		 push	 ebp
  00001	8b ec		 mov	 ebp, esp

; 632  : 		return ((_Nodepref)(*_Pnode)._Right);

  00003	8b 45 08	 mov	 eax, DWORD PTR __Pnode$[ebp]
  00006	83 c0 08	 add	 eax, 8

; 633  : 		}

  00009	5d		 pop	 ebp
  0000a	c3		 ret	 0
?_Right@?$_Tree_val@V?$_Tmap_traits@KUtagNamedTitleInfo@@U?$less@K@std@@V?$allocator@U?$pair@$$CBKUtagNamedTitleInfo@@@std@@@3@$0A@@std@@@std@@SAAAPAU_Node@?$_Tree_nod@V?$_Tmap_traits@KUtagNamedTitleInfo@@U?$less@K@std@@V?$allocator@U?$pair@$$CBKUtagNamedTitleInfo@@@std@@@3@$0A@@std@@@2@PAU342@@Z ENDP ; std::_Tree_val<std::_Tmap_traits<unsigned long,tagNamedTitleInfo,std::less<unsigned long>,std::allocator<std::pair<unsigned long const ,tagNamedTitleInfo> >,0> >::_Right
_TEXT	ENDS
PUBLIC	?_Myval@?$_Tree_val@V?$_Tmap_traits@KUtagNamedTitleInfo@@U?$less@K@std@@V?$allocator@U?$pair@$$CBKUtagNamedTitleInfo@@@std@@@3@$0A@@std@@@std@@SAAAU?$pair@$$CBKUtagNamedTitleInfo@@@2@PAU_Node@?$_Tree_nod@V?$_Tmap_traits@KUtagNamedTitleInfo@@U?$less@K@std@@V?$allocator@U?$pair@$$CBKUtagNamedTitleInfo@@@std@@@3@$0A@@std@@@2@@Z ; std::_Tree_val<std::_Tmap_traits<unsigned long,tagNamedTitleInfo,std::less<unsigned long>,std::allocator<std::pair<unsigned long const ,tagNamedTitleInfo> >,0> >::_Myval
; Function compile flags: /Ogsp
;	COMDAT ?_Myval@?$_Tree_val@V?$_Tmap_traits@KUtagNamedTitleInfo@@U?$less@K@std@@V?$allocator@U?$pair@$$CBKUtagNamedTitleInfo@@@std@@@3@$0A@@std@@@std@@SAAAU?$pair@$$CBKUtagNamedTitleInfo@@@2@PAU_Node@?$_Tree_nod@V?$_Tmap_traits@KUtagNamedTitleInfo@@U?$less@K@std@@V?$allocator@U?$pair@$$CBKUtagNamedTitleInfo@@@std@@@3@$0A@@std@@@2@@Z
_TEXT	SEGMENT
__Pnode$ = 8						; size = 4
?_Myval@?$_Tree_val@V?$_Tmap_traits@KUtagNamedTitleInfo@@U?$less@K@std@@V?$allocator@U?$pair@$$CBKUtagNamedTitleInfo@@@std@@@3@$0A@@std@@@std@@SAAAU?$pair@$$CBKUtagNamedTitleInfo@@@2@PAU_Node@?$_Tree_nod@V?$_Tmap_traits@KUtagNamedTitleInfo@@U?$less@K@std@@V?$allocator@U?$pair@$$CBKUtagNamedTitleInfo@@@std@@@3@$0A@@std@@@2@@Z PROC ; std::_Tree_val<std::_Tmap_traits<unsigned long,tagNamedTitleInfo,std::less<unsigned long>,std::allocator<std::pair<unsigned long const ,tagNamedTitleInfo> >,0> >::_Myval, COMDAT

; 636  : 		{	// return reference to value in node

  00000	55		 push	 ebp
  00001	8b ec		 mov	 ebp, esp

; 637  : 		return ((reference)(*_Pnode)._Myval);

  00003	8b 45 08	 mov	 eax, DWORD PTR __Pnode$[ebp]
  00006	83 c0 0c	 add	 eax, 12			; 0000000cH

; 638  : 		}

  00009	5d		 pop	 ebp
  0000a	c3		 ret	 0
?_Myval@?$_Tree_val@V?$_Tmap_traits@KUtagNamedTitleInfo@@U?$less@K@std@@V?$allocator@U?$pair@$$CBKUtagNamedTitleInfo@@@std@@@3@$0A@@std@@@std@@SAAAU?$pair@$$CBKUtagNamedTitleInfo@@@2@PAU_Node@?$_Tree_nod@V?$_Tmap_traits@KUtagNamedTitleInfo@@U?$less@K@std@@V?$allocator@U?$pair@$$CBKUtagNamedTitleInfo@@@std@@@3@$0A@@std@@@2@@Z ENDP ; std::_Tree_val<std::_Tmap_traits<unsigned long,tagNamedTitleInfo,std::less<unsigned long>,std::allocator<std::pair<unsigned long const ,tagNamedTitleInfo> >,0> >::_Myval
_TEXT	ENDS
PUBLIC	??0?$allocator@U?$pair@$$CBKUtagNamedTitleInfo@@@std@@@std@@QAE@ABV01@@Z ; std::allocator<std::pair<unsigned long const ,tagNamedTitleInfo> >::allocator<std::pair<unsigned long const ,tagNamedTitleInfo> >
; Function compile flags: /Ogsp
; File c:\program files (x86)\microsoft visual studio 10.0\vc\include\xmemory
;	COMDAT ??0?$allocator@U?$pair@$$CBKUtagNamedTitleInfo@@@std@@@std@@QAE@ABV01@@Z
_TEXT	SEGMENT
___formal$ = 8						; size = 4
??0?$allocator@U?$pair@$$CBKUtagNamedTitleInfo@@@std@@@std@@QAE@ABV01@@Z PROC ; std::allocator<std::pair<unsigned long const ,tagNamedTitleInfo> >::allocator<std::pair<unsigned long const ,tagNamedTitleInfo> >, COMDAT
; _this$ = ecx

; 165  : 	_ALLOCATOR(const _ALLOCATOR<_Ty>&) _THROW0()

  00000	8b c1		 mov	 eax, ecx

; 166  : 		{	// construct by copying (do nothing)
; 167  : 		}

  00002	c2 04 00	 ret	 4
??0?$allocator@U?$pair@$$CBKUtagNamedTitleInfo@@@std@@@std@@QAE@ABV01@@Z ENDP ; std::allocator<std::pair<unsigned long const ,tagNamedTitleInfo> >::allocator<std::pair<unsigned long const ,tagNamedTitleInfo> >
_TEXT	ENDS
PUBLIC	?deallocate@?$allocator@U_Node@?$_Tree_nod@V?$_Tmap_traits@KUtagNamedTitleInfo@@U?$less@K@std@@V?$allocator@U?$pair@$$CBKUtagNamedTitleInfo@@@std@@@3@$0A@@std@@@std@@@std@@QAEXPAU_Node@?$_Tree_nod@V?$_Tmap_traits@KUtagNamedTitleInfo@@U?$less@K@std@@V?$allocator@U?$pair@$$CBKUtagNamedTitleInfo@@@std@@@3@$0A@@std@@@2@I@Z ; std::allocator<std::_Tree_nod<std::_Tmap_traits<unsigned long,tagNamedTitleInfo,std::less<unsigned long>,std::allocator<std::pair<unsigned long const ,tagNamedTitleInfo> >,0> >::_Node>::deallocate
; Function compile flags: /Ogsp
;	COMDAT ?deallocate@?$allocator@U_Node@?$_Tree_nod@V?$_Tmap_traits@KUtagNamedTitleInfo@@U?$less@K@std@@V?$allocator@U?$pair@$$CBKUtagNamedTitleInfo@@@std@@@3@$0A@@std@@@std@@@std@@QAEXPAU_Node@?$_Tree_nod@V?$_Tmap_traits@KUtagNamedTitleInfo@@U?$less@K@std@@V?$allocator@U?$pair@$$CBKUtagNamedTitleInfo@@@std@@@3@$0A@@std@@@2@I@Z
_TEXT	SEGMENT
__Ptr$ = 8						; size = 4
___formal$ = 12						; size = 4
?deallocate@?$allocator@U_Node@?$_Tree_nod@V?$_Tmap_traits@KUtagNamedTitleInfo@@U?$less@K@std@@V?$allocator@U?$pair@$$CBKUtagNamedTitleInfo@@@std@@@3@$0A@@std@@@std@@@std@@QAEXPAU_Node@?$_Tree_nod@V?$_Tmap_traits@KUtagNamedTitleInfo@@U?$less@K@std@@V?$allocator@U?$pair@$$CBKUtagNamedTitleInfo@@@std@@@3@$0A@@std@@@2@I@Z PROC ; std::allocator<std::_Tree_nod<std::_Tmap_traits<unsigned long,tagNamedTitleInfo,std::less<unsigned long>,std::allocator<std::pair<unsigned long const ,tagNamedTitleInfo> >,0> >::_Node>::deallocate, COMDAT
; _this$ = ecx

; 181  : 		{	// deallocate object at _Ptr, ignore size

  00000	55		 push	 ebp
  00001	8b ec		 mov	 ebp, esp

; 182  : 		::operator delete(_Ptr);

  00003	ff 75 08	 push	 DWORD PTR __Ptr$[ebp]
  00006	e8 00 00 00 00	 call	 ??3@YAXPAX@Z		; operator delete
  0000b	59		 pop	 ecx

; 183  : 		}

  0000c	5d		 pop	 ebp
  0000d	c2 08 00	 ret	 8
?deallocate@?$allocator@U_Node@?$_Tree_nod@V?$_Tmap_traits@KUtagNamedTitleInfo@@U?$less@K@std@@V?$allocator@U?$pair@$$CBKUtagNamedTitleInfo@@@std@@@3@$0A@@std@@@std@@@std@@QAEXPAU_Node@?$_Tree_nod@V?$_Tmap_traits@KUtagNamedTitleInfo@@U?$less@K@std@@V?$allocator@U?$pair@$$CBKUtagNamedTitleInfo@@@std@@@3@$0A@@std@@@2@I@Z ENDP ; std::allocator<std::_Tree_nod<std::_Tmap_traits<unsigned long,tagNamedTitleInfo,std::less<unsigned long>,std::allocator<std::pair<unsigned long const ,tagNamedTitleInfo> >,0> >::_Node>::deallocate
_TEXT	ENDS
PUBLIC	??D?$_Tree_const_iterator@V?$_Tree_val@V?$_Tmap_traits@KUtagNamedTitleInfo@@U?$less@K@std@@V?$allocator@U?$pair@$$CBKUtagNamedTitleInfo@@@std@@@3@$0A@@std@@@std@@@std@@QBEABU?$pair@$$CBKUtagNamedTitleInfo@@@1@XZ ; std::_Tree_const_iterator<std::_Tree_val<std::_Tmap_traits<unsigned long,tagNamedTitleInfo,std::less<unsigned long>,std::allocator<std::pair<unsigned long const ,tagNamedTitleInfo> >,0> > >::operator*
; Function compile flags: /Ogsp
; File c:\program files (x86)\microsoft visual studio 10.0\vc\include\xtree
;	COMDAT ??D?$_Tree_const_iterator@V?$_Tree_val@V?$_Tmap_traits@KUtagNamedTitleInfo@@U?$less@K@std@@V?$allocator@U?$pair@$$CBKUtagNamedTitleInfo@@@std@@@3@$0A@@std@@@std@@@std@@QBEABU?$pair@$$CBKUtagNamedTitleInfo@@@1@XZ
_TEXT	SEGMENT
??D?$_Tree_const_iterator@V?$_Tree_val@V?$_Tmap_traits@KUtagNamedTitleInfo@@U?$less@K@std@@V?$allocator@U?$pair@$$CBKUtagNamedTitleInfo@@@std@@@3@$0A@@std@@@std@@@std@@QBEABU?$pair@$$CBKUtagNamedTitleInfo@@@1@XZ PROC ; std::_Tree_const_iterator<std::_Tree_val<std::_Tmap_traits<unsigned long,tagNamedTitleInfo,std::less<unsigned long>,std::allocator<std::pair<unsigned long const ,tagNamedTitleInfo> >,0> > >::operator*, COMDAT
; _this$ = ecx

; 231  :  #if _ITERATOR_DEBUG_LEVEL == 2
; 232  : 		if (this->_Getcont() == 0
; 233  : 			|| this->_Ptr == 0
; 234  : 			|| this->_Ptr == ((_Mytree *)this->_Getcont())->_Myhead)
; 235  : 			{	// report error
; 236  : 			_DEBUG_ERROR("map/set iterator not dereferencable");
; 237  : 			_SCL_SECURE_OUT_OF_RANGE;
; 238  : 			}
; 239  : 
; 240  :  #elif _ITERATOR_DEBUG_LEVEL == 1
; 241  : 		_SCL_SECURE_VALIDATE(this->_Getcont() != 0 && this->_Ptr != 0);
; 242  : 		_SCL_SECURE_VALIDATE_RANGE(this->_Ptr !=
; 243  : 			((_Mytree *)this->_Getcont())->_Myhead);
; 244  :  #endif /* _ITERATOR_DEBUG_LEVEL */
; 245  : 
; 246  : 		return (_Mytree::_Myval(this->_Ptr));

  00000	8b 01		 mov	 eax, DWORD PTR [ecx]
  00002	83 c0 0c	 add	 eax, 12			; 0000000cH

; 247  : 		}

  00005	c3		 ret	 0
??D?$_Tree_const_iterator@V?$_Tree_val@V?$_Tmap_traits@KUtagNamedTitleInfo@@U?$less@K@std@@V?$allocator@U?$pair@$$CBKUtagNamedTitleInfo@@@std@@@3@$0A@@std@@@std@@@std@@QBEABU?$pair@$$CBKUtagNamedTitleInfo@@@1@XZ ENDP ; std::_Tree_const_iterator<std::_Tree_val<std::_Tmap_traits<unsigned long,tagNamedTitleInfo,std::less<unsigned long>,std::allocator<std::pair<unsigned long const ,tagNamedTitleInfo> >,0> > >::operator*
_TEXT	ENDS
PUBLIC	?max_size@?$allocator@UtagNamedTitleGrade@@@std@@QBEIXZ ; std::allocator<tagNamedTitleGrade>::max_size
; Function compile flags: /Ogsp
; File c:\program files (x86)\microsoft visual studio 10.0\vc\include\xmemory
;	COMDAT ?max_size@?$allocator@UtagNamedTitleGrade@@@std@@QBEIXZ
_TEXT	SEGMENT
?max_size@?$allocator@UtagNamedTitleGrade@@@std@@QBEIXZ PROC ; std::allocator<tagNamedTitleGrade>::max_size, COMDAT
; _this$ = ecx

; 218  : 		_SIZT _Count = (_SIZT)(-1) / sizeof (_Ty);
; 219  : 		return (0 < _Count ? _Count : 1);

  00000	b8 cc cc cc 0c	 mov	 eax, 214748364		; 0cccccccH

; 220  : 		}

  00005	c3		 ret	 0
?max_size@?$allocator@UtagNamedTitleGrade@@@std@@QBEIXZ ENDP ; std::allocator<tagNamedTitleGrade>::max_size
_TEXT	ENDS
PUBLIC	?_Color@?$_Tree_val@V?$_Tmap_traits@KUtagNamedTitleInfo@@U?$less@K@std@@V?$allocator@U?$pair@$$CBKUtagNamedTitleInfo@@@std@@@3@$0A@@std@@@std@@SAAADPAU_Node@?$_Tree_nod@V?$_Tmap_traits@KUtagNamedTitleInfo@@U?$less@K@std@@V?$allocator@U?$pair@$$CBKUtagNamedTitleInfo@@@std@@@3@$0A@@std@@@2@@Z ; std::_Tree_val<std::_Tmap_traits<unsigned long,tagNamedTitleInfo,std::less<unsigned long>,std::allocator<std::pair<unsigned long const ,tagNamedTitleInfo> >,0> >::_Color
; Function compile flags: /Ogsp
; File c:\program files (x86)\microsoft visual studio 10.0\vc\include\xtree
;	COMDAT ?_Color@?$_Tree_val@V?$_Tmap_traits@KUtagNamedTitleInfo@@U?$less@K@std@@V?$allocator@U?$pair@$$CBKUtagNamedTitleInfo@@@std@@@3@$0A@@std@@@std@@SAAADPAU_Node@?$_Tree_nod@V?$_Tmap_traits@KUtagNamedTitleInfo@@U?$less@K@std@@V?$allocator@U?$pair@$$CBKUtagNamedTitleInfo@@@std@@@3@$0A@@std@@@2@@Z
_TEXT	SEGMENT
__Pnode$ = 8						; size = 4
?_Color@?$_Tree_val@V?$_Tmap_traits@KUtagNamedTitleInfo@@U?$less@K@std@@V?$allocator@U?$pair@$$CBKUtagNamedTitleInfo@@@std@@@3@$0A@@std@@@std@@SAAADPAU_Node@?$_Tree_nod@V?$_Tmap_traits@KUtagNamedTitleInfo@@U?$less@K@std@@V?$allocator@U?$pair@$$CBKUtagNamedTitleInfo@@@std@@@3@$0A@@std@@@2@@Z PROC ; std::_Tree_val<std::_Tmap_traits<unsigned long,tagNamedTitleInfo,std::less<unsigned long>,std::allocator<std::pair<unsigned long const ,tagNamedTitleInfo> >,0> >::_Color, COMDAT

; 606  : 		{	// return reference to color in node

  00000	55		 push	 ebp
  00001	8b ec		 mov	 ebp, esp

; 607  : 		return ((char&)(*_Pnode)._Color);

  00003	8b 45 08	 mov	 eax, DWORD PTR __Pnode$[ebp]
  00006	83 c0 34	 add	 eax, 52			; 00000034H

; 608  : 		}

  00009	5d		 pop	 ebp
  0000a	c3		 ret	 0
?_Color@?$_Tree_val@V?$_Tmap_traits@KUtagNamedTitleInfo@@U?$less@K@std@@V?$allocator@U?$pair@$$CBKUtagNamedTitleInfo@@@std@@@3@$0A@@std@@@std@@SAAADPAU_Node@?$_Tree_nod@V?$_Tmap_traits@KUtagNamedTitleInfo@@U?$less@K@std@@V?$allocator@U?$pair@$$CBKUtagNamedTitleInfo@@@std@@@3@$0A@@std@@@2@@Z ENDP ; std::_Tree_val<std::_Tmap_traits<unsigned long,tagNamedTitleInfo,std::less<unsigned long>,std::allocator<std::pair<unsigned long const ,tagNamedTitleInfo> >,0> >::_Color
_TEXT	ENDS
PUBLIC	??0?$_Tree_unchecked_const_iterator@V?$_Tree_val@V?$_Tmap_traits@KUtagNamedTitleInfo@@U?$less@K@std@@V?$allocator@U?$pair@$$CBKUtagNamedTitleInfo@@@std@@@3@$0A@@std@@@std@@U_Iterator_base0@2@@std@@QAE@PAU_Node@?$_Tree_nod@V?$_Tmap_traits@KUtagNamedTitleInfo@@U?$less@K@std@@V?$allocator@U?$pair@$$CBKUtagNamedTitleInfo@@@std@@@3@$0A@@std@@@1@PBV?$_Tree_val@V?$_Tmap_traits@KUtagNamedTitleInfo@@U?$less@K@std@@V?$allocator@U?$pair@$$CBKUtagNamedTitleInfo@@@std@@@3@$0A@@std@@@1@@Z ; std::_Tree_unchecked_const_iterator<std::_Tree_val<std::_Tmap_traits<unsigned long,tagNamedTitleInfo,std::less<unsigned long>,std::allocator<std::pair<unsigned long const ,tagNamedTitleInfo> >,0> >,std::_Iterator_base0>::_Tree_unchecked_const_iterator<std::_Tree_val<std::_Tmap_traits<unsigned long,tagNamedTitleInfo,std::less<unsigned long>,std::allocator<std::pair<unsigned long const ,tagNamedTitleInfo> >,0> >,std::_Iterator_base0>
; Function compile flags: /Ogsp
;	COMDAT ??0?$_Tree_unchecked_const_iterator@V?$_Tree_val@V?$_Tmap_traits@KUtagNamedTitleInfo@@U?$less@K@std@@V?$allocator@U?$pair@$$CBKUtagNamedTitleInfo@@@std@@@3@$0A@@std@@@std@@U_Iterator_base0@2@@std@@QAE@PAU_Node@?$_Tree_nod@V?$_Tmap_traits@KUtagNamedTitleInfo@@U?$less@K@std@@V?$allocator@U?$pair@$$CBKUtagNamedTitleInfo@@@std@@@3@$0A@@std@@@1@PBV?$_Tree_val@V?$_Tmap_traits@KUtagNamedTitleInfo@@U?$less@K@std@@V?$allocator@U?$pair@$$CBKUtagNamedTitleInfo@@@std@@@3@$0A@@std@@@1@@Z
_TEXT	SEGMENT
__Pnode$ = 8						; size = 4
__Plist$ = 12						; size = 4
??0?$_Tree_unchecked_const_iterator@V?$_Tree_val@V?$_Tmap_traits@KUtagNamedTitleInfo@@U?$less@K@std@@V?$allocator@U?$pair@$$CBKUtagNamedTitleInfo@@@std@@@3@$0A@@std@@@std@@U_Iterator_base0@2@@std@@QAE@PAU_Node@?$_Tree_nod@V?$_Tmap_traits@KUtagNamedTitleInfo@@U?$less@K@std@@V?$allocator@U?$pair@$$CBKUtagNamedTitleInfo@@@std@@@3@$0A@@std@@@1@PBV?$_Tree_val@V?$_Tmap_traits@KUtagNamedTitleInfo@@U?$less@K@std@@V?$allocator@U?$pair@$$CBKUtagNamedTitleInfo@@@std@@@3@$0A@@std@@@1@@Z PROC ; std::_Tree_unchecked_const_iterator<std::_Tree_val<std::_Tmap_traits<unsigned long,tagNamedTitleInfo,std::less<unsigned long>,std::allocator<std::pair<unsigned long const ,tagNamedTitleInfo> >,0> >,std::_Iterator_base0>::_Tree_unchecked_const_iterator<std::_Tree_val<std::_Tmap_traits<unsigned long,tagNamedTitleInfo,std::less<unsigned long>,std::allocator<std::pair<unsigned long const ,tagNamedTitleInfo> >,0> >,std::_Iterator_base0>, COMDAT
; _this$ = ecx

; 43   : 		{	// construct with node pointer _Pnode

  00000	55		 push	 ebp
  00001	8b ec		 mov	 ebp, esp
  00003	8b c1		 mov	 eax, ecx
  00005	8b 4d 08	 mov	 ecx, DWORD PTR __Pnode$[ebp]
  00008	89 08		 mov	 DWORD PTR [eax], ecx

; 44   : 		this->_Adopt(_Plist);
; 45   : 		}

  0000a	5d		 pop	 ebp
  0000b	c2 08 00	 ret	 8
??0?$_Tree_unchecked_const_iterator@V?$_Tree_val@V?$_Tmap_traits@KUtagNamedTitleInfo@@U?$less@K@std@@V?$allocator@U?$pair@$$CBKUtagNamedTitleInfo@@@std@@@3@$0A@@std@@@std@@U_Iterator_base0@2@@std@@QAE@PAU_Node@?$_Tree_nod@V?$_Tmap_traits@KUtagNamedTitleInfo@@U?$less@K@std@@V?$allocator@U?$pair@$$CBKUtagNamedTitleInfo@@@std@@@3@$0A@@std@@@1@PBV?$_Tree_val@V?$_Tmap_traits@KUtagNamedTitleInfo@@U?$less@K@std@@V?$allocator@U?$pair@$$CBKUtagNamedTitleInfo@@@std@@@3@$0A@@std@@@1@@Z ENDP ; std::_Tree_unchecked_const_iterator<std::_Tree_val<std::_Tmap_traits<unsigned long,tagNamedTitleInfo,std::less<unsigned long>,std::allocator<std::pair<unsigned long const ,tagNamedTitleInfo> >,0> >,std::_Iterator_base0>::_Tree_unchecked_const_iterator<std::_Tree_val<std::_Tmap_traits<unsigned long,tagNamedTitleInfo,std::less<unsigned long>,std::allocator<std::pair<unsigned long const ,tagNamedTitleInfo> >,0> >,std::_Iterator_base0>
_TEXT	ENDS
PUBLIC	?_Max@?$_Tree_val@V?$_Tmap_traits@KUtagNamedTitleInfo@@U?$less@K@std@@V?$allocator@U?$pair@$$CBKUtagNamedTitleInfo@@@std@@@3@$0A@@std@@@std@@SAPAU_Node@?$_Tree_nod@V?$_Tmap_traits@KUtagNamedTitleInfo@@U?$less@K@std@@V?$allocator@U?$pair@$$CBKUtagNamedTitleInfo@@@std@@@3@$0A@@std@@@2@PAU342@@Z ; std::_Tree_val<std::_Tmap_traits<unsigned long,tagNamedTitleInfo,std::less<unsigned long>,std::allocator<std::pair<unsigned long const ,tagNamedTitleInfo> >,0> >::_Max
; Function compile flags: /Ogsp
;	COMDAT ?_Max@?$_Tree_val@V?$_Tmap_traits@KUtagNamedTitleInfo@@U?$less@K@std@@V?$allocator@U?$pair@$$CBKUtagNamedTitleInfo@@@std@@@3@$0A@@std@@@std@@SAPAU_Node@?$_Tree_nod@V?$_Tmap_traits@KUtagNamedTitleInfo@@U?$less@K@std@@V?$allocator@U?$pair@$$CBKUtagNamedTitleInfo@@@std@@@3@$0A@@std@@@2@PAU342@@Z
_TEXT	SEGMENT
__Pnode$ = 8						; size = 4
?_Max@?$_Tree_val@V?$_Tmap_traits@KUtagNamedTitleInfo@@U?$less@K@std@@V?$allocator@U?$pair@$$CBKUtagNamedTitleInfo@@@std@@@3@$0A@@std@@@std@@SAPAU_Node@?$_Tree_nod@V?$_Tmap_traits@KUtagNamedTitleInfo@@U?$less@K@std@@V?$allocator@U?$pair@$$CBKUtagNamedTitleInfo@@@std@@@3@$0A@@std@@@2@PAU342@@Z PROC ; std::_Tree_val<std::_Tmap_traits<unsigned long,tagNamedTitleInfo,std::less<unsigned long>,std::allocator<std::pair<unsigned long const ,tagNamedTitleInfo> >,0> >::_Max, COMDAT

; 641  : 		{	// return rightmost node in subtree at _Pnode

  00000	55		 push	 ebp
  00001	8b ec		 mov	 ebp, esp

; 642  : 		while (!_Isnil(_Right(_Pnode)))

  00003	8b 45 08	 mov	 eax, DWORD PTR __Pnode$[ebp]
  00006	eb 02		 jmp	 SHORT $LN14@Max
$LL2@Max:

; 643  : 			_Pnode = _Right(_Pnode);

  00008	8b c1		 mov	 eax, ecx
$LN14@Max:

; 642  : 		while (!_Isnil(_Right(_Pnode)))

  0000a	8b 48 08	 mov	 ecx, DWORD PTR [eax+8]
  0000d	80 79 35 00	 cmp	 BYTE PTR [ecx+53], 0
  00011	74 f5		 je	 SHORT $LL2@Max

; 644  : 		return (_Pnode);
; 645  : 		}

  00013	5d		 pop	 ebp
  00014	c3		 ret	 0
?_Max@?$_Tree_val@V?$_Tmap_traits@KUtagNamedTitleInfo@@U?$less@K@std@@V?$allocator@U?$pair@$$CBKUtagNamedTitleInfo@@@std@@@3@$0A@@std@@@std@@SAPAU_Node@?$_Tree_nod@V?$_Tmap_traits@KUtagNamedTitleInfo@@U?$less@K@std@@V?$allocator@U?$pair@$$CBKUtagNamedTitleInfo@@@std@@@3@$0A@@std@@@2@PAU342@@Z ENDP ; std::_Tree_val<std::_Tmap_traits<unsigned long,tagNamedTitleInfo,std::less<unsigned long>,std::allocator<std::pair<unsigned long const ,tagNamedTitleInfo> >,0> >::_Max
_TEXT	ENDS
PUBLIC	?_Min@?$_Tree_val@V?$_Tmap_traits@KUtagNamedTitleInfo@@U?$less@K@std@@V?$allocator@U?$pair@$$CBKUtagNamedTitleInfo@@@std@@@3@$0A@@std@@@std@@SAPAU_Node@?$_Tree_nod@V?$_Tmap_traits@KUtagNamedTitleInfo@@U?$less@K@std@@V?$allocator@U?$pair@$$CBKUtagNamedTitleInfo@@@std@@@3@$0A@@std@@@2@PAU342@@Z ; std::_Tree_val<std::_Tmap_traits<unsigned long,tagNamedTitleInfo,std::less<unsigned long>,std::allocator<std::pair<unsigned long const ,tagNamedTitleInfo> >,0> >::_Min
; Function compile flags: /Ogsp
;	COMDAT ?_Min@?$_Tree_val@V?$_Tmap_traits@KUtagNamedTitleInfo@@U?$less@K@std@@V?$allocator@U?$pair@$$CBKUtagNamedTitleInfo@@@std@@@3@$0A@@std@@@std@@SAPAU_Node@?$_Tree_nod@V?$_Tmap_traits@KUtagNamedTitleInfo@@U?$less@K@std@@V?$allocator@U?$pair@$$CBKUtagNamedTitleInfo@@@std@@@3@$0A@@std@@@2@PAU342@@Z
_TEXT	SEGMENT
__Pnode$ = 8						; size = 4
?_Min@?$_Tree_val@V?$_Tmap_traits@KUtagNamedTitleInfo@@U?$less@K@std@@V?$allocator@U?$pair@$$CBKUtagNamedTitleInfo@@@std@@@3@$0A@@std@@@std@@SAPAU_Node@?$_Tree_nod@V?$_Tmap_traits@KUtagNamedTitleInfo@@U?$less@K@std@@V?$allocator@U?$pair@$$CBKUtagNamedTitleInfo@@@std@@@3@$0A@@std@@@2@PAU342@@Z PROC ; std::_Tree_val<std::_Tmap_traits<unsigned long,tagNamedTitleInfo,std::less<unsigned long>,std::allocator<std::pair<unsigned long const ,tagNamedTitleInfo> >,0> >::_Min, COMDAT

; 648  : 		{	// return leftmost node in subtree at _Pnode

  00000	55		 push	 ebp
  00001	8b ec		 mov	 ebp, esp

; 649  : 		while (!_Isnil(_Left(_Pnode)))

  00003	8b 45 08	 mov	 eax, DWORD PTR __Pnode$[ebp]
  00006	eb 02		 jmp	 SHORT $LN14@Min
$LL2@Min:

; 650  : 			_Pnode = _Left(_Pnode);

  00008	8b c1		 mov	 eax, ecx
$LN14@Min:

; 649  : 		while (!_Isnil(_Left(_Pnode)))

  0000a	8b 08		 mov	 ecx, DWORD PTR [eax]
  0000c	80 79 35 00	 cmp	 BYTE PTR [ecx+53], 0
  00010	74 f6		 je	 SHORT $LL2@Min

; 651  : 		return (_Pnode);
; 652  : 		}

  00012	5d		 pop	 ebp
  00013	c3		 ret	 0
?_Min@?$_Tree_val@V?$_Tmap_traits@KUtagNamedTitleInfo@@U?$less@K@std@@V?$allocator@U?$pair@$$CBKUtagNamedTitleInfo@@@std@@@3@$0A@@std@@@std@@SAPAU_Node@?$_Tree_nod@V?$_Tmap_traits@KUtagNamedTitleInfo@@U?$less@K@std@@V?$allocator@U?$pair@$$CBKUtagNamedTitleInfo@@@std@@@3@$0A@@std@@@2@PAU342@@Z ENDP ; std::_Tree_val<std::_Tmap_traits<unsigned long,tagNamedTitleInfo,std::less<unsigned long>,std::allocator<std::pair<unsigned long const ,tagNamedTitleInfo> >,0> >::_Min
_TEXT	ENDS
PUBLIC	??0?$_Tmap_traits@KUtagNamedTitleInfo@@U?$less@K@std@@V?$allocator@U?$pair@$$CBKUtagNamedTitleInfo@@@std@@@3@$0A@@std@@QAE@U?$less@K@1@@Z ; std::_Tmap_traits<unsigned long,tagNamedTitleInfo,std::less<unsigned long>,std::allocator<std::pair<unsigned long const ,tagNamedTitleInfo> >,0>::_Tmap_traits<unsigned long,tagNamedTitleInfo,std::less<unsigned long>,std::allocator<std::pair<unsigned long const ,tagNamedTitleInfo> >,0>
; Function compile flags: /Ogsp
; File c:\program files (x86)\microsoft visual studio 10.0\vc\include\map
;	COMDAT ??0?$_Tmap_traits@KUtagNamedTitleInfo@@U?$less@K@std@@V?$allocator@U?$pair@$$CBKUtagNamedTitleInfo@@@std@@@3@$0A@@std@@QAE@U?$less@K@1@@Z
_TEXT	SEGMENT
__Parg$ = 8						; size = 1
??0?$_Tmap_traits@KUtagNamedTitleInfo@@U?$less@K@std@@V?$allocator@U?$pair@$$CBKUtagNamedTitleInfo@@@std@@@3@$0A@@std@@QAE@U?$less@K@1@@Z PROC ; std::_Tmap_traits<unsigned long,tagNamedTitleInfo,std::less<unsigned long>,std::allocator<std::pair<unsigned long const ,tagNamedTitleInfo> >,0>::_Tmap_traits<unsigned long,tagNamedTitleInfo,std::less<unsigned long>,std::allocator<std::pair<unsigned long const ,tagNamedTitleInfo> >,0>, COMDAT
; _this$ = ecx

; 40   : 		{	// construct with specified comparator

  00000	8b c1		 mov	 eax, ecx

; 41   : 		}

  00002	c2 04 00	 ret	 4
??0?$_Tmap_traits@KUtagNamedTitleInfo@@U?$less@K@std@@V?$allocator@U?$pair@$$CBKUtagNamedTitleInfo@@@std@@@3@$0A@@std@@QAE@U?$less@K@1@@Z ENDP ; std::_Tmap_traits<unsigned long,tagNamedTitleInfo,std::less<unsigned long>,std::allocator<std::pair<unsigned long const ,tagNamedTitleInfo> >,0>::_Tmap_traits<unsigned long,tagNamedTitleInfo,std::less<unsigned long>,std::allocator<std::pair<unsigned long const ,tagNamedTitleInfo> >,0>
_TEXT	ENDS
PUBLIC	??E?$_Tree_unchecked_const_iterator@V?$_Tree_val@V?$_Tmap_traits@KUtagNamedTitleInfo@@U?$less@K@std@@V?$allocator@U?$pair@$$CBKUtagNamedTitleInfo@@@std@@@3@$0A@@std@@@std@@U_Iterator_base0@2@@std@@QAEAAV01@XZ ; std::_Tree_unchecked_const_iterator<std::_Tree_val<std::_Tmap_traits<unsigned long,tagNamedTitleInfo,std::less<unsigned long>,std::allocator<std::pair<unsigned long const ,tagNamedTitleInfo> >,0> >,std::_Iterator_base0>::operator++
; Function compile flags: /Ogsp
; File c:\program files (x86)\microsoft visual studio 10.0\vc\include\xtree
;	COMDAT ??E?$_Tree_unchecked_const_iterator@V?$_Tree_val@V?$_Tmap_traits@KUtagNamedTitleInfo@@U?$less@K@std@@V?$allocator@U?$pair@$$CBKUtagNamedTitleInfo@@@std@@@3@$0A@@std@@@std@@U_Iterator_base0@2@@std@@QAEAAV01@XZ
_TEXT	SEGMENT
??E?$_Tree_unchecked_const_iterator@V?$_Tree_val@V?$_Tmap_traits@KUtagNamedTitleInfo@@U?$less@K@std@@V?$allocator@U?$pair@$$CBKUtagNamedTitleInfo@@@std@@@3@$0A@@std@@@std@@U_Iterator_base0@2@@std@@QAEAAV01@XZ PROC ; std::_Tree_unchecked_const_iterator<std::_Tree_val<std::_Tmap_traits<unsigned long,tagNamedTitleInfo,std::less<unsigned long>,std::allocator<std::pair<unsigned long const ,tagNamedTitleInfo> >,0> >,std::_Iterator_base0>::operator++, COMDAT
; _this$ = ecx

; 58   : 		{	// preincrement

  00000	8b c1		 mov	 eax, ecx

; 59   : 		if (_Mytree::_Isnil(_Ptr))

  00002	8b 08		 mov	 ecx, DWORD PTR [eax]
  00004	53		 push	 ebx
  00005	32 db		 xor	 bl, bl
  00007	38 59 35	 cmp	 BYTE PTR [ecx+53], bl
  0000a	75 2d		 jne	 SHORT $LN3@operator

; 60   : 			;	// end() shouldn't be incremented, don't move
; 61   : 		else if (!_Mytree::_Isnil(_Mytree::_Right(_Ptr)))

  0000c	8b 51 08	 mov	 edx, DWORD PTR [ecx+8]
  0000f	38 5a 35	 cmp	 BYTE PTR [edx+53], bl
  00012	75 0d		 jne	 SHORT $LN34@operator

; 62   : 			_Ptr = _Mytree::_Min(
; 63   : 				_Mytree::_Right(_Ptr));	// ==> smallest of right subtree

$LL18@operator:
  00014	8b ca		 mov	 ecx, edx
  00016	8b 11		 mov	 edx, DWORD PTR [ecx]
  00018	38 5a 35	 cmp	 BYTE PTR [edx+53], bl
  0001b	74 f7		 je	 SHORT $LL18@operator
  0001d	89 08		 mov	 DWORD PTR [eax], ecx
  0001f	5b		 pop	 ebx

; 71   : 			}
; 72   : 		return (*this);
; 73   : 		}

  00020	c3		 ret	 0
$LN34@operator:

; 64   : 		else
; 65   : 			{	// climb looking for right subtree
; 66   : 			_Nodeptr _Pnode;
; 67   : 			while (!_Mytree::_Isnil(_Pnode = _Mytree::_Parent(_Ptr))
; 68   : 				&& _Ptr == _Mytree::_Right(_Pnode))

  00021	8b 51 04	 mov	 edx, DWORD PTR [ecx+4]
  00024	eb 0c		 jmp	 SHORT $LN38@operator
$LL2@operator:
  00026	8b 08		 mov	 ecx, DWORD PTR [eax]
  00028	3b 4a 08	 cmp	 ecx, DWORD PTR [edx+8]
  0002b	75 0a		 jne	 SHORT $LN1@operator

; 69   : 				_Ptr = _Pnode;	// ==> parent while right subtree

  0002d	89 10		 mov	 DWORD PTR [eax], edx
  0002f	8b 52 04	 mov	 edx, DWORD PTR [edx+4]
$LN38@operator:

; 64   : 		else
; 65   : 			{	// climb looking for right subtree
; 66   : 			_Nodeptr _Pnode;
; 67   : 			while (!_Mytree::_Isnil(_Pnode = _Mytree::_Parent(_Ptr))
; 68   : 				&& _Ptr == _Mytree::_Right(_Pnode))

  00032	38 5a 35	 cmp	 BYTE PTR [edx+53], bl
  00035	74 ef		 je	 SHORT $LL2@operator
$LN1@operator:

; 70   : 			_Ptr = _Pnode;	// ==> parent (head if end())

  00037	89 10		 mov	 DWORD PTR [eax], edx
$LN3@operator:
  00039	5b		 pop	 ebx

; 71   : 			}
; 72   : 		return (*this);
; 73   : 		}

  0003a	c3		 ret	 0
??E?$_Tree_unchecked_const_iterator@V?$_Tree_val@V?$_Tmap_traits@KUtagNamedTitleInfo@@U?$less@K@std@@V?$allocator@U?$pair@$$CBKUtagNamedTitleInfo@@@std@@@3@$0A@@std@@@std@@U_Iterator_base0@2@@std@@QAEAAV01@XZ ENDP ; std::_Tree_unchecked_const_iterator<std::_Tree_val<std::_Tmap_traits<unsigned long,tagNamedTitleInfo,std::less<unsigned long>,std::allocator<std::pair<unsigned long const ,tagNamedTitleInfo> >,0> >,std::_Iterator_base0>::operator++
_TEXT	ENDS
PUBLIC	??$addressof@$$CBUtagNamedTitleGrade@@@std@@YAPBUtagNamedTitleGrade@@ABU1@@Z ; std::addressof<tagNamedTitleGrade const >
; Function compile flags: /Ogsp
; File c:\program files (x86)\microsoft visual studio 10.0\vc\include\xmemory
;	COMDAT ??$addressof@$$CBUtagNamedTitleGrade@@@std@@YAPBUtagNamedTitleGrade@@ABU1@@Z
_TEXT	SEGMENT
__Val$ = 8						; size = 4
??$addressof@$$CBUtagNamedTitleGrade@@@std@@YAPBUtagNamedTitleGrade@@ABU1@@Z PROC ; std::addressof<tagNamedTitleGrade const >, COMDAT

; 110  : 	{	// return address of _Val

  00000	55		 push	 ebp
  00001	8b ec		 mov	 ebp, esp

; 111  : 	return ((_Ty *) &(char&)_Val);

  00003	8b 45 08	 mov	 eax, DWORD PTR __Val$[ebp]

; 112  : 	}

  00006	5d		 pop	 ebp
  00007	c3		 ret	 0
??$addressof@$$CBUtagNamedTitleGrade@@@std@@YAPBUtagNamedTitleGrade@@ABU1@@Z ENDP ; std::addressof<tagNamedTitleGrade const >
_TEXT	ENDS
PUBLIC	??$addressof@U?$pair@$$CBKUtagNamedTitleInfo@@@std@@@std@@YAPAU?$pair@$$CBKUtagNamedTitleInfo@@@0@AAU10@@Z ; std::addressof<std::pair<unsigned long const ,tagNamedTitleInfo> >
; Function compile flags: /Ogsp
;	COMDAT ??$addressof@U?$pair@$$CBKUtagNamedTitleInfo@@@std@@@std@@YAPAU?$pair@$$CBKUtagNamedTitleInfo@@@0@AAU10@@Z
_TEXT	SEGMENT
__Val$ = 8						; size = 4
??$addressof@U?$pair@$$CBKUtagNamedTitleInfo@@@std@@@std@@YAPAU?$pair@$$CBKUtagNamedTitleInfo@@@0@AAU10@@Z PROC ; std::addressof<std::pair<unsigned long const ,tagNamedTitleInfo> >, COMDAT

; 110  : 	{	// return address of _Val

  00000	55		 push	 ebp
  00001	8b ec		 mov	 ebp, esp

; 111  : 	return ((_Ty *) &(char&)_Val);

  00003	8b 45 08	 mov	 eax, DWORD PTR __Val$[ebp]

; 112  : 	}

  00006	5d		 pop	 ebp
  00007	c3		 ret	 0
??$addressof@U?$pair@$$CBKUtagNamedTitleInfo@@@std@@@std@@YAPAU?$pair@$$CBKUtagNamedTitleInfo@@@0@AAU10@@Z ENDP ; std::addressof<std::pair<unsigned long const ,tagNamedTitleInfo> >
_TEXT	ENDS
PUBLIC	??$_Kfn@$$CBKUtagNamedTitleInfo@@@?$_Tmap_traits@KUtagNamedTitleInfo@@U?$less@K@std@@V?$allocator@U?$pair@$$CBKUtagNamedTitleInfo@@@std@@@3@$0A@@std@@SAABKABU?$pair@$$CBKUtagNamedTitleInfo@@@1@@Z ; std::_Tmap_traits<unsigned long,tagNamedTitleInfo,std::less<unsigned long>,std::allocator<std::pair<unsigned long const ,tagNamedTitleInfo> >,0>::_Kfn<unsigned long const ,tagNamedTitleInfo>
; Function compile flags: /Ogsp
; File c:\program files (x86)\microsoft visual studio 10.0\vc\include\map
;	COMDAT ??$_Kfn@$$CBKUtagNamedTitleInfo@@@?$_Tmap_traits@KUtagNamedTitleInfo@@U?$less@K@std@@V?$allocator@U?$pair@$$CBKUtagNamedTitleInfo@@@std@@@3@$0A@@std@@SAABKABU?$pair@$$CBKUtagNamedTitleInfo@@@1@@Z
_TEXT	SEGMENT
__Val$ = 8						; size = 4
??$_Kfn@$$CBKUtagNamedTitleInfo@@@?$_Tmap_traits@KUtagNamedTitleInfo@@U?$less@K@std@@V?$allocator@U?$pair@$$CBKUtagNamedTitleInfo@@@std@@@3@$0A@@std@@SAABKABU?$pair@$$CBKUtagNamedTitleInfo@@@1@@Z PROC ; std::_Tmap_traits<unsigned long,tagNamedTitleInfo,std::less<unsigned long>,std::allocator<std::pair<unsigned long const ,tagNamedTitleInfo> >,0>::_Kfn<unsigned long const ,tagNamedTitleInfo>, COMDAT

; 66   : 		static const _Kty& _Kfn(const _STD pair<_Ty1, _Ty2>& _Val)

  00000	55		 push	 ebp
  00001	8b ec		 mov	 ebp, esp

; 67   : 		{	// extract key from element value
; 68   : 		return (_Val.first);

  00003	8b 45 08	 mov	 eax, DWORD PTR __Val$[ebp]

; 69   : 		}

  00006	5d		 pop	 ebp
  00007	c3		 ret	 0
??$_Kfn@$$CBKUtagNamedTitleInfo@@@?$_Tmap_traits@KUtagNamedTitleInfo@@U?$less@K@std@@V?$allocator@U?$pair@$$CBKUtagNamedTitleInfo@@@std@@@3@$0A@@std@@SAABKABU?$pair@$$CBKUtagNamedTitleInfo@@@1@@Z ENDP ; std::_Tmap_traits<unsigned long,tagNamedTitleInfo,std::less<unsigned long>,std::allocator<std::pair<unsigned long const ,tagNamedTitleInfo> >,0>::_Kfn<unsigned long const ,tagNamedTitleInfo>
_TEXT	ENDS
PUBLIC	__TI2?AVbad_alloc@std@@
PUBLIC	??$_Allocate@UtagNamedTitleGrade@@@std@@YAPAUtagNamedTitleGrade@@IPAU1@@Z ; std::_Allocate<tagNamedTitleGrade>
PUBLIC	__CTA2?AVbad_alloc@std@@
PUBLIC	__CT??_R0?AVbad_alloc@std@@@8??0bad_alloc@std@@QAE@ABV01@@Z12
PUBLIC	??0bad_alloc@std@@QAE@ABV01@@Z			; std::bad_alloc::bad_alloc
PUBLIC	__CT??_R0?AVexception@std@@@8??0exception@std@@QAE@ABV01@@Z12
EXTRN	??2@YAPAXI@Z:PROC				; operator new
EXTRN	__CxxThrowException@8:PROC
EXTRN	??0exception@std@@QAE@ABV01@@Z:PROC		; std::exception::exception
;	COMDAT __CT??_R0?AVexception@std@@@8??0exception@std@@QAE@ABV01@@Z12
; File c:\program files (x86)\microsoft visual studio 10.0\vc\include\exception
xdata$x	SEGMENT
__CT??_R0?AVexception@std@@@8??0exception@std@@QAE@ABV01@@Z12 DD 00H
	DD	FLAT:??_R0?AVexception@std@@@8
	DD	00H
	DD	0ffffffffH
	ORG $+4
	DD	0cH
	DD	FLAT:??0exception@std@@QAE@ABV01@@Z
xdata$x	ENDS
;	COMDAT __CT??_R0?AVbad_alloc@std@@@8??0bad_alloc@std@@QAE@ABV01@@Z12
xdata$x	SEGMENT
__CT??_R0?AVbad_alloc@std@@@8??0bad_alloc@std@@QAE@ABV01@@Z12 DD 00H
	DD	FLAT:??_R0?AVbad_alloc@std@@@8
	DD	00H
	DD	0ffffffffH
	ORG $+4
	DD	0cH
	DD	FLAT:??0bad_alloc@std@@QAE@ABV01@@Z
xdata$x	ENDS
;	COMDAT __CTA2?AVbad_alloc@std@@
xdata$x	SEGMENT
__CTA2?AVbad_alloc@std@@ DD 02H
	DD	FLAT:__CT??_R0?AVbad_alloc@std@@@8??0bad_alloc@std@@QAE@ABV01@@Z12
	DD	FLAT:__CT??_R0?AVexception@std@@@8??0exception@std@@QAE@ABV01@@Z12
xdata$x	ENDS
;	COMDAT __TI2?AVbad_alloc@std@@
xdata$x	SEGMENT
__TI2?AVbad_alloc@std@@ DD 00H
	DD	FLAT:??1bad_alloc@std@@UAE@XZ
	DD	00H
	DD	FLAT:__CTA2?AVbad_alloc@std@@
; Function compile flags: /Ogsp
; File c:\program files (x86)\microsoft visual studio 10.0\vc\include\xmemory
xdata$x	ENDS
;	COMDAT ??$_Allocate@UtagNamedTitleGrade@@@std@@YAPAUtagNamedTitleGrade@@IPAU1@@Z
_TEXT	SEGMENT
$T537057 = -12						; size = 12
$T537062 = 8						; size = 4
__Count$ = 8						; size = 4
___formal$ = 12						; size = 4
??$_Allocate@UtagNamedTitleGrade@@@std@@YAPAUtagNamedTitleGrade@@IPAU1@@Z PROC ; std::_Allocate<tagNamedTitleGrade>, COMDAT

; 30   : 	{	// allocate storage for _Count elements of type _Ty

  00000	55		 push	 ebp
  00001	8b ec		 mov	 ebp, esp

; 31   : 	void *_Ptr = 0;
; 32   : 
; 33   : 	if (_Count <= 0)

  00003	8b 4d 08	 mov	 ecx, DWORD PTR __Count$[ebp]
  00006	83 ec 0c	 sub	 esp, 12			; 0000000cH
  00009	33 c0		 xor	 eax, eax
  0000b	85 c9		 test	 ecx, ecx

; 34   : 		_Count = 0;
; 35   : 	else if (((_SIZT)(-1) / sizeof (_Ty) < _Count)

  0000d	74 3c		 je	 SHORT $LN5@Allocate

; 36   : 		|| (_Ptr = ::operator new(_Count * sizeof (_Ty))) == 0)

  0000f	81 f9 cc cc cc
	0c		 cmp	 ecx, 214748364		; 0cccccccH
  00015	77 0e		 ja	 SHORT $LN1@Allocate
  00017	6b c9 14	 imul	 ecx, 20			; 00000014H
  0001a	51		 push	 ecx
  0001b	e8 00 00 00 00	 call	 ??2@YAPAXI@Z		; operator new
  00020	59		 pop	 ecx
  00021	85 c0		 test	 eax, eax

; 38   : 
; 39   : 	return ((_Ty _FARQ *)_Ptr);

  00023	75 26		 jne	 SHORT $LN5@Allocate
$LN1@Allocate:

; 37   : 		_THROW_NCEE(bad_alloc, 0);

  00025	83 65 08 00	 and	 DWORD PTR $T537062[ebp], 0
  00029	8d 45 08	 lea	 eax, DWORD PTR $T537062[ebp]
  0002c	50		 push	 eax
  0002d	8d 4d f4	 lea	 ecx, DWORD PTR $T537057[ebp]
  00030	ff 15 00 00 00
	00		 call	 DWORD PTR __imp_??0exception@std@@QAE@ABQBD@Z
  00036	68 00 00 00 00	 push	 OFFSET __TI2?AVbad_alloc@std@@
  0003b	8d 45 f4	 lea	 eax, DWORD PTR $T537057[ebp]
  0003e	50		 push	 eax
  0003f	c7 45 f4 00 00
	00 00		 mov	 DWORD PTR $T537057[ebp], OFFSET ??_7bad_alloc@std@@6B@
  00046	e8 00 00 00 00	 call	 __CxxThrowException@8
$LN10@Allocate:
$LN5@Allocate:

; 40   : 	}

  0004b	c9		 leave
  0004c	c3		 ret	 0
$LN9@Allocate:
??$_Allocate@UtagNamedTitleGrade@@@std@@YAPAUtagNamedTitleGrade@@IPAU1@@Z ENDP ; std::_Allocate<tagNamedTitleGrade>
_TEXT	ENDS
PUBLIC	??$?0U?$pair@$$CBKUtagNamedTitleInfo@@@std@@@?$allocator@U_Node@?$_Tree_nod@V?$_Tmap_traits@KUtagNamedTitleInfo@@U?$less@K@std@@V?$allocator@U?$pair@$$CBKUtagNamedTitleInfo@@@std@@@3@$0A@@std@@@std@@@std@@QAE@ABV?$allocator@U?$pair@$$CBKUtagNamedTitleInfo@@@std@@@1@@Z ; std::allocator<std::_Tree_nod<std::_Tmap_traits<unsigned long,tagNamedTitleInfo,std::less<unsigned long>,std::allocator<std::pair<unsigned long const ,tagNamedTitleInfo> >,0> >::_Node>::allocator<std::_Tree_nod<std::_Tmap_traits<unsigned long,tagNamedTitleInfo,std::less<unsigned long>,std::allocator<std::pair<unsigned long const ,tagNamedTitleInfo> >,0> >::_Node><std::pair<unsigned long const ,tagNamedTitleInfo> >
; Function compile flags: /Ogsp
;	COMDAT ??$?0U?$pair@$$CBKUtagNamedTitleInfo@@@std@@@?$allocator@U_Node@?$_Tree_nod@V?$_Tmap_traits@KUtagNamedTitleInfo@@U?$less@K@std@@V?$allocator@U?$pair@$$CBKUtagNamedTitleInfo@@@std@@@3@$0A@@std@@@std@@@std@@QAE@ABV?$allocator@U?$pair@$$CBKUtagNamedTitleInfo@@@std@@@1@@Z
_TEXT	SEGMENT
___formal$ = 8						; size = 4
??$?0U?$pair@$$CBKUtagNamedTitleInfo@@@std@@@?$allocator@U_Node@?$_Tree_nod@V?$_Tmap_traits@KUtagNamedTitleInfo@@U?$less@K@std@@V?$allocator@U?$pair@$$CBKUtagNamedTitleInfo@@@std@@@3@$0A@@std@@@std@@@std@@QAE@ABV?$allocator@U?$pair@$$CBKUtagNamedTitleInfo@@@std@@@1@@Z PROC ; std::allocator<std::_Tree_nod<std::_Tmap_traits<unsigned long,tagNamedTitleInfo,std::less<unsigned long>,std::allocator<std::pair<unsigned long const ,tagNamedTitleInfo> >,0> >::_Node>::allocator<std::_Tree_nod<std::_Tmap_traits<unsigned long,tagNamedTitleInfo,std::less<unsigned long>,std::allocator<std::pair<unsigned long const ,tagNamedTitleInfo> >,0> >::_Node><std::pair<unsigned long const ,tagNamedTitleInfo> >, COMDAT
; _this$ = ecx

; 170  : 		_ALLOCATOR(const _ALLOCATOR<_Other>&) _THROW0()

  00000	8b c1		 mov	 eax, ecx

; 171  : 		{	// construct from a related allocator (do nothing)
; 172  : 		}

  00002	c2 04 00	 ret	 4
??$?0U?$pair@$$CBKUtagNamedTitleInfo@@@std@@@?$allocator@U_Node@?$_Tree_nod@V?$_Tmap_traits@KUtagNamedTitleInfo@@U?$less@K@std@@V?$allocator@U?$pair@$$CBKUtagNamedTitleInfo@@@std@@@3@$0A@@std@@@std@@@std@@QAE@ABV?$allocator@U?$pair@$$CBKUtagNamedTitleInfo@@@std@@@1@@Z ENDP ; std::allocator<std::_Tree_nod<std::_Tmap_traits<unsigned long,tagNamedTitleInfo,std::less<unsigned long>,std::allocator<std::pair<unsigned long const ,tagNamedTitleInfo> >,0> >::_Node>::allocator<std::_Tree_nod<std::_Tmap_traits<unsigned long,tagNamedTitleInfo,std::less<unsigned long>,std::allocator<std::pair<unsigned long const ,tagNamedTitleInfo> >,0> >::_Node><std::pair<unsigned long const ,tagNamedTitleInfo> >
_TEXT	ENDS
PUBLIC	??$_Allocate@U_Node@?$_Tree_nod@V?$_Tmap_traits@KUtagNamedTitleInfo@@U?$less@K@std@@V?$allocator@U?$pair@$$CBKUtagNamedTitleInfo@@@std@@@3@$0A@@std@@@std@@@std@@YAPAU_Node@?$_Tree_nod@V?$_Tmap_traits@KUtagNamedTitleInfo@@U?$less@K@std@@V?$allocator@U?$pair@$$CBKUtagNamedTitleInfo@@@std@@@3@$0A@@std@@@0@IPAU120@@Z ; std::_Allocate<std::_Tree_nod<std::_Tmap_traits<unsigned long,tagNamedTitleInfo,std::less<unsigned long>,std::allocator<std::pair<unsigned long const ,tagNamedTitleInfo> >,0> >::_Node>
; Function compile flags: /Ogsp
;	COMDAT ??$_Allocate@U_Node@?$_Tree_nod@V?$_Tmap_traits@KUtagNamedTitleInfo@@U?$less@K@std@@V?$allocator@U?$pair@$$CBKUtagNamedTitleInfo@@@std@@@3@$0A@@std@@@std@@@std@@YAPAU_Node@?$_Tree_nod@V?$_Tmap_traits@KUtagNamedTitleInfo@@U?$less@K@std@@V?$allocator@U?$pair@$$CBKUtagNamedTitleInfo@@@std@@@3@$0A@@std@@@0@IPAU120@@Z
_TEXT	SEGMENT
$T537070 = -12						; size = 12
$T537074 = 8						; size = 4
__Count$ = 8						; size = 4
___formal$ = 12						; size = 4
??$_Allocate@U_Node@?$_Tree_nod@V?$_Tmap_traits@KUtagNamedTitleInfo@@U?$less@K@std@@V?$allocator@U?$pair@$$CBKUtagNamedTitleInfo@@@std@@@3@$0A@@std@@@std@@@std@@YAPAU_Node@?$_Tree_nod@V?$_Tmap_traits@KUtagNamedTitleInfo@@U?$less@K@std@@V?$allocator@U?$pair@$$CBKUtagNamedTitleInfo@@@std@@@3@$0A@@std@@@0@IPAU120@@Z PROC ; std::_Allocate<std::_Tree_nod<std::_Tmap_traits<unsigned long,tagNamedTitleInfo,std::less<unsigned long>,std::allocator<std::pair<unsigned long const ,tagNamedTitleInfo> >,0> >::_Node>, COMDAT

; 30   : 	{	// allocate storage for _Count elements of type _Ty

  00000	55		 push	 ebp
  00001	8b ec		 mov	 ebp, esp

; 31   : 	void *_Ptr = 0;
; 32   : 
; 33   : 	if (_Count <= 0)

  00003	8b 4d 08	 mov	 ecx, DWORD PTR __Count$[ebp]
  00006	83 ec 0c	 sub	 esp, 12			; 0000000cH
  00009	33 c0		 xor	 eax, eax
  0000b	85 c9		 test	 ecx, ecx

; 34   : 		_Count = 0;
; 35   : 	else if (((_SIZT)(-1) / sizeof (_Ty) < _Count)

  0000d	74 3c		 je	 SHORT $LN5@Allocate@2

; 36   : 		|| (_Ptr = ::operator new(_Count * sizeof (_Ty))) == 0)

  0000f	81 f9 24 49 92
	04		 cmp	 ecx, 76695844		; 04924924H
  00015	77 0e		 ja	 SHORT $LN1@Allocate@2
  00017	6b c9 38	 imul	 ecx, 56			; 00000038H
  0001a	51		 push	 ecx
  0001b	e8 00 00 00 00	 call	 ??2@YAPAXI@Z		; operator new
  00020	59		 pop	 ecx
  00021	85 c0		 test	 eax, eax

; 38   : 
; 39   : 	return ((_Ty _FARQ *)_Ptr);

  00023	75 26		 jne	 SHORT $LN5@Allocate@2
$LN1@Allocate@2:

; 37   : 		_THROW_NCEE(bad_alloc, 0);

  00025	83 65 08 00	 and	 DWORD PTR $T537074[ebp], 0
  00029	8d 45 08	 lea	 eax, DWORD PTR $T537074[ebp]
  0002c	50		 push	 eax
  0002d	8d 4d f4	 lea	 ecx, DWORD PTR $T537070[ebp]
  00030	ff 15 00 00 00
	00		 call	 DWORD PTR __imp_??0exception@std@@QAE@ABQBD@Z
  00036	68 00 00 00 00	 push	 OFFSET __TI2?AVbad_alloc@std@@
  0003b	8d 45 f4	 lea	 eax, DWORD PTR $T537070[ebp]
  0003e	50		 push	 eax
  0003f	c7 45 f4 00 00
	00 00		 mov	 DWORD PTR $T537070[ebp], OFFSET ??_7bad_alloc@std@@6B@
  00046	e8 00 00 00 00	 call	 __CxxThrowException@8
$LN10@Allocate@2:
$LN5@Allocate@2:

; 40   : 	}

  0004b	c9		 leave
  0004c	c3		 ret	 0
$LN9@Allocate@2:
??$_Allocate@U_Node@?$_Tree_nod@V?$_Tmap_traits@KUtagNamedTitleInfo@@U?$less@K@std@@V?$allocator@U?$pair@$$CBKUtagNamedTitleInfo@@@std@@@3@$0A@@std@@@std@@@std@@YAPAU_Node@?$_Tree_nod@V?$_Tmap_traits@KUtagNamedTitleInfo@@U?$less@K@std@@V?$allocator@U?$pair@$$CBKUtagNamedTitleInfo@@@std@@@3@$0A@@std@@@0@IPAU120@@Z ENDP ; std::_Allocate<std::_Tree_nod<std::_Tmap_traits<unsigned long,tagNamedTitleInfo,std::less<unsigned long>,std::allocator<std::pair<unsigned long const ,tagNamedTitleInfo> >,0> >::_Node>
_TEXT	ENDS
PUBLIC	?max_size@?$allocator@U?$pair@$$CBKUtagNamedTitleInfo@@@std@@@std@@QBEIXZ ; std::allocator<std::pair<unsigned long const ,tagNamedTitleInfo> >::max_size
; Function compile flags: /Ogsp
;	COMDAT ?max_size@?$allocator@U?$pair@$$CBKUtagNamedTitleInfo@@@std@@@std@@QBEIXZ
_TEXT	SEGMENT
?max_size@?$allocator@U?$pair@$$CBKUtagNamedTitleInfo@@@std@@@std@@QBEIXZ PROC ; std::allocator<std::pair<unsigned long const ,tagNamedTitleInfo> >::max_size, COMDAT
; _this$ = ecx

; 218  : 		_SIZT _Count = (_SIZT)(-1) / sizeof (_Ty);
; 219  : 		return (0 < _Count ? _Count : 1);

  00000	b8 66 66 66 06	 mov	 eax, 107374182		; 06666666H

; 220  : 		}

  00005	c3		 ret	 0
?max_size@?$allocator@U?$pair@$$CBKUtagNamedTitleInfo@@@std@@@std@@QBEIXZ ENDP ; std::allocator<std::pair<unsigned long const ,tagNamedTitleInfo> >::max_size
_TEXT	ENDS
PUBLIC	??F?$_Tree_unchecked_const_iterator@V?$_Tree_val@V?$_Tmap_traits@KUtagNamedTitleInfo@@U?$less@K@std@@V?$allocator@U?$pair@$$CBKUtagNamedTitleInfo@@@std@@@3@$0A@@std@@@std@@U_Iterator_base0@2@@std@@QAEAAV01@XZ ; std::_Tree_unchecked_const_iterator<std::_Tree_val<std::_Tmap_traits<unsigned long,tagNamedTitleInfo,std::less<unsigned long>,std::allocator<std::pair<unsigned long const ,tagNamedTitleInfo> >,0> >,std::_Iterator_base0>::operator--
; Function compile flags: /Ogsp
; File c:\program files (x86)\microsoft visual studio 10.0\vc\include\xtree
;	COMDAT ??F?$_Tree_unchecked_const_iterator@V?$_Tree_val@V?$_Tmap_traits@KUtagNamedTitleInfo@@U?$less@K@std@@V?$allocator@U?$pair@$$CBKUtagNamedTitleInfo@@@std@@@3@$0A@@std@@@std@@U_Iterator_base0@2@@std@@QAEAAV01@XZ
_TEXT	SEGMENT
??F?$_Tree_unchecked_const_iterator@V?$_Tree_val@V?$_Tmap_traits@KUtagNamedTitleInfo@@U?$less@K@std@@V?$allocator@U?$pair@$$CBKUtagNamedTitleInfo@@@std@@@3@$0A@@std@@@std@@U_Iterator_base0@2@@std@@QAEAAV01@XZ PROC ; std::_Tree_unchecked_const_iterator<std::_Tree_val<std::_Tmap_traits<unsigned long,tagNamedTitleInfo,std::less<unsigned long>,std::allocator<std::pair<unsigned long const ,tagNamedTitleInfo> >,0> >,std::_Iterator_base0>::operator--, COMDAT
; _this$ = ecx

; 83   : 		{	// predecrement

  00000	8b c1		 mov	 eax, ecx

; 84   : 		if (_Mytree::_Isnil(_Ptr))

  00002	8b 08		 mov	 ecx, DWORD PTR [eax]
  00004	53		 push	 ebx
  00005	32 db		 xor	 bl, bl
  00007	38 59 35	 cmp	 BYTE PTR [ecx+53], bl
  0000a	74 07		 je	 SHORT $LN8@operator@2

; 85   : 			_Ptr = _Mytree::_Right(_Ptr);	// end() ==> rightmost

  0000c	8b 49 08	 mov	 ecx, DWORD PTR [ecx+8]
  0000f	89 08		 mov	 DWORD PTR [eax], ecx
  00011	5b		 pop	 ebx

; 99   : 			}
; 100  : 		return (*this);
; 101  : 		}

  00012	c3		 ret	 0
$LN8@operator@2:

; 86   : 		else if (!_Mytree::_Isnil(_Mytree::_Left(_Ptr)))

  00013	8b 11		 mov	 edx, DWORD PTR [ecx]
  00015	38 5a 35	 cmp	 BYTE PTR [edx+53], bl
  00018	74 07		 je	 SHORT $LN44@operator@2

; 90   : 			{	// climb looking for left subtree
; 91   : 			_Nodeptr _Pnode;
; 92   : 			while (!_Mytree::_Isnil(_Pnode = _Mytree::_Parent(_Ptr))
; 93   : 				&& _Ptr == _Mytree::_Left(_Pnode))

  0001a	8b 51 04	 mov	 edx, DWORD PTR [ecx+4]
  0001d	eb 17		 jmp	 SHORT $LN46@operator@2

; 87   : 			_Ptr = _Mytree::_Max(
; 88   : 				_Mytree::_Left(_Ptr));	// ==> largest of left subtree

$LL22@operator@2:
  0001f	8b d1		 mov	 edx, ecx
$LN44@operator@2:
  00021	8b 4a 08	 mov	 ecx, DWORD PTR [edx+8]
  00024	38 59 35	 cmp	 BYTE PTR [ecx+53], bl
  00027	74 f6		 je	 SHORT $LL22@operator@2

; 89   : 		else

  00029	eb 17		 jmp	 SHORT $LN45@operator@2
$LL4@operator@2:

; 90   : 			{	// climb looking for left subtree
; 91   : 			_Nodeptr _Pnode;
; 92   : 			while (!_Mytree::_Isnil(_Pnode = _Mytree::_Parent(_Ptr))
; 93   : 				&& _Ptr == _Mytree::_Left(_Pnode))

  0002b	8b 08		 mov	 ecx, DWORD PTR [eax]
  0002d	3b 0a		 cmp	 ecx, DWORD PTR [edx]
  0002f	75 0a		 jne	 SHORT $LN3@operator@2

; 94   : 				_Ptr = _Pnode;	// ==> parent while left subtree

  00031	89 10		 mov	 DWORD PTR [eax], edx
  00033	8b 52 04	 mov	 edx, DWORD PTR [edx+4]
$LN46@operator@2:

; 90   : 			{	// climb looking for left subtree
; 91   : 			_Nodeptr _Pnode;
; 92   : 			while (!_Mytree::_Isnil(_Pnode = _Mytree::_Parent(_Ptr))
; 93   : 				&& _Ptr == _Mytree::_Left(_Pnode))

  00036	38 5a 35	 cmp	 BYTE PTR [edx+53], bl
  00039	74 f0		 je	 SHORT $LL4@operator@2
$LN3@operator@2:

; 95   : 			if (_Mytree::_Isnil(_Ptr))

  0003b	8b 08		 mov	 ecx, DWORD PTR [eax]
  0003d	38 59 35	 cmp	 BYTE PTR [ecx+53], bl
  00040	75 02		 jne	 SHORT $LN1@operator@2
$LN45@operator@2:

; 96   : 				;	// begin() shouldn't be decremented, don't move
; 97   : 			else
; 98   : 				_Ptr = _Pnode;	// ==> parent if not head

  00042	89 10		 mov	 DWORD PTR [eax], edx
$LN1@operator@2:
  00044	5b		 pop	 ebx

; 99   : 			}
; 100  : 		return (*this);
; 101  : 		}

  00045	c3		 ret	 0
??F?$_Tree_unchecked_const_iterator@V?$_Tree_val@V?$_Tmap_traits@KUtagNamedTitleInfo@@U?$less@K@std@@V?$allocator@U?$pair@$$CBKUtagNamedTitleInfo@@@std@@@3@$0A@@std@@@std@@U_Iterator_base0@2@@std@@QAEAAV01@XZ ENDP ; std::_Tree_unchecked_const_iterator<std::_Tree_val<std::_Tmap_traits<unsigned long,tagNamedTitleInfo,std::less<unsigned long>,std::allocator<std::pair<unsigned long const ,tagNamedTitleInfo> >,0> >,std::_Iterator_base0>::operator--
_TEXT	ENDS
PUBLIC	??$forward@AAUtagNamedTitleInfo@@@std@@YAAAUtagNamedTitleInfo@@AAU1@@Z ; std::forward<tagNamedTitleInfo &>
; Function compile flags: /Ogsp
; File c:\program files (x86)\microsoft visual studio 10.0\vc\include\utility
;	COMDAT ??$forward@AAUtagNamedTitleInfo@@@std@@YAAAUtagNamedTitleInfo@@AAU1@@Z
_TEXT	SEGMENT
__Arg$ = 8						; size = 4
??$forward@AAUtagNamedTitleInfo@@@std@@YAAAUtagNamedTitleInfo@@AAU1@@Z PROC ; std::forward<tagNamedTitleInfo &>, COMDAT

; 78   : 	{	// forward _Arg, given explicitly specified type parameter

  00000	55		 push	 ebp
  00001	8b ec		 mov	 ebp, esp

; 79   : 	return ((_Ty&&)_Arg);

  00003	8b 45 08	 mov	 eax, DWORD PTR __Arg$[ebp]

; 80   : 	}

  00006	5d		 pop	 ebp
  00007	c3		 ret	 0
??$forward@AAUtagNamedTitleInfo@@@std@@YAAAUtagNamedTitleInfo@@AAU1@@Z ENDP ; std::forward<tagNamedTitleInfo &>
_TEXT	ENDS
PUBLIC	??$forward@U?$pair@KUtagNamedTitleInfo@@@std@@@std@@YA$$QAU?$pair@KUtagNamedTitleInfo@@@0@AAU10@@Z ; std::forward<std::pair<unsigned long,tagNamedTitleInfo> >
; Function compile flags: /Ogsp
;	COMDAT ??$forward@U?$pair@KUtagNamedTitleInfo@@@std@@@std@@YA$$QAU?$pair@KUtagNamedTitleInfo@@@0@AAU10@@Z
_TEXT	SEGMENT
__Arg$ = 8						; size = 4
??$forward@U?$pair@KUtagNamedTitleInfo@@@std@@@std@@YA$$QAU?$pair@KUtagNamedTitleInfo@@@0@AAU10@@Z PROC ; std::forward<std::pair<unsigned long,tagNamedTitleInfo> >, COMDAT

; 78   : 	{	// forward _Arg, given explicitly specified type parameter

  00000	55		 push	 ebp
  00001	8b ec		 mov	 ebp, esp

; 79   : 	return ((_Ty&&)_Arg);

  00003	8b 45 08	 mov	 eax, DWORD PTR __Arg$[ebp]

; 80   : 	}

  00006	5d		 pop	 ebp
  00007	c3		 ret	 0
??$forward@U?$pair@KUtagNamedTitleInfo@@@std@@@std@@YA$$QAU?$pair@KUtagNamedTitleInfo@@@0@AAU10@@Z ENDP ; std::forward<std::pair<unsigned long,tagNamedTitleInfo> >
_TEXT	ENDS
PUBLIC	??$forward@AAUtagNamedTitleGrade@@@std@@YAAAUtagNamedTitleGrade@@AAU1@@Z ; std::forward<tagNamedTitleGrade &>
; Function compile flags: /Ogsp
;	COMDAT ??$forward@AAUtagNamedTitleGrade@@@std@@YAAAUtagNamedTitleGrade@@AAU1@@Z
_TEXT	SEGMENT
__Arg$ = 8						; size = 4
??$forward@AAUtagNamedTitleGrade@@@std@@YAAAUtagNamedTitleGrade@@AAU1@@Z PROC ; std::forward<tagNamedTitleGrade &>, COMDAT

; 78   : 	{	// forward _Arg, given explicitly specified type parameter

  00000	55		 push	 ebp
  00001	8b ec		 mov	 ebp, esp

; 79   : 	return ((_Ty&&)_Arg);

  00003	8b 45 08	 mov	 eax, DWORD PTR __Arg$[ebp]

; 80   : 	}

  00006	5d		 pop	 ebp
  00007	c3		 ret	 0
??$forward@AAUtagNamedTitleGrade@@@std@@YAAAUtagNamedTitleGrade@@AAU1@@Z ENDP ; std::forward<tagNamedTitleGrade &>
_TEXT	ENDS
PUBLIC	??$forward@ABUtagNamedTitleGrade@@@std@@YAABUtagNamedTitleGrade@@ABU1@@Z ; std::forward<tagNamedTitleGrade const &>
; Function compile flags: /Ogsp
;	COMDAT ??$forward@ABUtagNamedTitleGrade@@@std@@YAABUtagNamedTitleGrade@@ABU1@@Z
_TEXT	SEGMENT
__Arg$ = 8						; size = 4
??$forward@ABUtagNamedTitleGrade@@@std@@YAABUtagNamedTitleGrade@@ABU1@@Z PROC ; std::forward<tagNamedTitleGrade const &>, COMDAT

; 78   : 	{	// forward _Arg, given explicitly specified type parameter

  00000	55		 push	 ebp
  00001	8b ec		 mov	 ebp, esp

; 79   : 	return ((_Ty&&)_Arg);

  00003	8b 45 08	 mov	 eax, DWORD PTR __Arg$[ebp]

; 80   : 	}

  00006	5d		 pop	 ebp
  00007	c3		 ret	 0
??$forward@ABUtagNamedTitleGrade@@@std@@YAABUtagNamedTitleGrade@@ABU1@@Z ENDP ; std::forward<tagNamedTitleGrade const &>
_TEXT	ENDS
PUBLIC	??$move@AAV?$_Tree_iterator@V?$_Tree_val@V?$_Tmap_traits@KUtagNamedTitleInfo@@U?$less@K@std@@V?$allocator@U?$pair@$$CBKUtagNamedTitleInfo@@@std@@@3@$0A@@std@@@std@@@std@@@std@@YA$$QAV?$_Tree_iterator@V?$_Tree_val@V?$_Tmap_traits@KUtagNamedTitleInfo@@U?$less@K@std@@V?$allocator@U?$pair@$$CBKUtagNamedTitleInfo@@@std@@@3@$0A@@std@@@std@@@0@AAV10@@Z ; std::move<std::_Tree_iterator<std::_Tree_val<std::_Tmap_traits<unsigned long,tagNamedTitleInfo,std::less<unsigned long>,std::allocator<std::pair<unsigned long const ,tagNamedTitleInfo> >,0> > > &>
; Function compile flags: /Ogsp
;	COMDAT ??$move@AAV?$_Tree_iterator@V?$_Tree_val@V?$_Tmap_traits@KUtagNamedTitleInfo@@U?$less@K@std@@V?$allocator@U?$pair@$$CBKUtagNamedTitleInfo@@@std@@@3@$0A@@std@@@std@@@std@@@std@@YA$$QAV?$_Tree_iterator@V?$_Tree_val@V?$_Tmap_traits@KUtagNamedTitleInfo@@U?$less@K@std@@V?$allocator@U?$pair@$$CBKUtagNamedTitleInfo@@@std@@@3@$0A@@std@@@std@@@0@AAV10@@Z
_TEXT	SEGMENT
__Arg$ = 8						; size = 4
??$move@AAV?$_Tree_iterator@V?$_Tree_val@V?$_Tmap_traits@KUtagNamedTitleInfo@@U?$less@K@std@@V?$allocator@U?$pair@$$CBKUtagNamedTitleInfo@@@std@@@3@$0A@@std@@@std@@@std@@@std@@YA$$QAV?$_Tree_iterator@V?$_Tree_val@V?$_Tmap_traits@KUtagNamedTitleInfo@@U?$less@K@std@@V?$allocator@U?$pair@$$CBKUtagNamedTitleInfo@@@std@@@3@$0A@@std@@@std@@@0@AAV10@@Z PROC ; std::move<std::_Tree_iterator<std::_Tree_val<std::_Tmap_traits<unsigned long,tagNamedTitleInfo,std::less<unsigned long>,std::allocator<std::pair<unsigned long const ,tagNamedTitleInfo> >,0> > > &>, COMDAT

; 86   : 	{	// forward _Arg as movable

  00000	55		 push	 ebp
  00001	8b ec		 mov	 ebp, esp

; 87   : 	return ((typename tr1::_Remove_reference<_Ty>::_Type&&)_Arg);

  00003	8b 45 08	 mov	 eax, DWORD PTR __Arg$[ebp]

; 88   : 	}

  00006	5d		 pop	 ebp
  00007	c3		 ret	 0
??$move@AAV?$_Tree_iterator@V?$_Tree_val@V?$_Tmap_traits@KUtagNamedTitleInfo@@U?$less@K@std@@V?$allocator@U?$pair@$$CBKUtagNamedTitleInfo@@@std@@@3@$0A@@std@@@std@@@std@@@std@@YA$$QAV?$_Tree_iterator@V?$_Tree_val@V?$_Tmap_traits@KUtagNamedTitleInfo@@U?$less@K@std@@V?$allocator@U?$pair@$$CBKUtagNamedTitleInfo@@@std@@@3@$0A@@std@@@std@@@0@AAV10@@Z ENDP ; std::move<std::_Tree_iterator<std::_Tree_val<std::_Tmap_traits<unsigned long,tagNamedTitleInfo,std::less<unsigned long>,std::allocator<std::pair<unsigned long const ,tagNamedTitleInfo> >,0> > > &>
_TEXT	ENDS
PUBLIC	??0tagNamedTitleGrade@@QAE@ABU0@@Z		; tagNamedTitleGrade::tagNamedTitleGrade
; Function compile flags: /Ogsp
;	COMDAT ??0tagNamedTitleGrade@@QAE@ABU0@@Z
_TEXT	SEGMENT
___that$ = 8						; size = 4
??0tagNamedTitleGrade@@QAE@ABU0@@Z PROC			; tagNamedTitleGrade::tagNamedTitleGrade, COMDAT
; _this$ = ecx
  00000	55		 push	 ebp
  00001	8b ec		 mov	 ebp, esp
  00003	8b 45 08	 mov	 eax, DWORD PTR ___that$[ebp]
  00006	56		 push	 esi
  00007	8b f1		 mov	 esi, ecx
  00009	8b 08		 mov	 ecx, DWORD PTR [eax]
  0000b	83 c0 04	 add	 eax, 4
  0000e	89 0e		 mov	 DWORD PTR [esi], ecx
  00010	50		 push	 eax
  00011	8d 4e 04	 lea	 ecx, DWORD PTR [esi+4]
  00014	ff 15 00 00 00
	00		 call	 DWORD PTR __imp_??0ioHashString@@QAE@ABV0@@Z
  0001a	8b c6		 mov	 eax, esi
  0001c	5e		 pop	 esi
  0001d	5d		 pop	 ebp
  0001e	c2 04 00	 ret	 4
??0tagNamedTitleGrade@@QAE@ABU0@@Z ENDP			; tagNamedTitleGrade::tagNamedTitleGrade
_TEXT	ENDS
PUBLIC	??$_Val_type@PAUtagNamedTitleGrade@@@std@@YAPAUtagNamedTitleGrade@@PAU1@@Z ; std::_Val_type<tagNamedTitleGrade *>
; Function compile flags: /Ogsp
; File c:\program files (x86)\microsoft visual studio 10.0\vc\include\xutility
;	COMDAT ??$_Val_type@PAUtagNamedTitleGrade@@@std@@YAPAUtagNamedTitleGrade@@PAU1@@Z
_TEXT	SEGMENT
___formal$ = 8						; size = 4
??$_Val_type@PAUtagNamedTitleGrade@@@std@@YAPAUtagNamedTitleGrade@@PAU1@@Z PROC ; std::_Val_type<tagNamedTitleGrade *>, COMDAT

; 790  : 	return (0);

  00000	33 c0		 xor	 eax, eax

; 791  : 	}

  00002	c3		 ret	 0
??$_Val_type@PAUtagNamedTitleGrade@@@std@@YAPAUtagNamedTitleGrade@@PAU1@@Z ENDP ; std::_Val_type<tagNamedTitleGrade *>
_TEXT	ENDS
PUBLIC	??$forward@AAV?$_Tree_iterator@V?$_Tree_val@V?$_Tmap_traits@KUtagNamedTitleInfo@@U?$less@K@std@@V?$allocator@U?$pair@$$CBKUtagNamedTitleInfo@@@std@@@3@$0A@@std@@@std@@@std@@@std@@YAAAV?$_Tree_iterator@V?$_Tree_val@V?$_Tmap_traits@KUtagNamedTitleInfo@@U?$less@K@std@@V?$allocator@U?$pair@$$CBKUtagNamedTitleInfo@@@std@@@3@$0A@@std@@@std@@@0@AAV10@@Z ; std::forward<std::_Tree_iterator<std::_Tree_val<std::_Tmap_traits<unsigned long,tagNamedTitleInfo,std::less<unsigned long>,std::allocator<std::pair<unsigned long const ,tagNamedTitleInfo> >,0> > > &>
; Function compile flags: /Ogsp
; File c:\program files (x86)\microsoft visual studio 10.0\vc\include\utility
;	COMDAT ??$forward@AAV?$_Tree_iterator@V?$_Tree_val@V?$_Tmap_traits@KUtagNamedTitleInfo@@U?$less@K@std@@V?$allocator@U?$pair@$$CBKUtagNamedTitleInfo@@@std@@@3@$0A@@std@@@std@@@std@@@std@@YAAAV?$_Tree_iterator@V?$_Tree_val@V?$_Tmap_traits@KUtagNamedTitleInfo@@U?$less@K@std@@V?$allocator@U?$pair@$$CBKUtagNamedTitleInfo@@@std@@@3@$0A@@std@@@std@@@0@AAV10@@Z
_TEXT	SEGMENT
__Arg$ = 8						; size = 4
??$forward@AAV?$_Tree_iterator@V?$_Tree_val@V?$_Tmap_traits@KUtagNamedTitleInfo@@U?$less@K@std@@V?$allocator@U?$pair@$$CBKUtagNamedTitleInfo@@@std@@@3@$0A@@std@@@std@@@std@@@std@@YAAAV?$_Tree_iterator@V?$_Tree_val@V?$_Tmap_traits@KUtagNamedTitleInfo@@U?$less@K@std@@V?$allocator@U?$pair@$$CBKUtagNamedTitleInfo@@@std@@@3@$0A@@std@@@std@@@0@AAV10@@Z PROC ; std::forward<std::_Tree_iterator<std::_Tree_val<std::_Tmap_traits<unsigned long,tagNamedTitleInfo,std::less<unsigned long>,std::allocator<std::pair<unsigned long const ,tagNamedTitleInfo> >,0> > > &>, COMDAT

; 78   : 	{	// forward _Arg, given explicitly specified type parameter

  00000	55		 push	 ebp
  00001	8b ec		 mov	 ebp, esp

; 79   : 	return ((_Ty&&)_Arg);

  00003	8b 45 08	 mov	 eax, DWORD PTR __Arg$[ebp]

; 80   : 	}

  00006	5d		 pop	 ebp
  00007	c3		 ret	 0
??$forward@AAV?$_Tree_iterator@V?$_Tree_val@V?$_Tmap_traits@KUtagNamedTitleInfo@@U?$less@K@std@@V?$allocator@U?$pair@$$CBKUtagNamedTitleInfo@@@std@@@3@$0A@@std@@@std@@@std@@@std@@YAAAV?$_Tree_iterator@V?$_Tree_val@V?$_Tmap_traits@KUtagNamedTitleInfo@@U?$less@K@std@@V?$allocator@U?$pair@$$CBKUtagNamedTitleInfo@@@std@@@3@$0A@@std@@@std@@@0@AAV10@@Z ENDP ; std::forward<std::_Tree_iterator<std::_Tree_val<std::_Tmap_traits<unsigned long,tagNamedTitleInfo,std::less<unsigned long>,std::allocator<std::pair<unsigned long const ,tagNamedTitleInfo> >,0> > > &>
_TEXT	ENDS
PUBLIC	??$forward@UtagNamedTitleGrade@@@std@@YA$$QAUtagNamedTitleGrade@@AAU1@@Z ; std::forward<tagNamedTitleGrade>
; Function compile flags: /Ogsp
;	COMDAT ??$forward@UtagNamedTitleGrade@@@std@@YA$$QAUtagNamedTitleGrade@@AAU1@@Z
_TEXT	SEGMENT
__Arg$ = 8						; size = 4
??$forward@UtagNamedTitleGrade@@@std@@YA$$QAUtagNamedTitleGrade@@AAU1@@Z PROC ; std::forward<tagNamedTitleGrade>, COMDAT

; 78   : 	{	// forward _Arg, given explicitly specified type parameter

  00000	55		 push	 ebp
  00001	8b ec		 mov	 ebp, esp

; 79   : 	return ((_Ty&&)_Arg);

  00003	8b 45 08	 mov	 eax, DWORD PTR __Arg$[ebp]

; 80   : 	}

  00006	5d		 pop	 ebp
  00007	c3		 ret	 0
??$forward@UtagNamedTitleGrade@@@std@@YA$$QAUtagNamedTitleGrade@@AAU1@@Z ENDP ; std::forward<tagNamedTitleGrade>
_TEXT	ENDS
PUBLIC	??$forward@K@std@@YA$$QAKAAK@Z			; std::forward<unsigned long>
; Function compile flags: /Ogsp
;	COMDAT ??$forward@K@std@@YA$$QAKAAK@Z
_TEXT	SEGMENT
__Arg$ = 8						; size = 4
??$forward@K@std@@YA$$QAKAAK@Z PROC			; std::forward<unsigned long>, COMDAT

; 78   : 	{	// forward _Arg, given explicitly specified type parameter

  00000	55		 push	 ebp
  00001	8b ec		 mov	 ebp, esp

; 79   : 	return ((_Ty&&)_Arg);

  00003	8b 45 08	 mov	 eax, DWORD PTR __Arg$[ebp]

; 80   : 	}

  00006	5d		 pop	 ebp
  00007	c3		 ret	 0
??$forward@K@std@@YA$$QAKAAK@Z ENDP			; std::forward<unsigned long>
_TEXT	ENDS
PUBLIC	??$forward@UtagNamedTitleInfo@@@std@@YA$$QAUtagNamedTitleInfo@@AAU1@@Z ; std::forward<tagNamedTitleInfo>
; Function compile flags: /Ogsp
;	COMDAT ??$forward@UtagNamedTitleInfo@@@std@@YA$$QAUtagNamedTitleInfo@@AAU1@@Z
_TEXT	SEGMENT
__Arg$ = 8						; size = 4
??$forward@UtagNamedTitleInfo@@@std@@YA$$QAUtagNamedTitleInfo@@AAU1@@Z PROC ; std::forward<tagNamedTitleInfo>, COMDAT

; 78   : 	{	// forward _Arg, given explicitly specified type parameter

  00000	55		 push	 ebp
  00001	8b ec		 mov	 ebp, esp

; 79   : 	return ((_Ty&&)_Arg);

  00003	8b 45 08	 mov	 eax, DWORD PTR __Arg$[ebp]

; 80   : 	}

  00006	5d		 pop	 ebp
  00007	c3		 ret	 0
??$forward@UtagNamedTitleInfo@@@std@@YA$$QAUtagNamedTitleInfo@@AAU1@@Z ENDP ; std::forward<tagNamedTitleInfo>
_TEXT	ENDS
PUBLIC	??$_Ptr_cat@V?$_Vector_const_iterator@V?$_Vector_val@UtagNamedTitleGrade@@V?$allocator@UtagNamedTitleGrade@@@std@@@std@@@std@@PAUtagNamedTitleGrade@@@std@@YA?AU_Nonscalar_ptr_iterator_tag@0@AAV?$_Vector_const_iterator@V?$_Vector_val@UtagNamedTitleGrade@@V?$allocator@UtagNamedTitleGrade@@@std@@@std@@@0@AAPAUtagNamedTitleGrade@@@Z ; std::_Ptr_cat<std::_Vector_const_iterator<std::_Vector_val<tagNamedTitleGrade,std::allocator<tagNamedTitleGrade> > >,tagNamedTitleGrade *>
; Function compile flags: /Ogsp
; File c:\program files (x86)\microsoft visual studio 10.0\vc\include\xutility
;	COMDAT ??$_Ptr_cat@V?$_Vector_const_iterator@V?$_Vector_val@UtagNamedTitleGrade@@V?$allocator@UtagNamedTitleGrade@@@std@@@std@@@std@@PAUtagNamedTitleGrade@@@std@@YA?AU_Nonscalar_ptr_iterator_tag@0@AAV?$_Vector_const_iterator@V?$_Vector_val@UtagNamedTitleGrade@@V?$allocator@UtagNamedTitleGrade@@@std@@@std@@@0@AAPAUtagNamedTitleGrade@@@Z
_TEXT	SEGMENT
__Cat$ = -1						; size = 1
___formal$ = 8						; size = 4
___formal$ = 12						; size = 4
??$_Ptr_cat@V?$_Vector_const_iterator@V?$_Vector_val@UtagNamedTitleGrade@@V?$allocator@UtagNamedTitleGrade@@@std@@@std@@@std@@PAUtagNamedTitleGrade@@@std@@YA?AU_Nonscalar_ptr_iterator_tag@0@AAV?$_Vector_const_iterator@V?$_Vector_val@UtagNamedTitleGrade@@V?$allocator@UtagNamedTitleGrade@@@std@@@std@@@0@AAPAUtagNamedTitleGrade@@@Z PROC ; std::_Ptr_cat<std::_Vector_const_iterator<std::_Vector_val<tagNamedTitleGrade,std::allocator<tagNamedTitleGrade> > >,tagNamedTitleGrade *>, COMDAT

; 485  : 	{	// return pointer category from arbitrary arguments

  00000	55		 push	 ebp
  00001	8b ec		 mov	 ebp, esp
  00003	51		 push	 ecx

; 486  : 	_Nonscalar_ptr_iterator_tag _Cat;
; 487  : 	return (_Cat);

  00004	8a 45 ff	 mov	 al, BYTE PTR __Cat$[ebp]

; 488  : 	}

  00007	c9		 leave
  00008	c3		 ret	 0
??$_Ptr_cat@V?$_Vector_const_iterator@V?$_Vector_val@UtagNamedTitleGrade@@V?$allocator@UtagNamedTitleGrade@@@std@@@std@@@std@@PAUtagNamedTitleGrade@@@std@@YA?AU_Nonscalar_ptr_iterator_tag@0@AAV?$_Vector_const_iterator@V?$_Vector_val@UtagNamedTitleGrade@@V?$allocator@UtagNamedTitleGrade@@@std@@@std@@@0@AAPAUtagNamedTitleGrade@@@Z ENDP ; std::_Ptr_cat<std::_Vector_const_iterator<std::_Vector_val<tagNamedTitleGrade,std::allocator<tagNamedTitleGrade> > >,tagNamedTitleGrade *>
_TEXT	ENDS
PUBLIC	??D?$_Vector_const_iterator@V?$_Vector_val@UtagNamedTitleGrade@@V?$allocator@UtagNamedTitleGrade@@@std@@@std@@@std@@QBEABUtagNamedTitleGrade@@XZ ; std::_Vector_const_iterator<std::_Vector_val<tagNamedTitleGrade,std::allocator<tagNamedTitleGrade> > >::operator*
; Function compile flags: /Ogsp
; File c:\program files (x86)\microsoft visual studio 10.0\vc\include\vector
;	COMDAT ??D?$_Vector_const_iterator@V?$_Vector_val@UtagNamedTitleGrade@@V?$allocator@UtagNamedTitleGrade@@@std@@@std@@@std@@QBEABUtagNamedTitleGrade@@XZ
_TEXT	SEGMENT
??D?$_Vector_const_iterator@V?$_Vector_val@UtagNamedTitleGrade@@V?$allocator@UtagNamedTitleGrade@@@std@@@std@@@std@@QBEABUtagNamedTitleGrade@@XZ PROC ; std::_Vector_const_iterator<std::_Vector_val<tagNamedTitleGrade,std::allocator<tagNamedTitleGrade> > >::operator*, COMDAT
; _this$ = ecx

; 64   :  #if _ITERATOR_DEBUG_LEVEL == 2
; 65   : 		if (this->_Getcont() == 0
; 66   : 			|| this->_Ptr == 0
; 67   : 			|| this->_Ptr < ((_Myvec *)this->_Getcont())->_Myfirst
; 68   : 			|| ((_Myvec *)this->_Getcont())->_Mylast <= this->_Ptr)
; 69   : 			{	// report error
; 70   : 			_DEBUG_ERROR("vector iterator not dereferencable");
; 71   : 			_SCL_SECURE_OUT_OF_RANGE;
; 72   : 			}
; 73   : 
; 74   :  #elif _ITERATOR_DEBUG_LEVEL == 1
; 75   : 		_SCL_SECURE_VALIDATE(this->_Getcont() != 0);
; 76   : 		_SCL_SECURE_VALIDATE_RANGE(
; 77   : 			this->_Ptr != 0
; 78   : 			&& ((_Myvec *)this->_Getcont())->_Myfirst <= this->_Ptr
; 79   : 			&& this->_Ptr < ((_Myvec *)this->_Getcont())->_Mylast);
; 80   :  #endif /* _ITERATOR_DEBUG_LEVEL */
; 81   : 
; 82   : 		__analysis_assume(this->_Ptr != 0);
; 83   : 
; 84   : 		return (*this->_Ptr);

  00000	8b 01		 mov	 eax, DWORD PTR [ecx]

; 85   : 		}

  00002	c3		 ret	 0
??D?$_Vector_const_iterator@V?$_Vector_val@UtagNamedTitleGrade@@V?$allocator@UtagNamedTitleGrade@@@std@@@std@@@std@@QBEABUtagNamedTitleGrade@@XZ ENDP ; std::_Vector_const_iterator<std::_Vector_val<tagNamedTitleGrade,std::allocator<tagNamedTitleGrade> > >::operator*
_TEXT	ENDS
PUBLIC	??E?$_Vector_const_iterator@V?$_Vector_val@UtagNamedTitleGrade@@V?$allocator@UtagNamedTitleGrade@@@std@@@std@@@std@@QAEAAV01@XZ ; std::_Vector_const_iterator<std::_Vector_val<tagNamedTitleGrade,std::allocator<tagNamedTitleGrade> > >::operator++
; Function compile flags: /Ogsp
;	COMDAT ??E?$_Vector_const_iterator@V?$_Vector_val@UtagNamedTitleGrade@@V?$allocator@UtagNamedTitleGrade@@@std@@@std@@@std@@QAEAAV01@XZ
_TEXT	SEGMENT
??E?$_Vector_const_iterator@V?$_Vector_val@UtagNamedTitleGrade@@V?$allocator@UtagNamedTitleGrade@@@std@@@std@@@std@@QAEAAV01@XZ PROC ; std::_Vector_const_iterator<std::_Vector_val<tagNamedTitleGrade,std::allocator<tagNamedTitleGrade> > >::operator++, COMDAT
; _this$ = ecx

; 93   : 		{	// preincrement

  00000	8b c1		 mov	 eax, ecx

; 94   :  #if _ITERATOR_DEBUG_LEVEL == 2
; 95   : 		if (this->_Getcont() == 0
; 96   : 			|| this->_Ptr == 0
; 97   : 			|| ((_Myvec *)this->_Getcont())->_Mylast <= this->_Ptr)
; 98   : 			{	// report error
; 99   : 			_DEBUG_ERROR("vector iterator not incrementable");
; 100  : 			_SCL_SECURE_OUT_OF_RANGE;
; 101  : 			}
; 102  : 
; 103  :  #elif _ITERATOR_DEBUG_LEVEL == 1
; 104  : 		_SCL_SECURE_VALIDATE(this->_Getcont() != 0);
; 105  : 		_SCL_SECURE_VALIDATE_RANGE(
; 106  : 			this->_Ptr != 0
; 107  : 			&& this->_Ptr < ((_Myvec *)this->_Getcont())->_Mylast);
; 108  :  #endif /* _ITERATOR_DEBUG_LEVEL */
; 109  : 
; 110  : 		++this->_Ptr;

  00002	83 00 14	 add	 DWORD PTR [eax], 20	; 00000014H

; 111  : 		return (*this);
; 112  : 		}

  00005	c3		 ret	 0
??E?$_Vector_const_iterator@V?$_Vector_val@UtagNamedTitleGrade@@V?$allocator@UtagNamedTitleGrade@@@std@@@std@@@std@@QAEAAV01@XZ ENDP ; std::_Vector_const_iterator<std::_Vector_val<tagNamedTitleGrade,std::allocator<tagNamedTitleGrade> > >::operator++
_TEXT	ENDS
PUBLIC	?_DECSTR@@YAXPADH@Z				; _DECSTR
; Function compile flags: /Ogsp
; File d:\lost saga for developer\youtube\tutorial\source\src\lsclient\stringprotect.h
;	COMDAT ?_DECSTR@@YAXPADH@Z
_TEXT	SEGMENT
_s$ = 8							; size = 4
_l$ = 12						; size = 4
?_DECSTR@@YAXPADH@Z PROC				; _DECSTR, COMDAT

; 40   : __forceinline void _DECSTR(char* s, int l){int i=0,l4=(l-1)/4,*p=(int*)s;s[l-1]=0;for(;i<l4;++i)*(p++)^=0xEAEBECED;for(i=l4*4;i<l-1;++i)s[i]^=0xED-i%4;}

  00000	55		 push	 ebp
  00001	8b ec		 mov	 ebp, esp
  00003	8b 4d 0c	 mov	 ecx, DWORD PTR _l$[ebp]
  00006	56		 push	 esi
  00007	8b 75 08	 mov	 esi, DWORD PTR _s$[ebp]
  0000a	57		 push	 edi
  0000b	8d 79 ff	 lea	 edi, DWORD PTR [ecx-1]
  0000e	8b c7		 mov	 eax, edi
  00010	99		 cdq
  00011	83 e2 03	 and	 edx, 3
  00014	03 c2		 add	 eax, edx
  00016	c1 f8 02	 sar	 eax, 2
  00019	8b d6		 mov	 edx, esi
  0001b	c6 44 0e ff 00	 mov	 BYTE PTR [esi+ecx-1], 0
  00020	85 c0		 test	 eax, eax
  00022	7e 0e		 jle	 SHORT $LN4@DECSTR
  00024	8b c8		 mov	 ecx, eax
$LL6@DECSTR:
  00026	81 32 ed ec eb
	ea		 xor	 DWORD PTR [edx], -353637139 ; eaebecedH
  0002c	83 c2 04	 add	 edx, 4
  0002f	49		 dec	 ecx
  00030	75 f4		 jne	 SHORT $LL6@DECSTR
$LN4@DECSTR:
  00032	c1 e0 02	 shl	 eax, 2
  00035	eb 17		 jmp	 SHORT $LN14@DECSTR
$LL3@DECSTR:
  00037	8b c8		 mov	 ecx, eax
  00039	81 e1 03 00 00
	80		 and	 ecx, -2147483645	; 80000003H
  0003f	79 05		 jns	 SHORT $LN13@DECSTR
  00041	49		 dec	 ecx
  00042	83 c9 fc	 or	 ecx, -4			; fffffffcH
  00045	41		 inc	 ecx
$LN13@DECSTR:
  00046	b2 ed		 mov	 dl, -19			; ffffffedH
  00048	2a d1		 sub	 dl, cl
  0004a	30 14 30	 xor	 BYTE PTR [eax+esi], dl
  0004d	40		 inc	 eax
$LN14@DECSTR:
  0004e	3b c7		 cmp	 eax, edi
  00050	7c e5		 jl	 SHORT $LL3@DECSTR
  00052	5f		 pop	 edi
  00053	5e		 pop	 esi
  00054	5d		 pop	 ebp
  00055	c3		 ret	 0
?_DECSTR@@YAXPADH@Z ENDP				; _DECSTR
_TEXT	ENDS
PUBLIC	?Init@tagNamedTitleGrade@@QAEXXZ		; tagNamedTitleGrade::Init
EXTRN	__imp_?Clear@ioHashString@@QAEXXZ:PROC
; Function compile flags: /Ogsp
; File d:\lost saga for developer\youtube\tutorial\source\src\lsclient\namedtitleenumtype.h
;	COMDAT ?Init@tagNamedTitleGrade@@QAEXXZ
_TEXT	SEGMENT
?Init@tagNamedTitleGrade@@QAEXXZ PROC			; tagNamedTitleGrade::Init, COMDAT
; _this$ = ecx

; 18   : 		m_dwColor = 0;

  00000	83 21 00	 and	 DWORD PTR [ecx], 0

; 19   : 		m_szMark.Clear();

  00003	83 c1 04	 add	 ecx, 4
  00006	ff 25 00 00 00
	00		 jmp	 DWORD PTR __imp_?Clear@ioHashString@@QAEXXZ
?Init@tagNamedTitleGrade@@QAEXXZ ENDP			; tagNamedTitleGrade::Init
_TEXT	ENDS
PUBLIC	??0tagNamedTitleGrade@@QAE@XZ			; tagNamedTitleGrade::tagNamedTitleGrade
;	COMDAT xdata$x
xdata$x	SEGMENT
__unwindtable$??0tagNamedTitleGrade@@QAE@XZ DD 0ffffffffH
	DD	FLAT:__unwindfunclet$??0tagNamedTitleGrade@@QAE@XZ$0
__ehfuncinfo$??0tagNamedTitleGrade@@QAE@XZ DD 019930522H
	DD	01H
	DD	FLAT:__unwindtable$??0tagNamedTitleGrade@@QAE@XZ
	DD	2 DUP(00H)
	DD	2 DUP(00H)
	DD	00H
	DD	01H
; Function compile flags: /Ogsp
xdata$x	ENDS
;	COMDAT ??0tagNamedTitleGrade@@QAE@XZ
_TEXT	SEGMENT
_this$ = -16						; size = 4
__$EHRec$ = -12						; size = 12
??0tagNamedTitleGrade@@QAE@XZ PROC			; tagNamedTitleGrade::tagNamedTitleGrade, COMDAT
; _this$ = ecx

; 22   : 	tagNamedTitleGrade()

  00000	6a 04		 push	 4
  00002	b8 00 00 00 00	 mov	 eax, __ehhandler$??0tagNamedTitleGrade@@QAE@XZ
  00007	e8 00 00 00 00	 call	 __EH_prolog3
  0000c	8b f1		 mov	 esi, ecx
  0000e	89 75 f0	 mov	 DWORD PTR _this$[ebp], esi
  00011	8d 4e 04	 lea	 ecx, DWORD PTR [esi+4]
  00014	ff 15 00 00 00
	00		 call	 DWORD PTR __imp_??0ioHashString@@QAE@XZ
  0001a	83 65 fc 00	 and	 DWORD PTR __$EHRec$[ebp+8], 0

; 23   : 	{
; 24   : 		Init();

  0001e	83 26 00	 and	 DWORD PTR [esi], 0
  00021	8d 4e 04	 lea	 ecx, DWORD PTR [esi+4]
  00024	ff 15 00 00 00
	00		 call	 DWORD PTR __imp_?Clear@ioHashString@@QAEXXZ

; 25   : 	}

  0002a	8b c6		 mov	 eax, esi
  0002c	e8 00 00 00 00	 call	 __EH_epilog3
  00031	c3		 ret	 0
_TEXT	ENDS
;	COMDAT text$x
text$x	SEGMENT
__unwindfunclet$??0tagNamedTitleGrade@@QAE@XZ$0:
  00000	8b 4d f0	 mov	 ecx, DWORD PTR _this$[ebp]
  00003	83 c1 04	 add	 ecx, 4
  00006	ff 25 00 00 00
	00		 jmp	 DWORD PTR __imp_??1ioHashString@@QAE@XZ
__ehhandler$??0tagNamedTitleGrade@@QAE@XZ:
  0000c	8b 54 24 08	 mov	 edx, DWORD PTR [esp+8]
  00010	8d 42 0c	 lea	 eax, DWORD PTR [edx+12]
  00013	8b 4a ec	 mov	 ecx, DWORD PTR [edx-20]
  00016	33 c8		 xor	 ecx, eax
  00018	e8 00 00 00 00	 call	 @__security_check_cookie@4
  0001d	b8 00 00 00 00	 mov	 eax, OFFSET __ehfuncinfo$??0tagNamedTitleGrade@@QAE@XZ
  00022	e9 00 00 00 00	 jmp	 ___CxxFrameHandler3
text$x	ENDS
??0tagNamedTitleGrade@@QAE@XZ ENDP			; tagNamedTitleGrade::tagNamedTitleGrade
PUBLIC	?Init@tagNamedTitleSlot@@QAEXXZ			; tagNamedTitleSlot::Init
; Function compile flags: /Ogsp
;	COMDAT ?Init@tagNamedTitleSlot@@QAEXXZ
_TEXT	SEGMENT
?Init@tagNamedTitleSlot@@QAEXXZ PROC			; tagNamedTitleSlot::Init, COMDAT
; _this$ = ecx

; 70   : 		m_dwCode = 0;

  00000	33 c0		 xor	 eax, eax
  00002	89 01		 mov	 DWORD PTR [ecx], eax

; 71   : 		m_nLevel = 0;

  00004	89 41 04	 mov	 DWORD PTR [ecx+4], eax

; 72   : 		m_nValue = 0;

  00007	89 41 08	 mov	 DWORD PTR [ecx+8], eax
  0000a	89 41 0c	 mov	 DWORD PTR [ecx+12], eax

; 73   : 		
; 74   : 		m_byPremium = 0;

  0000d	66 89 41 10	 mov	 WORD PTR [ecx+16], ax

; 75   : 		m_byEquip = 0;
; 76   : 		m_byStatus = TITLE_DISABLE;

  00011	88 41 12	 mov	 BYTE PTR [ecx+18], al

; 77   : 	}

  00014	c3		 ret	 0
?Init@tagNamedTitleSlot@@QAEXXZ ENDP			; tagNamedTitleSlot::Init
_TEXT	ENDS
PUBLIC	?GetPublicID@ioMyInfo@@QBEABVioHashString@@XZ	; ioMyInfo::GetPublicID
; Function compile flags: /Ogsp
; File d:\lost saga for developer\youtube\tutorial\source\src\lsclient\iomyinfo.h
;	COMDAT ?GetPublicID@ioMyInfo@@QBEABVioHashString@@XZ
_TEXT	SEGMENT
?GetPublicID@ioMyInfo@@QBEABVioHashString@@XZ PROC	; ioMyInfo::GetPublicID, COMDAT
; _this$ = ecx

; 517  : 	const ioHashString& GetPublicID() const { return m_user_data.m_public_id; }    

  00000	8d 41 1c	 lea	 eax, DWORD PTR [ecx+28]
  00003	c3		 ret	 0
?GetPublicID@ioMyInfo@@QBEABVioHashString@@XZ ENDP	; ioMyInfo::GetPublicID
_TEXT	ENDS
PUBLIC	?GetUserNamedTitle@ioMyInfo@@QAEPAVioUserNamedTitle@@XZ ; ioMyInfo::GetUserNamedTitle
; Function compile flags: /Ogsp
;	COMDAT ?GetUserNamedTitle@ioMyInfo@@QAEPAVioUserNamedTitle@@XZ
_TEXT	SEGMENT
?GetUserNamedTitle@ioMyInfo@@QAEPAVioUserNamedTitle@@XZ PROC ; ioMyInfo::GetUserNamedTitle, COMDAT
; _this$ = ecx

; 646  : 	ioUserNamedTitle* GetUserNamedTitle() { return &m_pUserNamedTitle; }

  00000	8d 81 e8 02 00
	00		 lea	 eax, DWORD PTR [ecx+744]
  00006	c3		 ret	 0
?GetUserNamedTitle@ioMyInfo@@QAEPAVioUserNamedTitle@@XZ ENDP ; ioMyInfo::GetUserNamedTitle
_TEXT	ENDS
PUBLIC	??1?$_Vector_val@UtagNamedTitleGrade@@V?$allocator@UtagNamedTitleGrade@@@std@@@std@@QAE@XZ ; std::_Vector_val<tagNamedTitleGrade,std::allocator<tagNamedTitleGrade> >::~_Vector_val<tagNamedTitleGrade,std::allocator<tagNamedTitleGrade> >
; Function compile flags: /Ogsp
; File c:\program files (x86)\microsoft visual studio 10.0\vc\include\vector
;	COMDAT ??1?$_Vector_val@UtagNamedTitleGrade@@V?$allocator@UtagNamedTitleGrade@@@std@@@std@@QAE@XZ
_TEXT	SEGMENT
??1?$_Vector_val@UtagNamedTitleGrade@@V?$allocator@UtagNamedTitleGrade@@@std@@@std@@QAE@XZ PROC ; std::_Vector_val<tagNamedTitleGrade,std::allocator<tagNamedTitleGrade> >::~_Vector_val<tagNamedTitleGrade,std::allocator<tagNamedTitleGrade> >, COMDAT
; _this$ = ecx

; 434  : 		}

  00000	c3		 ret	 0
??1?$_Vector_val@UtagNamedTitleGrade@@V?$allocator@UtagNamedTitleGrade@@@std@@@std@@QAE@XZ ENDP ; std::_Vector_val<tagNamedTitleGrade,std::allocator<tagNamedTitleGrade> >::~_Vector_val<tagNamedTitleGrade,std::allocator<tagNamedTitleGrade> >
_TEXT	ENDS
PUBLIC	??0?$allocator@UtagNamedTitleGrade@@@std@@QAE@XZ ; std::allocator<tagNamedTitleGrade>::allocator<tagNamedTitleGrade>
; Function compile flags: /Ogsp
; File c:\program files (x86)\microsoft visual studio 10.0\vc\include\xmemory
;	COMDAT ??0?$allocator@UtagNamedTitleGrade@@@std@@QAE@XZ
_TEXT	SEGMENT
??0?$allocator@UtagNamedTitleGrade@@@std@@QAE@XZ PROC	; std::allocator<tagNamedTitleGrade>::allocator<tagNamedTitleGrade>, COMDAT
; _this$ = ecx

; 161  : 	_ALLOCATOR() _THROW0()

  00000	8b c1		 mov	 eax, ecx

; 162  : 		{	// construct default allocator (do nothing)
; 163  : 		}

  00002	c3		 ret	 0
??0?$allocator@UtagNamedTitleGrade@@@std@@QAE@XZ ENDP	; std::allocator<tagNamedTitleGrade>::allocator<tagNamedTitleGrade>
_TEXT	ENDS
PUBLIC	??0?$allocator@UtagNamedTitleGrade@@@std@@QAE@ABV01@@Z ; std::allocator<tagNamedTitleGrade>::allocator<tagNamedTitleGrade>
; Function compile flags: /Ogsp
;	COMDAT ??0?$allocator@UtagNamedTitleGrade@@@std@@QAE@ABV01@@Z
_TEXT	SEGMENT
___formal$ = 8						; size = 4
??0?$allocator@UtagNamedTitleGrade@@@std@@QAE@ABV01@@Z PROC ; std::allocator<tagNamedTitleGrade>::allocator<tagNamedTitleGrade>, COMDAT
; _this$ = ecx

; 165  : 	_ALLOCATOR(const _ALLOCATOR<_Ty>&) _THROW0()

  00000	8b c1		 mov	 eax, ecx

; 166  : 		{	// construct by copying (do nothing)
; 167  : 		}

  00002	c2 04 00	 ret	 4
??0?$allocator@UtagNamedTitleGrade@@@std@@QAE@ABV01@@Z ENDP ; std::allocator<tagNamedTitleGrade>::allocator<tagNamedTitleGrade>
_TEXT	ENDS
PUBLIC	?deallocate@?$allocator@UtagNamedTitleGrade@@@std@@QAEXPAUtagNamedTitleGrade@@I@Z ; std::allocator<tagNamedTitleGrade>::deallocate
; Function compile flags: /Ogsp
;	COMDAT ?deallocate@?$allocator@UtagNamedTitleGrade@@@std@@QAEXPAUtagNamedTitleGrade@@I@Z
_TEXT	SEGMENT
__Ptr$ = 8						; size = 4
___formal$ = 12						; size = 4
?deallocate@?$allocator@UtagNamedTitleGrade@@@std@@QAEXPAUtagNamedTitleGrade@@I@Z PROC ; std::allocator<tagNamedTitleGrade>::deallocate, COMDAT
; _this$ = ecx

; 181  : 		{	// deallocate object at _Ptr, ignore size

  00000	55		 push	 ebp
  00001	8b ec		 mov	 ebp, esp

; 182  : 		::operator delete(_Ptr);

  00003	ff 75 08	 push	 DWORD PTR __Ptr$[ebp]
  00006	e8 00 00 00 00	 call	 ??3@YAXPAX@Z		; operator delete
  0000b	59		 pop	 ecx

; 183  : 		}

  0000c	5d		 pop	 ebp
  0000d	c2 08 00	 ret	 8
?deallocate@?$allocator@UtagNamedTitleGrade@@@std@@QAEXPAUtagNamedTitleGrade@@I@Z ENDP ; std::allocator<tagNamedTitleGrade>::deallocate
_TEXT	ENDS
PUBLIC	??0?$_Vector_const_iterator@V?$_Vector_val@UtagNamedTitleGrade@@V?$allocator@UtagNamedTitleGrade@@@std@@@std@@@std@@QAE@PAUtagNamedTitleGrade@@PBU_Container_base0@1@@Z ; std::_Vector_const_iterator<std::_Vector_val<tagNamedTitleGrade,std::allocator<tagNamedTitleGrade> > >::_Vector_const_iterator<std::_Vector_val<tagNamedTitleGrade,std::allocator<tagNamedTitleGrade> > >
; Function compile flags: /Ogsp
; File c:\program files (x86)\microsoft visual studio 10.0\vc\include\vector
;	COMDAT ??0?$_Vector_const_iterator@V?$_Vector_val@UtagNamedTitleGrade@@V?$allocator@UtagNamedTitleGrade@@@std@@@std@@@std@@QAE@PAUtagNamedTitleGrade@@PBU_Container_base0@1@@Z
_TEXT	SEGMENT
__Parg$ = 8						; size = 4
__Pvector$ = 12						; size = 4
??0?$_Vector_const_iterator@V?$_Vector_val@UtagNamedTitleGrade@@V?$allocator@UtagNamedTitleGrade@@@std@@@std@@@std@@QAE@PAUtagNamedTitleGrade@@PBU_Container_base0@1@@Z PROC ; std::_Vector_const_iterator<std::_Vector_val<tagNamedTitleGrade,std::allocator<tagNamedTitleGrade> > >::_Vector_const_iterator<std::_Vector_val<tagNamedTitleGrade,std::allocator<tagNamedTitleGrade> > >, COMDAT
; _this$ = ecx

; 45   : 		{	// construct with pointer _Parg

  00000	55		 push	 ebp
  00001	8b ec		 mov	 ebp, esp
  00003	8b c1		 mov	 eax, ecx
  00005	8b 4d 08	 mov	 ecx, DWORD PTR __Parg$[ebp]
  00008	89 08		 mov	 DWORD PTR [eax], ecx

; 46   : 		this->_Adopt(_Pvector);
; 47   : 		}

  0000a	5d		 pop	 ebp
  0000b	c2 08 00	 ret	 8
??0?$_Vector_const_iterator@V?$_Vector_val@UtagNamedTitleGrade@@V?$allocator@UtagNamedTitleGrade@@@std@@@std@@@std@@QAE@PAUtagNamedTitleGrade@@PBU_Container_base0@1@@Z ENDP ; std::_Vector_const_iterator<std::_Vector_val<tagNamedTitleGrade,std::allocator<tagNamedTitleGrade> > >::_Vector_const_iterator<std::_Vector_val<tagNamedTitleGrade,std::allocator<tagNamedTitleGrade> > >
_TEXT	ENDS
PUBLIC	?_Compat@?$_Vector_const_iterator@V?$_Vector_val@UtagNamedTitleGrade@@V?$allocator@UtagNamedTitleGrade@@@std@@@std@@@std@@QBEXABV12@@Z ; std::_Vector_const_iterator<std::_Vector_val<tagNamedTitleGrade,std::allocator<tagNamedTitleGrade> > >::_Compat
; Function compile flags: /Ogsp
;	COMDAT ?_Compat@?$_Vector_const_iterator@V?$_Vector_val@UtagNamedTitleGrade@@V?$allocator@UtagNamedTitleGrade@@@std@@@std@@@std@@QBEXABV12@@Z
_TEXT	SEGMENT
___formal$ = 8						; size = 4
?_Compat@?$_Vector_const_iterator@V?$_Vector_val@UtagNamedTitleGrade@@V?$allocator@UtagNamedTitleGrade@@@std@@@std@@@std@@QBEXABV12@@Z PROC ; std::_Vector_const_iterator<std::_Vector_val<tagNamedTitleGrade,std::allocator<tagNamedTitleGrade> > >::_Compat, COMDAT
; _this$ = ecx

; 253  : 		}

  00000	c2 04 00	 ret	 4
?_Compat@?$_Vector_const_iterator@V?$_Vector_val@UtagNamedTitleGrade@@V?$allocator@UtagNamedTitleGrade@@@std@@@std@@@std@@QBEXABV12@@Z ENDP ; std::_Vector_const_iterator<std::_Vector_val<tagNamedTitleGrade,std::allocator<tagNamedTitleGrade> > >::_Compat
_TEXT	ENDS
EXTRN	__imp_??0exception@std@@QAE@ABV01@@Z:PROC
; Function compile flags: /Ogsp
;	COMDAT ??0bad_alloc@std@@QAE@ABV01@@Z
_TEXT	SEGMENT
___that$ = 8						; size = 4
??0bad_alloc@std@@QAE@ABV01@@Z PROC			; std::bad_alloc::bad_alloc, COMDAT
; _this$ = ecx
  00000	55		 push	 ebp
  00001	8b ec		 mov	 ebp, esp
  00003	56		 push	 esi
  00004	ff 75 08	 push	 DWORD PTR ___that$[ebp]
  00007	8b f1		 mov	 esi, ecx
  00009	ff 15 00 00 00
	00		 call	 DWORD PTR __imp_??0exception@std@@QAE@ABV01@@Z
  0000f	c7 06 00 00 00
	00		 mov	 DWORD PTR [esi], OFFSET ??_7bad_alloc@std@@6B@
  00015	8b c6		 mov	 eax, esi
  00017	5e		 pop	 esi
  00018	5d		 pop	 ebp
  00019	c2 04 00	 ret	 4
??0bad_alloc@std@@QAE@ABV01@@Z ENDP			; std::bad_alloc::bad_alloc
_TEXT	ENDS
PUBLIC	??$forward@AAK@std@@YAAAKAAK@Z			; std::forward<unsigned long &>
; Function compile flags: /Ogsp
; File c:\program files (x86)\microsoft visual studio 10.0\vc\include\utility
;	COMDAT ??$forward@AAK@std@@YAAAKAAK@Z
_TEXT	SEGMENT
__Arg$ = 8						; size = 4
??$forward@AAK@std@@YAAAKAAK@Z PROC			; std::forward<unsigned long &>, COMDAT

; 78   : 	{	// forward _Arg, given explicitly specified type parameter

  00000	55		 push	 ebp
  00001	8b ec		 mov	 ebp, esp

; 79   : 	return ((_Ty&&)_Arg);

  00003	8b 45 08	 mov	 eax, DWORD PTR __Arg$[ebp]

; 80   : 	}

  00006	5d		 pop	 ebp
  00007	c3		 ret	 0
??$forward@AAK@std@@YAAAKAAK@Z ENDP			; std::forward<unsigned long &>
_TEXT	ENDS
PUBLIC	??$_Ptr_cat@UtagNamedTitleGrade@@U1@@std@@YA?AU_Nonscalar_ptr_iterator_tag@0@PAUtagNamedTitleGrade@@0@Z ; std::_Ptr_cat<tagNamedTitleGrade,tagNamedTitleGrade>
; Function compile flags: /Ogsp
; File c:\program files (x86)\microsoft visual studio 10.0\vc\include\xutility
;	COMDAT ??$_Ptr_cat@UtagNamedTitleGrade@@U1@@std@@YA?AU_Nonscalar_ptr_iterator_tag@0@PAUtagNamedTitleGrade@@0@Z
_TEXT	SEGMENT
__Cat$ = -1						; size = 1
___formal$ = 8						; size = 4
___formal$ = 12						; size = 4
??$_Ptr_cat@UtagNamedTitleGrade@@U1@@std@@YA?AU_Nonscalar_ptr_iterator_tag@0@PAUtagNamedTitleGrade@@0@Z PROC ; std::_Ptr_cat<tagNamedTitleGrade,tagNamedTitleGrade>, COMDAT

; 516  : 	{	// return pointer category from pointers

  00000	55		 push	 ebp
  00001	8b ec		 mov	 ebp, esp
  00003	51		 push	 ecx

; 517  : 	typename _Ptr_cat_helper<_Elem1, _Elem2>::_Type _Cat;
; 518  : 	return (_Cat);

  00004	8a 45 ff	 mov	 al, BYTE PTR __Cat$[ebp]

; 519  : 	}

  00007	c9		 leave
  00008	c3		 ret	 0
??$_Ptr_cat@UtagNamedTitleGrade@@U1@@std@@YA?AU_Nonscalar_ptr_iterator_tag@0@PAUtagNamedTitleGrade@@0@Z ENDP ; std::_Ptr_cat<tagNamedTitleGrade,tagNamedTitleGrade>
_TEXT	ENDS
PUBLIC	??$_Move@AAD@std@@YA$$QADAAD@Z			; std::_Move<char &>
; Function compile flags: /Ogsp
; File c:\program files (x86)\microsoft visual studio 10.0\vc\include\utility
;	COMDAT ??$_Move@AAD@std@@YA$$QADAAD@Z
_TEXT	SEGMENT
__Arg$ = 8						; size = 4
??$_Move@AAD@std@@YA$$QADAAD@Z PROC			; std::_Move<char &>, COMDAT

; 94   : 	{	// forward _Arg as movable

  00000	55		 push	 ebp
  00001	8b ec		 mov	 ebp, esp

; 95   : 	return ((typename tr1::_Remove_reference<_Ty>::_Type&&)_Arg);

  00003	8b 45 08	 mov	 eax, DWORD PTR __Arg$[ebp]

; 96   : 	}

  00006	5d		 pop	 ebp
  00007	c3		 ret	 0
??$_Move@AAD@std@@YA$$QADAAD@Z ENDP			; std::_Move<char &>
_TEXT	ENDS
PUBLIC	??$move@AA_N@std@@YA$$QA_NAA_N@Z		; std::move<bool &>
; Function compile flags: /Ogsp
;	COMDAT ??$move@AA_N@std@@YA$$QA_NAA_N@Z
_TEXT	SEGMENT
__Arg$ = 8						; size = 4
??$move@AA_N@std@@YA$$QA_NAA_N@Z PROC			; std::move<bool &>, COMDAT

; 86   : 	{	// forward _Arg as movable

  00000	55		 push	 ebp
  00001	8b ec		 mov	 ebp, esp

; 87   : 	return ((typename tr1::_Remove_reference<_Ty>::_Type&&)_Arg);

  00003	8b 45 08	 mov	 eax, DWORD PTR __Arg$[ebp]

; 88   : 	}

  00006	5d		 pop	 ebp
  00007	c3		 ret	 0
??$move@AA_N@std@@YA$$QA_NAA_N@Z ENDP			; std::move<bool &>
_TEXT	ENDS
PUBLIC	??4tagNamedTitleGrade@@QAEAAU0@ABU0@@Z		; tagNamedTitleGrade::operator=
EXTRN	__imp_??4ioHashString@@QAEAAV0@ABV0@@Z:PROC
; Function compile flags: /Ogsp
;	COMDAT ??4tagNamedTitleGrade@@QAEAAU0@ABU0@@Z
_TEXT	SEGMENT
___that$ = 8						; size = 4
??4tagNamedTitleGrade@@QAEAAU0@ABU0@@Z PROC		; tagNamedTitleGrade::operator=, COMDAT
; _this$ = ecx
  00000	55		 push	 ebp
  00001	8b ec		 mov	 ebp, esp
  00003	8b 45 08	 mov	 eax, DWORD PTR ___that$[ebp]
  00006	56		 push	 esi
  00007	8b f1		 mov	 esi, ecx
  00009	8b 08		 mov	 ecx, DWORD PTR [eax]
  0000b	83 c0 04	 add	 eax, 4
  0000e	89 0e		 mov	 DWORD PTR [esi], ecx
  00010	50		 push	 eax
  00011	8d 4e 04	 lea	 ecx, DWORD PTR [esi+4]
  00014	ff 15 00 00 00
	00		 call	 DWORD PTR __imp_??4ioHashString@@QAEAAV0@ABV0@@Z
  0001a	8b c6		 mov	 eax, esi
  0001c	5e		 pop	 esi
  0001d	5d		 pop	 ebp
  0001e	c2 04 00	 ret	 4
??4tagNamedTitleGrade@@QAEAAU0@ABU0@@Z ENDP		; tagNamedTitleGrade::operator=
_TEXT	ENDS
PUBLIC	??$move@AAUtagNamedTitleGrade@@@std@@YA$$QAUtagNamedTitleGrade@@AAU1@@Z ; std::move<tagNamedTitleGrade &>
; Function compile flags: /Ogsp
;	COMDAT ??$move@AAUtagNamedTitleGrade@@@std@@YA$$QAUtagNamedTitleGrade@@AAU1@@Z
_TEXT	SEGMENT
__Arg$ = 8						; size = 4
??$move@AAUtagNamedTitleGrade@@@std@@YA$$QAUtagNamedTitleGrade@@AAU1@@Z PROC ; std::move<tagNamedTitleGrade &>, COMDAT

; 86   : 	{	// forward _Arg as movable

  00000	55		 push	 ebp
  00001	8b ec		 mov	 ebp, esp

; 87   : 	return ((typename tr1::_Remove_reference<_Ty>::_Type&&)_Arg);

  00003	8b 45 08	 mov	 eax, DWORD PTR __Arg$[ebp]

; 88   : 	}

  00006	5d		 pop	 ebp
  00007	c3		 ret	 0
??$move@AAUtagNamedTitleGrade@@@std@@YA$$QAUtagNamedTitleGrade@@AAU1@@Z ENDP ; std::move<tagNamedTitleGrade &>
_TEXT	ENDS
PUBLIC	??$forward@_N@std@@YA$$QA_NAA_N@Z		; std::forward<bool>
; Function compile flags: /Ogsp
;	COMDAT ??$forward@_N@std@@YA$$QA_NAA_N@Z
_TEXT	SEGMENT
__Arg$ = 8						; size = 4
??$forward@_N@std@@YA$$QA_NAA_N@Z PROC			; std::forward<bool>, COMDAT

; 78   : 	{	// forward _Arg, given explicitly specified type parameter

  00000	55		 push	 ebp
  00001	8b ec		 mov	 ebp, esp

; 79   : 	return ((_Ty&&)_Arg);

  00003	8b 45 08	 mov	 eax, DWORD PTR __Arg$[ebp]

; 80   : 	}

  00006	5d		 pop	 ebp
  00007	c3		 ret	 0
??$forward@_N@std@@YA$$QA_NAA_N@Z ENDP			; std::forward<bool>
_TEXT	ENDS
PUBLIC	??1tagNamedTitleGrade@@QAE@XZ			; tagNamedTitleGrade::~tagNamedTitleGrade
; Function compile flags: /Ogsp
;	COMDAT ??1tagNamedTitleGrade@@QAE@XZ
_TEXT	SEGMENT
??1tagNamedTitleGrade@@QAE@XZ PROC			; tagNamedTitleGrade::~tagNamedTitleGrade, COMDAT
; _this$ = ecx
  00000	83 c1 04	 add	 ecx, 4
  00003	ff 25 00 00 00
	00		 jmp	 DWORD PTR __imp_??1ioHashString@@QAE@XZ
??1tagNamedTitleGrade@@QAE@XZ ENDP			; tagNamedTitleGrade::~tagNamedTitleGrade
_TEXT	ENDS
PUBLIC	?GetSingleton@ioNamedTitleInfoManager@@SAAAV1@XZ ; ioNamedTitleInfoManager::GetSingleton
; Function compile flags: /Ogsp
; File d:\lost saga for developer\youtube\tutorial\source\src\lsclient\ionamedtitleinfomanager.cpp
;	COMDAT ?GetSingleton@ioNamedTitleInfoManager@@SAAAV1@XZ
_TEXT	SEGMENT
?GetSingleton@ioNamedTitleInfoManager@@SAAAV1@XZ PROC	; ioNamedTitleInfoManager::GetSingleton, COMDAT

; 29   : 	return Singleton< ioNamedTitleInfoManager >::GetSingleton();

  00000	a1 00 00 00 00	 mov	 eax, DWORD PTR ?ms_Singleton@?$Singleton@VioNamedTitleInfoManager@@@@1PAVioNamedTitleInfoManager@@A ; Singleton<ioNamedTitleInfoManager>::ms_Singleton

; 30   : }

  00005	c3		 ret	 0
?GetSingleton@ioNamedTitleInfoManager@@SAAAV1@XZ ENDP	; ioNamedTitleInfoManager::GetSingleton
_TEXT	ENDS
PUBLIC	??_R0?AVMannerValuationExtensionWnd@@@8		; MannerValuationExtensionWnd `RTTI Type Descriptor'
PUBLIC	??_R0?AVNamedTitleSelectWnd@@@8			; NamedTitleSelectWnd `RTTI Type Descriptor'
PUBLIC	?OnNamedTitleChange@ioNamedTitleInfoManager@@QAEXAAVSP2Packet@@PAVioPlayStage@@@Z ; ioNamedTitleInfoManager::OnNamedTitleChange
EXTRN	?ApplyTitle@MannerValuationExtensionWnd@@QAEXXZ:PROC ; MannerValuationExtensionWnd::ApplyTitle
EXTRN	?Update@NamedTitleSelectWnd@@QAEXXZ:PROC	; NamedTitleSelectWnd::Update
EXTRN	?ApplyEquipChangeNamedTitle@ioMyInfo@@QAEXKE@Z:PROC ; ioMyInfo::ApplyEquipChangeNamedTitle
EXTRN	__imp_??8ioHashString@@QBE_NABV0@@Z:PROC
EXTRN	?GetSingleton@ioMyInfo@@SAAAV1@XZ:PROC		; ioMyInfo::GetSingleton
EXTRN	??5SP2Packet@@QAEAAV0@AA_J@Z:PROC		; SP2Packet::operator>>
;	COMDAT ??_R0?AVMannerValuationExtensionWnd@@@8
; File d:\lost saga for developer\youtube\tutorial\source\src\lsclient\iomyinfo.h
_DATA	SEGMENT
??_R0?AVMannerValuationExtensionWnd@@@8 DD FLAT:??_7type_info@@6B@ ; MannerValuationExtensionWnd `RTTI Type Descriptor'
	DD	00H
	DB	'.?AVMannerValuationExtensionWnd@@', 00H
_DATA	ENDS
;	COMDAT ??_R0?AVNamedTitleSelectWnd@@@8
_DATA	SEGMENT
??_R0?AVNamedTitleSelectWnd@@@8 DD FLAT:??_7type_info@@6B@ ; NamedTitleSelectWnd `RTTI Type Descriptor'
	DD	00H
	DB	'.?AVNamedTitleSelectWnd@@', 00H
_DATA	ENDS
;	COMDAT xdata$x
xdata$x	SEGMENT
__unwindtable$?OnNamedTitleChange@ioNamedTitleInfoManager@@QAEXAAVSP2Packet@@PAVioPlayStage@@@Z DD 0ffffffffH
	DD	FLAT:__unwindfunclet$?OnNamedTitleChange@ioNamedTitleInfoManager@@QAEXAAVSP2Packet@@PAVioPlayStage@@@Z$0
__ehfuncinfo$?OnNamedTitleChange@ioNamedTitleInfoManager@@QAEXAAVSP2Packet@@PAVioPlayStage@@@Z DD 019930522H
	DD	01H
	DD	FLAT:__unwindtable$?OnNamedTitleChange@ioNamedTitleInfoManager@@QAEXAAVSP2Packet@@PAVioPlayStage@@@Z
	DD	2 DUP(00H)
	DD	2 DUP(00H)
	DD	00H
	DD	01H
; Function compile flags: /Ogsp
; File d:\lost saga for developer\youtube\tutorial\source\src\lsclient\ionamedtitleinfomanager.cpp
xdata$x	ENDS
;	COMDAT ?OnNamedTitleChange@ioNamedTitleInfoManager@@QAEXAAVSP2Packet@@PAVioPlayStage@@@Z
_TEXT	SEGMENT
_szOwner$ = -56						; size = 16
_nValue$ = -40						; size = 8
_nLevel$ = -32						; size = 4
_byPremium$ = -28					; size = 1
_dwCode$ = -24						; size = 4
_byEquip$ = -17						; size = 1
_byStatus$ = -13					; size = 1
__$EHRec$ = -12						; size = 12
_pSelectWnd$533688 = 8					; size = 4
_rkPacket$ = 8						; size = 4
_pPlayStage$ = 12					; size = 4
?OnNamedTitleChange@ioNamedTitleInfoManager@@QAEXAAVSP2Packet@@PAVioPlayStage@@@Z PROC ; ioNamedTitleInfoManager::OnNamedTitleChange, COMDAT
; _this$ = ecx

; 324  : {

  00000	6a 2c		 push	 44			; 0000002cH
  00002	b8 00 00 00 00	 mov	 eax, __ehhandler$?OnNamedTitleChange@ioNamedTitleInfoManager@@QAEXAAVSP2Packet@@PAVioPlayStage@@@Z
  00007	e8 00 00 00 00	 call	 __EH_prolog3

; 325  : 	TCPNetwork::MouseBusy( false );

  0000c	33 db		 xor	 ebx, ebx
  0000e	53		 push	 ebx
  0000f	e8 00 00 00 00	 call	 ?MouseBusy@TCPNetwork@@YAX_N@Z ; TCPNetwork::MouseBusy
  00014	59		 pop	 ecx

; 326  : 
; 327  : 	if ( !pPlayStage )

  00015	39 5d 0c	 cmp	 DWORD PTR _pPlayStage$[ebp], ebx
  00018	0f 84 6b 01 00
	00		 je	 $LN11@OnNamedTit@4

; 328  : 		return;
; 329  : 
; 330  : 	ioHashString szOwner;

  0001e	8d 4d c8	 lea	 ecx, DWORD PTR _szOwner$[ebp]
  00021	ff 15 00 00 00
	00		 call	 DWORD PTR __imp_??0ioHashString@@QAE@XZ

; 331  : 	rkPacket >> szOwner;

  00027	8b 4d 08	 mov	 ecx, DWORD PTR _rkPacket$[ebp]
  0002a	8d 45 c8	 lea	 eax, DWORD PTR _szOwner$[ebp]
  0002d	50		 push	 eax
  0002e	89 5d fc	 mov	 DWORD PTR __$EHRec$[ebp+8], ebx
  00031	e8 00 00 00 00	 call	 ??5SP2Packet@@QAEAAV0@AAVioHashString@@@Z ; SP2Packet::operator>>

; 332  : 
; 333  : 	DWORD dwCode;
; 334  : 	__int64 nValue;
; 335  : 	int nLevel;
; 336  : 	BYTE byPremium, byEquip, byStatus;
; 337  : 
; 338  : 	rkPacket >> dwCode >> nValue >> nLevel;

  00036	8b 4d 08	 mov	 ecx, DWORD PTR _rkPacket$[ebp]
  00039	8d 45 e0	 lea	 eax, DWORD PTR _nLevel$[ebp]
  0003c	50		 push	 eax
  0003d	8d 45 d8	 lea	 eax, DWORD PTR _nValue$[ebp]
  00040	50		 push	 eax
  00041	8d 45 e8	 lea	 eax, DWORD PTR _dwCode$[ebp]
  00044	50		 push	 eax
  00045	e8 00 00 00 00	 call	 ??5SP2Packet@@QAEAAV0@AAK@Z ; SP2Packet::operator>>
  0004a	8b c8		 mov	 ecx, eax
  0004c	e8 00 00 00 00	 call	 ??5SP2Packet@@QAEAAV0@AA_J@Z ; SP2Packet::operator>>
  00051	8b c8		 mov	 ecx, eax
  00053	e8 00 00 00 00	 call	 ??5SP2Packet@@QAEAAV0@AAH@Z ; SP2Packet::operator>>

; 339  : 	rkPacket >> byPremium >> byEquip >> byStatus;

  00058	8b 4d 08	 mov	 ecx, DWORD PTR _rkPacket$[ebp]
  0005b	8d 45 f3	 lea	 eax, DWORD PTR _byStatus$[ebp]
  0005e	50		 push	 eax
  0005f	8d 45 ef	 lea	 eax, DWORD PTR _byEquip$[ebp]
  00062	50		 push	 eax
  00063	8d 45 e4	 lea	 eax, DWORD PTR _byPremium$[ebp]
  00066	50		 push	 eax
  00067	e8 00 00 00 00	 call	 ??5SP2Packet@@QAEAAV0@AAE@Z ; SP2Packet::operator>>
  0006c	8b c8		 mov	 ecx, eax
  0006e	e8 00 00 00 00	 call	 ??5SP2Packet@@QAEAAV0@AAE@Z ; SP2Packet::operator>>
  00073	8b c8		 mov	 ecx, eax
  00075	e8 00 00 00 00	 call	 ??5SP2Packet@@QAEAAV0@AAE@Z ; SP2Packet::operator>>

; 340  : 
; 341  : 	// 교체 대상이 자신일때
; 342  : 	if( szOwner == g_MyInfo.GetPublicID() )

  0007a	e8 00 00 00 00	 call	 ?GetSingleton@ioMyInfo@@SAAAV1@XZ ; ioMyInfo::GetSingleton
  0007f	83 c0 1c	 add	 eax, 28			; 0000001cH
  00082	50		 push	 eax
  00083	8d 4d c8	 lea	 ecx, DWORD PTR _szOwner$[ebp]
  00086	ff 15 00 00 00
	00		 call	 DWORD PTR __imp_??8ioHashString@@QBE_NABV0@@Z
  0008c	8b 35 00 00 00
	00		 mov	 esi, DWORD PTR __imp_?FindWnd@ioGUIManager@@QAEPAVioWnd@@K@Z
  00092	bf 00 00 00 00	 mov	 edi, OFFSET ??_R0?AVioWnd@@@8
  00097	84 c0		 test	 al, al
  00099	74 4c		 je	 SHORT $LN8@OnNamedTit@4

; 343  : 	{
; 344  : 		g_MyInfo.ApplyEquipChangeNamedTitle( dwCode, byEquip );

  0009b	ff 75 ef	 push	 DWORD PTR _byEquip$[ebp]
  0009e	ff 75 e8	 push	 DWORD PTR _dwCode$[ebp]
  000a1	e8 00 00 00 00	 call	 ?GetSingleton@ioMyInfo@@SAAAV1@XZ ; ioMyInfo::GetSingleton
  000a6	8b c8		 mov	 ecx, eax
  000a8	e8 00 00 00 00	 call	 ?ApplyEquipChangeNamedTitle@ioMyInfo@@QAEXKE@Z ; ioMyInfo::ApplyEquipChangeNamedTitle

; 345  : 
; 346  : 		NamedTitleSelectWnd *pSelectWnd = dynamic_cast<NamedTitleSelectWnd*>( g_GUIMgr.FindWnd( NAMED_TITLE_SELECT_WND ) );

  000ad	53		 push	 ebx
  000ae	68 00 00 00 00	 push	 OFFSET ??_R0?AVNamedTitleSelectWnd@@@8
  000b3	57		 push	 edi
  000b4	53		 push	 ebx
  000b5	68 93 18 00 00	 push	 6291			; 00001893H
  000ba	e8 00 00 00 00	 call	 ?GetSingleton@ioSP2GUIManager@@SAAAV1@XZ ; ioSP2GUIManager::GetSingleton
  000bf	8b c8		 mov	 ecx, eax
  000c1	ff d6		 call	 esi
  000c3	50		 push	 eax
  000c4	e8 00 00 00 00	 call	 ___RTDynamicCast
  000c9	8b c8		 mov	 ecx, eax
  000cb	83 c4 14	 add	 esp, 20			; 00000014H
  000ce	89 4d 08	 mov	 DWORD PTR _pSelectWnd$533688[ebp], ecx

; 347  : 		if( pSelectWnd && pSelectWnd->IsShow() )

  000d1	3b cb		 cmp	 ecx, ebx
  000d3	74 12		 je	 SHORT $LN8@OnNamedTit@4
  000d5	ff 15 00 00 00
	00		 call	 DWORD PTR __imp_?IsShow@ioWnd@@QBE_NXZ
  000db	84 c0		 test	 al, al
  000dd	74 08		 je	 SHORT $LN8@OnNamedTit@4

; 348  : 			pSelectWnd->Update();

  000df	8b 4d 08	 mov	 ecx, DWORD PTR _pSelectWnd$533688[ebp]
  000e2	e8 00 00 00 00	 call	 ?Update@NamedTitleSelectWnd@@QAEXXZ ; NamedTitleSelectWnd::Update
$LN8@OnNamedTit@4:

; 349  : 	}
; 350  : 
; 351  : 	// 유저 노드 적용
; 352  : 	UserInfoNode *pInfo = g_UserInfoMgr.GetUserInfoNode( szOwner, false );

  000e7	8d 45 c8	 lea	 eax, DWORD PTR _szOwner$[ebp]
  000ea	53		 push	 ebx
  000eb	50		 push	 eax
  000ec	e8 00 00 00 00	 call	 ?GetSingleton@ioUserInfoMgr@@SAAAV1@XZ ; ioUserInfoMgr::GetSingleton
  000f1	8b c8		 mov	 ecx, eax
  000f3	e8 00 00 00 00	 call	 ?GetUserInfoNode@ioUserInfoMgr@@QAEPAVUserInfoNode@@ABVioHashString@@_N@Z ; ioUserInfoMgr::GetUserInfoNode
  000f8	8b c8		 mov	 ecx, eax

; 353  : 	if ( pInfo )

  000fa	3b cb		 cmp	 ecx, ebx
  000fc	74 18		 je	 SHORT $LN5@OnNamedTit@4

; 354  : 	{
; 355  : 		if ( byEquip )

  000fe	38 5d ef	 cmp	 BYTE PTR _byEquip$[ebp], bl
  00101	74 0b		 je	 SHORT $LN6@OnNamedTit@4

; 356  : 			pInfo->SetNamedTitle( dwCode, nLevel, byPremium );

  00103	ff 75 e4	 push	 DWORD PTR _byPremium$[ebp]
  00106	ff 75 e0	 push	 DWORD PTR _nLevel$[ebp]
  00109	ff 75 e8	 push	 DWORD PTR _dwCode$[ebp]

; 357  : 		else

  0010c	eb 03		 jmp	 SHORT $LN17@OnNamedTit@4
$LN6@OnNamedTit@4:

; 358  : 			pInfo->SetNamedTitle( 0, 0, false );

  0010e	53		 push	 ebx
  0010f	53		 push	 ebx
  00110	53		 push	 ebx
$LN17@OnNamedTit@4:
  00111	e8 00 00 00 00	 call	 ?SetNamedTitle@UserInfoNode@@QAEXKHE@Z ; UserInfoNode::SetNamedTitle
$LN5@OnNamedTit@4:

; 359  : 	}
; 360  : 
; 361  : 	// 캐릭터 적용
; 362  : 	ioBaseChar *pOwner = pPlayStage->GetBaseChar( szOwner );

  00116	8b 4d 0c	 mov	 ecx, DWORD PTR _pPlayStage$[ebp]
  00119	8d 45 c8	 lea	 eax, DWORD PTR _szOwner$[ebp]
  0011c	50		 push	 eax
  0011d	e8 00 00 00 00	 call	 ?GetBaseChar@ioPlayStage@@QAEPAVioBaseChar@@ABVioHashString@@@Z ; ioPlayStage::GetBaseChar

; 363  : 	if ( pOwner )

  00122	3b c3		 cmp	 eax, ebx
  00124	74 1e		 je	 SHORT $LN2@OnNamedTit@4

; 364  : 	{
; 365  : 		if ( byEquip )
; 366  : 			pOwner->SetNamedTitle( dwCode, nLevel, byPremium );

  00126	8d 88 cc 01 00
	00		 lea	 ecx, DWORD PTR [eax+460]
  0012c	38 5d ef	 cmp	 BYTE PTR _byEquip$[ebp], bl
  0012f	74 0b		 je	 SHORT $LN3@OnNamedTit@4
  00131	ff 75 e4	 push	 DWORD PTR _byPremium$[ebp]
  00134	ff 75 e0	 push	 DWORD PTR _nLevel$[ebp]
  00137	ff 75 e8	 push	 DWORD PTR _dwCode$[ebp]

; 367  : 		else

  0013a	eb 03		 jmp	 SHORT $LN18@OnNamedTit@4
$LN3@OnNamedTit@4:

; 368  : 			pOwner->SetNamedTitle( 0, 0, false );

  0013c	53		 push	 ebx
  0013d	53		 push	 ebx
  0013e	53		 push	 ebx
$LN18@OnNamedTit@4:
  0013f	e8 00 00 00 00	 call	 ?SetNamedTitle@ioBaseGUISupport@@QAEXKHE@Z ; ioBaseGUISupport::SetNamedTitle
$LN2@OnNamedTit@4:

; 369  : 	}
; 370  : 
; 371  : 	MannerValuationExtensionWnd *pManner = dynamic_cast<MannerValuationExtensionWnd *>( g_GUIMgr.FindWnd( MANNER_VALUATION_WND ) );

  00144	53		 push	 ebx
  00145	68 00 00 00 00	 push	 OFFSET ??_R0?AVMannerValuationExtensionWnd@@@8
  0014a	57		 push	 edi
  0014b	53		 push	 ebx
  0014c	68 8e 17 00 00	 push	 6030			; 0000178eH
  00151	e8 00 00 00 00	 call	 ?GetSingleton@ioSP2GUIManager@@SAAAV1@XZ ; ioSP2GUIManager::GetSingleton
  00156	8b c8		 mov	 ecx, eax
  00158	ff d6		 call	 esi
  0015a	50		 push	 eax
  0015b	e8 00 00 00 00	 call	 ___RTDynamicCast
  00160	8b f0		 mov	 esi, eax
  00162	83 c4 14	 add	 esp, 20			; 00000014H

; 372  : 	if( pManner && pManner->IsShow() )

  00165	3b f3		 cmp	 esi, ebx
  00167	74 13		 je	 SHORT $LN1@OnNamedTit@4
  00169	8b ce		 mov	 ecx, esi
  0016b	ff 15 00 00 00
	00		 call	 DWORD PTR __imp_?IsShow@ioWnd@@QBE_NXZ
  00171	84 c0		 test	 al, al
  00173	74 07		 je	 SHORT $LN1@OnNamedTit@4

; 373  : 		pManner->ApplyTitle();

  00175	8b ce		 mov	 ecx, esi
  00177	e8 00 00 00 00	 call	 ?ApplyTitle@MannerValuationExtensionWnd@@QAEXXZ ; MannerValuationExtensionWnd::ApplyTitle
$LN1@OnNamedTit@4:

; 374  : }

  0017c	83 4d fc ff	 or	 DWORD PTR __$EHRec$[ebp+8], -1
  00180	8d 4d c8	 lea	 ecx, DWORD PTR _szOwner$[ebp]
  00183	ff 15 00 00 00
	00		 call	 DWORD PTR __imp_??1ioHashString@@QAE@XZ
$LN11@OnNamedTit@4:
  00189	e8 00 00 00 00	 call	 __EH_epilog3
  0018e	c2 08 00	 ret	 8
_TEXT	ENDS
;	COMDAT text$x
text$x	SEGMENT
__unwindfunclet$?OnNamedTitleChange@ioNamedTitleInfoManager@@QAEXAAVSP2Packet@@PAVioPlayStage@@@Z$0:
  00000	8d 4d c8	 lea	 ecx, DWORD PTR _szOwner$[ebp]
  00003	ff 25 00 00 00
	00		 jmp	 DWORD PTR __imp_??1ioHashString@@QAE@XZ
__ehhandler$?OnNamedTitleChange@ioNamedTitleInfoManager@@QAEXAAVSP2Packet@@PAVioPlayStage@@@Z:
  00009	8b 54 24 08	 mov	 edx, DWORD PTR [esp+8]
  0000d	8d 42 0c	 lea	 eax, DWORD PTR [edx+12]
  00010	8b 4a c4	 mov	 ecx, DWORD PTR [edx-60]
  00013	33 c8		 xor	 ecx, eax
  00015	e8 00 00 00 00	 call	 @__security_check_cookie@4
  0001a	b8 00 00 00 00	 mov	 eax, OFFSET __ehfuncinfo$?OnNamedTitleChange@ioNamedTitleInfoManager@@QAEXAAVSP2Packet@@PAVioPlayStage@@@Z
  0001f	e9 00 00 00 00	 jmp	 ___CxxFrameHandler3
text$x	ENDS
?OnNamedTitleChange@ioNamedTitleInfoManager@@QAEXAAVSP2Packet@@PAVioPlayStage@@@Z ENDP ; ioNamedTitleInfoManager::OnNamedTitleChange
PUBLIC	?OnNamedTitleLevelUpSuccess@ioNamedTitleInfoManager@@IAEXAAVSP2Packet@@PAVioPlayStage@@@Z ; ioNamedTitleInfoManager::OnNamedTitleLevelUpSuccess
EXTRN	?ApplyGradeChangeNamedTitle@ioMyInfo@@QAEXKH@Z:PROC ; ioMyInfo::ApplyGradeChangeNamedTitle
;	COMDAT xdata$x
; File d:\lost saga for developer\youtube\tutorial\source\src\lsclient\iomyinfo.h
xdata$x	SEGMENT
__unwindtable$?OnNamedTitleLevelUpSuccess@ioNamedTitleInfoManager@@IAEXAAVSP2Packet@@PAVioPlayStage@@@Z DD 0ffffffffH
	DD	FLAT:__unwindfunclet$?OnNamedTitleLevelUpSuccess@ioNamedTitleInfoManager@@IAEXAAVSP2Packet@@PAVioPlayStage@@@Z$0
__ehfuncinfo$?OnNamedTitleLevelUpSuccess@ioNamedTitleInfoManager@@IAEXAAVSP2Packet@@PAVioPlayStage@@@Z DD 019930522H
	DD	01H
	DD	FLAT:__unwindtable$?OnNamedTitleLevelUpSuccess@ioNamedTitleInfoManager@@IAEXAAVSP2Packet@@PAVioPlayStage@@@Z
	DD	2 DUP(00H)
	DD	2 DUP(00H)
	DD	00H
	DD	01H
; Function compile flags: /Ogsp
; File d:\lost saga for developer\youtube\tutorial\source\src\lsclient\ionamedtitleinfomanager.cpp
xdata$x	ENDS
;	COMDAT ?OnNamedTitleLevelUpSuccess@ioNamedTitleInfoManager@@IAEXAAVSP2Packet@@PAVioPlayStage@@@Z
_TEXT	SEGMENT
_szOwner$ = -52						; size = 16
_nValue$ = -36						; size = 8
_byPremium$ = -28					; size = 1
_dwCode$ = -24						; size = 4
_nLevel$ = -20						; size = 4
_byStatus$ = -14					; size = 1
_byEquip$ = -13						; size = 1
__$EHRec$ = -12						; size = 12
_pSelectWnd$533792 = 8					; size = 4
_rkPacket$ = 8						; size = 4
_pPlayStage$ = 12					; size = 4
?OnNamedTitleLevelUpSuccess@ioNamedTitleInfoManager@@IAEXAAVSP2Packet@@PAVioPlayStage@@@Z PROC ; ioNamedTitleInfoManager::OnNamedTitleLevelUpSuccess, COMDAT
; _this$ = ecx

; 511  : {

  00000	6a 28		 push	 40			; 00000028H
  00002	b8 00 00 00 00	 mov	 eax, __ehhandler$?OnNamedTitleLevelUpSuccess@ioNamedTitleInfoManager@@IAEXAAVSP2Packet@@PAVioPlayStage@@@Z
  00007	e8 00 00 00 00	 call	 __EH_prolog3

; 512  : 	if ( !pPlayStage )

  0000c	33 db		 xor	 ebx, ebx
  0000e	39 5d 0c	 cmp	 DWORD PTR _pPlayStage$[ebp], ebx
  00011	0f 84 5c 01 00
	00		 je	 $LN8@OnNamedTit@5

; 513  : 		return;
; 514  : 
; 515  : 	ioHashString szOwner;

  00017	8d 4d cc	 lea	 ecx, DWORD PTR _szOwner$[ebp]
  0001a	ff 15 00 00 00
	00		 call	 DWORD PTR __imp_??0ioHashString@@QAE@XZ

; 516  : 	rkPacket >> szOwner;

  00020	8b 4d 08	 mov	 ecx, DWORD PTR _rkPacket$[ebp]
  00023	8d 45 cc	 lea	 eax, DWORD PTR _szOwner$[ebp]
  00026	50		 push	 eax
  00027	89 5d fc	 mov	 DWORD PTR __$EHRec$[ebp+8], ebx
  0002a	e8 00 00 00 00	 call	 ??5SP2Packet@@QAEAAV0@AAVioHashString@@@Z ; SP2Packet::operator>>

; 517  : 
; 518  : 	DWORD dwCode;
; 519  : 	__int64 nValue;
; 520  : 	int nLevel;
; 521  : 	BYTE byPremium, byEquip, byStatus;
; 522  : 
; 523  : 	rkPacket >> dwCode >> nValue >> nLevel;

  0002f	8b 4d 08	 mov	 ecx, DWORD PTR _rkPacket$[ebp]
  00032	8d 45 ec	 lea	 eax, DWORD PTR _nLevel$[ebp]
  00035	50		 push	 eax
  00036	8d 45 dc	 lea	 eax, DWORD PTR _nValue$[ebp]
  00039	50		 push	 eax
  0003a	8d 45 e8	 lea	 eax, DWORD PTR _dwCode$[ebp]
  0003d	50		 push	 eax
  0003e	e8 00 00 00 00	 call	 ??5SP2Packet@@QAEAAV0@AAK@Z ; SP2Packet::operator>>
  00043	8b c8		 mov	 ecx, eax
  00045	e8 00 00 00 00	 call	 ??5SP2Packet@@QAEAAV0@AA_J@Z ; SP2Packet::operator>>
  0004a	8b c8		 mov	 ecx, eax
  0004c	e8 00 00 00 00	 call	 ??5SP2Packet@@QAEAAV0@AAH@Z ; SP2Packet::operator>>

; 524  : 	rkPacket >> byPremium >> byEquip >> byStatus;

  00051	8b 4d 08	 mov	 ecx, DWORD PTR _rkPacket$[ebp]
  00054	8d 45 f2	 lea	 eax, DWORD PTR _byStatus$[ebp]
  00057	50		 push	 eax
  00058	8d 45 f3	 lea	 eax, DWORD PTR _byEquip$[ebp]
  0005b	50		 push	 eax
  0005c	8d 45 e4	 lea	 eax, DWORD PTR _byPremium$[ebp]
  0005f	50		 push	 eax
  00060	e8 00 00 00 00	 call	 ??5SP2Packet@@QAEAAV0@AAE@Z ; SP2Packet::operator>>
  00065	8b c8		 mov	 ecx, eax
  00067	e8 00 00 00 00	 call	 ??5SP2Packet@@QAEAAV0@AAE@Z ; SP2Packet::operator>>
  0006c	8b c8		 mov	 ecx, eax
  0006e	e8 00 00 00 00	 call	 ??5SP2Packet@@QAEAAV0@AAE@Z ; SP2Packet::operator>>

; 525  : 	
; 526  : 	// 교체 대상이 자신일때
; 527  : 	if( szOwner == g_MyInfo.GetPublicID() )

  00073	e8 00 00 00 00	 call	 ?GetSingleton@ioMyInfo@@SAAAV1@XZ ; ioMyInfo::GetSingleton
  00078	83 c0 1c	 add	 eax, 28			; 0000001cH
  0007b	50		 push	 eax
  0007c	8d 4d cc	 lea	 ecx, DWORD PTR _szOwner$[ebp]
  0007f	ff 15 00 00 00
	00		 call	 DWORD PTR __imp_??8ioHashString@@QBE_NABV0@@Z
  00085	8b 35 00 00 00
	00		 mov	 esi, DWORD PTR __imp_?FindWnd@ioGUIManager@@QAEPAVioWnd@@K@Z
  0008b	bf 00 00 00 00	 mov	 edi, OFFSET ??_R0?AVioWnd@@@8
  00090	84 c0		 test	 al, al
  00092	74 4c		 je	 SHORT $LN5@OnNamedTit@5

; 528  : 	{
; 529  : 		g_MyInfo.ApplyGradeChangeNamedTitle( dwCode, nLevel );

  00094	ff 75 ec	 push	 DWORD PTR _nLevel$[ebp]
  00097	ff 75 e8	 push	 DWORD PTR _dwCode$[ebp]
  0009a	e8 00 00 00 00	 call	 ?GetSingleton@ioMyInfo@@SAAAV1@XZ ; ioMyInfo::GetSingleton
  0009f	8b c8		 mov	 ecx, eax
  000a1	e8 00 00 00 00	 call	 ?ApplyGradeChangeNamedTitle@ioMyInfo@@QAEXKH@Z ; ioMyInfo::ApplyGradeChangeNamedTitle

; 530  : 
; 531  : 		NamedTitleSelectWnd *pSelectWnd = dynamic_cast<NamedTitleSelectWnd*>( g_GUIMgr.FindWnd( NAMED_TITLE_SELECT_WND ) );

  000a6	53		 push	 ebx
  000a7	68 00 00 00 00	 push	 OFFSET ??_R0?AVNamedTitleSelectWnd@@@8
  000ac	57		 push	 edi
  000ad	53		 push	 ebx
  000ae	68 93 18 00 00	 push	 6291			; 00001893H
  000b3	e8 00 00 00 00	 call	 ?GetSingleton@ioSP2GUIManager@@SAAAV1@XZ ; ioSP2GUIManager::GetSingleton
  000b8	8b c8		 mov	 ecx, eax
  000ba	ff d6		 call	 esi
  000bc	50		 push	 eax
  000bd	e8 00 00 00 00	 call	 ___RTDynamicCast
  000c2	8b c8		 mov	 ecx, eax
  000c4	83 c4 14	 add	 esp, 20			; 00000014H
  000c7	89 4d 08	 mov	 DWORD PTR _pSelectWnd$533792[ebp], ecx

; 532  : 		if( pSelectWnd && pSelectWnd->IsShow() )

  000ca	3b cb		 cmp	 ecx, ebx
  000cc	74 12		 je	 SHORT $LN5@OnNamedTit@5
  000ce	ff 15 00 00 00
	00		 call	 DWORD PTR __imp_?IsShow@ioWnd@@QBE_NXZ
  000d4	84 c0		 test	 al, al
  000d6	74 08		 je	 SHORT $LN5@OnNamedTit@5

; 533  : 			pSelectWnd->Update();

  000d8	8b 4d 08	 mov	 ecx, DWORD PTR _pSelectWnd$533792[ebp]
  000db	e8 00 00 00 00	 call	 ?Update@NamedTitleSelectWnd@@QAEXXZ ; NamedTitleSelectWnd::Update
$LN5@OnNamedTit@5:

; 534  : 	}
; 535  : 
; 536  : 	if ( byEquip )

  000e0	38 5d f3	 cmp	 BYTE PTR _byEquip$[ebp], bl
  000e3	74 49		 je	 SHORT $LN2@OnNamedTit@5

; 537  : 	{
; 538  : 		// 유저 노드 적용
; 539  : 		UserInfoNode *pInfo = g_UserInfoMgr.GetUserInfoNode( szOwner, false );

  000e5	8d 45 cc	 lea	 eax, DWORD PTR _szOwner$[ebp]
  000e8	53		 push	 ebx
  000e9	50		 push	 eax
  000ea	e8 00 00 00 00	 call	 ?GetSingleton@ioUserInfoMgr@@SAAAV1@XZ ; ioUserInfoMgr::GetSingleton
  000ef	8b c8		 mov	 ecx, eax
  000f1	e8 00 00 00 00	 call	 ?GetUserInfoNode@ioUserInfoMgr@@QAEPAVUserInfoNode@@ABVioHashString@@_N@Z ; ioUserInfoMgr::GetUserInfoNode

; 540  : 		if ( pInfo )

  000f6	3b c3		 cmp	 eax, ebx
  000f8	74 10		 je	 SHORT $LN3@OnNamedTit@5

; 541  : 			pInfo->SetNamedTitle( dwCode, nLevel, byPremium );

  000fa	ff 75 e4	 push	 DWORD PTR _byPremium$[ebp]
  000fd	8b c8		 mov	 ecx, eax
  000ff	ff 75 ec	 push	 DWORD PTR _nLevel$[ebp]
  00102	ff 75 e8	 push	 DWORD PTR _dwCode$[ebp]
  00105	e8 00 00 00 00	 call	 ?SetNamedTitle@UserInfoNode@@QAEXKHE@Z ; UserInfoNode::SetNamedTitle
$LN3@OnNamedTit@5:

; 542  : 
; 543  : 		// 캐릭터 적용
; 544  : 		ioBaseChar *pOwner = pPlayStage->GetBaseChar( szOwner );

  0010a	8b 4d 0c	 mov	 ecx, DWORD PTR _pPlayStage$[ebp]
  0010d	8d 45 cc	 lea	 eax, DWORD PTR _szOwner$[ebp]
  00110	50		 push	 eax
  00111	e8 00 00 00 00	 call	 ?GetBaseChar@ioPlayStage@@QAEPAVioBaseChar@@ABVioHashString@@@Z ; ioPlayStage::GetBaseChar

; 545  : 		if ( pOwner )

  00116	3b c3		 cmp	 eax, ebx
  00118	74 14		 je	 SHORT $LN2@OnNamedTit@5

; 546  : 			pOwner->SetNamedTitle( dwCode, nLevel, byPremium );

  0011a	ff 75 e4	 push	 DWORD PTR _byPremium$[ebp]
  0011d	8d 88 cc 01 00
	00		 lea	 ecx, DWORD PTR [eax+460]
  00123	ff 75 ec	 push	 DWORD PTR _nLevel$[ebp]
  00126	ff 75 e8	 push	 DWORD PTR _dwCode$[ebp]
  00129	e8 00 00 00 00	 call	 ?SetNamedTitle@ioBaseGUISupport@@QAEXKHE@Z ; ioBaseGUISupport::SetNamedTitle
$LN2@OnNamedTit@5:

; 547  : 	}
; 548  : 
; 549  : 	MannerValuationExtensionWnd *pManner = dynamic_cast<MannerValuationExtensionWnd *>( g_GUIMgr.FindWnd( MANNER_VALUATION_WND ) );

  0012e	53		 push	 ebx
  0012f	68 00 00 00 00	 push	 OFFSET ??_R0?AVMannerValuationExtensionWnd@@@8
  00134	57		 push	 edi
  00135	53		 push	 ebx
  00136	68 8e 17 00 00	 push	 6030			; 0000178eH
  0013b	e8 00 00 00 00	 call	 ?GetSingleton@ioSP2GUIManager@@SAAAV1@XZ ; ioSP2GUIManager::GetSingleton
  00140	8b c8		 mov	 ecx, eax
  00142	ff d6		 call	 esi
  00144	50		 push	 eax
  00145	e8 00 00 00 00	 call	 ___RTDynamicCast
  0014a	8b f0		 mov	 esi, eax
  0014c	83 c4 14	 add	 esp, 20			; 00000014H

; 550  : 	if( pManner && pManner->IsShow() )

  0014f	3b f3		 cmp	 esi, ebx
  00151	74 13		 je	 SHORT $LN1@OnNamedTit@5
  00153	8b ce		 mov	 ecx, esi
  00155	ff 15 00 00 00
	00		 call	 DWORD PTR __imp_?IsShow@ioWnd@@QBE_NXZ
  0015b	84 c0		 test	 al, al
  0015d	74 07		 je	 SHORT $LN1@OnNamedTit@5

; 551  : 		pManner->ApplyTitle();

  0015f	8b ce		 mov	 ecx, esi
  00161	e8 00 00 00 00	 call	 ?ApplyTitle@MannerValuationExtensionWnd@@QAEXXZ ; MannerValuationExtensionWnd::ApplyTitle
$LN1@OnNamedTit@5:

; 552  : 
; 553  : }

  00166	83 4d fc ff	 or	 DWORD PTR __$EHRec$[ebp+8], -1
  0016a	8d 4d cc	 lea	 ecx, DWORD PTR _szOwner$[ebp]
  0016d	ff 15 00 00 00
	00		 call	 DWORD PTR __imp_??1ioHashString@@QAE@XZ
$LN8@OnNamedTit@5:
  00173	e8 00 00 00 00	 call	 __EH_epilog3
  00178	c2 08 00	 ret	 8
_TEXT	ENDS
;	COMDAT text$x
text$x	SEGMENT
__unwindfunclet$?OnNamedTitleLevelUpSuccess@ioNamedTitleInfoManager@@IAEXAAVSP2Packet@@PAVioPlayStage@@@Z$0:
  00000	8d 4d cc	 lea	 ecx, DWORD PTR _szOwner$[ebp]
  00003	ff 25 00 00 00
	00		 jmp	 DWORD PTR __imp_??1ioHashString@@QAE@XZ
__ehhandler$?OnNamedTitleLevelUpSuccess@ioNamedTitleInfoManager@@IAEXAAVSP2Packet@@PAVioPlayStage@@@Z:
  00009	8b 54 24 08	 mov	 edx, DWORD PTR [esp+8]
  0000d	8d 42 0c	 lea	 eax, DWORD PTR [edx+12]
  00010	8b 4a c8	 mov	 ecx, DWORD PTR [edx-56]
  00013	33 c8		 xor	 ecx, eax
  00015	e8 00 00 00 00	 call	 @__security_check_cookie@4
  0001a	b8 00 00 00 00	 mov	 eax, OFFSET __ehfuncinfo$?OnNamedTitleLevelUpSuccess@ioNamedTitleInfoManager@@IAEXAAVSP2Packet@@PAVioPlayStage@@@Z
  0001f	e9 00 00 00 00	 jmp	 ___CxxFrameHandler3
text$x	ENDS
?OnNamedTitleLevelUpSuccess@ioNamedTitleInfoManager@@IAEXAAVSP2Packet@@PAVioPlayStage@@@Z ENDP ; ioNamedTitleInfoManager::OnNamedTitleLevelUpSuccess
PUBLIC	?OnNamedTitlePremiumSuccess@ioNamedTitleInfoManager@@IAEXAAVSP2Packet@@PAVioPlayStage@@@Z ; ioNamedTitleInfoManager::OnNamedTitlePremiumSuccess
EXTRN	?ApplyPremiumChangeNamedTitle@ioMyInfo@@QAEXK@Z:PROC ; ioMyInfo::ApplyPremiumChangeNamedTitle
;	COMDAT xdata$x
; File d:\lost saga for developer\youtube\tutorial\source\src\lsclient\iomyinfo.h
xdata$x	SEGMENT
__unwindtable$?OnNamedTitlePremiumSuccess@ioNamedTitleInfoManager@@IAEXAAVSP2Packet@@PAVioPlayStage@@@Z DD 0ffffffffH
	DD	FLAT:__unwindfunclet$?OnNamedTitlePremiumSuccess@ioNamedTitleInfoManager@@IAEXAAVSP2Packet@@PAVioPlayStage@@@Z$0
__ehfuncinfo$?OnNamedTitlePremiumSuccess@ioNamedTitleInfoManager@@IAEXAAVSP2Packet@@PAVioPlayStage@@@Z DD 019930522H
	DD	01H
	DD	FLAT:__unwindtable$?OnNamedTitlePremiumSuccess@ioNamedTitleInfoManager@@IAEXAAVSP2Packet@@PAVioPlayStage@@@Z
	DD	2 DUP(00H)
	DD	2 DUP(00H)
	DD	00H
	DD	01H
; Function compile flags: /Ogsp
; File d:\lost saga for developer\youtube\tutorial\source\src\lsclient\ionamedtitleinfomanager.cpp
xdata$x	ENDS
;	COMDAT ?OnNamedTitlePremiumSuccess@ioNamedTitleInfoManager@@IAEXAAVSP2Packet@@PAVioPlayStage@@@Z
_TEXT	SEGMENT
_szOwner$ = -52						; size = 16
_nValue$ = -36						; size = 8
_nLevel$ = -28						; size = 4
_byPremium$ = -24					; size = 1
_dwCode$ = -20						; size = 4
_byStatus$ = -14					; size = 1
_byEquip$ = -13						; size = 1
__$EHRec$ = -12						; size = 12
_rkPacket$ = 8						; size = 4
_pPlayStage$ = 12					; size = 4
?OnNamedTitlePremiumSuccess@ioNamedTitleInfoManager@@IAEXAAVSP2Packet@@PAVioPlayStage@@@Z PROC ; ioNamedTitleInfoManager::OnNamedTitlePremiumSuccess, COMDAT
; _this$ = ecx

; 557  : {

  00000	6a 28		 push	 40			; 00000028H
  00002	b8 00 00 00 00	 mov	 eax, __ehhandler$?OnNamedTitlePremiumSuccess@ioNamedTitleInfoManager@@IAEXAAVSP2Packet@@PAVioPlayStage@@@Z
  00007	e8 00 00 00 00	 call	 __EH_prolog3

; 558  : 	if ( !pPlayStage )

  0000c	33 db		 xor	 ebx, ebx
  0000e	39 5d 0c	 cmp	 DWORD PTR _pPlayStage$[ebp], ebx
  00011	0f 84 1c 01 00
	00		 je	 $LN7@OnNamedTit@6

; 559  : 		return;
; 560  : 
; 561  : 	ioHashString szOwner;

  00017	8d 4d cc	 lea	 ecx, DWORD PTR _szOwner$[ebp]
  0001a	ff 15 00 00 00
	00		 call	 DWORD PTR __imp_??0ioHashString@@QAE@XZ

; 562  : 	rkPacket >> szOwner;

  00020	8b 4d 08	 mov	 ecx, DWORD PTR _rkPacket$[ebp]
  00023	8d 45 cc	 lea	 eax, DWORD PTR _szOwner$[ebp]
  00026	50		 push	 eax
  00027	89 5d fc	 mov	 DWORD PTR __$EHRec$[ebp+8], ebx
  0002a	e8 00 00 00 00	 call	 ??5SP2Packet@@QAEAAV0@AAVioHashString@@@Z ; SP2Packet::operator>>

; 563  : 
; 564  : 	DWORD dwCode;
; 565  : 	__int64 nValue;
; 566  : 	int nLevel;
; 567  : 	BYTE byPremium, byEquip, byStatus;
; 568  : 
; 569  : 	rkPacket >> dwCode >> nValue >> nLevel;

  0002f	8b 4d 08	 mov	 ecx, DWORD PTR _rkPacket$[ebp]
  00032	8d 45 e4	 lea	 eax, DWORD PTR _nLevel$[ebp]
  00035	50		 push	 eax
  00036	8d 45 dc	 lea	 eax, DWORD PTR _nValue$[ebp]
  00039	50		 push	 eax
  0003a	8d 45 ec	 lea	 eax, DWORD PTR _dwCode$[ebp]
  0003d	50		 push	 eax
  0003e	e8 00 00 00 00	 call	 ??5SP2Packet@@QAEAAV0@AAK@Z ; SP2Packet::operator>>
  00043	8b c8		 mov	 ecx, eax
  00045	e8 00 00 00 00	 call	 ??5SP2Packet@@QAEAAV0@AA_J@Z ; SP2Packet::operator>>
  0004a	8b c8		 mov	 ecx, eax
  0004c	e8 00 00 00 00	 call	 ??5SP2Packet@@QAEAAV0@AAH@Z ; SP2Packet::operator>>

; 570  : 	rkPacket >> byPremium >> byEquip >> byStatus;

  00051	8b 4d 08	 mov	 ecx, DWORD PTR _rkPacket$[ebp]
  00054	8d 45 f2	 lea	 eax, DWORD PTR _byStatus$[ebp]
  00057	50		 push	 eax
  00058	8d 45 f3	 lea	 eax, DWORD PTR _byEquip$[ebp]
  0005b	50		 push	 eax
  0005c	8d 45 e8	 lea	 eax, DWORD PTR _byPremium$[ebp]
  0005f	50		 push	 eax
  00060	e8 00 00 00 00	 call	 ??5SP2Packet@@QAEAAV0@AAE@Z ; SP2Packet::operator>>
  00065	8b c8		 mov	 ecx, eax
  00067	e8 00 00 00 00	 call	 ??5SP2Packet@@QAEAAV0@AAE@Z ; SP2Packet::operator>>
  0006c	8b c8		 mov	 ecx, eax
  0006e	e8 00 00 00 00	 call	 ??5SP2Packet@@QAEAAV0@AAE@Z ; SP2Packet::operator>>

; 571  : 	
; 572  : 	// 교체 대상이 자신일때
; 573  : 	if( szOwner == g_MyInfo.GetPublicID() )

  00073	e8 00 00 00 00	 call	 ?GetSingleton@ioMyInfo@@SAAAV1@XZ ; ioMyInfo::GetSingleton
  00078	83 c0 1c	 add	 eax, 28			; 0000001cH
  0007b	50		 push	 eax
  0007c	8d 4d cc	 lea	 ecx, DWORD PTR _szOwner$[ebp]
  0007f	ff 15 00 00 00
	00		 call	 DWORD PTR __imp_??8ioHashString@@QBE_NABV0@@Z
  00085	84 c0		 test	 al, al
  00087	74 0f		 je	 SHORT $LN5@OnNamedTit@6

; 574  : 		g_MyInfo.ApplyPremiumChangeNamedTitle( dwCode );

  00089	ff 75 ec	 push	 DWORD PTR _dwCode$[ebp]
  0008c	e8 00 00 00 00	 call	 ?GetSingleton@ioMyInfo@@SAAAV1@XZ ; ioMyInfo::GetSingleton
  00091	8b c8		 mov	 ecx, eax
  00093	e8 00 00 00 00	 call	 ?ApplyPremiumChangeNamedTitle@ioMyInfo@@QAEXK@Z ; ioMyInfo::ApplyPremiumChangeNamedTitle
$LN5@OnNamedTit@6:

; 575  : 
; 576  : 	if ( byEquip )

  00098	38 5d f3	 cmp	 BYTE PTR _byEquip$[ebp], bl
  0009b	74 49		 je	 SHORT $LN2@OnNamedTit@6

; 577  : 	{
; 578  : 		// 유저 노드 적용
; 579  : 		UserInfoNode *pInfo = g_UserInfoMgr.GetUserInfoNode( szOwner, false );

  0009d	8d 45 cc	 lea	 eax, DWORD PTR _szOwner$[ebp]
  000a0	53		 push	 ebx
  000a1	50		 push	 eax
  000a2	e8 00 00 00 00	 call	 ?GetSingleton@ioUserInfoMgr@@SAAAV1@XZ ; ioUserInfoMgr::GetSingleton
  000a7	8b c8		 mov	 ecx, eax
  000a9	e8 00 00 00 00	 call	 ?GetUserInfoNode@ioUserInfoMgr@@QAEPAVUserInfoNode@@ABVioHashString@@_N@Z ; ioUserInfoMgr::GetUserInfoNode

; 580  : 		if ( pInfo )

  000ae	3b c3		 cmp	 eax, ebx
  000b0	74 10		 je	 SHORT $LN3@OnNamedTit@6

; 581  : 			pInfo->SetNamedTitle( dwCode, nLevel, byPremium );

  000b2	ff 75 e8	 push	 DWORD PTR _byPremium$[ebp]
  000b5	8b c8		 mov	 ecx, eax
  000b7	ff 75 e4	 push	 DWORD PTR _nLevel$[ebp]
  000ba	ff 75 ec	 push	 DWORD PTR _dwCode$[ebp]
  000bd	e8 00 00 00 00	 call	 ?SetNamedTitle@UserInfoNode@@QAEXKHE@Z ; UserInfoNode::SetNamedTitle
$LN3@OnNamedTit@6:

; 582  : 
; 583  : 		// 캐릭터 적용
; 584  : 		ioBaseChar *pOwner = pPlayStage->GetBaseChar( szOwner );

  000c2	8b 4d 0c	 mov	 ecx, DWORD PTR _pPlayStage$[ebp]
  000c5	8d 45 cc	 lea	 eax, DWORD PTR _szOwner$[ebp]
  000c8	50		 push	 eax
  000c9	e8 00 00 00 00	 call	 ?GetBaseChar@ioPlayStage@@QAEPAVioBaseChar@@ABVioHashString@@@Z ; ioPlayStage::GetBaseChar

; 585  : 		if ( pOwner )

  000ce	3b c3		 cmp	 eax, ebx
  000d0	74 14		 je	 SHORT $LN2@OnNamedTit@6

; 586  : 			pOwner->SetNamedTitle( dwCode, nLevel, byPremium );

  000d2	ff 75 e8	 push	 DWORD PTR _byPremium$[ebp]
  000d5	8d 88 cc 01 00
	00		 lea	 ecx, DWORD PTR [eax+460]
  000db	ff 75 e4	 push	 DWORD PTR _nLevel$[ebp]
  000de	ff 75 ec	 push	 DWORD PTR _dwCode$[ebp]
  000e1	e8 00 00 00 00	 call	 ?SetNamedTitle@ioBaseGUISupport@@QAEXKHE@Z ; ioBaseGUISupport::SetNamedTitle
$LN2@OnNamedTit@6:

; 587  : 	}
; 588  : 
; 589  : 	MannerValuationExtensionWnd *pManner = dynamic_cast<MannerValuationExtensionWnd *>( g_GUIMgr.FindWnd( MANNER_VALUATION_WND ) );

  000e6	53		 push	 ebx
  000e7	68 00 00 00 00	 push	 OFFSET ??_R0?AVMannerValuationExtensionWnd@@@8
  000ec	68 00 00 00 00	 push	 OFFSET ??_R0?AVioWnd@@@8
  000f1	53		 push	 ebx
  000f2	68 8e 17 00 00	 push	 6030			; 0000178eH
  000f7	e8 00 00 00 00	 call	 ?GetSingleton@ioSP2GUIManager@@SAAAV1@XZ ; ioSP2GUIManager::GetSingleton
  000fc	8b c8		 mov	 ecx, eax
  000fe	ff 15 00 00 00
	00		 call	 DWORD PTR __imp_?FindWnd@ioGUIManager@@QAEPAVioWnd@@K@Z
  00104	50		 push	 eax
  00105	e8 00 00 00 00	 call	 ___RTDynamicCast
  0010a	8b f0		 mov	 esi, eax
  0010c	83 c4 14	 add	 esp, 20			; 00000014H

; 590  : 	if( pManner && pManner->IsShow() )

  0010f	3b f3		 cmp	 esi, ebx
  00111	74 13		 je	 SHORT $LN1@OnNamedTit@6
  00113	8b ce		 mov	 ecx, esi
  00115	ff 15 00 00 00
	00		 call	 DWORD PTR __imp_?IsShow@ioWnd@@QBE_NXZ
  0011b	84 c0		 test	 al, al
  0011d	74 07		 je	 SHORT $LN1@OnNamedTit@6

; 591  : 		pManner->ApplyTitle();

  0011f	8b ce		 mov	 ecx, esi
  00121	e8 00 00 00 00	 call	 ?ApplyTitle@MannerValuationExtensionWnd@@QAEXXZ ; MannerValuationExtensionWnd::ApplyTitle
$LN1@OnNamedTit@6:

; 592  : }

  00126	83 4d fc ff	 or	 DWORD PTR __$EHRec$[ebp+8], -1
  0012a	8d 4d cc	 lea	 ecx, DWORD PTR _szOwner$[ebp]
  0012d	ff 15 00 00 00
	00		 call	 DWORD PTR __imp_??1ioHashString@@QAE@XZ
$LN7@OnNamedTit@6:
  00133	e8 00 00 00 00	 call	 __EH_epilog3
  00138	c2 08 00	 ret	 8
_TEXT	ENDS
;	COMDAT text$x
text$x	SEGMENT
__unwindfunclet$?OnNamedTitlePremiumSuccess@ioNamedTitleInfoManager@@IAEXAAVSP2Packet@@PAVioPlayStage@@@Z$0:
  00000	8d 4d cc	 lea	 ecx, DWORD PTR _szOwner$[ebp]
  00003	ff 25 00 00 00
	00		 jmp	 DWORD PTR __imp_??1ioHashString@@QAE@XZ
__ehhandler$?OnNamedTitlePremiumSuccess@ioNamedTitleInfoManager@@IAEXAAVSP2Packet@@PAVioPlayStage@@@Z:
  00009	8b 54 24 08	 mov	 edx, DWORD PTR [esp+8]
  0000d	8d 42 0c	 lea	 eax, DWORD PTR [edx+12]
  00010	8b 4a c8	 mov	 ecx, DWORD PTR [edx-56]
  00013	33 c8		 xor	 ecx, eax
  00015	e8 00 00 00 00	 call	 @__security_check_cookie@4
  0001a	b8 00 00 00 00	 mov	 eax, OFFSET __ehfuncinfo$?OnNamedTitlePremiumSuccess@ioNamedTitleInfoManager@@IAEXAAVSP2Packet@@PAVioPlayStage@@@Z
  0001f	e9 00 00 00 00	 jmp	 ___CxxFrameHandler3
text$x	ENDS
?OnNamedTitlePremiumSuccess@ioNamedTitleInfoManager@@IAEXAAVSP2Packet@@PAVioPlayStage@@@Z ENDP ; ioNamedTitleInfoManager::OnNamedTitlePremiumSuccess
PUBLIC	?empty@?$_Tree@V?$_Tmap_traits@KUtagNamedTitleInfo@@U?$less@K@std@@V?$allocator@U?$pair@$$CBKUtagNamedTitleInfo@@@std@@@3@$0A@@std@@@std@@QBE_NXZ ; std::_Tree<std::_Tmap_traits<unsigned long,tagNamedTitleInfo,std::less<unsigned long>,std::allocator<std::pair<unsigned long const ,tagNamedTitleInfo> >,0> >::empty
; Function compile flags: /Ogsp
; File c:\program files (x86)\microsoft visual studio 10.0\vc\include\xtree
;	COMDAT ?empty@?$_Tree@V?$_Tmap_traits@KUtagNamedTitleInfo@@U?$less@K@std@@V?$allocator@U?$pair@$$CBKUtagNamedTitleInfo@@@std@@@3@$0A@@std@@@std@@QBE_NXZ
_TEXT	SEGMENT
?empty@?$_Tree@V?$_Tmap_traits@KUtagNamedTitleInfo@@U?$less@K@std@@V?$allocator@U?$pair@$$CBKUtagNamedTitleInfo@@@std@@@3@$0A@@std@@@std@@QBE_NXZ PROC ; std::_Tree<std::_Tmap_traits<unsigned long,tagNamedTitleInfo,std::less<unsigned long>,std::allocator<std::pair<unsigned long const ,tagNamedTitleInfo> >,0> >::empty, COMDAT
; _this$ = ecx

; 879  : 		return (size() == 0);

  00000	33 c0		 xor	 eax, eax
  00002	39 41 08	 cmp	 DWORD PTR [ecx+8], eax
  00005	0f 94 c0	 sete	 al

; 880  : 		}

  00008	c3		 ret	 0
?empty@?$_Tree@V?$_Tmap_traits@KUtagNamedTitleInfo@@U?$less@K@std@@V?$allocator@U?$pair@$$CBKUtagNamedTitleInfo@@@std@@@3@$0A@@std@@@std@@QBE_NXZ ENDP ; std::_Tree<std::_Tmap_traits<unsigned long,tagNamedTitleInfo,std::less<unsigned long>,std::allocator<std::pair<unsigned long const ,tagNamedTitleInfo> >,0> >::empty
_TEXT	ENDS
PUBLIC	??9?$_Tree_const_iterator@V?$_Tree_val@V?$_Tmap_traits@KUtagNamedTitleInfo@@U?$less@K@std@@V?$allocator@U?$pair@$$CBKUtagNamedTitleInfo@@@std@@@3@$0A@@std@@@std@@@std@@QBE_NABV01@@Z ; std::_Tree_const_iterator<std::_Tree_val<std::_Tmap_traits<unsigned long,tagNamedTitleInfo,std::less<unsigned long>,std::allocator<std::pair<unsigned long const ,tagNamedTitleInfo> >,0> > >::operator!=
; Function compile flags: /Ogsp
;	COMDAT ??9?$_Tree_const_iterator@V?$_Tree_val@V?$_Tmap_traits@KUtagNamedTitleInfo@@U?$less@K@std@@V?$allocator@U?$pair@$$CBKUtagNamedTitleInfo@@@std@@@3@$0A@@std@@@std@@@std@@QBE_NABV01@@Z
_TEXT	SEGMENT
__Right$ = 8						; size = 4
??9?$_Tree_const_iterator@V?$_Tree_val@V?$_Tmap_traits@KUtagNamedTitleInfo@@U?$less@K@std@@V?$allocator@U?$pair@$$CBKUtagNamedTitleInfo@@@std@@@3@$0A@@std@@@std@@@std@@QBE_NABV01@@Z PROC ; std::_Tree_const_iterator<std::_Tree_val<std::_Tmap_traits<unsigned long,tagNamedTitleInfo,std::less<unsigned long>,std::allocator<std::pair<unsigned long const ,tagNamedTitleInfo> >,0> > >::operator!=, COMDAT
; _this$ = ecx

; 334  : 		{	// test for iterator inequality

  00000	55		 push	 ebp
  00001	8b ec		 mov	 ebp, esp

; 335  : 		return (!(*this == _Right));

  00003	8b 01		 mov	 eax, DWORD PTR [ecx]
  00005	8b 55 08	 mov	 edx, DWORD PTR __Right$[ebp]
  00008	33 c9		 xor	 ecx, ecx
  0000a	3b 02		 cmp	 eax, DWORD PTR [edx]
  0000c	0f 95 c0	 setne	 al

; 336  : 		}

  0000f	5d		 pop	 ebp
  00010	c2 04 00	 ret	 4
??9?$_Tree_const_iterator@V?$_Tree_val@V?$_Tmap_traits@KUtagNamedTitleInfo@@U?$less@K@std@@V?$allocator@U?$pair@$$CBKUtagNamedTitleInfo@@@std@@@3@$0A@@std@@@std@@@std@@QBE_NABV01@@Z ENDP ; std::_Tree_const_iterator<std::_Tree_val<std::_Tmap_traits<unsigned long,tagNamedTitleInfo,std::less<unsigned long>,std::allocator<std::pair<unsigned long const ,tagNamedTitleInfo> >,0> > >::operator!=
_TEXT	ENDS
PUBLIC	?_Lmost@?$_Tree@V?$_Tmap_traits@KUtagNamedTitleInfo@@U?$less@K@std@@V?$allocator@U?$pair@$$CBKUtagNamedTitleInfo@@@std@@@3@$0A@@std@@@std@@IBEAAPAU_Node@?$_Tree_nod@V?$_Tmap_traits@KUtagNamedTitleInfo@@U?$less@K@std@@V?$allocator@U?$pair@$$CBKUtagNamedTitleInfo@@@std@@@3@$0A@@std@@@2@XZ ; std::_Tree<std::_Tmap_traits<unsigned long,tagNamedTitleInfo,std::less<unsigned long>,std::allocator<std::pair<unsigned long const ,tagNamedTitleInfo> >,0> >::_Lmost
; Function compile flags: /Ogsp
;	COMDAT ?_Lmost@?$_Tree@V?$_Tmap_traits@KUtagNamedTitleInfo@@U?$less@K@std@@V?$allocator@U?$pair@$$CBKUtagNamedTitleInfo@@@std@@@3@$0A@@std@@@std@@IBEAAPAU_Node@?$_Tree_nod@V?$_Tmap_traits@KUtagNamedTitleInfo@@U?$less@K@std@@V?$allocator@U?$pair@$$CBKUtagNamedTitleInfo@@@std@@@3@$0A@@std@@@2@XZ
_TEXT	SEGMENT
?_Lmost@?$_Tree@V?$_Tmap_traits@KUtagNamedTitleInfo@@U?$less@K@std@@V?$allocator@U?$pair@$$CBKUtagNamedTitleInfo@@@std@@@3@$0A@@std@@@std@@IBEAAPAU_Node@?$_Tree_nod@V?$_Tmap_traits@KUtagNamedTitleInfo@@U?$less@K@std@@V?$allocator@U?$pair@$$CBKUtagNamedTitleInfo@@@std@@@3@$0A@@std@@@2@XZ PROC ; std::_Tree<std::_Tmap_traits<unsigned long,tagNamedTitleInfo,std::less<unsigned long>,std::allocator<std::pair<unsigned long const ,tagNamedTitleInfo> >,0> >::_Lmost, COMDAT
; _this$ = ecx

; 1759 : 		return (this->_Left(this->_Myhead));

  00000	8b 41 04	 mov	 eax, DWORD PTR [ecx+4]

; 1760 : 		}

  00003	c3		 ret	 0
?_Lmost@?$_Tree@V?$_Tmap_traits@KUtagNamedTitleInfo@@U?$less@K@std@@V?$allocator@U?$pair@$$CBKUtagNamedTitleInfo@@@std@@@3@$0A@@std@@@std@@IBEAAPAU_Node@?$_Tree_nod@V?$_Tmap_traits@KUtagNamedTitleInfo@@U?$less@K@std@@V?$allocator@U?$pair@$$CBKUtagNamedTitleInfo@@@std@@@3@$0A@@std@@@2@XZ ENDP ; std::_Tree<std::_Tmap_traits<unsigned long,tagNamedTitleInfo,std::less<unsigned long>,std::allocator<std::pair<unsigned long const ,tagNamedTitleInfo> >,0> >::_Lmost
_TEXT	ENDS
PUBLIC	?_Rmost@?$_Tree@V?$_Tmap_traits@KUtagNamedTitleInfo@@U?$less@K@std@@V?$allocator@U?$pair@$$CBKUtagNamedTitleInfo@@@std@@@3@$0A@@std@@@std@@IBEAAPAU_Node@?$_Tree_nod@V?$_Tmap_traits@KUtagNamedTitleInfo@@U?$less@K@std@@V?$allocator@U?$pair@$$CBKUtagNamedTitleInfo@@@std@@@3@$0A@@std@@@2@XZ ; std::_Tree<std::_Tmap_traits<unsigned long,tagNamedTitleInfo,std::less<unsigned long>,std::allocator<std::pair<unsigned long const ,tagNamedTitleInfo> >,0> >::_Rmost
; Function compile flags: /Ogsp
;	COMDAT ?_Rmost@?$_Tree@V?$_Tmap_traits@KUtagNamedTitleInfo@@U?$less@K@std@@V?$allocator@U?$pair@$$CBKUtagNamedTitleInfo@@@std@@@3@$0A@@std@@@std@@IBEAAPAU_Node@?$_Tree_nod@V?$_Tmap_traits@KUtagNamedTitleInfo@@U?$less@K@std@@V?$allocator@U?$pair@$$CBKUtagNamedTitleInfo@@@std@@@3@$0A@@std@@@2@XZ
_TEXT	SEGMENT
?_Rmost@?$_Tree@V?$_Tmap_traits@KUtagNamedTitleInfo@@U?$less@K@std@@V?$allocator@U?$pair@$$CBKUtagNamedTitleInfo@@@std@@@3@$0A@@std@@@std@@IBEAAPAU_Node@?$_Tree_nod@V?$_Tmap_traits@KUtagNamedTitleInfo@@U?$less@K@std@@V?$allocator@U?$pair@$$CBKUtagNamedTitleInfo@@@std@@@3@$0A@@std@@@2@XZ PROC ; std::_Tree<std::_Tmap_traits<unsigned long,tagNamedTitleInfo,std::less<unsigned long>,std::allocator<std::pair<unsigned long const ,tagNamedTitleInfo> >,0> >::_Rmost, COMDAT
; _this$ = ecx

; 1784 : 		return (this->_Right(this->_Myhead));

  00000	8b 41 04	 mov	 eax, DWORD PTR [ecx+4]
  00003	83 c0 08	 add	 eax, 8

; 1785 : 		}

  00006	c3		 ret	 0
?_Rmost@?$_Tree@V?$_Tmap_traits@KUtagNamedTitleInfo@@U?$less@K@std@@V?$allocator@U?$pair@$$CBKUtagNamedTitleInfo@@@std@@@3@$0A@@std@@@std@@IBEAAPAU_Node@?$_Tree_nod@V?$_Tmap_traits@KUtagNamedTitleInfo@@U?$less@K@std@@V?$allocator@U?$pair@$$CBKUtagNamedTitleInfo@@@std@@@3@$0A@@std@@@2@XZ ENDP ; std::_Tree<std::_Tmap_traits<unsigned long,tagNamedTitleInfo,std::less<unsigned long>,std::allocator<std::pair<unsigned long const ,tagNamedTitleInfo> >,0> >::_Rmost
_TEXT	ENDS
PUBLIC	?_Root@?$_Tree@V?$_Tmap_traits@KUtagNamedTitleInfo@@U?$less@K@std@@V?$allocator@U?$pair@$$CBKUtagNamedTitleInfo@@@std@@@3@$0A@@std@@@std@@IBEAAPAU_Node@?$_Tree_nod@V?$_Tmap_traits@KUtagNamedTitleInfo@@U?$less@K@std@@V?$allocator@U?$pair@$$CBKUtagNamedTitleInfo@@@std@@@3@$0A@@std@@@2@XZ ; std::_Tree<std::_Tmap_traits<unsigned long,tagNamedTitleInfo,std::less<unsigned long>,std::allocator<std::pair<unsigned long const ,tagNamedTitleInfo> >,0> >::_Root
; Function compile flags: /Ogsp
;	COMDAT ?_Root@?$_Tree@V?$_Tmap_traits@KUtagNamedTitleInfo@@U?$less@K@std@@V?$allocator@U?$pair@$$CBKUtagNamedTitleInfo@@@std@@@3@$0A@@std@@@std@@IBEAAPAU_Node@?$_Tree_nod@V?$_Tmap_traits@KUtagNamedTitleInfo@@U?$less@K@std@@V?$allocator@U?$pair@$$CBKUtagNamedTitleInfo@@@std@@@3@$0A@@std@@@2@XZ
_TEXT	SEGMENT
?_Root@?$_Tree@V?$_Tmap_traits@KUtagNamedTitleInfo@@U?$less@K@std@@V?$allocator@U?$pair@$$CBKUtagNamedTitleInfo@@@std@@@3@$0A@@std@@@std@@IBEAAPAU_Node@?$_Tree_nod@V?$_Tmap_traits@KUtagNamedTitleInfo@@U?$less@K@std@@V?$allocator@U?$pair@$$CBKUtagNamedTitleInfo@@@std@@@3@$0A@@std@@@2@XZ PROC ; std::_Tree<std::_Tmap_traits<unsigned long,tagNamedTitleInfo,std::less<unsigned long>,std::allocator<std::pair<unsigned long const ,tagNamedTitleInfo> >,0> >::_Root, COMDAT
; _this$ = ecx

; 1789 : 		return (this->_Parent(this->_Myhead));

  00000	8b 41 04	 mov	 eax, DWORD PTR [ecx+4]
  00003	83 c0 04	 add	 eax, 4

; 1790 : 		}

  00006	c3		 ret	 0
?_Root@?$_Tree@V?$_Tmap_traits@KUtagNamedTitleInfo@@U?$less@K@std@@V?$allocator@U?$pair@$$CBKUtagNamedTitleInfo@@@std@@@3@$0A@@std@@@std@@IBEAAPAU_Node@?$_Tree_nod@V?$_Tmap_traits@KUtagNamedTitleInfo@@U?$less@K@std@@V?$allocator@U?$pair@$$CBKUtagNamedTitleInfo@@@std@@@3@$0A@@std@@@2@XZ ENDP ; std::_Tree<std::_Tmap_traits<unsigned long,tagNamedTitleInfo,std::less<unsigned long>,std::allocator<std::pair<unsigned long const ,tagNamedTitleInfo> >,0> >::_Root
_TEXT	ENDS
PUBLIC	??1?$_Tree_val@V?$_Tmap_traits@KUtagNamedTitleInfo@@U?$less@K@std@@V?$allocator@U?$pair@$$CBKUtagNamedTitleInfo@@@std@@@3@$0A@@std@@@std@@QAE@XZ ; std::_Tree_val<std::_Tmap_traits<unsigned long,tagNamedTitleInfo,std::less<unsigned long>,std::allocator<std::pair<unsigned long const ,tagNamedTitleInfo> >,0> >::~_Tree_val<std::_Tmap_traits<unsigned long,tagNamedTitleInfo,std::less<unsigned long>,std::allocator<std::pair<unsigned long const ,tagNamedTitleInfo> >,0> >
; Function compile flags: /Ogsp
;	COMDAT ??1?$_Tree_val@V?$_Tmap_traits@KUtagNamedTitleInfo@@U?$less@K@std@@V?$allocator@U?$pair@$$CBKUtagNamedTitleInfo@@@std@@@3@$0A@@std@@@std@@QAE@XZ
_TEXT	SEGMENT
??1?$_Tree_val@V?$_Tmap_traits@KUtagNamedTitleInfo@@U?$less@K@std@@V?$allocator@U?$pair@$$CBKUtagNamedTitleInfo@@@std@@@3@$0A@@std@@@std@@QAE@XZ PROC ; std::_Tree_val<std::_Tmap_traits<unsigned long,tagNamedTitleInfo,std::less<unsigned long>,std::allocator<std::pair<unsigned long const ,tagNamedTitleInfo> >,0> >::~_Tree_val<std::_Tmap_traits<unsigned long,tagNamedTitleInfo,std::less<unsigned long>,std::allocator<std::pair<unsigned long const ,tagNamedTitleInfo> >,0> >, COMDAT
; _this$ = ecx

; 555  : 		this->_Alnod.deallocate(this->_Myhead, 1);

  00000	ff 71 04	 push	 DWORD PTR [ecx+4]
  00003	e8 00 00 00 00	 call	 ??3@YAXPAX@Z		; operator delete
  00008	59		 pop	 ecx

; 556  : 		}

  00009	c3		 ret	 0
??1?$_Tree_val@V?$_Tmap_traits@KUtagNamedTitleInfo@@U?$less@K@std@@V?$allocator@U?$pair@$$CBKUtagNamedTitleInfo@@@std@@@3@$0A@@std@@@std@@QAE@XZ ENDP ; std::_Tree_val<std::_Tmap_traits<unsigned long,tagNamedTitleInfo,std::less<unsigned long>,std::allocator<std::pair<unsigned long const ,tagNamedTitleInfo> >,0> >::~_Tree_val<std::_Tmap_traits<unsigned long,tagNamedTitleInfo,std::less<unsigned long>,std::allocator<std::pair<unsigned long const ,tagNamedTitleInfo> >,0> >
_TEXT	ENDS
PUBLIC	?_Key@?$_Tree_val@V?$_Tmap_traits@KUtagNamedTitleInfo@@U?$less@K@std@@V?$allocator@U?$pair@$$CBKUtagNamedTitleInfo@@@std@@@3@$0A@@std@@@std@@SAAAKPAU_Node@?$_Tree_nod@V?$_Tmap_traits@KUtagNamedTitleInfo@@U?$less@K@std@@V?$allocator@U?$pair@$$CBKUtagNamedTitleInfo@@@std@@@3@$0A@@std@@@2@@Z ; std::_Tree_val<std::_Tmap_traits<unsigned long,tagNamedTitleInfo,std::less<unsigned long>,std::allocator<std::pair<unsigned long const ,tagNamedTitleInfo> >,0> >::_Key
; Function compile flags: /Ogsp
;	COMDAT ?_Key@?$_Tree_val@V?$_Tmap_traits@KUtagNamedTitleInfo@@U?$less@K@std@@V?$allocator@U?$pair@$$CBKUtagNamedTitleInfo@@@std@@@3@$0A@@std@@@std@@SAAAKPAU_Node@?$_Tree_nod@V?$_Tmap_traits@KUtagNamedTitleInfo@@U?$less@K@std@@V?$allocator@U?$pair@$$CBKUtagNamedTitleInfo@@@std@@@3@$0A@@std@@@2@@Z
_TEXT	SEGMENT
__Pnode$ = 8						; size = 4
?_Key@?$_Tree_val@V?$_Tmap_traits@KUtagNamedTitleInfo@@U?$less@K@std@@V?$allocator@U?$pair@$$CBKUtagNamedTitleInfo@@@std@@@3@$0A@@std@@@std@@SAAAKPAU_Node@?$_Tree_nod@V?$_Tmap_traits@KUtagNamedTitleInfo@@U?$less@K@std@@V?$allocator@U?$pair@$$CBKUtagNamedTitleInfo@@@std@@@3@$0A@@std@@@2@@Z PROC ; std::_Tree_val<std::_Tmap_traits<unsigned long,tagNamedTitleInfo,std::less<unsigned long>,std::allocator<std::pair<unsigned long const ,tagNamedTitleInfo> >,0> >::_Key, COMDAT

; 616  : 		{	// return reference to key in node

  00000	55		 push	 ebp
  00001	8b ec		 mov	 ebp, esp

; 617  : 		return ((key_type&)_Traits::_Kfn(_Myval(_Pnode)));

  00003	8b 45 08	 mov	 eax, DWORD PTR __Pnode$[ebp]
  00006	83 c0 0c	 add	 eax, 12			; 0000000cH

; 618  : 		}

  00009	5d		 pop	 ebp
  0000a	c3		 ret	 0
?_Key@?$_Tree_val@V?$_Tmap_traits@KUtagNamedTitleInfo@@U?$less@K@std@@V?$allocator@U?$pair@$$CBKUtagNamedTitleInfo@@@std@@@3@$0A@@std@@@std@@SAAAKPAU_Node@?$_Tree_nod@V?$_Tmap_traits@KUtagNamedTitleInfo@@U?$less@K@std@@V?$allocator@U?$pair@$$CBKUtagNamedTitleInfo@@@std@@@3@$0A@@std@@@2@@Z ENDP ; std::_Tree_val<std::_Tmap_traits<unsigned long,tagNamedTitleInfo,std::less<unsigned long>,std::allocator<std::pair<unsigned long const ,tagNamedTitleInfo> >,0> >::_Key
_TEXT	ENDS
PUBLIC	??D?$_Tree_iterator@V?$_Tree_val@V?$_Tmap_traits@KUtagNamedTitleInfo@@U?$less@K@std@@V?$allocator@U?$pair@$$CBKUtagNamedTitleInfo@@@std@@@3@$0A@@std@@@std@@@std@@QBEAAU?$pair@$$CBKUtagNamedTitleInfo@@@1@XZ ; std::_Tree_iterator<std::_Tree_val<std::_Tmap_traits<unsigned long,tagNamedTitleInfo,std::less<unsigned long>,std::allocator<std::pair<unsigned long const ,tagNamedTitleInfo> >,0> > >::operator*
; Function compile flags: /Ogsp
;	COMDAT ??D?$_Tree_iterator@V?$_Tree_val@V?$_Tmap_traits@KUtagNamedTitleInfo@@U?$less@K@std@@V?$allocator@U?$pair@$$CBKUtagNamedTitleInfo@@@std@@@3@$0A@@std@@@std@@@std@@QBEAAU?$pair@$$CBKUtagNamedTitleInfo@@@1@XZ
_TEXT	SEGMENT
??D?$_Tree_iterator@V?$_Tree_val@V?$_Tmap_traits@KUtagNamedTitleInfo@@U?$less@K@std@@V?$allocator@U?$pair@$$CBKUtagNamedTitleInfo@@@std@@@3@$0A@@std@@@std@@@std@@QBEAAU?$pair@$$CBKUtagNamedTitleInfo@@@1@XZ PROC ; std::_Tree_iterator<std::_Tree_val<std::_Tmap_traits<unsigned long,tagNamedTitleInfo,std::less<unsigned long>,std::allocator<std::pair<unsigned long const ,tagNamedTitleInfo> >,0> > >::operator*, COMDAT
; _this$ = ecx

; 396  : 		return ((reference)**(_Mybase *)this);

  00000	8b 01		 mov	 eax, DWORD PTR [ecx]
  00002	83 c0 0c	 add	 eax, 12			; 0000000cH

; 397  : 		}

  00005	c3		 ret	 0
??D?$_Tree_iterator@V?$_Tree_val@V?$_Tmap_traits@KUtagNamedTitleInfo@@U?$less@K@std@@V?$allocator@U?$pair@$$CBKUtagNamedTitleInfo@@@std@@@3@$0A@@std@@@std@@@std@@QBEAAU?$pair@$$CBKUtagNamedTitleInfo@@@1@XZ ENDP ; std::_Tree_iterator<std::_Tree_val<std::_Tmap_traits<unsigned long,tagNamedTitleInfo,std::less<unsigned long>,std::allocator<std::pair<unsigned long const ,tagNamedTitleInfo> >,0> > >::operator*
_TEXT	ENDS
PUBLIC	?max_size@?$vector@UtagNamedTitleGrade@@V?$allocator@UtagNamedTitleGrade@@@std@@@std@@QBEIXZ ; std::vector<tagNamedTitleGrade,std::allocator<tagNamedTitleGrade> >::max_size
; Function compile flags: /Ogsp
; File c:\program files (x86)\microsoft visual studio 10.0\vc\include\vector
;	COMDAT ?max_size@?$vector@UtagNamedTitleGrade@@V?$allocator@UtagNamedTitleGrade@@@std@@@std@@QBEIXZ
_TEXT	SEGMENT
?max_size@?$vector@UtagNamedTitleGrade@@V?$allocator@UtagNamedTitleGrade@@@std@@@std@@QBEIXZ PROC ; std::vector<tagNamedTitleGrade,std::allocator<tagNamedTitleGrade> >::max_size, COMDAT
; _this$ = ecx

; 884  : 		return (this->_Alval.max_size());

  00000	b8 cc cc cc 0c	 mov	 eax, 214748364		; 0cccccccH

; 885  : 		}

  00005	c3		 ret	 0
?max_size@?$vector@UtagNamedTitleGrade@@V?$allocator@UtagNamedTitleGrade@@@std@@@std@@QBEIXZ ENDP ; std::vector<tagNamedTitleGrade,std::allocator<tagNamedTitleGrade> >::max_size
_TEXT	ENDS
PUBLIC	?_Grow_to@?$vector@UtagNamedTitleGrade@@V?$allocator@UtagNamedTitleGrade@@@std@@@std@@IBEII@Z ; std::vector<tagNamedTitleGrade,std::allocator<tagNamedTitleGrade> >::_Grow_to
; Function compile flags: /Ogsp
;	COMDAT ?_Grow_to@?$vector@UtagNamedTitleGrade@@V?$allocator@UtagNamedTitleGrade@@@std@@@std@@IBEII@Z
_TEXT	SEGMENT
__Count$ = 8						; size = 4
?_Grow_to@?$vector@UtagNamedTitleGrade@@V?$allocator@UtagNamedTitleGrade@@@std@@@std@@IBEII@Z PROC ; std::vector<tagNamedTitleGrade,std::allocator<tagNamedTitleGrade> >::_Grow_to, COMDAT
; _this$ = ecx

; 1274 : 		{	// grow by 50% or at least to _Count

  00000	55		 push	 ebp
  00001	8b ec		 mov	 ebp, esp

; 1275 : 		size_type _Capacity = capacity();

  00003	8b 41 08	 mov	 eax, DWORD PTR [ecx+8]
  00006	2b 01		 sub	 eax, DWORD PTR [ecx]
  00008	6a 14		 push	 20			; 00000014H
  0000a	99		 cdq
  0000b	59		 pop	 ecx
  0000c	f7 f9		 idiv	 ecx

; 1276 : 
; 1277 : 		_Capacity = max_size() - _Capacity / 2 < _Capacity
; 1278 : 			? 0 : _Capacity + _Capacity / 2;	// try to grow by 50%

  0000e	ba cc cc cc 0c	 mov	 edx, 214748364		; 0cccccccH
  00013	8b c8		 mov	 ecx, eax
  00015	d1 e9		 shr	 ecx, 1
  00017	2b d1		 sub	 edx, ecx
  00019	3b d0		 cmp	 edx, eax
  0001b	73 04		 jae	 SHORT $LN4@Grow_to
  0001d	33 c0		 xor	 eax, eax
  0001f	eb 02		 jmp	 SHORT $LN5@Grow_to
$LN4@Grow_to:
  00021	03 c1		 add	 eax, ecx
$LN5@Grow_to:

; 1279 : 		if (_Capacity < _Count)

  00023	3b 45 08	 cmp	 eax, DWORD PTR __Count$[ebp]

; 1280 : 			_Capacity = _Count;

  00026	0f 42 45 08	 cmovb	 eax, DWORD PTR __Count$[ebp]

; 1281 : 		return (_Capacity);
; 1282 : 		}

  0002a	5d		 pop	 ebp
  0002b	c2 04 00	 ret	 4
?_Grow_to@?$vector@UtagNamedTitleGrade@@V?$allocator@UtagNamedTitleGrade@@@std@@@std@@IBEII@Z ENDP ; std::vector<tagNamedTitleGrade,std::allocator<tagNamedTitleGrade> >::_Grow_to
_TEXT	ENDS
PUBLIC	?allocate@?$allocator@UtagNamedTitleGrade@@@std@@QAEPAUtagNamedTitleGrade@@I@Z ; std::allocator<tagNamedTitleGrade>::allocate
; Function compile flags: /Ogsp
; File c:\program files (x86)\microsoft visual studio 10.0\vc\include\xmemory
;	COMDAT ?allocate@?$allocator@UtagNamedTitleGrade@@@std@@QAEPAUtagNamedTitleGrade@@I@Z
_TEXT	SEGMENT
__Count$ = 8						; size = 4
?allocate@?$allocator@UtagNamedTitleGrade@@@std@@QAEPAUtagNamedTitleGrade@@I@Z PROC ; std::allocator<tagNamedTitleGrade>::allocate, COMDAT
; _this$ = ecx

; 186  : 		{	// allocate array of _Count elements

  00000	55		 push	 ebp
  00001	8b ec		 mov	 ebp, esp

; 187  : 		return (_Allocate(_Count, (pointer)0));

  00003	6a 00		 push	 0
  00005	ff 75 08	 push	 DWORD PTR __Count$[ebp]
  00008	e8 00 00 00 00	 call	 ??$_Allocate@UtagNamedTitleGrade@@@std@@YAPAUtagNamedTitleGrade@@IPAU1@@Z ; std::_Allocate<tagNamedTitleGrade>
  0000d	59		 pop	 ecx
  0000e	59		 pop	 ecx

; 188  : 		}

  0000f	5d		 pop	 ebp
  00010	c2 04 00	 ret	 4
?allocate@?$allocator@UtagNamedTitleGrade@@@std@@QAEPAUtagNamedTitleGrade@@I@Z ENDP ; std::allocator<tagNamedTitleGrade>::allocate
_TEXT	ENDS
PUBLIC	?_Lbound@?$_Tree@V?$_Tmap_traits@KUtagNamedTitleInfo@@U?$less@K@std@@V?$allocator@U?$pair@$$CBKUtagNamedTitleInfo@@@std@@@3@$0A@@std@@@std@@IAEPAU_Node@?$_Tree_nod@V?$_Tmap_traits@KUtagNamedTitleInfo@@U?$less@K@std@@V?$allocator@U?$pair@$$CBKUtagNamedTitleInfo@@@std@@@3@$0A@@std@@@2@ABK@Z ; std::_Tree<std::_Tmap_traits<unsigned long,tagNamedTitleInfo,std::less<unsigned long>,std::allocator<std::pair<unsigned long const ,tagNamedTitleInfo> >,0> >::_Lbound
; Function compile flags: /Ogsp
; File c:\program files (x86)\microsoft visual studio 10.0\vc\include\xtree
;	COMDAT ?_Lbound@?$_Tree@V?$_Tmap_traits@KUtagNamedTitleInfo@@U?$less@K@std@@V?$allocator@U?$pair@$$CBKUtagNamedTitleInfo@@@std@@@3@$0A@@std@@@std@@IAEPAU_Node@?$_Tree_nod@V?$_Tmap_traits@KUtagNamedTitleInfo@@U?$less@K@std@@V?$allocator@U?$pair@$$CBKUtagNamedTitleInfo@@@std@@@3@$0A@@std@@@2@ABK@Z
_TEXT	SEGMENT
__Keyval$ = 8						; size = 4
?_Lbound@?$_Tree@V?$_Tmap_traits@KUtagNamedTitleInfo@@U?$less@K@std@@V?$allocator@U?$pair@$$CBKUtagNamedTitleInfo@@@std@@@3@$0A@@std@@@std@@IAEPAU_Node@?$_Tree_nod@V?$_Tmap_traits@KUtagNamedTitleInfo@@U?$less@K@std@@V?$allocator@U?$pair@$$CBKUtagNamedTitleInfo@@@std@@@3@$0A@@std@@@2@ABK@Z PROC ; std::_Tree<std::_Tmap_traits<unsigned long,tagNamedTitleInfo,std::less<unsigned long>,std::allocator<std::pair<unsigned long const ,tagNamedTitleInfo> >,0> >::_Lbound, COMDAT
; _this$ = ecx

; 1741 : 		{	// find leftmost node not less than _Keyval

  00000	55		 push	 ebp
  00001	8b ec		 mov	 ebp, esp

; 1742 : 		_Nodeptr _Pnode = _Root();

  00003	8b 41 04	 mov	 eax, DWORD PTR [ecx+4]
  00006	8b 48 04	 mov	 ecx, DWORD PTR [eax+4]

; 1743 : 		_Nodeptr _Wherenode = this->_Myhead;	// end() if search fails
; 1744 : 
; 1745 : 		while (!this->_Isnil(_Pnode))

  00009	80 79 35 00	 cmp	 BYTE PTR [ecx+53], 0
  0000d	75 19		 jne	 SHORT $LN3@Lbound
  0000f	8b 55 08	 mov	 edx, DWORD PTR __Keyval$[ebp]
  00012	8b 12		 mov	 edx, DWORD PTR [edx]
$LL4@Lbound:

; 1746 : 			if (_DEBUG_LT_PRED(this->comp, this->_Key(_Pnode), _Keyval))

  00014	39 51 0c	 cmp	 DWORD PTR [ecx+12], edx
  00017	73 05		 jae	 SHORT $LN2@Lbound

; 1747 : 				_Pnode = this->_Right(_Pnode);	// descend right subtree

  00019	8b 49 08	 mov	 ecx, DWORD PTR [ecx+8]

; 1748 : 			else

  0001c	eb 04		 jmp	 SHORT $LN1@Lbound
$LN2@Lbound:

; 1749 : 				{	// _Pnode not less than _Keyval, remember it
; 1750 : 				_Wherenode = _Pnode;

  0001e	8b c1		 mov	 eax, ecx

; 1751 : 				_Pnode = this->_Left(_Pnode);	// descend left subtree

  00020	8b 09		 mov	 ecx, DWORD PTR [ecx]
$LN1@Lbound:

; 1743 : 		_Nodeptr _Wherenode = this->_Myhead;	// end() if search fails
; 1744 : 
; 1745 : 		while (!this->_Isnil(_Pnode))

  00022	80 79 35 00	 cmp	 BYTE PTR [ecx+53], 0
  00026	74 ec		 je	 SHORT $LL4@Lbound
$LN3@Lbound:

; 1752 : 				}
; 1753 : 
; 1754 : 		return (_Wherenode);	// return best remembered candidate
; 1755 : 		}

  00028	5d		 pop	 ebp
  00029	c2 04 00	 ret	 4
?_Lbound@?$_Tree@V?$_Tmap_traits@KUtagNamedTitleInfo@@U?$less@K@std@@V?$allocator@U?$pair@$$CBKUtagNamedTitleInfo@@@std@@@3@$0A@@std@@@std@@IAEPAU_Node@?$_Tree_nod@V?$_Tmap_traits@KUtagNamedTitleInfo@@U?$less@K@std@@V?$allocator@U?$pair@$$CBKUtagNamedTitleInfo@@@std@@@3@$0A@@std@@@2@ABK@Z ENDP ; std::_Tree<std::_Tmap_traits<unsigned long,tagNamedTitleInfo,std::less<unsigned long>,std::allocator<std::pair<unsigned long const ,tagNamedTitleInfo> >,0> >::_Lbound
_TEXT	ENDS
PUBLIC	??0?$_Tree_const_iterator@V?$_Tree_val@V?$_Tmap_traits@KUtagNamedTitleInfo@@U?$less@K@std@@V?$allocator@U?$pair@$$CBKUtagNamedTitleInfo@@@std@@@3@$0A@@std@@@std@@@std@@QAE@PAU_Node@?$_Tree_nod@V?$_Tmap_traits@KUtagNamedTitleInfo@@U?$less@K@std@@V?$allocator@U?$pair@$$CBKUtagNamedTitleInfo@@@std@@@3@$0A@@std@@@1@PBV?$_Tree_val@V?$_Tmap_traits@KUtagNamedTitleInfo@@U?$less@K@std@@V?$allocator@U?$pair@$$CBKUtagNamedTitleInfo@@@std@@@3@$0A@@std@@@1@@Z ; std::_Tree_const_iterator<std::_Tree_val<std::_Tmap_traits<unsigned long,tagNamedTitleInfo,std::less<unsigned long>,std::allocator<std::pair<unsigned long const ,tagNamedTitleInfo> >,0> > >::_Tree_const_iterator<std::_Tree_val<std::_Tmap_traits<unsigned long,tagNamedTitleInfo,std::less<unsigned long>,std::allocator<std::pair<unsigned long const ,tagNamedTitleInfo> >,0> > >
; Function compile flags: /Ogsp
;	COMDAT ??0?$_Tree_const_iterator@V?$_Tree_val@V?$_Tmap_traits@KUtagNamedTitleInfo@@U?$less@K@std@@V?$allocator@U?$pair@$$CBKUtagNamedTitleInfo@@@std@@@3@$0A@@std@@@std@@@std@@QAE@PAU_Node@?$_Tree_nod@V?$_Tmap_traits@KUtagNamedTitleInfo@@U?$less@K@std@@V?$allocator@U?$pair@$$CBKUtagNamedTitleInfo@@@std@@@3@$0A@@std@@@1@PBV?$_Tree_val@V?$_Tmap_traits@KUtagNamedTitleInfo@@U?$less@K@std@@V?$allocator@U?$pair@$$CBKUtagNamedTitleInfo@@@std@@@3@$0A@@std@@@1@@Z
_TEXT	SEGMENT
__Pnode$ = 8						; size = 4
__Plist$ = 12						; size = 4
??0?$_Tree_const_iterator@V?$_Tree_val@V?$_Tmap_traits@KUtagNamedTitleInfo@@U?$less@K@std@@V?$allocator@U?$pair@$$CBKUtagNamedTitleInfo@@@std@@@3@$0A@@std@@@std@@@std@@QAE@PAU_Node@?$_Tree_nod@V?$_Tmap_traits@KUtagNamedTitleInfo@@U?$less@K@std@@V?$allocator@U?$pair@$$CBKUtagNamedTitleInfo@@@std@@@3@$0A@@std@@@1@PBV?$_Tree_val@V?$_Tmap_traits@KUtagNamedTitleInfo@@U?$less@K@std@@V?$allocator@U?$pair@$$CBKUtagNamedTitleInfo@@@std@@@3@$0A@@std@@@1@@Z PROC ; std::_Tree_const_iterator<std::_Tree_val<std::_Tmap_traits<unsigned long,tagNamedTitleInfo,std::less<unsigned long>,std::allocator<std::pair<unsigned long const ,tagNamedTitleInfo> >,0> > >::_Tree_const_iterator<std::_Tree_val<std::_Tmap_traits<unsigned long,tagNamedTitleInfo,std::less<unsigned long>,std::allocator<std::pair<unsigned long const ,tagNamedTitleInfo> >,0> > >, COMDAT
; _this$ = ecx

; 213  : 		{	// construct with node pointer _Pnode

  00000	55		 push	 ebp
  00001	8b ec		 mov	 ebp, esp
  00003	8b c1		 mov	 eax, ecx
  00005	8b 4d 08	 mov	 ecx, DWORD PTR __Pnode$[ebp]
  00008	89 08		 mov	 DWORD PTR [eax], ecx

; 214  : 		}

  0000a	5d		 pop	 ebp
  0000b	c2 08 00	 ret	 8
??0?$_Tree_const_iterator@V?$_Tree_val@V?$_Tmap_traits@KUtagNamedTitleInfo@@U?$less@K@std@@V?$allocator@U?$pair@$$CBKUtagNamedTitleInfo@@@std@@@3@$0A@@std@@@std@@@std@@QAE@PAU_Node@?$_Tree_nod@V?$_Tmap_traits@KUtagNamedTitleInfo@@U?$less@K@std@@V?$allocator@U?$pair@$$CBKUtagNamedTitleInfo@@@std@@@3@$0A@@std@@@1@PBV?$_Tree_val@V?$_Tmap_traits@KUtagNamedTitleInfo@@U?$less@K@std@@V?$allocator@U?$pair@$$CBKUtagNamedTitleInfo@@@std@@@3@$0A@@std@@@1@@Z ENDP ; std::_Tree_const_iterator<std::_Tree_val<std::_Tmap_traits<unsigned long,tagNamedTitleInfo,std::less<unsigned long>,std::allocator<std::pair<unsigned long const ,tagNamedTitleInfo> >,0> > >::_Tree_const_iterator<std::_Tree_val<std::_Tmap_traits<unsigned long,tagNamedTitleInfo,std::less<unsigned long>,std::allocator<std::pair<unsigned long const ,tagNamedTitleInfo> >,0> > >
_TEXT	ENDS
PUBLIC	??0?$_Tree_nod@V?$_Tmap_traits@KUtagNamedTitleInfo@@U?$less@K@std@@V?$allocator@U?$pair@$$CBKUtagNamedTitleInfo@@@std@@@3@$0A@@std@@@std@@QAE@ABU?$less@K@1@V?$allocator@U?$pair@$$CBKUtagNamedTitleInfo@@@std@@@1@@Z ; std::_Tree_nod<std::_Tmap_traits<unsigned long,tagNamedTitleInfo,std::less<unsigned long>,std::allocator<std::pair<unsigned long const ,tagNamedTitleInfo> >,0> >::_Tree_nod<std::_Tmap_traits<unsigned long,tagNamedTitleInfo,std::less<unsigned long>,std::allocator<std::pair<unsigned long const ,tagNamedTitleInfo> >,0> >
; Function compile flags: /Ogsp
;	COMDAT ??0?$_Tree_nod@V?$_Tmap_traits@KUtagNamedTitleInfo@@U?$less@K@std@@V?$allocator@U?$pair@$$CBKUtagNamedTitleInfo@@@std@@@3@$0A@@std@@@std@@QAE@ABU?$less@K@1@V?$allocator@U?$pair@$$CBKUtagNamedTitleInfo@@@std@@@1@@Z
_TEXT	SEGMENT
__Parg$ = 8						; size = 4
__Al$ = 12						; size = 1
??0?$_Tree_nod@V?$_Tmap_traits@KUtagNamedTitleInfo@@U?$less@K@std@@V?$allocator@U?$pair@$$CBKUtagNamedTitleInfo@@@std@@@3@$0A@@std@@@std@@QAE@ABU?$less@K@1@V?$allocator@U?$pair@$$CBKUtagNamedTitleInfo@@@std@@@1@@Z PROC ; std::_Tree_nod<std::_Tmap_traits<unsigned long,tagNamedTitleInfo,std::less<unsigned long>,std::allocator<std::pair<unsigned long const ,tagNamedTitleInfo> >,0> >::_Tree_nod<std::_Tmap_traits<unsigned long,tagNamedTitleInfo,std::less<unsigned long>,std::allocator<std::pair<unsigned long const ,tagNamedTitleInfo> >,0> >, COMDAT
; _this$ = ecx

; 482  : 		{	// construct traits from _Parg and allocators from _Al

  00000	8b c1		 mov	 eax, ecx

; 483  : 		}

  00002	c2 08 00	 ret	 8
??0?$_Tree_nod@V?$_Tmap_traits@KUtagNamedTitleInfo@@U?$less@K@std@@V?$allocator@U?$pair@$$CBKUtagNamedTitleInfo@@@std@@@3@$0A@@std@@@std@@QAE@ABU?$less@K@1@V?$allocator@U?$pair@$$CBKUtagNamedTitleInfo@@@std@@@1@@Z ENDP ; std::_Tree_nod<std::_Tmap_traits<unsigned long,tagNamedTitleInfo,std::less<unsigned long>,std::allocator<std::pair<unsigned long const ,tagNamedTitleInfo> >,0> >::_Tree_nod<std::_Tmap_traits<unsigned long,tagNamedTitleInfo,std::less<unsigned long>,std::allocator<std::pair<unsigned long const ,tagNamedTitleInfo> >,0> >
_TEXT	ENDS
PUBLIC	?allocate@?$allocator@U_Node@?$_Tree_nod@V?$_Tmap_traits@KUtagNamedTitleInfo@@U?$less@K@std@@V?$allocator@U?$pair@$$CBKUtagNamedTitleInfo@@@std@@@3@$0A@@std@@@std@@@std@@QAEPAU_Node@?$_Tree_nod@V?$_Tmap_traits@KUtagNamedTitleInfo@@U?$less@K@std@@V?$allocator@U?$pair@$$CBKUtagNamedTitleInfo@@@std@@@3@$0A@@std@@@2@I@Z ; std::allocator<std::_Tree_nod<std::_Tmap_traits<unsigned long,tagNamedTitleInfo,std::less<unsigned long>,std::allocator<std::pair<unsigned long const ,tagNamedTitleInfo> >,0> >::_Node>::allocate
; Function compile flags: /Ogsp
; File c:\program files (x86)\microsoft visual studio 10.0\vc\include\xmemory
;	COMDAT ?allocate@?$allocator@U_Node@?$_Tree_nod@V?$_Tmap_traits@KUtagNamedTitleInfo@@U?$less@K@std@@V?$allocator@U?$pair@$$CBKUtagNamedTitleInfo@@@std@@@3@$0A@@std@@@std@@@std@@QAEPAU_Node@?$_Tree_nod@V?$_Tmap_traits@KUtagNamedTitleInfo@@U?$less@K@std@@V?$allocator@U?$pair@$$CBKUtagNamedTitleInfo@@@std@@@3@$0A@@std@@@2@I@Z
_TEXT	SEGMENT
__Count$ = 8						; size = 4
?allocate@?$allocator@U_Node@?$_Tree_nod@V?$_Tmap_traits@KUtagNamedTitleInfo@@U?$less@K@std@@V?$allocator@U?$pair@$$CBKUtagNamedTitleInfo@@@std@@@3@$0A@@std@@@std@@@std@@QAEPAU_Node@?$_Tree_nod@V?$_Tmap_traits@KUtagNamedTitleInfo@@U?$less@K@std@@V?$allocator@U?$pair@$$CBKUtagNamedTitleInfo@@@std@@@3@$0A@@std@@@2@I@Z PROC ; std::allocator<std::_Tree_nod<std::_Tmap_traits<unsigned long,tagNamedTitleInfo,std::less<unsigned long>,std::allocator<std::pair<unsigned long const ,tagNamedTitleInfo> >,0> >::_Node>::allocate, COMDAT
; _this$ = ecx

; 186  : 		{	// allocate array of _Count elements

  00000	55		 push	 ebp
  00001	8b ec		 mov	 ebp, esp

; 187  : 		return (_Allocate(_Count, (pointer)0));

  00003	6a 00		 push	 0
  00005	ff 75 08	 push	 DWORD PTR __Count$[ebp]
  00008	e8 00 00 00 00	 call	 ??$_Allocate@U_Node@?$_Tree_nod@V?$_Tmap_traits@KUtagNamedTitleInfo@@U?$less@K@std@@V?$allocator@U?$pair@$$CBKUtagNamedTitleInfo@@@std@@@3@$0A@@std@@@std@@@std@@YAPAU_Node@?$_Tree_nod@V?$_Tmap_traits@KUtagNamedTitleInfo@@U?$less@K@std@@V?$allocator@U?$pair@$$CBKUtagNamedTitleInfo@@@std@@@3@$0A@@std@@@0@IPAU120@@Z ; std::_Allocate<std::_Tree_nod<std::_Tmap_traits<unsigned long,tagNamedTitleInfo,std::less<unsigned long>,std::allocator<std::pair<unsigned long const ,tagNamedTitleInfo> >,0> >::_Node>
  0000d	59		 pop	 ecx
  0000e	59		 pop	 ecx

; 188  : 		}

  0000f	5d		 pop	 ebp
  00010	c2 04 00	 ret	 4
?allocate@?$allocator@U_Node@?$_Tree_nod@V?$_Tmap_traits@KUtagNamedTitleInfo@@U?$less@K@std@@V?$allocator@U?$pair@$$CBKUtagNamedTitleInfo@@@std@@@3@$0A@@std@@@std@@@std@@QAEPAU_Node@?$_Tree_nod@V?$_Tmap_traits@KUtagNamedTitleInfo@@U?$less@K@std@@V?$allocator@U?$pair@$$CBKUtagNamedTitleInfo@@@std@@@3@$0A@@std@@@2@I@Z ENDP ; std::allocator<std::_Tree_nod<std::_Tmap_traits<unsigned long,tagNamedTitleInfo,std::less<unsigned long>,std::allocator<std::pair<unsigned long const ,tagNamedTitleInfo> >,0> >::_Node>::allocate
_TEXT	ENDS
PUBLIC	?_Lrotate@?$_Tree@V?$_Tmap_traits@KUtagNamedTitleInfo@@U?$less@K@std@@V?$allocator@U?$pair@$$CBKUtagNamedTitleInfo@@@std@@@3@$0A@@std@@@std@@IAEXPAU_Node@?$_Tree_nod@V?$_Tmap_traits@KUtagNamedTitleInfo@@U?$less@K@std@@V?$allocator@U?$pair@$$CBKUtagNamedTitleInfo@@@std@@@3@$0A@@std@@@2@@Z ; std::_Tree<std::_Tmap_traits<unsigned long,tagNamedTitleInfo,std::less<unsigned long>,std::allocator<std::pair<unsigned long const ,tagNamedTitleInfo> >,0> >::_Lrotate
; Function compile flags: /Ogsp
; File c:\program files (x86)\microsoft visual studio 10.0\vc\include\xtree
;	COMDAT ?_Lrotate@?$_Tree@V?$_Tmap_traits@KUtagNamedTitleInfo@@U?$less@K@std@@V?$allocator@U?$pair@$$CBKUtagNamedTitleInfo@@@std@@@3@$0A@@std@@@std@@IAEXPAU_Node@?$_Tree_nod@V?$_Tmap_traits@KUtagNamedTitleInfo@@U?$less@K@std@@V?$allocator@U?$pair@$$CBKUtagNamedTitleInfo@@@std@@@3@$0A@@std@@@2@@Z
_TEXT	SEGMENT
__Wherenode$ = 8					; size = 4
?_Lrotate@?$_Tree@V?$_Tmap_traits@KUtagNamedTitleInfo@@U?$less@K@std@@V?$allocator@U?$pair@$$CBKUtagNamedTitleInfo@@@std@@@3@$0A@@std@@@std@@IAEXPAU_Node@?$_Tree_nod@V?$_Tmap_traits@KUtagNamedTitleInfo@@U?$less@K@std@@V?$allocator@U?$pair@$$CBKUtagNamedTitleInfo@@@std@@@3@$0A@@std@@@2@@Z PROC ; std::_Tree<std::_Tmap_traits<unsigned long,tagNamedTitleInfo,std::less<unsigned long>,std::allocator<std::pair<unsigned long const ,tagNamedTitleInfo> >,0> >::_Lrotate, COMDAT
; _this$ = ecx

; 1763 : 		{	// promote right node to root of subtree

  00000	55		 push	 ebp
  00001	8b ec		 mov	 ebp, esp

; 1764 : 		_Nodeptr _Pnode = this->_Right(_Wherenode);

  00003	8b 55 08	 mov	 edx, DWORD PTR __Wherenode$[ebp]
  00006	8b 42 08	 mov	 eax, DWORD PTR [edx+8]
  00009	56		 push	 esi

; 1765 : 		this->_Right(_Wherenode) = this->_Left(_Pnode);

  0000a	8b 30		 mov	 esi, DWORD PTR [eax]
  0000c	89 72 08	 mov	 DWORD PTR [edx+8], esi

; 1766 : 
; 1767 : 		if (!this->_Isnil(this->_Left(_Pnode)))

  0000f	8b 30		 mov	 esi, DWORD PTR [eax]
  00011	80 7e 35 00	 cmp	 BYTE PTR [esi+53], 0
  00015	75 03		 jne	 SHORT $LN5@Lrotate

; 1768 : 			this->_Parent(this->_Left(_Pnode)) = _Wherenode;

  00017	89 56 04	 mov	 DWORD PTR [esi+4], edx
$LN5@Lrotate:

; 1769 : 		this->_Parent(_Pnode) = this->_Parent(_Wherenode);

  0001a	8b 72 04	 mov	 esi, DWORD PTR [edx+4]
  0001d	89 70 04	 mov	 DWORD PTR [eax+4], esi

; 1770 : 
; 1771 : 		if (_Wherenode == _Root())

  00020	8b 49 04	 mov	 ecx, DWORD PTR [ecx+4]
  00023	5e		 pop	 esi
  00024	3b 51 04	 cmp	 edx, DWORD PTR [ecx+4]
  00027	75 05		 jne	 SHORT $LN4@Lrotate

; 1772 : 			_Root() = _Pnode;

  00029	89 41 04	 mov	 DWORD PTR [ecx+4], eax

; 1773 : 		else if (_Wherenode == this->_Left(this->_Parent(_Wherenode)))

  0002c	eb 0e		 jmp	 SHORT $LN1@Lrotate
$LN4@Lrotate:
  0002e	8b 4a 04	 mov	 ecx, DWORD PTR [edx+4]
  00031	3b 11		 cmp	 edx, DWORD PTR [ecx]
  00033	75 04		 jne	 SHORT $LN2@Lrotate

; 1774 : 			this->_Left(this->_Parent(_Wherenode)) = _Pnode;

  00035	89 01		 mov	 DWORD PTR [ecx], eax

; 1775 : 		else

  00037	eb 03		 jmp	 SHORT $LN1@Lrotate
$LN2@Lrotate:

; 1776 : 			this->_Right(this->_Parent(_Wherenode)) = _Pnode;

  00039	89 41 08	 mov	 DWORD PTR [ecx+8], eax
$LN1@Lrotate:

; 1777 : 
; 1778 : 		this->_Left(_Pnode) = _Wherenode;

  0003c	89 10		 mov	 DWORD PTR [eax], edx

; 1779 : 		this->_Parent(_Wherenode) = _Pnode;

  0003e	89 42 04	 mov	 DWORD PTR [edx+4], eax

; 1780 : 		}

  00041	5d		 pop	 ebp
  00042	c2 04 00	 ret	 4
?_Lrotate@?$_Tree@V?$_Tmap_traits@KUtagNamedTitleInfo@@U?$less@K@std@@V?$allocator@U?$pair@$$CBKUtagNamedTitleInfo@@@std@@@3@$0A@@std@@@std@@IAEXPAU_Node@?$_Tree_nod@V?$_Tmap_traits@KUtagNamedTitleInfo@@U?$less@K@std@@V?$allocator@U?$pair@$$CBKUtagNamedTitleInfo@@@std@@@3@$0A@@std@@@2@@Z ENDP ; std::_Tree<std::_Tmap_traits<unsigned long,tagNamedTitleInfo,std::less<unsigned long>,std::allocator<std::pair<unsigned long const ,tagNamedTitleInfo> >,0> >::_Lrotate
_TEXT	ENDS
PUBLIC	?_Rrotate@?$_Tree@V?$_Tmap_traits@KUtagNamedTitleInfo@@U?$less@K@std@@V?$allocator@U?$pair@$$CBKUtagNamedTitleInfo@@@std@@@3@$0A@@std@@@std@@IAEXPAU_Node@?$_Tree_nod@V?$_Tmap_traits@KUtagNamedTitleInfo@@U?$less@K@std@@V?$allocator@U?$pair@$$CBKUtagNamedTitleInfo@@@std@@@3@$0A@@std@@@2@@Z ; std::_Tree<std::_Tmap_traits<unsigned long,tagNamedTitleInfo,std::less<unsigned long>,std::allocator<std::pair<unsigned long const ,tagNamedTitleInfo> >,0> >::_Rrotate
; Function compile flags: /Ogsp
;	COMDAT ?_Rrotate@?$_Tree@V?$_Tmap_traits@KUtagNamedTitleInfo@@U?$less@K@std@@V?$allocator@U?$pair@$$CBKUtagNamedTitleInfo@@@std@@@3@$0A@@std@@@std@@IAEXPAU_Node@?$_Tree_nod@V?$_Tmap_traits@KUtagNamedTitleInfo@@U?$less@K@std@@V?$allocator@U?$pair@$$CBKUtagNamedTitleInfo@@@std@@@3@$0A@@std@@@2@@Z
_TEXT	SEGMENT
__Wherenode$ = 8					; size = 4
?_Rrotate@?$_Tree@V?$_Tmap_traits@KUtagNamedTitleInfo@@U?$less@K@std@@V?$allocator@U?$pair@$$CBKUtagNamedTitleInfo@@@std@@@3@$0A@@std@@@std@@IAEXPAU_Node@?$_Tree_nod@V?$_Tmap_traits@KUtagNamedTitleInfo@@U?$less@K@std@@V?$allocator@U?$pair@$$CBKUtagNamedTitleInfo@@@std@@@3@$0A@@std@@@2@@Z PROC ; std::_Tree<std::_Tmap_traits<unsigned long,tagNamedTitleInfo,std::less<unsigned long>,std::allocator<std::pair<unsigned long const ,tagNamedTitleInfo> >,0> >::_Rrotate, COMDAT
; _this$ = ecx

; 1793 : 		{	// promote left node to root of subtree

  00000	55		 push	 ebp
  00001	8b ec		 mov	 ebp, esp

; 1794 : 		_Nodeptr _Pnode = this->_Left(_Wherenode);

  00003	8b 55 08	 mov	 edx, DWORD PTR __Wherenode$[ebp]
  00006	8b 02		 mov	 eax, DWORD PTR [edx]
  00008	56		 push	 esi

; 1795 : 		this->_Left(_Wherenode) = this->_Right(_Pnode);

  00009	8b 70 08	 mov	 esi, DWORD PTR [eax+8]
  0000c	89 32		 mov	 DWORD PTR [edx], esi

; 1796 : 
; 1797 : 		if (!this->_Isnil(this->_Right(_Pnode)))

  0000e	8b 70 08	 mov	 esi, DWORD PTR [eax+8]
  00011	80 7e 35 00	 cmp	 BYTE PTR [esi+53], 0
  00015	75 03		 jne	 SHORT $LN5@Rrotate

; 1798 : 			this->_Parent(this->_Right(_Pnode)) = _Wherenode;

  00017	89 56 04	 mov	 DWORD PTR [esi+4], edx
$LN5@Rrotate:

; 1799 : 		this->_Parent(_Pnode) = this->_Parent(_Wherenode);

  0001a	8b 72 04	 mov	 esi, DWORD PTR [edx+4]
  0001d	89 70 04	 mov	 DWORD PTR [eax+4], esi

; 1800 : 
; 1801 : 		if (_Wherenode == _Root())

  00020	8b 49 04	 mov	 ecx, DWORD PTR [ecx+4]
  00023	5e		 pop	 esi
  00024	3b 51 04	 cmp	 edx, DWORD PTR [ecx+4]
  00027	75 05		 jne	 SHORT $LN4@Rrotate

; 1802 : 			_Root() = _Pnode;

  00029	89 41 04	 mov	 DWORD PTR [ecx+4], eax

; 1803 : 		else if (_Wherenode == this->_Right(this->_Parent(_Wherenode)))

  0002c	eb 0f		 jmp	 SHORT $LN1@Rrotate
$LN4@Rrotate:
  0002e	8b 4a 04	 mov	 ecx, DWORD PTR [edx+4]
  00031	3b 51 08	 cmp	 edx, DWORD PTR [ecx+8]
  00034	75 05		 jne	 SHORT $LN2@Rrotate

; 1804 : 			this->_Right(this->_Parent(_Wherenode)) = _Pnode;

  00036	89 41 08	 mov	 DWORD PTR [ecx+8], eax

; 1805 : 		else

  00039	eb 02		 jmp	 SHORT $LN1@Rrotate
$LN2@Rrotate:

; 1806 : 			this->_Left(this->_Parent(_Wherenode)) = _Pnode;

  0003b	89 01		 mov	 DWORD PTR [ecx], eax
$LN1@Rrotate:

; 1807 : 
; 1808 : 		this->_Right(_Pnode) = _Wherenode;

  0003d	89 50 08	 mov	 DWORD PTR [eax+8], edx

; 1809 : 		this->_Parent(_Wherenode) = _Pnode;

  00040	89 42 04	 mov	 DWORD PTR [edx+4], eax

; 1810 : 		}

  00043	5d		 pop	 ebp
  00044	c2 04 00	 ret	 4
?_Rrotate@?$_Tree@V?$_Tmap_traits@KUtagNamedTitleInfo@@U?$less@K@std@@V?$allocator@U?$pair@$$CBKUtagNamedTitleInfo@@@std@@@3@$0A@@std@@@std@@IAEXPAU_Node@?$_Tree_nod@V?$_Tmap_traits@KUtagNamedTitleInfo@@U?$less@K@std@@V?$allocator@U?$pair@$$CBKUtagNamedTitleInfo@@@std@@@3@$0A@@std@@@2@@Z ENDP ; std::_Tree<std::_Tmap_traits<unsigned long,tagNamedTitleInfo,std::less<unsigned long>,std::allocator<std::pair<unsigned long const ,tagNamedTitleInfo> >,0> >::_Rrotate
_TEXT	ENDS
PUBLIC	??E?$_Tree_const_iterator@V?$_Tree_val@V?$_Tmap_traits@KUtagNamedTitleInfo@@U?$less@K@std@@V?$allocator@U?$pair@$$CBKUtagNamedTitleInfo@@@std@@@3@$0A@@std@@@std@@@std@@QAEAAV01@XZ ; std::_Tree_const_iterator<std::_Tree_val<std::_Tmap_traits<unsigned long,tagNamedTitleInfo,std::less<unsigned long>,std::allocator<std::pair<unsigned long const ,tagNamedTitleInfo> >,0> > >::operator++
; Function compile flags: /Ogsp
;	COMDAT ??E?$_Tree_const_iterator@V?$_Tree_val@V?$_Tmap_traits@KUtagNamedTitleInfo@@U?$less@K@std@@V?$allocator@U?$pair@$$CBKUtagNamedTitleInfo@@@std@@@3@$0A@@std@@@std@@@std@@QAEAAV01@XZ
_TEXT	SEGMENT
??E?$_Tree_const_iterator@V?$_Tree_val@V?$_Tmap_traits@KUtagNamedTitleInfo@@U?$less@K@std@@V?$allocator@U?$pair@$$CBKUtagNamedTitleInfo@@@std@@@3@$0A@@std@@@std@@@std@@QAEAAV01@XZ PROC ; std::_Tree_const_iterator<std::_Tree_val<std::_Tmap_traits<unsigned long,tagNamedTitleInfo,std::less<unsigned long>,std::allocator<std::pair<unsigned long const ,tagNamedTitleInfo> >,0> > >::operator++, COMDAT
; _this$ = ecx

; 250  : 		{	// preincrement

  00000	56		 push	 esi
  00001	8b f1		 mov	 esi, ecx

; 251  :  #if _ITERATOR_DEBUG_LEVEL == 2
; 252  : 		if (this->_Getcont() == 0
; 253  : 			|| this->_Ptr == 0
; 254  : 			|| _Mytree::_Isnil(this->_Ptr))
; 255  : 			{	// report error
; 256  : 			_DEBUG_ERROR("map/set iterator not incrementable");
; 257  : 			_SCL_SECURE_OUT_OF_RANGE;
; 258  : 			}
; 259  : 
; 260  :  #elif _ITERATOR_DEBUG_LEVEL == 1
; 261  : 		_SCL_SECURE_VALIDATE(this->_Getcont() != 0 && this->_Ptr != 0);
; 262  : 		_SCL_SECURE_VALIDATE_RANGE(!_Mytree::_Isnil(this->_Ptr));
; 263  :  #endif /* _ITERATOR_DEBUG_LEVEL */
; 264  : 
; 265  : 		++(*(_Mybase *)this);

  00003	e8 00 00 00 00	 call	 ??E?$_Tree_unchecked_const_iterator@V?$_Tree_val@V?$_Tmap_traits@KUtagNamedTitleInfo@@U?$less@K@std@@V?$allocator@U?$pair@$$CBKUtagNamedTitleInfo@@@std@@@3@$0A@@std@@@std@@U_Iterator_base0@2@@std@@QAEAAV01@XZ ; std::_Tree_unchecked_const_iterator<std::_Tree_val<std::_Tmap_traits<unsigned long,tagNamedTitleInfo,std::less<unsigned long>,std::allocator<std::pair<unsigned long const ,tagNamedTitleInfo> >,0> >,std::_Iterator_base0>::operator++

; 266  : 		return (*this);

  00008	8b c6		 mov	 eax, esi
  0000a	5e		 pop	 esi

; 267  : 		}

  0000b	c3		 ret	 0
??E?$_Tree_const_iterator@V?$_Tree_val@V?$_Tmap_traits@KUtagNamedTitleInfo@@U?$less@K@std@@V?$allocator@U?$pair@$$CBKUtagNamedTitleInfo@@@std@@@3@$0A@@std@@@std@@@std@@QAEAAV01@XZ ENDP ; std::_Tree_const_iterator<std::_Tree_val<std::_Tmap_traits<unsigned long,tagNamedTitleInfo,std::less<unsigned long>,std::allocator<std::pair<unsigned long const ,tagNamedTitleInfo> >,0> > >::operator++
_TEXT	ENDS
PUBLIC	__$ArrayPad$
PUBLIC	??$SetTitle_e@$0M@@ioINILoader@@QAEXAAY0M@$$CBD@Z ; ioINILoader::SetTitle_e<12>
EXTRN	__imp_?SetTitle@ioINILoader@@QAEXPBD@Z:PROC
EXTRN	___security_cookie:DWORD
; Function compile flags: /Ogsp
; File d:\lost saga for developer\youtube\tutorial\source\src\io3dengine\ioiniloader.h
;	COMDAT ??$SetTitle_e@$0M@@ioINILoader@@QAEXAAY0M@$$CBD@Z
_TEXT	SEGMENT
__t$ = -20						; size = 12
__$ArrayPad$ = -4					; size = 4
_t$ = 8							; size = 4
??$SetTitle_e@$0M@@ioINILoader@@QAEXAAY0M@$$CBD@Z PROC	; ioINILoader::SetTitle_e<12>, COMDAT
; _this$ = ecx

; 188  : 	{

  00000	55		 push	 ebp
  00001	8b ec		 mov	 ebp, esp
  00003	83 ec 14	 sub	 esp, 20			; 00000014H
  00006	a1 00 00 00 00	 mov	 eax, DWORD PTR ___security_cookie
  0000b	33 c5		 xor	 eax, ebp
  0000d	89 45 fc	 mov	 DWORD PTR __$ArrayPad$[ebp], eax
  00010	8b 45 08	 mov	 eax, DWORD PTR _t$[ebp]

; 189  : 		_ENCSTR(t, _t);

  00013	8a 10		 mov	 dl, BYTE PTR [eax]
  00015	56		 push	 esi
  00016	8b f1		 mov	 esi, ecx
  00018	84 d2		 test	 dl, dl
  0001a	0f 84 32 01 00
	00		 je	 $LN96@SetTitle_e
  00020	80 f2 ed	 xor	 dl, -19			; ffffffedH
  00023	88 55 ec	 mov	 BYTE PTR __t$[ebp], dl
  00026	8a 50 01	 mov	 dl, BYTE PTR [eax+1]
  00029	84 d2		 test	 dl, dl
  0002b	0f 84 1b 01 00
	00		 je	 $LN95@SetTitle_e
  00031	80 f2 ec	 xor	 dl, -20			; ffffffecH
  00034	88 55 ed	 mov	 BYTE PTR __t$[ebp+1], dl
  00037	8a 50 02	 mov	 dl, BYTE PTR [eax+2]
  0003a	84 d2		 test	 dl, dl
  0003c	0f 84 04 01 00
	00		 je	 $LN94@SetTitle_e
  00042	b1 eb		 mov	 cl, -21			; ffffffebH
  00044	32 d1		 xor	 dl, cl
  00046	88 55 ee	 mov	 BYTE PTR __t$[ebp+2], dl
  00049	8a 50 03	 mov	 dl, BYTE PTR [eax+3]
  0004c	84 d2		 test	 dl, dl
  0004e	0f 84 ec 00 00
	00		 je	 $LN93@SetTitle_e
  00054	80 f2 ea	 xor	 dl, -22			; ffffffeaH
  00057	88 55 ef	 mov	 BYTE PTR __t$[ebp+3], dl
  0005a	8a 50 04	 mov	 dl, BYTE PTR [eax+4]
  0005d	84 d2		 test	 dl, dl
  0005f	0f 84 d5 00 00
	00		 je	 $LN92@SetTitle_e
  00065	80 f2 ed	 xor	 dl, -19			; ffffffedH
  00068	88 55 f0	 mov	 BYTE PTR __t$[ebp+4], dl
  0006b	8a 50 05	 mov	 dl, BYTE PTR [eax+5]
  0006e	84 d2		 test	 dl, dl
  00070	0f 84 be 00 00
	00		 je	 $LN91@SetTitle_e
  00076	80 f2 ec	 xor	 dl, -20			; ffffffecH
  00079	88 55 f1	 mov	 BYTE PTR __t$[ebp+5], dl
  0007c	8a 50 06	 mov	 dl, BYTE PTR [eax+6]
  0007f	84 d2		 test	 dl, dl
  00081	0f 84 a8 00 00
	00		 je	 $LN90@SetTitle_e
  00087	32 d1		 xor	 dl, cl
  00089	88 55 f2	 mov	 BYTE PTR __t$[ebp+6], dl
  0008c	8a 50 07	 mov	 dl, BYTE PTR [eax+7]
  0008f	84 d2		 test	 dl, dl
  00091	0f 84 92 00 00
	00		 je	 $LN89@SetTitle_e
  00097	80 f2 ea	 xor	 dl, -22			; ffffffeaH
  0009a	88 55 f3	 mov	 BYTE PTR __t$[ebp+7], dl
  0009d	8a 50 08	 mov	 dl, BYTE PTR [eax+8]
  000a0	84 d2		 test	 dl, dl
  000a2	74 7f		 je	 SHORT $LN88@SetTitle_e
  000a4	80 f2 ed	 xor	 dl, -19			; ffffffedH
  000a7	88 55 f4	 mov	 BYTE PTR __t$[ebp+8], dl
  000aa	8a 50 09	 mov	 dl, BYTE PTR [eax+9]
  000ad	84 d2		 test	 dl, dl
  000af	74 6c		 je	 SHORT $LN87@SetTitle_e
  000b1	80 f2 ec	 xor	 dl, -20			; ffffffecH
  000b4	88 55 f5	 mov	 BYTE PTR __t$[ebp+9], dl
  000b7	8a 50 0a	 mov	 dl, BYTE PTR [eax+10]
  000ba	84 d2		 test	 dl, dl
  000bc	74 5a		 je	 SHORT $LN86@SetTitle_e
  000be	32 d1		 xor	 dl, cl
  000c0	80 78 0b 00	 cmp	 BYTE PTR [eax+11], 0
  000c4	88 55 f6	 mov	 BYTE PTR __t$[ebp+10], dl
  000c7	0f 84 89 00 00
	00		 je	 $LN1@SetTitle_e
  000cd	8a 50 0c	 mov	 dl, BYTE PTR [eax+12]
  000d0	84 d2		 test	 dl, dl
  000d2	74 3e		 je	 SHORT $LN84@SetTitle_e
  000d4	80 f2 ed	 xor	 dl, -19			; ffffffedH
  000d7	88 55 f8	 mov	 BYTE PTR __t$[ebp+12], dl
  000da	8a 50 0d	 mov	 dl, BYTE PTR [eax+13]
  000dd	84 d2		 test	 dl, dl
  000df	74 2b		 je	 SHORT $LN83@SetTitle_e
  000e1	80 f2 ec	 xor	 dl, -20			; ffffffecH
  000e4	88 55 f9	 mov	 BYTE PTR __t$[ebp+13], dl
  000e7	8a 50 0e	 mov	 dl, BYTE PTR [eax+14]
  000ea	84 d2		 test	 dl, dl
  000ec	74 19		 je	 SHORT $LN82@SetTitle_e
  000ee	8a 40 0f	 mov	 al, BYTE PTR [eax+15]
  000f1	32 d1		 xor	 dl, cl
  000f3	88 55 fa	 mov	 BYTE PTR __t$[ebp+14], dl
  000f6	84 c0		 test	 al, al
  000f8	74 07		 je	 SHORT $LN81@SetTitle_e
  000fa	34 ea		 xor	 al, -22			; ffffffeaH
  000fc	88 45 fb	 mov	 BYTE PTR __t$[ebp+15], al
  000ff	eb 55		 jmp	 SHORT $LN1@SetTitle_e
$LN81@SetTitle_e:
  00101	c6 45 fb ea	 mov	 BYTE PTR __t$[ebp+15], -22 ; ffffffeaH
  00105	eb 4f		 jmp	 SHORT $LN1@SetTitle_e
$LN82@SetTitle_e:
  00107	88 4d fa	 mov	 BYTE PTR __t$[ebp+14], cl
  0010a	eb 4a		 jmp	 SHORT $LN1@SetTitle_e
$LN83@SetTitle_e:
  0010c	c6 45 f9 ec	 mov	 BYTE PTR __t$[ebp+13], -20 ; ffffffecH
  00110	eb 44		 jmp	 SHORT $LN1@SetTitle_e
$LN84@SetTitle_e:
  00112	c6 45 f8 ed	 mov	 BYTE PTR __t$[ebp+12], -19 ; ffffffedH
  00116	eb 3e		 jmp	 SHORT $LN1@SetTitle_e
$LN86@SetTitle_e:
  00118	88 4d f6	 mov	 BYTE PTR __t$[ebp+10], cl
  0011b	eb 39		 jmp	 SHORT $LN1@SetTitle_e
$LN87@SetTitle_e:
  0011d	c6 45 f5 ec	 mov	 BYTE PTR __t$[ebp+9], -20 ; ffffffecH
  00121	eb 33		 jmp	 SHORT $LN1@SetTitle_e
$LN88@SetTitle_e:
  00123	c6 45 f4 ed	 mov	 BYTE PTR __t$[ebp+8], -19 ; ffffffedH
  00127	eb 2d		 jmp	 SHORT $LN1@SetTitle_e
$LN89@SetTitle_e:
  00129	c6 45 f3 ea	 mov	 BYTE PTR __t$[ebp+7], -22 ; ffffffeaH
  0012d	eb 27		 jmp	 SHORT $LN1@SetTitle_e
$LN90@SetTitle_e:
  0012f	88 4d f2	 mov	 BYTE PTR __t$[ebp+6], cl
  00132	eb 22		 jmp	 SHORT $LN1@SetTitle_e
$LN91@SetTitle_e:
  00134	c6 45 f1 ec	 mov	 BYTE PTR __t$[ebp+5], -20 ; ffffffecH
  00138	eb 1c		 jmp	 SHORT $LN1@SetTitle_e
$LN92@SetTitle_e:
  0013a	c6 45 f0 ed	 mov	 BYTE PTR __t$[ebp+4], -19 ; ffffffedH
  0013e	eb 16		 jmp	 SHORT $LN1@SetTitle_e
$LN93@SetTitle_e:
  00140	c6 45 ef ea	 mov	 BYTE PTR __t$[ebp+3], -22 ; ffffffeaH
  00144	eb 10		 jmp	 SHORT $LN1@SetTitle_e
$LN94@SetTitle_e:
  00146	c6 45 ee eb	 mov	 BYTE PTR __t$[ebp+2], -21 ; ffffffebH
  0014a	eb 0a		 jmp	 SHORT $LN1@SetTitle_e
$LN95@SetTitle_e:
  0014c	c6 45 ed ec	 mov	 BYTE PTR __t$[ebp+1], -20 ; ffffffecH
  00150	eb 04		 jmp	 SHORT $LN1@SetTitle_e
$LN96@SetTitle_e:
  00152	c6 45 ec ed	 mov	 BYTE PTR __t$[ebp], -19	; ffffffedH
$LN1@SetTitle_e:
  00156	6a 02		 push	 2
  00158	8d 45 ec	 lea	 eax, DWORD PTR __t$[ebp]
  0015b	c6 45 f7 00	 mov	 BYTE PTR __t$[ebp+11], 0
  0015f	5a		 pop	 edx
$LL104@SetTitle_e:
  00160	81 30 ed ec eb
	ea		 xor	 DWORD PTR [eax], -353637139 ; eaebecedH
  00166	83 c0 04	 add	 eax, 4
  00169	4a		 dec	 edx
  0016a	75 f4		 jne	 SHORT $LL104@SetTitle_e
  0016c	6a 08		 push	 8
  0016e	58		 pop	 eax
$LL101@SetTitle_e:
  0016f	8b c8		 mov	 ecx, eax
  00171	81 e1 03 00 00
	80		 and	 ecx, -2147483645	; 80000003H
  00177	79 05		 jns	 SHORT $LN111@SetTitle_e
  00179	49		 dec	 ecx
  0017a	83 c9 fc	 or	 ecx, -4			; fffffffcH
  0017d	41		 inc	 ecx
$LN111@SetTitle_e:
  0017e	b2 ed		 mov	 dl, -19			; ffffffedH
  00180	2a d1		 sub	 dl, cl
  00182	30 54 05 ec	 xor	 BYTE PTR __t$[ebp+eax], dl
  00186	40		 inc	 eax
  00187	83 f8 0b	 cmp	 eax, 11			; 0000000bH
  0018a	7c e3		 jl	 SHORT $LL101@SetTitle_e

; 190  : 		SetTitle(_t);

  0018c	8d 45 ec	 lea	 eax, DWORD PTR __t$[ebp]
  0018f	50		 push	 eax
  00190	8b ce		 mov	 ecx, esi
  00192	ff 15 00 00 00
	00		 call	 DWORD PTR __imp_?SetTitle@ioINILoader@@QAEXPBD@Z

; 191  : 	}

  00198	8b 4d fc	 mov	 ecx, DWORD PTR __$ArrayPad$[ebp]
  0019b	33 cd		 xor	 ecx, ebp
  0019d	5e		 pop	 esi
  0019e	e8 00 00 00 00	 call	 @__security_check_cookie@4
  001a3	c9		 leave
  001a4	c2 04 00	 ret	 4
??$SetTitle_e@$0M@@ioINILoader@@QAEXAAY0M@$$CBD@Z ENDP	; ioINILoader::SetTitle_e<12>
_TEXT	ENDS
PUBLIC	__$ArrayPad$
PUBLIC	??$LoadInt_e@$0BJ@@ioINILoader@@QAEHAAY0BJ@$$CBDH@Z ; ioINILoader::LoadInt_e<25>
EXTRN	__imp_?LoadInt@ioINILoader@@QAEHPBDH@Z:PROC
; Function compile flags: /Ogsp
;	COMDAT ??$LoadInt_e@$0BJ@@ioINILoader@@QAEHAAY0BJ@$$CBDH@Z
_TEXT	SEGMENT
__k$ = -36						; size = 25
__$ArrayPad$ = -4					; size = 4
_k$ = 8							; size = 4
_i$ = 12						; size = 4
??$LoadInt_e@$0BJ@@ioINILoader@@QAEHAAY0BJ@$$CBDH@Z PROC ; ioINILoader::LoadInt_e<25>, COMDAT
; _this$ = ecx

; 118  : 	{

  00000	55		 push	 ebp
  00001	8b ec		 mov	 ebp, esp
  00003	83 ec 24	 sub	 esp, 36			; 00000024H
  00006	a1 00 00 00 00	 mov	 eax, DWORD PTR ___security_cookie
  0000b	33 c5		 xor	 eax, ebp
  0000d	89 45 fc	 mov	 DWORD PTR __$ArrayPad$[ebp], eax
  00010	8b 45 08	 mov	 eax, DWORD PTR _k$[ebp]

; 119  : 		_ENCSTR(k, _k);

  00013	8a 10		 mov	 dl, BYTE PTR [eax]
  00015	53		 push	 ebx
  00016	56		 push	 esi
  00017	8b f1		 mov	 esi, ecx
  00019	84 d2		 test	 dl, dl
  0001b	0f 84 5f 02 00
	00		 je	 $LN96@LoadInt_e
  00021	80 f2 ed	 xor	 dl, -19			; ffffffedH
  00024	88 55 dc	 mov	 BYTE PTR __k$[ebp], dl
  00027	8a 50 01	 mov	 dl, BYTE PTR [eax+1]
  0002a	84 d2		 test	 dl, dl
  0002c	0f 84 48 02 00
	00		 je	 $LN95@LoadInt_e
  00032	b1 ec		 mov	 cl, -20			; ffffffecH
  00034	32 d1		 xor	 dl, cl
  00036	88 55 dd	 mov	 BYTE PTR __k$[ebp+1], dl
  00039	8a 50 02	 mov	 dl, BYTE PTR [eax+2]
  0003c	84 d2		 test	 dl, dl
  0003e	0f 84 30 02 00
	00		 je	 $LN94@LoadInt_e
  00044	b3 eb		 mov	 bl, -21			; ffffffebH
  00046	32 d3		 xor	 dl, bl
  00048	88 55 de	 mov	 BYTE PTR __k$[ebp+2], dl
  0004b	8a 50 03	 mov	 dl, BYTE PTR [eax+3]
  0004e	84 d2		 test	 dl, dl
  00050	0f 84 18 02 00
	00		 je	 $LN93@LoadInt_e
  00056	80 f2 ea	 xor	 dl, -22			; ffffffeaH
  00059	88 55 df	 mov	 BYTE PTR __k$[ebp+3], dl
  0005c	8a 50 04	 mov	 dl, BYTE PTR [eax+4]
  0005f	84 d2		 test	 dl, dl
  00061	0f 84 01 02 00
	00		 je	 $LN92@LoadInt_e
  00067	80 f2 ed	 xor	 dl, -19			; ffffffedH
  0006a	88 55 e0	 mov	 BYTE PTR __k$[ebp+4], dl
  0006d	8a 50 05	 mov	 dl, BYTE PTR [eax+5]
  00070	84 d2		 test	 dl, dl
  00072	0f 84 eb 01 00
	00		 je	 $LN91@LoadInt_e
  00078	32 d1		 xor	 dl, cl
  0007a	88 55 e1	 mov	 BYTE PTR __k$[ebp+5], dl
  0007d	8a 50 06	 mov	 dl, BYTE PTR [eax+6]
  00080	84 d2		 test	 dl, dl
  00082	0f 84 d6 01 00
	00		 je	 $LN90@LoadInt_e
  00088	32 d3		 xor	 dl, bl
  0008a	88 55 e2	 mov	 BYTE PTR __k$[ebp+6], dl
  0008d	8a 50 07	 mov	 dl, BYTE PTR [eax+7]
  00090	84 d2		 test	 dl, dl
  00092	0f 84 c0 01 00
	00		 je	 $LN89@LoadInt_e
  00098	80 f2 ea	 xor	 dl, -22			; ffffffeaH
  0009b	88 55 e3	 mov	 BYTE PTR __k$[ebp+7], dl
  0009e	8a 50 08	 mov	 dl, BYTE PTR [eax+8]
  000a1	84 d2		 test	 dl, dl
  000a3	0f 84 a9 01 00
	00		 je	 $LN88@LoadInt_e
  000a9	80 f2 ed	 xor	 dl, -19			; ffffffedH
  000ac	88 55 e4	 mov	 BYTE PTR __k$[ebp+8], dl
  000af	8a 50 09	 mov	 dl, BYTE PTR [eax+9]
  000b2	84 d2		 test	 dl, dl
  000b4	0f 84 93 01 00
	00		 je	 $LN87@LoadInt_e
  000ba	32 d1		 xor	 dl, cl
  000bc	88 55 e5	 mov	 BYTE PTR __k$[ebp+9], dl
  000bf	8a 50 0a	 mov	 dl, BYTE PTR [eax+10]
  000c2	84 d2		 test	 dl, dl
  000c4	0f 84 7e 01 00
	00		 je	 $LN86@LoadInt_e
  000ca	32 d3		 xor	 dl, bl
  000cc	88 55 e6	 mov	 BYTE PTR __k$[ebp+10], dl
  000cf	8a 50 0b	 mov	 dl, BYTE PTR [eax+11]
  000d2	84 d2		 test	 dl, dl
  000d4	0f 84 68 01 00
	00		 je	 $LN85@LoadInt_e
  000da	80 f2 ea	 xor	 dl, -22			; ffffffeaH
  000dd	88 55 e7	 mov	 BYTE PTR __k$[ebp+11], dl
  000e0	8a 50 0c	 mov	 dl, BYTE PTR [eax+12]
  000e3	84 d2		 test	 dl, dl
  000e5	0f 84 51 01 00
	00		 je	 $LN84@LoadInt_e
  000eb	80 f2 ed	 xor	 dl, -19			; ffffffedH
  000ee	88 55 e8	 mov	 BYTE PTR __k$[ebp+12], dl
  000f1	8a 50 0d	 mov	 dl, BYTE PTR [eax+13]
  000f4	84 d2		 test	 dl, dl
  000f6	0f 84 3b 01 00
	00		 je	 $LN83@LoadInt_e
  000fc	32 d1		 xor	 dl, cl
  000fe	88 55 e9	 mov	 BYTE PTR __k$[ebp+13], dl
  00101	8a 50 0e	 mov	 dl, BYTE PTR [eax+14]
  00104	84 d2		 test	 dl, dl
  00106	0f 84 26 01 00
	00		 je	 $LN82@LoadInt_e
  0010c	32 d3		 xor	 dl, bl
  0010e	88 55 ea	 mov	 BYTE PTR __k$[ebp+14], dl
  00111	8a 50 0f	 mov	 dl, BYTE PTR [eax+15]
  00114	84 d2		 test	 dl, dl
  00116	0f 84 10 01 00
	00		 je	 $LN81@LoadInt_e
  0011c	80 f2 ea	 xor	 dl, -22			; ffffffeaH
  0011f	88 55 eb	 mov	 BYTE PTR __k$[ebp+15], dl
  00122	8a 50 10	 mov	 dl, BYTE PTR [eax+16]
  00125	84 d2		 test	 dl, dl
  00127	0f 84 f9 00 00
	00		 je	 $LN80@LoadInt_e
  0012d	80 f2 ed	 xor	 dl, -19			; ffffffedH
  00130	88 55 ec	 mov	 BYTE PTR __k$[ebp+16], dl
  00133	8a 50 11	 mov	 dl, BYTE PTR [eax+17]
  00136	84 d2		 test	 dl, dl
  00138	0f 84 e3 00 00
	00		 je	 $LN79@LoadInt_e
  0013e	32 d1		 xor	 dl, cl
  00140	88 55 ed	 mov	 BYTE PTR __k$[ebp+17], dl
  00143	8a 50 12	 mov	 dl, BYTE PTR [eax+18]
  00146	84 d2		 test	 dl, dl
  00148	0f 84 ce 00 00
	00		 je	 $LN78@LoadInt_e
  0014e	32 d3		 xor	 dl, bl
  00150	88 55 ee	 mov	 BYTE PTR __k$[ebp+18], dl
  00153	8a 50 13	 mov	 dl, BYTE PTR [eax+19]
  00156	84 d2		 test	 dl, dl
  00158	0f 84 b8 00 00
	00		 je	 $LN77@LoadInt_e
  0015e	80 f2 ea	 xor	 dl, -22			; ffffffeaH
  00161	88 55 ef	 mov	 BYTE PTR __k$[ebp+19], dl
  00164	8a 50 14	 mov	 dl, BYTE PTR [eax+20]
  00167	84 d2		 test	 dl, dl
  00169	0f 84 a1 00 00
	00		 je	 $LN76@LoadInt_e
  0016f	80 f2 ed	 xor	 dl, -19			; ffffffedH
  00172	88 55 f0	 mov	 BYTE PTR __k$[ebp+20], dl
  00175	8a 50 15	 mov	 dl, BYTE PTR [eax+21]
  00178	84 d2		 test	 dl, dl
  0017a	0f 84 8b 00 00
	00		 je	 $LN75@LoadInt_e
  00180	32 d1		 xor	 dl, cl
  00182	88 55 f1	 mov	 BYTE PTR __k$[ebp+21], dl
  00185	8a 50 16	 mov	 dl, BYTE PTR [eax+22]
  00188	84 d2		 test	 dl, dl
  0018a	74 7a		 je	 SHORT $LN74@LoadInt_e
  0018c	32 d3		 xor	 dl, bl
  0018e	88 55 f2	 mov	 BYTE PTR __k$[ebp+22], dl
  00191	8a 50 17	 mov	 dl, BYTE PTR [eax+23]
  00194	84 d2		 test	 dl, dl
  00196	74 68		 je	 SHORT $LN73@LoadInt_e
  00198	80 f2 ea	 xor	 dl, -22			; ffffffeaH
  0019b	80 78 18 00	 cmp	 BYTE PTR [eax+24], 0
  0019f	88 55 f3	 mov	 BYTE PTR __k$[ebp+23], dl
  001a2	0f 84 dc 00 00
	00		 je	 $LN1@LoadInt_e
  001a8	8a 50 19	 mov	 dl, BYTE PTR [eax+25]
  001ab	84 d2		 test	 dl, dl
  001ad	74 49		 je	 SHORT $LN71@LoadInt_e
  001af	32 d1		 xor	 dl, cl
  001b1	88 55 f5	 mov	 BYTE PTR __k$[ebp+25], dl
  001b4	8a 50 1a	 mov	 dl, BYTE PTR [eax+26]
  001b7	84 d2		 test	 dl, dl
  001b9	74 35		 je	 SHORT $LN70@LoadInt_e
  001bb	32 d3		 xor	 dl, bl
  001bd	88 55 f6	 mov	 BYTE PTR __k$[ebp+26], dl
  001c0	8a 50 1b	 mov	 dl, BYTE PTR [eax+27]
  001c3	84 d2		 test	 dl, dl
  001c5	74 20		 je	 SHORT $LN69@LoadInt_e
  001c7	8a 40 1c	 mov	 al, BYTE PTR [eax+28]
  001ca	80 f2 ea	 xor	 dl, -22			; ffffffeaH
  001cd	88 55 f7	 mov	 BYTE PTR __k$[ebp+27], dl
  001d0	84 c0		 test	 al, al
  001d2	74 0a		 je	 SHORT $LN68@LoadInt_e
  001d4	34 ed		 xor	 al, -19			; ffffffedH
  001d6	88 45 f8	 mov	 BYTE PTR __k$[ebp+28], al
  001d9	e9 a6 00 00 00	 jmp	 $LN1@LoadInt_e
$LN68@LoadInt_e:
  001de	c6 45 f8 ed	 mov	 BYTE PTR __k$[ebp+28], -19 ; ffffffedH
  001e2	e9 9d 00 00 00	 jmp	 $LN1@LoadInt_e
$LN69@LoadInt_e:
  001e7	c6 45 f7 ea	 mov	 BYTE PTR __k$[ebp+27], -22 ; ffffffeaH
  001eb	e9 94 00 00 00	 jmp	 $LN1@LoadInt_e
$LN70@LoadInt_e:
  001f0	88 5d f6	 mov	 BYTE PTR __k$[ebp+26], bl
  001f3	e9 8c 00 00 00	 jmp	 $LN1@LoadInt_e
$LN71@LoadInt_e:
  001f8	88 4d f5	 mov	 BYTE PTR __k$[ebp+25], cl
  001fb	e9 84 00 00 00	 jmp	 $LN1@LoadInt_e
$LN73@LoadInt_e:
  00200	c6 45 f3 ea	 mov	 BYTE PTR __k$[ebp+23], -22 ; ffffffeaH
  00204	eb 7e		 jmp	 SHORT $LN1@LoadInt_e
$LN74@LoadInt_e:
  00206	88 5d f2	 mov	 BYTE PTR __k$[ebp+22], bl
  00209	eb 79		 jmp	 SHORT $LN1@LoadInt_e
$LN75@LoadInt_e:
  0020b	88 4d f1	 mov	 BYTE PTR __k$[ebp+21], cl
  0020e	eb 74		 jmp	 SHORT $LN1@LoadInt_e
$LN76@LoadInt_e:
  00210	c6 45 f0 ed	 mov	 BYTE PTR __k$[ebp+20], -19 ; ffffffedH
  00214	eb 6e		 jmp	 SHORT $LN1@LoadInt_e
$LN77@LoadInt_e:
  00216	c6 45 ef ea	 mov	 BYTE PTR __k$[ebp+19], -22 ; ffffffeaH
  0021a	eb 68		 jmp	 SHORT $LN1@LoadInt_e
$LN78@LoadInt_e:
  0021c	88 5d ee	 mov	 BYTE PTR __k$[ebp+18], bl
  0021f	eb 63		 jmp	 SHORT $LN1@LoadInt_e
$LN79@LoadInt_e:
  00221	88 4d ed	 mov	 BYTE PTR __k$[ebp+17], cl
  00224	eb 5e		 jmp	 SHORT $LN1@LoadInt_e
$LN80@LoadInt_e:
  00226	c6 45 ec ed	 mov	 BYTE PTR __k$[ebp+16], -19 ; ffffffedH
  0022a	eb 58		 jmp	 SHORT $LN1@LoadInt_e
$LN81@LoadInt_e:
  0022c	c6 45 eb ea	 mov	 BYTE PTR __k$[ebp+15], -22 ; ffffffeaH
  00230	eb 52		 jmp	 SHORT $LN1@LoadInt_e
$LN82@LoadInt_e:
  00232	88 5d ea	 mov	 BYTE PTR __k$[ebp+14], bl
  00235	eb 4d		 jmp	 SHORT $LN1@LoadInt_e
$LN83@LoadInt_e:
  00237	88 4d e9	 mov	 BYTE PTR __k$[ebp+13], cl
  0023a	eb 48		 jmp	 SHORT $LN1@LoadInt_e
$LN84@LoadInt_e:
  0023c	c6 45 e8 ed	 mov	 BYTE PTR __k$[ebp+12], -19 ; ffffffedH
  00240	eb 42		 jmp	 SHORT $LN1@LoadInt_e
$LN85@LoadInt_e:
  00242	c6 45 e7 ea	 mov	 BYTE PTR __k$[ebp+11], -22 ; ffffffeaH
  00246	eb 3c		 jmp	 SHORT $LN1@LoadInt_e
$LN86@LoadInt_e:
  00248	88 5d e6	 mov	 BYTE PTR __k$[ebp+10], bl
  0024b	eb 37		 jmp	 SHORT $LN1@LoadInt_e
$LN87@LoadInt_e:
  0024d	88 4d e5	 mov	 BYTE PTR __k$[ebp+9], cl
  00250	eb 32		 jmp	 SHORT $LN1@LoadInt_e
$LN88@LoadInt_e:
  00252	c6 45 e4 ed	 mov	 BYTE PTR __k$[ebp+8], -19 ; ffffffedH
  00256	eb 2c		 jmp	 SHORT $LN1@LoadInt_e
$LN89@LoadInt_e:
  00258	c6 45 e3 ea	 mov	 BYTE PTR __k$[ebp+7], -22 ; ffffffeaH
  0025c	eb 26		 jmp	 SHORT $LN1@LoadInt_e
$LN90@LoadInt_e:
  0025e	88 5d e2	 mov	 BYTE PTR __k$[ebp+6], bl
  00261	eb 21		 jmp	 SHORT $LN1@LoadInt_e
$LN91@LoadInt_e:
  00263	88 4d e1	 mov	 BYTE PTR __k$[ebp+5], cl
  00266	eb 1c		 jmp	 SHORT $LN1@LoadInt_e
$LN92@LoadInt_e:
  00268	c6 45 e0 ed	 mov	 BYTE PTR __k$[ebp+4], -19 ; ffffffedH
  0026c	eb 16		 jmp	 SHORT $LN1@LoadInt_e
$LN93@LoadInt_e:
  0026e	c6 45 df ea	 mov	 BYTE PTR __k$[ebp+3], -22 ; ffffffeaH
  00272	eb 10		 jmp	 SHORT $LN1@LoadInt_e
$LN94@LoadInt_e:
  00274	c6 45 de eb	 mov	 BYTE PTR __k$[ebp+2], -21 ; ffffffebH
  00278	eb 0a		 jmp	 SHORT $LN1@LoadInt_e
$LN95@LoadInt_e:
  0027a	c6 45 dd ec	 mov	 BYTE PTR __k$[ebp+1], -20 ; ffffffecH
  0027e	eb 04		 jmp	 SHORT $LN1@LoadInt_e
$LN96@LoadInt_e:
  00280	c6 45 dc ed	 mov	 BYTE PTR __k$[ebp], -19	; ffffffedH
$LN1@LoadInt_e:
  00284	6a 06		 push	 6
  00286	8d 45 dc	 lea	 eax, DWORD PTR __k$[ebp]
  00289	c6 45 f4 00	 mov	 BYTE PTR __k$[ebp+24], 0
  0028d	5a		 pop	 edx
$LL104@LoadInt_e:
  0028e	81 30 ed ec eb
	ea		 xor	 DWORD PTR [eax], -353637139 ; eaebecedH
  00294	83 c0 04	 add	 eax, 4
  00297	4a		 dec	 edx
  00298	75 f4		 jne	 SHORT $LL104@LoadInt_e

; 120  : 		return LoadInt(_k, i);

  0029a	ff 75 0c	 push	 DWORD PTR _i$[ebp]
  0029d	8d 45 dc	 lea	 eax, DWORD PTR __k$[ebp]
  002a0	50		 push	 eax
  002a1	8b ce		 mov	 ecx, esi
  002a3	ff 15 00 00 00
	00		 call	 DWORD PTR __imp_?LoadInt@ioINILoader@@QAEHPBDH@Z

; 121  : 	}

  002a9	8b 4d fc	 mov	 ecx, DWORD PTR __$ArrayPad$[ebp]
  002ac	5e		 pop	 esi
  002ad	33 cd		 xor	 ecx, ebp
  002af	5b		 pop	 ebx
  002b0	e8 00 00 00 00	 call	 @__security_check_cookie@4
  002b5	c9		 leave
  002b6	c2 08 00	 ret	 8
??$LoadInt_e@$0BJ@@ioINILoader@@QAEHAAY0BJ@$$CBDH@Z ENDP ; ioINILoader::LoadInt_e<25>
_TEXT	ENDS
PUBLIC	__$ArrayPad$
PUBLIC	??$LoadInt_e@$0BG@@ioINILoader@@QAEHAAY0BG@$$CBDH@Z ; ioINILoader::LoadInt_e<22>
; Function compile flags: /Ogsp
;	COMDAT ??$LoadInt_e@$0BG@@ioINILoader@@QAEHAAY0BG@$$CBDH@Z
_TEXT	SEGMENT
__k$ = -32						; size = 22
__$ArrayPad$ = -4					; size = 4
_k$ = 8							; size = 4
_i$ = 12						; size = 4
??$LoadInt_e@$0BG@@ioINILoader@@QAEHAAY0BG@$$CBDH@Z PROC ; ioINILoader::LoadInt_e<22>, COMDAT
; _this$ = ecx

; 118  : 	{

  00000	55		 push	 ebp
  00001	8b ec		 mov	 ebp, esp
  00003	83 ec 20	 sub	 esp, 32			; 00000020H
  00006	a1 00 00 00 00	 mov	 eax, DWORD PTR ___security_cookie
  0000b	33 c5		 xor	 eax, ebp
  0000d	89 45 fc	 mov	 DWORD PTR __$ArrayPad$[ebp], eax
  00010	8b 45 08	 mov	 eax, DWORD PTR _k$[ebp]

; 119  : 		_ENCSTR(k, _k);

  00013	8a 10		 mov	 dl, BYTE PTR [eax]
  00015	53		 push	 ebx
  00016	56		 push	 esi
  00017	8b f1		 mov	 esi, ecx
  00019	84 d2		 test	 dl, dl
  0001b	0f 84 15 02 00
	00		 je	 $LN96@LoadInt_e@2
  00021	80 f2 ed	 xor	 dl, -19			; ffffffedH
  00024	88 55 e0	 mov	 BYTE PTR __k$[ebp], dl
  00027	8a 50 01	 mov	 dl, BYTE PTR [eax+1]
  0002a	84 d2		 test	 dl, dl
  0002c	0f 84 fe 01 00
	00		 je	 $LN95@LoadInt_e@2
  00032	80 f2 ec	 xor	 dl, -20			; ffffffecH
  00035	88 55 e1	 mov	 BYTE PTR __k$[ebp+1], dl
  00038	8a 50 02	 mov	 dl, BYTE PTR [eax+2]
  0003b	84 d2		 test	 dl, dl
  0003d	0f 84 e7 01 00
	00		 je	 $LN94@LoadInt_e@2
  00043	b1 eb		 mov	 cl, -21			; ffffffebH
  00045	32 d1		 xor	 dl, cl
  00047	88 55 e2	 mov	 BYTE PTR __k$[ebp+2], dl
  0004a	8a 50 03	 mov	 dl, BYTE PTR [eax+3]
  0004d	84 d2		 test	 dl, dl
  0004f	0f 84 cf 01 00
	00		 je	 $LN93@LoadInt_e@2
  00055	b3 ea		 mov	 bl, -22			; ffffffeaH
  00057	32 d3		 xor	 dl, bl
  00059	88 55 e3	 mov	 BYTE PTR __k$[ebp+3], dl
  0005c	8a 50 04	 mov	 dl, BYTE PTR [eax+4]
  0005f	84 d2		 test	 dl, dl
  00061	0f 84 b7 01 00
	00		 je	 $LN92@LoadInt_e@2
  00067	80 f2 ed	 xor	 dl, -19			; ffffffedH
  0006a	88 55 e4	 mov	 BYTE PTR __k$[ebp+4], dl
  0006d	8a 50 05	 mov	 dl, BYTE PTR [eax+5]
  00070	84 d2		 test	 dl, dl
  00072	0f 84 a0 01 00
	00		 je	 $LN91@LoadInt_e@2
  00078	80 f2 ec	 xor	 dl, -20			; ffffffecH
  0007b	88 55 e5	 mov	 BYTE PTR __k$[ebp+5], dl
  0007e	8a 50 06	 mov	 dl, BYTE PTR [eax+6]
  00081	84 d2		 test	 dl, dl
  00083	0f 84 8a 01 00
	00		 je	 $LN90@LoadInt_e@2
  00089	32 d1		 xor	 dl, cl
  0008b	88 55 e6	 mov	 BYTE PTR __k$[ebp+6], dl
  0008e	8a 50 07	 mov	 dl, BYTE PTR [eax+7]
  00091	84 d2		 test	 dl, dl
  00093	0f 84 75 01 00
	00		 je	 $LN89@LoadInt_e@2
  00099	32 d3		 xor	 dl, bl
  0009b	88 55 e7	 mov	 BYTE PTR __k$[ebp+7], dl
  0009e	8a 50 08	 mov	 dl, BYTE PTR [eax+8]
  000a1	84 d2		 test	 dl, dl
  000a3	0f 84 5f 01 00
	00		 je	 $LN88@LoadInt_e@2
  000a9	80 f2 ed	 xor	 dl, -19			; ffffffedH
  000ac	88 55 e8	 mov	 BYTE PTR __k$[ebp+8], dl
  000af	8a 50 09	 mov	 dl, BYTE PTR [eax+9]
  000b2	84 d2		 test	 dl, dl
  000b4	0f 84 48 01 00
	00		 je	 $LN87@LoadInt_e@2
  000ba	80 f2 ec	 xor	 dl, -20			; ffffffecH
  000bd	88 55 e9	 mov	 BYTE PTR __k$[ebp+9], dl
  000c0	8a 50 0a	 mov	 dl, BYTE PTR [eax+10]
  000c3	84 d2		 test	 dl, dl
  000c5	0f 84 32 01 00
	00		 je	 $LN86@LoadInt_e@2
  000cb	32 d1		 xor	 dl, cl
  000cd	88 55 ea	 mov	 BYTE PTR __k$[ebp+10], dl
  000d0	8a 50 0b	 mov	 dl, BYTE PTR [eax+11]
  000d3	84 d2		 test	 dl, dl
  000d5	0f 84 1d 01 00
	00		 je	 $LN85@LoadInt_e@2
  000db	32 d3		 xor	 dl, bl
  000dd	88 55 eb	 mov	 BYTE PTR __k$[ebp+11], dl
  000e0	8a 50 0c	 mov	 dl, BYTE PTR [eax+12]
  000e3	84 d2		 test	 dl, dl
  000e5	0f 84 07 01 00
	00		 je	 $LN84@LoadInt_e@2
  000eb	80 f2 ed	 xor	 dl, -19			; ffffffedH
  000ee	88 55 ec	 mov	 BYTE PTR __k$[ebp+12], dl
  000f1	8a 50 0d	 mov	 dl, BYTE PTR [eax+13]
  000f4	84 d2		 test	 dl, dl
  000f6	0f 84 f0 00 00
	00		 je	 $LN83@LoadInt_e@2
  000fc	80 f2 ec	 xor	 dl, -20			; ffffffecH
  000ff	88 55 ed	 mov	 BYTE PTR __k$[ebp+13], dl
  00102	8a 50 0e	 mov	 dl, BYTE PTR [eax+14]
  00105	84 d2		 test	 dl, dl
  00107	0f 84 da 00 00
	00		 je	 $LN82@LoadInt_e@2
  0010d	32 d1		 xor	 dl, cl
  0010f	88 55 ee	 mov	 BYTE PTR __k$[ebp+14], dl
  00112	8a 50 0f	 mov	 dl, BYTE PTR [eax+15]
  00115	84 d2		 test	 dl, dl
  00117	0f 84 c5 00 00
	00		 je	 $LN81@LoadInt_e@2
  0011d	32 d3		 xor	 dl, bl
  0011f	88 55 ef	 mov	 BYTE PTR __k$[ebp+15], dl
  00122	8a 50 10	 mov	 dl, BYTE PTR [eax+16]
  00125	84 d2		 test	 dl, dl
  00127	0f 84 af 00 00
	00		 je	 $LN80@LoadInt_e@2
  0012d	80 f2 ed	 xor	 dl, -19			; ffffffedH
  00130	88 55 f0	 mov	 BYTE PTR __k$[ebp+16], dl
  00133	8a 50 11	 mov	 dl, BYTE PTR [eax+17]
  00136	84 d2		 test	 dl, dl
  00138	0f 84 98 00 00
	00		 je	 $LN79@LoadInt_e@2
  0013e	80 f2 ec	 xor	 dl, -20			; ffffffecH
  00141	88 55 f1	 mov	 BYTE PTR __k$[ebp+17], dl
  00144	8a 50 12	 mov	 dl, BYTE PTR [eax+18]
  00147	84 d2		 test	 dl, dl
  00149	0f 84 82 00 00
	00		 je	 $LN78@LoadInt_e@2
  0014f	32 d1		 xor	 dl, cl
  00151	88 55 f2	 mov	 BYTE PTR __k$[ebp+18], dl
  00154	8a 50 13	 mov	 dl, BYTE PTR [eax+19]
  00157	84 d2		 test	 dl, dl
  00159	74 71		 je	 SHORT $LN77@LoadInt_e@2
  0015b	32 d3		 xor	 dl, bl
  0015d	88 55 f3	 mov	 BYTE PTR __k$[ebp+19], dl
  00160	8a 50 14	 mov	 dl, BYTE PTR [eax+20]
  00163	84 d2		 test	 dl, dl
  00165	74 5f		 je	 SHORT $LN76@LoadInt_e@2
  00167	80 f2 ed	 xor	 dl, -19			; ffffffedH
  0016a	80 78 15 00	 cmp	 BYTE PTR [eax+21], 0
  0016e	88 55 f4	 mov	 BYTE PTR __k$[ebp+20], dl
  00171	0f 84 c3 00 00
	00		 je	 $LN1@LoadInt_e@2
  00177	8a 50 16	 mov	 dl, BYTE PTR [eax+22]
  0017a	84 d2		 test	 dl, dl
  0017c	74 43		 je	 SHORT $LN74@LoadInt_e@2
  0017e	32 d1		 xor	 dl, cl
  00180	88 55 f6	 mov	 BYTE PTR __k$[ebp+22], dl
  00183	8a 50 17	 mov	 dl, BYTE PTR [eax+23]
  00186	84 d2		 test	 dl, dl
  00188	74 32		 je	 SHORT $LN73@LoadInt_e@2
  0018a	32 d3		 xor	 dl, bl
  0018c	88 55 f7	 mov	 BYTE PTR __k$[ebp+23], dl
  0018f	8a 50 18	 mov	 dl, BYTE PTR [eax+24]
  00192	84 d2		 test	 dl, dl
  00194	74 20		 je	 SHORT $LN72@LoadInt_e@2
  00196	8a 40 19	 mov	 al, BYTE PTR [eax+25]
  00199	80 f2 ed	 xor	 dl, -19			; ffffffedH
  0019c	88 55 f8	 mov	 BYTE PTR __k$[ebp+24], dl
  0019f	84 c0		 test	 al, al
  001a1	74 0a		 je	 SHORT $LN71@LoadInt_e@2
  001a3	34 ec		 xor	 al, -20			; ffffffecH
  001a5	88 45 f9	 mov	 BYTE PTR __k$[ebp+25], al
  001a8	e9 8d 00 00 00	 jmp	 $LN1@LoadInt_e@2
$LN71@LoadInt_e@2:
  001ad	c6 45 f9 ec	 mov	 BYTE PTR __k$[ebp+25], -20 ; ffffffecH
  001b1	e9 84 00 00 00	 jmp	 $LN1@LoadInt_e@2
$LN72@LoadInt_e@2:
  001b6	c6 45 f8 ed	 mov	 BYTE PTR __k$[ebp+24], -19 ; ffffffedH
  001ba	eb 7e		 jmp	 SHORT $LN1@LoadInt_e@2
$LN73@LoadInt_e@2:
  001bc	88 5d f7	 mov	 BYTE PTR __k$[ebp+23], bl
  001bf	eb 79		 jmp	 SHORT $LN1@LoadInt_e@2
$LN74@LoadInt_e@2:
  001c1	88 4d f6	 mov	 BYTE PTR __k$[ebp+22], cl
  001c4	eb 74		 jmp	 SHORT $LN1@LoadInt_e@2
$LN76@LoadInt_e@2:
  001c6	c6 45 f4 ed	 mov	 BYTE PTR __k$[ebp+20], -19 ; ffffffedH
  001ca	eb 6e		 jmp	 SHORT $LN1@LoadInt_e@2
$LN77@LoadInt_e@2:
  001cc	88 5d f3	 mov	 BYTE PTR __k$[ebp+19], bl
  001cf	eb 69		 jmp	 SHORT $LN1@LoadInt_e@2
$LN78@LoadInt_e@2:
  001d1	88 4d f2	 mov	 BYTE PTR __k$[ebp+18], cl
  001d4	eb 64		 jmp	 SHORT $LN1@LoadInt_e@2
$LN79@LoadInt_e@2:
  001d6	c6 45 f1 ec	 mov	 BYTE PTR __k$[ebp+17], -20 ; ffffffecH
  001da	eb 5e		 jmp	 SHORT $LN1@LoadInt_e@2
$LN80@LoadInt_e@2:
  001dc	c6 45 f0 ed	 mov	 BYTE PTR __k$[ebp+16], -19 ; ffffffedH
  001e0	eb 58		 jmp	 SHORT $LN1@LoadInt_e@2
$LN81@LoadInt_e@2:
  001e2	88 5d ef	 mov	 BYTE PTR __k$[ebp+15], bl
  001e5	eb 53		 jmp	 SHORT $LN1@LoadInt_e@2
$LN82@LoadInt_e@2:
  001e7	88 4d ee	 mov	 BYTE PTR __k$[ebp+14], cl
  001ea	eb 4e		 jmp	 SHORT $LN1@LoadInt_e@2
$LN83@LoadInt_e@2:
  001ec	c6 45 ed ec	 mov	 BYTE PTR __k$[ebp+13], -20 ; ffffffecH
  001f0	eb 48		 jmp	 SHORT $LN1@LoadInt_e@2
$LN84@LoadInt_e@2:
  001f2	c6 45 ec ed	 mov	 BYTE PTR __k$[ebp+12], -19 ; ffffffedH
  001f6	eb 42		 jmp	 SHORT $LN1@LoadInt_e@2
$LN85@LoadInt_e@2:
  001f8	88 5d eb	 mov	 BYTE PTR __k$[ebp+11], bl
  001fb	eb 3d		 jmp	 SHORT $LN1@LoadInt_e@2
$LN86@LoadInt_e@2:
  001fd	88 4d ea	 mov	 BYTE PTR __k$[ebp+10], cl
  00200	eb 38		 jmp	 SHORT $LN1@LoadInt_e@2
$LN87@LoadInt_e@2:
  00202	c6 45 e9 ec	 mov	 BYTE PTR __k$[ebp+9], -20 ; ffffffecH
  00206	eb 32		 jmp	 SHORT $LN1@LoadInt_e@2
$LN88@LoadInt_e@2:
  00208	c6 45 e8 ed	 mov	 BYTE PTR __k$[ebp+8], -19 ; ffffffedH
  0020c	eb 2c		 jmp	 SHORT $LN1@LoadInt_e@2
$LN89@LoadInt_e@2:
  0020e	88 5d e7	 mov	 BYTE PTR __k$[ebp+7], bl
  00211	eb 27		 jmp	 SHORT $LN1@LoadInt_e@2
$LN90@LoadInt_e@2:
  00213	88 4d e6	 mov	 BYTE PTR __k$[ebp+6], cl
  00216	eb 22		 jmp	 SHORT $LN1@LoadInt_e@2
$LN91@LoadInt_e@2:
  00218	c6 45 e5 ec	 mov	 BYTE PTR __k$[ebp+5], -20 ; ffffffecH
  0021c	eb 1c		 jmp	 SHORT $LN1@LoadInt_e@2
$LN92@LoadInt_e@2:
  0021e	c6 45 e4 ed	 mov	 BYTE PTR __k$[ebp+4], -19 ; ffffffedH
  00222	eb 16		 jmp	 SHORT $LN1@LoadInt_e@2
$LN93@LoadInt_e@2:
  00224	c6 45 e3 ea	 mov	 BYTE PTR __k$[ebp+3], -22 ; ffffffeaH
  00228	eb 10		 jmp	 SHORT $LN1@LoadInt_e@2
$LN94@LoadInt_e@2:
  0022a	c6 45 e2 eb	 mov	 BYTE PTR __k$[ebp+2], -21 ; ffffffebH
  0022e	eb 0a		 jmp	 SHORT $LN1@LoadInt_e@2
$LN95@LoadInt_e@2:
  00230	c6 45 e1 ec	 mov	 BYTE PTR __k$[ebp+1], -20 ; ffffffecH
  00234	eb 04		 jmp	 SHORT $LN1@LoadInt_e@2
$LN96@LoadInt_e@2:
  00236	c6 45 e0 ed	 mov	 BYTE PTR __k$[ebp], -19	; ffffffedH
$LN1@LoadInt_e@2:
  0023a	6a 05		 push	 5
  0023c	8d 45 e0	 lea	 eax, DWORD PTR __k$[ebp]
  0023f	c6 45 f5 00	 mov	 BYTE PTR __k$[ebp+21], 0
  00243	5a		 pop	 edx
$LL104@LoadInt_e@2:
  00244	81 30 ed ec eb
	ea		 xor	 DWORD PTR [eax], -353637139 ; eaebecedH
  0024a	83 c0 04	 add	 eax, 4
  0024d	4a		 dec	 edx
  0024e	75 f4		 jne	 SHORT $LL104@LoadInt_e@2

; 120  : 		return LoadInt(_k, i);

  00250	ff 75 0c	 push	 DWORD PTR _i$[ebp]
  00253	80 75 f4 ed	 xor	 BYTE PTR __k$[ebp+20], -19 ; ffffffedH
  00257	8d 45 e0	 lea	 eax, DWORD PTR __k$[ebp]
  0025a	50		 push	 eax
  0025b	8b ce		 mov	 ecx, esi
  0025d	ff 15 00 00 00
	00		 call	 DWORD PTR __imp_?LoadInt@ioINILoader@@QAEHPBDH@Z

; 121  : 	}

  00263	8b 4d fc	 mov	 ecx, DWORD PTR __$ArrayPad$[ebp]
  00266	5e		 pop	 esi
  00267	33 cd		 xor	 ecx, ebp
  00269	5b		 pop	 ebx
  0026a	e8 00 00 00 00	 call	 @__security_check_cookie@4
  0026f	c9		 leave
  00270	c2 08 00	 ret	 8
??$LoadInt_e@$0BG@@ioINILoader@@QAEHAAY0BG@$$CBDH@Z ENDP ; ioINILoader::LoadInt_e<22>
_TEXT	ENDS
PUBLIC	__$ArrayPad$
PUBLIC	??$LoadInt_e@$0BA@@ioINILoader@@QAEHAAY0BA@$$CBDH@Z ; ioINILoader::LoadInt_e<16>
; Function compile flags: /Ogsp
;	COMDAT ??$LoadInt_e@$0BA@@ioINILoader@@QAEHAAY0BA@$$CBDH@Z
_TEXT	SEGMENT
__k$ = -24						; size = 16
__$ArrayPad$ = -4					; size = 4
_k$ = 8							; size = 4
_i$ = 12						; size = 4
??$LoadInt_e@$0BA@@ioINILoader@@QAEHAAY0BA@$$CBDH@Z PROC ; ioINILoader::LoadInt_e<16>, COMDAT
; _this$ = ecx

; 118  : 	{

  00000	55		 push	 ebp
  00001	8b ec		 mov	 ebp, esp
  00003	83 ec 18	 sub	 esp, 24			; 00000018H
  00006	a1 00 00 00 00	 mov	 eax, DWORD PTR ___security_cookie
  0000b	33 c5		 xor	 eax, ebp
  0000d	89 45 fc	 mov	 DWORD PTR __$ArrayPad$[ebp], eax
  00010	8b 45 08	 mov	 eax, DWORD PTR _k$[ebp]

; 119  : 		_ENCSTR(k, _k);

  00013	8a 10		 mov	 dl, BYTE PTR [eax]
  00015	56		 push	 esi
  00016	8b f1		 mov	 esi, ecx
  00018	84 d2		 test	 dl, dl
  0001a	0f 84 8c 01 00
	00		 je	 $LN96@LoadInt_e@3
  00020	80 f2 ed	 xor	 dl, -19			; ffffffedH
  00023	88 55 e8	 mov	 BYTE PTR __k$[ebp], dl
  00026	8a 50 01	 mov	 dl, BYTE PTR [eax+1]
  00029	84 d2		 test	 dl, dl
  0002b	0f 84 75 01 00
	00		 je	 $LN95@LoadInt_e@3
  00031	80 f2 ec	 xor	 dl, -20			; ffffffecH
  00034	88 55 e9	 mov	 BYTE PTR __k$[ebp+1], dl
  00037	8a 50 02	 mov	 dl, BYTE PTR [eax+2]
  0003a	84 d2		 test	 dl, dl
  0003c	0f 84 5e 01 00
	00		 je	 $LN94@LoadInt_e@3
  00042	b1 eb		 mov	 cl, -21			; ffffffebH
  00044	32 d1		 xor	 dl, cl
  00046	88 55 ea	 mov	 BYTE PTR __k$[ebp+2], dl
  00049	8a 50 03	 mov	 dl, BYTE PTR [eax+3]
  0004c	84 d2		 test	 dl, dl
  0004e	0f 84 46 01 00
	00		 je	 $LN93@LoadInt_e@3
  00054	80 f2 ea	 xor	 dl, -22			; ffffffeaH
  00057	88 55 eb	 mov	 BYTE PTR __k$[ebp+3], dl
  0005a	8a 50 04	 mov	 dl, BYTE PTR [eax+4]
  0005d	84 d2		 test	 dl, dl
  0005f	0f 84 2f 01 00
	00		 je	 $LN92@LoadInt_e@3
  00065	80 f2 ed	 xor	 dl, -19			; ffffffedH
  00068	88 55 ec	 mov	 BYTE PTR __k$[ebp+4], dl
  0006b	8a 50 05	 mov	 dl, BYTE PTR [eax+5]
  0006e	84 d2		 test	 dl, dl
  00070	0f 84 18 01 00
	00		 je	 $LN91@LoadInt_e@3
  00076	80 f2 ec	 xor	 dl, -20			; ffffffecH
  00079	88 55 ed	 mov	 BYTE PTR __k$[ebp+5], dl
  0007c	8a 50 06	 mov	 dl, BYTE PTR [eax+6]
  0007f	84 d2		 test	 dl, dl
  00081	0f 84 02 01 00
	00		 je	 $LN90@LoadInt_e@3
  00087	32 d1		 xor	 dl, cl
  00089	88 55 ee	 mov	 BYTE PTR __k$[ebp+6], dl
  0008c	8a 50 07	 mov	 dl, BYTE PTR [eax+7]
  0008f	84 d2		 test	 dl, dl
  00091	0f 84 ec 00 00
	00		 je	 $LN89@LoadInt_e@3
  00097	80 f2 ea	 xor	 dl, -22			; ffffffeaH
  0009a	88 55 ef	 mov	 BYTE PTR __k$[ebp+7], dl
  0009d	8a 50 08	 mov	 dl, BYTE PTR [eax+8]
  000a0	84 d2		 test	 dl, dl
  000a2	0f 84 d5 00 00
	00		 je	 $LN88@LoadInt_e@3
  000a8	80 f2 ed	 xor	 dl, -19			; ffffffedH
  000ab	88 55 f0	 mov	 BYTE PTR __k$[ebp+8], dl
  000ae	8a 50 09	 mov	 dl, BYTE PTR [eax+9]
  000b1	84 d2		 test	 dl, dl
  000b3	0f 84 be 00 00
	00		 je	 $LN87@LoadInt_e@3
  000b9	80 f2 ec	 xor	 dl, -20			; ffffffecH
  000bc	88 55 f1	 mov	 BYTE PTR __k$[ebp+9], dl
  000bf	8a 50 0a	 mov	 dl, BYTE PTR [eax+10]
  000c2	84 d2		 test	 dl, dl
  000c4	0f 84 a8 00 00
	00		 je	 $LN86@LoadInt_e@3
  000ca	32 d1		 xor	 dl, cl
  000cc	88 55 f2	 mov	 BYTE PTR __k$[ebp+10], dl
  000cf	8a 50 0b	 mov	 dl, BYTE PTR [eax+11]
  000d2	84 d2		 test	 dl, dl
  000d4	0f 84 92 00 00
	00		 je	 $LN85@LoadInt_e@3
  000da	80 f2 ea	 xor	 dl, -22			; ffffffeaH
  000dd	88 55 f3	 mov	 BYTE PTR __k$[ebp+11], dl
  000e0	8a 50 0c	 mov	 dl, BYTE PTR [eax+12]
  000e3	84 d2		 test	 dl, dl
  000e5	74 7f		 je	 SHORT $LN84@LoadInt_e@3
  000e7	80 f2 ed	 xor	 dl, -19			; ffffffedH
  000ea	88 55 f4	 mov	 BYTE PTR __k$[ebp+12], dl
  000ed	8a 50 0d	 mov	 dl, BYTE PTR [eax+13]
  000f0	84 d2		 test	 dl, dl
  000f2	74 6c		 je	 SHORT $LN83@LoadInt_e@3
  000f4	80 f2 ec	 xor	 dl, -20			; ffffffecH
  000f7	88 55 f5	 mov	 BYTE PTR __k$[ebp+13], dl
  000fa	8a 50 0e	 mov	 dl, BYTE PTR [eax+14]
  000fd	84 d2		 test	 dl, dl
  000ff	74 5a		 je	 SHORT $LN82@LoadInt_e@3
  00101	32 d1		 xor	 dl, cl
  00103	80 78 0f 00	 cmp	 BYTE PTR [eax+15], 0
  00107	88 55 f6	 mov	 BYTE PTR __k$[ebp+14], dl
  0010a	0f 84 a0 00 00
	00		 je	 $LN1@LoadInt_e@3
  00110	8a 50 10	 mov	 dl, BYTE PTR [eax+16]
  00113	84 d2		 test	 dl, dl
  00115	74 3e		 je	 SHORT $LN80@LoadInt_e@3
  00117	80 f2 ed	 xor	 dl, -19			; ffffffedH
  0011a	88 55 f8	 mov	 BYTE PTR __k$[ebp+16], dl
  0011d	8a 50 11	 mov	 dl, BYTE PTR [eax+17]
  00120	84 d2		 test	 dl, dl
  00122	74 2b		 je	 SHORT $LN79@LoadInt_e@3
  00124	80 f2 ec	 xor	 dl, -20			; ffffffecH
  00127	88 55 f9	 mov	 BYTE PTR __k$[ebp+17], dl
  0012a	8a 50 12	 mov	 dl, BYTE PTR [eax+18]
  0012d	84 d2		 test	 dl, dl
  0012f	74 19		 je	 SHORT $LN78@LoadInt_e@3
  00131	8a 40 13	 mov	 al, BYTE PTR [eax+19]
  00134	32 d1		 xor	 dl, cl
  00136	88 55 fa	 mov	 BYTE PTR __k$[ebp+18], dl
  00139	84 c0		 test	 al, al
  0013b	74 07		 je	 SHORT $LN77@LoadInt_e@3
  0013d	34 ea		 xor	 al, -22			; ffffffeaH
  0013f	88 45 fb	 mov	 BYTE PTR __k$[ebp+19], al
  00142	eb 6c		 jmp	 SHORT $LN1@LoadInt_e@3
$LN77@LoadInt_e@3:
  00144	c6 45 fb ea	 mov	 BYTE PTR __k$[ebp+19], -22 ; ffffffeaH
  00148	eb 66		 jmp	 SHORT $LN1@LoadInt_e@3
$LN78@LoadInt_e@3:
  0014a	88 4d fa	 mov	 BYTE PTR __k$[ebp+18], cl
  0014d	eb 61		 jmp	 SHORT $LN1@LoadInt_e@3
$LN79@LoadInt_e@3:
  0014f	c6 45 f9 ec	 mov	 BYTE PTR __k$[ebp+17], -20 ; ffffffecH
  00153	eb 5b		 jmp	 SHORT $LN1@LoadInt_e@3
$LN80@LoadInt_e@3:
  00155	c6 45 f8 ed	 mov	 BYTE PTR __k$[ebp+16], -19 ; ffffffedH
  00159	eb 55		 jmp	 SHORT $LN1@LoadInt_e@3
$LN82@LoadInt_e@3:
  0015b	88 4d f6	 mov	 BYTE PTR __k$[ebp+14], cl
  0015e	eb 50		 jmp	 SHORT $LN1@LoadInt_e@3
$LN83@LoadInt_e@3:
  00160	c6 45 f5 ec	 mov	 BYTE PTR __k$[ebp+13], -20 ; ffffffecH
  00164	eb 4a		 jmp	 SHORT $LN1@LoadInt_e@3
$LN84@LoadInt_e@3:
  00166	c6 45 f4 ed	 mov	 BYTE PTR __k$[ebp+12], -19 ; ffffffedH
  0016a	eb 44		 jmp	 SHORT $LN1@LoadInt_e@3
$LN85@LoadInt_e@3:
  0016c	c6 45 f3 ea	 mov	 BYTE PTR __k$[ebp+11], -22 ; ffffffeaH
  00170	eb 3e		 jmp	 SHORT $LN1@LoadInt_e@3
$LN86@LoadInt_e@3:
  00172	88 4d f2	 mov	 BYTE PTR __k$[ebp+10], cl
  00175	eb 39		 jmp	 SHORT $LN1@LoadInt_e@3
$LN87@LoadInt_e@3:
  00177	c6 45 f1 ec	 mov	 BYTE PTR __k$[ebp+9], -20 ; ffffffecH
  0017b	eb 33		 jmp	 SHORT $LN1@LoadInt_e@3
$LN88@LoadInt_e@3:
  0017d	c6 45 f0 ed	 mov	 BYTE PTR __k$[ebp+8], -19 ; ffffffedH
  00181	eb 2d		 jmp	 SHORT $LN1@LoadInt_e@3
$LN89@LoadInt_e@3:
  00183	c6 45 ef ea	 mov	 BYTE PTR __k$[ebp+7], -22 ; ffffffeaH
  00187	eb 27		 jmp	 SHORT $LN1@LoadInt_e@3
$LN90@LoadInt_e@3:
  00189	88 4d ee	 mov	 BYTE PTR __k$[ebp+6], cl
  0018c	eb 22		 jmp	 SHORT $LN1@LoadInt_e@3
$LN91@LoadInt_e@3:
  0018e	c6 45 ed ec	 mov	 BYTE PTR __k$[ebp+5], -20 ; ffffffecH
  00192	eb 1c		 jmp	 SHORT $LN1@LoadInt_e@3
$LN92@LoadInt_e@3:
  00194	c6 45 ec ed	 mov	 BYTE PTR __k$[ebp+4], -19 ; ffffffedH
  00198	eb 16		 jmp	 SHORT $LN1@LoadInt_e@3
$LN93@LoadInt_e@3:
  0019a	c6 45 eb ea	 mov	 BYTE PTR __k$[ebp+3], -22 ; ffffffeaH
  0019e	eb 10		 jmp	 SHORT $LN1@LoadInt_e@3
$LN94@LoadInt_e@3:
  001a0	c6 45 ea eb	 mov	 BYTE PTR __k$[ebp+2], -21 ; ffffffebH
  001a4	eb 0a		 jmp	 SHORT $LN1@LoadInt_e@3
$LN95@LoadInt_e@3:
  001a6	c6 45 e9 ec	 mov	 BYTE PTR __k$[ebp+1], -20 ; ffffffecH
  001aa	eb 04		 jmp	 SHORT $LN1@LoadInt_e@3
$LN96@LoadInt_e@3:
  001ac	c6 45 e8 ed	 mov	 BYTE PTR __k$[ebp], -19	; ffffffedH
$LN1@LoadInt_e@3:
  001b0	6a 03		 push	 3
  001b2	8d 45 e8	 lea	 eax, DWORD PTR __k$[ebp]
  001b5	c6 45 f7 00	 mov	 BYTE PTR __k$[ebp+15], 0
  001b9	5a		 pop	 edx
$LL104@LoadInt_e@3:
  001ba	81 30 ed ec eb
	ea		 xor	 DWORD PTR [eax], -353637139 ; eaebecedH
  001c0	83 c0 04	 add	 eax, 4
  001c3	4a		 dec	 edx
  001c4	75 f4		 jne	 SHORT $LL104@LoadInt_e@3
  001c6	6a 0c		 push	 12			; 0000000cH
  001c8	58		 pop	 eax
$LL101@LoadInt_e@3:
  001c9	8b c8		 mov	 ecx, eax
  001cb	81 e1 03 00 00
	80		 and	 ecx, -2147483645	; 80000003H
  001d1	79 05		 jns	 SHORT $LN111@LoadInt_e@3
  001d3	49		 dec	 ecx
  001d4	83 c9 fc	 or	 ecx, -4			; fffffffcH
  001d7	41		 inc	 ecx
$LN111@LoadInt_e@3:
  001d8	b2 ed		 mov	 dl, -19			; ffffffedH
  001da	2a d1		 sub	 dl, cl
  001dc	30 54 05 e8	 xor	 BYTE PTR __k$[ebp+eax], dl
  001e0	40		 inc	 eax
  001e1	83 f8 0f	 cmp	 eax, 15			; 0000000fH
  001e4	7c e3		 jl	 SHORT $LL101@LoadInt_e@3

; 120  : 		return LoadInt(_k, i);

  001e6	ff 75 0c	 push	 DWORD PTR _i$[ebp]
  001e9	8d 45 e8	 lea	 eax, DWORD PTR __k$[ebp]
  001ec	50		 push	 eax
  001ed	8b ce		 mov	 ecx, esi
  001ef	ff 15 00 00 00
	00		 call	 DWORD PTR __imp_?LoadInt@ioINILoader@@QAEHPBDH@Z

; 121  : 	}

  001f5	8b 4d fc	 mov	 ecx, DWORD PTR __$ArrayPad$[ebp]
  001f8	33 cd		 xor	 ecx, ebp
  001fa	5e		 pop	 esi
  001fb	e8 00 00 00 00	 call	 @__security_check_cookie@4
  00200	c9		 leave
  00201	c2 08 00	 ret	 8
??$LoadInt_e@$0BA@@ioINILoader@@QAEHAAY0BA@$$CBDH@Z ENDP ; ioINILoader::LoadInt_e<16>
_TEXT	ENDS
PUBLIC	__$ArrayPad$
PUBLIC	??$LoadInt_e@$0L@@ioINILoader@@QAEHAAY0L@$$CBDH@Z ; ioINILoader::LoadInt_e<11>
; Function compile flags: /Ogsp
;	COMDAT ??$LoadInt_e@$0L@@ioINILoader@@QAEHAAY0L@$$CBDH@Z
_TEXT	SEGMENT
__k$ = -20						; size = 11
__$ArrayPad$ = -4					; size = 4
_k$ = 8							; size = 4
_i$ = 12						; size = 4
??$LoadInt_e@$0L@@ioINILoader@@QAEHAAY0L@$$CBDH@Z PROC	; ioINILoader::LoadInt_e<11>, COMDAT
; _this$ = ecx

; 118  : 	{

  00000	55		 push	 ebp
  00001	8b ec		 mov	 ebp, esp
  00003	83 ec 14	 sub	 esp, 20			; 00000014H
  00006	a1 00 00 00 00	 mov	 eax, DWORD PTR ___security_cookie
  0000b	33 c5		 xor	 eax, ebp
  0000d	89 45 fc	 mov	 DWORD PTR __$ArrayPad$[ebp], eax
  00010	8b 45 08	 mov	 eax, DWORD PTR _k$[ebp]

; 119  : 		_ENCSTR(k, _k);

  00013	8a 10		 mov	 dl, BYTE PTR [eax]
  00015	56		 push	 esi
  00016	8b f1		 mov	 esi, ecx
  00018	84 d2		 test	 dl, dl
  0001a	0f 84 24 01 00
	00		 je	 $LN96@LoadInt_e@4
  00020	80 f2 ed	 xor	 dl, -19			; ffffffedH
  00023	88 55 ec	 mov	 BYTE PTR __k$[ebp], dl
  00026	8a 50 01	 mov	 dl, BYTE PTR [eax+1]
  00029	84 d2		 test	 dl, dl
  0002b	0f 84 0d 01 00
	00		 je	 $LN95@LoadInt_e@4
  00031	80 f2 ec	 xor	 dl, -20			; ffffffecH
  00034	88 55 ed	 mov	 BYTE PTR __k$[ebp+1], dl
  00037	8a 50 02	 mov	 dl, BYTE PTR [eax+2]
  0003a	84 d2		 test	 dl, dl
  0003c	0f 84 f6 00 00
	00		 je	 $LN94@LoadInt_e@4
  00042	80 f2 eb	 xor	 dl, -21			; ffffffebH
  00045	88 55 ee	 mov	 BYTE PTR __k$[ebp+2], dl
  00048	8a 50 03	 mov	 dl, BYTE PTR [eax+3]
  0004b	84 d2		 test	 dl, dl
  0004d	0f 84 df 00 00
	00		 je	 $LN93@LoadInt_e@4
  00053	80 f2 ea	 xor	 dl, -22			; ffffffeaH
  00056	88 55 ef	 mov	 BYTE PTR __k$[ebp+3], dl
  00059	8a 50 04	 mov	 dl, BYTE PTR [eax+4]
  0005c	84 d2		 test	 dl, dl
  0005e	0f 84 c8 00 00
	00		 je	 $LN92@LoadInt_e@4
  00064	80 f2 ed	 xor	 dl, -19			; ffffffedH
  00067	88 55 f0	 mov	 BYTE PTR __k$[ebp+4], dl
  0006a	8a 50 05	 mov	 dl, BYTE PTR [eax+5]
  0006d	84 d2		 test	 dl, dl
  0006f	0f 84 b1 00 00
	00		 je	 $LN91@LoadInt_e@4
  00075	80 f2 ec	 xor	 dl, -20			; ffffffecH
  00078	88 55 f1	 mov	 BYTE PTR __k$[ebp+5], dl
  0007b	8a 50 06	 mov	 dl, BYTE PTR [eax+6]
  0007e	84 d2		 test	 dl, dl
  00080	0f 84 9a 00 00
	00		 je	 $LN90@LoadInt_e@4
  00086	80 f2 eb	 xor	 dl, -21			; ffffffebH
  00089	88 55 f2	 mov	 BYTE PTR __k$[ebp+6], dl
  0008c	8a 50 07	 mov	 dl, BYTE PTR [eax+7]
  0008f	84 d2		 test	 dl, dl
  00091	0f 84 83 00 00
	00		 je	 $LN89@LoadInt_e@4
  00097	80 f2 ea	 xor	 dl, -22			; ffffffeaH
  0009a	88 55 f3	 mov	 BYTE PTR __k$[ebp+7], dl
  0009d	8a 50 08	 mov	 dl, BYTE PTR [eax+8]
  000a0	84 d2		 test	 dl, dl
  000a2	74 70		 je	 SHORT $LN88@LoadInt_e@4
  000a4	80 f2 ed	 xor	 dl, -19			; ffffffedH
  000a7	88 55 f4	 mov	 BYTE PTR __k$[ebp+8], dl
  000aa	8a 50 09	 mov	 dl, BYTE PTR [eax+9]
  000ad	84 d2		 test	 dl, dl
  000af	74 5d		 je	 SHORT $LN87@LoadInt_e@4
  000b1	80 f2 ec	 xor	 dl, -20			; ffffffecH
  000b4	80 78 0a 00	 cmp	 BYTE PTR [eax+10], 0
  000b8	88 55 f5	 mov	 BYTE PTR __k$[ebp+9], dl
  000bb	0f 84 87 00 00
	00		 je	 $LN1@LoadInt_e@4
  000c1	8a 50 0b	 mov	 dl, BYTE PTR [eax+11]
  000c4	84 d2		 test	 dl, dl
  000c6	74 40		 je	 SHORT $LN85@LoadInt_e@4
  000c8	80 f2 ea	 xor	 dl, -22			; ffffffeaH
  000cb	88 55 f7	 mov	 BYTE PTR __k$[ebp+11], dl
  000ce	8a 50 0c	 mov	 dl, BYTE PTR [eax+12]
  000d1	84 d2		 test	 dl, dl
  000d3	74 2d		 je	 SHORT $LN84@LoadInt_e@4
  000d5	80 f2 ed	 xor	 dl, -19			; ffffffedH
  000d8	88 55 f8	 mov	 BYTE PTR __k$[ebp+12], dl
  000db	8a 50 0d	 mov	 dl, BYTE PTR [eax+13]
  000de	84 d2		 test	 dl, dl
  000e0	74 1a		 je	 SHORT $LN83@LoadInt_e@4
  000e2	8a 40 0e	 mov	 al, BYTE PTR [eax+14]
  000e5	80 f2 ec	 xor	 dl, -20			; ffffffecH
  000e8	88 55 f9	 mov	 BYTE PTR __k$[ebp+13], dl
  000eb	84 c0		 test	 al, al
  000ed	74 07		 je	 SHORT $LN82@LoadInt_e@4
  000ef	34 eb		 xor	 al, -21			; ffffffebH
  000f1	88 45 fa	 mov	 BYTE PTR __k$[ebp+14], al
  000f4	eb 52		 jmp	 SHORT $LN1@LoadInt_e@4
$LN82@LoadInt_e@4:
  000f6	c6 45 fa eb	 mov	 BYTE PTR __k$[ebp+14], -21 ; ffffffebH
  000fa	eb 4c		 jmp	 SHORT $LN1@LoadInt_e@4
$LN83@LoadInt_e@4:
  000fc	c6 45 f9 ec	 mov	 BYTE PTR __k$[ebp+13], -20 ; ffffffecH
  00100	eb 46		 jmp	 SHORT $LN1@LoadInt_e@4
$LN84@LoadInt_e@4:
  00102	c6 45 f8 ed	 mov	 BYTE PTR __k$[ebp+12], -19 ; ffffffedH
  00106	eb 40		 jmp	 SHORT $LN1@LoadInt_e@4
$LN85@LoadInt_e@4:
  00108	c6 45 f7 ea	 mov	 BYTE PTR __k$[ebp+11], -22 ; ffffffeaH
  0010c	eb 3a		 jmp	 SHORT $LN1@LoadInt_e@4
$LN87@LoadInt_e@4:
  0010e	c6 45 f5 ec	 mov	 BYTE PTR __k$[ebp+9], -20 ; ffffffecH
  00112	eb 34		 jmp	 SHORT $LN1@LoadInt_e@4
$LN88@LoadInt_e@4:
  00114	c6 45 f4 ed	 mov	 BYTE PTR __k$[ebp+8], -19 ; ffffffedH
  00118	eb 2e		 jmp	 SHORT $LN1@LoadInt_e@4
$LN89@LoadInt_e@4:
  0011a	c6 45 f3 ea	 mov	 BYTE PTR __k$[ebp+7], -22 ; ffffffeaH
  0011e	eb 28		 jmp	 SHORT $LN1@LoadInt_e@4
$LN90@LoadInt_e@4:
  00120	c6 45 f2 eb	 mov	 BYTE PTR __k$[ebp+6], -21 ; ffffffebH
  00124	eb 22		 jmp	 SHORT $LN1@LoadInt_e@4
$LN91@LoadInt_e@4:
  00126	c6 45 f1 ec	 mov	 BYTE PTR __k$[ebp+5], -20 ; ffffffecH
  0012a	eb 1c		 jmp	 SHORT $LN1@LoadInt_e@4
$LN92@LoadInt_e@4:
  0012c	c6 45 f0 ed	 mov	 BYTE PTR __k$[ebp+4], -19 ; ffffffedH
  00130	eb 16		 jmp	 SHORT $LN1@LoadInt_e@4
$LN93@LoadInt_e@4:
  00132	c6 45 ef ea	 mov	 BYTE PTR __k$[ebp+3], -22 ; ffffffeaH
  00136	eb 10		 jmp	 SHORT $LN1@LoadInt_e@4
$LN94@LoadInt_e@4:
  00138	c6 45 ee eb	 mov	 BYTE PTR __k$[ebp+2], -21 ; ffffffebH
  0013c	eb 0a		 jmp	 SHORT $LN1@LoadInt_e@4
$LN95@LoadInt_e@4:
  0013e	c6 45 ed ec	 mov	 BYTE PTR __k$[ebp+1], -20 ; ffffffecH
  00142	eb 04		 jmp	 SHORT $LN1@LoadInt_e@4
$LN96@LoadInt_e@4:
  00144	c6 45 ec ed	 mov	 BYTE PTR __k$[ebp], -19	; ffffffedH
$LN1@LoadInt_e@4:
  00148	6a 02		 push	 2
  0014a	8d 45 ec	 lea	 eax, DWORD PTR __k$[ebp]
  0014d	c6 45 f6 00	 mov	 BYTE PTR __k$[ebp+10], 0
  00151	5a		 pop	 edx
$LL104@LoadInt_e@4:
  00152	81 30 ed ec eb
	ea		 xor	 DWORD PTR [eax], -353637139 ; eaebecedH
  00158	83 c0 04	 add	 eax, 4
  0015b	4a		 dec	 edx
  0015c	75 f4		 jne	 SHORT $LL104@LoadInt_e@4
  0015e	6a 08		 push	 8
  00160	58		 pop	 eax
$LL101@LoadInt_e@4:
  00161	8b c8		 mov	 ecx, eax
  00163	81 e1 03 00 00
	80		 and	 ecx, -2147483645	; 80000003H
  00169	79 05		 jns	 SHORT $LN111@LoadInt_e@4
  0016b	49		 dec	 ecx
  0016c	83 c9 fc	 or	 ecx, -4			; fffffffcH
  0016f	41		 inc	 ecx
$LN111@LoadInt_e@4:
  00170	b2 ed		 mov	 dl, -19			; ffffffedH
  00172	2a d1		 sub	 dl, cl
  00174	30 54 05 ec	 xor	 BYTE PTR __k$[ebp+eax], dl
  00178	40		 inc	 eax
  00179	83 f8 0a	 cmp	 eax, 10			; 0000000aH
  0017c	7c e3		 jl	 SHORT $LL101@LoadInt_e@4

; 120  : 		return LoadInt(_k, i);

  0017e	ff 75 0c	 push	 DWORD PTR _i$[ebp]
  00181	8d 45 ec	 lea	 eax, DWORD PTR __k$[ebp]
  00184	50		 push	 eax
  00185	8b ce		 mov	 ecx, esi
  00187	ff 15 00 00 00
	00		 call	 DWORD PTR __imp_?LoadInt@ioINILoader@@QAEHPBDH@Z

; 121  : 	}

  0018d	8b 4d fc	 mov	 ecx, DWORD PTR __$ArrayPad$[ebp]
  00190	33 cd		 xor	 ecx, ebp
  00192	5e		 pop	 esi
  00193	e8 00 00 00 00	 call	 @__security_check_cookie@4
  00198	c9		 leave
  00199	c2 08 00	 ret	 8
??$LoadInt_e@$0L@@ioINILoader@@QAEHAAY0L@$$CBDH@Z ENDP	; ioINILoader::LoadInt_e<11>
_TEXT	ENDS
PUBLIC	__$ArrayPad$
PUBLIC	??$LoadString_e@$0L@@ioINILoader@@QAEXAAY0L@$$CBDAAY00$$CBDPADH@Z ; ioINILoader::LoadString_e<11>
EXTRN	__imp_?LoadStringA@ioINILoader@@QAEXPBD0PADH@Z:PROC
; Function compile flags: /Ogsp
;	COMDAT ??$LoadString_e@$0L@@ioINILoader@@QAEXAAY0L@$$CBDAAY00$$CBDPADH@Z
_TEXT	SEGMENT
__k$ = -20						; size = 11
__$ArrayPad$ = -4					; size = 4
_k$ = 8							; size = 4
_d$ = 12						; size = 4
_b$ = 16						; size = 4
_i$ = 20						; size = 4
??$LoadString_e@$0L@@ioINILoader@@QAEXAAY0L@$$CBDAAY00$$CBDPADH@Z PROC ; ioINILoader::LoadString_e<11>, COMDAT
; _this$ = ecx

; 161  : 	{

  00000	55		 push	 ebp
  00001	8b ec		 mov	 ebp, esp
  00003	83 ec 14	 sub	 esp, 20			; 00000014H
  00006	a1 00 00 00 00	 mov	 eax, DWORD PTR ___security_cookie
  0000b	33 c5		 xor	 eax, ebp
  0000d	89 45 fc	 mov	 DWORD PTR __$ArrayPad$[ebp], eax
  00010	8b 45 08	 mov	 eax, DWORD PTR _k$[ebp]

; 162  : 		_ENCSTR(k, _k);

  00013	8a 10		 mov	 dl, BYTE PTR [eax]
  00015	53		 push	 ebx
  00016	56		 push	 esi
  00017	8b 75 0c	 mov	 esi, DWORD PTR _d$[ebp]
  0001a	57		 push	 edi
  0001b	8b 7d 10	 mov	 edi, DWORD PTR _b$[ebp]
  0001e	84 d2		 test	 dl, dl
  00020	0f 84 1b 01 00
	00		 je	 $LN96@LoadString
  00026	80 f2 ed	 xor	 dl, -19			; ffffffedH
  00029	88 55 ec	 mov	 BYTE PTR __k$[ebp], dl
  0002c	8a 50 01	 mov	 dl, BYTE PTR [eax+1]
  0002f	84 d2		 test	 dl, dl
  00031	0f 84 04 01 00
	00		 je	 $LN95@LoadString
  00037	b3 ec		 mov	 bl, -20			; ffffffecH
  00039	32 d3		 xor	 dl, bl
  0003b	88 55 ed	 mov	 BYTE PTR __k$[ebp+1], dl
  0003e	8a 50 02	 mov	 dl, BYTE PTR [eax+2]
  00041	84 d2		 test	 dl, dl
  00043	0f 84 ec 00 00
	00		 je	 $LN94@LoadString
  00049	80 f2 eb	 xor	 dl, -21			; ffffffebH
  0004c	88 55 ee	 mov	 BYTE PTR __k$[ebp+2], dl
  0004f	8a 50 03	 mov	 dl, BYTE PTR [eax+3]
  00052	84 d2		 test	 dl, dl
  00054	0f 84 d5 00 00
	00		 je	 $LN93@LoadString
  0005a	80 f2 ea	 xor	 dl, -22			; ffffffeaH
  0005d	88 55 ef	 mov	 BYTE PTR __k$[ebp+3], dl
  00060	8a 50 04	 mov	 dl, BYTE PTR [eax+4]
  00063	84 d2		 test	 dl, dl
  00065	0f 84 be 00 00
	00		 je	 $LN92@LoadString
  0006b	80 f2 ed	 xor	 dl, -19			; ffffffedH
  0006e	88 55 f0	 mov	 BYTE PTR __k$[ebp+4], dl
  00071	8a 50 05	 mov	 dl, BYTE PTR [eax+5]
  00074	84 d2		 test	 dl, dl
  00076	0f 84 a8 00 00
	00		 je	 $LN91@LoadString
  0007c	32 d3		 xor	 dl, bl
  0007e	88 55 f1	 mov	 BYTE PTR __k$[ebp+5], dl
  00081	8a 50 06	 mov	 dl, BYTE PTR [eax+6]
  00084	84 d2		 test	 dl, dl
  00086	0f 84 92 00 00
	00		 je	 $LN90@LoadString
  0008c	80 f2 eb	 xor	 dl, -21			; ffffffebH
  0008f	88 55 f2	 mov	 BYTE PTR __k$[ebp+6], dl
  00092	8a 50 07	 mov	 dl, BYTE PTR [eax+7]
  00095	84 d2		 test	 dl, dl
  00097	74 7f		 je	 SHORT $LN89@LoadString
  00099	80 f2 ea	 xor	 dl, -22			; ffffffeaH
  0009c	88 55 f3	 mov	 BYTE PTR __k$[ebp+7], dl
  0009f	8a 50 08	 mov	 dl, BYTE PTR [eax+8]
  000a2	84 d2		 test	 dl, dl
  000a4	74 6c		 je	 SHORT $LN88@LoadString
  000a6	80 f2 ed	 xor	 dl, -19			; ffffffedH
  000a9	88 55 f4	 mov	 BYTE PTR __k$[ebp+8], dl
  000ac	8a 50 09	 mov	 dl, BYTE PTR [eax+9]
  000af	84 d2		 test	 dl, dl
  000b1	74 5a		 je	 SHORT $LN87@LoadString
  000b3	32 d3		 xor	 dl, bl
  000b5	80 78 0a 00	 cmp	 BYTE PTR [eax+10], 0
  000b9	88 55 f5	 mov	 BYTE PTR __k$[ebp+9], dl
  000bc	0f 84 83 00 00
	00		 je	 $LN1@LoadString
  000c2	8a 50 0b	 mov	 dl, BYTE PTR [eax+11]
  000c5	84 d2		 test	 dl, dl
  000c7	74 3e		 je	 SHORT $LN85@LoadString
  000c9	80 f2 ea	 xor	 dl, -22			; ffffffeaH
  000cc	88 55 f7	 mov	 BYTE PTR __k$[ebp+11], dl
  000cf	8a 50 0c	 mov	 dl, BYTE PTR [eax+12]
  000d2	84 d2		 test	 dl, dl
  000d4	74 2b		 je	 SHORT $LN84@LoadString
  000d6	80 f2 ed	 xor	 dl, -19			; ffffffedH
  000d9	88 55 f8	 mov	 BYTE PTR __k$[ebp+12], dl
  000dc	8a 50 0d	 mov	 dl, BYTE PTR [eax+13]
  000df	84 d2		 test	 dl, dl
  000e1	74 19		 je	 SHORT $LN83@LoadString
  000e3	8a 40 0e	 mov	 al, BYTE PTR [eax+14]
  000e6	32 d3		 xor	 dl, bl
  000e8	88 55 f9	 mov	 BYTE PTR __k$[ebp+13], dl
  000eb	84 c0		 test	 al, al
  000ed	74 07		 je	 SHORT $LN82@LoadString
  000ef	34 eb		 xor	 al, -21			; ffffffebH
  000f1	88 45 fa	 mov	 BYTE PTR __k$[ebp+14], al
  000f4	eb 4f		 jmp	 SHORT $LN1@LoadString
$LN82@LoadString:
  000f6	c6 45 fa eb	 mov	 BYTE PTR __k$[ebp+14], -21 ; ffffffebH
  000fa	eb 49		 jmp	 SHORT $LN1@LoadString
$LN83@LoadString:
  000fc	88 5d f9	 mov	 BYTE PTR __k$[ebp+13], bl
  000ff	eb 44		 jmp	 SHORT $LN1@LoadString
$LN84@LoadString:
  00101	c6 45 f8 ed	 mov	 BYTE PTR __k$[ebp+12], -19 ; ffffffedH
  00105	eb 3e		 jmp	 SHORT $LN1@LoadString
$LN85@LoadString:
  00107	c6 45 f7 ea	 mov	 BYTE PTR __k$[ebp+11], -22 ; ffffffeaH
  0010b	eb 38		 jmp	 SHORT $LN1@LoadString
$LN87@LoadString:
  0010d	88 5d f5	 mov	 BYTE PTR __k$[ebp+9], bl
  00110	eb 33		 jmp	 SHORT $LN1@LoadString
$LN88@LoadString:
  00112	c6 45 f4 ed	 mov	 BYTE PTR __k$[ebp+8], -19 ; ffffffedH
  00116	eb 2d		 jmp	 SHORT $LN1@LoadString
$LN89@LoadString:
  00118	c6 45 f3 ea	 mov	 BYTE PTR __k$[ebp+7], -22 ; ffffffeaH
  0011c	eb 27		 jmp	 SHORT $LN1@LoadString
$LN90@LoadString:
  0011e	c6 45 f2 eb	 mov	 BYTE PTR __k$[ebp+6], -21 ; ffffffebH
  00122	eb 21		 jmp	 SHORT $LN1@LoadString
$LN91@LoadString:
  00124	88 5d f1	 mov	 BYTE PTR __k$[ebp+5], bl
  00127	eb 1c		 jmp	 SHORT $LN1@LoadString
$LN92@LoadString:
  00129	c6 45 f0 ed	 mov	 BYTE PTR __k$[ebp+4], -19 ; ffffffedH
  0012d	eb 16		 jmp	 SHORT $LN1@LoadString
$LN93@LoadString:
  0012f	c6 45 ef ea	 mov	 BYTE PTR __k$[ebp+3], -22 ; ffffffeaH
  00133	eb 10		 jmp	 SHORT $LN1@LoadString
$LN94@LoadString:
  00135	c6 45 ee eb	 mov	 BYTE PTR __k$[ebp+2], -21 ; ffffffebH
  00139	eb 0a		 jmp	 SHORT $LN1@LoadString
$LN95@LoadString:
  0013b	c6 45 ed ec	 mov	 BYTE PTR __k$[ebp+1], -20 ; ffffffecH
  0013f	eb 04		 jmp	 SHORT $LN1@LoadString
$LN96@LoadString:
  00141	c6 45 ec ed	 mov	 BYTE PTR __k$[ebp], -19	; ffffffedH
$LN1@LoadString:
  00145	6a 02		 push	 2
  00147	8d 45 ec	 lea	 eax, DWORD PTR __k$[ebp]
  0014a	c6 45 f6 00	 mov	 BYTE PTR __k$[ebp+10], 0
  0014e	5a		 pop	 edx
$LL104@LoadString:
  0014f	81 30 ed ec eb
	ea		 xor	 DWORD PTR [eax], -353637139 ; eaebecedH
  00155	83 c0 04	 add	 eax, 4
  00158	4a		 dec	 edx
  00159	75 f4		 jne	 SHORT $LL104@LoadString
  0015b	6a 08		 push	 8
  0015d	58		 pop	 eax
$LL101@LoadString:
  0015e	8b d0		 mov	 edx, eax
  00160	81 e2 03 00 00
	80		 and	 edx, -2147483645	; 80000003H
  00166	79 05		 jns	 SHORT $LN111@LoadString
  00168	4a		 dec	 edx
  00169	83 ca fc	 or	 edx, -4			; fffffffcH
  0016c	42		 inc	 edx
$LN111@LoadString:
  0016d	b3 ed		 mov	 bl, -19			; ffffffedH
  0016f	2a da		 sub	 bl, dl
  00171	30 5c 05 ec	 xor	 BYTE PTR __k$[ebp+eax], bl
  00175	40		 inc	 eax
  00176	83 f8 0a	 cmp	 eax, 10			; 0000000aH
  00179	7c e3		 jl	 SHORT $LL101@LoadString

; 163  : 		LoadString(_k, d, b, i);

  0017b	ff 75 14	 push	 DWORD PTR _i$[ebp]
  0017e	8d 45 ec	 lea	 eax, DWORD PTR __k$[ebp]
  00181	57		 push	 edi
  00182	56		 push	 esi
  00183	50		 push	 eax
  00184	ff 15 00 00 00
	00		 call	 DWORD PTR __imp_?LoadStringA@ioINILoader@@QAEXPBD0PADH@Z

; 164  : 	}

  0018a	8b 4d fc	 mov	 ecx, DWORD PTR __$ArrayPad$[ebp]
  0018d	5f		 pop	 edi
  0018e	5e		 pop	 esi
  0018f	33 cd		 xor	 ecx, ebp
  00191	5b		 pop	 ebx
  00192	e8 00 00 00 00	 call	 @__security_check_cookie@4
  00197	c9		 leave
  00198	c2 10 00	 ret	 16			; 00000010H
??$LoadString_e@$0L@@ioINILoader@@QAEXAAY0L@$$CBDAAY00$$CBDPADH@Z ENDP ; ioINILoader::LoadString_e<11>
_TEXT	ENDS
PUBLIC	?max_size@?$_Tree@V?$_Tmap_traits@KUtagNamedTitleInfo@@U?$less@K@std@@V?$allocator@U?$pair@$$CBKUtagNamedTitleInfo@@@std@@@3@$0A@@std@@@std@@QBEIXZ ; std::_Tree<std::_Tmap_traits<unsigned long,tagNamedTitleInfo,std::less<unsigned long>,std::allocator<std::pair<unsigned long const ,tagNamedTitleInfo> >,0> >::max_size
; Function compile flags: /Ogsp
; File c:\program files (x86)\microsoft visual studio 10.0\vc\include\xtree
;	COMDAT ?max_size@?$_Tree@V?$_Tmap_traits@KUtagNamedTitleInfo@@U?$less@K@std@@V?$allocator@U?$pair@$$CBKUtagNamedTitleInfo@@@std@@@3@$0A@@std@@@std@@QBEIXZ
_TEXT	SEGMENT
?max_size@?$_Tree@V?$_Tmap_traits@KUtagNamedTitleInfo@@U?$less@K@std@@V?$allocator@U?$pair@$$CBKUtagNamedTitleInfo@@@std@@@3@$0A@@std@@@std@@QBEIXZ PROC ; std::_Tree<std::_Tmap_traits<unsigned long,tagNamedTitleInfo,std::less<unsigned long>,std::allocator<std::pair<unsigned long const ,tagNamedTitleInfo> >,0> >::max_size, COMDAT
; _this$ = ecx

; 874  : 		return (this->_Alval.max_size());

  00000	b8 66 66 66 06	 mov	 eax, 107374182		; 06666666H

; 875  : 		}

  00005	c3		 ret	 0
?max_size@?$_Tree@V?$_Tmap_traits@KUtagNamedTitleInfo@@U?$less@K@std@@V?$allocator@U?$pair@$$CBKUtagNamedTitleInfo@@@std@@@3@$0A@@std@@@std@@QBEIXZ ENDP ; std::_Tree<std::_Tmap_traits<unsigned long,tagNamedTitleInfo,std::less<unsigned long>,std::allocator<std::pair<unsigned long const ,tagNamedTitleInfo> >,0> >::max_size
_TEXT	ENDS
PUBLIC	??0?$_Pair_base@V?$_Tree_iterator@V?$_Tree_val@V?$_Tmap_traits@KUtagNamedTitleInfo@@U?$less@K@std@@V?$allocator@U?$pair@$$CBKUtagNamedTitleInfo@@@std@@@3@$0A@@std@@@std@@@std@@_N@std@@QAE@$$QAV?$_Tree_iterator@V?$_Tree_val@V?$_Tmap_traits@KUtagNamedTitleInfo@@U?$less@K@std@@V?$allocator@U?$pair@$$CBKUtagNamedTitleInfo@@@std@@@3@$0A@@std@@@std@@@1@$$QA_N@Z ; std::_Pair_base<std::_Tree_iterator<std::_Tree_val<std::_Tmap_traits<unsigned long,tagNamedTitleInfo,std::less<unsigned long>,std::allocator<std::pair<unsigned long const ,tagNamedTitleInfo> >,0> > >,bool>::_Pair_base<std::_Tree_iterator<std::_Tree_val<std::_Tmap_traits<unsigned long,tagNamedTitleInfo,std::less<unsigned long>,std::allocator<std::pair<unsigned long const ,tagNamedTitleInfo> >,0> > >,bool>
; Function compile flags: /Ogsp
; File c:\program files (x86)\microsoft visual studio 10.0\vc\include\utility
;	COMDAT ??0?$_Pair_base@V?$_Tree_iterator@V?$_Tree_val@V?$_Tmap_traits@KUtagNamedTitleInfo@@U?$less@K@std@@V?$allocator@U?$pair@$$CBKUtagNamedTitleInfo@@@std@@@3@$0A@@std@@@std@@@std@@_N@std@@QAE@$$QAV?$_Tree_iterator@V?$_Tree_val@V?$_Tmap_traits@KUtagNamedTitleInfo@@U?$less@K@std@@V?$allocator@U?$pair@$$CBKUtagNamedTitleInfo@@@std@@@3@$0A@@std@@@std@@@1@$$QA_N@Z
_TEXT	SEGMENT
__Val1$ = 8						; size = 4
__Val2$ = 12						; size = 4
??0?$_Pair_base@V?$_Tree_iterator@V?$_Tree_val@V?$_Tmap_traits@KUtagNamedTitleInfo@@U?$less@K@std@@V?$allocator@U?$pair@$$CBKUtagNamedTitleInfo@@@std@@@3@$0A@@std@@@std@@@std@@_N@std@@QAE@$$QAV?$_Tree_iterator@V?$_Tree_val@V?$_Tmap_traits@KUtagNamedTitleInfo@@U?$less@K@std@@V?$allocator@U?$pair@$$CBKUtagNamedTitleInfo@@@std@@@3@$0A@@std@@@std@@@1@$$QA_N@Z PROC ; std::_Pair_base<std::_Tree_iterator<std::_Tree_val<std::_Tmap_traits<unsigned long,tagNamedTitleInfo,std::less<unsigned long>,std::allocator<std::pair<unsigned long const ,tagNamedTitleInfo> >,0> > >,bool>::_Pair_base<std::_Tree_iterator<std::_Tree_val<std::_Tmap_traits<unsigned long,tagNamedTitleInfo,std::less<unsigned long>,std::allocator<std::pair<unsigned long const ,tagNamedTitleInfo> >,0> > >,bool>, COMDAT
; _this$ = ecx

; 145  : 		{	// construct from specified values

  00000	55		 push	 ebp
  00001	8b ec		 mov	 ebp, esp
  00003	8b c1		 mov	 eax, ecx
  00005	8b 4d 08	 mov	 ecx, DWORD PTR __Val1$[ebp]
  00008	8b 09		 mov	 ecx, DWORD PTR [ecx]
  0000a	89 08		 mov	 DWORD PTR [eax], ecx
  0000c	8b 4d 0c	 mov	 ecx, DWORD PTR __Val2$[ebp]
  0000f	8a 09		 mov	 cl, BYTE PTR [ecx]
  00011	88 48 04	 mov	 BYTE PTR [eax+4], cl

; 146  : 		}

  00014	5d		 pop	 ebp
  00015	c2 08 00	 ret	 8
??0?$_Pair_base@V?$_Tree_iterator@V?$_Tree_val@V?$_Tmap_traits@KUtagNamedTitleInfo@@U?$less@K@std@@V?$allocator@U?$pair@$$CBKUtagNamedTitleInfo@@@std@@@3@$0A@@std@@@std@@@std@@_N@std@@QAE@$$QAV?$_Tree_iterator@V?$_Tree_val@V?$_Tmap_traits@KUtagNamedTitleInfo@@U?$less@K@std@@V?$allocator@U?$pair@$$CBKUtagNamedTitleInfo@@@std@@@3@$0A@@std@@@std@@@1@$$QA_N@Z ENDP ; std::_Pair_base<std::_Tree_iterator<std::_Tree_val<std::_Tmap_traits<unsigned long,tagNamedTitleInfo,std::less<unsigned long>,std::allocator<std::pair<unsigned long const ,tagNamedTitleInfo> >,0> > >,bool>::_Pair_base<std::_Tree_iterator<std::_Tree_val<std::_Tmap_traits<unsigned long,tagNamedTitleInfo,std::less<unsigned long>,std::allocator<std::pair<unsigned long const ,tagNamedTitleInfo> >,0> > >,bool>
_TEXT	ENDS
PUBLIC	??F?$_Tree_const_iterator@V?$_Tree_val@V?$_Tmap_traits@KUtagNamedTitleInfo@@U?$less@K@std@@V?$allocator@U?$pair@$$CBKUtagNamedTitleInfo@@@std@@@3@$0A@@std@@@std@@@std@@QAEAAV01@XZ ; std::_Tree_const_iterator<std::_Tree_val<std::_Tmap_traits<unsigned long,tagNamedTitleInfo,std::less<unsigned long>,std::allocator<std::pair<unsigned long const ,tagNamedTitleInfo> >,0> > >::operator--
; Function compile flags: /Ogsp
; File c:\program files (x86)\microsoft visual studio 10.0\vc\include\xtree
;	COMDAT ??F?$_Tree_const_iterator@V?$_Tree_val@V?$_Tmap_traits@KUtagNamedTitleInfo@@U?$less@K@std@@V?$allocator@U?$pair@$$CBKUtagNamedTitleInfo@@@std@@@3@$0A@@std@@@std@@@std@@QAEAAV01@XZ
_TEXT	SEGMENT
??F?$_Tree_const_iterator@V?$_Tree_val@V?$_Tmap_traits@KUtagNamedTitleInfo@@U?$less@K@std@@V?$allocator@U?$pair@$$CBKUtagNamedTitleInfo@@@std@@@3@$0A@@std@@@std@@@std@@QAEAAV01@XZ PROC ; std::_Tree_const_iterator<std::_Tree_val<std::_Tmap_traits<unsigned long,tagNamedTitleInfo,std::less<unsigned long>,std::allocator<std::pair<unsigned long const ,tagNamedTitleInfo> >,0> > >::operator--, COMDAT
; _this$ = ecx

; 277  : 		{	// predecrement

  00000	56		 push	 esi
  00001	8b f1		 mov	 esi, ecx

; 278  :  #if _ITERATOR_DEBUG_LEVEL == 2
; 279  : 		if (this->_Getcont() == 0
; 280  : 			|| this->_Ptr == 0)
; 281  : 			{	// report error
; 282  : 			_DEBUG_ERROR("map/set iterator not decrementable");
; 283  : 			_SCL_SECURE_OUT_OF_RANGE;
; 284  : 			}
; 285  : 
; 286  : 		_Nodeptr _Ptrsav = this->_Ptr;
; 287  : 		--(*(_Mybase *)this);
; 288  : 		if (_Ptrsav == this->_Ptr)
; 289  : 			{	// report error
; 290  : 			_DEBUG_ERROR("map/set iterator not decrementable");
; 291  : 			_SCL_SECURE_OUT_OF_RANGE;
; 292  : 			}
; 293  : 
; 294  :  #elif _ITERATOR_DEBUG_LEVEL == 1
; 295  : 		_SCL_SECURE_VALIDATE(this->_Getcont() != 0 && this->_Ptr != 0);
; 296  : 
; 297  : 		_Nodeptr _Ptrsav = this->_Ptr;
; 298  : 		--(*(_Mybase *)this);
; 299  : 		_SCL_SECURE_VALIDATE(_Ptrsav != this->_Ptr);
; 300  : 
; 301  :  #else /* _ITERATOR_DEBUG_LEVEL == 0 */
; 302  : 		--(*(_Mybase *)this);

  00003	e8 00 00 00 00	 call	 ??F?$_Tree_unchecked_const_iterator@V?$_Tree_val@V?$_Tmap_traits@KUtagNamedTitleInfo@@U?$less@K@std@@V?$allocator@U?$pair@$$CBKUtagNamedTitleInfo@@@std@@@3@$0A@@std@@@std@@U_Iterator_base0@2@@std@@QAEAAV01@XZ ; std::_Tree_unchecked_const_iterator<std::_Tree_val<std::_Tmap_traits<unsigned long,tagNamedTitleInfo,std::less<unsigned long>,std::allocator<std::pair<unsigned long const ,tagNamedTitleInfo> >,0> >,std::_Iterator_base0>::operator--

; 303  :  #endif /* _ITERATOR_DEBUG_LEVEL */
; 304  : 
; 305  : 		return (*this);

  00008	8b c6		 mov	 eax, esi
  0000a	5e		 pop	 esi

; 306  : 		}

  0000b	c3		 ret	 0
??F?$_Tree_const_iterator@V?$_Tree_val@V?$_Tmap_traits@KUtagNamedTitleInfo@@U?$less@K@std@@V?$allocator@U?$pair@$$CBKUtagNamedTitleInfo@@@std@@@3@$0A@@std@@@std@@@std@@QAEAAV01@XZ ENDP ; std::_Tree_const_iterator<std::_Tree_val<std::_Tmap_traits<unsigned long,tagNamedTitleInfo,std::less<unsigned long>,std::allocator<std::pair<unsigned long const ,tagNamedTitleInfo> >,0> > >::operator--
_TEXT	ENDS
PUBLIC	??$encodeString@$0BL@@ioINILoader_e@@AAEPADAAY0BL@$$CBDPAD@Z ; ioINILoader_e::encodeString<27>
; Function compile flags: /Ogsp
; File d:\lost saga for developer\youtube\tutorial\source\src\io3dengine\ioiniloader.h
;	COMDAT ??$encodeString@$0BL@@ioINILoader_e@@AAEPADAAY0BL@$$CBDPAD@Z
_TEXT	SEGMENT
_s$ = 8							; size = 4
_e$ = 12						; size = 4
??$encodeString@$0BL@@ioINILoader_e@@AAEPADAAY0BL@$$CBDPAD@Z PROC ; ioINILoader_e::encodeString<27>, COMDAT
; _this$ = ecx

; 215  : 	{

  00000	55		 push	 ebp
  00001	8b ec		 mov	 ebp, esp

; 216  : 		__ENCSTR(s, e);

  00003	8b 4d 08	 mov	 ecx, DWORD PTR _s$[ebp]
  00006	8a 11		 mov	 dl, BYTE PTR [ecx]
  00008	8b 45 0c	 mov	 eax, DWORD PTR _e$[ebp]
  0000b	53		 push	 ebx
  0000c	84 d2		 test	 dl, dl
  0000e	0f 84 6a 04 00
	00		 je	 $LN96@encodeStri
  00014	80 f2 ed	 xor	 dl, -19			; ffffffedH
  00017	88 10		 mov	 BYTE PTR [eax], dl
  00019	8a 51 01	 mov	 dl, BYTE PTR [ecx+1]
  0001c	84 d2		 test	 dl, dl
  0001e	0f 84 54 04 00
	00		 je	 $LN95@encodeStri
  00024	80 f2 ec	 xor	 dl, -20			; ffffffecH
  00027	88 50 01	 mov	 BYTE PTR [eax+1], dl
  0002a	8a 51 02	 mov	 dl, BYTE PTR [ecx+2]
  0002d	84 d2		 test	 dl, dl
  0002f	0f 84 3d 04 00
	00		 je	 $LN94@encodeStri
  00035	b3 eb		 mov	 bl, -21			; ffffffebH
  00037	32 d3		 xor	 dl, bl
  00039	88 50 02	 mov	 BYTE PTR [eax+2], dl
  0003c	8a 51 03	 mov	 dl, BYTE PTR [ecx+3]
  0003f	84 d2		 test	 dl, dl
  00041	0f 84 25 04 00
	00		 je	 $LN93@encodeStri
  00047	80 f2 ea	 xor	 dl, -22			; ffffffeaH
  0004a	88 50 03	 mov	 BYTE PTR [eax+3], dl
  0004d	8a 51 04	 mov	 dl, BYTE PTR [ecx+4]
  00050	84 d2		 test	 dl, dl
  00052	0f 84 0e 04 00
	00		 je	 $LN92@encodeStri
  00058	80 f2 ed	 xor	 dl, -19			; ffffffedH
  0005b	88 50 04	 mov	 BYTE PTR [eax+4], dl
  0005e	8a 51 05	 mov	 dl, BYTE PTR [ecx+5]
  00061	84 d2		 test	 dl, dl
  00063	0f 84 f7 03 00
	00		 je	 $LN91@encodeStri
  00069	80 f2 ec	 xor	 dl, -20			; ffffffecH
  0006c	88 50 05	 mov	 BYTE PTR [eax+5], dl
  0006f	8a 51 06	 mov	 dl, BYTE PTR [ecx+6]
  00072	84 d2		 test	 dl, dl
  00074	0f 84 e1 03 00
	00		 je	 $LN90@encodeStri
  0007a	32 d3		 xor	 dl, bl
  0007c	88 50 06	 mov	 BYTE PTR [eax+6], dl
  0007f	8a 51 07	 mov	 dl, BYTE PTR [ecx+7]
  00082	84 d2		 test	 dl, dl
  00084	0f 84 cb 03 00
	00		 je	 $LN89@encodeStri
  0008a	80 f2 ea	 xor	 dl, -22			; ffffffeaH
  0008d	88 50 07	 mov	 BYTE PTR [eax+7], dl
  00090	8a 51 08	 mov	 dl, BYTE PTR [ecx+8]
  00093	84 d2		 test	 dl, dl
  00095	0f 84 b4 03 00
	00		 je	 $LN88@encodeStri
  0009b	80 f2 ed	 xor	 dl, -19			; ffffffedH
  0009e	88 50 08	 mov	 BYTE PTR [eax+8], dl
  000a1	8a 51 09	 mov	 dl, BYTE PTR [ecx+9]
  000a4	84 d2		 test	 dl, dl
  000a6	0f 84 9d 03 00
	00		 je	 $LN87@encodeStri
  000ac	80 f2 ec	 xor	 dl, -20			; ffffffecH
  000af	88 50 09	 mov	 BYTE PTR [eax+9], dl
  000b2	8a 51 0a	 mov	 dl, BYTE PTR [ecx+10]
  000b5	84 d2		 test	 dl, dl
  000b7	0f 84 87 03 00
	00		 je	 $LN86@encodeStri
  000bd	32 d3		 xor	 dl, bl
  000bf	88 50 0a	 mov	 BYTE PTR [eax+10], dl
  000c2	8a 51 0b	 mov	 dl, BYTE PTR [ecx+11]
  000c5	84 d2		 test	 dl, dl
  000c7	0f 84 71 03 00
	00		 je	 $LN85@encodeStri
  000cd	80 f2 ea	 xor	 dl, -22			; ffffffeaH
  000d0	88 50 0b	 mov	 BYTE PTR [eax+11], dl
  000d3	8a 51 0c	 mov	 dl, BYTE PTR [ecx+12]
  000d6	84 d2		 test	 dl, dl
  000d8	0f 84 5a 03 00
	00		 je	 $LN84@encodeStri
  000de	80 f2 ed	 xor	 dl, -19			; ffffffedH
  000e1	88 50 0c	 mov	 BYTE PTR [eax+12], dl
  000e4	8a 51 0d	 mov	 dl, BYTE PTR [ecx+13]
  000e7	84 d2		 test	 dl, dl
  000e9	0f 84 43 03 00
	00		 je	 $LN83@encodeStri
  000ef	80 f2 ec	 xor	 dl, -20			; ffffffecH
  000f2	88 50 0d	 mov	 BYTE PTR [eax+13], dl
  000f5	8a 51 0e	 mov	 dl, BYTE PTR [ecx+14]
  000f8	84 d2		 test	 dl, dl
  000fa	0f 84 2d 03 00
	00		 je	 $LN82@encodeStri
  00100	32 d3		 xor	 dl, bl
  00102	88 50 0e	 mov	 BYTE PTR [eax+14], dl
  00105	8a 51 0f	 mov	 dl, BYTE PTR [ecx+15]
  00108	84 d2		 test	 dl, dl
  0010a	0f 84 17 03 00
	00		 je	 $LN81@encodeStri
  00110	80 f2 ea	 xor	 dl, -22			; ffffffeaH
  00113	88 50 0f	 mov	 BYTE PTR [eax+15], dl
  00116	8a 51 10	 mov	 dl, BYTE PTR [ecx+16]
  00119	84 d2		 test	 dl, dl
  0011b	0f 84 00 03 00
	00		 je	 $LN80@encodeStri
  00121	80 f2 ed	 xor	 dl, -19			; ffffffedH
  00124	88 50 10	 mov	 BYTE PTR [eax+16], dl
  00127	8a 51 11	 mov	 dl, BYTE PTR [ecx+17]
  0012a	84 d2		 test	 dl, dl
  0012c	0f 84 e9 02 00
	00		 je	 $LN79@encodeStri
  00132	80 f2 ec	 xor	 dl, -20			; ffffffecH
  00135	88 50 11	 mov	 BYTE PTR [eax+17], dl
  00138	8a 51 12	 mov	 dl, BYTE PTR [ecx+18]
  0013b	84 d2		 test	 dl, dl
  0013d	0f 84 d3 02 00
	00		 je	 $LN78@encodeStri
  00143	32 d3		 xor	 dl, bl
  00145	88 50 12	 mov	 BYTE PTR [eax+18], dl
  00148	8a 51 13	 mov	 dl, BYTE PTR [ecx+19]
  0014b	84 d2		 test	 dl, dl
  0014d	0f 84 bd 02 00
	00		 je	 $LN77@encodeStri
  00153	80 f2 ea	 xor	 dl, -22			; ffffffeaH
  00156	88 50 13	 mov	 BYTE PTR [eax+19], dl
  00159	8a 51 14	 mov	 dl, BYTE PTR [ecx+20]
  0015c	84 d2		 test	 dl, dl
  0015e	0f 84 a6 02 00
	00		 je	 $LN76@encodeStri
  00164	80 f2 ed	 xor	 dl, -19			; ffffffedH
  00167	88 50 14	 mov	 BYTE PTR [eax+20], dl
  0016a	8a 51 15	 mov	 dl, BYTE PTR [ecx+21]
  0016d	84 d2		 test	 dl, dl
  0016f	0f 84 8f 02 00
	00		 je	 $LN75@encodeStri
  00175	80 f2 ec	 xor	 dl, -20			; ffffffecH
  00178	88 50 15	 mov	 BYTE PTR [eax+21], dl
  0017b	8a 51 16	 mov	 dl, BYTE PTR [ecx+22]
  0017e	84 d2		 test	 dl, dl
  00180	0f 84 79 02 00
	00		 je	 $LN74@encodeStri
  00186	32 d3		 xor	 dl, bl
  00188	88 50 16	 mov	 BYTE PTR [eax+22], dl
  0018b	8a 51 17	 mov	 dl, BYTE PTR [ecx+23]
  0018e	84 d2		 test	 dl, dl
  00190	0f 84 60 02 00
	00		 je	 $LN73@encodeStri
  00196	80 f2 ea	 xor	 dl, -22			; ffffffeaH
  00199	88 50 17	 mov	 BYTE PTR [eax+23], dl
  0019c	8a 51 18	 mov	 dl, BYTE PTR [ecx+24]
  0019f	84 d2		 test	 dl, dl
  001a1	0f 84 46 02 00
	00		 je	 $LN72@encodeStri
  001a7	80 f2 ed	 xor	 dl, -19			; ffffffedH
  001aa	88 50 18	 mov	 BYTE PTR [eax+24], dl
  001ad	8a 51 19	 mov	 dl, BYTE PTR [ecx+25]
  001b0	84 d2		 test	 dl, dl
  001b2	0f 84 2c 02 00
	00		 je	 $LN71@encodeStri
  001b8	80 f2 ec	 xor	 dl, -20			; ffffffecH
  001bb	88 50 19	 mov	 BYTE PTR [eax+25], dl
  001be	8a 51 1a	 mov	 dl, BYTE PTR [ecx+26]
  001c1	84 d2		 test	 dl, dl
  001c3	0f 84 13 02 00
	00		 je	 $LN70@encodeStri
  001c9	32 d3		 xor	 dl, bl
  001cb	88 50 1a	 mov	 BYTE PTR [eax+26], dl
  001ce	8a 51 1b	 mov	 dl, BYTE PTR [ecx+27]
  001d1	84 d2		 test	 dl, dl
  001d3	0f 84 fa 01 00
	00		 je	 $LN69@encodeStri
  001d9	80 f2 ea	 xor	 dl, -22			; ffffffeaH
  001dc	88 50 1b	 mov	 BYTE PTR [eax+27], dl
  001df	8a 51 1c	 mov	 dl, BYTE PTR [ecx+28]
  001e2	84 d2		 test	 dl, dl
  001e4	0f 84 e0 01 00
	00		 je	 $LN68@encodeStri
  001ea	80 f2 ed	 xor	 dl, -19			; ffffffedH
  001ed	88 50 1c	 mov	 BYTE PTR [eax+28], dl
  001f0	8a 51 1d	 mov	 dl, BYTE PTR [ecx+29]
  001f3	84 d2		 test	 dl, dl
  001f5	0f 84 c6 01 00
	00		 je	 $LN67@encodeStri
  001fb	80 f2 ec	 xor	 dl, -20			; ffffffecH
  001fe	88 50 1d	 mov	 BYTE PTR [eax+29], dl
  00201	8a 51 1e	 mov	 dl, BYTE PTR [ecx+30]
  00204	84 d2		 test	 dl, dl
  00206	0f 84 ad 01 00
	00		 je	 $LN66@encodeStri
  0020c	32 d3		 xor	 dl, bl
  0020e	88 50 1e	 mov	 BYTE PTR [eax+30], dl
  00211	8a 51 1f	 mov	 dl, BYTE PTR [ecx+31]
  00214	84 d2		 test	 dl, dl
  00216	0f 84 94 01 00
	00		 je	 $LN65@encodeStri
  0021c	80 f2 ea	 xor	 dl, -22			; ffffffeaH
  0021f	88 50 1f	 mov	 BYTE PTR [eax+31], dl
  00222	8a 51 20	 mov	 dl, BYTE PTR [ecx+32]
  00225	84 d2		 test	 dl, dl
  00227	0f 84 7a 01 00
	00		 je	 $LN64@encodeStri
  0022d	80 f2 ed	 xor	 dl, -19			; ffffffedH
  00230	88 50 20	 mov	 BYTE PTR [eax+32], dl
  00233	8a 51 21	 mov	 dl, BYTE PTR [ecx+33]
  00236	84 d2		 test	 dl, dl
  00238	0f 84 60 01 00
	00		 je	 $LN63@encodeStri
  0023e	80 f2 ec	 xor	 dl, -20			; ffffffecH
  00241	88 50 21	 mov	 BYTE PTR [eax+33], dl
  00244	8a 51 22	 mov	 dl, BYTE PTR [ecx+34]
  00247	84 d2		 test	 dl, dl
  00249	0f 84 47 01 00
	00		 je	 $LN62@encodeStri
  0024f	32 d3		 xor	 dl, bl
  00251	88 50 22	 mov	 BYTE PTR [eax+34], dl
  00254	8a 51 23	 mov	 dl, BYTE PTR [ecx+35]
  00257	84 d2		 test	 dl, dl
  00259	0f 84 2e 01 00
	00		 je	 $LN61@encodeStri
  0025f	80 f2 ea	 xor	 dl, -22			; ffffffeaH
  00262	88 50 23	 mov	 BYTE PTR [eax+35], dl
  00265	8a 51 24	 mov	 dl, BYTE PTR [ecx+36]
  00268	84 d2		 test	 dl, dl
  0026a	0f 84 14 01 00
	00		 je	 $LN60@encodeStri
  00270	80 f2 ed	 xor	 dl, -19			; ffffffedH
  00273	88 50 24	 mov	 BYTE PTR [eax+36], dl
  00276	8a 51 25	 mov	 dl, BYTE PTR [ecx+37]
  00279	84 d2		 test	 dl, dl
  0027b	0f 84 fa 00 00
	00		 je	 $LN59@encodeStri
  00281	80 f2 ec	 xor	 dl, -20			; ffffffecH
  00284	88 50 25	 mov	 BYTE PTR [eax+37], dl
  00287	8a 51 26	 mov	 dl, BYTE PTR [ecx+38]
  0028a	84 d2		 test	 dl, dl
  0028c	0f 84 e1 00 00
	00		 je	 $LN58@encodeStri
  00292	32 d3		 xor	 dl, bl
  00294	88 50 26	 mov	 BYTE PTR [eax+38], dl
  00297	8a 51 27	 mov	 dl, BYTE PTR [ecx+39]
  0029a	84 d2		 test	 dl, dl
  0029c	0f 84 c8 00 00
	00		 je	 $LN57@encodeStri
  002a2	80 f2 ea	 xor	 dl, -22			; ffffffeaH
  002a5	88 50 27	 mov	 BYTE PTR [eax+39], dl
  002a8	8a 51 28	 mov	 dl, BYTE PTR [ecx+40]
  002ab	84 d2		 test	 dl, dl
  002ad	0f 84 ae 00 00
	00		 je	 $LN56@encodeStri
  002b3	80 f2 ed	 xor	 dl, -19			; ffffffedH
  002b6	88 50 28	 mov	 BYTE PTR [eax+40], dl
  002b9	8a 51 29	 mov	 dl, BYTE PTR [ecx+41]
  002bc	84 d2		 test	 dl, dl
  002be	0f 84 94 00 00
	00		 je	 $LN55@encodeStri
  002c4	80 f2 ec	 xor	 dl, -20			; ffffffecH
  002c7	88 50 29	 mov	 BYTE PTR [eax+41], dl
  002ca	8a 51 2a	 mov	 dl, BYTE PTR [ecx+42]
  002cd	84 d2		 test	 dl, dl
  002cf	74 7f		 je	 SHORT $LN54@encodeStri
  002d1	32 d3		 xor	 dl, bl
  002d3	88 50 2a	 mov	 BYTE PTR [eax+42], dl
  002d6	8a 51 2b	 mov	 dl, BYTE PTR [ecx+43]
  002d9	84 d2		 test	 dl, dl
  002db	74 6a		 je	 SHORT $LN53@encodeStri
  002dd	80 f2 ea	 xor	 dl, -22			; ffffffeaH
  002e0	88 50 2b	 mov	 BYTE PTR [eax+43], dl
  002e3	8a 51 2c	 mov	 dl, BYTE PTR [ecx+44]
  002e6	84 d2		 test	 dl, dl
  002e8	74 54		 je	 SHORT $LN52@encodeStri
  002ea	80 f2 ed	 xor	 dl, -19			; ffffffedH
  002ed	88 50 2c	 mov	 BYTE PTR [eax+44], dl
  002f0	8a 51 2d	 mov	 dl, BYTE PTR [ecx+45]
  002f3	84 d2		 test	 dl, dl
  002f5	74 3e		 je	 SHORT $LN51@encodeStri
  002f7	80 f2 ec	 xor	 dl, -20			; ffffffecH
  002fa	88 50 2d	 mov	 BYTE PTR [eax+45], dl
  002fd	8a 51 2e	 mov	 dl, BYTE PTR [ecx+46]
  00300	84 d2		 test	 dl, dl
  00302	74 29		 je	 SHORT $LN50@encodeStri
  00304	32 d3		 xor	 dl, bl
  00306	88 50 2e	 mov	 BYTE PTR [eax+46], dl
  00309	8a 51 2f	 mov	 dl, BYTE PTR [ecx+47]
  0030c	84 d2		 test	 dl, dl
  0030e	74 14		 je	 SHORT $LN49@encodeStri
  00310	80 f2 ea	 xor	 dl, -22			; ffffffeaH
  00313	88 50 2f	 mov	 BYTE PTR [eax+47], dl
  00316	8a 49 30	 mov	 cl, BYTE PTR [ecx+48]
  00319	80 f1 ed	 xor	 cl, -19			; ffffffedH
  0031c	88 48 30	 mov	 BYTE PTR [eax+48], cl
  0031f	e9 5d 01 00 00	 jmp	 $LN1@encodeStri
$LN49@encodeStri:
  00324	c6 40 2f ea	 mov	 BYTE PTR [eax+47], -22	; ffffffeaH
  00328	e9 54 01 00 00	 jmp	 $LN1@encodeStri
$LN50@encodeStri:
  0032d	88 58 2e	 mov	 BYTE PTR [eax+46], bl
  00330	e9 4c 01 00 00	 jmp	 $LN1@encodeStri
$LN51@encodeStri:
  00335	c6 40 2d ec	 mov	 BYTE PTR [eax+45], -20	; ffffffecH
  00339	e9 43 01 00 00	 jmp	 $LN1@encodeStri
$LN52@encodeStri:
  0033e	c6 40 2c ed	 mov	 BYTE PTR [eax+44], -19	; ffffffedH
  00342	e9 3a 01 00 00	 jmp	 $LN1@encodeStri
$LN53@encodeStri:
  00347	c6 40 2b ea	 mov	 BYTE PTR [eax+43], -22	; ffffffeaH
  0034b	e9 31 01 00 00	 jmp	 $LN1@encodeStri
$LN54@encodeStri:
  00350	88 58 2a	 mov	 BYTE PTR [eax+42], bl
  00353	e9 29 01 00 00	 jmp	 $LN1@encodeStri
$LN55@encodeStri:
  00358	c6 40 29 ec	 mov	 BYTE PTR [eax+41], -20	; ffffffecH
  0035c	e9 20 01 00 00	 jmp	 $LN1@encodeStri
$LN56@encodeStri:
  00361	c6 40 28 ed	 mov	 BYTE PTR [eax+40], -19	; ffffffedH
  00365	e9 17 01 00 00	 jmp	 $LN1@encodeStri
$LN57@encodeStri:
  0036a	c6 40 27 ea	 mov	 BYTE PTR [eax+39], -22	; ffffffeaH
  0036e	e9 0e 01 00 00	 jmp	 $LN1@encodeStri
$LN58@encodeStri:
  00373	88 58 26	 mov	 BYTE PTR [eax+38], bl
  00376	e9 06 01 00 00	 jmp	 $LN1@encodeStri
$LN59@encodeStri:
  0037b	c6 40 25 ec	 mov	 BYTE PTR [eax+37], -20	; ffffffecH
  0037f	e9 fd 00 00 00	 jmp	 $LN1@encodeStri
$LN60@encodeStri:
  00384	c6 40 24 ed	 mov	 BYTE PTR [eax+36], -19	; ffffffedH
  00388	e9 f4 00 00 00	 jmp	 $LN1@encodeStri
$LN61@encodeStri:
  0038d	c6 40 23 ea	 mov	 BYTE PTR [eax+35], -22	; ffffffeaH
  00391	e9 eb 00 00 00	 jmp	 $LN1@encodeStri
$LN62@encodeStri:
  00396	88 58 22	 mov	 BYTE PTR [eax+34], bl
  00399	e9 e3 00 00 00	 jmp	 $LN1@encodeStri
$LN63@encodeStri:
  0039e	c6 40 21 ec	 mov	 BYTE PTR [eax+33], -20	; ffffffecH
  003a2	e9 da 00 00 00	 jmp	 $LN1@encodeStri
$LN64@encodeStri:
  003a7	c6 40 20 ed	 mov	 BYTE PTR [eax+32], -19	; ffffffedH
  003ab	e9 d1 00 00 00	 jmp	 $LN1@encodeStri
$LN65@encodeStri:
  003b0	c6 40 1f ea	 mov	 BYTE PTR [eax+31], -22	; ffffffeaH
  003b4	e9 c8 00 00 00	 jmp	 $LN1@encodeStri
$LN66@encodeStri:
  003b9	88 58 1e	 mov	 BYTE PTR [eax+30], bl
  003bc	e9 c0 00 00 00	 jmp	 $LN1@encodeStri
$LN67@encodeStri:
  003c1	c6 40 1d ec	 mov	 BYTE PTR [eax+29], -20	; ffffffecH
  003c5	e9 b7 00 00 00	 jmp	 $LN1@encodeStri
$LN68@encodeStri:
  003ca	c6 40 1c ed	 mov	 BYTE PTR [eax+28], -19	; ffffffedH
  003ce	e9 ae 00 00 00	 jmp	 $LN1@encodeStri
$LN69@encodeStri:
  003d3	c6 40 1b ea	 mov	 BYTE PTR [eax+27], -22	; ffffffeaH
  003d7	e9 a5 00 00 00	 jmp	 $LN1@encodeStri
$LN70@encodeStri:
  003dc	88 58 1a	 mov	 BYTE PTR [eax+26], bl
  003df	e9 9d 00 00 00	 jmp	 $LN1@encodeStri
$LN71@encodeStri:
  003e4	c6 40 19 ec	 mov	 BYTE PTR [eax+25], -20	; ffffffecH
  003e8	e9 94 00 00 00	 jmp	 $LN1@encodeStri
$LN72@encodeStri:
  003ed	c6 40 18 ed	 mov	 BYTE PTR [eax+24], -19	; ffffffedH
  003f1	e9 8b 00 00 00	 jmp	 $LN1@encodeStri
$LN73@encodeStri:
  003f6	c6 40 17 ea	 mov	 BYTE PTR [eax+23], -22	; ffffffeaH
  003fa	e9 82 00 00 00	 jmp	 $LN1@encodeStri
$LN74@encodeStri:
  003ff	88 58 16	 mov	 BYTE PTR [eax+22], bl
  00402	eb 7d		 jmp	 SHORT $LN1@encodeStri
$LN75@encodeStri:
  00404	c6 40 15 ec	 mov	 BYTE PTR [eax+21], -20	; ffffffecH
  00408	eb 77		 jmp	 SHORT $LN1@encodeStri
$LN76@encodeStri:
  0040a	c6 40 14 ed	 mov	 BYTE PTR [eax+20], -19	; ffffffedH
  0040e	eb 71		 jmp	 SHORT $LN1@encodeStri
$LN77@encodeStri:
  00410	c6 40 13 ea	 mov	 BYTE PTR [eax+19], -22	; ffffffeaH
  00414	eb 6b		 jmp	 SHORT $LN1@encodeStri
$LN78@encodeStri:
  00416	88 58 12	 mov	 BYTE PTR [eax+18], bl
  00419	eb 66		 jmp	 SHORT $LN1@encodeStri
$LN79@encodeStri:
  0041b	c6 40 11 ec	 mov	 BYTE PTR [eax+17], -20	; ffffffecH
  0041f	eb 60		 jmp	 SHORT $LN1@encodeStri
$LN80@encodeStri:
  00421	c6 40 10 ed	 mov	 BYTE PTR [eax+16], -19	; ffffffedH
  00425	eb 5a		 jmp	 SHORT $LN1@encodeStri
$LN81@encodeStri:
  00427	c6 40 0f ea	 mov	 BYTE PTR [eax+15], -22	; ffffffeaH
  0042b	eb 54		 jmp	 SHORT $LN1@encodeStri
$LN82@encodeStri:
  0042d	88 58 0e	 mov	 BYTE PTR [eax+14], bl
  00430	eb 4f		 jmp	 SHORT $LN1@encodeStri
$LN83@encodeStri:
  00432	c6 40 0d ec	 mov	 BYTE PTR [eax+13], -20	; ffffffecH
  00436	eb 49		 jmp	 SHORT $LN1@encodeStri
$LN84@encodeStri:
  00438	c6 40 0c ed	 mov	 BYTE PTR [eax+12], -19	; ffffffedH
  0043c	eb 43		 jmp	 SHORT $LN1@encodeStri
$LN85@encodeStri:
  0043e	c6 40 0b ea	 mov	 BYTE PTR [eax+11], -22	; ffffffeaH
  00442	eb 3d		 jmp	 SHORT $LN1@encodeStri
$LN86@encodeStri:
  00444	88 58 0a	 mov	 BYTE PTR [eax+10], bl
  00447	eb 38		 jmp	 SHORT $LN1@encodeStri
$LN87@encodeStri:
  00449	c6 40 09 ec	 mov	 BYTE PTR [eax+9], -20	; ffffffecH
  0044d	eb 32		 jmp	 SHORT $LN1@encodeStri
$LN88@encodeStri:
  0044f	c6 40 08 ed	 mov	 BYTE PTR [eax+8], -19	; ffffffedH
  00453	eb 2c		 jmp	 SHORT $LN1@encodeStri
$LN89@encodeStri:
  00455	c6 40 07 ea	 mov	 BYTE PTR [eax+7], -22	; ffffffeaH
  00459	eb 26		 jmp	 SHORT $LN1@encodeStri
$LN90@encodeStri:
  0045b	88 58 06	 mov	 BYTE PTR [eax+6], bl
  0045e	eb 21		 jmp	 SHORT $LN1@encodeStri
$LN91@encodeStri:
  00460	c6 40 05 ec	 mov	 BYTE PTR [eax+5], -20	; ffffffecH
  00464	eb 1b		 jmp	 SHORT $LN1@encodeStri
$LN92@encodeStri:
  00466	c6 40 04 ed	 mov	 BYTE PTR [eax+4], -19	; ffffffedH
  0046a	eb 15		 jmp	 SHORT $LN1@encodeStri
$LN93@encodeStri:
  0046c	c6 40 03 ea	 mov	 BYTE PTR [eax+3], -22	; ffffffeaH
  00470	eb 0f		 jmp	 SHORT $LN1@encodeStri
$LN94@encodeStri:
  00472	c6 40 02 eb	 mov	 BYTE PTR [eax+2], -21	; ffffffebH
  00476	eb 09		 jmp	 SHORT $LN1@encodeStri
$LN95@encodeStri:
  00478	c6 40 01 ec	 mov	 BYTE PTR [eax+1], -20	; ffffffecH
  0047c	eb 03		 jmp	 SHORT $LN1@encodeStri
$LN96@encodeStri:
  0047e	c6 00 ed	 mov	 BYTE PTR [eax], -19	; ffffffedH
$LN1@encodeStri:
  00481	6a 06		 push	 6
  00483	5a		 pop	 edx
  00484	8b c8		 mov	 ecx, eax
  00486	c6 40 1a 00	 mov	 BYTE PTR [eax+26], 0
  0048a	5b		 pop	 ebx
$LL104@encodeStri:
  0048b	81 31 ed ec eb
	ea		 xor	 DWORD PTR [ecx], -353637139 ; eaebecedH
  00491	83 c1 04	 add	 ecx, 4
  00494	4a		 dec	 edx
  00495	75 f4		 jne	 SHORT $LL104@encodeStri
  00497	56		 push	 esi
  00498	6a 18		 push	 24			; 00000018H
  0049a	5e		 pop	 esi
$LL101@encodeStri:
  0049b	8b ce		 mov	 ecx, esi
  0049d	81 e1 03 00 00
	80		 and	 ecx, -2147483645	; 80000003H
  004a3	79 05		 jns	 SHORT $LN111@encodeStri
  004a5	49		 dec	 ecx
  004a6	83 c9 fc	 or	 ecx, -4			; fffffffcH
  004a9	41		 inc	 ecx
$LN111@encodeStri:
  004aa	b2 ed		 mov	 dl, -19			; ffffffedH
  004ac	2a d1		 sub	 dl, cl
  004ae	30 14 06	 xor	 BYTE PTR [esi+eax], dl
  004b1	46		 inc	 esi
  004b2	83 fe 1a	 cmp	 esi, 26			; 0000001aH
  004b5	7c e4		 jl	 SHORT $LL101@encodeStri
  004b7	5e		 pop	 esi

; 217  : 		return e;
; 218  : 	}

  004b8	5d		 pop	 ebp
  004b9	c2 08 00	 ret	 8
??$encodeString@$0BL@@ioINILoader_e@@AAEPADAAY0BL@$$CBDPAD@Z ENDP ; ioINILoader_e::encodeString<27>
_TEXT	ENDS
PUBLIC	??$_Copy_impl@PAUtagNamedTitleGrade@@PAU1@@std@@YAPAUtagNamedTitleGrade@@PAU1@00U_Nonscalar_ptr_iterator_tag@0@@Z ; std::_Copy_impl<tagNamedTitleGrade *,tagNamedTitleGrade *>
; Function compile flags: /Ogsp
; File c:\program files (x86)\microsoft visual studio 10.0\vc\include\xutility
;	COMDAT ??$_Copy_impl@PAUtagNamedTitleGrade@@PAU1@@std@@YAPAUtagNamedTitleGrade@@PAU1@00U_Nonscalar_ptr_iterator_tag@0@@Z
_TEXT	SEGMENT
__First$ = 8						; size = 4
__Last$ = 12						; size = 4
__Dest$ = 16						; size = 4
___formal$ = 20						; size = 1
??$_Copy_impl@PAUtagNamedTitleGrade@@PAU1@@std@@YAPAUtagNamedTitleGrade@@PAU1@00U_Nonscalar_ptr_iterator_tag@0@@Z PROC ; std::_Copy_impl<tagNamedTitleGrade *,tagNamedTitleGrade *>, COMDAT

; 2142 : 	{	// copy [_First, _Last) to [_Dest, ...), arbitrary iterators

  00000	55		 push	 ebp
  00001	8b ec		 mov	 ebp, esp
  00003	56		 push	 esi

; 2143 : 	for (; _First != _Last; ++_Dest, ++_First)

  00004	8b 75 08	 mov	 esi, DWORD PTR __First$[ebp]
  00007	57		 push	 edi
  00008	8b 7d 10	 mov	 edi, DWORD PTR __Dest$[ebp]
$LN11@Copy_impl:
  0000b	3b 75 0c	 cmp	 esi, DWORD PTR __Last$[ebp]
  0000e	74 19		 je	 SHORT $LN1@Copy_impl

; 2144 : 		*_Dest = *_First;

  00010	8b 06		 mov	 eax, DWORD PTR [esi]
  00012	89 07		 mov	 DWORD PTR [edi], eax
  00014	8d 46 04	 lea	 eax, DWORD PTR [esi+4]
  00017	50		 push	 eax
  00018	8d 4f 04	 lea	 ecx, DWORD PTR [edi+4]
  0001b	ff 15 00 00 00
	00		 call	 DWORD PTR __imp_??4ioHashString@@QAEAAV0@ABV0@@Z
  00021	83 c7 14	 add	 edi, 20			; 00000014H
  00024	83 c6 14	 add	 esi, 20			; 00000014H
  00027	eb e2		 jmp	 SHORT $LN11@Copy_impl
$LN1@Copy_impl:

; 2145 : 	return (_Dest);

  00029	8b c7		 mov	 eax, edi
  0002b	5f		 pop	 edi
  0002c	5e		 pop	 esi

; 2146 : 	}

  0002d	5d		 pop	 ebp
  0002e	c3		 ret	 0
??$_Copy_impl@PAUtagNamedTitleGrade@@PAU1@@std@@YAPAUtagNamedTitleGrade@@PAU1@00U_Nonscalar_ptr_iterator_tag@0@@Z ENDP ; std::_Copy_impl<tagNamedTitleGrade *,tagNamedTitleGrade *>
_TEXT	ENDS
PUBLIC	??$construct@AAUtagNamedTitleGrade@@@?$allocator@UtagNamedTitleGrade@@@std@@QAEXPAUtagNamedTitleGrade@@AAU2@@Z ; std::allocator<tagNamedTitleGrade>::construct<tagNamedTitleGrade &>
;	COMDAT xdata$x
; File c:\program files (x86)\microsoft visual studio 10.0\vc\include\xmemory
xdata$x	SEGMENT
__unwindtable$??$construct@AAUtagNamedTitleGrade@@@?$allocator@UtagNamedTitleGrade@@@std@@QAEXPAUtagNamedTitleGrade@@AAU2@@Z DD 0ffffffffH
	DD	FLAT:__unwindfunclet$??$construct@AAUtagNamedTitleGrade@@@?$allocator@UtagNamedTitleGrade@@@std@@QAEXPAUtagNamedTitleGrade@@AAU2@@Z$0
__ehfuncinfo$??$construct@AAUtagNamedTitleGrade@@@?$allocator@UtagNamedTitleGrade@@@std@@QAEXPAUtagNamedTitleGrade@@AAU2@@Z DD 019930522H
	DD	01H
	DD	FLAT:__unwindtable$??$construct@AAUtagNamedTitleGrade@@@?$allocator@UtagNamedTitleGrade@@@std@@QAEXPAUtagNamedTitleGrade@@AAU2@@Z
	DD	2 DUP(00H)
	DD	2 DUP(00H)
	DD	00H
	DD	01H
; Function compile flags: /Ogsp
xdata$x	ENDS
;	COMDAT ??$construct@AAUtagNamedTitleGrade@@@?$allocator@UtagNamedTitleGrade@@@std@@QAEXPAUtagNamedTitleGrade@@AAU2@@Z
_TEXT	SEGMENT
$T537777 = -16						; size = 4
__$EHRec$ = -12						; size = 12
__Ptr$ = 8						; size = 4
__Val$ = 12						; size = 4
??$construct@AAUtagNamedTitleGrade@@@?$allocator@UtagNamedTitleGrade@@@std@@QAEXPAUtagNamedTitleGrade@@AAU2@@Z PROC ; std::allocator<tagNamedTitleGrade>::construct<tagNamedTitleGrade &>, COMDAT
; _this$ = ecx

; 206  : 		void construct(pointer _Ptr, _Other&& _Val)

  00000	6a 04		 push	 4
  00002	b8 00 00 00 00	 mov	 eax, __ehhandler$??$construct@AAUtagNamedTitleGrade@@@?$allocator@UtagNamedTitleGrade@@@std@@QAEXPAUtagNamedTitleGrade@@AAU2@@Z
  00007	e8 00 00 00 00	 call	 __EH_prolog3

; 207  : 		{	// construct object at _Ptr with value _Val
; 208  : 		::new ((void _FARQ *)_Ptr) _Ty(_STD forward<_Other>(_Val));

  0000c	8b 45 08	 mov	 eax, DWORD PTR __Ptr$[ebp]
  0000f	89 45 f0	 mov	 DWORD PTR $T537777[ebp], eax
  00012	83 65 fc 00	 and	 DWORD PTR __$EHRec$[ebp+8], 0
  00016	85 c0		 test	 eax, eax
  00018	74 14		 je	 SHORT $LN3@construct
  0001a	8b 4d 0c	 mov	 ecx, DWORD PTR __Val$[ebp]
  0001d	8b 11		 mov	 edx, DWORD PTR [ecx]
  0001f	83 c1 04	 add	 ecx, 4
  00022	51		 push	 ecx
  00023	8d 48 04	 lea	 ecx, DWORD PTR [eax+4]
  00026	89 10		 mov	 DWORD PTR [eax], edx
  00028	ff 15 00 00 00
	00		 call	 DWORD PTR __imp_??0ioHashString@@QAE@ABV0@@Z
$LN3@construct:

; 209  : 		}

  0002e	e8 00 00 00 00	 call	 __EH_epilog3
  00033	c2 08 00	 ret	 8
_TEXT	ENDS
;	COMDAT text$x
text$x	SEGMENT
__unwindfunclet$??$construct@AAUtagNamedTitleGrade@@@?$allocator@UtagNamedTitleGrade@@@std@@QAEXPAUtagNamedTitleGrade@@AAU2@@Z$0:
  00000	ff 75 08	 push	 DWORD PTR __Ptr$[ebp]
  00003	ff 75 f0	 push	 DWORD PTR $T537777[ebp]
  00006	e8 00 00 00 00	 call	 ??3@YAXPAX0@Z		; operator delete
  0000b	59		 pop	 ecx
  0000c	59		 pop	 ecx
  0000d	c3		 ret	 0
__ehhandler$??$construct@AAUtagNamedTitleGrade@@@?$allocator@UtagNamedTitleGrade@@@std@@QAEXPAUtagNamedTitleGrade@@AAU2@@Z:
  0000e	8b 54 24 08	 mov	 edx, DWORD PTR [esp+8]
  00012	8d 42 0c	 lea	 eax, DWORD PTR [edx+12]
  00015	8b 4a ec	 mov	 ecx, DWORD PTR [edx-20]
  00018	33 c8		 xor	 ecx, eax
  0001a	e8 00 00 00 00	 call	 @__security_check_cookie@4
  0001f	b8 00 00 00 00	 mov	 eax, OFFSET __ehfuncinfo$??$construct@AAUtagNamedTitleGrade@@@?$allocator@UtagNamedTitleGrade@@@std@@QAEXPAUtagNamedTitleGrade@@AAU2@@Z
  00024	e9 00 00 00 00	 jmp	 ___CxxFrameHandler3
text$x	ENDS
??$construct@AAUtagNamedTitleGrade@@@?$allocator@UtagNamedTitleGrade@@@std@@QAEXPAUtagNamedTitleGrade@@AAU2@@Z ENDP ; std::allocator<tagNamedTitleGrade>::construct<tagNamedTitleGrade &>
PUBLIC	??$_Construct@UtagNamedTitleGrade@@ABU1@@std@@YAXPAUtagNamedTitleGrade@@ABU1@@Z ; std::_Construct<tagNamedTitleGrade,tagNamedTitleGrade const &>
;	COMDAT xdata$x
xdata$x	SEGMENT
__unwindtable$??$_Construct@UtagNamedTitleGrade@@ABU1@@std@@YAXPAUtagNamedTitleGrade@@ABU1@@Z DD 0ffffffffH
	DD	FLAT:__unwindfunclet$??$_Construct@UtagNamedTitleGrade@@ABU1@@std@@YAXPAUtagNamedTitleGrade@@ABU1@@Z$0
__ehfuncinfo$??$_Construct@UtagNamedTitleGrade@@ABU1@@std@@YAXPAUtagNamedTitleGrade@@ABU1@@Z DD 019930522H
	DD	01H
	DD	FLAT:__unwindtable$??$_Construct@UtagNamedTitleGrade@@ABU1@@std@@YAXPAUtagNamedTitleGrade@@ABU1@@Z
	DD	2 DUP(00H)
	DD	2 DUP(00H)
	DD	00H
	DD	01H
; Function compile flags: /Ogsp
xdata$x	ENDS
;	COMDAT ??$_Construct@UtagNamedTitleGrade@@ABU1@@std@@YAXPAUtagNamedTitleGrade@@ABU1@@Z
_TEXT	SEGMENT
$T537800 = -16						; size = 4
__$EHRec$ = -12						; size = 12
__Vptr$ = 8						; size = 4
__Ptr$ = 8						; size = 4
__Val$ = 12						; size = 4
??$_Construct@UtagNamedTitleGrade@@ABU1@@std@@YAXPAUtagNamedTitleGrade@@ABU1@@Z PROC ; std::_Construct<tagNamedTitleGrade,tagNamedTitleGrade const &>, COMDAT

; 46   : 	{	// construct object at _Ptr with value _Val

  00000	6a 04		 push	 4
  00002	b8 00 00 00 00	 mov	 eax, __ehhandler$??$_Construct@UtagNamedTitleGrade@@ABU1@@std@@YAXPAUtagNamedTitleGrade@@ABU1@@Z
  00007	e8 00 00 00 00	 call	 __EH_prolog3

; 47   : 	void _FARQ *_Vptr = _Ptr;

  0000c	8b 45 08	 mov	 eax, DWORD PTR __Ptr$[ebp]
  0000f	89 45 08	 mov	 DWORD PTR __Vptr$[ebp], eax

; 48   : 	::new (_Vptr) _Ty1(_STD forward<_Ty2>(_Val));

  00012	89 45 f0	 mov	 DWORD PTR $T537800[ebp], eax
  00015	83 65 fc 00	 and	 DWORD PTR __$EHRec$[ebp+8], 0
  00019	85 c0		 test	 eax, eax
  0001b	74 14		 je	 SHORT $LN3@Construct
  0001d	8b 4d 0c	 mov	 ecx, DWORD PTR __Val$[ebp]
  00020	8b 11		 mov	 edx, DWORD PTR [ecx]
  00022	83 c1 04	 add	 ecx, 4
  00025	51		 push	 ecx
  00026	8d 48 04	 lea	 ecx, DWORD PTR [eax+4]
  00029	89 10		 mov	 DWORD PTR [eax], edx
  0002b	ff 15 00 00 00
	00		 call	 DWORD PTR __imp_??0ioHashString@@QAE@ABV0@@Z
$LN3@Construct:

; 49   : 	}

  00031	e8 00 00 00 00	 call	 __EH_epilog3
  00036	c3		 ret	 0
_TEXT	ENDS
;	COMDAT text$x
text$x	SEGMENT
__unwindfunclet$??$_Construct@UtagNamedTitleGrade@@ABU1@@std@@YAXPAUtagNamedTitleGrade@@ABU1@@Z$0:
  00000	ff 75 08	 push	 DWORD PTR __Vptr$[ebp]
  00003	ff 75 f0	 push	 DWORD PTR $T537800[ebp]
  00006	e8 00 00 00 00	 call	 ??3@YAXPAX0@Z		; operator delete
  0000b	59		 pop	 ecx
  0000c	59		 pop	 ecx
  0000d	c3		 ret	 0
__ehhandler$??$_Construct@UtagNamedTitleGrade@@ABU1@@std@@YAXPAUtagNamedTitleGrade@@ABU1@@Z:
  0000e	8b 54 24 08	 mov	 edx, DWORD PTR [esp+8]
  00012	8d 42 0c	 lea	 eax, DWORD PTR [edx+12]
  00015	8b 4a ec	 mov	 ecx, DWORD PTR [edx-20]
  00018	33 c8		 xor	 ecx, eax
  0001a	e8 00 00 00 00	 call	 @__security_check_cookie@4
  0001f	b8 00 00 00 00	 mov	 eax, OFFSET __ehfuncinfo$??$_Construct@UtagNamedTitleGrade@@ABU1@@std@@YAXPAUtagNamedTitleGrade@@ABU1@@Z
  00024	e9 00 00 00 00	 jmp	 ___CxxFrameHandler3
text$x	ENDS
??$_Construct@UtagNamedTitleGrade@@ABU1@@std@@YAXPAUtagNamedTitleGrade@@ABU1@@Z ENDP ; std::_Construct<tagNamedTitleGrade,tagNamedTitleGrade const &>
PUBLIC	?_Buynode@?$_Tree_val@V?$_Tmap_traits@KUtagNamedTitleInfo@@U?$less@K@std@@V?$allocator@U?$pair@$$CBKUtagNamedTitleInfo@@@std@@@3@$0A@@std@@@std@@QAEPAU_Node@?$_Tree_nod@V?$_Tmap_traits@KUtagNamedTitleInfo@@U?$less@K@std@@V?$allocator@U?$pair@$$CBKUtagNamedTitleInfo@@@std@@@3@$0A@@std@@@2@XZ ; std::_Tree_val<std::_Tmap_traits<unsigned long,tagNamedTitleInfo,std::less<unsigned long>,std::allocator<std::pair<unsigned long const ,tagNamedTitleInfo> >,0> >::_Buynode
; Function compile flags: /Ogsp
; File c:\program files (x86)\microsoft visual studio 10.0\vc\include\xtree
;	COMDAT ?_Buynode@?$_Tree_val@V?$_Tmap_traits@KUtagNamedTitleInfo@@U?$less@K@std@@V?$allocator@U?$pair@$$CBKUtagNamedTitleInfo@@@std@@@3@$0A@@std@@@std@@QAEPAU_Node@?$_Tree_nod@V?$_Tmap_traits@KUtagNamedTitleInfo@@U?$less@K@std@@V?$allocator@U?$pair@$$CBKUtagNamedTitleInfo@@@std@@@3@$0A@@std@@@2@XZ
_TEXT	SEGMENT
$T537844 = -16						; size = 12
$T537828 = -4						; size = 4
?_Buynode@?$_Tree_val@V?$_Tmap_traits@KUtagNamedTitleInfo@@U?$less@K@std@@V?$allocator@U?$pair@$$CBKUtagNamedTitleInfo@@@std@@@3@$0A@@std@@@std@@QAEPAU_Node@?$_Tree_nod@V?$_Tmap_traits@KUtagNamedTitleInfo@@U?$less@K@std@@V?$allocator@U?$pair@$$CBKUtagNamedTitleInfo@@@std@@@3@$0A@@std@@@2@XZ PROC ; std::_Tree_val<std::_Tmap_traits<unsigned long,tagNamedTitleInfo,std::less<unsigned long>,std::allocator<std::pair<unsigned long const ,tagNamedTitleInfo> >,0> >::_Buynode, COMDAT
; _this$ = ecx

; 559  : 		{	// allocate a node

  00000	55		 push	 ebp
  00001	8b ec		 mov	 ebp, esp
  00003	83 ec 10	 sub	 esp, 16			; 00000010H
  00006	56		 push	 esi

; 560  : 		_Nodeptr _Wherenode = this->_Alnod.allocate(1);

  00007	6a 38		 push	 56			; 00000038H
  00009	8b f1		 mov	 esi, ecx
  0000b	e8 00 00 00 00	 call	 ??2@YAPAXI@Z		; operator new
  00010	59		 pop	 ecx
  00011	33 c9		 xor	 ecx, ecx
  00013	3b c1		 cmp	 eax, ecx
  00015	74 18		 je	 SHORT $LN5@Buynode

; 561  : 
; 562  : 		this->_Left(_Wherenode) = this->_Myhead;

  00017	8b 56 04	 mov	 edx, DWORD PTR [esi+4]
  0001a	89 10		 mov	 DWORD PTR [eax], edx

; 563  : 		this->_Parent(_Wherenode) = this->_Myhead;

  0001c	8b 56 04	 mov	 edx, DWORD PTR [esi+4]
  0001f	89 50 04	 mov	 DWORD PTR [eax+4], edx

; 564  : 		this->_Right(_Wherenode) = this->_Myhead;

  00022	8b 56 04	 mov	 edx, DWORD PTR [esi+4]
  00025	89 50 08	 mov	 DWORD PTR [eax+8], edx

; 565  : 		this->_Color(_Wherenode) = this->_Red;

  00028	66 89 48 34	 mov	 WORD PTR [eax+52], cx
  0002c	5e		 pop	 esi

; 566  : 		this->_Isnil(_Wherenode) = false;
; 567  : 		return (_Wherenode);
; 568  : 		}

  0002d	c9		 leave
  0002e	c3		 ret	 0

; 560  : 		_Nodeptr _Wherenode = this->_Alnod.allocate(1);

$LN5@Buynode:
  0002f	8d 45 fc	 lea	 eax, DWORD PTR $T537828[ebp]
  00032	89 4d fc	 mov	 DWORD PTR $T537828[ebp], ecx
  00035	50		 push	 eax
  00036	8d 4d f0	 lea	 ecx, DWORD PTR $T537844[ebp]
  00039	ff 15 00 00 00
	00		 call	 DWORD PTR __imp_??0exception@std@@QAE@ABQBD@Z
  0003f	68 00 00 00 00	 push	 OFFSET __TI2?AVbad_alloc@std@@
  00044	8d 45 f0	 lea	 eax, DWORD PTR $T537844[ebp]
  00047	50		 push	 eax
  00048	c7 45 f0 00 00
	00 00		 mov	 DWORD PTR $T537844[ebp], OFFSET ??_7bad_alloc@std@@6B@
  0004f	e8 00 00 00 00	 call	 __CxxThrowException@8
$LN27@Buynode:
$LN26@Buynode:
  00054	cc		 int	 3
?_Buynode@?$_Tree_val@V?$_Tmap_traits@KUtagNamedTitleInfo@@U?$less@K@std@@V?$allocator@U?$pair@$$CBKUtagNamedTitleInfo@@@std@@@3@$0A@@std@@@std@@QAEPAU_Node@?$_Tree_nod@V?$_Tmap_traits@KUtagNamedTitleInfo@@U?$less@K@std@@V?$allocator@U?$pair@$$CBKUtagNamedTitleInfo@@@std@@@3@$0A@@std@@@2@XZ ENDP ; std::_Tree_val<std::_Tmap_traits<unsigned long,tagNamedTitleInfo,std::less<unsigned long>,std::allocator<std::pair<unsigned long const ,tagNamedTitleInfo> >,0> >::_Buynode
_TEXT	ENDS
PUBLIC	??$?0AAV?$_Tree_iterator@V?$_Tree_val@V?$_Tmap_traits@KUtagNamedTitleInfo@@U?$less@K@std@@V?$allocator@U?$pair@$$CBKUtagNamedTitleInfo@@@std@@@3@$0A@@std@@@std@@@std@@_N@?$_Pair_base@V?$_Tree_iterator@V?$_Tree_val@V?$_Tmap_traits@KUtagNamedTitleInfo@@U?$less@K@std@@V?$allocator@U?$pair@$$CBKUtagNamedTitleInfo@@@std@@@3@$0A@@std@@@std@@@std@@_N@std@@QAE@AAV?$_Tree_iterator@V?$_Tree_val@V?$_Tmap_traits@KUtagNamedTitleInfo@@U?$less@K@std@@V?$allocator@U?$pair@$$CBKUtagNamedTitleInfo@@@std@@@3@$0A@@std@@@std@@@1@$$QA_N@Z ; std::_Pair_base<std::_Tree_iterator<std::_Tree_val<std::_Tmap_traits<unsigned long,tagNamedTitleInfo,std::less<unsigned long>,std::allocator<std::pair<unsigned long const ,tagNamedTitleInfo> >,0> > >,bool>::_Pair_base<std::_Tree_iterator<std::_Tree_val<std::_Tmap_traits<unsigned long,tagNamedTitleInfo,std::less<unsigned long>,std::allocator<std::pair<unsigned long const ,tagNamedTitleInfo> >,0> > >,bool><std::_Tree_iterator<std::_Tree_val<std::_Tmap_traits<unsigned long,tagNamedTitleInfo,std::less<unsigned long>,std::allocator<std::pair<unsigned long const ,tagNamedTitleInfo> >,0> > > &,bool>
; Function compile flags: /Ogsp
; File c:\program files (x86)\microsoft visual studio 10.0\vc\include\utility
;	COMDAT ??$?0AAV?$_Tree_iterator@V?$_Tree_val@V?$_Tmap_traits@KUtagNamedTitleInfo@@U?$less@K@std@@V?$allocator@U?$pair@$$CBKUtagNamedTitleInfo@@@std@@@3@$0A@@std@@@std@@@std@@_N@?$_Pair_base@V?$_Tree_iterator@V?$_Tree_val@V?$_Tmap_traits@KUtagNamedTitleInfo@@U?$less@K@std@@V?$allocator@U?$pair@$$CBKUtagNamedTitleInfo@@@std@@@3@$0A@@std@@@std@@@std@@_N@std@@QAE@AAV?$_Tree_iterator@V?$_Tree_val@V?$_Tmap_traits@KUtagNamedTitleInfo@@U?$less@K@std@@V?$allocator@U?$pair@$$CBKUtagNamedTitleInfo@@@std@@@3@$0A@@std@@@std@@@1@$$QA_N@Z
_TEXT	SEGMENT
__Val1$ = 8						; size = 4
__Val2$ = 12						; size = 4
??$?0AAV?$_Tree_iterator@V?$_Tree_val@V?$_Tmap_traits@KUtagNamedTitleInfo@@U?$less@K@std@@V?$allocator@U?$pair@$$CBKUtagNamedTitleInfo@@@std@@@3@$0A@@std@@@std@@@std@@_N@?$_Pair_base@V?$_Tree_iterator@V?$_Tree_val@V?$_Tmap_traits@KUtagNamedTitleInfo@@U?$less@K@std@@V?$allocator@U?$pair@$$CBKUtagNamedTitleInfo@@@std@@@3@$0A@@std@@@std@@@std@@_N@std@@QAE@AAV?$_Tree_iterator@V?$_Tree_val@V?$_Tmap_traits@KUtagNamedTitleInfo@@U?$less@K@std@@V?$allocator@U?$pair@$$CBKUtagNamedTitleInfo@@@std@@@3@$0A@@std@@@std@@@1@$$QA_N@Z PROC ; std::_Pair_base<std::_Tree_iterator<std::_Tree_val<std::_Tmap_traits<unsigned long,tagNamedTitleInfo,std::less<unsigned long>,std::allocator<std::pair<unsigned long const ,tagNamedTitleInfo> >,0> > >,bool>::_Pair_base<std::_Tree_iterator<std::_Tree_val<std::_Tmap_traits<unsigned long,tagNamedTitleInfo,std::less<unsigned long>,std::allocator<std::pair<unsigned long const ,tagNamedTitleInfo> >,0> > >,bool><std::_Tree_iterator<std::_Tree_val<std::_Tmap_traits<unsigned long,tagNamedTitleInfo,std::less<unsigned long>,std::allocator<std::pair<unsigned long const ,tagNamedTitleInfo> >,0> > > &,bool>, COMDAT
; _this$ = ecx

; 163  : 		{	// construct from moved values

  00000	55		 push	 ebp
  00001	8b ec		 mov	 ebp, esp
  00003	8b c1		 mov	 eax, ecx
  00005	8b 4d 08	 mov	 ecx, DWORD PTR __Val1$[ebp]
  00008	8b 09		 mov	 ecx, DWORD PTR [ecx]
  0000a	89 08		 mov	 DWORD PTR [eax], ecx
  0000c	8b 4d 0c	 mov	 ecx, DWORD PTR __Val2$[ebp]
  0000f	8a 09		 mov	 cl, BYTE PTR [ecx]
  00011	88 48 04	 mov	 BYTE PTR [eax+4], cl

; 164  : 		}

  00014	5d		 pop	 ebp
  00015	c2 08 00	 ret	 8
??$?0AAV?$_Tree_iterator@V?$_Tree_val@V?$_Tmap_traits@KUtagNamedTitleInfo@@U?$less@K@std@@V?$allocator@U?$pair@$$CBKUtagNamedTitleInfo@@@std@@@3@$0A@@std@@@std@@@std@@_N@?$_Pair_base@V?$_Tree_iterator@V?$_Tree_val@V?$_Tmap_traits@KUtagNamedTitleInfo@@U?$less@K@std@@V?$allocator@U?$pair@$$CBKUtagNamedTitleInfo@@@std@@@3@$0A@@std@@@std@@@std@@_N@std@@QAE@AAV?$_Tree_iterator@V?$_Tree_val@V?$_Tmap_traits@KUtagNamedTitleInfo@@U?$less@K@std@@V?$allocator@U?$pair@$$CBKUtagNamedTitleInfo@@@std@@@3@$0A@@std@@@std@@@1@$$QA_N@Z ENDP ; std::_Pair_base<std::_Tree_iterator<std::_Tree_val<std::_Tmap_traits<unsigned long,tagNamedTitleInfo,std::less<unsigned long>,std::allocator<std::pair<unsigned long const ,tagNamedTitleInfo> >,0> > >,bool>::_Pair_base<std::_Tree_iterator<std::_Tree_val<std::_Tmap_traits<unsigned long,tagNamedTitleInfo,std::less<unsigned long>,std::allocator<std::pair<unsigned long const ,tagNamedTitleInfo> >,0> > >,bool><std::_Tree_iterator<std::_Tree_val<std::_Tmap_traits<unsigned long,tagNamedTitleInfo,std::less<unsigned long>,std::allocator<std::pair<unsigned long const ,tagNamedTitleInfo> >,0> > > &,bool>
_TEXT	ENDS
PUBLIC	?begin@?$vector@UtagNamedTitleGrade@@V?$allocator@UtagNamedTitleGrade@@@std@@@std@@QBE?AV?$_Vector_const_iterator@V?$_Vector_val@UtagNamedTitleGrade@@V?$allocator@UtagNamedTitleGrade@@@std@@@std@@@2@XZ ; std::vector<tagNamedTitleGrade,std::allocator<tagNamedTitleGrade> >::begin
; Function compile flags: /Ogsp
; File c:\program files (x86)\microsoft visual studio 10.0\vc\include\vector
;	COMDAT ?begin@?$vector@UtagNamedTitleGrade@@V?$allocator@UtagNamedTitleGrade@@@std@@@std@@QBE?AV?$_Vector_const_iterator@V?$_Vector_val@UtagNamedTitleGrade@@V?$allocator@UtagNamedTitleGrade@@@std@@@std@@@2@XZ
_TEXT	SEGMENT
___$ReturnUdt$ = 8					; size = 4
?begin@?$vector@UtagNamedTitleGrade@@V?$allocator@UtagNamedTitleGrade@@@std@@@std@@QBE?AV?$_Vector_const_iterator@V?$_Vector_val@UtagNamedTitleGrade@@V?$allocator@UtagNamedTitleGrade@@@std@@@std@@@2@XZ PROC ; std::vector<tagNamedTitleGrade,std::allocator<tagNamedTitleGrade> >::begin, COMDAT
; _this$ = ecx

; 786  : 		{	// return iterator for beginning of nonmutable sequence

  00000	55		 push	 ebp
  00001	8b ec		 mov	 ebp, esp

; 787  : 		return (const_iterator(this->_Myfirst, this));

  00003	8b 09		 mov	 ecx, DWORD PTR [ecx]
  00005	8b 45 08	 mov	 eax, DWORD PTR ___$ReturnUdt$[ebp]
  00008	89 08		 mov	 DWORD PTR [eax], ecx

; 788  : 		}

  0000a	5d		 pop	 ebp
  0000b	c2 04 00	 ret	 4
?begin@?$vector@UtagNamedTitleGrade@@V?$allocator@UtagNamedTitleGrade@@@std@@@std@@QBE?AV?$_Vector_const_iterator@V?$_Vector_val@UtagNamedTitleGrade@@V?$allocator@UtagNamedTitleGrade@@@std@@@std@@@2@XZ ENDP ; std::vector<tagNamedTitleGrade,std::allocator<tagNamedTitleGrade> >::begin
_TEXT	ENDS
PUBLIC	?end@?$vector@UtagNamedTitleGrade@@V?$allocator@UtagNamedTitleGrade@@@std@@@std@@QBE?AV?$_Vector_const_iterator@V?$_Vector_val@UtagNamedTitleGrade@@V?$allocator@UtagNamedTitleGrade@@@std@@@std@@@2@XZ ; std::vector<tagNamedTitleGrade,std::allocator<tagNamedTitleGrade> >::end
; Function compile flags: /Ogsp
;	COMDAT ?end@?$vector@UtagNamedTitleGrade@@V?$allocator@UtagNamedTitleGrade@@@std@@@std@@QBE?AV?$_Vector_const_iterator@V?$_Vector_val@UtagNamedTitleGrade@@V?$allocator@UtagNamedTitleGrade@@@std@@@std@@@2@XZ
_TEXT	SEGMENT
___$ReturnUdt$ = 8					; size = 4
?end@?$vector@UtagNamedTitleGrade@@V?$allocator@UtagNamedTitleGrade@@@std@@@std@@QBE?AV?$_Vector_const_iterator@V?$_Vector_val@UtagNamedTitleGrade@@V?$allocator@UtagNamedTitleGrade@@@std@@@std@@@2@XZ PROC ; std::vector<tagNamedTitleGrade,std::allocator<tagNamedTitleGrade> >::end, COMDAT
; _this$ = ecx

; 796  : 		{	// return iterator for end of nonmutable sequence

  00000	55		 push	 ebp
  00001	8b ec		 mov	 ebp, esp

; 797  : 		return (const_iterator(this->_Mylast, this));

  00003	8b 49 04	 mov	 ecx, DWORD PTR [ecx+4]
  00006	8b 45 08	 mov	 eax, DWORD PTR ___$ReturnUdt$[ebp]
  00009	89 08		 mov	 DWORD PTR [eax], ecx

; 798  : 		}

  0000b	5d		 pop	 ebp
  0000c	c2 04 00	 ret	 4
?end@?$vector@UtagNamedTitleGrade@@V?$allocator@UtagNamedTitleGrade@@@std@@@std@@QBE?AV?$_Vector_const_iterator@V?$_Vector_val@UtagNamedTitleGrade@@V?$allocator@UtagNamedTitleGrade@@@std@@@std@@@2@XZ ENDP ; std::vector<tagNamedTitleGrade,std::allocator<tagNamedTitleGrade> >::end
_TEXT	ENDS
PUBLIC	?construct@?$allocator@UtagNamedTitleGrade@@@std@@QAEXPAUtagNamedTitleGrade@@$$QAU3@@Z ; std::allocator<tagNamedTitleGrade>::construct
;	COMDAT xdata$x
; File c:\program files (x86)\microsoft visual studio 10.0\vc\include\xmemory
xdata$x	SEGMENT
__unwindtable$?construct@?$allocator@UtagNamedTitleGrade@@@std@@QAEXPAUtagNamedTitleGrade@@$$QAU3@@Z DD 0ffffffffH
	DD	FLAT:__unwindfunclet$?construct@?$allocator@UtagNamedTitleGrade@@@std@@QAEXPAUtagNamedTitleGrade@@$$QAU3@@Z$0
__ehfuncinfo$?construct@?$allocator@UtagNamedTitleGrade@@@std@@QAEXPAUtagNamedTitleGrade@@$$QAU3@@Z DD 019930522H
	DD	01H
	DD	FLAT:__unwindtable$?construct@?$allocator@UtagNamedTitleGrade@@@std@@QAEXPAUtagNamedTitleGrade@@$$QAU3@@Z
	DD	2 DUP(00H)
	DD	2 DUP(00H)
	DD	00H
	DD	01H
; Function compile flags: /Ogsp
xdata$x	ENDS
;	COMDAT ?construct@?$allocator@UtagNamedTitleGrade@@@std@@QAEXPAUtagNamedTitleGrade@@$$QAU3@@Z
_TEXT	SEGMENT
$T537906 = -16						; size = 4
__$EHRec$ = -12						; size = 12
__Ptr$ = 8						; size = 4
__Val$ = 12						; size = 4
?construct@?$allocator@UtagNamedTitleGrade@@@std@@QAEXPAUtagNamedTitleGrade@@$$QAU3@@Z PROC ; std::allocator<tagNamedTitleGrade>::construct, COMDAT
; _this$ = ecx

; 201  : 		{	// construct object at _Ptr with value _Val

  00000	6a 04		 push	 4
  00002	b8 00 00 00 00	 mov	 eax, __ehhandler$?construct@?$allocator@UtagNamedTitleGrade@@@std@@QAEXPAUtagNamedTitleGrade@@$$QAU3@@Z
  00007	e8 00 00 00 00	 call	 __EH_prolog3

; 202  : 		::new ((void _FARQ *)_Ptr) _Ty(_STD forward<_Ty>(_Val));

  0000c	8b 45 08	 mov	 eax, DWORD PTR __Ptr$[ebp]
  0000f	89 45 f0	 mov	 DWORD PTR $T537906[ebp], eax
  00012	83 65 fc 00	 and	 DWORD PTR __$EHRec$[ebp+8], 0
  00016	85 c0		 test	 eax, eax
  00018	74 14		 je	 SHORT $LN3@construct@2
  0001a	8b 4d 0c	 mov	 ecx, DWORD PTR __Val$[ebp]
  0001d	8b 11		 mov	 edx, DWORD PTR [ecx]
  0001f	83 c1 04	 add	 ecx, 4
  00022	51		 push	 ecx
  00023	8d 48 04	 lea	 ecx, DWORD PTR [eax+4]
  00026	89 10		 mov	 DWORD PTR [eax], edx
  00028	ff 15 00 00 00
	00		 call	 DWORD PTR __imp_??0ioHashString@@QAE@ABV0@@Z
$LN3@construct@2:

; 203  : 		}

  0002e	e8 00 00 00 00	 call	 __EH_epilog3
  00033	c2 08 00	 ret	 8
_TEXT	ENDS
;	COMDAT text$x
text$x	SEGMENT
__unwindfunclet$?construct@?$allocator@UtagNamedTitleGrade@@@std@@QAEXPAUtagNamedTitleGrade@@$$QAU3@@Z$0:
  00000	ff 75 08	 push	 DWORD PTR __Ptr$[ebp]
  00003	ff 75 f0	 push	 DWORD PTR $T537906[ebp]
  00006	e8 00 00 00 00	 call	 ??3@YAXPAX0@Z		; operator delete
  0000b	59		 pop	 ecx
  0000c	59		 pop	 ecx
  0000d	c3		 ret	 0
__ehhandler$?construct@?$allocator@UtagNamedTitleGrade@@@std@@QAEXPAUtagNamedTitleGrade@@$$QAU3@@Z:
  0000e	8b 54 24 08	 mov	 edx, DWORD PTR [esp+8]
  00012	8d 42 0c	 lea	 eax, DWORD PTR [edx+12]
  00015	8b 4a ec	 mov	 ecx, DWORD PTR [edx-20]
  00018	33 c8		 xor	 ecx, eax
  0001a	e8 00 00 00 00	 call	 @__security_check_cookie@4
  0001f	b8 00 00 00 00	 mov	 eax, OFFSET __ehfuncinfo$?construct@?$allocator@UtagNamedTitleGrade@@@std@@QAEXPAUtagNamedTitleGrade@@$$QAU3@@Z
  00024	e9 00 00 00 00	 jmp	 ___CxxFrameHandler3
text$x	ENDS
?construct@?$allocator@UtagNamedTitleGrade@@@std@@QAEXPAUtagNamedTitleGrade@@$$QAU3@@Z ENDP ; std::allocator<tagNamedTitleGrade>::construct
PUBLIC	??0tagNamedTitleSlot@@QAE@XZ			; tagNamedTitleSlot::tagNamedTitleSlot
; Function compile flags: /Ogsp
; File d:\lost saga for developer\youtube\tutorial\source\src\lsclient\namedtitleenumtype.h
;	COMDAT ??0tagNamedTitleSlot@@QAE@XZ
_TEXT	SEGMENT
??0tagNamedTitleSlot@@QAE@XZ PROC			; tagNamedTitleSlot::tagNamedTitleSlot, COMDAT
; _this$ = ecx

; 63   : 	tagNamedTitleSlot()

  00000	8b c1		 mov	 eax, ecx

; 64   : 	{
; 65   : 		Init();

  00002	33 c9		 xor	 ecx, ecx
  00004	89 08		 mov	 DWORD PTR [eax], ecx
  00006	89 48 04	 mov	 DWORD PTR [eax+4], ecx
  00009	89 48 08	 mov	 DWORD PTR [eax+8], ecx
  0000c	89 48 0c	 mov	 DWORD PTR [eax+12], ecx
  0000f	66 89 48 10	 mov	 WORD PTR [eax+16], cx
  00013	88 48 12	 mov	 BYTE PTR [eax+18], cl

; 66   : 	}

  00016	c3		 ret	 0
??0tagNamedTitleSlot@@QAE@XZ ENDP			; tagNamedTitleSlot::tagNamedTitleSlot
_TEXT	ENDS
PUBLIC	??0?$_Vector_val@UtagNamedTitleGrade@@V?$allocator@UtagNamedTitleGrade@@@std@@@std@@QAE@V?$allocator@UtagNamedTitleGrade@@@1@@Z ; std::_Vector_val<tagNamedTitleGrade,std::allocator<tagNamedTitleGrade> >::_Vector_val<tagNamedTitleGrade,std::allocator<tagNamedTitleGrade> >
; Function compile flags: /Ogsp
; File c:\program files (x86)\microsoft visual studio 10.0\vc\include\vector
;	COMDAT ??0?$_Vector_val@UtagNamedTitleGrade@@V?$allocator@UtagNamedTitleGrade@@@std@@@std@@QAE@V?$allocator@UtagNamedTitleGrade@@@1@@Z
_TEXT	SEGMENT
__Al$ = 8						; size = 1
??0?$_Vector_val@UtagNamedTitleGrade@@V?$allocator@UtagNamedTitleGrade@@@std@@@std@@QAE@V?$allocator@UtagNamedTitleGrade@@@1@@Z PROC ; std::_Vector_val<tagNamedTitleGrade,std::allocator<tagNamedTitleGrade> >::_Vector_val<tagNamedTitleGrade,std::allocator<tagNamedTitleGrade> >, COMDAT
; _this$ = ecx

; 426  : 		{	// construct allocator from _Al

  00000	8b c1		 mov	 eax, ecx

; 427  : 		_Myfirst = 0;

  00002	33 c9		 xor	 ecx, ecx
  00004	89 08		 mov	 DWORD PTR [eax], ecx

; 428  : 		_Mylast = 0;

  00006	89 48 04	 mov	 DWORD PTR [eax+4], ecx

; 429  : 		_Myend = 0;

  00009	89 48 08	 mov	 DWORD PTR [eax+8], ecx

; 430  : 		}

  0000c	c2 04 00	 ret	 4
??0?$_Vector_val@UtagNamedTitleGrade@@V?$allocator@UtagNamedTitleGrade@@@std@@@std@@QAE@V?$allocator@UtagNamedTitleGrade@@@1@@Z ENDP ; std::_Vector_val<tagNamedTitleGrade,std::allocator<tagNamedTitleGrade> >::_Vector_val<tagNamedTitleGrade,std::allocator<tagNamedTitleGrade> >
_TEXT	ENDS
PUBLIC	??0?$_Vector_iterator@V?$_Vector_val@UtagNamedTitleGrade@@V?$allocator@UtagNamedTitleGrade@@@std@@@std@@@std@@QAE@PAUtagNamedTitleGrade@@PBU_Container_base0@1@@Z ; std::_Vector_iterator<std::_Vector_val<tagNamedTitleGrade,std::allocator<tagNamedTitleGrade> > >::_Vector_iterator<std::_Vector_val<tagNamedTitleGrade,std::allocator<tagNamedTitleGrade> > >
; Function compile flags: /Ogsp
;	COMDAT ??0?$_Vector_iterator@V?$_Vector_val@UtagNamedTitleGrade@@V?$allocator@UtagNamedTitleGrade@@@std@@@std@@@std@@QAE@PAUtagNamedTitleGrade@@PBU_Container_base0@1@@Z
_TEXT	SEGMENT
__Parg$ = 8						; size = 4
__Pvector$ = 12						; size = 4
??0?$_Vector_iterator@V?$_Vector_val@UtagNamedTitleGrade@@V?$allocator@UtagNamedTitleGrade@@@std@@@std@@@std@@QAE@PAUtagNamedTitleGrade@@PBU_Container_base0@1@@Z PROC ; std::_Vector_iterator<std::_Vector_val<tagNamedTitleGrade,std::allocator<tagNamedTitleGrade> > >::_Vector_iterator<std::_Vector_val<tagNamedTitleGrade,std::allocator<tagNamedTitleGrade> > >, COMDAT
; _this$ = ecx

; 304  : 		{	// construct with pointer _Parg

  00000	55		 push	 ebp
  00001	8b ec		 mov	 ebp, esp
  00003	8b c1		 mov	 eax, ecx
  00005	8b 4d 08	 mov	 ecx, DWORD PTR __Parg$[ebp]
  00008	89 08		 mov	 DWORD PTR [eax], ecx

; 305  : 		}

  0000a	5d		 pop	 ebp
  0000b	c2 08 00	 ret	 8
??0?$_Vector_iterator@V?$_Vector_val@UtagNamedTitleGrade@@V?$allocator@UtagNamedTitleGrade@@@std@@@std@@@std@@QAE@PAUtagNamedTitleGrade@@PBU_Container_base0@1@@Z ENDP ; std::_Vector_iterator<std::_Vector_val<tagNamedTitleGrade,std::allocator<tagNamedTitleGrade> > >::_Vector_iterator<std::_Vector_val<tagNamedTitleGrade,std::allocator<tagNamedTitleGrade> > >
_TEXT	ENDS
PUBLIC	??8?$_Vector_const_iterator@V?$_Vector_val@UtagNamedTitleGrade@@V?$allocator@UtagNamedTitleGrade@@@std@@@std@@@std@@QBE_NABV01@@Z ; std::_Vector_const_iterator<std::_Vector_val<tagNamedTitleGrade,std::allocator<tagNamedTitleGrade> > >::operator==
; Function compile flags: /Ogsp
;	COMDAT ??8?$_Vector_const_iterator@V?$_Vector_val@UtagNamedTitleGrade@@V?$allocator@UtagNamedTitleGrade@@@std@@@std@@@std@@QBE_NABV01@@Z
_TEXT	SEGMENT
__Right$ = 8						; size = 4
??8?$_Vector_const_iterator@V?$_Vector_val@UtagNamedTitleGrade@@V?$allocator@UtagNamedTitleGrade@@@std@@@std@@@std@@QBE_NABV01@@Z PROC ; std::_Vector_const_iterator<std::_Vector_val<tagNamedTitleGrade,std::allocator<tagNamedTitleGrade> > >::operator==, COMDAT
; _this$ = ecx

; 201  : 		{	// test for iterator equality

  00000	55		 push	 ebp
  00001	8b ec		 mov	 ebp, esp

; 202  : 		_Compat(_Right);
; 203  : 		return (this->_Ptr == _Right._Ptr);

  00003	8b 01		 mov	 eax, DWORD PTR [ecx]
  00005	8b 4d 08	 mov	 ecx, DWORD PTR __Right$[ebp]
  00008	2b 01		 sub	 eax, DWORD PTR [ecx]
  0000a	f7 d8		 neg	 eax
  0000c	1b c0		 sbb	 eax, eax
  0000e	40		 inc	 eax

; 204  : 		}

  0000f	5d		 pop	 ebp
  00010	c2 04 00	 ret	 4
??8?$_Vector_const_iterator@V?$_Vector_val@UtagNamedTitleGrade@@V?$allocator@UtagNamedTitleGrade@@@std@@@std@@@std@@QBE_NABV01@@Z ENDP ; std::_Vector_const_iterator<std::_Vector_val<tagNamedTitleGrade,std::allocator<tagNamedTitleGrade> > >::operator==
_TEXT	ENDS
PUBLIC	??$swap@D@std@@YAXAAD0@Z			; std::swap<char>
; Function compile flags: /Ogsp
; File c:\program files (x86)\microsoft visual studio 10.0\vc\include\utility
;	COMDAT ??$swap@D@std@@YAXAAD0@Z
_TEXT	SEGMENT
__Left$ = 8						; size = 4
__Right$ = 12						; size = 4
??$swap@D@std@@YAXAAD0@Z PROC				; std::swap<char>, COMDAT

; 101  : 	{	// exchange values stored at _Left and _Right

  00000	55		 push	 ebp
  00001	8b ec		 mov	 ebp, esp

; 102  : 	_Ty _Tmp = _Move(_Left);

  00003	8b 45 08	 mov	 eax, DWORD PTR __Left$[ebp]
  00006	8a 08		 mov	 cl, BYTE PTR [eax]
  00008	56		 push	 esi

; 103  : 	_Left = _Move(_Right);

  00009	8b 75 0c	 mov	 esi, DWORD PTR __Right$[ebp]
  0000c	8a 16		 mov	 dl, BYTE PTR [esi]
  0000e	88 10		 mov	 BYTE PTR [eax], dl

; 104  : 	_Right = _Move(_Tmp);

  00010	88 0e		 mov	 BYTE PTR [esi], cl
  00012	5e		 pop	 esi

; 105  : 	}

  00013	5d		 pop	 ebp
  00014	c3		 ret	 0
??$swap@D@std@@YAXAAD0@Z ENDP				; std::swap<char>
_TEXT	ENDS
PUBLIC	??$_Move@PAUtagNamedTitleGrade@@PAU1@@std@@YAPAUtagNamedTitleGrade@@PAU1@00U_Nonscalar_ptr_iterator_tag@0@@Z ; std::_Move<tagNamedTitleGrade *,tagNamedTitleGrade *>
; Function compile flags: /Ogsp
; File c:\program files (x86)\microsoft visual studio 10.0\vc\include\xutility
;	COMDAT ??$_Move@PAUtagNamedTitleGrade@@PAU1@@std@@YAPAUtagNamedTitleGrade@@PAU1@00U_Nonscalar_ptr_iterator_tag@0@@Z
_TEXT	SEGMENT
__First$ = 8						; size = 4
__Last$ = 12						; size = 4
__Dest$ = 16						; size = 4
___formal$ = 20						; size = 1
??$_Move@PAUtagNamedTitleGrade@@PAU1@@std@@YAPAUtagNamedTitleGrade@@PAU1@00U_Nonscalar_ptr_iterator_tag@0@@Z PROC ; std::_Move<tagNamedTitleGrade *,tagNamedTitleGrade *>, COMDAT

; 2512 : 	{	// move [_First, _Last) to [_Dest, ...), arbitrary iterators

  00000	55		 push	 ebp
  00001	8b ec		 mov	 ebp, esp
  00003	56		 push	 esi

; 2513 : 	for (; _First != _Last; ++_Dest, ++_First)

  00004	8b 75 08	 mov	 esi, DWORD PTR __First$[ebp]
  00007	57		 push	 edi
  00008	8b 7d 10	 mov	 edi, DWORD PTR __Dest$[ebp]
$LN13@Move:
  0000b	3b 75 0c	 cmp	 esi, DWORD PTR __Last$[ebp]
  0000e	74 19		 je	 SHORT $LN1@Move

; 2514 : 		*_Dest = _STD move(*_First);

  00010	8b 06		 mov	 eax, DWORD PTR [esi]
  00012	89 07		 mov	 DWORD PTR [edi], eax
  00014	8d 46 04	 lea	 eax, DWORD PTR [esi+4]
  00017	50		 push	 eax
  00018	8d 4f 04	 lea	 ecx, DWORD PTR [edi+4]
  0001b	ff 15 00 00 00
	00		 call	 DWORD PTR __imp_??4ioHashString@@QAEAAV0@ABV0@@Z
  00021	83 c7 14	 add	 edi, 20			; 00000014H
  00024	83 c6 14	 add	 esi, 20			; 00000014H
  00027	eb e2		 jmp	 SHORT $LN13@Move
$LN1@Move:

; 2515 : 	return (_Dest);

  00029	8b c7		 mov	 eax, edi
  0002b	5f		 pop	 edi
  0002c	5e		 pop	 esi

; 2516 : 	}

  0002d	5d		 pop	 ebp
  0002e	c3		 ret	 0
??$_Move@PAUtagNamedTitleGrade@@PAU1@@std@@YAPAUtagNamedTitleGrade@@PAU1@00U_Nonscalar_ptr_iterator_tag@0@@Z ENDP ; std::_Move<tagNamedTitleGrade *,tagNamedTitleGrade *>
_TEXT	ENDS
PUBLIC	??_GtagNamedTitleGrade@@QAEPAXI@Z		; tagNamedTitleGrade::`scalar deleting destructor'
; Function compile flags: /Ogsp
;	COMDAT ??_GtagNamedTitleGrade@@QAEPAXI@Z
_TEXT	SEGMENT
___flags$ = 8						; size = 4
??_GtagNamedTitleGrade@@QAEPAXI@Z PROC			; tagNamedTitleGrade::`scalar deleting destructor', COMDAT
; _this$ = ecx
  00000	55		 push	 ebp
  00001	8b ec		 mov	 ebp, esp
  00003	56		 push	 esi
  00004	8b f1		 mov	 esi, ecx
  00006	8d 4e 04	 lea	 ecx, DWORD PTR [esi+4]
  00009	ff 15 00 00 00
	00		 call	 DWORD PTR __imp_??1ioHashString@@QAE@XZ
  0000f	f6 45 08 01	 test	 BYTE PTR ___flags$[ebp], 1
  00013	74 07		 je	 SHORT $LN1@scalar@2
  00015	56		 push	 esi
  00016	e8 00 00 00 00	 call	 ??3@YAXPAX@Z		; operator delete
  0001b	59		 pop	 ecx
$LN1@scalar@2:
  0001c	8b c6		 mov	 eax, esi
  0001e	5e		 pop	 esi
  0001f	5d		 pop	 ebp
  00020	c2 04 00	 ret	 4
??_GtagNamedTitleGrade@@QAEPAXI@Z ENDP			; tagNamedTitleGrade::`scalar deleting destructor'
_TEXT	ENDS
PUBLIC	??_C@_0DD@PCPCHJHL@ioNamedTitleInfoManager?3?3OnNamed@ ; `string'
PUBLIC	?OnNamedTitleInsertSuccess@ioNamedTitleInfoManager@@IAEXAAVSP2Packet@@@Z ; ioNamedTitleInfoManager::OnNamedTitleInsertSuccess
EXTRN	?SetMsgBox@ioSP2GUIManager@@QAAXHPAVioWnd@@PBDZZ:PROC ; ioSP2GUIManager::SetMsgBox
EXTRN	?AddNamedTitleSlotData@ioUserNamedTitle@@QAE_NABUtagNamedTitleSlot@@@Z:PROC ; ioUserNamedTitle::AddNamedTitleSlotData
;	COMDAT ??_C@_0DD@PCPCHJHL@ioNamedTitleInfoManager?3?3OnNamed@
; File d:\lost saga for developer\youtube\tutorial\source\src\lsclient\namedtitleenumtype.h
CONST	SEGMENT
??_C@_0DD@PCPCHJHL@ioNamedTitleInfoManager?3?3OnNamed@ DB 'ioNamedTitleIn'
	DB	'foManager::OnNamedTitleInsertSuccess', 00H	; `string'
CONST	ENDS
;	COMDAT xdata$x
xdata$x	SEGMENT
__unwindtable$?OnNamedTitleInsertSuccess@ioNamedTitleInfoManager@@IAEXAAVSP2Packet@@@Z DD 0ffffffffH
	DD	FLAT:__unwindfunclet$?OnNamedTitleInsertSuccess@ioNamedTitleInfoManager@@IAEXAAVSP2Packet@@@Z$0
__ehfuncinfo$?OnNamedTitleInsertSuccess@ioNamedTitleInfoManager@@IAEXAAVSP2Packet@@@Z DD 019930522H
	DD	01H
	DD	FLAT:__unwindtable$?OnNamedTitleInsertSuccess@ioNamedTitleInfoManager@@IAEXAAVSP2Packet@@@Z
	DD	2 DUP(00H)
	DD	2 DUP(00H)
	DD	00H
	DD	01H
; Function compile flags: /Ogsp
; File d:\lost saga for developer\youtube\tutorial\source\src\lsclient\ionamedtitleinfomanager.cpp
xdata$x	ENDS
;	COMDAT ?OnNamedTitleInsertSuccess@ioNamedTitleInfoManager@@IAEXAAVSP2Packet@@@Z
_TEXT	SEGMENT
_kSlot$ = -72						; size = 24
_szOwner$ = -48						; size = 16
_nValue$ = -32						; size = 8
_nLevel$ = -24						; size = 4
_dwCode$ = -20						; size = 4
_byStatus$ = -15					; size = 1
_byEquip$ = -14						; size = 1
_byPremium$ = -13					; size = 1
__$EHRec$ = -12						; size = 12
_rkPacket$ = 8						; size = 4
?OnNamedTitleInsertSuccess@ioNamedTitleInfoManager@@IAEXAAVSP2Packet@@@Z PROC ; ioNamedTitleInfoManager::OnNamedTitleInsertSuccess, COMDAT
; _this$ = ecx

; 447  : {

  00000	6a 3c		 push	 60			; 0000003cH
  00002	b8 00 00 00 00	 mov	 eax, __ehhandler$?OnNamedTitleInsertSuccess@ioNamedTitleInfoManager@@IAEXAAVSP2Packet@@@Z
  00007	e8 00 00 00 00	 call	 __EH_prolog3

; 448  : 	ioHashString szOwner;

  0000c	8d 4d d0	 lea	 ecx, DWORD PTR _szOwner$[ebp]
  0000f	ff 15 00 00 00
	00		 call	 DWORD PTR __imp_??0ioHashString@@QAE@XZ

; 449  : 	rkPacket >> szOwner;

  00015	8b 4d 08	 mov	 ecx, DWORD PTR _rkPacket$[ebp]
  00018	83 65 fc 00	 and	 DWORD PTR __$EHRec$[ebp+8], 0
  0001c	8d 45 d0	 lea	 eax, DWORD PTR _szOwner$[ebp]
  0001f	50		 push	 eax
  00020	e8 00 00 00 00	 call	 ??5SP2Packet@@QAEAAV0@AAVioHashString@@@Z ; SP2Packet::operator>>

; 450  : 
; 451  : 	DWORD dwCode;
; 452  : 	__int64 nValue;
; 453  : 	int nLevel;
; 454  : 	BYTE byPremium, byEquip, byStatus;
; 455  : 	
; 456  : 	rkPacket >> dwCode >> nValue >> nLevel;

  00025	8b 4d 08	 mov	 ecx, DWORD PTR _rkPacket$[ebp]
  00028	8d 45 e8	 lea	 eax, DWORD PTR _nLevel$[ebp]
  0002b	50		 push	 eax
  0002c	8d 45 e0	 lea	 eax, DWORD PTR _nValue$[ebp]
  0002f	50		 push	 eax
  00030	8d 45 ec	 lea	 eax, DWORD PTR _dwCode$[ebp]
  00033	50		 push	 eax
  00034	e8 00 00 00 00	 call	 ??5SP2Packet@@QAEAAV0@AAK@Z ; SP2Packet::operator>>
  00039	8b c8		 mov	 ecx, eax
  0003b	e8 00 00 00 00	 call	 ??5SP2Packet@@QAEAAV0@AA_J@Z ; SP2Packet::operator>>
  00040	8b c8		 mov	 ecx, eax
  00042	e8 00 00 00 00	 call	 ??5SP2Packet@@QAEAAV0@AAH@Z ; SP2Packet::operator>>

; 457  : 	rkPacket >> byPremium >> byEquip >> byStatus;

  00047	8b 4d 08	 mov	 ecx, DWORD PTR _rkPacket$[ebp]
  0004a	8d 45 f1	 lea	 eax, DWORD PTR _byStatus$[ebp]
  0004d	50		 push	 eax
  0004e	8d 45 f2	 lea	 eax, DWORD PTR _byEquip$[ebp]
  00051	50		 push	 eax
  00052	8d 45 f3	 lea	 eax, DWORD PTR _byPremium$[ebp]
  00055	50		 push	 eax
  00056	e8 00 00 00 00	 call	 ??5SP2Packet@@QAEAAV0@AAE@Z ; SP2Packet::operator>>
  0005b	8b c8		 mov	 ecx, eax
  0005d	e8 00 00 00 00	 call	 ??5SP2Packet@@QAEAAV0@AAE@Z ; SP2Packet::operator>>
  00062	8b c8		 mov	 ecx, eax
  00064	e8 00 00 00 00	 call	 ??5SP2Packet@@QAEAAV0@AAE@Z ; SP2Packet::operator>>

; 458  : 
; 459  : 	ioUserNamedTitle *pUserNamedTitle = g_MyInfo.GetUserNamedTitle();

  00069	e8 00 00 00 00	 call	 ?GetSingleton@ioMyInfo@@SAAAV1@XZ ; ioMyInfo::GetSingleton
  0006e	8d 88 e8 02 00
	00		 lea	 ecx, DWORD PTR [eax+744]

; 460  : 	if( !pUserNamedTitle )

  00074	85 c9		 test	 ecx, ecx

; 461  : 		return;

  00076	74 66		 je	 SHORT $LN1@OnNamedTit@7

; 462  : 
; 463  : 	NamedTitleSlot kSlot;
; 464  : 	kSlot.m_dwCode = dwCode;

  00078	8b 45 ec	 mov	 eax, DWORD PTR _dwCode$[ebp]
  0007b	89 45 b8	 mov	 DWORD PTR _kSlot$[ebp], eax

; 465  : 	kSlot.m_nValue = nValue;

  0007e	8b 45 e0	 mov	 eax, DWORD PTR _nValue$[ebp]
  00081	89 45 c0	 mov	 DWORD PTR _kSlot$[ebp+8], eax
  00084	8b 45 e4	 mov	 eax, DWORD PTR _nValue$[ebp+4]
  00087	89 45 c4	 mov	 DWORD PTR _kSlot$[ebp+12], eax

; 466  : 	kSlot.m_nLevel = nLevel;

  0008a	8b 45 e8	 mov	 eax, DWORD PTR _nLevel$[ebp]
  0008d	89 45 bc	 mov	 DWORD PTR _kSlot$[ebp+4], eax

; 467  : 	kSlot.m_byPremium = byPremium;

  00090	8a 45 f3	 mov	 al, BYTE PTR _byPremium$[ebp]
  00093	88 45 c8	 mov	 BYTE PTR _kSlot$[ebp+16], al

; 468  : 	kSlot.m_byEquip = byEquip;

  00096	8a 45 f2	 mov	 al, BYTE PTR _byEquip$[ebp]
  00099	88 45 c9	 mov	 BYTE PTR _kSlot$[ebp+17], al

; 469  : 	kSlot.m_byStatus = byStatus;

  0009c	8a 45 f1	 mov	 al, BYTE PTR _byStatus$[ebp]
  0009f	88 45 ca	 mov	 BYTE PTR _kSlot$[ebp+18], al

; 470  : 
; 471  : 	if ( !pUserNamedTitle->AddNamedTitleSlotData( kSlot ) )

  000a2	8d 45 b8	 lea	 eax, DWORD PTR _kSlot$[ebp]
  000a5	50		 push	 eax
  000a6	e8 00 00 00 00	 call	 ?AddNamedTitleSlotData@ioUserNamedTitle@@QAE_NABUtagNamedTitleSlot@@@Z ; ioUserNamedTitle::AddNamedTitleSlotData
  000ab	84 c0		 test	 al, al
  000ad	75 2f		 jne	 SHORT $LN1@OnNamedTit@7

; 472  : 		g_GUIMgr.SetMsgBox( MB_OK, NULL, STR(1) );

  000af	6a 00		 push	 0
  000b1	6a 01		 push	 1
  000b3	68 00 00 00 00	 push	 OFFSET ??_C@_00CNPNBAHC@?$AA@
  000b8	68 00 00 00 00	 push	 OFFSET ??_C@_0DD@PCPCHJHL@ioNamedTitleInfoManager?3?3OnNamed@
  000bd	ff 15 00 00 00
	00		 call	 DWORD PTR __imp_?GetSingleton@ioStringManager@@SAAAV1@XZ
  000c3	8b c8		 mov	 ecx, eax
  000c5	ff 15 00 00 00
	00		 call	 DWORD PTR __imp_?GetString@ioStringManager@@QAEPADPBD0HW4FileNamePrefix@1@@Z
  000cb	50		 push	 eax
  000cc	6a 00		 push	 0
  000ce	6a 00		 push	 0
  000d0	e8 00 00 00 00	 call	 ?GetSingleton@ioSP2GUIManager@@SAAAV1@XZ ; ioSP2GUIManager::GetSingleton
  000d5	50		 push	 eax
  000d6	e8 00 00 00 00	 call	 ?SetMsgBox@ioSP2GUIManager@@QAAXHPAVioWnd@@PBDZZ ; ioSP2GUIManager::SetMsgBox
  000db	83 c4 10	 add	 esp, 16			; 00000010H
$LN1@OnNamedTit@7:

; 473  : }

  000de	83 4d fc ff	 or	 DWORD PTR __$EHRec$[ebp+8], -1
  000e2	8d 4d d0	 lea	 ecx, DWORD PTR _szOwner$[ebp]
  000e5	ff 15 00 00 00
	00		 call	 DWORD PTR __imp_??1ioHashString@@QAE@XZ
  000eb	e8 00 00 00 00	 call	 __EH_epilog3
  000f0	c2 04 00	 ret	 4
_TEXT	ENDS
;	COMDAT text$x
text$x	SEGMENT
__unwindfunclet$?OnNamedTitleInsertSuccess@ioNamedTitleInfoManager@@IAEXAAVSP2Packet@@@Z$0:
  00000	8d 4d d0	 lea	 ecx, DWORD PTR _szOwner$[ebp]
  00003	ff 25 00 00 00
	00		 jmp	 DWORD PTR __imp_??1ioHashString@@QAE@XZ
__ehhandler$?OnNamedTitleInsertSuccess@ioNamedTitleInfoManager@@IAEXAAVSP2Packet@@@Z:
  00009	8b 54 24 08	 mov	 edx, DWORD PTR [esp+8]
  0000d	8d 42 0c	 lea	 eax, DWORD PTR [edx+12]
  00010	8b 4a b4	 mov	 ecx, DWORD PTR [edx-76]
  00013	33 c8		 xor	 ecx, eax
  00015	e8 00 00 00 00	 call	 @__security_check_cookie@4
  0001a	b8 00 00 00 00	 mov	 eax, OFFSET __ehfuncinfo$?OnNamedTitleInsertSuccess@ioNamedTitleInfoManager@@IAEXAAVSP2Packet@@@Z
  0001f	e9 00 00 00 00	 jmp	 ___CxxFrameHandler3
text$x	ENDS
?OnNamedTitleInsertSuccess@ioNamedTitleInfoManager@@IAEXAAVSP2Packet@@@Z ENDP ; ioNamedTitleInfoManager::OnNamedTitleInsertSuccess
PUBLIC	??_C@_0DD@IOKICPNE@ioNamedTitleInfoManager?3?3OnNamed@ ; `string'
PUBLIC	?OnNamedTitleUpdateSuccess@ioNamedTitleInfoManager@@IAEXAAVSP2Packet@@@Z ; ioNamedTitleInfoManager::OnNamedTitleUpdateSuccess
EXTRN	?SetNamedTitleSlot@ioUserNamedTitle@@QAE_NABUtagNamedTitleSlot@@@Z:PROC ; ioUserNamedTitle::SetNamedTitleSlot
;	COMDAT ??_C@_0DD@IOKICPNE@ioNamedTitleInfoManager?3?3OnNamed@
; File d:\lost saga for developer\youtube\tutorial\source\src\lsclient\namedtitleenumtype.h
CONST	SEGMENT
??_C@_0DD@IOKICPNE@ioNamedTitleInfoManager?3?3OnNamed@ DB 'ioNamedTitleIn'
	DB	'foManager::OnNamedTitleUpdateSuccess', 00H	; `string'
CONST	ENDS
;	COMDAT xdata$x
xdata$x	SEGMENT
__unwindtable$?OnNamedTitleUpdateSuccess@ioNamedTitleInfoManager@@IAEXAAVSP2Packet@@@Z DD 0ffffffffH
	DD	FLAT:__unwindfunclet$?OnNamedTitleUpdateSuccess@ioNamedTitleInfoManager@@IAEXAAVSP2Packet@@@Z$0
__ehfuncinfo$?OnNamedTitleUpdateSuccess@ioNamedTitleInfoManager@@IAEXAAVSP2Packet@@@Z DD 019930522H
	DD	01H
	DD	FLAT:__unwindtable$?OnNamedTitleUpdateSuccess@ioNamedTitleInfoManager@@IAEXAAVSP2Packet@@@Z
	DD	2 DUP(00H)
	DD	2 DUP(00H)
	DD	00H
	DD	01H
; Function compile flags: /Ogsp
; File d:\lost saga for developer\youtube\tutorial\source\src\lsclient\ionamedtitleinfomanager.cpp
xdata$x	ENDS
;	COMDAT ?OnNamedTitleUpdateSuccess@ioNamedTitleInfoManager@@IAEXAAVSP2Packet@@@Z
_TEXT	SEGMENT
_kSlot$ = -72						; size = 24
_szOwner$ = -48						; size = 16
_nValue$ = -32						; size = 8
_nLevel$ = -24						; size = 4
_dwCode$ = -20						; size = 4
_byStatus$ = -15					; size = 1
_byEquip$ = -14						; size = 1
_byPremium$ = -13					; size = 1
__$EHRec$ = -12						; size = 12
_rkPacket$ = 8						; size = 4
?OnNamedTitleUpdateSuccess@ioNamedTitleInfoManager@@IAEXAAVSP2Packet@@@Z PROC ; ioNamedTitleInfoManager::OnNamedTitleUpdateSuccess, COMDAT
; _this$ = ecx

; 477  : {

  00000	6a 3c		 push	 60			; 0000003cH
  00002	b8 00 00 00 00	 mov	 eax, __ehhandler$?OnNamedTitleUpdateSuccess@ioNamedTitleInfoManager@@IAEXAAVSP2Packet@@@Z
  00007	e8 00 00 00 00	 call	 __EH_prolog3

; 478  : 	ioHashString szOwner;

  0000c	8d 4d d0	 lea	 ecx, DWORD PTR _szOwner$[ebp]
  0000f	ff 15 00 00 00
	00		 call	 DWORD PTR __imp_??0ioHashString@@QAE@XZ

; 479  : 	rkPacket >> szOwner;

  00015	8b 4d 08	 mov	 ecx, DWORD PTR _rkPacket$[ebp]
  00018	8d 45 d0	 lea	 eax, DWORD PTR _szOwner$[ebp]
  0001b	33 f6		 xor	 esi, esi
  0001d	50		 push	 eax
  0001e	89 75 fc	 mov	 DWORD PTR __$EHRec$[ebp+8], esi
  00021	e8 00 00 00 00	 call	 ??5SP2Packet@@QAEAAV0@AAVioHashString@@@Z ; SP2Packet::operator>>

; 480  : 
; 481  : 	DWORD dwCode;
; 482  : 	__int64 nValue;
; 483  : 	int nLevel;
; 484  : 	BYTE byPremium, byEquip, byStatus;
; 485  : 
; 486  : 	rkPacket >> dwCode >> nValue >> nLevel;

  00026	8b 4d 08	 mov	 ecx, DWORD PTR _rkPacket$[ebp]
  00029	8d 45 e8	 lea	 eax, DWORD PTR _nLevel$[ebp]
  0002c	50		 push	 eax
  0002d	8d 45 e0	 lea	 eax, DWORD PTR _nValue$[ebp]
  00030	50		 push	 eax
  00031	8d 45 ec	 lea	 eax, DWORD PTR _dwCode$[ebp]
  00034	50		 push	 eax
  00035	e8 00 00 00 00	 call	 ??5SP2Packet@@QAEAAV0@AAK@Z ; SP2Packet::operator>>
  0003a	8b c8		 mov	 ecx, eax
  0003c	e8 00 00 00 00	 call	 ??5SP2Packet@@QAEAAV0@AA_J@Z ; SP2Packet::operator>>
  00041	8b c8		 mov	 ecx, eax
  00043	e8 00 00 00 00	 call	 ??5SP2Packet@@QAEAAV0@AAH@Z ; SP2Packet::operator>>

; 487  : 	rkPacket >> byPremium >> byEquip >> byStatus;

  00048	8b 4d 08	 mov	 ecx, DWORD PTR _rkPacket$[ebp]
  0004b	8d 45 f1	 lea	 eax, DWORD PTR _byStatus$[ebp]
  0004e	50		 push	 eax
  0004f	8d 45 f2	 lea	 eax, DWORD PTR _byEquip$[ebp]
  00052	50		 push	 eax
  00053	8d 45 f3	 lea	 eax, DWORD PTR _byPremium$[ebp]
  00056	50		 push	 eax
  00057	e8 00 00 00 00	 call	 ??5SP2Packet@@QAEAAV0@AAE@Z ; SP2Packet::operator>>
  0005c	8b c8		 mov	 ecx, eax
  0005e	e8 00 00 00 00	 call	 ??5SP2Packet@@QAEAAV0@AAE@Z ; SP2Packet::operator>>
  00063	8b c8		 mov	 ecx, eax
  00065	e8 00 00 00 00	 call	 ??5SP2Packet@@QAEAAV0@AAE@Z ; SP2Packet::operator>>

; 488  : 	
; 489  : 	ioUserNamedTitle *pUserNamedTitle = g_MyInfo.GetUserNamedTitle();

  0006a	e8 00 00 00 00	 call	 ?GetSingleton@ioMyInfo@@SAAAV1@XZ ; ioMyInfo::GetSingleton
  0006f	8d 88 e8 02 00
	00		 lea	 ecx, DWORD PTR [eax+744]

; 490  : 	if( !pUserNamedTitle )

  00075	3b ce		 cmp	 ecx, esi

; 491  : 		return;

  00077	0f 84 a3 00 00
	00		 je	 $LN1@OnNamedTit@8

; 492  : 
; 493  : 	NamedTitleSlot kSlot;
; 494  : 	kSlot.m_dwCode = dwCode;

  0007d	8b 45 ec	 mov	 eax, DWORD PTR _dwCode$[ebp]
  00080	89 45 b8	 mov	 DWORD PTR _kSlot$[ebp], eax

; 495  : 	kSlot.m_nValue = nValue;

  00083	8b 45 e0	 mov	 eax, DWORD PTR _nValue$[ebp]
  00086	89 45 c0	 mov	 DWORD PTR _kSlot$[ebp+8], eax
  00089	8b 45 e4	 mov	 eax, DWORD PTR _nValue$[ebp+4]
  0008c	89 45 c4	 mov	 DWORD PTR _kSlot$[ebp+12], eax

; 496  : 	kSlot.m_nLevel = nLevel;

  0008f	8b 45 e8	 mov	 eax, DWORD PTR _nLevel$[ebp]
  00092	89 45 bc	 mov	 DWORD PTR _kSlot$[ebp+4], eax

; 497  : 	kSlot.m_byPremium = byPremium;

  00095	8a 45 f3	 mov	 al, BYTE PTR _byPremium$[ebp]
  00098	88 45 c8	 mov	 BYTE PTR _kSlot$[ebp+16], al

; 498  : 	kSlot.m_byEquip = byEquip;

  0009b	8a 45 f2	 mov	 al, BYTE PTR _byEquip$[ebp]
  0009e	88 45 c9	 mov	 BYTE PTR _kSlot$[ebp+17], al

; 499  : 	kSlot.m_byStatus = byStatus;

  000a1	8a 45 f1	 mov	 al, BYTE PTR _byStatus$[ebp]
  000a4	88 45 ca	 mov	 BYTE PTR _kSlot$[ebp+18], al

; 500  : 
; 501  : 	if ( !pUserNamedTitle->SetNamedTitleSlot( kSlot ) )

  000a7	8d 45 b8	 lea	 eax, DWORD PTR _kSlot$[ebp]
  000aa	50		 push	 eax
  000ab	e8 00 00 00 00	 call	 ?SetNamedTitleSlot@ioUserNamedTitle@@QAE_NABUtagNamedTitleSlot@@@Z ; ioUserNamedTitle::SetNamedTitleSlot
  000b0	84 c0		 test	 al, al
  000b2	75 2c		 jne	 SHORT $LN2@OnNamedTit@8

; 502  : 		g_GUIMgr.SetMsgBox( MB_OK, NULL, STR(1) );

  000b4	56		 push	 esi
  000b5	6a 01		 push	 1
  000b7	68 00 00 00 00	 push	 OFFSET ??_C@_00CNPNBAHC@?$AA@
  000bc	68 00 00 00 00	 push	 OFFSET ??_C@_0DD@IOKICPNE@ioNamedTitleInfoManager?3?3OnNamed@
  000c1	ff 15 00 00 00
	00		 call	 DWORD PTR __imp_?GetSingleton@ioStringManager@@SAAAV1@XZ
  000c7	8b c8		 mov	 ecx, eax
  000c9	ff 15 00 00 00
	00		 call	 DWORD PTR __imp_?GetString@ioStringManager@@QAEPADPBD0HW4FileNamePrefix@1@@Z
  000cf	50		 push	 eax
  000d0	56		 push	 esi
  000d1	56		 push	 esi
  000d2	e8 00 00 00 00	 call	 ?GetSingleton@ioSP2GUIManager@@SAAAV1@XZ ; ioSP2GUIManager::GetSingleton
  000d7	50		 push	 eax
  000d8	e8 00 00 00 00	 call	 ?SetMsgBox@ioSP2GUIManager@@QAAXHPAVioWnd@@PBDZZ ; ioSP2GUIManager::SetMsgBox
  000dd	83 c4 10	 add	 esp, 16			; 00000010H
$LN2@OnNamedTit@8:

; 503  : 
; 504  : 	NamedTitleSelectWnd *pSelectWnd = dynamic_cast<NamedTitleSelectWnd*>( g_GUIMgr.FindWnd( NAMED_TITLE_SELECT_WND ) );

  000e0	56		 push	 esi
  000e1	68 00 00 00 00	 push	 OFFSET ??_R0?AVNamedTitleSelectWnd@@@8
  000e6	68 00 00 00 00	 push	 OFFSET ??_R0?AVioWnd@@@8
  000eb	56		 push	 esi
  000ec	68 93 18 00 00	 push	 6291			; 00001893H
  000f1	e8 00 00 00 00	 call	 ?GetSingleton@ioSP2GUIManager@@SAAAV1@XZ ; ioSP2GUIManager::GetSingleton
  000f6	8b c8		 mov	 ecx, eax
  000f8	ff 15 00 00 00
	00		 call	 DWORD PTR __imp_?FindWnd@ioGUIManager@@QAEPAVioWnd@@K@Z
  000fe	50		 push	 eax
  000ff	e8 00 00 00 00	 call	 ___RTDynamicCast
  00104	8b f8		 mov	 edi, eax
  00106	83 c4 14	 add	 esp, 20			; 00000014H

; 505  : 	if( pSelectWnd && pSelectWnd->IsShow() )

  00109	3b fe		 cmp	 edi, esi
  0010b	74 13		 je	 SHORT $LN1@OnNamedTit@8
  0010d	8b cf		 mov	 ecx, edi
  0010f	ff 15 00 00 00
	00		 call	 DWORD PTR __imp_?IsShow@ioWnd@@QBE_NXZ
  00115	84 c0		 test	 al, al
  00117	74 07		 je	 SHORT $LN1@OnNamedTit@8

; 506  : 		pSelectWnd->Update();

  00119	8b cf		 mov	 ecx, edi
  0011b	e8 00 00 00 00	 call	 ?Update@NamedTitleSelectWnd@@QAEXXZ ; NamedTitleSelectWnd::Update
$LN1@OnNamedTit@8:

; 507  : }

  00120	83 4d fc ff	 or	 DWORD PTR __$EHRec$[ebp+8], -1
  00124	8d 4d d0	 lea	 ecx, DWORD PTR _szOwner$[ebp]
  00127	ff 15 00 00 00
	00		 call	 DWORD PTR __imp_??1ioHashString@@QAE@XZ
  0012d	e8 00 00 00 00	 call	 __EH_epilog3
  00132	c2 04 00	 ret	 4
_TEXT	ENDS
;	COMDAT text$x
text$x	SEGMENT
__unwindfunclet$?OnNamedTitleUpdateSuccess@ioNamedTitleInfoManager@@IAEXAAVSP2Packet@@@Z$0:
  00000	8d 4d d0	 lea	 ecx, DWORD PTR _szOwner$[ebp]
  00003	ff 25 00 00 00
	00		 jmp	 DWORD PTR __imp_??1ioHashString@@QAE@XZ
__ehhandler$?OnNamedTitleUpdateSuccess@ioNamedTitleInfoManager@@IAEXAAVSP2Packet@@@Z:
  00009	8b 54 24 08	 mov	 edx, DWORD PTR [esp+8]
  0000d	8d 42 0c	 lea	 eax, DWORD PTR [edx+12]
  00010	8b 4a b4	 mov	 ecx, DWORD PTR [edx-76]
  00013	33 c8		 xor	 ecx, eax
  00015	e8 00 00 00 00	 call	 @__security_check_cookie@4
  0001a	b8 00 00 00 00	 mov	 eax, OFFSET __ehfuncinfo$?OnNamedTitleUpdateSuccess@ioNamedTitleInfoManager@@IAEXAAVSP2Packet@@@Z
  0001f	e9 00 00 00 00	 jmp	 ___CxxFrameHandler3
text$x	ENDS
?OnNamedTitleUpdateSuccess@ioNamedTitleInfoManager@@IAEXAAVSP2Packet@@@Z ENDP ; ioNamedTitleInfoManager::OnNamedTitleUpdateSuccess
PUBLIC	??C?$_Tree_iterator@V?$_Tree_val@V?$_Tmap_traits@KUtagNamedTitleInfo@@U?$less@K@std@@V?$allocator@U?$pair@$$CBKUtagNamedTitleInfo@@@std@@@3@$0A@@std@@@std@@@std@@QBEPAU?$pair@$$CBKUtagNamedTitleInfo@@@1@XZ ; std::_Tree_iterator<std::_Tree_val<std::_Tmap_traits<unsigned long,tagNamedTitleInfo,std::less<unsigned long>,std::allocator<std::pair<unsigned long const ,tagNamedTitleInfo> >,0> > >::operator->
; Function compile flags: /Ogsp
; File c:\program files (x86)\microsoft visual studio 10.0\vc\include\xtree
;	COMDAT ??C?$_Tree_iterator@V?$_Tree_val@V?$_Tmap_traits@KUtagNamedTitleInfo@@U?$less@K@std@@V?$allocator@U?$pair@$$CBKUtagNamedTitleInfo@@@std@@@3@$0A@@std@@@std@@@std@@QBEPAU?$pair@$$CBKUtagNamedTitleInfo@@@1@XZ
_TEXT	SEGMENT
??C?$_Tree_iterator@V?$_Tree_val@V?$_Tmap_traits@KUtagNamedTitleInfo@@U?$less@K@std@@V?$allocator@U?$pair@$$CBKUtagNamedTitleInfo@@@std@@@3@$0A@@std@@@std@@@std@@QBEPAU?$pair@$$CBKUtagNamedTitleInfo@@@1@XZ PROC ; std::_Tree_iterator<std::_Tree_val<std::_Tmap_traits<unsigned long,tagNamedTitleInfo,std::less<unsigned long>,std::allocator<std::pair<unsigned long const ,tagNamedTitleInfo> >,0> > >::operator->, COMDAT
; _this$ = ecx

; 401  : 		return (&**this);

  00000	8b 01		 mov	 eax, DWORD PTR [ecx]
  00002	83 c0 0c	 add	 eax, 12			; 0000000cH

; 402  : 		}

  00005	c3		 ret	 0
??C?$_Tree_iterator@V?$_Tree_val@V?$_Tmap_traits@KUtagNamedTitleInfo@@U?$less@K@std@@V?$allocator@U?$pair@$$CBKUtagNamedTitleInfo@@@std@@@3@$0A@@std@@@std@@@std@@QBEPAU?$pair@$$CBKUtagNamedTitleInfo@@@1@XZ ENDP ; std::_Tree_iterator<std::_Tree_val<std::_Tmap_traits<unsigned long,tagNamedTitleInfo,std::less<unsigned long>,std::allocator<std::pair<unsigned long const ,tagNamedTitleInfo> >,0> > >::operator->
_TEXT	ENDS
PUBLIC	?_Buy@?$vector@UtagNamedTitleGrade@@V?$allocator@UtagNamedTitleGrade@@@std@@@std@@IAE_NI@Z ; std::vector<tagNamedTitleGrade,std::allocator<tagNamedTitleGrade> >::_Buy
; Function compile flags: /Ogsp
; File c:\program files (x86)\microsoft visual studio 10.0\vc\include\vector
;	COMDAT ?_Buy@?$vector@UtagNamedTitleGrade@@V?$allocator@UtagNamedTitleGrade@@@std@@@std@@IAE_NI@Z
_TEXT	SEGMENT
__Capacity$ = 8						; size = 4
?_Buy@?$vector@UtagNamedTitleGrade@@V?$allocator@UtagNamedTitleGrade@@@std@@@std@@IAE_NI@Z PROC ; std::vector<tagNamedTitleGrade,std::allocator<tagNamedTitleGrade> >::_Buy, COMDAT
; _this$ = ecx

; 1250 : 		{	// allocate array with _Capacity elements

  00000	55		 push	 ebp
  00001	8b ec		 mov	 ebp, esp
  00003	56		 push	 esi

; 1251 : 		this->_Myfirst = 0;

  00004	33 c0		 xor	 eax, eax
  00006	57		 push	 edi

; 1252 : 		this->_Mylast = 0;
; 1253 : 		this->_Myend = 0;
; 1254 : 
; 1255 : 		if (_Capacity == 0)

  00007	8b 7d 08	 mov	 edi, DWORD PTR __Capacity$[ebp]
  0000a	8b f1		 mov	 esi, ecx
  0000c	89 06		 mov	 DWORD PTR [esi], eax
  0000e	89 46 04	 mov	 DWORD PTR [esi+4], eax
  00011	89 46 08	 mov	 DWORD PTR [esi+8], eax
  00014	3b f8		 cmp	 edi, eax
  00016	75 04		 jne	 SHORT $LN4@Buy

; 1256 : 			return (false);

  00018	32 c0		 xor	 al, al
  0001a	eb 2b		 jmp	 SHORT $LN5@Buy
$LN4@Buy:

; 1257 : 		else if (max_size() < _Capacity)

  0001c	81 ff cc cc cc
	0c		 cmp	 edi, 214748364		; 0cccccccH
  00022	76 0b		 jbe	 SHORT $LN2@Buy

; 1258 : 			_Xlen();	// result too long

  00024	68 00 00 00 00	 push	 OFFSET ??_C@_0BD@OLBABOEK@vector?$DMT?$DO?5too?5long?$AA@
  00029	ff 15 00 00 00
	00		 call	 DWORD PTR __imp_?_Xlength_error@std@@YAXPBD@Z
$LN19@Buy:
$LN2@Buy:

; 1259 : 		else
; 1260 : 			{	// nonempty array, allocate storage
; 1261 : 			this->_Myfirst = this->_Alval.allocate(_Capacity);

  0002f	50		 push	 eax
  00030	57		 push	 edi
  00031	e8 00 00 00 00	 call	 ??$_Allocate@UtagNamedTitleGrade@@@std@@YAPAUtagNamedTitleGrade@@IPAU1@@Z ; std::_Allocate<tagNamedTitleGrade>

; 1262 : 			this->_Mylast = this->_Myfirst;
; 1263 : 			this->_Myend = this->_Myfirst + _Capacity;

  00036	6b ff 14	 imul	 edi, 20			; 00000014H
  00039	03 f8		 add	 edi, eax
  0003b	59		 pop	 ecx
  0003c	89 06		 mov	 DWORD PTR [esi], eax
  0003e	89 46 04	 mov	 DWORD PTR [esi+4], eax
  00041	59		 pop	 ecx
  00042	89 7e 08	 mov	 DWORD PTR [esi+8], edi

; 1264 : 			}
; 1265 : 		return (true);

  00045	b0 01		 mov	 al, 1
$LN5@Buy:
  00047	5f		 pop	 edi
  00048	5e		 pop	 esi

; 1266 : 		}

  00049	5d		 pop	 ebp
  0004a	c2 04 00	 ret	 4
$LN18@Buy:
?_Buy@?$vector@UtagNamedTitleGrade@@V?$allocator@UtagNamedTitleGrade@@@std@@@std@@IAE_NI@Z ENDP ; std::vector<tagNamedTitleGrade,std::allocator<tagNamedTitleGrade> >::_Buy
_TEXT	ENDS
PUBLIC	??0?$_Tree_iterator@V?$_Tree_val@V?$_Tmap_traits@KUtagNamedTitleInfo@@U?$less@K@std@@V?$allocator@U?$pair@$$CBKUtagNamedTitleInfo@@@std@@@3@$0A@@std@@@std@@@std@@QAE@PAU_Node@?$_Tree_nod@V?$_Tmap_traits@KUtagNamedTitleInfo@@U?$less@K@std@@V?$allocator@U?$pair@$$CBKUtagNamedTitleInfo@@@std@@@3@$0A@@std@@@1@PBV?$_Tree_val@V?$_Tmap_traits@KUtagNamedTitleInfo@@U?$less@K@std@@V?$allocator@U?$pair@$$CBKUtagNamedTitleInfo@@@std@@@3@$0A@@std@@@1@@Z ; std::_Tree_iterator<std::_Tree_val<std::_Tmap_traits<unsigned long,tagNamedTitleInfo,std::less<unsigned long>,std::allocator<std::pair<unsigned long const ,tagNamedTitleInfo> >,0> > >::_Tree_iterator<std::_Tree_val<std::_Tmap_traits<unsigned long,tagNamedTitleInfo,std::less<unsigned long>,std::allocator<std::pair<unsigned long const ,tagNamedTitleInfo> >,0> > >
; Function compile flags: /Ogsp
; File c:\program files (x86)\microsoft visual studio 10.0\vc\include\xtree
;	COMDAT ??0?$_Tree_iterator@V?$_Tree_val@V?$_Tmap_traits@KUtagNamedTitleInfo@@U?$less@K@std@@V?$allocator@U?$pair@$$CBKUtagNamedTitleInfo@@@std@@@3@$0A@@std@@@std@@@std@@QAE@PAU_Node@?$_Tree_nod@V?$_Tmap_traits@KUtagNamedTitleInfo@@U?$less@K@std@@V?$allocator@U?$pair@$$CBKUtagNamedTitleInfo@@@std@@@3@$0A@@std@@@1@PBV?$_Tree_val@V?$_Tmap_traits@KUtagNamedTitleInfo@@U?$less@K@std@@V?$allocator@U?$pair@$$CBKUtagNamedTitleInfo@@@std@@@3@$0A@@std@@@1@@Z
_TEXT	SEGMENT
__Pnode$ = 8						; size = 4
__Plist$ = 12						; size = 4
??0?$_Tree_iterator@V?$_Tree_val@V?$_Tmap_traits@KUtagNamedTitleInfo@@U?$less@K@std@@V?$allocator@U?$pair@$$CBKUtagNamedTitleInfo@@@std@@@3@$0A@@std@@@std@@@std@@QAE@PAU_Node@?$_Tree_nod@V?$_Tmap_traits@KUtagNamedTitleInfo@@U?$less@K@std@@V?$allocator@U?$pair@$$CBKUtagNamedTitleInfo@@@std@@@3@$0A@@std@@@1@PBV?$_Tree_val@V?$_Tmap_traits@KUtagNamedTitleInfo@@U?$less@K@std@@V?$allocator@U?$pair@$$CBKUtagNamedTitleInfo@@@std@@@3@$0A@@std@@@1@@Z PROC ; std::_Tree_iterator<std::_Tree_val<std::_Tmap_traits<unsigned long,tagNamedTitleInfo,std::less<unsigned long>,std::allocator<std::pair<unsigned long const ,tagNamedTitleInfo> >,0> > >::_Tree_iterator<std::_Tree_val<std::_Tmap_traits<unsigned long,tagNamedTitleInfo,std::less<unsigned long>,std::allocator<std::pair<unsigned long const ,tagNamedTitleInfo> >,0> > >, COMDAT
; _this$ = ecx

; 378  : 		{	// construct with node pointer _Pnode

  00000	55		 push	 ebp
  00001	8b ec		 mov	 ebp, esp
  00003	8b c1		 mov	 eax, ecx
  00005	8b 4d 08	 mov	 ecx, DWORD PTR __Pnode$[ebp]
  00008	89 08		 mov	 DWORD PTR [eax], ecx

; 379  : 		}

  0000a	5d		 pop	 ebp
  0000b	c2 08 00	 ret	 8
??0?$_Tree_iterator@V?$_Tree_val@V?$_Tmap_traits@KUtagNamedTitleInfo@@U?$less@K@std@@V?$allocator@U?$pair@$$CBKUtagNamedTitleInfo@@@std@@@3@$0A@@std@@@std@@@std@@QAE@PAU_Node@?$_Tree_nod@V?$_Tmap_traits@KUtagNamedTitleInfo@@U?$less@K@std@@V?$allocator@U?$pair@$$CBKUtagNamedTitleInfo@@@std@@@3@$0A@@std@@@1@PBV?$_Tree_val@V?$_Tmap_traits@KUtagNamedTitleInfo@@U?$less@K@std@@V?$allocator@U?$pair@$$CBKUtagNamedTitleInfo@@@std@@@3@$0A@@std@@@1@@Z ENDP ; std::_Tree_iterator<std::_Tree_val<std::_Tmap_traits<unsigned long,tagNamedTitleInfo,std::less<unsigned long>,std::allocator<std::pair<unsigned long const ,tagNamedTitleInfo> >,0> > >::_Tree_iterator<std::_Tree_val<std::_Tmap_traits<unsigned long,tagNamedTitleInfo,std::less<unsigned long>,std::allocator<std::pair<unsigned long const ,tagNamedTitleInfo> >,0> > >
_TEXT	ENDS
PUBLIC	?begin@?$_Tree@V?$_Tmap_traits@KUtagNamedTitleInfo@@U?$less@K@std@@V?$allocator@U?$pair@$$CBKUtagNamedTitleInfo@@@std@@@3@$0A@@std@@@std@@QAE?AV?$_Tree_iterator@V?$_Tree_val@V?$_Tmap_traits@KUtagNamedTitleInfo@@U?$less@K@std@@V?$allocator@U?$pair@$$CBKUtagNamedTitleInfo@@@std@@@3@$0A@@std@@@std@@@2@XZ ; std::_Tree<std::_Tmap_traits<unsigned long,tagNamedTitleInfo,std::less<unsigned long>,std::allocator<std::pair<unsigned long const ,tagNamedTitleInfo> >,0> >::begin
; Function compile flags: /Ogsp
;	COMDAT ?begin@?$_Tree@V?$_Tmap_traits@KUtagNamedTitleInfo@@U?$less@K@std@@V?$allocator@U?$pair@$$CBKUtagNamedTitleInfo@@@std@@@3@$0A@@std@@@std@@QAE?AV?$_Tree_iterator@V?$_Tree_val@V?$_Tmap_traits@KUtagNamedTitleInfo@@U?$less@K@std@@V?$allocator@U?$pair@$$CBKUtagNamedTitleInfo@@@std@@@3@$0A@@std@@@std@@@2@XZ
_TEXT	SEGMENT
___$ReturnUdt$ = 8					; size = 4
?begin@?$_Tree@V?$_Tmap_traits@KUtagNamedTitleInfo@@U?$less@K@std@@V?$allocator@U?$pair@$$CBKUtagNamedTitleInfo@@@std@@@3@$0A@@std@@@std@@QAE?AV?$_Tree_iterator@V?$_Tree_val@V?$_Tmap_traits@KUtagNamedTitleInfo@@U?$less@K@std@@V?$allocator@U?$pair@$$CBKUtagNamedTitleInfo@@@std@@@3@$0A@@std@@@std@@@2@XZ PROC ; std::_Tree<std::_Tmap_traits<unsigned long,tagNamedTitleInfo,std::less<unsigned long>,std::allocator<std::pair<unsigned long const ,tagNamedTitleInfo> >,0> >::begin, COMDAT
; _this$ = ecx

; 806  : 		{	// return iterator for beginning of mutable sequence

  00000	55		 push	 ebp
  00001	8b ec		 mov	 ebp, esp

; 807  : 		return (iterator(_Lmost(), this));

  00003	8b 41 04	 mov	 eax, DWORD PTR [ecx+4]
  00006	8b 08		 mov	 ecx, DWORD PTR [eax]
  00008	8b 45 08	 mov	 eax, DWORD PTR ___$ReturnUdt$[ebp]
  0000b	89 08		 mov	 DWORD PTR [eax], ecx

; 808  : 		}

  0000d	5d		 pop	 ebp
  0000e	c2 04 00	 ret	 4
?begin@?$_Tree@V?$_Tmap_traits@KUtagNamedTitleInfo@@U?$less@K@std@@V?$allocator@U?$pair@$$CBKUtagNamedTitleInfo@@@std@@@3@$0A@@std@@@std@@QAE?AV?$_Tree_iterator@V?$_Tree_val@V?$_Tmap_traits@KUtagNamedTitleInfo@@U?$less@K@std@@V?$allocator@U?$pair@$$CBKUtagNamedTitleInfo@@@std@@@3@$0A@@std@@@std@@@2@XZ ENDP ; std::_Tree<std::_Tmap_traits<unsigned long,tagNamedTitleInfo,std::less<unsigned long>,std::allocator<std::pair<unsigned long const ,tagNamedTitleInfo> >,0> >::begin
_TEXT	ENDS
PUBLIC	??0?$_Tree_val@V?$_Tmap_traits@KUtagNamedTitleInfo@@U?$less@K@std@@V?$allocator@U?$pair@$$CBKUtagNamedTitleInfo@@@std@@@3@$0A@@std@@@std@@QAE@ABU?$less@K@1@V?$allocator@U?$pair@$$CBKUtagNamedTitleInfo@@@std@@@1@@Z ; std::_Tree_val<std::_Tmap_traits<unsigned long,tagNamedTitleInfo,std::less<unsigned long>,std::allocator<std::pair<unsigned long const ,tagNamedTitleInfo> >,0> >::_Tree_val<std::_Tmap_traits<unsigned long,tagNamedTitleInfo,std::less<unsigned long>,std::allocator<std::pair<unsigned long const ,tagNamedTitleInfo> >,0> >
; Function compile flags: /Ogsp
;	COMDAT ??0?$_Tree_val@V?$_Tmap_traits@KUtagNamedTitleInfo@@U?$less@K@std@@V?$allocator@U?$pair@$$CBKUtagNamedTitleInfo@@@std@@@3@$0A@@std@@@std@@QAE@ABU?$less@K@1@V?$allocator@U?$pair@$$CBKUtagNamedTitleInfo@@@std@@@1@@Z
_TEXT	SEGMENT
$T538170 = -16						; size = 12
$T538154 = -4						; size = 4
__Parg$ = 8						; size = 4
__Al$ = 12						; size = 1
??0?$_Tree_val@V?$_Tmap_traits@KUtagNamedTitleInfo@@U?$less@K@std@@V?$allocator@U?$pair@$$CBKUtagNamedTitleInfo@@@std@@@3@$0A@@std@@@std@@QAE@ABU?$less@K@1@V?$allocator@U?$pair@$$CBKUtagNamedTitleInfo@@@std@@@1@@Z PROC ; std::_Tree_val<std::_Tmap_traits<unsigned long,tagNamedTitleInfo,std::less<unsigned long>,std::allocator<std::pair<unsigned long const ,tagNamedTitleInfo> >,0> >::_Tree_val<std::_Tmap_traits<unsigned long,tagNamedTitleInfo,std::less<unsigned long>,std::allocator<std::pair<unsigned long const ,tagNamedTitleInfo> >,0> >, COMDAT
; _this$ = ecx

; 542  : 		{	// construct base, and allocator from _Al

  00000	55		 push	 ebp
  00001	8b ec		 mov	 ebp, esp
  00003	83 ec 10	 sub	 esp, 16			; 00000010H
  00006	56		 push	 esi
  00007	8b f1		 mov	 esi, ecx

; 543  : 		this->_Mysize = 0;

  00009	83 66 08 00	 and	 DWORD PTR [esi+8], 0

; 544  : 		this->_Myhead = this->_Alnod.allocate(1);

  0000d	6a 38		 push	 56			; 00000038H
  0000f	e8 00 00 00 00	 call	 ??2@YAPAXI@Z		; operator new
  00014	59		 pop	 ecx
  00015	85 c0		 test	 eax, eax
  00017	74 26		 je	 SHORT $LN15@Tree_val
  00019	89 46 04	 mov	 DWORD PTR [esi+4], eax

; 545  : 
; 546  : 		this->_Left(this->_Myhead) = this->_Myhead;

  0001c	89 00		 mov	 DWORD PTR [eax], eax

; 547  : 		this->_Parent(this->_Myhead) = this->_Myhead;

  0001e	8b 46 04	 mov	 eax, DWORD PTR [esi+4]
  00021	89 40 04	 mov	 DWORD PTR [eax+4], eax

; 548  : 		this->_Right(this->_Myhead) = this->_Myhead;

  00024	8b 46 04	 mov	 eax, DWORD PTR [esi+4]
  00027	89 40 08	 mov	 DWORD PTR [eax+8], eax

; 549  : 		this->_Color(this->_Myhead) = this->_Black;

  0002a	8b 46 04	 mov	 eax, DWORD PTR [esi+4]
  0002d	c6 40 34 01	 mov	 BYTE PTR [eax+52], 1

; 550  : 		this->_Isnil(this->_Myhead) = true;

  00031	8b 46 04	 mov	 eax, DWORD PTR [esi+4]
  00034	c6 40 35 01	 mov	 BYTE PTR [eax+53], 1

; 551  : 		}

  00038	8b c6		 mov	 eax, esi
  0003a	5e		 pop	 esi
  0003b	c9		 leave
  0003c	c2 08 00	 ret	 8

; 544  : 		this->_Myhead = this->_Alnod.allocate(1);

$LN15@Tree_val:
  0003f	83 65 fc 00	 and	 DWORD PTR $T538154[ebp], 0
  00043	8d 45 fc	 lea	 eax, DWORD PTR $T538154[ebp]
  00046	50		 push	 eax
  00047	8d 4d f0	 lea	 ecx, DWORD PTR $T538170[ebp]
  0004a	ff 15 00 00 00
	00		 call	 DWORD PTR __imp_??0exception@std@@QAE@ABQBD@Z
  00050	68 00 00 00 00	 push	 OFFSET __TI2?AVbad_alloc@std@@
  00055	8d 45 f0	 lea	 eax, DWORD PTR $T538170[ebp]
  00058	50		 push	 eax
  00059	c7 45 f0 00 00
	00 00		 mov	 DWORD PTR $T538170[ebp], OFFSET ??_7bad_alloc@std@@6B@
  00060	e8 00 00 00 00	 call	 __CxxThrowException@8
$LN37@Tree_val:
$LN36@Tree_val:
  00065	cc		 int	 3
??0?$_Tree_val@V?$_Tmap_traits@KUtagNamedTitleInfo@@U?$less@K@std@@V?$allocator@U?$pair@$$CBKUtagNamedTitleInfo@@@std@@@3@$0A@@std@@@std@@QAE@ABU?$less@K@1@V?$allocator@U?$pair@$$CBKUtagNamedTitleInfo@@@std@@@1@@Z ENDP ; std::_Tree_val<std::_Tmap_traits<unsigned long,tagNamedTitleInfo,std::less<unsigned long>,std::allocator<std::pair<unsigned long const ,tagNamedTitleInfo> >,0> >::_Tree_val<std::_Tmap_traits<unsigned long,tagNamedTitleInfo,std::less<unsigned long>,std::allocator<std::pair<unsigned long const ,tagNamedTitleInfo> >,0> >
_TEXT	ENDS
PUBLIC	??E?$_Tree_const_iterator@V?$_Tree_val@V?$_Tmap_traits@KUtagNamedTitleInfo@@U?$less@K@std@@V?$allocator@U?$pair@$$CBKUtagNamedTitleInfo@@@std@@@3@$0A@@std@@@std@@@std@@QAE?AV01@H@Z ; std::_Tree_const_iterator<std::_Tree_val<std::_Tmap_traits<unsigned long,tagNamedTitleInfo,std::less<unsigned long>,std::allocator<std::pair<unsigned long const ,tagNamedTitleInfo> >,0> > >::operator++
; Function compile flags: /Ogsp
;	COMDAT ??E?$_Tree_const_iterator@V?$_Tree_val@V?$_Tmap_traits@KUtagNamedTitleInfo@@U?$less@K@std@@V?$allocator@U?$pair@$$CBKUtagNamedTitleInfo@@@std@@@3@$0A@@std@@@std@@@std@@QAE?AV01@H@Z
_TEXT	SEGMENT
___$ReturnUdt$ = 8					; size = 4
___formal$ = 12						; size = 4
??E?$_Tree_const_iterator@V?$_Tree_val@V?$_Tmap_traits@KUtagNamedTitleInfo@@U?$less@K@std@@V?$allocator@U?$pair@$$CBKUtagNamedTitleInfo@@@std@@@3@$0A@@std@@@std@@@std@@QAE?AV01@H@Z PROC ; std::_Tree_const_iterator<std::_Tree_val<std::_Tmap_traits<unsigned long,tagNamedTitleInfo,std::less<unsigned long>,std::allocator<std::pair<unsigned long const ,tagNamedTitleInfo> >,0> > >::operator++, COMDAT
; _this$ = ecx

; 270  : 		{	// postincrement

  00000	55		 push	 ebp
  00001	8b ec		 mov	 ebp, esp

; 271  : 		_Myiter _Tmp = *this;

  00003	8b 01		 mov	 eax, DWORD PTR [ecx]
  00005	56		 push	 esi
  00006	8b 75 08	 mov	 esi, DWORD PTR ___$ReturnUdt$[ebp]
  00009	89 06		 mov	 DWORD PTR [esi], eax

; 272  : 		++*this;

  0000b	e8 00 00 00 00	 call	 ??E?$_Tree_unchecked_const_iterator@V?$_Tree_val@V?$_Tmap_traits@KUtagNamedTitleInfo@@U?$less@K@std@@V?$allocator@U?$pair@$$CBKUtagNamedTitleInfo@@@std@@@3@$0A@@std@@@std@@U_Iterator_base0@2@@std@@QAEAAV01@XZ ; std::_Tree_unchecked_const_iterator<std::_Tree_val<std::_Tmap_traits<unsigned long,tagNamedTitleInfo,std::less<unsigned long>,std::allocator<std::pair<unsigned long const ,tagNamedTitleInfo> >,0> >,std::_Iterator_base0>::operator++

; 273  : 		return (_Tmp);

  00010	8b c6		 mov	 eax, esi
  00012	5e		 pop	 esi

; 274  : 		}

  00013	5d		 pop	 ebp
  00014	c2 08 00	 ret	 8
??E?$_Tree_const_iterator@V?$_Tree_val@V?$_Tmap_traits@KUtagNamedTitleInfo@@U?$less@K@std@@V?$allocator@U?$pair@$$CBKUtagNamedTitleInfo@@@std@@@3@$0A@@std@@@std@@@std@@QAE?AV01@H@Z ENDP ; std::_Tree_const_iterator<std::_Tree_val<std::_Tmap_traits<unsigned long,tagNamedTitleInfo,std::less<unsigned long>,std::allocator<std::pair<unsigned long const ,tagNamedTitleInfo> >,0> > >::operator++
_TEXT	ENDS
PUBLIC	??$?0$0BL@@ioINILoader_e@@QAE@AAY0BL@$$CBD_N@Z	; ioINILoader_e::ioINILoader_e<27>
EXTRN	__imp_??0ioINILoader@@QAE@PBD_N@Z:PROC
; Function compile flags: /Ogsp
; File d:\lost saga for developer\youtube\tutorial\source\src\io3dengine\ioiniloader.h
;	COMDAT ??$?0$0BL@@ioINILoader_e@@QAE@AAY0BL@$$CBD_N@Z
_TEXT	SEGMENT
_fn$ = 8						; size = 4
_b$ = 12						; size = 1
??$?0$0BL@@ioINILoader_e@@QAE@AAY0BL@$$CBD_N@Z PROC	; ioINILoader_e::ioINILoader_e<27>, COMDAT
; _this$ = ecx

; 224  : 	{

  00000	55		 push	 ebp
  00001	8b ec		 mov	 ebp, esp
  00003	53		 push	 ebx
  00004	56		 push	 esi
  00005	57		 push	 edi
  00006	8b f9		 mov	 edi, ecx
  00008	8b 4d 08	 mov	 ecx, DWORD PTR _fn$[ebp]
  0000b	8a 11		 mov	 dl, BYTE PTR [ecx]
  0000d	8d 87 50 03 00
	00		 lea	 eax, DWORD PTR [edi+848]
  00013	84 d2		 test	 dl, dl
  00015	0f 84 6a 04 00
	00		 je	 $LN99@ioINILoade
  0001b	80 f2 ed	 xor	 dl, -19			; ffffffedH
  0001e	88 10		 mov	 BYTE PTR [eax], dl
  00020	8a 51 01	 mov	 dl, BYTE PTR [ecx+1]
  00023	84 d2		 test	 dl, dl
  00025	0f 84 54 04 00
	00		 je	 $LN98@ioINILoade
  0002b	80 f2 ec	 xor	 dl, -20			; ffffffecH
  0002e	88 50 01	 mov	 BYTE PTR [eax+1], dl
  00031	8a 51 02	 mov	 dl, BYTE PTR [ecx+2]
  00034	84 d2		 test	 dl, dl
  00036	0f 84 3d 04 00
	00		 je	 $LN97@ioINILoade
  0003c	b3 eb		 mov	 bl, -21			; ffffffebH
  0003e	32 d3		 xor	 dl, bl
  00040	88 50 02	 mov	 BYTE PTR [eax+2], dl
  00043	8a 51 03	 mov	 dl, BYTE PTR [ecx+3]
  00046	84 d2		 test	 dl, dl
  00048	0f 84 25 04 00
	00		 je	 $LN96@ioINILoade
  0004e	80 f2 ea	 xor	 dl, -22			; ffffffeaH
  00051	88 50 03	 mov	 BYTE PTR [eax+3], dl
  00054	8a 51 04	 mov	 dl, BYTE PTR [ecx+4]
  00057	84 d2		 test	 dl, dl
  00059	0f 84 0e 04 00
	00		 je	 $LN95@ioINILoade
  0005f	80 f2 ed	 xor	 dl, -19			; ffffffedH
  00062	88 50 04	 mov	 BYTE PTR [eax+4], dl
  00065	8a 51 05	 mov	 dl, BYTE PTR [ecx+5]
  00068	84 d2		 test	 dl, dl
  0006a	0f 84 f7 03 00
	00		 je	 $LN94@ioINILoade
  00070	80 f2 ec	 xor	 dl, -20			; ffffffecH
  00073	88 50 05	 mov	 BYTE PTR [eax+5], dl
  00076	8a 51 06	 mov	 dl, BYTE PTR [ecx+6]
  00079	84 d2		 test	 dl, dl
  0007b	0f 84 e1 03 00
	00		 je	 $LN93@ioINILoade
  00081	32 d3		 xor	 dl, bl
  00083	88 50 06	 mov	 BYTE PTR [eax+6], dl
  00086	8a 51 07	 mov	 dl, BYTE PTR [ecx+7]
  00089	84 d2		 test	 dl, dl
  0008b	0f 84 cb 03 00
	00		 je	 $LN92@ioINILoade
  00091	80 f2 ea	 xor	 dl, -22			; ffffffeaH
  00094	88 50 07	 mov	 BYTE PTR [eax+7], dl
  00097	8a 51 08	 mov	 dl, BYTE PTR [ecx+8]
  0009a	84 d2		 test	 dl, dl
  0009c	0f 84 b4 03 00
	00		 je	 $LN91@ioINILoade
  000a2	80 f2 ed	 xor	 dl, -19			; ffffffedH
  000a5	88 50 08	 mov	 BYTE PTR [eax+8], dl
  000a8	8a 51 09	 mov	 dl, BYTE PTR [ecx+9]
  000ab	84 d2		 test	 dl, dl
  000ad	0f 84 9d 03 00
	00		 je	 $LN90@ioINILoade
  000b3	80 f2 ec	 xor	 dl, -20			; ffffffecH
  000b6	88 50 09	 mov	 BYTE PTR [eax+9], dl
  000b9	8a 51 0a	 mov	 dl, BYTE PTR [ecx+10]
  000bc	84 d2		 test	 dl, dl
  000be	0f 84 87 03 00
	00		 je	 $LN89@ioINILoade
  000c4	32 d3		 xor	 dl, bl
  000c6	88 50 0a	 mov	 BYTE PTR [eax+10], dl
  000c9	8a 51 0b	 mov	 dl, BYTE PTR [ecx+11]
  000cc	84 d2		 test	 dl, dl
  000ce	0f 84 71 03 00
	00		 je	 $LN88@ioINILoade
  000d4	80 f2 ea	 xor	 dl, -22			; ffffffeaH
  000d7	88 50 0b	 mov	 BYTE PTR [eax+11], dl
  000da	8a 51 0c	 mov	 dl, BYTE PTR [ecx+12]
  000dd	84 d2		 test	 dl, dl
  000df	0f 84 5a 03 00
	00		 je	 $LN87@ioINILoade
  000e5	80 f2 ed	 xor	 dl, -19			; ffffffedH
  000e8	88 50 0c	 mov	 BYTE PTR [eax+12], dl
  000eb	8a 51 0d	 mov	 dl, BYTE PTR [ecx+13]
  000ee	84 d2		 test	 dl, dl
  000f0	0f 84 43 03 00
	00		 je	 $LN86@ioINILoade
  000f6	80 f2 ec	 xor	 dl, -20			; ffffffecH
  000f9	88 50 0d	 mov	 BYTE PTR [eax+13], dl
  000fc	8a 51 0e	 mov	 dl, BYTE PTR [ecx+14]
  000ff	84 d2		 test	 dl, dl
  00101	0f 84 2d 03 00
	00		 je	 $LN85@ioINILoade
  00107	32 d3		 xor	 dl, bl
  00109	88 50 0e	 mov	 BYTE PTR [eax+14], dl
  0010c	8a 51 0f	 mov	 dl, BYTE PTR [ecx+15]
  0010f	84 d2		 test	 dl, dl
  00111	0f 84 17 03 00
	00		 je	 $LN84@ioINILoade
  00117	80 f2 ea	 xor	 dl, -22			; ffffffeaH
  0011a	88 50 0f	 mov	 BYTE PTR [eax+15], dl
  0011d	8a 51 10	 mov	 dl, BYTE PTR [ecx+16]
  00120	84 d2		 test	 dl, dl
  00122	0f 84 00 03 00
	00		 je	 $LN83@ioINILoade
  00128	80 f2 ed	 xor	 dl, -19			; ffffffedH
  0012b	88 50 10	 mov	 BYTE PTR [eax+16], dl
  0012e	8a 51 11	 mov	 dl, BYTE PTR [ecx+17]
  00131	84 d2		 test	 dl, dl
  00133	0f 84 e9 02 00
	00		 je	 $LN82@ioINILoade
  00139	80 f2 ec	 xor	 dl, -20			; ffffffecH
  0013c	88 50 11	 mov	 BYTE PTR [eax+17], dl
  0013f	8a 51 12	 mov	 dl, BYTE PTR [ecx+18]
  00142	84 d2		 test	 dl, dl
  00144	0f 84 d3 02 00
	00		 je	 $LN81@ioINILoade
  0014a	32 d3		 xor	 dl, bl
  0014c	88 50 12	 mov	 BYTE PTR [eax+18], dl
  0014f	8a 51 13	 mov	 dl, BYTE PTR [ecx+19]
  00152	84 d2		 test	 dl, dl
  00154	0f 84 bd 02 00
	00		 je	 $LN80@ioINILoade
  0015a	80 f2 ea	 xor	 dl, -22			; ffffffeaH
  0015d	88 50 13	 mov	 BYTE PTR [eax+19], dl
  00160	8a 51 14	 mov	 dl, BYTE PTR [ecx+20]
  00163	84 d2		 test	 dl, dl
  00165	0f 84 a6 02 00
	00		 je	 $LN79@ioINILoade
  0016b	80 f2 ed	 xor	 dl, -19			; ffffffedH
  0016e	88 50 14	 mov	 BYTE PTR [eax+20], dl
  00171	8a 51 15	 mov	 dl, BYTE PTR [ecx+21]
  00174	84 d2		 test	 dl, dl
  00176	0f 84 8f 02 00
	00		 je	 $LN78@ioINILoade
  0017c	80 f2 ec	 xor	 dl, -20			; ffffffecH
  0017f	88 50 15	 mov	 BYTE PTR [eax+21], dl
  00182	8a 51 16	 mov	 dl, BYTE PTR [ecx+22]
  00185	84 d2		 test	 dl, dl
  00187	0f 84 79 02 00
	00		 je	 $LN77@ioINILoade
  0018d	32 d3		 xor	 dl, bl
  0018f	88 50 16	 mov	 BYTE PTR [eax+22], dl
  00192	8a 51 17	 mov	 dl, BYTE PTR [ecx+23]
  00195	84 d2		 test	 dl, dl
  00197	0f 84 60 02 00
	00		 je	 $LN76@ioINILoade
  0019d	80 f2 ea	 xor	 dl, -22			; ffffffeaH
  001a0	88 50 17	 mov	 BYTE PTR [eax+23], dl
  001a3	8a 51 18	 mov	 dl, BYTE PTR [ecx+24]
  001a6	84 d2		 test	 dl, dl
  001a8	0f 84 46 02 00
	00		 je	 $LN75@ioINILoade
  001ae	80 f2 ed	 xor	 dl, -19			; ffffffedH
  001b1	88 50 18	 mov	 BYTE PTR [eax+24], dl
  001b4	8a 51 19	 mov	 dl, BYTE PTR [ecx+25]
  001b7	84 d2		 test	 dl, dl
  001b9	0f 84 2c 02 00
	00		 je	 $LN74@ioINILoade
  001bf	80 f2 ec	 xor	 dl, -20			; ffffffecH
  001c2	88 50 19	 mov	 BYTE PTR [eax+25], dl
  001c5	8a 51 1a	 mov	 dl, BYTE PTR [ecx+26]
  001c8	84 d2		 test	 dl, dl
  001ca	0f 84 13 02 00
	00		 je	 $LN73@ioINILoade
  001d0	32 d3		 xor	 dl, bl
  001d2	88 50 1a	 mov	 BYTE PTR [eax+26], dl
  001d5	8a 51 1b	 mov	 dl, BYTE PTR [ecx+27]
  001d8	84 d2		 test	 dl, dl
  001da	0f 84 fa 01 00
	00		 je	 $LN72@ioINILoade
  001e0	80 f2 ea	 xor	 dl, -22			; ffffffeaH
  001e3	88 50 1b	 mov	 BYTE PTR [eax+27], dl
  001e6	8a 51 1c	 mov	 dl, BYTE PTR [ecx+28]
  001e9	84 d2		 test	 dl, dl
  001eb	0f 84 e0 01 00
	00		 je	 $LN71@ioINILoade
  001f1	80 f2 ed	 xor	 dl, -19			; ffffffedH
  001f4	88 50 1c	 mov	 BYTE PTR [eax+28], dl
  001f7	8a 51 1d	 mov	 dl, BYTE PTR [ecx+29]
  001fa	84 d2		 test	 dl, dl
  001fc	0f 84 c6 01 00
	00		 je	 $LN70@ioINILoade
  00202	80 f2 ec	 xor	 dl, -20			; ffffffecH
  00205	88 50 1d	 mov	 BYTE PTR [eax+29], dl
  00208	8a 51 1e	 mov	 dl, BYTE PTR [ecx+30]
  0020b	84 d2		 test	 dl, dl
  0020d	0f 84 ad 01 00
	00		 je	 $LN69@ioINILoade
  00213	32 d3		 xor	 dl, bl
  00215	88 50 1e	 mov	 BYTE PTR [eax+30], dl
  00218	8a 51 1f	 mov	 dl, BYTE PTR [ecx+31]
  0021b	84 d2		 test	 dl, dl
  0021d	0f 84 94 01 00
	00		 je	 $LN68@ioINILoade
  00223	80 f2 ea	 xor	 dl, -22			; ffffffeaH
  00226	88 50 1f	 mov	 BYTE PTR [eax+31], dl
  00229	8a 51 20	 mov	 dl, BYTE PTR [ecx+32]
  0022c	84 d2		 test	 dl, dl
  0022e	0f 84 7a 01 00
	00		 je	 $LN67@ioINILoade
  00234	80 f2 ed	 xor	 dl, -19			; ffffffedH
  00237	88 50 20	 mov	 BYTE PTR [eax+32], dl
  0023a	8a 51 21	 mov	 dl, BYTE PTR [ecx+33]
  0023d	84 d2		 test	 dl, dl
  0023f	0f 84 60 01 00
	00		 je	 $LN66@ioINILoade
  00245	80 f2 ec	 xor	 dl, -20			; ffffffecH
  00248	88 50 21	 mov	 BYTE PTR [eax+33], dl
  0024b	8a 51 22	 mov	 dl, BYTE PTR [ecx+34]
  0024e	84 d2		 test	 dl, dl
  00250	0f 84 47 01 00
	00		 je	 $LN65@ioINILoade
  00256	32 d3		 xor	 dl, bl
  00258	88 50 22	 mov	 BYTE PTR [eax+34], dl
  0025b	8a 51 23	 mov	 dl, BYTE PTR [ecx+35]
  0025e	84 d2		 test	 dl, dl
  00260	0f 84 2e 01 00
	00		 je	 $LN64@ioINILoade
  00266	80 f2 ea	 xor	 dl, -22			; ffffffeaH
  00269	88 50 23	 mov	 BYTE PTR [eax+35], dl
  0026c	8a 51 24	 mov	 dl, BYTE PTR [ecx+36]
  0026f	84 d2		 test	 dl, dl
  00271	0f 84 14 01 00
	00		 je	 $LN63@ioINILoade
  00277	80 f2 ed	 xor	 dl, -19			; ffffffedH
  0027a	88 50 24	 mov	 BYTE PTR [eax+36], dl
  0027d	8a 51 25	 mov	 dl, BYTE PTR [ecx+37]
  00280	84 d2		 test	 dl, dl
  00282	0f 84 fa 00 00
	00		 je	 $LN62@ioINILoade
  00288	80 f2 ec	 xor	 dl, -20			; ffffffecH
  0028b	88 50 25	 mov	 BYTE PTR [eax+37], dl
  0028e	8a 51 26	 mov	 dl, BYTE PTR [ecx+38]
  00291	84 d2		 test	 dl, dl
  00293	0f 84 e1 00 00
	00		 je	 $LN61@ioINILoade
  00299	32 d3		 xor	 dl, bl
  0029b	88 50 26	 mov	 BYTE PTR [eax+38], dl
  0029e	8a 51 27	 mov	 dl, BYTE PTR [ecx+39]
  002a1	84 d2		 test	 dl, dl
  002a3	0f 84 c8 00 00
	00		 je	 $LN60@ioINILoade
  002a9	80 f2 ea	 xor	 dl, -22			; ffffffeaH
  002ac	88 50 27	 mov	 BYTE PTR [eax+39], dl
  002af	8a 51 28	 mov	 dl, BYTE PTR [ecx+40]
  002b2	84 d2		 test	 dl, dl
  002b4	0f 84 ae 00 00
	00		 je	 $LN59@ioINILoade
  002ba	80 f2 ed	 xor	 dl, -19			; ffffffedH
  002bd	88 50 28	 mov	 BYTE PTR [eax+40], dl
  002c0	8a 51 29	 mov	 dl, BYTE PTR [ecx+41]
  002c3	84 d2		 test	 dl, dl
  002c5	0f 84 94 00 00
	00		 je	 $LN58@ioINILoade
  002cb	80 f2 ec	 xor	 dl, -20			; ffffffecH
  002ce	88 50 29	 mov	 BYTE PTR [eax+41], dl
  002d1	8a 51 2a	 mov	 dl, BYTE PTR [ecx+42]
  002d4	84 d2		 test	 dl, dl
  002d6	74 7f		 je	 SHORT $LN57@ioINILoade
  002d8	32 d3		 xor	 dl, bl
  002da	88 50 2a	 mov	 BYTE PTR [eax+42], dl
  002dd	8a 51 2b	 mov	 dl, BYTE PTR [ecx+43]
  002e0	84 d2		 test	 dl, dl
  002e2	74 6a		 je	 SHORT $LN56@ioINILoade
  002e4	80 f2 ea	 xor	 dl, -22			; ffffffeaH
  002e7	88 50 2b	 mov	 BYTE PTR [eax+43], dl
  002ea	8a 51 2c	 mov	 dl, BYTE PTR [ecx+44]
  002ed	84 d2		 test	 dl, dl
  002ef	74 54		 je	 SHORT $LN55@ioINILoade
  002f1	80 f2 ed	 xor	 dl, -19			; ffffffedH
  002f4	88 50 2c	 mov	 BYTE PTR [eax+44], dl
  002f7	8a 51 2d	 mov	 dl, BYTE PTR [ecx+45]
  002fa	84 d2		 test	 dl, dl
  002fc	74 3e		 je	 SHORT $LN54@ioINILoade
  002fe	80 f2 ec	 xor	 dl, -20			; ffffffecH
  00301	88 50 2d	 mov	 BYTE PTR [eax+45], dl
  00304	8a 51 2e	 mov	 dl, BYTE PTR [ecx+46]
  00307	84 d2		 test	 dl, dl
  00309	74 29		 je	 SHORT $LN53@ioINILoade
  0030b	32 d3		 xor	 dl, bl
  0030d	88 50 2e	 mov	 BYTE PTR [eax+46], dl
  00310	8a 51 2f	 mov	 dl, BYTE PTR [ecx+47]
  00313	84 d2		 test	 dl, dl
  00315	74 14		 je	 SHORT $LN52@ioINILoade
  00317	80 f2 ea	 xor	 dl, -22			; ffffffeaH
  0031a	88 50 2f	 mov	 BYTE PTR [eax+47], dl
  0031d	8a 49 30	 mov	 cl, BYTE PTR [ecx+48]
  00320	80 f1 ed	 xor	 cl, -19			; ffffffedH
  00323	88 48 30	 mov	 BYTE PTR [eax+48], cl
  00326	e9 5d 01 00 00	 jmp	 $LN4@ioINILoade
$LN52@ioINILoade:
  0032b	c6 40 2f ea	 mov	 BYTE PTR [eax+47], -22	; ffffffeaH
  0032f	e9 54 01 00 00	 jmp	 $LN4@ioINILoade
$LN53@ioINILoade:
  00334	88 58 2e	 mov	 BYTE PTR [eax+46], bl
  00337	e9 4c 01 00 00	 jmp	 $LN4@ioINILoade
$LN54@ioINILoade:
  0033c	c6 40 2d ec	 mov	 BYTE PTR [eax+45], -20	; ffffffecH
  00340	e9 43 01 00 00	 jmp	 $LN4@ioINILoade
$LN55@ioINILoade:
  00345	c6 40 2c ed	 mov	 BYTE PTR [eax+44], -19	; ffffffedH
  00349	e9 3a 01 00 00	 jmp	 $LN4@ioINILoade
$LN56@ioINILoade:
  0034e	c6 40 2b ea	 mov	 BYTE PTR [eax+43], -22	; ffffffeaH
  00352	e9 31 01 00 00	 jmp	 $LN4@ioINILoade
$LN57@ioINILoade:
  00357	88 58 2a	 mov	 BYTE PTR [eax+42], bl
  0035a	e9 29 01 00 00	 jmp	 $LN4@ioINILoade
$LN58@ioINILoade:
  0035f	c6 40 29 ec	 mov	 BYTE PTR [eax+41], -20	; ffffffecH
  00363	e9 20 01 00 00	 jmp	 $LN4@ioINILoade
$LN59@ioINILoade:
  00368	c6 40 28 ed	 mov	 BYTE PTR [eax+40], -19	; ffffffedH
  0036c	e9 17 01 00 00	 jmp	 $LN4@ioINILoade
$LN60@ioINILoade:
  00371	c6 40 27 ea	 mov	 BYTE PTR [eax+39], -22	; ffffffeaH
  00375	e9 0e 01 00 00	 jmp	 $LN4@ioINILoade
$LN61@ioINILoade:
  0037a	88 58 26	 mov	 BYTE PTR [eax+38], bl
  0037d	e9 06 01 00 00	 jmp	 $LN4@ioINILoade
$LN62@ioINILoade:
  00382	c6 40 25 ec	 mov	 BYTE PTR [eax+37], -20	; ffffffecH
  00386	e9 fd 00 00 00	 jmp	 $LN4@ioINILoade
$LN63@ioINILoade:
  0038b	c6 40 24 ed	 mov	 BYTE PTR [eax+36], -19	; ffffffedH
  0038f	e9 f4 00 00 00	 jmp	 $LN4@ioINILoade
$LN64@ioINILoade:
  00394	c6 40 23 ea	 mov	 BYTE PTR [eax+35], -22	; ffffffeaH
  00398	e9 eb 00 00 00	 jmp	 $LN4@ioINILoade
$LN65@ioINILoade:
  0039d	88 58 22	 mov	 BYTE PTR [eax+34], bl
  003a0	e9 e3 00 00 00	 jmp	 $LN4@ioINILoade
$LN66@ioINILoade:
  003a5	c6 40 21 ec	 mov	 BYTE PTR [eax+33], -20	; ffffffecH
  003a9	e9 da 00 00 00	 jmp	 $LN4@ioINILoade
$LN67@ioINILoade:
  003ae	c6 40 20 ed	 mov	 BYTE PTR [eax+32], -19	; ffffffedH
  003b2	e9 d1 00 00 00	 jmp	 $LN4@ioINILoade
$LN68@ioINILoade:
  003b7	c6 40 1f ea	 mov	 BYTE PTR [eax+31], -22	; ffffffeaH
  003bb	e9 c8 00 00 00	 jmp	 $LN4@ioINILoade
$LN69@ioINILoade:
  003c0	88 58 1e	 mov	 BYTE PTR [eax+30], bl
  003c3	e9 c0 00 00 00	 jmp	 $LN4@ioINILoade
$LN70@ioINILoade:
  003c8	c6 40 1d ec	 mov	 BYTE PTR [eax+29], -20	; ffffffecH
  003cc	e9 b7 00 00 00	 jmp	 $LN4@ioINILoade
$LN71@ioINILoade:
  003d1	c6 40 1c ed	 mov	 BYTE PTR [eax+28], -19	; ffffffedH
  003d5	e9 ae 00 00 00	 jmp	 $LN4@ioINILoade
$LN72@ioINILoade:
  003da	c6 40 1b ea	 mov	 BYTE PTR [eax+27], -22	; ffffffeaH
  003de	e9 a5 00 00 00	 jmp	 $LN4@ioINILoade
$LN73@ioINILoade:
  003e3	88 58 1a	 mov	 BYTE PTR [eax+26], bl
  003e6	e9 9d 00 00 00	 jmp	 $LN4@ioINILoade
$LN74@ioINILoade:
  003eb	c6 40 19 ec	 mov	 BYTE PTR [eax+25], -20	; ffffffecH
  003ef	e9 94 00 00 00	 jmp	 $LN4@ioINILoade
$LN75@ioINILoade:
  003f4	c6 40 18 ed	 mov	 BYTE PTR [eax+24], -19	; ffffffedH
  003f8	e9 8b 00 00 00	 jmp	 $LN4@ioINILoade
$LN76@ioINILoade:
  003fd	c6 40 17 ea	 mov	 BYTE PTR [eax+23], -22	; ffffffeaH
  00401	e9 82 00 00 00	 jmp	 $LN4@ioINILoade
$LN77@ioINILoade:
  00406	88 58 16	 mov	 BYTE PTR [eax+22], bl
  00409	eb 7d		 jmp	 SHORT $LN4@ioINILoade
$LN78@ioINILoade:
  0040b	c6 40 15 ec	 mov	 BYTE PTR [eax+21], -20	; ffffffecH
  0040f	eb 77		 jmp	 SHORT $LN4@ioINILoade
$LN79@ioINILoade:
  00411	c6 40 14 ed	 mov	 BYTE PTR [eax+20], -19	; ffffffedH
  00415	eb 71		 jmp	 SHORT $LN4@ioINILoade
$LN80@ioINILoade:
  00417	c6 40 13 ea	 mov	 BYTE PTR [eax+19], -22	; ffffffeaH
  0041b	eb 6b		 jmp	 SHORT $LN4@ioINILoade
$LN81@ioINILoade:
  0041d	88 58 12	 mov	 BYTE PTR [eax+18], bl
  00420	eb 66		 jmp	 SHORT $LN4@ioINILoade
$LN82@ioINILoade:
  00422	c6 40 11 ec	 mov	 BYTE PTR [eax+17], -20	; ffffffecH
  00426	eb 60		 jmp	 SHORT $LN4@ioINILoade
$LN83@ioINILoade:
  00428	c6 40 10 ed	 mov	 BYTE PTR [eax+16], -19	; ffffffedH
  0042c	eb 5a		 jmp	 SHORT $LN4@ioINILoade
$LN84@ioINILoade:
  0042e	c6 40 0f ea	 mov	 BYTE PTR [eax+15], -22	; ffffffeaH
  00432	eb 54		 jmp	 SHORT $LN4@ioINILoade
$LN85@ioINILoade:
  00434	88 58 0e	 mov	 BYTE PTR [eax+14], bl
  00437	eb 4f		 jmp	 SHORT $LN4@ioINILoade
$LN86@ioINILoade:
  00439	c6 40 0d ec	 mov	 BYTE PTR [eax+13], -20	; ffffffecH
  0043d	eb 49		 jmp	 SHORT $LN4@ioINILoade
$LN87@ioINILoade:
  0043f	c6 40 0c ed	 mov	 BYTE PTR [eax+12], -19	; ffffffedH
  00443	eb 43		 jmp	 SHORT $LN4@ioINILoade
$LN88@ioINILoade:
  00445	c6 40 0b ea	 mov	 BYTE PTR [eax+11], -22	; ffffffeaH
  00449	eb 3d		 jmp	 SHORT $LN4@ioINILoade
$LN89@ioINILoade:
  0044b	88 58 0a	 mov	 BYTE PTR [eax+10], bl
  0044e	eb 38		 jmp	 SHORT $LN4@ioINILoade
$LN90@ioINILoade:
  00450	c6 40 09 ec	 mov	 BYTE PTR [eax+9], -20	; ffffffecH
  00454	eb 32		 jmp	 SHORT $LN4@ioINILoade
$LN91@ioINILoade:
  00456	c6 40 08 ed	 mov	 BYTE PTR [eax+8], -19	; ffffffedH
  0045a	eb 2c		 jmp	 SHORT $LN4@ioINILoade
$LN92@ioINILoade:
  0045c	c6 40 07 ea	 mov	 BYTE PTR [eax+7], -22	; ffffffeaH
  00460	eb 26		 jmp	 SHORT $LN4@ioINILoade
$LN93@ioINILoade:
  00462	88 58 06	 mov	 BYTE PTR [eax+6], bl
  00465	eb 21		 jmp	 SHORT $LN4@ioINILoade
$LN94@ioINILoade:
  00467	c6 40 05 ec	 mov	 BYTE PTR [eax+5], -20	; ffffffecH
  0046b	eb 1b		 jmp	 SHORT $LN4@ioINILoade
$LN95@ioINILoade:
  0046d	c6 40 04 ed	 mov	 BYTE PTR [eax+4], -19	; ffffffedH
  00471	eb 15		 jmp	 SHORT $LN4@ioINILoade
$LN96@ioINILoade:
  00473	c6 40 03 ea	 mov	 BYTE PTR [eax+3], -22	; ffffffeaH
  00477	eb 0f		 jmp	 SHORT $LN4@ioINILoade
$LN97@ioINILoade:
  00479	c6 40 02 eb	 mov	 BYTE PTR [eax+2], -21	; ffffffebH
  0047d	eb 09		 jmp	 SHORT $LN4@ioINILoade
$LN98@ioINILoade:
  0047f	c6 40 01 ec	 mov	 BYTE PTR [eax+1], -20	; ffffffecH
  00483	eb 03		 jmp	 SHORT $LN4@ioINILoade
$LN99@ioINILoade:
  00485	c6 00 ed	 mov	 BYTE PTR [eax], -19	; ffffffedH
$LN4@ioINILoade:
  00488	6a 06		 push	 6
  0048a	8b c8		 mov	 ecx, eax
  0048c	c6 40 1a 00	 mov	 BYTE PTR [eax+26], 0
  00490	5a		 pop	 edx
$LL107@ioINILoade:
  00491	81 31 ed ec eb
	ea		 xor	 DWORD PTR [ecx], -353637139 ; eaebecedH
  00497	83 c1 04	 add	 ecx, 4
  0049a	4a		 dec	 edx
  0049b	75 f4		 jne	 SHORT $LL107@ioINILoade
  0049d	6a 18		 push	 24			; 00000018H
  0049f	5e		 pop	 esi
$LL104@ioINILoade:
  004a0	8b ce		 mov	 ecx, esi
  004a2	81 e1 03 00 00
	80		 and	 ecx, -2147483645	; 80000003H
  004a8	79 05		 jns	 SHORT $LN114@ioINILoade
  004aa	49		 dec	 ecx
  004ab	83 c9 fc	 or	 ecx, -4			; fffffffcH
  004ae	41		 inc	 ecx
$LN114@ioINILoade:
  004af	b2 ed		 mov	 dl, -19			; ffffffedH
  004b1	2a d1		 sub	 dl, cl
  004b3	30 14 06	 xor	 BYTE PTR [esi+eax], dl
  004b6	46		 inc	 esi
  004b7	83 fe 1a	 cmp	 esi, 26			; 0000001aH
  004ba	7c e4		 jl	 SHORT $LL104@ioINILoade
  004bc	ff 75 0c	 push	 DWORD PTR _b$[ebp]
  004bf	8b cf		 mov	 ecx, edi
  004c1	50		 push	 eax
  004c2	ff 15 00 00 00
	00		 call	 DWORD PTR __imp_??0ioINILoader@@QAE@PBD_N@Z

; 225  : 	}

  004c8	8b c7		 mov	 eax, edi
  004ca	5f		 pop	 edi
  004cb	5e		 pop	 esi
  004cc	5b		 pop	 ebx
  004cd	5d		 pop	 ebp
  004ce	c2 08 00	 ret	 8
??$?0$0BL@@ioINILoader_e@@QAE@AAY0BL@$$CBD_N@Z ENDP	; ioINILoader_e::ioINILoader_e<27>
_TEXT	ENDS
PUBLIC	??$_Copy_impl@PAUtagNamedTitleGrade@@PAU1@@std@@YAPAUtagNamedTitleGrade@@PAU1@00@Z ; std::_Copy_impl<tagNamedTitleGrade *,tagNamedTitleGrade *>
; Function compile flags: /Ogsp
; File c:\program files (x86)\microsoft visual studio 10.0\vc\include\xutility
;	COMDAT ??$_Copy_impl@PAUtagNamedTitleGrade@@PAU1@@std@@YAPAUtagNamedTitleGrade@@PAU1@00@Z
_TEXT	SEGMENT
__Cat$538342 = -4					; size = 1
__First$ = 8						; size = 4
__Last$ = 12						; size = 4
__Dest$ = 16						; size = 4
??$_Copy_impl@PAUtagNamedTitleGrade@@PAU1@@std@@YAPAUtagNamedTitleGrade@@PAU1@00@Z PROC ; std::_Copy_impl<tagNamedTitleGrade *,tagNamedTitleGrade *>, COMDAT

; 2163 : 	{	// copy [_First, _Last) to [_Dest, ...)

  00000	55		 push	 ebp
  00001	8b ec		 mov	 ebp, esp
  00003	51		 push	 ecx

; 2164 : 	return (_Copy_impl(_First, _Last,
; 2165 : 		_Dest, _Ptr_cat(_First, _Dest)));

  00004	ff 75 fc	 push	 DWORD PTR __Cat$538342[ebp]
  00007	ff 75 10	 push	 DWORD PTR __Dest$[ebp]
  0000a	ff 75 0c	 push	 DWORD PTR __Last$[ebp]
  0000d	ff 75 08	 push	 DWORD PTR __First$[ebp]
  00010	e8 00 00 00 00	 call	 ??$_Copy_impl@PAUtagNamedTitleGrade@@PAU1@@std@@YAPAUtagNamedTitleGrade@@PAU1@00U_Nonscalar_ptr_iterator_tag@0@@Z ; std::_Copy_impl<tagNamedTitleGrade *,tagNamedTitleGrade *>
  00015	83 c4 10	 add	 esp, 16			; 00000010H

; 2166 : 	}

  00018	c9		 leave
  00019	c3		 ret	 0
??$_Copy_impl@PAUtagNamedTitleGrade@@PAU1@@std@@YAPAUtagNamedTitleGrade@@PAU1@00@Z ENDP ; std::_Copy_impl<tagNamedTitleGrade *,tagNamedTitleGrade *>
_TEXT	ENDS
PUBLIC	??$_Cons_val@V?$allocator@UtagNamedTitleGrade@@@std@@UtagNamedTitleGrade@@AAU3@@std@@YAXAAV?$allocator@UtagNamedTitleGrade@@@0@PAUtagNamedTitleGrade@@AAU2@@Z ; std::_Cons_val<std::allocator<tagNamedTitleGrade>,tagNamedTitleGrade,tagNamedTitleGrade &>
; Function compile flags: /Ogsp
; File c:\program files (x86)\microsoft visual studio 10.0\vc\include\xmemory
;	COMDAT ??$_Cons_val@V?$allocator@UtagNamedTitleGrade@@@std@@UtagNamedTitleGrade@@AAU3@@std@@YAXAAV?$allocator@UtagNamedTitleGrade@@@0@PAUtagNamedTitleGrade@@AAU2@@Z
_TEXT	SEGMENT
__Alval$ = 8						; size = 4
__Pdest$ = 12						; size = 4
__Src$ = 16						; size = 4
??$_Cons_val@V?$allocator@UtagNamedTitleGrade@@@std@@UtagNamedTitleGrade@@AAU3@@std@@YAXAAV?$allocator@UtagNamedTitleGrade@@@0@PAUtagNamedTitleGrade@@AAU2@@Z PROC ; std::_Cons_val<std::allocator<tagNamedTitleGrade>,tagNamedTitleGrade,tagNamedTitleGrade &>, COMDAT

; 279  : 	{	// construct using allocator

  00000	55		 push	 ebp
  00001	8b ec		 mov	 ebp, esp

; 280  : 	_Alval.construct(_Pdest, _STD forward<_Ty2>(_Src));

  00003	ff 75 10	 push	 DWORD PTR __Src$[ebp]
  00006	8b 4d 08	 mov	 ecx, DWORD PTR __Alval$[ebp]
  00009	ff 75 0c	 push	 DWORD PTR __Pdest$[ebp]
  0000c	e8 00 00 00 00	 call	 ??$construct@AAUtagNamedTitleGrade@@@?$allocator@UtagNamedTitleGrade@@@std@@QAEXPAUtagNamedTitleGrade@@AAU2@@Z ; std::allocator<tagNamedTitleGrade>::construct<tagNamedTitleGrade &>

; 281  : 	}

  00011	5d		 pop	 ebp
  00012	c3		 ret	 0
??$_Cons_val@V?$allocator@UtagNamedTitleGrade@@@std@@UtagNamedTitleGrade@@AAU3@@std@@YAXAAV?$allocator@UtagNamedTitleGrade@@@0@PAUtagNamedTitleGrade@@AAU2@@Z ENDP ; std::_Cons_val<std::allocator<tagNamedTitleGrade>,tagNamedTitleGrade,tagNamedTitleGrade &>
_TEXT	ENDS
PUBLIC	?construct@?$allocator@UtagNamedTitleGrade@@@std@@QAEXPAUtagNamedTitleGrade@@ABU3@@Z ; std::allocator<tagNamedTitleGrade>::construct
; Function compile flags: /Ogsp
;	COMDAT ?construct@?$allocator@UtagNamedTitleGrade@@@std@@QAEXPAUtagNamedTitleGrade@@ABU3@@Z
_TEXT	SEGMENT
__Ptr$ = 8						; size = 4
__Val$ = 12						; size = 4
?construct@?$allocator@UtagNamedTitleGrade@@@std@@QAEXPAUtagNamedTitleGrade@@ABU3@@Z PROC ; std::allocator<tagNamedTitleGrade>::construct, COMDAT
; _this$ = ecx

; 196  : 		{	// construct object at _Ptr with value _Val

  00000	55		 push	 ebp
  00001	8b ec		 mov	 ebp, esp

; 197  : 		_Construct(_Ptr, _Val);

  00003	ff 75 0c	 push	 DWORD PTR __Val$[ebp]
  00006	ff 75 08	 push	 DWORD PTR __Ptr$[ebp]
  00009	e8 00 00 00 00	 call	 ??$_Construct@UtagNamedTitleGrade@@ABU1@@std@@YAXPAUtagNamedTitleGrade@@ABU1@@Z ; std::_Construct<tagNamedTitleGrade,tagNamedTitleGrade const &>
  0000e	59		 pop	 ecx
  0000f	59		 pop	 ecx

; 198  : 		}

  00010	5d		 pop	 ebp
  00011	c2 08 00	 ret	 8
?construct@?$allocator@UtagNamedTitleGrade@@@std@@QAEXPAUtagNamedTitleGrade@@ABU3@@Z ENDP ; std::allocator<tagNamedTitleGrade>::construct
_TEXT	ENDS
PUBLIC	??0?$pair@V?$_Tree_iterator@V?$_Tree_val@V?$_Tmap_traits@KUtagNamedTitleInfo@@U?$less@K@std@@V?$allocator@U?$pair@$$CBKUtagNamedTitleInfo@@@std@@@3@$0A@@std@@@std@@@std@@_N@std@@QAE@$$QAV?$_Tree_iterator@V?$_Tree_val@V?$_Tmap_traits@KUtagNamedTitleInfo@@U?$less@K@std@@V?$allocator@U?$pair@$$CBKUtagNamedTitleInfo@@@std@@@3@$0A@@std@@@std@@@1@$$QA_N@Z ; std::pair<std::_Tree_iterator<std::_Tree_val<std::_Tmap_traits<unsigned long,tagNamedTitleInfo,std::less<unsigned long>,std::allocator<std::pair<unsigned long const ,tagNamedTitleInfo> >,0> > >,bool>::pair<std::_Tree_iterator<std::_Tree_val<std::_Tmap_traits<unsigned long,tagNamedTitleInfo,std::less<unsigned long>,std::allocator<std::pair<unsigned long const ,tagNamedTitleInfo> >,0> > >,bool>
; Function compile flags: /Ogsp
; File c:\program files (x86)\microsoft visual studio 10.0\vc\include\utility
;	COMDAT ??0?$pair@V?$_Tree_iterator@V?$_Tree_val@V?$_Tmap_traits@KUtagNamedTitleInfo@@U?$less@K@std@@V?$allocator@U?$pair@$$CBKUtagNamedTitleInfo@@@std@@@3@$0A@@std@@@std@@@std@@_N@std@@QAE@$$QAV?$_Tree_iterator@V?$_Tree_val@V?$_Tmap_traits@KUtagNamedTitleInfo@@U?$less@K@std@@V?$allocator@U?$pair@$$CBKUtagNamedTitleInfo@@@std@@@3@$0A@@std@@@std@@@1@$$QA_N@Z
_TEXT	SEGMENT
__Val1$ = 8						; size = 4
__Val2$ = 12						; size = 4
??0?$pair@V?$_Tree_iterator@V?$_Tree_val@V?$_Tmap_traits@KUtagNamedTitleInfo@@U?$less@K@std@@V?$allocator@U?$pair@$$CBKUtagNamedTitleInfo@@@std@@@3@$0A@@std@@@std@@@std@@_N@std@@QAE@$$QAV?$_Tree_iterator@V?$_Tree_val@V?$_Tmap_traits@KUtagNamedTitleInfo@@U?$less@K@std@@V?$allocator@U?$pair@$$CBKUtagNamedTitleInfo@@@std@@@3@$0A@@std@@@std@@@1@$$QA_N@Z PROC ; std::pair<std::_Tree_iterator<std::_Tree_val<std::_Tmap_traits<unsigned long,tagNamedTitleInfo,std::less<unsigned long>,std::allocator<std::pair<unsigned long const ,tagNamedTitleInfo> >,0> > >,bool>::pair<std::_Tree_iterator<std::_Tree_val<std::_Tmap_traits<unsigned long,tagNamedTitleInfo,std::less<unsigned long>,std::allocator<std::pair<unsigned long const ,tagNamedTitleInfo> >,0> > >,bool>, COMDAT
; _this$ = ecx

; 227  : 		{	// construct from specified values

  00000	55		 push	 ebp
  00001	8b ec		 mov	 ebp, esp
  00003	8b c1		 mov	 eax, ecx
  00005	8b 4d 08	 mov	 ecx, DWORD PTR __Val1$[ebp]
  00008	8b 09		 mov	 ecx, DWORD PTR [ecx]
  0000a	89 08		 mov	 DWORD PTR [eax], ecx
  0000c	8b 4d 0c	 mov	 ecx, DWORD PTR __Val2$[ebp]
  0000f	8a 09		 mov	 cl, BYTE PTR [ecx]
  00011	88 48 04	 mov	 BYTE PTR [eax+4], cl

; 228  : 		}

  00014	5d		 pop	 ebp
  00015	c2 08 00	 ret	 8
??0?$pair@V?$_Tree_iterator@V?$_Tree_val@V?$_Tmap_traits@KUtagNamedTitleInfo@@U?$less@K@std@@V?$allocator@U?$pair@$$CBKUtagNamedTitleInfo@@@std@@@3@$0A@@std@@@std@@@std@@_N@std@@QAE@$$QAV?$_Tree_iterator@V?$_Tree_val@V?$_Tmap_traits@KUtagNamedTitleInfo@@U?$less@K@std@@V?$allocator@U?$pair@$$CBKUtagNamedTitleInfo@@@std@@@3@$0A@@std@@@std@@@1@$$QA_N@Z ENDP ; std::pair<std::_Tree_iterator<std::_Tree_val<std::_Tmap_traits<unsigned long,tagNamedTitleInfo,std::less<unsigned long>,std::allocator<std::pair<unsigned long const ,tagNamedTitleInfo> >,0> > >,bool>::pair<std::_Tree_iterator<std::_Tree_val<std::_Tmap_traits<unsigned long,tagNamedTitleInfo,std::less<unsigned long>,std::allocator<std::pair<unsigned long const ,tagNamedTitleInfo> >,0> > >,bool>
_TEXT	ENDS
PUBLIC	??F?$_Tree_iterator@V?$_Tree_val@V?$_Tmap_traits@KUtagNamedTitleInfo@@U?$less@K@std@@V?$allocator@U?$pair@$$CBKUtagNamedTitleInfo@@@std@@@3@$0A@@std@@@std@@@std@@QAEAAV01@XZ ; std::_Tree_iterator<std::_Tree_val<std::_Tmap_traits<unsigned long,tagNamedTitleInfo,std::less<unsigned long>,std::allocator<std::pair<unsigned long const ,tagNamedTitleInfo> >,0> > >::operator--
; Function compile flags: /Ogsp
; File c:\program files (x86)\microsoft visual studio 10.0\vc\include\xtree
;	COMDAT ??F?$_Tree_iterator@V?$_Tree_val@V?$_Tmap_traits@KUtagNamedTitleInfo@@U?$less@K@std@@V?$allocator@U?$pair@$$CBKUtagNamedTitleInfo@@@std@@@3@$0A@@std@@@std@@@std@@QAEAAV01@XZ
_TEXT	SEGMENT
??F?$_Tree_iterator@V?$_Tree_val@V?$_Tmap_traits@KUtagNamedTitleInfo@@U?$less@K@std@@V?$allocator@U?$pair@$$CBKUtagNamedTitleInfo@@@std@@@3@$0A@@std@@@std@@@std@@QAEAAV01@XZ PROC ; std::_Tree_iterator<std::_Tree_val<std::_Tmap_traits<unsigned long,tagNamedTitleInfo,std::less<unsigned long>,std::allocator<std::pair<unsigned long const ,tagNamedTitleInfo> >,0> > >::operator--, COMDAT
; _this$ = ecx

; 418  : 		{	// predecrement

  00000	56		 push	 esi
  00001	8b f1		 mov	 esi, ecx

; 419  : 		--(*(_Mybase *)this);

  00003	e8 00 00 00 00	 call	 ??F?$_Tree_unchecked_const_iterator@V?$_Tree_val@V?$_Tmap_traits@KUtagNamedTitleInfo@@U?$less@K@std@@V?$allocator@U?$pair@$$CBKUtagNamedTitleInfo@@@std@@@3@$0A@@std@@@std@@U_Iterator_base0@2@@std@@QAEAAV01@XZ ; std::_Tree_unchecked_const_iterator<std::_Tree_val<std::_Tmap_traits<unsigned long,tagNamedTitleInfo,std::less<unsigned long>,std::allocator<std::pair<unsigned long const ,tagNamedTitleInfo> >,0> >,std::_Iterator_base0>::operator--

; 420  : 		return (*this);

  00008	8b c6		 mov	 eax, esi
  0000a	5e		 pop	 esi

; 421  : 		}

  0000b	c3		 ret	 0
??F?$_Tree_iterator@V?$_Tree_val@V?$_Tmap_traits@KUtagNamedTitleInfo@@U?$less@K@std@@V?$allocator@U?$pair@$$CBKUtagNamedTitleInfo@@@std@@@3@$0A@@std@@@std@@@std@@QAEAAV01@XZ ENDP ; std::_Tree_iterator<std::_Tree_val<std::_Tmap_traits<unsigned long,tagNamedTitleInfo,std::less<unsigned long>,std::allocator<std::pair<unsigned long const ,tagNamedTitleInfo> >,0> > >::operator--
_TEXT	ENDS
PUBLIC	??$?0AAV?$_Tree_iterator@V?$_Tree_val@V?$_Tmap_traits@KUtagNamedTitleInfo@@U?$less@K@std@@V?$allocator@U?$pair@$$CBKUtagNamedTitleInfo@@@std@@@3@$0A@@std@@@std@@@std@@_N@?$pair@V?$_Tree_iterator@V?$_Tree_val@V?$_Tmap_traits@KUtagNamedTitleInfo@@U?$less@K@std@@V?$allocator@U?$pair@$$CBKUtagNamedTitleInfo@@@std@@@3@$0A@@std@@@std@@@std@@_N@std@@QAE@AAV?$_Tree_iterator@V?$_Tree_val@V?$_Tmap_traits@KUtagNamedTitleInfo@@U?$less@K@std@@V?$allocator@U?$pair@$$CBKUtagNamedTitleInfo@@@std@@@3@$0A@@std@@@std@@@1@$$QA_N@Z ; std::pair<std::_Tree_iterator<std::_Tree_val<std::_Tmap_traits<unsigned long,tagNamedTitleInfo,std::less<unsigned long>,std::allocator<std::pair<unsigned long const ,tagNamedTitleInfo> >,0> > >,bool>::pair<std::_Tree_iterator<std::_Tree_val<std::_Tmap_traits<unsigned long,tagNamedTitleInfo,std::less<unsigned long>,std::allocator<std::pair<unsigned long const ,tagNamedTitleInfo> >,0> > >,bool><std::_Tree_iterator<std::_Tree_val<std::_Tmap_traits<unsigned long,tagNamedTitleInfo,std::less<unsigned long>,std::allocator<std::pair<unsigned long const ,tagNamedTitleInfo> >,0> > > &,bool>
; Function compile flags: /Ogsp
; File c:\program files (x86)\microsoft visual studio 10.0\vc\include\utility
;	COMDAT ??$?0AAV?$_Tree_iterator@V?$_Tree_val@V?$_Tmap_traits@KUtagNamedTitleInfo@@U?$less@K@std@@V?$allocator@U?$pair@$$CBKUtagNamedTitleInfo@@@std@@@3@$0A@@std@@@std@@@std@@_N@?$pair@V?$_Tree_iterator@V?$_Tree_val@V?$_Tmap_traits@KUtagNamedTitleInfo@@U?$less@K@std@@V?$allocator@U?$pair@$$CBKUtagNamedTitleInfo@@@std@@@3@$0A@@std@@@std@@@std@@_N@std@@QAE@AAV?$_Tree_iterator@V?$_Tree_val@V?$_Tmap_traits@KUtagNamedTitleInfo@@U?$less@K@std@@V?$allocator@U?$pair@$$CBKUtagNamedTitleInfo@@@std@@@3@$0A@@std@@@std@@@1@$$QA_N@Z
_TEXT	SEGMENT
__Val1$ = 8						; size = 4
__Val2$ = 12						; size = 4
??$?0AAV?$_Tree_iterator@V?$_Tree_val@V?$_Tmap_traits@KUtagNamedTitleInfo@@U?$less@K@std@@V?$allocator@U?$pair@$$CBKUtagNamedTitleInfo@@@std@@@3@$0A@@std@@@std@@@std@@_N@?$pair@V?$_Tree_iterator@V?$_Tree_val@V?$_Tmap_traits@KUtagNamedTitleInfo@@U?$less@K@std@@V?$allocator@U?$pair@$$CBKUtagNamedTitleInfo@@@std@@@3@$0A@@std@@@std@@@std@@_N@std@@QAE@AAV?$_Tree_iterator@V?$_Tree_val@V?$_Tmap_traits@KUtagNamedTitleInfo@@U?$less@K@std@@V?$allocator@U?$pair@$$CBKUtagNamedTitleInfo@@@std@@@3@$0A@@std@@@std@@@1@$$QA_N@Z PROC ; std::pair<std::_Tree_iterator<std::_Tree_val<std::_Tmap_traits<unsigned long,tagNamedTitleInfo,std::less<unsigned long>,std::allocator<std::pair<unsigned long const ,tagNamedTitleInfo> >,0> > >,bool>::pair<std::_Tree_iterator<std::_Tree_val<std::_Tmap_traits<unsigned long,tagNamedTitleInfo,std::less<unsigned long>,std::allocator<std::pair<unsigned long const ,tagNamedTitleInfo> >,0> > >,bool><std::_Tree_iterator<std::_Tree_val<std::_Tmap_traits<unsigned long,tagNamedTitleInfo,std::less<unsigned long>,std::allocator<std::pair<unsigned long const ,tagNamedTitleInfo> >,0> > > &,bool>, COMDAT
; _this$ = ecx

; 247  : 		{	// construct from moved values

  00000	55		 push	 ebp
  00001	8b ec		 mov	 ebp, esp
  00003	8b c1		 mov	 eax, ecx
  00005	8b 4d 08	 mov	 ecx, DWORD PTR __Val1$[ebp]
  00008	8b 09		 mov	 ecx, DWORD PTR [ecx]
  0000a	89 08		 mov	 DWORD PTR [eax], ecx
  0000c	8b 4d 0c	 mov	 ecx, DWORD PTR __Val2$[ebp]
  0000f	8a 09		 mov	 cl, BYTE PTR [ecx]
  00011	88 48 04	 mov	 BYTE PTR [eax+4], cl

; 248  : 		}

  00014	5d		 pop	 ebp
  00015	c2 08 00	 ret	 8
??$?0AAV?$_Tree_iterator@V?$_Tree_val@V?$_Tmap_traits@KUtagNamedTitleInfo@@U?$less@K@std@@V?$allocator@U?$pair@$$CBKUtagNamedTitleInfo@@@std@@@3@$0A@@std@@@std@@@std@@_N@?$pair@V?$_Tree_iterator@V?$_Tree_val@V?$_Tmap_traits@KUtagNamedTitleInfo@@U?$less@K@std@@V?$allocator@U?$pair@$$CBKUtagNamedTitleInfo@@@std@@@3@$0A@@std@@@std@@@std@@_N@std@@QAE@AAV?$_Tree_iterator@V?$_Tree_val@V?$_Tmap_traits@KUtagNamedTitleInfo@@U?$less@K@std@@V?$allocator@U?$pair@$$CBKUtagNamedTitleInfo@@@std@@@3@$0A@@std@@@std@@@1@$$QA_N@Z ENDP ; std::pair<std::_Tree_iterator<std::_Tree_val<std::_Tmap_traits<unsigned long,tagNamedTitleInfo,std::less<unsigned long>,std::allocator<std::pair<unsigned long const ,tagNamedTitleInfo> >,0> > >,bool>::pair<std::_Tree_iterator<std::_Tree_val<std::_Tmap_traits<unsigned long,tagNamedTitleInfo,std::less<unsigned long>,std::allocator<std::pair<unsigned long const ,tagNamedTitleInfo> >,0> > >,bool><std::_Tree_iterator<std::_Tree_val<std::_Tmap_traits<unsigned long,tagNamedTitleInfo,std::less<unsigned long>,std::allocator<std::pair<unsigned long const ,tagNamedTitleInfo> >,0> > > &,bool>
_TEXT	ENDS
PUBLIC	??$_Cons_val@V?$allocator@UtagNamedTitleGrade@@@std@@UtagNamedTitleGrade@@U3@@std@@YAXAAV?$allocator@UtagNamedTitleGrade@@@0@PAUtagNamedTitleGrade@@$$QAU2@@Z ; std::_Cons_val<std::allocator<tagNamedTitleGrade>,tagNamedTitleGrade,tagNamedTitleGrade>
; Function compile flags: /Ogsp
; File c:\program files (x86)\microsoft visual studio 10.0\vc\include\xmemory
;	COMDAT ??$_Cons_val@V?$allocator@UtagNamedTitleGrade@@@std@@UtagNamedTitleGrade@@U3@@std@@YAXAAV?$allocator@UtagNamedTitleGrade@@@0@PAUtagNamedTitleGrade@@$$QAU2@@Z
_TEXT	SEGMENT
__Alval$ = 8						; size = 4
__Pdest$ = 12						; size = 4
__Src$ = 16						; size = 4
??$_Cons_val@V?$allocator@UtagNamedTitleGrade@@@std@@UtagNamedTitleGrade@@U3@@std@@YAXAAV?$allocator@UtagNamedTitleGrade@@@0@PAUtagNamedTitleGrade@@$$QAU2@@Z PROC ; std::_Cons_val<std::allocator<tagNamedTitleGrade>,tagNamedTitleGrade,tagNamedTitleGrade>, COMDAT

; 279  : 	{	// construct using allocator

  00000	55		 push	 ebp
  00001	8b ec		 mov	 ebp, esp

; 280  : 	_Alval.construct(_Pdest, _STD forward<_Ty2>(_Src));

  00003	ff 75 10	 push	 DWORD PTR __Src$[ebp]
  00006	8b 4d 08	 mov	 ecx, DWORD PTR __Alval$[ebp]
  00009	ff 75 0c	 push	 DWORD PTR __Pdest$[ebp]
  0000c	e8 00 00 00 00	 call	 ?construct@?$allocator@UtagNamedTitleGrade@@@std@@QAEXPAUtagNamedTitleGrade@@$$QAU3@@Z ; std::allocator<tagNamedTitleGrade>::construct

; 281  : 	}

  00011	5d		 pop	 ebp
  00012	c3		 ret	 0
??$_Cons_val@V?$allocator@UtagNamedTitleGrade@@@std@@UtagNamedTitleGrade@@U3@@std@@YAXAAV?$allocator@UtagNamedTitleGrade@@@0@PAUtagNamedTitleGrade@@$$QAU2@@Z ENDP ; std::_Cons_val<std::allocator<tagNamedTitleGrade>,tagNamedTitleGrade,tagNamedTitleGrade>
_TEXT	ENDS
PUBLIC	??0?$vector@UtagNamedTitleGrade@@V?$allocator@UtagNamedTitleGrade@@@std@@@std@@QAE@XZ ; std::vector<tagNamedTitleGrade,std::allocator<tagNamedTitleGrade> >::vector<tagNamedTitleGrade,std::allocator<tagNamedTitleGrade> >
; Function compile flags: /Ogsp
; File c:\program files (x86)\microsoft visual studio 10.0\vc\include\vector
;	COMDAT ??0?$vector@UtagNamedTitleGrade@@V?$allocator@UtagNamedTitleGrade@@@std@@@std@@QAE@XZ
_TEXT	SEGMENT
??0?$vector@UtagNamedTitleGrade@@V?$allocator@UtagNamedTitleGrade@@@std@@@std@@QAE@XZ PROC ; std::vector<tagNamedTitleGrade,std::allocator<tagNamedTitleGrade> >::vector<tagNamedTitleGrade,std::allocator<tagNamedTitleGrade> >, COMDAT
; _this$ = ecx

; 507  : 		{	// construct empty vector

  00000	8b c1		 mov	 eax, ecx
  00002	33 c9		 xor	 ecx, ecx
  00004	89 08		 mov	 DWORD PTR [eax], ecx
  00006	89 48 04	 mov	 DWORD PTR [eax+4], ecx
  00009	89 48 08	 mov	 DWORD PTR [eax+8], ecx

; 508  : 		}

  0000c	c3		 ret	 0
??0?$vector@UtagNamedTitleGrade@@V?$allocator@UtagNamedTitleGrade@@@std@@@std@@QAE@XZ ENDP ; std::vector<tagNamedTitleGrade,std::allocator<tagNamedTitleGrade> >::vector<tagNamedTitleGrade,std::allocator<tagNamedTitleGrade> >
_TEXT	ENDS
PUBLIC	?begin@?$vector@UtagNamedTitleGrade@@V?$allocator@UtagNamedTitleGrade@@@std@@@std@@QAE?AV?$_Vector_iterator@V?$_Vector_val@UtagNamedTitleGrade@@V?$allocator@UtagNamedTitleGrade@@@std@@@std@@@2@XZ ; std::vector<tagNamedTitleGrade,std::allocator<tagNamedTitleGrade> >::begin
; Function compile flags: /Ogsp
;	COMDAT ?begin@?$vector@UtagNamedTitleGrade@@V?$allocator@UtagNamedTitleGrade@@@std@@@std@@QAE?AV?$_Vector_iterator@V?$_Vector_val@UtagNamedTitleGrade@@V?$allocator@UtagNamedTitleGrade@@@std@@@std@@@2@XZ
_TEXT	SEGMENT
___$ReturnUdt$ = 8					; size = 4
?begin@?$vector@UtagNamedTitleGrade@@V?$allocator@UtagNamedTitleGrade@@@std@@@std@@QAE?AV?$_Vector_iterator@V?$_Vector_val@UtagNamedTitleGrade@@V?$allocator@UtagNamedTitleGrade@@@std@@@std@@@2@XZ PROC ; std::vector<tagNamedTitleGrade,std::allocator<tagNamedTitleGrade> >::begin, COMDAT
; _this$ = ecx

; 781  : 		{	// return iterator for beginning of mutable sequence

  00000	55		 push	 ebp
  00001	8b ec		 mov	 ebp, esp

; 782  : 		return (iterator(this->_Myfirst, this));

  00003	8b 09		 mov	 ecx, DWORD PTR [ecx]
  00005	8b 45 08	 mov	 eax, DWORD PTR ___$ReturnUdt$[ebp]
  00008	89 08		 mov	 DWORD PTR [eax], ecx

; 783  : 		}

  0000a	5d		 pop	 ebp
  0000b	c2 04 00	 ret	 4
?begin@?$vector@UtagNamedTitleGrade@@V?$allocator@UtagNamedTitleGrade@@@std@@@std@@QAE?AV?$_Vector_iterator@V?$_Vector_val@UtagNamedTitleGrade@@V?$allocator@UtagNamedTitleGrade@@@std@@@std@@@2@XZ ENDP ; std::vector<tagNamedTitleGrade,std::allocator<tagNamedTitleGrade> >::begin
_TEXT	ENDS
PUBLIC	?end@?$vector@UtagNamedTitleGrade@@V?$allocator@UtagNamedTitleGrade@@@std@@@std@@QAE?AV?$_Vector_iterator@V?$_Vector_val@UtagNamedTitleGrade@@V?$allocator@UtagNamedTitleGrade@@@std@@@std@@@2@XZ ; std::vector<tagNamedTitleGrade,std::allocator<tagNamedTitleGrade> >::end
; Function compile flags: /Ogsp
;	COMDAT ?end@?$vector@UtagNamedTitleGrade@@V?$allocator@UtagNamedTitleGrade@@@std@@@std@@QAE?AV?$_Vector_iterator@V?$_Vector_val@UtagNamedTitleGrade@@V?$allocator@UtagNamedTitleGrade@@@std@@@std@@@2@XZ
_TEXT	SEGMENT
___$ReturnUdt$ = 8					; size = 4
?end@?$vector@UtagNamedTitleGrade@@V?$allocator@UtagNamedTitleGrade@@@std@@@std@@QAE?AV?$_Vector_iterator@V?$_Vector_val@UtagNamedTitleGrade@@V?$allocator@UtagNamedTitleGrade@@@std@@@std@@@2@XZ PROC ; std::vector<tagNamedTitleGrade,std::allocator<tagNamedTitleGrade> >::end, COMDAT
; _this$ = ecx

; 791  : 		{	// return iterator for end of mutable sequence

  00000	55		 push	 ebp
  00001	8b ec		 mov	 ebp, esp

; 792  : 		return (iterator(this->_Mylast, this));

  00003	8b 49 04	 mov	 ecx, DWORD PTR [ecx+4]
  00006	8b 45 08	 mov	 eax, DWORD PTR ___$ReturnUdt$[ebp]
  00009	89 08		 mov	 DWORD PTR [eax], ecx

; 793  : 		}

  0000b	5d		 pop	 ebp
  0000c	c2 04 00	 ret	 4
?end@?$vector@UtagNamedTitleGrade@@V?$allocator@UtagNamedTitleGrade@@@std@@@std@@QAE?AV?$_Vector_iterator@V?$_Vector_val@UtagNamedTitleGrade@@V?$allocator@UtagNamedTitleGrade@@@std@@@std@@@2@XZ ENDP ; std::vector<tagNamedTitleGrade,std::allocator<tagNamedTitleGrade> >::end
_TEXT	ENDS
PUBLIC	?_Make_iter@?$vector@UtagNamedTitleGrade@@V?$allocator@UtagNamedTitleGrade@@@std@@@std@@QBE?AV?$_Vector_iterator@V?$_Vector_val@UtagNamedTitleGrade@@V?$allocator@UtagNamedTitleGrade@@@std@@@std@@@2@V?$_Vector_const_iterator@V?$_Vector_val@UtagNamedTitleGrade@@V?$allocator@UtagNamedTitleGrade@@@std@@@std@@@2@@Z ; std::vector<tagNamedTitleGrade,std::allocator<tagNamedTitleGrade> >::_Make_iter
; Function compile flags: /Ogsp
;	COMDAT ?_Make_iter@?$vector@UtagNamedTitleGrade@@V?$allocator@UtagNamedTitleGrade@@@std@@@std@@QBE?AV?$_Vector_iterator@V?$_Vector_val@UtagNamedTitleGrade@@V?$allocator@UtagNamedTitleGrade@@@std@@@std@@@2@V?$_Vector_const_iterator@V?$_Vector_val@UtagNamedTitleGrade@@V?$allocator@UtagNamedTitleGrade@@@std@@@std@@@2@@Z
_TEXT	SEGMENT
___$ReturnUdt$ = 8					; size = 4
__Where$ = 12						; size = 4
?_Make_iter@?$vector@UtagNamedTitleGrade@@V?$allocator@UtagNamedTitleGrade@@@std@@@std@@QBE?AV?$_Vector_iterator@V?$_Vector_val@UtagNamedTitleGrade@@V?$allocator@UtagNamedTitleGrade@@@std@@@std@@@2@V?$_Vector_const_iterator@V?$_Vector_val@UtagNamedTitleGrade@@V?$allocator@UtagNamedTitleGrade@@@std@@@std@@@2@@Z PROC ; std::vector<tagNamedTitleGrade,std::allocator<tagNamedTitleGrade> >::_Make_iter, COMDAT
; _this$ = ecx

; 801  : 		{	// make iterator from const_iterator

  00000	55		 push	 ebp
  00001	8b ec		 mov	 ebp, esp

; 802  : 		return (iterator(_Where._Ptr, this));

  00003	8b 45 08	 mov	 eax, DWORD PTR ___$ReturnUdt$[ebp]
  00006	8b 4d 0c	 mov	 ecx, DWORD PTR __Where$[ebp]
  00009	89 08		 mov	 DWORD PTR [eax], ecx

; 803  : 		}

  0000b	5d		 pop	 ebp
  0000c	c2 08 00	 ret	 8
?_Make_iter@?$vector@UtagNamedTitleGrade@@V?$allocator@UtagNamedTitleGrade@@@std@@@std@@QBE?AV?$_Vector_iterator@V?$_Vector_val@UtagNamedTitleGrade@@V?$allocator@UtagNamedTitleGrade@@@std@@@std@@@2@V?$_Vector_const_iterator@V?$_Vector_val@UtagNamedTitleGrade@@V?$allocator@UtagNamedTitleGrade@@@std@@@std@@@2@@Z ENDP ; std::vector<tagNamedTitleGrade,std::allocator<tagNamedTitleGrade> >::_Make_iter
_TEXT	ENDS
PUBLIC	??9?$_Vector_const_iterator@V?$_Vector_val@UtagNamedTitleGrade@@V?$allocator@UtagNamedTitleGrade@@@std@@@std@@@std@@QBE_NABV01@@Z ; std::_Vector_const_iterator<std::_Vector_val<tagNamedTitleGrade,std::allocator<tagNamedTitleGrade> > >::operator!=
; Function compile flags: /Ogsp
;	COMDAT ??9?$_Vector_const_iterator@V?$_Vector_val@UtagNamedTitleGrade@@V?$allocator@UtagNamedTitleGrade@@@std@@@std@@@std@@QBE_NABV01@@Z
_TEXT	SEGMENT
__Right$ = 8						; size = 4
??9?$_Vector_const_iterator@V?$_Vector_val@UtagNamedTitleGrade@@V?$allocator@UtagNamedTitleGrade@@@std@@@std@@@std@@QBE_NABV01@@Z PROC ; std::_Vector_const_iterator<std::_Vector_val<tagNamedTitleGrade,std::allocator<tagNamedTitleGrade> > >::operator!=, COMDAT
; _this$ = ecx

; 207  : 		{	// test for iterator inequality

  00000	55		 push	 ebp
  00001	8b ec		 mov	 ebp, esp

; 208  : 		return (!(*this == _Right));

  00003	8b 01		 mov	 eax, DWORD PTR [ecx]
  00005	8b 55 08	 mov	 edx, DWORD PTR __Right$[ebp]
  00008	33 c9		 xor	 ecx, ecx
  0000a	3b 02		 cmp	 eax, DWORD PTR [edx]
  0000c	0f 95 c0	 setne	 al

; 209  : 		}

  0000f	5d		 pop	 ebp
  00010	c2 04 00	 ret	 4
??9?$_Vector_const_iterator@V?$_Vector_val@UtagNamedTitleGrade@@V?$allocator@UtagNamedTitleGrade@@@std@@@std@@@std@@QBE_NABV01@@Z ENDP ; std::_Vector_const_iterator<std::_Vector_val<tagNamedTitleGrade,std::allocator<tagNamedTitleGrade> > >::operator!=
_TEXT	ENDS
PUBLIC	??$_Move@PAUtagNamedTitleGrade@@PAU1@@std@@YAPAUtagNamedTitleGrade@@PAU1@00@Z ; std::_Move<tagNamedTitleGrade *,tagNamedTitleGrade *>
; Function compile flags: /Ogsp
; File c:\program files (x86)\microsoft visual studio 10.0\vc\include\xutility
;	COMDAT ??$_Move@PAUtagNamedTitleGrade@@PAU1@@std@@YAPAUtagNamedTitleGrade@@PAU1@00@Z
_TEXT	SEGMENT
__Cat$538489 = -4					; size = 1
__First$ = 8						; size = 4
__Last$ = 12						; size = 4
__Dest$ = 16						; size = 4
??$_Move@PAUtagNamedTitleGrade@@PAU1@@std@@YAPAUtagNamedTitleGrade@@PAU1@00@Z PROC ; std::_Move<tagNamedTitleGrade *,tagNamedTitleGrade *>, COMDAT

; 2533 : 	{	// move [_First, _Last) to [_Dest, ...), unchecked

  00000	55		 push	 ebp
  00001	8b ec		 mov	 ebp, esp
  00003	51		 push	 ecx

; 2534 : 	return (_Move(_First, _Last,
; 2535 : 		_Dest, _Ptr_cat(_First, _Dest)));

  00004	ff 75 fc	 push	 DWORD PTR __Cat$538489[ebp]
  00007	ff 75 10	 push	 DWORD PTR __Dest$[ebp]
  0000a	ff 75 0c	 push	 DWORD PTR __Last$[ebp]
  0000d	ff 75 08	 push	 DWORD PTR __First$[ebp]
  00010	e8 00 00 00 00	 call	 ??$_Move@PAUtagNamedTitleGrade@@PAU1@@std@@YAPAUtagNamedTitleGrade@@PAU1@00U_Nonscalar_ptr_iterator_tag@0@@Z ; std::_Move<tagNamedTitleGrade *,tagNamedTitleGrade *>
  00015	83 c4 10	 add	 esp, 16			; 00000010H

; 2536 : 	}

  00018	c9		 leave
  00019	c3		 ret	 0
??$_Move@PAUtagNamedTitleGrade@@PAU1@@std@@YAPAUtagNamedTitleGrade@@PAU1@00@Z ENDP ; std::_Move<tagNamedTitleGrade *,tagNamedTitleGrade *>
_TEXT	ENDS
PUBLIC	??$_Destroy@UtagNamedTitleGrade@@@std@@YAXPAUtagNamedTitleGrade@@@Z ; std::_Destroy<tagNamedTitleGrade>
; Function compile flags: /Ogsp
; File c:\program files (x86)\microsoft visual studio 10.0\vc\include\xmemory
;	COMDAT ??$_Destroy@UtagNamedTitleGrade@@@std@@YAXPAUtagNamedTitleGrade@@@Z
_TEXT	SEGMENT
__Ptr$ = 8						; size = 4
??$_Destroy@UtagNamedTitleGrade@@@std@@YAXPAUtagNamedTitleGrade@@@Z PROC ; std::_Destroy<tagNamedTitleGrade>, COMDAT

; 62   : 	{	// destroy object at _Ptr

  00000	55		 push	 ebp
  00001	8b ec		 mov	 ebp, esp

; 63   : 	_Ptr->~_Ty();

  00003	8b 4d 08	 mov	 ecx, DWORD PTR __Ptr$[ebp]
  00006	83 c1 04	 add	 ecx, 4

; 64   : 	}

  00009	5d		 pop	 ebp

; 63   : 	_Ptr->~_Ty();

  0000a	ff 25 00 00 00
	00		 jmp	 DWORD PTR __imp_??1ioHashString@@QAE@XZ
??$_Destroy@UtagNamedTitleGrade@@@std@@YAXPAUtagNamedTitleGrade@@@Z ENDP ; std::_Destroy<tagNamedTitleGrade>
_TEXT	ENDS
PUBLIC	?OnNamedTitleUpdate@ioNamedTitleInfoManager@@QAEXAAVSP2Packet@@PAVioPlayStage@@@Z ; ioNamedTitleInfoManager::OnNamedTitleUpdate
; Function compile flags: /Ogsp
; File d:\lost saga for developer\youtube\tutorial\source\src\lsclient\ionamedtitleinfomanager.cpp
;	COMDAT ?OnNamedTitleUpdate@ioNamedTitleInfoManager@@QAEXAAVSP2Packet@@PAVioPlayStage@@@Z
_TEXT	SEGMENT
_eUpdateType$ = -1					; size = 1
_rkPacket$ = 8						; size = 4
_pPlayStage$ = 12					; size = 4
?OnNamedTitleUpdate@ioNamedTitleInfoManager@@QAEXAAVSP2Packet@@PAVioPlayStage@@@Z PROC ; ioNamedTitleInfoManager::OnNamedTitleUpdate, COMDAT
; _this$ = ecx

; 305  : {	

  00000	55		 push	 ebp
  00001	8b ec		 mov	 ebp, esp
  00003	51		 push	 ecx
  00004	56		 push	 esi
  00005	57		 push	 edi

; 306  : 	TCPNetwork::MouseBusy( false );

  00006	6a 00		 push	 0
  00008	8b f1		 mov	 esi, ecx
  0000a	e8 00 00 00 00	 call	 ?MouseBusy@TCPNetwork@@YAX_N@Z ; TCPNetwork::MouseBusy

; 307  : 
; 308  : 	byte eUpdateType;
; 309  : 	rkPacket >> eUpdateType;

  0000f	8b 7d 08	 mov	 edi, DWORD PTR _rkPacket$[ebp]
  00012	59		 pop	 ecx
  00013	8d 45 ff	 lea	 eax, DWORD PTR _eUpdateType$[ebp]
  00016	50		 push	 eax
  00017	8b cf		 mov	 ecx, edi
  00019	e8 00 00 00 00	 call	 ??5SP2Packet@@QAEAAV0@AAE@Z ; SP2Packet::operator>>

; 310  : 
; 311  : 	if ( eUpdateType == TUT_INSERT )

  0001e	8a 45 ff	 mov	 al, BYTE PTR _eUpdateType$[ebp]
  00021	84 c0		 test	 al, al
  00023	75 0a		 jne	 SHORT $LN10@OnNamedTit@9

; 312  : 		OnNamedTitleInsertSuccess( rkPacket );

  00025	57		 push	 edi
  00026	8b ce		 mov	 ecx, esi
  00028	e8 00 00 00 00	 call	 ?OnNamedTitleInsertSuccess@ioNamedTitleInfoManager@@IAEXAAVSP2Packet@@@Z ; ioNamedTitleInfoManager::OnNamedTitleInsertSuccess
  0002d	eb 43		 jmp	 SHORT $LN2@OnNamedTit@9
$LN10@OnNamedTit@9:

; 313  : 	else if ( eUpdateType == TUT_UPDATE )

  0002f	3c 01		 cmp	 al, 1
  00031	75 0a		 jne	 SHORT $LN8@OnNamedTit@9

; 314  : 		OnNamedTitleUpdateSuccess( rkPacket );

  00033	57		 push	 edi
  00034	8b ce		 mov	 ecx, esi
  00036	e8 00 00 00 00	 call	 ?OnNamedTitleUpdateSuccess@ioNamedTitleInfoManager@@IAEXAAVSP2Packet@@@Z ; ioNamedTitleInfoManager::OnNamedTitleUpdateSuccess
  0003b	eb 35		 jmp	 SHORT $LN2@OnNamedTit@9
$LN8@OnNamedTit@9:

; 315  : 	else if ( eUpdateType == TUT_LEVELUP )

  0003d	3c 03		 cmp	 al, 3
  0003f	75 0d		 jne	 SHORT $LN6@OnNamedTit@9

; 316  : 		OnNamedTitleLevelUpSuccess( rkPacket, pPlayStage );

  00041	ff 75 0c	 push	 DWORD PTR _pPlayStage$[ebp]
  00044	8b ce		 mov	 ecx, esi
  00046	57		 push	 edi
  00047	e8 00 00 00 00	 call	 ?OnNamedTitleLevelUpSuccess@ioNamedTitleInfoManager@@IAEXAAVSP2Packet@@PAVioPlayStage@@@Z ; ioNamedTitleInfoManager::OnNamedTitleLevelUpSuccess
  0004c	eb 24		 jmp	 SHORT $LN2@OnNamedTit@9
$LN6@OnNamedTit@9:

; 317  : 	else if ( eUpdateType == TUT_PREMIUM )

  0004e	3c 02		 cmp	 al, 2
  00050	75 0d		 jne	 SHORT $LN4@OnNamedTit@9

; 318  : 		OnNamedTitlePremiumSuccess( rkPacket, pPlayStage );

  00052	ff 75 0c	 push	 DWORD PTR _pPlayStage$[ebp]
  00055	8b ce		 mov	 ecx, esi
  00057	57		 push	 edi
  00058	e8 00 00 00 00	 call	 ?OnNamedTitlePremiumSuccess@ioNamedTitleInfoManager@@IAEXAAVSP2Packet@@PAVioPlayStage@@@Z ; ioNamedTitleInfoManager::OnNamedTitlePremiumSuccess
  0005d	eb 13		 jmp	 SHORT $LN2@OnNamedTit@9
$LN4@OnNamedTit@9:

; 319  : 	else if ( eUpdateType == TUT_EQUIP || eUpdateType == TUT_ALL_RELEASE )

  0005f	3c 05		 cmp	 al, 5
  00061	74 04		 je	 SHORT $LN1@OnNamedTit@9
  00063	3c 06		 cmp	 al, 6
  00065	75 0b		 jne	 SHORT $LN2@OnNamedTit@9
$LN1@OnNamedTit@9:

; 320  : 		OnNamedTitleChange( rkPacket, pPlayStage );

  00067	ff 75 0c	 push	 DWORD PTR _pPlayStage$[ebp]
  0006a	8b ce		 mov	 ecx, esi
  0006c	57		 push	 edi
  0006d	e8 00 00 00 00	 call	 ?OnNamedTitleChange@ioNamedTitleInfoManager@@QAEXAAVSP2Packet@@PAVioPlayStage@@@Z ; ioNamedTitleInfoManager::OnNamedTitleChange
$LN2@OnNamedTit@9:
  00072	5f		 pop	 edi
  00073	5e		 pop	 esi

; 321  : }

  00074	c9		 leave
  00075	c2 08 00	 ret	 8
?OnNamedTitleUpdate@ioNamedTitleInfoManager@@QAEXAAVSP2Packet@@PAVioPlayStage@@@Z ENDP ; ioNamedTitleInfoManager::OnNamedTitleUpdate
_TEXT	ENDS
PUBLIC	?end@?$_Tree@V?$_Tmap_traits@KUtagNamedTitleInfo@@U?$less@K@std@@V?$allocator@U?$pair@$$CBKUtagNamedTitleInfo@@@std@@@3@$0A@@std@@@std@@QAE?AV?$_Tree_iterator@V?$_Tree_val@V?$_Tmap_traits@KUtagNamedTitleInfo@@U?$less@K@std@@V?$allocator@U?$pair@$$CBKUtagNamedTitleInfo@@@std@@@3@$0A@@std@@@std@@@2@XZ ; std::_Tree<std::_Tmap_traits<unsigned long,tagNamedTitleInfo,std::less<unsigned long>,std::allocator<std::pair<unsigned long const ,tagNamedTitleInfo> >,0> >::end
; Function compile flags: /Ogsp
; File c:\program files (x86)\microsoft visual studio 10.0\vc\include\xtree
;	COMDAT ?end@?$_Tree@V?$_Tmap_traits@KUtagNamedTitleInfo@@U?$less@K@std@@V?$allocator@U?$pair@$$CBKUtagNamedTitleInfo@@@std@@@3@$0A@@std@@@std@@QAE?AV?$_Tree_iterator@V?$_Tree_val@V?$_Tmap_traits@KUtagNamedTitleInfo@@U?$less@K@std@@V?$allocator@U?$pair@$$CBKUtagNamedTitleInfo@@@std@@@3@$0A@@std@@@std@@@2@XZ
_TEXT	SEGMENT
___$ReturnUdt$ = 8					; size = 4
?end@?$_Tree@V?$_Tmap_traits@KUtagNamedTitleInfo@@U?$less@K@std@@V?$allocator@U?$pair@$$CBKUtagNamedTitleInfo@@@std@@@3@$0A@@std@@@std@@QAE?AV?$_Tree_iterator@V?$_Tree_val@V?$_Tmap_traits@KUtagNamedTitleInfo@@U?$less@K@std@@V?$allocator@U?$pair@$$CBKUtagNamedTitleInfo@@@std@@@3@$0A@@std@@@std@@@2@XZ PROC ; std::_Tree<std::_Tmap_traits<unsigned long,tagNamedTitleInfo,std::less<unsigned long>,std::allocator<std::pair<unsigned long const ,tagNamedTitleInfo> >,0> >::end, COMDAT
; _this$ = ecx

; 816  : 		{	// return iterator for end of mutable sequence

  00000	55		 push	 ebp
  00001	8b ec		 mov	 ebp, esp

; 817  : 		return (iterator(this->_Myhead, this));

  00003	8b 49 04	 mov	 ecx, DWORD PTR [ecx+4]
  00006	8b 45 08	 mov	 eax, DWORD PTR ___$ReturnUdt$[ebp]
  00009	89 08		 mov	 DWORD PTR [eax], ecx

; 818  : 		}

  0000b	5d		 pop	 ebp
  0000c	c2 04 00	 ret	 4
?end@?$_Tree@V?$_Tmap_traits@KUtagNamedTitleInfo@@U?$less@K@std@@V?$allocator@U?$pair@$$CBKUtagNamedTitleInfo@@@std@@@3@$0A@@std@@@std@@QAE?AV?$_Tree_iterator@V?$_Tree_val@V?$_Tmap_traits@KUtagNamedTitleInfo@@U?$less@K@std@@V?$allocator@U?$pair@$$CBKUtagNamedTitleInfo@@@std@@@3@$0A@@std@@@std@@@2@XZ ENDP ; std::_Tree<std::_Tmap_traits<unsigned long,tagNamedTitleInfo,std::less<unsigned long>,std::allocator<std::pair<unsigned long const ,tagNamedTitleInfo> >,0> >::end
_TEXT	ENDS
PUBLIC	??0?$_Tree@V?$_Tmap_traits@KUtagNamedTitleInfo@@U?$less@K@std@@V?$allocator@U?$pair@$$CBKUtagNamedTitleInfo@@@std@@@3@$0A@@std@@@std@@QAE@ABU?$less@K@1@ABV?$allocator@U?$pair@$$CBKUtagNamedTitleInfo@@@std@@@1@@Z ; std::_Tree<std::_Tmap_traits<unsigned long,tagNamedTitleInfo,std::less<unsigned long>,std::allocator<std::pair<unsigned long const ,tagNamedTitleInfo> >,0> >::_Tree<std::_Tmap_traits<unsigned long,tagNamedTitleInfo,std::less<unsigned long>,std::allocator<std::pair<unsigned long const ,tagNamedTitleInfo> >,0> >
; Function compile flags: /Ogsp
;	COMDAT ??0?$_Tree@V?$_Tmap_traits@KUtagNamedTitleInfo@@U?$less@K@std@@V?$allocator@U?$pair@$$CBKUtagNamedTitleInfo@@@std@@@3@$0A@@std@@@std@@QAE@ABU?$less@K@1@ABV?$allocator@U?$pair@$$CBKUtagNamedTitleInfo@@@std@@@1@@Z
_TEXT	SEGMENT
$T538540 = -4						; size = 4
$T538535 = -4						; size = 4
__Parg$ = 8						; size = 4
__Al$ = 12						; size = 4
??0?$_Tree@V?$_Tmap_traits@KUtagNamedTitleInfo@@U?$less@K@std@@V?$allocator@U?$pair@$$CBKUtagNamedTitleInfo@@@std@@@3@$0A@@std@@@std@@QAE@ABU?$less@K@1@ABV?$allocator@U?$pair@$$CBKUtagNamedTitleInfo@@@std@@@1@@Z PROC ; std::_Tree<std::_Tmap_traits<unsigned long,tagNamedTitleInfo,std::less<unsigned long>,std::allocator<std::pair<unsigned long const ,tagNamedTitleInfo> >,0> >::_Tree<std::_Tmap_traits<unsigned long,tagNamedTitleInfo,std::less<unsigned long>,std::allocator<std::pair<unsigned long const ,tagNamedTitleInfo> >,0> >, COMDAT
; _this$ = ecx

; 698  : 		{	// construct empty tree

  00000	55		 push	 ebp
  00001	8b ec		 mov	 ebp, esp
  00003	51		 push	 ecx
  00004	56		 push	 esi
  00005	51		 push	 ecx
  00006	89 65 fc	 mov	 DWORD PTR $T538535[ebp], esp
  00009	89 65 fc	 mov	 DWORD PTR $T538540[ebp], esp
  0000c	ff 75 08	 push	 DWORD PTR __Parg$[ebp]
  0000f	8b f1		 mov	 esi, ecx
  00011	e8 00 00 00 00	 call	 ??0?$_Tree_val@V?$_Tmap_traits@KUtagNamedTitleInfo@@U?$less@K@std@@V?$allocator@U?$pair@$$CBKUtagNamedTitleInfo@@@std@@@3@$0A@@std@@@std@@QAE@ABU?$less@K@1@V?$allocator@U?$pair@$$CBKUtagNamedTitleInfo@@@std@@@1@@Z ; std::_Tree_val<std::_Tmap_traits<unsigned long,tagNamedTitleInfo,std::less<unsigned long>,std::allocator<std::pair<unsigned long const ,tagNamedTitleInfo> >,0> >::_Tree_val<std::_Tmap_traits<unsigned long,tagNamedTitleInfo,std::less<unsigned long>,std::allocator<std::pair<unsigned long const ,tagNamedTitleInfo> >,0> >

; 699  : 		}

  00016	8b c6		 mov	 eax, esi
  00018	5e		 pop	 esi
  00019	c9		 leave
  0001a	c2 08 00	 ret	 8
??0?$_Tree@V?$_Tmap_traits@KUtagNamedTitleInfo@@U?$less@K@std@@V?$allocator@U?$pair@$$CBKUtagNamedTitleInfo@@@std@@@3@$0A@@std@@@std@@QAE@ABU?$less@K@1@ABV?$allocator@U?$pair@$$CBKUtagNamedTitleInfo@@@std@@@1@@Z ENDP ; std::_Tree<std::_Tmap_traits<unsigned long,tagNamedTitleInfo,std::less<unsigned long>,std::allocator<std::pair<unsigned long const ,tagNamedTitleInfo> >,0> >::_Tree<std::_Tmap_traits<unsigned long,tagNamedTitleInfo,std::less<unsigned long>,std::allocator<std::pair<unsigned long const ,tagNamedTitleInfo> >,0> >
_TEXT	ENDS
PUBLIC	?lower_bound@?$_Tree@V?$_Tmap_traits@KUtagNamedTitleInfo@@U?$less@K@std@@V?$allocator@U?$pair@$$CBKUtagNamedTitleInfo@@@std@@@3@$0A@@std@@@std@@QAE?AV?$_Tree_iterator@V?$_Tree_val@V?$_Tmap_traits@KUtagNamedTitleInfo@@U?$less@K@std@@V?$allocator@U?$pair@$$CBKUtagNamedTitleInfo@@@std@@@3@$0A@@std@@@std@@@2@ABK@Z ; std::_Tree<std::_Tmap_traits<unsigned long,tagNamedTitleInfo,std::less<unsigned long>,std::allocator<std::pair<unsigned long const ,tagNamedTitleInfo> >,0> >::lower_bound
; Function compile flags: /Ogsp
;	COMDAT ?lower_bound@?$_Tree@V?$_Tmap_traits@KUtagNamedTitleInfo@@U?$less@K@std@@V?$allocator@U?$pair@$$CBKUtagNamedTitleInfo@@@std@@@3@$0A@@std@@@std@@QAE?AV?$_Tree_iterator@V?$_Tree_val@V?$_Tmap_traits@KUtagNamedTitleInfo@@U?$less@K@std@@V?$allocator@U?$pair@$$CBKUtagNamedTitleInfo@@@std@@@3@$0A@@std@@@std@@@2@ABK@Z
_TEXT	SEGMENT
___$ReturnUdt$ = 8					; size = 4
__Keyval$ = 12						; size = 4
?lower_bound@?$_Tree@V?$_Tmap_traits@KUtagNamedTitleInfo@@U?$less@K@std@@V?$allocator@U?$pair@$$CBKUtagNamedTitleInfo@@@std@@@3@$0A@@std@@@std@@QAE?AV?$_Tree_iterator@V?$_Tree_val@V?$_Tmap_traits@KUtagNamedTitleInfo@@U?$less@K@std@@V?$allocator@U?$pair@$$CBKUtagNamedTitleInfo@@@std@@@3@$0A@@std@@@std@@@2@ABK@Z PROC ; std::_Tree<std::_Tmap_traits<unsigned long,tagNamedTitleInfo,std::less<unsigned long>,std::allocator<std::pair<unsigned long const ,tagNamedTitleInfo> >,0> >::lower_bound, COMDAT
; _this$ = ecx

; 1449 : 		{	// find leftmost node not less than _Keyval in mutable tree

  00000	55		 push	 ebp
  00001	8b ec		 mov	 ebp, esp

; 1450 : 		return (iterator(_Lbound(_Keyval), this));

  00003	ff 75 0c	 push	 DWORD PTR __Keyval$[ebp]
  00006	e8 00 00 00 00	 call	 ?_Lbound@?$_Tree@V?$_Tmap_traits@KUtagNamedTitleInfo@@U?$less@K@std@@V?$allocator@U?$pair@$$CBKUtagNamedTitleInfo@@@std@@@3@$0A@@std@@@std@@IAEPAU_Node@?$_Tree_nod@V?$_Tmap_traits@KUtagNamedTitleInfo@@U?$less@K@std@@V?$allocator@U?$pair@$$CBKUtagNamedTitleInfo@@@std@@@3@$0A@@std@@@2@ABK@Z ; std::_Tree<std::_Tmap_traits<unsigned long,tagNamedTitleInfo,std::less<unsigned long>,std::allocator<std::pair<unsigned long const ,tagNamedTitleInfo> >,0> >::_Lbound
  0000b	8b 4d 08	 mov	 ecx, DWORD PTR ___$ReturnUdt$[ebp]
  0000e	89 01		 mov	 DWORD PTR [ecx], eax
  00010	8b c1		 mov	 eax, ecx

; 1451 : 		}

  00012	5d		 pop	 ebp
  00013	c2 08 00	 ret	 8
?lower_bound@?$_Tree@V?$_Tmap_traits@KUtagNamedTitleInfo@@U?$less@K@std@@V?$allocator@U?$pair@$$CBKUtagNamedTitleInfo@@@std@@@3@$0A@@std@@@std@@QAE?AV?$_Tree_iterator@V?$_Tree_val@V?$_Tmap_traits@KUtagNamedTitleInfo@@U?$less@K@std@@V?$allocator@U?$pair@$$CBKUtagNamedTitleInfo@@@std@@@3@$0A@@std@@@std@@@2@ABK@Z ENDP ; std::_Tree<std::_Tmap_traits<unsigned long,tagNamedTitleInfo,std::less<unsigned long>,std::allocator<std::pair<unsigned long const ,tagNamedTitleInfo> >,0> >::lower_bound
_TEXT	ENDS
PUBLIC	??$_Cons_val@V?$allocator@UtagNamedTitleGrade@@@std@@UtagNamedTitleGrade@@ABU3@@std@@YAXAAV?$allocator@UtagNamedTitleGrade@@@0@PAUtagNamedTitleGrade@@ABU2@@Z ; std::_Cons_val<std::allocator<tagNamedTitleGrade>,tagNamedTitleGrade,tagNamedTitleGrade const &>
; Function compile flags: /Ogsp
; File c:\program files (x86)\microsoft visual studio 10.0\vc\include\xmemory
;	COMDAT ??$_Cons_val@V?$allocator@UtagNamedTitleGrade@@@std@@UtagNamedTitleGrade@@ABU3@@std@@YAXAAV?$allocator@UtagNamedTitleGrade@@@0@PAUtagNamedTitleGrade@@ABU2@@Z
_TEXT	SEGMENT
__Alval$ = 8						; size = 4
__Pdest$ = 12						; size = 4
__Src$ = 16						; size = 4
??$_Cons_val@V?$allocator@UtagNamedTitleGrade@@@std@@UtagNamedTitleGrade@@ABU3@@std@@YAXAAV?$allocator@UtagNamedTitleGrade@@@0@PAUtagNamedTitleGrade@@ABU2@@Z PROC ; std::_Cons_val<std::allocator<tagNamedTitleGrade>,tagNamedTitleGrade,tagNamedTitleGrade const &>, COMDAT

; 279  : 	{	// construct using allocator

  00000	55		 push	 ebp
  00001	8b ec		 mov	 ebp, esp

; 280  : 	_Alval.construct(_Pdest, _STD forward<_Ty2>(_Src));

  00003	ff 75 10	 push	 DWORD PTR __Src$[ebp]
  00006	ff 75 0c	 push	 DWORD PTR __Pdest$[ebp]
  00009	e8 00 00 00 00	 call	 ??$_Construct@UtagNamedTitleGrade@@ABU1@@std@@YAXPAUtagNamedTitleGrade@@ABU1@@Z ; std::_Construct<tagNamedTitleGrade,tagNamedTitleGrade const &>
  0000e	59		 pop	 ecx
  0000f	59		 pop	 ecx

; 281  : 	}

  00010	5d		 pop	 ebp
  00011	c3		 ret	 0
??$_Cons_val@V?$allocator@UtagNamedTitleGrade@@@std@@UtagNamedTitleGrade@@ABU3@@std@@YAXAAV?$allocator@UtagNamedTitleGrade@@@0@PAUtagNamedTitleGrade@@ABU2@@Z ENDP ; std::_Cons_val<std::allocator<tagNamedTitleGrade>,tagNamedTitleGrade,tagNamedTitleGrade const &>
_TEXT	ENDS
PUBLIC	?destroy@?$allocator@UtagNamedTitleGrade@@@std@@QAEXPAUtagNamedTitleGrade@@@Z ; std::allocator<tagNamedTitleGrade>::destroy
; Function compile flags: /Ogsp
;	COMDAT ?destroy@?$allocator@UtagNamedTitleGrade@@@std@@QAEXPAUtagNamedTitleGrade@@@Z
_TEXT	SEGMENT
__Ptr$ = 8						; size = 4
?destroy@?$allocator@UtagNamedTitleGrade@@@std@@QAEXPAUtagNamedTitleGrade@@@Z PROC ; std::allocator<tagNamedTitleGrade>::destroy, COMDAT
; _this$ = ecx

; 212  : 		{	// destroy object at _Ptr

  00000	55		 push	 ebp
  00001	8b ec		 mov	 ebp, esp

; 213  : 		_Destroy(_Ptr);

  00003	8b 4d 08	 mov	 ecx, DWORD PTR __Ptr$[ebp]
  00006	83 c1 04	 add	 ecx, 4
  00009	ff 15 00 00 00
	00		 call	 DWORD PTR __imp_??1ioHashString@@QAE@XZ

; 214  : 		}

  0000f	5d		 pop	 ebp
  00010	c2 04 00	 ret	 4
?destroy@?$allocator@UtagNamedTitleGrade@@@std@@QAEXPAUtagNamedTitleGrade@@@Z ENDP ; std::allocator<tagNamedTitleGrade>::destroy
_TEXT	ENDS
PUBLIC	?find@?$_Tree@V?$_Tmap_traits@KUtagNamedTitleInfo@@U?$less@K@std@@V?$allocator@U?$pair@$$CBKUtagNamedTitleInfo@@@std@@@3@$0A@@std@@@std@@QAE?AV?$_Tree_iterator@V?$_Tree_val@V?$_Tmap_traits@KUtagNamedTitleInfo@@U?$less@K@std@@V?$allocator@U?$pair@$$CBKUtagNamedTitleInfo@@@std@@@3@$0A@@std@@@std@@@2@ABK@Z ; std::_Tree<std::_Tmap_traits<unsigned long,tagNamedTitleInfo,std::less<unsigned long>,std::allocator<std::pair<unsigned long const ,tagNamedTitleInfo> >,0> >::find
; Function compile flags: /Ogsp
; File c:\program files (x86)\microsoft visual studio 10.0\vc\include\xtree
;	COMDAT ?find@?$_Tree@V?$_Tmap_traits@KUtagNamedTitleInfo@@U?$less@K@std@@V?$allocator@U?$pair@$$CBKUtagNamedTitleInfo@@@std@@@3@$0A@@std@@@std@@QAE?AV?$_Tree_iterator@V?$_Tree_val@V?$_Tmap_traits@KUtagNamedTitleInfo@@U?$less@K@std@@V?$allocator@U?$pair@$$CBKUtagNamedTitleInfo@@@std@@@3@$0A@@std@@@std@@@2@ABK@Z
_TEXT	SEGMENT
$T538601 = -4						; size = 4
___$ReturnUdt$ = 8					; size = 4
__Where$ = 12						; size = 4
__Keyval$ = 12						; size = 4
?find@?$_Tree@V?$_Tmap_traits@KUtagNamedTitleInfo@@U?$less@K@std@@V?$allocator@U?$pair@$$CBKUtagNamedTitleInfo@@@std@@@3@$0A@@std@@@std@@QAE?AV?$_Tree_iterator@V?$_Tree_val@V?$_Tmap_traits@KUtagNamedTitleInfo@@U?$less@K@std@@V?$allocator@U?$pair@$$CBKUtagNamedTitleInfo@@@std@@@3@$0A@@std@@@std@@@2@ABK@Z PROC ; std::_Tree<std::_Tmap_traits<unsigned long,tagNamedTitleInfo,std::less<unsigned long>,std::allocator<std::pair<unsigned long const ,tagNamedTitleInfo> >,0> >::find, COMDAT
; _this$ = ecx

; 1423 : 		{	// find an element in mutable sequence that matches _Keyval

  00000	55		 push	 ebp
  00001	8b ec		 mov	 ebp, esp
  00003	51		 push	 ecx
  00004	56		 push	 esi
  00005	57		 push	 edi

; 1424 : 		iterator _Where = lower_bound(_Keyval);

  00006	8b 7d 0c	 mov	 edi, DWORD PTR __Keyval$[ebp]
  00009	57		 push	 edi
  0000a	8b f1		 mov	 esi, ecx
  0000c	e8 00 00 00 00	 call	 ?_Lbound@?$_Tree@V?$_Tmap_traits@KUtagNamedTitleInfo@@U?$less@K@std@@V?$allocator@U?$pair@$$CBKUtagNamedTitleInfo@@@std@@@3@$0A@@std@@@std@@IAEPAU_Node@?$_Tree_nod@V?$_Tmap_traits@KUtagNamedTitleInfo@@U?$less@K@std@@V?$allocator@U?$pair@$$CBKUtagNamedTitleInfo@@@std@@@3@$0A@@std@@@2@ABK@Z ; std::_Tree<std::_Tmap_traits<unsigned long,tagNamedTitleInfo,std::less<unsigned long>,std::allocator<std::pair<unsigned long const ,tagNamedTitleInfo> >,0> >::_Lbound

; 1425 : 		return (_Where == end()
; 1426 : 			|| _DEBUG_LT_PRED(this->comp,
; 1427 : 				_Keyval, this->_Key(_Where._Mynode()))
; 1428 : 					? end() : _Where);

  00011	8b 76 04	 mov	 esi, DWORD PTR [esi+4]
  00014	89 45 0c	 mov	 DWORD PTR __Where$[ebp], eax
  00017	3b c6		 cmp	 eax, esi
  00019	74 0c		 je	 SHORT $LN3@find
  0001b	8b 0f		 mov	 ecx, DWORD PTR [edi]
  0001d	3b 48 0c	 cmp	 ecx, DWORD PTR [eax+12]
  00020	72 05		 jb	 SHORT $LN3@find
  00022	8d 45 0c	 lea	 eax, DWORD PTR __Where$[ebp]
  00025	eb 06		 jmp	 SHORT $LN4@find
$LN3@find:
  00027	89 75 fc	 mov	 DWORD PTR $T538601[ebp], esi
  0002a	8d 45 fc	 lea	 eax, DWORD PTR $T538601[ebp]
$LN4@find:
  0002d	8b 08		 mov	 ecx, DWORD PTR [eax]
  0002f	8b 45 08	 mov	 eax, DWORD PTR ___$ReturnUdt$[ebp]
  00032	5f		 pop	 edi
  00033	89 08		 mov	 DWORD PTR [eax], ecx
  00035	5e		 pop	 esi

; 1429 : 		}

  00036	c9		 leave
  00037	c2 08 00	 ret	 8
?find@?$_Tree@V?$_Tmap_traits@KUtagNamedTitleInfo@@U?$less@K@std@@V?$allocator@U?$pair@$$CBKUtagNamedTitleInfo@@@std@@@3@$0A@@std@@@std@@QAE?AV?$_Tree_iterator@V?$_Tree_val@V?$_Tmap_traits@KUtagNamedTitleInfo@@U?$less@K@std@@V?$allocator@U?$pair@$$CBKUtagNamedTitleInfo@@@std@@@3@$0A@@std@@@std@@@2@ABK@Z ENDP ; std::_Tree<std::_Tmap_traits<unsigned long,tagNamedTitleInfo,std::less<unsigned long>,std::allocator<std::pair<unsigned long const ,tagNamedTitleInfo> >,0> >::find
_TEXT	ENDS
PUBLIC	??$_Dest_val@V?$allocator@UtagNamedTitleGrade@@@std@@UtagNamedTitleGrade@@@std@@YAXAAV?$allocator@UtagNamedTitleGrade@@@0@PAUtagNamedTitleGrade@@@Z ; std::_Dest_val<std::allocator<tagNamedTitleGrade>,tagNamedTitleGrade>
; Function compile flags: /Ogsp
; File c:\program files (x86)\microsoft visual studio 10.0\vc\include\xmemory
;	COMDAT ??$_Dest_val@V?$allocator@UtagNamedTitleGrade@@@std@@UtagNamedTitleGrade@@@std@@YAXAAV?$allocator@UtagNamedTitleGrade@@@0@PAUtagNamedTitleGrade@@@Z
_TEXT	SEGMENT
__Alval$ = 8						; size = 4
__Pdest$ = 12						; size = 4
??$_Dest_val@V?$allocator@UtagNamedTitleGrade@@@std@@UtagNamedTitleGrade@@@std@@YAXAAV?$allocator@UtagNamedTitleGrade@@@0@PAUtagNamedTitleGrade@@@Z PROC ; std::_Dest_val<std::allocator<tagNamedTitleGrade>,tagNamedTitleGrade>, COMDAT

; 286  : 	{	// destroy using allocator

  00000	55		 push	 ebp
  00001	8b ec		 mov	 ebp, esp

; 287  : 	_Alval.destroy(_Pdest);

  00003	8b 4d 0c	 mov	 ecx, DWORD PTR __Pdest$[ebp]
  00006	83 c1 04	 add	 ecx, 4

; 288  : 	}

  00009	5d		 pop	 ebp

; 287  : 	_Alval.destroy(_Pdest);

  0000a	ff 25 00 00 00
	00		 jmp	 DWORD PTR __imp_??1ioHashString@@QAE@XZ
??$_Dest_val@V?$allocator@UtagNamedTitleGrade@@@std@@UtagNamedTitleGrade@@@std@@YAXAAV?$allocator@UtagNamedTitleGrade@@@0@PAUtagNamedTitleGrade@@@Z ENDP ; std::_Dest_val<std::allocator<tagNamedTitleGrade>,tagNamedTitleGrade>
_TEXT	ENDS
PUBLIC	?GetNamedTitleGrade@ioNamedTitleInfoManager@@QAE_NKHAAUtagNamedTitleGrade@@@Z ; ioNamedTitleInfoManager::GetNamedTitleGrade
; Function compile flags: /Ogsp
; File d:\lost saga for developer\youtube\tutorial\source\src\lsclient\ionamedtitleinfomanager.cpp
;	COMDAT ?GetNamedTitleGrade@ioNamedTitleInfoManager@@QAE_NKHAAUtagNamedTitleGrade@@@Z
_TEXT	SEGMENT
tv257 = -4						; size = 4
_dwCode$ = 8						; size = 4
_nLevel$ = 12						; size = 4
_FindIter$ = 16						; size = 4
_sNamedTitleGrade$ = 16					; size = 4
?GetNamedTitleGrade@ioNamedTitleInfoManager@@QAE_NKHAAUtagNamedTitleGrade@@@Z PROC ; ioNamedTitleInfoManager::GetNamedTitleGrade, COMDAT
; _this$ = ecx

; 167  : {

  00000	55		 push	 ebp
  00001	8b ec		 mov	 ebp, esp
  00003	51		 push	 ecx
  00004	53		 push	 ebx
  00005	56		 push	 esi
  00006	57		 push	 edi

; 168  : 	sNamedTitleGrade.Init();

  00007	8b 7d 10	 mov	 edi, DWORD PTR _sNamedTitleGrade$[ebp]
  0000a	8b d9		 mov	 ebx, ecx
  0000c	8d 4f 04	 lea	 ecx, DWORD PTR [edi+4]
  0000f	33 f6		 xor	 esi, esi
  00011	89 37		 mov	 DWORD PTR [edi], esi
  00013	89 4d fc	 mov	 DWORD PTR tv257[ebp], ecx
  00016	ff 15 00 00 00
	00		 call	 DWORD PTR __imp_?Clear@ioHashString@@QAEXXZ

; 169  : 
; 170  : 	if ( dwCode <= 0 || m_vInfoList.empty() )

  0001c	39 75 08	 cmp	 DWORD PTR _dwCode$[ebp], esi
  0001f	76 4f		 jbe	 SHORT $LN4@GetNamedTi@2
  00021	39 73 0c	 cmp	 DWORD PTR [ebx+12], esi
  00024	74 4a		 je	 SHORT $LN4@GetNamedTi@2

; 172  : 
; 173  : 	NamedTitleInfoList::iterator FindIter = m_vInfoList.find( dwCode );

  00026	8d 45 08	 lea	 eax, DWORD PTR _dwCode$[ebp]
  00029	50		 push	 eax
  0002a	8d 45 10	 lea	 eax, DWORD PTR _FindIter$[ebp]
  0002d	50		 push	 eax
  0002e	8d 4b 04	 lea	 ecx, DWORD PTR [ebx+4]
  00031	e8 00 00 00 00	 call	 ?find@?$_Tree@V?$_Tmap_traits@KUtagNamedTitleInfo@@U?$less@K@std@@V?$allocator@U?$pair@$$CBKUtagNamedTitleInfo@@@std@@@3@$0A@@std@@@std@@QAE?AV?$_Tree_iterator@V?$_Tree_val@V?$_Tmap_traits@KUtagNamedTitleInfo@@U?$less@K@std@@V?$allocator@U?$pair@$$CBKUtagNamedTitleInfo@@@std@@@3@$0A@@std@@@std@@@2@ABK@Z ; std::_Tree<std::_Tmap_traits<unsigned long,tagNamedTitleInfo,std::less<unsigned long>,std::allocator<std::pair<unsigned long const ,tagNamedTitleInfo> >,0> >::find

; 174  : 	if ( FindIter != m_vInfoList.end() )

  00036	8b 75 10	 mov	 esi, DWORD PTR _FindIter$[ebp]
  00039	3b 73 08	 cmp	 esi, DWORD PTR [ebx+8]
  0003c	74 32		 je	 SHORT $LN4@GetNamedTi@2

; 175  : 	{
; 176  : 		const NamedTitleInfo &rNamedTitleInfo = FindIter->second;
; 177  : 		if ( !COMPARE( nLevel, 0, (int)rNamedTitleInfo.m_GradeList.size() ) )

  0003e	8b 4d 0c	 mov	 ecx, DWORD PTR _nLevel$[ebp]
  00041	85 c9		 test	 ecx, ecx
  00043	78 2b		 js	 SHORT $LN4@GetNamedTi@2
  00045	8b 46 28	 mov	 eax, DWORD PTR [esi+40]
  00048	2b 46 24	 sub	 eax, DWORD PTR [esi+36]
  0004b	6a 14		 push	 20			; 00000014H
  0004d	99		 cdq
  0004e	5b		 pop	 ebx
  0004f	f7 fb		 idiv	 ebx
  00051	3b c8		 cmp	 ecx, eax
  00053	7d 1b		 jge	 SHORT $LN4@GetNamedTi@2

; 178  : 			return false;
; 179  : 
; 180  : 		sNamedTitleGrade = rNamedTitleInfo.m_GradeList[nLevel];

  00055	6b c9 14	 imul	 ecx, 20			; 00000014H
  00058	03 4e 24	 add	 ecx, DWORD PTR [esi+36]
  0005b	8b 01		 mov	 eax, DWORD PTR [ecx]
  0005d	83 c1 04	 add	 ecx, 4
  00060	51		 push	 ecx
  00061	8b 4d fc	 mov	 ecx, DWORD PTR tv257[ebp]
  00064	89 07		 mov	 DWORD PTR [edi], eax
  00066	ff 15 00 00 00
	00		 call	 DWORD PTR __imp_??4ioHashString@@QAEAAV0@ABV0@@Z

; 181  : 		return true;

  0006c	b0 01		 mov	 al, 1
  0006e	eb 02		 jmp	 SHORT $LN6@GetNamedTi@2
$LN4@GetNamedTi@2:

; 171  : 		return false;

  00070	32 c0		 xor	 al, al
$LN6@GetNamedTi@2:
  00072	5f		 pop	 edi
  00073	5e		 pop	 esi
  00074	5b		 pop	 ebx

; 182  : 	}
; 183  : 
; 184  : 	return false;
; 185  : }

  00075	c9		 leave
  00076	c2 0c 00	 ret	 12			; 0000000cH
?GetNamedTitleGrade@ioNamedTitleInfoManager@@QAE_NKHAAUtagNamedTitleGrade@@@Z ENDP ; ioNamedTitleInfoManager::GetNamedTitleGrade
_TEXT	ENDS
PUBLIC	?IsEnableUpgrade@ioNamedTitleInfoManager@@QAE_NKH@Z ; ioNamedTitleInfoManager::IsEnableUpgrade
; Function compile flags: /Ogsp
;	COMDAT ?IsEnableUpgrade@ioNamedTitleInfoManager@@QAE_NKH@Z
_TEXT	SEGMENT
_FindIter$ = -4						; size = 4
_dwCode$ = 8						; size = 4
_nLevel$ = 12						; size = 4
?IsEnableUpgrade@ioNamedTitleInfoManager@@QAE_NKH@Z PROC ; ioNamedTitleInfoManager::IsEnableUpgrade, COMDAT
; _this$ = ecx

; 188  : {

  00000	55		 push	 ebp
  00001	8b ec		 mov	 ebp, esp
  00003	51		 push	 ecx

; 189  : 	if ( dwCode <= 0 || m_vInfoList.empty() )

  00004	83 7d 08 00	 cmp	 DWORD PTR _dwCode$[ebp], 0
  00008	56		 push	 esi
  00009	8b f1		 mov	 esi, ecx
  0000b	76 3b		 jbe	 SHORT $LN3@IsEnableUp
  0000d	83 7e 0c 00	 cmp	 DWORD PTR [esi+12], 0
  00011	74 35		 je	 SHORT $LN3@IsEnableUp

; 191  : 
; 192  : 	NamedTitleInfoList::iterator FindIter = m_vInfoList.find( dwCode );

  00013	8d 45 08	 lea	 eax, DWORD PTR _dwCode$[ebp]
  00016	50		 push	 eax
  00017	8d 45 fc	 lea	 eax, DWORD PTR _FindIter$[ebp]
  0001a	50		 push	 eax
  0001b	8d 4e 04	 lea	 ecx, DWORD PTR [esi+4]
  0001e	e8 00 00 00 00	 call	 ?find@?$_Tree@V?$_Tmap_traits@KUtagNamedTitleInfo@@U?$less@K@std@@V?$allocator@U?$pair@$$CBKUtagNamedTitleInfo@@@std@@@3@$0A@@std@@@std@@QAE?AV?$_Tree_iterator@V?$_Tree_val@V?$_Tmap_traits@KUtagNamedTitleInfo@@U?$less@K@std@@V?$allocator@U?$pair@$$CBKUtagNamedTitleInfo@@@std@@@3@$0A@@std@@@std@@@2@ABK@Z ; std::_Tree<std::_Tmap_traits<unsigned long,tagNamedTitleInfo,std::less<unsigned long>,std::allocator<std::pair<unsigned long const ,tagNamedTitleInfo> >,0> >::find

; 193  : 	if ( FindIter != m_vInfoList.end() )

  00023	8b 4d fc	 mov	 ecx, DWORD PTR _FindIter$[ebp]
  00026	3b 4e 08	 cmp	 ecx, DWORD PTR [esi+8]
  00029	74 1d		 je	 SHORT $LN3@IsEnableUp

; 194  : 	{
; 195  : 		const NamedTitleInfo &rNamedTitleInfo = FindIter->second;
; 196  : 		int nGradeCnt = (int)rNamedTitleInfo.m_GradeList.size();

  0002b	8b 41 28	 mov	 eax, DWORD PTR [ecx+40]
  0002e	2b 41 24	 sub	 eax, DWORD PTR [ecx+36]
  00031	6a 14		 push	 20			; 00000014H
  00033	99		 cdq
  00034	59		 pop	 ecx
  00035	f7 f9		 idiv	 ecx

; 197  : 		if ( nGradeCnt > 1 && nLevel + 1 < nGradeCnt )

  00037	83 f8 01	 cmp	 eax, 1
  0003a	7e 0c		 jle	 SHORT $LN3@IsEnableUp
  0003c	8b 4d 0c	 mov	 ecx, DWORD PTR _nLevel$[ebp]
  0003f	41		 inc	 ecx
  00040	3b c8		 cmp	 ecx, eax
  00042	7d 04		 jge	 SHORT $LN3@IsEnableUp

; 198  : 			return true;

  00044	b0 01		 mov	 al, 1
  00046	eb 02		 jmp	 SHORT $LN5@IsEnableUp
$LN3@IsEnableUp:

; 190  : 		return false;

  00048	32 c0		 xor	 al, al
$LN5@IsEnableUp:
  0004a	5e		 pop	 esi

; 199  : 	}
; 200  : 
; 201  : 	return false;
; 202  : }

  0004b	c9		 leave
  0004c	c2 08 00	 ret	 8
?IsEnableUpgrade@ioNamedTitleInfoManager@@QAE_NKH@Z ENDP ; ioNamedTitleInfoManager::IsEnableUpgrade
_TEXT	ENDS
PUBLIC	?GetNamedTitleName@ioNamedTitleInfoManager@@QAE?AVioHashString@@K@Z ; ioNamedTitleInfoManager::GetNamedTitleName
EXTRN	_atexit:PROC
;	COMDAT ?szNull@?1??GetNamedTitleName@ioNamedTitleInfoManager@@QAE?AVioHashString@@K@Z@4V3@A
; File c:\program files (x86)\microsoft visual studio 10.0\vc\include\xtree
_BSS	SEGMENT
?szNull@?1??GetNamedTitleName@ioNamedTitleInfoManager@@QAE?AVioHashString@@K@Z@4V3@A DB 010H DUP (?) ; `ioNamedTitleInfoManager::GetNamedTitleName'::`2'::szNull
_BSS	ENDS
;	COMDAT ?$S1@?1??GetNamedTitleName@ioNamedTitleInfoManager@@QAE?AVioHashString@@K@Z@4IA
_BSS	SEGMENT
?$S1@?1??GetNamedTitleName@ioNamedTitleInfoManager@@QAE?AVioHashString@@K@Z@4IA DD 01H DUP (?) ; `ioNamedTitleInfoManager::GetNamedTitleName'::`2'::$S1
_BSS	ENDS
;	COMDAT xdata$x
xdata$x	SEGMENT
__unwindtable$?GetNamedTitleName@ioNamedTitleInfoManager@@QAE?AVioHashString@@K@Z DD 0ffffffffH
	DD	FLAT:__unwindfunclet$?GetNamedTitleName@ioNamedTitleInfoManager@@QAE?AVioHashString@@K@Z$0
__ehfuncinfo$?GetNamedTitleName@ioNamedTitleInfoManager@@QAE?AVioHashString@@K@Z DD 019930522H
	DD	01H
	DD	FLAT:__unwindtable$?GetNamedTitleName@ioNamedTitleInfoManager@@QAE?AVioHashString@@K@Z
	DD	2 DUP(00H)
	DD	2 DUP(00H)
	DD	00H
	DD	01H
; Function compile flags: /Ogsp
; File d:\lost saga for developer\youtube\tutorial\source\src\lsclient\ionamedtitleinfomanager.cpp
xdata$x	ENDS
;	COMDAT ?GetNamedTitleName@ioNamedTitleInfoManager@@QAE?AVioHashString@@K@Z
_TEXT	SEGMENT
$T538948 = -16						; size = 4
_FindIter$ = -16					; size = 4
__$EHRec$ = -12						; size = 12
___$ReturnUdt$ = 8					; size = 4
_dwCode$ = 12						; size = 4
?GetNamedTitleName@ioNamedTitleInfoManager@@QAE?AVioHashString@@K@Z PROC ; ioNamedTitleInfoManager::GetNamedTitleName, COMDAT
; _this$ = ecx

; 207  : {

  00000	6a 04		 push	 4
  00002	b8 00 00 00 00	 mov	 eax, __ehhandler$?GetNamedTitleName@ioNamedTitleInfoManager@@QAE?AVioHashString@@K@Z
  00007	e8 00 00 00 00	 call	 __EH_prolog3
  0000c	8b f9		 mov	 edi, ecx
  0000e	83 65 f0 00	 and	 DWORD PTR $T538948[ebp], 0

; 208  : 	static ioHashString szNull;

  00012	f6 05 00 00 00
	00 01		 test	 BYTE PTR ?$S1@?1??GetNamedTitleName@ioNamedTitleInfoManager@@QAE?AVioHashString@@K@Z@4IA, 1
  00019	be 00 00 00 00	 mov	 esi, OFFSET ?szNull@?1??GetNamedTitleName@ioNamedTitleInfoManager@@QAE?AVioHashString@@K@Z@4V3@A
  0001e	75 22		 jne	 SHORT $LN4@GetNamedTi@3
  00020	83 0d 00 00 00
	00 01		 or	 DWORD PTR ?$S1@?1??GetNamedTitleName@ioNamedTitleInfoManager@@QAE?AVioHashString@@K@Z@4IA, 1
  00027	83 65 fc 00	 and	 DWORD PTR __$EHRec$[ebp+8], 0
  0002b	8b ce		 mov	 ecx, esi
  0002d	ff 15 00 00 00
	00		 call	 DWORD PTR __imp_??0ioHashString@@QAE@XZ
  00033	68 00 00 00 00	 push	 OFFSET ??__FszNull@?1??GetNamedTitleName@ioNamedTitleInfoManager@@QAE?AVioHashString@@K@Z@YAXXZ ; `ioNamedTitleInfoManager::GetNamedTitleName'::`2'::`dynamic atexit destructor for 'szNull''
  00038	e8 00 00 00 00	 call	 _atexit
  0003d	83 4d fc ff	 or	 DWORD PTR __$EHRec$[ebp+8], -1
  00041	59		 pop	 ecx
$LN4@GetNamedTi@3:

; 209  : 
; 210  : 	if ( dwCode <= 0 || m_vInfoList.empty() )

  00042	83 7d 0c 00	 cmp	 DWORD PTR _dwCode$[ebp], 0
  00046	76 27		 jbe	 SHORT $LN2@GetNamedTi@3
  00048	83 7f 0c 00	 cmp	 DWORD PTR [edi+12], 0
  0004c	74 21		 je	 SHORT $LN2@GetNamedTi@3

; 212  : 
; 213  : 	NamedTitleInfoList::iterator FindIter = m_vInfoList.find( dwCode );

  0004e	8d 45 0c	 lea	 eax, DWORD PTR _dwCode$[ebp]
  00051	50		 push	 eax
  00052	8d 45 f0	 lea	 eax, DWORD PTR _FindIter$[ebp]
  00055	50		 push	 eax
  00056	8d 4f 04	 lea	 ecx, DWORD PTR [edi+4]
  00059	e8 00 00 00 00	 call	 ?find@?$_Tree@V?$_Tmap_traits@KUtagNamedTitleInfo@@U?$less@K@std@@V?$allocator@U?$pair@$$CBKUtagNamedTitleInfo@@@std@@@3@$0A@@std@@@std@@QAE?AV?$_Tree_iterator@V?$_Tree_val@V?$_Tmap_traits@KUtagNamedTitleInfo@@U?$less@K@std@@V?$allocator@U?$pair@$$CBKUtagNamedTitleInfo@@@std@@@3@$0A@@std@@@std@@@2@ABK@Z ; std::_Tree<std::_Tmap_traits<unsigned long,tagNamedTitleInfo,std::less<unsigned long>,std::allocator<std::pair<unsigned long const ,tagNamedTitleInfo> >,0> >::find

; 214  : 	if ( FindIter != m_vInfoList.end() )

  0005e	8b 45 f0	 mov	 eax, DWORD PTR _FindIter$[ebp]

; 215  : 	{
; 216  : 		const NamedTitleInfo &rNamedTitleInfo = FindIter->second;
; 217  : 		return rNamedTitleInfo.m_szName;

  00061	8b 4d 08	 mov	 ecx, DWORD PTR ___$ReturnUdt$[ebp]
  00064	3b 47 08	 cmp	 eax, DWORD PTR [edi+8]
  00067	74 09		 je	 SHORT $LN1@GetNamedTi@3
  00069	83 c0 14	 add	 eax, 20			; 00000014H
  0006c	50		 push	 eax
  0006d	eb 04		 jmp	 SHORT $LN37@GetNamedTi@3
$LN2@GetNamedTi@3:

; 211  : 		return szNull;

  0006f	8b 4d 08	 mov	 ecx, DWORD PTR ___$ReturnUdt$[ebp]
$LN1@GetNamedTi@3:
  00072	56		 push	 esi
$LN37@GetNamedTi@3:
  00073	ff 15 00 00 00
	00		 call	 DWORD PTR __imp_??0ioHashString@@QAE@ABV0@@Z
  00079	8b 45 08	 mov	 eax, DWORD PTR ___$ReturnUdt$[ebp]

; 218  : 	}
; 219  : 
; 220  : 	return szNull;
; 221  : }

  0007c	e8 00 00 00 00	 call	 __EH_epilog3
  00081	c2 08 00	 ret	 8
_TEXT	ENDS
;	COMDAT text$x
text$x	SEGMENT
__unwindfunclet$?GetNamedTitleName@ioNamedTitleInfoManager@@QAE?AVioHashString@@K@Z$0:
  00000	a1 00 00 00 00	 mov	 eax, DWORD PTR ?$S1@?1??GetNamedTitleName@ioNamedTitleInfoManager@@QAE?AVioHashString@@K@Z@4IA
  00005	83 e0 fe	 and	 eax, -2			; fffffffeH
  00008	a3 00 00 00 00	 mov	 DWORD PTR ?$S1@?1??GetNamedTitleName@ioNamedTitleInfoManager@@QAE?AVioHashString@@K@Z@4IA, eax
  0000d	c3		 ret	 0
__ehhandler$?GetNamedTitleName@ioNamedTitleInfoManager@@QAE?AVioHashString@@K@Z:
  0000e	8b 54 24 08	 mov	 edx, DWORD PTR [esp+8]
  00012	8d 42 0c	 lea	 eax, DWORD PTR [edx+12]
  00015	8b 4a ec	 mov	 ecx, DWORD PTR [edx-20]
  00018	33 c8		 xor	 ecx, eax
  0001a	e8 00 00 00 00	 call	 @__security_check_cookie@4
  0001f	b8 00 00 00 00	 mov	 eax, OFFSET __ehfuncinfo$?GetNamedTitleName@ioNamedTitleInfoManager@@QAE?AVioHashString@@K@Z
  00024	e9 00 00 00 00	 jmp	 ___CxxFrameHandler3
text$x	ENDS
?GetNamedTitleName@ioNamedTitleInfoManager@@QAE?AVioHashString@@K@Z ENDP ; ioNamedTitleInfoManager::GetNamedTitleName
PUBLIC	__$ArrayPad$
PUBLIC	?Process@ioNamedTitleInfoManager@@QAEXXZ	; ioNamedTitleInfoManager::Process
EXTRN	??1SP2Packet@@UAE@XZ:PROC			; SP2Packet::~SP2Packet
EXTRN	?SendToServer@TCPNetwork@@YAXAAVSP2Packet@@@Z:PROC ; TCPNetwork::SendToServer
EXTRN	??6SP2Packet@@QAEAAV0@K@Z:PROC			; SP2Packet::operator<<
EXTRN	??0SP2Packet@@QAE@K@Z:PROC			; SP2Packet::SP2Packet
EXTRN	__imp_?GetLoopSec@ioFrameTimer@@QBEKXZ:PROC
EXTRN	__imp_?GetSingleton@ioFrameTimer@@SAAAV1@XZ:PROC
EXTRN	?GetNamedTitleSlotEquip@ioUserNamedTitle@@QAE_NAAUtagNamedTitleSlot@@@Z:PROC ; ioUserNamedTitle::GetNamedTitleSlotEquip
EXTRN	__chkstk:PROC
;	COMDAT xdata$x
; File d:\lost saga for developer\youtube\tutorial\source\src\lsclient\namedtitleenumtype.h
xdata$x	SEGMENT
__unwindtable$?Process@ioNamedTitleInfoManager@@QAEXXZ DD 0ffffffffH
	DD	FLAT:__unwindfunclet$?Process@ioNamedTitleInfoManager@@QAEXXZ$0
__ehfuncinfo$?Process@ioNamedTitleInfoManager@@QAEXXZ DD 019930522H
	DD	01H
	DD	FLAT:__unwindtable$?Process@ioNamedTitleInfoManager@@QAEXXZ
	DD	2 DUP(00H)
	DD	2 DUP(00H)
	DD	00H
	DD	01H
; Function compile flags: /Ogsp
; File d:\lost saga for developer\youtube\tutorial\source\src\lsclient\ionamedtitleinfomanager.cpp
xdata$x	ENDS
;	COMDAT ?Process@ioNamedTitleInfoManager@@QAEXXZ
_TEXT	SEGMENT
_kEquipSlot$ = -32832					; size = 24
_kPacket$533837 = -32808				; size = 32792
__$ArrayPad$ = -16					; size = 4
__$EHRec$ = -12						; size = 12
?Process@ioNamedTitleInfoManager@@QAEXXZ PROC		; ioNamedTitleInfoManager::Process, COMDAT
; _this$ = ecx

; 597  : {

  00000	55		 push	 ebp
  00001	8b ec		 mov	 ebp, esp
  00003	6a ff		 push	 -1
  00005	68 00 00 00 00	 push	 __ehhandler$?Process@ioNamedTitleInfoManager@@QAEXXZ
  0000a	64 a1 00 00 00
	00		 mov	 eax, DWORD PTR fs:0
  00010	50		 push	 eax
  00011	b8 34 80 00 00	 mov	 eax, 32820		; 00008034H
  00016	e8 00 00 00 00	 call	 __chkstk
  0001b	a1 00 00 00 00	 mov	 eax, DWORD PTR ___security_cookie
  00020	33 c5		 xor	 eax, ebp
  00022	89 45 f0	 mov	 DWORD PTR __$ArrayPad$[ebp], eax
  00025	53		 push	 ebx
  00026	56		 push	 esi
  00027	50		 push	 eax
  00028	8d 45 f4	 lea	 eax, DWORD PTR __$EHRec$[ebp]
  0002b	64 a3 00 00 00
	00		 mov	 DWORD PTR fs:0, eax
  00031	8b f1		 mov	 esi, ecx

; 598  : 	ioUserNamedTitle *pUserNamedTitle = g_MyInfo.GetUserNamedTitle();

  00033	e8 00 00 00 00	 call	 ?GetSingleton@ioMyInfo@@SAAAV1@XZ ; ioMyInfo::GetSingleton
  00038	8d 88 e8 02 00
	00		 lea	 ecx, DWORD PTR [eax+744]

; 599  : 	if ( !pUserNamedTitle )

  0003e	33 db		 xor	 ebx, ebx
  00040	3b cb		 cmp	 ecx, ebx
  00042	0f 84 e8 00 00
	00		 je	 $LN3@Process

; 600  : 		return;
; 601  : 
; 602  : 	NamedTitleSlot kEquipSlot;
; 603  : 	if ( !pUserNamedTitle->GetNamedTitleSlotEquip( kEquipSlot) )

  00048	8d 85 c0 7f ff
	ff		 lea	 eax, DWORD PTR _kEquipSlot$[ebp]
  0004e	66 0f 57 c0	 xorpd	 xmm0, xmm0
  00052	50		 push	 eax
  00053	89 9d c0 7f ff
	ff		 mov	 DWORD PTR _kEquipSlot$[ebp], ebx
  00059	89 9d c4 7f ff
	ff		 mov	 DWORD PTR _kEquipSlot$[ebp+4], ebx
  0005f	66 0f 13 85 c8
	7f ff ff	 movlpd	 QWORD PTR _kEquipSlot$[ebp+8], xmm0
  00067	66 89 9d d0 7f
	ff ff		 mov	 WORD PTR _kEquipSlot$[ebp+16], bx
  0006e	88 9d d2 7f ff
	ff		 mov	 BYTE PTR _kEquipSlot$[ebp+18], bl
  00074	e8 00 00 00 00	 call	 ?GetNamedTitleSlotEquip@ioUserNamedTitle@@QAE_NAAUtagNamedTitleSlot@@@Z ; ioUserNamedTitle::GetNamedTitleSlotEquip
  00079	84 c0		 test	 al, al
  0007b	0f 84 af 00 00
	00		 je	 $LN3@Process

; 604  : 		return;
; 605  : 
; 606  : 	if ( !kEquipSlot.m_byPremium || !kEquipSlot.m_byEquip || kEquipSlot.m_dwCode <= 0 || !IsEnableUpgrade( kEquipSlot.m_dwCode, kEquipSlot.m_nLevel ) )

  00081	38 9d d0 7f ff
	ff		 cmp	 BYTE PTR _kEquipSlot$[ebp+16], bl
  00087	0f 84 a3 00 00
	00		 je	 $LN3@Process
  0008d	38 9d d1 7f ff
	ff		 cmp	 BYTE PTR _kEquipSlot$[ebp+17], bl
  00093	0f 84 97 00 00
	00		 je	 $LN3@Process
  00099	39 9d c0 7f ff
	ff		 cmp	 DWORD PTR _kEquipSlot$[ebp], ebx
  0009f	0f 86 8b 00 00
	00		 jbe	 $LN3@Process
  000a5	ff b5 c4 7f ff
	ff		 push	 DWORD PTR _kEquipSlot$[ebp+4]
  000ab	8b ce		 mov	 ecx, esi
  000ad	ff b5 c0 7f ff
	ff		 push	 DWORD PTR _kEquipSlot$[ebp]
  000b3	e8 00 00 00 00	 call	 ?IsEnableUpgrade@ioNamedTitleInfoManager@@QAE_NKH@Z ; ioNamedTitleInfoManager::IsEnableUpgrade
  000b8	84 c0		 test	 al, al
  000ba	74 74		 je	 SHORT $LN3@Process

; 607  : 		return;
; 608  : 	
; 609  : 	DWORD dwCurTime = FRAMEGETTIME();

  000bc	ff 15 00 00 00
	00		 call	 DWORD PTR __imp_?GetSingleton@ioFrameTimer@@SAAAV1@XZ
  000c2	8b c8		 mov	 ecx, eax
  000c4	ff 15 00 00 00
	00		 call	 DWORD PTR __imp_?GetLoopSec@ioFrameTimer@@QBEKXZ

; 610  : 	if ( m_dwCurEquipCode != kEquipSlot.m_dwCode )

  000ca	8b 8d c0 7f ff
	ff		 mov	 ecx, DWORD PTR _kEquipSlot$[ebp]
  000d0	39 4e 60	 cmp	 DWORD PTR [esi+96], ecx
  000d3	74 06		 je	 SHORT $LN2@Process

; 611  : 	{
; 612  : 		m_dwCurEquipCode = kEquipSlot.m_dwCode;

  000d5	89 4e 60	 mov	 DWORD PTR [esi+96], ecx

; 613  : 		m_dwEquipTime = dwCurTime;

  000d8	89 46 64	 mov	 DWORD PTR [esi+100], eax
$LN2@Process:

; 614  : 	}
; 615  : 
; 616  : 	if ( m_dwCurEquipCode > 0 && m_dwEquipTime > 0 && m_dwEquipTime + m_dwEquipRefreshTime < dwCurTime )

  000db	39 5e 60	 cmp	 DWORD PTR [esi+96], ebx
  000de	76 50		 jbe	 SHORT $LN3@Process
  000e0	8b 4e 64	 mov	 ecx, DWORD PTR [esi+100]
  000e3	3b cb		 cmp	 ecx, ebx
  000e5	76 49		 jbe	 SHORT $LN3@Process
  000e7	8b 56 5c	 mov	 edx, DWORD PTR [esi+92]
  000ea	03 d1		 add	 edx, ecx
  000ec	3b d0		 cmp	 edx, eax
  000ee	73 40		 jae	 SHORT $LN3@Process

; 617  : 	{
; 618  : 		m_dwEquipTime = dwCurTime;
; 619  : 
; 620  : 		SP2Packet kPacket( CTPK_TITLE_SYNC_EQUIP_TIME );

  000f0	68 64 03 00 00	 push	 868			; 00000364H
  000f5	8d 8d d8 7f ff
	ff		 lea	 ecx, DWORD PTR _kPacket$533837[ebp]
  000fb	89 46 64	 mov	 DWORD PTR [esi+100], eax
  000fe	e8 00 00 00 00	 call	 ??0SP2Packet@@QAE@K@Z	; SP2Packet::SP2Packet

; 621  : 		kPacket << m_dwCurEquipCode;

  00103	ff 76 60	 push	 DWORD PTR [esi+96]
  00106	8d 8d d8 7f ff
	ff		 lea	 ecx, DWORD PTR _kPacket$533837[ebp]
  0010c	89 5d fc	 mov	 DWORD PTR __$EHRec$[ebp+8], ebx
  0010f	e8 00 00 00 00	 call	 ??6SP2Packet@@QAEAAV0@K@Z ; SP2Packet::operator<<

; 622  : 		TCPNetwork::SendToServer( kPacket );

  00114	8d 85 d8 7f ff
	ff		 lea	 eax, DWORD PTR _kPacket$533837[ebp]
  0011a	50		 push	 eax
  0011b	e8 00 00 00 00	 call	 ?SendToServer@TCPNetwork@@YAXAAVSP2Packet@@@Z ; TCPNetwork::SendToServer

; 623  : 	}	

  00120	83 4d fc ff	 or	 DWORD PTR __$EHRec$[ebp+8], -1
  00124	59		 pop	 ecx
  00125	8d 8d d8 7f ff
	ff		 lea	 ecx, DWORD PTR _kPacket$533837[ebp]
  0012b	e8 00 00 00 00	 call	 ??1SP2Packet@@UAE@XZ	; SP2Packet::~SP2Packet
$LN3@Process:

; 624  : }

  00130	8b 4d f4	 mov	 ecx, DWORD PTR __$EHRec$[ebp]
  00133	64 89 0d 00 00
	00 00		 mov	 DWORD PTR fs:0, ecx
  0013a	59		 pop	 ecx
  0013b	5e		 pop	 esi
  0013c	5b		 pop	 ebx
  0013d	8b 4d f0	 mov	 ecx, DWORD PTR __$ArrayPad$[ebp]
  00140	33 cd		 xor	 ecx, ebp
  00142	e8 00 00 00 00	 call	 @__security_check_cookie@4
  00147	c9		 leave
  00148	c3		 ret	 0
_TEXT	ENDS
;	COMDAT text$x
text$x	SEGMENT
__unwindfunclet$?Process@ioNamedTitleInfoManager@@QAEXXZ$0:
  00000	8d 8d d8 7f ff
	ff		 lea	 ecx, DWORD PTR _kPacket$533837[ebp]
  00006	e9 00 00 00 00	 jmp	 ??1SP2Packet@@UAE@XZ	; SP2Packet::~SP2Packet
__ehhandler$?Process@ioNamedTitleInfoManager@@QAEXXZ:
  0000b	8b 54 24 08	 mov	 edx, DWORD PTR [esp+8]
  0000f	8d 42 0c	 lea	 eax, DWORD PTR [edx+12]
  00012	8b 8a c0 7f ff
	ff		 mov	 ecx, DWORD PTR [edx-32832]
  00018	33 c8		 xor	 ecx, eax
  0001a	e8 00 00 00 00	 call	 @__security_check_cookie@4
  0001f	8b 4a fc	 mov	 ecx, DWORD PTR [edx-4]
  00022	33 c8		 xor	 ecx, eax
  00024	e8 00 00 00 00	 call	 @__security_check_cookie@4
  00029	b8 00 00 00 00	 mov	 eax, OFFSET __ehfuncinfo$?Process@ioNamedTitleInfoManager@@QAEXXZ
  0002e	e9 00 00 00 00	 jmp	 ___CxxFrameHandler3
text$x	ENDS
?Process@ioNamedTitleInfoManager@@QAEXXZ ENDP		; ioNamedTitleInfoManager::Process
PUBLIC	??$_Uninit_copy@PAUtagNamedTitleGrade@@PAU1@V?$allocator@UtagNamedTitleGrade@@@std@@@std@@YAPAUtagNamedTitleGrade@@PAU1@00AAV?$allocator@UtagNamedTitleGrade@@@0@U_Nonscalar_ptr_iterator_tag@0@@Z ; std::_Uninit_copy<tagNamedTitleGrade *,tagNamedTitleGrade *,std::allocator<tagNamedTitleGrade> >
EXTRN	__EH_prolog3_catch:PROC
;	COMDAT xdata$x
; File c:\program files (x86)\microsoft visual studio 10.0\vc\include\vector
xdata$x	SEGMENT
__catchsym$??$_Uninit_copy@PAUtagNamedTitleGrade@@PAU1@V?$allocator@UtagNamedTitleGrade@@@std@@@std@@YAPAUtagNamedTitleGrade@@PAU1@00AAV?$allocator@UtagNamedTitleGrade@@@0@U_Nonscalar_ptr_iterator_tag@0@@Z$3 DD 040H
	DD	00H
	DD	00H
	DD	FLAT:__catch$??$_Uninit_copy@PAUtagNamedTitleGrade@@PAU1@V?$allocator@UtagNamedTitleGrade@@@std@@@std@@YAPAUtagNamedTitleGrade@@PAU1@00AAV?$allocator@UtagNamedTitleGrade@@@0@U_Nonscalar_ptr_iterator_tag@0@@Z$0
__unwindtable$??$_Uninit_copy@PAUtagNamedTitleGrade@@PAU1@V?$allocator@UtagNamedTitleGrade@@@std@@@std@@YAPAUtagNamedTitleGrade@@PAU1@00AAV?$allocator@UtagNamedTitleGrade@@@0@U_Nonscalar_ptr_iterator_tag@0@@Z DD 0ffffffffH
	DD	00H
	DD	0ffffffffH
	DD	00H
__tryblocktable$??$_Uninit_copy@PAUtagNamedTitleGrade@@PAU1@V?$allocator@UtagNamedTitleGrade@@@std@@@std@@YAPAUtagNamedTitleGrade@@PAU1@00AAV?$allocator@UtagNamedTitleGrade@@@0@U_Nonscalar_ptr_iterator_tag@0@@Z DD 00H
	DD	00H
	DD	01H
	DD	01H
	DD	FLAT:__catchsym$??$_Uninit_copy@PAUtagNamedTitleGrade@@PAU1@V?$allocator@UtagNamedTitleGrade@@@std@@@std@@YAPAUtagNamedTitleGrade@@PAU1@00AAV?$allocator@UtagNamedTitleGrade@@@0@U_Nonscalar_ptr_iterator_tag@0@@Z$3
__ehfuncinfo$??$_Uninit_copy@PAUtagNamedTitleGrade@@PAU1@V?$allocator@UtagNamedTitleGrade@@@std@@@std@@YAPAUtagNamedTitleGrade@@PAU1@00AAV?$allocator@UtagNamedTitleGrade@@@0@U_Nonscalar_ptr_iterator_tag@0@@Z DD 019930522H
	DD	02H
	DD	FLAT:__unwindtable$??$_Uninit_copy@PAUtagNamedTitleGrade@@PAU1@V?$allocator@UtagNamedTitleGrade@@@std@@@std@@YAPAUtagNamedTitleGrade@@PAU1@00AAV?$allocator@UtagNamedTitleGrade@@@0@U_Nonscalar_ptr_iterator_tag@0@@Z
	DD	01H
	DD	FLAT:__tryblocktable$??$_Uninit_copy@PAUtagNamedTitleGrade@@PAU1@V?$allocator@UtagNamedTitleGrade@@@std@@@std@@YAPAUtagNamedTitleGrade@@PAU1@00AAV?$allocator@UtagNamedTitleGrade@@@0@U_Nonscalar_ptr_iterator_tag@0@@Z
	DD	2 DUP(00H)
	DD	00H
	DD	01H
; Function compile flags: /Ogsp
; File c:\program files (x86)\microsoft visual studio 10.0\vc\include\memory
xdata$x	ENDS
;	COMDAT ??$_Uninit_copy@PAUtagNamedTitleGrade@@PAU1@V?$allocator@UtagNamedTitleGrade@@@std@@@std@@YAPAUtagNamedTitleGrade@@PAU1@00AAV?$allocator@UtagNamedTitleGrade@@@0@U_Nonscalar_ptr_iterator_tag@0@@Z
_TEXT	SEGMENT
__Next$ = -20						; size = 4
__$EHRec$ = -16						; size = 16
__First$ = 8						; size = 4
__Last$ = 12						; size = 4
__Dest$ = 16						; size = 4
__Al$ = 20						; size = 4
___formal$ = 24						; size = 1
??$_Uninit_copy@PAUtagNamedTitleGrade@@PAU1@V?$allocator@UtagNamedTitleGrade@@@std@@@std@@YAPAUtagNamedTitleGrade@@PAU1@00AAV?$allocator@UtagNamedTitleGrade@@@0@U_Nonscalar_ptr_iterator_tag@0@@Z PROC ; std::_Uninit_copy<tagNamedTitleGrade *,tagNamedTitleGrade *,std::allocator<tagNamedTitleGrade> >, COMDAT

; 369  : 	{	// copy [_First, _Last) to raw _Dest, using _Al, arbitrary type

  00000	6a 08		 push	 8
  00002	b8 00 00 00 00	 mov	 eax, __ehhandler$??$_Uninit_copy@PAUtagNamedTitleGrade@@PAU1@V?$allocator@UtagNamedTitleGrade@@@std@@@std@@YAPAUtagNamedTitleGrade@@PAU1@00AAV?$allocator@UtagNamedTitleGrade@@@0@U_Nonscalar_ptr_iterator_tag@0@@Z
  00007	e8 00 00 00 00	 call	 __EH_prolog3_catch

; 370  : 	_DEBUG_RANGE(_First, _Last);
; 371  : 	_DEBUG_POINTER(_Dest);
; 372  : 	_FwdIt _Next = _Dest;

  0000c	8b 45 10	 mov	 eax, DWORD PTR __Dest$[ebp]

; 373  : 
; 374  : 	_TRY_BEGIN

  0000f	83 65 fc 00	 and	 DWORD PTR __$EHRec$[ebp+12], 0
  00013	8b 75 08	 mov	 esi, DWORD PTR __First$[ebp]
  00016	89 45 ec	 mov	 DWORD PTR __Next$[ebp], eax
$LL6@Uninit_cop:

; 375  : 	for (; _First != _Last; ++_Dest, ++_First)

  00019	3b 75 0c	 cmp	 esi, DWORD PTR __Last$[ebp]
  0001c	74 34		 je	 SHORT $LN4@Uninit_cop

; 376  : 		_Cons_val(_Al, _Dest, *_First);

  0001e	8b 4d 14	 mov	 ecx, DWORD PTR __Al$[ebp]
  00021	56		 push	 esi
  00022	ff 75 10	 push	 DWORD PTR __Dest$[ebp]
  00025	e8 00 00 00 00	 call	 ??$construct@AAUtagNamedTitleGrade@@@?$allocator@UtagNamedTitleGrade@@@std@@QAEXPAUtagNamedTitleGrade@@AAU2@@Z ; std::allocator<tagNamedTitleGrade>::construct<tagNamedTitleGrade &>
  0002a	83 45 10 14	 add	 DWORD PTR __Dest$[ebp], 20 ; 00000014H
  0002e	83 c6 14	 add	 esi, 20			; 00000014H
  00031	eb e6		 jmp	 SHORT $LL6@Uninit_cop
__catch$??$_Uninit_copy@PAUtagNamedTitleGrade@@PAU1@V?$allocator@UtagNamedTitleGrade@@@std@@@std@@YAPAUtagNamedTitleGrade@@PAU1@00AAV?$allocator@UtagNamedTitleGrade@@@0@U_Nonscalar_ptr_iterator_tag@0@@Z$0:

; 377  : 	_CATCH_ALL
; 378  : 	for (; _Next != _Dest; ++_Next)

  00033	8b 75 ec	 mov	 esi, DWORD PTR __Next$[ebp]
  00036	eb 0c		 jmp	 SHORT $LN36@Uninit_cop
$LL3@Uninit_cop:

; 379  : 		_Dest_val(_Al, _Next);

  00038	8d 4e 04	 lea	 ecx, DWORD PTR [esi+4]
  0003b	ff 15 00 00 00
	00		 call	 DWORD PTR __imp_??1ioHashString@@QAE@XZ
  00041	83 c6 14	 add	 esi, 20			; 00000014H
$LN36@Uninit_cop:

; 377  : 	_CATCH_ALL
; 378  : 	for (; _Next != _Dest; ++_Next)

  00044	3b 75 10	 cmp	 esi, DWORD PTR __Dest$[ebp]
  00047	75 ef		 jne	 SHORT $LL3@Uninit_cop

; 380  : 	_RERAISE;

  00049	6a 00		 push	 0
  0004b	6a 00		 push	 0
  0004d	e8 00 00 00 00	 call	 __CxxThrowException@8
$LN37@Uninit_cop:
$LN4@Uninit_cop:

; 381  : 	_CATCH_END
; 382  : 	return (_Dest);

  00052	8b 45 10	 mov	 eax, DWORD PTR __Dest$[ebp]

; 383  : 	}

  00055	e8 00 00 00 00	 call	 __EH_epilog3
  0005a	c3		 ret	 0
$LN35@Uninit_cop:
_TEXT	ENDS
;	COMDAT text$x
text$x	SEGMENT
__ehhandler$??$_Uninit_copy@PAUtagNamedTitleGrade@@PAU1@V?$allocator@UtagNamedTitleGrade@@@std@@@std@@YAPAUtagNamedTitleGrade@@PAU1@00AAV?$allocator@UtagNamedTitleGrade@@@0@U_Nonscalar_ptr_iterator_tag@0@@Z:
  00000	8b 54 24 08	 mov	 edx, DWORD PTR [esp+8]
  00004	8d 42 0c	 lea	 eax, DWORD PTR [edx+12]
  00007	8b 4a e8	 mov	 ecx, DWORD PTR [edx-24]
  0000a	33 c8		 xor	 ecx, eax
  0000c	e8 00 00 00 00	 call	 @__security_check_cookie@4
  00011	b8 00 00 00 00	 mov	 eax, OFFSET __ehfuncinfo$??$_Uninit_copy@PAUtagNamedTitleGrade@@PAU1@V?$allocator@UtagNamedTitleGrade@@@std@@@std@@YAPAUtagNamedTitleGrade@@PAU1@00AAV?$allocator@UtagNamedTitleGrade@@@0@U_Nonscalar_ptr_iterator_tag@0@@Z
  00016	e9 00 00 00 00	 jmp	 ___CxxFrameHandler3
text$x	ENDS
??$_Uninit_copy@PAUtagNamedTitleGrade@@PAU1@V?$allocator@UtagNamedTitleGrade@@@std@@@std@@YAPAUtagNamedTitleGrade@@PAU1@00AAV?$allocator@UtagNamedTitleGrade@@@0@U_Nonscalar_ptr_iterator_tag@0@@Z ENDP ; std::_Uninit_copy<tagNamedTitleGrade *,tagNamedTitleGrade *,std::allocator<tagNamedTitleGrade> >
PUBLIC	??$_Uninit_move@PAUtagNamedTitleGrade@@PAU1@V?$allocator@UtagNamedTitleGrade@@@std@@U1@@std@@YAPAUtagNamedTitleGrade@@PAU1@00AAV?$allocator@UtagNamedTitleGrade@@@0@0U_Nonscalar_ptr_iterator_tag@0@@Z ; std::_Uninit_move<tagNamedTitleGrade *,tagNamedTitleGrade *,std::allocator<tagNamedTitleGrade>,tagNamedTitleGrade>
;	COMDAT xdata$x
; File c:\program files (x86)\microsoft visual studio 10.0\vc\include\vector
xdata$x	SEGMENT
__catchsym$??$_Uninit_move@PAUtagNamedTitleGrade@@PAU1@V?$allocator@UtagNamedTitleGrade@@@std@@U1@@std@@YAPAUtagNamedTitleGrade@@PAU1@00AAV?$allocator@UtagNamedTitleGrade@@@0@0U_Nonscalar_ptr_iterator_tag@0@@Z$3 DD 040H
	DD	00H
	DD	00H
	DD	FLAT:__catch$??$_Uninit_move@PAUtagNamedTitleGrade@@PAU1@V?$allocator@UtagNamedTitleGrade@@@std@@U1@@std@@YAPAUtagNamedTitleGrade@@PAU1@00AAV?$allocator@UtagNamedTitleGrade@@@0@0U_Nonscalar_ptr_iterator_tag@0@@Z$0
__unwindtable$??$_Uninit_move@PAUtagNamedTitleGrade@@PAU1@V?$allocator@UtagNamedTitleGrade@@@std@@U1@@std@@YAPAUtagNamedTitleGrade@@PAU1@00AAV?$allocator@UtagNamedTitleGrade@@@0@0U_Nonscalar_ptr_iterator_tag@0@@Z DD 0ffffffffH
	DD	00H
	DD	0ffffffffH
	DD	00H
__tryblocktable$??$_Uninit_move@PAUtagNamedTitleGrade@@PAU1@V?$allocator@UtagNamedTitleGrade@@@std@@U1@@std@@YAPAUtagNamedTitleGrade@@PAU1@00AAV?$allocator@UtagNamedTitleGrade@@@0@0U_Nonscalar_ptr_iterator_tag@0@@Z DD 00H
	DD	00H
	DD	01H
	DD	01H
	DD	FLAT:__catchsym$??$_Uninit_move@PAUtagNamedTitleGrade@@PAU1@V?$allocator@UtagNamedTitleGrade@@@std@@U1@@std@@YAPAUtagNamedTitleGrade@@PAU1@00AAV?$allocator@UtagNamedTitleGrade@@@0@0U_Nonscalar_ptr_iterator_tag@0@@Z$3
__ehfuncinfo$??$_Uninit_move@PAUtagNamedTitleGrade@@PAU1@V?$allocator@UtagNamedTitleGrade@@@std@@U1@@std@@YAPAUtagNamedTitleGrade@@PAU1@00AAV?$allocator@UtagNamedTitleGrade@@@0@0U_Nonscalar_ptr_iterator_tag@0@@Z DD 019930522H
	DD	02H
	DD	FLAT:__unwindtable$??$_Uninit_move@PAUtagNamedTitleGrade@@PAU1@V?$allocator@UtagNamedTitleGrade@@@std@@U1@@std@@YAPAUtagNamedTitleGrade@@PAU1@00AAV?$allocator@UtagNamedTitleGrade@@@0@0U_Nonscalar_ptr_iterator_tag@0@@Z
	DD	01H
	DD	FLAT:__tryblocktable$??$_Uninit_move@PAUtagNamedTitleGrade@@PAU1@V?$allocator@UtagNamedTitleGrade@@@std@@U1@@std@@YAPAUtagNamedTitleGrade@@PAU1@00AAV?$allocator@UtagNamedTitleGrade@@@0@0U_Nonscalar_ptr_iterator_tag@0@@Z
	DD	2 DUP(00H)
	DD	00H
	DD	01H
; Function compile flags: /Ogsp
; File c:\program files (x86)\microsoft visual studio 10.0\vc\include\memory
xdata$x	ENDS
;	COMDAT ??$_Uninit_move@PAUtagNamedTitleGrade@@PAU1@V?$allocator@UtagNamedTitleGrade@@@std@@U1@@std@@YAPAUtagNamedTitleGrade@@PAU1@00AAV?$allocator@UtagNamedTitleGrade@@@0@0U_Nonscalar_ptr_iterator_tag@0@@Z
_TEXT	SEGMENT
__Next$ = -20						; size = 4
__$EHRec$ = -16						; size = 16
__First$ = 8						; size = 4
__Last$ = 12						; size = 4
__Dest$ = 16						; size = 4
__Al$ = 20						; size = 4
___formal$ = 24						; size = 4
___formal$ = 28						; size = 1
??$_Uninit_move@PAUtagNamedTitleGrade@@PAU1@V?$allocator@UtagNamedTitleGrade@@@std@@U1@@std@@YAPAUtagNamedTitleGrade@@PAU1@00AAV?$allocator@UtagNamedTitleGrade@@@0@0U_Nonscalar_ptr_iterator_tag@0@@Z PROC ; std::_Uninit_move<tagNamedTitleGrade *,tagNamedTitleGrade *,std::allocator<tagNamedTitleGrade>,tagNamedTitleGrade>, COMDAT

; 424  : 	{	// move [_First, _Last) to raw _Dest, using _Al, arbitrary type

  00000	6a 08		 push	 8
  00002	b8 00 00 00 00	 mov	 eax, __ehhandler$??$_Uninit_move@PAUtagNamedTitleGrade@@PAU1@V?$allocator@UtagNamedTitleGrade@@@std@@U1@@std@@YAPAUtagNamedTitleGrade@@PAU1@00AAV?$allocator@UtagNamedTitleGrade@@@0@0U_Nonscalar_ptr_iterator_tag@0@@Z
  00007	e8 00 00 00 00	 call	 __EH_prolog3_catch

; 425  : 	_DEBUG_RANGE(_First, _Last);
; 426  : 	_DEBUG_POINTER(_Dest);
; 427  : 	_FwdIt _Next = _Dest;

  0000c	8b 45 10	 mov	 eax, DWORD PTR __Dest$[ebp]

; 428  : 
; 429  : 	_TRY_BEGIN

  0000f	83 65 fc 00	 and	 DWORD PTR __$EHRec$[ebp+12], 0
  00013	8b 75 08	 mov	 esi, DWORD PTR __First$[ebp]
  00016	89 45 ec	 mov	 DWORD PTR __Next$[ebp], eax
$LL6@Uninit_mov:

; 430  : 	for (; _First != _Last; ++_Dest, ++_First)

  00019	3b 75 0c	 cmp	 esi, DWORD PTR __Last$[ebp]
  0001c	74 34		 je	 SHORT $LN4@Uninit_mov

; 431  : 		_Cons_val(_Al, _Dest, (_Valty &&)*_First);

  0001e	8b 4d 14	 mov	 ecx, DWORD PTR __Al$[ebp]
  00021	56		 push	 esi
  00022	ff 75 10	 push	 DWORD PTR __Dest$[ebp]
  00025	e8 00 00 00 00	 call	 ?construct@?$allocator@UtagNamedTitleGrade@@@std@@QAEXPAUtagNamedTitleGrade@@$$QAU3@@Z ; std::allocator<tagNamedTitleGrade>::construct
  0002a	83 45 10 14	 add	 DWORD PTR __Dest$[ebp], 20 ; 00000014H
  0002e	83 c6 14	 add	 esi, 20			; 00000014H
  00031	eb e6		 jmp	 SHORT $LL6@Uninit_mov
__catch$??$_Uninit_move@PAUtagNamedTitleGrade@@PAU1@V?$allocator@UtagNamedTitleGrade@@@std@@U1@@std@@YAPAUtagNamedTitleGrade@@PAU1@00AAV?$allocator@UtagNamedTitleGrade@@@0@0U_Nonscalar_ptr_iterator_tag@0@@Z$0:

; 432  : 	_CATCH_ALL
; 433  : 	for (; _Next != _Dest; ++_Next)

  00033	8b 75 ec	 mov	 esi, DWORD PTR __Next$[ebp]
  00036	eb 0c		 jmp	 SHORT $LN36@Uninit_mov
$LL3@Uninit_mov:

; 434  : 		_Dest_val(_Al, _Next);

  00038	8d 4e 04	 lea	 ecx, DWORD PTR [esi+4]
  0003b	ff 15 00 00 00
	00		 call	 DWORD PTR __imp_??1ioHashString@@QAE@XZ
  00041	83 c6 14	 add	 esi, 20			; 00000014H
$LN36@Uninit_mov:

; 432  : 	_CATCH_ALL
; 433  : 	for (; _Next != _Dest; ++_Next)

  00044	3b 75 10	 cmp	 esi, DWORD PTR __Dest$[ebp]
  00047	75 ef		 jne	 SHORT $LL3@Uninit_mov

; 435  : 	_RERAISE;

  00049	6a 00		 push	 0
  0004b	6a 00		 push	 0
  0004d	e8 00 00 00 00	 call	 __CxxThrowException@8
$LN37@Uninit_mov:
$LN4@Uninit_mov:

; 436  : 	_CATCH_END
; 437  : 	return (_Dest);

  00052	8b 45 10	 mov	 eax, DWORD PTR __Dest$[ebp]

; 438  : 	}

  00055	e8 00 00 00 00	 call	 __EH_epilog3
  0005a	c3		 ret	 0
$LN35@Uninit_mov:
_TEXT	ENDS
;	COMDAT text$x
text$x	SEGMENT
__ehhandler$??$_Uninit_move@PAUtagNamedTitleGrade@@PAU1@V?$allocator@UtagNamedTitleGrade@@@std@@U1@@std@@YAPAUtagNamedTitleGrade@@PAU1@00AAV?$allocator@UtagNamedTitleGrade@@@0@0U_Nonscalar_ptr_iterator_tag@0@@Z:
  00000	8b 54 24 08	 mov	 edx, DWORD PTR [esp+8]
  00004	8d 42 0c	 lea	 eax, DWORD PTR [edx+12]
  00007	8b 4a e8	 mov	 ecx, DWORD PTR [edx-24]
  0000a	33 c8		 xor	 ecx, eax
  0000c	e8 00 00 00 00	 call	 @__security_check_cookie@4
  00011	b8 00 00 00 00	 mov	 eax, OFFSET __ehfuncinfo$??$_Uninit_move@PAUtagNamedTitleGrade@@PAU1@V?$allocator@UtagNamedTitleGrade@@@std@@U1@@std@@YAPAUtagNamedTitleGrade@@PAU1@00AAV?$allocator@UtagNamedTitleGrade@@@0@0U_Nonscalar_ptr_iterator_tag@0@@Z
  00016	e9 00 00 00 00	 jmp	 ___CxxFrameHandler3
text$x	ENDS
??$_Uninit_move@PAUtagNamedTitleGrade@@PAU1@V?$allocator@UtagNamedTitleGrade@@@std@@U1@@std@@YAPAUtagNamedTitleGrade@@PAU1@00AAV?$allocator@UtagNamedTitleGrade@@@0@0U_Nonscalar_ptr_iterator_tag@0@@Z ENDP ; std::_Uninit_move<tagNamedTitleGrade *,tagNamedTitleGrade *,std::allocator<tagNamedTitleGrade>,tagNamedTitleGrade>
PUBLIC	??$_Uninit_copy@V?$_Vector_const_iterator@V?$_Vector_val@UtagNamedTitleGrade@@V?$allocator@UtagNamedTitleGrade@@@std@@@std@@@std@@PAUtagNamedTitleGrade@@V?$allocator@UtagNamedTitleGrade@@@2@@std@@YAPAUtagNamedTitleGrade@@V?$_Vector_const_iterator@V?$_Vector_val@UtagNamedTitleGrade@@V?$allocator@UtagNamedTitleGrade@@@std@@@std@@@0@0PAU1@AAV?$allocator@UtagNamedTitleGrade@@@0@U_Nonscalar_ptr_iterator_tag@0@@Z ; std::_Uninit_copy<std::_Vector_const_iterator<std::_Vector_val<tagNamedTitleGrade,std::allocator<tagNamedTitleGrade> > >,tagNamedTitleGrade *,std::allocator<tagNamedTitleGrade> >
;	COMDAT xdata$x
; File c:\program files (x86)\microsoft visual studio 10.0\vc\include\vector
xdata$x	SEGMENT
__catchsym$??$_Uninit_copy@V?$_Vector_const_iterator@V?$_Vector_val@UtagNamedTitleGrade@@V?$allocator@UtagNamedTitleGrade@@@std@@@std@@@std@@PAUtagNamedTitleGrade@@V?$allocator@UtagNamedTitleGrade@@@2@@std@@YAPAUtagNamedTitleGrade@@V?$_Vector_const_iterator@V?$_Vector_val@UtagNamedTitleGrade@@V?$allocator@UtagNamedTitleGrade@@@std@@@std@@@0@0PAU1@AAV?$allocator@UtagNamedTitleGrade@@@0@U_Nonscalar_ptr_iterator_tag@0@@Z$3 DD 040H
	DD	00H
	DD	00H
	DD	FLAT:__catch$??$_Uninit_copy@V?$_Vector_const_iterator@V?$_Vector_val@UtagNamedTitleGrade@@V?$allocator@UtagNamedTitleGrade@@@std@@@std@@@std@@PAUtagNamedTitleGrade@@V?$allocator@UtagNamedTitleGrade@@@2@@std@@YAPAUtagNamedTitleGrade@@V?$_Vector_const_iterator@V?$_Vector_val@UtagNamedTitleGrade@@V?$allocator@UtagNamedTitleGrade@@@std@@@std@@@0@0PAU1@AAV?$allocator@UtagNamedTitleGrade@@@0@U_Nonscalar_ptr_iterator_tag@0@@Z$0
__unwindtable$??$_Uninit_copy@V?$_Vector_const_iterator@V?$_Vector_val@UtagNamedTitleGrade@@V?$allocator@UtagNamedTitleGrade@@@std@@@std@@@std@@PAUtagNamedTitleGrade@@V?$allocator@UtagNamedTitleGrade@@@2@@std@@YAPAUtagNamedTitleGrade@@V?$_Vector_const_iterator@V?$_Vector_val@UtagNamedTitleGrade@@V?$allocator@UtagNamedTitleGrade@@@std@@@std@@@0@0PAU1@AAV?$allocator@UtagNamedTitleGrade@@@0@U_Nonscalar_ptr_iterator_tag@0@@Z DD 0ffffffffH
	DD	00H
	DD	0ffffffffH
	DD	00H
__tryblocktable$??$_Uninit_copy@V?$_Vector_const_iterator@V?$_Vector_val@UtagNamedTitleGrade@@V?$allocator@UtagNamedTitleGrade@@@std@@@std@@@std@@PAUtagNamedTitleGrade@@V?$allocator@UtagNamedTitleGrade@@@2@@std@@YAPAUtagNamedTitleGrade@@V?$_Vector_const_iterator@V?$_Vector_val@UtagNamedTitleGrade@@V?$allocator@UtagNamedTitleGrade@@@std@@@std@@@0@0PAU1@AAV?$allocator@UtagNamedTitleGrade@@@0@U_Nonscalar_ptr_iterator_tag@0@@Z DD 00H
	DD	00H
	DD	01H
	DD	01H
	DD	FLAT:__catchsym$??$_Uninit_copy@V?$_Vector_const_iterator@V?$_Vector_val@UtagNamedTitleGrade@@V?$allocator@UtagNamedTitleGrade@@@std@@@std@@@std@@PAUtagNamedTitleGrade@@V?$allocator@UtagNamedTitleGrade@@@2@@std@@YAPAUtagNamedTitleGrade@@V?$_Vector_const_iterator@V?$_Vector_val@UtagNamedTitleGrade@@V?$allocator@UtagNamedTitleGrade@@@std@@@std@@@0@0PAU1@AAV?$allocator@UtagNamedTitleGrade@@@0@U_Nonscalar_ptr_iterator_tag@0@@Z$3
__ehfuncinfo$??$_Uninit_copy@V?$_Vector_const_iterator@V?$_Vector_val@UtagNamedTitleGrade@@V?$allocator@UtagNamedTitleGrade@@@std@@@std@@@std@@PAUtagNamedTitleGrade@@V?$allocator@UtagNamedTitleGrade@@@2@@std@@YAPAUtagNamedTitleGrade@@V?$_Vector_const_iterator@V?$_Vector_val@UtagNamedTitleGrade@@V?$allocator@UtagNamedTitleGrade@@@std@@@std@@@0@0PAU1@AAV?$allocator@UtagNamedTitleGrade@@@0@U_Nonscalar_ptr_iterator_tag@0@@Z DD 019930522H
	DD	02H
	DD	FLAT:__unwindtable$??$_Uninit_copy@V?$_Vector_const_iterator@V?$_Vector_val@UtagNamedTitleGrade@@V?$allocator@UtagNamedTitleGrade@@@std@@@std@@@std@@PAUtagNamedTitleGrade@@V?$allocator@UtagNamedTitleGrade@@@2@@std@@YAPAUtagNamedTitleGrade@@V?$_Vector_const_iterator@V?$_Vector_val@UtagNamedTitleGrade@@V?$allocator@UtagNamedTitleGrade@@@std@@@std@@@0@0PAU1@AAV?$allocator@UtagNamedTitleGrade@@@0@U_Nonscalar_ptr_iterator_tag@0@@Z
	DD	01H
	DD	FLAT:__tryblocktable$??$_Uninit_copy@V?$_Vector_const_iterator@V?$_Vector_val@UtagNamedTitleGrade@@V?$allocator@UtagNamedTitleGrade@@@std@@@std@@@std@@PAUtagNamedTitleGrade@@V?$allocator@UtagNamedTitleGrade@@@2@@std@@YAPAUtagNamedTitleGrade@@V?$_Vector_const_iterator@V?$_Vector_val@UtagNamedTitleGrade@@V?$allocator@UtagNamedTitleGrade@@@std@@@std@@@0@0PAU1@AAV?$allocator@UtagNamedTitleGrade@@@0@U_Nonscalar_ptr_iterator_tag@0@@Z
	DD	2 DUP(00H)
	DD	00H
	DD	01H
; Function compile flags: /Ogsp
; File c:\program files (x86)\microsoft visual studio 10.0\vc\include\memory
xdata$x	ENDS
;	COMDAT ??$_Uninit_copy@V?$_Vector_const_iterator@V?$_Vector_val@UtagNamedTitleGrade@@V?$allocator@UtagNamedTitleGrade@@@std@@@std@@@std@@PAUtagNamedTitleGrade@@V?$allocator@UtagNamedTitleGrade@@@2@@std@@YAPAUtagNamedTitleGrade@@V?$_Vector_const_iterator@V?$_Vector_val@UtagNamedTitleGrade@@V?$allocator@UtagNamedTitleGrade@@@std@@@std@@@0@0PAU1@AAV?$allocator@UtagNamedTitleGrade@@@0@U_Nonscalar_ptr_iterator_tag@0@@Z
_TEXT	SEGMENT
__Next$ = -20						; size = 4
__$EHRec$ = -16						; size = 16
__First$ = 8						; size = 4
__Last$ = 12						; size = 4
__Dest$ = 16						; size = 4
__Al$ = 20						; size = 4
___formal$ = 24						; size = 1
??$_Uninit_copy@V?$_Vector_const_iterator@V?$_Vector_val@UtagNamedTitleGrade@@V?$allocator@UtagNamedTitleGrade@@@std@@@std@@@std@@PAUtagNamedTitleGrade@@V?$allocator@UtagNamedTitleGrade@@@2@@std@@YAPAUtagNamedTitleGrade@@V?$_Vector_const_iterator@V?$_Vector_val@UtagNamedTitleGrade@@V?$allocator@UtagNamedTitleGrade@@@std@@@std@@@0@0PAU1@AAV?$allocator@UtagNamedTitleGrade@@@0@U_Nonscalar_ptr_iterator_tag@0@@Z PROC ; std::_Uninit_copy<std::_Vector_const_iterator<std::_Vector_val<tagNamedTitleGrade,std::allocator<tagNamedTitleGrade> > >,tagNamedTitleGrade *,std::allocator<tagNamedTitleGrade> >, COMDAT

; 369  : 	{	// copy [_First, _Last) to raw _Dest, using _Al, arbitrary type

  00000	6a 08		 push	 8
  00002	b8 00 00 00 00	 mov	 eax, __ehhandler$??$_Uninit_copy@V?$_Vector_const_iterator@V?$_Vector_val@UtagNamedTitleGrade@@V?$allocator@UtagNamedTitleGrade@@@std@@@std@@@std@@PAUtagNamedTitleGrade@@V?$allocator@UtagNamedTitleGrade@@@2@@std@@YAPAUtagNamedTitleGrade@@V?$_Vector_const_iterator@V?$_Vector_val@UtagNamedTitleGrade@@V?$allocator@UtagNamedTitleGrade@@@std@@@std@@@0@0PAU1@AAV?$allocator@UtagNamedTitleGrade@@@0@U_Nonscalar_ptr_iterator_tag@0@@Z
  00007	e8 00 00 00 00	 call	 __EH_prolog3_catch

; 370  : 	_DEBUG_RANGE(_First, _Last);
; 371  : 	_DEBUG_POINTER(_Dest);
; 372  : 	_FwdIt _Next = _Dest;

  0000c	8b 45 10	 mov	 eax, DWORD PTR __Dest$[ebp]

; 373  : 
; 374  : 	_TRY_BEGIN

  0000f	83 65 fc 00	 and	 DWORD PTR __$EHRec$[ebp+12], 0
  00013	89 45 ec	 mov	 DWORD PTR __Next$[ebp], eax

; 375  : 	for (; _First != _Last; ++_Dest, ++_First)

$LL14@Uninit_cop@2:
  00016	8b 45 08	 mov	 eax, DWORD PTR __First$[ebp]
  00019	3b 45 0c	 cmp	 eax, DWORD PTR __Last$[ebp]
  0001c	74 34		 je	 SHORT $LN4@Uninit_cop@2

; 376  : 		_Cons_val(_Al, _Dest, *_First);

  0001e	50		 push	 eax
  0001f	ff 75 10	 push	 DWORD PTR __Dest$[ebp]
  00022	e8 00 00 00 00	 call	 ??$_Construct@UtagNamedTitleGrade@@ABU1@@std@@YAXPAUtagNamedTitleGrade@@ABU1@@Z ; std::_Construct<tagNamedTitleGrade,tagNamedTitleGrade const &>
  00027	83 45 10 14	 add	 DWORD PTR __Dest$[ebp], 20 ; 00000014H
  0002b	83 45 08 14	 add	 DWORD PTR __First$[ebp], 20 ; 00000014H
  0002f	59		 pop	 ecx
  00030	59		 pop	 ecx
  00031	eb e3		 jmp	 SHORT $LL14@Uninit_cop@2
__catch$??$_Uninit_copy@V?$_Vector_const_iterator@V?$_Vector_val@UtagNamedTitleGrade@@V?$allocator@UtagNamedTitleGrade@@@std@@@std@@@std@@PAUtagNamedTitleGrade@@V?$allocator@UtagNamedTitleGrade@@@2@@std@@YAPAUtagNamedTitleGrade@@V?$_Vector_const_iterator@V?$_Vector_val@UtagNamedTitleGrade@@V?$allocator@UtagNamedTitleGrade@@@std@@@std@@@0@0PAU1@AAV?$allocator@UtagNamedTitleGrade@@@0@U_Nonscalar_ptr_iterator_tag@0@@Z$0:

; 377  : 	_CATCH_ALL
; 378  : 	for (; _Next != _Dest; ++_Next)

  00033	8b 75 ec	 mov	 esi, DWORD PTR __Next$[ebp]
  00036	eb 0c		 jmp	 SHORT $LN48@Uninit_cop@2
$LL3@Uninit_cop@2:

; 379  : 		_Dest_val(_Al, _Next);

  00038	8d 4e 04	 lea	 ecx, DWORD PTR [esi+4]
  0003b	ff 15 00 00 00
	00		 call	 DWORD PTR __imp_??1ioHashString@@QAE@XZ
  00041	83 c6 14	 add	 esi, 20			; 00000014H
$LN48@Uninit_cop@2:

; 377  : 	_CATCH_ALL
; 378  : 	for (; _Next != _Dest; ++_Next)

  00044	3b 75 10	 cmp	 esi, DWORD PTR __Dest$[ebp]
  00047	75 ef		 jne	 SHORT $LL3@Uninit_cop@2

; 380  : 	_RERAISE;

  00049	6a 00		 push	 0
  0004b	6a 00		 push	 0
  0004d	e8 00 00 00 00	 call	 __CxxThrowException@8
$LN49@Uninit_cop@2:
$LN4@Uninit_cop@2:

; 381  : 	_CATCH_END
; 382  : 	return (_Dest);

  00052	8b 45 10	 mov	 eax, DWORD PTR __Dest$[ebp]

; 383  : 	}

  00055	e8 00 00 00 00	 call	 __EH_epilog3
  0005a	c3		 ret	 0
$LN47@Uninit_cop@2:
_TEXT	ENDS
;	COMDAT text$x
text$x	SEGMENT
__ehhandler$??$_Uninit_copy@V?$_Vector_const_iterator@V?$_Vector_val@UtagNamedTitleGrade@@V?$allocator@UtagNamedTitleGrade@@@std@@@std@@@std@@PAUtagNamedTitleGrade@@V?$allocator@UtagNamedTitleGrade@@@2@@std@@YAPAUtagNamedTitleGrade@@V?$_Vector_const_iterator@V?$_Vector_val@UtagNamedTitleGrade@@V?$allocator@UtagNamedTitleGrade@@@std@@@std@@@0@0PAU1@AAV?$allocator@UtagNamedTitleGrade@@@0@U_Nonscalar_ptr_iterator_tag@0@@Z:
  00000	8b 54 24 08	 mov	 edx, DWORD PTR [esp+8]
  00004	8d 42 0c	 lea	 eax, DWORD PTR [edx+12]
  00007	8b 4a e8	 mov	 ecx, DWORD PTR [edx-24]
  0000a	33 c8		 xor	 ecx, eax
  0000c	e8 00 00 00 00	 call	 @__security_check_cookie@4
  00011	b8 00 00 00 00	 mov	 eax, OFFSET __ehfuncinfo$??$_Uninit_copy@V?$_Vector_const_iterator@V?$_Vector_val@UtagNamedTitleGrade@@V?$allocator@UtagNamedTitleGrade@@@std@@@std@@@std@@PAUtagNamedTitleGrade@@V?$allocator@UtagNamedTitleGrade@@@2@@std@@YAPAUtagNamedTitleGrade@@V?$_Vector_const_iterator@V?$_Vector_val@UtagNamedTitleGrade@@V?$allocator@UtagNamedTitleGrade@@@std@@@std@@@0@0PAU1@AAV?$allocator@UtagNamedTitleGrade@@@0@U_Nonscalar_ptr_iterator_tag@0@@Z
  00016	e9 00 00 00 00	 jmp	 ___CxxFrameHandler3
text$x	ENDS
??$_Uninit_copy@V?$_Vector_const_iterator@V?$_Vector_val@UtagNamedTitleGrade@@V?$allocator@UtagNamedTitleGrade@@@std@@@std@@@std@@PAUtagNamedTitleGrade@@V?$allocator@UtagNamedTitleGrade@@@2@@std@@YAPAUtagNamedTitleGrade@@V?$_Vector_const_iterator@V?$_Vector_val@UtagNamedTitleGrade@@V?$allocator@UtagNamedTitleGrade@@@std@@@std@@@0@0PAU1@AAV?$allocator@UtagNamedTitleGrade@@@0@U_Nonscalar_ptr_iterator_tag@0@@Z ENDP ; std::_Uninit_copy<std::_Vector_const_iterator<std::_Vector_val<tagNamedTitleGrade,std::allocator<tagNamedTitleGrade> > >,tagNamedTitleGrade *,std::allocator<tagNamedTitleGrade> >
PUBLIC	??$_Destroy_range@V?$allocator@UtagNamedTitleGrade@@@std@@@std@@YAXPAUtagNamedTitleGrade@@0AAV?$allocator@UtagNamedTitleGrade@@@0@U_Nonscalar_ptr_iterator_tag@0@@Z ; std::_Destroy_range<std::allocator<tagNamedTitleGrade> >
; Function compile flags: /Ogsp
; File c:\program files (x86)\microsoft visual studio 10.0\vc\include\xmemory
;	COMDAT ??$_Destroy_range@V?$allocator@UtagNamedTitleGrade@@@std@@@std@@YAXPAUtagNamedTitleGrade@@0AAV?$allocator@UtagNamedTitleGrade@@@0@U_Nonscalar_ptr_iterator_tag@0@@Z
_TEXT	SEGMENT
__First$ = 8						; size = 4
__Last$ = 12						; size = 4
__Al$ = 16						; size = 4
___formal$ = 20						; size = 1
??$_Destroy_range@V?$allocator@UtagNamedTitleGrade@@@std@@@std@@YAXPAUtagNamedTitleGrade@@0AAV?$allocator@UtagNamedTitleGrade@@@0@U_Nonscalar_ptr_iterator_tag@0@@Z PROC ; std::_Destroy_range<std::allocator<tagNamedTitleGrade> >, COMDAT

; 95   : 	{	// destroy [_First, _Last), arbitrary type

  00000	55		 push	 ebp
  00001	8b ec		 mov	 ebp, esp
  00003	56		 push	 esi

; 96   : 	for (; _First != _Last; ++_First)

  00004	8b 75 08	 mov	 esi, DWORD PTR __First$[ebp]
  00007	eb 0c		 jmp	 SHORT $LN20@Destroy_ra
$LL3@Destroy_ra:

; 97   : 		_Dest_val(_Al, _First);

  00009	8d 4e 04	 lea	 ecx, DWORD PTR [esi+4]
  0000c	ff 15 00 00 00
	00		 call	 DWORD PTR __imp_??1ioHashString@@QAE@XZ
  00012	83 c6 14	 add	 esi, 20			; 00000014H
$LN20@Destroy_ra:

; 96   : 	for (; _First != _Last; ++_First)

  00015	3b 75 0c	 cmp	 esi, DWORD PTR __Last$[ebp]
  00018	75 ef		 jne	 SHORT $LL3@Destroy_ra
  0001a	5e		 pop	 esi

; 98   : 	}

  0001b	5d		 pop	 ebp
  0001c	c3		 ret	 0
??$_Destroy_range@V?$allocator@UtagNamedTitleGrade@@@std@@@std@@YAXPAUtagNamedTitleGrade@@0AAV?$allocator@UtagNamedTitleGrade@@@0@U_Nonscalar_ptr_iterator_tag@0@@Z ENDP ; std::_Destroy_range<std::allocator<tagNamedTitleGrade> >
_TEXT	ENDS
PUBLIC	??$_Uninitialized_copy@PAUtagNamedTitleGrade@@PAU1@V?$allocator@UtagNamedTitleGrade@@@std@@@std@@YAPAUtagNamedTitleGrade@@PAU1@00AAV?$allocator@UtagNamedTitleGrade@@@0@@Z ; std::_Uninitialized_copy<tagNamedTitleGrade *,tagNamedTitleGrade *,std::allocator<tagNamedTitleGrade> >
; Function compile flags: /Ogsp
; File c:\program files (x86)\microsoft visual studio 10.0\vc\include\memory
;	COMDAT ??$_Uninitialized_copy@PAUtagNamedTitleGrade@@PAU1@V?$allocator@UtagNamedTitleGrade@@@std@@@std@@YAPAUtagNamedTitleGrade@@PAU1@00AAV?$allocator@UtagNamedTitleGrade@@@0@@Z
_TEXT	SEGMENT
__Cat$539343 = -4					; size = 1
__First$ = 8						; size = 4
__Last$ = 12						; size = 4
__Dest$ = 16						; size = 4
__Al$ = 20						; size = 4
??$_Uninitialized_copy@PAUtagNamedTitleGrade@@PAU1@V?$allocator@UtagNamedTitleGrade@@@std@@@std@@YAPAUtagNamedTitleGrade@@PAU1@00AAV?$allocator@UtagNamedTitleGrade@@@0@@Z PROC ; std::_Uninitialized_copy<tagNamedTitleGrade *,tagNamedTitleGrade *,std::allocator<tagNamedTitleGrade> >, COMDAT

; 412  : 	{	// copy [_First, _Last) to raw _Dest, using _Al

  00000	55		 push	 ebp
  00001	8b ec		 mov	 ebp, esp
  00003	51		 push	 ecx

; 413  : 	return (_Uninit_copy(_First, _Last, _Dest, _Al,
; 414  : 		_Ptr_cat(_First, _Dest)));

  00004	ff 75 fc	 push	 DWORD PTR __Cat$539343[ebp]
  00007	ff 75 14	 push	 DWORD PTR __Al$[ebp]
  0000a	ff 75 10	 push	 DWORD PTR __Dest$[ebp]
  0000d	ff 75 0c	 push	 DWORD PTR __Last$[ebp]
  00010	ff 75 08	 push	 DWORD PTR __First$[ebp]
  00013	e8 00 00 00 00	 call	 ??$_Uninit_copy@PAUtagNamedTitleGrade@@PAU1@V?$allocator@UtagNamedTitleGrade@@@std@@@std@@YAPAUtagNamedTitleGrade@@PAU1@00AAV?$allocator@UtagNamedTitleGrade@@@0@U_Nonscalar_ptr_iterator_tag@0@@Z ; std::_Uninit_copy<tagNamedTitleGrade *,tagNamedTitleGrade *,std::allocator<tagNamedTitleGrade> >
  00018	83 c4 14	 add	 esp, 20			; 00000014H

; 415  : 	}

  0001b	c9		 leave
  0001c	c3		 ret	 0
??$_Uninitialized_copy@PAUtagNamedTitleGrade@@PAU1@V?$allocator@UtagNamedTitleGrade@@@std@@@std@@YAPAUtagNamedTitleGrade@@PAU1@00AAV?$allocator@UtagNamedTitleGrade@@@0@@Z ENDP ; std::_Uninitialized_copy<tagNamedTitleGrade *,tagNamedTitleGrade *,std::allocator<tagNamedTitleGrade> >
_TEXT	ENDS
PUBLIC	??$_Uninitialized_move@PAUtagNamedTitleGrade@@PAU1@V?$allocator@UtagNamedTitleGrade@@@std@@@std@@YAPAUtagNamedTitleGrade@@PAU1@00AAV?$allocator@UtagNamedTitleGrade@@@0@@Z ; std::_Uninitialized_move<tagNamedTitleGrade *,tagNamedTitleGrade *,std::allocator<tagNamedTitleGrade> >
; Function compile flags: /Ogsp
;	COMDAT ??$_Uninitialized_move@PAUtagNamedTitleGrade@@PAU1@V?$allocator@UtagNamedTitleGrade@@@std@@@std@@YAPAUtagNamedTitleGrade@@PAU1@00AAV?$allocator@UtagNamedTitleGrade@@@0@@Z
_TEXT	SEGMENT
__Cat$539350 = -4					; size = 1
__First$ = 8						; size = 4
__Last$ = 12						; size = 4
__Dest$ = 16						; size = 4
__Al$ = 20						; size = 4
??$_Uninitialized_move@PAUtagNamedTitleGrade@@PAU1@V?$allocator@UtagNamedTitleGrade@@@std@@@std@@YAPAUtagNamedTitleGrade@@PAU1@00AAV?$allocator@UtagNamedTitleGrade@@@0@@Z PROC ; std::_Uninitialized_move<tagNamedTitleGrade *,tagNamedTitleGrade *,std::allocator<tagNamedTitleGrade> >, COMDAT

; 469  : 	{	// move [_First, _Last) to raw _Dest, using _Al

  00000	55		 push	 ebp
  00001	8b ec		 mov	 ebp, esp
  00003	51		 push	 ecx

; 470  : 	return (_Uninit_move(_First, _Last, _Dest, _Al,
; 471  : 		_Val_type(_First), _Ptr_cat(_First, _Dest)));

  00004	ff 75 fc	 push	 DWORD PTR __Cat$539350[ebp]
  00007	6a 00		 push	 0
  00009	ff 75 14	 push	 DWORD PTR __Al$[ebp]
  0000c	ff 75 10	 push	 DWORD PTR __Dest$[ebp]
  0000f	ff 75 0c	 push	 DWORD PTR __Last$[ebp]
  00012	ff 75 08	 push	 DWORD PTR __First$[ebp]
  00015	e8 00 00 00 00	 call	 ??$_Uninit_move@PAUtagNamedTitleGrade@@PAU1@V?$allocator@UtagNamedTitleGrade@@@std@@U1@@std@@YAPAUtagNamedTitleGrade@@PAU1@00AAV?$allocator@UtagNamedTitleGrade@@@0@0U_Nonscalar_ptr_iterator_tag@0@@Z ; std::_Uninit_move<tagNamedTitleGrade *,tagNamedTitleGrade *,std::allocator<tagNamedTitleGrade>,tagNamedTitleGrade>
  0001a	83 c4 18	 add	 esp, 24			; 00000018H

; 472  : 	}

  0001d	c9		 leave
  0001e	c3		 ret	 0
??$_Uninitialized_move@PAUtagNamedTitleGrade@@PAU1@V?$allocator@UtagNamedTitleGrade@@@std@@@std@@YAPAUtagNamedTitleGrade@@PAU1@00AAV?$allocator@UtagNamedTitleGrade@@@0@@Z ENDP ; std::_Uninitialized_move<tagNamedTitleGrade *,tagNamedTitleGrade *,std::allocator<tagNamedTitleGrade> >
_TEXT	ENDS
PUBLIC	??$_Uninitialized_copy@V?$_Vector_const_iterator@V?$_Vector_val@UtagNamedTitleGrade@@V?$allocator@UtagNamedTitleGrade@@@std@@@std@@@std@@PAUtagNamedTitleGrade@@V?$allocator@UtagNamedTitleGrade@@@2@@std@@YAPAUtagNamedTitleGrade@@V?$_Vector_const_iterator@V?$_Vector_val@UtagNamedTitleGrade@@V?$allocator@UtagNamedTitleGrade@@@std@@@std@@@0@0PAU1@AAV?$allocator@UtagNamedTitleGrade@@@0@@Z ; std::_Uninitialized_copy<std::_Vector_const_iterator<std::_Vector_val<tagNamedTitleGrade,std::allocator<tagNamedTitleGrade> > >,tagNamedTitleGrade *,std::allocator<tagNamedTitleGrade> >
; Function compile flags: /Ogsp
;	COMDAT ??$_Uninitialized_copy@V?$_Vector_const_iterator@V?$_Vector_val@UtagNamedTitleGrade@@V?$allocator@UtagNamedTitleGrade@@@std@@@std@@@std@@PAUtagNamedTitleGrade@@V?$allocator@UtagNamedTitleGrade@@@2@@std@@YAPAUtagNamedTitleGrade@@V?$_Vector_const_iterator@V?$_Vector_val@UtagNamedTitleGrade@@V?$allocator@UtagNamedTitleGrade@@@std@@@std@@@0@0PAU1@AAV?$allocator@UtagNamedTitleGrade@@@0@@Z
_TEXT	SEGMENT
__Cat$539360 = -4					; size = 1
__First$ = 8						; size = 4
__Last$ = 12						; size = 4
__Dest$ = 16						; size = 4
__Al$ = 20						; size = 4
??$_Uninitialized_copy@V?$_Vector_const_iterator@V?$_Vector_val@UtagNamedTitleGrade@@V?$allocator@UtagNamedTitleGrade@@@std@@@std@@@std@@PAUtagNamedTitleGrade@@V?$allocator@UtagNamedTitleGrade@@@2@@std@@YAPAUtagNamedTitleGrade@@V?$_Vector_const_iterator@V?$_Vector_val@UtagNamedTitleGrade@@V?$allocator@UtagNamedTitleGrade@@@std@@@std@@@0@0PAU1@AAV?$allocator@UtagNamedTitleGrade@@@0@@Z PROC ; std::_Uninitialized_copy<std::_Vector_const_iterator<std::_Vector_val<tagNamedTitleGrade,std::allocator<tagNamedTitleGrade> > >,tagNamedTitleGrade *,std::allocator<tagNamedTitleGrade> >, COMDAT

; 412  : 	{	// copy [_First, _Last) to raw _Dest, using _Al

  00000	55		 push	 ebp
  00001	8b ec		 mov	 ebp, esp
  00003	51		 push	 ecx

; 413  : 	return (_Uninit_copy(_First, _Last, _Dest, _Al,
; 414  : 		_Ptr_cat(_First, _Dest)));

  00004	ff 75 fc	 push	 DWORD PTR __Cat$539360[ebp]
  00007	ff 75 14	 push	 DWORD PTR __Al$[ebp]
  0000a	ff 75 10	 push	 DWORD PTR __Dest$[ebp]
  0000d	ff 75 0c	 push	 DWORD PTR __Last$[ebp]
  00010	ff 75 08	 push	 DWORD PTR __First$[ebp]
  00013	e8 00 00 00 00	 call	 ??$_Uninit_copy@V?$_Vector_const_iterator@V?$_Vector_val@UtagNamedTitleGrade@@V?$allocator@UtagNamedTitleGrade@@@std@@@std@@@std@@PAUtagNamedTitleGrade@@V?$allocator@UtagNamedTitleGrade@@@2@@std@@YAPAUtagNamedTitleGrade@@V?$_Vector_const_iterator@V?$_Vector_val@UtagNamedTitleGrade@@V?$allocator@UtagNamedTitleGrade@@@std@@@std@@@0@0PAU1@AAV?$allocator@UtagNamedTitleGrade@@@0@U_Nonscalar_ptr_iterator_tag@0@@Z ; std::_Uninit_copy<std::_Vector_const_iterator<std::_Vector_val<tagNamedTitleGrade,std::allocator<tagNamedTitleGrade> > >,tagNamedTitleGrade *,std::allocator<tagNamedTitleGrade> >
  00018	83 c4 14	 add	 esp, 20			; 00000014H

; 415  : 	}

  0001b	c9		 leave
  0001c	c3		 ret	 0
??$_Uninitialized_copy@V?$_Vector_const_iterator@V?$_Vector_val@UtagNamedTitleGrade@@V?$allocator@UtagNamedTitleGrade@@@std@@@std@@@std@@PAUtagNamedTitleGrade@@V?$allocator@UtagNamedTitleGrade@@@2@@std@@YAPAUtagNamedTitleGrade@@V?$_Vector_const_iterator@V?$_Vector_val@UtagNamedTitleGrade@@V?$allocator@UtagNamedTitleGrade@@@std@@@std@@@0@0PAU1@AAV?$allocator@UtagNamedTitleGrade@@@0@@Z ENDP ; std::_Uninitialized_copy<std::_Vector_const_iterator<std::_Vector_val<tagNamedTitleGrade,std::allocator<tagNamedTitleGrade> > >,tagNamedTitleGrade *,std::allocator<tagNamedTitleGrade> >
_TEXT	ENDS
PUBLIC	??$_Destroy_range@V?$allocator@UtagNamedTitleGrade@@@std@@@std@@YAXPAUtagNamedTitleGrade@@0AAV?$allocator@UtagNamedTitleGrade@@@0@@Z ; std::_Destroy_range<std::allocator<tagNamedTitleGrade> >
; Function compile flags: /Ogsp
; File c:\program files (x86)\microsoft visual studio 10.0\vc\include\xmemory
;	COMDAT ??$_Destroy_range@V?$allocator@UtagNamedTitleGrade@@@std@@@std@@YAXPAUtagNamedTitleGrade@@0AAV?$allocator@UtagNamedTitleGrade@@@0@@Z
_TEXT	SEGMENT
__First$ = 8						; size = 4
__Last$ = 12						; size = 4
__Al$ = 16						; size = 4
??$_Destroy_range@V?$allocator@UtagNamedTitleGrade@@@std@@@std@@YAXPAUtagNamedTitleGrade@@0AAV?$allocator@UtagNamedTitleGrade@@@0@@Z PROC ; std::_Destroy_range<std::allocator<tagNamedTitleGrade> >, COMDAT

; 87   : 	{	// destroy [_First, _Last)

  00000	55		 push	 ebp
  00001	8b ec		 mov	 ebp, esp
  00003	56		 push	 esi

; 88   : 	_Destroy_range(_First, _Last, _Al, _Ptr_cat(_First, _Last));

  00004	8b 75 08	 mov	 esi, DWORD PTR __First$[ebp]
  00007	eb 0c		 jmp	 SHORT $LN24@Destroy_ra@2
$LL7@Destroy_ra@2:
  00009	8d 4e 04	 lea	 ecx, DWORD PTR [esi+4]
  0000c	ff 15 00 00 00
	00		 call	 DWORD PTR __imp_??1ioHashString@@QAE@XZ
  00012	83 c6 14	 add	 esi, 20			; 00000014H
$LN24@Destroy_ra@2:
  00015	3b 75 0c	 cmp	 esi, DWORD PTR __Last$[ebp]
  00018	75 ef		 jne	 SHORT $LL7@Destroy_ra@2
  0001a	5e		 pop	 esi

; 89   : 	}

  0001b	5d		 pop	 ebp
  0001c	c3		 ret	 0
??$_Destroy_range@V?$allocator@UtagNamedTitleGrade@@@std@@@std@@YAXPAUtagNamedTitleGrade@@0AAV?$allocator@UtagNamedTitleGrade@@@0@@Z ENDP ; std::_Destroy_range<std::allocator<tagNamedTitleGrade> >
_TEXT	ENDS
PUBLIC	??$_Ucopy@PAUtagNamedTitleGrade@@@?$vector@UtagNamedTitleGrade@@V?$allocator@UtagNamedTitleGrade@@@std@@@std@@IAEPAUtagNamedTitleGrade@@PAU2@00@Z ; std::vector<tagNamedTitleGrade,std::allocator<tagNamedTitleGrade> >::_Ucopy<tagNamedTitleGrade *>
; Function compile flags: /Ogsp
; File c:\program files (x86)\microsoft visual studio 10.0\vc\include\vector
;	COMDAT ??$_Ucopy@PAUtagNamedTitleGrade@@@?$vector@UtagNamedTitleGrade@@V?$allocator@UtagNamedTitleGrade@@@std@@@std@@IAEPAUtagNamedTitleGrade@@PAU2@00@Z
_TEXT	SEGMENT
__First$ = 8						; size = 4
__Last$ = 12						; size = 4
__Cat$539442 = 16					; size = 1
__Ptr$ = 16						; size = 4
??$_Ucopy@PAUtagNamedTitleGrade@@@?$vector@UtagNamedTitleGrade@@V?$allocator@UtagNamedTitleGrade@@@std@@@std@@IAEPAUtagNamedTitleGrade@@PAU2@00@Z PROC ; std::vector<tagNamedTitleGrade,std::allocator<tagNamedTitleGrade> >::_Ucopy<tagNamedTitleGrade *>, COMDAT
; _this$ = ecx

; 1315 : 		pointer _Ucopy(_Iter _First, _Iter _Last, pointer _Ptr)

  00000	55		 push	 ebp
  00001	8b ec		 mov	 ebp, esp

; 1316 : 		{	// copy initializing [_First, _Last), using allocator
; 1317 : 		return (_Uninitialized_copy(_First, _Last,
; 1318 : 			_Ptr, this->_Alval));

  00003	ff 75 10	 push	 DWORD PTR __Cat$539442[ebp]
  00006	83 c1 0c	 add	 ecx, 12			; 0000000cH
  00009	51		 push	 ecx
  0000a	ff 75 10	 push	 DWORD PTR __Ptr$[ebp]
  0000d	ff 75 0c	 push	 DWORD PTR __Last$[ebp]
  00010	ff 75 08	 push	 DWORD PTR __First$[ebp]
  00013	e8 00 00 00 00	 call	 ??$_Uninit_copy@PAUtagNamedTitleGrade@@PAU1@V?$allocator@UtagNamedTitleGrade@@@std@@@std@@YAPAUtagNamedTitleGrade@@PAU1@00AAV?$allocator@UtagNamedTitleGrade@@@0@U_Nonscalar_ptr_iterator_tag@0@@Z ; std::_Uninit_copy<tagNamedTitleGrade *,tagNamedTitleGrade *,std::allocator<tagNamedTitleGrade> >
  00018	83 c4 14	 add	 esp, 20			; 00000014H

; 1319 : 		}

  0001b	5d		 pop	 ebp
  0001c	c2 0c 00	 ret	 12			; 0000000cH
??$_Ucopy@PAUtagNamedTitleGrade@@@?$vector@UtagNamedTitleGrade@@V?$allocator@UtagNamedTitleGrade@@@std@@@std@@IAEPAUtagNamedTitleGrade@@PAU2@00@Z ENDP ; std::vector<tagNamedTitleGrade,std::allocator<tagNamedTitleGrade> >::_Ucopy<tagNamedTitleGrade *>
_TEXT	ENDS
PUBLIC	??$_Umove@PAUtagNamedTitleGrade@@@?$vector@UtagNamedTitleGrade@@V?$allocator@UtagNamedTitleGrade@@@std@@@std@@IAEPAUtagNamedTitleGrade@@PAU2@00@Z ; std::vector<tagNamedTitleGrade,std::allocator<tagNamedTitleGrade> >::_Umove<tagNamedTitleGrade *>
; Function compile flags: /Ogsp
;	COMDAT ??$_Umove@PAUtagNamedTitleGrade@@@?$vector@UtagNamedTitleGrade@@V?$allocator@UtagNamedTitleGrade@@@std@@@std@@IAEPAUtagNamedTitleGrade@@PAU2@00@Z
_TEXT	SEGMENT
__First$ = 8						; size = 4
__Last$ = 12						; size = 4
__Ptr$ = 16						; size = 4
??$_Umove@PAUtagNamedTitleGrade@@@?$vector@UtagNamedTitleGrade@@V?$allocator@UtagNamedTitleGrade@@@std@@@std@@IAEPAUtagNamedTitleGrade@@PAU2@00@Z PROC ; std::vector<tagNamedTitleGrade,std::allocator<tagNamedTitleGrade> >::_Umove<tagNamedTitleGrade *>, COMDAT
; _this$ = ecx

; 1322 : 		pointer _Umove(_Iter _First, _Iter _Last, pointer _Ptr)

  00000	55		 push	 ebp
  00001	8b ec		 mov	 ebp, esp

; 1323 : 		{	// move initializing [_First, _Last), using allocator
; 1324 : 		return (_Uninitialized_move(_First, _Last,
; 1325 : 			_Ptr, this->_Alval));

  00003	83 c1 0c	 add	 ecx, 12			; 0000000cH
  00006	51		 push	 ecx
  00007	ff 75 10	 push	 DWORD PTR __Ptr$[ebp]
  0000a	ff 75 0c	 push	 DWORD PTR __Last$[ebp]
  0000d	ff 75 08	 push	 DWORD PTR __First$[ebp]
  00010	e8 00 00 00 00	 call	 ??$_Uninitialized_move@PAUtagNamedTitleGrade@@PAU1@V?$allocator@UtagNamedTitleGrade@@@std@@@std@@YAPAUtagNamedTitleGrade@@PAU1@00AAV?$allocator@UtagNamedTitleGrade@@@0@@Z ; std::_Uninitialized_move<tagNamedTitleGrade *,tagNamedTitleGrade *,std::allocator<tagNamedTitleGrade> >
  00015	83 c4 10	 add	 esp, 16			; 00000010H

; 1326 : 		}

  00018	5d		 pop	 ebp
  00019	c2 0c 00	 ret	 12			; 0000000cH
??$_Umove@PAUtagNamedTitleGrade@@@?$vector@UtagNamedTitleGrade@@V?$allocator@UtagNamedTitleGrade@@@std@@@std@@IAEPAUtagNamedTitleGrade@@PAU2@00@Z ENDP ; std::vector<tagNamedTitleGrade,std::allocator<tagNamedTitleGrade> >::_Umove<tagNamedTitleGrade *>
_TEXT	ENDS
PUBLIC	??$_Ucopy@V?$_Vector_const_iterator@V?$_Vector_val@UtagNamedTitleGrade@@V?$allocator@UtagNamedTitleGrade@@@std@@@std@@@std@@@?$vector@UtagNamedTitleGrade@@V?$allocator@UtagNamedTitleGrade@@@std@@@std@@IAEPAUtagNamedTitleGrade@@V?$_Vector_const_iterator@V?$_Vector_val@UtagNamedTitleGrade@@V?$allocator@UtagNamedTitleGrade@@@std@@@std@@@1@0PAU2@@Z ; std::vector<tagNamedTitleGrade,std::allocator<tagNamedTitleGrade> >::_Ucopy<std::_Vector_const_iterator<std::_Vector_val<tagNamedTitleGrade,std::allocator<tagNamedTitleGrade> > > >
; Function compile flags: /Ogsp
;	COMDAT ??$_Ucopy@V?$_Vector_const_iterator@V?$_Vector_val@UtagNamedTitleGrade@@V?$allocator@UtagNamedTitleGrade@@@std@@@std@@@std@@@?$vector@UtagNamedTitleGrade@@V?$allocator@UtagNamedTitleGrade@@@std@@@std@@IAEPAUtagNamedTitleGrade@@V?$_Vector_const_iterator@V?$_Vector_val@UtagNamedTitleGrade@@V?$allocator@UtagNamedTitleGrade@@@std@@@std@@@1@0PAU2@@Z
_TEXT	SEGMENT
__First$ = 8						; size = 4
__Last$ = 12						; size = 4
__Cat$539458 = 16					; size = 1
__Ptr$ = 16						; size = 4
??$_Ucopy@V?$_Vector_const_iterator@V?$_Vector_val@UtagNamedTitleGrade@@V?$allocator@UtagNamedTitleGrade@@@std@@@std@@@std@@@?$vector@UtagNamedTitleGrade@@V?$allocator@UtagNamedTitleGrade@@@std@@@std@@IAEPAUtagNamedTitleGrade@@V?$_Vector_const_iterator@V?$_Vector_val@UtagNamedTitleGrade@@V?$allocator@UtagNamedTitleGrade@@@std@@@std@@@1@0PAU2@@Z PROC ; std::vector<tagNamedTitleGrade,std::allocator<tagNamedTitleGrade> >::_Ucopy<std::_Vector_const_iterator<std::_Vector_val<tagNamedTitleGrade,std::allocator<tagNamedTitleGrade> > > >, COMDAT
; _this$ = ecx

; 1315 : 		pointer _Ucopy(_Iter _First, _Iter _Last, pointer _Ptr)

  00000	55		 push	 ebp
  00001	8b ec		 mov	 ebp, esp

; 1316 : 		{	// copy initializing [_First, _Last), using allocator
; 1317 : 		return (_Uninitialized_copy(_First, _Last,
; 1318 : 			_Ptr, this->_Alval));

  00003	ff 75 10	 push	 DWORD PTR __Cat$539458[ebp]
  00006	83 c1 0c	 add	 ecx, 12			; 0000000cH
  00009	51		 push	 ecx
  0000a	ff 75 10	 push	 DWORD PTR __Ptr$[ebp]
  0000d	ff 75 0c	 push	 DWORD PTR __Last$[ebp]
  00010	ff 75 08	 push	 DWORD PTR __First$[ebp]
  00013	e8 00 00 00 00	 call	 ??$_Uninit_copy@V?$_Vector_const_iterator@V?$_Vector_val@UtagNamedTitleGrade@@V?$allocator@UtagNamedTitleGrade@@@std@@@std@@@std@@PAUtagNamedTitleGrade@@V?$allocator@UtagNamedTitleGrade@@@2@@std@@YAPAUtagNamedTitleGrade@@V?$_Vector_const_iterator@V?$_Vector_val@UtagNamedTitleGrade@@V?$allocator@UtagNamedTitleGrade@@@std@@@std@@@0@0PAU1@AAV?$allocator@UtagNamedTitleGrade@@@0@U_Nonscalar_ptr_iterator_tag@0@@Z ; std::_Uninit_copy<std::_Vector_const_iterator<std::_Vector_val<tagNamedTitleGrade,std::allocator<tagNamedTitleGrade> > >,tagNamedTitleGrade *,std::allocator<tagNamedTitleGrade> >
  00018	83 c4 14	 add	 esp, 20			; 00000014H

; 1319 : 		}

  0001b	5d		 pop	 ebp
  0001c	c2 0c 00	 ret	 12			; 0000000cH
??$_Ucopy@V?$_Vector_const_iterator@V?$_Vector_val@UtagNamedTitleGrade@@V?$allocator@UtagNamedTitleGrade@@@std@@@std@@@std@@@?$vector@UtagNamedTitleGrade@@V?$allocator@UtagNamedTitleGrade@@@std@@@std@@IAEPAUtagNamedTitleGrade@@V?$_Vector_const_iterator@V?$_Vector_val@UtagNamedTitleGrade@@V?$allocator@UtagNamedTitleGrade@@@std@@@std@@@1@0PAU2@@Z ENDP ; std::vector<tagNamedTitleGrade,std::allocator<tagNamedTitleGrade> >::_Ucopy<std::_Vector_const_iterator<std::_Vector_val<tagNamedTitleGrade,std::allocator<tagNamedTitleGrade> > > >
_TEXT	ENDS
PUBLIC	?_Destroy@?$vector@UtagNamedTitleGrade@@V?$allocator@UtagNamedTitleGrade@@@std@@@std@@IAEXPAUtagNamedTitleGrade@@0@Z ; std::vector<tagNamedTitleGrade,std::allocator<tagNamedTitleGrade> >::_Destroy
; Function compile flags: /Ogsp
;	COMDAT ?_Destroy@?$vector@UtagNamedTitleGrade@@V?$allocator@UtagNamedTitleGrade@@@std@@@std@@IAEXPAUtagNamedTitleGrade@@0@Z
_TEXT	SEGMENT
__First$ = 8						; size = 4
__Last$ = 12						; size = 4
?_Destroy@?$vector@UtagNamedTitleGrade@@V?$allocator@UtagNamedTitleGrade@@@std@@@std@@IAEXPAUtagNamedTitleGrade@@0@Z PROC ; std::vector<tagNamedTitleGrade,std::allocator<tagNamedTitleGrade> >::_Destroy, COMDAT
; _this$ = ecx

; 1269 : 		{	// destroy [_First, _Last) using allocator

  00000	55		 push	 ebp
  00001	8b ec		 mov	 ebp, esp

; 1270 : 		_Destroy_range(_First, _Last, this->_Alval);

  00003	83 c1 0c	 add	 ecx, 12			; 0000000cH
  00006	51		 push	 ecx
  00007	ff 75 0c	 push	 DWORD PTR __Last$[ebp]
  0000a	ff 75 08	 push	 DWORD PTR __First$[ebp]
  0000d	e8 00 00 00 00	 call	 ??$_Destroy_range@V?$allocator@UtagNamedTitleGrade@@@std@@@std@@YAXPAUtagNamedTitleGrade@@0AAV?$allocator@UtagNamedTitleGrade@@@0@@Z ; std::_Destroy_range<std::allocator<tagNamedTitleGrade> >
  00012	83 c4 0c	 add	 esp, 12			; 0000000cH

; 1271 : 		}

  00015	5d		 pop	 ebp
  00016	c2 08 00	 ret	 8
?_Destroy@?$vector@UtagNamedTitleGrade@@V?$allocator@UtagNamedTitleGrade@@@std@@@std@@IAEXPAUtagNamedTitleGrade@@0@Z ENDP ; std::vector<tagNamedTitleGrade,std::allocator<tagNamedTitleGrade> >::_Destroy
_TEXT	ENDS
PUBLIC	?reserve@?$vector@UtagNamedTitleGrade@@V?$allocator@UtagNamedTitleGrade@@@std@@@std@@QAEXI@Z ; std::vector<tagNamedTitleGrade,std::allocator<tagNamedTitleGrade> >::reserve
EXTRN	__imp_?_Orphan_all@_Container_base0@std@@QAEXXZ:PROC
;	COMDAT xdata$x
; File c:\program files (x86)\microsoft visual studio 10.0\vc\include\xmemory
xdata$x	SEGMENT
__catchsym$?reserve@?$vector@UtagNamedTitleGrade@@V?$allocator@UtagNamedTitleGrade@@@std@@@std@@QAEXI@Z$2 DD 040H
	DD	00H
	DD	00H
	DD	FLAT:__catch$?reserve@?$vector@UtagNamedTitleGrade@@V?$allocator@UtagNamedTitleGrade@@@std@@@std@@QAEXI@Z$0
__unwindtable$?reserve@?$vector@UtagNamedTitleGrade@@V?$allocator@UtagNamedTitleGrade@@@std@@@std@@QAEXI@Z DD 0ffffffffH
	DD	00H
	DD	0ffffffffH
	DD	00H
__tryblocktable$?reserve@?$vector@UtagNamedTitleGrade@@V?$allocator@UtagNamedTitleGrade@@@std@@@std@@QAEXI@Z DD 00H
	DD	00H
	DD	01H
	DD	01H
	DD	FLAT:__catchsym$?reserve@?$vector@UtagNamedTitleGrade@@V?$allocator@UtagNamedTitleGrade@@@std@@@std@@QAEXI@Z$2
__ehfuncinfo$?reserve@?$vector@UtagNamedTitleGrade@@V?$allocator@UtagNamedTitleGrade@@@std@@@std@@QAEXI@Z DD 019930522H
	DD	02H
	DD	FLAT:__unwindtable$?reserve@?$vector@UtagNamedTitleGrade@@V?$allocator@UtagNamedTitleGrade@@@std@@@std@@QAEXI@Z
	DD	01H
	DD	FLAT:__tryblocktable$?reserve@?$vector@UtagNamedTitleGrade@@V?$allocator@UtagNamedTitleGrade@@@std@@@std@@QAEXI@Z
	DD	2 DUP(00H)
	DD	00H
	DD	01H
; Function compile flags: /Ogsp
; File c:\program files (x86)\microsoft visual studio 10.0\vc\include\vector
xdata$x	ENDS
;	COMDAT ?reserve@?$vector@UtagNamedTitleGrade@@V?$allocator@UtagNamedTitleGrade@@@std@@@std@@QAEXI@Z
_TEXT	SEGMENT
__$EHRec$ = -16						; size = 16
__Ptr$534160 = 8					; size = 4
__Count$ = 8						; size = 4
?reserve@?$vector@UtagNamedTitleGrade@@V?$allocator@UtagNamedTitleGrade@@@std@@@std@@QAEXI@Z PROC ; std::vector<tagNamedTitleGrade,std::allocator<tagNamedTitleGrade> >::reserve, COMDAT
; _this$ = ecx

; 746  : 		{	// determine new minimum length of allocated storage

  00000	6a 04		 push	 4
  00002	b8 00 00 00 00	 mov	 eax, __ehhandler$?reserve@?$vector@UtagNamedTitleGrade@@V?$allocator@UtagNamedTitleGrade@@@std@@@std@@QAEXI@Z
  00007	e8 00 00 00 00	 call	 __EH_prolog3_catch
  0000c	8b f1		 mov	 esi, ecx

; 747  : 		if (max_size() < _Count)

  0000e	8b 5d 08	 mov	 ebx, DWORD PTR __Count$[ebp]
  00011	81 fb cc cc cc
	0c		 cmp	 ebx, 214748364		; 0cccccccH
  00017	76 0b		 jbe	 SHORT $LN5@reserve

; 748  : 			_Xlen();	// result too long

  00019	68 00 00 00 00	 push	 OFFSET ??_C@_0BD@OLBABOEK@vector?$DMT?$DO?5too?5long?$AA@
  0001e	ff 15 00 00 00
	00		 call	 DWORD PTR __imp_?_Xlength_error@std@@YAXPBD@Z
$LN38@reserve:
$LN5@reserve:

; 749  : 		else if (capacity() < _Count)

  00024	8b 46 08	 mov	 eax, DWORD PTR [esi+8]
  00027	2b 06		 sub	 eax, DWORD PTR [esi]
  00029	6a 14		 push	 20			; 00000014H
  0002b	99		 cdq
  0002c	59		 pop	 ecx
  0002d	f7 f9		 idiv	 ecx
  0002f	3b c3		 cmp	 eax, ebx
  00031	73 70		 jae	 SHORT $LN3@reserve

; 750  : 			{	// not enough room, reallocate
; 751  : 			pointer _Ptr = this->_Alval.allocate(_Count);

  00033	6a 00		 push	 0
  00035	53		 push	 ebx
  00036	e8 00 00 00 00	 call	 ??$_Allocate@UtagNamedTitleGrade@@@std@@YAPAUtagNamedTitleGrade@@IPAU1@@Z ; std::_Allocate<tagNamedTitleGrade>

; 752  : 
; 753  : 			_TRY_BEGIN
; 754  : 			_Umove(this->_Myfirst, this->_Mylast, _Ptr);

  0003b	8b 0e		 mov	 ecx, DWORD PTR [esi]
  0003d	83 65 fc 00	 and	 DWORD PTR __$EHRec$[ebp+12], 0
  00041	8d 56 0c	 lea	 edx, DWORD PTR [esi+12]
  00044	52		 push	 edx
  00045	89 45 08	 mov	 DWORD PTR __Ptr$534160[ebp], eax
  00048	ff 75 08	 push	 DWORD PTR __Ptr$534160[ebp]
  0004b	8b 46 04	 mov	 eax, DWORD PTR [esi+4]
  0004e	50		 push	 eax
  0004f	51		 push	 ecx
  00050	e8 00 00 00 00	 call	 ??$_Uninitialized_move@PAUtagNamedTitleGrade@@PAU1@V?$allocator@UtagNamedTitleGrade@@@std@@@std@@YAPAUtagNamedTitleGrade@@PAU1@00AAV?$allocator@UtagNamedTitleGrade@@@0@@Z ; std::_Uninitialized_move<tagNamedTitleGrade *,tagNamedTitleGrade *,std::allocator<tagNamedTitleGrade> >

; 758  : 			_CATCH_END
; 759  : 
; 760  : 			size_type _Size = size();

  00055	8b 0e		 mov	 ecx, DWORD PTR [esi]
  00057	8b 46 04	 mov	 eax, DWORD PTR [esi+4]
  0005a	83 c4 18	 add	 esp, 24			; 00000018H
  0005d	2b c1		 sub	 eax, ecx
  0005f	6a 14		 push	 20			; 00000014H
  00061	99		 cdq
  00062	5f		 pop	 edi
  00063	f7 ff		 idiv	 edi
  00065	83 4d fc ff	 or	 DWORD PTR __$EHRec$[ebp+12], -1
  00069	8b f8		 mov	 edi, eax
  0006b	85 c9		 test	 ecx, ecx
  0006d	74 17		 je	 SHORT $LN33@reserve

; 761  : 			if (this->_Myfirst != 0)
; 762  : 				{	// destroy and deallocate old array
; 763  : 				_Destroy(this->_Myfirst, this->_Mylast);

  0006f	8d 46 0c	 lea	 eax, DWORD PTR [esi+12]
  00072	50		 push	 eax
  00073	ff 76 04	 push	 DWORD PTR [esi+4]
  00076	51		 push	 ecx
  00077	e8 00 00 00 00	 call	 ??$_Destroy_range@V?$allocator@UtagNamedTitleGrade@@@std@@@std@@YAXPAUtagNamedTitleGrade@@0AAV?$allocator@UtagNamedTitleGrade@@@0@@Z ; std::_Destroy_range<std::allocator<tagNamedTitleGrade> >

; 764  : 				this->_Alval.deallocate(this->_Myfirst,
; 765  : 					this->_Myend - this->_Myfirst);

  0007c	ff 36		 push	 DWORD PTR [esi]
  0007e	e8 00 00 00 00	 call	 ??3@YAXPAX@Z		; operator delete
  00083	83 c4 10	 add	 esp, 16			; 00000010H
$LN33@reserve:

; 766  : 				}
; 767  : 
; 768  : 			this->_Orphan_all();

  00086	8b ce		 mov	 ecx, esi
  00088	ff 15 00 00 00
	00		 call	 DWORD PTR __imp_?_Orphan_all@_Container_base0@std@@QAEXXZ

; 769  : 			this->_Myend = _Ptr + _Count;

  0008e	6b db 14	 imul	 ebx, 20			; 00000014H

; 770  : 			this->_Mylast = _Ptr + _Size;

  00091	6b ff 14	 imul	 edi, 20			; 00000014H
  00094	8b 45 08	 mov	 eax, DWORD PTR __Ptr$534160[ebp]
  00097	03 d8		 add	 ebx, eax
  00099	03 f8		 add	 edi, eax
  0009b	89 5e 08	 mov	 DWORD PTR [esi+8], ebx
  0009e	89 7e 04	 mov	 DWORD PTR [esi+4], edi

; 771  : 			this->_Myfirst = _Ptr;

  000a1	89 06		 mov	 DWORD PTR [esi], eax
$LN3@reserve:

; 772  : 			}
; 773  : 		}

  000a3	e8 00 00 00 00	 call	 __EH_epilog3
  000a8	c2 04 00	 ret	 4
__catch$?reserve@?$vector@UtagNamedTitleGrade@@V?$allocator@UtagNamedTitleGrade@@@std@@@std@@QAEXI@Z$0:

; 755  : 			_CATCH_ALL
; 756  : 			this->_Alval.deallocate(_Ptr, _Count);

  000ab	ff 75 08	 push	 DWORD PTR __Ptr$534160[ebp]
  000ae	e8 00 00 00 00	 call	 ??3@YAXPAX@Z		; operator delete
  000b3	59		 pop	 ecx

; 757  : 			_RERAISE;

  000b4	6a 00		 push	 0
  000b6	6a 00		 push	 0
  000b8	e8 00 00 00 00	 call	 __CxxThrowException@8
$LN39@reserve:
$LN37@reserve:
  000bd	cc		 int	 3
_TEXT	ENDS
;	COMDAT text$x
text$x	SEGMENT
__ehhandler$?reserve@?$vector@UtagNamedTitleGrade@@V?$allocator@UtagNamedTitleGrade@@@std@@@std@@QAEXI@Z:
  00000	8b 54 24 08	 mov	 edx, DWORD PTR [esp+8]
  00004	8d 42 0c	 lea	 eax, DWORD PTR [edx+12]
  00007	8b 4a ec	 mov	 ecx, DWORD PTR [edx-20]
  0000a	33 c8		 xor	 ecx, eax
  0000c	e8 00 00 00 00	 call	 @__security_check_cookie@4
  00011	b8 00 00 00 00	 mov	 eax, OFFSET __ehfuncinfo$?reserve@?$vector@UtagNamedTitleGrade@@V?$allocator@UtagNamedTitleGrade@@@std@@@std@@QAEXI@Z
  00016	e9 00 00 00 00	 jmp	 ___CxxFrameHandler3
text$x	ENDS
?reserve@?$vector@UtagNamedTitleGrade@@V?$allocator@UtagNamedTitleGrade@@@std@@@std@@QAEXI@Z ENDP ; std::vector<tagNamedTitleGrade,std::allocator<tagNamedTitleGrade> >::reserve
PUBLIC	?erase@?$vector@UtagNamedTitleGrade@@V?$allocator@UtagNamedTitleGrade@@@std@@@std@@QAE?AV?$_Vector_iterator@V?$_Vector_val@UtagNamedTitleGrade@@V?$allocator@UtagNamedTitleGrade@@@std@@@std@@@2@V?$_Vector_const_iterator@V?$_Vector_val@UtagNamedTitleGrade@@V?$allocator@UtagNamedTitleGrade@@@std@@@std@@@2@0@Z ; std::vector<tagNamedTitleGrade,std::allocator<tagNamedTitleGrade> >::erase
; Function compile flags: /Ogsp
;	COMDAT ?erase@?$vector@UtagNamedTitleGrade@@V?$allocator@UtagNamedTitleGrade@@@std@@@std@@QAE?AV?$_Vector_iterator@V?$_Vector_val@UtagNamedTitleGrade@@V?$allocator@UtagNamedTitleGrade@@@std@@@std@@@2@V?$_Vector_const_iterator@V?$_Vector_val@UtagNamedTitleGrade@@V?$allocator@UtagNamedTitleGrade@@@std@@@std@@@2@0@Z
_TEXT	SEGMENT
___$ReturnUdt$ = 8					; size = 4
__First_arg$ = 12					; size = 4
__Cat$539604 = 16					; size = 1
__Last_arg$ = 16					; size = 4
?erase@?$vector@UtagNamedTitleGrade@@V?$allocator@UtagNamedTitleGrade@@@std@@@std@@QAE?AV?$_Vector_iterator@V?$_Vector_val@UtagNamedTitleGrade@@V?$allocator@UtagNamedTitleGrade@@@std@@@std@@@2@V?$_Vector_const_iterator@V?$_Vector_val@UtagNamedTitleGrade@@V?$allocator@UtagNamedTitleGrade@@@std@@@std@@@2@0@Z PROC ; std::vector<tagNamedTitleGrade,std::allocator<tagNamedTitleGrade> >::erase, COMDAT
; _this$ = ecx

; 1190 : 		{	// erase [_First, _Last)

  00000	55		 push	 ebp
  00001	8b ec		 mov	 ebp, esp

; 1191 : 		iterator _First = _Make_iter(_First_arg);

  00003	8b 45 0c	 mov	 eax, DWORD PTR __First_arg$[ebp]
  00006	53		 push	 ebx
  00007	8b 5d 08	 mov	 ebx, DWORD PTR ___$ReturnUdt$[ebp]
  0000a	56		 push	 esi
  0000b	8b f1		 mov	 esi, ecx
  0000d	89 03		 mov	 DWORD PTR [ebx], eax

; 1192 : 		iterator _Last = _Make_iter(_Last_arg);
; 1193 : 
; 1194 : 		if (_First != _Last)

  0000f	3b 45 10	 cmp	 eax, DWORD PTR __Last_arg$[ebp]
  00012	74 27		 je	 SHORT $LN1@erase

; 1195 : 			{	// worth doing, copy down over hole
; 1196 :  #if _ITERATOR_DEBUG_LEVEL == 2
; 1197 : 			if (_Last < _First || _VICONT(_First) != this
; 1198 : 				|| _VIPTR(_First) < this->_Myfirst
; 1199 : 				|| this->_Mylast < _VIPTR(_Last))
; 1200 : 				_DEBUG_ERROR("vector erase iterator outside range");
; 1201 : 			pointer _Ptr = _Move(_VIPTR(_Last), this->_Mylast,
; 1202 : 				_VIPTR(_First));
; 1203 : 			_Orphan_range(_VIPTR(_First), this->_Mylast);
; 1204 : 
; 1205 :  #else /* _ITERATOR_DEBUG_LEVEL == 2 */
; 1206 : 			pointer _Ptr = _Move(_VIPTR(_Last), this->_Mylast,
; 1207 : 				_VIPTR(_First));

  00014	8b 4e 04	 mov	 ecx, DWORD PTR [esi+4]
  00017	57		 push	 edi
  00018	ff 75 10	 push	 DWORD PTR __Cat$539604[ebp]
  0001b	50		 push	 eax
  0001c	51		 push	 ecx
  0001d	ff 75 10	 push	 DWORD PTR __Last_arg$[ebp]
  00020	e8 00 00 00 00	 call	 ??$_Move@PAUtagNamedTitleGrade@@PAU1@@std@@YAPAUtagNamedTitleGrade@@PAU1@00U_Nonscalar_ptr_iterator_tag@0@@Z ; std::_Move<tagNamedTitleGrade *,tagNamedTitleGrade *>
  00025	8b f8		 mov	 edi, eax

; 1208 :  #endif /* _ITERATOR_DEBUG_LEVEL == 2 */
; 1209 : 
; 1210 : 			_Destroy(_Ptr, this->_Mylast);

  00027	8d 46 0c	 lea	 eax, DWORD PTR [esi+12]
  0002a	50		 push	 eax
  0002b	ff 76 04	 push	 DWORD PTR [esi+4]
  0002e	57		 push	 edi
  0002f	e8 00 00 00 00	 call	 ??$_Destroy_range@V?$allocator@UtagNamedTitleGrade@@@std@@@std@@YAXPAUtagNamedTitleGrade@@0AAV?$allocator@UtagNamedTitleGrade@@@0@@Z ; std::_Destroy_range<std::allocator<tagNamedTitleGrade> >
  00034	83 c4 1c	 add	 esp, 28			; 0000001cH

; 1211 : 			this->_Mylast = _Ptr;

  00037	89 7e 04	 mov	 DWORD PTR [esi+4], edi
  0003a	5f		 pop	 edi
$LN1@erase:

; 1212 : 			}
; 1213 : 		return (_First);

  0003b	5e		 pop	 esi
  0003c	8b c3		 mov	 eax, ebx
  0003e	5b		 pop	 ebx

; 1214 : 		}

  0003f	5d		 pop	 ebp
  00040	c2 0c 00	 ret	 12			; 0000000cH
?erase@?$vector@UtagNamedTitleGrade@@V?$allocator@UtagNamedTitleGrade@@@std@@@std@@QAE?AV?$_Vector_iterator@V?$_Vector_val@UtagNamedTitleGrade@@V?$allocator@UtagNamedTitleGrade@@@std@@@std@@@2@V?$_Vector_const_iterator@V?$_Vector_val@UtagNamedTitleGrade@@V?$allocator@UtagNamedTitleGrade@@@std@@@std@@@2@0@Z ENDP ; std::vector<tagNamedTitleGrade,std::allocator<tagNamedTitleGrade> >::erase
_TEXT	ENDS
PUBLIC	?_Tidy@?$vector@UtagNamedTitleGrade@@V?$allocator@UtagNamedTitleGrade@@@std@@@std@@IAEXXZ ; std::vector<tagNamedTitleGrade,std::allocator<tagNamedTitleGrade> >::_Tidy
; Function compile flags: /Ogsp
;	COMDAT ?_Tidy@?$vector@UtagNamedTitleGrade@@V?$allocator@UtagNamedTitleGrade@@@std@@@std@@IAEXXZ
_TEXT	SEGMENT
?_Tidy@?$vector@UtagNamedTitleGrade@@V?$allocator@UtagNamedTitleGrade@@@std@@@std@@IAEXXZ PROC ; std::vector<tagNamedTitleGrade,std::allocator<tagNamedTitleGrade> >::_Tidy, COMDAT
; _this$ = ecx

; 1301 : 		{	// free all storage

  00000	56		 push	 esi
  00001	8b f1		 mov	 esi, ecx

; 1302 : 		if (this->_Myfirst != 0)

  00003	83 3e 00	 cmp	 DWORD PTR [esi], 0
  00006	74 1e		 je	 SHORT $LN6@Tidy

; 1303 : 			{	// something to free, destroy and deallocate it
; 1304 : 			this->_Orphan_all();

  00008	ff 15 00 00 00
	00		 call	 DWORD PTR __imp_?_Orphan_all@_Container_base0@std@@QAEXXZ

; 1305 : 			_Destroy(this->_Myfirst, this->_Mylast);

  0000e	8d 46 0c	 lea	 eax, DWORD PTR [esi+12]
  00011	50		 push	 eax
  00012	ff 76 04	 push	 DWORD PTR [esi+4]
  00015	ff 36		 push	 DWORD PTR [esi]
  00017	e8 00 00 00 00	 call	 ??$_Destroy_range@V?$allocator@UtagNamedTitleGrade@@@std@@@std@@YAXPAUtagNamedTitleGrade@@0AAV?$allocator@UtagNamedTitleGrade@@@0@@Z ; std::_Destroy_range<std::allocator<tagNamedTitleGrade> >

; 1306 : 			this->_Alval.deallocate(this->_Myfirst,
; 1307 : 				this->_Myend - this->_Myfirst);

  0001c	ff 36		 push	 DWORD PTR [esi]
  0001e	e8 00 00 00 00	 call	 ??3@YAXPAX@Z		; operator delete
  00023	83 c4 10	 add	 esp, 16			; 00000010H
$LN6@Tidy:

; 1308 : 			}
; 1309 : 		this->_Myfirst = 0;

  00026	83 26 00	 and	 DWORD PTR [esi], 0

; 1310 : 		this->_Mylast = 0;

  00029	83 66 04 00	 and	 DWORD PTR [esi+4], 0

; 1311 : 		this->_Myend = 0;

  0002d	83 66 08 00	 and	 DWORD PTR [esi+8], 0
  00031	5e		 pop	 esi

; 1312 : 		}

  00032	c3		 ret	 0
?_Tidy@?$vector@UtagNamedTitleGrade@@V?$allocator@UtagNamedTitleGrade@@@std@@@std@@IAEXXZ ENDP ; std::vector<tagNamedTitleGrade,std::allocator<tagNamedTitleGrade> >::_Tidy
_TEXT	ENDS
PUBLIC	?_Reserve@?$vector@UtagNamedTitleGrade@@V?$allocator@UtagNamedTitleGrade@@@std@@@std@@IAEXI@Z ; std::vector<tagNamedTitleGrade,std::allocator<tagNamedTitleGrade> >::_Reserve
; Function compile flags: /Ogsp
;	COMDAT ?_Reserve@?$vector@UtagNamedTitleGrade@@V?$allocator@UtagNamedTitleGrade@@@std@@@std@@IAEXI@Z
_TEXT	SEGMENT
__Count$ = 8						; size = 4
?_Reserve@?$vector@UtagNamedTitleGrade@@V?$allocator@UtagNamedTitleGrade@@@std@@@std@@IAEXI@Z PROC ; std::vector<tagNamedTitleGrade,std::allocator<tagNamedTitleGrade> >::_Reserve, COMDAT
; _this$ = ecx

; 1290 : 		{	// ensure room for _Count new elements, grow exponentially

  00000	55		 push	 ebp
  00001	8b ec		 mov	 ebp, esp
  00003	56		 push	 esi
  00004	8b f1		 mov	 esi, ecx

; 1291 : 		size_type _Size = size();

  00006	8b 0e		 mov	 ecx, DWORD PTR [esi]
  00008	8b 46 04	 mov	 eax, DWORD PTR [esi+4]
  0000b	2b c1		 sub	 eax, ecx
  0000d	57		 push	 edi
  0000e	99		 cdq
  0000f	6a 14		 push	 20			; 00000014H
  00011	5f		 pop	 edi
  00012	f7 ff		 idiv	 edi
  00014	8b f8		 mov	 edi, eax

; 1292 : 		if (max_size() - _Count < _Size)

  00016	b8 cc cc cc 0c	 mov	 eax, 214748364		; 0cccccccH
  0001b	2b 45 08	 sub	 eax, DWORD PTR __Count$[ebp]
  0001e	3b c7		 cmp	 eax, edi
  00020	73 0b		 jae	 SHORT $LN4@Reserve

; 1293 : 			_Xlen();

  00022	68 00 00 00 00	 push	 OFFSET ??_C@_0BD@OLBABOEK@vector?$DMT?$DO?5too?5long?$AA@
  00027	ff 15 00 00 00
	00		 call	 DWORD PTR __imp_?_Xlength_error@std@@YAXPBD@Z
$LN21@Reserve:
$LN4@Reserve:

; 1294 : 		else if ((_Size += _Count) <= capacity())

  0002d	8b 46 08	 mov	 eax, DWORD PTR [esi+8]
  00030	2b c1		 sub	 eax, ecx
  00032	6a 14		 push	 20			; 00000014H
  00034	99		 cdq
  00035	59		 pop	 ecx
  00036	f7 f9		 idiv	 ecx
  00038	03 7d 08	 add	 edi, DWORD PTR __Count$[ebp]
  0003b	3b f8		 cmp	 edi, eax
  0003d	76 10		 jbe	 SHORT $LN1@Reserve

; 1295 : 			;
; 1296 : 		else
; 1297 : 			reserve(_Grow_to(_Size));

  0003f	57		 push	 edi
  00040	8b ce		 mov	 ecx, esi
  00042	e8 00 00 00 00	 call	 ?_Grow_to@?$vector@UtagNamedTitleGrade@@V?$allocator@UtagNamedTitleGrade@@@std@@@std@@IBEII@Z ; std::vector<tagNamedTitleGrade,std::allocator<tagNamedTitleGrade> >::_Grow_to
  00047	50		 push	 eax
  00048	8b ce		 mov	 ecx, esi
  0004a	e8 00 00 00 00	 call	 ?reserve@?$vector@UtagNamedTitleGrade@@V?$allocator@UtagNamedTitleGrade@@@std@@@std@@QAEXI@Z ; std::vector<tagNamedTitleGrade,std::allocator<tagNamedTitleGrade> >::reserve
$LN1@Reserve:
  0004f	5f		 pop	 edi
  00050	5e		 pop	 esi

; 1298 : 		}

  00051	5d		 pop	 ebp
  00052	c2 04 00	 ret	 4
$LN20@Reserve:
?_Reserve@?$vector@UtagNamedTitleGrade@@V?$allocator@UtagNamedTitleGrade@@@std@@@std@@IAEXI@Z ENDP ; std::vector<tagNamedTitleGrade,std::allocator<tagNamedTitleGrade> >::_Reserve
_TEXT	ENDS
PUBLIC	??0?$vector@UtagNamedTitleGrade@@V?$allocator@UtagNamedTitleGrade@@@std@@@std@@QAE@ABV01@@Z ; std::vector<tagNamedTitleGrade,std::allocator<tagNamedTitleGrade> >::vector<tagNamedTitleGrade,std::allocator<tagNamedTitleGrade> >
;	COMDAT xdata$x
; File c:\program files (x86)\microsoft visual studio 10.0\vc\include\xutility
xdata$x	SEGMENT
__catchsym$??0?$vector@UtagNamedTitleGrade@@V?$allocator@UtagNamedTitleGrade@@@std@@@std@@QAE@ABV01@@Z$2 DD 040H
	DD	00H
	DD	00H
	DD	FLAT:__catch$??0?$vector@UtagNamedTitleGrade@@V?$allocator@UtagNamedTitleGrade@@@std@@@std@@QAE@ABV01@@Z$0
__unwindtable$??0?$vector@UtagNamedTitleGrade@@V?$allocator@UtagNamedTitleGrade@@@std@@@std@@QAE@ABV01@@Z DD 0ffffffffH
	DD	00H
	DD	0ffffffffH
	DD	00H
__tryblocktable$??0?$vector@UtagNamedTitleGrade@@V?$allocator@UtagNamedTitleGrade@@@std@@@std@@QAE@ABV01@@Z DD 00H
	DD	00H
	DD	01H
	DD	01H
	DD	FLAT:__catchsym$??0?$vector@UtagNamedTitleGrade@@V?$allocator@UtagNamedTitleGrade@@@std@@@std@@QAE@ABV01@@Z$2
__ehfuncinfo$??0?$vector@UtagNamedTitleGrade@@V?$allocator@UtagNamedTitleGrade@@@std@@@std@@QAE@ABV01@@Z DD 019930522H
	DD	02H
	DD	FLAT:__unwindtable$??0?$vector@UtagNamedTitleGrade@@V?$allocator@UtagNamedTitleGrade@@@std@@@std@@QAE@ABV01@@Z
	DD	01H
	DD	FLAT:__tryblocktable$??0?$vector@UtagNamedTitleGrade@@V?$allocator@UtagNamedTitleGrade@@@std@@@std@@QAE@ABV01@@Z
	DD	2 DUP(00H)
	DD	00H
	DD	01H
; Function compile flags: /Ogsp
; File c:\program files (x86)\microsoft visual studio 10.0\vc\include\vector
xdata$x	ENDS
;	COMDAT ??0?$vector@UtagNamedTitleGrade@@V?$allocator@UtagNamedTitleGrade@@@std@@@std@@QAE@ABV01@@Z
_TEXT	SEGMENT
_this$ = -20						; size = 4
__$EHRec$ = -16						; size = 16
__Cat$539734 = 8					; size = 1
__Right$ = 8						; size = 4
??0?$vector@UtagNamedTitleGrade@@V?$allocator@UtagNamedTitleGrade@@@std@@@std@@QAE@ABV01@@Z PROC ; std::vector<tagNamedTitleGrade,std::allocator<tagNamedTitleGrade> >::vector<tagNamedTitleGrade,std::allocator<tagNamedTitleGrade> >, COMDAT
; _this$ = ecx

; 535  : 		{	// construct by copying _Right

  00000	6a 08		 push	 8
  00002	b8 00 00 00 00	 mov	 eax, __ehhandler$??0?$vector@UtagNamedTitleGrade@@V?$allocator@UtagNamedTitleGrade@@@std@@@std@@QAE@ABV01@@Z
  00007	e8 00 00 00 00	 call	 __EH_prolog3_catch
  0000c	8b f1		 mov	 esi, ecx
  0000e	89 75 ec	 mov	 DWORD PTR _this$[ebp], esi

; 536  : 		if (_Buy(_Right.size()))

  00011	8b 7d 08	 mov	 edi, DWORD PTR __Right$[ebp]
  00014	33 db		 xor	 ebx, ebx
  00016	89 1e		 mov	 DWORD PTR [esi], ebx
  00018	89 5e 04	 mov	 DWORD PTR [esi+4], ebx
  0001b	89 5e 08	 mov	 DWORD PTR [esi+8], ebx
  0001e	8b 47 04	 mov	 eax, DWORD PTR [edi+4]
  00021	2b 07		 sub	 eax, DWORD PTR [edi]
  00023	6a 14		 push	 20			; 00000014H
  00025	59		 pop	 ecx
  00026	99		 cdq
  00027	f7 f9		 idiv	 ecx
  00029	8b ce		 mov	 ecx, esi
  0002b	50		 push	 eax
  0002c	e8 00 00 00 00	 call	 ?_Buy@?$vector@UtagNamedTitleGrade@@V?$allocator@UtagNamedTitleGrade@@@std@@@std@@IAE_NI@Z ; std::vector<tagNamedTitleGrade,std::allocator<tagNamedTitleGrade> >::_Buy
  00031	84 c0		 test	 al, al
  00033	74 1f		 je	 SHORT $LN7@vector

; 537  : 			_TRY_BEGIN
; 538  : 			this->_Mylast = _Ucopy(_Right.begin(), _Right.end(),
; 539  : 				this->_Myfirst);

  00035	ff 75 08	 push	 DWORD PTR __Cat$539734[ebp]
  00038	8b 0e		 mov	 ecx, DWORD PTR [esi]
  0003a	8b 47 04	 mov	 eax, DWORD PTR [edi+4]
  0003d	8b 3f		 mov	 edi, DWORD PTR [edi]
  0003f	8d 56 0c	 lea	 edx, DWORD PTR [esi+12]
  00042	52		 push	 edx
  00043	51		 push	 ecx
  00044	50		 push	 eax
  00045	57		 push	 edi
  00046	89 5d fc	 mov	 DWORD PTR __$EHRec$[ebp+12], ebx
  00049	e8 00 00 00 00	 call	 ??$_Uninit_copy@V?$_Vector_const_iterator@V?$_Vector_val@UtagNamedTitleGrade@@V?$allocator@UtagNamedTitleGrade@@@std@@@std@@@std@@PAUtagNamedTitleGrade@@V?$allocator@UtagNamedTitleGrade@@@2@@std@@YAPAUtagNamedTitleGrade@@V?$_Vector_const_iterator@V?$_Vector_val@UtagNamedTitleGrade@@V?$allocator@UtagNamedTitleGrade@@@std@@@std@@@0@0PAU1@AAV?$allocator@UtagNamedTitleGrade@@@0@U_Nonscalar_ptr_iterator_tag@0@@Z ; std::_Uninit_copy<std::_Vector_const_iterator<std::_Vector_val<tagNamedTitleGrade,std::allocator<tagNamedTitleGrade> > >,tagNamedTitleGrade *,std::allocator<tagNamedTitleGrade> >
  0004e	83 c4 14	 add	 esp, 20			; 00000014H
  00051	89 46 04	 mov	 DWORD PTR [esi+4], eax
$LN7@vector:

; 543  : 			_CATCH_END
; 544  : 		}

  00054	8b c6		 mov	 eax, esi
  00056	e8 00 00 00 00	 call	 __EH_epilog3
  0005b	c2 04 00	 ret	 4
__catch$??0?$vector@UtagNamedTitleGrade@@V?$allocator@UtagNamedTitleGrade@@@std@@@std@@QAE@ABV01@@Z$0:

; 540  : 			_CATCH_ALL
; 541  : 			_Tidy();

  0005e	8b 4d ec	 mov	 ecx, DWORD PTR _this$[ebp]
  00061	e8 00 00 00 00	 call	 ?_Tidy@?$vector@UtagNamedTitleGrade@@V?$allocator@UtagNamedTitleGrade@@@std@@@std@@IAEXXZ ; std::vector<tagNamedTitleGrade,std::allocator<tagNamedTitleGrade> >::_Tidy

; 542  : 			_RERAISE;

  00066	33 db		 xor	 ebx, ebx
  00068	53		 push	 ebx
  00069	53		 push	 ebx
  0006a	e8 00 00 00 00	 call	 __CxxThrowException@8
$LN38@vector:
$LN37@vector:
  0006f	cc		 int	 3
_TEXT	ENDS
;	COMDAT text$x
text$x	SEGMENT
__ehhandler$??0?$vector@UtagNamedTitleGrade@@V?$allocator@UtagNamedTitleGrade@@@std@@@std@@QAE@ABV01@@Z:
  00000	8b 54 24 08	 mov	 edx, DWORD PTR [esp+8]
  00004	8d 42 0c	 lea	 eax, DWORD PTR [edx+12]
  00007	8b 4a e8	 mov	 ecx, DWORD PTR [edx-24]
  0000a	33 c8		 xor	 ecx, eax
  0000c	e8 00 00 00 00	 call	 @__security_check_cookie@4
  00011	b8 00 00 00 00	 mov	 eax, OFFSET __ehfuncinfo$??0?$vector@UtagNamedTitleGrade@@V?$allocator@UtagNamedTitleGrade@@@std@@@std@@QAE@ABV01@@Z
  00016	e9 00 00 00 00	 jmp	 ___CxxFrameHandler3
text$x	ENDS
??0?$vector@UtagNamedTitleGrade@@V?$allocator@UtagNamedTitleGrade@@@std@@@std@@QAE@ABV01@@Z ENDP ; std::vector<tagNamedTitleGrade,std::allocator<tagNamedTitleGrade> >::vector<tagNamedTitleGrade,std::allocator<tagNamedTitleGrade> >
PUBLIC	??1?$vector@UtagNamedTitleGrade@@V?$allocator@UtagNamedTitleGrade@@@std@@@std@@QAE@XZ ; std::vector<tagNamedTitleGrade,std::allocator<tagNamedTitleGrade> >::~vector<tagNamedTitleGrade,std::allocator<tagNamedTitleGrade> >
; Function compile flags: /Ogsp
;	COMDAT ??1?$vector@UtagNamedTitleGrade@@V?$allocator@UtagNamedTitleGrade@@@std@@@std@@QAE@XZ
_TEXT	SEGMENT
??1?$vector@UtagNamedTitleGrade@@V?$allocator@UtagNamedTitleGrade@@@std@@@std@@QAE@XZ PROC ; std::vector<tagNamedTitleGrade,std::allocator<tagNamedTitleGrade> >::~vector<tagNamedTitleGrade,std::allocator<tagNamedTitleGrade> >, COMDAT
; _this$ = ecx

; 705  : 		_Tidy();

  00000	e9 00 00 00 00	 jmp	 ?_Tidy@?$vector@UtagNamedTitleGrade@@V?$allocator@UtagNamedTitleGrade@@@std@@@std@@IAEXXZ ; std::vector<tagNamedTitleGrade,std::allocator<tagNamedTitleGrade> >::_Tidy
??1?$vector@UtagNamedTitleGrade@@V?$allocator@UtagNamedTitleGrade@@@std@@@std@@QAE@XZ ENDP ; std::vector<tagNamedTitleGrade,std::allocator<tagNamedTitleGrade> >::~vector<tagNamedTitleGrade,std::allocator<tagNamedTitleGrade> >
_TEXT	ENDS
PUBLIC	?clear@?$vector@UtagNamedTitleGrade@@V?$allocator@UtagNamedTitleGrade@@@std@@@std@@QAEXXZ ; std::vector<tagNamedTitleGrade,std::allocator<tagNamedTitleGrade> >::clear
; Function compile flags: /Ogsp
;	COMDAT ?clear@?$vector@UtagNamedTitleGrade@@V?$allocator@UtagNamedTitleGrade@@@std@@@std@@QAEXXZ
_TEXT	SEGMENT
$T539764 = -4						; size = 4
?clear@?$vector@UtagNamedTitleGrade@@V?$allocator@UtagNamedTitleGrade@@@std@@@std@@QAEXXZ PROC ; std::vector<tagNamedTitleGrade,std::allocator<tagNamedTitleGrade> >::clear, COMDAT
; _this$ = ecx

; 1217 : 		{	// erase all

  00000	55		 push	 ebp
  00001	8b ec		 mov	 ebp, esp
  00003	51		 push	 ecx

; 1218 : 		erase(begin(), end());

  00004	8b 41 04	 mov	 eax, DWORD PTR [ecx+4]
  00007	8b 11		 mov	 edx, DWORD PTR [ecx]
  00009	50		 push	 eax
  0000a	52		 push	 edx
  0000b	8d 45 fc	 lea	 eax, DWORD PTR $T539764[ebp]
  0000e	50		 push	 eax
  0000f	e8 00 00 00 00	 call	 ?erase@?$vector@UtagNamedTitleGrade@@V?$allocator@UtagNamedTitleGrade@@@std@@@std@@QAE?AV?$_Vector_iterator@V?$_Vector_val@UtagNamedTitleGrade@@V?$allocator@UtagNamedTitleGrade@@@std@@@std@@@2@V?$_Vector_const_iterator@V?$_Vector_val@UtagNamedTitleGrade@@V?$allocator@UtagNamedTitleGrade@@@std@@@std@@@2@0@Z ; std::vector<tagNamedTitleGrade,std::allocator<tagNamedTitleGrade> >::erase

; 1219 : 		}

  00014	c9		 leave
  00015	c3		 ret	 0
?clear@?$vector@UtagNamedTitleGrade@@V?$allocator@UtagNamedTitleGrade@@@std@@@std@@QAEXXZ ENDP ; std::vector<tagNamedTitleGrade,std::allocator<tagNamedTitleGrade> >::clear
_TEXT	ENDS
PUBLIC	??1tagNamedTitleInfo@@QAE@XZ			; tagNamedTitleInfo::~tagNamedTitleInfo
;	COMDAT xdata$x
xdata$x	SEGMENT
__unwindtable$??1tagNamedTitleInfo@@QAE@XZ DD 0ffffffffH
	DD	FLAT:__unwindfunclet$??1tagNamedTitleInfo@@QAE@XZ$0
__ehfuncinfo$??1tagNamedTitleInfo@@QAE@XZ DD 019930522H
	DD	01H
	DD	FLAT:__unwindtable$??1tagNamedTitleInfo@@QAE@XZ
	DD	2 DUP(00H)
	DD	2 DUP(00H)
	DD	00H
	DD	01H
; Function compile flags: /Ogsp
xdata$x	ENDS
;	COMDAT ??1tagNamedTitleInfo@@QAE@XZ
_TEXT	SEGMENT
_this$ = -16						; size = 4
__$EHRec$ = -12						; size = 12
??1tagNamedTitleInfo@@QAE@XZ PROC			; tagNamedTitleInfo::~tagNamedTitleInfo, COMDAT
; _this$ = ecx
  00000	6a 04		 push	 4
  00002	b8 00 00 00 00	 mov	 eax, __ehhandler$??1tagNamedTitleInfo@@QAE@XZ
  00007	e8 00 00 00 00	 call	 __EH_prolog3
  0000c	8b f1		 mov	 esi, ecx
  0000e	89 75 f0	 mov	 DWORD PTR _this$[ebp], esi
  00011	83 65 fc 00	 and	 DWORD PTR __$EHRec$[ebp+8], 0
  00015	8d 4e 14	 lea	 ecx, DWORD PTR [esi+20]
  00018	e8 00 00 00 00	 call	 ?_Tidy@?$vector@UtagNamedTitleGrade@@V?$allocator@UtagNamedTitleGrade@@@std@@@std@@IAEXXZ ; std::vector<tagNamedTitleGrade,std::allocator<tagNamedTitleGrade> >::_Tidy
  0001d	83 4d fc ff	 or	 DWORD PTR __$EHRec$[ebp+8], -1
  00021	8d 4e 04	 lea	 ecx, DWORD PTR [esi+4]
  00024	ff 15 00 00 00
	00		 call	 DWORD PTR __imp_??1ioHashString@@QAE@XZ
  0002a	e8 00 00 00 00	 call	 __EH_epilog3
  0002f	c3		 ret	 0
_TEXT	ENDS
;	COMDAT text$x
text$x	SEGMENT
__unwindfunclet$??1tagNamedTitleInfo@@QAE@XZ$0:
  00000	8b 4d f0	 mov	 ecx, DWORD PTR _this$[ebp]
  00003	83 c1 04	 add	 ecx, 4
  00006	ff 25 00 00 00
	00		 jmp	 DWORD PTR __imp_??1ioHashString@@QAE@XZ
__ehhandler$??1tagNamedTitleInfo@@QAE@XZ:
  0000c	8b 54 24 08	 mov	 edx, DWORD PTR [esp+8]
  00010	8d 42 0c	 lea	 eax, DWORD PTR [edx+12]
  00013	8b 4a ec	 mov	 ecx, DWORD PTR [edx-20]
  00016	33 c8		 xor	 ecx, eax
  00018	e8 00 00 00 00	 call	 @__security_check_cookie@4
  0001d	b8 00 00 00 00	 mov	 eax, OFFSET __ehfuncinfo$??1tagNamedTitleInfo@@QAE@XZ
  00022	e9 00 00 00 00	 jmp	 ___CxxFrameHandler3
text$x	ENDS
??1tagNamedTitleInfo@@QAE@XZ ENDP			; tagNamedTitleInfo::~tagNamedTitleInfo
PUBLIC	??1?$_Pair_base@KUtagNamedTitleInfo@@@std@@QAE@XZ ; std::_Pair_base<unsigned long,tagNamedTitleInfo>::~_Pair_base<unsigned long,tagNamedTitleInfo>
; Function compile flags: /Ogsp
;	COMDAT ??1?$_Pair_base@KUtagNamedTitleInfo@@@std@@QAE@XZ
_TEXT	SEGMENT
??1?$_Pair_base@KUtagNamedTitleInfo@@@std@@QAE@XZ PROC	; std::_Pair_base<unsigned long,tagNamedTitleInfo>::~_Pair_base<unsigned long,tagNamedTitleInfo>, COMDAT
; _this$ = ecx
  00000	83 c1 04	 add	 ecx, 4
  00003	e9 00 00 00 00	 jmp	 ??1tagNamedTitleInfo@@QAE@XZ
??1?$_Pair_base@KUtagNamedTitleInfo@@@std@@QAE@XZ ENDP	; std::_Pair_base<unsigned long,tagNamedTitleInfo>::~_Pair_base<unsigned long,tagNamedTitleInfo>
_TEXT	ENDS
PUBLIC	??4?$vector@UtagNamedTitleGrade@@V?$allocator@UtagNamedTitleGrade@@@std@@@std@@QAEAAV01@ABV01@@Z ; std::vector<tagNamedTitleGrade,std::allocator<tagNamedTitleGrade> >::operator=
; Function compile flags: /Ogsp
;	COMDAT ??4?$vector@UtagNamedTitleGrade@@V?$allocator@UtagNamedTitleGrade@@@std@@@std@@QAEAAV01@ABV01@@Z
_TEXT	SEGMENT
tv551 = 8						; size = 4
__Cat$540029 = 8					; size = 1
__Cat$539992 = 8					; size = 1
__Cat$539969 = 8					; size = 1
__Cat$539938 = 8					; size = 1
$T539904 = 8						; size = 4
__Right$ = 8						; size = 4
??4?$vector@UtagNamedTitleGrade@@V?$allocator@UtagNamedTitleGrade@@@std@@@std@@QAEAAV01@ABV01@@Z PROC ; std::vector<tagNamedTitleGrade,std::allocator<tagNamedTitleGrade> >::operator=, COMDAT
; _this$ = ecx

; 709  : 		{	// assign _Right

  00000	55		 push	 ebp
  00001	8b ec		 mov	 ebp, esp
  00003	56		 push	 esi
  00004	57		 push	 edi

; 710  : 		if (this != &_Right)

  00005	8b 7d 08	 mov	 edi, DWORD PTR __Right$[ebp]
  00008	8b f1		 mov	 esi, ecx
  0000a	3b f7		 cmp	 esi, edi
  0000c	0f 84 03 01 00
	00		 je	 $LN1@operator@3

; 711  : 			{	// worth doing
; 712  : 			this->_Orphan_all();

  00012	ff 15 00 00 00
	00		 call	 DWORD PTR __imp_?_Orphan_all@_Container_base0@std@@QAEXXZ

; 713  : 
; 714  : 			if (_Right.size() == 0)

  00018	8b 47 04	 mov	 eax, DWORD PTR [edi+4]
  0001b	2b 07		 sub	 eax, DWORD PTR [edi]
  0001d	6a 14		 push	 20			; 00000014H
  0001f	99		 cdq
  00020	59		 pop	 ecx
  00021	f7 f9		 idiv	 ecx
  00023	89 45 08	 mov	 DWORD PTR tv551[ebp], eax
  00026	85 c0		 test	 eax, eax

; 715  : 				clear();	// new sequence empty, erase existing sequence

  00028	8b 46 04	 mov	 eax, DWORD PTR [esi+4]
  0002b	75 14		 jne	 SHORT $LN8@operator@3
  0002d	8b 0e		 mov	 ecx, DWORD PTR [esi]
  0002f	50		 push	 eax
  00030	51		 push	 ecx
  00031	8d 45 08	 lea	 eax, DWORD PTR $T539904[ebp]
  00034	50		 push	 eax
  00035	8b ce		 mov	 ecx, esi
  00037	e8 00 00 00 00	 call	 ?erase@?$vector@UtagNamedTitleGrade@@V?$allocator@UtagNamedTitleGrade@@@std@@@std@@QAE?AV?$_Vector_iterator@V?$_Vector_val@UtagNamedTitleGrade@@V?$allocator@UtagNamedTitleGrade@@@std@@@std@@@2@V?$_Vector_const_iterator@V?$_Vector_val@UtagNamedTitleGrade@@V?$allocator@UtagNamedTitleGrade@@@std@@@std@@@2@0@Z ; std::vector<tagNamedTitleGrade,std::allocator<tagNamedTitleGrade> >::erase

; 716  : 			else if (_Right.size() <= size())

  0003c	e9 d4 00 00 00	 jmp	 $LN1@operator@3
$LN8@operator@3:
  00041	53		 push	 ebx
  00042	8b 1e		 mov	 ebx, DWORD PTR [esi]
  00044	2b c3		 sub	 eax, ebx
  00046	6a 14		 push	 20			; 00000014H
  00048	99		 cdq
  00049	59		 pop	 ecx
  0004a	f7 f9		 idiv	 ecx
  0004c	8b c8		 mov	 ecx, eax
  0004e	39 4d 08	 cmp	 DWORD PTR tv551[ebp], ecx
  00051	77 33		 ja	 SHORT $LN6@operator@3

; 717  : 				{	// enough elements, copy new and destroy old
; 718  : 				pointer _Ptr = _STD _Copy_impl(_Right._Myfirst, _Right._Mylast,
; 719  : 					this->_Myfirst);	// copy new

  00053	ff 75 08	 push	 DWORD PTR __Cat$539938[ebp]
  00056	53		 push	 ebx
  00057	ff 77 04	 push	 DWORD PTR [edi+4]
  0005a	ff 37		 push	 DWORD PTR [edi]
  0005c	e8 00 00 00 00	 call	 ??$_Copy_impl@PAUtagNamedTitleGrade@@PAU1@@std@@YAPAUtagNamedTitleGrade@@PAU1@00U_Nonscalar_ptr_iterator_tag@0@@Z ; std::_Copy_impl<tagNamedTitleGrade *,tagNamedTitleGrade *>

; 720  : 				_Destroy(_Ptr, this->_Mylast);	// destroy old

  00061	8d 4e 0c	 lea	 ecx, DWORD PTR [esi+12]
  00064	51		 push	 ecx
  00065	ff 76 04	 push	 DWORD PTR [esi+4]
  00068	50		 push	 eax
  00069	e8 00 00 00 00	 call	 ??$_Destroy_range@V?$allocator@UtagNamedTitleGrade@@@std@@@std@@YAXPAUtagNamedTitleGrade@@0AAV?$allocator@UtagNamedTitleGrade@@@0@@Z ; std::_Destroy_range<std::allocator<tagNamedTitleGrade> >

; 721  : 				this->_Mylast = this->_Myfirst + _Right.size();

  0006e	8b 47 04	 mov	 eax, DWORD PTR [edi+4]
  00071	2b 07		 sub	 eax, DWORD PTR [edi]
  00073	83 c4 1c	 add	 esp, 28			; 0000001cH
  00076	99		 cdq
  00077	6a 14		 push	 20			; 00000014H
  00079	59		 pop	 ecx
  0007a	f7 f9		 idiv	 ecx
  0007c	6b c0 14	 imul	 eax, 20			; 00000014H
  0007f	03 06		 add	 eax, DWORD PTR [esi]

; 722  : 				}
; 723  : 			else if (_Right.size() <= capacity())

  00081	e9 8b 00 00 00	 jmp	 $LN73@operator@3
$LN6@operator@3:
  00086	8b 46 08	 mov	 eax, DWORD PTR [esi+8]
  00089	2b c3		 sub	 eax, ebx
  0008b	6a 14		 push	 20			; 00000014H
  0008d	99		 cdq
  0008e	5b		 pop	 ebx
  0008f	f7 fb		 idiv	 ebx
  00091	39 45 08	 cmp	 DWORD PTR tv551[ebp], eax
  00094	77 2e		 ja	 SHORT $LN4@operator@3

; 724  : 				{	// enough room, copy and construct new
; 725  : 				pointer _Ptr = _Right._Myfirst + size();
; 726  : 				_STD _Copy_impl(_Right._Myfirst, _Ptr, this->_Myfirst);

  00096	ff 75 08	 push	 DWORD PTR __Cat$539969[ebp]
  00099	6b c9 14	 imul	 ecx, 20			; 00000014H
  0009c	8b 07		 mov	 eax, DWORD PTR [edi]
  0009e	ff 36		 push	 DWORD PTR [esi]
  000a0	8d 1c 08	 lea	 ebx, DWORD PTR [eax+ecx]
  000a3	53		 push	 ebx
  000a4	50		 push	 eax
  000a5	e8 00 00 00 00	 call	 ??$_Copy_impl@PAUtagNamedTitleGrade@@PAU1@@std@@YAPAUtagNamedTitleGrade@@PAU1@00U_Nonscalar_ptr_iterator_tag@0@@Z ; std::_Copy_impl<tagNamedTitleGrade *,tagNamedTitleGrade *>

; 727  : 				this->_Mylast = _Ucopy(_Ptr, _Right._Mylast, this->_Mylast);

  000aa	ff 75 08	 push	 DWORD PTR __Cat$539992[ebp]
  000ad	8b 46 04	 mov	 eax, DWORD PTR [esi+4]
  000b0	8b 7f 04	 mov	 edi, DWORD PTR [edi+4]
  000b3	8d 4e 0c	 lea	 ecx, DWORD PTR [esi+12]
  000b6	51		 push	 ecx
  000b7	50		 push	 eax
  000b8	57		 push	 edi
  000b9	53		 push	 ebx
  000ba	e8 00 00 00 00	 call	 ??$_Uninit_copy@PAUtagNamedTitleGrade@@PAU1@V?$allocator@UtagNamedTitleGrade@@@std@@@std@@YAPAUtagNamedTitleGrade@@PAU1@00AAV?$allocator@UtagNamedTitleGrade@@@0@U_Nonscalar_ptr_iterator_tag@0@@Z ; std::_Uninit_copy<tagNamedTitleGrade *,tagNamedTitleGrade *,std::allocator<tagNamedTitleGrade> >
  000bf	83 c4 24	 add	 esp, 36			; 00000024H

; 728  : 				}
; 729  : 			else

  000c2	eb 4d		 jmp	 SHORT $LN73@operator@3
$LN4@operator@3:

; 730  : 				{	// not enough room, allocate new array and construct new
; 731  : 				if (this->_Myfirst != 0)

  000c4	8b 06		 mov	 eax, DWORD PTR [esi]
  000c6	85 c0		 test	 eax, eax
  000c8	74 17		 je	 SHORT $LN62@operator@3

; 732  : 					{	// discard old array
; 733  : 					_Destroy(this->_Myfirst, this->_Mylast);

  000ca	8d 4e 0c	 lea	 ecx, DWORD PTR [esi+12]
  000cd	51		 push	 ecx
  000ce	ff 76 04	 push	 DWORD PTR [esi+4]
  000d1	50		 push	 eax
  000d2	e8 00 00 00 00	 call	 ??$_Destroy_range@V?$allocator@UtagNamedTitleGrade@@@std@@@std@@YAXPAUtagNamedTitleGrade@@0AAV?$allocator@UtagNamedTitleGrade@@@0@@Z ; std::_Destroy_range<std::allocator<tagNamedTitleGrade> >

; 734  : 					this->_Alval.deallocate(this->_Myfirst,
; 735  : 						this->_Myend - this->_Myfirst);

  000d7	ff 36		 push	 DWORD PTR [esi]
  000d9	e8 00 00 00 00	 call	 ??3@YAXPAX@Z		; operator delete
  000de	83 c4 10	 add	 esp, 16			; 00000010H
$LN62@operator@3:

; 736  : 					}
; 737  : 				if (_Buy(_Right.size()))

  000e1	8b 47 04	 mov	 eax, DWORD PTR [edi+4]
  000e4	2b 07		 sub	 eax, DWORD PTR [edi]
  000e6	6a 14		 push	 20			; 00000014H
  000e8	59		 pop	 ecx
  000e9	99		 cdq
  000ea	f7 f9		 idiv	 ecx
  000ec	8b ce		 mov	 ecx, esi
  000ee	50		 push	 eax
  000ef	e8 00 00 00 00	 call	 ?_Buy@?$vector@UtagNamedTitleGrade@@V?$allocator@UtagNamedTitleGrade@@@std@@@std@@IAE_NI@Z ; std::vector<tagNamedTitleGrade,std::allocator<tagNamedTitleGrade> >::_Buy
  000f4	84 c0		 test	 al, al
  000f6	74 1c		 je	 SHORT $LN72@operator@3

; 738  : 					this->_Mylast = _Ucopy(_Right._Myfirst, _Right._Mylast,
; 739  : 						this->_Myfirst);

  000f8	ff 75 08	 push	 DWORD PTR __Cat$540029[ebp]
  000fb	8b 06		 mov	 eax, DWORD PTR [esi]
  000fd	8b 4f 04	 mov	 ecx, DWORD PTR [edi+4]
  00100	8b 3f		 mov	 edi, DWORD PTR [edi]
  00102	8d 56 0c	 lea	 edx, DWORD PTR [esi+12]
  00105	52		 push	 edx
  00106	50		 push	 eax
  00107	51		 push	 ecx
  00108	57		 push	 edi
  00109	e8 00 00 00 00	 call	 ??$_Uninit_copy@PAUtagNamedTitleGrade@@PAU1@V?$allocator@UtagNamedTitleGrade@@@std@@@std@@YAPAUtagNamedTitleGrade@@PAU1@00AAV?$allocator@UtagNamedTitleGrade@@@0@U_Nonscalar_ptr_iterator_tag@0@@Z ; std::_Uninit_copy<tagNamedTitleGrade *,tagNamedTitleGrade *,std::allocator<tagNamedTitleGrade> >
  0010e	83 c4 14	 add	 esp, 20			; 00000014H
$LN73@operator@3:
  00111	89 46 04	 mov	 DWORD PTR [esi+4], eax
$LN72@operator@3:
  00114	5b		 pop	 ebx
$LN1@operator@3:
  00115	5f		 pop	 edi

; 740  : 				}
; 741  : 			}
; 742  : 		return (*this);

  00116	8b c6		 mov	 eax, esi
  00118	5e		 pop	 esi

; 743  : 		}

  00119	5d		 pop	 ebp
  0011a	c2 04 00	 ret	 4
??4?$vector@UtagNamedTitleGrade@@V?$allocator@UtagNamedTitleGrade@@@std@@@std@@QAEAAV01@ABV01@@Z ENDP ; std::vector<tagNamedTitleGrade,std::allocator<tagNamedTitleGrade> >::operator=
_TEXT	ENDS
PUBLIC	?push_back@?$vector@UtagNamedTitleGrade@@V?$allocator@UtagNamedTitleGrade@@@std@@@std@@QAEXABUtagNamedTitleGrade@@@Z ; std::vector<tagNamedTitleGrade,std::allocator<tagNamedTitleGrade> >::push_back
; Function compile flags: /Ogsp
;	COMDAT ?push_back@?$vector@UtagNamedTitleGrade@@V?$allocator@UtagNamedTitleGrade@@@std@@@std@@QAEXABUtagNamedTitleGrade@@@Z
_TEXT	SEGMENT
__Val$ = 8						; size = 4
?push_back@?$vector@UtagNamedTitleGrade@@V?$allocator@UtagNamedTitleGrade@@@std@@@std@@QAEXABUtagNamedTitleGrade@@@Z PROC ; std::vector<tagNamedTitleGrade,std::allocator<tagNamedTitleGrade> >::push_back, COMDAT
; _this$ = ecx

; 976  : 		{	// insert element at end

  00000	55		 push	 ebp
  00001	8b ec		 mov	 ebp, esp
  00003	56		 push	 esi
  00004	8b f1		 mov	 esi, ecx

; 977  : 		if (_Inside(_STD addressof(_Val)))

  00006	8b 4e 04	 mov	 ecx, DWORD PTR [esi+4]
  00009	57		 push	 edi
  0000a	8b 7d 08	 mov	 edi, DWORD PTR __Val$[ebp]
  0000d	3b f9		 cmp	 edi, ecx
  0000f	73 33		 jae	 SHORT $LN4@push_back
  00011	8b 16		 mov	 edx, DWORD PTR [esi]
  00013	3b d7		 cmp	 edx, edi
  00015	77 2d		 ja	 SHORT $LN4@push_back

; 978  : 			{	// push back an element
; 979  : 			size_type _Idx = _STD addressof(_Val) - this->_Myfirst;

  00017	8b c7		 mov	 eax, edi
  00019	2b c2		 sub	 eax, edx
  0001b	6a 14		 push	 20			; 00000014H
  0001d	99		 cdq
  0001e	5f		 pop	 edi
  0001f	f7 ff		 idiv	 edi
  00021	8b f8		 mov	 edi, eax

; 980  : 			if (this->_Mylast == this->_Myend)

  00023	3b 4e 08	 cmp	 ecx, DWORD PTR [esi+8]
  00026	75 09		 jne	 SHORT $LN3@push_back

; 981  : 				_Reserve(1);

  00028	6a 01		 push	 1
  0002a	8b ce		 mov	 ecx, esi
  0002c	e8 00 00 00 00	 call	 ?_Reserve@?$vector@UtagNamedTitleGrade@@V?$allocator@UtagNamedTitleGrade@@@std@@@std@@IAEXI@Z ; std::vector<tagNamedTitleGrade,std::allocator<tagNamedTitleGrade> >::_Reserve
$LN3@push_back:

; 982  : 			_Orphan_range(this->_Mylast, this->_Mylast);
; 983  : 			_Cons_val(this->_Alval,
; 984  : 				this->_Mylast,
; 985  : 				this->_Myfirst[_Idx]);

  00031	6b ff 14	 imul	 edi, 20			; 00000014H
  00034	03 3e		 add	 edi, DWORD PTR [esi]
  00036	8d 4e 0c	 lea	 ecx, DWORD PTR [esi+12]
  00039	57		 push	 edi
  0003a	ff 76 04	 push	 DWORD PTR [esi+4]
  0003d	e8 00 00 00 00	 call	 ??$construct@AAUtagNamedTitleGrade@@@?$allocator@UtagNamedTitleGrade@@@std@@QAEXPAUtagNamedTitleGrade@@AAU2@@Z ; std::allocator<tagNamedTitleGrade>::construct<tagNamedTitleGrade &>

; 986  : 			++this->_Mylast;
; 987  : 			}
; 988  : 		else

  00042	eb 19		 jmp	 SHORT $LN30@push_back
$LN4@push_back:

; 989  : 			{	// push back a non-element
; 990  : 			if (this->_Mylast == this->_Myend)

  00044	3b 4e 08	 cmp	 ecx, DWORD PTR [esi+8]
  00047	75 09		 jne	 SHORT $LN1@push_back

; 991  : 				_Reserve(1);

  00049	6a 01		 push	 1
  0004b	8b ce		 mov	 ecx, esi
  0004d	e8 00 00 00 00	 call	 ?_Reserve@?$vector@UtagNamedTitleGrade@@V?$allocator@UtagNamedTitleGrade@@@std@@@std@@IAEXI@Z ; std::vector<tagNamedTitleGrade,std::allocator<tagNamedTitleGrade> >::_Reserve
$LN1@push_back:

; 992  : 			_Orphan_range(this->_Mylast, this->_Mylast);
; 993  : 			_Cons_val(this->_Alval,
; 994  : 				this->_Mylast,
; 995  : 				_Val);

  00052	57		 push	 edi
  00053	ff 76 04	 push	 DWORD PTR [esi+4]
  00056	e8 00 00 00 00	 call	 ??$_Construct@UtagNamedTitleGrade@@ABU1@@std@@YAXPAUtagNamedTitleGrade@@ABU1@@Z ; std::_Construct<tagNamedTitleGrade,tagNamedTitleGrade const &>
  0005b	59		 pop	 ecx
  0005c	59		 pop	 ecx
$LN30@push_back:

; 996  : 			++this->_Mylast;

  0005d	83 46 04 14	 add	 DWORD PTR [esi+4], 20	; 00000014H
  00061	5f		 pop	 edi
  00062	5e		 pop	 esi

; 997  : 			}
; 998  : 		}

  00063	5d		 pop	 ebp
  00064	c2 04 00	 ret	 4
?push_back@?$vector@UtagNamedTitleGrade@@V?$allocator@UtagNamedTitleGrade@@@std@@@std@@QAEXABUtagNamedTitleGrade@@@Z ENDP ; std::vector<tagNamedTitleGrade,std::allocator<tagNamedTitleGrade> >::push_back
_TEXT	ENDS
PUBLIC	??1?$_Pair_base@$$CBKUtagNamedTitleInfo@@@std@@QAE@XZ ; std::_Pair_base<unsigned long const ,tagNamedTitleInfo>::~_Pair_base<unsigned long const ,tagNamedTitleInfo>
; Function compile flags: /Ogsp
;	COMDAT ??1?$_Pair_base@$$CBKUtagNamedTitleInfo@@@std@@QAE@XZ
_TEXT	SEGMENT
??1?$_Pair_base@$$CBKUtagNamedTitleInfo@@@std@@QAE@XZ PROC ; std::_Pair_base<unsigned long const ,tagNamedTitleInfo>::~_Pair_base<unsigned long const ,tagNamedTitleInfo>, COMDAT
; _this$ = ecx
  00000	83 c1 04	 add	 ecx, 4
  00003	e9 00 00 00 00	 jmp	 ??1tagNamedTitleInfo@@QAE@XZ
??1?$_Pair_base@$$CBKUtagNamedTitleInfo@@@std@@QAE@XZ ENDP ; std::_Pair_base<unsigned long const ,tagNamedTitleInfo>::~_Pair_base<unsigned long const ,tagNamedTitleInfo>
_TEXT	ENDS
PUBLIC	??0tagNamedTitleInfo@@QAE@ABU0@@Z		; tagNamedTitleInfo::tagNamedTitleInfo
;	COMDAT xdata$x
xdata$x	SEGMENT
__unwindtable$??0tagNamedTitleInfo@@QAE@ABU0@@Z DD 0ffffffffH
	DD	FLAT:__unwindfunclet$??0tagNamedTitleInfo@@QAE@ABU0@@Z$0
__ehfuncinfo$??0tagNamedTitleInfo@@QAE@ABU0@@Z DD 019930522H
	DD	01H
	DD	FLAT:__unwindtable$??0tagNamedTitleInfo@@QAE@ABU0@@Z
	DD	2 DUP(00H)
	DD	2 DUP(00H)
	DD	00H
	DD	01H
; Function compile flags: /Ogsp
xdata$x	ENDS
;	COMDAT ??0tagNamedTitleInfo@@QAE@ABU0@@Z
_TEXT	SEGMENT
_this$ = -16						; size = 4
__$EHRec$ = -12						; size = 12
___that$ = 8						; size = 4
??0tagNamedTitleInfo@@QAE@ABU0@@Z PROC			; tagNamedTitleInfo::tagNamedTitleInfo, COMDAT
; _this$ = ecx
  00000	6a 04		 push	 4
  00002	b8 00 00 00 00	 mov	 eax, __ehhandler$??0tagNamedTitleInfo@@QAE@ABU0@@Z
  00007	e8 00 00 00 00	 call	 __EH_prolog3
  0000c	8b f1		 mov	 esi, ecx
  0000e	89 75 f0	 mov	 DWORD PTR _this$[ebp], esi
  00011	8b 7d 08	 mov	 edi, DWORD PTR ___that$[ebp]
  00014	8b 07		 mov	 eax, DWORD PTR [edi]
  00016	89 06		 mov	 DWORD PTR [esi], eax
  00018	8d 47 04	 lea	 eax, DWORD PTR [edi+4]
  0001b	50		 push	 eax
  0001c	8d 4e 04	 lea	 ecx, DWORD PTR [esi+4]
  0001f	ff 15 00 00 00
	00		 call	 DWORD PTR __imp_??0ioHashString@@QAE@ABV0@@Z
  00025	83 65 fc 00	 and	 DWORD PTR __$EHRec$[ebp+8], 0
  00029	83 c7 14	 add	 edi, 20			; 00000014H
  0002c	57		 push	 edi
  0002d	8d 4e 14	 lea	 ecx, DWORD PTR [esi+20]
  00030	e8 00 00 00 00	 call	 ??0?$vector@UtagNamedTitleGrade@@V?$allocator@UtagNamedTitleGrade@@@std@@@std@@QAE@ABV01@@Z ; std::vector<tagNamedTitleGrade,std::allocator<tagNamedTitleGrade> >::vector<tagNamedTitleGrade,std::allocator<tagNamedTitleGrade> >
  00035	8b c6		 mov	 eax, esi
  00037	e8 00 00 00 00	 call	 __EH_epilog3
  0003c	c2 04 00	 ret	 4
_TEXT	ENDS
;	COMDAT text$x
text$x	SEGMENT
__unwindfunclet$??0tagNamedTitleInfo@@QAE@ABU0@@Z$0:
  00000	8b 4d f0	 mov	 ecx, DWORD PTR _this$[ebp]
  00003	83 c1 04	 add	 ecx, 4
  00006	ff 25 00 00 00
	00		 jmp	 DWORD PTR __imp_??1ioHashString@@QAE@XZ
__ehhandler$??0tagNamedTitleInfo@@QAE@ABU0@@Z:
  0000c	8b 54 24 08	 mov	 edx, DWORD PTR [esp+8]
  00010	8d 42 0c	 lea	 eax, DWORD PTR [edx+12]
  00013	8b 4a ec	 mov	 ecx, DWORD PTR [edx-20]
  00016	33 c8		 xor	 ecx, eax
  00018	e8 00 00 00 00	 call	 @__security_check_cookie@4
  0001d	b8 00 00 00 00	 mov	 eax, OFFSET __ehfuncinfo$??0tagNamedTitleInfo@@QAE@ABU0@@Z
  00022	e9 00 00 00 00	 jmp	 ___CxxFrameHandler3
text$x	ENDS
??0tagNamedTitleInfo@@QAE@ABU0@@Z ENDP			; tagNamedTitleInfo::tagNamedTitleInfo
PUBLIC	??$?0KUtagNamedTitleInfo@@@?$_Pair_base@$$CBKUtagNamedTitleInfo@@@std@@QAE@$$QAK$$QAUtagNamedTitleInfo@@@Z ; std::_Pair_base<unsigned long const ,tagNamedTitleInfo>::_Pair_base<unsigned long const ,tagNamedTitleInfo><unsigned long,tagNamedTitleInfo>
; Function compile flags: /Ogsp
; File c:\program files (x86)\microsoft visual studio 10.0\vc\include\utility
;	COMDAT ??$?0KUtagNamedTitleInfo@@@?$_Pair_base@$$CBKUtagNamedTitleInfo@@@std@@QAE@$$QAK$$QAUtagNamedTitleInfo@@@Z
_TEXT	SEGMENT
__Val1$ = 8						; size = 4
__Val2$ = 12						; size = 4
??$?0KUtagNamedTitleInfo@@@?$_Pair_base@$$CBKUtagNamedTitleInfo@@@std@@QAE@$$QAK$$QAUtagNamedTitleInfo@@@Z PROC ; std::_Pair_base<unsigned long const ,tagNamedTitleInfo>::_Pair_base<unsigned long const ,tagNamedTitleInfo><unsigned long,tagNamedTitleInfo>, COMDAT
; _this$ = ecx

; 163  : 		{	// construct from moved values

  00000	55		 push	 ebp
  00001	8b ec		 mov	 ebp, esp
  00003	8b 45 08	 mov	 eax, DWORD PTR __Val1$[ebp]
  00006	8b 00		 mov	 eax, DWORD PTR [eax]
  00008	56		 push	 esi
  00009	ff 75 0c	 push	 DWORD PTR __Val2$[ebp]
  0000c	8b f1		 mov	 esi, ecx
  0000e	8d 4e 04	 lea	 ecx, DWORD PTR [esi+4]
  00011	89 06		 mov	 DWORD PTR [esi], eax
  00013	e8 00 00 00 00	 call	 ??0tagNamedTitleInfo@@QAE@ABU0@@Z

; 164  : 		}

  00018	8b c6		 mov	 eax, esi
  0001a	5e		 pop	 esi
  0001b	5d		 pop	 ebp
  0001c	c2 08 00	 ret	 8
??$?0KUtagNamedTitleInfo@@@?$_Pair_base@$$CBKUtagNamedTitleInfo@@@std@@QAE@$$QAK$$QAUtagNamedTitleInfo@@@Z ENDP ; std::_Pair_base<unsigned long const ,tagNamedTitleInfo>::_Pair_base<unsigned long const ,tagNamedTitleInfo><unsigned long,tagNamedTitleInfo>
_TEXT	ENDS
PUBLIC	?Init@tagNamedTitleInfo@@QAEXXZ			; tagNamedTitleInfo::Init
; Function compile flags: /Ogsp
; File d:\lost saga for developer\youtube\tutorial\source\src\lsclient\namedtitleenumtype.h
;	COMDAT ?Init@tagNamedTitleInfo@@QAEXXZ
_TEXT	SEGMENT
$T540170 = -4						; size = 4
?Init@tagNamedTitleInfo@@QAEXXZ PROC			; tagNamedTitleInfo::Init, COMDAT
; _this$ = ecx

; 38   : 	{

  00000	55		 push	 ebp
  00001	8b ec		 mov	 ebp, esp
  00003	51		 push	 ecx
  00004	56		 push	 esi
  00005	8b f1		 mov	 esi, ecx

; 39   : 		m_dwCode = 0;

  00007	83 26 00	 and	 DWORD PTR [esi], 0

; 40   : 		m_szName.Clear();

  0000a	8d 4e 04	 lea	 ecx, DWORD PTR [esi+4]
  0000d	ff 15 00 00 00
	00		 call	 DWORD PTR __imp_?Clear@ioHashString@@QAEXXZ

; 41   : 		m_GradeList.clear();

  00013	8d 4e 14	 lea	 ecx, DWORD PTR [esi+20]
  00016	8b 41 04	 mov	 eax, DWORD PTR [ecx+4]
  00019	8b 11		 mov	 edx, DWORD PTR [ecx]
  0001b	50		 push	 eax
  0001c	52		 push	 edx
  0001d	8d 45 fc	 lea	 eax, DWORD PTR $T540170[ebp]
  00020	50		 push	 eax
  00021	e8 00 00 00 00	 call	 ?erase@?$vector@UtagNamedTitleGrade@@V?$allocator@UtagNamedTitleGrade@@@std@@@std@@QAE?AV?$_Vector_iterator@V?$_Vector_val@UtagNamedTitleGrade@@V?$allocator@UtagNamedTitleGrade@@@std@@@std@@@2@V?$_Vector_const_iterator@V?$_Vector_val@UtagNamedTitleGrade@@V?$allocator@UtagNamedTitleGrade@@@std@@@std@@@2@0@Z ; std::vector<tagNamedTitleGrade,std::allocator<tagNamedTitleGrade> >::erase
  00026	5e		 pop	 esi

; 42   : 	}

  00027	c9		 leave
  00028	c3		 ret	 0
?Init@tagNamedTitleInfo@@QAEXXZ ENDP			; tagNamedTitleInfo::Init
_TEXT	ENDS
PUBLIC	??0tagNamedTitleInfo@@QAE@XZ			; tagNamedTitleInfo::tagNamedTitleInfo
;	COMDAT xdata$x
; File c:\program files (x86)\microsoft visual studio 10.0\vc\include\xmemory
xdata$x	SEGMENT
__unwindtable$??0tagNamedTitleInfo@@QAE@XZ DD 0ffffffffH
	DD	FLAT:__unwindfunclet$??0tagNamedTitleInfo@@QAE@XZ$0
	DD	00H
	DD	FLAT:__unwindfunclet$??0tagNamedTitleInfo@@QAE@XZ$1
__ehfuncinfo$??0tagNamedTitleInfo@@QAE@XZ DD 019930522H
	DD	02H
	DD	FLAT:__unwindtable$??0tagNamedTitleInfo@@QAE@XZ
	DD	2 DUP(00H)
	DD	2 DUP(00H)
	DD	00H
	DD	01H
; Function compile flags: /Ogsp
; File d:\lost saga for developer\youtube\tutorial\source\src\lsclient\namedtitleenumtype.h
xdata$x	ENDS
;	COMDAT ??0tagNamedTitleInfo@@QAE@XZ
_TEXT	SEGMENT
_this$ = -16						; size = 4
__$EHRec$ = -12						; size = 12
??0tagNamedTitleInfo@@QAE@XZ PROC			; tagNamedTitleInfo::tagNamedTitleInfo, COMDAT
; _this$ = ecx

; 44   : 	tagNamedTitleInfo()

  00000	6a 04		 push	 4
  00002	b8 00 00 00 00	 mov	 eax, __ehhandler$??0tagNamedTitleInfo@@QAE@XZ
  00007	e8 00 00 00 00	 call	 __EH_prolog3
  0000c	8b f1		 mov	 esi, ecx
  0000e	89 75 f0	 mov	 DWORD PTR _this$[ebp], esi
  00011	8d 4e 04	 lea	 ecx, DWORD PTR [esi+4]
  00014	ff 15 00 00 00
	00		 call	 DWORD PTR __imp_??0ioHashString@@QAE@XZ
  0001a	33 c0		 xor	 eax, eax
  0001c	89 45 fc	 mov	 DWORD PTR __$EHRec$[ebp+8], eax
  0001f	89 46 14	 mov	 DWORD PTR [esi+20], eax
  00022	89 46 18	 mov	 DWORD PTR [esi+24], eax
  00025	89 46 1c	 mov	 DWORD PTR [esi+28], eax

; 45   : 	{
; 46   : 		Init();

  00028	8b ce		 mov	 ecx, esi
  0002a	c6 45 fc 01	 mov	 BYTE PTR __$EHRec$[ebp+8], 1
  0002e	e8 00 00 00 00	 call	 ?Init@tagNamedTitleInfo@@QAEXXZ ; tagNamedTitleInfo::Init

; 47   : 	}

  00033	8b c6		 mov	 eax, esi
  00035	e8 00 00 00 00	 call	 __EH_epilog3
  0003a	c3		 ret	 0
_TEXT	ENDS
;	COMDAT text$x
text$x	SEGMENT
__unwindfunclet$??0tagNamedTitleInfo@@QAE@XZ$0:
  00000	8b 4d f0	 mov	 ecx, DWORD PTR _this$[ebp]
  00003	83 c1 04	 add	 ecx, 4
  00006	ff 25 00 00 00
	00		 jmp	 DWORD PTR __imp_??1ioHashString@@QAE@XZ
__unwindfunclet$??0tagNamedTitleInfo@@QAE@XZ$1:
  0000c	8b 4d f0	 mov	 ecx, DWORD PTR _this$[ebp]
  0000f	83 c1 14	 add	 ecx, 20			; 00000014H
  00012	e9 00 00 00 00	 jmp	 ??1?$vector@UtagNamedTitleGrade@@V?$allocator@UtagNamedTitleGrade@@@std@@@std@@QAE@XZ ; std::vector<tagNamedTitleGrade,std::allocator<tagNamedTitleGrade> >::~vector<tagNamedTitleGrade,std::allocator<tagNamedTitleGrade> >
__ehhandler$??0tagNamedTitleInfo@@QAE@XZ:
  00017	8b 54 24 08	 mov	 edx, DWORD PTR [esp+8]
  0001b	8d 42 0c	 lea	 eax, DWORD PTR [edx+12]
  0001e	8b 4a ec	 mov	 ecx, DWORD PTR [edx-20]
  00021	33 c8		 xor	 ecx, eax
  00023	e8 00 00 00 00	 call	 @__security_check_cookie@4
  00028	b8 00 00 00 00	 mov	 eax, OFFSET __ehfuncinfo$??0tagNamedTitleInfo@@QAE@XZ
  0002d	e9 00 00 00 00	 jmp	 ___CxxFrameHandler3
text$x	ENDS
??0tagNamedTitleInfo@@QAE@XZ ENDP			; tagNamedTitleInfo::tagNamedTitleInfo
PUBLIC	??1?$pair@KUtagNamedTitleInfo@@@std@@QAE@XZ	; std::pair<unsigned long,tagNamedTitleInfo>::~pair<unsigned long,tagNamedTitleInfo>
; Function compile flags: /Ogsp
;	COMDAT ??1?$pair@KUtagNamedTitleInfo@@@std@@QAE@XZ
_TEXT	SEGMENT
??1?$pair@KUtagNamedTitleInfo@@@std@@QAE@XZ PROC	; std::pair<unsigned long,tagNamedTitleInfo>::~pair<unsigned long,tagNamedTitleInfo>, COMDAT
; _this$ = ecx
  00000	83 c1 04	 add	 ecx, 4
  00003	e9 00 00 00 00	 jmp	 ??1tagNamedTitleInfo@@QAE@XZ
??1?$pair@KUtagNamedTitleInfo@@@std@@QAE@XZ ENDP	; std::pair<unsigned long,tagNamedTitleInfo>::~pair<unsigned long,tagNamedTitleInfo>
_TEXT	ENDS
PUBLIC	??4tagNamedTitleInfo@@QAEAAU0@ABU0@@Z		; tagNamedTitleInfo::operator=
; Function compile flags: /Ogsp
;	COMDAT ??4tagNamedTitleInfo@@QAEAAU0@ABU0@@Z
_TEXT	SEGMENT
___that$ = 8						; size = 4
??4tagNamedTitleInfo@@QAEAAU0@ABU0@@Z PROC		; tagNamedTitleInfo::operator=, COMDAT
; _this$ = ecx
  00000	55		 push	 ebp
  00001	8b ec		 mov	 ebp, esp
  00003	56		 push	 esi
  00004	57		 push	 edi
  00005	8b 7d 08	 mov	 edi, DWORD PTR ___that$[ebp]
  00008	8b 07		 mov	 eax, DWORD PTR [edi]
  0000a	8b f1		 mov	 esi, ecx
  0000c	89 06		 mov	 DWORD PTR [esi], eax
  0000e	8d 47 04	 lea	 eax, DWORD PTR [edi+4]
  00011	50		 push	 eax
  00012	8d 4e 04	 lea	 ecx, DWORD PTR [esi+4]
  00015	ff 15 00 00 00
	00		 call	 DWORD PTR __imp_??4ioHashString@@QAEAAV0@ABV0@@Z
  0001b	83 c7 14	 add	 edi, 20			; 00000014H
  0001e	57		 push	 edi
  0001f	8d 4e 14	 lea	 ecx, DWORD PTR [esi+20]
  00022	e8 00 00 00 00	 call	 ??4?$vector@UtagNamedTitleGrade@@V?$allocator@UtagNamedTitleGrade@@@std@@@std@@QAEAAV01@ABV01@@Z ; std::vector<tagNamedTitleGrade,std::allocator<tagNamedTitleGrade> >::operator=
  00027	5f		 pop	 edi
  00028	8b c6		 mov	 eax, esi
  0002a	5e		 pop	 esi
  0002b	5d		 pop	 ebp
  0002c	c2 04 00	 ret	 4
??4tagNamedTitleInfo@@QAEAAU0@ABU0@@Z ENDP		; tagNamedTitleInfo::operator=
_TEXT	ENDS
PUBLIC	??1?$pair@$$CBKUtagNamedTitleInfo@@@std@@QAE@XZ	; std::pair<unsigned long const ,tagNamedTitleInfo>::~pair<unsigned long const ,tagNamedTitleInfo>
; Function compile flags: /Ogsp
;	COMDAT ??1?$pair@$$CBKUtagNamedTitleInfo@@@std@@QAE@XZ
_TEXT	SEGMENT
??1?$pair@$$CBKUtagNamedTitleInfo@@@std@@QAE@XZ PROC	; std::pair<unsigned long const ,tagNamedTitleInfo>::~pair<unsigned long const ,tagNamedTitleInfo>, COMDAT
; _this$ = ecx
  00000	83 c1 04	 add	 ecx, 4
  00003	e9 00 00 00 00	 jmp	 ??1tagNamedTitleInfo@@QAE@XZ
??1?$pair@$$CBKUtagNamedTitleInfo@@@std@@QAE@XZ ENDP	; std::pair<unsigned long const ,tagNamedTitleInfo>::~pair<unsigned long const ,tagNamedTitleInfo>
_TEXT	ENDS
PUBLIC	??$?0AAKAAUtagNamedTitleInfo@@@?$_Pair_base@KUtagNamedTitleInfo@@@std@@QAE@AAKAAUtagNamedTitleInfo@@@Z ; std::_Pair_base<unsigned long,tagNamedTitleInfo>::_Pair_base<unsigned long,tagNamedTitleInfo><unsigned long &,tagNamedTitleInfo &>
; Function compile flags: /Ogsp
; File c:\program files (x86)\microsoft visual studio 10.0\vc\include\utility
;	COMDAT ??$?0AAKAAUtagNamedTitleInfo@@@?$_Pair_base@KUtagNamedTitleInfo@@@std@@QAE@AAKAAUtagNamedTitleInfo@@@Z
_TEXT	SEGMENT
__Val1$ = 8						; size = 4
__Val2$ = 12						; size = 4
??$?0AAKAAUtagNamedTitleInfo@@@?$_Pair_base@KUtagNamedTitleInfo@@@std@@QAE@AAKAAUtagNamedTitleInfo@@@Z PROC ; std::_Pair_base<unsigned long,tagNamedTitleInfo>::_Pair_base<unsigned long,tagNamedTitleInfo><unsigned long &,tagNamedTitleInfo &>, COMDAT
; _this$ = ecx

; 163  : 		{	// construct from moved values

  00000	55		 push	 ebp
  00001	8b ec		 mov	 ebp, esp
  00003	8b 45 08	 mov	 eax, DWORD PTR __Val1$[ebp]
  00006	8b 00		 mov	 eax, DWORD PTR [eax]
  00008	56		 push	 esi
  00009	ff 75 0c	 push	 DWORD PTR __Val2$[ebp]
  0000c	8b f1		 mov	 esi, ecx
  0000e	8d 4e 04	 lea	 ecx, DWORD PTR [esi+4]
  00011	89 06		 mov	 DWORD PTR [esi], eax
  00013	e8 00 00 00 00	 call	 ??0tagNamedTitleInfo@@QAE@ABU0@@Z

; 164  : 		}

  00018	8b c6		 mov	 eax, esi
  0001a	5e		 pop	 esi
  0001b	5d		 pop	 ebp
  0001c	c2 08 00	 ret	 8
??$?0AAKAAUtagNamedTitleInfo@@@?$_Pair_base@KUtagNamedTitleInfo@@@std@@QAE@AAKAAUtagNamedTitleInfo@@@Z ENDP ; std::_Pair_base<unsigned long,tagNamedTitleInfo>::_Pair_base<unsigned long,tagNamedTitleInfo><unsigned long &,tagNamedTitleInfo &>
_TEXT	ENDS
PUBLIC	??$?0KUtagNamedTitleInfo@@@?$pair@$$CBKUtagNamedTitleInfo@@@std@@QAE@$$QAU?$pair@KUtagNamedTitleInfo@@@1@@Z ; std::pair<unsigned long const ,tagNamedTitleInfo>::pair<unsigned long const ,tagNamedTitleInfo><unsigned long,tagNamedTitleInfo>
; Function compile flags: /Ogsp
;	COMDAT ??$?0KUtagNamedTitleInfo@@@?$pair@$$CBKUtagNamedTitleInfo@@@std@@QAE@$$QAU?$pair@KUtagNamedTitleInfo@@@1@@Z
_TEXT	SEGMENT
__Right$ = 8						; size = 4
??$?0KUtagNamedTitleInfo@@@?$pair@$$CBKUtagNamedTitleInfo@@@std@@QAE@$$QAU?$pair@KUtagNamedTitleInfo@@@1@@Z PROC ; std::pair<unsigned long const ,tagNamedTitleInfo>::pair<unsigned long const ,tagNamedTitleInfo><unsigned long,tagNamedTitleInfo>, COMDAT
; _this$ = ecx

; 255  : 		{	// construct from moved compatible pair

  00000	55		 push	 ebp
  00001	8b ec		 mov	 ebp, esp
  00003	8b 45 08	 mov	 eax, DWORD PTR __Right$[ebp]
  00006	56		 push	 esi
  00007	8b f1		 mov	 esi, ecx
  00009	8b 08		 mov	 ecx, DWORD PTR [eax]
  0000b	83 c0 04	 add	 eax, 4
  0000e	89 0e		 mov	 DWORD PTR [esi], ecx
  00010	50		 push	 eax
  00011	8d 4e 04	 lea	 ecx, DWORD PTR [esi+4]
  00014	e8 00 00 00 00	 call	 ??0tagNamedTitleInfo@@QAE@ABU0@@Z

; 256  : 		}

  00019	8b c6		 mov	 eax, esi
  0001b	5e		 pop	 esi
  0001c	5d		 pop	 ebp
  0001d	c2 04 00	 ret	 4
??$?0KUtagNamedTitleInfo@@@?$pair@$$CBKUtagNamedTitleInfo@@@std@@QAE@$$QAU?$pair@KUtagNamedTitleInfo@@@1@@Z ENDP ; std::pair<unsigned long const ,tagNamedTitleInfo>::pair<unsigned long const ,tagNamedTitleInfo><unsigned long,tagNamedTitleInfo>
_TEXT	ENDS
PUBLIC	?GetNamedTitleInfo@ioNamedTitleInfoManager@@QAE_NKAAUtagNamedTitleInfo@@@Z ; ioNamedTitleInfoManager::GetNamedTitleInfo
; Function compile flags: /Ogsp
; File d:\lost saga for developer\youtube\tutorial\source\src\lsclient\ionamedtitleinfomanager.cpp
;	COMDAT ?GetNamedTitleInfo@ioNamedTitleInfoManager@@QAE_NKAAUtagNamedTitleInfo@@@Z
_TEXT	SEGMENT
_FindIter$ = -4						; size = 4
_dwCode$ = 8						; size = 4
_sNamedTitleInfo$ = 12					; size = 4
?GetNamedTitleInfo@ioNamedTitleInfoManager@@QAE_NKAAUtagNamedTitleInfo@@@Z PROC ; ioNamedTitleInfoManager::GetNamedTitleInfo, COMDAT
; _this$ = ecx

; 149  : {

  00000	55		 push	 ebp
  00001	8b ec		 mov	 ebp, esp
  00003	51		 push	 ecx
  00004	56		 push	 esi
  00005	8b f1		 mov	 esi, ecx

; 150  : 	sNamedTitleInfo.Init();

  00007	8b 4d 0c	 mov	 ecx, DWORD PTR _sNamedTitleInfo$[ebp]
  0000a	e8 00 00 00 00	 call	 ?Init@tagNamedTitleInfo@@QAEXXZ ; tagNamedTitleInfo::Init

; 151  : 
; 152  : 	if ( dwCode <= 0 || m_vInfoList.empty() )

  0000f	83 7d 08 00	 cmp	 DWORD PTR _dwCode$[ebp], 0
  00013	76 2e		 jbe	 SHORT $LN2@GetNamedTi@4
  00015	83 7e 0c 00	 cmp	 DWORD PTR [esi+12], 0
  00019	74 28		 je	 SHORT $LN2@GetNamedTi@4

; 154  : 	
; 155  : 	NamedTitleInfoList::iterator FindIter = m_vInfoList.find( dwCode );

  0001b	8d 45 08	 lea	 eax, DWORD PTR _dwCode$[ebp]
  0001e	50		 push	 eax
  0001f	8d 45 fc	 lea	 eax, DWORD PTR _FindIter$[ebp]
  00022	50		 push	 eax
  00023	8d 4e 04	 lea	 ecx, DWORD PTR [esi+4]
  00026	e8 00 00 00 00	 call	 ?find@?$_Tree@V?$_Tmap_traits@KUtagNamedTitleInfo@@U?$less@K@std@@V?$allocator@U?$pair@$$CBKUtagNamedTitleInfo@@@std@@@3@$0A@@std@@@std@@QAE?AV?$_Tree_iterator@V?$_Tree_val@V?$_Tmap_traits@KUtagNamedTitleInfo@@U?$less@K@std@@V?$allocator@U?$pair@$$CBKUtagNamedTitleInfo@@@std@@@3@$0A@@std@@@std@@@2@ABK@Z ; std::_Tree<std::_Tmap_traits<unsigned long,tagNamedTitleInfo,std::less<unsigned long>,std::allocator<std::pair<unsigned long const ,tagNamedTitleInfo> >,0> >::find

; 156  : 	if ( FindIter != m_vInfoList.end() )

  0002b	8b 45 fc	 mov	 eax, DWORD PTR _FindIter$[ebp]
  0002e	3b 46 08	 cmp	 eax, DWORD PTR [esi+8]
  00031	74 10		 je	 SHORT $LN2@GetNamedTi@4

; 157  : 	{
; 158  : 		const NamedTitleInfo &rNamedTitleInfo = FindIter->second;
; 159  : 		sNamedTitleInfo = rNamedTitleInfo;

  00033	8b 4d 0c	 mov	 ecx, DWORD PTR _sNamedTitleInfo$[ebp]
  00036	83 c0 10	 add	 eax, 16			; 00000010H
  00039	50		 push	 eax
  0003a	e8 00 00 00 00	 call	 ??4tagNamedTitleInfo@@QAEAAU0@ABU0@@Z

; 160  : 		return true;

  0003f	b0 01		 mov	 al, 1
  00041	eb 02		 jmp	 SHORT $LN4@GetNamedTi@4
$LN2@GetNamedTi@4:

; 153  : 		return false;

  00043	32 c0		 xor	 al, al
$LN4@GetNamedTi@4:
  00045	5e		 pop	 esi

; 161  : 	}
; 162  : 
; 163  : 	return false;
; 164  : }

  00046	c9		 leave
  00047	c2 08 00	 ret	 8
?GetNamedTitleInfo@ioNamedTitleInfoManager@@QAE_NKAAUtagNamedTitleInfo@@@Z ENDP ; ioNamedTitleInfoManager::GetNamedTitleInfo
_TEXT	ENDS
PUBLIC	__real@3ff0000000000000
PUBLIC	__real@3fe0000000000000
PUBLIC	??_C@_0CK@EGAOEMLF@ioNamedTitleInfoManager?3?3RenderN@ ; `string'
PUBLIC	?RenderNamedTitle@ioNamedTitleInfoManager@@QAEXHHMKHEW4TeamType@@PAVioUIRenderImage@@W4UIRenderType@@@Z ; ioNamedTitleInfoManager::RenderNamedTitle
EXTRN	__imp_?SetReverseFormatting@ioUIRenderImage@@QAEXW4ReverseFormatting@1@@Z:PROC
EXTRN	__imp_?GetWidth@ioUIRenderElement@@QBEHXZ:PROC
EXTRN	__imp_?GetTextWidth@ioFontManager@@QAEMPBDW4TextStyle@@MH@Z:PROC
EXTRN	__imp_?PrintText@ioFontManager@@QAEXMMMPBD0@Z:PROC
EXTRN	__imp_?c_str@ioHashString@@QBEPBDXZ:PROC
EXTRN	__imp_?SetTextColor@ioFontManager@@QAEXK@Z:PROC
EXTRN	__imp_?SetAlignType@ioFontManager@@QAEXW4TextAlignType@@@Z:PROC
EXTRN	__imp_?GetSingleton@ioFontManager@@SAAAV1@XZ:PROC
EXTRN	__fltused:DWORD
;	COMDAT __real@3ff0000000000000
; File c:\program files (x86)\microsoft visual studio 10.0\vc\include\vector
CONST	SEGMENT
__real@3ff0000000000000 DQ 03ff0000000000000r	; 1
CONST	ENDS
;	COMDAT __real@3fe0000000000000
CONST	SEGMENT
__real@3fe0000000000000 DQ 03fe0000000000000r	; 0.5
CONST	ENDS
;	COMDAT ??_C@_0CK@EGAOEMLF@ioNamedTitleInfoManager?3?3RenderN@
CONST	SEGMENT
??_C@_0CK@EGAOEMLF@ioNamedTitleInfoManager?3?3RenderN@ DB 'ioNamedTitleIn'
	DB	'foManager::RenderNamedTitle', 00H		; `string'
CONST	ENDS
;	COMDAT xdata$x
xdata$x	SEGMENT
__unwindtable$?RenderNamedTitle@ioNamedTitleInfoManager@@QAEXHHMKHEW4TeamType@@PAVioUIRenderImage@@W4UIRenderType@@@Z DD 0ffffffffH
	DD	FLAT:__unwindfunclet$?RenderNamedTitle@ioNamedTitleInfoManager@@QAEXHHMKHEW4TeamType@@PAVioUIRenderImage@@W4UIRenderType@@@Z$0
__ehfuncinfo$?RenderNamedTitle@ioNamedTitleInfoManager@@QAEXHHMKHEW4TeamType@@PAVioUIRenderImage@@W4UIRenderType@@@Z DD 019930522H
	DD	01H
	DD	FLAT:__unwindtable$?RenderNamedTitle@ioNamedTitleInfoManager@@QAEXHHMKHEW4TeamType@@PAVioUIRenderImage@@W4UIRenderType@@@Z
	DD	2 DUP(00H)
	DD	2 DUP(00H)
	DD	00H
	DD	01H
; Function compile flags: /Ogsp
; File d:\lost saga for developer\youtube\tutorial\source\src\lsclient\ionamedtitleinfomanager.cpp
xdata$x	ENDS
;	COMDAT ?RenderNamedTitle@ioNamedTitleInfoManager@@QAEXHHMKHEW4TeamType@@PAVioUIRenderImage@@W4UIRenderType@@@Z
_TEXT	SEGMENT
_sNamedTitleInfo$ = -56					; size = 36
tv164 = -20						; size = 8
__$EHRec$ = -12						; size = 12
_nXPos$ = 8						; size = 4
tv302 = 12						; size = 4
_nYPos$ = 12						; size = 4
_fFontSize$ = 16					; size = 4
_dwColor$ = 20						; size = 4
_dwCode$ = 20						; size = 4
_nLevel$ = 24						; size = 4
_byPremium$ = 28					; size = 1
_eTeam$ = 32						; size = 4
_pCurMark$ = 36						; size = 4
_eRenderType$ = 40					; size = 4
?RenderNamedTitle@ioNamedTitleInfoManager@@QAEXHHMKHEW4TeamType@@PAVioUIRenderImage@@W4UIRenderType@@@Z PROC ; ioNamedTitleInfoManager::RenderNamedTitle, COMDAT
; _this$ = ecx

; 251  : {

  00000	6a 2c		 push	 44			; 0000002cH
  00002	b8 00 00 00 00	 mov	 eax, __ehhandler$?RenderNamedTitle@ioNamedTitleInfoManager@@QAEXHHMKHEW4TeamType@@PAVioUIRenderImage@@W4UIRenderType@@@Z
  00007	e8 00 00 00 00	 call	 __EH_prolog3
  0000c	8b f1		 mov	 esi, ecx

; 252  : 	if ( dwCode <= 0 )

  0000e	33 db		 xor	 ebx, ebx
  00010	39 5d 14	 cmp	 DWORD PTR _dwCode$[ebp], ebx
  00013	0f 86 5a 02 00
	00		 jbe	 $LN12@RenderName

; 253  : 		return;
; 254  : 
; 255  : 	NamedTitleInfo sNamedTitleInfo;

  00019	8d 4d c8	 lea	 ecx, DWORD PTR _sNamedTitleInfo$[ebp]
  0001c	e8 00 00 00 00	 call	 ??0tagNamedTitleInfo@@QAE@XZ ; tagNamedTitleInfo::tagNamedTitleInfo

; 256  : 	if ( !GetNamedTitleInfo( dwCode, sNamedTitleInfo ) )

  00021	8d 45 c8	 lea	 eax, DWORD PTR _sNamedTitleInfo$[ebp]
  00024	50		 push	 eax
  00025	ff 75 14	 push	 DWORD PTR _dwCode$[ebp]
  00028	8b ce		 mov	 ecx, esi
  0002a	89 5d fc	 mov	 DWORD PTR __$EHRec$[ebp+8], ebx
  0002d	e8 00 00 00 00	 call	 ?GetNamedTitleInfo@ioNamedTitleInfoManager@@QAE_NKAAUtagNamedTitleInfo@@@Z ; ioNamedTitleInfoManager::GetNamedTitleInfo
  00032	84 c0		 test	 al, al

; 257  : 		return;

  00034	0f 84 2d 02 00
	00		 je	 $LN1@RenderName

; 258  : 	
; 259  : 	DWORD dwColor = 0;
; 260  : 	ioUIRenderImage* pPremiumMark = m_pPremiumBaseMark;

  0003a	8b 7e 58	 mov	 edi, DWORD PTR [esi+88]
  0003d	89 5d 14	 mov	 DWORD PTR _dwColor$[ebp], ebx

; 261  : 	if ( byPremium )

  00040	38 5d 1c	 cmp	 BYTE PTR _byPremium$[ebp], bl
  00043	0f 84 b6 00 00
	00		 je	 $LN9@RenderName

; 262  : 	{
; 263  : 		if ( COMPARE( nLevel, 0, (int)sNamedTitleInfo.m_GradeList.size() ) )

  00049	8b 4d 18	 mov	 ecx, DWORD PTR _nLevel$[ebp]
  0004c	3b cb		 cmp	 ecx, ebx
  0004e	7c 1c		 jl	 SHORT $LN8@RenderName
  00050	8b 45 e0	 mov	 eax, DWORD PTR _sNamedTitleInfo$[ebp+24]
  00053	2b 45 dc	 sub	 eax, DWORD PTR _sNamedTitleInfo$[ebp+20]
  00056	6a 14		 push	 20			; 00000014H
  00058	99		 cdq
  00059	5e		 pop	 esi
  0005a	f7 fe		 idiv	 esi
  0005c	3b c8		 cmp	 ecx, eax
  0005e	7d 0c		 jge	 SHORT $LN8@RenderName

; 264  : 			dwColor = sNamedTitleInfo.m_GradeList[nLevel].m_dwColor;

  00060	8b 45 dc	 mov	 eax, DWORD PTR _sNamedTitleInfo$[ebp+20]
  00063	6b c9 14	 imul	 ecx, 20			; 00000014H
  00066	8b 04 01	 mov	 eax, DWORD PTR [ecx+eax]
  00069	89 45 14	 mov	 DWORD PTR _dwColor$[ebp], eax
$LN8@RenderName:

; 265  : 		
; 266  : 		g_FontMgr.SetAlignType( TAT_CENTER );

  0006c	8b 35 00 00 00
	00		 mov	 esi, DWORD PTR __imp_?GetSingleton@ioFontManager@@SAAAV1@XZ
  00072	6a 01		 push	 1
  00074	ff d6		 call	 esi
  00076	8b c8		 mov	 ecx, eax
  00078	ff 15 00 00 00
	00		 call	 DWORD PTR __imp_?SetAlignType@ioFontManager@@QAEXW4TextAlignType@@@Z

; 267  : 		g_FontMgr.SetTextColor( dwColor );

  0007e	ff 75 14	 push	 DWORD PTR _dwColor$[ebp]
  00081	ff d6		 call	 esi
  00083	8b c8		 mov	 ecx, eax
  00085	ff 15 00 00 00
	00		 call	 DWORD PTR __imp_?SetTextColor@ioFontManager@@QAEXK@Z

; 268  : 		g_FontMgr.PrintText( nXPos, nYPos, fFontSize, STR(1), sNamedTitleInfo.m_szName.c_str() );

  0008b	66 0f 6e 45 0c	 movd	 xmm0, DWORD PTR _nYPos$[ebp]
  00090	0f 5b c0	 cvtdq2ps xmm0, xmm0
  00093	8d 4d cc	 lea	 ecx, DWORD PTR _sNamedTitleInfo$[ebp+4]
  00096	f3 0f 11 45 0c	 movss	 DWORD PTR tv302[ebp], xmm0
  0009b	ff 15 00 00 00
	00		 call	 DWORD PTR __imp_?c_str@ioHashString@@QBEPBDXZ
  000a1	50		 push	 eax
  000a2	53		 push	 ebx
  000a3	6a 01		 push	 1
  000a5	68 00 00 00 00	 push	 OFFSET ??_C@_00CNPNBAHC@?$AA@
  000aa	68 00 00 00 00	 push	 OFFSET ??_C@_0CK@EGAOEMLF@ioNamedTitleInfoManager?3?3RenderN@
  000af	ff 15 00 00 00
	00		 call	 DWORD PTR __imp_?GetSingleton@ioStringManager@@SAAAV1@XZ
  000b5	8b c8		 mov	 ecx, eax
  000b7	ff 15 00 00 00
	00		 call	 DWORD PTR __imp_?GetString@ioStringManager@@QAEPADPBD0HW4FileNamePrefix@1@@Z
  000bd	f3 0f 10 45 10	 movss	 xmm0, DWORD PTR _fFontSize$[ebp]
  000c2	50		 push	 eax
  000c3	83 ec 0c	 sub	 esp, 12			; 0000000cH
  000c6	f3 0f 11 44 24
	08		 movss	 DWORD PTR [esp+8], xmm0
  000cc	f3 0f 10 45 0c	 movss	 xmm0, DWORD PTR tv302[ebp]
  000d1	f3 0f 11 44 24
	04		 movss	 DWORD PTR [esp+4], xmm0
  000d7	66 0f 6e 45 08	 movd	 xmm0, DWORD PTR _nXPos$[ebp]
  000dc	0f 5b c0	 cvtdq2ps xmm0, xmm0
  000df	f3 0f 11 04 24	 movss	 DWORD PTR [esp], xmm0
  000e4	ff d6		 call	 esi
  000e6	8b c8		 mov	 ecx, eax
  000e8	ff 15 00 00 00
	00		 call	 DWORD PTR __imp_?PrintText@ioFontManager@@QAEXMMMPBD0@Z

; 269  : 
; 270  : 		if ( pCurMark )

  000ee	39 5d 24	 cmp	 DWORD PTR _pCurMark$[ebp], ebx
  000f1	0f 84 9e 00 00
	00		 je	 $LN6@RenderName

; 271  : 			pPremiumMark = pCurMark;

  000f7	8b 7d 24	 mov	 edi, DWORD PTR _pCurMark$[ebp]

; 272  : 	}
; 273  : 	else

  000fa	e9 96 00 00 00	 jmp	 $LN6@RenderName
$LN9@RenderName:

; 274  : 	{
; 275  : 		switch( eTeam )

  000ff	8b 45 20	 mov	 eax, DWORD PTR _eTeam$[ebp]
  00102	48		 dec	 eax
  00103	74 08		 je	 SHORT $LN2@RenderName
  00105	48		 dec	 eax
  00106	75 0b		 jne	 SHORT $LN4@RenderName

; 276  : 		{
; 277  : 		case TEAM_BLUE:
; 278  : 			dwColor = m_dwBlueBaseEquipColor;

  00108	8b 46 18	 mov	 eax, DWORD PTR [esi+24]

; 279  : 			break;

  0010b	eb 03		 jmp	 SHORT $LN20@RenderName
$LN2@RenderName:

; 280  : 		case TEAM_RED:
; 281  : 			dwColor = m_dwRedBaseEquipColor;

  0010d	8b 46 14	 mov	 eax, DWORD PTR [esi+20]
$LN20@RenderName:
  00110	89 45 14	 mov	 DWORD PTR _dwColor$[ebp], eax
$LN4@RenderName:

; 282  : 			break;
; 283  : 		}
; 284  : 
; 285  : 		g_FontMgr.SetAlignType( TAT_CENTER );

  00113	8b 35 00 00 00
	00		 mov	 esi, DWORD PTR __imp_?GetSingleton@ioFontManager@@SAAAV1@XZ
  00119	6a 01		 push	 1
  0011b	ff d6		 call	 esi
  0011d	8b c8		 mov	 ecx, eax
  0011f	ff 15 00 00 00
	00		 call	 DWORD PTR __imp_?SetAlignType@ioFontManager@@QAEXW4TextAlignType@@@Z

; 286  : 		g_FontMgr.SetTextColor( dwColor );

  00125	ff 75 14	 push	 DWORD PTR _dwColor$[ebp]
  00128	ff d6		 call	 esi
  0012a	8b c8		 mov	 ecx, eax
  0012c	ff 15 00 00 00
	00		 call	 DWORD PTR __imp_?SetTextColor@ioFontManager@@QAEXK@Z

; 287  : 		g_FontMgr.PrintText( nXPos, nYPos, fFontSize, STR(2), sNamedTitleInfo.m_szName.c_str() );

  00132	66 0f 6e 45 0c	 movd	 xmm0, DWORD PTR _nYPos$[ebp]
  00137	0f 5b c0	 cvtdq2ps xmm0, xmm0
  0013a	8d 4d cc	 lea	 ecx, DWORD PTR _sNamedTitleInfo$[ebp+4]
  0013d	f3 0f 11 45 0c	 movss	 DWORD PTR tv302[ebp], xmm0
  00142	ff 15 00 00 00
	00		 call	 DWORD PTR __imp_?c_str@ioHashString@@QBEPBDXZ
  00148	50		 push	 eax
  00149	53		 push	 ebx
  0014a	6a 02		 push	 2
  0014c	68 00 00 00 00	 push	 OFFSET ??_C@_00CNPNBAHC@?$AA@
  00151	68 00 00 00 00	 push	 OFFSET ??_C@_0CK@EGAOEMLF@ioNamedTitleInfoManager?3?3RenderN@
  00156	ff 15 00 00 00
	00		 call	 DWORD PTR __imp_?GetSingleton@ioStringManager@@SAAAV1@XZ
  0015c	8b c8		 mov	 ecx, eax
  0015e	ff 15 00 00 00
	00		 call	 DWORD PTR __imp_?GetString@ioStringManager@@QAEPADPBD0HW4FileNamePrefix@1@@Z
  00164	f3 0f 10 45 10	 movss	 xmm0, DWORD PTR _fFontSize$[ebp]
  00169	50		 push	 eax
  0016a	83 ec 0c	 sub	 esp, 12			; 0000000cH
  0016d	f3 0f 11 44 24
	08		 movss	 DWORD PTR [esp+8], xmm0
  00173	f3 0f 10 45 0c	 movss	 xmm0, DWORD PTR tv302[ebp]
  00178	f3 0f 11 44 24
	04		 movss	 DWORD PTR [esp+4], xmm0
  0017e	66 0f 6e 45 08	 movd	 xmm0, DWORD PTR _nXPos$[ebp]
  00183	0f 5b c0	 cvtdq2ps xmm0, xmm0
  00186	f3 0f 11 04 24	 movss	 DWORD PTR [esp], xmm0
  0018b	ff d6		 call	 esi
  0018d	8b c8		 mov	 ecx, eax
  0018f	ff 15 00 00 00
	00		 call	 DWORD PTR __imp_?PrintText@ioFontManager@@QAEXMMMPBD0@Z
$LN6@RenderName:

; 288  : 	}
; 289  : 	
; 290  : 	if( byPremium && pPremiumMark )

  00195	38 5d 1c	 cmp	 BYTE PTR _byPremium$[ebp], bl
  00198	0f 84 c9 00 00
	00		 je	 $LN1@RenderName
  0019e	3b fb		 cmp	 edi, ebx
  001a0	0f 84 c1 00 00
	00		 je	 $LN1@RenderName

; 291  : 	{
; 292  : 		int nNamedTitleHalfWidth = ( g_FontMgr.GetTextWidth( sNamedTitleInfo.m_szName.c_str(), TS_BOLD_OUTLINE_FULL, fFontSize ) + pPremiumMark->GetWidth() ) / 2 + 1;

  001a6	f3 0f 10 45 10	 movss	 xmm0, DWORD PTR _fFontSize$[ebp]
  001ab	53		 push	 ebx
  001ac	51		 push	 ecx
  001ad	f3 0f 11 04 24	 movss	 DWORD PTR [esp], xmm0
  001b2	6a 0b		 push	 11			; 0000000bH
  001b4	8d 4d cc	 lea	 ecx, DWORD PTR _sNamedTitleInfo$[ebp+4]
  001b7	ff 15 00 00 00
	00		 call	 DWORD PTR __imp_?c_str@ioHashString@@QBEPBDXZ
  001bd	50		 push	 eax
  001be	ff d6		 call	 esi
  001c0	8b c8		 mov	 ecx, eax
  001c2	ff 15 00 00 00
	00		 call	 DWORD PTR __imp_?GetTextWidth@ioFontManager@@QAEMPBDW4TextStyle@@MH@Z
  001c8	dd 5d ec	 fstp	 QWORD PTR tv164[ebp]
  001cb	8b cf		 mov	 ecx, edi
  001cd	ff 15 00 00 00
	00		 call	 DWORD PTR __imp_?GetWidth@ioUIRenderElement@@QBEHXZ

; 293  : 		pPremiumMark->SetColor( dwColor );

  001d3	ff 75 14	 push	 DWORD PTR _dwColor$[ebp]
  001d6	0f 57 c0	 xorps	 xmm0, xmm0
  001d9	f3 0f 2a c0	 cvtsi2ss xmm0, eax
  001dd	8b 07		 mov	 eax, DWORD PTR [edi]
  001df	0f 5a c0	 cvtps2pd xmm0, xmm0
  001e2	f2 0f 58 45 ec	 addsd	 xmm0, QWORD PTR tv164[ebp]
  001e7	f2 0f 59 05 00
	00 00 00	 mulsd	 xmm0, QWORD PTR __real@3fe0000000000000
  001ef	f2 0f 58 05 00
	00 00 00	 addsd	 xmm0, QWORD PTR __real@3ff0000000000000
  001f7	8b cf		 mov	 ecx, edi
  001f9	f2 0f 2c f0	 cvttsd2si esi, xmm0
  001fd	ff 50 2c	 call	 DWORD PTR [eax+44]

; 294  : 		pPremiumMark->Render( nXPos - nNamedTitleHalfWidth, nYPos, eRenderType, TFO_BILINEAR );

  00200	f3 0f 10 45 0c	 movss	 xmm0, DWORD PTR tv302[ebp]
  00205	8b 07		 mov	 eax, DWORD PTR [edi]
  00207	53		 push	 ebx
  00208	53		 push	 ebx
  00209	6a 01		 push	 1
  0020b	ff 75 28	 push	 DWORD PTR _eRenderType$[ebp]
  0020e	51		 push	 ecx
  0020f	51		 push	 ecx
  00210	8b 4d 08	 mov	 ecx, DWORD PTR _nXPos$[ebp]
  00213	f3 0f 11 44 24
	04		 movss	 DWORD PTR [esp+4], xmm0
  00219	2b ce		 sub	 ecx, esi
  0021b	0f 57 c0	 xorps	 xmm0, xmm0
  0021e	f3 0f 2a c1	 cvtsi2ss xmm0, ecx
  00222	8b cf		 mov	 ecx, edi
  00224	f3 0f 11 04 24	 movss	 DWORD PTR [esp], xmm0
  00229	ff 10		 call	 DWORD PTR [eax]

; 295  : 		pPremiumMark->SetReverseFormatting( ioUIRenderImage::RF_HORZ_REVERSE );

  0022b	6a 01		 push	 1
  0022d	8b cf		 mov	 ecx, edi
  0022f	ff 15 00 00 00
	00		 call	 DWORD PTR __imp_?SetReverseFormatting@ioUIRenderImage@@QAEXW4ReverseFormatting@1@@Z

; 296  : 		pPremiumMark->Render( nXPos + nNamedTitleHalfWidth, nYPos, eRenderType, TFO_BILINEAR );

  00235	f3 0f 10 45 0c	 movss	 xmm0, DWORD PTR tv302[ebp]
  0023a	03 75 08	 add	 esi, DWORD PTR _nXPos$[ebp]
  0023d	8b 07		 mov	 eax, DWORD PTR [edi]
  0023f	53		 push	 ebx
  00240	53		 push	 ebx
  00241	6a 01		 push	 1
  00243	ff 75 28	 push	 DWORD PTR _eRenderType$[ebp]
  00246	51		 push	 ecx
  00247	51		 push	 ecx
  00248	f3 0f 11 44 24
	04		 movss	 DWORD PTR [esp+4], xmm0
  0024e	0f 57 c0	 xorps	 xmm0, xmm0
  00251	f3 0f 2a c6	 cvtsi2ss xmm0, esi
  00255	8b cf		 mov	 ecx, edi
  00257	f3 0f 11 04 24	 movss	 DWORD PTR [esp], xmm0
  0025c	ff 10		 call	 DWORD PTR [eax]

; 297  : 		pPremiumMark->SetReverseFormatting( ioUIRenderImage::RF_NONE_REVERSE );

  0025e	53		 push	 ebx
  0025f	8b cf		 mov	 ecx, edi
  00261	ff 15 00 00 00
	00		 call	 DWORD PTR __imp_?SetReverseFormatting@ioUIRenderImage@@QAEXW4ReverseFormatting@1@@Z
$LN1@RenderName:

; 298  : 	}
; 299  : }

  00267	83 4d fc ff	 or	 DWORD PTR __$EHRec$[ebp+8], -1
  0026b	8d 4d c8	 lea	 ecx, DWORD PTR _sNamedTitleInfo$[ebp]
  0026e	e8 00 00 00 00	 call	 ??1tagNamedTitleInfo@@QAE@XZ
$LN12@RenderName:
  00273	e8 00 00 00 00	 call	 __EH_epilog3
  00278	c2 24 00	 ret	 36			; 00000024H
_TEXT	ENDS
;	COMDAT text$x
text$x	SEGMENT
__unwindfunclet$?RenderNamedTitle@ioNamedTitleInfoManager@@QAEXHHMKHEW4TeamType@@PAVioUIRenderImage@@W4UIRenderType@@@Z$0:
  00000	8d 4d c8	 lea	 ecx, DWORD PTR _sNamedTitleInfo$[ebp]
  00003	e9 00 00 00 00	 jmp	 ??1tagNamedTitleInfo@@QAE@XZ
__ehhandler$?RenderNamedTitle@ioNamedTitleInfoManager@@QAEXHHMKHEW4TeamType@@PAVioUIRenderImage@@W4UIRenderType@@@Z:
  00008	8b 54 24 08	 mov	 edx, DWORD PTR [esp+8]
  0000c	8d 42 0c	 lea	 eax, DWORD PTR [edx+12]
  0000f	8b 4a c4	 mov	 ecx, DWORD PTR [edx-60]
  00012	33 c8		 xor	 ecx, eax
  00014	e8 00 00 00 00	 call	 @__security_check_cookie@4
  00019	b8 00 00 00 00	 mov	 eax, OFFSET __ehfuncinfo$?RenderNamedTitle@ioNamedTitleInfoManager@@QAEXHHMKHEW4TeamType@@PAVioUIRenderImage@@W4UIRenderType@@@Z
  0001e	e9 00 00 00 00	 jmp	 ___CxxFrameHandler3
text$x	ENDS
?RenderNamedTitle@ioNamedTitleInfoManager@@QAEXHHMKHEW4TeamType@@PAVioUIRenderImage@@W4UIRenderType@@@Z ENDP ; ioNamedTitleInfoManager::RenderNamedTitle
PUBLIC	??$?0AAKAAUtagNamedTitleInfo@@@?$pair@KUtagNamedTitleInfo@@@std@@QAE@AAKAAUtagNamedTitleInfo@@@Z ; std::pair<unsigned long,tagNamedTitleInfo>::pair<unsigned long,tagNamedTitleInfo><unsigned long &,tagNamedTitleInfo &>
; Function compile flags: /Ogsp
; File c:\program files (x86)\microsoft visual studio 10.0\vc\include\utility
;	COMDAT ??$?0AAKAAUtagNamedTitleInfo@@@?$pair@KUtagNamedTitleInfo@@@std@@QAE@AAKAAUtagNamedTitleInfo@@@Z
_TEXT	SEGMENT
__Val1$ = 8						; size = 4
__Val2$ = 12						; size = 4
??$?0AAKAAUtagNamedTitleInfo@@@?$pair@KUtagNamedTitleInfo@@@std@@QAE@AAKAAUtagNamedTitleInfo@@@Z PROC ; std::pair<unsigned long,tagNamedTitleInfo>::pair<unsigned long,tagNamedTitleInfo><unsigned long &,tagNamedTitleInfo &>, COMDAT
; _this$ = ecx

; 247  : 		{	// construct from moved values

  00000	55		 push	 ebp
  00001	8b ec		 mov	 ebp, esp
  00003	8b 45 08	 mov	 eax, DWORD PTR __Val1$[ebp]
  00006	8b 00		 mov	 eax, DWORD PTR [eax]
  00008	56		 push	 esi
  00009	ff 75 0c	 push	 DWORD PTR __Val2$[ebp]
  0000c	8b f1		 mov	 esi, ecx
  0000e	8d 4e 04	 lea	 ecx, DWORD PTR [esi+4]
  00011	89 06		 mov	 DWORD PTR [esi], eax
  00013	e8 00 00 00 00	 call	 ??0tagNamedTitleInfo@@QAE@ABU0@@Z

; 248  : 		}

  00018	8b c6		 mov	 eax, esi
  0001a	5e		 pop	 esi
  0001b	5d		 pop	 ebp
  0001c	c2 08 00	 ret	 8
??$?0AAKAAUtagNamedTitleInfo@@@?$pair@KUtagNamedTitleInfo@@@std@@QAE@AAKAAUtagNamedTitleInfo@@@Z ENDP ; std::pair<unsigned long,tagNamedTitleInfo>::pair<unsigned long,tagNamedTitleInfo><unsigned long &,tagNamedTitleInfo &>
_TEXT	ENDS
PUBLIC	??_G?$pair@$$CBKUtagNamedTitleInfo@@@std@@QAEPAXI@Z ; std::pair<unsigned long const ,tagNamedTitleInfo>::`scalar deleting destructor'
; Function compile flags: /Ogsp
;	COMDAT ??_G?$pair@$$CBKUtagNamedTitleInfo@@@std@@QAEPAXI@Z
_TEXT	SEGMENT
___flags$ = 8						; size = 4
??_G?$pair@$$CBKUtagNamedTitleInfo@@@std@@QAEPAXI@Z PROC ; std::pair<unsigned long const ,tagNamedTitleInfo>::`scalar deleting destructor', COMDAT
; _this$ = ecx
  00000	55		 push	 ebp
  00001	8b ec		 mov	 ebp, esp
  00003	56		 push	 esi
  00004	8b f1		 mov	 esi, ecx
  00006	8d 4e 04	 lea	 ecx, DWORD PTR [esi+4]
  00009	e8 00 00 00 00	 call	 ??1tagNamedTitleInfo@@QAE@XZ
  0000e	f6 45 08 01	 test	 BYTE PTR ___flags$[ebp], 1
  00012	74 07		 je	 SHORT $LN1@scalar@3
  00014	56		 push	 esi
  00015	e8 00 00 00 00	 call	 ??3@YAXPAX@Z		; operator delete
  0001a	59		 pop	 ecx
$LN1@scalar@3:
  0001b	8b c6		 mov	 eax, esi
  0001d	5e		 pop	 esi
  0001e	5d		 pop	 ebp
  0001f	c2 04 00	 ret	 4
??_G?$pair@$$CBKUtagNamedTitleInfo@@@std@@QAEPAXI@Z ENDP ; std::pair<unsigned long const ,tagNamedTitleInfo>::`scalar deleting destructor'
_TEXT	ENDS
PUBLIC	??$construct@U?$pair@KUtagNamedTitleInfo@@@std@@@?$allocator@U?$pair@$$CBKUtagNamedTitleInfo@@@std@@@std@@QAEXPAU?$pair@$$CBKUtagNamedTitleInfo@@@1@$$QAU?$pair@KUtagNamedTitleInfo@@@1@@Z ; std::allocator<std::pair<unsigned long const ,tagNamedTitleInfo> >::construct<std::pair<unsigned long,tagNamedTitleInfo> >
;	COMDAT xdata$x
xdata$x	SEGMENT
__unwindtable$??$construct@U?$pair@KUtagNamedTitleInfo@@@std@@@?$allocator@U?$pair@$$CBKUtagNamedTitleInfo@@@std@@@std@@QAEXPAU?$pair@$$CBKUtagNamedTitleInfo@@@1@$$QAU?$pair@KUtagNamedTitleInfo@@@1@@Z DD 0ffffffffH
	DD	FLAT:__unwindfunclet$??$construct@U?$pair@KUtagNamedTitleInfo@@@std@@@?$allocator@U?$pair@$$CBKUtagNamedTitleInfo@@@std@@@std@@QAEXPAU?$pair@$$CBKUtagNamedTitleInfo@@@1@$$QAU?$pair@KUtagNamedTitleInfo@@@1@@Z$0
__ehfuncinfo$??$construct@U?$pair@KUtagNamedTitleInfo@@@std@@@?$allocator@U?$pair@$$CBKUtagNamedTitleInfo@@@std@@@std@@QAEXPAU?$pair@$$CBKUtagNamedTitleInfo@@@1@$$QAU?$pair@KUtagNamedTitleInfo@@@1@@Z DD 019930522H
	DD	01H
	DD	FLAT:__unwindtable$??$construct@U?$pair@KUtagNamedTitleInfo@@@std@@@?$allocator@U?$pair@$$CBKUtagNamedTitleInfo@@@std@@@std@@QAEXPAU?$pair@$$CBKUtagNamedTitleInfo@@@1@$$QAU?$pair@KUtagNamedTitleInfo@@@1@@Z
	DD	2 DUP(00H)
	DD	2 DUP(00H)
	DD	00H
	DD	01H
; Function compile flags: /Ogsp
; File c:\program files (x86)\microsoft visual studio 10.0\vc\include\xmemory
xdata$x	ENDS
;	COMDAT ??$construct@U?$pair@KUtagNamedTitleInfo@@@std@@@?$allocator@U?$pair@$$CBKUtagNamedTitleInfo@@@std@@@std@@QAEXPAU?$pair@$$CBKUtagNamedTitleInfo@@@1@$$QAU?$pair@KUtagNamedTitleInfo@@@1@@Z
_TEXT	SEGMENT
$T540415 = -16						; size = 4
__$EHRec$ = -12						; size = 12
__Ptr$ = 8						; size = 4
__Val$ = 12						; size = 4
??$construct@U?$pair@KUtagNamedTitleInfo@@@std@@@?$allocator@U?$pair@$$CBKUtagNamedTitleInfo@@@std@@@std@@QAEXPAU?$pair@$$CBKUtagNamedTitleInfo@@@1@$$QAU?$pair@KUtagNamedTitleInfo@@@1@@Z PROC ; std::allocator<std::pair<unsigned long const ,tagNamedTitleInfo> >::construct<std::pair<unsigned long,tagNamedTitleInfo> >, COMDAT
; _this$ = ecx

; 206  : 		void construct(pointer _Ptr, _Other&& _Val)

  00000	6a 04		 push	 4
  00002	b8 00 00 00 00	 mov	 eax, __ehhandler$??$construct@U?$pair@KUtagNamedTitleInfo@@@std@@@?$allocator@U?$pair@$$CBKUtagNamedTitleInfo@@@std@@@std@@QAEXPAU?$pair@$$CBKUtagNamedTitleInfo@@@1@$$QAU?$pair@KUtagNamedTitleInfo@@@1@@Z
  00007	e8 00 00 00 00	 call	 __EH_prolog3

; 207  : 		{	// construct object at _Ptr with value _Val
; 208  : 		::new ((void _FARQ *)_Ptr) _Ty(_STD forward<_Other>(_Val));

  0000c	8b 45 08	 mov	 eax, DWORD PTR __Ptr$[ebp]
  0000f	89 45 f0	 mov	 DWORD PTR $T540415[ebp], eax
  00012	83 65 fc 00	 and	 DWORD PTR __$EHRec$[ebp+8], 0
  00016	85 c0		 test	 eax, eax
  00018	74 13		 je	 SHORT $LN3@construct@3
  0001a	8b 4d 0c	 mov	 ecx, DWORD PTR __Val$[ebp]
  0001d	8b 11		 mov	 edx, DWORD PTR [ecx]
  0001f	83 c1 04	 add	 ecx, 4
  00022	51		 push	 ecx
  00023	8d 48 04	 lea	 ecx, DWORD PTR [eax+4]
  00026	89 10		 mov	 DWORD PTR [eax], edx
  00028	e8 00 00 00 00	 call	 ??0tagNamedTitleInfo@@QAE@ABU0@@Z
$LN3@construct@3:

; 209  : 		}

  0002d	e8 00 00 00 00	 call	 __EH_epilog3
  00032	c2 08 00	 ret	 8
_TEXT	ENDS
;	COMDAT text$x
text$x	SEGMENT
__unwindfunclet$??$construct@U?$pair@KUtagNamedTitleInfo@@@std@@@?$allocator@U?$pair@$$CBKUtagNamedTitleInfo@@@std@@@std@@QAEXPAU?$pair@$$CBKUtagNamedTitleInfo@@@1@$$QAU?$pair@KUtagNamedTitleInfo@@@1@@Z$0:
  00000	ff 75 08	 push	 DWORD PTR __Ptr$[ebp]
  00003	ff 75 f0	 push	 DWORD PTR $T540415[ebp]
  00006	e8 00 00 00 00	 call	 ??3@YAXPAX0@Z		; operator delete
  0000b	59		 pop	 ecx
  0000c	59		 pop	 ecx
  0000d	c3		 ret	 0
__ehhandler$??$construct@U?$pair@KUtagNamedTitleInfo@@@std@@@?$allocator@U?$pair@$$CBKUtagNamedTitleInfo@@@std@@@std@@QAEXPAU?$pair@$$CBKUtagNamedTitleInfo@@@1@$$QAU?$pair@KUtagNamedTitleInfo@@@1@@Z:
  0000e	8b 54 24 08	 mov	 edx, DWORD PTR [esp+8]
  00012	8d 42 0c	 lea	 eax, DWORD PTR [edx+12]
  00015	8b 4a ec	 mov	 ecx, DWORD PTR [edx-20]
  00018	33 c8		 xor	 ecx, eax
  0001a	e8 00 00 00 00	 call	 @__security_check_cookie@4
  0001f	b8 00 00 00 00	 mov	 eax, OFFSET __ehfuncinfo$??$construct@U?$pair@KUtagNamedTitleInfo@@@std@@@?$allocator@U?$pair@$$CBKUtagNamedTitleInfo@@@std@@@std@@QAEXPAU?$pair@$$CBKUtagNamedTitleInfo@@@1@$$QAU?$pair@KUtagNamedTitleInfo@@@1@@Z
  00024	e9 00 00 00 00	 jmp	 ___CxxFrameHandler3
text$x	ENDS
??$construct@U?$pair@KUtagNamedTitleInfo@@@std@@@?$allocator@U?$pair@$$CBKUtagNamedTitleInfo@@@std@@@std@@QAEXPAU?$pair@$$CBKUtagNamedTitleInfo@@@1@$$QAU?$pair@KUtagNamedTitleInfo@@@1@@Z ENDP ; std::allocator<std::pair<unsigned long const ,tagNamedTitleInfo> >::construct<std::pair<unsigned long,tagNamedTitleInfo> >
PUBLIC	??$make_pair@AAKAAUtagNamedTitleInfo@@@std@@YA?AU?$pair@KUtagNamedTitleInfo@@@0@AAKAAUtagNamedTitleInfo@@@Z ; std::make_pair<unsigned long &,tagNamedTitleInfo &>
; Function compile flags: /Ogsp
; File c:\program files (x86)\microsoft visual studio 10.0\vc\include\utility
;	COMDAT ??$make_pair@AAKAAUtagNamedTitleInfo@@@std@@YA?AU?$pair@KUtagNamedTitleInfo@@@0@AAKAAUtagNamedTitleInfo@@@Z
_TEXT	SEGMENT
$T540468 = -4						; size = 4
___$ReturnUdt$ = 8					; size = 4
__Val1$ = 12						; size = 4
__Val2$ = 16						; size = 4
??$make_pair@AAKAAUtagNamedTitleInfo@@@std@@YA?AU?$pair@KUtagNamedTitleInfo@@@0@AAKAAUtagNamedTitleInfo@@@Z PROC ; std::make_pair<unsigned long &,tagNamedTitleInfo &>, COMDAT

; 356  : 	{	// return pair composed from arguments

  00000	55		 push	 ebp
  00001	8b ec		 mov	 ebp, esp
  00003	51		 push	 ecx

; 357  : 	typedef pair<typename _Unrefwrap<_Ty1>::type,
; 358  : 		typename _Unrefwrap<_Ty2>::type> _Mypair;
; 359  : 	return (_Mypair(_STD forward<_Ty1>(_Val1),

  00004	8b 45 0c	 mov	 eax, DWORD PTR __Val1$[ebp]
  00007	8b 00		 mov	 eax, DWORD PTR [eax]
  00009	83 65 fc 00	 and	 DWORD PTR $T540468[ebp], 0
  0000d	56		 push	 esi
  0000e	8b 75 08	 mov	 esi, DWORD PTR ___$ReturnUdt$[ebp]
  00011	ff 75 10	 push	 DWORD PTR __Val2$[ebp]
  00014	8d 4e 04	 lea	 ecx, DWORD PTR [esi+4]
  00017	89 06		 mov	 DWORD PTR [esi], eax
  00019	e8 00 00 00 00	 call	 ??0tagNamedTitleInfo@@QAE@ABU0@@Z
  0001e	8b c6		 mov	 eax, esi
  00020	5e		 pop	 esi

; 360  : 		_STD forward<_Ty2>(_Val2)));
; 361  : 	}

  00021	c9		 leave
  00022	c3		 ret	 0
??$make_pair@AAKAAUtagNamedTitleInfo@@@std@@YA?AU?$pair@KUtagNamedTitleInfo@@@0@AAKAAUtagNamedTitleInfo@@@Z ENDP ; std::make_pair<unsigned long &,tagNamedTitleInfo &>
_TEXT	ENDS
PUBLIC	??$_Destroy@U?$pair@$$CBKUtagNamedTitleInfo@@@std@@@std@@YAXPAU?$pair@$$CBKUtagNamedTitleInfo@@@0@@Z ; std::_Destroy<std::pair<unsigned long const ,tagNamedTitleInfo> >
; Function compile flags: /Ogsp
; File c:\program files (x86)\microsoft visual studio 10.0\vc\include\xmemory
;	COMDAT ??$_Destroy@U?$pair@$$CBKUtagNamedTitleInfo@@@std@@@std@@YAXPAU?$pair@$$CBKUtagNamedTitleInfo@@@0@@Z
_TEXT	SEGMENT
__Ptr$ = 8						; size = 4
??$_Destroy@U?$pair@$$CBKUtagNamedTitleInfo@@@std@@@std@@YAXPAU?$pair@$$CBKUtagNamedTitleInfo@@@0@@Z PROC ; std::_Destroy<std::pair<unsigned long const ,tagNamedTitleInfo> >, COMDAT

; 62   : 	{	// destroy object at _Ptr

  00000	55		 push	 ebp
  00001	8b ec		 mov	 ebp, esp

; 63   : 	_Ptr->~_Ty();

  00003	8b 4d 08	 mov	 ecx, DWORD PTR __Ptr$[ebp]
  00006	83 c1 04	 add	 ecx, 4

; 64   : 	}

  00009	5d		 pop	 ebp

; 63   : 	_Ptr->~_Ty();

  0000a	e9 00 00 00 00	 jmp	 ??1tagNamedTitleInfo@@QAE@XZ
??$_Destroy@U?$pair@$$CBKUtagNamedTitleInfo@@@std@@@std@@YAXPAU?$pair@$$CBKUtagNamedTitleInfo@@@0@@Z ENDP ; std::_Destroy<std::pair<unsigned long const ,tagNamedTitleInfo> >
_TEXT	ENDS
PUBLIC	??$_Cons_val@V?$allocator@U?$pair@$$CBKUtagNamedTitleInfo@@@std@@@std@@U?$pair@$$CBKUtagNamedTitleInfo@@@2@U?$pair@KUtagNamedTitleInfo@@@2@@std@@YAXAAV?$allocator@U?$pair@$$CBKUtagNamedTitleInfo@@@std@@@0@PAU?$pair@$$CBKUtagNamedTitleInfo@@@0@$$QAU?$pair@KUtagNamedTitleInfo@@@0@@Z ; std::_Cons_val<std::allocator<std::pair<unsigned long const ,tagNamedTitleInfo> >,std::pair<unsigned long const ,tagNamedTitleInfo>,std::pair<unsigned long,tagNamedTitleInfo> >
; Function compile flags: /Ogsp
;	COMDAT ??$_Cons_val@V?$allocator@U?$pair@$$CBKUtagNamedTitleInfo@@@std@@@std@@U?$pair@$$CBKUtagNamedTitleInfo@@@2@U?$pair@KUtagNamedTitleInfo@@@2@@std@@YAXAAV?$allocator@U?$pair@$$CBKUtagNamedTitleInfo@@@std@@@0@PAU?$pair@$$CBKUtagNamedTitleInfo@@@0@$$QAU?$pair@KUtagNamedTitleInfo@@@0@@Z
_TEXT	SEGMENT
__Alval$ = 8						; size = 4
__Pdest$ = 12						; size = 4
__Src$ = 16						; size = 4
??$_Cons_val@V?$allocator@U?$pair@$$CBKUtagNamedTitleInfo@@@std@@@std@@U?$pair@$$CBKUtagNamedTitleInfo@@@2@U?$pair@KUtagNamedTitleInfo@@@2@@std@@YAXAAV?$allocator@U?$pair@$$CBKUtagNamedTitleInfo@@@std@@@0@PAU?$pair@$$CBKUtagNamedTitleInfo@@@0@$$QAU?$pair@KUtagNamedTitleInfo@@@0@@Z PROC ; std::_Cons_val<std::allocator<std::pair<unsigned long const ,tagNamedTitleInfo> >,std::pair<unsigned long const ,tagNamedTitleInfo>,std::pair<unsigned long,tagNamedTitleInfo> >, COMDAT

; 279  : 	{	// construct using allocator

  00000	55		 push	 ebp
  00001	8b ec		 mov	 ebp, esp

; 280  : 	_Alval.construct(_Pdest, _STD forward<_Ty2>(_Src));

  00003	ff 75 10	 push	 DWORD PTR __Src$[ebp]
  00006	8b 4d 08	 mov	 ecx, DWORD PTR __Alval$[ebp]
  00009	ff 75 0c	 push	 DWORD PTR __Pdest$[ebp]
  0000c	e8 00 00 00 00	 call	 ??$construct@U?$pair@KUtagNamedTitleInfo@@@std@@@?$allocator@U?$pair@$$CBKUtagNamedTitleInfo@@@std@@@std@@QAEXPAU?$pair@$$CBKUtagNamedTitleInfo@@@1@$$QAU?$pair@KUtagNamedTitleInfo@@@1@@Z ; std::allocator<std::pair<unsigned long const ,tagNamedTitleInfo> >::construct<std::pair<unsigned long,tagNamedTitleInfo> >

; 281  : 	}

  00011	5d		 pop	 ebp
  00012	c3		 ret	 0
??$_Cons_val@V?$allocator@U?$pair@$$CBKUtagNamedTitleInfo@@@std@@@std@@U?$pair@$$CBKUtagNamedTitleInfo@@@2@U?$pair@KUtagNamedTitleInfo@@@2@@std@@YAXAAV?$allocator@U?$pair@$$CBKUtagNamedTitleInfo@@@std@@@0@PAU?$pair@$$CBKUtagNamedTitleInfo@@@0@$$QAU?$pair@KUtagNamedTitleInfo@@@0@@Z ENDP ; std::_Cons_val<std::allocator<std::pair<unsigned long const ,tagNamedTitleInfo> >,std::pair<unsigned long const ,tagNamedTitleInfo>,std::pair<unsigned long,tagNamedTitleInfo> >
_TEXT	ENDS
PUBLIC	?destroy@?$allocator@U?$pair@$$CBKUtagNamedTitleInfo@@@std@@@std@@QAEXPAU?$pair@$$CBKUtagNamedTitleInfo@@@2@@Z ; std::allocator<std::pair<unsigned long const ,tagNamedTitleInfo> >::destroy
; Function compile flags: /Ogsp
;	COMDAT ?destroy@?$allocator@U?$pair@$$CBKUtagNamedTitleInfo@@@std@@@std@@QAEXPAU?$pair@$$CBKUtagNamedTitleInfo@@@2@@Z
_TEXT	SEGMENT
__Ptr$ = 8						; size = 4
?destroy@?$allocator@U?$pair@$$CBKUtagNamedTitleInfo@@@std@@@std@@QAEXPAU?$pair@$$CBKUtagNamedTitleInfo@@@2@@Z PROC ; std::allocator<std::pair<unsigned long const ,tagNamedTitleInfo> >::destroy, COMDAT
; _this$ = ecx

; 212  : 		{	// destroy object at _Ptr

  00000	55		 push	 ebp
  00001	8b ec		 mov	 ebp, esp

; 213  : 		_Destroy(_Ptr);

  00003	8b 4d 08	 mov	 ecx, DWORD PTR __Ptr$[ebp]
  00006	83 c1 04	 add	 ecx, 4
  00009	e8 00 00 00 00	 call	 ??1tagNamedTitleInfo@@QAE@XZ

; 214  : 		}

  0000e	5d		 pop	 ebp
  0000f	c2 04 00	 ret	 4
?destroy@?$allocator@U?$pair@$$CBKUtagNamedTitleInfo@@@std@@@std@@QAEXPAU?$pair@$$CBKUtagNamedTitleInfo@@@2@@Z ENDP ; std::allocator<std::pair<unsigned long const ,tagNamedTitleInfo> >::destroy
_TEXT	ENDS
PUBLIC	??$_Buynode@U?$pair@KUtagNamedTitleInfo@@@std@@@?$_Tree_val@V?$_Tmap_traits@KUtagNamedTitleInfo@@U?$less@K@std@@V?$allocator@U?$pair@$$CBKUtagNamedTitleInfo@@@std@@@3@$0A@@std@@@std@@QAEPAU_Node@?$_Tree_nod@V?$_Tmap_traits@KUtagNamedTitleInfo@@U?$less@K@std@@V?$allocator@U?$pair@$$CBKUtagNamedTitleInfo@@@std@@@3@$0A@@std@@@1@$$QAU?$pair@KUtagNamedTitleInfo@@@1@@Z ; std::_Tree_val<std::_Tmap_traits<unsigned long,tagNamedTitleInfo,std::less<unsigned long>,std::allocator<std::pair<unsigned long const ,tagNamedTitleInfo> >,0> >::_Buynode<std::pair<unsigned long,tagNamedTitleInfo> >
;	COMDAT xdata$x
xdata$x	SEGMENT
__catchsym$??$_Buynode@U?$pair@KUtagNamedTitleInfo@@@std@@@?$_Tree_val@V?$_Tmap_traits@KUtagNamedTitleInfo@@U?$less@K@std@@V?$allocator@U?$pair@$$CBKUtagNamedTitleInfo@@@std@@@3@$0A@@std@@@std@@QAEPAU_Node@?$_Tree_nod@V?$_Tmap_traits@KUtagNamedTitleInfo@@U?$less@K@std@@V?$allocator@U?$pair@$$CBKUtagNamedTitleInfo@@@std@@@3@$0A@@std@@@1@$$QAU?$pair@KUtagNamedTitleInfo@@@1@@Z$2 DD 040H
	DD	00H
	DD	00H
	DD	FLAT:__catch$??$_Buynode@U?$pair@KUtagNamedTitleInfo@@@std@@@?$_Tree_val@V?$_Tmap_traits@KUtagNamedTitleInfo@@U?$less@K@std@@V?$allocator@U?$pair@$$CBKUtagNamedTitleInfo@@@std@@@3@$0A@@std@@@std@@QAEPAU_Node@?$_Tree_nod@V?$_Tmap_traits@KUtagNamedTitleInfo@@U?$less@K@std@@V?$allocator@U?$pair@$$CBKUtagNamedTitleInfo@@@std@@@3@$0A@@std@@@1@$$QAU?$pair@KUtagNamedTitleInfo@@@1@@Z$0
__unwindtable$??$_Buynode@U?$pair@KUtagNamedTitleInfo@@@std@@@?$_Tree_val@V?$_Tmap_traits@KUtagNamedTitleInfo@@U?$less@K@std@@V?$allocator@U?$pair@$$CBKUtagNamedTitleInfo@@@std@@@3@$0A@@std@@@std@@QAEPAU_Node@?$_Tree_nod@V?$_Tmap_traits@KUtagNamedTitleInfo@@U?$less@K@std@@V?$allocator@U?$pair@$$CBKUtagNamedTitleInfo@@@std@@@3@$0A@@std@@@1@$$QAU?$pair@KUtagNamedTitleInfo@@@1@@Z DD 0ffffffffH
	DD	00H
	DD	0ffffffffH
	DD	00H
__tryblocktable$??$_Buynode@U?$pair@KUtagNamedTitleInfo@@@std@@@?$_Tree_val@V?$_Tmap_traits@KUtagNamedTitleInfo@@U?$less@K@std@@V?$allocator@U?$pair@$$CBKUtagNamedTitleInfo@@@std@@@3@$0A@@std@@@std@@QAEPAU_Node@?$_Tree_nod@V?$_Tmap_traits@KUtagNamedTitleInfo@@U?$less@K@std@@V?$allocator@U?$pair@$$CBKUtagNamedTitleInfo@@@std@@@3@$0A@@std@@@1@$$QAU?$pair@KUtagNamedTitleInfo@@@1@@Z DD 00H
	DD	00H
	DD	01H
	DD	01H
	DD	FLAT:__catchsym$??$_Buynode@U?$pair@KUtagNamedTitleInfo@@@std@@@?$_Tree_val@V?$_Tmap_traits@KUtagNamedTitleInfo@@U?$less@K@std@@V?$allocator@U?$pair@$$CBKUtagNamedTitleInfo@@@std@@@3@$0A@@std@@@std@@QAEPAU_Node@?$_Tree_nod@V?$_Tmap_traits@KUtagNamedTitleInfo@@U?$less@K@std@@V?$allocator@U?$pair@$$CBKUtagNamedTitleInfo@@@std@@@3@$0A@@std@@@1@$$QAU?$pair@KUtagNamedTitleInfo@@@1@@Z$2
__ehfuncinfo$??$_Buynode@U?$pair@KUtagNamedTitleInfo@@@std@@@?$_Tree_val@V?$_Tmap_traits@KUtagNamedTitleInfo@@U?$less@K@std@@V?$allocator@U?$pair@$$CBKUtagNamedTitleInfo@@@std@@@3@$0A@@std@@@std@@QAEPAU_Node@?$_Tree_nod@V?$_Tmap_traits@KUtagNamedTitleInfo@@U?$less@K@std@@V?$allocator@U?$pair@$$CBKUtagNamedTitleInfo@@@std@@@3@$0A@@std@@@1@$$QAU?$pair@KUtagNamedTitleInfo@@@1@@Z DD 019930522H
	DD	02H
	DD	FLAT:__unwindtable$??$_Buynode@U?$pair@KUtagNamedTitleInfo@@@std@@@?$_Tree_val@V?$_Tmap_traits@KUtagNamedTitleInfo@@U?$less@K@std@@V?$allocator@U?$pair@$$CBKUtagNamedTitleInfo@@@std@@@3@$0A@@std@@@std@@QAEPAU_Node@?$_Tree_nod@V?$_Tmap_traits@KUtagNamedTitleInfo@@U?$less@K@std@@V?$allocator@U?$pair@$$CBKUtagNamedTitleInfo@@@std@@@3@$0A@@std@@@1@$$QAU?$pair@KUtagNamedTitleInfo@@@1@@Z
	DD	01H
	DD	FLAT:__tryblocktable$??$_Buynode@U?$pair@KUtagNamedTitleInfo@@@std@@@?$_Tree_val@V?$_Tmap_traits@KUtagNamedTitleInfo@@U?$less@K@std@@V?$allocator@U?$pair@$$CBKUtagNamedTitleInfo@@@std@@@3@$0A@@std@@@std@@QAEPAU_Node@?$_Tree_nod@V?$_Tmap_traits@KUtagNamedTitleInfo@@U?$less@K@std@@V?$allocator@U?$pair@$$CBKUtagNamedTitleInfo@@@std@@@3@$0A@@std@@@1@$$QAU?$pair@KUtagNamedTitleInfo@@@1@@Z
	DD	2 DUP(00H)
	DD	00H
	DD	01H
; Function compile flags: /Ogsp
; File c:\program files (x86)\microsoft visual studio 10.0\vc\include\xtree
xdata$x	ENDS
;	COMDAT ??$_Buynode@U?$pair@KUtagNamedTitleInfo@@@std@@@?$_Tree_val@V?$_Tmap_traits@KUtagNamedTitleInfo@@U?$less@K@std@@V?$allocator@U?$pair@$$CBKUtagNamedTitleInfo@@@std@@@3@$0A@@std@@@std@@QAEPAU_Node@?$_Tree_nod@V?$_Tmap_traits@KUtagNamedTitleInfo@@U?$less@K@std@@V?$allocator@U?$pair@$$CBKUtagNamedTitleInfo@@@std@@@3@$0A@@std@@@1@$$QAU?$pair@KUtagNamedTitleInfo@@@1@@Z
_TEXT	SEGMENT
__Wherenode$ = -20					; size = 4
__$EHRec$ = -16						; size = 16
__Val$ = 8						; size = 4
??$_Buynode@U?$pair@KUtagNamedTitleInfo@@@std@@@?$_Tree_val@V?$_Tmap_traits@KUtagNamedTitleInfo@@U?$less@K@std@@V?$allocator@U?$pair@$$CBKUtagNamedTitleInfo@@@std@@@3@$0A@@std@@@std@@QAEPAU_Node@?$_Tree_nod@V?$_Tmap_traits@KUtagNamedTitleInfo@@U?$less@K@std@@V?$allocator@U?$pair@$$CBKUtagNamedTitleInfo@@@std@@@3@$0A@@std@@@1@$$QAU?$pair@KUtagNamedTitleInfo@@@1@@Z PROC ; std::_Tree_val<std::_Tmap_traits<unsigned long,tagNamedTitleInfo,std::less<unsigned long>,std::allocator<std::pair<unsigned long const ,tagNamedTitleInfo> >,0> >::_Buynode<std::pair<unsigned long,tagNamedTitleInfo> >, COMDAT
; _this$ = ecx

; 586  : 		_Nodeptr _Buynode(_Valty&& _Val)

  00000	6a 08		 push	 8
  00002	b8 00 00 00 00	 mov	 eax, __ehhandler$??$_Buynode@U?$pair@KUtagNamedTitleInfo@@@std@@@?$_Tree_val@V?$_Tmap_traits@KUtagNamedTitleInfo@@U?$less@K@std@@V?$allocator@U?$pair@$$CBKUtagNamedTitleInfo@@@std@@@3@$0A@@std@@@std@@QAEPAU_Node@?$_Tree_nod@V?$_Tmap_traits@KUtagNamedTitleInfo@@U?$less@K@std@@V?$allocator@U?$pair@$$CBKUtagNamedTitleInfo@@@std@@@3@$0A@@std@@@1@$$QAU?$pair@KUtagNamedTitleInfo@@@1@@Z
  00007	e8 00 00 00 00	 call	 __EH_prolog3_catch
  0000c	8b f1		 mov	 esi, ecx

; 587  : 		{	// allocate a node with defaults
; 588  : 		_Nodeptr _Wherenode = _Buynode();

  0000e	e8 00 00 00 00	 call	 ?_Buynode@?$_Tree_val@V?$_Tmap_traits@KUtagNamedTitleInfo@@U?$less@K@std@@V?$allocator@U?$pair@$$CBKUtagNamedTitleInfo@@@std@@@3@$0A@@std@@@std@@QAEPAU_Node@?$_Tree_nod@V?$_Tmap_traits@KUtagNamedTitleInfo@@U?$less@K@std@@V?$allocator@U?$pair@$$CBKUtagNamedTitleInfo@@@std@@@3@$0A@@std@@@2@XZ ; std::_Tree_val<std::_Tmap_traits<unsigned long,tagNamedTitleInfo,std::less<unsigned long>,std::allocator<std::pair<unsigned long const ,tagNamedTitleInfo> >,0> >::_Buynode

; 589  : 
; 590  : 		_TRY_BEGIN
; 591  : 		_Cons_val(this->_Alval, _STD addressof(this->_Myval(_Wherenode)),
; 592  : 			_STD forward<_Valty>(_Val));

  00013	ff 75 08	 push	 DWORD PTR __Val$[ebp]
  00016	83 65 fc 00	 and	 DWORD PTR __$EHRec$[ebp+12], 0
  0001a	8b f8		 mov	 edi, eax
  0001c	8d 47 0c	 lea	 eax, DWORD PTR [edi+12]
  0001f	50		 push	 eax
  00020	8d 4e 0d	 lea	 ecx, DWORD PTR [esi+13]
  00023	89 7d ec	 mov	 DWORD PTR __Wherenode$[ebp], edi
  00026	e8 00 00 00 00	 call	 ??$construct@U?$pair@KUtagNamedTitleInfo@@@std@@@?$allocator@U?$pair@$$CBKUtagNamedTitleInfo@@@std@@@std@@QAEXPAU?$pair@$$CBKUtagNamedTitleInfo@@@1@$$QAU?$pair@KUtagNamedTitleInfo@@@1@@Z ; std::allocator<std::pair<unsigned long const ,tagNamedTitleInfo> >::construct<std::pair<unsigned long,tagNamedTitleInfo> >

; 596  : 		_CATCH_END
; 597  : 
; 598  : 		return (_Wherenode);

  0002b	8b c7		 mov	 eax, edi

; 599  : 		}

  0002d	e8 00 00 00 00	 call	 __EH_epilog3
  00032	c2 04 00	 ret	 4
__catch$??$_Buynode@U?$pair@KUtagNamedTitleInfo@@@std@@@?$_Tree_val@V?$_Tmap_traits@KUtagNamedTitleInfo@@U?$less@K@std@@V?$allocator@U?$pair@$$CBKUtagNamedTitleInfo@@@std@@@3@$0A@@std@@@std@@QAEPAU_Node@?$_Tree_nod@V?$_Tmap_traits@KUtagNamedTitleInfo@@U?$less@K@std@@V?$allocator@U?$pair@$$CBKUtagNamedTitleInfo@@@std@@@3@$0A@@std@@@1@$$QAU?$pair@KUtagNamedTitleInfo@@@1@@Z$0:

; 593  : 		_CATCH_ALL
; 594  : 		this->_Alnod.deallocate(_Wherenode, 1);

  00035	ff 75 ec	 push	 DWORD PTR __Wherenode$[ebp]
  00038	e8 00 00 00 00	 call	 ??3@YAXPAX@Z		; operator delete
  0003d	59		 pop	 ecx

; 595  : 		_RERAISE;

  0003e	6a 00		 push	 0
  00040	6a 00		 push	 0
  00042	e8 00 00 00 00	 call	 __CxxThrowException@8
$LN23@Buynode@2:
$LN22@Buynode@2:
  00047	cc		 int	 3
_TEXT	ENDS
;	COMDAT text$x
text$x	SEGMENT
__ehhandler$??$_Buynode@U?$pair@KUtagNamedTitleInfo@@@std@@@?$_Tree_val@V?$_Tmap_traits@KUtagNamedTitleInfo@@U?$less@K@std@@V?$allocator@U?$pair@$$CBKUtagNamedTitleInfo@@@std@@@3@$0A@@std@@@std@@QAEPAU_Node@?$_Tree_nod@V?$_Tmap_traits@KUtagNamedTitleInfo@@U?$less@K@std@@V?$allocator@U?$pair@$$CBKUtagNamedTitleInfo@@@std@@@3@$0A@@std@@@1@$$QAU?$pair@KUtagNamedTitleInfo@@@1@@Z:
  00000	8b 54 24 08	 mov	 edx, DWORD PTR [esp+8]
  00004	8d 42 0c	 lea	 eax, DWORD PTR [edx+12]
  00007	8b 4a e8	 mov	 ecx, DWORD PTR [edx-24]
  0000a	33 c8		 xor	 ecx, eax
  0000c	e8 00 00 00 00	 call	 @__security_check_cookie@4
  00011	b8 00 00 00 00	 mov	 eax, OFFSET __ehfuncinfo$??$_Buynode@U?$pair@KUtagNamedTitleInfo@@@std@@@?$_Tree_val@V?$_Tmap_traits@KUtagNamedTitleInfo@@U?$less@K@std@@V?$allocator@U?$pair@$$CBKUtagNamedTitleInfo@@@std@@@3@$0A@@std@@@std@@QAEPAU_Node@?$_Tree_nod@V?$_Tmap_traits@KUtagNamedTitleInfo@@U?$less@K@std@@V?$allocator@U?$pair@$$CBKUtagNamedTitleInfo@@@std@@@3@$0A@@std@@@1@$$QAU?$pair@KUtagNamedTitleInfo@@@1@@Z
  00016	e9 00 00 00 00	 jmp	 ___CxxFrameHandler3
text$x	ENDS
??$_Buynode@U?$pair@KUtagNamedTitleInfo@@@std@@@?$_Tree_val@V?$_Tmap_traits@KUtagNamedTitleInfo@@U?$less@K@std@@V?$allocator@U?$pair@$$CBKUtagNamedTitleInfo@@@std@@@3@$0A@@std@@@std@@QAEPAU_Node@?$_Tree_nod@V?$_Tmap_traits@KUtagNamedTitleInfo@@U?$less@K@std@@V?$allocator@U?$pair@$$CBKUtagNamedTitleInfo@@@std@@@3@$0A@@std@@@1@$$QAU?$pair@KUtagNamedTitleInfo@@@1@@Z ENDP ; std::_Tree_val<std::_Tmap_traits<unsigned long,tagNamedTitleInfo,std::less<unsigned long>,std::allocator<std::pair<unsigned long const ,tagNamedTitleInfo> >,0> >::_Buynode<std::pair<unsigned long,tagNamedTitleInfo> >
PUBLIC	??$_Dest_val@V?$allocator@U?$pair@$$CBKUtagNamedTitleInfo@@@std@@@std@@U?$pair@$$CBKUtagNamedTitleInfo@@@2@@std@@YAXAAV?$allocator@U?$pair@$$CBKUtagNamedTitleInfo@@@std@@@0@PAU?$pair@$$CBKUtagNamedTitleInfo@@@0@@Z ; std::_Dest_val<std::allocator<std::pair<unsigned long const ,tagNamedTitleInfo> >,std::pair<unsigned long const ,tagNamedTitleInfo> >
; Function compile flags: /Ogsp
; File c:\program files (x86)\microsoft visual studio 10.0\vc\include\xmemory
;	COMDAT ??$_Dest_val@V?$allocator@U?$pair@$$CBKUtagNamedTitleInfo@@@std@@@std@@U?$pair@$$CBKUtagNamedTitleInfo@@@2@@std@@YAXAAV?$allocator@U?$pair@$$CBKUtagNamedTitleInfo@@@std@@@0@PAU?$pair@$$CBKUtagNamedTitleInfo@@@0@@Z
_TEXT	SEGMENT
__Alval$ = 8						; size = 4
__Pdest$ = 12						; size = 4
??$_Dest_val@V?$allocator@U?$pair@$$CBKUtagNamedTitleInfo@@@std@@@std@@U?$pair@$$CBKUtagNamedTitleInfo@@@2@@std@@YAXAAV?$allocator@U?$pair@$$CBKUtagNamedTitleInfo@@@std@@@0@PAU?$pair@$$CBKUtagNamedTitleInfo@@@0@@Z PROC ; std::_Dest_val<std::allocator<std::pair<unsigned long const ,tagNamedTitleInfo> >,std::pair<unsigned long const ,tagNamedTitleInfo> >, COMDAT

; 286  : 	{	// destroy using allocator

  00000	55		 push	 ebp
  00001	8b ec		 mov	 ebp, esp

; 287  : 	_Alval.destroy(_Pdest);

  00003	8b 4d 0c	 mov	 ecx, DWORD PTR __Pdest$[ebp]
  00006	83 c1 04	 add	 ecx, 4

; 288  : 	}

  00009	5d		 pop	 ebp

; 287  : 	_Alval.destroy(_Pdest);

  0000a	e9 00 00 00 00	 jmp	 ??1tagNamedTitleInfo@@QAE@XZ
??$_Dest_val@V?$allocator@U?$pair@$$CBKUtagNamedTitleInfo@@@std@@@std@@U?$pair@$$CBKUtagNamedTitleInfo@@@2@@std@@YAXAAV?$allocator@U?$pair@$$CBKUtagNamedTitleInfo@@@std@@@0@PAU?$pair@$$CBKUtagNamedTitleInfo@@@0@@Z ENDP ; std::_Dest_val<std::allocator<std::pair<unsigned long const ,tagNamedTitleInfo> >,std::pair<unsigned long const ,tagNamedTitleInfo> >
_TEXT	ENDS
PUBLIC	??_C@_0BE@JONHPENG@map?1set?$DMT?$DO?5too?5long?$AA@ ; `string'
PUBLIC	?_Insert@?$_Tree@V?$_Tmap_traits@KUtagNamedTitleInfo@@U?$less@K@std@@V?$allocator@U?$pair@$$CBKUtagNamedTitleInfo@@@std@@@3@$0A@@std@@@std@@IAE?AV?$_Tree_iterator@V?$_Tree_val@V?$_Tmap_traits@KUtagNamedTitleInfo@@U?$less@K@std@@V?$allocator@U?$pair@$$CBKUtagNamedTitleInfo@@@std@@@3@$0A@@std@@@std@@@2@_NPAU_Node@?$_Tree_nod@V?$_Tmap_traits@KUtagNamedTitleInfo@@U?$less@K@std@@V?$allocator@U?$pair@$$CBKUtagNamedTitleInfo@@@std@@@3@$0A@@std@@@2@1@Z ; std::_Tree<std::_Tmap_traits<unsigned long,tagNamedTitleInfo,std::less<unsigned long>,std::allocator<std::pair<unsigned long const ,tagNamedTitleInfo> >,0> >::_Insert
;	COMDAT ??_C@_0BE@JONHPENG@map?1set?$DMT?$DO?5too?5long?$AA@
; File c:\program files (x86)\microsoft visual studio 10.0\vc\include\xutility
CONST	SEGMENT
??_C@_0BE@JONHPENG@map?1set?$DMT?$DO?5too?5long?$AA@ DB 'map/set<T> too l'
	DB	'ong', 00H					; `string'
; Function compile flags: /Ogsp
; File c:\program files (x86)\microsoft visual studio 10.0\vc\include\xtree
CONST	ENDS
;	COMDAT ?_Insert@?$_Tree@V?$_Tmap_traits@KUtagNamedTitleInfo@@U?$less@K@std@@V?$allocator@U?$pair@$$CBKUtagNamedTitleInfo@@@std@@@3@$0A@@std@@@std@@IAE?AV?$_Tree_iterator@V?$_Tree_val@V?$_Tmap_traits@KUtagNamedTitleInfo@@U?$less@K@std@@V?$allocator@U?$pair@$$CBKUtagNamedTitleInfo@@@std@@@3@$0A@@std@@@std@@@2@_NPAU_Node@?$_Tree_nod@V?$_Tmap_traits@KUtagNamedTitleInfo@@U?$less@K@std@@V?$allocator@U?$pair@$$CBKUtagNamedTitleInfo@@@std@@@3@$0A@@std@@@2@1@Z
_TEXT	SEGMENT
___$ReturnUdt$ = 8					; size = 4
__Addleft$ = 12						; size = 1
__Wherenode$ = 16					; size = 4
__Newnode$ = 20						; size = 4
?_Insert@?$_Tree@V?$_Tmap_traits@KUtagNamedTitleInfo@@U?$less@K@std@@V?$allocator@U?$pair@$$CBKUtagNamedTitleInfo@@@std@@@3@$0A@@std@@@std@@IAE?AV?$_Tree_iterator@V?$_Tree_val@V?$_Tmap_traits@KUtagNamedTitleInfo@@U?$less@K@std@@V?$allocator@U?$pair@$$CBKUtagNamedTitleInfo@@@std@@@3@$0A@@std@@@std@@@2@_NPAU_Node@?$_Tree_nod@V?$_Tmap_traits@KUtagNamedTitleInfo@@U?$less@K@std@@V?$allocator@U?$pair@$$CBKUtagNamedTitleInfo@@@std@@@3@$0A@@std@@@2@1@Z PROC ; std::_Tree<std::_Tmap_traits<unsigned long,tagNamedTitleInfo,std::less<unsigned long>,std::allocator<std::pair<unsigned long const ,tagNamedTitleInfo> >,0> >::_Insert, COMDAT
; _this$ = ecx

; 1631 : 		{	// add node with value next to _Wherenode, to left if _Addleft

  00000	55		 push	 ebp
  00001	8b ec		 mov	 ebp, esp
  00003	53		 push	 ebx
  00004	56		 push	 esi
  00005	57		 push	 edi
  00006	8b f9		 mov	 edi, ecx

; 1632 : 		if (max_size() - 1 <= this->_Mysize)

  00008	8b 47 08	 mov	 eax, DWORD PTR [edi+8]
  0000b	3d 65 66 66 06	 cmp	 eax, 107374181		; 06666665H
  00010	72 1e		 jb	 SHORT $LN17@Insert

; 1633 : 			{	// tree would get too big, fail
; 1634 : 			_Dest_val(this->_Alval,
; 1635 : 				_STD addressof(this->_Myval(_Newnode)));

  00012	8b 75 14	 mov	 esi, DWORD PTR __Newnode$[ebp]
  00015	8d 4e 10	 lea	 ecx, DWORD PTR [esi+16]
  00018	e8 00 00 00 00	 call	 ??1tagNamedTitleInfo@@QAE@XZ

; 1636 : 
; 1637 : 			this->_Alnod.deallocate(_Newnode, 1);

  0001d	56		 push	 esi
  0001e	e8 00 00 00 00	 call	 ??3@YAXPAX@Z		; operator delete

; 1638 : 
; 1639 : 			_Xlength_error("map/set<T> too long");

  00023	c7 04 24 00 00
	00 00		 mov	 DWORD PTR [esp], OFFSET ??_C@_0BE@JONHPENG@map?1set?$DMT?$DO?5too?5long?$AA@
  0002a	ff 15 00 00 00
	00		 call	 DWORD PTR __imp_?_Xlength_error@std@@YAXPBD@Z
$LN197@Insert:
$LN17@Insert:

; 1640 : 			}
; 1641 : 		++this->_Mysize;
; 1642 : 		_Newnode->_Parent = _Wherenode;

  00030	8b 5d 14	 mov	 ebx, DWORD PTR __Newnode$[ebp]
  00033	40		 inc	 eax
  00034	89 47 08	 mov	 DWORD PTR [edi+8], eax
  00037	8b 45 10	 mov	 eax, DWORD PTR __Wherenode$[ebp]
  0003a	89 43 04	 mov	 DWORD PTR [ebx+4], eax

; 1643 : 
; 1644 : 		if (_Wherenode == this->_Myhead)

  0003d	8b 4f 04	 mov	 ecx, DWORD PTR [edi+4]
  00040	3b c1		 cmp	 eax, ecx
  00042	75 10		 jne	 SHORT $LN16@Insert

; 1645 : 			{	// first node in tree, just set head values
; 1646 : 			_Root() = _Newnode;

  00044	89 59 04	 mov	 DWORD PTR [ecx+4], ebx

; 1647 : 			_Lmost() = _Newnode;

  00047	8b 47 04	 mov	 eax, DWORD PTR [edi+4]
  0004a	89 18		 mov	 DWORD PTR [eax], ebx

; 1648 : 			_Rmost() = _Newnode;

  0004c	8b 47 04	 mov	 eax, DWORD PTR [edi+4]
  0004f	89 58 08	 mov	 DWORD PTR [eax+8], ebx
  00052	eb 21		 jmp	 SHORT $LN11@Insert
$LN16@Insert:

; 1649 : 			}
; 1650 : 		else if (_Addleft)

  00054	80 7d 0c 00	 cmp	 BYTE PTR __Addleft$[ebp], 0
  00058	74 0d		 je	 SHORT $LN14@Insert

; 1651 : 			{	// add to left of _Wherenode
; 1652 : 			this->_Left(_Wherenode) = _Newnode;

  0005a	89 18		 mov	 DWORD PTR [eax], ebx

; 1653 : 			if (_Wherenode == _Lmost())

  0005c	8b 4f 04	 mov	 ecx, DWORD PTR [edi+4]
  0005f	3b 01		 cmp	 eax, DWORD PTR [ecx]
  00061	75 12		 jne	 SHORT $LN11@Insert

; 1654 : 				_Lmost() = _Newnode;

  00063	89 19		 mov	 DWORD PTR [ecx], ebx

; 1655 : 			}
; 1656 : 		else

  00065	eb 0e		 jmp	 SHORT $LN11@Insert
$LN14@Insert:

; 1657 : 			{	// add to right of _Wherenode
; 1658 : 			this->_Right(_Wherenode) = _Newnode;

  00067	89 58 08	 mov	 DWORD PTR [eax+8], ebx

; 1659 : 			if (_Wherenode == _Rmost())

  0006a	8b 4f 04	 mov	 ecx, DWORD PTR [edi+4]
  0006d	3b 41 08	 cmp	 eax, DWORD PTR [ecx+8]
  00070	75 03		 jne	 SHORT $LN11@Insert

; 1660 : 				_Rmost() = _Newnode;

  00072	89 59 08	 mov	 DWORD PTR [ecx+8], ebx
$LN11@Insert:

; 1661 : 			}
; 1662 : 
; 1663 : 		for (_Nodeptr _Pnode = _Newnode;
; 1664 : 			this->_Color(this->_Parent(_Pnode)) == this->_Red; )

  00075	8b 43 04	 mov	 eax, DWORD PTR [ebx+4]
  00078	8b f3		 mov	 esi, ebx
  0007a	e9 93 00 00 00	 jmp	 $LN195@Insert
$LL10@Insert:

; 1665 : 			if (this->_Parent(_Pnode)
; 1666 : 				== this->_Left(this->_Parent(this->_Parent(_Pnode))))

  0007f	8b 46 04	 mov	 eax, DWORD PTR [esi+4]
  00082	8b 48 04	 mov	 ecx, DWORD PTR [eax+4]
  00085	3b 01		 cmp	 eax, DWORD PTR [ecx]
  00087	75 38		 jne	 SHORT $LN8@Insert

; 1667 : 				{	// fixup red-red in left subtree
; 1668 : 				_Wherenode =
; 1669 : 					this->_Right(this->_Parent(this->_Parent(_Pnode)));

  00089	8b 49 08	 mov	 ecx, DWORD PTR [ecx+8]

; 1670 : 				if (this->_Color(_Wherenode) == this->_Red)

  0008c	80 79 34 00	 cmp	 BYTE PTR [ecx+52], 0

; 1671 : 					{	// parent has two red children, blacken both
; 1672 : 					this->_Color(this->_Parent(_Pnode)) = this->_Black;
; 1673 : 					this->_Color(_Wherenode) = this->_Black;
; 1674 : 					this->_Color(this->_Parent(this->_Parent(_Pnode)))
; 1675 : 						= this->_Red;
; 1676 : 					_Pnode = this->_Parent(this->_Parent(_Pnode));
; 1677 : 					}
; 1678 : 				else

  00090	74 37		 je	 SHORT $LN196@Insert

; 1679 : 					{	// parent has red and black children
; 1680 : 					if (_Pnode == this->_Right(this->_Parent(_Pnode)))

  00092	3b 70 08	 cmp	 esi, DWORD PTR [eax+8]
  00095	75 0a		 jne	 SHORT $LN5@Insert

; 1681 : 						{	// rotate right child to left
; 1682 : 						_Pnode = this->_Parent(_Pnode);

  00097	8b f0		 mov	 esi, eax

; 1683 : 						_Lrotate(_Pnode);

  00099	56		 push	 esi
  0009a	8b cf		 mov	 ecx, edi
  0009c	e8 00 00 00 00	 call	 ?_Lrotate@?$_Tree@V?$_Tmap_traits@KUtagNamedTitleInfo@@U?$less@K@std@@V?$allocator@U?$pair@$$CBKUtagNamedTitleInfo@@@std@@@3@$0A@@std@@@std@@IAEXPAU_Node@?$_Tree_nod@V?$_Tmap_traits@KUtagNamedTitleInfo@@U?$less@K@std@@V?$allocator@U?$pair@$$CBKUtagNamedTitleInfo@@@std@@@3@$0A@@std@@@2@@Z ; std::_Tree<std::_Tmap_traits<unsigned long,tagNamedTitleInfo,std::less<unsigned long>,std::allocator<std::pair<unsigned long const ,tagNamedTitleInfo> >,0> >::_Lrotate
$LN5@Insert:

; 1684 : 						}
; 1685 : 					this->_Color(this->_Parent(_Pnode)) =
; 1686 : 						this->_Black;	// propagate red up

  000a1	8b 46 04	 mov	 eax, DWORD PTR [esi+4]
  000a4	c6 40 34 01	 mov	 BYTE PTR [eax+52], 1

; 1687 : 					this->_Color(this->_Parent(this->_Parent(_Pnode))) =
; 1688 : 						this->_Red;

  000a8	8b 46 04	 mov	 eax, DWORD PTR [esi+4]
  000ab	8b 40 04	 mov	 eax, DWORD PTR [eax+4]
  000ae	c6 40 34 00	 mov	 BYTE PTR [eax+52], 0

; 1689 : 					_Rrotate(this->_Parent(this->_Parent(_Pnode)));

  000b2	8b 46 04	 mov	 eax, DWORD PTR [esi+4]
  000b5	ff 70 04	 push	 DWORD PTR [eax+4]
  000b8	8b cf		 mov	 ecx, edi
  000ba	e8 00 00 00 00	 call	 ?_Rrotate@?$_Tree@V?$_Tmap_traits@KUtagNamedTitleInfo@@U?$less@K@std@@V?$allocator@U?$pair@$$CBKUtagNamedTitleInfo@@@std@@@3@$0A@@std@@@std@@IAEXPAU_Node@?$_Tree_nod@V?$_Tmap_traits@KUtagNamedTitleInfo@@U?$less@K@std@@V?$allocator@U?$pair@$$CBKUtagNamedTitleInfo@@@std@@@3@$0A@@std@@@2@@Z ; std::_Tree<std::_Tmap_traits<unsigned long,tagNamedTitleInfo,std::less<unsigned long>,std::allocator<std::pair<unsigned long const ,tagNamedTitleInfo> >,0> >::_Rrotate

; 1690 : 					}
; 1691 : 				}
; 1692 : 			else

  000bf	eb 4e		 jmp	 SHORT $LN2@Insert
$LN8@Insert:

; 1693 : 				{	// fixup red-red in right subtree
; 1694 : 				_Wherenode =
; 1695 : 					this->_Left(this->_Parent(this->_Parent(_Pnode)));

  000c1	8b 09		 mov	 ecx, DWORD PTR [ecx]

; 1696 : 				if (this->_Color(_Wherenode) == this->_Red)

  000c3	80 79 34 00	 cmp	 BYTE PTR [ecx+52], 0
  000c7	75 1a		 jne	 SHORT $LN3@Insert
$LN196@Insert:

; 1697 : 					{	// parent has two red children, blacken both
; 1698 : 					this->_Color(this->_Parent(_Pnode)) = this->_Black;

  000c9	c6 40 34 01	 mov	 BYTE PTR [eax+52], 1

; 1699 : 					this->_Color(_Wherenode) = this->_Black;

  000cd	c6 41 34 01	 mov	 BYTE PTR [ecx+52], 1

; 1700 : 					this->_Color(this->_Parent(this->_Parent(_Pnode))) =
; 1701 : 						this->_Red;

  000d1	8b 46 04	 mov	 eax, DWORD PTR [esi+4]
  000d4	8b 40 04	 mov	 eax, DWORD PTR [eax+4]
  000d7	c6 40 34 00	 mov	 BYTE PTR [eax+52], 0

; 1702 : 					_Pnode = this->_Parent(this->_Parent(_Pnode));

  000db	8b 46 04	 mov	 eax, DWORD PTR [esi+4]
  000de	8b 70 04	 mov	 esi, DWORD PTR [eax+4]

; 1703 : 					}
; 1704 : 				else

  000e1	eb 2c		 jmp	 SHORT $LN2@Insert
$LN3@Insert:

; 1705 : 					{	// parent has red and black children
; 1706 : 					if (_Pnode == this->_Left(this->_Parent(_Pnode)))

  000e3	3b 30		 cmp	 esi, DWORD PTR [eax]
  000e5	75 0a		 jne	 SHORT $LN1@Insert

; 1707 : 						{	// rotate left child to right
; 1708 : 						_Pnode = this->_Parent(_Pnode);

  000e7	8b f0		 mov	 esi, eax

; 1709 : 						_Rrotate(_Pnode);

  000e9	56		 push	 esi
  000ea	8b cf		 mov	 ecx, edi
  000ec	e8 00 00 00 00	 call	 ?_Rrotate@?$_Tree@V?$_Tmap_traits@KUtagNamedTitleInfo@@U?$less@K@std@@V?$allocator@U?$pair@$$CBKUtagNamedTitleInfo@@@std@@@3@$0A@@std@@@std@@IAEXPAU_Node@?$_Tree_nod@V?$_Tmap_traits@KUtagNamedTitleInfo@@U?$less@K@std@@V?$allocator@U?$pair@$$CBKUtagNamedTitleInfo@@@std@@@3@$0A@@std@@@2@@Z ; std::_Tree<std::_Tmap_traits<unsigned long,tagNamedTitleInfo,std::less<unsigned long>,std::allocator<std::pair<unsigned long const ,tagNamedTitleInfo> >,0> >::_Rrotate
$LN1@Insert:

; 1710 : 						}
; 1711 : 					this->_Color(this->_Parent(_Pnode)) =
; 1712 : 						this->_Black;	// propagate red up

  000f1	8b 46 04	 mov	 eax, DWORD PTR [esi+4]
  000f4	c6 40 34 01	 mov	 BYTE PTR [eax+52], 1

; 1713 : 					this->_Color(this->_Parent(this->_Parent(_Pnode))) =
; 1714 : 						this->_Red;

  000f8	8b 46 04	 mov	 eax, DWORD PTR [esi+4]
  000fb	8b 40 04	 mov	 eax, DWORD PTR [eax+4]
  000fe	c6 40 34 00	 mov	 BYTE PTR [eax+52], 0

; 1715 : 					_Lrotate(this->_Parent(this->_Parent(_Pnode)));

  00102	8b 46 04	 mov	 eax, DWORD PTR [esi+4]
  00105	ff 70 04	 push	 DWORD PTR [eax+4]
  00108	8b cf		 mov	 ecx, edi
  0010a	e8 00 00 00 00	 call	 ?_Lrotate@?$_Tree@V?$_Tmap_traits@KUtagNamedTitleInfo@@U?$less@K@std@@V?$allocator@U?$pair@$$CBKUtagNamedTitleInfo@@@std@@@3@$0A@@std@@@std@@IAEXPAU_Node@?$_Tree_nod@V?$_Tmap_traits@KUtagNamedTitleInfo@@U?$less@K@std@@V?$allocator@U?$pair@$$CBKUtagNamedTitleInfo@@@std@@@3@$0A@@std@@@2@@Z ; std::_Tree<std::_Tmap_traits<unsigned long,tagNamedTitleInfo,std::less<unsigned long>,std::allocator<std::pair<unsigned long const ,tagNamedTitleInfo> >,0> >::_Lrotate
$LN2@Insert:

; 1661 : 			}
; 1662 : 
; 1663 : 		for (_Nodeptr _Pnode = _Newnode;
; 1664 : 			this->_Color(this->_Parent(_Pnode)) == this->_Red; )

  0010f	8b 46 04	 mov	 eax, DWORD PTR [esi+4]
$LN195@Insert:
  00112	80 78 34 00	 cmp	 BYTE PTR [eax+52], 0
  00116	0f 84 63 ff ff
	ff		 je	 $LL10@Insert

; 1716 : 					}
; 1717 : 				}
; 1718 : 
; 1719 : 		this->_Color(_Root()) = this->_Black;	// root is always black

  0011c	8b 47 04	 mov	 eax, DWORD PTR [edi+4]
  0011f	8b 40 04	 mov	 eax, DWORD PTR [eax+4]
  00122	5f		 pop	 edi
  00123	c6 40 34 01	 mov	 BYTE PTR [eax+52], 1

; 1720 : 		return (iterator(_Newnode, this));

  00127	8b 45 08	 mov	 eax, DWORD PTR ___$ReturnUdt$[ebp]
  0012a	5e		 pop	 esi
  0012b	89 18		 mov	 DWORD PTR [eax], ebx
  0012d	5b		 pop	 ebx

; 1721 : 		}

  0012e	5d		 pop	 ebp
  0012f	c2 10 00	 ret	 16			; 00000010H
$LN194@Insert:
?_Insert@?$_Tree@V?$_Tmap_traits@KUtagNamedTitleInfo@@U?$less@K@std@@V?$allocator@U?$pair@$$CBKUtagNamedTitleInfo@@@std@@@3@$0A@@std@@@std@@IAE?AV?$_Tree_iterator@V?$_Tree_val@V?$_Tmap_traits@KUtagNamedTitleInfo@@U?$less@K@std@@V?$allocator@U?$pair@$$CBKUtagNamedTitleInfo@@@std@@@3@$0A@@std@@@std@@@2@_NPAU_Node@?$_Tree_nod@V?$_Tmap_traits@KUtagNamedTitleInfo@@U?$less@K@std@@V?$allocator@U?$pair@$$CBKUtagNamedTitleInfo@@@std@@@3@$0A@@std@@@2@1@Z ENDP ; std::_Tree<std::_Tmap_traits<unsigned long,tagNamedTitleInfo,std::less<unsigned long>,std::allocator<std::pair<unsigned long const ,tagNamedTitleInfo> >,0> >::_Insert
_TEXT	ENDS
PUBLIC	?_Erase@?$_Tree@V?$_Tmap_traits@KUtagNamedTitleInfo@@U?$less@K@std@@V?$allocator@U?$pair@$$CBKUtagNamedTitleInfo@@@std@@@3@$0A@@std@@@std@@IAEXPAU_Node@?$_Tree_nod@V?$_Tmap_traits@KUtagNamedTitleInfo@@U?$less@K@std@@V?$allocator@U?$pair@$$CBKUtagNamedTitleInfo@@@std@@@3@$0A@@std@@@2@@Z ; std::_Tree<std::_Tmap_traits<unsigned long,tagNamedTitleInfo,std::less<unsigned long>,std::allocator<std::pair<unsigned long const ,tagNamedTitleInfo> >,0> >::_Erase
; Function compile flags: /Ogsp
;	COMDAT ?_Erase@?$_Tree@V?$_Tmap_traits@KUtagNamedTitleInfo@@U?$less@K@std@@V?$allocator@U?$pair@$$CBKUtagNamedTitleInfo@@@std@@@3@$0A@@std@@@std@@IAEXPAU_Node@?$_Tree_nod@V?$_Tmap_traits@KUtagNamedTitleInfo@@U?$less@K@std@@V?$allocator@U?$pair@$$CBKUtagNamedTitleInfo@@@std@@@3@$0A@@std@@@2@@Z
_TEXT	SEGMENT
__Rootnode$ = 8						; size = 4
?_Erase@?$_Tree@V?$_Tmap_traits@KUtagNamedTitleInfo@@U?$less@K@std@@V?$allocator@U?$pair@$$CBKUtagNamedTitleInfo@@@std@@@3@$0A@@std@@@std@@IAEXPAU_Node@?$_Tree_nod@V?$_Tmap_traits@KUtagNamedTitleInfo@@U?$less@K@std@@V?$allocator@U?$pair@$$CBKUtagNamedTitleInfo@@@std@@@3@$0A@@std@@@2@@Z PROC ; std::_Tree<std::_Tmap_traits<unsigned long,tagNamedTitleInfo,std::less<unsigned long>,std::allocator<std::pair<unsigned long const ,tagNamedTitleInfo> >,0> >::_Erase, COMDAT
; _this$ = ecx

; 1610 : 		{	// free entire subtree, recursively

  00000	55		 push	 ebp
  00001	8b ec		 mov	 ebp, esp
  00003	53		 push	 ebx
  00004	56		 push	 esi
  00005	57		 push	 edi

; 1611 : 		for (_Nodeptr _Pnode = _Rootnode;

  00006	8b 7d 08	 mov	 edi, DWORD PTR __Rootnode$[ebp]

; 1612 : 			!this->_Isnil(_Pnode); _Rootnode = _Pnode)

  00009	80 7f 35 00	 cmp	 BYTE PTR [edi+53], 0
  0000d	8b d9		 mov	 ebx, ecx
  0000f	8b f7		 mov	 esi, edi
  00011	75 23		 jne	 SHORT $LN1@Erase
$LL3@Erase:

; 1613 : 			{	// free subtrees, then node
; 1614 : 			_Erase(this->_Right(_Pnode));

  00013	ff 76 08	 push	 DWORD PTR [esi+8]
  00016	8b cb		 mov	 ecx, ebx
  00018	e8 00 00 00 00	 call	 ?_Erase@?$_Tree@V?$_Tmap_traits@KUtagNamedTitleInfo@@U?$less@K@std@@V?$allocator@U?$pair@$$CBKUtagNamedTitleInfo@@@std@@@3@$0A@@std@@@std@@IAEXPAU_Node@?$_Tree_nod@V?$_Tmap_traits@KUtagNamedTitleInfo@@U?$less@K@std@@V?$allocator@U?$pair@$$CBKUtagNamedTitleInfo@@@std@@@3@$0A@@std@@@2@@Z ; std::_Tree<std::_Tmap_traits<unsigned long,tagNamedTitleInfo,std::less<unsigned long>,std::allocator<std::pair<unsigned long const ,tagNamedTitleInfo> >,0> >::_Erase

; 1615 : 			_Pnode = this->_Left(_Pnode);

  0001d	8b 36		 mov	 esi, DWORD PTR [esi]

; 1616 : 			_Dest_val(this->_Alval,
; 1617 : 				_STD addressof(this->_Myval(_Rootnode)));

  0001f	8d 4f 10	 lea	 ecx, DWORD PTR [edi+16]
  00022	e8 00 00 00 00	 call	 ??1tagNamedTitleInfo@@QAE@XZ

; 1618 : 
; 1619 : 			this->_Alnod.deallocate(_Rootnode, 1);

  00027	57		 push	 edi
  00028	e8 00 00 00 00	 call	 ??3@YAXPAX@Z		; operator delete
  0002d	80 7e 35 00	 cmp	 BYTE PTR [esi+53], 0
  00031	59		 pop	 ecx
  00032	8b fe		 mov	 edi, esi
  00034	74 dd		 je	 SHORT $LL3@Erase
$LN1@Erase:
  00036	5f		 pop	 edi
  00037	5e		 pop	 esi
  00038	5b		 pop	 ebx

; 1620 : 			}
; 1621 : 		}

  00039	5d		 pop	 ebp
  0003a	c2 04 00	 ret	 4
?_Erase@?$_Tree@V?$_Tmap_traits@KUtagNamedTitleInfo@@U?$less@K@std@@V?$allocator@U?$pair@$$CBKUtagNamedTitleInfo@@@std@@@3@$0A@@std@@@std@@IAEXPAU_Node@?$_Tree_nod@V?$_Tmap_traits@KUtagNamedTitleInfo@@U?$less@K@std@@V?$allocator@U?$pair@$$CBKUtagNamedTitleInfo@@@std@@@3@$0A@@std@@@2@@Z ENDP ; std::_Tree<std::_Tmap_traits<unsigned long,tagNamedTitleInfo,std::less<unsigned long>,std::allocator<std::pair<unsigned long const ,tagNamedTitleInfo> >,0> >::_Erase
_TEXT	ENDS
PUBLIC	??_C@_0BM@PAPJHAGI@invalid?5map?1set?$DMT?$DO?5iterator?$AA@ ; `string'
PUBLIC	?erase@?$_Tree@V?$_Tmap_traits@KUtagNamedTitleInfo@@U?$less@K@std@@V?$allocator@U?$pair@$$CBKUtagNamedTitleInfo@@@std@@@3@$0A@@std@@@std@@QAE?AV?$_Tree_iterator@V?$_Tree_val@V?$_Tmap_traits@KUtagNamedTitleInfo@@U?$less@K@std@@V?$allocator@U?$pair@$$CBKUtagNamedTitleInfo@@@std@@@3@$0A@@std@@@std@@@2@V?$_Tree_const_iterator@V?$_Tree_val@V?$_Tmap_traits@KUtagNamedTitleInfo@@U?$less@K@std@@V?$allocator@U?$pair@$$CBKUtagNamedTitleInfo@@@std@@@3@$0A@@std@@@std@@@2@@Z ; std::_Tree<std::_Tmap_traits<unsigned long,tagNamedTitleInfo,std::less<unsigned long>,std::allocator<std::pair<unsigned long const ,tagNamedTitleInfo> >,0> >::erase
EXTRN	__imp_?_Xout_of_range@std@@YAXPBD@Z:PROC
;	COMDAT ??_C@_0BM@PAPJHAGI@invalid?5map?1set?$DMT?$DO?5iterator?$AA@
; File c:\program files (x86)\microsoft visual studio 10.0\vc\include\xutility
CONST	SEGMENT
??_C@_0BM@PAPJHAGI@invalid?5map?1set?$DMT?$DO?5iterator?$AA@ DB 'invalid '
	DB	'map/set<T> iterator', 00H			; `string'
; Function compile flags: /Ogsp
; File c:\program files (x86)\microsoft visual studio 10.0\vc\include\xtree
CONST	ENDS
;	COMDAT ?erase@?$_Tree@V?$_Tmap_traits@KUtagNamedTitleInfo@@U?$less@K@std@@V?$allocator@U?$pair@$$CBKUtagNamedTitleInfo@@@std@@@3@$0A@@std@@@std@@QAE?AV?$_Tree_iterator@V?$_Tree_val@V?$_Tmap_traits@KUtagNamedTitleInfo@@U?$less@K@std@@V?$allocator@U?$pair@$$CBKUtagNamedTitleInfo@@@std@@@3@$0A@@std@@@std@@@2@V?$_Tree_const_iterator@V?$_Tree_val@V?$_Tmap_traits@KUtagNamedTitleInfo@@U?$less@K@std@@V?$allocator@U?$pair@$$CBKUtagNamedTitleInfo@@@std@@@3@$0A@@std@@@std@@@2@@Z
_TEXT	SEGMENT
_this$ = -4						; size = 4
___$ReturnUdt$ = 8					; size = 4
__Where$ = 12						; size = 4
?erase@?$_Tree@V?$_Tmap_traits@KUtagNamedTitleInfo@@U?$less@K@std@@V?$allocator@U?$pair@$$CBKUtagNamedTitleInfo@@@std@@@3@$0A@@std@@@std@@QAE?AV?$_Tree_iterator@V?$_Tree_val@V?$_Tmap_traits@KUtagNamedTitleInfo@@U?$less@K@std@@V?$allocator@U?$pair@$$CBKUtagNamedTitleInfo@@@std@@@3@$0A@@std@@@std@@@2@V?$_Tree_const_iterator@V?$_Tree_val@V?$_Tmap_traits@KUtagNamedTitleInfo@@U?$less@K@std@@V?$allocator@U?$pair@$$CBKUtagNamedTitleInfo@@@std@@@3@$0A@@std@@@std@@@2@@Z PROC ; std::_Tree<std::_Tmap_traits<unsigned long,tagNamedTitleInfo,std::less<unsigned long>,std::allocator<std::pair<unsigned long const ,tagNamedTitleInfo> >,0> >::erase, COMDAT
; _this$ = ecx

; 1195 : 		{	// erase element at _Where

  00000	55		 push	 ebp
  00001	8b ec		 mov	 ebp, esp
  00003	51		 push	 ecx
  00004	53		 push	 ebx

; 1196 :  #if _ITERATOR_DEBUG_LEVEL == 2
; 1197 : 		if (_Where._Getcont() != this || this->_Isnil(_Where._Mynode()))
; 1198 : 			_DEBUG_ERROR("map/set erase iterator outside range");
; 1199 : 		_Nodeptr _Erasednode = _Where._Mynode();	// node to erase
; 1200 : 		++_Where;	// save successor iterator for return
; 1201 : 		_Orphan_ptr(*this, _Erasednode);
; 1202 : 
; 1203 :  #else /* _ITERATOR_DEBUG_LEVEL == 2 */
; 1204 : 		if (this->_Isnil(_Where._Mynode()))

  00005	8b 5d 0c	 mov	 ebx, DWORD PTR __Where$[ebp]
  00008	80 7b 35 00	 cmp	 BYTE PTR [ebx+53], 0
  0000c	56		 push	 esi
  0000d	57		 push	 edi
  0000e	89 4d fc	 mov	 DWORD PTR _this$[ebp], ecx
  00011	74 0b		 je	 SHORT $LN40@erase@2

; 1205 : 			_Xout_of_range("invalid map/set<T> iterator");

  00013	68 00 00 00 00	 push	 OFFSET ??_C@_0BM@PAPJHAGI@invalid?5map?1set?$DMT?$DO?5iterator?$AA@
  00018	ff 15 00 00 00
	00		 call	 DWORD PTR __imp_?_Xout_of_range@std@@YAXPBD@Z
$LN338@erase@2:
$LN40@erase@2:

; 1206 : 		_Nodeptr _Erasednode = _Where._Mynode();	// node to erase
; 1207 : 		++_Where;	// save successor iterator for return

  0001e	8d 4d 0c	 lea	 ecx, DWORD PTR __Where$[ebp]
  00021	e8 00 00 00 00	 call	 ??E?$_Tree_unchecked_const_iterator@V?$_Tree_val@V?$_Tmap_traits@KUtagNamedTitleInfo@@U?$less@K@std@@V?$allocator@U?$pair@$$CBKUtagNamedTitleInfo@@@std@@@3@$0A@@std@@@std@@U_Iterator_base0@2@@std@@QAEAAV01@XZ ; std::_Tree_unchecked_const_iterator<std::_Tree_val<std::_Tmap_traits<unsigned long,tagNamedTitleInfo,std::less<unsigned long>,std::allocator<std::pair<unsigned long const ,tagNamedTitleInfo> >,0> >,std::_Iterator_base0>::operator++

; 1208 :  #endif /* _ITERATOR_DEBUG_LEVEL == 2 */
; 1209 : 
; 1210 : 		_Nodeptr _Fixnode;	// the node to recolor as needed
; 1211 : 		_Nodeptr _Fixnodeparent;	// parent of _Fixnode (which may be nil)
; 1212 : 		_Nodeptr _Pnode = _Erasednode;
; 1213 : 
; 1214 : 		if (this->_Isnil(this->_Left(_Pnode)))

  00026	8b 13		 mov	 edx, DWORD PTR [ebx]
  00028	80 7a 35 00	 cmp	 BYTE PTR [edx+53], 0
  0002c	74 05		 je	 SHORT $LN39@erase@2

; 1215 : 			_Fixnode = this->_Right(_Pnode);	// stitch up right subtree

  0002e	8b 7b 08	 mov	 edi, DWORD PTR [ebx+8]

; 1216 : 		else if (this->_Isnil(this->_Right(_Pnode)))

  00031	eb 17		 jmp	 SHORT $LN330@erase@2
$LN39@erase@2:
  00033	8b 43 08	 mov	 eax, DWORD PTR [ebx+8]
  00036	80 78 35 00	 cmp	 BYTE PTR [eax+53], 0
  0003a	74 04		 je	 SHORT $LN37@erase@2

; 1217 : 			_Fixnode = this->_Left(_Pnode);	// stitch up left subtree

  0003c	8b fa		 mov	 edi, edx

; 1218 : 		else

  0003e	eb 0a		 jmp	 SHORT $LN330@erase@2
$LN37@erase@2:

; 1219 : 			{	// two subtrees, must lift successor node to replace erased
; 1220 : 			_Pnode = _Where._Mynode();	// _Pnode is successor node

  00040	8b 45 0c	 mov	 eax, DWORD PTR __Where$[ebp]

; 1221 : 			_Fixnode = this->_Right(_Pnode);	// _Fixnode is only subtree

  00043	8b 78 08	 mov	 edi, DWORD PTR [eax+8]

; 1222 : 			}
; 1223 : 
; 1224 : 		if (_Pnode == _Erasednode)

  00046	3b c3		 cmp	 eax, ebx
  00048	75 76		 jne	 SHORT $LN35@erase@2
$LN330@erase@2:

; 1225 : 			{	// at most one subtree, relink it
; 1226 : 			_Fixnodeparent = this->_Parent(_Erasednode);
; 1227 : 			if (!this->_Isnil(_Fixnode))

  0004a	80 7f 35 00	 cmp	 BYTE PTR [edi+53], 0
  0004e	8b 73 04	 mov	 esi, DWORD PTR [ebx+4]
  00051	75 03		 jne	 SHORT $LN34@erase@2

; 1228 : 				this->_Parent(_Fixnode) = _Fixnodeparent;	// link up

  00053	89 77 04	 mov	 DWORD PTR [edi+4], esi
$LN34@erase@2:

; 1229 : 
; 1230 : 			if (_Root() == _Erasednode)

  00056	8b 4d fc	 mov	 ecx, DWORD PTR _this$[ebp]
  00059	8b 41 04	 mov	 eax, DWORD PTR [ecx+4]
  0005c	39 58 04	 cmp	 DWORD PTR [eax+4], ebx
  0005f	75 05		 jne	 SHORT $LN33@erase@2

; 1231 : 				_Root() = _Fixnode;	// link down from root

  00061	89 78 04	 mov	 DWORD PTR [eax+4], edi

; 1232 : 			else if (this->_Left(_Fixnodeparent) == _Erasednode)

  00064	eb 0b		 jmp	 SHORT $LN30@erase@2
$LN33@erase@2:
  00066	39 1e		 cmp	 DWORD PTR [esi], ebx
  00068	75 04		 jne	 SHORT $LN31@erase@2

; 1233 : 				this->_Left(_Fixnodeparent) = _Fixnode;	// link down to left

  0006a	89 3e		 mov	 DWORD PTR [esi], edi

; 1234 : 			else

  0006c	eb 03		 jmp	 SHORT $LN30@erase@2
$LN31@erase@2:

; 1235 : 				this->_Right(_Fixnodeparent) =
; 1236 : 					_Fixnode;	// link down to right

  0006e	89 7e 08	 mov	 DWORD PTR [esi+8], edi
$LN30@erase@2:

; 1237 : 
; 1238 : 			if (_Lmost() == _Erasednode)

  00071	8b 49 04	 mov	 ecx, DWORD PTR [ecx+4]
  00074	39 19		 cmp	 DWORD PTR [ecx], ebx
  00076	75 1c		 jne	 SHORT $LN29@erase@2

; 1239 : 				_Lmost() = this->_Isnil(_Fixnode)
; 1240 : 					? _Fixnodeparent	// smallest is parent of erased node
; 1241 : 					: this->_Min(_Fixnode);	// smallest in relinked subtree

  00078	80 7f 35 00	 cmp	 BYTE PTR [edi+53], 0
  0007c	74 04		 je	 SHORT $LN43@erase@2
  0007e	8b d6		 mov	 edx, esi
  00080	eb 10		 jmp	 SHORT $LN97@erase@2
$LN43@erase@2:
  00082	8b 07		 mov	 eax, DWORD PTR [edi]
  00084	8b d7		 mov	 edx, edi
  00086	eb 04		 jmp	 SHORT $LN332@erase@2
$LL98@erase@2:
  00088	8b d0		 mov	 edx, eax
  0008a	8b 02		 mov	 eax, DWORD PTR [edx]
$LN332@erase@2:
  0008c	80 78 35 00	 cmp	 BYTE PTR [eax+53], 0
  00090	74 f6		 je	 SHORT $LL98@erase@2
$LN97@erase@2:
  00092	89 11		 mov	 DWORD PTR [ecx], edx
$LN29@erase@2:

; 1242 : 
; 1243 : 			if (_Rmost() == _Erasednode)

  00094	8b 45 fc	 mov	 eax, DWORD PTR _this$[ebp]
  00097	8b 48 04	 mov	 ecx, DWORD PTR [eax+4]
  0009a	39 59 08	 cmp	 DWORD PTR [ecx+8], ebx
  0009d	75 7b		 jne	 SHORT $LN185@erase@2

; 1244 : 				_Rmost() = this->_Isnil(_Fixnode)
; 1245 : 					? _Fixnodeparent	// largest is parent of erased node
; 1246 : 					: this->_Max(_Fixnode);	// largest in relinked subtree

  0009f	80 7f 35 00	 cmp	 BYTE PTR [edi+53], 0
  000a3	74 04		 je	 SHORT $LN45@erase@2
  000a5	8b d6		 mov	 edx, esi
  000a7	eb 12		 jmp	 SHORT $LN117@erase@2
$LN45@erase@2:
  000a9	8b 47 08	 mov	 eax, DWORD PTR [edi+8]
  000ac	8b d7		 mov	 edx, edi
  000ae	eb 05		 jmp	 SHORT $LN333@erase@2
$LL118@erase@2:
  000b0	8b d0		 mov	 edx, eax
  000b2	8b 42 08	 mov	 eax, DWORD PTR [edx+8]
$LN333@erase@2:
  000b5	80 78 35 00	 cmp	 BYTE PTR [eax+53], 0
  000b9	74 f5		 je	 SHORT $LL118@erase@2
$LN117@erase@2:
  000bb	89 51 08	 mov	 DWORD PTR [ecx+8], edx

; 1247 : 			}
; 1248 : 		else

  000be	eb 5a		 jmp	 SHORT $LN185@erase@2
$LN35@erase@2:

; 1249 : 			{	// erased has two subtrees, _Pnode is successor to erased
; 1250 : 			this->_Parent(this->_Left(_Erasednode)) =
; 1251 : 				_Pnode;	// link left up

  000c0	89 42 04	 mov	 DWORD PTR [edx+4], eax

; 1252 : 			this->_Left(_Pnode) =
; 1253 : 				this->_Left(_Erasednode);	// link successor down

  000c3	8b 13		 mov	 edx, DWORD PTR [ebx]
  000c5	89 10		 mov	 DWORD PTR [eax], edx

; 1254 : 
; 1255 : 			if (_Pnode == this->_Right(_Erasednode))

  000c7	3b 43 08	 cmp	 eax, DWORD PTR [ebx+8]
  000ca	75 04		 jne	 SHORT $LN26@erase@2

; 1256 : 				_Fixnodeparent = _Pnode;	// successor is next to erased

  000cc	8b f0		 mov	 esi, eax

; 1257 : 			else

  000ce	eb 1a		 jmp	 SHORT $LN25@erase@2
$LN26@erase@2:

; 1258 : 				{	// successor further down, link in place of erased
; 1259 : 				_Fixnodeparent =
; 1260 : 					this->_Parent(_Pnode);	// parent is successor's
; 1261 : 				if (!this->_Isnil(_Fixnode))

  000d0	80 7f 35 00	 cmp	 BYTE PTR [edi+53], 0
  000d4	8b 70 04	 mov	 esi, DWORD PTR [eax+4]
  000d7	75 03		 jne	 SHORT $LN24@erase@2

; 1262 : 					this->_Parent(_Fixnode) = _Fixnodeparent;	// link fix up

  000d9	89 77 04	 mov	 DWORD PTR [edi+4], esi
$LN24@erase@2:

; 1263 : 				this->_Left(_Fixnodeparent) = _Fixnode;	// link fix down

  000dc	89 3e		 mov	 DWORD PTR [esi], edi

; 1264 : 				this->_Right(_Pnode) =
; 1265 : 					this->_Right(_Erasednode);	// link next down

  000de	8b 53 08	 mov	 edx, DWORD PTR [ebx+8]
  000e1	89 50 08	 mov	 DWORD PTR [eax+8], edx

; 1266 : 				this->_Parent(this->_Right(_Erasednode)) =
; 1267 : 					_Pnode;	// right up

  000e4	8b 4b 08	 mov	 ecx, DWORD PTR [ebx+8]
  000e7	89 41 04	 mov	 DWORD PTR [ecx+4], eax
$LN25@erase@2:

; 1268 : 				}
; 1269 : 
; 1270 : 			if (_Root() == _Erasednode)

  000ea	8b 4d fc	 mov	 ecx, DWORD PTR _this$[ebp]
  000ed	8b 49 04	 mov	 ecx, DWORD PTR [ecx+4]
  000f0	39 59 04	 cmp	 DWORD PTR [ecx+4], ebx
  000f3	75 05		 jne	 SHORT $LN23@erase@2

; 1271 : 				_Root() = _Pnode;	// link down from root

  000f5	89 41 04	 mov	 DWORD PTR [ecx+4], eax

; 1272 : 			else if (this->_Left(this->_Parent(_Erasednode)) == _Erasednode)

  000f8	eb 0e		 jmp	 SHORT $LN20@erase@2
$LN23@erase@2:
  000fa	8b 4b 04	 mov	 ecx, DWORD PTR [ebx+4]
  000fd	39 19		 cmp	 DWORD PTR [ecx], ebx
  000ff	75 04		 jne	 SHORT $LN21@erase@2

; 1273 : 				this->_Left(this->_Parent(_Erasednode)) =
; 1274 : 					_Pnode;	// link down to left

  00101	89 01		 mov	 DWORD PTR [ecx], eax

; 1275 : 			else

  00103	eb 03		 jmp	 SHORT $LN20@erase@2
$LN21@erase@2:

; 1276 : 				this->_Right(this->_Parent(_Erasednode)) =
; 1277 : 					_Pnode;	// link down to right

  00105	89 41 08	 mov	 DWORD PTR [ecx+8], eax
$LN20@erase@2:

; 1278 : 
; 1279 : 			this->_Parent(_Pnode) =
; 1280 : 				this->_Parent(_Erasednode);	// link successor up

  00108	8b 4b 04	 mov	 ecx, DWORD PTR [ebx+4]
  0010b	89 48 04	 mov	 DWORD PTR [eax+4], ecx

; 1281 : 			_STD swap(this->_Color(_Pnode),
; 1282 : 				this->_Color(_Erasednode));	// recolor it

  0010e	8a 53 34	 mov	 dl, BYTE PTR [ebx+52]
  00111	8a 48 34	 mov	 cl, BYTE PTR [eax+52]
  00114	88 50 34	 mov	 BYTE PTR [eax+52], dl
  00117	88 4b 34	 mov	 BYTE PTR [ebx+52], cl
$LN185@erase@2:

; 1283 : 			}
; 1284 : 
; 1285 : 		if (this->_Color(_Erasednode) == this->_Black)

  0011a	80 7b 34 01	 cmp	 BYTE PTR [ebx+52], 1
  0011e	0f 85 03 01 00
	00		 jne	 $LN19@erase@2

; 1286 : 			{	// erasing black link, must recolor/rebalance tree
; 1287 : 			for (; _Fixnode != _Root()
; 1288 : 				&& this->_Color(_Fixnode) == this->_Black;
; 1289 : 				_Fixnodeparent = this->_Parent(_Fixnode))

  00124	e9 b2 00 00 00	 jmp	 $LN335@erase@2
$LL18@erase@2:
  00129	80 7f 34 01	 cmp	 BYTE PTR [edi+52], 1
  0012d	0f 85 f0 00 00
	00		 jne	 $LN16@erase@2

; 1290 : 				if (_Fixnode == this->_Left(_Fixnodeparent))

  00133	8b 06		 mov	 eax, DWORD PTR [esi]
  00135	3b f8		 cmp	 edi, eax
  00137	75 6c		 jne	 SHORT $LN15@erase@2

; 1291 : 					{	// fixup left subtree
; 1292 : 					_Pnode = this->_Right(_Fixnodeparent);

  00139	8b 46 08	 mov	 eax, DWORD PTR [esi+8]

; 1293 : 					if (this->_Color(_Pnode) == this->_Red)

  0013c	80 78 34 00	 cmp	 BYTE PTR [eax+52], 0
  00140	75 11		 jne	 SHORT $LN14@erase@2

; 1294 : 						{	// rotate red up from right subtree
; 1295 : 						this->_Color(_Pnode) = this->_Black;

  00142	c6 40 34 01	 mov	 BYTE PTR [eax+52], 1

; 1296 : 						this->_Color(_Fixnodeparent) = this->_Red;
; 1297 : 						_Lrotate(_Fixnodeparent);

  00146	56		 push	 esi
  00147	c6 46 34 00	 mov	 BYTE PTR [esi+52], 0
  0014b	e8 00 00 00 00	 call	 ?_Lrotate@?$_Tree@V?$_Tmap_traits@KUtagNamedTitleInfo@@U?$less@K@std@@V?$allocator@U?$pair@$$CBKUtagNamedTitleInfo@@@std@@@3@$0A@@std@@@std@@IAEXPAU_Node@?$_Tree_nod@V?$_Tmap_traits@KUtagNamedTitleInfo@@U?$less@K@std@@V?$allocator@U?$pair@$$CBKUtagNamedTitleInfo@@@std@@@3@$0A@@std@@@2@@Z ; std::_Tree<std::_Tmap_traits<unsigned long,tagNamedTitleInfo,std::less<unsigned long>,std::allocator<std::pair<unsigned long const ,tagNamedTitleInfo> >,0> >::_Lrotate

; 1298 : 						_Pnode = this->_Right(_Fixnodeparent);

  00150	8b 46 08	 mov	 eax, DWORD PTR [esi+8]
$LN14@erase@2:

; 1299 : 						}
; 1300 : 
; 1301 : 					if (this->_Isnil(_Pnode))

  00153	80 78 35 00	 cmp	 BYTE PTR [eax+53], 0

; 1302 : 						_Fixnode = _Fixnodeparent;	// shouldn't happen
; 1303 : 					else if (this->_Color(this->_Left(_Pnode)) == this->_Black

  00157	75 7d		 jne	 SHORT $LN336@erase@2

; 1304 : 						&& this->_Color(this->_Right(_Pnode)) == this->_Black)

  00159	8b 08		 mov	 ecx, DWORD PTR [eax]
  0015b	80 79 34 01	 cmp	 BYTE PTR [ecx+52], 1
  0015f	75 09		 jne	 SHORT $LN11@erase@2
  00161	8b 48 08	 mov	 ecx, DWORD PTR [eax+8]
  00164	80 79 34 01	 cmp	 BYTE PTR [ecx+52], 1
  00168	74 68		 je	 SHORT $LN337@erase@2
$LN11@erase@2:

; 1305 : 						{	// redden right subtree with black children
; 1306 : 						this->_Color(_Pnode) = this->_Red;
; 1307 : 						_Fixnode = _Fixnodeparent;
; 1308 : 						}
; 1309 : 					else
; 1310 : 						{	// must rearrange right subtree
; 1311 : 						if (this->_Color(this->_Right(_Pnode))
; 1312 : 							== this->_Black)

  0016a	8b 48 08	 mov	 ecx, DWORD PTR [eax+8]
  0016d	80 79 34 01	 cmp	 BYTE PTR [ecx+52], 1
  00171	75 16		 jne	 SHORT $LN9@erase@2

; 1313 : 							{	// rotate red up from left sub-subtree
; 1314 : 							this->_Color(this->_Left(_Pnode)) = this->_Black;

  00173	8b 08		 mov	 ecx, DWORD PTR [eax]
  00175	c6 41 34 01	 mov	 BYTE PTR [ecx+52], 1

; 1315 : 							this->_Color(_Pnode) = this->_Red;
; 1316 : 							_Rrotate(_Pnode);

  00179	8b 4d fc	 mov	 ecx, DWORD PTR _this$[ebp]
  0017c	50		 push	 eax
  0017d	c6 40 34 00	 mov	 BYTE PTR [eax+52], 0
  00181	e8 00 00 00 00	 call	 ?_Rrotate@?$_Tree@V?$_Tmap_traits@KUtagNamedTitleInfo@@U?$less@K@std@@V?$allocator@U?$pair@$$CBKUtagNamedTitleInfo@@@std@@@3@$0A@@std@@@std@@IAEXPAU_Node@?$_Tree_nod@V?$_Tmap_traits@KUtagNamedTitleInfo@@U?$less@K@std@@V?$allocator@U?$pair@$$CBKUtagNamedTitleInfo@@@std@@@3@$0A@@std@@@2@@Z ; std::_Tree<std::_Tmap_traits<unsigned long,tagNamedTitleInfo,std::less<unsigned long>,std::allocator<std::pair<unsigned long const ,tagNamedTitleInfo> >,0> >::_Rrotate

; 1317 : 							_Pnode = this->_Right(_Fixnodeparent);

  00186	8b 46 08	 mov	 eax, DWORD PTR [esi+8]
$LN9@erase@2:

; 1318 : 							}
; 1319 : 
; 1320 : 						this->_Color(_Pnode) = this->_Color(_Fixnodeparent);

  00189	8a 4e 34	 mov	 cl, BYTE PTR [esi+52]
  0018c	88 48 34	 mov	 BYTE PTR [eax+52], cl

; 1321 : 						this->_Color(_Fixnodeparent) = this->_Black;
; 1322 : 						this->_Color(this->_Right(_Pnode)) = this->_Black;
; 1323 : 						_Lrotate(_Fixnodeparent);

  0018f	8b 4d fc	 mov	 ecx, DWORD PTR _this$[ebp]
  00192	c6 46 34 01	 mov	 BYTE PTR [esi+52], 1
  00196	8b 40 08	 mov	 eax, DWORD PTR [eax+8]
  00199	56		 push	 esi
  0019a	c6 40 34 01	 mov	 BYTE PTR [eax+52], 1
  0019e	e8 00 00 00 00	 call	 ?_Lrotate@?$_Tree@V?$_Tmap_traits@KUtagNamedTitleInfo@@U?$less@K@std@@V?$allocator@U?$pair@$$CBKUtagNamedTitleInfo@@@std@@@3@$0A@@std@@@std@@IAEXPAU_Node@?$_Tree_nod@V?$_Tmap_traits@KUtagNamedTitleInfo@@U?$less@K@std@@V?$allocator@U?$pair@$$CBKUtagNamedTitleInfo@@@std@@@3@$0A@@std@@@2@@Z ; std::_Tree<std::_Tmap_traits<unsigned long,tagNamedTitleInfo,std::less<unsigned long>,std::allocator<std::pair<unsigned long const ,tagNamedTitleInfo> >,0> >::_Lrotate

; 1324 : 						break;	// tree now recolored/rebalanced

  001a3	eb 7e		 jmp	 SHORT $LN16@erase@2
$LN15@erase@2:

; 1325 : 						}
; 1326 : 					}
; 1327 : 				else
; 1328 : 					{	// fixup right subtree
; 1329 : 					_Pnode = this->_Left(_Fixnodeparent);
; 1330 : 					if (this->_Color(_Pnode) == this->_Red)

  001a5	80 78 34 00	 cmp	 BYTE PTR [eax+52], 0
  001a9	75 10		 jne	 SHORT $LN7@erase@2

; 1331 : 						{	// rotate red up from left subtree
; 1332 : 						this->_Color(_Pnode) = this->_Black;

  001ab	c6 40 34 01	 mov	 BYTE PTR [eax+52], 1

; 1333 : 						this->_Color(_Fixnodeparent) = this->_Red;
; 1334 : 						_Rrotate(_Fixnodeparent);

  001af	56		 push	 esi
  001b0	c6 46 34 00	 mov	 BYTE PTR [esi+52], 0
  001b4	e8 00 00 00 00	 call	 ?_Rrotate@?$_Tree@V?$_Tmap_traits@KUtagNamedTitleInfo@@U?$less@K@std@@V?$allocator@U?$pair@$$CBKUtagNamedTitleInfo@@@std@@@3@$0A@@std@@@std@@IAEXPAU_Node@?$_Tree_nod@V?$_Tmap_traits@KUtagNamedTitleInfo@@U?$less@K@std@@V?$allocator@U?$pair@$$CBKUtagNamedTitleInfo@@@std@@@3@$0A@@std@@@2@@Z ; std::_Tree<std::_Tmap_traits<unsigned long,tagNamedTitleInfo,std::less<unsigned long>,std::allocator<std::pair<unsigned long const ,tagNamedTitleInfo> >,0> >::_Rrotate

; 1335 : 						_Pnode = this->_Left(_Fixnodeparent);

  001b9	8b 06		 mov	 eax, DWORD PTR [esi]
$LN7@erase@2:

; 1336 : 						}
; 1337 : 					if (this->_Isnil(_Pnode))

  001bb	80 78 35 00	 cmp	 BYTE PTR [eax+53], 0

; 1338 : 						_Fixnode = _Fixnodeparent;	// shouldn't happen
; 1339 : 					else if (this->_Color(this->_Right(_Pnode)) ==

  001bf	75 15		 jne	 SHORT $LN336@erase@2

; 1340 : 						this->_Black
; 1341 : 						&& this->_Color(this->_Left(_Pnode)) == this->_Black)

  001c1	8b 48 08	 mov	 ecx, DWORD PTR [eax+8]
  001c4	80 79 34 01	 cmp	 BYTE PTR [ecx+52], 1
  001c8	75 22		 jne	 SHORT $LN4@erase@2
  001ca	8b 08		 mov	 ecx, DWORD PTR [eax]
  001cc	80 79 34 01	 cmp	 BYTE PTR [ecx+52], 1
  001d0	75 1a		 jne	 SHORT $LN4@erase@2
$LN337@erase@2:

; 1342 : 						{	// redden left subtree with black children
; 1343 : 						this->_Color(_Pnode) = this->_Red;

  001d2	c6 40 34 00	 mov	 BYTE PTR [eax+52], 0
$LN336@erase@2:

; 1344 : 						_Fixnode = _Fixnodeparent;

  001d6	8b fe		 mov	 edi, esi
  001d8	8b 76 04	 mov	 esi, DWORD PTR [esi+4]
$LN335@erase@2:

; 1286 : 			{	// erasing black link, must recolor/rebalance tree
; 1287 : 			for (; _Fixnode != _Root()
; 1288 : 				&& this->_Color(_Fixnode) == this->_Black;
; 1289 : 				_Fixnodeparent = this->_Parent(_Fixnode))

  001db	8b 4d fc	 mov	 ecx, DWORD PTR _this$[ebp]
  001de	8b 41 04	 mov	 eax, DWORD PTR [ecx+4]
  001e1	3b 78 04	 cmp	 edi, DWORD PTR [eax+4]
  001e4	0f 85 3f ff ff
	ff		 jne	 $LL18@erase@2
  001ea	eb 37		 jmp	 SHORT $LN16@erase@2
$LN4@erase@2:

; 1345 : 						}
; 1346 : 					else
; 1347 : 						{	// must rearrange left subtree
; 1348 : 						if (this->_Color(this->_Left(_Pnode)) == this->_Black)

  001ec	8b 08		 mov	 ecx, DWORD PTR [eax]
  001ee	80 79 34 01	 cmp	 BYTE PTR [ecx+52], 1
  001f2	75 16		 jne	 SHORT $LN2@erase@2

; 1349 : 							{	// rotate red up from right sub-subtree
; 1350 : 							this->_Color(this->_Right(_Pnode)) = this->_Black;

  001f4	8b 48 08	 mov	 ecx, DWORD PTR [eax+8]
  001f7	c6 41 34 01	 mov	 BYTE PTR [ecx+52], 1

; 1351 : 							this->_Color(_Pnode) = this->_Red;
; 1352 : 							_Lrotate(_Pnode);

  001fb	8b 4d fc	 mov	 ecx, DWORD PTR _this$[ebp]
  001fe	50		 push	 eax
  001ff	c6 40 34 00	 mov	 BYTE PTR [eax+52], 0
  00203	e8 00 00 00 00	 call	 ?_Lrotate@?$_Tree@V?$_Tmap_traits@KUtagNamedTitleInfo@@U?$less@K@std@@V?$allocator@U?$pair@$$CBKUtagNamedTitleInfo@@@std@@@3@$0A@@std@@@std@@IAEXPAU_Node@?$_Tree_nod@V?$_Tmap_traits@KUtagNamedTitleInfo@@U?$less@K@std@@V?$allocator@U?$pair@$$CBKUtagNamedTitleInfo@@@std@@@3@$0A@@std@@@2@@Z ; std::_Tree<std::_Tmap_traits<unsigned long,tagNamedTitleInfo,std::less<unsigned long>,std::allocator<std::pair<unsigned long const ,tagNamedTitleInfo> >,0> >::_Lrotate

; 1353 : 							_Pnode = this->_Left(_Fixnodeparent);

  00208	8b 06		 mov	 eax, DWORD PTR [esi]
$LN2@erase@2:

; 1354 : 							}
; 1355 : 
; 1356 : 						this->_Color(_Pnode) = this->_Color(_Fixnodeparent);

  0020a	8a 4e 34	 mov	 cl, BYTE PTR [esi+52]
  0020d	88 48 34	 mov	 BYTE PTR [eax+52], cl

; 1357 : 						this->_Color(_Fixnodeparent) = this->_Black;
; 1358 : 						this->_Color(this->_Left(_Pnode)) = this->_Black;
; 1359 : 						_Rrotate(_Fixnodeparent);

  00210	8b 4d fc	 mov	 ecx, DWORD PTR _this$[ebp]
  00213	c6 46 34 01	 mov	 BYTE PTR [esi+52], 1
  00217	8b 00		 mov	 eax, DWORD PTR [eax]
  00219	56		 push	 esi
  0021a	c6 40 34 01	 mov	 BYTE PTR [eax+52], 1
  0021e	e8 00 00 00 00	 call	 ?_Rrotate@?$_Tree@V?$_Tmap_traits@KUtagNamedTitleInfo@@U?$less@K@std@@V?$allocator@U?$pair@$$CBKUtagNamedTitleInfo@@@std@@@3@$0A@@std@@@std@@IAEXPAU_Node@?$_Tree_nod@V?$_Tmap_traits@KUtagNamedTitleInfo@@U?$less@K@std@@V?$allocator@U?$pair@$$CBKUtagNamedTitleInfo@@@std@@@3@$0A@@std@@@2@@Z ; std::_Tree<std::_Tmap_traits<unsigned long,tagNamedTitleInfo,std::less<unsigned long>,std::allocator<std::pair<unsigned long const ,tagNamedTitleInfo> >,0> >::_Rrotate
$LN16@erase@2:

; 1360 : 						break;	// tree now recolored/rebalanced
; 1361 : 						}
; 1362 : 					}
; 1363 : 
; 1364 : 			this->_Color(_Fixnode) = this->_Black;	// stopping node is black

  00223	c6 47 34 01	 mov	 BYTE PTR [edi+52], 1
$LN19@erase@2:

; 1365 : 			}
; 1366 : 
; 1367 : 		_Dest_val(this->_Alval,
; 1368 : 			_STD addressof(this->_Myval(_Erasednode)));	// delete erased node

  00227	8d 4b 10	 lea	 ecx, DWORD PTR [ebx+16]
  0022a	e8 00 00 00 00	 call	 ??1tagNamedTitleInfo@@QAE@XZ

; 1369 : 
; 1370 : 		this->_Alnod.deallocate(_Erasednode, 1);

  0022f	53		 push	 ebx
  00230	e8 00 00 00 00	 call	 ??3@YAXPAX@Z		; operator delete
  00235	59		 pop	 ecx

; 1371 : 
; 1372 : 		if (0 < this->_Mysize)

  00236	8b 4d fc	 mov	 ecx, DWORD PTR _this$[ebp]
  00239	8b 41 08	 mov	 eax, DWORD PTR [ecx+8]
  0023c	5f		 pop	 edi
  0023d	5e		 pop	 esi
  0023e	5b		 pop	 ebx
  0023f	85 c0		 test	 eax, eax
  00241	74 04		 je	 SHORT $LN1@erase@2

; 1373 : 			--this->_Mysize;

  00243	48		 dec	 eax
  00244	89 41 08	 mov	 DWORD PTR [ecx+8], eax
$LN1@erase@2:

; 1374 : 
; 1375 : 		return (iterator(_Where._Ptr, this));	// return successor iterator

  00247	8b 45 08	 mov	 eax, DWORD PTR ___$ReturnUdt$[ebp]
  0024a	8b 4d 0c	 mov	 ecx, DWORD PTR __Where$[ebp]
  0024d	89 08		 mov	 DWORD PTR [eax], ecx

; 1376 : 		}

  0024f	c9		 leave
  00250	c2 08 00	 ret	 8
$LN331@erase@2:
?erase@?$_Tree@V?$_Tmap_traits@KUtagNamedTitleInfo@@U?$less@K@std@@V?$allocator@U?$pair@$$CBKUtagNamedTitleInfo@@@std@@@3@$0A@@std@@@std@@QAE?AV?$_Tree_iterator@V?$_Tree_val@V?$_Tmap_traits@KUtagNamedTitleInfo@@U?$less@K@std@@V?$allocator@U?$pair@$$CBKUtagNamedTitleInfo@@@std@@@3@$0A@@std@@@std@@@2@V?$_Tree_const_iterator@V?$_Tree_val@V?$_Tmap_traits@KUtagNamedTitleInfo@@U?$less@K@std@@V?$allocator@U?$pair@$$CBKUtagNamedTitleInfo@@@std@@@3@$0A@@std@@@std@@@2@@Z ENDP ; std::_Tree<std::_Tmap_traits<unsigned long,tagNamedTitleInfo,std::less<unsigned long>,std::allocator<std::pair<unsigned long const ,tagNamedTitleInfo> >,0> >::erase
_TEXT	ENDS
PUBLIC	?_Linsert@?$_Tree@V?$_Tmap_traits@KUtagNamedTitleInfo@@U?$less@K@std@@V?$allocator@U?$pair@$$CBKUtagNamedTitleInfo@@@std@@@3@$0A@@std@@@std@@QAE?AU?$pair@V?$_Tree_iterator@V?$_Tree_val@V?$_Tmap_traits@KUtagNamedTitleInfo@@U?$less@K@std@@V?$allocator@U?$pair@$$CBKUtagNamedTitleInfo@@@std@@@3@$0A@@std@@@std@@@std@@_N@2@PAU_Node@?$_Tree_nod@V?$_Tmap_traits@KUtagNamedTitleInfo@@U?$less@K@std@@V?$allocator@U?$pair@$$CBKUtagNamedTitleInfo@@@std@@@3@$0A@@std@@@2@_N@Z ; std::_Tree<std::_Tmap_traits<unsigned long,tagNamedTitleInfo,std::less<unsigned long>,std::allocator<std::pair<unsigned long const ,tagNamedTitleInfo> >,0> >::_Linsert
; Function compile flags: /Ogsp
;	COMDAT ?_Linsert@?$_Tree@V?$_Tmap_traits@KUtagNamedTitleInfo@@U?$less@K@std@@V?$allocator@U?$pair@$$CBKUtagNamedTitleInfo@@@std@@@3@$0A@@std@@@std@@QAE?AU?$pair@V?$_Tree_iterator@V?$_Tree_val@V?$_Tmap_traits@KUtagNamedTitleInfo@@U?$less@K@std@@V?$allocator@U?$pair@$$CBKUtagNamedTitleInfo@@@std@@@3@$0A@@std@@@std@@@std@@_N@2@PAU_Node@?$_Tree_nod@V?$_Tmap_traits@KUtagNamedTitleInfo@@U?$less@K@std@@V?$allocator@U?$pair@$$CBKUtagNamedTitleInfo@@@std@@@3@$0A@@std@@@2@_N@Z
_TEXT	SEGMENT
__Addleft$ = -4						; size = 1
___$ReturnUdt$ = 8					; size = 4
__Node$ = 12						; size = 4
$T541598 = 16						; size = 4
__Where$535522 = 16					; size = 4
__Leftish$ = 16						; size = 1
?_Linsert@?$_Tree@V?$_Tmap_traits@KUtagNamedTitleInfo@@U?$less@K@std@@V?$allocator@U?$pair@$$CBKUtagNamedTitleInfo@@@std@@@3@$0A@@std@@@std@@QAE?AU?$pair@V?$_Tree_iterator@V?$_Tree_val@V?$_Tmap_traits@KUtagNamedTitleInfo@@U?$less@K@std@@V?$allocator@U?$pair@$$CBKUtagNamedTitleInfo@@@std@@@3@$0A@@std@@@std@@@std@@_N@2@PAU_Node@?$_Tree_nod@V?$_Tmap_traits@KUtagNamedTitleInfo@@U?$less@K@std@@V?$allocator@U?$pair@$$CBKUtagNamedTitleInfo@@@std@@@3@$0A@@std@@@2@_N@Z PROC ; std::_Tree<std::_Tmap_traits<unsigned long,tagNamedTitleInfo,std::less<unsigned long>,std::allocator<std::pair<unsigned long const ,tagNamedTitleInfo> >,0> >::_Linsert, COMDAT
; _this$ = ecx

; 944  : 		{	// try to insert node at _Node, on left if _Leftish

  00000	55		 push	 ebp
  00001	8b ec		 mov	 ebp, esp
  00003	51		 push	 ecx

; 945  : 		const value_type& _Val = this->_Myval(_Node);
; 946  : 
; 947  : 		_Nodeptr _Trynode = _Root();
; 948  : 		_Nodeptr _Wherenode = this->_Myhead;
; 949  : 		bool _Addleft = true;	// add to left of head if tree empty
; 950  : 		while (!this->_Isnil(_Trynode))

  00004	8b 55 0c	 mov	 edx, DWORD PTR __Node$[ebp]
  00007	53		 push	 ebx
  00008	56		 push	 esi
  00009	8b f1		 mov	 esi, ecx
  0000b	8b 4e 04	 mov	 ecx, DWORD PTR [esi+4]
  0000e	8b 41 04	 mov	 eax, DWORD PTR [ecx+4]
  00011	80 78 35 00	 cmp	 BYTE PTR [eax+53], 0
  00015	8b d9		 mov	 ebx, ecx
  00017	b1 01		 mov	 cl, 1
  00019	57		 push	 edi
  0001a	88 4d fc	 mov	 BYTE PTR __Addleft$[ebp], cl
  0001d	75 2e		 jne	 SHORT $LN11@Linsert
  0001f	8b 7a 0c	 mov	 edi, DWORD PTR [edx+12]
$LL12@Linsert:

; 951  : 			{	// look for leaf to insert before (_Addleft) or after
; 952  : 			_Wherenode = _Trynode;
; 953  : 			if (_Leftish)

  00022	80 7d 10 00	 cmp	 BYTE PTR __Leftish$[ebp], 0
  00026	8b d8		 mov	 ebx, eax
  00028	74 09		 je	 SHORT $LN10@Linsert

; 954  : 				_Addleft = !_DEBUG_LT_PRED(this->comp,

  0002a	39 78 0c	 cmp	 DWORD PTR [eax+12], edi
  0002d	1a c9		 sbb	 cl, cl
  0002f	fe c1		 inc	 cl

; 955  : 					this->_Key(_Trynode),
; 956  : 					this->_Kfn(_Val));	// favor left end
; 957  : 			else

  00031	eb 06		 jmp	 SHORT $LN161@Linsert
$LN10@Linsert:

; 958  : 				_Addleft = _DEBUG_LT_PRED(this->comp,

  00033	3b 78 0c	 cmp	 edi, DWORD PTR [eax+12]
  00036	0f 92 c1	 setb	 cl
$LN161@Linsert:
  00039	88 4d fc	 mov	 BYTE PTR __Addleft$[ebp], cl

; 959  : 					this->_Kfn(_Val),
; 960  : 					this->_Key(_Trynode));	// favor right end
; 961  : 			_Trynode = _Addleft ? this->_Left(_Trynode)
; 962  : 				: this->_Right(_Trynode);

  0003c	84 c9		 test	 cl, cl
  0003e	74 04		 je	 SHORT $LN15@Linsert
  00040	8b 00		 mov	 eax, DWORD PTR [eax]
  00042	eb 03		 jmp	 SHORT $LN16@Linsert
$LN15@Linsert:
  00044	8b 40 08	 mov	 eax, DWORD PTR [eax+8]
$LN16@Linsert:

; 945  : 		const value_type& _Val = this->_Myval(_Node);
; 946  : 
; 947  : 		_Nodeptr _Trynode = _Root();
; 948  : 		_Nodeptr _Wherenode = this->_Myhead;
; 949  : 		bool _Addleft = true;	// add to left of head if tree empty
; 950  : 		while (!this->_Isnil(_Trynode))

  00047	80 78 35 00	 cmp	 BYTE PTR [eax+53], 0
  0004b	74 d5		 je	 SHORT $LL12@Linsert
$LN11@Linsert:

; 963  : 			}
; 964  : 
; 965  : 		if (this->_Multi)
; 966  : 			return (_Pairib(_Insert(_Addleft, _Wherenode, _Node), true));
; 967  : 		else
; 968  : 			{	// insert only if unique
; 969  : 			iterator _Where = iterator(_Wherenode, this);

  0004d	8b fb		 mov	 edi, ebx
  0004f	89 7d 10	 mov	 DWORD PTR __Where$535522[ebp], edi

; 970  : 			if (!_Addleft)

  00052	84 c9		 test	 cl, cl
  00054	74 31		 je	 SHORT $LN99@Linsert

; 971  : 				;	// need to test if insert after is okay
; 972  : 			else if (_Where == begin())

  00056	8b 46 04	 mov	 eax, DWORD PTR [esi+4]
  00059	3b 18		 cmp	 ebx, DWORD PTR [eax]
  0005b	75 1c		 jne	 SHORT $LN4@Linsert

; 973  : 				return (_Pairib(_Insert(true, _Wherenode, _Node), true));

  0005d	52		 push	 edx
  0005e	53		 push	 ebx
  0005f	6a 01		 push	 1
$LN162@Linsert:
  00061	8d 45 10	 lea	 eax, DWORD PTR $T541598[ebp]
  00064	50		 push	 eax
  00065	8b ce		 mov	 ecx, esi
  00067	e8 00 00 00 00	 call	 ?_Insert@?$_Tree@V?$_Tmap_traits@KUtagNamedTitleInfo@@U?$less@K@std@@V?$allocator@U?$pair@$$CBKUtagNamedTitleInfo@@@std@@@3@$0A@@std@@@std@@IAE?AV?$_Tree_iterator@V?$_Tree_val@V?$_Tmap_traits@KUtagNamedTitleInfo@@U?$less@K@std@@V?$allocator@U?$pair@$$CBKUtagNamedTitleInfo@@@std@@@3@$0A@@std@@@std@@@2@_NPAU_Node@?$_Tree_nod@V?$_Tmap_traits@KUtagNamedTitleInfo@@U?$less@K@std@@V?$allocator@U?$pair@$$CBKUtagNamedTitleInfo@@@std@@@3@$0A@@std@@@2@1@Z ; std::_Tree<std::_Tmap_traits<unsigned long,tagNamedTitleInfo,std::less<unsigned long>,std::allocator<std::pair<unsigned long const ,tagNamedTitleInfo> >,0> >::_Insert
  0006c	8b 08		 mov	 ecx, DWORD PTR [eax]
  0006e	8b 45 08	 mov	 eax, DWORD PTR ___$ReturnUdt$[ebp]
  00071	89 08		 mov	 DWORD PTR [eax], ecx
  00073	c6 40 04 01	 mov	 BYTE PTR [eax+4], 1
  00077	eb 37		 jmp	 SHORT $LN1@Linsert
$LN4@Linsert:

; 974  : 			else
; 975  : 				--_Where;	// need to test if insert before is okay

  00079	8d 4d 10	 lea	 ecx, DWORD PTR __Where$535522[ebp]
  0007c	e8 00 00 00 00	 call	 ??F?$_Tree_unchecked_const_iterator@V?$_Tree_val@V?$_Tmap_traits@KUtagNamedTitleInfo@@U?$less@K@std@@V?$allocator@U?$pair@$$CBKUtagNamedTitleInfo@@@std@@@3@$0A@@std@@@std@@U_Iterator_base0@2@@std@@QAEAAV01@XZ ; std::_Tree_unchecked_const_iterator<std::_Tree_val<std::_Tmap_traits<unsigned long,tagNamedTitleInfo,std::less<unsigned long>,std::allocator<std::pair<unsigned long const ,tagNamedTitleInfo> >,0> >,std::_Iterator_base0>::operator--
  00081	8b 7d 10	 mov	 edi, DWORD PTR __Where$535522[ebp]
  00084	8b 55 0c	 mov	 edx, DWORD PTR __Node$[ebp]
$LN99@Linsert:

; 976  : 
; 977  : 			if (_DEBUG_LT_PRED(this->comp,

  00087	8b 47 0c	 mov	 eax, DWORD PTR [edi+12]
  0008a	3b 42 0c	 cmp	 eax, DWORD PTR [edx+12]
  0008d	73 07		 jae	 SHORT $LN2@Linsert

; 978  : 				this->_Key(_Where._Mynode()),
; 979  : 				this->_Kfn(_Val)))
; 980  : 				return (_Pairib(_Insert(_Addleft, _Wherenode, _Node), true));

  0008f	52		 push	 edx
  00090	53		 push	 ebx
  00091	ff 75 fc	 push	 DWORD PTR __Addleft$[ebp]
  00094	eb cb		 jmp	 SHORT $LN162@Linsert
$LN2@Linsert:

; 981  : 			else
; 982  : 				{	// duplicate, don't insert
; 983  : 				_Dest_val(this->_Alval,
; 984  : 					_STD addressof(this->_Myval(_Node)));

  00096	8d 4a 10	 lea	 ecx, DWORD PTR [edx+16]
  00099	e8 00 00 00 00	 call	 ??1tagNamedTitleInfo@@QAE@XZ

; 985  : 
; 986  : 				this->_Alnod.deallocate(_Node, 1);

  0009e	ff 75 0c	 push	 DWORD PTR __Node$[ebp]
  000a1	e8 00 00 00 00	 call	 ??3@YAXPAX@Z		; operator delete

; 987  : 
; 988  : 				return (_Pairib(_Where, false));

  000a6	8b 45 08	 mov	 eax, DWORD PTR ___$ReturnUdt$[ebp]
  000a9	59		 pop	 ecx
  000aa	89 38		 mov	 DWORD PTR [eax], edi
  000ac	c6 40 04 00	 mov	 BYTE PTR [eax+4], 0
$LN1@Linsert:
  000b0	5f		 pop	 edi
  000b1	5e		 pop	 esi
  000b2	5b		 pop	 ebx

; 989  : 				}
; 990  : 			}
; 991  : 		}

  000b3	c9		 leave
  000b4	c2 0c 00	 ret	 12			; 0000000cH
?_Linsert@?$_Tree@V?$_Tmap_traits@KUtagNamedTitleInfo@@U?$less@K@std@@V?$allocator@U?$pair@$$CBKUtagNamedTitleInfo@@@std@@@3@$0A@@std@@@std@@QAE?AU?$pair@V?$_Tree_iterator@V?$_Tree_val@V?$_Tmap_traits@KUtagNamedTitleInfo@@U?$less@K@std@@V?$allocator@U?$pair@$$CBKUtagNamedTitleInfo@@@std@@@3@$0A@@std@@@std@@@std@@_N@2@PAU_Node@?$_Tree_nod@V?$_Tmap_traits@KUtagNamedTitleInfo@@U?$less@K@std@@V?$allocator@U?$pair@$$CBKUtagNamedTitleInfo@@@std@@@3@$0A@@std@@@2@_N@Z ENDP ; std::_Tree<std::_Tmap_traits<unsigned long,tagNamedTitleInfo,std::less<unsigned long>,std::allocator<std::pair<unsigned long const ,tagNamedTitleInfo> >,0> >::_Linsert
_TEXT	ENDS
PUBLIC	?clear@?$_Tree@V?$_Tmap_traits@KUtagNamedTitleInfo@@U?$less@K@std@@V?$allocator@U?$pair@$$CBKUtagNamedTitleInfo@@@std@@@3@$0A@@std@@@std@@QAEXXZ ; std::_Tree<std::_Tmap_traits<unsigned long,tagNamedTitleInfo,std::less<unsigned long>,std::allocator<std::pair<unsigned long const ,tagNamedTitleInfo> >,0> >::clear
; Function compile flags: /Ogsp
;	COMDAT ?clear@?$_Tree@V?$_Tmap_traits@KUtagNamedTitleInfo@@U?$less@K@std@@V?$allocator@U?$pair@$$CBKUtagNamedTitleInfo@@@std@@@3@$0A@@std@@@std@@QAEXXZ
_TEXT	SEGMENT
?clear@?$_Tree@V?$_Tmap_traits@KUtagNamedTitleInfo@@U?$less@K@std@@V?$allocator@U?$pair@$$CBKUtagNamedTitleInfo@@@std@@@3@$0A@@std@@@std@@QAEXXZ PROC ; std::_Tree<std::_Tmap_traits<unsigned long,tagNamedTitleInfo,std::less<unsigned long>,std::allocator<std::pair<unsigned long const ,tagNamedTitleInfo> >,0> >::clear, COMDAT
; _this$ = ecx

; 1410 : 		{	// erase all

  00000	56		 push	 esi
  00001	57		 push	 edi
  00002	8b f9		 mov	 edi, ecx

; 1411 :  #if _ITERATOR_DEBUG_LEVEL == 2
; 1412 : 		this->_Orphan_ptr(*this, 0);
; 1413 :  #endif /* _ITERATOR_DEBUG_LEVEL == 2 */
; 1414 : 
; 1415 : 		_Erase(_Root());

  00004	8b 47 04	 mov	 eax, DWORD PTR [edi+4]
  00007	ff 70 04	 push	 DWORD PTR [eax+4]
  0000a	e8 00 00 00 00	 call	 ?_Erase@?$_Tree@V?$_Tmap_traits@KUtagNamedTitleInfo@@U?$less@K@std@@V?$allocator@U?$pair@$$CBKUtagNamedTitleInfo@@@std@@@3@$0A@@std@@@std@@IAEXPAU_Node@?$_Tree_nod@V?$_Tmap_traits@KUtagNamedTitleInfo@@U?$less@K@std@@V?$allocator@U?$pair@$$CBKUtagNamedTitleInfo@@@std@@@3@$0A@@std@@@2@@Z ; std::_Tree<std::_Tmap_traits<unsigned long,tagNamedTitleInfo,std::less<unsigned long>,std::allocator<std::pair<unsigned long const ,tagNamedTitleInfo> >,0> >::_Erase

; 1416 : 		_Root() = this->_Myhead;

  0000f	8b 47 04	 mov	 eax, DWORD PTR [edi+4]
  00012	89 40 04	 mov	 DWORD PTR [eax+4], eax

; 1417 : 		_Lmost() = this->_Myhead;

  00015	8b 47 04	 mov	 eax, DWORD PTR [edi+4]
  00018	89 00		 mov	 DWORD PTR [eax], eax

; 1418 : 		_Rmost() = this->_Myhead;

  0001a	8b 77 04	 mov	 esi, DWORD PTR [edi+4]
  0001d	89 76 08	 mov	 DWORD PTR [esi+8], esi

; 1419 : 		this->_Mysize = 0;

  00020	83 67 08 00	 and	 DWORD PTR [edi+8], 0
  00024	5f		 pop	 edi
  00025	5e		 pop	 esi

; 1420 : 		}

  00026	c3		 ret	 0
?clear@?$_Tree@V?$_Tmap_traits@KUtagNamedTitleInfo@@U?$less@K@std@@V?$allocator@U?$pair@$$CBKUtagNamedTitleInfo@@@std@@@3@$0A@@std@@@std@@QAEXXZ ENDP ; std::_Tree<std::_Tmap_traits<unsigned long,tagNamedTitleInfo,std::less<unsigned long>,std::allocator<std::pair<unsigned long const ,tagNamedTitleInfo> >,0> >::clear
_TEXT	ENDS
PUBLIC	?erase@?$_Tree@V?$_Tmap_traits@KUtagNamedTitleInfo@@U?$less@K@std@@V?$allocator@U?$pair@$$CBKUtagNamedTitleInfo@@@std@@@3@$0A@@std@@@std@@QAE?AV?$_Tree_iterator@V?$_Tree_val@V?$_Tmap_traits@KUtagNamedTitleInfo@@U?$less@K@std@@V?$allocator@U?$pair@$$CBKUtagNamedTitleInfo@@@std@@@3@$0A@@std@@@std@@@2@V?$_Tree_const_iterator@V?$_Tree_val@V?$_Tmap_traits@KUtagNamedTitleInfo@@U?$less@K@std@@V?$allocator@U?$pair@$$CBKUtagNamedTitleInfo@@@std@@@3@$0A@@std@@@std@@@2@0@Z ; std::_Tree<std::_Tmap_traits<unsigned long,tagNamedTitleInfo,std::less<unsigned long>,std::allocator<std::pair<unsigned long const ,tagNamedTitleInfo> >,0> >::erase
; Function compile flags: /Ogsp
;	COMDAT ?erase@?$_Tree@V?$_Tmap_traits@KUtagNamedTitleInfo@@U?$less@K@std@@V?$allocator@U?$pair@$$CBKUtagNamedTitleInfo@@@std@@@3@$0A@@std@@@std@@QAE?AV?$_Tree_iterator@V?$_Tree_val@V?$_Tmap_traits@KUtagNamedTitleInfo@@U?$less@K@std@@V?$allocator@U?$pair@$$CBKUtagNamedTitleInfo@@@std@@@3@$0A@@std@@@std@@@2@V?$_Tree_const_iterator@V?$_Tree_val@V?$_Tmap_traits@KUtagNamedTitleInfo@@U?$less@K@std@@V?$allocator@U?$pair@$$CBKUtagNamedTitleInfo@@@std@@@3@$0A@@std@@@std@@@2@0@Z
_TEXT	SEGMENT
$T542007 = -4						; size = 4
___$ReturnUdt$ = 8					; size = 4
__First$ = 12						; size = 4
__Last$ = 16						; size = 4
?erase@?$_Tree@V?$_Tmap_traits@KUtagNamedTitleInfo@@U?$less@K@std@@V?$allocator@U?$pair@$$CBKUtagNamedTitleInfo@@@std@@@3@$0A@@std@@@std@@QAE?AV?$_Tree_iterator@V?$_Tree_val@V?$_Tmap_traits@KUtagNamedTitleInfo@@U?$less@K@std@@V?$allocator@U?$pair@$$CBKUtagNamedTitleInfo@@@std@@@3@$0A@@std@@@std@@@2@V?$_Tree_const_iterator@V?$_Tree_val@V?$_Tmap_traits@KUtagNamedTitleInfo@@U?$less@K@std@@V?$allocator@U?$pair@$$CBKUtagNamedTitleInfo@@@std@@@3@$0A@@std@@@std@@@2@0@Z PROC ; std::_Tree<std::_Tmap_traits<unsigned long,tagNamedTitleInfo,std::less<unsigned long>,std::allocator<std::pair<unsigned long const ,tagNamedTitleInfo> >,0> >::erase, COMDAT
; _this$ = ecx

; 1379 : 		{	// erase [_First, _Last)

  00000	55		 push	 ebp
  00001	8b ec		 mov	 ebp, esp
  00003	51		 push	 ecx
  00004	56		 push	 esi
  00005	8b f1		 mov	 esi, ecx

; 1380 : 		if (_First == begin() && _Last == end())

  00007	8b 46 04	 mov	 eax, DWORD PTR [esi+4]
  0000a	8b 4d 0c	 mov	 ecx, DWORD PTR __First$[ebp]
  0000d	3b 08		 cmp	 ecx, DWORD PTR [eax]
  0000f	75 13		 jne	 SHORT $LN65@erase@3
  00011	39 45 10	 cmp	 DWORD PTR __Last$[ebp], eax
  00014	75 0e		 jne	 SHORT $LN65@erase@3

; 1381 : 			{	// erase all
; 1382 : 			clear();

  00016	8b ce		 mov	 ecx, esi
  00018	e8 00 00 00 00	 call	 ?clear@?$_Tree@V?$_Tmap_traits@KUtagNamedTitleInfo@@U?$less@K@std@@V?$allocator@U?$pair@$$CBKUtagNamedTitleInfo@@@std@@@3@$0A@@std@@@std@@QAEXXZ ; std::_Tree<std::_Tmap_traits<unsigned long,tagNamedTitleInfo,std::less<unsigned long>,std::allocator<std::pair<unsigned long const ,tagNamedTitleInfo> >,0> >::clear

; 1383 : 			return (begin());

  0001d	8b 46 04	 mov	 eax, DWORD PTR [esi+4]
  00020	8b 08		 mov	 ecx, DWORD PTR [eax]
  00022	eb 25		 jmp	 SHORT $LN1@erase@3
$LN65@erase@3:

; 1384 : 			}
; 1385 : 		else
; 1386 : 			{	// partial erase, one at a time
; 1387 : 			while (_First != _Last)

  00024	3b 4d 10	 cmp	 ecx, DWORD PTR __Last$[ebp]
  00027	74 20		 je	 SHORT $LN1@erase@3
  00029	57		 push	 edi
$LL2@erase@3:

; 1388 : 				erase(_First++);

  0002a	8b f9		 mov	 edi, ecx
  0002c	8d 4d 0c	 lea	 ecx, DWORD PTR __First$[ebp]
  0002f	e8 00 00 00 00	 call	 ??E?$_Tree_unchecked_const_iterator@V?$_Tree_val@V?$_Tmap_traits@KUtagNamedTitleInfo@@U?$less@K@std@@V?$allocator@U?$pair@$$CBKUtagNamedTitleInfo@@@std@@@3@$0A@@std@@@std@@U_Iterator_base0@2@@std@@QAEAAV01@XZ ; std::_Tree_unchecked_const_iterator<std::_Tree_val<std::_Tmap_traits<unsigned long,tagNamedTitleInfo,std::less<unsigned long>,std::allocator<std::pair<unsigned long const ,tagNamedTitleInfo> >,0> >,std::_Iterator_base0>::operator++
  00034	57		 push	 edi
  00035	8d 45 fc	 lea	 eax, DWORD PTR $T542007[ebp]
  00038	50		 push	 eax
  00039	8b ce		 mov	 ecx, esi
  0003b	e8 00 00 00 00	 call	 ?erase@?$_Tree@V?$_Tmap_traits@KUtagNamedTitleInfo@@U?$less@K@std@@V?$allocator@U?$pair@$$CBKUtagNamedTitleInfo@@@std@@@3@$0A@@std@@@std@@QAE?AV?$_Tree_iterator@V?$_Tree_val@V?$_Tmap_traits@KUtagNamedTitleInfo@@U?$less@K@std@@V?$allocator@U?$pair@$$CBKUtagNamedTitleInfo@@@std@@@3@$0A@@std@@@std@@@2@V?$_Tree_const_iterator@V?$_Tree_val@V?$_Tmap_traits@KUtagNamedTitleInfo@@U?$less@K@std@@V?$allocator@U?$pair@$$CBKUtagNamedTitleInfo@@@std@@@3@$0A@@std@@@std@@@2@@Z ; std::_Tree<std::_Tmap_traits<unsigned long,tagNamedTitleInfo,std::less<unsigned long>,std::allocator<std::pair<unsigned long const ,tagNamedTitleInfo> >,0> >::erase
  00040	8b 4d 0c	 mov	 ecx, DWORD PTR __First$[ebp]
  00043	3b 4d 10	 cmp	 ecx, DWORD PTR __Last$[ebp]
  00046	75 e2		 jne	 SHORT $LL2@erase@3
  00048	5f		 pop	 edi
$LN1@erase@3:

; 1389 : 			return (iterator(_First._Ptr, this));

  00049	8b 45 08	 mov	 eax, DWORD PTR ___$ReturnUdt$[ebp]
  0004c	89 08		 mov	 DWORD PTR [eax], ecx
  0004e	5e		 pop	 esi

; 1390 : 			}
; 1391 : 		}

  0004f	c9		 leave
  00050	c2 0c 00	 ret	 12			; 0000000cH
?erase@?$_Tree@V?$_Tmap_traits@KUtagNamedTitleInfo@@U?$less@K@std@@V?$allocator@U?$pair@$$CBKUtagNamedTitleInfo@@@std@@@3@$0A@@std@@@std@@QAE?AV?$_Tree_iterator@V?$_Tree_val@V?$_Tmap_traits@KUtagNamedTitleInfo@@U?$less@K@std@@V?$allocator@U?$pair@$$CBKUtagNamedTitleInfo@@@std@@@3@$0A@@std@@@std@@@2@V?$_Tree_const_iterator@V?$_Tree_val@V?$_Tmap_traits@KUtagNamedTitleInfo@@U?$less@K@std@@V?$allocator@U?$pair@$$CBKUtagNamedTitleInfo@@@std@@@3@$0A@@std@@@std@@@2@0@Z ENDP ; std::_Tree<std::_Tmap_traits<unsigned long,tagNamedTitleInfo,std::less<unsigned long>,std::allocator<std::pair<unsigned long const ,tagNamedTitleInfo> >,0> >::erase
_TEXT	ENDS
PUBLIC	??$insert@U?$pair@KUtagNamedTitleInfo@@@std@@@?$_Tree@V?$_Tmap_traits@KUtagNamedTitleInfo@@U?$less@K@std@@V?$allocator@U?$pair@$$CBKUtagNamedTitleInfo@@@std@@@3@$0A@@std@@@std@@QAE?AU?$pair@V?$_Tree_iterator@V?$_Tree_val@V?$_Tmap_traits@KUtagNamedTitleInfo@@U?$less@K@std@@V?$allocator@U?$pair@$$CBKUtagNamedTitleInfo@@@std@@@3@$0A@@std@@@std@@@std@@_N@1@$$QAU?$pair@KUtagNamedTitleInfo@@@1@@Z ; std::_Tree<std::_Tmap_traits<unsigned long,tagNamedTitleInfo,std::less<unsigned long>,std::allocator<std::pair<unsigned long const ,tagNamedTitleInfo> >,0> >::insert<std::pair<unsigned long,tagNamedTitleInfo> >
; Function compile flags: /Ogsp
;	COMDAT ??$insert@U?$pair@KUtagNamedTitleInfo@@@std@@@?$_Tree@V?$_Tmap_traits@KUtagNamedTitleInfo@@U?$less@K@std@@V?$allocator@U?$pair@$$CBKUtagNamedTitleInfo@@@std@@@3@$0A@@std@@@std@@QAE?AU?$pair@V?$_Tree_iterator@V?$_Tree_val@V?$_Tmap_traits@KUtagNamedTitleInfo@@U?$less@K@std@@V?$allocator@U?$pair@$$CBKUtagNamedTitleInfo@@@std@@@3@$0A@@std@@@std@@@std@@_N@1@$$QAU?$pair@KUtagNamedTitleInfo@@@1@@Z
_TEXT	SEGMENT
___$ReturnUdt$ = 8					; size = 4
__Val$ = 12						; size = 4
??$insert@U?$pair@KUtagNamedTitleInfo@@@std@@@?$_Tree@V?$_Tmap_traits@KUtagNamedTitleInfo@@U?$less@K@std@@V?$allocator@U?$pair@$$CBKUtagNamedTitleInfo@@@std@@@3@$0A@@std@@@std@@QAE?AU?$pair@V?$_Tree_iterator@V?$_Tree_val@V?$_Tmap_traits@KUtagNamedTitleInfo@@U?$less@K@std@@V?$allocator@U?$pair@$$CBKUtagNamedTitleInfo@@@std@@@3@$0A@@std@@@std@@@std@@_N@1@$$QAU?$pair@KUtagNamedTitleInfo@@@1@@Z PROC ; std::_Tree<std::_Tmap_traits<unsigned long,tagNamedTitleInfo,std::less<unsigned long>,std::allocator<std::pair<unsigned long const ,tagNamedTitleInfo> >,0> >::insert<std::pair<unsigned long,tagNamedTitleInfo> >, COMDAT
; _this$ = ecx

; 753  : 		_Pairib insert(_Valty&& _Val)

  00000	55		 push	 ebp
  00001	8b ec		 mov	 ebp, esp
  00003	56		 push	 esi

; 754  : 		{	// try to insert node with value _Val, favoring right side
; 755  : 		return (_Linsert(this->_Buynode(_STD forward<_Valty>(_Val)),
; 756  : 			false));

  00004	6a 00		 push	 0
  00006	ff 75 0c	 push	 DWORD PTR __Val$[ebp]
  00009	8b f1		 mov	 esi, ecx
  0000b	e8 00 00 00 00	 call	 ??$_Buynode@U?$pair@KUtagNamedTitleInfo@@@std@@@?$_Tree_val@V?$_Tmap_traits@KUtagNamedTitleInfo@@U?$less@K@std@@V?$allocator@U?$pair@$$CBKUtagNamedTitleInfo@@@std@@@3@$0A@@std@@@std@@QAEPAU_Node@?$_Tree_nod@V?$_Tmap_traits@KUtagNamedTitleInfo@@U?$less@K@std@@V?$allocator@U?$pair@$$CBKUtagNamedTitleInfo@@@std@@@3@$0A@@std@@@1@$$QAU?$pair@KUtagNamedTitleInfo@@@1@@Z ; std::_Tree_val<std::_Tmap_traits<unsigned long,tagNamedTitleInfo,std::less<unsigned long>,std::allocator<std::pair<unsigned long const ,tagNamedTitleInfo> >,0> >::_Buynode<std::pair<unsigned long,tagNamedTitleInfo> >
  00010	50		 push	 eax
  00011	ff 75 08	 push	 DWORD PTR ___$ReturnUdt$[ebp]
  00014	8b ce		 mov	 ecx, esi
  00016	e8 00 00 00 00	 call	 ?_Linsert@?$_Tree@V?$_Tmap_traits@KUtagNamedTitleInfo@@U?$less@K@std@@V?$allocator@U?$pair@$$CBKUtagNamedTitleInfo@@@std@@@3@$0A@@std@@@std@@QAE?AU?$pair@V?$_Tree_iterator@V?$_Tree_val@V?$_Tmap_traits@KUtagNamedTitleInfo@@U?$less@K@std@@V?$allocator@U?$pair@$$CBKUtagNamedTitleInfo@@@std@@@3@$0A@@std@@@std@@@std@@_N@2@PAU_Node@?$_Tree_nod@V?$_Tmap_traits@KUtagNamedTitleInfo@@U?$less@K@std@@V?$allocator@U?$pair@$$CBKUtagNamedTitleInfo@@@std@@@3@$0A@@std@@@2@_N@Z ; std::_Tree<std::_Tmap_traits<unsigned long,tagNamedTitleInfo,std::less<unsigned long>,std::allocator<std::pair<unsigned long const ,tagNamedTitleInfo> >,0> >::_Linsert
  0001b	8b 45 08	 mov	 eax, DWORD PTR ___$ReturnUdt$[ebp]
  0001e	5e		 pop	 esi

; 757  : 		}

  0001f	5d		 pop	 ebp
  00020	c2 08 00	 ret	 8
??$insert@U?$pair@KUtagNamedTitleInfo@@@std@@@?$_Tree@V?$_Tmap_traits@KUtagNamedTitleInfo@@U?$less@K@std@@V?$allocator@U?$pair@$$CBKUtagNamedTitleInfo@@@std@@@3@$0A@@std@@@std@@QAE?AU?$pair@V?$_Tree_iterator@V?$_Tree_val@V?$_Tmap_traits@KUtagNamedTitleInfo@@U?$less@K@std@@V?$allocator@U?$pair@$$CBKUtagNamedTitleInfo@@@std@@@3@$0A@@std@@@std@@@std@@_N@1@$$QAU?$pair@KUtagNamedTitleInfo@@@1@@Z ENDP ; std::_Tree<std::_Tmap_traits<unsigned long,tagNamedTitleInfo,std::less<unsigned long>,std::allocator<std::pair<unsigned long const ,tagNamedTitleInfo> >,0> >::insert<std::pair<unsigned long,tagNamedTitleInfo> >
_TEXT	ENDS
PUBLIC	?ClearData@ioNamedTitleInfoManager@@QAEXXZ	; ioNamedTitleInfoManager::ClearData
; Function compile flags: /Ogsp
; File d:\lost saga for developer\youtube\tutorial\source\src\lsclient\ionamedtitleinfomanager.cpp
;	COMDAT ?ClearData@ioNamedTitleInfoManager@@QAEXXZ
_TEXT	SEGMENT
?ClearData@ioNamedTitleInfoManager@@QAEXXZ PROC		; ioNamedTitleInfoManager::ClearData, COMDAT
; _this$ = ecx

; 35   : {

  00000	56		 push	 esi
  00001	8b f1		 mov	 esi, ecx

; 36   : 	m_vInfoList.clear();

  00003	8d 4e 04	 lea	 ecx, DWORD PTR [esi+4]
  00006	e8 00 00 00 00	 call	 ?clear@?$_Tree@V?$_Tmap_traits@KUtagNamedTitleInfo@@U?$less@K@std@@V?$allocator@U?$pair@$$CBKUtagNamedTitleInfo@@@std@@@3@$0A@@std@@@std@@QAEXXZ ; std::_Tree<std::_Tmap_traits<unsigned long,tagNamedTitleInfo,std::less<unsigned long>,std::allocator<std::pair<unsigned long const ,tagNamedTitleInfo> >,0> >::clear

; 37   : 	SAFEDELETE( m_pPremiumBaseMark );

  0000b	8b 4e 58	 mov	 ecx, DWORD PTR [esi+88]
  0000e	85 c9		 test	 ecx, ecx
  00010	74 0b		 je	 SHORT $LN1@ClearData
  00012	8b 01		 mov	 eax, DWORD PTR [ecx]
  00014	6a 01		 push	 1
  00016	ff 50 40	 call	 DWORD PTR [eax+64]
  00019	83 66 58 00	 and	 DWORD PTR [esi+88], 0
$LN1@ClearData:
  0001d	5e		 pop	 esi

; 38   : }

  0001e	c3		 ret	 0
?ClearData@ioNamedTitleInfoManager@@QAEXXZ ENDP		; ioNamedTitleInfoManager::ClearData
_TEXT	ENDS
PUBLIC	_rkLoader$GSCopy$
PUBLIC	_this$GSCopy$
PUBLIC	?LoadBase@ioNamedTitleInfoManager@@IAEXAAVioINILoader@@@Z ; ioNamedTitleInfoManager::LoadBase
EXTRN	__imp__strtoul:PROC
EXTRN	__imp__wsprintfA:PROC
EXTRN	__imp_??4ioHashString@@QAEAAV0@PBD@Z:PROC
EXTRN	__EH_epilog3_GS:PROC
EXTRN	__EH_prolog3_GS:PROC
;	COMDAT xdata$x
xdata$x	SEGMENT
__unwindtable$?LoadBase@ioNamedTitleInfoManager@@IAEXAAVioINILoader@@@Z DD 0ffffffffH
	DD	FLAT:__unwindfunclet$?LoadBase@ioNamedTitleInfoManager@@IAEXAAVioINILoader@@@Z$0
	DD	00H
	DD	FLAT:__unwindfunclet$?LoadBase@ioNamedTitleInfoManager@@IAEXAAVioINILoader@@@Z$1
	DD	01H
	DD	FLAT:__unwindfunclet$?LoadBase@ioNamedTitleInfoManager@@IAEXAAVioINILoader@@@Z$2
	DD	01H
	DD	FLAT:__unwindfunclet$?LoadBase@ioNamedTitleInfoManager@@IAEXAAVioINILoader@@@Z$3
__ehfuncinfo$?LoadBase@ioNamedTitleInfoManager@@IAEXAAVioINILoader@@@Z DD 019930522H
	DD	04H
	DD	FLAT:__unwindtable$?LoadBase@ioNamedTitleInfoManager@@IAEXAAVioINILoader@@@Z
	DD	2 DUP(00H)
	DD	2 DUP(00H)
	DD	00H
	DD	01H
; Function compile flags: /Ogsp
xdata$x	ENDS
;	COMDAT ?LoadBase@ioNamedTitleInfoManager@@IAEXAAVioINILoader@@@Z
_TEXT	SEGMENT
_sNamedTitleInfo$ = -676				; size = 36
_szColorTemp$ = -640					; size = 16
$T542208 = -624						; size = 8
_this$GSCopy$ = -620					; size = 4
_dwCode$ = -616						; size = 4
_pTemp$ = -612						; size = 4
_rkLoader$GSCopy$ = -608				; size = 4
tv4364 = -604						; size = 4
tv2014 = -600						; size = 4
_nLevelCnt$ = -600					; size = 4
_szKey$ = -596						; size = 260
_szBuf$ = -336						; size = 260
$T542207 = -76						; size = 40
___encStr$532482 = -60					; size = 19
___encStr$532330 = -60					; size = 20
__k$542478 = -36					; size = 16
_sNamedTitleGrade$532326 = -36				; size = 20
__k$542353 = -32					; size = 11
__k$542228 = -32					; size = 11
__$EHRec$ = -12						; size = 12
_rkLoader$ = 8						; size = 4
?LoadBase@ioNamedTitleInfoManager@@IAEXAAVioINILoader@@@Z PROC ; ioNamedTitleInfoManager::LoadBase, COMDAT
; _this$ = ecx

; 110  : {

  00000	68 98 02 00 00	 push	 664			; 00000298H
  00005	b8 00 00 00 00	 mov	 eax, __ehhandler$?LoadBase@ioNamedTitleInfoManager@@IAEXAAVioINILoader@@@Z
  0000a	e8 00 00 00 00	 call	 __EH_prolog3_GS
  0000f	8b 7d 08	 mov	 edi, DWORD PTR _rkLoader$[ebp]

; 111  : 	char szBuf[MAX_PATH], szKey[MAX_PATH];
; 112  : 
; 113  : 	DWORD dwCode = rkLoader.LoadInt_e( "title_code", 0 );

  00012	6a 02		 push	 2
  00014	89 8d 94 fd ff
	ff		 mov	 DWORD PTR _this$GSCopy$[ebp], ecx

; 135  : 		
; 136  : 		wsprintf_e( szKey, "title_grade%d_mark", i+1 );

  0001a	89 bd a0 fd ff
	ff		 mov	 DWORD PTR _rkLoader$GSCopy$[ebp], edi
  00020	c7 45 e0 99 85
	9f 86		 mov	 DWORD PTR __k$542228[ebp], -2036365927 ; 869f8599H
  00027	c7 45 e4 88 b3
	88 85		 mov	 DWORD PTR __k$542228[ebp+4], -2054638712 ; 8588b388H
  0002e	66 c7 45 e8 89
	89		 mov	 WORD PTR __k$542228[ebp+8], 35209 ; 00008989H
  00034	8d 45 e0	 lea	 eax, DWORD PTR __k$542228[ebp]
  00037	c6 45 ea 00	 mov	 BYTE PTR __k$542228[ebp+10], 0
  0003b	59		 pop	 ecx
$LL312@LoadBase:

; 111  : 	char szBuf[MAX_PATH], szKey[MAX_PATH];
; 112  : 
; 113  : 	DWORD dwCode = rkLoader.LoadInt_e( "title_code", 0 );

  0003c	81 30 ed ec eb
	ea		 xor	 DWORD PTR [eax], -353637139 ; eaebecedH
  00042	83 c0 04	 add	 eax, 4
  00045	49		 dec	 ecx
  00046	75 f4		 jne	 SHORT $LL312@LoadBase
  00048	6a 08		 push	 8
  0004a	58		 pop	 eax
$LL309@LoadBase:
  0004b	8b c8		 mov	 ecx, eax
  0004d	81 e1 03 00 00
	80		 and	 ecx, -2147483645	; 80000003H
  00053	79 05		 jns	 SHORT $LN579@LoadBase
  00055	49		 dec	 ecx
  00056	83 c9 fc	 or	 ecx, -4			; fffffffcH
  00059	41		 inc	 ecx
$LN579@LoadBase:
  0005a	b2 ed		 mov	 dl, -19			; ffffffedH
  0005c	2a d1		 sub	 dl, cl
  0005e	30 54 05 e0	 xor	 BYTE PTR __k$542228[ebp+eax], dl
  00062	40		 inc	 eax
  00063	83 f8 0a	 cmp	 eax, 10			; 0000000aH
  00066	7c e3		 jl	 SHORT $LL309@LoadBase
  00068	6a 00		 push	 0
  0006a	8d 45 e0	 lea	 eax, DWORD PTR __k$542228[ebp]
  0006d	50		 push	 eax
  0006e	8b cf		 mov	 ecx, edi
  00070	ff 15 00 00 00
	00		 call	 DWORD PTR __imp_?LoadInt@ioINILoader@@QAEHPBDH@Z
  00076	8b f0		 mov	 esi, eax
  00078	89 b5 98 fd ff
	ff		 mov	 DWORD PTR _dwCode$[ebp], esi

; 114  : 	if ( dwCode <= 0 )

  0007e	85 f6		 test	 esi, esi
  00080	0f 84 2a 03 00
	00		 je	 $LN203@LoadBase

; 115  : 		return;
; 116  : 
; 117  : 	NamedTitleInfo sNamedTitleInfo;

  00086	8d 8d 5c fd ff
	ff		 lea	 ecx, DWORD PTR _sNamedTitleInfo$[ebp]
  0008c	e8 00 00 00 00	 call	 ??0tagNamedTitleInfo@@QAE@XZ ; tagNamedTitleInfo::tagNamedTitleInfo
  00091	83 65 fc 00	 and	 DWORD PTR __$EHRec$[ebp+8], 0
  00095	6a 02		 push	 2

; 118  : 	sNamedTitleInfo.m_dwCode = dwCode;

  00097	89 b5 5c fd ff
	ff		 mov	 DWORD PTR _sNamedTitleInfo$[ebp], esi

; 119  : 
; 120  : 	rkLoader.LoadString_e( "title_name", "", szBuf, MAX_PATH );

  0009d	c7 45 e0 99 85
	9f 86		 mov	 DWORD PTR __k$542353[ebp], -2036365927 ; 869f8599H
  000a4	c7 45 e4 88 b3
	85 8b		 mov	 DWORD PTR __k$542353[ebp+4], -1954172024 ; 8b85b388H
  000ab	66 c7 45 e8 80
	89		 mov	 WORD PTR __k$542353[ebp+8], 35200 ; 00008980H
  000b1	8d 45 e0	 lea	 eax, DWORD PTR __k$542353[ebp]
  000b4	c6 45 ea 00	 mov	 BYTE PTR __k$542353[ebp+10], 0
  000b8	59		 pop	 ecx
$LL418@LoadBase:
  000b9	81 30 ed ec eb
	ea		 xor	 DWORD PTR [eax], -353637139 ; eaebecedH
  000bf	83 c0 04	 add	 eax, 4
  000c2	49		 dec	 ecx
  000c3	75 f4		 jne	 SHORT $LL418@LoadBase
  000c5	6a 08		 push	 8
  000c7	58		 pop	 eax
$LL415@LoadBase:
  000c8	8b c8		 mov	 ecx, eax
  000ca	81 e1 03 00 00
	80		 and	 ecx, -2147483645	; 80000003H
  000d0	79 05		 jns	 SHORT $LN580@LoadBase
  000d2	49		 dec	 ecx
  000d3	83 c9 fc	 or	 ecx, -4			; fffffffcH
  000d6	41		 inc	 ecx
$LN580@LoadBase:
  000d7	b2 ed		 mov	 dl, -19			; ffffffedH
  000d9	2a d1		 sub	 dl, cl
  000db	30 54 05 e0	 xor	 BYTE PTR __k$542353[ebp+eax], dl
  000df	40		 inc	 eax
  000e0	83 f8 0a	 cmp	 eax, 10			; 0000000aH
  000e3	7c e3		 jl	 SHORT $LL415@LoadBase
  000e5	8b 35 00 00 00
	00		 mov	 esi, DWORD PTR __imp_?LoadStringA@ioINILoader@@QAEXPBD0PADH@Z
  000eb	68 04 01 00 00	 push	 260			; 00000104H
  000f0	8d 85 b0 fe ff
	ff		 lea	 eax, DWORD PTR _szBuf$[ebp]
  000f6	50		 push	 eax
  000f7	bb 00 00 00 00	 mov	 ebx, OFFSET ??_C@_00CNPNBAHC@?$AA@
  000fc	53		 push	 ebx
  000fd	8d 45 e0	 lea	 eax, DWORD PTR __k$542353[ebp]
  00100	50		 push	 eax
  00101	8b cf		 mov	 ecx, edi
  00103	ff d6		 call	 esi

; 121  : 	sNamedTitleInfo.m_szName = szBuf;

  00105	8b 3d 00 00 00
	00		 mov	 edi, DWORD PTR __imp_??4ioHashString@@QAEAAV0@PBD@Z
  0010b	8d 85 b0 fe ff
	ff		 lea	 eax, DWORD PTR _szBuf$[ebp]
  00111	50		 push	 eax
  00112	8d 8d 60 fd ff
	ff		 lea	 ecx, DWORD PTR _sNamedTitleInfo$[ebp+4]
  00118	ff d7		 call	 edi
  0011a	6a 03		 push	 3

; 122  : 	
; 123  : 	int nLevelCnt = rkLoader.LoadInt_e( "title_grade_cnt", 0 );

  0011c	c7 45 dc 99 85
	9f 86		 mov	 DWORD PTR __k$542478[ebp], -2036365927 ; 869f8599H
  00123	c7 45 e0 88 b3
	8c 98		 mov	 DWORD PTR __k$542478[ebp+4], -1735609464 ; 988cb388H
  0012a	c7 45 e4 8c 88
	8e b5		 mov	 DWORD PTR __k$542478[ebp+8], -1248950132 ; b58e888cH
  00131	8d 45 dc	 lea	 eax, DWORD PTR __k$542478[ebp]
  00134	c7 45 e8 8e 82
	9f 00		 mov	 DWORD PTR __k$542478[ebp+12], 10453646 ; 009f828eH
  0013b	59		 pop	 ecx
$LL524@LoadBase:
  0013c	81 30 ed ec eb
	ea		 xor	 DWORD PTR [eax], -353637139 ; eaebecedH
  00142	83 c0 04	 add	 eax, 4
  00145	49		 dec	 ecx
  00146	75 f4		 jne	 SHORT $LL524@LoadBase
  00148	6a 0c		 push	 12			; 0000000cH
  0014a	58		 pop	 eax
$LL521@LoadBase:
  0014b	8b c8		 mov	 ecx, eax
  0014d	81 e1 03 00 00
	80		 and	 ecx, -2147483645	; 80000003H
  00153	79 05		 jns	 SHORT $LN581@LoadBase
  00155	49		 dec	 ecx
  00156	83 c9 fc	 or	 ecx, -4			; fffffffcH
  00159	41		 inc	 ecx
$LN581@LoadBase:
  0015a	b2 ed		 mov	 dl, -19			; ffffffedH
  0015c	2a d1		 sub	 dl, cl
  0015e	30 54 05 dc	 xor	 BYTE PTR __k$542478[ebp+eax], dl
  00162	40		 inc	 eax
  00163	83 f8 0f	 cmp	 eax, 15			; 0000000fH
  00166	7c e3		 jl	 SHORT $LL521@LoadBase
  00168	8b 8d a0 fd ff
	ff		 mov	 ecx, DWORD PTR _rkLoader$GSCopy$[ebp]
  0016e	6a 00		 push	 0
  00170	8d 45 dc	 lea	 eax, DWORD PTR __k$542478[ebp]
  00173	50		 push	 eax
  00174	ff 15 00 00 00
	00		 call	 DWORD PTR __imp_?LoadInt@ioINILoader@@QAEHPBDH@Z

; 124  : 	char *pTemp = NULL;

  0017a	83 a5 9c fd ff
	ff 00		 and	 DWORD PTR _pTemp$[ebp], 0

; 125  : 	ioHashString szColorTemp;

  00181	8d 8d 80 fd ff
	ff		 lea	 ecx, DWORD PTR _szColorTemp$[ebp]
  00187	89 85 a8 fd ff
	ff		 mov	 DWORD PTR _nLevelCnt$[ebp], eax
  0018d	ff 15 00 00 00
	00		 call	 DWORD PTR __imp_??0ioHashString@@QAE@XZ

; 126  : 	for ( int i=0; i<nLevelCnt; i++ )

  00193	8b 85 a8 fd ff
	ff		 mov	 eax, DWORD PTR _nLevelCnt$[ebp]
  00199	c6 45 fc 01	 mov	 BYTE PTR __$EHRec$[ebp+8], 1
  0019d	85 c0		 test	 eax, eax
  0019f	0f 8e a1 01 00
	00		 jle	 $LN199@LoadBase

; 122  : 	
; 123  : 	int nLevelCnt = rkLoader.LoadInt_e( "title_grade_cnt", 0 );

  001a5	c7 85 a4 fd ff
	ff 01 00 00 00	 mov	 DWORD PTR tv4364[ebp], 1
  001af	89 85 a8 fd ff
	ff		 mov	 DWORD PTR tv2014[ebp], eax
$LL201@LoadBase:

; 127  : 	{
; 128  : 		NamedTitleGrade sNamedTitleGrade;

  001b5	8d 4d dc	 lea	 ecx, DWORD PTR _sNamedTitleGrade$532326[ebp]
  001b8	e8 00 00 00 00	 call	 ??0tagNamedTitleGrade@@QAE@XZ ; tagNamedTitleGrade::tagNamedTitleGrade
  001bd	6a 04		 push	 4
  001bf	c6 45 fc 02	 mov	 BYTE PTR __$EHRec$[ebp+8], 2

; 129  : 
; 130  : 		wsprintf_e( szKey, "title_grade%d_color", i+1 );

  001c3	c7 45 c4 99 85
	9f 86		 mov	 DWORD PTR ___encStr$532330[ebp], -2036365927 ; 869f8599H
  001ca	c7 45 c8 88 b3
	8c 98		 mov	 DWORD PTR ___encStr$532330[ebp+4], -1735609464 ; 988cb388H
  001d1	c7 45 cc 8c 88
	8e cf		 mov	 DWORD PTR ___encStr$532330[ebp+8], -812742516 ; cf8e888cH
  001d8	c7 45 d0 89 b3
	88 85		 mov	 DWORD PTR ___encStr$532330[ebp+12], -2054638711 ; 8588b389H
  001df	8d 45 c4	 lea	 eax, DWORD PTR ___encStr$532330[ebp]
  001e2	c7 45 d4 81 83
	99 00		 mov	 DWORD PTR ___encStr$532330[ebp+16], 10060673 ; 00998381H
  001e9	59		 pop	 ecx
$LL532@LoadBase:
  001ea	81 30 ed ec eb
	ea		 xor	 DWORD PTR [eax], -353637139 ; eaebecedH
  001f0	83 c0 04	 add	 eax, 4
  001f3	49		 dec	 ecx
  001f4	75 f4		 jne	 SHORT $LL532@LoadBase
  001f6	6a 10		 push	 16			; 00000010H
  001f8	58		 pop	 eax
$LL529@LoadBase:
  001f9	8b c8		 mov	 ecx, eax
  001fb	81 e1 03 00 00
	80		 and	 ecx, -2147483645	; 80000003H
  00201	79 05		 jns	 SHORT $LN582@LoadBase
  00203	49		 dec	 ecx
  00204	83 c9 fc	 or	 ecx, -4			; fffffffcH
  00207	41		 inc	 ecx
$LN582@LoadBase:
  00208	b2 ed		 mov	 dl, -19			; ffffffedH
  0020a	2a d1		 sub	 dl, cl
  0020c	30 54 05 c4	 xor	 BYTE PTR ___encStr$532330[ebp+eax], dl
  00210	40		 inc	 eax
  00211	83 f8 13	 cmp	 eax, 19			; 00000013H
  00214	7c e3		 jl	 SHORT $LL529@LoadBase
  00216	ff b5 a4 fd ff
	ff		 push	 DWORD PTR tv4364[ebp]
  0021c	8d 45 c4	 lea	 eax, DWORD PTR ___encStr$532330[ebp]
  0021f	50		 push	 eax
  00220	8d 85 ac fd ff
	ff		 lea	 eax, DWORD PTR _szKey$[ebp]
  00226	50		 push	 eax
  00227	ff 15 00 00 00
	00		 call	 DWORD PTR __imp__wsprintfA

; 131  : 		rkLoader.LoadString( szKey, "", szBuf, MAX_PATH );

  0022d	8b 8d a0 fd ff
	ff		 mov	 ecx, DWORD PTR _rkLoader$GSCopy$[ebp]
  00233	83 c4 0c	 add	 esp, 12			; 0000000cH
  00236	68 04 01 00 00	 push	 260			; 00000104H
  0023b	8d 85 b0 fe ff
	ff		 lea	 eax, DWORD PTR _szBuf$[ebp]
  00241	50		 push	 eax
  00242	53		 push	 ebx
  00243	8d 85 ac fd ff
	ff		 lea	 eax, DWORD PTR _szKey$[ebp]
  00249	50		 push	 eax
  0024a	ff d6		 call	 esi

; 132  : 		szColorTemp = szBuf;

  0024c	8d 85 b0 fe ff
	ff		 lea	 eax, DWORD PTR _szBuf$[ebp]
  00252	50		 push	 eax
  00253	8d 8d 80 fd ff
	ff		 lea	 ecx, DWORD PTR _szColorTemp$[ebp]
  00259	ff d7		 call	 edi

; 133  : 		pTemp = NULL;

  0025b	83 a5 9c fd ff
	ff 00		 and	 DWORD PTR _pTemp$[ebp], 0

; 134  : 		sNamedTitleGrade.m_dwColor = strtoul(szBuf, &pTemp, 16);

  00262	6a 10		 push	 16			; 00000010H
  00264	8d 85 9c fd ff
	ff		 lea	 eax, DWORD PTR _pTemp$[ebp]
  0026a	50		 push	 eax
  0026b	8d 85 b0 fe ff
	ff		 lea	 eax, DWORD PTR _szBuf$[ebp]
  00271	50		 push	 eax
  00272	ff 15 00 00 00
	00		 call	 DWORD PTR __imp__strtoul
  00278	83 c4 0c	 add	 esp, 12			; 0000000cH
  0027b	6a 04		 push	 4
  0027d	89 45 dc	 mov	 DWORD PTR _sNamedTitleGrade$532326[ebp], eax

; 135  : 		
; 136  : 		wsprintf_e( szKey, "title_grade%d_mark", i+1 );

  00280	c7 45 c4 99 85
	9f 86		 mov	 DWORD PTR ___encStr$532482[ebp], -2036365927 ; 869f8599H
  00287	c7 45 c8 88 b3
	8c 98		 mov	 DWORD PTR ___encStr$532482[ebp+4], -1735609464 ; 988cb388H
  0028e	c7 45 cc 8c 88
	8e cf		 mov	 DWORD PTR ___encStr$532482[ebp+8], -812742516 ; cf8e888cH
  00295	c7 45 d0 89 b3
	86 8b		 mov	 DWORD PTR ___encStr$532482[ebp+12], -1954106487 ; 8b86b389H
  0029c	66 c7 45 d4 9f
	87		 mov	 WORD PTR ___encStr$532482[ebp+16], 34719 ; 0000879fH
  002a2	8d 45 c4	 lea	 eax, DWORD PTR ___encStr$532482[ebp]
  002a5	c6 45 d6 00	 mov	 BYTE PTR ___encStr$532482[ebp+18], 0
  002a9	59		 pop	 ecx
$LL540@LoadBase:
  002aa	81 30 ed ec eb
	ea		 xor	 DWORD PTR [eax], -353637139 ; eaebecedH
  002b0	83 c0 04	 add	 eax, 4
  002b3	49		 dec	 ecx
  002b4	75 f4		 jne	 SHORT $LL540@LoadBase
  002b6	6a 10		 push	 16			; 00000010H
  002b8	58		 pop	 eax
$LL537@LoadBase:
  002b9	8b c8		 mov	 ecx, eax
  002bb	81 e1 03 00 00
	80		 and	 ecx, -2147483645	; 80000003H
  002c1	79 05		 jns	 SHORT $LN583@LoadBase
  002c3	49		 dec	 ecx
  002c4	83 c9 fc	 or	 ecx, -4			; fffffffcH
  002c7	41		 inc	 ecx
$LN583@LoadBase:
  002c8	b2 ed		 mov	 dl, -19			; ffffffedH
  002ca	2a d1		 sub	 dl, cl
  002cc	30 54 05 c4	 xor	 BYTE PTR ___encStr$532482[ebp+eax], dl
  002d0	40		 inc	 eax
  002d1	83 f8 12	 cmp	 eax, 18			; 00000012H
  002d4	7c e3		 jl	 SHORT $LL537@LoadBase
  002d6	ff b5 a4 fd ff
	ff		 push	 DWORD PTR tv4364[ebp]
  002dc	8d 45 c4	 lea	 eax, DWORD PTR ___encStr$532482[ebp]
  002df	50		 push	 eax
  002e0	8d 85 ac fd ff
	ff		 lea	 eax, DWORD PTR _szKey$[ebp]
  002e6	50		 push	 eax
  002e7	ff 15 00 00 00
	00		 call	 DWORD PTR __imp__wsprintfA

; 137  : 		rkLoader.LoadString( szKey, "", szBuf, MAX_PATH );

  002ed	8b 8d a0 fd ff
	ff		 mov	 ecx, DWORD PTR _rkLoader$GSCopy$[ebp]
  002f3	83 c4 0c	 add	 esp, 12			; 0000000cH
  002f6	68 04 01 00 00	 push	 260			; 00000104H
  002fb	8d 85 b0 fe ff
	ff		 lea	 eax, DWORD PTR _szBuf$[ebp]
  00301	50		 push	 eax
  00302	53		 push	 ebx
  00303	8d 85 ac fd ff
	ff		 lea	 eax, DWORD PTR _szKey$[ebp]
  00309	50		 push	 eax
  0030a	ff d6		 call	 esi

; 138  : 		sNamedTitleGrade.m_szMark = szBuf;

  0030c	8d 85 b0 fe ff
	ff		 lea	 eax, DWORD PTR _szBuf$[ebp]
  00312	50		 push	 eax
  00313	8d 4d e0	 lea	 ecx, DWORD PTR _sNamedTitleGrade$532326[ebp+4]
  00316	ff d7		 call	 edi

; 139  : 
; 140  : 		sNamedTitleInfo.m_GradeList.push_back( sNamedTitleGrade );

  00318	8d 45 dc	 lea	 eax, DWORD PTR _sNamedTitleGrade$532326[ebp]
  0031b	50		 push	 eax
  0031c	8d 8d 70 fd ff
	ff		 lea	 ecx, DWORD PTR _sNamedTitleInfo$[ebp+20]
  00322	e8 00 00 00 00	 call	 ?push_back@?$vector@UtagNamedTitleGrade@@V?$allocator@UtagNamedTitleGrade@@@std@@@std@@QAEXABUtagNamedTitleGrade@@@Z ; std::vector<tagNamedTitleGrade,std::allocator<tagNamedTitleGrade> >::push_back

; 141  : 	}

  00327	8d 4d e0	 lea	 ecx, DWORD PTR _sNamedTitleGrade$532326[ebp+4]
  0032a	c6 45 fc 01	 mov	 BYTE PTR __$EHRec$[ebp+8], 1
  0032e	ff 15 00 00 00
	00		 call	 DWORD PTR __imp_??1ioHashString@@QAE@XZ
  00334	ff 85 a4 fd ff
	ff		 inc	 DWORD PTR tv4364[ebp]
  0033a	ff 8d a8 fd ff
	ff		 dec	 DWORD PTR tv2014[ebp]
  00340	0f 85 6f fe ff
	ff		 jne	 $LL201@LoadBase
$LN199@LoadBase:

; 142  : 
; 143  : 	m_vInfoList.insert( std::make_pair( dwCode, sNamedTitleInfo ) );

  00346	8d 85 5c fd ff
	ff		 lea	 eax, DWORD PTR _sNamedTitleInfo$[ebp]
  0034c	50		 push	 eax
  0034d	8d 85 98 fd ff
	ff		 lea	 eax, DWORD PTR _dwCode$[ebp]
  00353	50		 push	 eax
  00354	8d 45 b4	 lea	 eax, DWORD PTR $T542207[ebp]
  00357	50		 push	 eax
  00358	e8 00 00 00 00	 call	 ??$make_pair@AAKAAUtagNamedTitleInfo@@@std@@YA?AU?$pair@KUtagNamedTitleInfo@@@0@AAKAAUtagNamedTitleInfo@@@Z ; std::make_pair<unsigned long &,tagNamedTitleInfo &>
  0035d	83 c4 0c	 add	 esp, 12			; 0000000cH
  00360	8b b5 94 fd ff
	ff		 mov	 esi, DWORD PTR _this$GSCopy$[ebp]
  00366	6a 00		 push	 0
  00368	50		 push	 eax
  00369	8d 4e 04	 lea	 ecx, DWORD PTR [esi+4]
  0036c	c6 45 fc 03	 mov	 BYTE PTR __$EHRec$[ebp+8], 3
  00370	e8 00 00 00 00	 call	 ??$_Buynode@U?$pair@KUtagNamedTitleInfo@@@std@@@?$_Tree_val@V?$_Tmap_traits@KUtagNamedTitleInfo@@U?$less@K@std@@V?$allocator@U?$pair@$$CBKUtagNamedTitleInfo@@@std@@@3@$0A@@std@@@std@@QAEPAU_Node@?$_Tree_nod@V?$_Tmap_traits@KUtagNamedTitleInfo@@U?$less@K@std@@V?$allocator@U?$pair@$$CBKUtagNamedTitleInfo@@@std@@@3@$0A@@std@@@1@$$QAU?$pair@KUtagNamedTitleInfo@@@1@@Z ; std::_Tree_val<std::_Tmap_traits<unsigned long,tagNamedTitleInfo,std::less<unsigned long>,std::allocator<std::pair<unsigned long const ,tagNamedTitleInfo> >,0> >::_Buynode<std::pair<unsigned long,tagNamedTitleInfo> >
  00375	50		 push	 eax
  00376	8d 85 90 fd ff
	ff		 lea	 eax, DWORD PTR $T542208[ebp]
  0037c	50		 push	 eax
  0037d	8d 4e 04	 lea	 ecx, DWORD PTR [esi+4]
  00380	e8 00 00 00 00	 call	 ?_Linsert@?$_Tree@V?$_Tmap_traits@KUtagNamedTitleInfo@@U?$less@K@std@@V?$allocator@U?$pair@$$CBKUtagNamedTitleInfo@@@std@@@3@$0A@@std@@@std@@QAE?AU?$pair@V?$_Tree_iterator@V?$_Tree_val@V?$_Tmap_traits@KUtagNamedTitleInfo@@U?$less@K@std@@V?$allocator@U?$pair@$$CBKUtagNamedTitleInfo@@@std@@@3@$0A@@std@@@std@@@std@@_N@2@PAU_Node@?$_Tree_nod@V?$_Tmap_traits@KUtagNamedTitleInfo@@U?$less@K@std@@V?$allocator@U?$pair@$$CBKUtagNamedTitleInfo@@@std@@@3@$0A@@std@@@2@_N@Z ; std::_Tree<std::_Tmap_traits<unsigned long,tagNamedTitleInfo,std::less<unsigned long>,std::allocator<std::pair<unsigned long const ,tagNamedTitleInfo> >,0> >::_Linsert
  00385	8d 4d b8	 lea	 ecx, DWORD PTR $T542207[ebp+4]
  00388	c6 45 fc 01	 mov	 BYTE PTR __$EHRec$[ebp+8], 1
  0038c	e8 00 00 00 00	 call	 ??1tagNamedTitleInfo@@QAE@XZ

; 144  : }

  00391	8d 8d 80 fd ff
	ff		 lea	 ecx, DWORD PTR _szColorTemp$[ebp]
  00397	c6 45 fc 00	 mov	 BYTE PTR __$EHRec$[ebp+8], 0
  0039b	ff 15 00 00 00
	00		 call	 DWORD PTR __imp_??1ioHashString@@QAE@XZ
  003a1	83 4d fc ff	 or	 DWORD PTR __$EHRec$[ebp+8], -1
  003a5	8d 8d 5c fd ff
	ff		 lea	 ecx, DWORD PTR _sNamedTitleInfo$[ebp]
  003ab	e8 00 00 00 00	 call	 ??1tagNamedTitleInfo@@QAE@XZ
$LN203@LoadBase:
  003b0	e8 00 00 00 00	 call	 __EH_epilog3_GS
  003b5	c2 04 00	 ret	 4
_TEXT	ENDS
;	COMDAT text$x
text$x	SEGMENT
__unwindfunclet$?LoadBase@ioNamedTitleInfoManager@@IAEXAAVioINILoader@@@Z$0:
  00000	8d 8d 5c fd ff
	ff		 lea	 ecx, DWORD PTR _sNamedTitleInfo$[ebp]
  00006	e9 00 00 00 00	 jmp	 ??1tagNamedTitleInfo@@QAE@XZ
__unwindfunclet$?LoadBase@ioNamedTitleInfoManager@@IAEXAAVioINILoader@@@Z$1:
  0000b	8d 8d 80 fd ff
	ff		 lea	 ecx, DWORD PTR _szColorTemp$[ebp]
  00011	ff 25 00 00 00
	00		 jmp	 DWORD PTR __imp_??1ioHashString@@QAE@XZ
__unwindfunclet$?LoadBase@ioNamedTitleInfoManager@@IAEXAAVioINILoader@@@Z$2:
  00017	8d 4d dc	 lea	 ecx, DWORD PTR _sNamedTitleGrade$532326[ebp]
  0001a	e9 00 00 00 00	 jmp	 ??1tagNamedTitleGrade@@QAE@XZ
__unwindfunclet$?LoadBase@ioNamedTitleInfoManager@@IAEXAAVioINILoader@@@Z$3:
  0001f	8d 4d b4	 lea	 ecx, DWORD PTR $T542207[ebp]
  00022	e9 00 00 00 00	 jmp	 ??1?$pair@KUtagNamedTitleInfo@@@std@@QAE@XZ
__ehhandler$?LoadBase@ioNamedTitleInfoManager@@IAEXAAVioINILoader@@@Z:
  00027	8b 54 24 08	 mov	 edx, DWORD PTR [esp+8]
  0002b	8d 42 0c	 lea	 eax, DWORD PTR [edx+12]
  0002e	8b 8a 58 fd ff
	ff		 mov	 ecx, DWORD PTR [edx-680]
  00034	33 c8		 xor	 ecx, eax
  00036	e8 00 00 00 00	 call	 @__security_check_cookie@4
  0003b	8b 4a fc	 mov	 ecx, DWORD PTR [edx-4]
  0003e	33 c8		 xor	 ecx, eax
  00040	e8 00 00 00 00	 call	 @__security_check_cookie@4
  00045	b8 00 00 00 00	 mov	 eax, OFFSET __ehfuncinfo$?LoadBase@ioNamedTitleInfoManager@@IAEXAAVioINILoader@@@Z
  0004a	e9 00 00 00 00	 jmp	 ___CxxFrameHandler3
text$x	ENDS
?LoadBase@ioNamedTitleInfoManager@@IAEXAAVioINILoader@@@Z ENDP ; ioNamedTitleInfoManager::LoadBase
PUBLIC	?_Tidy@?$_Tree@V?$_Tmap_traits@KUtagNamedTitleInfo@@U?$less@K@std@@V?$allocator@U?$pair@$$CBKUtagNamedTitleInfo@@@std@@@3@$0A@@std@@@std@@IAEXXZ ; std::_Tree<std::_Tmap_traits<unsigned long,tagNamedTitleInfo,std::less<unsigned long>,std::allocator<std::pair<unsigned long const ,tagNamedTitleInfo> >,0> >::_Tidy
; Function compile flags: /Ogsp
; File c:\program files (x86)\microsoft visual studio 10.0\vc\include\xtree
;	COMDAT ?_Tidy@?$_Tree@V?$_Tmap_traits@KUtagNamedTitleInfo@@U?$less@K@std@@V?$allocator@U?$pair@$$CBKUtagNamedTitleInfo@@@std@@@3@$0A@@std@@@std@@IAEXXZ
_TEXT	SEGMENT
$T542679 = -4						; size = 4
?_Tidy@?$_Tree@V?$_Tmap_traits@KUtagNamedTitleInfo@@U?$less@K@std@@V?$allocator@U?$pair@$$CBKUtagNamedTitleInfo@@@std@@@3@$0A@@std@@@std@@IAEXXZ PROC ; std::_Tree<std::_Tmap_traits<unsigned long,tagNamedTitleInfo,std::less<unsigned long>,std::allocator<std::pair<unsigned long const ,tagNamedTitleInfo> >,0> >::_Tidy, COMDAT
; _this$ = ecx

; 1865 : 		{	// free all storage

  00000	55		 push	 ebp
  00001	8b ec		 mov	 ebp, esp
  00003	51		 push	 ecx

; 1866 : 		erase(begin(), end());

  00004	8b 41 04	 mov	 eax, DWORD PTR [ecx+4]
  00007	8b 10		 mov	 edx, DWORD PTR [eax]
  00009	50		 push	 eax
  0000a	52		 push	 edx
  0000b	8d 45 fc	 lea	 eax, DWORD PTR $T542679[ebp]
  0000e	50		 push	 eax
  0000f	e8 00 00 00 00	 call	 ?erase@?$_Tree@V?$_Tmap_traits@KUtagNamedTitleInfo@@U?$less@K@std@@V?$allocator@U?$pair@$$CBKUtagNamedTitleInfo@@@std@@@3@$0A@@std@@@std@@QAE?AV?$_Tree_iterator@V?$_Tree_val@V?$_Tmap_traits@KUtagNamedTitleInfo@@U?$less@K@std@@V?$allocator@U?$pair@$$CBKUtagNamedTitleInfo@@@std@@@3@$0A@@std@@@std@@@2@V?$_Tree_const_iterator@V?$_Tree_val@V?$_Tmap_traits@KUtagNamedTitleInfo@@U?$less@K@std@@V?$allocator@U?$pair@$$CBKUtagNamedTitleInfo@@@std@@@3@$0A@@std@@@std@@@2@0@Z ; std::_Tree<std::_Tmap_traits<unsigned long,tagNamedTitleInfo,std::less<unsigned long>,std::allocator<std::pair<unsigned long const ,tagNamedTitleInfo> >,0> >::erase

; 1867 : 		}

  00014	c9		 leave
  00015	c3		 ret	 0
?_Tidy@?$_Tree@V?$_Tmap_traits@KUtagNamedTitleInfo@@U?$less@K@std@@V?$allocator@U?$pair@$$CBKUtagNamedTitleInfo@@@std@@@3@$0A@@std@@@std@@IAEXXZ ENDP ; std::_Tree<std::_Tmap_traits<unsigned long,tagNamedTitleInfo,std::less<unsigned long>,std::allocator<std::pair<unsigned long const ,tagNamedTitleInfo> >,0> >::_Tidy
_TEXT	ENDS
PUBLIC	??_C@_0BO@LGILKCB@named_title_premium_base_mark?$AA@ ; `string'
PUBLIC	??_C@_0BE@HHPCINNN@named_title_ui_mark?$AA@	; `string'
PUBLIC	??_C@_0BJ@DIFJNHAE@named_title_premium_icon?$AA@ ; `string'
PUBLIC	??_C@_0BB@MNADGJLB@named_title_icon?$AA@	; `string'
PUBLIC	??_C@_0BG@DOBOGHCN@title_blue_base_color?$AA@	; `string'
PUBLIC	??_C@_0BF@NGEPGFOB@title_red_base_color?$AA@	; `string'
PUBLIC	??_C@_0BH@HKLNOCHG@title_text_equip_color?$AA@	; `string'
PUBLIC	??_C@_0BJ@LKOEJHEH@title_text_premium_color?$AA@ ; `string'
PUBLIC	??_C@_0BG@CDLBCIDM@title_text_base_color?$AA@	; `string'
PUBLIC	_this$GSCopy$
PUBLIC	?LoadProperty@ioNamedTitleInfoManager@@QAEXXZ	; ioNamedTitleInfoManager::LoadProperty
EXTRN	__imp_?CreateImageByFullName@ioUIImageSetManager@@QAEPAVioUIRenderImage@@ABVioHashString@@_N@Z:PROC
EXTRN	__imp_?GetSingleton@ioUIImageSetManager@@SAAAV1@XZ:PROC
EXTRN	__imp_??0ioHashString@@QAE@PBD@Z:PROC
EXTRN	_memset:PROC
;	COMDAT ??_C@_0BO@LGILKCB@named_title_premium_base_mark?$AA@
; File d:\lost saga for developer\youtube\tutorial\source\src\lsclient\ionamedtitleinfomanager.cpp
CONST	SEGMENT
??_C@_0BO@LGILKCB@named_title_premium_base_mark?$AA@ DB 'named_title_prem'
	DB	'ium_base_mark', 00H				; `string'
CONST	ENDS
;	COMDAT ??_C@_0BE@HHPCINNN@named_title_ui_mark?$AA@
CONST	SEGMENT
??_C@_0BE@HHPCINNN@named_title_ui_mark?$AA@ DB 'named_title_ui_mark', 00H ; `string'
CONST	ENDS
;	COMDAT ??_C@_0BJ@DIFJNHAE@named_title_premium_icon?$AA@
CONST	SEGMENT
??_C@_0BJ@DIFJNHAE@named_title_premium_icon?$AA@ DB 'named_title_premium_'
	DB	'icon', 00H					; `string'
CONST	ENDS
;	COMDAT ??_C@_0BB@MNADGJLB@named_title_icon?$AA@
CONST	SEGMENT
??_C@_0BB@MNADGJLB@named_title_icon?$AA@ DB 'named_title_icon', 00H ; `string'
CONST	ENDS
;	COMDAT ??_C@_0BG@DOBOGHCN@title_blue_base_color?$AA@
CONST	SEGMENT
??_C@_0BG@DOBOGHCN@title_blue_base_color?$AA@ DB 'title_blue_base_color', 00H ; `string'
CONST	ENDS
;	COMDAT ??_C@_0BF@NGEPGFOB@title_red_base_color?$AA@
CONST	SEGMENT
??_C@_0BF@NGEPGFOB@title_red_base_color?$AA@ DB 'title_red_base_color', 00H ; `string'
CONST	ENDS
;	COMDAT ??_C@_0BH@HKLNOCHG@title_text_equip_color?$AA@
CONST	SEGMENT
??_C@_0BH@HKLNOCHG@title_text_equip_color?$AA@ DB 'title_text_equip_color'
	DB	00H						; `string'
CONST	ENDS
;	COMDAT ??_C@_0BJ@LKOEJHEH@title_text_premium_color?$AA@
CONST	SEGMENT
??_C@_0BJ@LKOEJHEH@title_text_premium_color?$AA@ DB 'title_text_premium_c'
	DB	'olor', 00H					; `string'
CONST	ENDS
;	COMDAT ??_C@_0BG@CDLBCIDM@title_text_base_color?$AA@
CONST	SEGMENT
??_C@_0BG@CDLBCIDM@title_text_base_color?$AA@ DB 'title_text_base_color', 00H ; `string'
CONST	ENDS
;	COMDAT xdata$x
xdata$x	SEGMENT
__unwindtable$?LoadProperty@ioNamedTitleInfoManager@@QAEXXZ DD 0ffffffffH
	DD	FLAT:__unwindfunclet$?LoadProperty@ioNamedTitleInfoManager@@QAEXXZ$0
	DD	00H
	DD	FLAT:__unwindfunclet$?LoadProperty@ioNamedTitleInfoManager@@QAEXXZ$1
	DD	01H
	DD	FLAT:__unwindfunclet$?LoadProperty@ioNamedTitleInfoManager@@QAEXXZ$2
	DD	01H
	DD	FLAT:__unwindfunclet$?LoadProperty@ioNamedTitleInfoManager@@QAEXXZ$3
__ehfuncinfo$?LoadProperty@ioNamedTitleInfoManager@@QAEXXZ DD 019930522H
	DD	04H
	DD	FLAT:__unwindtable$?LoadProperty@ioNamedTitleInfoManager@@QAEXXZ
	DD	2 DUP(00H)
	DD	2 DUP(00H)
	DD	00H
	DD	01H
; Function compile flags: /Ogsp
xdata$x	ENDS
;	COMDAT ?LoadProperty@ioNamedTitleInfoManager@@QAEXXZ
_TEXT	SEGMENT
_szColorTemp$ = -2616					; size = 16
_nGroupCnt$ = -2600					; size = 4
tv6792 = -2596						; size = 4
_iCnt$532126 = -2592					; size = 4
_pTemp$ = -2588						; size = 4
tv6917 = -2584						; size = 4
_i$543386 = -2584					; size = 4
_this$GSCopy$ = -2580					; size = 4
_kSetNamedTitleLoader$532125 = -2576			; size = 784
_kLoader$ = -1792					; size = 912
_szGroupName$ = -880					; size = 260
_szTitle$ = -620					; size = 260
_szBuf$ = -360						; size = 260
___encStr$532139 = -100					; size = 14
__t$543436 = -80					; size = 12
$T542768 = -80						; size = 16
__t$543037 = -64					; size = 12
___encStr$531976 = -64					; size = 10
__k$543274 = -48					; size = 22
__k$543256 = -48					; size = 25
___encStr$531823 = -44					; size = 20
__k$543548 = -40					; size = 16
__$EHRec$ = -12						; size = 12
?LoadProperty@ioNamedTitleInfoManager@@QAEXXZ PROC	; ioNamedTitleInfoManager::LoadProperty, COMDAT
; _this$ = ecx

; 41   : {	

  00000	68 2c 0a 00 00	 push	 2604			; 00000a2cH
  00005	b8 00 00 00 00	 mov	 eax, __ehhandler$?LoadProperty@ioNamedTitleInfoManager@@QAEXXZ
  0000a	e8 00 00 00 00	 call	 __EH_prolog3_GS

; 42   : 	ioINILoader_e kLoader( "config/sp2_named_title.ini" );

  0000f	6a 06		 push	 6
  00011	89 8d ec f5 ff
	ff		 mov	 DWORD PTR _this$GSCopy$[ebp], ecx
  00017	c7 85 50 fc ff
	ff 8e 83 85 8c	 mov	 DWORD PTR _kLoader$[ebp+848], -1937407090 ; 8c85838eH
  00021	c7 85 54 fc ff
	ff 84 8b c4 99	 mov	 DWORD PTR _kLoader$[ebp+852], -1715172476 ; 99c48b84H
  0002b	c7 85 58 fc ff
	ff 9d de b4 84	 mov	 DWORD PTR _kLoader$[ebp+856], -2068521315 ; 84b4de9dH
  00035	c7 85 5c fc ff
	ff 8c 81 8e 8e	 mov	 DWORD PTR _kLoader$[ebp+860], -1903263348 ; 8e8e818cH
  0003f	c7 85 60 fc ff
	ff b2 98 82 9e	 mov	 DWORD PTR _kLoader$[ebp+864], -1635608398 ; 9e8298b2H
  00049	c7 85 64 fc ff
	ff 81 89 c5 83	 mov	 DWORD PTR _kLoader$[ebp+868], -2084206207 ; 83c58981H
  00053	66 c7 85 68 fc
	ff ff 83 85	 mov	 WORD PTR _kLoader$[ebp+872], 34179 ; 00008583H
  0005c	8d 85 50 fc ff
	ff		 lea	 eax, DWORD PTR _kLoader$[ebp+848]
  00062	c6 85 6a fc ff
	ff 00		 mov	 BYTE PTR _kLoader$[ebp+874], 0
  00069	59		 pop	 ecx
$LL416@LoadProper:
  0006a	81 30 ed ec eb
	ea		 xor	 DWORD PTR [eax], -353637139 ; eaebecedH
  00070	83 c0 04	 add	 eax, 4
  00073	49		 dec	 ecx
  00074	75 f4		 jne	 SHORT $LL416@LoadProper
  00076	6a 18		 push	 24			; 00000018H
  00078	58		 pop	 eax
$LL413@LoadProper:
  00079	8b c8		 mov	 ecx, eax
  0007b	81 e1 03 00 00
	80		 and	 ecx, -2147483645	; 80000003H
  00081	79 05		 jns	 SHORT $LN1017@LoadProper
  00083	49		 dec	 ecx
  00084	83 c9 fc	 or	 ecx, -4			; fffffffcH
  00087	41		 inc	 ecx
$LN1017@LoadProper:
  00088	b2 ed		 mov	 dl, -19			; ffffffedH
  0008a	2a d1		 sub	 dl, cl
  0008c	30 94 05 50 fc
	ff ff		 xor	 BYTE PTR _kLoader$[ebp+eax+848], dl
  00093	40		 inc	 eax
  00094	83 f8 1a	 cmp	 eax, 26			; 0000001aH
  00097	7c e0		 jl	 SHORT $LL413@LoadProper
  00099	6a 01		 push	 1
  0009b	8d 85 50 fc ff
	ff		 lea	 eax, DWORD PTR _kLoader$[ebp+848]
  000a1	50		 push	 eax
  000a2	8d 8d 00 f9 ff
	ff		 lea	 ecx, DWORD PTR _kLoader$[ebp]
  000a8	ff 15 00 00 00
	00		 call	 DWORD PTR __imp_??0ioINILoader@@QAE@PBD_N@Z

; 43   : 
; 44   : 	char szBuf[MAX_PATH] = "";

  000ae	be 03 01 00 00	 mov	 esi, 259		; 00000103H
  000b3	33 ff		 xor	 edi, edi
  000b5	56		 push	 esi
  000b6	8d 85 99 fe ff
	ff		 lea	 eax, DWORD PTR _szBuf$[ebp+1]
  000bc	57		 push	 edi
  000bd	50		 push	 eax
  000be	89 7d fc	 mov	 DWORD PTR __$EHRec$[ebp+8], edi
  000c1	c6 85 98 fe ff
	ff 00		 mov	 BYTE PTR _szBuf$[ebp], 0
  000c8	e8 00 00 00 00	 call	 _memset

; 45   : 	char szTitle[MAX_PATH] = "";

  000cd	56		 push	 esi
  000ce	8d 85 95 fd ff
	ff		 lea	 eax, DWORD PTR _szTitle$[ebp+1]
  000d4	57		 push	 edi
  000d5	50		 push	 eax
  000d6	c6 85 94 fd ff
	ff 00		 mov	 BYTE PTR _szTitle$[ebp], 0
  000dd	e8 00 00 00 00	 call	 _memset

; 46   : 	char szGroupName[MAX_PATH] = "";

  000e2	56		 push	 esi
  000e3	8d 85 91 fc ff
	ff		 lea	 eax, DWORD PTR _szGroupName$[ebp+1]
  000e9	57		 push	 edi
  000ea	50		 push	 eax
  000eb	c6 85 90 fc ff
	ff 00		 mov	 BYTE PTR _szGroupName$[ebp], 0
  000f2	e8 00 00 00 00	 call	 _memset
  000f7	83 c4 24	 add	 esp, 36			; 00000024H
  000fa	6a 02		 push	 2

; 47   : 
; 48   : 	kLoader.SetTitle_e( "common_info" );

  000fc	c7 45 c0 8e 83
	86 87		 mov	 DWORD PTR __t$543037[ebp], -2021227634 ; 8786838eH
  00103	c7 45 c4 82 82
	b4 83		 mov	 DWORD PTR __t$543037[ebp+4], -2085322110 ; 83b48282H
  0010a	8d 45 c0	 lea	 eax, DWORD PTR __t$543037[ebp]
  0010d	c7 45 c8 83 8a
	84 00		 mov	 DWORD PTR __t$543037[ebp+8], 8686211 ; 00848a83H
  00114	59		 pop	 ecx
$LL522@LoadProper:
  00115	81 30 ed ec eb
	ea		 xor	 DWORD PTR [eax], -353637139 ; eaebecedH
  0011b	83 c0 04	 add	 eax, 4
  0011e	49		 dec	 ecx
  0011f	75 f4		 jne	 SHORT $LL522@LoadProper
  00121	6a 08		 push	 8
  00123	58		 pop	 eax
$LL519@LoadProper:
  00124	8b c8		 mov	 ecx, eax
  00126	81 e1 03 00 00
	80		 and	 ecx, -2147483645	; 80000003H
  0012c	79 05		 jns	 SHORT $LN1018@LoadProper
  0012e	49		 dec	 ecx
  0012f	83 c9 fc	 or	 ecx, -4			; fffffffcH
  00132	41		 inc	 ecx
$LN1018@LoadProper:
  00133	b2 ed		 mov	 dl, -19			; ffffffedH
  00135	2a d1		 sub	 dl, cl
  00137	30 54 05 c0	 xor	 BYTE PTR __t$543037[ebp+eax], dl
  0013b	40		 inc	 eax
  0013c	83 f8 0b	 cmp	 eax, 11			; 0000000bH
  0013f	7c e3		 jl	 SHORT $LL519@LoadProper
  00141	8d 45 c0	 lea	 eax, DWORD PTR __t$543037[ebp]
  00144	50		 push	 eax
  00145	8d 8d 00 f9 ff
	ff		 lea	 ecx, DWORD PTR _kLoader$[ebp]
  0014b	ff 15 00 00 00
	00		 call	 DWORD PTR __imp_?SetTitle@ioINILoader@@QAEXPBD@Z

; 49   : 
; 50   : 	char *pTemp = NULL;
; 51   : 	ioHashString szColorTemp;

  00151	8d 8d c8 f5 ff
	ff		 lea	 ecx, DWORD PTR _szColorTemp$[ebp]
  00157	89 bd e4 f5 ff
	ff		 mov	 DWORD PTR _pTemp$[ebp], edi
  0015d	ff 15 00 00 00
	00		 call	 DWORD PTR __imp_??0ioHashString@@QAE@XZ

; 52   : 	kLoader.LoadString( "title_text_base_color", "", szBuf, MAX_PATH );

  00163	8b 35 00 00 00
	00		 mov	 esi, DWORD PTR __imp_?LoadStringA@ioINILoader@@QAEXPBD0PADH@Z
  00169	bb 04 01 00 00	 mov	 ebx, 260		; 00000104H
  0016e	53		 push	 ebx
  0016f	8d 85 98 fe ff
	ff		 lea	 eax, DWORD PTR _szBuf$[ebp]
  00175	50		 push	 eax
  00176	bf 00 00 00 00	 mov	 edi, OFFSET ??_C@_00CNPNBAHC@?$AA@
  0017b	57		 push	 edi
  0017c	68 00 00 00 00	 push	 OFFSET ??_C@_0BG@CDLBCIDM@title_text_base_color?$AA@
  00181	8d 8d 00 f9 ff
	ff		 lea	 ecx, DWORD PTR _kLoader$[ebp]
  00187	c6 45 fc 01	 mov	 BYTE PTR __$EHRec$[ebp+8], 1
  0018b	ff d6		 call	 esi

; 53   : 	szColorTemp = szBuf;

  0018d	8d 85 98 fe ff
	ff		 lea	 eax, DWORD PTR _szBuf$[ebp]
  00193	50		 push	 eax
  00194	8d 8d c8 f5 ff
	ff		 lea	 ecx, DWORD PTR _szColorTemp$[ebp]
  0019a	ff 15 00 00 00
	00		 call	 DWORD PTR __imp_??4ioHashString@@QAEAAV0@PBD@Z

; 54   : 	m_dwTextBaseColor = strtoul(szBuf, &pTemp, 16);

  001a0	6a 10		 push	 16			; 00000010H
  001a2	8d 85 e4 f5 ff
	ff		 lea	 eax, DWORD PTR _pTemp$[ebp]
  001a8	50		 push	 eax
  001a9	8d 85 98 fe ff
	ff		 lea	 eax, DWORD PTR _szBuf$[ebp]
  001af	50		 push	 eax
  001b0	ff 15 00 00 00
	00		 call	 DWORD PTR __imp__strtoul
  001b6	8b 8d ec f5 ff
	ff		 mov	 ecx, DWORD PTR _this$GSCopy$[ebp]
  001bc	83 c4 0c	 add	 esp, 12			; 0000000cH
  001bf	89 41 1c	 mov	 DWORD PTR [ecx+28], eax

; 55   : 
; 56   : 	kLoader.LoadString( "title_text_premium_color", "", szBuf, MAX_PATH );

  001c2	53		 push	 ebx
  001c3	8d 85 98 fe ff
	ff		 lea	 eax, DWORD PTR _szBuf$[ebp]
  001c9	50		 push	 eax
  001ca	57		 push	 edi
  001cb	68 00 00 00 00	 push	 OFFSET ??_C@_0BJ@LKOEJHEH@title_text_premium_color?$AA@
  001d0	8d 8d 00 f9 ff
	ff		 lea	 ecx, DWORD PTR _kLoader$[ebp]
  001d6	ff d6		 call	 esi

; 57   : 	szColorTemp = szBuf;

  001d8	8d 85 98 fe ff
	ff		 lea	 eax, DWORD PTR _szBuf$[ebp]
  001de	50		 push	 eax
  001df	8d 8d c8 f5 ff
	ff		 lea	 ecx, DWORD PTR _szColorTemp$[ebp]
  001e5	ff 15 00 00 00
	00		 call	 DWORD PTR __imp_??4ioHashString@@QAEAAV0@PBD@Z

; 58   : 	m_dwTextPremiumColor = strtoul(szBuf, &pTemp, 16);

  001eb	6a 10		 push	 16			; 00000010H
  001ed	8d 85 e4 f5 ff
	ff		 lea	 eax, DWORD PTR _pTemp$[ebp]
  001f3	50		 push	 eax
  001f4	8d 85 98 fe ff
	ff		 lea	 eax, DWORD PTR _szBuf$[ebp]
  001fa	50		 push	 eax
  001fb	ff 15 00 00 00
	00		 call	 DWORD PTR __imp__strtoul
  00201	8b 8d ec f5 ff
	ff		 mov	 ecx, DWORD PTR _this$GSCopy$[ebp]
  00207	83 c4 0c	 add	 esp, 12			; 0000000cH
  0020a	89 41 20	 mov	 DWORD PTR [ecx+32], eax

; 59   : 		
; 60   : 	kLoader.LoadString( "title_text_equip_color", "", szBuf, MAX_PATH );

  0020d	53		 push	 ebx
  0020e	8d 85 98 fe ff
	ff		 lea	 eax, DWORD PTR _szBuf$[ebp]
  00214	50		 push	 eax
  00215	57		 push	 edi
  00216	68 00 00 00 00	 push	 OFFSET ??_C@_0BH@HKLNOCHG@title_text_equip_color?$AA@
  0021b	8d 8d 00 f9 ff
	ff		 lea	 ecx, DWORD PTR _kLoader$[ebp]
  00221	ff d6		 call	 esi

; 61   : 	szColorTemp = szBuf;

  00223	8d 85 98 fe ff
	ff		 lea	 eax, DWORD PTR _szBuf$[ebp]
  00229	50		 push	 eax
  0022a	8d 8d c8 f5 ff
	ff		 lea	 ecx, DWORD PTR _szColorTemp$[ebp]
  00230	ff 15 00 00 00
	00		 call	 DWORD PTR __imp_??4ioHashString@@QAEAAV0@PBD@Z

; 62   : 	m_dwTextEquipColor = strtoul(szBuf, &pTemp, 16);

  00236	6a 10		 push	 16			; 00000010H
  00238	8d 85 e4 f5 ff
	ff		 lea	 eax, DWORD PTR _pTemp$[ebp]
  0023e	50		 push	 eax
  0023f	8d 85 98 fe ff
	ff		 lea	 eax, DWORD PTR _szBuf$[ebp]
  00245	50		 push	 eax
  00246	ff 15 00 00 00
	00		 call	 DWORD PTR __imp__strtoul
  0024c	8b 8d ec f5 ff
	ff		 mov	 ecx, DWORD PTR _this$GSCopy$[ebp]
  00252	83 c4 0c	 add	 esp, 12			; 0000000cH
  00255	89 41 24	 mov	 DWORD PTR [ecx+36], eax

; 63   : 	
; 64   : 	kLoader.LoadString( "title_red_base_color", "", szBuf, MAX_PATH );

  00258	53		 push	 ebx
  00259	8d 85 98 fe ff
	ff		 lea	 eax, DWORD PTR _szBuf$[ebp]
  0025f	50		 push	 eax
  00260	57		 push	 edi
  00261	68 00 00 00 00	 push	 OFFSET ??_C@_0BF@NGEPGFOB@title_red_base_color?$AA@
  00266	8d 8d 00 f9 ff
	ff		 lea	 ecx, DWORD PTR _kLoader$[ebp]
  0026c	ff d6		 call	 esi

; 65   : 	szColorTemp = szBuf;

  0026e	8d 85 98 fe ff
	ff		 lea	 eax, DWORD PTR _szBuf$[ebp]
  00274	50		 push	 eax
  00275	8d 8d c8 f5 ff
	ff		 lea	 ecx, DWORD PTR _szColorTemp$[ebp]
  0027b	ff 15 00 00 00
	00		 call	 DWORD PTR __imp_??4ioHashString@@QAEAAV0@PBD@Z

; 66   : 	m_dwRedBaseEquipColor = strtoul(szBuf, &pTemp, 16);

  00281	6a 10		 push	 16			; 00000010H
  00283	8d 85 e4 f5 ff
	ff		 lea	 eax, DWORD PTR _pTemp$[ebp]
  00289	50		 push	 eax
  0028a	8d 85 98 fe ff
	ff		 lea	 eax, DWORD PTR _szBuf$[ebp]
  00290	50		 push	 eax
  00291	ff 15 00 00 00
	00		 call	 DWORD PTR __imp__strtoul
  00297	8b 8d ec f5 ff
	ff		 mov	 ecx, DWORD PTR _this$GSCopy$[ebp]
  0029d	83 c4 0c	 add	 esp, 12			; 0000000cH
  002a0	89 41 14	 mov	 DWORD PTR [ecx+20], eax

; 67   : 
; 68   : 	kLoader.LoadString( "title_blue_base_color", "", szBuf, MAX_PATH );

  002a3	53		 push	 ebx
  002a4	8d 85 98 fe ff
	ff		 lea	 eax, DWORD PTR _szBuf$[ebp]
  002aa	50		 push	 eax
  002ab	57		 push	 edi
  002ac	68 00 00 00 00	 push	 OFFSET ??_C@_0BG@DOBOGHCN@title_blue_base_color?$AA@
  002b1	8d 8d 00 f9 ff
	ff		 lea	 ecx, DWORD PTR _kLoader$[ebp]
  002b7	ff d6		 call	 esi

; 69   : 	szColorTemp = szBuf;

  002b9	8d 85 98 fe ff
	ff		 lea	 eax, DWORD PTR _szBuf$[ebp]
  002bf	50		 push	 eax
  002c0	8d 8d c8 f5 ff
	ff		 lea	 ecx, DWORD PTR _szColorTemp$[ebp]
  002c6	ff 15 00 00 00
	00		 call	 DWORD PTR __imp_??4ioHashString@@QAEAAV0@PBD@Z

; 70   : 	m_dwBlueBaseEquipColor = strtoul(szBuf, &pTemp, 16);

  002cc	6a 10		 push	 16			; 00000010H
  002ce	8d 85 e4 f5 ff
	ff		 lea	 eax, DWORD PTR _pTemp$[ebp]
  002d4	50		 push	 eax
  002d5	8d 85 98 fe ff
	ff		 lea	 eax, DWORD PTR _szBuf$[ebp]
  002db	50		 push	 eax
  002dc	ff 15 00 00 00
	00		 call	 DWORD PTR __imp__strtoul
  002e2	8b 8d ec f5 ff
	ff		 mov	 ecx, DWORD PTR _this$GSCopy$[ebp]
  002e8	83 c4 0c	 add	 esp, 12			; 0000000cH
  002eb	89 41 18	 mov	 DWORD PTR [ecx+24], eax

; 71   : 	
; 72   : 	kLoader.LoadString( "named_title_icon", "", szBuf, MAX_PATH );

  002ee	53		 push	 ebx
  002ef	8d 85 98 fe ff
	ff		 lea	 eax, DWORD PTR _szBuf$[ebp]
  002f5	50		 push	 eax
  002f6	57		 push	 edi
  002f7	68 00 00 00 00	 push	 OFFSET ??_C@_0BB@MNADGJLB@named_title_icon?$AA@
  002fc	8d 8d 00 f9 ff
	ff		 lea	 ecx, DWORD PTR _kLoader$[ebp]
  00302	ff d6		 call	 esi

; 73   : 	m_szNamedTitleIcon = szBuf;

  00304	8b 8d ec f5 ff
	ff		 mov	 ecx, DWORD PTR _this$GSCopy$[ebp]
  0030a	8d 85 98 fe ff
	ff		 lea	 eax, DWORD PTR _szBuf$[ebp]
  00310	50		 push	 eax
  00311	83 c1 28	 add	 ecx, 40			; 00000028H
  00314	ff 15 00 00 00
	00		 call	 DWORD PTR __imp_??4ioHashString@@QAEAAV0@PBD@Z

; 74   : 
; 75   : 	kLoader.LoadString( "named_title_premium_icon", "", szBuf, MAX_PATH );

  0031a	53		 push	 ebx
  0031b	8d 85 98 fe ff
	ff		 lea	 eax, DWORD PTR _szBuf$[ebp]
  00321	50		 push	 eax
  00322	57		 push	 edi
  00323	68 00 00 00 00	 push	 OFFSET ??_C@_0BJ@DIFJNHAE@named_title_premium_icon?$AA@
  00328	8d 8d 00 f9 ff
	ff		 lea	 ecx, DWORD PTR _kLoader$[ebp]
  0032e	ff d6		 call	 esi

; 76   : 	m_szNamedTitlePremiumIcon = szBuf;

  00330	8b 8d ec f5 ff
	ff		 mov	 ecx, DWORD PTR _this$GSCopy$[ebp]
  00336	8d 85 98 fe ff
	ff		 lea	 eax, DWORD PTR _szBuf$[ebp]
  0033c	50		 push	 eax
  0033d	83 c1 38	 add	 ecx, 56			; 00000038H
  00340	ff 15 00 00 00
	00		 call	 DWORD PTR __imp_??4ioHashString@@QAEAAV0@PBD@Z

; 77   : 
; 78   : 	kLoader.LoadString( "named_title_ui_mark", "", szBuf, MAX_PATH );

  00346	53		 push	 ebx
  00347	8d 85 98 fe ff
	ff		 lea	 eax, DWORD PTR _szBuf$[ebp]
  0034d	50		 push	 eax
  0034e	57		 push	 edi
  0034f	68 00 00 00 00	 push	 OFFSET ??_C@_0BE@HHPCINNN@named_title_ui_mark?$AA@
  00354	8d 8d 00 f9 ff
	ff		 lea	 ecx, DWORD PTR _kLoader$[ebp]
  0035a	ff d6		 call	 esi

; 79   : 	m_szNamedTitleUIMark = szBuf;

  0035c	8b 8d ec f5 ff
	ff		 mov	 ecx, DWORD PTR _this$GSCopy$[ebp]
  00362	8d 85 98 fe ff
	ff		 lea	 eax, DWORD PTR _szBuf$[ebp]
  00368	50		 push	 eax
  00369	83 c1 48	 add	 ecx, 72			; 00000048H
  0036c	ff 15 00 00 00
	00		 call	 DWORD PTR __imp_??4ioHashString@@QAEAAV0@PBD@Z

; 80   : 
; 81   : 	kLoader.LoadString( "named_title_premium_base_mark", "", szBuf, MAX_PATH );

  00372	53		 push	 ebx
  00373	8d 85 98 fe ff
	ff		 lea	 eax, DWORD PTR _szBuf$[ebp]
  00379	50		 push	 eax
  0037a	57		 push	 edi
  0037b	68 00 00 00 00	 push	 OFFSET ??_C@_0BO@LGILKCB@named_title_premium_base_mark?$AA@
  00380	8d 8d 00 f9 ff
	ff		 lea	 ecx, DWORD PTR _kLoader$[ebp]
  00386	ff d6		 call	 esi

; 82   : 	m_pPremiumBaseMark = g_UIImageSetMgr.CreateImageByFullName( szBuf );

  00388	8d 85 98 fe ff
	ff		 lea	 eax, DWORD PTR _szBuf$[ebp]
  0038e	50		 push	 eax
  0038f	8d 4d b0	 lea	 ecx, DWORD PTR $T542768[ebp]
  00392	ff 15 00 00 00
	00		 call	 DWORD PTR __imp_??0ioHashString@@QAE@PBD@Z
  00398	c6 45 fc 02	 mov	 BYTE PTR __$EHRec$[ebp+8], 2
  0039c	6a 00		 push	 0
  0039e	8d 45 b0	 lea	 eax, DWORD PTR $T542768[ebp]
  003a1	50		 push	 eax
  003a2	ff 15 00 00 00
	00		 call	 DWORD PTR __imp_?GetSingleton@ioUIImageSetManager@@SAAAV1@XZ
  003a8	8b c8		 mov	 ecx, eax
  003aa	ff 15 00 00 00
	00		 call	 DWORD PTR __imp_?CreateImageByFullName@ioUIImageSetManager@@QAEPAVioUIRenderImage@@ABVioHashString@@_N@Z
  003b0	8b 8d ec f5 ff
	ff		 mov	 ecx, DWORD PTR _this$GSCopy$[ebp]
  003b6	89 41 58	 mov	 DWORD PTR [ecx+88], eax
  003b9	8d 4d b0	 lea	 ecx, DWORD PTR $T542768[ebp]
  003bc	c6 45 fc 01	 mov	 BYTE PTR __$EHRec$[ebp+8], 1
  003c0	ff 15 00 00 00
	00		 call	 DWORD PTR __imp_??1ioHashString@@QAE@XZ
  003c6	6a 06		 push	 6

; 83   : 
; 84   : 	m_dwEquipRefreshTime = kLoader.LoadInt_e( "named_title_refresh_time", 0 );

  003c8	c7 45 d0 83 8d
	86 8f		 mov	 DWORD PTR __k$543256[ebp], -1887007357 ; 8f868d83H
  003cf	c7 45 d4 89 b3
	9f 83		 mov	 DWORD PTR __k$543256[ebp+4], -2086685815 ; 839fb389H
  003d6	c7 45 d8 99 80
	8e b5		 mov	 DWORD PTR __k$543256[ebp+8], -1248952167 ; b58e8099H
  003dd	c7 45 dc 9f 89
	8d 98		 mov	 DWORD PTR __k$543256[ebp+12], -1735554657 ; 988d899fH
  003e4	c7 45 e0 88 9f
	83 b5		 mov	 DWORD PTR __k$543256[ebp+16], -1249665144 ; b5839f88H
  003eb	c7 45 e4 99 85
	86 8f		 mov	 DWORD PTR __k$543256[ebp+20], -1887009383 ; 8f868599H
  003f2	8d 45 d0	 lea	 eax, DWORD PTR __k$543256[ebp]
  003f5	c6 45 e8 00	 mov	 BYTE PTR __k$543256[ebp+24], 0
  003f9	59		 pop	 ecx
$LL628@LoadProper:
  003fa	81 30 ed ec eb
	ea		 xor	 DWORD PTR [eax], -353637139 ; eaebecedH
  00400	83 c0 04	 add	 eax, 4
  00403	49		 dec	 ecx
  00404	75 f4		 jne	 SHORT $LL628@LoadProper
  00406	51		 push	 ecx
  00407	8d 45 d0	 lea	 eax, DWORD PTR __k$543256[ebp]
  0040a	50		 push	 eax
  0040b	8d 8d 00 f9 ff
	ff		 lea	 ecx, DWORD PTR _kLoader$[ebp]
  00411	ff 15 00 00 00
	00		 call	 DWORD PTR __imp_?LoadInt@ioINILoader@@QAEHPBDH@Z
  00417	8b 8d ec f5 ff
	ff		 mov	 ecx, DWORD PTR _this$GSCopy$[ebp]
  0041d	89 41 5c	 mov	 DWORD PTR [ecx+92], eax
  00420	6a 05		 push	 5

; 85   : 
; 86   : 	int nGroupCnt = kLoader.LoadInt_e( "named_title_group_cnt", 0 );

  00422	c7 45 d0 83 8d
	86 8f		 mov	 DWORD PTR __k$543274[ebp], -1887007357 ; 8f868d83H
  00429	c7 45 d4 89 b3
	9f 83		 mov	 DWORD PTR __k$543274[ebp+4], -2086685815 ; 839fb389H
  00430	c7 45 d8 99 80
	8e b5		 mov	 DWORD PTR __k$543274[ebp+8], -1248952167 ; b58e8099H
  00437	c7 45 dc 8a 9e
	84 9f		 mov	 DWORD PTR __k$543274[ebp+12], -1618698614 ; 9f849e8aH
  0043e	c7 45 e0 9d b3
	88 84		 mov	 DWORD PTR __k$543274[ebp+16], -2071415907 ; 8488b39dH
  00445	8d 45 d0	 lea	 eax, DWORD PTR __k$543274[ebp]
  00448	66 c7 45 e4 99
	00		 mov	 WORD PTR __k$543274[ebp+20], 153 ; 00000099H
  0044e	59		 pop	 ecx
$LL734@LoadProper:
  0044f	81 30 ed ec eb
	ea		 xor	 DWORD PTR [eax], -353637139 ; eaebecedH
  00455	83 c0 04	 add	 eax, 4
  00458	49		 dec	 ecx
  00459	75 f4		 jne	 SHORT $LL734@LoadProper
  0045b	80 75 e4 ed	 xor	 BYTE PTR __k$543274[ebp+20], -19 ; ffffffedH
  0045f	51		 push	 ecx
  00460	8d 45 d0	 lea	 eax, DWORD PTR __k$543274[ebp]
  00463	50		 push	 eax
  00464	8d 8d 00 f9 ff
	ff		 lea	 ecx, DWORD PTR _kLoader$[ebp]
  0046a	ff 15 00 00 00
	00		 call	 DWORD PTR __imp_?LoadInt@ioINILoader@@QAEHPBDH@Z

; 87   : 	for( int i=0; i<nGroupCnt; ++i )

  00470	33 c9		 xor	 ecx, ecx
  00472	89 85 d8 f5 ff
	ff		 mov	 DWORD PTR _nGroupCnt$[ebp], eax
  00478	85 c0		 test	 eax, eax
  0047a	0f 8e 71 02 00
	00		 jle	 $LN301@LoadProper
$LL303@LoadProper:

; 85   : 
; 86   : 	int nGroupCnt = kLoader.LoadInt_e( "named_title_group_cnt", 0 );

  00480	6a 04		 push	 4

; 88   : 	{
; 89   : 		wsprintf_e( szTitle, "named_title_group%d", i+1 );

  00482	c7 45 d4 83 8d
	86 8f		 mov	 DWORD PTR ___encStr$531823[ebp], -1887007357 ; 8f868d83H
  00489	c7 45 d8 89 b3
	9f 83		 mov	 DWORD PTR ___encStr$531823[ebp+4], -2086685815 ; 839fb389H
  00490	c7 45 dc 99 80
	8e b5		 mov	 DWORD PTR ___encStr$531823[ebp+8], -1248952167 ; b58e8099H
  00497	c7 45 e0 8a 9e
	84 9f		 mov	 DWORD PTR ___encStr$531823[ebp+12], -1618698614 ; 9f849e8aH
  0049e	8d 45 d4	 lea	 eax, DWORD PTR ___encStr$531823[ebp]
  004a1	c7 45 e4 9d c9
	8f 00		 mov	 DWORD PTR ___encStr$531823[ebp+16], 9423261 ; 008fc99dH
  004a8	5a		 pop	 edx
$LL742@LoadProper:
  004a9	81 30 ed ec eb
	ea		 xor	 DWORD PTR [eax], -353637139 ; eaebecedH
  004af	83 c0 04	 add	 eax, 4
  004b2	4a		 dec	 edx
  004b3	75 f4		 jne	 SHORT $LL742@LoadProper
  004b5	c7 85 e8 f5 ff
	ff 10 00 00 00	 mov	 DWORD PTR _i$543386[ebp], 16 ; 00000010H
$LL739@LoadProper:
  004bf	8b 85 e8 f5 ff
	ff		 mov	 eax, DWORD PTR _i$543386[ebp]
  004c5	25 03 00 00 80	 and	 eax, -2147483645	; 80000003H
  004ca	79 05		 jns	 SHORT $LN1019@LoadProper
  004cc	48		 dec	 eax
  004cd	83 c8 fc	 or	 eax, -4			; fffffffcH
  004d0	40		 inc	 eax
$LN1019@LoadProper:
  004d1	b2 ed		 mov	 dl, -19			; ffffffedH
  004d3	2a d0		 sub	 dl, al
  004d5	8b 85 e8 f5 ff
	ff		 mov	 eax, DWORD PTR _i$543386[ebp]
  004db	30 54 05 d4	 xor	 BYTE PTR ___encStr$531823[ebp+eax], dl
  004df	ff 85 e8 f5 ff
	ff		 inc	 DWORD PTR _i$543386[ebp]
  004e5	83 bd e8 f5 ff
	ff 13		 cmp	 DWORD PTR _i$543386[ebp], 19 ; 00000013H
  004ec	7c d1		 jl	 SHORT $LL739@LoadProper
  004ee	8d 41 01	 lea	 eax, DWORD PTR [ecx+1]
  004f1	50		 push	 eax
  004f2	89 85 dc f5 ff
	ff		 mov	 DWORD PTR tv6792[ebp], eax
  004f8	8d 45 d4	 lea	 eax, DWORD PTR ___encStr$531823[ebp]
  004fb	50		 push	 eax
  004fc	8d 85 94 fd ff
	ff		 lea	 eax, DWORD PTR _szTitle$[ebp]
  00502	50		 push	 eax
  00503	ff 15 00 00 00
	00		 call	 DWORD PTR __imp__wsprintfA
  00509	83 c4 0c	 add	 esp, 12			; 0000000cH

; 90   : 		kLoader.LoadString( szTitle, "", szBuf, MAX_PATH );

  0050c	53		 push	 ebx
  0050d	8d 85 98 fe ff
	ff		 lea	 eax, DWORD PTR _szBuf$[ebp]
  00513	50		 push	 eax
  00514	57		 push	 edi
  00515	8d 85 94 fd ff
	ff		 lea	 eax, DWORD PTR _szTitle$[ebp]
  0051b	50		 push	 eax
  0051c	8d 8d 00 f9 ff
	ff		 lea	 ecx, DWORD PTR _kLoader$[ebp]
  00522	ff d6		 call	 esi
  00524	6a 02		 push	 2

; 91   : 		wsprintf_e( szGroupName, "config/%s", szBuf );

  00526	c7 45 c0 8e 83
	85 8c		 mov	 DWORD PTR ___encStr$531976[ebp], -1937407090 ; 8c85838eH
  0052d	c7 45 c4 84 8b
	c4 cf		 mov	 DWORD PTR ___encStr$531976[ebp+4], -809202812 ; cfc48b84H
  00534	8d 45 c0	 lea	 eax, DWORD PTR ___encStr$531976[ebp]
  00537	66 c7 45 c8 9e
	00		 mov	 WORD PTR ___encStr$531976[ebp+8], 158 ; 0000009eH
  0053d	59		 pop	 ecx
$LL750@LoadProper:
  0053e	81 30 ed ec eb
	ea		 xor	 DWORD PTR [eax], -353637139 ; eaebecedH
  00544	83 c0 04	 add	 eax, 4
  00547	49		 dec	 ecx
  00548	75 f4		 jne	 SHORT $LL750@LoadProper
  0054a	80 75 c8 ed	 xor	 BYTE PTR ___encStr$531976[ebp+8], -19 ; ffffffedH
  0054e	8d 85 98 fe ff
	ff		 lea	 eax, DWORD PTR _szBuf$[ebp]
  00554	50		 push	 eax
  00555	8d 45 c0	 lea	 eax, DWORD PTR ___encStr$531976[ebp]
  00558	50		 push	 eax
  00559	8d 85 90 fc ff
	ff		 lea	 eax, DWORD PTR _szGroupName$[ebp]
  0055f	50		 push	 eax
  00560	ff 15 00 00 00
	00		 call	 DWORD PTR __imp__wsprintfA
  00566	83 c4 0c	 add	 esp, 12			; 0000000cH

; 92   : 		
; 93   : 		ioINILoader kSetNamedTitleLoader( szGroupName );

  00569	6a 01		 push	 1
  0056b	8d 85 90 fc ff
	ff		 lea	 eax, DWORD PTR _szGroupName$[ebp]
  00571	50		 push	 eax
  00572	8d 8d f0 f5 ff
	ff		 lea	 ecx, DWORD PTR _kSetNamedTitleLoader$532125[ebp]
  00578	ff 15 00 00 00
	00		 call	 DWORD PTR __imp_??0ioINILoader@@QAE@PBD_N@Z
  0057e	6a 02		 push	 2
  00580	c6 45 fc 03	 mov	 BYTE PTR __$EHRec$[ebp+8], 3

; 94   : 		kSetNamedTitleLoader.SetTitle_e( "common_info" );

  00584	c7 45 b0 8e 83
	86 87		 mov	 DWORD PTR __t$543436[ebp], -2021227634 ; 8786838eH
  0058b	c7 45 b4 82 82
	b4 83		 mov	 DWORD PTR __t$543436[ebp+4], -2085322110 ; 83b48282H
  00592	8d 45 b0	 lea	 eax, DWORD PTR __t$543436[ebp]
  00595	c7 45 b8 83 8a
	84 00		 mov	 DWORD PTR __t$543436[ebp+8], 8686211 ; 00848a83H
  0059c	59		 pop	 ecx
$LL856@LoadProper:
  0059d	81 30 ed ec eb
	ea		 xor	 DWORD PTR [eax], -353637139 ; eaebecedH
  005a3	83 c0 04	 add	 eax, 4
  005a6	49		 dec	 ecx
  005a7	75 f4		 jne	 SHORT $LL856@LoadProper
  005a9	6a 08		 push	 8
  005ab	58		 pop	 eax
$LL853@LoadProper:
  005ac	8b c8		 mov	 ecx, eax
  005ae	81 e1 03 00 00
	80		 and	 ecx, -2147483645	; 80000003H
  005b4	79 05		 jns	 SHORT $LN1020@LoadProper
  005b6	49		 dec	 ecx
  005b7	83 c9 fc	 or	 ecx, -4			; fffffffcH
  005ba	41		 inc	 ecx
$LN1020@LoadProper:
  005bb	b2 ed		 mov	 dl, -19			; ffffffedH
  005bd	2a d1		 sub	 dl, cl
  005bf	30 54 05 b0	 xor	 BYTE PTR __t$543436[ebp+eax], dl
  005c3	40		 inc	 eax
  005c4	83 f8 0b	 cmp	 eax, 11			; 0000000bH
  005c7	7c e3		 jl	 SHORT $LL853@LoadProper
  005c9	8d 45 b0	 lea	 eax, DWORD PTR __t$543436[ebp]
  005cc	50		 push	 eax
  005cd	8d 8d f0 f5 ff
	ff		 lea	 ecx, DWORD PTR _kSetNamedTitleLoader$532125[ebp]
  005d3	ff 15 00 00 00
	00		 call	 DWORD PTR __imp_?SetTitle@ioINILoader@@QAEXPBD@Z
  005d9	6a 03		 push	 3

; 95   : 
; 96   : 		int iCnt = kSetNamedTitleLoader.LoadInt_e( "named_title_cnt", 0 );

  005db	c7 45 d8 83 8d
	86 8f		 mov	 DWORD PTR __k$543548[ebp], -1887007357 ; 8f868d83H
  005e2	c7 45 dc 89 b3
	9f 83		 mov	 DWORD PTR __k$543548[ebp+4], -2086685815 ; 839fb389H
  005e9	c7 45 e0 99 80
	8e b5		 mov	 DWORD PTR __k$543548[ebp+8], -1248952167 ; b58e8099H
  005f0	8d 45 d8	 lea	 eax, DWORD PTR __k$543548[ebp]
  005f3	c7 45 e4 8e 82
	9f 00		 mov	 DWORD PTR __k$543548[ebp+12], 10453646 ; 009f828eH
  005fa	59		 pop	 ecx
$LL962@LoadProper:
  005fb	81 30 ed ec eb
	ea		 xor	 DWORD PTR [eax], -353637139 ; eaebecedH
  00601	83 c0 04	 add	 eax, 4
  00604	49		 dec	 ecx
  00605	75 f4		 jne	 SHORT $LL962@LoadProper
  00607	6a 0c		 push	 12			; 0000000cH
  00609	58		 pop	 eax
$LL959@LoadProper:
  0060a	8b c8		 mov	 ecx, eax
  0060c	81 e1 03 00 00
	80		 and	 ecx, -2147483645	; 80000003H
  00612	79 05		 jns	 SHORT $LN1021@LoadProper
  00614	49		 dec	 ecx
  00615	83 c9 fc	 or	 ecx, -4			; fffffffcH
  00618	41		 inc	 ecx
$LN1021@LoadProper:
  00619	b2 ed		 mov	 dl, -19			; ffffffedH
  0061b	2a d1		 sub	 dl, cl
  0061d	30 54 05 d8	 xor	 BYTE PTR __k$543548[ebp+eax], dl
  00621	40		 inc	 eax
  00622	83 f8 0f	 cmp	 eax, 15			; 0000000fH
  00625	7c e3		 jl	 SHORT $LL959@LoadProper
  00627	6a 00		 push	 0
  00629	8d 45 d8	 lea	 eax, DWORD PTR __k$543548[ebp]
  0062c	50		 push	 eax
  0062d	8d 8d f0 f5 ff
	ff		 lea	 ecx, DWORD PTR _kSetNamedTitleLoader$532125[ebp]
  00633	ff 15 00 00 00
	00		 call	 DWORD PTR __imp_?LoadInt@ioINILoader@@QAEHPBDH@Z

; 97   : 		for( int j=0; j < iCnt; ++j )

  00639	33 c9		 xor	 ecx, ecx
  0063b	89 85 e0 f5 ff
	ff		 mov	 DWORD PTR _iCnt$532126[ebp], eax
  00641	85 c0		 test	 eax, eax
  00643	0f 8e 86 00 00
	00		 jle	 $LN100@LoadProper
$LL102@LoadProper:

; 95   : 
; 96   : 		int iCnt = kSetNamedTitleLoader.LoadInt_e( "named_title_cnt", 0 );

  00649	6a 03		 push	 3

; 98   : 		{
; 99   : 			wsprintf_e( szTitle, "named_title%d", j+1 );

  0064b	c7 45 9c 83 8d
	86 8f		 mov	 DWORD PTR ___encStr$532139[ebp], -1887007357 ; 8f868d83H
  00652	c7 45 a0 89 b3
	9f 83		 mov	 DWORD PTR ___encStr$532139[ebp+4], -2086685815 ; 839fb389H
  00659	c7 45 a4 99 80
	8e cf		 mov	 DWORD PTR ___encStr$532139[ebp+8], -812744551 ; cf8e8099H
  00660	8d 45 9c	 lea	 eax, DWORD PTR ___encStr$532139[ebp]
  00663	66 c7 45 a8 89
	00		 mov	 WORD PTR ___encStr$532139[ebp+12], 137 ; 00000089H
  00669	5a		 pop	 edx
$LL970@LoadProper:
  0066a	81 30 ed ec eb
	ea		 xor	 DWORD PTR [eax], -353637139 ; eaebecedH
  00670	83 c0 04	 add	 eax, 4
  00673	4a		 dec	 edx
  00674	75 f4		 jne	 SHORT $LL970@LoadProper
  00676	80 75 a8 ed	 xor	 BYTE PTR ___encStr$532139[ebp+12], -19 ; ffffffedH
  0067a	8d 41 01	 lea	 eax, DWORD PTR [ecx+1]
  0067d	50		 push	 eax
  0067e	89 85 e8 f5 ff
	ff		 mov	 DWORD PTR tv6917[ebp], eax
  00684	8d 45 9c	 lea	 eax, DWORD PTR ___encStr$532139[ebp]
  00687	50		 push	 eax
  00688	8d 85 94 fd ff
	ff		 lea	 eax, DWORD PTR _szTitle$[ebp]
  0068e	50		 push	 eax
  0068f	ff 15 00 00 00
	00		 call	 DWORD PTR __imp__wsprintfA
  00695	83 c4 0c	 add	 esp, 12			; 0000000cH

; 100  : 			kSetNamedTitleLoader.SetTitle( szTitle );

  00698	8d 85 94 fd ff
	ff		 lea	 eax, DWORD PTR _szTitle$[ebp]
  0069e	50		 push	 eax
  0069f	8d 8d f0 f5 ff
	ff		 lea	 ecx, DWORD PTR _kSetNamedTitleLoader$532125[ebp]
  006a5	ff 15 00 00 00
	00		 call	 DWORD PTR __imp_?SetTitle@ioINILoader@@QAEXPBD@Z

; 101  : 
; 102  : 			LoadBase( kSetNamedTitleLoader );

  006ab	8b 8d ec f5 ff
	ff		 mov	 ecx, DWORD PTR _this$GSCopy$[ebp]
  006b1	8d 85 f0 f5 ff
	ff		 lea	 eax, DWORD PTR _kSetNamedTitleLoader$532125[ebp]
  006b7	50		 push	 eax
  006b8	e8 00 00 00 00	 call	 ?LoadBase@ioNamedTitleInfoManager@@IAEXAAVioINILoader@@@Z ; ioNamedTitleInfoManager::LoadBase
  006bd	8b 8d e8 f5 ff
	ff		 mov	 ecx, DWORD PTR tv6917[ebp]
  006c3	3b 8d e0 f5 ff
	ff		 cmp	 ecx, DWORD PTR _iCnt$532126[ebp]
  006c9	0f 8c 7a ff ff
	ff		 jl	 $LL102@LoadProper
$LN100@LoadProper:

; 103  : 		}
; 104  : 	}

  006cf	8d 8d f0 f5 ff
	ff		 lea	 ecx, DWORD PTR _kSetNamedTitleLoader$532125[ebp]
  006d5	c6 45 fc 01	 mov	 BYTE PTR __$EHRec$[ebp+8], 1
  006d9	ff 15 00 00 00
	00		 call	 DWORD PTR __imp_??1ioINILoader@@QAE@XZ
  006df	8b 8d dc f5 ff
	ff		 mov	 ecx, DWORD PTR tv6792[ebp]
  006e5	3b 8d d8 f5 ff
	ff		 cmp	 ecx, DWORD PTR _nGroupCnt$[ebp]
  006eb	0f 8c 8f fd ff
	ff		 jl	 $LL303@LoadProper
$LN301@LoadProper:

; 105  : }

  006f1	8d 8d c8 f5 ff
	ff		 lea	 ecx, DWORD PTR _szColorTemp$[ebp]
  006f7	c6 45 fc 00	 mov	 BYTE PTR __$EHRec$[ebp+8], 0
  006fb	ff 15 00 00 00
	00		 call	 DWORD PTR __imp_??1ioHashString@@QAE@XZ
  00701	83 4d fc ff	 or	 DWORD PTR __$EHRec$[ebp+8], -1
  00705	8d 8d 00 f9 ff
	ff		 lea	 ecx, DWORD PTR _kLoader$[ebp]
  0070b	ff 15 00 00 00
	00		 call	 DWORD PTR __imp_??1ioINILoader@@QAE@XZ
  00711	e8 00 00 00 00	 call	 __EH_epilog3_GS
  00716	c3		 ret	 0
_TEXT	ENDS
;	COMDAT text$x
text$x	SEGMENT
__unwindfunclet$?LoadProperty@ioNamedTitleInfoManager@@QAEXXZ$0:
  00000	8d 8d 00 f9 ff
	ff		 lea	 ecx, DWORD PTR _kLoader$[ebp]
  00006	e9 00 00 00 00	 jmp	 ??1ioINILoader_e@@QAE@XZ
__unwindfunclet$?LoadProperty@ioNamedTitleInfoManager@@QAEXXZ$1:
  0000b	8d 8d c8 f5 ff
	ff		 lea	 ecx, DWORD PTR _szColorTemp$[ebp]
  00011	ff 25 00 00 00
	00		 jmp	 DWORD PTR __imp_??1ioHashString@@QAE@XZ
__unwindfunclet$?LoadProperty@ioNamedTitleInfoManager@@QAEXXZ$2:
  00017	8d 4d b0	 lea	 ecx, DWORD PTR $T542768[ebp]
  0001a	ff 25 00 00 00
	00		 jmp	 DWORD PTR __imp_??1ioHashString@@QAE@XZ
__unwindfunclet$?LoadProperty@ioNamedTitleInfoManager@@QAEXXZ$3:
  00020	8d 8d f0 f5 ff
	ff		 lea	 ecx, DWORD PTR _kSetNamedTitleLoader$532125[ebp]
  00026	ff 25 00 00 00
	00		 jmp	 DWORD PTR __imp_??1ioINILoader@@QAE@XZ
__ehhandler$?LoadProperty@ioNamedTitleInfoManager@@QAEXXZ:
  0002c	8b 54 24 08	 mov	 edx, DWORD PTR [esp+8]
  00030	8d 42 0c	 lea	 eax, DWORD PTR [edx+12]
  00033	8b 8a c4 f5 ff
	ff		 mov	 ecx, DWORD PTR [edx-2620]
  00039	33 c8		 xor	 ecx, eax
  0003b	e8 00 00 00 00	 call	 @__security_check_cookie@4
  00040	8b 4a fc	 mov	 ecx, DWORD PTR [edx-4]
  00043	33 c8		 xor	 ecx, eax
  00045	e8 00 00 00 00	 call	 @__security_check_cookie@4
  0004a	b8 00 00 00 00	 mov	 eax, OFFSET __ehfuncinfo$?LoadProperty@ioNamedTitleInfoManager@@QAEXXZ
  0004f	e9 00 00 00 00	 jmp	 ___CxxFrameHandler3
text$x	ENDS
?LoadProperty@ioNamedTitleInfoManager@@QAEXXZ ENDP	; ioNamedTitleInfoManager::LoadProperty
PUBLIC	??1?$_Tree@V?$_Tmap_traits@KUtagNamedTitleInfo@@U?$less@K@std@@V?$allocator@U?$pair@$$CBKUtagNamedTitleInfo@@@std@@@3@$0A@@std@@@std@@QAE@XZ ; std::_Tree<std::_Tmap_traits<unsigned long,tagNamedTitleInfo,std::less<unsigned long>,std::allocator<std::pair<unsigned long const ,tagNamedTitleInfo> >,0> >::~_Tree<std::_Tmap_traits<unsigned long,tagNamedTitleInfo,std::less<unsigned long>,std::allocator<std::pair<unsigned long const ,tagNamedTitleInfo> >,0> >
;	COMDAT xdata$x
; File c:\program files (x86)\microsoft visual studio 10.0\vc\include\xmemory
xdata$x	SEGMENT
__unwindtable$??1?$_Tree@V?$_Tmap_traits@KUtagNamedTitleInfo@@U?$less@K@std@@V?$allocator@U?$pair@$$CBKUtagNamedTitleInfo@@@std@@@3@$0A@@std@@@std@@QAE@XZ DD 0ffffffffH
	DD	FLAT:__unwindfunclet$??1?$_Tree@V?$_Tmap_traits@KUtagNamedTitleInfo@@U?$less@K@std@@V?$allocator@U?$pair@$$CBKUtagNamedTitleInfo@@@std@@@3@$0A@@std@@@std@@QAE@XZ$0
__ehfuncinfo$??1?$_Tree@V?$_Tmap_traits@KUtagNamedTitleInfo@@U?$less@K@std@@V?$allocator@U?$pair@$$CBKUtagNamedTitleInfo@@@std@@@3@$0A@@std@@@std@@QAE@XZ DD 019930522H
	DD	01H
	DD	FLAT:__unwindtable$??1?$_Tree@V?$_Tmap_traits@KUtagNamedTitleInfo@@U?$less@K@std@@V?$allocator@U?$pair@$$CBKUtagNamedTitleInfo@@@std@@@3@$0A@@std@@@std@@QAE@XZ
	DD	2 DUP(00H)
	DD	2 DUP(00H)
	DD	00H
	DD	01H
; Function compile flags: /Ogsp
; File c:\program files (x86)\microsoft visual studio 10.0\vc\include\xtree
xdata$x	ENDS
;	COMDAT ??1?$_Tree@V?$_Tmap_traits@KUtagNamedTitleInfo@@U?$less@K@std@@V?$allocator@U?$pair@$$CBKUtagNamedTitleInfo@@@std@@@3@$0A@@std@@@std@@QAE@XZ
_TEXT	SEGMENT
$T543851 = -20						; size = 4
_this$ = -16						; size = 4
__$EHRec$ = -12						; size = 12
??1?$_Tree@V?$_Tmap_traits@KUtagNamedTitleInfo@@U?$less@K@std@@V?$allocator@U?$pair@$$CBKUtagNamedTitleInfo@@@std@@@3@$0A@@std@@@std@@QAE@XZ PROC ; std::_Tree<std::_Tmap_traits<unsigned long,tagNamedTitleInfo,std::less<unsigned long>,std::allocator<std::pair<unsigned long const ,tagNamedTitleInfo> >,0> >::~_Tree<std::_Tmap_traits<unsigned long,tagNamedTitleInfo,std::less<unsigned long>,std::allocator<std::pair<unsigned long const ,tagNamedTitleInfo> >,0> >, COMDAT
; _this$ = ecx

; 790  : 		{	// destroy tree

  00000	6a 08		 push	 8
  00002	b8 00 00 00 00	 mov	 eax, __ehhandler$??1?$_Tree@V?$_Tmap_traits@KUtagNamedTitleInfo@@U?$less@K@std@@V?$allocator@U?$pair@$$CBKUtagNamedTitleInfo@@@std@@@3@$0A@@std@@@std@@QAE@XZ
  00007	e8 00 00 00 00	 call	 __EH_prolog3
  0000c	8b f1		 mov	 esi, ecx
  0000e	89 75 f0	 mov	 DWORD PTR _this$[ebp], esi

; 791  : 		_Tidy();

  00011	8b 46 04	 mov	 eax, DWORD PTR [esi+4]
  00014	8b 08		 mov	 ecx, DWORD PTR [eax]
  00016	83 65 fc 00	 and	 DWORD PTR __$EHRec$[ebp+8], 0
  0001a	50		 push	 eax
  0001b	51		 push	 ecx
  0001c	8d 45 ec	 lea	 eax, DWORD PTR $T543851[ebp]
  0001f	50		 push	 eax
  00020	8b ce		 mov	 ecx, esi
  00022	e8 00 00 00 00	 call	 ?erase@?$_Tree@V?$_Tmap_traits@KUtagNamedTitleInfo@@U?$less@K@std@@V?$allocator@U?$pair@$$CBKUtagNamedTitleInfo@@@std@@@3@$0A@@std@@@std@@QAE?AV?$_Tree_iterator@V?$_Tree_val@V?$_Tmap_traits@KUtagNamedTitleInfo@@U?$less@K@std@@V?$allocator@U?$pair@$$CBKUtagNamedTitleInfo@@@std@@@3@$0A@@std@@@std@@@2@V?$_Tree_const_iterator@V?$_Tree_val@V?$_Tmap_traits@KUtagNamedTitleInfo@@U?$less@K@std@@V?$allocator@U?$pair@$$CBKUtagNamedTitleInfo@@@std@@@3@$0A@@std@@@std@@@2@0@Z ; std::_Tree<std::_Tmap_traits<unsigned long,tagNamedTitleInfo,std::less<unsigned long>,std::allocator<std::pair<unsigned long const ,tagNamedTitleInfo> >,0> >::erase

; 792  : 		}

  00027	ff 76 04	 push	 DWORD PTR [esi+4]
  0002a	e8 00 00 00 00	 call	 ??3@YAXPAX@Z		; operator delete
  0002f	59		 pop	 ecx
  00030	e8 00 00 00 00	 call	 __EH_epilog3
  00035	c3		 ret	 0
_TEXT	ENDS
;	COMDAT text$x
text$x	SEGMENT
__unwindfunclet$??1?$_Tree@V?$_Tmap_traits@KUtagNamedTitleInfo@@U?$less@K@std@@V?$allocator@U?$pair@$$CBKUtagNamedTitleInfo@@@std@@@3@$0A@@std@@@std@@QAE@XZ$0:
  00000	8b 4d f0	 mov	 ecx, DWORD PTR _this$[ebp]
  00003	e9 00 00 00 00	 jmp	 ??1?$_Tree_val@V?$_Tmap_traits@KUtagNamedTitleInfo@@U?$less@K@std@@V?$allocator@U?$pair@$$CBKUtagNamedTitleInfo@@@std@@@3@$0A@@std@@@std@@QAE@XZ ; std::_Tree_val<std::_Tmap_traits<unsigned long,tagNamedTitleInfo,std::less<unsigned long>,std::allocator<std::pair<unsigned long const ,tagNamedTitleInfo> >,0> >::~_Tree_val<std::_Tmap_traits<unsigned long,tagNamedTitleInfo,std::less<unsigned long>,std::allocator<std::pair<unsigned long const ,tagNamedTitleInfo> >,0> >
__ehhandler$??1?$_Tree@V?$_Tmap_traits@KUtagNamedTitleInfo@@U?$less@K@std@@V?$allocator@U?$pair@$$CBKUtagNamedTitleInfo@@@std@@@3@$0A@@std@@@std@@QAE@XZ:
  00008	8b 54 24 08	 mov	 edx, DWORD PTR [esp+8]
  0000c	8d 42 0c	 lea	 eax, DWORD PTR [edx+12]
  0000f	8b 4a e8	 mov	 ecx, DWORD PTR [edx-24]
  00012	33 c8		 xor	 ecx, eax
  00014	e8 00 00 00 00	 call	 @__security_check_cookie@4
  00019	b8 00 00 00 00	 mov	 eax, OFFSET __ehfuncinfo$??1?$_Tree@V?$_Tmap_traits@KUtagNamedTitleInfo@@U?$less@K@std@@V?$allocator@U?$pair@$$CBKUtagNamedTitleInfo@@@std@@@3@$0A@@std@@@std@@QAE@XZ
  0001e	e9 00 00 00 00	 jmp	 ___CxxFrameHandler3
text$x	ENDS
??1?$_Tree@V?$_Tmap_traits@KUtagNamedTitleInfo@@U?$less@K@std@@V?$allocator@U?$pair@$$CBKUtagNamedTitleInfo@@@std@@@3@$0A@@std@@@std@@QAE@XZ ENDP ; std::_Tree<std::_Tmap_traits<unsigned long,tagNamedTitleInfo,std::less<unsigned long>,std::allocator<std::pair<unsigned long const ,tagNamedTitleInfo> >,0> >::~_Tree<std::_Tmap_traits<unsigned long,tagNamedTitleInfo,std::less<unsigned long>,std::allocator<std::pair<unsigned long const ,tagNamedTitleInfo> >,0> >
PUBLIC	??1?$map@KUtagNamedTitleInfo@@U?$less@K@std@@V?$allocator@U?$pair@$$CBKUtagNamedTitleInfo@@@std@@@3@@std@@QAE@XZ ; std::map<unsigned long,tagNamedTitleInfo,std::less<unsigned long>,std::allocator<std::pair<unsigned long const ,tagNamedTitleInfo> > >::~map<unsigned long,tagNamedTitleInfo,std::less<unsigned long>,std::allocator<std::pair<unsigned long const ,tagNamedTitleInfo> > >
; Function compile flags: /Ogsp
;	COMDAT ??1?$map@KUtagNamedTitleInfo@@U?$less@K@std@@V?$allocator@U?$pair@$$CBKUtagNamedTitleInfo@@@std@@@3@@std@@QAE@XZ
_TEXT	SEGMENT
??1?$map@KUtagNamedTitleInfo@@U?$less@K@std@@V?$allocator@U?$pair@$$CBKUtagNamedTitleInfo@@@std@@@3@@std@@QAE@XZ PROC ; std::map<unsigned long,tagNamedTitleInfo,std::less<unsigned long>,std::allocator<std::pair<unsigned long const ,tagNamedTitleInfo> > >::~map<unsigned long,tagNamedTitleInfo,std::less<unsigned long>,std::allocator<std::pair<unsigned long const ,tagNamedTitleInfo> > >, COMDAT
; _this$ = ecx
  00000	e9 00 00 00 00	 jmp	 ??1?$_Tree@V?$_Tmap_traits@KUtagNamedTitleInfo@@U?$less@K@std@@V?$allocator@U?$pair@$$CBKUtagNamedTitleInfo@@@std@@@3@$0A@@std@@@std@@QAE@XZ ; std::_Tree<std::_Tmap_traits<unsigned long,tagNamedTitleInfo,std::less<unsigned long>,std::allocator<std::pair<unsigned long const ,tagNamedTitleInfo> >,0> >::~_Tree<std::_Tmap_traits<unsigned long,tagNamedTitleInfo,std::less<unsigned long>,std::allocator<std::pair<unsigned long const ,tagNamedTitleInfo> >,0> >
??1?$map@KUtagNamedTitleInfo@@U?$less@K@std@@V?$allocator@U?$pair@$$CBKUtagNamedTitleInfo@@@std@@@3@@std@@QAE@XZ ENDP ; std::map<unsigned long,tagNamedTitleInfo,std::less<unsigned long>,std::allocator<std::pair<unsigned long const ,tagNamedTitleInfo> > >::~map<unsigned long,tagNamedTitleInfo,std::less<unsigned long>,std::allocator<std::pair<unsigned long const ,tagNamedTitleInfo> > >
_TEXT	ENDS
PUBLIC	??_7ioNamedTitleInfoManager@@6B@		; ioNamedTitleInfoManager::`vftable'
PUBLIC	??1ioNamedTitleInfoManager@@UAE@XZ		; ioNamedTitleInfoManager::~ioNamedTitleInfoManager
PUBLIC	??_R4ioNamedTitleInfoManager@@6B@		; ioNamedTitleInfoManager::`RTTI Complete Object Locator'
PUBLIC	??_R0?AVioNamedTitleInfoManager@@@8		; ioNamedTitleInfoManager `RTTI Type Descriptor'
PUBLIC	??_R3ioNamedTitleInfoManager@@8			; ioNamedTitleInfoManager::`RTTI Class Hierarchy Descriptor'
PUBLIC	??_R2ioNamedTitleInfoManager@@8			; ioNamedTitleInfoManager::`RTTI Base Class Array'
PUBLIC	??_R1A@?0A@EA@ioNamedTitleInfoManager@@8	; ioNamedTitleInfoManager::`RTTI Base Class Descriptor at (0,-1,0,64)'
PUBLIC	??_R13?0A@EA@?$Singleton@VioNamedTitleInfoManager@@@@8 ; Singleton<ioNamedTitleInfoManager>::`RTTI Base Class Descriptor at (4,-1,0,64)'
PUBLIC	??_R0?AV?$Singleton@VioNamedTitleInfoManager@@@@@8 ; Singleton<ioNamedTitleInfoManager> `RTTI Type Descriptor'
PUBLIC	??_R3?$Singleton@VioNamedTitleInfoManager@@@@8	; Singleton<ioNamedTitleInfoManager>::`RTTI Class Hierarchy Descriptor'
PUBLIC	??_R2?$Singleton@VioNamedTitleInfoManager@@@@8	; Singleton<ioNamedTitleInfoManager>::`RTTI Base Class Array'
PUBLIC	??_R1A@?0A@EA@?$Singleton@VioNamedTitleInfoManager@@@@8 ; Singleton<ioNamedTitleInfoManager>::`RTTI Base Class Descriptor at (0,-1,0,64)'
EXTRN	??_EioNamedTitleInfoManager@@UAEPAXI@Z:PROC	; ioNamedTitleInfoManager::`vector deleting destructor'
;	COMDAT ??_R1A@?0A@EA@?$Singleton@VioNamedTitleInfoManager@@@@8
; File d:\lost saga for developer\youtube\tutorial\source\src\io3dengine\iosingleton.h
rdata$r	SEGMENT
??_R1A@?0A@EA@?$Singleton@VioNamedTitleInfoManager@@@@8 DD FLAT:??_R0?AV?$Singleton@VioNamedTitleInfoManager@@@@@8 ; Singleton<ioNamedTitleInfoManager>::`RTTI Base Class Descriptor at (0,-1,0,64)'
	DD	00H
	DD	00H
	DD	0ffffffffH
	DD	00H
	DD	040H
	DD	FLAT:??_R3?$Singleton@VioNamedTitleInfoManager@@@@8
rdata$r	ENDS
;	COMDAT ??_R2?$Singleton@VioNamedTitleInfoManager@@@@8
rdata$r	SEGMENT
??_R2?$Singleton@VioNamedTitleInfoManager@@@@8 DD FLAT:??_R1A@?0A@EA@?$Singleton@VioNamedTitleInfoManager@@@@8 ; Singleton<ioNamedTitleInfoManager>::`RTTI Base Class Array'
rdata$r	ENDS
;	COMDAT ??_R3?$Singleton@VioNamedTitleInfoManager@@@@8
rdata$r	SEGMENT
??_R3?$Singleton@VioNamedTitleInfoManager@@@@8 DD 00H	; Singleton<ioNamedTitleInfoManager>::`RTTI Class Hierarchy Descriptor'
	DD	00H
	DD	01H
	DD	FLAT:??_R2?$Singleton@VioNamedTitleInfoManager@@@@8
rdata$r	ENDS
;	COMDAT ??_R0?AV?$Singleton@VioNamedTitleInfoManager@@@@@8
_DATA	SEGMENT
??_R0?AV?$Singleton@VioNamedTitleInfoManager@@@@@8 DD FLAT:??_7type_info@@6B@ ; Singleton<ioNamedTitleInfoManager> `RTTI Type Descriptor'
	DD	00H
	DB	'.?AV?$Singleton@VioNamedTitleInfoManager@@@@', 00H
_DATA	ENDS
;	COMDAT ??_R13?0A@EA@?$Singleton@VioNamedTitleInfoManager@@@@8
rdata$r	SEGMENT
??_R13?0A@EA@?$Singleton@VioNamedTitleInfoManager@@@@8 DD FLAT:??_R0?AV?$Singleton@VioNamedTitleInfoManager@@@@@8 ; Singleton<ioNamedTitleInfoManager>::`RTTI Base Class Descriptor at (4,-1,0,64)'
	DD	00H
	DD	04H
	DD	0ffffffffH
	DD	00H
	DD	040H
	DD	FLAT:??_R3?$Singleton@VioNamedTitleInfoManager@@@@8
rdata$r	ENDS
;	COMDAT ??_R1A@?0A@EA@ioNamedTitleInfoManager@@8
rdata$r	SEGMENT
??_R1A@?0A@EA@ioNamedTitleInfoManager@@8 DD FLAT:??_R0?AVioNamedTitleInfoManager@@@8 ; ioNamedTitleInfoManager::`RTTI Base Class Descriptor at (0,-1,0,64)'
	DD	01H
	DD	00H
	DD	0ffffffffH
	DD	00H
	DD	040H
	DD	FLAT:??_R3ioNamedTitleInfoManager@@8
rdata$r	ENDS
;	COMDAT ??_R2ioNamedTitleInfoManager@@8
rdata$r	SEGMENT
??_R2ioNamedTitleInfoManager@@8 DD FLAT:??_R1A@?0A@EA@ioNamedTitleInfoManager@@8 ; ioNamedTitleInfoManager::`RTTI Base Class Array'
	DD	FLAT:??_R13?0A@EA@?$Singleton@VioNamedTitleInfoManager@@@@8
rdata$r	ENDS
;	COMDAT ??_R3ioNamedTitleInfoManager@@8
rdata$r	SEGMENT
??_R3ioNamedTitleInfoManager@@8 DD 00H			; ioNamedTitleInfoManager::`RTTI Class Hierarchy Descriptor'
	DD	00H
	DD	02H
	DD	FLAT:??_R2ioNamedTitleInfoManager@@8
rdata$r	ENDS
;	COMDAT ??_R0?AVioNamedTitleInfoManager@@@8
_DATA	SEGMENT
??_R0?AVioNamedTitleInfoManager@@@8 DD FLAT:??_7type_info@@6B@ ; ioNamedTitleInfoManager `RTTI Type Descriptor'
	DD	00H
	DB	'.?AVioNamedTitleInfoManager@@', 00H
_DATA	ENDS
;	COMDAT ??_R4ioNamedTitleInfoManager@@6B@
rdata$r	SEGMENT
??_R4ioNamedTitleInfoManager@@6B@ DD 00H		; ioNamedTitleInfoManager::`RTTI Complete Object Locator'
	DD	00H
	DD	00H
	DD	FLAT:??_R0?AVioNamedTitleInfoManager@@@8
	DD	FLAT:??_R3ioNamedTitleInfoManager@@8
rdata$r	ENDS
;	COMDAT ??_7ioNamedTitleInfoManager@@6B@
CONST	SEGMENT
??_7ioNamedTitleInfoManager@@6B@ DD FLAT:??_R4ioNamedTitleInfoManager@@6B@ ; ioNamedTitleInfoManager::`vftable'
	DD	FLAT:??_EioNamedTitleInfoManager@@UAEPAXI@Z
CONST	ENDS
;	COMDAT xdata$x
xdata$x	SEGMENT
__ehfuncinfo$??1ioNamedTitleInfoManager@@UAE@XZ DD 019930522H
	DD	05H
	DD	FLAT:__unwindtable$??1ioNamedTitleInfoManager@@UAE@XZ
	DD	2 DUP(00H)
	DD	2 DUP(00H)
	DD	00H
	DD	01H
__unwindtable$??1ioNamedTitleInfoManager@@UAE@XZ DD 0ffffffffH
	DD	FLAT:__unwindfunclet$??1ioNamedTitleInfoManager@@UAE@XZ$0
	DD	00H
	DD	FLAT:__unwindfunclet$??1ioNamedTitleInfoManager@@UAE@XZ$1
	DD	01H
	DD	FLAT:__unwindfunclet$??1ioNamedTitleInfoManager@@UAE@XZ$2
	DD	02H
	DD	FLAT:__unwindfunclet$??1ioNamedTitleInfoManager@@UAE@XZ$3
	DD	03H
	DD	FLAT:__unwindfunclet$??1ioNamedTitleInfoManager@@UAE@XZ$4
; Function compile flags: /Ogsp
; File d:\lost saga for developer\youtube\tutorial\source\src\lsclient\ionamedtitleinfomanager.cpp
xdata$x	ENDS
;	COMDAT ??1ioNamedTitleInfoManager@@UAE@XZ
_TEXT	SEGMENT
_this$ = -16						; size = 4
__$EHRec$ = -12						; size = 12
??1ioNamedTitleInfoManager@@UAE@XZ PROC			; ioNamedTitleInfoManager::~ioNamedTitleInfoManager, COMDAT
; _this$ = ecx

; 23   : {

  00000	6a 04		 push	 4
  00002	b8 00 00 00 00	 mov	 eax, __ehhandler$??1ioNamedTitleInfoManager@@UAE@XZ
  00007	e8 00 00 00 00	 call	 __EH_prolog3
  0000c	8b f1		 mov	 esi, ecx
  0000e	89 75 f0	 mov	 DWORD PTR _this$[ebp], esi
  00011	c7 06 00 00 00
	00		 mov	 DWORD PTR [esi], OFFSET ??_7ioNamedTitleInfoManager@@6B@
  00017	c7 45 fc 04 00
	00 00		 mov	 DWORD PTR __$EHRec$[ebp+8], 4

; 24   : 	ClearData();

  0001e	e8 00 00 00 00	 call	 ?ClearData@ioNamedTitleInfoManager@@QAEXXZ ; ioNamedTitleInfoManager::ClearData

; 25   : }

  00023	8b 3d 00 00 00
	00		 mov	 edi, DWORD PTR __imp_??1ioHashString@@QAE@XZ
  00029	8d 4e 48	 lea	 ecx, DWORD PTR [esi+72]
  0002c	c6 45 fc 03	 mov	 BYTE PTR __$EHRec$[ebp+8], 3
  00030	ff d7		 call	 edi
  00032	8d 4e 38	 lea	 ecx, DWORD PTR [esi+56]
  00035	c6 45 fc 02	 mov	 BYTE PTR __$EHRec$[ebp+8], 2
  00039	ff d7		 call	 edi
  0003b	8d 4e 28	 lea	 ecx, DWORD PTR [esi+40]
  0003e	c6 45 fc 01	 mov	 BYTE PTR __$EHRec$[ebp+8], 1
  00042	ff d7		 call	 edi
  00044	8d 4e 04	 lea	 ecx, DWORD PTR [esi+4]
  00047	c6 45 fc 00	 mov	 BYTE PTR __$EHRec$[ebp+8], 0
  0004b	e8 00 00 00 00	 call	 ??1?$_Tree@V?$_Tmap_traits@KUtagNamedTitleInfo@@U?$less@K@std@@V?$allocator@U?$pair@$$CBKUtagNamedTitleInfo@@@std@@@3@$0A@@std@@@std@@QAE@XZ ; std::_Tree<std::_Tmap_traits<unsigned long,tagNamedTitleInfo,std::less<unsigned long>,std::allocator<std::pair<unsigned long const ,tagNamedTitleInfo> >,0> >::~_Tree<std::_Tmap_traits<unsigned long,tagNamedTitleInfo,std::less<unsigned long>,std::allocator<std::pair<unsigned long const ,tagNamedTitleInfo> >,0> >
  00050	83 25 00 00 00
	00 00		 and	 DWORD PTR ?ms_Singleton@?$Singleton@VioNamedTitleInfoManager@@@@1PAVioNamedTitleInfoManager@@A, 0 ; Singleton<ioNamedTitleInfoManager>::ms_Singleton
  00057	e8 00 00 00 00	 call	 __EH_epilog3
  0005c	c3		 ret	 0
_TEXT	ENDS
;	COMDAT text$x
text$x	SEGMENT
__unwindfunclet$??1ioNamedTitleInfoManager@@UAE@XZ$0:
  00000	8b 4d f0	 mov	 ecx, DWORD PTR _this$[ebp]
  00003	83 c1 04	 add	 ecx, 4
  00006	e9 00 00 00 00	 jmp	 ??1?$Singleton@VioNamedTitleInfoManager@@@@QAE@XZ ; Singleton<ioNamedTitleInfoManager>::~Singleton<ioNamedTitleInfoManager>
__unwindfunclet$??1ioNamedTitleInfoManager@@UAE@XZ$1:
  0000b	8b 4d f0	 mov	 ecx, DWORD PTR _this$[ebp]
  0000e	83 c1 04	 add	 ecx, 4
  00011	e9 00 00 00 00	 jmp	 ??1?$map@KUtagNamedTitleInfo@@U?$less@K@std@@V?$allocator@U?$pair@$$CBKUtagNamedTitleInfo@@@std@@@3@@std@@QAE@XZ
__unwindfunclet$??1ioNamedTitleInfoManager@@UAE@XZ$2:
  00016	8b 4d f0	 mov	 ecx, DWORD PTR _this$[ebp]
  00019	83 c1 28	 add	 ecx, 40			; 00000028H
  0001c	ff 25 00 00 00
	00		 jmp	 DWORD PTR __imp_??1ioHashString@@QAE@XZ
__unwindfunclet$??1ioNamedTitleInfoManager@@UAE@XZ$3:
  00022	8b 4d f0	 mov	 ecx, DWORD PTR _this$[ebp]
  00025	83 c1 38	 add	 ecx, 56			; 00000038H
  00028	ff 25 00 00 00
	00		 jmp	 DWORD PTR __imp_??1ioHashString@@QAE@XZ
__unwindfunclet$??1ioNamedTitleInfoManager@@UAE@XZ$4:
  0002e	8b 4d f0	 mov	 ecx, DWORD PTR _this$[ebp]
  00031	83 c1 48	 add	 ecx, 72			; 00000048H
  00034	ff 25 00 00 00
	00		 jmp	 DWORD PTR __imp_??1ioHashString@@QAE@XZ
__ehhandler$??1ioNamedTitleInfoManager@@UAE@XZ:
  0003a	8b 54 24 08	 mov	 edx, DWORD PTR [esp+8]
  0003e	8d 42 0c	 lea	 eax, DWORD PTR [edx+12]
  00041	8b 4a ec	 mov	 ecx, DWORD PTR [edx-20]
  00044	33 c8		 xor	 ecx, eax
  00046	e8 00 00 00 00	 call	 @__security_check_cookie@4
  0004b	b8 00 00 00 00	 mov	 eax, OFFSET __ehfuncinfo$??1ioNamedTitleInfoManager@@UAE@XZ
  00050	e9 00 00 00 00	 jmp	 ___CxxFrameHandler3
text$x	ENDS
??1ioNamedTitleInfoManager@@UAE@XZ ENDP			; ioNamedTitleInfoManager::~ioNamedTitleInfoManager
PUBLIC	??0?$map@KUtagNamedTitleInfo@@U?$less@K@std@@V?$allocator@U?$pair@$$CBKUtagNamedTitleInfo@@@std@@@3@@std@@QAE@XZ ; std::map<unsigned long,tagNamedTitleInfo,std::less<unsigned long>,std::allocator<std::pair<unsigned long const ,tagNamedTitleInfo> > >::map<unsigned long,tagNamedTitleInfo,std::less<unsigned long>,std::allocator<std::pair<unsigned long const ,tagNamedTitleInfo> > >
; Function compile flags: /Ogsp
; File c:\program files (x86)\microsoft visual studio 10.0\vc\include\map
;	COMDAT ??0?$map@KUtagNamedTitleInfo@@U?$less@K@std@@V?$allocator@U?$pair@$$CBKUtagNamedTitleInfo@@@std@@@3@@std@@QAE@XZ
_TEXT	SEGMENT
$T543907 = -8						; size = 4
$T543909 = -8						; size = 4
$T543896 = -1						; size = 1
??0?$map@KUtagNamedTitleInfo@@U?$less@K@std@@V?$allocator@U?$pair@$$CBKUtagNamedTitleInfo@@@std@@@3@@std@@QAE@XZ PROC ; std::map<unsigned long,tagNamedTitleInfo,std::less<unsigned long>,std::allocator<std::pair<unsigned long const ,tagNamedTitleInfo> > >::map<unsigned long,tagNamedTitleInfo,std::less<unsigned long>,std::allocator<std::pair<unsigned long const ,tagNamedTitleInfo> > >, COMDAT
; _this$ = ecx

; 106  : 		{	// construct empty map from defaults

  00000	55		 push	 ebp
  00001	8b ec		 mov	 ebp, esp
  00003	51		 push	 ecx
  00004	51		 push	 ecx
  00005	56		 push	 esi
  00006	51		 push	 ecx
  00007	89 65 f8	 mov	 DWORD PTR $T543909[ebp], esp
  0000a	8d 45 ff	 lea	 eax, DWORD PTR $T543896[ebp]
  0000d	89 65 f8	 mov	 DWORD PTR $T543907[ebp], esp
  00010	50		 push	 eax
  00011	8b f1		 mov	 esi, ecx
  00013	e8 00 00 00 00	 call	 ??0?$_Tree_val@V?$_Tmap_traits@KUtagNamedTitleInfo@@U?$less@K@std@@V?$allocator@U?$pair@$$CBKUtagNamedTitleInfo@@@std@@@3@$0A@@std@@@std@@QAE@ABU?$less@K@1@V?$allocator@U?$pair@$$CBKUtagNamedTitleInfo@@@std@@@1@@Z ; std::_Tree_val<std::_Tmap_traits<unsigned long,tagNamedTitleInfo,std::less<unsigned long>,std::allocator<std::pair<unsigned long const ,tagNamedTitleInfo> >,0> >::_Tree_val<std::_Tmap_traits<unsigned long,tagNamedTitleInfo,std::less<unsigned long>,std::allocator<std::pair<unsigned long const ,tagNamedTitleInfo> >,0> >

; 107  : 		}

  00018	8b c6		 mov	 eax, esi
  0001a	5e		 pop	 esi
  0001b	c9		 leave
  0001c	c3		 ret	 0
??0?$map@KUtagNamedTitleInfo@@U?$less@K@std@@V?$allocator@U?$pair@$$CBKUtagNamedTitleInfo@@@std@@@3@@std@@QAE@XZ ENDP ; std::map<unsigned long,tagNamedTitleInfo,std::less<unsigned long>,std::allocator<std::pair<unsigned long const ,tagNamedTitleInfo> > >::map<unsigned long,tagNamedTitleInfo,std::less<unsigned long>,std::allocator<std::pair<unsigned long const ,tagNamedTitleInfo> > >
_TEXT	ENDS
PUBLIC	??0ioNamedTitleInfoManager@@QAE@XZ		; ioNamedTitleInfoManager::ioNamedTitleInfoManager
;	COMDAT xdata$x
; File c:\program files (x86)\microsoft visual studio 10.0\vc\include\xmemory
xdata$x	SEGMENT
__ehfuncinfo$??0ioNamedTitleInfoManager@@QAE@XZ DD 019930522H
	DD	05H
	DD	FLAT:__unwindtable$??0ioNamedTitleInfoManager@@QAE@XZ
	DD	2 DUP(00H)
	DD	2 DUP(00H)
	DD	00H
	DD	01H
__unwindtable$??0ioNamedTitleInfoManager@@QAE@XZ DD 0ffffffffH
	DD	FLAT:__unwindfunclet$??0ioNamedTitleInfoManager@@QAE@XZ$0
	DD	00H
	DD	FLAT:__unwindfunclet$??0ioNamedTitleInfoManager@@QAE@XZ$1
	DD	01H
	DD	FLAT:__unwindfunclet$??0ioNamedTitleInfoManager@@QAE@XZ$2
	DD	02H
	DD	FLAT:__unwindfunclet$??0ioNamedTitleInfoManager@@QAE@XZ$3
	DD	03H
	DD	FLAT:__unwindfunclet$??0ioNamedTitleInfoManager@@QAE@XZ$4
; Function compile flags: /Ogsp
; File d:\lost saga for developer\youtube\tutorial\source\src\lsclient\ionamedtitleinfomanager.cpp
xdata$x	ENDS
;	COMDAT ??0ioNamedTitleInfoManager@@QAE@XZ
_TEXT	SEGMENT
$T543942 = -24						; size = 4
$T543954 = -24						; size = 4
_this$ = -20						; size = 4
$T543950 = -13						; size = 1
__$EHRec$ = -12						; size = 12
??0ioNamedTitleInfoManager@@QAE@XZ PROC			; ioNamedTitleInfoManager::ioNamedTitleInfoManager, COMDAT
; _this$ = ecx

; 15   : {

  00000	6a 0c		 push	 12			; 0000000cH
  00002	b8 00 00 00 00	 mov	 eax, __ehhandler$??0ioNamedTitleInfoManager@@QAE@XZ
  00007	e8 00 00 00 00	 call	 __EH_prolog3
  0000c	8b f1		 mov	 esi, ecx
  0000e	89 75 ec	 mov	 DWORD PTR _this$[ebp], esi
  00011	8b c6		 mov	 eax, esi
  00013	a3 00 00 00 00	 mov	 DWORD PTR ?ms_Singleton@?$Singleton@VioNamedTitleInfoManager@@@@1PAVioNamedTitleInfoManager@@A, eax ; Singleton<ioNamedTitleInfoManager>::ms_Singleton
  00018	83 65 fc 00	 and	 DWORD PTR __$EHRec$[ebp+8], 0
  0001c	51		 push	 ecx
  0001d	89 65 e8	 mov	 DWORD PTR $T543954[ebp], esp
  00020	8d 45 f3	 lea	 eax, DWORD PTR $T543950[ebp]
  00023	89 65 e8	 mov	 DWORD PTR $T543942[ebp], esp
  00026	50		 push	 eax
  00027	8d 4e 04	 lea	 ecx, DWORD PTR [esi+4]
  0002a	c7 06 00 00 00
	00		 mov	 DWORD PTR [esi], OFFSET ??_7ioNamedTitleInfoManager@@6B@
  00030	e8 00 00 00 00	 call	 ??0?$_Tree_val@V?$_Tmap_traits@KUtagNamedTitleInfo@@U?$less@K@std@@V?$allocator@U?$pair@$$CBKUtagNamedTitleInfo@@@std@@@3@$0A@@std@@@std@@QAE@ABU?$less@K@1@V?$allocator@U?$pair@$$CBKUtagNamedTitleInfo@@@std@@@1@@Z ; std::_Tree_val<std::_Tmap_traits<unsigned long,tagNamedTitleInfo,std::less<unsigned long>,std::allocator<std::pair<unsigned long const ,tagNamedTitleInfo> >,0> >::_Tree_val<std::_Tmap_traits<unsigned long,tagNamedTitleInfo,std::less<unsigned long>,std::allocator<std::pair<unsigned long const ,tagNamedTitleInfo> >,0> >
  00035	8b 3d 00 00 00
	00		 mov	 edi, DWORD PTR __imp_??0ioHashString@@QAE@XZ
  0003b	8d 4e 28	 lea	 ecx, DWORD PTR [esi+40]
  0003e	c6 45 fc 01	 mov	 BYTE PTR __$EHRec$[ebp+8], 1
  00042	ff d7		 call	 edi
  00044	8d 4e 38	 lea	 ecx, DWORD PTR [esi+56]
  00047	c6 45 fc 02	 mov	 BYTE PTR __$EHRec$[ebp+8], 2
  0004b	ff d7		 call	 edi
  0004d	8d 4e 48	 lea	 ecx, DWORD PTR [esi+72]
  00050	c6 45 fc 03	 mov	 BYTE PTR __$EHRec$[ebp+8], 3
  00054	ff d7		 call	 edi

; 16   : 	m_vInfoList.clear();

  00056	8d 4e 04	 lea	 ecx, DWORD PTR [esi+4]
  00059	c6 45 fc 04	 mov	 BYTE PTR __$EHRec$[ebp+8], 4
  0005d	e8 00 00 00 00	 call	 ?clear@?$_Tree@V?$_Tmap_traits@KUtagNamedTitleInfo@@U?$less@K@std@@V?$allocator@U?$pair@$$CBKUtagNamedTitleInfo@@@std@@@3@$0A@@std@@@std@@QAEXXZ ; std::_Tree<std::_Tmap_traits<unsigned long,tagNamedTitleInfo,std::less<unsigned long>,std::allocator<std::pair<unsigned long const ,tagNamedTitleInfo> >,0> >::clear

; 17   : 	m_pPremiumBaseMark = NULL;

  00062	33 c0		 xor	 eax, eax
  00064	89 46 58	 mov	 DWORD PTR [esi+88], eax

; 18   : 	m_dwCurEquipCode = 0;

  00067	89 46 60	 mov	 DWORD PTR [esi+96], eax

; 19   : 	m_dwEquipTime = 0;

  0006a	89 46 64	 mov	 DWORD PTR [esi+100], eax

; 20   : }

  0006d	8b c6		 mov	 eax, esi
  0006f	e8 00 00 00 00	 call	 __EH_epilog3
  00074	c3		 ret	 0
_TEXT	ENDS
;	COMDAT text$x
text$x	SEGMENT
__unwindfunclet$??0ioNamedTitleInfoManager@@QAE@XZ$0:
  00000	8b 4d ec	 mov	 ecx, DWORD PTR _this$[ebp]
  00003	83 c1 04	 add	 ecx, 4
  00006	e9 00 00 00 00	 jmp	 ??1?$Singleton@VioNamedTitleInfoManager@@@@QAE@XZ ; Singleton<ioNamedTitleInfoManager>::~Singleton<ioNamedTitleInfoManager>
__unwindfunclet$??0ioNamedTitleInfoManager@@QAE@XZ$1:
  0000b	8b 4d ec	 mov	 ecx, DWORD PTR _this$[ebp]
  0000e	83 c1 04	 add	 ecx, 4
  00011	e9 00 00 00 00	 jmp	 ??1?$map@KUtagNamedTitleInfo@@U?$less@K@std@@V?$allocator@U?$pair@$$CBKUtagNamedTitleInfo@@@std@@@3@@std@@QAE@XZ
__unwindfunclet$??0ioNamedTitleInfoManager@@QAE@XZ$2:
  00016	8b 4d ec	 mov	 ecx, DWORD PTR _this$[ebp]
  00019	83 c1 28	 add	 ecx, 40			; 00000028H
  0001c	ff 25 00 00 00
	00		 jmp	 DWORD PTR __imp_??1ioHashString@@QAE@XZ
__unwindfunclet$??0ioNamedTitleInfoManager@@QAE@XZ$3:
  00022	8b 4d ec	 mov	 ecx, DWORD PTR _this$[ebp]
  00025	83 c1 38	 add	 ecx, 56			; 00000038H
  00028	ff 25 00 00 00
	00		 jmp	 DWORD PTR __imp_??1ioHashString@@QAE@XZ
__unwindfunclet$??0ioNamedTitleInfoManager@@QAE@XZ$4:
  0002e	8b 4d ec	 mov	 ecx, DWORD PTR _this$[ebp]
  00031	83 c1 48	 add	 ecx, 72			; 00000048H
  00034	ff 25 00 00 00
	00		 jmp	 DWORD PTR __imp_??1ioHashString@@QAE@XZ
__ehhandler$??0ioNamedTitleInfoManager@@QAE@XZ:
  0003a	8b 54 24 08	 mov	 edx, DWORD PTR [esp+8]
  0003e	8d 42 0c	 lea	 eax, DWORD PTR [edx+12]
  00041	8b 4a e4	 mov	 ecx, DWORD PTR [edx-28]
  00044	33 c8		 xor	 ecx, eax
  00046	e8 00 00 00 00	 call	 @__security_check_cookie@4
  0004b	b8 00 00 00 00	 mov	 eax, OFFSET __ehfuncinfo$??0ioNamedTitleInfoManager@@QAE@XZ
  00050	e9 00 00 00 00	 jmp	 ___CxxFrameHandler3
text$x	ENDS
??0ioNamedTitleInfoManager@@QAE@XZ ENDP			; ioNamedTitleInfoManager::ioNamedTitleInfoManager
; Function compile flags: /Ogsp
;	COMDAT ??_GioNamedTitleInfoManager@@UAEPAXI@Z
_TEXT	SEGMENT
___flags$ = 8						; size = 4
??_GioNamedTitleInfoManager@@UAEPAXI@Z PROC		; ioNamedTitleInfoManager::`scalar deleting destructor', COMDAT
; _this$ = ecx
  00000	55		 push	 ebp
  00001	8b ec		 mov	 ebp, esp
  00003	56		 push	 esi
  00004	8b f1		 mov	 esi, ecx
  00006	e8 00 00 00 00	 call	 ??1ioNamedTitleInfoManager@@UAE@XZ ; ioNamedTitleInfoManager::~ioNamedTitleInfoManager
  0000b	f6 45 08 01	 test	 BYTE PTR ___flags$[ebp], 1
  0000f	74 07		 je	 SHORT $LN1@scalar@4
  00011	56		 push	 esi
  00012	e8 00 00 00 00	 call	 ??3@YAXPAX@Z		; operator delete
  00017	59		 pop	 ecx
$LN1@scalar@4:
  00018	8b c6		 mov	 eax, esi
  0001a	5e		 pop	 esi
  0001b	5d		 pop	 ebp
  0001c	c2 04 00	 ret	 4
??_GioNamedTitleInfoManager@@UAEPAXI@Z ENDP		; ioNamedTitleInfoManager::`scalar deleting destructor'
; Function compile flags: /Ogsp
_TEXT	ENDS
;	COMDAT ??__FszNull@?1??GetNamedTitleName@ioNamedTitleInfoManager@@QAE?AVioHashString@@K@Z@YAXXZ
text$yd	SEGMENT
??__FszNull@?1??GetNamedTitleName@ioNamedTitleInfoManager@@QAE?AVioHashString@@K@Z@YAXXZ PROC ; `ioNamedTitleInfoManager::GetNamedTitleName'::`2'::`dynamic atexit destructor for 'szNull'', COMDAT
  00000	b9 00 00 00 00	 mov	 ecx, OFFSET ?szNull@?1??GetNamedTitleName@ioNamedTitleInfoManager@@QAE?AVioHashString@@K@Z@4V3@A
  00005	ff 25 00 00 00
	00		 jmp	 DWORD PTR __imp_??1ioHashString@@QAE@XZ
??__FszNull@?1??GetNamedTitleName@ioNamedTitleInfoManager@@QAE?AVioHashString@@K@Z@YAXXZ ENDP ; `ioNamedTitleInfoManager::GetNamedTitleName'::`2'::`dynamic atexit destructor for 'szNull''
text$yd	ENDS
END
