; Listing generated by Microsoft (R) Optimizing Compiler Version 16.00.30319.01 

	TITLE	D:\Lost Saga For Developer\Youtube\Tutorial\Source\src\LSClient\ioNpcBigTower.cpp
	.686P
	.XMM
	include listing.inc
	.model	flat

INCLUDELIB MSVCRT
INCLUDELIB OLDNAMES

PUBLIC	?_EEM_DS@?$deque@UD3DXVECTOR3@@V?$allocator@UD3DXVECTOR3@@@std@@@std@@2HB ; std::deque<D3DXVECTOR3,std::allocator<D3DXVECTOR3> >::_EEM_DS
;	COMDAT ?_EEM_DS@?$deque@UD3DXVECTOR3@@V?$allocator@UD3DXVECTOR3@@@std@@@std@@2HB
CONST	SEGMENT
?_EEM_DS@?$deque@UD3DXVECTOR3@@V?$allocator@UD3DXVECTOR3@@@std@@@std@@2HB DD 01H ; std::deque<D3DXVECTOR3,std::allocator<D3DXVECTOR3> >::_EEM_DS
CONST	ENDS
PUBLIC	??_7ioNpcBigTower@@6B@				; ioNpcBigTower::`vftable'
PUBLIC	??_7ioNpcBigTower@@6BioWorldEventReceiver@@@	; ioNpcBigTower::`vftable'
PUBLIC	??_7ioNpcBigTower@@6BioPlayEntity@@@		; ioNpcBigTower::`vftable'
PUBLIC	??0ioNpcBigTower@@QAE@PAVioEntityGroup@@PAVioPlayStage@@PAVioPlayMode@@@Z ; ioNpcBigTower::ioNpcBigTower
PUBLIC	??_R4ioNpcBigTower@@6BioPlayEntity@@@		; ioNpcBigTower::`RTTI Complete Object Locator'
PUBLIC	??_R0?AVioNpcBigTower@@@8			; ioNpcBigTower `RTTI Type Descriptor'
PUBLIC	??_R3ioNpcBigTower@@8				; ioNpcBigTower::`RTTI Class Hierarchy Descriptor'
PUBLIC	??_R2ioNpcBigTower@@8				; ioNpcBigTower::`RTTI Base Class Array'
PUBLIC	??_R1A@?0A@EA@ioNpcBigTower@@8			; ioNpcBigTower::`RTTI Base Class Descriptor at (0,-1,0,64)'
PUBLIC	??_R1A@?0A@EA@ioNpcChar@@8			; ioNpcChar::`RTTI Base Class Descriptor at (0,-1,0,64)'
PUBLIC	??_R0?AVioNpcChar@@@8				; ioNpcChar `RTTI Type Descriptor'
PUBLIC	??_R3ioNpcChar@@8				; ioNpcChar::`RTTI Class Hierarchy Descriptor'
PUBLIC	??_R2ioNpcChar@@8				; ioNpcChar::`RTTI Base Class Array'
PUBLIC	??_R1A@?0A@EA@ioBaseChar@@8			; ioBaseChar::`RTTI Base Class Descriptor at (0,-1,0,64)'
PUBLIC	??_R0?AVioBaseChar@@@8				; ioBaseChar `RTTI Type Descriptor'
PUBLIC	??_R3ioBaseChar@@8				; ioBaseChar::`RTTI Class Hierarchy Descriptor'
PUBLIC	??_R2ioBaseChar@@8				; ioBaseChar::`RTTI Base Class Array'
PUBLIC	??_R1A@?0A@EA@ioBaseCharParent@@8		; ioBaseCharParent::`RTTI Base Class Descriptor at (0,-1,0,64)'
PUBLIC	??_R0?AVioBaseCharParent@@@8			; ioBaseCharParent `RTTI Type Descriptor'
PUBLIC	??_R3ioBaseCharParent@@8			; ioBaseCharParent::`RTTI Class Hierarchy Descriptor'
PUBLIC	??_R2ioBaseCharParent@@8			; ioBaseCharParent::`RTTI Base Class Array'
PUBLIC	??_R1A@?0A@EA@ioPlayEntity@@8			; ioPlayEntity::`RTTI Base Class Descriptor at (0,-1,0,64)'
PUBLIC	??_R0?AVioPlayEntity@@@8			; ioPlayEntity `RTTI Type Descriptor'
PUBLIC	??_R3ioPlayEntity@@8				; ioPlayEntity::`RTTI Class Hierarchy Descriptor'
PUBLIC	??_R2ioPlayEntity@@8				; ioPlayEntity::`RTTI Base Class Array'
PUBLIC	??_R1A@?0A@EA@ioGameEntity@@8			; ioGameEntity::`RTTI Base Class Descriptor at (0,-1,0,64)'
PUBLIC	??_R0?AVioGameEntity@@@8			; ioGameEntity `RTTI Type Descriptor'
PUBLIC	??_R3ioGameEntity@@8				; ioGameEntity::`RTTI Class Hierarchy Descriptor'
PUBLIC	??_R2ioGameEntity@@8				; ioGameEntity::`RTTI Base Class Array'
PUBLIC	??_R1A@?0A@EA@ioEntityEvent@@8			; ioEntityEvent::`RTTI Base Class Descriptor at (0,-1,0,64)'
PUBLIC	??_R0?AVioEntityEvent@@@8			; ioEntityEvent `RTTI Type Descriptor'
PUBLIC	??_R3ioEntityEvent@@8				; ioEntityEvent::`RTTI Class Hierarchy Descriptor'
PUBLIC	??_R2ioEntityEvent@@8				; ioEntityEvent::`RTTI Base Class Array'
PUBLIC	??_R1BMI@?0A@EA@ioWorldEventReceiver@@8		; ioWorldEventReceiver::`RTTI Base Class Descriptor at (456,-1,0,64)'
PUBLIC	??_R0?AVioWorldEventReceiver@@@8		; ioWorldEventReceiver `RTTI Type Descriptor'
PUBLIC	??_R3ioWorldEventReceiver@@8			; ioWorldEventReceiver::`RTTI Class Hierarchy Descriptor'
PUBLIC	??_R2ioWorldEventReceiver@@8			; ioWorldEventReceiver::`RTTI Base Class Array'
PUBLIC	??_R1A@?0A@EA@ioWorldEventReceiver@@8		; ioWorldEventReceiver::`RTTI Base Class Descriptor at (0,-1,0,64)'
PUBLIC	??_R1BMM@?0A@EA@ioBaseGUISupport@@8		; ioBaseGUISupport::`RTTI Base Class Descriptor at (460,-1,0,64)'
PUBLIC	??_R0?AVioBaseGUISupport@@@8			; ioBaseGUISupport `RTTI Type Descriptor'
PUBLIC	??_R3ioBaseGUISupport@@8			; ioBaseGUISupport::`RTTI Class Hierarchy Descriptor'
PUBLIC	??_R2ioBaseGUISupport@@8			; ioBaseGUISupport::`RTTI Base Class Array'
PUBLIC	??_R1A@?0A@EA@ioBaseGUISupport@@8		; ioBaseGUISupport::`RTTI Base Class Descriptor at (0,-1,0,64)'
PUBLIC	?NeedUpdateBottomHeight@ioGameEntity@@UAEXXZ	; ioGameEntity::NeedUpdateBottomHeight
PUBLIC	?DontMoveEntityLevel@ioNpcBigTower@@UBEHXZ	; ioNpcBigTower::DontMoveEntityLevel
PUBLIC	?GetControlType@ioNpcChar@@UBE?AW4ControlType@@XZ ; ioNpcChar::GetControlType
PUBLIC	?GetStartProtectionTime@ioNpcChar@@UAEKXZ	; ioNpcChar::GetStartProtectionTime
PUBLIC	?GetBlowStateProtectionTime@ioNpcChar@@UAEKXZ	; ioNpcChar::GetBlowStateProtectionTime
PUBLIC	?GetNpcType@ioNpcBigTower@@UBE?AW4NpcType@@XZ	; ioNpcBigTower::GetNpcType
PUBLIC	??_R4ioNpcBigTower@@6BioWorldEventReceiver@@@	; ioNpcBigTower::`RTTI Complete Object Locator'
PUBLIC	??_EioNpcBigTower@@WBMI@AEPAXI@Z		; [thunk]:ioNpcBigTower::`vector deleting destructor'
PUBLIC	??_R4ioNpcBigTower@@6B@				; ioNpcBigTower::`RTTI Complete Object Locator'
PUBLIC	??_EioNpcBigTower@@WBMM@AEPAXI@Z		; [thunk]:ioNpcBigTower::`vector deleting destructor'
EXTRN	??0ioNpcChar@@QAE@PAVioEntityGroup@@PAVioPlayStage@@PAVioPlayMode@@@Z:PROC ; ioNpcChar::ioNpcChar
EXTRN	??_7type_info@@6B@:QWORD			; type_info::`vftable'
EXTRN	?AddEntityEvent@ioBaseChar@@UAEXPAVioEntity@@@Z:PROC ; ioBaseChar::AddEntityEvent
EXTRN	??_EioNpcBigTower@@UAEPAXI@Z:PROC		; ioNpcBigTower::`vector deleting destructor'
EXTRN	?Update@ioNpcChar@@UAEXMKK@Z:PROC		; ioNpcChar::Update
EXTRN	?UpdateAfter@ioBaseChar@@UAEXM@Z:PROC		; ioBaseChar::UpdateAfter
EXTRN	?GetTypeID@ioPlayEntity@@UBEHXZ:PROC		; ioPlayEntity::GetTypeID
EXTRN	?IsNeedCheckMapCollision@ioBaseChar@@UBE_NXZ:PROC ; ioBaseChar::IsNeedCheckMapCollision
EXTRN	?IsMountAvailable@ioGameEntity@@UBE_NXZ:PROC	; ioGameEntity::IsMountAvailable
EXTRN	?IsMountingAvailable@ioGameEntity@@UBE_NXZ:PROC	; ioGameEntity::IsMountingAvailable
EXTRN	?IsNowMountEnable@ioGameEntity@@UBE_NXZ:PROC	; ioGameEntity::IsNowMountEnable
EXTRN	?IsAllWeaponDefence@ioGameEntity@@UBE_NXZ:PROC	; ioGameEntity::IsAllWeaponDefence
EXTRN	?HasEntity@ioGameEntity@@UAE_NABVioHashString@@@Z:PROC ; ioGameEntity::HasEntity
EXTRN	?AddEntity@ioGameEntity@@UAEPAVioEntity@@ABVioHashString@@@Z:PROC ; ioGameEntity::AddEntity
EXTRN	?DestroyEntity@ioGameEntity@@UAE_NABVioHashString@@@Z:PROC ; ioGameEntity::DestroyEntity
EXTRN	?GetEntity@ioGameEntity@@UAEPAVioEntity@@ABVioHashString@@@Z:PROC ; ioGameEntity::GetEntity
EXTRN	?UpdateBound@ioBaseChar@@MBEXXZ:PROC		; ioBaseChar::UpdateBound
EXTRN	?UpdateBottomHeight@ioBaseChar@@MBEXXZ:PROC	; ioBaseChar::UpdateBottomHeight
EXTRN	?SetWorldPosition@ioGameEntity@@UAEXABUD3DXVECTOR3@@@Z:PROC ; ioGameEntity::SetWorldPosition
EXTRN	?SetWorldOrientation@ioGameEntity@@UAEXABUD3DXQUATERNION@@@Z:PROC ; ioGameEntity::SetWorldOrientation
EXTRN	?SetWorldScale@ioGameEntity@@UAEXABUD3DXVECTOR3@@@Z:PROC ; ioGameEntity::SetWorldScale
EXTRN	?Translate@ioGameEntity@@UAEXABUD3DXVECTOR3@@@Z:PROC ; ioGameEntity::Translate
EXTRN	?TranslateByConveyer@ioGameEntity@@UAEXABUD3DXVECTOR3@@@Z:PROC ; ioGameEntity::TranslateByConveyer
EXTRN	?TranslateByWorldEntity@ioGameEntity@@UAEXABUD3DXVECTOR3@@@Z:PROC ; ioGameEntity::TranslateByWorldEntity
EXTRN	?MapCollisionPushingTranslate@ioGameEntity@@UAEXABUD3DXVECTOR3@@@Z:PROC ; ioGameEntity::MapCollisionPushingTranslate
EXTRN	?DontMoveCollisionPushingTranslate@ioBaseChar@@UAEXPAVioGameEntity@@ABUD3DXVECTOR3@@@Z:PROC ; ioBaseChar::DontMoveCollisionPushingTranslate
EXTRN	?Rotate@ioGameEntity@@UAEXABUD3DXVECTOR3@@MW4TransformSpace@ioNode@@@Z:PROC ; ioGameEntity::Rotate
EXTRN	?Scale@ioGameEntity@@UAEXMMM@Z:PROC		; ioGameEntity::Scale
EXTRN	?Scale@ioGameEntity@@UAEXABUD3DXVECTOR3@@@Z:PROC ; ioGameEntity::Scale
EXTRN	?GetWorldPosition@ioGameEntity@@UBEABUD3DXVECTOR3@@XZ:PROC ; ioGameEntity::GetWorldPosition
EXTRN	?GetWorldOrientation@ioGameEntity@@UBEABUD3DXQUATERNION@@XZ:PROC ; ioGameEntity::GetWorldOrientation
EXTRN	?GetWorldScale@ioGameEntity@@UBEABUD3DXVECTOR3@@XZ:PROC ; ioGameEntity::GetWorldScale
EXTRN	?ApplyWeapon@ioNpcChar@@UAE?AW4ApplyWeaponExp@@PAVioWeapon@@@Z:PROC ; ioNpcChar::ApplyWeapon
EXTRN	?IsCollisionAvailableWeapon@ioNpcChar@@UAE_NPAVioWeapon@@@Z:PROC ; ioNpcChar::IsCollisionAvailableWeapon
EXTRN	?IsCollisionAvailableRange@ioPlayEntity@@UAE_NPAVioWeapon@@@Z:PROC ; ioPlayEntity::IsCollisionAvailableRange
EXTRN	?IsEntityCollisionSkipState@ioBaseChar@@UBE_NPAVioGameEntity@@@Z:PROC ; ioBaseChar::IsEntityCollisionSkipState
EXTRN	?IsCharCollisionSkipState@ioBaseChar@@UBE_NW4TeamType@@H@Z:PROC ; ioBaseChar::IsCharCollisionSkipState
EXTRN	?IsWoundedCollision@ioBaseChar@@UBE_NABVioOrientBox@@PAUD3DXVECTOR3@@@Z:PROC ; ioBaseChar::IsWoundedCollision
EXTRN	?GetAttackCollisionBox@ioPlayEntity@@UAE?AVioOrientBox@@W4AniCollisionType@@_N@Z:PROC ; ioPlayEntity::GetAttackCollisionBox
EXTRN	?CheckSphereDistance@ioBaseChar@@UBE_NABUD3DXVECTOR3@@MAAM@Z:PROC ; ioBaseChar::CheckSphereDistance
EXTRN	?CheckSpherePoint@ioBaseChar@@UBE_NABUD3DXVECTOR3@@MAAU2@@Z:PROC ; ioBaseChar::CheckSpherePoint
EXTRN	?CheckCylinderPoint@ioBaseChar@@UBE_NABVioCylinder@@ABUD3DXVECTOR3@@AAU3@@Z:PROC ; ioBaseChar::CheckCylinderPoint
EXTRN	?GetSubType@ioBaseChar@@UBE?AW4PlaySubType@ioPlayEntity@@XZ:PROC ; ioBaseChar::GetSubType
EXTRN	?GetArmorType@ioBaseChar@@UBE?AW4ArmorType@@XZ:PROC ; ioBaseChar::GetArmorType
EXTRN	?NotifyDontMoveCollisionPushingSkip@ioPlayEntity@@UAEXPAVioGameEntity@@@Z:PROC ; ioPlayEntity::NotifyDontMoveCollisionPushingSkip
EXTRN	?LoadProperty@ioPlayEntity@@UAEXAAVioINILoader@@@Z:PROC ; ioPlayEntity::LoadProperty
EXTRN	?GetWorldEventReceiver@ioBaseChar@@UAEPAVioWorldEventReceiver@@XZ:PROC ; ioBaseChar::GetWorldEventReceiver
EXTRN	?Revival@ioBaseChar@@UAEXXZ:PROC		; ioBaseChar::Revival
EXTRN	?UpdateGauge@ioBaseChar@@UAEXXZ:PROC		; ioBaseChar::UpdateGauge
EXTRN	?RenderGauge@ioNpcChar@@UAEXXZ:PROC		; ioNpcChar::RenderGauge
EXTRN	?FillMaxHP@ioBaseChar@@UAEXXZ:PROC		; ioBaseChar::FillMaxHP
EXTRN	?ProcessRecovery@ioBaseChar@@MAEXXZ:PROC	; ioBaseChar::ProcessRecovery
EXTRN	?AddHeadDamageInfo@ioPlayEntity@@UAEXH_N@Z:PROC	; ioPlayEntity::AddHeadDamageInfo
EXTRN	?RenderHeadInfoList@ioPlayEntity@@UAEXHH@Z:PROC	; ioPlayEntity::RenderHeadInfoList
EXTRN	?UpdateHeadInfoList@ioPlayEntity@@MAEXK@Z:PROC	; ioPlayEntity::UpdateHeadInfoList
EXTRN	?SetTeam@ioBaseChar@@UAEXW4TeamType@@@Z:PROC	; ioBaseChar::SetTeam
EXTRN	?GetAttackCollisionBox@ioBaseChar@@UAE?AVioOrientBox@@W4AniCollisionType@@_NM@Z:PROC ; ioBaseChar::GetAttackCollisionBox
EXTRN	?GetAttackCollisionBoxbyWeapon@ioBaseChar@@UAE?AVioOrientBox@@PAVioAniCollisionBoxGrp@@W4AniCollisionType@@_NM@Z:PROC ; ioBaseChar::GetAttackCollisionBoxbyWeapon
EXTRN	?GetEntityCenterPos@ioBaseChar@@UBE?AUD3DXVECTOR3@@XZ:PROC ; ioBaseChar::GetEntityCenterPos
EXTRN	?TrackingAutoTarget@ioBaseChar@@MAEXXZ:PROC	; ioBaseChar::TrackingAutoTarget
EXTRN	?CheckDieState@ioNpcChar@@MAEXXZ:PROC		; ioNpcChar::CheckDieState
EXTRN	?InitUserStat@ioNpcChar@@MAEXXZ:PROC		; ioNpcChar::InitUserStat
EXTRN	?UpdateStatAttribute@ioNpcChar@@MAEXXZ:PROC	; ioNpcChar::UpdateStatAttribute
EXTRN	?IsNeedProcess@ioNpcChar@@UBE_NXZ:PROC		; ioNpcChar::IsNeedProcess
EXTRN	?IsNeedSendNetwork@ioNpcChar@@UBE_NXZ:PROC	; ioNpcChar::IsNeedSendNetwork
EXTRN	?IsDropDamage@ioNpcChar@@UAE_NXZ:PROC		; ioNpcChar::IsDropDamage
EXTRN	?IsItemDrop@ioNpcChar@@UAE_NXZ:PROC		; ioNpcChar::IsItemDrop
EXTRN	?GetNoInputDelayTime@ioNpcChar@@UAEKXZ:PROC	; ioNpcChar::GetNoInputDelayTime
EXTRN	?GetLimiteDieFlyTime@ioNpcChar@@UAEKXZ:PROC	; ioNpcChar::GetLimiteDieFlyTime
EXTRN	?GetDieActionRate@ioNpcChar@@UAEMXZ:PROC	; ioNpcChar::GetDieActionRate
EXTRN	?GetDieDownActionRate@ioNpcChar@@UAEMXZ:PROC	; ioNpcChar::GetDieDownActionRate
EXTRN	?GetAniStartAction@ioNpcChar@@UAEABVioHashString@@AA_N@Z:PROC ; ioNpcChar::GetAniStartAction
EXTRN	?GetAniDieAction@ioNpcChar@@UAEABVioHashString@@XZ:PROC ; ioNpcChar::GetAniDieAction
EXTRN	?GetAniBackDieAction@ioNpcChar@@UAEABVioHashString@@XZ:PROC ; ioNpcChar::GetAniBackDieAction
EXTRN	?GetAniBlowDieAction@ioNpcChar@@UAEABVioHashString@@XZ:PROC ; ioNpcChar::GetAniBlowDieAction
EXTRN	?GetAniBackBlowDieAction@ioNpcChar@@UAEABVioHashString@@XZ:PROC ; ioNpcChar::GetAniBackBlowDieAction
EXTRN	?GetAniDownBlowDieAction@ioNpcChar@@UAEABVioHashString@@XZ:PROC ; ioNpcChar::GetAniDownBlowDieAction
EXTRN	?GetAniBackdownBlowDieAction@ioNpcChar@@UAEABVioHashString@@XZ:PROC ; ioNpcChar::GetAniBackdownBlowDieAction
EXTRN	?GetAniFalling@ioNpcChar@@UAEAAVioHashString@@XZ:PROC ; ioNpcChar::GetAniFalling
EXTRN	?GetDropDownAction@ioNpcChar@@UAEAAVioHashString@@XZ:PROC ; ioNpcChar::GetDropDownAction
EXTRN	?GetAniBlowGetUp@ioNpcChar@@UAEAAVioHashString@@XZ:PROC ; ioNpcChar::GetAniBlowGetUp
EXTRN	?GetAniBackBlowGetUp@ioNpcChar@@UAEAAVioHashString@@XZ:PROC ; ioNpcChar::GetAniBackBlowGetUp
EXTRN	?GetDelayAnimationIdx@ioBaseChar@@UBEHXZ:PROC	; ioBaseChar::GetDelayAnimationIdx
EXTRN	?GetRunAnimationIdx@ioBaseChar@@UBEHXZ:PROC	; ioBaseChar::GetRunAnimationIdx
EXTRN	?GetDashRunAnimationIdx@ioBaseChar@@UBEHXZ:PROC	; ioBaseChar::GetDashRunAnimationIdx
EXTRN	?GetDefenseAnimationIdx@ioBaseChar@@UBEHXZ:PROC	; ioBaseChar::GetDefenseAnimationIdx
EXTRN	?GetWoundedAnimationIdx@ioBaseChar@@UBEHW4AttackSide@@W4BlowTargetType@@@Z:PROC ; ioBaseChar::GetWoundedAnimationIdx
EXTRN	?GetJumpReadyAnimationIdx@ioBaseChar@@UBEHXZ:PROC ; ioBaseChar::GetJumpReadyAnimationIdx
EXTRN	?GetJumppingAnimationIdx@ioBaseChar@@UBEH_N@Z:PROC ; ioBaseChar::GetJumppingAnimationIdx
EXTRN	?GetJumpEndAnimationIdx@ioBaseChar@@UAEHXZ:PROC	; ioBaseChar::GetJumpEndAnimationIdx
EXTRN	?GetWeaponItemAniIdx@ioBaseChar@@UBEHW4AttackType@@H@Z:PROC ; ioBaseChar::GetWeaponItemAniIdx
EXTRN	?GetWeaponItemEndAniIdx@ioBaseChar@@UBEHW4AttackType@@H@Z:PROC ; ioBaseChar::GetWeaponItemEndAniIdx
EXTRN	?FaceChange@ioBaseChar@@UAEXPBDH@Z:PROC		; ioBaseChar::FaceChange
EXTRN	?HeadMeshChange@ioNpcChar@@UAEXPBDH@Z:PROC	; ioNpcChar::HeadMeshChange
EXTRN	?CheckHeadMeshChange@ioNpcChar@@UAEXXZ:PROC	; ioNpcChar::CheckHeadMeshChange
EXTRN	?StopHeadMeshChange@ioNpcChar@@UAEXXZ:PROC	; ioNpcChar::StopHeadMeshChange
EXTRN	?InitCustomInfo@ioNpcChar@@UAEXAAVioINILoader@@@Z:PROC ; ioNpcChar::InitCustomInfo
EXTRN	?Initialize@ioNpcChar@@UAEXPBUITEM_DATA@@@Z:PROC ; ioNpcChar::Initialize
EXTRN	?InitCustomEffect@ioNpcChar@@UAEXAAVioINILoader@@@Z:PROC ; ioNpcChar::InitCustomEffect
EXTRN	?ProcessAI@ioNpcChar@@MAEXXZ:PROC		; ioNpcChar::ProcessAI
EXTRN	?ProcessBalanceCheck@ioNpcChar@@MAEXXZ:PROC	; ioNpcChar::ProcessBalanceCheck
EXTRN	?CehckStuckWeaponType@ioNpcChar@@MAE_NHH@Z:PROC	; ioNpcChar::CehckStuckWeaponType
EXTRN	?CheckStuckActive@ioNpcChar@@MAE_NH@Z:PROC	; ioNpcChar::CheckStuckActive
EXTRN	?ActiveStuck@ioNpcChar@@UAEXXZ:PROC		; ioNpcChar::ActiveStuck
EXTRN	?OnTelepotation@ioBaseChar@@UAEXABUD3DXVECTOR3@@@Z:PROC ; ioBaseChar::OnTelepotation
EXTRN	?OnFireZoneDamage@ioBaseChar@@UAEXMABVioHashString@@@Z:PROC ; ioBaseChar::OnFireZoneDamage
EXTRN	?OnPoisonZoneDamage@ioBaseChar@@UAEXXZ:PROC	; ioBaseChar::OnPoisonZoneDamage
EXTRN	?CreateMagicCircle@ioBaseGUISupport@@UAEXABVioHashString@@00UD3DXVECTOR3@@M@Z:PROC ; ioBaseGUISupport::CreateMagicCircle
EXTRN	?CreateMagicCircle@ioNpcChar@@UAEXABVioHashString@@00M@Z:PROC ; ioNpcChar::CreateMagicCircle
EXTRN	?CreateMagicCircleForBlock@ioBaseGUISupport@@UAEXABVioHashString@@00M@Z:PROC ; ioBaseGUISupport::CreateMagicCircleForBlock
;	COMDAT ??_R4ioNpcBigTower@@6B@
; File d:\lost saga for developer\youtube\tutorial\source\src\lsclient\ionpcbigtower.cpp
rdata$r	SEGMENT
??_R4ioNpcBigTower@@6B@ DD 00H				; ioNpcBigTower::`RTTI Complete Object Locator'
	DD	01ccH
	DD	00H
	DD	FLAT:??_R0?AVioNpcBigTower@@@8
	DD	FLAT:??_R3ioNpcBigTower@@8
rdata$r	ENDS
;	COMDAT ??_R4ioNpcBigTower@@6BioWorldEventReceiver@@@
rdata$r	SEGMENT
??_R4ioNpcBigTower@@6BioWorldEventReceiver@@@ DD 00H	; ioNpcBigTower::`RTTI Complete Object Locator'
	DD	01c8H
	DD	00H
	DD	FLAT:??_R0?AVioNpcBigTower@@@8
	DD	FLAT:??_R3ioNpcBigTower@@8
rdata$r	ENDS
;	COMDAT ??_R1A@?0A@EA@ioBaseGUISupport@@8
rdata$r	SEGMENT
??_R1A@?0A@EA@ioBaseGUISupport@@8 DD FLAT:??_R0?AVioBaseGUISupport@@@8 ; ioBaseGUISupport::`RTTI Base Class Descriptor at (0,-1,0,64)'
	DD	00H
	DD	00H
	DD	0ffffffffH
	DD	00H
	DD	040H
	DD	FLAT:??_R3ioBaseGUISupport@@8
rdata$r	ENDS
;	COMDAT ??_R2ioBaseGUISupport@@8
rdata$r	SEGMENT
??_R2ioBaseGUISupport@@8 DD FLAT:??_R1A@?0A@EA@ioBaseGUISupport@@8 ; ioBaseGUISupport::`RTTI Base Class Array'
rdata$r	ENDS
;	COMDAT ??_R3ioBaseGUISupport@@8
rdata$r	SEGMENT
??_R3ioBaseGUISupport@@8 DD 00H				; ioBaseGUISupport::`RTTI Class Hierarchy Descriptor'
	DD	00H
	DD	01H
	DD	FLAT:??_R2ioBaseGUISupport@@8
rdata$r	ENDS
;	COMDAT ??_R0?AVioBaseGUISupport@@@8
_DATA	SEGMENT
??_R0?AVioBaseGUISupport@@@8 DD FLAT:??_7type_info@@6B@	; ioBaseGUISupport `RTTI Type Descriptor'
	DD	00H
	DB	'.?AVioBaseGUISupport@@', 00H
_DATA	ENDS
;	COMDAT ??_R1BMM@?0A@EA@ioBaseGUISupport@@8
rdata$r	SEGMENT
??_R1BMM@?0A@EA@ioBaseGUISupport@@8 DD FLAT:??_R0?AVioBaseGUISupport@@@8 ; ioBaseGUISupport::`RTTI Base Class Descriptor at (460,-1,0,64)'
	DD	00H
	DD	01ccH
	DD	0ffffffffH
	DD	00H
	DD	040H
	DD	FLAT:??_R3ioBaseGUISupport@@8
rdata$r	ENDS
;	COMDAT ??_R1A@?0A@EA@ioWorldEventReceiver@@8
rdata$r	SEGMENT
??_R1A@?0A@EA@ioWorldEventReceiver@@8 DD FLAT:??_R0?AVioWorldEventReceiver@@@8 ; ioWorldEventReceiver::`RTTI Base Class Descriptor at (0,-1,0,64)'
	DD	00H
	DD	00H
	DD	0ffffffffH
	DD	00H
	DD	040H
	DD	FLAT:??_R3ioWorldEventReceiver@@8
rdata$r	ENDS
;	COMDAT ??_R2ioWorldEventReceiver@@8
rdata$r	SEGMENT
??_R2ioWorldEventReceiver@@8 DD FLAT:??_R1A@?0A@EA@ioWorldEventReceiver@@8 ; ioWorldEventReceiver::`RTTI Base Class Array'
rdata$r	ENDS
;	COMDAT ??_R3ioWorldEventReceiver@@8
rdata$r	SEGMENT
??_R3ioWorldEventReceiver@@8 DD 00H			; ioWorldEventReceiver::`RTTI Class Hierarchy Descriptor'
	DD	00H
	DD	01H
	DD	FLAT:??_R2ioWorldEventReceiver@@8
rdata$r	ENDS
;	COMDAT ??_R0?AVioWorldEventReceiver@@@8
_DATA	SEGMENT
??_R0?AVioWorldEventReceiver@@@8 DD FLAT:??_7type_info@@6B@ ; ioWorldEventReceiver `RTTI Type Descriptor'
	DD	00H
	DB	'.?AVioWorldEventReceiver@@', 00H
_DATA	ENDS
;	COMDAT ??_R1BMI@?0A@EA@ioWorldEventReceiver@@8
rdata$r	SEGMENT
??_R1BMI@?0A@EA@ioWorldEventReceiver@@8 DD FLAT:??_R0?AVioWorldEventReceiver@@@8 ; ioWorldEventReceiver::`RTTI Base Class Descriptor at (456,-1,0,64)'
	DD	00H
	DD	01c8H
	DD	0ffffffffH
	DD	00H
	DD	040H
	DD	FLAT:??_R3ioWorldEventReceiver@@8
rdata$r	ENDS
;	COMDAT ??_R2ioEntityEvent@@8
rdata$r	SEGMENT
??_R2ioEntityEvent@@8 DD FLAT:??_R1A@?0A@EA@ioEntityEvent@@8 ; ioEntityEvent::`RTTI Base Class Array'
rdata$r	ENDS
;	COMDAT ??_R3ioEntityEvent@@8
rdata$r	SEGMENT
??_R3ioEntityEvent@@8 DD 00H				; ioEntityEvent::`RTTI Class Hierarchy Descriptor'
	DD	00H
	DD	01H
	DD	FLAT:??_R2ioEntityEvent@@8
rdata$r	ENDS
;	COMDAT ??_R0?AVioEntityEvent@@@8
_DATA	SEGMENT
??_R0?AVioEntityEvent@@@8 DD FLAT:??_7type_info@@6B@	; ioEntityEvent `RTTI Type Descriptor'
	DD	00H
	DB	'.?AVioEntityEvent@@', 00H
_DATA	ENDS
;	COMDAT ??_R1A@?0A@EA@ioEntityEvent@@8
rdata$r	SEGMENT
??_R1A@?0A@EA@ioEntityEvent@@8 DD FLAT:??_R0?AVioEntityEvent@@@8 ; ioEntityEvent::`RTTI Base Class Descriptor at (0,-1,0,64)'
	DD	00H
	DD	00H
	DD	0ffffffffH
	DD	00H
	DD	040H
	DD	FLAT:??_R3ioEntityEvent@@8
rdata$r	ENDS
;	COMDAT ??_R2ioGameEntity@@8
rdata$r	SEGMENT
??_R2ioGameEntity@@8 DD FLAT:??_R1A@?0A@EA@ioGameEntity@@8 ; ioGameEntity::`RTTI Base Class Array'
	DD	FLAT:??_R1A@?0A@EA@ioEntityEvent@@8
rdata$r	ENDS
;	COMDAT ??_R3ioGameEntity@@8
rdata$r	SEGMENT
??_R3ioGameEntity@@8 DD 00H				; ioGameEntity::`RTTI Class Hierarchy Descriptor'
	DD	00H
	DD	02H
	DD	FLAT:??_R2ioGameEntity@@8
rdata$r	ENDS
;	COMDAT ??_R0?AVioGameEntity@@@8
_DATA	SEGMENT
??_R0?AVioGameEntity@@@8 DD FLAT:??_7type_info@@6B@	; ioGameEntity `RTTI Type Descriptor'
	DD	00H
	DB	'.?AVioGameEntity@@', 00H
_DATA	ENDS
;	COMDAT ??_R1A@?0A@EA@ioGameEntity@@8
rdata$r	SEGMENT
??_R1A@?0A@EA@ioGameEntity@@8 DD FLAT:??_R0?AVioGameEntity@@@8 ; ioGameEntity::`RTTI Base Class Descriptor at (0,-1,0,64)'
	DD	01H
	DD	00H
	DD	0ffffffffH
	DD	00H
	DD	040H
	DD	FLAT:??_R3ioGameEntity@@8
rdata$r	ENDS
;	COMDAT ??_R2ioPlayEntity@@8
rdata$r	SEGMENT
??_R2ioPlayEntity@@8 DD FLAT:??_R1A@?0A@EA@ioPlayEntity@@8 ; ioPlayEntity::`RTTI Base Class Array'
	DD	FLAT:??_R1A@?0A@EA@ioGameEntity@@8
	DD	FLAT:??_R1A@?0A@EA@ioEntityEvent@@8
rdata$r	ENDS
;	COMDAT ??_R3ioPlayEntity@@8
rdata$r	SEGMENT
??_R3ioPlayEntity@@8 DD 00H				; ioPlayEntity::`RTTI Class Hierarchy Descriptor'
	DD	00H
	DD	03H
	DD	FLAT:??_R2ioPlayEntity@@8
rdata$r	ENDS
;	COMDAT ??_R0?AVioPlayEntity@@@8
_DATA	SEGMENT
??_R0?AVioPlayEntity@@@8 DD FLAT:??_7type_info@@6B@	; ioPlayEntity `RTTI Type Descriptor'
	DD	00H
	DB	'.?AVioPlayEntity@@', 00H
_DATA	ENDS
;	COMDAT ??_R1A@?0A@EA@ioPlayEntity@@8
rdata$r	SEGMENT
??_R1A@?0A@EA@ioPlayEntity@@8 DD FLAT:??_R0?AVioPlayEntity@@@8 ; ioPlayEntity::`RTTI Base Class Descriptor at (0,-1,0,64)'
	DD	02H
	DD	00H
	DD	0ffffffffH
	DD	00H
	DD	040H
	DD	FLAT:??_R3ioPlayEntity@@8
rdata$r	ENDS
;	COMDAT ??_R2ioBaseCharParent@@8
rdata$r	SEGMENT
??_R2ioBaseCharParent@@8 DD FLAT:??_R1A@?0A@EA@ioBaseCharParent@@8 ; ioBaseCharParent::`RTTI Base Class Array'
	DD	FLAT:??_R1A@?0A@EA@ioPlayEntity@@8
	DD	FLAT:??_R1A@?0A@EA@ioGameEntity@@8
	DD	FLAT:??_R1A@?0A@EA@ioEntityEvent@@8
	DD	FLAT:??_R1BMI@?0A@EA@ioWorldEventReceiver@@8
rdata$r	ENDS
;	COMDAT ??_R3ioBaseCharParent@@8
rdata$r	SEGMENT
??_R3ioBaseCharParent@@8 DD 00H				; ioBaseCharParent::`RTTI Class Hierarchy Descriptor'
	DD	01H
	DD	05H
	DD	FLAT:??_R2ioBaseCharParent@@8
rdata$r	ENDS
;	COMDAT ??_R0?AVioBaseCharParent@@@8
_DATA	SEGMENT
??_R0?AVioBaseCharParent@@@8 DD FLAT:??_7type_info@@6B@	; ioBaseCharParent `RTTI Type Descriptor'
	DD	00H
	DB	'.?AVioBaseCharParent@@', 00H
_DATA	ENDS
;	COMDAT ??_R1A@?0A@EA@ioBaseCharParent@@8
rdata$r	SEGMENT
??_R1A@?0A@EA@ioBaseCharParent@@8 DD FLAT:??_R0?AVioBaseCharParent@@@8 ; ioBaseCharParent::`RTTI Base Class Descriptor at (0,-1,0,64)'
	DD	04H
	DD	00H
	DD	0ffffffffH
	DD	00H
	DD	040H
	DD	FLAT:??_R3ioBaseCharParent@@8
rdata$r	ENDS
;	COMDAT ??_R2ioBaseChar@@8
rdata$r	SEGMENT
??_R2ioBaseChar@@8 DD FLAT:??_R1A@?0A@EA@ioBaseChar@@8	; ioBaseChar::`RTTI Base Class Array'
	DD	FLAT:??_R1A@?0A@EA@ioBaseCharParent@@8
	DD	FLAT:??_R1A@?0A@EA@ioPlayEntity@@8
	DD	FLAT:??_R1A@?0A@EA@ioGameEntity@@8
	DD	FLAT:??_R1A@?0A@EA@ioEntityEvent@@8
	DD	FLAT:??_R1BMI@?0A@EA@ioWorldEventReceiver@@8
	DD	FLAT:??_R1BMM@?0A@EA@ioBaseGUISupport@@8
rdata$r	ENDS
;	COMDAT ??_R3ioBaseChar@@8
rdata$r	SEGMENT
??_R3ioBaseChar@@8 DD 00H				; ioBaseChar::`RTTI Class Hierarchy Descriptor'
	DD	01H
	DD	07H
	DD	FLAT:??_R2ioBaseChar@@8
rdata$r	ENDS
;	COMDAT ??_R0?AVioBaseChar@@@8
_DATA	SEGMENT
??_R0?AVioBaseChar@@@8 DD FLAT:??_7type_info@@6B@	; ioBaseChar `RTTI Type Descriptor'
	DD	00H
	DB	'.?AVioBaseChar@@', 00H
_DATA	ENDS
;	COMDAT ??_R1A@?0A@EA@ioBaseChar@@8
rdata$r	SEGMENT
??_R1A@?0A@EA@ioBaseChar@@8 DD FLAT:??_R0?AVioBaseChar@@@8 ; ioBaseChar::`RTTI Base Class Descriptor at (0,-1,0,64)'
	DD	06H
	DD	00H
	DD	0ffffffffH
	DD	00H
	DD	040H
	DD	FLAT:??_R3ioBaseChar@@8
rdata$r	ENDS
;	COMDAT ??_R2ioNpcChar@@8
rdata$r	SEGMENT
??_R2ioNpcChar@@8 DD FLAT:??_R1A@?0A@EA@ioNpcChar@@8	; ioNpcChar::`RTTI Base Class Array'
	DD	FLAT:??_R1A@?0A@EA@ioBaseChar@@8
	DD	FLAT:??_R1A@?0A@EA@ioBaseCharParent@@8
	DD	FLAT:??_R1A@?0A@EA@ioPlayEntity@@8
	DD	FLAT:??_R1A@?0A@EA@ioGameEntity@@8
	DD	FLAT:??_R1A@?0A@EA@ioEntityEvent@@8
	DD	FLAT:??_R1BMI@?0A@EA@ioWorldEventReceiver@@8
	DD	FLAT:??_R1BMM@?0A@EA@ioBaseGUISupport@@8
rdata$r	ENDS
;	COMDAT ??_R3ioNpcChar@@8
rdata$r	SEGMENT
??_R3ioNpcChar@@8 DD 00H				; ioNpcChar::`RTTI Class Hierarchy Descriptor'
	DD	01H
	DD	08H
	DD	FLAT:??_R2ioNpcChar@@8
rdata$r	ENDS
;	COMDAT ??_R0?AVioNpcChar@@@8
_DATA	SEGMENT
??_R0?AVioNpcChar@@@8 DD FLAT:??_7type_info@@6B@	; ioNpcChar `RTTI Type Descriptor'
	DD	00H
	DB	'.?AVioNpcChar@@', 00H
_DATA	ENDS
;	COMDAT ??_R1A@?0A@EA@ioNpcChar@@8
rdata$r	SEGMENT
??_R1A@?0A@EA@ioNpcChar@@8 DD FLAT:??_R0?AVioNpcChar@@@8 ; ioNpcChar::`RTTI Base Class Descriptor at (0,-1,0,64)'
	DD	07H
	DD	00H
	DD	0ffffffffH
	DD	00H
	DD	040H
	DD	FLAT:??_R3ioNpcChar@@8
rdata$r	ENDS
;	COMDAT ??_R1A@?0A@EA@ioNpcBigTower@@8
rdata$r	SEGMENT
??_R1A@?0A@EA@ioNpcBigTower@@8 DD FLAT:??_R0?AVioNpcBigTower@@@8 ; ioNpcBigTower::`RTTI Base Class Descriptor at (0,-1,0,64)'
	DD	08H
	DD	00H
	DD	0ffffffffH
	DD	00H
	DD	040H
	DD	FLAT:??_R3ioNpcBigTower@@8
rdata$r	ENDS
;	COMDAT ??_R2ioNpcBigTower@@8
rdata$r	SEGMENT
??_R2ioNpcBigTower@@8 DD FLAT:??_R1A@?0A@EA@ioNpcBigTower@@8 ; ioNpcBigTower::`RTTI Base Class Array'
	DD	FLAT:??_R1A@?0A@EA@ioNpcChar@@8
	DD	FLAT:??_R1A@?0A@EA@ioBaseChar@@8
	DD	FLAT:??_R1A@?0A@EA@ioBaseCharParent@@8
	DD	FLAT:??_R1A@?0A@EA@ioPlayEntity@@8
	DD	FLAT:??_R1A@?0A@EA@ioGameEntity@@8
	DD	FLAT:??_R1A@?0A@EA@ioEntityEvent@@8
	DD	FLAT:??_R1BMI@?0A@EA@ioWorldEventReceiver@@8
	DD	FLAT:??_R1BMM@?0A@EA@ioBaseGUISupport@@8
rdata$r	ENDS
;	COMDAT ??_R3ioNpcBigTower@@8
rdata$r	SEGMENT
??_R3ioNpcBigTower@@8 DD 00H				; ioNpcBigTower::`RTTI Class Hierarchy Descriptor'
	DD	01H
	DD	09H
	DD	FLAT:??_R2ioNpcBigTower@@8
rdata$r	ENDS
;	COMDAT ??_R0?AVioNpcBigTower@@@8
_DATA	SEGMENT
??_R0?AVioNpcBigTower@@@8 DD FLAT:??_7type_info@@6B@	; ioNpcBigTower `RTTI Type Descriptor'
	DD	00H
	DB	'.?AVioNpcBigTower@@', 00H
_DATA	ENDS
;	COMDAT ??_R4ioNpcBigTower@@6BioPlayEntity@@@
rdata$r	SEGMENT
??_R4ioNpcBigTower@@6BioPlayEntity@@@ DD 00H		; ioNpcBigTower::`RTTI Complete Object Locator'
	DD	00H
	DD	00H
	DD	FLAT:??_R0?AVioNpcBigTower@@@8
	DD	FLAT:??_R3ioNpcBigTower@@8
rdata$r	ENDS
;	COMDAT ??_7ioNpcBigTower@@6B@
CONST	SEGMENT
??_7ioNpcBigTower@@6B@ DD FLAT:??_R4ioNpcBigTower@@6B@	; ioNpcBigTower::`vftable'
	DD	FLAT:?CreateMagicCircle@ioBaseGUISupport@@UAEXABVioHashString@@00UD3DXVECTOR3@@M@Z
	DD	FLAT:?CreateMagicCircle@ioNpcChar@@UAEXABVioHashString@@00M@Z
	DD	FLAT:?CreateMagicCircleForBlock@ioBaseGUISupport@@UAEXABVioHashString@@00M@Z
	DD	FLAT:??_EioNpcBigTower@@WBMM@AEPAXI@Z
CONST	ENDS
;	COMDAT ??_7ioNpcBigTower@@6BioWorldEventReceiver@@@
CONST	SEGMENT
??_7ioNpcBigTower@@6BioWorldEventReceiver@@@ DD FLAT:??_R4ioNpcBigTower@@6BioWorldEventReceiver@@@ ; ioNpcBigTower::`vftable'
	DD	FLAT:?OnTelepotation@ioBaseChar@@UAEXABUD3DXVECTOR3@@@Z
	DD	FLAT:?OnFireZoneDamage@ioBaseChar@@UAEXMABVioHashString@@@Z
	DD	FLAT:?OnPoisonZoneDamage@ioBaseChar@@UAEXXZ
	DD	FLAT:??_EioNpcBigTower@@WBMI@AEPAXI@Z
CONST	ENDS
;	COMDAT ??_7ioNpcBigTower@@6BioPlayEntity@@@
CONST	SEGMENT
??_7ioNpcBigTower@@6BioPlayEntity@@@ DD FLAT:??_R4ioNpcBigTower@@6BioPlayEntity@@@ ; ioNpcBigTower::`vftable'
	DD	FLAT:?AddEntityEvent@ioBaseChar@@UAEXPAVioEntity@@@Z
	DD	FLAT:??_EioNpcBigTower@@UAEPAXI@Z
	DD	FLAT:?Update@ioNpcChar@@UAEXMKK@Z
	DD	FLAT:?UpdateAfter@ioBaseChar@@UAEXM@Z
	DD	FLAT:?GetTypeID@ioPlayEntity@@UBEHXZ
	DD	FLAT:?IsNeedCheckMapCollision@ioBaseChar@@UBE_NXZ
	DD	FLAT:?IsMountAvailable@ioGameEntity@@UBE_NXZ
	DD	FLAT:?IsMountingAvailable@ioGameEntity@@UBE_NXZ
	DD	FLAT:?IsNowMountEnable@ioGameEntity@@UBE_NXZ
	DD	FLAT:?IsAllWeaponDefence@ioGameEntity@@UBE_NXZ
	DD	FLAT:?HasEntity@ioGameEntity@@UAE_NABVioHashString@@@Z
	DD	FLAT:?AddEntity@ioGameEntity@@UAEPAVioEntity@@ABVioHashString@@@Z
	DD	FLAT:?DestroyEntity@ioGameEntity@@UAE_NABVioHashString@@@Z
	DD	FLAT:?GetEntity@ioGameEntity@@UAEPAVioEntity@@ABVioHashString@@@Z
	DD	FLAT:?UpdateBound@ioBaseChar@@MBEXXZ
	DD	FLAT:?UpdateBottomHeight@ioBaseChar@@MBEXXZ
	DD	FLAT:?NeedUpdateBottomHeight@ioGameEntity@@UAEXXZ
	DD	FLAT:?SetWorldPosition@ioGameEntity@@UAEXABUD3DXVECTOR3@@@Z
	DD	FLAT:?SetWorldOrientation@ioGameEntity@@UAEXABUD3DXQUATERNION@@@Z
	DD	FLAT:?SetWorldScale@ioGameEntity@@UAEXABUD3DXVECTOR3@@@Z
	DD	FLAT:?Translate@ioGameEntity@@UAEXABUD3DXVECTOR3@@@Z
	DD	FLAT:?TranslateByConveyer@ioGameEntity@@UAEXABUD3DXVECTOR3@@@Z
	DD	FLAT:?TranslateByWorldEntity@ioGameEntity@@UAEXABUD3DXVECTOR3@@@Z
	DD	FLAT:?MapCollisionPushingTranslate@ioGameEntity@@UAEXABUD3DXVECTOR3@@@Z
	DD	FLAT:?DontMoveCollisionPushingTranslate@ioBaseChar@@UAEXPAVioGameEntity@@ABUD3DXVECTOR3@@@Z
	DD	FLAT:?Rotate@ioGameEntity@@UAEXABUD3DXVECTOR3@@MW4TransformSpace@ioNode@@@Z
	DD	FLAT:?Scale@ioGameEntity@@UAEXMMM@Z
	DD	FLAT:?Scale@ioGameEntity@@UAEXABUD3DXVECTOR3@@@Z
	DD	FLAT:?GetWorldPosition@ioGameEntity@@UBEABUD3DXVECTOR3@@XZ
	DD	FLAT:?GetWorldOrientation@ioGameEntity@@UBEABUD3DXQUATERNION@@XZ
	DD	FLAT:?GetWorldScale@ioGameEntity@@UBEABUD3DXVECTOR3@@XZ
	DD	FLAT:?ApplyWeapon@ioNpcChar@@UAE?AW4ApplyWeaponExp@@PAVioWeapon@@@Z
	DD	FLAT:?IsCollisionAvailableWeapon@ioNpcChar@@UAE_NPAVioWeapon@@@Z
	DD	FLAT:?IsCollisionAvailableRange@ioPlayEntity@@UAE_NPAVioWeapon@@@Z
	DD	FLAT:?IsEntityCollisionSkipState@ioBaseChar@@UBE_NPAVioGameEntity@@@Z
	DD	FLAT:?IsCharCollisionSkipState@ioBaseChar@@UBE_NW4TeamType@@H@Z
	DD	FLAT:?IsWoundedCollision@ioBaseChar@@UBE_NABVioOrientBox@@PAUD3DXVECTOR3@@@Z
	DD	FLAT:?GetAttackCollisionBox@ioPlayEntity@@UAE?AVioOrientBox@@W4AniCollisionType@@_N@Z
	DD	FLAT:?CheckSphereDistance@ioBaseChar@@UBE_NABUD3DXVECTOR3@@MAAM@Z
	DD	FLAT:?CheckSpherePoint@ioBaseChar@@UBE_NABUD3DXVECTOR3@@MAAU2@@Z
	DD	FLAT:?CheckCylinderPoint@ioBaseChar@@UBE_NABVioCylinder@@ABUD3DXVECTOR3@@AAU3@@Z
	DD	FLAT:?GetSubType@ioBaseChar@@UBE?AW4PlaySubType@ioPlayEntity@@XZ
	DD	FLAT:?GetArmorType@ioBaseChar@@UBE?AW4ArmorType@@XZ
	DD	FLAT:?DontMoveEntityLevel@ioNpcBigTower@@UBEHXZ
	DD	FLAT:?NotifyDontMoveCollisionPushingSkip@ioPlayEntity@@UAEXPAVioGameEntity@@@Z
	DD	FLAT:?LoadProperty@ioPlayEntity@@UAEXAAVioINILoader@@@Z
	DD	FLAT:?GetWorldEventReceiver@ioBaseChar@@UAEPAVioWorldEventReceiver@@XZ
	DD	FLAT:?Revival@ioBaseChar@@UAEXXZ
	DD	FLAT:?UpdateGauge@ioBaseChar@@UAEXXZ
	DD	FLAT:?RenderGauge@ioNpcChar@@UAEXXZ
	DD	FLAT:?FillMaxHP@ioBaseChar@@UAEXXZ
	DD	FLAT:?ProcessRecovery@ioBaseChar@@MAEXXZ
	DD	FLAT:?AddHeadDamageInfo@ioPlayEntity@@UAEXH_N@Z
	DD	FLAT:?RenderHeadInfoList@ioPlayEntity@@UAEXHH@Z
	DD	FLAT:?UpdateHeadInfoList@ioPlayEntity@@MAEXK@Z
	DD	FLAT:?SetTeam@ioBaseChar@@UAEXW4TeamType@@@Z
	DD	FLAT:?GetAttackCollisionBox@ioBaseChar@@UAE?AVioOrientBox@@W4AniCollisionType@@_NM@Z
	DD	FLAT:?GetAttackCollisionBoxbyWeapon@ioBaseChar@@UAE?AVioOrientBox@@PAVioAniCollisionBoxGrp@@W4AniCollisionType@@_NM@Z
	DD	FLAT:?GetEntityCenterPos@ioBaseChar@@UBE?AUD3DXVECTOR3@@XZ
	DD	FLAT:?GetControlType@ioNpcChar@@UBE?AW4ControlType@@XZ
	DD	FLAT:?TrackingAutoTarget@ioBaseChar@@MAEXXZ
	DD	FLAT:?CheckDieState@ioNpcChar@@MAEXXZ
	DD	FLAT:?InitUserStat@ioNpcChar@@MAEXXZ
	DD	FLAT:?UpdateStatAttribute@ioNpcChar@@MAEXXZ
	DD	FLAT:?IsNeedProcess@ioNpcChar@@UBE_NXZ
	DD	FLAT:?IsNeedSendNetwork@ioNpcChar@@UBE_NXZ
	DD	FLAT:?IsDropDamage@ioNpcChar@@UAE_NXZ
	DD	FLAT:?IsItemDrop@ioNpcChar@@UAE_NXZ
	DD	FLAT:?GetNoInputDelayTime@ioNpcChar@@UAEKXZ
	DD	FLAT:?GetLimiteDieFlyTime@ioNpcChar@@UAEKXZ
	DD	FLAT:?GetDieActionRate@ioNpcChar@@UAEMXZ
	DD	FLAT:?GetDieDownActionRate@ioNpcChar@@UAEMXZ
	DD	FLAT:?GetAniStartAction@ioNpcChar@@UAEABVioHashString@@AA_N@Z
	DD	FLAT:?GetAniDieAction@ioNpcChar@@UAEABVioHashString@@XZ
	DD	FLAT:?GetAniBackDieAction@ioNpcChar@@UAEABVioHashString@@XZ
	DD	FLAT:?GetAniBlowDieAction@ioNpcChar@@UAEABVioHashString@@XZ
	DD	FLAT:?GetAniBackBlowDieAction@ioNpcChar@@UAEABVioHashString@@XZ
	DD	FLAT:?GetAniDownBlowDieAction@ioNpcChar@@UAEABVioHashString@@XZ
	DD	FLAT:?GetAniBackdownBlowDieAction@ioNpcChar@@UAEABVioHashString@@XZ
	DD	FLAT:?GetAniFalling@ioNpcChar@@UAEAAVioHashString@@XZ
	DD	FLAT:?GetDropDownAction@ioNpcChar@@UAEAAVioHashString@@XZ
	DD	FLAT:?GetAniBlowGetUp@ioNpcChar@@UAEAAVioHashString@@XZ
	DD	FLAT:?GetAniBackBlowGetUp@ioNpcChar@@UAEAAVioHashString@@XZ
	DD	FLAT:?GetStartProtectionTime@ioNpcChar@@UAEKXZ
	DD	FLAT:?GetBlowStateProtectionTime@ioNpcChar@@UAEKXZ
	DD	FLAT:?GetDelayAnimationIdx@ioBaseChar@@UBEHXZ
	DD	FLAT:?GetRunAnimationIdx@ioBaseChar@@UBEHXZ
	DD	FLAT:?GetDashRunAnimationIdx@ioBaseChar@@UBEHXZ
	DD	FLAT:?GetDefenseAnimationIdx@ioBaseChar@@UBEHXZ
	DD	FLAT:?GetWoundedAnimationIdx@ioBaseChar@@UBEHW4AttackSide@@W4BlowTargetType@@@Z
	DD	FLAT:?GetJumpReadyAnimationIdx@ioBaseChar@@UBEHXZ
	DD	FLAT:?GetJumppingAnimationIdx@ioBaseChar@@UBEH_N@Z
	DD	FLAT:?GetJumpEndAnimationIdx@ioBaseChar@@UAEHXZ
	DD	FLAT:?GetWeaponItemAniIdx@ioBaseChar@@UBEHW4AttackType@@H@Z
	DD	FLAT:?GetWeaponItemEndAniIdx@ioBaseChar@@UBEHW4AttackType@@H@Z
	DD	FLAT:?FaceChange@ioBaseChar@@UAEXPBDH@Z
	DD	FLAT:?HeadMeshChange@ioNpcChar@@UAEXPBDH@Z
	DD	FLAT:?CheckHeadMeshChange@ioNpcChar@@UAEXXZ
	DD	FLAT:?StopHeadMeshChange@ioNpcChar@@UAEXXZ
	DD	FLAT:?InitCustomInfo@ioNpcChar@@UAEXAAVioINILoader@@@Z
	DD	FLAT:?Initialize@ioNpcChar@@UAEXPBUITEM_DATA@@@Z
	DD	FLAT:?InitCustomEffect@ioNpcChar@@UAEXAAVioINILoader@@@Z
	DD	FLAT:?GetNpcType@ioNpcBigTower@@UBE?AW4NpcType@@XZ
	DD	FLAT:?ProcessAI@ioNpcChar@@MAEXXZ
	DD	FLAT:?ProcessBalanceCheck@ioNpcChar@@MAEXXZ
	DD	FLAT:?CehckStuckWeaponType@ioNpcChar@@MAE_NHH@Z
	DD	FLAT:?CheckStuckActive@ioNpcChar@@MAE_NH@Z
	DD	FLAT:?ActiveStuck@ioNpcChar@@UAEXXZ
; Function compile flags: /Ogsp
CONST	ENDS
;	COMDAT ??0ioNpcBigTower@@QAE@PAVioEntityGroup@@PAVioPlayStage@@PAVioPlayMode@@@Z
_TEXT	SEGMENT
_pGrp$ = 8						; size = 4
_pCreator$ = 12						; size = 4
_pMode$ = 16						; size = 4
??0ioNpcBigTower@@QAE@PAVioEntityGroup@@PAVioPlayStage@@PAVioPlayMode@@@Z PROC ; ioNpcBigTower::ioNpcBigTower, COMDAT
; _this$ = ecx

; 10   : {

  00000	55		 push	 ebp
  00001	8b ec		 mov	 ebp, esp
  00003	56		 push	 esi
  00004	ff 75 10	 push	 DWORD PTR _pMode$[ebp]
  00007	8b f1		 mov	 esi, ecx
  00009	ff 75 0c	 push	 DWORD PTR _pCreator$[ebp]
  0000c	ff 75 08	 push	 DWORD PTR _pGrp$[ebp]
  0000f	e8 00 00 00 00	 call	 ??0ioNpcChar@@QAE@PAVioEntityGroup@@PAVioPlayStage@@PAVioPlayMode@@@Z ; ioNpcChar::ioNpcChar
  00014	c7 06 00 00 00
	00		 mov	 DWORD PTR [esi], OFFSET ??_7ioNpcBigTower@@6BioPlayEntity@@@
  0001a	c7 86 c8 01 00
	00 00 00 00 00	 mov	 DWORD PTR [esi+456], OFFSET ??_7ioNpcBigTower@@6BioWorldEventReceiver@@@
  00024	c7 86 cc 01 00
	00 00 00 00 00	 mov	 DWORD PTR [esi+460], OFFSET ??_7ioNpcBigTower@@6B@

; 11   : 
; 12   : }

  0002e	8b c6		 mov	 eax, esi
  00030	5e		 pop	 esi
  00031	5d		 pop	 ebp
  00032	c2 0c 00	 ret	 12			; 0000000cH
??0ioNpcBigTower@@QAE@PAVioEntityGroup@@PAVioPlayStage@@PAVioPlayMode@@@Z ENDP ; ioNpcBigTower::ioNpcBigTower
; Function compile flags: /Ogsp
; File d:\lost saga for developer\youtube\tutorial\source\src\lsclient\ionpcchar.h
_TEXT	ENDS
;	COMDAT ?GetControlType@ioNpcChar@@UBE?AW4ControlType@@XZ
_TEXT	SEGMENT
?GetControlType@ioNpcChar@@UBE?AW4ControlType@@XZ PROC	; ioNpcChar::GetControlType, COMDAT
; _this$ = ecx

; 218  : 	virtual ControlType GetControlType() const { return CONTROL_AI; } 

  00000	6a 02		 push	 2
  00002	58		 pop	 eax
  00003	c3		 ret	 0
?GetControlType@ioNpcChar@@UBE?AW4ControlType@@XZ ENDP	; ioNpcChar::GetControlType
; Function compile flags: /Ogsp
_TEXT	ENDS
;	COMDAT ?GetStartProtectionTime@ioNpcChar@@UAEKXZ
_TEXT	SEGMENT
?GetStartProtectionTime@ioNpcChar@@UAEKXZ PROC		; ioNpcChar::GetStartProtectionTime, COMDAT
; _this$ = ecx

; 257  : 	virtual DWORD GetStartProtectionTime(){ return m_dwCustomStartProtectionTime; }

  00000	8b 81 98 47 00
	00		 mov	 eax, DWORD PTR [ecx+18328]
  00006	c3		 ret	 0
?GetStartProtectionTime@ioNpcChar@@UAEKXZ ENDP		; ioNpcChar::GetStartProtectionTime
; Function compile flags: /Ogsp
_TEXT	ENDS
;	COMDAT ?GetBlowStateProtectionTime@ioNpcChar@@UAEKXZ
_TEXT	SEGMENT
?GetBlowStateProtectionTime@ioNpcChar@@UAEKXZ PROC	; ioNpcChar::GetBlowStateProtectionTime, COMDAT
; _this$ = ecx

; 258  : 	virtual DWORD GetBlowStateProtectionTime(){ return m_dwCustomBlowProtectionTime; }

  00000	8b 81 9c 47 00
	00		 mov	 eax, DWORD PTR [ecx+18332]
  00006	c3		 ret	 0
?GetBlowStateProtectionTime@ioNpcChar@@UAEKXZ ENDP	; ioNpcChar::GetBlowStateProtectionTime
_TEXT	ENDS
PUBLIC	??1ioNpcBigTower@@UAE@XZ			; ioNpcBigTower::~ioNpcBigTower
EXTRN	??1ioNpcChar@@UAE@XZ:PROC			; ioNpcChar::~ioNpcChar
; Function compile flags: /Ogsp
; File d:\lost saga for developer\youtube\tutorial\source\src\lsclient\ionpcbigtower.cpp
;	COMDAT ??1ioNpcBigTower@@UAE@XZ
_TEXT	SEGMENT
??1ioNpcBigTower@@UAE@XZ PROC				; ioNpcBigTower::~ioNpcBigTower, COMDAT
; _this$ = ecx

; 15   : {

  00000	c7 01 00 00 00
	00		 mov	 DWORD PTR [ecx], OFFSET ??_7ioNpcBigTower@@6BioPlayEntity@@@
  00006	c7 81 c8 01 00
	00 00 00 00 00	 mov	 DWORD PTR [ecx+456], OFFSET ??_7ioNpcBigTower@@6BioWorldEventReceiver@@@
  00010	c7 81 cc 01 00
	00 00 00 00 00	 mov	 DWORD PTR [ecx+460], OFFSET ??_7ioNpcBigTower@@6B@

; 16   : 
; 17   : }

  0001a	e9 00 00 00 00	 jmp	 ??1ioNpcChar@@UAE@XZ	; ioNpcChar::~ioNpcChar
??1ioNpcBigTower@@UAE@XZ ENDP				; ioNpcBigTower::~ioNpcBigTower
; Function compile flags: /Ogsp
_TEXT	ENDS
;	COMDAT ?GetNpcType@ioNpcBigTower@@UBE?AW4NpcType@@XZ
_TEXT	SEGMENT
?GetNpcType@ioNpcBigTower@@UBE?AW4NpcType@@XZ PROC	; ioNpcBigTower::GetNpcType, COMDAT
; _this$ = ecx

; 21   : 	return NT_BIGTOWER;

  00000	6a 02		 push	 2
  00002	58		 pop	 eax

; 22   : }

  00003	c3		 ret	 0
?GetNpcType@ioNpcBigTower@@UBE?AW4NpcType@@XZ ENDP	; ioNpcBigTower::GetNpcType
; Function compile flags: /Ogsp
_TEXT	ENDS
;	COMDAT ?DontMoveEntityLevel@ioNpcBigTower@@UBEHXZ
_TEXT	SEGMENT
?DontMoveEntityLevel@ioNpcBigTower@@UBEHXZ PROC		; ioNpcBigTower::DontMoveEntityLevel, COMDAT
; _this$ = ecx

; 26   : 	return 5;

  00000	6a 05		 push	 5
  00002	58		 pop	 eax

; 27   : }

  00003	c3		 ret	 0
?DontMoveEntityLevel@ioNpcBigTower@@UBEHXZ ENDP		; ioNpcBigTower::DontMoveEntityLevel
_TEXT	ENDS
PUBLIC	??_7ioNpcTwGuard@@6B@				; ioNpcTwGuard::`vftable'
PUBLIC	??_7ioNpcTwGuard@@6BioWorldEventReceiver@@@	; ioNpcTwGuard::`vftable'
PUBLIC	??_7ioNpcTwGuard@@6BioPlayEntity@@@		; ioNpcTwGuard::`vftable'
PUBLIC	??0ioNpcTwGuard@@QAE@PAVioEntityGroup@@PAVioPlayStage@@PAVioPlayMode@@@Z ; ioNpcTwGuard::ioNpcTwGuard
PUBLIC	??_R4ioNpcTwGuard@@6BioPlayEntity@@@		; ioNpcTwGuard::`RTTI Complete Object Locator'
PUBLIC	??_R0?AVioNpcTwGuard@@@8			; ioNpcTwGuard `RTTI Type Descriptor'
PUBLIC	??_R3ioNpcTwGuard@@8				; ioNpcTwGuard::`RTTI Class Hierarchy Descriptor'
PUBLIC	??_R2ioNpcTwGuard@@8				; ioNpcTwGuard::`RTTI Base Class Array'
PUBLIC	??_R1A@?0A@EA@ioNpcTwGuard@@8			; ioNpcTwGuard::`RTTI Base Class Descriptor at (0,-1,0,64)'
PUBLIC	?DontMoveEntityLevel@ioNpcTwGuard@@UBEHXZ	; ioNpcTwGuard::DontMoveEntityLevel
PUBLIC	?GetNpcType@ioNpcTwGuard@@UBE?AW4NpcType@@XZ	; ioNpcTwGuard::GetNpcType
PUBLIC	??_R4ioNpcTwGuard@@6BioWorldEventReceiver@@@	; ioNpcTwGuard::`RTTI Complete Object Locator'
PUBLIC	??_EioNpcTwGuard@@WBMI@AEPAXI@Z			; [thunk]:ioNpcTwGuard::`vector deleting destructor'
PUBLIC	??_R4ioNpcTwGuard@@6B@				; ioNpcTwGuard::`RTTI Complete Object Locator'
PUBLIC	??_EioNpcTwGuard@@WBMM@AEPAXI@Z			; [thunk]:ioNpcTwGuard::`vector deleting destructor'
EXTRN	??_EioNpcTwGuard@@UAEPAXI@Z:PROC		; ioNpcTwGuard::`vector deleting destructor'
;	COMDAT ??_R4ioNpcTwGuard@@6B@
rdata$r	SEGMENT
??_R4ioNpcTwGuard@@6B@ DD 00H				; ioNpcTwGuard::`RTTI Complete Object Locator'
	DD	01ccH
	DD	00H
	DD	FLAT:??_R0?AVioNpcTwGuard@@@8
	DD	FLAT:??_R3ioNpcTwGuard@@8
rdata$r	ENDS
;	COMDAT ??_R4ioNpcTwGuard@@6BioWorldEventReceiver@@@
rdata$r	SEGMENT
??_R4ioNpcTwGuard@@6BioWorldEventReceiver@@@ DD 00H	; ioNpcTwGuard::`RTTI Complete Object Locator'
	DD	01c8H
	DD	00H
	DD	FLAT:??_R0?AVioNpcTwGuard@@@8
	DD	FLAT:??_R3ioNpcTwGuard@@8
rdata$r	ENDS
;	COMDAT ??_R1A@?0A@EA@ioNpcTwGuard@@8
rdata$r	SEGMENT
??_R1A@?0A@EA@ioNpcTwGuard@@8 DD FLAT:??_R0?AVioNpcTwGuard@@@8 ; ioNpcTwGuard::`RTTI Base Class Descriptor at (0,-1,0,64)'
	DD	09H
	DD	00H
	DD	0ffffffffH
	DD	00H
	DD	040H
	DD	FLAT:??_R3ioNpcTwGuard@@8
rdata$r	ENDS
;	COMDAT ??_R2ioNpcTwGuard@@8
rdata$r	SEGMENT
??_R2ioNpcTwGuard@@8 DD FLAT:??_R1A@?0A@EA@ioNpcTwGuard@@8 ; ioNpcTwGuard::`RTTI Base Class Array'
	DD	FLAT:??_R1A@?0A@EA@ioNpcBigTower@@8
	DD	FLAT:??_R1A@?0A@EA@ioNpcChar@@8
	DD	FLAT:??_R1A@?0A@EA@ioBaseChar@@8
	DD	FLAT:??_R1A@?0A@EA@ioBaseCharParent@@8
	DD	FLAT:??_R1A@?0A@EA@ioPlayEntity@@8
	DD	FLAT:??_R1A@?0A@EA@ioGameEntity@@8
	DD	FLAT:??_R1A@?0A@EA@ioEntityEvent@@8
	DD	FLAT:??_R1BMI@?0A@EA@ioWorldEventReceiver@@8
	DD	FLAT:??_R1BMM@?0A@EA@ioBaseGUISupport@@8
rdata$r	ENDS
;	COMDAT ??_R3ioNpcTwGuard@@8
rdata$r	SEGMENT
??_R3ioNpcTwGuard@@8 DD 00H				; ioNpcTwGuard::`RTTI Class Hierarchy Descriptor'
	DD	01H
	DD	0aH
	DD	FLAT:??_R2ioNpcTwGuard@@8
rdata$r	ENDS
;	COMDAT ??_R0?AVioNpcTwGuard@@@8
_DATA	SEGMENT
??_R0?AVioNpcTwGuard@@@8 DD FLAT:??_7type_info@@6B@	; ioNpcTwGuard `RTTI Type Descriptor'
	DD	00H
	DB	'.?AVioNpcTwGuard@@', 00H
_DATA	ENDS
;	COMDAT ??_R4ioNpcTwGuard@@6BioPlayEntity@@@
rdata$r	SEGMENT
??_R4ioNpcTwGuard@@6BioPlayEntity@@@ DD 00H		; ioNpcTwGuard::`RTTI Complete Object Locator'
	DD	00H
	DD	00H
	DD	FLAT:??_R0?AVioNpcTwGuard@@@8
	DD	FLAT:??_R3ioNpcTwGuard@@8
rdata$r	ENDS
;	COMDAT ??_7ioNpcTwGuard@@6B@
CONST	SEGMENT
??_7ioNpcTwGuard@@6B@ DD FLAT:??_R4ioNpcTwGuard@@6B@	; ioNpcTwGuard::`vftable'
	DD	FLAT:?CreateMagicCircle@ioBaseGUISupport@@UAEXABVioHashString@@00UD3DXVECTOR3@@M@Z
	DD	FLAT:?CreateMagicCircle@ioNpcChar@@UAEXABVioHashString@@00M@Z
	DD	FLAT:?CreateMagicCircleForBlock@ioBaseGUISupport@@UAEXABVioHashString@@00M@Z
	DD	FLAT:??_EioNpcTwGuard@@WBMM@AEPAXI@Z
CONST	ENDS
;	COMDAT ??_7ioNpcTwGuard@@6BioWorldEventReceiver@@@
CONST	SEGMENT
??_7ioNpcTwGuard@@6BioWorldEventReceiver@@@ DD FLAT:??_R4ioNpcTwGuard@@6BioWorldEventReceiver@@@ ; ioNpcTwGuard::`vftable'
	DD	FLAT:?OnTelepotation@ioBaseChar@@UAEXABUD3DXVECTOR3@@@Z
	DD	FLAT:?OnFireZoneDamage@ioBaseChar@@UAEXMABVioHashString@@@Z
	DD	FLAT:?OnPoisonZoneDamage@ioBaseChar@@UAEXXZ
	DD	FLAT:??_EioNpcTwGuard@@WBMI@AEPAXI@Z
CONST	ENDS
;	COMDAT ??_7ioNpcTwGuard@@6BioPlayEntity@@@
CONST	SEGMENT
??_7ioNpcTwGuard@@6BioPlayEntity@@@ DD FLAT:??_R4ioNpcTwGuard@@6BioPlayEntity@@@ ; ioNpcTwGuard::`vftable'
	DD	FLAT:?AddEntityEvent@ioBaseChar@@UAEXPAVioEntity@@@Z
	DD	FLAT:??_EioNpcTwGuard@@UAEPAXI@Z
	DD	FLAT:?Update@ioNpcChar@@UAEXMKK@Z
	DD	FLAT:?UpdateAfter@ioBaseChar@@UAEXM@Z
	DD	FLAT:?GetTypeID@ioPlayEntity@@UBEHXZ
	DD	FLAT:?IsNeedCheckMapCollision@ioBaseChar@@UBE_NXZ
	DD	FLAT:?IsMountAvailable@ioGameEntity@@UBE_NXZ
	DD	FLAT:?IsMountingAvailable@ioGameEntity@@UBE_NXZ
	DD	FLAT:?IsNowMountEnable@ioGameEntity@@UBE_NXZ
	DD	FLAT:?IsAllWeaponDefence@ioGameEntity@@UBE_NXZ
	DD	FLAT:?HasEntity@ioGameEntity@@UAE_NABVioHashString@@@Z
	DD	FLAT:?AddEntity@ioGameEntity@@UAEPAVioEntity@@ABVioHashString@@@Z
	DD	FLAT:?DestroyEntity@ioGameEntity@@UAE_NABVioHashString@@@Z
	DD	FLAT:?GetEntity@ioGameEntity@@UAEPAVioEntity@@ABVioHashString@@@Z
	DD	FLAT:?UpdateBound@ioBaseChar@@MBEXXZ
	DD	FLAT:?UpdateBottomHeight@ioBaseChar@@MBEXXZ
	DD	FLAT:?NeedUpdateBottomHeight@ioGameEntity@@UAEXXZ
	DD	FLAT:?SetWorldPosition@ioGameEntity@@UAEXABUD3DXVECTOR3@@@Z
	DD	FLAT:?SetWorldOrientation@ioGameEntity@@UAEXABUD3DXQUATERNION@@@Z
	DD	FLAT:?SetWorldScale@ioGameEntity@@UAEXABUD3DXVECTOR3@@@Z
	DD	FLAT:?Translate@ioGameEntity@@UAEXABUD3DXVECTOR3@@@Z
	DD	FLAT:?TranslateByConveyer@ioGameEntity@@UAEXABUD3DXVECTOR3@@@Z
	DD	FLAT:?TranslateByWorldEntity@ioGameEntity@@UAEXABUD3DXVECTOR3@@@Z
	DD	FLAT:?MapCollisionPushingTranslate@ioGameEntity@@UAEXABUD3DXVECTOR3@@@Z
	DD	FLAT:?DontMoveCollisionPushingTranslate@ioBaseChar@@UAEXPAVioGameEntity@@ABUD3DXVECTOR3@@@Z
	DD	FLAT:?Rotate@ioGameEntity@@UAEXABUD3DXVECTOR3@@MW4TransformSpace@ioNode@@@Z
	DD	FLAT:?Scale@ioGameEntity@@UAEXMMM@Z
	DD	FLAT:?Scale@ioGameEntity@@UAEXABUD3DXVECTOR3@@@Z
	DD	FLAT:?GetWorldPosition@ioGameEntity@@UBEABUD3DXVECTOR3@@XZ
	DD	FLAT:?GetWorldOrientation@ioGameEntity@@UBEABUD3DXQUATERNION@@XZ
	DD	FLAT:?GetWorldScale@ioGameEntity@@UBEABUD3DXVECTOR3@@XZ
	DD	FLAT:?ApplyWeapon@ioNpcChar@@UAE?AW4ApplyWeaponExp@@PAVioWeapon@@@Z
	DD	FLAT:?IsCollisionAvailableWeapon@ioNpcChar@@UAE_NPAVioWeapon@@@Z
	DD	FLAT:?IsCollisionAvailableRange@ioPlayEntity@@UAE_NPAVioWeapon@@@Z
	DD	FLAT:?IsEntityCollisionSkipState@ioBaseChar@@UBE_NPAVioGameEntity@@@Z
	DD	FLAT:?IsCharCollisionSkipState@ioBaseChar@@UBE_NW4TeamType@@H@Z
	DD	FLAT:?IsWoundedCollision@ioBaseChar@@UBE_NABVioOrientBox@@PAUD3DXVECTOR3@@@Z
	DD	FLAT:?GetAttackCollisionBox@ioPlayEntity@@UAE?AVioOrientBox@@W4AniCollisionType@@_N@Z
	DD	FLAT:?CheckSphereDistance@ioBaseChar@@UBE_NABUD3DXVECTOR3@@MAAM@Z
	DD	FLAT:?CheckSpherePoint@ioBaseChar@@UBE_NABUD3DXVECTOR3@@MAAU2@@Z
	DD	FLAT:?CheckCylinderPoint@ioBaseChar@@UBE_NABVioCylinder@@ABUD3DXVECTOR3@@AAU3@@Z
	DD	FLAT:?GetSubType@ioBaseChar@@UBE?AW4PlaySubType@ioPlayEntity@@XZ
	DD	FLAT:?GetArmorType@ioBaseChar@@UBE?AW4ArmorType@@XZ
	DD	FLAT:?DontMoveEntityLevel@ioNpcTwGuard@@UBEHXZ
	DD	FLAT:?NotifyDontMoveCollisionPushingSkip@ioPlayEntity@@UAEXPAVioGameEntity@@@Z
	DD	FLAT:?LoadProperty@ioPlayEntity@@UAEXAAVioINILoader@@@Z
	DD	FLAT:?GetWorldEventReceiver@ioBaseChar@@UAEPAVioWorldEventReceiver@@XZ
	DD	FLAT:?Revival@ioBaseChar@@UAEXXZ
	DD	FLAT:?UpdateGauge@ioBaseChar@@UAEXXZ
	DD	FLAT:?RenderGauge@ioNpcChar@@UAEXXZ
	DD	FLAT:?FillMaxHP@ioBaseChar@@UAEXXZ
	DD	FLAT:?ProcessRecovery@ioBaseChar@@MAEXXZ
	DD	FLAT:?AddHeadDamageInfo@ioPlayEntity@@UAEXH_N@Z
	DD	FLAT:?RenderHeadInfoList@ioPlayEntity@@UAEXHH@Z
	DD	FLAT:?UpdateHeadInfoList@ioPlayEntity@@MAEXK@Z
	DD	FLAT:?SetTeam@ioBaseChar@@UAEXW4TeamType@@@Z
	DD	FLAT:?GetAttackCollisionBox@ioBaseChar@@UAE?AVioOrientBox@@W4AniCollisionType@@_NM@Z
	DD	FLAT:?GetAttackCollisionBoxbyWeapon@ioBaseChar@@UAE?AVioOrientBox@@PAVioAniCollisionBoxGrp@@W4AniCollisionType@@_NM@Z
	DD	FLAT:?GetEntityCenterPos@ioBaseChar@@UBE?AUD3DXVECTOR3@@XZ
	DD	FLAT:?GetControlType@ioNpcChar@@UBE?AW4ControlType@@XZ
	DD	FLAT:?TrackingAutoTarget@ioBaseChar@@MAEXXZ
	DD	FLAT:?CheckDieState@ioNpcChar@@MAEXXZ
	DD	FLAT:?InitUserStat@ioNpcChar@@MAEXXZ
	DD	FLAT:?UpdateStatAttribute@ioNpcChar@@MAEXXZ
	DD	FLAT:?IsNeedProcess@ioNpcChar@@UBE_NXZ
	DD	FLAT:?IsNeedSendNetwork@ioNpcChar@@UBE_NXZ
	DD	FLAT:?IsDropDamage@ioNpcChar@@UAE_NXZ
	DD	FLAT:?IsItemDrop@ioNpcChar@@UAE_NXZ
	DD	FLAT:?GetNoInputDelayTime@ioNpcChar@@UAEKXZ
	DD	FLAT:?GetLimiteDieFlyTime@ioNpcChar@@UAEKXZ
	DD	FLAT:?GetDieActionRate@ioNpcChar@@UAEMXZ
	DD	FLAT:?GetDieDownActionRate@ioNpcChar@@UAEMXZ
	DD	FLAT:?GetAniStartAction@ioNpcChar@@UAEABVioHashString@@AA_N@Z
	DD	FLAT:?GetAniDieAction@ioNpcChar@@UAEABVioHashString@@XZ
	DD	FLAT:?GetAniBackDieAction@ioNpcChar@@UAEABVioHashString@@XZ
	DD	FLAT:?GetAniBlowDieAction@ioNpcChar@@UAEABVioHashString@@XZ
	DD	FLAT:?GetAniBackBlowDieAction@ioNpcChar@@UAEABVioHashString@@XZ
	DD	FLAT:?GetAniDownBlowDieAction@ioNpcChar@@UAEABVioHashString@@XZ
	DD	FLAT:?GetAniBackdownBlowDieAction@ioNpcChar@@UAEABVioHashString@@XZ
	DD	FLAT:?GetAniFalling@ioNpcChar@@UAEAAVioHashString@@XZ
	DD	FLAT:?GetDropDownAction@ioNpcChar@@UAEAAVioHashString@@XZ
	DD	FLAT:?GetAniBlowGetUp@ioNpcChar@@UAEAAVioHashString@@XZ
	DD	FLAT:?GetAniBackBlowGetUp@ioNpcChar@@UAEAAVioHashString@@XZ
	DD	FLAT:?GetStartProtectionTime@ioNpcChar@@UAEKXZ
	DD	FLAT:?GetBlowStateProtectionTime@ioNpcChar@@UAEKXZ
	DD	FLAT:?GetDelayAnimationIdx@ioBaseChar@@UBEHXZ
	DD	FLAT:?GetRunAnimationIdx@ioBaseChar@@UBEHXZ
	DD	FLAT:?GetDashRunAnimationIdx@ioBaseChar@@UBEHXZ
	DD	FLAT:?GetDefenseAnimationIdx@ioBaseChar@@UBEHXZ
	DD	FLAT:?GetWoundedAnimationIdx@ioBaseChar@@UBEHW4AttackSide@@W4BlowTargetType@@@Z
	DD	FLAT:?GetJumpReadyAnimationIdx@ioBaseChar@@UBEHXZ
	DD	FLAT:?GetJumppingAnimationIdx@ioBaseChar@@UBEH_N@Z
	DD	FLAT:?GetJumpEndAnimationIdx@ioBaseChar@@UAEHXZ
	DD	FLAT:?GetWeaponItemAniIdx@ioBaseChar@@UBEHW4AttackType@@H@Z
	DD	FLAT:?GetWeaponItemEndAniIdx@ioBaseChar@@UBEHW4AttackType@@H@Z
	DD	FLAT:?FaceChange@ioBaseChar@@UAEXPBDH@Z
	DD	FLAT:?HeadMeshChange@ioNpcChar@@UAEXPBDH@Z
	DD	FLAT:?CheckHeadMeshChange@ioNpcChar@@UAEXXZ
	DD	FLAT:?StopHeadMeshChange@ioNpcChar@@UAEXXZ
	DD	FLAT:?InitCustomInfo@ioNpcChar@@UAEXAAVioINILoader@@@Z
	DD	FLAT:?Initialize@ioNpcChar@@UAEXPBUITEM_DATA@@@Z
	DD	FLAT:?InitCustomEffect@ioNpcChar@@UAEXAAVioINILoader@@@Z
	DD	FLAT:?GetNpcType@ioNpcTwGuard@@UBE?AW4NpcType@@XZ
	DD	FLAT:?ProcessAI@ioNpcChar@@MAEXXZ
	DD	FLAT:?ProcessBalanceCheck@ioNpcChar@@MAEXXZ
	DD	FLAT:?CehckStuckWeaponType@ioNpcChar@@MAE_NHH@Z
	DD	FLAT:?CheckStuckActive@ioNpcChar@@MAE_NH@Z
	DD	FLAT:?ActiveStuck@ioNpcChar@@UAEXXZ
; Function compile flags: /Ogsp
CONST	ENDS
;	COMDAT ??0ioNpcTwGuard@@QAE@PAVioEntityGroup@@PAVioPlayStage@@PAVioPlayMode@@@Z
_TEXT	SEGMENT
_pGrp$ = 8						; size = 4
_pCreator$ = 12						; size = 4
_pMode$ = 16						; size = 4
??0ioNpcTwGuard@@QAE@PAVioEntityGroup@@PAVioPlayStage@@PAVioPlayMode@@@Z PROC ; ioNpcTwGuard::ioNpcTwGuard, COMDAT
; _this$ = ecx

; 37   : {

  00000	55		 push	 ebp
  00001	8b ec		 mov	 ebp, esp
  00003	56		 push	 esi
  00004	ff 75 10	 push	 DWORD PTR _pMode$[ebp]
  00007	8b f1		 mov	 esi, ecx
  00009	ff 75 0c	 push	 DWORD PTR _pCreator$[ebp]
  0000c	ff 75 08	 push	 DWORD PTR _pGrp$[ebp]
  0000f	e8 00 00 00 00	 call	 ??0ioNpcBigTower@@QAE@PAVioEntityGroup@@PAVioPlayStage@@PAVioPlayMode@@@Z ; ioNpcBigTower::ioNpcBigTower
  00014	c7 06 00 00 00
	00		 mov	 DWORD PTR [esi], OFFSET ??_7ioNpcTwGuard@@6BioPlayEntity@@@
  0001a	c7 86 c8 01 00
	00 00 00 00 00	 mov	 DWORD PTR [esi+456], OFFSET ??_7ioNpcTwGuard@@6BioWorldEventReceiver@@@
  00024	c7 86 cc 01 00
	00 00 00 00 00	 mov	 DWORD PTR [esi+460], OFFSET ??_7ioNpcTwGuard@@6B@

; 38   : 
; 39   : }

  0002e	8b c6		 mov	 eax, esi
  00030	5e		 pop	 esi
  00031	5d		 pop	 ebp
  00032	c2 0c 00	 ret	 12			; 0000000cH
??0ioNpcTwGuard@@QAE@PAVioEntityGroup@@PAVioPlayStage@@PAVioPlayMode@@@Z ENDP ; ioNpcTwGuard::ioNpcTwGuard
_TEXT	ENDS
PUBLIC	??1ioNpcTwGuard@@UAE@XZ				; ioNpcTwGuard::~ioNpcTwGuard
; Function compile flags: /Ogsp
;	COMDAT ??1ioNpcTwGuard@@UAE@XZ
_TEXT	SEGMENT
??1ioNpcTwGuard@@UAE@XZ PROC				; ioNpcTwGuard::~ioNpcTwGuard, COMDAT
; _this$ = ecx

; 42   : {

  00000	c7 01 00 00 00
	00		 mov	 DWORD PTR [ecx], OFFSET ??_7ioNpcTwGuard@@6BioPlayEntity@@@
  00006	c7 81 c8 01 00
	00 00 00 00 00	 mov	 DWORD PTR [ecx+456], OFFSET ??_7ioNpcTwGuard@@6BioWorldEventReceiver@@@
  00010	c7 81 cc 01 00
	00 00 00 00 00	 mov	 DWORD PTR [ecx+460], OFFSET ??_7ioNpcTwGuard@@6B@

; 43   : 
; 44   : }

  0001a	e9 00 00 00 00	 jmp	 ??1ioNpcBigTower@@UAE@XZ ; ioNpcBigTower::~ioNpcBigTower
??1ioNpcTwGuard@@UAE@XZ ENDP				; ioNpcTwGuard::~ioNpcTwGuard
; Function compile flags: /Ogsp
_TEXT	ENDS
;	COMDAT ?GetNpcType@ioNpcTwGuard@@UBE?AW4NpcType@@XZ
_TEXT	SEGMENT
?GetNpcType@ioNpcTwGuard@@UBE?AW4NpcType@@XZ PROC	; ioNpcTwGuard::GetNpcType, COMDAT
; _this$ = ecx

; 48   : 	return NT_TOWERGUARD;

  00000	6a 03		 push	 3
  00002	58		 pop	 eax

; 49   : }

  00003	c3		 ret	 0
?GetNpcType@ioNpcTwGuard@@UBE?AW4NpcType@@XZ ENDP	; ioNpcTwGuard::GetNpcType
; Function compile flags: /Ogsp
_TEXT	ENDS
;	COMDAT ?DontMoveEntityLevel@ioNpcTwGuard@@UBEHXZ
_TEXT	SEGMENT
?DontMoveEntityLevel@ioNpcTwGuard@@UBEHXZ PROC		; ioNpcTwGuard::DontMoveEntityLevel, COMDAT
; _this$ = ecx

; 53   : 	return 5;

  00000	6a 05		 push	 5
  00002	58		 pop	 eax

; 54   : }

  00003	c3		 ret	 0
?DontMoveEntityLevel@ioNpcTwGuard@@UBEHXZ ENDP		; ioNpcTwGuard::DontMoveEntityLevel
_TEXT	ENDS
PUBLIC	??_7ioNpcLair@@6B@				; ioNpcLair::`vftable'
PUBLIC	??_7ioNpcLair@@6BioWorldEventReceiver@@@	; ioNpcLair::`vftable'
PUBLIC	??_7ioNpcLair@@6BioPlayEntity@@@		; ioNpcLair::`vftable'
PUBLIC	??0ioNpcLair@@QAE@PAVioEntityGroup@@PAVioPlayStage@@PAVioPlayMode@@@Z ; ioNpcLair::ioNpcLair
PUBLIC	??_R4ioNpcLair@@6BioPlayEntity@@@		; ioNpcLair::`RTTI Complete Object Locator'
PUBLIC	??_R0?AVioNpcLair@@@8				; ioNpcLair `RTTI Type Descriptor'
PUBLIC	??_R3ioNpcLair@@8				; ioNpcLair::`RTTI Class Hierarchy Descriptor'
PUBLIC	??_R2ioNpcLair@@8				; ioNpcLair::`RTTI Base Class Array'
PUBLIC	??_R1A@?0A@EA@ioNpcLair@@8			; ioNpcLair::`RTTI Base Class Descriptor at (0,-1,0,64)'
PUBLIC	?DontMoveEntityLevel@ioNpcLair@@UBEHXZ		; ioNpcLair::DontMoveEntityLevel
PUBLIC	?GetNpcType@ioNpcLair@@UBE?AW4NpcType@@XZ	; ioNpcLair::GetNpcType
PUBLIC	??_R4ioNpcLair@@6BioWorldEventReceiver@@@	; ioNpcLair::`RTTI Complete Object Locator'
PUBLIC	??_EioNpcLair@@WBMI@AEPAXI@Z			; [thunk]:ioNpcLair::`vector deleting destructor'
PUBLIC	??_R4ioNpcLair@@6B@				; ioNpcLair::`RTTI Complete Object Locator'
PUBLIC	??_EioNpcLair@@WBMM@AEPAXI@Z			; [thunk]:ioNpcLair::`vector deleting destructor'
EXTRN	??_EioNpcLair@@UAEPAXI@Z:PROC			; ioNpcLair::`vector deleting destructor'
;	COMDAT ??_R4ioNpcLair@@6B@
rdata$r	SEGMENT
??_R4ioNpcLair@@6B@ DD 00H				; ioNpcLair::`RTTI Complete Object Locator'
	DD	01ccH
	DD	00H
	DD	FLAT:??_R0?AVioNpcLair@@@8
	DD	FLAT:??_R3ioNpcLair@@8
rdata$r	ENDS
;	COMDAT ??_R4ioNpcLair@@6BioWorldEventReceiver@@@
rdata$r	SEGMENT
??_R4ioNpcLair@@6BioWorldEventReceiver@@@ DD 00H	; ioNpcLair::`RTTI Complete Object Locator'
	DD	01c8H
	DD	00H
	DD	FLAT:??_R0?AVioNpcLair@@@8
	DD	FLAT:??_R3ioNpcLair@@8
rdata$r	ENDS
;	COMDAT ??_R1A@?0A@EA@ioNpcLair@@8
rdata$r	SEGMENT
??_R1A@?0A@EA@ioNpcLair@@8 DD FLAT:??_R0?AVioNpcLair@@@8 ; ioNpcLair::`RTTI Base Class Descriptor at (0,-1,0,64)'
	DD	09H
	DD	00H
	DD	0ffffffffH
	DD	00H
	DD	040H
	DD	FLAT:??_R3ioNpcLair@@8
rdata$r	ENDS
;	COMDAT ??_R2ioNpcLair@@8
rdata$r	SEGMENT
??_R2ioNpcLair@@8 DD FLAT:??_R1A@?0A@EA@ioNpcLair@@8	; ioNpcLair::`RTTI Base Class Array'
	DD	FLAT:??_R1A@?0A@EA@ioNpcBigTower@@8
	DD	FLAT:??_R1A@?0A@EA@ioNpcChar@@8
	DD	FLAT:??_R1A@?0A@EA@ioBaseChar@@8
	DD	FLAT:??_R1A@?0A@EA@ioBaseCharParent@@8
	DD	FLAT:??_R1A@?0A@EA@ioPlayEntity@@8
	DD	FLAT:??_R1A@?0A@EA@ioGameEntity@@8
	DD	FLAT:??_R1A@?0A@EA@ioEntityEvent@@8
	DD	FLAT:??_R1BMI@?0A@EA@ioWorldEventReceiver@@8
	DD	FLAT:??_R1BMM@?0A@EA@ioBaseGUISupport@@8
rdata$r	ENDS
;	COMDAT ??_R3ioNpcLair@@8
rdata$r	SEGMENT
??_R3ioNpcLair@@8 DD 00H				; ioNpcLair::`RTTI Class Hierarchy Descriptor'
	DD	01H
	DD	0aH
	DD	FLAT:??_R2ioNpcLair@@8
rdata$r	ENDS
;	COMDAT ??_R0?AVioNpcLair@@@8
_DATA	SEGMENT
??_R0?AVioNpcLair@@@8 DD FLAT:??_7type_info@@6B@	; ioNpcLair `RTTI Type Descriptor'
	DD	00H
	DB	'.?AVioNpcLair@@', 00H
_DATA	ENDS
;	COMDAT ??_R4ioNpcLair@@6BioPlayEntity@@@
rdata$r	SEGMENT
??_R4ioNpcLair@@6BioPlayEntity@@@ DD 00H		; ioNpcLair::`RTTI Complete Object Locator'
	DD	00H
	DD	00H
	DD	FLAT:??_R0?AVioNpcLair@@@8
	DD	FLAT:??_R3ioNpcLair@@8
rdata$r	ENDS
;	COMDAT ??_7ioNpcLair@@6B@
CONST	SEGMENT
??_7ioNpcLair@@6B@ DD FLAT:??_R4ioNpcLair@@6B@		; ioNpcLair::`vftable'
	DD	FLAT:?CreateMagicCircle@ioBaseGUISupport@@UAEXABVioHashString@@00UD3DXVECTOR3@@M@Z
	DD	FLAT:?CreateMagicCircle@ioNpcChar@@UAEXABVioHashString@@00M@Z
	DD	FLAT:?CreateMagicCircleForBlock@ioBaseGUISupport@@UAEXABVioHashString@@00M@Z
	DD	FLAT:??_EioNpcLair@@WBMM@AEPAXI@Z
CONST	ENDS
;	COMDAT ??_7ioNpcLair@@6BioWorldEventReceiver@@@
CONST	SEGMENT
??_7ioNpcLair@@6BioWorldEventReceiver@@@ DD FLAT:??_R4ioNpcLair@@6BioWorldEventReceiver@@@ ; ioNpcLair::`vftable'
	DD	FLAT:?OnTelepotation@ioBaseChar@@UAEXABUD3DXVECTOR3@@@Z
	DD	FLAT:?OnFireZoneDamage@ioBaseChar@@UAEXMABVioHashString@@@Z
	DD	FLAT:?OnPoisonZoneDamage@ioBaseChar@@UAEXXZ
	DD	FLAT:??_EioNpcLair@@WBMI@AEPAXI@Z
CONST	ENDS
;	COMDAT ??_7ioNpcLair@@6BioPlayEntity@@@
CONST	SEGMENT
??_7ioNpcLair@@6BioPlayEntity@@@ DD FLAT:??_R4ioNpcLair@@6BioPlayEntity@@@ ; ioNpcLair::`vftable'
	DD	FLAT:?AddEntityEvent@ioBaseChar@@UAEXPAVioEntity@@@Z
	DD	FLAT:??_EioNpcLair@@UAEPAXI@Z
	DD	FLAT:?Update@ioNpcChar@@UAEXMKK@Z
	DD	FLAT:?UpdateAfter@ioBaseChar@@UAEXM@Z
	DD	FLAT:?GetTypeID@ioPlayEntity@@UBEHXZ
	DD	FLAT:?IsNeedCheckMapCollision@ioBaseChar@@UBE_NXZ
	DD	FLAT:?IsMountAvailable@ioGameEntity@@UBE_NXZ
	DD	FLAT:?IsMountingAvailable@ioGameEntity@@UBE_NXZ
	DD	FLAT:?IsNowMountEnable@ioGameEntity@@UBE_NXZ
	DD	FLAT:?IsAllWeaponDefence@ioGameEntity@@UBE_NXZ
	DD	FLAT:?HasEntity@ioGameEntity@@UAE_NABVioHashString@@@Z
	DD	FLAT:?AddEntity@ioGameEntity@@UAEPAVioEntity@@ABVioHashString@@@Z
	DD	FLAT:?DestroyEntity@ioGameEntity@@UAE_NABVioHashString@@@Z
	DD	FLAT:?GetEntity@ioGameEntity@@UAEPAVioEntity@@ABVioHashString@@@Z
	DD	FLAT:?UpdateBound@ioBaseChar@@MBEXXZ
	DD	FLAT:?UpdateBottomHeight@ioBaseChar@@MBEXXZ
	DD	FLAT:?NeedUpdateBottomHeight@ioGameEntity@@UAEXXZ
	DD	FLAT:?SetWorldPosition@ioGameEntity@@UAEXABUD3DXVECTOR3@@@Z
	DD	FLAT:?SetWorldOrientation@ioGameEntity@@UAEXABUD3DXQUATERNION@@@Z
	DD	FLAT:?SetWorldScale@ioGameEntity@@UAEXABUD3DXVECTOR3@@@Z
	DD	FLAT:?Translate@ioGameEntity@@UAEXABUD3DXVECTOR3@@@Z
	DD	FLAT:?TranslateByConveyer@ioGameEntity@@UAEXABUD3DXVECTOR3@@@Z
	DD	FLAT:?TranslateByWorldEntity@ioGameEntity@@UAEXABUD3DXVECTOR3@@@Z
	DD	FLAT:?MapCollisionPushingTranslate@ioGameEntity@@UAEXABUD3DXVECTOR3@@@Z
	DD	FLAT:?DontMoveCollisionPushingTranslate@ioBaseChar@@UAEXPAVioGameEntity@@ABUD3DXVECTOR3@@@Z
	DD	FLAT:?Rotate@ioGameEntity@@UAEXABUD3DXVECTOR3@@MW4TransformSpace@ioNode@@@Z
	DD	FLAT:?Scale@ioGameEntity@@UAEXMMM@Z
	DD	FLAT:?Scale@ioGameEntity@@UAEXABUD3DXVECTOR3@@@Z
	DD	FLAT:?GetWorldPosition@ioGameEntity@@UBEABUD3DXVECTOR3@@XZ
	DD	FLAT:?GetWorldOrientation@ioGameEntity@@UBEABUD3DXQUATERNION@@XZ
	DD	FLAT:?GetWorldScale@ioGameEntity@@UBEABUD3DXVECTOR3@@XZ
	DD	FLAT:?ApplyWeapon@ioNpcChar@@UAE?AW4ApplyWeaponExp@@PAVioWeapon@@@Z
	DD	FLAT:?IsCollisionAvailableWeapon@ioNpcChar@@UAE_NPAVioWeapon@@@Z
	DD	FLAT:?IsCollisionAvailableRange@ioPlayEntity@@UAE_NPAVioWeapon@@@Z
	DD	FLAT:?IsEntityCollisionSkipState@ioBaseChar@@UBE_NPAVioGameEntity@@@Z
	DD	FLAT:?IsCharCollisionSkipState@ioBaseChar@@UBE_NW4TeamType@@H@Z
	DD	FLAT:?IsWoundedCollision@ioBaseChar@@UBE_NABVioOrientBox@@PAUD3DXVECTOR3@@@Z
	DD	FLAT:?GetAttackCollisionBox@ioPlayEntity@@UAE?AVioOrientBox@@W4AniCollisionType@@_N@Z
	DD	FLAT:?CheckSphereDistance@ioBaseChar@@UBE_NABUD3DXVECTOR3@@MAAM@Z
	DD	FLAT:?CheckSpherePoint@ioBaseChar@@UBE_NABUD3DXVECTOR3@@MAAU2@@Z
	DD	FLAT:?CheckCylinderPoint@ioBaseChar@@UBE_NABVioCylinder@@ABUD3DXVECTOR3@@AAU3@@Z
	DD	FLAT:?GetSubType@ioBaseChar@@UBE?AW4PlaySubType@ioPlayEntity@@XZ
	DD	FLAT:?GetArmorType@ioBaseChar@@UBE?AW4ArmorType@@XZ
	DD	FLAT:?DontMoveEntityLevel@ioNpcLair@@UBEHXZ
	DD	FLAT:?NotifyDontMoveCollisionPushingSkip@ioPlayEntity@@UAEXPAVioGameEntity@@@Z
	DD	FLAT:?LoadProperty@ioPlayEntity@@UAEXAAVioINILoader@@@Z
	DD	FLAT:?GetWorldEventReceiver@ioBaseChar@@UAEPAVioWorldEventReceiver@@XZ
	DD	FLAT:?Revival@ioBaseChar@@UAEXXZ
	DD	FLAT:?UpdateGauge@ioBaseChar@@UAEXXZ
	DD	FLAT:?RenderGauge@ioNpcChar@@UAEXXZ
	DD	FLAT:?FillMaxHP@ioBaseChar@@UAEXXZ
	DD	FLAT:?ProcessRecovery@ioBaseChar@@MAEXXZ
	DD	FLAT:?AddHeadDamageInfo@ioPlayEntity@@UAEXH_N@Z
	DD	FLAT:?RenderHeadInfoList@ioPlayEntity@@UAEXHH@Z
	DD	FLAT:?UpdateHeadInfoList@ioPlayEntity@@MAEXK@Z
	DD	FLAT:?SetTeam@ioBaseChar@@UAEXW4TeamType@@@Z
	DD	FLAT:?GetAttackCollisionBox@ioBaseChar@@UAE?AVioOrientBox@@W4AniCollisionType@@_NM@Z
	DD	FLAT:?GetAttackCollisionBoxbyWeapon@ioBaseChar@@UAE?AVioOrientBox@@PAVioAniCollisionBoxGrp@@W4AniCollisionType@@_NM@Z
	DD	FLAT:?GetEntityCenterPos@ioBaseChar@@UBE?AUD3DXVECTOR3@@XZ
	DD	FLAT:?GetControlType@ioNpcChar@@UBE?AW4ControlType@@XZ
	DD	FLAT:?TrackingAutoTarget@ioBaseChar@@MAEXXZ
	DD	FLAT:?CheckDieState@ioNpcChar@@MAEXXZ
	DD	FLAT:?InitUserStat@ioNpcChar@@MAEXXZ
	DD	FLAT:?UpdateStatAttribute@ioNpcChar@@MAEXXZ
	DD	FLAT:?IsNeedProcess@ioNpcChar@@UBE_NXZ
	DD	FLAT:?IsNeedSendNetwork@ioNpcChar@@UBE_NXZ
	DD	FLAT:?IsDropDamage@ioNpcChar@@UAE_NXZ
	DD	FLAT:?IsItemDrop@ioNpcChar@@UAE_NXZ
	DD	FLAT:?GetNoInputDelayTime@ioNpcChar@@UAEKXZ
	DD	FLAT:?GetLimiteDieFlyTime@ioNpcChar@@UAEKXZ
	DD	FLAT:?GetDieActionRate@ioNpcChar@@UAEMXZ
	DD	FLAT:?GetDieDownActionRate@ioNpcChar@@UAEMXZ
	DD	FLAT:?GetAniStartAction@ioNpcChar@@UAEABVioHashString@@AA_N@Z
	DD	FLAT:?GetAniDieAction@ioNpcChar@@UAEABVioHashString@@XZ
	DD	FLAT:?GetAniBackDieAction@ioNpcChar@@UAEABVioHashString@@XZ
	DD	FLAT:?GetAniBlowDieAction@ioNpcChar@@UAEABVioHashString@@XZ
	DD	FLAT:?GetAniBackBlowDieAction@ioNpcChar@@UAEABVioHashString@@XZ
	DD	FLAT:?GetAniDownBlowDieAction@ioNpcChar@@UAEABVioHashString@@XZ
	DD	FLAT:?GetAniBackdownBlowDieAction@ioNpcChar@@UAEABVioHashString@@XZ
	DD	FLAT:?GetAniFalling@ioNpcChar@@UAEAAVioHashString@@XZ
	DD	FLAT:?GetDropDownAction@ioNpcChar@@UAEAAVioHashString@@XZ
	DD	FLAT:?GetAniBlowGetUp@ioNpcChar@@UAEAAVioHashString@@XZ
	DD	FLAT:?GetAniBackBlowGetUp@ioNpcChar@@UAEAAVioHashString@@XZ
	DD	FLAT:?GetStartProtectionTime@ioNpcChar@@UAEKXZ
	DD	FLAT:?GetBlowStateProtectionTime@ioNpcChar@@UAEKXZ
	DD	FLAT:?GetDelayAnimationIdx@ioBaseChar@@UBEHXZ
	DD	FLAT:?GetRunAnimationIdx@ioBaseChar@@UBEHXZ
	DD	FLAT:?GetDashRunAnimationIdx@ioBaseChar@@UBEHXZ
	DD	FLAT:?GetDefenseAnimationIdx@ioBaseChar@@UBEHXZ
	DD	FLAT:?GetWoundedAnimationIdx@ioBaseChar@@UBEHW4AttackSide@@W4BlowTargetType@@@Z
	DD	FLAT:?GetJumpReadyAnimationIdx@ioBaseChar@@UBEHXZ
	DD	FLAT:?GetJumppingAnimationIdx@ioBaseChar@@UBEH_N@Z
	DD	FLAT:?GetJumpEndAnimationIdx@ioBaseChar@@UAEHXZ
	DD	FLAT:?GetWeaponItemAniIdx@ioBaseChar@@UBEHW4AttackType@@H@Z
	DD	FLAT:?GetWeaponItemEndAniIdx@ioBaseChar@@UBEHW4AttackType@@H@Z
	DD	FLAT:?FaceChange@ioBaseChar@@UAEXPBDH@Z
	DD	FLAT:?HeadMeshChange@ioNpcChar@@UAEXPBDH@Z
	DD	FLAT:?CheckHeadMeshChange@ioNpcChar@@UAEXXZ
	DD	FLAT:?StopHeadMeshChange@ioNpcChar@@UAEXXZ
	DD	FLAT:?InitCustomInfo@ioNpcChar@@UAEXAAVioINILoader@@@Z
	DD	FLAT:?Initialize@ioNpcChar@@UAEXPBUITEM_DATA@@@Z
	DD	FLAT:?InitCustomEffect@ioNpcChar@@UAEXAAVioINILoader@@@Z
	DD	FLAT:?GetNpcType@ioNpcLair@@UBE?AW4NpcType@@XZ
	DD	FLAT:?ProcessAI@ioNpcChar@@MAEXXZ
	DD	FLAT:?ProcessBalanceCheck@ioNpcChar@@MAEXXZ
	DD	FLAT:?CehckStuckWeaponType@ioNpcChar@@MAE_NHH@Z
	DD	FLAT:?CheckStuckActive@ioNpcChar@@MAE_NH@Z
	DD	FLAT:?ActiveStuck@ioNpcChar@@UAEXXZ
; Function compile flags: /Ogsp
CONST	ENDS
;	COMDAT ??0ioNpcLair@@QAE@PAVioEntityGroup@@PAVioPlayStage@@PAVioPlayMode@@@Z
_TEXT	SEGMENT
_pGrp$ = 8						; size = 4
_pCreator$ = 12						; size = 4
_pMode$ = 16						; size = 4
??0ioNpcLair@@QAE@PAVioEntityGroup@@PAVioPlayStage@@PAVioPlayMode@@@Z PROC ; ioNpcLair::ioNpcLair, COMDAT
; _this$ = ecx

; 63   : {

  00000	55		 push	 ebp
  00001	8b ec		 mov	 ebp, esp
  00003	56		 push	 esi
  00004	ff 75 10	 push	 DWORD PTR _pMode$[ebp]
  00007	8b f1		 mov	 esi, ecx
  00009	ff 75 0c	 push	 DWORD PTR _pCreator$[ebp]
  0000c	ff 75 08	 push	 DWORD PTR _pGrp$[ebp]
  0000f	e8 00 00 00 00	 call	 ??0ioNpcBigTower@@QAE@PAVioEntityGroup@@PAVioPlayStage@@PAVioPlayMode@@@Z ; ioNpcBigTower::ioNpcBigTower
  00014	c7 06 00 00 00
	00		 mov	 DWORD PTR [esi], OFFSET ??_7ioNpcLair@@6BioPlayEntity@@@
  0001a	c7 86 c8 01 00
	00 00 00 00 00	 mov	 DWORD PTR [esi+456], OFFSET ??_7ioNpcLair@@6BioWorldEventReceiver@@@
  00024	c7 86 cc 01 00
	00 00 00 00 00	 mov	 DWORD PTR [esi+460], OFFSET ??_7ioNpcLair@@6B@

; 64   : 
; 65   : }

  0002e	8b c6		 mov	 eax, esi
  00030	5e		 pop	 esi
  00031	5d		 pop	 ebp
  00032	c2 0c 00	 ret	 12			; 0000000cH
??0ioNpcLair@@QAE@PAVioEntityGroup@@PAVioPlayStage@@PAVioPlayMode@@@Z ENDP ; ioNpcLair::ioNpcLair
_TEXT	ENDS
PUBLIC	??1ioNpcLair@@UAE@XZ				; ioNpcLair::~ioNpcLair
; Function compile flags: /Ogsp
;	COMDAT ??1ioNpcLair@@UAE@XZ
_TEXT	SEGMENT
??1ioNpcLair@@UAE@XZ PROC				; ioNpcLair::~ioNpcLair, COMDAT
; _this$ = ecx

; 68   : {

  00000	c7 01 00 00 00
	00		 mov	 DWORD PTR [ecx], OFFSET ??_7ioNpcLair@@6BioPlayEntity@@@
  00006	c7 81 c8 01 00
	00 00 00 00 00	 mov	 DWORD PTR [ecx+456], OFFSET ??_7ioNpcLair@@6BioWorldEventReceiver@@@
  00010	c7 81 cc 01 00
	00 00 00 00 00	 mov	 DWORD PTR [ecx+460], OFFSET ??_7ioNpcLair@@6B@

; 69   : 
; 70   : }

  0001a	e9 00 00 00 00	 jmp	 ??1ioNpcBigTower@@UAE@XZ ; ioNpcBigTower::~ioNpcBigTower
??1ioNpcLair@@UAE@XZ ENDP				; ioNpcLair::~ioNpcLair
; Function compile flags: /Ogsp
_TEXT	ENDS
;	COMDAT ?GetNpcType@ioNpcLair@@UBE?AW4NpcType@@XZ
_TEXT	SEGMENT
?GetNpcType@ioNpcLair@@UBE?AW4NpcType@@XZ PROC		; ioNpcLair::GetNpcType, COMDAT
; _this$ = ecx

; 74   : 	return NT_LAIR;

  00000	6a 04		 push	 4
  00002	58		 pop	 eax

; 75   : }

  00003	c3		 ret	 0
?GetNpcType@ioNpcLair@@UBE?AW4NpcType@@XZ ENDP		; ioNpcLair::GetNpcType
; Function compile flags: /Ogsp
_TEXT	ENDS
;	COMDAT ?DontMoveEntityLevel@ioNpcLair@@UBEHXZ
_TEXT	SEGMENT
?DontMoveEntityLevel@ioNpcLair@@UBEHXZ PROC		; ioNpcLair::DontMoveEntityLevel, COMDAT
; _this$ = ecx

; 79   : 	return 5;

  00000	6a 05		 push	 5
  00002	58		 pop	 eax

; 80   : }

  00003	c3		 ret	 0
?DontMoveEntityLevel@ioNpcLair@@UBEHXZ ENDP		; ioNpcLair::DontMoveEntityLevel
_TEXT	ENDS
PUBLIC	??_7ioNpcLairGuard@@6B@				; ioNpcLairGuard::`vftable'
PUBLIC	??_7ioNpcLairGuard@@6BioWorldEventReceiver@@@	; ioNpcLairGuard::`vftable'
PUBLIC	??_7ioNpcLairGuard@@6BioPlayEntity@@@		; ioNpcLairGuard::`vftable'
PUBLIC	??0ioNpcLairGuard@@QAE@PAVioEntityGroup@@PAVioPlayStage@@PAVioPlayMode@@@Z ; ioNpcLairGuard::ioNpcLairGuard
PUBLIC	??_R4ioNpcLairGuard@@6BioPlayEntity@@@		; ioNpcLairGuard::`RTTI Complete Object Locator'
PUBLIC	??_R0?AVioNpcLairGuard@@@8			; ioNpcLairGuard `RTTI Type Descriptor'
PUBLIC	??_R3ioNpcLairGuard@@8				; ioNpcLairGuard::`RTTI Class Hierarchy Descriptor'
PUBLIC	??_R2ioNpcLairGuard@@8				; ioNpcLairGuard::`RTTI Base Class Array'
PUBLIC	??_R1A@?0A@EA@ioNpcLairGuard@@8			; ioNpcLairGuard::`RTTI Base Class Descriptor at (0,-1,0,64)'
PUBLIC	?DontMoveEntityLevel@ioNpcLairGuard@@UBEHXZ	; ioNpcLairGuard::DontMoveEntityLevel
PUBLIC	?GetNpcType@ioNpcLairGuard@@UBE?AW4NpcType@@XZ	; ioNpcLairGuard::GetNpcType
PUBLIC	??_R4ioNpcLairGuard@@6BioWorldEventReceiver@@@	; ioNpcLairGuard::`RTTI Complete Object Locator'
PUBLIC	??_EioNpcLairGuard@@WBMI@AEPAXI@Z		; [thunk]:ioNpcLairGuard::`vector deleting destructor'
PUBLIC	??_R4ioNpcLairGuard@@6B@			; ioNpcLairGuard::`RTTI Complete Object Locator'
PUBLIC	??_EioNpcLairGuard@@WBMM@AEPAXI@Z		; [thunk]:ioNpcLairGuard::`vector deleting destructor'
EXTRN	??_EioNpcLairGuard@@UAEPAXI@Z:PROC		; ioNpcLairGuard::`vector deleting destructor'
;	COMDAT ??_R4ioNpcLairGuard@@6B@
rdata$r	SEGMENT
??_R4ioNpcLairGuard@@6B@ DD 00H				; ioNpcLairGuard::`RTTI Complete Object Locator'
	DD	01ccH
	DD	00H
	DD	FLAT:??_R0?AVioNpcLairGuard@@@8
	DD	FLAT:??_R3ioNpcLairGuard@@8
rdata$r	ENDS
;	COMDAT ??_R4ioNpcLairGuard@@6BioWorldEventReceiver@@@
rdata$r	SEGMENT
??_R4ioNpcLairGuard@@6BioWorldEventReceiver@@@ DD 00H	; ioNpcLairGuard::`RTTI Complete Object Locator'
	DD	01c8H
	DD	00H
	DD	FLAT:??_R0?AVioNpcLairGuard@@@8
	DD	FLAT:??_R3ioNpcLairGuard@@8
rdata$r	ENDS
;	COMDAT ??_R1A@?0A@EA@ioNpcLairGuard@@8
rdata$r	SEGMENT
??_R1A@?0A@EA@ioNpcLairGuard@@8 DD FLAT:??_R0?AVioNpcLairGuard@@@8 ; ioNpcLairGuard::`RTTI Base Class Descriptor at (0,-1,0,64)'
	DD	09H
	DD	00H
	DD	0ffffffffH
	DD	00H
	DD	040H
	DD	FLAT:??_R3ioNpcLairGuard@@8
rdata$r	ENDS
;	COMDAT ??_R2ioNpcLairGuard@@8
rdata$r	SEGMENT
??_R2ioNpcLairGuard@@8 DD FLAT:??_R1A@?0A@EA@ioNpcLairGuard@@8 ; ioNpcLairGuard::`RTTI Base Class Array'
	DD	FLAT:??_R1A@?0A@EA@ioNpcBigTower@@8
	DD	FLAT:??_R1A@?0A@EA@ioNpcChar@@8
	DD	FLAT:??_R1A@?0A@EA@ioBaseChar@@8
	DD	FLAT:??_R1A@?0A@EA@ioBaseCharParent@@8
	DD	FLAT:??_R1A@?0A@EA@ioPlayEntity@@8
	DD	FLAT:??_R1A@?0A@EA@ioGameEntity@@8
	DD	FLAT:??_R1A@?0A@EA@ioEntityEvent@@8
	DD	FLAT:??_R1BMI@?0A@EA@ioWorldEventReceiver@@8
	DD	FLAT:??_R1BMM@?0A@EA@ioBaseGUISupport@@8
rdata$r	ENDS
;	COMDAT ??_R3ioNpcLairGuard@@8
rdata$r	SEGMENT
??_R3ioNpcLairGuard@@8 DD 00H				; ioNpcLairGuard::`RTTI Class Hierarchy Descriptor'
	DD	01H
	DD	0aH
	DD	FLAT:??_R2ioNpcLairGuard@@8
rdata$r	ENDS
;	COMDAT ??_R0?AVioNpcLairGuard@@@8
_DATA	SEGMENT
??_R0?AVioNpcLairGuard@@@8 DD FLAT:??_7type_info@@6B@	; ioNpcLairGuard `RTTI Type Descriptor'
	DD	00H
	DB	'.?AVioNpcLairGuard@@', 00H
_DATA	ENDS
;	COMDAT ??_R4ioNpcLairGuard@@6BioPlayEntity@@@
rdata$r	SEGMENT
??_R4ioNpcLairGuard@@6BioPlayEntity@@@ DD 00H		; ioNpcLairGuard::`RTTI Complete Object Locator'
	DD	00H
	DD	00H
	DD	FLAT:??_R0?AVioNpcLairGuard@@@8
	DD	FLAT:??_R3ioNpcLairGuard@@8
rdata$r	ENDS
;	COMDAT ??_7ioNpcLairGuard@@6B@
CONST	SEGMENT
??_7ioNpcLairGuard@@6B@ DD FLAT:??_R4ioNpcLairGuard@@6B@ ; ioNpcLairGuard::`vftable'
	DD	FLAT:?CreateMagicCircle@ioBaseGUISupport@@UAEXABVioHashString@@00UD3DXVECTOR3@@M@Z
	DD	FLAT:?CreateMagicCircle@ioNpcChar@@UAEXABVioHashString@@00M@Z
	DD	FLAT:?CreateMagicCircleForBlock@ioBaseGUISupport@@UAEXABVioHashString@@00M@Z
	DD	FLAT:??_EioNpcLairGuard@@WBMM@AEPAXI@Z
CONST	ENDS
;	COMDAT ??_7ioNpcLairGuard@@6BioWorldEventReceiver@@@
CONST	SEGMENT
??_7ioNpcLairGuard@@6BioWorldEventReceiver@@@ DD FLAT:??_R4ioNpcLairGuard@@6BioWorldEventReceiver@@@ ; ioNpcLairGuard::`vftable'
	DD	FLAT:?OnTelepotation@ioBaseChar@@UAEXABUD3DXVECTOR3@@@Z
	DD	FLAT:?OnFireZoneDamage@ioBaseChar@@UAEXMABVioHashString@@@Z
	DD	FLAT:?OnPoisonZoneDamage@ioBaseChar@@UAEXXZ
	DD	FLAT:??_EioNpcLairGuard@@WBMI@AEPAXI@Z
CONST	ENDS
;	COMDAT ??_7ioNpcLairGuard@@6BioPlayEntity@@@
CONST	SEGMENT
??_7ioNpcLairGuard@@6BioPlayEntity@@@ DD FLAT:??_R4ioNpcLairGuard@@6BioPlayEntity@@@ ; ioNpcLairGuard::`vftable'
	DD	FLAT:?AddEntityEvent@ioBaseChar@@UAEXPAVioEntity@@@Z
	DD	FLAT:??_EioNpcLairGuard@@UAEPAXI@Z
	DD	FLAT:?Update@ioNpcChar@@UAEXMKK@Z
	DD	FLAT:?UpdateAfter@ioBaseChar@@UAEXM@Z
	DD	FLAT:?GetTypeID@ioPlayEntity@@UBEHXZ
	DD	FLAT:?IsNeedCheckMapCollision@ioBaseChar@@UBE_NXZ
	DD	FLAT:?IsMountAvailable@ioGameEntity@@UBE_NXZ
	DD	FLAT:?IsMountingAvailable@ioGameEntity@@UBE_NXZ
	DD	FLAT:?IsNowMountEnable@ioGameEntity@@UBE_NXZ
	DD	FLAT:?IsAllWeaponDefence@ioGameEntity@@UBE_NXZ
	DD	FLAT:?HasEntity@ioGameEntity@@UAE_NABVioHashString@@@Z
	DD	FLAT:?AddEntity@ioGameEntity@@UAEPAVioEntity@@ABVioHashString@@@Z
	DD	FLAT:?DestroyEntity@ioGameEntity@@UAE_NABVioHashString@@@Z
	DD	FLAT:?GetEntity@ioGameEntity@@UAEPAVioEntity@@ABVioHashString@@@Z
	DD	FLAT:?UpdateBound@ioBaseChar@@MBEXXZ
	DD	FLAT:?UpdateBottomHeight@ioBaseChar@@MBEXXZ
	DD	FLAT:?NeedUpdateBottomHeight@ioGameEntity@@UAEXXZ
	DD	FLAT:?SetWorldPosition@ioGameEntity@@UAEXABUD3DXVECTOR3@@@Z
	DD	FLAT:?SetWorldOrientation@ioGameEntity@@UAEXABUD3DXQUATERNION@@@Z
	DD	FLAT:?SetWorldScale@ioGameEntity@@UAEXABUD3DXVECTOR3@@@Z
	DD	FLAT:?Translate@ioGameEntity@@UAEXABUD3DXVECTOR3@@@Z
	DD	FLAT:?TranslateByConveyer@ioGameEntity@@UAEXABUD3DXVECTOR3@@@Z
	DD	FLAT:?TranslateByWorldEntity@ioGameEntity@@UAEXABUD3DXVECTOR3@@@Z
	DD	FLAT:?MapCollisionPushingTranslate@ioGameEntity@@UAEXABUD3DXVECTOR3@@@Z
	DD	FLAT:?DontMoveCollisionPushingTranslate@ioBaseChar@@UAEXPAVioGameEntity@@ABUD3DXVECTOR3@@@Z
	DD	FLAT:?Rotate@ioGameEntity@@UAEXABUD3DXVECTOR3@@MW4TransformSpace@ioNode@@@Z
	DD	FLAT:?Scale@ioGameEntity@@UAEXMMM@Z
	DD	FLAT:?Scale@ioGameEntity@@UAEXABUD3DXVECTOR3@@@Z
	DD	FLAT:?GetWorldPosition@ioGameEntity@@UBEABUD3DXVECTOR3@@XZ
	DD	FLAT:?GetWorldOrientation@ioGameEntity@@UBEABUD3DXQUATERNION@@XZ
	DD	FLAT:?GetWorldScale@ioGameEntity@@UBEABUD3DXVECTOR3@@XZ
	DD	FLAT:?ApplyWeapon@ioNpcChar@@UAE?AW4ApplyWeaponExp@@PAVioWeapon@@@Z
	DD	FLAT:?IsCollisionAvailableWeapon@ioNpcChar@@UAE_NPAVioWeapon@@@Z
	DD	FLAT:?IsCollisionAvailableRange@ioPlayEntity@@UAE_NPAVioWeapon@@@Z
	DD	FLAT:?IsEntityCollisionSkipState@ioBaseChar@@UBE_NPAVioGameEntity@@@Z
	DD	FLAT:?IsCharCollisionSkipState@ioBaseChar@@UBE_NW4TeamType@@H@Z
	DD	FLAT:?IsWoundedCollision@ioBaseChar@@UBE_NABVioOrientBox@@PAUD3DXVECTOR3@@@Z
	DD	FLAT:?GetAttackCollisionBox@ioPlayEntity@@UAE?AVioOrientBox@@W4AniCollisionType@@_N@Z
	DD	FLAT:?CheckSphereDistance@ioBaseChar@@UBE_NABUD3DXVECTOR3@@MAAM@Z
	DD	FLAT:?CheckSpherePoint@ioBaseChar@@UBE_NABUD3DXVECTOR3@@MAAU2@@Z
	DD	FLAT:?CheckCylinderPoint@ioBaseChar@@UBE_NABVioCylinder@@ABUD3DXVECTOR3@@AAU3@@Z
	DD	FLAT:?GetSubType@ioBaseChar@@UBE?AW4PlaySubType@ioPlayEntity@@XZ
	DD	FLAT:?GetArmorType@ioBaseChar@@UBE?AW4ArmorType@@XZ
	DD	FLAT:?DontMoveEntityLevel@ioNpcLairGuard@@UBEHXZ
	DD	FLAT:?NotifyDontMoveCollisionPushingSkip@ioPlayEntity@@UAEXPAVioGameEntity@@@Z
	DD	FLAT:?LoadProperty@ioPlayEntity@@UAEXAAVioINILoader@@@Z
	DD	FLAT:?GetWorldEventReceiver@ioBaseChar@@UAEPAVioWorldEventReceiver@@XZ
	DD	FLAT:?Revival@ioBaseChar@@UAEXXZ
	DD	FLAT:?UpdateGauge@ioBaseChar@@UAEXXZ
	DD	FLAT:?RenderGauge@ioNpcChar@@UAEXXZ
	DD	FLAT:?FillMaxHP@ioBaseChar@@UAEXXZ
	DD	FLAT:?ProcessRecovery@ioBaseChar@@MAEXXZ
	DD	FLAT:?AddHeadDamageInfo@ioPlayEntity@@UAEXH_N@Z
	DD	FLAT:?RenderHeadInfoList@ioPlayEntity@@UAEXHH@Z
	DD	FLAT:?UpdateHeadInfoList@ioPlayEntity@@MAEXK@Z
	DD	FLAT:?SetTeam@ioBaseChar@@UAEXW4TeamType@@@Z
	DD	FLAT:?GetAttackCollisionBox@ioBaseChar@@UAE?AVioOrientBox@@W4AniCollisionType@@_NM@Z
	DD	FLAT:?GetAttackCollisionBoxbyWeapon@ioBaseChar@@UAE?AVioOrientBox@@PAVioAniCollisionBoxGrp@@W4AniCollisionType@@_NM@Z
	DD	FLAT:?GetEntityCenterPos@ioBaseChar@@UBE?AUD3DXVECTOR3@@XZ
	DD	FLAT:?GetControlType@ioNpcChar@@UBE?AW4ControlType@@XZ
	DD	FLAT:?TrackingAutoTarget@ioBaseChar@@MAEXXZ
	DD	FLAT:?CheckDieState@ioNpcChar@@MAEXXZ
	DD	FLAT:?InitUserStat@ioNpcChar@@MAEXXZ
	DD	FLAT:?UpdateStatAttribute@ioNpcChar@@MAEXXZ
	DD	FLAT:?IsNeedProcess@ioNpcChar@@UBE_NXZ
	DD	FLAT:?IsNeedSendNetwork@ioNpcChar@@UBE_NXZ
	DD	FLAT:?IsDropDamage@ioNpcChar@@UAE_NXZ
	DD	FLAT:?IsItemDrop@ioNpcChar@@UAE_NXZ
	DD	FLAT:?GetNoInputDelayTime@ioNpcChar@@UAEKXZ
	DD	FLAT:?GetLimiteDieFlyTime@ioNpcChar@@UAEKXZ
	DD	FLAT:?GetDieActionRate@ioNpcChar@@UAEMXZ
	DD	FLAT:?GetDieDownActionRate@ioNpcChar@@UAEMXZ
	DD	FLAT:?GetAniStartAction@ioNpcChar@@UAEABVioHashString@@AA_N@Z
	DD	FLAT:?GetAniDieAction@ioNpcChar@@UAEABVioHashString@@XZ
	DD	FLAT:?GetAniBackDieAction@ioNpcChar@@UAEABVioHashString@@XZ
	DD	FLAT:?GetAniBlowDieAction@ioNpcChar@@UAEABVioHashString@@XZ
	DD	FLAT:?GetAniBackBlowDieAction@ioNpcChar@@UAEABVioHashString@@XZ
	DD	FLAT:?GetAniDownBlowDieAction@ioNpcChar@@UAEABVioHashString@@XZ
	DD	FLAT:?GetAniBackdownBlowDieAction@ioNpcChar@@UAEABVioHashString@@XZ
	DD	FLAT:?GetAniFalling@ioNpcChar@@UAEAAVioHashString@@XZ
	DD	FLAT:?GetDropDownAction@ioNpcChar@@UAEAAVioHashString@@XZ
	DD	FLAT:?GetAniBlowGetUp@ioNpcChar@@UAEAAVioHashString@@XZ
	DD	FLAT:?GetAniBackBlowGetUp@ioNpcChar@@UAEAAVioHashString@@XZ
	DD	FLAT:?GetStartProtectionTime@ioNpcChar@@UAEKXZ
	DD	FLAT:?GetBlowStateProtectionTime@ioNpcChar@@UAEKXZ
	DD	FLAT:?GetDelayAnimationIdx@ioBaseChar@@UBEHXZ
	DD	FLAT:?GetRunAnimationIdx@ioBaseChar@@UBEHXZ
	DD	FLAT:?GetDashRunAnimationIdx@ioBaseChar@@UBEHXZ
	DD	FLAT:?GetDefenseAnimationIdx@ioBaseChar@@UBEHXZ
	DD	FLAT:?GetWoundedAnimationIdx@ioBaseChar@@UBEHW4AttackSide@@W4BlowTargetType@@@Z
	DD	FLAT:?GetJumpReadyAnimationIdx@ioBaseChar@@UBEHXZ
	DD	FLAT:?GetJumppingAnimationIdx@ioBaseChar@@UBEH_N@Z
	DD	FLAT:?GetJumpEndAnimationIdx@ioBaseChar@@UAEHXZ
	DD	FLAT:?GetWeaponItemAniIdx@ioBaseChar@@UBEHW4AttackType@@H@Z
	DD	FLAT:?GetWeaponItemEndAniIdx@ioBaseChar@@UBEHW4AttackType@@H@Z
	DD	FLAT:?FaceChange@ioBaseChar@@UAEXPBDH@Z
	DD	FLAT:?HeadMeshChange@ioNpcChar@@UAEXPBDH@Z
	DD	FLAT:?CheckHeadMeshChange@ioNpcChar@@UAEXXZ
	DD	FLAT:?StopHeadMeshChange@ioNpcChar@@UAEXXZ
	DD	FLAT:?InitCustomInfo@ioNpcChar@@UAEXAAVioINILoader@@@Z
	DD	FLAT:?Initialize@ioNpcChar@@UAEXPBUITEM_DATA@@@Z
	DD	FLAT:?InitCustomEffect@ioNpcChar@@UAEXAAVioINILoader@@@Z
	DD	FLAT:?GetNpcType@ioNpcLairGuard@@UBE?AW4NpcType@@XZ
	DD	FLAT:?ProcessAI@ioNpcChar@@MAEXXZ
	DD	FLAT:?ProcessBalanceCheck@ioNpcChar@@MAEXXZ
	DD	FLAT:?CehckStuckWeaponType@ioNpcChar@@MAE_NHH@Z
	DD	FLAT:?CheckStuckActive@ioNpcChar@@MAE_NH@Z
	DD	FLAT:?ActiveStuck@ioNpcChar@@UAEXXZ
; Function compile flags: /Ogsp
CONST	ENDS
;	COMDAT ??0ioNpcLairGuard@@QAE@PAVioEntityGroup@@PAVioPlayStage@@PAVioPlayMode@@@Z
_TEXT	SEGMENT
_pGrp$ = 8						; size = 4
_pCreator$ = 12						; size = 4
_pMode$ = 16						; size = 4
??0ioNpcLairGuard@@QAE@PAVioEntityGroup@@PAVioPlayStage@@PAVioPlayMode@@@Z PROC ; ioNpcLairGuard::ioNpcLairGuard, COMDAT
; _this$ = ecx

; 89   : {

  00000	55		 push	 ebp
  00001	8b ec		 mov	 ebp, esp
  00003	56		 push	 esi
  00004	ff 75 10	 push	 DWORD PTR _pMode$[ebp]
  00007	8b f1		 mov	 esi, ecx
  00009	ff 75 0c	 push	 DWORD PTR _pCreator$[ebp]
  0000c	ff 75 08	 push	 DWORD PTR _pGrp$[ebp]
  0000f	e8 00 00 00 00	 call	 ??0ioNpcBigTower@@QAE@PAVioEntityGroup@@PAVioPlayStage@@PAVioPlayMode@@@Z ; ioNpcBigTower::ioNpcBigTower
  00014	c7 06 00 00 00
	00		 mov	 DWORD PTR [esi], OFFSET ??_7ioNpcLairGuard@@6BioPlayEntity@@@
  0001a	c7 86 c8 01 00
	00 00 00 00 00	 mov	 DWORD PTR [esi+456], OFFSET ??_7ioNpcLairGuard@@6BioWorldEventReceiver@@@
  00024	c7 86 cc 01 00
	00 00 00 00 00	 mov	 DWORD PTR [esi+460], OFFSET ??_7ioNpcLairGuard@@6B@

; 90   : 
; 91   : }

  0002e	8b c6		 mov	 eax, esi
  00030	5e		 pop	 esi
  00031	5d		 pop	 ebp
  00032	c2 0c 00	 ret	 12			; 0000000cH
??0ioNpcLairGuard@@QAE@PAVioEntityGroup@@PAVioPlayStage@@PAVioPlayMode@@@Z ENDP ; ioNpcLairGuard::ioNpcLairGuard
_TEXT	ENDS
PUBLIC	??1ioNpcLairGuard@@UAE@XZ			; ioNpcLairGuard::~ioNpcLairGuard
; Function compile flags: /Ogsp
;	COMDAT ??1ioNpcLairGuard@@UAE@XZ
_TEXT	SEGMENT
??1ioNpcLairGuard@@UAE@XZ PROC				; ioNpcLairGuard::~ioNpcLairGuard, COMDAT
; _this$ = ecx

; 94   : {

  00000	c7 01 00 00 00
	00		 mov	 DWORD PTR [ecx], OFFSET ??_7ioNpcLairGuard@@6BioPlayEntity@@@
  00006	c7 81 c8 01 00
	00 00 00 00 00	 mov	 DWORD PTR [ecx+456], OFFSET ??_7ioNpcLairGuard@@6BioWorldEventReceiver@@@
  00010	c7 81 cc 01 00
	00 00 00 00 00	 mov	 DWORD PTR [ecx+460], OFFSET ??_7ioNpcLairGuard@@6B@

; 95   : 
; 96   : }

  0001a	e9 00 00 00 00	 jmp	 ??1ioNpcBigTower@@UAE@XZ ; ioNpcBigTower::~ioNpcBigTower
??1ioNpcLairGuard@@UAE@XZ ENDP				; ioNpcLairGuard::~ioNpcLairGuard
; Function compile flags: /Ogsp
_TEXT	ENDS
;	COMDAT ?GetNpcType@ioNpcLairGuard@@UBE?AW4NpcType@@XZ
_TEXT	SEGMENT
?GetNpcType@ioNpcLairGuard@@UBE?AW4NpcType@@XZ PROC	; ioNpcLairGuard::GetNpcType, COMDAT
; _this$ = ecx

; 100  : 	return NT_LAIRGUARD;

  00000	6a 05		 push	 5
  00002	58		 pop	 eax

; 101  : }

  00003	c3		 ret	 0
?GetNpcType@ioNpcLairGuard@@UBE?AW4NpcType@@XZ ENDP	; ioNpcLairGuard::GetNpcType
; Function compile flags: /Ogsp
_TEXT	ENDS
;	COMDAT ?DontMoveEntityLevel@ioNpcLairGuard@@UBEHXZ
_TEXT	SEGMENT
?DontMoveEntityLevel@ioNpcLairGuard@@UBEHXZ PROC	; ioNpcLairGuard::DontMoveEntityLevel, COMDAT
; _this$ = ecx

; 105  : 	return 5;

  00000	6a 05		 push	 5
  00002	58		 pop	 eax

; 106  : }

  00003	c3		 ret	 0
?DontMoveEntityLevel@ioNpcLairGuard@@UBEHXZ ENDP	; ioNpcLairGuard::DontMoveEntityLevel
_TEXT	ENDS
PUBLIC	??_7ioNpcNexus@@6B@				; ioNpcNexus::`vftable'
PUBLIC	??_7ioNpcNexus@@6BioWorldEventReceiver@@@	; ioNpcNexus::`vftable'
PUBLIC	??_7ioNpcNexus@@6BioPlayEntity@@@		; ioNpcNexus::`vftable'
PUBLIC	??0ioNpcNexus@@QAE@PAVioEntityGroup@@PAVioPlayStage@@PAVioPlayMode@@@Z ; ioNpcNexus::ioNpcNexus
PUBLIC	??_R4ioNpcNexus@@6BioPlayEntity@@@		; ioNpcNexus::`RTTI Complete Object Locator'
PUBLIC	??_R0?AVioNpcNexus@@@8				; ioNpcNexus `RTTI Type Descriptor'
PUBLIC	??_R3ioNpcNexus@@8				; ioNpcNexus::`RTTI Class Hierarchy Descriptor'
PUBLIC	??_R2ioNpcNexus@@8				; ioNpcNexus::`RTTI Base Class Array'
PUBLIC	??_R1A@?0A@EA@ioNpcNexus@@8			; ioNpcNexus::`RTTI Base Class Descriptor at (0,-1,0,64)'
PUBLIC	?DontMoveEntityLevel@ioNpcNexus@@UBEHXZ		; ioNpcNexus::DontMoveEntityLevel
PUBLIC	?GetNpcType@ioNpcNexus@@UBE?AW4NpcType@@XZ	; ioNpcNexus::GetNpcType
PUBLIC	??_R4ioNpcNexus@@6BioWorldEventReceiver@@@	; ioNpcNexus::`RTTI Complete Object Locator'
PUBLIC	??_EioNpcNexus@@WBMI@AEPAXI@Z			; [thunk]:ioNpcNexus::`vector deleting destructor'
PUBLIC	??_R4ioNpcNexus@@6B@				; ioNpcNexus::`RTTI Complete Object Locator'
PUBLIC	??_EioNpcNexus@@WBMM@AEPAXI@Z			; [thunk]:ioNpcNexus::`vector deleting destructor'
EXTRN	??_EioNpcNexus@@UAEPAXI@Z:PROC			; ioNpcNexus::`vector deleting destructor'
;	COMDAT ??_R4ioNpcNexus@@6B@
rdata$r	SEGMENT
??_R4ioNpcNexus@@6B@ DD 00H				; ioNpcNexus::`RTTI Complete Object Locator'
	DD	01ccH
	DD	00H
	DD	FLAT:??_R0?AVioNpcNexus@@@8
	DD	FLAT:??_R3ioNpcNexus@@8
rdata$r	ENDS
;	COMDAT ??_R4ioNpcNexus@@6BioWorldEventReceiver@@@
rdata$r	SEGMENT
??_R4ioNpcNexus@@6BioWorldEventReceiver@@@ DD 00H	; ioNpcNexus::`RTTI Complete Object Locator'
	DD	01c8H
	DD	00H
	DD	FLAT:??_R0?AVioNpcNexus@@@8
	DD	FLAT:??_R3ioNpcNexus@@8
rdata$r	ENDS
;	COMDAT ??_R1A@?0A@EA@ioNpcNexus@@8
rdata$r	SEGMENT
??_R1A@?0A@EA@ioNpcNexus@@8 DD FLAT:??_R0?AVioNpcNexus@@@8 ; ioNpcNexus::`RTTI Base Class Descriptor at (0,-1,0,64)'
	DD	09H
	DD	00H
	DD	0ffffffffH
	DD	00H
	DD	040H
	DD	FLAT:??_R3ioNpcNexus@@8
rdata$r	ENDS
;	COMDAT ??_R2ioNpcNexus@@8
rdata$r	SEGMENT
??_R2ioNpcNexus@@8 DD FLAT:??_R1A@?0A@EA@ioNpcNexus@@8	; ioNpcNexus::`RTTI Base Class Array'
	DD	FLAT:??_R1A@?0A@EA@ioNpcBigTower@@8
	DD	FLAT:??_R1A@?0A@EA@ioNpcChar@@8
	DD	FLAT:??_R1A@?0A@EA@ioBaseChar@@8
	DD	FLAT:??_R1A@?0A@EA@ioBaseCharParent@@8
	DD	FLAT:??_R1A@?0A@EA@ioPlayEntity@@8
	DD	FLAT:??_R1A@?0A@EA@ioGameEntity@@8
	DD	FLAT:??_R1A@?0A@EA@ioEntityEvent@@8
	DD	FLAT:??_R1BMI@?0A@EA@ioWorldEventReceiver@@8
	DD	FLAT:??_R1BMM@?0A@EA@ioBaseGUISupport@@8
rdata$r	ENDS
;	COMDAT ??_R3ioNpcNexus@@8
rdata$r	SEGMENT
??_R3ioNpcNexus@@8 DD 00H				; ioNpcNexus::`RTTI Class Hierarchy Descriptor'
	DD	01H
	DD	0aH
	DD	FLAT:??_R2ioNpcNexus@@8
rdata$r	ENDS
;	COMDAT ??_R0?AVioNpcNexus@@@8
_DATA	SEGMENT
??_R0?AVioNpcNexus@@@8 DD FLAT:??_7type_info@@6B@	; ioNpcNexus `RTTI Type Descriptor'
	DD	00H
	DB	'.?AVioNpcNexus@@', 00H
_DATA	ENDS
;	COMDAT ??_R4ioNpcNexus@@6BioPlayEntity@@@
rdata$r	SEGMENT
??_R4ioNpcNexus@@6BioPlayEntity@@@ DD 00H		; ioNpcNexus::`RTTI Complete Object Locator'
	DD	00H
	DD	00H
	DD	FLAT:??_R0?AVioNpcNexus@@@8
	DD	FLAT:??_R3ioNpcNexus@@8
rdata$r	ENDS
;	COMDAT ??_7ioNpcNexus@@6B@
CONST	SEGMENT
??_7ioNpcNexus@@6B@ DD FLAT:??_R4ioNpcNexus@@6B@	; ioNpcNexus::`vftable'
	DD	FLAT:?CreateMagicCircle@ioBaseGUISupport@@UAEXABVioHashString@@00UD3DXVECTOR3@@M@Z
	DD	FLAT:?CreateMagicCircle@ioNpcChar@@UAEXABVioHashString@@00M@Z
	DD	FLAT:?CreateMagicCircleForBlock@ioBaseGUISupport@@UAEXABVioHashString@@00M@Z
	DD	FLAT:??_EioNpcNexus@@WBMM@AEPAXI@Z
CONST	ENDS
;	COMDAT ??_7ioNpcNexus@@6BioWorldEventReceiver@@@
CONST	SEGMENT
??_7ioNpcNexus@@6BioWorldEventReceiver@@@ DD FLAT:??_R4ioNpcNexus@@6BioWorldEventReceiver@@@ ; ioNpcNexus::`vftable'
	DD	FLAT:?OnTelepotation@ioBaseChar@@UAEXABUD3DXVECTOR3@@@Z
	DD	FLAT:?OnFireZoneDamage@ioBaseChar@@UAEXMABVioHashString@@@Z
	DD	FLAT:?OnPoisonZoneDamage@ioBaseChar@@UAEXXZ
	DD	FLAT:??_EioNpcNexus@@WBMI@AEPAXI@Z
CONST	ENDS
;	COMDAT ??_7ioNpcNexus@@6BioPlayEntity@@@
CONST	SEGMENT
??_7ioNpcNexus@@6BioPlayEntity@@@ DD FLAT:??_R4ioNpcNexus@@6BioPlayEntity@@@ ; ioNpcNexus::`vftable'
	DD	FLAT:?AddEntityEvent@ioBaseChar@@UAEXPAVioEntity@@@Z
	DD	FLAT:??_EioNpcNexus@@UAEPAXI@Z
	DD	FLAT:?Update@ioNpcChar@@UAEXMKK@Z
	DD	FLAT:?UpdateAfter@ioBaseChar@@UAEXM@Z
	DD	FLAT:?GetTypeID@ioPlayEntity@@UBEHXZ
	DD	FLAT:?IsNeedCheckMapCollision@ioBaseChar@@UBE_NXZ
	DD	FLAT:?IsMountAvailable@ioGameEntity@@UBE_NXZ
	DD	FLAT:?IsMountingAvailable@ioGameEntity@@UBE_NXZ
	DD	FLAT:?IsNowMountEnable@ioGameEntity@@UBE_NXZ
	DD	FLAT:?IsAllWeaponDefence@ioGameEntity@@UBE_NXZ
	DD	FLAT:?HasEntity@ioGameEntity@@UAE_NABVioHashString@@@Z
	DD	FLAT:?AddEntity@ioGameEntity@@UAEPAVioEntity@@ABVioHashString@@@Z
	DD	FLAT:?DestroyEntity@ioGameEntity@@UAE_NABVioHashString@@@Z
	DD	FLAT:?GetEntity@ioGameEntity@@UAEPAVioEntity@@ABVioHashString@@@Z
	DD	FLAT:?UpdateBound@ioBaseChar@@MBEXXZ
	DD	FLAT:?UpdateBottomHeight@ioBaseChar@@MBEXXZ
	DD	FLAT:?NeedUpdateBottomHeight@ioGameEntity@@UAEXXZ
	DD	FLAT:?SetWorldPosition@ioGameEntity@@UAEXABUD3DXVECTOR3@@@Z
	DD	FLAT:?SetWorldOrientation@ioGameEntity@@UAEXABUD3DXQUATERNION@@@Z
	DD	FLAT:?SetWorldScale@ioGameEntity@@UAEXABUD3DXVECTOR3@@@Z
	DD	FLAT:?Translate@ioGameEntity@@UAEXABUD3DXVECTOR3@@@Z
	DD	FLAT:?TranslateByConveyer@ioGameEntity@@UAEXABUD3DXVECTOR3@@@Z
	DD	FLAT:?TranslateByWorldEntity@ioGameEntity@@UAEXABUD3DXVECTOR3@@@Z
	DD	FLAT:?MapCollisionPushingTranslate@ioGameEntity@@UAEXABUD3DXVECTOR3@@@Z
	DD	FLAT:?DontMoveCollisionPushingTranslate@ioBaseChar@@UAEXPAVioGameEntity@@ABUD3DXVECTOR3@@@Z
	DD	FLAT:?Rotate@ioGameEntity@@UAEXABUD3DXVECTOR3@@MW4TransformSpace@ioNode@@@Z
	DD	FLAT:?Scale@ioGameEntity@@UAEXMMM@Z
	DD	FLAT:?Scale@ioGameEntity@@UAEXABUD3DXVECTOR3@@@Z
	DD	FLAT:?GetWorldPosition@ioGameEntity@@UBEABUD3DXVECTOR3@@XZ
	DD	FLAT:?GetWorldOrientation@ioGameEntity@@UBEABUD3DXQUATERNION@@XZ
	DD	FLAT:?GetWorldScale@ioGameEntity@@UBEABUD3DXVECTOR3@@XZ
	DD	FLAT:?ApplyWeapon@ioNpcChar@@UAE?AW4ApplyWeaponExp@@PAVioWeapon@@@Z
	DD	FLAT:?IsCollisionAvailableWeapon@ioNpcChar@@UAE_NPAVioWeapon@@@Z
	DD	FLAT:?IsCollisionAvailableRange@ioPlayEntity@@UAE_NPAVioWeapon@@@Z
	DD	FLAT:?IsEntityCollisionSkipState@ioBaseChar@@UBE_NPAVioGameEntity@@@Z
	DD	FLAT:?IsCharCollisionSkipState@ioBaseChar@@UBE_NW4TeamType@@H@Z
	DD	FLAT:?IsWoundedCollision@ioBaseChar@@UBE_NABVioOrientBox@@PAUD3DXVECTOR3@@@Z
	DD	FLAT:?GetAttackCollisionBox@ioPlayEntity@@UAE?AVioOrientBox@@W4AniCollisionType@@_N@Z
	DD	FLAT:?CheckSphereDistance@ioBaseChar@@UBE_NABUD3DXVECTOR3@@MAAM@Z
	DD	FLAT:?CheckSpherePoint@ioBaseChar@@UBE_NABUD3DXVECTOR3@@MAAU2@@Z
	DD	FLAT:?CheckCylinderPoint@ioBaseChar@@UBE_NABVioCylinder@@ABUD3DXVECTOR3@@AAU3@@Z
	DD	FLAT:?GetSubType@ioBaseChar@@UBE?AW4PlaySubType@ioPlayEntity@@XZ
	DD	FLAT:?GetArmorType@ioBaseChar@@UBE?AW4ArmorType@@XZ
	DD	FLAT:?DontMoveEntityLevel@ioNpcNexus@@UBEHXZ
	DD	FLAT:?NotifyDontMoveCollisionPushingSkip@ioPlayEntity@@UAEXPAVioGameEntity@@@Z
	DD	FLAT:?LoadProperty@ioPlayEntity@@UAEXAAVioINILoader@@@Z
	DD	FLAT:?GetWorldEventReceiver@ioBaseChar@@UAEPAVioWorldEventReceiver@@XZ
	DD	FLAT:?Revival@ioBaseChar@@UAEXXZ
	DD	FLAT:?UpdateGauge@ioBaseChar@@UAEXXZ
	DD	FLAT:?RenderGauge@ioNpcChar@@UAEXXZ
	DD	FLAT:?FillMaxHP@ioBaseChar@@UAEXXZ
	DD	FLAT:?ProcessRecovery@ioBaseChar@@MAEXXZ
	DD	FLAT:?AddHeadDamageInfo@ioPlayEntity@@UAEXH_N@Z
	DD	FLAT:?RenderHeadInfoList@ioPlayEntity@@UAEXHH@Z
	DD	FLAT:?UpdateHeadInfoList@ioPlayEntity@@MAEXK@Z
	DD	FLAT:?SetTeam@ioBaseChar@@UAEXW4TeamType@@@Z
	DD	FLAT:?GetAttackCollisionBox@ioBaseChar@@UAE?AVioOrientBox@@W4AniCollisionType@@_NM@Z
	DD	FLAT:?GetAttackCollisionBoxbyWeapon@ioBaseChar@@UAE?AVioOrientBox@@PAVioAniCollisionBoxGrp@@W4AniCollisionType@@_NM@Z
	DD	FLAT:?GetEntityCenterPos@ioBaseChar@@UBE?AUD3DXVECTOR3@@XZ
	DD	FLAT:?GetControlType@ioNpcChar@@UBE?AW4ControlType@@XZ
	DD	FLAT:?TrackingAutoTarget@ioBaseChar@@MAEXXZ
	DD	FLAT:?CheckDieState@ioNpcChar@@MAEXXZ
	DD	FLAT:?InitUserStat@ioNpcChar@@MAEXXZ
	DD	FLAT:?UpdateStatAttribute@ioNpcChar@@MAEXXZ
	DD	FLAT:?IsNeedProcess@ioNpcChar@@UBE_NXZ
	DD	FLAT:?IsNeedSendNetwork@ioNpcChar@@UBE_NXZ
	DD	FLAT:?IsDropDamage@ioNpcChar@@UAE_NXZ
	DD	FLAT:?IsItemDrop@ioNpcChar@@UAE_NXZ
	DD	FLAT:?GetNoInputDelayTime@ioNpcChar@@UAEKXZ
	DD	FLAT:?GetLimiteDieFlyTime@ioNpcChar@@UAEKXZ
	DD	FLAT:?GetDieActionRate@ioNpcChar@@UAEMXZ
	DD	FLAT:?GetDieDownActionRate@ioNpcChar@@UAEMXZ
	DD	FLAT:?GetAniStartAction@ioNpcChar@@UAEABVioHashString@@AA_N@Z
	DD	FLAT:?GetAniDieAction@ioNpcChar@@UAEABVioHashString@@XZ
	DD	FLAT:?GetAniBackDieAction@ioNpcChar@@UAEABVioHashString@@XZ
	DD	FLAT:?GetAniBlowDieAction@ioNpcChar@@UAEABVioHashString@@XZ
	DD	FLAT:?GetAniBackBlowDieAction@ioNpcChar@@UAEABVioHashString@@XZ
	DD	FLAT:?GetAniDownBlowDieAction@ioNpcChar@@UAEABVioHashString@@XZ
	DD	FLAT:?GetAniBackdownBlowDieAction@ioNpcChar@@UAEABVioHashString@@XZ
	DD	FLAT:?GetAniFalling@ioNpcChar@@UAEAAVioHashString@@XZ
	DD	FLAT:?GetDropDownAction@ioNpcChar@@UAEAAVioHashString@@XZ
	DD	FLAT:?GetAniBlowGetUp@ioNpcChar@@UAEAAVioHashString@@XZ
	DD	FLAT:?GetAniBackBlowGetUp@ioNpcChar@@UAEAAVioHashString@@XZ
	DD	FLAT:?GetStartProtectionTime@ioNpcChar@@UAEKXZ
	DD	FLAT:?GetBlowStateProtectionTime@ioNpcChar@@UAEKXZ
	DD	FLAT:?GetDelayAnimationIdx@ioBaseChar@@UBEHXZ
	DD	FLAT:?GetRunAnimationIdx@ioBaseChar@@UBEHXZ
	DD	FLAT:?GetDashRunAnimationIdx@ioBaseChar@@UBEHXZ
	DD	FLAT:?GetDefenseAnimationIdx@ioBaseChar@@UBEHXZ
	DD	FLAT:?GetWoundedAnimationIdx@ioBaseChar@@UBEHW4AttackSide@@W4BlowTargetType@@@Z
	DD	FLAT:?GetJumpReadyAnimationIdx@ioBaseChar@@UBEHXZ
	DD	FLAT:?GetJumppingAnimationIdx@ioBaseChar@@UBEH_N@Z
	DD	FLAT:?GetJumpEndAnimationIdx@ioBaseChar@@UAEHXZ
	DD	FLAT:?GetWeaponItemAniIdx@ioBaseChar@@UBEHW4AttackType@@H@Z
	DD	FLAT:?GetWeaponItemEndAniIdx@ioBaseChar@@UBEHW4AttackType@@H@Z
	DD	FLAT:?FaceChange@ioBaseChar@@UAEXPBDH@Z
	DD	FLAT:?HeadMeshChange@ioNpcChar@@UAEXPBDH@Z
	DD	FLAT:?CheckHeadMeshChange@ioNpcChar@@UAEXXZ
	DD	FLAT:?StopHeadMeshChange@ioNpcChar@@UAEXXZ
	DD	FLAT:?InitCustomInfo@ioNpcChar@@UAEXAAVioINILoader@@@Z
	DD	FLAT:?Initialize@ioNpcChar@@UAEXPBUITEM_DATA@@@Z
	DD	FLAT:?InitCustomEffect@ioNpcChar@@UAEXAAVioINILoader@@@Z
	DD	FLAT:?GetNpcType@ioNpcNexus@@UBE?AW4NpcType@@XZ
	DD	FLAT:?ProcessAI@ioNpcChar@@MAEXXZ
	DD	FLAT:?ProcessBalanceCheck@ioNpcChar@@MAEXXZ
	DD	FLAT:?CehckStuckWeaponType@ioNpcChar@@MAE_NHH@Z
	DD	FLAT:?CheckStuckActive@ioNpcChar@@MAE_NH@Z
	DD	FLAT:?ActiveStuck@ioNpcChar@@UAEXXZ
; Function compile flags: /Ogsp
CONST	ENDS
;	COMDAT ??0ioNpcNexus@@QAE@PAVioEntityGroup@@PAVioPlayStage@@PAVioPlayMode@@@Z
_TEXT	SEGMENT
_pGrp$ = 8						; size = 4
_pCreator$ = 12						; size = 4
_pMode$ = 16						; size = 4
??0ioNpcNexus@@QAE@PAVioEntityGroup@@PAVioPlayStage@@PAVioPlayMode@@@Z PROC ; ioNpcNexus::ioNpcNexus, COMDAT
; _this$ = ecx

; 115  : {

  00000	55		 push	 ebp
  00001	8b ec		 mov	 ebp, esp
  00003	56		 push	 esi
  00004	ff 75 10	 push	 DWORD PTR _pMode$[ebp]
  00007	8b f1		 mov	 esi, ecx
  00009	ff 75 0c	 push	 DWORD PTR _pCreator$[ebp]
  0000c	ff 75 08	 push	 DWORD PTR _pGrp$[ebp]
  0000f	e8 00 00 00 00	 call	 ??0ioNpcBigTower@@QAE@PAVioEntityGroup@@PAVioPlayStage@@PAVioPlayMode@@@Z ; ioNpcBigTower::ioNpcBigTower
  00014	c7 06 00 00 00
	00		 mov	 DWORD PTR [esi], OFFSET ??_7ioNpcNexus@@6BioPlayEntity@@@
  0001a	c7 86 c8 01 00
	00 00 00 00 00	 mov	 DWORD PTR [esi+456], OFFSET ??_7ioNpcNexus@@6BioWorldEventReceiver@@@
  00024	c7 86 cc 01 00
	00 00 00 00 00	 mov	 DWORD PTR [esi+460], OFFSET ??_7ioNpcNexus@@6B@

; 116  : 
; 117  : }

  0002e	8b c6		 mov	 eax, esi
  00030	5e		 pop	 esi
  00031	5d		 pop	 ebp
  00032	c2 0c 00	 ret	 12			; 0000000cH
??0ioNpcNexus@@QAE@PAVioEntityGroup@@PAVioPlayStage@@PAVioPlayMode@@@Z ENDP ; ioNpcNexus::ioNpcNexus
_TEXT	ENDS
PUBLIC	??1ioNpcNexus@@UAE@XZ				; ioNpcNexus::~ioNpcNexus
; Function compile flags: /Ogsp
;	COMDAT ??1ioNpcNexus@@UAE@XZ
_TEXT	SEGMENT
??1ioNpcNexus@@UAE@XZ PROC				; ioNpcNexus::~ioNpcNexus, COMDAT
; _this$ = ecx

; 120  : {

  00000	c7 01 00 00 00
	00		 mov	 DWORD PTR [ecx], OFFSET ??_7ioNpcNexus@@6BioPlayEntity@@@
  00006	c7 81 c8 01 00
	00 00 00 00 00	 mov	 DWORD PTR [ecx+456], OFFSET ??_7ioNpcNexus@@6BioWorldEventReceiver@@@
  00010	c7 81 cc 01 00
	00 00 00 00 00	 mov	 DWORD PTR [ecx+460], OFFSET ??_7ioNpcNexus@@6B@

; 121  : 
; 122  : }

  0001a	e9 00 00 00 00	 jmp	 ??1ioNpcBigTower@@UAE@XZ ; ioNpcBigTower::~ioNpcBigTower
??1ioNpcNexus@@UAE@XZ ENDP				; ioNpcNexus::~ioNpcNexus
; Function compile flags: /Ogsp
_TEXT	ENDS
;	COMDAT ?GetNpcType@ioNpcNexus@@UBE?AW4NpcType@@XZ
_TEXT	SEGMENT
?GetNpcType@ioNpcNexus@@UBE?AW4NpcType@@XZ PROC		; ioNpcNexus::GetNpcType, COMDAT
; _this$ = ecx

; 126  : 	return NT_NEXUS;

  00000	6a 06		 push	 6
  00002	58		 pop	 eax

; 127  : }

  00003	c3		 ret	 0
?GetNpcType@ioNpcNexus@@UBE?AW4NpcType@@XZ ENDP		; ioNpcNexus::GetNpcType
; Function compile flags: /Ogsp
_TEXT	ENDS
;	COMDAT ?DontMoveEntityLevel@ioNpcNexus@@UBEHXZ
_TEXT	SEGMENT
?DontMoveEntityLevel@ioNpcNexus@@UBEHXZ PROC		; ioNpcNexus::DontMoveEntityLevel, COMDAT
; _this$ = ecx

; 131  : 	return 5;

  00000	6a 05		 push	 5
  00002	58		 pop	 eax

; 132  : }

  00003	c3		 ret	 0
?DontMoveEntityLevel@ioNpcNexus@@UBEHXZ ENDP		; ioNpcNexus::DontMoveEntityLevel
_TEXT	ENDS
PUBLIC	??_7ioNpcNexusGuard@@6B@			; ioNpcNexusGuard::`vftable'
PUBLIC	??_7ioNpcNexusGuard@@6BioWorldEventReceiver@@@	; ioNpcNexusGuard::`vftable'
PUBLIC	??_7ioNpcNexusGuard@@6BioPlayEntity@@@		; ioNpcNexusGuard::`vftable'
PUBLIC	??0ioNpcNexusGuard@@QAE@PAVioEntityGroup@@PAVioPlayStage@@PAVioPlayMode@@@Z ; ioNpcNexusGuard::ioNpcNexusGuard
PUBLIC	??_R4ioNpcNexusGuard@@6BioPlayEntity@@@		; ioNpcNexusGuard::`RTTI Complete Object Locator'
PUBLIC	??_R0?AVioNpcNexusGuard@@@8			; ioNpcNexusGuard `RTTI Type Descriptor'
PUBLIC	??_R3ioNpcNexusGuard@@8				; ioNpcNexusGuard::`RTTI Class Hierarchy Descriptor'
PUBLIC	??_R2ioNpcNexusGuard@@8				; ioNpcNexusGuard::`RTTI Base Class Array'
PUBLIC	??_R1A@?0A@EA@ioNpcNexusGuard@@8		; ioNpcNexusGuard::`RTTI Base Class Descriptor at (0,-1,0,64)'
PUBLIC	?DontMoveEntityLevel@ioNpcNexusGuard@@UBEHXZ	; ioNpcNexusGuard::DontMoveEntityLevel
PUBLIC	?GetNpcType@ioNpcNexusGuard@@UBE?AW4NpcType@@XZ	; ioNpcNexusGuard::GetNpcType
PUBLIC	??_R4ioNpcNexusGuard@@6BioWorldEventReceiver@@@	; ioNpcNexusGuard::`RTTI Complete Object Locator'
PUBLIC	??_EioNpcNexusGuard@@WBMI@AEPAXI@Z		; [thunk]:ioNpcNexusGuard::`vector deleting destructor'
PUBLIC	??_R4ioNpcNexusGuard@@6B@			; ioNpcNexusGuard::`RTTI Complete Object Locator'
PUBLIC	??_EioNpcNexusGuard@@WBMM@AEPAXI@Z		; [thunk]:ioNpcNexusGuard::`vector deleting destructor'
EXTRN	??_EioNpcNexusGuard@@UAEPAXI@Z:PROC		; ioNpcNexusGuard::`vector deleting destructor'
;	COMDAT ??_R4ioNpcNexusGuard@@6B@
rdata$r	SEGMENT
??_R4ioNpcNexusGuard@@6B@ DD 00H			; ioNpcNexusGuard::`RTTI Complete Object Locator'
	DD	01ccH
	DD	00H
	DD	FLAT:??_R0?AVioNpcNexusGuard@@@8
	DD	FLAT:??_R3ioNpcNexusGuard@@8
rdata$r	ENDS
;	COMDAT ??_R4ioNpcNexusGuard@@6BioWorldEventReceiver@@@
rdata$r	SEGMENT
??_R4ioNpcNexusGuard@@6BioWorldEventReceiver@@@ DD 00H	; ioNpcNexusGuard::`RTTI Complete Object Locator'
	DD	01c8H
	DD	00H
	DD	FLAT:??_R0?AVioNpcNexusGuard@@@8
	DD	FLAT:??_R3ioNpcNexusGuard@@8
rdata$r	ENDS
;	COMDAT ??_R1A@?0A@EA@ioNpcNexusGuard@@8
rdata$r	SEGMENT
??_R1A@?0A@EA@ioNpcNexusGuard@@8 DD FLAT:??_R0?AVioNpcNexusGuard@@@8 ; ioNpcNexusGuard::`RTTI Base Class Descriptor at (0,-1,0,64)'
	DD	09H
	DD	00H
	DD	0ffffffffH
	DD	00H
	DD	040H
	DD	FLAT:??_R3ioNpcNexusGuard@@8
rdata$r	ENDS
;	COMDAT ??_R2ioNpcNexusGuard@@8
rdata$r	SEGMENT
??_R2ioNpcNexusGuard@@8 DD FLAT:??_R1A@?0A@EA@ioNpcNexusGuard@@8 ; ioNpcNexusGuard::`RTTI Base Class Array'
	DD	FLAT:??_R1A@?0A@EA@ioNpcBigTower@@8
	DD	FLAT:??_R1A@?0A@EA@ioNpcChar@@8
	DD	FLAT:??_R1A@?0A@EA@ioBaseChar@@8
	DD	FLAT:??_R1A@?0A@EA@ioBaseCharParent@@8
	DD	FLAT:??_R1A@?0A@EA@ioPlayEntity@@8
	DD	FLAT:??_R1A@?0A@EA@ioGameEntity@@8
	DD	FLAT:??_R1A@?0A@EA@ioEntityEvent@@8
	DD	FLAT:??_R1BMI@?0A@EA@ioWorldEventReceiver@@8
	DD	FLAT:??_R1BMM@?0A@EA@ioBaseGUISupport@@8
rdata$r	ENDS
;	COMDAT ??_R3ioNpcNexusGuard@@8
rdata$r	SEGMENT
??_R3ioNpcNexusGuard@@8 DD 00H				; ioNpcNexusGuard::`RTTI Class Hierarchy Descriptor'
	DD	01H
	DD	0aH
	DD	FLAT:??_R2ioNpcNexusGuard@@8
rdata$r	ENDS
;	COMDAT ??_R0?AVioNpcNexusGuard@@@8
_DATA	SEGMENT
??_R0?AVioNpcNexusGuard@@@8 DD FLAT:??_7type_info@@6B@	; ioNpcNexusGuard `RTTI Type Descriptor'
	DD	00H
	DB	'.?AVioNpcNexusGuard@@', 00H
_DATA	ENDS
;	COMDAT ??_R4ioNpcNexusGuard@@6BioPlayEntity@@@
rdata$r	SEGMENT
??_R4ioNpcNexusGuard@@6BioPlayEntity@@@ DD 00H		; ioNpcNexusGuard::`RTTI Complete Object Locator'
	DD	00H
	DD	00H
	DD	FLAT:??_R0?AVioNpcNexusGuard@@@8
	DD	FLAT:??_R3ioNpcNexusGuard@@8
rdata$r	ENDS
;	COMDAT ??_7ioNpcNexusGuard@@6B@
CONST	SEGMENT
??_7ioNpcNexusGuard@@6B@ DD FLAT:??_R4ioNpcNexusGuard@@6B@ ; ioNpcNexusGuard::`vftable'
	DD	FLAT:?CreateMagicCircle@ioBaseGUISupport@@UAEXABVioHashString@@00UD3DXVECTOR3@@M@Z
	DD	FLAT:?CreateMagicCircle@ioNpcChar@@UAEXABVioHashString@@00M@Z
	DD	FLAT:?CreateMagicCircleForBlock@ioBaseGUISupport@@UAEXABVioHashString@@00M@Z
	DD	FLAT:??_EioNpcNexusGuard@@WBMM@AEPAXI@Z
CONST	ENDS
;	COMDAT ??_7ioNpcNexusGuard@@6BioWorldEventReceiver@@@
CONST	SEGMENT
??_7ioNpcNexusGuard@@6BioWorldEventReceiver@@@ DD FLAT:??_R4ioNpcNexusGuard@@6BioWorldEventReceiver@@@ ; ioNpcNexusGuard::`vftable'
	DD	FLAT:?OnTelepotation@ioBaseChar@@UAEXABUD3DXVECTOR3@@@Z
	DD	FLAT:?OnFireZoneDamage@ioBaseChar@@UAEXMABVioHashString@@@Z
	DD	FLAT:?OnPoisonZoneDamage@ioBaseChar@@UAEXXZ
	DD	FLAT:??_EioNpcNexusGuard@@WBMI@AEPAXI@Z
CONST	ENDS
;	COMDAT ??_7ioNpcNexusGuard@@6BioPlayEntity@@@
CONST	SEGMENT
??_7ioNpcNexusGuard@@6BioPlayEntity@@@ DD FLAT:??_R4ioNpcNexusGuard@@6BioPlayEntity@@@ ; ioNpcNexusGuard::`vftable'
	DD	FLAT:?AddEntityEvent@ioBaseChar@@UAEXPAVioEntity@@@Z
	DD	FLAT:??_EioNpcNexusGuard@@UAEPAXI@Z
	DD	FLAT:?Update@ioNpcChar@@UAEXMKK@Z
	DD	FLAT:?UpdateAfter@ioBaseChar@@UAEXM@Z
	DD	FLAT:?GetTypeID@ioPlayEntity@@UBEHXZ
	DD	FLAT:?IsNeedCheckMapCollision@ioBaseChar@@UBE_NXZ
	DD	FLAT:?IsMountAvailable@ioGameEntity@@UBE_NXZ
	DD	FLAT:?IsMountingAvailable@ioGameEntity@@UBE_NXZ
	DD	FLAT:?IsNowMountEnable@ioGameEntity@@UBE_NXZ
	DD	FLAT:?IsAllWeaponDefence@ioGameEntity@@UBE_NXZ
	DD	FLAT:?HasEntity@ioGameEntity@@UAE_NABVioHashString@@@Z
	DD	FLAT:?AddEntity@ioGameEntity@@UAEPAVioEntity@@ABVioHashString@@@Z
	DD	FLAT:?DestroyEntity@ioGameEntity@@UAE_NABVioHashString@@@Z
	DD	FLAT:?GetEntity@ioGameEntity@@UAEPAVioEntity@@ABVioHashString@@@Z
	DD	FLAT:?UpdateBound@ioBaseChar@@MBEXXZ
	DD	FLAT:?UpdateBottomHeight@ioBaseChar@@MBEXXZ
	DD	FLAT:?NeedUpdateBottomHeight@ioGameEntity@@UAEXXZ
	DD	FLAT:?SetWorldPosition@ioGameEntity@@UAEXABUD3DXVECTOR3@@@Z
	DD	FLAT:?SetWorldOrientation@ioGameEntity@@UAEXABUD3DXQUATERNION@@@Z
	DD	FLAT:?SetWorldScale@ioGameEntity@@UAEXABUD3DXVECTOR3@@@Z
	DD	FLAT:?Translate@ioGameEntity@@UAEXABUD3DXVECTOR3@@@Z
	DD	FLAT:?TranslateByConveyer@ioGameEntity@@UAEXABUD3DXVECTOR3@@@Z
	DD	FLAT:?TranslateByWorldEntity@ioGameEntity@@UAEXABUD3DXVECTOR3@@@Z
	DD	FLAT:?MapCollisionPushingTranslate@ioGameEntity@@UAEXABUD3DXVECTOR3@@@Z
	DD	FLAT:?DontMoveCollisionPushingTranslate@ioBaseChar@@UAEXPAVioGameEntity@@ABUD3DXVECTOR3@@@Z
	DD	FLAT:?Rotate@ioGameEntity@@UAEXABUD3DXVECTOR3@@MW4TransformSpace@ioNode@@@Z
	DD	FLAT:?Scale@ioGameEntity@@UAEXMMM@Z
	DD	FLAT:?Scale@ioGameEntity@@UAEXABUD3DXVECTOR3@@@Z
	DD	FLAT:?GetWorldPosition@ioGameEntity@@UBEABUD3DXVECTOR3@@XZ
	DD	FLAT:?GetWorldOrientation@ioGameEntity@@UBEABUD3DXQUATERNION@@XZ
	DD	FLAT:?GetWorldScale@ioGameEntity@@UBEABUD3DXVECTOR3@@XZ
	DD	FLAT:?ApplyWeapon@ioNpcChar@@UAE?AW4ApplyWeaponExp@@PAVioWeapon@@@Z
	DD	FLAT:?IsCollisionAvailableWeapon@ioNpcChar@@UAE_NPAVioWeapon@@@Z
	DD	FLAT:?IsCollisionAvailableRange@ioPlayEntity@@UAE_NPAVioWeapon@@@Z
	DD	FLAT:?IsEntityCollisionSkipState@ioBaseChar@@UBE_NPAVioGameEntity@@@Z
	DD	FLAT:?IsCharCollisionSkipState@ioBaseChar@@UBE_NW4TeamType@@H@Z
	DD	FLAT:?IsWoundedCollision@ioBaseChar@@UBE_NABVioOrientBox@@PAUD3DXVECTOR3@@@Z
	DD	FLAT:?GetAttackCollisionBox@ioPlayEntity@@UAE?AVioOrientBox@@W4AniCollisionType@@_N@Z
	DD	FLAT:?CheckSphereDistance@ioBaseChar@@UBE_NABUD3DXVECTOR3@@MAAM@Z
	DD	FLAT:?CheckSpherePoint@ioBaseChar@@UBE_NABUD3DXVECTOR3@@MAAU2@@Z
	DD	FLAT:?CheckCylinderPoint@ioBaseChar@@UBE_NABVioCylinder@@ABUD3DXVECTOR3@@AAU3@@Z
	DD	FLAT:?GetSubType@ioBaseChar@@UBE?AW4PlaySubType@ioPlayEntity@@XZ
	DD	FLAT:?GetArmorType@ioBaseChar@@UBE?AW4ArmorType@@XZ
	DD	FLAT:?DontMoveEntityLevel@ioNpcNexusGuard@@UBEHXZ
	DD	FLAT:?NotifyDontMoveCollisionPushingSkip@ioPlayEntity@@UAEXPAVioGameEntity@@@Z
	DD	FLAT:?LoadProperty@ioPlayEntity@@UAEXAAVioINILoader@@@Z
	DD	FLAT:?GetWorldEventReceiver@ioBaseChar@@UAEPAVioWorldEventReceiver@@XZ
	DD	FLAT:?Revival@ioBaseChar@@UAEXXZ
	DD	FLAT:?UpdateGauge@ioBaseChar@@UAEXXZ
	DD	FLAT:?RenderGauge@ioNpcChar@@UAEXXZ
	DD	FLAT:?FillMaxHP@ioBaseChar@@UAEXXZ
	DD	FLAT:?ProcessRecovery@ioBaseChar@@MAEXXZ
	DD	FLAT:?AddHeadDamageInfo@ioPlayEntity@@UAEXH_N@Z
	DD	FLAT:?RenderHeadInfoList@ioPlayEntity@@UAEXHH@Z
	DD	FLAT:?UpdateHeadInfoList@ioPlayEntity@@MAEXK@Z
	DD	FLAT:?SetTeam@ioBaseChar@@UAEXW4TeamType@@@Z
	DD	FLAT:?GetAttackCollisionBox@ioBaseChar@@UAE?AVioOrientBox@@W4AniCollisionType@@_NM@Z
	DD	FLAT:?GetAttackCollisionBoxbyWeapon@ioBaseChar@@UAE?AVioOrientBox@@PAVioAniCollisionBoxGrp@@W4AniCollisionType@@_NM@Z
	DD	FLAT:?GetEntityCenterPos@ioBaseChar@@UBE?AUD3DXVECTOR3@@XZ
	DD	FLAT:?GetControlType@ioNpcChar@@UBE?AW4ControlType@@XZ
	DD	FLAT:?TrackingAutoTarget@ioBaseChar@@MAEXXZ
	DD	FLAT:?CheckDieState@ioNpcChar@@MAEXXZ
	DD	FLAT:?InitUserStat@ioNpcChar@@MAEXXZ
	DD	FLAT:?UpdateStatAttribute@ioNpcChar@@MAEXXZ
	DD	FLAT:?IsNeedProcess@ioNpcChar@@UBE_NXZ
	DD	FLAT:?IsNeedSendNetwork@ioNpcChar@@UBE_NXZ
	DD	FLAT:?IsDropDamage@ioNpcChar@@UAE_NXZ
	DD	FLAT:?IsItemDrop@ioNpcChar@@UAE_NXZ
	DD	FLAT:?GetNoInputDelayTime@ioNpcChar@@UAEKXZ
	DD	FLAT:?GetLimiteDieFlyTime@ioNpcChar@@UAEKXZ
	DD	FLAT:?GetDieActionRate@ioNpcChar@@UAEMXZ
	DD	FLAT:?GetDieDownActionRate@ioNpcChar@@UAEMXZ
	DD	FLAT:?GetAniStartAction@ioNpcChar@@UAEABVioHashString@@AA_N@Z
	DD	FLAT:?GetAniDieAction@ioNpcChar@@UAEABVioHashString@@XZ
	DD	FLAT:?GetAniBackDieAction@ioNpcChar@@UAEABVioHashString@@XZ
	DD	FLAT:?GetAniBlowDieAction@ioNpcChar@@UAEABVioHashString@@XZ
	DD	FLAT:?GetAniBackBlowDieAction@ioNpcChar@@UAEABVioHashString@@XZ
	DD	FLAT:?GetAniDownBlowDieAction@ioNpcChar@@UAEABVioHashString@@XZ
	DD	FLAT:?GetAniBackdownBlowDieAction@ioNpcChar@@UAEABVioHashString@@XZ
	DD	FLAT:?GetAniFalling@ioNpcChar@@UAEAAVioHashString@@XZ
	DD	FLAT:?GetDropDownAction@ioNpcChar@@UAEAAVioHashString@@XZ
	DD	FLAT:?GetAniBlowGetUp@ioNpcChar@@UAEAAVioHashString@@XZ
	DD	FLAT:?GetAniBackBlowGetUp@ioNpcChar@@UAEAAVioHashString@@XZ
	DD	FLAT:?GetStartProtectionTime@ioNpcChar@@UAEKXZ
	DD	FLAT:?GetBlowStateProtectionTime@ioNpcChar@@UAEKXZ
	DD	FLAT:?GetDelayAnimationIdx@ioBaseChar@@UBEHXZ
	DD	FLAT:?GetRunAnimationIdx@ioBaseChar@@UBEHXZ
	DD	FLAT:?GetDashRunAnimationIdx@ioBaseChar@@UBEHXZ
	DD	FLAT:?GetDefenseAnimationIdx@ioBaseChar@@UBEHXZ
	DD	FLAT:?GetWoundedAnimationIdx@ioBaseChar@@UBEHW4AttackSide@@W4BlowTargetType@@@Z
	DD	FLAT:?GetJumpReadyAnimationIdx@ioBaseChar@@UBEHXZ
	DD	FLAT:?GetJumppingAnimationIdx@ioBaseChar@@UBEH_N@Z
	DD	FLAT:?GetJumpEndAnimationIdx@ioBaseChar@@UAEHXZ
	DD	FLAT:?GetWeaponItemAniIdx@ioBaseChar@@UBEHW4AttackType@@H@Z
	DD	FLAT:?GetWeaponItemEndAniIdx@ioBaseChar@@UBEHW4AttackType@@H@Z
	DD	FLAT:?FaceChange@ioBaseChar@@UAEXPBDH@Z
	DD	FLAT:?HeadMeshChange@ioNpcChar@@UAEXPBDH@Z
	DD	FLAT:?CheckHeadMeshChange@ioNpcChar@@UAEXXZ
	DD	FLAT:?StopHeadMeshChange@ioNpcChar@@UAEXXZ
	DD	FLAT:?InitCustomInfo@ioNpcChar@@UAEXAAVioINILoader@@@Z
	DD	FLAT:?Initialize@ioNpcChar@@UAEXPBUITEM_DATA@@@Z
	DD	FLAT:?InitCustomEffect@ioNpcChar@@UAEXAAVioINILoader@@@Z
	DD	FLAT:?GetNpcType@ioNpcNexusGuard@@UBE?AW4NpcType@@XZ
	DD	FLAT:?ProcessAI@ioNpcChar@@MAEXXZ
	DD	FLAT:?ProcessBalanceCheck@ioNpcChar@@MAEXXZ
	DD	FLAT:?CehckStuckWeaponType@ioNpcChar@@MAE_NHH@Z
	DD	FLAT:?CheckStuckActive@ioNpcChar@@MAE_NH@Z
	DD	FLAT:?ActiveStuck@ioNpcChar@@UAEXXZ
; Function compile flags: /Ogsp
CONST	ENDS
;	COMDAT ??0ioNpcNexusGuard@@QAE@PAVioEntityGroup@@PAVioPlayStage@@PAVioPlayMode@@@Z
_TEXT	SEGMENT
_pGrp$ = 8						; size = 4
_pCreator$ = 12						; size = 4
_pMode$ = 16						; size = 4
??0ioNpcNexusGuard@@QAE@PAVioEntityGroup@@PAVioPlayStage@@PAVioPlayMode@@@Z PROC ; ioNpcNexusGuard::ioNpcNexusGuard, COMDAT
; _this$ = ecx

; 141  : {

  00000	55		 push	 ebp
  00001	8b ec		 mov	 ebp, esp
  00003	56		 push	 esi
  00004	ff 75 10	 push	 DWORD PTR _pMode$[ebp]
  00007	8b f1		 mov	 esi, ecx
  00009	ff 75 0c	 push	 DWORD PTR _pCreator$[ebp]
  0000c	ff 75 08	 push	 DWORD PTR _pGrp$[ebp]
  0000f	e8 00 00 00 00	 call	 ??0ioNpcBigTower@@QAE@PAVioEntityGroup@@PAVioPlayStage@@PAVioPlayMode@@@Z ; ioNpcBigTower::ioNpcBigTower
  00014	c7 06 00 00 00
	00		 mov	 DWORD PTR [esi], OFFSET ??_7ioNpcNexusGuard@@6BioPlayEntity@@@
  0001a	c7 86 c8 01 00
	00 00 00 00 00	 mov	 DWORD PTR [esi+456], OFFSET ??_7ioNpcNexusGuard@@6BioWorldEventReceiver@@@
  00024	c7 86 cc 01 00
	00 00 00 00 00	 mov	 DWORD PTR [esi+460], OFFSET ??_7ioNpcNexusGuard@@6B@

; 142  : 
; 143  : }

  0002e	8b c6		 mov	 eax, esi
  00030	5e		 pop	 esi
  00031	5d		 pop	 ebp
  00032	c2 0c 00	 ret	 12			; 0000000cH
??0ioNpcNexusGuard@@QAE@PAVioEntityGroup@@PAVioPlayStage@@PAVioPlayMode@@@Z ENDP ; ioNpcNexusGuard::ioNpcNexusGuard
_TEXT	ENDS
PUBLIC	??1ioNpcNexusGuard@@UAE@XZ			; ioNpcNexusGuard::~ioNpcNexusGuard
; Function compile flags: /Ogsp
;	COMDAT ??1ioNpcNexusGuard@@UAE@XZ
_TEXT	SEGMENT
??1ioNpcNexusGuard@@UAE@XZ PROC				; ioNpcNexusGuard::~ioNpcNexusGuard, COMDAT
; _this$ = ecx

; 146  : {

  00000	c7 01 00 00 00
	00		 mov	 DWORD PTR [ecx], OFFSET ??_7ioNpcNexusGuard@@6BioPlayEntity@@@
  00006	c7 81 c8 01 00
	00 00 00 00 00	 mov	 DWORD PTR [ecx+456], OFFSET ??_7ioNpcNexusGuard@@6BioWorldEventReceiver@@@
  00010	c7 81 cc 01 00
	00 00 00 00 00	 mov	 DWORD PTR [ecx+460], OFFSET ??_7ioNpcNexusGuard@@6B@

; 147  : 
; 148  : }

  0001a	e9 00 00 00 00	 jmp	 ??1ioNpcBigTower@@UAE@XZ ; ioNpcBigTower::~ioNpcBigTower
??1ioNpcNexusGuard@@UAE@XZ ENDP				; ioNpcNexusGuard::~ioNpcNexusGuard
; Function compile flags: /Ogsp
_TEXT	ENDS
;	COMDAT ?GetNpcType@ioNpcNexusGuard@@UBE?AW4NpcType@@XZ
_TEXT	SEGMENT
?GetNpcType@ioNpcNexusGuard@@UBE?AW4NpcType@@XZ PROC	; ioNpcNexusGuard::GetNpcType, COMDAT
; _this$ = ecx

; 152  : 	return NT_NEXUSGUARD;

  00000	6a 07		 push	 7
  00002	58		 pop	 eax

; 153  : }

  00003	c3		 ret	 0
?GetNpcType@ioNpcNexusGuard@@UBE?AW4NpcType@@XZ ENDP	; ioNpcNexusGuard::GetNpcType
; Function compile flags: /Ogsp
_TEXT	ENDS
;	COMDAT ?DontMoveEntityLevel@ioNpcNexusGuard@@UBEHXZ
_TEXT	SEGMENT
?DontMoveEntityLevel@ioNpcNexusGuard@@UBEHXZ PROC	; ioNpcNexusGuard::DontMoveEntityLevel, COMDAT
; _this$ = ecx

; 157  : 	return 5;

  00000	6a 05		 push	 5
  00002	58		 pop	 eax

; 158  : }

  00003	c3		 ret	 0
?DontMoveEntityLevel@ioNpcNexusGuard@@UBEHXZ ENDP	; ioNpcNexusGuard::DontMoveEntityLevel
; Function compile flags: /Odsp
_TEXT	ENDS
;	COMDAT ??_EioNpcLairGuard@@WBMM@AEPAXI@Z
_TEXT	SEGMENT
??_EioNpcLairGuard@@WBMM@AEPAXI@Z PROC			; [thunk]:ioNpcLairGuard::`vector deleting destructor', COMDAT
  00000	81 e9 cc 01 00
	00		 sub	 ecx, 460		; 000001ccH
  00006	e9 00 00 00 00	 jmp	 ??_EioNpcLairGuard@@UAEPAXI@Z
??_EioNpcLairGuard@@WBMM@AEPAXI@Z ENDP			; [thunk]:ioNpcLairGuard::`vector deleting destructor'
; Function compile flags: /Odsp
_TEXT	ENDS
;	COMDAT ??_EioNpcLair@@WBMM@AEPAXI@Z
_TEXT	SEGMENT
??_EioNpcLair@@WBMM@AEPAXI@Z PROC			; [thunk]:ioNpcLair::`vector deleting destructor', COMDAT
  00000	81 e9 cc 01 00
	00		 sub	 ecx, 460		; 000001ccH
  00006	e9 00 00 00 00	 jmp	 ??_EioNpcLair@@UAEPAXI@Z
??_EioNpcLair@@WBMM@AEPAXI@Z ENDP			; [thunk]:ioNpcLair::`vector deleting destructor'
; Function compile flags: /Odsp
_TEXT	ENDS
;	COMDAT ??_EioNpcNexus@@WBMI@AEPAXI@Z
_TEXT	SEGMENT
??_EioNpcNexus@@WBMI@AEPAXI@Z PROC			; [thunk]:ioNpcNexus::`vector deleting destructor', COMDAT
  00000	81 e9 c8 01 00
	00		 sub	 ecx, 456		; 000001c8H
  00006	e9 00 00 00 00	 jmp	 ??_EioNpcNexus@@UAEPAXI@Z
??_EioNpcNexus@@WBMI@AEPAXI@Z ENDP			; [thunk]:ioNpcNexus::`vector deleting destructor'
; Function compile flags: /Odsp
_TEXT	ENDS
;	COMDAT ??_EioNpcNexus@@WBMM@AEPAXI@Z
_TEXT	SEGMENT
??_EioNpcNexus@@WBMM@AEPAXI@Z PROC			; [thunk]:ioNpcNexus::`vector deleting destructor', COMDAT
  00000	81 e9 cc 01 00
	00		 sub	 ecx, 460		; 000001ccH
  00006	e9 00 00 00 00	 jmp	 ??_EioNpcNexus@@UAEPAXI@Z
??_EioNpcNexus@@WBMM@AEPAXI@Z ENDP			; [thunk]:ioNpcNexus::`vector deleting destructor'
; Function compile flags: /Odsp
_TEXT	ENDS
;	COMDAT ??_EioNpcTwGuard@@WBMI@AEPAXI@Z
_TEXT	SEGMENT
??_EioNpcTwGuard@@WBMI@AEPAXI@Z PROC			; [thunk]:ioNpcTwGuard::`vector deleting destructor', COMDAT
  00000	81 e9 c8 01 00
	00		 sub	 ecx, 456		; 000001c8H
  00006	e9 00 00 00 00	 jmp	 ??_EioNpcTwGuard@@UAEPAXI@Z
??_EioNpcTwGuard@@WBMI@AEPAXI@Z ENDP			; [thunk]:ioNpcTwGuard::`vector deleting destructor'
; Function compile flags: /Odsp
_TEXT	ENDS
;	COMDAT ??_EioNpcTwGuard@@WBMM@AEPAXI@Z
_TEXT	SEGMENT
??_EioNpcTwGuard@@WBMM@AEPAXI@Z PROC			; [thunk]:ioNpcTwGuard::`vector deleting destructor', COMDAT
  00000	81 e9 cc 01 00
	00		 sub	 ecx, 460		; 000001ccH
  00006	e9 00 00 00 00	 jmp	 ??_EioNpcTwGuard@@UAEPAXI@Z
??_EioNpcTwGuard@@WBMM@AEPAXI@Z ENDP			; [thunk]:ioNpcTwGuard::`vector deleting destructor'
; Function compile flags: /Odsp
_TEXT	ENDS
;	COMDAT ??_EioNpcNexusGuard@@WBMI@AEPAXI@Z
_TEXT	SEGMENT
??_EioNpcNexusGuard@@WBMI@AEPAXI@Z PROC			; [thunk]:ioNpcNexusGuard::`vector deleting destructor', COMDAT
  00000	81 e9 c8 01 00
	00		 sub	 ecx, 456		; 000001c8H
  00006	e9 00 00 00 00	 jmp	 ??_EioNpcNexusGuard@@UAEPAXI@Z
??_EioNpcNexusGuard@@WBMI@AEPAXI@Z ENDP			; [thunk]:ioNpcNexusGuard::`vector deleting destructor'
; Function compile flags: /Odsp
_TEXT	ENDS
;	COMDAT ??_EioNpcBigTower@@WBMI@AEPAXI@Z
_TEXT	SEGMENT
??_EioNpcBigTower@@WBMI@AEPAXI@Z PROC			; [thunk]:ioNpcBigTower::`vector deleting destructor', COMDAT
  00000	81 e9 c8 01 00
	00		 sub	 ecx, 456		; 000001c8H
  00006	e9 00 00 00 00	 jmp	 ??_EioNpcBigTower@@UAEPAXI@Z
??_EioNpcBigTower@@WBMI@AEPAXI@Z ENDP			; [thunk]:ioNpcBigTower::`vector deleting destructor'
; Function compile flags: /Odsp
_TEXT	ENDS
;	COMDAT ??_EioNpcNexusGuard@@WBMM@AEPAXI@Z
_TEXT	SEGMENT
??_EioNpcNexusGuard@@WBMM@AEPAXI@Z PROC			; [thunk]:ioNpcNexusGuard::`vector deleting destructor', COMDAT
  00000	81 e9 cc 01 00
	00		 sub	 ecx, 460		; 000001ccH
  00006	e9 00 00 00 00	 jmp	 ??_EioNpcNexusGuard@@UAEPAXI@Z
??_EioNpcNexusGuard@@WBMM@AEPAXI@Z ENDP			; [thunk]:ioNpcNexusGuard::`vector deleting destructor'
; Function compile flags: /Odsp
_TEXT	ENDS
;	COMDAT ??_EioNpcLairGuard@@WBMI@AEPAXI@Z
_TEXT	SEGMENT
??_EioNpcLairGuard@@WBMI@AEPAXI@Z PROC			; [thunk]:ioNpcLairGuard::`vector deleting destructor', COMDAT
  00000	81 e9 c8 01 00
	00		 sub	 ecx, 456		; 000001c8H
  00006	e9 00 00 00 00	 jmp	 ??_EioNpcLairGuard@@UAEPAXI@Z
??_EioNpcLairGuard@@WBMI@AEPAXI@Z ENDP			; [thunk]:ioNpcLairGuard::`vector deleting destructor'
; Function compile flags: /Odsp
_TEXT	ENDS
;	COMDAT ??_EioNpcLair@@WBMI@AEPAXI@Z
_TEXT	SEGMENT
??_EioNpcLair@@WBMI@AEPAXI@Z PROC			; [thunk]:ioNpcLair::`vector deleting destructor', COMDAT
  00000	81 e9 c8 01 00
	00		 sub	 ecx, 456		; 000001c8H
  00006	e9 00 00 00 00	 jmp	 ??_EioNpcLair@@UAEPAXI@Z
??_EioNpcLair@@WBMI@AEPAXI@Z ENDP			; [thunk]:ioNpcLair::`vector deleting destructor'
; Function compile flags: /Odsp
_TEXT	ENDS
;	COMDAT ??_EioNpcBigTower@@WBMM@AEPAXI@Z
_TEXT	SEGMENT
??_EioNpcBigTower@@WBMM@AEPAXI@Z PROC			; [thunk]:ioNpcBigTower::`vector deleting destructor', COMDAT
  00000	81 e9 cc 01 00
	00		 sub	 ecx, 460		; 000001ccH
  00006	e9 00 00 00 00	 jmp	 ??_EioNpcBigTower@@UAEPAXI@Z
??_EioNpcBigTower@@WBMM@AEPAXI@Z ENDP			; [thunk]:ioNpcBigTower::`vector deleting destructor'
; Function compile flags: /Ogsp
; File d:\lost saga for developer\youtube\tutorial\source\src\lsclient\iogameentity.h
_TEXT	ENDS
;	COMDAT ?NeedUpdateBottomHeight@ioGameEntity@@UAEXXZ
_TEXT	SEGMENT
?NeedUpdateBottomHeight@ioGameEntity@@UAEXXZ PROC	; ioGameEntity::NeedUpdateBottomHeight, COMDAT
; _this$ = ecx

; 133  : 	virtual void NeedUpdateBottomHeight() { m_bNeedUpdateBottomHeight = true; }

  00000	c6 81 89 00 00
	00 01		 mov	 BYTE PTR [ecx+137], 1
  00007	c3		 ret	 0
?NeedUpdateBottomHeight@ioGameEntity@@UAEXXZ ENDP	; ioGameEntity::NeedUpdateBottomHeight
_TEXT	ENDS
EXTRN	??3@YAXPAX@Z:PROC				; operator delete
; Function compile flags: /Ogsp
;	COMDAT ??_GioNpcBigTower@@UAEPAXI@Z
_TEXT	SEGMENT
___flags$ = 8						; size = 4
??_GioNpcBigTower@@UAEPAXI@Z PROC			; ioNpcBigTower::`scalar deleting destructor', COMDAT
; _this$ = ecx
  00000	55		 push	 ebp
  00001	8b ec		 mov	 ebp, esp
  00003	56		 push	 esi
  00004	8b f1		 mov	 esi, ecx
  00006	e8 00 00 00 00	 call	 ??1ioNpcBigTower@@UAE@XZ ; ioNpcBigTower::~ioNpcBigTower
  0000b	f6 45 08 01	 test	 BYTE PTR ___flags$[ebp], 1
  0000f	74 07		 je	 SHORT $LN1@scalar
  00011	56		 push	 esi
  00012	e8 00 00 00 00	 call	 ??3@YAXPAX@Z		; operator delete
  00017	59		 pop	 ecx
$LN1@scalar:
  00018	8b c6		 mov	 eax, esi
  0001a	5e		 pop	 esi
  0001b	5d		 pop	 ebp
  0001c	c2 04 00	 ret	 4
??_GioNpcBigTower@@UAEPAXI@Z ENDP			; ioNpcBigTower::`scalar deleting destructor'
; Function compile flags: /Ogsp
_TEXT	ENDS
;	COMDAT ??_GioNpcTwGuard@@UAEPAXI@Z
_TEXT	SEGMENT
___flags$ = 8						; size = 4
??_GioNpcTwGuard@@UAEPAXI@Z PROC			; ioNpcTwGuard::`scalar deleting destructor', COMDAT
; _this$ = ecx
  00000	55		 push	 ebp
  00001	8b ec		 mov	 ebp, esp
  00003	56		 push	 esi
  00004	8b f1		 mov	 esi, ecx
  00006	e8 00 00 00 00	 call	 ??1ioNpcTwGuard@@UAE@XZ	; ioNpcTwGuard::~ioNpcTwGuard
  0000b	f6 45 08 01	 test	 BYTE PTR ___flags$[ebp], 1
  0000f	74 07		 je	 SHORT $LN1@scalar@2
  00011	56		 push	 esi
  00012	e8 00 00 00 00	 call	 ??3@YAXPAX@Z		; operator delete
  00017	59		 pop	 ecx
$LN1@scalar@2:
  00018	8b c6		 mov	 eax, esi
  0001a	5e		 pop	 esi
  0001b	5d		 pop	 ebp
  0001c	c2 04 00	 ret	 4
??_GioNpcTwGuard@@UAEPAXI@Z ENDP			; ioNpcTwGuard::`scalar deleting destructor'
; Function compile flags: /Ogsp
_TEXT	ENDS
;	COMDAT ??_GioNpcLair@@UAEPAXI@Z
_TEXT	SEGMENT
___flags$ = 8						; size = 4
??_GioNpcLair@@UAEPAXI@Z PROC				; ioNpcLair::`scalar deleting destructor', COMDAT
; _this$ = ecx
  00000	55		 push	 ebp
  00001	8b ec		 mov	 ebp, esp
  00003	56		 push	 esi
  00004	8b f1		 mov	 esi, ecx
  00006	e8 00 00 00 00	 call	 ??1ioNpcLair@@UAE@XZ	; ioNpcLair::~ioNpcLair
  0000b	f6 45 08 01	 test	 BYTE PTR ___flags$[ebp], 1
  0000f	74 07		 je	 SHORT $LN1@scalar@3
  00011	56		 push	 esi
  00012	e8 00 00 00 00	 call	 ??3@YAXPAX@Z		; operator delete
  00017	59		 pop	 ecx
$LN1@scalar@3:
  00018	8b c6		 mov	 eax, esi
  0001a	5e		 pop	 esi
  0001b	5d		 pop	 ebp
  0001c	c2 04 00	 ret	 4
??_GioNpcLair@@UAEPAXI@Z ENDP				; ioNpcLair::`scalar deleting destructor'
; Function compile flags: /Ogsp
_TEXT	ENDS
;	COMDAT ??_GioNpcLairGuard@@UAEPAXI@Z
_TEXT	SEGMENT
___flags$ = 8						; size = 4
??_GioNpcLairGuard@@UAEPAXI@Z PROC			; ioNpcLairGuard::`scalar deleting destructor', COMDAT
; _this$ = ecx
  00000	55		 push	 ebp
  00001	8b ec		 mov	 ebp, esp
  00003	56		 push	 esi
  00004	8b f1		 mov	 esi, ecx
  00006	e8 00 00 00 00	 call	 ??1ioNpcLairGuard@@UAE@XZ ; ioNpcLairGuard::~ioNpcLairGuard
  0000b	f6 45 08 01	 test	 BYTE PTR ___flags$[ebp], 1
  0000f	74 07		 je	 SHORT $LN1@scalar@4
  00011	56		 push	 esi
  00012	e8 00 00 00 00	 call	 ??3@YAXPAX@Z		; operator delete
  00017	59		 pop	 ecx
$LN1@scalar@4:
  00018	8b c6		 mov	 eax, esi
  0001a	5e		 pop	 esi
  0001b	5d		 pop	 ebp
  0001c	c2 04 00	 ret	 4
??_GioNpcLairGuard@@UAEPAXI@Z ENDP			; ioNpcLairGuard::`scalar deleting destructor'
; Function compile flags: /Ogsp
_TEXT	ENDS
;	COMDAT ??_GioNpcNexus@@UAEPAXI@Z
_TEXT	SEGMENT
___flags$ = 8						; size = 4
??_GioNpcNexus@@UAEPAXI@Z PROC				; ioNpcNexus::`scalar deleting destructor', COMDAT
; _this$ = ecx
  00000	55		 push	 ebp
  00001	8b ec		 mov	 ebp, esp
  00003	56		 push	 esi
  00004	8b f1		 mov	 esi, ecx
  00006	e8 00 00 00 00	 call	 ??1ioNpcNexus@@UAE@XZ	; ioNpcNexus::~ioNpcNexus
  0000b	f6 45 08 01	 test	 BYTE PTR ___flags$[ebp], 1
  0000f	74 07		 je	 SHORT $LN1@scalar@5
  00011	56		 push	 esi
  00012	e8 00 00 00 00	 call	 ??3@YAXPAX@Z		; operator delete
  00017	59		 pop	 ecx
$LN1@scalar@5:
  00018	8b c6		 mov	 eax, esi
  0001a	5e		 pop	 esi
  0001b	5d		 pop	 ebp
  0001c	c2 04 00	 ret	 4
??_GioNpcNexus@@UAEPAXI@Z ENDP				; ioNpcNexus::`scalar deleting destructor'
; Function compile flags: /Ogsp
_TEXT	ENDS
;	COMDAT ??_GioNpcNexusGuard@@UAEPAXI@Z
_TEXT	SEGMENT
___flags$ = 8						; size = 4
??_GioNpcNexusGuard@@UAEPAXI@Z PROC			; ioNpcNexusGuard::`scalar deleting destructor', COMDAT
; _this$ = ecx
  00000	55		 push	 ebp
  00001	8b ec		 mov	 ebp, esp
  00003	56		 push	 esi
  00004	8b f1		 mov	 esi, ecx
  00006	e8 00 00 00 00	 call	 ??1ioNpcNexusGuard@@UAE@XZ ; ioNpcNexusGuard::~ioNpcNexusGuard
  0000b	f6 45 08 01	 test	 BYTE PTR ___flags$[ebp], 1
  0000f	74 07		 je	 SHORT $LN1@scalar@6
  00011	56		 push	 esi
  00012	e8 00 00 00 00	 call	 ??3@YAXPAX@Z		; operator delete
  00017	59		 pop	 ecx
$LN1@scalar@6:
  00018	8b c6		 mov	 eax, esi
  0001a	5e		 pop	 esi
  0001b	5d		 pop	 ebp
  0001c	c2 04 00	 ret	 4
??_GioNpcNexusGuard@@UAEPAXI@Z ENDP			; ioNpcNexusGuard::`scalar deleting destructor'
_TEXT	ENDS
END
