; Listing generated by Microsoft (R) Optimizing Compiler Version 16.00.30319.01 

	TITLE	D:\Lost Saga For Developer\Youtube\Tutorial\Source\src\LSClient\ioNuclearWeapon.cpp
	.686P
	.XMM
	include listing.inc
	.model	flat

INCLUDELIB MSVCRT
INCLUDELIB OLDNAMES

PUBLIC	?_EEM_DS@?$deque@UD3DXVECTOR3@@V?$allocator@UD3DXVECTOR3@@@std@@@std@@2HB ; std::deque<D3DXVECTOR3,std::allocator<D3DXVECTOR3> >::_EEM_DS
PUBLIC	?m_ActionStopType@ioNuclearWeapon@@2W4ActionStopType@@A ; ioNuclearWeapon::m_ActionStopType
PUBLIC	?m_DieActionStopType@ioNuclearWeapon@@2W4ActionStopType@@A ; ioNuclearWeapon::m_DieActionStopType
_BSS	SEGMENT
?m_ActionStopType@ioNuclearWeapon@@2W4ActionStopType@@A DD 01H DUP (?) ; ioNuclearWeapon::m_ActionStopType
?m_DieActionStopType@ioNuclearWeapon@@2W4ActionStopType@@A DD 01H DUP (?) ; ioNuclearWeapon::m_DieActionStopType
_BSS	ENDS
;	COMDAT ?_EEM_DS@?$deque@UD3DXVECTOR3@@V?$allocator@UD3DXVECTOR3@@@std@@@std@@2HB
CONST	SEGMENT
?_EEM_DS@?$deque@UD3DXVECTOR3@@V?$allocator@UD3DXVECTOR3@@@std@@@std@@2HB DD 01H ; std::deque<D3DXVECTOR3,std::allocator<D3DXVECTOR3> >::_EEM_DS
CONST	ENDS
PUBLIC	?return1@@YAIXZ					; return1
; Function compile flags: /Ogsp
; File d:\lost saga for developer\youtube\tutorial\source\src\lsclient\stdafx.h
;	COMDAT ?return1@@YAIXZ
_TEXT	SEGMENT
?return1@@YAIXZ PROC					; return1, COMDAT

; 17   : 	__forceinline unsigned int return1() { __asm mov eax, 1 };

  00000	b8 01 00 00 00	 mov	 eax, 1
  00005	c3		 ret	 0
?return1@@YAIXZ ENDP					; return1
_TEXT	ENDS
PUBLIC	?return1000@@YAIXZ				; return1000
; Function compile flags: /Ogsp
;	COMDAT ?return1000@@YAIXZ
_TEXT	SEGMENT
?return1000@@YAIXZ PROC					; return1000, COMDAT

; 29   : 	__forceinline unsigned int return1000() { __asm mov eax, 1000 };

  00000	b8 e8 03 00 00	 mov	 eax, 1000		; 000003e8H
  00005	c3		 ret	 0
?return1000@@YAIXZ ENDP					; return1000
_TEXT	ENDS
PUBLIC	?GetCharName@ioBaseChar@@QBEABVioHashString@@XZ	; ioBaseChar::GetCharName
; Function compile flags: /Ogsp
; File d:\lost saga for developer\youtube\tutorial\source\src\lsclient\iobasechar.h
;	COMDAT ?GetCharName@ioBaseChar@@QBEABVioHashString@@XZ
_TEXT	SEGMENT
?GetCharName@ioBaseChar@@QBEABVioHashString@@XZ PROC	; ioBaseChar::GetCharName, COMDAT
; _this$ = ecx

; 2594 : 	inline const ioHashString& GetCharName() const { return m_Name; }

  00000	8d 81 d4 02 00
	00		 lea	 eax, DWORD PTR [ecx+724]
  00006	c3		 ret	 0
?GetCharName@ioBaseChar@@QBEABVioHashString@@XZ ENDP	; ioBaseChar::GetCharName
_TEXT	ENDS
PUBLIC	_fabsf
EXTRN	__fltused:DWORD
; Function compile flags: /Ogsp
; File c:\program files (x86)\microsoft visual studio 10.0\vc\include\math.h
;	COMDAT _fabsf
_TEXT	SEGMENT
tv129 = 8						; size = 4
__X$ = 8						; size = 4
_fabsf	PROC						; COMDAT

; 395  :         {return ((float)fabs((double)_X)); }

  00000	55		 push	 ebp
  00001	8b ec		 mov	 ebp, esp
  00003	d9 45 08	 fld	 DWORD PTR __X$[ebp]
  00006	d9 e1		 fabs
  00008	d9 5d 08	 fstp	 DWORD PTR tv129[ebp]
  0000b	d9 45 08	 fld	 DWORD PTR tv129[ebp]
  0000e	5d		 pop	 ebp
  0000f	c3		 ret	 0
_fabsf	ENDP
_TEXT	ENDS
PUBLIC	_sqrtf
EXTRN	__CIsqrt:PROC
; Function compile flags: /Ogsp
;	COMDAT _sqrtf
_TEXT	SEGMENT
tv69 = 8						; size = 4
__X$ = 8						; size = 4
_sqrtf	PROC						; COMDAT

; 434  :         {return ((float)sqrt((double)_X)); }

  00000	55		 push	 ebp
  00001	8b ec		 mov	 ebp, esp
  00003	d9 45 08	 fld	 DWORD PTR __X$[ebp]
  00006	e8 00 00 00 00	 call	 __CIsqrt
  0000b	d9 5d 08	 fstp	 DWORD PTR tv69[ebp]
  0000e	d9 45 08	 fld	 DWORD PTR tv69[ebp]
  00011	5d		 pop	 ebp
  00012	c3		 ret	 0
_sqrtf	ENDP
_TEXT	ENDS
PUBLIC	?fabs@@YAMM@Z					; fabs
; Function compile flags: /Ogsp
;	COMDAT ?fabs@@YAMM@Z
_TEXT	SEGMENT
tv131 = 8						; size = 4
__X$ = 8						; size = 4
?fabs@@YAMM@Z PROC					; fabs, COMDAT

; 518  :         {return (fabsf(_X)); }

  00000	55		 push	 ebp
  00001	8b ec		 mov	 ebp, esp
  00003	d9 45 08	 fld	 DWORD PTR __X$[ebp]
  00006	d9 e1		 fabs
  00008	d9 5d 08	 fstp	 DWORD PTR tv131[ebp]
  0000b	d9 45 08	 fld	 DWORD PTR tv131[ebp]
  0000e	5d		 pop	 ebp
  0000f	c3		 ret	 0
?fabs@@YAMM@Z ENDP					; fabs
_TEXT	ENDS
PUBLIC	??_C@_0DI@DPLNAFDJ@ioNuclearWeapon?3?3?$HOioNuclearWeapo@ ; `string'
PUBLIC	??_7ioNuclearWeapon@@6B@			; ioNuclearWeapon::`vftable'
PUBLIC	??1ioNuclearWeapon@@UAE@XZ			; ioNuclearWeapon::~ioNuclearWeapon
PUBLIC	??_R4ioNuclearWeapon@@6B@			; ioNuclearWeapon::`RTTI Complete Object Locator'
PUBLIC	??_R0?AVioNuclearWeapon@@@8			; ioNuclearWeapon `RTTI Type Descriptor'
PUBLIC	??_R3ioNuclearWeapon@@8				; ioNuclearWeapon::`RTTI Class Hierarchy Descriptor'
PUBLIC	??_R2ioNuclearWeapon@@8				; ioNuclearWeapon::`RTTI Base Class Array'
PUBLIC	??_R1A@?0A@EA@ioNuclearWeapon@@8		; ioNuclearWeapon::`RTTI Base Class Descriptor at (0,-1,0,64)'
PUBLIC	??_R1A@?0A@EA@ioWeapon@@8			; ioWeapon::`RTTI Base Class Descriptor at (0,-1,0,64)'
PUBLIC	??_R0?AVioWeapon@@@8				; ioWeapon `RTTI Type Descriptor'
PUBLIC	??_R3ioWeapon@@8				; ioWeapon::`RTTI Class Hierarchy Descriptor'
PUBLIC	??_R2ioWeapon@@8				; ioWeapon::`RTTI Base Class Array'
PUBLIC	?GetCollisionEnableTime@ioNuclearWeapon@@UBEKXZ	; ioNuclearWeapon::GetCollisionEnableTime
PUBLIC	?InitResource@ioNuclearWeapon@@UAE_NXZ		; ioNuclearWeapon::InitResource
PUBLIC	?DestroyResource@ioNuclearWeapon@@UAEXPAVioPlayStage@@@Z ; ioNuclearWeapon::DestroyResource
PUBLIC	?LoadProperty@ioNuclearWeapon@@UAEXAAVioINILoader@@@Z ; ioNuclearWeapon::LoadProperty
PUBLIC	?SetStartPosition@ioNuclearWeapon@@UAEXABUD3DXVECTOR3@@PAVioPlayStage@@@Z ; ioNuclearWeapon::SetStartPosition
PUBLIC	?Process@ioNuclearWeapon@@UAEXMPAVioPlayStage@@@Z ; ioNuclearWeapon::Process
PUBLIC	?IsCollision@ioNuclearWeapon@@UAE_NPAVioPlayEntity@@_N@Z ; ioNuclearWeapon::IsCollision
PUBLIC	?CheckPreCollision@ioNuclearWeapon@@UAEXPAVioPlayEntity@@PAVioPlayStage@@@Z ; ioNuclearWeapon::CheckPreCollision
PUBLIC	?GetLocalAttackBox@ioNuclearWeapon@@UBEABVioOrientBox@@XZ ; ioNuclearWeapon::GetLocalAttackBox
PUBLIC	?GetType@ioNuclearWeapon@@UBE?AW4WeaponType@ioWeapon@@XZ ; ioNuclearWeapon::GetType
PUBLIC	?GetActionStopType@ioNuclearWeapon@@UBE?AW4ActionStopType@@XZ ; ioNuclearWeapon::GetActionStopType
PUBLIC	?GetDieActionStopType@ioNuclearWeapon@@UBE?AW4ActionStopType@@XZ ; ioNuclearWeapon::GetDieActionStopType
PUBLIC	?UpdateWorldAttackBox@ioNuclearWeapon@@MAEXM_N@Z ; ioNuclearWeapon::UpdateWorldAttackBox
EXTRN	??1ioWeapon@@UAE@XZ:PROC			; ioWeapon::~ioWeapon
EXTRN	__imp_??1ioOrientBox@@QAE@XZ:PROC
EXTRN	__imp_??1ioHashString@@QAE@XZ:PROC
EXTRN	__imp_?PrintTimeAndLog@CLog@@QAAXHPADZZ:PROC
EXTRN	__imp_?LOG@@3VCLog@@A:BYTE
EXTRN	___CxxFrameHandler3:PROC
EXTRN	@__security_check_cookie@4:PROC
EXTRN	__EH_epilog3:PROC
EXTRN	__EH_prolog3:PROC
EXTRN	??_7type_info@@6B@:QWORD			; type_info::`vftable'
EXTRN	?IsAlreadyCollisioned@ioWeapon@@UAE_NPAVioPlayEntity@@@Z:PROC ; ioWeapon::IsAlreadyCollisioned
EXTRN	?AddCollisionEntity@ioWeapon@@UAEXPAVioPlayEntity@@@Z:PROC ; ioWeapon::AddCollisionEntity
EXTRN	?SetOwnerDamageRate@ioWeapon@@UAEXM@Z:PROC	; ioWeapon::SetOwnerDamageRate
EXTRN	?SetOwnerChargeDamageRate@ioWeapon@@UAEXM@Z:PROC ; ioWeapon::SetOwnerChargeDamageRate
EXTRN	?SetOwnerChargeForceRate@ioWeapon@@UAEXM@Z:PROC	; ioWeapon::SetOwnerChargeForceRate
EXTRN	?SetOwnerChargeRangeRate@ioWeapon@@UAEXM@Z:PROC	; ioWeapon::SetOwnerChargeRangeRate
EXTRN	?SetOwnerChargeSpeedRate@ioWeapon@@UAEXM@Z:PROC	; ioWeapon::SetOwnerChargeSpeedRate
EXTRN	?SetOwnerChargeBlowRate@ioWeapon@@UAEXM@Z:PROC	; ioWeapon::SetOwnerChargeBlowRate
EXTRN	?SetOwnerChargeFloatRate@ioWeapon@@UAEXM@Z:PROC	; ioWeapon::SetOwnerChargeFloatRate
EXTRN	?SetOwnerChargeScaleRate@ioWeapon@@UAEXM@Z:PROC	; ioWeapon::SetOwnerChargeScaleRate
EXTRN	?SetOwnerChargeExplosionRate@ioWeapon@@UAEXM@Z:PROC ; ioWeapon::SetOwnerChargeExplosionRate
EXTRN	?SetOwnerChargeWoundedTimeRate@ioWeapon@@UAEXM@Z:PROC ; ioWeapon::SetOwnerChargeWoundedTimeRate
EXTRN	?SetOwnerChargeLiveTimeRate@ioWeapon@@UAEXM@Z:PROC ; ioWeapon::SetOwnerChargeLiveTimeRate
EXTRN	?SetOwnerChargeBuffLiveTimeRate@ioWeapon@@UAEXM@Z:PROC ; ioWeapon::SetOwnerChargeBuffLiveTimeRate
EXTRN	?SetWeaponIndex@ioWeapon@@UAEXK@Z:PROC		; ioWeapon::SetWeaponIndex
EXTRN	?SetGrapplingTargetName@ioWeapon@@UAEXABVioHashString@@@Z:PROC ; ioWeapon::SetGrapplingTargetName
EXTRN	?SetCreateItem@ioWeapon@@UAEXABVioHashString@@@Z:PROC ; ioWeapon::SetCreateItem
EXTRN	?SetTeam@ioWeapon@@UAEXPAVioPlayStage@@W4TeamType@@@Z:PROC ; ioWeapon::SetTeam
EXTRN	?CallReserveAreaWeapon@ioWeapon@@UAEXXZ:PROC	; ioWeapon::CallReserveAreaWeapon
EXTRN	?SetWeaponDead@ioWeapon@@UAEXXZ:PROC		; ioWeapon::SetWeaponDead
EXTRN	?PlayExplosionSound@ioWeapon@@UAEXXZ:PROC	; ioWeapon::PlayExplosionSound
EXTRN	?PlayWoundedSound@ioWeapon@@UAEXPAVioPlayEntity@@@Z:PROC ; ioWeapon::PlayWoundedSound
EXTRN	?PlayDefensedSound@ioWeapon@@UAEXPAVioPlayEntity@@@Z:PROC ; ioWeapon::PlayDefensedSound
EXTRN	?PlayLoopSound@ioWeapon@@UAEXXZ:PROC		; ioWeapon::PlayLoopSound
EXTRN	?StopLoopSound@ioWeapon@@UAEXXZ:PROC		; ioWeapon::StopLoopSound
EXTRN	?GetTargetAirBuffList@ioWeapon@@UBEABV?$vector@UBuffInfoStruct@@V?$allocator@UBuffInfoStruct@@@std@@@std@@XZ:PROC ; ioWeapon::GetTargetAirBuffList
EXTRN	?GetTargetBuffList@ioWeapon@@UBEABV?$vector@UBuffInfoStruct@@V?$allocator@UBuffInfoStruct@@@std@@@std@@XZ:PROC ; ioWeapon::GetTargetBuffList
EXTRN	?GetTargetDownBuffList@ioWeapon@@UBEABV?$vector@UBuffInfoStruct@@V?$allocator@UBuffInfoStruct@@@std@@@std@@XZ:PROC ; ioWeapon::GetTargetDownBuffList
EXTRN	?GetPosition@ioWeapon@@UBEABUD3DXVECTOR3@@XZ:PROC ; ioWeapon::GetPosition
EXTRN	?GetBlowType@ioWeapon@@UBE?AW4BlowTargetType@@XZ:PROC ; ioWeapon::GetBlowType
EXTRN	?GetPushPower@ioWeapon@@UBEMM@Z:PROC		; ioWeapon::GetPushPower
EXTRN	?GetBlowPower@ioWeapon@@UBEMM@Z:PROC		; ioWeapon::GetBlowPower
EXTRN	?GetAirPushPower@ioWeapon@@UBEMM@Z:PROC		; ioWeapon::GetAirPushPower
EXTRN	?GetAirBlowPower@ioWeapon@@UBEMM@Z:PROC		; ioWeapon::GetAirBlowPower
EXTRN	?GetDefensePushPower@ioWeapon@@UBEMM@Z:PROC	; ioWeapon::GetDefensePushPower
EXTRN	?SetSylphid@ioWeapon@@UAEHXZ:PROC		; ioWeapon::SetSylphid
EXTRN	?ApplyExtraReserveWeaponByWeaponInfo@ioWeapon@@UAEXPAV1@@Z:PROC ; ioWeapon::ApplyExtraReserveWeaponByWeaponInfo
EXTRN	?SetResistanceAttr@ioWeapon@@UAEXH@Z:PROC	; ioWeapon::SetResistanceAttr
EXTRN	?SetStartCollisionBox@ioWeapon@@UAEXXZ:PROC	; ioWeapon::SetStartCollisionBox
EXTRN	?SetLiveTime@ioWeapon@@UAEXK@Z:PROC		; ioWeapon::SetLiveTime
EXTRN	?SetMoveDir@ioWeapon@@UAEXABUD3DXVECTOR3@@@Z:PROC ; ioWeapon::SetMoveDir
EXTRN	?SetMoveSpeed@ioWeapon@@UAEXM@Z:PROC		; ioWeapon::SetMoveSpeed
EXTRN	?SetFloatPower@ioWeapon@@UAEXM@Z:PROC		; ioWeapon::SetFloatPower
EXTRN	?TestMapCollision@ioWeapon@@UAE_NPAVioOpcodeShape@@PAVioPlayStage@@PBUD3DXMATRIX@@@Z:PROC ; ioWeapon::TestMapCollision
EXTRN	?CheckStructAndDummy@ioWeapon@@UAEXPAVioPlayEntity@@PAVioPlayStage@@@Z:PROC ; ioWeapon::CheckStructAndDummy
EXTRN	?GetDamage@ioWeapon@@UAEMPAVioPlayEntity@@@Z:PROC ; ioWeapon::GetDamage
EXTRN	?GetBaseDamage@ioWeapon@@UAEMPAVioPlayEntity@@@Z:PROC ; ioWeapon::GetBaseDamage
EXTRN	?GetPushAngle@ioWeapon@@UBEMXZ:PROC		; ioWeapon::GetPushAngle
EXTRN	?IsResistanceMagic@ioWeapon@@UAEHPAVioBaseChar@@@Z:PROC ; ioWeapon::IsResistanceMagic
EXTRN	?IsResistanceBomb@ioWeapon@@UAEHPAVioBaseChar@@@Z:PROC ; ioWeapon::IsResistanceBomb
EXTRN	?IsCanMineExplosion@ioWeapon@@UAE_NXZ:PROC	; ioWeapon::IsCanMineExplosion
EXTRN	?CheckGrapplingState@ioWeapon@@UAE?AW4GrapplingType@@XZ:PROC ; ioWeapon::CheckGrapplingState
EXTRN	?CheckCurAttribute@ioWeapon@@UAEXPBVioPlayEntity@@@Z:PROC ; ioWeapon::CheckCurAttribute
EXTRN	?CheckItemNotDrop@ioWeapon@@UAE_NPAVioBaseChar@@@Z:PROC ; ioWeapon::CheckItemNotDrop
EXTRN	?GetWorldAttackBoxList@ioWeapon@@UAEXAAV?$vector@VioOrientBox@@V?$allocator@VioOrientBox@@@std@@@std@@@Z:PROC ; ioWeapon::GetWorldAttackBoxList
EXTRN	?GetAttackDir@ioWeapon@@UBE?AUD3DXVECTOR3@@PBVioPlayEntity@@@Z:PROC ; ioWeapon::GetAttackDir
EXTRN	?GetLiveTime@ioWeapon@@UAEKXZ:PROC		; ioWeapon::GetLiveTime
EXTRN	?GetMoveDir@ioWeapon@@UAE?AUD3DXVECTOR3@@XZ:PROC ; ioWeapon::GetMoveDir
EXTRN	?CheckWeaponCollision@ioWeapon@@UAEXXZ:PROC	; ioWeapon::CheckWeaponCollision
EXTRN	?GetRefreshDuration@ioWeapon@@UAEKXZ:PROC	; ioWeapon::GetRefreshDuration
EXTRN	?GetIgnoreDuration@ioWeapon@@UAEKXZ:PROC	; ioWeapon::GetIgnoreDuration
EXTRN	?GetIgnoreTimeTypeDuration@ioWeapon@@UAEKXZ:PROC ; ioWeapon::GetIgnoreTimeTypeDuration
EXTRN	?GetIgnoreTimeType@ioWeapon@@UAEKXZ:PROC	; ioWeapon::GetIgnoreTimeType
EXTRN	?ApplyWeaponSync@ioWeapon@@UAEXAAVSP2Packet@@PAVioPlayStage@@@Z:PROC ; ioWeapon::ApplyWeaponSync
EXTRN	?IsSkillDependency@ioWeapon@@UAE_NABVioHashString@@@Z:PROC ; ioWeapon::IsSkillDependency
EXTRN	?SetSkillDependencyAction@ioWeapon@@UAEXXZ:PROC	; ioWeapon::SetSkillDependencyAction
EXTRN	?GetAttribute@ioWeapon@@MBEPBUWeaponAttribute@@XZ:PROC ; ioWeapon::GetAttribute
EXTRN	?CalcFinalDamage@ioWeapon@@MAEMXZ:PROC		; ioWeapon::CalcFinalDamage
EXTRN	?CalcFinalBoundDamage@ioWeapon@@MAEMXZ:PROC	; ioWeapon::CalcFinalBoundDamage
EXTRN	?CheckPiercing@ioWeapon@@MAE_N_N@Z:PROC		; ioWeapon::CheckPiercing
EXTRN	?ClearCollisionList@ioWeapon@@MAEXXZ:PROC	; ioWeapon::ClearCollisionList
EXTRN	?CheckCreateWeaponList@ioWeapon@@MAEXXZ:PROC	; ioWeapon::CheckCreateWeaponList
EXTRN	?CreateCollisionAreaWeapon@ioWeapon@@MAEXXZ:PROC ; ioWeapon::CreateCollisionAreaWeapon
EXTRN	?SetMapCollision@ioWeapon@@UAEXXZ:PROC		; ioWeapon::SetMapCollision
EXTRN	?IsIgnoreMapCollision@ioWeapon@@UBE_NXZ:PROC	; ioWeapon::IsIgnoreMapCollision
EXTRN	?IsIgnoreTestMapCollision@ioWeapon@@UBE_NXZ:PROC ; ioWeapon::IsIgnoreTestMapCollision
EXTRN	?IsIgnoreMapCollisionEffect@ioWeapon@@UBE_NXZ:PROC ; ioWeapon::IsIgnoreMapCollisionEffect
EXTRN	?AddEffectEvent@ioWeapon@@MAEXPAVioEffect@@@Z:PROC ; ioWeapon::AddEffectEvent
EXTRN	??_EioNuclearWeapon@@UAEPAXI@Z:PROC		; ioNuclearWeapon::`vector deleting destructor'
;	COMDAT ??_R2ioWeapon@@8
; File d:\lost saga for developer\youtube\tutorial\source\src\lsclient\ionuclearweapon.cpp
rdata$r	SEGMENT
??_R2ioWeapon@@8 DD FLAT:??_R1A@?0A@EA@ioWeapon@@8	; ioWeapon::`RTTI Base Class Array'
rdata$r	ENDS
;	COMDAT ??_R3ioWeapon@@8
rdata$r	SEGMENT
??_R3ioWeapon@@8 DD 00H					; ioWeapon::`RTTI Class Hierarchy Descriptor'
	DD	00H
	DD	01H
	DD	FLAT:??_R2ioWeapon@@8
rdata$r	ENDS
;	COMDAT ??_R0?AVioWeapon@@@8
_DATA	SEGMENT
??_R0?AVioWeapon@@@8 DD FLAT:??_7type_info@@6B@		; ioWeapon `RTTI Type Descriptor'
	DD	00H
	DB	'.?AVioWeapon@@', 00H
_DATA	ENDS
;	COMDAT ??_R1A@?0A@EA@ioWeapon@@8
rdata$r	SEGMENT
??_R1A@?0A@EA@ioWeapon@@8 DD FLAT:??_R0?AVioWeapon@@@8	; ioWeapon::`RTTI Base Class Descriptor at (0,-1,0,64)'
	DD	00H
	DD	00H
	DD	0ffffffffH
	DD	00H
	DD	040H
	DD	FLAT:??_R3ioWeapon@@8
rdata$r	ENDS
;	COMDAT ??_R1A@?0A@EA@ioNuclearWeapon@@8
rdata$r	SEGMENT
??_R1A@?0A@EA@ioNuclearWeapon@@8 DD FLAT:??_R0?AVioNuclearWeapon@@@8 ; ioNuclearWeapon::`RTTI Base Class Descriptor at (0,-1,0,64)'
	DD	01H
	DD	00H
	DD	0ffffffffH
	DD	00H
	DD	040H
	DD	FLAT:??_R3ioNuclearWeapon@@8
rdata$r	ENDS
;	COMDAT ??_R2ioNuclearWeapon@@8
rdata$r	SEGMENT
??_R2ioNuclearWeapon@@8 DD FLAT:??_R1A@?0A@EA@ioNuclearWeapon@@8 ; ioNuclearWeapon::`RTTI Base Class Array'
	DD	FLAT:??_R1A@?0A@EA@ioWeapon@@8
rdata$r	ENDS
;	COMDAT ??_R3ioNuclearWeapon@@8
rdata$r	SEGMENT
??_R3ioNuclearWeapon@@8 DD 00H				; ioNuclearWeapon::`RTTI Class Hierarchy Descriptor'
	DD	00H
	DD	02H
	DD	FLAT:??_R2ioNuclearWeapon@@8
rdata$r	ENDS
;	COMDAT ??_R0?AVioNuclearWeapon@@@8
_DATA	SEGMENT
??_R0?AVioNuclearWeapon@@@8 DD FLAT:??_7type_info@@6B@	; ioNuclearWeapon `RTTI Type Descriptor'
	DD	00H
	DB	'.?AVioNuclearWeapon@@', 00H
_DATA	ENDS
;	COMDAT ??_R4ioNuclearWeapon@@6B@
rdata$r	SEGMENT
??_R4ioNuclearWeapon@@6B@ DD 00H			; ioNuclearWeapon::`RTTI Complete Object Locator'
	DD	00H
	DD	00H
	DD	FLAT:??_R0?AVioNuclearWeapon@@@8
	DD	FLAT:??_R3ioNuclearWeapon@@8
rdata$r	ENDS
;	COMDAT ??_C@_0DI@DPLNAFDJ@ioNuclearWeapon?3?3?$HOioNuclearWeapo@
CONST	SEGMENT
??_C@_0DI@DPLNAFDJ@ioNuclearWeapon?3?3?$HOioNuclearWeapo@ DB 'ioNuclearWe'
	DB	'apon::~ioNuclearWeapon - UnReleased Resource', 00H ; `string'
CONST	ENDS
;	COMDAT ??_7ioNuclearWeapon@@6B@
CONST	SEGMENT
??_7ioNuclearWeapon@@6B@ DD FLAT:??_R4ioNuclearWeapon@@6B@ ; ioNuclearWeapon::`vftable'
	DD	FLAT:?IsAlreadyCollisioned@ioWeapon@@UAE_NPAVioPlayEntity@@@Z
	DD	FLAT:?AddCollisionEntity@ioWeapon@@UAEXPAVioPlayEntity@@@Z
	DD	FLAT:?SetOwnerDamageRate@ioWeapon@@UAEXM@Z
	DD	FLAT:?SetOwnerChargeDamageRate@ioWeapon@@UAEXM@Z
	DD	FLAT:?SetOwnerChargeForceRate@ioWeapon@@UAEXM@Z
	DD	FLAT:?SetOwnerChargeRangeRate@ioWeapon@@UAEXM@Z
	DD	FLAT:?SetOwnerChargeSpeedRate@ioWeapon@@UAEXM@Z
	DD	FLAT:?SetOwnerChargeBlowRate@ioWeapon@@UAEXM@Z
	DD	FLAT:?SetOwnerChargeFloatRate@ioWeapon@@UAEXM@Z
	DD	FLAT:?SetOwnerChargeScaleRate@ioWeapon@@UAEXM@Z
	DD	FLAT:?SetOwnerChargeExplosionRate@ioWeapon@@UAEXM@Z
	DD	FLAT:?SetOwnerChargeWoundedTimeRate@ioWeapon@@UAEXM@Z
	DD	FLAT:?SetOwnerChargeLiveTimeRate@ioWeapon@@UAEXM@Z
	DD	FLAT:?SetOwnerChargeBuffLiveTimeRate@ioWeapon@@UAEXM@Z
	DD	FLAT:?SetWeaponIndex@ioWeapon@@UAEXK@Z
	DD	FLAT:?SetGrapplingTargetName@ioWeapon@@UAEXABVioHashString@@@Z
	DD	FLAT:?SetCreateItem@ioWeapon@@UAEXABVioHashString@@@Z
	DD	FLAT:?SetTeam@ioWeapon@@UAEXPAVioPlayStage@@W4TeamType@@@Z
	DD	FLAT:?CallReserveAreaWeapon@ioWeapon@@UAEXXZ
	DD	FLAT:?SetWeaponDead@ioWeapon@@UAEXXZ
	DD	FLAT:?PlayExplosionSound@ioWeapon@@UAEXXZ
	DD	FLAT:?PlayWoundedSound@ioWeapon@@UAEXPAVioPlayEntity@@@Z
	DD	FLAT:?PlayDefensedSound@ioWeapon@@UAEXPAVioPlayEntity@@@Z
	DD	FLAT:?PlayLoopSound@ioWeapon@@UAEXXZ
	DD	FLAT:?StopLoopSound@ioWeapon@@UAEXXZ
	DD	FLAT:?GetTargetAirBuffList@ioWeapon@@UBEABV?$vector@UBuffInfoStruct@@V?$allocator@UBuffInfoStruct@@@std@@@std@@XZ
	DD	FLAT:?GetTargetBuffList@ioWeapon@@UBEABV?$vector@UBuffInfoStruct@@V?$allocator@UBuffInfoStruct@@@std@@@std@@XZ
	DD	FLAT:?GetTargetDownBuffList@ioWeapon@@UBEABV?$vector@UBuffInfoStruct@@V?$allocator@UBuffInfoStruct@@@std@@@std@@XZ
	DD	FLAT:?GetPosition@ioWeapon@@UBEABUD3DXVECTOR3@@XZ
	DD	FLAT:?GetBlowType@ioWeapon@@UBE?AW4BlowTargetType@@XZ
	DD	FLAT:?GetPushPower@ioWeapon@@UBEMM@Z
	DD	FLAT:?GetBlowPower@ioWeapon@@UBEMM@Z
	DD	FLAT:?GetAirPushPower@ioWeapon@@UBEMM@Z
	DD	FLAT:?GetAirBlowPower@ioWeapon@@UBEMM@Z
	DD	FLAT:?GetDefensePushPower@ioWeapon@@UBEMM@Z
	DD	FLAT:?GetCollisionEnableTime@ioNuclearWeapon@@UBEKXZ
	DD	FLAT:?SetSylphid@ioWeapon@@UAEHXZ
	DD	FLAT:?ApplyExtraReserveWeaponByWeaponInfo@ioWeapon@@UAEXPAV1@@Z
	DD	FLAT:?InitResource@ioNuclearWeapon@@UAE_NXZ
	DD	FLAT:?DestroyResource@ioNuclearWeapon@@UAEXPAVioPlayStage@@@Z
	DD	FLAT:?LoadProperty@ioNuclearWeapon@@UAEXAAVioINILoader@@@Z
	DD	FLAT:?SetResistanceAttr@ioWeapon@@UAEXH@Z
	DD	FLAT:?SetStartCollisionBox@ioWeapon@@UAEXXZ
	DD	FLAT:?SetLiveTime@ioWeapon@@UAEXK@Z
	DD	FLAT:?SetMoveDir@ioWeapon@@UAEXABUD3DXVECTOR3@@@Z
	DD	FLAT:?SetMoveSpeed@ioWeapon@@UAEXM@Z
	DD	FLAT:?SetFloatPower@ioWeapon@@UAEXM@Z
	DD	FLAT:?SetStartPosition@ioNuclearWeapon@@UAEXABUD3DXVECTOR3@@PAVioPlayStage@@@Z
	DD	FLAT:?Process@ioNuclearWeapon@@UAEXMPAVioPlayStage@@@Z
	DD	FLAT:?IsCollision@ioNuclearWeapon@@UAE_NPAVioPlayEntity@@_N@Z
	DD	FLAT:?TestMapCollision@ioWeapon@@UAE_NPAVioOpcodeShape@@PAVioPlayStage@@PBUD3DXMATRIX@@@Z
	DD	FLAT:?CheckPreCollision@ioNuclearWeapon@@UAEXPAVioPlayEntity@@PAVioPlayStage@@@Z
	DD	FLAT:?CheckStructAndDummy@ioWeapon@@UAEXPAVioPlayEntity@@PAVioPlayStage@@@Z
	DD	FLAT:?GetDamage@ioWeapon@@UAEMPAVioPlayEntity@@@Z
	DD	FLAT:?GetBaseDamage@ioWeapon@@UAEMPAVioPlayEntity@@@Z
	DD	FLAT:?GetPushAngle@ioWeapon@@UBEMXZ
	DD	FLAT:?IsResistanceMagic@ioWeapon@@UAEHPAVioBaseChar@@@Z
	DD	FLAT:?IsResistanceBomb@ioWeapon@@UAEHPAVioBaseChar@@@Z
	DD	FLAT:?IsCanMineExplosion@ioWeapon@@UAE_NXZ
	DD	FLAT:?CheckGrapplingState@ioWeapon@@UAE?AW4GrapplingType@@XZ
	DD	FLAT:?CheckCurAttribute@ioWeapon@@UAEXPBVioPlayEntity@@@Z
	DD	FLAT:?CheckItemNotDrop@ioWeapon@@UAE_NPAVioBaseChar@@@Z
	DD	FLAT:?GetWorldAttackBoxList@ioWeapon@@UAEXAAV?$vector@VioOrientBox@@V?$allocator@VioOrientBox@@@std@@@std@@@Z
	DD	FLAT:?GetAttackDir@ioWeapon@@UBE?AUD3DXVECTOR3@@PBVioPlayEntity@@@Z
	DD	FLAT:?GetLocalAttackBox@ioNuclearWeapon@@UBEABVioOrientBox@@XZ
	DD	FLAT:?GetLiveTime@ioWeapon@@UAEKXZ
	DD	FLAT:?GetMoveDir@ioWeapon@@UAE?AUD3DXVECTOR3@@XZ
	DD	FLAT:?CheckWeaponCollision@ioWeapon@@UAEXXZ
	DD	FLAT:?GetType@ioNuclearWeapon@@UBE?AW4WeaponType@ioWeapon@@XZ
	DD	FLAT:?GetActionStopType@ioNuclearWeapon@@UBE?AW4ActionStopType@@XZ
	DD	FLAT:?GetDieActionStopType@ioNuclearWeapon@@UBE?AW4ActionStopType@@XZ
	DD	FLAT:?GetRefreshDuration@ioWeapon@@UAEKXZ
	DD	FLAT:?GetIgnoreDuration@ioWeapon@@UAEKXZ
	DD	FLAT:?GetIgnoreTimeTypeDuration@ioWeapon@@UAEKXZ
	DD	FLAT:?GetIgnoreTimeType@ioWeapon@@UAEKXZ
	DD	FLAT:?ApplyWeaponSync@ioWeapon@@UAEXAAVSP2Packet@@PAVioPlayStage@@@Z
	DD	FLAT:?IsSkillDependency@ioWeapon@@UAE_NABVioHashString@@@Z
	DD	FLAT:?SetSkillDependencyAction@ioWeapon@@UAEXXZ
	DD	FLAT:?UpdateWorldAttackBox@ioNuclearWeapon@@MAEXM_N@Z
	DD	FLAT:?GetAttribute@ioWeapon@@MBEPBUWeaponAttribute@@XZ
	DD	FLAT:?CalcFinalDamage@ioWeapon@@MAEMXZ
	DD	FLAT:?CalcFinalBoundDamage@ioWeapon@@MAEMXZ
	DD	FLAT:?CheckPiercing@ioWeapon@@MAE_N_N@Z
	DD	FLAT:?ClearCollisionList@ioWeapon@@MAEXXZ
	DD	FLAT:?CheckCreateWeaponList@ioWeapon@@MAEXXZ
	DD	FLAT:?CreateCollisionAreaWeapon@ioWeapon@@MAEXXZ
	DD	FLAT:?SetMapCollision@ioWeapon@@UAEXXZ
	DD	FLAT:?IsIgnoreMapCollision@ioWeapon@@UBE_NXZ
	DD	FLAT:?IsIgnoreTestMapCollision@ioWeapon@@UBE_NXZ
	DD	FLAT:?IsIgnoreMapCollisionEffect@ioWeapon@@UBE_NXZ
	DD	FLAT:?AddEffectEvent@ioWeapon@@MAEXPAVioEffect@@@Z
	DD	FLAT:??_EioNuclearWeapon@@UAEPAXI@Z
CONST	ENDS
;	COMDAT xdata$x
xdata$x	SEGMENT
__ehfuncinfo$??1ioNuclearWeapon@@UAE@XZ DD 019930522H
	DD	05H
	DD	FLAT:__unwindtable$??1ioNuclearWeapon@@UAE@XZ
	DD	2 DUP(00H)
	DD	2 DUP(00H)
	DD	00H
	DD	01H
__unwindtable$??1ioNuclearWeapon@@UAE@XZ DD 0ffffffffH
	DD	FLAT:__unwindfunclet$??1ioNuclearWeapon@@UAE@XZ$0
	DD	00H
	DD	FLAT:__unwindfunclet$??1ioNuclearWeapon@@UAE@XZ$1
	DD	01H
	DD	FLAT:__unwindfunclet$??1ioNuclearWeapon@@UAE@XZ$2
	DD	02H
	DD	FLAT:__unwindfunclet$??1ioNuclearWeapon@@UAE@XZ$3
	DD	03H
	DD	FLAT:__unwindfunclet$??1ioNuclearWeapon@@UAE@XZ$4
; Function compile flags: /Ogsp
xdata$x	ENDS
;	COMDAT ??1ioNuclearWeapon@@UAE@XZ
_TEXT	SEGMENT
_this$ = -16						; size = 4
__$EHRec$ = -12						; size = 12
??1ioNuclearWeapon@@UAE@XZ PROC				; ioNuclearWeapon::~ioNuclearWeapon, COMDAT
; _this$ = ecx

; 29   : {

  00000	6a 04		 push	 4
  00002	b8 00 00 00 00	 mov	 eax, __ehhandler$??1ioNuclearWeapon@@UAE@XZ
  00007	e8 00 00 00 00	 call	 __EH_prolog3
  0000c	8b f1		 mov	 esi, ecx
  0000e	89 75 f0	 mov	 DWORD PTR _this$[ebp], esi
  00011	c7 06 00 00 00
	00		 mov	 DWORD PTR [esi], OFFSET ??_7ioNuclearWeapon@@6B@

; 30   : 	if( m_pNuclear )

  00017	83 be 94 08 00
	00 00		 cmp	 DWORD PTR [esi+2196], 0
  0001e	c7 45 fc 04 00
	00 00		 mov	 DWORD PTR __$EHRec$[ebp+8], 4
  00025	74 16		 je	 SHORT $LN1@ioNuclearW

; 31   : 	{
; 32   : 		LOG.PrintTimeAndLog( 0, "ioNuclearWeapon::~ioNuclearWeapon - UnReleased Resource" );

  00027	68 00 00 00 00	 push	 OFFSET ??_C@_0DI@DPLNAFDJ@ioNuclearWeapon?3?3?$HOioNuclearWeapo@
  0002c	6a 00		 push	 0
  0002e	ff 35 00 00 00
	00		 push	 DWORD PTR __imp_?LOG@@3VCLog@@A
  00034	ff 15 00 00 00
	00		 call	 DWORD PTR __imp_?PrintTimeAndLog@CLog@@QAAXHPADZZ
  0003a	83 c4 0c	 add	 esp, 12			; 0000000cH
$LN1@ioNuclearW:

; 33   : 	}
; 34   : }

  0003d	8b 3d 00 00 00
	00		 mov	 edi, DWORD PTR __imp_??1ioHashString@@QAE@XZ
  00043	8d 8e 00 09 00
	00		 lea	 ecx, DWORD PTR [esi+2304]
  00049	c6 45 fc 03	 mov	 BYTE PTR __$EHRec$[ebp+8], 3
  0004d	ff d7		 call	 edi
  0004f	8d 8e f0 08 00
	00		 lea	 ecx, DWORD PTR [esi+2288]
  00055	c6 45 fc 02	 mov	 BYTE PTR __$EHRec$[ebp+8], 2
  00059	ff d7		 call	 edi
  0005b	8d 8e e0 08 00
	00		 lea	 ecx, DWORD PTR [esi+2272]
  00061	c6 45 fc 01	 mov	 BYTE PTR __$EHRec$[ebp+8], 1
  00065	ff d7		 call	 edi
  00067	8d 8e 9c 08 00
	00		 lea	 ecx, DWORD PTR [esi+2204]
  0006d	c6 45 fc 00	 mov	 BYTE PTR __$EHRec$[ebp+8], 0
  00071	ff 15 00 00 00
	00		 call	 DWORD PTR __imp_??1ioOrientBox@@QAE@XZ
  00077	83 4d fc ff	 or	 DWORD PTR __$EHRec$[ebp+8], -1
  0007b	8b ce		 mov	 ecx, esi
  0007d	e8 00 00 00 00	 call	 ??1ioWeapon@@UAE@XZ	; ioWeapon::~ioWeapon
  00082	e8 00 00 00 00	 call	 __EH_epilog3
  00087	c3		 ret	 0
_TEXT	ENDS
;	COMDAT text$x
text$x	SEGMENT
__unwindfunclet$??1ioNuclearWeapon@@UAE@XZ$0:
  00000	8b 4d f0	 mov	 ecx, DWORD PTR _this$[ebp]
  00003	e9 00 00 00 00	 jmp	 ??1ioWeapon@@UAE@XZ	; ioWeapon::~ioWeapon
__unwindfunclet$??1ioNuclearWeapon@@UAE@XZ$1:
  00008	8b 4d f0	 mov	 ecx, DWORD PTR _this$[ebp]
  0000b	81 c1 9c 08 00
	00		 add	 ecx, 2204		; 0000089cH
  00011	ff 25 00 00 00
	00		 jmp	 DWORD PTR __imp_??1ioOrientBox@@QAE@XZ
__unwindfunclet$??1ioNuclearWeapon@@UAE@XZ$2:
  00017	8b 4d f0	 mov	 ecx, DWORD PTR _this$[ebp]
  0001a	81 c1 e0 08 00
	00		 add	 ecx, 2272		; 000008e0H
  00020	ff 25 00 00 00
	00		 jmp	 DWORD PTR __imp_??1ioHashString@@QAE@XZ
__unwindfunclet$??1ioNuclearWeapon@@UAE@XZ$3:
  00026	8b 4d f0	 mov	 ecx, DWORD PTR _this$[ebp]
  00029	81 c1 f0 08 00
	00		 add	 ecx, 2288		; 000008f0H
  0002f	ff 25 00 00 00
	00		 jmp	 DWORD PTR __imp_??1ioHashString@@QAE@XZ
__unwindfunclet$??1ioNuclearWeapon@@UAE@XZ$4:
  00035	8b 4d f0	 mov	 ecx, DWORD PTR _this$[ebp]
  00038	81 c1 00 09 00
	00		 add	 ecx, 2304		; 00000900H
  0003e	ff 25 00 00 00
	00		 jmp	 DWORD PTR __imp_??1ioHashString@@QAE@XZ
__ehhandler$??1ioNuclearWeapon@@UAE@XZ:
  00044	8b 54 24 08	 mov	 edx, DWORD PTR [esp+8]
  00048	8d 42 0c	 lea	 eax, DWORD PTR [edx+12]
  0004b	8b 4a ec	 mov	 ecx, DWORD PTR [edx-20]
  0004e	33 c8		 xor	 ecx, eax
  00050	e8 00 00 00 00	 call	 @__security_check_cookie@4
  00055	b8 00 00 00 00	 mov	 eax, OFFSET __ehfuncinfo$??1ioNuclearWeapon@@UAE@XZ
  0005a	e9 00 00 00 00	 jmp	 ___CxxFrameHandler3
text$x	ENDS
??1ioNuclearWeapon@@UAE@XZ ENDP				; ioNuclearWeapon::~ioNuclearWeapon
PUBLIC	?DestroyNuclear@ioNuclearWeapon@@IAEXXZ		; ioNuclearWeapon::DestroyNuclear
EXTRN	__imp_?DestroyEffect@ioEffectFactory@@QAEXPAVioEffect@@@Z:PROC
EXTRN	__imp_?GetSingleton@ioEffectFactory@@SAAAV1@XZ:PROC
; Function compile flags: /Ogsp
;	COMDAT ?DestroyNuclear@ioNuclearWeapon@@IAEXXZ
_TEXT	SEGMENT
?DestroyNuclear@ioNuclearWeapon@@IAEXXZ PROC		; ioNuclearWeapon::DestroyNuclear, COMDAT
; _this$ = ecx

; 78   : {

  00000	56		 push	 esi

; 79   : 	if( m_pNuclear )

  00001	8d b1 94 08 00
	00		 lea	 esi, DWORD PTR [ecx+2196]
  00007	8b 06		 mov	 eax, DWORD PTR [esi]
  00009	85 c0		 test	 eax, eax
  0000b	74 12		 je	 SHORT $LN1@DestroyNuc

; 80   : 	{
; 81   : 		g_EffectFactory.DestroyEffect( m_pNuclear );

  0000d	50		 push	 eax
  0000e	ff 15 00 00 00
	00		 call	 DWORD PTR __imp_?GetSingleton@ioEffectFactory@@SAAAV1@XZ
  00014	8b c8		 mov	 ecx, eax
  00016	ff 15 00 00 00
	00		 call	 DWORD PTR __imp_?DestroyEffect@ioEffectFactory@@QAEXPAVioEffect@@@Z

; 82   : 		m_pNuclear = NULL;

  0001c	83 26 00	 and	 DWORD PTR [esi], 0
$LN1@DestroyNuc:
  0001f	5e		 pop	 esi

; 83   : 	}
; 84   : }

  00020	c3		 ret	 0
?DestroyNuclear@ioNuclearWeapon@@IAEXXZ ENDP		; ioNuclearWeapon::DestroyNuclear
_TEXT	ENDS
PUBLIC	?IsFalling@ioNuclearWeapon@@QBE_NXZ		; ioNuclearWeapon::IsFalling
; Function compile flags: /Ogsp
;	COMDAT ?IsFalling@ioNuclearWeapon@@QBE_NXZ
_TEXT	SEGMENT
?IsFalling@ioNuclearWeapon@@QBE_NXZ PROC		; ioNuclearWeapon::IsFalling, COMDAT
; _this$ = ecx

; 193  : 	if( m_NuclearState == NS_FALL )

  00000	83 b9 24 09 00
	00 00		 cmp	 DWORD PTR [ecx+2340], 0
  00007	0f 94 c0	 sete	 al

; 194  : 		return true;
; 195  : 
; 196  : 	return false;
; 197  : }

  0000a	c3		 ret	 0
?IsFalling@ioNuclearWeapon@@QBE_NXZ ENDP		; ioNuclearWeapon::IsFalling
_TEXT	ENDS
PUBLIC	?Explosion@ioNuclearWeapon@@QAEXPAVioPlayStage@@@Z ; ioNuclearWeapon::Explosion
EXTRN	?CreateMapEffect@ioPlayStage@@QAEPAVioMapEffect@@ABVioHashString@@ABUD3DXVECTOR3@@1@Z:PROC ; ioPlayStage::CreateMapEffect
EXTRN	?GetScale@ioWeapon@@QBEABUD3DXVECTOR3@@XZ:PROC	; ioWeapon::GetScale
EXTRN	__imp_?IsEmpty@ioHashString@@QBE_NXZ:PROC
EXTRN	__imp_?SetExtents@ioOrientBox@@QAEXHM@Z:PROC
; Function compile flags: /Ogsp
;	COMDAT ?Explosion@ioNuclearWeapon@@QAEXPAVioPlayStage@@@Z
_TEXT	SEGMENT
_fHalfRange$ = -4					; size = 4
_pStage$ = 8						; size = 4
?Explosion@ioNuclearWeapon@@QAEXPAVioPlayStage@@@Z PROC	; ioNuclearWeapon::Explosion, COMDAT
; _this$ = ecx

; 200  : {

  00000	55		 push	 ebp
  00001	8b ec		 mov	 ebp, esp
  00003	51		 push	 ecx
  00004	56		 push	 esi
  00005	8b f1		 mov	 esi, ecx

; 201  : 	if( m_NuclearState == NS_EXPLOSION )

  00007	33 c9		 xor	 ecx, ecx
  00009	41		 inc	 ecx
  0000a	39 8e 24 09 00
	00		 cmp	 DWORD PTR [esi+2340], ecx
  00010	0f 84 a4 00 00
	00		 je	 $LN1@Explosion

; 202  : 		return;
; 203  : 
; 204  : 	m_NuclearState = NS_EXPLOSION;
; 205  : 
; 206  : 	float fHalfRange = m_fExplosionRange;

  00016	f3 0f 10 86 10
	09 00 00	 movss	 xmm0, DWORD PTR [esi+2320]
  0001e	53		 push	 ebx
  0001f	57		 push	 edi

; 207  : 
; 208  : 	m_LocalAttackBox.SetExtents( 0, fHalfRange );

  00020	8b 3d 00 00 00
	00		 mov	 edi, DWORD PTR __imp_?SetExtents@ioOrientBox@@QAEXHM@Z
  00026	51		 push	 ecx
  00027	89 8e 24 09 00
	00		 mov	 DWORD PTR [esi+2340], ecx
  0002d	f3 0f 11 04 24	 movss	 DWORD PTR [esp], xmm0
  00032	6a 00		 push	 0
  00034	8d 8e 9c 08 00
	00		 lea	 ecx, DWORD PTR [esi+2204]
  0003a	f3 0f 11 45 fc	 movss	 DWORD PTR _fHalfRange$[ebp], xmm0
  0003f	ff d7		 call	 edi

; 209  : 	m_LocalAttackBox.SetExtents( 1, fHalfRange );

  00041	f3 0f 10 45 fc	 movss	 xmm0, DWORD PTR _fHalfRange$[ebp]
  00046	51		 push	 ecx
  00047	f3 0f 11 04 24	 movss	 DWORD PTR [esp], xmm0
  0004c	6a 01		 push	 1
  0004e	8d 8e 9c 08 00
	00		 lea	 ecx, DWORD PTR [esi+2204]
  00054	ff d7		 call	 edi

; 210  : 	m_LocalAttackBox.SetExtents( 2, fHalfRange );

  00056	f3 0f 10 45 fc	 movss	 xmm0, DWORD PTR _fHalfRange$[ebp]
  0005b	51		 push	 ecx
  0005c	f3 0f 11 04 24	 movss	 DWORD PTR [esp], xmm0
  00061	6a 02		 push	 2
  00063	8d 8e 9c 08 00
	00		 lea	 ecx, DWORD PTR [esi+2204]
  00069	ff d7		 call	 edi

; 211  : 	UpdateWorldAttackBox( 0.0f, false );

  0006b	0f 57 c0	 xorps	 xmm0, xmm0
  0006e	8b 06		 mov	 eax, DWORD PTR [esi]
  00070	6a 00		 push	 0
  00072	51		 push	 ecx
  00073	8b ce		 mov	 ecx, esi
  00075	f3 0f 11 04 24	 movss	 DWORD PTR [esp], xmm0
  0007a	ff 90 38 01 00
	00		 call	 DWORD PTR [eax+312]

; 212  : 	
; 213  : 	if( !m_BoomEffect.IsEmpty() && pStage )

  00080	8d be 00 09 00
	00		 lea	 edi, DWORD PTR [esi+2304]
  00086	8b cf		 mov	 ecx, edi
  00088	ff 15 00 00 00
	00		 call	 DWORD PTR __imp_?IsEmpty@ioHashString@@QBE_NXZ
  0008e	84 c0		 test	 al, al
  00090	75 26		 jne	 SHORT $LN5@Explosion
  00092	83 7d 08 00	 cmp	 DWORD PTR _pStage$[ebp], 0
  00096	74 20		 je	 SHORT $LN5@Explosion

; 214  : 	{
; 215  : 		pStage->CreateMapEffect( m_BoomEffect,
; 216  : 								 GetPosition(),
; 217  : 								 GetScale() );

  00098	8b ce		 mov	 ecx, esi
  0009a	e8 00 00 00 00	 call	 ?GetScale@ioWeapon@@QBEABUD3DXVECTOR3@@XZ ; ioWeapon::GetScale
  0009f	50		 push	 eax
  000a0	8b 06		 mov	 eax, DWORD PTR [esi]
  000a2	8b ce		 mov	 ecx, esi
  000a4	ff 50 70	 call	 DWORD PTR [eax+112]
  000a7	8b 4d 08	 mov	 ecx, DWORD PTR _pStage$[ebp]
  000aa	50		 push	 eax
  000ab	57		 push	 edi
  000ac	e8 00 00 00 00	 call	 ?CreateMapEffect@ioPlayStage@@QAEPAVioMapEffect@@ABVioHashString@@ABUD3DXVECTOR3@@1@Z ; ioPlayStage::CreateMapEffect

; 218  : 
; 219  : 		ioWeapon::PlayExplosionSound();

  000b1	8b ce		 mov	 ecx, esi
  000b3	e8 00 00 00 00	 call	 ?PlayExplosionSound@ioWeapon@@UAEXXZ ; ioWeapon::PlayExplosionSound
$LN5@Explosion:
  000b8	5f		 pop	 edi
  000b9	5b		 pop	 ebx
$LN1@Explosion:
  000ba	5e		 pop	 esi

; 220  : 	}
; 221  : }

  000bb	c9		 leave
  000bc	c2 04 00	 ret	 4
?Explosion@ioNuclearWeapon@@QAEXPAVioPlayStage@@@Z ENDP	; ioNuclearWeapon::Explosion
_TEXT	ENDS
EXTRN	?DestroyMapEffect@ioPlayStage@@QAEXK@Z:PROC	; ioPlayStage::DestroyMapEffect
; Function compile flags: /Ogsp
;	COMDAT ?DestroyResource@ioNuclearWeapon@@UAEXPAVioPlayStage@@@Z
_TEXT	SEGMENT
_pStage$ = 8						; size = 4
?DestroyResource@ioNuclearWeapon@@UAEXPAVioPlayStage@@@Z PROC ; ioNuclearWeapon::DestroyResource, COMDAT
; _this$ = ecx

; 224  : {

  00000	55		 push	 ebp
  00001	8b ec		 mov	 ebp, esp
  00003	56		 push	 esi
  00004	8b f1		 mov	 esi, ecx

; 225  : 	if( m_SensorID != -1 )

  00006	8b 86 98 08 00
	00		 mov	 eax, DWORD PTR [esi+2200]
  0000c	83 f8 ff	 cmp	 eax, -1
  0000f	74 14		 je	 SHORT $LN1@DestroyRes

; 226  : 	{
; 227  : 		if( pStage )

  00011	8b 4d 08	 mov	 ecx, DWORD PTR _pStage$[ebp]
  00014	85 c9		 test	 ecx, ecx
  00016	74 0d		 je	 SHORT $LN1@DestroyRes

; 228  : 		{
; 229  : 			pStage->DestroyMapEffect( m_SensorID );

  00018	50		 push	 eax
  00019	e8 00 00 00 00	 call	 ?DestroyMapEffect@ioPlayStage@@QAEXK@Z ; ioPlayStage::DestroyMapEffect

; 230  : 			m_SensorID = -1;

  0001e	83 8e 98 08 00
	00 ff		 or	 DWORD PTR [esi+2200], -1
$LN1@DestroyRes:

; 231  : 		}
; 232  : 	}
; 233  : 
; 234  : 	DestroyNuclear();

  00025	8b ce		 mov	 ecx, esi
  00027	e8 00 00 00 00	 call	 ?DestroyNuclear@ioNuclearWeapon@@IAEXXZ ; ioNuclearWeapon::DestroyNuclear
  0002c	5e		 pop	 esi

; 235  : }

  0002d	5d		 pop	 ebp
  0002e	c2 04 00	 ret	 4
?DestroyResource@ioNuclearWeapon@@UAEXPAVioPlayStage@@@Z ENDP ; ioNuclearWeapon::DestroyResource
_TEXT	ENDS
EXTRN	?GetLocalAttackBox@ioWeapon@@UBEABVioOrientBox@@XZ:PROC ; ioWeapon::GetLocalAttackBox
EXTRN	__imp_?GetCollisionBox@ioEffect@@QBEABVioOrientBox@@XZ:PROC
; Function compile flags: /Ogsp
;	COMDAT ?GetLocalAttackBox@ioNuclearWeapon@@UBEABVioOrientBox@@XZ
_TEXT	SEGMENT
?GetLocalAttackBox@ioNuclearWeapon@@UBEABVioOrientBox@@XZ PROC ; ioNuclearWeapon::GetLocalAttackBox, COMDAT
; _this$ = ecx

; 239  : 	if( m_pNuclear )

  00000	8b 81 94 08 00
	00		 mov	 eax, DWORD PTR [ecx+2196]
  00006	85 c0		 test	 eax, eax
  00008	74 18		 je	 SHORT $LN1@GetLocalAt

; 240  : 	{
; 241  : 		if( IsFalling() )

  0000a	83 b9 24 09 00
	00 00		 cmp	 DWORD PTR [ecx+2340], 0
  00011	75 08		 jne	 SHORT $LN2@GetLocalAt

; 242  : 			return m_pNuclear->GetCollisionBox();

  00013	8b c8		 mov	 ecx, eax
  00015	ff 25 00 00 00
	00		 jmp	 DWORD PTR __imp_?GetCollisionBox@ioEffect@@QBEABVioOrientBox@@XZ
$LN2@GetLocalAt:

; 243  : 		else
; 244  : 			return m_LocalAttackBox;

  0001b	8d 81 9c 08 00
	00		 lea	 eax, DWORD PTR [ecx+2204]

; 248  : }

  00021	c3		 ret	 0
$LN1@GetLocalAt:

; 245  : 	}
; 246  : 
; 247  : 	return ioWeapon::GetLocalAttackBox();

  00022	e9 00 00 00 00	 jmp	 ?GetLocalAttackBox@ioWeapon@@UBEABVioOrientBox@@XZ ; ioWeapon::GetLocalAttackBox
?GetLocalAttackBox@ioNuclearWeapon@@UBEABVioOrientBox@@XZ ENDP ; ioNuclearWeapon::GetLocalAttackBox
; Function compile flags: /Ogsp
_TEXT	ENDS
;	COMDAT ?GetType@ioNuclearWeapon@@UBE?AW4WeaponType@ioWeapon@@XZ
_TEXT	SEGMENT
?GetType@ioNuclearWeapon@@UBE?AW4WeaponType@ioWeapon@@XZ PROC ; ioNuclearWeapon::GetType, COMDAT
; _this$ = ecx

; 252  : 	return WT_NUCLEAR;

  00000	6a 06		 push	 6
  00002	58		 pop	 eax

; 253  : }

  00003	c3		 ret	 0
?GetType@ioNuclearWeapon@@UBE?AW4WeaponType@ioWeapon@@XZ ENDP ; ioNuclearWeapon::GetType
; Function compile flags: /Ogsp
_TEXT	ENDS
;	COMDAT ?GetActionStopType@ioNuclearWeapon@@UBE?AW4ActionStopType@@XZ
_TEXT	SEGMENT
?GetActionStopType@ioNuclearWeapon@@UBE?AW4ActionStopType@@XZ PROC ; ioNuclearWeapon::GetActionStopType, COMDAT
; _this$ = ecx

; 257  : 	return m_ActionStopType;

  00000	a1 00 00 00 00	 mov	 eax, DWORD PTR ?m_ActionStopType@ioNuclearWeapon@@2W4ActionStopType@@A ; ioNuclearWeapon::m_ActionStopType

; 258  : }

  00005	c3		 ret	 0
?GetActionStopType@ioNuclearWeapon@@UBE?AW4ActionStopType@@XZ ENDP ; ioNuclearWeapon::GetActionStopType
; Function compile flags: /Ogsp
_TEXT	ENDS
;	COMDAT ?GetDieActionStopType@ioNuclearWeapon@@UBE?AW4ActionStopType@@XZ
_TEXT	SEGMENT
?GetDieActionStopType@ioNuclearWeapon@@UBE?AW4ActionStopType@@XZ PROC ; ioNuclearWeapon::GetDieActionStopType, COMDAT
; _this$ = ecx

; 262  : 	return m_DieActionStopType;

  00000	a1 00 00 00 00	 mov	 eax, DWORD PTR ?m_DieActionStopType@ioNuclearWeapon@@2W4ActionStopType@@A ; ioNuclearWeapon::m_DieActionStopType

; 263  : }

  00005	c3		 ret	 0
?GetDieActionStopType@ioNuclearWeapon@@UBE?AW4ActionStopType@@XZ ENDP ; ioNuclearWeapon::GetDieActionStopType
_TEXT	ENDS
PUBLIC	?GetMoveSpeed@ioNuclearWeapon@@QAEMXZ		; ioNuclearWeapon::GetMoveSpeed
; Function compile flags: /Ogsp
;	COMDAT ?GetMoveSpeed@ioNuclearWeapon@@QAEMXZ
_TEXT	SEGMENT
?GetMoveSpeed@ioNuclearWeapon@@QAEMXZ PROC		; ioNuclearWeapon::GetMoveSpeed, COMDAT
; _this$ = ecx

; 267  : 	return GetAttribute()->m_fMoveSpeed;

  00000	8b 01		 mov	 eax, DWORD PTR [ecx]
  00002	ff 90 3c 01 00
	00		 call	 DWORD PTR [eax+316]
  00008	d9 80 98 01 00
	00		 fld	 DWORD PTR [eax+408]

; 268  : }

  0000e	c3		 ret	 0
?GetMoveSpeed@ioNuclearWeapon@@QAEMXZ ENDP		; ioNuclearWeapon::GetMoveSpeed
; Function compile flags: /Ogsp
_TEXT	ENDS
;	COMDAT ?GetCollisionEnableTime@ioNuclearWeapon@@UBEKXZ
_TEXT	SEGMENT
?GetCollisionEnableTime@ioNuclearWeapon@@UBEKXZ PROC	; ioNuclearWeapon::GetCollisionEnableTime, COMDAT
; _this$ = ecx

; 364  : {

  00000	56		 push	 esi
  00001	8b f1		 mov	 esi, ecx

; 365  : 	if( m_NuclearState == NS_EXPLOSION )

  00003	83 be 24 09 00
	00 01		 cmp	 DWORD PTR [esi+2340], 1
  0000a	75 08		 jne	 SHORT $LN1@GetCollisi

; 366  : 		return m_dwCreatedTime;

  0000c	8b 86 d4 04 00
	00		 mov	 eax, DWORD PTR [esi+1236]
  00012	5e		 pop	 esi

; 369  : }

  00013	c3		 ret	 0
$LN1@GetCollisi:

; 367  : 
; 368  : 	return m_dwCreatedTime + GetAttribute()->m_dwCollisionDelay;

  00014	8b 06		 mov	 eax, DWORD PTR [esi]
  00016	ff 90 3c 01 00
	00		 call	 DWORD PTR [eax+316]
  0001c	8b 80 c4 01 00
	00		 mov	 eax, DWORD PTR [eax+452]
  00022	03 86 d4 04 00
	00		 add	 eax, DWORD PTR [esi+1236]
  00028	5e		 pop	 esi

; 369  : }

  00029	c3		 ret	 0
?GetCollisionEnableTime@ioNuclearWeapon@@UBEKXZ ENDP	; ioNuclearWeapon::GetCollisionEnableTime
_TEXT	ENDS
PUBLIC	??0D3DXVECTOR3@@QAE@XZ				; D3DXVECTOR3::D3DXVECTOR3
; Function compile flags: /Ogsp
; File c:\program files (x86)\microsoft directx sdk (june 2010)\include\d3dx9math.h
;	COMDAT ??0D3DXVECTOR3@@QAE@XZ
_TEXT	SEGMENT
??0D3DXVECTOR3@@QAE@XZ PROC				; D3DXVECTOR3::D3DXVECTOR3, COMDAT
; _this$ = ecx

; 165  :     D3DXVECTOR3() {};

  00000	8b c1		 mov	 eax, ecx
  00002	c3		 ret	 0
??0D3DXVECTOR3@@QAE@XZ ENDP				; D3DXVECTOR3::D3DXVECTOR3
_TEXT	ENDS
PUBLIC	??0D3DXVECTOR3@@QAE@MMM@Z			; D3DXVECTOR3::D3DXVECTOR3
; Function compile flags: /Ogsp
; File c:\program files (x86)\microsoft directx sdk (june 2010)\include\d3dx9math.inl
;	COMDAT ??0D3DXVECTOR3@@QAE@MMM@Z
_TEXT	SEGMENT
_fx$ = 8						; size = 4
_fy$ = 12						; size = 4
_fz$ = 16						; size = 4
??0D3DXVECTOR3@@QAE@MMM@Z PROC				; D3DXVECTOR3::D3DXVECTOR3, COMDAT
; _this$ = ecx

; 303  : {

  00000	55		 push	 ebp
  00001	8b ec		 mov	 ebp, esp

; 304  :     x = fx;

  00003	f3 0f 10 45 08	 movss	 xmm0, DWORD PTR _fx$[ebp]
  00008	8b c1		 mov	 eax, ecx
  0000a	f3 0f 11 00	 movss	 DWORD PTR [eax], xmm0

; 305  :     y = fy;

  0000e	f3 0f 10 45 0c	 movss	 xmm0, DWORD PTR _fy$[ebp]
  00013	f3 0f 11 40 04	 movss	 DWORD PTR [eax+4], xmm0

; 306  :     z = fz;

  00018	f3 0f 10 45 10	 movss	 xmm0, DWORD PTR _fz$[ebp]
  0001d	f3 0f 11 40 08	 movss	 DWORD PTR [eax+8], xmm0

; 307  : }

  00022	5d		 pop	 ebp
  00023	c2 0c 00	 ret	 12			; 0000000cH
??0D3DXVECTOR3@@QAE@MMM@Z ENDP				; D3DXVECTOR3::D3DXVECTOR3
_TEXT	ENDS
PUBLIC	??GD3DXVECTOR3@@QBE?AU0@ABU0@@Z			; D3DXVECTOR3::operator-
; Function compile flags: /Ogsp
;	COMDAT ??GD3DXVECTOR3@@QBE?AU0@ABU0@@Z
_TEXT	SEGMENT
___$ReturnUdt$ = 8					; size = 4
_v$ = 12						; size = 4
??GD3DXVECTOR3@@QBE?AU0@ABU0@@Z PROC			; D3DXVECTOR3::operator-, COMDAT
; _this$ = ecx

; 386  : {

  00000	55		 push	 ebp
  00001	8b ec		 mov	 ebp, esp

; 387  :     return D3DXVECTOR3(x - v.x, y - v.y, z - v.z);

  00003	8b 55 0c	 mov	 edx, DWORD PTR _v$[ebp]
  00006	f3 0f 10 01	 movss	 xmm0, DWORD PTR [ecx]
  0000a	f3 0f 10 0a	 movss	 xmm1, DWORD PTR [edx]
  0000e	8b 45 08	 mov	 eax, DWORD PTR ___$ReturnUdt$[ebp]
  00011	0f 5a c0	 cvtps2pd xmm0, xmm0
  00014	0f 5a c9	 cvtps2pd xmm1, xmm1
  00017	f2 0f 5c c1	 subsd	 xmm0, xmm1
  0001b	f3 0f 10 4a 04	 movss	 xmm1, DWORD PTR [edx+4]
  00020	66 0f 5a c0	 cvtpd2ps xmm0, xmm0
  00024	f3 0f 11 00	 movss	 DWORD PTR [eax], xmm0
  00028	f3 0f 10 41 04	 movss	 xmm0, DWORD PTR [ecx+4]
  0002d	0f 5a c0	 cvtps2pd xmm0, xmm0
  00030	0f 5a c9	 cvtps2pd xmm1, xmm1
  00033	f2 0f 5c c1	 subsd	 xmm0, xmm1
  00037	f3 0f 10 4a 08	 movss	 xmm1, DWORD PTR [edx+8]
  0003c	66 0f 5a c0	 cvtpd2ps xmm0, xmm0
  00040	f3 0f 11 40 04	 movss	 DWORD PTR [eax+4], xmm0
  00045	f3 0f 10 41 08	 movss	 xmm0, DWORD PTR [ecx+8]
  0004a	0f 5a c0	 cvtps2pd xmm0, xmm0
  0004d	0f 5a c9	 cvtps2pd xmm1, xmm1
  00050	f2 0f 5c c1	 subsd	 xmm0, xmm1
  00054	66 0f 5a c0	 cvtpd2ps xmm0, xmm0
  00058	f3 0f 11 40 08	 movss	 DWORD PTR [eax+8], xmm0

; 388  : }

  0005d	5d		 pop	 ebp
  0005e	c2 08 00	 ret	 8
??GD3DXVECTOR3@@QBE?AU0@ABU0@@Z ENDP			; D3DXVECTOR3::operator-
_TEXT	ENDS
PUBLIC	??DD3DXVECTOR3@@QBE?AU0@M@Z			; D3DXVECTOR3::operator*
; Function compile flags: /Ogsp
;	COMDAT ??DD3DXVECTOR3@@QBE?AU0@M@Z
_TEXT	SEGMENT
___$ReturnUdt$ = 8					; size = 4
_f$ = 12						; size = 4
??DD3DXVECTOR3@@QBE?AU0@M@Z PROC			; D3DXVECTOR3::operator*, COMDAT
; _this$ = ecx

; 392  : {

  00000	55		 push	 ebp
  00001	8b ec		 mov	 ebp, esp

; 393  :     return D3DXVECTOR3(x * f, y * f, z * f);

  00003	f3 0f 10 4d 0c	 movss	 xmm1, DWORD PTR _f$[ebp]
  00008	f3 0f 10 01	 movss	 xmm0, DWORD PTR [ecx]
  0000c	8b 45 08	 mov	 eax, DWORD PTR ___$ReturnUdt$[ebp]
  0000f	0f 5a c0	 cvtps2pd xmm0, xmm0
  00012	0f 5a c9	 cvtps2pd xmm1, xmm1
  00015	f2 0f 59 c1	 mulsd	 xmm0, xmm1
  00019	f3 0f 10 4d 0c	 movss	 xmm1, DWORD PTR _f$[ebp]
  0001e	66 0f 5a c0	 cvtpd2ps xmm0, xmm0
  00022	f3 0f 11 00	 movss	 DWORD PTR [eax], xmm0
  00026	f3 0f 10 41 04	 movss	 xmm0, DWORD PTR [ecx+4]
  0002b	0f 5a c0	 cvtps2pd xmm0, xmm0
  0002e	0f 5a c9	 cvtps2pd xmm1, xmm1
  00031	f2 0f 59 c1	 mulsd	 xmm0, xmm1
  00035	f3 0f 10 4d 0c	 movss	 xmm1, DWORD PTR _f$[ebp]
  0003a	66 0f 5a c0	 cvtpd2ps xmm0, xmm0
  0003e	f3 0f 11 40 04	 movss	 DWORD PTR [eax+4], xmm0
  00043	f3 0f 10 41 08	 movss	 xmm0, DWORD PTR [ecx+8]
  00048	0f 5a c0	 cvtps2pd xmm0, xmm0
  0004b	0f 5a c9	 cvtps2pd xmm1, xmm1
  0004e	f2 0f 59 c1	 mulsd	 xmm0, xmm1
  00052	66 0f 5a c0	 cvtpd2ps xmm0, xmm0
  00056	f3 0f 11 40 08	 movss	 DWORD PTR [eax+8], xmm0

; 394  : }

  0005b	5d		 pop	 ebp
  0005c	c2 08 00	 ret	 8
??DD3DXVECTOR3@@QBE?AU0@M@Z ENDP			; D3DXVECTOR3::operator*
_TEXT	ENDS
PUBLIC	??0D3DXQUATERNION@@QAE@MMMM@Z			; D3DXQUATERNION::D3DXQUATERNION
; Function compile flags: /Ogsp
;	COMDAT ??0D3DXQUATERNION@@QAE@MMMM@Z
_TEXT	SEGMENT
_fx$ = 8						; size = 4
_fy$ = 12						; size = 4
_fz$ = 16						; size = 4
_fw$ = 20						; size = 4
??0D3DXQUATERNION@@QAE@MMMM@Z PROC			; D3DXQUATERNION::D3DXQUATERNION, COMDAT
; _this$ = ecx

; 1080 : {

  00000	55		 push	 ebp
  00001	8b ec		 mov	 ebp, esp

; 1081 :     x = fx;

  00003	f3 0f 10 45 08	 movss	 xmm0, DWORD PTR _fx$[ebp]
  00008	8b c1		 mov	 eax, ecx
  0000a	f3 0f 11 00	 movss	 DWORD PTR [eax], xmm0

; 1082 :     y = fy;

  0000e	f3 0f 10 45 0c	 movss	 xmm0, DWORD PTR _fy$[ebp]
  00013	f3 0f 11 40 04	 movss	 DWORD PTR [eax+4], xmm0

; 1083 :     z = fz;

  00018	f3 0f 10 45 10	 movss	 xmm0, DWORD PTR _fz$[ebp]
  0001d	f3 0f 11 40 08	 movss	 DWORD PTR [eax+8], xmm0

; 1084 :     w = fw;

  00022	f3 0f 10 45 14	 movss	 xmm0, DWORD PTR _fw$[ebp]
  00027	f3 0f 11 40 0c	 movss	 DWORD PTR [eax+12], xmm0

; 1085 : }

  0002c	5d		 pop	 ebp
  0002d	c2 10 00	 ret	 16			; 00000010H
??0D3DXQUATERNION@@QAE@MMMM@Z ENDP			; D3DXQUATERNION::D3DXQUATERNION
_TEXT	ENDS
PUBLIC	?D3DXVec3Length@@YAMPBUD3DXVECTOR3@@@Z		; D3DXVec3Length
; Function compile flags: /Ogsp
;	COMDAT ?D3DXVec3Length@@YAMPBUD3DXVECTOR3@@@Z
_TEXT	SEGMENT
tv169 = 8						; size = 4
tv160 = 8						; size = 4
_pV$ = 8						; size = 4
?D3DXVec3Length@@YAMPBUD3DXVECTOR3@@@Z PROC		; D3DXVec3Length, COMDAT

; 1710 : {

  00000	55		 push	 ebp
  00001	8b ec		 mov	 ebp, esp

; 1711 : #ifdef D3DX_DEBUG
; 1712 :     if(!pV)
; 1713 :         return 0.0f;
; 1714 : #endif
; 1715 : 
; 1716 : #ifdef __cplusplus
; 1717 :     return sqrtf(pV->x * pV->x + pV->y * pV->y + pV->z * pV->z);

  00003	8b 45 08	 mov	 eax, DWORD PTR _pV$[ebp]
  00006	d9 40 04	 fld	 DWORD PTR [eax+4]
  00009	d9 00		 fld	 DWORD PTR [eax]
  0000b	d9 40 08	 fld	 DWORD PTR [eax+8]
  0000e	d9 c1		 fld	 ST(1)
  00010	de ca		 fmulp	 ST(2), ST(0)
  00012	d9 c2		 fld	 ST(2)
  00014	de cb		 fmulp	 ST(3), ST(0)
  00016	d9 c9		 fxch	 ST(1)
  00018	de c2		 faddp	 ST(2), ST(0)
  0001a	d9 c0		 fld	 ST(0)
  0001c	de c9		 fmulp	 ST(1), ST(0)
  0001e	de c1		 faddp	 ST(1), ST(0)
  00020	d9 5d 08	 fstp	 DWORD PTR tv169[ebp]
  00023	d9 45 08	 fld	 DWORD PTR tv169[ebp]
  00026	e8 00 00 00 00	 call	 __CIsqrt
  0002b	d9 5d 08	 fstp	 DWORD PTR tv160[ebp]
  0002e	d9 45 08	 fld	 DWORD PTR tv160[ebp]

; 1718 : #else
; 1719 :     return (FLOAT) sqrt(pV->x * pV->x + pV->y * pV->y + pV->z * pV->z);
; 1720 : #endif
; 1721 : }

  00031	5d		 pop	 ebp
  00032	c3		 ret	 0
?D3DXVec3Length@@YAMPBUD3DXVECTOR3@@@Z ENDP		; D3DXVec3Length
_TEXT	ENDS
PUBLIC	?_DECSTR@@YAXPADH@Z				; _DECSTR
; Function compile flags: /Ogsp
; File d:\lost saga for developer\youtube\tutorial\source\src\lsclient\stringprotect.h
;	COMDAT ?_DECSTR@@YAXPADH@Z
_TEXT	SEGMENT
_s$ = 8							; size = 4
_l$ = 12						; size = 4
?_DECSTR@@YAXPADH@Z PROC				; _DECSTR, COMDAT

; 40   : __forceinline void _DECSTR(char* s, int l){int i=0,l4=(l-1)/4,*p=(int*)s;s[l-1]=0;for(;i<l4;++i)*(p++)^=0xEAEBECED;for(i=l4*4;i<l-1;++i)s[i]^=0xED-i%4;}

  00000	55		 push	 ebp
  00001	8b ec		 mov	 ebp, esp
  00003	8b 4d 0c	 mov	 ecx, DWORD PTR _l$[ebp]
  00006	56		 push	 esi
  00007	8b 75 08	 mov	 esi, DWORD PTR _s$[ebp]
  0000a	57		 push	 edi
  0000b	8d 79 ff	 lea	 edi, DWORD PTR [ecx-1]
  0000e	8b c7		 mov	 eax, edi
  00010	99		 cdq
  00011	83 e2 03	 and	 edx, 3
  00014	03 c2		 add	 eax, edx
  00016	c1 f8 02	 sar	 eax, 2
  00019	8b d6		 mov	 edx, esi
  0001b	c6 44 0e ff 00	 mov	 BYTE PTR [esi+ecx-1], 0
  00020	85 c0		 test	 eax, eax
  00022	7e 0e		 jle	 SHORT $LN4@DECSTR
  00024	8b c8		 mov	 ecx, eax
$LL6@DECSTR:
  00026	81 32 ed ec eb
	ea		 xor	 DWORD PTR [edx], -353637139 ; eaebecedH
  0002c	83 c2 04	 add	 edx, 4
  0002f	49		 dec	 ecx
  00030	75 f4		 jne	 SHORT $LL6@DECSTR
$LN4@DECSTR:
  00032	c1 e0 02	 shl	 eax, 2
  00035	eb 17		 jmp	 SHORT $LN14@DECSTR
$LL3@DECSTR:
  00037	8b c8		 mov	 ecx, eax
  00039	81 e1 03 00 00
	80		 and	 ecx, -2147483645	; 80000003H
  0003f	79 05		 jns	 SHORT $LN13@DECSTR
  00041	49		 dec	 ecx
  00042	83 c9 fc	 or	 ecx, -4			; fffffffcH
  00045	41		 inc	 ecx
$LN13@DECSTR:
  00046	b2 ed		 mov	 dl, -19			; ffffffedH
  00048	2a d1		 sub	 dl, cl
  0004a	30 14 30	 xor	 BYTE PTR [eax+esi], dl
  0004d	40		 inc	 eax
$LN14@DECSTR:
  0004e	3b c7		 cmp	 eax, edi
  00050	7c e5		 jl	 SHORT $LL3@DECSTR
  00052	5f		 pop	 edi
  00053	5e		 pop	 esi
  00054	5d		 pop	 ebp
  00055	c3		 ret	 0
?_DECSTR@@YAXPADH@Z ENDP				; _DECSTR
_TEXT	ENDS
PUBLIC	??_R0?AVioGameEntity@@@8			; ioGameEntity `RTTI Type Descriptor'
PUBLIC	??_R0?AVioPlayEntity@@@8			; ioPlayEntity `RTTI Type Descriptor'
PUBLIC	?ToPlayEntity@@YAPAVioPlayEntity@@PAVioGameEntity@@@Z ; ToPlayEntity
EXTRN	___RTDynamicCast:PROC
;	COMDAT ??_R0?AVioGameEntity@@@8
; File d:\lost saga for developer\youtube\tutorial\source\src\lsclient\ioplayentity.h
_DATA	SEGMENT
??_R0?AVioGameEntity@@@8 DD FLAT:??_7type_info@@6B@	; ioGameEntity `RTTI Type Descriptor'
	DD	00H
	DB	'.?AVioGameEntity@@', 00H
_DATA	ENDS
;	COMDAT ??_R0?AVioPlayEntity@@@8
_DATA	SEGMENT
??_R0?AVioPlayEntity@@@8 DD FLAT:??_7type_info@@6B@	; ioPlayEntity `RTTI Type Descriptor'
	DD	00H
	DB	'.?AVioPlayEntity@@', 00H
; Function compile flags: /Ogsp
_DATA	ENDS
;	COMDAT ?ToPlayEntity@@YAPAVioPlayEntity@@PAVioGameEntity@@@Z
_TEXT	SEGMENT
_pObj$ = 8						; size = 4
?ToPlayEntity@@YAPAVioPlayEntity@@PAVioGameEntity@@@Z PROC ; ToPlayEntity, COMDAT

; 121  : {

  00000	55		 push	 ebp
  00001	8b ec		 mov	 ebp, esp
  00003	56		 push	 esi

; 122  : 	if( !pObj || pObj->GetTypeID() != ioGameEntity::GET_PLAY_ENTITY )

  00004	8b 75 08	 mov	 esi, DWORD PTR _pObj$[ebp]
  00007	85 f6		 test	 esi, esi
  00009	74 25		 je	 SHORT $LN1@ToPlayEnti
  0000b	8b 06		 mov	 eax, DWORD PTR [esi]
  0000d	8b ce		 mov	 ecx, esi
  0000f	ff 50 10	 call	 DWORD PTR [eax+16]
  00012	83 f8 01	 cmp	 eax, 1
  00015	75 19		 jne	 SHORT $LN1@ToPlayEnti

; 124  : 
; 125  : 	return dynamic_cast< ioPlayEntity* >( pObj );

  00017	6a 00		 push	 0
  00019	68 00 00 00 00	 push	 OFFSET ??_R0?AVioPlayEntity@@@8
  0001e	68 00 00 00 00	 push	 OFFSET ??_R0?AVioGameEntity@@@8
  00023	6a 00		 push	 0
  00025	56		 push	 esi
  00026	e8 00 00 00 00	 call	 ___RTDynamicCast
  0002b	83 c4 14	 add	 esp, 20			; 00000014H
  0002e	eb 02		 jmp	 SHORT $LN3@ToPlayEnti
$LN1@ToPlayEnti:

; 123  : 		return NULL;

  00030	33 c0		 xor	 eax, eax
$LN3@ToPlayEnti:
  00032	5e		 pop	 esi

; 126  : }

  00033	5d		 pop	 ebp
  00034	c3		 ret	 0
?ToPlayEntity@@YAPAVioPlayEntity@@PAVioGameEntity@@@Z ENDP ; ToPlayEntity
_TEXT	ENDS
PUBLIC	??_R0?AVioDummyChar@@@8				; ioDummyChar `RTTI Type Descriptor'
PUBLIC	?ToDummyChar@@YAPAVioDummyChar@@PAVioGameEntity@@@Z ; ToDummyChar
;	COMDAT ??_R0?AVioDummyChar@@@8
; File d:\lost saga for developer\youtube\tutorial\source\src\lsclient\iodummychar.h
_DATA	SEGMENT
??_R0?AVioDummyChar@@@8 DD FLAT:??_7type_info@@6B@	; ioDummyChar `RTTI Type Descriptor'
	DD	00H
	DB	'.?AVioDummyChar@@', 00H
; Function compile flags: /Ogsp
_DATA	ENDS
;	COMDAT ?ToDummyChar@@YAPAVioDummyChar@@PAVioGameEntity@@@Z
_TEXT	SEGMENT
_pObj$ = 8						; size = 4
?ToDummyChar@@YAPAVioDummyChar@@PAVioGameEntity@@@Z PROC ; ToDummyChar, COMDAT

; 758  : {

  00000	55		 push	 ebp
  00001	8b ec		 mov	 ebp, esp
  00003	56		 push	 esi

; 759  : 	ioPlayEntity *pPlay = ToPlayEntity( pObj );

  00004	ff 75 08	 push	 DWORD PTR _pObj$[ebp]
  00007	e8 00 00 00 00	 call	 ?ToPlayEntity@@YAPAVioPlayEntity@@PAVioGameEntity@@@Z ; ToPlayEntity
  0000c	8b f0		 mov	 esi, eax
  0000e	59		 pop	 ecx

; 760  : 	if( !pPlay || pPlay->GetSubType() != ioPlayEntity::PST_DUMMY_CHAR )

  0000f	85 f6		 test	 esi, esi
  00011	74 28		 je	 SHORT $LN1@ToDummyCha
  00013	8b 06		 mov	 eax, DWORD PTR [esi]
  00015	8b ce		 mov	 ecx, esi
  00017	ff 90 a4 00 00
	00		 call	 DWORD PTR [eax+164]
  0001d	83 f8 0a	 cmp	 eax, 10			; 0000000aH
  00020	75 19		 jne	 SHORT $LN1@ToDummyCha

; 762  : 
; 763  : 	return dynamic_cast< ioDummyChar* >( pPlay );

  00022	6a 00		 push	 0
  00024	68 00 00 00 00	 push	 OFFSET ??_R0?AVioDummyChar@@@8
  00029	68 00 00 00 00	 push	 OFFSET ??_R0?AVioPlayEntity@@@8
  0002e	6a 00		 push	 0
  00030	56		 push	 esi
  00031	e8 00 00 00 00	 call	 ___RTDynamicCast
  00036	83 c4 14	 add	 esp, 20			; 00000014H
  00039	eb 02		 jmp	 SHORT $LN3@ToDummyCha
$LN1@ToDummyCha:

; 761  : 		return NULL;

  0003b	33 c0		 xor	 eax, eax
$LN3@ToDummyCha:
  0003d	5e		 pop	 esi

; 764  : }

  0003e	5d		 pop	 ebp
  0003f	c3		 ret	 0
?ToDummyChar@@YAPAVioDummyChar@@PAVioGameEntity@@@Z ENDP ; ToDummyChar
_TEXT	ENDS
PUBLIC	?IsLive@ioWeapon@@QBE_NXZ			; ioWeapon::IsLive
; Function compile flags: /Ogsp
; File d:\lost saga for developer\youtube\tutorial\source\src\lsclient\ioweapon.h
;	COMDAT ?IsLive@ioWeapon@@QBE_NXZ
_TEXT	SEGMENT
?IsLive@ioWeapon@@QBE_NXZ PROC				; ioWeapon::IsLive, COMDAT
; _this$ = ecx

; 533  : 	inline bool IsLive() const { return m_bLive; }

  00000	8a 81 82 05 00
	00		 mov	 al, BYTE PTR [ecx+1410]
  00006	c3		 ret	 0
?IsLive@ioWeapon@@QBE_NXZ ENDP				; ioWeapon::IsLive
_TEXT	ENDS
PUBLIC	?GetOwnerName@ioWeapon@@QBEABVioHashString@@XZ	; ioWeapon::GetOwnerName
; Function compile flags: /Ogsp
;	COMDAT ?GetOwnerName@ioWeapon@@QBEABVioHashString@@XZ
_TEXT	SEGMENT
?GetOwnerName@ioWeapon@@QBEABVioHashString@@XZ PROC	; ioWeapon::GetOwnerName, COMDAT
; _this$ = ecx

; 636  : 	inline const ioHashString& GetOwnerName() const { return m_OwnerName; }

  00000	8d 41 10	 lea	 eax, DWORD PTR [ecx+16]
  00003	c3		 ret	 0
?GetOwnerName@ioWeapon@@QBEABVioHashString@@XZ ENDP	; ioWeapon::GetOwnerName
_TEXT	ENDS
PUBLIC	?GetParentSceneNode@ioWeapon@@QBEPAVioSceneNode@@XZ ; ioWeapon::GetParentSceneNode
; Function compile flags: /Ogsp
;	COMDAT ?GetParentSceneNode@ioWeapon@@QBEPAVioSceneNode@@XZ
_TEXT	SEGMENT
?GetParentSceneNode@ioWeapon@@QBEPAVioSceneNode@@XZ PROC ; ioWeapon::GetParentSceneNode, COMDAT
; _this$ = ecx

; 797  : 	ioSceneNode* GetParentSceneNode() const { return m_pSceneNode; }

  00000	8b 41 04	 mov	 eax, DWORD PTR [ecx+4]
  00003	c3		 ret	 0
?GetParentSceneNode@ioWeapon@@QBEPAVioSceneNode@@XZ ENDP ; ioWeapon::GetParentSceneNode
_TEXT	ENDS
PUBLIC	??_R0?AVioWallZone@@@8				; ioWallZone `RTTI Type Descriptor'
PUBLIC	?ToWallZone@@YAPAVioWallZone@@PAVioGameEntity@@@Z ; ToWallZone
;	COMDAT ??_R0?AVioWallZone@@@8
; File d:\lost saga for developer\youtube\tutorial\source\src\lsclient\iowallzone.h
_DATA	SEGMENT
??_R0?AVioWallZone@@@8 DD FLAT:??_7type_info@@6B@	; ioWallZone `RTTI Type Descriptor'
	DD	00H
	DB	'.?AVioWallZone@@', 00H
; Function compile flags: /Ogsp
_DATA	ENDS
;	COMDAT ?ToWallZone@@YAPAVioWallZone@@PAVioGameEntity@@@Z
_TEXT	SEGMENT
_pObj$ = 8						; size = 4
?ToWallZone@@YAPAVioWallZone@@PAVioGameEntity@@@Z PROC	; ToWallZone, COMDAT

; 50   : {

  00000	55		 push	 ebp
  00001	8b ec		 mov	 ebp, esp
  00003	56		 push	 esi

; 51   : 	ioPlayEntity *pPlay = ToPlayEntity( pObj );

  00004	ff 75 08	 push	 DWORD PTR _pObj$[ebp]
  00007	e8 00 00 00 00	 call	 ?ToPlayEntity@@YAPAVioPlayEntity@@PAVioGameEntity@@@Z ; ToPlayEntity
  0000c	8b f0		 mov	 esi, eax
  0000e	59		 pop	 ecx

; 52   : 	if( !pPlay || pPlay->GetSubType() != ioPlayEntity::PST_WALL_ZONE )

  0000f	85 f6		 test	 esi, esi
  00011	74 28		 je	 SHORT $LN1@ToWallZone
  00013	8b 06		 mov	 eax, DWORD PTR [esi]
  00015	8b ce		 mov	 ecx, esi
  00017	ff 90 a4 00 00
	00		 call	 DWORD PTR [eax+164]
  0001d	83 f8 0b	 cmp	 eax, 11			; 0000000bH
  00020	75 19		 jne	 SHORT $LN1@ToWallZone

; 54   : 
; 55   : 	return dynamic_cast< ioWallZone* >( pPlay );

  00022	6a 00		 push	 0
  00024	68 00 00 00 00	 push	 OFFSET ??_R0?AVioWallZone@@@8
  00029	68 00 00 00 00	 push	 OFFSET ??_R0?AVioPlayEntity@@@8
  0002e	6a 00		 push	 0
  00030	56		 push	 esi
  00031	e8 00 00 00 00	 call	 ___RTDynamicCast
  00036	83 c4 14	 add	 esp, 20			; 00000014H
  00039	eb 02		 jmp	 SHORT $LN3@ToWallZone
$LN1@ToWallZone:

; 53   : 		return NULL;

  0003b	33 c0		 xor	 eax, eax
$LN3@ToWallZone:
  0003d	5e		 pop	 esi

; 56   : }

  0003e	5d		 pop	 ebp
  0003f	c3		 ret	 0
?ToWallZone@@YAPAVioWallZone@@PAVioGameEntity@@@Z ENDP	; ToWallZone
_TEXT	ENDS
PUBLIC	??_R0?AVioSymbolStruct@@@8			; ioSymbolStruct `RTTI Type Descriptor'
PUBLIC	?ToSymbolStruct@@YAPAVioSymbolStruct@@PAVioGameEntity@@@Z ; ToSymbolStruct
;	COMDAT ??_R0?AVioSymbolStruct@@@8
; File d:\lost saga for developer\youtube\tutorial\source\src\lsclient\iosymbolstruct.h
_DATA	SEGMENT
??_R0?AVioSymbolStruct@@@8 DD FLAT:??_7type_info@@6B@	; ioSymbolStruct `RTTI Type Descriptor'
	DD	00H
	DB	'.?AVioSymbolStruct@@', 00H
; Function compile flags: /Ogsp
_DATA	ENDS
;	COMDAT ?ToSymbolStruct@@YAPAVioSymbolStruct@@PAVioGameEntity@@@Z
_TEXT	SEGMENT
_pObj$ = 8						; size = 4
?ToSymbolStruct@@YAPAVioSymbolStruct@@PAVioGameEntity@@@Z PROC ; ToSymbolStruct, COMDAT

; 171  : {

  00000	55		 push	 ebp
  00001	8b ec		 mov	 ebp, esp
  00003	56		 push	 esi

; 172  : 	ioPlayEntity *pPlay = ToPlayEntity( pObj );

  00004	ff 75 08	 push	 DWORD PTR _pObj$[ebp]
  00007	e8 00 00 00 00	 call	 ?ToPlayEntity@@YAPAVioPlayEntity@@PAVioGameEntity@@@Z ; ToPlayEntity
  0000c	8b f0		 mov	 esi, eax
  0000e	59		 pop	 ecx

; 173  : 	if( !pPlay || pPlay->GetSubType() != ioPlayEntity::PST_SYMBOL )

  0000f	85 f6		 test	 esi, esi
  00011	74 28		 je	 SHORT $LN1@ToSymbolSt
  00013	8b 06		 mov	 eax, DWORD PTR [esi]
  00015	8b ce		 mov	 ecx, esi
  00017	ff 90 a4 00 00
	00		 call	 DWORD PTR [eax+164]
  0001d	83 f8 01	 cmp	 eax, 1
  00020	75 19		 jne	 SHORT $LN1@ToSymbolSt

; 175  : 
; 176  : 	return dynamic_cast< ioSymbolStruct* >( pPlay );

  00022	6a 00		 push	 0
  00024	68 00 00 00 00	 push	 OFFSET ??_R0?AVioSymbolStruct@@@8
  00029	68 00 00 00 00	 push	 OFFSET ??_R0?AVioPlayEntity@@@8
  0002e	6a 00		 push	 0
  00030	56		 push	 esi
  00031	e8 00 00 00 00	 call	 ___RTDynamicCast
  00036	83 c4 14	 add	 esp, 20			; 00000014H
  00039	eb 02		 jmp	 SHORT $LN3@ToSymbolSt
$LN1@ToSymbolSt:

; 174  : 		return NULL;

  0003b	33 c0		 xor	 eax, eax
$LN3@ToSymbolSt:
  0003d	5e		 pop	 esi

; 177  : }

  0003e	5d		 pop	 ebp
  0003f	c3		 ret	 0
?ToSymbolStruct@@YAPAVioSymbolStruct@@PAVioGameEntity@@@Z ENDP ; ToSymbolStruct
_TEXT	ENDS
PUBLIC	??_R0?AVioBall@@@8				; ioBall `RTTI Type Descriptor'
PUBLIC	?ToBallStruct@@YAPAVioBall@@PAVioGameEntity@@@Z	; ToBallStruct
;	COMDAT ??_R0?AVioBall@@@8
; File d:\lost saga for developer\youtube\tutorial\source\src\lsclient\ioball.h
_DATA	SEGMENT
??_R0?AVioBall@@@8 DD FLAT:??_7type_info@@6B@		; ioBall `RTTI Type Descriptor'
	DD	00H
	DB	'.?AVioBall@@', 00H
; Function compile flags: /Ogsp
_DATA	ENDS
;	COMDAT ?ToBallStruct@@YAPAVioBall@@PAVioGameEntity@@@Z
_TEXT	SEGMENT
_pObj$ = 8						; size = 4
?ToBallStruct@@YAPAVioBall@@PAVioGameEntity@@@Z PROC	; ToBallStruct, COMDAT

; 252  : {

  00000	55		 push	 ebp
  00001	8b ec		 mov	 ebp, esp
  00003	56		 push	 esi

; 253  : 	ioPlayEntity *pPlay = ToPlayEntity( pObj );

  00004	ff 75 08	 push	 DWORD PTR _pObj$[ebp]
  00007	e8 00 00 00 00	 call	 ?ToPlayEntity@@YAPAVioPlayEntity@@PAVioGameEntity@@@Z ; ToPlayEntity
  0000c	8b f0		 mov	 esi, eax
  0000e	59		 pop	 ecx

; 254  : 	if( !pPlay || pPlay->GetSubType() != ioPlayEntity::PST_BALL )

  0000f	85 f6		 test	 esi, esi
  00011	74 28		 je	 SHORT $LN1@ToBallStru
  00013	8b 06		 mov	 eax, DWORD PTR [esi]
  00015	8b ce		 mov	 ecx, esi
  00017	ff 90 a4 00 00
	00		 call	 DWORD PTR [eax+164]
  0001d	83 f8 08	 cmp	 eax, 8
  00020	75 19		 jne	 SHORT $LN1@ToBallStru

; 256  : 
; 257  : 	return dynamic_cast< ioBall* >( pPlay );

  00022	6a 00		 push	 0
  00024	68 00 00 00 00	 push	 OFFSET ??_R0?AVioBall@@@8
  00029	68 00 00 00 00	 push	 OFFSET ??_R0?AVioPlayEntity@@@8
  0002e	6a 00		 push	 0
  00030	56		 push	 esi
  00031	e8 00 00 00 00	 call	 ___RTDynamicCast
  00036	83 c4 14	 add	 esp, 20			; 00000014H
  00039	eb 02		 jmp	 SHORT $LN3@ToBallStru
$LN1@ToBallStru:

; 255  : 		return NULL;

  0003b	33 c0		 xor	 eax, eax
$LN3@ToBallStru:
  0003d	5e		 pop	 esi

; 258  : }

  0003e	5d		 pop	 ebp
  0003f	c3		 ret	 0
?ToBallStruct@@YAPAVioBall@@PAVioGameEntity@@@Z ENDP	; ToBallStruct
_TEXT	ENDS
PUBLIC	??_R0?AVioPushStruct@@@8			; ioPushStruct `RTTI Type Descriptor'
PUBLIC	?ToPushStruct@@YAPAVioPushStruct@@PAVioGameEntity@@@Z ; ToPushStruct
;	COMDAT ??_R0?AVioPushStruct@@@8
; File d:\lost saga for developer\youtube\tutorial\source\src\lsclient\iopushstruct.h
_DATA	SEGMENT
??_R0?AVioPushStruct@@@8 DD FLAT:??_7type_info@@6B@	; ioPushStruct `RTTI Type Descriptor'
	DD	00H
	DB	'.?AVioPushStruct@@', 00H
; Function compile flags: /Ogsp
_DATA	ENDS
;	COMDAT ?ToPushStruct@@YAPAVioPushStruct@@PAVioGameEntity@@@Z
_TEXT	SEGMENT
_pObj$ = 8						; size = 4
?ToPushStruct@@YAPAVioPushStruct@@PAVioGameEntity@@@Z PROC ; ToPushStruct, COMDAT

; 440  : {

  00000	55		 push	 ebp
  00001	8b ec		 mov	 ebp, esp
  00003	56		 push	 esi

; 441  : 	ioPlayEntity *pPlay = ToPlayEntity( pObj );

  00004	ff 75 08	 push	 DWORD PTR _pObj$[ebp]
  00007	e8 00 00 00 00	 call	 ?ToPlayEntity@@YAPAVioPlayEntity@@PAVioGameEntity@@@Z ; ToPlayEntity
  0000c	8b f0		 mov	 esi, eax
  0000e	59		 pop	 ecx

; 442  : 	if( !pPlay || pPlay->GetSubType() != ioPlayEntity::PST_PUSHSTRUCT )

  0000f	85 f6		 test	 esi, esi
  00011	74 28		 je	 SHORT $LN1@ToPushStru
  00013	8b 06		 mov	 eax, DWORD PTR [esi]
  00015	8b ce		 mov	 ecx, esi
  00017	ff 90 a4 00 00
	00		 call	 DWORD PTR [eax+164]
  0001d	83 f8 02	 cmp	 eax, 2
  00020	75 19		 jne	 SHORT $LN1@ToPushStru

; 444  : 
; 445  : 	return dynamic_cast< ioPushStruct* >( pPlay );

  00022	6a 00		 push	 0
  00024	68 00 00 00 00	 push	 OFFSET ??_R0?AVioPushStruct@@@8
  00029	68 00 00 00 00	 push	 OFFSET ??_R0?AVioPlayEntity@@@8
  0002e	6a 00		 push	 0
  00030	56		 push	 esi
  00031	e8 00 00 00 00	 call	 ___RTDynamicCast
  00036	83 c4 14	 add	 esp, 20			; 00000014H
  00039	eb 02		 jmp	 SHORT $LN3@ToPushStru
$LN1@ToPushStru:

; 443  : 		return NULL;

  0003b	33 c0		 xor	 eax, eax
$LN3@ToPushStru:
  0003d	5e		 pop	 esi

; 446  : }

  0003e	5d		 pop	 ebp
  0003f	c3		 ret	 0
?ToPushStruct@@YAPAVioPushStruct@@PAVioGameEntity@@@Z ENDP ; ToPushStruct
_TEXT	ENDS
PUBLIC	?DecryptValueToPool@?$CEncrypt@W4TeamType@@@@QAEXPAW4TeamType@@@Z ; CEncrypt<enum TeamType>::DecryptValueToPool
EXTRN	?DecryptByte@ccddaabb@@QBEXPBDPADH@Z:PROC	; ccddaabb::DecryptByte
; Function compile flags: /Ogsp
; File d:\lost saga for developer\youtube\tutorial\source\src\lsclient\encryptvalue.h
;	COMDAT ?DecryptValueToPool@?$CEncrypt@W4TeamType@@@@QAEXPAW4TeamType@@@Z
_TEXT	SEGMENT
_value$ = 8						; size = 4
?DecryptValueToPool@?$CEncrypt@W4TeamType@@@@QAEXPAW4TeamType@@@Z PROC ; CEncrypt<enum TeamType>::DecryptValueToPool, COMDAT
; _this$ = ecx

; 2959 : 	{

  00000	55		 push	 ebp
  00001	8b ec		 mov	 ebp, esp
  00003	56		 push	 esi

; 2960 : 		m_RC5.DecryptByte( m_MemPool, m_TempMem, sizeof(TeamType) );

  00004	8d 71 28	 lea	 esi, DWORD PTR [ecx+40]
  00007	6a 04		 push	 4
  00009	8d 41 1c	 lea	 eax, DWORD PTR [ecx+28]
  0000c	56		 push	 esi
  0000d	50		 push	 eax
  0000e	83 c1 0c	 add	 ecx, 12			; 0000000cH
  00011	e8 00 00 00 00	 call	 ?DecryptByte@ccddaabb@@QBEXPBDPADH@Z ; ccddaabb::DecryptByte

; 2961 : 		*value = *((TeamType*)m_TempMem);

  00016	8b 06		 mov	 eax, DWORD PTR [esi]
  00018	8b 4d 08	 mov	 ecx, DWORD PTR _value$[ebp]
  0001b	89 01		 mov	 DWORD PTR [ecx], eax
  0001d	5e		 pop	 esi

; 2962 : 	}

  0001e	5d		 pop	 ebp
  0001f	c2 04 00	 ret	 4
?DecryptValueToPool@?$CEncrypt@W4TeamType@@@@QAEXPAW4TeamType@@@Z ENDP ; CEncrypt<enum TeamType>::DecryptValueToPool
_TEXT	ENDS
PUBLIC	??_R0?AVioBaseChar@@@8				; ioBaseChar `RTTI Type Descriptor'
PUBLIC	?ToBaseChar@@YAPAVioBaseChar@@PAVioGameEntity@@@Z ; ToBaseChar
;	COMDAT ??_R0?AVioBaseChar@@@8
; File d:\lost saga for developer\youtube\tutorial\source\src\lsclient\iobasechar.h
_DATA	SEGMENT
??_R0?AVioBaseChar@@@8 DD FLAT:??_7type_info@@6B@	; ioBaseChar `RTTI Type Descriptor'
	DD	00H
	DB	'.?AVioBaseChar@@', 00H
; Function compile flags: /Ogsp
_DATA	ENDS
;	COMDAT ?ToBaseChar@@YAPAVioBaseChar@@PAVioGameEntity@@@Z
_TEXT	SEGMENT
_pObj$ = 8						; size = 4
?ToBaseChar@@YAPAVioBaseChar@@PAVioGameEntity@@@Z PROC	; ToBaseChar, COMDAT

; 4326 : {

  00000	55		 push	 ebp
  00001	8b ec		 mov	 ebp, esp
  00003	56		 push	 esi

; 4327 : 	ioPlayEntity *pPlay = ToPlayEntity( pObj );

  00004	ff 75 08	 push	 DWORD PTR _pObj$[ebp]
  00007	e8 00 00 00 00	 call	 ?ToPlayEntity@@YAPAVioPlayEntity@@PAVioGameEntity@@@Z ; ToPlayEntity
  0000c	8b f0		 mov	 esi, eax
  0000e	59		 pop	 ecx

; 4328 : 	if( !pPlay || pPlay->GetSubType() != ioPlayEntity::PST_CHAR )

  0000f	85 f6		 test	 esi, esi
  00011	74 25		 je	 SHORT $LN1@ToBaseChar
  00013	8b 06		 mov	 eax, DWORD PTR [esi]
  00015	8b ce		 mov	 ecx, esi
  00017	ff 90 a4 00 00
	00		 call	 DWORD PTR [eax+164]
  0001d	85 c0		 test	 eax, eax
  0001f	75 17		 jne	 SHORT $LN1@ToBaseChar

; 4330 : 
; 4331 : 	return dynamic_cast< ioBaseChar* >( pPlay );

  00021	50		 push	 eax
  00022	68 00 00 00 00	 push	 OFFSET ??_R0?AVioBaseChar@@@8
  00027	68 00 00 00 00	 push	 OFFSET ??_R0?AVioPlayEntity@@@8
  0002c	50		 push	 eax
  0002d	56		 push	 esi
  0002e	e8 00 00 00 00	 call	 ___RTDynamicCast
  00033	83 c4 14	 add	 esp, 20			; 00000014H
  00036	eb 02		 jmp	 SHORT $LN3@ToBaseChar
$LN1@ToBaseChar:

; 4329 : 		return NULL;

  00038	33 c0		 xor	 eax, eax
$LN3@ToBaseChar:
  0003a	5e		 pop	 esi

; 4332 : }

  0003b	5d		 pop	 ebp
  0003c	c3		 ret	 0
?ToBaseChar@@YAPAVioBaseChar@@PAVioGameEntity@@@Z ENDP	; ToBaseChar
_TEXT	ENDS
PUBLIC	??0ioNuclearWeapon@@QAE@PAVioBaseChar@@PBUWeaponAttribute@@@Z ; ioNuclearWeapon::ioNuclearWeapon
EXTRN	?SetPeculiarity@ioWeapon@@QAEXK@Z:PROC		; ioWeapon::SetPeculiarity
EXTRN	__imp_??0ioHashString@@QAE@XZ:PROC
EXTRN	__imp_??0ioOrientBox@@QAE@XZ:PROC
EXTRN	??0ioWeapon@@QAE@PAVioBaseChar@@PBUWeaponAttribute@@@Z:PROC ; ioWeapon::ioWeapon
;	COMDAT xdata$x
; File c:\program files (x86)\microsoft directx sdk (june 2010)\include\d3dx9math.h
xdata$x	SEGMENT
__ehfuncinfo$??0ioNuclearWeapon@@QAE@PAVioBaseChar@@PBUWeaponAttribute@@@Z DD 019930522H
	DD	05H
	DD	FLAT:__unwindtable$??0ioNuclearWeapon@@QAE@PAVioBaseChar@@PBUWeaponAttribute@@@Z
	DD	2 DUP(00H)
	DD	2 DUP(00H)
	DD	00H
	DD	01H
__unwindtable$??0ioNuclearWeapon@@QAE@PAVioBaseChar@@PBUWeaponAttribute@@@Z DD 0ffffffffH
	DD	FLAT:__unwindfunclet$??0ioNuclearWeapon@@QAE@PAVioBaseChar@@PBUWeaponAttribute@@@Z$0
	DD	00H
	DD	FLAT:__unwindfunclet$??0ioNuclearWeapon@@QAE@PAVioBaseChar@@PBUWeaponAttribute@@@Z$1
	DD	01H
	DD	FLAT:__unwindfunclet$??0ioNuclearWeapon@@QAE@PAVioBaseChar@@PBUWeaponAttribute@@@Z$2
	DD	02H
	DD	FLAT:__unwindfunclet$??0ioNuclearWeapon@@QAE@PAVioBaseChar@@PBUWeaponAttribute@@@Z$3
	DD	03H
	DD	FLAT:__unwindfunclet$??0ioNuclearWeapon@@QAE@PAVioBaseChar@@PBUWeaponAttribute@@@Z$4
; Function compile flags: /Ogsp
; File d:\lost saga for developer\youtube\tutorial\source\src\lsclient\ionuclearweapon.cpp
xdata$x	ENDS
;	COMDAT ??0ioNuclearWeapon@@QAE@PAVioBaseChar@@PBUWeaponAttribute@@@Z
_TEXT	SEGMENT
_this$ = -16						; size = 4
__$EHRec$ = -12						; size = 12
_pOwner$ = 8						; size = 4
_pAttr$ = 12						; size = 4
??0ioNuclearWeapon@@QAE@PAVioBaseChar@@PBUWeaponAttribute@@@Z PROC ; ioNuclearWeapon::ioNuclearWeapon, COMDAT
; _this$ = ecx

; 15   : {

  00000	6a 04		 push	 4
  00002	b8 00 00 00 00	 mov	 eax, __ehhandler$??0ioNuclearWeapon@@QAE@PAVioBaseChar@@PBUWeaponAttribute@@@Z
  00007	e8 00 00 00 00	 call	 __EH_prolog3
  0000c	8b f1		 mov	 esi, ecx
  0000e	89 75 f0	 mov	 DWORD PTR _this$[ebp], esi
  00011	ff 75 0c	 push	 DWORD PTR _pAttr$[ebp]
  00014	ff 75 08	 push	 DWORD PTR _pOwner$[ebp]
  00017	e8 00 00 00 00	 call	 ??0ioWeapon@@QAE@PAVioBaseChar@@PBUWeaponAttribute@@@Z ; ioWeapon::ioWeapon
  0001c	83 65 fc 00	 and	 DWORD PTR __$EHRec$[ebp+8], 0
  00020	8d 8e 9c 08 00
	00		 lea	 ecx, DWORD PTR [esi+2204]
  00026	c7 06 00 00 00
	00		 mov	 DWORD PTR [esi], OFFSET ??_7ioNuclearWeapon@@6B@
  0002c	ff 15 00 00 00
	00		 call	 DWORD PTR __imp_??0ioOrientBox@@QAE@XZ
  00032	8b 3d 00 00 00
	00		 mov	 edi, DWORD PTR __imp_??0ioHashString@@QAE@XZ
  00038	8d 8e e0 08 00
	00		 lea	 ecx, DWORD PTR [esi+2272]
  0003e	c6 45 fc 01	 mov	 BYTE PTR __$EHRec$[ebp+8], 1
  00042	ff d7		 call	 edi
  00044	8d 8e f0 08 00
	00		 lea	 ecx, DWORD PTR [esi+2288]
  0004a	c6 45 fc 02	 mov	 BYTE PTR __$EHRec$[ebp+8], 2
  0004e	ff d7		 call	 edi
  00050	8d 8e 00 09 00
	00		 lea	 ecx, DWORD PTR [esi+2304]
  00056	c6 45 fc 03	 mov	 BYTE PTR __$EHRec$[ebp+8], 3
  0005a	ff d7		 call	 edi

; 16   : 	SetPeculiarity( WP_ATTACK_OWNER |
; 17   : 					WP_MINE_EXPLOSION |
; 18   : 					WP_WOUND_NO_SOUND |
; 19   : 					WP_DEF_NO_SOUND );

  0005c	68 d4 00 00 00	 push	 212			; 000000d4H
  00061	8b ce		 mov	 ecx, esi
  00063	c6 45 fc 04	 mov	 BYTE PTR __$EHRec$[ebp+8], 4
  00067	e8 00 00 00 00	 call	 ?SetPeculiarity@ioWeapon@@QAEXK@Z ; ioWeapon::SetPeculiarity

; 20   : 
; 21   : 	m_SensorID = -1;

  0006c	83 8e 98 08 00
	00 ff		 or	 DWORD PTR [esi+2200], -1

; 22   : 	m_pNuclear = NULL;

  00073	83 a6 94 08 00
	00 00		 and	 DWORD PTR [esi+2196], 0

; 23   : 	m_NuclearState = NS_FALL;

  0007a	83 a6 24 09 00
	00 00		 and	 DWORD PTR [esi+2340], 0

; 24   : 
; 25   : 	m_bResistance = false;

  00081	c6 86 3c 06 00
	00 00		 mov	 BYTE PTR [esi+1596], 0

; 26   : }

  00088	8b c6		 mov	 eax, esi
  0008a	e8 00 00 00 00	 call	 __EH_epilog3
  0008f	c2 08 00	 ret	 8
_TEXT	ENDS
;	COMDAT text$x
text$x	SEGMENT
__unwindfunclet$??0ioNuclearWeapon@@QAE@PAVioBaseChar@@PBUWeaponAttribute@@@Z$0:
  00000	8b 4d f0	 mov	 ecx, DWORD PTR _this$[ebp]
  00003	e9 00 00 00 00	 jmp	 ??1ioWeapon@@UAE@XZ	; ioWeapon::~ioWeapon
__unwindfunclet$??0ioNuclearWeapon@@QAE@PAVioBaseChar@@PBUWeaponAttribute@@@Z$1:
  00008	8b 4d f0	 mov	 ecx, DWORD PTR _this$[ebp]
  0000b	81 c1 9c 08 00
	00		 add	 ecx, 2204		; 0000089cH
  00011	ff 25 00 00 00
	00		 jmp	 DWORD PTR __imp_??1ioOrientBox@@QAE@XZ
__unwindfunclet$??0ioNuclearWeapon@@QAE@PAVioBaseChar@@PBUWeaponAttribute@@@Z$2:
  00017	8b 4d f0	 mov	 ecx, DWORD PTR _this$[ebp]
  0001a	81 c1 e0 08 00
	00		 add	 ecx, 2272		; 000008e0H
  00020	ff 25 00 00 00
	00		 jmp	 DWORD PTR __imp_??1ioHashString@@QAE@XZ
__unwindfunclet$??0ioNuclearWeapon@@QAE@PAVioBaseChar@@PBUWeaponAttribute@@@Z$3:
  00026	8b 4d f0	 mov	 ecx, DWORD PTR _this$[ebp]
  00029	81 c1 f0 08 00
	00		 add	 ecx, 2288		; 000008f0H
  0002f	ff 25 00 00 00
	00		 jmp	 DWORD PTR __imp_??1ioHashString@@QAE@XZ
__unwindfunclet$??0ioNuclearWeapon@@QAE@PAVioBaseChar@@PBUWeaponAttribute@@@Z$4:
  00035	8b 4d f0	 mov	 ecx, DWORD PTR _this$[ebp]
  00038	81 c1 00 09 00
	00		 add	 ecx, 2304		; 00000900H
  0003e	ff 25 00 00 00
	00		 jmp	 DWORD PTR __imp_??1ioHashString@@QAE@XZ
__ehhandler$??0ioNuclearWeapon@@QAE@PAVioBaseChar@@PBUWeaponAttribute@@@Z:
  00044	8b 54 24 08	 mov	 edx, DWORD PTR [esp+8]
  00048	8d 42 0c	 lea	 eax, DWORD PTR [edx+12]
  0004b	8b 4a ec	 mov	 ecx, DWORD PTR [edx-20]
  0004e	33 c8		 xor	 ecx, eax
  00050	e8 00 00 00 00	 call	 @__security_check_cookie@4
  00055	b8 00 00 00 00	 mov	 eax, OFFSET __ehfuncinfo$??0ioNuclearWeapon@@QAE@PAVioBaseChar@@PBUWeaponAttribute@@@Z
  0005a	e9 00 00 00 00	 jmp	 ___CxxFrameHandler3
text$x	ENDS
??0ioNuclearWeapon@@QAE@PAVioBaseChar@@PBUWeaponAttribute@@@Z ENDP ; ioNuclearWeapon::ioNuclearWeapon
EXTRN	??3@YAXPAX@Z:PROC				; operator delete
; Function compile flags: /Ogsp
;	COMDAT ??_GioNuclearWeapon@@UAEPAXI@Z
_TEXT	SEGMENT
___flags$ = 8						; size = 4
??_GioNuclearWeapon@@UAEPAXI@Z PROC			; ioNuclearWeapon::`scalar deleting destructor', COMDAT
; _this$ = ecx
  00000	55		 push	 ebp
  00001	8b ec		 mov	 ebp, esp
  00003	56		 push	 esi
  00004	8b f1		 mov	 esi, ecx
  00006	e8 00 00 00 00	 call	 ??1ioNuclearWeapon@@UAE@XZ ; ioNuclearWeapon::~ioNuclearWeapon
  0000b	f6 45 08 01	 test	 BYTE PTR ___flags$[ebp], 1
  0000f	74 07		 je	 SHORT $LN1@scalar
  00011	56		 push	 esi
  00012	e8 00 00 00 00	 call	 ??3@YAXPAX@Z		; operator delete
  00017	59		 pop	 ecx
$LN1@scalar:
  00018	8b c6		 mov	 eax, esi
  0001a	5e		 pop	 esi
  0001b	5d		 pop	 ebp
  0001c	c2 04 00	 ret	 4
??_GioNuclearWeapon@@UAEPAXI@Z ENDP			; ioNuclearWeapon::`scalar deleting destructor'
_TEXT	ENDS
PUBLIC	__real@4f800000
PUBLIC	?CreateNuclear@ioNuclearWeapon@@IAE_NABVioHashString@@@Z ; ioNuclearWeapon::CreateNuclear
EXTRN	__imp_?CreateEffect@ioEffectFactory@@QAEPAVioEffect@@ABVioHashString@@@Z:PROC
;	COMDAT __real@4f800000
; File d:\lost saga for developer\youtube\tutorial\source\src\lsclient\stdafx.h
CONST	SEGMENT
__real@4f800000 DD 04f800000r			; 4.29497e+009
; Function compile flags: /Ogsp
; File d:\lost saga for developer\youtube\tutorial\source\src\lsclient\ionuclearweapon.cpp
CONST	ENDS
;	COMDAT ?CreateNuclear@ioNuclearWeapon@@IAE_NABVioHashString@@@Z
_TEXT	SEGMENT
tv208 = 8						; size = 4
tv206 = 8						; size = 4
tv204 = 8						; size = 4
_szFileName$ = 8					; size = 4
?CreateNuclear@ioNuclearWeapon@@IAE_NABVioHashString@@@Z PROC ; ioNuclearWeapon::CreateNuclear, COMDAT
; _this$ = ecx

; 65   : {

  00000	55		 push	 ebp
  00001	8b ec		 mov	 ebp, esp
  00003	56		 push	 esi

; 66   : 	m_pNuclear = g_EffectFactory.CreateEffect( szFileName );

  00004	ff 75 08	 push	 DWORD PTR _szFileName$[ebp]
  00007	8b f1		 mov	 esi, ecx
  00009	ff 15 00 00 00
	00		 call	 DWORD PTR __imp_?GetSingleton@ioEffectFactory@@SAAAV1@XZ
  0000f	8b c8		 mov	 ecx, eax
  00011	ff 15 00 00 00
	00		 call	 DWORD PTR __imp_?CreateEffect@ioEffectFactory@@QAEPAVioEffect@@ABVioHashString@@@Z
  00017	89 86 94 08 00
	00		 mov	 DWORD PTR [esi+2196], eax

; 67   : 	if( !m_pNuclear )

  0001d	85 c0		 test	 eax, eax
  0001f	75 04		 jne	 SHORT $LN1@CreateNucl

; 68   : 		return false;

  00021	32 c0		 xor	 al, al
  00023	eb 7e		 jmp	 SHORT $LN2@CreateNucl
$LN1@CreateNucl:

; 69   : 
; 70   : 	GetParentSceneNode()->AttachObject( m_pNuclear );

  00025	8b 4e 04	 mov	 ecx, DWORD PTR [esi+4]
  00028	8b 11		 mov	 edx, DWORD PTR [ecx]
  0002a	53		 push	 ebx
  0002b	57		 push	 edi
  0002c	83 c0 14	 add	 eax, 20			; 00000014H
  0002f	50		 push	 eax
  00030	ff 92 ac 00 00
	00		 call	 DWORD PTR [edx+172]

; 71   : 	GetParentSceneNode()->SetScale( FLOAT1, FLOAT1, FLOAT1 );

  00036	8b 4e 04	 mov	 ecx, DWORD PTR [esi+4]
  00039	b8 01 00 00 00	 mov	 eax, 1
  0003e	8b d0		 mov	 edx, eax
  00040	b8 01 00 00 00	 mov	 eax, 1
  00045	8b f8		 mov	 edi, eax
  00047	b8 01 00 00 00	 mov	 eax, 1
  0004c	8b 19		 mov	 ebx, DWORD PTR [ecx]
  0004e	89 55 08	 mov	 DWORD PTR tv208[ebp], edx
  00051	db 45 08	 fild	 DWORD PTR tv208[ebp]
  00054	85 d2		 test	 edx, edx
  00056	79 06		 jns	 SHORT $LN16@CreateNucl
  00058	d8 05 00 00 00
	00		 fadd	 DWORD PTR __real@4f800000
$LN16@CreateNucl:
  0005e	83 ec 0c	 sub	 esp, 12			; 0000000cH
  00061	89 7d 08	 mov	 DWORD PTR tv206[ebp], edi
  00064	d9 5c 24 08	 fstp	 DWORD PTR [esp+8]
  00068	db 45 08	 fild	 DWORD PTR tv206[ebp]
  0006b	85 ff		 test	 edi, edi
  0006d	79 06		 jns	 SHORT $LN17@CreateNucl
  0006f	d8 05 00 00 00
	00		 fadd	 DWORD PTR __real@4f800000
$LN17@CreateNucl:
  00075	89 45 08	 mov	 DWORD PTR tv204[ebp], eax
  00078	d9 5c 24 04	 fstp	 DWORD PTR [esp+4]
  0007c	db 45 08	 fild	 DWORD PTR tv204[ebp]
  0007f	85 c0		 test	 eax, eax
  00081	79 06		 jns	 SHORT $LN18@CreateNucl
  00083	d8 05 00 00 00
	00		 fadd	 DWORD PTR __real@4f800000
$LN18@CreateNucl:
  00089	d9 1c 24	 fstp	 DWORD PTR [esp]
  0008c	ff 53 1c	 call	 DWORD PTR [ebx+28]

; 72   : 
; 73   : 	AddEffectEvent( m_pNuclear );

  0008f	ff b6 94 08 00
	00		 push	 DWORD PTR [esi+2196]
  00095	8b 06		 mov	 eax, DWORD PTR [esi]
  00097	8b ce		 mov	 ecx, esi
  00099	ff 90 68 01 00
	00		 call	 DWORD PTR [eax+360]
  0009f	5f		 pop	 edi

; 74   : 	return true;

  000a0	b0 01		 mov	 al, 1
  000a2	5b		 pop	 ebx
$LN2@CreateNucl:
  000a3	5e		 pop	 esi

; 75   : }

  000a4	5d		 pop	 ebp
  000a5	c2 04 00	 ret	 4
?CreateNuclear@ioNuclearWeapon@@IAE_NABVioHashString@@@Z ENDP ; ioNuclearWeapon::CreateNuclear
_TEXT	ENDS
PUBLIC	__real@0000000000000000
PUBLIC	_pStage$GSCopy$
PUBLIC	__$ArrayPad$
PUBLIC	?OnFalling@ioNuclearWeapon@@IAEXMPAVioPlayStage@@@Z ; ioNuclearWeapon::OnFalling
EXTRN	?SetOrientation@ioWeapon@@QAEXABUD3DXQUATERNION@@@Z:PROC ; ioWeapon::SetOrientation
EXTRN	?SetPosition@ioWeapon@@QAEXABUD3DXVECTOR3@@@Z:PROC ; ioWeapon::SetPosition
EXTRN	?GetMapHeight@ioPlayStage@@QAEMMMPBVioGameEntity@@_NM1@Z:PROC ; ioPlayStage::GetMapHeight
EXTRN	___security_cookie:DWORD
;	COMDAT __real@0000000000000000
; File c:\program files (x86)\microsoft directx sdk (june 2010)\include\d3dx9math.inl
CONST	SEGMENT
__real@0000000000000000 DQ 00000000000000000r	; 0
; Function compile flags: /Ogsp
; File d:\lost saga for developer\youtube\tutorial\source\src\lsclient\ionuclearweapon.cpp
CONST	ENDS
;	COMDAT ?OnFalling@ioNuclearWeapon@@IAEXMPAVioPlayStage@@@Z
_TEXT	SEGMENT
$T532092 = -56						; size = 16
$T530649 = -52						; size = 12
_pStage$GSCopy$ = -40					; size = 4
tv408 = -36						; size = 4
tv397 = -36						; size = 4
tv360 = -36						; size = 4
tv394 = -32						; size = 4
_fMapHeight$ = -32					; size = 4
_fMoveDist$ = -32					; size = 4
$T530650 = -28						; size = 12
_vPos$ = -16						; size = 12
__$ArrayPad$ = -4					; size = 4
_fTimePerSec$ = 8					; size = 4
_pStage$ = 12						; size = 4
?OnFalling@ioNuclearWeapon@@IAEXMPAVioPlayStage@@@Z PROC ; ioNuclearWeapon::OnFalling, COMDAT
; _this$ = ecx

; 166  : {

  00000	55		 push	 ebp
  00001	8b ec		 mov	 ebp, esp
  00003	83 ec 38	 sub	 esp, 56			; 00000038H
  00006	a1 00 00 00 00	 mov	 eax, DWORD PTR ___security_cookie
  0000b	33 c5		 xor	 eax, ebp
  0000d	89 45 fc	 mov	 DWORD PTR __$ArrayPad$[ebp], eax
  00010	8b 45 0c	 mov	 eax, DWORD PTR _pStage$[ebp]
  00013	53		 push	 ebx
  00014	8b d9		 mov	 ebx, ecx

; 182  : 	{
; 183  : 		vPos.y = fMapHeight;

  00016	89 45 d8	 mov	 DWORD PTR _pStage$GSCopy$[ebp], eax
  00019	e8 00 00 00 00	 call	 ?GetMoveSpeed@ioNuclearWeapon@@QAEMXZ ; ioNuclearWeapon::GetMoveSpeed
  0001e	d8 4d 08	 fmul	 DWORD PTR _fTimePerSec$[ebp]
  00021	8b 4b 04	 mov	 ecx, DWORD PTR [ebx+4]
  00024	d9 5d e0	 fstp	 DWORD PTR _fMoveDist$[ebp]

; 167  : 	float fMoveDist = GetMoveSpeed() * fTimePerSec;
; 168  : 	GetParentSceneNode()->Translate( D3DXVECTOR3( 0.0f, -FLOAT1, 0.0f ) * fMoveDist );

  00027	b8 01 00 00 00	 mov	 eax, 1

; 182  : 	{
; 183  : 		vPos.y = fMapHeight;

  0002c	89 45 dc	 mov	 DWORD PTR tv408[ebp], eax
  0002f	db 45 dc	 fild	 DWORD PTR tv408[ebp]
  00032	85 c0		 test	 eax, eax
  00034	79 06		 jns	 SHORT $LN21@OnFalling

; 167  : 	float fMoveDist = GetMoveSpeed() * fTimePerSec;
; 168  : 	GetParentSceneNode()->Translate( D3DXVECTOR3( 0.0f, -FLOAT1, 0.0f ) * fMoveDist );

  00036	d8 05 00 00 00
	00		 fadd	 DWORD PTR __real@4f800000
$LN21@OnFalling:
  0003c	f3 0f 10 45 e0	 movss	 xmm0, DWORD PTR _fMoveDist$[ebp]
  00041	d9 e0		 fchs
  00043	d9 5d d0	 fstp	 DWORD PTR $T530649[ebp+4]
  00046	0f 5a c0	 cvtps2pd xmm0, xmm0
  00049	d9 45 d0	 fld	 DWORD PTR $T530649[ebp+4]
  0004c	f2 0f 59 05 00
	00 00 00	 mulsd	 xmm0, QWORD PTR __real@0000000000000000
  00054	d8 4d e0	 fmul	 DWORD PTR _fMoveDist$[ebp]
  00057	66 0f 5a c0	 cvtpd2ps xmm0, xmm0
  0005b	6a 01		 push	 1
  0005d	8d 55 e4	 lea	 edx, DWORD PTR $T530650[ebp]
  00060	d9 5d e8	 fstp	 DWORD PTR $T530650[ebp+4]
  00063	f3 0f 11 45 e4	 movss	 DWORD PTR $T530650[ebp], xmm0
  00068	f3 0f 11 45 ec	 movss	 DWORD PTR $T530650[ebp+8], xmm0
  0006d	8b 01		 mov	 eax, DWORD PTR [ecx]
  0006f	52		 push	 edx
  00070	ff 50 3c	 call	 DWORD PTR [eax+60]

; 169  : 
; 170  : 	if( m_pNuclear )

  00073	8d 8b 94 08 00
	00		 lea	 ecx, DWORD PTR [ebx+2196]
  00079	83 39 00	 cmp	 DWORD PTR [ecx], 0
  0007c	74 2c		 je	 SHORT $LN2@OnFalling

; 171  : 	{
; 172  : 		m_pNuclear->Update( fTimePerSec * FLOAT1000 );

  0007e	b8 e8 03 00 00	 mov	 eax, 1000		; 000003e8H
  00083	8b 09		 mov	 ecx, DWORD PTR [ecx]
  00085	83 c1 14	 add	 ecx, 20			; 00000014H
  00088	8b 11		 mov	 edx, DWORD PTR [ecx]
  0008a	89 45 dc	 mov	 DWORD PTR tv397[ebp], eax
  0008d	db 45 dc	 fild	 DWORD PTR tv397[ebp]
  00090	85 c0		 test	 eax, eax
  00092	79 06		 jns	 SHORT $LN22@OnFalling
  00094	d8 05 00 00 00
	00		 fadd	 DWORD PTR __real@4f800000
$LN22@OnFalling:
  0009a	d8 4d 08	 fmul	 DWORD PTR _fTimePerSec$[ebp]
  0009d	51		 push	 ecx
  0009e	d9 5d e0	 fstp	 DWORD PTR tv394[ebp]
  000a1	d9 45 e0	 fld	 DWORD PTR tv394[ebp]
  000a4	d9 1c 24	 fstp	 DWORD PTR [esp]
  000a7	ff 52 40	 call	 DWORD PTR [edx+64]
$LN2@OnFalling:

; 173  : 	}
; 174  : 
; 175  : 	UpdateWorldAttackBox( fTimePerSec, false );

  000aa	f3 0f 10 45 08	 movss	 xmm0, DWORD PTR _fTimePerSec$[ebp]
  000af	8b 03		 mov	 eax, DWORD PTR [ebx]
  000b1	56		 push	 esi
  000b2	57		 push	 edi
  000b3	6a 00		 push	 0
  000b5	51		 push	 ecx
  000b6	8b cb		 mov	 ecx, ebx
  000b8	f3 0f 11 04 24	 movss	 DWORD PTR [esp], xmm0
  000bd	ff 90 38 01 00
	00		 call	 DWORD PTR [eax+312]

; 176  : 
; 177  : 	D3DXVECTOR3 vPos = GetPosition();

  000c3	8b 03		 mov	 eax, DWORD PTR [ebx]
  000c5	8b cb		 mov	 ecx, ebx
  000c7	ff 50 70	 call	 DWORD PTR [eax+112]

; 178  : 
; 179  : 	float fMapHeight = pStage->GetMapHeight( vPos.x, vPos.z );

  000ca	0f 57 c0	 xorps	 xmm0, xmm0
  000cd	6a 00		 push	 0
  000cf	51		 push	 ecx
  000d0	f3 0f 11 04 24	 movss	 DWORD PTR [esp], xmm0
  000d5	8b f0		 mov	 esi, eax
  000d7	8d 7d f0	 lea	 edi, DWORD PTR _vPos$[ebp]
  000da	a5		 movsd
  000db	6a 01		 push	 1
  000dd	a5		 movsd
  000de	6a 00		 push	 0
  000e0	51		 push	 ecx
  000e1	51		 push	 ecx
  000e2	8b 4d d8	 mov	 ecx, DWORD PTR _pStage$GSCopy$[ebp]
  000e5	a5		 movsd
  000e6	f3 0f 10 45 f8	 movss	 xmm0, DWORD PTR _vPos$[ebp+8]
  000eb	f3 0f 11 44 24
	04		 movss	 DWORD PTR [esp+4], xmm0
  000f1	f3 0f 10 45 f0	 movss	 xmm0, DWORD PTR _vPos$[ebp]
  000f6	f3 0f 11 04 24	 movss	 DWORD PTR [esp], xmm0
  000fb	e8 00 00 00 00	 call	 ?GetMapHeight@ioPlayStage@@QAEMMMPBVioGameEntity@@_NM1@Z ; ioPlayStage::GetMapHeight
  00100	d9 5d e0	 fstp	 DWORD PTR _fMapHeight$[ebp]

; 180  : 
; 181  : 	if( vPos.y < fMapHeight )

  00103	d9 45 f4	 fld	 DWORD PTR _vPos$[ebp+4]
  00106	5f		 pop	 edi
  00107	d9 45 e0	 fld	 DWORD PTR _fMapHeight$[ebp]
  0010a	5e		 pop	 esi
  0010b	df f1		 fcomip	 ST(1)
  0010d	dd d8		 fstp	 ST(0)
  0010f	76 54		 jbe	 SHORT $LN1@OnFalling

; 182  : 	{
; 183  : 		vPos.y = fMapHeight;

  00111	f3 0f 10 45 e0	 movss	 xmm0, DWORD PTR _fMapHeight$[ebp]

; 184  : 		SetPosition( vPos );

  00116	8d 45 f0	 lea	 eax, DWORD PTR _vPos$[ebp]
  00119	50		 push	 eax
  0011a	8b cb		 mov	 ecx, ebx
  0011c	f3 0f 11 45 f4	 movss	 DWORD PTR _vPos$[ebp+4], xmm0
  00121	e8 00 00 00 00	 call	 ?SetPosition@ioWeapon@@QAEXABUD3DXVECTOR3@@@Z ; ioWeapon::SetPosition

; 185  : 		SetOrientation( D3DXQUATERNION( 0.0f, 0.0f, 0.0f, FLOAT1 ) );

  00126	b8 01 00 00 00	 mov	 eax, 1
  0012b	0f 57 c0	 xorps	 xmm0, xmm0
  0012e	89 45 dc	 mov	 DWORD PTR tv360[ebp], eax
  00131	db 45 dc	 fild	 DWORD PTR tv360[ebp]
  00134	f3 0f 11 45 c8	 movss	 DWORD PTR $T532092[ebp], xmm0
  00139	f3 0f 11 45 cc	 movss	 DWORD PTR $T532092[ebp+4], xmm0
  0013e	f3 0f 11 45 d0	 movss	 DWORD PTR $T532092[ebp+8], xmm0
  00143	85 c0		 test	 eax, eax
  00145	79 06		 jns	 SHORT $LN23@OnFalling
  00147	d8 05 00 00 00
	00		 fadd	 DWORD PTR __real@4f800000
$LN23@OnFalling:
  0014d	8d 45 c8	 lea	 eax, DWORD PTR $T532092[ebp]
  00150	d9 5d d4	 fstp	 DWORD PTR $T532092[ebp+12]
  00153	50		 push	 eax
  00154	8b cb		 mov	 ecx, ebx
  00156	e8 00 00 00 00	 call	 ?SetOrientation@ioWeapon@@QAEXABUD3DXQUATERNION@@@Z ; ioWeapon::SetOrientation

; 186  : 
; 187  : 		Explosion( pStage );

  0015b	ff 75 d8	 push	 DWORD PTR _pStage$GSCopy$[ebp]
  0015e	8b cb		 mov	 ecx, ebx
  00160	e8 00 00 00 00	 call	 ?Explosion@ioNuclearWeapon@@QAEXPAVioPlayStage@@@Z ; ioNuclearWeapon::Explosion
$LN1@OnFalling:

; 188  : 	}
; 189  : }

  00165	8b 4d fc	 mov	 ecx, DWORD PTR __$ArrayPad$[ebp]
  00168	33 cd		 xor	 ecx, ebp
  0016a	5b		 pop	 ebx
  0016b	e8 00 00 00 00	 call	 @__security_check_cookie@4
  00170	c9		 leave
  00171	c2 08 00	 ret	 8
?OnFalling@ioNuclearWeapon@@IAEXMPAVioPlayStage@@@Z ENDP ; ioNuclearWeapon::OnFalling
_TEXT	ENDS
EXTRN	__imp_?Transform@ioOrientBox@@QAEXABUD3DXVECTOR3@@0ABUD3DXQUATERNION@@@Z:PROC
EXTRN	__imp_?UNIT_ALL@ioMath@@2UD3DXVECTOR3@@A:BYTE
EXTRN	?GetOrientation@ioWeapon@@QBEABUD3DXQUATERNION@@XZ:PROC ; ioWeapon::GetOrientation
EXTRN	__imp_?IsNull@ioOrientBox@@QBE_NXZ:PROC
EXTRN	__imp_?GetExtents@ioOrientBox@@QBEMH@Z:PROC
EXTRN	__imp_?SetNull@ioOrientBox@@QAEXXZ:PROC
; Function compile flags: /Ogsp
;	COMDAT ?UpdateWorldAttackBox@ioNuclearWeapon@@MAEXM_N@Z
_TEXT	SEGMENT
tv304 = -8						; size = 4
tv310 = -4						; size = 4
tv294 = -4						; size = 4
_fTimePerSec$ = 8					; size = 4
tv298 = 12						; size = 4
_fMapCollisionRate$ = 12				; size = 4
_bSetNull$ = 12						; size = 1
?UpdateWorldAttackBox@ioNuclearWeapon@@MAEXM_N@Z PROC	; ioNuclearWeapon::UpdateWorldAttackBox, COMDAT
; _this$ = ecx

; 271  : {

  00000	55		 push	 ebp
  00001	8b ec		 mov	 ebp, esp
  00003	51		 push	 ecx
  00004	51		 push	 ecx
  00005	53		 push	 ebx
  00006	8b d9		 mov	 ebx, ecx

; 272  : 	if( !IsLive() && bSetNull )

  00008	80 bb 82 05 00
	00 00		 cmp	 BYTE PTR [ebx+1410], 0
  0000f	56		 push	 esi
  00010	75 21		 jne	 SHORT $LN2@UpdateWorl
  00012	80 7d 0c 00	 cmp	 BYTE PTR _bSetNull$[ebp], 0
  00016	74 1b		 je	 SHORT $LN2@UpdateWorl

; 273  : 	{
; 274  : 		m_WorldAttackBox.SetNull();

  00018	8b 35 00 00 00
	00		 mov	 esi, DWORD PTR __imp_?SetNull@ioOrientBox@@QAEXXZ
  0001e	8d 8b e8 04 00
	00		 lea	 ecx, DWORD PTR [ebx+1256]
  00024	ff d6		 call	 esi

; 275  : 		m_WorldAttackBoxForMap.SetNull();

  00026	8d 8b 2c 05 00
	00		 lea	 ecx, DWORD PTR [ebx+1324]
  0002c	ff d6		 call	 esi

; 276  : 		return;

  0002e	e9 f8 00 00 00	 jmp	 $LN1@UpdateWorl
$LN2@UpdateWorl:

; 277  : 	}
; 278  : 
; 279  : 	m_WorldAttackBox = GetLocalAttackBox();

  00033	8b 03		 mov	 eax, DWORD PTR [ebx]
  00035	57		 push	 edi
  00036	ff 90 00 01 00
	00		 call	 DWORD PTR [eax+256]
  0003c	6a 11		 push	 17			; 00000011H
  0003e	59		 pop	 ecx
  0003f	8b f0		 mov	 esi, eax
  00041	8d bb e8 04 00
	00		 lea	 edi, DWORD PTR [ebx+1256]
  00047	f3 a5		 rep movsd

; 280  : 	m_WorldAttackBoxForMap = m_WorldAttackBox;

  00049	6a 11		 push	 17			; 00000011H
  0004b	8b f0		 mov	 esi, eax

; 281  : 
; 282  : 	float fMapCollisionRate = GetAttribute()->m_fMapCollisionBoxRate;

  0004d	8b 03		 mov	 eax, DWORD PTR [ebx]
  0004f	59		 pop	 ecx
  00050	8d bb 2c 05 00
	00		 lea	 edi, DWORD PTR [ebx+1324]
  00056	f3 a5		 rep movsd
  00058	8b cb		 mov	 ecx, ebx
  0005a	ff 90 3c 01 00
	00		 call	 DWORD PTR [eax+316]

; 283  : 	m_WorldAttackBoxForMap.SetExtents( 0, m_WorldAttackBox.GetExtents(0)*fMapCollisionRate );

  00060	6a 00		 push	 0
  00062	d9 80 a8 01 00
	00		 fld	 DWORD PTR [eax+424]
  00068	8d 8b e8 04 00
	00		 lea	 ecx, DWORD PTR [ebx+1256]
  0006e	d9 5d 0c	 fstp	 DWORD PTR _fMapCollisionRate$[ebp]
  00071	ff 15 00 00 00
	00		 call	 DWORD PTR __imp_?GetExtents@ioOrientBox@@QBEMH@Z
  00077	d8 4d 0c	 fmul	 DWORD PTR _fMapCollisionRate$[ebp]
  0007a	8b 35 00 00 00
	00		 mov	 esi, DWORD PTR __imp_?SetExtents@ioOrientBox@@QAEXHM@Z
  00080	51		 push	 ecx
  00081	8d 8b 2c 05 00
	00		 lea	 ecx, DWORD PTR [ebx+1324]
  00087	d9 5d fc	 fstp	 DWORD PTR tv310[ebp]
  0008a	d9 45 fc	 fld	 DWORD PTR tv310[ebp]
  0008d	89 4d fc	 mov	 DWORD PTR tv294[ebp], ecx
  00090	d9 1c 24	 fstp	 DWORD PTR [esp]
  00093	6a 00		 push	 0
  00095	ff d6		 call	 esi

; 284  : 	m_WorldAttackBoxForMap.SetExtents( 1, m_WorldAttackBox.GetExtents(1)*fMapCollisionRate );

  00097	6a 01		 push	 1
  00099	8d 8b e8 04 00
	00		 lea	 ecx, DWORD PTR [ebx+1256]
  0009f	ff 15 00 00 00
	00		 call	 DWORD PTR __imp_?GetExtents@ioOrientBox@@QBEMH@Z
  000a5	d8 4d 0c	 fmul	 DWORD PTR _fMapCollisionRate$[ebp]
  000a8	51		 push	 ecx
  000a9	8b 4d fc	 mov	 ecx, DWORD PTR tv294[ebp]
  000ac	d9 5d f8	 fstp	 DWORD PTR tv304[ebp]
  000af	d9 45 f8	 fld	 DWORD PTR tv304[ebp]
  000b2	d9 1c 24	 fstp	 DWORD PTR [esp]
  000b5	6a 01		 push	 1
  000b7	ff d6		 call	 esi

; 285  : 	m_WorldAttackBoxForMap.SetExtents( 2, m_WorldAttackBox.GetExtents(2)*fMapCollisionRate );

  000b9	6a 02		 push	 2
  000bb	8d 8b e8 04 00
	00		 lea	 ecx, DWORD PTR [ebx+1256]
  000c1	ff 15 00 00 00
	00		 call	 DWORD PTR __imp_?GetExtents@ioOrientBox@@QBEMH@Z
  000c7	d8 4d 0c	 fmul	 DWORD PTR _fMapCollisionRate$[ebp]
  000ca	51		 push	 ecx
  000cb	8b 4d fc	 mov	 ecx, DWORD PTR tv294[ebp]
  000ce	d9 5d 0c	 fstp	 DWORD PTR tv298[ebp]
  000d1	d9 45 0c	 fld	 DWORD PTR tv298[ebp]
  000d4	d9 1c 24	 fstp	 DWORD PTR [esp]
  000d7	6a 02		 push	 2
  000d9	ff d6		 call	 esi

; 286  : 
; 287  : 	if( !m_WorldAttackBox.IsNull() )

  000db	8d 8b e8 04 00
	00		 lea	 ecx, DWORD PTR [ebx+1256]
  000e1	ff 15 00 00 00
	00		 call	 DWORD PTR __imp_?IsNull@ioOrientBox@@QBE_NXZ
  000e7	84 c0		 test	 al, al
  000e9	75 3f		 jne	 SHORT $LN7@UpdateWorl

; 288  : 	{
; 289  : 		m_WorldAttackBox.Transform( GetPosition(), ioMath::UNIT_ALL, GetOrientation() );

  000eb	8b cb		 mov	 ecx, ebx
  000ed	e8 00 00 00 00	 call	 ?GetOrientation@ioWeapon@@QBEABUD3DXQUATERNION@@XZ ; ioWeapon::GetOrientation
  000f2	50		 push	 eax
  000f3	ff 35 00 00 00
	00		 push	 DWORD PTR __imp_?UNIT_ALL@ioMath@@2UD3DXVECTOR3@@A
  000f9	8b 03		 mov	 eax, DWORD PTR [ebx]
  000fb	8b cb		 mov	 ecx, ebx
  000fd	ff 50 70	 call	 DWORD PTR [eax+112]
  00100	8b 35 00 00 00
	00		 mov	 esi, DWORD PTR __imp_?Transform@ioOrientBox@@QAEXABUD3DXVECTOR3@@0ABUD3DXQUATERNION@@@Z
  00106	50		 push	 eax
  00107	8d 8b e8 04 00
	00		 lea	 ecx, DWORD PTR [ebx+1256]
  0010d	ff d6		 call	 esi

; 290  : 		m_WorldAttackBoxForMap.Transform( GetPosition(), ioMath::UNIT_ALL, GetOrientation() );

  0010f	8b cb		 mov	 ecx, ebx
  00111	e8 00 00 00 00	 call	 ?GetOrientation@ioWeapon@@QBEABUD3DXQUATERNION@@XZ ; ioWeapon::GetOrientation
  00116	50		 push	 eax
  00117	ff 35 00 00 00
	00		 push	 DWORD PTR __imp_?UNIT_ALL@ioMath@@2UD3DXVECTOR3@@A
  0011d	8b 03		 mov	 eax, DWORD PTR [ebx]
  0011f	8b cb		 mov	 ecx, ebx
  00121	ff 50 70	 call	 DWORD PTR [eax+112]
  00124	8b 4d fc	 mov	 ecx, DWORD PTR tv294[ebp]
  00127	50		 push	 eax
  00128	ff d6		 call	 esi
$LN7@UpdateWorl:
  0012a	5f		 pop	 edi
$LN1@UpdateWorl:
  0012b	5e		 pop	 esi
  0012c	5b		 pop	 ebx

; 291  : 	}
; 292  : }

  0012d	c9		 leave
  0012e	c2 08 00	 ret	 8
?UpdateWorldAttackBox@ioNuclearWeapon@@MAEXM_N@Z ENDP	; ioNuclearWeapon::UpdateWorldAttackBox
_TEXT	ENDS
PUBLIC	__mask@@AbsDouble@
PUBLIC	_pEntity$GSCopy$
EXTRN	__imp_??1ioCylinder@@QAE@XZ:PROC
EXTRN	__imp_?GetCenter@ioCylinder@@QBEABUD3DXVECTOR3@@XZ:PROC
EXTRN	__imp_??0ioCylinder@@QAE@ABUD3DXVECTOR3@@0M@Z:PROC
EXTRN	__imp_?GetCenter@ioOrientBox@@QBEABUD3DXVECTOR3@@XZ:PROC
EXTRN	?GetWorldAttackBox@ioWeapon@@QBEABVioOrientBox@@_N@Z:PROC ; ioWeapon::GetWorldAttackBox
EXTRN	__EH_epilog3_GS:PROC
EXTRN	__EH_prolog3_GS:PROC
;	COMDAT __mask@@AbsDouble@
; File c:\program files (x86)\microsoft visual studio 10.0\vc\include\math.h
CONST	SEGMENT
__mask@@AbsDouble@ DB 0ffH, 0ffH, 0ffH, 0ffH, 0ffH, 0ffH, 0ffH, 07fH, 0ffH
	DB	0ffH, 0ffH, 0ffH, 0ffH, 0ffH, 0ffH, 07fH
CONST	ENDS
;	COMDAT xdata$x
xdata$x	SEGMENT
__unwindtable$?IsCollision@ioNuclearWeapon@@UAE_NPAVioPlayEntity@@_N@Z DD 0ffffffffH
	DD	FLAT:__unwindfunclet$?IsCollision@ioNuclearWeapon@@UAE_NPAVioPlayEntity@@_N@Z$0
__ehfuncinfo$?IsCollision@ioNuclearWeapon@@UAE_NPAVioPlayEntity@@_N@Z DD 019930522H
	DD	01H
	DD	FLAT:__unwindtable$?IsCollision@ioNuclearWeapon@@UAE_NPAVioPlayEntity@@_N@Z
	DD	2 DUP(00H)
	DD	2 DUP(00H)
	DD	00H
	DD	01H
; Function compile flags: /Ogsp
; File d:\lost saga for developer\youtube\tutorial\source\src\lsclient\ionuclearweapon.cpp
xdata$x	ENDS
;	COMDAT ?IsCollision@ioNuclearWeapon@@UAE_NPAVioPlayEntity@@_N@Z
_TEXT	SEGMENT
tv386 = -104						; size = 8
_pEntity$GSCopy$ = -100					; size = 4
_kCylinder$ = -96					; size = 32
_vTop$ = -64						; size = 12
_vBottom$ = -52						; size = 12
_vPoint$ = -40						; size = 12
_vCenter$ = -28						; size = 12
__$EHRec$ = -12						; size = 12
_pEntity$ = 8						; size = 4
_bMapCollision$ = 12					; size = 1
?IsCollision@ioNuclearWeapon@@UAE_NPAVioPlayEntity@@_N@Z PROC ; ioNuclearWeapon::IsCollision, COMDAT
; _this$ = ecx

; 295  : {

  00000	6a 5c		 push	 92			; 0000005cH
  00002	b8 00 00 00 00	 mov	 eax, __ehhandler$?IsCollision@ioNuclearWeapon@@UAE_NPAVioPlayEntity@@_N@Z
  00007	e8 00 00 00 00	 call	 __EH_prolog3_GS
  0000c	8b 45 08	 mov	 eax, DWORD PTR _pEntity$[ebp]
  0000f	8b d9		 mov	 ebx, ecx

; 296  : 	if( m_NuclearState != NS_EXPLOSION )

  00011	83 bb 24 09 00
	00 01		 cmp	 DWORD PTR [ebx+2340], 1

; 310  : 	{
; 311  : 		D3DXVECTOR3 vDiff = vCenter - vPoint;

  00018	89 45 9c	 mov	 DWORD PTR _pEntity$GSCopy$[ebp], eax
  0001b	74 0a		 je	 SHORT $LN3@IsCollisio

; 297  : 		return false;

  0001d	32 c0		 xor	 al, al
$LN4@IsCollisio:

; 319  : 	}
; 320  : 
; 321  : 	return false;
; 322  : }

  0001f	e8 00 00 00 00	 call	 __EH_epilog3_GS
  00024	c2 08 00	 ret	 8
$LN3@IsCollisio:

; 298  : 
; 299  : 	D3DXVECTOR3 vCenter = GetWorldAttackBox().GetCenter();

  00027	6a 00		 push	 0
  00029	e8 00 00 00 00	 call	 ?GetWorldAttackBox@ioWeapon@@QBEABVioOrientBox@@_N@Z ; ioWeapon::GetWorldAttackBox
  0002e	8b c8		 mov	 ecx, eax
  00030	ff 15 00 00 00
	00		 call	 DWORD PTR __imp_?GetCenter@ioOrientBox@@QBEABUD3DXVECTOR3@@XZ
  00036	8b f0		 mov	 esi, eax
  00038	8d 7d e4	 lea	 edi, DWORD PTR _vCenter$[ebp]
  0003b	a5		 movsd
  0003c	a5		 movsd
  0003d	a5		 movsd

; 300  : 
; 301  : 	D3DXVECTOR3 vTop, vBottom;
; 302  : 	vTop = vBottom = vCenter;
; 303  : 	vTop.y += m_fExplosionRange;

  0003e	f3 0f 10 83 10
	09 00 00	 movss	 xmm0, DWORD PTR [ebx+2320]
  00046	f3 0f 10 55 e8	 movss	 xmm2, DWORD PTR _vCenter$[ebp+4]
  0004b	8d 75 e4	 lea	 esi, DWORD PTR _vCenter$[ebp]
  0004e	8d 7d cc	 lea	 edi, DWORD PTR _vBottom$[ebp]
  00051	a5		 movsd
  00052	a5		 movsd
  00053	a5		 movsd
  00054	8d 75 e4	 lea	 esi, DWORD PTR _vCenter$[ebp]
  00057	8d 7d c0	 lea	 edi, DWORD PTR _vTop$[ebp]
  0005a	a5		 movsd
  0005b	0f 5a c8	 cvtps2pd xmm1, xmm0
  0005e	a5		 movsd
  0005f	0f 5a d2	 cvtps2pd xmm2, xmm2
  00062	f2 0f 58 ca	 addsd	 xmm1, xmm2
  00066	66 0f 5a c9	 cvtpd2ps xmm1, xmm1

; 304  : 	vBottom.y -= m_fExplosionRange;
; 305  : 	ioCylinder kCylinder( vTop, vBottom, m_fExplosionRange );

  0006a	51		 push	 ecx
  0006b	a5		 movsd
  0006c	f3 0f 11 4d c4	 movss	 DWORD PTR _vTop$[ebp+4], xmm1
  00071	f3 0f 10 4d e8	 movss	 xmm1, DWORD PTR _vCenter$[ebp+4]
  00076	f3 0f 11 04 24	 movss	 DWORD PTR [esp], xmm0
  0007b	8d 45 cc	 lea	 eax, DWORD PTR _vBottom$[ebp]
  0007e	50		 push	 eax
  0007f	0f 5a c9	 cvtps2pd xmm1, xmm1
  00082	0f 57 d2	 xorps	 xmm2, xmm2
  00085	0f 5a d0	 cvtps2pd xmm2, xmm0
  00088	8d 45 c0	 lea	 eax, DWORD PTR _vTop$[ebp]
  0008b	f2 0f 5c ca	 subsd	 xmm1, xmm2
  0008f	f2 0f 5a c9	 cvtsd2ss xmm1, xmm1
  00093	50		 push	 eax
  00094	8d 4d a0	 lea	 ecx, DWORD PTR _kCylinder$[ebp]
  00097	f3 0f 11 4d d0	 movss	 DWORD PTR _vBottom$[ebp+4], xmm1
  0009c	ff 15 00 00 00
	00		 call	 DWORD PTR __imp_??0ioCylinder@@QAE@ABUD3DXVECTOR3@@0M@Z
  000a2	83 65 fc 00	 and	 DWORD PTR __$EHRec$[ebp+8], 0

; 306  : 	vCenter = kCylinder.GetCenter();

  000a6	8d 4d a0	 lea	 ecx, DWORD PTR _kCylinder$[ebp]
  000a9	ff 15 00 00 00
	00		 call	 DWORD PTR __imp_?GetCenter@ioCylinder@@QBEABUD3DXVECTOR3@@XZ

; 307  : 
; 308  : 	D3DXVECTOR3 vPoint;
; 309  : 	if( pEntity->CheckCylinderPoint( kCylinder, vCenter, vPoint ) )

  000af	8b 4d 9c	 mov	 ecx, DWORD PTR _pEntity$GSCopy$[ebp]
  000b2	8b f0		 mov	 esi, eax
  000b4	8b 01		 mov	 eax, DWORD PTR [ecx]
  000b6	8d 7d e4	 lea	 edi, DWORD PTR _vCenter$[ebp]
  000b9	a5		 movsd
  000ba	8d 55 d8	 lea	 edx, DWORD PTR _vPoint$[ebp]
  000bd	52		 push	 edx
  000be	8d 55 e4	 lea	 edx, DWORD PTR _vCenter$[ebp]
  000c1	a5		 movsd
  000c2	52		 push	 edx
  000c3	8d 55 a0	 lea	 edx, DWORD PTR _kCylinder$[ebp]
  000c6	52		 push	 edx
  000c7	a5		 movsd
  000c8	ff 90 a0 00 00
	00		 call	 DWORD PTR [eax+160]
  000ce	84 c0		 test	 al, al
  000d0	0f 84 cf 00 00
	00		 je	 $LN1@IsCollisio

; 310  : 	{
; 311  : 		D3DXVECTOR3 vDiff = vCenter - vPoint;

  000d6	f3 0f 10 45 e4	 movss	 xmm0, DWORD PTR _vCenter$[ebp]
  000db	f3 0f 10 4d d8	 movss	 xmm1, DWORD PTR _vPoint$[ebp]
  000e0	f3 0f 10 55 e0	 movss	 xmm2, DWORD PTR _vPoint$[ebp+8]
  000e5	0f 5a c0	 cvtps2pd xmm0, xmm0
  000e8	0f 5a c9	 cvtps2pd xmm1, xmm1
  000eb	f2 0f 5c c1	 subsd	 xmm0, xmm1
  000ef	f3 0f 10 4d ec	 movss	 xmm1, DWORD PTR _vCenter$[ebp+8]
  000f4	66 0f 5a c0	 cvtpd2ps xmm0, xmm0

; 312  : 		vDiff.y = 0.0f;
; 313  : 
; 314  : 		float fDistanceGap = D3DXVec3Length( &vDiff );

  000f8	f3 0f 5a c0	 cvtss2sd xmm0, xmm0
  000fc	f2 0f 59 c0	 mulsd	 xmm0, xmm0
  00100	f2 0f 11 45 98	 movsd	 QWORD PTR tv386[ebp], xmm0
  00105	0f 57 c0	 xorps	 xmm0, xmm0
  00108	0f 5a c9	 cvtps2pd xmm1, xmm1
  0010b	f2 0f 59 c0	 mulsd	 xmm0, xmm0
  0010f	0f 5a d2	 cvtps2pd xmm2, xmm2
  00112	f2 0f 5c ca	 subsd	 xmm1, xmm2
  00116	f2 0f 10 55 98	 movsd	 xmm2, QWORD PTR tv386[ebp]
  0011b	f2 0f 58 d0	 addsd	 xmm2, xmm0
  0011f	66 0f 5a c9	 cvtpd2ps xmm1, xmm1
  00123	0f 57 c0	 xorps	 xmm0, xmm0
  00126	f3 0f 5a c9	 cvtss2sd xmm1, xmm1
  0012a	f2 0f 59 c9	 mulsd	 xmm1, xmm1
  0012e	f2 0f 58 d1	 addsd	 xmm2, xmm1

; 315  : 		float fHeightGap = fabs( vCenter.y - vPoint.y );

  00132	f3 0f 10 4d dc	 movss	 xmm1, DWORD PTR _vPoint$[ebp+4]
  00137	66 0f 5a c2	 cvtpd2ps xmm0, xmm2
  0013b	0f 5a c0	 cvtps2pd xmm0, xmm0
  0013e	f2 0f 51 c0	 sqrtsd	 xmm0, xmm0
  00142	0f 57 d2	 xorps	 xmm2, xmm2
  00145	66 0f 5a d0	 cvtpd2ps xmm2, xmm0
  00149	f3 0f 10 45 e8	 movss	 xmm0, DWORD PTR _vCenter$[ebp+4]
  0014e	0f 5a c0	 cvtps2pd xmm0, xmm0
  00151	0f 5a c9	 cvtps2pd xmm1, xmm1
  00154	f2 0f 5c c1	 subsd	 xmm0, xmm1
  00158	66 0f 5a c0	 cvtpd2ps xmm0, xmm0
  0015c	f3 0f 5a c0	 cvtss2sd xmm0, xmm0
  00160	66 0f 54 05 00
	00 00 00	 andpd	 xmm0, QWORD PTR __mask@@AbsDouble@
  00168	0f 57 c9	 xorps	 xmm1, xmm1
  0016b	f2 0f 5a c8	 cvtsd2ss xmm1, xmm0

; 316  : 
; 317  : 		if( fHeightGap <= m_fExplosionRange && fDistanceGap <= m_fExplosionRange )

  0016f	f3 0f 10 83 10
	09 00 00	 movss	 xmm0, DWORD PTR [ebx+2320]
  00177	0f 5a c9	 cvtps2pd xmm1, xmm1
  0017a	0f 5a d8	 cvtps2pd xmm3, xmm0
  0017d	66 0f 2f d9	 comisd	 xmm3, xmm1
  00181	72 22		 jb	 SHORT $LN1@IsCollisio
  00183	0f 5a ca	 cvtps2pd xmm1, xmm2
  00186	0f 5a c0	 cvtps2pd xmm0, xmm0
  00189	66 0f 2f c1	 comisd	 xmm0, xmm1
  0018d	72 16		 jb	 SHORT $LN1@IsCollisio
  0018f	b3 01		 mov	 bl, 1
$LN25@IsCollisio:

; 318  : 			return true;

  00191	83 4d fc ff	 or	 DWORD PTR __$EHRec$[ebp+8], -1
  00195	8d 4d a0	 lea	 ecx, DWORD PTR _kCylinder$[ebp]
  00198	ff 15 00 00 00
	00		 call	 DWORD PTR __imp_??1ioCylinder@@QAE@XZ
  0019e	8a c3		 mov	 al, bl
  001a0	e9 7a fe ff ff	 jmp	 $LN4@IsCollisio
$LN1@IsCollisio:
  001a5	32 db		 xor	 bl, bl
  001a7	eb e8		 jmp	 SHORT $LN25@IsCollisio
_TEXT	ENDS
;	COMDAT text$x
text$x	SEGMENT
__unwindfunclet$?IsCollision@ioNuclearWeapon@@UAE_NPAVioPlayEntity@@_N@Z$0:
  00000	8d 4d a0	 lea	 ecx, DWORD PTR _kCylinder$[ebp]
  00003	ff 25 00 00 00
	00		 jmp	 DWORD PTR __imp_??1ioCylinder@@QAE@XZ
__ehhandler$?IsCollision@ioNuclearWeapon@@UAE_NPAVioPlayEntity@@_N@Z:
  00009	8b 54 24 08	 mov	 edx, DWORD PTR [esp+8]
  0000d	8d 42 0c	 lea	 eax, DWORD PTR [edx+12]
  00010	8b 4a 94	 mov	 ecx, DWORD PTR [edx-108]
  00013	33 c8		 xor	 ecx, eax
  00015	e8 00 00 00 00	 call	 @__security_check_cookie@4
  0001a	8b 4a fc	 mov	 ecx, DWORD PTR [edx-4]
  0001d	33 c8		 xor	 ecx, eax
  0001f	e8 00 00 00 00	 call	 @__security_check_cookie@4
  00024	b8 00 00 00 00	 mov	 eax, OFFSET __ehfuncinfo$?IsCollision@ioNuclearWeapon@@UAE_NPAVioPlayEntity@@_N@Z
  00029	e9 00 00 00 00	 jmp	 ___CxxFrameHandler3
text$x	ENDS
?IsCollision@ioNuclearWeapon@@UAE_NPAVioPlayEntity@@_N@Z ENDP ; ioNuclearWeapon::IsCollision
PUBLIC	__$ArrayPad$
PUBLIC	??$LoadString_e@$0L@@ioINILoader@@QAEXAAY0L@$$CBDAAY00$$CBDPADH@Z ; ioINILoader::LoadString_e<11>
EXTRN	__imp_?LoadStringA@ioINILoader@@QAEXPBD0PADH@Z:PROC
; Function compile flags: /Ogsp
; File d:\lost saga for developer\youtube\tutorial\source\src\io3dengine\ioiniloader.h
;	COMDAT ??$LoadString_e@$0L@@ioINILoader@@QAEXAAY0L@$$CBDAAY00$$CBDPADH@Z
_TEXT	SEGMENT
__k$ = -20						; size = 11
__$ArrayPad$ = -4					; size = 4
_k$ = 8							; size = 4
_d$ = 12						; size = 4
_b$ = 16						; size = 4
_i$ = 20						; size = 4
??$LoadString_e@$0L@@ioINILoader@@QAEXAAY0L@$$CBDAAY00$$CBDPADH@Z PROC ; ioINILoader::LoadString_e<11>, COMDAT
; _this$ = ecx

; 161  : 	{

  00000	55		 push	 ebp
  00001	8b ec		 mov	 ebp, esp
  00003	83 ec 14	 sub	 esp, 20			; 00000014H
  00006	a1 00 00 00 00	 mov	 eax, DWORD PTR ___security_cookie
  0000b	33 c5		 xor	 eax, ebp
  0000d	89 45 fc	 mov	 DWORD PTR __$ArrayPad$[ebp], eax
  00010	8b 45 08	 mov	 eax, DWORD PTR _k$[ebp]

; 162  : 		_ENCSTR(k, _k);

  00013	8a 10		 mov	 dl, BYTE PTR [eax]
  00015	53		 push	 ebx
  00016	56		 push	 esi
  00017	8b 75 0c	 mov	 esi, DWORD PTR _d$[ebp]
  0001a	57		 push	 edi
  0001b	8b 7d 10	 mov	 edi, DWORD PTR _b$[ebp]
  0001e	84 d2		 test	 dl, dl
  00020	0f 84 1b 01 00
	00		 je	 $LN96@LoadString
  00026	80 f2 ed	 xor	 dl, -19			; ffffffedH
  00029	88 55 ec	 mov	 BYTE PTR __k$[ebp], dl
  0002c	8a 50 01	 mov	 dl, BYTE PTR [eax+1]
  0002f	84 d2		 test	 dl, dl
  00031	0f 84 04 01 00
	00		 je	 $LN95@LoadString
  00037	b3 ec		 mov	 bl, -20			; ffffffecH
  00039	32 d3		 xor	 dl, bl
  0003b	88 55 ed	 mov	 BYTE PTR __k$[ebp+1], dl
  0003e	8a 50 02	 mov	 dl, BYTE PTR [eax+2]
  00041	84 d2		 test	 dl, dl
  00043	0f 84 ec 00 00
	00		 je	 $LN94@LoadString
  00049	80 f2 eb	 xor	 dl, -21			; ffffffebH
  0004c	88 55 ee	 mov	 BYTE PTR __k$[ebp+2], dl
  0004f	8a 50 03	 mov	 dl, BYTE PTR [eax+3]
  00052	84 d2		 test	 dl, dl
  00054	0f 84 d5 00 00
	00		 je	 $LN93@LoadString
  0005a	80 f2 ea	 xor	 dl, -22			; ffffffeaH
  0005d	88 55 ef	 mov	 BYTE PTR __k$[ebp+3], dl
  00060	8a 50 04	 mov	 dl, BYTE PTR [eax+4]
  00063	84 d2		 test	 dl, dl
  00065	0f 84 be 00 00
	00		 je	 $LN92@LoadString
  0006b	80 f2 ed	 xor	 dl, -19			; ffffffedH
  0006e	88 55 f0	 mov	 BYTE PTR __k$[ebp+4], dl
  00071	8a 50 05	 mov	 dl, BYTE PTR [eax+5]
  00074	84 d2		 test	 dl, dl
  00076	0f 84 a8 00 00
	00		 je	 $LN91@LoadString
  0007c	32 d3		 xor	 dl, bl
  0007e	88 55 f1	 mov	 BYTE PTR __k$[ebp+5], dl
  00081	8a 50 06	 mov	 dl, BYTE PTR [eax+6]
  00084	84 d2		 test	 dl, dl
  00086	0f 84 92 00 00
	00		 je	 $LN90@LoadString
  0008c	80 f2 eb	 xor	 dl, -21			; ffffffebH
  0008f	88 55 f2	 mov	 BYTE PTR __k$[ebp+6], dl
  00092	8a 50 07	 mov	 dl, BYTE PTR [eax+7]
  00095	84 d2		 test	 dl, dl
  00097	74 7f		 je	 SHORT $LN89@LoadString
  00099	80 f2 ea	 xor	 dl, -22			; ffffffeaH
  0009c	88 55 f3	 mov	 BYTE PTR __k$[ebp+7], dl
  0009f	8a 50 08	 mov	 dl, BYTE PTR [eax+8]
  000a2	84 d2		 test	 dl, dl
  000a4	74 6c		 je	 SHORT $LN88@LoadString
  000a6	80 f2 ed	 xor	 dl, -19			; ffffffedH
  000a9	88 55 f4	 mov	 BYTE PTR __k$[ebp+8], dl
  000ac	8a 50 09	 mov	 dl, BYTE PTR [eax+9]
  000af	84 d2		 test	 dl, dl
  000b1	74 5a		 je	 SHORT $LN87@LoadString
  000b3	32 d3		 xor	 dl, bl
  000b5	80 78 0a 00	 cmp	 BYTE PTR [eax+10], 0
  000b9	88 55 f5	 mov	 BYTE PTR __k$[ebp+9], dl
  000bc	0f 84 83 00 00
	00		 je	 $LN1@LoadString
  000c2	8a 50 0b	 mov	 dl, BYTE PTR [eax+11]
  000c5	84 d2		 test	 dl, dl
  000c7	74 3e		 je	 SHORT $LN85@LoadString
  000c9	80 f2 ea	 xor	 dl, -22			; ffffffeaH
  000cc	88 55 f7	 mov	 BYTE PTR __k$[ebp+11], dl
  000cf	8a 50 0c	 mov	 dl, BYTE PTR [eax+12]
  000d2	84 d2		 test	 dl, dl
  000d4	74 2b		 je	 SHORT $LN84@LoadString
  000d6	80 f2 ed	 xor	 dl, -19			; ffffffedH
  000d9	88 55 f8	 mov	 BYTE PTR __k$[ebp+12], dl
  000dc	8a 50 0d	 mov	 dl, BYTE PTR [eax+13]
  000df	84 d2		 test	 dl, dl
  000e1	74 19		 je	 SHORT $LN83@LoadString
  000e3	8a 40 0e	 mov	 al, BYTE PTR [eax+14]
  000e6	32 d3		 xor	 dl, bl
  000e8	88 55 f9	 mov	 BYTE PTR __k$[ebp+13], dl
  000eb	84 c0		 test	 al, al
  000ed	74 07		 je	 SHORT $LN82@LoadString
  000ef	34 eb		 xor	 al, -21			; ffffffebH
  000f1	88 45 fa	 mov	 BYTE PTR __k$[ebp+14], al
  000f4	eb 4f		 jmp	 SHORT $LN1@LoadString
$LN82@LoadString:
  000f6	c6 45 fa eb	 mov	 BYTE PTR __k$[ebp+14], -21 ; ffffffebH
  000fa	eb 49		 jmp	 SHORT $LN1@LoadString
$LN83@LoadString:
  000fc	88 5d f9	 mov	 BYTE PTR __k$[ebp+13], bl
  000ff	eb 44		 jmp	 SHORT $LN1@LoadString
$LN84@LoadString:
  00101	c6 45 f8 ed	 mov	 BYTE PTR __k$[ebp+12], -19 ; ffffffedH
  00105	eb 3e		 jmp	 SHORT $LN1@LoadString
$LN85@LoadString:
  00107	c6 45 f7 ea	 mov	 BYTE PTR __k$[ebp+11], -22 ; ffffffeaH
  0010b	eb 38		 jmp	 SHORT $LN1@LoadString
$LN87@LoadString:
  0010d	88 5d f5	 mov	 BYTE PTR __k$[ebp+9], bl
  00110	eb 33		 jmp	 SHORT $LN1@LoadString
$LN88@LoadString:
  00112	c6 45 f4 ed	 mov	 BYTE PTR __k$[ebp+8], -19 ; ffffffedH
  00116	eb 2d		 jmp	 SHORT $LN1@LoadString
$LN89@LoadString:
  00118	c6 45 f3 ea	 mov	 BYTE PTR __k$[ebp+7], -22 ; ffffffeaH
  0011c	eb 27		 jmp	 SHORT $LN1@LoadString
$LN90@LoadString:
  0011e	c6 45 f2 eb	 mov	 BYTE PTR __k$[ebp+6], -21 ; ffffffebH
  00122	eb 21		 jmp	 SHORT $LN1@LoadString
$LN91@LoadString:
  00124	88 5d f1	 mov	 BYTE PTR __k$[ebp+5], bl
  00127	eb 1c		 jmp	 SHORT $LN1@LoadString
$LN92@LoadString:
  00129	c6 45 f0 ed	 mov	 BYTE PTR __k$[ebp+4], -19 ; ffffffedH
  0012d	eb 16		 jmp	 SHORT $LN1@LoadString
$LN93@LoadString:
  0012f	c6 45 ef ea	 mov	 BYTE PTR __k$[ebp+3], -22 ; ffffffeaH
  00133	eb 10		 jmp	 SHORT $LN1@LoadString
$LN94@LoadString:
  00135	c6 45 ee eb	 mov	 BYTE PTR __k$[ebp+2], -21 ; ffffffebH
  00139	eb 0a		 jmp	 SHORT $LN1@LoadString
$LN95@LoadString:
  0013b	c6 45 ed ec	 mov	 BYTE PTR __k$[ebp+1], -20 ; ffffffecH
  0013f	eb 04		 jmp	 SHORT $LN1@LoadString
$LN96@LoadString:
  00141	c6 45 ec ed	 mov	 BYTE PTR __k$[ebp], -19	; ffffffedH
$LN1@LoadString:
  00145	6a 02		 push	 2
  00147	8d 45 ec	 lea	 eax, DWORD PTR __k$[ebp]
  0014a	c6 45 f6 00	 mov	 BYTE PTR __k$[ebp+10], 0
  0014e	5a		 pop	 edx
$LL104@LoadString:
  0014f	81 30 ed ec eb
	ea		 xor	 DWORD PTR [eax], -353637139 ; eaebecedH
  00155	83 c0 04	 add	 eax, 4
  00158	4a		 dec	 edx
  00159	75 f4		 jne	 SHORT $LL104@LoadString
  0015b	6a 08		 push	 8
  0015d	58		 pop	 eax
$LL101@LoadString:
  0015e	8b d0		 mov	 edx, eax
  00160	81 e2 03 00 00
	80		 and	 edx, -2147483645	; 80000003H
  00166	79 05		 jns	 SHORT $LN111@LoadString
  00168	4a		 dec	 edx
  00169	83 ca fc	 or	 edx, -4			; fffffffcH
  0016c	42		 inc	 edx
$LN111@LoadString:
  0016d	b3 ed		 mov	 bl, -19			; ffffffedH
  0016f	2a da		 sub	 bl, dl
  00171	30 5c 05 ec	 xor	 BYTE PTR __k$[ebp+eax], bl
  00175	40		 inc	 eax
  00176	83 f8 0a	 cmp	 eax, 10			; 0000000aH
  00179	7c e3		 jl	 SHORT $LL101@LoadString

; 163  : 		LoadString(_k, d, b, i);

  0017b	ff 75 14	 push	 DWORD PTR _i$[ebp]
  0017e	8d 45 ec	 lea	 eax, DWORD PTR __k$[ebp]
  00181	57		 push	 edi
  00182	56		 push	 esi
  00183	50		 push	 eax
  00184	ff 15 00 00 00
	00		 call	 DWORD PTR __imp_?LoadStringA@ioINILoader@@QAEXPBD0PADH@Z

; 164  : 	}

  0018a	8b 4d fc	 mov	 ecx, DWORD PTR __$ArrayPad$[ebp]
  0018d	5f		 pop	 edi
  0018e	5e		 pop	 esi
  0018f	33 cd		 xor	 ecx, ebp
  00191	5b		 pop	 ebx
  00192	e8 00 00 00 00	 call	 @__security_check_cookie@4
  00197	c9		 leave
  00198	c2 10 00	 ret	 16			; 00000010H
??$LoadString_e@$0L@@ioINILoader@@QAEXAAY0L@$$CBDAAY00$$CBDPADH@Z ENDP ; ioINILoader::LoadString_e<11>
_TEXT	ENDS
PUBLIC	_this$GSCopy$
PUBLIC	__$ArrayPad$
PUBLIC	??$LoadString_e@$0M@@ioINILoader@@QAEXAAY0M@$$CBDAAY00$$CBDPADH@Z ; ioINILoader::LoadString_e<12>
; Function compile flags: /Ogsp
;	COMDAT ??$LoadString_e@$0M@@ioINILoader@@QAEXAAY0M@$$CBDAAY00$$CBDPADH@Z
_TEXT	SEGMENT
_this$GSCopy$ = -24					; size = 4
__k$ = -20						; size = 12
__$ArrayPad$ = -4					; size = 4
_k$ = 8							; size = 4
_d$ = 12						; size = 4
_b$ = 16						; size = 4
_i$ = 20						; size = 4
??$LoadString_e@$0M@@ioINILoader@@QAEXAAY0M@$$CBDAAY00$$CBDPADH@Z PROC ; ioINILoader::LoadString_e<12>, COMDAT
; _this$ = ecx

; 161  : 	{

  00000	55		 push	 ebp
  00001	8b ec		 mov	 ebp, esp
  00003	83 ec 18	 sub	 esp, 24			; 00000018H
  00006	a1 00 00 00 00	 mov	 eax, DWORD PTR ___security_cookie
  0000b	33 c5		 xor	 eax, ebp
  0000d	89 45 fc	 mov	 DWORD PTR __$ArrayPad$[ebp], eax
  00010	8b 45 08	 mov	 eax, DWORD PTR _k$[ebp]

; 162  : 		_ENCSTR(k, _k);

  00013	8a 10		 mov	 dl, BYTE PTR [eax]
  00015	56		 push	 esi
  00016	8b 75 0c	 mov	 esi, DWORD PTR _d$[ebp]
  00019	57		 push	 edi
  0001a	8b 7d 10	 mov	 edi, DWORD PTR _b$[ebp]
  0001d	89 4d e8	 mov	 DWORD PTR _this$GSCopy$[ebp], ecx
  00020	84 d2		 test	 dl, dl
  00022	0f 84 32 01 00
	00		 je	 $LN96@LoadString@2
  00028	80 f2 ed	 xor	 dl, -19			; ffffffedH
  0002b	88 55 ec	 mov	 BYTE PTR __k$[ebp], dl
  0002e	8a 50 01	 mov	 dl, BYTE PTR [eax+1]
  00031	84 d2		 test	 dl, dl
  00033	0f 84 1b 01 00
	00		 je	 $LN95@LoadString@2
  00039	80 f2 ec	 xor	 dl, -20			; ffffffecH
  0003c	88 55 ed	 mov	 BYTE PTR __k$[ebp+1], dl
  0003f	8a 50 02	 mov	 dl, BYTE PTR [eax+2]
  00042	84 d2		 test	 dl, dl
  00044	0f 84 04 01 00
	00		 je	 $LN94@LoadString@2
  0004a	b1 eb		 mov	 cl, -21			; ffffffebH
  0004c	32 d1		 xor	 dl, cl
  0004e	88 55 ee	 mov	 BYTE PTR __k$[ebp+2], dl
  00051	8a 50 03	 mov	 dl, BYTE PTR [eax+3]
  00054	84 d2		 test	 dl, dl
  00056	0f 84 ec 00 00
	00		 je	 $LN93@LoadString@2
  0005c	80 f2 ea	 xor	 dl, -22			; ffffffeaH
  0005f	88 55 ef	 mov	 BYTE PTR __k$[ebp+3], dl
  00062	8a 50 04	 mov	 dl, BYTE PTR [eax+4]
  00065	84 d2		 test	 dl, dl
  00067	0f 84 d5 00 00
	00		 je	 $LN92@LoadString@2
  0006d	80 f2 ed	 xor	 dl, -19			; ffffffedH
  00070	88 55 f0	 mov	 BYTE PTR __k$[ebp+4], dl
  00073	8a 50 05	 mov	 dl, BYTE PTR [eax+5]
  00076	84 d2		 test	 dl, dl
  00078	0f 84 be 00 00
	00		 je	 $LN91@LoadString@2
  0007e	80 f2 ec	 xor	 dl, -20			; ffffffecH
  00081	88 55 f1	 mov	 BYTE PTR __k$[ebp+5], dl
  00084	8a 50 06	 mov	 dl, BYTE PTR [eax+6]
  00087	84 d2		 test	 dl, dl
  00089	0f 84 a8 00 00
	00		 je	 $LN90@LoadString@2
  0008f	32 d1		 xor	 dl, cl
  00091	88 55 f2	 mov	 BYTE PTR __k$[ebp+6], dl
  00094	8a 50 07	 mov	 dl, BYTE PTR [eax+7]
  00097	84 d2		 test	 dl, dl
  00099	0f 84 92 00 00
	00		 je	 $LN89@LoadString@2
  0009f	80 f2 ea	 xor	 dl, -22			; ffffffeaH
  000a2	88 55 f3	 mov	 BYTE PTR __k$[ebp+7], dl
  000a5	8a 50 08	 mov	 dl, BYTE PTR [eax+8]
  000a8	84 d2		 test	 dl, dl
  000aa	74 7f		 je	 SHORT $LN88@LoadString@2
  000ac	80 f2 ed	 xor	 dl, -19			; ffffffedH
  000af	88 55 f4	 mov	 BYTE PTR __k$[ebp+8], dl
  000b2	8a 50 09	 mov	 dl, BYTE PTR [eax+9]
  000b5	84 d2		 test	 dl, dl
  000b7	74 6c		 je	 SHORT $LN87@LoadString@2
  000b9	80 f2 ec	 xor	 dl, -20			; ffffffecH
  000bc	88 55 f5	 mov	 BYTE PTR __k$[ebp+9], dl
  000bf	8a 50 0a	 mov	 dl, BYTE PTR [eax+10]
  000c2	84 d2		 test	 dl, dl
  000c4	74 5a		 je	 SHORT $LN86@LoadString@2
  000c6	32 d1		 xor	 dl, cl
  000c8	80 78 0b 00	 cmp	 BYTE PTR [eax+11], 0
  000cc	88 55 f6	 mov	 BYTE PTR __k$[ebp+10], dl
  000cf	0f 84 89 00 00
	00		 je	 $LN111@LoadString@2
  000d5	8a 50 0c	 mov	 dl, BYTE PTR [eax+12]
  000d8	84 d2		 test	 dl, dl
  000da	74 3e		 je	 SHORT $LN84@LoadString@2
  000dc	80 f2 ed	 xor	 dl, -19			; ffffffedH
  000df	88 55 f8	 mov	 BYTE PTR __k$[ebp+12], dl
  000e2	8a 50 0d	 mov	 dl, BYTE PTR [eax+13]
  000e5	84 d2		 test	 dl, dl
  000e7	74 2b		 je	 SHORT $LN83@LoadString@2
  000e9	80 f2 ec	 xor	 dl, -20			; ffffffecH
  000ec	88 55 f9	 mov	 BYTE PTR __k$[ebp+13], dl
  000ef	8a 50 0e	 mov	 dl, BYTE PTR [eax+14]
  000f2	84 d2		 test	 dl, dl
  000f4	74 19		 je	 SHORT $LN82@LoadString@2
  000f6	8a 40 0f	 mov	 al, BYTE PTR [eax+15]
  000f9	32 d1		 xor	 dl, cl
  000fb	88 55 fa	 mov	 BYTE PTR __k$[ebp+14], dl
  000fe	84 c0		 test	 al, al
  00100	74 07		 je	 SHORT $LN81@LoadString@2
  00102	34 ea		 xor	 al, -22			; ffffffeaH
  00104	88 45 fb	 mov	 BYTE PTR __k$[ebp+15], al
  00107	eb 55		 jmp	 SHORT $LN111@LoadString@2
$LN81@LoadString@2:
  00109	c6 45 fb ea	 mov	 BYTE PTR __k$[ebp+15], -22 ; ffffffeaH
  0010d	eb 4f		 jmp	 SHORT $LN111@LoadString@2
$LN82@LoadString@2:
  0010f	88 4d fa	 mov	 BYTE PTR __k$[ebp+14], cl
  00112	eb 4a		 jmp	 SHORT $LN111@LoadString@2
$LN83@LoadString@2:
  00114	c6 45 f9 ec	 mov	 BYTE PTR __k$[ebp+13], -20 ; ffffffecH
  00118	eb 44		 jmp	 SHORT $LN111@LoadString@2
$LN84@LoadString@2:
  0011a	c6 45 f8 ed	 mov	 BYTE PTR __k$[ebp+12], -19 ; ffffffedH
  0011e	eb 3e		 jmp	 SHORT $LN111@LoadString@2
$LN86@LoadString@2:
  00120	88 4d f6	 mov	 BYTE PTR __k$[ebp+10], cl
  00123	eb 39		 jmp	 SHORT $LN111@LoadString@2
$LN87@LoadString@2:
  00125	c6 45 f5 ec	 mov	 BYTE PTR __k$[ebp+9], -20 ; ffffffecH
  00129	eb 33		 jmp	 SHORT $LN111@LoadString@2
$LN88@LoadString@2:
  0012b	c6 45 f4 ed	 mov	 BYTE PTR __k$[ebp+8], -19 ; ffffffedH
  0012f	eb 2d		 jmp	 SHORT $LN111@LoadString@2
$LN89@LoadString@2:
  00131	c6 45 f3 ea	 mov	 BYTE PTR __k$[ebp+7], -22 ; ffffffeaH
  00135	eb 27		 jmp	 SHORT $LN111@LoadString@2
$LN90@LoadString@2:
  00137	88 4d f2	 mov	 BYTE PTR __k$[ebp+6], cl
  0013a	eb 22		 jmp	 SHORT $LN111@LoadString@2
$LN91@LoadString@2:
  0013c	c6 45 f1 ec	 mov	 BYTE PTR __k$[ebp+5], -20 ; ffffffecH
  00140	eb 1c		 jmp	 SHORT $LN111@LoadString@2
$LN92@LoadString@2:
  00142	c6 45 f0 ed	 mov	 BYTE PTR __k$[ebp+4], -19 ; ffffffedH
  00146	eb 16		 jmp	 SHORT $LN111@LoadString@2
$LN93@LoadString@2:
  00148	c6 45 ef ea	 mov	 BYTE PTR __k$[ebp+3], -22 ; ffffffeaH
  0014c	eb 10		 jmp	 SHORT $LN111@LoadString@2
$LN94@LoadString@2:
  0014e	c6 45 ee eb	 mov	 BYTE PTR __k$[ebp+2], -21 ; ffffffebH
  00152	eb 0a		 jmp	 SHORT $LN111@LoadString@2
$LN95@LoadString@2:
  00154	c6 45 ed ec	 mov	 BYTE PTR __k$[ebp+1], -20 ; ffffffecH
  00158	eb 04		 jmp	 SHORT $LN111@LoadString@2
$LN96@LoadString@2:
  0015a	c6 45 ec ed	 mov	 BYTE PTR __k$[ebp], -19	; ffffffedH
$LN111@LoadString@2:
  0015e	6a 02		 push	 2
  00160	8d 45 ec	 lea	 eax, DWORD PTR __k$[ebp]
  00163	c6 45 f7 00	 mov	 BYTE PTR __k$[ebp+11], 0
  00167	5a		 pop	 edx
$LL104@LoadString@2:
  00168	81 30 ed ec eb
	ea		 xor	 DWORD PTR [eax], -353637139 ; eaebecedH
  0016e	83 c0 04	 add	 eax, 4
  00171	4a		 dec	 edx
  00172	75 f4		 jne	 SHORT $LL104@LoadString@2
  00174	6a 08		 push	 8
  00176	58		 pop	 eax
$LL101@LoadString@2:
  00177	8b c8		 mov	 ecx, eax
  00179	81 e1 03 00 00
	80		 and	 ecx, -2147483645	; 80000003H
  0017f	79 05		 jns	 SHORT $LN112@LoadString@2
  00181	49		 dec	 ecx
  00182	83 c9 fc	 or	 ecx, -4			; fffffffcH
  00185	41		 inc	 ecx
$LN112@LoadString@2:
  00186	b2 ed		 mov	 dl, -19			; ffffffedH
  00188	2a d1		 sub	 dl, cl
  0018a	30 54 05 ec	 xor	 BYTE PTR __k$[ebp+eax], dl
  0018e	40		 inc	 eax
  0018f	83 f8 0b	 cmp	 eax, 11			; 0000000bH
  00192	7c e3		 jl	 SHORT $LL101@LoadString@2

; 163  : 		LoadString(_k, d, b, i);

  00194	ff 75 14	 push	 DWORD PTR _i$[ebp]
  00197	8b 4d e8	 mov	 ecx, DWORD PTR _this$GSCopy$[ebp]
  0019a	57		 push	 edi
  0019b	56		 push	 esi
  0019c	8d 45 ec	 lea	 eax, DWORD PTR __k$[ebp]
  0019f	50		 push	 eax
  001a0	ff 15 00 00 00
	00		 call	 DWORD PTR __imp_?LoadStringA@ioINILoader@@QAEXPBD0PADH@Z

; 164  : 	}

  001a6	8b 4d fc	 mov	 ecx, DWORD PTR __$ArrayPad$[ebp]
  001a9	5f		 pop	 edi
  001aa	33 cd		 xor	 ecx, ebp
  001ac	5e		 pop	 esi
  001ad	e8 00 00 00 00	 call	 @__security_check_cookie@4
  001b2	c9		 leave
  001b3	c2 10 00	 ret	 16			; 00000010H
??$LoadString_e@$0M@@ioINILoader@@QAEXAAY0M@$$CBDAAY00$$CBDPADH@Z ENDP ; ioINILoader::LoadString_e<12>
_TEXT	ENDS
PUBLIC	__$ArrayPad$
PUBLIC	??$LoadFloat_e@$0BA@@ioINILoader@@QAEMAAY0BA@$$CBDM@Z ; ioINILoader::LoadFloat_e<16>
EXTRN	__imp_?LoadFloat@ioINILoader@@QAEMPBDM@Z:PROC
; Function compile flags: /Ogsp
;	COMDAT ??$LoadFloat_e@$0BA@@ioINILoader@@QAEMAAY0BA@$$CBDM@Z
_TEXT	SEGMENT
__k$ = -24						; size = 16
__$ArrayPad$ = -4					; size = 4
_k$ = 8							; size = 4
_f$ = 12						; size = 4
??$LoadFloat_e@$0BA@@ioINILoader@@QAEMAAY0BA@$$CBDM@Z PROC ; ioINILoader::LoadFloat_e<16>, COMDAT
; _this$ = ecx

; 135  : 	{

  00000	55		 push	 ebp
  00001	8b ec		 mov	 ebp, esp
  00003	83 ec 18	 sub	 esp, 24			; 00000018H
  00006	a1 00 00 00 00	 mov	 eax, DWORD PTR ___security_cookie
  0000b	33 c5		 xor	 eax, ebp
  0000d	89 45 fc	 mov	 DWORD PTR __$ArrayPad$[ebp], eax
  00010	8b 45 08	 mov	 eax, DWORD PTR _k$[ebp]

; 136  : 		_ENCSTR(k, _k);

  00013	8a 10		 mov	 dl, BYTE PTR [eax]
  00015	56		 push	 esi
  00016	8b f1		 mov	 esi, ecx
  00018	84 d2		 test	 dl, dl
  0001a	0f 84 8c 01 00
	00		 je	 $LN96@LoadFloat_
  00020	80 f2 ed	 xor	 dl, -19			; ffffffedH
  00023	88 55 e8	 mov	 BYTE PTR __k$[ebp], dl
  00026	8a 50 01	 mov	 dl, BYTE PTR [eax+1]
  00029	84 d2		 test	 dl, dl
  0002b	0f 84 75 01 00
	00		 je	 $LN95@LoadFloat_
  00031	80 f2 ec	 xor	 dl, -20			; ffffffecH
  00034	88 55 e9	 mov	 BYTE PTR __k$[ebp+1], dl
  00037	8a 50 02	 mov	 dl, BYTE PTR [eax+2]
  0003a	84 d2		 test	 dl, dl
  0003c	0f 84 5e 01 00
	00		 je	 $LN94@LoadFloat_
  00042	b1 eb		 mov	 cl, -21			; ffffffebH
  00044	32 d1		 xor	 dl, cl
  00046	88 55 ea	 mov	 BYTE PTR __k$[ebp+2], dl
  00049	8a 50 03	 mov	 dl, BYTE PTR [eax+3]
  0004c	84 d2		 test	 dl, dl
  0004e	0f 84 46 01 00
	00		 je	 $LN93@LoadFloat_
  00054	80 f2 ea	 xor	 dl, -22			; ffffffeaH
  00057	88 55 eb	 mov	 BYTE PTR __k$[ebp+3], dl
  0005a	8a 50 04	 mov	 dl, BYTE PTR [eax+4]
  0005d	84 d2		 test	 dl, dl
  0005f	0f 84 2f 01 00
	00		 je	 $LN92@LoadFloat_
  00065	80 f2 ed	 xor	 dl, -19			; ffffffedH
  00068	88 55 ec	 mov	 BYTE PTR __k$[ebp+4], dl
  0006b	8a 50 05	 mov	 dl, BYTE PTR [eax+5]
  0006e	84 d2		 test	 dl, dl
  00070	0f 84 18 01 00
	00		 je	 $LN91@LoadFloat_
  00076	80 f2 ec	 xor	 dl, -20			; ffffffecH
  00079	88 55 ed	 mov	 BYTE PTR __k$[ebp+5], dl
  0007c	8a 50 06	 mov	 dl, BYTE PTR [eax+6]
  0007f	84 d2		 test	 dl, dl
  00081	0f 84 02 01 00
	00		 je	 $LN90@LoadFloat_
  00087	32 d1		 xor	 dl, cl
  00089	88 55 ee	 mov	 BYTE PTR __k$[ebp+6], dl
  0008c	8a 50 07	 mov	 dl, BYTE PTR [eax+7]
  0008f	84 d2		 test	 dl, dl
  00091	0f 84 ec 00 00
	00		 je	 $LN89@LoadFloat_
  00097	80 f2 ea	 xor	 dl, -22			; ffffffeaH
  0009a	88 55 ef	 mov	 BYTE PTR __k$[ebp+7], dl
  0009d	8a 50 08	 mov	 dl, BYTE PTR [eax+8]
  000a0	84 d2		 test	 dl, dl
  000a2	0f 84 d5 00 00
	00		 je	 $LN88@LoadFloat_
  000a8	80 f2 ed	 xor	 dl, -19			; ffffffedH
  000ab	88 55 f0	 mov	 BYTE PTR __k$[ebp+8], dl
  000ae	8a 50 09	 mov	 dl, BYTE PTR [eax+9]
  000b1	84 d2		 test	 dl, dl
  000b3	0f 84 be 00 00
	00		 je	 $LN87@LoadFloat_
  000b9	80 f2 ec	 xor	 dl, -20			; ffffffecH
  000bc	88 55 f1	 mov	 BYTE PTR __k$[ebp+9], dl
  000bf	8a 50 0a	 mov	 dl, BYTE PTR [eax+10]
  000c2	84 d2		 test	 dl, dl
  000c4	0f 84 a8 00 00
	00		 je	 $LN86@LoadFloat_
  000ca	32 d1		 xor	 dl, cl
  000cc	88 55 f2	 mov	 BYTE PTR __k$[ebp+10], dl
  000cf	8a 50 0b	 mov	 dl, BYTE PTR [eax+11]
  000d2	84 d2		 test	 dl, dl
  000d4	0f 84 92 00 00
	00		 je	 $LN85@LoadFloat_
  000da	80 f2 ea	 xor	 dl, -22			; ffffffeaH
  000dd	88 55 f3	 mov	 BYTE PTR __k$[ebp+11], dl
  000e0	8a 50 0c	 mov	 dl, BYTE PTR [eax+12]
  000e3	84 d2		 test	 dl, dl
  000e5	74 7f		 je	 SHORT $LN84@LoadFloat_
  000e7	80 f2 ed	 xor	 dl, -19			; ffffffedH
  000ea	88 55 f4	 mov	 BYTE PTR __k$[ebp+12], dl
  000ed	8a 50 0d	 mov	 dl, BYTE PTR [eax+13]
  000f0	84 d2		 test	 dl, dl
  000f2	74 6c		 je	 SHORT $LN83@LoadFloat_
  000f4	80 f2 ec	 xor	 dl, -20			; ffffffecH
  000f7	88 55 f5	 mov	 BYTE PTR __k$[ebp+13], dl
  000fa	8a 50 0e	 mov	 dl, BYTE PTR [eax+14]
  000fd	84 d2		 test	 dl, dl
  000ff	74 5a		 je	 SHORT $LN82@LoadFloat_
  00101	32 d1		 xor	 dl, cl
  00103	80 78 0f 00	 cmp	 BYTE PTR [eax+15], 0
  00107	88 55 f6	 mov	 BYTE PTR __k$[ebp+14], dl
  0010a	0f 84 a0 00 00
	00		 je	 $LN1@LoadFloat_
  00110	8a 50 10	 mov	 dl, BYTE PTR [eax+16]
  00113	84 d2		 test	 dl, dl
  00115	74 3e		 je	 SHORT $LN80@LoadFloat_
  00117	80 f2 ed	 xor	 dl, -19			; ffffffedH
  0011a	88 55 f8	 mov	 BYTE PTR __k$[ebp+16], dl
  0011d	8a 50 11	 mov	 dl, BYTE PTR [eax+17]
  00120	84 d2		 test	 dl, dl
  00122	74 2b		 je	 SHORT $LN79@LoadFloat_
  00124	80 f2 ec	 xor	 dl, -20			; ffffffecH
  00127	88 55 f9	 mov	 BYTE PTR __k$[ebp+17], dl
  0012a	8a 50 12	 mov	 dl, BYTE PTR [eax+18]
  0012d	84 d2		 test	 dl, dl
  0012f	74 19		 je	 SHORT $LN78@LoadFloat_
  00131	8a 40 13	 mov	 al, BYTE PTR [eax+19]
  00134	32 d1		 xor	 dl, cl
  00136	88 55 fa	 mov	 BYTE PTR __k$[ebp+18], dl
  00139	84 c0		 test	 al, al
  0013b	74 07		 je	 SHORT $LN77@LoadFloat_
  0013d	34 ea		 xor	 al, -22			; ffffffeaH
  0013f	88 45 fb	 mov	 BYTE PTR __k$[ebp+19], al
  00142	eb 6c		 jmp	 SHORT $LN1@LoadFloat_
$LN77@LoadFloat_:
  00144	c6 45 fb ea	 mov	 BYTE PTR __k$[ebp+19], -22 ; ffffffeaH
  00148	eb 66		 jmp	 SHORT $LN1@LoadFloat_
$LN78@LoadFloat_:
  0014a	88 4d fa	 mov	 BYTE PTR __k$[ebp+18], cl
  0014d	eb 61		 jmp	 SHORT $LN1@LoadFloat_
$LN79@LoadFloat_:
  0014f	c6 45 f9 ec	 mov	 BYTE PTR __k$[ebp+17], -20 ; ffffffecH
  00153	eb 5b		 jmp	 SHORT $LN1@LoadFloat_
$LN80@LoadFloat_:
  00155	c6 45 f8 ed	 mov	 BYTE PTR __k$[ebp+16], -19 ; ffffffedH
  00159	eb 55		 jmp	 SHORT $LN1@LoadFloat_
$LN82@LoadFloat_:
  0015b	88 4d f6	 mov	 BYTE PTR __k$[ebp+14], cl
  0015e	eb 50		 jmp	 SHORT $LN1@LoadFloat_
$LN83@LoadFloat_:
  00160	c6 45 f5 ec	 mov	 BYTE PTR __k$[ebp+13], -20 ; ffffffecH
  00164	eb 4a		 jmp	 SHORT $LN1@LoadFloat_
$LN84@LoadFloat_:
  00166	c6 45 f4 ed	 mov	 BYTE PTR __k$[ebp+12], -19 ; ffffffedH
  0016a	eb 44		 jmp	 SHORT $LN1@LoadFloat_
$LN85@LoadFloat_:
  0016c	c6 45 f3 ea	 mov	 BYTE PTR __k$[ebp+11], -22 ; ffffffeaH
  00170	eb 3e		 jmp	 SHORT $LN1@LoadFloat_
$LN86@LoadFloat_:
  00172	88 4d f2	 mov	 BYTE PTR __k$[ebp+10], cl
  00175	eb 39		 jmp	 SHORT $LN1@LoadFloat_
$LN87@LoadFloat_:
  00177	c6 45 f1 ec	 mov	 BYTE PTR __k$[ebp+9], -20 ; ffffffecH
  0017b	eb 33		 jmp	 SHORT $LN1@LoadFloat_
$LN88@LoadFloat_:
  0017d	c6 45 f0 ed	 mov	 BYTE PTR __k$[ebp+8], -19 ; ffffffedH
  00181	eb 2d		 jmp	 SHORT $LN1@LoadFloat_
$LN89@LoadFloat_:
  00183	c6 45 ef ea	 mov	 BYTE PTR __k$[ebp+7], -22 ; ffffffeaH
  00187	eb 27		 jmp	 SHORT $LN1@LoadFloat_
$LN90@LoadFloat_:
  00189	88 4d ee	 mov	 BYTE PTR __k$[ebp+6], cl
  0018c	eb 22		 jmp	 SHORT $LN1@LoadFloat_
$LN91@LoadFloat_:
  0018e	c6 45 ed ec	 mov	 BYTE PTR __k$[ebp+5], -20 ; ffffffecH
  00192	eb 1c		 jmp	 SHORT $LN1@LoadFloat_
$LN92@LoadFloat_:
  00194	c6 45 ec ed	 mov	 BYTE PTR __k$[ebp+4], -19 ; ffffffedH
  00198	eb 16		 jmp	 SHORT $LN1@LoadFloat_
$LN93@LoadFloat_:
  0019a	c6 45 eb ea	 mov	 BYTE PTR __k$[ebp+3], -22 ; ffffffeaH
  0019e	eb 10		 jmp	 SHORT $LN1@LoadFloat_
$LN94@LoadFloat_:
  001a0	c6 45 ea eb	 mov	 BYTE PTR __k$[ebp+2], -21 ; ffffffebH
  001a4	eb 0a		 jmp	 SHORT $LN1@LoadFloat_
$LN95@LoadFloat_:
  001a6	c6 45 e9 ec	 mov	 BYTE PTR __k$[ebp+1], -20 ; ffffffecH
  001aa	eb 04		 jmp	 SHORT $LN1@LoadFloat_
$LN96@LoadFloat_:
  001ac	c6 45 e8 ed	 mov	 BYTE PTR __k$[ebp], -19	; ffffffedH
$LN1@LoadFloat_:
  001b0	6a 03		 push	 3
  001b2	8d 45 e8	 lea	 eax, DWORD PTR __k$[ebp]
  001b5	c6 45 f7 00	 mov	 BYTE PTR __k$[ebp+15], 0
  001b9	5a		 pop	 edx
$LL104@LoadFloat_:
  001ba	81 30 ed ec eb
	ea		 xor	 DWORD PTR [eax], -353637139 ; eaebecedH
  001c0	83 c0 04	 add	 eax, 4
  001c3	4a		 dec	 edx
  001c4	75 f4		 jne	 SHORT $LL104@LoadFloat_
  001c6	6a 0c		 push	 12			; 0000000cH
  001c8	58		 pop	 eax
$LL101@LoadFloat_:
  001c9	8b c8		 mov	 ecx, eax
  001cb	81 e1 03 00 00
	80		 and	 ecx, -2147483645	; 80000003H
  001d1	79 05		 jns	 SHORT $LN111@LoadFloat_
  001d3	49		 dec	 ecx
  001d4	83 c9 fc	 or	 ecx, -4			; fffffffcH
  001d7	41		 inc	 ecx
$LN111@LoadFloat_:
  001d8	b2 ed		 mov	 dl, -19			; ffffffedH
  001da	2a d1		 sub	 dl, cl
  001dc	30 54 05 e8	 xor	 BYTE PTR __k$[ebp+eax], dl
  001e0	40		 inc	 eax
  001e1	83 f8 0f	 cmp	 eax, 15			; 0000000fH
  001e4	7c e3		 jl	 SHORT $LL101@LoadFloat_

; 137  : 		return LoadFloat(_k, f);

  001e6	f3 0f 10 45 0c	 movss	 xmm0, DWORD PTR _f$[ebp]
  001eb	51		 push	 ecx
  001ec	8d 45 e8	 lea	 eax, DWORD PTR __k$[ebp]
  001ef	f3 0f 11 04 24	 movss	 DWORD PTR [esp], xmm0
  001f4	50		 push	 eax
  001f5	8b ce		 mov	 ecx, esi
  001f7	ff 15 00 00 00
	00		 call	 DWORD PTR __imp_?LoadFloat@ioINILoader@@QAEMPBDM@Z

; 138  : 	}

  001fd	8b 4d fc	 mov	 ecx, DWORD PTR __$ArrayPad$[ebp]
  00200	33 cd		 xor	 ecx, ebp
  00202	5e		 pop	 esi
  00203	e8 00 00 00 00	 call	 @__security_check_cookie@4
  00208	c9		 leave
  00209	c2 08 00	 ret	 8
??$LoadFloat_e@$0BA@@ioINILoader@@QAEMAAY0BA@$$CBDM@Z ENDP ; ioINILoader::LoadFloat_e<16>
_TEXT	ENDS
PUBLIC	__$ArrayPad$
PUBLIC	??$LoadFloat_e@$0N@@ioINILoader@@QAEMAAY0N@$$CBDM@Z ; ioINILoader::LoadFloat_e<13>
; Function compile flags: /Ogsp
;	COMDAT ??$LoadFloat_e@$0N@@ioINILoader@@QAEMAAY0N@$$CBDM@Z
_TEXT	SEGMENT
__k$ = -24						; size = 13
__$ArrayPad$ = -4					; size = 4
_k$ = 8							; size = 4
_f$ = 12						; size = 4
??$LoadFloat_e@$0N@@ioINILoader@@QAEMAAY0N@$$CBDM@Z PROC ; ioINILoader::LoadFloat_e<13>, COMDAT
; _this$ = ecx

; 135  : 	{

  00000	55		 push	 ebp
  00001	8b ec		 mov	 ebp, esp
  00003	83 ec 18	 sub	 esp, 24			; 00000018H
  00006	a1 00 00 00 00	 mov	 eax, DWORD PTR ___security_cookie
  0000b	33 c5		 xor	 eax, ebp
  0000d	89 45 fc	 mov	 DWORD PTR __$ArrayPad$[ebp], eax
  00010	8b 45 08	 mov	 eax, DWORD PTR _k$[ebp]

; 136  : 		_ENCSTR(k, _k);

  00013	8a 10		 mov	 dl, BYTE PTR [eax]
  00015	56		 push	 esi
  00016	8b f1		 mov	 esi, ecx
  00018	84 d2		 test	 dl, dl
  0001a	0f 84 4d 01 00
	00		 je	 $LN96@LoadFloat_@2
  00020	80 f2 ed	 xor	 dl, -19			; ffffffedH
  00023	88 55 e8	 mov	 BYTE PTR __k$[ebp], dl
  00026	8a 50 01	 mov	 dl, BYTE PTR [eax+1]
  00029	84 d2		 test	 dl, dl
  0002b	0f 84 36 01 00
	00		 je	 $LN95@LoadFloat_@2
  00031	b1 ec		 mov	 cl, -20			; ffffffecH
  00033	32 d1		 xor	 dl, cl
  00035	88 55 e9	 mov	 BYTE PTR __k$[ebp+1], dl
  00038	8a 50 02	 mov	 dl, BYTE PTR [eax+2]
  0003b	84 d2		 test	 dl, dl
  0003d	0f 84 1e 01 00
	00		 je	 $LN94@LoadFloat_@2
  00043	80 f2 eb	 xor	 dl, -21			; ffffffebH
  00046	88 55 ea	 mov	 BYTE PTR __k$[ebp+2], dl
  00049	8a 50 03	 mov	 dl, BYTE PTR [eax+3]
  0004c	84 d2		 test	 dl, dl
  0004e	0f 84 07 01 00
	00		 je	 $LN93@LoadFloat_@2
  00054	80 f2 ea	 xor	 dl, -22			; ffffffeaH
  00057	88 55 eb	 mov	 BYTE PTR __k$[ebp+3], dl
  0005a	8a 50 04	 mov	 dl, BYTE PTR [eax+4]
  0005d	84 d2		 test	 dl, dl
  0005f	0f 84 f0 00 00
	00		 je	 $LN92@LoadFloat_@2
  00065	80 f2 ed	 xor	 dl, -19			; ffffffedH
  00068	88 55 ec	 mov	 BYTE PTR __k$[ebp+4], dl
  0006b	8a 50 05	 mov	 dl, BYTE PTR [eax+5]
  0006e	84 d2		 test	 dl, dl
  00070	0f 84 da 00 00
	00		 je	 $LN91@LoadFloat_@2
  00076	32 d1		 xor	 dl, cl
  00078	88 55 ed	 mov	 BYTE PTR __k$[ebp+5], dl
  0007b	8a 50 06	 mov	 dl, BYTE PTR [eax+6]
  0007e	84 d2		 test	 dl, dl
  00080	0f 84 c4 00 00
	00		 je	 $LN90@LoadFloat_@2
  00086	80 f2 eb	 xor	 dl, -21			; ffffffebH
  00089	88 55 ee	 mov	 BYTE PTR __k$[ebp+6], dl
  0008c	8a 50 07	 mov	 dl, BYTE PTR [eax+7]
  0008f	84 d2		 test	 dl, dl
  00091	0f 84 ad 00 00
	00		 je	 $LN89@LoadFloat_@2
  00097	80 f2 ea	 xor	 dl, -22			; ffffffeaH
  0009a	88 55 ef	 mov	 BYTE PTR __k$[ebp+7], dl
  0009d	8a 50 08	 mov	 dl, BYTE PTR [eax+8]
  000a0	84 d2		 test	 dl, dl
  000a2	0f 84 96 00 00
	00		 je	 $LN88@LoadFloat_@2
  000a8	80 f2 ed	 xor	 dl, -19			; ffffffedH
  000ab	88 55 f0	 mov	 BYTE PTR __k$[ebp+8], dl
  000ae	8a 50 09	 mov	 dl, BYTE PTR [eax+9]
  000b1	84 d2		 test	 dl, dl
  000b3	0f 84 80 00 00
	00		 je	 $LN87@LoadFloat_@2
  000b9	32 d1		 xor	 dl, cl
  000bb	88 55 f1	 mov	 BYTE PTR __k$[ebp+9], dl
  000be	8a 50 0a	 mov	 dl, BYTE PTR [eax+10]
  000c1	84 d2		 test	 dl, dl
  000c3	74 6e		 je	 SHORT $LN86@LoadFloat_@2
  000c5	80 f2 eb	 xor	 dl, -21			; ffffffebH
  000c8	88 55 f2	 mov	 BYTE PTR __k$[ebp+10], dl
  000cb	8a 50 0b	 mov	 dl, BYTE PTR [eax+11]
  000ce	84 d2		 test	 dl, dl
  000d0	74 5b		 je	 SHORT $LN85@LoadFloat_@2
  000d2	80 f2 ea	 xor	 dl, -22			; ffffffeaH
  000d5	80 78 0c 00	 cmp	 BYTE PTR [eax+12], 0
  000d9	88 55 f3	 mov	 BYTE PTR __k$[ebp+11], dl
  000dc	0f 84 8f 00 00
	00		 je	 $LN1@LoadFloat_@2
  000e2	8a 50 0d	 mov	 dl, BYTE PTR [eax+13]
  000e5	84 d2		 test	 dl, dl
  000e7	74 3f		 je	 SHORT $LN83@LoadFloat_@2
  000e9	32 d1		 xor	 dl, cl
  000eb	88 55 f5	 mov	 BYTE PTR __k$[ebp+13], dl
  000ee	8a 50 0e	 mov	 dl, BYTE PTR [eax+14]
  000f1	84 d2		 test	 dl, dl
  000f3	74 2d		 je	 SHORT $LN82@LoadFloat_@2
  000f5	80 f2 eb	 xor	 dl, -21			; ffffffebH
  000f8	88 55 f6	 mov	 BYTE PTR __k$[ebp+14], dl
  000fb	8a 50 0f	 mov	 dl, BYTE PTR [eax+15]
  000fe	84 d2		 test	 dl, dl
  00100	74 1a		 je	 SHORT $LN81@LoadFloat_@2
  00102	8a 40 10	 mov	 al, BYTE PTR [eax+16]
  00105	80 f2 ea	 xor	 dl, -22			; ffffffeaH
  00108	88 55 f7	 mov	 BYTE PTR __k$[ebp+15], dl
  0010b	84 c0		 test	 al, al
  0010d	74 07		 je	 SHORT $LN80@LoadFloat_@2
  0010f	34 ed		 xor	 al, -19			; ffffffedH
  00111	88 45 f8	 mov	 BYTE PTR __k$[ebp+16], al
  00114	eb 5b		 jmp	 SHORT $LN1@LoadFloat_@2
$LN80@LoadFloat_@2:
  00116	c6 45 f8 ed	 mov	 BYTE PTR __k$[ebp+16], -19 ; ffffffedH
  0011a	eb 55		 jmp	 SHORT $LN1@LoadFloat_@2
$LN81@LoadFloat_@2:
  0011c	c6 45 f7 ea	 mov	 BYTE PTR __k$[ebp+15], -22 ; ffffffeaH
  00120	eb 4f		 jmp	 SHORT $LN1@LoadFloat_@2
$LN82@LoadFloat_@2:
  00122	c6 45 f6 eb	 mov	 BYTE PTR __k$[ebp+14], -21 ; ffffffebH
  00126	eb 49		 jmp	 SHORT $LN1@LoadFloat_@2
$LN83@LoadFloat_@2:
  00128	88 4d f5	 mov	 BYTE PTR __k$[ebp+13], cl
  0012b	eb 44		 jmp	 SHORT $LN1@LoadFloat_@2
$LN85@LoadFloat_@2:
  0012d	c6 45 f3 ea	 mov	 BYTE PTR __k$[ebp+11], -22 ; ffffffeaH
  00131	eb 3e		 jmp	 SHORT $LN1@LoadFloat_@2
$LN86@LoadFloat_@2:
  00133	c6 45 f2 eb	 mov	 BYTE PTR __k$[ebp+10], -21 ; ffffffebH
  00137	eb 38		 jmp	 SHORT $LN1@LoadFloat_@2
$LN87@LoadFloat_@2:
  00139	88 4d f1	 mov	 BYTE PTR __k$[ebp+9], cl
  0013c	eb 33		 jmp	 SHORT $LN1@LoadFloat_@2
$LN88@LoadFloat_@2:
  0013e	c6 45 f0 ed	 mov	 BYTE PTR __k$[ebp+8], -19 ; ffffffedH
  00142	eb 2d		 jmp	 SHORT $LN1@LoadFloat_@2
$LN89@LoadFloat_@2:
  00144	c6 45 ef ea	 mov	 BYTE PTR __k$[ebp+7], -22 ; ffffffeaH
  00148	eb 27		 jmp	 SHORT $LN1@LoadFloat_@2
$LN90@LoadFloat_@2:
  0014a	c6 45 ee eb	 mov	 BYTE PTR __k$[ebp+6], -21 ; ffffffebH
  0014e	eb 21		 jmp	 SHORT $LN1@LoadFloat_@2
$LN91@LoadFloat_@2:
  00150	88 4d ed	 mov	 BYTE PTR __k$[ebp+5], cl
  00153	eb 1c		 jmp	 SHORT $LN1@LoadFloat_@2
$LN92@LoadFloat_@2:
  00155	c6 45 ec ed	 mov	 BYTE PTR __k$[ebp+4], -19 ; ffffffedH
  00159	eb 16		 jmp	 SHORT $LN1@LoadFloat_@2
$LN93@LoadFloat_@2:
  0015b	c6 45 eb ea	 mov	 BYTE PTR __k$[ebp+3], -22 ; ffffffeaH
  0015f	eb 10		 jmp	 SHORT $LN1@LoadFloat_@2
$LN94@LoadFloat_@2:
  00161	c6 45 ea eb	 mov	 BYTE PTR __k$[ebp+2], -21 ; ffffffebH
  00165	eb 0a		 jmp	 SHORT $LN1@LoadFloat_@2
$LN95@LoadFloat_@2:
  00167	c6 45 e9 ec	 mov	 BYTE PTR __k$[ebp+1], -20 ; ffffffecH
  0016b	eb 04		 jmp	 SHORT $LN1@LoadFloat_@2
$LN96@LoadFloat_@2:
  0016d	c6 45 e8 ed	 mov	 BYTE PTR __k$[ebp], -19	; ffffffedH
$LN1@LoadFloat_@2:
  00171	6a 03		 push	 3
  00173	8d 45 e8	 lea	 eax, DWORD PTR __k$[ebp]
  00176	c6 45 f4 00	 mov	 BYTE PTR __k$[ebp+12], 0
  0017a	5a		 pop	 edx
$LL104@LoadFloat_@2:
  0017b	81 30 ed ec eb
	ea		 xor	 DWORD PTR [eax], -353637139 ; eaebecedH
  00181	83 c0 04	 add	 eax, 4
  00184	4a		 dec	 edx
  00185	75 f4		 jne	 SHORT $LL104@LoadFloat_@2

; 137  : 		return LoadFloat(_k, f);

  00187	f3 0f 10 45 0c	 movss	 xmm0, DWORD PTR _f$[ebp]
  0018c	51		 push	 ecx
  0018d	8d 45 e8	 lea	 eax, DWORD PTR __k$[ebp]
  00190	f3 0f 11 04 24	 movss	 DWORD PTR [esp], xmm0
  00195	50		 push	 eax
  00196	8b ce		 mov	 ecx, esi
  00198	ff 15 00 00 00
	00		 call	 DWORD PTR __imp_?LoadFloat@ioINILoader@@QAEMPBDM@Z

; 138  : 	}

  0019e	8b 4d fc	 mov	 ecx, DWORD PTR __$ArrayPad$[ebp]
  001a1	33 cd		 xor	 ecx, ebp
  001a3	5e		 pop	 esi
  001a4	e8 00 00 00 00	 call	 @__security_check_cookie@4
  001a9	c9		 leave
  001aa	c2 08 00	 ret	 8
??$LoadFloat_e@$0N@@ioINILoader@@QAEMAAY0N@$$CBDM@Z ENDP ; ioINILoader::LoadFloat_e<13>
_TEXT	ENDS
PUBLIC	__$ArrayPad$
PUBLIC	??$LoadBool_e@$0BB@@ioINILoader@@QAE_NAAY0BB@$$CBD_N@Z ; ioINILoader::LoadBool_e<17>
EXTRN	__imp_?LoadBool@ioINILoader@@QAE_NPBD_N@Z:PROC
; Function compile flags: /Ogsp
;	COMDAT ??$LoadBool_e@$0BB@@ioINILoader@@QAE_NAAY0BB@$$CBD_N@Z
_TEXT	SEGMENT
__k$ = -28						; size = 17
__$ArrayPad$ = -4					; size = 4
_k$ = 8							; size = 4
_b$ = 12						; size = 1
??$LoadBool_e@$0BB@@ioINILoader@@QAE_NAAY0BB@$$CBD_N@Z PROC ; ioINILoader::LoadBool_e<17>, COMDAT
; _this$ = ecx

; 101  : 	{

  00000	55		 push	 ebp
  00001	8b ec		 mov	 ebp, esp
  00003	83 ec 1c	 sub	 esp, 28			; 0000001cH
  00006	a1 00 00 00 00	 mov	 eax, DWORD PTR ___security_cookie
  0000b	33 c5		 xor	 eax, ebp
  0000d	89 45 fc	 mov	 DWORD PTR __$ArrayPad$[ebp], eax
  00010	8b 45 08	 mov	 eax, DWORD PTR _k$[ebp]

; 102  : 		_ENCSTR(k, _k);

  00013	8a 10		 mov	 dl, BYTE PTR [eax]
  00015	56		 push	 esi
  00016	8b f1		 mov	 esi, ecx
  00018	84 d2		 test	 dl, dl
  0001a	0f 84 a7 01 00
	00		 je	 $LN96@LoadBool_e
  00020	80 f2 ed	 xor	 dl, -19			; ffffffedH
  00023	88 55 e4	 mov	 BYTE PTR __k$[ebp], dl
  00026	8a 50 01	 mov	 dl, BYTE PTR [eax+1]
  00029	84 d2		 test	 dl, dl
  0002b	0f 84 90 01 00
	00		 je	 $LN95@LoadBool_e
  00031	b1 ec		 mov	 cl, -20			; ffffffecH
  00033	32 d1		 xor	 dl, cl
  00035	88 55 e5	 mov	 BYTE PTR __k$[ebp+1], dl
  00038	8a 50 02	 mov	 dl, BYTE PTR [eax+2]
  0003b	84 d2		 test	 dl, dl
  0003d	0f 84 78 01 00
	00		 je	 $LN94@LoadBool_e
  00043	80 f2 eb	 xor	 dl, -21			; ffffffebH
  00046	88 55 e6	 mov	 BYTE PTR __k$[ebp+2], dl
  00049	8a 50 03	 mov	 dl, BYTE PTR [eax+3]
  0004c	84 d2		 test	 dl, dl
  0004e	0f 84 61 01 00
	00		 je	 $LN93@LoadBool_e
  00054	80 f2 ea	 xor	 dl, -22			; ffffffeaH
  00057	88 55 e7	 mov	 BYTE PTR __k$[ebp+3], dl
  0005a	8a 50 04	 mov	 dl, BYTE PTR [eax+4]
  0005d	84 d2		 test	 dl, dl
  0005f	0f 84 4a 01 00
	00		 je	 $LN92@LoadBool_e
  00065	80 f2 ed	 xor	 dl, -19			; ffffffedH
  00068	88 55 e8	 mov	 BYTE PTR __k$[ebp+4], dl
  0006b	8a 50 05	 mov	 dl, BYTE PTR [eax+5]
  0006e	84 d2		 test	 dl, dl
  00070	0f 84 34 01 00
	00		 je	 $LN91@LoadBool_e
  00076	32 d1		 xor	 dl, cl
  00078	88 55 e9	 mov	 BYTE PTR __k$[ebp+5], dl
  0007b	8a 50 06	 mov	 dl, BYTE PTR [eax+6]
  0007e	84 d2		 test	 dl, dl
  00080	0f 84 1e 01 00
	00		 je	 $LN90@LoadBool_e
  00086	80 f2 eb	 xor	 dl, -21			; ffffffebH
  00089	88 55 ea	 mov	 BYTE PTR __k$[ebp+6], dl
  0008c	8a 50 07	 mov	 dl, BYTE PTR [eax+7]
  0008f	84 d2		 test	 dl, dl
  00091	0f 84 07 01 00
	00		 je	 $LN89@LoadBool_e
  00097	80 f2 ea	 xor	 dl, -22			; ffffffeaH
  0009a	88 55 eb	 mov	 BYTE PTR __k$[ebp+7], dl
  0009d	8a 50 08	 mov	 dl, BYTE PTR [eax+8]
  000a0	84 d2		 test	 dl, dl
  000a2	0f 84 f0 00 00
	00		 je	 $LN88@LoadBool_e
  000a8	80 f2 ed	 xor	 dl, -19			; ffffffedH
  000ab	88 55 ec	 mov	 BYTE PTR __k$[ebp+8], dl
  000ae	8a 50 09	 mov	 dl, BYTE PTR [eax+9]
  000b1	84 d2		 test	 dl, dl
  000b3	0f 84 da 00 00
	00		 je	 $LN87@LoadBool_e
  000b9	32 d1		 xor	 dl, cl
  000bb	88 55 ed	 mov	 BYTE PTR __k$[ebp+9], dl
  000be	8a 50 0a	 mov	 dl, BYTE PTR [eax+10]
  000c1	84 d2		 test	 dl, dl
  000c3	0f 84 c4 00 00
	00		 je	 $LN86@LoadBool_e
  000c9	80 f2 eb	 xor	 dl, -21			; ffffffebH
  000cc	88 55 ee	 mov	 BYTE PTR __k$[ebp+10], dl
  000cf	8a 50 0b	 mov	 dl, BYTE PTR [eax+11]
  000d2	84 d2		 test	 dl, dl
  000d4	0f 84 ad 00 00
	00		 je	 $LN85@LoadBool_e
  000da	80 f2 ea	 xor	 dl, -22			; ffffffeaH
  000dd	88 55 ef	 mov	 BYTE PTR __k$[ebp+11], dl
  000e0	8a 50 0c	 mov	 dl, BYTE PTR [eax+12]
  000e3	84 d2		 test	 dl, dl
  000e5	0f 84 96 00 00
	00		 je	 $LN84@LoadBool_e
  000eb	80 f2 ed	 xor	 dl, -19			; ffffffedH
  000ee	88 55 f0	 mov	 BYTE PTR __k$[ebp+12], dl
  000f1	8a 50 0d	 mov	 dl, BYTE PTR [eax+13]
  000f4	84 d2		 test	 dl, dl
  000f6	0f 84 80 00 00
	00		 je	 $LN83@LoadBool_e
  000fc	32 d1		 xor	 dl, cl
  000fe	88 55 f1	 mov	 BYTE PTR __k$[ebp+13], dl
  00101	8a 50 0e	 mov	 dl, BYTE PTR [eax+14]
  00104	84 d2		 test	 dl, dl
  00106	74 6e		 je	 SHORT $LN82@LoadBool_e
  00108	80 f2 eb	 xor	 dl, -21			; ffffffebH
  0010b	88 55 f2	 mov	 BYTE PTR __k$[ebp+14], dl
  0010e	8a 50 0f	 mov	 dl, BYTE PTR [eax+15]
  00111	84 d2		 test	 dl, dl
  00113	74 5b		 je	 SHORT $LN81@LoadBool_e
  00115	80 f2 ea	 xor	 dl, -22			; ffffffeaH
  00118	80 78 10 00	 cmp	 BYTE PTR [eax+16], 0
  0011c	88 55 f3	 mov	 BYTE PTR __k$[ebp+15], dl
  0011f	0f 84 a6 00 00
	00		 je	 $LN1@LoadBool_e
  00125	8a 50 11	 mov	 dl, BYTE PTR [eax+17]
  00128	84 d2		 test	 dl, dl
  0012a	74 3f		 je	 SHORT $LN79@LoadBool_e
  0012c	32 d1		 xor	 dl, cl
  0012e	88 55 f5	 mov	 BYTE PTR __k$[ebp+17], dl
  00131	8a 50 12	 mov	 dl, BYTE PTR [eax+18]
  00134	84 d2		 test	 dl, dl
  00136	74 2d		 je	 SHORT $LN78@LoadBool_e
  00138	80 f2 eb	 xor	 dl, -21			; ffffffebH
  0013b	88 55 f6	 mov	 BYTE PTR __k$[ebp+18], dl
  0013e	8a 50 13	 mov	 dl, BYTE PTR [eax+19]
  00141	84 d2		 test	 dl, dl
  00143	74 1a		 je	 SHORT $LN77@LoadBool_e
  00145	8a 40 14	 mov	 al, BYTE PTR [eax+20]
  00148	80 f2 ea	 xor	 dl, -22			; ffffffeaH
  0014b	88 55 f7	 mov	 BYTE PTR __k$[ebp+19], dl
  0014e	84 c0		 test	 al, al
  00150	74 07		 je	 SHORT $LN76@LoadBool_e
  00152	34 ed		 xor	 al, -19			; ffffffedH
  00154	88 45 f8	 mov	 BYTE PTR __k$[ebp+20], al
  00157	eb 72		 jmp	 SHORT $LN1@LoadBool_e
$LN76@LoadBool_e:
  00159	c6 45 f8 ed	 mov	 BYTE PTR __k$[ebp+20], -19 ; ffffffedH
  0015d	eb 6c		 jmp	 SHORT $LN1@LoadBool_e
$LN77@LoadBool_e:
  0015f	c6 45 f7 ea	 mov	 BYTE PTR __k$[ebp+19], -22 ; ffffffeaH
  00163	eb 66		 jmp	 SHORT $LN1@LoadBool_e
$LN78@LoadBool_e:
  00165	c6 45 f6 eb	 mov	 BYTE PTR __k$[ebp+18], -21 ; ffffffebH
  00169	eb 60		 jmp	 SHORT $LN1@LoadBool_e
$LN79@LoadBool_e:
  0016b	88 4d f5	 mov	 BYTE PTR __k$[ebp+17], cl
  0016e	eb 5b		 jmp	 SHORT $LN1@LoadBool_e
$LN81@LoadBool_e:
  00170	c6 45 f3 ea	 mov	 BYTE PTR __k$[ebp+15], -22 ; ffffffeaH
  00174	eb 55		 jmp	 SHORT $LN1@LoadBool_e
$LN82@LoadBool_e:
  00176	c6 45 f2 eb	 mov	 BYTE PTR __k$[ebp+14], -21 ; ffffffebH
  0017a	eb 4f		 jmp	 SHORT $LN1@LoadBool_e
$LN83@LoadBool_e:
  0017c	88 4d f1	 mov	 BYTE PTR __k$[ebp+13], cl
  0017f	eb 4a		 jmp	 SHORT $LN1@LoadBool_e
$LN84@LoadBool_e:
  00181	c6 45 f0 ed	 mov	 BYTE PTR __k$[ebp+12], -19 ; ffffffedH
  00185	eb 44		 jmp	 SHORT $LN1@LoadBool_e
$LN85@LoadBool_e:
  00187	c6 45 ef ea	 mov	 BYTE PTR __k$[ebp+11], -22 ; ffffffeaH
  0018b	eb 3e		 jmp	 SHORT $LN1@LoadBool_e
$LN86@LoadBool_e:
  0018d	c6 45 ee eb	 mov	 BYTE PTR __k$[ebp+10], -21 ; ffffffebH
  00191	eb 38		 jmp	 SHORT $LN1@LoadBool_e
$LN87@LoadBool_e:
  00193	88 4d ed	 mov	 BYTE PTR __k$[ebp+9], cl
  00196	eb 33		 jmp	 SHORT $LN1@LoadBool_e
$LN88@LoadBool_e:
  00198	c6 45 ec ed	 mov	 BYTE PTR __k$[ebp+8], -19 ; ffffffedH
  0019c	eb 2d		 jmp	 SHORT $LN1@LoadBool_e
$LN89@LoadBool_e:
  0019e	c6 45 eb ea	 mov	 BYTE PTR __k$[ebp+7], -22 ; ffffffeaH
  001a2	eb 27		 jmp	 SHORT $LN1@LoadBool_e
$LN90@LoadBool_e:
  001a4	c6 45 ea eb	 mov	 BYTE PTR __k$[ebp+6], -21 ; ffffffebH
  001a8	eb 21		 jmp	 SHORT $LN1@LoadBool_e
$LN91@LoadBool_e:
  001aa	88 4d e9	 mov	 BYTE PTR __k$[ebp+5], cl
  001ad	eb 1c		 jmp	 SHORT $LN1@LoadBool_e
$LN92@LoadBool_e:
  001af	c6 45 e8 ed	 mov	 BYTE PTR __k$[ebp+4], -19 ; ffffffedH
  001b3	eb 16		 jmp	 SHORT $LN1@LoadBool_e
$LN93@LoadBool_e:
  001b5	c6 45 e7 ea	 mov	 BYTE PTR __k$[ebp+3], -22 ; ffffffeaH
  001b9	eb 10		 jmp	 SHORT $LN1@LoadBool_e
$LN94@LoadBool_e:
  001bb	c6 45 e6 eb	 mov	 BYTE PTR __k$[ebp+2], -21 ; ffffffebH
  001bf	eb 0a		 jmp	 SHORT $LN1@LoadBool_e
$LN95@LoadBool_e:
  001c1	c6 45 e5 ec	 mov	 BYTE PTR __k$[ebp+1], -20 ; ffffffecH
  001c5	eb 04		 jmp	 SHORT $LN1@LoadBool_e
$LN96@LoadBool_e:
  001c7	c6 45 e4 ed	 mov	 BYTE PTR __k$[ebp], -19	; ffffffedH
$LN1@LoadBool_e:
  001cb	6a 04		 push	 4
  001cd	8d 45 e4	 lea	 eax, DWORD PTR __k$[ebp]
  001d0	c6 45 f4 00	 mov	 BYTE PTR __k$[ebp+16], 0
  001d4	5a		 pop	 edx
$LL104@LoadBool_e:
  001d5	81 30 ed ec eb
	ea		 xor	 DWORD PTR [eax], -353637139 ; eaebecedH
  001db	83 c0 04	 add	 eax, 4
  001de	4a		 dec	 edx
  001df	75 f4		 jne	 SHORT $LL104@LoadBool_e

; 103  : 		return LoadBool(_k, b);

  001e1	ff 75 0c	 push	 DWORD PTR _b$[ebp]
  001e4	8d 45 e4	 lea	 eax, DWORD PTR __k$[ebp]
  001e7	50		 push	 eax
  001e8	8b ce		 mov	 ecx, esi
  001ea	ff 15 00 00 00
	00		 call	 DWORD PTR __imp_?LoadBool@ioINILoader@@QAE_NPBD_N@Z

; 104  : 	}

  001f0	8b 4d fc	 mov	 ecx, DWORD PTR __$ArrayPad$[ebp]
  001f3	33 cd		 xor	 ecx, ebp
  001f5	5e		 pop	 esi
  001f6	e8 00 00 00 00	 call	 @__security_check_cookie@4
  001fb	c9		 leave
  001fc	c2 08 00	 ret	 8
??$LoadBool_e@$0BB@@ioINILoader@@QAE_NAAY0BB@$$CBD_N@Z ENDP ; ioINILoader::LoadBool_e<17>
_TEXT	ENDS
PUBLIC	??B?$CEncrypt@W4TeamType@@@@QBE?AW4TeamType@@XZ	; CEncrypt<enum TeamType>::operator enum TeamType
; Function compile flags: /Ogsp
; File d:\lost saga for developer\youtube\tutorial\source\src\lsclient\encryptvalue.h
;	COMDAT ??B?$CEncrypt@W4TeamType@@@@QBE?AW4TeamType@@XZ
_TEXT	SEGMENT
_value$ = -4						; size = 4
??B?$CEncrypt@W4TeamType@@@@QBE?AW4TeamType@@XZ PROC	; CEncrypt<enum TeamType>::operator enum TeamType, COMDAT
; _this$ = ecx

; 145  : 	{

  00000	55		 push	 ebp
  00001	8b ec		 mov	 ebp, esp
  00003	51		 push	 ecx

; 146  : 		//UJ 130829, const    --start
; 147  : 		type value;
; 148  : 		CEncrypt<type>* pThis = const_cast<CEncrypt<type>*>(this);
; 149  : 		pThis->DecryptValueToPool(&value);

  00004	8d 45 fc	 lea	 eax, DWORD PTR _value$[ebp]
  00007	50		 push	 eax
  00008	e8 00 00 00 00	 call	 ?DecryptValueToPool@?$CEncrypt@W4TeamType@@@@QAEXPAW4TeamType@@@Z ; CEncrypt<enum TeamType>::DecryptValueToPool

; 150  : 		//// const DecryptValueToPool     .
; 151  :  		//type value;
; 152  : 		//char szTempMem[MAX_ENCRYPT];
; 153  : 		//m_RC5.DecryptByte( m_MemPool, szTempMem, max(m_ValueSize, DEFAULT_ENCRYPT) );
; 154  : 		//memcpy( &value, szTempMem, m_ValueSize );
; 155  : 		//UJ --end
; 156  : 
; 157  : #ifdef _NOTUSE
; 158  : 		Debug();
; 159  : #endif
; 160  : 		return value;

  0000d	8b 45 fc	 mov	 eax, DWORD PTR _value$[ebp]

; 161  : 	}

  00010	c9		 leave
  00011	c3		 ret	 0
??B?$CEncrypt@W4TeamType@@@@QBE?AW4TeamType@@XZ ENDP	; CEncrypt<enum TeamType>::operator enum TeamType
_TEXT	ENDS
EXTRN	?InitResource@ioWeapon@@UAE_NXZ:PROC		; ioWeapon::InitResource
; Function compile flags: /Ogsp
; File d:\lost saga for developer\youtube\tutorial\source\src\lsclient\ionuclearweapon.cpp
;	COMDAT ?InitResource@ioNuclearWeapon@@UAE_NXZ
_TEXT	SEGMENT
?InitResource@ioNuclearWeapon@@UAE_NXZ PROC		; ioNuclearWeapon::InitResource, COMDAT
; _this$ = ecx

; 37   : {

  00000	56		 push	 esi
  00001	8b f1		 mov	 esi, ecx

; 38   : 	if( ioWeapon::InitResource() )

  00003	e8 00 00 00 00	 call	 ?InitResource@ioWeapon@@UAE_NXZ ; ioWeapon::InitResource
  00008	84 c0		 test	 al, al
  0000a	74 20		 je	 SHORT $LN1@InitResour

; 39   : 	{
; 40   : 		DestroyNuclear();

  0000c	8b ce		 mov	 ecx, esi
  0000e	e8 00 00 00 00	 call	 ?DestroyNuclear@ioNuclearWeapon@@IAEXXZ ; ioNuclearWeapon::DestroyNuclear

; 41   : 		return CreateNuclear( GetAttribute()->m_WeaponEffect );

  00013	8b 06		 mov	 eax, DWORD PTR [esi]
  00015	8b ce		 mov	 ecx, esi
  00017	ff 90 3c 01 00
	00		 call	 DWORD PTR [eax+316]
  0001d	05 34 01 00 00	 add	 eax, 308		; 00000134H
  00022	50		 push	 eax
  00023	8b ce		 mov	 ecx, esi
  00025	e8 00 00 00 00	 call	 ?CreateNuclear@ioNuclearWeapon@@IAE_NABVioHashString@@@Z ; ioNuclearWeapon::CreateNuclear
  0002a	5e		 pop	 esi

; 45   : }

  0002b	c3		 ret	 0
$LN1@InitResour:

; 42   : 	}
; 43   : 
; 44   : 	return false;

  0002c	32 c0		 xor	 al, al
  0002e	5e		 pop	 esi

; 45   : }

  0002f	c3		 ret	 0
?InitResource@ioNuclearWeapon@@UAE_NXZ ENDP		; ioNuclearWeapon::InitResource
_TEXT	ENDS
PUBLIC	??_C@_00CNPNBAHC@?$AA@				; `string'
PUBLIC	_rkLoader$GSCopy$
PUBLIC	__$ArrayPad$
EXTRN	__imp_??4ioHashString@@QAEAAV0@PBD@Z:PROC
EXTRN	?LoadProperty@ioWeapon@@UAEXAAVioINILoader@@@Z:PROC ; ioWeapon::LoadProperty
;	COMDAT ??_C@_00CNPNBAHC@?$AA@
; File d:\lost saga for developer\youtube\tutorial\source\src\lsclient\stringprotect.h
CONST	SEGMENT
??_C@_00CNPNBAHC@?$AA@ DB 00H				; `string'
; Function compile flags: /Ogsp
; File d:\lost saga for developer\youtube\tutorial\source\src\lsclient\ionuclearweapon.cpp
CONST	ENDS
;	COMDAT ?LoadProperty@ioNuclearWeapon@@UAEXAAVioINILoader@@@Z
_TEXT	SEGMENT
_rkLoader$GSCopy$ = -292				; size = 4
_szBuf$ = -288						; size = 260
__k$532960 = -28					; size = 17
__k$532723 = -28					; size = 16
__k$532848 = -24					; size = 13
__k$532598 = -24					; size = 12
__k$532460 = -24					; size = 12
__k$532335 = -24					; size = 11
__$ArrayPad$ = -4					; size = 4
_rkLoader$ = 8						; size = 4
?LoadProperty@ioNuclearWeapon@@UAEXAAVioINILoader@@@Z PROC ; ioNuclearWeapon::LoadProperty, COMDAT
; _this$ = ecx

; 48   : {

  00000	55		 push	 ebp
  00001	8b ec		 mov	 ebp, esp
  00003	81 ec 24 01 00
	00		 sub	 esp, 292		; 00000124H
  00009	a1 00 00 00 00	 mov	 eax, DWORD PTR ___security_cookie
  0000e	33 c5		 xor	 eax, ebp
  00010	89 45 fc	 mov	 DWORD PTR __$ArrayPad$[ebp], eax
  00013	56		 push	 esi
  00014	57		 push	 edi
  00015	8b 7d 08	 mov	 edi, DWORD PTR _rkLoader$[ebp]

; 49   : 	ioWeapon::LoadProperty( rkLoader );

  00018	57		 push	 edi
  00019	8b f1		 mov	 esi, ecx

; 56   : 	rkLoader.LoadString_e( "boom_effect", "", szBuf, MAX_PATH );

  0001b	89 bd dc fe ff
	ff		 mov	 DWORD PTR _rkLoader$GSCopy$[ebp], edi
  00021	e8 00 00 00 00	 call	 ?LoadProperty@ioWeapon@@UAEXAAVioINILoader@@@Z ; ioWeapon::LoadProperty
  00026	6a 02		 push	 2
  00028	c7 45 e8 9f 89
	8f b5		 mov	 DWORD PTR __k$532335[ebp], -1248884321 ; b58f899fH
  0002f	c7 45 ec 9e 89
	85 99		 mov	 DWORD PTR __k$532335[ebp+4], -1719301730 ; 9985899eH
  00036	66 c7 45 f0 82
	9e		 mov	 WORD PTR __k$532335[ebp+8], 40578 ; 00009e82H
  0003c	8d 45 e8	 lea	 eax, DWORD PTR __k$532335[ebp]
  0003f	c6 45 f2 00	 mov	 BYTE PTR __k$532335[ebp+10], 0
  00043	59		 pop	 ecx
$LL106@LoadProper:

; 50   : 
; 51   : 	char szBuf[MAX_PATH];
; 52   : 	rkLoader.LoadString_e( "red_sensor", "", szBuf, MAX_PATH );

  00044	81 30 ed ec eb
	ea		 xor	 DWORD PTR [eax], -353637139 ; eaebecedH
  0004a	83 c0 04	 add	 eax, 4
  0004d	49		 dec	 ecx
  0004e	75 f4		 jne	 SHORT $LL106@LoadProper
  00050	6a 08		 push	 8
  00052	58		 pop	 eax
$LL103@LoadProper:
  00053	8b c8		 mov	 ecx, eax
  00055	81 e1 03 00 00
	80		 and	 ecx, -2147483645	; 80000003H
  0005b	79 05		 jns	 SHORT $LN663@LoadProper
  0005d	49		 dec	 ecx
  0005e	83 c9 fc	 or	 ecx, -4			; fffffffcH
  00061	41		 inc	 ecx
$LN663@LoadProper:
  00062	b2 ed		 mov	 dl, -19			; ffffffedH
  00064	2a d1		 sub	 dl, cl
  00066	30 54 05 e8	 xor	 BYTE PTR __k$532335[ebp+eax], dl
  0006a	40		 inc	 eax
  0006b	83 f8 0a	 cmp	 eax, 10			; 0000000aH
  0006e	7c e3		 jl	 SHORT $LL103@LoadProper
  00070	53		 push	 ebx
  00071	68 04 01 00 00	 push	 260			; 00000104H
  00076	8d 85 e0 fe ff
	ff		 lea	 eax, DWORD PTR _szBuf$[ebp]
  0007c	50		 push	 eax
  0007d	68 00 00 00 00	 push	 OFFSET ??_C@_00CNPNBAHC@?$AA@
  00082	8d 45 e8	 lea	 eax, DWORD PTR __k$532335[ebp]
  00085	8b cf		 mov	 ecx, edi
  00087	8b 3d 00 00 00
	00		 mov	 edi, DWORD PTR __imp_?LoadStringA@ioINILoader@@QAEXPBD0PADH@Z
  0008d	50		 push	 eax
  0008e	ff d7		 call	 edi

; 53   : 	m_RedSensor = szBuf;

  00090	8b 1d 00 00 00
	00		 mov	 ebx, DWORD PTR __imp_??4ioHashString@@QAEAAV0@PBD@Z
  00096	8d 85 e0 fe ff
	ff		 lea	 eax, DWORD PTR _szBuf$[ebp]
  0009c	50		 push	 eax
  0009d	8d 8e e0 08 00
	00		 lea	 ecx, DWORD PTR [esi+2272]
  000a3	ff d3		 call	 ebx
  000a5	6a 02		 push	 2

; 54   : 	rkLoader.LoadString_e( "blue_sensor", "", szBuf, MAX_PATH );

  000a7	c7 45 e8 8f 80
	9e 8f		 mov	 DWORD PTR __k$532460[ebp], -1885437809 ; 8f9e808fH
  000ae	c7 45 ec b2 9f
	8e 84		 mov	 DWORD PTR __k$532460[ebp+4], -2071027790 ; 848e9fb2H
  000b5	8d 45 e8	 lea	 eax, DWORD PTR __k$532460[ebp]
  000b8	c7 45 f0 9e 83
	99 00		 mov	 DWORD PTR __k$532460[ebp+8], 10060702 ; 0099839eH
  000bf	59		 pop	 ecx
$LL212@LoadProper:
  000c0	81 30 ed ec eb
	ea		 xor	 DWORD PTR [eax], -353637139 ; eaebecedH
  000c6	83 c0 04	 add	 eax, 4
  000c9	49		 dec	 ecx
  000ca	75 f4		 jne	 SHORT $LL212@LoadProper
  000cc	6a 08		 push	 8
  000ce	58		 pop	 eax
$LL209@LoadProper:
  000cf	8b c8		 mov	 ecx, eax
  000d1	81 e1 03 00 00
	80		 and	 ecx, -2147483645	; 80000003H
  000d7	79 05		 jns	 SHORT $LN664@LoadProper
  000d9	49		 dec	 ecx
  000da	83 c9 fc	 or	 ecx, -4			; fffffffcH
  000dd	41		 inc	 ecx
$LN664@LoadProper:
  000de	b2 ed		 mov	 dl, -19			; ffffffedH
  000e0	2a d1		 sub	 dl, cl
  000e2	30 54 05 e8	 xor	 BYTE PTR __k$532460[ebp+eax], dl
  000e6	40		 inc	 eax
  000e7	83 f8 0b	 cmp	 eax, 11			; 0000000bH
  000ea	7c e3		 jl	 SHORT $LL209@LoadProper
  000ec	8b 8d dc fe ff
	ff		 mov	 ecx, DWORD PTR _rkLoader$GSCopy$[ebp]
  000f2	68 04 01 00 00	 push	 260			; 00000104H
  000f7	8d 85 e0 fe ff
	ff		 lea	 eax, DWORD PTR _szBuf$[ebp]
  000fd	50		 push	 eax
  000fe	68 00 00 00 00	 push	 OFFSET ??_C@_00CNPNBAHC@?$AA@
  00103	8d 45 e8	 lea	 eax, DWORD PTR __k$532460[ebp]
  00106	50		 push	 eax
  00107	ff d7		 call	 edi

; 55   : 	m_BlueSensor = szBuf;

  00109	8d 85 e0 fe ff
	ff		 lea	 eax, DWORD PTR _szBuf$[ebp]
  0010f	50		 push	 eax
  00110	8d 8e f0 08 00
	00		 lea	 ecx, DWORD PTR [esi+2288]
  00116	ff d3		 call	 ebx
  00118	6a 02		 push	 2

; 56   : 	rkLoader.LoadString_e( "boom_effect", "", szBuf, MAX_PATH );

  0011a	c7 45 e8 8f 83
	84 87		 mov	 DWORD PTR __k$532598[ebp], -2021358705 ; 8784838fH
  00121	c7 45 ec b2 89
	8d 8c		 mov	 DWORD PTR __k$532598[ebp+4], -1936881230 ; 8c8d89b2H
  00128	8d 45 e8	 lea	 eax, DWORD PTR __k$532598[ebp]
  0012b	c7 45 f0 88 8f
	9f 00		 mov	 DWORD PTR __k$532598[ebp+8], 10456968 ; 009f8f88H
  00132	59		 pop	 ecx
$LL318@LoadProper:
  00133	81 30 ed ec eb
	ea		 xor	 DWORD PTR [eax], -353637139 ; eaebecedH
  00139	83 c0 04	 add	 eax, 4
  0013c	49		 dec	 ecx
  0013d	75 f4		 jne	 SHORT $LL318@LoadProper
  0013f	6a 08		 push	 8
  00141	58		 pop	 eax
$LL315@LoadProper:
  00142	8b c8		 mov	 ecx, eax
  00144	81 e1 03 00 00
	80		 and	 ecx, -2147483645	; 80000003H
  0014a	79 05		 jns	 SHORT $LN665@LoadProper
  0014c	49		 dec	 ecx
  0014d	83 c9 fc	 or	 ecx, -4			; fffffffcH
  00150	41		 inc	 ecx
$LN665@LoadProper:
  00151	b2 ed		 mov	 dl, -19			; ffffffedH
  00153	2a d1		 sub	 dl, cl
  00155	30 54 05 e8	 xor	 BYTE PTR __k$532598[ebp+eax], dl
  00159	40		 inc	 eax
  0015a	83 f8 0b	 cmp	 eax, 11			; 0000000bH
  0015d	7c e3		 jl	 SHORT $LL315@LoadProper
  0015f	8b 8d dc fe ff
	ff		 mov	 ecx, DWORD PTR _rkLoader$GSCopy$[ebp]
  00165	68 04 01 00 00	 push	 260			; 00000104H
  0016a	8d 85 e0 fe ff
	ff		 lea	 eax, DWORD PTR _szBuf$[ebp]
  00170	50		 push	 eax
  00171	68 00 00 00 00	 push	 OFFSET ??_C@_00CNPNBAHC@?$AA@
  00176	8d 45 e8	 lea	 eax, DWORD PTR __k$532598[ebp]
  00179	50		 push	 eax
  0017a	ff d7		 call	 edi

; 57   : 	m_BoomEffect = szBuf;

  0017c	8d 85 e0 fe ff
	ff		 lea	 eax, DWORD PTR _szBuf$[ebp]
  00182	50		 push	 eax
  00183	8d 8e 00 09 00
	00		 lea	 ecx, DWORD PTR [esi+2304]
  00189	ff d3		 call	 ebx
  0018b	6a 03		 push	 3
  0018d	59		 pop	 ecx

; 58   : 
; 59   : 	m_fExplosionRange = rkLoader.LoadFloat_e( "explosion_range", 0.0f );

  0018e	c7 45 e4 88 94
	9b 86		 mov	 DWORD PTR __k$532723[ebp], -2036624248 ; 869b9488H
  00195	c7 45 e8 82 9f
	82 85		 mov	 DWORD PTR __k$532723[ebp+4], -2055037054 ; 85829f82H
  0019c	c7 45 ec 83 b3
	99 8b		 mov	 DWORD PTR __k$532723[ebp+8], -1952861309 ; 8b99b383H
  001a3	8d 45 e4	 lea	 eax, DWORD PTR __k$532723[ebp]
  001a6	c7 45 f0 83 8b
	8e 00		 mov	 DWORD PTR __k$532723[ebp+12], 9341827 ; 008e8b83H
  001ad	5b		 pop	 ebx
$LL424@LoadProper:
  001ae	81 30 ed ec eb
	ea		 xor	 DWORD PTR [eax], -353637139 ; eaebecedH
  001b4	83 c0 04	 add	 eax, 4
  001b7	49		 dec	 ecx
  001b8	75 f4		 jne	 SHORT $LL424@LoadProper
  001ba	6a 0c		 push	 12			; 0000000cH
  001bc	58		 pop	 eax
$LL421@LoadProper:
  001bd	8b c8		 mov	 ecx, eax
  001bf	81 e1 03 00 00
	80		 and	 ecx, -2147483645	; 80000003H
  001c5	79 05		 jns	 SHORT $LN666@LoadProper
  001c7	49		 dec	 ecx
  001c8	83 c9 fc	 or	 ecx, -4			; fffffffcH
  001cb	41		 inc	 ecx
$LN666@LoadProper:
  001cc	b2 ed		 mov	 dl, -19			; ffffffedH
  001ce	2a d1		 sub	 dl, cl
  001d0	30 54 05 e4	 xor	 BYTE PTR __k$532723[ebp+eax], dl
  001d4	40		 inc	 eax
  001d5	83 f8 0f	 cmp	 eax, 15			; 0000000fH
  001d8	7c e3		 jl	 SHORT $LL421@LoadProper
  001da	0f 57 c0	 xorps	 xmm0, xmm0
  001dd	51		 push	 ecx
  001de	8b 8d dc fe ff
	ff		 mov	 ecx, DWORD PTR _rkLoader$GSCopy$[ebp]
  001e4	8d 45 e4	 lea	 eax, DWORD PTR __k$532723[ebp]
  001e7	f3 0f 11 04 24	 movss	 DWORD PTR [esp], xmm0
  001ec	50		 push	 eax
  001ed	ff 15 00 00 00
	00		 call	 DWORD PTR __imp_?LoadFloat@ioINILoader@@QAEMPBDM@Z
  001f3	d9 9e 10 09 00
	00		 fstp	 DWORD PTR [esi+2320]
  001f9	6a 03		 push	 3

; 60   : 	m_fStartHeight = rkLoader.LoadFloat_e( "start_height", 0.0f );

  001fb	c7 45 e8 9e 98
	8a 98		 mov	 DWORD PTR __k$532848[ebp], -1735747426 ; 988a989eH
  00202	c7 45 ec 99 b3
	83 8f		 mov	 DWORD PTR __k$532848[ebp+4], -1887194215 ; 8f83b399H
  00209	c7 45 f0 84 8b
	83 9e		 mov	 DWORD PTR __k$532848[ebp+8], -1635546236 ; 9e838b84H
  00210	8d 45 e8	 lea	 eax, DWORD PTR __k$532848[ebp]
  00213	c6 45 f4 00	 mov	 BYTE PTR __k$532848[ebp+12], 0
  00217	59		 pop	 ecx
$LL530@LoadProper:
  00218	81 30 ed ec eb
	ea		 xor	 DWORD PTR [eax], -353637139 ; eaebecedH
  0021e	83 c0 04	 add	 eax, 4
  00221	49		 dec	 ecx
  00222	75 f4		 jne	 SHORT $LL530@LoadProper
  00224	0f 57 c0	 xorps	 xmm0, xmm0
  00227	51		 push	 ecx
  00228	8b 8d dc fe ff
	ff		 mov	 ecx, DWORD PTR _rkLoader$GSCopy$[ebp]
  0022e	8d 45 e8	 lea	 eax, DWORD PTR __k$532848[ebp]
  00231	f3 0f 11 04 24	 movss	 DWORD PTR [esp], xmm0
  00236	50		 push	 eax
  00237	ff 15 00 00 00
	00		 call	 DWORD PTR __imp_?LoadFloat@ioINILoader@@QAEMPBDM@Z
  0023d	d9 9e 14 09 00
	00		 fstp	 DWORD PTR [esi+2324]
  00243	6a 04		 push	 4

; 61   : 	m_bEffectOnlyTeam = rkLoader.LoadBool_e( "effect_only_team", false );

  00245	c7 45 e4 88 8a
	8d 8f		 mov	 DWORD PTR __k$532960[ebp], -1886549368 ; 8f8d8a88H
  0024c	c7 45 e8 8e 98
	b4 85		 mov	 DWORD PTR __k$532960[ebp+4], -2051762034 ; 85b4988eH
  00253	c7 45 ec 83 80
	92 b5		 mov	 DWORD PTR __k$532960[ebp+8], -1248690045 ; b5928083H
  0025a	c7 45 f0 99 89
	8a 87		 mov	 DWORD PTR __k$532960[ebp+12], -2020963943 ; 878a8999H
  00261	8d 45 e4	 lea	 eax, DWORD PTR __k$532960[ebp]
  00264	c6 45 f4 00	 mov	 BYTE PTR __k$532960[ebp+16], 0
  00268	59		 pop	 ecx
$LL636@LoadProper:
  00269	81 30 ed ec eb
	ea		 xor	 DWORD PTR [eax], -353637139 ; eaebecedH
  0026f	83 c0 04	 add	 eax, 4
  00272	49		 dec	 ecx
  00273	75 f4		 jne	 SHORT $LL636@LoadProper
  00275	51		 push	 ecx
  00276	8b 8d dc fe ff
	ff		 mov	 ecx, DWORD PTR _rkLoader$GSCopy$[ebp]
  0027c	8d 45 e4	 lea	 eax, DWORD PTR __k$532960[ebp]
  0027f	50		 push	 eax
  00280	ff 15 00 00 00
	00		 call	 DWORD PTR __imp_?LoadBool@ioINILoader@@QAE_NPBD_N@Z

; 62   : }

  00286	8b 4d fc	 mov	 ecx, DWORD PTR __$ArrayPad$[ebp]
  00289	5f		 pop	 edi
  0028a	88 86 28 09 00
	00		 mov	 BYTE PTR [esi+2344], al
  00290	33 cd		 xor	 ecx, ebp
  00292	5e		 pop	 esi
  00293	e8 00 00 00 00	 call	 @__security_check_cookie@4
  00298	c9		 leave
  00299	c2 04 00	 ret	 4
?LoadProperty@ioNuclearWeapon@@UAEXAAVioINILoader@@@Z ENDP ; ioNuclearWeapon::LoadProperty
; Function compile flags: /Ogsp
_TEXT	ENDS
;	COMDAT ?Process@ioNuclearWeapon@@UAEXMPAVioPlayStage@@@Z
_TEXT	SEGMENT
_fTimePerSec$ = 8					; size = 4
_pStage$ = 12						; size = 4
?Process@ioNuclearWeapon@@UAEXMPAVioPlayStage@@@Z PROC	; ioNuclearWeapon::Process, COMDAT
; _this$ = ecx

; 153  : {

  00000	55		 push	 ebp
  00001	8b ec		 mov	 ebp, esp

; 154  : 	switch( m_NuclearState )

  00003	8b 81 24 09 00
	00		 mov	 eax, DWORD PTR [ecx+2340]
  00009	83 e8 00	 sub	 eax, 0
  0000c	74 0a		 je	 SHORT $LN2@Process
  0000e	48		 dec	 eax
  0000f	75 1a		 jne	 SHORT $LN3@Process

; 158  : 		break;
; 159  : 	case NS_EXPLOSION:
; 160  : 		SetWeaponDead();

  00011	8b 01		 mov	 eax, DWORD PTR [ecx]
  00013	ff 50 4c	 call	 DWORD PTR [eax+76]

; 161  : 		break;

  00016	eb 13		 jmp	 SHORT $LN3@Process
$LN2@Process:

; 155  : 	{
; 156  : 	case NS_FALL:
; 157  : 		OnFalling( fTimePerSec, pStage );

  00018	ff 75 0c	 push	 DWORD PTR _pStage$[ebp]
  0001b	f3 0f 10 45 08	 movss	 xmm0, DWORD PTR _fTimePerSec$[ebp]
  00020	51		 push	 ecx
  00021	f3 0f 11 04 24	 movss	 DWORD PTR [esp], xmm0
  00026	e8 00 00 00 00	 call	 ?OnFalling@ioNuclearWeapon@@IAEXMPAVioPlayStage@@@Z ; ioNuclearWeapon::OnFalling
$LN3@Process:

; 162  : 	}
; 163  : }

  0002b	5d		 pop	 ebp
  0002c	c2 08 00	 ret	 8
?Process@ioNuclearWeapon@@UAEXMPAVioPlayStage@@@Z ENDP	; ioNuclearWeapon::Process
_TEXT	ENDS
PUBLIC	?GetTeam@ioPlayEntity@@QBE?AW4TeamType@@XZ	; ioPlayEntity::GetTeam
; Function compile flags: /Ogsp
; File d:\lost saga for developer\youtube\tutorial\source\src\lsclient\ioplayentity.h
;	COMDAT ?GetTeam@ioPlayEntity@@QBE?AW4TeamType@@XZ
_TEXT	SEGMENT
_value$533107 = -4					; size = 4
?GetTeam@ioPlayEntity@@QBE?AW4TeamType@@XZ PROC		; ioPlayEntity::GetTeam, COMDAT
; _this$ = ecx

; 107  : 	inline TeamType GetTeam() const { return m_TeamType; }

  00000	55		 push	 ebp
  00001	8b ec		 mov	 ebp, esp
  00003	51		 push	 ecx
  00004	8d 45 fc	 lea	 eax, DWORD PTR _value$533107[ebp]
  00007	50		 push	 eax
  00008	81 c1 90 00 00
	00		 add	 ecx, 144		; 00000090H
  0000e	e8 00 00 00 00	 call	 ?DecryptValueToPool@?$CEncrypt@W4TeamType@@@@QAEXPAW4TeamType@@@Z ; CEncrypt<enum TeamType>::DecryptValueToPool
  00013	8b 45 fc	 mov	 eax, DWORD PTR _value$533107[ebp]
  00016	c9		 leave
  00017	c3		 ret	 0
?GetTeam@ioPlayEntity@@QBE?AW4TeamType@@XZ ENDP		; ioPlayEntity::GetTeam
_TEXT	ENDS
PUBLIC	?GetTeam@ioWeapon@@QBE?AW4TeamType@@XZ		; ioWeapon::GetTeam
; Function compile flags: /Ogsp
; File d:\lost saga for developer\youtube\tutorial\source\src\lsclient\ioweapon.h
;	COMDAT ?GetTeam@ioWeapon@@QBE?AW4TeamType@@XZ
_TEXT	SEGMENT
_value$533114 = -4					; size = 4
?GetTeam@ioWeapon@@QBE?AW4TeamType@@XZ PROC		; ioWeapon::GetTeam, COMDAT
; _this$ = ecx

; 534  : 	inline TeamType GetTeam() const { return m_TeamType; }

  00000	55		 push	 ebp
  00001	8b ec		 mov	 ebp, esp
  00003	51		 push	 ecx
  00004	8d 45 fc	 lea	 eax, DWORD PTR _value$533114[ebp]
  00007	50		 push	 eax
  00008	83 c1 30	 add	 ecx, 48			; 00000030H
  0000b	e8 00 00 00 00	 call	 ?DecryptValueToPool@?$CEncrypt@W4TeamType@@@@QAEXPAW4TeamType@@@Z ; CEncrypt<enum TeamType>::DecryptValueToPool
  00010	8b 45 fc	 mov	 eax, DWORD PTR _value$533114[ebp]
  00013	c9		 leave
  00014	c3		 ret	 0
?GetTeam@ioWeapon@@QBE?AW4TeamType@@XZ ENDP		; ioWeapon::GetTeam
_TEXT	ENDS
PUBLIC	_pStage$GSCopy$
PUBLIC	_vPos$GSCopy$
EXTRN	?GetUniqueID@ioMapEffect@@QBEKXZ:PROC		; ioMapEffect::GetUniqueID
EXTRN	__imp_??4ioHashString@@QAEAAV0@ABV0@@Z:PROC
EXTRN	?GetSingleConvertTeam@ioBaseChar@@QAE?AW4TeamType@@XZ:PROC ; ioBaseChar::GetSingleConvertTeam
EXTRN	?GetOwnerChar@ioPlayStage@@QAEPAVioBaseChar@@XZ:PROC ; ioPlayStage::GetOwnerChar
EXTRN	?FindMapEffect@ioPlayStage@@QAEPAVioMapEffect@@K@Z:PROC ; ioPlayStage::FindMapEffect
EXTRN	?GetOwner@ioWeapon@@QBEPAVioBaseChar@@XZ:PROC	; ioWeapon::GetOwner
;	COMDAT xdata$x
; File c:\program files (x86)\microsoft directx sdk (june 2010)\include\d3dx9math.inl
xdata$x	SEGMENT
__unwindtable$?SetStartPosition@ioNuclearWeapon@@UAEXABUD3DXVECTOR3@@PAVioPlayStage@@@Z DD 0ffffffffH
	DD	FLAT:__unwindfunclet$?SetStartPosition@ioNuclearWeapon@@UAEXABUD3DXVECTOR3@@PAVioPlayStage@@@Z$0
__ehfuncinfo$?SetStartPosition@ioNuclearWeapon@@UAEXABUD3DXVECTOR3@@PAVioPlayStage@@@Z DD 019930522H
	DD	01H
	DD	FLAT:__unwindtable$?SetStartPosition@ioNuclearWeapon@@UAEXABUD3DXVECTOR3@@PAVioPlayStage@@@Z
	DD	2 DUP(00H)
	DD	2 DUP(00H)
	DD	00H
	DD	01H
; Function compile flags: /Ogsp
; File d:\lost saga for developer\youtube\tutorial\source\src\lsclient\ionuclearweapon.cpp
xdata$x	ENDS
;	COMDAT ?SetStartPosition@ioNuclearWeapon@@UAEXABUD3DXVECTOR3@@PAVioPlayStage@@@Z
_TEXT	SEGMENT
_szCurSensor$ = -68					; size = 16
_vPos$GSCopy$ = -52					; size = 4
_value$533129 = -52					; size = 4
_pStage$GSCopy$ = -48					; size = 4
tv445 = -44						; size = 4
tv442 = -44						; size = 4
tv439 = -44						; size = 4
_value$533166 = -44					; size = 4
_value$533154 = -44					; size = 4
_value$533142 = -44					; size = 4
_vNewPos$530608 = -40					; size = 12
_vScale$ = -28						; size = 12
__$EHRec$ = -12						; size = 12
_vPos$ = 8						; size = 4
_pStage$ = 12						; size = 4
?SetStartPosition@ioNuclearWeapon@@UAEXABUD3DXVECTOR3@@PAVioPlayStage@@@Z PROC ; ioNuclearWeapon::SetStartPosition, COMDAT
; _this$ = ecx

; 87   : {

  00000	6a 38		 push	 56			; 00000038H
  00002	b8 00 00 00 00	 mov	 eax, __ehhandler$?SetStartPosition@ioNuclearWeapon@@UAEXABUD3DXVECTOR3@@PAVioPlayStage@@@Z
  00007	e8 00 00 00 00	 call	 __EH_prolog3_GS
  0000c	8b 45 08	 mov	 eax, DWORD PTR _vPos$[ebp]
  0000f	8b d9		 mov	 ebx, ecx
  00011	8b 4d 0c	 mov	 ecx, DWORD PTR _pStage$[ebp]

; 147  : 	{
; 148  : 		m_SensorID = pEffect->GetUniqueID();

  00014	89 45 cc	 mov	 DWORD PTR _vPos$GSCopy$[ebp], eax
  00017	89 4d d0	 mov	 DWORD PTR _pStage$GSCopy$[ebp], ecx
  0001a	85 c9		 test	 ecx, ecx
  0001c	75 18		 jne	 SHORT $LN14@SetStartPo

; 88   : 	if( !pStage )
; 89   : 	{
; 90   : 		m_vStartPos = vPos;

  0001e	8b f0		 mov	 esi, eax
  00020	8d bb 18 09 00
	00		 lea	 edi, DWORD PTR [ebx+2328]
  00026	a5		 movsd
  00027	a5		 movsd

; 91   : 		SetPosition( vPos );

  00028	50		 push	 eax
  00029	8b cb		 mov	 ecx, ebx
  0002b	a5		 movsd
  0002c	e8 00 00 00 00	 call	 ?SetPosition@ioWeapon@@QAEXABUD3DXVECTOR3@@@Z ; ioWeapon::SetPosition

; 92   : 		return;

  00031	e9 fc 01 00 00	 jmp	 $LN15@SetStartPo
$LN14@SetStartPo:

; 93   : 	}
; 94   : 
; 95   : 	m_vStartPos.x = vPos.x;
; 96   : 	m_vStartPos.y = pStage->GetMapHeight( vPos.x, vPos.z, GetOwner() );

  00036	0f 57 c0	 xorps	 xmm0, xmm0
  00039	d9 00		 fld	 DWORD PTR [eax]
  0003b	6a 00		 push	 0
  0003d	51		 push	 ecx
  0003e	f3 0f 11 04 24	 movss	 DWORD PTR [esp], xmm0
  00043	8d b3 18 09 00
	00		 lea	 esi, DWORD PTR [ebx+2328]
  00049	6a 01		 push	 1
  0004b	d9 1e		 fstp	 DWORD PTR [esi]
  0004d	8b cb		 mov	 ecx, ebx
  0004f	e8 00 00 00 00	 call	 ?GetOwner@ioWeapon@@QBEPAVioBaseChar@@XZ ; ioWeapon::GetOwner
  00054	8b 7d cc	 mov	 edi, DWORD PTR _vPos$GSCopy$[ebp]
  00057	f3 0f 10 47 08	 movss	 xmm0, DWORD PTR [edi+8]
  0005c	50		 push	 eax
  0005d	51		 push	 ecx
  0005e	51		 push	 ecx
  0005f	8b 4d d0	 mov	 ecx, DWORD PTR _pStage$GSCopy$[ebp]
  00062	f3 0f 11 44 24
	04		 movss	 DWORD PTR [esp+4], xmm0
  00068	f3 0f 10 07	 movss	 xmm0, DWORD PTR [edi]
  0006c	f3 0f 11 04 24	 movss	 DWORD PTR [esp], xmm0
  00071	e8 00 00 00 00	 call	 ?GetMapHeight@ioPlayStage@@QAEMMMPBVioGameEntity@@_NM1@Z ; ioPlayStage::GetMapHeight
  00076	d9 9b 1c 09 00
	00		 fstp	 DWORD PTR [ebx+2332]

; 97   : 	m_vStartPos.z =	vPos.z;

  0007c	d9 47 08	 fld	 DWORD PTR [edi+8]

; 98   : 
; 99   : 	SetPosition( m_vStartPos );

  0007f	56		 push	 esi
  00080	8b cb		 mov	 ecx, ebx
  00082	d9 9b 20 09 00
	00		 fstp	 DWORD PTR [ebx+2336]
  00088	e8 00 00 00 00	 call	 ?SetPosition@ioWeapon@@QAEXABUD3DXVECTOR3@@@Z ; ioWeapon::SetPosition

; 100  : 
; 101  : 	if( m_pNuclear )

  0008d	8b 83 94 08 00
	00		 mov	 eax, DWORD PTR [ebx+2196]
  00093	85 c0		 test	 eax, eax
  00095	74 39		 je	 SHORT $LN13@SetStartPo

; 102  : 	{
; 103  : 		D3DXVECTOR3 vNewPos = m_vStartPos;
; 104  : 		vNewPos.y += m_fStartHeight;

  00097	f3 0f 10 83 14
	09 00 00	 movss	 xmm0, DWORD PTR [ebx+2324]
  0009f	8d 7d d8	 lea	 edi, DWORD PTR _vNewPos$530608[ebp]
  000a2	a5		 movsd
  000a3	a5		 movsd
  000a4	a5		 movsd
  000a5	f3 0f 10 4d dc	 movss	 xmm1, DWORD PTR _vNewPos$530608[ebp+4]
  000aa	0f 5a c0	 cvtps2pd xmm0, xmm0
  000ad	0f 5a c9	 cvtps2pd xmm1, xmm1
  000b0	f2 0f 58 c1	 addsd	 xmm0, xmm1
  000b4	66 0f 5a c0	 cvtpd2ps xmm0, xmm0

; 105  : 		m_pNuclear->GetParentSceneNode()->SetPosition( vNewPos );

  000b8	8d 48 14	 lea	 ecx, DWORD PTR [eax+20]
  000bb	f3 0f 11 45 dc	 movss	 DWORD PTR _vNewPos$530608[ebp+4], xmm0
  000c0	8b 01		 mov	 eax, DWORD PTR [ecx]
  000c2	ff 50 34	 call	 DWORD PTR [eax+52]
  000c5	8b 10		 mov	 edx, DWORD PTR [eax]
  000c7	8d 4d d8	 lea	 ecx, DWORD PTR _vNewPos$530608[ebp]
  000ca	51		 push	 ecx
  000cb	8b c8		 mov	 ecx, eax
  000cd	ff 52 14	 call	 DWORD PTR [edx+20]
$LN13@SetStartPo:

; 106  : 	}
; 107  : 
; 108  : 	ioBaseChar *pOwner = GetOwner();

  000d0	8b cb		 mov	 ecx, ebx
  000d2	e8 00 00 00 00	 call	 ?GetOwner@ioWeapon@@QBEPAVioBaseChar@@XZ ; ioWeapon::GetOwner
  000d7	8b f8		 mov	 edi, eax

; 109  : 	if( !pOwner ) return;

  000d9	85 ff		 test	 edi, edi
  000db	0f 84 51 01 00
	00		 je	 $LN15@SetStartPo

; 110  : 
; 111  : 	if( m_SensorID != -1 )

  000e1	8b 83 98 08 00
	00		 mov	 eax, DWORD PTR [ebx+2200]
  000e7	83 f8 ff	 cmp	 eax, -1
  000ea	74 22		 je	 SHORT $LN10@SetStartPo

; 112  : 	{
; 113  : 		ioMapEffect *pEffect = pStage->FindMapEffect( m_SensorID );

  000ec	8b 4d d0	 mov	 ecx, DWORD PTR _pStage$GSCopy$[ebp]
  000ef	50		 push	 eax
  000f0	e8 00 00 00 00	 call	 ?FindMapEffect@ioPlayStage@@QAEPAVioMapEffect@@K@Z ; ioPlayStage::FindMapEffect

; 114  : 		if( pEffect )

  000f5	85 c0		 test	 eax, eax
  000f7	74 15		 je	 SHORT $LN10@SetStartPo

; 115  : 		{
; 116  : 			pStage->DestroyMapEffect( m_SensorID );

  000f9	ff b3 98 08 00
	00		 push	 DWORD PTR [ebx+2200]
  000ff	8b 4d d0	 mov	 ecx, DWORD PTR _pStage$GSCopy$[ebp]
  00102	e8 00 00 00 00	 call	 ?DestroyMapEffect@ioPlayStage@@QAEXK@Z ; ioPlayStage::DestroyMapEffect

; 117  : 			m_SensorID = -1;

  00107	83 8b 98 08 00
	00 ff		 or	 DWORD PTR [ebx+2200], -1
$LN10@SetStartPo:

; 118  : 		}
; 119  : 	}
; 120  : 
; 121  : 	if ( m_bEffectOnlyTeam )

  0010e	80 bb 28 09 00
	00 00		 cmp	 BYTE PTR [ebx+2344], 0
  00115	74 34		 je	 SHORT $LN8@SetStartPo

; 122  : 	{
; 123  : 		ioBaseChar *pPlayer = pStage->GetOwnerChar();

  00117	8b 4d d0	 mov	 ecx, DWORD PTR _pStage$GSCopy$[ebp]
  0011a	e8 00 00 00 00	 call	 ?GetOwnerChar@ioPlayStage@@QAEPAVioBaseChar@@XZ ; ioPlayStage::GetOwnerChar
  0011f	8b f0		 mov	 esi, eax

; 124  : 		if ( pOwner->GetTeam() != pPlayer->GetTeam() )

  00121	8d 45 cc	 lea	 eax, DWORD PTR _value$533129[ebp]
  00124	8d 8f 90 00 00
	00		 lea	 ecx, DWORD PTR [edi+144]
  0012a	50		 push	 eax
  0012b	e8 00 00 00 00	 call	 ?DecryptValueToPool@?$CEncrypt@W4TeamType@@@@QAEXPAW4TeamType@@@Z ; CEncrypt<enum TeamType>::DecryptValueToPool
  00130	8d 45 d4	 lea	 eax, DWORD PTR _value$533142[ebp]
  00133	8d 8e 90 00 00
	00		 lea	 ecx, DWORD PTR [esi+144]
  00139	50		 push	 eax
  0013a	e8 00 00 00 00	 call	 ?DecryptValueToPool@?$CEncrypt@W4TeamType@@@@QAEXPAW4TeamType@@@Z ; CEncrypt<enum TeamType>::DecryptValueToPool
  0013f	8b 45 cc	 mov	 eax, DWORD PTR _value$533129[ebp]
  00142	3b 45 d4	 cmp	 eax, DWORD PTR _value$533142[ebp]
  00145	0f 85 e7 00 00
	00		 jne	 $LN15@SetStartPo
$LN8@SetStartPo:

; 125  : 			return;
; 126  : 	}
; 127  : 
; 128  : 	// Set Sensor Effect
; 129  : 	ioHashString szCurSensor;

  0014b	8d 4d bc	 lea	 ecx, DWORD PTR _szCurSensor$[ebp]
  0014e	ff 15 00 00 00
	00		 call	 DWORD PTR __imp_??0ioHashString@@QAE@XZ
  00154	83 65 fc 00	 and	 DWORD PTR __$EHRec$[ebp+8], 0

; 130  : 
; 131  : 	if( GetTeam() == TEAM_BLUE )

  00158	8d 45 d4	 lea	 eax, DWORD PTR _value$533154[ebp]
  0015b	50		 push	 eax
  0015c	8d 4b 30	 lea	 ecx, DWORD PTR [ebx+48]
  0015f	e8 00 00 00 00	 call	 ?DecryptValueToPool@?$CEncrypt@W4TeamType@@@@QAEXPAW4TeamType@@@Z ; CEncrypt<enum TeamType>::DecryptValueToPool
  00164	83 7d d4 02	 cmp	 DWORD PTR _value$533154[ebp], 2
  00168	75 08		 jne	 SHORT $LN7@SetStartPo

; 132  : 		szCurSensor = m_BlueSensor;

  0016a	8d 83 f0 08 00
	00		 lea	 eax, DWORD PTR [ebx+2288]
  00170	eb 35		 jmp	 SHORT $LN47@SetStartPo
$LN7@SetStartPo:

; 133  : 	else if( GetTeam() == TEAM_RED )

  00172	8d 45 d4	 lea	 eax, DWORD PTR _value$533166[ebp]
  00175	50		 push	 eax
  00176	8d 4b 30	 lea	 ecx, DWORD PTR [ebx+48]
  00179	e8 00 00 00 00	 call	 ?DecryptValueToPool@?$CEncrypt@W4TeamType@@@@QAEXPAW4TeamType@@@Z ; CEncrypt<enum TeamType>::DecryptValueToPool
  0017e	83 7d d4 01	 cmp	 DWORD PTR _value$533166[ebp], 1

; 134  : 		szCurSensor = m_RedSensor;
; 135  : 	else //

  00182	74 1d		 je	 SHORT $LN3@SetStartPo

; 136  : 	{
; 137  : 		ioBaseChar *pOwner = GetOwner();

  00184	8b cb		 mov	 ecx, ebx
  00186	e8 00 00 00 00	 call	 ?GetOwner@ioWeapon@@QBEPAVioBaseChar@@XZ ; ioWeapon::GetOwner

; 138  : 		if( pOwner && pOwner->GetSingleConvertTeam() == TEAM_BLUE )

  0018b	85 c0		 test	 eax, eax
  0018d	74 12		 je	 SHORT $LN3@SetStartPo
  0018f	8b c8		 mov	 ecx, eax
  00191	e8 00 00 00 00	 call	 ?GetSingleConvertTeam@ioBaseChar@@QAE?AW4TeamType@@XZ ; ioBaseChar::GetSingleConvertTeam
  00196	83 f8 02	 cmp	 eax, 2

; 139  : 			szCurSensor = m_BlueSensor;

  00199	8d 83 f0 08 00
	00		 lea	 eax, DWORD PTR [ebx+2288]
  0019f	74 06		 je	 SHORT $LN47@SetStartPo
$LN3@SetStartPo:

; 140  : 		else
; 141  : 			szCurSensor = m_RedSensor;

  001a1	8d 83 e0 08 00
	00		 lea	 eax, DWORD PTR [ebx+2272]
$LN47@SetStartPo:
  001a7	50		 push	 eax
  001a8	8d 4d bc	 lea	 ecx, DWORD PTR _szCurSensor$[ebp]
  001ab	ff 15 00 00 00
	00		 call	 DWORD PTR __imp_??4ioHashString@@QAEAAV0@ABV0@@Z

; 142  : 	}
; 143  : 
; 144  : 	D3DXVECTOR3 vScale(FLOAT1, FLOAT1, FLOAT1 );

  001b1	b8 01 00 00 00	 mov	 eax, 1
  001b6	8b c8		 mov	 ecx, eax
  001b8	b8 01 00 00 00	 mov	 eax, 1
  001bd	8b d0		 mov	 edx, eax
  001bf	b8 01 00 00 00	 mov	 eax, 1
  001c4	89 45 d4	 mov	 DWORD PTR tv445[ebp], eax
  001c7	db 45 d4	 fild	 DWORD PTR tv445[ebp]
  001ca	85 c0		 test	 eax, eax
  001cc	79 06		 jns	 SHORT $LN44@SetStartPo
  001ce	d8 05 00 00 00
	00		 fadd	 DWORD PTR __real@4f800000
$LN44@SetStartPo:
  001d4	d9 5d e4	 fstp	 DWORD PTR _vScale$[ebp]
  001d7	89 55 d4	 mov	 DWORD PTR tv442[ebp], edx
  001da	db 45 d4	 fild	 DWORD PTR tv442[ebp]
  001dd	85 d2		 test	 edx, edx
  001df	79 06		 jns	 SHORT $LN45@SetStartPo
  001e1	d8 05 00 00 00
	00		 fadd	 DWORD PTR __real@4f800000
$LN45@SetStartPo:
  001e7	d9 5d e8	 fstp	 DWORD PTR _vScale$[ebp+4]
  001ea	89 4d d4	 mov	 DWORD PTR tv439[ebp], ecx
  001ed	db 45 d4	 fild	 DWORD PTR tv439[ebp]
  001f0	85 c9		 test	 ecx, ecx
  001f2	79 06		 jns	 SHORT $LN46@SetStartPo
  001f4	d8 05 00 00 00
	00		 fadd	 DWORD PTR __real@4f800000
$LN46@SetStartPo:

; 145  : 	ioMapEffect *pEffect = pStage->CreateMapEffect( szCurSensor, m_vStartPos, vScale );

  001fa	8b 4d d0	 mov	 ecx, DWORD PTR _pStage$GSCopy$[ebp]
  001fd	d9 5d ec	 fstp	 DWORD PTR _vScale$[ebp+8]
  00200	8d 45 e4	 lea	 eax, DWORD PTR _vScale$[ebp]
  00203	50		 push	 eax
  00204	8d 83 18 09 00
	00		 lea	 eax, DWORD PTR [ebx+2328]
  0020a	50		 push	 eax
  0020b	8d 45 bc	 lea	 eax, DWORD PTR _szCurSensor$[ebp]
  0020e	50		 push	 eax
  0020f	e8 00 00 00 00	 call	 ?CreateMapEffect@ioPlayStage@@QAEPAVioMapEffect@@ABVioHashString@@ABUD3DXVECTOR3@@1@Z ; ioPlayStage::CreateMapEffect

; 146  : 	if( pEffect )

  00214	85 c0		 test	 eax, eax
  00216	74 0d		 je	 SHORT $LN1@SetStartPo

; 147  : 	{
; 148  : 		m_SensorID = pEffect->GetUniqueID();

  00218	8b c8		 mov	 ecx, eax
  0021a	e8 00 00 00 00	 call	 ?GetUniqueID@ioMapEffect@@QBEKXZ ; ioMapEffect::GetUniqueID
  0021f	89 83 98 08 00
	00		 mov	 DWORD PTR [ebx+2200], eax
$LN1@SetStartPo:

; 149  : 	}
; 150  : }

  00225	83 4d fc ff	 or	 DWORD PTR __$EHRec$[ebp+8], -1
  00229	8d 4d bc	 lea	 ecx, DWORD PTR _szCurSensor$[ebp]
  0022c	ff 15 00 00 00
	00		 call	 DWORD PTR __imp_??1ioHashString@@QAE@XZ
$LN15@SetStartPo:
  00232	e8 00 00 00 00	 call	 __EH_epilog3_GS
  00237	c2 08 00	 ret	 8
_TEXT	ENDS
;	COMDAT text$x
text$x	SEGMENT
__unwindfunclet$?SetStartPosition@ioNuclearWeapon@@UAEXABUD3DXVECTOR3@@PAVioPlayStage@@@Z$0:
  00000	8d 4d bc	 lea	 ecx, DWORD PTR _szCurSensor$[ebp]
  00003	ff 25 00 00 00
	00		 jmp	 DWORD PTR __imp_??1ioHashString@@QAE@XZ
__ehhandler$?SetStartPosition@ioNuclearWeapon@@UAEXABUD3DXVECTOR3@@PAVioPlayStage@@@Z:
  00009	8b 54 24 08	 mov	 edx, DWORD PTR [esp+8]
  0000d	8d 42 0c	 lea	 eax, DWORD PTR [edx+12]
  00010	8b 4a b8	 mov	 ecx, DWORD PTR [edx-72]
  00013	33 c8		 xor	 ecx, eax
  00015	e8 00 00 00 00	 call	 @__security_check_cookie@4
  0001a	8b 4a fc	 mov	 ecx, DWORD PTR [edx-4]
  0001d	33 c8		 xor	 ecx, eax
  0001f	e8 00 00 00 00	 call	 @__security_check_cookie@4
  00024	b8 00 00 00 00	 mov	 eax, OFFSET __ehfuncinfo$?SetStartPosition@ioNuclearWeapon@@UAEXABUD3DXVECTOR3@@PAVioPlayStage@@@Z
  00029	e9 00 00 00 00	 jmp	 ___CxxFrameHandler3
text$x	ENDS
?SetStartPosition@ioNuclearWeapon@@UAEXABUD3DXVECTOR3@@PAVioPlayStage@@@Z ENDP ; ioNuclearWeapon::SetStartPosition
EXTRN	?AddWeaponExplosionEffect@ioPlayStage@@QAEXPAVioPlayEntity@@PAVioWeapon@@W4ApplyWeaponExp@@@Z:PROC ; ioPlayStage::AddWeaponExplosionEffect
EXTRN	?GetPiercingType@ioWeapon@@QBE?AW4CharPiercingType@@XZ:PROC ; ioWeapon::GetPiercingType
EXTRN	__imp_??8ioHashString@@QBE_NABV0@@Z:PROC
; Function compile flags: /Ogsp
;	COMDAT ?CheckPreCollision@ioNuclearWeapon@@UAEXPAVioPlayEntity@@PAVioPlayStage@@@Z
_TEXT	SEGMENT
_value$533222 = -4					; size = 4
_value$533209 = 8					; size = 4
_pTarget$ = 8						; size = 4
_pStage$ = 12						; size = 4
?CheckPreCollision@ioNuclearWeapon@@UAEXPAVioPlayEntity@@PAVioPlayStage@@@Z PROC ; ioNuclearWeapon::CheckPreCollision, COMDAT
; _this$ = ecx

; 325  : {

  00000	55		 push	 ebp
  00001	8b ec		 mov	 ebp, esp
  00003	51		 push	 ecx
  00004	57		 push	 edi
  00005	8b f9		 mov	 edi, ecx

; 326  : 	if( m_NuclearState != NS_FALL )

  00007	33 c0		 xor	 eax, eax
  00009	39 87 24 09 00
	00		 cmp	 DWORD PTR [edi+2340], eax
  0000f	0f 85 d9 00 00
	00		 jne	 $LN11@CheckPreCo

; 327  : 		return;
; 328  : 
; 329  : 	bool bCollision = false;
; 330  : 	if( pTarget->IsWoundedCollision( GetWorldAttackBox() ) )

  00015	53		 push	 ebx
  00016	56		 push	 esi
  00017	8b 75 08	 mov	 esi, DWORD PTR _pTarget$[ebp]
  0001a	8b 1e		 mov	 ebx, DWORD PTR [esi]
  0001c	50		 push	 eax
  0001d	50		 push	 eax
  0001e	e8 00 00 00 00	 call	 ?GetWorldAttackBox@ioWeapon@@QBEABVioOrientBox@@_N@Z ; ioWeapon::GetWorldAttackBox
  00023	50		 push	 eax
  00024	8b ce		 mov	 ecx, esi
  00026	ff 93 90 00 00
	00		 call	 DWORD PTR [ebx+144]
  0002c	84 c0		 test	 al, al
  0002e	0f 84 b8 00 00
	00		 je	 $LN26@CheckPreCo

; 331  : 	{
; 332  : 		ioBaseChar *pChar = ToBaseChar( pTarget );

  00034	56		 push	 esi
  00035	e8 00 00 00 00	 call	 ?ToBaseChar@@YAPAVioBaseChar@@PAVioGameEntity@@@Z ; ToBaseChar
  0003a	8b d8		 mov	 ebx, eax
  0003c	59		 pop	 ecx

; 333  : 		if( pChar )

  0003d	85 db		 test	 ebx, ebx
  0003f	74 37		 je	 SHORT $LN8@CheckPreCo

; 334  : 		{
; 335  : 			if( GetTeam() != pTarget->GetTeam() )

  00041	8d 45 08	 lea	 eax, DWORD PTR _value$533209[ebp]
  00044	50		 push	 eax
  00045	8d 4f 30	 lea	 ecx, DWORD PTR [edi+48]
  00048	e8 00 00 00 00	 call	 ?DecryptValueToPool@?$CEncrypt@W4TeamType@@@@QAEXPAW4TeamType@@@Z ; CEncrypt<enum TeamType>::DecryptValueToPool
  0004d	8d 45 fc	 lea	 eax, DWORD PTR _value$533222[ebp]
  00050	50		 push	 eax
  00051	8d 8e 90 00 00
	00		 lea	 ecx, DWORD PTR [esi+144]
  00057	e8 00 00 00 00	 call	 ?DecryptValueToPool@?$CEncrypt@W4TeamType@@@@QAEXPAW4TeamType@@@Z ; CEncrypt<enum TeamType>::DecryptValueToPool
  0005c	8b 45 08	 mov	 eax, DWORD PTR _value$533209[ebp]
  0005f	3b 45 fc	 cmp	 eax, DWORD PTR _value$533222[ebp]

; 336  : 				bCollision = true;
; 337  : 			else if( pChar->GetCharName() == GetOwnerName() )

  00062	75 14		 jne	 SHORT $LN8@CheckPreCo
  00064	8d 47 10	 lea	 eax, DWORD PTR [edi+16]
  00067	50		 push	 eax
  00068	8d 8b d4 02 00
	00		 lea	 ecx, DWORD PTR [ebx+724]
  0006e	ff 15 00 00 00
	00		 call	 DWORD PTR __imp_??8ioHashString@@QBE_NABV0@@Z
  00074	84 c0		 test	 al, al
  00076	74 74		 je	 SHORT $LN26@CheckPreCo
$LN8@CheckPreCo:

; 338  : 				bCollision = true;
; 339  : 		}
; 340  : 		else
; 341  : 			bCollision = true;
; 342  : 	}
; 343  : 		
; 344  : 	if( !bCollision )
; 345  : 		return;
; 346  : 
; 347  : 	if( ToSymbolStruct(pTarget) || ToPushStruct(pTarget) || ToBallStruct(pTarget) ||
; 348  : 		ToDummyChar(pTarget) || ToWallZone(pTarget) ||
; 349  : 		GetPiercingType() == CPT_NONE )

  00078	56		 push	 esi
  00079	e8 00 00 00 00	 call	 ?ToSymbolStruct@@YAPAVioSymbolStruct@@PAVioGameEntity@@@Z ; ToSymbolStruct
  0007e	59		 pop	 ecx
  0007f	85 c0		 test	 eax, eax
  00081	75 5f		 jne	 SHORT $LN1@CheckPreCo
  00083	56		 push	 esi
  00084	e8 00 00 00 00	 call	 ?ToPushStruct@@YAPAVioPushStruct@@PAVioGameEntity@@@Z ; ToPushStruct
  00089	59		 pop	 ecx
  0008a	85 c0		 test	 eax, eax
  0008c	75 54		 jne	 SHORT $LN1@CheckPreCo
  0008e	56		 push	 esi
  0008f	e8 00 00 00 00	 call	 ?ToBallStruct@@YAPAVioBall@@PAVioGameEntity@@@Z ; ToBallStruct
  00094	59		 pop	 ecx
  00095	85 c0		 test	 eax, eax
  00097	75 49		 jne	 SHORT $LN1@CheckPreCo
  00099	56		 push	 esi
  0009a	e8 00 00 00 00	 call	 ?ToDummyChar@@YAPAVioDummyChar@@PAVioGameEntity@@@Z ; ToDummyChar
  0009f	59		 pop	 ecx
  000a0	85 c0		 test	 eax, eax
  000a2	75 3e		 jne	 SHORT $LN1@CheckPreCo
  000a4	56		 push	 esi
  000a5	e8 00 00 00 00	 call	 ?ToWallZone@@YAPAVioWallZone@@PAVioGameEntity@@@Z ; ToWallZone
  000aa	59		 pop	 ecx
  000ab	85 c0		 test	 eax, eax
  000ad	75 33		 jne	 SHORT $LN1@CheckPreCo
  000af	8b cf		 mov	 ecx, edi
  000b1	e8 00 00 00 00	 call	 ?GetPiercingType@ioWeapon@@QBE?AW4CharPiercingType@@XZ ; ioWeapon::GetPiercingType
  000b6	85 c0		 test	 eax, eax
  000b8	74 28		 je	 SHORT $LN1@CheckPreCo

; 352  : 		return;
; 353  : 	}
; 354  : 
; 355  : 	CheckCurAttribute( pTarget );

  000ba	8b 07		 mov	 eax, DWORD PTR [edi]
  000bc	56		 push	 esi
  000bd	8b cf		 mov	 ecx, edi
  000bf	ff 90 f0 00 00
	00		 call	 DWORD PTR [eax+240]

; 356  : 
; 357  : 	ApplyWeaponExp eExplosionType = pTarget->ApplyWeapon( this );

  000c5	8b 06		 mov	 eax, DWORD PTR [esi]
  000c7	57		 push	 edi
  000c8	8b ce		 mov	 ecx, esi
  000ca	ff 50 7c	 call	 DWORD PTR [eax+124]

; 358  : 	pStage->AddWeaponExplosionEffect( pTarget, this, eExplosionType );

  000cd	8b 4d 0c	 mov	 ecx, DWORD PTR _pStage$[ebp]
  000d0	50		 push	 eax
  000d1	57		 push	 edi
  000d2	56		 push	 esi
  000d3	e8 00 00 00 00	 call	 ?AddWeaponExplosionEffect@ioPlayStage@@QAEXPAVioPlayEntity@@PAVioWeapon@@W4ApplyWeaponExp@@@Z ; ioPlayStage::AddWeaponExplosionEffect

; 359  : 
; 360  : 	AddCollisionEntity( pTarget );

  000d8	8b 07		 mov	 eax, DWORD PTR [edi]
  000da	56		 push	 esi
  000db	8b cf		 mov	 ecx, edi
  000dd	ff 50 04	 call	 DWORD PTR [eax+4]
  000e0	eb 0a		 jmp	 SHORT $LN26@CheckPreCo
$LN1@CheckPreCo:

; 350  : 	{
; 351  : 		Explosion( pStage );

  000e2	ff 75 0c	 push	 DWORD PTR _pStage$[ebp]
  000e5	8b cf		 mov	 ecx, edi
  000e7	e8 00 00 00 00	 call	 ?Explosion@ioNuclearWeapon@@QAEXPAVioPlayStage@@@Z ; ioNuclearWeapon::Explosion
$LN26@CheckPreCo:
  000ec	5e		 pop	 esi
  000ed	5b		 pop	 ebx
$LN11@CheckPreCo:
  000ee	5f		 pop	 edi

; 361  : }

  000ef	c9		 leave
  000f0	c2 08 00	 ret	 8
?CheckPreCollision@ioNuclearWeapon@@UAEXPAVioPlayEntity@@PAVioPlayStage@@@Z ENDP ; ioNuclearWeapon::CheckPreCollision
_TEXT	ENDS
END
