; Listing generated by Microsoft (R) Optimizing Compiler Version 16.00.30319.01 

	TITLE	D:\Lost Saga For Developer\Youtube\Tutorial\Source\src\LSClient\ioObjectChargeShotItem.cpp
	.686P
	.XMM
	include listing.inc
	.model	flat

INCLUDELIB MSVCRT
INCLUDELIB OLDNAMES

PUBLIC	?_EEM_DS@?$deque@UD3DXVECTOR3@@V?$allocator@UD3DXVECTOR3@@@std@@@std@@2HB ; std::deque<D3DXVECTOR3,std::allocator<D3DXVECTOR3> >::_EEM_DS
;	COMDAT ?_EEM_DS@?$deque@UD3DXVECTOR3@@V?$allocator@UD3DXVECTOR3@@@std@@@std@@2HB
CONST	SEGMENT
?_EEM_DS@?$deque@UD3DXVECTOR3@@V?$allocator@UD3DXVECTOR3@@@std@@@std@@2HB DD 01H ; std::deque<D3DXVECTOR3,std::allocator<D3DXVECTOR3> >::_EEM_DS
CONST	ENDS
PUBLIC	?return1@@YAIXZ					; return1
; Function compile flags: /Ogsp
; File d:\lost saga for developer\youtube\tutorial\source\src\lsclient\stdafx.h
;	COMDAT ?return1@@YAIXZ
_TEXT	SEGMENT
?return1@@YAIXZ PROC					; return1, COMDAT

; 17   : 	__forceinline unsigned int return1() { __asm mov eax, 1 };

  00000	b8 01 00 00 00	 mov	 eax, 1
  00005	c3		 ret	 0
?return1@@YAIXZ ENDP					; return1
_TEXT	ENDS
PUBLIC	?return100@@YAIXZ				; return100
; Function compile flags: /Ogsp
;	COMDAT ?return100@@YAIXZ
_TEXT	SEGMENT
?return100@@YAIXZ PROC					; return100, COMDAT

; 25   : 	__forceinline unsigned int return100() { __asm mov eax, 100 };

  00000	b8 64 00 00 00	 mov	 eax, 100		; 00000064H
  00005	c3		 ret	 0
?return100@@YAIXZ ENDP					; return100
_TEXT	ENDS
PUBLIC	?return360@@YAIXZ				; return360
; Function compile flags: /Ogsp
;	COMDAT ?return360@@YAIXZ
_TEXT	SEGMENT
?return360@@YAIXZ PROC					; return360, COMDAT

; 27   : 	__forceinline unsigned int return360() { __asm mov eax, 360 };

  00000	b8 68 01 00 00	 mov	 eax, 360		; 00000168H
  00005	c3		 ret	 0
?return360@@YAIXZ ENDP					; return360
_TEXT	ENDS
PUBLIC	?return1000@@YAIXZ				; return1000
; Function compile flags: /Ogsp
;	COMDAT ?return1000@@YAIXZ
_TEXT	SEGMENT
?return1000@@YAIXZ PROC					; return1000, COMDAT

; 29   : 	__forceinline unsigned int return1000() { __asm mov eax, 1000 };

  00000	b8 e8 03 00 00	 mov	 eax, 1000		; 000003e8H
  00005	c3		 ret	 0
?return1000@@YAIXZ ENDP					; return1000
_TEXT	ENDS
PUBLIC	_fabsf
EXTRN	__fltused:DWORD
; Function compile flags: /Ogsp
; File c:\program files (x86)\microsoft visual studio 10.0\vc\include\math.h
;	COMDAT _fabsf
_TEXT	SEGMENT
tv129 = 8						; size = 4
__X$ = 8						; size = 4
_fabsf	PROC						; COMDAT

; 395  :         {return ((float)fabs((double)_X)); }

  00000	55		 push	 ebp
  00001	8b ec		 mov	 ebp, esp
  00003	d9 45 08	 fld	 DWORD PTR __X$[ebp]
  00006	d9 e1		 fabs
  00008	d9 5d 08	 fstp	 DWORD PTR tv129[ebp]
  0000b	d9 45 08	 fld	 DWORD PTR tv129[ebp]
  0000e	5d		 pop	 ebp
  0000f	c3		 ret	 0
_fabsf	ENDP
_TEXT	ENDS
PUBLIC	_sqrtf
EXTRN	__CIsqrt:PROC
; Function compile flags: /Ogsp
;	COMDAT _sqrtf
_TEXT	SEGMENT
tv69 = 8						; size = 4
__X$ = 8						; size = 4
_sqrtf	PROC						; COMDAT

; 434  :         {return ((float)sqrt((double)_X)); }

  00000	55		 push	 ebp
  00001	8b ec		 mov	 ebp, esp
  00003	d9 45 08	 fld	 DWORD PTR __X$[ebp]
  00006	e8 00 00 00 00	 call	 __CIsqrt
  0000b	d9 5d 08	 fstp	 DWORD PTR tv69[ebp]
  0000e	d9 45 08	 fld	 DWORD PTR tv69[ebp]
  00011	5d		 pop	 ebp
  00012	c3		 ret	 0
_sqrtf	ENDP
_TEXT	ENDS
PUBLIC	?GetMoveDir@ioBaseChar@@QBEABUD3DXVECTOR3@@XZ	; ioBaseChar::GetMoveDir
; Function compile flags: /Ogsp
; File d:\lost saga for developer\youtube\tutorial\source\src\lsclient\iobasechar.h
;	COMDAT ?GetMoveDir@ioBaseChar@@QBEABUD3DXVECTOR3@@XZ
_TEXT	SEGMENT
?GetMoveDir@ioBaseChar@@QBEABUD3DXVECTOR3@@XZ PROC	; ioBaseChar::GetMoveDir, COMDAT
; _this$ = ecx

; 2596 : 	inline const D3DXVECTOR3& GetMoveDir() const { return m_vMoveDir; }

  00000	8d 81 b4 06 00
	00		 lea	 eax, DWORD PTR [ecx+1716]
  00006	c3		 ret	 0
?GetMoveDir@ioBaseChar@@QBEABUD3DXVECTOR3@@XZ ENDP	; ioBaseChar::GetMoveDir
_TEXT	ENDS
PUBLIC	?GetTargetRot@ioBaseChar@@QBEABUD3DXQUATERNION@@XZ ; ioBaseChar::GetTargetRot
; Function compile flags: /Ogsp
;	COMDAT ?GetTargetRot@ioBaseChar@@QBEABUD3DXQUATERNION@@XZ
_TEXT	SEGMENT
?GetTargetRot@ioBaseChar@@QBEABUD3DXQUATERNION@@XZ PROC	; ioBaseChar::GetTargetRot, COMDAT
; _this$ = ecx

; 2599 : 	inline const D3DXQUATERNION& GetTargetRot() const { return m_qtTargetRot; }

  00000	8d 81 a4 06 00
	00		 lea	 eax, DWORD PTR [ecx+1700]
  00006	c3		 ret	 0
?GetTargetRot@ioBaseChar@@QBEABUD3DXQUATERNION@@XZ ENDP	; ioBaseChar::GetTargetRot
_TEXT	ENDS
PUBLIC	?fabs@@YAMM@Z					; fabs
; Function compile flags: /Ogsp
; File c:\program files (x86)\microsoft visual studio 10.0\vc\include\math.h
;	COMDAT ?fabs@@YAMM@Z
_TEXT	SEGMENT
tv131 = 8						; size = 4
__X$ = 8						; size = 4
?fabs@@YAMM@Z PROC					; fabs, COMDAT

; 518  :         {return (fabsf(_X)); }

  00000	55		 push	 ebp
  00001	8b ec		 mov	 ebp, esp
  00003	d9 45 08	 fld	 DWORD PTR __X$[ebp]
  00006	d9 e1		 fabs
  00008	d9 5d 08	 fstp	 DWORD PTR tv131[ebp]
  0000b	d9 45 08	 fld	 DWORD PTR tv131[ebp]
  0000e	5d		 pop	 ebp
  0000f	c3		 ret	 0
?fabs@@YAMM@Z ENDP					; fabs
_TEXT	ENDS
PUBLIC	?SetChargingState@ioBaseChar@@QAEX_N@Z		; ioBaseChar::SetChargingState
; Function compile flags: /Ogsp
; File d:\lost saga for developer\youtube\tutorial\source\src\lsclient\iobasechar.h
;	COMDAT ?SetChargingState@ioBaseChar@@QAEX_N@Z
_TEXT	SEGMENT
_bState$ = 8						; size = 1
?SetChargingState@ioBaseChar@@QAEX_N@Z PROC		; ioBaseChar::SetChargingState, COMDAT
; _this$ = ecx

; 2937 : 	inline void SetChargingState( bool bState ) { m_bChargingState = bState; }

  00000	55		 push	 ebp
  00001	8b ec		 mov	 ebp, esp
  00003	8a 45 08	 mov	 al, BYTE PTR _bState$[ebp]
  00006	88 81 54 20 00
	00		 mov	 BYTE PTR [ecx+8276], al
  0000c	5d		 pop	 ebp
  0000d	c2 04 00	 ret	 4
?SetChargingState@ioBaseChar@@QAEX_N@Z ENDP		; ioBaseChar::SetChargingState
_TEXT	ENDS
PUBLIC	?GetCreator@ioBaseChar@@QAEPAVioPlayStage@@XZ	; ioBaseChar::GetCreator
; Function compile flags: /Ogsp
;	COMDAT ?GetCreator@ioBaseChar@@QAEPAVioPlayStage@@XZ
_TEXT	SEGMENT
?GetCreator@ioBaseChar@@QAEPAVioPlayStage@@XZ PROC	; ioBaseChar::GetCreator, COMDAT
; _this$ = ecx

; 4013 : 	inline ioPlayStage* GetCreator() { return m_pCreator; }

  00000	8b 81 44 03 00
	00		 mov	 eax, DWORD PTR [ecx+836]
  00006	c3		 ret	 0
?GetCreator@ioBaseChar@@QAEPAVioPlayStage@@XZ ENDP	; ioBaseChar::GetCreator
_TEXT	ENDS
PUBLIC	??_R0?AVioWeapon@@@8				; ioWeapon `RTTI Type Descriptor'
PUBLIC	??_R0?AVioFloatThrowWeapon@@@8			; ioFloatThrowWeapon `RTTI Type Descriptor'
PUBLIC	?ToFloatThrowWeapon@@YAPAVioFloatThrowWeapon@@PAVioWeapon@@@Z ; ToFloatThrowWeapon
EXTRN	___RTDynamicCast:PROC
EXTRN	??_7type_info@@6B@:QWORD			; type_info::`vftable'
;	COMDAT ??_R0?AVioWeapon@@@8
; File d:\lost saga for developer\youtube\tutorial\source\src\lsclient\iofloatthrowweapon.h
_DATA	SEGMENT
??_R0?AVioWeapon@@@8 DD FLAT:??_7type_info@@6B@		; ioWeapon `RTTI Type Descriptor'
	DD	00H
	DB	'.?AVioWeapon@@', 00H
_DATA	ENDS
;	COMDAT ??_R0?AVioFloatThrowWeapon@@@8
_DATA	SEGMENT
??_R0?AVioFloatThrowWeapon@@@8 DD FLAT:??_7type_info@@6B@ ; ioFloatThrowWeapon `RTTI Type Descriptor'
	DD	00H
	DB	'.?AVioFloatThrowWeapon@@', 00H
; Function compile flags: /Ogsp
_DATA	ENDS
;	COMDAT ?ToFloatThrowWeapon@@YAPAVioFloatThrowWeapon@@PAVioWeapon@@@Z
_TEXT	SEGMENT
_pWeapon$ = 8						; size = 4
?ToFloatThrowWeapon@@YAPAVioFloatThrowWeapon@@PAVioWeapon@@@Z PROC ; ToFloatThrowWeapon, COMDAT

; 85   : {

  00000	55		 push	 ebp
  00001	8b ec		 mov	 ebp, esp
  00003	56		 push	 esi

; 86   : 	if( !pWeapon || pWeapon->GetType() != ioWeapon::WT_FLOAT_THROW )

  00004	8b 75 08	 mov	 esi, DWORD PTR _pWeapon$[ebp]
  00007	85 f6		 test	 esi, esi
  00009	74 28		 je	 SHORT $LN1@ToFloatThr
  0000b	8b 06		 mov	 eax, DWORD PTR [esi]
  0000d	8b ce		 mov	 ecx, esi
  0000f	ff 90 10 01 00
	00		 call	 DWORD PTR [eax+272]
  00015	83 f8 0e	 cmp	 eax, 14			; 0000000eH
  00018	75 19		 jne	 SHORT $LN1@ToFloatThr

; 88   : 
; 89   : 	return dynamic_cast< ioFloatThrowWeapon* >( pWeapon );

  0001a	6a 00		 push	 0
  0001c	68 00 00 00 00	 push	 OFFSET ??_R0?AVioFloatThrowWeapon@@@8
  00021	68 00 00 00 00	 push	 OFFSET ??_R0?AVioWeapon@@@8
  00026	6a 00		 push	 0
  00028	56		 push	 esi
  00029	e8 00 00 00 00	 call	 ___RTDynamicCast
  0002e	83 c4 14	 add	 esp, 20			; 00000014H
  00031	eb 02		 jmp	 SHORT $LN3@ToFloatThr
$LN1@ToFloatThr:

; 87   : 		return NULL;

  00033	33 c0		 xor	 eax, eax
$LN3@ToFloatThr:
  00035	5e		 pop	 esi

; 90   : }

  00036	5d		 pop	 ebp
  00037	c3		 ret	 0
?ToFloatThrowWeapon@@YAPAVioFloatThrowWeapon@@PAVioWeapon@@@Z ENDP ; ToFloatThrowWeapon
_TEXT	ENDS
PUBLIC	??0D3DXVECTOR3@@QAE@XZ				; D3DXVECTOR3::D3DXVECTOR3
; Function compile flags: /Ogsp
; File c:\program files (x86)\microsoft directx sdk (june 2010)\include\d3dx9math.h
;	COMDAT ??0D3DXVECTOR3@@QAE@XZ
_TEXT	SEGMENT
??0D3DXVECTOR3@@QAE@XZ PROC				; D3DXVECTOR3::D3DXVECTOR3, COMDAT
; _this$ = ecx

; 165  :     D3DXVECTOR3() {};

  00000	8b c1		 mov	 eax, ecx
  00002	c3		 ret	 0
??0D3DXVECTOR3@@QAE@XZ ENDP				; D3DXVECTOR3::D3DXVECTOR3
_TEXT	ENDS
PUBLIC	??0D3DXQUATERNION@@QAE@XZ			; D3DXQUATERNION::D3DXQUATERNION
; Function compile flags: /Ogsp
;	COMDAT ??0D3DXQUATERNION@@QAE@XZ
_TEXT	SEGMENT
??0D3DXQUATERNION@@QAE@XZ PROC				; D3DXQUATERNION::D3DXQUATERNION, COMDAT
; _this$ = ecx

; 429  :     D3DXQUATERNION() {}

  00000	8b c1		 mov	 eax, ecx
  00002	c3		 ret	 0
??0D3DXQUATERNION@@QAE@XZ ENDP				; D3DXQUATERNION::D3DXQUATERNION
_TEXT	ENDS
PUBLIC	??0D3DXVECTOR3@@QAE@MMM@Z			; D3DXVECTOR3::D3DXVECTOR3
; Function compile flags: /Ogsp
; File c:\program files (x86)\microsoft directx sdk (june 2010)\include\d3dx9math.inl
;	COMDAT ??0D3DXVECTOR3@@QAE@MMM@Z
_TEXT	SEGMENT
_fx$ = 8						; size = 4
_fy$ = 12						; size = 4
_fz$ = 16						; size = 4
??0D3DXVECTOR3@@QAE@MMM@Z PROC				; D3DXVECTOR3::D3DXVECTOR3, COMDAT
; _this$ = ecx

; 303  : {

  00000	55		 push	 ebp
  00001	8b ec		 mov	 ebp, esp

; 304  :     x = fx;

  00003	f3 0f 10 45 08	 movss	 xmm0, DWORD PTR _fx$[ebp]
  00008	8b c1		 mov	 eax, ecx
  0000a	f3 0f 11 00	 movss	 DWORD PTR [eax], xmm0

; 305  :     y = fy;

  0000e	f3 0f 10 45 0c	 movss	 xmm0, DWORD PTR _fy$[ebp]
  00013	f3 0f 11 40 04	 movss	 DWORD PTR [eax+4], xmm0

; 306  :     z = fz;

  00018	f3 0f 10 45 10	 movss	 xmm0, DWORD PTR _fz$[ebp]
  0001d	f3 0f 11 40 08	 movss	 DWORD PTR [eax+8], xmm0

; 307  : }

  00022	5d		 pop	 ebp
  00023	c2 0c 00	 ret	 12			; 0000000cH
??0D3DXVECTOR3@@QAE@MMM@Z ENDP				; D3DXVECTOR3::D3DXVECTOR3
_TEXT	ENDS
PUBLIC	??YD3DXVECTOR3@@QAEAAU0@ABU0@@Z			; D3DXVECTOR3::operator+=
; Function compile flags: /Ogsp
;	COMDAT ??YD3DXVECTOR3@@QAEAAU0@ABU0@@Z
_TEXT	SEGMENT
_v$ = 8							; size = 4
??YD3DXVECTOR3@@QAEAAU0@ABU0@@Z PROC			; D3DXVECTOR3::operator+=, COMDAT
; _this$ = ecx

; 327  : {

  00000	55		 push	 ebp
  00001	8b ec		 mov	 ebp, esp
  00003	8b c1		 mov	 eax, ecx

; 328  :     x += v.x;

  00005	8b 4d 08	 mov	 ecx, DWORD PTR _v$[ebp]
  00008	f3 0f 10 01	 movss	 xmm0, DWORD PTR [ecx]
  0000c	f3 0f 10 08	 movss	 xmm1, DWORD PTR [eax]
  00010	0f 5a c0	 cvtps2pd xmm0, xmm0
  00013	0f 5a c9	 cvtps2pd xmm1, xmm1
  00016	f2 0f 58 c1	 addsd	 xmm0, xmm1

; 329  :     y += v.y;

  0001a	f3 0f 10 48 04	 movss	 xmm1, DWORD PTR [eax+4]
  0001f	66 0f 5a c0	 cvtpd2ps xmm0, xmm0
  00023	f3 0f 11 00	 movss	 DWORD PTR [eax], xmm0
  00027	f3 0f 10 41 04	 movss	 xmm0, DWORD PTR [ecx+4]
  0002c	0f 5a c0	 cvtps2pd xmm0, xmm0
  0002f	0f 5a c9	 cvtps2pd xmm1, xmm1
  00032	f2 0f 58 c1	 addsd	 xmm0, xmm1

; 330  :     z += v.z;

  00036	f3 0f 10 48 08	 movss	 xmm1, DWORD PTR [eax+8]
  0003b	66 0f 5a c0	 cvtpd2ps xmm0, xmm0
  0003f	f3 0f 11 40 04	 movss	 DWORD PTR [eax+4], xmm0
  00044	f3 0f 10 41 08	 movss	 xmm0, DWORD PTR [ecx+8]
  00049	0f 5a c0	 cvtps2pd xmm0, xmm0
  0004c	0f 5a c9	 cvtps2pd xmm1, xmm1
  0004f	f2 0f 58 c1	 addsd	 xmm0, xmm1
  00053	66 0f 5a c0	 cvtpd2ps xmm0, xmm0
  00057	f3 0f 11 40 08	 movss	 DWORD PTR [eax+8], xmm0

; 331  :     return *this;
; 332  : }

  0005c	5d		 pop	 ebp
  0005d	c2 04 00	 ret	 4
??YD3DXVECTOR3@@QAEAAU0@ABU0@@Z ENDP			; D3DXVECTOR3::operator+=
_TEXT	ENDS
PUBLIC	__mask@@NegFloat@
PUBLIC	??GD3DXVECTOR3@@QBE?AU0@XZ			; D3DXVECTOR3::operator-
;	COMDAT __mask@@NegFloat@
CONST	SEGMENT
__mask@@NegFloat@ DB 00H, 00H, 00H, 080H, 00H, 00H, 00H, 080H, 00H, 00H, 00H
	DB	080H, 00H, 00H, 00H, 080H
; Function compile flags: /Ogsp
CONST	ENDS
;	COMDAT ??GD3DXVECTOR3@@QBE?AU0@XZ
_TEXT	SEGMENT
___$ReturnUdt$ = 8					; size = 4
??GD3DXVECTOR3@@QBE?AU0@XZ PROC				; D3DXVECTOR3::operator-, COMDAT
; _this$ = ecx

; 372  : {

  00000	55		 push	 ebp
  00001	8b ec		 mov	 ebp, esp

; 373  :     return D3DXVECTOR3(-x, -y, -z);

  00003	f3 0f 10 05 00
	00 00 00	 movss	 xmm0, DWORD PTR __mask@@NegFloat@
  0000b	8b 45 08	 mov	 eax, DWORD PTR ___$ReturnUdt$[ebp]
  0000e	f3 0f 10 09	 movss	 xmm1, DWORD PTR [ecx]
  00012	0f 57 c8	 xorps	 xmm1, xmm0
  00015	f3 0f 11 08	 movss	 DWORD PTR [eax], xmm1
  00019	f3 0f 10 49 04	 movss	 xmm1, DWORD PTR [ecx+4]
  0001e	0f 57 c8	 xorps	 xmm1, xmm0
  00021	f3 0f 11 48 04	 movss	 DWORD PTR [eax+4], xmm1
  00026	f3 0f 10 49 08	 movss	 xmm1, DWORD PTR [ecx+8]
  0002b	0f 57 c8	 xorps	 xmm1, xmm0
  0002e	f3 0f 11 48 08	 movss	 DWORD PTR [eax+8], xmm1

; 374  : }

  00033	5d		 pop	 ebp
  00034	c2 04 00	 ret	 4
??GD3DXVECTOR3@@QBE?AU0@XZ ENDP				; D3DXVECTOR3::operator-
_TEXT	ENDS
PUBLIC	??GD3DXVECTOR3@@QBE?AU0@ABU0@@Z			; D3DXVECTOR3::operator-
; Function compile flags: /Ogsp
;	COMDAT ??GD3DXVECTOR3@@QBE?AU0@ABU0@@Z
_TEXT	SEGMENT
___$ReturnUdt$ = 8					; size = 4
_v$ = 12						; size = 4
??GD3DXVECTOR3@@QBE?AU0@ABU0@@Z PROC			; D3DXVECTOR3::operator-, COMDAT
; _this$ = ecx

; 386  : {

  00000	55		 push	 ebp
  00001	8b ec		 mov	 ebp, esp

; 387  :     return D3DXVECTOR3(x - v.x, y - v.y, z - v.z);

  00003	8b 55 0c	 mov	 edx, DWORD PTR _v$[ebp]
  00006	f3 0f 10 01	 movss	 xmm0, DWORD PTR [ecx]
  0000a	f3 0f 10 0a	 movss	 xmm1, DWORD PTR [edx]
  0000e	8b 45 08	 mov	 eax, DWORD PTR ___$ReturnUdt$[ebp]
  00011	0f 5a c0	 cvtps2pd xmm0, xmm0
  00014	0f 5a c9	 cvtps2pd xmm1, xmm1
  00017	f2 0f 5c c1	 subsd	 xmm0, xmm1
  0001b	f3 0f 10 4a 04	 movss	 xmm1, DWORD PTR [edx+4]
  00020	66 0f 5a c0	 cvtpd2ps xmm0, xmm0
  00024	f3 0f 11 00	 movss	 DWORD PTR [eax], xmm0
  00028	f3 0f 10 41 04	 movss	 xmm0, DWORD PTR [ecx+4]
  0002d	0f 5a c0	 cvtps2pd xmm0, xmm0
  00030	0f 5a c9	 cvtps2pd xmm1, xmm1
  00033	f2 0f 5c c1	 subsd	 xmm0, xmm1
  00037	f3 0f 10 4a 08	 movss	 xmm1, DWORD PTR [edx+8]
  0003c	66 0f 5a c0	 cvtpd2ps xmm0, xmm0
  00040	f3 0f 11 40 04	 movss	 DWORD PTR [eax+4], xmm0
  00045	f3 0f 10 41 08	 movss	 xmm0, DWORD PTR [ecx+8]
  0004a	0f 5a c0	 cvtps2pd xmm0, xmm0
  0004d	0f 5a c9	 cvtps2pd xmm1, xmm1
  00050	f2 0f 5c c1	 subsd	 xmm0, xmm1
  00054	66 0f 5a c0	 cvtpd2ps xmm0, xmm0
  00058	f3 0f 11 40 08	 movss	 DWORD PTR [eax+8], xmm0

; 388  : }

  0005d	5d		 pop	 ebp
  0005e	c2 08 00	 ret	 8
??GD3DXVECTOR3@@QBE?AU0@ABU0@@Z ENDP			; D3DXVECTOR3::operator-
_TEXT	ENDS
PUBLIC	??DD3DXVECTOR3@@QBE?AU0@M@Z			; D3DXVECTOR3::operator*
; Function compile flags: /Ogsp
;	COMDAT ??DD3DXVECTOR3@@QBE?AU0@M@Z
_TEXT	SEGMENT
___$ReturnUdt$ = 8					; size = 4
_f$ = 12						; size = 4
??DD3DXVECTOR3@@QBE?AU0@M@Z PROC			; D3DXVECTOR3::operator*, COMDAT
; _this$ = ecx

; 392  : {

  00000	55		 push	 ebp
  00001	8b ec		 mov	 ebp, esp

; 393  :     return D3DXVECTOR3(x * f, y * f, z * f);

  00003	f3 0f 10 4d 0c	 movss	 xmm1, DWORD PTR _f$[ebp]
  00008	f3 0f 10 01	 movss	 xmm0, DWORD PTR [ecx]
  0000c	8b 45 08	 mov	 eax, DWORD PTR ___$ReturnUdt$[ebp]
  0000f	0f 5a c0	 cvtps2pd xmm0, xmm0
  00012	0f 5a c9	 cvtps2pd xmm1, xmm1
  00015	f2 0f 59 c1	 mulsd	 xmm0, xmm1
  00019	f3 0f 10 4d 0c	 movss	 xmm1, DWORD PTR _f$[ebp]
  0001e	66 0f 5a c0	 cvtpd2ps xmm0, xmm0
  00022	f3 0f 11 00	 movss	 DWORD PTR [eax], xmm0
  00026	f3 0f 10 41 04	 movss	 xmm0, DWORD PTR [ecx+4]
  0002b	0f 5a c0	 cvtps2pd xmm0, xmm0
  0002e	0f 5a c9	 cvtps2pd xmm1, xmm1
  00031	f2 0f 59 c1	 mulsd	 xmm0, xmm1
  00035	f3 0f 10 4d 0c	 movss	 xmm1, DWORD PTR _f$[ebp]
  0003a	66 0f 5a c0	 cvtpd2ps xmm0, xmm0
  0003e	f3 0f 11 40 04	 movss	 DWORD PTR [eax+4], xmm0
  00043	f3 0f 10 41 08	 movss	 xmm0, DWORD PTR [ecx+8]
  00048	0f 5a c0	 cvtps2pd xmm0, xmm0
  0004b	0f 5a c9	 cvtps2pd xmm1, xmm1
  0004e	f2 0f 59 c1	 mulsd	 xmm0, xmm1
  00052	66 0f 5a c0	 cvtpd2ps xmm0, xmm0
  00056	f3 0f 11 40 08	 movss	 DWORD PTR [eax+8], xmm0

; 394  : }

  0005b	5d		 pop	 ebp
  0005c	c2 08 00	 ret	 8
??DD3DXVECTOR3@@QBE?AU0@M@Z ENDP			; D3DXVECTOR3::operator*
_TEXT	ENDS
PUBLIC	??8D3DXVECTOR3@@QBEHABU0@@Z			; D3DXVECTOR3::operator==
; Function compile flags: /Ogsp
;	COMDAT ??8D3DXVECTOR3@@QBEHABU0@@Z
_TEXT	SEGMENT
_v$ = 8							; size = 4
??8D3DXVECTOR3@@QBEHABU0@@Z PROC			; D3DXVECTOR3::operator==, COMDAT
; _this$ = ecx

; 413  : {

  00000	55		 push	 ebp
  00001	8b ec		 mov	 ebp, esp

; 414  :     return x == v.x && y == v.y && z == v.z;

  00003	8b 55 08	 mov	 edx, DWORD PTR _v$[ebp]
  00006	f3 0f 10 01	 movss	 xmm0, DWORD PTR [ecx]
  0000a	f3 0f 10 0a	 movss	 xmm1, DWORD PTR [edx]
  0000e	0f 5a c0	 cvtps2pd xmm0, xmm0
  00011	0f 5a c9	 cvtps2pd xmm1, xmm1
  00014	66 0f 2e c1	 ucomisd xmm0, xmm1
  00018	9f		 lahf
  00019	f6 c4 44	 test	 ah, 68			; 00000044H
  0001c	7a 39		 jp	 SHORT $LN3@operator
  0001e	f3 0f 10 41 04	 movss	 xmm0, DWORD PTR [ecx+4]
  00023	f3 0f 10 4a 04	 movss	 xmm1, DWORD PTR [edx+4]
  00028	0f 5a c0	 cvtps2pd xmm0, xmm0
  0002b	0f 5a c9	 cvtps2pd xmm1, xmm1
  0002e	66 0f 2e c1	 ucomisd xmm0, xmm1
  00032	9f		 lahf
  00033	f6 c4 44	 test	 ah, 68			; 00000044H
  00036	7a 1f		 jp	 SHORT $LN3@operator
  00038	f3 0f 10 41 08	 movss	 xmm0, DWORD PTR [ecx+8]
  0003d	f3 0f 10 4a 08	 movss	 xmm1, DWORD PTR [edx+8]
  00042	0f 5a c0	 cvtps2pd xmm0, xmm0
  00045	0f 5a c9	 cvtps2pd xmm1, xmm1
  00048	66 0f 2e c1	 ucomisd xmm0, xmm1
  0004c	9f		 lahf
  0004d	f6 c4 44	 test	 ah, 68			; 00000044H
  00050	7a 05		 jp	 SHORT $LN3@operator
  00052	33 c0		 xor	 eax, eax
  00054	40		 inc	 eax
  00055	eb 02		 jmp	 SHORT $LN4@operator
$LN3@operator:
  00057	33 c0		 xor	 eax, eax
$LN4@operator:

; 415  : }

  00059	5d		 pop	 ebp
  0005a	c2 04 00	 ret	 4
??8D3DXVECTOR3@@QBEHABU0@@Z ENDP			; D3DXVECTOR3::operator==
_TEXT	ENDS
PUBLIC	?D3DXVec3Length@@YAMPBUD3DXVECTOR3@@@Z		; D3DXVec3Length
; Function compile flags: /Ogsp
;	COMDAT ?D3DXVec3Length@@YAMPBUD3DXVECTOR3@@@Z
_TEXT	SEGMENT
tv169 = 8						; size = 4
tv160 = 8						; size = 4
_pV$ = 8						; size = 4
?D3DXVec3Length@@YAMPBUD3DXVECTOR3@@@Z PROC		; D3DXVec3Length, COMDAT

; 1710 : {

  00000	55		 push	 ebp
  00001	8b ec		 mov	 ebp, esp

; 1711 : #ifdef D3DX_DEBUG
; 1712 :     if(!pV)
; 1713 :         return 0.0f;
; 1714 : #endif
; 1715 : 
; 1716 : #ifdef __cplusplus
; 1717 :     return sqrtf(pV->x * pV->x + pV->y * pV->y + pV->z * pV->z);

  00003	8b 45 08	 mov	 eax, DWORD PTR _pV$[ebp]
  00006	d9 40 04	 fld	 DWORD PTR [eax+4]
  00009	d9 00		 fld	 DWORD PTR [eax]
  0000b	d9 40 08	 fld	 DWORD PTR [eax+8]
  0000e	d9 c1		 fld	 ST(1)
  00010	de ca		 fmulp	 ST(2), ST(0)
  00012	d9 c2		 fld	 ST(2)
  00014	de cb		 fmulp	 ST(3), ST(0)
  00016	d9 c9		 fxch	 ST(1)
  00018	de c2		 faddp	 ST(2), ST(0)
  0001a	d9 c0		 fld	 ST(0)
  0001c	de c9		 fmulp	 ST(1), ST(0)
  0001e	de c1		 faddp	 ST(1), ST(0)
  00020	d9 5d 08	 fstp	 DWORD PTR tv169[ebp]
  00023	d9 45 08	 fld	 DWORD PTR tv169[ebp]
  00026	e8 00 00 00 00	 call	 __CIsqrt
  0002b	d9 5d 08	 fstp	 DWORD PTR tv160[ebp]
  0002e	d9 45 08	 fld	 DWORD PTR tv160[ebp]

; 1718 : #else
; 1719 :     return (FLOAT) sqrt(pV->x * pV->x + pV->y * pV->y + pV->z * pV->z);
; 1720 : #endif
; 1721 : }

  00031	5d		 pop	 ebp
  00032	c3		 ret	 0
?D3DXVec3Length@@YAMPBUD3DXVECTOR3@@@Z ENDP		; D3DXVec3Length
_TEXT	ENDS
PUBLIC	?D3DXVec3Dot@@YAMPBUD3DXVECTOR3@@0@Z		; D3DXVec3Dot
; Function compile flags: /Ogsp
;	COMDAT ?D3DXVec3Dot@@YAMPBUD3DXVECTOR3@@0@Z
_TEXT	SEGMENT
tv188 = 8						; size = 4
_pV1$ = 8						; size = 4
_pV2$ = 12						; size = 4
?D3DXVec3Dot@@YAMPBUD3DXVECTOR3@@0@Z PROC		; D3DXVec3Dot, COMDAT

; 1736 : {

  00000	55		 push	 ebp
  00001	8b ec		 mov	 ebp, esp

; 1737 : #ifdef D3DX_DEBUG
; 1738 :     if(!pV1 || !pV2)
; 1739 :         return 0.0f;
; 1740 : #endif
; 1741 : 
; 1742 :     return pV1->x * pV2->x + pV1->y * pV2->y + pV1->z * pV2->z;

  00003	8b 45 08	 mov	 eax, DWORD PTR _pV1$[ebp]
  00006	8b 4d 0c	 mov	 ecx, DWORD PTR _pV2$[ebp]
  00009	d9 40 04	 fld	 DWORD PTR [eax+4]
  0000c	d8 49 04	 fmul	 DWORD PTR [ecx+4]
  0000f	d9 00		 fld	 DWORD PTR [eax]
  00011	d8 09		 fmul	 DWORD PTR [ecx]
  00013	de c1		 faddp	 ST(1), ST(0)
  00015	d9 40 08	 fld	 DWORD PTR [eax+8]
  00018	d8 49 08	 fmul	 DWORD PTR [ecx+8]
  0001b	de c1		 faddp	 ST(1), ST(0)
  0001d	d9 5d 08	 fstp	 DWORD PTR tv188[ebp]
  00020	d9 45 08	 fld	 DWORD PTR tv188[ebp]

; 1743 : }

  00023	5d		 pop	 ebp
  00024	c3		 ret	 0
?D3DXVec3Dot@@YAMPBUD3DXVECTOR3@@0@Z ENDP		; D3DXVec3Dot
_TEXT	ENDS
PUBLIC	?GetObjectSubType@ioObjectChargeShotItem@@UBE?AW4ObjectSubType@ioObjectItem@@XZ ; ioObjectChargeShotItem::GetObjectSubType
; Function compile flags: /Ogsp
; File d:\lost saga for developer\youtube\tutorial\source\src\lsclient\ioobjectchargeshotitem.cpp
;	COMDAT ?GetObjectSubType@ioObjectChargeShotItem@@UBE?AW4ObjectSubType@ioObjectItem@@XZ
_TEXT	SEGMENT
?GetObjectSubType@ioObjectChargeShotItem@@UBE?AW4ObjectSubType@ioObjectItem@@XZ PROC ; ioObjectChargeShotItem::GetObjectSubType, COMDAT
; _this$ = ecx

; 151  : 	return OST_CHARGE_SHOT;

  00000	6a 09		 push	 9
  00002	58		 pop	 eax

; 152  : }

  00003	c3		 ret	 0
?GetObjectSubType@ioObjectChargeShotItem@@UBE?AW4ObjectSubType@ioObjectItem@@XZ ENDP ; ioObjectChargeShotItem::GetObjectSubType
_TEXT	ENDS
PUBLIC	?EnableReduceGaugeOnSwitchBuff@ioObjectChargeShotItem@@UAE_NXZ ; ioObjectChargeShotItem::EnableReduceGaugeOnSwitchBuff
; Function compile flags: /Ogsp
;	COMDAT ?EnableReduceGaugeOnSwitchBuff@ioObjectChargeShotItem@@UAE_NXZ
_TEXT	SEGMENT
?EnableReduceGaugeOnSwitchBuff@ioObjectChargeShotItem@@UAE_NXZ PROC ; ioObjectChargeShotItem::EnableReduceGaugeOnSwitchBuff, COMDAT
; _this$ = ecx

; 310  : 	if( m_dwAttackStartTime == 0 )

  00000	83 b9 b8 1c 00
	00 00		 cmp	 DWORD PTR [ecx+7352], 0
  00007	0f 95 c0	 setne	 al

; 311  : 		return false;
; 312  : 
; 313  : 	return true;
; 314  : }

  0000a	c3		 ret	 0
?EnableReduceGaugeOnSwitchBuff@ioObjectChargeShotItem@@UAE_NXZ ENDP ; ioObjectChargeShotItem::EnableReduceGaugeOnSwitchBuff
_TEXT	ENDS
PUBLIC	?IsOneTimeWeaponItem@ioObjectChargeShotItem@@UBE_NXZ ; ioObjectChargeShotItem::IsOneTimeWeaponItem
; Function compile flags: /Ogsp
;	COMDAT ?IsOneTimeWeaponItem@ioObjectChargeShotItem@@UBE_NXZ
_TEXT	SEGMENT
?IsOneTimeWeaponItem@ioObjectChargeShotItem@@UBE_NXZ PROC ; ioObjectChargeShotItem::IsOneTimeWeaponItem, COMDAT
; _this$ = ecx

; 318  : 	return false;

  00000	32 c0		 xor	 al, al

; 319  : }

  00002	c3		 ret	 0
?IsOneTimeWeaponItem@ioObjectChargeShotItem@@UBE_NXZ ENDP ; ioObjectChargeShotItem::IsOneTimeWeaponItem
_TEXT	ENDS
PUBLIC	?IsEnableDash@ioObjectChargeShotItem@@UBE_NXZ	; ioObjectChargeShotItem::IsEnableDash
; Function compile flags: /Ogsp
;	COMDAT ?IsEnableDash@ioObjectChargeShotItem@@UBE_NXZ
_TEXT	SEGMENT
?IsEnableDash@ioObjectChargeShotItem@@UBE_NXZ PROC	; ioObjectChargeShotItem::IsEnableDash, COMDAT
; _this$ = ecx

; 323  : 	return true;

  00000	b0 01		 mov	 al, 1

; 324  : }

  00002	c3		 ret	 0
?IsEnableDash@ioObjectChargeShotItem@@UBE_NXZ ENDP	; ioObjectChargeShotItem::IsEnableDash
_TEXT	ENDS
PUBLIC	?OnReleased@ioObjectChargeShotItem@@UAEXPAVioBaseChar@@@Z ; ioObjectChargeShotItem::OnReleased
EXTRN	?DestroyMapEffect@ioPlayStage@@QAEXK@Z:PROC	; ioPlayStage::DestroyMapEffect
EXTRN	?OnReleased@ioObjectItem@@UAEXPAVioBaseChar@@@Z:PROC ; ioObjectItem::OnReleased
; Function compile flags: /Ogsp
;	COMDAT ?OnReleased@ioObjectChargeShotItem@@UAEXPAVioBaseChar@@@Z
_TEXT	SEGMENT
_pOwner$ = 8						; size = 4
?OnReleased@ioObjectChargeShotItem@@UAEXPAVioBaseChar@@@Z PROC ; ioObjectChargeShotItem::OnReleased, COMDAT
; _this$ = ecx

; 332  : {

  00000	55		 push	 ebp
  00001	8b ec		 mov	 ebp, esp
  00003	56		 push	 esi
  00004	57		 push	 edi

; 333  : 	ioObjectItem::OnReleased( pOwner );

  00005	8b 7d 08	 mov	 edi, DWORD PTR _pOwner$[ebp]
  00008	57		 push	 edi
  00009	8b f1		 mov	 esi, ecx
  0000b	e8 00 00 00 00	 call	 ?OnReleased@ioObjectItem@@UAEXPAVioBaseChar@@@Z ; ioObjectItem::OnReleased

; 334  : 
; 335  : 	ioPlayStage *pStage = pOwner->GetCreator();

  00010	8b 8f 44 03 00
	00		 mov	 ecx, DWORD PTR [edi+836]

; 336  : 	if( pStage && m_dwMarkEffectID != -1 )

  00016	85 c9		 test	 ecx, ecx
  00018	74 18		 je	 SHORT $LN1@OnReleased
  0001a	8b 86 e0 1c 00
	00		 mov	 eax, DWORD PTR [esi+7392]
  00020	83 f8 ff	 cmp	 eax, -1
  00023	74 0d		 je	 SHORT $LN1@OnReleased

; 337  : 	{
; 338  : 		pStage->DestroyMapEffect( m_dwMarkEffectID );

  00025	50		 push	 eax
  00026	e8 00 00 00 00	 call	 ?DestroyMapEffect@ioPlayStage@@QAEXK@Z ; ioPlayStage::DestroyMapEffect

; 339  : 		m_dwMarkEffectID = -1;

  0002b	83 8e e0 1c 00
	00 ff		 or	 DWORD PTR [esi+7392], -1
$LN1@OnReleased:
  00032	5f		 pop	 edi
  00033	5e		 pop	 esi

; 340  : 	}
; 341  : }

  00034	5d		 pop	 ebp
  00035	c2 04 00	 ret	 4
?OnReleased@ioObjectChargeShotItem@@UAEXPAVioBaseChar@@@Z ENDP ; ioObjectChargeShotItem::OnReleased
_TEXT	ENDS
PUBLIC	?OnAttackEnd@ioObjectChargeShotItem@@IAEXPAVioBaseChar@@@Z ; ioObjectChargeShotItem::OnAttackEnd
EXTRN	?SetState@ioBaseChar@@QAEXH_N@Z:PROC		; ioBaseChar::SetState
EXTRN	__imp_?GetLoopSec@ioFrameTimer@@QBEKXZ:PROC
EXTRN	__imp_?GetSingleton@ioFrameTimer@@SAAAV1@XZ:PROC
; Function compile flags: /Ogsp
;	COMDAT ?OnAttackEnd@ioObjectChargeShotItem@@IAEXPAVioBaseChar@@@Z
_TEXT	SEGMENT
_pOwner$ = 8						; size = 4
?OnAttackEnd@ioObjectChargeShotItem@@IAEXPAVioBaseChar@@@Z PROC ; ioObjectChargeShotItem::OnAttackEnd, COMDAT
; _this$ = ecx

; 483  : {

  00000	55		 push	 ebp
  00001	8b ec		 mov	 ebp, esp

; 484  : 	if( !pOwner )

  00003	83 7d 08 00	 cmp	 DWORD PTR _pOwner$[ebp], 0
  00007	74 29		 je	 SHORT $LN1@OnAttackEn

; 485  : 		return;
; 486  : 
; 487  : 	if( m_dwMotionEndTime < FRAMEGETTIME() )

  00009	56		 push	 esi
  0000a	8d b1 bc 1c 00
	00		 lea	 esi, DWORD PTR [ecx+7356]
  00010	ff 15 00 00 00
	00		 call	 DWORD PTR __imp_?GetSingleton@ioFrameTimer@@SAAAV1@XZ
  00016	8b c8		 mov	 ecx, eax
  00018	ff 15 00 00 00
	00		 call	 DWORD PTR __imp_?GetLoopSec@ioFrameTimer@@QBEKXZ
  0001e	39 06		 cmp	 DWORD PTR [esi], eax
  00020	73 0f		 jae	 SHORT $LN5@OnAttackEn

; 488  : 	{
; 489  : 		m_dwMotionEndTime = 0;
; 490  : 		pOwner->SetState( CS_DELAY );

  00022	8b 4d 08	 mov	 ecx, DWORD PTR _pOwner$[ebp]
  00025	83 26 00	 and	 DWORD PTR [esi], 0
  00028	6a 01		 push	 1
  0002a	6a 00		 push	 0
  0002c	e8 00 00 00 00	 call	 ?SetState@ioBaseChar@@QAEXH_N@Z ; ioBaseChar::SetState
$LN5@OnAttackEn:
  00031	5e		 pop	 esi
$LN1@OnAttackEn:

; 491  : 	}
; 492  : }

  00032	5d		 pop	 ebp
  00033	c2 04 00	 ret	 4
?OnAttackEnd@ioObjectChargeShotItem@@IAEXPAVioBaseChar@@@Z ENDP ; ioObjectChargeShotItem::OnAttackEnd
_TEXT	ENDS
PUBLIC	__real@4f800000
PUBLIC	__mask@@AbsDouble@
PUBLIC	__real@3f847ae140000000
PUBLIC	__real@3f847ae147ae147b
PUBLIC	__real@0000000000000000
PUBLIC	?GetFlightDuration@ioObjectChargeShotItem@@IAEMMMM@Z ; ioObjectChargeShotItem::GetFlightDuration
;	COMDAT __real@4f800000
; File d:\lost saga for developer\youtube\tutorial\source\src\lsclient\stdafx.h
CONST	SEGMENT
__real@4f800000 DD 04f800000r			; 4.29497e+009
CONST	ENDS
;	COMDAT __mask@@AbsDouble@
CONST	SEGMENT
__mask@@AbsDouble@ DB 0ffH, 0ffH, 0ffH, 0ffH, 0ffH, 0ffH, 0ffH, 07fH, 0ffH
	DB	0ffH, 0ffH, 0ffH, 0ffH, 0ffH, 0ffH, 07fH
CONST	ENDS
;	COMDAT __real@3f847ae140000000
CONST	SEGMENT
__real@3f847ae140000000 DQ 03f847ae140000000r	; 0.01
CONST	ENDS
;	COMDAT __real@3f847ae147ae147b
CONST	SEGMENT
__real@3f847ae147ae147b DQ 03f847ae147ae147br	; 0.01
CONST	ENDS
;	COMDAT __real@0000000000000000
CONST	SEGMENT
__real@0000000000000000 DQ 00000000000000000r	; 0
; Function compile flags: /Ogsp
; File d:\lost saga for developer\youtube\tutorial\source\src\lsclient\ioobjectchargeshotitem.cpp
CONST	ENDS
;	COMDAT ?GetFlightDuration@ioObjectChargeShotItem@@IAEMMMM@Z
_TEXT	SEGMENT
_fTopTime$ = -8						; size = 4
_fGapTime$ = -4						; size = 4
_fCurGravity$ = 8					; size = 4
_fCurWeaponFloatPower$ = 12				; size = 4
tv215 = 16						; size = 4
tv212 = 16						; size = 4
tv208 = 16						; size = 4
tv205 = 16						; size = 4
_fGapHeight$ = 16					; size = 4
?GetFlightDuration@ioObjectChargeShotItem@@IAEMMMM@Z PROC ; ioObjectChargeShotItem::GetFlightDuration, COMDAT
; _this$ = ecx

; 696  : {

  00000	55		 push	 ebp
  00001	8b ec		 mov	 ebp, esp
  00003	51		 push	 ecx
  00004	51		 push	 ecx

; 697  : 	float fTopTime, fTopHeight, fGapTime;
; 698  : 	fTopTime = fTopHeight = fGapTime = 0.0f;

  00005	0f 57 c0	 xorps	 xmm0, xmm0

; 699  : 
; 700  : 	float fNewGravity = fCurGravity;
; 701  : 	if( fNewGravity > 0.0f )

  00008	f3 0f 10 55 08	 movss	 xmm2, DWORD PTR _fCurGravity$[ebp]
  0000d	0f 2f d0	 comiss	 xmm2, xmm0
  00010	f3 0f 10 4d 0c	 movss	 xmm1, DWORD PTR _fCurWeaponFloatPower$[ebp]
  00015	f3 0f 11 45 fc	 movss	 DWORD PTR _fGapTime$[ebp], xmm0
  0001a	f3 0f 11 45 f8	 movss	 DWORD PTR _fTopTime$[ebp], xmm0
  0001f	76 13		 jbe	 SHORT $LN3@GetFlightD

; 702  : 	{
; 703  : 		fTopTime = fCurWeaponFloatPower / fNewGravity;

  00021	0f 5a d9	 cvtps2pd xmm3, xmm1
  00024	0f 5a e2	 cvtps2pd xmm4, xmm2
  00027	f2 0f 5e dc	 divsd	 xmm3, xmm4
  0002b	66 0f 5a db	 cvtpd2ps xmm3, xmm3
  0002f	f3 0f 11 5d f8	 movss	 DWORD PTR _fTopTime$[ebp], xmm3
$LN3@GetFlightD:

; 704  : 	}
; 705  : 
; 706  : 	float fCurFloatPower = -fCurWeaponFloatPower;

  00034	0f 57 0d 00 00
	00 00		 xorps	 xmm1, DWORD PTR __mask@@NegFloat@
  0003b	0f 28 d9	 movaps	 xmm3, xmm1

; 707  : 	float fCurGapHeight = 0.0f;
; 708  : 	while( fCurGapHeight < fGapHeight )

  0003e	f3 0f 10 4d 10	 movss	 xmm1, DWORD PTR _fGapHeight$[ebp]
  00043	0f 5a c9	 cvtps2pd xmm1, xmm1
  00046	66 0f 2f 0d 00
	00 00 00	 comisd	 xmm1, QWORD PTR __real@0000000000000000
  0004e	76 76		 jbe	 SHORT $LN1@GetFlightD
  00050	f2 0f 10 0d 00
	00 00 00	 movsd	 xmm1, QWORD PTR __real@3f847ae147ae147b
  00058	0f 5a d2	 cvtps2pd xmm2, xmm2
  0005b	f2 0f 59 d1	 mulsd	 xmm2, xmm1
$LL2@GetFlightD:

; 709  : 	{
; 710  : 		fCurGapHeight += fabs(fCurFloatPower * 0.01f);

  0005f	0f 57 e4	 xorps	 xmm4, xmm4
  00062	f3 0f 5a e3	 cvtss2sd xmm4, xmm3
  00066	f2 0f 59 25 00
	00 00 00	 mulsd	 xmm4, QWORD PTR __real@3f847ae140000000
  0006e	f3 0f 10 6d 10	 movss	 xmm5, DWORD PTR _fGapHeight$[ebp]
  00073	66 0f 5a e4	 cvtpd2ps xmm4, xmm4
  00077	f3 0f 5a e4	 cvtss2sd xmm4, xmm4
  0007b	66 0f 54 25 00
	00 00 00	 andpd	 xmm4, QWORD PTR __mask@@AbsDouble@
  00083	f2 0f 5a e4	 cvtsd2ss xmm4, xmm4
  00087	f3 0f 5a e4	 cvtss2sd xmm4, xmm4
  0008b	0f 5a c0	 cvtps2pd xmm0, xmm0
  0008e	f2 0f 58 e0	 addsd	 xmm4, xmm0
  00092	0f 57 c0	 xorps	 xmm0, xmm0
  00095	f2 0f 5a c4	 cvtsd2ss xmm0, xmm4

; 711  : 		fCurFloatPower -= fNewGravity * 0.01;
; 712  : 		fGapTime += 0.01;

  00099	f3 0f 10 65 fc	 movss	 xmm4, DWORD PTR _fGapTime$[ebp]
  0009e	0f 5a e4	 cvtps2pd xmm4, xmm4
  000a1	f2 0f 58 e1	 addsd	 xmm4, xmm1
  000a5	f2 0f 5a e4	 cvtsd2ss xmm4, xmm4
  000a9	f3 0f 5a db	 cvtss2sd xmm3, xmm3
  000ad	f3 0f 11 65 fc	 movss	 DWORD PTR _fGapTime$[ebp], xmm4
  000b2	0f 5a ed	 cvtps2pd xmm5, xmm5
  000b5	f2 0f 5c da	 subsd	 xmm3, xmm2
  000b9	f2 0f 5a db	 cvtsd2ss xmm3, xmm3
  000bd	0f 5a e0	 cvtps2pd xmm4, xmm0
  000c0	66 0f 2f ec	 comisd	 xmm5, xmm4
  000c4	77 99		 ja	 SHORT $LL2@GetFlightD
$LN1@GetFlightD:

; 713  : 	}
; 714  : 
; 715  : 	float fResult = 2 * fTopTime * FLOAT1000;

  000c6	b8 e8 03 00 00	 mov	 eax, 1000		; 000003e8H
  000cb	8b c8		 mov	 ecx, eax

; 716  : 	fResult += fGapTime * FLOAT1000;

  000cd	b8 e8 03 00 00	 mov	 eax, 1000		; 000003e8H

; 717  : 	return fResult;

  000d2	d9 45 f8	 fld	 DWORD PTR _fTopTime$[ebp]
  000d5	89 4d 10	 mov	 DWORD PTR tv215[ebp], ecx
  000d8	dc c0		 fadd	 ST(0), ST(0)
  000da	db 45 10	 fild	 DWORD PTR tv215[ebp]
  000dd	85 c9		 test	 ecx, ecx
  000df	79 06		 jns	 SHORT $LN16@GetFlightD
  000e1	d8 05 00 00 00
	00		 fadd	 DWORD PTR __real@4f800000
$LN16@GetFlightD:

; 713  : 	}
; 714  : 
; 715  : 	float fResult = 2 * fTopTime * FLOAT1000;

  000e7	de c9		 fmulp	 ST(1), ST(0)

; 717  : 	return fResult;

  000e9	d9 5d 10	 fstp	 DWORD PTR tv212[ebp]
  000ec	d9 45 10	 fld	 DWORD PTR tv212[ebp]
  000ef	89 45 10	 mov	 DWORD PTR tv208[ebp], eax
  000f2	db 45 10	 fild	 DWORD PTR tv208[ebp]
  000f5	85 c0		 test	 eax, eax
  000f7	79 06		 jns	 SHORT $LN17@GetFlightD
  000f9	d8 05 00 00 00
	00		 fadd	 DWORD PTR __real@4f800000
$LN17@GetFlightD:
  000ff	d8 4d fc	 fmul	 DWORD PTR _fGapTime$[ebp]
  00102	de c1		 faddp	 ST(1), ST(0)
  00104	d9 5d 10	 fstp	 DWORD PTR tv205[ebp]
  00107	d9 45 10	 fld	 DWORD PTR tv205[ebp]

; 718  : }

  0010a	c9		 leave
  0010b	c2 0c 00	 ret	 12			; 0000000cH
?GetFlightDuration@ioObjectChargeShotItem@@IAEMMMM@Z ENDP ; ioObjectChargeShotItem::GetFlightDuration
_TEXT	ENDS
PUBLIC	__real@3fc70a3d80000000
PUBLIC	?GetTargetTime@ioObjectChargeShotItem@@IAEMMMAAM@Z ; ioObjectChargeShotItem::GetTargetTime
;	COMDAT __real@3fc70a3d80000000
; File d:\lost saga for developer\youtube\tutorial\source\src\lsclient\stdafx.h
CONST	SEGMENT
__real@3fc70a3d80000000 DQ 03fc70a3d80000000r	; 0.18
; Function compile flags: /Ogsp
; File d:\lost saga for developer\youtube\tutorial\source\src\lsclient\ioobjectchargeshotitem.cpp
CONST	ENDS
;	COMDAT ?GetTargetTime@ioObjectChargeShotItem@@IAEMMMAAM@Z
_TEXT	SEGMENT
tv211 = -4						; size = 4
_fTopTime$ = 8						; size = 4
_fCurGravity$ = 8					; size = 4
tv192 = 12						; size = 4
tv159 = 12						; size = 4
tv155 = 12						; size = 4
_fTopHeight$ = 12					; size = 4
_fGapHeight$ = 12					; size = 4
_fFloatPower$ = 16					; size = 4
?GetTargetTime@ioObjectChargeShotItem@@IAEMMMAAM@Z PROC	; ioObjectChargeShotItem::GetTargetTime, COMDAT
; _this$ = ecx

; 721  : {

  00000	55		 push	 ebp
  00001	8b ec		 mov	 ebp, esp
  00003	51		 push	 ecx

; 722  : 	float fGapTime = 0.0f;

  00004	0f 57 c0	 xorps	 xmm0, xmm0
  00007	0f 28 d8	 movaps	 xmm3, xmm0

; 723  : 	float fCurFloatPower = 0;

  0000a	0f 28 e0	 movaps	 xmm4, xmm0

; 724  : 	float fCurGapHeight = 0.0f;
; 725  : 
; 726  : 	float fRevisionH = FLOAT100;

  0000d	b8 64 00 00 00	 mov	 eax, 100		; 00000064H

; 727  : 	float fTopHeight = fGapHeight + fRevisionH;

  00012	89 45 fc	 mov	 DWORD PTR tv211[ebp], eax
  00015	db 45 fc	 fild	 DWORD PTR tv211[ebp]
  00018	85 c0		 test	 eax, eax
  0001a	79 06		 jns	 SHORT $LN15@GetTargetT
  0001c	d8 05 00 00 00
	00		 fadd	 DWORD PTR __real@4f800000
$LN15@GetTargetT:
  00022	d8 45 0c	 fadd	 DWORD PTR _fGapHeight$[ebp]

; 728  : 
; 729  : 	// Top Check
; 730  : 	float fTopTime = 0.0f;
; 731  : 	do
; 732  : 	{
; 733  : 		fTopTime = fGapTime;
; 734  : 
; 735  : 		fCurGapHeight += fabs(fCurFloatPower * 0.01f);
; 736  : 		fCurFloatPower += fCurGravity * 0.01;
; 737  : 		fGapTime += 0.01;
; 738  : 	} while( fCurGapHeight < fTopHeight );

  00025	f3 0f 10 4d 08	 movss	 xmm1, DWORD PTR _fCurGravity$[ebp]
  0002a	f2 0f 10 15 00
	00 00 00	 movsd	 xmm2, QWORD PTR __real@3f847ae147ae147b
  00032	0f 5a c9	 cvtps2pd xmm1, xmm1
  00035	d9 5d 0c	 fstp	 DWORD PTR _fTopHeight$[ebp]
  00038	f2 0f 59 ca	 mulsd	 xmm1, xmm2
$LL3@GetTargetT:
  0003c	f3 0f 10 75 0c	 movss	 xmm6, DWORD PTR _fTopHeight$[ebp]
  00041	0f 57 ed	 xorps	 xmm5, xmm5
  00044	f3 0f 5a ec	 cvtss2sd xmm5, xmm4
  00048	f2 0f 59 2d 00
	00 00 00	 mulsd	 xmm5, QWORD PTR __real@3f847ae140000000
  00050	66 0f 5a ed	 cvtpd2ps xmm5, xmm5
  00054	f3 0f 5a ed	 cvtss2sd xmm5, xmm5
  00058	66 0f 54 2d 00
	00 00 00	 andpd	 xmm5, QWORD PTR __mask@@AbsDouble@
  00060	f2 0f 5a ed	 cvtsd2ss xmm5, xmm5
  00064	0f 5a c0	 cvtps2pd xmm0, xmm0
  00067	f3 0f 5a ed	 cvtss2sd xmm5, xmm5
  0006b	f2 0f 58 e8	 addsd	 xmm5, xmm0
  0006f	f3 0f 11 5d 08	 movss	 DWORD PTR _fTopTime$[ebp], xmm3
  00074	0f 57 c0	 xorps	 xmm0, xmm0
  00077	f2 0f 5a c5	 cvtsd2ss xmm0, xmm5
  0007b	f3 0f 5a e4	 cvtss2sd xmm4, xmm4
  0007f	f3 0f 5a db	 cvtss2sd xmm3, xmm3
  00083	0f 5a e8	 cvtps2pd xmm5, xmm0
  00086	0f 5a f6	 cvtps2pd xmm6, xmm6
  00089	66 0f 2f f5	 comisd	 xmm6, xmm5
  0008d	f2 0f 58 e1	 addsd	 xmm4, xmm1
  00091	f2 0f 58 da	 addsd	 xmm3, xmm2
  00095	f2 0f 5a e4	 cvtsd2ss xmm4, xmm4
  00099	f2 0f 5a db	 cvtsd2ss xmm3, xmm3
  0009d	77 9d		 ja	 SHORT $LL3@GetTargetT

; 739  : 
; 740  : 	fFloatPower = fCurFloatPower;

  0009f	8b 45 10	 mov	 eax, DWORD PTR _fFloatPower$[ebp]
  000a2	f3 0f 11 20	 movss	 DWORD PTR [eax], xmm4

; 741  : 
; 742  : 
; 743  : 	// Target Check
; 744  : 	fGapTime = 0.0f;
; 745  : 	fCurFloatPower = 0;
; 746  : 	fCurGapHeight = 0.0f;
; 747  : 
; 748  : 	float fTargetTime = 0.18f;
; 749  : 
; 750  : 	fTargetTime += fTopTime;
; 751  : 	fTargetTime *= FLOAT1000;

  000a6	b8 e8 03 00 00	 mov	 eax, 1000		; 000003e8H

; 752  : 	return fTargetTime;

  000ab	d9 45 08	 fld	 DWORD PTR _fTopTime$[ebp]
  000ae	dc 05 00 00 00
	00		 fadd	 QWORD PTR __real@3fc70a3d80000000
  000b4	d9 5d 0c	 fstp	 DWORD PTR tv192[ebp]
  000b7	d9 45 0c	 fld	 DWORD PTR tv192[ebp]
  000ba	89 45 0c	 mov	 DWORD PTR tv159[ebp], eax
  000bd	db 45 0c	 fild	 DWORD PTR tv159[ebp]
  000c0	85 c0		 test	 eax, eax
  000c2	79 06		 jns	 SHORT $LN16@GetTargetT
  000c4	d8 05 00 00 00
	00		 fadd	 DWORD PTR __real@4f800000
$LN16@GetTargetT:

; 741  : 
; 742  : 
; 743  : 	// Target Check
; 744  : 	fGapTime = 0.0f;
; 745  : 	fCurFloatPower = 0;
; 746  : 	fCurGapHeight = 0.0f;
; 747  : 
; 748  : 	float fTargetTime = 0.18f;
; 749  : 
; 750  : 	fTargetTime += fTopTime;
; 751  : 	fTargetTime *= FLOAT1000;

  000ca	de c9		 fmulp	 ST(1), ST(0)

; 752  : 	return fTargetTime;

  000cc	d9 5d 0c	 fstp	 DWORD PTR tv155[ebp]
  000cf	d9 45 0c	 fld	 DWORD PTR tv155[ebp]

; 753  : }

  000d2	c9		 leave
  000d3	c2 0c 00	 ret	 12			; 0000000cH
?GetTargetTime@ioObjectChargeShotItem@@IAEMMMAAM@Z ENDP	; ioObjectChargeShotItem::GetTargetTime
_TEXT	ENDS
PUBLIC	__$ArrayPad$
PUBLIC	?CreateWeapon@ioObjectChargeShotItem@@IAEXPAVioBaseChar@@@Z ; ioObjectChargeShotItem::CreateWeapon
EXTRN	?CreateMapEffect@ioPlayStage@@QAEPAVioMapEffect@@ABVioHashString@@ABUD3DXVECTOR3@@1@Z:PROC ; ioPlayStage::CreateMapEffect
EXTRN	__imp_?IsEmpty@ioHashString@@QBE_NXZ:PROC
EXTRN	?NormalAttackFireExplicit@ioBaseChar@@QAEXABUWeaponInfo@@ABUD3DXVECTOR3@@@Z:PROC ; ioBaseChar::NormalAttackFireExplicit
EXTRN	__imp_?VEC3_ZERO@ioMath@@2UD3DXVECTOR3@@A:BYTE
EXTRN	___security_cookie:DWORD
EXTRN	@__security_check_cookie@4:PROC
; Function compile flags: /Ogsp
;	COMDAT ?CreateWeapon@ioObjectChargeShotItem@@IAEXPAVioBaseChar@@@Z
_TEXT	SEGMENT
tv173 = -20						; size = 4
tv170 = -20						; size = 4
tv167 = -20						; size = 4
_vScale$608046 = -16					; size = 12
__$ArrayPad$ = -4					; size = 4
_pOwner$ = 8						; size = 4
?CreateWeapon@ioObjectChargeShotItem@@IAEXPAVioBaseChar@@@Z PROC ; ioObjectChargeShotItem::CreateWeapon, COMDAT
; _this$ = ecx

; 756  : {

  00000	55		 push	 ebp
  00001	8b ec		 mov	 ebp, esp
  00003	83 ec 14	 sub	 esp, 20			; 00000014H
  00006	a1 00 00 00 00	 mov	 eax, DWORD PTR ___security_cookie
  0000b	33 c5		 xor	 eax, ebp
  0000d	89 45 fc	 mov	 DWORD PTR __$ArrayPad$[ebp], eax
  00010	56		 push	 esi
  00011	57		 push	 edi

; 757  : 	pOwner->NormalAttackFireExplicit( m_WeaponInfo );

  00012	ff 35 00 00 00
	00		 push	 DWORD PTR __imp_?VEC3_ZERO@ioMath@@2UD3DXVECTOR3@@A
  00018	8b 7d 08	 mov	 edi, DWORD PTR _pOwner$[ebp]
  0001b	8b f1		 mov	 esi, ecx
  0001d	8d 86 88 1c 00
	00		 lea	 eax, DWORD PTR [esi+7304]
  00023	50		 push	 eax
  00024	8b cf		 mov	 ecx, edi
  00026	e8 00 00 00 00	 call	 ?NormalAttackFireExplicit@ioBaseChar@@QAEXABUWeaponInfo@@ABUD3DXVECTOR3@@@Z ; ioBaseChar::NormalAttackFireExplicit

; 758  : 
; 759  : 	ioPlayStage *pStage = pOwner->GetCreator();

  0002b	8b bf 44 03 00
	00		 mov	 edi, DWORD PTR [edi+836]

; 760  : 	if( pStage && !m_MarkAfterEffect.IsEmpty() )

  00031	85 ff		 test	 edi, edi
  00033	74 73		 je	 SHORT $LN1@CreateWeap
  00035	53		 push	 ebx
  00036	8d 9e d0 1c 00
	00		 lea	 ebx, DWORD PTR [esi+7376]
  0003c	8b cb		 mov	 ecx, ebx
  0003e	ff 15 00 00 00
	00		 call	 DWORD PTR __imp_?IsEmpty@ioHashString@@QBE_NXZ
  00044	84 c0		 test	 al, al
  00046	75 5f		 jne	 SHORT $LN14@CreateWeap

; 761  : 	{
; 762  : 		D3DXVECTOR3 vScale = D3DXVECTOR3( FLOAT1, FLOAT1, FLOAT1 );

  00048	b8 01 00 00 00	 mov	 eax, 1
  0004d	8b c8		 mov	 ecx, eax
  0004f	b8 01 00 00 00	 mov	 eax, 1
  00054	8b d0		 mov	 edx, eax
  00056	b8 01 00 00 00	 mov	 eax, 1
  0005b	89 45 ec	 mov	 DWORD PTR tv173[ebp], eax
  0005e	db 45 ec	 fild	 DWORD PTR tv173[ebp]
  00061	85 c0		 test	 eax, eax
  00063	79 06		 jns	 SHORT $LN15@CreateWeap
  00065	d8 05 00 00 00
	00		 fadd	 DWORD PTR __real@4f800000
$LN15@CreateWeap:
  0006b	89 55 ec	 mov	 DWORD PTR tv170[ebp], edx
  0006e	d9 5d f0	 fstp	 DWORD PTR _vScale$608046[ebp]
  00071	db 45 ec	 fild	 DWORD PTR tv170[ebp]
  00074	85 d2		 test	 edx, edx
  00076	79 06		 jns	 SHORT $LN16@CreateWeap
  00078	d8 05 00 00 00
	00		 fadd	 DWORD PTR __real@4f800000
$LN16@CreateWeap:
  0007e	89 4d ec	 mov	 DWORD PTR tv167[ebp], ecx
  00081	d9 5d f4	 fstp	 DWORD PTR _vScale$608046[ebp+4]
  00084	db 45 ec	 fild	 DWORD PTR tv167[ebp]
  00087	85 c9		 test	 ecx, ecx
  00089	79 06		 jns	 SHORT $LN17@CreateWeap
  0008b	d8 05 00 00 00
	00		 fadd	 DWORD PTR __real@4f800000
$LN17@CreateWeap:

; 763  : 		pStage->CreateMapEffect( m_MarkAfterEffect, m_vMarkPosition, vScale );

  00091	8d 45 f0	 lea	 eax, DWORD PTR _vScale$608046[ebp]
  00094	d9 5d f8	 fstp	 DWORD PTR _vScale$608046[ebp+8]
  00097	50		 push	 eax
  00098	81 c6 a8 1d 00
	00		 add	 esi, 7592		; 00001da8H
  0009e	56		 push	 esi
  0009f	53		 push	 ebx
  000a0	8b cf		 mov	 ecx, edi
  000a2	e8 00 00 00 00	 call	 ?CreateMapEffect@ioPlayStage@@QAEPAVioMapEffect@@ABVioHashString@@ABUD3DXVECTOR3@@1@Z ; ioPlayStage::CreateMapEffect
$LN14@CreateWeap:
  000a7	5b		 pop	 ebx
$LN1@CreateWeap:

; 764  : 	}
; 765  : }

  000a8	8b 4d fc	 mov	 ecx, DWORD PTR __$ArrayPad$[ebp]
  000ab	5f		 pop	 edi
  000ac	33 cd		 xor	 ecx, ebp
  000ae	5e		 pop	 esi
  000af	e8 00 00 00 00	 call	 @__security_check_cookie@4
  000b4	c9		 leave
  000b5	c2 04 00	 ret	 4
?CreateWeapon@ioObjectChargeShotItem@@IAEXPAVioBaseChar@@@Z ENDP ; ioObjectChargeShotItem::CreateWeapon
_TEXT	ENDS
PUBLIC	?EnableReleaseObject@ioObjectChargeShotItem@@QAE_NPAVioBaseChar@@@Z ; ioObjectChargeShotItem::EnableReleaseObject
; Function compile flags: /Ogsp
;	COMDAT ?EnableReleaseObject@ioObjectChargeShotItem@@QAE_NPAVioBaseChar@@@Z
_TEXT	SEGMENT
_pOwner$ = 8						; size = 4
?EnableReleaseObject@ioObjectChargeShotItem@@QAE_NPAVioBaseChar@@@Z PROC ; ioObjectChargeShotItem::EnableReleaseObject, COMDAT
; _this$ = ecx

; 769  : 	if( !pOwner )

  00000	32 c0		 xor	 al, al

; 770  : 		return false;
; 771  : 
; 772  : 	return false;
; 773  : }

  00002	c2 04 00	 ret	 4
?EnableReleaseObject@ioObjectChargeShotItem@@QAE_NPAVioBaseChar@@@Z ENDP ; ioObjectChargeShotItem::EnableReleaseObject
_TEXT	ENDS
PUBLIC	__real@3f91df46a2526c7a
PUBLIC	??$DEGtoRAD@M@@YAMM@Z				; DEGtoRAD<float>
;	COMDAT __real@3f91df46a2526c7a
; File d:\lost saga for developer\youtube\tutorial\source\src\lsclient\veryoftenusedefine.h
CONST	SEGMENT
__real@3f91df46a2526c7a DQ 03f91df46a2526c7ar	; 0.0174533
; Function compile flags: /Ogsp
CONST	ENDS
;	COMDAT ??$DEGtoRAD@M@@YAMM@Z
_TEXT	SEGMENT
tv129 = 8						; size = 4
_val$ = 8						; size = 4
??$DEGtoRAD@M@@YAMM@Z PROC				; DEGtoRAD<float>, COMDAT

; 20   : type  DEGtoRAD (type val) {return (type) (val * 0.0174532925199);}

  00000	55		 push	 ebp
  00001	8b ec		 mov	 ebp, esp
  00003	d9 45 08	 fld	 DWORD PTR _val$[ebp]
  00006	dc 0d 00 00 00
	00		 fmul	 QWORD PTR __real@3f91df46a2526c7a
  0000c	d9 5d 08	 fstp	 DWORD PTR tv129[ebp]
  0000f	d9 45 08	 fld	 DWORD PTR tv129[ebp]
  00012	5d		 pop	 ebp
  00013	c3		 ret	 0
??$DEGtoRAD@M@@YAMM@Z ENDP				; DEGtoRAD<float>
_TEXT	ENDS
PUBLIC	?_DECSTR@@YAXPADH@Z				; _DECSTR
; Function compile flags: /Ogsp
; File d:\lost saga for developer\youtube\tutorial\source\src\lsclient\stringprotect.h
;	COMDAT ?_DECSTR@@YAXPADH@Z
_TEXT	SEGMENT
_s$ = 8							; size = 4
_l$ = 12						; size = 4
?_DECSTR@@YAXPADH@Z PROC				; _DECSTR, COMDAT

; 40   : __forceinline void _DECSTR(char* s, int l){int i=0,l4=(l-1)/4,*p=(int*)s;s[l-1]=0;for(;i<l4;++i)*(p++)^=0xEAEBECED;for(i=l4*4;i<l-1;++i)s[i]^=0xED-i%4;}

  00000	55		 push	 ebp
  00001	8b ec		 mov	 ebp, esp
  00003	8b 4d 0c	 mov	 ecx, DWORD PTR _l$[ebp]
  00006	56		 push	 esi
  00007	8b 75 08	 mov	 esi, DWORD PTR _s$[ebp]
  0000a	57		 push	 edi
  0000b	8d 79 ff	 lea	 edi, DWORD PTR [ecx-1]
  0000e	8b c7		 mov	 eax, edi
  00010	99		 cdq
  00011	83 e2 03	 and	 edx, 3
  00014	03 c2		 add	 eax, edx
  00016	c1 f8 02	 sar	 eax, 2
  00019	8b d6		 mov	 edx, esi
  0001b	c6 44 0e ff 00	 mov	 BYTE PTR [esi+ecx-1], 0
  00020	85 c0		 test	 eax, eax
  00022	7e 0e		 jle	 SHORT $LN4@DECSTR
  00024	8b c8		 mov	 ecx, eax
$LL6@DECSTR:
  00026	81 32 ed ec eb
	ea		 xor	 DWORD PTR [edx], -353637139 ; eaebecedH
  0002c	83 c2 04	 add	 edx, 4
  0002f	49		 dec	 ecx
  00030	75 f4		 jne	 SHORT $LL6@DECSTR
$LN4@DECSTR:
  00032	c1 e0 02	 shl	 eax, 2
  00035	eb 17		 jmp	 SHORT $LN14@DECSTR
$LL3@DECSTR:
  00037	8b c8		 mov	 ecx, eax
  00039	81 e1 03 00 00
	80		 and	 ecx, -2147483645	; 80000003H
  0003f	79 05		 jns	 SHORT $LN13@DECSTR
  00041	49		 dec	 ecx
  00042	83 c9 fc	 or	 ecx, -4			; fffffffcH
  00045	41		 inc	 ecx
$LN13@DECSTR:
  00046	b2 ed		 mov	 dl, -19			; ffffffedH
  00048	2a d1		 sub	 dl, cl
  0004a	30 14 30	 xor	 BYTE PTR [eax+esi], dl
  0004d	40		 inc	 eax
$LN14@DECSTR:
  0004e	3b c7		 cmp	 eax, edi
  00050	7c e5		 jl	 SHORT $LL3@DECSTR
  00052	5f		 pop	 edi
  00053	5e		 pop	 esi
  00054	5d		 pop	 ebp
  00055	c3		 ret	 0
?_DECSTR@@YAXPADH@Z ENDP				; _DECSTR
_TEXT	ENDS
PUBLIC	?return57@@YAIXZ				; return57
; Function compile flags: /Ogsp
; File d:\lost saga for developer\youtube\tutorial\source\src\lsclient\veryoftenusedefine.h
;	COMDAT ?return57@@YAIXZ
_TEXT	SEGMENT
?return57@@YAIXZ PROC					; return57, COMDAT

; 15   : __forceinline unsigned int return57() { __asm mov eax, 57 };

  00000	b8 39 00 00 00	 mov	 eax, 57			; 00000039H
  00005	c3		 ret	 0
?return57@@YAIXZ ENDP					; return57
_TEXT	ENDS
PUBLIC	?GetGroup@ioGameEntity@@QBEPAVioEntityGroup@@XZ	; ioGameEntity::GetGroup
; Function compile flags: /Ogsp
; File d:\lost saga for developer\youtube\tutorial\source\src\lsclient\iogameentity.h
;	COMDAT ?GetGroup@ioGameEntity@@QBEPAVioEntityGroup@@XZ
_TEXT	SEGMENT
?GetGroup@ioGameEntity@@QBEPAVioEntityGroup@@XZ PROC	; ioGameEntity::GetGroup, COMDAT
; _this$ = ecx

; 166  : 	inline ioEntityGroup* GetGroup() const { return m_pGroup; }

  00000	8b 41 04	 mov	 eax, DWORD PTR [ecx+4]
  00003	c3		 ret	 0
?GetGroup@ioGameEntity@@QBEPAVioEntityGroup@@XZ ENDP	; ioGameEntity::GetGroup
_TEXT	ENDS
PUBLIC	?Init@WeaponInfo@@QAEXXZ			; WeaponInfo::Init
; Function compile flags: /Ogsp
; File d:\lost saga for developer\youtube\tutorial\source\src\lsclient\ioattackattribute.h
;	COMDAT ?Init@WeaponInfo@@QAEXXZ
_TEXT	SEGMENT
?Init@WeaponInfo@@QAEXXZ PROC				; WeaponInfo::Init, COMDAT
; _this$ = ecx

; 71   : 		m_iWeaponIdx = 0;

  00000	33 c0		 xor	 eax, eax
  00002	89 01		 mov	 DWORD PTR [ecx], eax

; 72   : 		m_iResistanceIdx = 0;

  00004	89 41 04	 mov	 DWORD PTR [ecx+4], eax

; 73   : 
; 74   : 		m_dwWoundedDuration = 0;

  00007	89 41 18	 mov	 DWORD PTR [ecx+24], eax

; 75   : 		m_dwCallTime = 0;

  0000a	89 41 1c	 mov	 DWORD PTR [ecx+28], eax

; 76   : 
; 77   : 		m_bWoundedLoopAni = false;

  0000d	88 41 20	 mov	 BYTE PTR [ecx+32], al

; 78   : 
; 79   : 		m_dwDuration = 0;

  00010	89 41 24	 mov	 DWORD PTR [ecx+36], eax

; 80   : 	}

  00013	c3		 ret	 0
?Init@WeaponInfo@@QAEXXZ ENDP				; WeaponInfo::Init
_TEXT	ENDS
PUBLIC	??1WeaponInfo@@QAE@XZ				; WeaponInfo::~WeaponInfo
EXTRN	__imp_??1ioHashString@@QAE@XZ:PROC
; Function compile flags: /Ogsp
;	COMDAT ??1WeaponInfo@@QAE@XZ
_TEXT	SEGMENT
??1WeaponInfo@@QAE@XZ PROC				; WeaponInfo::~WeaponInfo, COMDAT
; _this$ = ecx
  00000	83 c1 08	 add	 ecx, 8
  00003	ff 25 00 00 00
	00		 jmp	 DWORD PTR __imp_??1ioHashString@@QAE@XZ
??1WeaponInfo@@QAE@XZ ENDP				; WeaponInfo::~WeaponInfo
_TEXT	ENDS
PUBLIC	??_7?$CEncrypt@M@@6B@				; CEncrypt<float>::`vftable'
PUBLIC	??1?$CEncrypt@M@@UAE@XZ				; CEncrypt<float>::~CEncrypt<float>
PUBLIC	??_R4?$CEncrypt@M@@6B@				; CEncrypt<float>::`RTTI Complete Object Locator'
PUBLIC	??_R0?AV?$CEncrypt@M@@@8			; CEncrypt<float> `RTTI Type Descriptor'
PUBLIC	??_R3?$CEncrypt@M@@8				; CEncrypt<float>::`RTTI Class Hierarchy Descriptor'
PUBLIC	??_R2?$CEncrypt@M@@8				; CEncrypt<float>::`RTTI Base Class Array'
PUBLIC	??_R1A@?0A@EA@?$CEncrypt@M@@8			; CEncrypt<float>::`RTTI Base Class Descriptor at (0,-1,0,64)'
EXTRN	??1ccddaabb@@UAE@XZ:PROC			; ccddaabb::~ccddaabb
EXTRN	??_E?$CEncrypt@M@@UAEPAXI@Z:PROC		; CEncrypt<float>::`vector deleting destructor'
;	COMDAT ??_R1A@?0A@EA@?$CEncrypt@M@@8
; File d:\lost saga for developer\youtube\tutorial\source\src\lsclient\encryptvalue.h
rdata$r	SEGMENT
??_R1A@?0A@EA@?$CEncrypt@M@@8 DD FLAT:??_R0?AV?$CEncrypt@M@@@8 ; CEncrypt<float>::`RTTI Base Class Descriptor at (0,-1,0,64)'
	DD	00H
	DD	00H
	DD	0ffffffffH
	DD	00H
	DD	040H
	DD	FLAT:??_R3?$CEncrypt@M@@8
rdata$r	ENDS
;	COMDAT ??_R2?$CEncrypt@M@@8
rdata$r	SEGMENT
??_R2?$CEncrypt@M@@8 DD FLAT:??_R1A@?0A@EA@?$CEncrypt@M@@8 ; CEncrypt<float>::`RTTI Base Class Array'
rdata$r	ENDS
;	COMDAT ??_R3?$CEncrypt@M@@8
rdata$r	SEGMENT
??_R3?$CEncrypt@M@@8 DD 00H				; CEncrypt<float>::`RTTI Class Hierarchy Descriptor'
	DD	00H
	DD	01H
	DD	FLAT:??_R2?$CEncrypt@M@@8
rdata$r	ENDS
;	COMDAT ??_R0?AV?$CEncrypt@M@@@8
_DATA	SEGMENT
??_R0?AV?$CEncrypt@M@@@8 DD FLAT:??_7type_info@@6B@	; CEncrypt<float> `RTTI Type Descriptor'
	DD	00H
	DB	'.?AV?$CEncrypt@M@@', 00H
_DATA	ENDS
;	COMDAT ??_R4?$CEncrypt@M@@6B@
rdata$r	SEGMENT
??_R4?$CEncrypt@M@@6B@ DD 00H				; CEncrypt<float>::`RTTI Complete Object Locator'
	DD	00H
	DD	00H
	DD	FLAT:??_R0?AV?$CEncrypt@M@@@8
	DD	FLAT:??_R3?$CEncrypt@M@@8
rdata$r	ENDS
;	COMDAT ??_7?$CEncrypt@M@@6B@
CONST	SEGMENT
??_7?$CEncrypt@M@@6B@ DD FLAT:??_R4?$CEncrypt@M@@6B@	; CEncrypt<float>::`vftable'
	DD	FLAT:??_E?$CEncrypt@M@@UAEPAXI@Z
; Function compile flags: /Ogsp
CONST	ENDS
;	COMDAT ??1?$CEncrypt@M@@UAE@XZ
_TEXT	SEGMENT
??1?$CEncrypt@M@@UAE@XZ PROC				; CEncrypt<float>::~CEncrypt<float>, COMDAT
; _this$ = ecx

; 127  : 	{

  00000	c7 01 00 00 00
	00		 mov	 DWORD PTR [ecx], OFFSET ??_7?$CEncrypt@M@@6B@

; 128  : 	}

  00006	83 c1 0c	 add	 ecx, 12			; 0000000cH
  00009	e9 00 00 00 00	 jmp	 ??1ccddaabb@@UAE@XZ	; ccddaabb::~ccddaabb
??1?$CEncrypt@M@@UAE@XZ ENDP				; CEncrypt<float>::~CEncrypt<float>
_TEXT	ENDS
PUBLIC	??_7?$CEncrypt@K@@6B@				; CEncrypt<unsigned long>::`vftable'
PUBLIC	??1?$CEncrypt@K@@UAE@XZ				; CEncrypt<unsigned long>::~CEncrypt<unsigned long>
PUBLIC	??_R4?$CEncrypt@K@@6B@				; CEncrypt<unsigned long>::`RTTI Complete Object Locator'
PUBLIC	??_R0?AV?$CEncrypt@K@@@8			; CEncrypt<unsigned long> `RTTI Type Descriptor'
PUBLIC	??_R3?$CEncrypt@K@@8				; CEncrypt<unsigned long>::`RTTI Class Hierarchy Descriptor'
PUBLIC	??_R2?$CEncrypt@K@@8				; CEncrypt<unsigned long>::`RTTI Base Class Array'
PUBLIC	??_R1A@?0A@EA@?$CEncrypt@K@@8			; CEncrypt<unsigned long>::`RTTI Base Class Descriptor at (0,-1,0,64)'
EXTRN	??_E?$CEncrypt@K@@UAEPAXI@Z:PROC		; CEncrypt<unsigned long>::`vector deleting destructor'
;	COMDAT ??_R1A@?0A@EA@?$CEncrypt@K@@8
rdata$r	SEGMENT
??_R1A@?0A@EA@?$CEncrypt@K@@8 DD FLAT:??_R0?AV?$CEncrypt@K@@@8 ; CEncrypt<unsigned long>::`RTTI Base Class Descriptor at (0,-1,0,64)'
	DD	00H
	DD	00H
	DD	0ffffffffH
	DD	00H
	DD	040H
	DD	FLAT:??_R3?$CEncrypt@K@@8
rdata$r	ENDS
;	COMDAT ??_R2?$CEncrypt@K@@8
rdata$r	SEGMENT
??_R2?$CEncrypt@K@@8 DD FLAT:??_R1A@?0A@EA@?$CEncrypt@K@@8 ; CEncrypt<unsigned long>::`RTTI Base Class Array'
rdata$r	ENDS
;	COMDAT ??_R3?$CEncrypt@K@@8
rdata$r	SEGMENT
??_R3?$CEncrypt@K@@8 DD 00H				; CEncrypt<unsigned long>::`RTTI Class Hierarchy Descriptor'
	DD	00H
	DD	01H
	DD	FLAT:??_R2?$CEncrypt@K@@8
rdata$r	ENDS
;	COMDAT ??_R0?AV?$CEncrypt@K@@@8
_DATA	SEGMENT
??_R0?AV?$CEncrypt@K@@@8 DD FLAT:??_7type_info@@6B@	; CEncrypt<unsigned long> `RTTI Type Descriptor'
	DD	00H
	DB	'.?AV?$CEncrypt@K@@', 00H
_DATA	ENDS
;	COMDAT ??_R4?$CEncrypt@K@@6B@
rdata$r	SEGMENT
??_R4?$CEncrypt@K@@6B@ DD 00H				; CEncrypt<unsigned long>::`RTTI Complete Object Locator'
	DD	00H
	DD	00H
	DD	FLAT:??_R0?AV?$CEncrypt@K@@@8
	DD	FLAT:??_R3?$CEncrypt@K@@8
rdata$r	ENDS
;	COMDAT ??_7?$CEncrypt@K@@6B@
CONST	SEGMENT
??_7?$CEncrypt@K@@6B@ DD FLAT:??_R4?$CEncrypt@K@@6B@	; CEncrypt<unsigned long>::`vftable'
	DD	FLAT:??_E?$CEncrypt@K@@UAEPAXI@Z
; Function compile flags: /Ogsp
CONST	ENDS
;	COMDAT ??1?$CEncrypt@K@@UAE@XZ
_TEXT	SEGMENT
??1?$CEncrypt@K@@UAE@XZ PROC				; CEncrypt<unsigned long>::~CEncrypt<unsigned long>, COMDAT
; _this$ = ecx

; 127  : 	{

  00000	c7 01 00 00 00
	00		 mov	 DWORD PTR [ecx], OFFSET ??_7?$CEncrypt@K@@6B@

; 128  : 	}

  00006	83 c1 0c	 add	 ecx, 12			; 0000000cH
  00009	e9 00 00 00 00	 jmp	 ??1ccddaabb@@UAE@XZ	; ccddaabb::~ccddaabb
??1?$CEncrypt@K@@UAE@XZ ENDP				; CEncrypt<unsigned long>::~CEncrypt<unsigned long>
_TEXT	ENDS
PUBLIC	??_7?$CEncrypt@_N@@6B@				; CEncrypt<bool>::`vftable'
PUBLIC	??1?$CEncrypt@_N@@UAE@XZ			; CEncrypt<bool>::~CEncrypt<bool>
PUBLIC	??_R4?$CEncrypt@_N@@6B@				; CEncrypt<bool>::`RTTI Complete Object Locator'
PUBLIC	??_R0?AV?$CEncrypt@_N@@@8			; CEncrypt<bool> `RTTI Type Descriptor'
PUBLIC	??_R3?$CEncrypt@_N@@8				; CEncrypt<bool>::`RTTI Class Hierarchy Descriptor'
PUBLIC	??_R2?$CEncrypt@_N@@8				; CEncrypt<bool>::`RTTI Base Class Array'
PUBLIC	??_R1A@?0A@EA@?$CEncrypt@_N@@8			; CEncrypt<bool>::`RTTI Base Class Descriptor at (0,-1,0,64)'
EXTRN	??_E?$CEncrypt@_N@@UAEPAXI@Z:PROC		; CEncrypt<bool>::`vector deleting destructor'
;	COMDAT ??_R1A@?0A@EA@?$CEncrypt@_N@@8
rdata$r	SEGMENT
??_R1A@?0A@EA@?$CEncrypt@_N@@8 DD FLAT:??_R0?AV?$CEncrypt@_N@@@8 ; CEncrypt<bool>::`RTTI Base Class Descriptor at (0,-1,0,64)'
	DD	00H
	DD	00H
	DD	0ffffffffH
	DD	00H
	DD	040H
	DD	FLAT:??_R3?$CEncrypt@_N@@8
rdata$r	ENDS
;	COMDAT ??_R2?$CEncrypt@_N@@8
rdata$r	SEGMENT
??_R2?$CEncrypt@_N@@8 DD FLAT:??_R1A@?0A@EA@?$CEncrypt@_N@@8 ; CEncrypt<bool>::`RTTI Base Class Array'
rdata$r	ENDS
;	COMDAT ??_R3?$CEncrypt@_N@@8
rdata$r	SEGMENT
??_R3?$CEncrypt@_N@@8 DD 00H				; CEncrypt<bool>::`RTTI Class Hierarchy Descriptor'
	DD	00H
	DD	01H
	DD	FLAT:??_R2?$CEncrypt@_N@@8
rdata$r	ENDS
;	COMDAT ??_R0?AV?$CEncrypt@_N@@@8
_DATA	SEGMENT
??_R0?AV?$CEncrypt@_N@@@8 DD FLAT:??_7type_info@@6B@	; CEncrypt<bool> `RTTI Type Descriptor'
	DD	00H
	DB	'.?AV?$CEncrypt@_N@@', 00H
_DATA	ENDS
;	COMDAT ??_R4?$CEncrypt@_N@@6B@
rdata$r	SEGMENT
??_R4?$CEncrypt@_N@@6B@ DD 00H				; CEncrypt<bool>::`RTTI Complete Object Locator'
	DD	00H
	DD	00H
	DD	FLAT:??_R0?AV?$CEncrypt@_N@@@8
	DD	FLAT:??_R3?$CEncrypt@_N@@8
rdata$r	ENDS
;	COMDAT ??_7?$CEncrypt@_N@@6B@
CONST	SEGMENT
??_7?$CEncrypt@_N@@6B@ DD FLAT:??_R4?$CEncrypt@_N@@6B@	; CEncrypt<bool>::`vftable'
	DD	FLAT:??_E?$CEncrypt@_N@@UAEPAXI@Z
; Function compile flags: /Ogsp
CONST	ENDS
;	COMDAT ??1?$CEncrypt@_N@@UAE@XZ
_TEXT	SEGMENT
??1?$CEncrypt@_N@@UAE@XZ PROC				; CEncrypt<bool>::~CEncrypt<bool>, COMDAT
; _this$ = ecx

; 127  : 	{

  00000	c7 01 00 00 00
	00		 mov	 DWORD PTR [ecx], OFFSET ??_7?$CEncrypt@_N@@6B@

; 128  : 	}

  00006	83 c1 0c	 add	 ecx, 12			; 0000000cH
  00009	e9 00 00 00 00	 jmp	 ??1ccddaabb@@UAE@XZ	; ccddaabb::~ccddaabb
??1?$CEncrypt@_N@@UAE@XZ ENDP				; CEncrypt<bool>::~CEncrypt<bool>
_TEXT	ENDS
EXTRN	??3@YAXPAX@Z:PROC				; operator delete
; Function compile flags: /Ogsp
;	COMDAT ??_G?$CEncrypt@M@@UAEPAXI@Z
_TEXT	SEGMENT
___flags$ = 8						; size = 4
??_G?$CEncrypt@M@@UAEPAXI@Z PROC			; CEncrypt<float>::`scalar deleting destructor', COMDAT
; _this$ = ecx
  00000	55		 push	 ebp
  00001	8b ec		 mov	 ebp, esp
  00003	56		 push	 esi
  00004	8b f1		 mov	 esi, ecx
  00006	8d 4e 0c	 lea	 ecx, DWORD PTR [esi+12]
  00009	c7 06 00 00 00
	00		 mov	 DWORD PTR [esi], OFFSET ??_7?$CEncrypt@M@@6B@
  0000f	e8 00 00 00 00	 call	 ??1ccddaabb@@UAE@XZ	; ccddaabb::~ccddaabb
  00014	f6 45 08 01	 test	 BYTE PTR ___flags$[ebp], 1
  00018	74 07		 je	 SHORT $LN1@scalar
  0001a	56		 push	 esi
  0001b	e8 00 00 00 00	 call	 ??3@YAXPAX@Z		; operator delete
  00020	59		 pop	 ecx
$LN1@scalar:
  00021	8b c6		 mov	 eax, esi
  00023	5e		 pop	 esi
  00024	5d		 pop	 ebp
  00025	c2 04 00	 ret	 4
??_G?$CEncrypt@M@@UAEPAXI@Z ENDP			; CEncrypt<float>::`scalar deleting destructor'
; Function compile flags: /Ogsp
_TEXT	ENDS
;	COMDAT ??_G?$CEncrypt@K@@UAEPAXI@Z
_TEXT	SEGMENT
___flags$ = 8						; size = 4
??_G?$CEncrypt@K@@UAEPAXI@Z PROC			; CEncrypt<unsigned long>::`scalar deleting destructor', COMDAT
; _this$ = ecx
  00000	55		 push	 ebp
  00001	8b ec		 mov	 ebp, esp
  00003	56		 push	 esi
  00004	8b f1		 mov	 esi, ecx
  00006	8d 4e 0c	 lea	 ecx, DWORD PTR [esi+12]
  00009	c7 06 00 00 00
	00		 mov	 DWORD PTR [esi], OFFSET ??_7?$CEncrypt@K@@6B@
  0000f	e8 00 00 00 00	 call	 ??1ccddaabb@@UAE@XZ	; ccddaabb::~ccddaabb
  00014	f6 45 08 01	 test	 BYTE PTR ___flags$[ebp], 1
  00018	74 07		 je	 SHORT $LN1@scalar@2
  0001a	56		 push	 esi
  0001b	e8 00 00 00 00	 call	 ??3@YAXPAX@Z		; operator delete
  00020	59		 pop	 ecx
$LN1@scalar@2:
  00021	8b c6		 mov	 eax, esi
  00023	5e		 pop	 esi
  00024	5d		 pop	 ebp
  00025	c2 04 00	 ret	 4
??_G?$CEncrypt@K@@UAEPAXI@Z ENDP			; CEncrypt<unsigned long>::`scalar deleting destructor'
; Function compile flags: /Ogsp
_TEXT	ENDS
;	COMDAT ??_G?$CEncrypt@_N@@UAEPAXI@Z
_TEXT	SEGMENT
___flags$ = 8						; size = 4
??_G?$CEncrypt@_N@@UAEPAXI@Z PROC			; CEncrypt<bool>::`scalar deleting destructor', COMDAT
; _this$ = ecx
  00000	55		 push	 ebp
  00001	8b ec		 mov	 ebp, esp
  00003	56		 push	 esi
  00004	8b f1		 mov	 esi, ecx
  00006	8d 4e 0c	 lea	 ecx, DWORD PTR [esi+12]
  00009	c7 06 00 00 00
	00		 mov	 DWORD PTR [esi], OFFSET ??_7?$CEncrypt@_N@@6B@
  0000f	e8 00 00 00 00	 call	 ??1ccddaabb@@UAE@XZ	; ccddaabb::~ccddaabb
  00014	f6 45 08 01	 test	 BYTE PTR ___flags$[ebp], 1
  00018	74 07		 je	 SHORT $LN1@scalar@3
  0001a	56		 push	 esi
  0001b	e8 00 00 00 00	 call	 ??3@YAXPAX@Z		; operator delete
  00020	59		 pop	 ecx
$LN1@scalar@3:
  00021	8b c6		 mov	 eax, esi
  00023	5e		 pop	 esi
  00024	5d		 pop	 ebp
  00025	c2 04 00	 ret	 4
??_G?$CEncrypt@_N@@UAEPAXI@Z ENDP			; CEncrypt<bool>::`scalar deleting destructor'
_TEXT	ENDS
PUBLIC	?EncryptValueToPool@?$CEncrypt@M@@AAEXPBD@Z	; CEncrypt<float>::EncryptValueToPool
EXTRN	?EncryptByte@ccddaabb@@QAEXPBDPADH@Z:PROC	; ccddaabb::EncryptByte
; Function compile flags: /Ogsp
;	COMDAT ?EncryptValueToPool@?$CEncrypt@M@@AAEXPBD@Z
_TEXT	SEGMENT
_value$ = 8						; size = 4
?EncryptValueToPool@?$CEncrypt@M@@AAEXPBD@Z PROC	; CEncrypt<float>::EncryptValueToPool, COMDAT
; _this$ = ecx

; 67   : 	{

  00000	55		 push	 ebp
  00001	8b ec		 mov	 ebp, esp

; 68   : 		m_RC5.EncryptByte( value, m_MemPool, max(m_ValueSize, DEFAULT_ENCRYPT) );

  00003	0f b7 41 06	 movzx	 eax, WORD PTR [ecx+6]
  00007	83 f8 04	 cmp	 eax, 4
  0000a	77 03		 ja	 SHORT $LN4@EncryptVal
  0000c	6a 04		 push	 4
  0000e	58		 pop	 eax
$LN4@EncryptVal:
  0000f	50		 push	 eax
  00010	8d 41 1c	 lea	 eax, DWORD PTR [ecx+28]
  00013	50		 push	 eax
  00014	ff 75 08	 push	 DWORD PTR _value$[ebp]
  00017	83 c1 0c	 add	 ecx, 12			; 0000000cH
  0001a	e8 00 00 00 00	 call	 ?EncryptByte@ccddaabb@@QAEXPBDPADH@Z ; ccddaabb::EncryptByte

; 69   : 		
; 70   : 	}

  0001f	5d		 pop	 ebp
  00020	c2 04 00	 ret	 4
?EncryptValueToPool@?$CEncrypt@M@@AAEXPBD@Z ENDP	; CEncrypt<float>::EncryptValueToPool
_TEXT	ENDS
PUBLIC	?Init@?$CEncrypt@M@@AAEXXZ			; CEncrypt<float>::Init
EXTRN	?Setup@ccddaabb@@QAEXPBDHH@Z:PROC		; ccddaabb::Setup
EXTRN	__imp__rand:PROC
EXTRN	__imp__timeGetTime@0:PROC
EXTRN	__imp__GetCurrentProcessId@0:PROC
; Function compile flags: /Ogsp
;	COMDAT ?Init@?$CEncrypt@M@@AAEXXZ
_TEXT	SEGMENT
_pid$ = -8						; size = 4
_tick$ = -4						; size = 4
?Init@?$CEncrypt@M@@AAEXXZ PROC				; CEncrypt<float>::Init, COMDAT
; _this$ = ecx

; 73   : 	{

  00000	55		 push	 ebp
  00001	8b ec		 mov	 ebp, esp
  00003	51		 push	 ecx
  00004	51		 push	 ecx
  00005	53		 push	 ebx
  00006	56		 push	 esi
  00007	57		 push	 edi
  00008	8b f1		 mov	 esi, ecx

; 74   : 		DWORD pid = GetCurrentProcessId();

  0000a	ff 15 00 00 00
	00		 call	 DWORD PTR __imp__GetCurrentProcessId@0
  00010	89 45 f8	 mov	 DWORD PTR _pid$[ebp], eax

; 75   : 		DWORD tick = timeGetTime();

  00013	ff 15 00 00 00
	00		 call	 DWORD PTR __imp__timeGetTime@0

; 76   : 		m_ValueSize    = sizeof(type);
; 77   : 		m_MemPoolPos   = (unsigned short)( rand()+pid+tick )%(MAX_MEM_POOL-m_ValueSize);

  00019	8b 3d 00 00 00
	00		 mov	 edi, DWORD PTR __imp__rand
  0001f	89 45 fc	 mov	 DWORD PTR _tick$[ebp], eax
  00022	6a 04		 push	 4
  00024	58		 pop	 eax
  00025	66 89 46 06	 mov	 WORD PTR [esi+6], ax
  00029	ff d7		 call	 edi
  0002b	03 45 f8	 add	 eax, DWORD PTR _pid$[ebp]
  0002e	0f b7 4e 06	 movzx	 ecx, WORD PTR [esi+6]
  00032	03 45 fc	 add	 eax, DWORD PTR _tick$[ebp]
  00035	6a 0c		 push	 12			; 0000000cH
  00037	0f b7 c0	 movzx	 eax, ax
  0003a	5b		 pop	 ebx
  0003b	99		 cdq
  0003c	2b d9		 sub	 ebx, ecx
  0003e	f7 fb		 idiv	 ebx
  00040	66 89 56 04	 mov	 WORD PTR [esi+4], dx

; 78   : 		m_EncryptSeed  = (char)( rand()+pid+tick )%256;

  00044	ff d7		 call	 edi
  00046	02 45 f8	 add	 al, BYTE PTR _pid$[ebp]
  00049	02 45 fc	 add	 al, BYTE PTR _tick$[ebp]
  0004c	0f be c0	 movsx	 eax, al
  0004f	25 ff 00 00 80	 and	 eax, -2147483393	; 800000ffH
  00054	79 07		 jns	 SHORT $LN8@Init
  00056	48		 dec	 eax
  00057	0d 00 ff ff ff	 or	 eax, -256		; ffffff00H
  0005c	40		 inc	 eax
$LN8@Init:
  0005d	88 46 08	 mov	 BYTE PTR [esi+8], al

; 79   : 
; 80   : 		for (int i = 0; i < MAX_MEM_POOL ; i++)

  00060	33 db		 xor	 ebx, ebx
$LL3@Init:

; 81   : 			m_MemPool[i] = (char)( rand()+pid+tick )%256; // 

  00062	ff d7		 call	 edi
  00064	02 45 f8	 add	 al, BYTE PTR _pid$[ebp]
  00067	02 45 fc	 add	 al, BYTE PTR _tick$[ebp]
  0006a	0f be c0	 movsx	 eax, al
  0006d	25 ff 00 00 80	 and	 eax, -2147483393	; 800000ffH
  00072	79 07		 jns	 SHORT $LN9@Init
  00074	48		 dec	 eax
  00075	0d 00 ff ff ff	 or	 eax, -256		; ffffff00H
  0007a	40		 inc	 eax
$LN9@Init:
  0007b	88 44 1e 1c	 mov	 BYTE PTR [esi+ebx+28], al
  0007f	43		 inc	 ebx
  00080	83 fb 0c	 cmp	 ebx, 12			; 0000000cH
  00083	7c dd		 jl	 SHORT $LL3@Init

; 82   : 
; 83   : 		//UJ 130913, : szKey  
; 84   : 		//char szKey[ccddaabb::KEY_SIZE];//="";
; 85   : 		//for (int i = 0; i < ccddaabb::KEY_SIZE  ; i++)
; 86   : 		//	szKey[i] = (char)( rand()+pid+tick )%256; // 
; 87   : 		m_RC5.Setup( NULL, pid, tick );

  00085	ff 75 fc	 push	 DWORD PTR _tick$[ebp]
  00088	8d 4e 0c	 lea	 ecx, DWORD PTR [esi+12]
  0008b	ff 75 f8	 push	 DWORD PTR _pid$[ebp]
  0008e	6a 00		 push	 0
  00090	e8 00 00 00 00	 call	 ?Setup@ccddaabb@@QAEXPBDHH@Z ; ccddaabb::Setup
  00095	5f		 pop	 edi
  00096	5e		 pop	 esi
  00097	5b		 pop	 ebx

; 88   : 
; 89   : #ifdef _NOTUSE
; 90   : 		m_value        = 0;
; 91   : 		EncryptValueToPool((char*)&m_value);
; 92   : 		Debug();
; 93   : #endif
; 94   : 	}

  00098	c9		 leave
  00099	c3		 ret	 0
?Init@?$CEncrypt@M@@AAEXXZ ENDP				; CEncrypt<float>::Init
_TEXT	ENDS
PUBLIC	?DecryptValueToPool@?$CEncrypt@M@@QAEXPAM@Z	; CEncrypt<float>::DecryptValueToPool
EXTRN	?DecryptByte@ccddaabb@@QBEXPBDPADH@Z:PROC	; ccddaabb::DecryptByte
; Function compile flags: /Ogsp
;	COMDAT ?DecryptValueToPool@?$CEncrypt@M@@QAEXPAM@Z
_TEXT	SEGMENT
_value$ = 8						; size = 4
?DecryptValueToPool@?$CEncrypt@M@@QAEXPAM@Z PROC	; CEncrypt<float>::DecryptValueToPool, COMDAT
; _this$ = ecx

; 1648 : 	{

  00000	55		 push	 ebp
  00001	8b ec		 mov	 ebp, esp
  00003	56		 push	 esi

; 1649 : 		m_RC5.DecryptByte( m_MemPool, m_TempMem, 4 );

  00004	8d 71 28	 lea	 esi, DWORD PTR [ecx+40]
  00007	6a 04		 push	 4
  00009	8d 41 1c	 lea	 eax, DWORD PTR [ecx+28]
  0000c	56		 push	 esi
  0000d	50		 push	 eax
  0000e	83 c1 0c	 add	 ecx, 12			; 0000000cH
  00011	e8 00 00 00 00	 call	 ?DecryptByte@ccddaabb@@QBEXPBDPADH@Z ; ccddaabb::DecryptByte

; 1650 : 		*value = *((float*)m_TempMem);

  00016	d9 06		 fld	 DWORD PTR [esi]
  00018	8b 45 08	 mov	 eax, DWORD PTR _value$[ebp]
  0001b	d9 18		 fstp	 DWORD PTR [eax]
  0001d	5e		 pop	 esi

; 1651 : 	}

  0001e	5d		 pop	 ebp
  0001f	c2 04 00	 ret	 4
?DecryptValueToPool@?$CEncrypt@M@@QAEXPAM@Z ENDP	; CEncrypt<float>::DecryptValueToPool
_TEXT	ENDS
PUBLIC	?EncryptValueToPool@?$CEncrypt@K@@AAEXPBD@Z	; CEncrypt<unsigned long>::EncryptValueToPool
; Function compile flags: /Ogsp
;	COMDAT ?EncryptValueToPool@?$CEncrypt@K@@AAEXPBD@Z
_TEXT	SEGMENT
_value$ = 8						; size = 4
?EncryptValueToPool@?$CEncrypt@K@@AAEXPBD@Z PROC	; CEncrypt<unsigned long>::EncryptValueToPool, COMDAT
; _this$ = ecx

; 67   : 	{

  00000	55		 push	 ebp
  00001	8b ec		 mov	 ebp, esp

; 68   : 		m_RC5.EncryptByte( value, m_MemPool, max(m_ValueSize, DEFAULT_ENCRYPT) );

  00003	0f b7 41 06	 movzx	 eax, WORD PTR [ecx+6]
  00007	83 f8 04	 cmp	 eax, 4
  0000a	77 03		 ja	 SHORT $LN4@EncryptVal@2
  0000c	6a 04		 push	 4
  0000e	58		 pop	 eax
$LN4@EncryptVal@2:
  0000f	50		 push	 eax
  00010	8d 41 1c	 lea	 eax, DWORD PTR [ecx+28]
  00013	50		 push	 eax
  00014	ff 75 08	 push	 DWORD PTR _value$[ebp]
  00017	83 c1 0c	 add	 ecx, 12			; 0000000cH
  0001a	e8 00 00 00 00	 call	 ?EncryptByte@ccddaabb@@QAEXPBDPADH@Z ; ccddaabb::EncryptByte

; 69   : 		
; 70   : 	}

  0001f	5d		 pop	 ebp
  00020	c2 04 00	 ret	 4
?EncryptValueToPool@?$CEncrypt@K@@AAEXPBD@Z ENDP	; CEncrypt<unsigned long>::EncryptValueToPool
_TEXT	ENDS
PUBLIC	?Init@?$CEncrypt@K@@AAEXXZ			; CEncrypt<unsigned long>::Init
; Function compile flags: /Ogsp
;	COMDAT ?Init@?$CEncrypt@K@@AAEXXZ
_TEXT	SEGMENT
_pid$ = -8						; size = 4
_tick$ = -4						; size = 4
?Init@?$CEncrypt@K@@AAEXXZ PROC				; CEncrypt<unsigned long>::Init, COMDAT
; _this$ = ecx

; 73   : 	{

  00000	55		 push	 ebp
  00001	8b ec		 mov	 ebp, esp
  00003	51		 push	 ecx
  00004	51		 push	 ecx
  00005	53		 push	 ebx
  00006	56		 push	 esi
  00007	57		 push	 edi
  00008	8b f1		 mov	 esi, ecx

; 74   : 		DWORD pid = GetCurrentProcessId();

  0000a	ff 15 00 00 00
	00		 call	 DWORD PTR __imp__GetCurrentProcessId@0
  00010	89 45 f8	 mov	 DWORD PTR _pid$[ebp], eax

; 75   : 		DWORD tick = timeGetTime();

  00013	ff 15 00 00 00
	00		 call	 DWORD PTR __imp__timeGetTime@0

; 76   : 		m_ValueSize    = sizeof(type);
; 77   : 		m_MemPoolPos   = (unsigned short)( rand()+pid+tick )%(MAX_MEM_POOL-m_ValueSize);

  00019	8b 3d 00 00 00
	00		 mov	 edi, DWORD PTR __imp__rand
  0001f	89 45 fc	 mov	 DWORD PTR _tick$[ebp], eax
  00022	6a 04		 push	 4
  00024	58		 pop	 eax
  00025	66 89 46 06	 mov	 WORD PTR [esi+6], ax
  00029	ff d7		 call	 edi
  0002b	03 45 f8	 add	 eax, DWORD PTR _pid$[ebp]
  0002e	0f b7 4e 06	 movzx	 ecx, WORD PTR [esi+6]
  00032	03 45 fc	 add	 eax, DWORD PTR _tick$[ebp]
  00035	6a 0c		 push	 12			; 0000000cH
  00037	0f b7 c0	 movzx	 eax, ax
  0003a	5b		 pop	 ebx
  0003b	99		 cdq
  0003c	2b d9		 sub	 ebx, ecx
  0003e	f7 fb		 idiv	 ebx
  00040	66 89 56 04	 mov	 WORD PTR [esi+4], dx

; 78   : 		m_EncryptSeed  = (char)( rand()+pid+tick )%256;

  00044	ff d7		 call	 edi
  00046	02 45 f8	 add	 al, BYTE PTR _pid$[ebp]
  00049	02 45 fc	 add	 al, BYTE PTR _tick$[ebp]
  0004c	0f be c0	 movsx	 eax, al
  0004f	25 ff 00 00 80	 and	 eax, -2147483393	; 800000ffH
  00054	79 07		 jns	 SHORT $LN8@Init@2
  00056	48		 dec	 eax
  00057	0d 00 ff ff ff	 or	 eax, -256		; ffffff00H
  0005c	40		 inc	 eax
$LN8@Init@2:
  0005d	88 46 08	 mov	 BYTE PTR [esi+8], al

; 79   : 
; 80   : 		for (int i = 0; i < MAX_MEM_POOL ; i++)

  00060	33 db		 xor	 ebx, ebx
$LL3@Init@2:

; 81   : 			m_MemPool[i] = (char)( rand()+pid+tick )%256; // 

  00062	ff d7		 call	 edi
  00064	02 45 f8	 add	 al, BYTE PTR _pid$[ebp]
  00067	02 45 fc	 add	 al, BYTE PTR _tick$[ebp]
  0006a	0f be c0	 movsx	 eax, al
  0006d	25 ff 00 00 80	 and	 eax, -2147483393	; 800000ffH
  00072	79 07		 jns	 SHORT $LN9@Init@2
  00074	48		 dec	 eax
  00075	0d 00 ff ff ff	 or	 eax, -256		; ffffff00H
  0007a	40		 inc	 eax
$LN9@Init@2:
  0007b	88 44 1e 1c	 mov	 BYTE PTR [esi+ebx+28], al
  0007f	43		 inc	 ebx
  00080	83 fb 0c	 cmp	 ebx, 12			; 0000000cH
  00083	7c dd		 jl	 SHORT $LL3@Init@2

; 82   : 
; 83   : 		//UJ 130913, : szKey  
; 84   : 		//char szKey[ccddaabb::KEY_SIZE];//="";
; 85   : 		//for (int i = 0; i < ccddaabb::KEY_SIZE  ; i++)
; 86   : 		//	szKey[i] = (char)( rand()+pid+tick )%256; // 
; 87   : 		m_RC5.Setup( NULL, pid, tick );

  00085	ff 75 fc	 push	 DWORD PTR _tick$[ebp]
  00088	8d 4e 0c	 lea	 ecx, DWORD PTR [esi+12]
  0008b	ff 75 f8	 push	 DWORD PTR _pid$[ebp]
  0008e	6a 00		 push	 0
  00090	e8 00 00 00 00	 call	 ?Setup@ccddaabb@@QAEXPBDHH@Z ; ccddaabb::Setup
  00095	5f		 pop	 edi
  00096	5e		 pop	 esi
  00097	5b		 pop	 ebx

; 88   : 
; 89   : #ifdef _NOTUSE
; 90   : 		m_value        = 0;
; 91   : 		EncryptValueToPool((char*)&m_value);
; 92   : 		Debug();
; 93   : #endif
; 94   : 	}

  00098	c9		 leave
  00099	c3		 ret	 0
?Init@?$CEncrypt@K@@AAEXXZ ENDP				; CEncrypt<unsigned long>::Init
_TEXT	ENDS
PUBLIC	?DecryptValueToPool@?$CEncrypt@K@@QAEXPAK@Z	; CEncrypt<unsigned long>::DecryptValueToPool
; Function compile flags: /Ogsp
;	COMDAT ?DecryptValueToPool@?$CEncrypt@K@@QAEXPAK@Z
_TEXT	SEGMENT
_value$ = 8						; size = 4
?DecryptValueToPool@?$CEncrypt@K@@QAEXPAK@Z PROC	; CEncrypt<unsigned long>::DecryptValueToPool, COMDAT
; _this$ = ecx

; 1256 : 	{

  00000	55		 push	 ebp
  00001	8b ec		 mov	 ebp, esp
  00003	56		 push	 esi

; 1257 : 		m_RC5.DecryptByte( m_MemPool, m_TempMem, 4 );

  00004	8d 71 28	 lea	 esi, DWORD PTR [ecx+40]
  00007	6a 04		 push	 4
  00009	8d 41 1c	 lea	 eax, DWORD PTR [ecx+28]
  0000c	56		 push	 esi
  0000d	50		 push	 eax
  0000e	83 c1 0c	 add	 ecx, 12			; 0000000cH
  00011	e8 00 00 00 00	 call	 ?DecryptByte@ccddaabb@@QBEXPBDPADH@Z ; ccddaabb::DecryptByte

; 1258 : 		*value = *((DWORD*)m_TempMem);

  00016	8b 06		 mov	 eax, DWORD PTR [esi]
  00018	8b 4d 08	 mov	 ecx, DWORD PTR _value$[ebp]
  0001b	89 01		 mov	 DWORD PTR [ecx], eax
  0001d	5e		 pop	 esi

; 1259 : 	}

  0001e	5d		 pop	 ebp
  0001f	c2 04 00	 ret	 4
?DecryptValueToPool@?$CEncrypt@K@@QAEXPAK@Z ENDP	; CEncrypt<unsigned long>::DecryptValueToPool
_TEXT	ENDS
PUBLIC	?EncryptValueToPool@?$CEncrypt@_N@@AAEXPBD@Z	; CEncrypt<bool>::EncryptValueToPool
; Function compile flags: /Ogsp
;	COMDAT ?EncryptValueToPool@?$CEncrypt@_N@@AAEXPBD@Z
_TEXT	SEGMENT
_value$ = 8						; size = 4
?EncryptValueToPool@?$CEncrypt@_N@@AAEXPBD@Z PROC	; CEncrypt<bool>::EncryptValueToPool, COMDAT
; _this$ = ecx

; 67   : 	{

  00000	55		 push	 ebp
  00001	8b ec		 mov	 ebp, esp

; 68   : 		m_RC5.EncryptByte( value, m_MemPool, max(m_ValueSize, DEFAULT_ENCRYPT) );

  00003	0f b7 41 06	 movzx	 eax, WORD PTR [ecx+6]
  00007	83 f8 04	 cmp	 eax, 4
  0000a	77 03		 ja	 SHORT $LN4@EncryptVal@3
  0000c	6a 04		 push	 4
  0000e	58		 pop	 eax
$LN4@EncryptVal@3:
  0000f	50		 push	 eax
  00010	8d 41 1c	 lea	 eax, DWORD PTR [ecx+28]
  00013	50		 push	 eax
  00014	ff 75 08	 push	 DWORD PTR _value$[ebp]
  00017	83 c1 0c	 add	 ecx, 12			; 0000000cH
  0001a	e8 00 00 00 00	 call	 ?EncryptByte@ccddaabb@@QAEXPBDPADH@Z ; ccddaabb::EncryptByte

; 69   : 		
; 70   : 	}

  0001f	5d		 pop	 ebp
  00020	c2 04 00	 ret	 4
?EncryptValueToPool@?$CEncrypt@_N@@AAEXPBD@Z ENDP	; CEncrypt<bool>::EncryptValueToPool
_TEXT	ENDS
PUBLIC	?Init@?$CEncrypt@_N@@AAEXXZ			; CEncrypt<bool>::Init
; Function compile flags: /Ogsp
;	COMDAT ?Init@?$CEncrypt@_N@@AAEXXZ
_TEXT	SEGMENT
_pid$ = -8						; size = 4
_tick$ = -4						; size = 4
?Init@?$CEncrypt@_N@@AAEXXZ PROC			; CEncrypt<bool>::Init, COMDAT
; _this$ = ecx

; 73   : 	{

  00000	55		 push	 ebp
  00001	8b ec		 mov	 ebp, esp
  00003	51		 push	 ecx
  00004	51		 push	 ecx
  00005	53		 push	 ebx
  00006	56		 push	 esi
  00007	57		 push	 edi
  00008	8b f1		 mov	 esi, ecx

; 74   : 		DWORD pid = GetCurrentProcessId();

  0000a	ff 15 00 00 00
	00		 call	 DWORD PTR __imp__GetCurrentProcessId@0
  00010	89 45 f8	 mov	 DWORD PTR _pid$[ebp], eax

; 75   : 		DWORD tick = timeGetTime();

  00013	ff 15 00 00 00
	00		 call	 DWORD PTR __imp__timeGetTime@0

; 76   : 		m_ValueSize    = sizeof(type);
; 77   : 		m_MemPoolPos   = (unsigned short)( rand()+pid+tick )%(MAX_MEM_POOL-m_ValueSize);

  00019	8b 3d 00 00 00
	00		 mov	 edi, DWORD PTR __imp__rand
  0001f	89 45 fc	 mov	 DWORD PTR _tick$[ebp], eax
  00022	33 c0		 xor	 eax, eax
  00024	40		 inc	 eax
  00025	66 89 46 06	 mov	 WORD PTR [esi+6], ax
  00029	ff d7		 call	 edi
  0002b	03 45 f8	 add	 eax, DWORD PTR _pid$[ebp]
  0002e	0f b7 4e 06	 movzx	 ecx, WORD PTR [esi+6]
  00032	03 45 fc	 add	 eax, DWORD PTR _tick$[ebp]
  00035	6a 0c		 push	 12			; 0000000cH
  00037	0f b7 c0	 movzx	 eax, ax
  0003a	5b		 pop	 ebx
  0003b	99		 cdq
  0003c	2b d9		 sub	 ebx, ecx
  0003e	f7 fb		 idiv	 ebx
  00040	66 89 56 04	 mov	 WORD PTR [esi+4], dx

; 78   : 		m_EncryptSeed  = (char)( rand()+pid+tick )%256;

  00044	ff d7		 call	 edi
  00046	02 45 f8	 add	 al, BYTE PTR _pid$[ebp]
  00049	02 45 fc	 add	 al, BYTE PTR _tick$[ebp]
  0004c	0f be c0	 movsx	 eax, al
  0004f	25 ff 00 00 80	 and	 eax, -2147483393	; 800000ffH
  00054	79 07		 jns	 SHORT $LN8@Init@3
  00056	48		 dec	 eax
  00057	0d 00 ff ff ff	 or	 eax, -256		; ffffff00H
  0005c	40		 inc	 eax
$LN8@Init@3:
  0005d	88 46 08	 mov	 BYTE PTR [esi+8], al

; 79   : 
; 80   : 		for (int i = 0; i < MAX_MEM_POOL ; i++)

  00060	33 db		 xor	 ebx, ebx
$LL3@Init@3:

; 81   : 			m_MemPool[i] = (char)( rand()+pid+tick )%256; // 

  00062	ff d7		 call	 edi
  00064	02 45 f8	 add	 al, BYTE PTR _pid$[ebp]
  00067	02 45 fc	 add	 al, BYTE PTR _tick$[ebp]
  0006a	0f be c0	 movsx	 eax, al
  0006d	25 ff 00 00 80	 and	 eax, -2147483393	; 800000ffH
  00072	79 07		 jns	 SHORT $LN9@Init@3
  00074	48		 dec	 eax
  00075	0d 00 ff ff ff	 or	 eax, -256		; ffffff00H
  0007a	40		 inc	 eax
$LN9@Init@3:
  0007b	88 44 1e 1c	 mov	 BYTE PTR [esi+ebx+28], al
  0007f	43		 inc	 ebx
  00080	83 fb 0c	 cmp	 ebx, 12			; 0000000cH
  00083	7c dd		 jl	 SHORT $LL3@Init@3

; 82   : 
; 83   : 		//UJ 130913, : szKey  
; 84   : 		//char szKey[ccddaabb::KEY_SIZE];//="";
; 85   : 		//for (int i = 0; i < ccddaabb::KEY_SIZE  ; i++)
; 86   : 		//	szKey[i] = (char)( rand()+pid+tick )%256; // 
; 87   : 		m_RC5.Setup( NULL, pid, tick );

  00085	ff 75 fc	 push	 DWORD PTR _tick$[ebp]
  00088	8d 4e 0c	 lea	 ecx, DWORD PTR [esi+12]
  0008b	ff 75 f8	 push	 DWORD PTR _pid$[ebp]
  0008e	6a 00		 push	 0
  00090	e8 00 00 00 00	 call	 ?Setup@ccddaabb@@QAEXPBDHH@Z ; ccddaabb::Setup
  00095	5f		 pop	 edi
  00096	5e		 pop	 esi
  00097	5b		 pop	 ebx

; 88   : 
; 89   : #ifdef _NOTUSE
; 90   : 		m_value        = 0;
; 91   : 		EncryptValueToPool((char*)&m_value);
; 92   : 		Debug();
; 93   : #endif
; 94   : 	}

  00098	c9		 leave
  00099	c3		 ret	 0
?Init@?$CEncrypt@_N@@AAEXXZ ENDP			; CEncrypt<bool>::Init
_TEXT	ENDS
PUBLIC	?DecryptValueToPool@?$CEncrypt@_N@@QAEXPA_N@Z	; CEncrypt<bool>::DecryptValueToPool
; Function compile flags: /Ogsp
;	COMDAT ?DecryptValueToPool@?$CEncrypt@_N@@QAEXPA_N@Z
_TEXT	SEGMENT
_value$ = 8						; size = 4
?DecryptValueToPool@?$CEncrypt@_N@@QAEXPA_N@Z PROC	; CEncrypt<bool>::DecryptValueToPool, COMDAT
; _this$ = ecx

; 219  : 	{

  00000	55		 push	 ebp
  00001	8b ec		 mov	 ebp, esp
  00003	56		 push	 esi

; 220  : 		m_RC5.DecryptByte( m_MemPool, m_TempMem, 4 );

  00004	8d 71 28	 lea	 esi, DWORD PTR [ecx+40]
  00007	6a 04		 push	 4
  00009	8d 41 1c	 lea	 eax, DWORD PTR [ecx+28]
  0000c	56		 push	 esi
  0000d	50		 push	 eax
  0000e	83 c1 0c	 add	 ecx, 12			; 0000000cH
  00011	e8 00 00 00 00	 call	 ?DecryptByte@ccddaabb@@QBEXPBDPADH@Z ; ccddaabb::DecryptByte

; 221  : 		*value = *((bool*)m_TempMem);

  00016	8a 06		 mov	 al, BYTE PTR [esi]
  00018	8b 4d 08	 mov	 ecx, DWORD PTR _value$[ebp]
  0001b	88 01		 mov	 BYTE PTR [ecx], al
  0001d	5e		 pop	 esi

; 222  : 	}

  0001e	5d		 pop	 ebp
  0001f	c2 04 00	 ret	 4
?DecryptValueToPool@?$CEncrypt@_N@@QAEXPA_N@Z ENDP	; CEncrypt<bool>::DecryptValueToPool
_TEXT	ENDS
PUBLIC	?DecryptValueToPool@?$CEncrypt@W4TeamType@@@@QAEXPAW4TeamType@@@Z ; CEncrypt<enum TeamType>::DecryptValueToPool
; Function compile flags: /Ogsp
;	COMDAT ?DecryptValueToPool@?$CEncrypt@W4TeamType@@@@QAEXPAW4TeamType@@@Z
_TEXT	SEGMENT
_value$ = 8						; size = 4
?DecryptValueToPool@?$CEncrypt@W4TeamType@@@@QAEXPAW4TeamType@@@Z PROC ; CEncrypt<enum TeamType>::DecryptValueToPool, COMDAT
; _this$ = ecx

; 2959 : 	{

  00000	55		 push	 ebp
  00001	8b ec		 mov	 ebp, esp
  00003	56		 push	 esi

; 2960 : 		m_RC5.DecryptByte( m_MemPool, m_TempMem, sizeof(TeamType) );

  00004	8d 71 28	 lea	 esi, DWORD PTR [ecx+40]
  00007	6a 04		 push	 4
  00009	8d 41 1c	 lea	 eax, DWORD PTR [ecx+28]
  0000c	56		 push	 esi
  0000d	50		 push	 eax
  0000e	83 c1 0c	 add	 ecx, 12			; 0000000cH
  00011	e8 00 00 00 00	 call	 ?DecryptByte@ccddaabb@@QBEXPBDPADH@Z ; ccddaabb::DecryptByte

; 2961 : 		*value = *((TeamType*)m_TempMem);

  00016	8b 06		 mov	 eax, DWORD PTR [esi]
  00018	8b 4d 08	 mov	 ecx, DWORD PTR _value$[ebp]
  0001b	89 01		 mov	 DWORD PTR [ecx], eax
  0001d	5e		 pop	 esi

; 2962 : 	}

  0001e	5d		 pop	 ebp
  0001f	c2 04 00	 ret	 4
?DecryptValueToPool@?$CEncrypt@W4TeamType@@@@QAEXPAW4TeamType@@@Z ENDP ; CEncrypt<enum TeamType>::DecryptValueToPool
_TEXT	ENDS
PUBLIC	??0WeaponInfo@@QAE@ABU0@@Z			; WeaponInfo::WeaponInfo
EXTRN	__imp_??0ioHashString@@QAE@ABV0@@Z:PROC
; Function compile flags: /Ogsp
;	COMDAT ??0WeaponInfo@@QAE@ABU0@@Z
_TEXT	SEGMENT
___that$ = 8						; size = 4
??0WeaponInfo@@QAE@ABU0@@Z PROC				; WeaponInfo::WeaponInfo, COMDAT
; _this$ = ecx
  00000	55		 push	 ebp
  00001	8b ec		 mov	 ebp, esp
  00003	56		 push	 esi
  00004	57		 push	 edi
  00005	8b 7d 08	 mov	 edi, DWORD PTR ___that$[ebp]
  00008	8b 07		 mov	 eax, DWORD PTR [edi]
  0000a	8b f1		 mov	 esi, ecx
  0000c	89 06		 mov	 DWORD PTR [esi], eax
  0000e	8b 47 04	 mov	 eax, DWORD PTR [edi+4]
  00011	89 46 04	 mov	 DWORD PTR [esi+4], eax
  00014	8d 47 08	 lea	 eax, DWORD PTR [edi+8]
  00017	50		 push	 eax
  00018	8d 4e 08	 lea	 ecx, DWORD PTR [esi+8]
  0001b	ff 15 00 00 00
	00		 call	 DWORD PTR __imp_??0ioHashString@@QAE@ABV0@@Z
  00021	8b 47 18	 mov	 eax, DWORD PTR [edi+24]
  00024	89 46 18	 mov	 DWORD PTR [esi+24], eax
  00027	8b 47 1c	 mov	 eax, DWORD PTR [edi+28]
  0002a	89 46 1c	 mov	 DWORD PTR [esi+28], eax
  0002d	8a 47 20	 mov	 al, BYTE PTR [edi+32]
  00030	88 46 20	 mov	 BYTE PTR [esi+32], al
  00033	8b 47 24	 mov	 eax, DWORD PTR [edi+36]
  00036	89 46 24	 mov	 DWORD PTR [esi+36], eax
  00039	5f		 pop	 edi
  0003a	8b c6		 mov	 eax, esi
  0003c	5e		 pop	 esi
  0003d	5d		 pop	 ebp
  0003e	c2 04 00	 ret	 4
??0WeaponInfo@@QAE@ABU0@@Z ENDP				; WeaponInfo::WeaponInfo
_TEXT	ENDS
PUBLIC	??_7ioObjectChargeShotItem@@6B@			; ioObjectChargeShotItem::`vftable'
PUBLIC	??1ioObjectChargeShotItem@@UAE@XZ		; ioObjectChargeShotItem::~ioObjectChargeShotItem
PUBLIC	??_R4ioObjectChargeShotItem@@6B@		; ioObjectChargeShotItem::`RTTI Complete Object Locator'
PUBLIC	??_R0?AVioObjectChargeShotItem@@@8		; ioObjectChargeShotItem `RTTI Type Descriptor'
PUBLIC	??_R3ioObjectChargeShotItem@@8			; ioObjectChargeShotItem::`RTTI Class Hierarchy Descriptor'
PUBLIC	??_R2ioObjectChargeShotItem@@8			; ioObjectChargeShotItem::`RTTI Base Class Array'
PUBLIC	??_R1A@?0A@EA@ioObjectChargeShotItem@@8		; ioObjectChargeShotItem::`RTTI Base Class Descriptor at (0,-1,0,64)'
PUBLIC	??_R1A@?0A@EA@ioObjectItem@@8			; ioObjectItem::`RTTI Base Class Descriptor at (0,-1,0,64)'
PUBLIC	??_R0?AVioObjectItem@@@8			; ioObjectItem `RTTI Type Descriptor'
PUBLIC	??_R3ioObjectItem@@8				; ioObjectItem::`RTTI Class Hierarchy Descriptor'
PUBLIC	??_R2ioObjectItem@@8				; ioObjectItem::`RTTI Base Class Array'
PUBLIC	??_R1A@?0A@EA@ioWeaponItem@@8			; ioWeaponItem::`RTTI Base Class Descriptor at (0,-1,0,64)'
PUBLIC	??_R0?AVioWeaponItem@@@8			; ioWeaponItem `RTTI Type Descriptor'
PUBLIC	??_R3ioWeaponItem@@8				; ioWeaponItem::`RTTI Class Hierarchy Descriptor'
PUBLIC	??_R2ioWeaponItem@@8				; ioWeaponItem::`RTTI Base Class Array'
PUBLIC	??_R1A@?0A@EA@ioAttackableItem@@8		; ioAttackableItem::`RTTI Base Class Descriptor at (0,-1,0,64)'
PUBLIC	??_R0?AVioAttackableItem@@@8			; ioAttackableItem `RTTI Type Descriptor'
PUBLIC	??_R3ioAttackableItem@@8			; ioAttackableItem::`RTTI Class Hierarchy Descriptor'
PUBLIC	??_R2ioAttackableItem@@8			; ioAttackableItem::`RTTI Base Class Array'
PUBLIC	??_R1A@?0A@EA@ioItem@@8				; ioItem::`RTTI Base Class Descriptor at (0,-1,0,64)'
PUBLIC	??_R0?AVioItem@@@8				; ioItem `RTTI Type Descriptor'
PUBLIC	??_R3ioItem@@8					; ioItem::`RTTI Class Hierarchy Descriptor'
PUBLIC	??_R2ioItem@@8					; ioItem::`RTTI Base Class Array'
PUBLIC	?LoadProperty@ioObjectChargeShotItem@@UAEXAAVioINILoader@@@Z ; ioObjectChargeShotItem::LoadProperty
PUBLIC	?Clone@ioObjectChargeShotItem@@UAEPAVioItem@@XZ	; ioObjectChargeShotItem::Clone
PUBLIC	?IsEnableExtraGauge@ioItem@@UAE_NPAVioBaseChar@@@Z ; ioItem::IsEnableExtraGauge
PUBLIC	?GetExtraGauge@ioItem@@UAEMXZ			; ioItem::GetExtraGauge
PUBLIC	?SetExtraInfoToWeapon@ioObjectChargeShotItem@@UAEXPAVioWeapon@@_N@Z ; ioObjectChargeShotItem::SetExtraInfoToWeapon
PUBLIC	?SetNormalAttack@ioObjectChargeShotItem@@UAEXPAVioBaseChar@@H@Z ; ioObjectChargeShotItem::SetNormalAttack
PUBLIC	?CheckNormalAttack@ioObjectChargeShotItem@@UAEXPAVioBaseChar@@@Z ; ioObjectChargeShotItem::CheckNormalAttack
PUBLIC	?OnItemGaugeOK@ioObjectChargeShotItem@@UAEXPAVioBaseChar@@AAVSP2Packet@@@Z ; ioObjectChargeShotItem::OnItemGaugeOK
PUBLIC	?CheckOnHand@ioAttackableItem@@UAE_NXZ		; ioAttackableItem::CheckOnHand
PUBLIC	?CheckAimState@ioAttackableItem@@UAE_N_N@Z	; ioAttackableItem::CheckAimState
PUBLIC	?SetAimState@ioAttackableItem@@UAE_NPAVioBaseChar@@@Z ; ioAttackableItem::SetAimState
PUBLIC	?CheckExtendDefenseEnable@ioAttackableItem@@UAE_NPAVioBaseChar@@@Z ; ioAttackableItem::CheckExtendDefenseEnable
PUBLIC	?IsChargeAttackState@ioAttackableItem@@UAE_NPAVioBaseChar@@@Z ; ioAttackableItem::IsChargeAttackState
PUBLIC	?IsMoveAttackState@ioAttackableItem@@UAE_NPAVioBaseChar@@@Z ; ioAttackableItem::IsMoveAttackState
PUBLIC	?IsNoGhostWalk@ioAttackableItem@@UAE_NPAVioBaseChar@@@Z ; ioAttackableItem::IsNoGhostWalk
PUBLIC	?IsEnableAttackDashCheck@ioAttackableItem@@UAE_NPAVioBaseChar@@_N@Z ; ioAttackableItem::IsEnableAttackDashCheck
PUBLIC	?IsEnableItemDashCheck@ioAttackableItem@@UAE_NPAVioBaseChar@@_N@Z ; ioAttackableItem::IsEnableItemDashCheck
PUBLIC	?IsEnableAttackRotateCheck@ioAttackableItem@@UAE_NPAVioBaseChar@@@Z ; ioAttackableItem::IsEnableAttackRotateCheck
PUBLIC	?IsEnableChargeDefenseCheck@ioAttackableItem@@UAE_NXZ ; ioAttackableItem::IsEnableChargeDefenseCheck
PUBLIC	?IsUseDefenceCounterAttackEndDash@ioAttackableItem@@UAE_NXZ ; ioAttackableItem::IsUseDefenceCounterAttackEndDash
PUBLIC	?IsAutoTarget@ioAttackableItem@@UBE_NXZ		; ioAttackableItem::IsAutoTarget
PUBLIC	?IsWoundAfterUseExtendState@ioAttackableItem@@UAE_NXZ ; ioAttackableItem::IsWoundAfterUseExtendState
PUBLIC	?CheckWoundAfterUseExtendState@ioAttackableItem@@UAE_NPAVioBaseChar@@W4BlowTargetType@@@Z ; ioAttackableItem::CheckWoundAfterUseExtendState
PUBLIC	?IsCharSkipState@ioAttackableItem@@UAE_NPBVioBaseChar@@@Z ; ioAttackableItem::IsCharSkipState
PUBLIC	?IsEnableDefense@ioObjectChargeShotItem@@UBE_NXZ ; ioObjectChargeShotItem::IsEnableDefense
PUBLIC	?IsProtectState@ioObjectChargeShotItem@@UAE_NXZ	; ioObjectChargeShotItem::IsProtectState
PUBLIC	?OnProcessState@ioObjectItem@@UAEXPAVioPlayStage@@PAVioBaseChar@@@Z ; ioObjectItem::OnProcessState
PUBLIC	?SetObjectReleaseTCPSend@ioObjectItem@@UAEX_N@Z	; ioObjectItem::SetObjectReleaseTCPSend
PUBLIC	?IsObjectReleaseTCPSend@ioObjectItem@@UAE_NXZ	; ioObjectItem::IsObjectReleaseTCPSend
PUBLIC	?IsNormalAttackStop@ioObjectItem@@UAE_NXZ	; ioObjectItem::IsNormalAttackStop
EXTRN	??1ioObjectItem@@UAE@XZ:PROC			; ioObjectItem::~ioObjectItem
EXTRN	___CxxFrameHandler3:PROC
EXTRN	__EH_epilog3:PROC
EXTRN	__EH_prolog3:PROC
EXTRN	?FindFieldEntityGrp@ioItem@@MBEABVioHashString@@XZ:PROC ; ioItem::FindFieldEntityGrp
EXTRN	?GetType@ioObjectItem@@UBE?AW4ItemType@ioItem@@XZ:PROC ; ioObjectItem::GetType
EXTRN	?UseCreateIndexItem@ioItem@@UBE_NXZ:PROC	; ioItem::UseCreateIndexItem
EXTRN	?GetSetFocusColor@ioItem@@UBEKXZ:PROC		; ioItem::GetSetFocusColor
EXTRN	?Initialize@ioItem@@UAEXABVioHashString@@PAVioPlayStage@@@Z:PROC ; ioItem::Initialize
EXTRN	?InitializeBeforeEquip@ioItem@@UAEXABVioHashString@@PAVioPlayStage@@@Z:PROC ; ioItem::InitializeBeforeEquip
EXTRN	?OnEquiped@ioObjectItem@@UAEXPAVioBaseChar@@@Z:PROC ; ioObjectItem::OnEquiped
EXTRN	?SetExtendEquipEffect@ioItem@@UAEXPAVioBaseChar@@@Z:PROC ; ioItem::SetExtendEquipEffect
EXTRN	?ReleaseExtendEquipEffect@ioItem@@UAEXPAVioBaseChar@@@Z:PROC ; ioItem::ReleaseExtendEquipEffect
EXTRN	?AddGlowLine@ioWeaponItem@@UAEXPAVioBaseChar@@@Z:PROC ; ioWeaponItem::AddGlowLine
EXTRN	?RemoveGlowLine@ioWeaponItem@@UAEXPAVioBaseChar@@@Z:PROC ; ioWeaponItem::RemoveGlowLine
EXTRN	?GetTargetName@ioItem@@UAE?AVioHashString@@XZ:PROC ; ioItem::GetTargetName
EXTRN	?ClearTarget@ioItem@@UAEXXZ:PROC		; ioItem::ClearTarget
EXTRN	?SetItemType@ioWeaponItem@@UAEXXZ:PROC		; ioWeaponItem::SetItemType
EXTRN	?UpdateExtraData@ioItem@@UAEXPAVioBaseChar@@@Z:PROC ; ioItem::UpdateExtraData
EXTRN	?CheckWeaponDefenseState@ioItem@@UAEXPAVioBaseChar@@@Z:PROC ; ioItem::CheckWeaponDefenseState
EXTRN	?CheckWoundedState@ioItem@@UAEXPAVioBaseChar@@@Z:PROC ; ioItem::CheckWoundedState
EXTRN	?SetVisible@ioItem@@UAEXPAVioBaseChar@@_N@Z:PROC ; ioItem::SetVisible
EXTRN	?UpdateSkillGauge@ioItem@@UAEXPAVioBaseChar@@M_N@Z:PROC ; ioItem::UpdateSkillGauge
EXTRN	?ReduceNeedGauge@ioItem@@UAEXMPAVioBaseChar@@@Z:PROC ; ioItem::ReduceNeedGauge
EXTRN	?GetCurBullet@ioItem@@UAEHXZ:PROC		; ioItem::GetCurBullet
EXTRN	?GetMaxBullet@ioItem@@UAEHXZ:PROC		; ioItem::GetMaxBullet
EXTRN	?SetCurBullet@ioItem@@UAEXH@Z:PROC		; ioItem::SetCurBullet
EXTRN	?GetCurSecoundBullet@ioItem@@UAEHXZ:PROC	; ioItem::GetCurSecoundBullet
EXTRN	?GetMaxSecoundBullet@ioItem@@UAEHXZ:PROC	; ioItem::GetMaxSecoundBullet
EXTRN	?SetCurSecoundBullet@ioItem@@UAEXH@Z:PROC	; ioItem::SetCurSecoundBullet
EXTRN	?GetGrowthInfoNum@ioObjectItem@@UBEHH@Z:PROC	; ioObjectItem::GetGrowthInfoNum
EXTRN	?GetGrowthInfoNumByType@ioObjectItem@@UBEHHAAH@Z:PROC ; ioObjectItem::GetGrowthInfoNumByType
EXTRN	?ClearCurChargeRateForSkill@ioItem@@UAEXXZ:PROC	; ioItem::ClearCurChargeRateForSkill
EXTRN	?GetChargeDamageRateForSkill@ioItem@@UAEMXZ:PROC ; ioItem::GetChargeDamageRateForSkill
EXTRN	?GetChargeForceRateForSkill@ioItem@@UAEMXZ:PROC	; ioItem::GetChargeForceRateForSkill
EXTRN	?GetChargeBlowRateForSkill@ioItem@@UAEMXZ:PROC	; ioItem::GetChargeBlowRateForSkill
EXTRN	?GetChargeRangeRateForSkill@ioItem@@UAEMXZ:PROC	; ioItem::GetChargeRangeRateForSkill
EXTRN	?GetChargeSpeedRateForSkill@ioItem@@UAEMXZ:PROC	; ioItem::GetChargeSpeedRateForSkill
EXTRN	?GetChargeFloatRateForSkill@ioItem@@UAEMXZ:PROC	; ioItem::GetChargeFloatRateForSkill
EXTRN	?GetChargeScaleRateForSkill@ioItem@@UAEMXZ:PROC	; ioItem::GetChargeScaleRateForSkill
EXTRN	?GetChargeExplosionRateForSkill@ioItem@@UAEMXZ:PROC ; ioItem::GetChargeExplosionRateForSkill
EXTRN	?GetChargeWoundedTimeRateForSkill@ioItem@@UAEMXZ:PROC ; ioItem::GetChargeWoundedTimeRateForSkill
EXTRN	?SetCurEquipEffect@ioItem@@UAEX_N@Z:PROC	; ioItem::SetCurEquipEffect
EXTRN	?SetCostume@ioItem@@UAEXH_N@Z:PROC		; ioItem::SetCostume
EXTRN	??_EioObjectChargeShotItem@@UAEPAXI@Z:PROC	; ioObjectChargeShotItem::`vector deleting destructor'
EXTRN	?IsCanFire@ioAttackableItem@@UBE_NPBVioBaseChar@@H_N@Z:PROC ; ioAttackableItem::IsCanFire
EXTRN	?CallItemProcess@ioAttackableItem@@UAEXPAVioBaseChar@@@Z:PROC ; ioAttackableItem::CallItemProcess
EXTRN	?CheckChargeInfo@ioAttackableItem@@UAEXPAVioWeapon@@_N@Z:PROC ; ioAttackableItem::CheckChargeInfo
EXTRN	?SetExtendDefenseState@ioAttackableItem@@UAE_NPAVioBaseChar@@@Z:PROC ; ioAttackableItem::SetExtendDefenseState
EXTRN	?CheckExtendDefenseState@ioAttackableItem@@UAEXPAVioBaseChar@@@Z:PROC ; ioAttackableItem::CheckExtendDefenseState
EXTRN	?CheckDefenseMoveAniState@ioAttackableItem@@UAEXPAVioBaseChar@@@Z:PROC ; ioAttackableItem::CheckDefenseMoveAniState
EXTRN	?SetDodgeDefenseState@ioAttackableItem@@UAE_NPAVioBaseChar@@@Z:PROC ; ioAttackableItem::SetDodgeDefenseState
EXTRN	?CheckDodgeDefenseState@ioAttackableItem@@UAEXPAVioBaseChar@@@Z:PROC ; ioAttackableItem::CheckDodgeDefenseState
EXTRN	?ApplyDodgeDefenseState@ioAttackableItem@@UAEXPAVioBaseChar@@AAVSP2Packet@@@Z:PROC ; ioAttackableItem::ApplyDodgeDefenseState
EXTRN	?SetDefenseAttackState@ioAttackableItem@@UAE_NPAVioBaseChar@@@Z:PROC ; ioAttackableItem::SetDefenseAttackState
EXTRN	?CheckDefenseAttackState@ioAttackableItem@@UAEXPAVioBaseChar@@@Z:PROC ; ioAttackableItem::CheckDefenseAttackState
EXTRN	?ApplyDefenseAttackState@ioAttackableItem@@UAEXPAVioBaseChar@@AAVSP2Packet@@@Z:PROC ; ioAttackableItem::ApplyDefenseAttackState
EXTRN	?SetExtendDashState@ioAttackableItem@@UAE_NPAVioBaseChar@@@Z:PROC ; ioAttackableItem::SetExtendDashState
EXTRN	?CheckExtendDashState@ioAttackableItem@@UAEXPAVioBaseChar@@@Z:PROC ; ioAttackableItem::CheckExtendDashState
EXTRN	?SetJumpAttack@ioAttackableItem@@UAE_NPAVioBaseChar@@HMW4AttackType@@@Z:PROC ; ioAttackableItem::SetJumpAttack
EXTRN	?CheckJumpAttack@ioAttackableItem@@UAEXPAVioBaseChar@@@Z:PROC ; ioAttackableItem::CheckJumpAttack
EXTRN	?SetJumpReloadState@ioAttackableItem@@UAE_NPAVioBaseChar@@@Z:PROC ; ioAttackableItem::SetJumpReloadState
EXTRN	?SetJumpReload@ioAttackableItem@@UAE_NPAVioBaseChar@@@Z:PROC ; ioAttackableItem::SetJumpReload
EXTRN	?CheckJumpReloadState@ioAttackableItem@@UAEXPAVioBaseChar@@@Z:PROC ; ioAttackableItem::CheckJumpReloadState
EXTRN	?CheckJumpReloadReserve@ioAttackableItem@@UAEXPAVioBaseChar@@@Z:PROC ; ioAttackableItem::CheckJumpReloadReserve
EXTRN	?ProcessJumpReloadState@ioAttackableItem@@UAEXPAVioBaseChar@@@Z:PROC ; ioAttackableItem::ProcessJumpReloadState
EXTRN	?ApplyJumpReload@ioAttackableItem@@UAEXPAVioBaseChar@@AAVSP2Packet@@@Z:PROC ; ioAttackableItem::ApplyJumpReload
EXTRN	?OnItemGaugeCancel@ioAttackableItem@@UAEXPAVioBaseChar@@AAVSP2Packet@@@Z:PROC ; ioAttackableItem::OnItemGaugeCancel
EXTRN	?OnEndExtendDefense@ioAttackableItem@@UAEXPAVioBaseChar@@@Z:PROC ; ioAttackableItem::OnEndExtendDefense
EXTRN	?OnEndNormalAttack@ioAttackableItem@@UAEXPAVioBaseChar@@@Z:PROC ; ioAttackableItem::OnEndNormalAttack
EXTRN	?OnEndExtendAttack@ioAttackableItem@@UAEXPAVioBaseChar@@_N@Z:PROC ; ioAttackableItem::OnEndExtendAttack
EXTRN	?OnEndExtendJump@ioAttackableItem@@UAEXPAVioBaseChar@@@Z:PROC ; ioAttackableItem::OnEndExtendJump
EXTRN	?FillNormalAttackExtraInfo@ioAttackableItem@@UAEXAAVSP2Packet@@@Z:PROC ; ioAttackableItem::FillNormalAttackExtraInfo
EXTRN	?ApplyNormalAttackExtraInfo@ioAttackableItem@@UAEXAAVSP2Packet@@@Z:PROC ; ioAttackableItem::ApplyNormalAttackExtraInfo
EXTRN	?CheckLanding@ioAttackableItem@@UAE_NPAVioBaseChar@@@Z:PROC ; ioAttackableItem::CheckLanding
EXTRN	?SetNoneState@ioAttackableItem@@UAEXPAVioBaseChar@@H@Z:PROC ; ioAttackableItem::SetNoneState
EXTRN	?IsCanUpdateGauge@ioAttackableItem@@UAE_NPAVioBaseChar@@@Z:PROC ; ioAttackableItem::IsCanUpdateGauge
EXTRN	?CheckAimJumpState@ioAttackableItem@@UAEXPAVioBaseChar@@@Z:PROC ; ioAttackableItem::CheckAimJumpState
EXTRN	?GetJumppingAnimation@ioAttackableItem@@UBEABVioHashString@@XZ:PROC ; ioAttackableItem::GetJumppingAnimation
EXTRN	?GetExtendJumppingAnimation@ioAttackableItem@@UBEABVioHashString@@XZ:PROC ; ioAttackableItem::GetExtendJumppingAnimation
EXTRN	?CheckRetreatState@ioAttackableItem@@UAEXPAVioBaseChar@@@Z:PROC ; ioAttackableItem::CheckRetreatState
EXTRN	?SetNextItemState@ioAttackableItem@@UAEXPAVioBaseChar@@0PAVioWeapon@@_NM@Z:PROC ; ioAttackableItem::SetNextItemState
EXTRN	?WeaponWounded@ioWeaponItem@@UAEXPAVioWeapon@@PAVioBaseChar@@@Z:PROC ; ioWeaponItem::WeaponWounded
EXTRN	?WeaponMapColDead@ioAttackableItem@@UAEXPAVioWeapon@@@Z:PROC ; ioAttackableItem::WeaponMapColDead
EXTRN	?SetDefenceCounterState@ioAttackableItem@@UAEXPAVioBaseChar@@@Z:PROC ; ioAttackableItem::SetDefenceCounterState
EXTRN	?IsUseDefenceCounterAttack@ioAttackableItem@@UAE_NXZ:PROC ; ioAttackableItem::IsUseDefenceCounterAttack
EXTRN	?ProcessDefenceCounterAttack@ioAttackableItem@@UAEXPAVioBaseChar@@@Z:PROC ; ioAttackableItem::ProcessDefenceCounterAttack
EXTRN	?ProcessExtraJump@ioAttackableItem@@UAEXPAVioBaseChar@@@Z:PROC ; ioAttackableItem::ProcessExtraJump
EXTRN	?SetEndGrappling@ioAttackableItem@@UAEXPAVioBaseChar@@@Z:PROC ; ioAttackableItem::SetEndGrappling
EXTRN	?ClearKeyReserve@ioAttackableItem@@MAEXXZ:PROC	; ioAttackableItem::ClearKeyReserve
EXTRN	?CheckReserve@ioAttackableItem@@MAEXPAVioBaseChar@@@Z:PROC ; ioAttackableItem::CheckReserve
EXTRN	?ProcessReserveKeyInput@ioAttackableItem@@MAEXPAVioBaseChar@@@Z:PROC ; ioAttackableItem::ProcessReserveKeyInput
EXTRN	?SetJumpState@ioAttackableItem@@UAEXXZ:PROC	; ioAttackableItem::SetJumpState
EXTRN	?SetJumpping@ioAttackableItem@@UAEXPAVioBaseChar@@_N@Z:PROC ; ioAttackableItem::SetJumpping
EXTRN	?ProcessJumpping@ioAttackableItem@@UAEXPAVioBaseChar@@M@Z:PROC ; ioAttackableItem::ProcessJumpping
EXTRN	?ProcessJumppingByNoNeedProcess@ioAttackableItem@@UAEXPAVioBaseChar@@M@Z:PROC ; ioAttackableItem::ProcessJumppingByNoNeedProcess
EXTRN	?ProcessLanding@ioAttackableItem@@UAEXPAVioBaseChar@@@Z:PROC ; ioAttackableItem::ProcessLanding
EXTRN	?ProcessJumpAttack@ioAttackableItem@@UAEXPAVioBaseChar@@M@Z:PROC ; ioAttackableItem::ProcessJumpAttack
EXTRN	?ProcessAimJump@ioAttackableItem@@UAE_NPAVioBaseChar@@M@Z:PROC ; ioAttackableItem::ProcessAimJump
EXTRN	?ApplyJump@ioAttackableItem@@UAEXPAVioBaseChar@@AAVSP2Packet@@@Z:PROC ; ioAttackableItem::ApplyJump
EXTRN	?ApplyDash@ioAttackableItem@@UAEXPAVioBaseChar@@AAVSP2Packet@@@Z:PROC ; ioAttackableItem::ApplyDash
EXTRN	?ApplyCounterAttack@ioAttackableItem@@UAEXPAVioBaseChar@@AAVSP2Packet@@@Z:PROC ; ioAttackableItem::ApplyCounterAttack
EXTRN	?CheckComboJumpAttack@ioAttackableItem@@UAEXPAVioBaseChar@@@Z:PROC ; ioAttackableItem::CheckComboJumpAttack
EXTRN	?SetFlashJumpAttack@ioAttackableItem@@UAE_NPAVioBaseChar@@@Z:PROC ; ioAttackableItem::SetFlashJumpAttack
EXTRN	?SetComboFlashAttack@ioAttackableItem@@UAE_NPAVioBaseChar@@@Z:PROC ; ioAttackableItem::SetComboFlashAttack
EXTRN	?SetCollectJumpAttack@ioAttackableItem@@UAE_NPAVioBaseChar@@@Z:PROC ; ioAttackableItem::SetCollectJumpAttack
EXTRN	?SetPowerChargeJumpAttack@ioAttackableItem@@UAE_NPAVioBaseChar@@@Z:PROC ; ioAttackableItem::SetPowerChargeJumpAttack
EXTRN	?GetAttackSpeedRate@ioAttackableItem@@UBEMXZ:PROC ; ioAttackableItem::GetAttackSpeedRate
EXTRN	?GetExtraJumpSpeedRate@ioAttackableItem@@UBEMABUD3DXVECTOR3@@ABUD3DXQUATERNION@@@Z:PROC ; ioAttackableItem::GetExtraJumpSpeedRate
EXTRN	?IsEnableExtendJump@ioAttackableItem@@UAE_NXZ:PROC ; ioAttackableItem::IsEnableExtendJump
EXTRN	?RecevieExtendJumpUse@ioAttackableItem@@UAEXPAVioBaseChar@@@Z:PROC ; ioAttackableItem::RecevieExtendJumpUse
EXTRN	?HasAniFile@ioAttackableItem@@UBE_NW4AttackType@@H@Z:PROC ; ioAttackableItem::HasAniFile
EXTRN	?HasEndAniFile@ioAttackableItem@@UBE_NW4AttackType@@H@Z:PROC ; ioAttackableItem::HasEndAniFile
EXTRN	?GetAttackAttribute@ioAttackableItem@@UBEPBUAttackAttribute@@W4AttackType@@H@Z:PROC ; ioAttackableItem::GetAttackAttribute
EXTRN	?GetAniFile@ioAttackableItem@@UBEABVioHashString@@W4AttackType@@H@Z:PROC ; ioAttackableItem::GetAniFile
EXTRN	?GetAttackAniRate@ioAttackableItem@@UBEMW4AttackType@@H@Z:PROC ; ioAttackableItem::GetAttackAniRate
EXTRN	?GetEndAniFile@ioAttackableItem@@UBEABVioHashString@@W4AttackType@@H@Z:PROC ; ioAttackableItem::GetEndAniFile
EXTRN	?GetAttackEndAniRate@ioAttackableItem@@UBEMW4AttackType@@H@Z:PROC ; ioAttackableItem::GetAttackEndAniRate
EXTRN	?GetAttackAttributeIdx@ioAttackableItem@@UBEABV?$vector@UWeaponInfo@@V?$allocator@UWeaponInfo@@@std@@@std@@W4AttackType@@H@Z:PROC ; ioAttackableItem::GetAttackAttributeIdx
EXTRN	?GetForceInfoList@ioAttackableItem@@UBEABV?$vector@UForceInfo@@V?$allocator@UForceInfo@@@std@@@std@@W4AttackType@@H@Z:PROC ; ioAttackableItem::GetForceInfoList
EXTRN	?GetAttackPreDelay@ioAttackableItem@@UBEKW4AttackType@@H@Z:PROC ; ioAttackableItem::GetAttackPreDelay
EXTRN	?GetAttackAnimationDelay@ioAttackableItem@@UBEKW4AttackType@@H@Z:PROC ; ioAttackableItem::GetAttackAnimationDelay
EXTRN	?GetMaxCombo@ioAttackableItem@@UBEHXZ:PROC	; ioAttackableItem::GetMaxCombo
EXTRN	?GetExtraDashAttackMax@ioAttackableItem@@UBEHXZ:PROC ; ioAttackableItem::GetExtraDashAttackMax
EXTRN	?HasJumpEndAnimation@ioAttackableItem@@UBE_N_NPAVioBaseChar@@@Z:PROC ; ioAttackableItem::HasJumpEndAnimation
EXTRN	?GetJumpEndAnimation@ioAttackableItem@@UBEABVioHashString@@_NPAVioBaseChar@@@Z:PROC ; ioAttackableItem::GetJumpEndAnimation
EXTRN	?ClearCancelInfo@ioAttackableItem@@MAEXXZ:PROC	; ioAttackableItem::ClearCancelInfo
EXTRN	?CheckCancelReserve@ioAttackableItem@@MAEXPAVioBaseChar@@@Z:PROC ; ioAttackableItem::CheckCancelReserve
EXTRN	?SetCurAttackAniForInputJump@ioAttackableItem@@MAEXABVioHashString@@M@Z:PROC ; ioAttackableItem::SetCurAttackAniForInputJump
EXTRN	?ProcessCancel@ioAttackableItem@@MAE_NPAVioBaseChar@@@Z:PROC ; ioAttackableItem::ProcessCancel
EXTRN	?ProcessCancelBySpeicalDash@ioAttackableItem@@MAE_NPAVioBaseChar@@@Z:PROC ; ioAttackableItem::ProcessCancelBySpeicalDash
EXTRN	?SetCurAttackAniForInputDashS@ioAttackableItem@@UAEXABVioHashString@@M@Z:PROC ; ioAttackableItem::SetCurAttackAniForInputDashS
EXTRN	?CheckCancelReserveByConditionalSpecialDash@ioAttackableItem@@UAEXPAVioBaseChar@@@Z:PROC ; ioAttackableItem::CheckCancelReserveByConditionalSpecialDash
EXTRN	?IsConditionalSpecialDashReserve@ioAttackableItem@@UAE_NPAVioBaseChar@@@Z:PROC ; ioAttackableItem::IsConditionalSpecialDashReserve
EXTRN	?SetChangeConditionalSpecialDash@ioAttackableItem@@UAEXPAVioBaseChar@@W4DirKeyInput@ioUserKeyInput@@H@Z:PROC ; ioAttackableItem::SetChangeConditionalSpecialDash
EXTRN	?CheckChangeWereWolfState@ioAttackableItem@@UAE_NPAVioBaseChar@@@Z:PROC ; ioAttackableItem::CheckChangeWereWolfState
EXTRN	?SetChangeWereWolfState@ioAttackableItem@@UAEXPAVioBaseChar@@@Z:PROC ; ioAttackableItem::SetChangeWereWolfState
EXTRN	?CheckReleaseWereWolfState@ioAttackableItem@@UAE_NPAVioBaseChar@@@Z:PROC ; ioAttackableItem::CheckReleaseWereWolfState
EXTRN	?ReleseWereWolfState@ioAttackableItem@@UAEXPAVioBaseChar@@@Z:PROC ; ioAttackableItem::ReleseWereWolfState
EXTRN	?ReleseWereWolfStateByOwner@ioAttackableItem@@UAEXPAVioBaseChar@@@Z:PROC ; ioAttackableItem::ReleseWereWolfStateByOwner
EXTRN	?IncreaseChangeDamage@ioAttackableItem@@UAEXMH_N@Z:PROC ; ioAttackableItem::IncreaseChangeDamage
EXTRN	?IncreaseChangeDamageByWeapon@ioAttackableItem@@UAEXM@Z:PROC ; ioAttackableItem::IncreaseChangeDamageByWeapon
EXTRN	?CheckIncreaseChangeDamage@ioAttackableItem@@UAEXPAVioBaseChar@@@Z:PROC ; ioAttackableItem::CheckIncreaseChangeDamage
EXTRN	?DecreaseChangeDamage@ioAttackableItem@@UAEXPAVioBaseChar@@@Z:PROC ; ioAttackableItem::DecreaseChangeDamage
EXTRN	?IsEnableActionStopDelay@ioAttackableItem@@UAE_NXZ:PROC ; ioAttackableItem::IsEnableActionStopDelay
EXTRN	?SetExtraGaugeTypeByWeapon@ioAttackableItem@@UAEXPAVioBaseChar@@HHM@Z:PROC ; ioAttackableItem::SetExtraGaugeTypeByWeapon
EXTRN	?SetUseExtraGauge@ioAttackableItem@@UAEXM@Z:PROC ; ioAttackableItem::SetUseExtraGauge
EXTRN	?InitExtraGauge@ioAttackableItem@@UAEXXZ:PROC	; ioAttackableItem::InitExtraGauge
EXTRN	?MaxExtraGauge@ioAttackableItem@@UAEXXZ:PROC	; ioAttackableItem::MaxExtraGauge
EXTRN	?GetMaxExtraGauge@ioAttackableItem@@UAEMXZ:PROC	; ioAttackableItem::GetMaxExtraGauge
EXTRN	?GetCurExtraGauge@ioAttackableItem@@UAEMXZ:PROC	; ioAttackableItem::GetCurExtraGauge
EXTRN	?SetCurExtraGauge@ioAttackableItem@@UAEXM@Z:PROC ; ioAttackableItem::SetCurExtraGauge
EXTRN	?GetAutoTargetValue@ioAttackableItem@@UAEXPAVioBaseChar@@AAM11W4AutoTargetType@@@Z:PROC ; ioAttackableItem::GetAutoTargetValue
EXTRN	?ClearAirJump@ioAttackableItem@@UAEXXZ:PROC	; ioAttackableItem::ClearAirJump
EXTRN	?SetAirJump@ioAttackableItem@@UAEXPAVioBaseChar@@HM@Z:PROC ; ioAttackableItem::SetAirJump
EXTRN	?CheckAirJump@ioAttackableItem@@UAEXPAVioBaseChar@@@Z:PROC ; ioAttackableItem::CheckAirJump
EXTRN	?EquipObjectItemByAttakable@ioAttackableItem@@UAEXPAVioBaseChar@@PAVioItem@@@Z:PROC ; ioAttackableItem::EquipObjectItemByAttakable
EXTRN	?ReleaseObjectItemByAttack@ioAttackableItem@@UAEXPAVioBaseChar@@PAVioItem@@@Z:PROC ; ioAttackableItem::ReleaseObjectItemByAttack
EXTRN	?IsBuffFlyChange@ioAttackableItem@@UAE_NPAVioBaseChar@@@Z:PROC ; ioAttackableItem::IsBuffFlyChange
EXTRN	?GetAttackStateText@ioAttackableItem@@UBEPBDXZ:PROC ; ioAttackableItem::GetAttackStateText
EXTRN	?SetJumpLandingExtraState@ioAttackableItem@@UAE_NPAVioBaseChar@@@Z:PROC ; ioAttackableItem::SetJumpLandingExtraState
EXTRN	?ReleaseObjectState@ioWeaponItem@@UAEXPAVioBaseChar@@PAVioObjectItem@@@Z:PROC ; ioWeaponItem::ReleaseObjectState
EXTRN	?IsCmdCheckEnableTime@ioWeaponItem@@UAE_NXZ:PROC ; ioWeaponItem::IsCmdCheckEnableTime
EXTRN	?IsCmdSuccess@ioWeaponItem@@UAE_NXZ:PROC	; ioWeaponItem::IsCmdSuccess
EXTRN	?GetEquipMesh@ioObjectItem@@UBEABVioHashString@@PAVioBaseChar@@@Z:PROC ; ioObjectItem::GetEquipMesh
EXTRN	?IsCanSendControl@ioWeaponItem@@UBE_NXZ:PROC	; ioWeaponItem::IsCanSendControl
EXTRN	?GetSubType@ioObjectItem@@UBE?AW4WeaponSubType@ioWeaponItem@@XZ:PROC ; ioObjectItem::GetSubType
EXTRN	?CheckAttackCount@ioObjectItem@@UAEXPAVioBaseChar@@@Z:PROC ; ioObjectItem::CheckAttackCount
EXTRN	?CheckActiveCount@ioObjectItem@@UAEXPAVioBaseChar@@@Z:PROC ; ioObjectItem::CheckActiveCount
EXTRN	?IsAttackComboInit@ioObjectItem@@UBE_NXZ:PROC	; ioObjectItem::IsAttackComboInit
EXTRN	?CheckReleaseProcess@ioObjectItem@@UAE_NPAVioPlayStage@@PAVioBaseChar@@@Z:PROC ; ioObjectItem::CheckReleaseProcess
EXTRN	?CheckReleaseByNormalAttack@ioObjectItem@@UAE_NPAVioPlayStage@@PAVioBaseChar@@@Z:PROC ; ioObjectItem::CheckReleaseByNormalAttack
EXTRN	?CheckObjectReleaseSelectionBuff@ioObjectItem@@UAE_NPAVioBaseChar@@@Z:PROC ; ioObjectItem::CheckObjectReleaseSelectionBuff
;	COMDAT ??_R2ioItem@@8
rdata$r	SEGMENT
??_R2ioItem@@8 DD FLAT:??_R1A@?0A@EA@ioItem@@8		; ioItem::`RTTI Base Class Array'
rdata$r	ENDS
;	COMDAT ??_R3ioItem@@8
rdata$r	SEGMENT
??_R3ioItem@@8 DD 00H					; ioItem::`RTTI Class Hierarchy Descriptor'
	DD	00H
	DD	01H
	DD	FLAT:??_R2ioItem@@8
rdata$r	ENDS
;	COMDAT ??_R0?AVioItem@@@8
_DATA	SEGMENT
??_R0?AVioItem@@@8 DD FLAT:??_7type_info@@6B@		; ioItem `RTTI Type Descriptor'
	DD	00H
	DB	'.?AVioItem@@', 00H
_DATA	ENDS
;	COMDAT ??_R1A@?0A@EA@ioItem@@8
rdata$r	SEGMENT
??_R1A@?0A@EA@ioItem@@8 DD FLAT:??_R0?AVioItem@@@8	; ioItem::`RTTI Base Class Descriptor at (0,-1,0,64)'
	DD	00H
	DD	00H
	DD	0ffffffffH
	DD	00H
	DD	040H
	DD	FLAT:??_R3ioItem@@8
rdata$r	ENDS
;	COMDAT ??_R2ioAttackableItem@@8
rdata$r	SEGMENT
??_R2ioAttackableItem@@8 DD FLAT:??_R1A@?0A@EA@ioAttackableItem@@8 ; ioAttackableItem::`RTTI Base Class Array'
	DD	FLAT:??_R1A@?0A@EA@ioItem@@8
rdata$r	ENDS
;	COMDAT ??_R3ioAttackableItem@@8
rdata$r	SEGMENT
??_R3ioAttackableItem@@8 DD 00H				; ioAttackableItem::`RTTI Class Hierarchy Descriptor'
	DD	00H
	DD	02H
	DD	FLAT:??_R2ioAttackableItem@@8
rdata$r	ENDS
;	COMDAT ??_R0?AVioAttackableItem@@@8
_DATA	SEGMENT
??_R0?AVioAttackableItem@@@8 DD FLAT:??_7type_info@@6B@	; ioAttackableItem `RTTI Type Descriptor'
	DD	00H
	DB	'.?AVioAttackableItem@@', 00H
_DATA	ENDS
;	COMDAT ??_R1A@?0A@EA@ioAttackableItem@@8
rdata$r	SEGMENT
??_R1A@?0A@EA@ioAttackableItem@@8 DD FLAT:??_R0?AVioAttackableItem@@@8 ; ioAttackableItem::`RTTI Base Class Descriptor at (0,-1,0,64)'
	DD	01H
	DD	00H
	DD	0ffffffffH
	DD	00H
	DD	040H
	DD	FLAT:??_R3ioAttackableItem@@8
rdata$r	ENDS
;	COMDAT ??_R2ioWeaponItem@@8
rdata$r	SEGMENT
??_R2ioWeaponItem@@8 DD FLAT:??_R1A@?0A@EA@ioWeaponItem@@8 ; ioWeaponItem::`RTTI Base Class Array'
	DD	FLAT:??_R1A@?0A@EA@ioAttackableItem@@8
	DD	FLAT:??_R1A@?0A@EA@ioItem@@8
rdata$r	ENDS
;	COMDAT ??_R3ioWeaponItem@@8
rdata$r	SEGMENT
??_R3ioWeaponItem@@8 DD 00H				; ioWeaponItem::`RTTI Class Hierarchy Descriptor'
	DD	00H
	DD	03H
	DD	FLAT:??_R2ioWeaponItem@@8
rdata$r	ENDS
;	COMDAT ??_R0?AVioWeaponItem@@@8
_DATA	SEGMENT
??_R0?AVioWeaponItem@@@8 DD FLAT:??_7type_info@@6B@	; ioWeaponItem `RTTI Type Descriptor'
	DD	00H
	DB	'.?AVioWeaponItem@@', 00H
_DATA	ENDS
;	COMDAT ??_R1A@?0A@EA@ioWeaponItem@@8
rdata$r	SEGMENT
??_R1A@?0A@EA@ioWeaponItem@@8 DD FLAT:??_R0?AVioWeaponItem@@@8 ; ioWeaponItem::`RTTI Base Class Descriptor at (0,-1,0,64)'
	DD	02H
	DD	00H
	DD	0ffffffffH
	DD	00H
	DD	040H
	DD	FLAT:??_R3ioWeaponItem@@8
rdata$r	ENDS
;	COMDAT ??_R2ioObjectItem@@8
rdata$r	SEGMENT
??_R2ioObjectItem@@8 DD FLAT:??_R1A@?0A@EA@ioObjectItem@@8 ; ioObjectItem::`RTTI Base Class Array'
	DD	FLAT:??_R1A@?0A@EA@ioWeaponItem@@8
	DD	FLAT:??_R1A@?0A@EA@ioAttackableItem@@8
	DD	FLAT:??_R1A@?0A@EA@ioItem@@8
rdata$r	ENDS
;	COMDAT ??_R3ioObjectItem@@8
rdata$r	SEGMENT
??_R3ioObjectItem@@8 DD 00H				; ioObjectItem::`RTTI Class Hierarchy Descriptor'
	DD	00H
	DD	04H
	DD	FLAT:??_R2ioObjectItem@@8
rdata$r	ENDS
;	COMDAT ??_R0?AVioObjectItem@@@8
_DATA	SEGMENT
??_R0?AVioObjectItem@@@8 DD FLAT:??_7type_info@@6B@	; ioObjectItem `RTTI Type Descriptor'
	DD	00H
	DB	'.?AVioObjectItem@@', 00H
_DATA	ENDS
;	COMDAT ??_R1A@?0A@EA@ioObjectItem@@8
rdata$r	SEGMENT
??_R1A@?0A@EA@ioObjectItem@@8 DD FLAT:??_R0?AVioObjectItem@@@8 ; ioObjectItem::`RTTI Base Class Descriptor at (0,-1,0,64)'
	DD	03H
	DD	00H
	DD	0ffffffffH
	DD	00H
	DD	040H
	DD	FLAT:??_R3ioObjectItem@@8
rdata$r	ENDS
;	COMDAT ??_R1A@?0A@EA@ioObjectChargeShotItem@@8
rdata$r	SEGMENT
??_R1A@?0A@EA@ioObjectChargeShotItem@@8 DD FLAT:??_R0?AVioObjectChargeShotItem@@@8 ; ioObjectChargeShotItem::`RTTI Base Class Descriptor at (0,-1,0,64)'
	DD	04H
	DD	00H
	DD	0ffffffffH
	DD	00H
	DD	040H
	DD	FLAT:??_R3ioObjectChargeShotItem@@8
rdata$r	ENDS
;	COMDAT ??_R2ioObjectChargeShotItem@@8
rdata$r	SEGMENT
??_R2ioObjectChargeShotItem@@8 DD FLAT:??_R1A@?0A@EA@ioObjectChargeShotItem@@8 ; ioObjectChargeShotItem::`RTTI Base Class Array'
	DD	FLAT:??_R1A@?0A@EA@ioObjectItem@@8
	DD	FLAT:??_R1A@?0A@EA@ioWeaponItem@@8
	DD	FLAT:??_R1A@?0A@EA@ioAttackableItem@@8
	DD	FLAT:??_R1A@?0A@EA@ioItem@@8
rdata$r	ENDS
;	COMDAT ??_R3ioObjectChargeShotItem@@8
rdata$r	SEGMENT
??_R3ioObjectChargeShotItem@@8 DD 00H			; ioObjectChargeShotItem::`RTTI Class Hierarchy Descriptor'
	DD	00H
	DD	05H
	DD	FLAT:??_R2ioObjectChargeShotItem@@8
rdata$r	ENDS
;	COMDAT ??_R0?AVioObjectChargeShotItem@@@8
_DATA	SEGMENT
??_R0?AVioObjectChargeShotItem@@@8 DD FLAT:??_7type_info@@6B@ ; ioObjectChargeShotItem `RTTI Type Descriptor'
	DD	00H
	DB	'.?AVioObjectChargeShotItem@@', 00H
_DATA	ENDS
;	COMDAT ??_R4ioObjectChargeShotItem@@6B@
rdata$r	SEGMENT
??_R4ioObjectChargeShotItem@@6B@ DD 00H			; ioObjectChargeShotItem::`RTTI Complete Object Locator'
	DD	00H
	DD	00H
	DD	FLAT:??_R0?AVioObjectChargeShotItem@@@8
	DD	FLAT:??_R3ioObjectChargeShotItem@@8
rdata$r	ENDS
;	COMDAT ??_7ioObjectChargeShotItem@@6B@
CONST	SEGMENT
??_7ioObjectChargeShotItem@@6B@ DD FLAT:??_R4ioObjectChargeShotItem@@6B@ ; ioObjectChargeShotItem::`vftable'
	DD	FLAT:?FindFieldEntityGrp@ioItem@@MBEABVioHashString@@XZ
	DD	FLAT:?LoadProperty@ioObjectChargeShotItem@@UAEXAAVioINILoader@@@Z
	DD	FLAT:?GetType@ioObjectItem@@UBE?AW4ItemType@ioItem@@XZ
	DD	FLAT:?Clone@ioObjectChargeShotItem@@UAEPAVioItem@@XZ
	DD	FLAT:?UseCreateIndexItem@ioItem@@UBE_NXZ
	DD	FLAT:?GetSetFocusColor@ioItem@@UBEKXZ
	DD	FLAT:?Initialize@ioItem@@UAEXABVioHashString@@PAVioPlayStage@@@Z
	DD	FLAT:?InitializeBeforeEquip@ioItem@@UAEXABVioHashString@@PAVioPlayStage@@@Z
	DD	FLAT:?OnEquiped@ioObjectItem@@UAEXPAVioBaseChar@@@Z
	DD	FLAT:?OnReleased@ioObjectChargeShotItem@@UAEXPAVioBaseChar@@@Z
	DD	FLAT:?SetExtendEquipEffect@ioItem@@UAEXPAVioBaseChar@@@Z
	DD	FLAT:?ReleaseExtendEquipEffect@ioItem@@UAEXPAVioBaseChar@@@Z
	DD	FLAT:?AddGlowLine@ioWeaponItem@@UAEXPAVioBaseChar@@@Z
	DD	FLAT:?RemoveGlowLine@ioWeaponItem@@UAEXPAVioBaseChar@@@Z
	DD	FLAT:?GetTargetName@ioItem@@UAE?AVioHashString@@XZ
	DD	FLAT:?ClearTarget@ioItem@@UAEXXZ
	DD	FLAT:?SetItemType@ioWeaponItem@@UAEXXZ
	DD	FLAT:?UpdateExtraData@ioItem@@UAEXPAVioBaseChar@@@Z
	DD	FLAT:?CheckWeaponDefenseState@ioItem@@UAEXPAVioBaseChar@@@Z
	DD	FLAT:?CheckWoundedState@ioItem@@UAEXPAVioBaseChar@@@Z
	DD	FLAT:?SetVisible@ioItem@@UAEXPAVioBaseChar@@_N@Z
	DD	FLAT:?UpdateSkillGauge@ioItem@@UAEXPAVioBaseChar@@M_N@Z
	DD	FLAT:?IsEnableExtraGauge@ioItem@@UAE_NPAVioBaseChar@@@Z
	DD	FLAT:?GetExtraGauge@ioItem@@UAEMXZ
	DD	FLAT:?ReduceNeedGauge@ioItem@@UAEXMPAVioBaseChar@@@Z
	DD	FLAT:?GetCurBullet@ioItem@@UAEHXZ
	DD	FLAT:?GetMaxBullet@ioItem@@UAEHXZ
	DD	FLAT:?SetCurBullet@ioItem@@UAEXH@Z
	DD	FLAT:?GetCurSecoundBullet@ioItem@@UAEHXZ
	DD	FLAT:?GetMaxSecoundBullet@ioItem@@UAEHXZ
	DD	FLAT:?SetCurSecoundBullet@ioItem@@UAEXH@Z
	DD	FLAT:?GetGrowthInfoNum@ioObjectItem@@UBEHH@Z
	DD	FLAT:?GetGrowthInfoNumByType@ioObjectItem@@UBEHHAAH@Z
	DD	FLAT:?ClearCurChargeRateForSkill@ioItem@@UAEXXZ
	DD	FLAT:?GetChargeDamageRateForSkill@ioItem@@UAEMXZ
	DD	FLAT:?GetChargeForceRateForSkill@ioItem@@UAEMXZ
	DD	FLAT:?GetChargeBlowRateForSkill@ioItem@@UAEMXZ
	DD	FLAT:?GetChargeRangeRateForSkill@ioItem@@UAEMXZ
	DD	FLAT:?GetChargeSpeedRateForSkill@ioItem@@UAEMXZ
	DD	FLAT:?GetChargeFloatRateForSkill@ioItem@@UAEMXZ
	DD	FLAT:?GetChargeScaleRateForSkill@ioItem@@UAEMXZ
	DD	FLAT:?GetChargeExplosionRateForSkill@ioItem@@UAEMXZ
	DD	FLAT:?GetChargeWoundedTimeRateForSkill@ioItem@@UAEMXZ
	DD	FLAT:?SetCurEquipEffect@ioItem@@UAEX_N@Z
	DD	FLAT:?SetCostume@ioItem@@UAEXH_N@Z
	DD	FLAT:??_EioObjectChargeShotItem@@UAEPAXI@Z
	DD	FLAT:?IsCanFire@ioAttackableItem@@UBE_NPBVioBaseChar@@H_N@Z
	DD	FLAT:?CallItemProcess@ioAttackableItem@@UAEXPAVioBaseChar@@@Z
	DD	FLAT:?SetExtraInfoToWeapon@ioObjectChargeShotItem@@UAEXPAVioWeapon@@_N@Z
	DD	FLAT:?CheckChargeInfo@ioAttackableItem@@UAEXPAVioWeapon@@_N@Z
	DD	FLAT:?SetExtendDefenseState@ioAttackableItem@@UAE_NPAVioBaseChar@@@Z
	DD	FLAT:?CheckExtendDefenseState@ioAttackableItem@@UAEXPAVioBaseChar@@@Z
	DD	FLAT:?CheckDefenseMoveAniState@ioAttackableItem@@UAEXPAVioBaseChar@@@Z
	DD	FLAT:?SetDodgeDefenseState@ioAttackableItem@@UAE_NPAVioBaseChar@@@Z
	DD	FLAT:?CheckDodgeDefenseState@ioAttackableItem@@UAEXPAVioBaseChar@@@Z
	DD	FLAT:?ApplyDodgeDefenseState@ioAttackableItem@@UAEXPAVioBaseChar@@AAVSP2Packet@@@Z
	DD	FLAT:?SetDefenseAttackState@ioAttackableItem@@UAE_NPAVioBaseChar@@@Z
	DD	FLAT:?CheckDefenseAttackState@ioAttackableItem@@UAEXPAVioBaseChar@@@Z
	DD	FLAT:?ApplyDefenseAttackState@ioAttackableItem@@UAEXPAVioBaseChar@@AAVSP2Packet@@@Z
	DD	FLAT:?SetExtendDashState@ioAttackableItem@@UAE_NPAVioBaseChar@@@Z
	DD	FLAT:?CheckExtendDashState@ioAttackableItem@@UAEXPAVioBaseChar@@@Z
	DD	FLAT:?SetNormalAttack@ioObjectChargeShotItem@@UAEXPAVioBaseChar@@H@Z
	DD	FLAT:?CheckNormalAttack@ioObjectChargeShotItem@@UAEXPAVioBaseChar@@@Z
	DD	FLAT:?SetJumpAttack@ioAttackableItem@@UAE_NPAVioBaseChar@@HMW4AttackType@@@Z
	DD	FLAT:?CheckJumpAttack@ioAttackableItem@@UAEXPAVioBaseChar@@@Z
	DD	FLAT:?SetJumpReloadState@ioAttackableItem@@UAE_NPAVioBaseChar@@@Z
	DD	FLAT:?SetJumpReload@ioAttackableItem@@UAE_NPAVioBaseChar@@@Z
	DD	FLAT:?CheckJumpReloadState@ioAttackableItem@@UAEXPAVioBaseChar@@@Z
	DD	FLAT:?CheckJumpReloadReserve@ioAttackableItem@@UAEXPAVioBaseChar@@@Z
	DD	FLAT:?ProcessJumpReloadState@ioAttackableItem@@UAEXPAVioBaseChar@@@Z
	DD	FLAT:?ApplyJumpReload@ioAttackableItem@@UAEXPAVioBaseChar@@AAVSP2Packet@@@Z
	DD	FLAT:?OnItemGaugeOK@ioObjectChargeShotItem@@UAEXPAVioBaseChar@@AAVSP2Packet@@@Z
	DD	FLAT:?OnItemGaugeCancel@ioAttackableItem@@UAEXPAVioBaseChar@@AAVSP2Packet@@@Z
	DD	FLAT:?OnEndExtendDefense@ioAttackableItem@@UAEXPAVioBaseChar@@@Z
	DD	FLAT:?OnEndNormalAttack@ioAttackableItem@@UAEXPAVioBaseChar@@@Z
	DD	FLAT:?OnEndExtendAttack@ioAttackableItem@@UAEXPAVioBaseChar@@_N@Z
	DD	FLAT:?OnEndExtendJump@ioAttackableItem@@UAEXPAVioBaseChar@@@Z
	DD	FLAT:?FillNormalAttackExtraInfo@ioAttackableItem@@UAEXAAVSP2Packet@@@Z
	DD	FLAT:?ApplyNormalAttackExtraInfo@ioAttackableItem@@UAEXAAVSP2Packet@@@Z
	DD	FLAT:?CheckOnHand@ioAttackableItem@@UAE_NXZ
	DD	FLAT:?CheckAimState@ioAttackableItem@@UAE_N_N@Z
	DD	FLAT:?SetAimState@ioAttackableItem@@UAE_NPAVioBaseChar@@@Z
	DD	FLAT:?CheckLanding@ioAttackableItem@@UAE_NPAVioBaseChar@@@Z
	DD	FLAT:?SetNoneState@ioAttackableItem@@UAEXPAVioBaseChar@@H@Z
	DD	FLAT:?CheckExtendDefenseEnable@ioAttackableItem@@UAE_NPAVioBaseChar@@@Z
	DD	FLAT:?IsChargeAttackState@ioAttackableItem@@UAE_NPAVioBaseChar@@@Z
	DD	FLAT:?IsMoveAttackState@ioAttackableItem@@UAE_NPAVioBaseChar@@@Z
	DD	FLAT:?IsCanUpdateGauge@ioAttackableItem@@UAE_NPAVioBaseChar@@@Z
	DD	FLAT:?IsNoGhostWalk@ioAttackableItem@@UAE_NPAVioBaseChar@@@Z
	DD	FLAT:?IsEnableAttackDashCheck@ioAttackableItem@@UAE_NPAVioBaseChar@@_N@Z
	DD	FLAT:?IsEnableItemDashCheck@ioAttackableItem@@UAE_NPAVioBaseChar@@_N@Z
	DD	FLAT:?IsEnableAttackRotateCheck@ioAttackableItem@@UAE_NPAVioBaseChar@@@Z
	DD	FLAT:?IsEnableChargeDefenseCheck@ioAttackableItem@@UAE_NXZ
	DD	FLAT:?CheckAimJumpState@ioAttackableItem@@UAEXPAVioBaseChar@@@Z
	DD	FLAT:?GetJumppingAnimation@ioAttackableItem@@UBEABVioHashString@@XZ
	DD	FLAT:?GetExtendJumppingAnimation@ioAttackableItem@@UBEABVioHashString@@XZ
	DD	FLAT:?CheckRetreatState@ioAttackableItem@@UAEXPAVioBaseChar@@@Z
	DD	FLAT:?SetNextItemState@ioAttackableItem@@UAEXPAVioBaseChar@@0PAVioWeapon@@_NM@Z
	DD	FLAT:?WeaponWounded@ioWeaponItem@@UAEXPAVioWeapon@@PAVioBaseChar@@@Z
	DD	FLAT:?WeaponMapColDead@ioAttackableItem@@UAEXPAVioWeapon@@@Z
	DD	FLAT:?SetDefenceCounterState@ioAttackableItem@@UAEXPAVioBaseChar@@@Z
	DD	FLAT:?IsUseDefenceCounterAttack@ioAttackableItem@@UAE_NXZ
	DD	FLAT:?ProcessDefenceCounterAttack@ioAttackableItem@@UAEXPAVioBaseChar@@@Z
	DD	FLAT:?IsUseDefenceCounterAttackEndDash@ioAttackableItem@@UAE_NXZ
	DD	FLAT:?ProcessExtraJump@ioAttackableItem@@UAEXPAVioBaseChar@@@Z
	DD	FLAT:?SetEndGrappling@ioAttackableItem@@UAEXPAVioBaseChar@@@Z
	DD	FLAT:?ClearKeyReserve@ioAttackableItem@@MAEXXZ
	DD	FLAT:?CheckReserve@ioAttackableItem@@MAEXPAVioBaseChar@@@Z
	DD	FLAT:?ProcessReserveKeyInput@ioAttackableItem@@MAEXPAVioBaseChar@@@Z
	DD	FLAT:?SetJumpState@ioAttackableItem@@UAEXXZ
	DD	FLAT:?SetJumpping@ioAttackableItem@@UAEXPAVioBaseChar@@_N@Z
	DD	FLAT:?ProcessJumpping@ioAttackableItem@@UAEXPAVioBaseChar@@M@Z
	DD	FLAT:?ProcessJumppingByNoNeedProcess@ioAttackableItem@@UAEXPAVioBaseChar@@M@Z
	DD	FLAT:?ProcessLanding@ioAttackableItem@@UAEXPAVioBaseChar@@@Z
	DD	FLAT:?ProcessJumpAttack@ioAttackableItem@@UAEXPAVioBaseChar@@M@Z
	DD	FLAT:?ProcessAimJump@ioAttackableItem@@UAE_NPAVioBaseChar@@M@Z
	DD	FLAT:?ApplyJump@ioAttackableItem@@UAEXPAVioBaseChar@@AAVSP2Packet@@@Z
	DD	FLAT:?ApplyDash@ioAttackableItem@@UAEXPAVioBaseChar@@AAVSP2Packet@@@Z
	DD	FLAT:?ApplyCounterAttack@ioAttackableItem@@UAEXPAVioBaseChar@@AAVSP2Packet@@@Z
	DD	FLAT:?CheckComboJumpAttack@ioAttackableItem@@UAEXPAVioBaseChar@@@Z
	DD	FLAT:?SetFlashJumpAttack@ioAttackableItem@@UAE_NPAVioBaseChar@@@Z
	DD	FLAT:?SetComboFlashAttack@ioAttackableItem@@UAE_NPAVioBaseChar@@@Z
	DD	FLAT:?SetCollectJumpAttack@ioAttackableItem@@UAE_NPAVioBaseChar@@@Z
	DD	FLAT:?SetPowerChargeJumpAttack@ioAttackableItem@@UAE_NPAVioBaseChar@@@Z
	DD	FLAT:?GetAttackSpeedRate@ioAttackableItem@@UBEMXZ
	DD	FLAT:?GetExtraJumpSpeedRate@ioAttackableItem@@UBEMABUD3DXVECTOR3@@ABUD3DXQUATERNION@@@Z
	DD	FLAT:?IsEnableExtendJump@ioAttackableItem@@UAE_NXZ
	DD	FLAT:?RecevieExtendJumpUse@ioAttackableItem@@UAEXPAVioBaseChar@@@Z
	DD	FLAT:?HasAniFile@ioAttackableItem@@UBE_NW4AttackType@@H@Z
	DD	FLAT:?HasEndAniFile@ioAttackableItem@@UBE_NW4AttackType@@H@Z
	DD	FLAT:?GetAttackAttribute@ioAttackableItem@@UBEPBUAttackAttribute@@W4AttackType@@H@Z
	DD	FLAT:?GetAniFile@ioAttackableItem@@UBEABVioHashString@@W4AttackType@@H@Z
	DD	FLAT:?GetAttackAniRate@ioAttackableItem@@UBEMW4AttackType@@H@Z
	DD	FLAT:?GetEndAniFile@ioAttackableItem@@UBEABVioHashString@@W4AttackType@@H@Z
	DD	FLAT:?GetAttackEndAniRate@ioAttackableItem@@UBEMW4AttackType@@H@Z
	DD	FLAT:?GetAttackAttributeIdx@ioAttackableItem@@UBEABV?$vector@UWeaponInfo@@V?$allocator@UWeaponInfo@@@std@@@std@@W4AttackType@@H@Z
	DD	FLAT:?GetForceInfoList@ioAttackableItem@@UBEABV?$vector@UForceInfo@@V?$allocator@UForceInfo@@@std@@@std@@W4AttackType@@H@Z
	DD	FLAT:?GetAttackPreDelay@ioAttackableItem@@UBEKW4AttackType@@H@Z
	DD	FLAT:?GetAttackAnimationDelay@ioAttackableItem@@UBEKW4AttackType@@H@Z
	DD	FLAT:?GetMaxCombo@ioAttackableItem@@UBEHXZ
	DD	FLAT:?GetExtraDashAttackMax@ioAttackableItem@@UBEHXZ
	DD	FLAT:?HasJumpEndAnimation@ioAttackableItem@@UBE_N_NPAVioBaseChar@@@Z
	DD	FLAT:?GetJumpEndAnimation@ioAttackableItem@@UBEABVioHashString@@_NPAVioBaseChar@@@Z
	DD	FLAT:?ClearCancelInfo@ioAttackableItem@@MAEXXZ
	DD	FLAT:?CheckCancelReserve@ioAttackableItem@@MAEXPAVioBaseChar@@@Z
	DD	FLAT:?SetCurAttackAniForInputJump@ioAttackableItem@@MAEXABVioHashString@@M@Z
	DD	FLAT:?ProcessCancel@ioAttackableItem@@MAE_NPAVioBaseChar@@@Z
	DD	FLAT:?ProcessCancelBySpeicalDash@ioAttackableItem@@MAE_NPAVioBaseChar@@@Z
	DD	FLAT:?SetCurAttackAniForInputDashS@ioAttackableItem@@UAEXABVioHashString@@M@Z
	DD	FLAT:?CheckCancelReserveByConditionalSpecialDash@ioAttackableItem@@UAEXPAVioBaseChar@@@Z
	DD	FLAT:?IsConditionalSpecialDashReserve@ioAttackableItem@@UAE_NPAVioBaseChar@@@Z
	DD	FLAT:?SetChangeConditionalSpecialDash@ioAttackableItem@@UAEXPAVioBaseChar@@W4DirKeyInput@ioUserKeyInput@@H@Z
	DD	FLAT:?CheckChangeWereWolfState@ioAttackableItem@@UAE_NPAVioBaseChar@@@Z
	DD	FLAT:?SetChangeWereWolfState@ioAttackableItem@@UAEXPAVioBaseChar@@@Z
	DD	FLAT:?CheckReleaseWereWolfState@ioAttackableItem@@UAE_NPAVioBaseChar@@@Z
	DD	FLAT:?ReleseWereWolfState@ioAttackableItem@@UAEXPAVioBaseChar@@@Z
	DD	FLAT:?ReleseWereWolfStateByOwner@ioAttackableItem@@UAEXPAVioBaseChar@@@Z
	DD	FLAT:?IncreaseChangeDamage@ioAttackableItem@@UAEXMH_N@Z
	DD	FLAT:?IncreaseChangeDamageByWeapon@ioAttackableItem@@UAEXM@Z
	DD	FLAT:?CheckIncreaseChangeDamage@ioAttackableItem@@UAEXPAVioBaseChar@@@Z
	DD	FLAT:?DecreaseChangeDamage@ioAttackableItem@@UAEXPAVioBaseChar@@@Z
	DD	FLAT:?IsEnableActionStopDelay@ioAttackableItem@@UAE_NXZ
	DD	FLAT:?SetExtraGaugeTypeByWeapon@ioAttackableItem@@UAEXPAVioBaseChar@@HHM@Z
	DD	FLAT:?SetUseExtraGauge@ioAttackableItem@@UAEXM@Z
	DD	FLAT:?InitExtraGauge@ioAttackableItem@@UAEXXZ
	DD	FLAT:?MaxExtraGauge@ioAttackableItem@@UAEXXZ
	DD	FLAT:?GetMaxExtraGauge@ioAttackableItem@@UAEMXZ
	DD	FLAT:?GetCurExtraGauge@ioAttackableItem@@UAEMXZ
	DD	FLAT:?SetCurExtraGauge@ioAttackableItem@@UAEXM@Z
	DD	FLAT:?GetAutoTargetValue@ioAttackableItem@@UAEXPAVioBaseChar@@AAM11W4AutoTargetType@@@Z
	DD	FLAT:?ClearAirJump@ioAttackableItem@@UAEXXZ
	DD	FLAT:?SetAirJump@ioAttackableItem@@UAEXPAVioBaseChar@@HM@Z
	DD	FLAT:?CheckAirJump@ioAttackableItem@@UAEXPAVioBaseChar@@@Z
	DD	FLAT:?IsAutoTarget@ioAttackableItem@@UBE_NXZ
	DD	FLAT:?EquipObjectItemByAttakable@ioAttackableItem@@UAEXPAVioBaseChar@@PAVioItem@@@Z
	DD	FLAT:?ReleaseObjectItemByAttack@ioAttackableItem@@UAEXPAVioBaseChar@@PAVioItem@@@Z
	DD	FLAT:?IsBuffFlyChange@ioAttackableItem@@UAE_NPAVioBaseChar@@@Z
	DD	FLAT:?GetAttackStateText@ioAttackableItem@@UBEPBDXZ
	DD	FLAT:?SetJumpLandingExtraState@ioAttackableItem@@UAE_NPAVioBaseChar@@@Z
	DD	FLAT:?IsWoundAfterUseExtendState@ioAttackableItem@@UAE_NXZ
	DD	FLAT:?CheckWoundAfterUseExtendState@ioAttackableItem@@UAE_NPAVioBaseChar@@W4BlowTargetType@@@Z
	DD	FLAT:?IsCharSkipState@ioAttackableItem@@UAE_NPBVioBaseChar@@@Z
	DD	FLAT:?ReleaseObjectState@ioWeaponItem@@UAEXPAVioBaseChar@@PAVioObjectItem@@@Z
	DD	FLAT:?IsCmdCheckEnableTime@ioWeaponItem@@UAE_NXZ
	DD	FLAT:?IsCmdSuccess@ioWeaponItem@@UAE_NXZ
	DD	FLAT:?IsOneTimeWeaponItem@ioObjectChargeShotItem@@UBE_NXZ
	DD	FLAT:?GetEquipMesh@ioObjectItem@@UBEABVioHashString@@PAVioBaseChar@@@Z
	DD	FLAT:?IsCanSendControl@ioWeaponItem@@UBE_NXZ
	DD	FLAT:?GetSubType@ioObjectItem@@UBE?AW4WeaponSubType@ioWeaponItem@@XZ
	DD	FLAT:?IsEnableDash@ioObjectChargeShotItem@@UBE_NXZ
	DD	FLAT:?IsEnableDefense@ioObjectChargeShotItem@@UBE_NXZ
	DD	FLAT:?IsProtectState@ioObjectChargeShotItem@@UAE_NXZ
	DD	FLAT:?EnableReduceGaugeOnSwitchBuff@ioObjectChargeShotItem@@UAE_NXZ
	DD	FLAT:?GetObjectSubType@ioObjectChargeShotItem@@UBE?AW4ObjectSubType@ioObjectItem@@XZ
	DD	FLAT:?CheckAttackCount@ioObjectItem@@UAEXPAVioBaseChar@@@Z
	DD	FLAT:?CheckActiveCount@ioObjectItem@@UAEXPAVioBaseChar@@@Z
	DD	FLAT:?IsAttackComboInit@ioObjectItem@@UBE_NXZ
	DD	FLAT:?OnProcessState@ioObjectItem@@UAEXPAVioPlayStage@@PAVioBaseChar@@@Z
	DD	FLAT:?CheckReleaseProcess@ioObjectItem@@UAE_NPAVioPlayStage@@PAVioBaseChar@@@Z
	DD	FLAT:?CheckReleaseByNormalAttack@ioObjectItem@@UAE_NPAVioPlayStage@@PAVioBaseChar@@@Z
	DD	FLAT:?CheckObjectReleaseSelectionBuff@ioObjectItem@@UAE_NPAVioBaseChar@@@Z
	DD	FLAT:?SetObjectReleaseTCPSend@ioObjectItem@@UAEX_N@Z
	DD	FLAT:?IsObjectReleaseTCPSend@ioObjectItem@@UAE_NXZ
	DD	FLAT:?IsNormalAttackStop@ioObjectItem@@UAE_NXZ
CONST	ENDS
;	COMDAT xdata$x
xdata$x	SEGMENT
__ehfuncinfo$??1ioObjectChargeShotItem@@UAE@XZ DD 019930522H
	DD	019H
	DD	FLAT:__unwindtable$??1ioObjectChargeShotItem@@UAE@XZ
	DD	2 DUP(00H)
	DD	2 DUP(00H)
	DD	00H
	DD	01H
__unwindtable$??1ioObjectChargeShotItem@@UAE@XZ DD 0ffffffffH
	DD	FLAT:__unwindfunclet$??1ioObjectChargeShotItem@@UAE@XZ$0
	DD	00H
	DD	FLAT:__unwindfunclet$??1ioObjectChargeShotItem@@UAE@XZ$1
	DD	01H
	DD	FLAT:__unwindfunclet$??1ioObjectChargeShotItem@@UAE@XZ$2
	DD	02H
	DD	FLAT:__unwindfunclet$??1ioObjectChargeShotItem@@UAE@XZ$3
	DD	03H
	DD	FLAT:__unwindfunclet$??1ioObjectChargeShotItem@@UAE@XZ$4
	DD	04H
	DD	FLAT:__unwindfunclet$??1ioObjectChargeShotItem@@UAE@XZ$5
	DD	05H
	DD	FLAT:__unwindfunclet$??1ioObjectChargeShotItem@@UAE@XZ$6
	DD	06H
	DD	FLAT:__unwindfunclet$??1ioObjectChargeShotItem@@UAE@XZ$7
	DD	07H
	DD	FLAT:__unwindfunclet$??1ioObjectChargeShotItem@@UAE@XZ$8
	DD	08H
	DD	FLAT:__unwindfunclet$??1ioObjectChargeShotItem@@UAE@XZ$9
	DD	09H
	DD	FLAT:__unwindfunclet$??1ioObjectChargeShotItem@@UAE@XZ$10
	DD	0aH
	DD	FLAT:__unwindfunclet$??1ioObjectChargeShotItem@@UAE@XZ$11
	DD	0bH
	DD	FLAT:__unwindfunclet$??1ioObjectChargeShotItem@@UAE@XZ$12
	DD	0cH
	DD	FLAT:__unwindfunclet$??1ioObjectChargeShotItem@@UAE@XZ$13
	DD	0dH
	DD	FLAT:__unwindfunclet$??1ioObjectChargeShotItem@@UAE@XZ$14
	DD	0eH
	DD	FLAT:__unwindfunclet$??1ioObjectChargeShotItem@@UAE@XZ$15
	DD	0fH
	DD	FLAT:__unwindfunclet$??1ioObjectChargeShotItem@@UAE@XZ$16
	DD	010H
	DD	FLAT:__unwindfunclet$??1ioObjectChargeShotItem@@UAE@XZ$17
	DD	011H
	DD	FLAT:__unwindfunclet$??1ioObjectChargeShotItem@@UAE@XZ$18
	DD	012H
	DD	FLAT:__unwindfunclet$??1ioObjectChargeShotItem@@UAE@XZ$19
	DD	013H
	DD	FLAT:__unwindfunclet$??1ioObjectChargeShotItem@@UAE@XZ$20
	DD	014H
	DD	FLAT:__unwindfunclet$??1ioObjectChargeShotItem@@UAE@XZ$21
	DD	015H
	DD	FLAT:__unwindfunclet$??1ioObjectChargeShotItem@@UAE@XZ$22
	DD	016H
	DD	FLAT:__unwindfunclet$??1ioObjectChargeShotItem@@UAE@XZ$23
	DD	017H
	DD	FLAT:__unwindfunclet$??1ioObjectChargeShotItem@@UAE@XZ$24
; Function compile flags: /Ogsp
; File d:\lost saga for developer\youtube\tutorial\source\src\lsclient\ioobjectchargeshotitem.cpp
xdata$x	ENDS
;	COMDAT ??1ioObjectChargeShotItem@@UAE@XZ
_TEXT	SEGMENT
_this$ = -16						; size = 4
__$EHRec$ = -12						; size = 12
??1ioObjectChargeShotItem@@UAE@XZ PROC			; ioObjectChargeShotItem::~ioObjectChargeShotItem, COMDAT
; _this$ = ecx

; 84   : {

  00000	6a 04		 push	 4
  00002	b8 00 00 00 00	 mov	 eax, __ehhandler$??1ioObjectChargeShotItem@@UAE@XZ
  00007	e8 00 00 00 00	 call	 __EH_prolog3
  0000c	8b f1		 mov	 esi, ecx
  0000e	89 75 f0	 mov	 DWORD PTR _this$[ebp], esi
  00011	c7 06 00 00 00
	00		 mov	 DWORD PTR [esi], OFFSET ??_7ioObjectChargeShotItem@@6B@

; 85   : }

  00017	bf 00 00 00 00	 mov	 edi, OFFSET ??_7?$CEncrypt@K@@6B@
  0001c	8d 8e 5c 1f 00
	00		 lea	 ecx, DWORD PTR [esi+8028]
  00022	c7 45 fc 18 00
	00 00		 mov	 DWORD PTR __$EHRec$[ebp+8], 24 ; 00000018H
  00029	89 be 50 1f 00
	00		 mov	 DWORD PTR [esi+8016], edi
  0002f	e8 00 00 00 00	 call	 ??1ccddaabb@@UAE@XZ	; ccddaabb::~ccddaabb
  00034	8d 8e 24 1f 00
	00		 lea	 ecx, DWORD PTR [esi+7972]
  0003a	c6 45 fc 17	 mov	 BYTE PTR __$EHRec$[ebp+8], 23 ; 00000017H
  0003e	89 be 18 1f 00
	00		 mov	 DWORD PTR [esi+7960], edi
  00044	e8 00 00 00 00	 call	 ??1ccddaabb@@UAE@XZ	; ccddaabb::~ccddaabb
  00049	bf 00 00 00 00	 mov	 edi, OFFSET ??_7?$CEncrypt@M@@6B@
  0004e	8d 8e e0 1e 00
	00		 lea	 ecx, DWORD PTR [esi+7904]
  00054	c6 45 fc 16	 mov	 BYTE PTR __$EHRec$[ebp+8], 22 ; 00000016H
  00058	89 be d4 1e 00
	00		 mov	 DWORD PTR [esi+7892], edi
  0005e	e8 00 00 00 00	 call	 ??1ccddaabb@@UAE@XZ	; ccddaabb::~ccddaabb
  00063	8d 8e b0 1e 00
	00		 lea	 ecx, DWORD PTR [esi+7856]
  00069	c6 45 fc 15	 mov	 BYTE PTR __$EHRec$[ebp+8], 21 ; 00000015H
  0006d	89 be a4 1e 00
	00		 mov	 DWORD PTR [esi+7844], edi
  00073	e8 00 00 00 00	 call	 ??1ccddaabb@@UAE@XZ	; ccddaabb::~ccddaabb
  00078	8d 8e 80 1e 00
	00		 lea	 ecx, DWORD PTR [esi+7808]
  0007e	c6 45 fc 14	 mov	 BYTE PTR __$EHRec$[ebp+8], 20 ; 00000014H
  00082	89 be 74 1e 00
	00		 mov	 DWORD PTR [esi+7796], edi
  00088	e8 00 00 00 00	 call	 ??1ccddaabb@@UAE@XZ	; ccddaabb::~ccddaabb
  0008d	8d 8e 50 1e 00
	00		 lea	 ecx, DWORD PTR [esi+7760]
  00093	c6 45 fc 13	 mov	 BYTE PTR __$EHRec$[ebp+8], 19 ; 00000013H
  00097	89 be 44 1e 00
	00		 mov	 DWORD PTR [esi+7748], edi
  0009d	e8 00 00 00 00	 call	 ??1ccddaabb@@UAE@XZ	; ccddaabb::~ccddaabb
  000a2	8d 8e 20 1e 00
	00		 lea	 ecx, DWORD PTR [esi+7712]
  000a8	c6 45 fc 12	 mov	 BYTE PTR __$EHRec$[ebp+8], 18 ; 00000012H
  000ac	89 be 14 1e 00
	00		 mov	 DWORD PTR [esi+7700], edi
  000b2	e8 00 00 00 00	 call	 ??1ccddaabb@@UAE@XZ	; ccddaabb::~ccddaabb
  000b7	8d 8e f0 1d 00
	00		 lea	 ecx, DWORD PTR [esi+7664]
  000bd	c6 45 fc 11	 mov	 BYTE PTR __$EHRec$[ebp+8], 17 ; 00000011H
  000c1	89 be e4 1d 00
	00		 mov	 DWORD PTR [esi+7652], edi
  000c7	e8 00 00 00 00	 call	 ??1ccddaabb@@UAE@XZ	; ccddaabb::~ccddaabb
  000cc	8d 8e c0 1d 00
	00		 lea	 ecx, DWORD PTR [esi+7616]
  000d2	c6 45 fc 10	 mov	 BYTE PTR __$EHRec$[ebp+8], 16 ; 00000010H
  000d6	89 be b4 1d 00
	00		 mov	 DWORD PTR [esi+7604], edi
  000dc	e8 00 00 00 00	 call	 ??1ccddaabb@@UAE@XZ	; ccddaabb::~ccddaabb
  000e1	8d 8e 80 1d 00
	00		 lea	 ecx, DWORD PTR [esi+7552]
  000e7	c6 45 fc 0f	 mov	 BYTE PTR __$EHRec$[ebp+8], 15 ; 0000000fH
  000eb	89 be 74 1d 00
	00		 mov	 DWORD PTR [esi+7540], edi
  000f1	e8 00 00 00 00	 call	 ??1ccddaabb@@UAE@XZ	; ccddaabb::~ccddaabb
  000f6	8d 8e 50 1d 00
	00		 lea	 ecx, DWORD PTR [esi+7504]
  000fc	c6 45 fc 0e	 mov	 BYTE PTR __$EHRec$[ebp+8], 14 ; 0000000eH
  00100	89 be 44 1d 00
	00		 mov	 DWORD PTR [esi+7492], edi
  00106	e8 00 00 00 00	 call	 ??1ccddaabb@@UAE@XZ	; ccddaabb::~ccddaabb
  0010b	8d 8e 20 1d 00
	00		 lea	 ecx, DWORD PTR [esi+7456]
  00111	c6 45 fc 0d	 mov	 BYTE PTR __$EHRec$[ebp+8], 13 ; 0000000dH
  00115	89 be 14 1d 00
	00		 mov	 DWORD PTR [esi+7444], edi
  0011b	e8 00 00 00 00	 call	 ??1ccddaabb@@UAE@XZ	; ccddaabb::~ccddaabb
  00120	8d 8e f0 1c 00
	00		 lea	 ecx, DWORD PTR [esi+7408]
  00126	c6 45 fc 0c	 mov	 BYTE PTR __$EHRec$[ebp+8], 12 ; 0000000cH
  0012a	89 be e4 1c 00
	00		 mov	 DWORD PTR [esi+7396], edi
  00130	e8 00 00 00 00	 call	 ??1ccddaabb@@UAE@XZ	; ccddaabb::~ccddaabb
  00135	c6 45 fc 0b	 mov	 BYTE PTR __$EHRec$[ebp+8], 11 ; 0000000bH
  00139	8b 1d 00 00 00
	00		 mov	 ebx, DWORD PTR __imp_??1ioHashString@@QAE@XZ
  0013f	8d 8e d0 1c 00
	00		 lea	 ecx, DWORD PTR [esi+7376]
  00145	ff d3		 call	 ebx
  00147	8d 8e c0 1c 00
	00		 lea	 ecx, DWORD PTR [esi+7360]
  0014d	c6 45 fc 0a	 mov	 BYTE PTR __$EHRec$[ebp+8], 10 ; 0000000aH
  00151	ff d3		 call	 ebx
  00153	8d 8e 90 1c 00
	00		 lea	 ecx, DWORD PTR [esi+7312]
  00159	c6 45 fc 09	 mov	 BYTE PTR __$EHRec$[ebp+8], 9
  0015d	ff d3		 call	 ebx
  0015f	8d 8e 64 1c 00
	00		 lea	 ecx, DWORD PTR [esi+7268]
  00165	c6 45 fc 08	 mov	 BYTE PTR __$EHRec$[ebp+8], 8
  00169	c7 86 58 1c 00
	00 00 00 00 00	 mov	 DWORD PTR [esi+7256], OFFSET ??_7?$CEncrypt@K@@6B@
  00173	e8 00 00 00 00	 call	 ??1ccddaabb@@UAE@XZ	; ccddaabb::~ccddaabb
  00178	8d 8e 34 1c 00
	00		 lea	 ecx, DWORD PTR [esi+7220]
  0017e	c6 45 fc 07	 mov	 BYTE PTR __$EHRec$[ebp+8], 7
  00182	c7 86 28 1c 00
	00 00 00 00 00	 mov	 DWORD PTR [esi+7208], OFFSET ??_7?$CEncrypt@K@@6B@
  0018c	e8 00 00 00 00	 call	 ??1ccddaabb@@UAE@XZ	; ccddaabb::~ccddaabb
  00191	8d 8e 04 1c 00
	00		 lea	 ecx, DWORD PTR [esi+7172]
  00197	c6 45 fc 06	 mov	 BYTE PTR __$EHRec$[ebp+8], 6
  0019b	89 be f8 1b 00
	00		 mov	 DWORD PTR [esi+7160], edi
  001a1	e8 00 00 00 00	 call	 ??1ccddaabb@@UAE@XZ	; ccddaabb::~ccddaabb
  001a6	8d 8e e8 1b 00
	00		 lea	 ecx, DWORD PTR [esi+7144]
  001ac	c6 45 fc 05	 mov	 BYTE PTR __$EHRec$[ebp+8], 5
  001b0	ff d3		 call	 ebx
  001b2	8d 8e c4 1b 00
	00		 lea	 ecx, DWORD PTR [esi+7108]
  001b8	c6 45 fc 04	 mov	 BYTE PTR __$EHRec$[ebp+8], 4
  001bc	89 be b8 1b 00
	00		 mov	 DWORD PTR [esi+7096], edi
  001c2	e8 00 00 00 00	 call	 ??1ccddaabb@@UAE@XZ	; ccddaabb::~ccddaabb
  001c7	8d 8e a8 1b 00
	00		 lea	 ecx, DWORD PTR [esi+7080]
  001cd	c6 45 fc 03	 mov	 BYTE PTR __$EHRec$[ebp+8], 3
  001d1	ff d3		 call	 ebx
  001d3	8d 8e 84 1b 00
	00		 lea	 ecx, DWORD PTR [esi+7044]
  001d9	c6 45 fc 02	 mov	 BYTE PTR __$EHRec$[ebp+8], 2
  001dd	89 be 78 1b 00
	00		 mov	 DWORD PTR [esi+7032], edi
  001e3	e8 00 00 00 00	 call	 ??1ccddaabb@@UAE@XZ	; ccddaabb::~ccddaabb
  001e8	8d 8e 68 1b 00
	00		 lea	 ecx, DWORD PTR [esi+7016]
  001ee	c6 45 fc 01	 mov	 BYTE PTR __$EHRec$[ebp+8], 1
  001f2	ff d3		 call	 ebx
  001f4	8d 8e 44 1b 00
	00		 lea	 ecx, DWORD PTR [esi+6980]
  001fa	c6 45 fc 00	 mov	 BYTE PTR __$EHRec$[ebp+8], 0
  001fe	c7 86 38 1b 00
	00 00 00 00 00	 mov	 DWORD PTR [esi+6968], OFFSET ??_7?$CEncrypt@_N@@6B@
  00208	e8 00 00 00 00	 call	 ??1ccddaabb@@UAE@XZ	; ccddaabb::~ccddaabb
  0020d	83 4d fc ff	 or	 DWORD PTR __$EHRec$[ebp+8], -1
  00211	8b ce		 mov	 ecx, esi
  00213	e8 00 00 00 00	 call	 ??1ioObjectItem@@UAE@XZ	; ioObjectItem::~ioObjectItem
  00218	e8 00 00 00 00	 call	 __EH_epilog3
  0021d	c3		 ret	 0
_TEXT	ENDS
;	COMDAT text$x
text$x	SEGMENT
__unwindfunclet$??1ioObjectChargeShotItem@@UAE@XZ$0:
  00000	8b 4d f0	 mov	 ecx, DWORD PTR _this$[ebp]
  00003	e9 00 00 00 00	 jmp	 ??1ioObjectItem@@UAE@XZ	; ioObjectItem::~ioObjectItem
__unwindfunclet$??1ioObjectChargeShotItem@@UAE@XZ$1:
  00008	8b 4d f0	 mov	 ecx, DWORD PTR _this$[ebp]
  0000b	81 c1 38 1b 00
	00		 add	 ecx, 6968		; 00001b38H
  00011	e9 00 00 00 00	 jmp	 ??1?$CEncrypt@_N@@UAE@XZ ; CEncrypt<bool>::~CEncrypt<bool>
__unwindfunclet$??1ioObjectChargeShotItem@@UAE@XZ$2:
  00016	8b 4d f0	 mov	 ecx, DWORD PTR _this$[ebp]
  00019	81 c1 68 1b 00
	00		 add	 ecx, 7016		; 00001b68H
  0001f	ff 25 00 00 00
	00		 jmp	 DWORD PTR __imp_??1ioHashString@@QAE@XZ
__unwindfunclet$??1ioObjectChargeShotItem@@UAE@XZ$3:
  00025	8b 4d f0	 mov	 ecx, DWORD PTR _this$[ebp]
  00028	81 c1 78 1b 00
	00		 add	 ecx, 7032		; 00001b78H
  0002e	e9 00 00 00 00	 jmp	 ??1?$CEncrypt@M@@UAE@XZ	; CEncrypt<float>::~CEncrypt<float>
__unwindfunclet$??1ioObjectChargeShotItem@@UAE@XZ$4:
  00033	8b 4d f0	 mov	 ecx, DWORD PTR _this$[ebp]
  00036	81 c1 a8 1b 00
	00		 add	 ecx, 7080		; 00001ba8H
  0003c	ff 25 00 00 00
	00		 jmp	 DWORD PTR __imp_??1ioHashString@@QAE@XZ
__unwindfunclet$??1ioObjectChargeShotItem@@UAE@XZ$5:
  00042	8b 4d f0	 mov	 ecx, DWORD PTR _this$[ebp]
  00045	81 c1 b8 1b 00
	00		 add	 ecx, 7096		; 00001bb8H
  0004b	e9 00 00 00 00	 jmp	 ??1?$CEncrypt@M@@UAE@XZ	; CEncrypt<float>::~CEncrypt<float>
__unwindfunclet$??1ioObjectChargeShotItem@@UAE@XZ$6:
  00050	8b 4d f0	 mov	 ecx, DWORD PTR _this$[ebp]
  00053	81 c1 e8 1b 00
	00		 add	 ecx, 7144		; 00001be8H
  00059	ff 25 00 00 00
	00		 jmp	 DWORD PTR __imp_??1ioHashString@@QAE@XZ
__unwindfunclet$??1ioObjectChargeShotItem@@UAE@XZ$7:
  0005f	8b 4d f0	 mov	 ecx, DWORD PTR _this$[ebp]
  00062	81 c1 f8 1b 00
	00		 add	 ecx, 7160		; 00001bf8H
  00068	e9 00 00 00 00	 jmp	 ??1?$CEncrypt@M@@UAE@XZ	; CEncrypt<float>::~CEncrypt<float>
__unwindfunclet$??1ioObjectChargeShotItem@@UAE@XZ$8:
  0006d	8b 4d f0	 mov	 ecx, DWORD PTR _this$[ebp]
  00070	81 c1 28 1c 00
	00		 add	 ecx, 7208		; 00001c28H
  00076	e9 00 00 00 00	 jmp	 ??1?$CEncrypt@K@@UAE@XZ	; CEncrypt<unsigned long>::~CEncrypt<unsigned long>
__unwindfunclet$??1ioObjectChargeShotItem@@UAE@XZ$9:
  0007b	8b 4d f0	 mov	 ecx, DWORD PTR _this$[ebp]
  0007e	81 c1 58 1c 00
	00		 add	 ecx, 7256		; 00001c58H
  00084	e9 00 00 00 00	 jmp	 ??1?$CEncrypt@K@@UAE@XZ	; CEncrypt<unsigned long>::~CEncrypt<unsigned long>
__unwindfunclet$??1ioObjectChargeShotItem@@UAE@XZ$10:
  00089	8b 4d f0	 mov	 ecx, DWORD PTR _this$[ebp]
  0008c	81 c1 88 1c 00
	00		 add	 ecx, 7304		; 00001c88H
  00092	e9 00 00 00 00	 jmp	 ??1WeaponInfo@@QAE@XZ
__unwindfunclet$??1ioObjectChargeShotItem@@UAE@XZ$11:
  00097	8b 4d f0	 mov	 ecx, DWORD PTR _this$[ebp]
  0009a	81 c1 c0 1c 00
	00		 add	 ecx, 7360		; 00001cc0H
  000a0	ff 25 00 00 00
	00		 jmp	 DWORD PTR __imp_??1ioHashString@@QAE@XZ
__unwindfunclet$??1ioObjectChargeShotItem@@UAE@XZ$12:
  000a6	8b 4d f0	 mov	 ecx, DWORD PTR _this$[ebp]
  000a9	81 c1 d0 1c 00
	00		 add	 ecx, 7376		; 00001cd0H
  000af	ff 25 00 00 00
	00		 jmp	 DWORD PTR __imp_??1ioHashString@@QAE@XZ
__unwindfunclet$??1ioObjectChargeShotItem@@UAE@XZ$13:
  000b5	8b 4d f0	 mov	 ecx, DWORD PTR _this$[ebp]
  000b8	81 c1 e4 1c 00
	00		 add	 ecx, 7396		; 00001ce4H
  000be	e9 00 00 00 00	 jmp	 ??1?$CEncrypt@M@@UAE@XZ	; CEncrypt<float>::~CEncrypt<float>
__unwindfunclet$??1ioObjectChargeShotItem@@UAE@XZ$14:
  000c3	8b 4d f0	 mov	 ecx, DWORD PTR _this$[ebp]
  000c6	81 c1 14 1d 00
	00		 add	 ecx, 7444		; 00001d14H
  000cc	e9 00 00 00 00	 jmp	 ??1?$CEncrypt@M@@UAE@XZ	; CEncrypt<float>::~CEncrypt<float>
__unwindfunclet$??1ioObjectChargeShotItem@@UAE@XZ$15:
  000d1	8b 4d f0	 mov	 ecx, DWORD PTR _this$[ebp]
  000d4	81 c1 44 1d 00
	00		 add	 ecx, 7492		; 00001d44H
  000da	e9 00 00 00 00	 jmp	 ??1?$CEncrypt@M@@UAE@XZ	; CEncrypt<float>::~CEncrypt<float>
__unwindfunclet$??1ioObjectChargeShotItem@@UAE@XZ$16:
  000df	8b 4d f0	 mov	 ecx, DWORD PTR _this$[ebp]
  000e2	81 c1 74 1d 00
	00		 add	 ecx, 7540		; 00001d74H
  000e8	e9 00 00 00 00	 jmp	 ??1?$CEncrypt@M@@UAE@XZ	; CEncrypt<float>::~CEncrypt<float>
__unwindfunclet$??1ioObjectChargeShotItem@@UAE@XZ$17:
  000ed	8b 4d f0	 mov	 ecx, DWORD PTR _this$[ebp]
  000f0	81 c1 b4 1d 00
	00		 add	 ecx, 7604		; 00001db4H
  000f6	e9 00 00 00 00	 jmp	 ??1?$CEncrypt@M@@UAE@XZ	; CEncrypt<float>::~CEncrypt<float>
__unwindfunclet$??1ioObjectChargeShotItem@@UAE@XZ$18:
  000fb	8b 4d f0	 mov	 ecx, DWORD PTR _this$[ebp]
  000fe	81 c1 e4 1d 00
	00		 add	 ecx, 7652		; 00001de4H
  00104	e9 00 00 00 00	 jmp	 ??1?$CEncrypt@M@@UAE@XZ	; CEncrypt<float>::~CEncrypt<float>
__unwindfunclet$??1ioObjectChargeShotItem@@UAE@XZ$19:
  00109	8b 4d f0	 mov	 ecx, DWORD PTR _this$[ebp]
  0010c	81 c1 14 1e 00
	00		 add	 ecx, 7700		; 00001e14H
  00112	e9 00 00 00 00	 jmp	 ??1?$CEncrypt@M@@UAE@XZ	; CEncrypt<float>::~CEncrypt<float>
__unwindfunclet$??1ioObjectChargeShotItem@@UAE@XZ$20:
  00117	8b 4d f0	 mov	 ecx, DWORD PTR _this$[ebp]
  0011a	81 c1 44 1e 00
	00		 add	 ecx, 7748		; 00001e44H
  00120	e9 00 00 00 00	 jmp	 ??1?$CEncrypt@M@@UAE@XZ	; CEncrypt<float>::~CEncrypt<float>
__unwindfunclet$??1ioObjectChargeShotItem@@UAE@XZ$21:
  00125	8b 4d f0	 mov	 ecx, DWORD PTR _this$[ebp]
  00128	81 c1 74 1e 00
	00		 add	 ecx, 7796		; 00001e74H
  0012e	e9 00 00 00 00	 jmp	 ??1?$CEncrypt@M@@UAE@XZ	; CEncrypt<float>::~CEncrypt<float>
__unwindfunclet$??1ioObjectChargeShotItem@@UAE@XZ$22:
  00133	8b 4d f0	 mov	 ecx, DWORD PTR _this$[ebp]
  00136	81 c1 a4 1e 00
	00		 add	 ecx, 7844		; 00001ea4H
  0013c	e9 00 00 00 00	 jmp	 ??1?$CEncrypt@M@@UAE@XZ	; CEncrypt<float>::~CEncrypt<float>
__unwindfunclet$??1ioObjectChargeShotItem@@UAE@XZ$23:
  00141	8b 4d f0	 mov	 ecx, DWORD PTR _this$[ebp]
  00144	81 c1 d4 1e 00
	00		 add	 ecx, 7892		; 00001ed4H
  0014a	e9 00 00 00 00	 jmp	 ??1?$CEncrypt@M@@UAE@XZ	; CEncrypt<float>::~CEncrypt<float>
__unwindfunclet$??1ioObjectChargeShotItem@@UAE@XZ$24:
  0014f	8b 4d f0	 mov	 ecx, DWORD PTR _this$[ebp]
  00152	81 c1 18 1f 00
	00		 add	 ecx, 7960		; 00001f18H
  00158	e9 00 00 00 00	 jmp	 ??1?$CEncrypt@K@@UAE@XZ	; CEncrypt<unsigned long>::~CEncrypt<unsigned long>
__ehhandler$??1ioObjectChargeShotItem@@UAE@XZ:
  0015d	8b 54 24 08	 mov	 edx, DWORD PTR [esp+8]
  00161	8d 42 0c	 lea	 eax, DWORD PTR [edx+12]
  00164	8b 4a ec	 mov	 ecx, DWORD PTR [edx-20]
  00167	33 c8		 xor	 ecx, eax
  00169	e8 00 00 00 00	 call	 @__security_check_cookie@4
  0016e	b8 00 00 00 00	 mov	 eax, OFFSET __ehfuncinfo$??1ioObjectChargeShotItem@@UAE@XZ
  00173	e9 00 00 00 00	 jmp	 ___CxxFrameHandler3
text$x	ENDS
??1ioObjectChargeShotItem@@UAE@XZ ENDP			; ioObjectChargeShotItem::~ioObjectChargeShotItem
; Function compile flags: /Ogsp
; File d:\lost saga for developer\youtube\tutorial\source\src\lsclient\ioitem.h
;	COMDAT ?IsEnableExtraGauge@ioItem@@UAE_NPAVioBaseChar@@@Z
_TEXT	SEGMENT
_pChar$ = 8						; size = 4
?IsEnableExtraGauge@ioItem@@UAE_NPAVioBaseChar@@@Z PROC	; ioItem::IsEnableExtraGauge, COMDAT
; _this$ = ecx

; 375  : 	virtual bool IsEnableExtraGauge( ioBaseChar *pChar ) { return true; }

  00000	b0 01		 mov	 al, 1
  00002	c2 04 00	 ret	 4
?IsEnableExtraGauge@ioItem@@UAE_NPAVioBaseChar@@@Z ENDP	; ioItem::IsEnableExtraGauge
; Function compile flags: /Ogsp
_TEXT	ENDS
;	COMDAT ?GetExtraGauge@ioItem@@UAEMXZ
_TEXT	SEGMENT
tv64 = -4						; size = 4
?GetExtraGauge@ioItem@@UAEMXZ PROC			; ioItem::GetExtraGauge, COMDAT
; _this$ = ecx

; 376  : 	virtual float GetExtraGauge() { return FLOAT1; }

  00000	55		 push	 ebp
  00001	8b ec		 mov	 ebp, esp
  00003	51		 push	 ecx
  00004	b8 01 00 00 00	 mov	 eax, 1
  00009	89 45 fc	 mov	 DWORD PTR tv64[ebp], eax
  0000c	db 45 fc	 fild	 DWORD PTR tv64[ebp]
  0000f	85 c0		 test	 eax, eax
  00011	79 06		 jns	 SHORT $LN5@GetExtraGa
  00013	d8 05 00 00 00
	00		 fadd	 DWORD PTR __real@4f800000
$LN5@GetExtraGa:
  00019	c9		 leave
  0001a	c3		 ret	 0
?GetExtraGauge@ioItem@@UAEMXZ ENDP			; ioItem::GetExtraGauge
; Function compile flags: /Ogsp
; File d:\lost saga for developer\youtube\tutorial\source\src\lsclient\ioattackableitem.h
_TEXT	ENDS
;	COMDAT ?CheckOnHand@ioAttackableItem@@UAE_NXZ
_TEXT	SEGMENT
?CheckOnHand@ioAttackableItem@@UAE_NXZ PROC		; ioAttackableItem::CheckOnHand, COMDAT
; _this$ = ecx

; 429  : 	virtual bool CheckOnHand() { return false; }

  00000	32 c0		 xor	 al, al
  00002	c3		 ret	 0
?CheckOnHand@ioAttackableItem@@UAE_NXZ ENDP		; ioAttackableItem::CheckOnHand
; Function compile flags: /Ogsp
_TEXT	ENDS
;	COMDAT ?CheckAimState@ioAttackableItem@@UAE_N_N@Z
_TEXT	SEGMENT
_bAimMove$ = 8						; size = 1
?CheckAimState@ioAttackableItem@@UAE_N_N@Z PROC		; ioAttackableItem::CheckAimState, COMDAT
; _this$ = ecx

; 430  : 	virtual bool CheckAimState( bool bAimMove = false ) { return false; }

  00000	32 c0		 xor	 al, al
  00002	c2 04 00	 ret	 4
?CheckAimState@ioAttackableItem@@UAE_N_N@Z ENDP		; ioAttackableItem::CheckAimState
; Function compile flags: /Ogsp
_TEXT	ENDS
;	COMDAT ?SetAimState@ioAttackableItem@@UAE_NPAVioBaseChar@@@Z
_TEXT	SEGMENT
_pChar$ = 8						; size = 4
?SetAimState@ioAttackableItem@@UAE_NPAVioBaseChar@@@Z PROC ; ioAttackableItem::SetAimState, COMDAT
; _this$ = ecx

; 431  : 	virtual bool SetAimState( ioBaseChar *pChar ) { return false; }

  00000	32 c0		 xor	 al, al
  00002	c2 04 00	 ret	 4
?SetAimState@ioAttackableItem@@UAE_NPAVioBaseChar@@@Z ENDP ; ioAttackableItem::SetAimState
; Function compile flags: /Ogsp
_TEXT	ENDS
;	COMDAT ?CheckExtendDefenseEnable@ioAttackableItem@@UAE_NPAVioBaseChar@@@Z
_TEXT	SEGMENT
_pChar$ = 8						; size = 4
?CheckExtendDefenseEnable@ioAttackableItem@@UAE_NPAVioBaseChar@@@Z PROC ; ioAttackableItem::CheckExtendDefenseEnable, COMDAT
; _this$ = ecx

; 434  : 	virtual bool CheckExtendDefenseEnable( ioBaseChar *pChar ) { return true; }

  00000	b0 01		 mov	 al, 1
  00002	c2 04 00	 ret	 4
?CheckExtendDefenseEnable@ioAttackableItem@@UAE_NPAVioBaseChar@@@Z ENDP ; ioAttackableItem::CheckExtendDefenseEnable
; Function compile flags: /Ogsp
_TEXT	ENDS
;	COMDAT ?IsChargeAttackState@ioAttackableItem@@UAE_NPAVioBaseChar@@@Z
_TEXT	SEGMENT
_pOwner$ = 8						; size = 4
?IsChargeAttackState@ioAttackableItem@@UAE_NPAVioBaseChar@@@Z PROC ; ioAttackableItem::IsChargeAttackState, COMDAT
; _this$ = ecx

; 436  : 	virtual bool IsChargeAttackState( ioBaseChar *pOwner ) { return false; }

  00000	32 c0		 xor	 al, al
  00002	c2 04 00	 ret	 4
?IsChargeAttackState@ioAttackableItem@@UAE_NPAVioBaseChar@@@Z ENDP ; ioAttackableItem::IsChargeAttackState
; Function compile flags: /Ogsp
_TEXT	ENDS
;	COMDAT ?IsMoveAttackState@ioAttackableItem@@UAE_NPAVioBaseChar@@@Z
_TEXT	SEGMENT
_pOwner$ = 8						; size = 4
?IsMoveAttackState@ioAttackableItem@@UAE_NPAVioBaseChar@@@Z PROC ; ioAttackableItem::IsMoveAttackState, COMDAT
; _this$ = ecx

; 437  : 	virtual bool IsMoveAttackState( ioBaseChar *pOwner ) { return false; }

  00000	32 c0		 xor	 al, al
  00002	c2 04 00	 ret	 4
?IsMoveAttackState@ioAttackableItem@@UAE_NPAVioBaseChar@@@Z ENDP ; ioAttackableItem::IsMoveAttackState
; Function compile flags: /Ogsp
_TEXT	ENDS
;	COMDAT ?IsNoGhostWalk@ioAttackableItem@@UAE_NPAVioBaseChar@@@Z
_TEXT	SEGMENT
_pOwner$ = 8						; size = 4
?IsNoGhostWalk@ioAttackableItem@@UAE_NPAVioBaseChar@@@Z PROC ; ioAttackableItem::IsNoGhostWalk, COMDAT
; _this$ = ecx

; 439  : 	virtual bool IsNoGhostWalk( ioBaseChar *pOwner ) { return false; }

  00000	32 c0		 xor	 al, al
  00002	c2 04 00	 ret	 4
?IsNoGhostWalk@ioAttackableItem@@UAE_NPAVioBaseChar@@@Z ENDP ; ioAttackableItem::IsNoGhostWalk
; Function compile flags: /Ogsp
_TEXT	ENDS
;	COMDAT ?IsEnableAttackDashCheck@ioAttackableItem@@UAE_NPAVioBaseChar@@_N@Z
_TEXT	SEGMENT
_pOwner$ = 8						; size = 4
_bCheck$ = 12						; size = 1
?IsEnableAttackDashCheck@ioAttackableItem@@UAE_NPAVioBaseChar@@_N@Z PROC ; ioAttackableItem::IsEnableAttackDashCheck, COMDAT
; _this$ = ecx

; 441  : 	virtual bool IsEnableAttackDashCheck( ioBaseChar *pOwner, bool bCheck ) { return false; }

  00000	32 c0		 xor	 al, al
  00002	c2 08 00	 ret	 8
?IsEnableAttackDashCheck@ioAttackableItem@@UAE_NPAVioBaseChar@@_N@Z ENDP ; ioAttackableItem::IsEnableAttackDashCheck
; Function compile flags: /Ogsp
_TEXT	ENDS
;	COMDAT ?IsEnableItemDashCheck@ioAttackableItem@@UAE_NPAVioBaseChar@@_N@Z
_TEXT	SEGMENT
_pOwner$ = 8						; size = 4
_bCheck$ = 12						; size = 1
?IsEnableItemDashCheck@ioAttackableItem@@UAE_NPAVioBaseChar@@_N@Z PROC ; ioAttackableItem::IsEnableItemDashCheck, COMDAT
; _this$ = ecx

; 442  : 	virtual bool IsEnableItemDashCheck( ioBaseChar *pOwner, bool bCheck ) { return false; }

  00000	32 c0		 xor	 al, al
  00002	c2 08 00	 ret	 8
?IsEnableItemDashCheck@ioAttackableItem@@UAE_NPAVioBaseChar@@_N@Z ENDP ; ioAttackableItem::IsEnableItemDashCheck
; Function compile flags: /Ogsp
_TEXT	ENDS
;	COMDAT ?IsEnableAttackRotateCheck@ioAttackableItem@@UAE_NPAVioBaseChar@@@Z
_TEXT	SEGMENT
_pOwner$ = 8						; size = 4
?IsEnableAttackRotateCheck@ioAttackableItem@@UAE_NPAVioBaseChar@@@Z PROC ; ioAttackableItem::IsEnableAttackRotateCheck, COMDAT
; _this$ = ecx

; 443  : 	virtual bool IsEnableAttackRotateCheck( ioBaseChar *pOwner ) { return false; }

  00000	32 c0		 xor	 al, al
  00002	c2 04 00	 ret	 4
?IsEnableAttackRotateCheck@ioAttackableItem@@UAE_NPAVioBaseChar@@@Z ENDP ; ioAttackableItem::IsEnableAttackRotateCheck
; Function compile flags: /Ogsp
_TEXT	ENDS
;	COMDAT ?IsEnableChargeDefenseCheck@ioAttackableItem@@UAE_NXZ
_TEXT	SEGMENT
?IsEnableChargeDefenseCheck@ioAttackableItem@@UAE_NXZ PROC ; ioAttackableItem::IsEnableChargeDefenseCheck, COMDAT
; _this$ = ecx

; 444  : 	virtual bool IsEnableChargeDefenseCheck() { return false; }

  00000	32 c0		 xor	 al, al
  00002	c3		 ret	 0
?IsEnableChargeDefenseCheck@ioAttackableItem@@UAE_NXZ ENDP ; ioAttackableItem::IsEnableChargeDefenseCheck
; Function compile flags: /Ogsp
_TEXT	ENDS
;	COMDAT ?IsUseDefenceCounterAttackEndDash@ioAttackableItem@@UAE_NXZ
_TEXT	SEGMENT
?IsUseDefenceCounterAttackEndDash@ioAttackableItem@@UAE_NXZ PROC ; ioAttackableItem::IsUseDefenceCounterAttackEndDash, COMDAT
; _this$ = ecx

; 464  : 	virtual bool IsUseDefenceCounterAttackEndDash() { return false; }

  00000	32 c0		 xor	 al, al
  00002	c3		 ret	 0
?IsUseDefenceCounterAttackEndDash@ioAttackableItem@@UAE_NXZ ENDP ; ioAttackableItem::IsUseDefenceCounterAttackEndDash
; Function compile flags: /Ogsp
_TEXT	ENDS
;	COMDAT ?IsAutoTarget@ioAttackableItem@@UBE_NXZ
_TEXT	SEGMENT
?IsAutoTarget@ioAttackableItem@@UBE_NXZ PROC		; ioAttackableItem::IsAutoTarget, COMDAT
; _this$ = ecx

; 707  : 	virtual bool IsAutoTarget() const { return true; }

  00000	b0 01		 mov	 al, 1
  00002	c3		 ret	 0
?IsAutoTarget@ioAttackableItem@@UBE_NXZ ENDP		; ioAttackableItem::IsAutoTarget
; Function compile flags: /Ogsp
_TEXT	ENDS
;	COMDAT ?IsWoundAfterUseExtendState@ioAttackableItem@@UAE_NXZ
_TEXT	SEGMENT
?IsWoundAfterUseExtendState@ioAttackableItem@@UAE_NXZ PROC ; ioAttackableItem::IsWoundAfterUseExtendState, COMDAT
; _this$ = ecx

; 724  : 	virtual bool IsWoundAfterUseExtendState(){ return false; }

  00000	32 c0		 xor	 al, al
  00002	c3		 ret	 0
?IsWoundAfterUseExtendState@ioAttackableItem@@UAE_NXZ ENDP ; ioAttackableItem::IsWoundAfterUseExtendState
; Function compile flags: /Ogsp
_TEXT	ENDS
;	COMDAT ?CheckWoundAfterUseExtendState@ioAttackableItem@@UAE_NPAVioBaseChar@@W4BlowTargetType@@@Z
_TEXT	SEGMENT
_pOwner$ = 8						; size = 4
_eType$ = 12						; size = 4
?CheckWoundAfterUseExtendState@ioAttackableItem@@UAE_NPAVioBaseChar@@W4BlowTargetType@@@Z PROC ; ioAttackableItem::CheckWoundAfterUseExtendState, COMDAT
; _this$ = ecx

; 725  : 	virtual bool CheckWoundAfterUseExtendState( ioBaseChar* pOwner, BlowTargetType eType ){ return false; }

  00000	32 c0		 xor	 al, al
  00002	c2 08 00	 ret	 8
?CheckWoundAfterUseExtendState@ioAttackableItem@@UAE_NPAVioBaseChar@@W4BlowTargetType@@@Z ENDP ; ioAttackableItem::CheckWoundAfterUseExtendState
; Function compile flags: /Ogsp
_TEXT	ENDS
;	COMDAT ?IsCharSkipState@ioAttackableItem@@UAE_NPBVioBaseChar@@@Z
_TEXT	SEGMENT
_pOwner$ = 8						; size = 4
?IsCharSkipState@ioAttackableItem@@UAE_NPBVioBaseChar@@@Z PROC ; ioAttackableItem::IsCharSkipState, COMDAT
; _this$ = ecx

; 728  : 	virtual bool IsCharSkipState( const ioBaseChar* pOwner ){ return false; }

  00000	32 c0		 xor	 al, al
  00002	c2 04 00	 ret	 4
?IsCharSkipState@ioAttackableItem@@UAE_NPBVioBaseChar@@@Z ENDP ; ioAttackableItem::IsCharSkipState
; Function compile flags: /Ogsp
; File d:\lost saga for developer\youtube\tutorial\source\src\lsclient\ioobjectitem.h
_TEXT	ENDS
;	COMDAT ?OnProcessState@ioObjectItem@@UAEXPAVioPlayStage@@PAVioBaseChar@@@Z
_TEXT	SEGMENT
_pStage$ = 8						; size = 4
_pOwner$ = 12						; size = 4
?OnProcessState@ioObjectItem@@UAEXPAVioPlayStage@@PAVioBaseChar@@@Z PROC ; ioObjectItem::OnProcessState, COMDAT
; _this$ = ecx

; 156  : 	virtual void OnProcessState( ioPlayStage *pStage, ioBaseChar *pOwner ){};

  00000	c2 08 00	 ret	 8
?OnProcessState@ioObjectItem@@UAEXPAVioPlayStage@@PAVioBaseChar@@@Z ENDP ; ioObjectItem::OnProcessState
; Function compile flags: /Ogsp
_TEXT	ENDS
;	COMDAT ?SetObjectReleaseTCPSend@ioObjectItem@@UAEX_N@Z
_TEXT	SEGMENT
_bSend$ = 8						; size = 1
?SetObjectReleaseTCPSend@ioObjectItem@@UAEX_N@Z PROC	; ioObjectItem::SetObjectReleaseTCPSend, COMDAT
; _this$ = ecx

; 163  : 	virtual void SetObjectReleaseTCPSend( bool bSend ){ m_bObjectReleaseTCPSend = bSend; }

  00000	55		 push	 ebp
  00001	8b ec		 mov	 ebp, esp
  00003	8a 45 08	 mov	 al, BYTE PTR _bSend$[ebp]
  00006	88 81 8c 19 00
	00		 mov	 BYTE PTR [ecx+6540], al
  0000c	5d		 pop	 ebp
  0000d	c2 04 00	 ret	 4
?SetObjectReleaseTCPSend@ioObjectItem@@UAEX_N@Z ENDP	; ioObjectItem::SetObjectReleaseTCPSend
; Function compile flags: /Ogsp
_TEXT	ENDS
;	COMDAT ?IsObjectReleaseTCPSend@ioObjectItem@@UAE_NXZ
_TEXT	SEGMENT
?IsObjectReleaseTCPSend@ioObjectItem@@UAE_NXZ PROC	; ioObjectItem::IsObjectReleaseTCPSend, COMDAT
; _this$ = ecx

; 164  : 	virtual bool IsObjectReleaseTCPSend(){ return m_bObjectReleaseTCPSend; }

  00000	8a 81 8c 19 00
	00		 mov	 al, BYTE PTR [ecx+6540]
  00006	c3		 ret	 0
?IsObjectReleaseTCPSend@ioObjectItem@@UAE_NXZ ENDP	; ioObjectItem::IsObjectReleaseTCPSend
; Function compile flags: /Ogsp
_TEXT	ENDS
;	COMDAT ?IsNormalAttackStop@ioObjectItem@@UAE_NXZ
_TEXT	SEGMENT
?IsNormalAttackStop@ioObjectItem@@UAE_NXZ PROC		; ioObjectItem::IsNormalAttackStop, COMDAT
; _this$ = ecx

; 167  : 	virtual bool IsNormalAttackStop(){ return false; }	

  00000	32 c0		 xor	 al, al
  00002	c3		 ret	 0
?IsNormalAttackStop@ioObjectItem@@UAE_NXZ ENDP		; ioObjectItem::IsNormalAttackStop
_TEXT	ENDS
PUBLIC	??G?$CEncrypt@M@@QAEMABM@Z			; CEncrypt<float>::operator-
; Function compile flags: /Ogsp
; File d:\lost saga for developer\youtube\tutorial\source\src\lsclient\encryptvalue.h
;	COMDAT ??G?$CEncrypt@M@@QAEMABM@Z
_TEXT	SEGMENT
_value$ = -4						; size = 4
tv130 = 8						; size = 4
_inValue$ = 8						; size = 4
??G?$CEncrypt@M@@QAEMABM@Z PROC				; CEncrypt<float>::operator-, COMDAT
; _this$ = ecx

; 1665 : 	{	

  00000	55		 push	 ebp
  00001	8b ec		 mov	 ebp, esp
  00003	51		 push	 ecx

; 1666 : 		type value;
; 1667 : 		DecryptValueToPool(&value);

  00004	8d 45 fc	 lea	 eax, DWORD PTR _value$[ebp]
  00007	50		 push	 eax
  00008	e8 00 00 00 00	 call	 ?DecryptValueToPool@?$CEncrypt@M@@QAEXPAM@Z ; CEncrypt<float>::DecryptValueToPool

; 1668 : #ifdef _NOTUSE
; 1669 : 		Debug();
; 1670 : #endif
; 1671 : 		return value - inValue;

  0000d	d9 45 fc	 fld	 DWORD PTR _value$[ebp]
  00010	8b 45 08	 mov	 eax, DWORD PTR _inValue$[ebp]
  00013	d8 20		 fsub	 DWORD PTR [eax]
  00015	d9 5d 08	 fstp	 DWORD PTR tv130[ebp]
  00018	d9 45 08	 fld	 DWORD PTR tv130[ebp]

; 1672 : 	}

  0001b	c9		 leave
  0001c	c2 04 00	 ret	 4
??G?$CEncrypt@M@@QAEMABM@Z ENDP				; CEncrypt<float>::operator-
_TEXT	ENDS
PUBLIC	??D?$CEncrypt@M@@QAEMABM@Z			; CEncrypt<float>::operator*
; Function compile flags: /Ogsp
;	COMDAT ??D?$CEncrypt@M@@QAEMABM@Z
_TEXT	SEGMENT
_value$ = -4						; size = 4
tv130 = 8						; size = 4
_inValue$ = 8						; size = 4
??D?$CEncrypt@M@@QAEMABM@Z PROC				; CEncrypt<float>::operator*, COMDAT
; _this$ = ecx

; 1685 : 	{	

  00000	55		 push	 ebp
  00001	8b ec		 mov	 ebp, esp
  00003	51		 push	 ecx

; 1686 : 		type value;
; 1687 : 		DecryptValueToPool(&value);

  00004	8d 45 fc	 lea	 eax, DWORD PTR _value$[ebp]
  00007	50		 push	 eax
  00008	e8 00 00 00 00	 call	 ?DecryptValueToPool@?$CEncrypt@M@@QAEXPAM@Z ; CEncrypt<float>::DecryptValueToPool

; 1688 : #ifdef _NOTUSE
; 1689 : 		Debug();
; 1690 : #endif
; 1691 : 		return value * inValue;

  0000d	8b 45 08	 mov	 eax, DWORD PTR _inValue$[ebp]
  00010	d9 00		 fld	 DWORD PTR [eax]
  00012	d8 4d fc	 fmul	 DWORD PTR _value$[ebp]
  00015	d9 5d 08	 fstp	 DWORD PTR tv130[ebp]
  00018	d9 45 08	 fld	 DWORD PTR tv130[ebp]

; 1692 : 	}

  0001b	c9		 leave
  0001c	c2 04 00	 ret	 4
??D?$CEncrypt@M@@QAEMABM@Z ENDP				; CEncrypt<float>::operator*
_TEXT	ENDS
PUBLIC	??O?$CEncrypt@K@@QAE_NABH@Z			; CEncrypt<unsigned long>::operator>
; Function compile flags: /Ogsp
;	COMDAT ??O?$CEncrypt@K@@QAE_NABH@Z
_TEXT	SEGMENT
_value$ = -4						; size = 4
_inValue$ = 8						; size = 4
??O?$CEncrypt@K@@QAE_NABH@Z PROC			; CEncrypt<unsigned long>::operator>, COMDAT
; _this$ = ecx

; 1009 : 	{

  00000	55		 push	 ebp
  00001	8b ec		 mov	 ebp, esp
  00003	51		 push	 ecx

; 1010 : 		
; 1011 : 		type value;
; 1012 : 		DecryptValueToPool(&value);

  00004	8d 45 fc	 lea	 eax, DWORD PTR _value$[ebp]
  00007	50		 push	 eax
  00008	e8 00 00 00 00	 call	 ?DecryptValueToPool@?$CEncrypt@K@@QAEXPAK@Z ; CEncrypt<unsigned long>::DecryptValueToPool

; 1013 : #ifdef _NOTUSE
; 1014 : 		Debug();
; 1015 : #endif
; 1016 : 		return (value > inValue);

  0000d	8b 45 08	 mov	 eax, DWORD PTR _inValue$[ebp]
  00010	8b 00		 mov	 eax, DWORD PTR [eax]
  00012	3b 45 fc	 cmp	 eax, DWORD PTR _value$[ebp]
  00015	1b c0		 sbb	 eax, eax
  00017	f7 d8		 neg	 eax

; 1017 : 	}		

  00019	c9		 leave
  0001a	c2 04 00	 ret	 4
??O?$CEncrypt@K@@QAE_NABH@Z ENDP			; CEncrypt<unsigned long>::operator>
_TEXT	ENDS
PUBLIC	??N?$CEncrypt@K@@QAE_NABH@Z			; CEncrypt<unsigned long>::operator<=
; Function compile flags: /Ogsp
;	COMDAT ??N?$CEncrypt@K@@QAE_NABH@Z
_TEXT	SEGMENT
_value$ = -4						; size = 4
_inValue$ = 8						; size = 4
??N?$CEncrypt@K@@QAE_NABH@Z PROC			; CEncrypt<unsigned long>::operator<=, COMDAT
; _this$ = ecx

; 1020 : 	{

  00000	55		 push	 ebp
  00001	8b ec		 mov	 ebp, esp
  00003	51		 push	 ecx

; 1021 : 		
; 1022 : 		type value;
; 1023 : 		DecryptValueToPool(&value);

  00004	8d 45 fc	 lea	 eax, DWORD PTR _value$[ebp]
  00007	50		 push	 eax
  00008	e8 00 00 00 00	 call	 ?DecryptValueToPool@?$CEncrypt@K@@QAEXPAK@Z ; CEncrypt<unsigned long>::DecryptValueToPool

; 1024 : #ifdef _NOTUSE
; 1025 : 		Debug();
; 1026 : #endif
; 1027 : 		return (value <= inValue);

  0000d	8b 45 08	 mov	 eax, DWORD PTR _inValue$[ebp]
  00010	8b 00		 mov	 eax, DWORD PTR [eax]
  00012	3b 45 fc	 cmp	 eax, DWORD PTR _value$[ebp]
  00015	1b c0		 sbb	 eax, eax
  00017	40		 inc	 eax

; 1028 : 	}		

  00018	c9		 leave
  00019	c2 04 00	 ret	 4
??N?$CEncrypt@K@@QAE_NABH@Z ENDP			; CEncrypt<unsigned long>::operator<=
_TEXT	ENDS
PUBLIC	__$ArrayPad$
PUBLIC	??$LoadBool_e@$0BG@@ioINILoader@@QAE_NAAY0BG@$$CBD_N@Z ; ioINILoader::LoadBool_e<22>
EXTRN	__imp_?LoadBool@ioINILoader@@QAE_NPBD_N@Z:PROC
; Function compile flags: /Ogsp
; File d:\lost saga for developer\youtube\tutorial\source\src\io3dengine\ioiniloader.h
;	COMDAT ??$LoadBool_e@$0BG@@ioINILoader@@QAE_NAAY0BG@$$CBD_N@Z
_TEXT	SEGMENT
__k$ = -32						; size = 22
__$ArrayPad$ = -4					; size = 4
_k$ = 8							; size = 4
_b$ = 12						; size = 1
??$LoadBool_e@$0BG@@ioINILoader@@QAE_NAAY0BG@$$CBD_N@Z PROC ; ioINILoader::LoadBool_e<22>, COMDAT
; _this$ = ecx

; 101  : 	{

  00000	55		 push	 ebp
  00001	8b ec		 mov	 ebp, esp
  00003	83 ec 20	 sub	 esp, 32			; 00000020H
  00006	a1 00 00 00 00	 mov	 eax, DWORD PTR ___security_cookie
  0000b	33 c5		 xor	 eax, ebp
  0000d	89 45 fc	 mov	 DWORD PTR __$ArrayPad$[ebp], eax
  00010	8b 45 08	 mov	 eax, DWORD PTR _k$[ebp]

; 102  : 		_ENCSTR(k, _k);

  00013	8a 10		 mov	 dl, BYTE PTR [eax]
  00015	53		 push	 ebx
  00016	56		 push	 esi
  00017	8b f1		 mov	 esi, ecx
  00019	84 d2		 test	 dl, dl
  0001b	0f 84 15 02 00
	00		 je	 $LN96@LoadBool_e
  00021	80 f2 ed	 xor	 dl, -19			; ffffffedH
  00024	88 55 e0	 mov	 BYTE PTR __k$[ebp], dl
  00027	8a 50 01	 mov	 dl, BYTE PTR [eax+1]
  0002a	84 d2		 test	 dl, dl
  0002c	0f 84 fe 01 00
	00		 je	 $LN95@LoadBool_e
  00032	80 f2 ec	 xor	 dl, -20			; ffffffecH
  00035	88 55 e1	 mov	 BYTE PTR __k$[ebp+1], dl
  00038	8a 50 02	 mov	 dl, BYTE PTR [eax+2]
  0003b	84 d2		 test	 dl, dl
  0003d	0f 84 e7 01 00
	00		 je	 $LN94@LoadBool_e
  00043	b1 eb		 mov	 cl, -21			; ffffffebH
  00045	32 d1		 xor	 dl, cl
  00047	88 55 e2	 mov	 BYTE PTR __k$[ebp+2], dl
  0004a	8a 50 03	 mov	 dl, BYTE PTR [eax+3]
  0004d	84 d2		 test	 dl, dl
  0004f	0f 84 cf 01 00
	00		 je	 $LN93@LoadBool_e
  00055	b3 ea		 mov	 bl, -22			; ffffffeaH
  00057	32 d3		 xor	 dl, bl
  00059	88 55 e3	 mov	 BYTE PTR __k$[ebp+3], dl
  0005c	8a 50 04	 mov	 dl, BYTE PTR [eax+4]
  0005f	84 d2		 test	 dl, dl
  00061	0f 84 b7 01 00
	00		 je	 $LN92@LoadBool_e
  00067	80 f2 ed	 xor	 dl, -19			; ffffffedH
  0006a	88 55 e4	 mov	 BYTE PTR __k$[ebp+4], dl
  0006d	8a 50 05	 mov	 dl, BYTE PTR [eax+5]
  00070	84 d2		 test	 dl, dl
  00072	0f 84 a0 01 00
	00		 je	 $LN91@LoadBool_e
  00078	80 f2 ec	 xor	 dl, -20			; ffffffecH
  0007b	88 55 e5	 mov	 BYTE PTR __k$[ebp+5], dl
  0007e	8a 50 06	 mov	 dl, BYTE PTR [eax+6]
  00081	84 d2		 test	 dl, dl
  00083	0f 84 8a 01 00
	00		 je	 $LN90@LoadBool_e
  00089	32 d1		 xor	 dl, cl
  0008b	88 55 e6	 mov	 BYTE PTR __k$[ebp+6], dl
  0008e	8a 50 07	 mov	 dl, BYTE PTR [eax+7]
  00091	84 d2		 test	 dl, dl
  00093	0f 84 75 01 00
	00		 je	 $LN89@LoadBool_e
  00099	32 d3		 xor	 dl, bl
  0009b	88 55 e7	 mov	 BYTE PTR __k$[ebp+7], dl
  0009e	8a 50 08	 mov	 dl, BYTE PTR [eax+8]
  000a1	84 d2		 test	 dl, dl
  000a3	0f 84 5f 01 00
	00		 je	 $LN88@LoadBool_e
  000a9	80 f2 ed	 xor	 dl, -19			; ffffffedH
  000ac	88 55 e8	 mov	 BYTE PTR __k$[ebp+8], dl
  000af	8a 50 09	 mov	 dl, BYTE PTR [eax+9]
  000b2	84 d2		 test	 dl, dl
  000b4	0f 84 48 01 00
	00		 je	 $LN87@LoadBool_e
  000ba	80 f2 ec	 xor	 dl, -20			; ffffffecH
  000bd	88 55 e9	 mov	 BYTE PTR __k$[ebp+9], dl
  000c0	8a 50 0a	 mov	 dl, BYTE PTR [eax+10]
  000c3	84 d2		 test	 dl, dl
  000c5	0f 84 32 01 00
	00		 je	 $LN86@LoadBool_e
  000cb	32 d1		 xor	 dl, cl
  000cd	88 55 ea	 mov	 BYTE PTR __k$[ebp+10], dl
  000d0	8a 50 0b	 mov	 dl, BYTE PTR [eax+11]
  000d3	84 d2		 test	 dl, dl
  000d5	0f 84 1d 01 00
	00		 je	 $LN85@LoadBool_e
  000db	32 d3		 xor	 dl, bl
  000dd	88 55 eb	 mov	 BYTE PTR __k$[ebp+11], dl
  000e0	8a 50 0c	 mov	 dl, BYTE PTR [eax+12]
  000e3	84 d2		 test	 dl, dl
  000e5	0f 84 07 01 00
	00		 je	 $LN84@LoadBool_e
  000eb	80 f2 ed	 xor	 dl, -19			; ffffffedH
  000ee	88 55 ec	 mov	 BYTE PTR __k$[ebp+12], dl
  000f1	8a 50 0d	 mov	 dl, BYTE PTR [eax+13]
  000f4	84 d2		 test	 dl, dl
  000f6	0f 84 f0 00 00
	00		 je	 $LN83@LoadBool_e
  000fc	80 f2 ec	 xor	 dl, -20			; ffffffecH
  000ff	88 55 ed	 mov	 BYTE PTR __k$[ebp+13], dl
  00102	8a 50 0e	 mov	 dl, BYTE PTR [eax+14]
  00105	84 d2		 test	 dl, dl
  00107	0f 84 da 00 00
	00		 je	 $LN82@LoadBool_e
  0010d	32 d1		 xor	 dl, cl
  0010f	88 55 ee	 mov	 BYTE PTR __k$[ebp+14], dl
  00112	8a 50 0f	 mov	 dl, BYTE PTR [eax+15]
  00115	84 d2		 test	 dl, dl
  00117	0f 84 c5 00 00
	00		 je	 $LN81@LoadBool_e
  0011d	32 d3		 xor	 dl, bl
  0011f	88 55 ef	 mov	 BYTE PTR __k$[ebp+15], dl
  00122	8a 50 10	 mov	 dl, BYTE PTR [eax+16]
  00125	84 d2		 test	 dl, dl
  00127	0f 84 af 00 00
	00		 je	 $LN80@LoadBool_e
  0012d	80 f2 ed	 xor	 dl, -19			; ffffffedH
  00130	88 55 f0	 mov	 BYTE PTR __k$[ebp+16], dl
  00133	8a 50 11	 mov	 dl, BYTE PTR [eax+17]
  00136	84 d2		 test	 dl, dl
  00138	0f 84 98 00 00
	00		 je	 $LN79@LoadBool_e
  0013e	80 f2 ec	 xor	 dl, -20			; ffffffecH
  00141	88 55 f1	 mov	 BYTE PTR __k$[ebp+17], dl
  00144	8a 50 12	 mov	 dl, BYTE PTR [eax+18]
  00147	84 d2		 test	 dl, dl
  00149	0f 84 82 00 00
	00		 je	 $LN78@LoadBool_e
  0014f	32 d1		 xor	 dl, cl
  00151	88 55 f2	 mov	 BYTE PTR __k$[ebp+18], dl
  00154	8a 50 13	 mov	 dl, BYTE PTR [eax+19]
  00157	84 d2		 test	 dl, dl
  00159	74 71		 je	 SHORT $LN77@LoadBool_e
  0015b	32 d3		 xor	 dl, bl
  0015d	88 55 f3	 mov	 BYTE PTR __k$[ebp+19], dl
  00160	8a 50 14	 mov	 dl, BYTE PTR [eax+20]
  00163	84 d2		 test	 dl, dl
  00165	74 5f		 je	 SHORT $LN76@LoadBool_e
  00167	80 f2 ed	 xor	 dl, -19			; ffffffedH
  0016a	80 78 15 00	 cmp	 BYTE PTR [eax+21], 0
  0016e	88 55 f4	 mov	 BYTE PTR __k$[ebp+20], dl
  00171	0f 84 c3 00 00
	00		 je	 $LN1@LoadBool_e
  00177	8a 50 16	 mov	 dl, BYTE PTR [eax+22]
  0017a	84 d2		 test	 dl, dl
  0017c	74 43		 je	 SHORT $LN74@LoadBool_e
  0017e	32 d1		 xor	 dl, cl
  00180	88 55 f6	 mov	 BYTE PTR __k$[ebp+22], dl
  00183	8a 50 17	 mov	 dl, BYTE PTR [eax+23]
  00186	84 d2		 test	 dl, dl
  00188	74 32		 je	 SHORT $LN73@LoadBool_e
  0018a	32 d3		 xor	 dl, bl
  0018c	88 55 f7	 mov	 BYTE PTR __k$[ebp+23], dl
  0018f	8a 50 18	 mov	 dl, BYTE PTR [eax+24]
  00192	84 d2		 test	 dl, dl
  00194	74 20		 je	 SHORT $LN72@LoadBool_e
  00196	8a 40 19	 mov	 al, BYTE PTR [eax+25]
  00199	80 f2 ed	 xor	 dl, -19			; ffffffedH
  0019c	88 55 f8	 mov	 BYTE PTR __k$[ebp+24], dl
  0019f	84 c0		 test	 al, al
  001a1	74 0a		 je	 SHORT $LN71@LoadBool_e
  001a3	34 ec		 xor	 al, -20			; ffffffecH
  001a5	88 45 f9	 mov	 BYTE PTR __k$[ebp+25], al
  001a8	e9 8d 00 00 00	 jmp	 $LN1@LoadBool_e
$LN71@LoadBool_e:
  001ad	c6 45 f9 ec	 mov	 BYTE PTR __k$[ebp+25], -20 ; ffffffecH
  001b1	e9 84 00 00 00	 jmp	 $LN1@LoadBool_e
$LN72@LoadBool_e:
  001b6	c6 45 f8 ed	 mov	 BYTE PTR __k$[ebp+24], -19 ; ffffffedH
  001ba	eb 7e		 jmp	 SHORT $LN1@LoadBool_e
$LN73@LoadBool_e:
  001bc	88 5d f7	 mov	 BYTE PTR __k$[ebp+23], bl
  001bf	eb 79		 jmp	 SHORT $LN1@LoadBool_e
$LN74@LoadBool_e:
  001c1	88 4d f6	 mov	 BYTE PTR __k$[ebp+22], cl
  001c4	eb 74		 jmp	 SHORT $LN1@LoadBool_e
$LN76@LoadBool_e:
  001c6	c6 45 f4 ed	 mov	 BYTE PTR __k$[ebp+20], -19 ; ffffffedH
  001ca	eb 6e		 jmp	 SHORT $LN1@LoadBool_e
$LN77@LoadBool_e:
  001cc	88 5d f3	 mov	 BYTE PTR __k$[ebp+19], bl
  001cf	eb 69		 jmp	 SHORT $LN1@LoadBool_e
$LN78@LoadBool_e:
  001d1	88 4d f2	 mov	 BYTE PTR __k$[ebp+18], cl
  001d4	eb 64		 jmp	 SHORT $LN1@LoadBool_e
$LN79@LoadBool_e:
  001d6	c6 45 f1 ec	 mov	 BYTE PTR __k$[ebp+17], -20 ; ffffffecH
  001da	eb 5e		 jmp	 SHORT $LN1@LoadBool_e
$LN80@LoadBool_e:
  001dc	c6 45 f0 ed	 mov	 BYTE PTR __k$[ebp+16], -19 ; ffffffedH
  001e0	eb 58		 jmp	 SHORT $LN1@LoadBool_e
$LN81@LoadBool_e:
  001e2	88 5d ef	 mov	 BYTE PTR __k$[ebp+15], bl
  001e5	eb 53		 jmp	 SHORT $LN1@LoadBool_e
$LN82@LoadBool_e:
  001e7	88 4d ee	 mov	 BYTE PTR __k$[ebp+14], cl
  001ea	eb 4e		 jmp	 SHORT $LN1@LoadBool_e
$LN83@LoadBool_e:
  001ec	c6 45 ed ec	 mov	 BYTE PTR __k$[ebp+13], -20 ; ffffffecH
  001f0	eb 48		 jmp	 SHORT $LN1@LoadBool_e
$LN84@LoadBool_e:
  001f2	c6 45 ec ed	 mov	 BYTE PTR __k$[ebp+12], -19 ; ffffffedH
  001f6	eb 42		 jmp	 SHORT $LN1@LoadBool_e
$LN85@LoadBool_e:
  001f8	88 5d eb	 mov	 BYTE PTR __k$[ebp+11], bl
  001fb	eb 3d		 jmp	 SHORT $LN1@LoadBool_e
$LN86@LoadBool_e:
  001fd	88 4d ea	 mov	 BYTE PTR __k$[ebp+10], cl
  00200	eb 38		 jmp	 SHORT $LN1@LoadBool_e
$LN87@LoadBool_e:
  00202	c6 45 e9 ec	 mov	 BYTE PTR __k$[ebp+9], -20 ; ffffffecH
  00206	eb 32		 jmp	 SHORT $LN1@LoadBool_e
$LN88@LoadBool_e:
  00208	c6 45 e8 ed	 mov	 BYTE PTR __k$[ebp+8], -19 ; ffffffedH
  0020c	eb 2c		 jmp	 SHORT $LN1@LoadBool_e
$LN89@LoadBool_e:
  0020e	88 5d e7	 mov	 BYTE PTR __k$[ebp+7], bl
  00211	eb 27		 jmp	 SHORT $LN1@LoadBool_e
$LN90@LoadBool_e:
  00213	88 4d e6	 mov	 BYTE PTR __k$[ebp+6], cl
  00216	eb 22		 jmp	 SHORT $LN1@LoadBool_e
$LN91@LoadBool_e:
  00218	c6 45 e5 ec	 mov	 BYTE PTR __k$[ebp+5], -20 ; ffffffecH
  0021c	eb 1c		 jmp	 SHORT $LN1@LoadBool_e
$LN92@LoadBool_e:
  0021e	c6 45 e4 ed	 mov	 BYTE PTR __k$[ebp+4], -19 ; ffffffedH
  00222	eb 16		 jmp	 SHORT $LN1@LoadBool_e
$LN93@LoadBool_e:
  00224	c6 45 e3 ea	 mov	 BYTE PTR __k$[ebp+3], -22 ; ffffffeaH
  00228	eb 10		 jmp	 SHORT $LN1@LoadBool_e
$LN94@LoadBool_e:
  0022a	c6 45 e2 eb	 mov	 BYTE PTR __k$[ebp+2], -21 ; ffffffebH
  0022e	eb 0a		 jmp	 SHORT $LN1@LoadBool_e
$LN95@LoadBool_e:
  00230	c6 45 e1 ec	 mov	 BYTE PTR __k$[ebp+1], -20 ; ffffffecH
  00234	eb 04		 jmp	 SHORT $LN1@LoadBool_e
$LN96@LoadBool_e:
  00236	c6 45 e0 ed	 mov	 BYTE PTR __k$[ebp], -19	; ffffffedH
$LN1@LoadBool_e:
  0023a	6a 05		 push	 5
  0023c	8d 45 e0	 lea	 eax, DWORD PTR __k$[ebp]
  0023f	c6 45 f5 00	 mov	 BYTE PTR __k$[ebp+21], 0
  00243	5a		 pop	 edx
$LL104@LoadBool_e:
  00244	81 30 ed ec eb
	ea		 xor	 DWORD PTR [eax], -353637139 ; eaebecedH
  0024a	83 c0 04	 add	 eax, 4
  0024d	4a		 dec	 edx
  0024e	75 f4		 jne	 SHORT $LL104@LoadBool_e

; 103  : 		return LoadBool(_k, b);

  00250	ff 75 0c	 push	 DWORD PTR _b$[ebp]
  00253	80 75 f4 ed	 xor	 BYTE PTR __k$[ebp+20], -19 ; ffffffedH
  00257	8d 45 e0	 lea	 eax, DWORD PTR __k$[ebp]
  0025a	50		 push	 eax
  0025b	8b ce		 mov	 ecx, esi
  0025d	ff 15 00 00 00
	00		 call	 DWORD PTR __imp_?LoadBool@ioINILoader@@QAE_NPBD_N@Z

; 104  : 	}

  00263	8b 4d fc	 mov	 ecx, DWORD PTR __$ArrayPad$[ebp]
  00266	5e		 pop	 esi
  00267	33 cd		 xor	 ecx, ebp
  00269	5b		 pop	 ebx
  0026a	e8 00 00 00 00	 call	 @__security_check_cookie@4
  0026f	c9		 leave
  00270	c2 08 00	 ret	 8
??$LoadBool_e@$0BG@@ioINILoader@@QAE_NAAY0BG@$$CBD_N@Z ENDP ; ioINILoader::LoadBool_e<22>
_TEXT	ENDS
PUBLIC	_this$GSCopy$
PUBLIC	__$ArrayPad$
PUBLIC	??$LoadString_e@$0BD@@ioINILoader@@QAEXAAY0BD@$$CBDAAY00$$CBDPADH@Z ; ioINILoader::LoadString_e<19>
EXTRN	__imp_?LoadStringA@ioINILoader@@QAEXPBD0PADH@Z:PROC
; Function compile flags: /Ogsp
;	COMDAT ??$LoadString_e@$0BD@@ioINILoader@@QAEXAAY0BD@$$CBDAAY00$$CBDPADH@Z
_TEXT	SEGMENT
_this$GSCopy$ = -32					; size = 4
__k$ = -28						; size = 19
__$ArrayPad$ = -4					; size = 4
_k$ = 8							; size = 4
_d$ = 12						; size = 4
_b$ = 16						; size = 4
_i$ = 20						; size = 4
??$LoadString_e@$0BD@@ioINILoader@@QAEXAAY0BD@$$CBDAAY00$$CBDPADH@Z PROC ; ioINILoader::LoadString_e<19>, COMDAT
; _this$ = ecx

; 161  : 	{

  00000	55		 push	 ebp
  00001	8b ec		 mov	 ebp, esp
  00003	83 ec 20	 sub	 esp, 32			; 00000020H
  00006	a1 00 00 00 00	 mov	 eax, DWORD PTR ___security_cookie
  0000b	33 c5		 xor	 eax, ebp
  0000d	89 45 fc	 mov	 DWORD PTR __$ArrayPad$[ebp], eax
  00010	8b 45 08	 mov	 eax, DWORD PTR _k$[ebp]

; 162  : 		_ENCSTR(k, _k);

  00013	8a 10		 mov	 dl, BYTE PTR [eax]
  00015	56		 push	 esi
  00016	8b 75 0c	 mov	 esi, DWORD PTR _d$[ebp]
  00019	57		 push	 edi
  0001a	8b 7d 10	 mov	 edi, DWORD PTR _b$[ebp]
  0001d	89 4d e0	 mov	 DWORD PTR _this$GSCopy$[ebp], ecx
  00020	84 d2		 test	 dl, dl
  00022	0f 84 cf 01 00
	00		 je	 $LN96@LoadString
  00028	80 f2 ed	 xor	 dl, -19			; ffffffedH
  0002b	88 55 e4	 mov	 BYTE PTR __k$[ebp], dl
  0002e	8a 50 01	 mov	 dl, BYTE PTR [eax+1]
  00031	84 d2		 test	 dl, dl
  00033	0f 84 b8 01 00
	00		 je	 $LN95@LoadString
  00039	b1 ec		 mov	 cl, -20			; ffffffecH
  0003b	32 d1		 xor	 dl, cl
  0003d	88 55 e5	 mov	 BYTE PTR __k$[ebp+1], dl
  00040	8a 50 02	 mov	 dl, BYTE PTR [eax+2]
  00043	84 d2		 test	 dl, dl
  00045	0f 84 a0 01 00
	00		 je	 $LN94@LoadString
  0004b	80 f2 eb	 xor	 dl, -21			; ffffffebH
  0004e	88 55 e6	 mov	 BYTE PTR __k$[ebp+2], dl
  00051	8a 50 03	 mov	 dl, BYTE PTR [eax+3]
  00054	84 d2		 test	 dl, dl
  00056	0f 84 89 01 00
	00		 je	 $LN93@LoadString
  0005c	80 f2 ea	 xor	 dl, -22			; ffffffeaH
  0005f	88 55 e7	 mov	 BYTE PTR __k$[ebp+3], dl
  00062	8a 50 04	 mov	 dl, BYTE PTR [eax+4]
  00065	84 d2		 test	 dl, dl
  00067	0f 84 72 01 00
	00		 je	 $LN92@LoadString
  0006d	80 f2 ed	 xor	 dl, -19			; ffffffedH
  00070	88 55 e8	 mov	 BYTE PTR __k$[ebp+4], dl
  00073	8a 50 05	 mov	 dl, BYTE PTR [eax+5]
  00076	84 d2		 test	 dl, dl
  00078	0f 84 5c 01 00
	00		 je	 $LN91@LoadString
  0007e	32 d1		 xor	 dl, cl
  00080	88 55 e9	 mov	 BYTE PTR __k$[ebp+5], dl
  00083	8a 50 06	 mov	 dl, BYTE PTR [eax+6]
  00086	84 d2		 test	 dl, dl
  00088	0f 84 46 01 00
	00		 je	 $LN90@LoadString
  0008e	80 f2 eb	 xor	 dl, -21			; ffffffebH
  00091	88 55 ea	 mov	 BYTE PTR __k$[ebp+6], dl
  00094	8a 50 07	 mov	 dl, BYTE PTR [eax+7]
  00097	84 d2		 test	 dl, dl
  00099	0f 84 2f 01 00
	00		 je	 $LN89@LoadString
  0009f	80 f2 ea	 xor	 dl, -22			; ffffffeaH
  000a2	88 55 eb	 mov	 BYTE PTR __k$[ebp+7], dl
  000a5	8a 50 08	 mov	 dl, BYTE PTR [eax+8]
  000a8	84 d2		 test	 dl, dl
  000aa	0f 84 18 01 00
	00		 je	 $LN88@LoadString
  000b0	80 f2 ed	 xor	 dl, -19			; ffffffedH
  000b3	88 55 ec	 mov	 BYTE PTR __k$[ebp+8], dl
  000b6	8a 50 09	 mov	 dl, BYTE PTR [eax+9]
  000b9	84 d2		 test	 dl, dl
  000bb	0f 84 02 01 00
	00		 je	 $LN87@LoadString
  000c1	32 d1		 xor	 dl, cl
  000c3	88 55 ed	 mov	 BYTE PTR __k$[ebp+9], dl
  000c6	8a 50 0a	 mov	 dl, BYTE PTR [eax+10]
  000c9	84 d2		 test	 dl, dl
  000cb	0f 84 ec 00 00
	00		 je	 $LN86@LoadString
  000d1	80 f2 eb	 xor	 dl, -21			; ffffffebH
  000d4	88 55 ee	 mov	 BYTE PTR __k$[ebp+10], dl
  000d7	8a 50 0b	 mov	 dl, BYTE PTR [eax+11]
  000da	84 d2		 test	 dl, dl
  000dc	0f 84 d5 00 00
	00		 je	 $LN85@LoadString
  000e2	80 f2 ea	 xor	 dl, -22			; ffffffeaH
  000e5	88 55 ef	 mov	 BYTE PTR __k$[ebp+11], dl
  000e8	8a 50 0c	 mov	 dl, BYTE PTR [eax+12]
  000eb	84 d2		 test	 dl, dl
  000ed	0f 84 be 00 00
	00		 je	 $LN84@LoadString
  000f3	80 f2 ed	 xor	 dl, -19			; ffffffedH
  000f6	88 55 f0	 mov	 BYTE PTR __k$[ebp+12], dl
  000f9	8a 50 0d	 mov	 dl, BYTE PTR [eax+13]
  000fc	84 d2		 test	 dl, dl
  000fe	0f 84 a8 00 00
	00		 je	 $LN83@LoadString
  00104	32 d1		 xor	 dl, cl
  00106	88 55 f1	 mov	 BYTE PTR __k$[ebp+13], dl
  00109	8a 50 0e	 mov	 dl, BYTE PTR [eax+14]
  0010c	84 d2		 test	 dl, dl
  0010e	0f 84 92 00 00
	00		 je	 $LN82@LoadString
  00114	80 f2 eb	 xor	 dl, -21			; ffffffebH
  00117	88 55 f2	 mov	 BYTE PTR __k$[ebp+14], dl
  0011a	8a 50 0f	 mov	 dl, BYTE PTR [eax+15]
  0011d	84 d2		 test	 dl, dl
  0011f	74 7f		 je	 SHORT $LN81@LoadString
  00121	80 f2 ea	 xor	 dl, -22			; ffffffeaH
  00124	88 55 f3	 mov	 BYTE PTR __k$[ebp+15], dl
  00127	8a 50 10	 mov	 dl, BYTE PTR [eax+16]
  0012a	84 d2		 test	 dl, dl
  0012c	74 6c		 je	 SHORT $LN80@LoadString
  0012e	80 f2 ed	 xor	 dl, -19			; ffffffedH
  00131	88 55 f4	 mov	 BYTE PTR __k$[ebp+16], dl
  00134	8a 50 11	 mov	 dl, BYTE PTR [eax+17]
  00137	84 d2		 test	 dl, dl
  00139	74 5a		 je	 SHORT $LN79@LoadString
  0013b	32 d1		 xor	 dl, cl
  0013d	80 78 12 00	 cmp	 BYTE PTR [eax+18], 0
  00141	88 55 f5	 mov	 BYTE PTR __k$[ebp+17], dl
  00144	0f 84 b1 00 00
	00		 je	 $LN111@LoadString
  0014a	8a 50 13	 mov	 dl, BYTE PTR [eax+19]
  0014d	84 d2		 test	 dl, dl
  0014f	74 3e		 je	 SHORT $LN77@LoadString
  00151	80 f2 ea	 xor	 dl, -22			; ffffffeaH
  00154	88 55 f7	 mov	 BYTE PTR __k$[ebp+19], dl
  00157	8a 50 14	 mov	 dl, BYTE PTR [eax+20]
  0015a	84 d2		 test	 dl, dl
  0015c	74 2b		 je	 SHORT $LN76@LoadString
  0015e	80 f2 ed	 xor	 dl, -19			; ffffffedH
  00161	88 55 f8	 mov	 BYTE PTR __k$[ebp+20], dl
  00164	8a 50 15	 mov	 dl, BYTE PTR [eax+21]
  00167	84 d2		 test	 dl, dl
  00169	74 19		 je	 SHORT $LN75@LoadString
  0016b	8a 40 16	 mov	 al, BYTE PTR [eax+22]
  0016e	32 d1		 xor	 dl, cl
  00170	88 55 f9	 mov	 BYTE PTR __k$[ebp+21], dl
  00173	84 c0		 test	 al, al
  00175	74 07		 je	 SHORT $LN74@LoadString
  00177	34 eb		 xor	 al, -21			; ffffffebH
  00179	88 45 fa	 mov	 BYTE PTR __k$[ebp+22], al
  0017c	eb 7d		 jmp	 SHORT $LN111@LoadString
$LN74@LoadString:
  0017e	c6 45 fa eb	 mov	 BYTE PTR __k$[ebp+22], -21 ; ffffffebH
  00182	eb 77		 jmp	 SHORT $LN111@LoadString
$LN75@LoadString:
  00184	88 4d f9	 mov	 BYTE PTR __k$[ebp+21], cl
  00187	eb 72		 jmp	 SHORT $LN111@LoadString
$LN76@LoadString:
  00189	c6 45 f8 ed	 mov	 BYTE PTR __k$[ebp+20], -19 ; ffffffedH
  0018d	eb 6c		 jmp	 SHORT $LN111@LoadString
$LN77@LoadString:
  0018f	c6 45 f7 ea	 mov	 BYTE PTR __k$[ebp+19], -22 ; ffffffeaH
  00193	eb 66		 jmp	 SHORT $LN111@LoadString
$LN79@LoadString:
  00195	88 4d f5	 mov	 BYTE PTR __k$[ebp+17], cl
  00198	eb 61		 jmp	 SHORT $LN111@LoadString
$LN80@LoadString:
  0019a	c6 45 f4 ed	 mov	 BYTE PTR __k$[ebp+16], -19 ; ffffffedH
  0019e	eb 5b		 jmp	 SHORT $LN111@LoadString
$LN81@LoadString:
  001a0	c6 45 f3 ea	 mov	 BYTE PTR __k$[ebp+15], -22 ; ffffffeaH
  001a4	eb 55		 jmp	 SHORT $LN111@LoadString
$LN82@LoadString:
  001a6	c6 45 f2 eb	 mov	 BYTE PTR __k$[ebp+14], -21 ; ffffffebH
  001aa	eb 4f		 jmp	 SHORT $LN111@LoadString
$LN83@LoadString:
  001ac	88 4d f1	 mov	 BYTE PTR __k$[ebp+13], cl
  001af	eb 4a		 jmp	 SHORT $LN111@LoadString
$LN84@LoadString:
  001b1	c6 45 f0 ed	 mov	 BYTE PTR __k$[ebp+12], -19 ; ffffffedH
  001b5	eb 44		 jmp	 SHORT $LN111@LoadString
$LN85@LoadString:
  001b7	c6 45 ef ea	 mov	 BYTE PTR __k$[ebp+11], -22 ; ffffffeaH
  001bb	eb 3e		 jmp	 SHORT $LN111@LoadString
$LN86@LoadString:
  001bd	c6 45 ee eb	 mov	 BYTE PTR __k$[ebp+10], -21 ; ffffffebH
  001c1	eb 38		 jmp	 SHORT $LN111@LoadString
$LN87@LoadString:
  001c3	88 4d ed	 mov	 BYTE PTR __k$[ebp+9], cl
  001c6	eb 33		 jmp	 SHORT $LN111@LoadString
$LN88@LoadString:
  001c8	c6 45 ec ed	 mov	 BYTE PTR __k$[ebp+8], -19 ; ffffffedH
  001cc	eb 2d		 jmp	 SHORT $LN111@LoadString
$LN89@LoadString:
  001ce	c6 45 eb ea	 mov	 BYTE PTR __k$[ebp+7], -22 ; ffffffeaH
  001d2	eb 27		 jmp	 SHORT $LN111@LoadString
$LN90@LoadString:
  001d4	c6 45 ea eb	 mov	 BYTE PTR __k$[ebp+6], -21 ; ffffffebH
  001d8	eb 21		 jmp	 SHORT $LN111@LoadString
$LN91@LoadString:
  001da	88 4d e9	 mov	 BYTE PTR __k$[ebp+5], cl
  001dd	eb 1c		 jmp	 SHORT $LN111@LoadString
$LN92@LoadString:
  001df	c6 45 e8 ed	 mov	 BYTE PTR __k$[ebp+4], -19 ; ffffffedH
  001e3	eb 16		 jmp	 SHORT $LN111@LoadString
$LN93@LoadString:
  001e5	c6 45 e7 ea	 mov	 BYTE PTR __k$[ebp+3], -22 ; ffffffeaH
  001e9	eb 10		 jmp	 SHORT $LN111@LoadString
$LN94@LoadString:
  001eb	c6 45 e6 eb	 mov	 BYTE PTR __k$[ebp+2], -21 ; ffffffebH
  001ef	eb 0a		 jmp	 SHORT $LN111@LoadString
$LN95@LoadString:
  001f1	c6 45 e5 ec	 mov	 BYTE PTR __k$[ebp+1], -20 ; ffffffecH
  001f5	eb 04		 jmp	 SHORT $LN111@LoadString
$LN96@LoadString:
  001f7	c6 45 e4 ed	 mov	 BYTE PTR __k$[ebp], -19	; ffffffedH
$LN111@LoadString:
  001fb	6a 04		 push	 4
  001fd	8d 45 e4	 lea	 eax, DWORD PTR __k$[ebp]
  00200	c6 45 f6 00	 mov	 BYTE PTR __k$[ebp+18], 0
  00204	5a		 pop	 edx
$LL104@LoadString:
  00205	81 30 ed ec eb
	ea		 xor	 DWORD PTR [eax], -353637139 ; eaebecedH
  0020b	83 c0 04	 add	 eax, 4
  0020e	4a		 dec	 edx
  0020f	75 f4		 jne	 SHORT $LL104@LoadString
  00211	6a 10		 push	 16			; 00000010H
  00213	58		 pop	 eax
$LL101@LoadString:
  00214	8b c8		 mov	 ecx, eax
  00216	81 e1 03 00 00
	80		 and	 ecx, -2147483645	; 80000003H
  0021c	79 05		 jns	 SHORT $LN112@LoadString
  0021e	49		 dec	 ecx
  0021f	83 c9 fc	 or	 ecx, -4			; fffffffcH
  00222	41		 inc	 ecx
$LN112@LoadString:
  00223	b2 ed		 mov	 dl, -19			; ffffffedH
  00225	2a d1		 sub	 dl, cl
  00227	30 54 05 e4	 xor	 BYTE PTR __k$[ebp+eax], dl
  0022b	40		 inc	 eax
  0022c	83 f8 12	 cmp	 eax, 18			; 00000012H
  0022f	7c e3		 jl	 SHORT $LL101@LoadString

; 163  : 		LoadString(_k, d, b, i);

  00231	ff 75 14	 push	 DWORD PTR _i$[ebp]
  00234	8b 4d e0	 mov	 ecx, DWORD PTR _this$GSCopy$[ebp]
  00237	57		 push	 edi
  00238	56		 push	 esi
  00239	8d 45 e4	 lea	 eax, DWORD PTR __k$[ebp]
  0023c	50		 push	 eax
  0023d	ff 15 00 00 00
	00		 call	 DWORD PTR __imp_?LoadStringA@ioINILoader@@QAEXPBD0PADH@Z

; 164  : 	}

  00243	8b 4d fc	 mov	 ecx, DWORD PTR __$ArrayPad$[ebp]
  00246	5f		 pop	 edi
  00247	33 cd		 xor	 ecx, ebp
  00249	5e		 pop	 esi
  0024a	e8 00 00 00 00	 call	 @__security_check_cookie@4
  0024f	c9		 leave
  00250	c2 10 00	 ret	 16			; 00000010H
??$LoadString_e@$0BD@@ioINILoader@@QAEXAAY0BD@$$CBDAAY00$$CBDPADH@Z ENDP ; ioINILoader::LoadString_e<19>
_TEXT	ENDS
PUBLIC	__$ArrayPad$
PUBLIC	??$LoadFloat_e@$0BC@@ioINILoader@@QAEMAAY0BC@$$CBDM@Z ; ioINILoader::LoadFloat_e<18>
EXTRN	__imp_?LoadFloat@ioINILoader@@QAEMPBDM@Z:PROC
; Function compile flags: /Ogsp
;	COMDAT ??$LoadFloat_e@$0BC@@ioINILoader@@QAEMAAY0BC@$$CBDM@Z
_TEXT	SEGMENT
__k$ = -28						; size = 18
__$ArrayPad$ = -4					; size = 4
_k$ = 8							; size = 4
_f$ = 12						; size = 4
??$LoadFloat_e@$0BC@@ioINILoader@@QAEMAAY0BC@$$CBDM@Z PROC ; ioINILoader::LoadFloat_e<18>, COMDAT
; _this$ = ecx

; 135  : 	{

  00000	55		 push	 ebp
  00001	8b ec		 mov	 ebp, esp
  00003	83 ec 1c	 sub	 esp, 28			; 0000001cH
  00006	a1 00 00 00 00	 mov	 eax, DWORD PTR ___security_cookie
  0000b	33 c5		 xor	 eax, ebp
  0000d	89 45 fc	 mov	 DWORD PTR __$ArrayPad$[ebp], eax
  00010	8b 45 08	 mov	 eax, DWORD PTR _k$[ebp]

; 136  : 		_ENCSTR(k, _k);

  00013	8a 10		 mov	 dl, BYTE PTR [eax]
  00015	56		 push	 esi
  00016	8b f1		 mov	 esi, ecx
  00018	84 d2		 test	 dl, dl
  0001a	0f 84 be 01 00
	00		 je	 $LN96@LoadFloat_
  00020	80 f2 ed	 xor	 dl, -19			; ffffffedH
  00023	88 55 e4	 mov	 BYTE PTR __k$[ebp], dl
  00026	8a 50 01	 mov	 dl, BYTE PTR [eax+1]
  00029	84 d2		 test	 dl, dl
  0002b	0f 84 a7 01 00
	00		 je	 $LN95@LoadFloat_
  00031	80 f2 ec	 xor	 dl, -20			; ffffffecH
  00034	88 55 e5	 mov	 BYTE PTR __k$[ebp+1], dl
  00037	8a 50 02	 mov	 dl, BYTE PTR [eax+2]
  0003a	84 d2		 test	 dl, dl
  0003c	0f 84 90 01 00
	00		 je	 $LN94@LoadFloat_
  00042	b1 eb		 mov	 cl, -21			; ffffffebH
  00044	32 d1		 xor	 dl, cl
  00046	88 55 e6	 mov	 BYTE PTR __k$[ebp+2], dl
  00049	8a 50 03	 mov	 dl, BYTE PTR [eax+3]
  0004c	84 d2		 test	 dl, dl
  0004e	0f 84 78 01 00
	00		 je	 $LN93@LoadFloat_
  00054	80 f2 ea	 xor	 dl, -22			; ffffffeaH
  00057	88 55 e7	 mov	 BYTE PTR __k$[ebp+3], dl
  0005a	8a 50 04	 mov	 dl, BYTE PTR [eax+4]
  0005d	84 d2		 test	 dl, dl
  0005f	0f 84 61 01 00
	00		 je	 $LN92@LoadFloat_
  00065	80 f2 ed	 xor	 dl, -19			; ffffffedH
  00068	88 55 e8	 mov	 BYTE PTR __k$[ebp+4], dl
  0006b	8a 50 05	 mov	 dl, BYTE PTR [eax+5]
  0006e	84 d2		 test	 dl, dl
  00070	0f 84 4a 01 00
	00		 je	 $LN91@LoadFloat_
  00076	80 f2 ec	 xor	 dl, -20			; ffffffecH
  00079	88 55 e9	 mov	 BYTE PTR __k$[ebp+5], dl
  0007c	8a 50 06	 mov	 dl, BYTE PTR [eax+6]
  0007f	84 d2		 test	 dl, dl
  00081	0f 84 34 01 00
	00		 je	 $LN90@LoadFloat_
  00087	32 d1		 xor	 dl, cl
  00089	88 55 ea	 mov	 BYTE PTR __k$[ebp+6], dl
  0008c	8a 50 07	 mov	 dl, BYTE PTR [eax+7]
  0008f	84 d2		 test	 dl, dl
  00091	0f 84 1e 01 00
	00		 je	 $LN89@LoadFloat_
  00097	80 f2 ea	 xor	 dl, -22			; ffffffeaH
  0009a	88 55 eb	 mov	 BYTE PTR __k$[ebp+7], dl
  0009d	8a 50 08	 mov	 dl, BYTE PTR [eax+8]
  000a0	84 d2		 test	 dl, dl
  000a2	0f 84 07 01 00
	00		 je	 $LN88@LoadFloat_
  000a8	80 f2 ed	 xor	 dl, -19			; ffffffedH
  000ab	88 55 ec	 mov	 BYTE PTR __k$[ebp+8], dl
  000ae	8a 50 09	 mov	 dl, BYTE PTR [eax+9]
  000b1	84 d2		 test	 dl, dl
  000b3	0f 84 f0 00 00
	00		 je	 $LN87@LoadFloat_
  000b9	80 f2 ec	 xor	 dl, -20			; ffffffecH
  000bc	88 55 ed	 mov	 BYTE PTR __k$[ebp+9], dl
  000bf	8a 50 0a	 mov	 dl, BYTE PTR [eax+10]
  000c2	84 d2		 test	 dl, dl
  000c4	0f 84 da 00 00
	00		 je	 $LN86@LoadFloat_
  000ca	32 d1		 xor	 dl, cl
  000cc	88 55 ee	 mov	 BYTE PTR __k$[ebp+10], dl
  000cf	8a 50 0b	 mov	 dl, BYTE PTR [eax+11]
  000d2	84 d2		 test	 dl, dl
  000d4	0f 84 c4 00 00
	00		 je	 $LN85@LoadFloat_
  000da	80 f2 ea	 xor	 dl, -22			; ffffffeaH
  000dd	88 55 ef	 mov	 BYTE PTR __k$[ebp+11], dl
  000e0	8a 50 0c	 mov	 dl, BYTE PTR [eax+12]
  000e3	84 d2		 test	 dl, dl
  000e5	0f 84 ad 00 00
	00		 je	 $LN84@LoadFloat_
  000eb	80 f2 ed	 xor	 dl, -19			; ffffffedH
  000ee	88 55 f0	 mov	 BYTE PTR __k$[ebp+12], dl
  000f1	8a 50 0d	 mov	 dl, BYTE PTR [eax+13]
  000f4	84 d2		 test	 dl, dl
  000f6	0f 84 96 00 00
	00		 je	 $LN83@LoadFloat_
  000fc	80 f2 ec	 xor	 dl, -20			; ffffffecH
  000ff	88 55 f1	 mov	 BYTE PTR __k$[ebp+13], dl
  00102	8a 50 0e	 mov	 dl, BYTE PTR [eax+14]
  00105	84 d2		 test	 dl, dl
  00107	0f 84 80 00 00
	00		 je	 $LN82@LoadFloat_
  0010d	32 d1		 xor	 dl, cl
  0010f	88 55 f2	 mov	 BYTE PTR __k$[ebp+14], dl
  00112	8a 50 0f	 mov	 dl, BYTE PTR [eax+15]
  00115	84 d2		 test	 dl, dl
  00117	74 6e		 je	 SHORT $LN81@LoadFloat_
  00119	80 f2 ea	 xor	 dl, -22			; ffffffeaH
  0011c	88 55 f3	 mov	 BYTE PTR __k$[ebp+15], dl
  0011f	8a 50 10	 mov	 dl, BYTE PTR [eax+16]
  00122	84 d2		 test	 dl, dl
  00124	74 5b		 je	 SHORT $LN80@LoadFloat_
  00126	80 f2 ed	 xor	 dl, -19			; ffffffedH
  00129	80 78 11 00	 cmp	 BYTE PTR [eax+17], 0
  0012d	88 55 f4	 mov	 BYTE PTR __k$[ebp+16], dl
  00130	0f 84 ac 00 00
	00		 je	 $LN1@LoadFloat_
  00136	8a 50 12	 mov	 dl, BYTE PTR [eax+18]
  00139	84 d2		 test	 dl, dl
  0013b	74 3f		 je	 SHORT $LN78@LoadFloat_
  0013d	32 d1		 xor	 dl, cl
  0013f	88 55 f6	 mov	 BYTE PTR __k$[ebp+18], dl
  00142	8a 50 13	 mov	 dl, BYTE PTR [eax+19]
  00145	84 d2		 test	 dl, dl
  00147	74 2d		 je	 SHORT $LN77@LoadFloat_
  00149	80 f2 ea	 xor	 dl, -22			; ffffffeaH
  0014c	88 55 f7	 mov	 BYTE PTR __k$[ebp+19], dl
  0014f	8a 50 14	 mov	 dl, BYTE PTR [eax+20]
  00152	84 d2		 test	 dl, dl
  00154	74 1a		 je	 SHORT $LN76@LoadFloat_
  00156	8a 40 15	 mov	 al, BYTE PTR [eax+21]
  00159	80 f2 ed	 xor	 dl, -19			; ffffffedH
  0015c	88 55 f8	 mov	 BYTE PTR __k$[ebp+20], dl
  0015f	84 c0		 test	 al, al
  00161	74 07		 je	 SHORT $LN75@LoadFloat_
  00163	34 ec		 xor	 al, -20			; ffffffecH
  00165	88 45 f9	 mov	 BYTE PTR __k$[ebp+21], al
  00168	eb 78		 jmp	 SHORT $LN1@LoadFloat_
$LN75@LoadFloat_:
  0016a	c6 45 f9 ec	 mov	 BYTE PTR __k$[ebp+21], -20 ; ffffffecH
  0016e	eb 72		 jmp	 SHORT $LN1@LoadFloat_
$LN76@LoadFloat_:
  00170	c6 45 f8 ed	 mov	 BYTE PTR __k$[ebp+20], -19 ; ffffffedH
  00174	eb 6c		 jmp	 SHORT $LN1@LoadFloat_
$LN77@LoadFloat_:
  00176	c6 45 f7 ea	 mov	 BYTE PTR __k$[ebp+19], -22 ; ffffffeaH
  0017a	eb 66		 jmp	 SHORT $LN1@LoadFloat_
$LN78@LoadFloat_:
  0017c	88 4d f6	 mov	 BYTE PTR __k$[ebp+18], cl
  0017f	eb 61		 jmp	 SHORT $LN1@LoadFloat_
$LN80@LoadFloat_:
  00181	c6 45 f4 ed	 mov	 BYTE PTR __k$[ebp+16], -19 ; ffffffedH
  00185	eb 5b		 jmp	 SHORT $LN1@LoadFloat_
$LN81@LoadFloat_:
  00187	c6 45 f3 ea	 mov	 BYTE PTR __k$[ebp+15], -22 ; ffffffeaH
  0018b	eb 55		 jmp	 SHORT $LN1@LoadFloat_
$LN82@LoadFloat_:
  0018d	88 4d f2	 mov	 BYTE PTR __k$[ebp+14], cl
  00190	eb 50		 jmp	 SHORT $LN1@LoadFloat_
$LN83@LoadFloat_:
  00192	c6 45 f1 ec	 mov	 BYTE PTR __k$[ebp+13], -20 ; ffffffecH
  00196	eb 4a		 jmp	 SHORT $LN1@LoadFloat_
$LN84@LoadFloat_:
  00198	c6 45 f0 ed	 mov	 BYTE PTR __k$[ebp+12], -19 ; ffffffedH
  0019c	eb 44		 jmp	 SHORT $LN1@LoadFloat_
$LN85@LoadFloat_:
  0019e	c6 45 ef ea	 mov	 BYTE PTR __k$[ebp+11], -22 ; ffffffeaH
  001a2	eb 3e		 jmp	 SHORT $LN1@LoadFloat_
$LN86@LoadFloat_:
  001a4	88 4d ee	 mov	 BYTE PTR __k$[ebp+10], cl
  001a7	eb 39		 jmp	 SHORT $LN1@LoadFloat_
$LN87@LoadFloat_:
  001a9	c6 45 ed ec	 mov	 BYTE PTR __k$[ebp+9], -20 ; ffffffecH
  001ad	eb 33		 jmp	 SHORT $LN1@LoadFloat_
$LN88@LoadFloat_:
  001af	c6 45 ec ed	 mov	 BYTE PTR __k$[ebp+8], -19 ; ffffffedH
  001b3	eb 2d		 jmp	 SHORT $LN1@LoadFloat_
$LN89@LoadFloat_:
  001b5	c6 45 eb ea	 mov	 BYTE PTR __k$[ebp+7], -22 ; ffffffeaH
  001b9	eb 27		 jmp	 SHORT $LN1@LoadFloat_
$LN90@LoadFloat_:
  001bb	88 4d ea	 mov	 BYTE PTR __k$[ebp+6], cl
  001be	eb 22		 jmp	 SHORT $LN1@LoadFloat_
$LN91@LoadFloat_:
  001c0	c6 45 e9 ec	 mov	 BYTE PTR __k$[ebp+5], -20 ; ffffffecH
  001c4	eb 1c		 jmp	 SHORT $LN1@LoadFloat_
$LN92@LoadFloat_:
  001c6	c6 45 e8 ed	 mov	 BYTE PTR __k$[ebp+4], -19 ; ffffffedH
  001ca	eb 16		 jmp	 SHORT $LN1@LoadFloat_
$LN93@LoadFloat_:
  001cc	c6 45 e7 ea	 mov	 BYTE PTR __k$[ebp+3], -22 ; ffffffeaH
  001d0	eb 10		 jmp	 SHORT $LN1@LoadFloat_
$LN94@LoadFloat_:
  001d2	c6 45 e6 eb	 mov	 BYTE PTR __k$[ebp+2], -21 ; ffffffebH
  001d6	eb 0a		 jmp	 SHORT $LN1@LoadFloat_
$LN95@LoadFloat_:
  001d8	c6 45 e5 ec	 mov	 BYTE PTR __k$[ebp+1], -20 ; ffffffecH
  001dc	eb 04		 jmp	 SHORT $LN1@LoadFloat_
$LN96@LoadFloat_:
  001de	c6 45 e4 ed	 mov	 BYTE PTR __k$[ebp], -19	; ffffffedH
$LN1@LoadFloat_:
  001e2	6a 04		 push	 4
  001e4	8d 45 e4	 lea	 eax, DWORD PTR __k$[ebp]
  001e7	c6 45 f5 00	 mov	 BYTE PTR __k$[ebp+17], 0
  001eb	5a		 pop	 edx
$LL104@LoadFloat_:
  001ec	81 30 ed ec eb
	ea		 xor	 DWORD PTR [eax], -353637139 ; eaebecedH
  001f2	83 c0 04	 add	 eax, 4
  001f5	4a		 dec	 edx
  001f6	75 f4		 jne	 SHORT $LL104@LoadFloat_

; 137  : 		return LoadFloat(_k, f);

  001f8	f3 0f 10 45 0c	 movss	 xmm0, DWORD PTR _f$[ebp]
  001fd	80 75 f4 ed	 xor	 BYTE PTR __k$[ebp+16], -19 ; ffffffedH
  00201	51		 push	 ecx
  00202	8d 45 e4	 lea	 eax, DWORD PTR __k$[ebp]
  00205	f3 0f 11 04 24	 movss	 DWORD PTR [esp], xmm0
  0020a	50		 push	 eax
  0020b	8b ce		 mov	 ecx, esi
  0020d	ff 15 00 00 00
	00		 call	 DWORD PTR __imp_?LoadFloat@ioINILoader@@QAEMPBDM@Z

; 138  : 	}

  00213	8b 4d fc	 mov	 ecx, DWORD PTR __$ArrayPad$[ebp]
  00216	33 cd		 xor	 ecx, ebp
  00218	5e		 pop	 esi
  00219	e8 00 00 00 00	 call	 @__security_check_cookie@4
  0021e	c9		 leave
  0021f	c2 08 00	 ret	 8
??$LoadFloat_e@$0BC@@ioINILoader@@QAEMAAY0BC@$$CBDM@Z ENDP ; ioINILoader::LoadFloat_e<18>
_TEXT	ENDS
PUBLIC	_this$GSCopy$
PUBLIC	__$ArrayPad$
PUBLIC	??$LoadString_e@$0BB@@ioINILoader@@QAEXAAY0BB@$$CBDAAY00$$CBDPADH@Z ; ioINILoader::LoadString_e<17>
; Function compile flags: /Ogsp
;	COMDAT ??$LoadString_e@$0BB@@ioINILoader@@QAEXAAY0BB@$$CBDAAY00$$CBDPADH@Z
_TEXT	SEGMENT
_this$GSCopy$ = -32					; size = 4
__k$ = -28						; size = 17
__$ArrayPad$ = -4					; size = 4
_k$ = 8							; size = 4
_d$ = 12						; size = 4
_b$ = 16						; size = 4
_i$ = 20						; size = 4
??$LoadString_e@$0BB@@ioINILoader@@QAEXAAY0BB@$$CBDAAY00$$CBDPADH@Z PROC ; ioINILoader::LoadString_e<17>, COMDAT
; _this$ = ecx

; 161  : 	{

  00000	55		 push	 ebp
  00001	8b ec		 mov	 ebp, esp
  00003	83 ec 20	 sub	 esp, 32			; 00000020H
  00006	a1 00 00 00 00	 mov	 eax, DWORD PTR ___security_cookie
  0000b	33 c5		 xor	 eax, ebp
  0000d	89 45 fc	 mov	 DWORD PTR __$ArrayPad$[ebp], eax
  00010	8b 45 08	 mov	 eax, DWORD PTR _k$[ebp]

; 162  : 		_ENCSTR(k, _k);

  00013	8a 10		 mov	 dl, BYTE PTR [eax]
  00015	56		 push	 esi
  00016	8b 75 0c	 mov	 esi, DWORD PTR _d$[ebp]
  00019	57		 push	 edi
  0001a	8b 7d 10	 mov	 edi, DWORD PTR _b$[ebp]
  0001d	89 4d e0	 mov	 DWORD PTR _this$GSCopy$[ebp], ecx
  00020	84 d2		 test	 dl, dl
  00022	0f 84 a7 01 00
	00		 je	 $LN96@LoadString@2
  00028	80 f2 ed	 xor	 dl, -19			; ffffffedH
  0002b	88 55 e4	 mov	 BYTE PTR __k$[ebp], dl
  0002e	8a 50 01	 mov	 dl, BYTE PTR [eax+1]
  00031	84 d2		 test	 dl, dl
  00033	0f 84 90 01 00
	00		 je	 $LN95@LoadString@2
  00039	b1 ec		 mov	 cl, -20			; ffffffecH
  0003b	32 d1		 xor	 dl, cl
  0003d	88 55 e5	 mov	 BYTE PTR __k$[ebp+1], dl
  00040	8a 50 02	 mov	 dl, BYTE PTR [eax+2]
  00043	84 d2		 test	 dl, dl
  00045	0f 84 78 01 00
	00		 je	 $LN94@LoadString@2
  0004b	80 f2 eb	 xor	 dl, -21			; ffffffebH
  0004e	88 55 e6	 mov	 BYTE PTR __k$[ebp+2], dl
  00051	8a 50 03	 mov	 dl, BYTE PTR [eax+3]
  00054	84 d2		 test	 dl, dl
  00056	0f 84 61 01 00
	00		 je	 $LN93@LoadString@2
  0005c	80 f2 ea	 xor	 dl, -22			; ffffffeaH
  0005f	88 55 e7	 mov	 BYTE PTR __k$[ebp+3], dl
  00062	8a 50 04	 mov	 dl, BYTE PTR [eax+4]
  00065	84 d2		 test	 dl, dl
  00067	0f 84 4a 01 00
	00		 je	 $LN92@LoadString@2
  0006d	80 f2 ed	 xor	 dl, -19			; ffffffedH
  00070	88 55 e8	 mov	 BYTE PTR __k$[ebp+4], dl
  00073	8a 50 05	 mov	 dl, BYTE PTR [eax+5]
  00076	84 d2		 test	 dl, dl
  00078	0f 84 34 01 00
	00		 je	 $LN91@LoadString@2
  0007e	32 d1		 xor	 dl, cl
  00080	88 55 e9	 mov	 BYTE PTR __k$[ebp+5], dl
  00083	8a 50 06	 mov	 dl, BYTE PTR [eax+6]
  00086	84 d2		 test	 dl, dl
  00088	0f 84 1e 01 00
	00		 je	 $LN90@LoadString@2
  0008e	80 f2 eb	 xor	 dl, -21			; ffffffebH
  00091	88 55 ea	 mov	 BYTE PTR __k$[ebp+6], dl
  00094	8a 50 07	 mov	 dl, BYTE PTR [eax+7]
  00097	84 d2		 test	 dl, dl
  00099	0f 84 07 01 00
	00		 je	 $LN89@LoadString@2
  0009f	80 f2 ea	 xor	 dl, -22			; ffffffeaH
  000a2	88 55 eb	 mov	 BYTE PTR __k$[ebp+7], dl
  000a5	8a 50 08	 mov	 dl, BYTE PTR [eax+8]
  000a8	84 d2		 test	 dl, dl
  000aa	0f 84 f0 00 00
	00		 je	 $LN88@LoadString@2
  000b0	80 f2 ed	 xor	 dl, -19			; ffffffedH
  000b3	88 55 ec	 mov	 BYTE PTR __k$[ebp+8], dl
  000b6	8a 50 09	 mov	 dl, BYTE PTR [eax+9]
  000b9	84 d2		 test	 dl, dl
  000bb	0f 84 da 00 00
	00		 je	 $LN87@LoadString@2
  000c1	32 d1		 xor	 dl, cl
  000c3	88 55 ed	 mov	 BYTE PTR __k$[ebp+9], dl
  000c6	8a 50 0a	 mov	 dl, BYTE PTR [eax+10]
  000c9	84 d2		 test	 dl, dl
  000cb	0f 84 c4 00 00
	00		 je	 $LN86@LoadString@2
  000d1	80 f2 eb	 xor	 dl, -21			; ffffffebH
  000d4	88 55 ee	 mov	 BYTE PTR __k$[ebp+10], dl
  000d7	8a 50 0b	 mov	 dl, BYTE PTR [eax+11]
  000da	84 d2		 test	 dl, dl
  000dc	0f 84 ad 00 00
	00		 je	 $LN85@LoadString@2
  000e2	80 f2 ea	 xor	 dl, -22			; ffffffeaH
  000e5	88 55 ef	 mov	 BYTE PTR __k$[ebp+11], dl
  000e8	8a 50 0c	 mov	 dl, BYTE PTR [eax+12]
  000eb	84 d2		 test	 dl, dl
  000ed	0f 84 96 00 00
	00		 je	 $LN84@LoadString@2
  000f3	80 f2 ed	 xor	 dl, -19			; ffffffedH
  000f6	88 55 f0	 mov	 BYTE PTR __k$[ebp+12], dl
  000f9	8a 50 0d	 mov	 dl, BYTE PTR [eax+13]
  000fc	84 d2		 test	 dl, dl
  000fe	0f 84 80 00 00
	00		 je	 $LN83@LoadString@2
  00104	32 d1		 xor	 dl, cl
  00106	88 55 f1	 mov	 BYTE PTR __k$[ebp+13], dl
  00109	8a 50 0e	 mov	 dl, BYTE PTR [eax+14]
  0010c	84 d2		 test	 dl, dl
  0010e	74 6e		 je	 SHORT $LN82@LoadString@2
  00110	80 f2 eb	 xor	 dl, -21			; ffffffebH
  00113	88 55 f2	 mov	 BYTE PTR __k$[ebp+14], dl
  00116	8a 50 0f	 mov	 dl, BYTE PTR [eax+15]
  00119	84 d2		 test	 dl, dl
  0011b	74 5b		 je	 SHORT $LN81@LoadString@2
  0011d	80 f2 ea	 xor	 dl, -22			; ffffffeaH
  00120	80 78 10 00	 cmp	 BYTE PTR [eax+16], 0
  00124	88 55 f3	 mov	 BYTE PTR __k$[ebp+15], dl
  00127	0f 84 a6 00 00
	00		 je	 $LN111@LoadString@2
  0012d	8a 50 11	 mov	 dl, BYTE PTR [eax+17]
  00130	84 d2		 test	 dl, dl
  00132	74 3f		 je	 SHORT $LN79@LoadString@2
  00134	32 d1		 xor	 dl, cl
  00136	88 55 f5	 mov	 BYTE PTR __k$[ebp+17], dl
  00139	8a 50 12	 mov	 dl, BYTE PTR [eax+18]
  0013c	84 d2		 test	 dl, dl
  0013e	74 2d		 je	 SHORT $LN78@LoadString@2
  00140	80 f2 eb	 xor	 dl, -21			; ffffffebH
  00143	88 55 f6	 mov	 BYTE PTR __k$[ebp+18], dl
  00146	8a 50 13	 mov	 dl, BYTE PTR [eax+19]
  00149	84 d2		 test	 dl, dl
  0014b	74 1a		 je	 SHORT $LN77@LoadString@2
  0014d	8a 40 14	 mov	 al, BYTE PTR [eax+20]
  00150	80 f2 ea	 xor	 dl, -22			; ffffffeaH
  00153	88 55 f7	 mov	 BYTE PTR __k$[ebp+19], dl
  00156	84 c0		 test	 al, al
  00158	74 07		 je	 SHORT $LN76@LoadString@2
  0015a	34 ed		 xor	 al, -19			; ffffffedH
  0015c	88 45 f8	 mov	 BYTE PTR __k$[ebp+20], al
  0015f	eb 72		 jmp	 SHORT $LN111@LoadString@2
$LN76@LoadString@2:
  00161	c6 45 f8 ed	 mov	 BYTE PTR __k$[ebp+20], -19 ; ffffffedH
  00165	eb 6c		 jmp	 SHORT $LN111@LoadString@2
$LN77@LoadString@2:
  00167	c6 45 f7 ea	 mov	 BYTE PTR __k$[ebp+19], -22 ; ffffffeaH
  0016b	eb 66		 jmp	 SHORT $LN111@LoadString@2
$LN78@LoadString@2:
  0016d	c6 45 f6 eb	 mov	 BYTE PTR __k$[ebp+18], -21 ; ffffffebH
  00171	eb 60		 jmp	 SHORT $LN111@LoadString@2
$LN79@LoadString@2:
  00173	88 4d f5	 mov	 BYTE PTR __k$[ebp+17], cl
  00176	eb 5b		 jmp	 SHORT $LN111@LoadString@2
$LN81@LoadString@2:
  00178	c6 45 f3 ea	 mov	 BYTE PTR __k$[ebp+15], -22 ; ffffffeaH
  0017c	eb 55		 jmp	 SHORT $LN111@LoadString@2
$LN82@LoadString@2:
  0017e	c6 45 f2 eb	 mov	 BYTE PTR __k$[ebp+14], -21 ; ffffffebH
  00182	eb 4f		 jmp	 SHORT $LN111@LoadString@2
$LN83@LoadString@2:
  00184	88 4d f1	 mov	 BYTE PTR __k$[ebp+13], cl
  00187	eb 4a		 jmp	 SHORT $LN111@LoadString@2
$LN84@LoadString@2:
  00189	c6 45 f0 ed	 mov	 BYTE PTR __k$[ebp+12], -19 ; ffffffedH
  0018d	eb 44		 jmp	 SHORT $LN111@LoadString@2
$LN85@LoadString@2:
  0018f	c6 45 ef ea	 mov	 BYTE PTR __k$[ebp+11], -22 ; ffffffeaH
  00193	eb 3e		 jmp	 SHORT $LN111@LoadString@2
$LN86@LoadString@2:
  00195	c6 45 ee eb	 mov	 BYTE PTR __k$[ebp+10], -21 ; ffffffebH
  00199	eb 38		 jmp	 SHORT $LN111@LoadString@2
$LN87@LoadString@2:
  0019b	88 4d ed	 mov	 BYTE PTR __k$[ebp+9], cl
  0019e	eb 33		 jmp	 SHORT $LN111@LoadString@2
$LN88@LoadString@2:
  001a0	c6 45 ec ed	 mov	 BYTE PTR __k$[ebp+8], -19 ; ffffffedH
  001a4	eb 2d		 jmp	 SHORT $LN111@LoadString@2
$LN89@LoadString@2:
  001a6	c6 45 eb ea	 mov	 BYTE PTR __k$[ebp+7], -22 ; ffffffeaH
  001aa	eb 27		 jmp	 SHORT $LN111@LoadString@2
$LN90@LoadString@2:
  001ac	c6 45 ea eb	 mov	 BYTE PTR __k$[ebp+6], -21 ; ffffffebH
  001b0	eb 21		 jmp	 SHORT $LN111@LoadString@2
$LN91@LoadString@2:
  001b2	88 4d e9	 mov	 BYTE PTR __k$[ebp+5], cl
  001b5	eb 1c		 jmp	 SHORT $LN111@LoadString@2
$LN92@LoadString@2:
  001b7	c6 45 e8 ed	 mov	 BYTE PTR __k$[ebp+4], -19 ; ffffffedH
  001bb	eb 16		 jmp	 SHORT $LN111@LoadString@2
$LN93@LoadString@2:
  001bd	c6 45 e7 ea	 mov	 BYTE PTR __k$[ebp+3], -22 ; ffffffeaH
  001c1	eb 10		 jmp	 SHORT $LN111@LoadString@2
$LN94@LoadString@2:
  001c3	c6 45 e6 eb	 mov	 BYTE PTR __k$[ebp+2], -21 ; ffffffebH
  001c7	eb 0a		 jmp	 SHORT $LN111@LoadString@2
$LN95@LoadString@2:
  001c9	c6 45 e5 ec	 mov	 BYTE PTR __k$[ebp+1], -20 ; ffffffecH
  001cd	eb 04		 jmp	 SHORT $LN111@LoadString@2
$LN96@LoadString@2:
  001cf	c6 45 e4 ed	 mov	 BYTE PTR __k$[ebp], -19	; ffffffedH
$LN111@LoadString@2:
  001d3	6a 04		 push	 4
  001d5	8d 45 e4	 lea	 eax, DWORD PTR __k$[ebp]
  001d8	c6 45 f4 00	 mov	 BYTE PTR __k$[ebp+16], 0
  001dc	5a		 pop	 edx
$LL104@LoadString@2:
  001dd	81 30 ed ec eb
	ea		 xor	 DWORD PTR [eax], -353637139 ; eaebecedH
  001e3	83 c0 04	 add	 eax, 4
  001e6	4a		 dec	 edx
  001e7	75 f4		 jne	 SHORT $LL104@LoadString@2

; 163  : 		LoadString(_k, d, b, i);

  001e9	ff 75 14	 push	 DWORD PTR _i$[ebp]
  001ec	8b 4d e0	 mov	 ecx, DWORD PTR _this$GSCopy$[ebp]
  001ef	57		 push	 edi
  001f0	56		 push	 esi
  001f1	8d 45 e4	 lea	 eax, DWORD PTR __k$[ebp]
  001f4	50		 push	 eax
  001f5	ff 15 00 00 00
	00		 call	 DWORD PTR __imp_?LoadStringA@ioINILoader@@QAEXPBD0PADH@Z

; 164  : 	}

  001fb	8b 4d fc	 mov	 ecx, DWORD PTR __$ArrayPad$[ebp]
  001fe	5f		 pop	 edi
  001ff	33 cd		 xor	 ecx, ebp
  00201	5e		 pop	 esi
  00202	e8 00 00 00 00	 call	 @__security_check_cookie@4
  00207	c9		 leave
  00208	c2 10 00	 ret	 16			; 00000010H
??$LoadString_e@$0BB@@ioINILoader@@QAEXAAY0BB@$$CBDAAY00$$CBDPADH@Z ENDP ; ioINILoader::LoadString_e<17>
_TEXT	ENDS
PUBLIC	__$ArrayPad$
PUBLIC	??$LoadFloat_e@$0BA@@ioINILoader@@QAEMAAY0BA@$$CBDM@Z ; ioINILoader::LoadFloat_e<16>
; Function compile flags: /Ogsp
;	COMDAT ??$LoadFloat_e@$0BA@@ioINILoader@@QAEMAAY0BA@$$CBDM@Z
_TEXT	SEGMENT
__k$ = -24						; size = 16
__$ArrayPad$ = -4					; size = 4
_k$ = 8							; size = 4
_f$ = 12						; size = 4
??$LoadFloat_e@$0BA@@ioINILoader@@QAEMAAY0BA@$$CBDM@Z PROC ; ioINILoader::LoadFloat_e<16>, COMDAT
; _this$ = ecx

; 135  : 	{

  00000	55		 push	 ebp
  00001	8b ec		 mov	 ebp, esp
  00003	83 ec 18	 sub	 esp, 24			; 00000018H
  00006	a1 00 00 00 00	 mov	 eax, DWORD PTR ___security_cookie
  0000b	33 c5		 xor	 eax, ebp
  0000d	89 45 fc	 mov	 DWORD PTR __$ArrayPad$[ebp], eax
  00010	8b 45 08	 mov	 eax, DWORD PTR _k$[ebp]

; 136  : 		_ENCSTR(k, _k);

  00013	8a 10		 mov	 dl, BYTE PTR [eax]
  00015	56		 push	 esi
  00016	8b f1		 mov	 esi, ecx
  00018	84 d2		 test	 dl, dl
  0001a	0f 84 8c 01 00
	00		 je	 $LN96@LoadFloat_@2
  00020	80 f2 ed	 xor	 dl, -19			; ffffffedH
  00023	88 55 e8	 mov	 BYTE PTR __k$[ebp], dl
  00026	8a 50 01	 mov	 dl, BYTE PTR [eax+1]
  00029	84 d2		 test	 dl, dl
  0002b	0f 84 75 01 00
	00		 je	 $LN95@LoadFloat_@2
  00031	80 f2 ec	 xor	 dl, -20			; ffffffecH
  00034	88 55 e9	 mov	 BYTE PTR __k$[ebp+1], dl
  00037	8a 50 02	 mov	 dl, BYTE PTR [eax+2]
  0003a	84 d2		 test	 dl, dl
  0003c	0f 84 5e 01 00
	00		 je	 $LN94@LoadFloat_@2
  00042	b1 eb		 mov	 cl, -21			; ffffffebH
  00044	32 d1		 xor	 dl, cl
  00046	88 55 ea	 mov	 BYTE PTR __k$[ebp+2], dl
  00049	8a 50 03	 mov	 dl, BYTE PTR [eax+3]
  0004c	84 d2		 test	 dl, dl
  0004e	0f 84 46 01 00
	00		 je	 $LN93@LoadFloat_@2
  00054	80 f2 ea	 xor	 dl, -22			; ffffffeaH
  00057	88 55 eb	 mov	 BYTE PTR __k$[ebp+3], dl
  0005a	8a 50 04	 mov	 dl, BYTE PTR [eax+4]
  0005d	84 d2		 test	 dl, dl
  0005f	0f 84 2f 01 00
	00		 je	 $LN92@LoadFloat_@2
  00065	80 f2 ed	 xor	 dl, -19			; ffffffedH
  00068	88 55 ec	 mov	 BYTE PTR __k$[ebp+4], dl
  0006b	8a 50 05	 mov	 dl, BYTE PTR [eax+5]
  0006e	84 d2		 test	 dl, dl
  00070	0f 84 18 01 00
	00		 je	 $LN91@LoadFloat_@2
  00076	80 f2 ec	 xor	 dl, -20			; ffffffecH
  00079	88 55 ed	 mov	 BYTE PTR __k$[ebp+5], dl
  0007c	8a 50 06	 mov	 dl, BYTE PTR [eax+6]
  0007f	84 d2		 test	 dl, dl
  00081	0f 84 02 01 00
	00		 je	 $LN90@LoadFloat_@2
  00087	32 d1		 xor	 dl, cl
  00089	88 55 ee	 mov	 BYTE PTR __k$[ebp+6], dl
  0008c	8a 50 07	 mov	 dl, BYTE PTR [eax+7]
  0008f	84 d2		 test	 dl, dl
  00091	0f 84 ec 00 00
	00		 je	 $LN89@LoadFloat_@2
  00097	80 f2 ea	 xor	 dl, -22			; ffffffeaH
  0009a	88 55 ef	 mov	 BYTE PTR __k$[ebp+7], dl
  0009d	8a 50 08	 mov	 dl, BYTE PTR [eax+8]
  000a0	84 d2		 test	 dl, dl
  000a2	0f 84 d5 00 00
	00		 je	 $LN88@LoadFloat_@2
  000a8	80 f2 ed	 xor	 dl, -19			; ffffffedH
  000ab	88 55 f0	 mov	 BYTE PTR __k$[ebp+8], dl
  000ae	8a 50 09	 mov	 dl, BYTE PTR [eax+9]
  000b1	84 d2		 test	 dl, dl
  000b3	0f 84 be 00 00
	00		 je	 $LN87@LoadFloat_@2
  000b9	80 f2 ec	 xor	 dl, -20			; ffffffecH
  000bc	88 55 f1	 mov	 BYTE PTR __k$[ebp+9], dl
  000bf	8a 50 0a	 mov	 dl, BYTE PTR [eax+10]
  000c2	84 d2		 test	 dl, dl
  000c4	0f 84 a8 00 00
	00		 je	 $LN86@LoadFloat_@2
  000ca	32 d1		 xor	 dl, cl
  000cc	88 55 f2	 mov	 BYTE PTR __k$[ebp+10], dl
  000cf	8a 50 0b	 mov	 dl, BYTE PTR [eax+11]
  000d2	84 d2		 test	 dl, dl
  000d4	0f 84 92 00 00
	00		 je	 $LN85@LoadFloat_@2
  000da	80 f2 ea	 xor	 dl, -22			; ffffffeaH
  000dd	88 55 f3	 mov	 BYTE PTR __k$[ebp+11], dl
  000e0	8a 50 0c	 mov	 dl, BYTE PTR [eax+12]
  000e3	84 d2		 test	 dl, dl
  000e5	74 7f		 je	 SHORT $LN84@LoadFloat_@2
  000e7	80 f2 ed	 xor	 dl, -19			; ffffffedH
  000ea	88 55 f4	 mov	 BYTE PTR __k$[ebp+12], dl
  000ed	8a 50 0d	 mov	 dl, BYTE PTR [eax+13]
  000f0	84 d2		 test	 dl, dl
  000f2	74 6c		 je	 SHORT $LN83@LoadFloat_@2
  000f4	80 f2 ec	 xor	 dl, -20			; ffffffecH
  000f7	88 55 f5	 mov	 BYTE PTR __k$[ebp+13], dl
  000fa	8a 50 0e	 mov	 dl, BYTE PTR [eax+14]
  000fd	84 d2		 test	 dl, dl
  000ff	74 5a		 je	 SHORT $LN82@LoadFloat_@2
  00101	32 d1		 xor	 dl, cl
  00103	80 78 0f 00	 cmp	 BYTE PTR [eax+15], 0
  00107	88 55 f6	 mov	 BYTE PTR __k$[ebp+14], dl
  0010a	0f 84 a0 00 00
	00		 je	 $LN1@LoadFloat_@2
  00110	8a 50 10	 mov	 dl, BYTE PTR [eax+16]
  00113	84 d2		 test	 dl, dl
  00115	74 3e		 je	 SHORT $LN80@LoadFloat_@2
  00117	80 f2 ed	 xor	 dl, -19			; ffffffedH
  0011a	88 55 f8	 mov	 BYTE PTR __k$[ebp+16], dl
  0011d	8a 50 11	 mov	 dl, BYTE PTR [eax+17]
  00120	84 d2		 test	 dl, dl
  00122	74 2b		 je	 SHORT $LN79@LoadFloat_@2
  00124	80 f2 ec	 xor	 dl, -20			; ffffffecH
  00127	88 55 f9	 mov	 BYTE PTR __k$[ebp+17], dl
  0012a	8a 50 12	 mov	 dl, BYTE PTR [eax+18]
  0012d	84 d2		 test	 dl, dl
  0012f	74 19		 je	 SHORT $LN78@LoadFloat_@2
  00131	8a 40 13	 mov	 al, BYTE PTR [eax+19]
  00134	32 d1		 xor	 dl, cl
  00136	88 55 fa	 mov	 BYTE PTR __k$[ebp+18], dl
  00139	84 c0		 test	 al, al
  0013b	74 07		 je	 SHORT $LN77@LoadFloat_@2
  0013d	34 ea		 xor	 al, -22			; ffffffeaH
  0013f	88 45 fb	 mov	 BYTE PTR __k$[ebp+19], al
  00142	eb 6c		 jmp	 SHORT $LN1@LoadFloat_@2
$LN77@LoadFloat_@2:
  00144	c6 45 fb ea	 mov	 BYTE PTR __k$[ebp+19], -22 ; ffffffeaH
  00148	eb 66		 jmp	 SHORT $LN1@LoadFloat_@2
$LN78@LoadFloat_@2:
  0014a	88 4d fa	 mov	 BYTE PTR __k$[ebp+18], cl
  0014d	eb 61		 jmp	 SHORT $LN1@LoadFloat_@2
$LN79@LoadFloat_@2:
  0014f	c6 45 f9 ec	 mov	 BYTE PTR __k$[ebp+17], -20 ; ffffffecH
  00153	eb 5b		 jmp	 SHORT $LN1@LoadFloat_@2
$LN80@LoadFloat_@2:
  00155	c6 45 f8 ed	 mov	 BYTE PTR __k$[ebp+16], -19 ; ffffffedH
  00159	eb 55		 jmp	 SHORT $LN1@LoadFloat_@2
$LN82@LoadFloat_@2:
  0015b	88 4d f6	 mov	 BYTE PTR __k$[ebp+14], cl
  0015e	eb 50		 jmp	 SHORT $LN1@LoadFloat_@2
$LN83@LoadFloat_@2:
  00160	c6 45 f5 ec	 mov	 BYTE PTR __k$[ebp+13], -20 ; ffffffecH
  00164	eb 4a		 jmp	 SHORT $LN1@LoadFloat_@2
$LN84@LoadFloat_@2:
  00166	c6 45 f4 ed	 mov	 BYTE PTR __k$[ebp+12], -19 ; ffffffedH
  0016a	eb 44		 jmp	 SHORT $LN1@LoadFloat_@2
$LN85@LoadFloat_@2:
  0016c	c6 45 f3 ea	 mov	 BYTE PTR __k$[ebp+11], -22 ; ffffffeaH
  00170	eb 3e		 jmp	 SHORT $LN1@LoadFloat_@2
$LN86@LoadFloat_@2:
  00172	88 4d f2	 mov	 BYTE PTR __k$[ebp+10], cl
  00175	eb 39		 jmp	 SHORT $LN1@LoadFloat_@2
$LN87@LoadFloat_@2:
  00177	c6 45 f1 ec	 mov	 BYTE PTR __k$[ebp+9], -20 ; ffffffecH
  0017b	eb 33		 jmp	 SHORT $LN1@LoadFloat_@2
$LN88@LoadFloat_@2:
  0017d	c6 45 f0 ed	 mov	 BYTE PTR __k$[ebp+8], -19 ; ffffffedH
  00181	eb 2d		 jmp	 SHORT $LN1@LoadFloat_@2
$LN89@LoadFloat_@2:
  00183	c6 45 ef ea	 mov	 BYTE PTR __k$[ebp+7], -22 ; ffffffeaH
  00187	eb 27		 jmp	 SHORT $LN1@LoadFloat_@2
$LN90@LoadFloat_@2:
  00189	88 4d ee	 mov	 BYTE PTR __k$[ebp+6], cl
  0018c	eb 22		 jmp	 SHORT $LN1@LoadFloat_@2
$LN91@LoadFloat_@2:
  0018e	c6 45 ed ec	 mov	 BYTE PTR __k$[ebp+5], -20 ; ffffffecH
  00192	eb 1c		 jmp	 SHORT $LN1@LoadFloat_@2
$LN92@LoadFloat_@2:
  00194	c6 45 ec ed	 mov	 BYTE PTR __k$[ebp+4], -19 ; ffffffedH
  00198	eb 16		 jmp	 SHORT $LN1@LoadFloat_@2
$LN93@LoadFloat_@2:
  0019a	c6 45 eb ea	 mov	 BYTE PTR __k$[ebp+3], -22 ; ffffffeaH
  0019e	eb 10		 jmp	 SHORT $LN1@LoadFloat_@2
$LN94@LoadFloat_@2:
  001a0	c6 45 ea eb	 mov	 BYTE PTR __k$[ebp+2], -21 ; ffffffebH
  001a4	eb 0a		 jmp	 SHORT $LN1@LoadFloat_@2
$LN95@LoadFloat_@2:
  001a6	c6 45 e9 ec	 mov	 BYTE PTR __k$[ebp+1], -20 ; ffffffecH
  001aa	eb 04		 jmp	 SHORT $LN1@LoadFloat_@2
$LN96@LoadFloat_@2:
  001ac	c6 45 e8 ed	 mov	 BYTE PTR __k$[ebp], -19	; ffffffedH
$LN1@LoadFloat_@2:
  001b0	6a 03		 push	 3
  001b2	8d 45 e8	 lea	 eax, DWORD PTR __k$[ebp]
  001b5	c6 45 f7 00	 mov	 BYTE PTR __k$[ebp+15], 0
  001b9	5a		 pop	 edx
$LL104@LoadFloat_@2:
  001ba	81 30 ed ec eb
	ea		 xor	 DWORD PTR [eax], -353637139 ; eaebecedH
  001c0	83 c0 04	 add	 eax, 4
  001c3	4a		 dec	 edx
  001c4	75 f4		 jne	 SHORT $LL104@LoadFloat_@2
  001c6	6a 0c		 push	 12			; 0000000cH
  001c8	58		 pop	 eax
$LL101@LoadFloat_@2:
  001c9	8b c8		 mov	 ecx, eax
  001cb	81 e1 03 00 00
	80		 and	 ecx, -2147483645	; 80000003H
  001d1	79 05		 jns	 SHORT $LN111@LoadFloat_@2
  001d3	49		 dec	 ecx
  001d4	83 c9 fc	 or	 ecx, -4			; fffffffcH
  001d7	41		 inc	 ecx
$LN111@LoadFloat_@2:
  001d8	b2 ed		 mov	 dl, -19			; ffffffedH
  001da	2a d1		 sub	 dl, cl
  001dc	30 54 05 e8	 xor	 BYTE PTR __k$[ebp+eax], dl
  001e0	40		 inc	 eax
  001e1	83 f8 0f	 cmp	 eax, 15			; 0000000fH
  001e4	7c e3		 jl	 SHORT $LL101@LoadFloat_@2

; 137  : 		return LoadFloat(_k, f);

  001e6	f3 0f 10 45 0c	 movss	 xmm0, DWORD PTR _f$[ebp]
  001eb	51		 push	 ecx
  001ec	8d 45 e8	 lea	 eax, DWORD PTR __k$[ebp]
  001ef	f3 0f 11 04 24	 movss	 DWORD PTR [esp], xmm0
  001f4	50		 push	 eax
  001f5	8b ce		 mov	 ecx, esi
  001f7	ff 15 00 00 00
	00		 call	 DWORD PTR __imp_?LoadFloat@ioINILoader@@QAEMPBDM@Z

; 138  : 	}

  001fd	8b 4d fc	 mov	 ecx, DWORD PTR __$ArrayPad$[ebp]
  00200	33 cd		 xor	 ecx, ebp
  00202	5e		 pop	 esi
  00203	e8 00 00 00 00	 call	 @__security_check_cookie@4
  00208	c9		 leave
  00209	c2 08 00	 ret	 8
??$LoadFloat_e@$0BA@@ioINILoader@@QAEMAAY0BA@$$CBDM@Z ENDP ; ioINILoader::LoadFloat_e<16>
_TEXT	ENDS
PUBLIC	_this$GSCopy$
PUBLIC	__$ArrayPad$
PUBLIC	??$LoadString_e@$0BF@@ioINILoader@@QAEXAAY0BF@$$CBDAAY00$$CBDPADH@Z ; ioINILoader::LoadString_e<21>
; Function compile flags: /Ogsp
;	COMDAT ??$LoadString_e@$0BF@@ioINILoader@@QAEXAAY0BF@$$CBDAAY00$$CBDPADH@Z
_TEXT	SEGMENT
_this$GSCopy$ = -36					; size = 4
__k$ = -32						; size = 21
__$ArrayPad$ = -4					; size = 4
_k$ = 8							; size = 4
_d$ = 12						; size = 4
_b$ = 16						; size = 4
_i$ = 20						; size = 4
??$LoadString_e@$0BF@@ioINILoader@@QAEXAAY0BF@$$CBDAAY00$$CBDPADH@Z PROC ; ioINILoader::LoadString_e<21>, COMDAT
; _this$ = ecx

; 161  : 	{

  00000	55		 push	 ebp
  00001	8b ec		 mov	 ebp, esp
  00003	83 ec 24	 sub	 esp, 36			; 00000024H
  00006	a1 00 00 00 00	 mov	 eax, DWORD PTR ___security_cookie
  0000b	33 c5		 xor	 eax, ebp
  0000d	89 45 fc	 mov	 DWORD PTR __$ArrayPad$[ebp], eax
  00010	8b 45 08	 mov	 eax, DWORD PTR _k$[ebp]

; 162  : 		_ENCSTR(k, _k);

  00013	8a 10		 mov	 dl, BYTE PTR [eax]
  00015	53		 push	 ebx
  00016	56		 push	 esi
  00017	8b 75 0c	 mov	 esi, DWORD PTR _d$[ebp]
  0001a	57		 push	 edi
  0001b	8b 7d 10	 mov	 edi, DWORD PTR _b$[ebp]
  0001e	89 4d dc	 mov	 DWORD PTR _this$GSCopy$[ebp], ecx
  00021	84 d2		 test	 dl, dl
  00023	0f 84 f7 01 00
	00		 je	 $LN96@LoadString@3
  00029	80 f2 ed	 xor	 dl, -19			; ffffffedH
  0002c	88 55 e0	 mov	 BYTE PTR __k$[ebp], dl
  0002f	8a 50 01	 mov	 dl, BYTE PTR [eax+1]
  00032	84 d2		 test	 dl, dl
  00034	0f 84 e0 01 00
	00		 je	 $LN95@LoadString@3
  0003a	b1 ec		 mov	 cl, -20			; ffffffecH
  0003c	32 d1		 xor	 dl, cl
  0003e	88 55 e1	 mov	 BYTE PTR __k$[ebp+1], dl
  00041	8a 50 02	 mov	 dl, BYTE PTR [eax+2]
  00044	84 d2		 test	 dl, dl
  00046	0f 84 c8 01 00
	00		 je	 $LN94@LoadString@3
  0004c	b3 eb		 mov	 bl, -21			; ffffffebH
  0004e	32 d3		 xor	 dl, bl
  00050	88 55 e2	 mov	 BYTE PTR __k$[ebp+2], dl
  00053	8a 50 03	 mov	 dl, BYTE PTR [eax+3]
  00056	84 d2		 test	 dl, dl
  00058	0f 84 b0 01 00
	00		 je	 $LN93@LoadString@3
  0005e	80 f2 ea	 xor	 dl, -22			; ffffffeaH
  00061	88 55 e3	 mov	 BYTE PTR __k$[ebp+3], dl
  00064	8a 50 04	 mov	 dl, BYTE PTR [eax+4]
  00067	84 d2		 test	 dl, dl
  00069	0f 84 99 01 00
	00		 je	 $LN92@LoadString@3
  0006f	80 f2 ed	 xor	 dl, -19			; ffffffedH
  00072	88 55 e4	 mov	 BYTE PTR __k$[ebp+4], dl
  00075	8a 50 05	 mov	 dl, BYTE PTR [eax+5]
  00078	84 d2		 test	 dl, dl
  0007a	0f 84 83 01 00
	00		 je	 $LN91@LoadString@3
  00080	32 d1		 xor	 dl, cl
  00082	88 55 e5	 mov	 BYTE PTR __k$[ebp+5], dl
  00085	8a 50 06	 mov	 dl, BYTE PTR [eax+6]
  00088	84 d2		 test	 dl, dl
  0008a	0f 84 6e 01 00
	00		 je	 $LN90@LoadString@3
  00090	32 d3		 xor	 dl, bl
  00092	88 55 e6	 mov	 BYTE PTR __k$[ebp+6], dl
  00095	8a 50 07	 mov	 dl, BYTE PTR [eax+7]
  00098	84 d2		 test	 dl, dl
  0009a	0f 84 58 01 00
	00		 je	 $LN89@LoadString@3
  000a0	80 f2 ea	 xor	 dl, -22			; ffffffeaH
  000a3	88 55 e7	 mov	 BYTE PTR __k$[ebp+7], dl
  000a6	8a 50 08	 mov	 dl, BYTE PTR [eax+8]
  000a9	84 d2		 test	 dl, dl
  000ab	0f 84 41 01 00
	00		 je	 $LN88@LoadString@3
  000b1	80 f2 ed	 xor	 dl, -19			; ffffffedH
  000b4	88 55 e8	 mov	 BYTE PTR __k$[ebp+8], dl
  000b7	8a 50 09	 mov	 dl, BYTE PTR [eax+9]
  000ba	84 d2		 test	 dl, dl
  000bc	0f 84 2b 01 00
	00		 je	 $LN87@LoadString@3
  000c2	32 d1		 xor	 dl, cl
  000c4	88 55 e9	 mov	 BYTE PTR __k$[ebp+9], dl
  000c7	8a 50 0a	 mov	 dl, BYTE PTR [eax+10]
  000ca	84 d2		 test	 dl, dl
  000cc	0f 84 16 01 00
	00		 je	 $LN86@LoadString@3
  000d2	32 d3		 xor	 dl, bl
  000d4	88 55 ea	 mov	 BYTE PTR __k$[ebp+10], dl
  000d7	8a 50 0b	 mov	 dl, BYTE PTR [eax+11]
  000da	84 d2		 test	 dl, dl
  000dc	0f 84 00 01 00
	00		 je	 $LN85@LoadString@3
  000e2	80 f2 ea	 xor	 dl, -22			; ffffffeaH
  000e5	88 55 eb	 mov	 BYTE PTR __k$[ebp+11], dl
  000e8	8a 50 0c	 mov	 dl, BYTE PTR [eax+12]
  000eb	84 d2		 test	 dl, dl
  000ed	0f 84 e9 00 00
	00		 je	 $LN84@LoadString@3
  000f3	80 f2 ed	 xor	 dl, -19			; ffffffedH
  000f6	88 55 ec	 mov	 BYTE PTR __k$[ebp+12], dl
  000f9	8a 50 0d	 mov	 dl, BYTE PTR [eax+13]
  000fc	84 d2		 test	 dl, dl
  000fe	0f 84 d3 00 00
	00		 je	 $LN83@LoadString@3
  00104	32 d1		 xor	 dl, cl
  00106	88 55 ed	 mov	 BYTE PTR __k$[ebp+13], dl
  00109	8a 50 0e	 mov	 dl, BYTE PTR [eax+14]
  0010c	84 d2		 test	 dl, dl
  0010e	0f 84 be 00 00
	00		 je	 $LN82@LoadString@3
  00114	32 d3		 xor	 dl, bl
  00116	88 55 ee	 mov	 BYTE PTR __k$[ebp+14], dl
  00119	8a 50 0f	 mov	 dl, BYTE PTR [eax+15]
  0011c	84 d2		 test	 dl, dl
  0011e	0f 84 a8 00 00
	00		 je	 $LN81@LoadString@3
  00124	80 f2 ea	 xor	 dl, -22			; ffffffeaH
  00127	88 55 ef	 mov	 BYTE PTR __k$[ebp+15], dl
  0012a	8a 50 10	 mov	 dl, BYTE PTR [eax+16]
  0012d	84 d2		 test	 dl, dl
  0012f	0f 84 91 00 00
	00		 je	 $LN80@LoadString@3
  00135	80 f2 ed	 xor	 dl, -19			; ffffffedH
  00138	88 55 f0	 mov	 BYTE PTR __k$[ebp+16], dl
  0013b	8a 50 11	 mov	 dl, BYTE PTR [eax+17]
  0013e	84 d2		 test	 dl, dl
  00140	74 7f		 je	 SHORT $LN79@LoadString@3
  00142	32 d1		 xor	 dl, cl
  00144	88 55 f1	 mov	 BYTE PTR __k$[ebp+17], dl
  00147	8a 50 12	 mov	 dl, BYTE PTR [eax+18]
  0014a	84 d2		 test	 dl, dl
  0014c	74 6e		 je	 SHORT $LN78@LoadString@3
  0014e	32 d3		 xor	 dl, bl
  00150	88 55 f2	 mov	 BYTE PTR __k$[ebp+18], dl
  00153	8a 50 13	 mov	 dl, BYTE PTR [eax+19]
  00156	84 d2		 test	 dl, dl
  00158	74 5c		 je	 SHORT $LN77@LoadString@3
  0015a	80 f2 ea	 xor	 dl, -22			; ffffffeaH
  0015d	80 78 14 00	 cmp	 BYTE PTR [eax+20], 0
  00161	88 55 f3	 mov	 BYTE PTR __k$[ebp+19], dl
  00164	0f 84 ba 00 00
	00		 je	 $LN111@LoadString@3
  0016a	8a 50 15	 mov	 dl, BYTE PTR [eax+21]
  0016d	84 d2		 test	 dl, dl
  0016f	74 40		 je	 SHORT $LN75@LoadString@3
  00171	32 d1		 xor	 dl, cl
  00173	88 55 f5	 mov	 BYTE PTR __k$[ebp+21], dl
  00176	8a 50 16	 mov	 dl, BYTE PTR [eax+22]
  00179	84 d2		 test	 dl, dl
  0017b	74 2f		 je	 SHORT $LN74@LoadString@3
  0017d	32 d3		 xor	 dl, bl
  0017f	88 55 f6	 mov	 BYTE PTR __k$[ebp+22], dl
  00182	8a 50 17	 mov	 dl, BYTE PTR [eax+23]
  00185	84 d2		 test	 dl, dl
  00187	74 1d		 je	 SHORT $LN73@LoadString@3
  00189	8a 40 18	 mov	 al, BYTE PTR [eax+24]
  0018c	80 f2 ea	 xor	 dl, -22			; ffffffeaH
  0018f	88 55 f7	 mov	 BYTE PTR __k$[ebp+23], dl
  00192	84 c0		 test	 al, al
  00194	74 0a		 je	 SHORT $LN72@LoadString@3
  00196	34 ed		 xor	 al, -19			; ffffffedH
  00198	88 45 f8	 mov	 BYTE PTR __k$[ebp+24], al
  0019b	e9 84 00 00 00	 jmp	 $LN111@LoadString@3
$LN72@LoadString@3:
  001a0	c6 45 f8 ed	 mov	 BYTE PTR __k$[ebp+24], -19 ; ffffffedH
  001a4	eb 7e		 jmp	 SHORT $LN111@LoadString@3
$LN73@LoadString@3:
  001a6	c6 45 f7 ea	 mov	 BYTE PTR __k$[ebp+23], -22 ; ffffffeaH
  001aa	eb 78		 jmp	 SHORT $LN111@LoadString@3
$LN74@LoadString@3:
  001ac	88 5d f6	 mov	 BYTE PTR __k$[ebp+22], bl
  001af	eb 73		 jmp	 SHORT $LN111@LoadString@3
$LN75@LoadString@3:
  001b1	88 4d f5	 mov	 BYTE PTR __k$[ebp+21], cl
  001b4	eb 6e		 jmp	 SHORT $LN111@LoadString@3
$LN77@LoadString@3:
  001b6	c6 45 f3 ea	 mov	 BYTE PTR __k$[ebp+19], -22 ; ffffffeaH
  001ba	eb 68		 jmp	 SHORT $LN111@LoadString@3
$LN78@LoadString@3:
  001bc	88 5d f2	 mov	 BYTE PTR __k$[ebp+18], bl
  001bf	eb 63		 jmp	 SHORT $LN111@LoadString@3
$LN79@LoadString@3:
  001c1	88 4d f1	 mov	 BYTE PTR __k$[ebp+17], cl
  001c4	eb 5e		 jmp	 SHORT $LN111@LoadString@3
$LN80@LoadString@3:
  001c6	c6 45 f0 ed	 mov	 BYTE PTR __k$[ebp+16], -19 ; ffffffedH
  001ca	eb 58		 jmp	 SHORT $LN111@LoadString@3
$LN81@LoadString@3:
  001cc	c6 45 ef ea	 mov	 BYTE PTR __k$[ebp+15], -22 ; ffffffeaH
  001d0	eb 52		 jmp	 SHORT $LN111@LoadString@3
$LN82@LoadString@3:
  001d2	88 5d ee	 mov	 BYTE PTR __k$[ebp+14], bl
  001d5	eb 4d		 jmp	 SHORT $LN111@LoadString@3
$LN83@LoadString@3:
  001d7	88 4d ed	 mov	 BYTE PTR __k$[ebp+13], cl
  001da	eb 48		 jmp	 SHORT $LN111@LoadString@3
$LN84@LoadString@3:
  001dc	c6 45 ec ed	 mov	 BYTE PTR __k$[ebp+12], -19 ; ffffffedH
  001e0	eb 42		 jmp	 SHORT $LN111@LoadString@3
$LN85@LoadString@3:
  001e2	c6 45 eb ea	 mov	 BYTE PTR __k$[ebp+11], -22 ; ffffffeaH
  001e6	eb 3c		 jmp	 SHORT $LN111@LoadString@3
$LN86@LoadString@3:
  001e8	88 5d ea	 mov	 BYTE PTR __k$[ebp+10], bl
  001eb	eb 37		 jmp	 SHORT $LN111@LoadString@3
$LN87@LoadString@3:
  001ed	88 4d e9	 mov	 BYTE PTR __k$[ebp+9], cl
  001f0	eb 32		 jmp	 SHORT $LN111@LoadString@3
$LN88@LoadString@3:
  001f2	c6 45 e8 ed	 mov	 BYTE PTR __k$[ebp+8], -19 ; ffffffedH
  001f6	eb 2c		 jmp	 SHORT $LN111@LoadString@3
$LN89@LoadString@3:
  001f8	c6 45 e7 ea	 mov	 BYTE PTR __k$[ebp+7], -22 ; ffffffeaH
  001fc	eb 26		 jmp	 SHORT $LN111@LoadString@3
$LN90@LoadString@3:
  001fe	88 5d e6	 mov	 BYTE PTR __k$[ebp+6], bl
  00201	eb 21		 jmp	 SHORT $LN111@LoadString@3
$LN91@LoadString@3:
  00203	88 4d e5	 mov	 BYTE PTR __k$[ebp+5], cl
  00206	eb 1c		 jmp	 SHORT $LN111@LoadString@3
$LN92@LoadString@3:
  00208	c6 45 e4 ed	 mov	 BYTE PTR __k$[ebp+4], -19 ; ffffffedH
  0020c	eb 16		 jmp	 SHORT $LN111@LoadString@3
$LN93@LoadString@3:
  0020e	c6 45 e3 ea	 mov	 BYTE PTR __k$[ebp+3], -22 ; ffffffeaH
  00212	eb 10		 jmp	 SHORT $LN111@LoadString@3
$LN94@LoadString@3:
  00214	c6 45 e2 eb	 mov	 BYTE PTR __k$[ebp+2], -21 ; ffffffebH
  00218	eb 0a		 jmp	 SHORT $LN111@LoadString@3
$LN95@LoadString@3:
  0021a	c6 45 e1 ec	 mov	 BYTE PTR __k$[ebp+1], -20 ; ffffffecH
  0021e	eb 04		 jmp	 SHORT $LN111@LoadString@3
$LN96@LoadString@3:
  00220	c6 45 e0 ed	 mov	 BYTE PTR __k$[ebp], -19	; ffffffedH
$LN111@LoadString@3:
  00224	6a 05		 push	 5
  00226	8d 45 e0	 lea	 eax, DWORD PTR __k$[ebp]
  00229	c6 45 f4 00	 mov	 BYTE PTR __k$[ebp+20], 0
  0022d	5a		 pop	 edx
$LL104@LoadString@3:
  0022e	81 30 ed ec eb
	ea		 xor	 DWORD PTR [eax], -353637139 ; eaebecedH
  00234	83 c0 04	 add	 eax, 4
  00237	4a		 dec	 edx
  00238	75 f4		 jne	 SHORT $LL104@LoadString@3

; 163  : 		LoadString(_k, d, b, i);

  0023a	ff 75 14	 push	 DWORD PTR _i$[ebp]
  0023d	8b 4d dc	 mov	 ecx, DWORD PTR _this$GSCopy$[ebp]
  00240	57		 push	 edi
  00241	56		 push	 esi
  00242	8d 45 e0	 lea	 eax, DWORD PTR __k$[ebp]
  00245	50		 push	 eax
  00246	ff 15 00 00 00
	00		 call	 DWORD PTR __imp_?LoadStringA@ioINILoader@@QAEXPBD0PADH@Z

; 164  : 	}

  0024c	8b 4d fc	 mov	 ecx, DWORD PTR __$ArrayPad$[ebp]
  0024f	5f		 pop	 edi
  00250	5e		 pop	 esi
  00251	33 cd		 xor	 ecx, ebp
  00253	5b		 pop	 ebx
  00254	e8 00 00 00 00	 call	 @__security_check_cookie@4
  00259	c9		 leave
  0025a	c2 10 00	 ret	 16			; 00000010H
??$LoadString_e@$0BF@@ioINILoader@@QAEXAAY0BF@$$CBDAAY00$$CBDPADH@Z ENDP ; ioINILoader::LoadString_e<21>
_TEXT	ENDS
PUBLIC	__$ArrayPad$
PUBLIC	??$LoadFloat_e@$0BE@@ioINILoader@@QAEMAAY0BE@$$CBDM@Z ; ioINILoader::LoadFloat_e<20>
; Function compile flags: /Ogsp
;	COMDAT ??$LoadFloat_e@$0BE@@ioINILoader@@QAEMAAY0BE@$$CBDM@Z
_TEXT	SEGMENT
__k$ = -28						; size = 20
__$ArrayPad$ = -4					; size = 4
_k$ = 8							; size = 4
_f$ = 12						; size = 4
??$LoadFloat_e@$0BE@@ioINILoader@@QAEMAAY0BE@$$CBDM@Z PROC ; ioINILoader::LoadFloat_e<20>, COMDAT
; _this$ = ecx

; 135  : 	{

  00000	55		 push	 ebp
  00001	8b ec		 mov	 ebp, esp
  00003	83 ec 1c	 sub	 esp, 28			; 0000001cH
  00006	a1 00 00 00 00	 mov	 eax, DWORD PTR ___security_cookie
  0000b	33 c5		 xor	 eax, ebp
  0000d	89 45 fc	 mov	 DWORD PTR __$ArrayPad$[ebp], eax
  00010	8b 45 08	 mov	 eax, DWORD PTR _k$[ebp]

; 136  : 		_ENCSTR(k, _k);

  00013	8a 10		 mov	 dl, BYTE PTR [eax]
  00015	53		 push	 ebx
  00016	56		 push	 esi
  00017	8b f1		 mov	 esi, ecx
  00019	84 d2		 test	 dl, dl
  0001b	0f 84 dd 01 00
	00		 je	 $LN96@LoadFloat_@3
  00021	80 f2 ed	 xor	 dl, -19			; ffffffedH
  00024	88 55 e4	 mov	 BYTE PTR __k$[ebp], dl
  00027	8a 50 01	 mov	 dl, BYTE PTR [eax+1]
  0002a	84 d2		 test	 dl, dl
  0002c	0f 84 c6 01 00
	00		 je	 $LN95@LoadFloat_@3
  00032	b3 ec		 mov	 bl, -20			; ffffffecH
  00034	32 d3		 xor	 dl, bl
  00036	88 55 e5	 mov	 BYTE PTR __k$[ebp+1], dl
  00039	8a 50 02	 mov	 dl, BYTE PTR [eax+2]
  0003c	84 d2		 test	 dl, dl
  0003e	0f 84 ae 01 00
	00		 je	 $LN94@LoadFloat_@3
  00044	b1 eb		 mov	 cl, -21			; ffffffebH
  00046	32 d1		 xor	 dl, cl
  00048	88 55 e6	 mov	 BYTE PTR __k$[ebp+2], dl
  0004b	8a 50 03	 mov	 dl, BYTE PTR [eax+3]
  0004e	84 d2		 test	 dl, dl
  00050	0f 84 96 01 00
	00		 je	 $LN93@LoadFloat_@3
  00056	80 f2 ea	 xor	 dl, -22			; ffffffeaH
  00059	88 55 e7	 mov	 BYTE PTR __k$[ebp+3], dl
  0005c	8a 50 04	 mov	 dl, BYTE PTR [eax+4]
  0005f	84 d2		 test	 dl, dl
  00061	0f 84 7f 01 00
	00		 je	 $LN92@LoadFloat_@3
  00067	80 f2 ed	 xor	 dl, -19			; ffffffedH
  0006a	88 55 e8	 mov	 BYTE PTR __k$[ebp+4], dl
  0006d	8a 50 05	 mov	 dl, BYTE PTR [eax+5]
  00070	84 d2		 test	 dl, dl
  00072	0f 84 69 01 00
	00		 je	 $LN91@LoadFloat_@3
  00078	32 d3		 xor	 dl, bl
  0007a	88 55 e9	 mov	 BYTE PTR __k$[ebp+5], dl
  0007d	8a 50 06	 mov	 dl, BYTE PTR [eax+6]
  00080	84 d2		 test	 dl, dl
  00082	0f 84 54 01 00
	00		 je	 $LN90@LoadFloat_@3
  00088	32 d1		 xor	 dl, cl
  0008a	88 55 ea	 mov	 BYTE PTR __k$[ebp+6], dl
  0008d	8a 50 07	 mov	 dl, BYTE PTR [eax+7]
  00090	84 d2		 test	 dl, dl
  00092	0f 84 3e 01 00
	00		 je	 $LN89@LoadFloat_@3
  00098	80 f2 ea	 xor	 dl, -22			; ffffffeaH
  0009b	88 55 eb	 mov	 BYTE PTR __k$[ebp+7], dl
  0009e	8a 50 08	 mov	 dl, BYTE PTR [eax+8]
  000a1	84 d2		 test	 dl, dl
  000a3	0f 84 27 01 00
	00		 je	 $LN88@LoadFloat_@3
  000a9	80 f2 ed	 xor	 dl, -19			; ffffffedH
  000ac	88 55 ec	 mov	 BYTE PTR __k$[ebp+8], dl
  000af	8a 50 09	 mov	 dl, BYTE PTR [eax+9]
  000b2	84 d2		 test	 dl, dl
  000b4	0f 84 11 01 00
	00		 je	 $LN87@LoadFloat_@3
  000ba	32 d3		 xor	 dl, bl
  000bc	88 55 ed	 mov	 BYTE PTR __k$[ebp+9], dl
  000bf	8a 50 0a	 mov	 dl, BYTE PTR [eax+10]
  000c2	84 d2		 test	 dl, dl
  000c4	0f 84 fc 00 00
	00		 je	 $LN86@LoadFloat_@3
  000ca	32 d1		 xor	 dl, cl
  000cc	88 55 ee	 mov	 BYTE PTR __k$[ebp+10], dl
  000cf	8a 50 0b	 mov	 dl, BYTE PTR [eax+11]
  000d2	84 d2		 test	 dl, dl
  000d4	0f 84 e6 00 00
	00		 je	 $LN85@LoadFloat_@3
  000da	80 f2 ea	 xor	 dl, -22			; ffffffeaH
  000dd	88 55 ef	 mov	 BYTE PTR __k$[ebp+11], dl
  000e0	8a 50 0c	 mov	 dl, BYTE PTR [eax+12]
  000e3	84 d2		 test	 dl, dl
  000e5	0f 84 cf 00 00
	00		 je	 $LN84@LoadFloat_@3
  000eb	80 f2 ed	 xor	 dl, -19			; ffffffedH
  000ee	88 55 f0	 mov	 BYTE PTR __k$[ebp+12], dl
  000f1	8a 50 0d	 mov	 dl, BYTE PTR [eax+13]
  000f4	84 d2		 test	 dl, dl
  000f6	0f 84 b9 00 00
	00		 je	 $LN83@LoadFloat_@3
  000fc	32 d3		 xor	 dl, bl
  000fe	88 55 f1	 mov	 BYTE PTR __k$[ebp+13], dl
  00101	8a 50 0e	 mov	 dl, BYTE PTR [eax+14]
  00104	84 d2		 test	 dl, dl
  00106	0f 84 a4 00 00
	00		 je	 $LN82@LoadFloat_@3
  0010c	32 d1		 xor	 dl, cl
  0010e	88 55 f2	 mov	 BYTE PTR __k$[ebp+14], dl
  00111	8a 50 0f	 mov	 dl, BYTE PTR [eax+15]
  00114	84 d2		 test	 dl, dl
  00116	0f 84 8e 00 00
	00		 je	 $LN81@LoadFloat_@3
  0011c	80 f2 ea	 xor	 dl, -22			; ffffffeaH
  0011f	88 55 f3	 mov	 BYTE PTR __k$[ebp+15], dl
  00122	8a 50 10	 mov	 dl, BYTE PTR [eax+16]
  00125	84 d2		 test	 dl, dl
  00127	74 7b		 je	 SHORT $LN80@LoadFloat_@3
  00129	80 f2 ed	 xor	 dl, -19			; ffffffedH
  0012c	88 55 f4	 mov	 BYTE PTR __k$[ebp+16], dl
  0012f	8a 50 11	 mov	 dl, BYTE PTR [eax+17]
  00132	84 d2		 test	 dl, dl
  00134	74 69		 je	 SHORT $LN79@LoadFloat_@3
  00136	32 d3		 xor	 dl, bl
  00138	88 55 f5	 mov	 BYTE PTR __k$[ebp+17], dl
  0013b	8a 50 12	 mov	 dl, BYTE PTR [eax+18]
  0013e	84 d2		 test	 dl, dl
  00140	74 58		 je	 SHORT $LN78@LoadFloat_@3
  00142	32 d1		 xor	 dl, cl
  00144	80 78 13 00	 cmp	 BYTE PTR [eax+19], 0
  00148	88 55 f6	 mov	 BYTE PTR __k$[ebp+18], dl
  0014b	0f 84 b1 00 00
	00		 je	 $LN1@LoadFloat_@3
  00151	8a 50 14	 mov	 dl, BYTE PTR [eax+20]
  00154	84 d2		 test	 dl, dl
  00156	74 3c		 je	 SHORT $LN76@LoadFloat_@3
  00158	80 f2 ed	 xor	 dl, -19			; ffffffedH
  0015b	88 55 f8	 mov	 BYTE PTR __k$[ebp+20], dl
  0015e	8a 50 15	 mov	 dl, BYTE PTR [eax+21]
  00161	84 d2		 test	 dl, dl
  00163	74 2a		 je	 SHORT $LN75@LoadFloat_@3
  00165	32 d3		 xor	 dl, bl
  00167	88 55 f9	 mov	 BYTE PTR __k$[ebp+21], dl
  0016a	8a 50 16	 mov	 dl, BYTE PTR [eax+22]
  0016d	84 d2		 test	 dl, dl
  0016f	74 19		 je	 SHORT $LN74@LoadFloat_@3
  00171	8a 40 17	 mov	 al, BYTE PTR [eax+23]
  00174	32 d1		 xor	 dl, cl
  00176	88 55 fa	 mov	 BYTE PTR __k$[ebp+22], dl
  00179	84 c0		 test	 al, al
  0017b	74 07		 je	 SHORT $LN73@LoadFloat_@3
  0017d	34 ea		 xor	 al, -22			; ffffffeaH
  0017f	88 45 fb	 mov	 BYTE PTR __k$[ebp+23], al
  00182	eb 7e		 jmp	 SHORT $LN1@LoadFloat_@3
$LN73@LoadFloat_@3:
  00184	c6 45 fb ea	 mov	 BYTE PTR __k$[ebp+23], -22 ; ffffffeaH
  00188	eb 78		 jmp	 SHORT $LN1@LoadFloat_@3
$LN74@LoadFloat_@3:
  0018a	88 4d fa	 mov	 BYTE PTR __k$[ebp+22], cl
  0018d	eb 73		 jmp	 SHORT $LN1@LoadFloat_@3
$LN75@LoadFloat_@3:
  0018f	88 5d f9	 mov	 BYTE PTR __k$[ebp+21], bl
  00192	eb 6e		 jmp	 SHORT $LN1@LoadFloat_@3
$LN76@LoadFloat_@3:
  00194	c6 45 f8 ed	 mov	 BYTE PTR __k$[ebp+20], -19 ; ffffffedH
  00198	eb 68		 jmp	 SHORT $LN1@LoadFloat_@3
$LN78@LoadFloat_@3:
  0019a	88 4d f6	 mov	 BYTE PTR __k$[ebp+18], cl
  0019d	eb 63		 jmp	 SHORT $LN1@LoadFloat_@3
$LN79@LoadFloat_@3:
  0019f	88 5d f5	 mov	 BYTE PTR __k$[ebp+17], bl
  001a2	eb 5e		 jmp	 SHORT $LN1@LoadFloat_@3
$LN80@LoadFloat_@3:
  001a4	c6 45 f4 ed	 mov	 BYTE PTR __k$[ebp+16], -19 ; ffffffedH
  001a8	eb 58		 jmp	 SHORT $LN1@LoadFloat_@3
$LN81@LoadFloat_@3:
  001aa	c6 45 f3 ea	 mov	 BYTE PTR __k$[ebp+15], -22 ; ffffffeaH
  001ae	eb 52		 jmp	 SHORT $LN1@LoadFloat_@3
$LN82@LoadFloat_@3:
  001b0	88 4d f2	 mov	 BYTE PTR __k$[ebp+14], cl
  001b3	eb 4d		 jmp	 SHORT $LN1@LoadFloat_@3
$LN83@LoadFloat_@3:
  001b5	88 5d f1	 mov	 BYTE PTR __k$[ebp+13], bl
  001b8	eb 48		 jmp	 SHORT $LN1@LoadFloat_@3
$LN84@LoadFloat_@3:
  001ba	c6 45 f0 ed	 mov	 BYTE PTR __k$[ebp+12], -19 ; ffffffedH
  001be	eb 42		 jmp	 SHORT $LN1@LoadFloat_@3
$LN85@LoadFloat_@3:
  001c0	c6 45 ef ea	 mov	 BYTE PTR __k$[ebp+11], -22 ; ffffffeaH
  001c4	eb 3c		 jmp	 SHORT $LN1@LoadFloat_@3
$LN86@LoadFloat_@3:
  001c6	88 4d ee	 mov	 BYTE PTR __k$[ebp+10], cl
  001c9	eb 37		 jmp	 SHORT $LN1@LoadFloat_@3
$LN87@LoadFloat_@3:
  001cb	88 5d ed	 mov	 BYTE PTR __k$[ebp+9], bl
  001ce	eb 32		 jmp	 SHORT $LN1@LoadFloat_@3
$LN88@LoadFloat_@3:
  001d0	c6 45 ec ed	 mov	 BYTE PTR __k$[ebp+8], -19 ; ffffffedH
  001d4	eb 2c		 jmp	 SHORT $LN1@LoadFloat_@3
$LN89@LoadFloat_@3:
  001d6	c6 45 eb ea	 mov	 BYTE PTR __k$[ebp+7], -22 ; ffffffeaH
  001da	eb 26		 jmp	 SHORT $LN1@LoadFloat_@3
$LN90@LoadFloat_@3:
  001dc	88 4d ea	 mov	 BYTE PTR __k$[ebp+6], cl
  001df	eb 21		 jmp	 SHORT $LN1@LoadFloat_@3
$LN91@LoadFloat_@3:
  001e1	88 5d e9	 mov	 BYTE PTR __k$[ebp+5], bl
  001e4	eb 1c		 jmp	 SHORT $LN1@LoadFloat_@3
$LN92@LoadFloat_@3:
  001e6	c6 45 e8 ed	 mov	 BYTE PTR __k$[ebp+4], -19 ; ffffffedH
  001ea	eb 16		 jmp	 SHORT $LN1@LoadFloat_@3
$LN93@LoadFloat_@3:
  001ec	c6 45 e7 ea	 mov	 BYTE PTR __k$[ebp+3], -22 ; ffffffeaH
  001f0	eb 10		 jmp	 SHORT $LN1@LoadFloat_@3
$LN94@LoadFloat_@3:
  001f2	c6 45 e6 eb	 mov	 BYTE PTR __k$[ebp+2], -21 ; ffffffebH
  001f6	eb 0a		 jmp	 SHORT $LN1@LoadFloat_@3
$LN95@LoadFloat_@3:
  001f8	c6 45 e5 ec	 mov	 BYTE PTR __k$[ebp+1], -20 ; ffffffecH
  001fc	eb 04		 jmp	 SHORT $LN1@LoadFloat_@3
$LN96@LoadFloat_@3:
  001fe	c6 45 e4 ed	 mov	 BYTE PTR __k$[ebp], -19	; ffffffedH
$LN1@LoadFloat_@3:
  00202	6a 04		 push	 4
  00204	8d 45 e4	 lea	 eax, DWORD PTR __k$[ebp]
  00207	c6 45 f7 00	 mov	 BYTE PTR __k$[ebp+19], 0
  0020b	5a		 pop	 edx
$LL104@LoadFloat_@3:
  0020c	81 30 ed ec eb
	ea		 xor	 DWORD PTR [eax], -353637139 ; eaebecedH
  00212	83 c0 04	 add	 eax, 4
  00215	4a		 dec	 edx
  00216	75 f4		 jne	 SHORT $LL104@LoadFloat_@3
  00218	6a 10		 push	 16			; 00000010H
  0021a	58		 pop	 eax
$LL101@LoadFloat_@3:
  0021b	8b c8		 mov	 ecx, eax
  0021d	81 e1 03 00 00
	80		 and	 ecx, -2147483645	; 80000003H
  00223	79 05		 jns	 SHORT $LN111@LoadFloat_@3
  00225	49		 dec	 ecx
  00226	83 c9 fc	 or	 ecx, -4			; fffffffcH
  00229	41		 inc	 ecx
$LN111@LoadFloat_@3:
  0022a	b2 ed		 mov	 dl, -19			; ffffffedH
  0022c	2a d1		 sub	 dl, cl
  0022e	30 54 05 e4	 xor	 BYTE PTR __k$[ebp+eax], dl
  00232	40		 inc	 eax
  00233	83 f8 13	 cmp	 eax, 19			; 00000013H
  00236	7c e3		 jl	 SHORT $LL101@LoadFloat_@3

; 137  : 		return LoadFloat(_k, f);

  00238	f3 0f 10 45 0c	 movss	 xmm0, DWORD PTR _f$[ebp]
  0023d	51		 push	 ecx
  0023e	8d 45 e4	 lea	 eax, DWORD PTR __k$[ebp]
  00241	f3 0f 11 04 24	 movss	 DWORD PTR [esp], xmm0
  00246	50		 push	 eax
  00247	8b ce		 mov	 ecx, esi
  00249	ff 15 00 00 00
	00		 call	 DWORD PTR __imp_?LoadFloat@ioINILoader@@QAEMPBDM@Z

; 138  : 	}

  0024f	8b 4d fc	 mov	 ecx, DWORD PTR __$ArrayPad$[ebp]
  00252	5e		 pop	 esi
  00253	33 cd		 xor	 ecx, ebp
  00255	5b		 pop	 ebx
  00256	e8 00 00 00 00	 call	 @__security_check_cookie@4
  0025b	c9		 leave
  0025c	c2 08 00	 ret	 8
??$LoadFloat_e@$0BE@@ioINILoader@@QAEMAAY0BE@$$CBDM@Z ENDP ; ioINILoader::LoadFloat_e<20>
_TEXT	ENDS
PUBLIC	_this$GSCopy$
PUBLIC	__$ArrayPad$
PUBLIC	??$LoadString_e@$0M@@ioINILoader@@QAEXAAY0M@$$CBDAAY00$$CBDPADH@Z ; ioINILoader::LoadString_e<12>
; Function compile flags: /Ogsp
;	COMDAT ??$LoadString_e@$0M@@ioINILoader@@QAEXAAY0M@$$CBDAAY00$$CBDPADH@Z
_TEXT	SEGMENT
_this$GSCopy$ = -24					; size = 4
__k$ = -20						; size = 12
__$ArrayPad$ = -4					; size = 4
_k$ = 8							; size = 4
_d$ = 12						; size = 4
_b$ = 16						; size = 4
_i$ = 20						; size = 4
??$LoadString_e@$0M@@ioINILoader@@QAEXAAY0M@$$CBDAAY00$$CBDPADH@Z PROC ; ioINILoader::LoadString_e<12>, COMDAT
; _this$ = ecx

; 161  : 	{

  00000	55		 push	 ebp
  00001	8b ec		 mov	 ebp, esp
  00003	83 ec 18	 sub	 esp, 24			; 00000018H
  00006	a1 00 00 00 00	 mov	 eax, DWORD PTR ___security_cookie
  0000b	33 c5		 xor	 eax, ebp
  0000d	89 45 fc	 mov	 DWORD PTR __$ArrayPad$[ebp], eax
  00010	8b 45 08	 mov	 eax, DWORD PTR _k$[ebp]

; 162  : 		_ENCSTR(k, _k);

  00013	8a 10		 mov	 dl, BYTE PTR [eax]
  00015	56		 push	 esi
  00016	8b 75 0c	 mov	 esi, DWORD PTR _d$[ebp]
  00019	57		 push	 edi
  0001a	8b 7d 10	 mov	 edi, DWORD PTR _b$[ebp]
  0001d	89 4d e8	 mov	 DWORD PTR _this$GSCopy$[ebp], ecx
  00020	84 d2		 test	 dl, dl
  00022	0f 84 32 01 00
	00		 je	 $LN96@LoadString@4
  00028	80 f2 ed	 xor	 dl, -19			; ffffffedH
  0002b	88 55 ec	 mov	 BYTE PTR __k$[ebp], dl
  0002e	8a 50 01	 mov	 dl, BYTE PTR [eax+1]
  00031	84 d2		 test	 dl, dl
  00033	0f 84 1b 01 00
	00		 je	 $LN95@LoadString@4
  00039	80 f2 ec	 xor	 dl, -20			; ffffffecH
  0003c	88 55 ed	 mov	 BYTE PTR __k$[ebp+1], dl
  0003f	8a 50 02	 mov	 dl, BYTE PTR [eax+2]
  00042	84 d2		 test	 dl, dl
  00044	0f 84 04 01 00
	00		 je	 $LN94@LoadString@4
  0004a	b1 eb		 mov	 cl, -21			; ffffffebH
  0004c	32 d1		 xor	 dl, cl
  0004e	88 55 ee	 mov	 BYTE PTR __k$[ebp+2], dl
  00051	8a 50 03	 mov	 dl, BYTE PTR [eax+3]
  00054	84 d2		 test	 dl, dl
  00056	0f 84 ec 00 00
	00		 je	 $LN93@LoadString@4
  0005c	80 f2 ea	 xor	 dl, -22			; ffffffeaH
  0005f	88 55 ef	 mov	 BYTE PTR __k$[ebp+3], dl
  00062	8a 50 04	 mov	 dl, BYTE PTR [eax+4]
  00065	84 d2		 test	 dl, dl
  00067	0f 84 d5 00 00
	00		 je	 $LN92@LoadString@4
  0006d	80 f2 ed	 xor	 dl, -19			; ffffffedH
  00070	88 55 f0	 mov	 BYTE PTR __k$[ebp+4], dl
  00073	8a 50 05	 mov	 dl, BYTE PTR [eax+5]
  00076	84 d2		 test	 dl, dl
  00078	0f 84 be 00 00
	00		 je	 $LN91@LoadString@4
  0007e	80 f2 ec	 xor	 dl, -20			; ffffffecH
  00081	88 55 f1	 mov	 BYTE PTR __k$[ebp+5], dl
  00084	8a 50 06	 mov	 dl, BYTE PTR [eax+6]
  00087	84 d2		 test	 dl, dl
  00089	0f 84 a8 00 00
	00		 je	 $LN90@LoadString@4
  0008f	32 d1		 xor	 dl, cl
  00091	88 55 f2	 mov	 BYTE PTR __k$[ebp+6], dl
  00094	8a 50 07	 mov	 dl, BYTE PTR [eax+7]
  00097	84 d2		 test	 dl, dl
  00099	0f 84 92 00 00
	00		 je	 $LN89@LoadString@4
  0009f	80 f2 ea	 xor	 dl, -22			; ffffffeaH
  000a2	88 55 f3	 mov	 BYTE PTR __k$[ebp+7], dl
  000a5	8a 50 08	 mov	 dl, BYTE PTR [eax+8]
  000a8	84 d2		 test	 dl, dl
  000aa	74 7f		 je	 SHORT $LN88@LoadString@4
  000ac	80 f2 ed	 xor	 dl, -19			; ffffffedH
  000af	88 55 f4	 mov	 BYTE PTR __k$[ebp+8], dl
  000b2	8a 50 09	 mov	 dl, BYTE PTR [eax+9]
  000b5	84 d2		 test	 dl, dl
  000b7	74 6c		 je	 SHORT $LN87@LoadString@4
  000b9	80 f2 ec	 xor	 dl, -20			; ffffffecH
  000bc	88 55 f5	 mov	 BYTE PTR __k$[ebp+9], dl
  000bf	8a 50 0a	 mov	 dl, BYTE PTR [eax+10]
  000c2	84 d2		 test	 dl, dl
  000c4	74 5a		 je	 SHORT $LN86@LoadString@4
  000c6	32 d1		 xor	 dl, cl
  000c8	80 78 0b 00	 cmp	 BYTE PTR [eax+11], 0
  000cc	88 55 f6	 mov	 BYTE PTR __k$[ebp+10], dl
  000cf	0f 84 89 00 00
	00		 je	 $LN111@LoadString@4
  000d5	8a 50 0c	 mov	 dl, BYTE PTR [eax+12]
  000d8	84 d2		 test	 dl, dl
  000da	74 3e		 je	 SHORT $LN84@LoadString@4
  000dc	80 f2 ed	 xor	 dl, -19			; ffffffedH
  000df	88 55 f8	 mov	 BYTE PTR __k$[ebp+12], dl
  000e2	8a 50 0d	 mov	 dl, BYTE PTR [eax+13]
  000e5	84 d2		 test	 dl, dl
  000e7	74 2b		 je	 SHORT $LN83@LoadString@4
  000e9	80 f2 ec	 xor	 dl, -20			; ffffffecH
  000ec	88 55 f9	 mov	 BYTE PTR __k$[ebp+13], dl
  000ef	8a 50 0e	 mov	 dl, BYTE PTR [eax+14]
  000f2	84 d2		 test	 dl, dl
  000f4	74 19		 je	 SHORT $LN82@LoadString@4
  000f6	8a 40 0f	 mov	 al, BYTE PTR [eax+15]
  000f9	32 d1		 xor	 dl, cl
  000fb	88 55 fa	 mov	 BYTE PTR __k$[ebp+14], dl
  000fe	84 c0		 test	 al, al
  00100	74 07		 je	 SHORT $LN81@LoadString@4
  00102	34 ea		 xor	 al, -22			; ffffffeaH
  00104	88 45 fb	 mov	 BYTE PTR __k$[ebp+15], al
  00107	eb 55		 jmp	 SHORT $LN111@LoadString@4
$LN81@LoadString@4:
  00109	c6 45 fb ea	 mov	 BYTE PTR __k$[ebp+15], -22 ; ffffffeaH
  0010d	eb 4f		 jmp	 SHORT $LN111@LoadString@4
$LN82@LoadString@4:
  0010f	88 4d fa	 mov	 BYTE PTR __k$[ebp+14], cl
  00112	eb 4a		 jmp	 SHORT $LN111@LoadString@4
$LN83@LoadString@4:
  00114	c6 45 f9 ec	 mov	 BYTE PTR __k$[ebp+13], -20 ; ffffffecH
  00118	eb 44		 jmp	 SHORT $LN111@LoadString@4
$LN84@LoadString@4:
  0011a	c6 45 f8 ed	 mov	 BYTE PTR __k$[ebp+12], -19 ; ffffffedH
  0011e	eb 3e		 jmp	 SHORT $LN111@LoadString@4
$LN86@LoadString@4:
  00120	88 4d f6	 mov	 BYTE PTR __k$[ebp+10], cl
  00123	eb 39		 jmp	 SHORT $LN111@LoadString@4
$LN87@LoadString@4:
  00125	c6 45 f5 ec	 mov	 BYTE PTR __k$[ebp+9], -20 ; ffffffecH
  00129	eb 33		 jmp	 SHORT $LN111@LoadString@4
$LN88@LoadString@4:
  0012b	c6 45 f4 ed	 mov	 BYTE PTR __k$[ebp+8], -19 ; ffffffedH
  0012f	eb 2d		 jmp	 SHORT $LN111@LoadString@4
$LN89@LoadString@4:
  00131	c6 45 f3 ea	 mov	 BYTE PTR __k$[ebp+7], -22 ; ffffffeaH
  00135	eb 27		 jmp	 SHORT $LN111@LoadString@4
$LN90@LoadString@4:
  00137	88 4d f2	 mov	 BYTE PTR __k$[ebp+6], cl
  0013a	eb 22		 jmp	 SHORT $LN111@LoadString@4
$LN91@LoadString@4:
  0013c	c6 45 f1 ec	 mov	 BYTE PTR __k$[ebp+5], -20 ; ffffffecH
  00140	eb 1c		 jmp	 SHORT $LN111@LoadString@4
$LN92@LoadString@4:
  00142	c6 45 f0 ed	 mov	 BYTE PTR __k$[ebp+4], -19 ; ffffffedH
  00146	eb 16		 jmp	 SHORT $LN111@LoadString@4
$LN93@LoadString@4:
  00148	c6 45 ef ea	 mov	 BYTE PTR __k$[ebp+3], -22 ; ffffffeaH
  0014c	eb 10		 jmp	 SHORT $LN111@LoadString@4
$LN94@LoadString@4:
  0014e	c6 45 ee eb	 mov	 BYTE PTR __k$[ebp+2], -21 ; ffffffebH
  00152	eb 0a		 jmp	 SHORT $LN111@LoadString@4
$LN95@LoadString@4:
  00154	c6 45 ed ec	 mov	 BYTE PTR __k$[ebp+1], -20 ; ffffffecH
  00158	eb 04		 jmp	 SHORT $LN111@LoadString@4
$LN96@LoadString@4:
  0015a	c6 45 ec ed	 mov	 BYTE PTR __k$[ebp], -19	; ffffffedH
$LN111@LoadString@4:
  0015e	6a 02		 push	 2
  00160	8d 45 ec	 lea	 eax, DWORD PTR __k$[ebp]
  00163	c6 45 f7 00	 mov	 BYTE PTR __k$[ebp+11], 0
  00167	5a		 pop	 edx
$LL104@LoadString@4:
  00168	81 30 ed ec eb
	ea		 xor	 DWORD PTR [eax], -353637139 ; eaebecedH
  0016e	83 c0 04	 add	 eax, 4
  00171	4a		 dec	 edx
  00172	75 f4		 jne	 SHORT $LL104@LoadString@4
  00174	6a 08		 push	 8
  00176	58		 pop	 eax
$LL101@LoadString@4:
  00177	8b c8		 mov	 ecx, eax
  00179	81 e1 03 00 00
	80		 and	 ecx, -2147483645	; 80000003H
  0017f	79 05		 jns	 SHORT $LN112@LoadString@4
  00181	49		 dec	 ecx
  00182	83 c9 fc	 or	 ecx, -4			; fffffffcH
  00185	41		 inc	 ecx
$LN112@LoadString@4:
  00186	b2 ed		 mov	 dl, -19			; ffffffedH
  00188	2a d1		 sub	 dl, cl
  0018a	30 54 05 ec	 xor	 BYTE PTR __k$[ebp+eax], dl
  0018e	40		 inc	 eax
  0018f	83 f8 0b	 cmp	 eax, 11			; 0000000bH
  00192	7c e3		 jl	 SHORT $LL101@LoadString@4

; 163  : 		LoadString(_k, d, b, i);

  00194	ff 75 14	 push	 DWORD PTR _i$[ebp]
  00197	8b 4d e8	 mov	 ecx, DWORD PTR _this$GSCopy$[ebp]
  0019a	57		 push	 edi
  0019b	56		 push	 esi
  0019c	8d 45 ec	 lea	 eax, DWORD PTR __k$[ebp]
  0019f	50		 push	 eax
  001a0	ff 15 00 00 00
	00		 call	 DWORD PTR __imp_?LoadStringA@ioINILoader@@QAEXPBD0PADH@Z

; 164  : 	}

  001a6	8b 4d fc	 mov	 ecx, DWORD PTR __$ArrayPad$[ebp]
  001a9	5f		 pop	 edi
  001aa	33 cd		 xor	 ecx, ebp
  001ac	5e		 pop	 esi
  001ad	e8 00 00 00 00	 call	 @__security_check_cookie@4
  001b2	c9		 leave
  001b3	c2 10 00	 ret	 16			; 00000010H
??$LoadString_e@$0M@@ioINILoader@@QAEXAAY0M@$$CBDAAY00$$CBDPADH@Z ENDP ; ioINILoader::LoadString_e<12>
_TEXT	ENDS
PUBLIC	_this$GSCopy$
PUBLIC	__$ArrayPad$
PUBLIC	??$LoadString_e@$0BC@@ioINILoader@@QAEXAAY0BC@$$CBDAAY00$$CBDPADH@Z ; ioINILoader::LoadString_e<18>
; Function compile flags: /Ogsp
;	COMDAT ??$LoadString_e@$0BC@@ioINILoader@@QAEXAAY0BC@$$CBDAAY00$$CBDPADH@Z
_TEXT	SEGMENT
_this$GSCopy$ = -32					; size = 4
__k$ = -28						; size = 18
__$ArrayPad$ = -4					; size = 4
_k$ = 8							; size = 4
_d$ = 12						; size = 4
_b$ = 16						; size = 4
_i$ = 20						; size = 4
??$LoadString_e@$0BC@@ioINILoader@@QAEXAAY0BC@$$CBDAAY00$$CBDPADH@Z PROC ; ioINILoader::LoadString_e<18>, COMDAT
; _this$ = ecx

; 161  : 	{

  00000	55		 push	 ebp
  00001	8b ec		 mov	 ebp, esp
  00003	83 ec 20	 sub	 esp, 32			; 00000020H
  00006	a1 00 00 00 00	 mov	 eax, DWORD PTR ___security_cookie
  0000b	33 c5		 xor	 eax, ebp
  0000d	89 45 fc	 mov	 DWORD PTR __$ArrayPad$[ebp], eax
  00010	8b 45 08	 mov	 eax, DWORD PTR _k$[ebp]

; 162  : 		_ENCSTR(k, _k);

  00013	8a 10		 mov	 dl, BYTE PTR [eax]
  00015	56		 push	 esi
  00016	8b 75 0c	 mov	 esi, DWORD PTR _d$[ebp]
  00019	57		 push	 edi
  0001a	8b 7d 10	 mov	 edi, DWORD PTR _b$[ebp]
  0001d	89 4d e0	 mov	 DWORD PTR _this$GSCopy$[ebp], ecx
  00020	84 d2		 test	 dl, dl
  00022	0f 84 be 01 00
	00		 je	 $LN96@LoadString@5
  00028	80 f2 ed	 xor	 dl, -19			; ffffffedH
  0002b	88 55 e4	 mov	 BYTE PTR __k$[ebp], dl
  0002e	8a 50 01	 mov	 dl, BYTE PTR [eax+1]
  00031	84 d2		 test	 dl, dl
  00033	0f 84 a7 01 00
	00		 je	 $LN95@LoadString@5
  00039	80 f2 ec	 xor	 dl, -20			; ffffffecH
  0003c	88 55 e5	 mov	 BYTE PTR __k$[ebp+1], dl
  0003f	8a 50 02	 mov	 dl, BYTE PTR [eax+2]
  00042	84 d2		 test	 dl, dl
  00044	0f 84 90 01 00
	00		 je	 $LN94@LoadString@5
  0004a	b1 eb		 mov	 cl, -21			; ffffffebH
  0004c	32 d1		 xor	 dl, cl
  0004e	88 55 e6	 mov	 BYTE PTR __k$[ebp+2], dl
  00051	8a 50 03	 mov	 dl, BYTE PTR [eax+3]
  00054	84 d2		 test	 dl, dl
  00056	0f 84 78 01 00
	00		 je	 $LN93@LoadString@5
  0005c	80 f2 ea	 xor	 dl, -22			; ffffffeaH
  0005f	88 55 e7	 mov	 BYTE PTR __k$[ebp+3], dl
  00062	8a 50 04	 mov	 dl, BYTE PTR [eax+4]
  00065	84 d2		 test	 dl, dl
  00067	0f 84 61 01 00
	00		 je	 $LN92@LoadString@5
  0006d	80 f2 ed	 xor	 dl, -19			; ffffffedH
  00070	88 55 e8	 mov	 BYTE PTR __k$[ebp+4], dl
  00073	8a 50 05	 mov	 dl, BYTE PTR [eax+5]
  00076	84 d2		 test	 dl, dl
  00078	0f 84 4a 01 00
	00		 je	 $LN91@LoadString@5
  0007e	80 f2 ec	 xor	 dl, -20			; ffffffecH
  00081	88 55 e9	 mov	 BYTE PTR __k$[ebp+5], dl
  00084	8a 50 06	 mov	 dl, BYTE PTR [eax+6]
  00087	84 d2		 test	 dl, dl
  00089	0f 84 34 01 00
	00		 je	 $LN90@LoadString@5
  0008f	32 d1		 xor	 dl, cl
  00091	88 55 ea	 mov	 BYTE PTR __k$[ebp+6], dl
  00094	8a 50 07	 mov	 dl, BYTE PTR [eax+7]
  00097	84 d2		 test	 dl, dl
  00099	0f 84 1e 01 00
	00		 je	 $LN89@LoadString@5
  0009f	80 f2 ea	 xor	 dl, -22			; ffffffeaH
  000a2	88 55 eb	 mov	 BYTE PTR __k$[ebp+7], dl
  000a5	8a 50 08	 mov	 dl, BYTE PTR [eax+8]
  000a8	84 d2		 test	 dl, dl
  000aa	0f 84 07 01 00
	00		 je	 $LN88@LoadString@5
  000b0	80 f2 ed	 xor	 dl, -19			; ffffffedH
  000b3	88 55 ec	 mov	 BYTE PTR __k$[ebp+8], dl
  000b6	8a 50 09	 mov	 dl, BYTE PTR [eax+9]
  000b9	84 d2		 test	 dl, dl
  000bb	0f 84 f0 00 00
	00		 je	 $LN87@LoadString@5
  000c1	80 f2 ec	 xor	 dl, -20			; ffffffecH
  000c4	88 55 ed	 mov	 BYTE PTR __k$[ebp+9], dl
  000c7	8a 50 0a	 mov	 dl, BYTE PTR [eax+10]
  000ca	84 d2		 test	 dl, dl
  000cc	0f 84 da 00 00
	00		 je	 $LN86@LoadString@5
  000d2	32 d1		 xor	 dl, cl
  000d4	88 55 ee	 mov	 BYTE PTR __k$[ebp+10], dl
  000d7	8a 50 0b	 mov	 dl, BYTE PTR [eax+11]
  000da	84 d2		 test	 dl, dl
  000dc	0f 84 c4 00 00
	00		 je	 $LN85@LoadString@5
  000e2	80 f2 ea	 xor	 dl, -22			; ffffffeaH
  000e5	88 55 ef	 mov	 BYTE PTR __k$[ebp+11], dl
  000e8	8a 50 0c	 mov	 dl, BYTE PTR [eax+12]
  000eb	84 d2		 test	 dl, dl
  000ed	0f 84 ad 00 00
	00		 je	 $LN84@LoadString@5
  000f3	80 f2 ed	 xor	 dl, -19			; ffffffedH
  000f6	88 55 f0	 mov	 BYTE PTR __k$[ebp+12], dl
  000f9	8a 50 0d	 mov	 dl, BYTE PTR [eax+13]
  000fc	84 d2		 test	 dl, dl
  000fe	0f 84 96 00 00
	00		 je	 $LN83@LoadString@5
  00104	80 f2 ec	 xor	 dl, -20			; ffffffecH
  00107	88 55 f1	 mov	 BYTE PTR __k$[ebp+13], dl
  0010a	8a 50 0e	 mov	 dl, BYTE PTR [eax+14]
  0010d	84 d2		 test	 dl, dl
  0010f	0f 84 80 00 00
	00		 je	 $LN82@LoadString@5
  00115	32 d1		 xor	 dl, cl
  00117	88 55 f2	 mov	 BYTE PTR __k$[ebp+14], dl
  0011a	8a 50 0f	 mov	 dl, BYTE PTR [eax+15]
  0011d	84 d2		 test	 dl, dl
  0011f	74 6e		 je	 SHORT $LN81@LoadString@5
  00121	80 f2 ea	 xor	 dl, -22			; ffffffeaH
  00124	88 55 f3	 mov	 BYTE PTR __k$[ebp+15], dl
  00127	8a 50 10	 mov	 dl, BYTE PTR [eax+16]
  0012a	84 d2		 test	 dl, dl
  0012c	74 5b		 je	 SHORT $LN80@LoadString@5
  0012e	80 f2 ed	 xor	 dl, -19			; ffffffedH
  00131	80 78 11 00	 cmp	 BYTE PTR [eax+17], 0
  00135	88 55 f4	 mov	 BYTE PTR __k$[ebp+16], dl
  00138	0f 84 ac 00 00
	00		 je	 $LN111@LoadString@5
  0013e	8a 50 12	 mov	 dl, BYTE PTR [eax+18]
  00141	84 d2		 test	 dl, dl
  00143	74 3f		 je	 SHORT $LN78@LoadString@5
  00145	32 d1		 xor	 dl, cl
  00147	88 55 f6	 mov	 BYTE PTR __k$[ebp+18], dl
  0014a	8a 50 13	 mov	 dl, BYTE PTR [eax+19]
  0014d	84 d2		 test	 dl, dl
  0014f	74 2d		 je	 SHORT $LN77@LoadString@5
  00151	80 f2 ea	 xor	 dl, -22			; ffffffeaH
  00154	88 55 f7	 mov	 BYTE PTR __k$[ebp+19], dl
  00157	8a 50 14	 mov	 dl, BYTE PTR [eax+20]
  0015a	84 d2		 test	 dl, dl
  0015c	74 1a		 je	 SHORT $LN76@LoadString@5
  0015e	8a 40 15	 mov	 al, BYTE PTR [eax+21]
  00161	80 f2 ed	 xor	 dl, -19			; ffffffedH
  00164	88 55 f8	 mov	 BYTE PTR __k$[ebp+20], dl
  00167	84 c0		 test	 al, al
  00169	74 07		 je	 SHORT $LN75@LoadString@5
  0016b	34 ec		 xor	 al, -20			; ffffffecH
  0016d	88 45 f9	 mov	 BYTE PTR __k$[ebp+21], al
  00170	eb 78		 jmp	 SHORT $LN111@LoadString@5
$LN75@LoadString@5:
  00172	c6 45 f9 ec	 mov	 BYTE PTR __k$[ebp+21], -20 ; ffffffecH
  00176	eb 72		 jmp	 SHORT $LN111@LoadString@5
$LN76@LoadString@5:
  00178	c6 45 f8 ed	 mov	 BYTE PTR __k$[ebp+20], -19 ; ffffffedH
  0017c	eb 6c		 jmp	 SHORT $LN111@LoadString@5
$LN77@LoadString@5:
  0017e	c6 45 f7 ea	 mov	 BYTE PTR __k$[ebp+19], -22 ; ffffffeaH
  00182	eb 66		 jmp	 SHORT $LN111@LoadString@5
$LN78@LoadString@5:
  00184	88 4d f6	 mov	 BYTE PTR __k$[ebp+18], cl
  00187	eb 61		 jmp	 SHORT $LN111@LoadString@5
$LN80@LoadString@5:
  00189	c6 45 f4 ed	 mov	 BYTE PTR __k$[ebp+16], -19 ; ffffffedH
  0018d	eb 5b		 jmp	 SHORT $LN111@LoadString@5
$LN81@LoadString@5:
  0018f	c6 45 f3 ea	 mov	 BYTE PTR __k$[ebp+15], -22 ; ffffffeaH
  00193	eb 55		 jmp	 SHORT $LN111@LoadString@5
$LN82@LoadString@5:
  00195	88 4d f2	 mov	 BYTE PTR __k$[ebp+14], cl
  00198	eb 50		 jmp	 SHORT $LN111@LoadString@5
$LN83@LoadString@5:
  0019a	c6 45 f1 ec	 mov	 BYTE PTR __k$[ebp+13], -20 ; ffffffecH
  0019e	eb 4a		 jmp	 SHORT $LN111@LoadString@5
$LN84@LoadString@5:
  001a0	c6 45 f0 ed	 mov	 BYTE PTR __k$[ebp+12], -19 ; ffffffedH
  001a4	eb 44		 jmp	 SHORT $LN111@LoadString@5
$LN85@LoadString@5:
  001a6	c6 45 ef ea	 mov	 BYTE PTR __k$[ebp+11], -22 ; ffffffeaH
  001aa	eb 3e		 jmp	 SHORT $LN111@LoadString@5
$LN86@LoadString@5:
  001ac	88 4d ee	 mov	 BYTE PTR __k$[ebp+10], cl
  001af	eb 39		 jmp	 SHORT $LN111@LoadString@5
$LN87@LoadString@5:
  001b1	c6 45 ed ec	 mov	 BYTE PTR __k$[ebp+9], -20 ; ffffffecH
  001b5	eb 33		 jmp	 SHORT $LN111@LoadString@5
$LN88@LoadString@5:
  001b7	c6 45 ec ed	 mov	 BYTE PTR __k$[ebp+8], -19 ; ffffffedH
  001bb	eb 2d		 jmp	 SHORT $LN111@LoadString@5
$LN89@LoadString@5:
  001bd	c6 45 eb ea	 mov	 BYTE PTR __k$[ebp+7], -22 ; ffffffeaH
  001c1	eb 27		 jmp	 SHORT $LN111@LoadString@5
$LN90@LoadString@5:
  001c3	88 4d ea	 mov	 BYTE PTR __k$[ebp+6], cl
  001c6	eb 22		 jmp	 SHORT $LN111@LoadString@5
$LN91@LoadString@5:
  001c8	c6 45 e9 ec	 mov	 BYTE PTR __k$[ebp+5], -20 ; ffffffecH
  001cc	eb 1c		 jmp	 SHORT $LN111@LoadString@5
$LN92@LoadString@5:
  001ce	c6 45 e8 ed	 mov	 BYTE PTR __k$[ebp+4], -19 ; ffffffedH
  001d2	eb 16		 jmp	 SHORT $LN111@LoadString@5
$LN93@LoadString@5:
  001d4	c6 45 e7 ea	 mov	 BYTE PTR __k$[ebp+3], -22 ; ffffffeaH
  001d8	eb 10		 jmp	 SHORT $LN111@LoadString@5
$LN94@LoadString@5:
  001da	c6 45 e6 eb	 mov	 BYTE PTR __k$[ebp+2], -21 ; ffffffebH
  001de	eb 0a		 jmp	 SHORT $LN111@LoadString@5
$LN95@LoadString@5:
  001e0	c6 45 e5 ec	 mov	 BYTE PTR __k$[ebp+1], -20 ; ffffffecH
  001e4	eb 04		 jmp	 SHORT $LN111@LoadString@5
$LN96@LoadString@5:
  001e6	c6 45 e4 ed	 mov	 BYTE PTR __k$[ebp], -19	; ffffffedH
$LN111@LoadString@5:
  001ea	6a 04		 push	 4
  001ec	8d 45 e4	 lea	 eax, DWORD PTR __k$[ebp]
  001ef	c6 45 f5 00	 mov	 BYTE PTR __k$[ebp+17], 0
  001f3	5a		 pop	 edx
$LL104@LoadString@5:
  001f4	81 30 ed ec eb
	ea		 xor	 DWORD PTR [eax], -353637139 ; eaebecedH
  001fa	83 c0 04	 add	 eax, 4
  001fd	4a		 dec	 edx
  001fe	75 f4		 jne	 SHORT $LL104@LoadString@5

; 163  : 		LoadString(_k, d, b, i);

  00200	ff 75 14	 push	 DWORD PTR _i$[ebp]
  00203	8b 4d e0	 mov	 ecx, DWORD PTR _this$GSCopy$[ebp]
  00206	80 75 f4 ed	 xor	 BYTE PTR __k$[ebp+16], -19 ; ffffffedH
  0020a	57		 push	 edi
  0020b	56		 push	 esi
  0020c	8d 45 e4	 lea	 eax, DWORD PTR __k$[ebp]
  0020f	50		 push	 eax
  00210	ff 15 00 00 00
	00		 call	 DWORD PTR __imp_?LoadStringA@ioINILoader@@QAEXPBD0PADH@Z

; 164  : 	}

  00216	8b 4d fc	 mov	 ecx, DWORD PTR __$ArrayPad$[ebp]
  00219	5f		 pop	 edi
  0021a	33 cd		 xor	 ecx, ebp
  0021c	5e		 pop	 esi
  0021d	e8 00 00 00 00	 call	 @__security_check_cookie@4
  00222	c9		 leave
  00223	c2 10 00	 ret	 16			; 00000010H
??$LoadString_e@$0BC@@ioINILoader@@QAEXAAY0BC@$$CBDAAY00$$CBDPADH@Z ENDP ; ioINILoader::LoadString_e<18>
_TEXT	ENDS
PUBLIC	__$ArrayPad$
PUBLIC	??$LoadFloat_e@$0BD@@ioINILoader@@QAEMAAY0BD@$$CBDM@Z ; ioINILoader::LoadFloat_e<19>
; Function compile flags: /Ogsp
;	COMDAT ??$LoadFloat_e@$0BD@@ioINILoader@@QAEMAAY0BD@$$CBDM@Z
_TEXT	SEGMENT
__k$ = -28						; size = 19
__$ArrayPad$ = -4					; size = 4
_k$ = 8							; size = 4
_f$ = 12						; size = 4
??$LoadFloat_e@$0BD@@ioINILoader@@QAEMAAY0BD@$$CBDM@Z PROC ; ioINILoader::LoadFloat_e<19>, COMDAT
; _this$ = ecx

; 135  : 	{

  00000	55		 push	 ebp
  00001	8b ec		 mov	 ebp, esp
  00003	83 ec 1c	 sub	 esp, 28			; 0000001cH
  00006	a1 00 00 00 00	 mov	 eax, DWORD PTR ___security_cookie
  0000b	33 c5		 xor	 eax, ebp
  0000d	89 45 fc	 mov	 DWORD PTR __$ArrayPad$[ebp], eax
  00010	8b 45 08	 mov	 eax, DWORD PTR _k$[ebp]

; 136  : 		_ENCSTR(k, _k);

  00013	8a 10		 mov	 dl, BYTE PTR [eax]
  00015	56		 push	 esi
  00016	8b f1		 mov	 esi, ecx
  00018	84 d2		 test	 dl, dl
  0001a	0f 84 cf 01 00
	00		 je	 $LN96@LoadFloat_@4
  00020	80 f2 ed	 xor	 dl, -19			; ffffffedH
  00023	88 55 e4	 mov	 BYTE PTR __k$[ebp], dl
  00026	8a 50 01	 mov	 dl, BYTE PTR [eax+1]
  00029	84 d2		 test	 dl, dl
  0002b	0f 84 b8 01 00
	00		 je	 $LN95@LoadFloat_@4
  00031	b1 ec		 mov	 cl, -20			; ffffffecH
  00033	32 d1		 xor	 dl, cl
  00035	88 55 e5	 mov	 BYTE PTR __k$[ebp+1], dl
  00038	8a 50 02	 mov	 dl, BYTE PTR [eax+2]
  0003b	84 d2		 test	 dl, dl
  0003d	0f 84 a0 01 00
	00		 je	 $LN94@LoadFloat_@4
  00043	80 f2 eb	 xor	 dl, -21			; ffffffebH
  00046	88 55 e6	 mov	 BYTE PTR __k$[ebp+2], dl
  00049	8a 50 03	 mov	 dl, BYTE PTR [eax+3]
  0004c	84 d2		 test	 dl, dl
  0004e	0f 84 89 01 00
	00		 je	 $LN93@LoadFloat_@4
  00054	80 f2 ea	 xor	 dl, -22			; ffffffeaH
  00057	88 55 e7	 mov	 BYTE PTR __k$[ebp+3], dl
  0005a	8a 50 04	 mov	 dl, BYTE PTR [eax+4]
  0005d	84 d2		 test	 dl, dl
  0005f	0f 84 72 01 00
	00		 je	 $LN92@LoadFloat_@4
  00065	80 f2 ed	 xor	 dl, -19			; ffffffedH
  00068	88 55 e8	 mov	 BYTE PTR __k$[ebp+4], dl
  0006b	8a 50 05	 mov	 dl, BYTE PTR [eax+5]
  0006e	84 d2		 test	 dl, dl
  00070	0f 84 5c 01 00
	00		 je	 $LN91@LoadFloat_@4
  00076	32 d1		 xor	 dl, cl
  00078	88 55 e9	 mov	 BYTE PTR __k$[ebp+5], dl
  0007b	8a 50 06	 mov	 dl, BYTE PTR [eax+6]
  0007e	84 d2		 test	 dl, dl
  00080	0f 84 46 01 00
	00		 je	 $LN90@LoadFloat_@4
  00086	80 f2 eb	 xor	 dl, -21			; ffffffebH
  00089	88 55 ea	 mov	 BYTE PTR __k$[ebp+6], dl
  0008c	8a 50 07	 mov	 dl, BYTE PTR [eax+7]
  0008f	84 d2		 test	 dl, dl
  00091	0f 84 2f 01 00
	00		 je	 $LN89@LoadFloat_@4
  00097	80 f2 ea	 xor	 dl, -22			; ffffffeaH
  0009a	88 55 eb	 mov	 BYTE PTR __k$[ebp+7], dl
  0009d	8a 50 08	 mov	 dl, BYTE PTR [eax+8]
  000a0	84 d2		 test	 dl, dl
  000a2	0f 84 18 01 00
	00		 je	 $LN88@LoadFloat_@4
  000a8	80 f2 ed	 xor	 dl, -19			; ffffffedH
  000ab	88 55 ec	 mov	 BYTE PTR __k$[ebp+8], dl
  000ae	8a 50 09	 mov	 dl, BYTE PTR [eax+9]
  000b1	84 d2		 test	 dl, dl
  000b3	0f 84 02 01 00
	00		 je	 $LN87@LoadFloat_@4
  000b9	32 d1		 xor	 dl, cl
  000bb	88 55 ed	 mov	 BYTE PTR __k$[ebp+9], dl
  000be	8a 50 0a	 mov	 dl, BYTE PTR [eax+10]
  000c1	84 d2		 test	 dl, dl
  000c3	0f 84 ec 00 00
	00		 je	 $LN86@LoadFloat_@4
  000c9	80 f2 eb	 xor	 dl, -21			; ffffffebH
  000cc	88 55 ee	 mov	 BYTE PTR __k$[ebp+10], dl
  000cf	8a 50 0b	 mov	 dl, BYTE PTR [eax+11]
  000d2	84 d2		 test	 dl, dl
  000d4	0f 84 d5 00 00
	00		 je	 $LN85@LoadFloat_@4
  000da	80 f2 ea	 xor	 dl, -22			; ffffffeaH
  000dd	88 55 ef	 mov	 BYTE PTR __k$[ebp+11], dl
  000e0	8a 50 0c	 mov	 dl, BYTE PTR [eax+12]
  000e3	84 d2		 test	 dl, dl
  000e5	0f 84 be 00 00
	00		 je	 $LN84@LoadFloat_@4
  000eb	80 f2 ed	 xor	 dl, -19			; ffffffedH
  000ee	88 55 f0	 mov	 BYTE PTR __k$[ebp+12], dl
  000f1	8a 50 0d	 mov	 dl, BYTE PTR [eax+13]
  000f4	84 d2		 test	 dl, dl
  000f6	0f 84 a8 00 00
	00		 je	 $LN83@LoadFloat_@4
  000fc	32 d1		 xor	 dl, cl
  000fe	88 55 f1	 mov	 BYTE PTR __k$[ebp+13], dl
  00101	8a 50 0e	 mov	 dl, BYTE PTR [eax+14]
  00104	84 d2		 test	 dl, dl
  00106	0f 84 92 00 00
	00		 je	 $LN82@LoadFloat_@4
  0010c	80 f2 eb	 xor	 dl, -21			; ffffffebH
  0010f	88 55 f2	 mov	 BYTE PTR __k$[ebp+14], dl
  00112	8a 50 0f	 mov	 dl, BYTE PTR [eax+15]
  00115	84 d2		 test	 dl, dl
  00117	74 7f		 je	 SHORT $LN81@LoadFloat_@4
  00119	80 f2 ea	 xor	 dl, -22			; ffffffeaH
  0011c	88 55 f3	 mov	 BYTE PTR __k$[ebp+15], dl
  0011f	8a 50 10	 mov	 dl, BYTE PTR [eax+16]
  00122	84 d2		 test	 dl, dl
  00124	74 6c		 je	 SHORT $LN80@LoadFloat_@4
  00126	80 f2 ed	 xor	 dl, -19			; ffffffedH
  00129	88 55 f4	 mov	 BYTE PTR __k$[ebp+16], dl
  0012c	8a 50 11	 mov	 dl, BYTE PTR [eax+17]
  0012f	84 d2		 test	 dl, dl
  00131	74 5a		 je	 SHORT $LN79@LoadFloat_@4
  00133	32 d1		 xor	 dl, cl
  00135	80 78 12 00	 cmp	 BYTE PTR [eax+18], 0
  00139	88 55 f5	 mov	 BYTE PTR __k$[ebp+17], dl
  0013c	0f 84 b1 00 00
	00		 je	 $LN1@LoadFloat_@4
  00142	8a 50 13	 mov	 dl, BYTE PTR [eax+19]
  00145	84 d2		 test	 dl, dl
  00147	74 3e		 je	 SHORT $LN77@LoadFloat_@4
  00149	80 f2 ea	 xor	 dl, -22			; ffffffeaH
  0014c	88 55 f7	 mov	 BYTE PTR __k$[ebp+19], dl
  0014f	8a 50 14	 mov	 dl, BYTE PTR [eax+20]
  00152	84 d2		 test	 dl, dl
  00154	74 2b		 je	 SHORT $LN76@LoadFloat_@4
  00156	80 f2 ed	 xor	 dl, -19			; ffffffedH
  00159	88 55 f8	 mov	 BYTE PTR __k$[ebp+20], dl
  0015c	8a 50 15	 mov	 dl, BYTE PTR [eax+21]
  0015f	84 d2		 test	 dl, dl
  00161	74 19		 je	 SHORT $LN75@LoadFloat_@4
  00163	8a 40 16	 mov	 al, BYTE PTR [eax+22]
  00166	32 d1		 xor	 dl, cl
  00168	88 55 f9	 mov	 BYTE PTR __k$[ebp+21], dl
  0016b	84 c0		 test	 al, al
  0016d	74 07		 je	 SHORT $LN74@LoadFloat_@4
  0016f	34 eb		 xor	 al, -21			; ffffffebH
  00171	88 45 fa	 mov	 BYTE PTR __k$[ebp+22], al
  00174	eb 7d		 jmp	 SHORT $LN1@LoadFloat_@4
$LN74@LoadFloat_@4:
  00176	c6 45 fa eb	 mov	 BYTE PTR __k$[ebp+22], -21 ; ffffffebH
  0017a	eb 77		 jmp	 SHORT $LN1@LoadFloat_@4
$LN75@LoadFloat_@4:
  0017c	88 4d f9	 mov	 BYTE PTR __k$[ebp+21], cl
  0017f	eb 72		 jmp	 SHORT $LN1@LoadFloat_@4
$LN76@LoadFloat_@4:
  00181	c6 45 f8 ed	 mov	 BYTE PTR __k$[ebp+20], -19 ; ffffffedH
  00185	eb 6c		 jmp	 SHORT $LN1@LoadFloat_@4
$LN77@LoadFloat_@4:
  00187	c6 45 f7 ea	 mov	 BYTE PTR __k$[ebp+19], -22 ; ffffffeaH
  0018b	eb 66		 jmp	 SHORT $LN1@LoadFloat_@4
$LN79@LoadFloat_@4:
  0018d	88 4d f5	 mov	 BYTE PTR __k$[ebp+17], cl
  00190	eb 61		 jmp	 SHORT $LN1@LoadFloat_@4
$LN80@LoadFloat_@4:
  00192	c6 45 f4 ed	 mov	 BYTE PTR __k$[ebp+16], -19 ; ffffffedH
  00196	eb 5b		 jmp	 SHORT $LN1@LoadFloat_@4
$LN81@LoadFloat_@4:
  00198	c6 45 f3 ea	 mov	 BYTE PTR __k$[ebp+15], -22 ; ffffffeaH
  0019c	eb 55		 jmp	 SHORT $LN1@LoadFloat_@4
$LN82@LoadFloat_@4:
  0019e	c6 45 f2 eb	 mov	 BYTE PTR __k$[ebp+14], -21 ; ffffffebH
  001a2	eb 4f		 jmp	 SHORT $LN1@LoadFloat_@4
$LN83@LoadFloat_@4:
  001a4	88 4d f1	 mov	 BYTE PTR __k$[ebp+13], cl
  001a7	eb 4a		 jmp	 SHORT $LN1@LoadFloat_@4
$LN84@LoadFloat_@4:
  001a9	c6 45 f0 ed	 mov	 BYTE PTR __k$[ebp+12], -19 ; ffffffedH
  001ad	eb 44		 jmp	 SHORT $LN1@LoadFloat_@4
$LN85@LoadFloat_@4:
  001af	c6 45 ef ea	 mov	 BYTE PTR __k$[ebp+11], -22 ; ffffffeaH
  001b3	eb 3e		 jmp	 SHORT $LN1@LoadFloat_@4
$LN86@LoadFloat_@4:
  001b5	c6 45 ee eb	 mov	 BYTE PTR __k$[ebp+10], -21 ; ffffffebH
  001b9	eb 38		 jmp	 SHORT $LN1@LoadFloat_@4
$LN87@LoadFloat_@4:
  001bb	88 4d ed	 mov	 BYTE PTR __k$[ebp+9], cl
  001be	eb 33		 jmp	 SHORT $LN1@LoadFloat_@4
$LN88@LoadFloat_@4:
  001c0	c6 45 ec ed	 mov	 BYTE PTR __k$[ebp+8], -19 ; ffffffedH
  001c4	eb 2d		 jmp	 SHORT $LN1@LoadFloat_@4
$LN89@LoadFloat_@4:
  001c6	c6 45 eb ea	 mov	 BYTE PTR __k$[ebp+7], -22 ; ffffffeaH
  001ca	eb 27		 jmp	 SHORT $LN1@LoadFloat_@4
$LN90@LoadFloat_@4:
  001cc	c6 45 ea eb	 mov	 BYTE PTR __k$[ebp+6], -21 ; ffffffebH
  001d0	eb 21		 jmp	 SHORT $LN1@LoadFloat_@4
$LN91@LoadFloat_@4:
  001d2	88 4d e9	 mov	 BYTE PTR __k$[ebp+5], cl
  001d5	eb 1c		 jmp	 SHORT $LN1@LoadFloat_@4
$LN92@LoadFloat_@4:
  001d7	c6 45 e8 ed	 mov	 BYTE PTR __k$[ebp+4], -19 ; ffffffedH
  001db	eb 16		 jmp	 SHORT $LN1@LoadFloat_@4
$LN93@LoadFloat_@4:
  001dd	c6 45 e7 ea	 mov	 BYTE PTR __k$[ebp+3], -22 ; ffffffeaH
  001e1	eb 10		 jmp	 SHORT $LN1@LoadFloat_@4
$LN94@LoadFloat_@4:
  001e3	c6 45 e6 eb	 mov	 BYTE PTR __k$[ebp+2], -21 ; ffffffebH
  001e7	eb 0a		 jmp	 SHORT $LN1@LoadFloat_@4
$LN95@LoadFloat_@4:
  001e9	c6 45 e5 ec	 mov	 BYTE PTR __k$[ebp+1], -20 ; ffffffecH
  001ed	eb 04		 jmp	 SHORT $LN1@LoadFloat_@4
$LN96@LoadFloat_@4:
  001ef	c6 45 e4 ed	 mov	 BYTE PTR __k$[ebp], -19	; ffffffedH
$LN1@LoadFloat_@4:
  001f3	6a 04		 push	 4
  001f5	8d 45 e4	 lea	 eax, DWORD PTR __k$[ebp]
  001f8	c6 45 f6 00	 mov	 BYTE PTR __k$[ebp+18], 0
  001fc	5a		 pop	 edx
$LL104@LoadFloat_@4:
  001fd	81 30 ed ec eb
	ea		 xor	 DWORD PTR [eax], -353637139 ; eaebecedH
  00203	83 c0 04	 add	 eax, 4
  00206	4a		 dec	 edx
  00207	75 f4		 jne	 SHORT $LL104@LoadFloat_@4
  00209	6a 10		 push	 16			; 00000010H
  0020b	58		 pop	 eax
$LL101@LoadFloat_@4:
  0020c	8b c8		 mov	 ecx, eax
  0020e	81 e1 03 00 00
	80		 and	 ecx, -2147483645	; 80000003H
  00214	79 05		 jns	 SHORT $LN111@LoadFloat_@4
  00216	49		 dec	 ecx
  00217	83 c9 fc	 or	 ecx, -4			; fffffffcH
  0021a	41		 inc	 ecx
$LN111@LoadFloat_@4:
  0021b	b2 ed		 mov	 dl, -19			; ffffffedH
  0021d	2a d1		 sub	 dl, cl
  0021f	30 54 05 e4	 xor	 BYTE PTR __k$[ebp+eax], dl
  00223	40		 inc	 eax
  00224	83 f8 12	 cmp	 eax, 18			; 00000012H
  00227	7c e3		 jl	 SHORT $LL101@LoadFloat_@4

; 137  : 		return LoadFloat(_k, f);

  00229	f3 0f 10 45 0c	 movss	 xmm0, DWORD PTR _f$[ebp]
  0022e	51		 push	 ecx
  0022f	8d 45 e4	 lea	 eax, DWORD PTR __k$[ebp]
  00232	f3 0f 11 04 24	 movss	 DWORD PTR [esp], xmm0
  00237	50		 push	 eax
  00238	8b ce		 mov	 ecx, esi
  0023a	ff 15 00 00 00
	00		 call	 DWORD PTR __imp_?LoadFloat@ioINILoader@@QAEMPBDM@Z

; 138  : 	}

  00240	8b 4d fc	 mov	 ecx, DWORD PTR __$ArrayPad$[ebp]
  00243	33 cd		 xor	 ecx, ebp
  00245	5e		 pop	 esi
  00246	e8 00 00 00 00	 call	 @__security_check_cookie@4
  0024b	c9		 leave
  0024c	c2 08 00	 ret	 8
??$LoadFloat_e@$0BD@@ioINILoader@@QAEMAAY0BD@$$CBDM@Z ENDP ; ioINILoader::LoadFloat_e<19>
_TEXT	ENDS
PUBLIC	__$ArrayPad$
PUBLIC	??$LoadFloat_e@$0L@@ioINILoader@@QAEMAAY0L@$$CBDM@Z ; ioINILoader::LoadFloat_e<11>
; Function compile flags: /Ogsp
;	COMDAT ??$LoadFloat_e@$0L@@ioINILoader@@QAEMAAY0L@$$CBDM@Z
_TEXT	SEGMENT
__k$ = -20						; size = 11
__$ArrayPad$ = -4					; size = 4
_k$ = 8							; size = 4
_f$ = 12						; size = 4
??$LoadFloat_e@$0L@@ioINILoader@@QAEMAAY0L@$$CBDM@Z PROC ; ioINILoader::LoadFloat_e<11>, COMDAT
; _this$ = ecx

; 135  : 	{

  00000	55		 push	 ebp
  00001	8b ec		 mov	 ebp, esp
  00003	83 ec 14	 sub	 esp, 20			; 00000014H
  00006	a1 00 00 00 00	 mov	 eax, DWORD PTR ___security_cookie
  0000b	33 c5		 xor	 eax, ebp
  0000d	89 45 fc	 mov	 DWORD PTR __$ArrayPad$[ebp], eax
  00010	8b 45 08	 mov	 eax, DWORD PTR _k$[ebp]

; 136  : 		_ENCSTR(k, _k);

  00013	8a 10		 mov	 dl, BYTE PTR [eax]
  00015	56		 push	 esi
  00016	8b f1		 mov	 esi, ecx
  00018	84 d2		 test	 dl, dl
  0001a	0f 84 24 01 00
	00		 je	 $LN96@LoadFloat_@5
  00020	80 f2 ed	 xor	 dl, -19			; ffffffedH
  00023	88 55 ec	 mov	 BYTE PTR __k$[ebp], dl
  00026	8a 50 01	 mov	 dl, BYTE PTR [eax+1]
  00029	84 d2		 test	 dl, dl
  0002b	0f 84 0d 01 00
	00		 je	 $LN95@LoadFloat_@5
  00031	80 f2 ec	 xor	 dl, -20			; ffffffecH
  00034	88 55 ed	 mov	 BYTE PTR __k$[ebp+1], dl
  00037	8a 50 02	 mov	 dl, BYTE PTR [eax+2]
  0003a	84 d2		 test	 dl, dl
  0003c	0f 84 f6 00 00
	00		 je	 $LN94@LoadFloat_@5
  00042	80 f2 eb	 xor	 dl, -21			; ffffffebH
  00045	88 55 ee	 mov	 BYTE PTR __k$[ebp+2], dl
  00048	8a 50 03	 mov	 dl, BYTE PTR [eax+3]
  0004b	84 d2		 test	 dl, dl
  0004d	0f 84 df 00 00
	00		 je	 $LN93@LoadFloat_@5
  00053	80 f2 ea	 xor	 dl, -22			; ffffffeaH
  00056	88 55 ef	 mov	 BYTE PTR __k$[ebp+3], dl
  00059	8a 50 04	 mov	 dl, BYTE PTR [eax+4]
  0005c	84 d2		 test	 dl, dl
  0005e	0f 84 c8 00 00
	00		 je	 $LN92@LoadFloat_@5
  00064	80 f2 ed	 xor	 dl, -19			; ffffffedH
  00067	88 55 f0	 mov	 BYTE PTR __k$[ebp+4], dl
  0006a	8a 50 05	 mov	 dl, BYTE PTR [eax+5]
  0006d	84 d2		 test	 dl, dl
  0006f	0f 84 b1 00 00
	00		 je	 $LN91@LoadFloat_@5
  00075	80 f2 ec	 xor	 dl, -20			; ffffffecH
  00078	88 55 f1	 mov	 BYTE PTR __k$[ebp+5], dl
  0007b	8a 50 06	 mov	 dl, BYTE PTR [eax+6]
  0007e	84 d2		 test	 dl, dl
  00080	0f 84 9a 00 00
	00		 je	 $LN90@LoadFloat_@5
  00086	80 f2 eb	 xor	 dl, -21			; ffffffebH
  00089	88 55 f2	 mov	 BYTE PTR __k$[ebp+6], dl
  0008c	8a 50 07	 mov	 dl, BYTE PTR [eax+7]
  0008f	84 d2		 test	 dl, dl
  00091	0f 84 83 00 00
	00		 je	 $LN89@LoadFloat_@5
  00097	80 f2 ea	 xor	 dl, -22			; ffffffeaH
  0009a	88 55 f3	 mov	 BYTE PTR __k$[ebp+7], dl
  0009d	8a 50 08	 mov	 dl, BYTE PTR [eax+8]
  000a0	84 d2		 test	 dl, dl
  000a2	74 70		 je	 SHORT $LN88@LoadFloat_@5
  000a4	80 f2 ed	 xor	 dl, -19			; ffffffedH
  000a7	88 55 f4	 mov	 BYTE PTR __k$[ebp+8], dl
  000aa	8a 50 09	 mov	 dl, BYTE PTR [eax+9]
  000ad	84 d2		 test	 dl, dl
  000af	74 5d		 je	 SHORT $LN87@LoadFloat_@5
  000b1	80 f2 ec	 xor	 dl, -20			; ffffffecH
  000b4	80 78 0a 00	 cmp	 BYTE PTR [eax+10], 0
  000b8	88 55 f5	 mov	 BYTE PTR __k$[ebp+9], dl
  000bb	0f 84 87 00 00
	00		 je	 $LN1@LoadFloat_@5
  000c1	8a 50 0b	 mov	 dl, BYTE PTR [eax+11]
  000c4	84 d2		 test	 dl, dl
  000c6	74 40		 je	 SHORT $LN85@LoadFloat_@5
  000c8	80 f2 ea	 xor	 dl, -22			; ffffffeaH
  000cb	88 55 f7	 mov	 BYTE PTR __k$[ebp+11], dl
  000ce	8a 50 0c	 mov	 dl, BYTE PTR [eax+12]
  000d1	84 d2		 test	 dl, dl
  000d3	74 2d		 je	 SHORT $LN84@LoadFloat_@5
  000d5	80 f2 ed	 xor	 dl, -19			; ffffffedH
  000d8	88 55 f8	 mov	 BYTE PTR __k$[ebp+12], dl
  000db	8a 50 0d	 mov	 dl, BYTE PTR [eax+13]
  000de	84 d2		 test	 dl, dl
  000e0	74 1a		 je	 SHORT $LN83@LoadFloat_@5
  000e2	8a 40 0e	 mov	 al, BYTE PTR [eax+14]
  000e5	80 f2 ec	 xor	 dl, -20			; ffffffecH
  000e8	88 55 f9	 mov	 BYTE PTR __k$[ebp+13], dl
  000eb	84 c0		 test	 al, al
  000ed	74 07		 je	 SHORT $LN82@LoadFloat_@5
  000ef	34 eb		 xor	 al, -21			; ffffffebH
  000f1	88 45 fa	 mov	 BYTE PTR __k$[ebp+14], al
  000f4	eb 52		 jmp	 SHORT $LN1@LoadFloat_@5
$LN82@LoadFloat_@5:
  000f6	c6 45 fa eb	 mov	 BYTE PTR __k$[ebp+14], -21 ; ffffffebH
  000fa	eb 4c		 jmp	 SHORT $LN1@LoadFloat_@5
$LN83@LoadFloat_@5:
  000fc	c6 45 f9 ec	 mov	 BYTE PTR __k$[ebp+13], -20 ; ffffffecH
  00100	eb 46		 jmp	 SHORT $LN1@LoadFloat_@5
$LN84@LoadFloat_@5:
  00102	c6 45 f8 ed	 mov	 BYTE PTR __k$[ebp+12], -19 ; ffffffedH
  00106	eb 40		 jmp	 SHORT $LN1@LoadFloat_@5
$LN85@LoadFloat_@5:
  00108	c6 45 f7 ea	 mov	 BYTE PTR __k$[ebp+11], -22 ; ffffffeaH
  0010c	eb 3a		 jmp	 SHORT $LN1@LoadFloat_@5
$LN87@LoadFloat_@5:
  0010e	c6 45 f5 ec	 mov	 BYTE PTR __k$[ebp+9], -20 ; ffffffecH
  00112	eb 34		 jmp	 SHORT $LN1@LoadFloat_@5
$LN88@LoadFloat_@5:
  00114	c6 45 f4 ed	 mov	 BYTE PTR __k$[ebp+8], -19 ; ffffffedH
  00118	eb 2e		 jmp	 SHORT $LN1@LoadFloat_@5
$LN89@LoadFloat_@5:
  0011a	c6 45 f3 ea	 mov	 BYTE PTR __k$[ebp+7], -22 ; ffffffeaH
  0011e	eb 28		 jmp	 SHORT $LN1@LoadFloat_@5
$LN90@LoadFloat_@5:
  00120	c6 45 f2 eb	 mov	 BYTE PTR __k$[ebp+6], -21 ; ffffffebH
  00124	eb 22		 jmp	 SHORT $LN1@LoadFloat_@5
$LN91@LoadFloat_@5:
  00126	c6 45 f1 ec	 mov	 BYTE PTR __k$[ebp+5], -20 ; ffffffecH
  0012a	eb 1c		 jmp	 SHORT $LN1@LoadFloat_@5
$LN92@LoadFloat_@5:
  0012c	c6 45 f0 ed	 mov	 BYTE PTR __k$[ebp+4], -19 ; ffffffedH
  00130	eb 16		 jmp	 SHORT $LN1@LoadFloat_@5
$LN93@LoadFloat_@5:
  00132	c6 45 ef ea	 mov	 BYTE PTR __k$[ebp+3], -22 ; ffffffeaH
  00136	eb 10		 jmp	 SHORT $LN1@LoadFloat_@5
$LN94@LoadFloat_@5:
  00138	c6 45 ee eb	 mov	 BYTE PTR __k$[ebp+2], -21 ; ffffffebH
  0013c	eb 0a		 jmp	 SHORT $LN1@LoadFloat_@5
$LN95@LoadFloat_@5:
  0013e	c6 45 ed ec	 mov	 BYTE PTR __k$[ebp+1], -20 ; ffffffecH
  00142	eb 04		 jmp	 SHORT $LN1@LoadFloat_@5
$LN96@LoadFloat_@5:
  00144	c6 45 ec ed	 mov	 BYTE PTR __k$[ebp], -19	; ffffffedH
$LN1@LoadFloat_@5:
  00148	6a 02		 push	 2
  0014a	8d 45 ec	 lea	 eax, DWORD PTR __k$[ebp]
  0014d	c6 45 f6 00	 mov	 BYTE PTR __k$[ebp+10], 0
  00151	5a		 pop	 edx
$LL104@LoadFloat_@5:
  00152	81 30 ed ec eb
	ea		 xor	 DWORD PTR [eax], -353637139 ; eaebecedH
  00158	83 c0 04	 add	 eax, 4
  0015b	4a		 dec	 edx
  0015c	75 f4		 jne	 SHORT $LL104@LoadFloat_@5
  0015e	6a 08		 push	 8
  00160	58		 pop	 eax
$LL101@LoadFloat_@5:
  00161	8b c8		 mov	 ecx, eax
  00163	81 e1 03 00 00
	80		 and	 ecx, -2147483645	; 80000003H
  00169	79 05		 jns	 SHORT $LN111@LoadFloat_@5
  0016b	49		 dec	 ecx
  0016c	83 c9 fc	 or	 ecx, -4			; fffffffcH
  0016f	41		 inc	 ecx
$LN111@LoadFloat_@5:
  00170	b2 ed		 mov	 dl, -19			; ffffffedH
  00172	2a d1		 sub	 dl, cl
  00174	30 54 05 ec	 xor	 BYTE PTR __k$[ebp+eax], dl
  00178	40		 inc	 eax
  00179	83 f8 0a	 cmp	 eax, 10			; 0000000aH
  0017c	7c e3		 jl	 SHORT $LL101@LoadFloat_@5

; 137  : 		return LoadFloat(_k, f);

  0017e	f3 0f 10 45 0c	 movss	 xmm0, DWORD PTR _f$[ebp]
  00183	51		 push	 ecx
  00184	8d 45 ec	 lea	 eax, DWORD PTR __k$[ebp]
  00187	f3 0f 11 04 24	 movss	 DWORD PTR [esp], xmm0
  0018c	50		 push	 eax
  0018d	8b ce		 mov	 ecx, esi
  0018f	ff 15 00 00 00
	00		 call	 DWORD PTR __imp_?LoadFloat@ioINILoader@@QAEMPBDM@Z

; 138  : 	}

  00195	8b 4d fc	 mov	 ecx, DWORD PTR __$ArrayPad$[ebp]
  00198	33 cd		 xor	 ecx, ebp
  0019a	5e		 pop	 esi
  0019b	e8 00 00 00 00	 call	 @__security_check_cookie@4
  001a0	c9		 leave
  001a1	c2 08 00	 ret	 8
??$LoadFloat_e@$0L@@ioINILoader@@QAEMAAY0L@$$CBDM@Z ENDP ; ioINILoader::LoadFloat_e<11>
_TEXT	ENDS
PUBLIC	__$ArrayPad$
PUBLIC	??$LoadInt_e@$0BB@@ioINILoader@@QAEHAAY0BB@$$CBDH@Z ; ioINILoader::LoadInt_e<17>
EXTRN	__imp_?LoadInt@ioINILoader@@QAEHPBDH@Z:PROC
; Function compile flags: /Ogsp
;	COMDAT ??$LoadInt_e@$0BB@@ioINILoader@@QAEHAAY0BB@$$CBDH@Z
_TEXT	SEGMENT
__k$ = -28						; size = 17
__$ArrayPad$ = -4					; size = 4
_k$ = 8							; size = 4
_i$ = 12						; size = 4
??$LoadInt_e@$0BB@@ioINILoader@@QAEHAAY0BB@$$CBDH@Z PROC ; ioINILoader::LoadInt_e<17>, COMDAT
; _this$ = ecx

; 118  : 	{

  00000	55		 push	 ebp
  00001	8b ec		 mov	 ebp, esp
  00003	83 ec 1c	 sub	 esp, 28			; 0000001cH
  00006	a1 00 00 00 00	 mov	 eax, DWORD PTR ___security_cookie
  0000b	33 c5		 xor	 eax, ebp
  0000d	89 45 fc	 mov	 DWORD PTR __$ArrayPad$[ebp], eax
  00010	8b 45 08	 mov	 eax, DWORD PTR _k$[ebp]

; 119  : 		_ENCSTR(k, _k);

  00013	8a 10		 mov	 dl, BYTE PTR [eax]
  00015	56		 push	 esi
  00016	8b f1		 mov	 esi, ecx
  00018	84 d2		 test	 dl, dl
  0001a	0f 84 a7 01 00
	00		 je	 $LN96@LoadInt_e
  00020	80 f2 ed	 xor	 dl, -19			; ffffffedH
  00023	88 55 e4	 mov	 BYTE PTR __k$[ebp], dl
  00026	8a 50 01	 mov	 dl, BYTE PTR [eax+1]
  00029	84 d2		 test	 dl, dl
  0002b	0f 84 90 01 00
	00		 je	 $LN95@LoadInt_e
  00031	b1 ec		 mov	 cl, -20			; ffffffecH
  00033	32 d1		 xor	 dl, cl
  00035	88 55 e5	 mov	 BYTE PTR __k$[ebp+1], dl
  00038	8a 50 02	 mov	 dl, BYTE PTR [eax+2]
  0003b	84 d2		 test	 dl, dl
  0003d	0f 84 78 01 00
	00		 je	 $LN94@LoadInt_e
  00043	80 f2 eb	 xor	 dl, -21			; ffffffebH
  00046	88 55 e6	 mov	 BYTE PTR __k$[ebp+2], dl
  00049	8a 50 03	 mov	 dl, BYTE PTR [eax+3]
  0004c	84 d2		 test	 dl, dl
  0004e	0f 84 61 01 00
	00		 je	 $LN93@LoadInt_e
  00054	80 f2 ea	 xor	 dl, -22			; ffffffeaH
  00057	88 55 e7	 mov	 BYTE PTR __k$[ebp+3], dl
  0005a	8a 50 04	 mov	 dl, BYTE PTR [eax+4]
  0005d	84 d2		 test	 dl, dl
  0005f	0f 84 4a 01 00
	00		 je	 $LN92@LoadInt_e
  00065	80 f2 ed	 xor	 dl, -19			; ffffffedH
  00068	88 55 e8	 mov	 BYTE PTR __k$[ebp+4], dl
  0006b	8a 50 05	 mov	 dl, BYTE PTR [eax+5]
  0006e	84 d2		 test	 dl, dl
  00070	0f 84 34 01 00
	00		 je	 $LN91@LoadInt_e
  00076	32 d1		 xor	 dl, cl
  00078	88 55 e9	 mov	 BYTE PTR __k$[ebp+5], dl
  0007b	8a 50 06	 mov	 dl, BYTE PTR [eax+6]
  0007e	84 d2		 test	 dl, dl
  00080	0f 84 1e 01 00
	00		 je	 $LN90@LoadInt_e
  00086	80 f2 eb	 xor	 dl, -21			; ffffffebH
  00089	88 55 ea	 mov	 BYTE PTR __k$[ebp+6], dl
  0008c	8a 50 07	 mov	 dl, BYTE PTR [eax+7]
  0008f	84 d2		 test	 dl, dl
  00091	0f 84 07 01 00
	00		 je	 $LN89@LoadInt_e
  00097	80 f2 ea	 xor	 dl, -22			; ffffffeaH
  0009a	88 55 eb	 mov	 BYTE PTR __k$[ebp+7], dl
  0009d	8a 50 08	 mov	 dl, BYTE PTR [eax+8]
  000a0	84 d2		 test	 dl, dl
  000a2	0f 84 f0 00 00
	00		 je	 $LN88@LoadInt_e
  000a8	80 f2 ed	 xor	 dl, -19			; ffffffedH
  000ab	88 55 ec	 mov	 BYTE PTR __k$[ebp+8], dl
  000ae	8a 50 09	 mov	 dl, BYTE PTR [eax+9]
  000b1	84 d2		 test	 dl, dl
  000b3	0f 84 da 00 00
	00		 je	 $LN87@LoadInt_e
  000b9	32 d1		 xor	 dl, cl
  000bb	88 55 ed	 mov	 BYTE PTR __k$[ebp+9], dl
  000be	8a 50 0a	 mov	 dl, BYTE PTR [eax+10]
  000c1	84 d2		 test	 dl, dl
  000c3	0f 84 c4 00 00
	00		 je	 $LN86@LoadInt_e
  000c9	80 f2 eb	 xor	 dl, -21			; ffffffebH
  000cc	88 55 ee	 mov	 BYTE PTR __k$[ebp+10], dl
  000cf	8a 50 0b	 mov	 dl, BYTE PTR [eax+11]
  000d2	84 d2		 test	 dl, dl
  000d4	0f 84 ad 00 00
	00		 je	 $LN85@LoadInt_e
  000da	80 f2 ea	 xor	 dl, -22			; ffffffeaH
  000dd	88 55 ef	 mov	 BYTE PTR __k$[ebp+11], dl
  000e0	8a 50 0c	 mov	 dl, BYTE PTR [eax+12]
  000e3	84 d2		 test	 dl, dl
  000e5	0f 84 96 00 00
	00		 je	 $LN84@LoadInt_e
  000eb	80 f2 ed	 xor	 dl, -19			; ffffffedH
  000ee	88 55 f0	 mov	 BYTE PTR __k$[ebp+12], dl
  000f1	8a 50 0d	 mov	 dl, BYTE PTR [eax+13]
  000f4	84 d2		 test	 dl, dl
  000f6	0f 84 80 00 00
	00		 je	 $LN83@LoadInt_e
  000fc	32 d1		 xor	 dl, cl
  000fe	88 55 f1	 mov	 BYTE PTR __k$[ebp+13], dl
  00101	8a 50 0e	 mov	 dl, BYTE PTR [eax+14]
  00104	84 d2		 test	 dl, dl
  00106	74 6e		 je	 SHORT $LN82@LoadInt_e
  00108	80 f2 eb	 xor	 dl, -21			; ffffffebH
  0010b	88 55 f2	 mov	 BYTE PTR __k$[ebp+14], dl
  0010e	8a 50 0f	 mov	 dl, BYTE PTR [eax+15]
  00111	84 d2		 test	 dl, dl
  00113	74 5b		 je	 SHORT $LN81@LoadInt_e
  00115	80 f2 ea	 xor	 dl, -22			; ffffffeaH
  00118	80 78 10 00	 cmp	 BYTE PTR [eax+16], 0
  0011c	88 55 f3	 mov	 BYTE PTR __k$[ebp+15], dl
  0011f	0f 84 a6 00 00
	00		 je	 $LN1@LoadInt_e
  00125	8a 50 11	 mov	 dl, BYTE PTR [eax+17]
  00128	84 d2		 test	 dl, dl
  0012a	74 3f		 je	 SHORT $LN79@LoadInt_e
  0012c	32 d1		 xor	 dl, cl
  0012e	88 55 f5	 mov	 BYTE PTR __k$[ebp+17], dl
  00131	8a 50 12	 mov	 dl, BYTE PTR [eax+18]
  00134	84 d2		 test	 dl, dl
  00136	74 2d		 je	 SHORT $LN78@LoadInt_e
  00138	80 f2 eb	 xor	 dl, -21			; ffffffebH
  0013b	88 55 f6	 mov	 BYTE PTR __k$[ebp+18], dl
  0013e	8a 50 13	 mov	 dl, BYTE PTR [eax+19]
  00141	84 d2		 test	 dl, dl
  00143	74 1a		 je	 SHORT $LN77@LoadInt_e
  00145	8a 40 14	 mov	 al, BYTE PTR [eax+20]
  00148	80 f2 ea	 xor	 dl, -22			; ffffffeaH
  0014b	88 55 f7	 mov	 BYTE PTR __k$[ebp+19], dl
  0014e	84 c0		 test	 al, al
  00150	74 07		 je	 SHORT $LN76@LoadInt_e
  00152	34 ed		 xor	 al, -19			; ffffffedH
  00154	88 45 f8	 mov	 BYTE PTR __k$[ebp+20], al
  00157	eb 72		 jmp	 SHORT $LN1@LoadInt_e
$LN76@LoadInt_e:
  00159	c6 45 f8 ed	 mov	 BYTE PTR __k$[ebp+20], -19 ; ffffffedH
  0015d	eb 6c		 jmp	 SHORT $LN1@LoadInt_e
$LN77@LoadInt_e:
  0015f	c6 45 f7 ea	 mov	 BYTE PTR __k$[ebp+19], -22 ; ffffffeaH
  00163	eb 66		 jmp	 SHORT $LN1@LoadInt_e
$LN78@LoadInt_e:
  00165	c6 45 f6 eb	 mov	 BYTE PTR __k$[ebp+18], -21 ; ffffffebH
  00169	eb 60		 jmp	 SHORT $LN1@LoadInt_e
$LN79@LoadInt_e:
  0016b	88 4d f5	 mov	 BYTE PTR __k$[ebp+17], cl
  0016e	eb 5b		 jmp	 SHORT $LN1@LoadInt_e
$LN81@LoadInt_e:
  00170	c6 45 f3 ea	 mov	 BYTE PTR __k$[ebp+15], -22 ; ffffffeaH
  00174	eb 55		 jmp	 SHORT $LN1@LoadInt_e
$LN82@LoadInt_e:
  00176	c6 45 f2 eb	 mov	 BYTE PTR __k$[ebp+14], -21 ; ffffffebH
  0017a	eb 4f		 jmp	 SHORT $LN1@LoadInt_e
$LN83@LoadInt_e:
  0017c	88 4d f1	 mov	 BYTE PTR __k$[ebp+13], cl
  0017f	eb 4a		 jmp	 SHORT $LN1@LoadInt_e
$LN84@LoadInt_e:
  00181	c6 45 f0 ed	 mov	 BYTE PTR __k$[ebp+12], -19 ; ffffffedH
  00185	eb 44		 jmp	 SHORT $LN1@LoadInt_e
$LN85@LoadInt_e:
  00187	c6 45 ef ea	 mov	 BYTE PTR __k$[ebp+11], -22 ; ffffffeaH
  0018b	eb 3e		 jmp	 SHORT $LN1@LoadInt_e
$LN86@LoadInt_e:
  0018d	c6 45 ee eb	 mov	 BYTE PTR __k$[ebp+10], -21 ; ffffffebH
  00191	eb 38		 jmp	 SHORT $LN1@LoadInt_e
$LN87@LoadInt_e:
  00193	88 4d ed	 mov	 BYTE PTR __k$[ebp+9], cl
  00196	eb 33		 jmp	 SHORT $LN1@LoadInt_e
$LN88@LoadInt_e:
  00198	c6 45 ec ed	 mov	 BYTE PTR __k$[ebp+8], -19 ; ffffffedH
  0019c	eb 2d		 jmp	 SHORT $LN1@LoadInt_e
$LN89@LoadInt_e:
  0019e	c6 45 eb ea	 mov	 BYTE PTR __k$[ebp+7], -22 ; ffffffeaH
  001a2	eb 27		 jmp	 SHORT $LN1@LoadInt_e
$LN90@LoadInt_e:
  001a4	c6 45 ea eb	 mov	 BYTE PTR __k$[ebp+6], -21 ; ffffffebH
  001a8	eb 21		 jmp	 SHORT $LN1@LoadInt_e
$LN91@LoadInt_e:
  001aa	88 4d e9	 mov	 BYTE PTR __k$[ebp+5], cl
  001ad	eb 1c		 jmp	 SHORT $LN1@LoadInt_e
$LN92@LoadInt_e:
  001af	c6 45 e8 ed	 mov	 BYTE PTR __k$[ebp+4], -19 ; ffffffedH
  001b3	eb 16		 jmp	 SHORT $LN1@LoadInt_e
$LN93@LoadInt_e:
  001b5	c6 45 e7 ea	 mov	 BYTE PTR __k$[ebp+3], -22 ; ffffffeaH
  001b9	eb 10		 jmp	 SHORT $LN1@LoadInt_e
$LN94@LoadInt_e:
  001bb	c6 45 e6 eb	 mov	 BYTE PTR __k$[ebp+2], -21 ; ffffffebH
  001bf	eb 0a		 jmp	 SHORT $LN1@LoadInt_e
$LN95@LoadInt_e:
  001c1	c6 45 e5 ec	 mov	 BYTE PTR __k$[ebp+1], -20 ; ffffffecH
  001c5	eb 04		 jmp	 SHORT $LN1@LoadInt_e
$LN96@LoadInt_e:
  001c7	c6 45 e4 ed	 mov	 BYTE PTR __k$[ebp], -19	; ffffffedH
$LN1@LoadInt_e:
  001cb	6a 04		 push	 4
  001cd	8d 45 e4	 lea	 eax, DWORD PTR __k$[ebp]
  001d0	c6 45 f4 00	 mov	 BYTE PTR __k$[ebp+16], 0
  001d4	5a		 pop	 edx
$LL104@LoadInt_e:
  001d5	81 30 ed ec eb
	ea		 xor	 DWORD PTR [eax], -353637139 ; eaebecedH
  001db	83 c0 04	 add	 eax, 4
  001de	4a		 dec	 edx
  001df	75 f4		 jne	 SHORT $LL104@LoadInt_e

; 120  : 		return LoadInt(_k, i);

  001e1	ff 75 0c	 push	 DWORD PTR _i$[ebp]
  001e4	8d 45 e4	 lea	 eax, DWORD PTR __k$[ebp]
  001e7	50		 push	 eax
  001e8	8b ce		 mov	 ecx, esi
  001ea	ff 15 00 00 00
	00		 call	 DWORD PTR __imp_?LoadInt@ioINILoader@@QAEHPBDH@Z

; 121  : 	}

  001f0	8b 4d fc	 mov	 ecx, DWORD PTR __$ArrayPad$[ebp]
  001f3	33 cd		 xor	 ecx, ebp
  001f5	5e		 pop	 esi
  001f6	e8 00 00 00 00	 call	 @__security_check_cookie@4
  001fb	c9		 leave
  001fc	c2 08 00	 ret	 8
??$LoadInt_e@$0BB@@ioINILoader@@QAEHAAY0BB@$$CBDH@Z ENDP ; ioINILoader::LoadInt_e<17>
_TEXT	ENDS
PUBLIC	__$ArrayPad$
PUBLIC	??$LoadInt_e@$0BC@@ioINILoader@@QAEHAAY0BC@$$CBDH@Z ; ioINILoader::LoadInt_e<18>
; Function compile flags: /Ogsp
;	COMDAT ??$LoadInt_e@$0BC@@ioINILoader@@QAEHAAY0BC@$$CBDH@Z
_TEXT	SEGMENT
__k$ = -28						; size = 18
__$ArrayPad$ = -4					; size = 4
_k$ = 8							; size = 4
_i$ = 12						; size = 4
??$LoadInt_e@$0BC@@ioINILoader@@QAEHAAY0BC@$$CBDH@Z PROC ; ioINILoader::LoadInt_e<18>, COMDAT
; _this$ = ecx

; 118  : 	{

  00000	55		 push	 ebp
  00001	8b ec		 mov	 ebp, esp
  00003	83 ec 1c	 sub	 esp, 28			; 0000001cH
  00006	a1 00 00 00 00	 mov	 eax, DWORD PTR ___security_cookie
  0000b	33 c5		 xor	 eax, ebp
  0000d	89 45 fc	 mov	 DWORD PTR __$ArrayPad$[ebp], eax
  00010	8b 45 08	 mov	 eax, DWORD PTR _k$[ebp]

; 119  : 		_ENCSTR(k, _k);

  00013	8a 10		 mov	 dl, BYTE PTR [eax]
  00015	56		 push	 esi
  00016	8b f1		 mov	 esi, ecx
  00018	84 d2		 test	 dl, dl
  0001a	0f 84 be 01 00
	00		 je	 $LN96@LoadInt_e@2
  00020	80 f2 ed	 xor	 dl, -19			; ffffffedH
  00023	88 55 e4	 mov	 BYTE PTR __k$[ebp], dl
  00026	8a 50 01	 mov	 dl, BYTE PTR [eax+1]
  00029	84 d2		 test	 dl, dl
  0002b	0f 84 a7 01 00
	00		 je	 $LN95@LoadInt_e@2
  00031	80 f2 ec	 xor	 dl, -20			; ffffffecH
  00034	88 55 e5	 mov	 BYTE PTR __k$[ebp+1], dl
  00037	8a 50 02	 mov	 dl, BYTE PTR [eax+2]
  0003a	84 d2		 test	 dl, dl
  0003c	0f 84 90 01 00
	00		 je	 $LN94@LoadInt_e@2
  00042	b1 eb		 mov	 cl, -21			; ffffffebH
  00044	32 d1		 xor	 dl, cl
  00046	88 55 e6	 mov	 BYTE PTR __k$[ebp+2], dl
  00049	8a 50 03	 mov	 dl, BYTE PTR [eax+3]
  0004c	84 d2		 test	 dl, dl
  0004e	0f 84 78 01 00
	00		 je	 $LN93@LoadInt_e@2
  00054	80 f2 ea	 xor	 dl, -22			; ffffffeaH
  00057	88 55 e7	 mov	 BYTE PTR __k$[ebp+3], dl
  0005a	8a 50 04	 mov	 dl, BYTE PTR [eax+4]
  0005d	84 d2		 test	 dl, dl
  0005f	0f 84 61 01 00
	00		 je	 $LN92@LoadInt_e@2
  00065	80 f2 ed	 xor	 dl, -19			; ffffffedH
  00068	88 55 e8	 mov	 BYTE PTR __k$[ebp+4], dl
  0006b	8a 50 05	 mov	 dl, BYTE PTR [eax+5]
  0006e	84 d2		 test	 dl, dl
  00070	0f 84 4a 01 00
	00		 je	 $LN91@LoadInt_e@2
  00076	80 f2 ec	 xor	 dl, -20			; ffffffecH
  00079	88 55 e9	 mov	 BYTE PTR __k$[ebp+5], dl
  0007c	8a 50 06	 mov	 dl, BYTE PTR [eax+6]
  0007f	84 d2		 test	 dl, dl
  00081	0f 84 34 01 00
	00		 je	 $LN90@LoadInt_e@2
  00087	32 d1		 xor	 dl, cl
  00089	88 55 ea	 mov	 BYTE PTR __k$[ebp+6], dl
  0008c	8a 50 07	 mov	 dl, BYTE PTR [eax+7]
  0008f	84 d2		 test	 dl, dl
  00091	0f 84 1e 01 00
	00		 je	 $LN89@LoadInt_e@2
  00097	80 f2 ea	 xor	 dl, -22			; ffffffeaH
  0009a	88 55 eb	 mov	 BYTE PTR __k$[ebp+7], dl
  0009d	8a 50 08	 mov	 dl, BYTE PTR [eax+8]
  000a0	84 d2		 test	 dl, dl
  000a2	0f 84 07 01 00
	00		 je	 $LN88@LoadInt_e@2
  000a8	80 f2 ed	 xor	 dl, -19			; ffffffedH
  000ab	88 55 ec	 mov	 BYTE PTR __k$[ebp+8], dl
  000ae	8a 50 09	 mov	 dl, BYTE PTR [eax+9]
  000b1	84 d2		 test	 dl, dl
  000b3	0f 84 f0 00 00
	00		 je	 $LN87@LoadInt_e@2
  000b9	80 f2 ec	 xor	 dl, -20			; ffffffecH
  000bc	88 55 ed	 mov	 BYTE PTR __k$[ebp+9], dl
  000bf	8a 50 0a	 mov	 dl, BYTE PTR [eax+10]
  000c2	84 d2		 test	 dl, dl
  000c4	0f 84 da 00 00
	00		 je	 $LN86@LoadInt_e@2
  000ca	32 d1		 xor	 dl, cl
  000cc	88 55 ee	 mov	 BYTE PTR __k$[ebp+10], dl
  000cf	8a 50 0b	 mov	 dl, BYTE PTR [eax+11]
  000d2	84 d2		 test	 dl, dl
  000d4	0f 84 c4 00 00
	00		 je	 $LN85@LoadInt_e@2
  000da	80 f2 ea	 xor	 dl, -22			; ffffffeaH
  000dd	88 55 ef	 mov	 BYTE PTR __k$[ebp+11], dl
  000e0	8a 50 0c	 mov	 dl, BYTE PTR [eax+12]
  000e3	84 d2		 test	 dl, dl
  000e5	0f 84 ad 00 00
	00		 je	 $LN84@LoadInt_e@2
  000eb	80 f2 ed	 xor	 dl, -19			; ffffffedH
  000ee	88 55 f0	 mov	 BYTE PTR __k$[ebp+12], dl
  000f1	8a 50 0d	 mov	 dl, BYTE PTR [eax+13]
  000f4	84 d2		 test	 dl, dl
  000f6	0f 84 96 00 00
	00		 je	 $LN83@LoadInt_e@2
  000fc	80 f2 ec	 xor	 dl, -20			; ffffffecH
  000ff	88 55 f1	 mov	 BYTE PTR __k$[ebp+13], dl
  00102	8a 50 0e	 mov	 dl, BYTE PTR [eax+14]
  00105	84 d2		 test	 dl, dl
  00107	0f 84 80 00 00
	00		 je	 $LN82@LoadInt_e@2
  0010d	32 d1		 xor	 dl, cl
  0010f	88 55 f2	 mov	 BYTE PTR __k$[ebp+14], dl
  00112	8a 50 0f	 mov	 dl, BYTE PTR [eax+15]
  00115	84 d2		 test	 dl, dl
  00117	74 6e		 je	 SHORT $LN81@LoadInt_e@2
  00119	80 f2 ea	 xor	 dl, -22			; ffffffeaH
  0011c	88 55 f3	 mov	 BYTE PTR __k$[ebp+15], dl
  0011f	8a 50 10	 mov	 dl, BYTE PTR [eax+16]
  00122	84 d2		 test	 dl, dl
  00124	74 5b		 je	 SHORT $LN80@LoadInt_e@2
  00126	80 f2 ed	 xor	 dl, -19			; ffffffedH
  00129	80 78 11 00	 cmp	 BYTE PTR [eax+17], 0
  0012d	88 55 f4	 mov	 BYTE PTR __k$[ebp+16], dl
  00130	0f 84 ac 00 00
	00		 je	 $LN1@LoadInt_e@2
  00136	8a 50 12	 mov	 dl, BYTE PTR [eax+18]
  00139	84 d2		 test	 dl, dl
  0013b	74 3f		 je	 SHORT $LN78@LoadInt_e@2
  0013d	32 d1		 xor	 dl, cl
  0013f	88 55 f6	 mov	 BYTE PTR __k$[ebp+18], dl
  00142	8a 50 13	 mov	 dl, BYTE PTR [eax+19]
  00145	84 d2		 test	 dl, dl
  00147	74 2d		 je	 SHORT $LN77@LoadInt_e@2
  00149	80 f2 ea	 xor	 dl, -22			; ffffffeaH
  0014c	88 55 f7	 mov	 BYTE PTR __k$[ebp+19], dl
  0014f	8a 50 14	 mov	 dl, BYTE PTR [eax+20]
  00152	84 d2		 test	 dl, dl
  00154	74 1a		 je	 SHORT $LN76@LoadInt_e@2
  00156	8a 40 15	 mov	 al, BYTE PTR [eax+21]
  00159	80 f2 ed	 xor	 dl, -19			; ffffffedH
  0015c	88 55 f8	 mov	 BYTE PTR __k$[ebp+20], dl
  0015f	84 c0		 test	 al, al
  00161	74 07		 je	 SHORT $LN75@LoadInt_e@2
  00163	34 ec		 xor	 al, -20			; ffffffecH
  00165	88 45 f9	 mov	 BYTE PTR __k$[ebp+21], al
  00168	eb 78		 jmp	 SHORT $LN1@LoadInt_e@2
$LN75@LoadInt_e@2:
  0016a	c6 45 f9 ec	 mov	 BYTE PTR __k$[ebp+21], -20 ; ffffffecH
  0016e	eb 72		 jmp	 SHORT $LN1@LoadInt_e@2
$LN76@LoadInt_e@2:
  00170	c6 45 f8 ed	 mov	 BYTE PTR __k$[ebp+20], -19 ; ffffffedH
  00174	eb 6c		 jmp	 SHORT $LN1@LoadInt_e@2
$LN77@LoadInt_e@2:
  00176	c6 45 f7 ea	 mov	 BYTE PTR __k$[ebp+19], -22 ; ffffffeaH
  0017a	eb 66		 jmp	 SHORT $LN1@LoadInt_e@2
$LN78@LoadInt_e@2:
  0017c	88 4d f6	 mov	 BYTE PTR __k$[ebp+18], cl
  0017f	eb 61		 jmp	 SHORT $LN1@LoadInt_e@2
$LN80@LoadInt_e@2:
  00181	c6 45 f4 ed	 mov	 BYTE PTR __k$[ebp+16], -19 ; ffffffedH
  00185	eb 5b		 jmp	 SHORT $LN1@LoadInt_e@2
$LN81@LoadInt_e@2:
  00187	c6 45 f3 ea	 mov	 BYTE PTR __k$[ebp+15], -22 ; ffffffeaH
  0018b	eb 55		 jmp	 SHORT $LN1@LoadInt_e@2
$LN82@LoadInt_e@2:
  0018d	88 4d f2	 mov	 BYTE PTR __k$[ebp+14], cl
  00190	eb 50		 jmp	 SHORT $LN1@LoadInt_e@2
$LN83@LoadInt_e@2:
  00192	c6 45 f1 ec	 mov	 BYTE PTR __k$[ebp+13], -20 ; ffffffecH
  00196	eb 4a		 jmp	 SHORT $LN1@LoadInt_e@2
$LN84@LoadInt_e@2:
  00198	c6 45 f0 ed	 mov	 BYTE PTR __k$[ebp+12], -19 ; ffffffedH
  0019c	eb 44		 jmp	 SHORT $LN1@LoadInt_e@2
$LN85@LoadInt_e@2:
  0019e	c6 45 ef ea	 mov	 BYTE PTR __k$[ebp+11], -22 ; ffffffeaH
  001a2	eb 3e		 jmp	 SHORT $LN1@LoadInt_e@2
$LN86@LoadInt_e@2:
  001a4	88 4d ee	 mov	 BYTE PTR __k$[ebp+10], cl
  001a7	eb 39		 jmp	 SHORT $LN1@LoadInt_e@2
$LN87@LoadInt_e@2:
  001a9	c6 45 ed ec	 mov	 BYTE PTR __k$[ebp+9], -20 ; ffffffecH
  001ad	eb 33		 jmp	 SHORT $LN1@LoadInt_e@2
$LN88@LoadInt_e@2:
  001af	c6 45 ec ed	 mov	 BYTE PTR __k$[ebp+8], -19 ; ffffffedH
  001b3	eb 2d		 jmp	 SHORT $LN1@LoadInt_e@2
$LN89@LoadInt_e@2:
  001b5	c6 45 eb ea	 mov	 BYTE PTR __k$[ebp+7], -22 ; ffffffeaH
  001b9	eb 27		 jmp	 SHORT $LN1@LoadInt_e@2
$LN90@LoadInt_e@2:
  001bb	88 4d ea	 mov	 BYTE PTR __k$[ebp+6], cl
  001be	eb 22		 jmp	 SHORT $LN1@LoadInt_e@2
$LN91@LoadInt_e@2:
  001c0	c6 45 e9 ec	 mov	 BYTE PTR __k$[ebp+5], -20 ; ffffffecH
  001c4	eb 1c		 jmp	 SHORT $LN1@LoadInt_e@2
$LN92@LoadInt_e@2:
  001c6	c6 45 e8 ed	 mov	 BYTE PTR __k$[ebp+4], -19 ; ffffffedH
  001ca	eb 16		 jmp	 SHORT $LN1@LoadInt_e@2
$LN93@LoadInt_e@2:
  001cc	c6 45 e7 ea	 mov	 BYTE PTR __k$[ebp+3], -22 ; ffffffeaH
  001d0	eb 10		 jmp	 SHORT $LN1@LoadInt_e@2
$LN94@LoadInt_e@2:
  001d2	c6 45 e6 eb	 mov	 BYTE PTR __k$[ebp+2], -21 ; ffffffebH
  001d6	eb 0a		 jmp	 SHORT $LN1@LoadInt_e@2
$LN95@LoadInt_e@2:
  001d8	c6 45 e5 ec	 mov	 BYTE PTR __k$[ebp+1], -20 ; ffffffecH
  001dc	eb 04		 jmp	 SHORT $LN1@LoadInt_e@2
$LN96@LoadInt_e@2:
  001de	c6 45 e4 ed	 mov	 BYTE PTR __k$[ebp], -19	; ffffffedH
$LN1@LoadInt_e@2:
  001e2	6a 04		 push	 4
  001e4	8d 45 e4	 lea	 eax, DWORD PTR __k$[ebp]
  001e7	c6 45 f5 00	 mov	 BYTE PTR __k$[ebp+17], 0
  001eb	5a		 pop	 edx
$LL104@LoadInt_e@2:
  001ec	81 30 ed ec eb
	ea		 xor	 DWORD PTR [eax], -353637139 ; eaebecedH
  001f2	83 c0 04	 add	 eax, 4
  001f5	4a		 dec	 edx
  001f6	75 f4		 jne	 SHORT $LL104@LoadInt_e@2

; 120  : 		return LoadInt(_k, i);

  001f8	ff 75 0c	 push	 DWORD PTR _i$[ebp]
  001fb	80 75 f4 ed	 xor	 BYTE PTR __k$[ebp+16], -19 ; ffffffedH
  001ff	8d 45 e4	 lea	 eax, DWORD PTR __k$[ebp]
  00202	50		 push	 eax
  00203	8b ce		 mov	 ecx, esi
  00205	ff 15 00 00 00
	00		 call	 DWORD PTR __imp_?LoadInt@ioINILoader@@QAEHPBDH@Z

; 121  : 	}

  0020b	8b 4d fc	 mov	 ecx, DWORD PTR __$ArrayPad$[ebp]
  0020e	33 cd		 xor	 ecx, ebp
  00210	5e		 pop	 esi
  00211	e8 00 00 00 00	 call	 @__security_check_cookie@4
  00216	c9		 leave
  00217	c2 08 00	 ret	 8
??$LoadInt_e@$0BC@@ioINILoader@@QAEHAAY0BC@$$CBDH@Z ENDP ; ioINILoader::LoadInt_e<18>
_TEXT	ENDS
PUBLIC	_this$GSCopy$
PUBLIC	__$ArrayPad$
PUBLIC	??$LoadString_e@$0BJ@@ioINILoader@@QAEXAAY0BJ@$$CBDAAY00$$CBDPADH@Z ; ioINILoader::LoadString_e<25>
; Function compile flags: /Ogsp
;	COMDAT ??$LoadString_e@$0BJ@@ioINILoader@@QAEXAAY0BJ@$$CBDAAY00$$CBDPADH@Z
_TEXT	SEGMENT
_this$GSCopy$ = -40					; size = 4
__k$ = -36						; size = 25
__$ArrayPad$ = -4					; size = 4
_k$ = 8							; size = 4
_d$ = 12						; size = 4
_b$ = 16						; size = 4
_i$ = 20						; size = 4
??$LoadString_e@$0BJ@@ioINILoader@@QAEXAAY0BJ@$$CBDAAY00$$CBDPADH@Z PROC ; ioINILoader::LoadString_e<25>, COMDAT
; _this$ = ecx

; 161  : 	{

  00000	55		 push	 ebp
  00001	8b ec		 mov	 ebp, esp
  00003	83 ec 28	 sub	 esp, 40			; 00000028H
  00006	a1 00 00 00 00	 mov	 eax, DWORD PTR ___security_cookie
  0000b	33 c5		 xor	 eax, ebp
  0000d	89 45 fc	 mov	 DWORD PTR __$ArrayPad$[ebp], eax
  00010	8b 45 08	 mov	 eax, DWORD PTR _k$[ebp]

; 162  : 		_ENCSTR(k, _k);

  00013	8a 10		 mov	 dl, BYTE PTR [eax]
  00015	53		 push	 ebx
  00016	56		 push	 esi
  00017	8b 75 0c	 mov	 esi, DWORD PTR _d$[ebp]
  0001a	57		 push	 edi
  0001b	8b 7d 10	 mov	 edi, DWORD PTR _b$[ebp]
  0001e	89 4d d8	 mov	 DWORD PTR _this$GSCopy$[ebp], ecx
  00021	84 d2		 test	 dl, dl
  00023	0f 84 5f 02 00
	00		 je	 $LN96@LoadString@6
  00029	80 f2 ed	 xor	 dl, -19			; ffffffedH
  0002c	88 55 dc	 mov	 BYTE PTR __k$[ebp], dl
  0002f	8a 50 01	 mov	 dl, BYTE PTR [eax+1]
  00032	84 d2		 test	 dl, dl
  00034	0f 84 48 02 00
	00		 je	 $LN95@LoadString@6
  0003a	b1 ec		 mov	 cl, -20			; ffffffecH
  0003c	32 d1		 xor	 dl, cl
  0003e	88 55 dd	 mov	 BYTE PTR __k$[ebp+1], dl
  00041	8a 50 02	 mov	 dl, BYTE PTR [eax+2]
  00044	84 d2		 test	 dl, dl
  00046	0f 84 30 02 00
	00		 je	 $LN94@LoadString@6
  0004c	b3 eb		 mov	 bl, -21			; ffffffebH
  0004e	32 d3		 xor	 dl, bl
  00050	88 55 de	 mov	 BYTE PTR __k$[ebp+2], dl
  00053	8a 50 03	 mov	 dl, BYTE PTR [eax+3]
  00056	84 d2		 test	 dl, dl
  00058	0f 84 18 02 00
	00		 je	 $LN93@LoadString@6
  0005e	80 f2 ea	 xor	 dl, -22			; ffffffeaH
  00061	88 55 df	 mov	 BYTE PTR __k$[ebp+3], dl
  00064	8a 50 04	 mov	 dl, BYTE PTR [eax+4]
  00067	84 d2		 test	 dl, dl
  00069	0f 84 01 02 00
	00		 je	 $LN92@LoadString@6
  0006f	80 f2 ed	 xor	 dl, -19			; ffffffedH
  00072	88 55 e0	 mov	 BYTE PTR __k$[ebp+4], dl
  00075	8a 50 05	 mov	 dl, BYTE PTR [eax+5]
  00078	84 d2		 test	 dl, dl
  0007a	0f 84 eb 01 00
	00		 je	 $LN91@LoadString@6
  00080	32 d1		 xor	 dl, cl
  00082	88 55 e1	 mov	 BYTE PTR __k$[ebp+5], dl
  00085	8a 50 06	 mov	 dl, BYTE PTR [eax+6]
  00088	84 d2		 test	 dl, dl
  0008a	0f 84 d6 01 00
	00		 je	 $LN90@LoadString@6
  00090	32 d3		 xor	 dl, bl
  00092	88 55 e2	 mov	 BYTE PTR __k$[ebp+6], dl
  00095	8a 50 07	 mov	 dl, BYTE PTR [eax+7]
  00098	84 d2		 test	 dl, dl
  0009a	0f 84 c0 01 00
	00		 je	 $LN89@LoadString@6
  000a0	80 f2 ea	 xor	 dl, -22			; ffffffeaH
  000a3	88 55 e3	 mov	 BYTE PTR __k$[ebp+7], dl
  000a6	8a 50 08	 mov	 dl, BYTE PTR [eax+8]
  000a9	84 d2		 test	 dl, dl
  000ab	0f 84 a9 01 00
	00		 je	 $LN88@LoadString@6
  000b1	80 f2 ed	 xor	 dl, -19			; ffffffedH
  000b4	88 55 e4	 mov	 BYTE PTR __k$[ebp+8], dl
  000b7	8a 50 09	 mov	 dl, BYTE PTR [eax+9]
  000ba	84 d2		 test	 dl, dl
  000bc	0f 84 93 01 00
	00		 je	 $LN87@LoadString@6
  000c2	32 d1		 xor	 dl, cl
  000c4	88 55 e5	 mov	 BYTE PTR __k$[ebp+9], dl
  000c7	8a 50 0a	 mov	 dl, BYTE PTR [eax+10]
  000ca	84 d2		 test	 dl, dl
  000cc	0f 84 7e 01 00
	00		 je	 $LN86@LoadString@6
  000d2	32 d3		 xor	 dl, bl
  000d4	88 55 e6	 mov	 BYTE PTR __k$[ebp+10], dl
  000d7	8a 50 0b	 mov	 dl, BYTE PTR [eax+11]
  000da	84 d2		 test	 dl, dl
  000dc	0f 84 68 01 00
	00		 je	 $LN85@LoadString@6
  000e2	80 f2 ea	 xor	 dl, -22			; ffffffeaH
  000e5	88 55 e7	 mov	 BYTE PTR __k$[ebp+11], dl
  000e8	8a 50 0c	 mov	 dl, BYTE PTR [eax+12]
  000eb	84 d2		 test	 dl, dl
  000ed	0f 84 51 01 00
	00		 je	 $LN84@LoadString@6
  000f3	80 f2 ed	 xor	 dl, -19			; ffffffedH
  000f6	88 55 e8	 mov	 BYTE PTR __k$[ebp+12], dl
  000f9	8a 50 0d	 mov	 dl, BYTE PTR [eax+13]
  000fc	84 d2		 test	 dl, dl
  000fe	0f 84 3b 01 00
	00		 je	 $LN83@LoadString@6
  00104	32 d1		 xor	 dl, cl
  00106	88 55 e9	 mov	 BYTE PTR __k$[ebp+13], dl
  00109	8a 50 0e	 mov	 dl, BYTE PTR [eax+14]
  0010c	84 d2		 test	 dl, dl
  0010e	0f 84 26 01 00
	00		 je	 $LN82@LoadString@6
  00114	32 d3		 xor	 dl, bl
  00116	88 55 ea	 mov	 BYTE PTR __k$[ebp+14], dl
  00119	8a 50 0f	 mov	 dl, BYTE PTR [eax+15]
  0011c	84 d2		 test	 dl, dl
  0011e	0f 84 10 01 00
	00		 je	 $LN81@LoadString@6
  00124	80 f2 ea	 xor	 dl, -22			; ffffffeaH
  00127	88 55 eb	 mov	 BYTE PTR __k$[ebp+15], dl
  0012a	8a 50 10	 mov	 dl, BYTE PTR [eax+16]
  0012d	84 d2		 test	 dl, dl
  0012f	0f 84 f9 00 00
	00		 je	 $LN80@LoadString@6
  00135	80 f2 ed	 xor	 dl, -19			; ffffffedH
  00138	88 55 ec	 mov	 BYTE PTR __k$[ebp+16], dl
  0013b	8a 50 11	 mov	 dl, BYTE PTR [eax+17]
  0013e	84 d2		 test	 dl, dl
  00140	0f 84 e3 00 00
	00		 je	 $LN79@LoadString@6
  00146	32 d1		 xor	 dl, cl
  00148	88 55 ed	 mov	 BYTE PTR __k$[ebp+17], dl
  0014b	8a 50 12	 mov	 dl, BYTE PTR [eax+18]
  0014e	84 d2		 test	 dl, dl
  00150	0f 84 ce 00 00
	00		 je	 $LN78@LoadString@6
  00156	32 d3		 xor	 dl, bl
  00158	88 55 ee	 mov	 BYTE PTR __k$[ebp+18], dl
  0015b	8a 50 13	 mov	 dl, BYTE PTR [eax+19]
  0015e	84 d2		 test	 dl, dl
  00160	0f 84 b8 00 00
	00		 je	 $LN77@LoadString@6
  00166	80 f2 ea	 xor	 dl, -22			; ffffffeaH
  00169	88 55 ef	 mov	 BYTE PTR __k$[ebp+19], dl
  0016c	8a 50 14	 mov	 dl, BYTE PTR [eax+20]
  0016f	84 d2		 test	 dl, dl
  00171	0f 84 a1 00 00
	00		 je	 $LN76@LoadString@6
  00177	80 f2 ed	 xor	 dl, -19			; ffffffedH
  0017a	88 55 f0	 mov	 BYTE PTR __k$[ebp+20], dl
  0017d	8a 50 15	 mov	 dl, BYTE PTR [eax+21]
  00180	84 d2		 test	 dl, dl
  00182	0f 84 8b 00 00
	00		 je	 $LN75@LoadString@6
  00188	32 d1		 xor	 dl, cl
  0018a	88 55 f1	 mov	 BYTE PTR __k$[ebp+21], dl
  0018d	8a 50 16	 mov	 dl, BYTE PTR [eax+22]
  00190	84 d2		 test	 dl, dl
  00192	74 7a		 je	 SHORT $LN74@LoadString@6
  00194	32 d3		 xor	 dl, bl
  00196	88 55 f2	 mov	 BYTE PTR __k$[ebp+22], dl
  00199	8a 50 17	 mov	 dl, BYTE PTR [eax+23]
  0019c	84 d2		 test	 dl, dl
  0019e	74 68		 je	 SHORT $LN73@LoadString@6
  001a0	80 f2 ea	 xor	 dl, -22			; ffffffeaH
  001a3	80 78 18 00	 cmp	 BYTE PTR [eax+24], 0
  001a7	88 55 f3	 mov	 BYTE PTR __k$[ebp+23], dl
  001aa	0f 84 dc 00 00
	00		 je	 $LN111@LoadString@6
  001b0	8a 50 19	 mov	 dl, BYTE PTR [eax+25]
  001b3	84 d2		 test	 dl, dl
  001b5	74 49		 je	 SHORT $LN71@LoadString@6
  001b7	32 d1		 xor	 dl, cl
  001b9	88 55 f5	 mov	 BYTE PTR __k$[ebp+25], dl
  001bc	8a 50 1a	 mov	 dl, BYTE PTR [eax+26]
  001bf	84 d2		 test	 dl, dl
  001c1	74 35		 je	 SHORT $LN70@LoadString@6
  001c3	32 d3		 xor	 dl, bl
  001c5	88 55 f6	 mov	 BYTE PTR __k$[ebp+26], dl
  001c8	8a 50 1b	 mov	 dl, BYTE PTR [eax+27]
  001cb	84 d2		 test	 dl, dl
  001cd	74 20		 je	 SHORT $LN69@LoadString@6
  001cf	8a 40 1c	 mov	 al, BYTE PTR [eax+28]
  001d2	80 f2 ea	 xor	 dl, -22			; ffffffeaH
  001d5	88 55 f7	 mov	 BYTE PTR __k$[ebp+27], dl
  001d8	84 c0		 test	 al, al
  001da	74 0a		 je	 SHORT $LN68@LoadString@6
  001dc	34 ed		 xor	 al, -19			; ffffffedH
  001de	88 45 f8	 mov	 BYTE PTR __k$[ebp+28], al
  001e1	e9 a6 00 00 00	 jmp	 $LN111@LoadString@6
$LN68@LoadString@6:
  001e6	c6 45 f8 ed	 mov	 BYTE PTR __k$[ebp+28], -19 ; ffffffedH
  001ea	e9 9d 00 00 00	 jmp	 $LN111@LoadString@6
$LN69@LoadString@6:
  001ef	c6 45 f7 ea	 mov	 BYTE PTR __k$[ebp+27], -22 ; ffffffeaH
  001f3	e9 94 00 00 00	 jmp	 $LN111@LoadString@6
$LN70@LoadString@6:
  001f8	88 5d f6	 mov	 BYTE PTR __k$[ebp+26], bl
  001fb	e9 8c 00 00 00	 jmp	 $LN111@LoadString@6
$LN71@LoadString@6:
  00200	88 4d f5	 mov	 BYTE PTR __k$[ebp+25], cl
  00203	e9 84 00 00 00	 jmp	 $LN111@LoadString@6
$LN73@LoadString@6:
  00208	c6 45 f3 ea	 mov	 BYTE PTR __k$[ebp+23], -22 ; ffffffeaH
  0020c	eb 7e		 jmp	 SHORT $LN111@LoadString@6
$LN74@LoadString@6:
  0020e	88 5d f2	 mov	 BYTE PTR __k$[ebp+22], bl
  00211	eb 79		 jmp	 SHORT $LN111@LoadString@6
$LN75@LoadString@6:
  00213	88 4d f1	 mov	 BYTE PTR __k$[ebp+21], cl
  00216	eb 74		 jmp	 SHORT $LN111@LoadString@6
$LN76@LoadString@6:
  00218	c6 45 f0 ed	 mov	 BYTE PTR __k$[ebp+20], -19 ; ffffffedH
  0021c	eb 6e		 jmp	 SHORT $LN111@LoadString@6
$LN77@LoadString@6:
  0021e	c6 45 ef ea	 mov	 BYTE PTR __k$[ebp+19], -22 ; ffffffeaH
  00222	eb 68		 jmp	 SHORT $LN111@LoadString@6
$LN78@LoadString@6:
  00224	88 5d ee	 mov	 BYTE PTR __k$[ebp+18], bl
  00227	eb 63		 jmp	 SHORT $LN111@LoadString@6
$LN79@LoadString@6:
  00229	88 4d ed	 mov	 BYTE PTR __k$[ebp+17], cl
  0022c	eb 5e		 jmp	 SHORT $LN111@LoadString@6
$LN80@LoadString@6:
  0022e	c6 45 ec ed	 mov	 BYTE PTR __k$[ebp+16], -19 ; ffffffedH
  00232	eb 58		 jmp	 SHORT $LN111@LoadString@6
$LN81@LoadString@6:
  00234	c6 45 eb ea	 mov	 BYTE PTR __k$[ebp+15], -22 ; ffffffeaH
  00238	eb 52		 jmp	 SHORT $LN111@LoadString@6
$LN82@LoadString@6:
  0023a	88 5d ea	 mov	 BYTE PTR __k$[ebp+14], bl
  0023d	eb 4d		 jmp	 SHORT $LN111@LoadString@6
$LN83@LoadString@6:
  0023f	88 4d e9	 mov	 BYTE PTR __k$[ebp+13], cl
  00242	eb 48		 jmp	 SHORT $LN111@LoadString@6
$LN84@LoadString@6:
  00244	c6 45 e8 ed	 mov	 BYTE PTR __k$[ebp+12], -19 ; ffffffedH
  00248	eb 42		 jmp	 SHORT $LN111@LoadString@6
$LN85@LoadString@6:
  0024a	c6 45 e7 ea	 mov	 BYTE PTR __k$[ebp+11], -22 ; ffffffeaH
  0024e	eb 3c		 jmp	 SHORT $LN111@LoadString@6
$LN86@LoadString@6:
  00250	88 5d e6	 mov	 BYTE PTR __k$[ebp+10], bl
  00253	eb 37		 jmp	 SHORT $LN111@LoadString@6
$LN87@LoadString@6:
  00255	88 4d e5	 mov	 BYTE PTR __k$[ebp+9], cl
  00258	eb 32		 jmp	 SHORT $LN111@LoadString@6
$LN88@LoadString@6:
  0025a	c6 45 e4 ed	 mov	 BYTE PTR __k$[ebp+8], -19 ; ffffffedH
  0025e	eb 2c		 jmp	 SHORT $LN111@LoadString@6
$LN89@LoadString@6:
  00260	c6 45 e3 ea	 mov	 BYTE PTR __k$[ebp+7], -22 ; ffffffeaH
  00264	eb 26		 jmp	 SHORT $LN111@LoadString@6
$LN90@LoadString@6:
  00266	88 5d e2	 mov	 BYTE PTR __k$[ebp+6], bl
  00269	eb 21		 jmp	 SHORT $LN111@LoadString@6
$LN91@LoadString@6:
  0026b	88 4d e1	 mov	 BYTE PTR __k$[ebp+5], cl
  0026e	eb 1c		 jmp	 SHORT $LN111@LoadString@6
$LN92@LoadString@6:
  00270	c6 45 e0 ed	 mov	 BYTE PTR __k$[ebp+4], -19 ; ffffffedH
  00274	eb 16		 jmp	 SHORT $LN111@LoadString@6
$LN93@LoadString@6:
  00276	c6 45 df ea	 mov	 BYTE PTR __k$[ebp+3], -22 ; ffffffeaH
  0027a	eb 10		 jmp	 SHORT $LN111@LoadString@6
$LN94@LoadString@6:
  0027c	c6 45 de eb	 mov	 BYTE PTR __k$[ebp+2], -21 ; ffffffebH
  00280	eb 0a		 jmp	 SHORT $LN111@LoadString@6
$LN95@LoadString@6:
  00282	c6 45 dd ec	 mov	 BYTE PTR __k$[ebp+1], -20 ; ffffffecH
  00286	eb 04		 jmp	 SHORT $LN111@LoadString@6
$LN96@LoadString@6:
  00288	c6 45 dc ed	 mov	 BYTE PTR __k$[ebp], -19	; ffffffedH
$LN111@LoadString@6:
  0028c	6a 06		 push	 6
  0028e	8d 45 dc	 lea	 eax, DWORD PTR __k$[ebp]
  00291	c6 45 f4 00	 mov	 BYTE PTR __k$[ebp+24], 0
  00295	5a		 pop	 edx
$LL104@LoadString@6:
  00296	81 30 ed ec eb
	ea		 xor	 DWORD PTR [eax], -353637139 ; eaebecedH
  0029c	83 c0 04	 add	 eax, 4
  0029f	4a		 dec	 edx
  002a0	75 f4		 jne	 SHORT $LL104@LoadString@6

; 163  : 		LoadString(_k, d, b, i);

  002a2	ff 75 14	 push	 DWORD PTR _i$[ebp]
  002a5	8b 4d d8	 mov	 ecx, DWORD PTR _this$GSCopy$[ebp]
  002a8	57		 push	 edi
  002a9	56		 push	 esi
  002aa	8d 45 dc	 lea	 eax, DWORD PTR __k$[ebp]
  002ad	50		 push	 eax
  002ae	ff 15 00 00 00
	00		 call	 DWORD PTR __imp_?LoadStringA@ioINILoader@@QAEXPBD0PADH@Z

; 164  : 	}

  002b4	8b 4d fc	 mov	 ecx, DWORD PTR __$ArrayPad$[ebp]
  002b7	5f		 pop	 edi
  002b8	5e		 pop	 esi
  002b9	33 cd		 xor	 ecx, ebp
  002bb	5b		 pop	 ebx
  002bc	e8 00 00 00 00	 call	 @__security_check_cookie@4
  002c1	c9		 leave
  002c2	c2 10 00	 ret	 16			; 00000010H
??$LoadString_e@$0BJ@@ioINILoader@@QAEXAAY0BJ@$$CBDAAY00$$CBDPADH@Z ENDP ; ioINILoader::LoadString_e<25>
_TEXT	ENDS
PUBLIC	__$ArrayPad$
PUBLIC	??$LoadInt_e@$0BI@@ioINILoader@@QAEHAAY0BI@$$CBDH@Z ; ioINILoader::LoadInt_e<24>
; Function compile flags: /Ogsp
;	COMDAT ??$LoadInt_e@$0BI@@ioINILoader@@QAEHAAY0BI@$$CBDH@Z
_TEXT	SEGMENT
__k$ = -32						; size = 24
__$ArrayPad$ = -4					; size = 4
_k$ = 8							; size = 4
_i$ = 12						; size = 4
??$LoadInt_e@$0BI@@ioINILoader@@QAEHAAY0BI@$$CBDH@Z PROC ; ioINILoader::LoadInt_e<24>, COMDAT
; _this$ = ecx

; 118  : 	{

  00000	55		 push	 ebp
  00001	8b ec		 mov	 ebp, esp
  00003	83 ec 20	 sub	 esp, 32			; 00000020H
  00006	a1 00 00 00 00	 mov	 eax, DWORD PTR ___security_cookie
  0000b	33 c5		 xor	 eax, ebp
  0000d	89 45 fc	 mov	 DWORD PTR __$ArrayPad$[ebp], eax
  00010	8b 45 08	 mov	 eax, DWORD PTR _k$[ebp]

; 119  : 		_ENCSTR(k, _k);

  00013	8a 10		 mov	 dl, BYTE PTR [eax]
  00015	53		 push	 ebx
  00016	56		 push	 esi
  00017	8b f1		 mov	 esi, ecx
  00019	84 d2		 test	 dl, dl
  0001b	0f 84 45 02 00
	00		 je	 $LN96@LoadInt_e@3
  00021	80 f2 ed	 xor	 dl, -19			; ffffffedH
  00024	88 55 e0	 mov	 BYTE PTR __k$[ebp], dl
  00027	8a 50 01	 mov	 dl, BYTE PTR [eax+1]
  0002a	84 d2		 test	 dl, dl
  0002c	0f 84 2e 02 00
	00		 je	 $LN95@LoadInt_e@3
  00032	b3 ec		 mov	 bl, -20			; ffffffecH
  00034	32 d3		 xor	 dl, bl
  00036	88 55 e1	 mov	 BYTE PTR __k$[ebp+1], dl
  00039	8a 50 02	 mov	 dl, BYTE PTR [eax+2]
  0003c	84 d2		 test	 dl, dl
  0003e	0f 84 16 02 00
	00		 je	 $LN94@LoadInt_e@3
  00044	b1 eb		 mov	 cl, -21			; ffffffebH
  00046	32 d1		 xor	 dl, cl
  00048	88 55 e2	 mov	 BYTE PTR __k$[ebp+2], dl
  0004b	8a 50 03	 mov	 dl, BYTE PTR [eax+3]
  0004e	84 d2		 test	 dl, dl
  00050	0f 84 fe 01 00
	00		 je	 $LN93@LoadInt_e@3
  00056	80 f2 ea	 xor	 dl, -22			; ffffffeaH
  00059	88 55 e3	 mov	 BYTE PTR __k$[ebp+3], dl
  0005c	8a 50 04	 mov	 dl, BYTE PTR [eax+4]
  0005f	84 d2		 test	 dl, dl
  00061	0f 84 e7 01 00
	00		 je	 $LN92@LoadInt_e@3
  00067	80 f2 ed	 xor	 dl, -19			; ffffffedH
  0006a	88 55 e4	 mov	 BYTE PTR __k$[ebp+4], dl
  0006d	8a 50 05	 mov	 dl, BYTE PTR [eax+5]
  00070	84 d2		 test	 dl, dl
  00072	0f 84 d1 01 00
	00		 je	 $LN91@LoadInt_e@3
  00078	32 d3		 xor	 dl, bl
  0007a	88 55 e5	 mov	 BYTE PTR __k$[ebp+5], dl
  0007d	8a 50 06	 mov	 dl, BYTE PTR [eax+6]
  00080	84 d2		 test	 dl, dl
  00082	0f 84 bc 01 00
	00		 je	 $LN90@LoadInt_e@3
  00088	32 d1		 xor	 dl, cl
  0008a	88 55 e6	 mov	 BYTE PTR __k$[ebp+6], dl
  0008d	8a 50 07	 mov	 dl, BYTE PTR [eax+7]
  00090	84 d2		 test	 dl, dl
  00092	0f 84 a6 01 00
	00		 je	 $LN89@LoadInt_e@3
  00098	80 f2 ea	 xor	 dl, -22			; ffffffeaH
  0009b	88 55 e7	 mov	 BYTE PTR __k$[ebp+7], dl
  0009e	8a 50 08	 mov	 dl, BYTE PTR [eax+8]
  000a1	84 d2		 test	 dl, dl
  000a3	0f 84 8f 01 00
	00		 je	 $LN88@LoadInt_e@3
  000a9	80 f2 ed	 xor	 dl, -19			; ffffffedH
  000ac	88 55 e8	 mov	 BYTE PTR __k$[ebp+8], dl
  000af	8a 50 09	 mov	 dl, BYTE PTR [eax+9]
  000b2	84 d2		 test	 dl, dl
  000b4	0f 84 79 01 00
	00		 je	 $LN87@LoadInt_e@3
  000ba	32 d3		 xor	 dl, bl
  000bc	88 55 e9	 mov	 BYTE PTR __k$[ebp+9], dl
  000bf	8a 50 0a	 mov	 dl, BYTE PTR [eax+10]
  000c2	84 d2		 test	 dl, dl
  000c4	0f 84 64 01 00
	00		 je	 $LN86@LoadInt_e@3
  000ca	32 d1		 xor	 dl, cl
  000cc	88 55 ea	 mov	 BYTE PTR __k$[ebp+10], dl
  000cf	8a 50 0b	 mov	 dl, BYTE PTR [eax+11]
  000d2	84 d2		 test	 dl, dl
  000d4	0f 84 4e 01 00
	00		 je	 $LN85@LoadInt_e@3
  000da	80 f2 ea	 xor	 dl, -22			; ffffffeaH
  000dd	88 55 eb	 mov	 BYTE PTR __k$[ebp+11], dl
  000e0	8a 50 0c	 mov	 dl, BYTE PTR [eax+12]
  000e3	84 d2		 test	 dl, dl
  000e5	0f 84 37 01 00
	00		 je	 $LN84@LoadInt_e@3
  000eb	80 f2 ed	 xor	 dl, -19			; ffffffedH
  000ee	88 55 ec	 mov	 BYTE PTR __k$[ebp+12], dl
  000f1	8a 50 0d	 mov	 dl, BYTE PTR [eax+13]
  000f4	84 d2		 test	 dl, dl
  000f6	0f 84 21 01 00
	00		 je	 $LN83@LoadInt_e@3
  000fc	32 d3		 xor	 dl, bl
  000fe	88 55 ed	 mov	 BYTE PTR __k$[ebp+13], dl
  00101	8a 50 0e	 mov	 dl, BYTE PTR [eax+14]
  00104	84 d2		 test	 dl, dl
  00106	0f 84 0c 01 00
	00		 je	 $LN82@LoadInt_e@3
  0010c	32 d1		 xor	 dl, cl
  0010e	88 55 ee	 mov	 BYTE PTR __k$[ebp+14], dl
  00111	8a 50 0f	 mov	 dl, BYTE PTR [eax+15]
  00114	84 d2		 test	 dl, dl
  00116	0f 84 f6 00 00
	00		 je	 $LN81@LoadInt_e@3
  0011c	80 f2 ea	 xor	 dl, -22			; ffffffeaH
  0011f	88 55 ef	 mov	 BYTE PTR __k$[ebp+15], dl
  00122	8a 50 10	 mov	 dl, BYTE PTR [eax+16]
  00125	84 d2		 test	 dl, dl
  00127	0f 84 df 00 00
	00		 je	 $LN80@LoadInt_e@3
  0012d	80 f2 ed	 xor	 dl, -19			; ffffffedH
  00130	88 55 f0	 mov	 BYTE PTR __k$[ebp+16], dl
  00133	8a 50 11	 mov	 dl, BYTE PTR [eax+17]
  00136	84 d2		 test	 dl, dl
  00138	0f 84 c9 00 00
	00		 je	 $LN79@LoadInt_e@3
  0013e	32 d3		 xor	 dl, bl
  00140	88 55 f1	 mov	 BYTE PTR __k$[ebp+17], dl
  00143	8a 50 12	 mov	 dl, BYTE PTR [eax+18]
  00146	84 d2		 test	 dl, dl
  00148	0f 84 b4 00 00
	00		 je	 $LN78@LoadInt_e@3
  0014e	32 d1		 xor	 dl, cl
  00150	88 55 f2	 mov	 BYTE PTR __k$[ebp+18], dl
  00153	8a 50 13	 mov	 dl, BYTE PTR [eax+19]
  00156	84 d2		 test	 dl, dl
  00158	0f 84 9e 00 00
	00		 je	 $LN77@LoadInt_e@3
  0015e	80 f2 ea	 xor	 dl, -22			; ffffffeaH
  00161	88 55 f3	 mov	 BYTE PTR __k$[ebp+19], dl
  00164	8a 50 14	 mov	 dl, BYTE PTR [eax+20]
  00167	84 d2		 test	 dl, dl
  00169	0f 84 87 00 00
	00		 je	 $LN76@LoadInt_e@3
  0016f	80 f2 ed	 xor	 dl, -19			; ffffffedH
  00172	88 55 f4	 mov	 BYTE PTR __k$[ebp+20], dl
  00175	8a 50 15	 mov	 dl, BYTE PTR [eax+21]
  00178	84 d2		 test	 dl, dl
  0017a	74 75		 je	 SHORT $LN75@LoadInt_e@3
  0017c	32 d3		 xor	 dl, bl
  0017e	88 55 f5	 mov	 BYTE PTR __k$[ebp+21], dl
  00181	8a 50 16	 mov	 dl, BYTE PTR [eax+22]
  00184	84 d2		 test	 dl, dl
  00186	74 64		 je	 SHORT $LN74@LoadInt_e@3
  00188	32 d1		 xor	 dl, cl
  0018a	80 78 17 00	 cmp	 BYTE PTR [eax+23], 0
  0018e	88 55 f6	 mov	 BYTE PTR __k$[ebp+22], dl
  00191	0f 84 d3 00 00
	00		 je	 $LN1@LoadInt_e@3
  00197	8a 50 18	 mov	 dl, BYTE PTR [eax+24]
  0019a	84 d2		 test	 dl, dl
  0019c	74 48		 je	 SHORT $LN72@LoadInt_e@3
  0019e	80 f2 ed	 xor	 dl, -19			; ffffffedH
  001a1	88 55 f8	 mov	 BYTE PTR __k$[ebp+24], dl
  001a4	8a 50 19	 mov	 dl, BYTE PTR [eax+25]
  001a7	84 d2		 test	 dl, dl
  001a9	74 33		 je	 SHORT $LN71@LoadInt_e@3
  001ab	32 d3		 xor	 dl, bl
  001ad	88 55 f9	 mov	 BYTE PTR __k$[ebp+25], dl
  001b0	8a 50 1a	 mov	 dl, BYTE PTR [eax+26]
  001b3	84 d2		 test	 dl, dl
  001b5	74 1f		 je	 SHORT $LN70@LoadInt_e@3
  001b7	8a 40 1b	 mov	 al, BYTE PTR [eax+27]
  001ba	32 d1		 xor	 dl, cl
  001bc	88 55 fa	 mov	 BYTE PTR __k$[ebp+26], dl
  001bf	84 c0		 test	 al, al
  001c1	74 0a		 je	 SHORT $LN69@LoadInt_e@3
  001c3	34 ea		 xor	 al, -22			; ffffffeaH
  001c5	88 45 fb	 mov	 BYTE PTR __k$[ebp+27], al
  001c8	e9 9d 00 00 00	 jmp	 $LN1@LoadInt_e@3
$LN69@LoadInt_e@3:
  001cd	c6 45 fb ea	 mov	 BYTE PTR __k$[ebp+27], -22 ; ffffffeaH
  001d1	e9 94 00 00 00	 jmp	 $LN1@LoadInt_e@3
$LN70@LoadInt_e@3:
  001d6	88 4d fa	 mov	 BYTE PTR __k$[ebp+26], cl
  001d9	e9 8c 00 00 00	 jmp	 $LN1@LoadInt_e@3
$LN71@LoadInt_e@3:
  001de	88 5d f9	 mov	 BYTE PTR __k$[ebp+25], bl
  001e1	e9 84 00 00 00	 jmp	 $LN1@LoadInt_e@3
$LN72@LoadInt_e@3:
  001e6	c6 45 f8 ed	 mov	 BYTE PTR __k$[ebp+24], -19 ; ffffffedH
  001ea	eb 7e		 jmp	 SHORT $LN1@LoadInt_e@3
$LN74@LoadInt_e@3:
  001ec	88 4d f6	 mov	 BYTE PTR __k$[ebp+22], cl
  001ef	eb 79		 jmp	 SHORT $LN1@LoadInt_e@3
$LN75@LoadInt_e@3:
  001f1	88 5d f5	 mov	 BYTE PTR __k$[ebp+21], bl
  001f4	eb 74		 jmp	 SHORT $LN1@LoadInt_e@3
$LN76@LoadInt_e@3:
  001f6	c6 45 f4 ed	 mov	 BYTE PTR __k$[ebp+20], -19 ; ffffffedH
  001fa	eb 6e		 jmp	 SHORT $LN1@LoadInt_e@3
$LN77@LoadInt_e@3:
  001fc	c6 45 f3 ea	 mov	 BYTE PTR __k$[ebp+19], -22 ; ffffffeaH
  00200	eb 68		 jmp	 SHORT $LN1@LoadInt_e@3
$LN78@LoadInt_e@3:
  00202	88 4d f2	 mov	 BYTE PTR __k$[ebp+18], cl
  00205	eb 63		 jmp	 SHORT $LN1@LoadInt_e@3
$LN79@LoadInt_e@3:
  00207	88 5d f1	 mov	 BYTE PTR __k$[ebp+17], bl
  0020a	eb 5e		 jmp	 SHORT $LN1@LoadInt_e@3
$LN80@LoadInt_e@3:
  0020c	c6 45 f0 ed	 mov	 BYTE PTR __k$[ebp+16], -19 ; ffffffedH
  00210	eb 58		 jmp	 SHORT $LN1@LoadInt_e@3
$LN81@LoadInt_e@3:
  00212	c6 45 ef ea	 mov	 BYTE PTR __k$[ebp+15], -22 ; ffffffeaH
  00216	eb 52		 jmp	 SHORT $LN1@LoadInt_e@3
$LN82@LoadInt_e@3:
  00218	88 4d ee	 mov	 BYTE PTR __k$[ebp+14], cl
  0021b	eb 4d		 jmp	 SHORT $LN1@LoadInt_e@3
$LN83@LoadInt_e@3:
  0021d	88 5d ed	 mov	 BYTE PTR __k$[ebp+13], bl
  00220	eb 48		 jmp	 SHORT $LN1@LoadInt_e@3
$LN84@LoadInt_e@3:
  00222	c6 45 ec ed	 mov	 BYTE PTR __k$[ebp+12], -19 ; ffffffedH
  00226	eb 42		 jmp	 SHORT $LN1@LoadInt_e@3
$LN85@LoadInt_e@3:
  00228	c6 45 eb ea	 mov	 BYTE PTR __k$[ebp+11], -22 ; ffffffeaH
  0022c	eb 3c		 jmp	 SHORT $LN1@LoadInt_e@3
$LN86@LoadInt_e@3:
  0022e	88 4d ea	 mov	 BYTE PTR __k$[ebp+10], cl
  00231	eb 37		 jmp	 SHORT $LN1@LoadInt_e@3
$LN87@LoadInt_e@3:
  00233	88 5d e9	 mov	 BYTE PTR __k$[ebp+9], bl
  00236	eb 32		 jmp	 SHORT $LN1@LoadInt_e@3
$LN88@LoadInt_e@3:
  00238	c6 45 e8 ed	 mov	 BYTE PTR __k$[ebp+8], -19 ; ffffffedH
  0023c	eb 2c		 jmp	 SHORT $LN1@LoadInt_e@3
$LN89@LoadInt_e@3:
  0023e	c6 45 e7 ea	 mov	 BYTE PTR __k$[ebp+7], -22 ; ffffffeaH
  00242	eb 26		 jmp	 SHORT $LN1@LoadInt_e@3
$LN90@LoadInt_e@3:
  00244	88 4d e6	 mov	 BYTE PTR __k$[ebp+6], cl
  00247	eb 21		 jmp	 SHORT $LN1@LoadInt_e@3
$LN91@LoadInt_e@3:
  00249	88 5d e5	 mov	 BYTE PTR __k$[ebp+5], bl
  0024c	eb 1c		 jmp	 SHORT $LN1@LoadInt_e@3
$LN92@LoadInt_e@3:
  0024e	c6 45 e4 ed	 mov	 BYTE PTR __k$[ebp+4], -19 ; ffffffedH
  00252	eb 16		 jmp	 SHORT $LN1@LoadInt_e@3
$LN93@LoadInt_e@3:
  00254	c6 45 e3 ea	 mov	 BYTE PTR __k$[ebp+3], -22 ; ffffffeaH
  00258	eb 10		 jmp	 SHORT $LN1@LoadInt_e@3
$LN94@LoadInt_e@3:
  0025a	c6 45 e2 eb	 mov	 BYTE PTR __k$[ebp+2], -21 ; ffffffebH
  0025e	eb 0a		 jmp	 SHORT $LN1@LoadInt_e@3
$LN95@LoadInt_e@3:
  00260	c6 45 e1 ec	 mov	 BYTE PTR __k$[ebp+1], -20 ; ffffffecH
  00264	eb 04		 jmp	 SHORT $LN1@LoadInt_e@3
$LN96@LoadInt_e@3:
  00266	c6 45 e0 ed	 mov	 BYTE PTR __k$[ebp], -19	; ffffffedH
$LN1@LoadInt_e@3:
  0026a	6a 05		 push	 5
  0026c	8d 45 e0	 lea	 eax, DWORD PTR __k$[ebp]
  0026f	c6 45 f7 00	 mov	 BYTE PTR __k$[ebp+23], 0
  00273	5a		 pop	 edx
$LL104@LoadInt_e@3:
  00274	81 30 ed ec eb
	ea		 xor	 DWORD PTR [eax], -353637139 ; eaebecedH
  0027a	83 c0 04	 add	 eax, 4
  0027d	4a		 dec	 edx
  0027e	75 f4		 jne	 SHORT $LL104@LoadInt_e@3
  00280	6a 14		 push	 20			; 00000014H
  00282	58		 pop	 eax
$LL101@LoadInt_e@3:
  00283	8b c8		 mov	 ecx, eax
  00285	81 e1 03 00 00
	80		 and	 ecx, -2147483645	; 80000003H
  0028b	79 05		 jns	 SHORT $LN111@LoadInt_e@3
  0028d	49		 dec	 ecx
  0028e	83 c9 fc	 or	 ecx, -4			; fffffffcH
  00291	41		 inc	 ecx
$LN111@LoadInt_e@3:
  00292	b2 ed		 mov	 dl, -19			; ffffffedH
  00294	2a d1		 sub	 dl, cl
  00296	30 54 05 e0	 xor	 BYTE PTR __k$[ebp+eax], dl
  0029a	40		 inc	 eax
  0029b	83 f8 17	 cmp	 eax, 23			; 00000017H
  0029e	7c e3		 jl	 SHORT $LL101@LoadInt_e@3

; 120  : 		return LoadInt(_k, i);

  002a0	ff 75 0c	 push	 DWORD PTR _i$[ebp]
  002a3	8d 45 e0	 lea	 eax, DWORD PTR __k$[ebp]
  002a6	50		 push	 eax
  002a7	8b ce		 mov	 ecx, esi
  002a9	ff 15 00 00 00
	00		 call	 DWORD PTR __imp_?LoadInt@ioINILoader@@QAEHPBDH@Z

; 121  : 	}

  002af	8b 4d fc	 mov	 ecx, DWORD PTR __$ArrayPad$[ebp]
  002b2	5e		 pop	 esi
  002b3	33 cd		 xor	 ecx, ebp
  002b5	5b		 pop	 ebx
  002b6	e8 00 00 00 00	 call	 @__security_check_cookie@4
  002bb	c9		 leave
  002bc	c2 08 00	 ret	 8
??$LoadInt_e@$0BI@@ioINILoader@@QAEHAAY0BI@$$CBDH@Z ENDP ; ioINILoader::LoadInt_e<24>
_TEXT	ENDS
PUBLIC	__$ArrayPad$
PUBLIC	??$LoadBool_e@$0BI@@ioINILoader@@QAE_NAAY0BI@$$CBD_N@Z ; ioINILoader::LoadBool_e<24>
; Function compile flags: /Ogsp
;	COMDAT ??$LoadBool_e@$0BI@@ioINILoader@@QAE_NAAY0BI@$$CBD_N@Z
_TEXT	SEGMENT
__k$ = -32						; size = 24
__$ArrayPad$ = -4					; size = 4
_k$ = 8							; size = 4
_b$ = 12						; size = 1
??$LoadBool_e@$0BI@@ioINILoader@@QAE_NAAY0BI@$$CBD_N@Z PROC ; ioINILoader::LoadBool_e<24>, COMDAT
; _this$ = ecx

; 101  : 	{

  00000	55		 push	 ebp
  00001	8b ec		 mov	 ebp, esp
  00003	83 ec 20	 sub	 esp, 32			; 00000020H
  00006	a1 00 00 00 00	 mov	 eax, DWORD PTR ___security_cookie
  0000b	33 c5		 xor	 eax, ebp
  0000d	89 45 fc	 mov	 DWORD PTR __$ArrayPad$[ebp], eax
  00010	8b 45 08	 mov	 eax, DWORD PTR _k$[ebp]

; 102  : 		_ENCSTR(k, _k);

  00013	8a 10		 mov	 dl, BYTE PTR [eax]
  00015	53		 push	 ebx
  00016	56		 push	 esi
  00017	8b f1		 mov	 esi, ecx
  00019	84 d2		 test	 dl, dl
  0001b	0f 84 45 02 00
	00		 je	 $LN96@LoadBool_e@2
  00021	80 f2 ed	 xor	 dl, -19			; ffffffedH
  00024	88 55 e0	 mov	 BYTE PTR __k$[ebp], dl
  00027	8a 50 01	 mov	 dl, BYTE PTR [eax+1]
  0002a	84 d2		 test	 dl, dl
  0002c	0f 84 2e 02 00
	00		 je	 $LN95@LoadBool_e@2
  00032	b3 ec		 mov	 bl, -20			; ffffffecH
  00034	32 d3		 xor	 dl, bl
  00036	88 55 e1	 mov	 BYTE PTR __k$[ebp+1], dl
  00039	8a 50 02	 mov	 dl, BYTE PTR [eax+2]
  0003c	84 d2		 test	 dl, dl
  0003e	0f 84 16 02 00
	00		 je	 $LN94@LoadBool_e@2
  00044	b1 eb		 mov	 cl, -21			; ffffffebH
  00046	32 d1		 xor	 dl, cl
  00048	88 55 e2	 mov	 BYTE PTR __k$[ebp+2], dl
  0004b	8a 50 03	 mov	 dl, BYTE PTR [eax+3]
  0004e	84 d2		 test	 dl, dl
  00050	0f 84 fe 01 00
	00		 je	 $LN93@LoadBool_e@2
  00056	80 f2 ea	 xor	 dl, -22			; ffffffeaH
  00059	88 55 e3	 mov	 BYTE PTR __k$[ebp+3], dl
  0005c	8a 50 04	 mov	 dl, BYTE PTR [eax+4]
  0005f	84 d2		 test	 dl, dl
  00061	0f 84 e7 01 00
	00		 je	 $LN92@LoadBool_e@2
  00067	80 f2 ed	 xor	 dl, -19			; ffffffedH
  0006a	88 55 e4	 mov	 BYTE PTR __k$[ebp+4], dl
  0006d	8a 50 05	 mov	 dl, BYTE PTR [eax+5]
  00070	84 d2		 test	 dl, dl
  00072	0f 84 d1 01 00
	00		 je	 $LN91@LoadBool_e@2
  00078	32 d3		 xor	 dl, bl
  0007a	88 55 e5	 mov	 BYTE PTR __k$[ebp+5], dl
  0007d	8a 50 06	 mov	 dl, BYTE PTR [eax+6]
  00080	84 d2		 test	 dl, dl
  00082	0f 84 bc 01 00
	00		 je	 $LN90@LoadBool_e@2
  00088	32 d1		 xor	 dl, cl
  0008a	88 55 e6	 mov	 BYTE PTR __k$[ebp+6], dl
  0008d	8a 50 07	 mov	 dl, BYTE PTR [eax+7]
  00090	84 d2		 test	 dl, dl
  00092	0f 84 a6 01 00
	00		 je	 $LN89@LoadBool_e@2
  00098	80 f2 ea	 xor	 dl, -22			; ffffffeaH
  0009b	88 55 e7	 mov	 BYTE PTR __k$[ebp+7], dl
  0009e	8a 50 08	 mov	 dl, BYTE PTR [eax+8]
  000a1	84 d2		 test	 dl, dl
  000a3	0f 84 8f 01 00
	00		 je	 $LN88@LoadBool_e@2
  000a9	80 f2 ed	 xor	 dl, -19			; ffffffedH
  000ac	88 55 e8	 mov	 BYTE PTR __k$[ebp+8], dl
  000af	8a 50 09	 mov	 dl, BYTE PTR [eax+9]
  000b2	84 d2		 test	 dl, dl
  000b4	0f 84 79 01 00
	00		 je	 $LN87@LoadBool_e@2
  000ba	32 d3		 xor	 dl, bl
  000bc	88 55 e9	 mov	 BYTE PTR __k$[ebp+9], dl
  000bf	8a 50 0a	 mov	 dl, BYTE PTR [eax+10]
  000c2	84 d2		 test	 dl, dl
  000c4	0f 84 64 01 00
	00		 je	 $LN86@LoadBool_e@2
  000ca	32 d1		 xor	 dl, cl
  000cc	88 55 ea	 mov	 BYTE PTR __k$[ebp+10], dl
  000cf	8a 50 0b	 mov	 dl, BYTE PTR [eax+11]
  000d2	84 d2		 test	 dl, dl
  000d4	0f 84 4e 01 00
	00		 je	 $LN85@LoadBool_e@2
  000da	80 f2 ea	 xor	 dl, -22			; ffffffeaH
  000dd	88 55 eb	 mov	 BYTE PTR __k$[ebp+11], dl
  000e0	8a 50 0c	 mov	 dl, BYTE PTR [eax+12]
  000e3	84 d2		 test	 dl, dl
  000e5	0f 84 37 01 00
	00		 je	 $LN84@LoadBool_e@2
  000eb	80 f2 ed	 xor	 dl, -19			; ffffffedH
  000ee	88 55 ec	 mov	 BYTE PTR __k$[ebp+12], dl
  000f1	8a 50 0d	 mov	 dl, BYTE PTR [eax+13]
  000f4	84 d2		 test	 dl, dl
  000f6	0f 84 21 01 00
	00		 je	 $LN83@LoadBool_e@2
  000fc	32 d3		 xor	 dl, bl
  000fe	88 55 ed	 mov	 BYTE PTR __k$[ebp+13], dl
  00101	8a 50 0e	 mov	 dl, BYTE PTR [eax+14]
  00104	84 d2		 test	 dl, dl
  00106	0f 84 0c 01 00
	00		 je	 $LN82@LoadBool_e@2
  0010c	32 d1		 xor	 dl, cl
  0010e	88 55 ee	 mov	 BYTE PTR __k$[ebp+14], dl
  00111	8a 50 0f	 mov	 dl, BYTE PTR [eax+15]
  00114	84 d2		 test	 dl, dl
  00116	0f 84 f6 00 00
	00		 je	 $LN81@LoadBool_e@2
  0011c	80 f2 ea	 xor	 dl, -22			; ffffffeaH
  0011f	88 55 ef	 mov	 BYTE PTR __k$[ebp+15], dl
  00122	8a 50 10	 mov	 dl, BYTE PTR [eax+16]
  00125	84 d2		 test	 dl, dl
  00127	0f 84 df 00 00
	00		 je	 $LN80@LoadBool_e@2
  0012d	80 f2 ed	 xor	 dl, -19			; ffffffedH
  00130	88 55 f0	 mov	 BYTE PTR __k$[ebp+16], dl
  00133	8a 50 11	 mov	 dl, BYTE PTR [eax+17]
  00136	84 d2		 test	 dl, dl
  00138	0f 84 c9 00 00
	00		 je	 $LN79@LoadBool_e@2
  0013e	32 d3		 xor	 dl, bl
  00140	88 55 f1	 mov	 BYTE PTR __k$[ebp+17], dl
  00143	8a 50 12	 mov	 dl, BYTE PTR [eax+18]
  00146	84 d2		 test	 dl, dl
  00148	0f 84 b4 00 00
	00		 je	 $LN78@LoadBool_e@2
  0014e	32 d1		 xor	 dl, cl
  00150	88 55 f2	 mov	 BYTE PTR __k$[ebp+18], dl
  00153	8a 50 13	 mov	 dl, BYTE PTR [eax+19]
  00156	84 d2		 test	 dl, dl
  00158	0f 84 9e 00 00
	00		 je	 $LN77@LoadBool_e@2
  0015e	80 f2 ea	 xor	 dl, -22			; ffffffeaH
  00161	88 55 f3	 mov	 BYTE PTR __k$[ebp+19], dl
  00164	8a 50 14	 mov	 dl, BYTE PTR [eax+20]
  00167	84 d2		 test	 dl, dl
  00169	0f 84 87 00 00
	00		 je	 $LN76@LoadBool_e@2
  0016f	80 f2 ed	 xor	 dl, -19			; ffffffedH
  00172	88 55 f4	 mov	 BYTE PTR __k$[ebp+20], dl
  00175	8a 50 15	 mov	 dl, BYTE PTR [eax+21]
  00178	84 d2		 test	 dl, dl
  0017a	74 75		 je	 SHORT $LN75@LoadBool_e@2
  0017c	32 d3		 xor	 dl, bl
  0017e	88 55 f5	 mov	 BYTE PTR __k$[ebp+21], dl
  00181	8a 50 16	 mov	 dl, BYTE PTR [eax+22]
  00184	84 d2		 test	 dl, dl
  00186	74 64		 je	 SHORT $LN74@LoadBool_e@2
  00188	32 d1		 xor	 dl, cl
  0018a	80 78 17 00	 cmp	 BYTE PTR [eax+23], 0
  0018e	88 55 f6	 mov	 BYTE PTR __k$[ebp+22], dl
  00191	0f 84 d3 00 00
	00		 je	 $LN1@LoadBool_e@2
  00197	8a 50 18	 mov	 dl, BYTE PTR [eax+24]
  0019a	84 d2		 test	 dl, dl
  0019c	74 48		 je	 SHORT $LN72@LoadBool_e@2
  0019e	80 f2 ed	 xor	 dl, -19			; ffffffedH
  001a1	88 55 f8	 mov	 BYTE PTR __k$[ebp+24], dl
  001a4	8a 50 19	 mov	 dl, BYTE PTR [eax+25]
  001a7	84 d2		 test	 dl, dl
  001a9	74 33		 je	 SHORT $LN71@LoadBool_e@2
  001ab	32 d3		 xor	 dl, bl
  001ad	88 55 f9	 mov	 BYTE PTR __k$[ebp+25], dl
  001b0	8a 50 1a	 mov	 dl, BYTE PTR [eax+26]
  001b3	84 d2		 test	 dl, dl
  001b5	74 1f		 je	 SHORT $LN70@LoadBool_e@2
  001b7	8a 40 1b	 mov	 al, BYTE PTR [eax+27]
  001ba	32 d1		 xor	 dl, cl
  001bc	88 55 fa	 mov	 BYTE PTR __k$[ebp+26], dl
  001bf	84 c0		 test	 al, al
  001c1	74 0a		 je	 SHORT $LN69@LoadBool_e@2
  001c3	34 ea		 xor	 al, -22			; ffffffeaH
  001c5	88 45 fb	 mov	 BYTE PTR __k$[ebp+27], al
  001c8	e9 9d 00 00 00	 jmp	 $LN1@LoadBool_e@2
$LN69@LoadBool_e@2:
  001cd	c6 45 fb ea	 mov	 BYTE PTR __k$[ebp+27], -22 ; ffffffeaH
  001d1	e9 94 00 00 00	 jmp	 $LN1@LoadBool_e@2
$LN70@LoadBool_e@2:
  001d6	88 4d fa	 mov	 BYTE PTR __k$[ebp+26], cl
  001d9	e9 8c 00 00 00	 jmp	 $LN1@LoadBool_e@2
$LN71@LoadBool_e@2:
  001de	88 5d f9	 mov	 BYTE PTR __k$[ebp+25], bl
  001e1	e9 84 00 00 00	 jmp	 $LN1@LoadBool_e@2
$LN72@LoadBool_e@2:
  001e6	c6 45 f8 ed	 mov	 BYTE PTR __k$[ebp+24], -19 ; ffffffedH
  001ea	eb 7e		 jmp	 SHORT $LN1@LoadBool_e@2
$LN74@LoadBool_e@2:
  001ec	88 4d f6	 mov	 BYTE PTR __k$[ebp+22], cl
  001ef	eb 79		 jmp	 SHORT $LN1@LoadBool_e@2
$LN75@LoadBool_e@2:
  001f1	88 5d f5	 mov	 BYTE PTR __k$[ebp+21], bl
  001f4	eb 74		 jmp	 SHORT $LN1@LoadBool_e@2
$LN76@LoadBool_e@2:
  001f6	c6 45 f4 ed	 mov	 BYTE PTR __k$[ebp+20], -19 ; ffffffedH
  001fa	eb 6e		 jmp	 SHORT $LN1@LoadBool_e@2
$LN77@LoadBool_e@2:
  001fc	c6 45 f3 ea	 mov	 BYTE PTR __k$[ebp+19], -22 ; ffffffeaH
  00200	eb 68		 jmp	 SHORT $LN1@LoadBool_e@2
$LN78@LoadBool_e@2:
  00202	88 4d f2	 mov	 BYTE PTR __k$[ebp+18], cl
  00205	eb 63		 jmp	 SHORT $LN1@LoadBool_e@2
$LN79@LoadBool_e@2:
  00207	88 5d f1	 mov	 BYTE PTR __k$[ebp+17], bl
  0020a	eb 5e		 jmp	 SHORT $LN1@LoadBool_e@2
$LN80@LoadBool_e@2:
  0020c	c6 45 f0 ed	 mov	 BYTE PTR __k$[ebp+16], -19 ; ffffffedH
  00210	eb 58		 jmp	 SHORT $LN1@LoadBool_e@2
$LN81@LoadBool_e@2:
  00212	c6 45 ef ea	 mov	 BYTE PTR __k$[ebp+15], -22 ; ffffffeaH
  00216	eb 52		 jmp	 SHORT $LN1@LoadBool_e@2
$LN82@LoadBool_e@2:
  00218	88 4d ee	 mov	 BYTE PTR __k$[ebp+14], cl
  0021b	eb 4d		 jmp	 SHORT $LN1@LoadBool_e@2
$LN83@LoadBool_e@2:
  0021d	88 5d ed	 mov	 BYTE PTR __k$[ebp+13], bl
  00220	eb 48		 jmp	 SHORT $LN1@LoadBool_e@2
$LN84@LoadBool_e@2:
  00222	c6 45 ec ed	 mov	 BYTE PTR __k$[ebp+12], -19 ; ffffffedH
  00226	eb 42		 jmp	 SHORT $LN1@LoadBool_e@2
$LN85@LoadBool_e@2:
  00228	c6 45 eb ea	 mov	 BYTE PTR __k$[ebp+11], -22 ; ffffffeaH
  0022c	eb 3c		 jmp	 SHORT $LN1@LoadBool_e@2
$LN86@LoadBool_e@2:
  0022e	88 4d ea	 mov	 BYTE PTR __k$[ebp+10], cl
  00231	eb 37		 jmp	 SHORT $LN1@LoadBool_e@2
$LN87@LoadBool_e@2:
  00233	88 5d e9	 mov	 BYTE PTR __k$[ebp+9], bl
  00236	eb 32		 jmp	 SHORT $LN1@LoadBool_e@2
$LN88@LoadBool_e@2:
  00238	c6 45 e8 ed	 mov	 BYTE PTR __k$[ebp+8], -19 ; ffffffedH
  0023c	eb 2c		 jmp	 SHORT $LN1@LoadBool_e@2
$LN89@LoadBool_e@2:
  0023e	c6 45 e7 ea	 mov	 BYTE PTR __k$[ebp+7], -22 ; ffffffeaH
  00242	eb 26		 jmp	 SHORT $LN1@LoadBool_e@2
$LN90@LoadBool_e@2:
  00244	88 4d e6	 mov	 BYTE PTR __k$[ebp+6], cl
  00247	eb 21		 jmp	 SHORT $LN1@LoadBool_e@2
$LN91@LoadBool_e@2:
  00249	88 5d e5	 mov	 BYTE PTR __k$[ebp+5], bl
  0024c	eb 1c		 jmp	 SHORT $LN1@LoadBool_e@2
$LN92@LoadBool_e@2:
  0024e	c6 45 e4 ed	 mov	 BYTE PTR __k$[ebp+4], -19 ; ffffffedH
  00252	eb 16		 jmp	 SHORT $LN1@LoadBool_e@2
$LN93@LoadBool_e@2:
  00254	c6 45 e3 ea	 mov	 BYTE PTR __k$[ebp+3], -22 ; ffffffeaH
  00258	eb 10		 jmp	 SHORT $LN1@LoadBool_e@2
$LN94@LoadBool_e@2:
  0025a	c6 45 e2 eb	 mov	 BYTE PTR __k$[ebp+2], -21 ; ffffffebH
  0025e	eb 0a		 jmp	 SHORT $LN1@LoadBool_e@2
$LN95@LoadBool_e@2:
  00260	c6 45 e1 ec	 mov	 BYTE PTR __k$[ebp+1], -20 ; ffffffecH
  00264	eb 04		 jmp	 SHORT $LN1@LoadBool_e@2
$LN96@LoadBool_e@2:
  00266	c6 45 e0 ed	 mov	 BYTE PTR __k$[ebp], -19	; ffffffedH
$LN1@LoadBool_e@2:
  0026a	6a 05		 push	 5
  0026c	8d 45 e0	 lea	 eax, DWORD PTR __k$[ebp]
  0026f	c6 45 f7 00	 mov	 BYTE PTR __k$[ebp+23], 0
  00273	5a		 pop	 edx
$LL104@LoadBool_e@2:
  00274	81 30 ed ec eb
	ea		 xor	 DWORD PTR [eax], -353637139 ; eaebecedH
  0027a	83 c0 04	 add	 eax, 4
  0027d	4a		 dec	 edx
  0027e	75 f4		 jne	 SHORT $LL104@LoadBool_e@2
  00280	6a 14		 push	 20			; 00000014H
  00282	58		 pop	 eax
$LL101@LoadBool_e@2:
  00283	8b c8		 mov	 ecx, eax
  00285	81 e1 03 00 00
	80		 and	 ecx, -2147483645	; 80000003H
  0028b	79 05		 jns	 SHORT $LN111@LoadBool_e@2
  0028d	49		 dec	 ecx
  0028e	83 c9 fc	 or	 ecx, -4			; fffffffcH
  00291	41		 inc	 ecx
$LN111@LoadBool_e@2:
  00292	b2 ed		 mov	 dl, -19			; ffffffedH
  00294	2a d1		 sub	 dl, cl
  00296	30 54 05 e0	 xor	 BYTE PTR __k$[ebp+eax], dl
  0029a	40		 inc	 eax
  0029b	83 f8 17	 cmp	 eax, 23			; 00000017H
  0029e	7c e3		 jl	 SHORT $LL101@LoadBool_e@2

; 103  : 		return LoadBool(_k, b);

  002a0	ff 75 0c	 push	 DWORD PTR _b$[ebp]
  002a3	8d 45 e0	 lea	 eax, DWORD PTR __k$[ebp]
  002a6	50		 push	 eax
  002a7	8b ce		 mov	 ecx, esi
  002a9	ff 15 00 00 00
	00		 call	 DWORD PTR __imp_?LoadBool@ioINILoader@@QAE_NPBD_N@Z

; 104  : 	}

  002af	8b 4d fc	 mov	 ecx, DWORD PTR __$ArrayPad$[ebp]
  002b2	5e		 pop	 esi
  002b3	33 cd		 xor	 ecx, ebp
  002b5	5b		 pop	 ebx
  002b6	e8 00 00 00 00	 call	 @__security_check_cookie@4
  002bb	c9		 leave
  002bc	c2 08 00	 ret	 8
??$LoadBool_e@$0BI@@ioINILoader@@QAE_NAAY0BI@$$CBD_N@Z ENDP ; ioINILoader::LoadBool_e<24>
_TEXT	ENDS
PUBLIC	__$ArrayPad$
PUBLIC	??$LoadInt_e@$0BH@@ioINILoader@@QAEHAAY0BH@$$CBDH@Z ; ioINILoader::LoadInt_e<23>
; Function compile flags: /Ogsp
;	COMDAT ??$LoadInt_e@$0BH@@ioINILoader@@QAEHAAY0BH@$$CBDH@Z
_TEXT	SEGMENT
__k$ = -32						; size = 23
__$ArrayPad$ = -4					; size = 4
_k$ = 8							; size = 4
_i$ = 12						; size = 4
??$LoadInt_e@$0BH@@ioINILoader@@QAEHAAY0BH@$$CBDH@Z PROC ; ioINILoader::LoadInt_e<23>, COMDAT
; _this$ = ecx

; 118  : 	{

  00000	55		 push	 ebp
  00001	8b ec		 mov	 ebp, esp
  00003	83 ec 20	 sub	 esp, 32			; 00000020H
  00006	a1 00 00 00 00	 mov	 eax, DWORD PTR ___security_cookie
  0000b	33 c5		 xor	 eax, ebp
  0000d	89 45 fc	 mov	 DWORD PTR __$ArrayPad$[ebp], eax
  00010	8b 45 08	 mov	 eax, DWORD PTR _k$[ebp]

; 119  : 		_ENCSTR(k, _k);

  00013	8a 10		 mov	 dl, BYTE PTR [eax]
  00015	53		 push	 ebx
  00016	56		 push	 esi
  00017	8b f1		 mov	 esi, ecx
  00019	84 d2		 test	 dl, dl
  0001b	0f 84 2d 02 00
	00		 je	 $LN96@LoadInt_e@4
  00021	80 f2 ed	 xor	 dl, -19			; ffffffedH
  00024	88 55 e0	 mov	 BYTE PTR __k$[ebp], dl
  00027	8a 50 01	 mov	 dl, BYTE PTR [eax+1]
  0002a	84 d2		 test	 dl, dl
  0002c	0f 84 16 02 00
	00		 je	 $LN95@LoadInt_e@4
  00032	b1 ec		 mov	 cl, -20			; ffffffecH
  00034	32 d1		 xor	 dl, cl
  00036	88 55 e1	 mov	 BYTE PTR __k$[ebp+1], dl
  00039	8a 50 02	 mov	 dl, BYTE PTR [eax+2]
  0003c	84 d2		 test	 dl, dl
  0003e	0f 84 fe 01 00
	00		 je	 $LN94@LoadInt_e@4
  00044	80 f2 eb	 xor	 dl, -21			; ffffffebH
  00047	88 55 e2	 mov	 BYTE PTR __k$[ebp+2], dl
  0004a	8a 50 03	 mov	 dl, BYTE PTR [eax+3]
  0004d	84 d2		 test	 dl, dl
  0004f	0f 84 e7 01 00
	00		 je	 $LN93@LoadInt_e@4
  00055	b3 ea		 mov	 bl, -22			; ffffffeaH
  00057	32 d3		 xor	 dl, bl
  00059	88 55 e3	 mov	 BYTE PTR __k$[ebp+3], dl
  0005c	8a 50 04	 mov	 dl, BYTE PTR [eax+4]
  0005f	84 d2		 test	 dl, dl
  00061	0f 84 cf 01 00
	00		 je	 $LN92@LoadInt_e@4
  00067	80 f2 ed	 xor	 dl, -19			; ffffffedH
  0006a	88 55 e4	 mov	 BYTE PTR __k$[ebp+4], dl
  0006d	8a 50 05	 mov	 dl, BYTE PTR [eax+5]
  00070	84 d2		 test	 dl, dl
  00072	0f 84 b9 01 00
	00		 je	 $LN91@LoadInt_e@4
  00078	32 d1		 xor	 dl, cl
  0007a	88 55 e5	 mov	 BYTE PTR __k$[ebp+5], dl
  0007d	8a 50 06	 mov	 dl, BYTE PTR [eax+6]
  00080	84 d2		 test	 dl, dl
  00082	0f 84 a3 01 00
	00		 je	 $LN90@LoadInt_e@4
  00088	80 f2 eb	 xor	 dl, -21			; ffffffebH
  0008b	88 55 e6	 mov	 BYTE PTR __k$[ebp+6], dl
  0008e	8a 50 07	 mov	 dl, BYTE PTR [eax+7]
  00091	84 d2		 test	 dl, dl
  00093	0f 84 8d 01 00
	00		 je	 $LN89@LoadInt_e@4
  00099	32 d3		 xor	 dl, bl
  0009b	88 55 e7	 mov	 BYTE PTR __k$[ebp+7], dl
  0009e	8a 50 08	 mov	 dl, BYTE PTR [eax+8]
  000a1	84 d2		 test	 dl, dl
  000a3	0f 84 77 01 00
	00		 je	 $LN88@LoadInt_e@4
  000a9	80 f2 ed	 xor	 dl, -19			; ffffffedH
  000ac	88 55 e8	 mov	 BYTE PTR __k$[ebp+8], dl
  000af	8a 50 09	 mov	 dl, BYTE PTR [eax+9]
  000b2	84 d2		 test	 dl, dl
  000b4	0f 84 61 01 00
	00		 je	 $LN87@LoadInt_e@4
  000ba	32 d1		 xor	 dl, cl
  000bc	88 55 e9	 mov	 BYTE PTR __k$[ebp+9], dl
  000bf	8a 50 0a	 mov	 dl, BYTE PTR [eax+10]
  000c2	84 d2		 test	 dl, dl
  000c4	0f 84 4b 01 00
	00		 je	 $LN86@LoadInt_e@4
  000ca	80 f2 eb	 xor	 dl, -21			; ffffffebH
  000cd	88 55 ea	 mov	 BYTE PTR __k$[ebp+10], dl
  000d0	8a 50 0b	 mov	 dl, BYTE PTR [eax+11]
  000d3	84 d2		 test	 dl, dl
  000d5	0f 84 35 01 00
	00		 je	 $LN85@LoadInt_e@4
  000db	32 d3		 xor	 dl, bl
  000dd	88 55 eb	 mov	 BYTE PTR __k$[ebp+11], dl
  000e0	8a 50 0c	 mov	 dl, BYTE PTR [eax+12]
  000e3	84 d2		 test	 dl, dl
  000e5	0f 84 1f 01 00
	00		 je	 $LN84@LoadInt_e@4
  000eb	80 f2 ed	 xor	 dl, -19			; ffffffedH
  000ee	88 55 ec	 mov	 BYTE PTR __k$[ebp+12], dl
  000f1	8a 50 0d	 mov	 dl, BYTE PTR [eax+13]
  000f4	84 d2		 test	 dl, dl
  000f6	0f 84 09 01 00
	00		 je	 $LN83@LoadInt_e@4
  000fc	32 d1		 xor	 dl, cl
  000fe	88 55 ed	 mov	 BYTE PTR __k$[ebp+13], dl
  00101	8a 50 0e	 mov	 dl, BYTE PTR [eax+14]
  00104	84 d2		 test	 dl, dl
  00106	0f 84 f3 00 00
	00		 je	 $LN82@LoadInt_e@4
  0010c	80 f2 eb	 xor	 dl, -21			; ffffffebH
  0010f	88 55 ee	 mov	 BYTE PTR __k$[ebp+14], dl
  00112	8a 50 0f	 mov	 dl, BYTE PTR [eax+15]
  00115	84 d2		 test	 dl, dl
  00117	0f 84 dd 00 00
	00		 je	 $LN81@LoadInt_e@4
  0011d	32 d3		 xor	 dl, bl
  0011f	88 55 ef	 mov	 BYTE PTR __k$[ebp+15], dl
  00122	8a 50 10	 mov	 dl, BYTE PTR [eax+16]
  00125	84 d2		 test	 dl, dl
  00127	0f 84 c7 00 00
	00		 je	 $LN80@LoadInt_e@4
  0012d	80 f2 ed	 xor	 dl, -19			; ffffffedH
  00130	88 55 f0	 mov	 BYTE PTR __k$[ebp+16], dl
  00133	8a 50 11	 mov	 dl, BYTE PTR [eax+17]
  00136	84 d2		 test	 dl, dl
  00138	0f 84 b1 00 00
	00		 je	 $LN79@LoadInt_e@4
  0013e	32 d1		 xor	 dl, cl
  00140	88 55 f1	 mov	 BYTE PTR __k$[ebp+17], dl
  00143	8a 50 12	 mov	 dl, BYTE PTR [eax+18]
  00146	84 d2		 test	 dl, dl
  00148	0f 84 9b 00 00
	00		 je	 $LN78@LoadInt_e@4
  0014e	80 f2 eb	 xor	 dl, -21			; ffffffebH
  00151	88 55 f2	 mov	 BYTE PTR __k$[ebp+18], dl
  00154	8a 50 13	 mov	 dl, BYTE PTR [eax+19]
  00157	84 d2		 test	 dl, dl
  00159	0f 84 85 00 00
	00		 je	 $LN77@LoadInt_e@4
  0015f	32 d3		 xor	 dl, bl
  00161	88 55 f3	 mov	 BYTE PTR __k$[ebp+19], dl
  00164	8a 50 14	 mov	 dl, BYTE PTR [eax+20]
  00167	84 d2		 test	 dl, dl
  00169	74 73		 je	 SHORT $LN76@LoadInt_e@4
  0016b	80 f2 ed	 xor	 dl, -19			; ffffffedH
  0016e	88 55 f4	 mov	 BYTE PTR __k$[ebp+20], dl
  00171	8a 50 15	 mov	 dl, BYTE PTR [eax+21]
  00174	84 d2		 test	 dl, dl
  00176	74 61		 je	 SHORT $LN75@LoadInt_e@4
  00178	32 d1		 xor	 dl, cl
  0017a	80 78 16 00	 cmp	 BYTE PTR [eax+22], 0
  0017e	88 55 f5	 mov	 BYTE PTR __k$[ebp+21], dl
  00181	0f 84 cb 00 00
	00		 je	 $LN1@LoadInt_e@4
  00187	8a 50 17	 mov	 dl, BYTE PTR [eax+23]
  0018a	84 d2		 test	 dl, dl
  0018c	74 46		 je	 SHORT $LN73@LoadInt_e@4
  0018e	32 d3		 xor	 dl, bl
  00190	88 55 f7	 mov	 BYTE PTR __k$[ebp+23], dl
  00193	8a 50 18	 mov	 dl, BYTE PTR [eax+24]
  00196	84 d2		 test	 dl, dl
  00198	74 34		 je	 SHORT $LN72@LoadInt_e@4
  0019a	80 f2 ed	 xor	 dl, -19			; ffffffedH
  0019d	88 55 f8	 mov	 BYTE PTR __k$[ebp+24], dl
  001a0	8a 50 19	 mov	 dl, BYTE PTR [eax+25]
  001a3	84 d2		 test	 dl, dl
  001a5	74 1f		 je	 SHORT $LN71@LoadInt_e@4
  001a7	8a 40 1a	 mov	 al, BYTE PTR [eax+26]
  001aa	32 d1		 xor	 dl, cl
  001ac	88 55 f9	 mov	 BYTE PTR __k$[ebp+25], dl
  001af	84 c0		 test	 al, al
  001b1	74 0a		 je	 SHORT $LN70@LoadInt_e@4
  001b3	34 eb		 xor	 al, -21			; ffffffebH
  001b5	88 45 fa	 mov	 BYTE PTR __k$[ebp+26], al
  001b8	e9 95 00 00 00	 jmp	 $LN1@LoadInt_e@4
$LN70@LoadInt_e@4:
  001bd	c6 45 fa eb	 mov	 BYTE PTR __k$[ebp+26], -21 ; ffffffebH
  001c1	e9 8c 00 00 00	 jmp	 $LN1@LoadInt_e@4
$LN71@LoadInt_e@4:
  001c6	88 4d f9	 mov	 BYTE PTR __k$[ebp+25], cl
  001c9	e9 84 00 00 00	 jmp	 $LN1@LoadInt_e@4
$LN72@LoadInt_e@4:
  001ce	c6 45 f8 ed	 mov	 BYTE PTR __k$[ebp+24], -19 ; ffffffedH
  001d2	eb 7e		 jmp	 SHORT $LN1@LoadInt_e@4
$LN73@LoadInt_e@4:
  001d4	88 5d f7	 mov	 BYTE PTR __k$[ebp+23], bl
  001d7	eb 79		 jmp	 SHORT $LN1@LoadInt_e@4
$LN75@LoadInt_e@4:
  001d9	88 4d f5	 mov	 BYTE PTR __k$[ebp+21], cl
  001dc	eb 74		 jmp	 SHORT $LN1@LoadInt_e@4
$LN76@LoadInt_e@4:
  001de	c6 45 f4 ed	 mov	 BYTE PTR __k$[ebp+20], -19 ; ffffffedH
  001e2	eb 6e		 jmp	 SHORT $LN1@LoadInt_e@4
$LN77@LoadInt_e@4:
  001e4	88 5d f3	 mov	 BYTE PTR __k$[ebp+19], bl
  001e7	eb 69		 jmp	 SHORT $LN1@LoadInt_e@4
$LN78@LoadInt_e@4:
  001e9	c6 45 f2 eb	 mov	 BYTE PTR __k$[ebp+18], -21 ; ffffffebH
  001ed	eb 63		 jmp	 SHORT $LN1@LoadInt_e@4
$LN79@LoadInt_e@4:
  001ef	88 4d f1	 mov	 BYTE PTR __k$[ebp+17], cl
  001f2	eb 5e		 jmp	 SHORT $LN1@LoadInt_e@4
$LN80@LoadInt_e@4:
  001f4	c6 45 f0 ed	 mov	 BYTE PTR __k$[ebp+16], -19 ; ffffffedH
  001f8	eb 58		 jmp	 SHORT $LN1@LoadInt_e@4
$LN81@LoadInt_e@4:
  001fa	88 5d ef	 mov	 BYTE PTR __k$[ebp+15], bl
  001fd	eb 53		 jmp	 SHORT $LN1@LoadInt_e@4
$LN82@LoadInt_e@4:
  001ff	c6 45 ee eb	 mov	 BYTE PTR __k$[ebp+14], -21 ; ffffffebH
  00203	eb 4d		 jmp	 SHORT $LN1@LoadInt_e@4
$LN83@LoadInt_e@4:
  00205	88 4d ed	 mov	 BYTE PTR __k$[ebp+13], cl
  00208	eb 48		 jmp	 SHORT $LN1@LoadInt_e@4
$LN84@LoadInt_e@4:
  0020a	c6 45 ec ed	 mov	 BYTE PTR __k$[ebp+12], -19 ; ffffffedH
  0020e	eb 42		 jmp	 SHORT $LN1@LoadInt_e@4
$LN85@LoadInt_e@4:
  00210	88 5d eb	 mov	 BYTE PTR __k$[ebp+11], bl
  00213	eb 3d		 jmp	 SHORT $LN1@LoadInt_e@4
$LN86@LoadInt_e@4:
  00215	c6 45 ea eb	 mov	 BYTE PTR __k$[ebp+10], -21 ; ffffffebH
  00219	eb 37		 jmp	 SHORT $LN1@LoadInt_e@4
$LN87@LoadInt_e@4:
  0021b	88 4d e9	 mov	 BYTE PTR __k$[ebp+9], cl
  0021e	eb 32		 jmp	 SHORT $LN1@LoadInt_e@4
$LN88@LoadInt_e@4:
  00220	c6 45 e8 ed	 mov	 BYTE PTR __k$[ebp+8], -19 ; ffffffedH
  00224	eb 2c		 jmp	 SHORT $LN1@LoadInt_e@4
$LN89@LoadInt_e@4:
  00226	88 5d e7	 mov	 BYTE PTR __k$[ebp+7], bl
  00229	eb 27		 jmp	 SHORT $LN1@LoadInt_e@4
$LN90@LoadInt_e@4:
  0022b	c6 45 e6 eb	 mov	 BYTE PTR __k$[ebp+6], -21 ; ffffffebH
  0022f	eb 21		 jmp	 SHORT $LN1@LoadInt_e@4
$LN91@LoadInt_e@4:
  00231	88 4d e5	 mov	 BYTE PTR __k$[ebp+5], cl
  00234	eb 1c		 jmp	 SHORT $LN1@LoadInt_e@4
$LN92@LoadInt_e@4:
  00236	c6 45 e4 ed	 mov	 BYTE PTR __k$[ebp+4], -19 ; ffffffedH
  0023a	eb 16		 jmp	 SHORT $LN1@LoadInt_e@4
$LN93@LoadInt_e@4:
  0023c	c6 45 e3 ea	 mov	 BYTE PTR __k$[ebp+3], -22 ; ffffffeaH
  00240	eb 10		 jmp	 SHORT $LN1@LoadInt_e@4
$LN94@LoadInt_e@4:
  00242	c6 45 e2 eb	 mov	 BYTE PTR __k$[ebp+2], -21 ; ffffffebH
  00246	eb 0a		 jmp	 SHORT $LN1@LoadInt_e@4
$LN95@LoadInt_e@4:
  00248	c6 45 e1 ec	 mov	 BYTE PTR __k$[ebp+1], -20 ; ffffffecH
  0024c	eb 04		 jmp	 SHORT $LN1@LoadInt_e@4
$LN96@LoadInt_e@4:
  0024e	c6 45 e0 ed	 mov	 BYTE PTR __k$[ebp], -19	; ffffffedH
$LN1@LoadInt_e@4:
  00252	6a 05		 push	 5
  00254	8d 45 e0	 lea	 eax, DWORD PTR __k$[ebp]
  00257	c6 45 f6 00	 mov	 BYTE PTR __k$[ebp+22], 0
  0025b	5a		 pop	 edx
$LL104@LoadInt_e@4:
  0025c	81 30 ed ec eb
	ea		 xor	 DWORD PTR [eax], -353637139 ; eaebecedH
  00262	83 c0 04	 add	 eax, 4
  00265	4a		 dec	 edx
  00266	75 f4		 jne	 SHORT $LL104@LoadInt_e@4
  00268	6a 14		 push	 20			; 00000014H
  0026a	58		 pop	 eax
$LL101@LoadInt_e@4:
  0026b	8b c8		 mov	 ecx, eax
  0026d	81 e1 03 00 00
	80		 and	 ecx, -2147483645	; 80000003H
  00273	79 05		 jns	 SHORT $LN111@LoadInt_e@4
  00275	49		 dec	 ecx
  00276	83 c9 fc	 or	 ecx, -4			; fffffffcH
  00279	41		 inc	 ecx
$LN111@LoadInt_e@4:
  0027a	b2 ed		 mov	 dl, -19			; ffffffedH
  0027c	2a d1		 sub	 dl, cl
  0027e	30 54 05 e0	 xor	 BYTE PTR __k$[ebp+eax], dl
  00282	40		 inc	 eax
  00283	83 f8 16	 cmp	 eax, 22			; 00000016H
  00286	7c e3		 jl	 SHORT $LL101@LoadInt_e@4

; 120  : 		return LoadInt(_k, i);

  00288	ff 75 0c	 push	 DWORD PTR _i$[ebp]
  0028b	8d 45 e0	 lea	 eax, DWORD PTR __k$[ebp]
  0028e	50		 push	 eax
  0028f	8b ce		 mov	 ecx, esi
  00291	ff 15 00 00 00
	00		 call	 DWORD PTR __imp_?LoadInt@ioINILoader@@QAEHPBDH@Z

; 121  : 	}

  00297	8b 4d fc	 mov	 ecx, DWORD PTR __$ArrayPad$[ebp]
  0029a	5e		 pop	 esi
  0029b	33 cd		 xor	 ecx, ebp
  0029d	5b		 pop	 ebx
  0029e	e8 00 00 00 00	 call	 @__security_check_cookie@4
  002a3	c9		 leave
  002a4	c2 08 00	 ret	 8
??$LoadInt_e@$0BH@@ioINILoader@@QAEHAAY0BH@$$CBDH@Z ENDP ; ioINILoader::LoadInt_e<23>
_TEXT	ENDS
PUBLIC	__$ArrayPad$
PUBLIC	??$LoadInt_e@$0BO@@ioINILoader@@QAEHAAY0BO@$$CBDH@Z ; ioINILoader::LoadInt_e<30>
; Function compile flags: /Ogsp
;	COMDAT ??$LoadInt_e@$0BO@@ioINILoader@@QAEHAAY0BO@$$CBDH@Z
_TEXT	SEGMENT
__k$ = -40						; size = 30
__$ArrayPad$ = -4					; size = 4
_k$ = 8							; size = 4
_i$ = 12						; size = 4
??$LoadInt_e@$0BO@@ioINILoader@@QAEHAAY0BO@$$CBDH@Z PROC ; ioINILoader::LoadInt_e<30>, COMDAT
; _this$ = ecx

; 118  : 	{

  00000	55		 push	 ebp
  00001	8b ec		 mov	 ebp, esp
  00003	83 ec 28	 sub	 esp, 40			; 00000028H
  00006	a1 00 00 00 00	 mov	 eax, DWORD PTR ___security_cookie
  0000b	33 c5		 xor	 eax, ebp
  0000d	89 45 fc	 mov	 DWORD PTR __$ArrayPad$[ebp], eax
  00010	8b 45 08	 mov	 eax, DWORD PTR _k$[ebp]

; 119  : 		_ENCSTR(k, _k);

  00013	8a 10		 mov	 dl, BYTE PTR [eax]
  00015	53		 push	 ebx
  00016	56		 push	 esi
  00017	8b f1		 mov	 esi, ecx
  00019	84 d2		 test	 dl, dl
  0001b	0f 84 dd 02 00
	00		 je	 $LN96@LoadInt_e@5
  00021	80 f2 ed	 xor	 dl, -19			; ffffffedH
  00024	88 55 d8	 mov	 BYTE PTR __k$[ebp], dl
  00027	8a 50 01	 mov	 dl, BYTE PTR [eax+1]
  0002a	84 d2		 test	 dl, dl
  0002c	0f 84 c6 02 00
	00		 je	 $LN95@LoadInt_e@5
  00032	80 f2 ec	 xor	 dl, -20			; ffffffecH
  00035	88 55 d9	 mov	 BYTE PTR __k$[ebp+1], dl
  00038	8a 50 02	 mov	 dl, BYTE PTR [eax+2]
  0003b	84 d2		 test	 dl, dl
  0003d	0f 84 af 02 00
	00		 je	 $LN94@LoadInt_e@5
  00043	b1 eb		 mov	 cl, -21			; ffffffebH
  00045	32 d1		 xor	 dl, cl
  00047	88 55 da	 mov	 BYTE PTR __k$[ebp+2], dl
  0004a	8a 50 03	 mov	 dl, BYTE PTR [eax+3]
  0004d	84 d2		 test	 dl, dl
  0004f	0f 84 97 02 00
	00		 je	 $LN93@LoadInt_e@5
  00055	b3 ea		 mov	 bl, -22			; ffffffeaH
  00057	32 d3		 xor	 dl, bl
  00059	88 55 db	 mov	 BYTE PTR __k$[ebp+3], dl
  0005c	8a 50 04	 mov	 dl, BYTE PTR [eax+4]
  0005f	84 d2		 test	 dl, dl
  00061	0f 84 7f 02 00
	00		 je	 $LN92@LoadInt_e@5
  00067	80 f2 ed	 xor	 dl, -19			; ffffffedH
  0006a	88 55 dc	 mov	 BYTE PTR __k$[ebp+4], dl
  0006d	8a 50 05	 mov	 dl, BYTE PTR [eax+5]
  00070	84 d2		 test	 dl, dl
  00072	0f 84 68 02 00
	00		 je	 $LN91@LoadInt_e@5
  00078	80 f2 ec	 xor	 dl, -20			; ffffffecH
  0007b	88 55 dd	 mov	 BYTE PTR __k$[ebp+5], dl
  0007e	8a 50 06	 mov	 dl, BYTE PTR [eax+6]
  00081	84 d2		 test	 dl, dl
  00083	0f 84 52 02 00
	00		 je	 $LN90@LoadInt_e@5
  00089	32 d1		 xor	 dl, cl
  0008b	88 55 de	 mov	 BYTE PTR __k$[ebp+6], dl
  0008e	8a 50 07	 mov	 dl, BYTE PTR [eax+7]
  00091	84 d2		 test	 dl, dl
  00093	0f 84 3d 02 00
	00		 je	 $LN89@LoadInt_e@5
  00099	32 d3		 xor	 dl, bl
  0009b	88 55 df	 mov	 BYTE PTR __k$[ebp+7], dl
  0009e	8a 50 08	 mov	 dl, BYTE PTR [eax+8]
  000a1	84 d2		 test	 dl, dl
  000a3	0f 84 27 02 00
	00		 je	 $LN88@LoadInt_e@5
  000a9	80 f2 ed	 xor	 dl, -19			; ffffffedH
  000ac	88 55 e0	 mov	 BYTE PTR __k$[ebp+8], dl
  000af	8a 50 09	 mov	 dl, BYTE PTR [eax+9]
  000b2	84 d2		 test	 dl, dl
  000b4	0f 84 10 02 00
	00		 je	 $LN87@LoadInt_e@5
  000ba	80 f2 ec	 xor	 dl, -20			; ffffffecH
  000bd	88 55 e1	 mov	 BYTE PTR __k$[ebp+9], dl
  000c0	8a 50 0a	 mov	 dl, BYTE PTR [eax+10]
  000c3	84 d2		 test	 dl, dl
  000c5	0f 84 fa 01 00
	00		 je	 $LN86@LoadInt_e@5
  000cb	32 d1		 xor	 dl, cl
  000cd	88 55 e2	 mov	 BYTE PTR __k$[ebp+10], dl
  000d0	8a 50 0b	 mov	 dl, BYTE PTR [eax+11]
  000d3	84 d2		 test	 dl, dl
  000d5	0f 84 e5 01 00
	00		 je	 $LN85@LoadInt_e@5
  000db	32 d3		 xor	 dl, bl
  000dd	88 55 e3	 mov	 BYTE PTR __k$[ebp+11], dl
  000e0	8a 50 0c	 mov	 dl, BYTE PTR [eax+12]
  000e3	84 d2		 test	 dl, dl
  000e5	0f 84 cf 01 00
	00		 je	 $LN84@LoadInt_e@5
  000eb	80 f2 ed	 xor	 dl, -19			; ffffffedH
  000ee	88 55 e4	 mov	 BYTE PTR __k$[ebp+12], dl
  000f1	8a 50 0d	 mov	 dl, BYTE PTR [eax+13]
  000f4	84 d2		 test	 dl, dl
  000f6	0f 84 b8 01 00
	00		 je	 $LN83@LoadInt_e@5
  000fc	80 f2 ec	 xor	 dl, -20			; ffffffecH
  000ff	88 55 e5	 mov	 BYTE PTR __k$[ebp+13], dl
  00102	8a 50 0e	 mov	 dl, BYTE PTR [eax+14]
  00105	84 d2		 test	 dl, dl
  00107	0f 84 a2 01 00
	00		 je	 $LN82@LoadInt_e@5
  0010d	32 d1		 xor	 dl, cl
  0010f	88 55 e6	 mov	 BYTE PTR __k$[ebp+14], dl
  00112	8a 50 0f	 mov	 dl, BYTE PTR [eax+15]
  00115	84 d2		 test	 dl, dl
  00117	0f 84 8d 01 00
	00		 je	 $LN81@LoadInt_e@5
  0011d	32 d3		 xor	 dl, bl
  0011f	88 55 e7	 mov	 BYTE PTR __k$[ebp+15], dl
  00122	8a 50 10	 mov	 dl, BYTE PTR [eax+16]
  00125	84 d2		 test	 dl, dl
  00127	0f 84 77 01 00
	00		 je	 $LN80@LoadInt_e@5
  0012d	80 f2 ed	 xor	 dl, -19			; ffffffedH
  00130	88 55 e8	 mov	 BYTE PTR __k$[ebp+16], dl
  00133	8a 50 11	 mov	 dl, BYTE PTR [eax+17]
  00136	84 d2		 test	 dl, dl
  00138	0f 84 60 01 00
	00		 je	 $LN79@LoadInt_e@5
  0013e	80 f2 ec	 xor	 dl, -20			; ffffffecH
  00141	88 55 e9	 mov	 BYTE PTR __k$[ebp+17], dl
  00144	8a 50 12	 mov	 dl, BYTE PTR [eax+18]
  00147	84 d2		 test	 dl, dl
  00149	0f 84 4a 01 00
	00		 je	 $LN78@LoadInt_e@5
  0014f	32 d1		 xor	 dl, cl
  00151	88 55 ea	 mov	 BYTE PTR __k$[ebp+18], dl
  00154	8a 50 13	 mov	 dl, BYTE PTR [eax+19]
  00157	84 d2		 test	 dl, dl
  00159	0f 84 35 01 00
	00		 je	 $LN77@LoadInt_e@5
  0015f	32 d3		 xor	 dl, bl
  00161	88 55 eb	 mov	 BYTE PTR __k$[ebp+19], dl
  00164	8a 50 14	 mov	 dl, BYTE PTR [eax+20]
  00167	84 d2		 test	 dl, dl
  00169	0f 84 1f 01 00
	00		 je	 $LN76@LoadInt_e@5
  0016f	80 f2 ed	 xor	 dl, -19			; ffffffedH
  00172	88 55 ec	 mov	 BYTE PTR __k$[ebp+20], dl
  00175	8a 50 15	 mov	 dl, BYTE PTR [eax+21]
  00178	84 d2		 test	 dl, dl
  0017a	0f 84 08 01 00
	00		 je	 $LN75@LoadInt_e@5
  00180	80 f2 ec	 xor	 dl, -20			; ffffffecH
  00183	88 55 ed	 mov	 BYTE PTR __k$[ebp+21], dl
  00186	8a 50 16	 mov	 dl, BYTE PTR [eax+22]
  00189	84 d2		 test	 dl, dl
  0018b	0f 84 f2 00 00
	00		 je	 $LN74@LoadInt_e@5
  00191	32 d1		 xor	 dl, cl
  00193	88 55 ee	 mov	 BYTE PTR __k$[ebp+22], dl
  00196	8a 50 17	 mov	 dl, BYTE PTR [eax+23]
  00199	84 d2		 test	 dl, dl
  0019b	0f 84 dd 00 00
	00		 je	 $LN73@LoadInt_e@5
  001a1	32 d3		 xor	 dl, bl
  001a3	88 55 ef	 mov	 BYTE PTR __k$[ebp+23], dl
  001a6	8a 50 18	 mov	 dl, BYTE PTR [eax+24]
  001a9	84 d2		 test	 dl, dl
  001ab	0f 84 c4 00 00
	00		 je	 $LN72@LoadInt_e@5
  001b1	80 f2 ed	 xor	 dl, -19			; ffffffedH
  001b4	88 55 f0	 mov	 BYTE PTR __k$[ebp+24], dl
  001b7	8a 50 19	 mov	 dl, BYTE PTR [eax+25]
  001ba	84 d2		 test	 dl, dl
  001bc	0f 84 aa 00 00
	00		 je	 $LN71@LoadInt_e@5
  001c2	80 f2 ec	 xor	 dl, -20			; ffffffecH
  001c5	88 55 f1	 mov	 BYTE PTR __k$[ebp+25], dl
  001c8	8a 50 1a	 mov	 dl, BYTE PTR [eax+26]
  001cb	84 d2		 test	 dl, dl
  001cd	0f 84 91 00 00
	00		 je	 $LN70@LoadInt_e@5
  001d3	32 d1		 xor	 dl, cl
  001d5	88 55 f2	 mov	 BYTE PTR __k$[ebp+26], dl
  001d8	8a 50 1b	 mov	 dl, BYTE PTR [eax+27]
  001db	84 d2		 test	 dl, dl
  001dd	74 7d		 je	 SHORT $LN69@LoadInt_e@5
  001df	32 d3		 xor	 dl, bl
  001e1	88 55 f3	 mov	 BYTE PTR __k$[ebp+27], dl
  001e4	8a 50 1c	 mov	 dl, BYTE PTR [eax+28]
  001e7	84 d2		 test	 dl, dl
  001e9	74 68		 je	 SHORT $LN68@LoadInt_e@5
  001eb	80 f2 ed	 xor	 dl, -19			; ffffffedH
  001ee	80 78 1d 00	 cmp	 BYTE PTR [eax+29], 0
  001f2	88 55 f4	 mov	 BYTE PTR __k$[ebp+28], dl
  001f5	0f 84 07 01 00
	00		 je	 $LN1@LoadInt_e@5
  001fb	8a 50 1e	 mov	 dl, BYTE PTR [eax+30]
  001fe	84 d2		 test	 dl, dl
  00200	74 49		 je	 SHORT $LN66@LoadInt_e@5
  00202	32 d1		 xor	 dl, cl
  00204	88 55 f6	 mov	 BYTE PTR __k$[ebp+30], dl
  00207	8a 50 1f	 mov	 dl, BYTE PTR [eax+31]
  0020a	84 d2		 test	 dl, dl
  0020c	74 35		 je	 SHORT $LN65@LoadInt_e@5
  0020e	32 d3		 xor	 dl, bl
  00210	88 55 f7	 mov	 BYTE PTR __k$[ebp+31], dl
  00213	8a 50 20	 mov	 dl, BYTE PTR [eax+32]
  00216	84 d2		 test	 dl, dl
  00218	74 20		 je	 SHORT $LN64@LoadInt_e@5
  0021a	8a 40 21	 mov	 al, BYTE PTR [eax+33]
  0021d	80 f2 ed	 xor	 dl, -19			; ffffffedH
  00220	88 55 f8	 mov	 BYTE PTR __k$[ebp+32], dl
  00223	84 c0		 test	 al, al
  00225	74 0a		 je	 SHORT $LN63@LoadInt_e@5
  00227	34 ec		 xor	 al, -20			; ffffffecH
  00229	88 45 f9	 mov	 BYTE PTR __k$[ebp+33], al
  0022c	e9 d1 00 00 00	 jmp	 $LN1@LoadInt_e@5
$LN63@LoadInt_e@5:
  00231	c6 45 f9 ec	 mov	 BYTE PTR __k$[ebp+33], -20 ; ffffffecH
  00235	e9 c8 00 00 00	 jmp	 $LN1@LoadInt_e@5
$LN64@LoadInt_e@5:
  0023a	c6 45 f8 ed	 mov	 BYTE PTR __k$[ebp+32], -19 ; ffffffedH
  0023e	e9 bf 00 00 00	 jmp	 $LN1@LoadInt_e@5
$LN65@LoadInt_e@5:
  00243	88 5d f7	 mov	 BYTE PTR __k$[ebp+31], bl
  00246	e9 b7 00 00 00	 jmp	 $LN1@LoadInt_e@5
$LN66@LoadInt_e@5:
  0024b	88 4d f6	 mov	 BYTE PTR __k$[ebp+30], cl
  0024e	e9 af 00 00 00	 jmp	 $LN1@LoadInt_e@5
$LN68@LoadInt_e@5:
  00253	c6 45 f4 ed	 mov	 BYTE PTR __k$[ebp+28], -19 ; ffffffedH
  00257	e9 a6 00 00 00	 jmp	 $LN1@LoadInt_e@5
$LN69@LoadInt_e@5:
  0025c	88 5d f3	 mov	 BYTE PTR __k$[ebp+27], bl
  0025f	e9 9e 00 00 00	 jmp	 $LN1@LoadInt_e@5
$LN70@LoadInt_e@5:
  00264	88 4d f2	 mov	 BYTE PTR __k$[ebp+26], cl
  00267	e9 96 00 00 00	 jmp	 $LN1@LoadInt_e@5
$LN71@LoadInt_e@5:
  0026c	c6 45 f1 ec	 mov	 BYTE PTR __k$[ebp+25], -20 ; ffffffecH
  00270	e9 8d 00 00 00	 jmp	 $LN1@LoadInt_e@5
$LN72@LoadInt_e@5:
  00275	c6 45 f0 ed	 mov	 BYTE PTR __k$[ebp+24], -19 ; ffffffedH
  00279	e9 84 00 00 00	 jmp	 $LN1@LoadInt_e@5
$LN73@LoadInt_e@5:
  0027e	88 5d ef	 mov	 BYTE PTR __k$[ebp+23], bl
  00281	eb 7f		 jmp	 SHORT $LN1@LoadInt_e@5
$LN74@LoadInt_e@5:
  00283	88 4d ee	 mov	 BYTE PTR __k$[ebp+22], cl
  00286	eb 7a		 jmp	 SHORT $LN1@LoadInt_e@5
$LN75@LoadInt_e@5:
  00288	c6 45 ed ec	 mov	 BYTE PTR __k$[ebp+21], -20 ; ffffffecH
  0028c	eb 74		 jmp	 SHORT $LN1@LoadInt_e@5
$LN76@LoadInt_e@5:
  0028e	c6 45 ec ed	 mov	 BYTE PTR __k$[ebp+20], -19 ; ffffffedH
  00292	eb 6e		 jmp	 SHORT $LN1@LoadInt_e@5
$LN77@LoadInt_e@5:
  00294	88 5d eb	 mov	 BYTE PTR __k$[ebp+19], bl
  00297	eb 69		 jmp	 SHORT $LN1@LoadInt_e@5
$LN78@LoadInt_e@5:
  00299	88 4d ea	 mov	 BYTE PTR __k$[ebp+18], cl
  0029c	eb 64		 jmp	 SHORT $LN1@LoadInt_e@5
$LN79@LoadInt_e@5:
  0029e	c6 45 e9 ec	 mov	 BYTE PTR __k$[ebp+17], -20 ; ffffffecH
  002a2	eb 5e		 jmp	 SHORT $LN1@LoadInt_e@5
$LN80@LoadInt_e@5:
  002a4	c6 45 e8 ed	 mov	 BYTE PTR __k$[ebp+16], -19 ; ffffffedH
  002a8	eb 58		 jmp	 SHORT $LN1@LoadInt_e@5
$LN81@LoadInt_e@5:
  002aa	88 5d e7	 mov	 BYTE PTR __k$[ebp+15], bl
  002ad	eb 53		 jmp	 SHORT $LN1@LoadInt_e@5
$LN82@LoadInt_e@5:
  002af	88 4d e6	 mov	 BYTE PTR __k$[ebp+14], cl
  002b2	eb 4e		 jmp	 SHORT $LN1@LoadInt_e@5
$LN83@LoadInt_e@5:
  002b4	c6 45 e5 ec	 mov	 BYTE PTR __k$[ebp+13], -20 ; ffffffecH
  002b8	eb 48		 jmp	 SHORT $LN1@LoadInt_e@5
$LN84@LoadInt_e@5:
  002ba	c6 45 e4 ed	 mov	 BYTE PTR __k$[ebp+12], -19 ; ffffffedH
  002be	eb 42		 jmp	 SHORT $LN1@LoadInt_e@5
$LN85@LoadInt_e@5:
  002c0	88 5d e3	 mov	 BYTE PTR __k$[ebp+11], bl
  002c3	eb 3d		 jmp	 SHORT $LN1@LoadInt_e@5
$LN86@LoadInt_e@5:
  002c5	88 4d e2	 mov	 BYTE PTR __k$[ebp+10], cl
  002c8	eb 38		 jmp	 SHORT $LN1@LoadInt_e@5
$LN87@LoadInt_e@5:
  002ca	c6 45 e1 ec	 mov	 BYTE PTR __k$[ebp+9], -20 ; ffffffecH
  002ce	eb 32		 jmp	 SHORT $LN1@LoadInt_e@5
$LN88@LoadInt_e@5:
  002d0	c6 45 e0 ed	 mov	 BYTE PTR __k$[ebp+8], -19 ; ffffffedH
  002d4	eb 2c		 jmp	 SHORT $LN1@LoadInt_e@5
$LN89@LoadInt_e@5:
  002d6	88 5d df	 mov	 BYTE PTR __k$[ebp+7], bl
  002d9	eb 27		 jmp	 SHORT $LN1@LoadInt_e@5
$LN90@LoadInt_e@5:
  002db	88 4d de	 mov	 BYTE PTR __k$[ebp+6], cl
  002de	eb 22		 jmp	 SHORT $LN1@LoadInt_e@5
$LN91@LoadInt_e@5:
  002e0	c6 45 dd ec	 mov	 BYTE PTR __k$[ebp+5], -20 ; ffffffecH
  002e4	eb 1c		 jmp	 SHORT $LN1@LoadInt_e@5
$LN92@LoadInt_e@5:
  002e6	c6 45 dc ed	 mov	 BYTE PTR __k$[ebp+4], -19 ; ffffffedH
  002ea	eb 16		 jmp	 SHORT $LN1@LoadInt_e@5
$LN93@LoadInt_e@5:
  002ec	c6 45 db ea	 mov	 BYTE PTR __k$[ebp+3], -22 ; ffffffeaH
  002f0	eb 10		 jmp	 SHORT $LN1@LoadInt_e@5
$LN94@LoadInt_e@5:
  002f2	c6 45 da eb	 mov	 BYTE PTR __k$[ebp+2], -21 ; ffffffebH
  002f6	eb 0a		 jmp	 SHORT $LN1@LoadInt_e@5
$LN95@LoadInt_e@5:
  002f8	c6 45 d9 ec	 mov	 BYTE PTR __k$[ebp+1], -20 ; ffffffecH
  002fc	eb 04		 jmp	 SHORT $LN1@LoadInt_e@5
$LN96@LoadInt_e@5:
  002fe	c6 45 d8 ed	 mov	 BYTE PTR __k$[ebp], -19	; ffffffedH
$LN1@LoadInt_e@5:
  00302	6a 07		 push	 7
  00304	8d 45 d8	 lea	 eax, DWORD PTR __k$[ebp]
  00307	c6 45 f5 00	 mov	 BYTE PTR __k$[ebp+29], 0
  0030b	5a		 pop	 edx
$LL104@LoadInt_e@5:
  0030c	81 30 ed ec eb
	ea		 xor	 DWORD PTR [eax], -353637139 ; eaebecedH
  00312	83 c0 04	 add	 eax, 4
  00315	4a		 dec	 edx
  00316	75 f4		 jne	 SHORT $LL104@LoadInt_e@5

; 120  : 		return LoadInt(_k, i);

  00318	ff 75 0c	 push	 DWORD PTR _i$[ebp]
  0031b	80 75 f4 ed	 xor	 BYTE PTR __k$[ebp+28], -19 ; ffffffedH
  0031f	8d 45 d8	 lea	 eax, DWORD PTR __k$[ebp]
  00322	50		 push	 eax
  00323	8b ce		 mov	 ecx, esi
  00325	ff 15 00 00 00
	00		 call	 DWORD PTR __imp_?LoadInt@ioINILoader@@QAEHPBDH@Z

; 121  : 	}

  0032b	8b 4d fc	 mov	 ecx, DWORD PTR __$ArrayPad$[ebp]
  0032e	5e		 pop	 esi
  0032f	33 cd		 xor	 ecx, ebp
  00331	5b		 pop	 ebx
  00332	e8 00 00 00 00	 call	 @__security_check_cookie@4
  00337	c9		 leave
  00338	c2 08 00	 ret	 8
??$LoadInt_e@$0BO@@ioINILoader@@QAEHAAY0BO@$$CBDH@Z ENDP ; ioINILoader::LoadInt_e<30>
_TEXT	ENDS
PUBLIC	__$ArrayPad$
PUBLIC	??$LoadFloat_e@$0BF@@ioINILoader@@QAEMAAY0BF@$$CBDM@Z ; ioINILoader::LoadFloat_e<21>
; Function compile flags: /Ogsp
;	COMDAT ??$LoadFloat_e@$0BF@@ioINILoader@@QAEMAAY0BF@$$CBDM@Z
_TEXT	SEGMENT
__k$ = -32						; size = 21
__$ArrayPad$ = -4					; size = 4
_k$ = 8							; size = 4
_f$ = 12						; size = 4
??$LoadFloat_e@$0BF@@ioINILoader@@QAEMAAY0BF@$$CBDM@Z PROC ; ioINILoader::LoadFloat_e<21>, COMDAT
; _this$ = ecx

; 135  : 	{

  00000	55		 push	 ebp
  00001	8b ec		 mov	 ebp, esp
  00003	83 ec 20	 sub	 esp, 32			; 00000020H
  00006	a1 00 00 00 00	 mov	 eax, DWORD PTR ___security_cookie
  0000b	33 c5		 xor	 eax, ebp
  0000d	89 45 fc	 mov	 DWORD PTR __$ArrayPad$[ebp], eax
  00010	8b 45 08	 mov	 eax, DWORD PTR _k$[ebp]

; 136  : 		_ENCSTR(k, _k);

  00013	8a 10		 mov	 dl, BYTE PTR [eax]
  00015	53		 push	 ebx
  00016	56		 push	 esi
  00017	8b f1		 mov	 esi, ecx
  00019	84 d2		 test	 dl, dl
  0001b	0f 84 f7 01 00
	00		 je	 $LN96@LoadFloat_@6
  00021	80 f2 ed	 xor	 dl, -19			; ffffffedH
  00024	88 55 e0	 mov	 BYTE PTR __k$[ebp], dl
  00027	8a 50 01	 mov	 dl, BYTE PTR [eax+1]
  0002a	84 d2		 test	 dl, dl
  0002c	0f 84 e0 01 00
	00		 je	 $LN95@LoadFloat_@6
  00032	b1 ec		 mov	 cl, -20			; ffffffecH
  00034	32 d1		 xor	 dl, cl
  00036	88 55 e1	 mov	 BYTE PTR __k$[ebp+1], dl
  00039	8a 50 02	 mov	 dl, BYTE PTR [eax+2]
  0003c	84 d2		 test	 dl, dl
  0003e	0f 84 c8 01 00
	00		 je	 $LN94@LoadFloat_@6
  00044	b3 eb		 mov	 bl, -21			; ffffffebH
  00046	32 d3		 xor	 dl, bl
  00048	88 55 e2	 mov	 BYTE PTR __k$[ebp+2], dl
  0004b	8a 50 03	 mov	 dl, BYTE PTR [eax+3]
  0004e	84 d2		 test	 dl, dl
  00050	0f 84 b0 01 00
	00		 je	 $LN93@LoadFloat_@6
  00056	80 f2 ea	 xor	 dl, -22			; ffffffeaH
  00059	88 55 e3	 mov	 BYTE PTR __k$[ebp+3], dl
  0005c	8a 50 04	 mov	 dl, BYTE PTR [eax+4]
  0005f	84 d2		 test	 dl, dl
  00061	0f 84 99 01 00
	00		 je	 $LN92@LoadFloat_@6
  00067	80 f2 ed	 xor	 dl, -19			; ffffffedH
  0006a	88 55 e4	 mov	 BYTE PTR __k$[ebp+4], dl
  0006d	8a 50 05	 mov	 dl, BYTE PTR [eax+5]
  00070	84 d2		 test	 dl, dl
  00072	0f 84 83 01 00
	00		 je	 $LN91@LoadFloat_@6
  00078	32 d1		 xor	 dl, cl
  0007a	88 55 e5	 mov	 BYTE PTR __k$[ebp+5], dl
  0007d	8a 50 06	 mov	 dl, BYTE PTR [eax+6]
  00080	84 d2		 test	 dl, dl
  00082	0f 84 6e 01 00
	00		 je	 $LN90@LoadFloat_@6
  00088	32 d3		 xor	 dl, bl
  0008a	88 55 e6	 mov	 BYTE PTR __k$[ebp+6], dl
  0008d	8a 50 07	 mov	 dl, BYTE PTR [eax+7]
  00090	84 d2		 test	 dl, dl
  00092	0f 84 58 01 00
	00		 je	 $LN89@LoadFloat_@6
  00098	80 f2 ea	 xor	 dl, -22			; ffffffeaH
  0009b	88 55 e7	 mov	 BYTE PTR __k$[ebp+7], dl
  0009e	8a 50 08	 mov	 dl, BYTE PTR [eax+8]
  000a1	84 d2		 test	 dl, dl
  000a3	0f 84 41 01 00
	00		 je	 $LN88@LoadFloat_@6
  000a9	80 f2 ed	 xor	 dl, -19			; ffffffedH
  000ac	88 55 e8	 mov	 BYTE PTR __k$[ebp+8], dl
  000af	8a 50 09	 mov	 dl, BYTE PTR [eax+9]
  000b2	84 d2		 test	 dl, dl
  000b4	0f 84 2b 01 00
	00		 je	 $LN87@LoadFloat_@6
  000ba	32 d1		 xor	 dl, cl
  000bc	88 55 e9	 mov	 BYTE PTR __k$[ebp+9], dl
  000bf	8a 50 0a	 mov	 dl, BYTE PTR [eax+10]
  000c2	84 d2		 test	 dl, dl
  000c4	0f 84 16 01 00
	00		 je	 $LN86@LoadFloat_@6
  000ca	32 d3		 xor	 dl, bl
  000cc	88 55 ea	 mov	 BYTE PTR __k$[ebp+10], dl
  000cf	8a 50 0b	 mov	 dl, BYTE PTR [eax+11]
  000d2	84 d2		 test	 dl, dl
  000d4	0f 84 00 01 00
	00		 je	 $LN85@LoadFloat_@6
  000da	80 f2 ea	 xor	 dl, -22			; ffffffeaH
  000dd	88 55 eb	 mov	 BYTE PTR __k$[ebp+11], dl
  000e0	8a 50 0c	 mov	 dl, BYTE PTR [eax+12]
  000e3	84 d2		 test	 dl, dl
  000e5	0f 84 e9 00 00
	00		 je	 $LN84@LoadFloat_@6
  000eb	80 f2 ed	 xor	 dl, -19			; ffffffedH
  000ee	88 55 ec	 mov	 BYTE PTR __k$[ebp+12], dl
  000f1	8a 50 0d	 mov	 dl, BYTE PTR [eax+13]
  000f4	84 d2		 test	 dl, dl
  000f6	0f 84 d3 00 00
	00		 je	 $LN83@LoadFloat_@6
  000fc	32 d1		 xor	 dl, cl
  000fe	88 55 ed	 mov	 BYTE PTR __k$[ebp+13], dl
  00101	8a 50 0e	 mov	 dl, BYTE PTR [eax+14]
  00104	84 d2		 test	 dl, dl
  00106	0f 84 be 00 00
	00		 je	 $LN82@LoadFloat_@6
  0010c	32 d3		 xor	 dl, bl
  0010e	88 55 ee	 mov	 BYTE PTR __k$[ebp+14], dl
  00111	8a 50 0f	 mov	 dl, BYTE PTR [eax+15]
  00114	84 d2		 test	 dl, dl
  00116	0f 84 a8 00 00
	00		 je	 $LN81@LoadFloat_@6
  0011c	80 f2 ea	 xor	 dl, -22			; ffffffeaH
  0011f	88 55 ef	 mov	 BYTE PTR __k$[ebp+15], dl
  00122	8a 50 10	 mov	 dl, BYTE PTR [eax+16]
  00125	84 d2		 test	 dl, dl
  00127	0f 84 91 00 00
	00		 je	 $LN80@LoadFloat_@6
  0012d	80 f2 ed	 xor	 dl, -19			; ffffffedH
  00130	88 55 f0	 mov	 BYTE PTR __k$[ebp+16], dl
  00133	8a 50 11	 mov	 dl, BYTE PTR [eax+17]
  00136	84 d2		 test	 dl, dl
  00138	74 7f		 je	 SHORT $LN79@LoadFloat_@6
  0013a	32 d1		 xor	 dl, cl
  0013c	88 55 f1	 mov	 BYTE PTR __k$[ebp+17], dl
  0013f	8a 50 12	 mov	 dl, BYTE PTR [eax+18]
  00142	84 d2		 test	 dl, dl
  00144	74 6e		 je	 SHORT $LN78@LoadFloat_@6
  00146	32 d3		 xor	 dl, bl
  00148	88 55 f2	 mov	 BYTE PTR __k$[ebp+18], dl
  0014b	8a 50 13	 mov	 dl, BYTE PTR [eax+19]
  0014e	84 d2		 test	 dl, dl
  00150	74 5c		 je	 SHORT $LN77@LoadFloat_@6
  00152	80 f2 ea	 xor	 dl, -22			; ffffffeaH
  00155	80 78 14 00	 cmp	 BYTE PTR [eax+20], 0
  00159	88 55 f3	 mov	 BYTE PTR __k$[ebp+19], dl
  0015c	0f 84 ba 00 00
	00		 je	 $LN1@LoadFloat_@6
  00162	8a 50 15	 mov	 dl, BYTE PTR [eax+21]
  00165	84 d2		 test	 dl, dl
  00167	74 40		 je	 SHORT $LN75@LoadFloat_@6
  00169	32 d1		 xor	 dl, cl
  0016b	88 55 f5	 mov	 BYTE PTR __k$[ebp+21], dl
  0016e	8a 50 16	 mov	 dl, BYTE PTR [eax+22]
  00171	84 d2		 test	 dl, dl
  00173	74 2f		 je	 SHORT $LN74@LoadFloat_@6
  00175	32 d3		 xor	 dl, bl
  00177	88 55 f6	 mov	 BYTE PTR __k$[ebp+22], dl
  0017a	8a 50 17	 mov	 dl, BYTE PTR [eax+23]
  0017d	84 d2		 test	 dl, dl
  0017f	74 1d		 je	 SHORT $LN73@LoadFloat_@6
  00181	8a 40 18	 mov	 al, BYTE PTR [eax+24]
  00184	80 f2 ea	 xor	 dl, -22			; ffffffeaH
  00187	88 55 f7	 mov	 BYTE PTR __k$[ebp+23], dl
  0018a	84 c0		 test	 al, al
  0018c	74 0a		 je	 SHORT $LN72@LoadFloat_@6
  0018e	34 ed		 xor	 al, -19			; ffffffedH
  00190	88 45 f8	 mov	 BYTE PTR __k$[ebp+24], al
  00193	e9 84 00 00 00	 jmp	 $LN1@LoadFloat_@6
$LN72@LoadFloat_@6:
  00198	c6 45 f8 ed	 mov	 BYTE PTR __k$[ebp+24], -19 ; ffffffedH
  0019c	eb 7e		 jmp	 SHORT $LN1@LoadFloat_@6
$LN73@LoadFloat_@6:
  0019e	c6 45 f7 ea	 mov	 BYTE PTR __k$[ebp+23], -22 ; ffffffeaH
  001a2	eb 78		 jmp	 SHORT $LN1@LoadFloat_@6
$LN74@LoadFloat_@6:
  001a4	88 5d f6	 mov	 BYTE PTR __k$[ebp+22], bl
  001a7	eb 73		 jmp	 SHORT $LN1@LoadFloat_@6
$LN75@LoadFloat_@6:
  001a9	88 4d f5	 mov	 BYTE PTR __k$[ebp+21], cl
  001ac	eb 6e		 jmp	 SHORT $LN1@LoadFloat_@6
$LN77@LoadFloat_@6:
  001ae	c6 45 f3 ea	 mov	 BYTE PTR __k$[ebp+19], -22 ; ffffffeaH
  001b2	eb 68		 jmp	 SHORT $LN1@LoadFloat_@6
$LN78@LoadFloat_@6:
  001b4	88 5d f2	 mov	 BYTE PTR __k$[ebp+18], bl
  001b7	eb 63		 jmp	 SHORT $LN1@LoadFloat_@6
$LN79@LoadFloat_@6:
  001b9	88 4d f1	 mov	 BYTE PTR __k$[ebp+17], cl
  001bc	eb 5e		 jmp	 SHORT $LN1@LoadFloat_@6
$LN80@LoadFloat_@6:
  001be	c6 45 f0 ed	 mov	 BYTE PTR __k$[ebp+16], -19 ; ffffffedH
  001c2	eb 58		 jmp	 SHORT $LN1@LoadFloat_@6
$LN81@LoadFloat_@6:
  001c4	c6 45 ef ea	 mov	 BYTE PTR __k$[ebp+15], -22 ; ffffffeaH
  001c8	eb 52		 jmp	 SHORT $LN1@LoadFloat_@6
$LN82@LoadFloat_@6:
  001ca	88 5d ee	 mov	 BYTE PTR __k$[ebp+14], bl
  001cd	eb 4d		 jmp	 SHORT $LN1@LoadFloat_@6
$LN83@LoadFloat_@6:
  001cf	88 4d ed	 mov	 BYTE PTR __k$[ebp+13], cl
  001d2	eb 48		 jmp	 SHORT $LN1@LoadFloat_@6
$LN84@LoadFloat_@6:
  001d4	c6 45 ec ed	 mov	 BYTE PTR __k$[ebp+12], -19 ; ffffffedH
  001d8	eb 42		 jmp	 SHORT $LN1@LoadFloat_@6
$LN85@LoadFloat_@6:
  001da	c6 45 eb ea	 mov	 BYTE PTR __k$[ebp+11], -22 ; ffffffeaH
  001de	eb 3c		 jmp	 SHORT $LN1@LoadFloat_@6
$LN86@LoadFloat_@6:
  001e0	88 5d ea	 mov	 BYTE PTR __k$[ebp+10], bl
  001e3	eb 37		 jmp	 SHORT $LN1@LoadFloat_@6
$LN87@LoadFloat_@6:
  001e5	88 4d e9	 mov	 BYTE PTR __k$[ebp+9], cl
  001e8	eb 32		 jmp	 SHORT $LN1@LoadFloat_@6
$LN88@LoadFloat_@6:
  001ea	c6 45 e8 ed	 mov	 BYTE PTR __k$[ebp+8], -19 ; ffffffedH
  001ee	eb 2c		 jmp	 SHORT $LN1@LoadFloat_@6
$LN89@LoadFloat_@6:
  001f0	c6 45 e7 ea	 mov	 BYTE PTR __k$[ebp+7], -22 ; ffffffeaH
  001f4	eb 26		 jmp	 SHORT $LN1@LoadFloat_@6
$LN90@LoadFloat_@6:
  001f6	88 5d e6	 mov	 BYTE PTR __k$[ebp+6], bl
  001f9	eb 21		 jmp	 SHORT $LN1@LoadFloat_@6
$LN91@LoadFloat_@6:
  001fb	88 4d e5	 mov	 BYTE PTR __k$[ebp+5], cl
  001fe	eb 1c		 jmp	 SHORT $LN1@LoadFloat_@6
$LN92@LoadFloat_@6:
  00200	c6 45 e4 ed	 mov	 BYTE PTR __k$[ebp+4], -19 ; ffffffedH
  00204	eb 16		 jmp	 SHORT $LN1@LoadFloat_@6
$LN93@LoadFloat_@6:
  00206	c6 45 e3 ea	 mov	 BYTE PTR __k$[ebp+3], -22 ; ffffffeaH
  0020a	eb 10		 jmp	 SHORT $LN1@LoadFloat_@6
$LN94@LoadFloat_@6:
  0020c	c6 45 e2 eb	 mov	 BYTE PTR __k$[ebp+2], -21 ; ffffffebH
  00210	eb 0a		 jmp	 SHORT $LN1@LoadFloat_@6
$LN95@LoadFloat_@6:
  00212	c6 45 e1 ec	 mov	 BYTE PTR __k$[ebp+1], -20 ; ffffffecH
  00216	eb 04		 jmp	 SHORT $LN1@LoadFloat_@6
$LN96@LoadFloat_@6:
  00218	c6 45 e0 ed	 mov	 BYTE PTR __k$[ebp], -19	; ffffffedH
$LN1@LoadFloat_@6:
  0021c	6a 05		 push	 5
  0021e	8d 45 e0	 lea	 eax, DWORD PTR __k$[ebp]
  00221	c6 45 f4 00	 mov	 BYTE PTR __k$[ebp+20], 0
  00225	5a		 pop	 edx
$LL104@LoadFloat_@6:
  00226	81 30 ed ec eb
	ea		 xor	 DWORD PTR [eax], -353637139 ; eaebecedH
  0022c	83 c0 04	 add	 eax, 4
  0022f	4a		 dec	 edx
  00230	75 f4		 jne	 SHORT $LL104@LoadFloat_@6

; 137  : 		return LoadFloat(_k, f);

  00232	f3 0f 10 45 0c	 movss	 xmm0, DWORD PTR _f$[ebp]
  00237	51		 push	 ecx
  00238	8d 45 e0	 lea	 eax, DWORD PTR __k$[ebp]
  0023b	f3 0f 11 04 24	 movss	 DWORD PTR [esp], xmm0
  00240	50		 push	 eax
  00241	8b ce		 mov	 ecx, esi
  00243	ff 15 00 00 00
	00		 call	 DWORD PTR __imp_?LoadFloat@ioINILoader@@QAEMPBDM@Z

; 138  : 	}

  00249	8b 4d fc	 mov	 ecx, DWORD PTR __$ArrayPad$[ebp]
  0024c	5e		 pop	 esi
  0024d	33 cd		 xor	 ecx, ebp
  0024f	5b		 pop	 ebx
  00250	e8 00 00 00 00	 call	 @__security_check_cookie@4
  00255	c9		 leave
  00256	c2 08 00	 ret	 8
??$LoadFloat_e@$0BF@@ioINILoader@@QAEMAAY0BF@$$CBDM@Z ENDP ; ioINILoader::LoadFloat_e<21>
_TEXT	ENDS
PUBLIC	__$ArrayPad$
PUBLIC	??$LoadFloat_e@$0BH@@ioINILoader@@QAEMAAY0BH@$$CBDM@Z ; ioINILoader::LoadFloat_e<23>
; Function compile flags: /Ogsp
;	COMDAT ??$LoadFloat_e@$0BH@@ioINILoader@@QAEMAAY0BH@$$CBDM@Z
_TEXT	SEGMENT
__k$ = -32						; size = 23
__$ArrayPad$ = -4					; size = 4
_k$ = 8							; size = 4
_f$ = 12						; size = 4
??$LoadFloat_e@$0BH@@ioINILoader@@QAEMAAY0BH@$$CBDM@Z PROC ; ioINILoader::LoadFloat_e<23>, COMDAT
; _this$ = ecx

; 135  : 	{

  00000	55		 push	 ebp
  00001	8b ec		 mov	 ebp, esp
  00003	83 ec 20	 sub	 esp, 32			; 00000020H
  00006	a1 00 00 00 00	 mov	 eax, DWORD PTR ___security_cookie
  0000b	33 c5		 xor	 eax, ebp
  0000d	89 45 fc	 mov	 DWORD PTR __$ArrayPad$[ebp], eax
  00010	8b 45 08	 mov	 eax, DWORD PTR _k$[ebp]

; 136  : 		_ENCSTR(k, _k);

  00013	8a 10		 mov	 dl, BYTE PTR [eax]
  00015	53		 push	 ebx
  00016	56		 push	 esi
  00017	8b f1		 mov	 esi, ecx
  00019	84 d2		 test	 dl, dl
  0001b	0f 84 2d 02 00
	00		 je	 $LN96@LoadFloat_@7
  00021	80 f2 ed	 xor	 dl, -19			; ffffffedH
  00024	88 55 e0	 mov	 BYTE PTR __k$[ebp], dl
  00027	8a 50 01	 mov	 dl, BYTE PTR [eax+1]
  0002a	84 d2		 test	 dl, dl
  0002c	0f 84 16 02 00
	00		 je	 $LN95@LoadFloat_@7
  00032	b1 ec		 mov	 cl, -20			; ffffffecH
  00034	32 d1		 xor	 dl, cl
  00036	88 55 e1	 mov	 BYTE PTR __k$[ebp+1], dl
  00039	8a 50 02	 mov	 dl, BYTE PTR [eax+2]
  0003c	84 d2		 test	 dl, dl
  0003e	0f 84 fe 01 00
	00		 je	 $LN94@LoadFloat_@7
  00044	80 f2 eb	 xor	 dl, -21			; ffffffebH
  00047	88 55 e2	 mov	 BYTE PTR __k$[ebp+2], dl
  0004a	8a 50 03	 mov	 dl, BYTE PTR [eax+3]
  0004d	84 d2		 test	 dl, dl
  0004f	0f 84 e7 01 00
	00		 je	 $LN93@LoadFloat_@7
  00055	b3 ea		 mov	 bl, -22			; ffffffeaH
  00057	32 d3		 xor	 dl, bl
  00059	88 55 e3	 mov	 BYTE PTR __k$[ebp+3], dl
  0005c	8a 50 04	 mov	 dl, BYTE PTR [eax+4]
  0005f	84 d2		 test	 dl, dl
  00061	0f 84 cf 01 00
	00		 je	 $LN92@LoadFloat_@7
  00067	80 f2 ed	 xor	 dl, -19			; ffffffedH
  0006a	88 55 e4	 mov	 BYTE PTR __k$[ebp+4], dl
  0006d	8a 50 05	 mov	 dl, BYTE PTR [eax+5]
  00070	84 d2		 test	 dl, dl
  00072	0f 84 b9 01 00
	00		 je	 $LN91@LoadFloat_@7
  00078	32 d1		 xor	 dl, cl
  0007a	88 55 e5	 mov	 BYTE PTR __k$[ebp+5], dl
  0007d	8a 50 06	 mov	 dl, BYTE PTR [eax+6]
  00080	84 d2		 test	 dl, dl
  00082	0f 84 a3 01 00
	00		 je	 $LN90@LoadFloat_@7
  00088	80 f2 eb	 xor	 dl, -21			; ffffffebH
  0008b	88 55 e6	 mov	 BYTE PTR __k$[ebp+6], dl
  0008e	8a 50 07	 mov	 dl, BYTE PTR [eax+7]
  00091	84 d2		 test	 dl, dl
  00093	0f 84 8d 01 00
	00		 je	 $LN89@LoadFloat_@7
  00099	32 d3		 xor	 dl, bl
  0009b	88 55 e7	 mov	 BYTE PTR __k$[ebp+7], dl
  0009e	8a 50 08	 mov	 dl, BYTE PTR [eax+8]
  000a1	84 d2		 test	 dl, dl
  000a3	0f 84 77 01 00
	00		 je	 $LN88@LoadFloat_@7
  000a9	80 f2 ed	 xor	 dl, -19			; ffffffedH
  000ac	88 55 e8	 mov	 BYTE PTR __k$[ebp+8], dl
  000af	8a 50 09	 mov	 dl, BYTE PTR [eax+9]
  000b2	84 d2		 test	 dl, dl
  000b4	0f 84 61 01 00
	00		 je	 $LN87@LoadFloat_@7
  000ba	32 d1		 xor	 dl, cl
  000bc	88 55 e9	 mov	 BYTE PTR __k$[ebp+9], dl
  000bf	8a 50 0a	 mov	 dl, BYTE PTR [eax+10]
  000c2	84 d2		 test	 dl, dl
  000c4	0f 84 4b 01 00
	00		 je	 $LN86@LoadFloat_@7
  000ca	80 f2 eb	 xor	 dl, -21			; ffffffebH
  000cd	88 55 ea	 mov	 BYTE PTR __k$[ebp+10], dl
  000d0	8a 50 0b	 mov	 dl, BYTE PTR [eax+11]
  000d3	84 d2		 test	 dl, dl
  000d5	0f 84 35 01 00
	00		 je	 $LN85@LoadFloat_@7
  000db	32 d3		 xor	 dl, bl
  000dd	88 55 eb	 mov	 BYTE PTR __k$[ebp+11], dl
  000e0	8a 50 0c	 mov	 dl, BYTE PTR [eax+12]
  000e3	84 d2		 test	 dl, dl
  000e5	0f 84 1f 01 00
	00		 je	 $LN84@LoadFloat_@7
  000eb	80 f2 ed	 xor	 dl, -19			; ffffffedH
  000ee	88 55 ec	 mov	 BYTE PTR __k$[ebp+12], dl
  000f1	8a 50 0d	 mov	 dl, BYTE PTR [eax+13]
  000f4	84 d2		 test	 dl, dl
  000f6	0f 84 09 01 00
	00		 je	 $LN83@LoadFloat_@7
  000fc	32 d1		 xor	 dl, cl
  000fe	88 55 ed	 mov	 BYTE PTR __k$[ebp+13], dl
  00101	8a 50 0e	 mov	 dl, BYTE PTR [eax+14]
  00104	84 d2		 test	 dl, dl
  00106	0f 84 f3 00 00
	00		 je	 $LN82@LoadFloat_@7
  0010c	80 f2 eb	 xor	 dl, -21			; ffffffebH
  0010f	88 55 ee	 mov	 BYTE PTR __k$[ebp+14], dl
  00112	8a 50 0f	 mov	 dl, BYTE PTR [eax+15]
  00115	84 d2		 test	 dl, dl
  00117	0f 84 dd 00 00
	00		 je	 $LN81@LoadFloat_@7
  0011d	32 d3		 xor	 dl, bl
  0011f	88 55 ef	 mov	 BYTE PTR __k$[ebp+15], dl
  00122	8a 50 10	 mov	 dl, BYTE PTR [eax+16]
  00125	84 d2		 test	 dl, dl
  00127	0f 84 c7 00 00
	00		 je	 $LN80@LoadFloat_@7
  0012d	80 f2 ed	 xor	 dl, -19			; ffffffedH
  00130	88 55 f0	 mov	 BYTE PTR __k$[ebp+16], dl
  00133	8a 50 11	 mov	 dl, BYTE PTR [eax+17]
  00136	84 d2		 test	 dl, dl
  00138	0f 84 b1 00 00
	00		 je	 $LN79@LoadFloat_@7
  0013e	32 d1		 xor	 dl, cl
  00140	88 55 f1	 mov	 BYTE PTR __k$[ebp+17], dl
  00143	8a 50 12	 mov	 dl, BYTE PTR [eax+18]
  00146	84 d2		 test	 dl, dl
  00148	0f 84 9b 00 00
	00		 je	 $LN78@LoadFloat_@7
  0014e	80 f2 eb	 xor	 dl, -21			; ffffffebH
  00151	88 55 f2	 mov	 BYTE PTR __k$[ebp+18], dl
  00154	8a 50 13	 mov	 dl, BYTE PTR [eax+19]
  00157	84 d2		 test	 dl, dl
  00159	0f 84 85 00 00
	00		 je	 $LN77@LoadFloat_@7
  0015f	32 d3		 xor	 dl, bl
  00161	88 55 f3	 mov	 BYTE PTR __k$[ebp+19], dl
  00164	8a 50 14	 mov	 dl, BYTE PTR [eax+20]
  00167	84 d2		 test	 dl, dl
  00169	74 73		 je	 SHORT $LN76@LoadFloat_@7
  0016b	80 f2 ed	 xor	 dl, -19			; ffffffedH
  0016e	88 55 f4	 mov	 BYTE PTR __k$[ebp+20], dl
  00171	8a 50 15	 mov	 dl, BYTE PTR [eax+21]
  00174	84 d2		 test	 dl, dl
  00176	74 61		 je	 SHORT $LN75@LoadFloat_@7
  00178	32 d1		 xor	 dl, cl
  0017a	80 78 16 00	 cmp	 BYTE PTR [eax+22], 0
  0017e	88 55 f5	 mov	 BYTE PTR __k$[ebp+21], dl
  00181	0f 84 cb 00 00
	00		 je	 $LN1@LoadFloat_@7
  00187	8a 50 17	 mov	 dl, BYTE PTR [eax+23]
  0018a	84 d2		 test	 dl, dl
  0018c	74 46		 je	 SHORT $LN73@LoadFloat_@7
  0018e	32 d3		 xor	 dl, bl
  00190	88 55 f7	 mov	 BYTE PTR __k$[ebp+23], dl
  00193	8a 50 18	 mov	 dl, BYTE PTR [eax+24]
  00196	84 d2		 test	 dl, dl
  00198	74 34		 je	 SHORT $LN72@LoadFloat_@7
  0019a	80 f2 ed	 xor	 dl, -19			; ffffffedH
  0019d	88 55 f8	 mov	 BYTE PTR __k$[ebp+24], dl
  001a0	8a 50 19	 mov	 dl, BYTE PTR [eax+25]
  001a3	84 d2		 test	 dl, dl
  001a5	74 1f		 je	 SHORT $LN71@LoadFloat_@7
  001a7	8a 40 1a	 mov	 al, BYTE PTR [eax+26]
  001aa	32 d1		 xor	 dl, cl
  001ac	88 55 f9	 mov	 BYTE PTR __k$[ebp+25], dl
  001af	84 c0		 test	 al, al
  001b1	74 0a		 je	 SHORT $LN70@LoadFloat_@7
  001b3	34 eb		 xor	 al, -21			; ffffffebH
  001b5	88 45 fa	 mov	 BYTE PTR __k$[ebp+26], al
  001b8	e9 95 00 00 00	 jmp	 $LN1@LoadFloat_@7
$LN70@LoadFloat_@7:
  001bd	c6 45 fa eb	 mov	 BYTE PTR __k$[ebp+26], -21 ; ffffffebH
  001c1	e9 8c 00 00 00	 jmp	 $LN1@LoadFloat_@7
$LN71@LoadFloat_@7:
  001c6	88 4d f9	 mov	 BYTE PTR __k$[ebp+25], cl
  001c9	e9 84 00 00 00	 jmp	 $LN1@LoadFloat_@7
$LN72@LoadFloat_@7:
  001ce	c6 45 f8 ed	 mov	 BYTE PTR __k$[ebp+24], -19 ; ffffffedH
  001d2	eb 7e		 jmp	 SHORT $LN1@LoadFloat_@7
$LN73@LoadFloat_@7:
  001d4	88 5d f7	 mov	 BYTE PTR __k$[ebp+23], bl
  001d7	eb 79		 jmp	 SHORT $LN1@LoadFloat_@7
$LN75@LoadFloat_@7:
  001d9	88 4d f5	 mov	 BYTE PTR __k$[ebp+21], cl
  001dc	eb 74		 jmp	 SHORT $LN1@LoadFloat_@7
$LN76@LoadFloat_@7:
  001de	c6 45 f4 ed	 mov	 BYTE PTR __k$[ebp+20], -19 ; ffffffedH
  001e2	eb 6e		 jmp	 SHORT $LN1@LoadFloat_@7
$LN77@LoadFloat_@7:
  001e4	88 5d f3	 mov	 BYTE PTR __k$[ebp+19], bl
  001e7	eb 69		 jmp	 SHORT $LN1@LoadFloat_@7
$LN78@LoadFloat_@7:
  001e9	c6 45 f2 eb	 mov	 BYTE PTR __k$[ebp+18], -21 ; ffffffebH
  001ed	eb 63		 jmp	 SHORT $LN1@LoadFloat_@7
$LN79@LoadFloat_@7:
  001ef	88 4d f1	 mov	 BYTE PTR __k$[ebp+17], cl
  001f2	eb 5e		 jmp	 SHORT $LN1@LoadFloat_@7
$LN80@LoadFloat_@7:
  001f4	c6 45 f0 ed	 mov	 BYTE PTR __k$[ebp+16], -19 ; ffffffedH
  001f8	eb 58		 jmp	 SHORT $LN1@LoadFloat_@7
$LN81@LoadFloat_@7:
  001fa	88 5d ef	 mov	 BYTE PTR __k$[ebp+15], bl
  001fd	eb 53		 jmp	 SHORT $LN1@LoadFloat_@7
$LN82@LoadFloat_@7:
  001ff	c6 45 ee eb	 mov	 BYTE PTR __k$[ebp+14], -21 ; ffffffebH
  00203	eb 4d		 jmp	 SHORT $LN1@LoadFloat_@7
$LN83@LoadFloat_@7:
  00205	88 4d ed	 mov	 BYTE PTR __k$[ebp+13], cl
  00208	eb 48		 jmp	 SHORT $LN1@LoadFloat_@7
$LN84@LoadFloat_@7:
  0020a	c6 45 ec ed	 mov	 BYTE PTR __k$[ebp+12], -19 ; ffffffedH
  0020e	eb 42		 jmp	 SHORT $LN1@LoadFloat_@7
$LN85@LoadFloat_@7:
  00210	88 5d eb	 mov	 BYTE PTR __k$[ebp+11], bl
  00213	eb 3d		 jmp	 SHORT $LN1@LoadFloat_@7
$LN86@LoadFloat_@7:
  00215	c6 45 ea eb	 mov	 BYTE PTR __k$[ebp+10], -21 ; ffffffebH
  00219	eb 37		 jmp	 SHORT $LN1@LoadFloat_@7
$LN87@LoadFloat_@7:
  0021b	88 4d e9	 mov	 BYTE PTR __k$[ebp+9], cl
  0021e	eb 32		 jmp	 SHORT $LN1@LoadFloat_@7
$LN88@LoadFloat_@7:
  00220	c6 45 e8 ed	 mov	 BYTE PTR __k$[ebp+8], -19 ; ffffffedH
  00224	eb 2c		 jmp	 SHORT $LN1@LoadFloat_@7
$LN89@LoadFloat_@7:
  00226	88 5d e7	 mov	 BYTE PTR __k$[ebp+7], bl
  00229	eb 27		 jmp	 SHORT $LN1@LoadFloat_@7
$LN90@LoadFloat_@7:
  0022b	c6 45 e6 eb	 mov	 BYTE PTR __k$[ebp+6], -21 ; ffffffebH
  0022f	eb 21		 jmp	 SHORT $LN1@LoadFloat_@7
$LN91@LoadFloat_@7:
  00231	88 4d e5	 mov	 BYTE PTR __k$[ebp+5], cl
  00234	eb 1c		 jmp	 SHORT $LN1@LoadFloat_@7
$LN92@LoadFloat_@7:
  00236	c6 45 e4 ed	 mov	 BYTE PTR __k$[ebp+4], -19 ; ffffffedH
  0023a	eb 16		 jmp	 SHORT $LN1@LoadFloat_@7
$LN93@LoadFloat_@7:
  0023c	c6 45 e3 ea	 mov	 BYTE PTR __k$[ebp+3], -22 ; ffffffeaH
  00240	eb 10		 jmp	 SHORT $LN1@LoadFloat_@7
$LN94@LoadFloat_@7:
  00242	c6 45 e2 eb	 mov	 BYTE PTR __k$[ebp+2], -21 ; ffffffebH
  00246	eb 0a		 jmp	 SHORT $LN1@LoadFloat_@7
$LN95@LoadFloat_@7:
  00248	c6 45 e1 ec	 mov	 BYTE PTR __k$[ebp+1], -20 ; ffffffecH
  0024c	eb 04		 jmp	 SHORT $LN1@LoadFloat_@7
$LN96@LoadFloat_@7:
  0024e	c6 45 e0 ed	 mov	 BYTE PTR __k$[ebp], -19	; ffffffedH
$LN1@LoadFloat_@7:
  00252	6a 05		 push	 5
  00254	8d 45 e0	 lea	 eax, DWORD PTR __k$[ebp]
  00257	c6 45 f6 00	 mov	 BYTE PTR __k$[ebp+22], 0
  0025b	5a		 pop	 edx
$LL104@LoadFloat_@7:
  0025c	81 30 ed ec eb
	ea		 xor	 DWORD PTR [eax], -353637139 ; eaebecedH
  00262	83 c0 04	 add	 eax, 4
  00265	4a		 dec	 edx
  00266	75 f4		 jne	 SHORT $LL104@LoadFloat_@7
  00268	6a 14		 push	 20			; 00000014H
  0026a	58		 pop	 eax
$LL101@LoadFloat_@7:
  0026b	8b c8		 mov	 ecx, eax
  0026d	81 e1 03 00 00
	80		 and	 ecx, -2147483645	; 80000003H
  00273	79 05		 jns	 SHORT $LN111@LoadFloat_@7
  00275	49		 dec	 ecx
  00276	83 c9 fc	 or	 ecx, -4			; fffffffcH
  00279	41		 inc	 ecx
$LN111@LoadFloat_@7:
  0027a	b2 ed		 mov	 dl, -19			; ffffffedH
  0027c	2a d1		 sub	 dl, cl
  0027e	30 54 05 e0	 xor	 BYTE PTR __k$[ebp+eax], dl
  00282	40		 inc	 eax
  00283	83 f8 16	 cmp	 eax, 22			; 00000016H
  00286	7c e3		 jl	 SHORT $LL101@LoadFloat_@7

; 137  : 		return LoadFloat(_k, f);

  00288	f3 0f 10 45 0c	 movss	 xmm0, DWORD PTR _f$[ebp]
  0028d	51		 push	 ecx
  0028e	8d 45 e0	 lea	 eax, DWORD PTR __k$[ebp]
  00291	f3 0f 11 04 24	 movss	 DWORD PTR [esp], xmm0
  00296	50		 push	 eax
  00297	8b ce		 mov	 ecx, esi
  00299	ff 15 00 00 00
	00		 call	 DWORD PTR __imp_?LoadFloat@ioINILoader@@QAEMPBDM@Z

; 138  : 	}

  0029f	8b 4d fc	 mov	 ecx, DWORD PTR __$ArrayPad$[ebp]
  002a2	5e		 pop	 esi
  002a3	33 cd		 xor	 ecx, ebp
  002a5	5b		 pop	 ebx
  002a6	e8 00 00 00 00	 call	 @__security_check_cookie@4
  002ab	c9		 leave
  002ac	c2 08 00	 ret	 8
??$LoadFloat_e@$0BH@@ioINILoader@@QAEMAAY0BH@$$CBDM@Z ENDP ; ioINILoader::LoadFloat_e<23>
_TEXT	ENDS
PUBLIC	__$ArrayPad$
PUBLIC	??$LoadFloat_e@$0BB@@ioINILoader@@QAEMAAY0BB@$$CBDM@Z ; ioINILoader::LoadFloat_e<17>
; Function compile flags: /Ogsp
;	COMDAT ??$LoadFloat_e@$0BB@@ioINILoader@@QAEMAAY0BB@$$CBDM@Z
_TEXT	SEGMENT
__k$ = -28						; size = 17
__$ArrayPad$ = -4					; size = 4
_k$ = 8							; size = 4
_f$ = 12						; size = 4
??$LoadFloat_e@$0BB@@ioINILoader@@QAEMAAY0BB@$$CBDM@Z PROC ; ioINILoader::LoadFloat_e<17>, COMDAT
; _this$ = ecx

; 135  : 	{

  00000	55		 push	 ebp
  00001	8b ec		 mov	 ebp, esp
  00003	83 ec 1c	 sub	 esp, 28			; 0000001cH
  00006	a1 00 00 00 00	 mov	 eax, DWORD PTR ___security_cookie
  0000b	33 c5		 xor	 eax, ebp
  0000d	89 45 fc	 mov	 DWORD PTR __$ArrayPad$[ebp], eax
  00010	8b 45 08	 mov	 eax, DWORD PTR _k$[ebp]

; 136  : 		_ENCSTR(k, _k);

  00013	8a 10		 mov	 dl, BYTE PTR [eax]
  00015	56		 push	 esi
  00016	8b f1		 mov	 esi, ecx
  00018	84 d2		 test	 dl, dl
  0001a	0f 84 a7 01 00
	00		 je	 $LN96@LoadFloat_@8
  00020	80 f2 ed	 xor	 dl, -19			; ffffffedH
  00023	88 55 e4	 mov	 BYTE PTR __k$[ebp], dl
  00026	8a 50 01	 mov	 dl, BYTE PTR [eax+1]
  00029	84 d2		 test	 dl, dl
  0002b	0f 84 90 01 00
	00		 je	 $LN95@LoadFloat_@8
  00031	b1 ec		 mov	 cl, -20			; ffffffecH
  00033	32 d1		 xor	 dl, cl
  00035	88 55 e5	 mov	 BYTE PTR __k$[ebp+1], dl
  00038	8a 50 02	 mov	 dl, BYTE PTR [eax+2]
  0003b	84 d2		 test	 dl, dl
  0003d	0f 84 78 01 00
	00		 je	 $LN94@LoadFloat_@8
  00043	80 f2 eb	 xor	 dl, -21			; ffffffebH
  00046	88 55 e6	 mov	 BYTE PTR __k$[ebp+2], dl
  00049	8a 50 03	 mov	 dl, BYTE PTR [eax+3]
  0004c	84 d2		 test	 dl, dl
  0004e	0f 84 61 01 00
	00		 je	 $LN93@LoadFloat_@8
  00054	80 f2 ea	 xor	 dl, -22			; ffffffeaH
  00057	88 55 e7	 mov	 BYTE PTR __k$[ebp+3], dl
  0005a	8a 50 04	 mov	 dl, BYTE PTR [eax+4]
  0005d	84 d2		 test	 dl, dl
  0005f	0f 84 4a 01 00
	00		 je	 $LN92@LoadFloat_@8
  00065	80 f2 ed	 xor	 dl, -19			; ffffffedH
  00068	88 55 e8	 mov	 BYTE PTR __k$[ebp+4], dl
  0006b	8a 50 05	 mov	 dl, BYTE PTR [eax+5]
  0006e	84 d2		 test	 dl, dl
  00070	0f 84 34 01 00
	00		 je	 $LN91@LoadFloat_@8
  00076	32 d1		 xor	 dl, cl
  00078	88 55 e9	 mov	 BYTE PTR __k$[ebp+5], dl
  0007b	8a 50 06	 mov	 dl, BYTE PTR [eax+6]
  0007e	84 d2		 test	 dl, dl
  00080	0f 84 1e 01 00
	00		 je	 $LN90@LoadFloat_@8
  00086	80 f2 eb	 xor	 dl, -21			; ffffffebH
  00089	88 55 ea	 mov	 BYTE PTR __k$[ebp+6], dl
  0008c	8a 50 07	 mov	 dl, BYTE PTR [eax+7]
  0008f	84 d2		 test	 dl, dl
  00091	0f 84 07 01 00
	00		 je	 $LN89@LoadFloat_@8
  00097	80 f2 ea	 xor	 dl, -22			; ffffffeaH
  0009a	88 55 eb	 mov	 BYTE PTR __k$[ebp+7], dl
  0009d	8a 50 08	 mov	 dl, BYTE PTR [eax+8]
  000a0	84 d2		 test	 dl, dl
  000a2	0f 84 f0 00 00
	00		 je	 $LN88@LoadFloat_@8
  000a8	80 f2 ed	 xor	 dl, -19			; ffffffedH
  000ab	88 55 ec	 mov	 BYTE PTR __k$[ebp+8], dl
  000ae	8a 50 09	 mov	 dl, BYTE PTR [eax+9]
  000b1	84 d2		 test	 dl, dl
  000b3	0f 84 da 00 00
	00		 je	 $LN87@LoadFloat_@8
  000b9	32 d1		 xor	 dl, cl
  000bb	88 55 ed	 mov	 BYTE PTR __k$[ebp+9], dl
  000be	8a 50 0a	 mov	 dl, BYTE PTR [eax+10]
  000c1	84 d2		 test	 dl, dl
  000c3	0f 84 c4 00 00
	00		 je	 $LN86@LoadFloat_@8
  000c9	80 f2 eb	 xor	 dl, -21			; ffffffebH
  000cc	88 55 ee	 mov	 BYTE PTR __k$[ebp+10], dl
  000cf	8a 50 0b	 mov	 dl, BYTE PTR [eax+11]
  000d2	84 d2		 test	 dl, dl
  000d4	0f 84 ad 00 00
	00		 je	 $LN85@LoadFloat_@8
  000da	80 f2 ea	 xor	 dl, -22			; ffffffeaH
  000dd	88 55 ef	 mov	 BYTE PTR __k$[ebp+11], dl
  000e0	8a 50 0c	 mov	 dl, BYTE PTR [eax+12]
  000e3	84 d2		 test	 dl, dl
  000e5	0f 84 96 00 00
	00		 je	 $LN84@LoadFloat_@8
  000eb	80 f2 ed	 xor	 dl, -19			; ffffffedH
  000ee	88 55 f0	 mov	 BYTE PTR __k$[ebp+12], dl
  000f1	8a 50 0d	 mov	 dl, BYTE PTR [eax+13]
  000f4	84 d2		 test	 dl, dl
  000f6	0f 84 80 00 00
	00		 je	 $LN83@LoadFloat_@8
  000fc	32 d1		 xor	 dl, cl
  000fe	88 55 f1	 mov	 BYTE PTR __k$[ebp+13], dl
  00101	8a 50 0e	 mov	 dl, BYTE PTR [eax+14]
  00104	84 d2		 test	 dl, dl
  00106	74 6e		 je	 SHORT $LN82@LoadFloat_@8
  00108	80 f2 eb	 xor	 dl, -21			; ffffffebH
  0010b	88 55 f2	 mov	 BYTE PTR __k$[ebp+14], dl
  0010e	8a 50 0f	 mov	 dl, BYTE PTR [eax+15]
  00111	84 d2		 test	 dl, dl
  00113	74 5b		 je	 SHORT $LN81@LoadFloat_@8
  00115	80 f2 ea	 xor	 dl, -22			; ffffffeaH
  00118	80 78 10 00	 cmp	 BYTE PTR [eax+16], 0
  0011c	88 55 f3	 mov	 BYTE PTR __k$[ebp+15], dl
  0011f	0f 84 a6 00 00
	00		 je	 $LN1@LoadFloat_@8
  00125	8a 50 11	 mov	 dl, BYTE PTR [eax+17]
  00128	84 d2		 test	 dl, dl
  0012a	74 3f		 je	 SHORT $LN79@LoadFloat_@8
  0012c	32 d1		 xor	 dl, cl
  0012e	88 55 f5	 mov	 BYTE PTR __k$[ebp+17], dl
  00131	8a 50 12	 mov	 dl, BYTE PTR [eax+18]
  00134	84 d2		 test	 dl, dl
  00136	74 2d		 je	 SHORT $LN78@LoadFloat_@8
  00138	80 f2 eb	 xor	 dl, -21			; ffffffebH
  0013b	88 55 f6	 mov	 BYTE PTR __k$[ebp+18], dl
  0013e	8a 50 13	 mov	 dl, BYTE PTR [eax+19]
  00141	84 d2		 test	 dl, dl
  00143	74 1a		 je	 SHORT $LN77@LoadFloat_@8
  00145	8a 40 14	 mov	 al, BYTE PTR [eax+20]
  00148	80 f2 ea	 xor	 dl, -22			; ffffffeaH
  0014b	88 55 f7	 mov	 BYTE PTR __k$[ebp+19], dl
  0014e	84 c0		 test	 al, al
  00150	74 07		 je	 SHORT $LN76@LoadFloat_@8
  00152	34 ed		 xor	 al, -19			; ffffffedH
  00154	88 45 f8	 mov	 BYTE PTR __k$[ebp+20], al
  00157	eb 72		 jmp	 SHORT $LN1@LoadFloat_@8
$LN76@LoadFloat_@8:
  00159	c6 45 f8 ed	 mov	 BYTE PTR __k$[ebp+20], -19 ; ffffffedH
  0015d	eb 6c		 jmp	 SHORT $LN1@LoadFloat_@8
$LN77@LoadFloat_@8:
  0015f	c6 45 f7 ea	 mov	 BYTE PTR __k$[ebp+19], -22 ; ffffffeaH
  00163	eb 66		 jmp	 SHORT $LN1@LoadFloat_@8
$LN78@LoadFloat_@8:
  00165	c6 45 f6 eb	 mov	 BYTE PTR __k$[ebp+18], -21 ; ffffffebH
  00169	eb 60		 jmp	 SHORT $LN1@LoadFloat_@8
$LN79@LoadFloat_@8:
  0016b	88 4d f5	 mov	 BYTE PTR __k$[ebp+17], cl
  0016e	eb 5b		 jmp	 SHORT $LN1@LoadFloat_@8
$LN81@LoadFloat_@8:
  00170	c6 45 f3 ea	 mov	 BYTE PTR __k$[ebp+15], -22 ; ffffffeaH
  00174	eb 55		 jmp	 SHORT $LN1@LoadFloat_@8
$LN82@LoadFloat_@8:
  00176	c6 45 f2 eb	 mov	 BYTE PTR __k$[ebp+14], -21 ; ffffffebH
  0017a	eb 4f		 jmp	 SHORT $LN1@LoadFloat_@8
$LN83@LoadFloat_@8:
  0017c	88 4d f1	 mov	 BYTE PTR __k$[ebp+13], cl
  0017f	eb 4a		 jmp	 SHORT $LN1@LoadFloat_@8
$LN84@LoadFloat_@8:
  00181	c6 45 f0 ed	 mov	 BYTE PTR __k$[ebp+12], -19 ; ffffffedH
  00185	eb 44		 jmp	 SHORT $LN1@LoadFloat_@8
$LN85@LoadFloat_@8:
  00187	c6 45 ef ea	 mov	 BYTE PTR __k$[ebp+11], -22 ; ffffffeaH
  0018b	eb 3e		 jmp	 SHORT $LN1@LoadFloat_@8
$LN86@LoadFloat_@8:
  0018d	c6 45 ee eb	 mov	 BYTE PTR __k$[ebp+10], -21 ; ffffffebH
  00191	eb 38		 jmp	 SHORT $LN1@LoadFloat_@8
$LN87@LoadFloat_@8:
  00193	88 4d ed	 mov	 BYTE PTR __k$[ebp+9], cl
  00196	eb 33		 jmp	 SHORT $LN1@LoadFloat_@8
$LN88@LoadFloat_@8:
  00198	c6 45 ec ed	 mov	 BYTE PTR __k$[ebp+8], -19 ; ffffffedH
  0019c	eb 2d		 jmp	 SHORT $LN1@LoadFloat_@8
$LN89@LoadFloat_@8:
  0019e	c6 45 eb ea	 mov	 BYTE PTR __k$[ebp+7], -22 ; ffffffeaH
  001a2	eb 27		 jmp	 SHORT $LN1@LoadFloat_@8
$LN90@LoadFloat_@8:
  001a4	c6 45 ea eb	 mov	 BYTE PTR __k$[ebp+6], -21 ; ffffffebH
  001a8	eb 21		 jmp	 SHORT $LN1@LoadFloat_@8
$LN91@LoadFloat_@8:
  001aa	88 4d e9	 mov	 BYTE PTR __k$[ebp+5], cl
  001ad	eb 1c		 jmp	 SHORT $LN1@LoadFloat_@8
$LN92@LoadFloat_@8:
  001af	c6 45 e8 ed	 mov	 BYTE PTR __k$[ebp+4], -19 ; ffffffedH
  001b3	eb 16		 jmp	 SHORT $LN1@LoadFloat_@8
$LN93@LoadFloat_@8:
  001b5	c6 45 e7 ea	 mov	 BYTE PTR __k$[ebp+3], -22 ; ffffffeaH
  001b9	eb 10		 jmp	 SHORT $LN1@LoadFloat_@8
$LN94@LoadFloat_@8:
  001bb	c6 45 e6 eb	 mov	 BYTE PTR __k$[ebp+2], -21 ; ffffffebH
  001bf	eb 0a		 jmp	 SHORT $LN1@LoadFloat_@8
$LN95@LoadFloat_@8:
  001c1	c6 45 e5 ec	 mov	 BYTE PTR __k$[ebp+1], -20 ; ffffffecH
  001c5	eb 04		 jmp	 SHORT $LN1@LoadFloat_@8
$LN96@LoadFloat_@8:
  001c7	c6 45 e4 ed	 mov	 BYTE PTR __k$[ebp], -19	; ffffffedH
$LN1@LoadFloat_@8:
  001cb	6a 04		 push	 4
  001cd	8d 45 e4	 lea	 eax, DWORD PTR __k$[ebp]
  001d0	c6 45 f4 00	 mov	 BYTE PTR __k$[ebp+16], 0
  001d4	5a		 pop	 edx
$LL104@LoadFloat_@8:
  001d5	81 30 ed ec eb
	ea		 xor	 DWORD PTR [eax], -353637139 ; eaebecedH
  001db	83 c0 04	 add	 eax, 4
  001de	4a		 dec	 edx
  001df	75 f4		 jne	 SHORT $LL104@LoadFloat_@8

; 137  : 		return LoadFloat(_k, f);

  001e1	f3 0f 10 45 0c	 movss	 xmm0, DWORD PTR _f$[ebp]
  001e6	51		 push	 ecx
  001e7	8d 45 e4	 lea	 eax, DWORD PTR __k$[ebp]
  001ea	f3 0f 11 04 24	 movss	 DWORD PTR [esp], xmm0
  001ef	50		 push	 eax
  001f0	8b ce		 mov	 ecx, esi
  001f2	ff 15 00 00 00
	00		 call	 DWORD PTR __imp_?LoadFloat@ioINILoader@@QAEMPBDM@Z

; 138  : 	}

  001f8	8b 4d fc	 mov	 ecx, DWORD PTR __$ArrayPad$[ebp]
  001fb	33 cd		 xor	 ecx, ebp
  001fd	5e		 pop	 esi
  001fe	e8 00 00 00 00	 call	 @__security_check_cookie@4
  00203	c9		 leave
  00204	c2 08 00	 ret	 8
??$LoadFloat_e@$0BB@@ioINILoader@@QAEMAAY0BB@$$CBDM@Z ENDP ; ioINILoader::LoadFloat_e<17>
_TEXT	ENDS
PUBLIC	__$ArrayPad$
PUBLIC	??$LoadFloat_e@$0BG@@ioINILoader@@QAEMAAY0BG@$$CBDM@Z ; ioINILoader::LoadFloat_e<22>
; Function compile flags: /Ogsp
;	COMDAT ??$LoadFloat_e@$0BG@@ioINILoader@@QAEMAAY0BG@$$CBDM@Z
_TEXT	SEGMENT
__k$ = -32						; size = 22
__$ArrayPad$ = -4					; size = 4
_k$ = 8							; size = 4
_f$ = 12						; size = 4
??$LoadFloat_e@$0BG@@ioINILoader@@QAEMAAY0BG@$$CBDM@Z PROC ; ioINILoader::LoadFloat_e<22>, COMDAT
; _this$ = ecx

; 135  : 	{

  00000	55		 push	 ebp
  00001	8b ec		 mov	 ebp, esp
  00003	83 ec 20	 sub	 esp, 32			; 00000020H
  00006	a1 00 00 00 00	 mov	 eax, DWORD PTR ___security_cookie
  0000b	33 c5		 xor	 eax, ebp
  0000d	89 45 fc	 mov	 DWORD PTR __$ArrayPad$[ebp], eax
  00010	8b 45 08	 mov	 eax, DWORD PTR _k$[ebp]

; 136  : 		_ENCSTR(k, _k);

  00013	8a 10		 mov	 dl, BYTE PTR [eax]
  00015	53		 push	 ebx
  00016	56		 push	 esi
  00017	8b f1		 mov	 esi, ecx
  00019	84 d2		 test	 dl, dl
  0001b	0f 84 15 02 00
	00		 je	 $LN96@LoadFloat_@9
  00021	80 f2 ed	 xor	 dl, -19			; ffffffedH
  00024	88 55 e0	 mov	 BYTE PTR __k$[ebp], dl
  00027	8a 50 01	 mov	 dl, BYTE PTR [eax+1]
  0002a	84 d2		 test	 dl, dl
  0002c	0f 84 fe 01 00
	00		 je	 $LN95@LoadFloat_@9
  00032	80 f2 ec	 xor	 dl, -20			; ffffffecH
  00035	88 55 e1	 mov	 BYTE PTR __k$[ebp+1], dl
  00038	8a 50 02	 mov	 dl, BYTE PTR [eax+2]
  0003b	84 d2		 test	 dl, dl
  0003d	0f 84 e7 01 00
	00		 je	 $LN94@LoadFloat_@9
  00043	b1 eb		 mov	 cl, -21			; ffffffebH
  00045	32 d1		 xor	 dl, cl
  00047	88 55 e2	 mov	 BYTE PTR __k$[ebp+2], dl
  0004a	8a 50 03	 mov	 dl, BYTE PTR [eax+3]
  0004d	84 d2		 test	 dl, dl
  0004f	0f 84 cf 01 00
	00		 je	 $LN93@LoadFloat_@9
  00055	b3 ea		 mov	 bl, -22			; ffffffeaH
  00057	32 d3		 xor	 dl, bl
  00059	88 55 e3	 mov	 BYTE PTR __k$[ebp+3], dl
  0005c	8a 50 04	 mov	 dl, BYTE PTR [eax+4]
  0005f	84 d2		 test	 dl, dl
  00061	0f 84 b7 01 00
	00		 je	 $LN92@LoadFloat_@9
  00067	80 f2 ed	 xor	 dl, -19			; ffffffedH
  0006a	88 55 e4	 mov	 BYTE PTR __k$[ebp+4], dl
  0006d	8a 50 05	 mov	 dl, BYTE PTR [eax+5]
  00070	84 d2		 test	 dl, dl
  00072	0f 84 a0 01 00
	00		 je	 $LN91@LoadFloat_@9
  00078	80 f2 ec	 xor	 dl, -20			; ffffffecH
  0007b	88 55 e5	 mov	 BYTE PTR __k$[ebp+5], dl
  0007e	8a 50 06	 mov	 dl, BYTE PTR [eax+6]
  00081	84 d2		 test	 dl, dl
  00083	0f 84 8a 01 00
	00		 je	 $LN90@LoadFloat_@9
  00089	32 d1		 xor	 dl, cl
  0008b	88 55 e6	 mov	 BYTE PTR __k$[ebp+6], dl
  0008e	8a 50 07	 mov	 dl, BYTE PTR [eax+7]
  00091	84 d2		 test	 dl, dl
  00093	0f 84 75 01 00
	00		 je	 $LN89@LoadFloat_@9
  00099	32 d3		 xor	 dl, bl
  0009b	88 55 e7	 mov	 BYTE PTR __k$[ebp+7], dl
  0009e	8a 50 08	 mov	 dl, BYTE PTR [eax+8]
  000a1	84 d2		 test	 dl, dl
  000a3	0f 84 5f 01 00
	00		 je	 $LN88@LoadFloat_@9
  000a9	80 f2 ed	 xor	 dl, -19			; ffffffedH
  000ac	88 55 e8	 mov	 BYTE PTR __k$[ebp+8], dl
  000af	8a 50 09	 mov	 dl, BYTE PTR [eax+9]
  000b2	84 d2		 test	 dl, dl
  000b4	0f 84 48 01 00
	00		 je	 $LN87@LoadFloat_@9
  000ba	80 f2 ec	 xor	 dl, -20			; ffffffecH
  000bd	88 55 e9	 mov	 BYTE PTR __k$[ebp+9], dl
  000c0	8a 50 0a	 mov	 dl, BYTE PTR [eax+10]
  000c3	84 d2		 test	 dl, dl
  000c5	0f 84 32 01 00
	00		 je	 $LN86@LoadFloat_@9
  000cb	32 d1		 xor	 dl, cl
  000cd	88 55 ea	 mov	 BYTE PTR __k$[ebp+10], dl
  000d0	8a 50 0b	 mov	 dl, BYTE PTR [eax+11]
  000d3	84 d2		 test	 dl, dl
  000d5	0f 84 1d 01 00
	00		 je	 $LN85@LoadFloat_@9
  000db	32 d3		 xor	 dl, bl
  000dd	88 55 eb	 mov	 BYTE PTR __k$[ebp+11], dl
  000e0	8a 50 0c	 mov	 dl, BYTE PTR [eax+12]
  000e3	84 d2		 test	 dl, dl
  000e5	0f 84 07 01 00
	00		 je	 $LN84@LoadFloat_@9
  000eb	80 f2 ed	 xor	 dl, -19			; ffffffedH
  000ee	88 55 ec	 mov	 BYTE PTR __k$[ebp+12], dl
  000f1	8a 50 0d	 mov	 dl, BYTE PTR [eax+13]
  000f4	84 d2		 test	 dl, dl
  000f6	0f 84 f0 00 00
	00		 je	 $LN83@LoadFloat_@9
  000fc	80 f2 ec	 xor	 dl, -20			; ffffffecH
  000ff	88 55 ed	 mov	 BYTE PTR __k$[ebp+13], dl
  00102	8a 50 0e	 mov	 dl, BYTE PTR [eax+14]
  00105	84 d2		 test	 dl, dl
  00107	0f 84 da 00 00
	00		 je	 $LN82@LoadFloat_@9
  0010d	32 d1		 xor	 dl, cl
  0010f	88 55 ee	 mov	 BYTE PTR __k$[ebp+14], dl
  00112	8a 50 0f	 mov	 dl, BYTE PTR [eax+15]
  00115	84 d2		 test	 dl, dl
  00117	0f 84 c5 00 00
	00		 je	 $LN81@LoadFloat_@9
  0011d	32 d3		 xor	 dl, bl
  0011f	88 55 ef	 mov	 BYTE PTR __k$[ebp+15], dl
  00122	8a 50 10	 mov	 dl, BYTE PTR [eax+16]
  00125	84 d2		 test	 dl, dl
  00127	0f 84 af 00 00
	00		 je	 $LN80@LoadFloat_@9
  0012d	80 f2 ed	 xor	 dl, -19			; ffffffedH
  00130	88 55 f0	 mov	 BYTE PTR __k$[ebp+16], dl
  00133	8a 50 11	 mov	 dl, BYTE PTR [eax+17]
  00136	84 d2		 test	 dl, dl
  00138	0f 84 98 00 00
	00		 je	 $LN79@LoadFloat_@9
  0013e	80 f2 ec	 xor	 dl, -20			; ffffffecH
  00141	88 55 f1	 mov	 BYTE PTR __k$[ebp+17], dl
  00144	8a 50 12	 mov	 dl, BYTE PTR [eax+18]
  00147	84 d2		 test	 dl, dl
  00149	0f 84 82 00 00
	00		 je	 $LN78@LoadFloat_@9
  0014f	32 d1		 xor	 dl, cl
  00151	88 55 f2	 mov	 BYTE PTR __k$[ebp+18], dl
  00154	8a 50 13	 mov	 dl, BYTE PTR [eax+19]
  00157	84 d2		 test	 dl, dl
  00159	74 71		 je	 SHORT $LN77@LoadFloat_@9
  0015b	32 d3		 xor	 dl, bl
  0015d	88 55 f3	 mov	 BYTE PTR __k$[ebp+19], dl
  00160	8a 50 14	 mov	 dl, BYTE PTR [eax+20]
  00163	84 d2		 test	 dl, dl
  00165	74 5f		 je	 SHORT $LN76@LoadFloat_@9
  00167	80 f2 ed	 xor	 dl, -19			; ffffffedH
  0016a	80 78 15 00	 cmp	 BYTE PTR [eax+21], 0
  0016e	88 55 f4	 mov	 BYTE PTR __k$[ebp+20], dl
  00171	0f 84 c3 00 00
	00		 je	 $LN1@LoadFloat_@9
  00177	8a 50 16	 mov	 dl, BYTE PTR [eax+22]
  0017a	84 d2		 test	 dl, dl
  0017c	74 43		 je	 SHORT $LN74@LoadFloat_@9
  0017e	32 d1		 xor	 dl, cl
  00180	88 55 f6	 mov	 BYTE PTR __k$[ebp+22], dl
  00183	8a 50 17	 mov	 dl, BYTE PTR [eax+23]
  00186	84 d2		 test	 dl, dl
  00188	74 32		 je	 SHORT $LN73@LoadFloat_@9
  0018a	32 d3		 xor	 dl, bl
  0018c	88 55 f7	 mov	 BYTE PTR __k$[ebp+23], dl
  0018f	8a 50 18	 mov	 dl, BYTE PTR [eax+24]
  00192	84 d2		 test	 dl, dl
  00194	74 20		 je	 SHORT $LN72@LoadFloat_@9
  00196	8a 40 19	 mov	 al, BYTE PTR [eax+25]
  00199	80 f2 ed	 xor	 dl, -19			; ffffffedH
  0019c	88 55 f8	 mov	 BYTE PTR __k$[ebp+24], dl
  0019f	84 c0		 test	 al, al
  001a1	74 0a		 je	 SHORT $LN71@LoadFloat_@9
  001a3	34 ec		 xor	 al, -20			; ffffffecH
  001a5	88 45 f9	 mov	 BYTE PTR __k$[ebp+25], al
  001a8	e9 8d 00 00 00	 jmp	 $LN1@LoadFloat_@9
$LN71@LoadFloat_@9:
  001ad	c6 45 f9 ec	 mov	 BYTE PTR __k$[ebp+25], -20 ; ffffffecH
  001b1	e9 84 00 00 00	 jmp	 $LN1@LoadFloat_@9
$LN72@LoadFloat_@9:
  001b6	c6 45 f8 ed	 mov	 BYTE PTR __k$[ebp+24], -19 ; ffffffedH
  001ba	eb 7e		 jmp	 SHORT $LN1@LoadFloat_@9
$LN73@LoadFloat_@9:
  001bc	88 5d f7	 mov	 BYTE PTR __k$[ebp+23], bl
  001bf	eb 79		 jmp	 SHORT $LN1@LoadFloat_@9
$LN74@LoadFloat_@9:
  001c1	88 4d f6	 mov	 BYTE PTR __k$[ebp+22], cl
  001c4	eb 74		 jmp	 SHORT $LN1@LoadFloat_@9
$LN76@LoadFloat_@9:
  001c6	c6 45 f4 ed	 mov	 BYTE PTR __k$[ebp+20], -19 ; ffffffedH
  001ca	eb 6e		 jmp	 SHORT $LN1@LoadFloat_@9
$LN77@LoadFloat_@9:
  001cc	88 5d f3	 mov	 BYTE PTR __k$[ebp+19], bl
  001cf	eb 69		 jmp	 SHORT $LN1@LoadFloat_@9
$LN78@LoadFloat_@9:
  001d1	88 4d f2	 mov	 BYTE PTR __k$[ebp+18], cl
  001d4	eb 64		 jmp	 SHORT $LN1@LoadFloat_@9
$LN79@LoadFloat_@9:
  001d6	c6 45 f1 ec	 mov	 BYTE PTR __k$[ebp+17], -20 ; ffffffecH
  001da	eb 5e		 jmp	 SHORT $LN1@LoadFloat_@9
$LN80@LoadFloat_@9:
  001dc	c6 45 f0 ed	 mov	 BYTE PTR __k$[ebp+16], -19 ; ffffffedH
  001e0	eb 58		 jmp	 SHORT $LN1@LoadFloat_@9
$LN81@LoadFloat_@9:
  001e2	88 5d ef	 mov	 BYTE PTR __k$[ebp+15], bl
  001e5	eb 53		 jmp	 SHORT $LN1@LoadFloat_@9
$LN82@LoadFloat_@9:
  001e7	88 4d ee	 mov	 BYTE PTR __k$[ebp+14], cl
  001ea	eb 4e		 jmp	 SHORT $LN1@LoadFloat_@9
$LN83@LoadFloat_@9:
  001ec	c6 45 ed ec	 mov	 BYTE PTR __k$[ebp+13], -20 ; ffffffecH
  001f0	eb 48		 jmp	 SHORT $LN1@LoadFloat_@9
$LN84@LoadFloat_@9:
  001f2	c6 45 ec ed	 mov	 BYTE PTR __k$[ebp+12], -19 ; ffffffedH
  001f6	eb 42		 jmp	 SHORT $LN1@LoadFloat_@9
$LN85@LoadFloat_@9:
  001f8	88 5d eb	 mov	 BYTE PTR __k$[ebp+11], bl
  001fb	eb 3d		 jmp	 SHORT $LN1@LoadFloat_@9
$LN86@LoadFloat_@9:
  001fd	88 4d ea	 mov	 BYTE PTR __k$[ebp+10], cl
  00200	eb 38		 jmp	 SHORT $LN1@LoadFloat_@9
$LN87@LoadFloat_@9:
  00202	c6 45 e9 ec	 mov	 BYTE PTR __k$[ebp+9], -20 ; ffffffecH
  00206	eb 32		 jmp	 SHORT $LN1@LoadFloat_@9
$LN88@LoadFloat_@9:
  00208	c6 45 e8 ed	 mov	 BYTE PTR __k$[ebp+8], -19 ; ffffffedH
  0020c	eb 2c		 jmp	 SHORT $LN1@LoadFloat_@9
$LN89@LoadFloat_@9:
  0020e	88 5d e7	 mov	 BYTE PTR __k$[ebp+7], bl
  00211	eb 27		 jmp	 SHORT $LN1@LoadFloat_@9
$LN90@LoadFloat_@9:
  00213	88 4d e6	 mov	 BYTE PTR __k$[ebp+6], cl
  00216	eb 22		 jmp	 SHORT $LN1@LoadFloat_@9
$LN91@LoadFloat_@9:
  00218	c6 45 e5 ec	 mov	 BYTE PTR __k$[ebp+5], -20 ; ffffffecH
  0021c	eb 1c		 jmp	 SHORT $LN1@LoadFloat_@9
$LN92@LoadFloat_@9:
  0021e	c6 45 e4 ed	 mov	 BYTE PTR __k$[ebp+4], -19 ; ffffffedH
  00222	eb 16		 jmp	 SHORT $LN1@LoadFloat_@9
$LN93@LoadFloat_@9:
  00224	c6 45 e3 ea	 mov	 BYTE PTR __k$[ebp+3], -22 ; ffffffeaH
  00228	eb 10		 jmp	 SHORT $LN1@LoadFloat_@9
$LN94@LoadFloat_@9:
  0022a	c6 45 e2 eb	 mov	 BYTE PTR __k$[ebp+2], -21 ; ffffffebH
  0022e	eb 0a		 jmp	 SHORT $LN1@LoadFloat_@9
$LN95@LoadFloat_@9:
  00230	c6 45 e1 ec	 mov	 BYTE PTR __k$[ebp+1], -20 ; ffffffecH
  00234	eb 04		 jmp	 SHORT $LN1@LoadFloat_@9
$LN96@LoadFloat_@9:
  00236	c6 45 e0 ed	 mov	 BYTE PTR __k$[ebp], -19	; ffffffedH
$LN1@LoadFloat_@9:
  0023a	6a 05		 push	 5
  0023c	8d 45 e0	 lea	 eax, DWORD PTR __k$[ebp]
  0023f	c6 45 f5 00	 mov	 BYTE PTR __k$[ebp+21], 0
  00243	5a		 pop	 edx
$LL104@LoadFloat_@9:
  00244	81 30 ed ec eb
	ea		 xor	 DWORD PTR [eax], -353637139 ; eaebecedH
  0024a	83 c0 04	 add	 eax, 4
  0024d	4a		 dec	 edx
  0024e	75 f4		 jne	 SHORT $LL104@LoadFloat_@9

; 137  : 		return LoadFloat(_k, f);

  00250	f3 0f 10 45 0c	 movss	 xmm0, DWORD PTR _f$[ebp]
  00255	80 75 f4 ed	 xor	 BYTE PTR __k$[ebp+20], -19 ; ffffffedH
  00259	51		 push	 ecx
  0025a	8d 45 e0	 lea	 eax, DWORD PTR __k$[ebp]
  0025d	f3 0f 11 04 24	 movss	 DWORD PTR [esp], xmm0
  00262	50		 push	 eax
  00263	8b ce		 mov	 ecx, esi
  00265	ff 15 00 00 00
	00		 call	 DWORD PTR __imp_?LoadFloat@ioINILoader@@QAEMPBDM@Z

; 138  : 	}

  0026b	8b 4d fc	 mov	 ecx, DWORD PTR __$ArrayPad$[ebp]
  0026e	5e		 pop	 esi
  0026f	33 cd		 xor	 ecx, ebp
  00271	5b		 pop	 ebx
  00272	e8 00 00 00 00	 call	 @__security_check_cookie@4
  00277	c9		 leave
  00278	c2 08 00	 ret	 8
??$LoadFloat_e@$0BG@@ioINILoader@@QAEMAAY0BG@$$CBDM@Z ENDP ; ioINILoader::LoadFloat_e<22>
_TEXT	ENDS
PUBLIC	__$ArrayPad$
PUBLIC	??$LoadInt_e@$0N@@ioINILoader@@QAEHAAY0N@$$CBDH@Z ; ioINILoader::LoadInt_e<13>
; Function compile flags: /Ogsp
;	COMDAT ??$LoadInt_e@$0N@@ioINILoader@@QAEHAAY0N@$$CBDH@Z
_TEXT	SEGMENT
__k$ = -24						; size = 13
__$ArrayPad$ = -4					; size = 4
_k$ = 8							; size = 4
_i$ = 12						; size = 4
??$LoadInt_e@$0N@@ioINILoader@@QAEHAAY0N@$$CBDH@Z PROC	; ioINILoader::LoadInt_e<13>, COMDAT
; _this$ = ecx

; 118  : 	{

  00000	55		 push	 ebp
  00001	8b ec		 mov	 ebp, esp
  00003	83 ec 18	 sub	 esp, 24			; 00000018H
  00006	a1 00 00 00 00	 mov	 eax, DWORD PTR ___security_cookie
  0000b	33 c5		 xor	 eax, ebp
  0000d	89 45 fc	 mov	 DWORD PTR __$ArrayPad$[ebp], eax
  00010	8b 45 08	 mov	 eax, DWORD PTR _k$[ebp]

; 119  : 		_ENCSTR(k, _k);

  00013	8a 10		 mov	 dl, BYTE PTR [eax]
  00015	56		 push	 esi
  00016	8b f1		 mov	 esi, ecx
  00018	84 d2		 test	 dl, dl
  0001a	0f 84 4d 01 00
	00		 je	 $LN96@LoadInt_e@6
  00020	80 f2 ed	 xor	 dl, -19			; ffffffedH
  00023	88 55 e8	 mov	 BYTE PTR __k$[ebp], dl
  00026	8a 50 01	 mov	 dl, BYTE PTR [eax+1]
  00029	84 d2		 test	 dl, dl
  0002b	0f 84 36 01 00
	00		 je	 $LN95@LoadInt_e@6
  00031	b1 ec		 mov	 cl, -20			; ffffffecH
  00033	32 d1		 xor	 dl, cl
  00035	88 55 e9	 mov	 BYTE PTR __k$[ebp+1], dl
  00038	8a 50 02	 mov	 dl, BYTE PTR [eax+2]
  0003b	84 d2		 test	 dl, dl
  0003d	0f 84 1e 01 00
	00		 je	 $LN94@LoadInt_e@6
  00043	80 f2 eb	 xor	 dl, -21			; ffffffebH
  00046	88 55 ea	 mov	 BYTE PTR __k$[ebp+2], dl
  00049	8a 50 03	 mov	 dl, BYTE PTR [eax+3]
  0004c	84 d2		 test	 dl, dl
  0004e	0f 84 07 01 00
	00		 je	 $LN93@LoadInt_e@6
  00054	80 f2 ea	 xor	 dl, -22			; ffffffeaH
  00057	88 55 eb	 mov	 BYTE PTR __k$[ebp+3], dl
  0005a	8a 50 04	 mov	 dl, BYTE PTR [eax+4]
  0005d	84 d2		 test	 dl, dl
  0005f	0f 84 f0 00 00
	00		 je	 $LN92@LoadInt_e@6
  00065	80 f2 ed	 xor	 dl, -19			; ffffffedH
  00068	88 55 ec	 mov	 BYTE PTR __k$[ebp+4], dl
  0006b	8a 50 05	 mov	 dl, BYTE PTR [eax+5]
  0006e	84 d2		 test	 dl, dl
  00070	0f 84 da 00 00
	00		 je	 $LN91@LoadInt_e@6
  00076	32 d1		 xor	 dl, cl
  00078	88 55 ed	 mov	 BYTE PTR __k$[ebp+5], dl
  0007b	8a 50 06	 mov	 dl, BYTE PTR [eax+6]
  0007e	84 d2		 test	 dl, dl
  00080	0f 84 c4 00 00
	00		 je	 $LN90@LoadInt_e@6
  00086	80 f2 eb	 xor	 dl, -21			; ffffffebH
  00089	88 55 ee	 mov	 BYTE PTR __k$[ebp+6], dl
  0008c	8a 50 07	 mov	 dl, BYTE PTR [eax+7]
  0008f	84 d2		 test	 dl, dl
  00091	0f 84 ad 00 00
	00		 je	 $LN89@LoadInt_e@6
  00097	80 f2 ea	 xor	 dl, -22			; ffffffeaH
  0009a	88 55 ef	 mov	 BYTE PTR __k$[ebp+7], dl
  0009d	8a 50 08	 mov	 dl, BYTE PTR [eax+8]
  000a0	84 d2		 test	 dl, dl
  000a2	0f 84 96 00 00
	00		 je	 $LN88@LoadInt_e@6
  000a8	80 f2 ed	 xor	 dl, -19			; ffffffedH
  000ab	88 55 f0	 mov	 BYTE PTR __k$[ebp+8], dl
  000ae	8a 50 09	 mov	 dl, BYTE PTR [eax+9]
  000b1	84 d2		 test	 dl, dl
  000b3	0f 84 80 00 00
	00		 je	 $LN87@LoadInt_e@6
  000b9	32 d1		 xor	 dl, cl
  000bb	88 55 f1	 mov	 BYTE PTR __k$[ebp+9], dl
  000be	8a 50 0a	 mov	 dl, BYTE PTR [eax+10]
  000c1	84 d2		 test	 dl, dl
  000c3	74 6e		 je	 SHORT $LN86@LoadInt_e@6
  000c5	80 f2 eb	 xor	 dl, -21			; ffffffebH
  000c8	88 55 f2	 mov	 BYTE PTR __k$[ebp+10], dl
  000cb	8a 50 0b	 mov	 dl, BYTE PTR [eax+11]
  000ce	84 d2		 test	 dl, dl
  000d0	74 5b		 je	 SHORT $LN85@LoadInt_e@6
  000d2	80 f2 ea	 xor	 dl, -22			; ffffffeaH
  000d5	80 78 0c 00	 cmp	 BYTE PTR [eax+12], 0
  000d9	88 55 f3	 mov	 BYTE PTR __k$[ebp+11], dl
  000dc	0f 84 8f 00 00
	00		 je	 $LN1@LoadInt_e@6
  000e2	8a 50 0d	 mov	 dl, BYTE PTR [eax+13]
  000e5	84 d2		 test	 dl, dl
  000e7	74 3f		 je	 SHORT $LN83@LoadInt_e@6
  000e9	32 d1		 xor	 dl, cl
  000eb	88 55 f5	 mov	 BYTE PTR __k$[ebp+13], dl
  000ee	8a 50 0e	 mov	 dl, BYTE PTR [eax+14]
  000f1	84 d2		 test	 dl, dl
  000f3	74 2d		 je	 SHORT $LN82@LoadInt_e@6
  000f5	80 f2 eb	 xor	 dl, -21			; ffffffebH
  000f8	88 55 f6	 mov	 BYTE PTR __k$[ebp+14], dl
  000fb	8a 50 0f	 mov	 dl, BYTE PTR [eax+15]
  000fe	84 d2		 test	 dl, dl
  00100	74 1a		 je	 SHORT $LN81@LoadInt_e@6
  00102	8a 40 10	 mov	 al, BYTE PTR [eax+16]
  00105	80 f2 ea	 xor	 dl, -22			; ffffffeaH
  00108	88 55 f7	 mov	 BYTE PTR __k$[ebp+15], dl
  0010b	84 c0		 test	 al, al
  0010d	74 07		 je	 SHORT $LN80@LoadInt_e@6
  0010f	34 ed		 xor	 al, -19			; ffffffedH
  00111	88 45 f8	 mov	 BYTE PTR __k$[ebp+16], al
  00114	eb 5b		 jmp	 SHORT $LN1@LoadInt_e@6
$LN80@LoadInt_e@6:
  00116	c6 45 f8 ed	 mov	 BYTE PTR __k$[ebp+16], -19 ; ffffffedH
  0011a	eb 55		 jmp	 SHORT $LN1@LoadInt_e@6
$LN81@LoadInt_e@6:
  0011c	c6 45 f7 ea	 mov	 BYTE PTR __k$[ebp+15], -22 ; ffffffeaH
  00120	eb 4f		 jmp	 SHORT $LN1@LoadInt_e@6
$LN82@LoadInt_e@6:
  00122	c6 45 f6 eb	 mov	 BYTE PTR __k$[ebp+14], -21 ; ffffffebH
  00126	eb 49		 jmp	 SHORT $LN1@LoadInt_e@6
$LN83@LoadInt_e@6:
  00128	88 4d f5	 mov	 BYTE PTR __k$[ebp+13], cl
  0012b	eb 44		 jmp	 SHORT $LN1@LoadInt_e@6
$LN85@LoadInt_e@6:
  0012d	c6 45 f3 ea	 mov	 BYTE PTR __k$[ebp+11], -22 ; ffffffeaH
  00131	eb 3e		 jmp	 SHORT $LN1@LoadInt_e@6
$LN86@LoadInt_e@6:
  00133	c6 45 f2 eb	 mov	 BYTE PTR __k$[ebp+10], -21 ; ffffffebH
  00137	eb 38		 jmp	 SHORT $LN1@LoadInt_e@6
$LN87@LoadInt_e@6:
  00139	88 4d f1	 mov	 BYTE PTR __k$[ebp+9], cl
  0013c	eb 33		 jmp	 SHORT $LN1@LoadInt_e@6
$LN88@LoadInt_e@6:
  0013e	c6 45 f0 ed	 mov	 BYTE PTR __k$[ebp+8], -19 ; ffffffedH
  00142	eb 2d		 jmp	 SHORT $LN1@LoadInt_e@6
$LN89@LoadInt_e@6:
  00144	c6 45 ef ea	 mov	 BYTE PTR __k$[ebp+7], -22 ; ffffffeaH
  00148	eb 27		 jmp	 SHORT $LN1@LoadInt_e@6
$LN90@LoadInt_e@6:
  0014a	c6 45 ee eb	 mov	 BYTE PTR __k$[ebp+6], -21 ; ffffffebH
  0014e	eb 21		 jmp	 SHORT $LN1@LoadInt_e@6
$LN91@LoadInt_e@6:
  00150	88 4d ed	 mov	 BYTE PTR __k$[ebp+5], cl
  00153	eb 1c		 jmp	 SHORT $LN1@LoadInt_e@6
$LN92@LoadInt_e@6:
  00155	c6 45 ec ed	 mov	 BYTE PTR __k$[ebp+4], -19 ; ffffffedH
  00159	eb 16		 jmp	 SHORT $LN1@LoadInt_e@6
$LN93@LoadInt_e@6:
  0015b	c6 45 eb ea	 mov	 BYTE PTR __k$[ebp+3], -22 ; ffffffeaH
  0015f	eb 10		 jmp	 SHORT $LN1@LoadInt_e@6
$LN94@LoadInt_e@6:
  00161	c6 45 ea eb	 mov	 BYTE PTR __k$[ebp+2], -21 ; ffffffebH
  00165	eb 0a		 jmp	 SHORT $LN1@LoadInt_e@6
$LN95@LoadInt_e@6:
  00167	c6 45 e9 ec	 mov	 BYTE PTR __k$[ebp+1], -20 ; ffffffecH
  0016b	eb 04		 jmp	 SHORT $LN1@LoadInt_e@6
$LN96@LoadInt_e@6:
  0016d	c6 45 e8 ed	 mov	 BYTE PTR __k$[ebp], -19	; ffffffedH
$LN1@LoadInt_e@6:
  00171	6a 03		 push	 3
  00173	8d 45 e8	 lea	 eax, DWORD PTR __k$[ebp]
  00176	c6 45 f4 00	 mov	 BYTE PTR __k$[ebp+12], 0
  0017a	5a		 pop	 edx
$LL104@LoadInt_e@6:
  0017b	81 30 ed ec eb
	ea		 xor	 DWORD PTR [eax], -353637139 ; eaebecedH
  00181	83 c0 04	 add	 eax, 4
  00184	4a		 dec	 edx
  00185	75 f4		 jne	 SHORT $LL104@LoadInt_e@6

; 120  : 		return LoadInt(_k, i);

  00187	ff 75 0c	 push	 DWORD PTR _i$[ebp]
  0018a	8d 45 e8	 lea	 eax, DWORD PTR __k$[ebp]
  0018d	50		 push	 eax
  0018e	8b ce		 mov	 ecx, esi
  00190	ff 15 00 00 00
	00		 call	 DWORD PTR __imp_?LoadInt@ioINILoader@@QAEHPBDH@Z

; 121  : 	}

  00196	8b 4d fc	 mov	 ecx, DWORD PTR __$ArrayPad$[ebp]
  00199	33 cd		 xor	 ecx, ebp
  0019b	5e		 pop	 esi
  0019c	e8 00 00 00 00	 call	 @__security_check_cookie@4
  001a1	c9		 leave
  001a2	c2 08 00	 ret	 8
??$LoadInt_e@$0N@@ioINILoader@@QAEHAAY0N@$$CBDH@Z ENDP	; ioINILoader::LoadInt_e<13>
_TEXT	ENDS
PUBLIC	__real@3fd2ee0d320154cb
PUBLIC	__real@41f0000000000000
PUBLIC	??$RADtoDEG@M@@YAMM@Z				; RADtoDEG<float>
;	COMDAT __real@3fd2ee0d320154cb
; File d:\lost saga for developer\youtube\tutorial\source\src\lsclient\veryoftenusedefine.h
CONST	SEGMENT
__real@3fd2ee0d320154cb DQ 03fd2ee0d320154cbr	; 0.29578
CONST	ENDS
;	COMDAT __real@41f0000000000000
CONST	SEGMENT
__real@41f0000000000000 DQ 041f0000000000000r	; 4.29497e+009
; Function compile flags: /Ogsp
CONST	ENDS
;	COMDAT ??$RADtoDEG@M@@YAMM@Z
_TEXT	SEGMENT
tv130 = -4						; size = 4
tv75 = 8						; size = 4
_val$ = 8						; size = 4
??$RADtoDEG@M@@YAMM@Z PROC				; RADtoDEG<float>, COMDAT

; 18   : type  RADtoDEG (type val) {return (type) (val * (return57() + 0.2957795132)); }

  00000	55		 push	 ebp
  00001	8b ec		 mov	 ebp, esp
  00003	51		 push	 ecx
  00004	b8 39 00 00 00	 mov	 eax, 57			; 00000039H
  00009	89 45 fc	 mov	 DWORD PTR tv130[ebp], eax
  0000c	db 45 fc	 fild	 DWORD PTR tv130[ebp]
  0000f	85 c0		 test	 eax, eax
  00011	79 06		 jns	 SHORT $LN5@RADtoDEG
  00013	dc 05 00 00 00
	00		 fadd	 QWORD PTR __real@41f0000000000000
$LN5@RADtoDEG:
  00019	dc 05 00 00 00
	00		 fadd	 QWORD PTR __real@3fd2ee0d320154cb
  0001f	d8 4d 08	 fmul	 DWORD PTR _val$[ebp]
  00022	d9 5d 08	 fstp	 DWORD PTR tv75[ebp]
  00025	d9 45 08	 fld	 DWORD PTR tv75[ebp]
  00028	c9		 leave
  00029	c3		 ret	 0
??$RADtoDEG@M@@YAMM@Z ENDP				; RADtoDEG<float>
_TEXT	ENDS
PUBLIC	??0WeaponInfo@@QAE@XZ				; WeaponInfo::WeaponInfo
EXTRN	__imp_??0ioHashString@@QAE@XZ:PROC
; Function compile flags: /Ogsp
; File d:\lost saga for developer\youtube\tutorial\source\src\lsclient\ioattackattribute.h
;	COMDAT ??0WeaponInfo@@QAE@XZ
_TEXT	SEGMENT
??0WeaponInfo@@QAE@XZ PROC				; WeaponInfo::WeaponInfo, COMDAT
; _this$ = ecx

; 64   : 	WeaponInfo()

  00000	56		 push	 esi
  00001	8b f1		 mov	 esi, ecx
  00003	8d 4e 08	 lea	 ecx, DWORD PTR [esi+8]
  00006	ff 15 00 00 00
	00		 call	 DWORD PTR __imp_??0ioHashString@@QAE@XZ

; 65   : 	{
; 66   : 		Init();

  0000c	33 c0		 xor	 eax, eax
  0000e	89 06		 mov	 DWORD PTR [esi], eax
  00010	89 46 04	 mov	 DWORD PTR [esi+4], eax
  00013	89 46 18	 mov	 DWORD PTR [esi+24], eax
  00016	89 46 1c	 mov	 DWORD PTR [esi+28], eax
  00019	88 46 20	 mov	 BYTE PTR [esi+32], al
  0001c	89 46 24	 mov	 DWORD PTR [esi+36], eax

; 67   : 	}

  0001f	8b c6		 mov	 eax, esi
  00021	5e		 pop	 esi
  00022	c3		 ret	 0
??0WeaponInfo@@QAE@XZ ENDP				; WeaponInfo::WeaponInfo
_TEXT	ENDS
PUBLIC	??0?$CEncrypt@M@@QAE@XZ				; CEncrypt<float>::CEncrypt<float>
EXTRN	??0ccddaabb@@QAE@XZ:PROC			; ccddaabb::ccddaabb
;	COMDAT xdata$x
; File d:\lost saga for developer\youtube\tutorial\source\src\lsclient\encryptvalue.h
xdata$x	SEGMENT
__unwindtable$??0?$CEncrypt@M@@QAE@XZ DD 0ffffffffH
	DD	FLAT:__unwindfunclet$??0?$CEncrypt@M@@QAE@XZ$0
__ehfuncinfo$??0?$CEncrypt@M@@QAE@XZ DD 019930522H
	DD	01H
	DD	FLAT:__unwindtable$??0?$CEncrypt@M@@QAE@XZ
	DD	2 DUP(00H)
	DD	2 DUP(00H)
	DD	00H
	DD	01H
; Function compile flags: /Ogsp
xdata$x	ENDS
;	COMDAT ??0?$CEncrypt@M@@QAE@XZ
_TEXT	SEGMENT
_this$ = -16						; size = 4
__$EHRec$ = -12						; size = 12
??0?$CEncrypt@M@@QAE@XZ PROC				; CEncrypt<float>::CEncrypt<float>, COMDAT
; _this$ = ecx

; 109  : 	CEncrypt()

  00000	6a 04		 push	 4
  00002	b8 00 00 00 00	 mov	 eax, __ehhandler$??0?$CEncrypt@M@@QAE@XZ
  00007	e8 00 00 00 00	 call	 __EH_prolog3
  0000c	8b f1		 mov	 esi, ecx
  0000e	89 75 f0	 mov	 DWORD PTR _this$[ebp], esi
  00011	8d 4e 0c	 lea	 ecx, DWORD PTR [esi+12]
  00014	c7 06 00 00 00
	00		 mov	 DWORD PTR [esi], OFFSET ??_7?$CEncrypt@M@@6B@
  0001a	e8 00 00 00 00	 call	 ??0ccddaabb@@QAE@XZ	; ccddaabb::ccddaabb
  0001f	83 65 fc 00	 and	 DWORD PTR __$EHRec$[ebp+8], 0

; 110  : 	{
; 111  : 		Init();

  00023	8b ce		 mov	 ecx, esi
  00025	e8 00 00 00 00	 call	 ?Init@?$CEncrypt@M@@AAEXXZ ; CEncrypt<float>::Init

; 112  : 	}

  0002a	8b c6		 mov	 eax, esi
  0002c	e8 00 00 00 00	 call	 __EH_epilog3
  00031	c3		 ret	 0
_TEXT	ENDS
;	COMDAT text$x
text$x	SEGMENT
__unwindfunclet$??0?$CEncrypt@M@@QAE@XZ$0:
  00000	8b 4d f0	 mov	 ecx, DWORD PTR _this$[ebp]
  00003	83 c1 0c	 add	 ecx, 12			; 0000000cH
  00006	e9 00 00 00 00	 jmp	 ??1ccddaabb@@UAE@XZ	; ccddaabb::~ccddaabb
__ehhandler$??0?$CEncrypt@M@@QAE@XZ:
  0000b	8b 54 24 08	 mov	 edx, DWORD PTR [esp+8]
  0000f	8d 42 0c	 lea	 eax, DWORD PTR [edx+12]
  00012	8b 4a ec	 mov	 ecx, DWORD PTR [edx-20]
  00015	33 c8		 xor	 ecx, eax
  00017	e8 00 00 00 00	 call	 @__security_check_cookie@4
  0001c	b8 00 00 00 00	 mov	 eax, OFFSET __ehfuncinfo$??0?$CEncrypt@M@@QAE@XZ
  00021	e9 00 00 00 00	 jmp	 ___CxxFrameHandler3
text$x	ENDS
??0?$CEncrypt@M@@QAE@XZ ENDP				; CEncrypt<float>::CEncrypt<float>
PUBLIC	??B?$CEncrypt@M@@QAEMXZ				; CEncrypt<float>::operator float
; Function compile flags: /Ogsp
;	COMDAT ??B?$CEncrypt@M@@QAEMXZ
_TEXT	SEGMENT
_value$ = -4						; size = 4
??B?$CEncrypt@M@@QAEMXZ PROC				; CEncrypt<float>::operator float, COMDAT
; _this$ = ecx

; 134  : 	{

  00000	55		 push	 ebp
  00001	8b ec		 mov	 ebp, esp
  00003	51		 push	 ecx

; 135  : 		type value;
; 136  : 		DecryptValueToPool(&value);

  00004	8d 45 fc	 lea	 eax, DWORD PTR _value$[ebp]
  00007	50		 push	 eax
  00008	e8 00 00 00 00	 call	 ?DecryptValueToPool@?$CEncrypt@M@@QAEXPAM@Z ; CEncrypt<float>::DecryptValueToPool

; 137  : 
; 138  : #ifdef _NOTUSE
; 139  : 		Debug();
; 140  : #endif
; 141  : 		return value;

  0000d	d9 45 fc	 fld	 DWORD PTR _value$[ebp]

; 142  : 	}

  00010	c9		 leave
  00011	c3		 ret	 0
??B?$CEncrypt@M@@QAEMXZ ENDP				; CEncrypt<float>::operator float
_TEXT	ENDS
PUBLIC	??B?$CEncrypt@M@@QBEMXZ				; CEncrypt<float>::operator float
; Function compile flags: /Ogsp
;	COMDAT ??B?$CEncrypt@M@@QBEMXZ
_TEXT	SEGMENT
_value$ = -4						; size = 4
??B?$CEncrypt@M@@QBEMXZ PROC				; CEncrypt<float>::operator float, COMDAT
; _this$ = ecx

; 145  : 	{

  00000	55		 push	 ebp
  00001	8b ec		 mov	 ebp, esp
  00003	51		 push	 ecx

; 146  : 		//UJ 130829, const    --start
; 147  : 		type value;
; 148  : 		CEncrypt<type>* pThis = const_cast<CEncrypt<type>*>(this);
; 149  : 		pThis->DecryptValueToPool(&value);

  00004	8d 45 fc	 lea	 eax, DWORD PTR _value$[ebp]
  00007	50		 push	 eax
  00008	e8 00 00 00 00	 call	 ?DecryptValueToPool@?$CEncrypt@M@@QAEXPAM@Z ; CEncrypt<float>::DecryptValueToPool

; 150  : 		//// const DecryptValueToPool     .
; 151  :  		//type value;
; 152  : 		//char szTempMem[MAX_ENCRYPT];
; 153  : 		//m_RC5.DecryptByte( m_MemPool, szTempMem, max(m_ValueSize, DEFAULT_ENCRYPT) );
; 154  : 		//memcpy( &value, szTempMem, m_ValueSize );
; 155  : 		//UJ --end
; 156  : 
; 157  : #ifdef _NOTUSE
; 158  : 		Debug();
; 159  : #endif
; 160  : 		return value;

  0000d	d9 45 fc	 fld	 DWORD PTR _value$[ebp]

; 161  : 	}

  00010	c9		 leave
  00011	c3		 ret	 0
??B?$CEncrypt@M@@QBEMXZ ENDP				; CEncrypt<float>::operator float
_TEXT	ENDS
PUBLIC	??4?$CEncrypt@M@@QAEMM@Z			; CEncrypt<float>::operator=
; Function compile flags: /Ogsp
;	COMDAT ??4?$CEncrypt@M@@QAEMM@Z
_TEXT	SEGMENT
_value$ = 8						; size = 4
_inValue$ = 8						; size = 4
??4?$CEncrypt@M@@QAEMM@Z PROC				; CEncrypt<float>::operator=, COMDAT
; _this$ = ecx

; 1654 : 	{	

  00000	55		 push	 ebp
  00001	8b ec		 mov	 ebp, esp

; 1655 : 		type value = inValue;

  00003	d9 45 08	 fld	 DWORD PTR _inValue$[ebp]

; 1656 : 		EncryptValueToPool((char*)&value);

  00006	8d 45 08	 lea	 eax, DWORD PTR _value$[ebp]
  00009	50		 push	 eax
  0000a	d9 5d 08	 fstp	 DWORD PTR _value$[ebp]
  0000d	e8 00 00 00 00	 call	 ?EncryptValueToPool@?$CEncrypt@M@@AAEXPBD@Z ; CEncrypt<float>::EncryptValueToPool

; 1657 : #ifdef _NOTUSE
; 1658 : 		m_value = inValue;
; 1659 : 		Debug();
; 1660 : #endif
; 1661 : 		return value;

  00012	d9 45 08	 fld	 DWORD PTR _value$[ebp]

; 1662 : 	}

  00015	5d		 pop	 ebp
  00016	c2 04 00	 ret	 4
??4?$CEncrypt@M@@QAEMM@Z ENDP				; CEncrypt<float>::operator=
_TEXT	ENDS
PUBLIC	??O?$CEncrypt@M@@QAE_NABM@Z			; CEncrypt<float>::operator>
; Function compile flags: /Ogsp
;	COMDAT ??O?$CEncrypt@M@@QAE_NABM@Z
_TEXT	SEGMENT
_value$ = -4						; size = 4
_inValue$ = 8						; size = 4
??O?$CEncrypt@M@@QAE_NABM@Z PROC			; CEncrypt<float>::operator>, COMDAT
; _this$ = ecx

; 1811 : 	{

  00000	55		 push	 ebp
  00001	8b ec		 mov	 ebp, esp
  00003	51		 push	 ecx

; 1812 : 		type value;
; 1813 : 		DecryptValueToPool(&value);

  00004	8d 45 fc	 lea	 eax, DWORD PTR _value$[ebp]
  00007	50		 push	 eax
  00008	e8 00 00 00 00	 call	 ?DecryptValueToPool@?$CEncrypt@M@@QAEXPAM@Z ; CEncrypt<float>::DecryptValueToPool

; 1814 : #ifdef _NOTUSE
; 1815 : 		Debug();
; 1816 : #endif
; 1817 : 		return (value > inValue);

  0000d	8b 45 08	 mov	 eax, DWORD PTR _inValue$[ebp]
  00010	f3 0f 10 08	 movss	 xmm1, DWORD PTR [eax]
  00014	f3 0f 10 45 fc	 movss	 xmm0, DWORD PTR _value$[ebp]
  00019	0f 5a c0	 cvtps2pd xmm0, xmm0
  0001c	0f 5a c9	 cvtps2pd xmm1, xmm1
  0001f	33 c0		 xor	 eax, eax
  00021	66 0f 2f c1	 comisd	 xmm0, xmm1
  00025	76 01		 jbe	 SHORT $LN4@operator@2
  00027	40		 inc	 eax
$LN4@operator@2:

; 1818 : 	}		

  00028	c9		 leave
  00029	c2 04 00	 ret	 4
??O?$CEncrypt@M@@QAE_NABM@Z ENDP			; CEncrypt<float>::operator>
_TEXT	ENDS
PUBLIC	??0?$CEncrypt@K@@QAE@XZ				; CEncrypt<unsigned long>::CEncrypt<unsigned long>
;	COMDAT xdata$x
xdata$x	SEGMENT
__unwindtable$??0?$CEncrypt@K@@QAE@XZ DD 0ffffffffH
	DD	FLAT:__unwindfunclet$??0?$CEncrypt@K@@QAE@XZ$0
__ehfuncinfo$??0?$CEncrypt@K@@QAE@XZ DD 019930522H
	DD	01H
	DD	FLAT:__unwindtable$??0?$CEncrypt@K@@QAE@XZ
	DD	2 DUP(00H)
	DD	2 DUP(00H)
	DD	00H
	DD	01H
; Function compile flags: /Ogsp
xdata$x	ENDS
;	COMDAT ??0?$CEncrypt@K@@QAE@XZ
_TEXT	SEGMENT
_this$ = -16						; size = 4
__$EHRec$ = -12						; size = 12
??0?$CEncrypt@K@@QAE@XZ PROC				; CEncrypt<unsigned long>::CEncrypt<unsigned long>, COMDAT
; _this$ = ecx

; 109  : 	CEncrypt()

  00000	6a 04		 push	 4
  00002	b8 00 00 00 00	 mov	 eax, __ehhandler$??0?$CEncrypt@K@@QAE@XZ
  00007	e8 00 00 00 00	 call	 __EH_prolog3
  0000c	8b f1		 mov	 esi, ecx
  0000e	89 75 f0	 mov	 DWORD PTR _this$[ebp], esi
  00011	8d 4e 0c	 lea	 ecx, DWORD PTR [esi+12]
  00014	c7 06 00 00 00
	00		 mov	 DWORD PTR [esi], OFFSET ??_7?$CEncrypt@K@@6B@
  0001a	e8 00 00 00 00	 call	 ??0ccddaabb@@QAE@XZ	; ccddaabb::ccddaabb
  0001f	83 65 fc 00	 and	 DWORD PTR __$EHRec$[ebp+8], 0

; 110  : 	{
; 111  : 		Init();

  00023	8b ce		 mov	 ecx, esi
  00025	e8 00 00 00 00	 call	 ?Init@?$CEncrypt@K@@AAEXXZ ; CEncrypt<unsigned long>::Init

; 112  : 	}

  0002a	8b c6		 mov	 eax, esi
  0002c	e8 00 00 00 00	 call	 __EH_epilog3
  00031	c3		 ret	 0
_TEXT	ENDS
;	COMDAT text$x
text$x	SEGMENT
__unwindfunclet$??0?$CEncrypt@K@@QAE@XZ$0:
  00000	8b 4d f0	 mov	 ecx, DWORD PTR _this$[ebp]
  00003	83 c1 0c	 add	 ecx, 12			; 0000000cH
  00006	e9 00 00 00 00	 jmp	 ??1ccddaabb@@UAE@XZ	; ccddaabb::~ccddaabb
__ehhandler$??0?$CEncrypt@K@@QAE@XZ:
  0000b	8b 54 24 08	 mov	 edx, DWORD PTR [esp+8]
  0000f	8d 42 0c	 lea	 eax, DWORD PTR [edx+12]
  00012	8b 4a ec	 mov	 ecx, DWORD PTR [edx-20]
  00015	33 c8		 xor	 ecx, eax
  00017	e8 00 00 00 00	 call	 @__security_check_cookie@4
  0001c	b8 00 00 00 00	 mov	 eax, OFFSET __ehfuncinfo$??0?$CEncrypt@K@@QAE@XZ
  00021	e9 00 00 00 00	 jmp	 ___CxxFrameHandler3
text$x	ENDS
??0?$CEncrypt@K@@QAE@XZ ENDP				; CEncrypt<unsigned long>::CEncrypt<unsigned long>
PUBLIC	??B?$CEncrypt@K@@QAEKXZ				; CEncrypt<unsigned long>::operator unsigned long
; Function compile flags: /Ogsp
;	COMDAT ??B?$CEncrypt@K@@QAEKXZ
_TEXT	SEGMENT
_value$ = -4						; size = 4
??B?$CEncrypt@K@@QAEKXZ PROC				; CEncrypt<unsigned long>::operator unsigned long, COMDAT
; _this$ = ecx

; 134  : 	{

  00000	55		 push	 ebp
  00001	8b ec		 mov	 ebp, esp
  00003	51		 push	 ecx

; 135  : 		type value;
; 136  : 		DecryptValueToPool(&value);

  00004	8d 45 fc	 lea	 eax, DWORD PTR _value$[ebp]
  00007	50		 push	 eax
  00008	e8 00 00 00 00	 call	 ?DecryptValueToPool@?$CEncrypt@K@@QAEXPAK@Z ; CEncrypt<unsigned long>::DecryptValueToPool

; 137  : 
; 138  : #ifdef _NOTUSE
; 139  : 		Debug();
; 140  : #endif
; 141  : 		return value;

  0000d	8b 45 fc	 mov	 eax, DWORD PTR _value$[ebp]

; 142  : 	}

  00010	c9		 leave
  00011	c3		 ret	 0
??B?$CEncrypt@K@@QAEKXZ ENDP				; CEncrypt<unsigned long>::operator unsigned long
_TEXT	ENDS
PUBLIC	??B?$CEncrypt@K@@QBEKXZ				; CEncrypt<unsigned long>::operator unsigned long
; Function compile flags: /Ogsp
;	COMDAT ??B?$CEncrypt@K@@QBEKXZ
_TEXT	SEGMENT
_value$ = -4						; size = 4
??B?$CEncrypt@K@@QBEKXZ PROC				; CEncrypt<unsigned long>::operator unsigned long, COMDAT
; _this$ = ecx

; 145  : 	{

  00000	55		 push	 ebp
  00001	8b ec		 mov	 ebp, esp
  00003	51		 push	 ecx

; 146  : 		//UJ 130829, const    --start
; 147  : 		type value;
; 148  : 		CEncrypt<type>* pThis = const_cast<CEncrypt<type>*>(this);
; 149  : 		pThis->DecryptValueToPool(&value);

  00004	8d 45 fc	 lea	 eax, DWORD PTR _value$[ebp]
  00007	50		 push	 eax
  00008	e8 00 00 00 00	 call	 ?DecryptValueToPool@?$CEncrypt@K@@QAEXPAK@Z ; CEncrypt<unsigned long>::DecryptValueToPool

; 150  : 		//// const DecryptValueToPool     .
; 151  :  		//type value;
; 152  : 		//char szTempMem[MAX_ENCRYPT];
; 153  : 		//m_RC5.DecryptByte( m_MemPool, szTempMem, max(m_ValueSize, DEFAULT_ENCRYPT) );
; 154  : 		//memcpy( &value, szTempMem, m_ValueSize );
; 155  : 		//UJ --end
; 156  : 
; 157  : #ifdef _NOTUSE
; 158  : 		Debug();
; 159  : #endif
; 160  : 		return value;

  0000d	8b 45 fc	 mov	 eax, DWORD PTR _value$[ebp]

; 161  : 	}

  00010	c9		 leave
  00011	c3		 ret	 0
??B?$CEncrypt@K@@QBEKXZ ENDP				; CEncrypt<unsigned long>::operator unsigned long
_TEXT	ENDS
PUBLIC	??4?$CEncrypt@K@@QAEKK@Z			; CEncrypt<unsigned long>::operator=
; Function compile flags: /Ogsp
;	COMDAT ??4?$CEncrypt@K@@QAEKK@Z
_TEXT	SEGMENT
_value$ = 8						; size = 4
_inValue$ = 8						; size = 4
??4?$CEncrypt@K@@QAEKK@Z PROC				; CEncrypt<unsigned long>::operator=, COMDAT
; _this$ = ecx

; 1262 : 	{

  00000	55		 push	 ebp
  00001	8b ec		 mov	 ebp, esp

; 1263 : 		
; 1264 : 		type value = inValue;

  00003	8b 45 08	 mov	 eax, DWORD PTR _inValue$[ebp]
  00006	89 45 08	 mov	 DWORD PTR _value$[ebp], eax

; 1265 : 		EncryptValueToPool((char*)&value);

  00009	8d 45 08	 lea	 eax, DWORD PTR _value$[ebp]
  0000c	50		 push	 eax
  0000d	e8 00 00 00 00	 call	 ?EncryptValueToPool@?$CEncrypt@K@@AAEXPBD@Z ; CEncrypt<unsigned long>::EncryptValueToPool

; 1266 : #ifdef _NOTUSE
; 1267 : 		m_value = inValue;
; 1268 : 		Debug();
; 1269 : #endif
; 1270 : 		return value;

  00012	8b 45 08	 mov	 eax, DWORD PTR _value$[ebp]

; 1271 : 	}

  00015	5d		 pop	 ebp
  00016	c2 04 00	 ret	 4
??4?$CEncrypt@K@@QAEKK@Z ENDP				; CEncrypt<unsigned long>::operator=
_TEXT	ENDS
PUBLIC	??0?$CEncrypt@_N@@QAE@XZ			; CEncrypt<bool>::CEncrypt<bool>
;	COMDAT xdata$x
xdata$x	SEGMENT
__unwindtable$??0?$CEncrypt@_N@@QAE@XZ DD 0ffffffffH
	DD	FLAT:__unwindfunclet$??0?$CEncrypt@_N@@QAE@XZ$0
__ehfuncinfo$??0?$CEncrypt@_N@@QAE@XZ DD 019930522H
	DD	01H
	DD	FLAT:__unwindtable$??0?$CEncrypt@_N@@QAE@XZ
	DD	2 DUP(00H)
	DD	2 DUP(00H)
	DD	00H
	DD	01H
; Function compile flags: /Ogsp
xdata$x	ENDS
;	COMDAT ??0?$CEncrypt@_N@@QAE@XZ
_TEXT	SEGMENT
_this$ = -16						; size = 4
__$EHRec$ = -12						; size = 12
??0?$CEncrypt@_N@@QAE@XZ PROC				; CEncrypt<bool>::CEncrypt<bool>, COMDAT
; _this$ = ecx

; 109  : 	CEncrypt()

  00000	6a 04		 push	 4
  00002	b8 00 00 00 00	 mov	 eax, __ehhandler$??0?$CEncrypt@_N@@QAE@XZ
  00007	e8 00 00 00 00	 call	 __EH_prolog3
  0000c	8b f1		 mov	 esi, ecx
  0000e	89 75 f0	 mov	 DWORD PTR _this$[ebp], esi
  00011	8d 4e 0c	 lea	 ecx, DWORD PTR [esi+12]
  00014	c7 06 00 00 00
	00		 mov	 DWORD PTR [esi], OFFSET ??_7?$CEncrypt@_N@@6B@
  0001a	e8 00 00 00 00	 call	 ??0ccddaabb@@QAE@XZ	; ccddaabb::ccddaabb
  0001f	83 65 fc 00	 and	 DWORD PTR __$EHRec$[ebp+8], 0

; 110  : 	{
; 111  : 		Init();

  00023	8b ce		 mov	 ecx, esi
  00025	e8 00 00 00 00	 call	 ?Init@?$CEncrypt@_N@@AAEXXZ ; CEncrypt<bool>::Init

; 112  : 	}

  0002a	8b c6		 mov	 eax, esi
  0002c	e8 00 00 00 00	 call	 __EH_epilog3
  00031	c3		 ret	 0
_TEXT	ENDS
;	COMDAT text$x
text$x	SEGMENT
__unwindfunclet$??0?$CEncrypt@_N@@QAE@XZ$0:
  00000	8b 4d f0	 mov	 ecx, DWORD PTR _this$[ebp]
  00003	83 c1 0c	 add	 ecx, 12			; 0000000cH
  00006	e9 00 00 00 00	 jmp	 ??1ccddaabb@@UAE@XZ	; ccddaabb::~ccddaabb
__ehhandler$??0?$CEncrypt@_N@@QAE@XZ:
  0000b	8b 54 24 08	 mov	 edx, DWORD PTR [esp+8]
  0000f	8d 42 0c	 lea	 eax, DWORD PTR [edx+12]
  00012	8b 4a ec	 mov	 ecx, DWORD PTR [edx-20]
  00015	33 c8		 xor	 ecx, eax
  00017	e8 00 00 00 00	 call	 @__security_check_cookie@4
  0001c	b8 00 00 00 00	 mov	 eax, OFFSET __ehfuncinfo$??0?$CEncrypt@_N@@QAE@XZ
  00021	e9 00 00 00 00	 jmp	 ___CxxFrameHandler3
text$x	ENDS
??0?$CEncrypt@_N@@QAE@XZ ENDP				; CEncrypt<bool>::CEncrypt<bool>
PUBLIC	??B?$CEncrypt@_N@@QBE_NXZ			; CEncrypt<bool>::operator bool
; Function compile flags: /Ogsp
;	COMDAT ??B?$CEncrypt@_N@@QBE_NXZ
_TEXT	SEGMENT
_value$ = -1						; size = 1
??B?$CEncrypt@_N@@QBE_NXZ PROC				; CEncrypt<bool>::operator bool, COMDAT
; _this$ = ecx

; 145  : 	{

  00000	55		 push	 ebp
  00001	8b ec		 mov	 ebp, esp
  00003	51		 push	 ecx

; 146  : 		//UJ 130829, const    --start
; 147  : 		type value;
; 148  : 		CEncrypt<type>* pThis = const_cast<CEncrypt<type>*>(this);
; 149  : 		pThis->DecryptValueToPool(&value);

  00004	8d 45 ff	 lea	 eax, DWORD PTR _value$[ebp]
  00007	50		 push	 eax
  00008	e8 00 00 00 00	 call	 ?DecryptValueToPool@?$CEncrypt@_N@@QAEXPA_N@Z ; CEncrypt<bool>::DecryptValueToPool

; 150  : 		//// const DecryptValueToPool     .
; 151  :  		//type value;
; 152  : 		//char szTempMem[MAX_ENCRYPT];
; 153  : 		//m_RC5.DecryptByte( m_MemPool, szTempMem, max(m_ValueSize, DEFAULT_ENCRYPT) );
; 154  : 		//memcpy( &value, szTempMem, m_ValueSize );
; 155  : 		//UJ --end
; 156  : 
; 157  : #ifdef _NOTUSE
; 158  : 		Debug();
; 159  : #endif
; 160  : 		return value;

  0000d	8a 45 ff	 mov	 al, BYTE PTR _value$[ebp]

; 161  : 	}

  00010	c9		 leave
  00011	c3		 ret	 0
??B?$CEncrypt@_N@@QBE_NXZ ENDP				; CEncrypt<bool>::operator bool
_TEXT	ENDS
PUBLIC	??4?$CEncrypt@_N@@QAE_N_N@Z			; CEncrypt<bool>::operator=
; Function compile flags: /Ogsp
;	COMDAT ??4?$CEncrypt@_N@@QAE_N_N@Z
_TEXT	SEGMENT
_inValue$ = 8						; size = 1
_value$ = 11						; size = 1
??4?$CEncrypt@_N@@QAE_N_N@Z PROC			; CEncrypt<bool>::operator=, COMDAT
; _this$ = ecx

; 225  : 	{

  00000	55		 push	 ebp
  00001	8b ec		 mov	 ebp, esp

; 226  : 		type value = inValue;

  00003	8a 45 08	 mov	 al, BYTE PTR _inValue$[ebp]
  00006	88 45 0b	 mov	 BYTE PTR _value$[ebp], al

; 227  : 		EncryptValueToPool((char*)&value);

  00009	8d 45 0b	 lea	 eax, DWORD PTR _value$[ebp]
  0000c	50		 push	 eax
  0000d	e8 00 00 00 00	 call	 ?EncryptValueToPool@?$CEncrypt@_N@@AAEXPBD@Z ; CEncrypt<bool>::EncryptValueToPool

; 228  : #ifdef _NOTUSE
; 229  : 		m_value = inValue;
; 230  : 		Debug();
; 231  : #endif
; 232  : 		return value;

  00012	8a 45 0b	 mov	 al, BYTE PTR _value$[ebp]

; 233  : 	}

  00015	5d		 pop	 ebp
  00016	c2 04 00	 ret	 4
??4?$CEncrypt@_N@@QAE_N_N@Z ENDP			; CEncrypt<bool>::operator=
_TEXT	ENDS
PUBLIC	??B?$CEncrypt@W4TeamType@@@@QBE?AW4TeamType@@XZ	; CEncrypt<enum TeamType>::operator enum TeamType
; Function compile flags: /Ogsp
;	COMDAT ??B?$CEncrypt@W4TeamType@@@@QBE?AW4TeamType@@XZ
_TEXT	SEGMENT
_value$ = -4						; size = 4
??B?$CEncrypt@W4TeamType@@@@QBE?AW4TeamType@@XZ PROC	; CEncrypt<enum TeamType>::operator enum TeamType, COMDAT
; _this$ = ecx

; 145  : 	{

  00000	55		 push	 ebp
  00001	8b ec		 mov	 ebp, esp
  00003	51		 push	 ecx

; 146  : 		//UJ 130829, const    --start
; 147  : 		type value;
; 148  : 		CEncrypt<type>* pThis = const_cast<CEncrypt<type>*>(this);
; 149  : 		pThis->DecryptValueToPool(&value);

  00004	8d 45 fc	 lea	 eax, DWORD PTR _value$[ebp]
  00007	50		 push	 eax
  00008	e8 00 00 00 00	 call	 ?DecryptValueToPool@?$CEncrypt@W4TeamType@@@@QAEXPAW4TeamType@@@Z ; CEncrypt<enum TeamType>::DecryptValueToPool

; 150  : 		//// const DecryptValueToPool     .
; 151  :  		//type value;
; 152  : 		//char szTempMem[MAX_ENCRYPT];
; 153  : 		//m_RC5.DecryptByte( m_MemPool, szTempMem, max(m_ValueSize, DEFAULT_ENCRYPT) );
; 154  : 		//memcpy( &value, szTempMem, m_ValueSize );
; 155  : 		//UJ --end
; 156  : 
; 157  : #ifdef _NOTUSE
; 158  : 		Debug();
; 159  : #endif
; 160  : 		return value;

  0000d	8b 45 fc	 mov	 eax, DWORD PTR _value$[ebp]

; 161  : 	}

  00010	c9		 leave
  00011	c3		 ret	 0
??B?$CEncrypt@W4TeamType@@@@QBE?AW4TeamType@@XZ ENDP	; CEncrypt<enum TeamType>::operator enum TeamType
_TEXT	ENDS
PUBLIC	??0ioObjectChargeShotItem@@QAE@XZ		; ioObjectChargeShotItem::ioObjectChargeShotItem
EXTRN	??0ioObjectItem@@QAE@XZ:PROC			; ioObjectItem::ioObjectItem
;	COMDAT xdata$x
; File c:\program files (x86)\microsoft directx sdk (june 2010)\include\d3dx9math.h
xdata$x	SEGMENT
__ehfuncinfo$??0ioObjectChargeShotItem@@QAE@XZ DD 019930522H
	DD	019H
	DD	FLAT:__unwindtable$??0ioObjectChargeShotItem@@QAE@XZ
	DD	2 DUP(00H)
	DD	2 DUP(00H)
	DD	00H
	DD	01H
__unwindtable$??0ioObjectChargeShotItem@@QAE@XZ DD 0ffffffffH
	DD	FLAT:__unwindfunclet$??0ioObjectChargeShotItem@@QAE@XZ$0
	DD	00H
	DD	FLAT:__unwindfunclet$??0ioObjectChargeShotItem@@QAE@XZ$1
	DD	01H
	DD	FLAT:__unwindfunclet$??0ioObjectChargeShotItem@@QAE@XZ$2
	DD	02H
	DD	FLAT:__unwindfunclet$??0ioObjectChargeShotItem@@QAE@XZ$3
	DD	03H
	DD	FLAT:__unwindfunclet$??0ioObjectChargeShotItem@@QAE@XZ$4
	DD	04H
	DD	FLAT:__unwindfunclet$??0ioObjectChargeShotItem@@QAE@XZ$5
	DD	05H
	DD	FLAT:__unwindfunclet$??0ioObjectChargeShotItem@@QAE@XZ$6
	DD	06H
	DD	FLAT:__unwindfunclet$??0ioObjectChargeShotItem@@QAE@XZ$7
	DD	07H
	DD	FLAT:__unwindfunclet$??0ioObjectChargeShotItem@@QAE@XZ$8
	DD	08H
	DD	FLAT:__unwindfunclet$??0ioObjectChargeShotItem@@QAE@XZ$9
	DD	09H
	DD	FLAT:__unwindfunclet$??0ioObjectChargeShotItem@@QAE@XZ$10
	DD	0aH
	DD	FLAT:__unwindfunclet$??0ioObjectChargeShotItem@@QAE@XZ$11
	DD	0bH
	DD	FLAT:__unwindfunclet$??0ioObjectChargeShotItem@@QAE@XZ$12
	DD	0cH
	DD	FLAT:__unwindfunclet$??0ioObjectChargeShotItem@@QAE@XZ$13
	DD	0dH
	DD	FLAT:__unwindfunclet$??0ioObjectChargeShotItem@@QAE@XZ$14
	DD	0eH
	DD	FLAT:__unwindfunclet$??0ioObjectChargeShotItem@@QAE@XZ$15
	DD	0fH
	DD	FLAT:__unwindfunclet$??0ioObjectChargeShotItem@@QAE@XZ$16
	DD	010H
	DD	FLAT:__unwindfunclet$??0ioObjectChargeShotItem@@QAE@XZ$17
	DD	011H
	DD	FLAT:__unwindfunclet$??0ioObjectChargeShotItem@@QAE@XZ$18
	DD	012H
	DD	FLAT:__unwindfunclet$??0ioObjectChargeShotItem@@QAE@XZ$19
	DD	013H
	DD	FLAT:__unwindfunclet$??0ioObjectChargeShotItem@@QAE@XZ$20
	DD	014H
	DD	FLAT:__unwindfunclet$??0ioObjectChargeShotItem@@QAE@XZ$21
	DD	015H
	DD	FLAT:__unwindfunclet$??0ioObjectChargeShotItem@@QAE@XZ$22
	DD	016H
	DD	FLAT:__unwindfunclet$??0ioObjectChargeShotItem@@QAE@XZ$23
	DD	017H
	DD	FLAT:__unwindfunclet$??0ioObjectChargeShotItem@@QAE@XZ$24
; Function compile flags: /Ogsp
; File d:\lost saga for developer\youtube\tutorial\source\src\lsclient\ioobjectchargeshotitem.cpp
xdata$x	ENDS
;	COMDAT ??0ioObjectChargeShotItem@@QAE@XZ
_TEXT	SEGMENT
_this$ = -16						; size = 4
__$EHRec$ = -12						; size = 12
??0ioObjectChargeShotItem@@QAE@XZ PROC			; ioObjectChargeShotItem::ioObjectChargeShotItem, COMDAT
; _this$ = ecx

; 14   : {

  00000	6a 04		 push	 4
  00002	b8 00 00 00 00	 mov	 eax, __ehhandler$??0ioObjectChargeShotItem@@QAE@XZ
  00007	e8 00 00 00 00	 call	 __EH_prolog3
  0000c	8b d9		 mov	 ebx, ecx
  0000e	89 5d f0	 mov	 DWORD PTR _this$[ebp], ebx
  00011	e8 00 00 00 00	 call	 ??0ioObjectItem@@QAE@XZ	; ioObjectItem::ioObjectItem
  00016	33 ff		 xor	 edi, edi
  00018	8d 8b 38 1b 00
	00		 lea	 ecx, DWORD PTR [ebx+6968]
  0001e	89 7d fc	 mov	 DWORD PTR __$EHRec$[ebp+8], edi
  00021	c7 03 00 00 00
	00		 mov	 DWORD PTR [ebx], OFFSET ??_7ioObjectChargeShotItem@@6B@
  00027	e8 00 00 00 00	 call	 ??0?$CEncrypt@_N@@QAE@XZ ; CEncrypt<bool>::CEncrypt<bool>
  0002c	8b 35 00 00 00
	00		 mov	 esi, DWORD PTR __imp_??0ioHashString@@QAE@XZ
  00032	8d 8b 68 1b 00
	00		 lea	 ecx, DWORD PTR [ebx+7016]
  00038	c6 45 fc 01	 mov	 BYTE PTR __$EHRec$[ebp+8], 1
  0003c	ff d6		 call	 esi
  0003e	8d 8b 78 1b 00
	00		 lea	 ecx, DWORD PTR [ebx+7032]
  00044	c6 45 fc 02	 mov	 BYTE PTR __$EHRec$[ebp+8], 2
  00048	e8 00 00 00 00	 call	 ??0?$CEncrypt@M@@QAE@XZ	; CEncrypt<float>::CEncrypt<float>
  0004d	8d 8b a8 1b 00
	00		 lea	 ecx, DWORD PTR [ebx+7080]
  00053	c6 45 fc 03	 mov	 BYTE PTR __$EHRec$[ebp+8], 3
  00057	ff d6		 call	 esi
  00059	8d 8b b8 1b 00
	00		 lea	 ecx, DWORD PTR [ebx+7096]
  0005f	c6 45 fc 04	 mov	 BYTE PTR __$EHRec$[ebp+8], 4
  00063	e8 00 00 00 00	 call	 ??0?$CEncrypt@M@@QAE@XZ	; CEncrypt<float>::CEncrypt<float>
  00068	8d 8b e8 1b 00
	00		 lea	 ecx, DWORD PTR [ebx+7144]
  0006e	c6 45 fc 05	 mov	 BYTE PTR __$EHRec$[ebp+8], 5
  00072	ff d6		 call	 esi
  00074	8d 8b f8 1b 00
	00		 lea	 ecx, DWORD PTR [ebx+7160]
  0007a	c6 45 fc 06	 mov	 BYTE PTR __$EHRec$[ebp+8], 6
  0007e	e8 00 00 00 00	 call	 ??0?$CEncrypt@M@@QAE@XZ	; CEncrypt<float>::CEncrypt<float>
  00083	8d 8b 28 1c 00
	00		 lea	 ecx, DWORD PTR [ebx+7208]
  00089	c6 45 fc 07	 mov	 BYTE PTR __$EHRec$[ebp+8], 7
  0008d	e8 00 00 00 00	 call	 ??0?$CEncrypt@K@@QAE@XZ	; CEncrypt<unsigned long>::CEncrypt<unsigned long>
  00092	8d 8b 58 1c 00
	00		 lea	 ecx, DWORD PTR [ebx+7256]
  00098	c6 45 fc 08	 mov	 BYTE PTR __$EHRec$[ebp+8], 8
  0009c	e8 00 00 00 00	 call	 ??0?$CEncrypt@K@@QAE@XZ	; CEncrypt<unsigned long>::CEncrypt<unsigned long>
  000a1	8d 8b 88 1c 00
	00		 lea	 ecx, DWORD PTR [ebx+7304]
  000a7	c6 45 fc 09	 mov	 BYTE PTR __$EHRec$[ebp+8], 9
  000ab	e8 00 00 00 00	 call	 ??0WeaponInfo@@QAE@XZ	; WeaponInfo::WeaponInfo
  000b0	8d 8b c0 1c 00
	00		 lea	 ecx, DWORD PTR [ebx+7360]
  000b6	c6 45 fc 0a	 mov	 BYTE PTR __$EHRec$[ebp+8], 10 ; 0000000aH
  000ba	ff d6		 call	 esi
  000bc	8d 8b d0 1c 00
	00		 lea	 ecx, DWORD PTR [ebx+7376]
  000c2	c6 45 fc 0b	 mov	 BYTE PTR __$EHRec$[ebp+8], 11 ; 0000000bH
  000c6	ff d6		 call	 esi
  000c8	8d 8b e4 1c 00
	00		 lea	 ecx, DWORD PTR [ebx+7396]
  000ce	c6 45 fc 0c	 mov	 BYTE PTR __$EHRec$[ebp+8], 12 ; 0000000cH
  000d2	e8 00 00 00 00	 call	 ??0?$CEncrypt@M@@QAE@XZ	; CEncrypt<float>::CEncrypt<float>
  000d7	8d 8b 14 1d 00
	00		 lea	 ecx, DWORD PTR [ebx+7444]
  000dd	c6 45 fc 0d	 mov	 BYTE PTR __$EHRec$[ebp+8], 13 ; 0000000dH
  000e1	e8 00 00 00 00	 call	 ??0?$CEncrypt@M@@QAE@XZ	; CEncrypt<float>::CEncrypt<float>
  000e6	8d 8b 44 1d 00
	00		 lea	 ecx, DWORD PTR [ebx+7492]
  000ec	c6 45 fc 0e	 mov	 BYTE PTR __$EHRec$[ebp+8], 14 ; 0000000eH
  000f0	e8 00 00 00 00	 call	 ??0?$CEncrypt@M@@QAE@XZ	; CEncrypt<float>::CEncrypt<float>
  000f5	8d 8b 74 1d 00
	00		 lea	 ecx, DWORD PTR [ebx+7540]
  000fb	c6 45 fc 0f	 mov	 BYTE PTR __$EHRec$[ebp+8], 15 ; 0000000fH
  000ff	e8 00 00 00 00	 call	 ??0?$CEncrypt@M@@QAE@XZ	; CEncrypt<float>::CEncrypt<float>
  00104	8d 8b b4 1d 00
	00		 lea	 ecx, DWORD PTR [ebx+7604]
  0010a	c6 45 fc 10	 mov	 BYTE PTR __$EHRec$[ebp+8], 16 ; 00000010H
  0010e	e8 00 00 00 00	 call	 ??0?$CEncrypt@M@@QAE@XZ	; CEncrypt<float>::CEncrypt<float>
  00113	8d 8b e4 1d 00
	00		 lea	 ecx, DWORD PTR [ebx+7652]
  00119	c6 45 fc 11	 mov	 BYTE PTR __$EHRec$[ebp+8], 17 ; 00000011H
  0011d	e8 00 00 00 00	 call	 ??0?$CEncrypt@M@@QAE@XZ	; CEncrypt<float>::CEncrypt<float>
  00122	8d 8b 14 1e 00
	00		 lea	 ecx, DWORD PTR [ebx+7700]
  00128	c6 45 fc 12	 mov	 BYTE PTR __$EHRec$[ebp+8], 18 ; 00000012H
  0012c	e8 00 00 00 00	 call	 ??0?$CEncrypt@M@@QAE@XZ	; CEncrypt<float>::CEncrypt<float>
  00131	8d 8b 44 1e 00
	00		 lea	 ecx, DWORD PTR [ebx+7748]
  00137	c6 45 fc 13	 mov	 BYTE PTR __$EHRec$[ebp+8], 19 ; 00000013H
  0013b	e8 00 00 00 00	 call	 ??0?$CEncrypt@M@@QAE@XZ	; CEncrypt<float>::CEncrypt<float>
  00140	8d 8b 74 1e 00
	00		 lea	 ecx, DWORD PTR [ebx+7796]
  00146	c6 45 fc 14	 mov	 BYTE PTR __$EHRec$[ebp+8], 20 ; 00000014H
  0014a	e8 00 00 00 00	 call	 ??0?$CEncrypt@M@@QAE@XZ	; CEncrypt<float>::CEncrypt<float>
  0014f	8d 8b a4 1e 00
	00		 lea	 ecx, DWORD PTR [ebx+7844]
  00155	c6 45 fc 15	 mov	 BYTE PTR __$EHRec$[ebp+8], 21 ; 00000015H
  00159	e8 00 00 00 00	 call	 ??0?$CEncrypt@M@@QAE@XZ	; CEncrypt<float>::CEncrypt<float>
  0015e	8d 8b d4 1e 00
	00		 lea	 ecx, DWORD PTR [ebx+7892]
  00164	c6 45 fc 16	 mov	 BYTE PTR __$EHRec$[ebp+8], 22 ; 00000016H
  00168	e8 00 00 00 00	 call	 ??0?$CEncrypt@M@@QAE@XZ	; CEncrypt<float>::CEncrypt<float>
  0016d	8d 8b 18 1f 00
	00		 lea	 ecx, DWORD PTR [ebx+7960]
  00173	c6 45 fc 17	 mov	 BYTE PTR __$EHRec$[ebp+8], 23 ; 00000017H
  00177	e8 00 00 00 00	 call	 ??0?$CEncrypt@K@@QAE@XZ	; CEncrypt<unsigned long>::CEncrypt<unsigned long>
  0017c	8d 8b 50 1f 00
	00		 lea	 ecx, DWORD PTR [ebx+8016]
  00182	c6 45 fc 18	 mov	 BYTE PTR __$EHRec$[ebp+8], 24 ; 00000018H
  00186	e8 00 00 00 00	 call	 ??0?$CEncrypt@K@@QAE@XZ	; CEncrypt<unsigned long>::CEncrypt<unsigned long>

; 15   : 	m_AttackState = AS_NONE;
; 16   : 
; 17   : 	m_bEnableDefenseState = false;
; 18   : 	m_bEnableAttackState = false;
; 19   : 	m_bEnableJumpState = false;
; 20   : 
; 21   : 	m_iCurAirJump = 0;
; 22   : 	m_fAirJumpPowerRate = 0.0f;
; 23   : 
; 24   : 	m_dwMotionEndTime = 0;
; 25   : 	m_dwWeaponFireCheckTime = 0;
; 26   : 	m_dwAttackStartTime = 0;
; 27   : 
; 28   : 	m_dwMarkEffectID = -1;

  0018b	83 8b e0 1c 00
	00 ff		 or	 DWORD PTR [ebx+7392], -1
  00192	0f 57 c0	 xorps	 xmm0, xmm0
  00195	89 bb 34 1b 00
	00		 mov	 DWORD PTR [ebx+6964], edi
  0019b	66 89 bb 00 0f
	00 00		 mov	 WORD PTR [ebx+3840], di
  001a2	89 bb 58 0f 00
	00		 mov	 DWORD PTR [ebx+3928], edi
  001a8	89 bb bc 1c 00
	00		 mov	 DWORD PTR [ebx+7356], edi
  001ae	89 bb b0 1c 00
	00		 mov	 DWORD PTR [ebx+7344], edi
  001b4	89 bb b8 1c 00
	00		 mov	 DWORD PTR [ebx+7352], edi
  001ba	c6 83 02 0f 00
	00 00		 mov	 BYTE PTR [ebx+3842], 0
  001c1	f3 0f 11 83 48
	0f 00 00	 movss	 DWORD PTR [ebx+3912], xmm0

; 29   : 	m_vMarkPosition = ioMath::VEC3_ZERO;

  001c9	8b 35 00 00 00
	00		 mov	 esi, DWORD PTR __imp_?VEC3_ZERO@ioMath@@2UD3DXVECTOR3@@A
  001cf	8d bb a8 1d 00
	00		 lea	 edi, DWORD PTR [ebx+7592]
  001d5	a5		 movsd
  001d6	a5		 movsd
  001d7	a5		 movsd

; 30   : 	m_fMarkCurRange = 0.0f;
; 31   : 
; 32   : 	m_bTargetRot = false;
; 33   : 	m_bLeftRot = false;
; 34   : 	m_CurDirKey = ioUserKeyInput::DKI_NONE;

  001d8	83 a3 4c 1f 00
	00 00		 and	 DWORD PTR [ebx+8012], 0
  001df	f3 0f 11 83 a4
	1d 00 00	 movss	 DWORD PTR [ebx+7588], xmm0
  001e7	66 c7 83 48 1f
	00 00 00 00	 mov	 WORD PTR [ebx+8008], 0

; 35   : }

  001f0	8b c3		 mov	 eax, ebx
  001f2	e8 00 00 00 00	 call	 __EH_epilog3
  001f7	c3		 ret	 0
_TEXT	ENDS
;	COMDAT text$x
text$x	SEGMENT
__unwindfunclet$??0ioObjectChargeShotItem@@QAE@XZ$0:
  00000	8b 4d f0	 mov	 ecx, DWORD PTR _this$[ebp]
  00003	e9 00 00 00 00	 jmp	 ??1ioObjectItem@@UAE@XZ	; ioObjectItem::~ioObjectItem
__unwindfunclet$??0ioObjectChargeShotItem@@QAE@XZ$1:
  00008	8b 4d f0	 mov	 ecx, DWORD PTR _this$[ebp]
  0000b	81 c1 38 1b 00
	00		 add	 ecx, 6968		; 00001b38H
  00011	e9 00 00 00 00	 jmp	 ??1?$CEncrypt@_N@@UAE@XZ ; CEncrypt<bool>::~CEncrypt<bool>
__unwindfunclet$??0ioObjectChargeShotItem@@QAE@XZ$2:
  00016	8b 4d f0	 mov	 ecx, DWORD PTR _this$[ebp]
  00019	81 c1 68 1b 00
	00		 add	 ecx, 7016		; 00001b68H
  0001f	ff 25 00 00 00
	00		 jmp	 DWORD PTR __imp_??1ioHashString@@QAE@XZ
__unwindfunclet$??0ioObjectChargeShotItem@@QAE@XZ$3:
  00025	8b 4d f0	 mov	 ecx, DWORD PTR _this$[ebp]
  00028	81 c1 78 1b 00
	00		 add	 ecx, 7032		; 00001b78H
  0002e	e9 00 00 00 00	 jmp	 ??1?$CEncrypt@M@@UAE@XZ	; CEncrypt<float>::~CEncrypt<float>
__unwindfunclet$??0ioObjectChargeShotItem@@QAE@XZ$4:
  00033	8b 4d f0	 mov	 ecx, DWORD PTR _this$[ebp]
  00036	81 c1 a8 1b 00
	00		 add	 ecx, 7080		; 00001ba8H
  0003c	ff 25 00 00 00
	00		 jmp	 DWORD PTR __imp_??1ioHashString@@QAE@XZ
__unwindfunclet$??0ioObjectChargeShotItem@@QAE@XZ$5:
  00042	8b 4d f0	 mov	 ecx, DWORD PTR _this$[ebp]
  00045	81 c1 b8 1b 00
	00		 add	 ecx, 7096		; 00001bb8H
  0004b	e9 00 00 00 00	 jmp	 ??1?$CEncrypt@M@@UAE@XZ	; CEncrypt<float>::~CEncrypt<float>
__unwindfunclet$??0ioObjectChargeShotItem@@QAE@XZ$6:
  00050	8b 4d f0	 mov	 ecx, DWORD PTR _this$[ebp]
  00053	81 c1 e8 1b 00
	00		 add	 ecx, 7144		; 00001be8H
  00059	ff 25 00 00 00
	00		 jmp	 DWORD PTR __imp_??1ioHashString@@QAE@XZ
__unwindfunclet$??0ioObjectChargeShotItem@@QAE@XZ$7:
  0005f	8b 4d f0	 mov	 ecx, DWORD PTR _this$[ebp]
  00062	81 c1 f8 1b 00
	00		 add	 ecx, 7160		; 00001bf8H
  00068	e9 00 00 00 00	 jmp	 ??1?$CEncrypt@M@@UAE@XZ	; CEncrypt<float>::~CEncrypt<float>
__unwindfunclet$??0ioObjectChargeShotItem@@QAE@XZ$8:
  0006d	8b 4d f0	 mov	 ecx, DWORD PTR _this$[ebp]
  00070	81 c1 28 1c 00
	00		 add	 ecx, 7208		; 00001c28H
  00076	e9 00 00 00 00	 jmp	 ??1?$CEncrypt@K@@UAE@XZ	; CEncrypt<unsigned long>::~CEncrypt<unsigned long>
__unwindfunclet$??0ioObjectChargeShotItem@@QAE@XZ$9:
  0007b	8b 4d f0	 mov	 ecx, DWORD PTR _this$[ebp]
  0007e	81 c1 58 1c 00
	00		 add	 ecx, 7256		; 00001c58H
  00084	e9 00 00 00 00	 jmp	 ??1?$CEncrypt@K@@UAE@XZ	; CEncrypt<unsigned long>::~CEncrypt<unsigned long>
__unwindfunclet$??0ioObjectChargeShotItem@@QAE@XZ$10:
  00089	8b 4d f0	 mov	 ecx, DWORD PTR _this$[ebp]
  0008c	81 c1 88 1c 00
	00		 add	 ecx, 7304		; 00001c88H
  00092	e9 00 00 00 00	 jmp	 ??1WeaponInfo@@QAE@XZ
__unwindfunclet$??0ioObjectChargeShotItem@@QAE@XZ$11:
  00097	8b 4d f0	 mov	 ecx, DWORD PTR _this$[ebp]
  0009a	81 c1 c0 1c 00
	00		 add	 ecx, 7360		; 00001cc0H
  000a0	ff 25 00 00 00
	00		 jmp	 DWORD PTR __imp_??1ioHashString@@QAE@XZ
__unwindfunclet$??0ioObjectChargeShotItem@@QAE@XZ$12:
  000a6	8b 4d f0	 mov	 ecx, DWORD PTR _this$[ebp]
  000a9	81 c1 d0 1c 00
	00		 add	 ecx, 7376		; 00001cd0H
  000af	ff 25 00 00 00
	00		 jmp	 DWORD PTR __imp_??1ioHashString@@QAE@XZ
__unwindfunclet$??0ioObjectChargeShotItem@@QAE@XZ$13:
  000b5	8b 4d f0	 mov	 ecx, DWORD PTR _this$[ebp]
  000b8	81 c1 e4 1c 00
	00		 add	 ecx, 7396		; 00001ce4H
  000be	e9 00 00 00 00	 jmp	 ??1?$CEncrypt@M@@UAE@XZ	; CEncrypt<float>::~CEncrypt<float>
__unwindfunclet$??0ioObjectChargeShotItem@@QAE@XZ$14:
  000c3	8b 4d f0	 mov	 ecx, DWORD PTR _this$[ebp]
  000c6	81 c1 14 1d 00
	00		 add	 ecx, 7444		; 00001d14H
  000cc	e9 00 00 00 00	 jmp	 ??1?$CEncrypt@M@@UAE@XZ	; CEncrypt<float>::~CEncrypt<float>
__unwindfunclet$??0ioObjectChargeShotItem@@QAE@XZ$15:
  000d1	8b 4d f0	 mov	 ecx, DWORD PTR _this$[ebp]
  000d4	81 c1 44 1d 00
	00		 add	 ecx, 7492		; 00001d44H
  000da	e9 00 00 00 00	 jmp	 ??1?$CEncrypt@M@@UAE@XZ	; CEncrypt<float>::~CEncrypt<float>
__unwindfunclet$??0ioObjectChargeShotItem@@QAE@XZ$16:
  000df	8b 4d f0	 mov	 ecx, DWORD PTR _this$[ebp]
  000e2	81 c1 74 1d 00
	00		 add	 ecx, 7540		; 00001d74H
  000e8	e9 00 00 00 00	 jmp	 ??1?$CEncrypt@M@@UAE@XZ	; CEncrypt<float>::~CEncrypt<float>
__unwindfunclet$??0ioObjectChargeShotItem@@QAE@XZ$17:
  000ed	8b 4d f0	 mov	 ecx, DWORD PTR _this$[ebp]
  000f0	81 c1 b4 1d 00
	00		 add	 ecx, 7604		; 00001db4H
  000f6	e9 00 00 00 00	 jmp	 ??1?$CEncrypt@M@@UAE@XZ	; CEncrypt<float>::~CEncrypt<float>
__unwindfunclet$??0ioObjectChargeShotItem@@QAE@XZ$18:
  000fb	8b 4d f0	 mov	 ecx, DWORD PTR _this$[ebp]
  000fe	81 c1 e4 1d 00
	00		 add	 ecx, 7652		; 00001de4H
  00104	e9 00 00 00 00	 jmp	 ??1?$CEncrypt@M@@UAE@XZ	; CEncrypt<float>::~CEncrypt<float>
__unwindfunclet$??0ioObjectChargeShotItem@@QAE@XZ$19:
  00109	8b 4d f0	 mov	 ecx, DWORD PTR _this$[ebp]
  0010c	81 c1 14 1e 00
	00		 add	 ecx, 7700		; 00001e14H
  00112	e9 00 00 00 00	 jmp	 ??1?$CEncrypt@M@@UAE@XZ	; CEncrypt<float>::~CEncrypt<float>
__unwindfunclet$??0ioObjectChargeShotItem@@QAE@XZ$20:
  00117	8b 4d f0	 mov	 ecx, DWORD PTR _this$[ebp]
  0011a	81 c1 44 1e 00
	00		 add	 ecx, 7748		; 00001e44H
  00120	e9 00 00 00 00	 jmp	 ??1?$CEncrypt@M@@UAE@XZ	; CEncrypt<float>::~CEncrypt<float>
__unwindfunclet$??0ioObjectChargeShotItem@@QAE@XZ$21:
  00125	8b 4d f0	 mov	 ecx, DWORD PTR _this$[ebp]
  00128	81 c1 74 1e 00
	00		 add	 ecx, 7796		; 00001e74H
  0012e	e9 00 00 00 00	 jmp	 ??1?$CEncrypt@M@@UAE@XZ	; CEncrypt<float>::~CEncrypt<float>
__unwindfunclet$??0ioObjectChargeShotItem@@QAE@XZ$22:
  00133	8b 4d f0	 mov	 ecx, DWORD PTR _this$[ebp]
  00136	81 c1 a4 1e 00
	00		 add	 ecx, 7844		; 00001ea4H
  0013c	e9 00 00 00 00	 jmp	 ??1?$CEncrypt@M@@UAE@XZ	; CEncrypt<float>::~CEncrypt<float>
__unwindfunclet$??0ioObjectChargeShotItem@@QAE@XZ$23:
  00141	8b 4d f0	 mov	 ecx, DWORD PTR _this$[ebp]
  00144	81 c1 d4 1e 00
	00		 add	 ecx, 7892		; 00001ed4H
  0014a	e9 00 00 00 00	 jmp	 ??1?$CEncrypt@M@@UAE@XZ	; CEncrypt<float>::~CEncrypt<float>
__unwindfunclet$??0ioObjectChargeShotItem@@QAE@XZ$24:
  0014f	8b 4d f0	 mov	 ecx, DWORD PTR _this$[ebp]
  00152	81 c1 18 1f 00
	00		 add	 ecx, 7960		; 00001f18H
  00158	e9 00 00 00 00	 jmp	 ??1?$CEncrypt@K@@UAE@XZ	; CEncrypt<unsigned long>::~CEncrypt<unsigned long>
__ehhandler$??0ioObjectChargeShotItem@@QAE@XZ:
  0015d	8b 54 24 08	 mov	 edx, DWORD PTR [esp+8]
  00161	8d 42 0c	 lea	 eax, DWORD PTR [edx+12]
  00164	8b 4a ec	 mov	 ecx, DWORD PTR [edx-20]
  00167	33 c8		 xor	 ecx, eax
  00169	e8 00 00 00 00	 call	 @__security_check_cookie@4
  0016e	b8 00 00 00 00	 mov	 eax, OFFSET __ehfuncinfo$??0ioObjectChargeShotItem@@QAE@XZ
  00173	e9 00 00 00 00	 jmp	 ___CxxFrameHandler3
text$x	ENDS
??0ioObjectChargeShotItem@@QAE@XZ ENDP			; ioObjectChargeShotItem::ioObjectChargeShotItem
; Function compile flags: /Ogsp
;	COMDAT ??_GioObjectChargeShotItem@@UAEPAXI@Z
_TEXT	SEGMENT
___flags$ = 8						; size = 4
??_GioObjectChargeShotItem@@UAEPAXI@Z PROC		; ioObjectChargeShotItem::`scalar deleting destructor', COMDAT
; _this$ = ecx
  00000	55		 push	 ebp
  00001	8b ec		 mov	 ebp, esp
  00003	56		 push	 esi
  00004	8b f1		 mov	 esi, ecx
  00006	e8 00 00 00 00	 call	 ??1ioObjectChargeShotItem@@UAE@XZ ; ioObjectChargeShotItem::~ioObjectChargeShotItem
  0000b	f6 45 08 01	 test	 BYTE PTR ___flags$[ebp], 1
  0000f	74 07		 je	 SHORT $LN1@scalar@4
  00011	56		 push	 esi
  00012	e8 00 00 00 00	 call	 ??3@YAXPAX@Z		; operator delete
  00017	59		 pop	 ecx
$LN1@scalar@4:
  00018	8b c6		 mov	 eax, esi
  0001a	5e		 pop	 esi
  0001b	5d		 pop	 ebp
  0001c	c2 04 00	 ret	 4
??_GioObjectChargeShotItem@@UAEPAXI@Z ENDP		; ioObjectChargeShotItem::`scalar deleting destructor'
_TEXT	ENDS
PUBLIC	__real@41f00000
PUBLIC	??_C@_00CNPNBAHC@?$AA@				; `string'
PUBLIC	__$ArrayPad$
EXTRN	__imp_??4ioHashString@@QAEAAV0@PBD@Z:PROC
EXTRN	?LoadProperty@ioObjectItem@@UAEXAAVioINILoader@@@Z:PROC ; ioObjectItem::LoadProperty
EXTRN	__ftol2_sse:PROC
EXTRN	_memset:PROC
;	COMDAT __real@41f00000
; File d:\lost saga for developer\youtube\tutorial\source\src\lsclient\stringprotect.h
CONST	SEGMENT
__real@41f00000 DD 041f00000r			; 30
CONST	ENDS
;	COMDAT ??_C@_00CNPNBAHC@?$AA@
CONST	SEGMENT
??_C@_00CNPNBAHC@?$AA@ DB 00H				; `string'
; Function compile flags: /Ogsp
; File d:\lost saga for developer\youtube\tutorial\source\src\lsclient\ioobjectchargeshotitem.cpp
CONST	ENDS
;	COMDAT ?LoadProperty@ioObjectChargeShotItem@@UAEXAAVioINILoader@@@Z
_TEXT	SEGMENT
_value$616130 = -1024					; size = 4
_value$616769 = -1020					; size = 4
_value$616388 = -1016					; size = 4
_value$617426 = -1012					; size = 4
_value$616899 = -1008					; size = 4
_value$617159 = -1004					; size = 4
_value$615871 = -1000					; size = 4
_value$617029 = -996					; size = 4
_value$617292 = -992					; size = 4
tv27132 = -988						; size = 4
tv27118 = -988						; size = 4
tv27104 = -988						; size = 4
tv27025 = -988						; size = 4
tv27015 = -988						; size = 4
tv26979 = -988						; size = 4
_i$618298 = -988					; size = 4
_i$616376 = -988					; size = 4
_i$616029 = -988					; size = 4
_value$615612 = -981					; size = 1
_szBuf$ = -980						; size = 260
__k$617444 = -720					; size = 25
__k$617957 = -688					; size = 30
__k$618118 = -652					; size = 21
__k$616147 = -624					; size = 21
__k$617707 = -596					; size = 24
__k$617582 = -568					; size = 24
__k$618698 = -540					; size = 23
__k$618448 = -512					; size = 23
__k$617832 = -484					; size = 23
__k$618836 = -456					; size = 22
__k$615512 = -428					; size = 22
__k$617216 = -400					; size = 17
__k$618586 = -376					; size = 17
__k$615901 = -352					; size = 17
__k$616276 = -328					; size = 20
__k$618198 = -304					; size = 20
__k$618323 = -280					; size = 19
__k$615642 = -256					; size = 19
__k$616799 = -232					; size = 19
__k$616669 = -208					; size = 18
__k$616544 = -184					; size = 18
__k$615771 = -160					; size = 18
__k$617314 = -136					; size = 18
__k$619073 = -112					; size = 13
__k$618961 = -92					; size = 13
__k$616040 = -72					; size = 16
__k$616406 = -52					; size = 12
__k$617059 = -36					; size = 11
__k$616929 = -20					; size = 11
__$ArrayPad$ = -4					; size = 4
_rkLoader$ = 8						; size = 4
?LoadProperty@ioObjectChargeShotItem@@UAEXAAVioINILoader@@@Z PROC ; ioObjectChargeShotItem::LoadProperty, COMDAT
; _this$ = ecx

; 88   : {

  00000	55		 push	 ebp
  00001	8b ec		 mov	 ebp, esp
  00003	81 ec 00 04 00
	00		 sub	 esp, 1024		; 00000400H
  00009	a1 00 00 00 00	 mov	 eax, DWORD PTR ___security_cookie
  0000e	33 c5		 xor	 eax, ebp
  00010	89 45 fc	 mov	 DWORD PTR __$ArrayPad$[ebp], eax
  00013	53		 push	 ebx
  00014	56		 push	 esi
  00015	57		 push	 edi
  00016	8b 7d 08	 mov	 edi, DWORD PTR _rkLoader$[ebp]

; 89   : 	ioObjectItem::LoadProperty( rkLoader );

  00019	57		 push	 edi
  0001a	8b f1		 mov	 esi, ecx
  0001c	e8 00 00 00 00	 call	 ?LoadProperty@ioObjectItem@@UAEXAAVioINILoader@@@Z ; ioObjectItem::LoadProperty

; 90   : 
; 91   : 	char szBuf[MAX_PATH] = "";

  00021	33 db		 xor	 ebx, ebx
  00023	68 03 01 00 00	 push	 259			; 00000103H
  00028	8d 85 2d fc ff
	ff		 lea	 eax, DWORD PTR _szBuf$[ebp+1]
  0002e	53		 push	 ebx
  0002f	50		 push	 eax
  00030	88 9d 2c fc ff
	ff		 mov	 BYTE PTR _szBuf$[ebp], bl
  00036	e8 00 00 00 00	 call	 _memset
  0003b	83 c4 0c	 add	 esp, 12			; 0000000cH

; 92   : 
; 93   : 	m_bEnableObjectDefense = rkLoader.LoadBool_e( "enable_object_defense", false );

  0003e	6a 05		 push	 5
  00040	c7 85 54 fe ff
	ff 88 82 8a 88	 mov	 DWORD PTR __k$615512[ebp], -2004188536 ; 888a8288H
  0004a	c7 85 58 fe ff
	ff 81 89 b4 85	 mov	 DWORD PTR __k$615512[ebp+4], -2051765887 ; 85b48981H
  00054	c7 85 5c fe ff
	ff 8f 86 8e 89	 mov	 DWORD PTR __k$615512[ebp+8], -1987148145 ; 898e868fH
  0005e	c7 85 60 fe ff
	ff 99 b3 8f 8f	 mov	 DWORD PTR __k$615512[ebp+12], -1886407783 ; 8f8fb399H
  00068	c7 85 64 fe ff
	ff 8b 89 85 99	 mov	 DWORD PTR __k$615512[ebp+16], -1719301749 ; 9985898bH
  00072	8d 85 54 fe ff
	ff		 lea	 eax, DWORD PTR __k$615512[ebp]
  00078	66 c7 85 68 fe
	ff ff 88 00	 mov	 WORD PTR __k$615512[ebp+20], 136 ; 00000088H
  00081	59		 pop	 ecx
$LL106@LoadProper:
  00082	81 30 ed ec eb
	ea		 xor	 DWORD PTR [eax], -353637139 ; eaebecedH
  00088	83 c0 04	 add	 eax, 4
  0008b	49		 dec	 ecx
  0008c	75 f4		 jne	 SHORT $LL106@LoadProper
  0008e	80 b5 68 fe ff
	ff ed		 xor	 BYTE PTR __k$615512[ebp+20], -19 ; ffffffedH
  00095	53		 push	 ebx
  00096	8d 85 54 fe ff
	ff		 lea	 eax, DWORD PTR __k$615512[ebp]
  0009c	50		 push	 eax
  0009d	8b cf		 mov	 ecx, edi
  0009f	ff 15 00 00 00
	00		 call	 DWORD PTR __imp_?LoadBool@ioINILoader@@QAE_NPBD_N@Z
  000a5	88 85 2b fc ff
	ff		 mov	 BYTE PTR _value$615612[ebp], al
  000ab	8d 85 2b fc ff
	ff		 lea	 eax, DWORD PTR _value$615612[ebp]
  000b1	50		 push	 eax
  000b2	8d 8e 38 1b 00
	00		 lea	 ecx, DWORD PTR [esi+6968]
  000b8	e8 00 00 00 00	 call	 ?EncryptValueToPool@?$CEncrypt@_N@@AAEXPBD@Z ; CEncrypt<bool>::EncryptValueToPool
  000bd	6a 04		 push	 4

; 94   : 
; 95   : 	rkLoader.LoadString_e( "predelay_animation", "", szBuf, MAX_PATH );

  000bf	c7 85 00 ff ff
	ff 9d 9e 8e 8e	 mov	 DWORD PTR __k$615642[ebp], -1903255907 ; 8e8e9e9dH
  000c9	c7 85 04 ff ff
	ff 88 80 8a 93	 mov	 DWORD PTR __k$615642[ebp+4], -1819639672 ; 938a8088H
  000d3	c7 85 08 ff ff
	ff b2 8d 85 83	 mov	 DWORD PTR __k$615642[ebp+8], -2088399438 ; 83858db2H
  000dd	c7 85 0c ff ff
	ff 80 8d 9f 83	 mov	 DWORD PTR __k$615642[ebp+12], -2086695552 ; 839f8d80H
  000e7	66 c7 85 10 ff
	ff ff 82 82	 mov	 WORD PTR __k$615642[ebp+16], 33410 ; 00008282H
  000f0	8d 85 00 ff ff
	ff		 lea	 eax, DWORD PTR __k$615642[ebp]
  000f6	88 9d 12 ff ff
	ff		 mov	 BYTE PTR __k$615642[ebp+18], bl
  000fc	59		 pop	 ecx
$LL214@LoadProper:
  000fd	81 30 ed ec eb
	ea		 xor	 DWORD PTR [eax], -353637139 ; eaebecedH
  00103	83 c0 04	 add	 eax, 4
  00106	49		 dec	 ecx
  00107	75 f4		 jne	 SHORT $LL214@LoadProper
  00109	6a 10		 push	 16			; 00000010H
  0010b	58		 pop	 eax
$LL211@LoadProper:
  0010c	8b c8		 mov	 ecx, eax
  0010e	81 e1 03 00 00
	80		 and	 ecx, -2147483645	; 80000003H
  00114	79 05		 jns	 SHORT $LN3225@LoadProper
  00116	49		 dec	 ecx
  00117	83 c9 fc	 or	 ecx, -4			; fffffffcH
  0011a	41		 inc	 ecx
$LN3225@LoadProper:
  0011b	b2 ed		 mov	 dl, -19			; ffffffedH
  0011d	2a d1		 sub	 dl, cl
  0011f	30 94 05 00 ff
	ff ff		 xor	 BYTE PTR __k$615642[ebp+eax], dl
  00126	40		 inc	 eax
  00127	83 f8 12	 cmp	 eax, 18			; 00000012H
  0012a	7c e0		 jl	 SHORT $LL211@LoadProper
  0012c	68 04 01 00 00	 push	 260			; 00000104H
  00131	8d 85 2c fc ff
	ff		 lea	 eax, DWORD PTR _szBuf$[ebp]
  00137	50		 push	 eax
  00138	68 00 00 00 00	 push	 OFFSET ??_C@_00CNPNBAHC@?$AA@
  0013d	8d 85 00 ff ff
	ff		 lea	 eax, DWORD PTR __k$615642[ebp]
  00143	50		 push	 eax
  00144	8b cf		 mov	 ecx, edi
  00146	ff 15 00 00 00
	00		 call	 DWORD PTR __imp_?LoadStringA@ioINILoader@@QAEXPBD0PADH@Z

; 96   : 	m_PreDelayAnimation = szBuf;

  0014c	8d 85 2c fc ff
	ff		 lea	 eax, DWORD PTR _szBuf$[ebp]
  00152	50		 push	 eax
  00153	8d 8e 68 1b 00
	00		 lea	 ecx, DWORD PTR [esi+7016]
  00159	ff 15 00 00 00
	00		 call	 DWORD PTR __imp_??4ioHashString@@QAEAAV0@PBD@Z

; 97   : 	m_fPreDelayAniRate = rkLoader.LoadFloat_e( "predelay_ani_rate", FLOAT1 );

  0015f	b8 01 00 00 00	 mov	 eax, 1
  00164	6a 04		 push	 4
  00166	c7 85 60 ff ff
	ff 9d 9e 8e 8e	 mov	 DWORD PTR __k$615771[ebp], -1903255907 ; 8e8e9e9dH
  00170	c7 85 64 ff ff
	ff 88 80 8a 93	 mov	 DWORD PTR __k$615771[ebp+4], -1819639672 ; 938a8088H
  0017a	c7 85 68 ff ff
	ff b2 8d 85 83	 mov	 DWORD PTR __k$615771[ebp+8], -2088399438 ; 83858db2H
  00184	c7 85 6c ff ff
	ff b2 9e 8a 9e	 mov	 DWORD PTR __k$615771[ebp+12], -1635082574 ; 9e8a9eb2H
  0018e	8d 8d 60 ff ff
	ff		 lea	 ecx, DWORD PTR __k$615771[ebp]
  00194	66 c7 85 70 ff
	ff ff 88 00	 mov	 WORD PTR __k$615771[ebp+16], 136 ; 00000088H
  0019d	5a		 pop	 edx
$LL322@LoadProper:
  0019e	81 31 ed ec eb
	ea		 xor	 DWORD PTR [ecx], -353637139 ; eaebecedH
  001a4	83 c1 04	 add	 ecx, 4
  001a7	4a		 dec	 edx
  001a8	75 f4		 jne	 SHORT $LL322@LoadProper
  001aa	80 b5 70 ff ff
	ff ed		 xor	 BYTE PTR __k$615771[ebp+16], -19 ; ffffffedH
  001b1	89 85 24 fc ff
	ff		 mov	 DWORD PTR tv27132[ebp], eax
  001b7	db 85 24 fc ff
	ff		 fild	 DWORD PTR tv27132[ebp]
  001bd	85 c0		 test	 eax, eax
  001bf	79 06		 jns	 SHORT $LN3226@LoadProper
  001c1	d8 05 00 00 00
	00		 fadd	 DWORD PTR __real@4f800000
$LN3226@LoadProper:
  001c7	51		 push	 ecx
  001c8	8d 85 60 ff ff
	ff		 lea	 eax, DWORD PTR __k$615771[ebp]
  001ce	d9 1c 24	 fstp	 DWORD PTR [esp]
  001d1	50		 push	 eax
  001d2	8b cf		 mov	 ecx, edi
  001d4	ff 15 00 00 00
	00		 call	 DWORD PTR __imp_?LoadFloat@ioINILoader@@QAEMPBDM@Z
  001da	d9 9d 18 fc ff
	ff		 fstp	 DWORD PTR _value$615871[ebp]
  001e0	8d 85 18 fc ff
	ff		 lea	 eax, DWORD PTR _value$615871[ebp]
  001e6	50		 push	 eax
  001e7	8d 8e 78 1b 00
	00		 lea	 ecx, DWORD PTR [esi+7032]
  001ed	e8 00 00 00 00	 call	 ?EncryptValueToPool@?$CEncrypt@M@@AAEXPBD@Z ; CEncrypt<float>::EncryptValueToPool
  001f2	6a 04		 push	 4

; 98   : 
; 99   : 	rkLoader.LoadString_e( "attack_animation", "", szBuf, MAX_PATH );

  001f4	c7 85 a0 fe ff
	ff 8c 98 9f 8b	 mov	 DWORD PTR __k$615901[ebp], -1952474996 ; 8b9f988cH
  001fe	c7 85 a4 fe ff
	ff 8e 87 b4 8b	 mov	 DWORD PTR __k$615901[ebp+4], -1951103090 ; 8bb4878eH
  00208	c7 85 a8 fe ff
	ff 83 85 86 8b	 mov	 DWORD PTR __k$615901[ebp+8], -1954118269 ; 8b868583H
  00212	c7 85 ac fe ff
	ff 99 85 84 84	 mov	 DWORD PTR __k$615901[ebp+12], -2071689831 ; 84848599H
  0021c	8d 85 a0 fe ff
	ff		 lea	 eax, DWORD PTR __k$615901[ebp]
  00222	88 9d b0 fe ff
	ff		 mov	 BYTE PTR __k$615901[ebp+16], bl
  00228	59		 pop	 ecx
$LL430@LoadProper:
  00229	81 30 ed ec eb
	ea		 xor	 DWORD PTR [eax], -353637139 ; eaebecedH
  0022f	83 c0 04	 add	 eax, 4
  00232	49		 dec	 ecx
  00233	75 f4		 jne	 SHORT $LL430@LoadProper
  00235	68 04 01 00 00	 push	 260			; 00000104H
  0023a	8d 85 2c fc ff
	ff		 lea	 eax, DWORD PTR _szBuf$[ebp]
  00240	50		 push	 eax
  00241	68 00 00 00 00	 push	 OFFSET ??_C@_00CNPNBAHC@?$AA@
  00246	8d 85 a0 fe ff
	ff		 lea	 eax, DWORD PTR __k$615901[ebp]
  0024c	50		 push	 eax
  0024d	8b cf		 mov	 ecx, edi
  0024f	ff 15 00 00 00
	00		 call	 DWORD PTR __imp_?LoadStringA@ioINILoader@@QAEXPBD0PADH@Z

; 100  : 	m_AttackAnimation = szBuf;

  00255	8d 85 2c fc ff
	ff		 lea	 eax, DWORD PTR _szBuf$[ebp]
  0025b	50		 push	 eax
  0025c	8d 8e a8 1b 00
	00		 lea	 ecx, DWORD PTR [esi+7080]
  00262	ff 15 00 00 00
	00		 call	 DWORD PTR __imp_??4ioHashString@@QAEAAV0@PBD@Z

; 101  : 	m_fAttackAniRate = rkLoader.LoadFloat_e( "attack_ani_rate", FLOAT1 );

  00268	b8 01 00 00 00	 mov	 eax, 1
  0026d	6a 03		 push	 3
  0026f	c7 45 b8 8c 98
	9f 8b		 mov	 DWORD PTR __k$616040[ebp], -1952474996 ; 8b9f988cH
  00276	c7 45 bc 8e 87
	b4 8b		 mov	 DWORD PTR __k$616040[ebp+4], -1951103090 ; 8bb4878eH
  0027d	c7 45 c0 83 85
	b4 98		 mov	 DWORD PTR __k$616040[ebp+8], -1732999805 ; 98b48583H
  00284	8d 4d b8	 lea	 ecx, DWORD PTR __k$616040[ebp]
  00287	c7 45 c4 8c 98
	8e 00		 mov	 DWORD PTR __k$616040[ebp+12], 9345164 ; 008e988cH
  0028e	5a		 pop	 edx
$LL538@LoadProper:
  0028f	81 31 ed ec eb
	ea		 xor	 DWORD PTR [ecx], -353637139 ; eaebecedH
  00295	83 c1 04	 add	 ecx, 4
  00298	4a		 dec	 edx
  00299	75 f4		 jne	 SHORT $LL538@LoadProper
  0029b	c7 85 24 fc ff
	ff 0c 00 00 00	 mov	 DWORD PTR _i$616029[ebp], 12 ; 0000000cH
$LL535@LoadProper:
  002a5	8b 8d 24 fc ff
	ff		 mov	 ecx, DWORD PTR _i$616029[ebp]
  002ab	81 e1 03 00 00
	80		 and	 ecx, -2147483645	; 80000003H
  002b1	79 05		 jns	 SHORT $LN3227@LoadProper
  002b3	49		 dec	 ecx
  002b4	83 c9 fc	 or	 ecx, -4			; fffffffcH
  002b7	41		 inc	 ecx
$LN3227@LoadProper:
  002b8	b2 ed		 mov	 dl, -19			; ffffffedH
  002ba	2a d1		 sub	 dl, cl
  002bc	8b 8d 24 fc ff
	ff		 mov	 ecx, DWORD PTR _i$616029[ebp]
  002c2	30 54 0d b8	 xor	 BYTE PTR __k$616040[ebp+ecx], dl
  002c6	ff 85 24 fc ff
	ff		 inc	 DWORD PTR _i$616029[ebp]
  002cc	83 bd 24 fc ff
	ff 0f		 cmp	 DWORD PTR _i$616029[ebp], 15 ; 0000000fH
  002d3	7c d0		 jl	 SHORT $LL535@LoadProper
  002d5	89 85 24 fc ff
	ff		 mov	 DWORD PTR tv27118[ebp], eax
  002db	db 85 24 fc ff
	ff		 fild	 DWORD PTR tv27118[ebp]
  002e1	85 c0		 test	 eax, eax
  002e3	79 06		 jns	 SHORT $LN3228@LoadProper
  002e5	d8 05 00 00 00
	00		 fadd	 DWORD PTR __real@4f800000
$LN3228@LoadProper:
  002eb	51		 push	 ecx
  002ec	8d 45 b8	 lea	 eax, DWORD PTR __k$616040[ebp]
  002ef	d9 1c 24	 fstp	 DWORD PTR [esp]
  002f2	50		 push	 eax
  002f3	8b cf		 mov	 ecx, edi
  002f5	ff 15 00 00 00
	00		 call	 DWORD PTR __imp_?LoadFloat@ioINILoader@@QAEMPBDM@Z
  002fb	d9 9d 00 fc ff
	ff		 fstp	 DWORD PTR _value$616130[ebp]
  00301	8d 85 00 fc ff
	ff		 lea	 eax, DWORD PTR _value$616130[ebp]
  00307	50		 push	 eax
  00308	8d 8e b8 1b 00
	00		 lea	 ecx, DWORD PTR [esi+7096]
  0030e	e8 00 00 00 00	 call	 ?EncryptValueToPool@?$CEncrypt@M@@AAEXPBD@Z ; CEncrypt<float>::EncryptValueToPool
  00313	6a 05		 push	 5

; 102  : 
; 103  : 	rkLoader.LoadString_e( "attack_end_animation", "", szBuf, MAX_PATH );

  00315	c7 85 90 fd ff
	ff 8c 98 9f 8b	 mov	 DWORD PTR __k$616147[ebp], -1952474996 ; 8b9f988cH
  0031f	c7 85 94 fd ff
	ff 8e 87 b4 8f	 mov	 DWORD PTR __k$616147[ebp+4], -1883994226 ; 8fb4878eH
  00329	c7 85 98 fd ff
	ff 83 88 b4 8b	 mov	 DWORD PTR __k$616147[ebp+8], -1951102845 ; 8bb48883H
  00333	c7 85 9c fd ff
	ff 83 85 86 8b	 mov	 DWORD PTR __k$616147[ebp+12], -1954118269 ; 8b868583H
  0033d	c7 85 a0 fd ff
	ff 99 85 84 84	 mov	 DWORD PTR __k$616147[ebp+16], -2071689831 ; 84848599H
  00347	8d 85 90 fd ff
	ff		 lea	 eax, DWORD PTR __k$616147[ebp]
  0034d	88 9d a4 fd ff
	ff		 mov	 BYTE PTR __k$616147[ebp+20], bl
  00353	59		 pop	 ecx
$LL646@LoadProper:
  00354	81 30 ed ec eb
	ea		 xor	 DWORD PTR [eax], -353637139 ; eaebecedH
  0035a	83 c0 04	 add	 eax, 4
  0035d	49		 dec	 ecx
  0035e	75 f4		 jne	 SHORT $LL646@LoadProper
  00360	68 04 01 00 00	 push	 260			; 00000104H
  00365	8d 85 2c fc ff
	ff		 lea	 eax, DWORD PTR _szBuf$[ebp]
  0036b	50		 push	 eax
  0036c	68 00 00 00 00	 push	 OFFSET ??_C@_00CNPNBAHC@?$AA@
  00371	8d 85 90 fd ff
	ff		 lea	 eax, DWORD PTR __k$616147[ebp]
  00377	50		 push	 eax
  00378	8b cf		 mov	 ecx, edi
  0037a	ff 15 00 00 00
	00		 call	 DWORD PTR __imp_?LoadStringA@ioINILoader@@QAEXPBD0PADH@Z

; 104  : 	m_AttackEndAnimation = szBuf;

  00380	8d 85 2c fc ff
	ff		 lea	 eax, DWORD PTR _szBuf$[ebp]
  00386	50		 push	 eax
  00387	8d 8e e8 1b 00
	00		 lea	 ecx, DWORD PTR [esi+7144]
  0038d	ff 15 00 00 00
	00		 call	 DWORD PTR __imp_??4ioHashString@@QAEAAV0@PBD@Z

; 105  : 	m_fAttackEndAniRate = rkLoader.LoadFloat_e( "attack_end_ani_rate", FLOAT1 );

  00393	b8 01 00 00 00	 mov	 eax, 1
  00398	6a 04		 push	 4
  0039a	c7 85 b8 fe ff
	ff 8c 98 9f 8b	 mov	 DWORD PTR __k$616276[ebp], -1952474996 ; 8b9f988cH
  003a4	c7 85 bc fe ff
	ff 8e 87 b4 8f	 mov	 DWORD PTR __k$616276[ebp+4], -1883994226 ; 8fb4878eH
  003ae	c7 85 c0 fe ff
	ff 83 88 b4 8b	 mov	 DWORD PTR __k$616276[ebp+8], -1951102845 ; 8bb48883H
  003b8	c7 85 c4 fe ff
	ff 83 85 b4 98	 mov	 DWORD PTR __k$616276[ebp+12], -1732999805 ; 98b48583H
  003c2	8d 8d b8 fe ff
	ff		 lea	 ecx, DWORD PTR __k$616276[ebp]
  003c8	c7 85 c8 fe ff
	ff 8c 98 8e 00	 mov	 DWORD PTR __k$616276[ebp+16], 9345164 ; 008e988cH
  003d2	5a		 pop	 edx
$LL754@LoadProper:
  003d3	81 31 ed ec eb
	ea		 xor	 DWORD PTR [ecx], -353637139 ; eaebecedH
  003d9	83 c1 04	 add	 ecx, 4
  003dc	4a		 dec	 edx
  003dd	75 f4		 jne	 SHORT $LL754@LoadProper
  003df	c7 85 24 fc ff
	ff 10 00 00 00	 mov	 DWORD PTR _i$616376[ebp], 16 ; 00000010H
$LL751@LoadProper:
  003e9	8b 8d 24 fc ff
	ff		 mov	 ecx, DWORD PTR _i$616376[ebp]
  003ef	81 e1 03 00 00
	80		 and	 ecx, -2147483645	; 80000003H
  003f5	79 05		 jns	 SHORT $LN3229@LoadProper
  003f7	49		 dec	 ecx
  003f8	83 c9 fc	 or	 ecx, -4			; fffffffcH
  003fb	41		 inc	 ecx
$LN3229@LoadProper:
  003fc	b2 ed		 mov	 dl, -19			; ffffffedH
  003fe	2a d1		 sub	 dl, cl
  00400	8b 8d 24 fc ff
	ff		 mov	 ecx, DWORD PTR _i$616376[ebp]
  00406	30 94 0d b8 fe
	ff ff		 xor	 BYTE PTR __k$616276[ebp+ecx], dl
  0040d	ff 85 24 fc ff
	ff		 inc	 DWORD PTR _i$616376[ebp]
  00413	83 bd 24 fc ff
	ff 13		 cmp	 DWORD PTR _i$616376[ebp], 19 ; 00000013H
  0041a	7c cd		 jl	 SHORT $LL751@LoadProper
  0041c	89 85 24 fc ff
	ff		 mov	 DWORD PTR tv27104[ebp], eax
  00422	db 85 24 fc ff
	ff		 fild	 DWORD PTR tv27104[ebp]
  00428	85 c0		 test	 eax, eax
  0042a	79 06		 jns	 SHORT $LN3230@LoadProper
  0042c	d8 05 00 00 00
	00		 fadd	 DWORD PTR __real@4f800000
$LN3230@LoadProper:
  00432	51		 push	 ecx
  00433	8d 85 b8 fe ff
	ff		 lea	 eax, DWORD PTR __k$616276[ebp]
  00439	d9 1c 24	 fstp	 DWORD PTR [esp]
  0043c	50		 push	 eax
  0043d	8b cf		 mov	 ecx, edi
  0043f	ff 15 00 00 00
	00		 call	 DWORD PTR __imp_?LoadFloat@ioINILoader@@QAEMPBDM@Z
  00445	d9 9d 08 fc ff
	ff		 fstp	 DWORD PTR _value$616388[ebp]
  0044b	8d 85 08 fc ff
	ff		 lea	 eax, DWORD PTR _value$616388[ebp]
  00451	50		 push	 eax
  00452	8d 8e f8 1b 00
	00		 lea	 ecx, DWORD PTR [esi+7160]
  00458	e8 00 00 00 00	 call	 ?EncryptValueToPool@?$CEncrypt@M@@AAEXPBD@Z ; CEncrypt<float>::EncryptValueToPool
  0045d	6a 02		 push	 2

; 106  : 
; 107  : 	rkLoader.LoadString_e( "mark_effect", "", szBuf, MAX_PATH );

  0045f	c7 45 cc 80 8d
	99 81		 mov	 DWORD PTR __k$616406[ebp], -2120643200 ; 81998d80H
  00466	c7 45 d0 b2 89
	8d 8c		 mov	 DWORD PTR __k$616406[ebp+4], -1936881230 ; 8c8d89b2H
  0046d	8d 45 cc	 lea	 eax, DWORD PTR __k$616406[ebp]
  00470	c7 45 d4 88 8f
	9f 00		 mov	 DWORD PTR __k$616406[ebp+8], 10456968 ; 009f8f88H
  00477	59		 pop	 ecx
$LL862@LoadProper:
  00478	81 30 ed ec eb
	ea		 xor	 DWORD PTR [eax], -353637139 ; eaebecedH
  0047e	83 c0 04	 add	 eax, 4
  00481	49		 dec	 ecx
  00482	75 f4		 jne	 SHORT $LL862@LoadProper
  00484	6a 08		 push	 8
  00486	58		 pop	 eax
$LL859@LoadProper:
  00487	8b c8		 mov	 ecx, eax
  00489	81 e1 03 00 00
	80		 and	 ecx, -2147483645	; 80000003H
  0048f	79 05		 jns	 SHORT $LN3231@LoadProper
  00491	49		 dec	 ecx
  00492	83 c9 fc	 or	 ecx, -4			; fffffffcH
  00495	41		 inc	 ecx
$LN3231@LoadProper:
  00496	b2 ed		 mov	 dl, -19			; ffffffedH
  00498	2a d1		 sub	 dl, cl
  0049a	30 54 05 cc	 xor	 BYTE PTR __k$616406[ebp+eax], dl
  0049e	40		 inc	 eax
  0049f	83 f8 0b	 cmp	 eax, 11			; 0000000bH
  004a2	7c e3		 jl	 SHORT $LL859@LoadProper
  004a4	68 04 01 00 00	 push	 260			; 00000104H
  004a9	8d 85 2c fc ff
	ff		 lea	 eax, DWORD PTR _szBuf$[ebp]
  004af	50		 push	 eax
  004b0	68 00 00 00 00	 push	 OFFSET ??_C@_00CNPNBAHC@?$AA@
  004b5	8d 45 cc	 lea	 eax, DWORD PTR __k$616406[ebp]
  004b8	50		 push	 eax
  004b9	8b cf		 mov	 ecx, edi
  004bb	ff 15 00 00 00
	00		 call	 DWORD PTR __imp_?LoadStringA@ioINILoader@@QAEXPBD0PADH@Z

; 108  : 	m_MarkEffect = szBuf;

  004c1	8d 85 2c fc ff
	ff		 lea	 eax, DWORD PTR _szBuf$[ebp]
  004c7	50		 push	 eax
  004c8	8d 8e c0 1c 00
	00		 lea	 ecx, DWORD PTR [esi+7360]
  004ce	ff 15 00 00 00
	00		 call	 DWORD PTR __imp_??4ioHashString@@QAEAAV0@PBD@Z
  004d4	6a 04		 push	 4

; 109  : 	rkLoader.LoadString_e( "mark_after_effect", "", szBuf, MAX_PATH );

  004d6	c7 85 48 ff ff
	ff 80 8d 99 81	 mov	 DWORD PTR __k$616544[ebp], -2120643200 ; 81998d80H
  004e0	c7 85 4c ff ff
	ff b2 8d 8d 9e	 mov	 DWORD PTR __k$616544[ebp+4], -1634890318 ; 9e8d8db2H
  004ea	c7 85 50 ff ff
	ff 88 9e b4 8f	 mov	 DWORD PTR __k$616544[ebp+8], -1883988344 ; 8fb49e88H
  004f4	c7 85 54 ff ff
	ff 8b 8a 8e 89	 mov	 DWORD PTR __k$616544[ebp+12], -1987147125 ; 898e8a8bH
  004fe	8d 85 48 ff ff
	ff		 lea	 eax, DWORD PTR __k$616544[ebp]
  00504	66 c7 85 58 ff
	ff ff 99 00	 mov	 WORD PTR __k$616544[ebp+16], 153 ; 00000099H
  0050d	59		 pop	 ecx
$LL968@LoadProper:
  0050e	81 30 ed ec eb
	ea		 xor	 DWORD PTR [eax], -353637139 ; eaebecedH
  00514	83 c0 04	 add	 eax, 4
  00517	49		 dec	 ecx
  00518	75 f4		 jne	 SHORT $LL968@LoadProper
  0051a	80 b5 58 ff ff
	ff ed		 xor	 BYTE PTR __k$616544[ebp+16], -19 ; ffffffedH
  00521	68 04 01 00 00	 push	 260			; 00000104H
  00526	8d 85 2c fc ff
	ff		 lea	 eax, DWORD PTR _szBuf$[ebp]
  0052c	50		 push	 eax
  0052d	68 00 00 00 00	 push	 OFFSET ??_C@_00CNPNBAHC@?$AA@
  00532	8d 85 48 ff ff
	ff		 lea	 eax, DWORD PTR __k$616544[ebp]
  00538	50		 push	 eax
  00539	8b cf		 mov	 ecx, edi
  0053b	ff 15 00 00 00
	00		 call	 DWORD PTR __imp_?LoadStringA@ioINILoader@@QAEXPBD0PADH@Z

; 110  : 	m_MarkAfterEffect = szBuf;

  00541	8d 85 2c fc ff
	ff		 lea	 eax, DWORD PTR _szBuf$[ebp]
  00547	50		 push	 eax
  00548	8d 8e d0 1c 00
	00		 lea	 ecx, DWORD PTR [esi+7376]
  0054e	ff 15 00 00 00
	00		 call	 DWORD PTR __imp_??4ioHashString@@QAEAAV0@PBD@Z
  00554	6a 04		 push	 4

; 111  : 	m_fMarkFrontOffset  = rkLoader.LoadFloat_e( "mark_front_offset", 0.0f );

  00556	c7 85 30 ff ff
	ff 80 8d 99 81	 mov	 DWORD PTR __k$616669[ebp], -2120643200 ; 81998d80H
  00560	c7 85 34 ff ff
	ff b2 8a 99 85	 mov	 DWORD PTR __k$616669[ebp+4], -2053535054 ; 85998ab2H
  0056a	c7 85 38 ff ff
	ff 83 98 b4 85	 mov	 DWORD PTR __k$616669[ebp+8], -2051762045 ; 85b49883H
  00574	c7 85 3c ff ff
	ff 8b 8a 98 8f	 mov	 DWORD PTR __k$616669[ebp+12], -1885828469 ; 8f988a8bH
  0057e	8d 85 30 ff ff
	ff		 lea	 eax, DWORD PTR __k$616669[ebp]
  00584	66 c7 85 40 ff
	ff ff 99 00	 mov	 WORD PTR __k$616669[ebp+16], 153 ; 00000099H
  0058d	59		 pop	 ecx
$LL1074@LoadProper:
  0058e	81 30 ed ec eb
	ea		 xor	 DWORD PTR [eax], -353637139 ; eaebecedH
  00594	83 c0 04	 add	 eax, 4
  00597	49		 dec	 ecx
  00598	75 f4		 jne	 SHORT $LL1074@LoadProper
  0059a	0f 57 c0	 xorps	 xmm0, xmm0
  0059d	80 b5 40 ff ff
	ff ed		 xor	 BYTE PTR __k$616669[ebp+16], -19 ; ffffffedH
  005a4	51		 push	 ecx
  005a5	8d 85 30 ff ff
	ff		 lea	 eax, DWORD PTR __k$616669[ebp]
  005ab	f3 0f 11 04 24	 movss	 DWORD PTR [esp], xmm0
  005b0	50		 push	 eax
  005b1	8b cf		 mov	 ecx, edi
  005b3	ff 15 00 00 00
	00		 call	 DWORD PTR __imp_?LoadFloat@ioINILoader@@QAEMPBDM@Z
  005b9	d9 9d 04 fc ff
	ff		 fstp	 DWORD PTR _value$616769[ebp]
  005bf	8d 85 04 fc ff
	ff		 lea	 eax, DWORD PTR _value$616769[ebp]
  005c5	50		 push	 eax
  005c6	8d 8e e4 1c 00
	00		 lea	 ecx, DWORD PTR [esi+7396]
  005cc	e8 00 00 00 00	 call	 ?EncryptValueToPool@?$CEncrypt@M@@AAEXPBD@Z ; CEncrypt<float>::EncryptValueToPool
  005d1	6a 04		 push	 4

; 112  : 	m_fMarkHeightOffset = rkLoader.LoadFloat_e( "mark_height_offset", 0.0f );

  005d3	c7 85 18 ff ff
	ff 80 8d 99 81	 mov	 DWORD PTR __k$616799[ebp], -2120643200 ; 81998d80H
  005dd	c7 85 1c ff ff
	ff b2 84 8e 83	 mov	 DWORD PTR __k$616799[ebp+4], -2087811918 ; 838e84b2H
  005e7	c7 85 20 ff ff
	ff 8a 84 9f b5	 mov	 DWORD PTR __k$616799[ebp+8], -1247837046 ; b59f848aH
  005f1	c7 85 24 ff ff
	ff 82 8a 8d 99	 mov	 DWORD PTR __k$616799[ebp+12], -1718777214 ; 998d8a82H
  005fb	66 c7 85 28 ff
	ff ff 88 98	 mov	 WORD PTR __k$616799[ebp+16], 39048 ; 00009888H
  00604	8d 85 18 ff ff
	ff		 lea	 eax, DWORD PTR __k$616799[ebp]
  0060a	88 9d 2a ff ff
	ff		 mov	 BYTE PTR __k$616799[ebp+18], bl
  00610	59		 pop	 ecx
$LL1182@LoadProper:
  00611	81 30 ed ec eb
	ea		 xor	 DWORD PTR [eax], -353637139 ; eaebecedH
  00617	83 c0 04	 add	 eax, 4
  0061a	49		 dec	 ecx
  0061b	75 f4		 jne	 SHORT $LL1182@LoadProper
  0061d	6a 10		 push	 16			; 00000010H
  0061f	58		 pop	 eax
$LL1179@LoadProper:
  00620	8b c8		 mov	 ecx, eax
  00622	81 e1 03 00 00
	80		 and	 ecx, -2147483645	; 80000003H
  00628	79 05		 jns	 SHORT $LN3232@LoadProper
  0062a	49		 dec	 ecx
  0062b	83 c9 fc	 or	 ecx, -4			; fffffffcH
  0062e	41		 inc	 ecx
$LN3232@LoadProper:
  0062f	b2 ed		 mov	 dl, -19			; ffffffedH
  00631	2a d1		 sub	 dl, cl
  00633	30 94 05 18 ff
	ff ff		 xor	 BYTE PTR __k$616799[ebp+eax], dl
  0063a	40		 inc	 eax
  0063b	83 f8 12	 cmp	 eax, 18			; 00000012H
  0063e	7c e0		 jl	 SHORT $LL1179@LoadProper
  00640	0f 57 c0	 xorps	 xmm0, xmm0
  00643	51		 push	 ecx
  00644	8d 85 18 ff ff
	ff		 lea	 eax, DWORD PTR __k$616799[ebp]
  0064a	f3 0f 11 04 24	 movss	 DWORD PTR [esp], xmm0
  0064f	50		 push	 eax
  00650	8b cf		 mov	 ecx, edi
  00652	ff 15 00 00 00
	00		 call	 DWORD PTR __imp_?LoadFloat@ioINILoader@@QAEMPBDM@Z
  00658	d9 9d 10 fc ff
	ff		 fstp	 DWORD PTR _value$616899[ebp]
  0065e	8d 85 10 fc ff
	ff		 lea	 eax, DWORD PTR _value$616899[ebp]
  00664	50		 push	 eax
  00665	8d 8e 14 1d 00
	00		 lea	 ecx, DWORD PTR [esi+7444]
  0066b	e8 00 00 00 00	 call	 ?EncryptValueToPool@?$CEncrypt@M@@AAEXPBD@Z ; CEncrypt<float>::EncryptValueToPool
  00670	6a 02		 push	 2

; 113  : 	m_fMarkSpeed        = rkLoader.LoadFloat_e( "mark_speed", 0.0f );

  00672	c7 45 ec 80 8d
	99 81		 mov	 DWORD PTR __k$616929[ebp], -2120643200 ; 81998d80H
  00679	c7 45 f0 b2 9f
	9b 8f		 mov	 DWORD PTR __k$616929[ebp+4], -1885626446 ; 8f9b9fb2H
  00680	66 c7 45 f4 88
	88		 mov	 WORD PTR __k$616929[ebp+8], 34952 ; 00008888H
  00686	8d 45 ec	 lea	 eax, DWORD PTR __k$616929[ebp]
  00689	88 5d f6	 mov	 BYTE PTR __k$616929[ebp+10], bl
  0068c	59		 pop	 ecx
$LL1290@LoadProper:
  0068d	81 30 ed ec eb
	ea		 xor	 DWORD PTR [eax], -353637139 ; eaebecedH
  00693	83 c0 04	 add	 eax, 4
  00696	49		 dec	 ecx
  00697	75 f4		 jne	 SHORT $LL1290@LoadProper
  00699	6a 08		 push	 8
  0069b	58		 pop	 eax
$LL1287@LoadProper:
  0069c	8b c8		 mov	 ecx, eax
  0069e	81 e1 03 00 00
	80		 and	 ecx, -2147483645	; 80000003H
  006a4	79 05		 jns	 SHORT $LN3233@LoadProper
  006a6	49		 dec	 ecx
  006a7	83 c9 fc	 or	 ecx, -4			; fffffffcH
  006aa	41		 inc	 ecx
$LN3233@LoadProper:
  006ab	b2 ed		 mov	 dl, -19			; ffffffedH
  006ad	2a d1		 sub	 dl, cl
  006af	30 54 05 ec	 xor	 BYTE PTR __k$616929[ebp+eax], dl
  006b3	40		 inc	 eax
  006b4	83 f8 0a	 cmp	 eax, 10			; 0000000aH
  006b7	7c e3		 jl	 SHORT $LL1287@LoadProper
  006b9	0f 57 c0	 xorps	 xmm0, xmm0
  006bc	51		 push	 ecx
  006bd	8d 45 ec	 lea	 eax, DWORD PTR __k$616929[ebp]
  006c0	f3 0f 11 04 24	 movss	 DWORD PTR [esp], xmm0
  006c5	50		 push	 eax
  006c6	8b cf		 mov	 ecx, edi
  006c8	ff 15 00 00 00
	00		 call	 DWORD PTR __imp_?LoadFloat@ioINILoader@@QAEMPBDM@Z
  006ce	d9 9d 1c fc ff
	ff		 fstp	 DWORD PTR _value$617029[ebp]
  006d4	8d 85 1c fc ff
	ff		 lea	 eax, DWORD PTR _value$617029[ebp]
  006da	50		 push	 eax
  006db	8d 8e 44 1d 00
	00		 lea	 ecx, DWORD PTR [esi+7492]
  006e1	e8 00 00 00 00	 call	 ?EncryptValueToPool@?$CEncrypt@M@@AAEXPBD@Z ; CEncrypt<float>::EncryptValueToPool
  006e6	6a 02		 push	 2

; 114  : 	m_fMarkRange        = rkLoader.LoadFloat_e( "mark_range", 0.0f );

  006e8	c7 45 dc 80 8d
	99 81		 mov	 DWORD PTR __k$617059[ebp], -2120643200 ; 81998d80H
  006ef	c7 45 e0 b2 9e
	8a 84		 mov	 DWORD PTR __k$617059[ebp+4], -2071290190 ; 848a9eb2H
  006f6	66 c7 45 e4 8a
	89		 mov	 WORD PTR __k$617059[ebp+8], 35210 ; 0000898aH
  006fc	8d 45 dc	 lea	 eax, DWORD PTR __k$617059[ebp]
  006ff	88 5d e6	 mov	 BYTE PTR __k$617059[ebp+10], bl
  00702	59		 pop	 ecx
$LL1398@LoadProper:
  00703	81 30 ed ec eb
	ea		 xor	 DWORD PTR [eax], -353637139 ; eaebecedH
  00709	83 c0 04	 add	 eax, 4
  0070c	49		 dec	 ecx
  0070d	75 f4		 jne	 SHORT $LL1398@LoadProper
  0070f	6a 08		 push	 8
  00711	58		 pop	 eax
$LL1395@LoadProper:
  00712	8b c8		 mov	 ecx, eax
  00714	81 e1 03 00 00
	80		 and	 ecx, -2147483645	; 80000003H
  0071a	79 05		 jns	 SHORT $LN3234@LoadProper
  0071c	49		 dec	 ecx
  0071d	83 c9 fc	 or	 ecx, -4			; fffffffcH
  00720	41		 inc	 ecx
$LN3234@LoadProper:
  00721	b2 ed		 mov	 dl, -19			; ffffffedH
  00723	2a d1		 sub	 dl, cl
  00725	30 54 05 dc	 xor	 BYTE PTR __k$617059[ebp+eax], dl
  00729	40		 inc	 eax
  0072a	83 f8 0a	 cmp	 eax, 10			; 0000000aH
  0072d	7c e3		 jl	 SHORT $LL1395@LoadProper
  0072f	0f 57 c0	 xorps	 xmm0, xmm0
  00732	51		 push	 ecx
  00733	8d 45 dc	 lea	 eax, DWORD PTR __k$617059[ebp]
  00736	f3 0f 11 04 24	 movss	 DWORD PTR [esp], xmm0
  0073b	50		 push	 eax
  0073c	8b cf		 mov	 ecx, edi
  0073e	ff 15 00 00 00
	00		 call	 DWORD PTR __imp_?LoadFloat@ioINILoader@@QAEMPBDM@Z
  00744	d9 9d 14 fc ff
	ff		 fstp	 DWORD PTR _value$617159[ebp]
  0074a	8d 85 14 fc ff
	ff		 lea	 eax, DWORD PTR _value$617159[ebp]
  00750	50		 push	 eax
  00751	8d 8e 74 1d 00
	00		 lea	 ecx, DWORD PTR [esi+7540]
  00757	e8 00 00 00 00	 call	 ?EncryptValueToPool@?$CEncrypt@M@@AAEXPBD@Z ; CEncrypt<float>::EncryptValueToPool

; 115  : 
; 116  : 
; 117  : 	m_dwWeaponFireTime = (DWORD)rkLoader.LoadInt_e( "weapon_fire_time", FLOAT1 );

  0075c	b8 01 00 00 00	 mov	 eax, 1
  00761	6a 04		 push	 4
  00763	c7 85 70 fe ff
	ff 9a 89 8a 9a	 mov	 DWORD PTR __k$617216[ebp], -1702196838 ; 9a8a899aH
  0076d	c7 85 74 fe ff
	ff 82 82 b4 8c	 mov	 DWORD PTR __k$617216[ebp+4], -1934327166 ; 8cb48282H
  00777	c7 85 78 fe ff
	ff 84 9e 8e b5	 mov	 DWORD PTR __k$617216[ebp+8], -1248944508 ; b58e9e84H
  00781	c7 85 7c fe ff
	ff 99 85 86 8f	 mov	 DWORD PTR __k$617216[ebp+12], -1887009383 ; 8f868599H
  0078b	8d 8d 70 fe ff
	ff		 lea	 ecx, DWORD PTR __k$617216[ebp]
  00791	88 9d 80 fe ff
	ff		 mov	 BYTE PTR __k$617216[ebp+16], bl
  00797	5a		 pop	 edx
$LL1508@LoadProper:
  00798	81 31 ed ec eb
	ea		 xor	 DWORD PTR [ecx], -353637139 ; eaebecedH
  0079e	83 c1 04	 add	 ecx, 4
  007a1	4a		 dec	 edx
  007a2	75 f4		 jne	 SHORT $LL1508@LoadProper
  007a4	89 85 24 fc ff
	ff		 mov	 DWORD PTR tv27025[ebp], eax
  007aa	db 85 24 fc ff
	ff		 fild	 DWORD PTR tv27025[ebp]
  007b0	85 c0		 test	 eax, eax
  007b2	79 06		 jns	 SHORT $LN3235@LoadProper
  007b4	d8 05 00 00 00
	00		 fadd	 DWORD PTR __real@4f800000
$LN3235@LoadProper:
  007ba	e8 00 00 00 00	 call	 __ftol2_sse
  007bf	50		 push	 eax
  007c0	8d 85 70 fe ff
	ff		 lea	 eax, DWORD PTR __k$617216[ebp]
  007c6	50		 push	 eax
  007c7	8b cf		 mov	 ecx, edi
  007c9	ff 15 00 00 00
	00		 call	 DWORD PTR __imp_?LoadInt@ioINILoader@@QAEHPBDH@Z
  007cf	89 85 20 fc ff
	ff		 mov	 DWORD PTR _value$617292[ebp], eax
  007d5	8d 85 20 fc ff
	ff		 lea	 eax, DWORD PTR _value$617292[ebp]
  007db	50		 push	 eax
  007dc	8d 8e 28 1c 00
	00		 lea	 ecx, DWORD PTR [esi+7208]
  007e2	e8 00 00 00 00	 call	 ?EncryptValueToPool@?$CEncrypt@K@@AAEXPBD@Z ; CEncrypt<unsigned long>::EncryptValueToPool

; 118  : 	m_dwWeaponFireAngle = (DWORD)rkLoader.LoadInt_e( "weapon_fire_angle", FLOAT1 );

  007e7	b8 01 00 00 00	 mov	 eax, 1
  007ec	6a 04		 push	 4
  007ee	c7 85 78 ff ff
	ff 9a 89 8a 9a	 mov	 DWORD PTR __k$617314[ebp], -1702196838 ; 9a8a899aH
  007f8	c7 85 7c ff ff
	ff 82 82 b4 8c	 mov	 DWORD PTR __k$617314[ebp+4], -1934327166 ; 8cb48282H
  00802	c7 45 80 84 9e
	8e b5		 mov	 DWORD PTR __k$617314[ebp+8], -1248944508 ; b58e9e84H
  00809	c7 45 84 8c 82
	8c 86		 mov	 DWORD PTR __k$617314[ebp+12], -2037611892 ; 868c828cH
  00810	8d 8d 78 ff ff
	ff		 lea	 ecx, DWORD PTR __k$617314[ebp]
  00816	66 c7 45 88 88
	00		 mov	 WORD PTR __k$617314[ebp+16], 136 ; 00000088H
  0081c	5a		 pop	 edx
$LL1618@LoadProper:
  0081d	81 31 ed ec eb
	ea		 xor	 DWORD PTR [ecx], -353637139 ; eaebecedH
  00823	83 c1 04	 add	 ecx, 4
  00826	4a		 dec	 edx
  00827	75 f4		 jne	 SHORT $LL1618@LoadProper
  00829	80 75 88 ed	 xor	 BYTE PTR __k$617314[ebp+16], -19 ; ffffffedH
  0082d	89 85 24 fc ff
	ff		 mov	 DWORD PTR tv27015[ebp], eax
  00833	db 85 24 fc ff
	ff		 fild	 DWORD PTR tv27015[ebp]
  00839	85 c0		 test	 eax, eax
  0083b	79 06		 jns	 SHORT $LN3236@LoadProper
  0083d	d8 05 00 00 00
	00		 fadd	 DWORD PTR __real@4f800000
$LN3236@LoadProper:
  00843	e8 00 00 00 00	 call	 __ftol2_sse
  00848	50		 push	 eax
  00849	8d 85 78 ff ff
	ff		 lea	 eax, DWORD PTR __k$617314[ebp]
  0084f	50		 push	 eax
  00850	8b cf		 mov	 ecx, edi
  00852	ff 15 00 00 00
	00		 call	 DWORD PTR __imp_?LoadInt@ioINILoader@@QAEHPBDH@Z
  00858	89 85 0c fc ff
	ff		 mov	 DWORD PTR _value$617426[ebp], eax
  0085e	8d 85 0c fc ff
	ff		 lea	 eax, DWORD PTR _value$617426[ebp]
  00864	50		 push	 eax
  00865	8d 8e 58 1c 00
	00		 lea	 ecx, DWORD PTR [esi+7256]
  0086b	e8 00 00 00 00	 call	 ?EncryptValueToPool@?$CEncrypt@K@@AAEXPBD@Z ; CEncrypt<unsigned long>::EncryptValueToPool
  00870	6a 06		 push	 6

; 119  : 
; 120  : 	rkLoader.LoadString_e( "weapon_wounded_animation", "", szBuf, MAX_PATH );

  00872	c7 85 30 fd ff
	ff 9a 89 8a 9a	 mov	 DWORD PTR __k$617444[ebp], -1702196838 ; 9a8a899aH
  0087c	c7 85 34 fd ff
	ff 82 82 b4 9d	 mov	 DWORD PTR __k$617444[ebp+4], -1649114494 ; 9db48282H
  00886	c7 85 38 fd ff
	ff 82 99 85 8e	 mov	 DWORD PTR __k$617444[ebp+8], -1903847038 ; 8e859982H
  00890	c7 85 3c fd ff
	ff 88 88 b4 8b	 mov	 DWORD PTR __k$617444[ebp+12], -1951102840 ; 8bb48888H
  0089a	c7 85 40 fd ff
	ff 83 85 86 8b	 mov	 DWORD PTR __k$617444[ebp+16], -1954118269 ; 8b868583H
  008a4	c7 85 44 fd ff
	ff 99 85 84 84	 mov	 DWORD PTR __k$617444[ebp+20], -2071689831 ; 84848599H
  008ae	8d 85 30 fd ff
	ff		 lea	 eax, DWORD PTR __k$617444[ebp]
  008b4	88 9d 48 fd ff
	ff		 mov	 BYTE PTR __k$617444[ebp+24], bl
  008ba	59		 pop	 ecx
$LL1726@LoadProper:
  008bb	81 30 ed ec eb
	ea		 xor	 DWORD PTR [eax], -353637139 ; eaebecedH
  008c1	83 c0 04	 add	 eax, 4
  008c4	49		 dec	 ecx
  008c5	75 f4		 jne	 SHORT $LL1726@LoadProper
  008c7	68 04 01 00 00	 push	 260			; 00000104H
  008cc	8d 85 2c fc ff
	ff		 lea	 eax, DWORD PTR _szBuf$[ebp]
  008d2	50		 push	 eax
  008d3	68 00 00 00 00	 push	 OFFSET ??_C@_00CNPNBAHC@?$AA@
  008d8	8d 85 30 fd ff
	ff		 lea	 eax, DWORD PTR __k$617444[ebp]
  008de	50		 push	 eax
  008df	8b cf		 mov	 ecx, edi
  008e1	ff 15 00 00 00
	00		 call	 DWORD PTR __imp_?LoadStringA@ioINILoader@@QAEXPBD0PADH@Z

; 121  : 	m_WeaponInfo.m_WoundedAnimation = szBuf;

  008e7	8d 85 2c fc ff
	ff		 lea	 eax, DWORD PTR _szBuf$[ebp]
  008ed	50		 push	 eax
  008ee	8d 8e 90 1c 00
	00		 lea	 ecx, DWORD PTR [esi+7312]
  008f4	ff 15 00 00 00
	00		 call	 DWORD PTR __imp_??4ioHashString@@QAEAAV0@PBD@Z
  008fa	6a 05		 push	 5

; 122  : 
; 123  : 	m_WeaponInfo.m_dwWoundedDuration = rkLoader.LoadInt_e( "weapon_wounded_duration", 0 );

  008fc	c7 85 c8 fd ff
	ff 9a 89 8a 9a	 mov	 DWORD PTR __k$617582[ebp], -1702196838 ; 9a8a899aH
  00906	c7 85 cc fd ff
	ff 82 82 b4 9d	 mov	 DWORD PTR __k$617582[ebp+4], -1649114494 ; 9db48282H
  00910	c7 85 d0 fd ff
	ff 82 99 85 8e	 mov	 DWORD PTR __k$617582[ebp+8], -1903847038 ; 8e859982H
  0091a	c7 85 d4 fd ff
	ff 88 88 b4 8e	 mov	 DWORD PTR __k$617582[ebp+12], -1900771192 ; 8eb48888H
  00924	c7 85 d8 fd ff
	ff 98 9e 8a 9e	 mov	 DWORD PTR __k$617582[ebp+16], -1635082600 ; 9e8a9e98H
  0092e	8d 85 c8 fd ff
	ff		 lea	 eax, DWORD PTR __k$617582[ebp]
  00934	c7 85 dc fd ff
	ff 84 83 85 00	 mov	 DWORD PTR __k$617582[ebp+20], 8749956 ; 00858384H
  0093e	59		 pop	 ecx
$LL1832@LoadProper:
  0093f	81 30 ed ec eb
	ea		 xor	 DWORD PTR [eax], -353637139 ; eaebecedH
  00945	83 c0 04	 add	 eax, 4
  00948	49		 dec	 ecx
  00949	75 f4		 jne	 SHORT $LL1832@LoadProper
  0094b	6a 14		 push	 20			; 00000014H
  0094d	58		 pop	 eax
$LL1829@LoadProper:
  0094e	8b c8		 mov	 ecx, eax
  00950	81 e1 03 00 00
	80		 and	 ecx, -2147483645	; 80000003H
  00956	79 05		 jns	 SHORT $LN3237@LoadProper
  00958	49		 dec	 ecx
  00959	83 c9 fc	 or	 ecx, -4			; fffffffcH
  0095c	41		 inc	 ecx
$LN3237@LoadProper:
  0095d	b2 ed		 mov	 dl, -19			; ffffffedH
  0095f	2a d1		 sub	 dl, cl
  00961	30 94 05 c8 fd
	ff ff		 xor	 BYTE PTR __k$617582[ebp+eax], dl
  00968	40		 inc	 eax
  00969	83 f8 17	 cmp	 eax, 23			; 00000017H
  0096c	7c e0		 jl	 SHORT $LL1829@LoadProper
  0096e	53		 push	 ebx
  0096f	8d 85 c8 fd ff
	ff		 lea	 eax, DWORD PTR __k$617582[ebp]
  00975	50		 push	 eax
  00976	8b cf		 mov	 ecx, edi
  00978	ff 15 00 00 00
	00		 call	 DWORD PTR __imp_?LoadInt@ioINILoader@@QAEHPBDH@Z
  0097e	89 86 a0 1c 00
	00		 mov	 DWORD PTR [esi+7328], eax
  00984	6a 05		 push	 5

; 124  : 	m_WeaponInfo.m_bWoundedLoopAni = rkLoader.LoadBool_e( "weapon_wounded_loop_ani", false );

  00986	c7 85 ac fd ff
	ff 9a 89 8a 9a	 mov	 DWORD PTR __k$617707[ebp], -1702196838 ; 9a8a899aH
  00990	c7 85 b0 fd ff
	ff 82 82 b4 9d	 mov	 DWORD PTR __k$617707[ebp+4], -1649114494 ; 9db48282H
  0099a	c7 85 b4 fd ff
	ff 82 99 85 8e	 mov	 DWORD PTR __k$617707[ebp+8], -1903847038 ; 8e859982H
  009a4	c7 85 b8 fd ff
	ff 88 88 b4 86	 mov	 DWORD PTR __k$617707[ebp+12], -2034988920 ; 86b48888H
  009ae	c7 85 bc fd ff
	ff 82 83 9b b5	 mov	 DWORD PTR __k$617707[ebp+16], -1248099454 ; b59b8382H
  009b8	8d 85 ac fd ff
	ff		 lea	 eax, DWORD PTR __k$617707[ebp]
  009be	c7 85 c0 fd ff
	ff 8c 82 82 00	 mov	 DWORD PTR __k$617707[ebp+20], 8553100 ; 0082828cH
  009c8	59		 pop	 ecx
$LL1938@LoadProper:
  009c9	81 30 ed ec eb
	ea		 xor	 DWORD PTR [eax], -353637139 ; eaebecedH
  009cf	83 c0 04	 add	 eax, 4
  009d2	49		 dec	 ecx
  009d3	75 f4		 jne	 SHORT $LL1938@LoadProper
  009d5	6a 14		 push	 20			; 00000014H
  009d7	58		 pop	 eax
$LL1935@LoadProper:
  009d8	8b c8		 mov	 ecx, eax
  009da	81 e1 03 00 00
	80		 and	 ecx, -2147483645	; 80000003H
  009e0	79 05		 jns	 SHORT $LN3238@LoadProper
  009e2	49		 dec	 ecx
  009e3	83 c9 fc	 or	 ecx, -4			; fffffffcH
  009e6	41		 inc	 ecx
$LN3238@LoadProper:
  009e7	b2 ed		 mov	 dl, -19			; ffffffedH
  009e9	2a d1		 sub	 dl, cl
  009eb	30 94 05 ac fd
	ff ff		 xor	 BYTE PTR __k$617707[ebp+eax], dl
  009f2	40		 inc	 eax
  009f3	83 f8 17	 cmp	 eax, 23			; 00000017H
  009f6	7c e0		 jl	 SHORT $LL1935@LoadProper
  009f8	53		 push	 ebx
  009f9	8d 85 ac fd ff
	ff		 lea	 eax, DWORD PTR __k$617707[ebp]
  009ff	50		 push	 eax
  00a00	8b cf		 mov	 ecx, edi
  00a02	ff 15 00 00 00
	00		 call	 DWORD PTR __imp_?LoadBool@ioINILoader@@QAE_NPBD_N@Z
  00a08	88 86 a8 1c 00
	00		 mov	 BYTE PTR [esi+7336], al
  00a0e	6a 05		 push	 5

; 125  : 
; 126  : 	m_WeaponInfo.m_iWeaponIdx = rkLoader.LoadInt_e( "weapon_attribute_index", 0 );

  00a10	c7 85 1c fe ff
	ff 9a 89 8a 9a	 mov	 DWORD PTR __k$617832[ebp], -1702196838 ; 9a8a899aH
  00a1a	c7 85 20 fe ff
	ff 82 82 b4 8b	 mov	 DWORD PTR __k$617832[ebp+4], -1951104382 ; 8bb48282H
  00a24	c7 85 24 fe ff
	ff 99 98 99 83	 mov	 DWORD PTR __k$617832[ebp+8], -2087085927 ; 83999899H
  00a2e	c7 85 28 fe ff
	ff 8f 99 9f 8f	 mov	 DWORD PTR __k$617832[ebp+12], -1885365873 ; 8f9f998fH
  00a38	c7 85 2c fe ff
	ff b2 85 85 8e	 mov	 DWORD PTR __k$617832[ebp+16], -1903852110 ; 8e8585b2H
  00a42	66 c7 85 30 fe
	ff ff 88 94	 mov	 WORD PTR __k$617832[ebp+20], 38024 ; 00009488H
  00a4b	8d 85 1c fe ff
	ff		 lea	 eax, DWORD PTR __k$617832[ebp]
  00a51	88 9d 32 fe ff
	ff		 mov	 BYTE PTR __k$617832[ebp+22], bl
  00a57	59		 pop	 ecx
$LL2044@LoadProper:
  00a58	81 30 ed ec eb
	ea		 xor	 DWORD PTR [eax], -353637139 ; eaebecedH
  00a5e	83 c0 04	 add	 eax, 4
  00a61	49		 dec	 ecx
  00a62	75 f4		 jne	 SHORT $LL2044@LoadProper
  00a64	6a 14		 push	 20			; 00000014H
  00a66	58		 pop	 eax
$LL2041@LoadProper:
  00a67	8b c8		 mov	 ecx, eax
  00a69	81 e1 03 00 00
	80		 and	 ecx, -2147483645	; 80000003H
  00a6f	79 05		 jns	 SHORT $LN3239@LoadProper
  00a71	49		 dec	 ecx
  00a72	83 c9 fc	 or	 ecx, -4			; fffffffcH
  00a75	41		 inc	 ecx
$LN3239@LoadProper:
  00a76	b2 ed		 mov	 dl, -19			; ffffffedH
  00a78	2a d1		 sub	 dl, cl
  00a7a	30 94 05 1c fe
	ff ff		 xor	 BYTE PTR __k$617832[ebp+eax], dl
  00a81	40		 inc	 eax
  00a82	83 f8 16	 cmp	 eax, 22			; 00000016H
  00a85	7c e0		 jl	 SHORT $LL2041@LoadProper
  00a87	53		 push	 ebx
  00a88	8d 85 1c fe ff
	ff		 lea	 eax, DWORD PTR __k$617832[ebp]
  00a8e	50		 push	 eax
  00a8f	8b cf		 mov	 ecx, edi
  00a91	ff 15 00 00 00
	00		 call	 DWORD PTR __imp_?LoadInt@ioINILoader@@QAEHPBDH@Z
  00a97	89 86 88 1c 00
	00		 mov	 DWORD PTR [esi+7304], eax
  00a9d	6a 07		 push	 7

; 127  : 	m_WeaponInfo.m_iResistanceIdx = rkLoader.LoadInt_e( "weapon_attribute_resist_index", 0 );

  00a9f	c7 85 50 fd ff
	ff 9a 89 8a 9a	 mov	 DWORD PTR __k$617957[ebp], -1702196838 ; 9a8a899aH
  00aa9	c7 85 54 fd ff
	ff 82 82 b4 8b	 mov	 DWORD PTR __k$617957[ebp+4], -1951104382 ; 8bb48282H
  00ab3	c7 85 58 fd ff
	ff 99 98 99 83	 mov	 DWORD PTR __k$617957[ebp+8], -2087085927 ; 83999899H
  00abd	c7 85 5c fd ff
	ff 8f 99 9f 8f	 mov	 DWORD PTR __k$617957[ebp+12], -1885365873 ; 8f9f998fH
  00ac7	c7 85 60 fd ff
	ff b2 9e 8e 99	 mov	 DWORD PTR __k$617957[ebp+16], -1718706510 ; 998e9eb2H
  00ad1	c7 85 64 fd ff
	ff 84 9f 9f b5	 mov	 DWORD PTR __k$617957[ebp+20], -1247830140 ; b59f9f84H
  00adb	c7 85 68 fd ff
	ff 84 82 8f 8f	 mov	 DWORD PTR __k$617957[ebp+24], -1886420348 ; 8f8f8284H
  00ae5	8d 85 50 fd ff
	ff		 lea	 eax, DWORD PTR __k$617957[ebp]
  00aeb	66 c7 85 6c fd
	ff ff 95 00	 mov	 WORD PTR __k$617957[ebp+28], 149 ; 00000095H
  00af4	59		 pop	 ecx
$LL2150@LoadProper:
  00af5	81 30 ed ec eb
	ea		 xor	 DWORD PTR [eax], -353637139 ; eaebecedH
  00afb	83 c0 04	 add	 eax, 4
  00afe	49		 dec	 ecx
  00aff	75 f4		 jne	 SHORT $LL2150@LoadProper
  00b01	80 b5 6c fd ff
	ff ed		 xor	 BYTE PTR __k$617957[ebp+28], -19 ; ffffffedH
  00b08	53		 push	 ebx
  00b09	8d 85 50 fd ff
	ff		 lea	 eax, DWORD PTR __k$617957[ebp]
  00b0f	50		 push	 eax
  00b10	8b cf		 mov	 ecx, edi
  00b12	ff 15 00 00 00
	00		 call	 DWORD PTR __imp_?LoadInt@ioINILoader@@QAEHPBDH@Z
  00b18	89 86 8c 1c 00
	00		 mov	 DWORD PTR [esi+7308], eax
  00b1e	6a 05		 push	 5

; 128  : 
; 129  : 
; 130  : 	// float weapon info
; 131  : 	m_fRevisionRate        = rkLoader.LoadFloat_e( "weapon_revision_rate", 0.0f );

  00b20	c7 85 74 fd ff
	ff 9a 89 8a 9a	 mov	 DWORD PTR __k$618118[ebp], -1702196838 ; 9a8a899aH
  00b2a	c7 85 78 fd ff
	ff 82 82 b4 98	 mov	 DWORD PTR __k$618118[ebp+4], -1733000574 ; 98b48282H
  00b34	c7 85 7c fd ff
	ff 88 9a 82 99	 mov	 DWORD PTR __k$618118[ebp+8], -1719494008 ; 99829a88H
  00b3e	c7 85 80 fd ff
	ff 84 83 85 b5	 mov	 DWORD PTR __k$618118[ebp+12], -1249541244 ; b5858384H
  00b48	c7 85 84 fd ff
	ff 9f 8d 9f 8f	 mov	 DWORD PTR __k$618118[ebp+16], -1885368929 ; 8f9f8d9fH
  00b52	8d 85 74 fd ff
	ff		 lea	 eax, DWORD PTR __k$618118[ebp]
  00b58	88 9d 88 fd ff
	ff		 mov	 BYTE PTR __k$618118[ebp+20], bl
  00b5e	59		 pop	 ecx
$LL2256@LoadProper:
  00b5f	81 30 ed ec eb
	ea		 xor	 DWORD PTR [eax], -353637139 ; eaebecedH
  00b65	83 c0 04	 add	 eax, 4
  00b68	49		 dec	 ecx
  00b69	75 f4		 jne	 SHORT $LL2256@LoadProper
  00b6b	0f 57 c0	 xorps	 xmm0, xmm0
  00b6e	51		 push	 ecx
  00b6f	8d 85 74 fd ff
	ff		 lea	 eax, DWORD PTR __k$618118[ebp]
  00b75	f3 0f 11 04 24	 movss	 DWORD PTR [esp], xmm0
  00b7a	50		 push	 eax
  00b7b	8b cf		 mov	 ecx, edi
  00b7d	ff 15 00 00 00
	00		 call	 DWORD PTR __imp_?LoadFloat@ioINILoader@@QAEMPBDM@Z
  00b83	51		 push	 ecx
  00b84	8d 8e b4 1d 00
	00		 lea	 ecx, DWORD PTR [esi+7604]
  00b8a	d9 1c 24	 fstp	 DWORD PTR [esp]
  00b8d	e8 00 00 00 00	 call	 ??4?$CEncrypt@M@@QAEMM@Z ; CEncrypt<float>::operator=
  00b92	dd d8		 fstp	 ST(0)

; 132  : 	m_fWeaponGravityRate   = rkLoader.LoadFloat_e( "weapon_gravity_rate", FLOAT1 );

  00b94	b8 01 00 00 00	 mov	 eax, 1
  00b99	6a 04		 push	 4
  00b9b	c7 85 d0 fe ff
	ff 9a 89 8a 9a	 mov	 DWORD PTR __k$618198[ebp], -1702196838 ; 9a8a899aH
  00ba5	c7 85 d4 fe ff
	ff 82 82 b4 8d	 mov	 DWORD PTR __k$618198[ebp+4], -1917549950 ; 8db48282H
  00baf	c7 85 d8 fe ff
	ff 9f 8d 9d 83	 mov	 DWORD PTR __k$618198[ebp+8], -2086826593 ; 839d8d9fH
  00bb9	c7 85 dc fe ff
	ff 99 95 b4 98	 mov	 DWORD PTR __k$618198[ebp+12], -1732995687 ; 98b49599H
  00bc3	8d 8d d0 fe ff
	ff		 lea	 ecx, DWORD PTR __k$618198[ebp]
  00bc9	c7 85 e0 fe ff
	ff 8c 98 8e 00	 mov	 DWORD PTR __k$618198[ebp+16], 9345164 ; 008e988cH
  00bd3	5a		 pop	 edx
$LL2364@LoadProper:
  00bd4	81 31 ed ec eb
	ea		 xor	 DWORD PTR [ecx], -353637139 ; eaebecedH
  00bda	83 c1 04	 add	 ecx, 4
  00bdd	4a		 dec	 edx
  00bde	75 f4		 jne	 SHORT $LL2364@LoadProper
  00be0	c7 85 24 fc ff
	ff 10 00 00 00	 mov	 DWORD PTR _i$618298[ebp], 16 ; 00000010H
$LL2361@LoadProper:
  00bea	8b 8d 24 fc ff
	ff		 mov	 ecx, DWORD PTR _i$618298[ebp]
  00bf0	81 e1 03 00 00
	80		 and	 ecx, -2147483645	; 80000003H
  00bf6	79 05		 jns	 SHORT $LN3240@LoadProper
  00bf8	49		 dec	 ecx
  00bf9	83 c9 fc	 or	 ecx, -4			; fffffffcH
  00bfc	41		 inc	 ecx
$LN3240@LoadProper:
  00bfd	b2 ed		 mov	 dl, -19			; ffffffedH
  00bff	2a d1		 sub	 dl, cl
  00c01	8b 8d 24 fc ff
	ff		 mov	 ecx, DWORD PTR _i$618298[ebp]
  00c07	30 94 0d d0 fe
	ff ff		 xor	 BYTE PTR __k$618198[ebp+ecx], dl
  00c0e	ff 85 24 fc ff
	ff		 inc	 DWORD PTR _i$618298[ebp]
  00c14	83 bd 24 fc ff
	ff 13		 cmp	 DWORD PTR _i$618298[ebp], 19 ; 00000013H
  00c1b	7c cd		 jl	 SHORT $LL2361@LoadProper
  00c1d	89 85 24 fc ff
	ff		 mov	 DWORD PTR tv26979[ebp], eax
  00c23	db 85 24 fc ff
	ff		 fild	 DWORD PTR tv26979[ebp]
  00c29	85 c0		 test	 eax, eax
  00c2b	79 06		 jns	 SHORT $LN3241@LoadProper
  00c2d	d8 05 00 00 00
	00		 fadd	 DWORD PTR __real@4f800000
$LN3241@LoadProper:
  00c33	51		 push	 ecx
  00c34	8d 85 d0 fe ff
	ff		 lea	 eax, DWORD PTR __k$618198[ebp]
  00c3a	d9 1c 24	 fstp	 DWORD PTR [esp]
  00c3d	50		 push	 eax
  00c3e	8b cf		 mov	 ecx, edi
  00c40	ff 15 00 00 00
	00		 call	 DWORD PTR __imp_?LoadFloat@ioINILoader@@QAEMPBDM@Z
  00c46	51		 push	 ecx
  00c47	8d 8e e4 1d 00
	00		 lea	 ecx, DWORD PTR [esi+7652]
  00c4d	d9 1c 24	 fstp	 DWORD PTR [esp]
  00c50	e8 00 00 00 00	 call	 ??4?$CEncrypt@M@@QAEMM@Z ; CEncrypt<float>::operator=
  00c55	dd d8		 fstp	 ST(0)
  00c57	6a 04		 push	 4

; 133  : 	m_fWeaponFloatPower    = rkLoader.LoadFloat_e( "weapon_float_power", 0.0f );

  00c59	c7 85 e8 fe ff
	ff 9a 89 8a 9a	 mov	 DWORD PTR __k$618323[ebp], -1702196838 ; 9a8a899aH
  00c63	c7 85 ec fe ff
	ff 82 82 b4 8c	 mov	 DWORD PTR __k$618323[ebp+4], -1934327166 ; 8cb48282H
  00c6d	c7 85 f0 fe ff
	ff 81 83 8a 9e	 mov	 DWORD PTR __k$618323[ebp+8], -1635089535 ; 9e8a8381H
  00c77	c7 85 f4 fe ff
	ff b2 9c 84 9d	 mov	 DWORD PTR __k$618323[ebp+12], -1652253518 ; 9d849cb2H
  00c81	66 c7 85 f8 fe
	ff ff 88 9e	 mov	 WORD PTR __k$618323[ebp+16], 40584 ; 00009e88H
  00c8a	8d 85 e8 fe ff
	ff		 lea	 eax, DWORD PTR __k$618323[ebp]
  00c90	88 9d fa fe ff
	ff		 mov	 BYTE PTR __k$618323[ebp+18], bl
  00c96	59		 pop	 ecx
$LL2470@LoadProper:
  00c97	81 30 ed ec eb
	ea		 xor	 DWORD PTR [eax], -353637139 ; eaebecedH
  00c9d	83 c0 04	 add	 eax, 4
  00ca0	49		 dec	 ecx
  00ca1	75 f4		 jne	 SHORT $LL2470@LoadProper
  00ca3	6a 10		 push	 16			; 00000010H
  00ca5	58		 pop	 eax
$LL2467@LoadProper:
  00ca6	8b c8		 mov	 ecx, eax
  00ca8	81 e1 03 00 00
	80		 and	 ecx, -2147483645	; 80000003H
  00cae	79 05		 jns	 SHORT $LN3242@LoadProper
  00cb0	49		 dec	 ecx
  00cb1	83 c9 fc	 or	 ecx, -4			; fffffffcH
  00cb4	41		 inc	 ecx
$LN3242@LoadProper:
  00cb5	b2 ed		 mov	 dl, -19			; ffffffedH
  00cb7	2a d1		 sub	 dl, cl
  00cb9	30 94 05 e8 fe
	ff ff		 xor	 BYTE PTR __k$618323[ebp+eax], dl
  00cc0	40		 inc	 eax
  00cc1	83 f8 12	 cmp	 eax, 18			; 00000012H
  00cc4	7c e0		 jl	 SHORT $LL2467@LoadProper
  00cc6	0f 57 c0	 xorps	 xmm0, xmm0
  00cc9	51		 push	 ecx
  00cca	8d 85 e8 fe ff
	ff		 lea	 eax, DWORD PTR __k$618323[ebp]
  00cd0	f3 0f 11 04 24	 movss	 DWORD PTR [esp], xmm0
  00cd5	50		 push	 eax
  00cd6	8b cf		 mov	 ecx, edi
  00cd8	ff 15 00 00 00
	00		 call	 DWORD PTR __imp_?LoadFloat@ioINILoader@@QAEMPBDM@Z
  00cde	51		 push	 ecx
  00cdf	8d 8e 14 1e 00
	00		 lea	 ecx, DWORD PTR [esi+7700]
  00ce5	d9 1c 24	 fstp	 DWORD PTR [esp]
  00ce8	e8 00 00 00 00	 call	 ??4?$CEncrypt@M@@QAEMM@Z ; CEncrypt<float>::operator=
  00ced	dd d8		 fstp	 ST(0)
  00cef	6a 05		 push	 5

; 134  : 	m_fWeaponFloatMinPower = rkLoader.LoadFloat_e( "weapon_float_min_power", 0.0f );

  00cf1	c7 85 00 fe ff
	ff 9a 89 8a 9a	 mov	 DWORD PTR __k$618448[ebp], -1702196838 ; 9a8a899aH
  00cfb	c7 85 04 fe ff
	ff 82 82 b4 8c	 mov	 DWORD PTR __k$618448[ebp+4], -1934327166 ; 8cb48282H
  00d05	c7 85 08 fe ff
	ff 81 83 8a 9e	 mov	 DWORD PTR __k$618448[ebp+8], -1635089535 ; 9e8a8381H
  00d0f	c7 85 0c fe ff
	ff b2 81 82 84	 mov	 DWORD PTR __k$618448[ebp+12], -2071821902 ; 848281b2H
  00d19	c7 85 10 fe ff
	ff b2 9c 84 9d	 mov	 DWORD PTR __k$618448[ebp+16], -1652253518 ; 9d849cb2H
  00d23	66 c7 85 14 fe
	ff ff 88 9e	 mov	 WORD PTR __k$618448[ebp+20], 40584 ; 00009e88H
  00d2c	8d 85 00 fe ff
	ff		 lea	 eax, DWORD PTR __k$618448[ebp]
  00d32	88 9d 16 fe ff
	ff		 mov	 BYTE PTR __k$618448[ebp+22], bl
  00d38	59		 pop	 ecx
$LL2576@LoadProper:
  00d39	81 30 ed ec eb
	ea		 xor	 DWORD PTR [eax], -353637139 ; eaebecedH
  00d3f	83 c0 04	 add	 eax, 4
  00d42	49		 dec	 ecx
  00d43	75 f4		 jne	 SHORT $LL2576@LoadProper
  00d45	6a 14		 push	 20			; 00000014H
  00d47	58		 pop	 eax
$LL2573@LoadProper:
  00d48	8b c8		 mov	 ecx, eax
  00d4a	81 e1 03 00 00
	80		 and	 ecx, -2147483645	; 80000003H
  00d50	79 05		 jns	 SHORT $LN3243@LoadProper
  00d52	49		 dec	 ecx
  00d53	83 c9 fc	 or	 ecx, -4			; fffffffcH
  00d56	41		 inc	 ecx
$LN3243@LoadProper:
  00d57	b2 ed		 mov	 dl, -19			; ffffffedH
  00d59	2a d1		 sub	 dl, cl
  00d5b	30 94 05 00 fe
	ff ff		 xor	 BYTE PTR __k$618448[ebp+eax], dl
  00d62	40		 inc	 eax
  00d63	83 f8 16	 cmp	 eax, 22			; 00000016H
  00d66	7c e0		 jl	 SHORT $LL2573@LoadProper
  00d68	0f 57 c0	 xorps	 xmm0, xmm0
  00d6b	51		 push	 ecx
  00d6c	8d 85 00 fe ff
	ff		 lea	 eax, DWORD PTR __k$618448[ebp]
  00d72	f3 0f 11 04 24	 movss	 DWORD PTR [esp], xmm0
  00d77	50		 push	 eax
  00d78	8b cf		 mov	 ecx, edi
  00d7a	ff 15 00 00 00
	00		 call	 DWORD PTR __imp_?LoadFloat@ioINILoader@@QAEMPBDM@Z
  00d80	51		 push	 ecx
  00d81	8d 8e 44 1e 00
	00		 lea	 ecx, DWORD PTR [esi+7748]
  00d87	d9 1c 24	 fstp	 DWORD PTR [esp]
  00d8a	e8 00 00 00 00	 call	 ??4?$CEncrypt@M@@QAEMM@Z ; CEncrypt<float>::operator=
  00d8f	dd d8		 fstp	 ST(0)
  00d91	6a 04		 push	 4

; 135  : 	m_fWeaponMinSpeed      = rkLoader.LoadFloat_e( "weapon_min_speed", 0.0f );

  00d93	c7 85 88 fe ff
	ff 9a 89 8a 9a	 mov	 DWORD PTR __k$618586[ebp], -1702196838 ; 9a8a899aH
  00d9d	c7 85 8c fe ff
	ff 82 82 b4 87	 mov	 DWORD PTR __k$618586[ebp+4], -2018213246 ; 87b48282H
  00da7	c7 85 90 fe ff
	ff 84 82 b4 99	 mov	 DWORD PTR __k$618586[ebp+8], -1716223356 ; 99b48284H
  00db1	c7 85 94 fe ff
	ff 9d 89 8e 8e	 mov	 DWORD PTR __k$618586[ebp+12], -1903261283 ; 8e8e899dH
  00dbb	8d 85 88 fe ff
	ff		 lea	 eax, DWORD PTR __k$618586[ebp]
  00dc1	88 9d 98 fe ff
	ff		 mov	 BYTE PTR __k$618586[ebp+16], bl
  00dc7	59		 pop	 ecx
$LL2682@LoadProper:
  00dc8	81 30 ed ec eb
	ea		 xor	 DWORD PTR [eax], -353637139 ; eaebecedH
  00dce	83 c0 04	 add	 eax, 4
  00dd1	49		 dec	 ecx
  00dd2	75 f4		 jne	 SHORT $LL2682@LoadProper
  00dd4	0f 57 c0	 xorps	 xmm0, xmm0
  00dd7	51		 push	 ecx
  00dd8	8d 85 88 fe ff
	ff		 lea	 eax, DWORD PTR __k$618586[ebp]
  00dde	f3 0f 11 04 24	 movss	 DWORD PTR [esp], xmm0
  00de3	50		 push	 eax
  00de4	8b cf		 mov	 ecx, edi
  00de6	ff 15 00 00 00
	00		 call	 DWORD PTR __imp_?LoadFloat@ioINILoader@@QAEMPBDM@Z
  00dec	51		 push	 ecx
  00ded	8d 8e 74 1e 00
	00		 lea	 ecx, DWORD PTR [esi+7796]
  00df3	d9 1c 24	 fstp	 DWORD PTR [esp]
  00df6	e8 00 00 00 00	 call	 ??4?$CEncrypt@M@@QAEMM@Z ; CEncrypt<float>::operator=
  00dfb	dd d8		 fstp	 ST(0)
  00dfd	6a 05		 push	 5

; 136  : 	m_fUpLimitHeight       = rkLoader.LoadFloat_e( "weapon_up_limit_height", 30.0f );

  00dff	c7 85 e4 fd ff
	ff 9a 89 8a 9a	 mov	 DWORD PTR __k$618698[ebp], -1702196838 ; 9a8a899aH
  00e09	c7 85 e8 fd ff
	ff 82 82 b4 9f	 mov	 DWORD PTR __k$618698[ebp+4], -1615560062 ; 9fb48282H
  00e13	c7 85 ec fd ff
	ff 9d b3 87 83	 mov	 DWORD PTR __k$618698[ebp+8], -2088258659 ; 8387b39dH
  00e1d	c7 85 f0 fd ff
	ff 80 85 9f b5	 mov	 DWORD PTR __k$618698[ebp+12], -1247836800 ; b59f8580H
  00e27	c7 85 f4 fd ff
	ff 85 89 82 8d	 mov	 DWORD PTR __k$618698[ebp+16], -1920824955 ; 8d828985H
  00e31	66 c7 85 f8 fd
	ff ff 85 98	 mov	 WORD PTR __k$618698[ebp+20], 39045 ; 00009885H
  00e3a	8d 85 e4 fd ff
	ff		 lea	 eax, DWORD PTR __k$618698[ebp]
  00e40	88 9d fa fd ff
	ff		 mov	 BYTE PTR __k$618698[ebp+22], bl
  00e46	59		 pop	 ecx
$LL2788@LoadProper:
  00e47	81 30 ed ec eb
	ea		 xor	 DWORD PTR [eax], -353637139 ; eaebecedH
  00e4d	83 c0 04	 add	 eax, 4
  00e50	49		 dec	 ecx
  00e51	75 f4		 jne	 SHORT $LL2788@LoadProper
  00e53	6a 14		 push	 20			; 00000014H
  00e55	58		 pop	 eax
$LL2785@LoadProper:
  00e56	8b c8		 mov	 ecx, eax
  00e58	81 e1 03 00 00
	80		 and	 ecx, -2147483645	; 80000003H
  00e5e	79 05		 jns	 SHORT $LN3244@LoadProper
  00e60	49		 dec	 ecx
  00e61	83 c9 fc	 or	 ecx, -4			; fffffffcH
  00e64	41		 inc	 ecx
$LN3244@LoadProper:
  00e65	b2 ed		 mov	 dl, -19			; ffffffedH
  00e67	2a d1		 sub	 dl, cl
  00e69	30 94 05 e4 fd
	ff ff		 xor	 BYTE PTR __k$618698[ebp+eax], dl
  00e70	40		 inc	 eax
  00e71	83 f8 16	 cmp	 eax, 22			; 00000016H
  00e74	7c e0		 jl	 SHORT $LL2785@LoadProper
  00e76	f3 0f 10 05 00
	00 00 00	 movss	 xmm0, DWORD PTR __real@41f00000
  00e7e	51		 push	 ecx
  00e7f	8d 85 e4 fd ff
	ff		 lea	 eax, DWORD PTR __k$618698[ebp]
  00e85	f3 0f 11 04 24	 movss	 DWORD PTR [esp], xmm0
  00e8a	50		 push	 eax
  00e8b	8b cf		 mov	 ecx, edi
  00e8d	ff 15 00 00 00
	00		 call	 DWORD PTR __imp_?LoadFloat@ioINILoader@@QAEMPBDM@Z
  00e93	51		 push	 ecx
  00e94	8d 8e a4 1e 00
	00		 lea	 ecx, DWORD PTR [esi+7844]
  00e9a	d9 1c 24	 fstp	 DWORD PTR [esp]
  00e9d	e8 00 00 00 00	 call	 ??4?$CEncrypt@M@@QAEMM@Z ; CEncrypt<float>::operator=
  00ea2	dd d8		 fstp	 ST(0)
  00ea4	6a 05		 push	 5

; 137  : 	m_fUpLimitRange        = rkLoader.LoadFloat_e( "weapon_up_limit_range", 0.0f );

  00ea6	c7 85 38 fe ff
	ff 9a 89 8a 9a	 mov	 DWORD PTR __k$618836[ebp], -1702196838 ; 9a8a899aH
  00eb0	c7 85 3c fe ff
	ff 82 82 b4 9f	 mov	 DWORD PTR __k$618836[ebp+4], -1615560062 ; 9fb48282H
  00eba	c7 85 40 fe ff
	ff 9d b3 87 83	 mov	 DWORD PTR __k$618836[ebp+8], -2088258659 ; 8387b39dH
  00ec4	c7 85 44 fe ff
	ff 80 85 9f b5	 mov	 DWORD PTR __k$618836[ebp+12], -1247836800 ; b59f8580H
  00ece	c7 85 48 fe ff
	ff 9f 8d 85 8d	 mov	 DWORD PTR __k$618836[ebp+16], -1920627297 ; 8d858d9fH
  00ed8	8d 85 38 fe ff
	ff		 lea	 eax, DWORD PTR __k$618836[ebp]
  00ede	66 c7 85 4c fe
	ff ff 88 00	 mov	 WORD PTR __k$618836[ebp+20], 136 ; 00000088H
  00ee7	59		 pop	 ecx
$LL2894@LoadProper:
  00ee8	81 30 ed ec eb
	ea		 xor	 DWORD PTR [eax], -353637139 ; eaebecedH
  00eee	83 c0 04	 add	 eax, 4
  00ef1	49		 dec	 ecx
  00ef2	75 f4		 jne	 SHORT $LL2894@LoadProper
  00ef4	0f 57 c0	 xorps	 xmm0, xmm0
  00ef7	80 b5 4c fe ff
	ff ed		 xor	 BYTE PTR __k$618836[ebp+20], -19 ; ffffffedH
  00efe	51		 push	 ecx
  00eff	8d 85 38 fe ff
	ff		 lea	 eax, DWORD PTR __k$618836[ebp]
  00f05	f3 0f 11 04 24	 movss	 DWORD PTR [esp], xmm0
  00f0a	50		 push	 eax
  00f0b	8b cf		 mov	 ecx, edi
  00f0d	ff 15 00 00 00
	00		 call	 DWORD PTR __imp_?LoadFloat@ioINILoader@@QAEMPBDM@Z
  00f13	51		 push	 ecx
  00f14	8d 8e d4 1e 00
	00		 lea	 ecx, DWORD PTR [esi+7892]
  00f1a	d9 1c 24	 fstp	 DWORD PTR [esp]
  00f1d	e8 00 00 00 00	 call	 ??4?$CEncrypt@M@@QAEMM@Z ; CEncrypt<float>::operator=
  00f22	dd d8		 fstp	 ST(0)
  00f24	6a 03		 push	 3

; 138  : 
; 139  : 	m_dwRotateTime = (DWORD)rkLoader.LoadInt_e( "rotate_speed", 0 );

  00f26	c7 45 a4 9f 83
	9f 8b		 mov	 DWORD PTR __k$618961[ebp], -1952480353 ; 8b9f839fH
  00f2d	c7 45 a8 99 89
	b4 99		 mov	 DWORD PTR __k$618961[ebp+4], -1716221543 ; 99b48999H
  00f34	c7 45 ac 9d 89
	8e 8e		 mov	 DWORD PTR __k$618961[ebp+8], -1903261283 ; 8e8e899dH
  00f3b	8d 45 a4	 lea	 eax, DWORD PTR __k$618961[ebp]
  00f3e	88 5d b0	 mov	 BYTE PTR __k$618961[ebp+12], bl
  00f41	59		 pop	 ecx
$LL3000@LoadProper:
  00f42	81 30 ed ec eb
	ea		 xor	 DWORD PTR [eax], -353637139 ; eaebecedH
  00f48	83 c0 04	 add	 eax, 4
  00f4b	49		 dec	 ecx
  00f4c	75 f4		 jne	 SHORT $LL3000@LoadProper
  00f4e	53		 push	 ebx
  00f4f	8d 45 a4	 lea	 eax, DWORD PTR __k$618961[ebp]
  00f52	50		 push	 eax
  00f53	8b cf		 mov	 ecx, edi
  00f55	ff 15 00 00 00
	00		 call	 DWORD PTR __imp_?LoadInt@ioINILoader@@QAEHPBDH@Z
  00f5b	50		 push	 eax
  00f5c	8d 8e 18 1f 00
	00		 lea	 ecx, DWORD PTR [esi+7960]
  00f62	e8 00 00 00 00	 call	 ??4?$CEncrypt@K@@QAEKK@Z ; CEncrypt<unsigned long>::operator=
  00f67	6a 03		 push	 3

; 140  : 
; 141  : 	m_dwProtectTime = (DWORD)rkLoader.LoadInt_e( "protect_time", 0 );

  00f69	c7 45 90 9d 9e
	84 9e		 mov	 DWORD PTR __k$619073[ebp], -1635475811 ; 9e849e9dH
  00f70	c7 45 94 88 8f
	9f b5		 mov	 DWORD PTR __k$619073[ebp+4], -1247834232 ; b59f8f88H
  00f77	c7 45 98 99 85
	86 8f		 mov	 DWORD PTR __k$619073[ebp+8], -1887009383 ; 8f868599H
  00f7e	8d 45 90	 lea	 eax, DWORD PTR __k$619073[ebp]
  00f81	88 5d 9c	 mov	 BYTE PTR __k$619073[ebp+12], bl
  00f84	59		 pop	 ecx
$LL3106@LoadProper:
  00f85	81 30 ed ec eb
	ea		 xor	 DWORD PTR [eax], -353637139 ; eaebecedH
  00f8b	83 c0 04	 add	 eax, 4
  00f8e	49		 dec	 ecx
  00f8f	75 f4		 jne	 SHORT $LL3106@LoadProper
  00f91	53		 push	 ebx
  00f92	8d 45 90	 lea	 eax, DWORD PTR __k$619073[ebp]
  00f95	50		 push	 eax
  00f96	8b cf		 mov	 ecx, edi
  00f98	ff 15 00 00 00
	00		 call	 DWORD PTR __imp_?LoadInt@ioINILoader@@QAEHPBDH@Z
  00f9e	50		 push	 eax
  00f9f	8d 8e 50 1f 00
	00		 lea	 ecx, DWORD PTR [esi+8016]
  00fa5	e8 00 00 00 00	 call	 ??4?$CEncrypt@K@@QAEKK@Z ; CEncrypt<unsigned long>::operator=

; 142  : }

  00faa	8b 4d fc	 mov	 ecx, DWORD PTR __$ArrayPad$[ebp]
  00fad	5f		 pop	 edi
  00fae	5e		 pop	 esi
  00faf	33 cd		 xor	 ecx, ebp
  00fb1	5b		 pop	 ebx
  00fb2	e8 00 00 00 00	 call	 @__security_check_cookie@4
  00fb7	c9		 leave
  00fb8	c2 04 00	 ret	 4
?LoadProperty@ioObjectChargeShotItem@@UAEXAAVioINILoader@@@Z ENDP ; ioObjectChargeShotItem::LoadProperty
_TEXT	ENDS
EXTRN	__imp_?GetAnimationFullTime@ioEntityGroup@@QAEMH@Z:PROC
EXTRN	__imp_?SetActionAni@ioEntityGroup@@QAE_NHMMMMMM_N0@Z:PROC
EXTRN	__imp_?GetAnimationIdx@ioEntityGroup@@QAEHABVioHashString@@@Z:PROC
EXTRN	__imp_?ClearAllActionAni@ioEntityGroup@@QAEXM_N@Z:PROC
EXTRN	__imp_?ClearAllLoopAni@ioEntityGroup@@QAEXM_N@Z:PROC
EXTRN	?SetAttackMoveEnable@ioBaseChar@@QAEX_N@Z:PROC	; ioBaseChar::SetAttackMoveEnable
EXTRN	__ftol2:PROC
; Function compile flags: /Ogsp
;	COMDAT ?SetNormalAttack@ioObjectChargeShotItem@@UAEXPAVioBaseChar@@H@Z
_TEXT	SEGMENT
tv239 = -12						; size = 4
_value$619364 = -12					; size = 4
tv231 = -8						; size = 4
tv229 = -8						; size = 4
tv227 = -8						; size = 4
tv225 = -8						; size = 4
_value$619347 = -8					; size = 4
tv234 = -4						; size = 4
$T619344 = -4						; size = 4
tv251 = 8						; size = 4
tv245 = 8						; size = 4
tv194 = 8						; size = 4
_iAniID$ = 8						; size = 4
_pOwner$ = 8						; size = 4
_iCurCombo$ = 12					; size = 4
?SetNormalAttack@ioObjectChargeShotItem@@UAEXPAVioBaseChar@@H@Z PROC ; ioObjectChargeShotItem::SetNormalAttack, COMDAT
; _this$ = ecx

; 155  : {

  00000	55		 push	 ebp
  00001	8b ec		 mov	 ebp, esp
  00003	83 ec 0c	 sub	 esp, 12			; 0000000cH
  00006	53		 push	 ebx
  00007	56		 push	 esi
  00008	8b f1		 mov	 esi, ecx

; 156  : 	ClearCancelInfo();

  0000a	8b 06		 mov	 eax, DWORD PTR [esi]
  0000c	57		 push	 edi
  0000d	ff 90 3c 02 00
	00		 call	 DWORD PTR [eax+572]

; 157  : 	
; 158  : 	pOwner->SetState( CS_ATTACK );

  00013	8b 7d 08	 mov	 edi, DWORD PTR _pOwner$[ebp]
  00016	33 db		 xor	 ebx, ebx
  00018	43		 inc	 ebx
  00019	53		 push	 ebx
  0001a	6a 05		 push	 5
  0001c	8b cf		 mov	 ecx, edi
  0001e	e8 00 00 00 00	 call	 ?SetState@ioBaseChar@@QAEXH_N@Z ; ioBaseChar::SetState

; 159  : 	pOwner->SetAttackMoveEnable( false );

  00023	6a 00		 push	 0
  00025	8b cf		 mov	 ecx, edi
  00027	e8 00 00 00 00	 call	 ?SetAttackMoveEnable@ioBaseChar@@QAEX_N@Z ; ioBaseChar::SetAttackMoveEnable

; 160  : 	pOwner->SetChargingState( true );

  0002c	88 9f 54 20 00
	00		 mov	 BYTE PTR [edi+8276], bl

; 161  : 
; 162  : 	m_AttackState = AS_PREDELAY;

  00032	89 9e 34 1b 00
	00		 mov	 DWORD PTR [esi+6964], ebx

; 163  : 
; 164  : 	ioEntityGroup *pGrp = pOwner->GetGroup();

  00038	8b 7f 04	 mov	 edi, DWORD PTR [edi+4]

; 165  : 	pGrp->ClearAllLoopAni( FLOAT100, true );

  0003b	b8 64 00 00 00	 mov	 eax, 100		; 00000064H
  00040	89 45 08	 mov	 DWORD PTR tv251[ebp], eax
  00043	db 45 08	 fild	 DWORD PTR tv251[ebp]
  00046	53		 push	 ebx
  00047	85 c0		 test	 eax, eax
  00049	79 06		 jns	 SHORT $LN23@SetNormalA
  0004b	d8 05 00 00 00
	00		 fadd	 DWORD PTR __real@4f800000
$LN23@SetNormalA:
  00051	51		 push	 ecx
  00052	8b cf		 mov	 ecx, edi
  00054	d9 1c 24	 fstp	 DWORD PTR [esp]
  00057	ff 15 00 00 00
	00		 call	 DWORD PTR __imp_?ClearAllLoopAni@ioEntityGroup@@QAEXM_N@Z

; 166  : 	pGrp->ClearAllActionAni( FLOAT100, true );

  0005d	b8 64 00 00 00	 mov	 eax, 100		; 00000064H
  00062	89 45 08	 mov	 DWORD PTR tv245[ebp], eax
  00065	db 45 08	 fild	 DWORD PTR tv245[ebp]
  00068	53		 push	 ebx
  00069	85 c0		 test	 eax, eax
  0006b	79 06		 jns	 SHORT $LN24@SetNormalA
  0006d	d8 05 00 00 00
	00		 fadd	 DWORD PTR __real@4f800000
$LN24@SetNormalA:
  00073	51		 push	 ecx
  00074	8b cf		 mov	 ecx, edi
  00076	d9 1c 24	 fstp	 DWORD PTR [esp]
  00079	ff 15 00 00 00
	00		 call	 DWORD PTR __imp_?ClearAllActionAni@ioEntityGroup@@QAEXM_N@Z

; 167  : 
; 168  : 	int iAniID = pGrp->GetAnimationIdx( m_PreDelayAnimation );

  0007f	8d 86 68 1b 00
	00		 lea	 eax, DWORD PTR [esi+7016]
  00085	50		 push	 eax
  00086	8b cf		 mov	 ecx, edi
  00088	ff 15 00 00 00
	00		 call	 DWORD PTR __imp_?GetAnimationIdx@ioEntityGroup@@QAEHABVioHashString@@@Z
  0008e	89 45 08	 mov	 DWORD PTR _iAniID$[ebp], eax

; 169  : 	pGrp->SetActionAni( iAniID, FLOAT100, FLOAT100, FLOAT1, FLOAT1/m_fPreDelayAniRate );

  00091	b8 01 00 00 00	 mov	 eax, 1
  00096	89 45 fc	 mov	 DWORD PTR $T619344[ebp], eax
  00099	8d 45 f8	 lea	 eax, DWORD PTR _value$619347[ebp]
  0009c	8d 8e 78 1b 00
	00		 lea	 ecx, DWORD PTR [esi+7032]
  000a2	50		 push	 eax
  000a3	89 4d f4	 mov	 DWORD PTR tv239[ebp], ecx
  000a6	e8 00 00 00 00	 call	 ?DecryptValueToPool@?$CEncrypt@M@@QAEXPAM@Z ; CEncrypt<float>::DecryptValueToPool
  000ab	b8 01 00 00 00	 mov	 eax, 1
  000b0	8b c8		 mov	 ecx, eax
  000b2	b8 64 00 00 00	 mov	 eax, 100		; 00000064H
  000b7	8b d0		 mov	 edx, eax
  000b9	b8 64 00 00 00	 mov	 eax, 100		; 00000064H
  000be	db 45 fc	 fild	 DWORD PTR $T619344[ebp]
  000c1	0f 57 c0	 xorps	 xmm0, xmm0
  000c4	53		 push	 ebx
  000c5	8b 5d fc	 mov	 ebx, DWORD PTR $T619344[ebp]
  000c8	6a 00		 push	 0
  000ca	83 ec 18	 sub	 esp, 24			; 00000018H
  000cd	f3 0f 11 44 24
	14		 movss	 DWORD PTR [esp+20], xmm0
  000d3	f3 0f 11 44 24
	10		 movss	 DWORD PTR [esp+16], xmm0
  000d9	85 db		 test	 ebx, ebx
  000db	79 06		 jns	 SHORT $LN25@SetNormalA
  000dd	d8 05 00 00 00
	00		 fadd	 DWORD PTR __real@4f800000
$LN25@SetNormalA:
  000e3	d8 75 f8	 fdiv	 DWORD PTR _value$619347[ebp]
  000e6	d9 5d f8	 fstp	 DWORD PTR tv231[ebp]
  000e9	d9 45 f8	 fld	 DWORD PTR tv231[ebp]
  000ec	d9 5c 24 0c	 fstp	 DWORD PTR [esp+12]
  000f0	89 4d f8	 mov	 DWORD PTR tv229[ebp], ecx
  000f3	db 45 f8	 fild	 DWORD PTR tv229[ebp]
  000f6	85 c9		 test	 ecx, ecx
  000f8	79 06		 jns	 SHORT $LN26@SetNormalA
  000fa	d8 05 00 00 00
	00		 fadd	 DWORD PTR __real@4f800000
$LN26@SetNormalA:
  00100	d9 5c 24 08	 fstp	 DWORD PTR [esp+8]
  00104	89 55 f8	 mov	 DWORD PTR tv227[ebp], edx
  00107	db 45 f8	 fild	 DWORD PTR tv227[ebp]
  0010a	85 d2		 test	 edx, edx
  0010c	79 06		 jns	 SHORT $LN27@SetNormalA
  0010e	d8 05 00 00 00
	00		 fadd	 DWORD PTR __real@4f800000
$LN27@SetNormalA:
  00114	d9 5c 24 04	 fstp	 DWORD PTR [esp+4]
  00118	89 45 f8	 mov	 DWORD PTR tv225[ebp], eax
  0011b	db 45 f8	 fild	 DWORD PTR tv225[ebp]
  0011e	85 c0		 test	 eax, eax
  00120	79 06		 jns	 SHORT $LN28@SetNormalA
  00122	d8 05 00 00 00
	00		 fadd	 DWORD PTR __real@4f800000
$LN28@SetNormalA:
  00128	d9 1c 24	 fstp	 DWORD PTR [esp]
  0012b	ff 75 08	 push	 DWORD PTR _iAniID$[ebp]
  0012e	8b cf		 mov	 ecx, edi
  00130	ff 15 00 00 00
	00		 call	 DWORD PTR __imp_?SetActionAni@ioEntityGroup@@QAE_NHMMMMMM_N0@Z

; 170  : 
; 171  : 	m_dwMotionEndTime = FRAMEGETTIME();

  00136	ff 15 00 00 00
	00		 call	 DWORD PTR __imp_?GetSingleton@ioFrameTimer@@SAAAV1@XZ
  0013c	8b c8		 mov	 ecx, eax
  0013e	ff 15 00 00 00
	00		 call	 DWORD PTR __imp_?GetLoopSec@ioFrameTimer@@QBEKXZ

; 172  : 	m_dwMotionEndTime += pGrp->GetAnimationFullTime( iAniID ) * m_fPreDelayAniRate;

  00144	8b 4d f4	 mov	 ecx, DWORD PTR tv239[ebp]
  00147	89 86 bc 1c 00
	00		 mov	 DWORD PTR [esi+7356], eax
  0014d	8d 45 f4	 lea	 eax, DWORD PTR _value$619364[ebp]
  00150	50		 push	 eax
  00151	e8 00 00 00 00	 call	 ?DecryptValueToPool@?$CEncrypt@M@@QAEXPAM@Z ; CEncrypt<float>::DecryptValueToPool
  00156	ff 75 08	 push	 DWORD PTR _iAniID$[ebp]
  00159	8b cf		 mov	 ecx, edi
  0015b	ff 15 00 00 00
	00		 call	 DWORD PTR __imp_?GetAnimationFullTime@ioEntityGroup@@QAEMH@Z
  00161	d8 4d f4	 fmul	 DWORD PTR _value$619364[ebp]
  00164	8b 86 bc 1c 00
	00		 mov	 eax, DWORD PTR [esi+7356]
  0016a	db 86 bc 1c 00
	00		 fild	 DWORD PTR [esi+7356]
  00170	85 c0		 test	 eax, eax
  00172	79 06		 jns	 SHORT $LN29@SetNormalA
  00174	dc 05 00 00 00
	00		 fadd	 QWORD PTR __real@41f0000000000000
$LN29@SetNormalA:
  0017a	de c1		 faddp	 ST(1), ST(0)
  0017c	e8 00 00 00 00	 call	 __ftol2
  00181	5f		 pop	 edi
  00182	89 86 bc 1c 00
	00		 mov	 DWORD PTR [esi+7356], eax
  00188	5e		 pop	 esi
  00189	5b		 pop	 ebx

; 173  : }

  0018a	c9		 leave
  0018b	c2 08 00	 ret	 8
?SetNormalAttack@ioObjectChargeShotItem@@UAEXPAVioBaseChar@@H@Z ENDP ; ioObjectChargeShotItem::SetNormalAttack
_TEXT	ENDS
PUBLIC	__real@00000000
EXTRN	?SetGravityRate@ioFloatThrowWeapon@@QAEXM@Z:PROC ; ioFloatThrowWeapon::SetGravityRate
EXTRN	?SetExtraInfoToWeapon@ioAttackableItem@@UAEXPAVioWeapon@@_N@Z:PROC ; ioAttackableItem::SetExtraInfoToWeapon
;	COMDAT __real@00000000
; File d:\lost saga for developer\youtube\tutorial\source\src\lsclient\encryptvalue.h
CONST	SEGMENT
__real@00000000 DD 000000000r			; 0
; Function compile flags: /Ogsp
; File d:\lost saga for developer\youtube\tutorial\source\src\lsclient\ioobjectchargeshotitem.cpp
CONST	ENDS
;	COMDAT ?SetExtraInfoToWeapon@ioObjectChargeShotItem@@UAEXPAVioWeapon@@_N@Z
_TEXT	SEGMENT
tv688 = -44						; size = 4
tv681 = -44						; size = 4
tv665 = -44						; size = 4
tv655 = -44						; size = 4
tv639 = -44						; size = 4
tv628 = -44						; size = 4
tv611 = -44						; size = 4
tv601 = -44						; size = 4
tv584 = -44						; size = 4
tv574 = -44						; size = 4
tv557 = -44						; size = 4
_value$619512 = -44					; size = 4
_value$619508 = -40					; size = 4
_value$619504 = -36					; size = 4
_value$619500 = -32					; size = 4
tv569 = -28						; size = 4
tv553 = -28						; size = 4
_value$619492 = -28					; size = 4
$T619481 = -28						; size = 4
_value$619496 = -28					; size = 4
_fCurLiveTimeRate$ = -24				; size = 4
tv677 = -20						; size = 4
tv661 = -20						; size = 4
tv651 = -20						; size = 4
tv634 = -20						; size = 4
tv624 = -20						; size = 4
tv607 = -20						; size = 4
tv597 = -20						; size = 4
tv580 = -20						; size = 4
_value$619484 = -20					; size = 4
$T619489 = -20						; size = 4
_value$619476 = -20					; size = 4
_value$619468 = -20					; size = 4
_value$619460 = -20					; size = 4
_value$619452 = -20					; size = 4
_value$619444 = -20					; size = 4
_value$619436 = -20					; size = 4
_value$619428 = -20					; size = 4
_value$619420 = -20					; size = 4
_value$619410 = -20					; size = 4
_fCurMaxLiveTime$607783 = -20				; size = 4
$T619473 = -16						; size = 4
$T619465 = -16						; size = 4
$T619457 = -16						; size = 4
$T619449 = -16						; size = 4
$T619441 = -16						; size = 4
$T619433 = -16						; size = 4
$T619425 = -16						; size = 4
$T619417 = -16						; size = 4
_fCurMaxWoundedTime$607778 = -16			; size = 4
_fCurMaxBlow$607773 = -12				; size = 4
_fCurMaxForce$607768 = -8				; size = 4
_fCurMaxDamage$607763 = -4				; size = 4
tv692 = 8						; size = 4
_fCurBlowRate$ = 8					; size = 4
_pWeapon$ = 8						; size = 4
_bJumpAttack$ = 12					; size = 1
_value$619516 = 12					; size = 4
?SetExtraInfoToWeapon@ioObjectChargeShotItem@@UAEXPAVioWeapon@@_N@Z PROC ; ioObjectChargeShotItem::SetExtraInfoToWeapon, COMDAT
; _this$ = ecx

; 257  : {

  00000	55		 push	 ebp
  00001	8b ec		 mov	 ebp, esp
  00003	83 ec 2c	 sub	 esp, 44			; 0000002cH
  00006	56		 push	 esi
  00007	57		 push	 edi

; 258  : 	ioAttackableItem::SetExtraInfoToWeapon( pWeapon, bJumpAttack );

  00008	ff 75 0c	 push	 DWORD PTR _bJumpAttack$[ebp]
  0000b	8b 7d 08	 mov	 edi, DWORD PTR _pWeapon$[ebp]
  0000e	57		 push	 edi
  0000f	8b f1		 mov	 esi, ecx
  00011	e8 00 00 00 00	 call	 ?SetExtraInfoToWeapon@ioAttackableItem@@UAEXPAVioWeapon@@_N@Z ; ioAttackableItem::SetExtraInfoToWeapon

; 259  : 
; 260  : 	float fCurDamageRate, fCurForceRate, fCurBlowRate;
; 261  : 	float fCurWoundedTimeRate, fCurLiveTimeRate;
; 262  : 
; 263  : 	fCurDamageRate = fCurForceRate = fCurBlowRate = FLOAT1;

  00016	b8 01 00 00 00	 mov	 eax, 1
  0001b	89 45 08	 mov	 DWORD PTR tv692[ebp], eax
  0001e	db 45 08	 fild	 DWORD PTR tv692[ebp]
  00021	85 c0		 test	 eax, eax
  00023	79 06		 jns	 SHORT $LN76@SetExtraIn
  00025	d8 05 00 00 00
	00		 fadd	 DWORD PTR __real@4f800000
$LN76@SetExtraIn:
  0002b	d9 5d 08	 fstp	 DWORD PTR _fCurBlowRate$[ebp]

; 264  : 	fCurWoundedTimeRate = fCurLiveTimeRate = FLOAT1;

  0002e	b8 01 00 00 00	 mov	 eax, 1
  00033	89 45 d4	 mov	 DWORD PTR tv688[ebp], eax
  00036	db 45 d4	 fild	 DWORD PTR tv688[ebp]
  00039	85 c0		 test	 eax, eax
  0003b	79 06		 jns	 SHORT $LN77@SetExtraIn
  0003d	d8 05 00 00 00
	00		 fadd	 DWORD PTR __real@4f800000
$LN77@SetExtraIn:

; 265  : 
; 266  : 	if( m_fCurChargeRate > 0.0f && !bJumpAttack )

  00043	8d 45 ec	 lea	 eax, DWORD PTR _value$619410[ebp]
  00046	d9 5d e8	 fstp	 DWORD PTR _fCurLiveTimeRate$[ebp]
  00049	8d 8e 8c 0f 00
	00		 lea	 ecx, DWORD PTR [esi+3980]
  0004f	50		 push	 eax
  00050	e8 00 00 00 00	 call	 ?DecryptValueToPool@?$CEncrypt@M@@QAEXPAM@Z ; CEncrypt<float>::DecryptValueToPool
  00055	f3 0f 10 45 ec	 movss	 xmm0, DWORD PTR _value$619410[ebp]
  0005a	0f 2f 05 00 00
	00 00		 comiss	 xmm0, DWORD PTR __real@00000000
  00061	0f 86 a9 03 00
	00		 jbe	 $LN2@SetExtraIn
  00067	80 7d 0c 00	 cmp	 BYTE PTR _bJumpAttack$[ebp], 0
  0006b	0f 85 9f 03 00
	00		 jne	 $LN2@SetExtraIn

; 267  : 	{
; 268  : 		float fCurMaxDamage = max( 0.0f, (m_fMaxDamageRate - FLOAT1) );

  00071	53		 push	 ebx
  00072	b8 01 00 00 00	 mov	 eax, 1
  00077	89 45 f0	 mov	 DWORD PTR $T619417[ebp], eax
  0007a	8d 45 ec	 lea	 eax, DWORD PTR _value$619420[ebp]
  0007d	50		 push	 eax
  0007e	8d 8e ec 0f 00
	00		 lea	 ecx, DWORD PTR [esi+4076]
  00084	e8 00 00 00 00	 call	 ?DecryptValueToPool@?$CEncrypt@M@@QAEXPAM@Z ; CEncrypt<float>::DecryptValueToPool
  00089	d9 45 ec	 fld	 DWORD PTR _value$619420[ebp]
  0008c	8b 45 f0	 mov	 eax, DWORD PTR $T619417[ebp]
  0008f	db 45 f0	 fild	 DWORD PTR $T619417[ebp]
  00092	85 c0		 test	 eax, eax
  00094	79 06		 jns	 SHORT $LN78@SetExtraIn
  00096	d8 05 00 00 00
	00		 fadd	 DWORD PTR __real@4f800000
$LN78@SetExtraIn:
  0009c	de e9		 fsubp	 ST(1), ST(0)
  0009e	d9 5d ec	 fstp	 DWORD PTR tv677[ebp]
  000a1	d9 45 ec	 fld	 DWORD PTR tv677[ebp]
  000a4	d9 ee		 fldz
  000a6	df f1		 fcomip	 ST(1)
  000a8	dd d8		 fstp	 ST(0)
  000aa	76 0a		 jbe	 SHORT $LN5@SetExtraIn
  000ac	0f 57 c0	 xorps	 xmm0, xmm0
  000af	f3 0f 11 45 fc	 movss	 DWORD PTR _fCurMaxDamage$607763[ebp], xmm0
  000b4	eb 35		 jmp	 SHORT $LN6@SetExtraIn
$LN5@SetExtraIn:
  000b6	b8 01 00 00 00	 mov	 eax, 1
  000bb	89 45 f0	 mov	 DWORD PTR $T619425[ebp], eax
  000be	8d 45 ec	 lea	 eax, DWORD PTR _value$619428[ebp]
  000c1	50		 push	 eax
  000c2	8d 8e ec 0f 00
	00		 lea	 ecx, DWORD PTR [esi+4076]
  000c8	e8 00 00 00 00	 call	 ?DecryptValueToPool@?$CEncrypt@M@@QAEXPAM@Z ; CEncrypt<float>::DecryptValueToPool
  000cd	d9 45 ec	 fld	 DWORD PTR _value$619428[ebp]
  000d0	8b 45 f0	 mov	 eax, DWORD PTR $T619425[ebp]
  000d3	db 45 f0	 fild	 DWORD PTR $T619425[ebp]
  000d6	85 c0		 test	 eax, eax
  000d8	79 06		 jns	 SHORT $LN79@SetExtraIn
  000da	d8 05 00 00 00
	00		 fadd	 DWORD PTR __real@4f800000
$LN79@SetExtraIn:
  000e0	de e9		 fsubp	 ST(1), ST(0)
  000e2	d9 5d ec	 fstp	 DWORD PTR tv661[ebp]
  000e5	d9 45 ec	 fld	 DWORD PTR tv661[ebp]
  000e8	d9 5d fc	 fstp	 DWORD PTR _fCurMaxDamage$607763[ebp]
$LN6@SetExtraIn:

; 269  : 		float fCurMaxForce = max( 0.0f, (m_fMaxForceRate - FLOAT1) );

  000eb	b8 01 00 00 00	 mov	 eax, 1
  000f0	89 45 f0	 mov	 DWORD PTR $T619433[ebp], eax
  000f3	8d 45 ec	 lea	 eax, DWORD PTR _value$619436[ebp]
  000f6	50		 push	 eax
  000f7	8d 8e 1c 10 00
	00		 lea	 ecx, DWORD PTR [esi+4124]
  000fd	e8 00 00 00 00	 call	 ?DecryptValueToPool@?$CEncrypt@M@@QAEXPAM@Z ; CEncrypt<float>::DecryptValueToPool
  00102	d9 45 ec	 fld	 DWORD PTR _value$619436[ebp]
  00105	8b 45 f0	 mov	 eax, DWORD PTR $T619433[ebp]
  00108	db 45 f0	 fild	 DWORD PTR $T619433[ebp]
  0010b	85 c0		 test	 eax, eax
  0010d	79 06		 jns	 SHORT $LN80@SetExtraIn
  0010f	d8 05 00 00 00
	00		 fadd	 DWORD PTR __real@4f800000
$LN80@SetExtraIn:
  00115	de e9		 fsubp	 ST(1), ST(0)
  00117	d9 5d ec	 fstp	 DWORD PTR tv651[ebp]
  0011a	d9 45 ec	 fld	 DWORD PTR tv651[ebp]
  0011d	d9 ee		 fldz
  0011f	df f1		 fcomip	 ST(1)
  00121	dd d8		 fstp	 ST(0)
  00123	76 0a		 jbe	 SHORT $LN7@SetExtraIn
  00125	0f 57 c0	 xorps	 xmm0, xmm0
  00128	f3 0f 11 45 f8	 movss	 DWORD PTR _fCurMaxForce$607768[ebp], xmm0
  0012d	eb 35		 jmp	 SHORT $LN8@SetExtraIn
$LN7@SetExtraIn:
  0012f	b8 01 00 00 00	 mov	 eax, 1
  00134	89 45 f0	 mov	 DWORD PTR $T619441[ebp], eax
  00137	8d 45 ec	 lea	 eax, DWORD PTR _value$619444[ebp]
  0013a	50		 push	 eax
  0013b	8d 8e 1c 10 00
	00		 lea	 ecx, DWORD PTR [esi+4124]
  00141	e8 00 00 00 00	 call	 ?DecryptValueToPool@?$CEncrypt@M@@QAEXPAM@Z ; CEncrypt<float>::DecryptValueToPool
  00146	d9 45 ec	 fld	 DWORD PTR _value$619444[ebp]
  00149	8b 45 f0	 mov	 eax, DWORD PTR $T619441[ebp]
  0014c	db 45 f0	 fild	 DWORD PTR $T619441[ebp]
  0014f	85 c0		 test	 eax, eax
  00151	79 06		 jns	 SHORT $LN81@SetExtraIn
  00153	d8 05 00 00 00
	00		 fadd	 DWORD PTR __real@4f800000
$LN81@SetExtraIn:
  00159	de e9		 fsubp	 ST(1), ST(0)
  0015b	d9 5d ec	 fstp	 DWORD PTR tv634[ebp]
  0015e	d9 45 ec	 fld	 DWORD PTR tv634[ebp]
  00161	d9 5d f8	 fstp	 DWORD PTR _fCurMaxForce$607768[ebp]
$LN8@SetExtraIn:

; 270  : 		float fCurMaxBlow = max( 0.0f, (m_fMaxBlowRate - FLOAT1) );

  00164	b8 01 00 00 00	 mov	 eax, 1
  00169	89 45 f0	 mov	 DWORD PTR $T619449[ebp], eax
  0016c	8d 45 ec	 lea	 eax, DWORD PTR _value$619452[ebp]
  0016f	50		 push	 eax
  00170	8d 8e 4c 10 00
	00		 lea	 ecx, DWORD PTR [esi+4172]
  00176	e8 00 00 00 00	 call	 ?DecryptValueToPool@?$CEncrypt@M@@QAEXPAM@Z ; CEncrypt<float>::DecryptValueToPool
  0017b	d9 45 ec	 fld	 DWORD PTR _value$619452[ebp]
  0017e	8b 45 f0	 mov	 eax, DWORD PTR $T619449[ebp]
  00181	db 45 f0	 fild	 DWORD PTR $T619449[ebp]
  00184	85 c0		 test	 eax, eax
  00186	79 06		 jns	 SHORT $LN82@SetExtraIn
  00188	d8 05 00 00 00
	00		 fadd	 DWORD PTR __real@4f800000
$LN82@SetExtraIn:
  0018e	de e9		 fsubp	 ST(1), ST(0)
  00190	d9 5d ec	 fstp	 DWORD PTR tv624[ebp]
  00193	d9 45 ec	 fld	 DWORD PTR tv624[ebp]
  00196	d9 ee		 fldz
  00198	df f1		 fcomip	 ST(1)
  0019a	dd d8		 fstp	 ST(0)
  0019c	76 0a		 jbe	 SHORT $LN9@SetExtraIn
  0019e	0f 57 c0	 xorps	 xmm0, xmm0
  001a1	f3 0f 11 45 f4	 movss	 DWORD PTR _fCurMaxBlow$607773[ebp], xmm0
  001a6	eb 35		 jmp	 SHORT $LN10@SetExtraIn
$LN9@SetExtraIn:
  001a8	b8 01 00 00 00	 mov	 eax, 1
  001ad	89 45 f0	 mov	 DWORD PTR $T619457[ebp], eax
  001b0	8d 45 ec	 lea	 eax, DWORD PTR _value$619460[ebp]
  001b3	50		 push	 eax
  001b4	8d 8e 4c 10 00
	00		 lea	 ecx, DWORD PTR [esi+4172]
  001ba	e8 00 00 00 00	 call	 ?DecryptValueToPool@?$CEncrypt@M@@QAEXPAM@Z ; CEncrypt<float>::DecryptValueToPool
  001bf	d9 45 ec	 fld	 DWORD PTR _value$619460[ebp]
  001c2	8b 45 f0	 mov	 eax, DWORD PTR $T619457[ebp]
  001c5	db 45 f0	 fild	 DWORD PTR $T619457[ebp]
  001c8	85 c0		 test	 eax, eax
  001ca	79 06		 jns	 SHORT $LN83@SetExtraIn
  001cc	d8 05 00 00 00
	00		 fadd	 DWORD PTR __real@4f800000
$LN83@SetExtraIn:
  001d2	de e9		 fsubp	 ST(1), ST(0)
  001d4	d9 5d ec	 fstp	 DWORD PTR tv607[ebp]
  001d7	d9 45 ec	 fld	 DWORD PTR tv607[ebp]
  001da	d9 5d f4	 fstp	 DWORD PTR _fCurMaxBlow$607773[ebp]
$LN10@SetExtraIn:

; 271  : 
; 272  : 		float fCurMaxWoundedTime = max( 0.0f, (m_fMaxWoundedTimeRate - FLOAT1) );

  001dd	b8 01 00 00 00	 mov	 eax, 1
  001e2	89 45 f0	 mov	 DWORD PTR $T619465[ebp], eax
  001e5	8d 45 ec	 lea	 eax, DWORD PTR _value$619468[ebp]
  001e8	50		 push	 eax
  001e9	8d 8e 5c 12 00
	00		 lea	 ecx, DWORD PTR [esi+4700]
  001ef	e8 00 00 00 00	 call	 ?DecryptValueToPool@?$CEncrypt@M@@QAEXPAM@Z ; CEncrypt<float>::DecryptValueToPool
  001f4	d9 45 ec	 fld	 DWORD PTR _value$619468[ebp]
  001f7	8b 45 f0	 mov	 eax, DWORD PTR $T619465[ebp]
  001fa	db 45 f0	 fild	 DWORD PTR $T619465[ebp]
  001fd	85 c0		 test	 eax, eax
  001ff	79 06		 jns	 SHORT $LN84@SetExtraIn
  00201	d8 05 00 00 00
	00		 fadd	 DWORD PTR __real@4f800000
$LN84@SetExtraIn:
  00207	de e9		 fsubp	 ST(1), ST(0)
  00209	d9 5d ec	 fstp	 DWORD PTR tv597[ebp]
  0020c	d9 45 ec	 fld	 DWORD PTR tv597[ebp]
  0020f	d9 ee		 fldz
  00211	df f1		 fcomip	 ST(1)
  00213	dd d8		 fstp	 ST(0)
  00215	76 0a		 jbe	 SHORT $LN11@SetExtraIn
  00217	0f 57 c0	 xorps	 xmm0, xmm0
  0021a	f3 0f 11 45 f0	 movss	 DWORD PTR _fCurMaxWoundedTime$607778[ebp], xmm0
  0021f	eb 35		 jmp	 SHORT $LN12@SetExtraIn
$LN11@SetExtraIn:
  00221	b8 01 00 00 00	 mov	 eax, 1
  00226	89 45 f0	 mov	 DWORD PTR $T619473[ebp], eax
  00229	8d 45 ec	 lea	 eax, DWORD PTR _value$619476[ebp]
  0022c	50		 push	 eax
  0022d	8d 8e 5c 12 00
	00		 lea	 ecx, DWORD PTR [esi+4700]
  00233	e8 00 00 00 00	 call	 ?DecryptValueToPool@?$CEncrypt@M@@QAEXPAM@Z ; CEncrypt<float>::DecryptValueToPool
  00238	d9 45 ec	 fld	 DWORD PTR _value$619476[ebp]
  0023b	8b 45 f0	 mov	 eax, DWORD PTR $T619473[ebp]
  0023e	db 45 f0	 fild	 DWORD PTR $T619473[ebp]
  00241	85 c0		 test	 eax, eax
  00243	79 06		 jns	 SHORT $LN85@SetExtraIn
  00245	d8 05 00 00 00
	00		 fadd	 DWORD PTR __real@4f800000
$LN85@SetExtraIn:
  0024b	de e9		 fsubp	 ST(1), ST(0)
  0024d	d9 5d ec	 fstp	 DWORD PTR tv580[ebp]
  00250	d9 45 ec	 fld	 DWORD PTR tv580[ebp]
  00253	d9 5d f0	 fstp	 DWORD PTR _fCurMaxWoundedTime$607778[ebp]
$LN12@SetExtraIn:

; 273  : 		float fCurMaxLiveTime = max( 0.0f, (m_fMaxLiveTimeRate - FLOAT1) );

  00256	b8 01 00 00 00	 mov	 eax, 1
  0025b	89 45 e4	 mov	 DWORD PTR $T619481[ebp], eax
  0025e	8d 45 ec	 lea	 eax, DWORD PTR _value$619484[ebp]
  00261	50		 push	 eax
  00262	8d 8e 2c 12 00
	00		 lea	 ecx, DWORD PTR [esi+4652]
  00268	e8 00 00 00 00	 call	 ?DecryptValueToPool@?$CEncrypt@M@@QAEXPAM@Z ; CEncrypt<float>::DecryptValueToPool
  0026d	d9 45 ec	 fld	 DWORD PTR _value$619484[ebp]
  00270	8b 45 e4	 mov	 eax, DWORD PTR $T619481[ebp]
  00273	db 45 e4	 fild	 DWORD PTR $T619481[ebp]
  00276	85 c0		 test	 eax, eax
  00278	79 06		 jns	 SHORT $LN86@SetExtraIn
  0027a	d8 05 00 00 00
	00		 fadd	 DWORD PTR __real@4f800000
$LN86@SetExtraIn:
  00280	de e9		 fsubp	 ST(1), ST(0)
  00282	d9 5d e4	 fstp	 DWORD PTR tv569[ebp]
  00285	d9 45 e4	 fld	 DWORD PTR tv569[ebp]
  00288	d9 ee		 fldz
  0028a	df f1		 fcomip	 ST(1)
  0028c	dd d8		 fstp	 ST(0)
  0028e	76 0a		 jbe	 SHORT $LN13@SetExtraIn
  00290	0f 57 c0	 xorps	 xmm0, xmm0
  00293	f3 0f 11 45 ec	 movss	 DWORD PTR _fCurMaxLiveTime$607783[ebp], xmm0
  00298	eb 35		 jmp	 SHORT $LN14@SetExtraIn
$LN13@SetExtraIn:
  0029a	b8 01 00 00 00	 mov	 eax, 1
  0029f	89 45 ec	 mov	 DWORD PTR $T619489[ebp], eax
  002a2	8d 45 e4	 lea	 eax, DWORD PTR _value$619492[ebp]
  002a5	50		 push	 eax
  002a6	8d 8e 2c 12 00
	00		 lea	 ecx, DWORD PTR [esi+4652]
  002ac	e8 00 00 00 00	 call	 ?DecryptValueToPool@?$CEncrypt@M@@QAEXPAM@Z ; CEncrypt<float>::DecryptValueToPool
  002b1	d9 45 e4	 fld	 DWORD PTR _value$619492[ebp]
  002b4	8b 45 ec	 mov	 eax, DWORD PTR $T619489[ebp]
  002b7	db 45 ec	 fild	 DWORD PTR $T619489[ebp]
  002ba	85 c0		 test	 eax, eax
  002bc	79 06		 jns	 SHORT $LN87@SetExtraIn
  002be	d8 05 00 00 00
	00		 fadd	 DWORD PTR __real@4f800000
$LN87@SetExtraIn:
  002c4	de e9		 fsubp	 ST(1), ST(0)
  002c6	d9 5d e4	 fstp	 DWORD PTR tv553[ebp]
  002c9	d9 45 e4	 fld	 DWORD PTR tv553[ebp]
  002cc	d9 5d ec	 fstp	 DWORD PTR _fCurMaxLiveTime$607783[ebp]
$LN14@SetExtraIn:

; 274  : 
; 275  : 		fCurDamageRate += fCurMaxDamage * m_fCurChargeRate;

  002cf	8d 45 e4	 lea	 eax, DWORD PTR _value$619496[ebp]
  002d2	50		 push	 eax
  002d3	8d 8e 8c 0f 00
	00		 lea	 ecx, DWORD PTR [esi+3980]
  002d9	e8 00 00 00 00	 call	 ?DecryptValueToPool@?$CEncrypt@M@@QAEXPAM@Z ; CEncrypt<float>::DecryptValueToPool

; 276  : 		fCurForceRate += fCurMaxForce * m_fCurChargeRate;

  002de	8d 45 e0	 lea	 eax, DWORD PTR _value$619500[ebp]
  002e1	50		 push	 eax
  002e2	8d 8e 8c 0f 00
	00		 lea	 ecx, DWORD PTR [esi+3980]
  002e8	e8 00 00 00 00	 call	 ?DecryptValueToPool@?$CEncrypt@M@@QAEXPAM@Z ; CEncrypt<float>::DecryptValueToPool

; 277  : 		fCurBlowRate += fCurMaxBlow * m_fCurChargeRate;

  002ed	8d 45 dc	 lea	 eax, DWORD PTR _value$619504[ebp]
  002f0	50		 push	 eax
  002f1	8d 8e 8c 0f 00
	00		 lea	 ecx, DWORD PTR [esi+3980]
  002f7	e8 00 00 00 00	 call	 ?DecryptValueToPool@?$CEncrypt@M@@QAEXPAM@Z ; CEncrypt<float>::DecryptValueToPool

; 278  : 
; 279  : 		fCurWoundedTimeRate += fCurMaxWoundedTime * m_fCurChargeRate;

  002fc	8d 45 d8	 lea	 eax, DWORD PTR _value$619508[ebp]
  002ff	50		 push	 eax
  00300	8d 8e 8c 0f 00
	00		 lea	 ecx, DWORD PTR [esi+3980]
  00306	e8 00 00 00 00	 call	 ?DecryptValueToPool@?$CEncrypt@M@@QAEXPAM@Z ; CEncrypt<float>::DecryptValueToPool

; 280  : 		fCurLiveTimeRate += fCurMaxLiveTime * m_fCurChargeRate;

  0030b	8d 45 d4	 lea	 eax, DWORD PTR _value$619512[ebp]
  0030e	50		 push	 eax
  0030f	8d 8e 8c 0f 00
	00		 lea	 ecx, DWORD PTR [esi+3980]
  00315	e8 00 00 00 00	 call	 ?DecryptValueToPool@?$CEncrypt@M@@QAEXPAM@Z ; CEncrypt<float>::DecryptValueToPool

; 281  : 
; 282  : 		pWeapon->SetOwnerChargeDamageRate( fCurDamageRate );

  0031a	f3 0f 10 4d fc	 movss	 xmm1, DWORD PTR _fCurMaxDamage$607763[ebp]
  0031f	f3 0f 10 45 e4	 movss	 xmm0, DWORD PTR _value$619496[ebp]
  00324	8b 07		 mov	 eax, DWORD PTR [edi]
  00326	0f 5a c0	 cvtps2pd xmm0, xmm0
  00329	0f 5a c9	 cvtps2pd xmm1, xmm1
  0032c	f2 0f 59 c1	 mulsd	 xmm0, xmm1
  00330	f3 0f 10 4d 08	 movss	 xmm1, DWORD PTR _fCurBlowRate$[ebp]
  00335	0f 5a c9	 cvtps2pd xmm1, xmm1
  00338	51		 push	 ecx
  00339	f2 0f 58 c1	 addsd	 xmm0, xmm1
  0033d	66 0f 5a c0	 cvtpd2ps xmm0, xmm0
  00341	8b cf		 mov	 ecx, edi
  00343	f3 0f 11 04 24	 movss	 DWORD PTR [esp], xmm0
  00348	ff 50 0c	 call	 DWORD PTR [eax+12]

; 283  : 		pWeapon->SetOwnerChargeForceRate( fCurForceRate );

  0034b	f3 0f 10 4d f8	 movss	 xmm1, DWORD PTR _fCurMaxForce$607768[ebp]
  00350	f3 0f 10 45 e0	 movss	 xmm0, DWORD PTR _value$619500[ebp]
  00355	8b 07		 mov	 eax, DWORD PTR [edi]
  00357	0f 5a c0	 cvtps2pd xmm0, xmm0
  0035a	0f 5a c9	 cvtps2pd xmm1, xmm1
  0035d	f2 0f 59 c1	 mulsd	 xmm0, xmm1
  00361	f3 0f 10 4d 08	 movss	 xmm1, DWORD PTR _fCurBlowRate$[ebp]
  00366	0f 5a c9	 cvtps2pd xmm1, xmm1
  00369	51		 push	 ecx
  0036a	f2 0f 58 c1	 addsd	 xmm0, xmm1
  0036e	66 0f 5a c0	 cvtpd2ps xmm0, xmm0
  00372	8b cf		 mov	 ecx, edi
  00374	f3 0f 11 04 24	 movss	 DWORD PTR [esp], xmm0
  00379	ff 50 10	 call	 DWORD PTR [eax+16]

; 284  : 		pWeapon->SetOwnerChargeBlowRate( fCurBlowRate );

  0037c	f3 0f 10 4d f4	 movss	 xmm1, DWORD PTR _fCurMaxBlow$607773[ebp]
  00381	f3 0f 10 45 dc	 movss	 xmm0, DWORD PTR _value$619504[ebp]
  00386	8b 07		 mov	 eax, DWORD PTR [edi]
  00388	0f 5a c0	 cvtps2pd xmm0, xmm0
  0038b	0f 5a c9	 cvtps2pd xmm1, xmm1
  0038e	f2 0f 59 c1	 mulsd	 xmm0, xmm1
  00392	f3 0f 10 4d 08	 movss	 xmm1, DWORD PTR _fCurBlowRate$[ebp]
  00397	0f 5a c9	 cvtps2pd xmm1, xmm1
  0039a	51		 push	 ecx
  0039b	f2 0f 58 c1	 addsd	 xmm0, xmm1
  0039f	66 0f 5a c0	 cvtpd2ps xmm0, xmm0
  003a3	8b cf		 mov	 ecx, edi
  003a5	f3 0f 11 04 24	 movss	 DWORD PTR [esp], xmm0
  003aa	ff 50 1c	 call	 DWORD PTR [eax+28]

; 285  : 
; 286  : 		pWeapon->SetOwnerChargeWoundedTimeRate( fCurWoundedTimeRate );

  003ad	f3 0f 10 4d f0	 movss	 xmm1, DWORD PTR _fCurMaxWoundedTime$607778[ebp]
  003b2	f3 0f 10 45 d8	 movss	 xmm0, DWORD PTR _value$619508[ebp]
  003b7	8b 07		 mov	 eax, DWORD PTR [edi]
  003b9	0f 5a c0	 cvtps2pd xmm0, xmm0
  003bc	0f 5a c9	 cvtps2pd xmm1, xmm1
  003bf	f2 0f 59 c1	 mulsd	 xmm0, xmm1
  003c3	f3 0f 10 4d e8	 movss	 xmm1, DWORD PTR _fCurLiveTimeRate$[ebp]
  003c8	0f 5a c9	 cvtps2pd xmm1, xmm1
  003cb	51		 push	 ecx
  003cc	f2 0f 58 c1	 addsd	 xmm0, xmm1
  003d0	66 0f 5a c0	 cvtpd2ps xmm0, xmm0
  003d4	8b cf		 mov	 ecx, edi
  003d6	f3 0f 11 04 24	 movss	 DWORD PTR [esp], xmm0
  003db	ff 50 2c	 call	 DWORD PTR [eax+44]

; 287  : 		pWeapon->SetOwnerChargeLiveTimeRate( fCurLiveTimeRate );

  003de	f3 0f 10 45 d4	 movss	 xmm0, DWORD PTR _value$619512[ebp]
  003e3	f3 0f 10 4d ec	 movss	 xmm1, DWORD PTR _fCurMaxLiveTime$607783[ebp]
  003e8	8b 07		 mov	 eax, DWORD PTR [edi]
  003ea	0f 5a c0	 cvtps2pd xmm0, xmm0
  003ed	0f 5a c9	 cvtps2pd xmm1, xmm1
  003f0	f2 0f 59 c1	 mulsd	 xmm0, xmm1
  003f4	f3 0f 10 4d e8	 movss	 xmm1, DWORD PTR _fCurLiveTimeRate$[ebp]
  003f9	0f 5a c9	 cvtps2pd xmm1, xmm1
  003fc	51		 push	 ecx
  003fd	f2 0f 58 c1	 addsd	 xmm0, xmm1
  00401	66 0f 5a c0	 cvtpd2ps xmm0, xmm0
  00405	8b cf		 mov	 ecx, edi
  00407	f3 0f 11 04 24	 movss	 DWORD PTR [esp], xmm0
  0040c	ff 50 30	 call	 DWORD PTR [eax+48]
  0040f	5b		 pop	 ebx
$LN2@SetExtraIn:

; 288  : 	}
; 289  : 
; 290  : 	ioFloatThrowWeapon *pFloatWeapon = ToFloatThrowWeapon(pWeapon);

  00410	57		 push	 edi
  00411	e8 00 00 00 00	 call	 ?ToFloatThrowWeapon@@YAPAVioFloatThrowWeapon@@PAVioWeapon@@@Z ; ToFloatThrowWeapon

; 291  : 	if( !bJumpAttack && pFloatWeapon )

  00416	80 7d 0c 00	 cmp	 BYTE PTR _bJumpAttack$[ebp], 0
  0041a	59		 pop	 ecx
  0041b	8b f8		 mov	 edi, eax
  0041d	75 66		 jne	 SHORT $LN1@SetExtraIn
  0041f	85 ff		 test	 edi, edi
  00421	74 62		 je	 SHORT $LN1@SetExtraIn

; 292  : 	{
; 293  : 		pFloatWeapon->SetMoveDir( m_vWeaponDir );

  00423	8b 07		 mov	 eax, DWORD PTR [edi]
  00425	8d 8e 0c 1f 00
	00		 lea	 ecx, DWORD PTR [esi+7948]
  0042b	51		 push	 ecx
  0042c	8b cf		 mov	 ecx, edi
  0042e	ff 90 b0 00 00
	00		 call	 DWORD PTR [eax+176]

; 294  : 		pFloatWeapon->SetMoveSpeed( m_fCurWeaponMoveSpeed );

  00434	f3 0f 10 86 04
	1f 00 00	 movss	 xmm0, DWORD PTR [esi+7940]
  0043c	8b 07		 mov	 eax, DWORD PTR [edi]
  0043e	51		 push	 ecx
  0043f	8b cf		 mov	 ecx, edi
  00441	f3 0f 11 04 24	 movss	 DWORD PTR [esp], xmm0
  00446	ff 90 b4 00 00
	00		 call	 DWORD PTR [eax+180]

; 295  : 		pFloatWeapon->SetFloatPower( m_fCurWeaponFloatPower );

  0044c	f3 0f 10 86 08
	1f 00 00	 movss	 xmm0, DWORD PTR [esi+7944]
  00454	8b 07		 mov	 eax, DWORD PTR [edi]
  00456	51		 push	 ecx
  00457	8b cf		 mov	 ecx, edi
  00459	f3 0f 11 04 24	 movss	 DWORD PTR [esp], xmm0
  0045e	ff 90 b8 00 00
	00		 call	 DWORD PTR [eax+184]

; 296  : 		pFloatWeapon->SetGravityRate( m_fWeaponGravityRate );

  00464	8d 45 0c	 lea	 eax, DWORD PTR _value$619516[ebp]
  00467	50		 push	 eax
  00468	8d 8e e4 1d 00
	00		 lea	 ecx, DWORD PTR [esi+7652]
  0046e	e8 00 00 00 00	 call	 ?DecryptValueToPool@?$CEncrypt@M@@QAEXPAM@Z ; CEncrypt<float>::DecryptValueToPool
  00473	f3 0f 10 45 0c	 movss	 xmm0, DWORD PTR _value$619516[ebp]
  00478	51		 push	 ecx
  00479	8b cf		 mov	 ecx, edi
  0047b	f3 0f 11 04 24	 movss	 DWORD PTR [esp], xmm0
  00480	e8 00 00 00 00	 call	 ?SetGravityRate@ioFloatThrowWeapon@@QAEXM@Z ; ioFloatThrowWeapon::SetGravityRate
$LN1@SetExtraIn:
  00485	5f		 pop	 edi
  00486	5e		 pop	 esi

; 297  : 	}
; 298  : }

  00487	c9		 leave
  00488	c2 08 00	 ret	 8
?SetExtraInfoToWeapon@ioObjectChargeShotItem@@UAEXPAVioWeapon@@_N@Z ENDP ; ioObjectChargeShotItem::SetExtraInfoToWeapon
; Function compile flags: /Ogsp
_TEXT	ENDS
;	COMDAT ?IsProtectState@ioObjectChargeShotItem@@UAE_NXZ
_TEXT	SEGMENT
_value$619536 = -4					; size = 4
?IsProtectState@ioObjectChargeShotItem@@UAE_NXZ PROC	; ioObjectChargeShotItem::IsProtectState, COMDAT
; _this$ = ecx

; 301  : {

  00000	55		 push	 ebp
  00001	8b ec		 mov	 ebp, esp
  00003	51		 push	 ecx
  00004	56		 push	 esi
  00005	8b f1		 mov	 esi, ecx

; 302  : 	if( m_dwAttackStartTime > 0 && m_dwAttackStartTime + m_dwProtectTime > FRAMEGETTIME() )

  00007	83 be b8 1c 00
	00 00		 cmp	 DWORD PTR [esi+7352], 0
  0000e	76 2e		 jbe	 SHORT $LN1@IsProtectS
  00010	8d 45 fc	 lea	 eax, DWORD PTR _value$619536[ebp]
  00013	50		 push	 eax
  00014	8d 8e 50 1f 00
	00		 lea	 ecx, DWORD PTR [esi+8016]
  0001a	e8 00 00 00 00	 call	 ?DecryptValueToPool@?$CEncrypt@K@@QAEXPAK@Z ; CEncrypt<unsigned long>::DecryptValueToPool
  0001f	ff 15 00 00 00
	00		 call	 DWORD PTR __imp_?GetSingleton@ioFrameTimer@@SAAAV1@XZ
  00025	8b c8		 mov	 ecx, eax
  00027	ff 15 00 00 00
	00		 call	 DWORD PTR __imp_?GetLoopSec@ioFrameTimer@@QBEKXZ
  0002d	8b 8e b8 1c 00
	00		 mov	 ecx, DWORD PTR [esi+7352]
  00033	03 4d fc	 add	 ecx, DWORD PTR _value$619536[ebp]
  00036	3b c8		 cmp	 ecx, eax
  00038	76 04		 jbe	 SHORT $LN1@IsProtectS

; 303  : 		return true;

  0003a	b0 01		 mov	 al, 1
  0003c	eb 02		 jmp	 SHORT $LN2@IsProtectS
$LN1@IsProtectS:

; 304  : 
; 305  : 	return false;

  0003e	32 c0		 xor	 al, al
$LN2@IsProtectS:
  00040	5e		 pop	 esi

; 306  : }

  00041	c9		 leave
  00042	c3		 ret	 0
?IsProtectState@ioObjectChargeShotItem@@UAE_NXZ ENDP	; ioObjectChargeShotItem::IsProtectState
; Function compile flags: /Ogsp
_TEXT	ENDS
;	COMDAT ?IsEnableDefense@ioObjectChargeShotItem@@UBE_NXZ
_TEXT	SEGMENT
_value$619543 = -1					; size = 1
?IsEnableDefense@ioObjectChargeShotItem@@UBE_NXZ PROC	; ioObjectChargeShotItem::IsEnableDefense, COMDAT
; _this$ = ecx

; 327  : {

  00000	55		 push	 ebp
  00001	8b ec		 mov	 ebp, esp
  00003	51		 push	 ecx

; 328  : 	return m_bEnableObjectDefense;

  00004	8d 45 ff	 lea	 eax, DWORD PTR _value$619543[ebp]
  00007	50		 push	 eax
  00008	81 c1 38 1b 00
	00		 add	 ecx, 6968		; 00001b38H
  0000e	e8 00 00 00 00	 call	 ?DecryptValueToPool@?$CEncrypt@_N@@QAEXPA_N@Z ; CEncrypt<bool>::DecryptValueToPool
  00013	8a 45 ff	 mov	 al, BYTE PTR _value$619543[ebp]

; 329  : }

  00016	c9		 leave
  00017	c3		 ret	 0
?IsEnableDefense@ioObjectChargeShotItem@@UBE_NXZ ENDP	; ioObjectChargeShotItem::IsEnableDefense
_TEXT	ENDS
PUBLIC	__$ArrayPad$
PUBLIC	?ChangeToAttackEnd@ioObjectChargeShotItem@@IAEXPAVioBaseChar@@@Z ; ioObjectChargeShotItem::ChangeToAttackEnd
EXTRN	??1SP2Packet@@UAE@XZ:PROC			; SP2Packet::~SP2Packet
EXTRN	?SendToAllPlayingUser@P2PNetwork@@YAXAAVSP2Packet@@PAVioBaseChar@@@Z:PROC ; P2PNetwork::SendToAllPlayingUser
EXTRN	??6SP2Packet@@QAEAAV0@H@Z:PROC			; SP2Packet::operator<<
EXTRN	?FillItemGaugePacketHeader@ioAttackableItem@@QAEXPAVioBaseChar@@AAVSP2Packet@@@Z:PROC ; ioAttackableItem::FillItemGaugePacketHeader
EXTRN	??0SP2Packet@@QAE@K@Z:PROC			; SP2Packet::SP2Packet
EXTRN	__chkstk:PROC
;	COMDAT xdata$x
; File d:\lost saga for developer\youtube\tutorial\source\src\lsclient\iobasechar.h
xdata$x	SEGMENT
__unwindtable$?ChangeToAttackEnd@ioObjectChargeShotItem@@IAEXPAVioBaseChar@@@Z DD 0ffffffffH
	DD	FLAT:__unwindfunclet$?ChangeToAttackEnd@ioObjectChargeShotItem@@IAEXPAVioBaseChar@@@Z$0
__ehfuncinfo$?ChangeToAttackEnd@ioObjectChargeShotItem@@IAEXPAVioBaseChar@@@Z DD 019930522H
	DD	01H
	DD	FLAT:__unwindtable$?ChangeToAttackEnd@ioObjectChargeShotItem@@IAEXPAVioBaseChar@@@Z
	DD	2 DUP(00H)
	DD	2 DUP(00H)
	DD	00H
	DD	01H
; Function compile flags: /Ogsp
; File d:\lost saga for developer\youtube\tutorial\source\src\lsclient\ioobjectchargeshotitem.cpp
xdata$x	ENDS
;	COMDAT ?ChangeToAttackEnd@ioObjectChargeShotItem@@IAEXPAVioBaseChar@@@Z
_TEXT	SEGMENT
_iAniID$ = -32828					; size = 4
tv252 = -32824						; size = 4
$T619566 = -32824					; size = 4
tv181 = -32820						; size = 4
tv249 = -32816						; size = 4
tv246 = -32816						; size = 4
tv244 = -32816						; size = 4
_value$619570 = -32816					; size = 4
tv268 = -32812						; size = 4
tv262 = -32812						; size = 4
tv242 = -32812						; size = 4
_value$619587 = -32812					; size = 4
$T619583 = -32812					; size = 4
_kPacket$607857 = -32808				; size = 32792
__$ArrayPad$ = -16					; size = 4
__$EHRec$ = -12						; size = 12
_pOwner$ = 8						; size = 4
?ChangeToAttackEnd@ioObjectChargeShotItem@@IAEXPAVioBaseChar@@@Z PROC ; ioObjectChargeShotItem::ChangeToAttackEnd, COMDAT
; _this$ = ecx

; 388  : {

  00000	55		 push	 ebp
  00001	8b ec		 mov	 ebp, esp
  00003	6a ff		 push	 -1
  00005	68 00 00 00 00	 push	 __ehhandler$?ChangeToAttackEnd@ioObjectChargeShotItem@@IAEXPAVioBaseChar@@@Z
  0000a	64 a1 00 00 00
	00		 mov	 eax, DWORD PTR fs:0
  00010	50		 push	 eax
  00011	b8 30 80 00 00	 mov	 eax, 32816		; 00008030H
  00016	e8 00 00 00 00	 call	 __chkstk
  0001b	a1 00 00 00 00	 mov	 eax, DWORD PTR ___security_cookie
  00020	33 c5		 xor	 eax, ebp
  00022	89 45 f0	 mov	 DWORD PTR __$ArrayPad$[ebp], eax
  00025	53		 push	 ebx
  00026	56		 push	 esi
  00027	57		 push	 edi
  00028	50		 push	 eax
  00029	8d 45 f4	 lea	 eax, DWORD PTR __$EHRec$[ebp]
  0002c	64 a3 00 00 00
	00		 mov	 DWORD PTR fs:0, eax
  00032	8b 7d 08	 mov	 edi, DWORD PTR _pOwner$[ebp]
  00035	8b d9		 mov	 ebx, ecx

; 389  : 	if( m_AttackState == AS_ATTACK_END )

  00037	6a 03		 push	 3
  00039	59		 pop	 ecx
  0003a	39 8b 34 1b 00
	00		 cmp	 DWORD PTR [ebx+6964], ecx
  00040	0f 84 27 02 00
	00		 je	 $LN1@ChangeToAt

; 390  : 		return;
; 391  : 
; 392  : 	m_AttackState = AS_ATTACK_END;

  00046	89 8b 34 1b 00
	00		 mov	 DWORD PTR [ebx+6964], ecx

; 393  : 
; 394  : 	pOwner->SetChargingState( false );
; 395  : 
; 396  : 	ioEntityGroup *pGrp = pOwner->GetGroup();

  0004c	8b 77 04	 mov	 esi, DWORD PTR [edi+4]
  0004f	c6 87 54 20 00
	00 00		 mov	 BYTE PTR [edi+8276], 0

; 397  : 	pGrp->ClearAllLoopAni( FLOAT100, true );

  00056	b8 64 00 00 00	 mov	 eax, 100		; 00000064H
  0005b	89 85 d4 7f ff
	ff		 mov	 DWORD PTR tv268[ebp], eax
  00061	db 85 d4 7f ff
	ff		 fild	 DWORD PTR tv268[ebp]
  00067	6a 01		 push	 1
  00069	85 c0		 test	 eax, eax
  0006b	79 06		 jns	 SHORT $LN31@ChangeToAt
  0006d	d8 05 00 00 00
	00		 fadd	 DWORD PTR __real@4f800000
$LN31@ChangeToAt:
  00073	51		 push	 ecx
  00074	8b ce		 mov	 ecx, esi
  00076	d9 1c 24	 fstp	 DWORD PTR [esp]
  00079	ff 15 00 00 00
	00		 call	 DWORD PTR __imp_?ClearAllLoopAni@ioEntityGroup@@QAEXM_N@Z

; 398  : 	pGrp->ClearAllActionAni( FLOAT100, true );

  0007f	b8 64 00 00 00	 mov	 eax, 100		; 00000064H
  00084	89 85 d4 7f ff
	ff		 mov	 DWORD PTR tv262[ebp], eax
  0008a	db 85 d4 7f ff
	ff		 fild	 DWORD PTR tv262[ebp]
  00090	6a 01		 push	 1
  00092	85 c0		 test	 eax, eax
  00094	79 06		 jns	 SHORT $LN32@ChangeToAt
  00096	d8 05 00 00 00
	00		 fadd	 DWORD PTR __real@4f800000
$LN32@ChangeToAt:
  0009c	51		 push	 ecx
  0009d	8b ce		 mov	 ecx, esi
  0009f	d9 1c 24	 fstp	 DWORD PTR [esp]
  000a2	ff 15 00 00 00
	00		 call	 DWORD PTR __imp_?ClearAllActionAni@ioEntityGroup@@QAEXM_N@Z

; 399  : 
; 400  : 	int iAniID = pGrp->GetAnimationIdx( m_AttackEndAnimation );

  000a8	8d 83 e8 1b 00
	00		 lea	 eax, DWORD PTR [ebx+7144]
  000ae	50		 push	 eax
  000af	8b ce		 mov	 ecx, esi
  000b1	ff 15 00 00 00
	00		 call	 DWORD PTR __imp_?GetAnimationIdx@ioEntityGroup@@QAEHABVioHashString@@@Z
  000b7	89 85 c4 7f ff
	ff		 mov	 DWORD PTR _iAniID$[ebp], eax

; 401  : 	pGrp->SetActionAni( iAniID, FLOAT100, FLOAT100, FLOAT1, FLOAT1/m_fAttackEndAniRate );

  000bd	b8 01 00 00 00	 mov	 eax, 1
  000c2	89 85 c8 7f ff
	ff		 mov	 DWORD PTR $T619566[ebp], eax
  000c8	8d 85 d0 7f ff
	ff		 lea	 eax, DWORD PTR _value$619570[ebp]
  000ce	8d 8b f8 1b 00
	00		 lea	 ecx, DWORD PTR [ebx+7160]
  000d4	50		 push	 eax
  000d5	e8 00 00 00 00	 call	 ?DecryptValueToPool@?$CEncrypt@M@@QAEXPAM@Z ; CEncrypt<float>::DecryptValueToPool
  000da	b8 01 00 00 00	 mov	 eax, 1
  000df	8b c8		 mov	 ecx, eax
  000e1	b8 64 00 00 00	 mov	 eax, 100		; 00000064H
  000e6	8b d0		 mov	 edx, eax
  000e8	b8 64 00 00 00	 mov	 eax, 100		; 00000064H
  000ed	db 85 c8 7f ff
	ff		 fild	 DWORD PTR $T619566[ebp]
  000f3	0f 57 c0	 xorps	 xmm0, xmm0
  000f6	6a 01		 push	 1
  000f8	6a 00		 push	 0
  000fa	83 ec 18	 sub	 esp, 24			; 00000018H
  000fd	89 85 d4 7f ff
	ff		 mov	 DWORD PTR $T619583[ebp], eax
  00103	8b 85 c8 7f ff
	ff		 mov	 eax, DWORD PTR $T619566[ebp]
  00109	f3 0f 11 44 24
	14		 movss	 DWORD PTR [esp+20], xmm0
  0010f	f3 0f 11 44 24
	10		 movss	 DWORD PTR [esp+16], xmm0
  00115	85 c0		 test	 eax, eax
  00117	79 06		 jns	 SHORT $LN33@ChangeToAt
  00119	d8 05 00 00 00
	00		 fadd	 DWORD PTR __real@4f800000
$LN33@ChangeToAt:
  0011f	d8 b5 d0 7f ff
	ff		 fdiv	 DWORD PTR _value$619570[ebp]
  00125	d9 9d d0 7f ff
	ff		 fstp	 DWORD PTR tv249[ebp]
  0012b	d9 85 d0 7f ff
	ff		 fld	 DWORD PTR tv249[ebp]
  00131	d9 5c 24 0c	 fstp	 DWORD PTR [esp+12]
  00135	89 8d d0 7f ff
	ff		 mov	 DWORD PTR tv246[ebp], ecx
  0013b	db 85 d0 7f ff
	ff		 fild	 DWORD PTR tv246[ebp]
  00141	85 c9		 test	 ecx, ecx
  00143	79 06		 jns	 SHORT $LN34@ChangeToAt
  00145	d8 05 00 00 00
	00		 fadd	 DWORD PTR __real@4f800000
$LN34@ChangeToAt:
  0014b	d9 5c 24 08	 fstp	 DWORD PTR [esp+8]
  0014f	89 95 d0 7f ff
	ff		 mov	 DWORD PTR tv244[ebp], edx
  00155	db 85 d0 7f ff
	ff		 fild	 DWORD PTR tv244[ebp]
  0015b	85 d2		 test	 edx, edx
  0015d	79 06		 jns	 SHORT $LN35@ChangeToAt
  0015f	d8 05 00 00 00
	00		 fadd	 DWORD PTR __real@4f800000
$LN35@ChangeToAt:
  00165	8b 85 d4 7f ff
	ff		 mov	 eax, DWORD PTR $T619583[ebp]
  0016b	d9 5c 24 04	 fstp	 DWORD PTR [esp+4]
  0016f	db 85 d4 7f ff
	ff		 fild	 DWORD PTR $T619583[ebp]
  00175	85 c0		 test	 eax, eax
  00177	79 06		 jns	 SHORT $LN36@ChangeToAt
  00179	d8 05 00 00 00
	00		 fadd	 DWORD PTR __real@4f800000
$LN36@ChangeToAt:
  0017f	d9 1c 24	 fstp	 DWORD PTR [esp]
  00182	ff b5 c4 7f ff
	ff		 push	 DWORD PTR _iAniID$[ebp]
  00188	8b ce		 mov	 ecx, esi
  0018a	ff 15 00 00 00
	00		 call	 DWORD PTR __imp_?SetActionAni@ioEntityGroup@@QAE_NHMMMMMM_N0@Z

; 402  : 
; 403  : 	m_dwMotionEndTime = FRAMEGETTIME();

  00190	ff 15 00 00 00
	00		 call	 DWORD PTR __imp_?GetSingleton@ioFrameTimer@@SAAAV1@XZ
  00196	8b c8		 mov	 ecx, eax
  00198	ff 15 00 00 00
	00		 call	 DWORD PTR __imp_?GetLoopSec@ioFrameTimer@@QBEKXZ
  0019e	89 83 bc 1c 00
	00		 mov	 DWORD PTR [ebx+7356], eax

; 404  : 	m_dwMotionEndTime += pGrp->GetAnimationFullTime( iAniID ) * m_fAttackEndAniRate;

  001a4	8d 85 d4 7f ff
	ff		 lea	 eax, DWORD PTR _value$619587[ebp]
  001aa	50		 push	 eax
  001ab	8d 8b f8 1b 00
	00		 lea	 ecx, DWORD PTR [ebx+7160]
  001b1	e8 00 00 00 00	 call	 ?DecryptValueToPool@?$CEncrypt@M@@QAEXPAM@Z ; CEncrypt<float>::DecryptValueToPool
  001b6	ff b5 c4 7f ff
	ff		 push	 DWORD PTR _iAniID$[ebp]
  001bc	8b ce		 mov	 ecx, esi
  001be	ff 15 00 00 00
	00		 call	 DWORD PTR __imp_?GetAnimationFullTime@ioEntityGroup@@QAEMH@Z
  001c4	d8 8d d4 7f ff
	ff		 fmul	 DWORD PTR _value$619587[ebp]
  001ca	8b 83 bc 1c 00
	00		 mov	 eax, DWORD PTR [ebx+7356]
  001d0	db 83 bc 1c 00
	00		 fild	 DWORD PTR [ebx+7356]
  001d6	85 c0		 test	 eax, eax
  001d8	79 06		 jns	 SHORT $LN37@ChangeToAt
  001da	dc 05 00 00 00
	00		 fadd	 QWORD PTR __real@41f0000000000000
$LN37@ChangeToAt:
  001e0	de c1		 faddp	 ST(1), ST(0)
  001e2	e8 00 00 00 00	 call	 __ftol2
  001e7	89 83 bc 1c 00
	00		 mov	 DWORD PTR [ebx+7356], eax

; 405  : 
; 406  : 	if( pOwner->IsNeedSendNetwork() )

  001ed	8b 07		 mov	 eax, DWORD PTR [edi]
  001ef	8b cf		 mov	 ecx, edi
  001f1	ff 90 04 01 00
	00		 call	 DWORD PTR [eax+260]
  001f7	84 c0		 test	 al, al
  001f9	74 4e		 je	 SHORT $LN2@ChangeToAt

; 407  : 	{
; 408  : 		SP2Packet kPacket( CUPK_ITEM_GAUGE_OK );

  001fb	68 27 41 00 00	 push	 16679			; 00004127H
  00200	8d 8d d8 7f ff
	ff		 lea	 ecx, DWORD PTR _kPacket$607857[ebp]
  00206	e8 00 00 00 00	 call	 ??0SP2Packet@@QAE@K@Z	; SP2Packet::SP2Packet

; 409  : 		FillItemGaugePacketHeader( pOwner, kPacket );

  0020b	8d 85 d8 7f ff
	ff		 lea	 eax, DWORD PTR _kPacket$607857[ebp]
  00211	50		 push	 eax
  00212	33 f6		 xor	 esi, esi
  00214	57		 push	 edi
  00215	8b cb		 mov	 ecx, ebx
  00217	89 75 fc	 mov	 DWORD PTR __$EHRec$[ebp+8], esi
  0021a	e8 00 00 00 00	 call	 ?FillItemGaugePacketHeader@ioAttackableItem@@QAEXPAVioBaseChar@@AAVSP2Packet@@@Z ; ioAttackableItem::FillItemGaugePacketHeader

; 410  : 		kPacket << SS_ATTACK_END;

  0021f	56		 push	 esi
  00220	8d 8d d8 7f ff
	ff		 lea	 ecx, DWORD PTR _kPacket$607857[ebp]
  00226	e8 00 00 00 00	 call	 ??6SP2Packet@@QAEAAV0@H@Z ; SP2Packet::operator<<

; 411  : 		P2PNetwork::SendToAllPlayingUser( kPacket );

  0022b	8d 85 d8 7f ff
	ff		 lea	 eax, DWORD PTR _kPacket$607857[ebp]
  00231	56		 push	 esi
  00232	50		 push	 eax
  00233	e8 00 00 00 00	 call	 ?SendToAllPlayingUser@P2PNetwork@@YAXAAVSP2Packet@@PAVioBaseChar@@@Z ; P2PNetwork::SendToAllPlayingUser

; 412  : 	}

  00238	83 4d fc ff	 or	 DWORD PTR __$EHRec$[ebp+8], -1
  0023c	59		 pop	 ecx
  0023d	59		 pop	 ecx
  0023e	8d 8d d8 7f ff
	ff		 lea	 ecx, DWORD PTR _kPacket$607857[ebp]
  00244	e8 00 00 00 00	 call	 ??1SP2Packet@@UAE@XZ	; SP2Packet::~SP2Packet
$LN2@ChangeToAt:

; 413  : 
; 414  : 	ioPlayStage *pStage = pOwner->GetCreator();

  00249	8b bf 44 03 00
	00		 mov	 edi, DWORD PTR [edi+836]

; 415  : 	if( pStage && m_dwMarkEffectID != -1 )

  0024f	85 ff		 test	 edi, edi
  00251	74 1a		 je	 SHORT $LN1@ChangeToAt
  00253	8b 83 e0 1c 00
	00		 mov	 eax, DWORD PTR [ebx+7392]
  00259	83 f8 ff	 cmp	 eax, -1
  0025c	74 0f		 je	 SHORT $LN1@ChangeToAt

; 416  : 	{
; 417  : 		pStage->DestroyMapEffect( m_dwMarkEffectID );

  0025e	50		 push	 eax
  0025f	8b cf		 mov	 ecx, edi
  00261	e8 00 00 00 00	 call	 ?DestroyMapEffect@ioPlayStage@@QAEXK@Z ; ioPlayStage::DestroyMapEffect

; 418  : 		m_dwMarkEffectID = -1;

  00266	83 8b e0 1c 00
	00 ff		 or	 DWORD PTR [ebx+7392], -1
$LN1@ChangeToAt:

; 419  : 	}
; 420  : 
; 421  : }

  0026d	8b 4d f4	 mov	 ecx, DWORD PTR __$EHRec$[ebp]
  00270	64 89 0d 00 00
	00 00		 mov	 DWORD PTR fs:0, ecx
  00277	59		 pop	 ecx
  00278	5f		 pop	 edi
  00279	5e		 pop	 esi
  0027a	5b		 pop	 ebx
  0027b	8b 4d f0	 mov	 ecx, DWORD PTR __$ArrayPad$[ebp]
  0027e	33 cd		 xor	 ecx, ebp
  00280	e8 00 00 00 00	 call	 @__security_check_cookie@4
  00285	c9		 leave
  00286	c2 04 00	 ret	 4
_TEXT	ENDS
;	COMDAT text$x
text$x	SEGMENT
__unwindfunclet$?ChangeToAttackEnd@ioObjectChargeShotItem@@IAEXPAVioBaseChar@@@Z$0:
  00000	8d 8d d8 7f ff
	ff		 lea	 ecx, DWORD PTR _kPacket$607857[ebp]
  00006	e9 00 00 00 00	 jmp	 ??1SP2Packet@@UAE@XZ	; SP2Packet::~SP2Packet
__ehhandler$?ChangeToAttackEnd@ioObjectChargeShotItem@@IAEXPAVioBaseChar@@@Z:
  0000b	8b 54 24 08	 mov	 edx, DWORD PTR [esp+8]
  0000f	8d 42 0c	 lea	 eax, DWORD PTR [edx+12]
  00012	8b 8a c0 7f ff
	ff		 mov	 ecx, DWORD PTR [edx-32832]
  00018	33 c8		 xor	 ecx, eax
  0001a	e8 00 00 00 00	 call	 @__security_check_cookie@4
  0001f	8b 4a fc	 mov	 ecx, DWORD PTR [edx-4]
  00022	33 c8		 xor	 ecx, eax
  00024	e8 00 00 00 00	 call	 @__security_check_cookie@4
  00029	b8 00 00 00 00	 mov	 eax, OFFSET __ehfuncinfo$?ChangeToAttackEnd@ioObjectChargeShotItem@@IAEXPAVioBaseChar@@@Z
  0002e	e9 00 00 00 00	 jmp	 ___CxxFrameHandler3
text$x	ENDS
?ChangeToAttackEnd@ioObjectChargeShotItem@@IAEXPAVioBaseChar@@@Z ENDP ; ioObjectChargeShotItem::ChangeToAttackEnd
PUBLIC	__real@4066800000000000
PUBLIC	__real@4046800000000000
PUBLIC	_pOwner$GSCopy$
PUBLIC	__$ArrayPad$
PUBLIC	?CheckKeyInput@ioObjectChargeShotItem@@IAEXPAVioBaseChar@@@Z ; ioObjectChargeShotItem::CheckKeyInput
EXTRN	??6SP2Packet@@QAEAAV0@_N@Z:PROC			; SP2Packet::operator<<
EXTRN	__imp_?AngleGap@ioMath@@SAMMM@Z:PROC
EXTRN	__imp_?QuaterToYaw@ioMath@@SAMABUD3DXQUATERNION@@@Z:PROC
EXTRN	__imp_??D@YA?AUD3DXVECTOR3@@ABUD3DXQUATERNION@@ABU0@@Z:PROC
EXTRN	_D3DXQuaternionRotationYawPitchRoll@16:PROC
EXTRN	__imp_?ArrangeHead@ioMath@@SAMM@Z:PROC
EXTRN	?CheckCurDirKey@ioBaseChar@@QAE?AW4DirKeyInput@ioUserKeyInput@@XZ:PROC ; ioBaseChar::CheckCurDirKey
EXTRN	?IsSettedDirection@ioBaseChar@@QBE_NXZ:PROC	; ioBaseChar::IsSettedDirection
;	COMDAT __real@4066800000000000
; File d:\lost saga for developer\youtube\tutorial\source\src\lsclient\stdafx.h
CONST	SEGMENT
__real@4066800000000000 DQ 04066800000000000r	; 180
CONST	ENDS
;	COMDAT __real@4046800000000000
CONST	SEGMENT
__real@4046800000000000 DQ 04046800000000000r	; 45
CONST	ENDS
;	COMDAT xdata$x
xdata$x	SEGMENT
__unwindtable$?CheckKeyInput@ioObjectChargeShotItem@@IAEXPAVioBaseChar@@@Z DD 0ffffffffH
	DD	FLAT:__unwindfunclet$?CheckKeyInput@ioObjectChargeShotItem@@IAEXPAVioBaseChar@@@Z$0
	DD	0ffffffffH
	DD	FLAT:__unwindfunclet$?CheckKeyInput@ioObjectChargeShotItem@@IAEXPAVioBaseChar@@@Z$1
__ehfuncinfo$?CheckKeyInput@ioObjectChargeShotItem@@IAEXPAVioBaseChar@@@Z DD 019930522H
	DD	02H
	DD	FLAT:__unwindtable$?CheckKeyInput@ioObjectChargeShotItem@@IAEXPAVioBaseChar@@@Z
	DD	2 DUP(00H)
	DD	2 DUP(00H)
	DD	00H
	DD	01H
; Function compile flags: /Ogsp
; File d:\lost saga for developer\youtube\tutorial\source\src\lsclient\ioobjectchargeshotitem.cpp
xdata$x	ENDS
;	COMDAT ?CheckKeyInput@ioObjectChargeShotItem@@IAEXPAVioBaseChar@@@Z
_TEXT	SEGMENT
_qtCurRot$607911 = -65672				; size = 16
_qtRotate$607905 = -65656				; size = 16
_eNewDirKey$607897 = -65640				; size = 4
_pOwner$GSCopy$ = -65636				; size = 4
_fTargetYaw$607915 = -65632				; size = 4
tv400 = -65628						; size = 4
tv375 = -65628						; size = 4
$T619636 = -65628					; size = 4
_fRotAngle$607920 = -65628				; size = 4
_fCurYaw$607914 = -65628				; size = 4
_fYawD$607899 = -65628					; size = 4
_kPacket$607923 = -65624				; size = 32792
_kPacket$607928 = -32832				; size = 32792
_vTargetDir$607906 = -40				; size = 12
_vDir$607910 = -28					; size = 12
$T607908 = -28						; size = 12
__$ArrayPad$ = -16					; size = 4
__$EHRec$ = -12						; size = 12
_pOwner$ = 8						; size = 4
?CheckKeyInput@ioObjectChargeShotItem@@IAEXPAVioBaseChar@@@Z PROC ; ioObjectChargeShotItem::CheckKeyInput, COMDAT
; _this$ = ecx

; 495  : {

  00000	55		 push	 ebp
  00001	8b ec		 mov	 ebp, esp
  00003	6a ff		 push	 -1
  00005	68 00 00 00 00	 push	 __ehhandler$?CheckKeyInput@ioObjectChargeShotItem@@IAEXPAVioBaseChar@@@Z
  0000a	64 a1 00 00 00
	00		 mov	 eax, DWORD PTR fs:0
  00010	50		 push	 eax
  00011	b8 7c 00 01 00	 mov	 eax, 65660		; 0001007cH
  00016	e8 00 00 00 00	 call	 __chkstk
  0001b	a1 00 00 00 00	 mov	 eax, DWORD PTR ___security_cookie
  00020	33 c5		 xor	 eax, ebp
  00022	89 45 f0	 mov	 DWORD PTR __$ArrayPad$[ebp], eax
  00025	53		 push	 ebx
  00026	56		 push	 esi
  00027	57		 push	 edi
  00028	50		 push	 eax
  00029	8d 45 f4	 lea	 eax, DWORD PTR __$EHRec$[ebp]
  0002c	64 a3 00 00 00
	00		 mov	 DWORD PTR fs:0, eax
  00032	8b 75 08	 mov	 esi, DWORD PTR _pOwner$[ebp]
  00035	8b d9		 mov	 ebx, ecx

; 551  : 			{
; 552  : 				SP2Packet kPacket( CUPK_ITEM_GAUGE_OK );

  00037	89 b5 9c ff fe
	ff		 mov	 DWORD PTR _pOwner$GSCopy$[ebp], esi
  0003d	85 f6		 test	 esi, esi
  0003f	0f 84 31 03 00
	00		 je	 $LN1@CheckKeyIn

; 496  : 	if( !pOwner ) return;
; 497  : 	if( !pOwner->IsNeedProcess() ) return;

  00045	8b 06		 mov	 eax, DWORD PTR [esi]
  00047	8b ce		 mov	 ecx, esi
  00049	ff 90 00 01 00
	00		 call	 DWORD PTR [eax+256]
  0004f	84 c0		 test	 al, al
  00051	0f 84 1f 03 00
	00		 je	 $LN1@CheckKeyIn

; 498  : 
; 499  : 	if( pOwner->IsSettedDirection() )

  00057	8b ce		 mov	 ecx, esi
  00059	e8 00 00 00 00	 call	 ?IsSettedDirection@ioBaseChar@@QBE_NXZ ; ioBaseChar::IsSettedDirection
  0005e	84 c0		 test	 al, al
  00060	0f 84 7a 02 00
	00		 je	 $LN8@CheckKeyIn

; 500  : 	{
; 501  : 		ioUserKeyInput::DirKeyInput eNewDirKey = pOwner->CheckCurDirKey();

  00066	8b ce		 mov	 ecx, esi
  00068	e8 00 00 00 00	 call	 ?CheckCurDirKey@ioBaseChar@@QAE?AW4DirKeyInput@ioUserKeyInput@@XZ ; ioBaseChar::CheckCurDirKey
  0006d	89 85 98 ff fe
	ff		 mov	 DWORD PTR _eNewDirKey$607897[ebp], eax

; 502  : 		if( eNewDirKey != m_CurDirKey )

  00073	3b 83 4c 1f 00
	00		 cmp	 eax, DWORD PTR [ebx+8012]
  00079	0f 84 f7 02 00
	00		 je	 $LN1@CheckKeyIn

; 503  : 		{
; 504  : 			float fYawD = 180.0f + 45.0f * ( eNewDirKey - ioUserKeyInput::DKI_UP );
; 505  : 			fYawD = ioMath::ArrangeHead( fYawD );

  0007f	0f 57 c0	 xorps	 xmm0, xmm0
  00082	48		 dec	 eax
  00083	f3 0f 2a c0	 cvtsi2ss xmm0, eax
  00087	0f 5a c0	 cvtps2pd xmm0, xmm0
  0008a	f2 0f 59 05 00
	00 00 00	 mulsd	 xmm0, QWORD PTR __real@4046800000000000
  00092	f2 0f 58 05 00
	00 00 00	 addsd	 xmm0, QWORD PTR __real@4066800000000000
  0009a	51		 push	 ecx
  0009b	66 0f 5a c0	 cvtpd2ps xmm0, xmm0
  0009f	f3 0f 11 04 24	 movss	 DWORD PTR [esp], xmm0
  000a4	ff 15 00 00 00
	00		 call	 DWORD PTR __imp_?ArrangeHead@ioMath@@SAMM@Z
  000aa	d9 9d a4 ff fe
	ff		 fstp	 DWORD PTR _fYawD$607899[ebp]

; 506  : 
; 507  : 			float fYawR = DEGtoRAD( fYawD );

  000b0	f3 0f 10 85 a4
	ff fe ff	 movss	 xmm0, DWORD PTR _fYawD$607899[ebp]
  000b8	0f 5a c0	 cvtps2pd xmm0, xmm0
  000bb	f2 0f 59 05 00
	00 00 00	 mulsd	 xmm0, QWORD PTR __real@3f91df46a2526c7a
  000c3	66 0f 5a c8	 cvtpd2ps xmm1, xmm0

; 508  : 			D3DXQUATERNION qtRotate;
; 509  : 			D3DXQuaternionRotationYawPitchRoll( &qtRotate, fYawR, 0.0f, 0.0f );

  000c7	0f 57 c0	 xorps	 xmm0, xmm0
  000ca	f3 0f 11 04 24	 movss	 DWORD PTR [esp], xmm0
  000cf	51		 push	 ecx
  000d0	51		 push	 ecx
  000d1	f3 0f 11 44 24
	04		 movss	 DWORD PTR [esp+4], xmm0
  000d7	8d 85 88 ff fe
	ff		 lea	 eax, DWORD PTR _qtRotate$607905[ebp]
  000dd	f3 0f 11 0c 24	 movss	 DWORD PTR [esp], xmm1
  000e2	50		 push	 eax
  000e3	e8 00 00 00 00	 call	 _D3DXQuaternionRotationYawPitchRoll@16

; 510  : 
; 511  : 			D3DXVECTOR3 vTargetDir = qtRotate * D3DXVECTOR3( 0.0f, 0.0f, -FLOAT1 );

  000e8	b8 01 00 00 00	 mov	 eax, 1
  000ed	0f 57 c0	 xorps	 xmm0, xmm0
  000f0	89 85 a4 ff fe
	ff		 mov	 DWORD PTR tv400[ebp], eax
  000f6	db 85 a4 ff fe
	ff		 fild	 DWORD PTR tv400[ebp]
  000fc	f3 0f 11 45 e4	 movss	 DWORD PTR $T607908[ebp], xmm0
  00101	f3 0f 11 45 e8	 movss	 DWORD PTR $T607908[ebp+4], xmm0
  00106	85 c0		 test	 eax, eax
  00108	79 06		 jns	 SHORT $LN33@CheckKeyIn
  0010a	d8 05 00 00 00
	00		 fadd	 DWORD PTR __real@4f800000
$LN33@CheckKeyIn:
  00110	8d 45 e4	 lea	 eax, DWORD PTR $T607908[ebp]
  00113	d9 e0		 fchs
  00115	50		 push	 eax
  00116	d9 5d ec	 fstp	 DWORD PTR $T607908[ebp+8]
  00119	8d 85 88 ff fe
	ff		 lea	 eax, DWORD PTR _qtRotate$607905[ebp]
  0011f	50		 push	 eax
  00120	8d 45 d8	 lea	 eax, DWORD PTR _vTargetDir$607906[ebp]
  00123	50		 push	 eax
  00124	ff 15 00 00 00
	00		 call	 DWORD PTR __imp_??D@YA?AUD3DXVECTOR3@@ABUD3DXQUATERNION@@ABU0@@Z

; 512  : 			D3DXVECTOR3 vDir = pOwner->GetMoveDir();

  0012a	81 c6 b4 06 00
	00		 add	 esi, 1716		; 000006b4H
  00130	8d 7d e4	 lea	 edi, DWORD PTR _vDir$607910[ebp]
  00133	a5		 movsd
  00134	a5		 movsd
  00135	a5		 movsd

; 513  : 			D3DXQUATERNION qtCurRot = pOwner->GetTargetRot();
; 514  : 
; 515  : 			m_bTargetRot = false;
; 516  : 			m_bLeftRot = false;
; 517  : 			if( D3DXVec3Dot( &vTargetDir, &vDir ) > -FLOAT1 )

  00136	d9 45 e8	 fld	 DWORD PTR _vDir$607910[ebp+4]
  00139	d8 4d dc	 fmul	 DWORD PTR _vTargetDir$607906[ebp+4]
  0013c	8b b5 9c ff fe
	ff		 mov	 esi, DWORD PTR _pOwner$GSCopy$[ebp]
  00142	d9 45 d8	 fld	 DWORD PTR _vTargetDir$607906[ebp]
  00145	d8 4d e4	 fmul	 DWORD PTR _vDir$607910[ebp]
  00148	81 c6 a4 06 00
	00		 add	 esi, 1700		; 000006a4H
  0014e	8d bd 78 ff fe
	ff		 lea	 edi, DWORD PTR _qtCurRot$607911[ebp]
  00154	a5		 movsd
  00155	de c1		 faddp	 ST(1), ST(0)
  00157	d9 45 ec	 fld	 DWORD PTR _vDir$607910[ebp+8]
  0015a	d8 4d e0	 fmul	 DWORD PTR _vTargetDir$607906[ebp+8]
  0015d	a5		 movsd
  0015e	de c1		 faddp	 ST(1), ST(0)
  00160	a5		 movsd
  00161	d9 9d a4 ff fe
	ff		 fstp	 DWORD PTR $T619636[ebp]
  00167	a5		 movsd
  00168	83 c4 0c	 add	 esp, 12			; 0000000cH
  0016b	66 c7 83 48 1f
	00 00 00 00	 mov	 WORD PTR [ebx+8008], 0
  00174	b8 01 00 00 00	 mov	 eax, 1
  00179	d9 85 a4 ff fe
	ff		 fld	 DWORD PTR $T619636[ebp]
  0017f	89 85 a4 ff fe
	ff		 mov	 DWORD PTR tv375[ebp], eax
  00185	db 85 a4 ff fe
	ff		 fild	 DWORD PTR tv375[ebp]
  0018b	85 c0		 test	 eax, eax
  0018d	79 06		 jns	 SHORT $LN34@CheckKeyIn
  0018f	d8 05 00 00 00
	00		 fadd	 DWORD PTR __real@4f800000
$LN34@CheckKeyIn:
  00195	d9 e0		 fchs
  00197	d9 c9		 fxch	 ST(1)
  00199	df f1		 fcomip	 ST(1)
  0019b	dd d8		 fstp	 ST(0)
  0019d	0f 86 a7 00 00
	00		 jbe	 $LN5@CheckKeyIn

; 518  : 			{
; 519  : 				float fCurYaw, fTargetYaw;
; 520  : 				fCurYaw = RADtoDEG( ioMath::QuaterToYaw( qtCurRot ) );

  001a3	8d 85 78 ff fe
	ff		 lea	 eax, DWORD PTR _qtCurRot$607911[ebp]
  001a9	50		 push	 eax
  001aa	ff 15 00 00 00
	00		 call	 DWORD PTR __imp_?QuaterToYaw@ioMath@@SAMABUD3DXQUATERNION@@@Z
  001b0	d9 1c 24	 fstp	 DWORD PTR [esp]
  001b3	e8 00 00 00 00	 call	 ??$RADtoDEG@M@@YAMM@Z	; RADtoDEG<float>
  001b8	d9 9d a4 ff fe
	ff		 fstp	 DWORD PTR _fCurYaw$607914[ebp]

; 521  : 				fTargetYaw = RADtoDEG( ioMath::QuaterToYaw( qtRotate ) );

  001be	8d 85 88 ff fe
	ff		 lea	 eax, DWORD PTR _qtRotate$607905[ebp]
  001c4	50		 push	 eax
  001c5	ff 15 00 00 00
	00		 call	 DWORD PTR __imp_?QuaterToYaw@ioMath@@SAMABUD3DXQUATERNION@@@Z
  001cb	59		 pop	 ecx
  001cc	d9 1c 24	 fstp	 DWORD PTR [esp]
  001cf	e8 00 00 00 00	 call	 ??$RADtoDEG@M@@YAMM@Z	; RADtoDEG<float>

; 522  : 
; 523  : 				fCurYaw = ioMath::ArrangeHead( fCurYaw );

  001d4	f3 0f 10 85 a4
	ff fe ff	 movss	 xmm0, DWORD PTR _fCurYaw$607914[ebp]
  001dc	d9 9d a0 ff fe
	ff		 fstp	 DWORD PTR _fTargetYaw$607915[ebp]
  001e2	f3 0f 11 04 24	 movss	 DWORD PTR [esp], xmm0
  001e7	ff 15 00 00 00
	00		 call	 DWORD PTR __imp_?ArrangeHead@ioMath@@SAMM@Z
  001ed	d9 9d a4 ff fe
	ff		 fstp	 DWORD PTR _fCurYaw$607914[ebp]

; 524  : 				fTargetYaw = ioMath::ArrangeHead( fTargetYaw );

  001f3	f3 0f 10 85 a0
	ff fe ff	 movss	 xmm0, DWORD PTR _fTargetYaw$607915[ebp]
  001fb	f3 0f 11 04 24	 movss	 DWORD PTR [esp], xmm0
  00200	ff 15 00 00 00
	00		 call	 DWORD PTR __imp_?ArrangeHead@ioMath@@SAMM@Z
  00206	d9 9d a0 ff fe
	ff		 fstp	 DWORD PTR _fTargetYaw$607915[ebp]

; 525  : 
; 526  : 				float fRotAngle = ioMath::AngleGap( fCurYaw, fTargetYaw );

  0020c	f3 0f 10 85 a0
	ff fe ff	 movss	 xmm0, DWORD PTR _fTargetYaw$607915[ebp]
  00214	f3 0f 11 04 24	 movss	 DWORD PTR [esp], xmm0
  00219	f3 0f 10 85 a4
	ff fe ff	 movss	 xmm0, DWORD PTR _fCurYaw$607914[ebp]
  00221	51		 push	 ecx
  00222	f3 0f 11 04 24	 movss	 DWORD PTR [esp], xmm0
  00227	ff 15 00 00 00
	00		 call	 DWORD PTR __imp_?AngleGap@ioMath@@SAMMM@Z
  0022d	d9 9d a4 ff fe
	ff		 fstp	 DWORD PTR _fRotAngle$607920[ebp]

; 527  : 				if( fRotAngle < 0.0f )

  00233	d9 85 a4 ff fe
	ff		 fld	 DWORD PTR _fRotAngle$607920[ebp]
  00239	59		 pop	 ecx
  0023a	d9 ee		 fldz
  0023c	59		 pop	 ecx
  0023d	df f1		 fcomip	 ST(1)
  0023f	dd d8		 fstp	 ST(0)
  00241	76 07		 jbe	 SHORT $LN5@CheckKeyIn

; 528  : 					m_bLeftRot = true;

  00243	c6 83 49 1f 00
	00 01		 mov	 BYTE PTR [ebx+8009], 1
$LN5@CheckKeyIn:

; 529  : 			}
; 530  : 
; 531  : 			m_CurDirKey = eNewDirKey;

  0024a	8b 85 98 ff fe
	ff		 mov	 eax, DWORD PTR _eNewDirKey$607897[ebp]

; 532  : 
; 533  : 			if( pOwner->IsNeedSendNetwork() )

  00250	8b 8d 9c ff fe
	ff		 mov	 ecx, DWORD PTR _pOwner$GSCopy$[ebp]
  00256	89 83 4c 1f 00
	00		 mov	 DWORD PTR [ebx+8012], eax
  0025c	8b 01		 mov	 eax, DWORD PTR [ecx]
  0025e	ff 90 04 01 00
	00		 call	 DWORD PTR [eax+260]
  00264	84 c0		 test	 al, al
  00266	0f 84 0a 01 00
	00		 je	 $LN1@CheckKeyIn

; 534  : 			{
; 535  : 				SP2Packet kPacket( CUPK_ITEM_GAUGE_OK );

  0026c	68 27 41 00 00	 push	 16679			; 00004127H
  00271	8d 8d a8 ff fe
	ff		 lea	 ecx, DWORD PTR _kPacket$607923[ebp]
  00277	e8 00 00 00 00	 call	 ??0SP2Packet@@QAE@K@Z	; SP2Packet::SP2Packet
  0027c	83 65 fc 00	 and	 DWORD PTR __$EHRec$[ebp+8], 0

; 536  : 				FillItemGaugePacketHeader( pOwner, kPacket );

  00280	8d 85 a8 ff fe
	ff		 lea	 eax, DWORD PTR _kPacket$607923[ebp]
  00286	50		 push	 eax
  00287	ff b5 9c ff fe
	ff		 push	 DWORD PTR _pOwner$GSCopy$[ebp]
  0028d	8b cb		 mov	 ecx, ebx
  0028f	e8 00 00 00 00	 call	 ?FillItemGaugePacketHeader@ioAttackableItem@@QAEXPAVioBaseChar@@AAVSP2Packet@@@Z ; ioAttackableItem::FillItemGaugePacketHeader

; 537  : 				kPacket << SS_ROTATE;

  00294	6a 01		 push	 1
  00296	8d 8d a8 ff fe
	ff		 lea	 ecx, DWORD PTR _kPacket$607923[ebp]
  0029c	e8 00 00 00 00	 call	 ??6SP2Packet@@QAEAAV0@H@Z ; SP2Packet::operator<<

; 538  : 				kPacket << (int)m_CurDirKey;

  002a1	ff b3 4c 1f 00
	00		 push	 DWORD PTR [ebx+8012]
  002a7	8d 8d a8 ff fe
	ff		 lea	 ecx, DWORD PTR _kPacket$607923[ebp]
  002ad	e8 00 00 00 00	 call	 ??6SP2Packet@@QAEAAV0@H@Z ; SP2Packet::operator<<

; 539  : 				kPacket << m_bLeftRot;

  002b2	0f b6 83 49 1f
	00 00		 movzx	 eax, BYTE PTR [ebx+8009]
  002b9	50		 push	 eax
  002ba	8d 8d a8 ff fe
	ff		 lea	 ecx, DWORD PTR _kPacket$607923[ebp]
  002c0	e8 00 00 00 00	 call	 ??6SP2Packet@@QAEAAV0@_N@Z ; SP2Packet::operator<<

; 540  : 				P2PNetwork::SendToAllPlayingUser( kPacket );

  002c5	8d 85 a8 ff fe
	ff		 lea	 eax, DWORD PTR _kPacket$607923[ebp]
  002cb	6a 00		 push	 0
  002cd	50		 push	 eax
  002ce	e8 00 00 00 00	 call	 ?SendToAllPlayingUser@P2PNetwork@@YAXAAVSP2Packet@@PAVioBaseChar@@@Z ; P2PNetwork::SendToAllPlayingUser
  002d3	59		 pop	 ecx
  002d4	59		 pop	 ecx

; 541  : 			}

  002d5	8d 8d a8 ff fe
	ff		 lea	 ecx, DWORD PTR _kPacket$607923[ebp]

; 542  : 		}
; 543  : 	}
; 544  : 	else

  002db	e9 8d 00 00 00	 jmp	 $LN35@CheckKeyIn
$LN8@CheckKeyIn:

; 545  : 	{
; 546  : 		if( m_CurDirKey != ioUserKeyInput::DKI_NONE )

  002e0	83 bb 4c 1f 00
	00 00		 cmp	 DWORD PTR [ebx+8012], 0
  002e7	0f 84 89 00 00
	00		 je	 $LN1@CheckKeyIn

; 547  : 		{
; 548  : 			m_CurDirKey = ioUserKeyInput::DKI_NONE;

  002ed	83 a3 4c 1f 00
	00 00		 and	 DWORD PTR [ebx+8012], 0

; 549  : 
; 550  : 			if( pOwner->IsNeedSendNetwork() )

  002f4	8b 06		 mov	 eax, DWORD PTR [esi]
  002f6	8b ce		 mov	 ecx, esi
  002f8	ff 90 04 01 00
	00		 call	 DWORD PTR [eax+260]
  002fe	84 c0		 test	 al, al
  00300	74 74		 je	 SHORT $LN1@CheckKeyIn

; 551  : 			{
; 552  : 				SP2Packet kPacket( CUPK_ITEM_GAUGE_OK );

  00302	68 27 41 00 00	 push	 16679			; 00004127H
  00307	8d 8d c0 7f ff
	ff		 lea	 ecx, DWORD PTR _kPacket$607928[ebp]
  0030d	e8 00 00 00 00	 call	 ??0SP2Packet@@QAE@K@Z	; SP2Packet::SP2Packet

; 553  : 				FillItemGaugePacketHeader( pOwner, kPacket );

  00312	8d 85 c0 7f ff
	ff		 lea	 eax, DWORD PTR _kPacket$607928[ebp]
  00318	33 ff		 xor	 edi, edi
  0031a	50		 push	 eax
  0031b	47		 inc	 edi
  0031c	56		 push	 esi
  0031d	8b cb		 mov	 ecx, ebx
  0031f	89 7d fc	 mov	 DWORD PTR __$EHRec$[ebp+8], edi
  00322	e8 00 00 00 00	 call	 ?FillItemGaugePacketHeader@ioAttackableItem@@QAEXPAVioBaseChar@@AAVSP2Packet@@@Z ; ioAttackableItem::FillItemGaugePacketHeader

; 554  : 				kPacket << SS_ROTATE;

  00327	57		 push	 edi
  00328	8d 8d c0 7f ff
	ff		 lea	 ecx, DWORD PTR _kPacket$607928[ebp]
  0032e	e8 00 00 00 00	 call	 ??6SP2Packet@@QAEAAV0@H@Z ; SP2Packet::operator<<

; 555  : 				kPacket << (int)m_CurDirKey;

  00333	ff b3 4c 1f 00
	00		 push	 DWORD PTR [ebx+8012]
  00339	8d 8d c0 7f ff
	ff		 lea	 ecx, DWORD PTR _kPacket$607928[ebp]
  0033f	e8 00 00 00 00	 call	 ??6SP2Packet@@QAEAAV0@H@Z ; SP2Packet::operator<<

; 556  : 				kPacket << m_bLeftRot;

  00344	0f b6 83 49 1f
	00 00		 movzx	 eax, BYTE PTR [ebx+8009]
  0034b	50		 push	 eax
  0034c	8d 8d c0 7f ff
	ff		 lea	 ecx, DWORD PTR _kPacket$607928[ebp]
  00352	e8 00 00 00 00	 call	 ??6SP2Packet@@QAEAAV0@_N@Z ; SP2Packet::operator<<

; 557  : 				P2PNetwork::SendToAllPlayingUser( kPacket );

  00357	8d 85 c0 7f ff
	ff		 lea	 eax, DWORD PTR _kPacket$607928[ebp]
  0035d	6a 00		 push	 0
  0035f	50		 push	 eax
  00360	e8 00 00 00 00	 call	 ?SendToAllPlayingUser@P2PNetwork@@YAXAAVSP2Packet@@PAVioBaseChar@@@Z ; P2PNetwork::SendToAllPlayingUser
  00365	59		 pop	 ecx
  00366	59		 pop	 ecx

; 558  : 			}

  00367	8d 8d c0 7f ff
	ff		 lea	 ecx, DWORD PTR _kPacket$607928[ebp]
$LN35@CheckKeyIn:
  0036d	83 4d fc ff	 or	 DWORD PTR __$EHRec$[ebp+8], -1
  00371	e8 00 00 00 00	 call	 ??1SP2Packet@@UAE@XZ	; SP2Packet::~SP2Packet
$LN1@CheckKeyIn:

; 559  : 		}
; 560  : 	}
; 561  : }

  00376	8b 4d f4	 mov	 ecx, DWORD PTR __$EHRec$[ebp]
  00379	64 89 0d 00 00
	00 00		 mov	 DWORD PTR fs:0, ecx
  00380	59		 pop	 ecx
  00381	5f		 pop	 edi
  00382	5e		 pop	 esi
  00383	5b		 pop	 ebx
  00384	8b 4d f0	 mov	 ecx, DWORD PTR __$ArrayPad$[ebp]
  00387	33 cd		 xor	 ecx, ebp
  00389	e8 00 00 00 00	 call	 @__security_check_cookie@4
  0038e	c9		 leave
  0038f	c2 04 00	 ret	 4
_TEXT	ENDS
;	COMDAT text$x
text$x	SEGMENT
__unwindfunclet$?CheckKeyInput@ioObjectChargeShotItem@@IAEXPAVioBaseChar@@@Z$0:
  00000	8d 8d a8 ff fe
	ff		 lea	 ecx, DWORD PTR _kPacket$607923[ebp]
  00006	e9 00 00 00 00	 jmp	 ??1SP2Packet@@UAE@XZ	; SP2Packet::~SP2Packet
__unwindfunclet$?CheckKeyInput@ioObjectChargeShotItem@@IAEXPAVioBaseChar@@@Z$1:
  0000b	8d 8d c0 7f ff
	ff		 lea	 ecx, DWORD PTR _kPacket$607928[ebp]
  00011	e9 00 00 00 00	 jmp	 ??1SP2Packet@@UAE@XZ	; SP2Packet::~SP2Packet
__ehhandler$?CheckKeyInput@ioObjectChargeShotItem@@IAEXPAVioBaseChar@@@Z:
  00016	8b 54 24 08	 mov	 edx, DWORD PTR [esp+8]
  0001a	8d 42 0c	 lea	 eax, DWORD PTR [edx+12]
  0001d	8b 8a 74 ff fe
	ff		 mov	 ecx, DWORD PTR [edx-65676]
  00023	33 c8		 xor	 ecx, eax
  00025	e8 00 00 00 00	 call	 @__security_check_cookie@4
  0002a	8b 4a fc	 mov	 ecx, DWORD PTR [edx-4]
  0002d	33 c8		 xor	 ecx, eax
  0002f	e8 00 00 00 00	 call	 @__security_check_cookie@4
  00034	b8 00 00 00 00	 mov	 eax, OFFSET __ehfuncinfo$?CheckKeyInput@ioObjectChargeShotItem@@IAEXPAVioBaseChar@@@Z
  00039	e9 00 00 00 00	 jmp	 ___CxxFrameHandler3
text$x	ENDS
?CheckKeyInput@ioObjectChargeShotItem@@IAEXPAVioBaseChar@@@Z ENDP ; ioObjectChargeShotItem::CheckKeyInput
PUBLIC	__real@bff0000000000000
PUBLIC	__real@408f400000000000
PUBLIC	_pOwner$GSCopy$
PUBLIC	__$ArrayPad$
PUBLIC	?ProcessRotate@ioObjectChargeShotItem@@IAEXPAVioBaseChar@@@Z ; ioObjectChargeShotItem::ProcessRotate
EXTRN	?SetTargetRotToRotate@ioBaseChar@@QAEXABUD3DXQUATERNION@@_N1@Z:PROC ; ioBaseChar::SetTargetRotToRotate
EXTRN	__imp_?CalcDirectionQuaternion@ioMath@@SAXAAUD3DXQUATERNION@@ABUD3DXVECTOR3@@@Z:PROC
EXTRN	__imp_?GetSecPerFrame@ioFrameTimer@@QBEMXZ:PROC
;	COMDAT __real@bff0000000000000
; File c:\program files (x86)\microsoft directx sdk (june 2010)\include\d3dx9math.inl
CONST	SEGMENT
__real@bff0000000000000 DQ 0bff0000000000000r	; -1
CONST	ENDS
;	COMDAT __real@408f400000000000
CONST	SEGMENT
__real@408f400000000000 DQ 0408f400000000000r	; 1000
; Function compile flags: /Ogsp
; File d:\lost saga for developer\youtube\tutorial\source\src\lsclient\ioobjectchargeshotitem.cpp
CONST	ENDS
;	COMDAT ?ProcessRotate@ioObjectChargeShotItem@@IAEXPAVioBaseChar@@@Z
_TEXT	SEGMENT
_qtCurRot$ = -92					; size = 16
_qtRotate$ = -76					; size = 16
_qtAngle$ = -60						; size = 16
tv254 = -44						; size = 4
_pOwner$GSCopy$ = -44					; size = 4
_value$619668 = -40					; size = 4
_fTargetYaw$ = -40					; size = 4
_fRotateAngle$ = -36					; size = 4
tv378 = -32						; size = 4
tv376 = -32						; size = 4
tv372 = -32						; size = 4
tv255 = -32						; size = 4
_value$619664 = -32					; size = 4
_fCurYaw$ = -32						; size = 4
_fYawR$ = -32						; size = 4
_fTimePerSec$ = -32					; size = 4
$T607955 = -28						; size = 12
$T607954 = -28						; size = 12
_vDir$ = -16						; size = 12
__$ArrayPad$ = -4					; size = 4
_pOwner$ = 8						; size = 4
?ProcessRotate@ioObjectChargeShotItem@@IAEXPAVioBaseChar@@@Z PROC ; ioObjectChargeShotItem::ProcessRotate, COMDAT
; _this$ = ecx

; 564  : {

  00000	55		 push	 ebp
  00001	8b ec		 mov	 ebp, esp
  00003	83 ec 5c	 sub	 esp, 92			; 0000005cH
  00006	a1 00 00 00 00	 mov	 eax, DWORD PTR ___security_cookie
  0000b	33 c5		 xor	 eax, ebp
  0000d	89 45 fc	 mov	 DWORD PTR __$ArrayPad$[ebp], eax
  00010	53		 push	 ebx
  00011	56		 push	 esi
  00012	8b 75 08	 mov	 esi, DWORD PTR _pOwner$[ebp]
  00015	8b d9		 mov	 ebx, ecx

; 599  : 	}
; 600  : 
; 601  : 	if( m_bLeftRot )

  00017	89 75 d4	 mov	 DWORD PTR _pOwner$GSCopy$[ebp], esi
  0001a	85 f6		 test	 esi, esi
  0001c	0f 84 5a 02 00
	00		 je	 $LN7@ProcessRot

; 565  : 	if( !pOwner ) return;
; 566  : 	if( m_dwRotateTime <= 0 ) return;

  00022	57		 push	 edi
  00023	8d 45 e0	 lea	 eax, DWORD PTR _value$619664[ebp]
  00026	50		 push	 eax
  00027	8d 8b 18 1f 00
	00		 lea	 ecx, DWORD PTR [ebx+7960]
  0002d	e8 00 00 00 00	 call	 ?DecryptValueToPool@?$CEncrypt@K@@QAEXPAK@Z ; CEncrypt<unsigned long>::DecryptValueToPool
  00032	83 7d e0 00	 cmp	 DWORD PTR _value$619664[ebp], 0
  00036	0f 86 3f 02 00
	00		 jbe	 $LN36@ProcessRot

; 567  : 	if( m_bTargetRot ) return;

  0003c	80 bb 48 1f 00
	00 00		 cmp	 BYTE PTR [ebx+8008], 0
  00043	0f 85 32 02 00
	00		 jne	 $LN36@ProcessRot

; 568  : 
; 569  : 	if( m_CurDirKey == ioUserKeyInput::DKI_NONE )

  00049	83 bb 4c 1f 00
	00 00		 cmp	 DWORD PTR [ebx+8012], 0
  00050	0f 84 25 02 00
	00		 je	 $LN36@ProcessRot

; 570  : 		return;
; 571  : 
; 572  : 	float fTimePerSec = g_FrameTimer.GetSecPerFrame();

  00056	ff 15 00 00 00
	00		 call	 DWORD PTR __imp_?GetSingleton@ioFrameTimer@@SAAAV1@XZ
  0005c	8b c8		 mov	 ecx, eax
  0005e	ff 15 00 00 00
	00		 call	 DWORD PTR __imp_?GetSecPerFrame@ioFrameTimer@@QBEMXZ
  00064	d9 5d e0	 fstp	 DWORD PTR _fTimePerSec$[ebp]

; 573  : 	float fRate = ( fTimePerSec * 1000 ) / m_dwRotateTime;

  00067	8d 45 d8	 lea	 eax, DWORD PTR _value$619668[ebp]
  0006a	50		 push	 eax
  0006b	8d 8b 18 1f 00
	00		 lea	 ecx, DWORD PTR [ebx+7960]
  00071	e8 00 00 00 00	 call	 ?DecryptValueToPool@?$CEncrypt@K@@QAEXPAK@Z ; CEncrypt<unsigned long>::DecryptValueToPool

; 574  : 	float fRotateAngle = FLOAT360 * fRate;

  00076	b8 68 01 00 00	 mov	 eax, 360		; 00000168H
  0007b	d9 45 e0	 fld	 DWORD PTR _fTimePerSec$[ebp]
  0007e	8b 4d d8	 mov	 ecx, DWORD PTR _value$619668[ebp]
  00081	dc 0d 00 00 00
	00		 fmul	 QWORD PTR __real@408f400000000000
  00087	db 45 d8	 fild	 DWORD PTR _value$619668[ebp]
  0008a	85 c9		 test	 ecx, ecx
  0008c	79 06		 jns	 SHORT $LN37@ProcessRot
  0008e	d8 05 00 00 00
	00		 fadd	 DWORD PTR __real@4f800000
$LN37@ProcessRot:

; 573  : 	float fRate = ( fTimePerSec * 1000 ) / m_dwRotateTime;

  00094	de f9		 fdivp	 ST(1), ST(0)

; 574  : 	float fRotateAngle = FLOAT360 * fRate;

  00096	d9 5d e0	 fstp	 DWORD PTR tv376[ebp]
  00099	d9 45 e0	 fld	 DWORD PTR tv376[ebp]
  0009c	89 45 e0	 mov	 DWORD PTR tv372[ebp], eax
  0009f	db 45 e0	 fild	 DWORD PTR tv372[ebp]
  000a2	85 c0		 test	 eax, eax
  000a4	79 06		 jns	 SHORT $LN38@ProcessRot
  000a6	d8 05 00 00 00
	00		 fadd	 DWORD PTR __real@4f800000
$LN38@ProcessRot:

; 575  : 
; 576  : 	//    
; 577  : 	float fYawD = 180.0f + 45.0f * ( m_CurDirKey - ioUserKeyInput::DKI_UP );

  000ac	8b 83 4c 1f 00
	00		 mov	 eax, DWORD PTR [ebx+8012]
  000b2	de c9		 fmulp	 ST(1), ST(0)
  000b4	0f 57 c0	 xorps	 xmm0, xmm0
  000b7	48		 dec	 eax
  000b8	f3 0f 2a c0	 cvtsi2ss xmm0, eax
  000bc	d9 5d dc	 fstp	 DWORD PTR _fRotateAngle$[ebp]
  000bf	0f 5a c0	 cvtps2pd xmm0, xmm0
  000c2	f2 0f 59 05 00
	00 00 00	 mulsd	 xmm0, QWORD PTR __real@4046800000000000
  000ca	f2 0f 58 05 00
	00 00 00	 addsd	 xmm0, QWORD PTR __real@4066800000000000

; 578  : 	fYawD = ioMath::ArrangeHead( fYawD );

  000d2	51		 push	 ecx
  000d3	66 0f 5a c0	 cvtpd2ps xmm0, xmm0
  000d7	f3 0f 11 04 24	 movss	 DWORD PTR [esp], xmm0
  000dc	ff 15 00 00 00
	00		 call	 DWORD PTR __imp_?ArrangeHead@ioMath@@SAMM@Z

; 579  : 
; 580  : 	float fYawR = DEGtoRAD( fYawD );

  000e2	dc 0d 00 00 00
	00		 fmul	 QWORD PTR __real@3f91df46a2526c7a

; 581  : 	D3DXQUATERNION qtRotate;
; 582  : 	D3DXQuaternionRotationYawPitchRoll( &qtRotate, fYawR, 0.0f, 0.0f );

  000e8	0f 57 c0	 xorps	 xmm0, xmm0
  000eb	f3 0f 11 04 24	 movss	 DWORD PTR [esp], xmm0
  000f0	51		 push	 ecx
  000f1	d9 5d e0	 fstp	 DWORD PTR _fYawR$[ebp]
  000f4	51		 push	 ecx
  000f5	f3 0f 11 44 24
	04		 movss	 DWORD PTR [esp+4], xmm0
  000fb	f3 0f 10 45 e0	 movss	 xmm0, DWORD PTR _fYawR$[ebp]
  00100	8d 45 b4	 lea	 eax, DWORD PTR _qtRotate$[ebp]
  00103	f3 0f 11 04 24	 movss	 DWORD PTR [esp], xmm0
  00108	50		 push	 eax
  00109	e8 00 00 00 00	 call	 _D3DXQuaternionRotationYawPitchRoll@16

; 583  : 
; 584  : 	D3DXQUATERNION qtCurRot = pOwner->GetTargetRot();

  0010e	81 c6 a4 06 00
	00		 add	 esi, 1700		; 000006a4H
  00114	8d 7d a4	 lea	 edi, DWORD PTR _qtCurRot$[ebp]
  00117	a5		 movsd
  00118	a5		 movsd
  00119	a5		 movsd

; 585  : 
; 586  : 	float fCurYaw, fTargetYaw;
; 587  : 	fCurYaw = RADtoDEG( ioMath::QuaterToYaw( qtCurRot ) );

  0011a	8d 45 a4	 lea	 eax, DWORD PTR _qtCurRot$[ebp]
  0011d	50		 push	 eax
  0011e	a5		 movsd
  0011f	ff 15 00 00 00
	00		 call	 DWORD PTR __imp_?QuaterToYaw@ioMath@@SAMABUD3DXQUATERNION@@@Z
  00125	d9 1c 24	 fstp	 DWORD PTR [esp]
  00128	e8 00 00 00 00	 call	 ??$RADtoDEG@M@@YAMM@Z	; RADtoDEG<float>

; 588  : 	fTargetYaw = RADtoDEG( ioMath::QuaterToYaw( qtRotate ) );

  0012d	8d 45 b4	 lea	 eax, DWORD PTR _qtRotate$[ebp]
  00130	d9 5d e0	 fstp	 DWORD PTR _fCurYaw$[ebp]
  00133	50		 push	 eax
  00134	ff 15 00 00 00
	00		 call	 DWORD PTR __imp_?QuaterToYaw@ioMath@@SAMABUD3DXQUATERNION@@@Z
  0013a	59		 pop	 ecx
  0013b	d9 1c 24	 fstp	 DWORD PTR [esp]
  0013e	e8 00 00 00 00	 call	 ??$RADtoDEG@M@@YAMM@Z	; RADtoDEG<float>

; 589  : 
; 590  : 	fCurYaw = ioMath::ArrangeHead( fCurYaw );

  00143	f3 0f 10 45 e0	 movss	 xmm0, DWORD PTR _fCurYaw$[ebp]
  00148	d9 5d d8	 fstp	 DWORD PTR _fTargetYaw$[ebp]
  0014b	f3 0f 11 04 24	 movss	 DWORD PTR [esp], xmm0
  00150	ff 15 00 00 00
	00		 call	 DWORD PTR __imp_?ArrangeHead@ioMath@@SAMM@Z
  00156	d9 5d e0	 fstp	 DWORD PTR _fCurYaw$[ebp]

; 591  : 	fTargetYaw = ioMath::ArrangeHead( fTargetYaw );

  00159	f3 0f 10 45 d8	 movss	 xmm0, DWORD PTR _fTargetYaw$[ebp]
  0015e	f3 0f 11 04 24	 movss	 DWORD PTR [esp], xmm0
  00163	ff 15 00 00 00
	00		 call	 DWORD PTR __imp_?ArrangeHead@ioMath@@SAMM@Z
  00169	d9 5d d8	 fstp	 DWORD PTR _fTargetYaw$[ebp]

; 592  : 
; 593  : 	float fRotAngle = ioMath::AngleGap( fCurYaw, fTargetYaw );

  0016c	f3 0f 10 45 d8	 movss	 xmm0, DWORD PTR _fTargetYaw$[ebp]
  00171	f3 0f 11 04 24	 movss	 DWORD PTR [esp], xmm0
  00176	f3 0f 10 45 e0	 movss	 xmm0, DWORD PTR _fCurYaw$[ebp]
  0017b	51		 push	 ecx
  0017c	f3 0f 11 04 24	 movss	 DWORD PTR [esp], xmm0
  00181	ff 15 00 00 00
	00		 call	 DWORD PTR __imp_?AngleGap@ioMath@@SAMMM@Z

; 594  : 	if( fabs( fRotAngle ) < fRotateAngle )

  00187	d9 e1		 fabs
  00189	d9 5d e0	 fstp	 DWORD PTR tv255[ebp]
  0018c	59		 pop	 ecx
  0018d	d9 45 e0	 fld	 DWORD PTR tv255[ebp]
  00190	59		 pop	 ecx
  00191	d9 45 dc	 fld	 DWORD PTR _fRotateAngle$[ebp]
  00194	df f1		 fcomip	 ST(1)
  00196	dd d8		 fstp	 ST(0)
  00198	76 12		 jbe	 SHORT $LN2@ProcessRot

; 595  : 	{
; 596  : 		m_bTargetRot = true;
; 597  : 		pOwner->SetTargetRotToRotate( qtRotate, true, false );

  0019a	8b 4d d4	 mov	 ecx, DWORD PTR _pOwner$GSCopy$[ebp]
  0019d	c6 83 48 1f 00
	00 01		 mov	 BYTE PTR [ebx+8008], 1
  001a4	8d 45 b4	 lea	 eax, DWORD PTR _qtRotate$[ebp]

; 598  : 		return;

  001a7	e9 c5 00 00 00	 jmp	 $LN39@ProcessRot
$LN2@ProcessRot:

; 599  : 	}
; 600  : 
; 601  : 	if( m_bLeftRot )

  001ac	80 bb 49 1f 00
	00 00		 cmp	 BYTE PTR [ebx+8009], 0

; 602  : 		fRotateAngle *= -1;

  001b3	f3 0f 10 45 dc	 movss	 xmm0, DWORD PTR _fRotateAngle$[ebp]
  001b8	74 0f		 je	 SHORT $LN1@ProcessRot
  001ba	0f 5a c0	 cvtps2pd xmm0, xmm0
  001bd	f2 0f 59 05 00
	00 00 00	 mulsd	 xmm0, QWORD PTR __real@bff0000000000000
  001c5	66 0f 5a c0	 cvtpd2ps xmm0, xmm0
$LN1@ProcessRot:

; 603  : 
; 604  : 	fRotateAngle = ioMath::ArrangeHead( fRotateAngle );

  001c9	51		 push	 ecx
  001ca	f3 0f 11 04 24	 movss	 DWORD PTR [esp], xmm0
  001cf	ff 15 00 00 00
	00		 call	 DWORD PTR __imp_?ArrangeHead@ioMath@@SAMM@Z
  001d5	d9 5d dc	 fstp	 DWORD PTR _fRotateAngle$[ebp]

; 605  : 	D3DXVECTOR3 vDir = pOwner->GetMoveDir();

  001d8	8b 5d d4	 mov	 ebx, DWORD PTR _pOwner$GSCopy$[ebp]

; 606  : 
; 607  : 	D3DXQUATERNION qtAngle;
; 608  : 	D3DXQuaternionRotationYawPitchRoll( &qtAngle, DEGtoRAD(fRotateAngle), 0.0f, 0.0f );

  001db	d9 45 dc	 fld	 DWORD PTR _fRotateAngle$[ebp]
  001de	dc 0d 00 00 00
	00		 fmul	 QWORD PTR __real@3f91df46a2526c7a
  001e4	0f 57 c0	 xorps	 xmm0, xmm0
  001e7	f3 0f 11 04 24	 movss	 DWORD PTR [esp], xmm0
  001ec	8d b3 b4 06 00
	00		 lea	 esi, DWORD PTR [ebx+1716]
  001f2	8d 7d f0	 lea	 edi, DWORD PTR _vDir$[ebp]
  001f5	d9 5d d4	 fstp	 DWORD PTR tv254[ebp]
  001f8	d9 45 d4	 fld	 DWORD PTR tv254[ebp]
  001fb	a5		 movsd
  001fc	51		 push	 ecx
  001fd	51		 push	 ecx
  001fe	a5		 movsd
  001ff	f3 0f 11 44 24
	04		 movss	 DWORD PTR [esp+4], xmm0
  00205	8d 45 c4	 lea	 eax, DWORD PTR _qtAngle$[ebp]
  00208	d9 1c 24	 fstp	 DWORD PTR [esp]
  0020b	50		 push	 eax
  0020c	a5		 movsd
  0020d	e8 00 00 00 00	 call	 _D3DXQuaternionRotationYawPitchRoll@16

; 609  : 
; 610  : 	vDir = qtAngle * vDir;

  00212	8d 45 f0	 lea	 eax, DWORD PTR _vDir$[ebp]
  00215	50		 push	 eax
  00216	8d 45 c4	 lea	 eax, DWORD PTR _qtAngle$[ebp]
  00219	50		 push	 eax
  0021a	8d 45 e4	 lea	 eax, DWORD PTR $T607954[ebp]
  0021d	50		 push	 eax
  0021e	ff 15 00 00 00
	00		 call	 DWORD PTR __imp_??D@YA?AUD3DXVECTOR3@@ABUD3DXQUATERNION@@ABU0@@Z

; 611  : 	ioMath::CalcDirectionQuaternion( qtAngle, -vDir );

  00224	f3 0f 10 05 00
	00 00 00	 movss	 xmm0, DWORD PTR __mask@@NegFloat@
  0022c	8b f0		 mov	 esi, eax
  0022e	8d 7d f0	 lea	 edi, DWORD PTR _vDir$[ebp]
  00231	a5		 movsd
  00232	a5		 movsd
  00233	a5		 movsd
  00234	f3 0f 10 4d f0	 movss	 xmm1, DWORD PTR _vDir$[ebp]
  00239	0f 57 c8	 xorps	 xmm1, xmm0
  0023c	f3 0f 11 4d e4	 movss	 DWORD PTR $T607955[ebp], xmm1
  00241	f3 0f 10 4d f4	 movss	 xmm1, DWORD PTR _vDir$[ebp+4]
  00246	0f 57 c8	 xorps	 xmm1, xmm0
  00249	8d 45 e4	 lea	 eax, DWORD PTR $T607955[ebp]
  0024c	50		 push	 eax
  0024d	f3 0f 11 4d e8	 movss	 DWORD PTR $T607955[ebp+4], xmm1
  00252	f3 0f 10 4d f8	 movss	 xmm1, DWORD PTR _vDir$[ebp+8]
  00257	8d 45 c4	 lea	 eax, DWORD PTR _qtAngle$[ebp]
  0025a	0f 57 c8	 xorps	 xmm1, xmm0
  0025d	50		 push	 eax
  0025e	f3 0f 11 4d ec	 movss	 DWORD PTR $T607955[ebp+8], xmm1
  00263	ff 15 00 00 00
	00		 call	 DWORD PTR __imp_?CalcDirectionQuaternion@ioMath@@SAXAAUD3DXQUATERNION@@ABUD3DXVECTOR3@@@Z
  00269	83 c4 14	 add	 esp, 20			; 00000014H

; 612  : 
; 613  : 	pOwner->SetTargetRotToRotate( qtAngle, true, false );

  0026c	8d 45 c4	 lea	 eax, DWORD PTR _qtAngle$[ebp]
  0026f	8b cb		 mov	 ecx, ebx
$LN39@ProcessRot:
  00271	6a 00		 push	 0
  00273	6a 01		 push	 1
  00275	50		 push	 eax
  00276	e8 00 00 00 00	 call	 ?SetTargetRotToRotate@ioBaseChar@@QAEXABUD3DXQUATERNION@@_N1@Z ; ioBaseChar::SetTargetRotToRotate
$LN36@ProcessRot:
  0027b	5f		 pop	 edi
$LN7@ProcessRot:

; 614  : }

  0027c	8b 4d fc	 mov	 ecx, DWORD PTR __$ArrayPad$[ebp]
  0027f	5e		 pop	 esi
  00280	33 cd		 xor	 ecx, ebp
  00282	5b		 pop	 ebx
  00283	e8 00 00 00 00	 call	 @__security_check_cookie@4
  00288	c9		 leave
  00289	c2 04 00	 ret	 4
?ProcessRotate@ioObjectChargeShotItem@@IAEXPAVioBaseChar@@@Z ENDP ; ioObjectChargeShotItem::ProcessRotate
_TEXT	ENDS
PUBLIC	??0?$CEncrypt@K@@QAE@ABV0@@Z			; CEncrypt<unsigned long>::CEncrypt<unsigned long>
;	COMDAT xdata$x
; File d:\lost saga for developer\youtube\tutorial\source\src\lsclient\encryptvalue.h
xdata$x	SEGMENT
__unwindtable$??0?$CEncrypt@K@@QAE@ABV0@@Z DD 0ffffffffH
	DD	FLAT:__unwindfunclet$??0?$CEncrypt@K@@QAE@ABV0@@Z$0
__ehfuncinfo$??0?$CEncrypt@K@@QAE@ABV0@@Z DD 019930522H
	DD	01H
	DD	FLAT:__unwindtable$??0?$CEncrypt@K@@QAE@ABV0@@Z
	DD	2 DUP(00H)
	DD	2 DUP(00H)
	DD	00H
	DD	01H
; Function compile flags: /Ogsp
xdata$x	ENDS
;	COMDAT ??0?$CEncrypt@K@@QAE@ABV0@@Z
_TEXT	SEGMENT
_this$ = -16						; size = 4
__$EHRec$ = -12						; size = 12
_value$619732 = 8					; size = 4
_value$619727 = 8					; size = 4
_inValue$ = 8						; size = 4
??0?$CEncrypt@K@@QAE@ABV0@@Z PROC			; CEncrypt<unsigned long>::CEncrypt<unsigned long>, COMDAT
; _this$ = ecx

; 120  : 	CEncrypt( const CEncrypt<type> &inValue )   //     

  00000	6a 04		 push	 4
  00002	b8 00 00 00 00	 mov	 eax, __ehhandler$??0?$CEncrypt@K@@QAE@ABV0@@Z
  00007	e8 00 00 00 00	 call	 __EH_prolog3
  0000c	8b f1		 mov	 esi, ecx
  0000e	89 75 f0	 mov	 DWORD PTR _this$[ebp], esi
  00011	8d 4e 0c	 lea	 ecx, DWORD PTR [esi+12]
  00014	c7 06 00 00 00
	00		 mov	 DWORD PTR [esi], OFFSET ??_7?$CEncrypt@K@@6B@
  0001a	e8 00 00 00 00	 call	 ??0ccddaabb@@QAE@XZ	; ccddaabb::ccddaabb
  0001f	83 65 fc 00	 and	 DWORD PTR __$EHRec$[ebp+8], 0

; 121  : 	{
; 122  : 		Init();

  00023	8b ce		 mov	 ecx, esi
  00025	e8 00 00 00 00	 call	 ?Init@?$CEncrypt@K@@AAEXXZ ; CEncrypt<unsigned long>::Init

; 123  : 		*this = inValue;

  0002a	8b 4d 08	 mov	 ecx, DWORD PTR _inValue$[ebp]
  0002d	8d 45 08	 lea	 eax, DWORD PTR _value$619727[ebp]
  00030	50		 push	 eax
  00031	e8 00 00 00 00	 call	 ?DecryptValueToPool@?$CEncrypt@K@@QAEXPAK@Z ; CEncrypt<unsigned long>::DecryptValueToPool
  00036	8b 45 08	 mov	 eax, DWORD PTR _value$619727[ebp]
  00039	89 45 08	 mov	 DWORD PTR _value$619732[ebp], eax
  0003c	8d 45 08	 lea	 eax, DWORD PTR _value$619732[ebp]
  0003f	50		 push	 eax
  00040	8b ce		 mov	 ecx, esi
  00042	e8 00 00 00 00	 call	 ?EncryptValueToPool@?$CEncrypt@K@@AAEXPBD@Z ; CEncrypt<unsigned long>::EncryptValueToPool

; 124  : 	}

  00047	8b c6		 mov	 eax, esi
  00049	e8 00 00 00 00	 call	 __EH_epilog3
  0004e	c2 04 00	 ret	 4
_TEXT	ENDS
;	COMDAT text$x
text$x	SEGMENT
__unwindfunclet$??0?$CEncrypt@K@@QAE@ABV0@@Z$0:
  00000	8b 4d f0	 mov	 ecx, DWORD PTR _this$[ebp]
  00003	83 c1 0c	 add	 ecx, 12			; 0000000cH
  00006	e9 00 00 00 00	 jmp	 ??1ccddaabb@@UAE@XZ	; ccddaabb::~ccddaabb
__ehhandler$??0?$CEncrypt@K@@QAE@ABV0@@Z:
  0000b	8b 54 24 08	 mov	 edx, DWORD PTR [esp+8]
  0000f	8d 42 0c	 lea	 eax, DWORD PTR [edx+12]
  00012	8b 4a ec	 mov	 ecx, DWORD PTR [edx-20]
  00015	33 c8		 xor	 ecx, eax
  00017	e8 00 00 00 00	 call	 @__security_check_cookie@4
  0001c	b8 00 00 00 00	 mov	 eax, OFFSET __ehfuncinfo$??0?$CEncrypt@K@@QAE@ABV0@@Z
  00021	e9 00 00 00 00	 jmp	 ___CxxFrameHandler3
text$x	ENDS
??0?$CEncrypt@K@@QAE@ABV0@@Z ENDP			; CEncrypt<unsigned long>::CEncrypt<unsigned long>
PUBLIC	??0?$CEncrypt@_N@@QAE@ABV0@@Z			; CEncrypt<bool>::CEncrypt<bool>
;	COMDAT xdata$x
xdata$x	SEGMENT
__unwindtable$??0?$CEncrypt@_N@@QAE@ABV0@@Z DD 0ffffffffH
	DD	FLAT:__unwindfunclet$??0?$CEncrypt@_N@@QAE@ABV0@@Z$0
__ehfuncinfo$??0?$CEncrypt@_N@@QAE@ABV0@@Z DD 019930522H
	DD	01H
	DD	FLAT:__unwindtable$??0?$CEncrypt@_N@@QAE@ABV0@@Z
	DD	2 DUP(00H)
	DD	2 DUP(00H)
	DD	00H
	DD	01H
; Function compile flags: /Ogsp
xdata$x	ENDS
;	COMDAT ??0?$CEncrypt@_N@@QAE@ABV0@@Z
_TEXT	SEGMENT
_this$ = -16						; size = 4
__$EHRec$ = -12						; size = 12
_inValue$ = 8						; size = 4
_value$619751 = 11					; size = 1
_value$619746 = 11					; size = 1
??0?$CEncrypt@_N@@QAE@ABV0@@Z PROC			; CEncrypt<bool>::CEncrypt<bool>, COMDAT
; _this$ = ecx

; 120  : 	CEncrypt( const CEncrypt<type> &inValue )   //     

  00000	6a 04		 push	 4
  00002	b8 00 00 00 00	 mov	 eax, __ehhandler$??0?$CEncrypt@_N@@QAE@ABV0@@Z
  00007	e8 00 00 00 00	 call	 __EH_prolog3
  0000c	8b f1		 mov	 esi, ecx
  0000e	89 75 f0	 mov	 DWORD PTR _this$[ebp], esi
  00011	8d 4e 0c	 lea	 ecx, DWORD PTR [esi+12]
  00014	c7 06 00 00 00
	00		 mov	 DWORD PTR [esi], OFFSET ??_7?$CEncrypt@_N@@6B@
  0001a	e8 00 00 00 00	 call	 ??0ccddaabb@@QAE@XZ	; ccddaabb::ccddaabb
  0001f	83 65 fc 00	 and	 DWORD PTR __$EHRec$[ebp+8], 0

; 121  : 	{
; 122  : 		Init();

  00023	8b ce		 mov	 ecx, esi
  00025	e8 00 00 00 00	 call	 ?Init@?$CEncrypt@_N@@AAEXXZ ; CEncrypt<bool>::Init

; 123  : 		*this = inValue;

  0002a	8b 4d 08	 mov	 ecx, DWORD PTR _inValue$[ebp]
  0002d	8d 45 0b	 lea	 eax, DWORD PTR _value$619746[ebp]
  00030	50		 push	 eax
  00031	e8 00 00 00 00	 call	 ?DecryptValueToPool@?$CEncrypt@_N@@QAEXPA_N@Z ; CEncrypt<bool>::DecryptValueToPool
  00036	8a 45 0b	 mov	 al, BYTE PTR _value$619746[ebp]
  00039	88 45 0b	 mov	 BYTE PTR _value$619751[ebp], al
  0003c	8d 45 0b	 lea	 eax, DWORD PTR _value$619751[ebp]
  0003f	50		 push	 eax
  00040	8b ce		 mov	 ecx, esi
  00042	e8 00 00 00 00	 call	 ?EncryptValueToPool@?$CEncrypt@_N@@AAEXPBD@Z ; CEncrypt<bool>::EncryptValueToPool

; 124  : 	}

  00047	8b c6		 mov	 eax, esi
  00049	e8 00 00 00 00	 call	 __EH_epilog3
  0004e	c2 04 00	 ret	 4
_TEXT	ENDS
;	COMDAT text$x
text$x	SEGMENT
__unwindfunclet$??0?$CEncrypt@_N@@QAE@ABV0@@Z$0:
  00000	8b 4d f0	 mov	 ecx, DWORD PTR _this$[ebp]
  00003	83 c1 0c	 add	 ecx, 12			; 0000000cH
  00006	e9 00 00 00 00	 jmp	 ??1ccddaabb@@UAE@XZ	; ccddaabb::~ccddaabb
__ehhandler$??0?$CEncrypt@_N@@QAE@ABV0@@Z:
  0000b	8b 54 24 08	 mov	 edx, DWORD PTR [esp+8]
  0000f	8d 42 0c	 lea	 eax, DWORD PTR [edx+12]
  00012	8b 4a ec	 mov	 ecx, DWORD PTR [edx-20]
  00015	33 c8		 xor	 ecx, eax
  00017	e8 00 00 00 00	 call	 @__security_check_cookie@4
  0001c	b8 00 00 00 00	 mov	 eax, OFFSET __ehfuncinfo$??0?$CEncrypt@_N@@QAE@ABV0@@Z
  00021	e9 00 00 00 00	 jmp	 ___CxxFrameHandler3
text$x	ENDS
??0?$CEncrypt@_N@@QAE@ABV0@@Z ENDP			; CEncrypt<bool>::CEncrypt<bool>
PUBLIC	?GetTeam@ioPlayEntity@@QBE?AW4TeamType@@XZ	; ioPlayEntity::GetTeam
; Function compile flags: /Ogsp
; File d:\lost saga for developer\youtube\tutorial\source\src\lsclient\ioplayentity.h
;	COMDAT ?GetTeam@ioPlayEntity@@QBE?AW4TeamType@@XZ
_TEXT	SEGMENT
_value$619764 = -4					; size = 4
?GetTeam@ioPlayEntity@@QBE?AW4TeamType@@XZ PROC		; ioPlayEntity::GetTeam, COMDAT
; _this$ = ecx

; 107  : 	inline TeamType GetTeam() const { return m_TeamType; }

  00000	55		 push	 ebp
  00001	8b ec		 mov	 ebp, esp
  00003	51		 push	 ecx
  00004	8d 45 fc	 lea	 eax, DWORD PTR _value$619764[ebp]
  00007	50		 push	 eax
  00008	81 c1 90 00 00
	00		 add	 ecx, 144		; 00000090H
  0000e	e8 00 00 00 00	 call	 ?DecryptValueToPool@?$CEncrypt@W4TeamType@@@@QAEXPAW4TeamType@@@Z ; CEncrypt<enum TeamType>::DecryptValueToPool
  00013	8b 45 fc	 mov	 eax, DWORD PTR _value$619764[ebp]
  00016	c9		 leave
  00017	c3		 ret	 0
?GetTeam@ioPlayEntity@@QBE?AW4TeamType@@XZ ENDP		; ioPlayEntity::GetTeam
_TEXT	ENDS
PUBLIC	??0?$CEncrypt@M@@QAE@ABM@Z			; CEncrypt<float>::CEncrypt<float>
;	COMDAT xdata$x
; File d:\lost saga for developer\youtube\tutorial\source\src\lsclient\encryptvalue.h
xdata$x	SEGMENT
__unwindtable$??0?$CEncrypt@M@@QAE@ABM@Z DD 0ffffffffH
	DD	FLAT:__unwindfunclet$??0?$CEncrypt@M@@QAE@ABM@Z$0
__ehfuncinfo$??0?$CEncrypt@M@@QAE@ABM@Z DD 019930522H
	DD	01H
	DD	FLAT:__unwindtable$??0?$CEncrypt@M@@QAE@ABM@Z
	DD	2 DUP(00H)
	DD	2 DUP(00H)
	DD	00H
	DD	01H
; Function compile flags: /Ogsp
xdata$x	ENDS
;	COMDAT ??0?$CEncrypt@M@@QAE@ABM@Z
_TEXT	SEGMENT
_this$ = -16						; size = 4
__$EHRec$ = -12						; size = 12
_value$619772 = 8					; size = 4
_inValue$ = 8						; size = 4
??0?$CEncrypt@M@@QAE@ABM@Z PROC				; CEncrypt<float>::CEncrypt<float>, COMDAT
; _this$ = ecx

; 114  : 	CEncrypt( const type &inValue )        //     

  00000	6a 04		 push	 4
  00002	b8 00 00 00 00	 mov	 eax, __ehhandler$??0?$CEncrypt@M@@QAE@ABM@Z
  00007	e8 00 00 00 00	 call	 __EH_prolog3
  0000c	8b f1		 mov	 esi, ecx
  0000e	89 75 f0	 mov	 DWORD PTR _this$[ebp], esi
  00011	8d 4e 0c	 lea	 ecx, DWORD PTR [esi+12]
  00014	c7 06 00 00 00
	00		 mov	 DWORD PTR [esi], OFFSET ??_7?$CEncrypt@M@@6B@
  0001a	e8 00 00 00 00	 call	 ??0ccddaabb@@QAE@XZ	; ccddaabb::ccddaabb
  0001f	83 65 fc 00	 and	 DWORD PTR __$EHRec$[ebp+8], 0

; 115  : 	{
; 116  : 		Init();

  00023	8b ce		 mov	 ecx, esi
  00025	e8 00 00 00 00	 call	 ?Init@?$CEncrypt@M@@AAEXXZ ; CEncrypt<float>::Init

; 117  : 		*this = inValue;

  0002a	8b 45 08	 mov	 eax, DWORD PTR _inValue$[ebp]
  0002d	f3 0f 10 00	 movss	 xmm0, DWORD PTR [eax]
  00031	8d 45 08	 lea	 eax, DWORD PTR _value$619772[ebp]
  00034	50		 push	 eax
  00035	8b ce		 mov	 ecx, esi
  00037	f3 0f 11 45 08	 movss	 DWORD PTR _value$619772[ebp], xmm0
  0003c	e8 00 00 00 00	 call	 ?EncryptValueToPool@?$CEncrypt@M@@AAEXPBD@Z ; CEncrypt<float>::EncryptValueToPool

; 118  : 	}

  00041	8b c6		 mov	 eax, esi
  00043	e8 00 00 00 00	 call	 __EH_epilog3
  00048	c2 04 00	 ret	 4
_TEXT	ENDS
;	COMDAT text$x
text$x	SEGMENT
__unwindfunclet$??0?$CEncrypt@M@@QAE@ABM@Z$0:
  00000	8b 4d f0	 mov	 ecx, DWORD PTR _this$[ebp]
  00003	83 c1 0c	 add	 ecx, 12			; 0000000cH
  00006	e9 00 00 00 00	 jmp	 ??1ccddaabb@@UAE@XZ	; ccddaabb::~ccddaabb
__ehhandler$??0?$CEncrypt@M@@QAE@ABM@Z:
  0000b	8b 54 24 08	 mov	 edx, DWORD PTR [esp+8]
  0000f	8d 42 0c	 lea	 eax, DWORD PTR [edx+12]
  00012	8b 4a ec	 mov	 ecx, DWORD PTR [edx-20]
  00015	33 c8		 xor	 ecx, eax
  00017	e8 00 00 00 00	 call	 @__security_check_cookie@4
  0001c	b8 00 00 00 00	 mov	 eax, OFFSET __ehfuncinfo$??0?$CEncrypt@M@@QAE@ABM@Z
  00021	e9 00 00 00 00	 jmp	 ___CxxFrameHandler3
text$x	ENDS
??0?$CEncrypt@M@@QAE@ABM@Z ENDP				; CEncrypt<float>::CEncrypt<float>
PUBLIC	??0?$CEncrypt@M@@QAE@ABV0@@Z			; CEncrypt<float>::CEncrypt<float>
;	COMDAT xdata$x
xdata$x	SEGMENT
__unwindtable$??0?$CEncrypt@M@@QAE@ABV0@@Z DD 0ffffffffH
	DD	FLAT:__unwindfunclet$??0?$CEncrypt@M@@QAE@ABV0@@Z$0
__ehfuncinfo$??0?$CEncrypt@M@@QAE@ABV0@@Z DD 019930522H
	DD	01H
	DD	FLAT:__unwindtable$??0?$CEncrypt@M@@QAE@ABV0@@Z
	DD	2 DUP(00H)
	DD	2 DUP(00H)
	DD	00H
	DD	01H
; Function compile flags: /Ogsp
xdata$x	ENDS
;	COMDAT ??0?$CEncrypt@M@@QAE@ABV0@@Z
_TEXT	SEGMENT
_this$ = -16						; size = 4
__$EHRec$ = -12						; size = 12
_value$619791 = 8					; size = 4
_value$619786 = 8					; size = 4
_inValue$ = 8						; size = 4
??0?$CEncrypt@M@@QAE@ABV0@@Z PROC			; CEncrypt<float>::CEncrypt<float>, COMDAT
; _this$ = ecx

; 120  : 	CEncrypt( const CEncrypt<type> &inValue )   //     

  00000	6a 04		 push	 4
  00002	b8 00 00 00 00	 mov	 eax, __ehhandler$??0?$CEncrypt@M@@QAE@ABV0@@Z
  00007	e8 00 00 00 00	 call	 __EH_prolog3
  0000c	8b f1		 mov	 esi, ecx
  0000e	89 75 f0	 mov	 DWORD PTR _this$[ebp], esi
  00011	8d 4e 0c	 lea	 ecx, DWORD PTR [esi+12]
  00014	c7 06 00 00 00
	00		 mov	 DWORD PTR [esi], OFFSET ??_7?$CEncrypt@M@@6B@
  0001a	e8 00 00 00 00	 call	 ??0ccddaabb@@QAE@XZ	; ccddaabb::ccddaabb
  0001f	83 65 fc 00	 and	 DWORD PTR __$EHRec$[ebp+8], 0

; 121  : 	{
; 122  : 		Init();

  00023	8b ce		 mov	 ecx, esi
  00025	e8 00 00 00 00	 call	 ?Init@?$CEncrypt@M@@AAEXXZ ; CEncrypt<float>::Init

; 123  : 		*this = inValue;

  0002a	8b 4d 08	 mov	 ecx, DWORD PTR _inValue$[ebp]
  0002d	8d 45 08	 lea	 eax, DWORD PTR _value$619786[ebp]
  00030	50		 push	 eax
  00031	e8 00 00 00 00	 call	 ?DecryptValueToPool@?$CEncrypt@M@@QAEXPAM@Z ; CEncrypt<float>::DecryptValueToPool
  00036	f3 0f 10 45 08	 movss	 xmm0, DWORD PTR _value$619786[ebp]
  0003b	8d 45 08	 lea	 eax, DWORD PTR _value$619791[ebp]
  0003e	50		 push	 eax
  0003f	8b ce		 mov	 ecx, esi
  00041	f3 0f 11 45 08	 movss	 DWORD PTR _value$619791[ebp], xmm0
  00046	e8 00 00 00 00	 call	 ?EncryptValueToPool@?$CEncrypt@M@@AAEXPBD@Z ; CEncrypt<float>::EncryptValueToPool

; 124  : 	}

  0004b	8b c6		 mov	 eax, esi
  0004d	e8 00 00 00 00	 call	 __EH_epilog3
  00052	c2 04 00	 ret	 4
_TEXT	ENDS
;	COMDAT text$x
text$x	SEGMENT
__unwindfunclet$??0?$CEncrypt@M@@QAE@ABV0@@Z$0:
  00000	8b 4d f0	 mov	 ecx, DWORD PTR _this$[ebp]
  00003	83 c1 0c	 add	 ecx, 12			; 0000000cH
  00006	e9 00 00 00 00	 jmp	 ??1ccddaabb@@UAE@XZ	; ccddaabb::~ccddaabb
__ehhandler$??0?$CEncrypt@M@@QAE@ABV0@@Z:
  0000b	8b 54 24 08	 mov	 edx, DWORD PTR [esp+8]
  0000f	8d 42 0c	 lea	 eax, DWORD PTR [edx+12]
  00012	8b 4a ec	 mov	 ecx, DWORD PTR [edx-20]
  00015	33 c8		 xor	 ecx, eax
  00017	e8 00 00 00 00	 call	 @__security_check_cookie@4
  0001c	b8 00 00 00 00	 mov	 eax, OFFSET __ehfuncinfo$??0?$CEncrypt@M@@QAE@ABV0@@Z
  00021	e9 00 00 00 00	 jmp	 ___CxxFrameHandler3
text$x	ENDS
??0?$CEncrypt@M@@QAE@ABV0@@Z ENDP			; CEncrypt<float>::CEncrypt<float>
PUBLIC	??0ioObjectChargeShotItem@@QAE@ABV0@@Z		; ioObjectChargeShotItem::ioObjectChargeShotItem
EXTRN	??0ioObjectItem@@QAE@ABV0@@Z:PROC		; ioObjectItem::ioObjectItem
;	COMDAT xdata$x
; File c:\program files (x86)\microsoft directx sdk (june 2010)\include\d3dx9math.h
xdata$x	SEGMENT
__ehfuncinfo$??0ioObjectChargeShotItem@@QAE@ABV0@@Z DD 019930522H
	DD	019H
	DD	FLAT:__unwindtable$??0ioObjectChargeShotItem@@QAE@ABV0@@Z
	DD	2 DUP(00H)
	DD	2 DUP(00H)
	DD	00H
	DD	01H
__unwindtable$??0ioObjectChargeShotItem@@QAE@ABV0@@Z DD 0ffffffffH
	DD	FLAT:__unwindfunclet$??0ioObjectChargeShotItem@@QAE@ABV0@@Z$0
	DD	00H
	DD	FLAT:__unwindfunclet$??0ioObjectChargeShotItem@@QAE@ABV0@@Z$1
	DD	01H
	DD	FLAT:__unwindfunclet$??0ioObjectChargeShotItem@@QAE@ABV0@@Z$2
	DD	02H
	DD	FLAT:__unwindfunclet$??0ioObjectChargeShotItem@@QAE@ABV0@@Z$3
	DD	03H
	DD	FLAT:__unwindfunclet$??0ioObjectChargeShotItem@@QAE@ABV0@@Z$4
	DD	04H
	DD	FLAT:__unwindfunclet$??0ioObjectChargeShotItem@@QAE@ABV0@@Z$5
	DD	05H
	DD	FLAT:__unwindfunclet$??0ioObjectChargeShotItem@@QAE@ABV0@@Z$6
	DD	06H
	DD	FLAT:__unwindfunclet$??0ioObjectChargeShotItem@@QAE@ABV0@@Z$7
	DD	07H
	DD	FLAT:__unwindfunclet$??0ioObjectChargeShotItem@@QAE@ABV0@@Z$8
	DD	08H
	DD	FLAT:__unwindfunclet$??0ioObjectChargeShotItem@@QAE@ABV0@@Z$9
	DD	09H
	DD	FLAT:__unwindfunclet$??0ioObjectChargeShotItem@@QAE@ABV0@@Z$10
	DD	0aH
	DD	FLAT:__unwindfunclet$??0ioObjectChargeShotItem@@QAE@ABV0@@Z$11
	DD	0bH
	DD	FLAT:__unwindfunclet$??0ioObjectChargeShotItem@@QAE@ABV0@@Z$12
	DD	0cH
	DD	FLAT:__unwindfunclet$??0ioObjectChargeShotItem@@QAE@ABV0@@Z$13
	DD	0dH
	DD	FLAT:__unwindfunclet$??0ioObjectChargeShotItem@@QAE@ABV0@@Z$14
	DD	0eH
	DD	FLAT:__unwindfunclet$??0ioObjectChargeShotItem@@QAE@ABV0@@Z$15
	DD	0fH
	DD	FLAT:__unwindfunclet$??0ioObjectChargeShotItem@@QAE@ABV0@@Z$16
	DD	010H
	DD	FLAT:__unwindfunclet$??0ioObjectChargeShotItem@@QAE@ABV0@@Z$17
	DD	011H
	DD	FLAT:__unwindfunclet$??0ioObjectChargeShotItem@@QAE@ABV0@@Z$18
	DD	012H
	DD	FLAT:__unwindfunclet$??0ioObjectChargeShotItem@@QAE@ABV0@@Z$19
	DD	013H
	DD	FLAT:__unwindfunclet$??0ioObjectChargeShotItem@@QAE@ABV0@@Z$20
	DD	014H
	DD	FLAT:__unwindfunclet$??0ioObjectChargeShotItem@@QAE@ABV0@@Z$21
	DD	015H
	DD	FLAT:__unwindfunclet$??0ioObjectChargeShotItem@@QAE@ABV0@@Z$22
	DD	016H
	DD	FLAT:__unwindfunclet$??0ioObjectChargeShotItem@@QAE@ABV0@@Z$23
	DD	017H
	DD	FLAT:__unwindfunclet$??0ioObjectChargeShotItem@@QAE@ABV0@@Z$24
; Function compile flags: /Ogsp
; File d:\lost saga for developer\youtube\tutorial\source\src\lsclient\ioobjectchargeshotitem.cpp
xdata$x	ENDS
;	COMDAT ??0ioObjectChargeShotItem@@QAE@ABV0@@Z
_TEXT	SEGMENT
_this$ = -16						; size = 4
__$EHRec$ = -12						; size = 12
_rhs$ = 8						; size = 4
??0ioObjectChargeShotItem@@QAE@ABV0@@Z PROC		; ioObjectChargeShotItem::ioObjectChargeShotItem, COMDAT
; _this$ = ecx

; 64   : {

  00000	6a 04		 push	 4
  00002	b8 00 00 00 00	 mov	 eax, __ehhandler$??0ioObjectChargeShotItem@@QAE@ABV0@@Z
  00007	e8 00 00 00 00	 call	 __EH_prolog3
  0000c	8b d9		 mov	 ebx, ecx
  0000e	89 5d f0	 mov	 DWORD PTR _this$[ebp], ebx
  00011	8b 75 08	 mov	 esi, DWORD PTR _rhs$[ebp]
  00014	56		 push	 esi
  00015	e8 00 00 00 00	 call	 ??0ioObjectItem@@QAE@ABV0@@Z ; ioObjectItem::ioObjectItem
  0001a	83 65 fc 00	 and	 DWORD PTR __$EHRec$[ebp+8], 0
  0001e	8d 86 38 1b 00
	00		 lea	 eax, DWORD PTR [esi+6968]
  00024	50		 push	 eax
  00025	8d 8b 38 1b 00
	00		 lea	 ecx, DWORD PTR [ebx+6968]
  0002b	c7 03 00 00 00
	00		 mov	 DWORD PTR [ebx], OFFSET ??_7ioObjectChargeShotItem@@6B@
  00031	e8 00 00 00 00	 call	 ??0?$CEncrypt@_N@@QAE@ABV0@@Z ; CEncrypt<bool>::CEncrypt<bool>
  00036	8b 3d 00 00 00
	00		 mov	 edi, DWORD PTR __imp_??0ioHashString@@QAE@ABV0@@Z
  0003c	8d 86 68 1b 00
	00		 lea	 eax, DWORD PTR [esi+7016]
  00042	50		 push	 eax
  00043	8d 8b 68 1b 00
	00		 lea	 ecx, DWORD PTR [ebx+7016]
  00049	c6 45 fc 01	 mov	 BYTE PTR __$EHRec$[ebp+8], 1
  0004d	ff d7		 call	 edi
  0004f	8d 86 78 1b 00
	00		 lea	 eax, DWORD PTR [esi+7032]
  00055	50		 push	 eax
  00056	8d 8b 78 1b 00
	00		 lea	 ecx, DWORD PTR [ebx+7032]
  0005c	c6 45 fc 02	 mov	 BYTE PTR __$EHRec$[ebp+8], 2
  00060	e8 00 00 00 00	 call	 ??0?$CEncrypt@M@@QAE@ABV0@@Z ; CEncrypt<float>::CEncrypt<float>
  00065	8d 86 a8 1b 00
	00		 lea	 eax, DWORD PTR [esi+7080]
  0006b	50		 push	 eax
  0006c	8d 8b a8 1b 00
	00		 lea	 ecx, DWORD PTR [ebx+7080]
  00072	c6 45 fc 03	 mov	 BYTE PTR __$EHRec$[ebp+8], 3
  00076	ff d7		 call	 edi
  00078	8d 86 b8 1b 00
	00		 lea	 eax, DWORD PTR [esi+7096]
  0007e	50		 push	 eax
  0007f	8d 8b b8 1b 00
	00		 lea	 ecx, DWORD PTR [ebx+7096]
  00085	c6 45 fc 04	 mov	 BYTE PTR __$EHRec$[ebp+8], 4
  00089	e8 00 00 00 00	 call	 ??0?$CEncrypt@M@@QAE@ABV0@@Z ; CEncrypt<float>::CEncrypt<float>
  0008e	8d 86 e8 1b 00
	00		 lea	 eax, DWORD PTR [esi+7144]
  00094	50		 push	 eax
  00095	8d 8b e8 1b 00
	00		 lea	 ecx, DWORD PTR [ebx+7144]
  0009b	c6 45 fc 05	 mov	 BYTE PTR __$EHRec$[ebp+8], 5
  0009f	ff d7		 call	 edi
  000a1	8d 86 f8 1b 00
	00		 lea	 eax, DWORD PTR [esi+7160]
  000a7	50		 push	 eax
  000a8	8d 8b f8 1b 00
	00		 lea	 ecx, DWORD PTR [ebx+7160]
  000ae	c6 45 fc 06	 mov	 BYTE PTR __$EHRec$[ebp+8], 6
  000b2	e8 00 00 00 00	 call	 ??0?$CEncrypt@M@@QAE@ABV0@@Z ; CEncrypt<float>::CEncrypt<float>
  000b7	8d 86 28 1c 00
	00		 lea	 eax, DWORD PTR [esi+7208]
  000bd	50		 push	 eax
  000be	8d 8b 28 1c 00
	00		 lea	 ecx, DWORD PTR [ebx+7208]
  000c4	c6 45 fc 07	 mov	 BYTE PTR __$EHRec$[ebp+8], 7
  000c8	e8 00 00 00 00	 call	 ??0?$CEncrypt@K@@QAE@ABV0@@Z ; CEncrypt<unsigned long>::CEncrypt<unsigned long>
  000cd	8d 86 58 1c 00
	00		 lea	 eax, DWORD PTR [esi+7256]
  000d3	50		 push	 eax
  000d4	8d 8b 58 1c 00
	00		 lea	 ecx, DWORD PTR [ebx+7256]
  000da	c6 45 fc 08	 mov	 BYTE PTR __$EHRec$[ebp+8], 8
  000de	e8 00 00 00 00	 call	 ??0?$CEncrypt@K@@QAE@ABV0@@Z ; CEncrypt<unsigned long>::CEncrypt<unsigned long>
  000e3	8d 86 88 1c 00
	00		 lea	 eax, DWORD PTR [esi+7304]
  000e9	50		 push	 eax
  000ea	8d 8b 88 1c 00
	00		 lea	 ecx, DWORD PTR [ebx+7304]
  000f0	c6 45 fc 09	 mov	 BYTE PTR __$EHRec$[ebp+8], 9
  000f4	e8 00 00 00 00	 call	 ??0WeaponInfo@@QAE@ABU0@@Z
  000f9	8d 86 c0 1c 00
	00		 lea	 eax, DWORD PTR [esi+7360]
  000ff	50		 push	 eax
  00100	8d 8b c0 1c 00
	00		 lea	 ecx, DWORD PTR [ebx+7360]
  00106	c6 45 fc 0a	 mov	 BYTE PTR __$EHRec$[ebp+8], 10 ; 0000000aH
  0010a	ff d7		 call	 edi
  0010c	8d 86 d0 1c 00
	00		 lea	 eax, DWORD PTR [esi+7376]
  00112	50		 push	 eax
  00113	8d 8b d0 1c 00
	00		 lea	 ecx, DWORD PTR [ebx+7376]
  00119	c6 45 fc 0b	 mov	 BYTE PTR __$EHRec$[ebp+8], 11 ; 0000000bH
  0011d	ff d7		 call	 edi
  0011f	8d 86 e4 1c 00
	00		 lea	 eax, DWORD PTR [esi+7396]
  00125	c6 45 fc 0c	 mov	 BYTE PTR __$EHRec$[ebp+8], 12 ; 0000000cH
  00129	50		 push	 eax
  0012a	8d 8b e4 1c 00
	00		 lea	 ecx, DWORD PTR [ebx+7396]
  00130	e8 00 00 00 00	 call	 ??0?$CEncrypt@M@@QAE@ABV0@@Z ; CEncrypt<float>::CEncrypt<float>
  00135	8d 86 14 1d 00
	00		 lea	 eax, DWORD PTR [esi+7444]
  0013b	50		 push	 eax
  0013c	8d 8b 14 1d 00
	00		 lea	 ecx, DWORD PTR [ebx+7444]
  00142	c6 45 fc 0d	 mov	 BYTE PTR __$EHRec$[ebp+8], 13 ; 0000000dH
  00146	e8 00 00 00 00	 call	 ??0?$CEncrypt@M@@QAE@ABV0@@Z ; CEncrypt<float>::CEncrypt<float>
  0014b	8d 86 44 1d 00
	00		 lea	 eax, DWORD PTR [esi+7492]
  00151	50		 push	 eax
  00152	8d 8b 44 1d 00
	00		 lea	 ecx, DWORD PTR [ebx+7492]
  00158	c6 45 fc 0e	 mov	 BYTE PTR __$EHRec$[ebp+8], 14 ; 0000000eH
  0015c	e8 00 00 00 00	 call	 ??0?$CEncrypt@M@@QAE@ABV0@@Z ; CEncrypt<float>::CEncrypt<float>
  00161	8d 86 74 1d 00
	00		 lea	 eax, DWORD PTR [esi+7540]
  00167	50		 push	 eax
  00168	8d 8b 74 1d 00
	00		 lea	 ecx, DWORD PTR [ebx+7540]
  0016e	c6 45 fc 0f	 mov	 BYTE PTR __$EHRec$[ebp+8], 15 ; 0000000fH
  00172	e8 00 00 00 00	 call	 ??0?$CEncrypt@M@@QAE@ABV0@@Z ; CEncrypt<float>::CEncrypt<float>
  00177	8d 86 b4 1d 00
	00		 lea	 eax, DWORD PTR [esi+7604]
  0017d	50		 push	 eax
  0017e	8d 8b b4 1d 00
	00		 lea	 ecx, DWORD PTR [ebx+7604]
  00184	c6 45 fc 10	 mov	 BYTE PTR __$EHRec$[ebp+8], 16 ; 00000010H
  00188	e8 00 00 00 00	 call	 ??0?$CEncrypt@M@@QAE@ABV0@@Z ; CEncrypt<float>::CEncrypt<float>
  0018d	8d 86 e4 1d 00
	00		 lea	 eax, DWORD PTR [esi+7652]
  00193	50		 push	 eax
  00194	8d 8b e4 1d 00
	00		 lea	 ecx, DWORD PTR [ebx+7652]
  0019a	c6 45 fc 11	 mov	 BYTE PTR __$EHRec$[ebp+8], 17 ; 00000011H
  0019e	e8 00 00 00 00	 call	 ??0?$CEncrypt@M@@QAE@ABV0@@Z ; CEncrypt<float>::CEncrypt<float>
  001a3	8d 86 14 1e 00
	00		 lea	 eax, DWORD PTR [esi+7700]
  001a9	50		 push	 eax
  001aa	8d 8b 14 1e 00
	00		 lea	 ecx, DWORD PTR [ebx+7700]
  001b0	c6 45 fc 12	 mov	 BYTE PTR __$EHRec$[ebp+8], 18 ; 00000012H
  001b4	e8 00 00 00 00	 call	 ??0?$CEncrypt@M@@QAE@ABV0@@Z ; CEncrypt<float>::CEncrypt<float>
  001b9	8d 86 44 1e 00
	00		 lea	 eax, DWORD PTR [esi+7748]
  001bf	50		 push	 eax
  001c0	8d 8b 44 1e 00
	00		 lea	 ecx, DWORD PTR [ebx+7748]
  001c6	c6 45 fc 13	 mov	 BYTE PTR __$EHRec$[ebp+8], 19 ; 00000013H
  001ca	e8 00 00 00 00	 call	 ??0?$CEncrypt@M@@QAE@ABV0@@Z ; CEncrypt<float>::CEncrypt<float>
  001cf	8d 86 74 1e 00
	00		 lea	 eax, DWORD PTR [esi+7796]
  001d5	50		 push	 eax
  001d6	8d 8b 74 1e 00
	00		 lea	 ecx, DWORD PTR [ebx+7796]
  001dc	c6 45 fc 14	 mov	 BYTE PTR __$EHRec$[ebp+8], 20 ; 00000014H
  001e0	e8 00 00 00 00	 call	 ??0?$CEncrypt@M@@QAE@ABV0@@Z ; CEncrypt<float>::CEncrypt<float>
  001e5	8d 86 a4 1e 00
	00		 lea	 eax, DWORD PTR [esi+7844]
  001eb	50		 push	 eax
  001ec	8d 8b a4 1e 00
	00		 lea	 ecx, DWORD PTR [ebx+7844]
  001f2	c6 45 fc 15	 mov	 BYTE PTR __$EHRec$[ebp+8], 21 ; 00000015H
  001f6	e8 00 00 00 00	 call	 ??0?$CEncrypt@M@@QAE@ABV0@@Z ; CEncrypt<float>::CEncrypt<float>
  001fb	8d 86 d4 1e 00
	00		 lea	 eax, DWORD PTR [esi+7892]
  00201	50		 push	 eax
  00202	8d 8b d4 1e 00
	00		 lea	 ecx, DWORD PTR [ebx+7892]
  00208	c6 45 fc 16	 mov	 BYTE PTR __$EHRec$[ebp+8], 22 ; 00000016H
  0020c	e8 00 00 00 00	 call	 ??0?$CEncrypt@M@@QAE@ABV0@@Z ; CEncrypt<float>::CEncrypt<float>
  00211	8d 86 18 1f 00
	00		 lea	 eax, DWORD PTR [esi+7960]
  00217	50		 push	 eax
  00218	8d 8b 18 1f 00
	00		 lea	 ecx, DWORD PTR [ebx+7960]
  0021e	c6 45 fc 17	 mov	 BYTE PTR __$EHRec$[ebp+8], 23 ; 00000017H
  00222	e8 00 00 00 00	 call	 ??0?$CEncrypt@K@@QAE@ABV0@@Z ; CEncrypt<unsigned long>::CEncrypt<unsigned long>
  00227	81 c6 50 1f 00
	00		 add	 esi, 8016		; 00001f50H
  0022d	56		 push	 esi
  0022e	8d 8b 50 1f 00
	00		 lea	 ecx, DWORD PTR [ebx+8016]
  00234	c6 45 fc 18	 mov	 BYTE PTR __$EHRec$[ebp+8], 24 ; 00000018H
  00238	e8 00 00 00 00	 call	 ??0?$CEncrypt@K@@QAE@ABV0@@Z ; CEncrypt<unsigned long>::CEncrypt<unsigned long>

; 65   : 	m_AttackState = AS_NONE;
; 66   : 
; 67   : 	m_iCurAirJump = 0;
; 68   : 	m_fAirJumpPowerRate = 0.0f;

  0023d	0f 57 c0	 xorps	 xmm0, xmm0
  00240	33 c0		 xor	 eax, eax
  00242	89 83 34 1b 00
	00		 mov	 DWORD PTR [ebx+6964], eax
  00248	89 83 58 0f 00
	00		 mov	 DWORD PTR [ebx+3928], eax
  0024e	f3 0f 11 83 48
	0f 00 00	 movss	 DWORD PTR [ebx+3912], xmm0

; 69   : 
; 70   : 	m_dwMotionEndTime = 0;

  00256	89 83 bc 1c 00
	00		 mov	 DWORD PTR [ebx+7356], eax

; 71   : 	m_dwWeaponFireCheckTime = 0;

  0025c	89 83 b0 1c 00
	00		 mov	 DWORD PTR [ebx+7344], eax

; 72   : 	m_dwAttackStartTime = 0;
; 73   : 
; 74   : 	m_dwMarkEffectID = -1;

  00262	83 8b e0 1c 00
	00 ff		 or	 DWORD PTR [ebx+7392], -1
  00269	89 83 b8 1c 00
	00		 mov	 DWORD PTR [ebx+7352], eax

; 75   : 	m_vMarkPosition = ioMath::VEC3_ZERO;

  0026f	8b 35 00 00 00
	00		 mov	 esi, DWORD PTR __imp_?VEC3_ZERO@ioMath@@2UD3DXVECTOR3@@A
  00275	8d bb a8 1d 00
	00		 lea	 edi, DWORD PTR [ebx+7592]
  0027b	a5		 movsd
  0027c	a5		 movsd
  0027d	a5		 movsd

; 76   : 	m_fMarkCurRange = 0.0f;
; 77   : 
; 78   : 	m_bTargetRot = false;
; 79   : 	m_bLeftRot = false;
; 80   : 	m_CurDirKey = ioUserKeyInput::DKI_NONE;

  0027e	21 83 4c 1f 00
	00		 and	 DWORD PTR [ebx+8012], eax
  00284	66 89 83 48 1f
	00 00		 mov	 WORD PTR [ebx+8008], ax
  0028b	f3 0f 11 83 a4
	1d 00 00	 movss	 DWORD PTR [ebx+7588], xmm0

; 81   : }

  00293	8b c3		 mov	 eax, ebx
  00295	e8 00 00 00 00	 call	 __EH_epilog3
  0029a	c2 04 00	 ret	 4
_TEXT	ENDS
;	COMDAT text$x
text$x	SEGMENT
__unwindfunclet$??0ioObjectChargeShotItem@@QAE@ABV0@@Z$0:
  00000	8b 4d f0	 mov	 ecx, DWORD PTR _this$[ebp]
  00003	e9 00 00 00 00	 jmp	 ??1ioObjectItem@@UAE@XZ	; ioObjectItem::~ioObjectItem
__unwindfunclet$??0ioObjectChargeShotItem@@QAE@ABV0@@Z$1:
  00008	8b 4d f0	 mov	 ecx, DWORD PTR _this$[ebp]
  0000b	81 c1 38 1b 00
	00		 add	 ecx, 6968		; 00001b38H
  00011	e9 00 00 00 00	 jmp	 ??1?$CEncrypt@_N@@UAE@XZ ; CEncrypt<bool>::~CEncrypt<bool>
__unwindfunclet$??0ioObjectChargeShotItem@@QAE@ABV0@@Z$2:
  00016	8b 4d f0	 mov	 ecx, DWORD PTR _this$[ebp]
  00019	81 c1 68 1b 00
	00		 add	 ecx, 7016		; 00001b68H
  0001f	ff 25 00 00 00
	00		 jmp	 DWORD PTR __imp_??1ioHashString@@QAE@XZ
__unwindfunclet$??0ioObjectChargeShotItem@@QAE@ABV0@@Z$3:
  00025	8b 4d f0	 mov	 ecx, DWORD PTR _this$[ebp]
  00028	81 c1 78 1b 00
	00		 add	 ecx, 7032		; 00001b78H
  0002e	e9 00 00 00 00	 jmp	 ??1?$CEncrypt@M@@UAE@XZ	; CEncrypt<float>::~CEncrypt<float>
__unwindfunclet$??0ioObjectChargeShotItem@@QAE@ABV0@@Z$4:
  00033	8b 4d f0	 mov	 ecx, DWORD PTR _this$[ebp]
  00036	81 c1 a8 1b 00
	00		 add	 ecx, 7080		; 00001ba8H
  0003c	ff 25 00 00 00
	00		 jmp	 DWORD PTR __imp_??1ioHashString@@QAE@XZ
__unwindfunclet$??0ioObjectChargeShotItem@@QAE@ABV0@@Z$5:
  00042	8b 4d f0	 mov	 ecx, DWORD PTR _this$[ebp]
  00045	81 c1 b8 1b 00
	00		 add	 ecx, 7096		; 00001bb8H
  0004b	e9 00 00 00 00	 jmp	 ??1?$CEncrypt@M@@UAE@XZ	; CEncrypt<float>::~CEncrypt<float>
__unwindfunclet$??0ioObjectChargeShotItem@@QAE@ABV0@@Z$6:
  00050	8b 4d f0	 mov	 ecx, DWORD PTR _this$[ebp]
  00053	81 c1 e8 1b 00
	00		 add	 ecx, 7144		; 00001be8H
  00059	ff 25 00 00 00
	00		 jmp	 DWORD PTR __imp_??1ioHashString@@QAE@XZ
__unwindfunclet$??0ioObjectChargeShotItem@@QAE@ABV0@@Z$7:
  0005f	8b 4d f0	 mov	 ecx, DWORD PTR _this$[ebp]
  00062	81 c1 f8 1b 00
	00		 add	 ecx, 7160		; 00001bf8H
  00068	e9 00 00 00 00	 jmp	 ??1?$CEncrypt@M@@UAE@XZ	; CEncrypt<float>::~CEncrypt<float>
__unwindfunclet$??0ioObjectChargeShotItem@@QAE@ABV0@@Z$8:
  0006d	8b 4d f0	 mov	 ecx, DWORD PTR _this$[ebp]
  00070	81 c1 28 1c 00
	00		 add	 ecx, 7208		; 00001c28H
  00076	e9 00 00 00 00	 jmp	 ??1?$CEncrypt@K@@UAE@XZ	; CEncrypt<unsigned long>::~CEncrypt<unsigned long>
__unwindfunclet$??0ioObjectChargeShotItem@@QAE@ABV0@@Z$9:
  0007b	8b 4d f0	 mov	 ecx, DWORD PTR _this$[ebp]
  0007e	81 c1 58 1c 00
	00		 add	 ecx, 7256		; 00001c58H
  00084	e9 00 00 00 00	 jmp	 ??1?$CEncrypt@K@@UAE@XZ	; CEncrypt<unsigned long>::~CEncrypt<unsigned long>
__unwindfunclet$??0ioObjectChargeShotItem@@QAE@ABV0@@Z$10:
  00089	8b 4d f0	 mov	 ecx, DWORD PTR _this$[ebp]
  0008c	81 c1 88 1c 00
	00		 add	 ecx, 7304		; 00001c88H
  00092	e9 00 00 00 00	 jmp	 ??1WeaponInfo@@QAE@XZ
__unwindfunclet$??0ioObjectChargeShotItem@@QAE@ABV0@@Z$11:
  00097	8b 4d f0	 mov	 ecx, DWORD PTR _this$[ebp]
  0009a	81 c1 c0 1c 00
	00		 add	 ecx, 7360		; 00001cc0H
  000a0	ff 25 00 00 00
	00		 jmp	 DWORD PTR __imp_??1ioHashString@@QAE@XZ
__unwindfunclet$??0ioObjectChargeShotItem@@QAE@ABV0@@Z$12:
  000a6	8b 4d f0	 mov	 ecx, DWORD PTR _this$[ebp]
  000a9	81 c1 d0 1c 00
	00		 add	 ecx, 7376		; 00001cd0H
  000af	ff 25 00 00 00
	00		 jmp	 DWORD PTR __imp_??1ioHashString@@QAE@XZ
__unwindfunclet$??0ioObjectChargeShotItem@@QAE@ABV0@@Z$13:
  000b5	8b 4d f0	 mov	 ecx, DWORD PTR _this$[ebp]
  000b8	81 c1 e4 1c 00
	00		 add	 ecx, 7396		; 00001ce4H
  000be	e9 00 00 00 00	 jmp	 ??1?$CEncrypt@M@@UAE@XZ	; CEncrypt<float>::~CEncrypt<float>
__unwindfunclet$??0ioObjectChargeShotItem@@QAE@ABV0@@Z$14:
  000c3	8b 4d f0	 mov	 ecx, DWORD PTR _this$[ebp]
  000c6	81 c1 14 1d 00
	00		 add	 ecx, 7444		; 00001d14H
  000cc	e9 00 00 00 00	 jmp	 ??1?$CEncrypt@M@@UAE@XZ	; CEncrypt<float>::~CEncrypt<float>
__unwindfunclet$??0ioObjectChargeShotItem@@QAE@ABV0@@Z$15:
  000d1	8b 4d f0	 mov	 ecx, DWORD PTR _this$[ebp]
  000d4	81 c1 44 1d 00
	00		 add	 ecx, 7492		; 00001d44H
  000da	e9 00 00 00 00	 jmp	 ??1?$CEncrypt@M@@UAE@XZ	; CEncrypt<float>::~CEncrypt<float>
__unwindfunclet$??0ioObjectChargeShotItem@@QAE@ABV0@@Z$16:
  000df	8b 4d f0	 mov	 ecx, DWORD PTR _this$[ebp]
  000e2	81 c1 74 1d 00
	00		 add	 ecx, 7540		; 00001d74H
  000e8	e9 00 00 00 00	 jmp	 ??1?$CEncrypt@M@@UAE@XZ	; CEncrypt<float>::~CEncrypt<float>
__unwindfunclet$??0ioObjectChargeShotItem@@QAE@ABV0@@Z$17:
  000ed	8b 4d f0	 mov	 ecx, DWORD PTR _this$[ebp]
  000f0	81 c1 b4 1d 00
	00		 add	 ecx, 7604		; 00001db4H
  000f6	e9 00 00 00 00	 jmp	 ??1?$CEncrypt@M@@UAE@XZ	; CEncrypt<float>::~CEncrypt<float>
__unwindfunclet$??0ioObjectChargeShotItem@@QAE@ABV0@@Z$18:
  000fb	8b 4d f0	 mov	 ecx, DWORD PTR _this$[ebp]
  000fe	81 c1 e4 1d 00
	00		 add	 ecx, 7652		; 00001de4H
  00104	e9 00 00 00 00	 jmp	 ??1?$CEncrypt@M@@UAE@XZ	; CEncrypt<float>::~CEncrypt<float>
__unwindfunclet$??0ioObjectChargeShotItem@@QAE@ABV0@@Z$19:
  00109	8b 4d f0	 mov	 ecx, DWORD PTR _this$[ebp]
  0010c	81 c1 14 1e 00
	00		 add	 ecx, 7700		; 00001e14H
  00112	e9 00 00 00 00	 jmp	 ??1?$CEncrypt@M@@UAE@XZ	; CEncrypt<float>::~CEncrypt<float>
__unwindfunclet$??0ioObjectChargeShotItem@@QAE@ABV0@@Z$20:
  00117	8b 4d f0	 mov	 ecx, DWORD PTR _this$[ebp]
  0011a	81 c1 44 1e 00
	00		 add	 ecx, 7748		; 00001e44H
  00120	e9 00 00 00 00	 jmp	 ??1?$CEncrypt@M@@UAE@XZ	; CEncrypt<float>::~CEncrypt<float>
__unwindfunclet$??0ioObjectChargeShotItem@@QAE@ABV0@@Z$21:
  00125	8b 4d f0	 mov	 ecx, DWORD PTR _this$[ebp]
  00128	81 c1 74 1e 00
	00		 add	 ecx, 7796		; 00001e74H
  0012e	e9 00 00 00 00	 jmp	 ??1?$CEncrypt@M@@UAE@XZ	; CEncrypt<float>::~CEncrypt<float>
__unwindfunclet$??0ioObjectChargeShotItem@@QAE@ABV0@@Z$22:
  00133	8b 4d f0	 mov	 ecx, DWORD PTR _this$[ebp]
  00136	81 c1 a4 1e 00
	00		 add	 ecx, 7844		; 00001ea4H
  0013c	e9 00 00 00 00	 jmp	 ??1?$CEncrypt@M@@UAE@XZ	; CEncrypt<float>::~CEncrypt<float>
__unwindfunclet$??0ioObjectChargeShotItem@@QAE@ABV0@@Z$23:
  00141	8b 4d f0	 mov	 ecx, DWORD PTR _this$[ebp]
  00144	81 c1 d4 1e 00
	00		 add	 ecx, 7892		; 00001ed4H
  0014a	e9 00 00 00 00	 jmp	 ??1?$CEncrypt@M@@UAE@XZ	; CEncrypt<float>::~CEncrypt<float>
__unwindfunclet$??0ioObjectChargeShotItem@@QAE@ABV0@@Z$24:
  0014f	8b 4d f0	 mov	 ecx, DWORD PTR _this$[ebp]
  00152	81 c1 18 1f 00
	00		 add	 ecx, 7960		; 00001f18H
  00158	e9 00 00 00 00	 jmp	 ??1?$CEncrypt@K@@UAE@XZ	; CEncrypt<unsigned long>::~CEncrypt<unsigned long>
__ehhandler$??0ioObjectChargeShotItem@@QAE@ABV0@@Z:
  0015d	8b 54 24 08	 mov	 edx, DWORD PTR [esp+8]
  00161	8d 42 0c	 lea	 eax, DWORD PTR [edx+12]
  00164	8b 4a ec	 mov	 ecx, DWORD PTR [edx-20]
  00167	33 c8		 xor	 ecx, eax
  00169	e8 00 00 00 00	 call	 @__security_check_cookie@4
  0016e	b8 00 00 00 00	 mov	 eax, OFFSET __ehfuncinfo$??0ioObjectChargeShotItem@@QAE@ABV0@@Z
  00173	e9 00 00 00 00	 jmp	 ___CxxFrameHandler3
text$x	ENDS
??0ioObjectChargeShotItem@@QAE@ABV0@@Z ENDP		; ioObjectChargeShotItem::ioObjectChargeShotItem
EXTRN	??2@YAPAXI@Z:PROC				; operator new
;	COMDAT xdata$x
xdata$x	SEGMENT
__unwindtable$?Clone@ioObjectChargeShotItem@@UAEPAVioItem@@XZ DD 0ffffffffH
	DD	FLAT:__unwindfunclet$?Clone@ioObjectChargeShotItem@@UAEPAVioItem@@XZ$0
__ehfuncinfo$?Clone@ioObjectChargeShotItem@@UAEPAVioItem@@XZ DD 019930522H
	DD	01H
	DD	FLAT:__unwindtable$?Clone@ioObjectChargeShotItem@@UAEPAVioItem@@XZ
	DD	2 DUP(00H)
	DD	2 DUP(00H)
	DD	00H
	DD	01H
; Function compile flags: /Ogsp
xdata$x	ENDS
;	COMDAT ?Clone@ioObjectChargeShotItem@@UAEPAVioItem@@XZ
_TEXT	SEGMENT
$T619842 = -16						; size = 4
__$EHRec$ = -12						; size = 12
?Clone@ioObjectChargeShotItem@@UAEPAVioItem@@XZ PROC	; ioObjectChargeShotItem::Clone, COMDAT
; _this$ = ecx

; 145  : {

  00000	6a 04		 push	 4
  00002	b8 00 00 00 00	 mov	 eax, __ehhandler$?Clone@ioObjectChargeShotItem@@UAEPAVioItem@@XZ
  00007	e8 00 00 00 00	 call	 __EH_prolog3
  0000c	8b f1		 mov	 esi, ecx

; 146  : 	return new ioObjectChargeShotItem( *this );

  0000e	68 80 1f 00 00	 push	 8064			; 00001f80H
  00013	e8 00 00 00 00	 call	 ??2@YAPAXI@Z		; operator new
  00018	59		 pop	 ecx
  00019	8b c8		 mov	 ecx, eax
  0001b	89 4d f0	 mov	 DWORD PTR $T619842[ebp], ecx
  0001e	33 c0		 xor	 eax, eax
  00020	89 45 fc	 mov	 DWORD PTR __$EHRec$[ebp+8], eax
  00023	3b c8		 cmp	 ecx, eax
  00025	74 06		 je	 SHORT $LN3@Clone
  00027	56		 push	 esi
  00028	e8 00 00 00 00	 call	 ??0ioObjectChargeShotItem@@QAE@ABV0@@Z ; ioObjectChargeShotItem::ioObjectChargeShotItem
$LN3@Clone:

; 147  : }

  0002d	e8 00 00 00 00	 call	 __EH_epilog3
  00032	c3		 ret	 0
_TEXT	ENDS
;	COMDAT text$x
text$x	SEGMENT
__unwindfunclet$?Clone@ioObjectChargeShotItem@@UAEPAVioItem@@XZ$0:
  00000	ff 75 f0	 push	 DWORD PTR $T619842[ebp]
  00003	e8 00 00 00 00	 call	 ??3@YAXPAX@Z		; operator delete
  00008	59		 pop	 ecx
  00009	c3		 ret	 0
__ehhandler$?Clone@ioObjectChargeShotItem@@UAEPAVioItem@@XZ:
  0000a	8b 54 24 08	 mov	 edx, DWORD PTR [esp+8]
  0000e	8d 42 0c	 lea	 eax, DWORD PTR [edx+12]
  00011	8b 4a ec	 mov	 ecx, DWORD PTR [edx-20]
  00014	33 c8		 xor	 ecx, eax
  00016	e8 00 00 00 00	 call	 @__security_check_cookie@4
  0001b	b8 00 00 00 00	 mov	 eax, OFFSET __ehfuncinfo$?Clone@ioObjectChargeShotItem@@UAEPAVioItem@@XZ
  00020	e9 00 00 00 00	 jmp	 ___CxxFrameHandler3
text$x	ENDS
?Clone@ioObjectChargeShotItem@@UAEPAVioItem@@XZ ENDP	; ioObjectChargeShotItem::Clone
EXTRN	??5SP2Packet@@QAEAAV0@AA_N@Z:PROC		; SP2Packet::operator>>
EXTRN	??5SP2Packet@@QAEAAV0@AAH@Z:PROC		; SP2Packet::operator>>
; Function compile flags: /Ogsp
;	COMDAT ?OnItemGaugeOK@ioObjectChargeShotItem@@UAEXPAVioBaseChar@@AAVSP2Packet@@@Z
_TEXT	SEGMENT
_iState$ = -4						; size = 4
_iDir$607733 = 8					; size = 4
_pOwner$ = 8						; size = 4
_rkPacket$ = 12						; size = 4
?OnItemGaugeOK@ioObjectChargeShotItem@@UAEXPAVioBaseChar@@AAVSP2Packet@@@Z PROC ; ioObjectChargeShotItem::OnItemGaugeOK, COMDAT
; _this$ = ecx

; 194  : {

  00000	55		 push	 ebp
  00001	8b ec		 mov	 ebp, esp
  00003	51		 push	 ecx
  00004	53		 push	 ebx

; 195  : 	if( !pOwner ) return;

  00005	33 db		 xor	 ebx, ebx
  00007	56		 push	 esi
  00008	8b f1		 mov	 esi, ecx
  0000a	39 5d 08	 cmp	 DWORD PTR _pOwner$[ebp], ebx
  0000d	0f 84 c3 00 00
	00		 je	 $LN16@OnItemGaug

; 196  : 
; 197  : 	int iState;
; 198  : 	rkPacket >> iState;

  00013	8b 4d 0c	 mov	 ecx, DWORD PTR _rkPacket$[ebp]
  00016	8d 45 fc	 lea	 eax, DWORD PTR _iState$[ebp]
  00019	50		 push	 eax
  0001a	e8 00 00 00 00	 call	 ??5SP2Packet@@QAEAAV0@AAH@Z ; SP2Packet::operator>>

; 199  : 	
; 200  : 	switch( iState )

  0001f	8b 45 fc	 mov	 eax, DWORD PTR _iState$[ebp]
  00022	2b c3		 sub	 eax, ebx
  00024	0f 84 a2 00 00
	00		 je	 $LN15@OnItemGaug
  0002a	48		 dec	 eax
  0002b	0f 85 a5 00 00
	00		 jne	 $LN16@OnItemGaug

; 205  : 		}
; 206  : 		break;
; 207  : 	case SS_ROTATE:
; 208  : 		{
; 209  : 			int iDir;
; 210  : 			rkPacket >> iDir;

  00031	8b 4d 0c	 mov	 ecx, DWORD PTR _rkPacket$[ebp]
  00034	8d 45 08	 lea	 eax, DWORD PTR _iDir$607733[ebp]
  00037	50		 push	 eax
  00038	e8 00 00 00 00	 call	 ??5SP2Packet@@QAEAAV0@AAH@Z ; SP2Packet::operator>>

; 211  : 			rkPacket >> m_bLeftRot;

  0003d	8b 4d 0c	 mov	 ecx, DWORD PTR _rkPacket$[ebp]
  00040	8d 86 49 1f 00
	00		 lea	 eax, DWORD PTR [esi+8009]
  00046	50		 push	 eax
  00047	e8 00 00 00 00	 call	 ??5SP2Packet@@QAEAAV0@AA_N@Z ; SP2Packet::operator>>

; 212  : 
; 213  : 			if( iDir == ioUserKeyInput::DKI_NONE )

  0004c	8b 45 08	 mov	 eax, DWORD PTR _iDir$607733[ebp]
  0004f	3b c3		 cmp	 eax, ebx

; 214  : 			{
; 215  : 				m_CurDirKey = ioUserKeyInput::DKI_NONE;
; 216  : 			}
; 217  : 			else

  00051	74 71		 je	 SHORT $LN1@OnItemGaug

; 218  : 			{
; 219  : 				m_bTargetRot = false;
; 220  : 				switch( iDir )

  00053	6a 07		 push	 7
  00055	48		 dec	 eax
  00056	59		 pop	 ecx
  00057	88 9e 48 1f 00
	00		 mov	 BYTE PTR [esi+8008], bl
  0005d	3b c1		 cmp	 eax, ecx
  0005f	77 63		 ja	 SHORT $LN1@OnItemGaug
  00061	ff 24 85 00 00
	00 00		 jmp	 DWORD PTR $LN21@OnItemGaug[eax*4]
$LN9@OnItemGaug:

; 221  : 				{
; 222  : 				case ioUserKeyInput::DKI_UP:
; 223  : 					m_CurDirKey = ioUserKeyInput::DKI_UP;

  00068	c7 86 4c 1f 00
	00 01 00 00 00	 mov	 DWORD PTR [esi+8012], 1

; 224  : 					break;

  00072	eb 62		 jmp	 SHORT $LN16@OnItemGaug
$LN8@OnItemGaug:

; 225  : 				case ioUserKeyInput::DKI_RIGHTUP:
; 226  : 					m_CurDirKey = ioUserKeyInput::DKI_RIGHTUP;

  00074	c7 86 4c 1f 00
	00 02 00 00 00	 mov	 DWORD PTR [esi+8012], 2

; 227  : 					break;

  0007e	eb 56		 jmp	 SHORT $LN16@OnItemGaug
$LN7@OnItemGaug:

; 228  : 				case ioUserKeyInput::DKI_RIGHT:
; 229  : 					m_CurDirKey = ioUserKeyInput::DKI_RIGHT;

  00080	c7 86 4c 1f 00
	00 03 00 00 00	 mov	 DWORD PTR [esi+8012], 3

; 230  : 					break;

  0008a	eb 4a		 jmp	 SHORT $LN16@OnItemGaug
$LN6@OnItemGaug:

; 231  : 				case ioUserKeyInput::DKI_RIGHTDOWN:
; 232  : 					m_CurDirKey = ioUserKeyInput::DKI_RIGHTDOWN;

  0008c	c7 86 4c 1f 00
	00 04 00 00 00	 mov	 DWORD PTR [esi+8012], 4

; 233  : 					break;

  00096	eb 3e		 jmp	 SHORT $LN16@OnItemGaug
$LN5@OnItemGaug:

; 234  : 				case ioUserKeyInput::DKI_DOWN:
; 235  : 					m_CurDirKey = ioUserKeyInput::DKI_DOWN;

  00098	c7 86 4c 1f 00
	00 05 00 00 00	 mov	 DWORD PTR [esi+8012], 5

; 236  : 					break;

  000a2	eb 32		 jmp	 SHORT $LN16@OnItemGaug
$LN4@OnItemGaug:

; 237  : 				case ioUserKeyInput::DKI_LEFTDOWN:
; 238  : 					m_CurDirKey = ioUserKeyInput::DKI_LEFTDOWN;

  000a4	c7 86 4c 1f 00
	00 06 00 00 00	 mov	 DWORD PTR [esi+8012], 6

; 239  : 					break;

  000ae	eb 26		 jmp	 SHORT $LN16@OnItemGaug
$LN3@OnItemGaug:

; 240  : 				case ioUserKeyInput::DKI_LEFT:
; 241  : 					m_CurDirKey = ioUserKeyInput::DKI_LEFT;

  000b0	89 8e 4c 1f 00
	00		 mov	 DWORD PTR [esi+8012], ecx

; 242  : 					break;

  000b6	eb 1e		 jmp	 SHORT $LN16@OnItemGaug
$LN2@OnItemGaug:

; 243  : 				case ioUserKeyInput::DKI_LEFTUP:
; 244  : 					m_CurDirKey = ioUserKeyInput::DKI_LEFTUP;

  000b8	c7 86 4c 1f 00
	00 08 00 00 00	 mov	 DWORD PTR [esi+8012], 8

; 245  : 					break;

  000c2	eb 12		 jmp	 SHORT $LN16@OnItemGaug
$LN1@OnItemGaug:

; 246  : 				default:
; 247  : 					m_CurDirKey = ioUserKeyInput::DKI_NONE;

  000c4	89 9e 4c 1f 00
	00		 mov	 DWORD PTR [esi+8012], ebx

; 248  : 					break;
; 249  : 				}
; 250  : 			}
; 251  : 		}
; 252  : 		break;

  000ca	eb 0a		 jmp	 SHORT $LN16@OnItemGaug
$LN15@OnItemGaug:

; 201  : 	{
; 202  : 	case SS_ATTACK_END:
; 203  : 		{
; 204  : 			ChangeToAttackEnd( pOwner );

  000cc	ff 75 08	 push	 DWORD PTR _pOwner$[ebp]
  000cf	8b ce		 mov	 ecx, esi
  000d1	e8 00 00 00 00	 call	 ?ChangeToAttackEnd@ioObjectChargeShotItem@@IAEXPAVioBaseChar@@@Z ; ioObjectChargeShotItem::ChangeToAttackEnd
$LN16@OnItemGaug:
  000d6	5e		 pop	 esi
  000d7	5b		 pop	 ebx

; 253  : 	}
; 254  : }

  000d8	c9		 leave
  000d9	c2 08 00	 ret	 8
$LN21@OnItemGaug:
  000dc	00 00 00 00	 DD	 $LN9@OnItemGaug
  000e0	00 00 00 00	 DD	 $LN8@OnItemGaug
  000e4	00 00 00 00	 DD	 $LN7@OnItemGaug
  000e8	00 00 00 00	 DD	 $LN6@OnItemGaug
  000ec	00 00 00 00	 DD	 $LN5@OnItemGaug
  000f0	00 00 00 00	 DD	 $LN4@OnItemGaug
  000f4	00 00 00 00	 DD	 $LN3@OnItemGaug
  000f8	00 00 00 00	 DD	 $LN2@OnItemGaug
?OnItemGaugeOK@ioObjectChargeShotItem@@UAEXPAVioBaseChar@@AAVSP2Packet@@@Z ENDP ; ioObjectChargeShotItem::OnItemGaugeOK
_TEXT	ENDS
PUBLIC	_pOwner$GSCopy$
PUBLIC	__$ArrayPad$
PUBLIC	?ChangeToAttackFire@ioObjectChargeShotItem@@IAEXPAVioBaseChar@@@Z ; ioObjectChargeShotItem::ChangeToAttackFire
EXTRN	?GetUniqueID@ioMapEffect@@QBEKXZ:PROC		; ioMapEffect::GetUniqueID
EXTRN	?GetCameraTargetChar@ioPlayStage@@QAEPAVioBaseChar@@XZ:PROC ; ioPlayStage::GetCameraTargetChar
EXTRN	?GetMapHeight@ioPlayStage@@QAEMMMPBVioGameEntity@@_NM1@Z:PROC ; ioPlayStage::GetMapHeight
EXTRN	__imp_?SetLoopAni@ioEntityGroup@@QAE_NHMMMM@Z:PROC
; Function compile flags: /Ogsp
;	COMDAT ?ChangeToAttackFire@ioObjectChargeShotItem@@IAEXPAVioBaseChar@@@Z
_TEXT	SEGMENT
_vDir$607829 = -56					; size = 12
_vPos$607828 = -44					; size = 12
_value$619958 = -32					; size = 4
_pOwner$GSCopy$ = -32					; size = 4
_value$619877 = -28					; size = 4
_pStage$ = -28						; size = 4
tv527 = -24						; size = 4
tv524 = -24						; size = 4
tv521 = -24						; size = 4
tv519 = -24						; size = 4
_value$619896 = -24					; size = 4
$T619873 = -24						; size = 4
tv541 = -20						; size = 4
tv536 = -20						; size = 4
tv460 = -20						; size = 4
tv457 = -20						; size = 4
tv454 = -20						; size = 4
_value$619964 = -20					; size = 4
_value$619945 = -20					; size = 4
_value$619935 = -20					; size = 4
_value$619915 = -20					; size = 4
_iAniID$ = -20						; size = 4
_vScale$607831 = -16					; size = 12
__$ArrayPad$ = -4					; size = 4
_pOwner$ = 8						; size = 4
?ChangeToAttackFire@ioObjectChargeShotItem@@IAEXPAVioBaseChar@@@Z PROC ; ioObjectChargeShotItem::ChangeToAttackFire, COMDAT
; _this$ = ecx

; 344  : {

  00000	55		 push	 ebp
  00001	8b ec		 mov	 ebp, esp
  00003	83 ec 38	 sub	 esp, 56			; 00000038H
  00006	a1 00 00 00 00	 mov	 eax, DWORD PTR ___security_cookie
  0000b	33 c5		 xor	 eax, ebp
  0000d	89 45 fc	 mov	 DWORD PTR __$ArrayPad$[ebp], eax
  00010	53		 push	 ebx
  00011	56		 push	 esi
  00012	8b 75 08	 mov	 esi, DWORD PTR _pOwner$[ebp]
  00015	8b d9		 mov	 ebx, ecx

; 345  : 	if( m_AttackState == AS_ATTACK )

  00017	6a 02		 push	 2
  00019	59		 pop	 ecx

; 379  : 			}
; 380  : 		}
; 381  : 	}
; 382  : 
; 383  : 	if( m_dwProtectTime > 0 && m_dwAttackStartTime == 0 )

  0001a	89 75 e0	 mov	 DWORD PTR _pOwner$GSCopy$[ebp], esi
  0001d	39 8b 34 1b 00
	00		 cmp	 DWORD PTR [ebx+6964], ecx
  00023	0f 84 e8 02 00
	00		 je	 $LN1@ChangeToAt@2

; 346  : 		return;
; 347  : 
; 348  : 	m_AttackState = AS_ATTACK;

  00029	57		 push	 edi
  0002a	89 8b 34 1b 00
	00		 mov	 DWORD PTR [ebx+6964], ecx

; 349  : 
; 350  : 	DWORD dwCurTime = FRAMEGETTIME();

  00030	ff 15 00 00 00
	00		 call	 DWORD PTR __imp_?GetSingleton@ioFrameTimer@@SAAAV1@XZ
  00036	8b c8		 mov	 ecx, eax
  00038	ff 15 00 00 00
	00		 call	 DWORD PTR __imp_?GetLoopSec@ioFrameTimer@@QBEKXZ

; 351  : 
; 352  : 	ioEntityGroup *pGrp = pOwner->GetGroup();

  0003e	8b 7e 04	 mov	 edi, DWORD PTR [esi+4]

; 353  : 	pGrp->ClearAllLoopAni( FLOAT100, true );

  00041	b8 64 00 00 00	 mov	 eax, 100		; 00000064H
  00046	89 45 ec	 mov	 DWORD PTR tv541[ebp], eax
  00049	db 45 ec	 fild	 DWORD PTR tv541[ebp]
  0004c	6a 01		 push	 1
  0004e	85 c0		 test	 eax, eax
  00050	79 06		 jns	 SHORT $LN58@ChangeToAt@2
  00052	d8 05 00 00 00
	00		 fadd	 DWORD PTR __real@4f800000
$LN58@ChangeToAt@2:
  00058	51		 push	 ecx
  00059	8b cf		 mov	 ecx, edi
  0005b	d9 1c 24	 fstp	 DWORD PTR [esp]
  0005e	ff 15 00 00 00
	00		 call	 DWORD PTR __imp_?ClearAllLoopAni@ioEntityGroup@@QAEXM_N@Z

; 354  : 	pGrp->ClearAllActionAni( FLOAT100, true );

  00064	b8 64 00 00 00	 mov	 eax, 100		; 00000064H
  00069	89 45 ec	 mov	 DWORD PTR tv536[ebp], eax
  0006c	db 45 ec	 fild	 DWORD PTR tv536[ebp]
  0006f	6a 01		 push	 1
  00071	85 c0		 test	 eax, eax
  00073	79 06		 jns	 SHORT $LN59@ChangeToAt@2
  00075	d8 05 00 00 00
	00		 fadd	 DWORD PTR __real@4f800000
$LN59@ChangeToAt@2:
  0007b	51		 push	 ecx
  0007c	8b cf		 mov	 ecx, edi
  0007e	d9 1c 24	 fstp	 DWORD PTR [esp]
  00081	ff 15 00 00 00
	00		 call	 DWORD PTR __imp_?ClearAllActionAni@ioEntityGroup@@QAEXM_N@Z

; 355  : 
; 356  : 	int iAniID = pGrp->GetAnimationIdx( m_AttackAnimation );

  00087	8d 83 a8 1b 00
	00		 lea	 eax, DWORD PTR [ebx+7080]
  0008d	50		 push	 eax
  0008e	8b cf		 mov	 ecx, edi
  00090	ff 15 00 00 00
	00		 call	 DWORD PTR __imp_?GetAnimationIdx@ioEntityGroup@@QAEHABVioHashString@@@Z
  00096	89 45 ec	 mov	 DWORD PTR _iAniID$[ebp], eax

; 357  : 	pGrp->SetLoopAni( iAniID, FLOAT100, FLOAT100, FLOAT1/m_fAttackAniRate );

  00099	b8 01 00 00 00	 mov	 eax, 1
  0009e	89 45 e8	 mov	 DWORD PTR $T619873[ebp], eax
  000a1	8d 45 e4	 lea	 eax, DWORD PTR _value$619877[ebp]
  000a4	50		 push	 eax
  000a5	8d 8b b8 1b 00
	00		 lea	 ecx, DWORD PTR [ebx+7096]
  000ab	e8 00 00 00 00	 call	 ?DecryptValueToPool@?$CEncrypt@M@@QAEXPAM@Z ; CEncrypt<float>::DecryptValueToPool
  000b0	b8 64 00 00 00	 mov	 eax, 100		; 00000064H
  000b5	8b c8		 mov	 ecx, eax
  000b7	b8 64 00 00 00	 mov	 eax, 100		; 00000064H
  000bc	db 45 e8	 fild	 DWORD PTR $T619873[ebp]
  000bf	8b 55 e8	 mov	 edx, DWORD PTR $T619873[ebp]
  000c2	0f 57 c0	 xorps	 xmm0, xmm0
  000c5	83 ec 10	 sub	 esp, 16			; 00000010H
  000c8	f3 0f 11 44 24
	0c		 movss	 DWORD PTR [esp+12], xmm0
  000ce	85 d2		 test	 edx, edx
  000d0	79 06		 jns	 SHORT $LN60@ChangeToAt@2
  000d2	d8 05 00 00 00
	00		 fadd	 DWORD PTR __real@4f800000
$LN60@ChangeToAt@2:
  000d8	d8 75 e4	 fdiv	 DWORD PTR _value$619877[ebp]
  000db	d9 5d e8	 fstp	 DWORD PTR tv524[ebp]
  000de	d9 45 e8	 fld	 DWORD PTR tv524[ebp]
  000e1	d9 5c 24 08	 fstp	 DWORD PTR [esp+8]
  000e5	89 4d e8	 mov	 DWORD PTR tv521[ebp], ecx
  000e8	db 45 e8	 fild	 DWORD PTR tv521[ebp]
  000eb	85 c9		 test	 ecx, ecx
  000ed	79 06		 jns	 SHORT $LN61@ChangeToAt@2
  000ef	d8 05 00 00 00
	00		 fadd	 DWORD PTR __real@4f800000
$LN61@ChangeToAt@2:
  000f5	d9 5c 24 04	 fstp	 DWORD PTR [esp+4]
  000f9	89 45 e8	 mov	 DWORD PTR tv519[ebp], eax
  000fc	db 45 e8	 fild	 DWORD PTR tv519[ebp]
  000ff	85 c0		 test	 eax, eax
  00101	79 06		 jns	 SHORT $LN62@ChangeToAt@2
  00103	d8 05 00 00 00
	00		 fadd	 DWORD PTR __real@4f800000
$LN62@ChangeToAt@2:
  00109	d9 1c 24	 fstp	 DWORD PTR [esp]
  0010c	ff 75 ec	 push	 DWORD PTR _iAniID$[ebp]
  0010f	8b cf		 mov	 ecx, edi
  00111	ff 15 00 00 00
	00		 call	 DWORD PTR __imp_?SetLoopAni@ioEntityGroup@@QAE_NHMMMM@Z

; 358  : 
; 359  : 	ioPlayStage *pStage = pOwner->GetCreator();

  00117	8b 86 44 03 00
	00		 mov	 eax, DWORD PTR [esi+836]
  0011d	89 45 e4	 mov	 DWORD PTR _pStage$[ebp], eax

; 360  : 	if( pStage )

  00120	85 c0		 test	 eax, eax
  00122	0f 84 b6 01 00
	00		 je	 $LN57@ChangeToAt@2

; 361  : 	{
; 362  : 		D3DXVECTOR3 vPos = pOwner->GetWorldPosition();

  00128	8b 06		 mov	 eax, DWORD PTR [esi]
  0012a	8b ce		 mov	 ecx, esi
  0012c	ff 50 70	 call	 DWORD PTR [eax+112]
  0012f	8b f0		 mov	 esi, eax
  00131	8d 7d d4	 lea	 edi, DWORD PTR _vPos$607828[ebp]
  00134	a5		 movsd
  00135	a5		 movsd
  00136	a5		 movsd

; 363  : 		D3DXVECTOR3 vDir = pOwner->GetMoveDir();

  00137	8b 75 e0	 mov	 esi, DWORD PTR _pOwner$GSCopy$[ebp]
  0013a	81 c6 b4 06 00
	00		 add	 esi, 1716		; 000006b4H
  00140	8d 7d c8	 lea	 edi, DWORD PTR _vDir$607829[ebp]
  00143	a5		 movsd
  00144	a5		 movsd

; 364  : 		vPos += ( vDir * m_fMarkFrontOffset );

  00145	8d 45 e8	 lea	 eax, DWORD PTR _value$619896[ebp]
  00148	8d 8b e4 1c 00
	00		 lea	 ecx, DWORD PTR [ebx+7396]
  0014e	50		 push	 eax
  0014f	a5		 movsd
  00150	e8 00 00 00 00	 call	 ?DecryptValueToPool@?$CEncrypt@M@@QAEXPAM@Z ; CEncrypt<float>::DecryptValueToPool
  00155	f3 0f 10 45 c8	 movss	 xmm0, DWORD PTR _vDir$607829[ebp]
  0015a	f3 0f 10 4d e8	 movss	 xmm1, DWORD PTR _value$619896[ebp]
  0015f	f3 0f 10 55 e8	 movss	 xmm2, DWORD PTR _value$619896[ebp]
  00164	0f 5a c0	 cvtps2pd xmm0, xmm0
  00167	0f 5a c9	 cvtps2pd xmm1, xmm1
  0016a	f2 0f 59 c1	 mulsd	 xmm0, xmm1
  0016e	f3 0f 10 4d d0	 movss	 xmm1, DWORD PTR _vDir$607829[ebp+8]
  00173	66 0f 5a c0	 cvtpd2ps xmm0, xmm0
  00177	0f 5a c9	 cvtps2pd xmm1, xmm1
  0017a	0f 5a d2	 cvtps2pd xmm2, xmm2
  0017d	f2 0f 59 ca	 mulsd	 xmm1, xmm2
  00181	f3 0f 10 55 d4	 movss	 xmm2, DWORD PTR _vPos$607828[ebp]
  00186	f3 0f 5a c0	 cvtss2sd xmm0, xmm0
  0018a	0f 5a d2	 cvtps2pd xmm2, xmm2
  0018d	f2 0f 58 c2	 addsd	 xmm0, xmm2
  00191	66 0f 5a c0	 cvtpd2ps xmm0, xmm0
  00195	f3 0f 11 45 d4	 movss	 DWORD PTR _vPos$607828[ebp], xmm0
  0019a	66 0f 5a c9	 cvtpd2ps xmm1, xmm1
  0019e	0f 57 c0	 xorps	 xmm0, xmm0
  001a1	f3 0f 5a c1	 cvtss2sd xmm0, xmm1
  001a5	f3 0f 10 4d dc	 movss	 xmm1, DWORD PTR _vPos$607828[ebp+8]
  001aa	0f 5a c9	 cvtps2pd xmm1, xmm1

; 365  : 		vPos.y = pStage->GetMapHeight( vPos.x, vPos.z, NULL, false ) + m_fMarkHeightOffset;

  001ad	8d 45 ec	 lea	 eax, DWORD PTR _value$619915[ebp]
  001b0	f2 0f 58 c1	 addsd	 xmm0, xmm1
  001b4	66 0f 5a c0	 cvtpd2ps xmm0, xmm0
  001b8	50		 push	 eax
  001b9	8d 8b 14 1d 00
	00		 lea	 ecx, DWORD PTR [ebx+7444]
  001bf	f3 0f 11 45 dc	 movss	 DWORD PTR _vPos$607828[ebp+8], xmm0
  001c4	e8 00 00 00 00	 call	 ?DecryptValueToPool@?$CEncrypt@M@@QAEXPAM@Z ; CEncrypt<float>::DecryptValueToPool
  001c9	0f 57 c0	 xorps	 xmm0, xmm0
  001cc	33 c0		 xor	 eax, eax
  001ce	50		 push	 eax
  001cf	51		 push	 ecx
  001d0	f3 0f 11 04 24	 movss	 DWORD PTR [esp], xmm0
  001d5	f3 0f 10 45 dc	 movss	 xmm0, DWORD PTR _vPos$607828[ebp+8]
  001da	50		 push	 eax
  001db	50		 push	 eax
  001dc	51		 push	 ecx
  001dd	51		 push	 ecx
  001de	8b 4d e4	 mov	 ecx, DWORD PTR _pStage$[ebp]
  001e1	f3 0f 11 44 24
	04		 movss	 DWORD PTR [esp+4], xmm0
  001e7	f3 0f 10 45 d4	 movss	 xmm0, DWORD PTR _vPos$607828[ebp]
  001ec	f3 0f 11 04 24	 movss	 DWORD PTR [esp], xmm0
  001f1	e8 00 00 00 00	 call	 ?GetMapHeight@ioPlayStage@@QAEMMMPBVioGameEntity@@_NM1@Z ; ioPlayStage::GetMapHeight
  001f6	d8 45 ec	 fadd	 DWORD PTR _value$619915[ebp]

; 366  : 		m_vMarkPosition = vPos;

  001f9	8d bb a8 1d 00
	00		 lea	 edi, DWORD PTR [ebx+7592]
  001ff	8d 75 d4	 lea	 esi, DWORD PTR _vPos$607828[ebp]
  00202	d9 5d d8	 fstp	 DWORD PTR _vPos$607828[ebp+4]
  00205	a5		 movsd
  00206	a5		 movsd
  00207	a5		 movsd

; 367  : 		D3DXVECTOR3 vScale = D3DXVECTOR3( FLOAT1, FLOAT1, FLOAT1 );

  00208	b8 01 00 00 00	 mov	 eax, 1
  0020d	8b c8		 mov	 ecx, eax
  0020f	b8 01 00 00 00	 mov	 eax, 1
  00214	8b d0		 mov	 edx, eax
  00216	b8 01 00 00 00	 mov	 eax, 1
  0021b	89 45 ec	 mov	 DWORD PTR tv460[ebp], eax
  0021e	db 45 ec	 fild	 DWORD PTR tv460[ebp]
  00221	85 c0		 test	 eax, eax
  00223	79 06		 jns	 SHORT $LN63@ChangeToAt@2
  00225	d8 05 00 00 00
	00		 fadd	 DWORD PTR __real@4f800000
$LN63@ChangeToAt@2:
  0022b	d9 5d f0	 fstp	 DWORD PTR _vScale$607831[ebp]
  0022e	89 55 ec	 mov	 DWORD PTR tv457[ebp], edx
  00231	db 45 ec	 fild	 DWORD PTR tv457[ebp]
  00234	85 d2		 test	 edx, edx
  00236	79 06		 jns	 SHORT $LN64@ChangeToAt@2
  00238	d8 05 00 00 00
	00		 fadd	 DWORD PTR __real@4f800000
$LN64@ChangeToAt@2:
  0023e	d9 5d f4	 fstp	 DWORD PTR _vScale$607831[ebp+4]
  00241	89 4d ec	 mov	 DWORD PTR tv454[ebp], ecx
  00244	db 45 ec	 fild	 DWORD PTR tv454[ebp]
  00247	85 c9		 test	 ecx, ecx
  00249	79 06		 jns	 SHORT $LN65@ChangeToAt@2
  0024b	d8 05 00 00 00
	00		 fadd	 DWORD PTR __real@4f800000
$LN65@ChangeToAt@2:

; 368  : 
; 369  : 		m_fMarkCurRange = m_fMarkFrontOffset;

  00251	8d 45 ec	 lea	 eax, DWORD PTR _value$619935[ebp]
  00254	d9 5d f8	 fstp	 DWORD PTR _vScale$607831[ebp+8]
  00257	50		 push	 eax
  00258	8d 8b e4 1c 00
	00		 lea	 ecx, DWORD PTR [ebx+7396]
  0025e	e8 00 00 00 00	 call	 ?DecryptValueToPool@?$CEncrypt@M@@QAEXPAM@Z ; CEncrypt<float>::DecryptValueToPool
  00263	f3 0f 10 45 ec	 movss	 xmm0, DWORD PTR _value$619935[ebp]

; 370  : 
; 371  : 		if( !m_MarkEffect.IsEmpty() )

  00268	8d b3 c0 1c 00
	00		 lea	 esi, DWORD PTR [ebx+7360]
  0026e	8b ce		 mov	 ecx, esi
  00270	f3 0f 11 83 a4
	1d 00 00	 movss	 DWORD PTR [ebx+7588], xmm0
  00278	ff 15 00 00 00
	00		 call	 DWORD PTR __imp_?IsEmpty@ioHashString@@QBE_NXZ
  0027e	84 c0		 test	 al, al
  00280	75 5c		 jne	 SHORT $LN57@ChangeToAt@2

; 372  : 		{
; 373  : 			ioBaseChar *pChar = pStage->GetCameraTargetChar();

  00282	8b 4d e4	 mov	 ecx, DWORD PTR _pStage$[ebp]
  00285	e8 00 00 00 00	 call	 ?GetCameraTargetChar@ioPlayStage@@QAEPAVioBaseChar@@XZ ; ioPlayStage::GetCameraTargetChar
  0028a	8b f8		 mov	 edi, eax

; 374  : 			if( pChar && pOwner->GetTeam() == pChar->GetTeam())

  0028c	85 ff		 test	 edi, edi
  0028e	74 4e		 je	 SHORT $LN57@ChangeToAt@2
  00290	8b 4d e0	 mov	 ecx, DWORD PTR _pOwner$GSCopy$[ebp]
  00293	8d 45 ec	 lea	 eax, DWORD PTR _value$619945[ebp]
  00296	50		 push	 eax
  00297	81 c1 90 00 00
	00		 add	 ecx, 144		; 00000090H
  0029d	e8 00 00 00 00	 call	 ?DecryptValueToPool@?$CEncrypt@W4TeamType@@@@QAEXPAW4TeamType@@@Z ; CEncrypt<enum TeamType>::DecryptValueToPool
  002a2	8d 45 e0	 lea	 eax, DWORD PTR _value$619958[ebp]
  002a5	50		 push	 eax
  002a6	8d 8f 90 00 00
	00		 lea	 ecx, DWORD PTR [edi+144]
  002ac	e8 00 00 00 00	 call	 ?DecryptValueToPool@?$CEncrypt@W4TeamType@@@@QAEXPAW4TeamType@@@Z ; CEncrypt<enum TeamType>::DecryptValueToPool
  002b1	8b 45 ec	 mov	 eax, DWORD PTR _value$619945[ebp]
  002b4	3b 45 e0	 cmp	 eax, DWORD PTR _value$619958[ebp]
  002b7	75 25		 jne	 SHORT $LN57@ChangeToAt@2

; 375  : 			{
; 376  : 				ioMapEffect *pEffect = pStage->CreateMapEffect( m_MarkEffect, m_vMarkPosition, vScale );

  002b9	8b 4d e4	 mov	 ecx, DWORD PTR _pStage$[ebp]
  002bc	8d 45 f0	 lea	 eax, DWORD PTR _vScale$607831[ebp]
  002bf	50		 push	 eax
  002c0	8d 83 a8 1d 00
	00		 lea	 eax, DWORD PTR [ebx+7592]
  002c6	50		 push	 eax
  002c7	56		 push	 esi
  002c8	e8 00 00 00 00	 call	 ?CreateMapEffect@ioPlayStage@@QAEPAVioMapEffect@@ABVioHashString@@ABUD3DXVECTOR3@@1@Z ; ioPlayStage::CreateMapEffect

; 377  : 				if( pEffect )

  002cd	85 c0		 test	 eax, eax
  002cf	74 0d		 je	 SHORT $LN57@ChangeToAt@2

; 378  : 					m_dwMarkEffectID = pEffect->GetUniqueID();

  002d1	8b c8		 mov	 ecx, eax
  002d3	e8 00 00 00 00	 call	 ?GetUniqueID@ioMapEffect@@QBEKXZ ; ioMapEffect::GetUniqueID
  002d8	89 83 e0 1c 00
	00		 mov	 DWORD PTR [ebx+7392], eax
$LN57@ChangeToAt@2:

; 379  : 			}
; 380  : 		}
; 381  : 	}
; 382  : 
; 383  : 	if( m_dwProtectTime > 0 && m_dwAttackStartTime == 0 )

  002de	8d 45 ec	 lea	 eax, DWORD PTR _value$619964[ebp]
  002e1	50		 push	 eax
  002e2	8d 8b 50 1f 00
	00		 lea	 ecx, DWORD PTR [ebx+8016]
  002e8	e8 00 00 00 00	 call	 ?DecryptValueToPool@?$CEncrypt@K@@QAEXPAK@Z ; CEncrypt<unsigned long>::DecryptValueToPool
  002ed	83 7d ec 00	 cmp	 DWORD PTR _value$619964[ebp], 0
  002f1	5f		 pop	 edi
  002f2	76 1d		 jbe	 SHORT $LN1@ChangeToAt@2
  002f4	83 bb b8 1c 00
	00 00		 cmp	 DWORD PTR [ebx+7352], 0
  002fb	75 14		 jne	 SHORT $LN1@ChangeToAt@2

; 384  : 		m_dwAttackStartTime = FRAMEGETTIME();

  002fd	ff 15 00 00 00
	00		 call	 DWORD PTR __imp_?GetSingleton@ioFrameTimer@@SAAAV1@XZ
  00303	8b c8		 mov	 ecx, eax
  00305	ff 15 00 00 00
	00		 call	 DWORD PTR __imp_?GetLoopSec@ioFrameTimer@@QBEKXZ
  0030b	89 83 b8 1c 00
	00		 mov	 DWORD PTR [ebx+7352], eax
$LN1@ChangeToAt@2:

; 385  : }

  00311	8b 4d fc	 mov	 ecx, DWORD PTR __$ArrayPad$[ebp]
  00314	5e		 pop	 esi
  00315	33 cd		 xor	 ecx, ebp
  00317	5b		 pop	 ebx
  00318	e8 00 00 00 00	 call	 @__security_check_cookie@4
  0031d	c9		 leave
  0031e	c2 04 00	 ret	 4
?ChangeToAttackFire@ioObjectChargeShotItem@@IAEXPAVioBaseChar@@@Z ENDP ; ioObjectChargeShotItem::ChangeToAttackFire
_TEXT	ENDS
PUBLIC	?OnPreDelay@ioObjectChargeShotItem@@IAEXPAVioBaseChar@@@Z ; ioObjectChargeShotItem::OnPreDelay
; Function compile flags: /Ogsp
;	COMDAT ?OnPreDelay@ioObjectChargeShotItem@@IAEXPAVioBaseChar@@@Z
_TEXT	SEGMENT
_pOwner$ = 8						; size = 4
?OnPreDelay@ioObjectChargeShotItem@@IAEXPAVioBaseChar@@@Z PROC ; ioObjectChargeShotItem::OnPreDelay, COMDAT
; _this$ = ecx

; 424  : {

  00000	55		 push	 ebp
  00001	8b ec		 mov	 ebp, esp

; 425  : 	if( !pOwner )

  00003	83 7d 08 00	 cmp	 DWORD PTR _pOwner$[ebp], 0
  00007	57		 push	 edi
  00008	8b f9		 mov	 edi, ecx
  0000a	74 29		 je	 SHORT $LN1@OnPreDelay

; 426  : 		return;
; 427  : 
; 428  : 	if( m_dwMotionEndTime < FRAMEGETTIME() )

  0000c	56		 push	 esi
  0000d	ff 15 00 00 00
	00		 call	 DWORD PTR __imp_?GetSingleton@ioFrameTimer@@SAAAV1@XZ
  00013	8b c8		 mov	 ecx, eax
  00015	ff 15 00 00 00
	00		 call	 DWORD PTR __imp_?GetLoopSec@ioFrameTimer@@QBEKXZ
  0001b	39 87 bc 1c 00
	00		 cmp	 DWORD PTR [edi+7356], eax
  00021	73 11		 jae	 SHORT $LN5@OnPreDelay

; 429  : 	{
; 430  : 		m_dwMotionEndTime = 0;
; 431  : 		ChangeToAttackFire( pOwner );

  00023	ff 75 08	 push	 DWORD PTR _pOwner$[ebp]
  00026	83 a7 bc 1c 00
	00 00		 and	 DWORD PTR [edi+7356], 0
  0002d	8b cf		 mov	 ecx, edi
  0002f	e8 00 00 00 00	 call	 ?ChangeToAttackFire@ioObjectChargeShotItem@@IAEXPAVioBaseChar@@@Z ; ioObjectChargeShotItem::ChangeToAttackFire
$LN5@OnPreDelay:
  00034	5e		 pop	 esi
$LN1@OnPreDelay:
  00035	5f		 pop	 edi

; 432  : 	}
; 433  : }

  00036	5d		 pop	 ebp
  00037	c2 04 00	 ret	 4
?OnPreDelay@ioObjectChargeShotItem@@IAEXPAVioBaseChar@@@Z ENDP ; ioObjectChargeShotItem::OnPreDelay
_TEXT	ENDS
PUBLIC	__real@4041800000000000
PUBLIC	__real@c1a00000
PUBLIC	_pOwner$GSCopy$
PUBLIC	?CheckWeaponFloatInfo@ioObjectChargeShotItem@@IAEXPAVioBaseChar@@@Z ; ioObjectChargeShotItem::CheckWeaponFloatInfo
EXTRN	?GetMidHeightByRate@ioGameEntity@@QBEMM@Z:PROC	; ioGameEntity::GetMidHeightByRate
EXTRN	?GetRoomGravity@ioPlayStage@@QAEMXZ:PROC	; ioPlayStage::GetRoomGravity
EXTRN	?GetPlayStage@ioItemMaker@@QAEPAVioPlayStage@@XZ:PROC ; ioItemMaker::GetPlayStage
EXTRN	?GetSingleton@ioItemMaker@@SAAAV1@XZ:PROC	; ioItemMaker::GetSingleton
EXTRN	?SetTargetRotAndMoveDirChange@ioBaseChar@@QAEXABUD3DXQUATERNION@@_N@Z:PROC ; ioBaseChar::SetTargetRotAndMoveDirChange
EXTRN	_D3DXVec3Normalize@8:PROC
EXTRN	__EH_epilog3_GS:PROC
EXTRN	__EH_prolog3_GS:PROC
;	COMDAT __real@4041800000000000
; File d:\lost saga for developer\youtube\tutorial\source\src\lsclient\encryptvalue.h
CONST	SEGMENT
__real@4041800000000000 DQ 04041800000000000r	; 35
CONST	ENDS
;	COMDAT __real@c1a00000
CONST	SEGMENT
__real@c1a00000 DD 0c1a00000r			; -20
CONST	ENDS
;	COMDAT xdata$x
xdata$x	SEGMENT
__unwindtable$?CheckWeaponFloatInfo@ioObjectChargeShotItem@@IAEXPAVioBaseChar@@@Z DD 0ffffffffH
	DD	FLAT:__unwindfunclet$?CheckWeaponFloatInfo@ioObjectChargeShotItem@@IAEXPAVioBaseChar@@@Z$0
	DD	00H
	DD	FLAT:__unwindfunclet$?CheckWeaponFloatInfo@ioObjectChargeShotItem@@IAEXPAVioBaseChar@@@Z$1
	DD	0ffffffffH
	DD	FLAT:__unwindfunclet$?CheckWeaponFloatInfo@ioObjectChargeShotItem@@IAEXPAVioBaseChar@@@Z$2
	DD	02H
	DD	FLAT:__unwindfunclet$?CheckWeaponFloatInfo@ioObjectChargeShotItem@@IAEXPAVioBaseChar@@@Z$3
__ehfuncinfo$?CheckWeaponFloatInfo@ioObjectChargeShotItem@@IAEXPAVioBaseChar@@@Z DD 019930522H
	DD	04H
	DD	FLAT:__unwindtable$?CheckWeaponFloatInfo@ioObjectChargeShotItem@@IAEXPAVioBaseChar@@@Z
	DD	2 DUP(00H)
	DD	2 DUP(00H)
	DD	00H
	DD	01H
; Function compile flags: /Ogsp
; File d:\lost saga for developer\youtube\tutorial\source\src\lsclient\ioobjectchargeshotitem.cpp
xdata$x	ENDS
;	COMDAT ?CheckWeaponFloatInfo@ioObjectChargeShotItem@@IAEXPAVioBaseChar@@@Z
_TEXT	SEGMENT
_vCharPos$ = -296					; size = 12
_fCurWeaponMoveSpeed$ = -284				; size = 4
_fRange$ = -280						; size = 4
_pOwner$GSCopy$ = -276					; size = 4
_fGapHeight2$607983 = -276				; size = 4
_fCurWeaponFloatPower$ = -272				; size = 4
_fWeaponMoveSpeed$607978 = -268				; size = 4
_fRate$ = -268						; size = 4
$T619991 = -264						; size = 4
_fFlightDuration$607981 = -260				; size = 4
_fCurGravity$607977 = -260				; size = 4
tv904 = -256						; size = 4
tv825 = -256						; size = 4
tv787 = -256						; size = 4
tv783 = -256						; size = 4
tv735 = -256						; size = 4
_value$620149 = -256					; size = 4
_value$620153 = -256					; size = 4
_value$620125 = -256					; size = 4
_value$620121 = -256					; size = 4
_value$620105 = -252					; size = 4
_value$620109 = -252					; size = 4
_value$620092 = -252					; size = 4
_value$620087 = -252					; size = 4
_value$620083 = -252					; size = 4
_value$620075 = -252					; size = 4
_value$620071 = -252					; size = 4
_value$620067 = -252					; size = 4
_value$620079 = -252					; size = 4
_fGapHeight$607982 = -252				; size = 4
$T608001 = -248						; size = 48
$T607988 = -200						; size = 48
$T608000 = -152						; size = 48
$T607989 = -104						; size = 48
_qtRot$607971 = -56					; size = 16
$T607969 = -52						; size = 12
$T607972 = -40						; size = 12
$T607968 = -40						; size = 12
_vDir$ = -28						; size = 12
__$EHRec$ = -12						; size = 12
_pOwner$ = 8						; size = 4
?CheckWeaponFloatInfo@ioObjectChargeShotItem@@IAEXPAVioBaseChar@@@Z PROC ; ioObjectChargeShotItem::CheckWeaponFloatInfo, COMDAT
; _this$ = ecx

; 617  : {

  00000	68 1c 01 00 00	 push	 284			; 0000011cH
  00005	b8 00 00 00 00	 mov	 eax, __ehhandler$?CheckWeaponFloatInfo@ioObjectChargeShotItem@@IAEXPAVioBaseChar@@@Z
  0000a	e8 00 00 00 00	 call	 __EH_prolog3_GS
  0000f	83 a5 f8 fe ff
	ff 00		 and	 DWORD PTR $T619991[ebp], 0
  00016	8b d9		 mov	 ebx, ecx
  00018	8b 4d 08	 mov	 ecx, DWORD PTR _pOwner$[ebp]

; 618  : 	// WeaponMove
; 619  : 	D3DXVECTOR3 vCharPos = pOwner->GetWorldPosition();

  0001b	8b 01		 mov	 eax, DWORD PTR [ecx]

; 687  : 		}
; 688  : 	}
; 689  : 
; 690  : 	m_vWeaponDir = vDir;

  0001d	89 8d ec fe ff
	ff		 mov	 DWORD PTR _pOwner$GSCopy$[ebp], ecx
  00023	ff 50 70	 call	 DWORD PTR [eax+112]
  00026	f3 0f 10 83 a8
	1d 00 00	 movss	 xmm0, DWORD PTR [ebx+7592]
  0002e	8b f0		 mov	 esi, eax
  00030	8d bd d8 fe ff
	ff		 lea	 edi, DWORD PTR _vCharPos$[ebp]
  00036	a5		 movsd
  00037	a5		 movsd
  00038	a5		 movsd
  00039	f3 0f 10 8d d8
	fe ff ff	 movss	 xmm1, DWORD PTR _vCharPos$[ebp]
  00041	f3 0f 10 95 e0
	fe ff ff	 movss	 xmm2, DWORD PTR _vCharPos$[ebp+8]
  00049	0f 5a c9	 cvtps2pd xmm1, xmm1
  0004c	0f 5a c0	 cvtps2pd xmm0, xmm0
  0004f	f2 0f 5c c1	 subsd	 xmm0, xmm1
  00053	f3 0f 10 8b b0
	1d 00 00	 movss	 xmm1, DWORD PTR [ebx+7600]
  0005b	66 0f 5a c0	 cvtpd2ps xmm0, xmm0
  0005f	0f 5a c9	 cvtps2pd xmm1, xmm1
  00062	0f 5a d2	 cvtps2pd xmm2, xmm2
  00065	f2 0f 5c ca	 subsd	 xmm1, xmm2
  00069	f3 0f 11 45 e4	 movss	 DWORD PTR _vDir$[ebp], xmm0
  0006e	0f 57 c0	 xorps	 xmm0, xmm0
  00071	66 0f 5a c9	 cvtpd2ps xmm1, xmm1
  00075	f3 0f 11 4d ec	 movss	 DWORD PTR _vDir$[ebp+8], xmm1
  0007a	f3 0f 11 45 e8	 movss	 DWORD PTR _vDir$[ebp+4], xmm0

; 620  : 	D3DXVECTOR3 vDir = m_vMarkPosition - vCharPos;
; 621  : 	vDir.y = 0.0f;
; 622  : 
; 623  : 	float fRate = FLOAT1;

  0007f	b8 01 00 00 00	 mov	 eax, 1

; 687  : 		}
; 688  : 	}
; 689  : 
; 690  : 	m_vWeaponDir = vDir;

  00084	f3 0f 10 45 e4	 movss	 xmm0, DWORD PTR _vDir$[ebp]
  00089	f3 0f 10 4d e8	 movss	 xmm1, DWORD PTR _vDir$[ebp+4]
  0008e	f3 0f 10 55 ec	 movss	 xmm2, DWORD PTR _vDir$[ebp+8]
  00093	0f 5a c0	 cvtps2pd xmm0, xmm0
  00096	f2 0f 59 c0	 mulsd	 xmm0, xmm0
  0009a	0f 5a c9	 cvtps2pd xmm1, xmm1
  0009d	f2 0f 59 c9	 mulsd	 xmm1, xmm1
  000a1	f2 0f 58 c8	 addsd	 xmm1, xmm0
  000a5	0f 57 c0	 xorps	 xmm0, xmm0
  000a8	0f 5a d2	 cvtps2pd xmm2, xmm2
  000ab	f2 0f 59 d2	 mulsd	 xmm2, xmm2
  000af	8d 45 e4	 lea	 eax, DWORD PTR _vDir$[ebp]
  000b2	f2 0f 58 ca	 addsd	 xmm1, xmm2
  000b6	66 0f 5a c1	 cvtpd2ps xmm0, xmm1
  000ba	0f 5a c0	 cvtps2pd xmm0, xmm0
  000bd	50		 push	 eax
  000be	f2 0f 51 c0	 sqrtsd	 xmm0, xmm0
  000c2	66 0f 5a c0	 cvtpd2ps xmm0, xmm0
  000c6	50		 push	 eax
  000c7	f3 0f 11 85 e8
	fe ff ff	 movss	 DWORD PTR _fRange$[ebp], xmm0
  000cf	e8 00 00 00 00	 call	 _D3DXVec3Normalize@8
  000d4	8b 0d 00 00 00
	00		 mov	 ecx, DWORD PTR __imp_?VEC3_ZERO@ioMath@@2UD3DXVECTOR3@@A
  000da	f3 0f 10 4d e4	 movss	 xmm1, DWORD PTR _vDir$[ebp]
  000df	f3 0f 10 11	 movss	 xmm2, DWORD PTR [ecx]
  000e3	f3 0f 10 5d e8	 movss	 xmm3, DWORD PTR _vDir$[ebp+4]
  000e8	0f 5a c1	 cvtps2pd xmm0, xmm1
  000eb	0f 5a d2	 cvtps2pd xmm2, xmm2
  000ee	66 0f 2e c2	 ucomisd xmm0, xmm2
  000f2	f3 0f 10 05 00
	00 00 00	 movss	 xmm0, DWORD PTR __mask@@NegFloat@
  000fa	f3 0f 10 55 ec	 movss	 xmm2, DWORD PTR _vDir$[ebp+8]
  000ff	9f		 lahf
  00100	f6 c4 44	 test	 ah, 68			; 00000044H
  00103	0f 8a 88 00 00
	00		 jp	 $LN11@CheckWeapo

; 624  : 	float fRange = D3DXVec3Length( &vDir );
; 625  : 	D3DXVec3Normalize( &vDir, &vDir );
; 626  : 
; 627  : 	// CharDir
; 628  : 	if( vDir == ioMath::VEC3_ZERO )

  00109	f3 0f 10 69 04	 movss	 xmm5, DWORD PTR [ecx+4]
  0010e	0f 5a e3	 cvtps2pd xmm4, xmm3
  00111	0f 5a ed	 cvtps2pd xmm5, xmm5
  00114	66 0f 2e e5	 ucomisd xmm4, xmm5
  00118	9f		 lahf
  00119	f6 c4 44	 test	 ah, 68			; 00000044H
  0011c	7a 73		 jp	 SHORT $LN11@CheckWeapo
  0011e	f3 0f 10 69 08	 movss	 xmm5, DWORD PTR [ecx+8]
  00123	0f 5a e2	 cvtps2pd xmm4, xmm2
  00126	0f 5a ed	 cvtps2pd xmm5, xmm5
  00129	66 0f 2e e5	 ucomisd xmm4, xmm5
  0012d	9f		 lahf
  0012e	f6 c4 44	 test	 ah, 68			; 00000044H
  00131	7a 5e		 jp	 SHORT $LN11@CheckWeapo

; 629  : 	{
; 630  : 		vDir = pOwner->GetTargetRot() * D3DXVECTOR3( 0.0f, 0.0f, -FLOAT1 );

  00133	b8 01 00 00 00	 mov	 eax, 1
  00138	0f 57 c0	 xorps	 xmm0, xmm0
  0013b	89 85 00 ff ff
	ff		 mov	 DWORD PTR tv904[ebp], eax
  00141	db 85 00 ff ff
	ff		 fild	 DWORD PTR tv904[ebp]
  00147	f3 0f 11 45 d8	 movss	 DWORD PTR $T607968[ebp], xmm0
  0014c	f3 0f 11 45 dc	 movss	 DWORD PTR $T607968[ebp+4], xmm0
  00151	85 c0		 test	 eax, eax
  00153	79 06		 jns	 SHORT $LN120@CheckWeapo
  00155	d8 05 00 00 00
	00		 fadd	 DWORD PTR __real@4f800000
$LN120@CheckWeapo:
  0015b	8d 45 d8	 lea	 eax, DWORD PTR $T607968[ebp]
  0015e	d9 e0		 fchs
  00160	50		 push	 eax
  00161	d9 5d e0	 fstp	 DWORD PTR $T607968[ebp+8]
  00164	8b 85 ec fe ff
	ff		 mov	 eax, DWORD PTR _pOwner$GSCopy$[ebp]
  0016a	05 a4 06 00 00	 add	 eax, 1700		; 000006a4H
  0016f	50		 push	 eax
  00170	8d 45 cc	 lea	 eax, DWORD PTR $T607969[ebp]
  00173	50		 push	 eax
  00174	ff 15 00 00 00
	00		 call	 DWORD PTR __imp_??D@YA?AUD3DXVECTOR3@@ABUD3DXQUATERNION@@ABU0@@Z
  0017a	8b f0		 mov	 esi, eax
  0017c	8d 7d e4	 lea	 edi, DWORD PTR _vDir$[ebp]
  0017f	a5		 movsd
  00180	83 c4 0c	 add	 esp, 12			; 0000000cH

; 631  : 		D3DXVec3Normalize( &vDir, &vDir );

  00183	8d 45 e4	 lea	 eax, DWORD PTR _vDir$[ebp]
  00186	a5		 movsd
  00187	50		 push	 eax
  00188	50		 push	 eax
  00189	a5		 movsd
  0018a	e8 00 00 00 00	 call	 _D3DXVec3Normalize@8

; 632  : 	}
; 633  : 	else

  0018f	eb 46		 jmp	 SHORT $LN10@CheckWeapo
$LN11@CheckWeapo:

; 634  : 	{
; 635  : 		D3DXQUATERNION qtRot;
; 636  : 		ioMath::CalcDirectionQuaternion( qtRot, -vDir );

  00191	8d 45 d8	 lea	 eax, DWORD PTR $T607972[ebp]
  00194	50		 push	 eax
  00195	8d 45 c8	 lea	 eax, DWORD PTR _qtRot$607971[ebp]
  00198	0f 57 c8	 xorps	 xmm1, xmm0
  0019b	0f 57 d8	 xorps	 xmm3, xmm0
  0019e	0f 57 d0	 xorps	 xmm2, xmm0
  001a1	50		 push	 eax
  001a2	f3 0f 11 4d d8	 movss	 DWORD PTR $T607972[ebp], xmm1
  001a7	f3 0f 11 5d dc	 movss	 DWORD PTR $T607972[ebp+4], xmm3
  001ac	f3 0f 11 55 e0	 movss	 DWORD PTR $T607972[ebp+8], xmm2
  001b1	ff 15 00 00 00
	00		 call	 DWORD PTR __imp_?CalcDirectionQuaternion@ioMath@@SAXAAUD3DXQUATERNION@@ABUD3DXVECTOR3@@@Z

; 637  : 		pOwner->SetTargetRotAndMoveDirChange( qtRot, false );

  001b7	8b b5 ec fe ff
	ff		 mov	 esi, DWORD PTR _pOwner$GSCopy$[ebp]
  001bd	59		 pop	 ecx
  001be	59		 pop	 ecx
  001bf	6a 00		 push	 0
  001c1	8d 45 c8	 lea	 eax, DWORD PTR _qtRot$607971[ebp]
  001c4	50		 push	 eax
  001c5	8b ce		 mov	 ecx, esi
  001c7	e8 00 00 00 00	 call	 ?SetTargetRotAndMoveDirChange@ioBaseChar@@QAEXABUD3DXQUATERNION@@_N@Z ; ioBaseChar::SetTargetRotAndMoveDirChange

; 638  : 		pOwner->SetWorldOrientation( qtRot );

  001cc	8b 06		 mov	 eax, DWORD PTR [esi]
  001ce	8d 4d c8	 lea	 ecx, DWORD PTR _qtRot$607971[ebp]
  001d1	51		 push	 ecx
  001d2	8b ce		 mov	 ecx, esi
  001d4	ff 50 48	 call	 DWORD PTR [eax+72]
$LN10@CheckWeapo:

; 639  : 	}
; 640  : 
; 641  : 	float fCurWeaponFloatPower = 0.0f;

  001d7	0f 57 c0	 xorps	 xmm0, xmm0

; 642  : 	float fCurWeaponMoveSpeed = 0.0f;
; 643  : 	if( m_fMarkRange > 0.0f )

  001da	8d 85 04 ff ff
	ff		 lea	 eax, DWORD PTR _value$620067[ebp]
  001e0	50		 push	 eax
  001e1	8d 8b 74 1d 00
	00		 lea	 ecx, DWORD PTR [ebx+7540]
  001e7	f3 0f 11 85 f0
	fe ff ff	 movss	 DWORD PTR _fCurWeaponFloatPower$[ebp], xmm0
  001ef	f3 0f 11 85 e4
	fe ff ff	 movss	 DWORD PTR _fCurWeaponMoveSpeed$[ebp], xmm0
  001f7	e8 00 00 00 00	 call	 ?DecryptValueToPool@?$CEncrypt@M@@QAEXPAM@Z ; CEncrypt<float>::DecryptValueToPool
  001fc	f3 0f 10 85 04
	ff ff ff	 movss	 xmm0, DWORD PTR _value$620067[ebp]
  00204	0f 2f 05 00 00
	00 00		 comiss	 xmm0, DWORD PTR __real@00000000
  0020b	0f 86 53 05 00
	00		 jbe	 $LN31@CheckWeapo

; 644  : 	{
; 645  : 		fRate = fRange / m_fMarkRange;

  00211	8d 85 04 ff ff
	ff		 lea	 eax, DWORD PTR _value$620071[ebp]
  00217	50		 push	 eax
  00218	8d 8b 74 1d 00
	00		 lea	 ecx, DWORD PTR [ebx+7540]
  0021e	e8 00 00 00 00	 call	 ?DecryptValueToPool@?$CEncrypt@M@@QAEXPAM@Z ; CEncrypt<float>::DecryptValueToPool
  00223	f3 0f 10 85 e8
	fe ff ff	 movss	 xmm0, DWORD PTR _fRange$[ebp]
  0022b	f3 0f 10 8d 04
	ff ff ff	 movss	 xmm1, DWORD PTR _value$620071[ebp]
  00233	0f 5a c0	 cvtps2pd xmm0, xmm0
  00236	0f 5a c9	 cvtps2pd xmm1, xmm1

; 646  : 
; 647  : 		// CurFloat
; 648  : 		fCurWeaponFloatPower = m_fWeaponFloatPower * fRate;

  00239	8d 85 04 ff ff
	ff		 lea	 eax, DWORD PTR _value$620075[ebp]
  0023f	f2 0f 5e c1	 divsd	 xmm0, xmm1
  00243	f2 0f 5a c0	 cvtsd2ss xmm0, xmm0
  00247	50		 push	 eax
  00248	8d 8b 14 1e 00
	00		 lea	 ecx, DWORD PTR [ebx+7700]
  0024e	f3 0f 11 85 f4
	fe ff ff	 movss	 DWORD PTR _fRate$[ebp], xmm0
  00256	e8 00 00 00 00	 call	 ?DecryptValueToPool@?$CEncrypt@M@@QAEXPAM@Z ; CEncrypt<float>::DecryptValueToPool
  0025b	f3 0f 10 85 04
	ff ff ff	 movss	 xmm0, DWORD PTR _value$620075[ebp]
  00263	f3 0f 10 8d f4
	fe ff ff	 movss	 xmm1, DWORD PTR _fRate$[ebp]
  0026b	0f 5a c0	 cvtps2pd xmm0, xmm0
  0026e	0f 5a c9	 cvtps2pd xmm1, xmm1

; 649  : 		fCurWeaponFloatPower = max( fCurWeaponFloatPower, m_fWeaponFloatMinPower );

  00271	8d 85 04 ff ff
	ff		 lea	 eax, DWORD PTR _value$620079[ebp]
  00277	f2 0f 59 c1	 mulsd	 xmm0, xmm1
  0027b	66 0f 5a c0	 cvtpd2ps xmm0, xmm0
  0027f	50		 push	 eax
  00280	8d 8b 44 1e 00
	00		 lea	 ecx, DWORD PTR [ebx+7748]
  00286	f3 0f 11 85 f0
	fe ff ff	 movss	 DWORD PTR _fCurWeaponFloatPower$[ebp], xmm0
  0028e	e8 00 00 00 00	 call	 ?DecryptValueToPool@?$CEncrypt@M@@QAEXPAM@Z ; CEncrypt<float>::DecryptValueToPool
  00293	f3 0f 10 85 f0
	fe ff ff	 movss	 xmm0, DWORD PTR _fCurWeaponFloatPower$[ebp]
  0029b	f3 0f 10 8d 04
	ff ff ff	 movss	 xmm1, DWORD PTR _value$620079[ebp]
  002a3	0f 5a c0	 cvtps2pd xmm0, xmm0
  002a6	0f 5a c9	 cvtps2pd xmm1, xmm1
  002a9	66 0f 2f c1	 comisd	 xmm0, xmm1
  002ad	77 22		 ja	 SHORT $LN15@CheckWeapo
  002af	8d 85 04 ff ff
	ff		 lea	 eax, DWORD PTR _value$620083[ebp]
  002b5	50		 push	 eax
  002b6	8d 8b 44 1e 00
	00		 lea	 ecx, DWORD PTR [ebx+7748]
  002bc	e8 00 00 00 00	 call	 ?DecryptValueToPool@?$CEncrypt@M@@QAEXPAM@Z ; CEncrypt<float>::DecryptValueToPool
  002c1	f3 0f 10 85 04
	ff ff ff	 movss	 xmm0, DWORD PTR _value$620083[ebp]
  002c9	f3 0f 11 85 f0
	fe ff ff	 movss	 DWORD PTR _fCurWeaponFloatPower$[ebp], xmm0
$LN15@CheckWeapo:

; 650  : 
; 651  : 		float fCurGravity = 0.0f;

  002d1	0f 57 c0	 xorps	 xmm0, xmm0
  002d4	f3 0f 11 85 fc
	fe ff ff	 movss	 DWORD PTR _fCurGravity$607977[ebp], xmm0

; 652  : 		float fWeaponMoveSpeed = 0.0f;

  002dc	f3 0f 11 85 f4
	fe ff ff	 movss	 DWORD PTR _fWeaponMoveSpeed$607978[ebp], xmm0

; 653  : 		ioPlayStage *pStage = g_ItemMaker.GetPlayStage();

  002e4	e8 00 00 00 00	 call	 ?GetSingleton@ioItemMaker@@SAAAV1@XZ ; ioItemMaker::GetSingleton
  002e9	8b c8		 mov	 ecx, eax
  002eb	e8 00 00 00 00	 call	 ?GetPlayStage@ioItemMaker@@QAEPAVioPlayStage@@XZ ; ioItemMaker::GetPlayStage
  002f0	8b f0		 mov	 esi, eax

; 654  : 		if( pStage )

  002f2	85 f6		 test	 esi, esi
  002f4	74 25		 je	 SHORT $LN8@CheckWeapo

; 655  : 			fCurGravity = pStage->GetRoomGravity() * m_fWeaponGravityRate;

  002f6	8d 85 04 ff ff
	ff		 lea	 eax, DWORD PTR _value$620087[ebp]
  002fc	50		 push	 eax
  002fd	8d 8b e4 1d 00
	00		 lea	 ecx, DWORD PTR [ebx+7652]
  00303	e8 00 00 00 00	 call	 ?DecryptValueToPool@?$CEncrypt@M@@QAEXPAM@Z ; CEncrypt<float>::DecryptValueToPool
  00308	8b ce		 mov	 ecx, esi
  0030a	e8 00 00 00 00	 call	 ?GetRoomGravity@ioPlayStage@@QAEMXZ ; ioPlayStage::GetRoomGravity
  0030f	d8 8d 04 ff ff
	ff		 fmul	 DWORD PTR _value$620087[ebp]
  00315	d9 9d fc fe ff
	ff		 fstp	 DWORD PTR _fCurGravity$607977[ebp]
$LN8@CheckWeapo:

; 656  : 
; 657  : 		float fFlightDuration = 0.0f;
; 658  : 		float fGapHeight = pOwner->GetMidHeightByRate(m_fRevisionRate) - vCharPos.y;

  0031b	8d 85 04 ff ff
	ff		 lea	 eax, DWORD PTR _value$620092[ebp]
  00321	50		 push	 eax
  00322	8d 8b b4 1d 00
	00		 lea	 ecx, DWORD PTR [ebx+7604]
  00328	e8 00 00 00 00	 call	 ?DecryptValueToPool@?$CEncrypt@M@@QAEXPAM@Z ; CEncrypt<float>::DecryptValueToPool
  0032d	f3 0f 10 85 04
	ff ff ff	 movss	 xmm0, DWORD PTR _value$620092[ebp]
  00335	51		 push	 ecx
  00336	8b 8d ec fe ff
	ff		 mov	 ecx, DWORD PTR _pOwner$GSCopy$[ebp]
  0033c	f3 0f 11 04 24	 movss	 DWORD PTR [esp], xmm0
  00341	e8 00 00 00 00	 call	 ?GetMidHeightByRate@ioGameEntity@@QBEMM@Z ; ioGameEntity::GetMidHeightByRate
  00346	d8 a5 dc fe ff
	ff		 fsub	 DWORD PTR _vCharPos$[ebp+4]

; 659  : 		float fGapHeight2 = vCharPos.y - m_vMarkPosition.y;

  0034c	f3 0f 10 85 dc
	fe ff ff	 movss	 xmm0, DWORD PTR _vCharPos$[ebp+4]
  00354	f3 0f 10 8b ac
	1d 00 00	 movss	 xmm1, DWORD PTR [ebx+7596]
  0035c	0f 5a c0	 cvtps2pd xmm0, xmm0
  0035f	d9 9d 04 ff ff
	ff		 fstp	 DWORD PTR _fGapHeight$607982[ebp]
  00365	0f 5a c9	 cvtps2pd xmm1, xmm1
  00368	f2 0f 5c c1	 subsd	 xmm0, xmm1
  0036c	66 0f 5a c0	 cvtpd2ps xmm0, xmm0

; 660  : 		if( fGapHeight2 > 0.0f )

  00370	0f 2f 05 00 00
	00 00		 comiss	 xmm0, DWORD PTR __real@00000000
  00377	f3 0f 11 85 ec
	fe ff ff	 movss	 DWORD PTR _fGapHeight2$607983[ebp], xmm0
  0037f	0f 86 57 01 00
	00		 jbe	 $LN7@CheckWeapo

; 661  : 		{
; 662  : 			fGapHeight += fGapHeight2;

  00385	f3 0f 10 8d 04
	ff ff ff	 movss	 xmm1, DWORD PTR _fGapHeight$607982[ebp]
  0038d	f3 0f 5a c0	 cvtss2sd xmm0, xmm0

; 663  : 			fFlightDuration = GetFlightDuration( fCurGravity, fCurWeaponFloatPower, fGapHeight );

  00391	83 ec 0c	 sub	 esp, 12			; 0000000cH
  00394	0f 5a c9	 cvtps2pd xmm1, xmm1
  00397	f2 0f 58 c1	 addsd	 xmm0, xmm1
  0039b	66 0f 5a c0	 cvtpd2ps xmm0, xmm0
  0039f	f3 0f 11 44 24
	08		 movss	 DWORD PTR [esp+8], xmm0
  003a5	f3 0f 10 85 f0
	fe ff ff	 movss	 xmm0, DWORD PTR _fCurWeaponFloatPower$[ebp]
  003ad	f3 0f 11 44 24
	04		 movss	 DWORD PTR [esp+4], xmm0
  003b3	f3 0f 10 85 fc
	fe ff ff	 movss	 xmm0, DWORD PTR _fCurGravity$607977[ebp]
  003bb	8b cb		 mov	 ecx, ebx
  003bd	f3 0f 11 04 24	 movss	 DWORD PTR [esp], xmm0
  003c2	e8 00 00 00 00	 call	 ?GetFlightDuration@ioObjectChargeShotItem@@IAEMMMM@Z ; ioObjectChargeShotItem::GetFlightDuration
  003c7	d9 9d fc fe ff
	ff		 fstp	 DWORD PTR _fFlightDuration$607981[ebp]

; 664  : 
; 665  : 			if( fFlightDuration > 0.0f )

  003cd	d9 ee		 fldz
  003cf	d9 85 fc fe ff
	ff		 fld	 DWORD PTR _fFlightDuration$607981[ebp]
  003d5	df f1		 fcomip	 ST(1)
  003d7	dd d8		 fstp	 ST(0)
  003d9	76 31		 jbe	 SHORT $LN6@CheckWeapo

; 666  : 				fWeaponMoveSpeed = fRange / (fFlightDuration / FLOAT1000);

  003db	b8 e8 03 00 00	 mov	 eax, 1000		; 000003e8H
  003e0	d9 85 e8 fe ff
	ff		 fld	 DWORD PTR _fRange$[ebp]
  003e6	d9 85 fc fe ff
	ff		 fld	 DWORD PTR _fFlightDuration$607981[ebp]
  003ec	89 85 00 ff ff
	ff		 mov	 DWORD PTR tv825[ebp], eax
  003f2	db 85 00 ff ff
	ff		 fild	 DWORD PTR tv825[ebp]
  003f8	85 c0		 test	 eax, eax
  003fa	79 06		 jns	 SHORT $LN121@CheckWeapo
  003fc	d8 05 00 00 00
	00		 fadd	 DWORD PTR __real@4f800000
$LN121@CheckWeapo:
  00402	de f9		 fdivp	 ST(1), ST(0)
  00404	de f9		 fdivp	 ST(1), ST(0)
  00406	d9 9d f4 fe ff
	ff		 fstp	 DWORD PTR _fWeaponMoveSpeed$607978[ebp]
$LN6@CheckWeapo:

; 667  : 
; 668  : 			fCurWeaponMoveSpeed = max( m_fWeaponMinSpeed, fWeaponMoveSpeed );

  0040c	8d 85 04 ff ff
	ff		 lea	 eax, DWORD PTR _value$620105[ebp]
  00412	8d b3 74 1e 00
	00		 lea	 esi, DWORD PTR [ebx+7796]
  00418	50		 push	 eax
  00419	8b ce		 mov	 ecx, esi
  0041b	e8 00 00 00 00	 call	 ?DecryptValueToPool@?$CEncrypt@M@@QAEXPAM@Z ; CEncrypt<float>::DecryptValueToPool
  00420	f3 0f 10 85 04
	ff ff ff	 movss	 xmm0, DWORD PTR _value$620105[ebp]
  00428	f3 0f 10 8d f4
	fe ff ff	 movss	 xmm1, DWORD PTR _fWeaponMoveSpeed$607978[ebp]
  00430	0f 5a c0	 cvtps2pd xmm0, xmm0
  00433	0f 5a c9	 cvtps2pd xmm1, xmm1
  00436	66 0f 2f c1	 comisd	 xmm0, xmm1
  0043a	76 1c		 jbe	 SHORT $LN16@CheckWeapo
  0043c	56		 push	 esi
  0043d	8d 8d 38 ff ff
	ff		 lea	 ecx, DWORD PTR $T607988[ebp]
  00443	e8 00 00 00 00	 call	 ??0?$CEncrypt@M@@QAE@ABV0@@Z ; CEncrypt<float>::CEncrypt<float>
  00448	83 65 fc 00	 and	 DWORD PTR __$EHRec$[ebp+8], 0
  0044c	c7 85 f8 fe ff
	ff 01 00 00 00	 mov	 DWORD PTR $T619991[ebp], 1
  00456	eb 20		 jmp	 SHORT $LN17@CheckWeapo
$LN16@CheckWeapo:
  00458	8d 85 f4 fe ff
	ff		 lea	 eax, DWORD PTR _fWeaponMoveSpeed$607978[ebp]
  0045e	50		 push	 eax
  0045f	8d 4d 98	 lea	 ecx, DWORD PTR $T607989[ebp]
  00462	e8 00 00 00 00	 call	 ??0?$CEncrypt@M@@QAE@ABM@Z ; CEncrypt<float>::CEncrypt<float>
  00467	c7 45 fc 01 00
	00 00		 mov	 DWORD PTR __$EHRec$[ebp+8], 1
  0046e	c7 85 f8 fe ff
	ff 02 00 00 00	 mov	 DWORD PTR $T619991[ebp], 2
$LN17@CheckWeapo:
  00478	8d 8d 04 ff ff
	ff		 lea	 ecx, DWORD PTR _value$620109[ebp]
  0047e	51		 push	 ecx
  0047f	8b c8		 mov	 ecx, eax
  00481	e8 00 00 00 00	 call	 ?DecryptValueToPool@?$CEncrypt@M@@QAEXPAM@Z ; CEncrypt<float>::DecryptValueToPool
  00486	83 65 fc 00	 and	 DWORD PTR __$EHRec$[ebp+8], 0
  0048a	f6 85 f8 fe ff
	ff 02		 test	 BYTE PTR $T619991[ebp], 2
  00491	f3 0f 10 85 04
	ff ff ff	 movss	 xmm0, DWORD PTR _value$620109[ebp]
  00499	f3 0f 11 85 e4
	fe ff ff	 movss	 DWORD PTR _fCurWeaponMoveSpeed$[ebp], xmm0
  004a1	be 00 00 00 00	 mov	 esi, OFFSET ??_7?$CEncrypt@M@@6B@
  004a6	74 12		 je	 SHORT $LN24@CheckWeapo
  004a8	83 a5 f8 fe ff
	ff fd		 and	 DWORD PTR $T619991[ebp], -3 ; fffffffdH
  004af	8d 4d a4	 lea	 ecx, DWORD PTR $T607989[ebp+12]
  004b2	89 75 98	 mov	 DWORD PTR $T607989[ebp], esi
  004b5	e8 00 00 00 00	 call	 ??1ccddaabb@@UAE@XZ	; ccddaabb::~ccddaabb
$LN24@CheckWeapo:
  004ba	83 4d fc ff	 or	 DWORD PTR __$EHRec$[ebp+8], -1
  004be	f6 85 f8 fe ff
	ff 01		 test	 BYTE PTR $T619991[ebp], 1
  004c5	0f 84 99 02 00
	00		 je	 $LN31@CheckWeapo
  004cb	89 b5 38 ff ff
	ff		 mov	 DWORD PTR $T607988[ebp], esi
  004d1	8d 8d 44 ff ff
	ff		 lea	 ecx, DWORD PTR $T607988[ebp+12]

; 669  : 		}
; 670  : 		else if( COMPARE(fGapHeight2, -m_fUpLimitHeight, -20.0f) && fRange > m_fUpLimitRange )

  004d7	e9 83 02 00 00	 jmp	 $LN124@CheckWeapo
$LN7@CheckWeapo:
  004dc	8d 85 00 ff ff
	ff		 lea	 eax, DWORD PTR _value$620121[ebp]
  004e2	50		 push	 eax
  004e3	8d 8b a4 1e 00
	00		 lea	 ecx, DWORD PTR [ebx+7844]
  004e9	e8 00 00 00 00	 call	 ?DecryptValueToPool@?$CEncrypt@M@@QAEXPAM@Z ; CEncrypt<float>::DecryptValueToPool
  004ee	f3 0f 10 8d 00
	ff ff ff	 movss	 xmm1, DWORD PTR _value$620121[ebp]
  004f6	f3 0f 10 85 ec
	fe ff ff	 movss	 xmm0, DWORD PTR _fGapHeight2$607983[ebp]
  004fe	0f 57 0d 00 00
	00 00		 xorps	 xmm1, DWORD PTR __mask@@NegFloat@
  00505	0f 5a c0	 cvtps2pd xmm0, xmm0
  00508	0f 5a c9	 cvtps2pd xmm1, xmm1
  0050b	66 0f 2f c1	 comisd	 xmm0, xmm1
  0050f	0f 82 fc 00 00
	00		 jb	 $LN4@CheckWeapo
  00515	f3 0f 10 05 00
	00 00 00	 movss	 xmm0, DWORD PTR __real@c1a00000
  0051d	0f 2f 85 ec fe
	ff ff		 comiss	 xmm0, DWORD PTR _fGapHeight2$607983[ebp]
  00524	0f 86 e7 00 00
	00		 jbe	 $LN4@CheckWeapo
  0052a	8d 85 00 ff ff
	ff		 lea	 eax, DWORD PTR _value$620125[ebp]
  00530	50		 push	 eax
  00531	8d 8b d4 1e 00
	00		 lea	 ecx, DWORD PTR [ebx+7892]
  00537	e8 00 00 00 00	 call	 ?DecryptValueToPool@?$CEncrypt@M@@QAEXPAM@Z ; CEncrypt<float>::DecryptValueToPool
  0053c	f3 0f 10 85 e8
	fe ff ff	 movss	 xmm0, DWORD PTR _fRange$[ebp]
  00544	f3 0f 10 8d 00
	ff ff ff	 movss	 xmm1, DWORD PTR _value$620125[ebp]
  0054c	0f 5a c0	 cvtps2pd xmm0, xmm0
  0054f	0f 5a c9	 cvtps2pd xmm1, xmm1
  00552	66 0f 2f c1	 comisd	 xmm0, xmm1
  00556	0f 86 b5 00 00
	00		 jbe	 $LN4@CheckWeapo

; 671  : 		{
; 672  : 			float fNewGap = fabs( fGapHeight2 ) - fGapHeight;

  0055c	f2 0f 10 0d 00
	00 00 00	 movsd	 xmm1, QWORD PTR __mask@@AbsDouble@

; 673  : 			fFlightDuration = GetTargetTime( fCurGravity, fNewGap, fCurWeaponFloatPower );

  00564	f3 0f 10 85 ec
	fe ff ff	 movss	 xmm0, DWORD PTR _fGapHeight2$607983[ebp]
  0056c	0f 5a c0	 cvtps2pd xmm0, xmm0
  0056f	66 0f 54 c1	 andpd	 xmm0, xmm1
  00573	f3 0f 10 8d 04
	ff ff ff	 movss	 xmm1, DWORD PTR _fGapHeight$607982[ebp]
  0057b	8d 85 f0 fe ff
	ff		 lea	 eax, DWORD PTR _fCurWeaponFloatPower$[ebp]
  00581	50		 push	 eax
  00582	f2 0f 5a c0	 cvtsd2ss xmm0, xmm0
  00586	f3 0f 5a c0	 cvtss2sd xmm0, xmm0
  0058a	51		 push	 ecx
  0058b	51		 push	 ecx
  0058c	0f 5a c9	 cvtps2pd xmm1, xmm1
  0058f	f2 0f 5c c1	 subsd	 xmm0, xmm1
  00593	f2 0f 5a c0	 cvtsd2ss xmm0, xmm0
  00597	f3 0f 11 44 24
	04		 movss	 DWORD PTR [esp+4], xmm0
  0059d	f3 0f 10 85 fc
	fe ff ff	 movss	 xmm0, DWORD PTR _fCurGravity$607977[ebp]
  005a5	8b cb		 mov	 ecx, ebx
  005a7	f3 0f 11 04 24	 movss	 DWORD PTR [esp], xmm0
  005ac	e8 00 00 00 00	 call	 ?GetTargetTime@ioObjectChargeShotItem@@IAEMMMAAM@Z ; ioObjectChargeShotItem::GetTargetTime
  005b1	d9 9d fc fe ff
	ff		 fstp	 DWORD PTR _fFlightDuration$607981[ebp]

; 674  : 			fRange -= 35.0f;
; 675  : 
; 676  : 			if( fFlightDuration > 0.0f )

  005b7	d9 ee		 fldz
  005b9	d9 85 fc fe ff
	ff		 fld	 DWORD PTR _fFlightDuration$607981[ebp]
  005bf	df f1		 fcomip	 ST(1)
  005c1	dd d8		 fstp	 ST(0)
  005c3	0f 86 9b 01 00
	00		 jbe	 $LN31@CheckWeapo

; 677  : 				fCurWeaponMoveSpeed = fRange / (fFlightDuration / FLOAT1000);

  005c9	b8 e8 03 00 00	 mov	 eax, 1000		; 000003e8H
  005ce	d9 85 e8 fe ff
	ff		 fld	 DWORD PTR _fRange$[ebp]
  005d4	dc 25 00 00 00
	00		 fsub	 QWORD PTR __real@4041800000000000
  005da	d9 9d 00 ff ff
	ff		 fstp	 DWORD PTR tv787[ebp]
  005e0	d9 85 00 ff ff
	ff		 fld	 DWORD PTR tv787[ebp]
  005e6	89 85 00 ff ff
	ff		 mov	 DWORD PTR tv783[ebp], eax
  005ec	d9 85 fc fe ff
	ff		 fld	 DWORD PTR _fFlightDuration$607981[ebp]
  005f2	db 85 00 ff ff
	ff		 fild	 DWORD PTR tv783[ebp]
  005f8	85 c0		 test	 eax, eax
  005fa	79 06		 jns	 SHORT $LN122@CheckWeapo
  005fc	d8 05 00 00 00
	00		 fadd	 DWORD PTR __real@4f800000
$LN122@CheckWeapo:
  00602	de f9		 fdivp	 ST(1), ST(0)
  00604	de f9		 fdivp	 ST(1), ST(0)
  00606	d9 9d e4 fe ff
	ff		 fstp	 DWORD PTR _fCurWeaponMoveSpeed$[ebp]

; 678  : 		}
; 679  : 		else

  0060c	e9 53 01 00 00	 jmp	 $LN31@CheckWeapo
$LN4@CheckWeapo:

; 680  : 		{
; 681  : 			fFlightDuration = GetFlightDuration( fCurGravity, fCurWeaponFloatPower, fGapHeight );

  00611	f3 0f 10 85 04
	ff ff ff	 movss	 xmm0, DWORD PTR _fGapHeight$607982[ebp]
  00619	83 ec 0c	 sub	 esp, 12			; 0000000cH
  0061c	f3 0f 11 44 24
	08		 movss	 DWORD PTR [esp+8], xmm0
  00622	f3 0f 10 85 f0
	fe ff ff	 movss	 xmm0, DWORD PTR _fCurWeaponFloatPower$[ebp]
  0062a	f3 0f 11 44 24
	04		 movss	 DWORD PTR [esp+4], xmm0
  00630	f3 0f 10 85 fc
	fe ff ff	 movss	 xmm0, DWORD PTR _fCurGravity$607977[ebp]
  00638	8b cb		 mov	 ecx, ebx
  0063a	f3 0f 11 04 24	 movss	 DWORD PTR [esp], xmm0
  0063f	e8 00 00 00 00	 call	 ?GetFlightDuration@ioObjectChargeShotItem@@IAEMMMM@Z ; ioObjectChargeShotItem::GetFlightDuration
  00644	d9 9d fc fe ff
	ff		 fstp	 DWORD PTR _fFlightDuration$607981[ebp]

; 682  : 
; 683  : 			if( fFlightDuration > 0.0f )

  0064a	d9 ee		 fldz
  0064c	d9 85 fc fe ff
	ff		 fld	 DWORD PTR _fFlightDuration$607981[ebp]
  00652	df f1		 fcomip	 ST(1)
  00654	dd d8		 fstp	 ST(0)
  00656	76 31		 jbe	 SHORT $LN1@CheckWeapo

; 684  : 				fWeaponMoveSpeed = fRange / (fFlightDuration / FLOAT1000);

  00658	b8 e8 03 00 00	 mov	 eax, 1000		; 000003e8H
  0065d	d9 85 e8 fe ff
	ff		 fld	 DWORD PTR _fRange$[ebp]
  00663	d9 85 fc fe ff
	ff		 fld	 DWORD PTR _fFlightDuration$607981[ebp]
  00669	89 85 00 ff ff
	ff		 mov	 DWORD PTR tv735[ebp], eax
  0066f	db 85 00 ff ff
	ff		 fild	 DWORD PTR tv735[ebp]
  00675	85 c0		 test	 eax, eax
  00677	79 06		 jns	 SHORT $LN123@CheckWeapo
  00679	d8 05 00 00 00
	00		 fadd	 DWORD PTR __real@4f800000
$LN123@CheckWeapo:
  0067f	de f9		 fdivp	 ST(1), ST(0)
  00681	de f9		 fdivp	 ST(1), ST(0)
  00683	d9 9d f4 fe ff
	ff		 fstp	 DWORD PTR _fWeaponMoveSpeed$607978[ebp]
$LN1@CheckWeapo:

; 685  : 
; 686  : 			fCurWeaponMoveSpeed = max( m_fWeaponMinSpeed, fWeaponMoveSpeed );

  00689	8d 85 00 ff ff
	ff		 lea	 eax, DWORD PTR _value$620149[ebp]
  0068f	8d b3 74 1e 00
	00		 lea	 esi, DWORD PTR [ebx+7796]
  00695	50		 push	 eax
  00696	8b ce		 mov	 ecx, esi
  00698	e8 00 00 00 00	 call	 ?DecryptValueToPool@?$CEncrypt@M@@QAEXPAM@Z ; CEncrypt<float>::DecryptValueToPool
  0069d	f3 0f 10 85 00
	ff ff ff	 movss	 xmm0, DWORD PTR _value$620149[ebp]
  006a5	f3 0f 10 8d f4
	fe ff ff	 movss	 xmm1, DWORD PTR _fWeaponMoveSpeed$607978[ebp]
  006ad	0f 5a c0	 cvtps2pd xmm0, xmm0
  006b0	0f 5a c9	 cvtps2pd xmm1, xmm1
  006b3	66 0f 2f c1	 comisd	 xmm0, xmm1
  006b7	76 1f		 jbe	 SHORT $LN18@CheckWeapo
  006b9	56		 push	 esi
  006ba	8d 8d 68 ff ff
	ff		 lea	 ecx, DWORD PTR $T608000[ebp]
  006c0	e8 00 00 00 00	 call	 ??0?$CEncrypt@M@@QAE@ABV0@@Z ; CEncrypt<float>::CEncrypt<float>
  006c5	c7 45 fc 02 00
	00 00		 mov	 DWORD PTR __$EHRec$[ebp+8], 2
  006cc	c7 85 f8 fe ff
	ff 04 00 00 00	 mov	 DWORD PTR $T619991[ebp], 4
  006d6	eb 23		 jmp	 SHORT $LN19@CheckWeapo
$LN18@CheckWeapo:
  006d8	8d 85 f4 fe ff
	ff		 lea	 eax, DWORD PTR _fWeaponMoveSpeed$607978[ebp]
  006de	50		 push	 eax
  006df	8d 8d 08 ff ff
	ff		 lea	 ecx, DWORD PTR $T608001[ebp]
  006e5	e8 00 00 00 00	 call	 ??0?$CEncrypt@M@@QAE@ABM@Z ; CEncrypt<float>::CEncrypt<float>
  006ea	c7 45 fc 03 00
	00 00		 mov	 DWORD PTR __$EHRec$[ebp+8], 3
  006f1	c7 85 f8 fe ff
	ff 08 00 00 00	 mov	 DWORD PTR $T619991[ebp], 8
$LN19@CheckWeapo:
  006fb	8d 8d 00 ff ff
	ff		 lea	 ecx, DWORD PTR _value$620153[ebp]
  00701	51		 push	 ecx
  00702	8b c8		 mov	 ecx, eax
  00704	e8 00 00 00 00	 call	 ?DecryptValueToPool@?$CEncrypt@M@@QAEXPAM@Z ; CEncrypt<float>::DecryptValueToPool
  00709	f6 85 f8 fe ff
	ff 08		 test	 BYTE PTR $T619991[ebp], 8
  00710	f3 0f 10 85 00
	ff ff ff	 movss	 xmm0, DWORD PTR _value$620153[ebp]
  00718	f3 0f 11 85 e4
	fe ff ff	 movss	 DWORD PTR _fCurWeaponMoveSpeed$[ebp], xmm0
  00720	c7 45 fc 02 00
	00 00		 mov	 DWORD PTR __$EHRec$[ebp+8], 2
  00727	be 00 00 00 00	 mov	 esi, OFFSET ??_7?$CEncrypt@M@@6B@
  0072c	74 18		 je	 SHORT $LN30@CheckWeapo
  0072e	83 a5 f8 fe ff
	ff f7		 and	 DWORD PTR $T619991[ebp], -9 ; fffffff7H
  00735	8d 8d 14 ff ff
	ff		 lea	 ecx, DWORD PTR $T608001[ebp+12]
  0073b	89 b5 08 ff ff
	ff		 mov	 DWORD PTR $T608001[ebp], esi
  00741	e8 00 00 00 00	 call	 ??1ccddaabb@@UAE@XZ	; ccddaabb::~ccddaabb
$LN30@CheckWeapo:
  00746	83 4d fc ff	 or	 DWORD PTR __$EHRec$[ebp+8], -1
  0074a	f6 85 f8 fe ff
	ff 04		 test	 BYTE PTR $T619991[ebp], 4
  00751	74 11		 je	 SHORT $LN31@CheckWeapo
  00753	89 b5 68 ff ff
	ff		 mov	 DWORD PTR $T608000[ebp], esi
  00759	8d 8d 74 ff ff
	ff		 lea	 ecx, DWORD PTR $T608000[ebp+12]
$LN124@CheckWeapo:
  0075f	e8 00 00 00 00	 call	 ??1ccddaabb@@UAE@XZ	; ccddaabb::~ccddaabb
$LN31@CheckWeapo:

; 691  : 	m_fCurWeaponMoveSpeed = fCurWeaponMoveSpeed;

  00764	f3 0f 10 85 e4
	fe ff ff	 movss	 xmm0, DWORD PTR _fCurWeaponMoveSpeed$[ebp]
  0076c	8d bb 0c 1f 00
	00		 lea	 edi, DWORD PTR [ebx+7948]
  00772	8d 75 e4	 lea	 esi, DWORD PTR _vDir$[ebp]
  00775	a5		 movsd
  00776	a5		 movsd
  00777	f3 0f 11 83 04
	1f 00 00	 movss	 DWORD PTR [ebx+7940], xmm0

; 692  : 	m_fCurWeaponFloatPower = fCurWeaponFloatPower;

  0077f	f3 0f 10 85 f0
	fe ff ff	 movss	 xmm0, DWORD PTR _fCurWeaponFloatPower$[ebp]
  00787	a5		 movsd
  00788	f3 0f 11 83 08
	1f 00 00	 movss	 DWORD PTR [ebx+7944], xmm0

; 693  : }

  00790	e8 00 00 00 00	 call	 __EH_epilog3_GS
  00795	c2 04 00	 ret	 4
_TEXT	ENDS
;	COMDAT text$x
text$x	SEGMENT
__unwindfunclet$?CheckWeaponFloatInfo@ioObjectChargeShotItem@@IAEXPAVioBaseChar@@@Z$0:
  00000	8b 85 f8 fe ff
	ff		 mov	 eax, DWORD PTR $T619991[ebp]
  00006	83 e0 01	 and	 eax, 1
  00009	0f 84 12 00 00
	00		 je	 $LN21@CheckWeapo
  0000f	83 a5 f8 fe ff
	ff fe		 and	 DWORD PTR $T619991[ebp], -2 ; fffffffeH
  00016	8d 8d 38 ff ff
	ff		 lea	 ecx, DWORD PTR $T607988[ebp]
  0001c	e9 00 00 00 00	 jmp	 ??1?$CEncrypt@M@@UAE@XZ	; CEncrypt<float>::~CEncrypt<float>
$LN21@CheckWeapo:
  00021	c3		 ret	 0
__unwindfunclet$?CheckWeaponFloatInfo@ioObjectChargeShotItem@@IAEXPAVioBaseChar@@@Z$1:
  00022	8b 85 f8 fe ff
	ff		 mov	 eax, DWORD PTR $T619991[ebp]
  00028	83 e0 02	 and	 eax, 2
  0002b	0f 84 0f 00 00
	00		 je	 $LN23@CheckWeapo
  00031	83 a5 f8 fe ff
	ff fd		 and	 DWORD PTR $T619991[ebp], -3 ; fffffffdH
  00038	8d 4d 98	 lea	 ecx, DWORD PTR $T607989[ebp]
  0003b	e9 00 00 00 00	 jmp	 ??1?$CEncrypt@M@@UAE@XZ	; CEncrypt<float>::~CEncrypt<float>
$LN23@CheckWeapo:
  00040	c3		 ret	 0
__unwindfunclet$?CheckWeaponFloatInfo@ioObjectChargeShotItem@@IAEXPAVioBaseChar@@@Z$2:
  00041	8b 85 f8 fe ff
	ff		 mov	 eax, DWORD PTR $T619991[ebp]
  00047	83 e0 04	 and	 eax, 4
  0004a	0f 84 12 00 00
	00		 je	 $LN27@CheckWeapo
  00050	83 a5 f8 fe ff
	ff fb		 and	 DWORD PTR $T619991[ebp], -5 ; fffffffbH
  00057	8d 8d 68 ff ff
	ff		 lea	 ecx, DWORD PTR $T608000[ebp]
  0005d	e9 00 00 00 00	 jmp	 ??1?$CEncrypt@M@@UAE@XZ	; CEncrypt<float>::~CEncrypt<float>
$LN27@CheckWeapo:
  00062	c3		 ret	 0
__unwindfunclet$?CheckWeaponFloatInfo@ioObjectChargeShotItem@@IAEXPAVioBaseChar@@@Z$3:
  00063	8b 85 f8 fe ff
	ff		 mov	 eax, DWORD PTR $T619991[ebp]
  00069	83 e0 08	 and	 eax, 8
  0006c	0f 84 12 00 00
	00		 je	 $LN29@CheckWeapo
  00072	83 a5 f8 fe ff
	ff f7		 and	 DWORD PTR $T619991[ebp], -9 ; fffffff7H
  00079	8d 8d 08 ff ff
	ff		 lea	 ecx, DWORD PTR $T608001[ebp]
  0007f	e9 00 00 00 00	 jmp	 ??1?$CEncrypt@M@@UAE@XZ	; CEncrypt<float>::~CEncrypt<float>
$LN29@CheckWeapo:
  00084	c3		 ret	 0
__ehhandler$?CheckWeaponFloatInfo@ioObjectChargeShotItem@@IAEXPAVioBaseChar@@@Z:
  00085	8b 54 24 08	 mov	 edx, DWORD PTR [esp+8]
  00089	8d 42 0c	 lea	 eax, DWORD PTR [edx+12]
  0008c	8b 8a d4 fe ff
	ff		 mov	 ecx, DWORD PTR [edx-300]
  00092	33 c8		 xor	 ecx, eax
  00094	e8 00 00 00 00	 call	 @__security_check_cookie@4
  00099	8b 4a fc	 mov	 ecx, DWORD PTR [edx-4]
  0009c	33 c8		 xor	 ecx, eax
  0009e	e8 00 00 00 00	 call	 @__security_check_cookie@4
  000a3	b8 00 00 00 00	 mov	 eax, OFFSET __ehfuncinfo$?CheckWeaponFloatInfo@ioObjectChargeShotItem@@IAEXPAVioBaseChar@@@Z
  000a8	e9 00 00 00 00	 jmp	 ___CxxFrameHandler3
text$x	ENDS
?CheckWeaponFloatInfo@ioObjectChargeShotItem@@IAEXPAVioBaseChar@@@Z ENDP ; ioObjectChargeShotItem::CheckWeaponFloatInfo
PUBLIC	?OnAttack@ioObjectChargeShotItem@@IAEXPAVioBaseChar@@@Z ; ioObjectChargeShotItem::OnAttack
EXTRN	?SetWorldPosition@ioMapEffect@@QAEXABUD3DXVECTOR3@@@Z:PROC ; ioMapEffect::SetWorldPosition
EXTRN	?FindMapEffect@ioPlayStage@@QAEPAVioMapEffect@@K@Z:PROC ; ioPlayStage::FindMapEffect
EXTRN	?IsAttackKeyDown@ioBaseChar@@QBE_NXZ:PROC	; ioBaseChar::IsAttackKeyDown
; Function compile flags: /Ogsp
;	COMDAT ?OnAttack@ioObjectChargeShotItem@@IAEXPAVioBaseChar@@@Z
_TEXT	SEGMENT
_vPos$607877 = -36					; size = 12
_vDir$607878 = -24					; size = 12
tv464 = -12						; size = 4
_value$620229 = -12					; size = 4
_value$620225 = -12					; size = 4
_value$620220 = -12					; size = 4
_fTimePerSec$607875 = -12				; size = 4
_value$620197 = -8					; size = 4
_pStage$ = -4						; size = 4
_value$620233 = 8					; size = 4
_pOwner$ = 8						; size = 4
?OnAttack@ioObjectChargeShotItem@@IAEXPAVioBaseChar@@@Z PROC ; ioObjectChargeShotItem::OnAttack, COMDAT
; _this$ = ecx

; 436  : {

  00000	55		 push	 ebp
  00001	8b ec		 mov	 ebp, esp
  00003	83 ec 24	 sub	 esp, 36			; 00000024H
  00006	53		 push	 ebx
  00007	56		 push	 esi

; 437  : 	if( !pOwner )

  00008	8b 75 08	 mov	 esi, DWORD PTR _pOwner$[ebp]
  0000b	8b d9		 mov	 ebx, ecx
  0000d	85 f6		 test	 esi, esi
  0000f	0f 84 39 02 00
	00		 je	 $LN1@OnAttack

; 438  : 		return;
; 439  : 
; 440  : 	if( pOwner->IsNeedProcess() )

  00015	8b 06		 mov	 eax, DWORD PTR [esi]
  00017	8b ce		 mov	 ecx, esi
  00019	ff 90 00 01 00
	00		 call	 DWORD PTR [eax+256]
  0001f	84 c0		 test	 al, al
  00021	74 18		 je	 SHORT $LN5@OnAttack

; 441  : 	{
; 442  : 		if( !pOwner->IsAttackKeyDown() )

  00023	8b ce		 mov	 ecx, esi
  00025	e8 00 00 00 00	 call	 ?IsAttackKeyDown@ioBaseChar@@QBE_NXZ ; ioBaseChar::IsAttackKeyDown
  0002a	84 c0		 test	 al, al
  0002c	75 0d		 jne	 SHORT $LN5@OnAttack

; 443  : 		{
; 444  : 			ChangeToAttackEnd( pOwner );

  0002e	56		 push	 esi
  0002f	8b cb		 mov	 ecx, ebx
  00031	e8 00 00 00 00	 call	 ?ChangeToAttackEnd@ioObjectChargeShotItem@@IAEXPAVioBaseChar@@@Z ; ioObjectChargeShotItem::ChangeToAttackEnd

; 445  : 			return;

  00036	e9 13 02 00 00	 jmp	 $LN1@OnAttack
$LN5@OnAttack:

; 446  : 		}
; 447  : 	}
; 448  : 
; 449  : 	ioPlayStage *pStage = pOwner->GetCreator();

  0003b	8b 86 44 03 00
	00		 mov	 eax, DWORD PTR [esi+836]
  00041	57		 push	 edi
  00042	89 45 fc	 mov	 DWORD PTR _pStage$[ebp], eax

; 450  : 	if( pStage )

  00045	85 c0		 test	 eax, eax
  00047	0f 84 b6 01 00
	00		 je	 $LN2@OnAttack

; 451  : 	{
; 452  : 		float fTimePerSec = g_FrameTimer.GetSecPerFrame();

  0004d	ff 15 00 00 00
	00		 call	 DWORD PTR __imp_?GetSingleton@ioFrameTimer@@SAAAV1@XZ
  00053	8b c8		 mov	 ecx, eax
  00055	ff 15 00 00 00
	00		 call	 DWORD PTR __imp_?GetSecPerFrame@ioFrameTimer@@QBEMXZ
  0005b	d9 5d f4	 fstp	 DWORD PTR _fTimePerSec$607875[ebp]

; 453  : 		float fDist = m_fMarkSpeed * fTimePerSec;

  0005e	8d 45 f8	 lea	 eax, DWORD PTR _value$620197[ebp]
  00061	50		 push	 eax
  00062	8d 8b 44 1d 00
	00		 lea	 ecx, DWORD PTR [ebx+7492]
  00068	e8 00 00 00 00	 call	 ?DecryptValueToPool@?$CEncrypt@M@@QAEXPAM@Z ; CEncrypt<float>::DecryptValueToPool

; 454  : 		m_fMarkCurRange += fDist;

  0006d	d9 45 f8	 fld	 DWORD PTR _value$620197[ebp]
  00070	d8 4d f4	 fmul	 DWORD PTR _fTimePerSec$607875[ebp]

; 455  : 		D3DXVECTOR3 vPos = pOwner->GetWorldPosition();

  00073	8b ce		 mov	 ecx, esi
  00075	d9 5d f4	 fstp	 DWORD PTR tv464[ebp]
  00078	d9 45 f4	 fld	 DWORD PTR tv464[ebp]
  0007b	d8 83 a4 1d 00
	00		 fadd	 DWORD PTR [ebx+7588]
  00081	d9 9b a4 1d 00
	00		 fstp	 DWORD PTR [ebx+7588]
  00087	8b 06		 mov	 eax, DWORD PTR [esi]
  00089	ff 50 70	 call	 DWORD PTR [eax+112]

; 456  : 		D3DXVECTOR3 vDir = pOwner->GetMoveDir();
; 457  : 
; 458  : 		m_vMarkPosition = vPos;
; 459  : 		m_vMarkPosition += ( vDir * m_fMarkCurRange );

  0008c	f3 0f 10 83 a4
	1d 00 00	 movss	 xmm0, DWORD PTR [ebx+7588]
  00094	8b f0		 mov	 esi, eax
  00096	8d 7d dc	 lea	 edi, DWORD PTR _vPos$607877[ebp]
  00099	a5		 movsd
  0009a	a5		 movsd
  0009b	a5		 movsd
  0009c	8b 75 08	 mov	 esi, DWORD PTR _pOwner$[ebp]
  0009f	81 c6 b4 06 00
	00		 add	 esi, 1716		; 000006b4H
  000a5	8d 7d e8	 lea	 edi, DWORD PTR _vDir$607878[ebp]
  000a8	a5		 movsd
  000a9	a5		 movsd
  000aa	a5		 movsd
  000ab	f3 0f 10 4d e8	 movss	 xmm1, DWORD PTR _vDir$607878[ebp]
  000b0	0f 5a c9	 cvtps2pd xmm1, xmm1
  000b3	0f 5a d0	 cvtps2pd xmm2, xmm0
  000b6	f2 0f 59 ca	 mulsd	 xmm1, xmm2
  000ba	f3 0f 10 55 ec	 movss	 xmm2, DWORD PTR _vDir$607878[ebp+4]
  000bf	0f 5a d8	 cvtps2pd xmm3, xmm0
  000c2	8d 75 dc	 lea	 esi, DWORD PTR _vPos$607877[ebp]
  000c5	8d bb a8 1d 00
	00		 lea	 edi, DWORD PTR [ebx+7592]
  000cb	a5		 movsd
  000cc	a5		 movsd
  000cd	66 0f 5a c9	 cvtpd2ps xmm1, xmm1
  000d1	0f 5a d2	 cvtps2pd xmm2, xmm2
  000d4	f2 0f 59 d3	 mulsd	 xmm2, xmm3
  000d8	f3 0f 10 5d f0	 movss	 xmm3, DWORD PTR _vDir$607878[ebp+8]
  000dd	0f 5a c0	 cvtps2pd xmm0, xmm0
  000e0	f3 0f 5a c9	 cvtss2sd xmm1, xmm1
  000e4	0f 5a db	 cvtps2pd xmm3, xmm3
  000e7	f2 0f 59 d8	 mulsd	 xmm3, xmm0
  000eb	a5		 movsd
  000ec	0f 57 c0	 xorps	 xmm0, xmm0
  000ef	66 0f 5a c3	 cvtpd2ps xmm0, xmm3
  000f3	f3 0f 10 9b a8
	1d 00 00	 movss	 xmm3, DWORD PTR [ebx+7592]
  000fb	0f 5a db	 cvtps2pd xmm3, xmm3
  000fe	f2 0f 58 d9	 addsd	 xmm3, xmm1
  00102	0f 57 c9	 xorps	 xmm1, xmm1
  00105	66 0f 5a cb	 cvtpd2ps xmm1, xmm3
  00109	f3 0f 11 8b a8
	1d 00 00	 movss	 DWORD PTR [ebx+7592], xmm1
  00111	f3 0f 10 8b ac
	1d 00 00	 movss	 xmm1, DWORD PTR [ebx+7596]
  00119	0f 5a c9	 cvtps2pd xmm1, xmm1
  0011c	66 0f 5a d2	 cvtpd2ps xmm2, xmm2
  00120	f3 0f 5a d2	 cvtss2sd xmm2, xmm2
  00124	f2 0f 58 ca	 addsd	 xmm1, xmm2
  00128	66 0f 5a c9	 cvtpd2ps xmm1, xmm1
  0012c	f3 0f 11 8b ac
	1d 00 00	 movss	 DWORD PTR [ebx+7596], xmm1
  00134	f3 0f 10 8b b0
	1d 00 00	 movss	 xmm1, DWORD PTR [ebx+7600]
  0013c	0f 5a c0	 cvtps2pd xmm0, xmm0
  0013f	0f 5a c9	 cvtps2pd xmm1, xmm1
  00142	f2 0f 58 c8	 addsd	 xmm1, xmm0

; 460  : 		m_vMarkPosition.y = pStage->GetMapHeight( m_vMarkPosition.x, m_vMarkPosition.z, NULL, false ) + m_fMarkHeightOffset;

  00146	8d 45 f4	 lea	 eax, DWORD PTR _value$620220[ebp]
  00149	0f 57 c0	 xorps	 xmm0, xmm0
  0014c	66 0f 5a c1	 cvtpd2ps xmm0, xmm1
  00150	50		 push	 eax
  00151	8d 8b 14 1d 00
	00		 lea	 ecx, DWORD PTR [ebx+7444]
  00157	f3 0f 11 83 b0
	1d 00 00	 movss	 DWORD PTR [ebx+7600], xmm0
  0015f	e8 00 00 00 00	 call	 ?DecryptValueToPool@?$CEncrypt@M@@QAEXPAM@Z ; CEncrypt<float>::DecryptValueToPool
  00164	0f 57 c0	 xorps	 xmm0, xmm0
  00167	33 ff		 xor	 edi, edi
  00169	57		 push	 edi
  0016a	51		 push	 ecx
  0016b	f3 0f 11 04 24	 movss	 DWORD PTR [esp], xmm0
  00170	57		 push	 edi
  00171	57		 push	 edi
  00172	f3 0f 10 83 b0
	1d 00 00	 movss	 xmm0, DWORD PTR [ebx+7600]
  0017a	51		 push	 ecx
  0017b	51		 push	 ecx
  0017c	8b 4d fc	 mov	 ecx, DWORD PTR _pStage$[ebp]
  0017f	f3 0f 11 44 24
	04		 movss	 DWORD PTR [esp+4], xmm0
  00185	8d b3 a8 1d 00
	00		 lea	 esi, DWORD PTR [ebx+7592]
  0018b	f3 0f 10 06	 movss	 xmm0, DWORD PTR [esi]
  0018f	f3 0f 11 04 24	 movss	 DWORD PTR [esp], xmm0
  00194	e8 00 00 00 00	 call	 ?GetMapHeight@ioPlayStage@@QAEMMMPBVioGameEntity@@_NM1@Z ; ioPlayStage::GetMapHeight
  00199	d8 45 f4	 fadd	 DWORD PTR _value$620220[ebp]

; 461  : 
; 462  : 		if( m_fMarkCurRange >= m_fMarkRange )

  0019c	8d 45 f4	 lea	 eax, DWORD PTR _value$620225[ebp]
  0019f	50		 push	 eax
  001a0	8d 8b 74 1d 00
	00		 lea	 ecx, DWORD PTR [ebx+7540]
  001a6	d9 9b ac 1d 00
	00		 fstp	 DWORD PTR [ebx+7596]
  001ac	e8 00 00 00 00	 call	 ?DecryptValueToPool@?$CEncrypt@M@@QAEXPAM@Z ; CEncrypt<float>::DecryptValueToPool
  001b1	f3 0f 10 83 a4
	1d 00 00	 movss	 xmm0, DWORD PTR [ebx+7588]
  001b9	f3 0f 10 4d f4	 movss	 xmm1, DWORD PTR _value$620225[ebp]
  001be	0f 5a c0	 cvtps2pd xmm0, xmm0
  001c1	0f 5a c9	 cvtps2pd xmm1, xmm1
  001c4	66 0f 2f c1	 comisd	 xmm0, xmm1
  001c8	72 1c		 jb	 SHORT $LN3@OnAttack

; 463  : 		{
; 464  : 			m_fMarkCurRange = m_fMarkFrontOffset;

  001ca	8d 45 f4	 lea	 eax, DWORD PTR _value$620229[ebp]
  001cd	50		 push	 eax
  001ce	8d 8b e4 1c 00
	00		 lea	 ecx, DWORD PTR [ebx+7396]
  001d4	e8 00 00 00 00	 call	 ?DecryptValueToPool@?$CEncrypt@M@@QAEXPAM@Z ; CEncrypt<float>::DecryptValueToPool
  001d9	f3 0f 10 45 f4	 movss	 xmm0, DWORD PTR _value$620229[ebp]
  001de	f3 0f 11 83 a4
	1d 00 00	 movss	 DWORD PTR [ebx+7588], xmm0
$LN3@OnAttack:

; 465  : 		}
; 466  : 
; 467  : 		ioMapEffect *pEffect = pStage->FindMapEffect( m_dwMarkEffectID );

  001e6	ff b3 e0 1c 00
	00		 push	 DWORD PTR [ebx+7392]
  001ec	8b 4d fc	 mov	 ecx, DWORD PTR _pStage$[ebp]
  001ef	e8 00 00 00 00	 call	 ?FindMapEffect@ioPlayStage@@QAEPAVioMapEffect@@K@Z ; ioPlayStage::FindMapEffect

; 468  : 		if( pEffect )

  001f4	3b c7		 cmp	 eax, edi
  001f6	74 08		 je	 SHORT $LN30@OnAttack

; 469  : 			pEffect->SetWorldPosition( m_vMarkPosition );

  001f8	56		 push	 esi
  001f9	8b c8		 mov	 ecx, eax
  001fb	e8 00 00 00 00	 call	 ?SetWorldPosition@ioMapEffect@@QAEXABUD3DXVECTOR3@@@Z ; ioMapEffect::SetWorldPosition
$LN30@OnAttack:
  00200	8b 75 08	 mov	 esi, DWORD PTR _pOwner$[ebp]
$LN2@OnAttack:

; 470  : 	}
; 471  : 
; 472  : 	//  .
; 473  : 	if( m_dwWeaponFireCheckTime < FRAMEGETTIME() )

  00203	8b 3d 00 00 00
	00		 mov	 edi, DWORD PTR __imp_?GetSingleton@ioFrameTimer@@SAAAV1@XZ
  00209	ff d7		 call	 edi
  0020b	8b c8		 mov	 ecx, eax
  0020d	ff 15 00 00 00
	00		 call	 DWORD PTR __imp_?GetLoopSec@ioFrameTimer@@QBEKXZ
  00213	39 83 b0 1c 00
	00		 cmp	 DWORD PTR [ebx+7344], eax
  00219	73 32		 jae	 SHORT $LN31@OnAttack

; 474  : 	{
; 475  : 		CheckWeaponFloatInfo( pOwner );

  0021b	56		 push	 esi
  0021c	8b cb		 mov	 ecx, ebx
  0021e	e8 00 00 00 00	 call	 ?CheckWeaponFloatInfo@ioObjectChargeShotItem@@IAEXPAVioBaseChar@@@Z ; ioObjectChargeShotItem::CheckWeaponFloatInfo

; 476  : 		CreateWeapon( pOwner );

  00223	56		 push	 esi
  00224	8b cb		 mov	 ecx, ebx
  00226	e8 00 00 00 00	 call	 ?CreateWeapon@ioObjectChargeShotItem@@IAEXPAVioBaseChar@@@Z ; ioObjectChargeShotItem::CreateWeapon

; 477  : 
; 478  : 		m_dwWeaponFireCheckTime = FRAMEGETTIME() + m_dwWeaponFireTime;

  0022b	8d 45 08	 lea	 eax, DWORD PTR _value$620233[ebp]
  0022e	50		 push	 eax
  0022f	8d 8b 28 1c 00
	00		 lea	 ecx, DWORD PTR [ebx+7208]
  00235	e8 00 00 00 00	 call	 ?DecryptValueToPool@?$CEncrypt@K@@QAEXPAK@Z ; CEncrypt<unsigned long>::DecryptValueToPool
  0023a	ff d7		 call	 edi
  0023c	8b c8		 mov	 ecx, eax
  0023e	ff 15 00 00 00
	00		 call	 DWORD PTR __imp_?GetLoopSec@ioFrameTimer@@QBEKXZ
  00244	03 45 08	 add	 eax, DWORD PTR _value$620233[ebp]
  00247	89 83 b0 1c 00
	00		 mov	 DWORD PTR [ebx+7344], eax
$LN31@OnAttack:
  0024d	5f		 pop	 edi
$LN1@OnAttack:
  0024e	5e		 pop	 esi
  0024f	5b		 pop	 ebx

; 479  : 	}
; 480  : }

  00250	c9		 leave
  00251	c2 04 00	 ret	 4
?OnAttack@ioObjectChargeShotItem@@IAEXPAVioBaseChar@@@Z ENDP ; ioObjectChargeShotItem::OnAttack
; Function compile flags: /Ogsp
_TEXT	ENDS
;	COMDAT ?CheckNormalAttack@ioObjectChargeShotItem@@UAEXPAVioBaseChar@@@Z
_TEXT	SEGMENT
_pOwner$ = 8						; size = 4
?CheckNormalAttack@ioObjectChargeShotItem@@UAEXPAVioBaseChar@@@Z PROC ; ioObjectChargeShotItem::CheckNormalAttack, COMDAT
; _this$ = ecx

; 176  : {

  00000	55		 push	 ebp
  00001	8b ec		 mov	 ebp, esp
  00003	56		 push	 esi
  00004	8b f1		 mov	 esi, ecx

; 177  : 	switch( m_AttackState )

  00006	8b 86 34 1b 00
	00		 mov	 eax, DWORD PTR [esi+6964]
  0000c	48		 dec	 eax
  0000d	74 2e		 je	 SHORT $LN3@CheckNorma
  0000f	48		 dec	 eax
  00010	74 0d		 je	 SHORT $LN2@CheckNorma
  00012	48		 dec	 eax
  00013	75 30		 jne	 SHORT $LN4@CheckNorma

; 187  : 	case AS_ATTACK_END:
; 188  : 		OnAttackEnd( pOwner );

  00015	ff 75 08	 push	 DWORD PTR _pOwner$[ebp]
  00018	e8 00 00 00 00	 call	 ?OnAttackEnd@ioObjectChargeShotItem@@IAEXPAVioBaseChar@@@Z ; ioObjectChargeShotItem::OnAttackEnd

; 189  : 		break;

  0001d	eb 26		 jmp	 SHORT $LN4@CheckNorma
$LN2@CheckNorma:

; 181  : 		break;
; 182  : 	case AS_ATTACK:
; 183  : 		CheckKeyInput( pOwner );

  0001f	ff 75 08	 push	 DWORD PTR _pOwner$[ebp]
  00022	e8 00 00 00 00	 call	 ?CheckKeyInput@ioObjectChargeShotItem@@IAEXPAVioBaseChar@@@Z ; ioObjectChargeShotItem::CheckKeyInput

; 184  : 		ProcessRotate( pOwner );

  00027	ff 75 08	 push	 DWORD PTR _pOwner$[ebp]
  0002a	8b ce		 mov	 ecx, esi
  0002c	e8 00 00 00 00	 call	 ?ProcessRotate@ioObjectChargeShotItem@@IAEXPAVioBaseChar@@@Z ; ioObjectChargeShotItem::ProcessRotate

; 185  : 		OnAttack( pOwner );

  00031	ff 75 08	 push	 DWORD PTR _pOwner$[ebp]
  00034	8b ce		 mov	 ecx, esi
  00036	e8 00 00 00 00	 call	 ?OnAttack@ioObjectChargeShotItem@@IAEXPAVioBaseChar@@@Z ; ioObjectChargeShotItem::OnAttack

; 186  : 		break;

  0003b	eb 08		 jmp	 SHORT $LN4@CheckNorma
$LN3@CheckNorma:

; 178  : 	{
; 179  : 	case AS_PREDELAY:
; 180  : 		OnPreDelay( pOwner );

  0003d	ff 75 08	 push	 DWORD PTR _pOwner$[ebp]
  00040	e8 00 00 00 00	 call	 ?OnPreDelay@ioObjectChargeShotItem@@IAEXPAVioBaseChar@@@Z ; ioObjectChargeShotItem::OnPreDelay
$LN4@CheckNorma:
  00045	5e		 pop	 esi

; 190  : 	}
; 191  : }

  00046	5d		 pop	 ebp
  00047	c2 04 00	 ret	 4
?CheckNormalAttack@ioObjectChargeShotItem@@UAEXPAVioBaseChar@@@Z ENDP ; ioObjectChargeShotItem::CheckNormalAttack
_TEXT	ENDS
END
