; Listing generated by Microsoft (R) Optimizing Compiler Version 16.00.30319.01 

	TITLE	D:\Lost Saga For Developer\Youtube\Tutorial\Source\src\LSClient\ioObjectCountItem.cpp
	.686P
	.XMM
	include listing.inc
	.model	flat

INCLUDELIB MSVCRT
INCLUDELIB OLDNAMES

PUBLIC	?return1@@YAIXZ					; return1
; Function compile flags: /Ogsp
; File d:\lost saga for developer\youtube\tutorial\source\src\lsclient\stdafx.h
;	COMDAT ?return1@@YAIXZ
_TEXT	SEGMENT
?return1@@YAIXZ PROC					; return1, COMDAT

; 17   : 	__forceinline unsigned int return1() { __asm mov eax, 1 };

  00000	b8 01 00 00 00	 mov	 eax, 1
  00005	c3		 ret	 0
?return1@@YAIXZ ENDP					; return1
_TEXT	ENDS
PUBLIC	?GetTargetRot@ioBaseChar@@QBEABUD3DXQUATERNION@@XZ ; ioBaseChar::GetTargetRot
; Function compile flags: /Ogsp
; File d:\lost saga for developer\youtube\tutorial\source\src\lsclient\iobasechar.h
;	COMDAT ?GetTargetRot@ioBaseChar@@QBEABUD3DXQUATERNION@@XZ
_TEXT	SEGMENT
?GetTargetRot@ioBaseChar@@QBEABUD3DXQUATERNION@@XZ PROC	; ioBaseChar::GetTargetRot, COMDAT
; _this$ = ecx

; 2599 : 	inline const D3DXQUATERNION& GetTargetRot() const { return m_qtTargetRot; }

  00000	8d 81 a4 06 00
	00		 lea	 eax, DWORD PTR [ecx+1700]
  00006	c3		 ret	 0
?GetTargetRot@ioBaseChar@@QBEABUD3DXQUATERNION@@XZ ENDP	; ioBaseChar::GetTargetRot
_TEXT	ENDS
PUBLIC	?IsDirKeyDoubleClick@ioBaseChar@@QBE_NXZ	; ioBaseChar::IsDirKeyDoubleClick
EXTRN	?IsDirDoubleClick@ioUserKeyInput@@QBE_NXZ:PROC	; ioUserKeyInput::IsDirDoubleClick
; Function compile flags: /Ogsp
;	COMDAT ?IsDirKeyDoubleClick@ioBaseChar@@QBE_NXZ
_TEXT	SEGMENT
?IsDirKeyDoubleClick@ioBaseChar@@QBE_NXZ PROC		; ioBaseChar::IsDirKeyDoubleClick, COMDAT
; _this$ = ecx

; 3398 : 	bool IsDirKeyDoubleClick() const { return m_KeyInput.IsDirDoubleClick(); }

  00000	81 c1 80 0c 00
	00		 add	 ecx, 3200		; 00000c80H
  00006	e9 00 00 00 00	 jmp	 ?IsDirDoubleClick@ioUserKeyInput@@QBE_NXZ ; ioUserKeyInput::IsDirDoubleClick
?IsDirKeyDoubleClick@ioBaseChar@@QBE_NXZ ENDP		; ioBaseChar::IsDirKeyDoubleClick
_TEXT	ENDS
PUBLIC	??_7bad_alloc@std@@6B@				; std::bad_alloc::`vftable'
PUBLIC	??0bad_alloc@std@@QAE@PBD@Z			; std::bad_alloc::bad_alloc
PUBLIC	??_R4bad_alloc@std@@6B@				; std::bad_alloc::`RTTI Complete Object Locator'
PUBLIC	??_R0?AVbad_alloc@std@@@8			; std::bad_alloc `RTTI Type Descriptor'
PUBLIC	??_R3bad_alloc@std@@8				; std::bad_alloc::`RTTI Class Hierarchy Descriptor'
PUBLIC	??_R2bad_alloc@std@@8				; std::bad_alloc::`RTTI Base Class Array'
PUBLIC	??_R1A@?0A@EA@bad_alloc@std@@8			; std::bad_alloc::`RTTI Base Class Descriptor at (0,-1,0,64)'
PUBLIC	??_R1A@?0A@EA@exception@std@@8			; std::exception::`RTTI Base Class Descriptor at (0,-1,0,64)'
PUBLIC	??_R0?AVexception@std@@@8			; std::exception `RTTI Type Descriptor'
PUBLIC	??_R3exception@std@@8				; std::exception::`RTTI Class Hierarchy Descriptor'
PUBLIC	??_R2exception@std@@8				; std::exception::`RTTI Base Class Array'
EXTRN	__imp_??0exception@std@@QAE@ABQBD@Z:PROC
EXTRN	??_7type_info@@6B@:QWORD			; type_info::`vftable'
EXTRN	??_Ebad_alloc@std@@UAEPAXI@Z:PROC		; std::bad_alloc::`vector deleting destructor'
EXTRN	?what@exception@std@@UBEPBDXZ:PROC		; std::exception::what
;	COMDAT ??_R2exception@std@@8
; File c:\program files (x86)\microsoft visual studio 10.0\vc\include\exception
rdata$r	SEGMENT
??_R2exception@std@@8 DD FLAT:??_R1A@?0A@EA@exception@std@@8 ; std::exception::`RTTI Base Class Array'
rdata$r	ENDS
;	COMDAT ??_R3exception@std@@8
rdata$r	SEGMENT
??_R3exception@std@@8 DD 00H				; std::exception::`RTTI Class Hierarchy Descriptor'
	DD	00H
	DD	01H
	DD	FLAT:??_R2exception@std@@8
rdata$r	ENDS
;	COMDAT ??_R0?AVexception@std@@@8
_DATA	SEGMENT
??_R0?AVexception@std@@@8 DD FLAT:??_7type_info@@6B@	; std::exception `RTTI Type Descriptor'
	DD	00H
	DB	'.?AVexception@std@@', 00H
_DATA	ENDS
;	COMDAT ??_R1A@?0A@EA@exception@std@@8
rdata$r	SEGMENT
??_R1A@?0A@EA@exception@std@@8 DD FLAT:??_R0?AVexception@std@@@8 ; std::exception::`RTTI Base Class Descriptor at (0,-1,0,64)'
	DD	00H
	DD	00H
	DD	0ffffffffH
	DD	00H
	DD	040H
	DD	FLAT:??_R3exception@std@@8
rdata$r	ENDS
;	COMDAT ??_R1A@?0A@EA@bad_alloc@std@@8
rdata$r	SEGMENT
??_R1A@?0A@EA@bad_alloc@std@@8 DD FLAT:??_R0?AVbad_alloc@std@@@8 ; std::bad_alloc::`RTTI Base Class Descriptor at (0,-1,0,64)'
	DD	01H
	DD	00H
	DD	0ffffffffH
	DD	00H
	DD	040H
	DD	FLAT:??_R3bad_alloc@std@@8
rdata$r	ENDS
;	COMDAT ??_R2bad_alloc@std@@8
rdata$r	SEGMENT
??_R2bad_alloc@std@@8 DD FLAT:??_R1A@?0A@EA@bad_alloc@std@@8 ; std::bad_alloc::`RTTI Base Class Array'
	DD	FLAT:??_R1A@?0A@EA@exception@std@@8
rdata$r	ENDS
;	COMDAT ??_R3bad_alloc@std@@8
rdata$r	SEGMENT
??_R3bad_alloc@std@@8 DD 00H				; std::bad_alloc::`RTTI Class Hierarchy Descriptor'
	DD	00H
	DD	02H
	DD	FLAT:??_R2bad_alloc@std@@8
rdata$r	ENDS
;	COMDAT ??_R0?AVbad_alloc@std@@@8
_DATA	SEGMENT
??_R0?AVbad_alloc@std@@@8 DD FLAT:??_7type_info@@6B@	; std::bad_alloc `RTTI Type Descriptor'
	DD	00H
	DB	'.?AVbad_alloc@std@@', 00H
_DATA	ENDS
;	COMDAT ??_R4bad_alloc@std@@6B@
rdata$r	SEGMENT
??_R4bad_alloc@std@@6B@ DD 00H				; std::bad_alloc::`RTTI Complete Object Locator'
	DD	00H
	DD	00H
	DD	FLAT:??_R0?AVbad_alloc@std@@@8
	DD	FLAT:??_R3bad_alloc@std@@8
rdata$r	ENDS
;	COMDAT ??_7bad_alloc@std@@6B@
CONST	SEGMENT
??_7bad_alloc@std@@6B@ DD FLAT:??_R4bad_alloc@std@@6B@	; std::bad_alloc::`vftable'
	DD	FLAT:??_Ebad_alloc@std@@UAEPAXI@Z
	DD	FLAT:?what@exception@std@@UBEPBDXZ
; Function compile flags: /Ogsp
CONST	ENDS
;	COMDAT ??0bad_alloc@std@@QAE@PBD@Z
_TEXT	SEGMENT
__Message$ = 8						; size = 4
??0bad_alloc@std@@QAE@PBD@Z PROC			; std::bad_alloc::bad_alloc, COMDAT
; _this$ = ecx

; 345  : 		{	// construct from message string

  00000	55		 push	 ebp
  00001	8b ec		 mov	 ebp, esp
  00003	56		 push	 esi
  00004	8d 45 08	 lea	 eax, DWORD PTR __Message$[ebp]
  00007	50		 push	 eax
  00008	8b f1		 mov	 esi, ecx
  0000a	ff 15 00 00 00
	00		 call	 DWORD PTR __imp_??0exception@std@@QAE@ABQBD@Z
  00010	c7 06 00 00 00
	00		 mov	 DWORD PTR [esi], OFFSET ??_7bad_alloc@std@@6B@

; 346  : 		}

  00016	8b c6		 mov	 eax, esi
  00018	5e		 pop	 esi
  00019	5d		 pop	 ebp
  0001a	c2 04 00	 ret	 4
??0bad_alloc@std@@QAE@PBD@Z ENDP			; std::bad_alloc::bad_alloc
_TEXT	ENDS
PUBLIC	??1bad_alloc@std@@UAE@XZ			; std::bad_alloc::~bad_alloc
EXTRN	__imp_??1exception@std@@UAE@XZ:PROC
; Function compile flags: /Ogsp
;	COMDAT ??1bad_alloc@std@@UAE@XZ
_TEXT	SEGMENT
??1bad_alloc@std@@UAE@XZ PROC				; std::bad_alloc::~bad_alloc, COMDAT
; _this$ = ecx

; 354  : 		{	// destroy the object

  00000	c7 01 00 00 00
	00		 mov	 DWORD PTR [ecx], OFFSET ??_7bad_alloc@std@@6B@

; 355  : 		}

  00006	ff 25 00 00 00
	00		 jmp	 DWORD PTR __imp_??1exception@std@@UAE@XZ
??1bad_alloc@std@@UAE@XZ ENDP				; std::bad_alloc::~bad_alloc
_TEXT	ENDS
EXTRN	??3@YAXPAX@Z:PROC				; operator delete
; Function compile flags: /Ogsp
;	COMDAT ??_Gbad_alloc@std@@UAEPAXI@Z
_TEXT	SEGMENT
___flags$ = 8						; size = 4
??_Gbad_alloc@std@@UAEPAXI@Z PROC			; std::bad_alloc::`scalar deleting destructor', COMDAT
; _this$ = ecx
  00000	55		 push	 ebp
  00001	8b ec		 mov	 ebp, esp
  00003	56		 push	 esi
  00004	8b f1		 mov	 esi, ecx
  00006	c7 06 00 00 00
	00		 mov	 DWORD PTR [esi], OFFSET ??_7bad_alloc@std@@6B@
  0000c	ff 15 00 00 00
	00		 call	 DWORD PTR __imp_??1exception@std@@UAE@XZ
  00012	f6 45 08 01	 test	 BYTE PTR ___flags$[ebp], 1
  00016	74 07		 je	 SHORT $LN1@scalar
  00018	56		 push	 esi
  00019	e8 00 00 00 00	 call	 ??3@YAXPAX@Z		; operator delete
  0001e	59		 pop	 ecx
$LN1@scalar:
  0001f	8b c6		 mov	 eax, esi
  00021	5e		 pop	 esi
  00022	5d		 pop	 ebp
  00023	c2 04 00	 ret	 4
??_Gbad_alloc@std@@UAEPAXI@Z ENDP			; std::bad_alloc::`scalar deleting destructor'
_TEXT	ENDS
PUBLIC	??2@YAPAXIPAX@Z					; operator new
; Function compile flags: /Ogsp
; File c:\program files (x86)\microsoft visual studio 10.0\vc\include\new
;	COMDAT ??2@YAPAXIPAX@Z
_TEXT	SEGMENT
___formal$ = 8						; size = 4
__Where$ = 12						; size = 4
??2@YAPAXIPAX@Z PROC					; operator new, COMDAT

; 56   : 	{	// construct array with placement at _Where

  00000	55		 push	 ebp
  00001	8b ec		 mov	 ebp, esp

; 57   : 	return (_Where);

  00003	8b 45 0c	 mov	 eax, DWORD PTR __Where$[ebp]

; 58   : 	}

  00006	5d		 pop	 ebp
  00007	c3		 ret	 0
??2@YAPAXIPAX@Z ENDP					; operator new
_TEXT	ENDS
PUBLIC	??3@YAXPAX0@Z					; operator delete
; Function compile flags: /Ogsp
;	COMDAT ??3@YAXPAX0@Z
_TEXT	SEGMENT
___formal$ = 8						; size = 4
___formal$ = 12						; size = 4
??3@YAXPAX0@Z PROC					; operator delete, COMDAT

; 62   : 	}

  00000	c3		 ret	 0
??3@YAXPAX0@Z ENDP					; operator delete
_TEXT	ENDS
PUBLIC	??_R0?AVioWeapon@@@8				; ioWeapon `RTTI Type Descriptor'
PUBLIC	??_R0?AVioZoneEffectWeapon@@@8			; ioZoneEffectWeapon `RTTI Type Descriptor'
PUBLIC	?ToZoneEffectWeapon@@YAPAVioZoneEffectWeapon@@PAVioWeapon@@@Z ; ToZoneEffectWeapon
EXTRN	___RTDynamicCast:PROC
;	COMDAT ??_R0?AVioWeapon@@@8
; File d:\lost saga for developer\youtube\tutorial\source\src\lsclient\iozoneeffectweapon.h
_DATA	SEGMENT
??_R0?AVioWeapon@@@8 DD FLAT:??_7type_info@@6B@		; ioWeapon `RTTI Type Descriptor'
	DD	00H
	DB	'.?AVioWeapon@@', 00H
_DATA	ENDS
;	COMDAT ??_R0?AVioZoneEffectWeapon@@@8
_DATA	SEGMENT
??_R0?AVioZoneEffectWeapon@@@8 DD FLAT:??_7type_info@@6B@ ; ioZoneEffectWeapon `RTTI Type Descriptor'
	DD	00H
	DB	'.?AVioZoneEffectWeapon@@', 00H
; Function compile flags: /Ogsp
_DATA	ENDS
;	COMDAT ?ToZoneEffectWeapon@@YAPAVioZoneEffectWeapon@@PAVioWeapon@@@Z
_TEXT	SEGMENT
_pWeapon$ = 8						; size = 4
?ToZoneEffectWeapon@@YAPAVioZoneEffectWeapon@@PAVioWeapon@@@Z PROC ; ToZoneEffectWeapon, COMDAT

; 217  : {

  00000	55		 push	 ebp
  00001	8b ec		 mov	 ebp, esp
  00003	56		 push	 esi

; 218  : 	if( !pWeapon || pWeapon->GetType() != ioWeapon::WT_ZONE_EFFECT )

  00004	8b 75 08	 mov	 esi, DWORD PTR _pWeapon$[ebp]
  00007	85 f6		 test	 esi, esi
  00009	74 28		 je	 SHORT $LN1@ToZoneEffe
  0000b	8b 06		 mov	 eax, DWORD PTR [esi]
  0000d	8b ce		 mov	 ecx, esi
  0000f	ff 90 10 01 00
	00		 call	 DWORD PTR [eax+272]
  00015	83 f8 08	 cmp	 eax, 8
  00018	75 19		 jne	 SHORT $LN1@ToZoneEffe

; 220  : 
; 221  : 	return dynamic_cast< ioZoneEffectWeapon* >( pWeapon );

  0001a	6a 00		 push	 0
  0001c	68 00 00 00 00	 push	 OFFSET ??_R0?AVioZoneEffectWeapon@@@8
  00021	68 00 00 00 00	 push	 OFFSET ??_R0?AVioWeapon@@@8
  00026	6a 00		 push	 0
  00028	56		 push	 esi
  00029	e8 00 00 00 00	 call	 ___RTDynamicCast
  0002e	83 c4 14	 add	 esp, 20			; 00000014H
  00031	eb 02		 jmp	 SHORT $LN3@ToZoneEffe
$LN1@ToZoneEffe:

; 219  : 		return NULL;

  00033	33 c0		 xor	 eax, eax
$LN3@ToZoneEffe:
  00035	5e		 pop	 esi

; 222  : }

  00036	5d		 pop	 ebp
  00037	c3		 ret	 0
?ToZoneEffectWeapon@@YAPAVioZoneEffectWeapon@@PAVioWeapon@@@Z ENDP ; ToZoneEffectWeapon
_TEXT	ENDS
PUBLIC	?_Adopt@_Iterator_base0@std@@QAEXPBX@Z		; std::_Iterator_base0::_Adopt
; Function compile flags: /Ogsp
; File c:\program files (x86)\microsoft visual studio 10.0\vc\include\xutility
;	COMDAT ?_Adopt@_Iterator_base0@std@@QAEXPBX@Z
_TEXT	SEGMENT
___formal$ = 8						; size = 4
?_Adopt@_Iterator_base0@std@@QAEXPBX@Z PROC		; std::_Iterator_base0::_Adopt, COMDAT
; _this$ = ecx

; 49   : 		}

  00000	c2 04 00	 ret	 4
?_Adopt@_Iterator_base0@std@@QAEXPBX@Z ENDP		; std::_Iterator_base0::_Adopt
_TEXT	ENDS
PUBLIC	??0D3DXQUATERNION@@QAE@XZ			; D3DXQUATERNION::D3DXQUATERNION
; Function compile flags: /Ogsp
; File c:\program files (x86)\microsoft directx sdk (june 2010)\include\d3dx9math.h
;	COMDAT ??0D3DXQUATERNION@@QAE@XZ
_TEXT	SEGMENT
??0D3DXQUATERNION@@QAE@XZ PROC				; D3DXQUATERNION::D3DXQUATERNION, COMDAT
; _this$ = ecx

; 429  :     D3DXQUATERNION() {}

  00000	8b c1		 mov	 eax, ecx
  00002	c3		 ret	 0
??0D3DXQUATERNION@@QAE@XZ ENDP				; D3DXQUATERNION::D3DXQUATERNION
_TEXT	ENDS
PUBLIC	??0D3DXVECTOR3@@QAE@MMM@Z			; D3DXVECTOR3::D3DXVECTOR3
EXTRN	__fltused:DWORD
; Function compile flags: /Ogsp
; File c:\program files (x86)\microsoft directx sdk (june 2010)\include\d3dx9math.inl
;	COMDAT ??0D3DXVECTOR3@@QAE@MMM@Z
_TEXT	SEGMENT
_fx$ = 8						; size = 4
_fy$ = 12						; size = 4
_fz$ = 16						; size = 4
??0D3DXVECTOR3@@QAE@MMM@Z PROC				; D3DXVECTOR3::D3DXVECTOR3, COMDAT
; _this$ = ecx

; 303  : {

  00000	55		 push	 ebp
  00001	8b ec		 mov	 ebp, esp

; 304  :     x = fx;

  00003	f3 0f 10 45 08	 movss	 xmm0, DWORD PTR _fx$[ebp]
  00008	8b c1		 mov	 eax, ecx
  0000a	f3 0f 11 00	 movss	 DWORD PTR [eax], xmm0

; 305  :     y = fy;

  0000e	f3 0f 10 45 0c	 movss	 xmm0, DWORD PTR _fy$[ebp]
  00013	f3 0f 11 40 04	 movss	 DWORD PTR [eax+4], xmm0

; 306  :     z = fz;

  00018	f3 0f 10 45 10	 movss	 xmm0, DWORD PTR _fz$[ebp]
  0001d	f3 0f 11 40 08	 movss	 DWORD PTR [eax+8], xmm0

; 307  : }

  00022	5d		 pop	 ebp
  00023	c2 0c 00	 ret	 12			; 0000000cH
??0D3DXVECTOR3@@QAE@MMM@Z ENDP				; D3DXVECTOR3::D3DXVECTOR3
_TEXT	ENDS
PUBLIC	?GetObjectSubType@ioObjectCountItem@@UBE?AW4ObjectSubType@ioObjectItem@@XZ ; ioObjectCountItem::GetObjectSubType
; Function compile flags: /Ogsp
; File d:\lost saga for developer\youtube\tutorial\source\src\lsclient\ioobjectcountitem.cpp
;	COMDAT ?GetObjectSubType@ioObjectCountItem@@UBE?AW4ObjectSubType@ioObjectItem@@XZ
_TEXT	SEGMENT
?GetObjectSubType@ioObjectCountItem@@UBE?AW4ObjectSubType@ioObjectItem@@XZ PROC ; ioObjectCountItem::GetObjectSubType, COMDAT
; _this$ = ecx

; 85   : 	return OST_COUNT;

  00000	6a 0f		 push	 15			; 0000000fH
  00002	58		 pop	 eax

; 86   : }

  00003	c3		 ret	 0
?GetObjectSubType@ioObjectCountItem@@UBE?AW4ObjectSubType@ioObjectItem@@XZ ENDP ; ioObjectCountItem::GetObjectSubType
_TEXT	ENDS
PUBLIC	?ProcessJumpAttack@ioObjectCountItem@@UAEXPAVioBaseChar@@M@Z ; ioObjectCountItem::ProcessJumpAttack
; Function compile flags: /Ogsp
;	COMDAT ?ProcessJumpAttack@ioObjectCountItem@@UAEXPAVioBaseChar@@M@Z
_TEXT	SEGMENT
_pOwner$ = 8						; size = 4
_fHeightGap$ = 12					; size = 4
?ProcessJumpAttack@ioObjectCountItem@@UAEXPAVioBaseChar@@M@Z PROC ; ioObjectCountItem::ProcessJumpAttack, COMDAT
; _this$ = ecx

; 170  : {

  00000	55		 push	 ebp
  00001	8b ec		 mov	 ebp, esp
  00003	56		 push	 esi
  00004	8b f1		 mov	 esi, ecx

; 171  : 	if( m_pExtendJump )

  00006	83 be c8 0b 00
	00 00		 cmp	 DWORD PTR [esi+3016], 0
  0000d	74 1b		 je	 SHORT $LN1@ProcessJum

; 172  : 	{
; 173  : 		m_pExtendJump->ProcessJumpAttack( pOwner, fHeightGap );

  0000f	8b 86 c8 0b 00
	00		 mov	 eax, DWORD PTR [esi+3016]
  00015	f3 0f 10 45 0c	 movss	 xmm0, DWORD PTR _fHeightGap$[ebp]
  0001a	8b 10		 mov	 edx, DWORD PTR [eax]
  0001c	51		 push	 ecx
  0001d	f3 0f 11 04 24	 movss	 DWORD PTR [esp], xmm0
  00022	ff 75 08	 push	 DWORD PTR _pOwner$[ebp]
  00025	8b c8		 mov	 ecx, eax
  00027	ff 52 24	 call	 DWORD PTR [edx+36]
$LN1@ProcessJum:

; 174  : 	}
; 175  : 
; 176  : 	CheckAirJump( pOwner );

  0002a	ff 75 08	 push	 DWORD PTR _pOwner$[ebp]
  0002d	8b 06		 mov	 eax, DWORD PTR [esi]
  0002f	8b ce		 mov	 ecx, esi
  00031	ff 90 b0 02 00
	00		 call	 DWORD PTR [eax+688]
  00037	5e		 pop	 esi

; 177  : }

  00038	5d		 pop	 ebp
  00039	c2 08 00	 ret	 8
?ProcessJumpAttack@ioObjectCountItem@@UAEXPAVioBaseChar@@M@Z ENDP ; ioObjectCountItem::ProcessJumpAttack
_TEXT	ENDS
PUBLIC	__real@4f800000
PUBLIC	__$ArrayPad$
PUBLIC	?SetExtraInfoToWeapon@ioObjectCountItem@@UAEXPAVioWeapon@@_N@Z ; ioObjectCountItem::SetExtraInfoToWeapon
EXTRN	?SetZoneValue@ioZoneEffectWeapon@@QAEX_N0@Z:PROC ; ioZoneEffectWeapon::SetZoneValue
EXTRN	?SetCollisionDir@ioZoneEffectWeapon@@QAEXAAUD3DXVECTOR3@@@Z:PROC ; ioZoneEffectWeapon::SetCollisionDir
EXTRN	__imp_??D@YA?AUD3DXVECTOR3@@ABUD3DXQUATERNION@@ABU0@@Z:PROC
EXTRN	?GetOwner@ioWeapon@@QBEPAVioBaseChar@@XZ:PROC	; ioWeapon::GetOwner
EXTRN	?SetExtraInfoToWeapon@ioAttackableItem@@UAEXPAVioWeapon@@_N@Z:PROC ; ioAttackableItem::SetExtraInfoToWeapon
EXTRN	___security_cookie:DWORD
EXTRN	@__security_check_cookie@4:PROC
;	COMDAT __real@4f800000
; File d:\lost saga for developer\youtube\tutorial\source\src\lsclient\iobasechar.h
CONST	SEGMENT
__real@4f800000 DD 04f800000r			; 4.29497e+009
; Function compile flags: /Ogsp
; File d:\lost saga for developer\youtube\tutorial\source\src\lsclient\ioobjectcountitem.cpp
CONST	ENDS
;	COMDAT ?SetExtraInfoToWeapon@ioObjectCountItem@@UAEXPAVioWeapon@@_N@Z
_TEXT	SEGMENT
tv174 = -32						; size = 4
_vDir$619939 = -28					; size = 12
$T619941 = -16						; size = 12
__$ArrayPad$ = -4					; size = 4
_pWeapon$ = 8						; size = 4
_bJumpAttack$ = 12					; size = 1
?SetExtraInfoToWeapon@ioObjectCountItem@@UAEXPAVioWeapon@@_N@Z PROC ; ioObjectCountItem::SetExtraInfoToWeapon, COMDAT
; _this$ = ecx

; 180  : {

  00000	55		 push	 ebp
  00001	8b ec		 mov	 ebp, esp
  00003	83 ec 20	 sub	 esp, 32			; 00000020H
  00006	a1 00 00 00 00	 mov	 eax, DWORD PTR ___security_cookie
  0000b	33 c5		 xor	 eax, ebp
  0000d	89 45 fc	 mov	 DWORD PTR __$ArrayPad$[ebp], eax
  00010	56		 push	 esi
  00011	8b 75 08	 mov	 esi, DWORD PTR _pWeapon$[ebp]
  00014	57		 push	 edi

; 181  : 	ioAttackableItem::SetExtraInfoToWeapon( pWeapon, bJumpAttack );

  00015	ff 75 0c	 push	 DWORD PTR _bJumpAttack$[ebp]
  00018	8b f9		 mov	 edi, ecx
  0001a	56		 push	 esi
  0001b	e8 00 00 00 00	 call	 ?SetExtraInfoToWeapon@ioAttackableItem@@UAEXPAVioWeapon@@_N@Z ; ioAttackableItem::SetExtraInfoToWeapon

; 182  : 
; 183  : 	ioZoneEffectWeapon *pZone = ToZoneEffectWeapon( pWeapon );

  00020	56		 push	 esi
  00021	e8 00 00 00 00	 call	 ?ToZoneEffectWeapon@@YAPAVioZoneEffectWeapon@@PAVioWeapon@@@Z ; ToZoneEffectWeapon
  00026	8b f0		 mov	 esi, eax
  00028	59		 pop	 ecx

; 184  : 	if( pZone )

  00029	85 f6		 test	 esi, esi
  0002b	74 62		 je	 SHORT $LN2@SetExtraIn

; 185  : 	{
; 186  : 		ioBaseChar *pChar = pZone->GetOwner();

  0002d	8b ce		 mov	 ecx, esi
  0002f	e8 00 00 00 00	 call	 ?GetOwner@ioWeapon@@QBEPAVioBaseChar@@XZ ; ioWeapon::GetOwner
  00034	8b c8		 mov	 ecx, eax

; 187  : 		if( pChar )

  00036	85 c9		 test	 ecx, ecx
  00038	74 55		 je	 SHORT $LN2@SetExtraIn

; 188  : 		{
; 189  : 			D3DXVECTOR3 vDir = pChar->GetTargetRot() * D3DXVECTOR3( 0.0f, 0.0f, -FLOAT1 );

  0003a	b8 01 00 00 00	 mov	 eax, 1
  0003f	0f 57 c0	 xorps	 xmm0, xmm0
  00042	89 45 e0	 mov	 DWORD PTR tv174[ebp], eax
  00045	db 45 e0	 fild	 DWORD PTR tv174[ebp]
  00048	f3 0f 11 45 f0	 movss	 DWORD PTR $T619941[ebp], xmm0
  0004d	f3 0f 11 45 f4	 movss	 DWORD PTR $T619941[ebp+4], xmm0
  00052	85 c0		 test	 eax, eax
  00054	79 06		 jns	 SHORT $LN12@SetExtraIn
  00056	d8 05 00 00 00
	00		 fadd	 DWORD PTR __real@4f800000
$LN12@SetExtraIn:
  0005c	8d 45 f0	 lea	 eax, DWORD PTR $T619941[ebp]
  0005f	d9 e0		 fchs
  00061	50		 push	 eax
  00062	d9 5d f8	 fstp	 DWORD PTR $T619941[ebp+8]
  00065	81 c1 a4 06 00
	00		 add	 ecx, 1700		; 000006a4H
  0006b	51		 push	 ecx
  0006c	8d 45 e4	 lea	 eax, DWORD PTR _vDir$619939[ebp]
  0006f	50		 push	 eax
  00070	ff 15 00 00 00
	00		 call	 DWORD PTR __imp_??D@YA?AUD3DXVECTOR3@@ABUD3DXQUATERNION@@ABU0@@Z
  00076	83 c4 0c	 add	 esp, 12			; 0000000cH

; 190  : 			pZone->SetCollisionDir( vDir );

  00079	8d 45 e4	 lea	 eax, DWORD PTR _vDir$619939[ebp]
  0007c	50		 push	 eax
  0007d	8b ce		 mov	 ecx, esi
  0007f	e8 00 00 00 00	 call	 ?SetCollisionDir@ioZoneEffectWeapon@@QAEXAAUD3DXVECTOR3@@@Z ; ioZoneEffectWeapon::SetCollisionDir

; 191  : 			pZone->SetZoneValue( false, false );

  00084	6a 00		 push	 0
  00086	6a 00		 push	 0
  00088	8b ce		 mov	 ecx, esi
  0008a	e8 00 00 00 00	 call	 ?SetZoneValue@ioZoneEffectWeapon@@QAEX_N0@Z ; ioZoneEffectWeapon::SetZoneValue
$LN2@SetExtraIn:

; 192  : 		}
; 193  : 	}
; 194  : 	
; 195  : 	if( m_bSetJumpAttack )

  0008f	8d 87 14 1c 00
	00		 lea	 eax, DWORD PTR [edi+7188]
  00095	80 38 00	 cmp	 BYTE PTR [eax], 0
  00098	5f		 pop	 edi
  00099	5e		 pop	 esi
  0009a	74 03		 je	 SHORT $LN1@SetExtraIn

; 196  : 		m_bSetJumpAttack = false;

  0009c	c6 00 00	 mov	 BYTE PTR [eax], 0
$LN1@SetExtraIn:

; 197  : }

  0009f	8b 4d fc	 mov	 ecx, DWORD PTR __$ArrayPad$[ebp]
  000a2	33 cd		 xor	 ecx, ebp
  000a4	e8 00 00 00 00	 call	 @__security_check_cookie@4
  000a9	c9		 leave
  000aa	c2 08 00	 ret	 8
?SetExtraInfoToWeapon@ioObjectCountItem@@UAEXPAVioWeapon@@_N@Z ENDP ; ioObjectCountItem::SetExtraInfoToWeapon
_TEXT	ENDS
PUBLIC	?OnEquiped@ioObjectCountItem@@UAEXPAVioBaseChar@@@Z ; ioObjectCountItem::OnEquiped
EXTRN	?ApplyNormalAttackResult@ioBaseChar@@QAEXH_N@Z:PROC ; ioBaseChar::ApplyNormalAttackResult
EXTRN	__imp_?GetLoopSec@ioFrameTimer@@QBEKXZ:PROC
EXTRN	__imp_?GetSingleton@ioFrameTimer@@SAAAV1@XZ:PROC
EXTRN	?OnEquiped@ioObjectItem@@UAEXPAVioBaseChar@@@Z:PROC ; ioObjectItem::OnEquiped
; Function compile flags: /Ogsp
;	COMDAT ?OnEquiped@ioObjectCountItem@@UAEXPAVioBaseChar@@@Z
_TEXT	SEGMENT
_pOwner$ = 8						; size = 4
?OnEquiped@ioObjectCountItem@@UAEXPAVioBaseChar@@@Z PROC ; ioObjectCountItem::OnEquiped, COMDAT
; _this$ = ecx

; 238  : {

  00000	55		 push	 ebp
  00001	8b ec		 mov	 ebp, esp
  00003	56		 push	 esi

; 239  : 	ioObjectItem::OnEquiped( pOwner );

  00004	ff 75 08	 push	 DWORD PTR _pOwner$[ebp]
  00007	8b f1		 mov	 esi, ecx
  00009	e8 00 00 00 00	 call	 ?OnEquiped@ioObjectItem@@UAEXPAVioBaseChar@@@Z ; ioObjectItem::OnEquiped

; 240  : 
; 241  : 	m_dwEquipTime = FRAMEGETTIME();

  0000e	ff 15 00 00 00
	00		 call	 DWORD PTR __imp_?GetSingleton@ioFrameTimer@@SAAAV1@XZ
  00014	8b c8		 mov	 ecx, eax
  00016	ff 15 00 00 00
	00		 call	 DWORD PTR __imp_?GetLoopSec@ioFrameTimer@@QBEKXZ

; 242  : 	m_bSetJumpAttack = false;
; 243  : 	m_iCurUseCount = 0;
; 244  : 
; 245  : 	//콤보수 초기화
; 246  : 	pOwner->ApplyNormalAttackResult( m_iCurCombo, true );

  0001c	8b 4d 08	 mov	 ecx, DWORD PTR _pOwner$[ebp]
  0001f	83 a6 00 1b 00
	00 00		 and	 DWORD PTR [esi+6912], 0
  00026	6a 01		 push	 1
  00028	ff b6 10 1c 00
	00		 push	 DWORD PTR [esi+7184]
  0002e	89 86 18 1c 00
	00		 mov	 DWORD PTR [esi+7192], eax
  00034	c6 86 14 1c 00
	00 00		 mov	 BYTE PTR [esi+7188], 0
  0003b	e8 00 00 00 00	 call	 ?ApplyNormalAttackResult@ioBaseChar@@QAEXH_N@Z ; ioBaseChar::ApplyNormalAttackResult

; 247  : 	m_iCurCombo = 0;

  00040	83 a6 10 1c 00
	00 00		 and	 DWORD PTR [esi+7184], 0
  00047	5e		 pop	 esi

; 248  : }

  00048	5d		 pop	 ebp
  00049	c2 04 00	 ret	 4
?OnEquiped@ioObjectCountItem@@UAEXPAVioBaseChar@@@Z ENDP ; ioObjectCountItem::OnEquiped
_TEXT	ENDS
PUBLIC	?OnReleased@ioObjectCountItem@@UAEXPAVioBaseChar@@@Z ; ioObjectCountItem::OnReleased
EXTRN	?OnReleased@ioObjectItem@@UAEXPAVioBaseChar@@@Z:PROC ; ioObjectItem::OnReleased
; Function compile flags: /Ogsp
;	COMDAT ?OnReleased@ioObjectCountItem@@UAEXPAVioBaseChar@@@Z
_TEXT	SEGMENT
_pOwner$ = 8						; size = 4
?OnReleased@ioObjectCountItem@@UAEXPAVioBaseChar@@@Z PROC ; ioObjectCountItem::OnReleased, COMDAT
; _this$ = ecx

; 251  : {

  00000	55		 push	 ebp
  00001	8b ec		 mov	 ebp, esp
  00003	56		 push	 esi
  00004	57		 push	 edi

; 252  : 	ioObjectItem::OnReleased( pOwner );

  00005	ff 75 08	 push	 DWORD PTR _pOwner$[ebp]
  00008	8b f1		 mov	 esi, ecx
  0000a	e8 00 00 00 00	 call	 ?OnReleased@ioObjectItem@@UAEXPAVioBaseChar@@@Z ; ioObjectItem::OnReleased

; 253  : 	m_bSetJumpAttack = false;
; 254  : 	m_iCurUseCount = 0;
; 255  : 
; 256  : 	//콤보수 초기화
; 257  : 	pOwner->ApplyNormalAttackResult( m_iCurCombo, true );

  0000f	8b 4d 08	 mov	 ecx, DWORD PTR _pOwner$[ebp]
  00012	83 a6 00 1b 00
	00 00		 and	 DWORD PTR [esi+6912], 0
  00019	6a 01		 push	 1
  0001b	ff b6 10 1c 00
	00		 push	 DWORD PTR [esi+7184]
  00021	c6 86 14 1c 00
	00 00		 mov	 BYTE PTR [esi+7188], 0
  00028	e8 00 00 00 00	 call	 ?ApplyNormalAttackResult@ioBaseChar@@QAEXH_N@Z ; ioBaseChar::ApplyNormalAttackResult

; 258  : 	m_iCurCombo = 0;

  0002d	83 a6 10 1c 00
	00 00		 and	 DWORD PTR [esi+7184], 0
  00034	5f		 pop	 edi

; 259  : 	m_bFirstAttack = false;

  00035	c6 86 1c 1c 00
	00 00		 mov	 BYTE PTR [esi+7196], 0
  0003c	5e		 pop	 esi

; 260  : }

  0003d	5d		 pop	 ebp
  0003e	c2 04 00	 ret	 4
?OnReleased@ioObjectCountItem@@UAEXPAVioBaseChar@@@Z ENDP ; ioObjectCountItem::OnReleased
_TEXT	ENDS
PUBLIC	?CheckReserve@ioObjectCountItem@@MAEXPAVioBaseChar@@@Z ; ioObjectCountItem::CheckReserve
EXTRN	?IsJumpKey@ioBaseChar@@QBE_NXZ:PROC		; ioBaseChar::IsJumpKey
EXTRN	?IsAttackKey@ioBaseChar@@QBE_NXZ:PROC		; ioBaseChar::IsAttackKey
EXTRN	?IsDefenseKeyDown@ioBaseChar@@QBE_NXZ:PROC	; ioBaseChar::IsDefenseKeyDown
EXTRN	?GetSkillKeyInput@ioBaseChar@@QAEHXZ:PROC	; ioBaseChar::GetSkillKeyInput
; Function compile flags: /Ogsp
;	COMDAT ?CheckReserve@ioObjectCountItem@@MAEXPAVioBaseChar@@@Z
_TEXT	SEGMENT
_bReserveSkill$ = -1					; size = 1
_pOwner$ = 8						; size = 4
?CheckReserve@ioObjectCountItem@@MAEXPAVioBaseChar@@@Z PROC ; ioObjectCountItem::CheckReserve, COMDAT
; _this$ = ecx

; 289  : {

  00000	55		 push	 ebp
  00001	8b ec		 mov	 ebp, esp
  00003	51		 push	 ecx
  00004	53		 push	 ebx
  00005	56		 push	 esi
  00006	57		 push	 edi

; 290  : 	bool bReserveSkill = false;
; 291  : 	int iSkillNum = pOwner->GetSkillKeyInput();

  00007	8b 7d 08	 mov	 edi, DWORD PTR _pOwner$[ebp]
  0000a	8b f1		 mov	 esi, ecx
  0000c	33 db		 xor	 ebx, ebx
  0000e	8b cf		 mov	 ecx, edi
  00010	88 5d ff	 mov	 BYTE PTR _bReserveSkill$[ebp], bl
  00013	e8 00 00 00 00	 call	 ?GetSkillKeyInput@ioBaseChar@@QAEHXZ ; ioBaseChar::GetSkillKeyInput

; 292  : 	if( iSkillNum >= 0 )

  00018	3b c3		 cmp	 eax, ebx
  0001a	7c 0a		 jl	 SHORT $LN6@CheckReser

; 293  : 	{
; 294  : 		m_iSkillInput = iSkillNum;

  0001c	89 86 fc 0e 00
	00		 mov	 DWORD PTR [esi+3836], eax

; 295  : 		bReserveSkill = true;

  00022	c6 45 ff 01	 mov	 BYTE PTR _bReserveSkill$[ebp], 1
$LN6@CheckReser:

; 296  : 	}
; 297  : 
; 298  : 	if( pOwner->IsDefenseKeyDown() && !m_bEnableDefenseState && !bReserveSkill )

  00026	8b cf		 mov	 ecx, edi
  00028	e8 00 00 00 00	 call	 ?IsDefenseKeyDown@ioBaseChar@@QBE_NXZ ; ioBaseChar::IsDefenseKeyDown
  0002d	84 c0		 test	 al, al
  0002f	74 1e		 je	 SHORT $LN5@CheckReser
  00031	38 9e 00 0f 00
	00		 cmp	 BYTE PTR [esi+3840], bl
  00037	75 16		 jne	 SHORT $LN5@CheckReser
  00039	38 5d ff	 cmp	 BYTE PTR _bReserveSkill$[ebp], bl
  0003c	75 11		 jne	 SHORT $LN5@CheckReser

; 299  : 	{
; 300  : 		m_bEnableDefenseState = true;

  0003e	66 c7 86 00 0f
	00 00 01 00	 mov	 WORD PTR [esi+3840], 1
$LN10@CheckReser:

; 301  : 		m_bEnableAttackState = false;
; 302  : 		m_bEnableJumpState = false;

  00047	88 9e 02 0f 00
	00		 mov	 BYTE PTR [esi+3842], bl

; 303  : 
; 304  : 		m_iSkillInput = -1;

  0004d	eb 4a		 jmp	 SHORT $LN9@CheckReser
$LN5@CheckReser:

; 305  : 	}
; 306  : 	else if( pOwner->IsAttackKey() && !m_bEnableAttackState && !bReserveSkill )

  0004f	8b cf		 mov	 ecx, edi
  00051	e8 00 00 00 00	 call	 ?IsAttackKey@ioBaseChar@@QBE_NXZ ; ioBaseChar::IsAttackKey
  00056	84 c0		 test	 al, al
  00058	74 18		 je	 SHORT $LN3@CheckReser
  0005a	38 9e 01 0f 00
	00		 cmp	 BYTE PTR [esi+3841], bl
  00060	75 10		 jne	 SHORT $LN3@CheckReser
  00062	38 5d ff	 cmp	 BYTE PTR _bReserveSkill$[ebp], bl
  00065	75 0b		 jne	 SHORT $LN3@CheckReser

; 307  : 	{
; 308  : 		m_bEnableAttackState = true;

  00067	66 c7 86 00 0f
	00 00 00 01	 mov	 WORD PTR [esi+3840], 256 ; 00000100H

; 309  : 		m_bEnableDefenseState = false;
; 310  : 		m_bEnableJumpState = false;
; 311  : 
; 312  : 		m_iSkillInput = -1;

  00070	eb d5		 jmp	 SHORT $LN10@CheckReser
$LN3@CheckReser:

; 313  : 	}
; 314  : 	else if( pOwner->IsJumpKey() && !m_bEnableJumpState && !bReserveSkill )

  00072	8b cf		 mov	 ecx, edi
  00074	e8 00 00 00 00	 call	 ?IsJumpKey@ioBaseChar@@QBE_NXZ ; ioBaseChar::IsJumpKey
  00079	84 c0		 test	 al, al
  0007b	74 23		 je	 SHORT $LN1@CheckReser
  0007d	38 9e 02 0f 00
	00		 cmp	 BYTE PTR [esi+3842], bl
  00083	75 1b		 jne	 SHORT $LN1@CheckReser
  00085	38 5d ff	 cmp	 BYTE PTR _bReserveSkill$[ebp], bl
  00088	75 16		 jne	 SHORT $LN1@CheckReser

; 315  : 	{
; 316  : 		m_bEnableJumpState = true;

  0008a	66 c7 86 01 0f
	00 00 00 01	 mov	 WORD PTR [esi+3841], 256 ; 00000100H

; 317  : 		m_bEnableAttackState = false;
; 318  : 		m_bEnableDefenseState = false;

  00093	88 9e 00 0f 00
	00		 mov	 BYTE PTR [esi+3840], bl
$LN9@CheckReser:

; 319  : 		m_iSkillInput = -1;

  00099	83 8e fc 0e 00
	00 ff		 or	 DWORD PTR [esi+3836], -1
$LN1@CheckReser:
  000a0	5f		 pop	 edi
  000a1	5e		 pop	 esi
  000a2	5b		 pop	 ebx

; 320  : 	}
; 321  : }

  000a3	c9		 leave
  000a4	c2 04 00	 ret	 4
?CheckReserve@ioObjectCountItem@@MAEXPAVioBaseChar@@@Z ENDP ; ioObjectCountItem::CheckReserve
_TEXT	ENDS
PUBLIC	?IsAttackComboInit@ioObjectCountItem@@UBE_NXZ	; ioObjectCountItem::IsAttackComboInit
; Function compile flags: /Ogsp
;	COMDAT ?IsAttackComboInit@ioObjectCountItem@@UBE_NXZ
_TEXT	SEGMENT
?IsAttackComboInit@ioObjectCountItem@@UBE_NXZ PROC	; ioObjectCountItem::IsAttackComboInit, COMDAT
; _this$ = ecx

; 383  : 	return false;

  00000	32 c0		 xor	 al, al

; 384  : }

  00002	c3		 ret	 0
?IsAttackComboInit@ioObjectCountItem@@UBE_NXZ ENDP	; ioObjectCountItem::IsAttackComboInit
_TEXT	ENDS
PUBLIC	__real@3f800000
PUBLIC	__$ArrayPad$
PUBLIC	?SetAttackState@ioObjectCountItem@@IAEXPAVioBaseChar@@@Z ; ioObjectCountItem::SetAttackState
EXTRN	??1SP2Packet@@UAE@XZ:PROC			; SP2Packet::~SP2Packet
EXTRN	?SendToAllPlayingUser@P2PNetwork@@YAXAAVSP2Packet@@PAVioBaseChar@@@Z:PROC ; P2PNetwork::SendToAllPlayingUser
EXTRN	??6SP2Packet@@QAEAAV0@ABUD3DXQUATERNION@@@Z:PROC ; SP2Packet::operator<<
EXTRN	??6SP2Packet@@QAEAAV0@H@Z:PROC			; SP2Packet::operator<<
EXTRN	?FillItemGaugePacketHeader@ioAttackableItem@@QAEXPAVioBaseChar@@AAVSP2Packet@@@Z:PROC ; ioAttackableItem::FillItemGaugePacketHeader
EXTRN	??0SP2Packet@@QAE@K@Z:PROC			; SP2Packet::SP2Packet
EXTRN	?SetNormalAttackByAttribute@ioBaseChar@@QAEKABUAttackAttribute@@_NMM@Z:PROC ; ioBaseChar::SetNormalAttackByAttribute
EXTRN	?GetAttribute@ioFormalAttackGrp@@QBEPBUAttackAttribute@@W4AttackType@@H@Z:PROC ; ioFormalAttackGrp::GetAttribute
EXTRN	?InitExtendAttackTagInfo@ioBaseChar@@QAEXXZ:PROC ; ioBaseChar::InitExtendAttackTagInfo
EXTRN	___CxxFrameHandler3:PROC
EXTRN	__chkstk:PROC
;	COMDAT __real@3f800000
; File d:\lost saga for developer\youtube\tutorial\source\src\lsclient\iobasechar.h
CONST	SEGMENT
__real@3f800000 DD 03f800000r			; 1
CONST	ENDS
;	COMDAT xdata$x
xdata$x	SEGMENT
__unwindtable$?SetAttackState@ioObjectCountItem@@IAEXPAVioBaseChar@@@Z DD 0ffffffffH
	DD	FLAT:__unwindfunclet$?SetAttackState@ioObjectCountItem@@IAEXPAVioBaseChar@@@Z$0
__ehfuncinfo$?SetAttackState@ioObjectCountItem@@IAEXPAVioBaseChar@@@Z DD 019930522H
	DD	01H
	DD	FLAT:__unwindtable$?SetAttackState@ioObjectCountItem@@IAEXPAVioBaseChar@@@Z
	DD	2 DUP(00H)
	DD	2 DUP(00H)
	DD	00H
	DD	01H
; Function compile flags: /Ogsp
; File d:\lost saga for developer\youtube\tutorial\source\src\lsclient\ioobjectcountitem.cpp
xdata$x	ENDS
;	COMDAT ?SetAttackState@ioObjectCountItem@@IAEXPAVioBaseChar@@@Z
_TEXT	SEGMENT
_kPacket$620209 = -32808				; size = 32792
__$ArrayPad$ = -16					; size = 4
__$EHRec$ = -12						; size = 12
_pOwner$ = 8						; size = 4
?SetAttackState@ioObjectCountItem@@IAEXPAVioBaseChar@@@Z PROC ; ioObjectCountItem::SetAttackState, COMDAT
; _this$ = ecx

; 389  : {

  00000	55		 push	 ebp
  00001	8b ec		 mov	 ebp, esp
  00003	6a ff		 push	 -1
  00005	68 00 00 00 00	 push	 __ehhandler$?SetAttackState@ioObjectCountItem@@IAEXPAVioBaseChar@@@Z
  0000a	64 a1 00 00 00
	00		 mov	 eax, DWORD PTR fs:0
  00010	50		 push	 eax
  00011	b8 1c 80 00 00	 mov	 eax, 32796		; 0000801cH
  00016	e8 00 00 00 00	 call	 __chkstk
  0001b	a1 00 00 00 00	 mov	 eax, DWORD PTR ___security_cookie
  00020	33 c5		 xor	 eax, ebp
  00022	89 45 f0	 mov	 DWORD PTR __$ArrayPad$[ebp], eax
  00025	56		 push	 esi
  00026	57		 push	 edi
  00027	50		 push	 eax
  00028	8d 45 f4	 lea	 eax, DWORD PTR __$EHRec$[ebp]
  0002b	64 a3 00 00 00
	00		 mov	 DWORD PTR fs:0, eax
  00031	8b 7d 08	 mov	 edi, DWORD PTR _pOwner$[ebp]
  00034	8b f1		 mov	 esi, ecx

; 390  : 	if( !pOwner )

  00036	85 ff		 test	 edi, edi
  00038	0f 84 ef 00 00
	00		 je	 $LN1@SetAttackS

; 391  : 		return;
; 392  : 		
; 393  : 	pOwner->InitExtendAttackTagInfo();

  0003e	8b cf		 mov	 ecx, edi
  00040	e8 00 00 00 00	 call	 ?InitExtendAttackTagInfo@ioBaseChar@@QAEXXZ ; ioBaseChar::InitExtendAttackTagInfo

; 394  : 	ClearCancelInfo();

  00045	8b 06		 mov	 eax, DWORD PTR [esi]
  00047	8b ce		 mov	 ecx, esi
  00049	ff 90 3c 02 00
	00		 call	 DWORD PTR [eax+572]

; 395  : 		
; 396  : 	const AttackAttribute *pAttribute = m_FormalAttack.GetAttribute( AT_NORMAL, m_iCurCombo );

  0004f	ff b6 10 1c 00
	00		 push	 DWORD PTR [esi+7184]
  00055	8d 8e 2c 06 00
	00		 lea	 ecx, DWORD PTR [esi+1580]
  0005b	6a 00		 push	 0
  0005d	e8 00 00 00 00	 call	 ?GetAttribute@ioFormalAttackGrp@@QBEPBUAttackAttribute@@W4AttackType@@H@Z ; ioFormalAttackGrp::GetAttribute

; 397  : 	if( pAttribute )

  00062	85 c0		 test	 eax, eax
  00064	74 1f		 je	 SHORT $LN2@SetAttackS

; 398  : 	{
; 399  : 		pOwner->SetNormalAttackByAttribute( *pAttribute );

  00066	f3 0f 10 05 00
	00 00 00	 movss	 xmm0, DWORD PTR __real@3f800000
  0006e	51		 push	 ecx
  0006f	51		 push	 ecx
  00070	f3 0f 11 44 24
	04		 movss	 DWORD PTR [esp+4], xmm0
  00076	f3 0f 11 04 24	 movss	 DWORD PTR [esp], xmm0
  0007b	6a 01		 push	 1
  0007d	50		 push	 eax
  0007e	8b cf		 mov	 ecx, edi
  00080	e8 00 00 00 00	 call	 ?SetNormalAttackByAttribute@ioBaseChar@@QAEKABUAttackAttribute@@_NMM@Z ; ioBaseChar::SetNormalAttackByAttribute
$LN2@SetAttackS:

; 400  : 	}
; 401  : 
; 402  : 	pOwner->ApplyNormalAttackResult( m_iCurCombo );	

  00085	6a 00		 push	 0
  00087	ff b6 10 1c 00
	00		 push	 DWORD PTR [esi+7184]
  0008d	8b cf		 mov	 ecx, edi
  0008f	e8 00 00 00 00	 call	 ?ApplyNormalAttackResult@ioBaseChar@@QAEXH_N@Z ; ioBaseChar::ApplyNormalAttackResult

; 403  : 
; 404  : 	m_ObjectState = OS_ATTACK_END;
; 405  : 	CheckActiveCount( pOwner );

  00094	8b 06		 mov	 eax, DWORD PTR [esi]
  00096	57		 push	 edi
  00097	8b ce		 mov	 ecx, esi
  00099	c7 86 08 1c 00
	00 02 00 00 00	 mov	 DWORD PTR [esi+7176], 2
  000a3	ff 90 0c 03 00
	00		 call	 DWORD PTR [eax+780]

; 406  : 
; 407  : 	if( pOwner->IsNeedSendNetwork() )

  000a9	8b 07		 mov	 eax, DWORD PTR [edi]
  000ab	8b cf		 mov	 ecx, edi
  000ad	ff 90 04 01 00
	00		 call	 DWORD PTR [eax+260]
  000b3	84 c0		 test	 al, al
  000b5	74 76		 je	 SHORT $LN1@SetAttackS

; 408  : 	{
; 409  : 		SP2Packet kPacket( CUPK_ITEM_GAUGE_OK );

  000b7	68 27 41 00 00	 push	 16679			; 00004127H
  000bc	8d 8d d8 7f ff
	ff		 lea	 ecx, DWORD PTR _kPacket$620209[ebp]
  000c2	e8 00 00 00 00	 call	 ??0SP2Packet@@QAE@K@Z	; SP2Packet::SP2Packet
  000c7	83 65 fc 00	 and	 DWORD PTR __$EHRec$[ebp+8], 0

; 410  : 		FillItemGaugePacketHeader( pOwner, kPacket );

  000cb	8d 85 d8 7f ff
	ff		 lea	 eax, DWORD PTR _kPacket$620209[ebp]
  000d1	50		 push	 eax
  000d2	57		 push	 edi
  000d3	8b ce		 mov	 ecx, esi
  000d5	e8 00 00 00 00	 call	 ?FillItemGaugePacketHeader@ioAttackableItem@@QAEXPAVioBaseChar@@AAVSP2Packet@@@Z ; ioAttackableItem::FillItemGaugePacketHeader

; 411  : 		kPacket << m_ObjectState;

  000da	ff b6 08 1c 00
	00		 push	 DWORD PTR [esi+7176]
  000e0	8d 8d d8 7f ff
	ff		 lea	 ecx, DWORD PTR _kPacket$620209[ebp]
  000e6	e8 00 00 00 00	 call	 ??6SP2Packet@@QAEAAV0@H@Z ; SP2Packet::operator<<

; 412  : 		kPacket << m_iCurCombo;

  000eb	ff b6 10 1c 00
	00		 push	 DWORD PTR [esi+7184]
  000f1	8d 8d d8 7f ff
	ff		 lea	 ecx, DWORD PTR _kPacket$620209[ebp]
  000f7	e8 00 00 00 00	 call	 ??6SP2Packet@@QAEAAV0@H@Z ; SP2Packet::operator<<

; 413  : 		kPacket << pOwner->GetTargetRot();

  000fc	81 c7 a4 06 00
	00		 add	 edi, 1700		; 000006a4H
  00102	57		 push	 edi
  00103	8d 8d d8 7f ff
	ff		 lea	 ecx, DWORD PTR _kPacket$620209[ebp]
  00109	e8 00 00 00 00	 call	 ??6SP2Packet@@QAEAAV0@ABUD3DXQUATERNION@@@Z ; SP2Packet::operator<<

; 414  : 		P2PNetwork::SendToAllPlayingUser( kPacket );

  0010e	8d 85 d8 7f ff
	ff		 lea	 eax, DWORD PTR _kPacket$620209[ebp]
  00114	6a 00		 push	 0
  00116	50		 push	 eax
  00117	e8 00 00 00 00	 call	 ?SendToAllPlayingUser@P2PNetwork@@YAXAAVSP2Packet@@PAVioBaseChar@@@Z ; P2PNetwork::SendToAllPlayingUser

; 415  : 	}

  0011c	83 4d fc ff	 or	 DWORD PTR __$EHRec$[ebp+8], -1
  00120	59		 pop	 ecx
  00121	59		 pop	 ecx
  00122	8d 8d d8 7f ff
	ff		 lea	 ecx, DWORD PTR _kPacket$620209[ebp]
  00128	e8 00 00 00 00	 call	 ??1SP2Packet@@UAE@XZ	; SP2Packet::~SP2Packet
$LN1@SetAttackS:

; 416  : }

  0012d	8b 4d f4	 mov	 ecx, DWORD PTR __$EHRec$[ebp]
  00130	64 89 0d 00 00
	00 00		 mov	 DWORD PTR fs:0, ecx
  00137	59		 pop	 ecx
  00138	5f		 pop	 edi
  00139	5e		 pop	 esi
  0013a	8b 4d f0	 mov	 ecx, DWORD PTR __$ArrayPad$[ebp]
  0013d	33 cd		 xor	 ecx, ebp
  0013f	e8 00 00 00 00	 call	 @__security_check_cookie@4
  00144	c9		 leave
  00145	c2 04 00	 ret	 4
_TEXT	ENDS
;	COMDAT text$x
text$x	SEGMENT
__unwindfunclet$?SetAttackState@ioObjectCountItem@@IAEXPAVioBaseChar@@@Z$0:
  00000	8d 8d d8 7f ff
	ff		 lea	 ecx, DWORD PTR _kPacket$620209[ebp]
  00006	e9 00 00 00 00	 jmp	 ??1SP2Packet@@UAE@XZ	; SP2Packet::~SP2Packet
__ehhandler$?SetAttackState@ioObjectCountItem@@IAEXPAVioBaseChar@@@Z:
  0000b	8b 54 24 08	 mov	 edx, DWORD PTR [esp+8]
  0000f	8d 42 0c	 lea	 eax, DWORD PTR [edx+12]
  00012	8b 8a d8 7f ff
	ff		 mov	 ecx, DWORD PTR [edx-32808]
  00018	33 c8		 xor	 ecx, eax
  0001a	e8 00 00 00 00	 call	 @__security_check_cookie@4
  0001f	8b 4a fc	 mov	 ecx, DWORD PTR [edx-4]
  00022	33 c8		 xor	 ecx, eax
  00024	e8 00 00 00 00	 call	 @__security_check_cookie@4
  00029	b8 00 00 00 00	 mov	 eax, OFFSET __ehfuncinfo$?SetAttackState@ioObjectCountItem@@IAEXPAVioBaseChar@@@Z
  0002e	e9 00 00 00 00	 jmp	 ___CxxFrameHandler3
text$x	ENDS
?SetAttackState@ioObjectCountItem@@IAEXPAVioBaseChar@@@Z ENDP ; ioObjectCountItem::SetAttackState
PUBLIC	?empty@?$vector@KV?$allocator@K@std@@@std@@QBE_NXZ ; std::vector<unsigned long,std::allocator<unsigned long> >::empty
; Function compile flags: /Ogsp
; File c:\program files (x86)\microsoft visual studio 10.0\vc\include\vector
;	COMDAT ?empty@?$vector@KV?$allocator@K@std@@@std@@QBE_NXZ
_TEXT	SEGMENT
?empty@?$vector@KV?$allocator@K@std@@@std@@QBE_NXZ PROC	; std::vector<unsigned long,std::allocator<unsigned long> >::empty, COMDAT
; _this$ = ecx

; 889  : 		return (this->_Myfirst == this->_Mylast);

  00000	8b 01		 mov	 eax, DWORD PTR [ecx]
  00002	2b 41 04	 sub	 eax, DWORD PTR [ecx+4]
  00005	f7 d8		 neg	 eax
  00007	1b c0		 sbb	 eax, eax
  00009	40		 inc	 eax

; 890  : 		}

  0000a	c3		 ret	 0
?empty@?$vector@KV?$allocator@K@std@@@std@@QBE_NXZ ENDP	; std::vector<unsigned long,std::allocator<unsigned long> >::empty
_TEXT	ENDS
PUBLIC	?empty@?$list@MV?$allocator@M@std@@@std@@QBE_NXZ ; std::list<float,std::allocator<float> >::empty
; Function compile flags: /Ogsp
; File c:\program files (x86)\microsoft visual studio 10.0\vc\include\list
;	COMDAT ?empty@?$list@MV?$allocator@M@std@@@std@@QBE_NXZ
_TEXT	SEGMENT
?empty@?$list@MV?$allocator@M@std@@@std@@QBE_NXZ PROC	; std::list<float,std::allocator<float> >::empty, COMDAT
; _this$ = ecx

; 887  : 		return (this->_Mysize == 0);

  00000	33 c0		 xor	 eax, eax
  00002	39 41 04	 cmp	 DWORD PTR [ecx+4], eax
  00005	0f 94 c0	 sete	 al

; 888  : 		}

  00008	c3		 ret	 0
?empty@?$list@MV?$allocator@M@std@@@std@@QBE_NXZ ENDP	; std::list<float,std::allocator<float> >::empty
_TEXT	ENDS
PUBLIC	?_Nextnode@?$_List_val@MV?$allocator@M@std@@@std@@SAAAPAU_Node@?$_List_nod@MV?$allocator@M@std@@@2@PAU342@@Z ; std::_List_val<float,std::allocator<float> >::_Nextnode
; Function compile flags: /Ogsp
;	COMDAT ?_Nextnode@?$_List_val@MV?$allocator@M@std@@@std@@SAAAPAU_Node@?$_List_nod@MV?$allocator@M@std@@@2@PAU342@@Z
_TEXT	SEGMENT
__Pnode$ = 8						; size = 4
?_Nextnode@?$_List_val@MV?$allocator@M@std@@@std@@SAAAPAU_Node@?$_List_nod@MV?$allocator@M@std@@@2@PAU342@@Z PROC ; std::_List_val<float,std::allocator<float> >::_Nextnode, COMDAT

; 560  : 		{	// return reference to successor pointer in node

  00000	55		 push	 ebp
  00001	8b ec		 mov	 ebp, esp

; 561  : 		return ((_Nodepref)(*_Pnode)._Next);

  00003	8b 45 08	 mov	 eax, DWORD PTR __Pnode$[ebp]

; 562  : 		}

  00006	5d		 pop	 ebp
  00007	c3		 ret	 0
?_Nextnode@?$_List_val@MV?$allocator@M@std@@@std@@SAAAPAU_Node@?$_List_nod@MV?$allocator@M@std@@@2@PAU342@@Z ENDP ; std::_List_val<float,std::allocator<float> >::_Nextnode
_TEXT	ENDS
PUBLIC	??8?$_List_const_iterator@V?$_List_val@MV?$allocator@M@std@@@std@@@std@@QBE_NABV01@@Z ; std::_List_const_iterator<std::_List_val<float,std::allocator<float> > >::operator==
; Function compile flags: /Ogsp
;	COMDAT ??8?$_List_const_iterator@V?$_List_val@MV?$allocator@M@std@@@std@@@std@@QBE_NABV01@@Z
_TEXT	SEGMENT
__Right$ = 8						; size = 4
??8?$_List_const_iterator@V?$_List_val@MV?$allocator@M@std@@@std@@@std@@QBE_NABV01@@Z PROC ; std::_List_const_iterator<std::_List_val<float,std::allocator<float> > >::operator==, COMDAT
; _this$ = ecx

; 281  : 		{	// test for iterator equality

  00000	55		 push	 ebp
  00001	8b ec		 mov	 ebp, esp

; 282  :  #if _ITERATOR_DEBUG_LEVEL == 2
; 283  : 		if (this->_Getcont() == 0
; 284  : 			|| this->_Getcont() != _Right._Getcont())
; 285  : 			{	// report error
; 286  : 			_DEBUG_ERROR("list iterators incompatible");
; 287  : 			_SCL_SECURE_INVALID_ARGUMENT;
; 288  : 			}
; 289  : 
; 290  :  #elif _ITERATOR_DEBUG_LEVEL == 1
; 291  : 		_SCL_SECURE_VALIDATE(this->_Getcont() != 0
; 292  : 			&& this->_Getcont() == _Right._Getcont());
; 293  :  #endif /* _ITERATOR_DEBUG_LEVEL */
; 294  : 
; 295  : 		return (this->_Ptr == _Right._Ptr);

  00003	8b 01		 mov	 eax, DWORD PTR [ecx]
  00005	8b 4d 08	 mov	 ecx, DWORD PTR __Right$[ebp]
  00008	2b 01		 sub	 eax, DWORD PTR [ecx]
  0000a	f7 d8		 neg	 eax
  0000c	1b c0		 sbb	 eax, eax
  0000e	40		 inc	 eax

; 296  : 		}

  0000f	5d		 pop	 ebp
  00010	c2 04 00	 ret	 4
??8?$_List_const_iterator@V?$_List_val@MV?$allocator@M@std@@@std@@@std@@QBE_NABV01@@Z ENDP ; std::_List_const_iterator<std::_List_val<float,std::allocator<float> > >::operator==
_TEXT	ENDS
PUBLIC	?_Prevnode@?$_List_val@MV?$allocator@M@std@@@std@@SAAAPAU_Node@?$_List_nod@MV?$allocator@M@std@@@2@PAU342@@Z ; std::_List_val<float,std::allocator<float> >::_Prevnode
; Function compile flags: /Ogsp
;	COMDAT ?_Prevnode@?$_List_val@MV?$allocator@M@std@@@std@@SAAAPAU_Node@?$_List_nod@MV?$allocator@M@std@@@2@PAU342@@Z
_TEXT	SEGMENT
__Pnode$ = 8						; size = 4
?_Prevnode@?$_List_val@MV?$allocator@M@std@@@std@@SAAAPAU_Node@?$_List_nod@MV?$allocator@M@std@@@2@PAU342@@Z PROC ; std::_List_val<float,std::allocator<float> >::_Prevnode, COMDAT

; 565  : 		{	// return reference to predecessor pointer in node

  00000	55		 push	 ebp
  00001	8b ec		 mov	 ebp, esp

; 566  : 		return ((_Nodepref)(*_Pnode)._Prev);

  00003	8b 45 08	 mov	 eax, DWORD PTR __Pnode$[ebp]
  00006	83 c0 04	 add	 eax, 4

; 567  : 		}

  00009	5d		 pop	 ebp
  0000a	c3		 ret	 0
?_Prevnode@?$_List_val@MV?$allocator@M@std@@@std@@SAAAPAU_Node@?$_List_nod@MV?$allocator@M@std@@@2@PAU342@@Z ENDP ; std::_List_val<float,std::allocator<float> >::_Prevnode
_TEXT	ENDS
PUBLIC	?_Myval@?$_List_val@MV?$allocator@M@std@@@std@@SAAAMPAU_Node@?$_List_nod@MV?$allocator@M@std@@@2@@Z ; std::_List_val<float,std::allocator<float> >::_Myval
; Function compile flags: /Ogsp
;	COMDAT ?_Myval@?$_List_val@MV?$allocator@M@std@@@std@@SAAAMPAU_Node@?$_List_nod@MV?$allocator@M@std@@@2@@Z
_TEXT	SEGMENT
__Pnode$ = 8						; size = 4
?_Myval@?$_List_val@MV?$allocator@M@std@@@std@@SAAAMPAU_Node@?$_List_nod@MV?$allocator@M@std@@@2@@Z PROC ; std::_List_val<float,std::allocator<float> >::_Myval, COMDAT

; 570  : 		{	// return reference to value in node

  00000	55		 push	 ebp
  00001	8b ec		 mov	 ebp, esp

; 571  : 		return ((reference)(*_Pnode)._Myval);

  00003	8b 45 08	 mov	 eax, DWORD PTR __Pnode$[ebp]
  00006	83 c0 08	 add	 eax, 8

; 572  : 		}

  00009	5d		 pop	 ebp
  0000a	c3		 ret	 0
?_Myval@?$_List_val@MV?$allocator@M@std@@@std@@SAAAMPAU_Node@?$_List_nod@MV?$allocator@M@std@@@2@@Z ENDP ; std::_List_val<float,std::allocator<float> >::_Myval
_TEXT	ENDS
PUBLIC	?deallocate@?$allocator@U_Node@?$_List_nod@MV?$allocator@M@std@@@std@@@std@@QAEXPAU_Node@?$_List_nod@MV?$allocator@M@std@@@2@I@Z ; std::allocator<std::_List_nod<float,std::allocator<float> >::_Node>::deallocate
; Function compile flags: /Ogsp
; File c:\program files (x86)\microsoft visual studio 10.0\vc\include\xmemory
;	COMDAT ?deallocate@?$allocator@U_Node@?$_List_nod@MV?$allocator@M@std@@@std@@@std@@QAEXPAU_Node@?$_List_nod@MV?$allocator@M@std@@@2@I@Z
_TEXT	SEGMENT
__Ptr$ = 8						; size = 4
___formal$ = 12						; size = 4
?deallocate@?$allocator@U_Node@?$_List_nod@MV?$allocator@M@std@@@std@@@std@@QAEXPAU_Node@?$_List_nod@MV?$allocator@M@std@@@2@I@Z PROC ; std::allocator<std::_List_nod<float,std::allocator<float> >::_Node>::deallocate, COMDAT
; _this$ = ecx

; 181  : 		{	// deallocate object at _Ptr, ignore size

  00000	55		 push	 ebp
  00001	8b ec		 mov	 ebp, esp

; 182  : 		::operator delete(_Ptr);

  00003	ff 75 08	 push	 DWORD PTR __Ptr$[ebp]
  00006	e8 00 00 00 00	 call	 ??3@YAXPAX@Z		; operator delete
  0000b	59		 pop	 ecx

; 183  : 		}

  0000c	5d		 pop	 ebp
  0000d	c2 08 00	 ret	 8
?deallocate@?$allocator@U_Node@?$_List_nod@MV?$allocator@M@std@@@std@@@std@@QAEXPAU_Node@?$_List_nod@MV?$allocator@M@std@@@2@I@Z ENDP ; std::allocator<std::_List_nod<float,std::allocator<float> >::_Node>::deallocate
_TEXT	ENDS
PUBLIC	??E?$_List_const_iterator@V?$_List_val@MV?$allocator@M@std@@@std@@@std@@QAEAAV01@XZ ; std::_List_const_iterator<std::_List_val<float,std::allocator<float> > >::operator++
; Function compile flags: /Ogsp
; File c:\program files (x86)\microsoft visual studio 10.0\vc\include\list
;	COMDAT ??E?$_List_const_iterator@V?$_List_val@MV?$allocator@M@std@@@std@@@std@@QAEAAV01@XZ
_TEXT	SEGMENT
??E?$_List_const_iterator@V?$_List_val@MV?$allocator@M@std@@@std@@@std@@QAEAAV01@XZ PROC ; std::_List_const_iterator<std::_List_val<float,std::allocator<float> > >::operator++, COMDAT
; _this$ = ecx

; 221  : 		{	// preincrement

  00000	8b c1		 mov	 eax, ecx

; 222  :  #if _ITERATOR_DEBUG_LEVEL == 2
; 223  : 		if (this->_Getcont() == 0
; 224  : 			|| this->_Ptr == 0
; 225  : 			|| this->_Ptr == ((_Mylist *)this->_Getcont())->_Myhead)
; 226  : 			{	// report error
; 227  : 			_DEBUG_ERROR("list iterator not incrementable");
; 228  : 			_SCL_SECURE_OUT_OF_RANGE;
; 229  : 			}
; 230  : 
; 231  :  #elif _ITERATOR_DEBUG_LEVEL == 1
; 232  : 		_SCL_SECURE_VALIDATE(this->_Getcont() != 0 && this->_Ptr != 0);
; 233  : 		_SCL_SECURE_VALIDATE_RANGE(this->_Ptr !=
; 234  : 			((_Mylist *)this->_Getcont())->_Myhead);
; 235  :  #endif /* _ITERATOR_DEBUG_LEVEL */
; 236  : 
; 237  : 		this->_Ptr = _Mylist::_Nextnode(this->_Ptr);

  00002	8b 08		 mov	 ecx, DWORD PTR [eax]
  00004	8b 09		 mov	 ecx, DWORD PTR [ecx]
  00006	89 08		 mov	 DWORD PTR [eax], ecx

; 238  : 		return (*this);
; 239  : 		}

  00008	c3		 ret	 0
??E?$_List_const_iterator@V?$_List_val@MV?$allocator@M@std@@@std@@@std@@QAEAAV01@XZ ENDP ; std::_List_const_iterator<std::_List_val<float,std::allocator<float> > >::operator++
_TEXT	ENDS
PUBLIC	??0?$_List_unchecked_const_iterator@V?$_List_val@MV?$allocator@M@std@@@std@@U_Iterator_base0@2@@std@@QAE@PAU_Node@?$_List_nod@MV?$allocator@M@std@@@1@PBV?$_List_val@MV?$allocator@M@std@@@1@@Z ; std::_List_unchecked_const_iterator<std::_List_val<float,std::allocator<float> >,std::_Iterator_base0>::_List_unchecked_const_iterator<std::_List_val<float,std::allocator<float> >,std::_Iterator_base0>
; Function compile flags: /Ogsp
;	COMDAT ??0?$_List_unchecked_const_iterator@V?$_List_val@MV?$allocator@M@std@@@std@@U_Iterator_base0@2@@std@@QAE@PAU_Node@?$_List_nod@MV?$allocator@M@std@@@1@PBV?$_List_val@MV?$allocator@M@std@@@1@@Z
_TEXT	SEGMENT
__Pnode$ = 8						; size = 4
__Plist$ = 12						; size = 4
??0?$_List_unchecked_const_iterator@V?$_List_val@MV?$allocator@M@std@@@std@@U_Iterator_base0@2@@std@@QAE@PAU_Node@?$_List_nod@MV?$allocator@M@std@@@1@PBV?$_List_val@MV?$allocator@M@std@@@1@@Z PROC ; std::_List_unchecked_const_iterator<std::_List_val<float,std::allocator<float> >,std::_Iterator_base0>::_List_unchecked_const_iterator<std::_List_val<float,std::allocator<float> >,std::_Iterator_base0>, COMDAT
; _this$ = ecx

; 41   : 		{	// construct with node pointer _Pnode

  00000	55		 push	 ebp
  00001	8b ec		 mov	 ebp, esp
  00003	8b c1		 mov	 eax, ecx
  00005	8b 4d 08	 mov	 ecx, DWORD PTR __Pnode$[ebp]
  00008	89 08		 mov	 DWORD PTR [eax], ecx

; 42   : 		this->_Adopt(_Plist);
; 43   : 		}

  0000a	5d		 pop	 ebp
  0000b	c2 08 00	 ret	 8
??0?$_List_unchecked_const_iterator@V?$_List_val@MV?$allocator@M@std@@@std@@U_Iterator_base0@2@@std@@QAE@PAU_Node@?$_List_nod@MV?$allocator@M@std@@@1@PBV?$_List_val@MV?$allocator@M@std@@@1@@Z ENDP ; std::_List_unchecked_const_iterator<std::_List_val<float,std::allocator<float> >,std::_Iterator_base0>::_List_unchecked_const_iterator<std::_List_val<float,std::allocator<float> >,std::_Iterator_base0>
_TEXT	ENDS
PUBLIC	??$?0M@?$allocator@U_Node@?$_List_nod@MV?$allocator@M@std@@@std@@@std@@QAE@ABV?$allocator@M@1@@Z ; std::allocator<std::_List_nod<float,std::allocator<float> >::_Node>::allocator<std::_List_nod<float,std::allocator<float> >::_Node><float>
; Function compile flags: /Ogsp
; File c:\program files (x86)\microsoft visual studio 10.0\vc\include\xmemory
;	COMDAT ??$?0M@?$allocator@U_Node@?$_List_nod@MV?$allocator@M@std@@@std@@@std@@QAE@ABV?$allocator@M@1@@Z
_TEXT	SEGMENT
___formal$ = 8						; size = 4
??$?0M@?$allocator@U_Node@?$_List_nod@MV?$allocator@M@std@@@std@@@std@@QAE@ABV?$allocator@M@1@@Z PROC ; std::allocator<std::_List_nod<float,std::allocator<float> >::_Node>::allocator<std::_List_nod<float,std::allocator<float> >::_Node><float>, COMDAT
; _this$ = ecx

; 170  : 		_ALLOCATOR(const _ALLOCATOR<_Other>&) _THROW0()

  00000	8b c1		 mov	 eax, ecx

; 171  : 		{	// construct from a related allocator (do nothing)
; 172  : 		}

  00002	c2 04 00	 ret	 4
??$?0M@?$allocator@U_Node@?$_List_nod@MV?$allocator@M@std@@@std@@@std@@QAE@ABV?$allocator@M@1@@Z ENDP ; std::allocator<std::_List_nod<float,std::allocator<float> >::_Node>::allocator<std::_List_nod<float,std::allocator<float> >::_Node><float>
_TEXT	ENDS
PUBLIC	__TI2?AVbad_alloc@std@@
PUBLIC	??$_Allocate@U_Node@?$_List_nod@MV?$allocator@M@std@@@std@@@std@@YAPAU_Node@?$_List_nod@MV?$allocator@M@std@@@0@IPAU120@@Z ; std::_Allocate<std::_List_nod<float,std::allocator<float> >::_Node>
PUBLIC	__CTA2?AVbad_alloc@std@@
PUBLIC	__CT??_R0?AVbad_alloc@std@@@8??0bad_alloc@std@@QAE@ABV01@@Z12
PUBLIC	??0bad_alloc@std@@QAE@ABV01@@Z			; std::bad_alloc::bad_alloc
PUBLIC	__CT??_R0?AVexception@std@@@8??0exception@std@@QAE@ABV01@@Z12
EXTRN	??2@YAPAXI@Z:PROC				; operator new
EXTRN	__CxxThrowException@8:PROC
EXTRN	??0exception@std@@QAE@ABV01@@Z:PROC		; std::exception::exception
;	COMDAT __CT??_R0?AVexception@std@@@8??0exception@std@@QAE@ABV01@@Z12
; File c:\program files (x86)\microsoft visual studio 10.0\vc\include\exception
xdata$x	SEGMENT
__CT??_R0?AVexception@std@@@8??0exception@std@@QAE@ABV01@@Z12 DD 00H
	DD	FLAT:??_R0?AVexception@std@@@8
	DD	00H
	DD	0ffffffffH
	ORG $+4
	DD	0cH
	DD	FLAT:??0exception@std@@QAE@ABV01@@Z
xdata$x	ENDS
;	COMDAT __CT??_R0?AVbad_alloc@std@@@8??0bad_alloc@std@@QAE@ABV01@@Z12
xdata$x	SEGMENT
__CT??_R0?AVbad_alloc@std@@@8??0bad_alloc@std@@QAE@ABV01@@Z12 DD 00H
	DD	FLAT:??_R0?AVbad_alloc@std@@@8
	DD	00H
	DD	0ffffffffH
	ORG $+4
	DD	0cH
	DD	FLAT:??0bad_alloc@std@@QAE@ABV01@@Z
xdata$x	ENDS
;	COMDAT __CTA2?AVbad_alloc@std@@
xdata$x	SEGMENT
__CTA2?AVbad_alloc@std@@ DD 02H
	DD	FLAT:__CT??_R0?AVbad_alloc@std@@@8??0bad_alloc@std@@QAE@ABV01@@Z12
	DD	FLAT:__CT??_R0?AVexception@std@@@8??0exception@std@@QAE@ABV01@@Z12
xdata$x	ENDS
;	COMDAT __TI2?AVbad_alloc@std@@
xdata$x	SEGMENT
__TI2?AVbad_alloc@std@@ DD 00H
	DD	FLAT:??1bad_alloc@std@@UAE@XZ
	DD	00H
	DD	FLAT:__CTA2?AVbad_alloc@std@@
; Function compile flags: /Ogsp
; File c:\program files (x86)\microsoft visual studio 10.0\vc\include\xmemory
xdata$x	ENDS
;	COMDAT ??$_Allocate@U_Node@?$_List_nod@MV?$allocator@M@std@@@std@@@std@@YAPAU_Node@?$_List_nod@MV?$allocator@M@std@@@0@IPAU120@@Z
_TEXT	SEGMENT
$T624455 = -12						; size = 12
$T624460 = 8						; size = 4
__Count$ = 8						; size = 4
___formal$ = 12						; size = 4
??$_Allocate@U_Node@?$_List_nod@MV?$allocator@M@std@@@std@@@std@@YAPAU_Node@?$_List_nod@MV?$allocator@M@std@@@0@IPAU120@@Z PROC ; std::_Allocate<std::_List_nod<float,std::allocator<float> >::_Node>, COMDAT

; 30   : 	{	// allocate storage for _Count elements of type _Ty

  00000	55		 push	 ebp
  00001	8b ec		 mov	 ebp, esp

; 31   : 	void *_Ptr = 0;
; 32   : 
; 33   : 	if (_Count <= 0)

  00003	8b 4d 08	 mov	 ecx, DWORD PTR __Count$[ebp]
  00006	83 ec 0c	 sub	 esp, 12			; 0000000cH
  00009	33 c0		 xor	 eax, eax
  0000b	85 c9		 test	 ecx, ecx

; 34   : 		_Count = 0;
; 35   : 	else if (((_SIZT)(-1) / sizeof (_Ty) < _Count)

  0000d	74 3c		 je	 SHORT $LN5@Allocate

; 36   : 		|| (_Ptr = ::operator new(_Count * sizeof (_Ty))) == 0)

  0000f	81 f9 55 55 55
	15		 cmp	 ecx, 357913941		; 15555555H
  00015	77 0e		 ja	 SHORT $LN1@Allocate
  00017	6b c9 0c	 imul	 ecx, 12			; 0000000cH
  0001a	51		 push	 ecx
  0001b	e8 00 00 00 00	 call	 ??2@YAPAXI@Z		; operator new
  00020	59		 pop	 ecx
  00021	85 c0		 test	 eax, eax

; 38   : 
; 39   : 	return ((_Ty _FARQ *)_Ptr);

  00023	75 26		 jne	 SHORT $LN5@Allocate
$LN1@Allocate:

; 37   : 		_THROW_NCEE(bad_alloc, 0);

  00025	83 65 08 00	 and	 DWORD PTR $T624460[ebp], 0
  00029	8d 45 08	 lea	 eax, DWORD PTR $T624460[ebp]
  0002c	50		 push	 eax
  0002d	8d 4d f4	 lea	 ecx, DWORD PTR $T624455[ebp]
  00030	ff 15 00 00 00
	00		 call	 DWORD PTR __imp_??0exception@std@@QAE@ABQBD@Z
  00036	68 00 00 00 00	 push	 OFFSET __TI2?AVbad_alloc@std@@
  0003b	8d 45 f4	 lea	 eax, DWORD PTR $T624455[ebp]
  0003e	50		 push	 eax
  0003f	c7 45 f4 00 00
	00 00		 mov	 DWORD PTR $T624455[ebp], OFFSET ??_7bad_alloc@std@@6B@
  00046	e8 00 00 00 00	 call	 __CxxThrowException@8
$LN10@Allocate:
$LN5@Allocate:

; 40   : 	}

  0004b	c9		 leave
  0004c	c3		 ret	 0
$LN9@Allocate:
??$_Allocate@U_Node@?$_List_nod@MV?$allocator@M@std@@@std@@@std@@YAPAU_Node@?$_List_nod@MV?$allocator@M@std@@@0@IPAU120@@Z ENDP ; std::_Allocate<std::_List_nod<float,std::allocator<float> >::_Node>
_TEXT	ENDS
PUBLIC	??$_Destroy@U_Node@?$_List_nod@MV?$allocator@M@std@@@std@@@std@@YAXPAU_Node@?$_List_nod@MV?$allocator@M@std@@@0@@Z ; std::_Destroy<std::_List_nod<float,std::allocator<float> >::_Node>
; Function compile flags: /Ogsp
;	COMDAT ??$_Destroy@U_Node@?$_List_nod@MV?$allocator@M@std@@@std@@@std@@YAXPAU_Node@?$_List_nod@MV?$allocator@M@std@@@0@@Z
_TEXT	SEGMENT
__Ptr$ = 8						; size = 4
??$_Destroy@U_Node@?$_List_nod@MV?$allocator@M@std@@@std@@@std@@YAXPAU_Node@?$_List_nod@MV?$allocator@M@std@@@0@@Z PROC ; std::_Destroy<std::_List_nod<float,std::allocator<float> >::_Node>, COMDAT

; 63   : 	_Ptr->~_Ty();
; 64   : 	}

  00000	c3		 ret	 0
??$_Destroy@U_Node@?$_List_nod@MV?$allocator@M@std@@@std@@@std@@YAXPAU_Node@?$_List_nod@MV?$allocator@M@std@@@0@@Z ENDP ; std::_Destroy<std::_List_nod<float,std::allocator<float> >::_Node>
_TEXT	ENDS
PUBLIC	??$_Ptr_cat@V?$_Vector_const_iterator@V?$_Vector_val@KV?$allocator@K@std@@@std@@@std@@PAK@std@@YA?AU_Nonscalar_ptr_iterator_tag@0@AAV?$_Vector_const_iterator@V?$_Vector_val@KV?$allocator@K@std@@@std@@@0@AAPAK@Z ; std::_Ptr_cat<std::_Vector_const_iterator<std::_Vector_val<unsigned long,std::allocator<unsigned long> > >,unsigned long *>
; Function compile flags: /Ogsp
; File c:\program files (x86)\microsoft visual studio 10.0\vc\include\xutility
;	COMDAT ??$_Ptr_cat@V?$_Vector_const_iterator@V?$_Vector_val@KV?$allocator@K@std@@@std@@@std@@PAK@std@@YA?AU_Nonscalar_ptr_iterator_tag@0@AAV?$_Vector_const_iterator@V?$_Vector_val@KV?$allocator@K@std@@@std@@@0@AAPAK@Z
_TEXT	SEGMENT
__Cat$ = -1						; size = 1
___formal$ = 8						; size = 4
___formal$ = 12						; size = 4
??$_Ptr_cat@V?$_Vector_const_iterator@V?$_Vector_val@KV?$allocator@K@std@@@std@@@std@@PAK@std@@YA?AU_Nonscalar_ptr_iterator_tag@0@AAV?$_Vector_const_iterator@V?$_Vector_val@KV?$allocator@K@std@@@std@@@0@AAPAK@Z PROC ; std::_Ptr_cat<std::_Vector_const_iterator<std::_Vector_val<unsigned long,std::allocator<unsigned long> > >,unsigned long *>, COMDAT

; 485  : 	{	// return pointer category from arbitrary arguments

  00000	55		 push	 ebp
  00001	8b ec		 mov	 ebp, esp
  00003	51		 push	 ecx

; 486  : 	_Nonscalar_ptr_iterator_tag _Cat;
; 487  : 	return (_Cat);

  00004	8a 45 ff	 mov	 al, BYTE PTR __Cat$[ebp]

; 488  : 	}

  00007	c9		 leave
  00008	c3		 ret	 0
??$_Ptr_cat@V?$_Vector_const_iterator@V?$_Vector_val@KV?$allocator@K@std@@@std@@@std@@PAK@std@@YA?AU_Nonscalar_ptr_iterator_tag@0@AAV?$_Vector_const_iterator@V?$_Vector_val@KV?$allocator@K@std@@@std@@@0@AAPAK@Z ENDP ; std::_Ptr_cat<std::_Vector_const_iterator<std::_Vector_val<unsigned long,std::allocator<unsigned long> > >,unsigned long *>
_TEXT	ENDS
PUBLIC	??D?$_Vector_const_iterator@V?$_Vector_val@KV?$allocator@K@std@@@std@@@std@@QBEABKXZ ; std::_Vector_const_iterator<std::_Vector_val<unsigned long,std::allocator<unsigned long> > >::operator*
; Function compile flags: /Ogsp
; File c:\program files (x86)\microsoft visual studio 10.0\vc\include\vector
;	COMDAT ??D?$_Vector_const_iterator@V?$_Vector_val@KV?$allocator@K@std@@@std@@@std@@QBEABKXZ
_TEXT	SEGMENT
??D?$_Vector_const_iterator@V?$_Vector_val@KV?$allocator@K@std@@@std@@@std@@QBEABKXZ PROC ; std::_Vector_const_iterator<std::_Vector_val<unsigned long,std::allocator<unsigned long> > >::operator*, COMDAT
; _this$ = ecx

; 64   :  #if _ITERATOR_DEBUG_LEVEL == 2
; 65   : 		if (this->_Getcont() == 0
; 66   : 			|| this->_Ptr == 0
; 67   : 			|| this->_Ptr < ((_Myvec *)this->_Getcont())->_Myfirst
; 68   : 			|| ((_Myvec *)this->_Getcont())->_Mylast <= this->_Ptr)
; 69   : 			{	// report error
; 70   : 			_DEBUG_ERROR("vector iterator not dereferencable");
; 71   : 			_SCL_SECURE_OUT_OF_RANGE;
; 72   : 			}
; 73   : 
; 74   :  #elif _ITERATOR_DEBUG_LEVEL == 1
; 75   : 		_SCL_SECURE_VALIDATE(this->_Getcont() != 0);
; 76   : 		_SCL_SECURE_VALIDATE_RANGE(
; 77   : 			this->_Ptr != 0
; 78   : 			&& ((_Myvec *)this->_Getcont())->_Myfirst <= this->_Ptr
; 79   : 			&& this->_Ptr < ((_Myvec *)this->_Getcont())->_Mylast);
; 80   :  #endif /* _ITERATOR_DEBUG_LEVEL */
; 81   : 
; 82   : 		__analysis_assume(this->_Ptr != 0);
; 83   : 
; 84   : 		return (*this->_Ptr);

  00000	8b 01		 mov	 eax, DWORD PTR [ecx]

; 85   : 		}

  00002	c3		 ret	 0
??D?$_Vector_const_iterator@V?$_Vector_val@KV?$allocator@K@std@@@std@@@std@@QBEABKXZ ENDP ; std::_Vector_const_iterator<std::_Vector_val<unsigned long,std::allocator<unsigned long> > >::operator*
_TEXT	ENDS
PUBLIC	??E?$_Vector_const_iterator@V?$_Vector_val@KV?$allocator@K@std@@@std@@@std@@QAEAAV01@XZ ; std::_Vector_const_iterator<std::_Vector_val<unsigned long,std::allocator<unsigned long> > >::operator++
; Function compile flags: /Ogsp
;	COMDAT ??E?$_Vector_const_iterator@V?$_Vector_val@KV?$allocator@K@std@@@std@@@std@@QAEAAV01@XZ
_TEXT	SEGMENT
??E?$_Vector_const_iterator@V?$_Vector_val@KV?$allocator@K@std@@@std@@@std@@QAEAAV01@XZ PROC ; std::_Vector_const_iterator<std::_Vector_val<unsigned long,std::allocator<unsigned long> > >::operator++, COMDAT
; _this$ = ecx

; 93   : 		{	// preincrement

  00000	8b c1		 mov	 eax, ecx

; 94   :  #if _ITERATOR_DEBUG_LEVEL == 2
; 95   : 		if (this->_Getcont() == 0
; 96   : 			|| this->_Ptr == 0
; 97   : 			|| ((_Myvec *)this->_Getcont())->_Mylast <= this->_Ptr)
; 98   : 			{	// report error
; 99   : 			_DEBUG_ERROR("vector iterator not incrementable");
; 100  : 			_SCL_SECURE_OUT_OF_RANGE;
; 101  : 			}
; 102  : 
; 103  :  #elif _ITERATOR_DEBUG_LEVEL == 1
; 104  : 		_SCL_SECURE_VALIDATE(this->_Getcont() != 0);
; 105  : 		_SCL_SECURE_VALIDATE_RANGE(
; 106  : 			this->_Ptr != 0
; 107  : 			&& this->_Ptr < ((_Myvec *)this->_Getcont())->_Mylast);
; 108  :  #endif /* _ITERATOR_DEBUG_LEVEL */
; 109  : 
; 110  : 		++this->_Ptr;

  00002	83 00 04	 add	 DWORD PTR [eax], 4

; 111  : 		return (*this);
; 112  : 		}

  00005	c3		 ret	 0
??E?$_Vector_const_iterator@V?$_Vector_val@KV?$allocator@K@std@@@std@@@std@@QAEAAV01@XZ ENDP ; std::_Vector_const_iterator<std::_Vector_val<unsigned long,std::allocator<unsigned long> > >::operator++
_TEXT	ENDS
PUBLIC	??$_Destroy@K@std@@YAXPAK@Z			; std::_Destroy<unsigned long>
; Function compile flags: /Ogsp
; File c:\program files (x86)\microsoft visual studio 10.0\vc\include\xmemory
;	COMDAT ??$_Destroy@K@std@@YAXPAK@Z
_TEXT	SEGMENT
__Ptr$ = 8						; size = 4
??$_Destroy@K@std@@YAXPAK@Z PROC			; std::_Destroy<unsigned long>, COMDAT

; 63   : 	_Ptr->~_Ty();
; 64   : 	}

  00000	c3		 ret	 0
??$_Destroy@K@std@@YAXPAK@Z ENDP			; std::_Destroy<unsigned long>
_TEXT	ENDS
PUBLIC	?_DECSTR@@YAXPADH@Z				; _DECSTR
; Function compile flags: /Ogsp
; File d:\lost saga for developer\youtube\tutorial\source\src\lsclient\stringprotect.h
;	COMDAT ?_DECSTR@@YAXPADH@Z
_TEXT	SEGMENT
_s$ = 8							; size = 4
_l$ = 12						; size = 4
?_DECSTR@@YAXPADH@Z PROC				; _DECSTR, COMDAT

; 40   : __forceinline void _DECSTR(char* s, int l){int i=0,l4=(l-1)/4,*p=(int*)s;s[l-1]=0;for(;i<l4;++i)*(p++)^=0xEAEBECED;for(i=l4*4;i<l-1;++i)s[i]^=0xED-i%4;}

  00000	55		 push	 ebp
  00001	8b ec		 mov	 ebp, esp
  00003	8b 4d 0c	 mov	 ecx, DWORD PTR _l$[ebp]
  00006	56		 push	 esi
  00007	8b 75 08	 mov	 esi, DWORD PTR _s$[ebp]
  0000a	57		 push	 edi
  0000b	8d 79 ff	 lea	 edi, DWORD PTR [ecx-1]
  0000e	8b c7		 mov	 eax, edi
  00010	99		 cdq
  00011	83 e2 03	 and	 edx, 3
  00014	03 c2		 add	 eax, edx
  00016	c1 f8 02	 sar	 eax, 2
  00019	8b d6		 mov	 edx, esi
  0001b	c6 44 0e ff 00	 mov	 BYTE PTR [esi+ecx-1], 0
  00020	85 c0		 test	 eax, eax
  00022	7e 0e		 jle	 SHORT $LN4@DECSTR
  00024	8b c8		 mov	 ecx, eax
$LL6@DECSTR:
  00026	81 32 ed ec eb
	ea		 xor	 DWORD PTR [edx], -353637139 ; eaebecedH
  0002c	83 c2 04	 add	 edx, 4
  0002f	49		 dec	 ecx
  00030	75 f4		 jne	 SHORT $LL6@DECSTR
$LN4@DECSTR:
  00032	c1 e0 02	 shl	 eax, 2
  00035	eb 17		 jmp	 SHORT $LN14@DECSTR
$LL3@DECSTR:
  00037	8b c8		 mov	 ecx, eax
  00039	81 e1 03 00 00
	80		 and	 ecx, -2147483645	; 80000003H
  0003f	79 05		 jns	 SHORT $LN13@DECSTR
  00041	49		 dec	 ecx
  00042	83 c9 fc	 or	 ecx, -4			; fffffffcH
  00045	41		 inc	 ecx
$LN13@DECSTR:
  00046	b2 ed		 mov	 dl, -19			; ffffffedH
  00048	2a d1		 sub	 dl, cl
  0004a	30 14 30	 xor	 BYTE PTR [eax+esi], dl
  0004d	40		 inc	 eax
$LN14@DECSTR:
  0004e	3b c7		 cmp	 eax, edi
  00050	7c e5		 jl	 SHORT $LL3@DECSTR
  00052	5f		 pop	 edi
  00053	5e		 pop	 esi
  00054	5d		 pop	 ebp
  00055	c3		 ret	 0
?_DECSTR@@YAXPADH@Z ENDP				; _DECSTR
_TEXT	ENDS
PUBLIC	?GetGroup@ioGameEntity@@QBEPAVioEntityGroup@@XZ	; ioGameEntity::GetGroup
; Function compile flags: /Ogsp
; File d:\lost saga for developer\youtube\tutorial\source\src\lsclient\iogameentity.h
;	COMDAT ?GetGroup@ioGameEntity@@QBEPAVioEntityGroup@@XZ
_TEXT	SEGMENT
?GetGroup@ioGameEntity@@QBEPAVioEntityGroup@@XZ PROC	; ioGameEntity::GetGroup, COMDAT
; _this$ = ecx

; 166  : 	inline ioEntityGroup* GetGroup() const { return m_pGroup; }

  00000	8b 41 04	 mov	 eax, DWORD PTR [ecx+4]
  00003	c3		 ret	 0
?GetGroup@ioGameEntity@@QBEPAVioEntityGroup@@XZ ENDP	; ioGameEntity::GetGroup
_TEXT	ENDS
PUBLIC	?GetTypeID@ioBuff@@QBEHXZ			; ioBuff::GetTypeID
; Function compile flags: /Ogsp
; File d:\lost saga for developer\youtube\tutorial\source\src\lsclient\iobuff.h
;	COMDAT ?GetTypeID@ioBuff@@QBEHXZ
_TEXT	SEGMENT
?GetTypeID@ioBuff@@QBEHXZ PROC				; ioBuff::GetTypeID, COMDAT
; _this$ = ecx

; 424  : 	inline int GetTypeID() const { return m_iBuffType; }

  00000	8b 81 cc 03 00
	00		 mov	 eax, DWORD PTR [ecx+972]
  00006	c3		 ret	 0
?GetTypeID@ioBuff@@QBEHXZ ENDP				; ioBuff::GetTypeID
_TEXT	ENDS
PUBLIC	??_7?$CEncrypt@K@@6B@				; CEncrypt<unsigned long>::`vftable'
PUBLIC	??1?$CEncrypt@K@@UAE@XZ				; CEncrypt<unsigned long>::~CEncrypt<unsigned long>
PUBLIC	??_R4?$CEncrypt@K@@6B@				; CEncrypt<unsigned long>::`RTTI Complete Object Locator'
PUBLIC	??_R0?AV?$CEncrypt@K@@@8			; CEncrypt<unsigned long> `RTTI Type Descriptor'
PUBLIC	??_R3?$CEncrypt@K@@8				; CEncrypt<unsigned long>::`RTTI Class Hierarchy Descriptor'
PUBLIC	??_R2?$CEncrypt@K@@8				; CEncrypt<unsigned long>::`RTTI Base Class Array'
PUBLIC	??_R1A@?0A@EA@?$CEncrypt@K@@8			; CEncrypt<unsigned long>::`RTTI Base Class Descriptor at (0,-1,0,64)'
EXTRN	??1ccddaabb@@UAE@XZ:PROC			; ccddaabb::~ccddaabb
EXTRN	??_E?$CEncrypt@K@@UAEPAXI@Z:PROC		; CEncrypt<unsigned long>::`vector deleting destructor'
;	COMDAT ??_R1A@?0A@EA@?$CEncrypt@K@@8
; File d:\lost saga for developer\youtube\tutorial\source\src\lsclient\encryptvalue.h
rdata$r	SEGMENT
??_R1A@?0A@EA@?$CEncrypt@K@@8 DD FLAT:??_R0?AV?$CEncrypt@K@@@8 ; CEncrypt<unsigned long>::`RTTI Base Class Descriptor at (0,-1,0,64)'
	DD	00H
	DD	00H
	DD	0ffffffffH
	DD	00H
	DD	040H
	DD	FLAT:??_R3?$CEncrypt@K@@8
rdata$r	ENDS
;	COMDAT ??_R2?$CEncrypt@K@@8
rdata$r	SEGMENT
??_R2?$CEncrypt@K@@8 DD FLAT:??_R1A@?0A@EA@?$CEncrypt@K@@8 ; CEncrypt<unsigned long>::`RTTI Base Class Array'
rdata$r	ENDS
;	COMDAT ??_R3?$CEncrypt@K@@8
rdata$r	SEGMENT
??_R3?$CEncrypt@K@@8 DD 00H				; CEncrypt<unsigned long>::`RTTI Class Hierarchy Descriptor'
	DD	00H
	DD	01H
	DD	FLAT:??_R2?$CEncrypt@K@@8
rdata$r	ENDS
;	COMDAT ??_R0?AV?$CEncrypt@K@@@8
_DATA	SEGMENT
??_R0?AV?$CEncrypt@K@@@8 DD FLAT:??_7type_info@@6B@	; CEncrypt<unsigned long> `RTTI Type Descriptor'
	DD	00H
	DB	'.?AV?$CEncrypt@K@@', 00H
_DATA	ENDS
;	COMDAT ??_R4?$CEncrypt@K@@6B@
rdata$r	SEGMENT
??_R4?$CEncrypt@K@@6B@ DD 00H				; CEncrypt<unsigned long>::`RTTI Complete Object Locator'
	DD	00H
	DD	00H
	DD	FLAT:??_R0?AV?$CEncrypt@K@@@8
	DD	FLAT:??_R3?$CEncrypt@K@@8
rdata$r	ENDS
;	COMDAT ??_7?$CEncrypt@K@@6B@
CONST	SEGMENT
??_7?$CEncrypt@K@@6B@ DD FLAT:??_R4?$CEncrypt@K@@6B@	; CEncrypt<unsigned long>::`vftable'
	DD	FLAT:??_E?$CEncrypt@K@@UAEPAXI@Z
; Function compile flags: /Ogsp
CONST	ENDS
;	COMDAT ??1?$CEncrypt@K@@UAE@XZ
_TEXT	SEGMENT
??1?$CEncrypt@K@@UAE@XZ PROC				; CEncrypt<unsigned long>::~CEncrypt<unsigned long>, COMDAT
; _this$ = ecx

; 127  : 	{

  00000	c7 01 00 00 00
	00		 mov	 DWORD PTR [ecx], OFFSET ??_7?$CEncrypt@K@@6B@

; 128  : 	}

  00006	83 c1 0c	 add	 ecx, 12			; 0000000cH
  00009	e9 00 00 00 00	 jmp	 ??1ccddaabb@@UAE@XZ	; ccddaabb::~ccddaabb
??1?$CEncrypt@K@@UAE@XZ ENDP				; CEncrypt<unsigned long>::~CEncrypt<unsigned long>
_TEXT	ENDS
PUBLIC	??_7?$CEncrypt@_N@@6B@				; CEncrypt<bool>::`vftable'
PUBLIC	??1?$CEncrypt@_N@@UAE@XZ			; CEncrypt<bool>::~CEncrypt<bool>
PUBLIC	??_R4?$CEncrypt@_N@@6B@				; CEncrypt<bool>::`RTTI Complete Object Locator'
PUBLIC	??_R0?AV?$CEncrypt@_N@@@8			; CEncrypt<bool> `RTTI Type Descriptor'
PUBLIC	??_R3?$CEncrypt@_N@@8				; CEncrypt<bool>::`RTTI Class Hierarchy Descriptor'
PUBLIC	??_R2?$CEncrypt@_N@@8				; CEncrypt<bool>::`RTTI Base Class Array'
PUBLIC	??_R1A@?0A@EA@?$CEncrypt@_N@@8			; CEncrypt<bool>::`RTTI Base Class Descriptor at (0,-1,0,64)'
EXTRN	??_E?$CEncrypt@_N@@UAEPAXI@Z:PROC		; CEncrypt<bool>::`vector deleting destructor'
;	COMDAT ??_R1A@?0A@EA@?$CEncrypt@_N@@8
rdata$r	SEGMENT
??_R1A@?0A@EA@?$CEncrypt@_N@@8 DD FLAT:??_R0?AV?$CEncrypt@_N@@@8 ; CEncrypt<bool>::`RTTI Base Class Descriptor at (0,-1,0,64)'
	DD	00H
	DD	00H
	DD	0ffffffffH
	DD	00H
	DD	040H
	DD	FLAT:??_R3?$CEncrypt@_N@@8
rdata$r	ENDS
;	COMDAT ??_R2?$CEncrypt@_N@@8
rdata$r	SEGMENT
??_R2?$CEncrypt@_N@@8 DD FLAT:??_R1A@?0A@EA@?$CEncrypt@_N@@8 ; CEncrypt<bool>::`RTTI Base Class Array'
rdata$r	ENDS
;	COMDAT ??_R3?$CEncrypt@_N@@8
rdata$r	SEGMENT
??_R3?$CEncrypt@_N@@8 DD 00H				; CEncrypt<bool>::`RTTI Class Hierarchy Descriptor'
	DD	00H
	DD	01H
	DD	FLAT:??_R2?$CEncrypt@_N@@8
rdata$r	ENDS
;	COMDAT ??_R0?AV?$CEncrypt@_N@@@8
_DATA	SEGMENT
??_R0?AV?$CEncrypt@_N@@@8 DD FLAT:??_7type_info@@6B@	; CEncrypt<bool> `RTTI Type Descriptor'
	DD	00H
	DB	'.?AV?$CEncrypt@_N@@', 00H
_DATA	ENDS
;	COMDAT ??_R4?$CEncrypt@_N@@6B@
rdata$r	SEGMENT
??_R4?$CEncrypt@_N@@6B@ DD 00H				; CEncrypt<bool>::`RTTI Complete Object Locator'
	DD	00H
	DD	00H
	DD	FLAT:??_R0?AV?$CEncrypt@_N@@@8
	DD	FLAT:??_R3?$CEncrypt@_N@@8
rdata$r	ENDS
;	COMDAT ??_7?$CEncrypt@_N@@6B@
CONST	SEGMENT
??_7?$CEncrypt@_N@@6B@ DD FLAT:??_R4?$CEncrypt@_N@@6B@	; CEncrypt<bool>::`vftable'
	DD	FLAT:??_E?$CEncrypt@_N@@UAEPAXI@Z
; Function compile flags: /Ogsp
CONST	ENDS
;	COMDAT ??1?$CEncrypt@_N@@UAE@XZ
_TEXT	SEGMENT
??1?$CEncrypt@_N@@UAE@XZ PROC				; CEncrypt<bool>::~CEncrypt<bool>, COMDAT
; _this$ = ecx

; 127  : 	{

  00000	c7 01 00 00 00
	00		 mov	 DWORD PTR [ecx], OFFSET ??_7?$CEncrypt@_N@@6B@

; 128  : 	}

  00006	83 c1 0c	 add	 ecx, 12			; 0000000cH
  00009	e9 00 00 00 00	 jmp	 ??1ccddaabb@@UAE@XZ	; ccddaabb::~ccddaabb
??1?$CEncrypt@_N@@UAE@XZ ENDP				; CEncrypt<bool>::~CEncrypt<bool>
_TEXT	ENDS
PUBLIC	?size@?$vector@KV?$allocator@K@std@@@std@@QBEIXZ ; std::vector<unsigned long,std::allocator<unsigned long> >::size
; Function compile flags: /Ogsp
; File c:\program files (x86)\microsoft visual studio 10.0\vc\include\vector
;	COMDAT ?size@?$vector@KV?$allocator@K@std@@@std@@QBEIXZ
_TEXT	SEGMENT
?size@?$vector@KV?$allocator@K@std@@@std@@QBEIXZ PROC	; std::vector<unsigned long,std::allocator<unsigned long> >::size, COMDAT
; _this$ = ecx

; 879  : 		return (this->_Mylast - this->_Myfirst);

  00000	8b 41 04	 mov	 eax, DWORD PTR [ecx+4]
  00003	2b 01		 sub	 eax, DWORD PTR [ecx]
  00005	c1 f8 02	 sar	 eax, 2

; 880  : 		}

  00008	c3		 ret	 0
?size@?$vector@KV?$allocator@K@std@@@std@@QBEIXZ ENDP	; std::vector<unsigned long,std::allocator<unsigned long> >::size
_TEXT	ENDS
PUBLIC	??A?$vector@KV?$allocator@K@std@@@std@@QAEAAKI@Z ; std::vector<unsigned long,std::allocator<unsigned long> >::operator[]
; Function compile flags: /Ogsp
;	COMDAT ??A?$vector@KV?$allocator@K@std@@@std@@QAEAAKI@Z
_TEXT	SEGMENT
__Pos$ = 8						; size = 4
??A?$vector@KV?$allocator@K@std@@@std@@QAEAAKI@Z PROC	; std::vector<unsigned long,std::allocator<unsigned long> >::operator[], COMDAT
; _this$ = ecx

; 928  : 		{	// subscript mutable sequence

  00000	55		 push	 ebp
  00001	8b ec		 mov	 ebp, esp

; 929  :  #if _ITERATOR_DEBUG_LEVEL == 2
; 930  : 		if (size() <= _Pos)
; 931  : 			{	// report error
; 932  : 			_DEBUG_ERROR("vector subscript out of range");
; 933  : 			_SCL_SECURE_OUT_OF_RANGE;
; 934  : 			}
; 935  : 
; 936  :  #elif _ITERATOR_DEBUG_LEVEL == 1
; 937  : 		_SCL_SECURE_VALIDATE_RANGE(_Pos < size());
; 938  :  #endif /* _ITERATOR_DEBUG_LEVEL */
; 939  : 
; 940  : 		return (*(this->_Myfirst + _Pos));

  00003	8b 01		 mov	 eax, DWORD PTR [ecx]
  00005	8b 4d 08	 mov	 ecx, DWORD PTR __Pos$[ebp]
  00008	8d 04 88	 lea	 eax, DWORD PTR [eax+ecx*4]

; 941  : 		}

  0000b	5d		 pop	 ebp
  0000c	c2 04 00	 ret	 4
??A?$vector@KV?$allocator@K@std@@@std@@QAEAAKI@Z ENDP	; std::vector<unsigned long,std::allocator<unsigned long> >::operator[]
; Function compile flags: /Ogsp
_TEXT	ENDS
;	COMDAT ??_G?$CEncrypt@K@@UAEPAXI@Z
_TEXT	SEGMENT
___flags$ = 8						; size = 4
??_G?$CEncrypt@K@@UAEPAXI@Z PROC			; CEncrypt<unsigned long>::`scalar deleting destructor', COMDAT
; _this$ = ecx
  00000	55		 push	 ebp
  00001	8b ec		 mov	 ebp, esp
  00003	56		 push	 esi
  00004	8b f1		 mov	 esi, ecx
  00006	8d 4e 0c	 lea	 ecx, DWORD PTR [esi+12]
  00009	c7 06 00 00 00
	00		 mov	 DWORD PTR [esi], OFFSET ??_7?$CEncrypt@K@@6B@
  0000f	e8 00 00 00 00	 call	 ??1ccddaabb@@UAE@XZ	; ccddaabb::~ccddaabb
  00014	f6 45 08 01	 test	 BYTE PTR ___flags$[ebp], 1
  00018	74 07		 je	 SHORT $LN1@scalar@2
  0001a	56		 push	 esi
  0001b	e8 00 00 00 00	 call	 ??3@YAXPAX@Z		; operator delete
  00020	59		 pop	 ecx
$LN1@scalar@2:
  00021	8b c6		 mov	 eax, esi
  00023	5e		 pop	 esi
  00024	5d		 pop	 ebp
  00025	c2 04 00	 ret	 4
??_G?$CEncrypt@K@@UAEPAXI@Z ENDP			; CEncrypt<unsigned long>::`scalar deleting destructor'
; Function compile flags: /Ogsp
_TEXT	ENDS
;	COMDAT ??_G?$CEncrypt@_N@@UAEPAXI@Z
_TEXT	SEGMENT
___flags$ = 8						; size = 4
??_G?$CEncrypt@_N@@UAEPAXI@Z PROC			; CEncrypt<bool>::`scalar deleting destructor', COMDAT
; _this$ = ecx
  00000	55		 push	 ebp
  00001	8b ec		 mov	 ebp, esp
  00003	56		 push	 esi
  00004	8b f1		 mov	 esi, ecx
  00006	8d 4e 0c	 lea	 ecx, DWORD PTR [esi+12]
  00009	c7 06 00 00 00
	00		 mov	 DWORD PTR [esi], OFFSET ??_7?$CEncrypt@_N@@6B@
  0000f	e8 00 00 00 00	 call	 ??1ccddaabb@@UAE@XZ	; ccddaabb::~ccddaabb
  00014	f6 45 08 01	 test	 BYTE PTR ___flags$[ebp], 1
  00018	74 07		 je	 SHORT $LN1@scalar@3
  0001a	56		 push	 esi
  0001b	e8 00 00 00 00	 call	 ??3@YAXPAX@Z		; operator delete
  00020	59		 pop	 ecx
$LN1@scalar@3:
  00021	8b c6		 mov	 eax, esi
  00023	5e		 pop	 esi
  00024	5d		 pop	 ebp
  00025	c2 04 00	 ret	 4
??_G?$CEncrypt@_N@@UAEPAXI@Z ENDP			; CEncrypt<bool>::`scalar deleting destructor'
_TEXT	ENDS
PUBLIC	??0?$allocator@M@std@@QAE@XZ			; std::allocator<float>::allocator<float>
; Function compile flags: /Ogsp
; File c:\program files (x86)\microsoft visual studio 10.0\vc\include\xmemory
;	COMDAT ??0?$allocator@M@std@@QAE@XZ
_TEXT	SEGMENT
??0?$allocator@M@std@@QAE@XZ PROC			; std::allocator<float>::allocator<float>, COMDAT
; _this$ = ecx

; 161  : 	_ALLOCATOR() _THROW0()

  00000	8b c1		 mov	 eax, ecx

; 162  : 		{	// construct default allocator (do nothing)
; 163  : 		}

  00002	c3		 ret	 0
??0?$allocator@M@std@@QAE@XZ ENDP			; std::allocator<float>::allocator<float>
_TEXT	ENDS
PUBLIC	?EncryptValueToPool@?$CEncrypt@K@@AAEXPBD@Z	; CEncrypt<unsigned long>::EncryptValueToPool
EXTRN	?EncryptByte@ccddaabb@@QAEXPBDPADH@Z:PROC	; ccddaabb::EncryptByte
; Function compile flags: /Ogsp
; File d:\lost saga for developer\youtube\tutorial\source\src\lsclient\encryptvalue.h
;	COMDAT ?EncryptValueToPool@?$CEncrypt@K@@AAEXPBD@Z
_TEXT	SEGMENT
_value$ = 8						; size = 4
?EncryptValueToPool@?$CEncrypt@K@@AAEXPBD@Z PROC	; CEncrypt<unsigned long>::EncryptValueToPool, COMDAT
; _this$ = ecx

; 67   : 	{

  00000	55		 push	 ebp
  00001	8b ec		 mov	 ebp, esp

; 68   : 		m_RC5.EncryptByte( value, m_MemPool, max(m_ValueSize, DEFAULT_ENCRYPT) );

  00003	0f b7 41 06	 movzx	 eax, WORD PTR [ecx+6]
  00007	83 f8 04	 cmp	 eax, 4
  0000a	77 03		 ja	 SHORT $LN4@EncryptVal
  0000c	6a 04		 push	 4
  0000e	58		 pop	 eax
$LN4@EncryptVal:
  0000f	50		 push	 eax
  00010	8d 41 1c	 lea	 eax, DWORD PTR [ecx+28]
  00013	50		 push	 eax
  00014	ff 75 08	 push	 DWORD PTR _value$[ebp]
  00017	83 c1 0c	 add	 ecx, 12			; 0000000cH
  0001a	e8 00 00 00 00	 call	 ?EncryptByte@ccddaabb@@QAEXPBDPADH@Z ; ccddaabb::EncryptByte

; 69   : 		
; 70   : 	}

  0001f	5d		 pop	 ebp
  00020	c2 04 00	 ret	 4
?EncryptValueToPool@?$CEncrypt@K@@AAEXPBD@Z ENDP	; CEncrypt<unsigned long>::EncryptValueToPool
_TEXT	ENDS
PUBLIC	?Init@?$CEncrypt@K@@AAEXXZ			; CEncrypt<unsigned long>::Init
EXTRN	?Setup@ccddaabb@@QAEXPBDHH@Z:PROC		; ccddaabb::Setup
EXTRN	__imp__rand:PROC
EXTRN	__imp__timeGetTime@0:PROC
EXTRN	__imp__GetCurrentProcessId@0:PROC
; Function compile flags: /Ogsp
;	COMDAT ?Init@?$CEncrypt@K@@AAEXXZ
_TEXT	SEGMENT
_pid$ = -8						; size = 4
_tick$ = -4						; size = 4
?Init@?$CEncrypt@K@@AAEXXZ PROC				; CEncrypt<unsigned long>::Init, COMDAT
; _this$ = ecx

; 73   : 	{

  00000	55		 push	 ebp
  00001	8b ec		 mov	 ebp, esp
  00003	51		 push	 ecx
  00004	51		 push	 ecx
  00005	53		 push	 ebx
  00006	56		 push	 esi
  00007	57		 push	 edi
  00008	8b f1		 mov	 esi, ecx

; 74   : 		DWORD pid = GetCurrentProcessId();

  0000a	ff 15 00 00 00
	00		 call	 DWORD PTR __imp__GetCurrentProcessId@0
  00010	89 45 f8	 mov	 DWORD PTR _pid$[ebp], eax

; 75   : 		DWORD tick = timeGetTime();

  00013	ff 15 00 00 00
	00		 call	 DWORD PTR __imp__timeGetTime@0

; 76   : 		m_ValueSize    = sizeof(type);
; 77   : 		m_MemPoolPos   = (unsigned short)( rand()+pid+tick )%(MAX_MEM_POOL-m_ValueSize);

  00019	8b 3d 00 00 00
	00		 mov	 edi, DWORD PTR __imp__rand
  0001f	89 45 fc	 mov	 DWORD PTR _tick$[ebp], eax
  00022	6a 04		 push	 4
  00024	58		 pop	 eax
  00025	66 89 46 06	 mov	 WORD PTR [esi+6], ax
  00029	ff d7		 call	 edi
  0002b	03 45 f8	 add	 eax, DWORD PTR _pid$[ebp]
  0002e	0f b7 4e 06	 movzx	 ecx, WORD PTR [esi+6]
  00032	03 45 fc	 add	 eax, DWORD PTR _tick$[ebp]
  00035	6a 0c		 push	 12			; 0000000cH
  00037	0f b7 c0	 movzx	 eax, ax
  0003a	5b		 pop	 ebx
  0003b	99		 cdq
  0003c	2b d9		 sub	 ebx, ecx
  0003e	f7 fb		 idiv	 ebx
  00040	66 89 56 04	 mov	 WORD PTR [esi+4], dx

; 78   : 		m_EncryptSeed  = (char)( rand()+pid+tick )%256;

  00044	ff d7		 call	 edi
  00046	02 45 f8	 add	 al, BYTE PTR _pid$[ebp]
  00049	02 45 fc	 add	 al, BYTE PTR _tick$[ebp]
  0004c	0f be c0	 movsx	 eax, al
  0004f	25 ff 00 00 80	 and	 eax, -2147483393	; 800000ffH
  00054	79 07		 jns	 SHORT $LN8@Init
  00056	48		 dec	 eax
  00057	0d 00 ff ff ff	 or	 eax, -256		; ffffff00H
  0005c	40		 inc	 eax
$LN8@Init:
  0005d	88 46 08	 mov	 BYTE PTR [esi+8], al

; 79   : 
; 80   : 		for (int i = 0; i < MAX_MEM_POOL ; i++)

  00060	33 db		 xor	 ebx, ebx
$LL3@Init:

; 81   : 			m_MemPool[i] = (char)( rand()+pid+tick )%256; // 더미

  00062	ff d7		 call	 edi
  00064	02 45 f8	 add	 al, BYTE PTR _pid$[ebp]
  00067	02 45 fc	 add	 al, BYTE PTR _tick$[ebp]
  0006a	0f be c0	 movsx	 eax, al
  0006d	25 ff 00 00 80	 and	 eax, -2147483393	; 800000ffH
  00072	79 07		 jns	 SHORT $LN9@Init
  00074	48		 dec	 eax
  00075	0d 00 ff ff ff	 or	 eax, -256		; ffffff00H
  0007a	40		 inc	 eax
$LN9@Init:
  0007b	88 44 1e 1c	 mov	 BYTE PTR [esi+ebx+28], al
  0007f	43		 inc	 ebx
  00080	83 fb 0c	 cmp	 ebx, 12			; 0000000cH
  00083	7c dd		 jl	 SHORT $LL3@Init

; 82   : 
; 83   : 		//UJ 130913, 최적화: szKey 사용안하도록 간략화
; 84   : 		//char szKey[ccddaabb::KEY_SIZE];//="";
; 85   : 		//for (int i = 0; i < ccddaabb::KEY_SIZE  ; i++)
; 86   : 		//	szKey[i] = (char)( rand()+pid+tick )%256; // 더미
; 87   : 		m_RC5.Setup( NULL, pid, tick );

  00085	ff 75 fc	 push	 DWORD PTR _tick$[ebp]
  00088	8d 4e 0c	 lea	 ecx, DWORD PTR [esi+12]
  0008b	ff 75 f8	 push	 DWORD PTR _pid$[ebp]
  0008e	6a 00		 push	 0
  00090	e8 00 00 00 00	 call	 ?Setup@ccddaabb@@QAEXPBDHH@Z ; ccddaabb::Setup
  00095	5f		 pop	 edi
  00096	5e		 pop	 esi
  00097	5b		 pop	 ebx

; 88   : 
; 89   : #ifdef _NOTUSE
; 90   : 		m_value        = 0;
; 91   : 		EncryptValueToPool((char*)&m_value);
; 92   : 		Debug();
; 93   : #endif
; 94   : 	}

  00098	c9		 leave
  00099	c3		 ret	 0
?Init@?$CEncrypt@K@@AAEXXZ ENDP				; CEncrypt<unsigned long>::Init
_TEXT	ENDS
PUBLIC	?DecryptValueToPool@?$CEncrypt@K@@QAEXPAK@Z	; CEncrypt<unsigned long>::DecryptValueToPool
EXTRN	?DecryptByte@ccddaabb@@QBEXPBDPADH@Z:PROC	; ccddaabb::DecryptByte
; Function compile flags: /Ogsp
;	COMDAT ?DecryptValueToPool@?$CEncrypt@K@@QAEXPAK@Z
_TEXT	SEGMENT
_value$ = 8						; size = 4
?DecryptValueToPool@?$CEncrypt@K@@QAEXPAK@Z PROC	; CEncrypt<unsigned long>::DecryptValueToPool, COMDAT
; _this$ = ecx

; 1256 : 	{

  00000	55		 push	 ebp
  00001	8b ec		 mov	 ebp, esp
  00003	56		 push	 esi

; 1257 : 		m_RC5.DecryptByte( m_MemPool, m_TempMem, 4 );

  00004	8d 71 28	 lea	 esi, DWORD PTR [ecx+40]
  00007	6a 04		 push	 4
  00009	8d 41 1c	 lea	 eax, DWORD PTR [ecx+28]
  0000c	56		 push	 esi
  0000d	50		 push	 eax
  0000e	83 c1 0c	 add	 ecx, 12			; 0000000cH
  00011	e8 00 00 00 00	 call	 ?DecryptByte@ccddaabb@@QBEXPBDPADH@Z ; ccddaabb::DecryptByte

; 1258 : 		*value = *((DWORD*)m_TempMem);

  00016	8b 06		 mov	 eax, DWORD PTR [esi]
  00018	8b 4d 08	 mov	 ecx, DWORD PTR _value$[ebp]
  0001b	89 01		 mov	 DWORD PTR [ecx], eax
  0001d	5e		 pop	 esi

; 1259 : 	}

  0001e	5d		 pop	 ebp
  0001f	c2 04 00	 ret	 4
?DecryptValueToPool@?$CEncrypt@K@@QAEXPAK@Z ENDP	; CEncrypt<unsigned long>::DecryptValueToPool
_TEXT	ENDS
PUBLIC	?EncryptValueToPool@?$CEncrypt@_N@@AAEXPBD@Z	; CEncrypt<bool>::EncryptValueToPool
; Function compile flags: /Ogsp
;	COMDAT ?EncryptValueToPool@?$CEncrypt@_N@@AAEXPBD@Z
_TEXT	SEGMENT
_value$ = 8						; size = 4
?EncryptValueToPool@?$CEncrypt@_N@@AAEXPBD@Z PROC	; CEncrypt<bool>::EncryptValueToPool, COMDAT
; _this$ = ecx

; 67   : 	{

  00000	55		 push	 ebp
  00001	8b ec		 mov	 ebp, esp

; 68   : 		m_RC5.EncryptByte( value, m_MemPool, max(m_ValueSize, DEFAULT_ENCRYPT) );

  00003	0f b7 41 06	 movzx	 eax, WORD PTR [ecx+6]
  00007	83 f8 04	 cmp	 eax, 4
  0000a	77 03		 ja	 SHORT $LN4@EncryptVal@2
  0000c	6a 04		 push	 4
  0000e	58		 pop	 eax
$LN4@EncryptVal@2:
  0000f	50		 push	 eax
  00010	8d 41 1c	 lea	 eax, DWORD PTR [ecx+28]
  00013	50		 push	 eax
  00014	ff 75 08	 push	 DWORD PTR _value$[ebp]
  00017	83 c1 0c	 add	 ecx, 12			; 0000000cH
  0001a	e8 00 00 00 00	 call	 ?EncryptByte@ccddaabb@@QAEXPBDPADH@Z ; ccddaabb::EncryptByte

; 69   : 		
; 70   : 	}

  0001f	5d		 pop	 ebp
  00020	c2 04 00	 ret	 4
?EncryptValueToPool@?$CEncrypt@_N@@AAEXPBD@Z ENDP	; CEncrypt<bool>::EncryptValueToPool
_TEXT	ENDS
PUBLIC	?Init@?$CEncrypt@_N@@AAEXXZ			; CEncrypt<bool>::Init
; Function compile flags: /Ogsp
;	COMDAT ?Init@?$CEncrypt@_N@@AAEXXZ
_TEXT	SEGMENT
_pid$ = -8						; size = 4
_tick$ = -4						; size = 4
?Init@?$CEncrypt@_N@@AAEXXZ PROC			; CEncrypt<bool>::Init, COMDAT
; _this$ = ecx

; 73   : 	{

  00000	55		 push	 ebp
  00001	8b ec		 mov	 ebp, esp
  00003	51		 push	 ecx
  00004	51		 push	 ecx
  00005	53		 push	 ebx
  00006	56		 push	 esi
  00007	57		 push	 edi
  00008	8b f1		 mov	 esi, ecx

; 74   : 		DWORD pid = GetCurrentProcessId();

  0000a	ff 15 00 00 00
	00		 call	 DWORD PTR __imp__GetCurrentProcessId@0
  00010	89 45 f8	 mov	 DWORD PTR _pid$[ebp], eax

; 75   : 		DWORD tick = timeGetTime();

  00013	ff 15 00 00 00
	00		 call	 DWORD PTR __imp__timeGetTime@0

; 76   : 		m_ValueSize    = sizeof(type);
; 77   : 		m_MemPoolPos   = (unsigned short)( rand()+pid+tick )%(MAX_MEM_POOL-m_ValueSize);

  00019	8b 3d 00 00 00
	00		 mov	 edi, DWORD PTR __imp__rand
  0001f	89 45 fc	 mov	 DWORD PTR _tick$[ebp], eax
  00022	33 c0		 xor	 eax, eax
  00024	40		 inc	 eax
  00025	66 89 46 06	 mov	 WORD PTR [esi+6], ax
  00029	ff d7		 call	 edi
  0002b	03 45 f8	 add	 eax, DWORD PTR _pid$[ebp]
  0002e	0f b7 4e 06	 movzx	 ecx, WORD PTR [esi+6]
  00032	03 45 fc	 add	 eax, DWORD PTR _tick$[ebp]
  00035	6a 0c		 push	 12			; 0000000cH
  00037	0f b7 c0	 movzx	 eax, ax
  0003a	5b		 pop	 ebx
  0003b	99		 cdq
  0003c	2b d9		 sub	 ebx, ecx
  0003e	f7 fb		 idiv	 ebx
  00040	66 89 56 04	 mov	 WORD PTR [esi+4], dx

; 78   : 		m_EncryptSeed  = (char)( rand()+pid+tick )%256;

  00044	ff d7		 call	 edi
  00046	02 45 f8	 add	 al, BYTE PTR _pid$[ebp]
  00049	02 45 fc	 add	 al, BYTE PTR _tick$[ebp]
  0004c	0f be c0	 movsx	 eax, al
  0004f	25 ff 00 00 80	 and	 eax, -2147483393	; 800000ffH
  00054	79 07		 jns	 SHORT $LN8@Init@2
  00056	48		 dec	 eax
  00057	0d 00 ff ff ff	 or	 eax, -256		; ffffff00H
  0005c	40		 inc	 eax
$LN8@Init@2:
  0005d	88 46 08	 mov	 BYTE PTR [esi+8], al

; 79   : 
; 80   : 		for (int i = 0; i < MAX_MEM_POOL ; i++)

  00060	33 db		 xor	 ebx, ebx
$LL3@Init@2:

; 81   : 			m_MemPool[i] = (char)( rand()+pid+tick )%256; // 더미

  00062	ff d7		 call	 edi
  00064	02 45 f8	 add	 al, BYTE PTR _pid$[ebp]
  00067	02 45 fc	 add	 al, BYTE PTR _tick$[ebp]
  0006a	0f be c0	 movsx	 eax, al
  0006d	25 ff 00 00 80	 and	 eax, -2147483393	; 800000ffH
  00072	79 07		 jns	 SHORT $LN9@Init@2
  00074	48		 dec	 eax
  00075	0d 00 ff ff ff	 or	 eax, -256		; ffffff00H
  0007a	40		 inc	 eax
$LN9@Init@2:
  0007b	88 44 1e 1c	 mov	 BYTE PTR [esi+ebx+28], al
  0007f	43		 inc	 ebx
  00080	83 fb 0c	 cmp	 ebx, 12			; 0000000cH
  00083	7c dd		 jl	 SHORT $LL3@Init@2

; 82   : 
; 83   : 		//UJ 130913, 최적화: szKey 사용안하도록 간략화
; 84   : 		//char szKey[ccddaabb::KEY_SIZE];//="";
; 85   : 		//for (int i = 0; i < ccddaabb::KEY_SIZE  ; i++)
; 86   : 		//	szKey[i] = (char)( rand()+pid+tick )%256; // 더미
; 87   : 		m_RC5.Setup( NULL, pid, tick );

  00085	ff 75 fc	 push	 DWORD PTR _tick$[ebp]
  00088	8d 4e 0c	 lea	 ecx, DWORD PTR [esi+12]
  0008b	ff 75 f8	 push	 DWORD PTR _pid$[ebp]
  0008e	6a 00		 push	 0
  00090	e8 00 00 00 00	 call	 ?Setup@ccddaabb@@QAEXPBDHH@Z ; ccddaabb::Setup
  00095	5f		 pop	 edi
  00096	5e		 pop	 esi
  00097	5b		 pop	 ebx

; 88   : 
; 89   : #ifdef _NOTUSE
; 90   : 		m_value        = 0;
; 91   : 		EncryptValueToPool((char*)&m_value);
; 92   : 		Debug();
; 93   : #endif
; 94   : 	}

  00098	c9		 leave
  00099	c3		 ret	 0
?Init@?$CEncrypt@_N@@AAEXXZ ENDP			; CEncrypt<bool>::Init
_TEXT	ENDS
PUBLIC	?DecryptValueToPool@?$CEncrypt@_N@@QAEXPA_N@Z	; CEncrypt<bool>::DecryptValueToPool
; Function compile flags: /Ogsp
;	COMDAT ?DecryptValueToPool@?$CEncrypt@_N@@QAEXPA_N@Z
_TEXT	SEGMENT
_value$ = 8						; size = 4
?DecryptValueToPool@?$CEncrypt@_N@@QAEXPA_N@Z PROC	; CEncrypt<bool>::DecryptValueToPool, COMDAT
; _this$ = ecx

; 219  : 	{

  00000	55		 push	 ebp
  00001	8b ec		 mov	 ebp, esp
  00003	56		 push	 esi

; 220  : 		m_RC5.DecryptByte( m_MemPool, m_TempMem, 4 );

  00004	8d 71 28	 lea	 esi, DWORD PTR [ecx+40]
  00007	6a 04		 push	 4
  00009	8d 41 1c	 lea	 eax, DWORD PTR [ecx+28]
  0000c	56		 push	 esi
  0000d	50		 push	 eax
  0000e	83 c1 0c	 add	 ecx, 12			; 0000000cH
  00011	e8 00 00 00 00	 call	 ?DecryptByte@ccddaabb@@QBEXPBDPADH@Z ; ccddaabb::DecryptByte

; 221  : 		*value = *((bool*)m_TempMem);

  00016	8a 06		 mov	 al, BYTE PTR [esi]
  00018	8b 4d 08	 mov	 ecx, DWORD PTR _value$[ebp]
  0001b	88 01		 mov	 BYTE PTR [ecx], al
  0001d	5e		 pop	 esi

; 222  : 	}

  0001e	5d		 pop	 ebp
  0001f	c2 04 00	 ret	 4
?DecryptValueToPool@?$CEncrypt@_N@@QAEXPA_N@Z ENDP	; CEncrypt<bool>::DecryptValueToPool
_TEXT	ENDS
PUBLIC	?DecryptValueToPool@?$CEncrypt@H@@QAEXPAH@Z	; CEncrypt<int>::DecryptValueToPool
; Function compile flags: /Ogsp
;	COMDAT ?DecryptValueToPool@?$CEncrypt@H@@QAEXPAH@Z
_TEXT	SEGMENT
_value$ = 8						; size = 4
?DecryptValueToPool@?$CEncrypt@H@@QAEXPAH@Z PROC	; CEncrypt<int>::DecryptValueToPool, COMDAT
; _this$ = ecx

; 837  : 	{

  00000	55		 push	 ebp
  00001	8b ec		 mov	 ebp, esp
  00003	56		 push	 esi

; 838  : 		m_RC5.DecryptByte( m_MemPool, m_TempMem, 4 );

  00004	8d 71 28	 lea	 esi, DWORD PTR [ecx+40]
  00007	6a 04		 push	 4
  00009	8d 41 1c	 lea	 eax, DWORD PTR [ecx+28]
  0000c	56		 push	 esi
  0000d	50		 push	 eax
  0000e	83 c1 0c	 add	 ecx, 12			; 0000000cH
  00011	e8 00 00 00 00	 call	 ?DecryptByte@ccddaabb@@QBEXPBDPADH@Z ; ccddaabb::DecryptByte

; 839  : 		*value = *((int*)m_TempMem);

  00016	8b 06		 mov	 eax, DWORD PTR [esi]
  00018	8b 4d 08	 mov	 ecx, DWORD PTR _value$[ebp]
  0001b	89 01		 mov	 DWORD PTR [ecx], eax
  0001d	5e		 pop	 esi

; 840  : 	}

  0001e	5d		 pop	 ebp
  0001f	c2 04 00	 ret	 4
?DecryptValueToPool@?$CEncrypt@H@@QAEXPAH@Z ENDP	; CEncrypt<int>::DecryptValueToPool
_TEXT	ENDS
PUBLIC	?_Inside@?$vector@KV?$allocator@K@std@@@std@@IBE_NPBK@Z ; std::vector<unsigned long,std::allocator<unsigned long> >::_Inside
; Function compile flags: /Ogsp
; File c:\program files (x86)\microsoft visual studio 10.0\vc\include\vector
;	COMDAT ?_Inside@?$vector@KV?$allocator@K@std@@@std@@IBE_NPBK@Z
_TEXT	SEGMENT
__Ptr$ = 8						; size = 4
?_Inside@?$vector@KV?$allocator@K@std@@@std@@IBE_NPBK@Z PROC ; std::vector<unsigned long,std::allocator<unsigned long> >::_Inside, COMDAT
; _this$ = ecx

; 1285 : 		{	// test if _Ptr points inside vector

  00000	55		 push	 ebp
  00001	8b ec		 mov	 ebp, esp

; 1286 : 		return (_Ptr < this->_Mylast && this->_Myfirst <= _Ptr);

  00003	8b 45 08	 mov	 eax, DWORD PTR __Ptr$[ebp]
  00006	3b 41 04	 cmp	 eax, DWORD PTR [ecx+4]
  00009	73 09		 jae	 SHORT $LN3@Inside
  0000b	39 01		 cmp	 DWORD PTR [ecx], eax
  0000d	77 05		 ja	 SHORT $LN3@Inside
  0000f	33 c0		 xor	 eax, eax
  00011	40		 inc	 eax
  00012	eb 02		 jmp	 SHORT $LN4@Inside
$LN3@Inside:
  00014	33 c0		 xor	 eax, eax
$LN4@Inside:

; 1287 : 		}

  00016	5d		 pop	 ebp
  00017	c2 04 00	 ret	 4
?_Inside@?$vector@KV?$allocator@K@std@@@std@@IBE_NPBK@Z ENDP ; std::vector<unsigned long,std::allocator<unsigned long> >::_Inside
_TEXT	ENDS
PUBLIC	?_Orphan_range@?$vector@KV?$allocator@K@std@@@std@@IBEXPAK0@Z ; std::vector<unsigned long,std::allocator<unsigned long> >::_Orphan_range
; Function compile flags: /Ogsp
;	COMDAT ?_Orphan_range@?$vector@KV?$allocator@K@std@@@std@@IBEXPAK0@Z
_TEXT	SEGMENT
___formal$ = 8						; size = 4
___formal$ = 12						; size = 4
?_Orphan_range@?$vector@KV?$allocator@K@std@@@std@@IBEXPAK0@Z PROC ; std::vector<unsigned long,std::allocator<unsigned long> >::_Orphan_range, COMDAT
; _this$ = ecx

; 1454 : 		}

  00000	c2 08 00	 ret	 8
?_Orphan_range@?$vector@KV?$allocator@K@std@@@std@@IBEXPAK0@Z ENDP ; std::vector<unsigned long,std::allocator<unsigned long> >::_Orphan_range
_TEXT	ENDS
PUBLIC	??1?$_Vector_val@KV?$allocator@K@std@@@std@@QAE@XZ ; std::_Vector_val<unsigned long,std::allocator<unsigned long> >::~_Vector_val<unsigned long,std::allocator<unsigned long> >
; Function compile flags: /Ogsp
;	COMDAT ??1?$_Vector_val@KV?$allocator@K@std@@@std@@QAE@XZ
_TEXT	SEGMENT
??1?$_Vector_val@KV?$allocator@K@std@@@std@@QAE@XZ PROC	; std::_Vector_val<unsigned long,std::allocator<unsigned long> >::~_Vector_val<unsigned long,std::allocator<unsigned long> >, COMDAT
; _this$ = ecx

; 434  : 		}

  00000	c3		 ret	 0
??1?$_Vector_val@KV?$allocator@K@std@@@std@@QAE@XZ ENDP	; std::_Vector_val<unsigned long,std::allocator<unsigned long> >::~_Vector_val<unsigned long,std::allocator<unsigned long> >
_TEXT	ENDS
PUBLIC	??0?$allocator@K@std@@QAE@XZ			; std::allocator<unsigned long>::allocator<unsigned long>
; Function compile flags: /Ogsp
; File c:\program files (x86)\microsoft visual studio 10.0\vc\include\xmemory
;	COMDAT ??0?$allocator@K@std@@QAE@XZ
_TEXT	SEGMENT
??0?$allocator@K@std@@QAE@XZ PROC			; std::allocator<unsigned long>::allocator<unsigned long>, COMDAT
; _this$ = ecx

; 161  : 	_ALLOCATOR() _THROW0()

  00000	8b c1		 mov	 eax, ecx

; 162  : 		{	// construct default allocator (do nothing)
; 163  : 		}

  00002	c3		 ret	 0
??0?$allocator@K@std@@QAE@XZ ENDP			; std::allocator<unsigned long>::allocator<unsigned long>
_TEXT	ENDS
PUBLIC	??0?$allocator@M@std@@QAE@ABV01@@Z		; std::allocator<float>::allocator<float>
; Function compile flags: /Ogsp
;	COMDAT ??0?$allocator@M@std@@QAE@ABV01@@Z
_TEXT	SEGMENT
___formal$ = 8						; size = 4
??0?$allocator@M@std@@QAE@ABV01@@Z PROC			; std::allocator<float>::allocator<float>, COMDAT
; _this$ = ecx

; 165  : 	_ALLOCATOR(const _ALLOCATOR<_Ty>&) _THROW0()

  00000	8b c1		 mov	 eax, ecx

; 166  : 		{	// construct by copying (do nothing)
; 167  : 		}

  00002	c2 04 00	 ret	 4
??0?$allocator@M@std@@QAE@ABV01@@Z ENDP			; std::allocator<float>::allocator<float>
_TEXT	ENDS
PUBLIC	?capacity@?$vector@KV?$allocator@K@std@@@std@@QBEIXZ ; std::vector<unsigned long,std::allocator<unsigned long> >::capacity
; Function compile flags: /Ogsp
; File c:\program files (x86)\microsoft visual studio 10.0\vc\include\vector
;	COMDAT ?capacity@?$vector@KV?$allocator@K@std@@@std@@QBEIXZ
_TEXT	SEGMENT
?capacity@?$vector@KV?$allocator@K@std@@@std@@QBEIXZ PROC ; std::vector<unsigned long,std::allocator<unsigned long> >::capacity, COMDAT
; _this$ = ecx

; 777  : 		return (this->_Myend - this->_Myfirst);

  00000	8b 41 08	 mov	 eax, DWORD PTR [ecx+8]
  00003	2b 01		 sub	 eax, DWORD PTR [ecx]
  00005	c1 f8 02	 sar	 eax, 2

; 778  : 		}

  00008	c3		 ret	 0
?capacity@?$vector@KV?$allocator@K@std@@@std@@QBEIXZ ENDP ; std::vector<unsigned long,std::allocator<unsigned long> >::capacity
_TEXT	ENDS
PUBLIC	??_C@_0BD@OLBABOEK@vector?$DMT?$DO?5too?5long?$AA@ ; `string'
PUBLIC	?_Xlen@?$vector@KV?$allocator@K@std@@@std@@IBEXXZ ; std::vector<unsigned long,std::allocator<unsigned long> >::_Xlen
EXTRN	__imp_?_Xlength_error@std@@YAXPBD@Z:PROC
;	COMDAT ??_C@_0BD@OLBABOEK@vector?$DMT?$DO?5too?5long?$AA@
CONST	SEGMENT
??_C@_0BD@OLBABOEK@vector?$DMT?$DO?5too?5long?$AA@ DB 'vector<T> too long'
	DB	00H						; `string'
; Function compile flags: /Ogsp
CONST	ENDS
;	COMDAT ?_Xlen@?$vector@KV?$allocator@K@std@@@std@@IBEXXZ
_TEXT	SEGMENT
?_Xlen@?$vector@KV?$allocator@K@std@@@std@@IBEXXZ PROC	; std::vector<unsigned long,std::allocator<unsigned long> >::_Xlen, COMDAT
; _this$ = ecx

; 1427 : 		_Xlength_error("vector<T> too long");

  00000	68 00 00 00 00	 push	 OFFSET ??_C@_0BD@OLBABOEK@vector?$DMT?$DO?5too?5long?$AA@
  00005	ff 15 00 00 00
	00		 call	 DWORD PTR __imp_?_Xlength_error@std@@YAXPBD@Z
$LN4@Xlen:
$LN3@Xlen:
  0000b	cc		 int	 3
?_Xlen@?$vector@KV?$allocator@K@std@@@std@@IBEXXZ ENDP	; std::vector<unsigned long,std::allocator<unsigned long> >::_Xlen
_TEXT	ENDS
PUBLIC	??0?$allocator@K@std@@QAE@ABV01@@Z		; std::allocator<unsigned long>::allocator<unsigned long>
; Function compile flags: /Ogsp
; File c:\program files (x86)\microsoft visual studio 10.0\vc\include\xmemory
;	COMDAT ??0?$allocator@K@std@@QAE@ABV01@@Z
_TEXT	SEGMENT
___formal$ = 8						; size = 4
??0?$allocator@K@std@@QAE@ABV01@@Z PROC			; std::allocator<unsigned long>::allocator<unsigned long>, COMDAT
; _this$ = ecx

; 165  : 	_ALLOCATOR(const _ALLOCATOR<_Ty>&) _THROW0()

  00000	8b c1		 mov	 eax, ecx

; 166  : 		{	// construct by copying (do nothing)
; 167  : 		}

  00002	c2 04 00	 ret	 4
??0?$allocator@K@std@@QAE@ABV01@@Z ENDP			; std::allocator<unsigned long>::allocator<unsigned long>
_TEXT	ENDS
PUBLIC	?deallocate@?$allocator@K@std@@QAEXPAKI@Z	; std::allocator<unsigned long>::deallocate
; Function compile flags: /Ogsp
;	COMDAT ?deallocate@?$allocator@K@std@@QAEXPAKI@Z
_TEXT	SEGMENT
__Ptr$ = 8						; size = 4
___formal$ = 12						; size = 4
?deallocate@?$allocator@K@std@@QAEXPAKI@Z PROC		; std::allocator<unsigned long>::deallocate, COMDAT
; _this$ = ecx

; 181  : 		{	// deallocate object at _Ptr, ignore size

  00000	55		 push	 ebp
  00001	8b ec		 mov	 ebp, esp

; 182  : 		::operator delete(_Ptr);

  00003	ff 75 08	 push	 DWORD PTR __Ptr$[ebp]
  00006	e8 00 00 00 00	 call	 ??3@YAXPAX@Z		; operator delete
  0000b	59		 pop	 ecx

; 183  : 		}

  0000c	5d		 pop	 ebp
  0000d	c2 08 00	 ret	 8
?deallocate@?$allocator@K@std@@QAEXPAKI@Z ENDP		; std::allocator<unsigned long>::deallocate
_TEXT	ENDS
PUBLIC	?max_size@?$allocator@K@std@@QBEIXZ		; std::allocator<unsigned long>::max_size
; Function compile flags: /Ogsp
;	COMDAT ?max_size@?$allocator@K@std@@QBEIXZ
_TEXT	SEGMENT
?max_size@?$allocator@K@std@@QBEIXZ PROC		; std::allocator<unsigned long>::max_size, COMDAT
; _this$ = ecx

; 218  : 		_SIZT _Count = (_SIZT)(-1) / sizeof (_Ty);
; 219  : 		return (0 < _Count ? _Count : 1);

  00000	b8 ff ff ff 3f	 mov	 eax, 1073741823		; 3fffffffH

; 220  : 		}

  00005	c3		 ret	 0
?max_size@?$allocator@K@std@@QBEIXZ ENDP		; std::allocator<unsigned long>::max_size
_TEXT	ENDS
PUBLIC	??0?$_Vector_const_iterator@V?$_Vector_val@KV?$allocator@K@std@@@std@@@std@@QAE@PAKPBU_Container_base0@1@@Z ; std::_Vector_const_iterator<std::_Vector_val<unsigned long,std::allocator<unsigned long> > >::_Vector_const_iterator<std::_Vector_val<unsigned long,std::allocator<unsigned long> > >
; Function compile flags: /Ogsp
; File c:\program files (x86)\microsoft visual studio 10.0\vc\include\vector
;	COMDAT ??0?$_Vector_const_iterator@V?$_Vector_val@KV?$allocator@K@std@@@std@@@std@@QAE@PAKPBU_Container_base0@1@@Z
_TEXT	SEGMENT
__Parg$ = 8						; size = 4
__Pvector$ = 12						; size = 4
??0?$_Vector_const_iterator@V?$_Vector_val@KV?$allocator@K@std@@@std@@@std@@QAE@PAKPBU_Container_base0@1@@Z PROC ; std::_Vector_const_iterator<std::_Vector_val<unsigned long,std::allocator<unsigned long> > >::_Vector_const_iterator<std::_Vector_val<unsigned long,std::allocator<unsigned long> > >, COMDAT
; _this$ = ecx

; 45   : 		{	// construct with pointer _Parg

  00000	55		 push	 ebp
  00001	8b ec		 mov	 ebp, esp
  00003	8b c1		 mov	 eax, ecx
  00005	8b 4d 08	 mov	 ecx, DWORD PTR __Parg$[ebp]
  00008	89 08		 mov	 DWORD PTR [eax], ecx

; 46   : 		this->_Adopt(_Pvector);
; 47   : 		}

  0000a	5d		 pop	 ebp
  0000b	c2 08 00	 ret	 8
??0?$_Vector_const_iterator@V?$_Vector_val@KV?$allocator@K@std@@@std@@@std@@QAE@PAKPBU_Container_base0@1@@Z ENDP ; std::_Vector_const_iterator<std::_Vector_val<unsigned long,std::allocator<unsigned long> > >::_Vector_const_iterator<std::_Vector_val<unsigned long,std::allocator<unsigned long> > >
_TEXT	ENDS
PUBLIC	?_Compat@?$_Vector_const_iterator@V?$_Vector_val@KV?$allocator@K@std@@@std@@@std@@QBEXABV12@@Z ; std::_Vector_const_iterator<std::_Vector_val<unsigned long,std::allocator<unsigned long> > >::_Compat
; Function compile flags: /Ogsp
;	COMDAT ?_Compat@?$_Vector_const_iterator@V?$_Vector_val@KV?$allocator@K@std@@@std@@@std@@QBEXABV12@@Z
_TEXT	SEGMENT
___formal$ = 8						; size = 4
?_Compat@?$_Vector_const_iterator@V?$_Vector_val@KV?$allocator@K@std@@@std@@@std@@QBEXABV12@@Z PROC ; std::_Vector_const_iterator<std::_Vector_val<unsigned long,std::allocator<unsigned long> > >::_Compat, COMDAT
; _this$ = ecx

; 253  : 		}

  00000	c2 04 00	 ret	 4
?_Compat@?$_Vector_const_iterator@V?$_Vector_val@KV?$allocator@K@std@@@std@@@std@@QBEXABV12@@Z ENDP ; std::_Vector_const_iterator<std::_Vector_val<unsigned long,std::allocator<unsigned long> > >::_Compat
_TEXT	ENDS
PUBLIC	??$addressof@$$CBK@std@@YAPBKABK@Z		; std::addressof<unsigned long const >
; Function compile flags: /Ogsp
; File c:\program files (x86)\microsoft visual studio 10.0\vc\include\xmemory
;	COMDAT ??$addressof@$$CBK@std@@YAPBKABK@Z
_TEXT	SEGMENT
__Val$ = 8						; size = 4
??$addressof@$$CBK@std@@YAPBKABK@Z PROC			; std::addressof<unsigned long const >, COMDAT

; 110  : 	{	// return address of _Val

  00000	55		 push	 ebp
  00001	8b ec		 mov	 ebp, esp

; 111  : 	return ((_Ty *) &(char&)_Val);

  00003	8b 45 08	 mov	 eax, DWORD PTR __Val$[ebp]

; 112  : 	}

  00006	5d		 pop	 ebp
  00007	c3		 ret	 0
??$addressof@$$CBK@std@@YAPBKABK@Z ENDP			; std::addressof<unsigned long const >
_TEXT	ENDS
PUBLIC	??$_Allocate@K@std@@YAPAKIPAK@Z			; std::_Allocate<unsigned long>
; Function compile flags: /Ogsp
;	COMDAT ??$_Allocate@K@std@@YAPAKIPAK@Z
_TEXT	SEGMENT
$T624593 = -12						; size = 12
$T624597 = 8						; size = 4
__Count$ = 8						; size = 4
___formal$ = 12						; size = 4
??$_Allocate@K@std@@YAPAKIPAK@Z PROC			; std::_Allocate<unsigned long>, COMDAT

; 30   : 	{	// allocate storage for _Count elements of type _Ty

  00000	55		 push	 ebp
  00001	8b ec		 mov	 ebp, esp

; 31   : 	void *_Ptr = 0;
; 32   : 
; 33   : 	if (_Count <= 0)

  00003	8b 4d 08	 mov	 ecx, DWORD PTR __Count$[ebp]
  00006	83 ec 0c	 sub	 esp, 12			; 0000000cH
  00009	33 c0		 xor	 eax, eax
  0000b	85 c9		 test	 ecx, ecx

; 34   : 		_Count = 0;
; 35   : 	else if (((_SIZT)(-1) / sizeof (_Ty) < _Count)

  0000d	74 3e		 je	 SHORT $LN5@Allocate@2

; 36   : 		|| (_Ptr = ::operator new(_Count * sizeof (_Ty))) == 0)

  0000f	81 f9 ff ff ff
	3f		 cmp	 ecx, 1073741823		; 3fffffffH
  00015	77 10		 ja	 SHORT $LN1@Allocate@2
  00017	8b c1		 mov	 eax, ecx
  00019	c1 e0 02	 shl	 eax, 2
  0001c	50		 push	 eax
  0001d	e8 00 00 00 00	 call	 ??2@YAPAXI@Z		; operator new
  00022	59		 pop	 ecx
  00023	85 c0		 test	 eax, eax

; 38   : 
; 39   : 	return ((_Ty _FARQ *)_Ptr);

  00025	75 26		 jne	 SHORT $LN5@Allocate@2
$LN1@Allocate@2:

; 37   : 		_THROW_NCEE(bad_alloc, 0);

  00027	83 65 08 00	 and	 DWORD PTR $T624597[ebp], 0
  0002b	8d 45 08	 lea	 eax, DWORD PTR $T624597[ebp]
  0002e	50		 push	 eax
  0002f	8d 4d f4	 lea	 ecx, DWORD PTR $T624593[ebp]
  00032	ff 15 00 00 00
	00		 call	 DWORD PTR __imp_??0exception@std@@QAE@ABQBD@Z
  00038	68 00 00 00 00	 push	 OFFSET __TI2?AVbad_alloc@std@@
  0003d	8d 45 f4	 lea	 eax, DWORD PTR $T624593[ebp]
  00040	50		 push	 eax
  00041	c7 45 f4 00 00
	00 00		 mov	 DWORD PTR $T624593[ebp], OFFSET ??_7bad_alloc@std@@6B@
  00048	e8 00 00 00 00	 call	 __CxxThrowException@8
$LN10@Allocate@2:
$LN5@Allocate@2:

; 40   : 	}

  0004d	c9		 leave
  0004e	c3		 ret	 0
$LN9@Allocate@2:
??$_Allocate@K@std@@YAPAKIPAK@Z ENDP			; std::_Allocate<unsigned long>
_TEXT	ENDS
EXTRN	__imp_??0exception@std@@QAE@ABV01@@Z:PROC
; Function compile flags: /Ogsp
;	COMDAT ??0bad_alloc@std@@QAE@ABV01@@Z
_TEXT	SEGMENT
___that$ = 8						; size = 4
??0bad_alloc@std@@QAE@ABV01@@Z PROC			; std::bad_alloc::bad_alloc, COMDAT
; _this$ = ecx
  00000	55		 push	 ebp
  00001	8b ec		 mov	 ebp, esp
  00003	56		 push	 esi
  00004	ff 75 08	 push	 DWORD PTR ___that$[ebp]
  00007	8b f1		 mov	 esi, ecx
  00009	ff 15 00 00 00
	00		 call	 DWORD PTR __imp_??0exception@std@@QAE@ABV01@@Z
  0000f	c7 06 00 00 00
	00		 mov	 DWORD PTR [esi], OFFSET ??_7bad_alloc@std@@6B@
  00015	8b c6		 mov	 eax, esi
  00017	5e		 pop	 esi
  00018	5d		 pop	 ebp
  00019	c2 04 00	 ret	 4
??0bad_alloc@std@@QAE@ABV01@@Z ENDP			; std::bad_alloc::bad_alloc
_TEXT	ENDS
PUBLIC	??$forward@AAK@std@@YAAAKAAK@Z			; std::forward<unsigned long &>
; Function compile flags: /Ogsp
; File c:\program files (x86)\microsoft visual studio 10.0\vc\include\utility
;	COMDAT ??$forward@AAK@std@@YAAAKAAK@Z
_TEXT	SEGMENT
__Arg$ = 8						; size = 4
??$forward@AAK@std@@YAAAKAAK@Z PROC			; std::forward<unsigned long &>, COMDAT

; 78   : 	{	// forward _Arg, given explicitly specified type parameter

  00000	55		 push	 ebp
  00001	8b ec		 mov	 ebp, esp

; 79   : 	return ((_Ty&&)_Arg);

  00003	8b 45 08	 mov	 eax, DWORD PTR __Arg$[ebp]

; 80   : 	}

  00006	5d		 pop	 ebp
  00007	c3		 ret	 0
??$forward@AAK@std@@YAAAKAAK@Z ENDP			; std::forward<unsigned long &>
_TEXT	ENDS
PUBLIC	??$construct@AAK@?$allocator@K@std@@QAEXPAKAAK@Z ; std::allocator<unsigned long>::construct<unsigned long &>
; Function compile flags: /Ogsp
; File c:\program files (x86)\microsoft visual studio 10.0\vc\include\xmemory
;	COMDAT ??$construct@AAK@?$allocator@K@std@@QAEXPAKAAK@Z
_TEXT	SEGMENT
__Ptr$ = 8						; size = 4
__Val$ = 12						; size = 4
??$construct@AAK@?$allocator@K@std@@QAEXPAKAAK@Z PROC	; std::allocator<unsigned long>::construct<unsigned long &>, COMDAT
; _this$ = ecx

; 206  : 		void construct(pointer _Ptr, _Other&& _Val)

  00000	55		 push	 ebp
  00001	8b ec		 mov	 ebp, esp

; 207  : 		{	// construct object at _Ptr with value _Val
; 208  : 		::new ((void _FARQ *)_Ptr) _Ty(_STD forward<_Other>(_Val));

  00003	8b 45 08	 mov	 eax, DWORD PTR __Ptr$[ebp]
  00006	85 c0		 test	 eax, eax
  00008	74 07		 je	 SHORT $LN3@construct
  0000a	8b 4d 0c	 mov	 ecx, DWORD PTR __Val$[ebp]
  0000d	8b 09		 mov	 ecx, DWORD PTR [ecx]
  0000f	89 08		 mov	 DWORD PTR [eax], ecx
$LN3@construct:

; 209  : 		}

  00011	5d		 pop	 ebp
  00012	c2 08 00	 ret	 8
??$construct@AAK@?$allocator@K@std@@QAEXPAKAAK@Z ENDP	; std::allocator<unsigned long>::construct<unsigned long &>
_TEXT	ENDS
PUBLIC	??$forward@ABK@std@@YAABKABK@Z			; std::forward<unsigned long const &>
; Function compile flags: /Ogsp
; File c:\program files (x86)\microsoft visual studio 10.0\vc\include\utility
;	COMDAT ??$forward@ABK@std@@YAABKABK@Z
_TEXT	SEGMENT
__Arg$ = 8						; size = 4
??$forward@ABK@std@@YAABKABK@Z PROC			; std::forward<unsigned long const &>, COMDAT

; 78   : 	{	// forward _Arg, given explicitly specified type parameter

  00000	55		 push	 ebp
  00001	8b ec		 mov	 ebp, esp

; 79   : 	return ((_Ty&&)_Arg);

  00003	8b 45 08	 mov	 eax, DWORD PTR __Arg$[ebp]

; 80   : 	}

  00006	5d		 pop	 ebp
  00007	c3		 ret	 0
??$forward@ABK@std@@YAABKABK@Z ENDP			; std::forward<unsigned long const &>
_TEXT	ENDS
PUBLIC	??$_Ptr_cat@KK@std@@YA?AU_Scalar_ptr_iterator_tag@0@PAK0@Z ; std::_Ptr_cat<unsigned long,unsigned long>
; Function compile flags: /Ogsp
; File c:\program files (x86)\microsoft visual studio 10.0\vc\include\xutility
;	COMDAT ??$_Ptr_cat@KK@std@@YA?AU_Scalar_ptr_iterator_tag@0@PAK0@Z
_TEXT	SEGMENT
__Cat$ = -1						; size = 1
___formal$ = 8						; size = 4
___formal$ = 12						; size = 4
??$_Ptr_cat@KK@std@@YA?AU_Scalar_ptr_iterator_tag@0@PAK0@Z PROC ; std::_Ptr_cat<unsigned long,unsigned long>, COMDAT

; 516  : 	{	// return pointer category from pointers

  00000	55		 push	 ebp
  00001	8b ec		 mov	 ebp, esp
  00003	51		 push	 ecx

; 517  : 	typename _Ptr_cat_helper<_Elem1, _Elem2>::_Type _Cat;
; 518  : 	return (_Cat);

  00004	8a 45 ff	 mov	 al, BYTE PTR __Cat$[ebp]

; 519  : 	}

  00007	c9		 leave
  00008	c3		 ret	 0
??$_Ptr_cat@KK@std@@YA?AU_Scalar_ptr_iterator_tag@0@PAK0@Z ENDP ; std::_Ptr_cat<unsigned long,unsigned long>
_TEXT	ENDS
PUBLIC	??$_Move@PAKPAK@std@@YAPAKPAK00U_Scalar_ptr_iterator_tag@0@@Z ; std::_Move<unsigned long *,unsigned long *>
EXTRN	__imp__memmove:PROC
; Function compile flags: /Ogsp
;	COMDAT ??$_Move@PAKPAK@std@@YAPAKPAK00U_Scalar_ptr_iterator_tag@0@@Z
_TEXT	SEGMENT
__First$ = 8						; size = 4
__Last$ = 12						; size = 4
__Dest$ = 16						; size = 4
___formal$ = 20						; size = 1
??$_Move@PAKPAK@std@@YAPAKPAK00U_Scalar_ptr_iterator_tag@0@@Z PROC ; std::_Move<unsigned long *,unsigned long *>, COMDAT

; 2522 : 	{	// move [_First, _Last) to [_Dest, ...), pointers to scalars

  00000	55		 push	 ebp
  00001	8b ec		 mov	 ebp, esp
  00003	56		 push	 esi

; 2523 : 	ptrdiff_t _Count = _Last - _First;

  00004	8b 75 0c	 mov	 esi, DWORD PTR __Last$[ebp]
  00007	2b 75 08	 sub	 esi, DWORD PTR __First$[ebp]
  0000a	57		 push	 edi

; 2524 : 	_CSTD memmove(&*_Dest, &*_First,
; 2525 : 		_Count * sizeof (*_First));

  0000b	8b 7d 10	 mov	 edi, DWORD PTR __Dest$[ebp]
  0000e	c1 fe 02	 sar	 esi, 2
  00011	c1 e6 02	 shl	 esi, 2
  00014	56		 push	 esi
  00015	ff 75 08	 push	 DWORD PTR __First$[ebp]
  00018	57		 push	 edi
  00019	ff 15 00 00 00
	00		 call	 DWORD PTR __imp__memmove
  0001f	83 c4 0c	 add	 esp, 12			; 0000000cH

; 2526 : 	return (_Dest + _Count);

  00022	8d 04 3e	 lea	 eax, DWORD PTR [esi+edi]
  00025	5f		 pop	 edi
  00026	5e		 pop	 esi

; 2527 : 	}

  00027	5d		 pop	 ebp
  00028	c3		 ret	 0
??$_Move@PAKPAK@std@@YAPAKPAK00U_Scalar_ptr_iterator_tag@0@@Z ENDP ; std::_Move<unsigned long *,unsigned long *>
_TEXT	ENDS
PUBLIC	??$_Destroy_range@V?$allocator@K@std@@@std@@YAXPAK0AAV?$allocator@K@0@U_Scalar_ptr_iterator_tag@0@@Z ; std::_Destroy_range<std::allocator<unsigned long> >
; Function compile flags: /Ogsp
; File c:\program files (x86)\microsoft visual studio 10.0\vc\include\xmemory
;	COMDAT ??$_Destroy_range@V?$allocator@K@std@@@std@@YAXPAK0AAV?$allocator@K@0@U_Scalar_ptr_iterator_tag@0@@Z
_TEXT	SEGMENT
__First$ = 8						; size = 4
__Last$ = 12						; size = 4
__Al$ = 16						; size = 4
___formal$ = 20						; size = 1
??$_Destroy_range@V?$allocator@K@std@@@std@@YAXPAK0AAV?$allocator@K@0@U_Scalar_ptr_iterator_tag@0@@Z PROC ; std::_Destroy_range<std::allocator<unsigned long> >, COMDAT

; 105  : 	}

  00000	c3		 ret	 0
??$_Destroy_range@V?$allocator@K@std@@@std@@YAXPAK0AAV?$allocator@K@0@U_Scalar_ptr_iterator_tag@0@@Z ENDP ; std::_Destroy_range<std::allocator<unsigned long> >
_TEXT	ENDS
PUBLIC	??$_Construct@KABK@std@@YAXPAKABK@Z		; std::_Construct<unsigned long,unsigned long const &>
; Function compile flags: /Ogsp
;	COMDAT ??$_Construct@KABK@std@@YAXPAKABK@Z
_TEXT	SEGMENT
__Ptr$ = 8						; size = 4
__Val$ = 12						; size = 4
??$_Construct@KABK@std@@YAXPAKABK@Z PROC		; std::_Construct<unsigned long,unsigned long const &>, COMDAT

; 46   : 	{	// construct object at _Ptr with value _Val

  00000	55		 push	 ebp
  00001	8b ec		 mov	 ebp, esp

; 47   : 	void _FARQ *_Vptr = _Ptr;
; 48   : 	::new (_Vptr) _Ty1(_STD forward<_Ty2>(_Val));

  00003	8b 45 08	 mov	 eax, DWORD PTR __Ptr$[ebp]
  00006	85 c0		 test	 eax, eax
  00008	74 07		 je	 SHORT $LN3@Construct
  0000a	8b 4d 0c	 mov	 ecx, DWORD PTR __Val$[ebp]
  0000d	8b 09		 mov	 ecx, DWORD PTR [ecx]
  0000f	89 08		 mov	 DWORD PTR [eax], ecx
$LN3@Construct:

; 49   : 	}

  00011	5d		 pop	 ebp
  00012	c3		 ret	 0
??$_Construct@KABK@std@@YAXPAKABK@Z ENDP		; std::_Construct<unsigned long,unsigned long const &>
_TEXT	ENDS
PUBLIC	??$_Val_type@PAK@std@@YAPAKPAK@Z		; std::_Val_type<unsigned long *>
; Function compile flags: /Ogsp
; File c:\program files (x86)\microsoft visual studio 10.0\vc\include\xutility
;	COMDAT ??$_Val_type@PAK@std@@YAPAKPAK@Z
_TEXT	SEGMENT
___formal$ = 8						; size = 4
??$_Val_type@PAK@std@@YAPAKPAK@Z PROC			; std::_Val_type<unsigned long *>, COMDAT

; 790  : 	return (0);

  00000	33 c0		 xor	 eax, eax

; 791  : 	}

  00002	c3		 ret	 0
??$_Val_type@PAK@std@@YAPAKPAK@Z ENDP			; std::_Val_type<unsigned long *>
_TEXT	ENDS
PUBLIC	??$_Uninit_move@KKK@std@@YAPAKPAK00AAV?$allocator@K@0@0U_Scalar_ptr_iterator_tag@0@@Z ; std::_Uninit_move<unsigned long,unsigned long,unsigned long>
; Function compile flags: /Ogsp
; File c:\program files (x86)\microsoft visual studio 10.0\vc\include\memory
;	COMDAT ??$_Uninit_move@KKK@std@@YAPAKPAK00AAV?$allocator@K@0@0U_Scalar_ptr_iterator_tag@0@@Z
_TEXT	SEGMENT
__First$ = 8						; size = 4
__Last$ = 12						; size = 4
__Dest$ = 16						; size = 4
___formal$ = 20						; size = 4
___formal$ = 24						; size = 4
___formal$ = 28						; size = 1
??$_Uninit_move@KKK@std@@YAPAKPAK00AAV?$allocator@K@0@0U_Scalar_ptr_iterator_tag@0@@Z PROC ; std::_Uninit_move<unsigned long,unsigned long,unsigned long>, COMDAT

; 456  : 	{	// move [_First, _Last) to raw _Dest, scalar type

  00000	55		 push	 ebp
  00001	8b ec		 mov	 ebp, esp
  00003	56		 push	 esi

; 457  : 	_DEBUG_RANGE(_First, _Last);
; 458  : 	_DEBUG_POINTER(_Dest);
; 459  : 	size_t _Count = (size_t)(_Last - _First);

  00004	8b 75 0c	 mov	 esi, DWORD PTR __Last$[ebp]
  00007	2b 75 08	 sub	 esi, DWORD PTR __First$[ebp]
  0000a	c1 fe 02	 sar	 esi, 2

; 460  : 	return ((_Ty2 *)_CSTD memmove(&*_Dest, &*_First,
; 461  : 		_Count * sizeof (*_First)) + _Count);	// NB: non-overlapping move

  0000d	c1 e6 02	 shl	 esi, 2
  00010	56		 push	 esi
  00011	ff 75 08	 push	 DWORD PTR __First$[ebp]
  00014	ff 75 10	 push	 DWORD PTR __Dest$[ebp]
  00017	ff 15 00 00 00
	00		 call	 DWORD PTR __imp__memmove
  0001d	83 c4 0c	 add	 esp, 12			; 0000000cH
  00020	03 c6		 add	 eax, esi
  00022	5e		 pop	 esi

; 462  : 	}

  00023	5d		 pop	 ebp
  00024	c3		 ret	 0
??$_Uninit_move@KKK@std@@YAPAKPAK00AAV?$allocator@K@0@0U_Scalar_ptr_iterator_tag@0@@Z ENDP ; std::_Uninit_move<unsigned long,unsigned long,unsigned long>
_TEXT	ENDS
PUBLIC	??_R0?AVioBuff@@@8				; ioBuff `RTTI Type Descriptor'
PUBLIC	??_R0?AVioActiveCountBuff2@@@8			; ioActiveCountBuff2 `RTTI Type Descriptor'
PUBLIC	?ToActiveCountBuff2@@YAPAVioActiveCountBuff2@@PAVioBuff@@@Z ; ToActiveCountBuff2
;	COMDAT ??_R0?AVioBuff@@@8
; File d:\lost saga for developer\youtube\tutorial\source\src\lsclient\iobuff.h
_DATA	SEGMENT
??_R0?AVioBuff@@@8 DD FLAT:??_7type_info@@6B@		; ioBuff `RTTI Type Descriptor'
	DD	00H
	DB	'.?AVioBuff@@', 00H
_DATA	ENDS
;	COMDAT ??_R0?AVioActiveCountBuff2@@@8
_DATA	SEGMENT
??_R0?AVioActiveCountBuff2@@@8 DD FLAT:??_7type_info@@6B@ ; ioActiveCountBuff2 `RTTI Type Descriptor'
	DD	00H
	DB	'.?AVioActiveCountBuff2@@', 00H
; Function compile flags: /Ogsp
; File d:\lost saga for developer\youtube\tutorial\source\src\lsclient\ioactivecountbuff2.h
_DATA	ENDS
;	COMDAT ?ToActiveCountBuff2@@YAPAVioActiveCountBuff2@@PAVioBuff@@@Z
_TEXT	SEGMENT
_pBuff$ = 8						; size = 4
?ToActiveCountBuff2@@YAPAVioActiveCountBuff2@@PAVioBuff@@@Z PROC ; ToActiveCountBuff2, COMDAT

; 38   : {

  00000	55		 push	 ebp
  00001	8b ec		 mov	 ebp, esp

; 39   : 	if( !pBuff || pBuff->GetTypeID() != BT_ACTIVE_COUNT2 )

  00003	8b 45 08	 mov	 eax, DWORD PTR _pBuff$[ebp]
  00006	85 c0		 test	 eax, eax
  00008	74 25		 je	 SHORT $LN1@ToActiveCo
  0000a	81 b8 cc 03 00
	00 a1 00 00 00	 cmp	 DWORD PTR [eax+972], 161 ; 000000a1H
  00014	75 19		 jne	 SHORT $LN1@ToActiveCo

; 41   : 
; 42   : 	return dynamic_cast< ioActiveCountBuff2* > ( pBuff );

  00016	6a 00		 push	 0
  00018	68 00 00 00 00	 push	 OFFSET ??_R0?AVioActiveCountBuff2@@@8
  0001d	68 00 00 00 00	 push	 OFFSET ??_R0?AVioBuff@@@8
  00022	6a 00		 push	 0
  00024	50		 push	 eax
  00025	e8 00 00 00 00	 call	 ___RTDynamicCast
  0002a	83 c4 14	 add	 esp, 20			; 00000014H

; 43   : }

  0002d	5d		 pop	 ebp
  0002e	c3		 ret	 0
$LN1@ToActiveCo:

; 40   : 		return NULL;

  0002f	33 c0		 xor	 eax, eax

; 43   : }

  00031	5d		 pop	 ebp
  00032	c3		 ret	 0
?ToActiveCountBuff2@@YAPAVioActiveCountBuff2@@PAVioBuff@@@Z ENDP ; ToActiveCountBuff2
_TEXT	ENDS
PUBLIC	?SetNormalAttack@ioObjectCountItem@@UAEXPAVioBaseChar@@H@Z ; ioObjectCountItem::SetNormalAttack
EXTRN	?SetState@ioBaseChar@@QAEXH_N@Z:PROC		; ioBaseChar::SetState
; Function compile flags: /Ogsp
; File d:\lost saga for developer\youtube\tutorial\source\src\lsclient\ioobjectcountitem.cpp
;	COMDAT ?SetNormalAttack@ioObjectCountItem@@UAEXPAVioBaseChar@@H@Z
_TEXT	SEGMENT
_pOwner$ = 8						; size = 4
_dwCurTime$619892 = 12					; size = 4
_iCurCombo$ = 12					; size = 4
?SetNormalAttack@ioObjectCountItem@@UAEXPAVioBaseChar@@H@Z PROC ; ioObjectCountItem::SetNormalAttack, COMDAT
; _this$ = ecx

; 91   : {

  00000	55		 push	 ebp
  00001	8b ec		 mov	 ebp, esp
  00003	56		 push	 esi
  00004	8b f1		 mov	 esi, ecx

; 92   : 	ClearCancelInfo();

  00006	8b 06		 mov	 eax, DWORD PTR [esi]
  00008	ff 90 3c 02 00
	00		 call	 DWORD PTR [eax+572]

; 93   : 
; 94   : 	m_ObjectState = OS_ATTACK;
; 95   : 	m_iCurCombo = iCurCombo;
; 96   : 
; 97   : 	if ( m_bFirstAttack && !m_ResetTimeList.empty() )

  0000e	80 be 1c 1c 00
	00 00		 cmp	 BYTE PTR [esi+7196], 0
  00015	8b 45 0c	 mov	 eax, DWORD PTR _iCurCombo$[ebp]
  00018	c7 86 08 1c 00
	00 01 00 00 00	 mov	 DWORD PTR [esi+7176], 1
  00022	89 86 10 1c 00
	00		 mov	 DWORD PTR [esi+7184], eax
  00028	0f 84 85 00 00
	00		 je	 $LN16@SetNormalA
  0002e	8b 86 f8 1b 00
	00		 mov	 eax, DWORD PTR [esi+7160]
  00034	3b 86 fc 1b 00
	00		 cmp	 eax, DWORD PTR [esi+7164]
  0003a	74 77		 je	 SHORT $LN16@SetNormalA

; 98   : 	{
; 99   : 		DWORD dwCurTime = FRAMEGETTIME();

  0003c	ff 15 00 00 00
	00		 call	 DWORD PTR __imp_?GetSingleton@ioFrameTimer@@SAAAV1@XZ
  00042	8b c8		 mov	 ecx, eax
  00044	ff 15 00 00 00
	00		 call	 DWORD PTR __imp_?GetLoopSec@ioFrameTimer@@QBEKXZ

; 100  : 		int nListNum = 0;
; 101  : 		//중간 일때 리스트 처음부터
; 102  : 		if ( m_iCurCombo > 0 && m_iCurCombo < (int)m_ResetTimeList.size() )

  0004a	8b 96 10 1c 00
	00		 mov	 edx, DWORD PTR [esi+7184]
  00050	33 c9		 xor	 ecx, ecx
  00052	89 45 0c	 mov	 DWORD PTR _dwCurTime$619892[ebp], eax
  00055	85 d2		 test	 edx, edx
  00057	7e 1a		 jle	 SHORT $LN18@SetNormalA
  00059	8b 86 fc 1b 00
	00		 mov	 eax, DWORD PTR [esi+7164]
  0005f	2b 86 f8 1b 00
	00		 sub	 eax, DWORD PTR [esi+7160]
  00065	c1 f8 02	 sar	 eax, 2
  00068	3b d0		 cmp	 edx, eax
  0006a	7d 05		 jge	 SHORT $LN4@SetNormalA

; 103  : 			nListNum = m_iCurCombo - 1;

  0006c	8d 4a ff	 lea	 ecx, DWORD PTR [edx-1]
  0006f	eb 14		 jmp	 SHORT $LN2@SetNormalA
$LN4@SetNormalA:

; 104  : 		//마지막 일때 리스트 마지막 값 적용
; 105  : 		else if ( m_iCurCombo == 0 )

  00071	85 d2		 test	 edx, edx
$LN18@SetNormalA:
  00073	75 10		 jne	 SHORT $LN2@SetNormalA

; 106  : 			nListNum = (int)m_ResetTimeList.size() - 1;

  00075	8b 8e fc 1b 00
	00		 mov	 ecx, DWORD PTR [esi+7164]
  0007b	2b 8e f8 1b 00
	00		 sub	 ecx, DWORD PTR [esi+7160]
  00081	c1 f9 02	 sar	 ecx, 2
  00084	49		 dec	 ecx
$LN2@SetNormalA:

; 107  : 
; 108  : 		if ( m_dwAttackEndTime > 0 && m_dwAttackEndTime + m_ResetTimeList[ nListNum ] < dwCurTime )

  00085	57		 push	 edi
  00086	8b be 0c 1c 00
	00		 mov	 edi, DWORD PTR [esi+7180]
  0008c	85 ff		 test	 edi, edi
  0008e	74 22		 je	 SHORT $LN17@SetNormalA
  00090	8b 86 f8 1b 00
	00		 mov	 eax, DWORD PTR [esi+7160]
  00096	8b 04 88	 mov	 eax, DWORD PTR [eax+ecx*4]
  00099	03 c7		 add	 eax, edi
  0009b	3b 45 0c	 cmp	 eax, DWORD PTR _dwCurTime$619892[ebp]
  0009e	73 12		 jae	 SHORT $LN17@SetNormalA

; 109  : 		{
; 110  : 			pOwner->ApplyNormalAttackResult( m_iCurCombo, true );

  000a0	8b 4d 08	 mov	 ecx, DWORD PTR _pOwner$[ebp]
  000a3	6a 01		 push	 1
  000a5	52		 push	 edx
  000a6	e8 00 00 00 00	 call	 ?ApplyNormalAttackResult@ioBaseChar@@QAEXH_N@Z ; ioBaseChar::ApplyNormalAttackResult

; 111  : 			m_iCurCombo = 0;

  000ab	83 a6 10 1c 00
	00 00		 and	 DWORD PTR [esi+7184], 0
$LN17@SetNormalA:
  000b2	5f		 pop	 edi
$LN16@SetNormalA:

; 112  : 		}
; 113  : 	}
; 114  : 
; 115  : 	pOwner->SetState( CS_ATTACK );

  000b3	8b 4d 08	 mov	 ecx, DWORD PTR _pOwner$[ebp]
  000b6	6a 01		 push	 1
  000b8	6a 05		 push	 5
  000ba	e8 00 00 00 00	 call	 ?SetState@ioBaseChar@@QAEXH_N@Z ; ioBaseChar::SetState

; 116  : 
; 117  : 	m_bFirstAttack = true;

  000bf	c6 86 1c 1c 00
	00 01		 mov	 BYTE PTR [esi+7196], 1
  000c6	5e		 pop	 esi

; 118  : }

  000c7	5d		 pop	 ebp
  000c8	c2 08 00	 ret	 8
?SetNormalAttack@ioObjectCountItem@@UAEXPAVioBaseChar@@H@Z ENDP ; ioObjectCountItem::SetNormalAttack
_TEXT	ENDS
PUBLIC	??_C@_0EC@FEPFKJIP@ioObjectCountItem?3?3SetJumpAttack@ ; `string'
PUBLIC	??_C@_0DN@BJJBMBMJ@ioObjectCountItem?3?3SetJumpAttack@ ; `string'
PUBLIC	?SetJumpAttack@ioObjectCountItem@@UAE_NPAVioBaseChar@@HMW4AttackType@@@Z ; ioObjectCountItem::SetJumpAttack
EXTRN	__imp_?GetAnimationIdx@ioEntityGroup@@QAEHABVioHashString@@@Z:PROC
EXTRN	__imp_?PrintTimeAndLog@CLog@@QAAXHPADZZ:PROC
EXTRN	__imp_?LOG@@3VCLog@@A:BYTE
;	COMDAT ??_C@_0EC@FEPFKJIP@ioObjectCountItem?3?3SetJumpAttack@
; File d:\lost saga for developer\youtube\tutorial\source\src\lsclient\iogameentity.h
CONST	SEGMENT
??_C@_0EC@FEPFKJIP@ioObjectCountItem?3?3SetJumpAttack@ DB 'ioObjectCountI'
	DB	'tem::SetJumpAttack - JumpAttack Animation Not Exist', 00H ; `string'
CONST	ENDS
;	COMDAT ??_C@_0DN@BJJBMBMJ@ioObjectCountItem?3?3SetJumpAttack@
CONST	SEGMENT
??_C@_0DN@BJJBMBMJ@ioObjectCountItem?3?3SetJumpAttack@ DB 'ioObjectCountI'
	DB	'tem::SetJumpAttack - AttackAttribute Not Exist', 00H ; `string'
; Function compile flags: /Ogsp
; File d:\lost saga for developer\youtube\tutorial\source\src\lsclient\ioobjectcountitem.cpp
CONST	ENDS
;	COMDAT ?SetJumpAttack@ioObjectCountItem@@UAE_NPAVioBaseChar@@HMW4AttackType@@@Z
_TEXT	SEGMENT
_pOwner$ = 8						; size = 4
_iAniID$ = 12						; size = 4
_fTimeRate$ = 16					; size = 4
_eType$ = 20						; size = 4
?SetJumpAttack@ioObjectCountItem@@UAE_NPAVioBaseChar@@HMW4AttackType@@@Z PROC ; ioObjectCountItem::SetJumpAttack, COMDAT
; _this$ = ecx

; 134  : {

  00000	55		 push	 ebp
  00001	8b ec		 mov	 ebp, esp
  00003	56		 push	 esi
  00004	57		 push	 edi

; 135  : 	if( !pOwner ) 

  00005	8b 7d 08	 mov	 edi, DWORD PTR _pOwner$[ebp]
  00008	8b f1		 mov	 esi, ecx
  0000a	85 ff		 test	 edi, edi

; 136  : 		return false;

  0000c	0f 84 8b 00 00
	00		 je	 $LN11@SetJumpAtt

; 137  : 
; 138  : 	ClearAirJump();

  00012	8b 06		 mov	 eax, DWORD PTR [esi]
  00014	53		 push	 ebx
  00015	ff 90 a8 02 00
	00		 call	 DWORD PTR [eax+680]

; 139  : 	
; 140  : 	const AttackAttribute *pAttr = GetAttackAttribute( AT_JUMP_ATTACK );

  0001b	8b 06		 mov	 eax, DWORD PTR [esi]
  0001d	6a 00		 push	 0
  0001f	6a 03		 push	 3
  00021	8b ce		 mov	 ecx, esi
  00023	ff 90 08 02 00
	00		 call	 DWORD PTR [eax+520]
  00029	8b d8		 mov	 ebx, eax

; 141  : 	if( !pAttr )

  0002b	85 db		 test	 ebx, ebx
  0002d	75 18		 jne	 SHORT $LN2@SetJumpAtt

; 142  : 	{
; 143  : 		LOG.PrintTimeAndLog( 0, "ioObjectCountItem::SetJumpAttack - AttackAttribute Not Exist" );

  0002f	68 00 00 00 00	 push	 OFFSET ??_C@_0DN@BJJBMBMJ@ioObjectCountItem?3?3SetJumpAttack@
$LN10@SetJumpAtt:
  00034	6a 00		 push	 0
  00036	ff 35 00 00 00
	00		 push	 DWORD PTR __imp_?LOG@@3VCLog@@A
  0003c	ff 15 00 00 00
	00		 call	 DWORD PTR __imp_?PrintTimeAndLog@CLog@@QAAXHPADZZ
  00042	83 c4 0c	 add	 esp, 12			; 0000000cH

; 144  : 		return false;

  00045	eb 55		 jmp	 SHORT $LN9@SetJumpAtt
$LN2@SetJumpAtt:

; 145  : 	}
; 146  : 
; 147  : 	ioEntityGroup *pGrp = pOwner->GetGroup();

  00047	8b 4f 04	 mov	 ecx, DWORD PTR [edi+4]

; 148  : 	iAniID = pGrp->GetAnimationIdx( pAttr->m_AttackAnimation );

  0004a	53		 push	 ebx
  0004b	ff 15 00 00 00
	00		 call	 DWORD PTR __imp_?GetAnimationIdx@ioEntityGroup@@QAEHABVioHashString@@@Z

; 149  : 	if( iAniID == -1 )

  00051	83 f8 ff	 cmp	 eax, -1
  00054	75 07		 jne	 SHORT $LN1@SetJumpAtt

; 150  : 	{
; 151  : 		LOG.PrintTimeAndLog( 0, "ioObjectCountItem::SetJumpAttack - JumpAttack Animation Not Exist" );

  00056	68 00 00 00 00	 push	 OFFSET ??_C@_0EC@FEPFKJIP@ioObjectCountItem?3?3SetJumpAttack@

; 152  : 		return false;

  0005b	eb d7		 jmp	 SHORT $LN10@SetJumpAtt
$LN1@SetJumpAtt:

; 153  : 	}
; 154  : 
; 155  : 	m_bSetJumpAttack = true;
; 156  : 
; 157  : 	fTimeRate = pAttr->m_fAttackAniRate;
; 158  : 	SetAirJump( pOwner, iAniID, fTimeRate );

  0005d	8b 16		 mov	 edx, DWORD PTR [esi]
  0005f	51		 push	 ecx
  00060	c6 86 14 1c 00
	00 01		 mov	 BYTE PTR [esi+7188], 1
  00067	f3 0f 10 43 10	 movss	 xmm0, DWORD PTR [ebx+16]
  0006c	f3 0f 11 04 24	 movss	 DWORD PTR [esp], xmm0
  00071	50		 push	 eax
  00072	57		 push	 edi
  00073	8b ce		 mov	 ecx, esi
  00075	ff 92 ac 02 00
	00		 call	 DWORD PTR [edx+684]

; 159  : 
; 160  : 	CheckActiveCount( pOwner );

  0007b	8b 06		 mov	 eax, DWORD PTR [esi]
  0007d	57		 push	 edi
  0007e	8b ce		 mov	 ecx, esi
  00080	ff 90 0c 03 00
	00		 call	 DWORD PTR [eax+780]

; 161  : 
; 162  : 	//콤보수 초기화
; 163  : 	pOwner->ApplyNormalAttackResult( m_iCurCombo, true );

  00086	6a 01		 push	 1
  00088	ff b6 10 1c 00
	00		 push	 DWORD PTR [esi+7184]
  0008e	8b cf		 mov	 ecx, edi
  00090	e8 00 00 00 00	 call	 ?ApplyNormalAttackResult@ioBaseChar@@QAEXH_N@Z ; ioBaseChar::ApplyNormalAttackResult

; 164  : 	m_iCurCombo = 0;

  00095	83 a6 10 1c 00
	00 00		 and	 DWORD PTR [esi+7184], 0
$LN9@SetJumpAtt:
  0009c	5b		 pop	 ebx
$LN11@SetJumpAtt:
  0009d	5f		 pop	 edi

; 165  : 	
; 166  : 	return false;

  0009e	32 c0		 xor	 al, al
  000a0	5e		 pop	 esi

; 167  : }

  000a1	5d		 pop	 ebp
  000a2	c2 10 00	 ret	 16			; 00000010H
?SetJumpAttack@ioObjectCountItem@@UAE_NPAVioBaseChar@@HMW4AttackType@@@Z ENDP ; ioObjectCountItem::SetJumpAttack
_TEXT	ENDS
PUBLIC	?OnItemGaugeOK@ioObjectCountItem@@UAEXPAVioBaseChar@@AAVSP2Packet@@@Z ; ioObjectCountItem::OnItemGaugeOK
EXTRN	?SetTargetRot@ioBaseChar@@QAEXABUD3DXQUATERNION@@@Z:PROC ; ioBaseChar::SetTargetRot
EXTRN	??5SP2Packet@@QAEAAV0@AAUD3DXQUATERNION@@@Z:PROC ; SP2Packet::operator>>
EXTRN	??5SP2Packet@@QAEAAV0@AAH@Z:PROC		; SP2Packet::operator>>
; Function compile flags: /Ogsp
;	COMDAT ?OnItemGaugeOK@ioObjectCountItem@@UAEXPAVioBaseChar@@AAVSP2Packet@@@Z
_TEXT	SEGMENT
_qtRot$619956 = -20					; size = 16
_iState$ = -4						; size = 4
_pOwner$ = 8						; size = 4
_rkPacket$ = 12						; size = 4
?OnItemGaugeOK@ioObjectCountItem@@UAEXPAVioBaseChar@@AAVSP2Packet@@@Z PROC ; ioObjectCountItem::OnItemGaugeOK, COMDAT
; _this$ = ecx

; 200  : {

  00000	55		 push	 ebp
  00001	8b ec		 mov	 ebp, esp
  00003	83 ec 14	 sub	 esp, 20			; 00000014H

; 201  : 	if( !pOwner ) return;

  00006	83 7d 08 00	 cmp	 DWORD PTR _pOwner$[ebp], 0
  0000a	56		 push	 esi
  0000b	8b f1		 mov	 esi, ecx
  0000d	74 43		 je	 SHORT $LN2@OnItemGaug

; 202  : 
; 203  : 	int iState;
; 204  : 	rkPacket >> iState;

  0000f	8b 4d 0c	 mov	 ecx, DWORD PTR _rkPacket$[ebp]
  00012	8d 45 fc	 lea	 eax, DWORD PTR _iState$[ebp]
  00015	50		 push	 eax
  00016	e8 00 00 00 00	 call	 ??5SP2Packet@@QAEAAV0@AAH@Z ; SP2Packet::operator>>

; 205  : 
; 206  : 	switch( iState )

  0001b	8b 45 fc	 mov	 eax, DWORD PTR _iState$[ebp]
  0001e	48		 dec	 eax
  0001f	75 31		 jne	 SHORT $LN2@OnItemGaug

; 207  : 	{
; 208  : 	case OS_ATTACK:
; 209  : 		{
; 210  : 			rkPacket >> m_iCurCombo;

  00021	8b 4d 0c	 mov	 ecx, DWORD PTR _rkPacket$[ebp]
  00024	8d 86 10 1c 00
	00		 lea	 eax, DWORD PTR [esi+7184]
  0002a	50		 push	 eax
  0002b	e8 00 00 00 00	 call	 ??5SP2Packet@@QAEAAV0@AAH@Z ; SP2Packet::operator>>

; 211  : 
; 212  : 			D3DXQUATERNION qtRot;
; 213  : 			rkPacket >> qtRot;

  00030	8b 4d 0c	 mov	 ecx, DWORD PTR _rkPacket$[ebp]
  00033	8d 45 ec	 lea	 eax, DWORD PTR _qtRot$619956[ebp]
  00036	50		 push	 eax
  00037	e8 00 00 00 00	 call	 ??5SP2Packet@@QAEAAV0@AAUD3DXQUATERNION@@@Z ; SP2Packet::operator>>

; 214  : 			pOwner->SetTargetRot( qtRot );

  0003c	8b 4d 08	 mov	 ecx, DWORD PTR _pOwner$[ebp]
  0003f	8d 45 ec	 lea	 eax, DWORD PTR _qtRot$619956[ebp]
  00042	50		 push	 eax
  00043	e8 00 00 00 00	 call	 ?SetTargetRot@ioBaseChar@@QAEXABUD3DXQUATERNION@@@Z ; ioBaseChar::SetTargetRot

; 215  : 
; 216  : 			SetAttackState( pOwner );

  00048	ff 75 08	 push	 DWORD PTR _pOwner$[ebp]
  0004b	8b ce		 mov	 ecx, esi
  0004d	e8 00 00 00 00	 call	 ?SetAttackState@ioObjectCountItem@@IAEXPAVioBaseChar@@@Z ; ioObjectCountItem::SetAttackState
$LN2@OnItemGaug:
  00052	5e		 pop	 esi

; 217  : 		}
; 218  : 		break;
; 219  : 	}
; 220  : }

  00053	c9		 leave
  00054	c2 08 00	 ret	 8
?OnItemGaugeOK@ioObjectCountItem@@UAEXPAVioBaseChar@@AAVSP2Packet@@@Z ENDP ; ioObjectCountItem::OnItemGaugeOK
_TEXT	ENDS
PUBLIC	?CheckActiveCount@ioObjectCountItem@@UAEXPAVioBaseChar@@@Z ; ioObjectCountItem::CheckActiveCount
EXTRN	?GetBuff@ioBaseChar@@QAEPAVioBuff@@ABVioHashString@@@Z:PROC ; ioBaseChar::GetBuff
EXTRN	__imp_?IsEmpty@ioHashString@@QBE_NXZ:PROC
EXTRN	?CheckActiveCount@ioObjectItem@@UAEXPAVioBaseChar@@@Z:PROC ; ioObjectItem::CheckActiveCount
; Function compile flags: /Ogsp
;	COMDAT ?CheckActiveCount@ioObjectCountItem@@UAEXPAVioBaseChar@@@Z
_TEXT	SEGMENT
_pOwner$ = 8						; size = 4
?CheckActiveCount@ioObjectCountItem@@UAEXPAVioBaseChar@@@Z PROC ; ioObjectCountItem::CheckActiveCount, COMDAT
; _this$ = ecx

; 436  : {

  00000	55		 push	 ebp
  00001	8b ec		 mov	 ebp, esp
  00003	56		 push	 esi

; 437  : 	ioObjectItem::CheckActiveCount( pOwner );

  00004	ff 75 08	 push	 DWORD PTR _pOwner$[ebp]
  00007	8b f1		 mov	 esi, ecx
  00009	e8 00 00 00 00	 call	 ?CheckActiveCount@ioObjectItem@@UAEXPAVioBaseChar@@@Z ; ioObjectItem::CheckActiveCount

; 438  : 
; 439  : 	if( !pOwner || !m_bSetUseCount )

  0000e	83 7d 08 00	 cmp	 DWORD PTR _pOwner$[ebp], 0
  00012	74 36		 je	 SHORT $LN3@CheckActiv
  00014	80 be f4 1b 00
	00 00		 cmp	 BYTE PTR [esi+7156], 0
  0001b	74 2d		 je	 SHORT $LN3@CheckActiv

; 440  : 		return;
; 441  : 
; 442  : 	if( !m_ActiveCountBuff.IsEmpty() )

  0001d	81 c6 04 1b 00
	00		 add	 esi, 6916		; 00001b04H
  00023	8b ce		 mov	 ecx, esi
  00025	ff 15 00 00 00
	00		 call	 DWORD PTR __imp_?IsEmpty@ioHashString@@QBE_NXZ
  0002b	84 c0		 test	 al, al
  0002d	75 1b		 jne	 SHORT $LN3@CheckActiv

; 443  : 	{
; 444  : 		ioBuff *pBuff = pOwner->GetBuff( m_ActiveCountBuff );

  0002f	8b 4d 08	 mov	 ecx, DWORD PTR _pOwner$[ebp]
  00032	56		 push	 esi
  00033	e8 00 00 00 00	 call	 ?GetBuff@ioBaseChar@@QAEPAVioBuff@@ABVioHashString@@@Z ; ioBaseChar::GetBuff

; 445  : 		ioActiveCountBuff2* pActivetBuff = ToActiveCountBuff2( pBuff );

  00038	50		 push	 eax
  00039	e8 00 00 00 00	 call	 ?ToActiveCountBuff2@@YAPAVioActiveCountBuff2@@PAVioBuff@@@Z ; ToActiveCountBuff2
  0003e	59		 pop	 ecx

; 446  : 		if( pActivetBuff )

  0003f	85 c0		 test	 eax, eax
  00041	74 07		 je	 SHORT $LN3@CheckActiv

; 447  : 			pActivetBuff->CheckActiveCount();

  00043	8b 10		 mov	 edx, DWORD PTR [eax]
  00045	8b c8		 mov	 ecx, eax
  00047	ff 52 58	 call	 DWORD PTR [edx+88]
$LN3@CheckActiv:
  0004a	5e		 pop	 esi

; 448  : 	}
; 449  : }

  0004b	5d		 pop	 ebp
  0004c	c2 04 00	 ret	 4
?CheckActiveCount@ioObjectCountItem@@UAEXPAVioBaseChar@@@Z ENDP ; ioObjectCountItem::CheckActiveCount
_TEXT	ENDS
PUBLIC	??O?$CEncrypt@K@@QAE_NABH@Z			; CEncrypt<unsigned long>::operator>
; Function compile flags: /Ogsp
; File d:\lost saga for developer\youtube\tutorial\source\src\lsclient\encryptvalue.h
;	COMDAT ??O?$CEncrypt@K@@QAE_NABH@Z
_TEXT	SEGMENT
_value$ = -4						; size = 4
_inValue$ = 8						; size = 4
??O?$CEncrypt@K@@QAE_NABH@Z PROC			; CEncrypt<unsigned long>::operator>, COMDAT
; _this$ = ecx

; 1009 : 	{

  00000	55		 push	 ebp
  00001	8b ec		 mov	 ebp, esp
  00003	51		 push	 ecx

; 1010 : 		
; 1011 : 		type value;
; 1012 : 		DecryptValueToPool(&value);

  00004	8d 45 fc	 lea	 eax, DWORD PTR _value$[ebp]
  00007	50		 push	 eax
  00008	e8 00 00 00 00	 call	 ?DecryptValueToPool@?$CEncrypt@K@@QAEXPAK@Z ; CEncrypt<unsigned long>::DecryptValueToPool

; 1013 : #ifdef _NOTUSE
; 1014 : 		Debug();
; 1015 : #endif
; 1016 : 		return (value > inValue);

  0000d	8b 45 08	 mov	 eax, DWORD PTR _inValue$[ebp]
  00010	8b 00		 mov	 eax, DWORD PTR [eax]
  00012	3b 45 fc	 cmp	 eax, DWORD PTR _value$[ebp]
  00015	1b c0		 sbb	 eax, eax
  00017	f7 d8		 neg	 eax

; 1017 : 	}		

  00019	c9		 leave
  0001a	c2 04 00	 ret	 4
??O?$CEncrypt@K@@QAE_NABH@Z ENDP			; CEncrypt<unsigned long>::operator>
_TEXT	ENDS
PUBLIC	??9?$_List_const_iterator@V?$_List_val@MV?$allocator@M@std@@@std@@@std@@QBE_NABV01@@Z ; std::_List_const_iterator<std::_List_val<float,std::allocator<float> > >::operator!=
; Function compile flags: /Ogsp
; File c:\program files (x86)\microsoft visual studio 10.0\vc\include\list
;	COMDAT ??9?$_List_const_iterator@V?$_List_val@MV?$allocator@M@std@@@std@@@std@@QBE_NABV01@@Z
_TEXT	SEGMENT
__Right$ = 8						; size = 4
??9?$_List_const_iterator@V?$_List_val@MV?$allocator@M@std@@@std@@@std@@QBE_NABV01@@Z PROC ; std::_List_const_iterator<std::_List_val<float,std::allocator<float> > >::operator!=, COMDAT
; _this$ = ecx

; 299  : 		{	// test for iterator inequality

  00000	55		 push	 ebp
  00001	8b ec		 mov	 ebp, esp

; 300  : 		return (!(*this == _Right));

  00003	8b 01		 mov	 eax, DWORD PTR [ecx]
  00005	8b 55 08	 mov	 edx, DWORD PTR __Right$[ebp]
  00008	33 c9		 xor	 ecx, ecx
  0000a	3b 02		 cmp	 eax, DWORD PTR [edx]
  0000c	0f 95 c0	 setne	 al

; 301  : 		}

  0000f	5d		 pop	 ebp
  00010	c2 04 00	 ret	 4
??9?$_List_const_iterator@V?$_List_val@MV?$allocator@M@std@@@std@@@std@@QBE_NABV01@@Z ENDP ; std::_List_const_iterator<std::_List_val<float,std::allocator<float> > >::operator!=
_TEXT	ENDS
PUBLIC	?begin@?$vector@KV?$allocator@K@std@@@std@@QBE?AV?$_Vector_const_iterator@V?$_Vector_val@KV?$allocator@K@std@@@std@@@2@XZ ; std::vector<unsigned long,std::allocator<unsigned long> >::begin
; Function compile flags: /Ogsp
; File c:\program files (x86)\microsoft visual studio 10.0\vc\include\vector
;	COMDAT ?begin@?$vector@KV?$allocator@K@std@@@std@@QBE?AV?$_Vector_const_iterator@V?$_Vector_val@KV?$allocator@K@std@@@std@@@2@XZ
_TEXT	SEGMENT
___$ReturnUdt$ = 8					; size = 4
?begin@?$vector@KV?$allocator@K@std@@@std@@QBE?AV?$_Vector_const_iterator@V?$_Vector_val@KV?$allocator@K@std@@@std@@@2@XZ PROC ; std::vector<unsigned long,std::allocator<unsigned long> >::begin, COMDAT
; _this$ = ecx

; 786  : 		{	// return iterator for beginning of nonmutable sequence

  00000	55		 push	 ebp
  00001	8b ec		 mov	 ebp, esp

; 787  : 		return (const_iterator(this->_Myfirst, this));

  00003	8b 09		 mov	 ecx, DWORD PTR [ecx]
  00005	8b 45 08	 mov	 eax, DWORD PTR ___$ReturnUdt$[ebp]
  00008	89 08		 mov	 DWORD PTR [eax], ecx

; 788  : 		}

  0000a	5d		 pop	 ebp
  0000b	c2 04 00	 ret	 4
?begin@?$vector@KV?$allocator@K@std@@@std@@QBE?AV?$_Vector_const_iterator@V?$_Vector_val@KV?$allocator@K@std@@@std@@@2@XZ ENDP ; std::vector<unsigned long,std::allocator<unsigned long> >::begin
_TEXT	ENDS
PUBLIC	?end@?$vector@KV?$allocator@K@std@@@std@@QBE?AV?$_Vector_const_iterator@V?$_Vector_val@KV?$allocator@K@std@@@std@@@2@XZ ; std::vector<unsigned long,std::allocator<unsigned long> >::end
; Function compile flags: /Ogsp
;	COMDAT ?end@?$vector@KV?$allocator@K@std@@@std@@QBE?AV?$_Vector_const_iterator@V?$_Vector_val@KV?$allocator@K@std@@@std@@@2@XZ
_TEXT	SEGMENT
___$ReturnUdt$ = 8					; size = 4
?end@?$vector@KV?$allocator@K@std@@@std@@QBE?AV?$_Vector_const_iterator@V?$_Vector_val@KV?$allocator@K@std@@@std@@@2@XZ PROC ; std::vector<unsigned long,std::allocator<unsigned long> >::end, COMDAT
; _this$ = ecx

; 796  : 		{	// return iterator for end of nonmutable sequence

  00000	55		 push	 ebp
  00001	8b ec		 mov	 ebp, esp

; 797  : 		return (const_iterator(this->_Mylast, this));

  00003	8b 49 04	 mov	 ecx, DWORD PTR [ecx+4]
  00006	8b 45 08	 mov	 eax, DWORD PTR ___$ReturnUdt$[ebp]
  00009	89 08		 mov	 DWORD PTR [eax], ecx

; 798  : 		}

  0000b	5d		 pop	 ebp
  0000c	c2 04 00	 ret	 4
?end@?$vector@KV?$allocator@K@std@@@std@@QBE?AV?$_Vector_const_iterator@V?$_Vector_val@KV?$allocator@K@std@@@std@@@2@XZ ENDP ; std::vector<unsigned long,std::allocator<unsigned long> >::end
_TEXT	ENDS
PUBLIC	??1?$_List_val@MV?$allocator@M@std@@@std@@QAE@XZ ; std::_List_val<float,std::allocator<float> >::~_List_val<float,std::allocator<float> >
; Function compile flags: /Ogsp
; File c:\program files (x86)\microsoft visual studio 10.0\vc\include\list
;	COMDAT ??1?$_List_val@MV?$allocator@M@std@@@std@@QAE@XZ
_TEXT	SEGMENT
??1?$_List_val@MV?$allocator@M@std@@@std@@QAE@XZ PROC	; std::_List_val<float,std::allocator<float> >::~_List_val<float,std::allocator<float> >, COMDAT
; _this$ = ecx

; 502  : 		this->_Alnod.deallocate(this->_Myhead, 1);

  00000	ff 31		 push	 DWORD PTR [ecx]
  00002	e8 00 00 00 00	 call	 ??3@YAXPAX@Z		; operator delete
  00007	59		 pop	 ecx

; 503  : 		}

  00008	c3		 ret	 0
??1?$_List_val@MV?$allocator@M@std@@@std@@QAE@XZ ENDP	; std::_List_val<float,std::allocator<float> >::~_List_val<float,std::allocator<float> >
_TEXT	ENDS
PUBLIC	??E?$_List_iterator@V?$_List_val@MV?$allocator@M@std@@@std@@@std@@QAEAAV01@XZ ; std::_List_iterator<std::_List_val<float,std::allocator<float> > >::operator++
; Function compile flags: /Ogsp
;	COMDAT ??E?$_List_iterator@V?$_List_val@MV?$allocator@M@std@@@std@@@std@@QAEAAV01@XZ
_TEXT	SEGMENT
??E?$_List_iterator@V?$_List_val@MV?$allocator@M@std@@@std@@@std@@QAEAAV01@XZ PROC ; std::_List_iterator<std::_List_val<float,std::allocator<float> > >::operator++, COMDAT
; _this$ = ecx

; 369  : 		{	// preincrement

  00000	8b c1		 mov	 eax, ecx

; 370  : 		++(*(_Mybase *)this);

  00002	8b 08		 mov	 ecx, DWORD PTR [eax]
  00004	8b 09		 mov	 ecx, DWORD PTR [ecx]
  00006	89 08		 mov	 DWORD PTR [eax], ecx

; 371  : 		return (*this);
; 372  : 		}

  00008	c3		 ret	 0
??E?$_List_iterator@V?$_List_val@MV?$allocator@M@std@@@std@@@std@@QAEAAV01@XZ ENDP ; std::_List_iterator<std::_List_val<float,std::allocator<float> > >::operator++
_TEXT	ENDS
PUBLIC	??D?$_List_const_iterator@V?$_List_val@MV?$allocator@M@std@@@std@@@std@@QBEABMXZ ; std::_List_const_iterator<std::_List_val<float,std::allocator<float> > >::operator*
; Function compile flags: /Ogsp
;	COMDAT ??D?$_List_const_iterator@V?$_List_val@MV?$allocator@M@std@@@std@@@std@@QBEABMXZ
_TEXT	SEGMENT
??D?$_List_const_iterator@V?$_List_val@MV?$allocator@M@std@@@std@@@std@@QBEABMXZ PROC ; std::_List_const_iterator<std::_List_val<float,std::allocator<float> > >::operator*, COMDAT
; _this$ = ecx

; 202  :  #if _ITERATOR_DEBUG_LEVEL == 2
; 203  : 		if (this->_Getcont() == 0
; 204  : 			|| this->_Ptr == 0
; 205  : 			|| this->_Ptr == ((_Mylist *)this->_Getcont())->_Myhead)
; 206  : 			{	// report error
; 207  : 			_DEBUG_ERROR("list iterator not dereferencable");
; 208  : 			_SCL_SECURE_OUT_OF_RANGE;
; 209  : 			}
; 210  : 
; 211  :  #elif _ITERATOR_DEBUG_LEVEL == 1
; 212  : 		_SCL_SECURE_VALIDATE(this->_Getcont() != 0 && this->_Ptr != 0);
; 213  : 		_SCL_SECURE_VALIDATE_RANGE(this->_Ptr !=
; 214  : 			((_Mylist *)this->_Getcont())->_Myhead);
; 215  :  #endif /* _ITERATOR_DEBUG_LEVEL */
; 216  : 
; 217  : 		return (_Mylist::_Myval(this->_Ptr));

  00000	8b 01		 mov	 eax, DWORD PTR [ecx]
  00002	83 c0 08	 add	 eax, 8

; 218  : 		}

  00005	c3		 ret	 0
??D?$_List_const_iterator@V?$_List_val@MV?$allocator@M@std@@@std@@@std@@QBEABMXZ ENDP ; std::_List_const_iterator<std::_List_val<float,std::allocator<float> > >::operator*
_TEXT	ENDS
PUBLIC	??0?$_List_nod@MV?$allocator@M@std@@@std@@QAE@V?$allocator@M@1@@Z ; std::_List_nod<float,std::allocator<float> >::_List_nod<float,std::allocator<float> >
; Function compile flags: /Ogsp
;	COMDAT ??0?$_List_nod@MV?$allocator@M@std@@@std@@QAE@V?$allocator@M@1@@Z
_TEXT	SEGMENT
__Al$ = 8						; size = 1
??0?$_List_nod@MV?$allocator@M@std@@@std@@QAE@V?$allocator@M@1@@Z PROC ; std::_List_nod<float,std::allocator<float> >::_List_nod<float,std::allocator<float> >, COMDAT
; _this$ = ecx

; 438  : 		{	// construct allocators from _Al

  00000	8b c1		 mov	 eax, ecx

; 439  : 		}

  00002	c2 04 00	 ret	 4
??0?$_List_nod@MV?$allocator@M@std@@@std@@QAE@V?$allocator@M@1@@Z ENDP ; std::_List_nod<float,std::allocator<float> >::_List_nod<float,std::allocator<float> >
_TEXT	ENDS
PUBLIC	?allocate@?$allocator@U_Node@?$_List_nod@MV?$allocator@M@std@@@std@@@std@@QAEPAU_Node@?$_List_nod@MV?$allocator@M@std@@@2@I@Z ; std::allocator<std::_List_nod<float,std::allocator<float> >::_Node>::allocate
; Function compile flags: /Ogsp
; File c:\program files (x86)\microsoft visual studio 10.0\vc\include\xmemory
;	COMDAT ?allocate@?$allocator@U_Node@?$_List_nod@MV?$allocator@M@std@@@std@@@std@@QAEPAU_Node@?$_List_nod@MV?$allocator@M@std@@@2@I@Z
_TEXT	SEGMENT
__Count$ = 8						; size = 4
?allocate@?$allocator@U_Node@?$_List_nod@MV?$allocator@M@std@@@std@@@std@@QAEPAU_Node@?$_List_nod@MV?$allocator@M@std@@@2@I@Z PROC ; std::allocator<std::_List_nod<float,std::allocator<float> >::_Node>::allocate, COMDAT
; _this$ = ecx

; 186  : 		{	// allocate array of _Count elements

  00000	55		 push	 ebp
  00001	8b ec		 mov	 ebp, esp

; 187  : 		return (_Allocate(_Count, (pointer)0));

  00003	6a 00		 push	 0
  00005	ff 75 08	 push	 DWORD PTR __Count$[ebp]
  00008	e8 00 00 00 00	 call	 ??$_Allocate@U_Node@?$_List_nod@MV?$allocator@M@std@@@std@@@std@@YAPAU_Node@?$_List_nod@MV?$allocator@M@std@@@0@IPAU120@@Z ; std::_Allocate<std::_List_nod<float,std::allocator<float> >::_Node>
  0000d	59		 pop	 ecx
  0000e	59		 pop	 ecx

; 188  : 		}

  0000f	5d		 pop	 ebp
  00010	c2 04 00	 ret	 4
?allocate@?$allocator@U_Node@?$_List_nod@MV?$allocator@M@std@@@std@@@std@@QAEPAU_Node@?$_List_nod@MV?$allocator@M@std@@@2@I@Z ENDP ; std::allocator<std::_List_nod<float,std::allocator<float> >::_Node>::allocate
_TEXT	ENDS
PUBLIC	??0?$_List_const_iterator@V?$_List_val@MV?$allocator@M@std@@@std@@@std@@QAE@PAU_Node@?$_List_nod@MV?$allocator@M@std@@@1@PBV?$_List_val@MV?$allocator@M@std@@@1@@Z ; std::_List_const_iterator<std::_List_val<float,std::allocator<float> > >::_List_const_iterator<std::_List_val<float,std::allocator<float> > >
; Function compile flags: /Ogsp
; File c:\program files (x86)\microsoft visual studio 10.0\vc\include\list
;	COMDAT ??0?$_List_const_iterator@V?$_List_val@MV?$allocator@M@std@@@std@@@std@@QAE@PAU_Node@?$_List_nod@MV?$allocator@M@std@@@1@PBV?$_List_val@MV?$allocator@M@std@@@1@@Z
_TEXT	SEGMENT
__Pnode$ = 8						; size = 4
__Plist$ = 12						; size = 4
??0?$_List_const_iterator@V?$_List_val@MV?$allocator@M@std@@@std@@@std@@QAE@PAU_Node@?$_List_nod@MV?$allocator@M@std@@@1@PBV?$_List_val@MV?$allocator@M@std@@@1@@Z PROC ; std::_List_const_iterator<std::_List_val<float,std::allocator<float> > >::_List_const_iterator<std::_List_val<float,std::allocator<float> > >, COMDAT
; _this$ = ecx

; 184  : 		{	// construct with node pointer _Pnode

  00000	55		 push	 ebp
  00001	8b ec		 mov	 ebp, esp
  00003	8b c1		 mov	 eax, ecx
  00005	8b 4d 08	 mov	 ecx, DWORD PTR __Pnode$[ebp]
  00008	89 08		 mov	 DWORD PTR [eax], ecx

; 185  : 		}

  0000a	5d		 pop	 ebp
  0000b	c2 08 00	 ret	 8
??0?$_List_const_iterator@V?$_List_val@MV?$allocator@M@std@@@std@@@std@@QAE@PAU_Node@?$_List_nod@MV?$allocator@M@std@@@1@PBV?$_List_val@MV?$allocator@M@std@@@1@@Z ENDP ; std::_List_const_iterator<std::_List_val<float,std::allocator<float> > >::_List_const_iterator<std::_List_val<float,std::allocator<float> > >
_TEXT	ENDS
PUBLIC	__$ArrayPad$
PUBLIC	??$LoadBool_e@$0BG@@ioINILoader@@QAE_NAAY0BG@$$CBD_N@Z ; ioINILoader::LoadBool_e<22>
EXTRN	__imp_?LoadBool@ioINILoader@@QAE_NPBD_N@Z:PROC
; Function compile flags: /Ogsp
; File d:\lost saga for developer\youtube\tutorial\source\src\io3dengine\ioiniloader.h
;	COMDAT ??$LoadBool_e@$0BG@@ioINILoader@@QAE_NAAY0BG@$$CBD_N@Z
_TEXT	SEGMENT
__k$ = -32						; size = 22
__$ArrayPad$ = -4					; size = 4
_k$ = 8							; size = 4
_b$ = 12						; size = 1
??$LoadBool_e@$0BG@@ioINILoader@@QAE_NAAY0BG@$$CBD_N@Z PROC ; ioINILoader::LoadBool_e<22>, COMDAT
; _this$ = ecx

; 101  : 	{

  00000	55		 push	 ebp
  00001	8b ec		 mov	 ebp, esp
  00003	83 ec 20	 sub	 esp, 32			; 00000020H
  00006	a1 00 00 00 00	 mov	 eax, DWORD PTR ___security_cookie
  0000b	33 c5		 xor	 eax, ebp
  0000d	89 45 fc	 mov	 DWORD PTR __$ArrayPad$[ebp], eax
  00010	8b 45 08	 mov	 eax, DWORD PTR _k$[ebp]

; 102  : 		_ENCSTR(k, _k);

  00013	8a 10		 mov	 dl, BYTE PTR [eax]
  00015	53		 push	 ebx
  00016	56		 push	 esi
  00017	8b f1		 mov	 esi, ecx
  00019	84 d2		 test	 dl, dl
  0001b	0f 84 15 02 00
	00		 je	 $LN96@LoadBool_e
  00021	80 f2 ed	 xor	 dl, -19			; ffffffedH
  00024	88 55 e0	 mov	 BYTE PTR __k$[ebp], dl
  00027	8a 50 01	 mov	 dl, BYTE PTR [eax+1]
  0002a	84 d2		 test	 dl, dl
  0002c	0f 84 fe 01 00
	00		 je	 $LN95@LoadBool_e
  00032	80 f2 ec	 xor	 dl, -20			; ffffffecH
  00035	88 55 e1	 mov	 BYTE PTR __k$[ebp+1], dl
  00038	8a 50 02	 mov	 dl, BYTE PTR [eax+2]
  0003b	84 d2		 test	 dl, dl
  0003d	0f 84 e7 01 00
	00		 je	 $LN94@LoadBool_e
  00043	b1 eb		 mov	 cl, -21			; ffffffebH
  00045	32 d1		 xor	 dl, cl
  00047	88 55 e2	 mov	 BYTE PTR __k$[ebp+2], dl
  0004a	8a 50 03	 mov	 dl, BYTE PTR [eax+3]
  0004d	84 d2		 test	 dl, dl
  0004f	0f 84 cf 01 00
	00		 je	 $LN93@LoadBool_e
  00055	b3 ea		 mov	 bl, -22			; ffffffeaH
  00057	32 d3		 xor	 dl, bl
  00059	88 55 e3	 mov	 BYTE PTR __k$[ebp+3], dl
  0005c	8a 50 04	 mov	 dl, BYTE PTR [eax+4]
  0005f	84 d2		 test	 dl, dl
  00061	0f 84 b7 01 00
	00		 je	 $LN92@LoadBool_e
  00067	80 f2 ed	 xor	 dl, -19			; ffffffedH
  0006a	88 55 e4	 mov	 BYTE PTR __k$[ebp+4], dl
  0006d	8a 50 05	 mov	 dl, BYTE PTR [eax+5]
  00070	84 d2		 test	 dl, dl
  00072	0f 84 a0 01 00
	00		 je	 $LN91@LoadBool_e
  00078	80 f2 ec	 xor	 dl, -20			; ffffffecH
  0007b	88 55 e5	 mov	 BYTE PTR __k$[ebp+5], dl
  0007e	8a 50 06	 mov	 dl, BYTE PTR [eax+6]
  00081	84 d2		 test	 dl, dl
  00083	0f 84 8a 01 00
	00		 je	 $LN90@LoadBool_e
  00089	32 d1		 xor	 dl, cl
  0008b	88 55 e6	 mov	 BYTE PTR __k$[ebp+6], dl
  0008e	8a 50 07	 mov	 dl, BYTE PTR [eax+7]
  00091	84 d2		 test	 dl, dl
  00093	0f 84 75 01 00
	00		 je	 $LN89@LoadBool_e
  00099	32 d3		 xor	 dl, bl
  0009b	88 55 e7	 mov	 BYTE PTR __k$[ebp+7], dl
  0009e	8a 50 08	 mov	 dl, BYTE PTR [eax+8]
  000a1	84 d2		 test	 dl, dl
  000a3	0f 84 5f 01 00
	00		 je	 $LN88@LoadBool_e
  000a9	80 f2 ed	 xor	 dl, -19			; ffffffedH
  000ac	88 55 e8	 mov	 BYTE PTR __k$[ebp+8], dl
  000af	8a 50 09	 mov	 dl, BYTE PTR [eax+9]
  000b2	84 d2		 test	 dl, dl
  000b4	0f 84 48 01 00
	00		 je	 $LN87@LoadBool_e
  000ba	80 f2 ec	 xor	 dl, -20			; ffffffecH
  000bd	88 55 e9	 mov	 BYTE PTR __k$[ebp+9], dl
  000c0	8a 50 0a	 mov	 dl, BYTE PTR [eax+10]
  000c3	84 d2		 test	 dl, dl
  000c5	0f 84 32 01 00
	00		 je	 $LN86@LoadBool_e
  000cb	32 d1		 xor	 dl, cl
  000cd	88 55 ea	 mov	 BYTE PTR __k$[ebp+10], dl
  000d0	8a 50 0b	 mov	 dl, BYTE PTR [eax+11]
  000d3	84 d2		 test	 dl, dl
  000d5	0f 84 1d 01 00
	00		 je	 $LN85@LoadBool_e
  000db	32 d3		 xor	 dl, bl
  000dd	88 55 eb	 mov	 BYTE PTR __k$[ebp+11], dl
  000e0	8a 50 0c	 mov	 dl, BYTE PTR [eax+12]
  000e3	84 d2		 test	 dl, dl
  000e5	0f 84 07 01 00
	00		 je	 $LN84@LoadBool_e
  000eb	80 f2 ed	 xor	 dl, -19			; ffffffedH
  000ee	88 55 ec	 mov	 BYTE PTR __k$[ebp+12], dl
  000f1	8a 50 0d	 mov	 dl, BYTE PTR [eax+13]
  000f4	84 d2		 test	 dl, dl
  000f6	0f 84 f0 00 00
	00		 je	 $LN83@LoadBool_e
  000fc	80 f2 ec	 xor	 dl, -20			; ffffffecH
  000ff	88 55 ed	 mov	 BYTE PTR __k$[ebp+13], dl
  00102	8a 50 0e	 mov	 dl, BYTE PTR [eax+14]
  00105	84 d2		 test	 dl, dl
  00107	0f 84 da 00 00
	00		 je	 $LN82@LoadBool_e
  0010d	32 d1		 xor	 dl, cl
  0010f	88 55 ee	 mov	 BYTE PTR __k$[ebp+14], dl
  00112	8a 50 0f	 mov	 dl, BYTE PTR [eax+15]
  00115	84 d2		 test	 dl, dl
  00117	0f 84 c5 00 00
	00		 je	 $LN81@LoadBool_e
  0011d	32 d3		 xor	 dl, bl
  0011f	88 55 ef	 mov	 BYTE PTR __k$[ebp+15], dl
  00122	8a 50 10	 mov	 dl, BYTE PTR [eax+16]
  00125	84 d2		 test	 dl, dl
  00127	0f 84 af 00 00
	00		 je	 $LN80@LoadBool_e
  0012d	80 f2 ed	 xor	 dl, -19			; ffffffedH
  00130	88 55 f0	 mov	 BYTE PTR __k$[ebp+16], dl
  00133	8a 50 11	 mov	 dl, BYTE PTR [eax+17]
  00136	84 d2		 test	 dl, dl
  00138	0f 84 98 00 00
	00		 je	 $LN79@LoadBool_e
  0013e	80 f2 ec	 xor	 dl, -20			; ffffffecH
  00141	88 55 f1	 mov	 BYTE PTR __k$[ebp+17], dl
  00144	8a 50 12	 mov	 dl, BYTE PTR [eax+18]
  00147	84 d2		 test	 dl, dl
  00149	0f 84 82 00 00
	00		 je	 $LN78@LoadBool_e
  0014f	32 d1		 xor	 dl, cl
  00151	88 55 f2	 mov	 BYTE PTR __k$[ebp+18], dl
  00154	8a 50 13	 mov	 dl, BYTE PTR [eax+19]
  00157	84 d2		 test	 dl, dl
  00159	74 71		 je	 SHORT $LN77@LoadBool_e
  0015b	32 d3		 xor	 dl, bl
  0015d	88 55 f3	 mov	 BYTE PTR __k$[ebp+19], dl
  00160	8a 50 14	 mov	 dl, BYTE PTR [eax+20]
  00163	84 d2		 test	 dl, dl
  00165	74 5f		 je	 SHORT $LN76@LoadBool_e
  00167	80 f2 ed	 xor	 dl, -19			; ffffffedH
  0016a	80 78 15 00	 cmp	 BYTE PTR [eax+21], 0
  0016e	88 55 f4	 mov	 BYTE PTR __k$[ebp+20], dl
  00171	0f 84 c3 00 00
	00		 je	 $LN1@LoadBool_e
  00177	8a 50 16	 mov	 dl, BYTE PTR [eax+22]
  0017a	84 d2		 test	 dl, dl
  0017c	74 43		 je	 SHORT $LN74@LoadBool_e
  0017e	32 d1		 xor	 dl, cl
  00180	88 55 f6	 mov	 BYTE PTR __k$[ebp+22], dl
  00183	8a 50 17	 mov	 dl, BYTE PTR [eax+23]
  00186	84 d2		 test	 dl, dl
  00188	74 32		 je	 SHORT $LN73@LoadBool_e
  0018a	32 d3		 xor	 dl, bl
  0018c	88 55 f7	 mov	 BYTE PTR __k$[ebp+23], dl
  0018f	8a 50 18	 mov	 dl, BYTE PTR [eax+24]
  00192	84 d2		 test	 dl, dl
  00194	74 20		 je	 SHORT $LN72@LoadBool_e
  00196	8a 40 19	 mov	 al, BYTE PTR [eax+25]
  00199	80 f2 ed	 xor	 dl, -19			; ffffffedH
  0019c	88 55 f8	 mov	 BYTE PTR __k$[ebp+24], dl
  0019f	84 c0		 test	 al, al
  001a1	74 0a		 je	 SHORT $LN71@LoadBool_e
  001a3	34 ec		 xor	 al, -20			; ffffffecH
  001a5	88 45 f9	 mov	 BYTE PTR __k$[ebp+25], al
  001a8	e9 8d 00 00 00	 jmp	 $LN1@LoadBool_e
$LN71@LoadBool_e:
  001ad	c6 45 f9 ec	 mov	 BYTE PTR __k$[ebp+25], -20 ; ffffffecH
  001b1	e9 84 00 00 00	 jmp	 $LN1@LoadBool_e
$LN72@LoadBool_e:
  001b6	c6 45 f8 ed	 mov	 BYTE PTR __k$[ebp+24], -19 ; ffffffedH
  001ba	eb 7e		 jmp	 SHORT $LN1@LoadBool_e
$LN73@LoadBool_e:
  001bc	88 5d f7	 mov	 BYTE PTR __k$[ebp+23], bl
  001bf	eb 79		 jmp	 SHORT $LN1@LoadBool_e
$LN74@LoadBool_e:
  001c1	88 4d f6	 mov	 BYTE PTR __k$[ebp+22], cl
  001c4	eb 74		 jmp	 SHORT $LN1@LoadBool_e
$LN76@LoadBool_e:
  001c6	c6 45 f4 ed	 mov	 BYTE PTR __k$[ebp+20], -19 ; ffffffedH
  001ca	eb 6e		 jmp	 SHORT $LN1@LoadBool_e
$LN77@LoadBool_e:
  001cc	88 5d f3	 mov	 BYTE PTR __k$[ebp+19], bl
  001cf	eb 69		 jmp	 SHORT $LN1@LoadBool_e
$LN78@LoadBool_e:
  001d1	88 4d f2	 mov	 BYTE PTR __k$[ebp+18], cl
  001d4	eb 64		 jmp	 SHORT $LN1@LoadBool_e
$LN79@LoadBool_e:
  001d6	c6 45 f1 ec	 mov	 BYTE PTR __k$[ebp+17], -20 ; ffffffecH
  001da	eb 5e		 jmp	 SHORT $LN1@LoadBool_e
$LN80@LoadBool_e:
  001dc	c6 45 f0 ed	 mov	 BYTE PTR __k$[ebp+16], -19 ; ffffffedH
  001e0	eb 58		 jmp	 SHORT $LN1@LoadBool_e
$LN81@LoadBool_e:
  001e2	88 5d ef	 mov	 BYTE PTR __k$[ebp+15], bl
  001e5	eb 53		 jmp	 SHORT $LN1@LoadBool_e
$LN82@LoadBool_e:
  001e7	88 4d ee	 mov	 BYTE PTR __k$[ebp+14], cl
  001ea	eb 4e		 jmp	 SHORT $LN1@LoadBool_e
$LN83@LoadBool_e:
  001ec	c6 45 ed ec	 mov	 BYTE PTR __k$[ebp+13], -20 ; ffffffecH
  001f0	eb 48		 jmp	 SHORT $LN1@LoadBool_e
$LN84@LoadBool_e:
  001f2	c6 45 ec ed	 mov	 BYTE PTR __k$[ebp+12], -19 ; ffffffedH
  001f6	eb 42		 jmp	 SHORT $LN1@LoadBool_e
$LN85@LoadBool_e:
  001f8	88 5d eb	 mov	 BYTE PTR __k$[ebp+11], bl
  001fb	eb 3d		 jmp	 SHORT $LN1@LoadBool_e
$LN86@LoadBool_e:
  001fd	88 4d ea	 mov	 BYTE PTR __k$[ebp+10], cl
  00200	eb 38		 jmp	 SHORT $LN1@LoadBool_e
$LN87@LoadBool_e:
  00202	c6 45 e9 ec	 mov	 BYTE PTR __k$[ebp+9], -20 ; ffffffecH
  00206	eb 32		 jmp	 SHORT $LN1@LoadBool_e
$LN88@LoadBool_e:
  00208	c6 45 e8 ed	 mov	 BYTE PTR __k$[ebp+8], -19 ; ffffffedH
  0020c	eb 2c		 jmp	 SHORT $LN1@LoadBool_e
$LN89@LoadBool_e:
  0020e	88 5d e7	 mov	 BYTE PTR __k$[ebp+7], bl
  00211	eb 27		 jmp	 SHORT $LN1@LoadBool_e
$LN90@LoadBool_e:
  00213	88 4d e6	 mov	 BYTE PTR __k$[ebp+6], cl
  00216	eb 22		 jmp	 SHORT $LN1@LoadBool_e
$LN91@LoadBool_e:
  00218	c6 45 e5 ec	 mov	 BYTE PTR __k$[ebp+5], -20 ; ffffffecH
  0021c	eb 1c		 jmp	 SHORT $LN1@LoadBool_e
$LN92@LoadBool_e:
  0021e	c6 45 e4 ed	 mov	 BYTE PTR __k$[ebp+4], -19 ; ffffffedH
  00222	eb 16		 jmp	 SHORT $LN1@LoadBool_e
$LN93@LoadBool_e:
  00224	c6 45 e3 ea	 mov	 BYTE PTR __k$[ebp+3], -22 ; ffffffeaH
  00228	eb 10		 jmp	 SHORT $LN1@LoadBool_e
$LN94@LoadBool_e:
  0022a	c6 45 e2 eb	 mov	 BYTE PTR __k$[ebp+2], -21 ; ffffffebH
  0022e	eb 0a		 jmp	 SHORT $LN1@LoadBool_e
$LN95@LoadBool_e:
  00230	c6 45 e1 ec	 mov	 BYTE PTR __k$[ebp+1], -20 ; ffffffecH
  00234	eb 04		 jmp	 SHORT $LN1@LoadBool_e
$LN96@LoadBool_e:
  00236	c6 45 e0 ed	 mov	 BYTE PTR __k$[ebp], -19	; ffffffedH
$LN1@LoadBool_e:
  0023a	6a 05		 push	 5
  0023c	8d 45 e0	 lea	 eax, DWORD PTR __k$[ebp]
  0023f	c6 45 f5 00	 mov	 BYTE PTR __k$[ebp+21], 0
  00243	5a		 pop	 edx
$LL104@LoadBool_e:
  00244	81 30 ed ec eb
	ea		 xor	 DWORD PTR [eax], -353637139 ; eaebecedH
  0024a	83 c0 04	 add	 eax, 4
  0024d	4a		 dec	 edx
  0024e	75 f4		 jne	 SHORT $LL104@LoadBool_e

; 103  : 		return LoadBool(_k, b);

  00250	ff 75 0c	 push	 DWORD PTR _b$[ebp]
  00253	80 75 f4 ed	 xor	 BYTE PTR __k$[ebp+20], -19 ; ffffffedH
  00257	8d 45 e0	 lea	 eax, DWORD PTR __k$[ebp]
  0025a	50		 push	 eax
  0025b	8b ce		 mov	 ecx, esi
  0025d	ff 15 00 00 00
	00		 call	 DWORD PTR __imp_?LoadBool@ioINILoader@@QAE_NPBD_N@Z

; 104  : 	}

  00263	8b 4d fc	 mov	 ecx, DWORD PTR __$ArrayPad$[ebp]
  00266	5e		 pop	 esi
  00267	33 cd		 xor	 ecx, ebp
  00269	5b		 pop	 ebx
  0026a	e8 00 00 00 00	 call	 @__security_check_cookie@4
  0026f	c9		 leave
  00270	c2 08 00	 ret	 8
??$LoadBool_e@$0BG@@ioINILoader@@QAE_NAAY0BG@$$CBD_N@Z ENDP ; ioINILoader::LoadBool_e<22>
_TEXT	ENDS
PUBLIC	__$ArrayPad$
PUBLIC	??$LoadBool_e@$0BD@@ioINILoader@@QAE_NAAY0BD@$$CBD_N@Z ; ioINILoader::LoadBool_e<19>
; Function compile flags: /Ogsp
;	COMDAT ??$LoadBool_e@$0BD@@ioINILoader@@QAE_NAAY0BD@$$CBD_N@Z
_TEXT	SEGMENT
__k$ = -28						; size = 19
__$ArrayPad$ = -4					; size = 4
_k$ = 8							; size = 4
_b$ = 12						; size = 1
??$LoadBool_e@$0BD@@ioINILoader@@QAE_NAAY0BD@$$CBD_N@Z PROC ; ioINILoader::LoadBool_e<19>, COMDAT
; _this$ = ecx

; 101  : 	{

  00000	55		 push	 ebp
  00001	8b ec		 mov	 ebp, esp
  00003	83 ec 1c	 sub	 esp, 28			; 0000001cH
  00006	a1 00 00 00 00	 mov	 eax, DWORD PTR ___security_cookie
  0000b	33 c5		 xor	 eax, ebp
  0000d	89 45 fc	 mov	 DWORD PTR __$ArrayPad$[ebp], eax
  00010	8b 45 08	 mov	 eax, DWORD PTR _k$[ebp]

; 102  : 		_ENCSTR(k, _k);

  00013	8a 10		 mov	 dl, BYTE PTR [eax]
  00015	56		 push	 esi
  00016	8b f1		 mov	 esi, ecx
  00018	84 d2		 test	 dl, dl
  0001a	0f 84 cf 01 00
	00		 je	 $LN96@LoadBool_e@2
  00020	80 f2 ed	 xor	 dl, -19			; ffffffedH
  00023	88 55 e4	 mov	 BYTE PTR __k$[ebp], dl
  00026	8a 50 01	 mov	 dl, BYTE PTR [eax+1]
  00029	84 d2		 test	 dl, dl
  0002b	0f 84 b8 01 00
	00		 je	 $LN95@LoadBool_e@2
  00031	b1 ec		 mov	 cl, -20			; ffffffecH
  00033	32 d1		 xor	 dl, cl
  00035	88 55 e5	 mov	 BYTE PTR __k$[ebp+1], dl
  00038	8a 50 02	 mov	 dl, BYTE PTR [eax+2]
  0003b	84 d2		 test	 dl, dl
  0003d	0f 84 a0 01 00
	00		 je	 $LN94@LoadBool_e@2
  00043	80 f2 eb	 xor	 dl, -21			; ffffffebH
  00046	88 55 e6	 mov	 BYTE PTR __k$[ebp+2], dl
  00049	8a 50 03	 mov	 dl, BYTE PTR [eax+3]
  0004c	84 d2		 test	 dl, dl
  0004e	0f 84 89 01 00
	00		 je	 $LN93@LoadBool_e@2
  00054	80 f2 ea	 xor	 dl, -22			; ffffffeaH
  00057	88 55 e7	 mov	 BYTE PTR __k$[ebp+3], dl
  0005a	8a 50 04	 mov	 dl, BYTE PTR [eax+4]
  0005d	84 d2		 test	 dl, dl
  0005f	0f 84 72 01 00
	00		 je	 $LN92@LoadBool_e@2
  00065	80 f2 ed	 xor	 dl, -19			; ffffffedH
  00068	88 55 e8	 mov	 BYTE PTR __k$[ebp+4], dl
  0006b	8a 50 05	 mov	 dl, BYTE PTR [eax+5]
  0006e	84 d2		 test	 dl, dl
  00070	0f 84 5c 01 00
	00		 je	 $LN91@LoadBool_e@2
  00076	32 d1		 xor	 dl, cl
  00078	88 55 e9	 mov	 BYTE PTR __k$[ebp+5], dl
  0007b	8a 50 06	 mov	 dl, BYTE PTR [eax+6]
  0007e	84 d2		 test	 dl, dl
  00080	0f 84 46 01 00
	00		 je	 $LN90@LoadBool_e@2
  00086	80 f2 eb	 xor	 dl, -21			; ffffffebH
  00089	88 55 ea	 mov	 BYTE PTR __k$[ebp+6], dl
  0008c	8a 50 07	 mov	 dl, BYTE PTR [eax+7]
  0008f	84 d2		 test	 dl, dl
  00091	0f 84 2f 01 00
	00		 je	 $LN89@LoadBool_e@2
  00097	80 f2 ea	 xor	 dl, -22			; ffffffeaH
  0009a	88 55 eb	 mov	 BYTE PTR __k$[ebp+7], dl
  0009d	8a 50 08	 mov	 dl, BYTE PTR [eax+8]
  000a0	84 d2		 test	 dl, dl
  000a2	0f 84 18 01 00
	00		 je	 $LN88@LoadBool_e@2
  000a8	80 f2 ed	 xor	 dl, -19			; ffffffedH
  000ab	88 55 ec	 mov	 BYTE PTR __k$[ebp+8], dl
  000ae	8a 50 09	 mov	 dl, BYTE PTR [eax+9]
  000b1	84 d2		 test	 dl, dl
  000b3	0f 84 02 01 00
	00		 je	 $LN87@LoadBool_e@2
  000b9	32 d1		 xor	 dl, cl
  000bb	88 55 ed	 mov	 BYTE PTR __k$[ebp+9], dl
  000be	8a 50 0a	 mov	 dl, BYTE PTR [eax+10]
  000c1	84 d2		 test	 dl, dl
  000c3	0f 84 ec 00 00
	00		 je	 $LN86@LoadBool_e@2
  000c9	80 f2 eb	 xor	 dl, -21			; ffffffebH
  000cc	88 55 ee	 mov	 BYTE PTR __k$[ebp+10], dl
  000cf	8a 50 0b	 mov	 dl, BYTE PTR [eax+11]
  000d2	84 d2		 test	 dl, dl
  000d4	0f 84 d5 00 00
	00		 je	 $LN85@LoadBool_e@2
  000da	80 f2 ea	 xor	 dl, -22			; ffffffeaH
  000dd	88 55 ef	 mov	 BYTE PTR __k$[ebp+11], dl
  000e0	8a 50 0c	 mov	 dl, BYTE PTR [eax+12]
  000e3	84 d2		 test	 dl, dl
  000e5	0f 84 be 00 00
	00		 je	 $LN84@LoadBool_e@2
  000eb	80 f2 ed	 xor	 dl, -19			; ffffffedH
  000ee	88 55 f0	 mov	 BYTE PTR __k$[ebp+12], dl
  000f1	8a 50 0d	 mov	 dl, BYTE PTR [eax+13]
  000f4	84 d2		 test	 dl, dl
  000f6	0f 84 a8 00 00
	00		 je	 $LN83@LoadBool_e@2
  000fc	32 d1		 xor	 dl, cl
  000fe	88 55 f1	 mov	 BYTE PTR __k$[ebp+13], dl
  00101	8a 50 0e	 mov	 dl, BYTE PTR [eax+14]
  00104	84 d2		 test	 dl, dl
  00106	0f 84 92 00 00
	00		 je	 $LN82@LoadBool_e@2
  0010c	80 f2 eb	 xor	 dl, -21			; ffffffebH
  0010f	88 55 f2	 mov	 BYTE PTR __k$[ebp+14], dl
  00112	8a 50 0f	 mov	 dl, BYTE PTR [eax+15]
  00115	84 d2		 test	 dl, dl
  00117	74 7f		 je	 SHORT $LN81@LoadBool_e@2
  00119	80 f2 ea	 xor	 dl, -22			; ffffffeaH
  0011c	88 55 f3	 mov	 BYTE PTR __k$[ebp+15], dl
  0011f	8a 50 10	 mov	 dl, BYTE PTR [eax+16]
  00122	84 d2		 test	 dl, dl
  00124	74 6c		 je	 SHORT $LN80@LoadBool_e@2
  00126	80 f2 ed	 xor	 dl, -19			; ffffffedH
  00129	88 55 f4	 mov	 BYTE PTR __k$[ebp+16], dl
  0012c	8a 50 11	 mov	 dl, BYTE PTR [eax+17]
  0012f	84 d2		 test	 dl, dl
  00131	74 5a		 je	 SHORT $LN79@LoadBool_e@2
  00133	32 d1		 xor	 dl, cl
  00135	80 78 12 00	 cmp	 BYTE PTR [eax+18], 0
  00139	88 55 f5	 mov	 BYTE PTR __k$[ebp+17], dl
  0013c	0f 84 b1 00 00
	00		 je	 $LN1@LoadBool_e@2
  00142	8a 50 13	 mov	 dl, BYTE PTR [eax+19]
  00145	84 d2		 test	 dl, dl
  00147	74 3e		 je	 SHORT $LN77@LoadBool_e@2
  00149	80 f2 ea	 xor	 dl, -22			; ffffffeaH
  0014c	88 55 f7	 mov	 BYTE PTR __k$[ebp+19], dl
  0014f	8a 50 14	 mov	 dl, BYTE PTR [eax+20]
  00152	84 d2		 test	 dl, dl
  00154	74 2b		 je	 SHORT $LN76@LoadBool_e@2
  00156	80 f2 ed	 xor	 dl, -19			; ffffffedH
  00159	88 55 f8	 mov	 BYTE PTR __k$[ebp+20], dl
  0015c	8a 50 15	 mov	 dl, BYTE PTR [eax+21]
  0015f	84 d2		 test	 dl, dl
  00161	74 19		 je	 SHORT $LN75@LoadBool_e@2
  00163	8a 40 16	 mov	 al, BYTE PTR [eax+22]
  00166	32 d1		 xor	 dl, cl
  00168	88 55 f9	 mov	 BYTE PTR __k$[ebp+21], dl
  0016b	84 c0		 test	 al, al
  0016d	74 07		 je	 SHORT $LN74@LoadBool_e@2
  0016f	34 eb		 xor	 al, -21			; ffffffebH
  00171	88 45 fa	 mov	 BYTE PTR __k$[ebp+22], al
  00174	eb 7d		 jmp	 SHORT $LN1@LoadBool_e@2
$LN74@LoadBool_e@2:
  00176	c6 45 fa eb	 mov	 BYTE PTR __k$[ebp+22], -21 ; ffffffebH
  0017a	eb 77		 jmp	 SHORT $LN1@LoadBool_e@2
$LN75@LoadBool_e@2:
  0017c	88 4d f9	 mov	 BYTE PTR __k$[ebp+21], cl
  0017f	eb 72		 jmp	 SHORT $LN1@LoadBool_e@2
$LN76@LoadBool_e@2:
  00181	c6 45 f8 ed	 mov	 BYTE PTR __k$[ebp+20], -19 ; ffffffedH
  00185	eb 6c		 jmp	 SHORT $LN1@LoadBool_e@2
$LN77@LoadBool_e@2:
  00187	c6 45 f7 ea	 mov	 BYTE PTR __k$[ebp+19], -22 ; ffffffeaH
  0018b	eb 66		 jmp	 SHORT $LN1@LoadBool_e@2
$LN79@LoadBool_e@2:
  0018d	88 4d f5	 mov	 BYTE PTR __k$[ebp+17], cl
  00190	eb 61		 jmp	 SHORT $LN1@LoadBool_e@2
$LN80@LoadBool_e@2:
  00192	c6 45 f4 ed	 mov	 BYTE PTR __k$[ebp+16], -19 ; ffffffedH
  00196	eb 5b		 jmp	 SHORT $LN1@LoadBool_e@2
$LN81@LoadBool_e@2:
  00198	c6 45 f3 ea	 mov	 BYTE PTR __k$[ebp+15], -22 ; ffffffeaH
  0019c	eb 55		 jmp	 SHORT $LN1@LoadBool_e@2
$LN82@LoadBool_e@2:
  0019e	c6 45 f2 eb	 mov	 BYTE PTR __k$[ebp+14], -21 ; ffffffebH
  001a2	eb 4f		 jmp	 SHORT $LN1@LoadBool_e@2
$LN83@LoadBool_e@2:
  001a4	88 4d f1	 mov	 BYTE PTR __k$[ebp+13], cl
  001a7	eb 4a		 jmp	 SHORT $LN1@LoadBool_e@2
$LN84@LoadBool_e@2:
  001a9	c6 45 f0 ed	 mov	 BYTE PTR __k$[ebp+12], -19 ; ffffffedH
  001ad	eb 44		 jmp	 SHORT $LN1@LoadBool_e@2
$LN85@LoadBool_e@2:
  001af	c6 45 ef ea	 mov	 BYTE PTR __k$[ebp+11], -22 ; ffffffeaH
  001b3	eb 3e		 jmp	 SHORT $LN1@LoadBool_e@2
$LN86@LoadBool_e@2:
  001b5	c6 45 ee eb	 mov	 BYTE PTR __k$[ebp+10], -21 ; ffffffebH
  001b9	eb 38		 jmp	 SHORT $LN1@LoadBool_e@2
$LN87@LoadBool_e@2:
  001bb	88 4d ed	 mov	 BYTE PTR __k$[ebp+9], cl
  001be	eb 33		 jmp	 SHORT $LN1@LoadBool_e@2
$LN88@LoadBool_e@2:
  001c0	c6 45 ec ed	 mov	 BYTE PTR __k$[ebp+8], -19 ; ffffffedH
  001c4	eb 2d		 jmp	 SHORT $LN1@LoadBool_e@2
$LN89@LoadBool_e@2:
  001c6	c6 45 eb ea	 mov	 BYTE PTR __k$[ebp+7], -22 ; ffffffeaH
  001ca	eb 27		 jmp	 SHORT $LN1@LoadBool_e@2
$LN90@LoadBool_e@2:
  001cc	c6 45 ea eb	 mov	 BYTE PTR __k$[ebp+6], -21 ; ffffffebH
  001d0	eb 21		 jmp	 SHORT $LN1@LoadBool_e@2
$LN91@LoadBool_e@2:
  001d2	88 4d e9	 mov	 BYTE PTR __k$[ebp+5], cl
  001d5	eb 1c		 jmp	 SHORT $LN1@LoadBool_e@2
$LN92@LoadBool_e@2:
  001d7	c6 45 e8 ed	 mov	 BYTE PTR __k$[ebp+4], -19 ; ffffffedH
  001db	eb 16		 jmp	 SHORT $LN1@LoadBool_e@2
$LN93@LoadBool_e@2:
  001dd	c6 45 e7 ea	 mov	 BYTE PTR __k$[ebp+3], -22 ; ffffffeaH
  001e1	eb 10		 jmp	 SHORT $LN1@LoadBool_e@2
$LN94@LoadBool_e@2:
  001e3	c6 45 e6 eb	 mov	 BYTE PTR __k$[ebp+2], -21 ; ffffffebH
  001e7	eb 0a		 jmp	 SHORT $LN1@LoadBool_e@2
$LN95@LoadBool_e@2:
  001e9	c6 45 e5 ec	 mov	 BYTE PTR __k$[ebp+1], -20 ; ffffffecH
  001ed	eb 04		 jmp	 SHORT $LN1@LoadBool_e@2
$LN96@LoadBool_e@2:
  001ef	c6 45 e4 ed	 mov	 BYTE PTR __k$[ebp], -19	; ffffffedH
$LN1@LoadBool_e@2:
  001f3	6a 04		 push	 4
  001f5	8d 45 e4	 lea	 eax, DWORD PTR __k$[ebp]
  001f8	c6 45 f6 00	 mov	 BYTE PTR __k$[ebp+18], 0
  001fc	5a		 pop	 edx
$LL104@LoadBool_e@2:
  001fd	81 30 ed ec eb
	ea		 xor	 DWORD PTR [eax], -353637139 ; eaebecedH
  00203	83 c0 04	 add	 eax, 4
  00206	4a		 dec	 edx
  00207	75 f4		 jne	 SHORT $LL104@LoadBool_e@2
  00209	6a 10		 push	 16			; 00000010H
  0020b	58		 pop	 eax
$LL101@LoadBool_e@2:
  0020c	8b c8		 mov	 ecx, eax
  0020e	81 e1 03 00 00
	80		 and	 ecx, -2147483645	; 80000003H
  00214	79 05		 jns	 SHORT $LN111@LoadBool_e@2
  00216	49		 dec	 ecx
  00217	83 c9 fc	 or	 ecx, -4			; fffffffcH
  0021a	41		 inc	 ecx
$LN111@LoadBool_e@2:
  0021b	b2 ed		 mov	 dl, -19			; ffffffedH
  0021d	2a d1		 sub	 dl, cl
  0021f	30 54 05 e4	 xor	 BYTE PTR __k$[ebp+eax], dl
  00223	40		 inc	 eax
  00224	83 f8 12	 cmp	 eax, 18			; 00000012H
  00227	7c e3		 jl	 SHORT $LL101@LoadBool_e@2

; 103  : 		return LoadBool(_k, b);

  00229	ff 75 0c	 push	 DWORD PTR _b$[ebp]
  0022c	8d 45 e4	 lea	 eax, DWORD PTR __k$[ebp]
  0022f	50		 push	 eax
  00230	8b ce		 mov	 ecx, esi
  00232	ff 15 00 00 00
	00		 call	 DWORD PTR __imp_?LoadBool@ioINILoader@@QAE_NPBD_N@Z

; 104  : 	}

  00238	8b 4d fc	 mov	 ecx, DWORD PTR __$ArrayPad$[ebp]
  0023b	33 cd		 xor	 ecx, ebp
  0023d	5e		 pop	 esi
  0023e	e8 00 00 00 00	 call	 @__security_check_cookie@4
  00243	c9		 leave
  00244	c2 08 00	 ret	 8
??$LoadBool_e@$0BD@@ioINILoader@@QAE_NAAY0BD@$$CBD_N@Z ENDP ; ioINILoader::LoadBool_e<19>
_TEXT	ENDS
PUBLIC	__$ArrayPad$
PUBLIC	??$LoadInt_e@$0N@@ioINILoader@@QAEHAAY0N@$$CBDH@Z ; ioINILoader::LoadInt_e<13>
EXTRN	__imp_?LoadInt@ioINILoader@@QAEHPBDH@Z:PROC
; Function compile flags: /Ogsp
;	COMDAT ??$LoadInt_e@$0N@@ioINILoader@@QAEHAAY0N@$$CBDH@Z
_TEXT	SEGMENT
__k$ = -24						; size = 13
__$ArrayPad$ = -4					; size = 4
_k$ = 8							; size = 4
_i$ = 12						; size = 4
??$LoadInt_e@$0N@@ioINILoader@@QAEHAAY0N@$$CBDH@Z PROC	; ioINILoader::LoadInt_e<13>, COMDAT
; _this$ = ecx

; 118  : 	{

  00000	55		 push	 ebp
  00001	8b ec		 mov	 ebp, esp
  00003	83 ec 18	 sub	 esp, 24			; 00000018H
  00006	a1 00 00 00 00	 mov	 eax, DWORD PTR ___security_cookie
  0000b	33 c5		 xor	 eax, ebp
  0000d	89 45 fc	 mov	 DWORD PTR __$ArrayPad$[ebp], eax
  00010	8b 45 08	 mov	 eax, DWORD PTR _k$[ebp]

; 119  : 		_ENCSTR(k, _k);

  00013	8a 10		 mov	 dl, BYTE PTR [eax]
  00015	56		 push	 esi
  00016	8b f1		 mov	 esi, ecx
  00018	84 d2		 test	 dl, dl
  0001a	0f 84 4d 01 00
	00		 je	 $LN96@LoadInt_e
  00020	80 f2 ed	 xor	 dl, -19			; ffffffedH
  00023	88 55 e8	 mov	 BYTE PTR __k$[ebp], dl
  00026	8a 50 01	 mov	 dl, BYTE PTR [eax+1]
  00029	84 d2		 test	 dl, dl
  0002b	0f 84 36 01 00
	00		 je	 $LN95@LoadInt_e
  00031	b1 ec		 mov	 cl, -20			; ffffffecH
  00033	32 d1		 xor	 dl, cl
  00035	88 55 e9	 mov	 BYTE PTR __k$[ebp+1], dl
  00038	8a 50 02	 mov	 dl, BYTE PTR [eax+2]
  0003b	84 d2		 test	 dl, dl
  0003d	0f 84 1e 01 00
	00		 je	 $LN94@LoadInt_e
  00043	80 f2 eb	 xor	 dl, -21			; ffffffebH
  00046	88 55 ea	 mov	 BYTE PTR __k$[ebp+2], dl
  00049	8a 50 03	 mov	 dl, BYTE PTR [eax+3]
  0004c	84 d2		 test	 dl, dl
  0004e	0f 84 07 01 00
	00		 je	 $LN93@LoadInt_e
  00054	80 f2 ea	 xor	 dl, -22			; ffffffeaH
  00057	88 55 eb	 mov	 BYTE PTR __k$[ebp+3], dl
  0005a	8a 50 04	 mov	 dl, BYTE PTR [eax+4]
  0005d	84 d2		 test	 dl, dl
  0005f	0f 84 f0 00 00
	00		 je	 $LN92@LoadInt_e
  00065	80 f2 ed	 xor	 dl, -19			; ffffffedH
  00068	88 55 ec	 mov	 BYTE PTR __k$[ebp+4], dl
  0006b	8a 50 05	 mov	 dl, BYTE PTR [eax+5]
  0006e	84 d2		 test	 dl, dl
  00070	0f 84 da 00 00
	00		 je	 $LN91@LoadInt_e
  00076	32 d1		 xor	 dl, cl
  00078	88 55 ed	 mov	 BYTE PTR __k$[ebp+5], dl
  0007b	8a 50 06	 mov	 dl, BYTE PTR [eax+6]
  0007e	84 d2		 test	 dl, dl
  00080	0f 84 c4 00 00
	00		 je	 $LN90@LoadInt_e
  00086	80 f2 eb	 xor	 dl, -21			; ffffffebH
  00089	88 55 ee	 mov	 BYTE PTR __k$[ebp+6], dl
  0008c	8a 50 07	 mov	 dl, BYTE PTR [eax+7]
  0008f	84 d2		 test	 dl, dl
  00091	0f 84 ad 00 00
	00		 je	 $LN89@LoadInt_e
  00097	80 f2 ea	 xor	 dl, -22			; ffffffeaH
  0009a	88 55 ef	 mov	 BYTE PTR __k$[ebp+7], dl
  0009d	8a 50 08	 mov	 dl, BYTE PTR [eax+8]
  000a0	84 d2		 test	 dl, dl
  000a2	0f 84 96 00 00
	00		 je	 $LN88@LoadInt_e
  000a8	80 f2 ed	 xor	 dl, -19			; ffffffedH
  000ab	88 55 f0	 mov	 BYTE PTR __k$[ebp+8], dl
  000ae	8a 50 09	 mov	 dl, BYTE PTR [eax+9]
  000b1	84 d2		 test	 dl, dl
  000b3	0f 84 80 00 00
	00		 je	 $LN87@LoadInt_e
  000b9	32 d1		 xor	 dl, cl
  000bb	88 55 f1	 mov	 BYTE PTR __k$[ebp+9], dl
  000be	8a 50 0a	 mov	 dl, BYTE PTR [eax+10]
  000c1	84 d2		 test	 dl, dl
  000c3	74 6e		 je	 SHORT $LN86@LoadInt_e
  000c5	80 f2 eb	 xor	 dl, -21			; ffffffebH
  000c8	88 55 f2	 mov	 BYTE PTR __k$[ebp+10], dl
  000cb	8a 50 0b	 mov	 dl, BYTE PTR [eax+11]
  000ce	84 d2		 test	 dl, dl
  000d0	74 5b		 je	 SHORT $LN85@LoadInt_e
  000d2	80 f2 ea	 xor	 dl, -22			; ffffffeaH
  000d5	80 78 0c 00	 cmp	 BYTE PTR [eax+12], 0
  000d9	88 55 f3	 mov	 BYTE PTR __k$[ebp+11], dl
  000dc	0f 84 8f 00 00
	00		 je	 $LN1@LoadInt_e
  000e2	8a 50 0d	 mov	 dl, BYTE PTR [eax+13]
  000e5	84 d2		 test	 dl, dl
  000e7	74 3f		 je	 SHORT $LN83@LoadInt_e
  000e9	32 d1		 xor	 dl, cl
  000eb	88 55 f5	 mov	 BYTE PTR __k$[ebp+13], dl
  000ee	8a 50 0e	 mov	 dl, BYTE PTR [eax+14]
  000f1	84 d2		 test	 dl, dl
  000f3	74 2d		 je	 SHORT $LN82@LoadInt_e
  000f5	80 f2 eb	 xor	 dl, -21			; ffffffebH
  000f8	88 55 f6	 mov	 BYTE PTR __k$[ebp+14], dl
  000fb	8a 50 0f	 mov	 dl, BYTE PTR [eax+15]
  000fe	84 d2		 test	 dl, dl
  00100	74 1a		 je	 SHORT $LN81@LoadInt_e
  00102	8a 40 10	 mov	 al, BYTE PTR [eax+16]
  00105	80 f2 ea	 xor	 dl, -22			; ffffffeaH
  00108	88 55 f7	 mov	 BYTE PTR __k$[ebp+15], dl
  0010b	84 c0		 test	 al, al
  0010d	74 07		 je	 SHORT $LN80@LoadInt_e
  0010f	34 ed		 xor	 al, -19			; ffffffedH
  00111	88 45 f8	 mov	 BYTE PTR __k$[ebp+16], al
  00114	eb 5b		 jmp	 SHORT $LN1@LoadInt_e
$LN80@LoadInt_e:
  00116	c6 45 f8 ed	 mov	 BYTE PTR __k$[ebp+16], -19 ; ffffffedH
  0011a	eb 55		 jmp	 SHORT $LN1@LoadInt_e
$LN81@LoadInt_e:
  0011c	c6 45 f7 ea	 mov	 BYTE PTR __k$[ebp+15], -22 ; ffffffeaH
  00120	eb 4f		 jmp	 SHORT $LN1@LoadInt_e
$LN82@LoadInt_e:
  00122	c6 45 f6 eb	 mov	 BYTE PTR __k$[ebp+14], -21 ; ffffffebH
  00126	eb 49		 jmp	 SHORT $LN1@LoadInt_e
$LN83@LoadInt_e:
  00128	88 4d f5	 mov	 BYTE PTR __k$[ebp+13], cl
  0012b	eb 44		 jmp	 SHORT $LN1@LoadInt_e
$LN85@LoadInt_e:
  0012d	c6 45 f3 ea	 mov	 BYTE PTR __k$[ebp+11], -22 ; ffffffeaH
  00131	eb 3e		 jmp	 SHORT $LN1@LoadInt_e
$LN86@LoadInt_e:
  00133	c6 45 f2 eb	 mov	 BYTE PTR __k$[ebp+10], -21 ; ffffffebH
  00137	eb 38		 jmp	 SHORT $LN1@LoadInt_e
$LN87@LoadInt_e:
  00139	88 4d f1	 mov	 BYTE PTR __k$[ebp+9], cl
  0013c	eb 33		 jmp	 SHORT $LN1@LoadInt_e
$LN88@LoadInt_e:
  0013e	c6 45 f0 ed	 mov	 BYTE PTR __k$[ebp+8], -19 ; ffffffedH
  00142	eb 2d		 jmp	 SHORT $LN1@LoadInt_e
$LN89@LoadInt_e:
  00144	c6 45 ef ea	 mov	 BYTE PTR __k$[ebp+7], -22 ; ffffffeaH
  00148	eb 27		 jmp	 SHORT $LN1@LoadInt_e
$LN90@LoadInt_e:
  0014a	c6 45 ee eb	 mov	 BYTE PTR __k$[ebp+6], -21 ; ffffffebH
  0014e	eb 21		 jmp	 SHORT $LN1@LoadInt_e
$LN91@LoadInt_e:
  00150	88 4d ed	 mov	 BYTE PTR __k$[ebp+5], cl
  00153	eb 1c		 jmp	 SHORT $LN1@LoadInt_e
$LN92@LoadInt_e:
  00155	c6 45 ec ed	 mov	 BYTE PTR __k$[ebp+4], -19 ; ffffffedH
  00159	eb 16		 jmp	 SHORT $LN1@LoadInt_e
$LN93@LoadInt_e:
  0015b	c6 45 eb ea	 mov	 BYTE PTR __k$[ebp+3], -22 ; ffffffeaH
  0015f	eb 10		 jmp	 SHORT $LN1@LoadInt_e
$LN94@LoadInt_e:
  00161	c6 45 ea eb	 mov	 BYTE PTR __k$[ebp+2], -21 ; ffffffebH
  00165	eb 0a		 jmp	 SHORT $LN1@LoadInt_e
$LN95@LoadInt_e:
  00167	c6 45 e9 ec	 mov	 BYTE PTR __k$[ebp+1], -20 ; ffffffecH
  0016b	eb 04		 jmp	 SHORT $LN1@LoadInt_e
$LN96@LoadInt_e:
  0016d	c6 45 e8 ed	 mov	 BYTE PTR __k$[ebp], -19	; ffffffedH
$LN1@LoadInt_e:
  00171	6a 03		 push	 3
  00173	8d 45 e8	 lea	 eax, DWORD PTR __k$[ebp]
  00176	c6 45 f4 00	 mov	 BYTE PTR __k$[ebp+12], 0
  0017a	5a		 pop	 edx
$LL104@LoadInt_e:
  0017b	81 30 ed ec eb
	ea		 xor	 DWORD PTR [eax], -353637139 ; eaebecedH
  00181	83 c0 04	 add	 eax, 4
  00184	4a		 dec	 edx
  00185	75 f4		 jne	 SHORT $LL104@LoadInt_e

; 120  : 		return LoadInt(_k, i);

  00187	ff 75 0c	 push	 DWORD PTR _i$[ebp]
  0018a	8d 45 e8	 lea	 eax, DWORD PTR __k$[ebp]
  0018d	50		 push	 eax
  0018e	8b ce		 mov	 ecx, esi
  00190	ff 15 00 00 00
	00		 call	 DWORD PTR __imp_?LoadInt@ioINILoader@@QAEHPBDH@Z

; 121  : 	}

  00196	8b 4d fc	 mov	 ecx, DWORD PTR __$ArrayPad$[ebp]
  00199	33 cd		 xor	 ecx, ebp
  0019b	5e		 pop	 esi
  0019c	e8 00 00 00 00	 call	 @__security_check_cookie@4
  001a1	c9		 leave
  001a2	c2 08 00	 ret	 8
??$LoadInt_e@$0N@@ioINILoader@@QAEHAAY0N@$$CBDH@Z ENDP	; ioINILoader::LoadInt_e<13>
_TEXT	ENDS
PUBLIC	__$ArrayPad$
PUBLIC	??$LoadBool_e@$0BE@@ioINILoader@@QAE_NAAY0BE@$$CBD_N@Z ; ioINILoader::LoadBool_e<20>
; Function compile flags: /Ogsp
;	COMDAT ??$LoadBool_e@$0BE@@ioINILoader@@QAE_NAAY0BE@$$CBD_N@Z
_TEXT	SEGMENT
__k$ = -28						; size = 20
__$ArrayPad$ = -4					; size = 4
_k$ = 8							; size = 4
_b$ = 12						; size = 1
??$LoadBool_e@$0BE@@ioINILoader@@QAE_NAAY0BE@$$CBD_N@Z PROC ; ioINILoader::LoadBool_e<20>, COMDAT
; _this$ = ecx

; 101  : 	{

  00000	55		 push	 ebp
  00001	8b ec		 mov	 ebp, esp
  00003	83 ec 1c	 sub	 esp, 28			; 0000001cH
  00006	a1 00 00 00 00	 mov	 eax, DWORD PTR ___security_cookie
  0000b	33 c5		 xor	 eax, ebp
  0000d	89 45 fc	 mov	 DWORD PTR __$ArrayPad$[ebp], eax
  00010	8b 45 08	 mov	 eax, DWORD PTR _k$[ebp]

; 102  : 		_ENCSTR(k, _k);

  00013	8a 10		 mov	 dl, BYTE PTR [eax]
  00015	53		 push	 ebx
  00016	56		 push	 esi
  00017	8b f1		 mov	 esi, ecx
  00019	84 d2		 test	 dl, dl
  0001b	0f 84 dd 01 00
	00		 je	 $LN96@LoadBool_e@3
  00021	80 f2 ed	 xor	 dl, -19			; ffffffedH
  00024	88 55 e4	 mov	 BYTE PTR __k$[ebp], dl
  00027	8a 50 01	 mov	 dl, BYTE PTR [eax+1]
  0002a	84 d2		 test	 dl, dl
  0002c	0f 84 c6 01 00
	00		 je	 $LN95@LoadBool_e@3
  00032	b3 ec		 mov	 bl, -20			; ffffffecH
  00034	32 d3		 xor	 dl, bl
  00036	88 55 e5	 mov	 BYTE PTR __k$[ebp+1], dl
  00039	8a 50 02	 mov	 dl, BYTE PTR [eax+2]
  0003c	84 d2		 test	 dl, dl
  0003e	0f 84 ae 01 00
	00		 je	 $LN94@LoadBool_e@3
  00044	b1 eb		 mov	 cl, -21			; ffffffebH
  00046	32 d1		 xor	 dl, cl
  00048	88 55 e6	 mov	 BYTE PTR __k$[ebp+2], dl
  0004b	8a 50 03	 mov	 dl, BYTE PTR [eax+3]
  0004e	84 d2		 test	 dl, dl
  00050	0f 84 96 01 00
	00		 je	 $LN93@LoadBool_e@3
  00056	80 f2 ea	 xor	 dl, -22			; ffffffeaH
  00059	88 55 e7	 mov	 BYTE PTR __k$[ebp+3], dl
  0005c	8a 50 04	 mov	 dl, BYTE PTR [eax+4]
  0005f	84 d2		 test	 dl, dl
  00061	0f 84 7f 01 00
	00		 je	 $LN92@LoadBool_e@3
  00067	80 f2 ed	 xor	 dl, -19			; ffffffedH
  0006a	88 55 e8	 mov	 BYTE PTR __k$[ebp+4], dl
  0006d	8a 50 05	 mov	 dl, BYTE PTR [eax+5]
  00070	84 d2		 test	 dl, dl
  00072	0f 84 69 01 00
	00		 je	 $LN91@LoadBool_e@3
  00078	32 d3		 xor	 dl, bl
  0007a	88 55 e9	 mov	 BYTE PTR __k$[ebp+5], dl
  0007d	8a 50 06	 mov	 dl, BYTE PTR [eax+6]
  00080	84 d2		 test	 dl, dl
  00082	0f 84 54 01 00
	00		 je	 $LN90@LoadBool_e@3
  00088	32 d1		 xor	 dl, cl
  0008a	88 55 ea	 mov	 BYTE PTR __k$[ebp+6], dl
  0008d	8a 50 07	 mov	 dl, BYTE PTR [eax+7]
  00090	84 d2		 test	 dl, dl
  00092	0f 84 3e 01 00
	00		 je	 $LN89@LoadBool_e@3
  00098	80 f2 ea	 xor	 dl, -22			; ffffffeaH
  0009b	88 55 eb	 mov	 BYTE PTR __k$[ebp+7], dl
  0009e	8a 50 08	 mov	 dl, BYTE PTR [eax+8]
  000a1	84 d2		 test	 dl, dl
  000a3	0f 84 27 01 00
	00		 je	 $LN88@LoadBool_e@3
  000a9	80 f2 ed	 xor	 dl, -19			; ffffffedH
  000ac	88 55 ec	 mov	 BYTE PTR __k$[ebp+8], dl
  000af	8a 50 09	 mov	 dl, BYTE PTR [eax+9]
  000b2	84 d2		 test	 dl, dl
  000b4	0f 84 11 01 00
	00		 je	 $LN87@LoadBool_e@3
  000ba	32 d3		 xor	 dl, bl
  000bc	88 55 ed	 mov	 BYTE PTR __k$[ebp+9], dl
  000bf	8a 50 0a	 mov	 dl, BYTE PTR [eax+10]
  000c2	84 d2		 test	 dl, dl
  000c4	0f 84 fc 00 00
	00		 je	 $LN86@LoadBool_e@3
  000ca	32 d1		 xor	 dl, cl
  000cc	88 55 ee	 mov	 BYTE PTR __k$[ebp+10], dl
  000cf	8a 50 0b	 mov	 dl, BYTE PTR [eax+11]
  000d2	84 d2		 test	 dl, dl
  000d4	0f 84 e6 00 00
	00		 je	 $LN85@LoadBool_e@3
  000da	80 f2 ea	 xor	 dl, -22			; ffffffeaH
  000dd	88 55 ef	 mov	 BYTE PTR __k$[ebp+11], dl
  000e0	8a 50 0c	 mov	 dl, BYTE PTR [eax+12]
  000e3	84 d2		 test	 dl, dl
  000e5	0f 84 cf 00 00
	00		 je	 $LN84@LoadBool_e@3
  000eb	80 f2 ed	 xor	 dl, -19			; ffffffedH
  000ee	88 55 f0	 mov	 BYTE PTR __k$[ebp+12], dl
  000f1	8a 50 0d	 mov	 dl, BYTE PTR [eax+13]
  000f4	84 d2		 test	 dl, dl
  000f6	0f 84 b9 00 00
	00		 je	 $LN83@LoadBool_e@3
  000fc	32 d3		 xor	 dl, bl
  000fe	88 55 f1	 mov	 BYTE PTR __k$[ebp+13], dl
  00101	8a 50 0e	 mov	 dl, BYTE PTR [eax+14]
  00104	84 d2		 test	 dl, dl
  00106	0f 84 a4 00 00
	00		 je	 $LN82@LoadBool_e@3
  0010c	32 d1		 xor	 dl, cl
  0010e	88 55 f2	 mov	 BYTE PTR __k$[ebp+14], dl
  00111	8a 50 0f	 mov	 dl, BYTE PTR [eax+15]
  00114	84 d2		 test	 dl, dl
  00116	0f 84 8e 00 00
	00		 je	 $LN81@LoadBool_e@3
  0011c	80 f2 ea	 xor	 dl, -22			; ffffffeaH
  0011f	88 55 f3	 mov	 BYTE PTR __k$[ebp+15], dl
  00122	8a 50 10	 mov	 dl, BYTE PTR [eax+16]
  00125	84 d2		 test	 dl, dl
  00127	74 7b		 je	 SHORT $LN80@LoadBool_e@3
  00129	80 f2 ed	 xor	 dl, -19			; ffffffedH
  0012c	88 55 f4	 mov	 BYTE PTR __k$[ebp+16], dl
  0012f	8a 50 11	 mov	 dl, BYTE PTR [eax+17]
  00132	84 d2		 test	 dl, dl
  00134	74 69		 je	 SHORT $LN79@LoadBool_e@3
  00136	32 d3		 xor	 dl, bl
  00138	88 55 f5	 mov	 BYTE PTR __k$[ebp+17], dl
  0013b	8a 50 12	 mov	 dl, BYTE PTR [eax+18]
  0013e	84 d2		 test	 dl, dl
  00140	74 58		 je	 SHORT $LN78@LoadBool_e@3
  00142	32 d1		 xor	 dl, cl
  00144	80 78 13 00	 cmp	 BYTE PTR [eax+19], 0
  00148	88 55 f6	 mov	 BYTE PTR __k$[ebp+18], dl
  0014b	0f 84 b1 00 00
	00		 je	 $LN1@LoadBool_e@3
  00151	8a 50 14	 mov	 dl, BYTE PTR [eax+20]
  00154	84 d2		 test	 dl, dl
  00156	74 3c		 je	 SHORT $LN76@LoadBool_e@3
  00158	80 f2 ed	 xor	 dl, -19			; ffffffedH
  0015b	88 55 f8	 mov	 BYTE PTR __k$[ebp+20], dl
  0015e	8a 50 15	 mov	 dl, BYTE PTR [eax+21]
  00161	84 d2		 test	 dl, dl
  00163	74 2a		 je	 SHORT $LN75@LoadBool_e@3
  00165	32 d3		 xor	 dl, bl
  00167	88 55 f9	 mov	 BYTE PTR __k$[ebp+21], dl
  0016a	8a 50 16	 mov	 dl, BYTE PTR [eax+22]
  0016d	84 d2		 test	 dl, dl
  0016f	74 19		 je	 SHORT $LN74@LoadBool_e@3
  00171	8a 40 17	 mov	 al, BYTE PTR [eax+23]
  00174	32 d1		 xor	 dl, cl
  00176	88 55 fa	 mov	 BYTE PTR __k$[ebp+22], dl
  00179	84 c0		 test	 al, al
  0017b	74 07		 je	 SHORT $LN73@LoadBool_e@3
  0017d	34 ea		 xor	 al, -22			; ffffffeaH
  0017f	88 45 fb	 mov	 BYTE PTR __k$[ebp+23], al
  00182	eb 7e		 jmp	 SHORT $LN1@LoadBool_e@3
$LN73@LoadBool_e@3:
  00184	c6 45 fb ea	 mov	 BYTE PTR __k$[ebp+23], -22 ; ffffffeaH
  00188	eb 78		 jmp	 SHORT $LN1@LoadBool_e@3
$LN74@LoadBool_e@3:
  0018a	88 4d fa	 mov	 BYTE PTR __k$[ebp+22], cl
  0018d	eb 73		 jmp	 SHORT $LN1@LoadBool_e@3
$LN75@LoadBool_e@3:
  0018f	88 5d f9	 mov	 BYTE PTR __k$[ebp+21], bl
  00192	eb 6e		 jmp	 SHORT $LN1@LoadBool_e@3
$LN76@LoadBool_e@3:
  00194	c6 45 f8 ed	 mov	 BYTE PTR __k$[ebp+20], -19 ; ffffffedH
  00198	eb 68		 jmp	 SHORT $LN1@LoadBool_e@3
$LN78@LoadBool_e@3:
  0019a	88 4d f6	 mov	 BYTE PTR __k$[ebp+18], cl
  0019d	eb 63		 jmp	 SHORT $LN1@LoadBool_e@3
$LN79@LoadBool_e@3:
  0019f	88 5d f5	 mov	 BYTE PTR __k$[ebp+17], bl
  001a2	eb 5e		 jmp	 SHORT $LN1@LoadBool_e@3
$LN80@LoadBool_e@3:
  001a4	c6 45 f4 ed	 mov	 BYTE PTR __k$[ebp+16], -19 ; ffffffedH
  001a8	eb 58		 jmp	 SHORT $LN1@LoadBool_e@3
$LN81@LoadBool_e@3:
  001aa	c6 45 f3 ea	 mov	 BYTE PTR __k$[ebp+15], -22 ; ffffffeaH
  001ae	eb 52		 jmp	 SHORT $LN1@LoadBool_e@3
$LN82@LoadBool_e@3:
  001b0	88 4d f2	 mov	 BYTE PTR __k$[ebp+14], cl
  001b3	eb 4d		 jmp	 SHORT $LN1@LoadBool_e@3
$LN83@LoadBool_e@3:
  001b5	88 5d f1	 mov	 BYTE PTR __k$[ebp+13], bl
  001b8	eb 48		 jmp	 SHORT $LN1@LoadBool_e@3
$LN84@LoadBool_e@3:
  001ba	c6 45 f0 ed	 mov	 BYTE PTR __k$[ebp+12], -19 ; ffffffedH
  001be	eb 42		 jmp	 SHORT $LN1@LoadBool_e@3
$LN85@LoadBool_e@3:
  001c0	c6 45 ef ea	 mov	 BYTE PTR __k$[ebp+11], -22 ; ffffffeaH
  001c4	eb 3c		 jmp	 SHORT $LN1@LoadBool_e@3
$LN86@LoadBool_e@3:
  001c6	88 4d ee	 mov	 BYTE PTR __k$[ebp+10], cl
  001c9	eb 37		 jmp	 SHORT $LN1@LoadBool_e@3
$LN87@LoadBool_e@3:
  001cb	88 5d ed	 mov	 BYTE PTR __k$[ebp+9], bl
  001ce	eb 32		 jmp	 SHORT $LN1@LoadBool_e@3
$LN88@LoadBool_e@3:
  001d0	c6 45 ec ed	 mov	 BYTE PTR __k$[ebp+8], -19 ; ffffffedH
  001d4	eb 2c		 jmp	 SHORT $LN1@LoadBool_e@3
$LN89@LoadBool_e@3:
  001d6	c6 45 eb ea	 mov	 BYTE PTR __k$[ebp+7], -22 ; ffffffeaH
  001da	eb 26		 jmp	 SHORT $LN1@LoadBool_e@3
$LN90@LoadBool_e@3:
  001dc	88 4d ea	 mov	 BYTE PTR __k$[ebp+6], cl
  001df	eb 21		 jmp	 SHORT $LN1@LoadBool_e@3
$LN91@LoadBool_e@3:
  001e1	88 5d e9	 mov	 BYTE PTR __k$[ebp+5], bl
  001e4	eb 1c		 jmp	 SHORT $LN1@LoadBool_e@3
$LN92@LoadBool_e@3:
  001e6	c6 45 e8 ed	 mov	 BYTE PTR __k$[ebp+4], -19 ; ffffffedH
  001ea	eb 16		 jmp	 SHORT $LN1@LoadBool_e@3
$LN93@LoadBool_e@3:
  001ec	c6 45 e7 ea	 mov	 BYTE PTR __k$[ebp+3], -22 ; ffffffeaH
  001f0	eb 10		 jmp	 SHORT $LN1@LoadBool_e@3
$LN94@LoadBool_e@3:
  001f2	c6 45 e6 eb	 mov	 BYTE PTR __k$[ebp+2], -21 ; ffffffebH
  001f6	eb 0a		 jmp	 SHORT $LN1@LoadBool_e@3
$LN95@LoadBool_e@3:
  001f8	c6 45 e5 ec	 mov	 BYTE PTR __k$[ebp+1], -20 ; ffffffecH
  001fc	eb 04		 jmp	 SHORT $LN1@LoadBool_e@3
$LN96@LoadBool_e@3:
  001fe	c6 45 e4 ed	 mov	 BYTE PTR __k$[ebp], -19	; ffffffedH
$LN1@LoadBool_e@3:
  00202	6a 04		 push	 4
  00204	8d 45 e4	 lea	 eax, DWORD PTR __k$[ebp]
  00207	c6 45 f7 00	 mov	 BYTE PTR __k$[ebp+19], 0
  0020b	5a		 pop	 edx
$LL104@LoadBool_e@3:
  0020c	81 30 ed ec eb
	ea		 xor	 DWORD PTR [eax], -353637139 ; eaebecedH
  00212	83 c0 04	 add	 eax, 4
  00215	4a		 dec	 edx
  00216	75 f4		 jne	 SHORT $LL104@LoadBool_e@3
  00218	6a 10		 push	 16			; 00000010H
  0021a	58		 pop	 eax
$LL101@LoadBool_e@3:
  0021b	8b c8		 mov	 ecx, eax
  0021d	81 e1 03 00 00
	80		 and	 ecx, -2147483645	; 80000003H
  00223	79 05		 jns	 SHORT $LN111@LoadBool_e@3
  00225	49		 dec	 ecx
  00226	83 c9 fc	 or	 ecx, -4			; fffffffcH
  00229	41		 inc	 ecx
$LN111@LoadBool_e@3:
  0022a	b2 ed		 mov	 dl, -19			; ffffffedH
  0022c	2a d1		 sub	 dl, cl
  0022e	30 54 05 e4	 xor	 BYTE PTR __k$[ebp+eax], dl
  00232	40		 inc	 eax
  00233	83 f8 13	 cmp	 eax, 19			; 00000013H
  00236	7c e3		 jl	 SHORT $LL101@LoadBool_e@3

; 103  : 		return LoadBool(_k, b);

  00238	ff 75 0c	 push	 DWORD PTR _b$[ebp]
  0023b	8d 45 e4	 lea	 eax, DWORD PTR __k$[ebp]
  0023e	50		 push	 eax
  0023f	8b ce		 mov	 ecx, esi
  00241	ff 15 00 00 00
	00		 call	 DWORD PTR __imp_?LoadBool@ioINILoader@@QAE_NPBD_N@Z

; 104  : 	}

  00247	8b 4d fc	 mov	 ecx, DWORD PTR __$ArrayPad$[ebp]
  0024a	5e		 pop	 esi
  0024b	33 cd		 xor	 ecx, ebp
  0024d	5b		 pop	 ebx
  0024e	e8 00 00 00 00	 call	 @__security_check_cookie@4
  00253	c9		 leave
  00254	c2 08 00	 ret	 8
??$LoadBool_e@$0BE@@ioINILoader@@QAE_NAAY0BE@$$CBD_N@Z ENDP ; ioINILoader::LoadBool_e<20>
_TEXT	ENDS
PUBLIC	__$ArrayPad$
PUBLIC	??$LoadInt_e@$0P@@ioINILoader@@QAEHAAY0P@$$CBDH@Z ; ioINILoader::LoadInt_e<15>
; Function compile flags: /Ogsp
;	COMDAT ??$LoadInt_e@$0P@@ioINILoader@@QAEHAAY0P@$$CBDH@Z
_TEXT	SEGMENT
__k$ = -24						; size = 15
__$ArrayPad$ = -4					; size = 4
_k$ = 8							; size = 4
_i$ = 12						; size = 4
??$LoadInt_e@$0P@@ioINILoader@@QAEHAAY0P@$$CBDH@Z PROC	; ioINILoader::LoadInt_e<15>, COMDAT
; _this$ = ecx

; 118  : 	{

  00000	55		 push	 ebp
  00001	8b ec		 mov	 ebp, esp
  00003	83 ec 18	 sub	 esp, 24			; 00000018H
  00006	a1 00 00 00 00	 mov	 eax, DWORD PTR ___security_cookie
  0000b	33 c5		 xor	 eax, ebp
  0000d	89 45 fc	 mov	 DWORD PTR __$ArrayPad$[ebp], eax
  00010	8b 45 08	 mov	 eax, DWORD PTR _k$[ebp]

; 119  : 		_ENCSTR(k, _k);

  00013	8a 10		 mov	 dl, BYTE PTR [eax]
  00015	56		 push	 esi
  00016	8b f1		 mov	 esi, ecx
  00018	84 d2		 test	 dl, dl
  0001a	0f 84 75 01 00
	00		 je	 $LN96@LoadInt_e@2
  00020	80 f2 ed	 xor	 dl, -19			; ffffffedH
  00023	88 55 e8	 mov	 BYTE PTR __k$[ebp], dl
  00026	8a 50 01	 mov	 dl, BYTE PTR [eax+1]
  00029	84 d2		 test	 dl, dl
  0002b	0f 84 5e 01 00
	00		 je	 $LN95@LoadInt_e@2
  00031	b1 ec		 mov	 cl, -20			; ffffffecH
  00033	32 d1		 xor	 dl, cl
  00035	88 55 e9	 mov	 BYTE PTR __k$[ebp+1], dl
  00038	8a 50 02	 mov	 dl, BYTE PTR [eax+2]
  0003b	84 d2		 test	 dl, dl
  0003d	0f 84 46 01 00
	00		 je	 $LN94@LoadInt_e@2
  00043	80 f2 eb	 xor	 dl, -21			; ffffffebH
  00046	88 55 ea	 mov	 BYTE PTR __k$[ebp+2], dl
  00049	8a 50 03	 mov	 dl, BYTE PTR [eax+3]
  0004c	84 d2		 test	 dl, dl
  0004e	0f 84 2f 01 00
	00		 je	 $LN93@LoadInt_e@2
  00054	80 f2 ea	 xor	 dl, -22			; ffffffeaH
  00057	88 55 eb	 mov	 BYTE PTR __k$[ebp+3], dl
  0005a	8a 50 04	 mov	 dl, BYTE PTR [eax+4]
  0005d	84 d2		 test	 dl, dl
  0005f	0f 84 18 01 00
	00		 je	 $LN92@LoadInt_e@2
  00065	80 f2 ed	 xor	 dl, -19			; ffffffedH
  00068	88 55 ec	 mov	 BYTE PTR __k$[ebp+4], dl
  0006b	8a 50 05	 mov	 dl, BYTE PTR [eax+5]
  0006e	84 d2		 test	 dl, dl
  00070	0f 84 02 01 00
	00		 je	 $LN91@LoadInt_e@2
  00076	32 d1		 xor	 dl, cl
  00078	88 55 ed	 mov	 BYTE PTR __k$[ebp+5], dl
  0007b	8a 50 06	 mov	 dl, BYTE PTR [eax+6]
  0007e	84 d2		 test	 dl, dl
  00080	0f 84 ec 00 00
	00		 je	 $LN90@LoadInt_e@2
  00086	80 f2 eb	 xor	 dl, -21			; ffffffebH
  00089	88 55 ee	 mov	 BYTE PTR __k$[ebp+6], dl
  0008c	8a 50 07	 mov	 dl, BYTE PTR [eax+7]
  0008f	84 d2		 test	 dl, dl
  00091	0f 84 d5 00 00
	00		 je	 $LN89@LoadInt_e@2
  00097	80 f2 ea	 xor	 dl, -22			; ffffffeaH
  0009a	88 55 ef	 mov	 BYTE PTR __k$[ebp+7], dl
  0009d	8a 50 08	 mov	 dl, BYTE PTR [eax+8]
  000a0	84 d2		 test	 dl, dl
  000a2	0f 84 be 00 00
	00		 je	 $LN88@LoadInt_e@2
  000a8	80 f2 ed	 xor	 dl, -19			; ffffffedH
  000ab	88 55 f0	 mov	 BYTE PTR __k$[ebp+8], dl
  000ae	8a 50 09	 mov	 dl, BYTE PTR [eax+9]
  000b1	84 d2		 test	 dl, dl
  000b3	0f 84 a8 00 00
	00		 je	 $LN87@LoadInt_e@2
  000b9	32 d1		 xor	 dl, cl
  000bb	88 55 f1	 mov	 BYTE PTR __k$[ebp+9], dl
  000be	8a 50 0a	 mov	 dl, BYTE PTR [eax+10]
  000c1	84 d2		 test	 dl, dl
  000c3	0f 84 92 00 00
	00		 je	 $LN86@LoadInt_e@2
  000c9	80 f2 eb	 xor	 dl, -21			; ffffffebH
  000cc	88 55 f2	 mov	 BYTE PTR __k$[ebp+10], dl
  000cf	8a 50 0b	 mov	 dl, BYTE PTR [eax+11]
  000d2	84 d2		 test	 dl, dl
  000d4	74 7f		 je	 SHORT $LN85@LoadInt_e@2
  000d6	80 f2 ea	 xor	 dl, -22			; ffffffeaH
  000d9	88 55 f3	 mov	 BYTE PTR __k$[ebp+11], dl
  000dc	8a 50 0c	 mov	 dl, BYTE PTR [eax+12]
  000df	84 d2		 test	 dl, dl
  000e1	74 6c		 je	 SHORT $LN84@LoadInt_e@2
  000e3	80 f2 ed	 xor	 dl, -19			; ffffffedH
  000e6	88 55 f4	 mov	 BYTE PTR __k$[ebp+12], dl
  000e9	8a 50 0d	 mov	 dl, BYTE PTR [eax+13]
  000ec	84 d2		 test	 dl, dl
  000ee	74 5a		 je	 SHORT $LN83@LoadInt_e@2
  000f0	32 d1		 xor	 dl, cl
  000f2	80 78 0e 00	 cmp	 BYTE PTR [eax+14], 0
  000f6	88 55 f5	 mov	 BYTE PTR __k$[ebp+13], dl
  000f9	0f 84 9a 00 00
	00		 je	 $LN1@LoadInt_e@2
  000ff	8a 50 0f	 mov	 dl, BYTE PTR [eax+15]
  00102	84 d2		 test	 dl, dl
  00104	74 3e		 je	 SHORT $LN81@LoadInt_e@2
  00106	80 f2 ea	 xor	 dl, -22			; ffffffeaH
  00109	88 55 f7	 mov	 BYTE PTR __k$[ebp+15], dl
  0010c	8a 50 10	 mov	 dl, BYTE PTR [eax+16]
  0010f	84 d2		 test	 dl, dl
  00111	74 2b		 je	 SHORT $LN80@LoadInt_e@2
  00113	80 f2 ed	 xor	 dl, -19			; ffffffedH
  00116	88 55 f8	 mov	 BYTE PTR __k$[ebp+16], dl
  00119	8a 50 11	 mov	 dl, BYTE PTR [eax+17]
  0011c	84 d2		 test	 dl, dl
  0011e	74 19		 je	 SHORT $LN79@LoadInt_e@2
  00120	8a 40 12	 mov	 al, BYTE PTR [eax+18]
  00123	32 d1		 xor	 dl, cl
  00125	88 55 f9	 mov	 BYTE PTR __k$[ebp+17], dl
  00128	84 c0		 test	 al, al
  0012a	74 07		 je	 SHORT $LN78@LoadInt_e@2
  0012c	34 eb		 xor	 al, -21			; ffffffebH
  0012e	88 45 fa	 mov	 BYTE PTR __k$[ebp+18], al
  00131	eb 66		 jmp	 SHORT $LN1@LoadInt_e@2
$LN78@LoadInt_e@2:
  00133	c6 45 fa eb	 mov	 BYTE PTR __k$[ebp+18], -21 ; ffffffebH
  00137	eb 60		 jmp	 SHORT $LN1@LoadInt_e@2
$LN79@LoadInt_e@2:
  00139	88 4d f9	 mov	 BYTE PTR __k$[ebp+17], cl
  0013c	eb 5b		 jmp	 SHORT $LN1@LoadInt_e@2
$LN80@LoadInt_e@2:
  0013e	c6 45 f8 ed	 mov	 BYTE PTR __k$[ebp+16], -19 ; ffffffedH
  00142	eb 55		 jmp	 SHORT $LN1@LoadInt_e@2
$LN81@LoadInt_e@2:
  00144	c6 45 f7 ea	 mov	 BYTE PTR __k$[ebp+15], -22 ; ffffffeaH
  00148	eb 4f		 jmp	 SHORT $LN1@LoadInt_e@2
$LN83@LoadInt_e@2:
  0014a	88 4d f5	 mov	 BYTE PTR __k$[ebp+13], cl
  0014d	eb 4a		 jmp	 SHORT $LN1@LoadInt_e@2
$LN84@LoadInt_e@2:
  0014f	c6 45 f4 ed	 mov	 BYTE PTR __k$[ebp+12], -19 ; ffffffedH
  00153	eb 44		 jmp	 SHORT $LN1@LoadInt_e@2
$LN85@LoadInt_e@2:
  00155	c6 45 f3 ea	 mov	 BYTE PTR __k$[ebp+11], -22 ; ffffffeaH
  00159	eb 3e		 jmp	 SHORT $LN1@LoadInt_e@2
$LN86@LoadInt_e@2:
  0015b	c6 45 f2 eb	 mov	 BYTE PTR __k$[ebp+10], -21 ; ffffffebH
  0015f	eb 38		 jmp	 SHORT $LN1@LoadInt_e@2
$LN87@LoadInt_e@2:
  00161	88 4d f1	 mov	 BYTE PTR __k$[ebp+9], cl
  00164	eb 33		 jmp	 SHORT $LN1@LoadInt_e@2
$LN88@LoadInt_e@2:
  00166	c6 45 f0 ed	 mov	 BYTE PTR __k$[ebp+8], -19 ; ffffffedH
  0016a	eb 2d		 jmp	 SHORT $LN1@LoadInt_e@2
$LN89@LoadInt_e@2:
  0016c	c6 45 ef ea	 mov	 BYTE PTR __k$[ebp+7], -22 ; ffffffeaH
  00170	eb 27		 jmp	 SHORT $LN1@LoadInt_e@2
$LN90@LoadInt_e@2:
  00172	c6 45 ee eb	 mov	 BYTE PTR __k$[ebp+6], -21 ; ffffffebH
  00176	eb 21		 jmp	 SHORT $LN1@LoadInt_e@2
$LN91@LoadInt_e@2:
  00178	88 4d ed	 mov	 BYTE PTR __k$[ebp+5], cl
  0017b	eb 1c		 jmp	 SHORT $LN1@LoadInt_e@2
$LN92@LoadInt_e@2:
  0017d	c6 45 ec ed	 mov	 BYTE PTR __k$[ebp+4], -19 ; ffffffedH
  00181	eb 16		 jmp	 SHORT $LN1@LoadInt_e@2
$LN93@LoadInt_e@2:
  00183	c6 45 eb ea	 mov	 BYTE PTR __k$[ebp+3], -22 ; ffffffeaH
  00187	eb 10		 jmp	 SHORT $LN1@LoadInt_e@2
$LN94@LoadInt_e@2:
  00189	c6 45 ea eb	 mov	 BYTE PTR __k$[ebp+2], -21 ; ffffffebH
  0018d	eb 0a		 jmp	 SHORT $LN1@LoadInt_e@2
$LN95@LoadInt_e@2:
  0018f	c6 45 e9 ec	 mov	 BYTE PTR __k$[ebp+1], -20 ; ffffffecH
  00193	eb 04		 jmp	 SHORT $LN1@LoadInt_e@2
$LN96@LoadInt_e@2:
  00195	c6 45 e8 ed	 mov	 BYTE PTR __k$[ebp], -19	; ffffffedH
$LN1@LoadInt_e@2:
  00199	6a 03		 push	 3
  0019b	8d 45 e8	 lea	 eax, DWORD PTR __k$[ebp]
  0019e	c6 45 f6 00	 mov	 BYTE PTR __k$[ebp+14], 0
  001a2	5a		 pop	 edx
$LL104@LoadInt_e@2:
  001a3	81 30 ed ec eb
	ea		 xor	 DWORD PTR [eax], -353637139 ; eaebecedH
  001a9	83 c0 04	 add	 eax, 4
  001ac	4a		 dec	 edx
  001ad	75 f4		 jne	 SHORT $LL104@LoadInt_e@2
  001af	6a 0c		 push	 12			; 0000000cH
  001b1	58		 pop	 eax
$LL101@LoadInt_e@2:
  001b2	8b c8		 mov	 ecx, eax
  001b4	81 e1 03 00 00
	80		 and	 ecx, -2147483645	; 80000003H
  001ba	79 05		 jns	 SHORT $LN111@LoadInt_e@2
  001bc	49		 dec	 ecx
  001bd	83 c9 fc	 or	 ecx, -4			; fffffffcH
  001c0	41		 inc	 ecx
$LN111@LoadInt_e@2:
  001c1	b2 ed		 mov	 dl, -19			; ffffffedH
  001c3	2a d1		 sub	 dl, cl
  001c5	30 54 05 e8	 xor	 BYTE PTR __k$[ebp+eax], dl
  001c9	40		 inc	 eax
  001ca	83 f8 0e	 cmp	 eax, 14			; 0000000eH
  001cd	7c e3		 jl	 SHORT $LL101@LoadInt_e@2

; 120  : 		return LoadInt(_k, i);

  001cf	ff 75 0c	 push	 DWORD PTR _i$[ebp]
  001d2	8d 45 e8	 lea	 eax, DWORD PTR __k$[ebp]
  001d5	50		 push	 eax
  001d6	8b ce		 mov	 ecx, esi
  001d8	ff 15 00 00 00
	00		 call	 DWORD PTR __imp_?LoadInt@ioINILoader@@QAEHPBDH@Z

; 121  : 	}

  001de	8b 4d fc	 mov	 ecx, DWORD PTR __$ArrayPad$[ebp]
  001e1	33 cd		 xor	 ecx, ebp
  001e3	5e		 pop	 esi
  001e4	e8 00 00 00 00	 call	 @__security_check_cookie@4
  001e9	c9		 leave
  001ea	c2 08 00	 ret	 8
??$LoadInt_e@$0P@@ioINILoader@@QAEHAAY0P@$$CBDH@Z ENDP	; ioINILoader::LoadInt_e<15>
_TEXT	ENDS
PUBLIC	??$GetAnimationEventTimeList_e@$0N@@ioEntityGroup@@QAEHHAAY0N@$$CBDAAV?$list@MV?$allocator@M@std@@@std@@@Z ; ioEntityGroup::GetAnimationEventTimeList_e<13>
EXTRN	__imp_??1ioHashString@@QAE@XZ:PROC
EXTRN	__imp_?GetAnimationEventTimeList@ioEntityGroup@@QAEHHABVioHashString@@AAV?$list@MV?$allocator@M@std@@@std@@@Z:PROC
EXTRN	__imp_??0ioHashString@@QAE@PBD@Z:PROC
EXTRN	__EH_epilog3_GS:PROC
EXTRN	__EH_prolog3_GS:PROC
;	COMDAT xdata$x
; File d:\lost saga for developer\youtube\tutorial\source\src\lsclient\stringprotect.h
xdata$x	SEGMENT
__unwindtable$??$GetAnimationEventTimeList_e@$0N@@ioEntityGroup@@QAEHHAAY0N@$$CBDAAV?$list@MV?$allocator@M@std@@@std@@@Z DD 0ffffffffH
	DD	FLAT:__unwindfunclet$??$GetAnimationEventTimeList_e@$0N@@ioEntityGroup@@QAEHHAAY0N@$$CBDAAV?$list@MV?$allocator@M@std@@@std@@@Z$0
__ehfuncinfo$??$GetAnimationEventTimeList_e@$0N@@ioEntityGroup@@QAEHHAAY0N@$$CBDAAV?$list@MV?$allocator@M@std@@@std@@@Z DD 019930522H
	DD	01H
	DD	FLAT:__unwindtable$??$GetAnimationEventTimeList_e@$0N@@ioEntityGroup@@QAEHHAAY0N@$$CBDAAV?$list@MV?$allocator@M@std@@@std@@@Z
	DD	2 DUP(00H)
	DD	2 DUP(00H)
	DD	00H
	DD	01H
; Function compile flags: /Ogsp
; File d:\lost saga for developer\youtube\tutorial\source\src\io3dengine\ioentitygroup.h
xdata$x	ENDS
;	COMDAT ??$GetAnimationEventTimeList_e@$0N@@ioEntityGroup@@QAEHHAAY0N@$$CBDAAV?$list@MV?$allocator@M@std@@@std@@@Z
_TEXT	SEGMENT
$T624874 = -52						; size = 16
_szEncEventType$ = -36					; size = 13
__$EHRec$ = -12						; size = 12
_id$ = 8						; size = 4
_szEventType$ = 12					; size = 4
_vTimeList$ = 16					; size = 4
??$GetAnimationEventTimeList_e@$0N@@ioEntityGroup@@QAEHHAAY0N@$$CBDAAV?$list@MV?$allocator@M@std@@@std@@@Z PROC ; ioEntityGroup::GetAnimationEventTimeList_e<13>, COMDAT
; _this$ = ecx

; 406  : 	{

  00000	6a 28		 push	 40			; 00000028H
  00002	b8 00 00 00 00	 mov	 eax, __ehhandler$??$GetAnimationEventTimeList_e@$0N@@ioEntityGroup@@QAEHHAAY0N@$$CBDAAV?$list@MV?$allocator@M@std@@@std@@@Z
  00007	e8 00 00 00 00	 call	 __EH_prolog3_GS
  0000c	8b 45 0c	 mov	 eax, DWORD PTR _szEventType$[ebp]
  0000f	8b 75 10	 mov	 esi, DWORD PTR _vTimeList$[ebp]
  00012	8b f9		 mov	 edi, ecx

; 407  : 		_ENCSTR(szEventType, szEncEventType);

  00014	8a 08		 mov	 cl, BYTE PTR [eax]
  00016	84 c9		 test	 cl, cl
  00018	0f 84 49 01 00
	00		 je	 $LN96@GetAnimati
  0001e	80 f1 ed	 xor	 cl, -19			; ffffffedH
  00021	88 4d dc	 mov	 BYTE PTR _szEncEventType$[ebp], cl
  00024	8a 48 01	 mov	 cl, BYTE PTR [eax+1]
  00027	84 c9		 test	 cl, cl
  00029	0f 84 32 01 00
	00		 je	 $LN95@GetAnimati
  0002f	80 f1 ec	 xor	 cl, -20			; ffffffecH
  00032	88 4d dd	 mov	 BYTE PTR _szEncEventType$[ebp+1], cl
  00035	8a 48 02	 mov	 cl, BYTE PTR [eax+2]
  00038	84 c9		 test	 cl, cl
  0003a	0f 84 1b 01 00
	00		 je	 $LN94@GetAnimati
  00040	b2 eb		 mov	 dl, -21			; ffffffebH
  00042	32 ca		 xor	 cl, dl
  00044	88 4d de	 mov	 BYTE PTR _szEncEventType$[ebp+2], cl
  00047	8a 48 03	 mov	 cl, BYTE PTR [eax+3]
  0004a	84 c9		 test	 cl, cl
  0004c	0f 84 03 01 00
	00		 je	 $LN93@GetAnimati
  00052	80 f1 ea	 xor	 cl, -22			; ffffffeaH
  00055	88 4d df	 mov	 BYTE PTR _szEncEventType$[ebp+3], cl
  00058	8a 48 04	 mov	 cl, BYTE PTR [eax+4]
  0005b	84 c9		 test	 cl, cl
  0005d	0f 84 ec 00 00
	00		 je	 $LN92@GetAnimati
  00063	80 f1 ed	 xor	 cl, -19			; ffffffedH
  00066	88 4d e0	 mov	 BYTE PTR _szEncEventType$[ebp+4], cl
  00069	8a 48 05	 mov	 cl, BYTE PTR [eax+5]
  0006c	84 c9		 test	 cl, cl
  0006e	0f 84 d5 00 00
	00		 je	 $LN91@GetAnimati
  00074	80 f1 ec	 xor	 cl, -20			; ffffffecH
  00077	88 4d e1	 mov	 BYTE PTR _szEncEventType$[ebp+5], cl
  0007a	8a 48 06	 mov	 cl, BYTE PTR [eax+6]
  0007d	84 c9		 test	 cl, cl
  0007f	0f 84 bf 00 00
	00		 je	 $LN90@GetAnimati
  00085	32 ca		 xor	 cl, dl
  00087	88 4d e2	 mov	 BYTE PTR _szEncEventType$[ebp+6], cl
  0008a	8a 48 07	 mov	 cl, BYTE PTR [eax+7]
  0008d	84 c9		 test	 cl, cl
  0008f	0f 84 a9 00 00
	00		 je	 $LN89@GetAnimati
  00095	80 f1 ea	 xor	 cl, -22			; ffffffeaH
  00098	88 4d e3	 mov	 BYTE PTR _szEncEventType$[ebp+7], cl
  0009b	8a 48 08	 mov	 cl, BYTE PTR [eax+8]
  0009e	84 c9		 test	 cl, cl
  000a0	0f 84 92 00 00
	00		 je	 $LN88@GetAnimati
  000a6	80 f1 ed	 xor	 cl, -19			; ffffffedH
  000a9	88 4d e4	 mov	 BYTE PTR _szEncEventType$[ebp+8], cl
  000ac	8a 48 09	 mov	 cl, BYTE PTR [eax+9]
  000af	84 c9		 test	 cl, cl
  000b1	74 7f		 je	 SHORT $LN87@GetAnimati
  000b3	80 f1 ec	 xor	 cl, -20			; ffffffecH
  000b6	88 4d e5	 mov	 BYTE PTR _szEncEventType$[ebp+9], cl
  000b9	8a 48 0a	 mov	 cl, BYTE PTR [eax+10]
  000bc	84 c9		 test	 cl, cl
  000be	74 6d		 je	 SHORT $LN86@GetAnimati
  000c0	32 ca		 xor	 cl, dl
  000c2	88 4d e6	 mov	 BYTE PTR _szEncEventType$[ebp+10], cl
  000c5	8a 48 0b	 mov	 cl, BYTE PTR [eax+11]
  000c8	84 c9		 test	 cl, cl
  000ca	74 5b		 je	 SHORT $LN85@GetAnimati
  000cc	80 f1 ea	 xor	 cl, -22			; ffffffeaH
  000cf	80 78 0c 00	 cmp	 BYTE PTR [eax+12], 0
  000d3	88 4d e7	 mov	 BYTE PTR _szEncEventType$[ebp+11], cl
  000d6	0f 84 8f 00 00
	00		 je	 $LN1@GetAnimati
  000dc	8a 48 0d	 mov	 cl, BYTE PTR [eax+13]
  000df	84 c9		 test	 cl, cl
  000e1	74 3e		 je	 SHORT $LN83@GetAnimati
  000e3	80 f1 ec	 xor	 cl, -20			; ffffffecH
  000e6	88 4d e9	 mov	 BYTE PTR _szEncEventType$[ebp+13], cl
  000e9	8a 48 0e	 mov	 cl, BYTE PTR [eax+14]
  000ec	84 c9		 test	 cl, cl
  000ee	74 2c		 je	 SHORT $LN82@GetAnimati
  000f0	32 ca		 xor	 cl, dl
  000f2	88 4d ea	 mov	 BYTE PTR _szEncEventType$[ebp+14], cl
  000f5	8a 48 0f	 mov	 cl, BYTE PTR [eax+15]
  000f8	84 c9		 test	 cl, cl
  000fa	74 1a		 je	 SHORT $LN81@GetAnimati
  000fc	8a 40 10	 mov	 al, BYTE PTR [eax+16]
  000ff	80 f1 ea	 xor	 cl, -22			; ffffffeaH
  00102	88 4d eb	 mov	 BYTE PTR _szEncEventType$[ebp+15], cl
  00105	84 c0		 test	 al, al
  00107	74 07		 je	 SHORT $LN80@GetAnimati
  00109	34 ed		 xor	 al, -19			; ffffffedH
  0010b	88 45 ec	 mov	 BYTE PTR _szEncEventType$[ebp+16], al
  0010e	eb 5b		 jmp	 SHORT $LN1@GetAnimati
$LN80@GetAnimati:
  00110	c6 45 ec ed	 mov	 BYTE PTR _szEncEventType$[ebp+16], -19 ; ffffffedH
  00114	eb 55		 jmp	 SHORT $LN1@GetAnimati
$LN81@GetAnimati:
  00116	c6 45 eb ea	 mov	 BYTE PTR _szEncEventType$[ebp+15], -22 ; ffffffeaH
  0011a	eb 4f		 jmp	 SHORT $LN1@GetAnimati
$LN82@GetAnimati:
  0011c	88 55 ea	 mov	 BYTE PTR _szEncEventType$[ebp+14], dl
  0011f	eb 4a		 jmp	 SHORT $LN1@GetAnimati
$LN83@GetAnimati:
  00121	c6 45 e9 ec	 mov	 BYTE PTR _szEncEventType$[ebp+13], -20 ; ffffffecH
  00125	eb 44		 jmp	 SHORT $LN1@GetAnimati
$LN85@GetAnimati:
  00127	c6 45 e7 ea	 mov	 BYTE PTR _szEncEventType$[ebp+11], -22 ; ffffffeaH
  0012b	eb 3e		 jmp	 SHORT $LN1@GetAnimati
$LN86@GetAnimati:
  0012d	88 55 e6	 mov	 BYTE PTR _szEncEventType$[ebp+10], dl
  00130	eb 39		 jmp	 SHORT $LN1@GetAnimati
$LN87@GetAnimati:
  00132	c6 45 e5 ec	 mov	 BYTE PTR _szEncEventType$[ebp+9], -20 ; ffffffecH
  00136	eb 33		 jmp	 SHORT $LN1@GetAnimati
$LN88@GetAnimati:
  00138	c6 45 e4 ed	 mov	 BYTE PTR _szEncEventType$[ebp+8], -19 ; ffffffedH
  0013c	eb 2d		 jmp	 SHORT $LN1@GetAnimati
$LN89@GetAnimati:
  0013e	c6 45 e3 ea	 mov	 BYTE PTR _szEncEventType$[ebp+7], -22 ; ffffffeaH
  00142	eb 27		 jmp	 SHORT $LN1@GetAnimati
$LN90@GetAnimati:
  00144	88 55 e2	 mov	 BYTE PTR _szEncEventType$[ebp+6], dl
  00147	eb 22		 jmp	 SHORT $LN1@GetAnimati
$LN91@GetAnimati:
  00149	c6 45 e1 ec	 mov	 BYTE PTR _szEncEventType$[ebp+5], -20 ; ffffffecH
  0014d	eb 1c		 jmp	 SHORT $LN1@GetAnimati
$LN92@GetAnimati:
  0014f	c6 45 e0 ed	 mov	 BYTE PTR _szEncEventType$[ebp+4], -19 ; ffffffedH
  00153	eb 16		 jmp	 SHORT $LN1@GetAnimati
$LN93@GetAnimati:
  00155	c6 45 df ea	 mov	 BYTE PTR _szEncEventType$[ebp+3], -22 ; ffffffeaH
  00159	eb 10		 jmp	 SHORT $LN1@GetAnimati
$LN94@GetAnimati:
  0015b	c6 45 de eb	 mov	 BYTE PTR _szEncEventType$[ebp+2], -21 ; ffffffebH
  0015f	eb 0a		 jmp	 SHORT $LN1@GetAnimati
$LN95@GetAnimati:
  00161	c6 45 dd ec	 mov	 BYTE PTR _szEncEventType$[ebp+1], -20 ; ffffffecH
  00165	eb 04		 jmp	 SHORT $LN1@GetAnimati
$LN96@GetAnimati:
  00167	c6 45 dc ed	 mov	 BYTE PTR _szEncEventType$[ebp], -19 ; ffffffedH
$LN1@GetAnimati:
  0016b	6a 03		 push	 3
  0016d	8d 45 dc	 lea	 eax, DWORD PTR _szEncEventType$[ebp]
  00170	c6 45 e8 00	 mov	 BYTE PTR _szEncEventType$[ebp+12], 0
  00174	59		 pop	 ecx
$LL105@GetAnimati:
  00175	81 30 ed ec eb
	ea		 xor	 DWORD PTR [eax], -353637139 ; eaebecedH
  0017b	83 c0 04	 add	 eax, 4
  0017e	49		 dec	 ecx
  0017f	75 f4		 jne	 SHORT $LL105@GetAnimati

; 408  : 		return GetAnimationEventTimeList(id, szEncEventType, vTimeList);

  00181	8d 45 dc	 lea	 eax, DWORD PTR _szEncEventType$[ebp]
  00184	50		 push	 eax
  00185	8d 4d cc	 lea	 ecx, DWORD PTR $T624874[ebp]
  00188	ff 15 00 00 00
	00		 call	 DWORD PTR __imp_??0ioHashString@@QAE@PBD@Z
  0018e	83 65 fc 00	 and	 DWORD PTR __$EHRec$[ebp+8], 0
  00192	56		 push	 esi
  00193	8d 45 cc	 lea	 eax, DWORD PTR $T624874[ebp]
  00196	50		 push	 eax
  00197	ff 75 08	 push	 DWORD PTR _id$[ebp]
  0019a	8b cf		 mov	 ecx, edi
  0019c	ff 15 00 00 00
	00		 call	 DWORD PTR __imp_?GetAnimationEventTimeList@ioEntityGroup@@QAEHHABVioHashString@@AAV?$list@MV?$allocator@M@std@@@std@@@Z
  001a2	83 4d fc ff	 or	 DWORD PTR __$EHRec$[ebp+8], -1
  001a6	8d 4d cc	 lea	 ecx, DWORD PTR $T624874[ebp]
  001a9	8b f0		 mov	 esi, eax
  001ab	ff 15 00 00 00
	00		 call	 DWORD PTR __imp_??1ioHashString@@QAE@XZ
  001b1	8b c6		 mov	 eax, esi

; 409  : 	}

  001b3	e8 00 00 00 00	 call	 __EH_epilog3_GS
  001b8	c2 0c 00	 ret	 12			; 0000000cH
_TEXT	ENDS
;	COMDAT text$x
text$x	SEGMENT
__unwindfunclet$??$GetAnimationEventTimeList_e@$0N@@ioEntityGroup@@QAEHHAAY0N@$$CBDAAV?$list@MV?$allocator@M@std@@@std@@@Z$0:
  00000	8d 4d cc	 lea	 ecx, DWORD PTR $T624874[ebp]
  00003	ff 25 00 00 00
	00		 jmp	 DWORD PTR __imp_??1ioHashString@@QAE@XZ
__ehhandler$??$GetAnimationEventTimeList_e@$0N@@ioEntityGroup@@QAEHHAAY0N@$$CBDAAV?$list@MV?$allocator@M@std@@@std@@@Z:
  00009	8b 54 24 08	 mov	 edx, DWORD PTR [esp+8]
  0000d	8d 42 0c	 lea	 eax, DWORD PTR [edx+12]
  00010	8b 4a c8	 mov	 ecx, DWORD PTR [edx-56]
  00013	33 c8		 xor	 ecx, eax
  00015	e8 00 00 00 00	 call	 @__security_check_cookie@4
  0001a	8b 4a fc	 mov	 ecx, DWORD PTR [edx-4]
  0001d	33 c8		 xor	 ecx, eax
  0001f	e8 00 00 00 00	 call	 @__security_check_cookie@4
  00024	b8 00 00 00 00	 mov	 eax, OFFSET __ehfuncinfo$??$GetAnimationEventTimeList_e@$0N@@ioEntityGroup@@QAEHHAAY0N@$$CBDAAV?$list@MV?$allocator@M@std@@@std@@@Z
  00029	e9 00 00 00 00	 jmp	 ___CxxFrameHandler3
text$x	ENDS
??$GetAnimationEventTimeList_e@$0N@@ioEntityGroup@@QAEHHAAY0N@$$CBDAAV?$list@MV?$allocator@M@std@@@std@@@Z ENDP ; ioEntityGroup::GetAnimationEventTimeList_e<13>
PUBLIC	?destroy@?$allocator@U_Node@?$_List_nod@MV?$allocator@M@std@@@std@@@std@@QAEXPAU_Node@?$_List_nod@MV?$allocator@M@std@@@2@@Z ; std::allocator<std::_List_nod<float,std::allocator<float> >::_Node>::destroy
; Function compile flags: /Ogsp
; File c:\program files (x86)\microsoft visual studio 10.0\vc\include\xmemory
;	COMDAT ?destroy@?$allocator@U_Node@?$_List_nod@MV?$allocator@M@std@@@std@@@std@@QAEXPAU_Node@?$_List_nod@MV?$allocator@M@std@@@2@@Z
_TEXT	SEGMENT
__Ptr$ = 8						; size = 4
?destroy@?$allocator@U_Node@?$_List_nod@MV?$allocator@M@std@@@std@@@std@@QAEXPAU_Node@?$_List_nod@MV?$allocator@M@std@@@2@@Z PROC ; std::allocator<std::_List_nod<float,std::allocator<float> >::_Node>::destroy, COMDAT
; _this$ = ecx

; 213  : 		_Destroy(_Ptr);
; 214  : 		}

  00000	c2 04 00	 ret	 4
?destroy@?$allocator@U_Node@?$_List_nod@MV?$allocator@M@std@@@std@@@std@@QAEXPAU_Node@?$_List_nod@MV?$allocator@M@std@@@2@@Z ENDP ; std::allocator<std::_List_nod<float,std::allocator<float> >::_Node>::destroy
_TEXT	ENDS
PUBLIC	?destroy@?$allocator@K@std@@QAEXPAK@Z		; std::allocator<unsigned long>::destroy
; Function compile flags: /Ogsp
;	COMDAT ?destroy@?$allocator@K@std@@QAEXPAK@Z
_TEXT	SEGMENT
__Ptr$ = 8						; size = 4
?destroy@?$allocator@K@std@@QAEXPAK@Z PROC		; std::allocator<unsigned long>::destroy, COMDAT
; _this$ = ecx

; 213  : 		_Destroy(_Ptr);
; 214  : 		}

  00000	c2 04 00	 ret	 4
?destroy@?$allocator@K@std@@QAEXPAK@Z ENDP		; std::allocator<unsigned long>::destroy
_TEXT	ENDS
PUBLIC	??0?$CEncrypt@K@@QAE@XZ				; CEncrypt<unsigned long>::CEncrypt<unsigned long>
EXTRN	??0ccddaabb@@QAE@XZ:PROC			; ccddaabb::ccddaabb
EXTRN	__EH_epilog3:PROC
EXTRN	__EH_prolog3:PROC
;	COMDAT xdata$x
; File d:\lost saga for developer\youtube\tutorial\source\src\lsclient\encryptvalue.h
xdata$x	SEGMENT
__unwindtable$??0?$CEncrypt@K@@QAE@XZ DD 0ffffffffH
	DD	FLAT:__unwindfunclet$??0?$CEncrypt@K@@QAE@XZ$0
__ehfuncinfo$??0?$CEncrypt@K@@QAE@XZ DD 019930522H
	DD	01H
	DD	FLAT:__unwindtable$??0?$CEncrypt@K@@QAE@XZ
	DD	2 DUP(00H)
	DD	2 DUP(00H)
	DD	00H
	DD	01H
; Function compile flags: /Ogsp
xdata$x	ENDS
;	COMDAT ??0?$CEncrypt@K@@QAE@XZ
_TEXT	SEGMENT
_this$ = -16						; size = 4
__$EHRec$ = -12						; size = 12
??0?$CEncrypt@K@@QAE@XZ PROC				; CEncrypt<unsigned long>::CEncrypt<unsigned long>, COMDAT
; _this$ = ecx

; 109  : 	CEncrypt()

  00000	6a 04		 push	 4
  00002	b8 00 00 00 00	 mov	 eax, __ehhandler$??0?$CEncrypt@K@@QAE@XZ
  00007	e8 00 00 00 00	 call	 __EH_prolog3
  0000c	8b f1		 mov	 esi, ecx
  0000e	89 75 f0	 mov	 DWORD PTR _this$[ebp], esi
  00011	8d 4e 0c	 lea	 ecx, DWORD PTR [esi+12]
  00014	c7 06 00 00 00
	00		 mov	 DWORD PTR [esi], OFFSET ??_7?$CEncrypt@K@@6B@
  0001a	e8 00 00 00 00	 call	 ??0ccddaabb@@QAE@XZ	; ccddaabb::ccddaabb
  0001f	83 65 fc 00	 and	 DWORD PTR __$EHRec$[ebp+8], 0

; 110  : 	{
; 111  : 		Init();

  00023	8b ce		 mov	 ecx, esi
  00025	e8 00 00 00 00	 call	 ?Init@?$CEncrypt@K@@AAEXXZ ; CEncrypt<unsigned long>::Init

; 112  : 	}

  0002a	8b c6		 mov	 eax, esi
  0002c	e8 00 00 00 00	 call	 __EH_epilog3
  00031	c3		 ret	 0
_TEXT	ENDS
;	COMDAT text$x
text$x	SEGMENT
__unwindfunclet$??0?$CEncrypt@K@@QAE@XZ$0:
  00000	8b 4d f0	 mov	 ecx, DWORD PTR _this$[ebp]
  00003	83 c1 0c	 add	 ecx, 12			; 0000000cH
  00006	e9 00 00 00 00	 jmp	 ??1ccddaabb@@UAE@XZ	; ccddaabb::~ccddaabb
__ehhandler$??0?$CEncrypt@K@@QAE@XZ:
  0000b	8b 54 24 08	 mov	 edx, DWORD PTR [esp+8]
  0000f	8d 42 0c	 lea	 eax, DWORD PTR [edx+12]
  00012	8b 4a ec	 mov	 ecx, DWORD PTR [edx-20]
  00015	33 c8		 xor	 ecx, eax
  00017	e8 00 00 00 00	 call	 @__security_check_cookie@4
  0001c	b8 00 00 00 00	 mov	 eax, OFFSET __ehfuncinfo$??0?$CEncrypt@K@@QAE@XZ
  00021	e9 00 00 00 00	 jmp	 ___CxxFrameHandler3
text$x	ENDS
??0?$CEncrypt@K@@QAE@XZ ENDP				; CEncrypt<unsigned long>::CEncrypt<unsigned long>
PUBLIC	??B?$CEncrypt@K@@QAEKXZ				; CEncrypt<unsigned long>::operator unsigned long
; Function compile flags: /Ogsp
;	COMDAT ??B?$CEncrypt@K@@QAEKXZ
_TEXT	SEGMENT
_value$ = -4						; size = 4
??B?$CEncrypt@K@@QAEKXZ PROC				; CEncrypt<unsigned long>::operator unsigned long, COMDAT
; _this$ = ecx

; 134  : 	{

  00000	55		 push	 ebp
  00001	8b ec		 mov	 ebp, esp
  00003	51		 push	 ecx

; 135  : 		type value;
; 136  : 		DecryptValueToPool(&value);

  00004	8d 45 fc	 lea	 eax, DWORD PTR _value$[ebp]
  00007	50		 push	 eax
  00008	e8 00 00 00 00	 call	 ?DecryptValueToPool@?$CEncrypt@K@@QAEXPAK@Z ; CEncrypt<unsigned long>::DecryptValueToPool

; 137  : 
; 138  : #ifdef _NOTUSE
; 139  : 		Debug();
; 140  : #endif
; 141  : 		return value;

  0000d	8b 45 fc	 mov	 eax, DWORD PTR _value$[ebp]

; 142  : 	}

  00010	c9		 leave
  00011	c3		 ret	 0
??B?$CEncrypt@K@@QAEKXZ ENDP				; CEncrypt<unsigned long>::operator unsigned long
_TEXT	ENDS
PUBLIC	??B?$CEncrypt@K@@QBEKXZ				; CEncrypt<unsigned long>::operator unsigned long
; Function compile flags: /Ogsp
;	COMDAT ??B?$CEncrypt@K@@QBEKXZ
_TEXT	SEGMENT
_value$ = -4						; size = 4
??B?$CEncrypt@K@@QBEKXZ PROC				; CEncrypt<unsigned long>::operator unsigned long, COMDAT
; _this$ = ecx

; 145  : 	{

  00000	55		 push	 ebp
  00001	8b ec		 mov	 ebp, esp
  00003	51		 push	 ecx

; 146  : 		//UJ 130829, const도 똑같이 하면 된다 --start
; 147  : 		type value;
; 148  : 		CEncrypt<type>* pThis = const_cast<CEncrypt<type>*>(this);
; 149  : 		pThis->DecryptValueToPool(&value);

  00004	8d 45 fc	 lea	 eax, DWORD PTR _value$[ebp]
  00007	50		 push	 eax
  00008	e8 00 00 00 00	 call	 ?DecryptValueToPool@?$CEncrypt@K@@QAEXPAK@Z ; CEncrypt<unsigned long>::DecryptValueToPool

; 150  : 		//// const에서 DecryptValueToPool 사용할 수 없으므로 아래와 같이함.
; 151  :  		//type value;
; 152  : 		//char szTempMem[MAX_ENCRYPT];
; 153  : 		//m_RC5.DecryptByte( m_MemPool, szTempMem, max(m_ValueSize, DEFAULT_ENCRYPT) );
; 154  : 		//memcpy( &value, szTempMem, m_ValueSize );
; 155  : 		//UJ --end
; 156  : 
; 157  : #ifdef _NOTUSE
; 158  : 		Debug();
; 159  : #endif
; 160  : 		return value;

  0000d	8b 45 fc	 mov	 eax, DWORD PTR _value$[ebp]

; 161  : 	}

  00010	c9		 leave
  00011	c3		 ret	 0
??B?$CEncrypt@K@@QBEKXZ ENDP				; CEncrypt<unsigned long>::operator unsigned long
_TEXT	ENDS
PUBLIC	??4?$CEncrypt@K@@QAEKK@Z			; CEncrypt<unsigned long>::operator=
; Function compile flags: /Ogsp
;	COMDAT ??4?$CEncrypt@K@@QAEKK@Z
_TEXT	SEGMENT
_value$ = 8						; size = 4
_inValue$ = 8						; size = 4
??4?$CEncrypt@K@@QAEKK@Z PROC				; CEncrypt<unsigned long>::operator=, COMDAT
; _this$ = ecx

; 1262 : 	{

  00000	55		 push	 ebp
  00001	8b ec		 mov	 ebp, esp

; 1263 : 		
; 1264 : 		type value = inValue;

  00003	8b 45 08	 mov	 eax, DWORD PTR _inValue$[ebp]
  00006	89 45 08	 mov	 DWORD PTR _value$[ebp], eax

; 1265 : 		EncryptValueToPool((char*)&value);

  00009	8d 45 08	 lea	 eax, DWORD PTR _value$[ebp]
  0000c	50		 push	 eax
  0000d	e8 00 00 00 00	 call	 ?EncryptValueToPool@?$CEncrypt@K@@AAEXPBD@Z ; CEncrypt<unsigned long>::EncryptValueToPool

; 1266 : #ifdef _NOTUSE
; 1267 : 		m_value = inValue;
; 1268 : 		Debug();
; 1269 : #endif
; 1270 : 		return value;

  00012	8b 45 08	 mov	 eax, DWORD PTR _value$[ebp]

; 1271 : 	}

  00015	5d		 pop	 ebp
  00016	c2 04 00	 ret	 4
??4?$CEncrypt@K@@QAEKK@Z ENDP				; CEncrypt<unsigned long>::operator=
_TEXT	ENDS
PUBLIC	??0?$CEncrypt@_N@@QAE@XZ			; CEncrypt<bool>::CEncrypt<bool>
;	COMDAT xdata$x
xdata$x	SEGMENT
__unwindtable$??0?$CEncrypt@_N@@QAE@XZ DD 0ffffffffH
	DD	FLAT:__unwindfunclet$??0?$CEncrypt@_N@@QAE@XZ$0
__ehfuncinfo$??0?$CEncrypt@_N@@QAE@XZ DD 019930522H
	DD	01H
	DD	FLAT:__unwindtable$??0?$CEncrypt@_N@@QAE@XZ
	DD	2 DUP(00H)
	DD	2 DUP(00H)
	DD	00H
	DD	01H
; Function compile flags: /Ogsp
xdata$x	ENDS
;	COMDAT ??0?$CEncrypt@_N@@QAE@XZ
_TEXT	SEGMENT
_this$ = -16						; size = 4
__$EHRec$ = -12						; size = 12
??0?$CEncrypt@_N@@QAE@XZ PROC				; CEncrypt<bool>::CEncrypt<bool>, COMDAT
; _this$ = ecx

; 109  : 	CEncrypt()

  00000	6a 04		 push	 4
  00002	b8 00 00 00 00	 mov	 eax, __ehhandler$??0?$CEncrypt@_N@@QAE@XZ
  00007	e8 00 00 00 00	 call	 __EH_prolog3
  0000c	8b f1		 mov	 esi, ecx
  0000e	89 75 f0	 mov	 DWORD PTR _this$[ebp], esi
  00011	8d 4e 0c	 lea	 ecx, DWORD PTR [esi+12]
  00014	c7 06 00 00 00
	00		 mov	 DWORD PTR [esi], OFFSET ??_7?$CEncrypt@_N@@6B@
  0001a	e8 00 00 00 00	 call	 ??0ccddaabb@@QAE@XZ	; ccddaabb::ccddaabb
  0001f	83 65 fc 00	 and	 DWORD PTR __$EHRec$[ebp+8], 0

; 110  : 	{
; 111  : 		Init();

  00023	8b ce		 mov	 ecx, esi
  00025	e8 00 00 00 00	 call	 ?Init@?$CEncrypt@_N@@AAEXXZ ; CEncrypt<bool>::Init

; 112  : 	}

  0002a	8b c6		 mov	 eax, esi
  0002c	e8 00 00 00 00	 call	 __EH_epilog3
  00031	c3		 ret	 0
_TEXT	ENDS
;	COMDAT text$x
text$x	SEGMENT
__unwindfunclet$??0?$CEncrypt@_N@@QAE@XZ$0:
  00000	8b 4d f0	 mov	 ecx, DWORD PTR _this$[ebp]
  00003	83 c1 0c	 add	 ecx, 12			; 0000000cH
  00006	e9 00 00 00 00	 jmp	 ??1ccddaabb@@UAE@XZ	; ccddaabb::~ccddaabb
__ehhandler$??0?$CEncrypt@_N@@QAE@XZ:
  0000b	8b 54 24 08	 mov	 edx, DWORD PTR [esp+8]
  0000f	8d 42 0c	 lea	 eax, DWORD PTR [edx+12]
  00012	8b 4a ec	 mov	 ecx, DWORD PTR [edx-20]
  00015	33 c8		 xor	 ecx, eax
  00017	e8 00 00 00 00	 call	 @__security_check_cookie@4
  0001c	b8 00 00 00 00	 mov	 eax, OFFSET __ehfuncinfo$??0?$CEncrypt@_N@@QAE@XZ
  00021	e9 00 00 00 00	 jmp	 ___CxxFrameHandler3
text$x	ENDS
??0?$CEncrypt@_N@@QAE@XZ ENDP				; CEncrypt<bool>::CEncrypt<bool>
PUBLIC	??B?$CEncrypt@_N@@QAE_NXZ			; CEncrypt<bool>::operator bool
; Function compile flags: /Ogsp
;	COMDAT ??B?$CEncrypt@_N@@QAE_NXZ
_TEXT	SEGMENT
_value$ = -1						; size = 1
??B?$CEncrypt@_N@@QAE_NXZ PROC				; CEncrypt<bool>::operator bool, COMDAT
; _this$ = ecx

; 134  : 	{

  00000	55		 push	 ebp
  00001	8b ec		 mov	 ebp, esp
  00003	51		 push	 ecx

; 135  : 		type value;
; 136  : 		DecryptValueToPool(&value);

  00004	8d 45 ff	 lea	 eax, DWORD PTR _value$[ebp]
  00007	50		 push	 eax
  00008	e8 00 00 00 00	 call	 ?DecryptValueToPool@?$CEncrypt@_N@@QAEXPA_N@Z ; CEncrypt<bool>::DecryptValueToPool

; 137  : 
; 138  : #ifdef _NOTUSE
; 139  : 		Debug();
; 140  : #endif
; 141  : 		return value;

  0000d	8a 45 ff	 mov	 al, BYTE PTR _value$[ebp]

; 142  : 	}

  00010	c9		 leave
  00011	c3		 ret	 0
??B?$CEncrypt@_N@@QAE_NXZ ENDP				; CEncrypt<bool>::operator bool
_TEXT	ENDS
PUBLIC	??B?$CEncrypt@_N@@QBE_NXZ			; CEncrypt<bool>::operator bool
; Function compile flags: /Ogsp
;	COMDAT ??B?$CEncrypt@_N@@QBE_NXZ
_TEXT	SEGMENT
_value$ = -1						; size = 1
??B?$CEncrypt@_N@@QBE_NXZ PROC				; CEncrypt<bool>::operator bool, COMDAT
; _this$ = ecx

; 145  : 	{

  00000	55		 push	 ebp
  00001	8b ec		 mov	 ebp, esp
  00003	51		 push	 ecx

; 146  : 		//UJ 130829, const도 똑같이 하면 된다 --start
; 147  : 		type value;
; 148  : 		CEncrypt<type>* pThis = const_cast<CEncrypt<type>*>(this);
; 149  : 		pThis->DecryptValueToPool(&value);

  00004	8d 45 ff	 lea	 eax, DWORD PTR _value$[ebp]
  00007	50		 push	 eax
  00008	e8 00 00 00 00	 call	 ?DecryptValueToPool@?$CEncrypt@_N@@QAEXPA_N@Z ; CEncrypt<bool>::DecryptValueToPool

; 150  : 		//// const에서 DecryptValueToPool 사용할 수 없으므로 아래와 같이함.
; 151  :  		//type value;
; 152  : 		//char szTempMem[MAX_ENCRYPT];
; 153  : 		//m_RC5.DecryptByte( m_MemPool, szTempMem, max(m_ValueSize, DEFAULT_ENCRYPT) );
; 154  : 		//memcpy( &value, szTempMem, m_ValueSize );
; 155  : 		//UJ --end
; 156  : 
; 157  : #ifdef _NOTUSE
; 158  : 		Debug();
; 159  : #endif
; 160  : 		return value;

  0000d	8a 45 ff	 mov	 al, BYTE PTR _value$[ebp]

; 161  : 	}

  00010	c9		 leave
  00011	c3		 ret	 0
??B?$CEncrypt@_N@@QBE_NXZ ENDP				; CEncrypt<bool>::operator bool
_TEXT	ENDS
PUBLIC	??4?$CEncrypt@_N@@QAE_N_N@Z			; CEncrypt<bool>::operator=
; Function compile flags: /Ogsp
;	COMDAT ??4?$CEncrypt@_N@@QAE_N_N@Z
_TEXT	SEGMENT
_inValue$ = 8						; size = 1
_value$ = 11						; size = 1
??4?$CEncrypt@_N@@QAE_N_N@Z PROC			; CEncrypt<bool>::operator=, COMDAT
; _this$ = ecx

; 225  : 	{

  00000	55		 push	 ebp
  00001	8b ec		 mov	 ebp, esp

; 226  : 		type value = inValue;

  00003	8a 45 08	 mov	 al, BYTE PTR _inValue$[ebp]
  00006	88 45 0b	 mov	 BYTE PTR _value$[ebp], al

; 227  : 		EncryptValueToPool((char*)&value);

  00009	8d 45 0b	 lea	 eax, DWORD PTR _value$[ebp]
  0000c	50		 push	 eax
  0000d	e8 00 00 00 00	 call	 ?EncryptValueToPool@?$CEncrypt@_N@@AAEXPBD@Z ; CEncrypt<bool>::EncryptValueToPool

; 228  : #ifdef _NOTUSE
; 229  : 		m_value = inValue;
; 230  : 		Debug();
; 231  : #endif
; 232  : 		return value;

  00012	8a 45 0b	 mov	 al, BYTE PTR _value$[ebp]

; 233  : 	}

  00015	5d		 pop	 ebp
  00016	c2 04 00	 ret	 4
??4?$CEncrypt@_N@@QAE_N_N@Z ENDP			; CEncrypt<bool>::operator=
_TEXT	ENDS
PUBLIC	??B?$CEncrypt@H@@QAEHXZ				; CEncrypt<int>::operator int
; Function compile flags: /Ogsp
;	COMDAT ??B?$CEncrypt@H@@QAEHXZ
_TEXT	SEGMENT
_value$ = -4						; size = 4
??B?$CEncrypt@H@@QAEHXZ PROC				; CEncrypt<int>::operator int, COMDAT
; _this$ = ecx

; 134  : 	{

  00000	55		 push	 ebp
  00001	8b ec		 mov	 ebp, esp
  00003	51		 push	 ecx

; 135  : 		type value;
; 136  : 		DecryptValueToPool(&value);

  00004	8d 45 fc	 lea	 eax, DWORD PTR _value$[ebp]
  00007	50		 push	 eax
  00008	e8 00 00 00 00	 call	 ?DecryptValueToPool@?$CEncrypt@H@@QAEXPAH@Z ; CEncrypt<int>::DecryptValueToPool

; 137  : 
; 138  : #ifdef _NOTUSE
; 139  : 		Debug();
; 140  : #endif
; 141  : 		return value;

  0000d	8b 45 fc	 mov	 eax, DWORD PTR _value$[ebp]

; 142  : 	}

  00010	c9		 leave
  00011	c3		 ret	 0
??B?$CEncrypt@H@@QAEHXZ ENDP				; CEncrypt<int>::operator int
_TEXT	ENDS
PUBLIC	??B?$CEncrypt@H@@QBEHXZ				; CEncrypt<int>::operator int
; Function compile flags: /Ogsp
;	COMDAT ??B?$CEncrypt@H@@QBEHXZ
_TEXT	SEGMENT
_value$ = -4						; size = 4
??B?$CEncrypt@H@@QBEHXZ PROC				; CEncrypt<int>::operator int, COMDAT
; _this$ = ecx

; 145  : 	{

  00000	55		 push	 ebp
  00001	8b ec		 mov	 ebp, esp
  00003	51		 push	 ecx

; 146  : 		//UJ 130829, const도 똑같이 하면 된다 --start
; 147  : 		type value;
; 148  : 		CEncrypt<type>* pThis = const_cast<CEncrypt<type>*>(this);
; 149  : 		pThis->DecryptValueToPool(&value);

  00004	8d 45 fc	 lea	 eax, DWORD PTR _value$[ebp]
  00007	50		 push	 eax
  00008	e8 00 00 00 00	 call	 ?DecryptValueToPool@?$CEncrypt@H@@QAEXPAH@Z ; CEncrypt<int>::DecryptValueToPool

; 150  : 		//// const에서 DecryptValueToPool 사용할 수 없으므로 아래와 같이함.
; 151  :  		//type value;
; 152  : 		//char szTempMem[MAX_ENCRYPT];
; 153  : 		//m_RC5.DecryptByte( m_MemPool, szTempMem, max(m_ValueSize, DEFAULT_ENCRYPT) );
; 154  : 		//memcpy( &value, szTempMem, m_ValueSize );
; 155  : 		//UJ --end
; 156  : 
; 157  : #ifdef _NOTUSE
; 158  : 		Debug();
; 159  : #endif
; 160  : 		return value;

  0000d	8b 45 fc	 mov	 eax, DWORD PTR _value$[ebp]

; 161  : 	}

  00010	c9		 leave
  00011	c3		 ret	 0
??B?$CEncrypt@H@@QBEHXZ ENDP				; CEncrypt<int>::operator int
_TEXT	ENDS
PUBLIC	??0?$_Vector_val@KV?$allocator@K@std@@@std@@QAE@V?$allocator@K@1@@Z ; std::_Vector_val<unsigned long,std::allocator<unsigned long> >::_Vector_val<unsigned long,std::allocator<unsigned long> >
; Function compile flags: /Ogsp
; File c:\program files (x86)\microsoft visual studio 10.0\vc\include\vector
;	COMDAT ??0?$_Vector_val@KV?$allocator@K@std@@@std@@QAE@V?$allocator@K@1@@Z
_TEXT	SEGMENT
__Al$ = 8						; size = 1
??0?$_Vector_val@KV?$allocator@K@std@@@std@@QAE@V?$allocator@K@1@@Z PROC ; std::_Vector_val<unsigned long,std::allocator<unsigned long> >::_Vector_val<unsigned long,std::allocator<unsigned long> >, COMDAT
; _this$ = ecx

; 426  : 		{	// construct allocator from _Al

  00000	8b c1		 mov	 eax, ecx

; 427  : 		_Myfirst = 0;

  00002	33 c9		 xor	 ecx, ecx
  00004	89 08		 mov	 DWORD PTR [eax], ecx

; 428  : 		_Mylast = 0;

  00006	89 48 04	 mov	 DWORD PTR [eax+4], ecx

; 429  : 		_Myend = 0;

  00009	89 48 08	 mov	 DWORD PTR [eax+8], ecx

; 430  : 		}

  0000c	c2 04 00	 ret	 4
??0?$_Vector_val@KV?$allocator@K@std@@@std@@QAE@V?$allocator@K@1@@Z ENDP ; std::_Vector_val<unsigned long,std::allocator<unsigned long> >::_Vector_val<unsigned long,std::allocator<unsigned long> >
_TEXT	ENDS
PUBLIC	?max_size@?$vector@KV?$allocator@K@std@@@std@@QBEIXZ ; std::vector<unsigned long,std::allocator<unsigned long> >::max_size
; Function compile flags: /Ogsp
;	COMDAT ?max_size@?$vector@KV?$allocator@K@std@@@std@@QBEIXZ
_TEXT	SEGMENT
?max_size@?$vector@KV?$allocator@K@std@@@std@@QBEIXZ PROC ; std::vector<unsigned long,std::allocator<unsigned long> >::max_size, COMDAT
; _this$ = ecx

; 884  : 		return (this->_Alval.max_size());

  00000	b8 ff ff ff 3f	 mov	 eax, 1073741823		; 3fffffffH

; 885  : 		}

  00005	c3		 ret	 0
?max_size@?$vector@KV?$allocator@K@std@@@std@@QBEIXZ ENDP ; std::vector<unsigned long,std::allocator<unsigned long> >::max_size
_TEXT	ENDS
PUBLIC	?_Grow_to@?$vector@KV?$allocator@K@std@@@std@@IBEII@Z ; std::vector<unsigned long,std::allocator<unsigned long> >::_Grow_to
; Function compile flags: /Ogsp
;	COMDAT ?_Grow_to@?$vector@KV?$allocator@K@std@@@std@@IBEII@Z
_TEXT	SEGMENT
__Count$ = 8						; size = 4
?_Grow_to@?$vector@KV?$allocator@K@std@@@std@@IBEII@Z PROC ; std::vector<unsigned long,std::allocator<unsigned long> >::_Grow_to, COMDAT
; _this$ = ecx

; 1274 : 		{	// grow by 50% or at least to _Count

  00000	55		 push	 ebp
  00001	8b ec		 mov	 ebp, esp

; 1275 : 		size_type _Capacity = capacity();

  00003	8b 41 08	 mov	 eax, DWORD PTR [ecx+8]
  00006	2b 01		 sub	 eax, DWORD PTR [ecx]

; 1276 : 
; 1277 : 		_Capacity = max_size() - _Capacity / 2 < _Capacity
; 1278 : 			? 0 : _Capacity + _Capacity / 2;	// try to grow by 50%

  00008	ba ff ff ff 3f	 mov	 edx, 1073741823		; 3fffffffH
  0000d	c1 f8 02	 sar	 eax, 2
  00010	8b c8		 mov	 ecx, eax
  00012	d1 e9		 shr	 ecx, 1
  00014	2b d1		 sub	 edx, ecx
  00016	3b d0		 cmp	 edx, eax
  00018	73 04		 jae	 SHORT $LN4@Grow_to
  0001a	33 c0		 xor	 eax, eax
  0001c	eb 02		 jmp	 SHORT $LN5@Grow_to
$LN4@Grow_to:
  0001e	03 c1		 add	 eax, ecx
$LN5@Grow_to:

; 1279 : 		if (_Capacity < _Count)

  00020	3b 45 08	 cmp	 eax, DWORD PTR __Count$[ebp]

; 1280 : 			_Capacity = _Count;

  00023	0f 42 45 08	 cmovb	 eax, DWORD PTR __Count$[ebp]

; 1281 : 		return (_Capacity);
; 1282 : 		}

  00027	5d		 pop	 ebp
  00028	c2 04 00	 ret	 4
?_Grow_to@?$vector@KV?$allocator@K@std@@@std@@IBEII@Z ENDP ; std::vector<unsigned long,std::allocator<unsigned long> >::_Grow_to
_TEXT	ENDS
PUBLIC	??0?$_Vector_iterator@V?$_Vector_val@KV?$allocator@K@std@@@std@@@std@@QAE@PAKPBU_Container_base0@1@@Z ; std::_Vector_iterator<std::_Vector_val<unsigned long,std::allocator<unsigned long> > >::_Vector_iterator<std::_Vector_val<unsigned long,std::allocator<unsigned long> > >
; Function compile flags: /Ogsp
;	COMDAT ??0?$_Vector_iterator@V?$_Vector_val@KV?$allocator@K@std@@@std@@@std@@QAE@PAKPBU_Container_base0@1@@Z
_TEXT	SEGMENT
__Parg$ = 8						; size = 4
__Pvector$ = 12						; size = 4
??0?$_Vector_iterator@V?$_Vector_val@KV?$allocator@K@std@@@std@@@std@@QAE@PAKPBU_Container_base0@1@@Z PROC ; std::_Vector_iterator<std::_Vector_val<unsigned long,std::allocator<unsigned long> > >::_Vector_iterator<std::_Vector_val<unsigned long,std::allocator<unsigned long> > >, COMDAT
; _this$ = ecx

; 304  : 		{	// construct with pointer _Parg

  00000	55		 push	 ebp
  00001	8b ec		 mov	 ebp, esp
  00003	8b c1		 mov	 eax, ecx
  00005	8b 4d 08	 mov	 ecx, DWORD PTR __Parg$[ebp]
  00008	89 08		 mov	 DWORD PTR [eax], ecx

; 305  : 		}

  0000a	5d		 pop	 ebp
  0000b	c2 08 00	 ret	 8
??0?$_Vector_iterator@V?$_Vector_val@KV?$allocator@K@std@@@std@@@std@@QAE@PAKPBU_Container_base0@1@@Z ENDP ; std::_Vector_iterator<std::_Vector_val<unsigned long,std::allocator<unsigned long> > >::_Vector_iterator<std::_Vector_val<unsigned long,std::allocator<unsigned long> > >
_TEXT	ENDS
PUBLIC	?allocate@?$allocator@K@std@@QAEPAKI@Z		; std::allocator<unsigned long>::allocate
; Function compile flags: /Ogsp
; File c:\program files (x86)\microsoft visual studio 10.0\vc\include\xmemory
;	COMDAT ?allocate@?$allocator@K@std@@QAEPAKI@Z
_TEXT	SEGMENT
__Count$ = 8						; size = 4
?allocate@?$allocator@K@std@@QAEPAKI@Z PROC		; std::allocator<unsigned long>::allocate, COMDAT
; _this$ = ecx

; 186  : 		{	// allocate array of _Count elements

  00000	55		 push	 ebp
  00001	8b ec		 mov	 ebp, esp

; 187  : 		return (_Allocate(_Count, (pointer)0));

  00003	6a 00		 push	 0
  00005	ff 75 08	 push	 DWORD PTR __Count$[ebp]
  00008	e8 00 00 00 00	 call	 ??$_Allocate@K@std@@YAPAKIPAK@Z ; std::_Allocate<unsigned long>
  0000d	59		 pop	 ecx
  0000e	59		 pop	 ecx

; 188  : 		}

  0000f	5d		 pop	 ebp
  00010	c2 04 00	 ret	 4
?allocate@?$allocator@K@std@@QAEPAKI@Z ENDP		; std::allocator<unsigned long>::allocate
_TEXT	ENDS
PUBLIC	??8?$_Vector_const_iterator@V?$_Vector_val@KV?$allocator@K@std@@@std@@@std@@QBE_NABV01@@Z ; std::_Vector_const_iterator<std::_Vector_val<unsigned long,std::allocator<unsigned long> > >::operator==
; Function compile flags: /Ogsp
; File c:\program files (x86)\microsoft visual studio 10.0\vc\include\vector
;	COMDAT ??8?$_Vector_const_iterator@V?$_Vector_val@KV?$allocator@K@std@@@std@@@std@@QBE_NABV01@@Z
_TEXT	SEGMENT
__Right$ = 8						; size = 4
??8?$_Vector_const_iterator@V?$_Vector_val@KV?$allocator@K@std@@@std@@@std@@QBE_NABV01@@Z PROC ; std::_Vector_const_iterator<std::_Vector_val<unsigned long,std::allocator<unsigned long> > >::operator==, COMDAT
; _this$ = ecx

; 201  : 		{	// test for iterator equality

  00000	55		 push	 ebp
  00001	8b ec		 mov	 ebp, esp

; 202  : 		_Compat(_Right);
; 203  : 		return (this->_Ptr == _Right._Ptr);

  00003	8b 01		 mov	 eax, DWORD PTR [ecx]
  00005	8b 4d 08	 mov	 ecx, DWORD PTR __Right$[ebp]
  00008	2b 01		 sub	 eax, DWORD PTR [ecx]
  0000a	f7 d8		 neg	 eax
  0000c	1b c0		 sbb	 eax, eax
  0000e	40		 inc	 eax

; 204  : 		}

  0000f	5d		 pop	 ebp
  00010	c2 04 00	 ret	 4
??8?$_Vector_const_iterator@V?$_Vector_val@KV?$allocator@K@std@@@std@@@std@@QBE_NABV01@@Z ENDP ; std::_Vector_const_iterator<std::_Vector_val<unsigned long,std::allocator<unsigned long> > >::operator==
_TEXT	ENDS
PUBLIC	??$_Cons_val@V?$allocator@K@std@@KAAK@std@@YAXAAV?$allocator@K@0@PAKAAK@Z ; std::_Cons_val<std::allocator<unsigned long>,unsigned long,unsigned long &>
; Function compile flags: /Ogsp
; File c:\program files (x86)\microsoft visual studio 10.0\vc\include\xmemory
;	COMDAT ??$_Cons_val@V?$allocator@K@std@@KAAK@std@@YAXAAV?$allocator@K@0@PAKAAK@Z
_TEXT	SEGMENT
__Alval$ = 8						; size = 4
__Pdest$ = 12						; size = 4
__Src$ = 16						; size = 4
??$_Cons_val@V?$allocator@K@std@@KAAK@std@@YAXAAV?$allocator@K@0@PAKAAK@Z PROC ; std::_Cons_val<std::allocator<unsigned long>,unsigned long,unsigned long &>, COMDAT

; 279  : 	{	// construct using allocator

  00000	55		 push	 ebp
  00001	8b ec		 mov	 ebp, esp

; 280  : 	_Alval.construct(_Pdest, _STD forward<_Ty2>(_Src));

  00003	8b 45 0c	 mov	 eax, DWORD PTR __Pdest$[ebp]
  00006	85 c0		 test	 eax, eax
  00008	74 07		 je	 SHORT $LN7@Cons_val
  0000a	8b 4d 10	 mov	 ecx, DWORD PTR __Src$[ebp]
  0000d	8b 09		 mov	 ecx, DWORD PTR [ecx]
  0000f	89 08		 mov	 DWORD PTR [eax], ecx
$LN7@Cons_val:

; 281  : 	}

  00011	5d		 pop	 ebp
  00012	c3		 ret	 0
??$_Cons_val@V?$allocator@K@std@@KAAK@std@@YAXAAV?$allocator@K@0@PAKAAK@Z ENDP ; std::_Cons_val<std::allocator<unsigned long>,unsigned long,unsigned long &>
_TEXT	ENDS
PUBLIC	??$_Move@PAKPAK@std@@YAPAKPAK00@Z		; std::_Move<unsigned long *,unsigned long *>
; Function compile flags: /Ogsp
; File c:\program files (x86)\microsoft visual studio 10.0\vc\include\xutility
;	COMDAT ??$_Move@PAKPAK@std@@YAPAKPAK00@Z
_TEXT	SEGMENT
__Cat$625040 = -4					; size = 1
__First$ = 8						; size = 4
__Last$ = 12						; size = 4
__Dest$ = 16						; size = 4
??$_Move@PAKPAK@std@@YAPAKPAK00@Z PROC			; std::_Move<unsigned long *,unsigned long *>, COMDAT

; 2533 : 	{	// move [_First, _Last) to [_Dest, ...), unchecked

  00000	55		 push	 ebp
  00001	8b ec		 mov	 ebp, esp
  00003	51		 push	 ecx

; 2534 : 	return (_Move(_First, _Last,
; 2535 : 		_Dest, _Ptr_cat(_First, _Dest)));

  00004	ff 75 fc	 push	 DWORD PTR __Cat$625040[ebp]
  00007	ff 75 10	 push	 DWORD PTR __Dest$[ebp]
  0000a	ff 75 0c	 push	 DWORD PTR __Last$[ebp]
  0000d	ff 75 08	 push	 DWORD PTR __First$[ebp]
  00010	e8 00 00 00 00	 call	 ??$_Move@PAKPAK@std@@YAPAKPAK00U_Scalar_ptr_iterator_tag@0@@Z ; std::_Move<unsigned long *,unsigned long *>
  00015	83 c4 10	 add	 esp, 16			; 00000010H

; 2536 : 	}

  00018	c9		 leave
  00019	c3		 ret	 0
??$_Move@PAKPAK@std@@YAPAKPAK00@Z ENDP			; std::_Move<unsigned long *,unsigned long *>
_TEXT	ENDS
PUBLIC	??$_Destroy_range@V?$allocator@K@std@@@std@@YAXPAK0AAV?$allocator@K@0@@Z ; std::_Destroy_range<std::allocator<unsigned long> >
; Function compile flags: /Ogsp
; File c:\program files (x86)\microsoft visual studio 10.0\vc\include\xmemory
;	COMDAT ??$_Destroy_range@V?$allocator@K@std@@@std@@YAXPAK0AAV?$allocator@K@0@@Z
_TEXT	SEGMENT
__First$ = 8						; size = 4
__Last$ = 12						; size = 4
__Al$ = 16						; size = 4
??$_Destroy_range@V?$allocator@K@std@@@std@@YAXPAK0AAV?$allocator@K@0@@Z PROC ; std::_Destroy_range<std::allocator<unsigned long> >, COMDAT

; 88   : 	_Destroy_range(_First, _Last, _Al, _Ptr_cat(_First, _Last));
; 89   : 	}

  00000	c3		 ret	 0
??$_Destroy_range@V?$allocator@K@std@@@std@@YAXPAK0AAV?$allocator@K@0@@Z ENDP ; std::_Destroy_range<std::allocator<unsigned long> >
_TEXT	ENDS
PUBLIC	?construct@?$allocator@K@std@@QAEXPAKABK@Z	; std::allocator<unsigned long>::construct
; Function compile flags: /Ogsp
;	COMDAT ?construct@?$allocator@K@std@@QAEXPAKABK@Z
_TEXT	SEGMENT
__Ptr$ = 8						; size = 4
__Val$ = 12						; size = 4
?construct@?$allocator@K@std@@QAEXPAKABK@Z PROC		; std::allocator<unsigned long>::construct, COMDAT
; _this$ = ecx

; 196  : 		{	// construct object at _Ptr with value _Val

  00000	55		 push	 ebp
  00001	8b ec		 mov	 ebp, esp

; 197  : 		_Construct(_Ptr, _Val);

  00003	8b 45 08	 mov	 eax, DWORD PTR __Ptr$[ebp]
  00006	85 c0		 test	 eax, eax
  00008	74 07		 je	 SHORT $LN5@construct@2
  0000a	8b 4d 0c	 mov	 ecx, DWORD PTR __Val$[ebp]
  0000d	8b 09		 mov	 ecx, DWORD PTR [ecx]
  0000f	89 08		 mov	 DWORD PTR [eax], ecx
$LN5@construct@2:

; 198  : 		}

  00011	5d		 pop	 ebp
  00012	c2 08 00	 ret	 8
?construct@?$allocator@K@std@@QAEXPAKABK@Z ENDP		; std::allocator<unsigned long>::construct
_TEXT	ENDS
PUBLIC	??$_Uninitialized_move@PAKPAKV?$allocator@K@std@@@std@@YAPAKPAK00AAV?$allocator@K@0@@Z ; std::_Uninitialized_move<unsigned long *,unsigned long *,std::allocator<unsigned long> >
; Function compile flags: /Ogsp
; File c:\program files (x86)\microsoft visual studio 10.0\vc\include\memory
;	COMDAT ??$_Uninitialized_move@PAKPAKV?$allocator@K@std@@@std@@YAPAKPAK00AAV?$allocator@K@0@@Z
_TEXT	SEGMENT
__First$ = 8						; size = 4
__Last$ = 12						; size = 4
__Dest$ = 16						; size = 4
__Al$ = 20						; size = 4
??$_Uninitialized_move@PAKPAKV?$allocator@K@std@@@std@@YAPAKPAK00AAV?$allocator@K@0@@Z PROC ; std::_Uninitialized_move<unsigned long *,unsigned long *,std::allocator<unsigned long> >, COMDAT

; 469  : 	{	// move [_First, _Last) to raw _Dest, using _Al

  00000	55		 push	 ebp
  00001	8b ec		 mov	 ebp, esp
  00003	56		 push	 esi

; 470  : 	return (_Uninit_move(_First, _Last, _Dest, _Al,
; 471  : 		_Val_type(_First), _Ptr_cat(_First, _Dest)));

  00004	8b 75 0c	 mov	 esi, DWORD PTR __Last$[ebp]
  00007	2b 75 08	 sub	 esi, DWORD PTR __First$[ebp]
  0000a	c1 fe 02	 sar	 esi, 2
  0000d	c1 e6 02	 shl	 esi, 2
  00010	56		 push	 esi
  00011	ff 75 08	 push	 DWORD PTR __First$[ebp]
  00014	ff 75 10	 push	 DWORD PTR __Dest$[ebp]
  00017	ff 15 00 00 00
	00		 call	 DWORD PTR __imp__memmove
  0001d	83 c4 0c	 add	 esp, 12			; 0000000cH
  00020	03 c6		 add	 eax, esi
  00022	5e		 pop	 esi

; 472  : 	}

  00023	5d		 pop	 ebp
  00024	c3		 ret	 0
??$_Uninitialized_move@PAKPAKV?$allocator@K@std@@@std@@YAPAKPAK00AAV?$allocator@K@0@@Z ENDP ; std::_Uninitialized_move<unsigned long *,unsigned long *,std::allocator<unsigned long> >
_TEXT	ENDS
PUBLIC	?IsProtectState@ioObjectCountItem@@UAE_NXZ	; ioObjectCountItem::IsProtectState
; Function compile flags: /Ogsp
; File d:\lost saga for developer\youtube\tutorial\source\src\lsclient\ioobjectcountitem.cpp
;	COMDAT ?IsProtectState@ioObjectCountItem@@UAE_NXZ
_TEXT	SEGMENT
_value$625096 = -8					; size = 4
_value$625100 = -8					; size = 4
_value$625105 = -1					; size = 1
?IsProtectState@ioObjectCountItem@@UAE_NXZ PROC		; ioObjectCountItem::IsProtectState, COMDAT
; _this$ = ecx

; 223  : {

  00000	55		 push	 ebp
  00001	8b ec		 mov	 ebp, esp
  00003	51		 push	 ecx
  00004	51		 push	 ecx
  00005	56		 push	 esi
  00006	57		 push	 edi
  00007	8b f1		 mov	 esi, ecx

; 224  : 	if( m_dwProtectTime > 0 && m_dwEquipTime + m_dwProtectTime > FRAMEGETTIME() )

  00009	8d 45 f8	 lea	 eax, DWORD PTR _value$625096[ebp]
  0000c	50		 push	 eax
  0000d	8d 8e 94 1b 00
	00		 lea	 ecx, DWORD PTR [esi+7060]
  00013	e8 00 00 00 00	 call	 ?DecryptValueToPool@?$CEncrypt@K@@QAEXPAK@Z ; CEncrypt<unsigned long>::DecryptValueToPool
  00018	83 7d f8 00	 cmp	 DWORD PTR _value$625096[ebp], 0
  0001c	76 2e		 jbe	 SHORT $LN2@IsProtectS
  0001e	8d 45 f8	 lea	 eax, DWORD PTR _value$625100[ebp]
  00021	50		 push	 eax
  00022	8d 8e 94 1b 00
	00		 lea	 ecx, DWORD PTR [esi+7060]
  00028	e8 00 00 00 00	 call	 ?DecryptValueToPool@?$CEncrypt@K@@QAEXPAK@Z ; CEncrypt<unsigned long>::DecryptValueToPool
  0002d	ff 15 00 00 00
	00		 call	 DWORD PTR __imp_?GetSingleton@ioFrameTimer@@SAAAV1@XZ
  00033	8b c8		 mov	 ecx, eax
  00035	ff 15 00 00 00
	00		 call	 DWORD PTR __imp_?GetLoopSec@ioFrameTimer@@QBEKXZ
  0003b	8b 8e 18 1c 00
	00		 mov	 ecx, DWORD PTR [esi+7192]
  00041	03 4d f8	 add	 ecx, DWORD PTR _value$625100[ebp]
  00044	3b c8		 cmp	 ecx, eax
  00046	76 04		 jbe	 SHORT $LN2@IsProtectS
$LN11@IsProtectS:

; 225  : 	{
; 226  : 		return true;

  00048	b0 01		 mov	 al, 1
  0004a	eb 20		 jmp	 SHORT $LN3@IsProtectS
$LN2@IsProtectS:

; 227  : 	}
; 228  : 
; 229  : 	if( m_bJumpAttackProtect && m_bSetJumpAttack )

  0004c	8d 45 ff	 lea	 eax, DWORD PTR _value$625105[ebp]
  0004f	50		 push	 eax
  00050	8d 8e c4 1b 00
	00		 lea	 ecx, DWORD PTR [esi+7108]
  00056	e8 00 00 00 00	 call	 ?DecryptValueToPool@?$CEncrypt@_N@@QAEXPA_N@Z ; CEncrypt<bool>::DecryptValueToPool
  0005b	80 7d ff 00	 cmp	 BYTE PTR _value$625105[ebp], 0
  0005f	74 09		 je	 SHORT $LN1@IsProtectS
  00061	80 be 14 1c 00
	00 00		 cmp	 BYTE PTR [esi+7188], 0

; 230  : 	{
; 231  : 		return true;

  00068	75 de		 jne	 SHORT $LN11@IsProtectS
$LN1@IsProtectS:

; 232  : 	}
; 233  : 
; 234  : 	return false;

  0006a	32 c0		 xor	 al, al
$LN3@IsProtectS:
  0006c	5f		 pop	 edi
  0006d	5e		 pop	 esi

; 235  : }

  0006e	c9		 leave
  0006f	c3		 ret	 0
?IsProtectState@ioObjectCountItem@@UAE_NXZ ENDP		; ioObjectCountItem::IsProtectState
_TEXT	ENDS
PUBLIC	?IsOneTimeWeaponItem@ioObjectCountItem@@UBE_NXZ	; ioObjectCountItem::IsOneTimeWeaponItem
; Function compile flags: /Ogsp
;	COMDAT ?IsOneTimeWeaponItem@ioObjectCountItem@@UBE_NXZ
_TEXT	SEGMENT
_value$625117 = -4					; size = 4
_value$625112 = -4					; size = 4
?IsOneTimeWeaponItem@ioObjectCountItem@@UBE_NXZ PROC	; ioObjectCountItem::IsOneTimeWeaponItem, COMDAT
; _this$ = ecx

; 265  : {

  00000	55		 push	 ebp
  00001	8b ec		 mov	 ebp, esp
  00003	51		 push	 ecx
  00004	56		 push	 esi
  00005	8b f1		 mov	 esi, ecx

; 266  : 	if( m_bSetUseCount && m_iMaxUseCount > 0 && m_iCurUseCount == m_iMaxUseCount )

  00007	80 be f4 1b 00
	00 00		 cmp	 BYTE PTR [esi+7156], 0
  0000e	57		 push	 edi
  0000f	74 33		 je	 SHORT $LN1@IsOneTimeW
  00011	8d 45 fc	 lea	 eax, DWORD PTR _value$625112[ebp]
  00014	50		 push	 eax
  00015	8d 8e d0 1a 00
	00		 lea	 ecx, DWORD PTR [esi+6864]
  0001b	e8 00 00 00 00	 call	 ?DecryptValueToPool@?$CEncrypt@H@@QAEXPAH@Z ; CEncrypt<int>::DecryptValueToPool
  00020	83 7d fc 00	 cmp	 DWORD PTR _value$625112[ebp], 0
  00024	7e 1e		 jle	 SHORT $LN1@IsOneTimeW
  00026	8d 45 fc	 lea	 eax, DWORD PTR _value$625117[ebp]
  00029	50		 push	 eax
  0002a	8d 8e d0 1a 00
	00		 lea	 ecx, DWORD PTR [esi+6864]
  00030	e8 00 00 00 00	 call	 ?DecryptValueToPool@?$CEncrypt@H@@QAEXPAH@Z ; CEncrypt<int>::DecryptValueToPool
  00035	8b 86 00 1b 00
	00		 mov	 eax, DWORD PTR [esi+6912]
  0003b	3b 45 fc	 cmp	 eax, DWORD PTR _value$625117[ebp]
  0003e	75 04		 jne	 SHORT $LN1@IsOneTimeW

; 267  : 		return true;

  00040	b0 01		 mov	 al, 1
  00042	eb 02		 jmp	 SHORT $LN2@IsOneTimeW
$LN1@IsOneTimeW:

; 268  : 
; 269  : 	return false;

  00044	32 c0		 xor	 al, al
$LN2@IsOneTimeW:
  00046	5f		 pop	 edi
  00047	5e		 pop	 esi

; 270  : }

  00048	c9		 leave
  00049	c3		 ret	 0
?IsOneTimeWeaponItem@ioObjectCountItem@@UBE_NXZ ENDP	; ioObjectCountItem::IsOneTimeWeaponItem
_TEXT	ENDS
PUBLIC	?IsEnableDash@ioObjectCountItem@@UBE_NXZ	; ioObjectCountItem::IsEnableDash
; Function compile flags: /Ogsp
;	COMDAT ?IsEnableDash@ioObjectCountItem@@UBE_NXZ
_TEXT	SEGMENT
_value$625124 = -1					; size = 1
?IsEnableDash@ioObjectCountItem@@UBE_NXZ PROC		; ioObjectCountItem::IsEnableDash, COMDAT
; _this$ = ecx

; 273  : {

  00000	55		 push	 ebp
  00001	8b ec		 mov	 ebp, esp
  00003	51		 push	 ecx

; 274  : 	return m_bEnableObjectDash;

  00004	8d 45 ff	 lea	 eax, DWORD PTR _value$625124[ebp]
  00007	50		 push	 eax
  00008	81 c1 64 1b 00
	00		 add	 ecx, 7012		; 00001b64H
  0000e	e8 00 00 00 00	 call	 ?DecryptValueToPool@?$CEncrypt@_N@@QAEXPA_N@Z ; CEncrypt<bool>::DecryptValueToPool
  00013	8a 45 ff	 mov	 al, BYTE PTR _value$625124[ebp]

; 275  : }

  00016	c9		 leave
  00017	c3		 ret	 0
?IsEnableDash@ioObjectCountItem@@UBE_NXZ ENDP		; ioObjectCountItem::IsEnableDash
_TEXT	ENDS
PUBLIC	?IsEnableDefense@ioObjectCountItem@@UBE_NXZ	; ioObjectCountItem::IsEnableDefense
; Function compile flags: /Ogsp
;	COMDAT ?IsEnableDefense@ioObjectCountItem@@UBE_NXZ
_TEXT	SEGMENT
_value$625131 = -1					; size = 1
?IsEnableDefense@ioObjectCountItem@@UBE_NXZ PROC	; ioObjectCountItem::IsEnableDefense, COMDAT
; _this$ = ecx

; 278  : {

  00000	55		 push	 ebp
  00001	8b ec		 mov	 ebp, esp
  00003	51		 push	 ecx

; 279  : 	return m_bEnableObjectDefense;

  00004	8d 45 ff	 lea	 eax, DWORD PTR _value$625131[ebp]
  00007	50		 push	 eax
  00008	81 c1 34 1b 00
	00		 add	 ecx, 6964		; 00001b34H
  0000e	e8 00 00 00 00	 call	 ?DecryptValueToPool@?$CEncrypt@_N@@QAEXPA_N@Z ; CEncrypt<bool>::DecryptValueToPool
  00013	8a 45 ff	 mov	 al, BYTE PTR _value$625131[ebp]

; 280  : }

  00016	c9		 leave
  00017	c3		 ret	 0
?IsEnableDefense@ioObjectCountItem@@UBE_NXZ ENDP	; ioObjectCountItem::IsEnableDefense
_TEXT	ENDS
PUBLIC	?CheckAttackCount@ioObjectCountItem@@UAEXXZ	; ioObjectCountItem::CheckAttackCount
; Function compile flags: /Ogsp
;	COMDAT ?CheckAttackCount@ioObjectCountItem@@UAEXXZ
_TEXT	SEGMENT
_value$625144 = -4					; size = 4
_value$625140 = -4					; size = 4
?CheckAttackCount@ioObjectCountItem@@UAEXXZ PROC	; ioObjectCountItem::CheckAttackCount, COMDAT
; _this$ = ecx

; 283  : {

  00000	55		 push	 ebp
  00001	8b ec		 mov	 ebp, esp
  00003	51		 push	 ecx
  00004	56		 push	 esi
  00005	8b f1		 mov	 esi, ecx

; 284  : 	m_iCurUseCount++;

  00007	ff 86 00 1b 00
	00		 inc	 DWORD PTR [esi+6912]
  0000d	57		 push	 edi

; 285  : 	m_iCurUseCount = min( m_iCurUseCount, m_iMaxUseCount );

  0000e	8d 45 fc	 lea	 eax, DWORD PTR _value$625140[ebp]
  00011	50		 push	 eax
  00012	8d 8e d0 1a 00
	00		 lea	 ecx, DWORD PTR [esi+6864]
  00018	e8 00 00 00 00	 call	 ?DecryptValueToPool@?$CEncrypt@H@@QAEXPAH@Z ; CEncrypt<int>::DecryptValueToPool
  0001d	8b 86 00 1b 00
	00		 mov	 eax, DWORD PTR [esi+6912]
  00023	3b 45 fc	 cmp	 eax, DWORD PTR _value$625140[ebp]
  00026	7c 12		 jl	 SHORT $LN4@CheckAttac
  00028	8d 45 fc	 lea	 eax, DWORD PTR _value$625144[ebp]
  0002b	50		 push	 eax
  0002c	8d 8e d0 1a 00
	00		 lea	 ecx, DWORD PTR [esi+6864]
  00032	e8 00 00 00 00	 call	 ?DecryptValueToPool@?$CEncrypt@H@@QAEXPAH@Z ; CEncrypt<int>::DecryptValueToPool
  00037	8b 45 fc	 mov	 eax, DWORD PTR _value$625144[ebp]
$LN4@CheckAttac:
  0003a	5f		 pop	 edi
  0003b	89 86 00 1b 00
	00		 mov	 DWORD PTR [esi+6912], eax
  00041	5e		 pop	 esi

; 286  : }

  00042	c9		 leave
  00043	c3		 ret	 0
?CheckAttackCount@ioObjectCountItem@@UAEXXZ ENDP	; ioObjectCountItem::CheckAttackCount
_TEXT	ENDS
PUBLIC	?SetAttackEndState@ioObjectCountItem@@IAEXPAVioBaseChar@@@Z ; ioObjectCountItem::SetAttackEndState
EXTRN	?CheckKeepComboAttack@ioBaseChar@@QAE_NXZ:PROC	; ioBaseChar::CheckKeepComboAttack
; Function compile flags: /Ogsp
;	COMDAT ?SetAttackEndState@ioObjectCountItem@@IAEXPAVioBaseChar@@@Z
_TEXT	SEGMENT
_value$625150 = -4					; size = 4
_pOwner$ = 8						; size = 4
?SetAttackEndState@ioObjectCountItem@@IAEXPAVioBaseChar@@@Z PROC ; ioObjectCountItem::SetAttackEndState, COMDAT
; _this$ = ecx

; 419  : {

  00000	55		 push	 ebp
  00001	8b ec		 mov	 ebp, esp
  00003	51		 push	 ecx

; 420  : 	if ( !pOwner )

  00004	83 7d 08 00	 cmp	 DWORD PTR _pOwner$[ebp], 0
  00008	56		 push	 esi
  00009	8b f1		 mov	 esi, ecx
  0000b	74 4f		 je	 SHORT $LN1@SetAttackE

; 421  : 		return;
; 422  : 	
; 423  : 	pOwner->CheckKeepComboAttack();

  0000d	8b 4d 08	 mov	 ecx, DWORD PTR _pOwner$[ebp]
  00010	e8 00 00 00 00	 call	 ?CheckKeepComboAttack@ioBaseChar@@QAE_NXZ ; ioBaseChar::CheckKeepComboAttack

; 424  : 
; 425  : 	//공격 종료 시간 갱신
; 426  : 	m_dwAttackEndTime = FRAMEGETTIME();

  00015	ff 15 00 00 00
	00		 call	 DWORD PTR __imp_?GetSingleton@ioFrameTimer@@SAAAV1@XZ
  0001b	8b c8		 mov	 ecx, eax
  0001d	ff 15 00 00 00
	00		 call	 DWORD PTR __imp_?GetLoopSec@ioFrameTimer@@QBEKXZ

; 427  : 
; 428  : 	//공격 종료시 콤보수 초기화(예외 대비)
; 429  : 	if ( m_bSetUseCount && m_iCurUseCount >= m_iMaxUseCount )

  00023	80 be f4 1b 00
	00 00		 cmp	 BYTE PTR [esi+7156], 0
  0002a	89 86 0c 1c 00
	00		 mov	 DWORD PTR [esi+7180], eax
  00030	74 2a		 je	 SHORT $LN1@SetAttackE
  00032	8d 45 fc	 lea	 eax, DWORD PTR _value$625150[ebp]
  00035	50		 push	 eax
  00036	8d 8e d0 1a 00
	00		 lea	 ecx, DWORD PTR [esi+6864]
  0003c	e8 00 00 00 00	 call	 ?DecryptValueToPool@?$CEncrypt@H@@QAEXPAH@Z ; CEncrypt<int>::DecryptValueToPool
  00041	8b 86 00 1b 00
	00		 mov	 eax, DWORD PTR [esi+6912]
  00047	3b 45 fc	 cmp	 eax, DWORD PTR _value$625150[ebp]
  0004a	7c 10		 jl	 SHORT $LN1@SetAttackE

; 430  : 	{
; 431  : 		pOwner->ApplyNormalAttackResult( m_iCurCombo, true );

  0004c	8b 4d 08	 mov	 ecx, DWORD PTR _pOwner$[ebp]
  0004f	6a 01		 push	 1
  00051	ff b6 10 1c 00
	00		 push	 DWORD PTR [esi+7184]
  00057	e8 00 00 00 00	 call	 ?ApplyNormalAttackResult@ioBaseChar@@QAEXH_N@Z ; ioBaseChar::ApplyNormalAttackResult
$LN1@SetAttackE:
  0005c	5e		 pop	 esi

; 432  : 	}
; 433  : }

  0005d	c9		 leave
  0005e	c2 04 00	 ret	 4
?SetAttackEndState@ioObjectCountItem@@IAEXPAVioBaseChar@@@Z ENDP ; ioObjectCountItem::SetAttackEndState
_TEXT	ENDS
PUBLIC	??0?$CEncrypt@K@@QAE@ABV0@@Z			; CEncrypt<unsigned long>::CEncrypt<unsigned long>
;	COMDAT xdata$x
; File d:\lost saga for developer\youtube\tutorial\source\src\lsclient\encryptvalue.h
xdata$x	SEGMENT
__unwindtable$??0?$CEncrypt@K@@QAE@ABV0@@Z DD 0ffffffffH
	DD	FLAT:__unwindfunclet$??0?$CEncrypt@K@@QAE@ABV0@@Z$0
__ehfuncinfo$??0?$CEncrypt@K@@QAE@ABV0@@Z DD 019930522H
	DD	01H
	DD	FLAT:__unwindtable$??0?$CEncrypt@K@@QAE@ABV0@@Z
	DD	2 DUP(00H)
	DD	2 DUP(00H)
	DD	00H
	DD	01H
; Function compile flags: /Ogsp
xdata$x	ENDS
;	COMDAT ??0?$CEncrypt@K@@QAE@ABV0@@Z
_TEXT	SEGMENT
_this$ = -16						; size = 4
__$EHRec$ = -12						; size = 12
_value$625162 = 8					; size = 4
_value$625157 = 8					; size = 4
_inValue$ = 8						; size = 4
??0?$CEncrypt@K@@QAE@ABV0@@Z PROC			; CEncrypt<unsigned long>::CEncrypt<unsigned long>, COMDAT
; _this$ = ecx

; 120  : 	CEncrypt( const CEncrypt<type> &inValue )   // 선언과 동시에 값을 대입하기 위해서

  00000	6a 04		 push	 4
  00002	b8 00 00 00 00	 mov	 eax, __ehhandler$??0?$CEncrypt@K@@QAE@ABV0@@Z
  00007	e8 00 00 00 00	 call	 __EH_prolog3
  0000c	8b f1		 mov	 esi, ecx
  0000e	89 75 f0	 mov	 DWORD PTR _this$[ebp], esi
  00011	8d 4e 0c	 lea	 ecx, DWORD PTR [esi+12]
  00014	c7 06 00 00 00
	00		 mov	 DWORD PTR [esi], OFFSET ??_7?$CEncrypt@K@@6B@
  0001a	e8 00 00 00 00	 call	 ??0ccddaabb@@QAE@XZ	; ccddaabb::ccddaabb
  0001f	83 65 fc 00	 and	 DWORD PTR __$EHRec$[ebp+8], 0

; 121  : 	{
; 122  : 		Init();

  00023	8b ce		 mov	 ecx, esi
  00025	e8 00 00 00 00	 call	 ?Init@?$CEncrypt@K@@AAEXXZ ; CEncrypt<unsigned long>::Init

; 123  : 		*this = inValue;

  0002a	8b 4d 08	 mov	 ecx, DWORD PTR _inValue$[ebp]
  0002d	8d 45 08	 lea	 eax, DWORD PTR _value$625157[ebp]
  00030	50		 push	 eax
  00031	e8 00 00 00 00	 call	 ?DecryptValueToPool@?$CEncrypt@K@@QAEXPAK@Z ; CEncrypt<unsigned long>::DecryptValueToPool
  00036	8b 45 08	 mov	 eax, DWORD PTR _value$625157[ebp]
  00039	89 45 08	 mov	 DWORD PTR _value$625162[ebp], eax
  0003c	8d 45 08	 lea	 eax, DWORD PTR _value$625162[ebp]
  0003f	50		 push	 eax
  00040	8b ce		 mov	 ecx, esi
  00042	e8 00 00 00 00	 call	 ?EncryptValueToPool@?$CEncrypt@K@@AAEXPBD@Z ; CEncrypt<unsigned long>::EncryptValueToPool

; 124  : 	}

  00047	8b c6		 mov	 eax, esi
  00049	e8 00 00 00 00	 call	 __EH_epilog3
  0004e	c2 04 00	 ret	 4
_TEXT	ENDS
;	COMDAT text$x
text$x	SEGMENT
__unwindfunclet$??0?$CEncrypt@K@@QAE@ABV0@@Z$0:
  00000	8b 4d f0	 mov	 ecx, DWORD PTR _this$[ebp]
  00003	83 c1 0c	 add	 ecx, 12			; 0000000cH
  00006	e9 00 00 00 00	 jmp	 ??1ccddaabb@@UAE@XZ	; ccddaabb::~ccddaabb
__ehhandler$??0?$CEncrypt@K@@QAE@ABV0@@Z:
  0000b	8b 54 24 08	 mov	 edx, DWORD PTR [esp+8]
  0000f	8d 42 0c	 lea	 eax, DWORD PTR [edx+12]
  00012	8b 4a ec	 mov	 ecx, DWORD PTR [edx-20]
  00015	33 c8		 xor	 ecx, eax
  00017	e8 00 00 00 00	 call	 @__security_check_cookie@4
  0001c	b8 00 00 00 00	 mov	 eax, OFFSET __ehfuncinfo$??0?$CEncrypt@K@@QAE@ABV0@@Z
  00021	e9 00 00 00 00	 jmp	 ___CxxFrameHandler3
text$x	ENDS
??0?$CEncrypt@K@@QAE@ABV0@@Z ENDP			; CEncrypt<unsigned long>::CEncrypt<unsigned long>
PUBLIC	??0?$CEncrypt@_N@@QAE@ABV0@@Z			; CEncrypt<bool>::CEncrypt<bool>
;	COMDAT xdata$x
xdata$x	SEGMENT
__unwindtable$??0?$CEncrypt@_N@@QAE@ABV0@@Z DD 0ffffffffH
	DD	FLAT:__unwindfunclet$??0?$CEncrypt@_N@@QAE@ABV0@@Z$0
__ehfuncinfo$??0?$CEncrypt@_N@@QAE@ABV0@@Z DD 019930522H
	DD	01H
	DD	FLAT:__unwindtable$??0?$CEncrypt@_N@@QAE@ABV0@@Z
	DD	2 DUP(00H)
	DD	2 DUP(00H)
	DD	00H
	DD	01H
; Function compile flags: /Ogsp
xdata$x	ENDS
;	COMDAT ??0?$CEncrypt@_N@@QAE@ABV0@@Z
_TEXT	SEGMENT
_this$ = -16						; size = 4
__$EHRec$ = -12						; size = 12
_inValue$ = 8						; size = 4
_value$625181 = 11					; size = 1
_value$625176 = 11					; size = 1
??0?$CEncrypt@_N@@QAE@ABV0@@Z PROC			; CEncrypt<bool>::CEncrypt<bool>, COMDAT
; _this$ = ecx

; 120  : 	CEncrypt( const CEncrypt<type> &inValue )   // 선언과 동시에 값을 대입하기 위해서

  00000	6a 04		 push	 4
  00002	b8 00 00 00 00	 mov	 eax, __ehhandler$??0?$CEncrypt@_N@@QAE@ABV0@@Z
  00007	e8 00 00 00 00	 call	 __EH_prolog3
  0000c	8b f1		 mov	 esi, ecx
  0000e	89 75 f0	 mov	 DWORD PTR _this$[ebp], esi
  00011	8d 4e 0c	 lea	 ecx, DWORD PTR [esi+12]
  00014	c7 06 00 00 00
	00		 mov	 DWORD PTR [esi], OFFSET ??_7?$CEncrypt@_N@@6B@
  0001a	e8 00 00 00 00	 call	 ??0ccddaabb@@QAE@XZ	; ccddaabb::ccddaabb
  0001f	83 65 fc 00	 and	 DWORD PTR __$EHRec$[ebp+8], 0

; 121  : 	{
; 122  : 		Init();

  00023	8b ce		 mov	 ecx, esi
  00025	e8 00 00 00 00	 call	 ?Init@?$CEncrypt@_N@@AAEXXZ ; CEncrypt<bool>::Init

; 123  : 		*this = inValue;

  0002a	8b 4d 08	 mov	 ecx, DWORD PTR _inValue$[ebp]
  0002d	8d 45 0b	 lea	 eax, DWORD PTR _value$625176[ebp]
  00030	50		 push	 eax
  00031	e8 00 00 00 00	 call	 ?DecryptValueToPool@?$CEncrypt@_N@@QAEXPA_N@Z ; CEncrypt<bool>::DecryptValueToPool
  00036	8a 45 0b	 mov	 al, BYTE PTR _value$625176[ebp]
  00039	88 45 0b	 mov	 BYTE PTR _value$625181[ebp], al
  0003c	8d 45 0b	 lea	 eax, DWORD PTR _value$625181[ebp]
  0003f	50		 push	 eax
  00040	8b ce		 mov	 ecx, esi
  00042	e8 00 00 00 00	 call	 ?EncryptValueToPool@?$CEncrypt@_N@@AAEXPBD@Z ; CEncrypt<bool>::EncryptValueToPool

; 124  : 	}

  00047	8b c6		 mov	 eax, esi
  00049	e8 00 00 00 00	 call	 __EH_epilog3
  0004e	c2 04 00	 ret	 4
_TEXT	ENDS
;	COMDAT text$x
text$x	SEGMENT
__unwindfunclet$??0?$CEncrypt@_N@@QAE@ABV0@@Z$0:
  00000	8b 4d f0	 mov	 ecx, DWORD PTR _this$[ebp]
  00003	83 c1 0c	 add	 ecx, 12			; 0000000cH
  00006	e9 00 00 00 00	 jmp	 ??1ccddaabb@@UAE@XZ	; ccddaabb::~ccddaabb
__ehhandler$??0?$CEncrypt@_N@@QAE@ABV0@@Z:
  0000b	8b 54 24 08	 mov	 edx, DWORD PTR [esp+8]
  0000f	8d 42 0c	 lea	 eax, DWORD PTR [edx+12]
  00012	8b 4a ec	 mov	 ecx, DWORD PTR [edx-20]
  00015	33 c8		 xor	 ecx, eax
  00017	e8 00 00 00 00	 call	 @__security_check_cookie@4
  0001c	b8 00 00 00 00	 mov	 eax, OFFSET __ehfuncinfo$??0?$CEncrypt@_N@@QAE@ABV0@@Z
  00021	e9 00 00 00 00	 jmp	 ___CxxFrameHandler3
text$x	ENDS
??0?$CEncrypt@_N@@QAE@ABV0@@Z ENDP			; CEncrypt<bool>::CEncrypt<bool>
PUBLIC	??D?$_List_iterator@V?$_List_val@MV?$allocator@M@std@@@std@@@std@@QBEAAMXZ ; std::_List_iterator<std::_List_val<float,std::allocator<float> > >::operator*
; Function compile flags: /Ogsp
; File c:\program files (x86)\microsoft visual studio 10.0\vc\include\list
;	COMDAT ??D?$_List_iterator@V?$_List_val@MV?$allocator@M@std@@@std@@@std@@QBEAAMXZ
_TEXT	SEGMENT
??D?$_List_iterator@V?$_List_val@MV?$allocator@M@std@@@std@@@std@@QBEAAMXZ PROC ; std::_List_iterator<std::_List_val<float,std::allocator<float> > >::operator*, COMDAT
; _this$ = ecx

; 360  : 		return ((reference)**(_Mybase *)this);

  00000	8b 01		 mov	 eax, DWORD PTR [ecx]
  00002	83 c0 08	 add	 eax, 8

; 361  : 		}

  00005	c3		 ret	 0
??D?$_List_iterator@V?$_List_val@MV?$allocator@M@std@@@std@@@std@@QBEAAMXZ ENDP ; std::_List_iterator<std::_List_val<float,std::allocator<float> > >::operator*
_TEXT	ENDS
PUBLIC	??E?$_List_iterator@V?$_List_val@MV?$allocator@M@std@@@std@@@std@@QAE?AV01@H@Z ; std::_List_iterator<std::_List_val<float,std::allocator<float> > >::operator++
; Function compile flags: /Ogsp
;	COMDAT ??E?$_List_iterator@V?$_List_val@MV?$allocator@M@std@@@std@@@std@@QAE?AV01@H@Z
_TEXT	SEGMENT
___$ReturnUdt$ = 8					; size = 4
___formal$ = 12						; size = 4
??E?$_List_iterator@V?$_List_val@MV?$allocator@M@std@@@std@@@std@@QAE?AV01@H@Z PROC ; std::_List_iterator<std::_List_val<float,std::allocator<float> > >::operator++, COMDAT
; _this$ = ecx

; 375  : 		{	// postincrement

  00000	55		 push	 ebp
  00001	8b ec		 mov	 ebp, esp

; 376  : 		_Myiter _Tmp = *this;

  00003	8b 11		 mov	 edx, DWORD PTR [ecx]
  00005	8b 45 08	 mov	 eax, DWORD PTR ___$ReturnUdt$[ebp]
  00008	89 10		 mov	 DWORD PTR [eax], edx

; 377  : 		++*this;

  0000a	8b 12		 mov	 edx, DWORD PTR [edx]
  0000c	89 11		 mov	 DWORD PTR [ecx], edx

; 378  : 		return (_Tmp);
; 379  : 		}

  0000e	5d		 pop	 ebp
  0000f	c2 08 00	 ret	 8
??E?$_List_iterator@V?$_List_val@MV?$allocator@M@std@@@std@@@std@@QAE?AV01@H@Z ENDP ; std::_List_iterator<std::_List_val<float,std::allocator<float> > >::operator++
_TEXT	ENDS
PUBLIC	?_Buy@?$vector@KV?$allocator@K@std@@@std@@IAE_NI@Z ; std::vector<unsigned long,std::allocator<unsigned long> >::_Buy
; Function compile flags: /Ogsp
; File c:\program files (x86)\microsoft visual studio 10.0\vc\include\vector
;	COMDAT ?_Buy@?$vector@KV?$allocator@K@std@@@std@@IAE_NI@Z
_TEXT	SEGMENT
__Capacity$ = 8						; size = 4
?_Buy@?$vector@KV?$allocator@K@std@@@std@@IAE_NI@Z PROC	; std::vector<unsigned long,std::allocator<unsigned long> >::_Buy, COMDAT
; _this$ = ecx

; 1250 : 		{	// allocate array with _Capacity elements

  00000	55		 push	 ebp
  00001	8b ec		 mov	 ebp, esp
  00003	56		 push	 esi

; 1251 : 		this->_Myfirst = 0;

  00004	33 c0		 xor	 eax, eax
  00006	57		 push	 edi

; 1252 : 		this->_Mylast = 0;
; 1253 : 		this->_Myend = 0;
; 1254 : 
; 1255 : 		if (_Capacity == 0)

  00007	8b 7d 08	 mov	 edi, DWORD PTR __Capacity$[ebp]
  0000a	8b f1		 mov	 esi, ecx
  0000c	89 06		 mov	 DWORD PTR [esi], eax
  0000e	89 46 04	 mov	 DWORD PTR [esi+4], eax
  00011	89 46 08	 mov	 DWORD PTR [esi+8], eax
  00014	3b f8		 cmp	 edi, eax
  00016	75 04		 jne	 SHORT $LN4@Buy

; 1256 : 			return (false);

  00018	32 c0		 xor	 al, al
  0001a	eb 29		 jmp	 SHORT $LN5@Buy
$LN4@Buy:

; 1257 : 		else if (max_size() < _Capacity)

  0001c	81 ff ff ff ff
	3f		 cmp	 edi, 1073741823		; 3fffffffH
  00022	76 0b		 jbe	 SHORT $LN2@Buy

; 1258 : 			_Xlen();	// result too long

  00024	68 00 00 00 00	 push	 OFFSET ??_C@_0BD@OLBABOEK@vector?$DMT?$DO?5too?5long?$AA@
  00029	ff 15 00 00 00
	00		 call	 DWORD PTR __imp_?_Xlength_error@std@@YAXPBD@Z
$LN19@Buy:
$LN2@Buy:

; 1259 : 		else
; 1260 : 			{	// nonempty array, allocate storage
; 1261 : 			this->_Myfirst = this->_Alval.allocate(_Capacity);

  0002f	50		 push	 eax
  00030	57		 push	 edi
  00031	e8 00 00 00 00	 call	 ??$_Allocate@K@std@@YAPAKIPAK@Z ; std::_Allocate<unsigned long>
  00036	89 06		 mov	 DWORD PTR [esi], eax

; 1262 : 			this->_Mylast = this->_Myfirst;

  00038	89 46 04	 mov	 DWORD PTR [esi+4], eax

; 1263 : 			this->_Myend = this->_Myfirst + _Capacity;

  0003b	8d 04 b8	 lea	 eax, DWORD PTR [eax+edi*4]
  0003e	59		 pop	 ecx
  0003f	89 46 08	 mov	 DWORD PTR [esi+8], eax
  00042	59		 pop	 ecx

; 1264 : 			}
; 1265 : 		return (true);

  00043	b0 01		 mov	 al, 1
$LN5@Buy:
  00045	5f		 pop	 edi
  00046	5e		 pop	 esi

; 1266 : 		}

  00047	5d		 pop	 ebp
  00048	c2 04 00	 ret	 4
$LN18@Buy:
?_Buy@?$vector@KV?$allocator@K@std@@@std@@IAE_NI@Z ENDP	; std::vector<unsigned long,std::allocator<unsigned long> >::_Buy
_TEXT	ENDS
PUBLIC	??0?$_List_val@MV?$allocator@M@std@@@std@@QAE@V?$allocator@M@1@@Z ; std::_List_val<float,std::allocator<float> >::_List_val<float,std::allocator<float> >
; Function compile flags: /Ogsp
; File c:\program files (x86)\microsoft visual studio 10.0\vc\include\list
;	COMDAT ??0?$_List_val@MV?$allocator@M@std@@@std@@QAE@V?$allocator@M@1@@Z
_TEXT	SEGMENT
$T625295 = -16						; size = 12
$T625272 = -4						; size = 4
__Al$ = 8						; size = 1
??0?$_List_val@MV?$allocator@M@std@@@std@@QAE@V?$allocator@M@1@@Z PROC ; std::_List_val<float,std::allocator<float> >::_List_val<float,std::allocator<float> >, COMDAT
; _this$ = ecx

; 493  : 		{	// construct base, and allocator from _Al

  00000	55		 push	 ebp
  00001	8b ec		 mov	 ebp, esp
  00003	83 ec 10	 sub	 esp, 16			; 00000010H
  00006	56		 push	 esi
  00007	8b f1		 mov	 esi, ecx

; 494  : 		this->_Mysize = 0;

  00009	83 66 04 00	 and	 DWORD PTR [esi+4], 0

; 495  : 		this->_Myhead = this->_Alnod.allocate(1);

  0000d	6a 0c		 push	 12			; 0000000cH
  0000f	e8 00 00 00 00	 call	 ??2@YAPAXI@Z		; operator new
  00014	59		 pop	 ecx
  00015	85 c0		 test	 eax, eax
  00017	74 10		 je	 SHORT $LN13@List_val
  00019	89 06		 mov	 DWORD PTR [esi], eax

; 496  : 		this->_Nextnode(this->_Myhead) = this->_Myhead;

  0001b	89 00		 mov	 DWORD PTR [eax], eax

; 497  : 		this->_Prevnode(this->_Myhead) = this->_Myhead;

  0001d	8b 06		 mov	 eax, DWORD PTR [esi]
  0001f	89 40 04	 mov	 DWORD PTR [eax+4], eax

; 498  : 		}

  00022	8b c6		 mov	 eax, esi
  00024	5e		 pop	 esi
  00025	c9		 leave
  00026	c2 04 00	 ret	 4

; 495  : 		this->_Myhead = this->_Alnod.allocate(1);

$LN13@List_val:
  00029	83 65 fc 00	 and	 DWORD PTR $T625272[ebp], 0
  0002d	8d 45 fc	 lea	 eax, DWORD PTR $T625272[ebp]
  00030	50		 push	 eax
  00031	8d 4d f0	 lea	 ecx, DWORD PTR $T625295[ebp]
  00034	ff 15 00 00 00
	00		 call	 DWORD PTR __imp_??0exception@std@@QAE@ABQBD@Z
  0003a	68 00 00 00 00	 push	 OFFSET __TI2?AVbad_alloc@std@@
  0003f	8d 45 f0	 lea	 eax, DWORD PTR $T625295[ebp]
  00042	50		 push	 eax
  00043	c7 45 f0 00 00
	00 00		 mov	 DWORD PTR $T625295[ebp], OFFSET ??_7bad_alloc@std@@6B@
  0004a	e8 00 00 00 00	 call	 __CxxThrowException@8
$LN29@List_val:
$LN28@List_val:
  0004f	cc		 int	 3
??0?$_List_val@MV?$allocator@M@std@@@std@@QAE@V?$allocator@M@1@@Z ENDP ; std::_List_val<float,std::allocator<float> >::_List_val<float,std::allocator<float> >
_TEXT	ENDS
PUBLIC	??0?$_List_iterator@V?$_List_val@MV?$allocator@M@std@@@std@@@std@@QAE@PAU_Node@?$_List_nod@MV?$allocator@M@std@@@1@PBV?$_List_val@MV?$allocator@M@std@@@1@@Z ; std::_List_iterator<std::_List_val<float,std::allocator<float> > >::_List_iterator<std::_List_val<float,std::allocator<float> > >
; Function compile flags: /Ogsp
;	COMDAT ??0?$_List_iterator@V?$_List_val@MV?$allocator@M@std@@@std@@@std@@QAE@PAU_Node@?$_List_nod@MV?$allocator@M@std@@@1@PBV?$_List_val@MV?$allocator@M@std@@@1@@Z
_TEXT	SEGMENT
__Pnode$ = 8						; size = 4
__Plist$ = 12						; size = 4
??0?$_List_iterator@V?$_List_val@MV?$allocator@M@std@@@std@@@std@@QAE@PAU_Node@?$_List_nod@MV?$allocator@M@std@@@1@PBV?$_List_val@MV?$allocator@M@std@@@1@@Z PROC ; std::_List_iterator<std::_List_val<float,std::allocator<float> > >::_List_iterator<std::_List_val<float,std::allocator<float> > >, COMDAT
; _this$ = ecx

; 342  : 		{	// construct with node pointer _Pnode

  00000	55		 push	 ebp
  00001	8b ec		 mov	 ebp, esp
  00003	8b c1		 mov	 eax, ecx
  00005	8b 4d 08	 mov	 ecx, DWORD PTR __Pnode$[ebp]
  00008	89 08		 mov	 DWORD PTR [eax], ecx

; 343  : 		}

  0000a	5d		 pop	 ebp
  0000b	c2 08 00	 ret	 8
??0?$_List_iterator@V?$_List_val@MV?$allocator@M@std@@@std@@@std@@QAE@PAU_Node@?$_List_nod@MV?$allocator@M@std@@@1@PBV?$_List_val@MV?$allocator@M@std@@@1@@Z ENDP ; std::_List_iterator<std::_List_val<float,std::allocator<float> > >::_List_iterator<std::_List_val<float,std::allocator<float> > >
_TEXT	ENDS
PUBLIC	??$_Dest_val@V?$allocator@U_Node@?$_List_nod@MV?$allocator@M@std@@@std@@@std@@U_Node@?$_List_nod@MV?$allocator@M@std@@@2@@std@@YAXAAV?$allocator@U_Node@?$_List_nod@MV?$allocator@M@std@@@std@@@0@PAU_Node@?$_List_nod@MV?$allocator@M@std@@@0@@Z ; std::_Dest_val<std::allocator<std::_List_nod<float,std::allocator<float> >::_Node>,std::_List_nod<float,std::allocator<float> >::_Node>
; Function compile flags: /Ogsp
; File c:\program files (x86)\microsoft visual studio 10.0\vc\include\xmemory
;	COMDAT ??$_Dest_val@V?$allocator@U_Node@?$_List_nod@MV?$allocator@M@std@@@std@@@std@@U_Node@?$_List_nod@MV?$allocator@M@std@@@2@@std@@YAXAAV?$allocator@U_Node@?$_List_nod@MV?$allocator@M@std@@@std@@@0@PAU_Node@?$_List_nod@MV?$allocator@M@std@@@0@@Z
_TEXT	SEGMENT
__Alval$ = 8						; size = 4
__Pdest$ = 12						; size = 4
??$_Dest_val@V?$allocator@U_Node@?$_List_nod@MV?$allocator@M@std@@@std@@@std@@U_Node@?$_List_nod@MV?$allocator@M@std@@@2@@std@@YAXAAV?$allocator@U_Node@?$_List_nod@MV?$allocator@M@std@@@std@@@0@PAU_Node@?$_List_nod@MV?$allocator@M@std@@@0@@Z PROC ; std::_Dest_val<std::allocator<std::_List_nod<float,std::allocator<float> >::_Node>,std::_List_nod<float,std::allocator<float> >::_Node>, COMDAT

; 287  : 	_Alval.destroy(_Pdest);
; 288  : 	}

  00000	c3		 ret	 0
??$_Dest_val@V?$allocator@U_Node@?$_List_nod@MV?$allocator@M@std@@@std@@@std@@U_Node@?$_List_nod@MV?$allocator@M@std@@@2@@std@@YAXAAV?$allocator@U_Node@?$_List_nod@MV?$allocator@M@std@@@std@@@0@PAU_Node@?$_List_nod@MV?$allocator@M@std@@@0@@Z ENDP ; std::_Dest_val<std::allocator<std::_List_nod<float,std::allocator<float> >::_Node>,std::_List_nod<float,std::allocator<float> >::_Node>
_TEXT	ENDS
PUBLIC	??$_Dest_val@V?$allocator@K@std@@K@std@@YAXAAV?$allocator@K@0@PAK@Z ; std::_Dest_val<std::allocator<unsigned long>,unsigned long>
; Function compile flags: /Ogsp
;	COMDAT ??$_Dest_val@V?$allocator@K@std@@K@std@@YAXAAV?$allocator@K@0@PAK@Z
_TEXT	SEGMENT
__Alval$ = 8						; size = 4
__Pdest$ = 12						; size = 4
??$_Dest_val@V?$allocator@K@std@@K@std@@YAXAAV?$allocator@K@0@PAK@Z PROC ; std::_Dest_val<std::allocator<unsigned long>,unsigned long>, COMDAT

; 287  : 	_Alval.destroy(_Pdest);
; 288  : 	}

  00000	c3		 ret	 0
??$_Dest_val@V?$allocator@K@std@@K@std@@YAXAAV?$allocator@K@0@PAK@Z ENDP ; std::_Dest_val<std::allocator<unsigned long>,unsigned long>
_TEXT	ENDS
PUBLIC	??0?$vector@KV?$allocator@K@std@@@std@@QAE@XZ	; std::vector<unsigned long,std::allocator<unsigned long> >::vector<unsigned long,std::allocator<unsigned long> >
; Function compile flags: /Ogsp
; File c:\program files (x86)\microsoft visual studio 10.0\vc\include\vector
;	COMDAT ??0?$vector@KV?$allocator@K@std@@@std@@QAE@XZ
_TEXT	SEGMENT
??0?$vector@KV?$allocator@K@std@@@std@@QAE@XZ PROC	; std::vector<unsigned long,std::allocator<unsigned long> >::vector<unsigned long,std::allocator<unsigned long> >, COMDAT
; _this$ = ecx

; 507  : 		{	// construct empty vector

  00000	8b c1		 mov	 eax, ecx
  00002	33 c9		 xor	 ecx, ecx
  00004	89 08		 mov	 DWORD PTR [eax], ecx
  00006	89 48 04	 mov	 DWORD PTR [eax+4], ecx
  00009	89 48 08	 mov	 DWORD PTR [eax+8], ecx

; 508  : 		}

  0000c	c3		 ret	 0
??0?$vector@KV?$allocator@K@std@@@std@@QAE@XZ ENDP	; std::vector<unsigned long,std::allocator<unsigned long> >::vector<unsigned long,std::allocator<unsigned long> >
_TEXT	ENDS
PUBLIC	?begin@?$vector@KV?$allocator@K@std@@@std@@QAE?AV?$_Vector_iterator@V?$_Vector_val@KV?$allocator@K@std@@@std@@@2@XZ ; std::vector<unsigned long,std::allocator<unsigned long> >::begin
; Function compile flags: /Ogsp
;	COMDAT ?begin@?$vector@KV?$allocator@K@std@@@std@@QAE?AV?$_Vector_iterator@V?$_Vector_val@KV?$allocator@K@std@@@std@@@2@XZ
_TEXT	SEGMENT
___$ReturnUdt$ = 8					; size = 4
?begin@?$vector@KV?$allocator@K@std@@@std@@QAE?AV?$_Vector_iterator@V?$_Vector_val@KV?$allocator@K@std@@@std@@@2@XZ PROC ; std::vector<unsigned long,std::allocator<unsigned long> >::begin, COMDAT
; _this$ = ecx

; 781  : 		{	// return iterator for beginning of mutable sequence

  00000	55		 push	 ebp
  00001	8b ec		 mov	 ebp, esp

; 782  : 		return (iterator(this->_Myfirst, this));

  00003	8b 09		 mov	 ecx, DWORD PTR [ecx]
  00005	8b 45 08	 mov	 eax, DWORD PTR ___$ReturnUdt$[ebp]
  00008	89 08		 mov	 DWORD PTR [eax], ecx

; 783  : 		}

  0000a	5d		 pop	 ebp
  0000b	c2 04 00	 ret	 4
?begin@?$vector@KV?$allocator@K@std@@@std@@QAE?AV?$_Vector_iterator@V?$_Vector_val@KV?$allocator@K@std@@@std@@@2@XZ ENDP ; std::vector<unsigned long,std::allocator<unsigned long> >::begin
_TEXT	ENDS
PUBLIC	?end@?$vector@KV?$allocator@K@std@@@std@@QAE?AV?$_Vector_iterator@V?$_Vector_val@KV?$allocator@K@std@@@std@@@2@XZ ; std::vector<unsigned long,std::allocator<unsigned long> >::end
; Function compile flags: /Ogsp
;	COMDAT ?end@?$vector@KV?$allocator@K@std@@@std@@QAE?AV?$_Vector_iterator@V?$_Vector_val@KV?$allocator@K@std@@@std@@@2@XZ
_TEXT	SEGMENT
___$ReturnUdt$ = 8					; size = 4
?end@?$vector@KV?$allocator@K@std@@@std@@QAE?AV?$_Vector_iterator@V?$_Vector_val@KV?$allocator@K@std@@@std@@@2@XZ PROC ; std::vector<unsigned long,std::allocator<unsigned long> >::end, COMDAT
; _this$ = ecx

; 791  : 		{	// return iterator for end of mutable sequence

  00000	55		 push	 ebp
  00001	8b ec		 mov	 ebp, esp

; 792  : 		return (iterator(this->_Mylast, this));

  00003	8b 49 04	 mov	 ecx, DWORD PTR [ecx+4]
  00006	8b 45 08	 mov	 eax, DWORD PTR ___$ReturnUdt$[ebp]
  00009	89 08		 mov	 DWORD PTR [eax], ecx

; 793  : 		}

  0000b	5d		 pop	 ebp
  0000c	c2 04 00	 ret	 4
?end@?$vector@KV?$allocator@K@std@@@std@@QAE?AV?$_Vector_iterator@V?$_Vector_val@KV?$allocator@K@std@@@std@@@2@XZ ENDP ; std::vector<unsigned long,std::allocator<unsigned long> >::end
_TEXT	ENDS
PUBLIC	?_Make_iter@?$vector@KV?$allocator@K@std@@@std@@QBE?AV?$_Vector_iterator@V?$_Vector_val@KV?$allocator@K@std@@@std@@@2@V?$_Vector_const_iterator@V?$_Vector_val@KV?$allocator@K@std@@@std@@@2@@Z ; std::vector<unsigned long,std::allocator<unsigned long> >::_Make_iter
; Function compile flags: /Ogsp
;	COMDAT ?_Make_iter@?$vector@KV?$allocator@K@std@@@std@@QBE?AV?$_Vector_iterator@V?$_Vector_val@KV?$allocator@K@std@@@std@@@2@V?$_Vector_const_iterator@V?$_Vector_val@KV?$allocator@K@std@@@std@@@2@@Z
_TEXT	SEGMENT
___$ReturnUdt$ = 8					; size = 4
__Where$ = 12						; size = 4
?_Make_iter@?$vector@KV?$allocator@K@std@@@std@@QBE?AV?$_Vector_iterator@V?$_Vector_val@KV?$allocator@K@std@@@std@@@2@V?$_Vector_const_iterator@V?$_Vector_val@KV?$allocator@K@std@@@std@@@2@@Z PROC ; std::vector<unsigned long,std::allocator<unsigned long> >::_Make_iter, COMDAT
; _this$ = ecx

; 801  : 		{	// make iterator from const_iterator

  00000	55		 push	 ebp
  00001	8b ec		 mov	 ebp, esp

; 802  : 		return (iterator(_Where._Ptr, this));

  00003	8b 45 08	 mov	 eax, DWORD PTR ___$ReturnUdt$[ebp]
  00006	8b 4d 0c	 mov	 ecx, DWORD PTR __Where$[ebp]
  00009	89 08		 mov	 DWORD PTR [eax], ecx

; 803  : 		}

  0000b	5d		 pop	 ebp
  0000c	c2 08 00	 ret	 8
?_Make_iter@?$vector@KV?$allocator@K@std@@@std@@QBE?AV?$_Vector_iterator@V?$_Vector_val@KV?$allocator@K@std@@@std@@@2@V?$_Vector_const_iterator@V?$_Vector_val@KV?$allocator@K@std@@@std@@@2@@Z ENDP ; std::vector<unsigned long,std::allocator<unsigned long> >::_Make_iter
_TEXT	ENDS
PUBLIC	?_Destroy@?$vector@KV?$allocator@K@std@@@std@@IAEXPAK0@Z ; std::vector<unsigned long,std::allocator<unsigned long> >::_Destroy
; Function compile flags: /Ogsp
;	COMDAT ?_Destroy@?$vector@KV?$allocator@K@std@@@std@@IAEXPAK0@Z
_TEXT	SEGMENT
__First$ = 8						; size = 4
__Last$ = 12						; size = 4
?_Destroy@?$vector@KV?$allocator@K@std@@@std@@IAEXPAK0@Z PROC ; std::vector<unsigned long,std::allocator<unsigned long> >::_Destroy, COMDAT
; _this$ = ecx

; 1270 : 		_Destroy_range(_First, _Last, this->_Alval);
; 1271 : 		}

  00000	c2 08 00	 ret	 8
?_Destroy@?$vector@KV?$allocator@K@std@@@std@@IAEXPAK0@Z ENDP ; std::vector<unsigned long,std::allocator<unsigned long> >::_Destroy
_TEXT	ENDS
PUBLIC	??9?$_Vector_const_iterator@V?$_Vector_val@KV?$allocator@K@std@@@std@@@std@@QBE_NABV01@@Z ; std::_Vector_const_iterator<std::_Vector_val<unsigned long,std::allocator<unsigned long> > >::operator!=
; Function compile flags: /Ogsp
;	COMDAT ??9?$_Vector_const_iterator@V?$_Vector_val@KV?$allocator@K@std@@@std@@@std@@QBE_NABV01@@Z
_TEXT	SEGMENT
__Right$ = 8						; size = 4
??9?$_Vector_const_iterator@V?$_Vector_val@KV?$allocator@K@std@@@std@@@std@@QBE_NABV01@@Z PROC ; std::_Vector_const_iterator<std::_Vector_val<unsigned long,std::allocator<unsigned long> > >::operator!=, COMDAT
; _this$ = ecx

; 207  : 		{	// test for iterator inequality

  00000	55		 push	 ebp
  00001	8b ec		 mov	 ebp, esp

; 208  : 		return (!(*this == _Right));

  00003	8b 01		 mov	 eax, DWORD PTR [ecx]
  00005	8b 55 08	 mov	 edx, DWORD PTR __Right$[ebp]
  00008	33 c9		 xor	 ecx, ecx
  0000a	3b 02		 cmp	 eax, DWORD PTR [edx]
  0000c	0f 95 c0	 setne	 al

; 209  : 		}

  0000f	5d		 pop	 ebp
  00010	c2 04 00	 ret	 4
??9?$_Vector_const_iterator@V?$_Vector_val@KV?$allocator@K@std@@@std@@@std@@QBE_NABV01@@Z ENDP ; std::_Vector_const_iterator<std::_Vector_val<unsigned long,std::allocator<unsigned long> > >::operator!=
_TEXT	ENDS
PUBLIC	??$_Cons_val@V?$allocator@K@std@@KABK@std@@YAXAAV?$allocator@K@0@PAKABK@Z ; std::_Cons_val<std::allocator<unsigned long>,unsigned long,unsigned long const &>
; Function compile flags: /Ogsp
; File c:\program files (x86)\microsoft visual studio 10.0\vc\include\xmemory
;	COMDAT ??$_Cons_val@V?$allocator@K@std@@KABK@std@@YAXAAV?$allocator@K@0@PAKABK@Z
_TEXT	SEGMENT
__Alval$ = 8						; size = 4
__Pdest$ = 12						; size = 4
__Src$ = 16						; size = 4
??$_Cons_val@V?$allocator@K@std@@KABK@std@@YAXAAV?$allocator@K@0@PAKABK@Z PROC ; std::_Cons_val<std::allocator<unsigned long>,unsigned long,unsigned long const &>, COMDAT

; 279  : 	{	// construct using allocator

  00000	55		 push	 ebp
  00001	8b ec		 mov	 ebp, esp

; 280  : 	_Alval.construct(_Pdest, _STD forward<_Ty2>(_Src));

  00003	8b 45 0c	 mov	 eax, DWORD PTR __Pdest$[ebp]
  00006	85 c0		 test	 eax, eax
  00008	74 07		 je	 SHORT $LN9@Cons_val@2
  0000a	8b 4d 10	 mov	 ecx, DWORD PTR __Src$[ebp]
  0000d	8b 09		 mov	 ecx, DWORD PTR [ecx]
  0000f	89 08		 mov	 DWORD PTR [eax], ecx
$LN9@Cons_val@2:

; 281  : 	}

  00011	5d		 pop	 ebp
  00012	c3		 ret	 0
??$_Cons_val@V?$allocator@K@std@@KABK@std@@YAXAAV?$allocator@K@0@PAKABK@Z ENDP ; std::_Cons_val<std::allocator<unsigned long>,unsigned long,unsigned long const &>
_TEXT	ENDS
PUBLIC	??$_Umove@PAK@?$vector@KV?$allocator@K@std@@@std@@IAEPAKPAK00@Z ; std::vector<unsigned long,std::allocator<unsigned long> >::_Umove<unsigned long *>
; Function compile flags: /Ogsp
; File c:\program files (x86)\microsoft visual studio 10.0\vc\include\vector
;	COMDAT ??$_Umove@PAK@?$vector@KV?$allocator@K@std@@@std@@IAEPAKPAK00@Z
_TEXT	SEGMENT
__First$ = 8						; size = 4
__Last$ = 12						; size = 4
__Ptr$ = 16						; size = 4
??$_Umove@PAK@?$vector@KV?$allocator@K@std@@@std@@IAEPAKPAK00@Z PROC ; std::vector<unsigned long,std::allocator<unsigned long> >::_Umove<unsigned long *>, COMDAT
; _this$ = ecx

; 1322 : 		pointer _Umove(_Iter _First, _Iter _Last, pointer _Ptr)

  00000	55		 push	 ebp
  00001	8b ec		 mov	 ebp, esp

; 1323 : 		{	// move initializing [_First, _Last), using allocator
; 1324 : 		return (_Uninitialized_move(_First, _Last,
; 1325 : 			_Ptr, this->_Alval));

  00003	83 c1 0c	 add	 ecx, 12			; 0000000cH
  00006	51		 push	 ecx
  00007	ff 75 10	 push	 DWORD PTR __Ptr$[ebp]
  0000a	ff 75 0c	 push	 DWORD PTR __Last$[ebp]
  0000d	ff 75 08	 push	 DWORD PTR __First$[ebp]
  00010	e8 00 00 00 00	 call	 ??$_Uninitialized_move@PAKPAKV?$allocator@K@std@@@std@@YAPAKPAK00AAV?$allocator@K@0@@Z ; std::_Uninitialized_move<unsigned long *,unsigned long *,std::allocator<unsigned long> >
  00015	83 c4 10	 add	 esp, 16			; 00000010H

; 1326 : 		}

  00018	5d		 pop	 ebp
  00019	c2 0c 00	 ret	 12			; 0000000cH
??$_Umove@PAK@?$vector@KV?$allocator@K@std@@@std@@IAEPAKPAK00@Z ENDP ; std::vector<unsigned long,std::allocator<unsigned long> >::_Umove<unsigned long *>
_TEXT	ENDS
PUBLIC	?CheckNormalAttack@ioObjectCountItem@@UAEXPAVioBaseChar@@@Z ; ioObjectCountItem::CheckNormalAttack
; Function compile flags: /Ogsp
; File d:\lost saga for developer\youtube\tutorial\source\src\lsclient\ioobjectcountitem.cpp
;	COMDAT ?CheckNormalAttack@ioObjectCountItem@@UAEXPAVioBaseChar@@@Z
_TEXT	SEGMENT
_pOwner$ = 8						; size = 4
?CheckNormalAttack@ioObjectCountItem@@UAEXPAVioBaseChar@@@Z PROC ; ioObjectCountItem::CheckNormalAttack, COMDAT
; _this$ = ecx

; 121  : {

  00000	55		 push	 ebp
  00001	8b ec		 mov	 ebp, esp

; 122  : 	switch( m_ObjectState )

  00003	8b 81 08 1c 00
	00		 mov	 eax, DWORD PTR [ecx+7176]
  00009	48		 dec	 eax
  0000a	74 09		 je	 SHORT $LN2@CheckNorma
  0000c	48		 dec	 eax
  0000d	75 0c		 jne	 SHORT $LN3@CheckNorma

; 129  : 		break;
; 130  : 	}
; 131  : }

  0000f	5d		 pop	 ebp

; 126  : 		break;
; 127  : 	case OS_ATTACK_END:
; 128  : 		SetAttackEndState( pOwner );

  00010	e9 00 00 00 00	 jmp	 ?SetAttackEndState@ioObjectCountItem@@IAEXPAVioBaseChar@@@Z ; ioObjectCountItem::SetAttackEndState
$LN2@CheckNorma:

; 129  : 		break;
; 130  : 	}
; 131  : }

  00015	5d		 pop	 ebp

; 123  : 	{
; 124  : 	case OS_ATTACK:
; 125  : 		SetAttackState( pOwner );

  00016	e9 00 00 00 00	 jmp	 ?SetAttackState@ioObjectCountItem@@IAEXPAVioBaseChar@@@Z ; ioObjectCountItem::SetAttackState
$LN3@CheckNorma:

; 129  : 		break;
; 130  : 	}
; 131  : }

  0001b	5d		 pop	 ebp
  0001c	c2 04 00	 ret	 4
?CheckNormalAttack@ioObjectCountItem@@UAEXPAVioBaseChar@@@Z ENDP ; ioObjectCountItem::CheckNormalAttack
_TEXT	ENDS
PUBLIC	??0?$list@MV?$allocator@M@std@@@std@@QAE@XZ	; std::list<float,std::allocator<float> >::list<float,std::allocator<float> >
; Function compile flags: /Ogsp
; File c:\program files (x86)\microsoft visual studio 10.0\vc\include\list
;	COMDAT ??0?$list@MV?$allocator@M@std@@@std@@QAE@XZ
_TEXT	SEGMENT
$T625503 = -4						; size = 4
$T625498 = -4						; size = 4
??0?$list@MV?$allocator@M@std@@@std@@QAE@XZ PROC	; std::list<float,std::allocator<float> >::list<float,std::allocator<float> >, COMDAT
; _this$ = ecx

; 607  : 		{	// construct empty list

  00000	55		 push	 ebp
  00001	8b ec		 mov	 ebp, esp
  00003	51		 push	 ecx
  00004	56		 push	 esi
  00005	51		 push	 ecx
  00006	89 65 fc	 mov	 DWORD PTR $T625498[ebp], esp
  00009	8b f1		 mov	 esi, ecx
  0000b	89 65 fc	 mov	 DWORD PTR $T625503[ebp], esp
  0000e	e8 00 00 00 00	 call	 ??0?$_List_val@MV?$allocator@M@std@@@std@@QAE@V?$allocator@M@1@@Z ; std::_List_val<float,std::allocator<float> >::_List_val<float,std::allocator<float> >

; 608  : 		}

  00013	8b c6		 mov	 eax, esi
  00015	5e		 pop	 esi
  00016	c9		 leave
  00017	c3		 ret	 0
??0?$list@MV?$allocator@M@std@@@std@@QAE@XZ ENDP	; std::list<float,std::allocator<float> >::list<float,std::allocator<float> >
_TEXT	ENDS
PUBLIC	?begin@?$list@MV?$allocator@M@std@@@std@@QAE?AV?$_List_iterator@V?$_List_val@MV?$allocator@M@std@@@std@@@2@XZ ; std::list<float,std::allocator<float> >::begin
; Function compile flags: /Ogsp
;	COMDAT ?begin@?$list@MV?$allocator@M@std@@@std@@QAE?AV?$_List_iterator@V?$_List_val@MV?$allocator@M@std@@@std@@@2@XZ
_TEXT	SEGMENT
___$ReturnUdt$ = 8					; size = 4
?begin@?$list@MV?$allocator@M@std@@@std@@QAE?AV?$_List_iterator@V?$_List_val@MV?$allocator@M@std@@@std@@@2@XZ PROC ; std::list<float,std::allocator<float> >::begin, COMDAT
; _this$ = ecx

; 781  : 		{	// return iterator for beginning of mutable sequence

  00000	55		 push	 ebp
  00001	8b ec		 mov	 ebp, esp

; 782  : 		return (iterator(this->_Nextnode(this->_Myhead), this));

  00003	8b 01		 mov	 eax, DWORD PTR [ecx]
  00005	8b 08		 mov	 ecx, DWORD PTR [eax]
  00007	8b 45 08	 mov	 eax, DWORD PTR ___$ReturnUdt$[ebp]
  0000a	89 08		 mov	 DWORD PTR [eax], ecx

; 783  : 		}

  0000c	5d		 pop	 ebp
  0000d	c2 04 00	 ret	 4
?begin@?$list@MV?$allocator@M@std@@@std@@QAE?AV?$_List_iterator@V?$_List_val@MV?$allocator@M@std@@@std@@@2@XZ ENDP ; std::list<float,std::allocator<float> >::begin
_TEXT	ENDS
PUBLIC	?end@?$list@MV?$allocator@M@std@@@std@@QAE?AV?$_List_iterator@V?$_List_val@MV?$allocator@M@std@@@std@@@2@XZ ; std::list<float,std::allocator<float> >::end
; Function compile flags: /Ogsp
;	COMDAT ?end@?$list@MV?$allocator@M@std@@@std@@QAE?AV?$_List_iterator@V?$_List_val@MV?$allocator@M@std@@@std@@@2@XZ
_TEXT	SEGMENT
___$ReturnUdt$ = 8					; size = 4
?end@?$list@MV?$allocator@M@std@@@std@@QAE?AV?$_List_iterator@V?$_List_val@MV?$allocator@M@std@@@std@@@2@XZ PROC ; std::list<float,std::allocator<float> >::end, COMDAT
; _this$ = ecx

; 791  : 		{	// return iterator for end of mutable sequence

  00000	55		 push	 ebp
  00001	8b ec		 mov	 ebp, esp

; 792  : 		return (iterator(this->_Myhead, this));

  00003	8b 09		 mov	 ecx, DWORD PTR [ecx]
  00005	8b 45 08	 mov	 eax, DWORD PTR ___$ReturnUdt$[ebp]
  00008	89 08		 mov	 DWORD PTR [eax], ecx

; 793  : 		}

  0000a	5d		 pop	 ebp
  0000b	c2 04 00	 ret	 4
?end@?$list@MV?$allocator@M@std@@@std@@QAE?AV?$_List_iterator@V?$_List_val@MV?$allocator@M@std@@@std@@@2@XZ ENDP ; std::list<float,std::allocator<float> >::end
_TEXT	ENDS
PUBLIC	?clear@?$list@MV?$allocator@M@std@@@std@@QAEXXZ	; std::list<float,std::allocator<float> >::clear
; Function compile flags: /Ogsp
;	COMDAT ?clear@?$list@MV?$allocator@M@std@@@std@@QAEXXZ
_TEXT	SEGMENT
?clear@?$list@MV?$allocator@M@std@@@std@@QAEXXZ PROC	; std::list<float,std::allocator<float> >::clear, COMDAT
; _this$ = ecx

; 1096 : 		{	// erase all

  00000	56		 push	 esi
  00001	8b f1		 mov	 esi, ecx

; 1097 :  #if _ITERATOR_DEBUG_LEVEL == 2
; 1098 : 		this->_Orphan_ptr(*this, 0);
; 1099 :  #endif /* _ITERATOR_DEBUG_LEVEL == 2 */
; 1100 : 
; 1101 : 		_Nodeptr _Pnext;
; 1102 : 		_Nodeptr _Pnode = this->_Nextnode(this->_Myhead);

  00003	8b 06		 mov	 eax, DWORD PTR [esi]
  00005	8b 08		 mov	 ecx, DWORD PTR [eax]

; 1103 : 		this->_Nextnode(this->_Myhead) = this->_Myhead;

  00007	89 00		 mov	 DWORD PTR [eax], eax

; 1104 : 		this->_Prevnode(this->_Myhead) = this->_Myhead;

  00009	8b 06		 mov	 eax, DWORD PTR [esi]
  0000b	89 40 04	 mov	 DWORD PTR [eax+4], eax

; 1105 : 		this->_Mysize = 0;

  0000e	83 66 04 00	 and	 DWORD PTR [esi+4], 0

; 1106 : 
; 1107 : 		for (; _Pnode != this->_Myhead; _Pnode = _Pnext)

  00012	3b 0e		 cmp	 ecx, DWORD PTR [esi]
  00014	74 11		 je	 SHORT $LN1@clear
  00016	57		 push	 edi
$LL3@clear:

; 1108 : 			{	// delete an element
; 1109 : 			_Pnext = this->_Nextnode(_Pnode);

  00017	8b 39		 mov	 edi, DWORD PTR [ecx]

; 1110 : 
; 1111 : 			_Dest_val(this->_Alnod, _Pnode);
; 1112 : 			this->_Alnod.deallocate(_Pnode, 1);

  00019	51		 push	 ecx
  0001a	e8 00 00 00 00	 call	 ??3@YAXPAX@Z		; operator delete
  0001f	59		 pop	 ecx
  00020	8b cf		 mov	 ecx, edi
  00022	3b 3e		 cmp	 edi, DWORD PTR [esi]
  00024	75 f1		 jne	 SHORT $LL3@clear
  00026	5f		 pop	 edi
$LN1@clear:
  00027	5e		 pop	 esi

; 1113 : 			}
; 1114 : 		}

  00028	c3		 ret	 0
?clear@?$list@MV?$allocator@M@std@@@std@@QAEXXZ ENDP	; std::list<float,std::allocator<float> >::clear
_TEXT	ENDS
PUBLIC	??$_Uninit_copy@V?$_Vector_const_iterator@V?$_Vector_val@KV?$allocator@K@std@@@std@@@std@@PAKV?$allocator@K@2@@std@@YAPAKV?$_Vector_const_iterator@V?$_Vector_val@KV?$allocator@K@std@@@std@@@0@0PAKAAV?$allocator@K@0@U_Nonscalar_ptr_iterator_tag@0@@Z ; std::_Uninit_copy<std::_Vector_const_iterator<std::_Vector_val<unsigned long,std::allocator<unsigned long> > >,unsigned long *,std::allocator<unsigned long> >
; Function compile flags: /Ogsp
; File c:\program files (x86)\microsoft visual studio 10.0\vc\include\memory
;	COMDAT ??$_Uninit_copy@V?$_Vector_const_iterator@V?$_Vector_val@KV?$allocator@K@std@@@std@@@std@@PAKV?$allocator@K@2@@std@@YAPAKV?$_Vector_const_iterator@V?$_Vector_val@KV?$allocator@K@std@@@std@@@0@0PAKAAV?$allocator@K@0@U_Nonscalar_ptr_iterator_tag@0@@Z
_TEXT	SEGMENT
__First$ = 8						; size = 4
__Last$ = 12						; size = 4
__Dest$ = 16						; size = 4
__Al$ = 20						; size = 4
___formal$ = 24						; size = 1
??$_Uninit_copy@V?$_Vector_const_iterator@V?$_Vector_val@KV?$allocator@K@std@@@std@@@std@@PAKV?$allocator@K@2@@std@@YAPAKV?$_Vector_const_iterator@V?$_Vector_val@KV?$allocator@K@std@@@std@@@0@0PAKAAV?$allocator@K@0@U_Nonscalar_ptr_iterator_tag@0@@Z PROC ; std::_Uninit_copy<std::_Vector_const_iterator<std::_Vector_val<unsigned long,std::allocator<unsigned long> > >,unsigned long *,std::allocator<unsigned long> >, COMDAT

; 369  : 	{	// copy [_First, _Last) to raw _Dest, using _Al, arbitrary type

  00000	55		 push	 ebp
  00001	8b ec		 mov	 ebp, esp

; 370  : 	_DEBUG_RANGE(_First, _Last);
; 371  : 	_DEBUG_POINTER(_Dest);
; 372  : 	_FwdIt _Next = _Dest;
; 373  : 
; 374  : 	_TRY_BEGIN
; 375  : 	for (; _First != _Last; ++_Dest, ++_First)

  00003	8b 45 08	 mov	 eax, DWORD PTR __First$[ebp]
  00006	eb 17		 jmp	 SHORT $LN48@Uninit_cop
$LL14@Uninit_cop:

; 376  : 		_Cons_val(_Al, _Dest, *_First);

  00008	83 7d 10 00	 cmp	 DWORD PTR __Dest$[ebp], 0
  0000c	74 07		 je	 SHORT $LN32@Uninit_cop
  0000e	8b 08		 mov	 ecx, DWORD PTR [eax]
  00010	8b 55 10	 mov	 edx, DWORD PTR __Dest$[ebp]
  00013	89 0a		 mov	 DWORD PTR [edx], ecx
$LN32@Uninit_cop:

; 370  : 	_DEBUG_RANGE(_First, _Last);
; 371  : 	_DEBUG_POINTER(_Dest);
; 372  : 	_FwdIt _Next = _Dest;
; 373  : 
; 374  : 	_TRY_BEGIN
; 375  : 	for (; _First != _Last; ++_Dest, ++_First)

  00015	83 45 10 04	 add	 DWORD PTR __Dest$[ebp], 4
  00019	83 c0 04	 add	 eax, 4
  0001c	89 45 08	 mov	 DWORD PTR __First$[ebp], eax
$LN48@Uninit_cop:
  0001f	3b 45 0c	 cmp	 eax, DWORD PTR __Last$[ebp]
  00022	75 e4		 jne	 SHORT $LL14@Uninit_cop

; 377  : 	_CATCH_ALL
; 378  : 	for (; _Next != _Dest; ++_Next)
; 379  : 		_Dest_val(_Al, _Next);
; 380  : 	_RERAISE;
; 381  : 	_CATCH_END
; 382  : 	return (_Dest);

  00024	8b 45 10	 mov	 eax, DWORD PTR __Dest$[ebp]

; 383  : 	}

  00027	5d		 pop	 ebp
  00028	c3		 ret	 0
??$_Uninit_copy@V?$_Vector_const_iterator@V?$_Vector_val@KV?$allocator@K@std@@@std@@@std@@PAKV?$allocator@K@2@@std@@YAPAKV?$_Vector_const_iterator@V?$_Vector_val@KV?$allocator@K@std@@@std@@@0@0PAKAAV?$allocator@K@0@U_Nonscalar_ptr_iterator_tag@0@@Z ENDP ; std::_Uninit_copy<std::_Vector_const_iterator<std::_Vector_val<unsigned long,std::allocator<unsigned long> > >,unsigned long *,std::allocator<unsigned long> >
_TEXT	ENDS
PUBLIC	?erase@?$vector@KV?$allocator@K@std@@@std@@QAE?AV?$_Vector_iterator@V?$_Vector_val@KV?$allocator@K@std@@@std@@@2@V?$_Vector_const_iterator@V?$_Vector_val@KV?$allocator@K@std@@@std@@@2@0@Z ; std::vector<unsigned long,std::allocator<unsigned long> >::erase
; Function compile flags: /Ogsp
; File c:\program files (x86)\microsoft visual studio 10.0\vc\include\vector
;	COMDAT ?erase@?$vector@KV?$allocator@K@std@@@std@@QAE?AV?$_Vector_iterator@V?$_Vector_val@KV?$allocator@K@std@@@std@@@2@V?$_Vector_const_iterator@V?$_Vector_val@KV?$allocator@K@std@@@std@@@2@0@Z
_TEXT	SEGMENT
___$ReturnUdt$ = 8					; size = 4
__First_arg$ = 12					; size = 4
__Cat$625781 = 16					; size = 1
__Last_arg$ = 16					; size = 4
?erase@?$vector@KV?$allocator@K@std@@@std@@QAE?AV?$_Vector_iterator@V?$_Vector_val@KV?$allocator@K@std@@@std@@@2@V?$_Vector_const_iterator@V?$_Vector_val@KV?$allocator@K@std@@@std@@@2@0@Z PROC ; std::vector<unsigned long,std::allocator<unsigned long> >::erase, COMDAT
; _this$ = ecx

; 1190 : 		{	// erase [_First, _Last)

  00000	55		 push	 ebp
  00001	8b ec		 mov	 ebp, esp

; 1191 : 		iterator _First = _Make_iter(_First_arg);

  00003	8b 45 0c	 mov	 eax, DWORD PTR __First_arg$[ebp]
  00006	56		 push	 esi
  00007	57		 push	 edi
  00008	8b 7d 08	 mov	 edi, DWORD PTR ___$ReturnUdt$[ebp]
  0000b	8b f1		 mov	 esi, ecx
  0000d	89 07		 mov	 DWORD PTR [edi], eax

; 1192 : 		iterator _Last = _Make_iter(_Last_arg);
; 1193 : 
; 1194 : 		if (_First != _Last)

  0000f	3b 45 10	 cmp	 eax, DWORD PTR __Last_arg$[ebp]
  00012	74 16		 je	 SHORT $LN1@erase

; 1195 : 			{	// worth doing, copy down over hole
; 1196 :  #if _ITERATOR_DEBUG_LEVEL == 2
; 1197 : 			if (_Last < _First || _VICONT(_First) != this
; 1198 : 				|| _VIPTR(_First) < this->_Myfirst
; 1199 : 				|| this->_Mylast < _VIPTR(_Last))
; 1200 : 				_DEBUG_ERROR("vector erase iterator outside range");
; 1201 : 			pointer _Ptr = _Move(_VIPTR(_Last), this->_Mylast,
; 1202 : 				_VIPTR(_First));
; 1203 : 			_Orphan_range(_VIPTR(_First), this->_Mylast);
; 1204 : 
; 1205 :  #else /* _ITERATOR_DEBUG_LEVEL == 2 */
; 1206 : 			pointer _Ptr = _Move(_VIPTR(_Last), this->_Mylast,
; 1207 : 				_VIPTR(_First));

  00014	ff 75 10	 push	 DWORD PTR __Cat$625781[ebp]
  00017	8b 4e 04	 mov	 ecx, DWORD PTR [esi+4]
  0001a	50		 push	 eax
  0001b	51		 push	 ecx
  0001c	ff 75 10	 push	 DWORD PTR __Last_arg$[ebp]
  0001f	e8 00 00 00 00	 call	 ??$_Move@PAKPAK@std@@YAPAKPAK00U_Scalar_ptr_iterator_tag@0@@Z ; std::_Move<unsigned long *,unsigned long *>
  00024	83 c4 10	 add	 esp, 16			; 00000010H

; 1208 :  #endif /* _ITERATOR_DEBUG_LEVEL == 2 */
; 1209 : 
; 1210 : 			_Destroy(_Ptr, this->_Mylast);
; 1211 : 			this->_Mylast = _Ptr;

  00027	89 46 04	 mov	 DWORD PTR [esi+4], eax
$LN1@erase:

; 1212 : 			}
; 1213 : 		return (_First);

  0002a	8b c7		 mov	 eax, edi
  0002c	5f		 pop	 edi
  0002d	5e		 pop	 esi

; 1214 : 		}

  0002e	5d		 pop	 ebp
  0002f	c2 0c 00	 ret	 12			; 0000000cH
?erase@?$vector@KV?$allocator@K@std@@@std@@QAE?AV?$_Vector_iterator@V?$_Vector_val@KV?$allocator@K@std@@@std@@@2@V?$_Vector_const_iterator@V?$_Vector_val@KV?$allocator@K@std@@@std@@@2@0@Z ENDP ; std::vector<unsigned long,std::allocator<unsigned long> >::erase
_TEXT	ENDS
PUBLIC	?_Tidy@?$vector@KV?$allocator@K@std@@@std@@IAEXXZ ; std::vector<unsigned long,std::allocator<unsigned long> >::_Tidy
EXTRN	__imp_?_Orphan_all@_Container_base0@std@@QAEXXZ:PROC
; Function compile flags: /Ogsp
;	COMDAT ?_Tidy@?$vector@KV?$allocator@K@std@@@std@@IAEXXZ
_TEXT	SEGMENT
?_Tidy@?$vector@KV?$allocator@K@std@@@std@@IAEXXZ PROC	; std::vector<unsigned long,std::allocator<unsigned long> >::_Tidy, COMDAT
; _this$ = ecx

; 1301 : 		{	// free all storage

  00000	56		 push	 esi
  00001	8b f1		 mov	 esi, ecx

; 1302 : 		if (this->_Myfirst != 0)

  00003	83 3e 00	 cmp	 DWORD PTR [esi], 0
  00006	74 0e		 je	 SHORT $LN12@Tidy

; 1303 : 			{	// something to free, destroy and deallocate it
; 1304 : 			this->_Orphan_all();

  00008	ff 15 00 00 00
	00		 call	 DWORD PTR __imp_?_Orphan_all@_Container_base0@std@@QAEXXZ

; 1305 : 			_Destroy(this->_Myfirst, this->_Mylast);
; 1306 : 			this->_Alval.deallocate(this->_Myfirst,
; 1307 : 				this->_Myend - this->_Myfirst);

  0000e	ff 36		 push	 DWORD PTR [esi]
  00010	e8 00 00 00 00	 call	 ??3@YAXPAX@Z		; operator delete
  00015	59		 pop	 ecx
$LN12@Tidy:

; 1308 : 			}
; 1309 : 		this->_Myfirst = 0;

  00016	83 26 00	 and	 DWORD PTR [esi], 0

; 1310 : 		this->_Mylast = 0;

  00019	83 66 04 00	 and	 DWORD PTR [esi+4], 0

; 1311 : 		this->_Myend = 0;

  0001d	83 66 08 00	 and	 DWORD PTR [esi+8], 0
  00021	5e		 pop	 esi

; 1312 : 		}

  00022	c3		 ret	 0
?_Tidy@?$vector@KV?$allocator@K@std@@@std@@IAEXXZ ENDP	; std::vector<unsigned long,std::allocator<unsigned long> >::_Tidy
_TEXT	ENDS
PUBLIC	?reserve@?$vector@KV?$allocator@K@std@@@std@@QAEXI@Z ; std::vector<unsigned long,std::allocator<unsigned long> >::reserve
; Function compile flags: /Ogsp
;	COMDAT ?reserve@?$vector@KV?$allocator@K@std@@@std@@QAEXI@Z
_TEXT	SEGMENT
__Count$ = 8						; size = 4
?reserve@?$vector@KV?$allocator@K@std@@@std@@QAEXI@Z PROC ; std::vector<unsigned long,std::allocator<unsigned long> >::reserve, COMDAT
; _this$ = ecx

; 746  : 		{	// determine new minimum length of allocated storage

  00000	55		 push	 ebp
  00001	8b ec		 mov	 ebp, esp

; 747  : 		if (max_size() < _Count)

  00003	81 7d 08 ff ff
	ff 3f		 cmp	 DWORD PTR __Count$[ebp], 1073741823 ; 3fffffffH
  0000a	56		 push	 esi
  0000b	8b f1		 mov	 esi, ecx
  0000d	76 0b		 jbe	 SHORT $LN5@reserve

; 748  : 			_Xlen();	// result too long

  0000f	68 00 00 00 00	 push	 OFFSET ??_C@_0BD@OLBABOEK@vector?$DMT?$DO?5too?5long?$AA@
  00014	ff 15 00 00 00
	00		 call	 DWORD PTR __imp_?_Xlength_error@std@@YAXPBD@Z
$LN43@reserve:
$LN5@reserve:

; 749  : 		else if (capacity() < _Count)

  0001a	8b 46 08	 mov	 eax, DWORD PTR [esi+8]
  0001d	2b 06		 sub	 eax, DWORD PTR [esi]
  0001f	c1 f8 02	 sar	 eax, 2
  00022	3b 45 08	 cmp	 eax, DWORD PTR __Count$[ebp]
  00025	73 52		 jae	 SHORT $LN3@reserve

; 750  : 			{	// not enough room, reallocate
; 751  : 			pointer _Ptr = this->_Alval.allocate(_Count);

  00027	53		 push	 ebx
  00028	57		 push	 edi
  00029	6a 00		 push	 0
  0002b	ff 75 08	 push	 DWORD PTR __Count$[ebp]
  0002e	e8 00 00 00 00	 call	 ??$_Allocate@K@std@@YAPAKIPAK@Z ; std::_Allocate<unsigned long>

; 752  : 
; 753  : 			_TRY_BEGIN
; 754  : 			_Umove(this->_Myfirst, this->_Mylast, _Ptr);

  00033	8b 0e		 mov	 ecx, DWORD PTR [esi]
  00035	8d 56 0c	 lea	 edx, DWORD PTR [esi+12]
  00038	52		 push	 edx
  00039	8b d8		 mov	 ebx, eax
  0003b	8b 46 04	 mov	 eax, DWORD PTR [esi+4]
  0003e	53		 push	 ebx
  0003f	50		 push	 eax
  00040	51		 push	 ecx
  00041	e8 00 00 00 00	 call	 ??$_Uninitialized_move@PAKPAKV?$allocator@K@std@@@std@@YAPAKPAK00AAV?$allocator@K@0@@Z ; std::_Uninitialized_move<unsigned long *,unsigned long *,std::allocator<unsigned long> >

; 755  : 			_CATCH_ALL
; 756  : 			this->_Alval.deallocate(_Ptr, _Count);
; 757  : 			_RERAISE;
; 758  : 			_CATCH_END
; 759  : 
; 760  : 			size_type _Size = size();

  00046	8b 06		 mov	 eax, DWORD PTR [esi]
  00048	8b 7e 04	 mov	 edi, DWORD PTR [esi+4]
  0004b	2b f8		 sub	 edi, eax
  0004d	83 c4 18	 add	 esp, 24			; 00000018H
  00050	c1 ff 02	 sar	 edi, 2

; 761  : 			if (this->_Myfirst != 0)

  00053	85 c0		 test	 eax, eax
  00055	74 07		 je	 SHORT $LN39@reserve

; 762  : 				{	// destroy and deallocate old array
; 763  : 				_Destroy(this->_Myfirst, this->_Mylast);
; 764  : 				this->_Alval.deallocate(this->_Myfirst,
; 765  : 					this->_Myend - this->_Myfirst);

  00057	50		 push	 eax
  00058	e8 00 00 00 00	 call	 ??3@YAXPAX@Z		; operator delete
  0005d	59		 pop	 ecx
$LN39@reserve:

; 766  : 				}
; 767  : 
; 768  : 			this->_Orphan_all();

  0005e	8b ce		 mov	 ecx, esi
  00060	ff 15 00 00 00
	00		 call	 DWORD PTR __imp_?_Orphan_all@_Container_base0@std@@QAEXXZ

; 769  : 			this->_Myend = _Ptr + _Count;

  00066	8b 45 08	 mov	 eax, DWORD PTR __Count$[ebp]
  00069	8d 04 83	 lea	 eax, DWORD PTR [ebx+eax*4]
  0006c	89 46 08	 mov	 DWORD PTR [esi+8], eax

; 770  : 			this->_Mylast = _Ptr + _Size;

  0006f	8d 04 bb	 lea	 eax, DWORD PTR [ebx+edi*4]
  00072	5f		 pop	 edi

; 771  : 			this->_Myfirst = _Ptr;

  00073	89 1e		 mov	 DWORD PTR [esi], ebx
  00075	89 46 04	 mov	 DWORD PTR [esi+4], eax
  00078	5b		 pop	 ebx
$LN3@reserve:
  00079	5e		 pop	 esi

; 772  : 			}
; 773  : 		}

  0007a	5d		 pop	 ebp
  0007b	c2 04 00	 ret	 4
$LN42@reserve:
?reserve@?$vector@KV?$allocator@K@std@@@std@@QAEXI@Z ENDP ; std::vector<unsigned long,std::allocator<unsigned long> >::reserve
_TEXT	ENDS
PUBLIC	?_Tidy@?$list@MV?$allocator@M@std@@@std@@QAEXXZ	; std::list<float,std::allocator<float> >::_Tidy
; Function compile flags: /Ogsp
; File c:\program files (x86)\microsoft visual studio 10.0\vc\include\list
;	COMDAT ?_Tidy@?$list@MV?$allocator@M@std@@@std@@QAEXXZ
_TEXT	SEGMENT
?_Tidy@?$list@MV?$allocator@M@std@@@std@@QAEXXZ PROC	; std::list<float,std::allocator<float> >::_Tidy, COMDAT
; _this$ = ecx

; 1497 : 		clear();

  00000	e9 00 00 00 00	 jmp	 ?clear@?$list@MV?$allocator@M@std@@@std@@QAEXXZ ; std::list<float,std::allocator<float> >::clear
?_Tidy@?$list@MV?$allocator@M@std@@@std@@QAEXXZ ENDP	; std::list<float,std::allocator<float> >::_Tidy
_TEXT	ENDS
PUBLIC	??$_Uninitialized_copy@V?$_Vector_const_iterator@V?$_Vector_val@KV?$allocator@K@std@@@std@@@std@@PAKV?$allocator@K@2@@std@@YAPAKV?$_Vector_const_iterator@V?$_Vector_val@KV?$allocator@K@std@@@std@@@0@0PAKAAV?$allocator@K@0@@Z ; std::_Uninitialized_copy<std::_Vector_const_iterator<std::_Vector_val<unsigned long,std::allocator<unsigned long> > >,unsigned long *,std::allocator<unsigned long> >
; Function compile flags: /Ogsp
; File c:\program files (x86)\microsoft visual studio 10.0\vc\include\memory
;	COMDAT ??$_Uninitialized_copy@V?$_Vector_const_iterator@V?$_Vector_val@KV?$allocator@K@std@@@std@@@std@@PAKV?$allocator@K@2@@std@@YAPAKV?$_Vector_const_iterator@V?$_Vector_val@KV?$allocator@K@std@@@std@@@0@0PAKAAV?$allocator@K@0@@Z
_TEXT	SEGMENT
__Cat$625940 = -4					; size = 1
__First$ = 8						; size = 4
__Last$ = 12						; size = 4
__Dest$ = 16						; size = 4
__Al$ = 20						; size = 4
??$_Uninitialized_copy@V?$_Vector_const_iterator@V?$_Vector_val@KV?$allocator@K@std@@@std@@@std@@PAKV?$allocator@K@2@@std@@YAPAKV?$_Vector_const_iterator@V?$_Vector_val@KV?$allocator@K@std@@@std@@@0@0PAKAAV?$allocator@K@0@@Z PROC ; std::_Uninitialized_copy<std::_Vector_const_iterator<std::_Vector_val<unsigned long,std::allocator<unsigned long> > >,unsigned long *,std::allocator<unsigned long> >, COMDAT

; 412  : 	{	// copy [_First, _Last) to raw _Dest, using _Al

  00000	55		 push	 ebp
  00001	8b ec		 mov	 ebp, esp
  00003	51		 push	 ecx

; 413  : 	return (_Uninit_copy(_First, _Last, _Dest, _Al,
; 414  : 		_Ptr_cat(_First, _Dest)));

  00004	ff 75 fc	 push	 DWORD PTR __Cat$625940[ebp]
  00007	ff 75 14	 push	 DWORD PTR __Al$[ebp]
  0000a	ff 75 10	 push	 DWORD PTR __Dest$[ebp]
  0000d	ff 75 0c	 push	 DWORD PTR __Last$[ebp]
  00010	ff 75 08	 push	 DWORD PTR __First$[ebp]
  00013	e8 00 00 00 00	 call	 ??$_Uninit_copy@V?$_Vector_const_iterator@V?$_Vector_val@KV?$allocator@K@std@@@std@@@std@@PAKV?$allocator@K@2@@std@@YAPAKV?$_Vector_const_iterator@V?$_Vector_val@KV?$allocator@K@std@@@std@@@0@0PAKAAV?$allocator@K@0@U_Nonscalar_ptr_iterator_tag@0@@Z ; std::_Uninit_copy<std::_Vector_const_iterator<std::_Vector_val<unsigned long,std::allocator<unsigned long> > >,unsigned long *,std::allocator<unsigned long> >
  00018	83 c4 14	 add	 esp, 20			; 00000014H

; 415  : 	}

  0001b	c9		 leave
  0001c	c3		 ret	 0
??$_Uninitialized_copy@V?$_Vector_const_iterator@V?$_Vector_val@KV?$allocator@K@std@@@std@@@std@@PAKV?$allocator@K@2@@std@@YAPAKV?$_Vector_const_iterator@V?$_Vector_val@KV?$allocator@K@std@@@std@@@0@0PAKAAV?$allocator@K@0@@Z ENDP ; std::_Uninitialized_copy<std::_Vector_const_iterator<std::_Vector_val<unsigned long,std::allocator<unsigned long> > >,unsigned long *,std::allocator<unsigned long> >
_TEXT	ENDS
PUBLIC	??1?$vector@KV?$allocator@K@std@@@std@@QAE@XZ	; std::vector<unsigned long,std::allocator<unsigned long> >::~vector<unsigned long,std::allocator<unsigned long> >
; Function compile flags: /Ogsp
; File c:\program files (x86)\microsoft visual studio 10.0\vc\include\vector
;	COMDAT ??1?$vector@KV?$allocator@K@std@@@std@@QAE@XZ
_TEXT	SEGMENT
??1?$vector@KV?$allocator@K@std@@@std@@QAE@XZ PROC	; std::vector<unsigned long,std::allocator<unsigned long> >::~vector<unsigned long,std::allocator<unsigned long> >, COMDAT
; _this$ = ecx

; 705  : 		_Tidy();

  00000	e9 00 00 00 00	 jmp	 ?_Tidy@?$vector@KV?$allocator@K@std@@@std@@IAEXXZ ; std::vector<unsigned long,std::allocator<unsigned long> >::_Tidy
??1?$vector@KV?$allocator@K@std@@@std@@QAE@XZ ENDP	; std::vector<unsigned long,std::allocator<unsigned long> >::~vector<unsigned long,std::allocator<unsigned long> >
_TEXT	ENDS
PUBLIC	?clear@?$vector@KV?$allocator@K@std@@@std@@QAEXXZ ; std::vector<unsigned long,std::allocator<unsigned long> >::clear
; Function compile flags: /Ogsp
;	COMDAT ?clear@?$vector@KV?$allocator@K@std@@@std@@QAEXXZ
_TEXT	SEGMENT
$T625955 = -4						; size = 4
?clear@?$vector@KV?$allocator@K@std@@@std@@QAEXXZ PROC	; std::vector<unsigned long,std::allocator<unsigned long> >::clear, COMDAT
; _this$ = ecx

; 1217 : 		{	// erase all

  00000	55		 push	 ebp
  00001	8b ec		 mov	 ebp, esp
  00003	51		 push	 ecx

; 1218 : 		erase(begin(), end());

  00004	8b 41 04	 mov	 eax, DWORD PTR [ecx+4]
  00007	8b 11		 mov	 edx, DWORD PTR [ecx]
  00009	50		 push	 eax
  0000a	52		 push	 edx
  0000b	8d 45 fc	 lea	 eax, DWORD PTR $T625955[ebp]
  0000e	50		 push	 eax
  0000f	e8 00 00 00 00	 call	 ?erase@?$vector@KV?$allocator@K@std@@@std@@QAE?AV?$_Vector_iterator@V?$_Vector_val@KV?$allocator@K@std@@@std@@@2@V?$_Vector_const_iterator@V?$_Vector_val@KV?$allocator@K@std@@@std@@@2@0@Z ; std::vector<unsigned long,std::allocator<unsigned long> >::erase

; 1219 : 		}

  00014	c9		 leave
  00015	c3		 ret	 0
?clear@?$vector@KV?$allocator@K@std@@@std@@QAEXXZ ENDP	; std::vector<unsigned long,std::allocator<unsigned long> >::clear
_TEXT	ENDS
PUBLIC	?_Reserve@?$vector@KV?$allocator@K@std@@@std@@IAEXI@Z ; std::vector<unsigned long,std::allocator<unsigned long> >::_Reserve
; Function compile flags: /Ogsp
;	COMDAT ?_Reserve@?$vector@KV?$allocator@K@std@@@std@@IAEXI@Z
_TEXT	SEGMENT
__Count$ = 8						; size = 4
?_Reserve@?$vector@KV?$allocator@K@std@@@std@@IAEXI@Z PROC ; std::vector<unsigned long,std::allocator<unsigned long> >::_Reserve, COMDAT
; _this$ = ecx

; 1290 : 		{	// ensure room for _Count new elements, grow exponentially

  00000	55		 push	 ebp
  00001	8b ec		 mov	 ebp, esp
  00003	56		 push	 esi
  00004	8b f1		 mov	 esi, ecx

; 1291 : 		size_type _Size = size();

  00006	8b 0e		 mov	 ecx, DWORD PTR [esi]
  00008	8b 46 04	 mov	 eax, DWORD PTR [esi+4]
  0000b	2b c1		 sub	 eax, ecx

; 1292 : 		if (max_size() - _Count < _Size)

  0000d	ba ff ff ff 3f	 mov	 edx, 1073741823		; 3fffffffH
  00012	2b 55 08	 sub	 edx, DWORD PTR __Count$[ebp]
  00015	c1 f8 02	 sar	 eax, 2
  00018	3b d0		 cmp	 edx, eax
  0001a	73 0b		 jae	 SHORT $LN4@Reserve

; 1293 : 			_Xlen();

  0001c	68 00 00 00 00	 push	 OFFSET ??_C@_0BD@OLBABOEK@vector?$DMT?$DO?5too?5long?$AA@
  00021	ff 15 00 00 00
	00		 call	 DWORD PTR __imp_?_Xlength_error@std@@YAXPBD@Z
$LN21@Reserve:
$LN4@Reserve:

; 1294 : 		else if ((_Size += _Count) <= capacity())

  00027	8b 56 08	 mov	 edx, DWORD PTR [esi+8]
  0002a	03 45 08	 add	 eax, DWORD PTR __Count$[ebp]
  0002d	2b d1		 sub	 edx, ecx
  0002f	c1 fa 02	 sar	 edx, 2
  00032	3b c2		 cmp	 eax, edx
  00034	76 10		 jbe	 SHORT $LN1@Reserve

; 1295 : 			;
; 1296 : 		else
; 1297 : 			reserve(_Grow_to(_Size));

  00036	50		 push	 eax
  00037	8b ce		 mov	 ecx, esi
  00039	e8 00 00 00 00	 call	 ?_Grow_to@?$vector@KV?$allocator@K@std@@@std@@IBEII@Z ; std::vector<unsigned long,std::allocator<unsigned long> >::_Grow_to
  0003e	50		 push	 eax
  0003f	8b ce		 mov	 ecx, esi
  00041	e8 00 00 00 00	 call	 ?reserve@?$vector@KV?$allocator@K@std@@@std@@QAEXI@Z ; std::vector<unsigned long,std::allocator<unsigned long> >::reserve
$LN1@Reserve:
  00046	5e		 pop	 esi

; 1298 : 		}

  00047	5d		 pop	 ebp
  00048	c2 04 00	 ret	 4
$LN20@Reserve:
?_Reserve@?$vector@KV?$allocator@K@std@@@std@@IAEXI@Z ENDP ; std::vector<unsigned long,std::allocator<unsigned long> >::_Reserve
_TEXT	ENDS
PUBLIC	??_7ioObjectCountItem@@6B@			; ioObjectCountItem::`vftable'
PUBLIC	??0ioObjectCountItem@@QAE@XZ			; ioObjectCountItem::ioObjectCountItem
PUBLIC	??_R4ioObjectCountItem@@6B@			; ioObjectCountItem::`RTTI Complete Object Locator'
PUBLIC	??_R0?AVioObjectCountItem@@@8			; ioObjectCountItem `RTTI Type Descriptor'
PUBLIC	??_R3ioObjectCountItem@@8			; ioObjectCountItem::`RTTI Class Hierarchy Descriptor'
PUBLIC	??_R2ioObjectCountItem@@8			; ioObjectCountItem::`RTTI Base Class Array'
PUBLIC	??_R1A@?0A@EA@ioObjectCountItem@@8		; ioObjectCountItem::`RTTI Base Class Descriptor at (0,-1,0,64)'
PUBLIC	??_R1A@?0A@EA@ioObjectItem@@8			; ioObjectItem::`RTTI Base Class Descriptor at (0,-1,0,64)'
PUBLIC	??_R0?AVioObjectItem@@@8			; ioObjectItem `RTTI Type Descriptor'
PUBLIC	??_R3ioObjectItem@@8				; ioObjectItem::`RTTI Class Hierarchy Descriptor'
PUBLIC	??_R2ioObjectItem@@8				; ioObjectItem::`RTTI Base Class Array'
PUBLIC	??_R1A@?0A@EA@ioWeaponItem@@8			; ioWeaponItem::`RTTI Base Class Descriptor at (0,-1,0,64)'
PUBLIC	??_R0?AVioWeaponItem@@@8			; ioWeaponItem `RTTI Type Descriptor'
PUBLIC	??_R3ioWeaponItem@@8				; ioWeaponItem::`RTTI Class Hierarchy Descriptor'
PUBLIC	??_R2ioWeaponItem@@8				; ioWeaponItem::`RTTI Base Class Array'
PUBLIC	??_R1A@?0A@EA@ioAttackableItem@@8		; ioAttackableItem::`RTTI Base Class Descriptor at (0,-1,0,64)'
PUBLIC	??_R0?AVioAttackableItem@@@8			; ioAttackableItem `RTTI Type Descriptor'
PUBLIC	??_R3ioAttackableItem@@8			; ioAttackableItem::`RTTI Class Hierarchy Descriptor'
PUBLIC	??_R2ioAttackableItem@@8			; ioAttackableItem::`RTTI Base Class Array'
PUBLIC	??_R1A@?0A@EA@ioItem@@8				; ioItem::`RTTI Base Class Descriptor at (0,-1,0,64)'
PUBLIC	??_R0?AVioItem@@@8				; ioItem `RTTI Type Descriptor'
PUBLIC	??_R3ioItem@@8					; ioItem::`RTTI Class Hierarchy Descriptor'
PUBLIC	??_R2ioItem@@8					; ioItem::`RTTI Base Class Array'
PUBLIC	?LoadProperty@ioObjectCountItem@@UAEXAAVioINILoader@@@Z ; ioObjectCountItem::LoadProperty
PUBLIC	?Clone@ioObjectCountItem@@UAEPAVioItem@@XZ	; ioObjectCountItem::Clone
PUBLIC	?IsEnableExtraGauge@ioItem@@UAE_NPAVioBaseChar@@@Z ; ioItem::IsEnableExtraGauge
PUBLIC	?GetExtraGauge@ioItem@@UAEMXZ			; ioItem::GetExtraGauge
PUBLIC	?CheckOnHand@ioAttackableItem@@UAE_NXZ		; ioAttackableItem::CheckOnHand
PUBLIC	?CheckAimState@ioAttackableItem@@UAE_N_N@Z	; ioAttackableItem::CheckAimState
PUBLIC	?SetAimState@ioAttackableItem@@UAE_NPAVioBaseChar@@@Z ; ioAttackableItem::SetAimState
PUBLIC	?CheckExtendDefenseEnable@ioAttackableItem@@UAE_NPAVioBaseChar@@@Z ; ioAttackableItem::CheckExtendDefenseEnable
PUBLIC	?IsChargeAttackState@ioAttackableItem@@UAE_NPAVioBaseChar@@@Z ; ioAttackableItem::IsChargeAttackState
PUBLIC	?IsMoveAttackState@ioAttackableItem@@UAE_NPAVioBaseChar@@@Z ; ioAttackableItem::IsMoveAttackState
PUBLIC	?IsNoGhostWalk@ioAttackableItem@@UAE_NPAVioBaseChar@@@Z ; ioAttackableItem::IsNoGhostWalk
PUBLIC	?IsEnableAttackDashCheck@ioAttackableItem@@UAE_NPAVioBaseChar@@_N@Z ; ioAttackableItem::IsEnableAttackDashCheck
PUBLIC	?IsEnableItemDashCheck@ioAttackableItem@@UAE_NPAVioBaseChar@@_N@Z ; ioAttackableItem::IsEnableItemDashCheck
PUBLIC	?IsEnableAttackRotateCheck@ioAttackableItem@@UAE_NPAVioBaseChar@@@Z ; ioAttackableItem::IsEnableAttackRotateCheck
PUBLIC	?IsEnableChargeDefenseCheck@ioAttackableItem@@UAE_NXZ ; ioAttackableItem::IsEnableChargeDefenseCheck
PUBLIC	?IsUseDefenceCounterAttackEndDash@ioAttackableItem@@UAE_NXZ ; ioAttackableItem::IsUseDefenceCounterAttackEndDash
PUBLIC	?ProcessCancel@ioObjectCountItem@@MAE_NPAVioBaseChar@@@Z ; ioObjectCountItem::ProcessCancel
PUBLIC	?IsAutoTarget@ioAttackableItem@@UBE_NXZ		; ioAttackableItem::IsAutoTarget
PUBLIC	?IsWoundAfterUseExtendState@ioAttackableItem@@UAE_NXZ ; ioAttackableItem::IsWoundAfterUseExtendState
PUBLIC	?CheckWoundAfterUseExtendState@ioAttackableItem@@UAE_NPAVioBaseChar@@W4BlowTargetType@@@Z ; ioAttackableItem::CheckWoundAfterUseExtendState
PUBLIC	?IsCharSkipState@ioAttackableItem@@UAE_NPBVioBaseChar@@@Z ; ioAttackableItem::IsCharSkipState
PUBLIC	?OnProcessState@ioObjectItem@@UAEXPAVioPlayStage@@PAVioBaseChar@@@Z ; ioObjectItem::OnProcessState
PUBLIC	?SetObjectReleaseTCPSend@ioObjectItem@@UAEX_N@Z	; ioObjectItem::SetObjectReleaseTCPSend
PUBLIC	?IsObjectReleaseTCPSend@ioObjectItem@@UAE_NXZ	; ioObjectItem::IsObjectReleaseTCPSend
PUBLIC	?IsNormalAttackStop@ioObjectItem@@UAE_NXZ	; ioObjectItem::IsNormalAttackStop
EXTRN	??1ioObjectItem@@UAE@XZ:PROC			; ioObjectItem::~ioObjectItem
EXTRN	??0ioObjectItem@@QAE@XZ:PROC			; ioObjectItem::ioObjectItem
EXTRN	?FindFieldEntityGrp@ioItem@@MBEABVioHashString@@XZ:PROC ; ioItem::FindFieldEntityGrp
EXTRN	?GetType@ioObjectItem@@UBE?AW4ItemType@ioItem@@XZ:PROC ; ioObjectItem::GetType
EXTRN	?UseCreateIndexItem@ioItem@@UBE_NXZ:PROC	; ioItem::UseCreateIndexItem
EXTRN	?GetSetFocusColor@ioItem@@UBEKXZ:PROC		; ioItem::GetSetFocusColor
EXTRN	?Initialize@ioItem@@UAEXABVioHashString@@PAVioPlayStage@@@Z:PROC ; ioItem::Initialize
EXTRN	?InitializeBeforeEquip@ioItem@@UAEXABVioHashString@@PAVioPlayStage@@@Z:PROC ; ioItem::InitializeBeforeEquip
EXTRN	?SetExtendEquipEffect@ioItem@@UAEXPAVioBaseChar@@@Z:PROC ; ioItem::SetExtendEquipEffect
EXTRN	?ReleaseExtendEquipEffect@ioItem@@UAEXPAVioBaseChar@@@Z:PROC ; ioItem::ReleaseExtendEquipEffect
EXTRN	?AddGlowLine@ioWeaponItem@@UAEXPAVioBaseChar@@@Z:PROC ; ioWeaponItem::AddGlowLine
EXTRN	?RemoveGlowLine@ioWeaponItem@@UAEXPAVioBaseChar@@@Z:PROC ; ioWeaponItem::RemoveGlowLine
EXTRN	?GetTargetName@ioItem@@UAE?AVioHashString@@XZ:PROC ; ioItem::GetTargetName
EXTRN	?ClearTarget@ioItem@@UAEXXZ:PROC		; ioItem::ClearTarget
EXTRN	?SetItemType@ioWeaponItem@@UAEXXZ:PROC		; ioWeaponItem::SetItemType
EXTRN	?UpdateExtraData@ioItem@@UAEXPAVioBaseChar@@@Z:PROC ; ioItem::UpdateExtraData
EXTRN	?CheckWeaponDefenseState@ioItem@@UAEXPAVioBaseChar@@@Z:PROC ; ioItem::CheckWeaponDefenseState
EXTRN	?CheckWoundedState@ioItem@@UAEXPAVioBaseChar@@@Z:PROC ; ioItem::CheckWoundedState
EXTRN	?SetVisible@ioItem@@UAEXPAVioBaseChar@@_N@Z:PROC ; ioItem::SetVisible
EXTRN	?UpdateSkillGauge@ioItem@@UAEXPAVioBaseChar@@M_N@Z:PROC ; ioItem::UpdateSkillGauge
EXTRN	?ReduceNeedGauge@ioItem@@UAEXMPAVioBaseChar@@@Z:PROC ; ioItem::ReduceNeedGauge
EXTRN	?GetCurBullet@ioItem@@UAEHXZ:PROC		; ioItem::GetCurBullet
EXTRN	?GetMaxBullet@ioItem@@UAEHXZ:PROC		; ioItem::GetMaxBullet
EXTRN	?SetCurBullet@ioItem@@UAEXH@Z:PROC		; ioItem::SetCurBullet
EXTRN	?GetCurSecoundBullet@ioItem@@UAEHXZ:PROC	; ioItem::GetCurSecoundBullet
EXTRN	?GetMaxSecoundBullet@ioItem@@UAEHXZ:PROC	; ioItem::GetMaxSecoundBullet
EXTRN	?SetCurSecoundBullet@ioItem@@UAEXH@Z:PROC	; ioItem::SetCurSecoundBullet
EXTRN	?GetGrowthInfoNum@ioObjectItem@@UBEHH@Z:PROC	; ioObjectItem::GetGrowthInfoNum
EXTRN	?GetGrowthInfoNumByType@ioObjectItem@@UBEHHAAH@Z:PROC ; ioObjectItem::GetGrowthInfoNumByType
EXTRN	?ClearCurChargeRateForSkill@ioItem@@UAEXXZ:PROC	; ioItem::ClearCurChargeRateForSkill
EXTRN	?GetChargeDamageRateForSkill@ioItem@@UAEMXZ:PROC ; ioItem::GetChargeDamageRateForSkill
EXTRN	?GetChargeForceRateForSkill@ioItem@@UAEMXZ:PROC	; ioItem::GetChargeForceRateForSkill
EXTRN	?GetChargeBlowRateForSkill@ioItem@@UAEMXZ:PROC	; ioItem::GetChargeBlowRateForSkill
EXTRN	?GetChargeRangeRateForSkill@ioItem@@UAEMXZ:PROC	; ioItem::GetChargeRangeRateForSkill
EXTRN	?GetChargeSpeedRateForSkill@ioItem@@UAEMXZ:PROC	; ioItem::GetChargeSpeedRateForSkill
EXTRN	?GetChargeFloatRateForSkill@ioItem@@UAEMXZ:PROC	; ioItem::GetChargeFloatRateForSkill
EXTRN	?GetChargeScaleRateForSkill@ioItem@@UAEMXZ:PROC	; ioItem::GetChargeScaleRateForSkill
EXTRN	?GetChargeExplosionRateForSkill@ioItem@@UAEMXZ:PROC ; ioItem::GetChargeExplosionRateForSkill
EXTRN	?GetChargeWoundedTimeRateForSkill@ioItem@@UAEMXZ:PROC ; ioItem::GetChargeWoundedTimeRateForSkill
EXTRN	?SetCurEquipEffect@ioItem@@UAEX_N@Z:PROC	; ioItem::SetCurEquipEffect
EXTRN	?SetCostume@ioItem@@UAEXH_N@Z:PROC		; ioItem::SetCostume
EXTRN	??_EioObjectCountItem@@UAEPAXI@Z:PROC		; ioObjectCountItem::`vector deleting destructor'
EXTRN	?IsCanFire@ioAttackableItem@@UBE_NPBVioBaseChar@@H_N@Z:PROC ; ioAttackableItem::IsCanFire
EXTRN	?CallItemProcess@ioAttackableItem@@UAEXPAVioBaseChar@@@Z:PROC ; ioAttackableItem::CallItemProcess
EXTRN	?CheckChargeInfo@ioAttackableItem@@UAEXPAVioWeapon@@_N@Z:PROC ; ioAttackableItem::CheckChargeInfo
EXTRN	?SetExtendDefenseState@ioAttackableItem@@UAE_NPAVioBaseChar@@@Z:PROC ; ioAttackableItem::SetExtendDefenseState
EXTRN	?CheckExtendDefenseState@ioAttackableItem@@UAEXPAVioBaseChar@@@Z:PROC ; ioAttackableItem::CheckExtendDefenseState
EXTRN	?CheckDefenseMoveAniState@ioAttackableItem@@UAEXPAVioBaseChar@@@Z:PROC ; ioAttackableItem::CheckDefenseMoveAniState
EXTRN	?SetDodgeDefenseState@ioAttackableItem@@UAE_NPAVioBaseChar@@@Z:PROC ; ioAttackableItem::SetDodgeDefenseState
EXTRN	?CheckDodgeDefenseState@ioAttackableItem@@UAEXPAVioBaseChar@@@Z:PROC ; ioAttackableItem::CheckDodgeDefenseState
EXTRN	?ApplyDodgeDefenseState@ioAttackableItem@@UAEXPAVioBaseChar@@AAVSP2Packet@@@Z:PROC ; ioAttackableItem::ApplyDodgeDefenseState
EXTRN	?SetDefenseAttackState@ioAttackableItem@@UAE_NPAVioBaseChar@@@Z:PROC ; ioAttackableItem::SetDefenseAttackState
EXTRN	?CheckDefenseAttackState@ioAttackableItem@@UAEXPAVioBaseChar@@@Z:PROC ; ioAttackableItem::CheckDefenseAttackState
EXTRN	?ApplyDefenseAttackState@ioAttackableItem@@UAEXPAVioBaseChar@@AAVSP2Packet@@@Z:PROC ; ioAttackableItem::ApplyDefenseAttackState
EXTRN	?SetExtendDashState@ioAttackableItem@@UAE_NPAVioBaseChar@@@Z:PROC ; ioAttackableItem::SetExtendDashState
EXTRN	?CheckExtendDashState@ioAttackableItem@@UAEXPAVioBaseChar@@@Z:PROC ; ioAttackableItem::CheckExtendDashState
EXTRN	?CheckJumpAttack@ioAttackableItem@@UAEXPAVioBaseChar@@@Z:PROC ; ioAttackableItem::CheckJumpAttack
EXTRN	?SetJumpReloadState@ioAttackableItem@@UAE_NPAVioBaseChar@@@Z:PROC ; ioAttackableItem::SetJumpReloadState
EXTRN	?SetJumpReload@ioAttackableItem@@UAE_NPAVioBaseChar@@@Z:PROC ; ioAttackableItem::SetJumpReload
EXTRN	?CheckJumpReloadState@ioAttackableItem@@UAEXPAVioBaseChar@@@Z:PROC ; ioAttackableItem::CheckJumpReloadState
EXTRN	?CheckJumpReloadReserve@ioAttackableItem@@UAEXPAVioBaseChar@@@Z:PROC ; ioAttackableItem::CheckJumpReloadReserve
EXTRN	?ProcessJumpReloadState@ioAttackableItem@@UAEXPAVioBaseChar@@@Z:PROC ; ioAttackableItem::ProcessJumpReloadState
EXTRN	?ApplyJumpReload@ioAttackableItem@@UAEXPAVioBaseChar@@AAVSP2Packet@@@Z:PROC ; ioAttackableItem::ApplyJumpReload
EXTRN	?OnItemGaugeCancel@ioAttackableItem@@UAEXPAVioBaseChar@@AAVSP2Packet@@@Z:PROC ; ioAttackableItem::OnItemGaugeCancel
EXTRN	?OnEndExtendDefense@ioAttackableItem@@UAEXPAVioBaseChar@@@Z:PROC ; ioAttackableItem::OnEndExtendDefense
EXTRN	?OnEndNormalAttack@ioAttackableItem@@UAEXPAVioBaseChar@@@Z:PROC ; ioAttackableItem::OnEndNormalAttack
EXTRN	?OnEndExtendAttack@ioAttackableItem@@UAEXPAVioBaseChar@@_N@Z:PROC ; ioAttackableItem::OnEndExtendAttack
EXTRN	?OnEndExtendJump@ioAttackableItem@@UAEXPAVioBaseChar@@@Z:PROC ; ioAttackableItem::OnEndExtendJump
EXTRN	?FillNormalAttackExtraInfo@ioAttackableItem@@UAEXAAVSP2Packet@@@Z:PROC ; ioAttackableItem::FillNormalAttackExtraInfo
EXTRN	?ApplyNormalAttackExtraInfo@ioAttackableItem@@UAEXAAVSP2Packet@@@Z:PROC ; ioAttackableItem::ApplyNormalAttackExtraInfo
EXTRN	?CheckLanding@ioAttackableItem@@UAE_NPAVioBaseChar@@@Z:PROC ; ioAttackableItem::CheckLanding
EXTRN	?SetNoneState@ioAttackableItem@@UAEXPAVioBaseChar@@H@Z:PROC ; ioAttackableItem::SetNoneState
EXTRN	?IsCanUpdateGauge@ioAttackableItem@@UAE_NPAVioBaseChar@@@Z:PROC ; ioAttackableItem::IsCanUpdateGauge
EXTRN	?CheckAimJumpState@ioAttackableItem@@UAEXPAVioBaseChar@@@Z:PROC ; ioAttackableItem::CheckAimJumpState
EXTRN	?GetJumppingAnimation@ioAttackableItem@@UBEABVioHashString@@XZ:PROC ; ioAttackableItem::GetJumppingAnimation
EXTRN	?GetExtendJumppingAnimation@ioAttackableItem@@UBEABVioHashString@@XZ:PROC ; ioAttackableItem::GetExtendJumppingAnimation
EXTRN	?CheckRetreatState@ioAttackableItem@@UAEXPAVioBaseChar@@@Z:PROC ; ioAttackableItem::CheckRetreatState
EXTRN	?SetNextItemState@ioAttackableItem@@UAEXPAVioBaseChar@@0PAVioWeapon@@_NM@Z:PROC ; ioAttackableItem::SetNextItemState
EXTRN	?WeaponWounded@ioWeaponItem@@UAEXPAVioWeapon@@PAVioBaseChar@@@Z:PROC ; ioWeaponItem::WeaponWounded
EXTRN	?WeaponMapColDead@ioAttackableItem@@UAEXPAVioWeapon@@@Z:PROC ; ioAttackableItem::WeaponMapColDead
EXTRN	?SetDefenceCounterState@ioAttackableItem@@UAEXPAVioBaseChar@@@Z:PROC ; ioAttackableItem::SetDefenceCounterState
EXTRN	?IsUseDefenceCounterAttack@ioAttackableItem@@UAE_NXZ:PROC ; ioAttackableItem::IsUseDefenceCounterAttack
EXTRN	?ProcessDefenceCounterAttack@ioAttackableItem@@UAEXPAVioBaseChar@@@Z:PROC ; ioAttackableItem::ProcessDefenceCounterAttack
EXTRN	?ProcessExtraJump@ioAttackableItem@@UAEXPAVioBaseChar@@@Z:PROC ; ioAttackableItem::ProcessExtraJump
EXTRN	?SetEndGrappling@ioAttackableItem@@UAEXPAVioBaseChar@@@Z:PROC ; ioAttackableItem::SetEndGrappling
EXTRN	?ClearKeyReserve@ioAttackableItem@@MAEXXZ:PROC	; ioAttackableItem::ClearKeyReserve
EXTRN	?ProcessReserveKeyInput@ioAttackableItem@@MAEXPAVioBaseChar@@@Z:PROC ; ioAttackableItem::ProcessReserveKeyInput
EXTRN	?SetJumpState@ioAttackableItem@@UAEXXZ:PROC	; ioAttackableItem::SetJumpState
EXTRN	?SetJumpping@ioAttackableItem@@UAEXPAVioBaseChar@@_N@Z:PROC ; ioAttackableItem::SetJumpping
EXTRN	?ProcessJumpping@ioAttackableItem@@UAEXPAVioBaseChar@@M@Z:PROC ; ioAttackableItem::ProcessJumpping
EXTRN	?ProcessJumppingByNoNeedProcess@ioAttackableItem@@UAEXPAVioBaseChar@@M@Z:PROC ; ioAttackableItem::ProcessJumppingByNoNeedProcess
EXTRN	?ProcessLanding@ioAttackableItem@@UAEXPAVioBaseChar@@@Z:PROC ; ioAttackableItem::ProcessLanding
EXTRN	?ProcessAimJump@ioAttackableItem@@UAE_NPAVioBaseChar@@M@Z:PROC ; ioAttackableItem::ProcessAimJump
EXTRN	?ApplyJump@ioAttackableItem@@UAEXPAVioBaseChar@@AAVSP2Packet@@@Z:PROC ; ioAttackableItem::ApplyJump
EXTRN	?ApplyDash@ioAttackableItem@@UAEXPAVioBaseChar@@AAVSP2Packet@@@Z:PROC ; ioAttackableItem::ApplyDash
EXTRN	?ApplyCounterAttack@ioAttackableItem@@UAEXPAVioBaseChar@@AAVSP2Packet@@@Z:PROC ; ioAttackableItem::ApplyCounterAttack
EXTRN	?CheckComboJumpAttack@ioAttackableItem@@UAEXPAVioBaseChar@@@Z:PROC ; ioAttackableItem::CheckComboJumpAttack
EXTRN	?SetFlashJumpAttack@ioAttackableItem@@UAE_NPAVioBaseChar@@@Z:PROC ; ioAttackableItem::SetFlashJumpAttack
EXTRN	?SetComboFlashAttack@ioAttackableItem@@UAE_NPAVioBaseChar@@@Z:PROC ; ioAttackableItem::SetComboFlashAttack
EXTRN	?SetCollectJumpAttack@ioAttackableItem@@UAE_NPAVioBaseChar@@@Z:PROC ; ioAttackableItem::SetCollectJumpAttack
EXTRN	?SetPowerChargeJumpAttack@ioAttackableItem@@UAE_NPAVioBaseChar@@@Z:PROC ; ioAttackableItem::SetPowerChargeJumpAttack
EXTRN	?GetAttackSpeedRate@ioAttackableItem@@UBEMXZ:PROC ; ioAttackableItem::GetAttackSpeedRate
EXTRN	?GetExtraJumpSpeedRate@ioAttackableItem@@UBEMABUD3DXVECTOR3@@ABUD3DXQUATERNION@@@Z:PROC ; ioAttackableItem::GetExtraJumpSpeedRate
EXTRN	?IsEnableExtendJump@ioAttackableItem@@UAE_NXZ:PROC ; ioAttackableItem::IsEnableExtendJump
EXTRN	?RecevieExtendJumpUse@ioAttackableItem@@UAEXPAVioBaseChar@@@Z:PROC ; ioAttackableItem::RecevieExtendJumpUse
EXTRN	?HasAniFile@ioAttackableItem@@UBE_NW4AttackType@@H@Z:PROC ; ioAttackableItem::HasAniFile
EXTRN	?HasEndAniFile@ioAttackableItem@@UBE_NW4AttackType@@H@Z:PROC ; ioAttackableItem::HasEndAniFile
EXTRN	?GetAttackAttribute@ioAttackableItem@@UBEPBUAttackAttribute@@W4AttackType@@H@Z:PROC ; ioAttackableItem::GetAttackAttribute
EXTRN	?GetAniFile@ioAttackableItem@@UBEABVioHashString@@W4AttackType@@H@Z:PROC ; ioAttackableItem::GetAniFile
EXTRN	?GetAttackAniRate@ioAttackableItem@@UBEMW4AttackType@@H@Z:PROC ; ioAttackableItem::GetAttackAniRate
EXTRN	?GetEndAniFile@ioAttackableItem@@UBEABVioHashString@@W4AttackType@@H@Z:PROC ; ioAttackableItem::GetEndAniFile
EXTRN	?GetAttackEndAniRate@ioAttackableItem@@UBEMW4AttackType@@H@Z:PROC ; ioAttackableItem::GetAttackEndAniRate
EXTRN	?GetAttackAttributeIdx@ioAttackableItem@@UBEABV?$vector@UWeaponInfo@@V?$allocator@UWeaponInfo@@@std@@@std@@W4AttackType@@H@Z:PROC ; ioAttackableItem::GetAttackAttributeIdx
EXTRN	?GetForceInfoList@ioAttackableItem@@UBEABV?$vector@UForceInfo@@V?$allocator@UForceInfo@@@std@@@std@@W4AttackType@@H@Z:PROC ; ioAttackableItem::GetForceInfoList
EXTRN	?GetAttackPreDelay@ioAttackableItem@@UBEKW4AttackType@@H@Z:PROC ; ioAttackableItem::GetAttackPreDelay
EXTRN	?GetAttackAnimationDelay@ioAttackableItem@@UBEKW4AttackType@@H@Z:PROC ; ioAttackableItem::GetAttackAnimationDelay
EXTRN	?GetMaxCombo@ioAttackableItem@@UBEHXZ:PROC	; ioAttackableItem::GetMaxCombo
EXTRN	?GetExtraDashAttackMax@ioAttackableItem@@UBEHXZ:PROC ; ioAttackableItem::GetExtraDashAttackMax
EXTRN	?HasJumpEndAnimation@ioAttackableItem@@UBE_N_NPAVioBaseChar@@@Z:PROC ; ioAttackableItem::HasJumpEndAnimation
EXTRN	?GetJumpEndAnimation@ioAttackableItem@@UBEABVioHashString@@_NPAVioBaseChar@@@Z:PROC ; ioAttackableItem::GetJumpEndAnimation
EXTRN	?ClearCancelInfo@ioAttackableItem@@MAEXXZ:PROC	; ioAttackableItem::ClearCancelInfo
EXTRN	?CheckCancelReserve@ioAttackableItem@@MAEXPAVioBaseChar@@@Z:PROC ; ioAttackableItem::CheckCancelReserve
EXTRN	?SetCurAttackAniForInputJump@ioAttackableItem@@MAEXABVioHashString@@M@Z:PROC ; ioAttackableItem::SetCurAttackAniForInputJump
EXTRN	?ProcessCancelBySpeicalDash@ioAttackableItem@@MAE_NPAVioBaseChar@@@Z:PROC ; ioAttackableItem::ProcessCancelBySpeicalDash
EXTRN	?SetCurAttackAniForInputDashS@ioAttackableItem@@UAEXABVioHashString@@M@Z:PROC ; ioAttackableItem::SetCurAttackAniForInputDashS
EXTRN	?CheckCancelReserveByConditionalSpecialDash@ioAttackableItem@@UAEXPAVioBaseChar@@@Z:PROC ; ioAttackableItem::CheckCancelReserveByConditionalSpecialDash
EXTRN	?IsConditionalSpecialDashReserve@ioAttackableItem@@UAE_NPAVioBaseChar@@@Z:PROC ; ioAttackableItem::IsConditionalSpecialDashReserve
EXTRN	?SetChangeConditionalSpecialDash@ioAttackableItem@@UAEXPAVioBaseChar@@W4DirKeyInput@ioUserKeyInput@@H@Z:PROC ; ioAttackableItem::SetChangeConditionalSpecialDash
EXTRN	?CheckChangeWereWolfState@ioAttackableItem@@UAE_NPAVioBaseChar@@@Z:PROC ; ioAttackableItem::CheckChangeWereWolfState
EXTRN	?SetChangeWereWolfState@ioAttackableItem@@UAEXPAVioBaseChar@@@Z:PROC ; ioAttackableItem::SetChangeWereWolfState
EXTRN	?CheckReleaseWereWolfState@ioAttackableItem@@UAE_NPAVioBaseChar@@@Z:PROC ; ioAttackableItem::CheckReleaseWereWolfState
EXTRN	?ReleseWereWolfState@ioAttackableItem@@UAEXPAVioBaseChar@@@Z:PROC ; ioAttackableItem::ReleseWereWolfState
EXTRN	?ReleseWereWolfStateByOwner@ioAttackableItem@@UAEXPAVioBaseChar@@@Z:PROC ; ioAttackableItem::ReleseWereWolfStateByOwner
EXTRN	?IncreaseChangeDamage@ioAttackableItem@@UAEXMH_N@Z:PROC ; ioAttackableItem::IncreaseChangeDamage
EXTRN	?IncreaseChangeDamageByWeapon@ioAttackableItem@@UAEXM@Z:PROC ; ioAttackableItem::IncreaseChangeDamageByWeapon
EXTRN	?CheckIncreaseChangeDamage@ioAttackableItem@@UAEXPAVioBaseChar@@@Z:PROC ; ioAttackableItem::CheckIncreaseChangeDamage
EXTRN	?DecreaseChangeDamage@ioAttackableItem@@UAEXPAVioBaseChar@@@Z:PROC ; ioAttackableItem::DecreaseChangeDamage
EXTRN	?IsEnableActionStopDelay@ioAttackableItem@@UAE_NXZ:PROC ; ioAttackableItem::IsEnableActionStopDelay
EXTRN	?SetExtraGaugeTypeByWeapon@ioAttackableItem@@UAEXPAVioBaseChar@@HHM@Z:PROC ; ioAttackableItem::SetExtraGaugeTypeByWeapon
EXTRN	?SetUseExtraGauge@ioAttackableItem@@UAEXM@Z:PROC ; ioAttackableItem::SetUseExtraGauge
EXTRN	?InitExtraGauge@ioAttackableItem@@UAEXXZ:PROC	; ioAttackableItem::InitExtraGauge
EXTRN	?MaxExtraGauge@ioAttackableItem@@UAEXXZ:PROC	; ioAttackableItem::MaxExtraGauge
EXTRN	?GetMaxExtraGauge@ioAttackableItem@@UAEMXZ:PROC	; ioAttackableItem::GetMaxExtraGauge
EXTRN	?GetCurExtraGauge@ioAttackableItem@@UAEMXZ:PROC	; ioAttackableItem::GetCurExtraGauge
EXTRN	?SetCurExtraGauge@ioAttackableItem@@UAEXM@Z:PROC ; ioAttackableItem::SetCurExtraGauge
EXTRN	?GetAutoTargetValue@ioAttackableItem@@UAEXPAVioBaseChar@@AAM11W4AutoTargetType@@@Z:PROC ; ioAttackableItem::GetAutoTargetValue
EXTRN	?ClearAirJump@ioAttackableItem@@UAEXXZ:PROC	; ioAttackableItem::ClearAirJump
EXTRN	?SetAirJump@ioAttackableItem@@UAEXPAVioBaseChar@@HM@Z:PROC ; ioAttackableItem::SetAirJump
EXTRN	?CheckAirJump@ioAttackableItem@@UAEXPAVioBaseChar@@@Z:PROC ; ioAttackableItem::CheckAirJump
EXTRN	?EquipObjectItemByAttakable@ioAttackableItem@@UAEXPAVioBaseChar@@PAVioItem@@@Z:PROC ; ioAttackableItem::EquipObjectItemByAttakable
EXTRN	?ReleaseObjectItemByAttack@ioAttackableItem@@UAEXPAVioBaseChar@@PAVioItem@@@Z:PROC ; ioAttackableItem::ReleaseObjectItemByAttack
EXTRN	?IsBuffFlyChange@ioAttackableItem@@UAE_NPAVioBaseChar@@@Z:PROC ; ioAttackableItem::IsBuffFlyChange
EXTRN	?GetAttackStateText@ioAttackableItem@@UBEPBDXZ:PROC ; ioAttackableItem::GetAttackStateText
EXTRN	?SetJumpLandingExtraState@ioAttackableItem@@UAE_NPAVioBaseChar@@@Z:PROC ; ioAttackableItem::SetJumpLandingExtraState
EXTRN	?ReleaseObjectState@ioWeaponItem@@UAEXPAVioBaseChar@@PAVioObjectItem@@@Z:PROC ; ioWeaponItem::ReleaseObjectState
EXTRN	?IsCmdCheckEnableTime@ioWeaponItem@@UAE_NXZ:PROC ; ioWeaponItem::IsCmdCheckEnableTime
EXTRN	?IsCmdSuccess@ioWeaponItem@@UAE_NXZ:PROC	; ioWeaponItem::IsCmdSuccess
EXTRN	?GetEquipMesh@ioObjectItem@@UBEABVioHashString@@PAVioBaseChar@@@Z:PROC ; ioObjectItem::GetEquipMesh
EXTRN	?IsCanSendControl@ioWeaponItem@@UBE_NXZ:PROC	; ioWeaponItem::IsCanSendControl
EXTRN	?GetSubType@ioObjectItem@@UBE?AW4WeaponSubType@ioWeaponItem@@XZ:PROC ; ioObjectItem::GetSubType
EXTRN	?EnableReduceGaugeOnSwitchBuff@ioObjectItem@@UAE_NXZ:PROC ; ioObjectItem::EnableReduceGaugeOnSwitchBuff
EXTRN	?CheckAttackCount@ioObjectItem@@UAEXPAVioBaseChar@@@Z:PROC ; ioObjectItem::CheckAttackCount
EXTRN	?CheckReleaseProcess@ioObjectItem@@UAE_NPAVioPlayStage@@PAVioBaseChar@@@Z:PROC ; ioObjectItem::CheckReleaseProcess
EXTRN	?CheckReleaseByNormalAttack@ioObjectItem@@UAE_NPAVioPlayStage@@PAVioBaseChar@@@Z:PROC ; ioObjectItem::CheckReleaseByNormalAttack
EXTRN	?CheckObjectReleaseSelectionBuff@ioObjectItem@@UAE_NPAVioBaseChar@@@Z:PROC ; ioObjectItem::CheckObjectReleaseSelectionBuff
;	COMDAT ??_R2ioItem@@8
; File c:\program files (x86)\microsoft visual studio 10.0\vc\include\xmemory
rdata$r	SEGMENT
??_R2ioItem@@8 DD FLAT:??_R1A@?0A@EA@ioItem@@8		; ioItem::`RTTI Base Class Array'
rdata$r	ENDS
;	COMDAT ??_R3ioItem@@8
rdata$r	SEGMENT
??_R3ioItem@@8 DD 00H					; ioItem::`RTTI Class Hierarchy Descriptor'
	DD	00H
	DD	01H
	DD	FLAT:??_R2ioItem@@8
rdata$r	ENDS
;	COMDAT ??_R0?AVioItem@@@8
_DATA	SEGMENT
??_R0?AVioItem@@@8 DD FLAT:??_7type_info@@6B@		; ioItem `RTTI Type Descriptor'
	DD	00H
	DB	'.?AVioItem@@', 00H
_DATA	ENDS
;	COMDAT ??_R1A@?0A@EA@ioItem@@8
rdata$r	SEGMENT
??_R1A@?0A@EA@ioItem@@8 DD FLAT:??_R0?AVioItem@@@8	; ioItem::`RTTI Base Class Descriptor at (0,-1,0,64)'
	DD	00H
	DD	00H
	DD	0ffffffffH
	DD	00H
	DD	040H
	DD	FLAT:??_R3ioItem@@8
rdata$r	ENDS
;	COMDAT ??_R2ioAttackableItem@@8
rdata$r	SEGMENT
??_R2ioAttackableItem@@8 DD FLAT:??_R1A@?0A@EA@ioAttackableItem@@8 ; ioAttackableItem::`RTTI Base Class Array'
	DD	FLAT:??_R1A@?0A@EA@ioItem@@8
rdata$r	ENDS
;	COMDAT ??_R3ioAttackableItem@@8
rdata$r	SEGMENT
??_R3ioAttackableItem@@8 DD 00H				; ioAttackableItem::`RTTI Class Hierarchy Descriptor'
	DD	00H
	DD	02H
	DD	FLAT:??_R2ioAttackableItem@@8
rdata$r	ENDS
;	COMDAT ??_R0?AVioAttackableItem@@@8
_DATA	SEGMENT
??_R0?AVioAttackableItem@@@8 DD FLAT:??_7type_info@@6B@	; ioAttackableItem `RTTI Type Descriptor'
	DD	00H
	DB	'.?AVioAttackableItem@@', 00H
_DATA	ENDS
;	COMDAT ??_R1A@?0A@EA@ioAttackableItem@@8
rdata$r	SEGMENT
??_R1A@?0A@EA@ioAttackableItem@@8 DD FLAT:??_R0?AVioAttackableItem@@@8 ; ioAttackableItem::`RTTI Base Class Descriptor at (0,-1,0,64)'
	DD	01H
	DD	00H
	DD	0ffffffffH
	DD	00H
	DD	040H
	DD	FLAT:??_R3ioAttackableItem@@8
rdata$r	ENDS
;	COMDAT ??_R2ioWeaponItem@@8
rdata$r	SEGMENT
??_R2ioWeaponItem@@8 DD FLAT:??_R1A@?0A@EA@ioWeaponItem@@8 ; ioWeaponItem::`RTTI Base Class Array'
	DD	FLAT:??_R1A@?0A@EA@ioAttackableItem@@8
	DD	FLAT:??_R1A@?0A@EA@ioItem@@8
rdata$r	ENDS
;	COMDAT ??_R3ioWeaponItem@@8
rdata$r	SEGMENT
??_R3ioWeaponItem@@8 DD 00H				; ioWeaponItem::`RTTI Class Hierarchy Descriptor'
	DD	00H
	DD	03H
	DD	FLAT:??_R2ioWeaponItem@@8
rdata$r	ENDS
;	COMDAT ??_R0?AVioWeaponItem@@@8
_DATA	SEGMENT
??_R0?AVioWeaponItem@@@8 DD FLAT:??_7type_info@@6B@	; ioWeaponItem `RTTI Type Descriptor'
	DD	00H
	DB	'.?AVioWeaponItem@@', 00H
_DATA	ENDS
;	COMDAT ??_R1A@?0A@EA@ioWeaponItem@@8
rdata$r	SEGMENT
??_R1A@?0A@EA@ioWeaponItem@@8 DD FLAT:??_R0?AVioWeaponItem@@@8 ; ioWeaponItem::`RTTI Base Class Descriptor at (0,-1,0,64)'
	DD	02H
	DD	00H
	DD	0ffffffffH
	DD	00H
	DD	040H
	DD	FLAT:??_R3ioWeaponItem@@8
rdata$r	ENDS
;	COMDAT ??_R2ioObjectItem@@8
rdata$r	SEGMENT
??_R2ioObjectItem@@8 DD FLAT:??_R1A@?0A@EA@ioObjectItem@@8 ; ioObjectItem::`RTTI Base Class Array'
	DD	FLAT:??_R1A@?0A@EA@ioWeaponItem@@8
	DD	FLAT:??_R1A@?0A@EA@ioAttackableItem@@8
	DD	FLAT:??_R1A@?0A@EA@ioItem@@8
rdata$r	ENDS
;	COMDAT ??_R3ioObjectItem@@8
rdata$r	SEGMENT
??_R3ioObjectItem@@8 DD 00H				; ioObjectItem::`RTTI Class Hierarchy Descriptor'
	DD	00H
	DD	04H
	DD	FLAT:??_R2ioObjectItem@@8
rdata$r	ENDS
;	COMDAT ??_R0?AVioObjectItem@@@8
_DATA	SEGMENT
??_R0?AVioObjectItem@@@8 DD FLAT:??_7type_info@@6B@	; ioObjectItem `RTTI Type Descriptor'
	DD	00H
	DB	'.?AVioObjectItem@@', 00H
_DATA	ENDS
;	COMDAT ??_R1A@?0A@EA@ioObjectItem@@8
rdata$r	SEGMENT
??_R1A@?0A@EA@ioObjectItem@@8 DD FLAT:??_R0?AVioObjectItem@@@8 ; ioObjectItem::`RTTI Base Class Descriptor at (0,-1,0,64)'
	DD	03H
	DD	00H
	DD	0ffffffffH
	DD	00H
	DD	040H
	DD	FLAT:??_R3ioObjectItem@@8
rdata$r	ENDS
;	COMDAT ??_R1A@?0A@EA@ioObjectCountItem@@8
rdata$r	SEGMENT
??_R1A@?0A@EA@ioObjectCountItem@@8 DD FLAT:??_R0?AVioObjectCountItem@@@8 ; ioObjectCountItem::`RTTI Base Class Descriptor at (0,-1,0,64)'
	DD	04H
	DD	00H
	DD	0ffffffffH
	DD	00H
	DD	040H
	DD	FLAT:??_R3ioObjectCountItem@@8
rdata$r	ENDS
;	COMDAT ??_R2ioObjectCountItem@@8
rdata$r	SEGMENT
??_R2ioObjectCountItem@@8 DD FLAT:??_R1A@?0A@EA@ioObjectCountItem@@8 ; ioObjectCountItem::`RTTI Base Class Array'
	DD	FLAT:??_R1A@?0A@EA@ioObjectItem@@8
	DD	FLAT:??_R1A@?0A@EA@ioWeaponItem@@8
	DD	FLAT:??_R1A@?0A@EA@ioAttackableItem@@8
	DD	FLAT:??_R1A@?0A@EA@ioItem@@8
rdata$r	ENDS
;	COMDAT ??_R3ioObjectCountItem@@8
rdata$r	SEGMENT
??_R3ioObjectCountItem@@8 DD 00H			; ioObjectCountItem::`RTTI Class Hierarchy Descriptor'
	DD	00H
	DD	05H
	DD	FLAT:??_R2ioObjectCountItem@@8
rdata$r	ENDS
;	COMDAT ??_R0?AVioObjectCountItem@@@8
_DATA	SEGMENT
??_R0?AVioObjectCountItem@@@8 DD FLAT:??_7type_info@@6B@ ; ioObjectCountItem `RTTI Type Descriptor'
	DD	00H
	DB	'.?AVioObjectCountItem@@', 00H
_DATA	ENDS
;	COMDAT ??_R4ioObjectCountItem@@6B@
rdata$r	SEGMENT
??_R4ioObjectCountItem@@6B@ DD 00H			; ioObjectCountItem::`RTTI Complete Object Locator'
	DD	00H
	DD	00H
	DD	FLAT:??_R0?AVioObjectCountItem@@@8
	DD	FLAT:??_R3ioObjectCountItem@@8
rdata$r	ENDS
;	COMDAT ??_7ioObjectCountItem@@6B@
CONST	SEGMENT
??_7ioObjectCountItem@@6B@ DD FLAT:??_R4ioObjectCountItem@@6B@ ; ioObjectCountItem::`vftable'
	DD	FLAT:?FindFieldEntityGrp@ioItem@@MBEABVioHashString@@XZ
	DD	FLAT:?LoadProperty@ioObjectCountItem@@UAEXAAVioINILoader@@@Z
	DD	FLAT:?GetType@ioObjectItem@@UBE?AW4ItemType@ioItem@@XZ
	DD	FLAT:?Clone@ioObjectCountItem@@UAEPAVioItem@@XZ
	DD	FLAT:?UseCreateIndexItem@ioItem@@UBE_NXZ
	DD	FLAT:?GetSetFocusColor@ioItem@@UBEKXZ
	DD	FLAT:?Initialize@ioItem@@UAEXABVioHashString@@PAVioPlayStage@@@Z
	DD	FLAT:?InitializeBeforeEquip@ioItem@@UAEXABVioHashString@@PAVioPlayStage@@@Z
	DD	FLAT:?OnEquiped@ioObjectCountItem@@UAEXPAVioBaseChar@@@Z
	DD	FLAT:?OnReleased@ioObjectCountItem@@UAEXPAVioBaseChar@@@Z
	DD	FLAT:?SetExtendEquipEffect@ioItem@@UAEXPAVioBaseChar@@@Z
	DD	FLAT:?ReleaseExtendEquipEffect@ioItem@@UAEXPAVioBaseChar@@@Z
	DD	FLAT:?AddGlowLine@ioWeaponItem@@UAEXPAVioBaseChar@@@Z
	DD	FLAT:?RemoveGlowLine@ioWeaponItem@@UAEXPAVioBaseChar@@@Z
	DD	FLAT:?GetTargetName@ioItem@@UAE?AVioHashString@@XZ
	DD	FLAT:?ClearTarget@ioItem@@UAEXXZ
	DD	FLAT:?SetItemType@ioWeaponItem@@UAEXXZ
	DD	FLAT:?UpdateExtraData@ioItem@@UAEXPAVioBaseChar@@@Z
	DD	FLAT:?CheckWeaponDefenseState@ioItem@@UAEXPAVioBaseChar@@@Z
	DD	FLAT:?CheckWoundedState@ioItem@@UAEXPAVioBaseChar@@@Z
	DD	FLAT:?SetVisible@ioItem@@UAEXPAVioBaseChar@@_N@Z
	DD	FLAT:?UpdateSkillGauge@ioItem@@UAEXPAVioBaseChar@@M_N@Z
	DD	FLAT:?IsEnableExtraGauge@ioItem@@UAE_NPAVioBaseChar@@@Z
	DD	FLAT:?GetExtraGauge@ioItem@@UAEMXZ
	DD	FLAT:?ReduceNeedGauge@ioItem@@UAEXMPAVioBaseChar@@@Z
	DD	FLAT:?GetCurBullet@ioItem@@UAEHXZ
	DD	FLAT:?GetMaxBullet@ioItem@@UAEHXZ
	DD	FLAT:?SetCurBullet@ioItem@@UAEXH@Z
	DD	FLAT:?GetCurSecoundBullet@ioItem@@UAEHXZ
	DD	FLAT:?GetMaxSecoundBullet@ioItem@@UAEHXZ
	DD	FLAT:?SetCurSecoundBullet@ioItem@@UAEXH@Z
	DD	FLAT:?GetGrowthInfoNum@ioObjectItem@@UBEHH@Z
	DD	FLAT:?GetGrowthInfoNumByType@ioObjectItem@@UBEHHAAH@Z
	DD	FLAT:?ClearCurChargeRateForSkill@ioItem@@UAEXXZ
	DD	FLAT:?GetChargeDamageRateForSkill@ioItem@@UAEMXZ
	DD	FLAT:?GetChargeForceRateForSkill@ioItem@@UAEMXZ
	DD	FLAT:?GetChargeBlowRateForSkill@ioItem@@UAEMXZ
	DD	FLAT:?GetChargeRangeRateForSkill@ioItem@@UAEMXZ
	DD	FLAT:?GetChargeSpeedRateForSkill@ioItem@@UAEMXZ
	DD	FLAT:?GetChargeFloatRateForSkill@ioItem@@UAEMXZ
	DD	FLAT:?GetChargeScaleRateForSkill@ioItem@@UAEMXZ
	DD	FLAT:?GetChargeExplosionRateForSkill@ioItem@@UAEMXZ
	DD	FLAT:?GetChargeWoundedTimeRateForSkill@ioItem@@UAEMXZ
	DD	FLAT:?SetCurEquipEffect@ioItem@@UAEX_N@Z
	DD	FLAT:?SetCostume@ioItem@@UAEXH_N@Z
	DD	FLAT:??_EioObjectCountItem@@UAEPAXI@Z
	DD	FLAT:?IsCanFire@ioAttackableItem@@UBE_NPBVioBaseChar@@H_N@Z
	DD	FLAT:?CallItemProcess@ioAttackableItem@@UAEXPAVioBaseChar@@@Z
	DD	FLAT:?SetExtraInfoToWeapon@ioObjectCountItem@@UAEXPAVioWeapon@@_N@Z
	DD	FLAT:?CheckChargeInfo@ioAttackableItem@@UAEXPAVioWeapon@@_N@Z
	DD	FLAT:?SetExtendDefenseState@ioAttackableItem@@UAE_NPAVioBaseChar@@@Z
	DD	FLAT:?CheckExtendDefenseState@ioAttackableItem@@UAEXPAVioBaseChar@@@Z
	DD	FLAT:?CheckDefenseMoveAniState@ioAttackableItem@@UAEXPAVioBaseChar@@@Z
	DD	FLAT:?SetDodgeDefenseState@ioAttackableItem@@UAE_NPAVioBaseChar@@@Z
	DD	FLAT:?CheckDodgeDefenseState@ioAttackableItem@@UAEXPAVioBaseChar@@@Z
	DD	FLAT:?ApplyDodgeDefenseState@ioAttackableItem@@UAEXPAVioBaseChar@@AAVSP2Packet@@@Z
	DD	FLAT:?SetDefenseAttackState@ioAttackableItem@@UAE_NPAVioBaseChar@@@Z
	DD	FLAT:?CheckDefenseAttackState@ioAttackableItem@@UAEXPAVioBaseChar@@@Z
	DD	FLAT:?ApplyDefenseAttackState@ioAttackableItem@@UAEXPAVioBaseChar@@AAVSP2Packet@@@Z
	DD	FLAT:?SetExtendDashState@ioAttackableItem@@UAE_NPAVioBaseChar@@@Z
	DD	FLAT:?CheckExtendDashState@ioAttackableItem@@UAEXPAVioBaseChar@@@Z
	DD	FLAT:?SetNormalAttack@ioObjectCountItem@@UAEXPAVioBaseChar@@H@Z
	DD	FLAT:?CheckNormalAttack@ioObjectCountItem@@UAEXPAVioBaseChar@@@Z
	DD	FLAT:?SetJumpAttack@ioObjectCountItem@@UAE_NPAVioBaseChar@@HMW4AttackType@@@Z
	DD	FLAT:?CheckJumpAttack@ioAttackableItem@@UAEXPAVioBaseChar@@@Z
	DD	FLAT:?SetJumpReloadState@ioAttackableItem@@UAE_NPAVioBaseChar@@@Z
	DD	FLAT:?SetJumpReload@ioAttackableItem@@UAE_NPAVioBaseChar@@@Z
	DD	FLAT:?CheckJumpReloadState@ioAttackableItem@@UAEXPAVioBaseChar@@@Z
	DD	FLAT:?CheckJumpReloadReserve@ioAttackableItem@@UAEXPAVioBaseChar@@@Z
	DD	FLAT:?ProcessJumpReloadState@ioAttackableItem@@UAEXPAVioBaseChar@@@Z
	DD	FLAT:?ApplyJumpReload@ioAttackableItem@@UAEXPAVioBaseChar@@AAVSP2Packet@@@Z
	DD	FLAT:?OnItemGaugeOK@ioObjectCountItem@@UAEXPAVioBaseChar@@AAVSP2Packet@@@Z
	DD	FLAT:?OnItemGaugeCancel@ioAttackableItem@@UAEXPAVioBaseChar@@AAVSP2Packet@@@Z
	DD	FLAT:?OnEndExtendDefense@ioAttackableItem@@UAEXPAVioBaseChar@@@Z
	DD	FLAT:?OnEndNormalAttack@ioAttackableItem@@UAEXPAVioBaseChar@@@Z
	DD	FLAT:?OnEndExtendAttack@ioAttackableItem@@UAEXPAVioBaseChar@@_N@Z
	DD	FLAT:?OnEndExtendJump@ioAttackableItem@@UAEXPAVioBaseChar@@@Z
	DD	FLAT:?FillNormalAttackExtraInfo@ioAttackableItem@@UAEXAAVSP2Packet@@@Z
	DD	FLAT:?ApplyNormalAttackExtraInfo@ioAttackableItem@@UAEXAAVSP2Packet@@@Z
	DD	FLAT:?CheckOnHand@ioAttackableItem@@UAE_NXZ
	DD	FLAT:?CheckAimState@ioAttackableItem@@UAE_N_N@Z
	DD	FLAT:?SetAimState@ioAttackableItem@@UAE_NPAVioBaseChar@@@Z
	DD	FLAT:?CheckLanding@ioAttackableItem@@UAE_NPAVioBaseChar@@@Z
	DD	FLAT:?SetNoneState@ioAttackableItem@@UAEXPAVioBaseChar@@H@Z
	DD	FLAT:?CheckExtendDefenseEnable@ioAttackableItem@@UAE_NPAVioBaseChar@@@Z
	DD	FLAT:?IsChargeAttackState@ioAttackableItem@@UAE_NPAVioBaseChar@@@Z
	DD	FLAT:?IsMoveAttackState@ioAttackableItem@@UAE_NPAVioBaseChar@@@Z
	DD	FLAT:?IsCanUpdateGauge@ioAttackableItem@@UAE_NPAVioBaseChar@@@Z
	DD	FLAT:?IsNoGhostWalk@ioAttackableItem@@UAE_NPAVioBaseChar@@@Z
	DD	FLAT:?IsEnableAttackDashCheck@ioAttackableItem@@UAE_NPAVioBaseChar@@_N@Z
	DD	FLAT:?IsEnableItemDashCheck@ioAttackableItem@@UAE_NPAVioBaseChar@@_N@Z
	DD	FLAT:?IsEnableAttackRotateCheck@ioAttackableItem@@UAE_NPAVioBaseChar@@@Z
	DD	FLAT:?IsEnableChargeDefenseCheck@ioAttackableItem@@UAE_NXZ
	DD	FLAT:?CheckAimJumpState@ioAttackableItem@@UAEXPAVioBaseChar@@@Z
	DD	FLAT:?GetJumppingAnimation@ioAttackableItem@@UBEABVioHashString@@XZ
	DD	FLAT:?GetExtendJumppingAnimation@ioAttackableItem@@UBEABVioHashString@@XZ
	DD	FLAT:?CheckRetreatState@ioAttackableItem@@UAEXPAVioBaseChar@@@Z
	DD	FLAT:?SetNextItemState@ioAttackableItem@@UAEXPAVioBaseChar@@0PAVioWeapon@@_NM@Z
	DD	FLAT:?WeaponWounded@ioWeaponItem@@UAEXPAVioWeapon@@PAVioBaseChar@@@Z
	DD	FLAT:?WeaponMapColDead@ioAttackableItem@@UAEXPAVioWeapon@@@Z
	DD	FLAT:?SetDefenceCounterState@ioAttackableItem@@UAEXPAVioBaseChar@@@Z
	DD	FLAT:?IsUseDefenceCounterAttack@ioAttackableItem@@UAE_NXZ
	DD	FLAT:?ProcessDefenceCounterAttack@ioAttackableItem@@UAEXPAVioBaseChar@@@Z
	DD	FLAT:?IsUseDefenceCounterAttackEndDash@ioAttackableItem@@UAE_NXZ
	DD	FLAT:?ProcessExtraJump@ioAttackableItem@@UAEXPAVioBaseChar@@@Z
	DD	FLAT:?SetEndGrappling@ioAttackableItem@@UAEXPAVioBaseChar@@@Z
	DD	FLAT:?ClearKeyReserve@ioAttackableItem@@MAEXXZ
	DD	FLAT:?CheckReserve@ioObjectCountItem@@MAEXPAVioBaseChar@@@Z
	DD	FLAT:?ProcessReserveKeyInput@ioAttackableItem@@MAEXPAVioBaseChar@@@Z
	DD	FLAT:?SetJumpState@ioAttackableItem@@UAEXXZ
	DD	FLAT:?SetJumpping@ioAttackableItem@@UAEXPAVioBaseChar@@_N@Z
	DD	FLAT:?ProcessJumpping@ioAttackableItem@@UAEXPAVioBaseChar@@M@Z
	DD	FLAT:?ProcessJumppingByNoNeedProcess@ioAttackableItem@@UAEXPAVioBaseChar@@M@Z
	DD	FLAT:?ProcessLanding@ioAttackableItem@@UAEXPAVioBaseChar@@@Z
	DD	FLAT:?ProcessJumpAttack@ioObjectCountItem@@UAEXPAVioBaseChar@@M@Z
	DD	FLAT:?ProcessAimJump@ioAttackableItem@@UAE_NPAVioBaseChar@@M@Z
	DD	FLAT:?ApplyJump@ioAttackableItem@@UAEXPAVioBaseChar@@AAVSP2Packet@@@Z
	DD	FLAT:?ApplyDash@ioAttackableItem@@UAEXPAVioBaseChar@@AAVSP2Packet@@@Z
	DD	FLAT:?ApplyCounterAttack@ioAttackableItem@@UAEXPAVioBaseChar@@AAVSP2Packet@@@Z
	DD	FLAT:?CheckComboJumpAttack@ioAttackableItem@@UAEXPAVioBaseChar@@@Z
	DD	FLAT:?SetFlashJumpAttack@ioAttackableItem@@UAE_NPAVioBaseChar@@@Z
	DD	FLAT:?SetComboFlashAttack@ioAttackableItem@@UAE_NPAVioBaseChar@@@Z
	DD	FLAT:?SetCollectJumpAttack@ioAttackableItem@@UAE_NPAVioBaseChar@@@Z
	DD	FLAT:?SetPowerChargeJumpAttack@ioAttackableItem@@UAE_NPAVioBaseChar@@@Z
	DD	FLAT:?GetAttackSpeedRate@ioAttackableItem@@UBEMXZ
	DD	FLAT:?GetExtraJumpSpeedRate@ioAttackableItem@@UBEMABUD3DXVECTOR3@@ABUD3DXQUATERNION@@@Z
	DD	FLAT:?IsEnableExtendJump@ioAttackableItem@@UAE_NXZ
	DD	FLAT:?RecevieExtendJumpUse@ioAttackableItem@@UAEXPAVioBaseChar@@@Z
	DD	FLAT:?HasAniFile@ioAttackableItem@@UBE_NW4AttackType@@H@Z
	DD	FLAT:?HasEndAniFile@ioAttackableItem@@UBE_NW4AttackType@@H@Z
	DD	FLAT:?GetAttackAttribute@ioAttackableItem@@UBEPBUAttackAttribute@@W4AttackType@@H@Z
	DD	FLAT:?GetAniFile@ioAttackableItem@@UBEABVioHashString@@W4AttackType@@H@Z
	DD	FLAT:?GetAttackAniRate@ioAttackableItem@@UBEMW4AttackType@@H@Z
	DD	FLAT:?GetEndAniFile@ioAttackableItem@@UBEABVioHashString@@W4AttackType@@H@Z
	DD	FLAT:?GetAttackEndAniRate@ioAttackableItem@@UBEMW4AttackType@@H@Z
	DD	FLAT:?GetAttackAttributeIdx@ioAttackableItem@@UBEABV?$vector@UWeaponInfo@@V?$allocator@UWeaponInfo@@@std@@@std@@W4AttackType@@H@Z
	DD	FLAT:?GetForceInfoList@ioAttackableItem@@UBEABV?$vector@UForceInfo@@V?$allocator@UForceInfo@@@std@@@std@@W4AttackType@@H@Z
	DD	FLAT:?GetAttackPreDelay@ioAttackableItem@@UBEKW4AttackType@@H@Z
	DD	FLAT:?GetAttackAnimationDelay@ioAttackableItem@@UBEKW4AttackType@@H@Z
	DD	FLAT:?GetMaxCombo@ioAttackableItem@@UBEHXZ
	DD	FLAT:?GetExtraDashAttackMax@ioAttackableItem@@UBEHXZ
	DD	FLAT:?HasJumpEndAnimation@ioAttackableItem@@UBE_N_NPAVioBaseChar@@@Z
	DD	FLAT:?GetJumpEndAnimation@ioAttackableItem@@UBEABVioHashString@@_NPAVioBaseChar@@@Z
	DD	FLAT:?ClearCancelInfo@ioAttackableItem@@MAEXXZ
	DD	FLAT:?CheckCancelReserve@ioAttackableItem@@MAEXPAVioBaseChar@@@Z
	DD	FLAT:?SetCurAttackAniForInputJump@ioAttackableItem@@MAEXABVioHashString@@M@Z
	DD	FLAT:?ProcessCancel@ioObjectCountItem@@MAE_NPAVioBaseChar@@@Z
	DD	FLAT:?ProcessCancelBySpeicalDash@ioAttackableItem@@MAE_NPAVioBaseChar@@@Z
	DD	FLAT:?SetCurAttackAniForInputDashS@ioAttackableItem@@UAEXABVioHashString@@M@Z
	DD	FLAT:?CheckCancelReserveByConditionalSpecialDash@ioAttackableItem@@UAEXPAVioBaseChar@@@Z
	DD	FLAT:?IsConditionalSpecialDashReserve@ioAttackableItem@@UAE_NPAVioBaseChar@@@Z
	DD	FLAT:?SetChangeConditionalSpecialDash@ioAttackableItem@@UAEXPAVioBaseChar@@W4DirKeyInput@ioUserKeyInput@@H@Z
	DD	FLAT:?CheckChangeWereWolfState@ioAttackableItem@@UAE_NPAVioBaseChar@@@Z
	DD	FLAT:?SetChangeWereWolfState@ioAttackableItem@@UAEXPAVioBaseChar@@@Z
	DD	FLAT:?CheckReleaseWereWolfState@ioAttackableItem@@UAE_NPAVioBaseChar@@@Z
	DD	FLAT:?ReleseWereWolfState@ioAttackableItem@@UAEXPAVioBaseChar@@@Z
	DD	FLAT:?ReleseWereWolfStateByOwner@ioAttackableItem@@UAEXPAVioBaseChar@@@Z
	DD	FLAT:?IncreaseChangeDamage@ioAttackableItem@@UAEXMH_N@Z
	DD	FLAT:?IncreaseChangeDamageByWeapon@ioAttackableItem@@UAEXM@Z
	DD	FLAT:?CheckIncreaseChangeDamage@ioAttackableItem@@UAEXPAVioBaseChar@@@Z
	DD	FLAT:?DecreaseChangeDamage@ioAttackableItem@@UAEXPAVioBaseChar@@@Z
	DD	FLAT:?IsEnableActionStopDelay@ioAttackableItem@@UAE_NXZ
	DD	FLAT:?SetExtraGaugeTypeByWeapon@ioAttackableItem@@UAEXPAVioBaseChar@@HHM@Z
	DD	FLAT:?SetUseExtraGauge@ioAttackableItem@@UAEXM@Z
	DD	FLAT:?InitExtraGauge@ioAttackableItem@@UAEXXZ
	DD	FLAT:?MaxExtraGauge@ioAttackableItem@@UAEXXZ
	DD	FLAT:?GetMaxExtraGauge@ioAttackableItem@@UAEMXZ
	DD	FLAT:?GetCurExtraGauge@ioAttackableItem@@UAEMXZ
	DD	FLAT:?SetCurExtraGauge@ioAttackableItem@@UAEXM@Z
	DD	FLAT:?GetAutoTargetValue@ioAttackableItem@@UAEXPAVioBaseChar@@AAM11W4AutoTargetType@@@Z
	DD	FLAT:?ClearAirJump@ioAttackableItem@@UAEXXZ
	DD	FLAT:?SetAirJump@ioAttackableItem@@UAEXPAVioBaseChar@@HM@Z
	DD	FLAT:?CheckAirJump@ioAttackableItem@@UAEXPAVioBaseChar@@@Z
	DD	FLAT:?IsAutoTarget@ioAttackableItem@@UBE_NXZ
	DD	FLAT:?EquipObjectItemByAttakable@ioAttackableItem@@UAEXPAVioBaseChar@@PAVioItem@@@Z
	DD	FLAT:?ReleaseObjectItemByAttack@ioAttackableItem@@UAEXPAVioBaseChar@@PAVioItem@@@Z
	DD	FLAT:?IsBuffFlyChange@ioAttackableItem@@UAE_NPAVioBaseChar@@@Z
	DD	FLAT:?GetAttackStateText@ioAttackableItem@@UBEPBDXZ
	DD	FLAT:?SetJumpLandingExtraState@ioAttackableItem@@UAE_NPAVioBaseChar@@@Z
	DD	FLAT:?IsWoundAfterUseExtendState@ioAttackableItem@@UAE_NXZ
	DD	FLAT:?CheckWoundAfterUseExtendState@ioAttackableItem@@UAE_NPAVioBaseChar@@W4BlowTargetType@@@Z
	DD	FLAT:?IsCharSkipState@ioAttackableItem@@UAE_NPBVioBaseChar@@@Z
	DD	FLAT:?ReleaseObjectState@ioWeaponItem@@UAEXPAVioBaseChar@@PAVioObjectItem@@@Z
	DD	FLAT:?IsCmdCheckEnableTime@ioWeaponItem@@UAE_NXZ
	DD	FLAT:?IsCmdSuccess@ioWeaponItem@@UAE_NXZ
	DD	FLAT:?IsOneTimeWeaponItem@ioObjectCountItem@@UBE_NXZ
	DD	FLAT:?GetEquipMesh@ioObjectItem@@UBEABVioHashString@@PAVioBaseChar@@@Z
	DD	FLAT:?IsCanSendControl@ioWeaponItem@@UBE_NXZ
	DD	FLAT:?GetSubType@ioObjectItem@@UBE?AW4WeaponSubType@ioWeaponItem@@XZ
	DD	FLAT:?IsEnableDash@ioObjectCountItem@@UBE_NXZ
	DD	FLAT:?IsEnableDefense@ioObjectCountItem@@UBE_NXZ
	DD	FLAT:?IsProtectState@ioObjectCountItem@@UAE_NXZ
	DD	FLAT:?EnableReduceGaugeOnSwitchBuff@ioObjectItem@@UAE_NXZ
	DD	FLAT:?GetObjectSubType@ioObjectCountItem@@UBE?AW4ObjectSubType@ioObjectItem@@XZ
	DD	FLAT:?CheckAttackCount@ioObjectItem@@UAEXPAVioBaseChar@@@Z
	DD	FLAT:?CheckActiveCount@ioObjectCountItem@@UAEXPAVioBaseChar@@@Z
	DD	FLAT:?IsAttackComboInit@ioObjectCountItem@@UBE_NXZ
	DD	FLAT:?OnProcessState@ioObjectItem@@UAEXPAVioPlayStage@@PAVioBaseChar@@@Z
	DD	FLAT:?CheckReleaseProcess@ioObjectItem@@UAE_NPAVioPlayStage@@PAVioBaseChar@@@Z
	DD	FLAT:?CheckReleaseByNormalAttack@ioObjectItem@@UAE_NPAVioPlayStage@@PAVioBaseChar@@@Z
	DD	FLAT:?CheckObjectReleaseSelectionBuff@ioObjectItem@@UAE_NPAVioBaseChar@@@Z
	DD	FLAT:?SetObjectReleaseTCPSend@ioObjectItem@@UAEX_N@Z
	DD	FLAT:?IsObjectReleaseTCPSend@ioObjectItem@@UAE_NXZ
	DD	FLAT:?IsNormalAttackStop@ioObjectItem@@UAE_NXZ
	DD	FLAT:?CheckAttackCount@ioObjectCountItem@@UAEXXZ
CONST	ENDS
;	COMDAT xdata$x
xdata$x	SEGMENT
__unwindtable$??0ioObjectCountItem@@QAE@XZ DD 0ffffffffH
	DD	FLAT:__unwindfunclet$??0ioObjectCountItem@@QAE@XZ$0
	DD	00H
	DD	FLAT:__unwindfunclet$??0ioObjectCountItem@@QAE@XZ$1
	DD	01H
	DD	FLAT:__unwindfunclet$??0ioObjectCountItem@@QAE@XZ$2
	DD	02H
	DD	FLAT:__unwindfunclet$??0ioObjectCountItem@@QAE@XZ$3
__ehfuncinfo$??0ioObjectCountItem@@QAE@XZ DD 019930522H
	DD	04H
	DD	FLAT:__unwindtable$??0ioObjectCountItem@@QAE@XZ
	DD	2 DUP(00H)
	DD	2 DUP(00H)
	DD	00H
	DD	01H
; Function compile flags: /Ogsp
; File d:\lost saga for developer\youtube\tutorial\source\src\lsclient\ioobjectcountitem.cpp
xdata$x	ENDS
;	COMDAT ??0ioObjectCountItem@@QAE@XZ
_TEXT	SEGMENT
_this$ = -16						; size = 4
__$EHRec$ = -12						; size = 12
??0ioObjectCountItem@@QAE@XZ PROC			; ioObjectCountItem::ioObjectCountItem, COMDAT
; _this$ = ecx

; 13   : {

  00000	6a 04		 push	 4
  00002	b8 00 00 00 00	 mov	 eax, __ehhandler$??0ioObjectCountItem@@QAE@XZ
  00007	e8 00 00 00 00	 call	 __EH_prolog3
  0000c	8b f1		 mov	 esi, ecx
  0000e	89 75 f0	 mov	 DWORD PTR _this$[ebp], esi
  00011	e8 00 00 00 00	 call	 ??0ioObjectItem@@QAE@XZ	; ioObjectItem::ioObjectItem
  00016	33 db		 xor	 ebx, ebx
  00018	8d 8e 34 1b 00
	00		 lea	 ecx, DWORD PTR [esi+6964]
  0001e	89 5d fc	 mov	 DWORD PTR __$EHRec$[ebp+8], ebx
  00021	c7 06 00 00 00
	00		 mov	 DWORD PTR [esi], OFFSET ??_7ioObjectCountItem@@6B@
  00027	e8 00 00 00 00	 call	 ??0?$CEncrypt@_N@@QAE@XZ ; CEncrypt<bool>::CEncrypt<bool>
  0002c	8d 8e 64 1b 00
	00		 lea	 ecx, DWORD PTR [esi+7012]
  00032	c6 45 fc 01	 mov	 BYTE PTR __$EHRec$[ebp+8], 1
  00036	e8 00 00 00 00	 call	 ??0?$CEncrypt@_N@@QAE@XZ ; CEncrypt<bool>::CEncrypt<bool>
  0003b	8d 8e 94 1b 00
	00		 lea	 ecx, DWORD PTR [esi+7060]
  00041	c6 45 fc 02	 mov	 BYTE PTR __$EHRec$[ebp+8], 2
  00045	e8 00 00 00 00	 call	 ??0?$CEncrypt@K@@QAE@XZ	; CEncrypt<unsigned long>::CEncrypt<unsigned long>
  0004a	8d 8e c4 1b 00
	00		 lea	 ecx, DWORD PTR [esi+7108]
  00050	c6 45 fc 03	 mov	 BYTE PTR __$EHRec$[ebp+8], 3
  00054	e8 00 00 00 00	 call	 ??0?$CEncrypt@_N@@QAE@XZ ; CEncrypt<bool>::CEncrypt<bool>

; 14   : 	m_ObjectState = OS_NONE;
; 15   : 	m_dwAttackEndTime = 0;
; 16   : 	m_iCurCombo = 0;
; 17   : 
; 18   : 	m_iSkillInput = -1;
; 19   : 	m_bEnableDefenseState = false;
; 20   : 	m_bEnableAttackState = false;
; 21   : 	m_bEnableJumpState = false;
; 22   : 
; 23   : 	m_iCurAirJump = 0;
; 24   : 	m_fAirJumpPowerRate = 0.0f;

  00059	0f 57 c0	 xorps	 xmm0, xmm0
  0005c	89 9e f8 1b 00
	00		 mov	 DWORD PTR [esi+7160], ebx
  00062	89 9e fc 1b 00
	00		 mov	 DWORD PTR [esi+7164], ebx
  00068	89 9e 00 1c 00
	00		 mov	 DWORD PTR [esi+7168], ebx
  0006e	83 8e fc 0e 00
	00 ff		 or	 DWORD PTR [esi+3836], -1
  00075	89 9e 08 1c 00
	00		 mov	 DWORD PTR [esi+7176], ebx
  0007b	89 9e 0c 1c 00
	00		 mov	 DWORD PTR [esi+7180], ebx
  00081	89 9e 10 1c 00
	00		 mov	 DWORD PTR [esi+7184], ebx
  00087	66 89 9e 00 0f
	00 00		 mov	 WORD PTR [esi+3840], bx
  0008e	88 9e 02 0f 00
	00		 mov	 BYTE PTR [esi+3842], bl
  00094	89 9e 58 0f 00
	00		 mov	 DWORD PTR [esi+3928], ebx
  0009a	f3 0f 11 86 48
	0f 00 00	 movss	 DWORD PTR [esi+3912], xmm0

; 25   : 	
; 26   : 	m_iCurUseCount = 0;

  000a2	89 9e 00 1b 00
	00		 mov	 DWORD PTR [esi+6912], ebx

; 27   : 	m_bFirstAttack = false;

  000a8	88 9e 1c 1c 00
	00		 mov	 BYTE PTR [esi+7196], bl

; 28   : }

  000ae	8b c6		 mov	 eax, esi
  000b0	e8 00 00 00 00	 call	 __EH_epilog3
  000b5	c3		 ret	 0
_TEXT	ENDS
;	COMDAT text$x
text$x	SEGMENT
__unwindfunclet$??0ioObjectCountItem@@QAE@XZ$0:
  00000	8b 4d f0	 mov	 ecx, DWORD PTR _this$[ebp]
  00003	e9 00 00 00 00	 jmp	 ??1ioObjectItem@@UAE@XZ	; ioObjectItem::~ioObjectItem
__unwindfunclet$??0ioObjectCountItem@@QAE@XZ$1:
  00008	8b 4d f0	 mov	 ecx, DWORD PTR _this$[ebp]
  0000b	81 c1 34 1b 00
	00		 add	 ecx, 6964		; 00001b34H
  00011	e9 00 00 00 00	 jmp	 ??1?$CEncrypt@_N@@UAE@XZ ; CEncrypt<bool>::~CEncrypt<bool>
__unwindfunclet$??0ioObjectCountItem@@QAE@XZ$2:
  00016	8b 4d f0	 mov	 ecx, DWORD PTR _this$[ebp]
  00019	81 c1 64 1b 00
	00		 add	 ecx, 7012		; 00001b64H
  0001f	e9 00 00 00 00	 jmp	 ??1?$CEncrypt@_N@@UAE@XZ ; CEncrypt<bool>::~CEncrypt<bool>
__unwindfunclet$??0ioObjectCountItem@@QAE@XZ$3:
  00024	8b 4d f0	 mov	 ecx, DWORD PTR _this$[ebp]
  00027	81 c1 94 1b 00
	00		 add	 ecx, 7060		; 00001b94H
  0002d	e9 00 00 00 00	 jmp	 ??1?$CEncrypt@K@@UAE@XZ	; CEncrypt<unsigned long>::~CEncrypt<unsigned long>
__ehhandler$??0ioObjectCountItem@@QAE@XZ:
  00032	8b 54 24 08	 mov	 edx, DWORD PTR [esp+8]
  00036	8d 42 0c	 lea	 eax, DWORD PTR [edx+12]
  00039	8b 4a ec	 mov	 ecx, DWORD PTR [edx-20]
  0003c	33 c8		 xor	 ecx, eax
  0003e	e8 00 00 00 00	 call	 @__security_check_cookie@4
  00043	b8 00 00 00 00	 mov	 eax, OFFSET __ehfuncinfo$??0ioObjectCountItem@@QAE@XZ
  00048	e9 00 00 00 00	 jmp	 ___CxxFrameHandler3
text$x	ENDS
??0ioObjectCountItem@@QAE@XZ ENDP			; ioObjectCountItem::ioObjectCountItem
; Function compile flags: /Ogsp
; File d:\lost saga for developer\youtube\tutorial\source\src\lsclient\ioitem.h
;	COMDAT ?IsEnableExtraGauge@ioItem@@UAE_NPAVioBaseChar@@@Z
_TEXT	SEGMENT
_pChar$ = 8						; size = 4
?IsEnableExtraGauge@ioItem@@UAE_NPAVioBaseChar@@@Z PROC	; ioItem::IsEnableExtraGauge, COMDAT
; _this$ = ecx

; 375  : 	virtual bool IsEnableExtraGauge( ioBaseChar *pChar ) { return true; }

  00000	b0 01		 mov	 al, 1
  00002	c2 04 00	 ret	 4
?IsEnableExtraGauge@ioItem@@UAE_NPAVioBaseChar@@@Z ENDP	; ioItem::IsEnableExtraGauge
; Function compile flags: /Ogsp
_TEXT	ENDS
;	COMDAT ?GetExtraGauge@ioItem@@UAEMXZ
_TEXT	SEGMENT
tv64 = -4						; size = 4
?GetExtraGauge@ioItem@@UAEMXZ PROC			; ioItem::GetExtraGauge, COMDAT
; _this$ = ecx

; 376  : 	virtual float GetExtraGauge() { return FLOAT1; }

  00000	55		 push	 ebp
  00001	8b ec		 mov	 ebp, esp
  00003	51		 push	 ecx
  00004	b8 01 00 00 00	 mov	 eax, 1
  00009	89 45 fc	 mov	 DWORD PTR tv64[ebp], eax
  0000c	db 45 fc	 fild	 DWORD PTR tv64[ebp]
  0000f	85 c0		 test	 eax, eax
  00011	79 06		 jns	 SHORT $LN5@GetExtraGa
  00013	d8 05 00 00 00
	00		 fadd	 DWORD PTR __real@4f800000
$LN5@GetExtraGa:
  00019	c9		 leave
  0001a	c3		 ret	 0
?GetExtraGauge@ioItem@@UAEMXZ ENDP			; ioItem::GetExtraGauge
; Function compile flags: /Ogsp
; File d:\lost saga for developer\youtube\tutorial\source\src\lsclient\ioattackableitem.h
_TEXT	ENDS
;	COMDAT ?CheckOnHand@ioAttackableItem@@UAE_NXZ
_TEXT	SEGMENT
?CheckOnHand@ioAttackableItem@@UAE_NXZ PROC		; ioAttackableItem::CheckOnHand, COMDAT
; _this$ = ecx

; 429  : 	virtual bool CheckOnHand() { return false; }

  00000	32 c0		 xor	 al, al
  00002	c3		 ret	 0
?CheckOnHand@ioAttackableItem@@UAE_NXZ ENDP		; ioAttackableItem::CheckOnHand
; Function compile flags: /Ogsp
_TEXT	ENDS
;	COMDAT ?CheckAimState@ioAttackableItem@@UAE_N_N@Z
_TEXT	SEGMENT
_bAimMove$ = 8						; size = 1
?CheckAimState@ioAttackableItem@@UAE_N_N@Z PROC		; ioAttackableItem::CheckAimState, COMDAT
; _this$ = ecx

; 430  : 	virtual bool CheckAimState( bool bAimMove = false ) { return false; }

  00000	32 c0		 xor	 al, al
  00002	c2 04 00	 ret	 4
?CheckAimState@ioAttackableItem@@UAE_N_N@Z ENDP		; ioAttackableItem::CheckAimState
; Function compile flags: /Ogsp
_TEXT	ENDS
;	COMDAT ?SetAimState@ioAttackableItem@@UAE_NPAVioBaseChar@@@Z
_TEXT	SEGMENT
_pChar$ = 8						; size = 4
?SetAimState@ioAttackableItem@@UAE_NPAVioBaseChar@@@Z PROC ; ioAttackableItem::SetAimState, COMDAT
; _this$ = ecx

; 431  : 	virtual bool SetAimState( ioBaseChar *pChar ) { return false; }

  00000	32 c0		 xor	 al, al
  00002	c2 04 00	 ret	 4
?SetAimState@ioAttackableItem@@UAE_NPAVioBaseChar@@@Z ENDP ; ioAttackableItem::SetAimState
; Function compile flags: /Ogsp
_TEXT	ENDS
;	COMDAT ?CheckExtendDefenseEnable@ioAttackableItem@@UAE_NPAVioBaseChar@@@Z
_TEXT	SEGMENT
_pChar$ = 8						; size = 4
?CheckExtendDefenseEnable@ioAttackableItem@@UAE_NPAVioBaseChar@@@Z PROC ; ioAttackableItem::CheckExtendDefenseEnable, COMDAT
; _this$ = ecx

; 434  : 	virtual bool CheckExtendDefenseEnable( ioBaseChar *pChar ) { return true; }

  00000	b0 01		 mov	 al, 1
  00002	c2 04 00	 ret	 4
?CheckExtendDefenseEnable@ioAttackableItem@@UAE_NPAVioBaseChar@@@Z ENDP ; ioAttackableItem::CheckExtendDefenseEnable
; Function compile flags: /Ogsp
_TEXT	ENDS
;	COMDAT ?IsChargeAttackState@ioAttackableItem@@UAE_NPAVioBaseChar@@@Z
_TEXT	SEGMENT
_pOwner$ = 8						; size = 4
?IsChargeAttackState@ioAttackableItem@@UAE_NPAVioBaseChar@@@Z PROC ; ioAttackableItem::IsChargeAttackState, COMDAT
; _this$ = ecx

; 436  : 	virtual bool IsChargeAttackState( ioBaseChar *pOwner ) { return false; }

  00000	32 c0		 xor	 al, al
  00002	c2 04 00	 ret	 4
?IsChargeAttackState@ioAttackableItem@@UAE_NPAVioBaseChar@@@Z ENDP ; ioAttackableItem::IsChargeAttackState
; Function compile flags: /Ogsp
_TEXT	ENDS
;	COMDAT ?IsMoveAttackState@ioAttackableItem@@UAE_NPAVioBaseChar@@@Z
_TEXT	SEGMENT
_pOwner$ = 8						; size = 4
?IsMoveAttackState@ioAttackableItem@@UAE_NPAVioBaseChar@@@Z PROC ; ioAttackableItem::IsMoveAttackState, COMDAT
; _this$ = ecx

; 437  : 	virtual bool IsMoveAttackState( ioBaseChar *pOwner ) { return false; }

  00000	32 c0		 xor	 al, al
  00002	c2 04 00	 ret	 4
?IsMoveAttackState@ioAttackableItem@@UAE_NPAVioBaseChar@@@Z ENDP ; ioAttackableItem::IsMoveAttackState
; Function compile flags: /Ogsp
_TEXT	ENDS
;	COMDAT ?IsNoGhostWalk@ioAttackableItem@@UAE_NPAVioBaseChar@@@Z
_TEXT	SEGMENT
_pOwner$ = 8						; size = 4
?IsNoGhostWalk@ioAttackableItem@@UAE_NPAVioBaseChar@@@Z PROC ; ioAttackableItem::IsNoGhostWalk, COMDAT
; _this$ = ecx

; 439  : 	virtual bool IsNoGhostWalk( ioBaseChar *pOwner ) { return false; }

  00000	32 c0		 xor	 al, al
  00002	c2 04 00	 ret	 4
?IsNoGhostWalk@ioAttackableItem@@UAE_NPAVioBaseChar@@@Z ENDP ; ioAttackableItem::IsNoGhostWalk
; Function compile flags: /Ogsp
_TEXT	ENDS
;	COMDAT ?IsEnableAttackDashCheck@ioAttackableItem@@UAE_NPAVioBaseChar@@_N@Z
_TEXT	SEGMENT
_pOwner$ = 8						; size = 4
_bCheck$ = 12						; size = 1
?IsEnableAttackDashCheck@ioAttackableItem@@UAE_NPAVioBaseChar@@_N@Z PROC ; ioAttackableItem::IsEnableAttackDashCheck, COMDAT
; _this$ = ecx

; 441  : 	virtual bool IsEnableAttackDashCheck( ioBaseChar *pOwner, bool bCheck ) { return false; }

  00000	32 c0		 xor	 al, al
  00002	c2 08 00	 ret	 8
?IsEnableAttackDashCheck@ioAttackableItem@@UAE_NPAVioBaseChar@@_N@Z ENDP ; ioAttackableItem::IsEnableAttackDashCheck
; Function compile flags: /Ogsp
_TEXT	ENDS
;	COMDAT ?IsEnableItemDashCheck@ioAttackableItem@@UAE_NPAVioBaseChar@@_N@Z
_TEXT	SEGMENT
_pOwner$ = 8						; size = 4
_bCheck$ = 12						; size = 1
?IsEnableItemDashCheck@ioAttackableItem@@UAE_NPAVioBaseChar@@_N@Z PROC ; ioAttackableItem::IsEnableItemDashCheck, COMDAT
; _this$ = ecx

; 442  : 	virtual bool IsEnableItemDashCheck( ioBaseChar *pOwner, bool bCheck ) { return false; }

  00000	32 c0		 xor	 al, al
  00002	c2 08 00	 ret	 8
?IsEnableItemDashCheck@ioAttackableItem@@UAE_NPAVioBaseChar@@_N@Z ENDP ; ioAttackableItem::IsEnableItemDashCheck
; Function compile flags: /Ogsp
_TEXT	ENDS
;	COMDAT ?IsEnableAttackRotateCheck@ioAttackableItem@@UAE_NPAVioBaseChar@@@Z
_TEXT	SEGMENT
_pOwner$ = 8						; size = 4
?IsEnableAttackRotateCheck@ioAttackableItem@@UAE_NPAVioBaseChar@@@Z PROC ; ioAttackableItem::IsEnableAttackRotateCheck, COMDAT
; _this$ = ecx

; 443  : 	virtual bool IsEnableAttackRotateCheck( ioBaseChar *pOwner ) { return false; }

  00000	32 c0		 xor	 al, al
  00002	c2 04 00	 ret	 4
?IsEnableAttackRotateCheck@ioAttackableItem@@UAE_NPAVioBaseChar@@@Z ENDP ; ioAttackableItem::IsEnableAttackRotateCheck
; Function compile flags: /Ogsp
_TEXT	ENDS
;	COMDAT ?IsEnableChargeDefenseCheck@ioAttackableItem@@UAE_NXZ
_TEXT	SEGMENT
?IsEnableChargeDefenseCheck@ioAttackableItem@@UAE_NXZ PROC ; ioAttackableItem::IsEnableChargeDefenseCheck, COMDAT
; _this$ = ecx

; 444  : 	virtual bool IsEnableChargeDefenseCheck() { return false; }

  00000	32 c0		 xor	 al, al
  00002	c3		 ret	 0
?IsEnableChargeDefenseCheck@ioAttackableItem@@UAE_NXZ ENDP ; ioAttackableItem::IsEnableChargeDefenseCheck
; Function compile flags: /Ogsp
_TEXT	ENDS
;	COMDAT ?IsUseDefenceCounterAttackEndDash@ioAttackableItem@@UAE_NXZ
_TEXT	SEGMENT
?IsUseDefenceCounterAttackEndDash@ioAttackableItem@@UAE_NXZ PROC ; ioAttackableItem::IsUseDefenceCounterAttackEndDash, COMDAT
; _this$ = ecx

; 464  : 	virtual bool IsUseDefenceCounterAttackEndDash() { return false; }

  00000	32 c0		 xor	 al, al
  00002	c3		 ret	 0
?IsUseDefenceCounterAttackEndDash@ioAttackableItem@@UAE_NXZ ENDP ; ioAttackableItem::IsUseDefenceCounterAttackEndDash
; Function compile flags: /Ogsp
_TEXT	ENDS
;	COMDAT ?IsAutoTarget@ioAttackableItem@@UBE_NXZ
_TEXT	SEGMENT
?IsAutoTarget@ioAttackableItem@@UBE_NXZ PROC		; ioAttackableItem::IsAutoTarget, COMDAT
; _this$ = ecx

; 707  : 	virtual bool IsAutoTarget() const { return true; }

  00000	b0 01		 mov	 al, 1
  00002	c3		 ret	 0
?IsAutoTarget@ioAttackableItem@@UBE_NXZ ENDP		; ioAttackableItem::IsAutoTarget
; Function compile flags: /Ogsp
_TEXT	ENDS
;	COMDAT ?IsWoundAfterUseExtendState@ioAttackableItem@@UAE_NXZ
_TEXT	SEGMENT
?IsWoundAfterUseExtendState@ioAttackableItem@@UAE_NXZ PROC ; ioAttackableItem::IsWoundAfterUseExtendState, COMDAT
; _this$ = ecx

; 724  : 	virtual bool IsWoundAfterUseExtendState(){ return false; }

  00000	32 c0		 xor	 al, al
  00002	c3		 ret	 0
?IsWoundAfterUseExtendState@ioAttackableItem@@UAE_NXZ ENDP ; ioAttackableItem::IsWoundAfterUseExtendState
; Function compile flags: /Ogsp
_TEXT	ENDS
;	COMDAT ?CheckWoundAfterUseExtendState@ioAttackableItem@@UAE_NPAVioBaseChar@@W4BlowTargetType@@@Z
_TEXT	SEGMENT
_pOwner$ = 8						; size = 4
_eType$ = 12						; size = 4
?CheckWoundAfterUseExtendState@ioAttackableItem@@UAE_NPAVioBaseChar@@W4BlowTargetType@@@Z PROC ; ioAttackableItem::CheckWoundAfterUseExtendState, COMDAT
; _this$ = ecx

; 725  : 	virtual bool CheckWoundAfterUseExtendState( ioBaseChar* pOwner, BlowTargetType eType ){ return false; }

  00000	32 c0		 xor	 al, al
  00002	c2 08 00	 ret	 8
?CheckWoundAfterUseExtendState@ioAttackableItem@@UAE_NPAVioBaseChar@@W4BlowTargetType@@@Z ENDP ; ioAttackableItem::CheckWoundAfterUseExtendState
; Function compile flags: /Ogsp
_TEXT	ENDS
;	COMDAT ?IsCharSkipState@ioAttackableItem@@UAE_NPBVioBaseChar@@@Z
_TEXT	SEGMENT
_pOwner$ = 8						; size = 4
?IsCharSkipState@ioAttackableItem@@UAE_NPBVioBaseChar@@@Z PROC ; ioAttackableItem::IsCharSkipState, COMDAT
; _this$ = ecx

; 728  : 	virtual bool IsCharSkipState( const ioBaseChar* pOwner ){ return false; }

  00000	32 c0		 xor	 al, al
  00002	c2 04 00	 ret	 4
?IsCharSkipState@ioAttackableItem@@UAE_NPBVioBaseChar@@@Z ENDP ; ioAttackableItem::IsCharSkipState
; Function compile flags: /Ogsp
; File d:\lost saga for developer\youtube\tutorial\source\src\lsclient\ioobjectitem.h
_TEXT	ENDS
;	COMDAT ?OnProcessState@ioObjectItem@@UAEXPAVioPlayStage@@PAVioBaseChar@@@Z
_TEXT	SEGMENT
_pStage$ = 8						; size = 4
_pOwner$ = 12						; size = 4
?OnProcessState@ioObjectItem@@UAEXPAVioPlayStage@@PAVioBaseChar@@@Z PROC ; ioObjectItem::OnProcessState, COMDAT
; _this$ = ecx

; 156  : 	virtual void OnProcessState( ioPlayStage *pStage, ioBaseChar *pOwner ){};

  00000	c2 08 00	 ret	 8
?OnProcessState@ioObjectItem@@UAEXPAVioPlayStage@@PAVioBaseChar@@@Z ENDP ; ioObjectItem::OnProcessState
; Function compile flags: /Ogsp
_TEXT	ENDS
;	COMDAT ?SetObjectReleaseTCPSend@ioObjectItem@@UAEX_N@Z
_TEXT	SEGMENT
_bSend$ = 8						; size = 1
?SetObjectReleaseTCPSend@ioObjectItem@@UAEX_N@Z PROC	; ioObjectItem::SetObjectReleaseTCPSend, COMDAT
; _this$ = ecx

; 163  : 	virtual void SetObjectReleaseTCPSend( bool bSend ){ m_bObjectReleaseTCPSend = bSend; }

  00000	55		 push	 ebp
  00001	8b ec		 mov	 ebp, esp
  00003	8a 45 08	 mov	 al, BYTE PTR _bSend$[ebp]
  00006	88 81 8c 19 00
	00		 mov	 BYTE PTR [ecx+6540], al
  0000c	5d		 pop	 ebp
  0000d	c2 04 00	 ret	 4
?SetObjectReleaseTCPSend@ioObjectItem@@UAEX_N@Z ENDP	; ioObjectItem::SetObjectReleaseTCPSend
; Function compile flags: /Ogsp
_TEXT	ENDS
;	COMDAT ?IsObjectReleaseTCPSend@ioObjectItem@@UAE_NXZ
_TEXT	SEGMENT
?IsObjectReleaseTCPSend@ioObjectItem@@UAE_NXZ PROC	; ioObjectItem::IsObjectReleaseTCPSend, COMDAT
; _this$ = ecx

; 164  : 	virtual bool IsObjectReleaseTCPSend(){ return m_bObjectReleaseTCPSend; }

  00000	8a 81 8c 19 00
	00		 mov	 al, BYTE PTR [ecx+6540]
  00006	c3		 ret	 0
?IsObjectReleaseTCPSend@ioObjectItem@@UAE_NXZ ENDP	; ioObjectItem::IsObjectReleaseTCPSend
; Function compile flags: /Ogsp
_TEXT	ENDS
;	COMDAT ?IsNormalAttackStop@ioObjectItem@@UAE_NXZ
_TEXT	SEGMENT
?IsNormalAttackStop@ioObjectItem@@UAE_NXZ PROC		; ioObjectItem::IsNormalAttackStop, COMDAT
; _this$ = ecx

; 167  : 	virtual bool IsNormalAttackStop(){ return false; }	

  00000	32 c0		 xor	 al, al
  00002	c3		 ret	 0
?IsNormalAttackStop@ioObjectItem@@UAE_NXZ ENDP		; ioObjectItem::IsNormalAttackStop
_TEXT	ENDS
PUBLIC	??1ioObjectCountItem@@UAE@XZ			; ioObjectCountItem::~ioObjectCountItem
;	COMDAT xdata$x
; File d:\lost saga for developer\youtube\tutorial\source\src\lsclient\encryptvalue.h
xdata$x	SEGMENT
__ehfuncinfo$??1ioObjectCountItem@@UAE@XZ DD 019930522H
	DD	05H
	DD	FLAT:__unwindtable$??1ioObjectCountItem@@UAE@XZ
	DD	2 DUP(00H)
	DD	2 DUP(00H)
	DD	00H
	DD	01H
__unwindtable$??1ioObjectCountItem@@UAE@XZ DD 0ffffffffH
	DD	FLAT:__unwindfunclet$??1ioObjectCountItem@@UAE@XZ$0
	DD	00H
	DD	FLAT:__unwindfunclet$??1ioObjectCountItem@@UAE@XZ$1
	DD	01H
	DD	FLAT:__unwindfunclet$??1ioObjectCountItem@@UAE@XZ$2
	DD	02H
	DD	FLAT:__unwindfunclet$??1ioObjectCountItem@@UAE@XZ$3
	DD	03H
	DD	FLAT:__unwindfunclet$??1ioObjectCountItem@@UAE@XZ$4
; Function compile flags: /Ogsp
; File d:\lost saga for developer\youtube\tutorial\source\src\lsclient\ioobjectcountitem.cpp
xdata$x	ENDS
;	COMDAT ??1ioObjectCountItem@@UAE@XZ
_TEXT	SEGMENT
_this$ = -16						; size = 4
__$EHRec$ = -12						; size = 12
??1ioObjectCountItem@@UAE@XZ PROC			; ioObjectCountItem::~ioObjectCountItem, COMDAT
; _this$ = ecx

; 52   : {

  00000	6a 04		 push	 4
  00002	b8 00 00 00 00	 mov	 eax, __ehhandler$??1ioObjectCountItem@@UAE@XZ
  00007	e8 00 00 00 00	 call	 __EH_prolog3
  0000c	8b f1		 mov	 esi, ecx
  0000e	89 75 f0	 mov	 DWORD PTR _this$[ebp], esi
  00011	c7 06 00 00 00
	00		 mov	 DWORD PTR [esi], OFFSET ??_7ioObjectCountItem@@6B@

; 53   : }

  00017	8d 8e f8 1b 00
	00		 lea	 ecx, DWORD PTR [esi+7160]
  0001d	c7 45 fc 04 00
	00 00		 mov	 DWORD PTR __$EHRec$[ebp+8], 4
  00024	e8 00 00 00 00	 call	 ?_Tidy@?$vector@KV?$allocator@K@std@@@std@@IAEXXZ ; std::vector<unsigned long,std::allocator<unsigned long> >::_Tidy
  00029	bf 00 00 00 00	 mov	 edi, OFFSET ??_7?$CEncrypt@_N@@6B@
  0002e	8d 8e d0 1b 00
	00		 lea	 ecx, DWORD PTR [esi+7120]
  00034	c6 45 fc 03	 mov	 BYTE PTR __$EHRec$[ebp+8], 3
  00038	89 be c4 1b 00
	00		 mov	 DWORD PTR [esi+7108], edi
  0003e	e8 00 00 00 00	 call	 ??1ccddaabb@@UAE@XZ	; ccddaabb::~ccddaabb
  00043	8d 8e a0 1b 00
	00		 lea	 ecx, DWORD PTR [esi+7072]
  00049	c6 45 fc 02	 mov	 BYTE PTR __$EHRec$[ebp+8], 2
  0004d	c7 86 94 1b 00
	00 00 00 00 00	 mov	 DWORD PTR [esi+7060], OFFSET ??_7?$CEncrypt@K@@6B@
  00057	e8 00 00 00 00	 call	 ??1ccddaabb@@UAE@XZ	; ccddaabb::~ccddaabb
  0005c	8d 8e 70 1b 00
	00		 lea	 ecx, DWORD PTR [esi+7024]
  00062	c6 45 fc 01	 mov	 BYTE PTR __$EHRec$[ebp+8], 1
  00066	89 be 64 1b 00
	00		 mov	 DWORD PTR [esi+7012], edi
  0006c	e8 00 00 00 00	 call	 ??1ccddaabb@@UAE@XZ	; ccddaabb::~ccddaabb
  00071	8d 8e 40 1b 00
	00		 lea	 ecx, DWORD PTR [esi+6976]
  00077	c6 45 fc 00	 mov	 BYTE PTR __$EHRec$[ebp+8], 0
  0007b	89 be 34 1b 00
	00		 mov	 DWORD PTR [esi+6964], edi
  00081	e8 00 00 00 00	 call	 ??1ccddaabb@@UAE@XZ	; ccddaabb::~ccddaabb
  00086	83 4d fc ff	 or	 DWORD PTR __$EHRec$[ebp+8], -1
  0008a	8b ce		 mov	 ecx, esi
  0008c	e8 00 00 00 00	 call	 ??1ioObjectItem@@UAE@XZ	; ioObjectItem::~ioObjectItem
  00091	e8 00 00 00 00	 call	 __EH_epilog3
  00096	c3		 ret	 0
_TEXT	ENDS
;	COMDAT text$x
text$x	SEGMENT
__unwindfunclet$??1ioObjectCountItem@@UAE@XZ$0:
  00000	8b 4d f0	 mov	 ecx, DWORD PTR _this$[ebp]
  00003	e9 00 00 00 00	 jmp	 ??1ioObjectItem@@UAE@XZ	; ioObjectItem::~ioObjectItem
__unwindfunclet$??1ioObjectCountItem@@UAE@XZ$1:
  00008	8b 4d f0	 mov	 ecx, DWORD PTR _this$[ebp]
  0000b	81 c1 34 1b 00
	00		 add	 ecx, 6964		; 00001b34H
  00011	e9 00 00 00 00	 jmp	 ??1?$CEncrypt@_N@@UAE@XZ ; CEncrypt<bool>::~CEncrypt<bool>
__unwindfunclet$??1ioObjectCountItem@@UAE@XZ$2:
  00016	8b 4d f0	 mov	 ecx, DWORD PTR _this$[ebp]
  00019	81 c1 64 1b 00
	00		 add	 ecx, 7012		; 00001b64H
  0001f	e9 00 00 00 00	 jmp	 ??1?$CEncrypt@_N@@UAE@XZ ; CEncrypt<bool>::~CEncrypt<bool>
__unwindfunclet$??1ioObjectCountItem@@UAE@XZ$3:
  00024	8b 4d f0	 mov	 ecx, DWORD PTR _this$[ebp]
  00027	81 c1 94 1b 00
	00		 add	 ecx, 7060		; 00001b94H
  0002d	e9 00 00 00 00	 jmp	 ??1?$CEncrypt@K@@UAE@XZ	; CEncrypt<unsigned long>::~CEncrypt<unsigned long>
__unwindfunclet$??1ioObjectCountItem@@UAE@XZ$4:
  00032	8b 4d f0	 mov	 ecx, DWORD PTR _this$[ebp]
  00035	81 c1 c4 1b 00
	00		 add	 ecx, 7108		; 00001bc4H
  0003b	e9 00 00 00 00	 jmp	 ??1?$CEncrypt@_N@@UAE@XZ ; CEncrypt<bool>::~CEncrypt<bool>
__ehhandler$??1ioObjectCountItem@@UAE@XZ:
  00040	8b 54 24 08	 mov	 edx, DWORD PTR [esp+8]
  00044	8d 42 0c	 lea	 eax, DWORD PTR [edx+12]
  00047	8b 4a ec	 mov	 ecx, DWORD PTR [edx-20]
  0004a	33 c8		 xor	 ecx, eax
  0004c	e8 00 00 00 00	 call	 @__security_check_cookie@4
  00051	b8 00 00 00 00	 mov	 eax, OFFSET __ehfuncinfo$??1ioObjectCountItem@@UAE@XZ
  00056	e9 00 00 00 00	 jmp	 ___CxxFrameHandler3
text$x	ENDS
??1ioObjectCountItem@@UAE@XZ ENDP			; ioObjectCountItem::~ioObjectCountItem
PUBLIC	??1?$list@MV?$allocator@M@std@@@std@@QAE@XZ	; std::list<float,std::allocator<float> >::~list<float,std::allocator<float> >
; Function compile flags: /Ogsp
; File c:\program files (x86)\microsoft visual studio 10.0\vc\include\list
;	COMDAT ??1?$list@MV?$allocator@M@std@@@std@@QAE@XZ
_TEXT	SEGMENT
??1?$list@MV?$allocator@M@std@@@std@@QAE@XZ PROC	; std::list<float,std::allocator<float> >::~list<float,std::allocator<float> >, COMDAT
; _this$ = ecx

; 769  : 		{	// destroy the object

  00000	56		 push	 esi
  00001	8b f1		 mov	 esi, ecx

; 770  : 		_Tidy();

  00003	e8 00 00 00 00	 call	 ?clear@?$list@MV?$allocator@M@std@@@std@@QAEXXZ ; std::list<float,std::allocator<float> >::clear

; 771  : 		}

  00008	ff 36		 push	 DWORD PTR [esi]
  0000a	e8 00 00 00 00	 call	 ??3@YAXPAX@Z		; operator delete
  0000f	59		 pop	 ecx
  00010	5e		 pop	 esi
  00011	c3		 ret	 0
??1?$list@MV?$allocator@M@std@@@std@@QAE@XZ ENDP	; std::list<float,std::allocator<float> >::~list<float,std::allocator<float> >
_TEXT	ENDS
PUBLIC	??$_Ucopy@V?$_Vector_const_iterator@V?$_Vector_val@KV?$allocator@K@std@@@std@@@std@@@?$vector@KV?$allocator@K@std@@@std@@IAEPAKV?$_Vector_const_iterator@V?$_Vector_val@KV?$allocator@K@std@@@std@@@1@0PAK@Z ; std::vector<unsigned long,std::allocator<unsigned long> >::_Ucopy<std::_Vector_const_iterator<std::_Vector_val<unsigned long,std::allocator<unsigned long> > > >
; Function compile flags: /Ogsp
; File c:\program files (x86)\microsoft visual studio 10.0\vc\include\vector
;	COMDAT ??$_Ucopy@V?$_Vector_const_iterator@V?$_Vector_val@KV?$allocator@K@std@@@std@@@std@@@?$vector@KV?$allocator@K@std@@@std@@IAEPAKV?$_Vector_const_iterator@V?$_Vector_val@KV?$allocator@K@std@@@std@@@1@0PAK@Z
_TEXT	SEGMENT
__First$ = 8						; size = 4
__Last$ = 12						; size = 4
__Cat$626214 = 16					; size = 1
__Ptr$ = 16						; size = 4
??$_Ucopy@V?$_Vector_const_iterator@V?$_Vector_val@KV?$allocator@K@std@@@std@@@std@@@?$vector@KV?$allocator@K@std@@@std@@IAEPAKV?$_Vector_const_iterator@V?$_Vector_val@KV?$allocator@K@std@@@std@@@1@0PAK@Z PROC ; std::vector<unsigned long,std::allocator<unsigned long> >::_Ucopy<std::_Vector_const_iterator<std::_Vector_val<unsigned long,std::allocator<unsigned long> > > >, COMDAT
; _this$ = ecx

; 1315 : 		pointer _Ucopy(_Iter _First, _Iter _Last, pointer _Ptr)

  00000	55		 push	 ebp
  00001	8b ec		 mov	 ebp, esp

; 1316 : 		{	// copy initializing [_First, _Last), using allocator
; 1317 : 		return (_Uninitialized_copy(_First, _Last,
; 1318 : 			_Ptr, this->_Alval));

  00003	ff 75 10	 push	 DWORD PTR __Cat$626214[ebp]
  00006	83 c1 0c	 add	 ecx, 12			; 0000000cH
  00009	51		 push	 ecx
  0000a	ff 75 10	 push	 DWORD PTR __Ptr$[ebp]
  0000d	ff 75 0c	 push	 DWORD PTR __Last$[ebp]
  00010	ff 75 08	 push	 DWORD PTR __First$[ebp]
  00013	e8 00 00 00 00	 call	 ??$_Uninit_copy@V?$_Vector_const_iterator@V?$_Vector_val@KV?$allocator@K@std@@@std@@@std@@PAKV?$allocator@K@2@@std@@YAPAKV?$_Vector_const_iterator@V?$_Vector_val@KV?$allocator@K@std@@@std@@@0@0PAKAAV?$allocator@K@0@U_Nonscalar_ptr_iterator_tag@0@@Z ; std::_Uninit_copy<std::_Vector_const_iterator<std::_Vector_val<unsigned long,std::allocator<unsigned long> > >,unsigned long *,std::allocator<unsigned long> >
  00018	83 c4 14	 add	 esp, 20			; 00000014H

; 1319 : 		}

  0001b	5d		 pop	 ebp
  0001c	c2 0c 00	 ret	 12			; 0000000cH
??$_Ucopy@V?$_Vector_const_iterator@V?$_Vector_val@KV?$allocator@K@std@@@std@@@std@@@?$vector@KV?$allocator@K@std@@@std@@IAEPAKV?$_Vector_const_iterator@V?$_Vector_val@KV?$allocator@K@std@@@std@@@1@0PAK@Z ENDP ; std::vector<unsigned long,std::allocator<unsigned long> >::_Ucopy<std::_Vector_const_iterator<std::_Vector_val<unsigned long,std::allocator<unsigned long> > > >
_TEXT	ENDS
PUBLIC	?push_back@?$vector@KV?$allocator@K@std@@@std@@QAEXABK@Z ; std::vector<unsigned long,std::allocator<unsigned long> >::push_back
; Function compile flags: /Ogsp
;	COMDAT ?push_back@?$vector@KV?$allocator@K@std@@@std@@QAEXABK@Z
_TEXT	SEGMENT
__Val$ = 8						; size = 4
?push_back@?$vector@KV?$allocator@K@std@@@std@@QAEXABK@Z PROC ; std::vector<unsigned long,std::allocator<unsigned long> >::push_back, COMDAT
; _this$ = ecx

; 976  : 		{	// insert element at end

  00000	55		 push	 ebp
  00001	8b ec		 mov	 ebp, esp
  00003	56		 push	 esi
  00004	8b f1		 mov	 esi, ecx

; 977  : 		if (_Inside(_STD addressof(_Val)))

  00006	8b 46 04	 mov	 eax, DWORD PTR [esi+4]
  00009	57		 push	 edi
  0000a	8b 7d 08	 mov	 edi, DWORD PTR __Val$[ebp]
  0000d	3b f8		 cmp	 edi, eax
  0000f	73 27		 jae	 SHORT $LN4@push_back
  00011	8b 0e		 mov	 ecx, DWORD PTR [esi]
  00013	3b cf		 cmp	 ecx, edi
  00015	77 21		 ja	 SHORT $LN4@push_back

; 978  : 			{	// push back an element
; 979  : 			size_type _Idx = _STD addressof(_Val) - this->_Myfirst;

  00017	2b f9		 sub	 edi, ecx
  00019	c1 ff 02	 sar	 edi, 2

; 980  : 			if (this->_Mylast == this->_Myend)

  0001c	3b 46 08	 cmp	 eax, DWORD PTR [esi+8]
  0001f	75 09		 jne	 SHORT $LN3@push_back

; 981  : 				_Reserve(1);

  00021	6a 01		 push	 1
  00023	8b ce		 mov	 ecx, esi
  00025	e8 00 00 00 00	 call	 ?_Reserve@?$vector@KV?$allocator@K@std@@@std@@IAEXI@Z ; std::vector<unsigned long,std::allocator<unsigned long> >::_Reserve
$LN3@push_back:

; 982  : 			_Orphan_range(this->_Mylast, this->_Mylast);
; 983  : 			_Cons_val(this->_Alval,
; 984  : 				this->_Mylast,
; 985  : 				this->_Myfirst[_Idx]);

  0002a	8b 46 04	 mov	 eax, DWORD PTR [esi+4]
  0002d	85 c0		 test	 eax, eax
  0002f	74 20		 je	 SHORT $LN39@push_back
  00031	8b 0e		 mov	 ecx, DWORD PTR [esi]
  00033	8b 0c b9	 mov	 ecx, DWORD PTR [ecx+edi*4]

; 986  : 			++this->_Mylast;
; 987  : 			}
; 988  : 		else

  00036	eb 17		 jmp	 SHORT $LN46@push_back
$LN4@push_back:

; 989  : 			{	// push back a non-element
; 990  : 			if (this->_Mylast == this->_Myend)

  00038	3b 46 08	 cmp	 eax, DWORD PTR [esi+8]
  0003b	75 09		 jne	 SHORT $LN1@push_back

; 991  : 				_Reserve(1);

  0003d	6a 01		 push	 1
  0003f	8b ce		 mov	 ecx, esi
  00041	e8 00 00 00 00	 call	 ?_Reserve@?$vector@KV?$allocator@K@std@@@std@@IAEXI@Z ; std::vector<unsigned long,std::allocator<unsigned long> >::_Reserve
$LN1@push_back:

; 992  : 			_Orphan_range(this->_Mylast, this->_Mylast);
; 993  : 			_Cons_val(this->_Alval,
; 994  : 				this->_Mylast,
; 995  : 				_Val);

  00046	8b 46 04	 mov	 eax, DWORD PTR [esi+4]
  00049	85 c0		 test	 eax, eax
  0004b	74 04		 je	 SHORT $LN39@push_back
  0004d	8b 0f		 mov	 ecx, DWORD PTR [edi]
$LN46@push_back:
  0004f	89 08		 mov	 DWORD PTR [eax], ecx
$LN39@push_back:

; 996  : 			++this->_Mylast;

  00051	83 46 04 04	 add	 DWORD PTR [esi+4], 4
  00055	5f		 pop	 edi
  00056	5e		 pop	 esi

; 997  : 			}
; 998  : 		}

  00057	5d		 pop	 ebp
  00058	c2 04 00	 ret	 4
?push_back@?$vector@KV?$allocator@K@std@@@std@@QAEXABK@Z ENDP ; std::vector<unsigned long,std::allocator<unsigned long> >::push_back
; Function compile flags: /Ogsp
_TEXT	ENDS
;	COMDAT ??_GioObjectCountItem@@UAEPAXI@Z
_TEXT	SEGMENT
___flags$ = 8						; size = 4
??_GioObjectCountItem@@UAEPAXI@Z PROC			; ioObjectCountItem::`scalar deleting destructor', COMDAT
; _this$ = ecx
  00000	55		 push	 ebp
  00001	8b ec		 mov	 ebp, esp
  00003	56		 push	 esi
  00004	8b f1		 mov	 esi, ecx
  00006	e8 00 00 00 00	 call	 ??1ioObjectCountItem@@UAE@XZ ; ioObjectCountItem::~ioObjectCountItem
  0000b	f6 45 08 01	 test	 BYTE PTR ___flags$[ebp], 1
  0000f	74 07		 je	 SHORT $LN1@scalar@4
  00011	56		 push	 esi
  00012	e8 00 00 00 00	 call	 ??3@YAXPAX@Z		; operator delete
  00017	59		 pop	 ecx
$LN1@scalar@4:
  00018	8b c6		 mov	 eax, esi
  0001a	5e		 pop	 esi
  0001b	5d		 pop	 ebp
  0001c	c2 04 00	 ret	 4
??_GioObjectCountItem@@UAEPAXI@Z ENDP			; ioObjectCountItem::`scalar deleting destructor'
_TEXT	ENDS
PUBLIC	??_C@_0O@DDLNPLNB@set_use_count?$AA@		; `string'
PUBLIC	_rkLoader$GSCopy$
PUBLIC	__$ArrayPad$
EXTRN	__imp__wsprintfA:PROC
EXTRN	?LoadProperty@ioObjectItem@@UAEXAAVioINILoader@@@Z:PROC ; ioObjectItem::LoadProperty
;	COMDAT ??_C@_0O@DDLNPLNB@set_use_count?$AA@
; File d:\lost saga for developer\youtube\tutorial\source\src\lsclient\stringprotect.h
CONST	SEGMENT
??_C@_0O@DDLNPLNB@set_use_count?$AA@ DB 'set_use_count', 00H ; `string'
; Function compile flags: /Ogsp
; File d:\lost saga for developer\youtube\tutorial\source\src\lsclient\ioobjectcountitem.cpp
CONST	ENDS
;	COMDAT ?LoadProperty@ioObjectCountItem@@UAEXAAVioINILoader@@@Z
_TEXT	SEGMENT
tv4695 = -312						; size = 4
$T627052 = -312						; size = 4
_dwResetTime$619875 = -308				; size = 4
_i$619718 = -308					; size = 4
_value$626733 = -304					; size = 4
_nDelayCnt$ = -304					; size = 4
_rkLoader$GSCopy$ = -300				; size = 4
_value$626863 = -293					; size = 1
_value$626602 = -293					; size = 1
_value$626472 = -293					; size = 1
_szBuf$ = -292						; size = 260
__k$626763 = -32					; size = 20
__k$626490 = -32					; size = 19
__k$626360 = -32					; size = 22
___encStr$619725 = -32					; size = 20
__k$626900 = -28					; size = 15
__k$626620 = -24					; size = 13
__$ArrayPad$ = -4					; size = 4
_rkLoader$ = 8						; size = 4
?LoadProperty@ioObjectCountItem@@UAEXAAVioINILoader@@@Z PROC ; ioObjectCountItem::LoadProperty, COMDAT
; _this$ = ecx

; 56   : {

  00000	55		 push	 ebp
  00001	8b ec		 mov	 ebp, esp
  00003	81 ec 38 01 00
	00		 sub	 esp, 312		; 00000138H
  00009	a1 00 00 00 00	 mov	 eax, DWORD PTR ___security_cookie
  0000e	33 c5		 xor	 eax, ebp
  00010	89 45 fc	 mov	 DWORD PTR __$ArrayPad$[ebp], eax
  00013	53		 push	 ebx
  00014	56		 push	 esi
  00015	57		 push	 edi
  00016	8b 7d 08	 mov	 edi, DWORD PTR _rkLoader$[ebp]

; 57   : 	ioObjectItem::LoadProperty( rkLoader );

  00019	57		 push	 edi
  0001a	8b f1		 mov	 esi, ecx

; 71   : 	{
; 72   : 		wsprintf_e( szBuf, "reset_attack%d_time", i+1 );

  0001c	89 bd d4 fe ff
	ff		 mov	 DWORD PTR _rkLoader$GSCopy$[ebp], edi
  00022	e8 00 00 00 00	 call	 ?LoadProperty@ioObjectItem@@UAEXAAVioINILoader@@@Z ; ioObjectItem::LoadProperty
  00027	6a 01		 push	 1
  00029	8b cf		 mov	 ecx, edi
  0002b	8b 3d 00 00 00
	00		 mov	 edi, DWORD PTR __imp_?LoadBool@ioINILoader@@QAE_NPBD_N@Z
  00031	68 00 00 00 00	 push	 OFFSET ??_C@_0O@DDLNPLNB@set_use_count?$AA@
  00036	ff d7		 call	 edi
  00038	6a 05		 push	 5
  0003a	88 86 f4 1b 00
	00		 mov	 BYTE PTR [esi+7156], al
  00040	c7 45 e0 88 82
	8a 88		 mov	 DWORD PTR __k$626360[ebp], -2004188536 ; 888a8288H
  00047	c7 45 e4 81 89
	b4 85		 mov	 DWORD PTR __k$626360[ebp+4], -2051765887 ; 85b48981H
  0004e	c7 45 e8 8f 86
	8e 89		 mov	 DWORD PTR __k$626360[ebp+8], -1987148145 ; 898e868fH
  00055	c7 45 ec 99 b3
	8f 8f		 mov	 DWORD PTR __k$626360[ebp+12], -1886407783 ; 8f8fb399H
  0005c	c7 45 f0 8b 89
	85 99		 mov	 DWORD PTR __k$626360[ebp+16], -1719301749 ; 9985898bH
  00063	8d 45 e0	 lea	 eax, DWORD PTR __k$626360[ebp]
  00066	33 db		 xor	 ebx, ebx
  00068	66 c7 45 f4 88
	00		 mov	 WORD PTR __k$626360[ebp+20], 136 ; 00000088H
  0006e	59		 pop	 ecx
$LL208@LoadProper:

; 58   : 	
; 59   : 	m_bSetUseCount = rkLoader.LoadBool( "set_use_count", true );
; 60   : 	
; 61   : 	m_bEnableObjectDefense = rkLoader.LoadBool_e( "enable_object_defense", false );

  0006f	81 30 ed ec eb
	ea		 xor	 DWORD PTR [eax], -353637139 ; eaebecedH
  00075	83 c0 04	 add	 eax, 4
  00078	49		 dec	 ecx
  00079	75 f4		 jne	 SHORT $LL208@LoadProper
  0007b	8b 8d d4 fe ff
	ff		 mov	 ecx, DWORD PTR _rkLoader$GSCopy$[ebp]
  00081	80 75 f4 ed	 xor	 BYTE PTR __k$626360[ebp+20], -19 ; ffffffedH
  00085	53		 push	 ebx
  00086	8d 45 e0	 lea	 eax, DWORD PTR __k$626360[ebp]
  00089	50		 push	 eax
  0008a	ff d7		 call	 edi
  0008c	88 85 db fe ff
	ff		 mov	 BYTE PTR _value$626472[ebp], al
  00092	8d 85 db fe ff
	ff		 lea	 eax, DWORD PTR _value$626472[ebp]
  00098	50		 push	 eax
  00099	8d 8e 34 1b 00
	00		 lea	 ecx, DWORD PTR [esi+6964]
  0009f	e8 00 00 00 00	 call	 ?EncryptValueToPool@?$CEncrypt@_N@@AAEXPBD@Z ; CEncrypt<bool>::EncryptValueToPool
  000a4	6a 04		 push	 4

; 62   : 	m_bEnableObjectDash = rkLoader.LoadBool_e( "enable_object_dash", false );

  000a6	c7 45 e0 88 82
	8a 88		 mov	 DWORD PTR __k$626490[ebp], -2004188536 ; 888a8288H
  000ad	c7 45 e4 81 89
	b4 85		 mov	 DWORD PTR __k$626490[ebp+4], -2051765887 ; 85b48981H
  000b4	c7 45 e8 8f 86
	8e 89		 mov	 DWORD PTR __k$626490[ebp+8], -1987148145 ; 898e868fH
  000bb	c7 45 ec 99 b3
	8f 8b		 mov	 DWORD PTR __k$626490[ebp+12], -1953516647 ; 8b8fb399H
  000c2	66 c7 45 f0 9e
	84		 mov	 WORD PTR __k$626490[ebp+16], 33950 ; 0000849eH
  000c8	8d 45 e0	 lea	 eax, DWORD PTR __k$626490[ebp]
  000cb	88 5d f2	 mov	 BYTE PTR __k$626490[ebp+18], bl
  000ce	59		 pop	 ecx
$LL316@LoadProper:
  000cf	81 30 ed ec eb
	ea		 xor	 DWORD PTR [eax], -353637139 ; eaebecedH
  000d5	83 c0 04	 add	 eax, 4
  000d8	49		 dec	 ecx
  000d9	75 f4		 jne	 SHORT $LL316@LoadProper
  000db	6a 10		 push	 16			; 00000010H
  000dd	58		 pop	 eax
$LL313@LoadProper:
  000de	8b c8		 mov	 ecx, eax
  000e0	81 e1 03 00 00
	80		 and	 ecx, -2147483645	; 80000003H
  000e6	79 05		 jns	 SHORT $LN695@LoadProper
  000e8	49		 dec	 ecx
  000e9	83 c9 fc	 or	 ecx, -4			; fffffffcH
  000ec	41		 inc	 ecx
$LN695@LoadProper:
  000ed	b2 ed		 mov	 dl, -19			; ffffffedH
  000ef	2a d1		 sub	 dl, cl
  000f1	30 54 05 e0	 xor	 BYTE PTR __k$626490[ebp+eax], dl
  000f5	40		 inc	 eax
  000f6	83 f8 12	 cmp	 eax, 18			; 00000012H
  000f9	7c e3		 jl	 SHORT $LL313@LoadProper
  000fb	8b 8d d4 fe ff
	ff		 mov	 ecx, DWORD PTR _rkLoader$GSCopy$[ebp]
  00101	53		 push	 ebx
  00102	8d 45 e0	 lea	 eax, DWORD PTR __k$626490[ebp]
  00105	50		 push	 eax
  00106	ff d7		 call	 edi
  00108	88 85 db fe ff
	ff		 mov	 BYTE PTR _value$626602[ebp], al
  0010e	8d 85 db fe ff
	ff		 lea	 eax, DWORD PTR _value$626602[ebp]
  00114	50		 push	 eax
  00115	8d 8e 64 1b 00
	00		 lea	 ecx, DWORD PTR [esi+7012]
  0011b	e8 00 00 00 00	 call	 ?EncryptValueToPool@?$CEncrypt@_N@@AAEXPBD@Z ; CEncrypt<bool>::EncryptValueToPool
  00120	6a 03		 push	 3

; 63   : 
; 64   : 	m_dwProtectTime = (DWORD)rkLoader.LoadInt_e( "protect_time", 0 );

  00122	c7 45 e8 9d 9e
	84 9e		 mov	 DWORD PTR __k$626620[ebp], -1635475811 ; 9e849e9dH
  00129	c7 45 ec 88 8f
	9f b5		 mov	 DWORD PTR __k$626620[ebp+4], -1247834232 ; b59f8f88H
  00130	c7 45 f0 99 85
	86 8f		 mov	 DWORD PTR __k$626620[ebp+8], -1887009383 ; 8f868599H
  00137	8d 45 e8	 lea	 eax, DWORD PTR __k$626620[ebp]
  0013a	88 5d f4	 mov	 BYTE PTR __k$626620[ebp+12], bl
  0013d	59		 pop	 ecx
$LL424@LoadProper:
  0013e	81 30 ed ec eb
	ea		 xor	 DWORD PTR [eax], -353637139 ; eaebecedH
  00144	83 c0 04	 add	 eax, 4
  00147	49		 dec	 ecx
  00148	75 f4		 jne	 SHORT $LL424@LoadProper
  0014a	8b 8d d4 fe ff
	ff		 mov	 ecx, DWORD PTR _rkLoader$GSCopy$[ebp]
  00150	53		 push	 ebx
  00151	8d 45 e8	 lea	 eax, DWORD PTR __k$626620[ebp]
  00154	50		 push	 eax
  00155	ff 15 00 00 00
	00		 call	 DWORD PTR __imp_?LoadInt@ioINILoader@@QAEHPBDH@Z
  0015b	89 85 d0 fe ff
	ff		 mov	 DWORD PTR _value$626733[ebp], eax
  00161	8d 85 d0 fe ff
	ff		 lea	 eax, DWORD PTR _value$626733[ebp]
  00167	50		 push	 eax
  00168	8d 8e 94 1b 00
	00		 lea	 ecx, DWORD PTR [esi+7060]
  0016e	e8 00 00 00 00	 call	 ?EncryptValueToPool@?$CEncrypt@K@@AAEXPBD@Z ; CEncrypt<unsigned long>::EncryptValueToPool
  00173	6a 04		 push	 4

; 65   : 	m_bJumpAttackProtect = rkLoader.LoadBool_e( "jump_attack_protect", false );

  00175	c7 45 e0 87 99
	86 9a		 mov	 DWORD PTR __k$626763[ebp], -1702454905 ; 9a869987H
  0017c	c7 45 e4 b2 8d
	9f 9e		 mov	 DWORD PTR __k$626763[ebp+4], -1633710670 ; 9e9f8db2H
  00183	c7 45 e8 8c 8f
	80 b5		 mov	 DWORD PTR __k$626763[ebp+8], -1249865844 ; b5808f8cH
  0018a	c7 45 ec 9d 9e
	84 9e		 mov	 DWORD PTR __k$626763[ebp+12], -1635475811 ; 9e849e9dH
  00191	8d 45 e0	 lea	 eax, DWORD PTR __k$626763[ebp]
  00194	c7 45 f0 88 8f
	9f 00		 mov	 DWORD PTR __k$626763[ebp+16], 10456968 ; 009f8f88H
  0019b	59		 pop	 ecx
$LL532@LoadProper:
  0019c	81 30 ed ec eb
	ea		 xor	 DWORD PTR [eax], -353637139 ; eaebecedH
  001a2	83 c0 04	 add	 eax, 4
  001a5	49		 dec	 ecx
  001a6	75 f4		 jne	 SHORT $LL532@LoadProper
  001a8	6a 10		 push	 16			; 00000010H
  001aa	58		 pop	 eax
$LL529@LoadProper:
  001ab	8b c8		 mov	 ecx, eax
  001ad	81 e1 03 00 00
	80		 and	 ecx, -2147483645	; 80000003H
  001b3	79 05		 jns	 SHORT $LN696@LoadProper
  001b5	49		 dec	 ecx
  001b6	83 c9 fc	 or	 ecx, -4			; fffffffcH
  001b9	41		 inc	 ecx
$LN696@LoadProper:
  001ba	b2 ed		 mov	 dl, -19			; ffffffedH
  001bc	2a d1		 sub	 dl, cl
  001be	30 54 05 e0	 xor	 BYTE PTR __k$626763[ebp+eax], dl
  001c2	40		 inc	 eax
  001c3	83 f8 13	 cmp	 eax, 19			; 00000013H
  001c6	7c e3		 jl	 SHORT $LL529@LoadProper
  001c8	8b 8d d4 fe ff
	ff		 mov	 ecx, DWORD PTR _rkLoader$GSCopy$[ebp]
  001ce	53		 push	 ebx
  001cf	8d 45 e0	 lea	 eax, DWORD PTR __k$626763[ebp]
  001d2	50		 push	 eax
  001d3	ff d7		 call	 edi
  001d5	88 85 db fe ff
	ff		 mov	 BYTE PTR _value$626863[ebp], al
  001db	8d 85 db fe ff
	ff		 lea	 eax, DWORD PTR _value$626863[ebp]
  001e1	50		 push	 eax
  001e2	8d 8e c4 1b 00
	00		 lea	 ecx, DWORD PTR [esi+7108]
  001e8	e8 00 00 00 00	 call	 ?EncryptValueToPool@?$CEncrypt@_N@@AAEXPBD@Z ; CEncrypt<bool>::EncryptValueToPool
  001ed	6a 03		 push	 3

; 66   : 
; 67   : 	char szBuf[MAX_PATH];
; 68   : 	int nDelayCnt = rkLoader.LoadInt_e( "reset_time_cnt", 0 );

  001ef	c7 45 e4 9f 89
	98 8f		 mov	 DWORD PTR __k$626900[ebp], -1885828705 ; 8f98899fH
  001f6	c7 45 e8 99 b3
	9f 83		 mov	 DWORD PTR __k$626900[ebp+4], -2086685799 ; 839fb399H
  001fd	c7 45 ec 80 89
	b4 89		 mov	 DWORD PTR __k$626900[ebp+8], -1984657024 ; 89b48980H
  00204	66 c7 45 f0 83
	98		 mov	 WORD PTR __k$626900[ebp+12], 39043 ; 00009883H
  0020a	8d 45 e4	 lea	 eax, DWORD PTR __k$626900[ebp]
  0020d	88 5d f2	 mov	 BYTE PTR __k$626900[ebp+14], bl
  00210	59		 pop	 ecx
$LL640@LoadProper:
  00211	81 30 ed ec eb
	ea		 xor	 DWORD PTR [eax], -353637139 ; eaebecedH
  00217	83 c0 04	 add	 eax, 4
  0021a	49		 dec	 ecx
  0021b	75 f4		 jne	 SHORT $LL640@LoadProper
  0021d	6a 0c		 push	 12			; 0000000cH
  0021f	5f		 pop	 edi
$LL637@LoadProper:
  00220	8b c7		 mov	 eax, edi
  00222	25 03 00 00 80	 and	 eax, -2147483645	; 80000003H
  00227	79 05		 jns	 SHORT $LN697@LoadProper
  00229	48		 dec	 eax
  0022a	83 c8 fc	 or	 eax, -4			; fffffffcH
  0022d	40		 inc	 eax
$LN697@LoadProper:
  0022e	b1 ed		 mov	 cl, -19			; ffffffedH
  00230	2a c8		 sub	 cl, al
  00232	30 4c 3d e4	 xor	 BYTE PTR __k$626900[ebp+edi], cl
  00236	47		 inc	 edi
  00237	83 ff 0e	 cmp	 edi, 14			; 0000000eH
  0023a	7c e4		 jl	 SHORT $LL637@LoadProper
  0023c	8b 8d d4 fe ff
	ff		 mov	 ecx, DWORD PTR _rkLoader$GSCopy$[ebp]
  00242	8b 3d 00 00 00
	00		 mov	 edi, DWORD PTR __imp_?LoadInt@ioINILoader@@QAEHPBDH@Z
  00248	53		 push	 ebx
  00249	8d 45 e4	 lea	 eax, DWORD PTR __k$626900[ebp]
  0024c	50		 push	 eax
  0024d	ff d7		 call	 edi

; 69   : 	m_ResetTimeList.clear();

  0024f	8b 8e f8 1b 00
	00		 mov	 ecx, DWORD PTR [esi+7160]
  00255	89 85 d0 fe ff
	ff		 mov	 DWORD PTR _nDelayCnt$[ebp], eax
  0025b	8b 86 fc 1b 00
	00		 mov	 eax, DWORD PTR [esi+7164]
  00261	50		 push	 eax
  00262	51		 push	 ecx
  00263	8d 85 c8 fe ff
	ff		 lea	 eax, DWORD PTR $T627052[ebp]
  00269	50		 push	 eax
  0026a	8d 8e f8 1b 00
	00		 lea	 ecx, DWORD PTR [esi+7160]
  00270	e8 00 00 00 00	 call	 ?erase@?$vector@KV?$allocator@K@std@@@std@@QAE?AV?$_Vector_iterator@V?$_Vector_val@KV?$allocator@K@std@@@std@@@2@V?$_Vector_const_iterator@V?$_Vector_val@KV?$allocator@K@std@@@std@@@2@0@Z ; std::vector<unsigned long,std::allocator<unsigned long> >::erase

; 70   : 	for ( int i=0; i<nDelayCnt; i++ )

  00275	89 9d cc fe ff
	ff		 mov	 DWORD PTR _i$619718[ebp], ebx
  0027b	39 9d d0 fe ff
	ff		 cmp	 DWORD PTR _nDelayCnt$[ebp], ebx
  00281	0f 8e b7 00 00
	00		 jle	 $LN100@LoadProper
$LL102@LoadProper:

; 69   : 	m_ResetTimeList.clear();

  00287	6a 04		 push	 4

; 71   : 	{
; 72   : 		wsprintf_e( szBuf, "reset_attack%d_time", i+1 );

  00289	c7 45 e0 9f 89
	98 8f		 mov	 DWORD PTR ___encStr$619725[ebp], -1885828705 ; 8f98899fH
  00290	c7 45 e4 99 b3
	8a 9e		 mov	 DWORD PTR ___encStr$619725[ebp+4], -1635077223 ; 9e8ab399H
  00297	c7 45 e8 99 8d
	88 81		 mov	 DWORD PTR ___encStr$619725[ebp+8], -2121757287 ; 81888d99H
  0029e	c7 45 ec c8 88
	b4 9e		 mov	 DWORD PTR ___encStr$619725[ebp+12], -1632335672 ; 9eb488c8H
  002a5	8d 45 e0	 lea	 eax, DWORD PTR ___encStr$619725[ebp]
  002a8	c7 45 f0 84 81
	8e 00		 mov	 DWORD PTR ___encStr$619725[ebp+16], 9339268 ; 008e8184H
  002af	59		 pop	 ecx
$LL666@LoadProper:
  002b0	81 30 ed ec eb
	ea		 xor	 DWORD PTR [eax], -353637139 ; eaebecedH
  002b6	83 c0 04	 add	 eax, 4
  002b9	49		 dec	 ecx
  002ba	75 f4		 jne	 SHORT $LL666@LoadProper
  002bc	6a 10		 push	 16			; 00000010H
  002be	58		 pop	 eax
$LL663@LoadProper:
  002bf	8b c8		 mov	 ecx, eax
  002c1	81 e1 03 00 00
	80		 and	 ecx, -2147483645	; 80000003H
  002c7	79 05		 jns	 SHORT $LN698@LoadProper
  002c9	49		 dec	 ecx
  002ca	83 c9 fc	 or	 ecx, -4			; fffffffcH
  002cd	41		 inc	 ecx
$LN698@LoadProper:
  002ce	b2 ed		 mov	 dl, -19			; ffffffedH
  002d0	2a d1		 sub	 dl, cl
  002d2	30 54 05 e0	 xor	 BYTE PTR ___encStr$619725[ebp+eax], dl
  002d6	40		 inc	 eax
  002d7	83 f8 13	 cmp	 eax, 19			; 00000013H
  002da	7c e3		 jl	 SHORT $LL663@LoadProper
  002dc	8b 85 cc fe ff
	ff		 mov	 eax, DWORD PTR _i$619718[ebp]
  002e2	40		 inc	 eax
  002e3	50		 push	 eax
  002e4	89 85 c8 fe ff
	ff		 mov	 DWORD PTR tv4695[ebp], eax
  002ea	8d 45 e0	 lea	 eax, DWORD PTR ___encStr$619725[ebp]
  002ed	50		 push	 eax
  002ee	8d 85 dc fe ff
	ff		 lea	 eax, DWORD PTR _szBuf$[ebp]
  002f4	50		 push	 eax
  002f5	ff 15 00 00 00
	00		 call	 DWORD PTR __imp__wsprintfA

; 73   : 		DWORD dwResetTime = rkLoader.LoadInt( szBuf, 0 );

  002fb	8b 8d d4 fe ff
	ff		 mov	 ecx, DWORD PTR _rkLoader$GSCopy$[ebp]
  00301	83 c4 0c	 add	 esp, 12			; 0000000cH
  00304	53		 push	 ebx
  00305	8d 85 dc fe ff
	ff		 lea	 eax, DWORD PTR _szBuf$[ebp]
  0030b	50		 push	 eax
  0030c	ff d7		 call	 edi
  0030e	89 85 cc fe ff
	ff		 mov	 DWORD PTR _dwResetTime$619875[ebp], eax

; 74   : 		m_ResetTimeList.push_back( dwResetTime );

  00314	8d 85 cc fe ff
	ff		 lea	 eax, DWORD PTR _dwResetTime$619875[ebp]
  0031a	50		 push	 eax
  0031b	8d 8e f8 1b 00
	00		 lea	 ecx, DWORD PTR [esi+7160]
  00321	e8 00 00 00 00	 call	 ?push_back@?$vector@KV?$allocator@K@std@@@std@@QAEXABK@Z ; std::vector<unsigned long,std::allocator<unsigned long> >::push_back
  00326	8b 85 c8 fe ff
	ff		 mov	 eax, DWORD PTR tv4695[ebp]
  0032c	89 85 cc fe ff
	ff		 mov	 DWORD PTR _i$619718[ebp], eax
  00332	3b 85 d0 fe ff
	ff		 cmp	 eax, DWORD PTR _nDelayCnt$[ebp]
  00338	0f 8c 49 ff ff
	ff		 jl	 $LL102@LoadProper
$LN100@LoadProper:

; 75   : 	}
; 76   : }

  0033e	8b 4d fc	 mov	 ecx, DWORD PTR __$ArrayPad$[ebp]
  00341	5f		 pop	 edi
  00342	5e		 pop	 esi
  00343	33 cd		 xor	 ecx, ebp
  00345	5b		 pop	 ebx
  00346	e8 00 00 00 00	 call	 @__security_check_cookie@4
  0034b	c9		 leave
  0034c	c2 04 00	 ret	 4
?LoadProperty@ioObjectCountItem@@UAEXAAVioINILoader@@@Z ENDP ; ioObjectCountItem::LoadProperty
_TEXT	ENDS
PUBLIC	_pOwner$GSCopy$
EXTRN	?SetJumpState@ioBaseChar@@QAEX_N@Z:PROC		; ioBaseChar::SetJumpState
EXTRN	?IsBuffLimitJump@ioBaseChar@@QBE_NXZ:PROC	; ioBaseChar::IsBuffLimitJump
EXTRN	?SendDashState@ioBaseChar@@QAEX_N0@Z:PROC	; ioBaseChar::SendDashState
EXTRN	?SetDashState@ioBaseChar@@QAEX_N@Z:PROC		; ioBaseChar::SetDashState
EXTRN	?ChangeDirectionByInputDir@ioBaseChar@@QAE_N_N0@Z:PROC ; ioBaseChar::ChangeDirectionByInputDir
EXTRN	?HasBuff@ioBaseChar@@QBE_NH@Z:PROC		; ioBaseChar::HasBuff
EXTRN	__ftol2:PROC
;	COMDAT xdata$x
; File c:\program files (x86)\microsoft visual studio 10.0\vc\include\xmemory
xdata$x	SEGMENT
__unwindtable$?ProcessCancel@ioObjectCountItem@@MAE_NPAVioBaseChar@@@Z DD 0ffffffffH
	DD	FLAT:__unwindfunclet$?ProcessCancel@ioObjectCountItem@@MAE_NPAVioBaseChar@@@Z$0
	DD	00H
	DD	FLAT:__unwindfunclet$?ProcessCancel@ioObjectCountItem@@MAE_NPAVioBaseChar@@@Z$2
__ehfuncinfo$?ProcessCancel@ioObjectCountItem@@MAE_NPAVioBaseChar@@@Z DD 019930522H
	DD	02H
	DD	FLAT:__unwindtable$?ProcessCancel@ioObjectCountItem@@MAE_NPAVioBaseChar@@@Z
	DD	2 DUP(00H)
	DD	2 DUP(00H)
	DD	00H
	DD	01H
; Function compile flags: /Ogsp
; File d:\lost saga for developer\youtube\tutorial\source\src\lsclient\ioobjectcountitem.cpp
xdata$x	ENDS
;	COMDAT ?ProcessCancel@ioObjectCountItem@@MAE_NPAVioBaseChar@@@Z
_TEXT	SEGMENT
$T627258 = -80						; size = 16
tv1354 = -64						; size = 4
_pOwner$GSCopy$ = -60					; size = 4
_vTimeList$ = -56					; size = 12
tv1219 = -44						; size = 4
$T627134 = -44						; size = 4
$T627136 = -44						; size = 4
_dwCurTime$ = -40					; size = 4
_iAniID$ = -40						; size = 4
_szEncEventType$627158 = -36				; size = 13
__$EHRec$ = -12						; size = 12
_pOwner$ = 8						; size = 4
?ProcessCancel@ioObjectCountItem@@MAE_NPAVioBaseChar@@@Z PROC ; ioObjectCountItem::ProcessCancel, COMDAT
; _this$ = ecx

; 324  : {

  00000	6a 44		 push	 68			; 00000044H
  00002	b8 00 00 00 00	 mov	 eax, __ehhandler$?ProcessCancel@ioObjectCountItem@@MAE_NPAVioBaseChar@@@Z
  00007	e8 00 00 00 00	 call	 __EH_prolog3_GS
  0000c	8b 75 08	 mov	 esi, DWORD PTR _pOwner$[ebp]
  0000f	8b f9		 mov	 edi, ecx

; 325  : 	if( m_szCurAni.IsEmpty() )

  00011	8d 8f 10 0f 00
	00		 lea	 ecx, DWORD PTR [edi+3856]

; 363  : 			{
; 364  : 				pOwner->SetJumpState();

  00017	89 75 c4	 mov	 DWORD PTR _pOwner$GSCopy$[ebp], esi
  0001a	ff 15 00 00 00
	00		 call	 DWORD PTR __imp_?IsEmpty@ioHashString@@QBE_NXZ
  00020	84 c0		 test	 al, al
  00022	74 0a		 je	 SHORT $LN11@ProcessCan
$LN237@ProcessCan:

; 326  : 		return false;

  00024	32 c0		 xor	 al, al
$LN12@ProcessCan:

; 375  : 	}
; 376  : 
; 377  : 	return false;
; 378  : }

  00026	e8 00 00 00 00	 call	 __EH_epilog3_GS
  0002b	c2 04 00	 ret	 4
$LN11@ProcessCan:

; 327  : 
; 328  : 	if( !pOwner ) return false;

  0002e	33 db		 xor	 ebx, ebx
  00030	3b f3		 cmp	 esi, ebx
  00032	74 f0		 je	 SHORT $LN237@ProcessCan

; 329  : 
; 330  : 	ioEntityGroup *pGrp = pOwner->GetGroup();

  00034	8b 76 04	 mov	 esi, DWORD PTR [esi+4]

; 331  : 	if( !pGrp ) return false;

  00037	3b f3		 cmp	 esi, ebx
  00039	74 e9		 je	 SHORT $LN237@ProcessCan

; 332  : 
; 333  : 	int iAniID = pGrp->GetAnimationIdx( m_szCurAni );

  0003b	8d 87 10 0f 00
	00		 lea	 eax, DWORD PTR [edi+3856]
  00041	50		 push	 eax
  00042	8b ce		 mov	 ecx, esi
  00044	ff 15 00 00 00
	00		 call	 DWORD PTR __imp_?GetAnimationIdx@ioEntityGroup@@QAEHABVioHashString@@@Z

; 334  : 
; 335  : 	std::list<float> vTimeList;

  0004a	51		 push	 ecx
  0004b	89 65 d4	 mov	 DWORD PTR $T627136[ebp], esp
  0004e	8d 4d c8	 lea	 ecx, DWORD PTR _vTimeList$[ebp]
  00051	89 45 d8	 mov	 DWORD PTR _iAniID$[ebp], eax
  00054	89 65 d4	 mov	 DWORD PTR $T627134[ebp], esp
  00057	e8 00 00 00 00	 call	 ??0?$_List_val@MV?$allocator@M@std@@@std@@QAE@V?$allocator@M@1@@Z ; std::_List_val<float,std::allocator<float> >::_List_val<float,std::allocator<float> >
  0005c	6a 03		 push	 3
  0005e	89 5d fc	 mov	 DWORD PTR __$EHRec$[ebp+8], ebx

; 336  : 	pGrp->GetAnimationEventTimeList_e( iAniID, "input_jump_s", vTimeList );

  00061	c7 45 dc 84 82
	9b 9f		 mov	 DWORD PTR _szEncEventType$627158[ebp], -1617198460 ; 9f9b8284H
  00068	c7 45 e0 99 b3
	81 9f		 mov	 DWORD PTR _szEncEventType$627158[ebp+4], -1618889831 ; 9f81b399H
  0006f	c7 45 e4 80 9c
	b4 99		 mov	 DWORD PTR _szEncEventType$627158[ebp+8], -1716216704 ; 99b49c80H
  00076	8d 45 dc	 lea	 eax, DWORD PTR _szEncEventType$627158[ebp]
  00079	88 5d e8	 mov	 BYTE PTR _szEncEventType$627158[ebp+12], bl
  0007c	59		 pop	 ecx
$LL126@ProcessCan:
  0007d	81 30 ed ec eb
	ea		 xor	 DWORD PTR [eax], -353637139 ; eaebecedH
  00083	83 c0 04	 add	 eax, 4
  00086	49		 dec	 ecx
  00087	75 f4		 jne	 SHORT $LL126@ProcessCan
  00089	8d 45 dc	 lea	 eax, DWORD PTR _szEncEventType$627158[ebp]
  0008c	50		 push	 eax
  0008d	8d 4d b0	 lea	 ecx, DWORD PTR $T627258[ebp]
  00090	ff 15 00 00 00
	00		 call	 DWORD PTR __imp_??0ioHashString@@QAE@PBD@Z
  00096	8d 45 c8	 lea	 eax, DWORD PTR _vTimeList$[ebp]
  00099	50		 push	 eax
  0009a	8d 45 b0	 lea	 eax, DWORD PTR $T627258[ebp]
  0009d	50		 push	 eax
  0009e	ff 75 d8	 push	 DWORD PTR _iAniID$[ebp]
  000a1	8b ce		 mov	 ecx, esi
  000a3	c6 45 fc 01	 mov	 BYTE PTR __$EHRec$[ebp+8], 1
  000a7	ff 15 00 00 00
	00		 call	 DWORD PTR __imp_?GetAnimationEventTimeList@ioEntityGroup@@QAEHHABVioHashString@@AAV?$list@MV?$allocator@M@std@@@std@@@Z
  000ad	8d 4d b0	 lea	 ecx, DWORD PTR $T627258[ebp]
  000b0	88 5d fc	 mov	 BYTE PTR __$EHRec$[ebp+8], bl
  000b3	ff 15 00 00 00
	00		 call	 DWORD PTR __imp_??1ioHashString@@QAE@XZ

; 337  : 
; 338  : 	if( vTimeList.empty() )

  000b9	39 5d cc	 cmp	 DWORD PTR _vTimeList$[ebp+4], ebx
  000bc	75 18		 jne	 SHORT $LN8@ProcessCan
$LN229@ProcessCan:

; 339  : 		return false;

  000be	8d 4d c8	 lea	 ecx, DWORD PTR _vTimeList$[ebp]
  000c1	e8 00 00 00 00	 call	 ?clear@?$list@MV?$allocator@M@std@@@std@@QAEXXZ ; std::list<float,std::allocator<float> >::clear
  000c6	ff 75 c8	 push	 DWORD PTR _vTimeList$[ebp]
  000c9	e8 00 00 00 00	 call	 ??3@YAXPAX@Z		; operator delete
  000ce	59		 pop	 ecx
  000cf	8a c3		 mov	 al, bl
  000d1	e9 50 ff ff ff	 jmp	 $LN12@ProcessCan
$LN8@ProcessCan:

; 340  : 
; 341  : 	DWORD dwCurTime = FRAMEGETTIME();

  000d6	ff 15 00 00 00
	00		 call	 DWORD PTR __imp_?GetSingleton@ioFrameTimer@@SAAAV1@XZ
  000dc	8b c8		 mov	 ecx, eax
  000de	ff 15 00 00 00
	00		 call	 DWORD PTR __imp_?GetLoopSec@ioFrameTimer@@QBEKXZ
  000e4	89 45 d8	 mov	 DWORD PTR _dwCurTime$[ebp], eax

; 342  : 	std::list< float >::iterator iter = vTimeList.begin();

  000e7	8b 45 c8	 mov	 eax, DWORD PTR _vTimeList$[ebp]
  000ea	8b 30		 mov	 esi, DWORD PTR [eax]

; 343  : 	while( iter != vTimeList.end() )

  000ec	3b f0		 cmp	 esi, eax
  000ee	74 ce		 je	 SHORT $LN229@ProcessCan
  000f0	f3 0f 10 87 20
	0f 00 00	 movss	 xmm0, DWORD PTR [edi+3872]
  000f8	f3 0f 11 45 d4	 movss	 DWORD PTR tv1219[ebp], xmm0
$LL7@ProcessCan:

; 347  : 
; 348  : 		dwTime += m_dwInputCancelCheckTime;

  000fd	d9 46 08	 fld	 DWORD PTR [esi+8]
  00100	e8 00 00 00 00	 call	 __ftol2
  00105	89 45 c0	 mov	 DWORD PTR tv1354[ebp], eax
  00108	db 45 c0	 fild	 DWORD PTR tv1354[ebp]
  0010b	85 c0		 test	 eax, eax
  0010d	79 06		 jns	 SHORT $LN235@ProcessCan
  0010f	d8 05 00 00 00
	00		 fadd	 DWORD PTR __real@4f800000
$LN235@ProcessCan:

; 344  : 	{
; 345  : 		DWORD dwTime = (DWORD)*iter;
; 346  : 		dwTime *= m_fCurAniRate;

  00115	d8 4d d4	 fmul	 DWORD PTR tv1219[ebp]

; 347  : 
; 348  : 		dwTime += m_dwInputCancelCheckTime;

  00118	e8 00 00 00 00	 call	 __ftol2

; 349  : 
; 350  : 		if( m_dwCancelCheckTime > 0 && COMPARE( dwTime, m_dwCancelCheckTime, dwCurTime ) )

  0011d	8b 8f 08 0f 00
	00		 mov	 ecx, DWORD PTR [edi+3848]
  00123	03 87 0c 0f 00
	00		 add	 eax, DWORD PTR [edi+3852]
  00129	3b cb		 cmp	 ecx, ebx
  0012b	76 09		 jbe	 SHORT $LN5@ProcessCan
  0012d	3b c1		 cmp	 eax, ecx
  0012f	72 05		 jb	 SHORT $LN5@ProcessCan
  00131	3b 45 d8	 cmp	 eax, DWORD PTR _dwCurTime$[ebp]
  00134	72 11		 jb	 SHORT $LN224@ProcessCan
$LN5@ProcessCan:

; 365  : 				return true;
; 366  : 			}
; 367  : 
; 368  : 			return false;
; 369  : 		}
; 370  : 
; 371  : 		if( dwTime > dwCurTime )

  00136	3b 45 d8	 cmp	 eax, DWORD PTR _dwCurTime$[ebp]
  00139	77 83		 ja	 SHORT $LN229@ProcessCan

; 372  : 			return false;
; 373  : 
; 374  : 		iter++;

  0013b	8b 36		 mov	 esi, DWORD PTR [esi]
  0013d	3b 75 c8	 cmp	 esi, DWORD PTR _vTimeList$[ebp]
  00140	75 bb		 jne	 SHORT $LL7@ProcessCan

; 365  : 				return true;
; 366  : 			}
; 367  : 
; 368  : 			return false;
; 369  : 		}
; 370  : 
; 371  : 		if( dwTime > dwCurTime )

  00142	e9 77 ff ff ff	 jmp	 $LN229@ProcessCan
$LN224@ProcessCan:

; 351  : 		{
; 352  : 			m_dwCancelCheckTime = dwTime+1;
; 353  : 			
; 354  : 			if( pOwner->IsDirKeyDoubleClick() && !pOwner->HasBuff(BT_DISABLE_DASH) )

  00147	8b 75 c4	 mov	 esi, DWORD PTR _pOwner$GSCopy$[ebp]
  0014a	40		 inc	 eax
  0014b	8d 8e 80 0c 00
	00		 lea	 ecx, DWORD PTR [esi+3200]
  00151	89 87 08 0f 00
	00		 mov	 DWORD PTR [edi+3848], eax
  00157	e8 00 00 00 00	 call	 ?IsDirDoubleClick@ioUserKeyInput@@QBE_NXZ ; ioUserKeyInput::IsDirDoubleClick
  0015c	84 c0		 test	 al, al
  0015e	74 2f		 je	 SHORT $LN4@ProcessCan
  00160	6a 34		 push	 52			; 00000034H
  00162	8b ce		 mov	 ecx, esi
  00164	e8 00 00 00 00	 call	 ?HasBuff@ioBaseChar@@QBE_NH@Z ; ioBaseChar::HasBuff
  00169	84 c0		 test	 al, al
  0016b	75 22		 jne	 SHORT $LN4@ProcessCan

; 355  : 			{
; 356  : 				pOwner->ChangeDirectionByInputDir( false );

  0016d	6a 01		 push	 1
  0016f	53		 push	 ebx
  00170	8b ce		 mov	 ecx, esi
  00172	e8 00 00 00 00	 call	 ?ChangeDirectionByInputDir@ioBaseChar@@QAE_N_N0@Z ; ioBaseChar::ChangeDirectionByInputDir

; 357  : 				pOwner->SetDashState( false );

  00177	53		 push	 ebx
  00178	8b ce		 mov	 ecx, esi
  0017a	e8 00 00 00 00	 call	 ?SetDashState@ioBaseChar@@QAEX_N@Z ; ioBaseChar::SetDashState

; 358  : 				pOwner->SendDashState( false );

  0017f	53		 push	 ebx
  00180	53		 push	 ebx
  00181	8b ce		 mov	 ecx, esi
  00183	e8 00 00 00 00	 call	 ?SendDashState@ioBaseChar@@QAEX_N0@Z ; ioBaseChar::SendDashState
$LN236@ProcessCan:
  00188	b3 01		 mov	 bl, 1
  0018a	e9 2f ff ff ff	 jmp	 $LN229@ProcessCan
$LN4@ProcessCan:

; 359  : 				
; 360  : 				return true;
; 361  : 			}
; 362  : 			else if( m_bEnableJumpState && !pOwner->IsBuffLimitJump() )

  0018f	38 9f 02 0f 00
	00		 cmp	 BYTE PTR [edi+3842], bl
  00195	0f 84 23 ff ff
	ff		 je	 $LN229@ProcessCan
  0019b	8b ce		 mov	 ecx, esi
  0019d	e8 00 00 00 00	 call	 ?IsBuffLimitJump@ioBaseChar@@QBE_NXZ ; ioBaseChar::IsBuffLimitJump
  001a2	84 c0		 test	 al, al
  001a4	0f 85 14 ff ff
	ff		 jne	 $LN229@ProcessCan

; 363  : 			{
; 364  : 				pOwner->SetJumpState();

  001aa	6a 01		 push	 1
  001ac	8b ce		 mov	 ecx, esi
  001ae	e8 00 00 00 00	 call	 ?SetJumpState@ioBaseChar@@QAEX_N@Z ; ioBaseChar::SetJumpState
  001b3	eb d3		 jmp	 SHORT $LN236@ProcessCan
_TEXT	ENDS
;	COMDAT text$x
text$x	SEGMENT
__unwindfunclet$?ProcessCancel@ioObjectCountItem@@MAE_NPAVioBaseChar@@@Z$0:
  00000	8d 4d c8	 lea	 ecx, DWORD PTR _vTimeList$[ebp]
  00003	e9 00 00 00 00	 jmp	 ??1?$list@MV?$allocator@M@std@@@std@@QAE@XZ ; std::list<float,std::allocator<float> >::~list<float,std::allocator<float> >
__unwindfunclet$?ProcessCancel@ioObjectCountItem@@MAE_NPAVioBaseChar@@@Z$2:
  00008	8d 4d b0	 lea	 ecx, DWORD PTR $T627258[ebp]
  0000b	ff 25 00 00 00
	00		 jmp	 DWORD PTR __imp_??1ioHashString@@QAE@XZ
__ehhandler$?ProcessCancel@ioObjectCountItem@@MAE_NPAVioBaseChar@@@Z:
  00011	8b 54 24 08	 mov	 edx, DWORD PTR [esp+8]
  00015	8d 42 0c	 lea	 eax, DWORD PTR [edx+12]
  00018	8b 4a ac	 mov	 ecx, DWORD PTR [edx-84]
  0001b	33 c8		 xor	 ecx, eax
  0001d	e8 00 00 00 00	 call	 @__security_check_cookie@4
  00022	8b 4a fc	 mov	 ecx, DWORD PTR [edx-4]
  00025	33 c8		 xor	 ecx, eax
  00027	e8 00 00 00 00	 call	 @__security_check_cookie@4
  0002c	b8 00 00 00 00	 mov	 eax, OFFSET __ehfuncinfo$?ProcessCancel@ioObjectCountItem@@MAE_NPAVioBaseChar@@@Z
  00031	e9 00 00 00 00	 jmp	 ___CxxFrameHandler3
text$x	ENDS
?ProcessCancel@ioObjectCountItem@@MAE_NPAVioBaseChar@@@Z ENDP ; ioObjectCountItem::ProcessCancel
PUBLIC	??0?$vector@KV?$allocator@K@std@@@std@@QAE@ABV01@@Z ; std::vector<unsigned long,std::allocator<unsigned long> >::vector<unsigned long,std::allocator<unsigned long> >
EXTRN	__EH_prolog3_catch:PROC
;	COMDAT xdata$x
; File c:\program files (x86)\microsoft visual studio 10.0\vc\include\xutility
xdata$x	SEGMENT
__catchsym$??0?$vector@KV?$allocator@K@std@@@std@@QAE@ABV01@@Z$2 DD 040H
	DD	00H
	DD	00H
	DD	FLAT:__catch$??0?$vector@KV?$allocator@K@std@@@std@@QAE@ABV01@@Z$0
__unwindtable$??0?$vector@KV?$allocator@K@std@@@std@@QAE@ABV01@@Z DD 0ffffffffH
	DD	00H
	DD	0ffffffffH
	DD	00H
__tryblocktable$??0?$vector@KV?$allocator@K@std@@@std@@QAE@ABV01@@Z DD 00H
	DD	00H
	DD	01H
	DD	01H
	DD	FLAT:__catchsym$??0?$vector@KV?$allocator@K@std@@@std@@QAE@ABV01@@Z$2
__ehfuncinfo$??0?$vector@KV?$allocator@K@std@@@std@@QAE@ABV01@@Z DD 019930522H
	DD	02H
	DD	FLAT:__unwindtable$??0?$vector@KV?$allocator@K@std@@@std@@QAE@ABV01@@Z
	DD	01H
	DD	FLAT:__tryblocktable$??0?$vector@KV?$allocator@K@std@@@std@@QAE@ABV01@@Z
	DD	2 DUP(00H)
	DD	00H
	DD	01H
; Function compile flags: /Ogsp
; File c:\program files (x86)\microsoft visual studio 10.0\vc\include\vector
xdata$x	ENDS
;	COMDAT ??0?$vector@KV?$allocator@K@std@@@std@@QAE@ABV01@@Z
_TEXT	SEGMENT
_this$ = -20						; size = 4
__$EHRec$ = -16						; size = 16
__Cat$627630 = 8					; size = 1
__Right$ = 8						; size = 4
??0?$vector@KV?$allocator@K@std@@@std@@QAE@ABV01@@Z PROC ; std::vector<unsigned long,std::allocator<unsigned long> >::vector<unsigned long,std::allocator<unsigned long> >, COMDAT
; _this$ = ecx

; 535  : 		{	// construct by copying _Right

  00000	6a 08		 push	 8
  00002	b8 00 00 00 00	 mov	 eax, __ehhandler$??0?$vector@KV?$allocator@K@std@@@std@@QAE@ABV01@@Z
  00007	e8 00 00 00 00	 call	 __EH_prolog3_catch
  0000c	8b f1		 mov	 esi, ecx
  0000e	89 75 ec	 mov	 DWORD PTR _this$[ebp], esi

; 536  : 		if (_Buy(_Right.size()))

  00011	8b 7d 08	 mov	 edi, DWORD PTR __Right$[ebp]
  00014	33 db		 xor	 ebx, ebx
  00016	89 1e		 mov	 DWORD PTR [esi], ebx
  00018	89 5e 04	 mov	 DWORD PTR [esi+4], ebx
  0001b	89 5e 08	 mov	 DWORD PTR [esi+8], ebx
  0001e	8b 47 04	 mov	 eax, DWORD PTR [edi+4]
  00021	2b 07		 sub	 eax, DWORD PTR [edi]
  00023	c1 f8 02	 sar	 eax, 2
  00026	50		 push	 eax
  00027	e8 00 00 00 00	 call	 ?_Buy@?$vector@KV?$allocator@K@std@@@std@@IAE_NI@Z ; std::vector<unsigned long,std::allocator<unsigned long> >::_Buy
  0002c	84 c0		 test	 al, al
  0002e	74 1f		 je	 SHORT $LN7@vector

; 537  : 			_TRY_BEGIN
; 538  : 			this->_Mylast = _Ucopy(_Right.begin(), _Right.end(),
; 539  : 				this->_Myfirst);

  00030	ff 75 08	 push	 DWORD PTR __Cat$627630[ebp]
  00033	8b 0e		 mov	 ecx, DWORD PTR [esi]
  00035	8b 47 04	 mov	 eax, DWORD PTR [edi+4]
  00038	8b 3f		 mov	 edi, DWORD PTR [edi]
  0003a	8d 56 0c	 lea	 edx, DWORD PTR [esi+12]
  0003d	52		 push	 edx
  0003e	51		 push	 ecx
  0003f	50		 push	 eax
  00040	57		 push	 edi
  00041	89 5d fc	 mov	 DWORD PTR __$EHRec$[ebp+12], ebx
  00044	e8 00 00 00 00	 call	 ??$_Uninit_copy@V?$_Vector_const_iterator@V?$_Vector_val@KV?$allocator@K@std@@@std@@@std@@PAKV?$allocator@K@2@@std@@YAPAKV?$_Vector_const_iterator@V?$_Vector_val@KV?$allocator@K@std@@@std@@@0@0PAKAAV?$allocator@K@0@U_Nonscalar_ptr_iterator_tag@0@@Z ; std::_Uninit_copy<std::_Vector_const_iterator<std::_Vector_val<unsigned long,std::allocator<unsigned long> > >,unsigned long *,std::allocator<unsigned long> >
  00049	83 c4 14	 add	 esp, 20			; 00000014H
  0004c	89 46 04	 mov	 DWORD PTR [esi+4], eax
$LN7@vector:

; 543  : 			_CATCH_END
; 544  : 		}

  0004f	8b c6		 mov	 eax, esi
  00051	e8 00 00 00 00	 call	 __EH_epilog3
  00056	c2 04 00	 ret	 4
__catch$??0?$vector@KV?$allocator@K@std@@@std@@QAE@ABV01@@Z$0:

; 540  : 			_CATCH_ALL
; 541  : 			_Tidy();

  00059	8b 4d ec	 mov	 ecx, DWORD PTR _this$[ebp]
  0005c	e8 00 00 00 00	 call	 ?_Tidy@?$vector@KV?$allocator@K@std@@@std@@IAEXXZ ; std::vector<unsigned long,std::allocator<unsigned long> >::_Tidy

; 542  : 			_RERAISE;

  00061	33 db		 xor	 ebx, ebx
  00063	53		 push	 ebx
  00064	53		 push	 ebx
  00065	e8 00 00 00 00	 call	 __CxxThrowException@8
$LN38@vector:
$LN37@vector:
  0006a	cc		 int	 3
_TEXT	ENDS
;	COMDAT text$x
text$x	SEGMENT
__ehhandler$??0?$vector@KV?$allocator@K@std@@@std@@QAE@ABV01@@Z:
  00000	8b 54 24 08	 mov	 edx, DWORD PTR [esp+8]
  00004	8d 42 0c	 lea	 eax, DWORD PTR [edx+12]
  00007	8b 4a e8	 mov	 ecx, DWORD PTR [edx-24]
  0000a	33 c8		 xor	 ecx, eax
  0000c	e8 00 00 00 00	 call	 @__security_check_cookie@4
  00011	b8 00 00 00 00	 mov	 eax, OFFSET __ehfuncinfo$??0?$vector@KV?$allocator@K@std@@@std@@QAE@ABV01@@Z
  00016	e9 00 00 00 00	 jmp	 ___CxxFrameHandler3
text$x	ENDS
??0?$vector@KV?$allocator@K@std@@@std@@QAE@ABV01@@Z ENDP ; std::vector<unsigned long,std::allocator<unsigned long> >::vector<unsigned long,std::allocator<unsigned long> >
PUBLIC	??0ioObjectCountItem@@QAE@ABV0@@Z		; ioObjectCountItem::ioObjectCountItem
EXTRN	??0ioObjectItem@@QAE@ABV0@@Z:PROC		; ioObjectItem::ioObjectItem
;	COMDAT xdata$x
; File d:\lost saga for developer\youtube\tutorial\source\src\lsclient\ioobjectcountitem.cpp
xdata$x	SEGMENT
__ehfuncinfo$??0ioObjectCountItem@@QAE@ABV0@@Z DD 019930522H
	DD	05H
	DD	FLAT:__unwindtable$??0ioObjectCountItem@@QAE@ABV0@@Z
	DD	2 DUP(00H)
	DD	2 DUP(00H)
	DD	00H
	DD	01H
__unwindtable$??0ioObjectCountItem@@QAE@ABV0@@Z DD 0ffffffffH
	DD	FLAT:__unwindfunclet$??0ioObjectCountItem@@QAE@ABV0@@Z$0
	DD	00H
	DD	FLAT:__unwindfunclet$??0ioObjectCountItem@@QAE@ABV0@@Z$1
	DD	01H
	DD	FLAT:__unwindfunclet$??0ioObjectCountItem@@QAE@ABV0@@Z$2
	DD	02H
	DD	FLAT:__unwindfunclet$??0ioObjectCountItem@@QAE@ABV0@@Z$3
	DD	03H
	DD	FLAT:__unwindfunclet$??0ioObjectCountItem@@QAE@ABV0@@Z$4
; Function compile flags: /Ogsp
xdata$x	ENDS
;	COMDAT ??0ioObjectCountItem@@QAE@ABV0@@Z
_TEXT	SEGMENT
_this$ = -16						; size = 4
__$EHRec$ = -12						; size = 12
_rhs$ = 8						; size = 4
??0ioObjectCountItem@@QAE@ABV0@@Z PROC			; ioObjectCountItem::ioObjectCountItem, COMDAT
; _this$ = ecx

; 39   : {

  00000	6a 04		 push	 4
  00002	b8 00 00 00 00	 mov	 eax, __ehhandler$??0ioObjectCountItem@@QAE@ABV0@@Z
  00007	e8 00 00 00 00	 call	 __EH_prolog3
  0000c	8b f1		 mov	 esi, ecx
  0000e	89 75 f0	 mov	 DWORD PTR _this$[ebp], esi
  00011	8b 7d 08	 mov	 edi, DWORD PTR _rhs$[ebp]
  00014	57		 push	 edi
  00015	e8 00 00 00 00	 call	 ??0ioObjectItem@@QAE@ABV0@@Z ; ioObjectItem::ioObjectItem
  0001a	8d 87 34 1b 00
	00		 lea	 eax, DWORD PTR [edi+6964]
  00020	33 db		 xor	 ebx, ebx
  00022	50		 push	 eax
  00023	8d 8e 34 1b 00
	00		 lea	 ecx, DWORD PTR [esi+6964]
  00029	89 5d fc	 mov	 DWORD PTR __$EHRec$[ebp+8], ebx
  0002c	c7 06 00 00 00
	00		 mov	 DWORD PTR [esi], OFFSET ??_7ioObjectCountItem@@6B@
  00032	e8 00 00 00 00	 call	 ??0?$CEncrypt@_N@@QAE@ABV0@@Z ; CEncrypt<bool>::CEncrypt<bool>
  00037	8d 87 64 1b 00
	00		 lea	 eax, DWORD PTR [edi+7012]
  0003d	50		 push	 eax
  0003e	8d 8e 64 1b 00
	00		 lea	 ecx, DWORD PTR [esi+7012]
  00044	c6 45 fc 01	 mov	 BYTE PTR __$EHRec$[ebp+8], 1
  00048	e8 00 00 00 00	 call	 ??0?$CEncrypt@_N@@QAE@ABV0@@Z ; CEncrypt<bool>::CEncrypt<bool>
  0004d	8d 87 94 1b 00
	00		 lea	 eax, DWORD PTR [edi+7060]
  00053	50		 push	 eax
  00054	8d 8e 94 1b 00
	00		 lea	 ecx, DWORD PTR [esi+7060]
  0005a	c6 45 fc 02	 mov	 BYTE PTR __$EHRec$[ebp+8], 2
  0005e	e8 00 00 00 00	 call	 ??0?$CEncrypt@K@@QAE@ABV0@@Z ; CEncrypt<unsigned long>::CEncrypt<unsigned long>
  00063	8d 87 c4 1b 00
	00		 lea	 eax, DWORD PTR [edi+7108]
  00069	50		 push	 eax
  0006a	8d 8e c4 1b 00
	00		 lea	 ecx, DWORD PTR [esi+7108]
  00070	c6 45 fc 03	 mov	 BYTE PTR __$EHRec$[ebp+8], 3
  00074	e8 00 00 00 00	 call	 ??0?$CEncrypt@_N@@QAE@ABV0@@Z ; CEncrypt<bool>::CEncrypt<bool>
  00079	8a 87 f4 1b 00
	00		 mov	 al, BYTE PTR [edi+7156]
  0007f	88 86 f4 1b 00
	00		 mov	 BYTE PTR [esi+7156], al
  00085	8a 87 f5 1b 00
	00		 mov	 al, BYTE PTR [edi+7157]
  0008b	81 c7 f8 1b 00
	00		 add	 edi, 7160		; 00001bf8H
  00091	57		 push	 edi
  00092	8d 8e f8 1b 00
	00		 lea	 ecx, DWORD PTR [esi+7160]
  00098	c6 45 fc 04	 mov	 BYTE PTR __$EHRec$[ebp+8], 4
  0009c	88 86 f5 1b 00
	00		 mov	 BYTE PTR [esi+7157], al
  000a2	e8 00 00 00 00	 call	 ??0?$vector@KV?$allocator@K@std@@@std@@QAE@ABV01@@Z ; std::vector<unsigned long,std::allocator<unsigned long> >::vector<unsigned long,std::allocator<unsigned long> >

; 40   : 	m_ObjectState = OS_NONE;
; 41   : 	m_dwAttackEndTime = 0;
; 42   : 	m_iCurCombo = 0;
; 43   : 
; 44   : 	m_iCurAirJump = 0;
; 45   : 	m_fAirJumpPowerRate = 0.0f;

  000a7	0f 57 c0	 xorps	 xmm0, xmm0
  000aa	89 9e 08 1c 00
	00		 mov	 DWORD PTR [esi+7176], ebx
  000b0	89 9e 0c 1c 00
	00		 mov	 DWORD PTR [esi+7180], ebx
  000b6	89 9e 10 1c 00
	00		 mov	 DWORD PTR [esi+7184], ebx
  000bc	89 9e 58 0f 00
	00		 mov	 DWORD PTR [esi+3928], ebx
  000c2	f3 0f 11 86 48
	0f 00 00	 movss	 DWORD PTR [esi+3912], xmm0

; 46   : 	
; 47   : 	m_iCurUseCount = 0;

  000ca	89 9e 00 1b 00
	00		 mov	 DWORD PTR [esi+6912], ebx

; 48   : 	m_bFirstAttack = false;

  000d0	88 9e 1c 1c 00
	00		 mov	 BYTE PTR [esi+7196], bl

; 49   : }

  000d6	8b c6		 mov	 eax, esi
  000d8	e8 00 00 00 00	 call	 __EH_epilog3
  000dd	c2 04 00	 ret	 4
_TEXT	ENDS
;	COMDAT text$x
text$x	SEGMENT
__unwindfunclet$??0ioObjectCountItem@@QAE@ABV0@@Z$0:
  00000	8b 4d f0	 mov	 ecx, DWORD PTR _this$[ebp]
  00003	e9 00 00 00 00	 jmp	 ??1ioObjectItem@@UAE@XZ	; ioObjectItem::~ioObjectItem
__unwindfunclet$??0ioObjectCountItem@@QAE@ABV0@@Z$1:
  00008	8b 4d f0	 mov	 ecx, DWORD PTR _this$[ebp]
  0000b	81 c1 34 1b 00
	00		 add	 ecx, 6964		; 00001b34H
  00011	e9 00 00 00 00	 jmp	 ??1?$CEncrypt@_N@@UAE@XZ ; CEncrypt<bool>::~CEncrypt<bool>
__unwindfunclet$??0ioObjectCountItem@@QAE@ABV0@@Z$2:
  00016	8b 4d f0	 mov	 ecx, DWORD PTR _this$[ebp]
  00019	81 c1 64 1b 00
	00		 add	 ecx, 7012		; 00001b64H
  0001f	e9 00 00 00 00	 jmp	 ??1?$CEncrypt@_N@@UAE@XZ ; CEncrypt<bool>::~CEncrypt<bool>
__unwindfunclet$??0ioObjectCountItem@@QAE@ABV0@@Z$3:
  00024	8b 4d f0	 mov	 ecx, DWORD PTR _this$[ebp]
  00027	81 c1 94 1b 00
	00		 add	 ecx, 7060		; 00001b94H
  0002d	e9 00 00 00 00	 jmp	 ??1?$CEncrypt@K@@UAE@XZ	; CEncrypt<unsigned long>::~CEncrypt<unsigned long>
__unwindfunclet$??0ioObjectCountItem@@QAE@ABV0@@Z$4:
  00032	8b 4d f0	 mov	 ecx, DWORD PTR _this$[ebp]
  00035	81 c1 c4 1b 00
	00		 add	 ecx, 7108		; 00001bc4H
  0003b	e9 00 00 00 00	 jmp	 ??1?$CEncrypt@_N@@UAE@XZ ; CEncrypt<bool>::~CEncrypt<bool>
__ehhandler$??0ioObjectCountItem@@QAE@ABV0@@Z:
  00040	8b 54 24 08	 mov	 edx, DWORD PTR [esp+8]
  00044	8d 42 0c	 lea	 eax, DWORD PTR [edx+12]
  00047	8b 4a ec	 mov	 ecx, DWORD PTR [edx-20]
  0004a	33 c8		 xor	 ecx, eax
  0004c	e8 00 00 00 00	 call	 @__security_check_cookie@4
  00051	b8 00 00 00 00	 mov	 eax, OFFSET __ehfuncinfo$??0ioObjectCountItem@@QAE@ABV0@@Z
  00056	e9 00 00 00 00	 jmp	 ___CxxFrameHandler3
text$x	ENDS
??0ioObjectCountItem@@QAE@ABV0@@Z ENDP			; ioObjectCountItem::ioObjectCountItem
;	COMDAT xdata$x
xdata$x	SEGMENT
__unwindtable$?Clone@ioObjectCountItem@@UAEPAVioItem@@XZ DD 0ffffffffH
	DD	FLAT:__unwindfunclet$?Clone@ioObjectCountItem@@UAEPAVioItem@@XZ$0
__ehfuncinfo$?Clone@ioObjectCountItem@@UAEPAVioItem@@XZ DD 019930522H
	DD	01H
	DD	FLAT:__unwindtable$?Clone@ioObjectCountItem@@UAEPAVioItem@@XZ
	DD	2 DUP(00H)
	DD	2 DUP(00H)
	DD	00H
	DD	01H
; Function compile flags: /Ogsp
xdata$x	ENDS
;	COMDAT ?Clone@ioObjectCountItem@@UAEPAVioItem@@XZ
_TEXT	SEGMENT
$T627664 = -16						; size = 4
__$EHRec$ = -12						; size = 12
?Clone@ioObjectCountItem@@UAEPAVioItem@@XZ PROC		; ioObjectCountItem::Clone, COMDAT
; _this$ = ecx

; 79   : {

  00000	6a 04		 push	 4
  00002	b8 00 00 00 00	 mov	 eax, __ehhandler$?Clone@ioObjectCountItem@@UAEPAVioItem@@XZ
  00007	e8 00 00 00 00	 call	 __EH_prolog3
  0000c	8b f1		 mov	 esi, ecx

; 80   : 	return new ioObjectCountItem( *this );

  0000e	68 20 1c 00 00	 push	 7200			; 00001c20H
  00013	e8 00 00 00 00	 call	 ??2@YAPAXI@Z		; operator new
  00018	59		 pop	 ecx
  00019	8b c8		 mov	 ecx, eax
  0001b	89 4d f0	 mov	 DWORD PTR $T627664[ebp], ecx
  0001e	33 c0		 xor	 eax, eax
  00020	89 45 fc	 mov	 DWORD PTR __$EHRec$[ebp+8], eax
  00023	3b c8		 cmp	 ecx, eax
  00025	74 06		 je	 SHORT $LN3@Clone
  00027	56		 push	 esi
  00028	e8 00 00 00 00	 call	 ??0ioObjectCountItem@@QAE@ABV0@@Z ; ioObjectCountItem::ioObjectCountItem
$LN3@Clone:

; 81   : }

  0002d	e8 00 00 00 00	 call	 __EH_epilog3
  00032	c3		 ret	 0
_TEXT	ENDS
;	COMDAT text$x
text$x	SEGMENT
__unwindfunclet$?Clone@ioObjectCountItem@@UAEPAVioItem@@XZ$0:
  00000	ff 75 f0	 push	 DWORD PTR $T627664[ebp]
  00003	e8 00 00 00 00	 call	 ??3@YAXPAX@Z		; operator delete
  00008	59		 pop	 ecx
  00009	c3		 ret	 0
__ehhandler$?Clone@ioObjectCountItem@@UAEPAVioItem@@XZ:
  0000a	8b 54 24 08	 mov	 edx, DWORD PTR [esp+8]
  0000e	8d 42 0c	 lea	 eax, DWORD PTR [edx+12]
  00011	8b 4a ec	 mov	 ecx, DWORD PTR [edx-20]
  00014	33 c8		 xor	 ecx, eax
  00016	e8 00 00 00 00	 call	 @__security_check_cookie@4
  0001b	b8 00 00 00 00	 mov	 eax, OFFSET __ehfuncinfo$?Clone@ioObjectCountItem@@UAEPAVioItem@@XZ
  00020	e9 00 00 00 00	 jmp	 ___CxxFrameHandler3
text$x	ENDS
?Clone@ioObjectCountItem@@UAEPAVioItem@@XZ ENDP		; ioObjectCountItem::Clone
END
