; Listing generated by Microsoft (R) Optimizing Compiler Version 16.00.30319.01 

	TITLE	D:\Lost Saga For Developer\Youtube\Tutorial\Source\src\LSClient\GUI\ioObserverWnd.cpp
	.686P
	.XMM
	include listing.inc
	.model	flat

INCLUDELIB MSVCRT
INCLUDELIB OLDNAMES

PUBLIC	?_EEM_DS@?$deque@UD3DXVECTOR3@@V?$allocator@UD3DXVECTOR3@@@std@@@std@@2HB ; std::deque<D3DXVECTOR3,std::allocator<D3DXVECTOR3> >::_EEM_DS
PUBLIC	?m_bPosToDefualt@ioObserverRedWnd@@1_NA		; ioObserverRedWnd::m_bPosToDefualt
PUBLIC	?m_bPosToDefualt@ioObserverBlueWnd@@1_NA	; ioObserverBlueWnd::m_bPosToDefualt
_BSS	SEGMENT
?m_bPosToDefualt@ioObserverRedWnd@@1_NA DB 01H DUP (?)	; ioObserverRedWnd::m_bPosToDefualt
?m_bPosToDefualt@ioObserverBlueWnd@@1_NA DB 01H DUP (?)	; ioObserverBlueWnd::m_bPosToDefualt
_BSS	ENDS
;	COMDAT ?_EEM_DS@?$deque@UD3DXVECTOR3@@V?$allocator@UD3DXVECTOR3@@@std@@@std@@2HB
CONST	SEGMENT
?_EEM_DS@?$deque@UD3DXVECTOR3@@V?$allocator@UD3DXVECTOR3@@@std@@@std@@2HB DD 01H ; std::deque<D3DXVECTOR3,std::allocator<D3DXVECTOR3> >::_EEM_DS
CONST	ENDS
PUBLIC	?return1@@YAIXZ					; return1
; Function compile flags: /Ogsp
; File d:\lost saga for developer\youtube\tutorial\source\src\lsclient\stdafx.h
;	COMDAT ?return1@@YAIXZ
_TEXT	SEGMENT
?return1@@YAIXZ PROC					; return1, COMDAT

; 17   : 	__forceinline unsigned int return1() { __asm mov eax, 1 };

  00000	b8 01 00 00 00	 mov	 eax, 1
  00005	c3		 ret	 0
?return1@@YAIXZ ENDP					; return1
_TEXT	ENDS
PUBLIC	?GetState@ioBaseChar@@QBE?AW4CharState@@XZ	; ioBaseChar::GetState
; Function compile flags: /Ogsp
; File d:\lost saga for developer\youtube\tutorial\source\src\lsclient\iobasechar.h
;	COMDAT ?GetState@ioBaseChar@@QBE?AW4CharState@@XZ
_TEXT	SEGMENT
?GetState@ioBaseChar@@QBE?AW4CharState@@XZ PROC		; ioBaseChar::GetState, COMDAT
; _this$ = ecx

; 2156 : 	inline CharState GetState() const { return m_CharState; }	

  00000	8a 81 10 03 00
	00		 mov	 al, BYTE PTR [ecx+784]
  00006	c3		 ret	 0
?GetState@ioBaseChar@@QBE?AW4CharState@@XZ ENDP		; ioBaseChar::GetState
_TEXT	ENDS
PUBLIC	?GetCharName@ioBaseChar@@QBEABVioHashString@@XZ	; ioBaseChar::GetCharName
; Function compile flags: /Ogsp
;	COMDAT ?GetCharName@ioBaseChar@@QBEABVioHashString@@XZ
_TEXT	SEGMENT
?GetCharName@ioBaseChar@@QBEABVioHashString@@XZ PROC	; ioBaseChar::GetCharName, COMDAT
; _this$ = ecx

; 2594 : 	inline const ioHashString& GetCharName() const { return m_Name; }

  00000	8d 81 d4 02 00
	00		 lea	 eax, DWORD PTR [ecx+724]
  00006	c3		 ret	 0
?GetCharName@ioBaseChar@@QBEABVioHashString@@XZ ENDP	; ioBaseChar::GetCharName
_TEXT	ENDS
PUBLIC	??_7bad_alloc@std@@6B@				; std::bad_alloc::`vftable'
PUBLIC	??0bad_alloc@std@@QAE@PBD@Z			; std::bad_alloc::bad_alloc
PUBLIC	??_R4bad_alloc@std@@6B@				; std::bad_alloc::`RTTI Complete Object Locator'
PUBLIC	??_R0?AVbad_alloc@std@@@8			; std::bad_alloc `RTTI Type Descriptor'
PUBLIC	??_R3bad_alloc@std@@8				; std::bad_alloc::`RTTI Class Hierarchy Descriptor'
PUBLIC	??_R2bad_alloc@std@@8				; std::bad_alloc::`RTTI Base Class Array'
PUBLIC	??_R1A@?0A@EA@bad_alloc@std@@8			; std::bad_alloc::`RTTI Base Class Descriptor at (0,-1,0,64)'
PUBLIC	??_R1A@?0A@EA@exception@std@@8			; std::exception::`RTTI Base Class Descriptor at (0,-1,0,64)'
PUBLIC	??_R0?AVexception@std@@@8			; std::exception `RTTI Type Descriptor'
PUBLIC	??_R3exception@std@@8				; std::exception::`RTTI Class Hierarchy Descriptor'
PUBLIC	??_R2exception@std@@8				; std::exception::`RTTI Base Class Array'
EXTRN	__imp_??0exception@std@@QAE@ABQBD@Z:PROC
EXTRN	??_7type_info@@6B@:QWORD			; type_info::`vftable'
EXTRN	??_Ebad_alloc@std@@UAEPAXI@Z:PROC		; std::bad_alloc::`vector deleting destructor'
EXTRN	?what@exception@std@@UBEPBDXZ:PROC		; std::exception::what
;	COMDAT ??_R2exception@std@@8
; File c:\program files (x86)\microsoft visual studio 10.0\vc\include\exception
rdata$r	SEGMENT
??_R2exception@std@@8 DD FLAT:??_R1A@?0A@EA@exception@std@@8 ; std::exception::`RTTI Base Class Array'
rdata$r	ENDS
;	COMDAT ??_R3exception@std@@8
rdata$r	SEGMENT
??_R3exception@std@@8 DD 00H				; std::exception::`RTTI Class Hierarchy Descriptor'
	DD	00H
	DD	01H
	DD	FLAT:??_R2exception@std@@8
rdata$r	ENDS
;	COMDAT ??_R0?AVexception@std@@@8
_DATA	SEGMENT
??_R0?AVexception@std@@@8 DD FLAT:??_7type_info@@6B@	; std::exception `RTTI Type Descriptor'
	DD	00H
	DB	'.?AVexception@std@@', 00H
_DATA	ENDS
;	COMDAT ??_R1A@?0A@EA@exception@std@@8
rdata$r	SEGMENT
??_R1A@?0A@EA@exception@std@@8 DD FLAT:??_R0?AVexception@std@@@8 ; std::exception::`RTTI Base Class Descriptor at (0,-1,0,64)'
	DD	00H
	DD	00H
	DD	0ffffffffH
	DD	00H
	DD	040H
	DD	FLAT:??_R3exception@std@@8
rdata$r	ENDS
;	COMDAT ??_R1A@?0A@EA@bad_alloc@std@@8
rdata$r	SEGMENT
??_R1A@?0A@EA@bad_alloc@std@@8 DD FLAT:??_R0?AVbad_alloc@std@@@8 ; std::bad_alloc::`RTTI Base Class Descriptor at (0,-1,0,64)'
	DD	01H
	DD	00H
	DD	0ffffffffH
	DD	00H
	DD	040H
	DD	FLAT:??_R3bad_alloc@std@@8
rdata$r	ENDS
;	COMDAT ??_R2bad_alloc@std@@8
rdata$r	SEGMENT
??_R2bad_alloc@std@@8 DD FLAT:??_R1A@?0A@EA@bad_alloc@std@@8 ; std::bad_alloc::`RTTI Base Class Array'
	DD	FLAT:??_R1A@?0A@EA@exception@std@@8
rdata$r	ENDS
;	COMDAT ??_R3bad_alloc@std@@8
rdata$r	SEGMENT
??_R3bad_alloc@std@@8 DD 00H				; std::bad_alloc::`RTTI Class Hierarchy Descriptor'
	DD	00H
	DD	02H
	DD	FLAT:??_R2bad_alloc@std@@8
rdata$r	ENDS
;	COMDAT ??_R0?AVbad_alloc@std@@@8
_DATA	SEGMENT
??_R0?AVbad_alloc@std@@@8 DD FLAT:??_7type_info@@6B@	; std::bad_alloc `RTTI Type Descriptor'
	DD	00H
	DB	'.?AVbad_alloc@std@@', 00H
_DATA	ENDS
;	COMDAT ??_R4bad_alloc@std@@6B@
rdata$r	SEGMENT
??_R4bad_alloc@std@@6B@ DD 00H				; std::bad_alloc::`RTTI Complete Object Locator'
	DD	00H
	DD	00H
	DD	FLAT:??_R0?AVbad_alloc@std@@@8
	DD	FLAT:??_R3bad_alloc@std@@8
rdata$r	ENDS
;	COMDAT ??_7bad_alloc@std@@6B@
CONST	SEGMENT
??_7bad_alloc@std@@6B@ DD FLAT:??_R4bad_alloc@std@@6B@	; std::bad_alloc::`vftable'
	DD	FLAT:??_Ebad_alloc@std@@UAEPAXI@Z
	DD	FLAT:?what@exception@std@@UBEPBDXZ
; Function compile flags: /Ogsp
CONST	ENDS
;	COMDAT ??0bad_alloc@std@@QAE@PBD@Z
_TEXT	SEGMENT
__Message$ = 8						; size = 4
??0bad_alloc@std@@QAE@PBD@Z PROC			; std::bad_alloc::bad_alloc, COMDAT
; _this$ = ecx

; 345  : 		{	// construct from message string

  00000	55		 push	 ebp
  00001	8b ec		 mov	 ebp, esp
  00003	56		 push	 esi
  00004	8d 45 08	 lea	 eax, DWORD PTR __Message$[ebp]
  00007	50		 push	 eax
  00008	8b f1		 mov	 esi, ecx
  0000a	ff 15 00 00 00
	00		 call	 DWORD PTR __imp_??0exception@std@@QAE@ABQBD@Z
  00010	c7 06 00 00 00
	00		 mov	 DWORD PTR [esi], OFFSET ??_7bad_alloc@std@@6B@

; 346  : 		}

  00016	8b c6		 mov	 eax, esi
  00018	5e		 pop	 esi
  00019	5d		 pop	 ebp
  0001a	c2 04 00	 ret	 4
??0bad_alloc@std@@QAE@PBD@Z ENDP			; std::bad_alloc::bad_alloc
_TEXT	ENDS
PUBLIC	??1bad_alloc@std@@UAE@XZ			; std::bad_alloc::~bad_alloc
EXTRN	__imp_??1exception@std@@UAE@XZ:PROC
; Function compile flags: /Ogsp
;	COMDAT ??1bad_alloc@std@@UAE@XZ
_TEXT	SEGMENT
??1bad_alloc@std@@UAE@XZ PROC				; std::bad_alloc::~bad_alloc, COMDAT
; _this$ = ecx

; 354  : 		{	// destroy the object

  00000	c7 01 00 00 00
	00		 mov	 DWORD PTR [ecx], OFFSET ??_7bad_alloc@std@@6B@

; 355  : 		}

  00006	ff 25 00 00 00
	00		 jmp	 DWORD PTR __imp_??1exception@std@@UAE@XZ
??1bad_alloc@std@@UAE@XZ ENDP				; std::bad_alloc::~bad_alloc
_TEXT	ENDS
EXTRN	??3@YAXPAX@Z:PROC				; operator delete
; Function compile flags: /Ogsp
;	COMDAT ??_Gbad_alloc@std@@UAEPAXI@Z
_TEXT	SEGMENT
___flags$ = 8						; size = 4
??_Gbad_alloc@std@@UAEPAXI@Z PROC			; std::bad_alloc::`scalar deleting destructor', COMDAT
; _this$ = ecx
  00000	55		 push	 ebp
  00001	8b ec		 mov	 ebp, esp
  00003	56		 push	 esi
  00004	8b f1		 mov	 esi, ecx
  00006	c7 06 00 00 00
	00		 mov	 DWORD PTR [esi], OFFSET ??_7bad_alloc@std@@6B@
  0000c	ff 15 00 00 00
	00		 call	 DWORD PTR __imp_??1exception@std@@UAE@XZ
  00012	f6 45 08 01	 test	 BYTE PTR ___flags$[ebp], 1
  00016	74 07		 je	 SHORT $LN1@scalar
  00018	56		 push	 esi
  00019	e8 00 00 00 00	 call	 ??3@YAXPAX@Z		; operator delete
  0001e	59		 pop	 ecx
$LN1@scalar:
  0001f	8b c6		 mov	 eax, esi
  00021	5e		 pop	 esi
  00022	5d		 pop	 ebp
  00023	c2 04 00	 ret	 4
??_Gbad_alloc@std@@UAEPAXI@Z ENDP			; std::bad_alloc::`scalar deleting destructor'
_TEXT	ENDS
PUBLIC	??2@YAPAXIPAX@Z					; operator new
; Function compile flags: /Ogsp
; File c:\program files (x86)\microsoft visual studio 10.0\vc\include\new
;	COMDAT ??2@YAPAXIPAX@Z
_TEXT	SEGMENT
___formal$ = 8						; size = 4
__Where$ = 12						; size = 4
??2@YAPAXIPAX@Z PROC					; operator new, COMDAT

; 56   : 	{	// construct array with placement at _Where

  00000	55		 push	 ebp
  00001	8b ec		 mov	 ebp, esp

; 57   : 	return (_Where);

  00003	8b 45 0c	 mov	 eax, DWORD PTR __Where$[ebp]

; 58   : 	}

  00006	5d		 pop	 ebp
  00007	c3		 ret	 0
??2@YAPAXIPAX@Z ENDP					; operator new
_TEXT	ENDS
PUBLIC	??3@YAXPAX0@Z					; operator delete
; Function compile flags: /Ogsp
;	COMDAT ??3@YAXPAX0@Z
_TEXT	SEGMENT
___formal$ = 8						; size = 4
___formal$ = 12						; size = 4
??3@YAXPAX0@Z PROC					; operator delete, COMDAT

; 62   : 	}

  00000	c3		 ret	 0
??3@YAXPAX0@Z ENDP					; operator delete
_TEXT	ENDS
PUBLIC	?GetMainDefaultXPos@TimeScoreWnd@@QAEHXZ	; TimeScoreWnd::GetMainDefaultXPos
; Function compile flags: /Ogsp
; File d:\lost saga for developer\youtube\tutorial\source\src\lsclient\gui\timescorewnd.h
;	COMDAT ?GetMainDefaultXPos@TimeScoreWnd@@QAEHXZ
_TEXT	SEGMENT
?GetMainDefaultXPos@TimeScoreWnd@@QAEHXZ PROC		; TimeScoreWnd::GetMainDefaultXPos, COMDAT
; _this$ = ecx

; 175  : 	int GetMainDefaultXPos() { return m_iDefXPos; }

  00000	8b 81 c0 00 00
	00		 mov	 eax, DWORD PTR [ecx+192]
  00006	c3		 ret	 0
?GetMainDefaultXPos@TimeScoreWnd@@QAEHXZ ENDP		; TimeScoreWnd::GetMainDefaultXPos
_TEXT	ENDS
PUBLIC	?GetMainDefaultYPos@TimeScoreWnd@@QAEHXZ	; TimeScoreWnd::GetMainDefaultYPos
; Function compile flags: /Ogsp
;	COMDAT ?GetMainDefaultYPos@TimeScoreWnd@@QAEHXZ
_TEXT	SEGMENT
?GetMainDefaultYPos@TimeScoreWnd@@QAEHXZ PROC		; TimeScoreWnd::GetMainDefaultYPos, COMDAT
; _this$ = ecx

; 176  : 	int GetMainDefaultYPos() { return m_iDefYPos; }

  00000	8b 81 c4 00 00
	00		 mov	 eax, DWORD PTR [ecx+196]
  00006	c3		 ret	 0
?GetMainDefaultYPos@TimeScoreWnd@@QAEHXZ ENDP		; TimeScoreWnd::GetMainDefaultYPos
_TEXT	ENDS
PUBLIC	?InitObserverWnd@ioObserverRedWnd@@QAEXPAVioPlayStage@@@Z ; ioObserverRedWnd::InitObserverWnd
; Function compile flags: /Ogsp
; File d:\lost saga for developer\youtube\tutorial\source\src\lsclient\gui\ioobserverwnd.cpp
;	COMDAT ?InitObserverWnd@ioObserverRedWnd@@QAEXPAVioPlayStage@@@Z
_TEXT	SEGMENT
_pStage$ = 8						; size = 4
?InitObserverWnd@ioObserverRedWnd@@QAEXPAVioPlayStage@@@Z PROC ; ioObserverRedWnd::InitObserverWnd, COMDAT
; _this$ = ecx

; 93   : {

  00000	55		 push	 ebp
  00001	8b ec		 mov	 ebp, esp

; 94   : 	m_pPlayStage = pStage;

  00003	8b 45 08	 mov	 eax, DWORD PTR _pStage$[ebp]
  00006	89 81 90 01 00
	00		 mov	 DWORD PTR [ecx+400], eax

; 95   : }

  0000c	5d		 pop	 ebp
  0000d	c2 04 00	 ret	 4
?InitObserverWnd@ioObserverRedWnd@@QAEXPAVioPlayStage@@@Z ENDP ; ioObserverRedWnd::InitObserverWnd
_TEXT	ENDS
PUBLIC	?_Adopt@_Iterator_base0@std@@QAEXPBX@Z		; std::_Iterator_base0::_Adopt
; Function compile flags: /Ogsp
; File c:\program files (x86)\microsoft visual studio 10.0\vc\include\xutility
;	COMDAT ?_Adopt@_Iterator_base0@std@@QAEXPBX@Z
_TEXT	SEGMENT
___formal$ = 8						; size = 4
?_Adopt@_Iterator_base0@std@@QAEXPBX@Z PROC		; std::_Iterator_base0::_Adopt, COMDAT
; _this$ = ecx

; 49   : 		}

  00000	c2 04 00	 ret	 4
?_Adopt@_Iterator_base0@std@@QAEXPBX@Z ENDP		; std::_Iterator_base0::_Adopt
_TEXT	ENDS
PUBLIC	??_C@_04IAEKAMNC@YPos?$AA@			; `string'
PUBLIC	??_C@_0P@FMHIIAKN@ObserverRedWnd?$AA@		; `string'
PUBLIC	??_C@_04LNCKCFGC@XPos?$AA@			; `string'
PUBLIC	?iwm_create@ioObserverRedWnd@@UAEXXZ		; ioObserverRedWnd::iwm_create
EXTRN	__imp_?GetDerivedPosY@ioWnd@@QBEHXZ:PROC
EXTRN	__imp_?GetDerivedPosX@ioWnd@@QBEHXZ:PROC
EXTRN	__imp_?SetWndPos@ioWnd@@QAEXHH@Z:PROC
EXTRN	?Height@Setting@@SAHXZ:PROC			; Setting::Height
EXTRN	?Width@Setting@@SAHXZ:PROC			; Setting::Width
EXTRN	__imp_?GetYPos@ioWnd@@QBEHXZ:PROC
EXTRN	?GUIPosLoadInt@ioSP2GUIManager@@QAEHPBD0HH@Z:PROC ; ioSP2GUIManager::GUIPosLoadInt
EXTRN	?GetSingleton@ioSP2GUIManager@@SAAAV1@XZ:PROC	; ioSP2GUIManager::GetSingleton
EXTRN	__imp_?GetXPos@ioWnd@@QBEHXZ:PROC
;	COMDAT ??_C@_04IAEKAMNC@YPos?$AA@
; File d:\lost saga for developer\youtube\tutorial\source\src\lsclient\gui\ioobserverwnd.cpp
CONST	SEGMENT
??_C@_04IAEKAMNC@YPos?$AA@ DB 'YPos', 00H		; `string'
CONST	ENDS
;	COMDAT ??_C@_0P@FMHIIAKN@ObserverRedWnd?$AA@
CONST	SEGMENT
??_C@_0P@FMHIIAKN@ObserverRedWnd?$AA@ DB 'ObserverRedWnd', 00H ; `string'
CONST	ENDS
;	COMDAT ??_C@_04LNCKCFGC@XPos?$AA@
CONST	SEGMENT
??_C@_04LNCKCFGC@XPos?$AA@ DB 'XPos', 00H		; `string'
; Function compile flags: /Ogsp
CONST	ENDS
;	COMDAT ?iwm_create@ioObserverRedWnd@@UAEXXZ
_TEXT	SEGMENT
?iwm_create@ioObserverRedWnd@@UAEXXZ PROC		; ioObserverRedWnd::iwm_create, COMDAT
; _this$ = ecx

; 268  : {

  00000	53		 push	 ebx
  00001	56		 push	 esi
  00002	57		 push	 edi

; 269  : 	int iXPos = g_GUIMgr.GUIPosLoadInt( "ObserverRedWnd", "XPos", GetXPos() ,POS_SAVE_VERSION );

  00003	6a 04		 push	 4
  00005	8b f9		 mov	 edi, ecx
  00007	ff 15 00 00 00
	00		 call	 DWORD PTR __imp_?GetXPos@ioWnd@@QBEHXZ
  0000d	50		 push	 eax
  0000e	68 00 00 00 00	 push	 OFFSET ??_C@_04LNCKCFGC@XPos?$AA@
  00013	be 00 00 00 00	 mov	 esi, OFFSET ??_C@_0P@FMHIIAKN@ObserverRedWnd?$AA@
  00018	56		 push	 esi
  00019	e8 00 00 00 00	 call	 ?GetSingleton@ioSP2GUIManager@@SAAAV1@XZ ; ioSP2GUIManager::GetSingleton
  0001e	8b c8		 mov	 ecx, eax
  00020	e8 00 00 00 00	 call	 ?GUIPosLoadInt@ioSP2GUIManager@@QAEHPBD0HH@Z ; ioSP2GUIManager::GUIPosLoadInt

; 270  : 	int iYPos = g_GUIMgr.GUIPosLoadInt( "ObserverRedWnd", "YPos", GetYPos() ,POS_SAVE_VERSION );

  00025	6a 04		 push	 4
  00027	8b cf		 mov	 ecx, edi
  00029	8b d8		 mov	 ebx, eax
  0002b	ff 15 00 00 00
	00		 call	 DWORD PTR __imp_?GetYPos@ioWnd@@QBEHXZ
  00031	50		 push	 eax
  00032	68 00 00 00 00	 push	 OFFSET ??_C@_04IAEKAMNC@YPos?$AA@
  00037	56		 push	 esi
  00038	e8 00 00 00 00	 call	 ?GetSingleton@ioSP2GUIManager@@SAAAV1@XZ ; ioSP2GUIManager::GetSingleton
  0003d	8b c8		 mov	 ecx, eax
  0003f	e8 00 00 00 00	 call	 ?GUIPosLoadInt@ioSP2GUIManager@@QAEHPBD0HH@Z ; ioSP2GUIManager::GUIPosLoadInt
  00044	8b f0		 mov	 esi, eax

; 271  : 
; 272  : 	if( COMPARE( iXPos, 0, Setting::Width() ) && 
; 273  : 		COMPARE( iYPos, 0, Setting::Height() ) )

  00046	85 db		 test	 ebx, ebx
  00048	78 20		 js	 SHORT $LN2@iwm_create
  0004a	e8 00 00 00 00	 call	 ?Width@Setting@@SAHXZ	; Setting::Width
  0004f	3b d8		 cmp	 ebx, eax
  00051	7d 17		 jge	 SHORT $LN2@iwm_create
  00053	85 f6		 test	 esi, esi
  00055	78 13		 js	 SHORT $LN2@iwm_create
  00057	e8 00 00 00 00	 call	 ?Height@Setting@@SAHXZ	; Setting::Height
  0005c	3b f0		 cmp	 esi, eax
  0005e	7d 0a		 jge	 SHORT $LN2@iwm_create

; 274  : 	{
; 275  : 		SetWndPos( iXPos, iYPos );

  00060	56		 push	 esi
  00061	53		 push	 ebx
  00062	8b cf		 mov	 ecx, edi
  00064	ff 15 00 00 00
	00		 call	 DWORD PTR __imp_?SetWndPos@ioWnd@@QAEXHH@Z
$LN2@iwm_create:

; 276  : 	}
; 277  : 
; 278  : 	m_iDefaultX = GetDerivedPosX();

  0006a	8b cf		 mov	 ecx, edi
  0006c	ff 15 00 00 00
	00		 call	 DWORD PTR __imp_?GetDerivedPosX@ioWnd@@QBEHXZ

; 279  : 	m_iDefaultY = GetDerivedPosY();

  00072	8b cf		 mov	 ecx, edi
  00074	89 87 10 02 00
	00		 mov	 DWORD PTR [edi+528], eax
  0007a	ff 15 00 00 00
	00		 call	 DWORD PTR __imp_?GetDerivedPosY@ioWnd@@QBEHXZ
  00080	89 87 14 02 00
	00		 mov	 DWORD PTR [edi+532], eax

; 280  : 
; 281  : 	if( m_bPosToDefualt )

  00086	80 3d 00 00 00
	00 00		 cmp	 BYTE PTR ?m_bPosToDefualt@ioObserverRedWnd@@1_NA, 0 ; ioObserverRedWnd::m_bPosToDefualt
  0008d	74 1e		 je	 SHORT $LN1@iwm_create

; 282  : 	{
; 283  : 		m_bPosToDefualt = false;
; 284  : 		SetPositionToDefault( Setting::Width(), Setting::Height(), true );

  0008f	6a 00		 push	 0
  00091	c6 05 00 00 00
	00 00		 mov	 BYTE PTR ?m_bPosToDefualt@ioObserverRedWnd@@1_NA, 0 ; ioObserverRedWnd::m_bPosToDefualt
  00098	8b 37		 mov	 esi, DWORD PTR [edi]
  0009a	6a 01		 push	 1
  0009c	e8 00 00 00 00	 call	 ?Height@Setting@@SAHXZ	; Setting::Height
  000a1	50		 push	 eax
  000a2	e8 00 00 00 00	 call	 ?Width@Setting@@SAHXZ	; Setting::Width
  000a7	50		 push	 eax
  000a8	8b cf		 mov	 ecx, edi
  000aa	ff 56 30	 call	 DWORD PTR [esi+48]
$LN1@iwm_create:

; 285  : 	}
; 286  : }

  000ad	5f		 pop	 edi
  000ae	5e		 pop	 esi
  000af	5b		 pop	 ebx
  000b0	c3		 ret	 0
?iwm_create@ioObserverRedWnd@@UAEXXZ ENDP		; ioObserverRedWnd::iwm_create
_TEXT	ENDS
PUBLIC	??0RoundInfo@@QAE@ABU0@@Z			; RoundInfo::RoundInfo
EXTRN	__imp_??1ioHashString@@QAE@XZ:PROC
EXTRN	__imp_??0ioHashString@@QAE@ABV0@@Z:PROC
EXTRN	___CxxFrameHandler3:PROC
EXTRN	@__security_check_cookie@4:PROC
EXTRN	__EH_epilog3:PROC
EXTRN	__EH_prolog3:PROC
;	COMDAT xdata$x
xdata$x	SEGMENT
__unwindtable$??0RoundInfo@@QAE@ABU0@@Z DD 0ffffffffH
	DD	FLAT:__unwindfunclet$??0RoundInfo@@QAE@ABU0@@Z$0
__ehfuncinfo$??0RoundInfo@@QAE@ABU0@@Z DD 019930522H
	DD	01H
	DD	FLAT:__unwindtable$??0RoundInfo@@QAE@ABU0@@Z
	DD	2 DUP(00H)
	DD	2 DUP(00H)
	DD	00H
	DD	01H
; Function compile flags: /Ogsp
xdata$x	ENDS
;	COMDAT ??0RoundInfo@@QAE@ABU0@@Z
_TEXT	SEGMENT
_this$ = -16						; size = 4
__$EHRec$ = -12						; size = 12
___that$ = 8						; size = 4
??0RoundInfo@@QAE@ABU0@@Z PROC				; RoundInfo::RoundInfo, COMDAT
; _this$ = ecx
  00000	6a 04		 push	 4
  00002	b8 00 00 00 00	 mov	 eax, __ehhandler$??0RoundInfo@@QAE@ABU0@@Z
  00007	e8 00 00 00 00	 call	 __EH_prolog3
  0000c	8b f1		 mov	 esi, ecx
  0000e	89 75 f0	 mov	 DWORD PTR _this$[ebp], esi
  00011	8b 7d 08	 mov	 edi, DWORD PTR ___that$[ebp]
  00014	8b 1d 00 00 00
	00		 mov	 ebx, DWORD PTR __imp_??0ioHashString@@QAE@ABV0@@Z
  0001a	57		 push	 edi
  0001b	ff d3		 call	 ebx
  0001d	8b 47 10	 mov	 eax, DWORD PTR [edi+16]
  00020	83 65 fc 00	 and	 DWORD PTR __$EHRec$[ebp+8], 0
  00024	89 46 10	 mov	 DWORD PTR [esi+16], eax
  00027	8b 47 14	 mov	 eax, DWORD PTR [edi+20]
  0002a	89 46 14	 mov	 DWORD PTR [esi+20], eax
  0002d	8b 47 18	 mov	 eax, DWORD PTR [edi+24]
  00030	89 46 18	 mov	 DWORD PTR [esi+24], eax
  00033	8d 47 1c	 lea	 eax, DWORD PTR [edi+28]
  00036	50		 push	 eax
  00037	8d 4e 1c	 lea	 ecx, DWORD PTR [esi+28]
  0003a	ff d3		 call	 ebx
  0003c	8b 47 2c	 mov	 eax, DWORD PTR [edi+44]
  0003f	89 46 2c	 mov	 DWORD PTR [esi+44], eax
  00042	8b 47 30	 mov	 eax, DWORD PTR [edi+48]
  00045	89 46 30	 mov	 DWORD PTR [esi+48], eax
  00048	8b 47 34	 mov	 eax, DWORD PTR [edi+52]
  0004b	89 46 34	 mov	 DWORD PTR [esi+52], eax
  0004e	8b 47 38	 mov	 eax, DWORD PTR [edi+56]
  00051	89 46 38	 mov	 DWORD PTR [esi+56], eax
  00054	8b 47 3c	 mov	 eax, DWORD PTR [edi+60]
  00057	89 46 3c	 mov	 DWORD PTR [esi+60], eax
  0005a	8b 47 40	 mov	 eax, DWORD PTR [edi+64]
  0005d	89 46 40	 mov	 DWORD PTR [esi+64], eax
  00060	8b 47 44	 mov	 eax, DWORD PTR [edi+68]
  00063	89 46 44	 mov	 DWORD PTR [esi+68], eax
  00066	8b 47 48	 mov	 eax, DWORD PTR [edi+72]
  00069	89 46 48	 mov	 DWORD PTR [esi+72], eax
  0006c	8b 47 4c	 mov	 eax, DWORD PTR [edi+76]
  0006f	89 46 4c	 mov	 DWORD PTR [esi+76], eax
  00072	8b 47 50	 mov	 eax, DWORD PTR [edi+80]
  00075	89 46 50	 mov	 DWORD PTR [esi+80], eax
  00078	8a 47 54	 mov	 al, BYTE PTR [edi+84]
  0007b	88 46 54	 mov	 BYTE PTR [esi+84], al
  0007e	8a 47 55	 mov	 al, BYTE PTR [edi+85]
  00081	88 46 55	 mov	 BYTE PTR [esi+85], al
  00084	8a 47 56	 mov	 al, BYTE PTR [edi+86]
  00087	88 46 56	 mov	 BYTE PTR [esi+86], al
  0008a	8a 47 57	 mov	 al, BYTE PTR [edi+87]
  0008d	88 46 57	 mov	 BYTE PTR [esi+87], al
  00090	8b 47 58	 mov	 eax, DWORD PTR [edi+88]
  00093	89 46 58	 mov	 DWORD PTR [esi+88], eax
  00096	8b 47 5c	 mov	 eax, DWORD PTR [edi+92]
  00099	89 46 5c	 mov	 DWORD PTR [esi+92], eax
  0009c	8b 47 60	 mov	 eax, DWORD PTR [edi+96]
  0009f	89 46 60	 mov	 DWORD PTR [esi+96], eax
  000a2	8b 47 64	 mov	 eax, DWORD PTR [edi+100]
  000a5	89 46 64	 mov	 DWORD PTR [esi+100], eax
  000a8	8b 47 68	 mov	 eax, DWORD PTR [edi+104]
  000ab	89 46 68	 mov	 DWORD PTR [esi+104], eax
  000ae	8b 47 6c	 mov	 eax, DWORD PTR [edi+108]
  000b1	89 46 6c	 mov	 DWORD PTR [esi+108], eax
  000b4	8b 47 70	 mov	 eax, DWORD PTR [edi+112]
  000b7	89 46 70	 mov	 DWORD PTR [esi+112], eax
  000ba	8b 47 74	 mov	 eax, DWORD PTR [edi+116]
  000bd	89 46 74	 mov	 DWORD PTR [esi+116], eax
  000c0	8a 47 78	 mov	 al, BYTE PTR [edi+120]
  000c3	88 46 78	 mov	 BYTE PTR [esi+120], al
  000c6	8a 47 79	 mov	 al, BYTE PTR [edi+121]
  000c9	88 46 79	 mov	 BYTE PTR [esi+121], al
  000cc	8b 47 7c	 mov	 eax, DWORD PTR [edi+124]
  000cf	89 46 7c	 mov	 DWORD PTR [esi+124], eax
  000d2	8b c6		 mov	 eax, esi
  000d4	e8 00 00 00 00	 call	 __EH_epilog3
  000d9	c2 04 00	 ret	 4
_TEXT	ENDS
;	COMDAT text$x
text$x	SEGMENT
__unwindfunclet$??0RoundInfo@@QAE@ABU0@@Z$0:
  00000	8b 4d f0	 mov	 ecx, DWORD PTR _this$[ebp]
  00003	ff 25 00 00 00
	00		 jmp	 DWORD PTR __imp_??1ioHashString@@QAE@XZ
__ehhandler$??0RoundInfo@@QAE@ABU0@@Z:
  00009	8b 54 24 08	 mov	 edx, DWORD PTR [esp+8]
  0000d	8d 42 0c	 lea	 eax, DWORD PTR [edx+12]
  00010	8b 4a ec	 mov	 ecx, DWORD PTR [edx-20]
  00013	33 c8		 xor	 ecx, eax
  00015	e8 00 00 00 00	 call	 @__security_check_cookie@4
  0001a	b8 00 00 00 00	 mov	 eax, OFFSET __ehfuncinfo$??0RoundInfo@@QAE@ABU0@@Z
  0001f	e9 00 00 00 00	 jmp	 ___CxxFrameHandler3
text$x	ENDS
??0RoundInfo@@QAE@ABU0@@Z ENDP				; RoundInfo::RoundInfo
PUBLIC	??1RoundInfo@@QAE@XZ				; RoundInfo::~RoundInfo
;	COMDAT xdata$x
xdata$x	SEGMENT
__unwindtable$??1RoundInfo@@QAE@XZ DD 0ffffffffH
	DD	FLAT:__unwindfunclet$??1RoundInfo@@QAE@XZ$0
__ehfuncinfo$??1RoundInfo@@QAE@XZ DD 019930522H
	DD	01H
	DD	FLAT:__unwindtable$??1RoundInfo@@QAE@XZ
	DD	2 DUP(00H)
	DD	2 DUP(00H)
	DD	00H
	DD	01H
; Function compile flags: /Ogsp
xdata$x	ENDS
;	COMDAT ??1RoundInfo@@QAE@XZ
_TEXT	SEGMENT
_this$ = -16						; size = 4
__$EHRec$ = -12						; size = 12
??1RoundInfo@@QAE@XZ PROC				; RoundInfo::~RoundInfo, COMDAT
; _this$ = ecx
  00000	6a 04		 push	 4
  00002	b8 00 00 00 00	 mov	 eax, __ehhandler$??1RoundInfo@@QAE@XZ
  00007	e8 00 00 00 00	 call	 __EH_prolog3
  0000c	8b f9		 mov	 edi, ecx
  0000e	89 7d f0	 mov	 DWORD PTR _this$[ebp], edi
  00011	8b 35 00 00 00
	00		 mov	 esi, DWORD PTR __imp_??1ioHashString@@QAE@XZ
  00017	83 65 fc 00	 and	 DWORD PTR __$EHRec$[ebp+8], 0
  0001b	8d 4f 1c	 lea	 ecx, DWORD PTR [edi+28]
  0001e	ff d6		 call	 esi
  00020	83 4d fc ff	 or	 DWORD PTR __$EHRec$[ebp+8], -1
  00024	8b cf		 mov	 ecx, edi
  00026	ff d6		 call	 esi
  00028	e8 00 00 00 00	 call	 __EH_epilog3
  0002d	c3		 ret	 0
_TEXT	ENDS
;	COMDAT text$x
text$x	SEGMENT
__unwindfunclet$??1RoundInfo@@QAE@XZ$0:
  00000	8b 4d f0	 mov	 ecx, DWORD PTR _this$[ebp]
  00003	ff 25 00 00 00
	00		 jmp	 DWORD PTR __imp_??1ioHashString@@QAE@XZ
__ehhandler$??1RoundInfo@@QAE@XZ:
  00009	8b 54 24 08	 mov	 edx, DWORD PTR [esp+8]
  0000d	8d 42 0c	 lea	 eax, DWORD PTR [edx+12]
  00010	8b 4a ec	 mov	 ecx, DWORD PTR [edx-20]
  00013	33 c8		 xor	 ecx, eax
  00015	e8 00 00 00 00	 call	 @__security_check_cookie@4
  0001a	b8 00 00 00 00	 mov	 eax, OFFSET __ehfuncinfo$??1RoundInfo@@QAE@XZ
  0001f	e9 00 00 00 00	 jmp	 ___CxxFrameHandler3
text$x	ENDS
??1RoundInfo@@QAE@XZ ENDP				; RoundInfo::~RoundInfo
PUBLIC	?IsTarget@ioObserverRedWnd@@IAE_NABVioHashString@@@Z ; ioObserverRedWnd::IsTarget
EXTRN	__imp_??8ioHashString@@QBE_NABV0@@Z:PROC
EXTRN	?GetCameraTargetChar@ioPlayStage@@QAEPAVioBaseChar@@XZ:PROC ; ioPlayStage::GetCameraTargetChar
EXTRN	?GetBaseChar@ioPlayStage@@QAEPAVioBaseChar@@ABVioHashString@@@Z:PROC ; ioPlayStage::GetBaseChar
; Function compile flags: /Ogsp
;	COMDAT ?IsTarget@ioObserverRedWnd@@IAE_NABVioHashString@@@Z
_TEXT	SEGMENT
_szName$ = 8						; size = 4
?IsTarget@ioObserverRedWnd@@IAE_NABVioHashString@@@Z PROC ; ioObserverRedWnd::IsTarget, COMDAT
; _this$ = ecx

; 575  : {

  00000	55		 push	 ebp
  00001	8b ec		 mov	 ebp, esp
  00003	56		 push	 esi
  00004	8b f1		 mov	 esi, ecx

; 576  : 	if( !m_pPlayStage ) return false;

  00006	8b 8e 90 01 00
	00		 mov	 ecx, DWORD PTR [esi+400]
  0000c	85 c9		 test	 ecx, ecx
  0000e	75 04		 jne	 SHORT $LN3@IsTarget
$LN8@IsTarget:
  00010	32 c0		 xor	 al, al
  00012	eb 2b		 jmp	 SHORT $LN1@IsTarget
$LN3@IsTarget:

; 577  : 
; 578  : 	ioBaseChar *pUser = m_pPlayStage->GetBaseChar( szName );

  00014	ff 75 08	 push	 DWORD PTR _szName$[ebp]
  00017	e8 00 00 00 00	 call	 ?GetBaseChar@ioPlayStage@@QAEPAVioBaseChar@@ABVioHashString@@@Z ; ioPlayStage::GetBaseChar

; 579  : 	if( !pUser ) return false;

  0001c	85 c0		 test	 eax, eax
  0001e	74 f0		 je	 SHORT $LN8@IsTarget

; 580  : 
; 581  : 	if( m_pPlayStage->GetCameraTargetChar()->GetCharName() == szName )

  00020	8b 8e 90 01 00
	00		 mov	 ecx, DWORD PTR [esi+400]
  00026	e8 00 00 00 00	 call	 ?GetCameraTargetChar@ioPlayStage@@QAEPAVioBaseChar@@XZ ; ioPlayStage::GetCameraTargetChar
  0002b	ff 75 08	 push	 DWORD PTR _szName$[ebp]
  0002e	8d 88 d4 02 00
	00		 lea	 ecx, DWORD PTR [eax+724]
  00034	ff 15 00 00 00
	00		 call	 DWORD PTR __imp_??8ioHashString@@QBE_NABV0@@Z
  0003a	84 c0		 test	 al, al
  0003c	0f 95 c0	 setne	 al
$LN1@IsTarget:
  0003f	5e		 pop	 esi

; 582  : 		return true;
; 583  : 
; 584  : 	return false;
; 585  : }

  00040	5d		 pop	 ebp
  00041	c2 04 00	 ret	 4
?IsTarget@ioObserverRedWnd@@IAE_NABVioHashString@@@Z ENDP ; ioObserverRedWnd::IsTarget
_TEXT	ENDS
PUBLIC	?UpdateMark@ioObserverRedWnd@@IAEXXZ		; ioObserverRedWnd::UpdateMark
EXTRN	__imp_?GetLoopSec@ioFrameTimer@@QBEKXZ:PROC
EXTRN	__imp_?GetSingleton@ioFrameTimer@@SAAAV1@XZ:PROC
; Function compile flags: /Ogsp
;	COMDAT ?UpdateMark@ioObserverRedWnd@@IAEXXZ
_TEXT	SEGMENT
?UpdateMark@ioObserverRedWnd@@IAEXXZ PROC		; ioObserverRedWnd::UpdateMark, COMDAT
; _this$ = ecx

; 588  : {

  00000	56		 push	 esi
  00001	8b f1		 mov	 esi, ecx

; 589  : 	if( m_dwMarkChangeTime == 0 ) return;

  00003	83 be f4 01 00
	00 00		 cmp	 DWORD PTR [esi+500], 0
  0000a	74 34		 je	 SHORT $LN1@UpdateMark

; 590  : 
; 591  : 	DWORD dwCurTime = FRAMEGETTIME();

  0000c	ff 15 00 00 00
	00		 call	 DWORD PTR __imp_?GetSingleton@ioFrameTimer@@SAAAV1@XZ
  00012	8b c8		 mov	 ecx, eax
  00014	ff 15 00 00 00
	00		 call	 DWORD PTR __imp_?GetLoopSec@ioFrameTimer@@QBEKXZ

; 592  : 
; 593  : 	if( dwCurTime - m_dwCheckTime > m_dwMarkChangeTime )

  0001a	8b d0		 mov	 edx, eax
  0001c	2b 96 fc 01 00
	00		 sub	 edx, DWORD PTR [esi+508]
  00022	3b 96 f4 01 00
	00		 cmp	 edx, DWORD PTR [esi+500]
  00028	76 16		 jbe	 SHORT $LN1@UpdateMark

; 594  : 	{
; 595  : 		m_dwCheckTime = dwCurTime;
; 596  : 		m_bCheckMark = !m_bCheckMark;

  0002a	80 be f8 01 00
	00 00		 cmp	 BYTE PTR [esi+504], 0
  00031	89 86 fc 01 00
	00		 mov	 DWORD PTR [esi+508], eax
  00037	0f 94 c1	 sete	 cl
  0003a	88 8e f8 01 00
	00		 mov	 BYTE PTR [esi+504], cl
$LN1@UpdateMark:
  00040	5e		 pop	 esi

; 597  : 	}
; 598  : }

  00041	c3		 ret	 0
?UpdateMark@ioObserverRedWnd@@IAEXXZ ENDP		; ioObserverRedWnd::UpdateMark
_TEXT	ENDS
PUBLIC	?UpdateDefaultPos@ioObserverRedWnd@@IAEXXZ	; ioObserverRedWnd::UpdateDefaultPos
EXTRN	__imp_?GetHeight@ioWnd@@QBEHXZ:PROC
EXTRN	__imp_?GetWidth@ioWnd@@QBEHXZ:PROC
EXTRN	__imp_?IsMoving@ioMovingWnd@@QAE_NXZ:PROC
EXTRN	?IsDragMove@ioSP2GUIManager@@QBE_NK@Z:PROC	; ioSP2GUIManager::IsDragMove
; Function compile flags: /Ogsp
;	COMDAT ?UpdateDefaultPos@ioObserverRedWnd@@IAEXXZ
_TEXT	SEGMENT
?UpdateDefaultPos@ioObserverRedWnd@@IAEXXZ PROC		; ioObserverRedWnd::UpdateDefaultPos, COMDAT
; _this$ = ecx

; 619  : {

  00000	56		 push	 esi
  00001	8b f1		 mov	 esi, ecx

; 620  : 	if( g_GUIMgr.IsDragMove( m_dwID ) || IsMoving() )

  00003	ff 76 14	 push	 DWORD PTR [esi+20]
  00006	e8 00 00 00 00	 call	 ?GetSingleton@ioSP2GUIManager@@SAAAV1@XZ ; ioSP2GUIManager::GetSingleton
  0000b	8b c8		 mov	 ecx, eax
  0000d	e8 00 00 00 00	 call	 ?IsDragMove@ioSP2GUIManager@@QBE_NK@Z ; ioSP2GUIManager::IsDragMove
  00012	84 c0		 test	 al, al
  00014	75 10		 jne	 SHORT $LN5@UpdateDefa
  00016	8b ce		 mov	 ecx, esi
  00018	ff 15 00 00 00
	00		 call	 DWORD PTR __imp_?IsMoving@ioMovingWnd@@QAE_NXZ
  0001e	84 c0		 test	 al, al
  00020	0f 84 96 00 00
	00		 je	 $LN1@UpdateDefa
$LN5@UpdateDefa:
  00026	57		 push	 edi

; 621  : 	{
; 622  : 		if( m_iDefaultX != GetXPos() )

  00027	8b ce		 mov	 ecx, esi
  00029	ff 15 00 00 00
	00		 call	 DWORD PTR __imp_?GetXPos@ioWnd@@QBEHXZ
  0002f	39 86 10 02 00
	00		 cmp	 DWORD PTR [esi+528], eax
  00035	74 3a		 je	 SHORT $LN3@UpdateDefa

; 623  : 		{
; 624  : 			if( COMPARE( GetXPos(), 0, (Setting::Width() - GetWidth() ) + 1 ))

  00037	8b ce		 mov	 ecx, esi
  00039	ff 15 00 00 00
	00		 call	 DWORD PTR __imp_?GetXPos@ioWnd@@QBEHXZ
  0003f	85 c0		 test	 eax, eax
  00041	78 2e		 js	 SHORT $LN3@UpdateDefa
  00043	8b ce		 mov	 ecx, esi
  00045	ff 15 00 00 00
	00		 call	 DWORD PTR __imp_?GetWidth@ioWnd@@QBEHXZ
  0004b	33 ff		 xor	 edi, edi
  0004d	47		 inc	 edi
  0004e	2b f8		 sub	 edi, eax
  00050	e8 00 00 00 00	 call	 ?Width@Setting@@SAHXZ	; Setting::Width
  00055	8b ce		 mov	 ecx, esi
  00057	03 f8		 add	 edi, eax
  00059	ff 15 00 00 00
	00		 call	 DWORD PTR __imp_?GetXPos@ioWnd@@QBEHXZ
  0005f	3b c7		 cmp	 eax, edi
  00061	7d 0e		 jge	 SHORT $LN3@UpdateDefa

; 625  : 				m_iDefaultX = GetXPos();

  00063	8b ce		 mov	 ecx, esi
  00065	ff 15 00 00 00
	00		 call	 DWORD PTR __imp_?GetXPos@ioWnd@@QBEHXZ
  0006b	89 86 10 02 00
	00		 mov	 DWORD PTR [esi+528], eax
$LN3@UpdateDefa:

; 626  : 		}
; 627  : 
; 628  : 		if( m_iDefaultY != GetYPos() )

  00071	8b ce		 mov	 ecx, esi
  00073	ff 15 00 00 00
	00		 call	 DWORD PTR __imp_?GetYPos@ioWnd@@QBEHXZ
  00079	39 86 14 02 00
	00		 cmp	 DWORD PTR [esi+532], eax
  0007f	74 3a		 je	 SHORT $LN9@UpdateDefa

; 629  : 		{
; 630  : 			if( COMPARE( GetYPos(), 0, (Setting::Height() - GetHeight() ) + 1 ))

  00081	8b ce		 mov	 ecx, esi
  00083	ff 15 00 00 00
	00		 call	 DWORD PTR __imp_?GetYPos@ioWnd@@QBEHXZ
  00089	85 c0		 test	 eax, eax
  0008b	78 2e		 js	 SHORT $LN9@UpdateDefa
  0008d	8b ce		 mov	 ecx, esi
  0008f	ff 15 00 00 00
	00		 call	 DWORD PTR __imp_?GetHeight@ioWnd@@QBEHXZ
  00095	33 ff		 xor	 edi, edi
  00097	47		 inc	 edi
  00098	2b f8		 sub	 edi, eax
  0009a	e8 00 00 00 00	 call	 ?Height@Setting@@SAHXZ	; Setting::Height
  0009f	8b ce		 mov	 ecx, esi
  000a1	03 f8		 add	 edi, eax
  000a3	ff 15 00 00 00
	00		 call	 DWORD PTR __imp_?GetYPos@ioWnd@@QBEHXZ
  000a9	3b c7		 cmp	 eax, edi
  000ab	7d 0e		 jge	 SHORT $LN9@UpdateDefa

; 631  : 				m_iDefaultY = GetYPos();

  000ad	8b ce		 mov	 ecx, esi
  000af	ff 15 00 00 00
	00		 call	 DWORD PTR __imp_?GetYPos@ioWnd@@QBEHXZ
  000b5	89 86 14 02 00
	00		 mov	 DWORD PTR [esi+532], eax
$LN9@UpdateDefa:
  000bb	5f		 pop	 edi
$LN1@UpdateDefa:
  000bc	5e		 pop	 esi

; 632  : 		}
; 633  : 	}
; 634  : }

  000bd	c3		 ret	 0
?UpdateDefaultPos@ioObserverRedWnd@@IAEXXZ ENDP		; ioObserverRedWnd::UpdateDefaultPos
_TEXT	ENDS
PUBLIC	??_R0?AVioWnd@@@8				; ioWnd `RTTI Type Descriptor'
PUBLIC	??_R0?AVTimeScoreWnd@@@8			; TimeScoreWnd `RTTI Type Descriptor'
PUBLIC	?UpdateMainDefaultPos@ioObserverRedWnd@@IAEXXZ	; ioObserverRedWnd::UpdateMainDefaultPos
EXTRN	__imp_?FindWnd@ioGUIManager@@QAEPAVioWnd@@K@Z:PROC
EXTRN	___RTDynamicCast:PROC
;	COMDAT ??_R0?AVioWnd@@@8
; File d:\lost saga for developer\youtube\tutorial\source\src\lsclient\gui\timescorewnd.h
_DATA	SEGMENT
??_R0?AVioWnd@@@8 DD FLAT:??_7type_info@@6B@		; ioWnd `RTTI Type Descriptor'
	DD	00H
	DB	'.?AVioWnd@@', 00H
_DATA	ENDS
;	COMDAT ??_R0?AVTimeScoreWnd@@@8
_DATA	SEGMENT
??_R0?AVTimeScoreWnd@@@8 DD FLAT:??_7type_info@@6B@	; TimeScoreWnd `RTTI Type Descriptor'
	DD	00H
	DB	'.?AVTimeScoreWnd@@', 00H
; Function compile flags: /Ogsp
; File d:\lost saga for developer\youtube\tutorial\source\src\lsclient\gui\ioobserverwnd.cpp
_DATA	ENDS
;	COMDAT ?UpdateMainDefaultPos@ioObserverRedWnd@@IAEXXZ
_TEXT	SEGMENT
_this$ = -4						; size = 4
?UpdateMainDefaultPos@ioObserverRedWnd@@IAEXXZ PROC	; ioObserverRedWnd::UpdateMainDefaultPos, COMDAT
; _this$ = ecx

; 669  : {

  00000	55		 push	 ebp
  00001	8b ec		 mov	 ebp, esp
  00003	51		 push	 ecx
  00004	56		 push	 esi

; 670  : 	TimeScoreWnd *pTimeScoreWnd = dynamic_cast<TimeScoreWnd *>( g_GUIMgr.FindWnd( TIME_SCORE_WND ) );

  00005	6a 00		 push	 0
  00007	68 00 00 00 00	 push	 OFFSET ??_R0?AVTimeScoreWnd@@@8
  0000c	68 00 00 00 00	 push	 OFFSET ??_R0?AVioWnd@@@8
  00011	6a 00		 push	 0
  00013	68 b9 13 00 00	 push	 5049			; 000013b9H
  00018	89 4d fc	 mov	 DWORD PTR _this$[ebp], ecx
  0001b	e8 00 00 00 00	 call	 ?GetSingleton@ioSP2GUIManager@@SAAAV1@XZ ; ioSP2GUIManager::GetSingleton
  00020	8b c8		 mov	 ecx, eax
  00022	ff 15 00 00 00
	00		 call	 DWORD PTR __imp_?FindWnd@ioGUIManager@@QAEPAVioWnd@@K@Z
  00028	50		 push	 eax
  00029	e8 00 00 00 00	 call	 ___RTDynamicCast
  0002e	8b f0		 mov	 esi, eax
  00030	83 c4 14	 add	 esp, 20			; 00000014H

; 671  : 	if( !pTimeScoreWnd ) return;

  00033	85 f6		 test	 esi, esi
  00035	74 78		 je	 SHORT $LN1@UpdateMain

; 672  : 
; 673  : 	int iScoreWndXPos = pTimeScoreWnd->GetMainDefaultXPos();

  00037	53		 push	 ebx
  00038	8b 9e c0 00 00
	00		 mov	 ebx, DWORD PTR [esi+192]
  0003e	57		 push	 edi

; 674  : 	int iScoreWndYPos = pTimeScoreWnd->GetMainDefaultYPos();

  0003f	8b be c4 00 00
	00		 mov	 edi, DWORD PTR [esi+196]

; 675  : 
; 676  : 	iScoreWndXPos += pTimeScoreWnd->GetWidth()/2;

  00045	8b ce		 mov	 ecx, esi
  00047	ff 15 00 00 00
	00		 call	 DWORD PTR __imp_?GetWidth@ioWnd@@QBEHXZ
  0004d	99		 cdq
  0004e	2b c2		 sub	 eax, edx
  00050	d1 f8		 sar	 eax, 1

; 677  : 	iScoreWndYPos += pTimeScoreWnd->GetHeight();

  00052	8b ce		 mov	 ecx, esi
  00054	03 d8		 add	 ebx, eax
  00056	ff 15 00 00 00
	00		 call	 DWORD PTR __imp_?GetHeight@ioWnd@@QBEHXZ
  0005c	03 f8		 add	 edi, eax

; 678  : 
; 679  : 	int iCenterXPos = 800 / 2;
; 680  : 	int iGap = abs(iCenterXPos - iScoreWndXPos);

  0005e	b8 90 01 00 00	 mov	 eax, 400		; 00000190H
  00063	2b c3		 sub	 eax, ebx

; 681  : 
; 682  : 	int iNewXPos = iCenterXPos + iGap;
; 683  : 	iNewXPos -= DEFAULT_WIDTH / 2;
; 684  : 
; 685  : 	if( COMPARE( iNewXPos, 0, (800 - GetWidth() ) + 1 ))

  00065	8b 5d fc	 mov	 ebx, DWORD PTR _this$[ebp]
  00068	99		 cdq
  00069	8b f0		 mov	 esi, eax
  0006b	33 f2		 xor	 esi, edx
  0006d	2b f2		 sub	 esi, edx
  0006f	81 c6 40 01 00
	00		 add	 esi, 320		; 00000140H
  00075	78 19		 js	 SHORT $LN2@UpdateMain
  00077	8b cb		 mov	 ecx, ebx
  00079	ff 15 00 00 00
	00		 call	 DWORD PTR __imp_?GetWidth@ioWnd@@QBEHXZ
  0007f	b9 21 03 00 00	 mov	 ecx, 801		; 00000321H
  00084	2b c8		 sub	 ecx, eax
  00086	3b f1		 cmp	 esi, ecx
  00088	7d 06		 jge	 SHORT $LN2@UpdateMain

; 686  : 		m_iDefXPos = iNewXPos;

  0008a	89 b3 c0 00 00
	00		 mov	 DWORD PTR [ebx+192], esi
$LN2@UpdateMain:

; 687  : 
; 688  : 	if( COMPARE( iScoreWndYPos, 0, (600 - GetHeight() ) + 1 ))

  00090	85 ff		 test	 edi, edi
  00092	78 19		 js	 SHORT $LN11@UpdateMain
  00094	8b cb		 mov	 ecx, ebx
  00096	ff 15 00 00 00
	00		 call	 DWORD PTR __imp_?GetHeight@ioWnd@@QBEHXZ
  0009c	b9 59 02 00 00	 mov	 ecx, 601		; 00000259H
  000a1	2b c8		 sub	 ecx, eax
  000a3	3b f9		 cmp	 edi, ecx
  000a5	7d 06		 jge	 SHORT $LN11@UpdateMain

; 689  : 		m_iDefYPos = iScoreWndYPos;

  000a7	89 bb c4 00 00
	00		 mov	 DWORD PTR [ebx+196], edi
$LN11@UpdateMain:
  000ad	5f		 pop	 edi
  000ae	5b		 pop	 ebx
$LN1@UpdateMain:
  000af	5e		 pop	 esi

; 690  : }

  000b0	c9		 leave
  000b1	c3		 ret	 0
?UpdateMainDefaultPos@ioObserverRedWnd@@IAEXXZ ENDP	; ioObserverRedWnd::UpdateMainDefaultPos
_TEXT	ENDS
PUBLIC	?InitObserverWnd@ioObserverBlueWnd@@QAEXPAVioPlayStage@@@Z ; ioObserverBlueWnd::InitObserverWnd
; Function compile flags: /Ogsp
;	COMDAT ?InitObserverWnd@ioObserverBlueWnd@@QAEXPAVioPlayStage@@@Z
_TEXT	SEGMENT
_pStage$ = 8						; size = 4
?InitObserverWnd@ioObserverBlueWnd@@QAEXPAVioPlayStage@@@Z PROC ; ioObserverBlueWnd::InitObserverWnd, COMDAT
; _this$ = ecx

; 750  : {

  00000	55		 push	 ebp
  00001	8b ec		 mov	 ebp, esp

; 751  : 	m_pPlayStage = pStage;

  00003	8b 45 08	 mov	 eax, DWORD PTR _pStage$[ebp]
  00006	89 81 90 01 00
	00		 mov	 DWORD PTR [ecx+400], eax

; 752  : }

  0000c	5d		 pop	 ebp
  0000d	c2 04 00	 ret	 4
?InitObserverWnd@ioObserverBlueWnd@@QAEXPAVioPlayStage@@@Z ENDP ; ioObserverBlueWnd::InitObserverWnd
_TEXT	ENDS
PUBLIC	??_C@_0BA@NDFGHFKL@ObserverBlueWnd?$AA@		; `string'
PUBLIC	?iwm_create@ioObserverBlueWnd@@UAEXXZ		; ioObserverBlueWnd::iwm_create
;	COMDAT ??_C@_0BA@NDFGHFKL@ObserverBlueWnd?$AA@
CONST	SEGMENT
??_C@_0BA@NDFGHFKL@ObserverBlueWnd?$AA@ DB 'ObserverBlueWnd', 00H ; `string'
; Function compile flags: /Ogsp
CONST	ENDS
;	COMDAT ?iwm_create@ioObserverBlueWnd@@UAEXXZ
_TEXT	SEGMENT
?iwm_create@ioObserverBlueWnd@@UAEXXZ PROC		; ioObserverBlueWnd::iwm_create, COMDAT
; _this$ = ecx

; 855  : {

  00000	53		 push	 ebx
  00001	56		 push	 esi
  00002	57		 push	 edi

; 856  : 	int iXPos = g_GUIMgr.GUIPosLoadInt( "ObserverBlueWnd", "XPos", GetXPos() ,POS_SAVE_VERSION );

  00003	6a 04		 push	 4
  00005	8b f9		 mov	 edi, ecx
  00007	ff 15 00 00 00
	00		 call	 DWORD PTR __imp_?GetXPos@ioWnd@@QBEHXZ
  0000d	50		 push	 eax
  0000e	68 00 00 00 00	 push	 OFFSET ??_C@_04LNCKCFGC@XPos?$AA@
  00013	be 00 00 00 00	 mov	 esi, OFFSET ??_C@_0BA@NDFGHFKL@ObserverBlueWnd?$AA@
  00018	56		 push	 esi
  00019	e8 00 00 00 00	 call	 ?GetSingleton@ioSP2GUIManager@@SAAAV1@XZ ; ioSP2GUIManager::GetSingleton
  0001e	8b c8		 mov	 ecx, eax
  00020	e8 00 00 00 00	 call	 ?GUIPosLoadInt@ioSP2GUIManager@@QAEHPBD0HH@Z ; ioSP2GUIManager::GUIPosLoadInt

; 857  : 	int iYPos = g_GUIMgr.GUIPosLoadInt( "ObserverBlueWnd", "YPos", GetYPos() ,POS_SAVE_VERSION );

  00025	6a 04		 push	 4
  00027	8b cf		 mov	 ecx, edi
  00029	8b d8		 mov	 ebx, eax
  0002b	ff 15 00 00 00
	00		 call	 DWORD PTR __imp_?GetYPos@ioWnd@@QBEHXZ
  00031	50		 push	 eax
  00032	68 00 00 00 00	 push	 OFFSET ??_C@_04IAEKAMNC@YPos?$AA@
  00037	56		 push	 esi
  00038	e8 00 00 00 00	 call	 ?GetSingleton@ioSP2GUIManager@@SAAAV1@XZ ; ioSP2GUIManager::GetSingleton
  0003d	8b c8		 mov	 ecx, eax
  0003f	e8 00 00 00 00	 call	 ?GUIPosLoadInt@ioSP2GUIManager@@QAEHPBD0HH@Z ; ioSP2GUIManager::GUIPosLoadInt
  00044	8b f0		 mov	 esi, eax

; 858  : 
; 859  : 	if( COMPARE( iXPos, 0, Setting::Width() ) && 
; 860  : 		COMPARE( iYPos, 0, Setting::Height() ) )

  00046	85 db		 test	 ebx, ebx
  00048	78 20		 js	 SHORT $LN2@iwm_create@2
  0004a	e8 00 00 00 00	 call	 ?Width@Setting@@SAHXZ	; Setting::Width
  0004f	3b d8		 cmp	 ebx, eax
  00051	7d 17		 jge	 SHORT $LN2@iwm_create@2
  00053	85 f6		 test	 esi, esi
  00055	78 13		 js	 SHORT $LN2@iwm_create@2
  00057	e8 00 00 00 00	 call	 ?Height@Setting@@SAHXZ	; Setting::Height
  0005c	3b f0		 cmp	 esi, eax
  0005e	7d 0a		 jge	 SHORT $LN2@iwm_create@2

; 861  : 	{
; 862  : 		SetWndPos( iXPos, iYPos );

  00060	56		 push	 esi
  00061	53		 push	 ebx
  00062	8b cf		 mov	 ecx, edi
  00064	ff 15 00 00 00
	00		 call	 DWORD PTR __imp_?SetWndPos@ioWnd@@QAEXHH@Z
$LN2@iwm_create@2:

; 863  : 	}
; 864  : 
; 865  : 	m_iDefaultX = GetDerivedPosX();

  0006a	8b cf		 mov	 ecx, edi
  0006c	ff 15 00 00 00
	00		 call	 DWORD PTR __imp_?GetDerivedPosX@ioWnd@@QBEHXZ

; 866  : 	m_iDefaultY = GetDerivedPosY();

  00072	8b cf		 mov	 ecx, edi
  00074	89 87 d8 01 00
	00		 mov	 DWORD PTR [edi+472], eax
  0007a	ff 15 00 00 00
	00		 call	 DWORD PTR __imp_?GetDerivedPosY@ioWnd@@QBEHXZ
  00080	89 87 dc 01 00
	00		 mov	 DWORD PTR [edi+476], eax

; 867  : 
; 868  : 	if( m_bPosToDefualt )

  00086	80 3d 00 00 00
	00 00		 cmp	 BYTE PTR ?m_bPosToDefualt@ioObserverBlueWnd@@1_NA, 0 ; ioObserverBlueWnd::m_bPosToDefualt
  0008d	74 1e		 je	 SHORT $LN1@iwm_create@2

; 869  : 	{
; 870  : 		m_bPosToDefualt = false;
; 871  : 		SetPositionToDefault( Setting::Width(), Setting::Height(), true );

  0008f	6a 00		 push	 0
  00091	c6 05 00 00 00
	00 00		 mov	 BYTE PTR ?m_bPosToDefualt@ioObserverBlueWnd@@1_NA, 0 ; ioObserverBlueWnd::m_bPosToDefualt
  00098	8b 37		 mov	 esi, DWORD PTR [edi]
  0009a	6a 01		 push	 1
  0009c	e8 00 00 00 00	 call	 ?Height@Setting@@SAHXZ	; Setting::Height
  000a1	50		 push	 eax
  000a2	e8 00 00 00 00	 call	 ?Width@Setting@@SAHXZ	; Setting::Width
  000a7	50		 push	 eax
  000a8	8b cf		 mov	 ecx, edi
  000aa	ff 56 30	 call	 DWORD PTR [esi+48]
$LN1@iwm_create@2:

; 872  : 	}
; 873  : }

  000ad	5f		 pop	 edi
  000ae	5e		 pop	 esi
  000af	5b		 pop	 ebx
  000b0	c3		 ret	 0
?iwm_create@ioObserverBlueWnd@@UAEXXZ ENDP		; ioObserverBlueWnd::iwm_create
_TEXT	ENDS
PUBLIC	?IsTarget@ioObserverBlueWnd@@IAE_NABVioHashString@@@Z ; ioObserverBlueWnd::IsTarget
; Function compile flags: /Ogsp
;	COMDAT ?IsTarget@ioObserverBlueWnd@@IAE_NABVioHashString@@@Z
_TEXT	SEGMENT
_szName$ = 8						; size = 4
?IsTarget@ioObserverBlueWnd@@IAE_NABVioHashString@@@Z PROC ; ioObserverBlueWnd::IsTarget, COMDAT
; _this$ = ecx

; 1167 : {

  00000	55		 push	 ebp
  00001	8b ec		 mov	 ebp, esp
  00003	56		 push	 esi
  00004	8b f1		 mov	 esi, ecx

; 1168 : 	if( !m_pPlayStage ) return false;

  00006	8b 8e 90 01 00
	00		 mov	 ecx, DWORD PTR [esi+400]
  0000c	85 c9		 test	 ecx, ecx
  0000e	75 04		 jne	 SHORT $LN3@IsTarget@2
$LN8@IsTarget@2:
  00010	32 c0		 xor	 al, al
  00012	eb 2b		 jmp	 SHORT $LN1@IsTarget@2
$LN3@IsTarget@2:

; 1169 : 
; 1170 : 	ioBaseChar *pUser = m_pPlayStage->GetBaseChar( szName );

  00014	ff 75 08	 push	 DWORD PTR _szName$[ebp]
  00017	e8 00 00 00 00	 call	 ?GetBaseChar@ioPlayStage@@QAEPAVioBaseChar@@ABVioHashString@@@Z ; ioPlayStage::GetBaseChar

; 1171 : 	if( !pUser ) return false;

  0001c	85 c0		 test	 eax, eax
  0001e	74 f0		 je	 SHORT $LN8@IsTarget@2

; 1172 : 
; 1173 : 	if( m_pPlayStage->GetCameraTargetChar()->GetCharName() == szName )

  00020	8b 8e 90 01 00
	00		 mov	 ecx, DWORD PTR [esi+400]
  00026	e8 00 00 00 00	 call	 ?GetCameraTargetChar@ioPlayStage@@QAEPAVioBaseChar@@XZ ; ioPlayStage::GetCameraTargetChar
  0002b	ff 75 08	 push	 DWORD PTR _szName$[ebp]
  0002e	8d 88 d4 02 00
	00		 lea	 ecx, DWORD PTR [eax+724]
  00034	ff 15 00 00 00
	00		 call	 DWORD PTR __imp_??8ioHashString@@QBE_NABV0@@Z
  0003a	84 c0		 test	 al, al
  0003c	0f 95 c0	 setne	 al
$LN1@IsTarget@2:
  0003f	5e		 pop	 esi

; 1174 : 		return true;
; 1175 : 
; 1176 : 	return false;
; 1177 : }

  00040	5d		 pop	 ebp
  00041	c2 04 00	 ret	 4
?IsTarget@ioObserverBlueWnd@@IAE_NABVioHashString@@@Z ENDP ; ioObserverBlueWnd::IsTarget
_TEXT	ENDS
PUBLIC	?UpdateMark@ioObserverBlueWnd@@IAEXXZ		; ioObserverBlueWnd::UpdateMark
; Function compile flags: /Ogsp
;	COMDAT ?UpdateMark@ioObserverBlueWnd@@IAEXXZ
_TEXT	SEGMENT
?UpdateMark@ioObserverBlueWnd@@IAEXXZ PROC		; ioObserverBlueWnd::UpdateMark, COMDAT
; _this$ = ecx

; 1180 : {

  00000	56		 push	 esi
  00001	8b f1		 mov	 esi, ecx

; 1181 : 	if( m_dwMarkChangeTime == 0 ) return;

  00003	83 be bc 01 00
	00 00		 cmp	 DWORD PTR [esi+444], 0
  0000a	74 34		 je	 SHORT $LN1@UpdateMark@2

; 1182 : 
; 1183 : 	DWORD dwCurTime = FRAMEGETTIME();

  0000c	ff 15 00 00 00
	00		 call	 DWORD PTR __imp_?GetSingleton@ioFrameTimer@@SAAAV1@XZ
  00012	8b c8		 mov	 ecx, eax
  00014	ff 15 00 00 00
	00		 call	 DWORD PTR __imp_?GetLoopSec@ioFrameTimer@@QBEKXZ

; 1184 : 
; 1185 : 	if( dwCurTime - m_dwCheckTime > m_dwMarkChangeTime )

  0001a	8b d0		 mov	 edx, eax
  0001c	2b 96 c4 01 00
	00		 sub	 edx, DWORD PTR [esi+452]
  00022	3b 96 bc 01 00
	00		 cmp	 edx, DWORD PTR [esi+444]
  00028	76 16		 jbe	 SHORT $LN1@UpdateMark@2

; 1186 : 	{
; 1187 : 		m_dwCheckTime = dwCurTime;
; 1188 : 		m_bCheckMark = !m_bCheckMark;

  0002a	80 be c0 01 00
	00 00		 cmp	 BYTE PTR [esi+448], 0
  00031	89 86 c4 01 00
	00		 mov	 DWORD PTR [esi+452], eax
  00037	0f 94 c1	 sete	 cl
  0003a	88 8e c0 01 00
	00		 mov	 BYTE PTR [esi+448], cl
$LN1@UpdateMark@2:
  00040	5e		 pop	 esi

; 1189 : 	}
; 1190 : }

  00041	c3		 ret	 0
?UpdateMark@ioObserverBlueWnd@@IAEXXZ ENDP		; ioObserverBlueWnd::UpdateMark
_TEXT	ENDS
PUBLIC	?UpdateDefaultPos@ioObserverBlueWnd@@IAEXXZ	; ioObserverBlueWnd::UpdateDefaultPos
; Function compile flags: /Ogsp
;	COMDAT ?UpdateDefaultPos@ioObserverBlueWnd@@IAEXXZ
_TEXT	SEGMENT
?UpdateDefaultPos@ioObserverBlueWnd@@IAEXXZ PROC	; ioObserverBlueWnd::UpdateDefaultPos, COMDAT
; _this$ = ecx

; 1211 : {

  00000	56		 push	 esi
  00001	8b f1		 mov	 esi, ecx

; 1212 : 	if( g_GUIMgr.IsDragMove( m_dwID ) || IsMoving() )

  00003	ff 76 14	 push	 DWORD PTR [esi+20]
  00006	e8 00 00 00 00	 call	 ?GetSingleton@ioSP2GUIManager@@SAAAV1@XZ ; ioSP2GUIManager::GetSingleton
  0000b	8b c8		 mov	 ecx, eax
  0000d	e8 00 00 00 00	 call	 ?IsDragMove@ioSP2GUIManager@@QBE_NK@Z ; ioSP2GUIManager::IsDragMove
  00012	84 c0		 test	 al, al
  00014	75 10		 jne	 SHORT $LN5@UpdateDefa@2
  00016	8b ce		 mov	 ecx, esi
  00018	ff 15 00 00 00
	00		 call	 DWORD PTR __imp_?IsMoving@ioMovingWnd@@QAE_NXZ
  0001e	84 c0		 test	 al, al
  00020	0f 84 96 00 00
	00		 je	 $LN1@UpdateDefa@2
$LN5@UpdateDefa@2:
  00026	57		 push	 edi

; 1213 : 	{
; 1214 : 		if( m_iDefaultX != GetXPos() )

  00027	8b ce		 mov	 ecx, esi
  00029	ff 15 00 00 00
	00		 call	 DWORD PTR __imp_?GetXPos@ioWnd@@QBEHXZ
  0002f	39 86 d8 01 00
	00		 cmp	 DWORD PTR [esi+472], eax
  00035	74 3a		 je	 SHORT $LN3@UpdateDefa@2

; 1215 : 		{
; 1216 : 			if( COMPARE( GetXPos(), 0, (Setting::Width() - GetWidth() ) + 1 ))

  00037	8b ce		 mov	 ecx, esi
  00039	ff 15 00 00 00
	00		 call	 DWORD PTR __imp_?GetXPos@ioWnd@@QBEHXZ
  0003f	85 c0		 test	 eax, eax
  00041	78 2e		 js	 SHORT $LN3@UpdateDefa@2
  00043	8b ce		 mov	 ecx, esi
  00045	ff 15 00 00 00
	00		 call	 DWORD PTR __imp_?GetWidth@ioWnd@@QBEHXZ
  0004b	33 ff		 xor	 edi, edi
  0004d	47		 inc	 edi
  0004e	2b f8		 sub	 edi, eax
  00050	e8 00 00 00 00	 call	 ?Width@Setting@@SAHXZ	; Setting::Width
  00055	8b ce		 mov	 ecx, esi
  00057	03 f8		 add	 edi, eax
  00059	ff 15 00 00 00
	00		 call	 DWORD PTR __imp_?GetXPos@ioWnd@@QBEHXZ
  0005f	3b c7		 cmp	 eax, edi
  00061	7d 0e		 jge	 SHORT $LN3@UpdateDefa@2

; 1217 : 				m_iDefaultX = GetXPos();

  00063	8b ce		 mov	 ecx, esi
  00065	ff 15 00 00 00
	00		 call	 DWORD PTR __imp_?GetXPos@ioWnd@@QBEHXZ
  0006b	89 86 d8 01 00
	00		 mov	 DWORD PTR [esi+472], eax
$LN3@UpdateDefa@2:

; 1218 : 		}
; 1219 : 
; 1220 : 		if( m_iDefaultY != GetYPos() )

  00071	8b ce		 mov	 ecx, esi
  00073	ff 15 00 00 00
	00		 call	 DWORD PTR __imp_?GetYPos@ioWnd@@QBEHXZ
  00079	39 86 dc 01 00
	00		 cmp	 DWORD PTR [esi+476], eax
  0007f	74 3a		 je	 SHORT $LN9@UpdateDefa@2

; 1221 : 		{
; 1222 : 			if( COMPARE( GetYPos(), 0, (Setting::Height() - GetHeight() ) + 1 ))

  00081	8b ce		 mov	 ecx, esi
  00083	ff 15 00 00 00
	00		 call	 DWORD PTR __imp_?GetYPos@ioWnd@@QBEHXZ
  00089	85 c0		 test	 eax, eax
  0008b	78 2e		 js	 SHORT $LN9@UpdateDefa@2
  0008d	8b ce		 mov	 ecx, esi
  0008f	ff 15 00 00 00
	00		 call	 DWORD PTR __imp_?GetHeight@ioWnd@@QBEHXZ
  00095	33 ff		 xor	 edi, edi
  00097	47		 inc	 edi
  00098	2b f8		 sub	 edi, eax
  0009a	e8 00 00 00 00	 call	 ?Height@Setting@@SAHXZ	; Setting::Height
  0009f	8b ce		 mov	 ecx, esi
  000a1	03 f8		 add	 edi, eax
  000a3	ff 15 00 00 00
	00		 call	 DWORD PTR __imp_?GetYPos@ioWnd@@QBEHXZ
  000a9	3b c7		 cmp	 eax, edi
  000ab	7d 0e		 jge	 SHORT $LN9@UpdateDefa@2

; 1223 : 				m_iDefaultY = GetYPos();

  000ad	8b ce		 mov	 ecx, esi
  000af	ff 15 00 00 00
	00		 call	 DWORD PTR __imp_?GetYPos@ioWnd@@QBEHXZ
  000b5	89 86 dc 01 00
	00		 mov	 DWORD PTR [esi+476], eax
$LN9@UpdateDefa@2:
  000bb	5f		 pop	 edi
$LN1@UpdateDefa@2:
  000bc	5e		 pop	 esi

; 1224 : 		}
; 1225 : 	}
; 1226 : }

  000bd	c3		 ret	 0
?UpdateDefaultPos@ioObserverBlueWnd@@IAEXXZ ENDP	; ioObserverBlueWnd::UpdateDefaultPos
_TEXT	ENDS
PUBLIC	?UpdateMainDefaultPos@ioObserverBlueWnd@@IAEXXZ	; ioObserverBlueWnd::UpdateMainDefaultPos
; Function compile flags: /Ogsp
;	COMDAT ?UpdateMainDefaultPos@ioObserverBlueWnd@@IAEXXZ
_TEXT	SEGMENT
_this$ = -4						; size = 4
?UpdateMainDefaultPos@ioObserverBlueWnd@@IAEXXZ PROC	; ioObserverBlueWnd::UpdateMainDefaultPos, COMDAT
; _this$ = ecx

; 1261 : {

  00000	55		 push	 ebp
  00001	8b ec		 mov	 ebp, esp
  00003	51		 push	 ecx
  00004	56		 push	 esi

; 1262 : 	TimeScoreWnd *pTimeScoreWnd = dynamic_cast<TimeScoreWnd *>( g_GUIMgr.FindWnd( TIME_SCORE_WND ) );

  00005	6a 00		 push	 0
  00007	68 00 00 00 00	 push	 OFFSET ??_R0?AVTimeScoreWnd@@@8
  0000c	68 00 00 00 00	 push	 OFFSET ??_R0?AVioWnd@@@8
  00011	6a 00		 push	 0
  00013	68 b9 13 00 00	 push	 5049			; 000013b9H
  00018	89 4d fc	 mov	 DWORD PTR _this$[ebp], ecx
  0001b	e8 00 00 00 00	 call	 ?GetSingleton@ioSP2GUIManager@@SAAAV1@XZ ; ioSP2GUIManager::GetSingleton
  00020	8b c8		 mov	 ecx, eax
  00022	ff 15 00 00 00
	00		 call	 DWORD PTR __imp_?FindWnd@ioGUIManager@@QAEPAVioWnd@@K@Z
  00028	50		 push	 eax
  00029	e8 00 00 00 00	 call	 ___RTDynamicCast
  0002e	8b f0		 mov	 esi, eax
  00030	83 c4 14	 add	 esp, 20			; 00000014H

; 1263 : 	if( !pTimeScoreWnd ) return;

  00033	85 f6		 test	 esi, esi
  00035	74 67		 je	 SHORT $LN1@UpdateMain@2

; 1264 : 
; 1265 : 	int iScoreWndXPos = pTimeScoreWnd->GetMainDefaultXPos();
; 1266 : 	int iScoreWndYPos = pTimeScoreWnd->GetMainDefaultYPos();

  00037	53		 push	 ebx
  00038	8b 9e c4 00 00
	00		 mov	 ebx, DWORD PTR [esi+196]
  0003e	57		 push	 edi
  0003f	8b be c0 00 00
	00		 mov	 edi, DWORD PTR [esi+192]

; 1267 : 
; 1268 : 	iScoreWndXPos += pTimeScoreWnd->GetWidth()/2;

  00045	8b ce		 mov	 ecx, esi
  00047	ff 15 00 00 00
	00		 call	 DWORD PTR __imp_?GetWidth@ioWnd@@QBEHXZ
  0004d	99		 cdq
  0004e	2b c2		 sub	 eax, edx
  00050	d1 f8		 sar	 eax, 1

; 1269 : 	iScoreWndYPos += pTimeScoreWnd->GetHeight();

  00052	8b ce		 mov	 ecx, esi
  00054	03 f8		 add	 edi, eax
  00056	ff 15 00 00 00
	00		 call	 DWORD PTR __imp_?GetHeight@ioWnd@@QBEHXZ

; 1270 : 
; 1271 : 	iScoreWndXPos -= DEFAULT_WIDTH / 2;
; 1272 : 
; 1273 : 	if( COMPARE( iScoreWndXPos, 0, (800 - GetWidth() ) + 1 ))

  0005c	8b 75 fc	 mov	 esi, DWORD PTR _this$[ebp]
  0005f	03 d8		 add	 ebx, eax
  00061	83 ef 50	 sub	 edi, 80			; 00000050H
  00064	78 19		 js	 SHORT $LN2@UpdateMain@2
  00066	8b ce		 mov	 ecx, esi
  00068	ff 15 00 00 00
	00		 call	 DWORD PTR __imp_?GetWidth@ioWnd@@QBEHXZ
  0006e	b9 21 03 00 00	 mov	 ecx, 801		; 00000321H
  00073	2b c8		 sub	 ecx, eax
  00075	3b f9		 cmp	 edi, ecx
  00077	7d 06		 jge	 SHORT $LN2@UpdateMain@2

; 1274 : 		m_iDefXPos = iScoreWndXPos;

  00079	89 be c0 00 00
	00		 mov	 DWORD PTR [esi+192], edi
$LN2@UpdateMain@2:

; 1275 : 
; 1276 : 	if( COMPARE( iScoreWndYPos, 0, (600 - GetHeight() ) + 1 ))

  0007f	85 db		 test	 ebx, ebx
  00081	78 19		 js	 SHORT $LN11@UpdateMain@2
  00083	8b ce		 mov	 ecx, esi
  00085	ff 15 00 00 00
	00		 call	 DWORD PTR __imp_?GetHeight@ioWnd@@QBEHXZ
  0008b	b9 59 02 00 00	 mov	 ecx, 601		; 00000259H
  00090	2b c8		 sub	 ecx, eax
  00092	3b d9		 cmp	 ebx, ecx
  00094	7d 06		 jge	 SHORT $LN11@UpdateMain@2

; 1277 : 		m_iDefYPos = iScoreWndYPos;

  00096	89 9e c4 00 00
	00		 mov	 DWORD PTR [esi+196], ebx
$LN11@UpdateMain@2:
  0009c	5f		 pop	 edi
  0009d	5b		 pop	 ebx
$LN1@UpdateMain@2:
  0009e	5e		 pop	 esi

; 1278 : }

  0009f	c9		 leave
  000a0	c3		 ret	 0
?UpdateMainDefaultPos@ioObserverBlueWnd@@IAEXXZ ENDP	; ioObserverBlueWnd::UpdateMainDefaultPos
_TEXT	ENDS
PUBLIC	?size@?$vector@URoundInfo@@V?$allocator@URoundInfo@@@std@@@std@@QBEIXZ ; std::vector<RoundInfo,std::allocator<RoundInfo> >::size
; Function compile flags: /Ogsp
; File c:\program files (x86)\microsoft visual studio 10.0\vc\include\vector
;	COMDAT ?size@?$vector@URoundInfo@@V?$allocator@URoundInfo@@@std@@@std@@QBEIXZ
_TEXT	SEGMENT
?size@?$vector@URoundInfo@@V?$allocator@URoundInfo@@@std@@@std@@QBEIXZ PROC ; std::vector<RoundInfo,std::allocator<RoundInfo> >::size, COMDAT
; _this$ = ecx

; 879  : 		return (this->_Mylast - this->_Myfirst);

  00000	8b 41 04	 mov	 eax, DWORD PTR [ecx+4]
  00003	2b 01		 sub	 eax, DWORD PTR [ecx]
  00005	c1 f8 07	 sar	 eax, 7

; 880  : 		}

  00008	c3		 ret	 0
?size@?$vector@URoundInfo@@V?$allocator@URoundInfo@@@std@@@std@@QBEIXZ ENDP ; std::vector<RoundInfo,std::allocator<RoundInfo> >::size
_TEXT	ENDS
PUBLIC	?empty@?$vector@URoundInfo@@V?$allocator@URoundInfo@@@std@@@std@@QBE_NXZ ; std::vector<RoundInfo,std::allocator<RoundInfo> >::empty
; Function compile flags: /Ogsp
;	COMDAT ?empty@?$vector@URoundInfo@@V?$allocator@URoundInfo@@@std@@@std@@QBE_NXZ
_TEXT	SEGMENT
?empty@?$vector@URoundInfo@@V?$allocator@URoundInfo@@@std@@@std@@QBE_NXZ PROC ; std::vector<RoundInfo,std::allocator<RoundInfo> >::empty, COMDAT
; _this$ = ecx

; 889  : 		return (this->_Myfirst == this->_Mylast);

  00000	8b 01		 mov	 eax, DWORD PTR [ecx]
  00002	2b 41 04	 sub	 eax, DWORD PTR [ecx+4]
  00005	f7 d8		 neg	 eax
  00007	1b c0		 sbb	 eax, eax
  00009	40		 inc	 eax

; 890  : 		}

  0000a	c3		 ret	 0
?empty@?$vector@URoundInfo@@V?$allocator@URoundInfo@@@std@@@std@@QBE_NXZ ENDP ; std::vector<RoundInfo,std::allocator<RoundInfo> >::empty
_TEXT	ENDS
PUBLIC	??A?$vector@URoundInfo@@V?$allocator@URoundInfo@@@std@@@std@@QAEAAURoundInfo@@I@Z ; std::vector<RoundInfo,std::allocator<RoundInfo> >::operator[]
; Function compile flags: /Ogsp
;	COMDAT ??A?$vector@URoundInfo@@V?$allocator@URoundInfo@@@std@@@std@@QAEAAURoundInfo@@I@Z
_TEXT	SEGMENT
__Pos$ = 8						; size = 4
??A?$vector@URoundInfo@@V?$allocator@URoundInfo@@@std@@@std@@QAEAAURoundInfo@@I@Z PROC ; std::vector<RoundInfo,std::allocator<RoundInfo> >::operator[], COMDAT
; _this$ = ecx

; 928  : 		{	// subscript mutable sequence

  00000	55		 push	 ebp
  00001	8b ec		 mov	 ebp, esp

; 929  :  #if _ITERATOR_DEBUG_LEVEL == 2
; 930  : 		if (size() <= _Pos)
; 931  : 			{	// report error
; 932  : 			_DEBUG_ERROR("vector subscript out of range");
; 933  : 			_SCL_SECURE_OUT_OF_RANGE;
; 934  : 			}
; 935  : 
; 936  :  #elif _ITERATOR_DEBUG_LEVEL == 1
; 937  : 		_SCL_SECURE_VALIDATE_RANGE(_Pos < size());
; 938  :  #endif /* _ITERATOR_DEBUG_LEVEL */
; 939  : 
; 940  : 		return (*(this->_Myfirst + _Pos));

  00003	8b 45 08	 mov	 eax, DWORD PTR __Pos$[ebp]
  00006	c1 e0 07	 shl	 eax, 7
  00009	03 01		 add	 eax, DWORD PTR [ecx]

; 941  : 		}

  0000b	5d		 pop	 ebp
  0000c	c2 04 00	 ret	 4
??A?$vector@URoundInfo@@V?$allocator@URoundInfo@@@std@@@std@@QAEAAURoundInfo@@I@Z ENDP ; std::vector<RoundInfo,std::allocator<RoundInfo> >::operator[]
_TEXT	ENDS
PUBLIC	?_Inside@?$vector@URoundInfo@@V?$allocator@URoundInfo@@@std@@@std@@IBE_NPBURoundInfo@@@Z ; std::vector<RoundInfo,std::allocator<RoundInfo> >::_Inside
; Function compile flags: /Ogsp
;	COMDAT ?_Inside@?$vector@URoundInfo@@V?$allocator@URoundInfo@@@std@@@std@@IBE_NPBURoundInfo@@@Z
_TEXT	SEGMENT
__Ptr$ = 8						; size = 4
?_Inside@?$vector@URoundInfo@@V?$allocator@URoundInfo@@@std@@@std@@IBE_NPBURoundInfo@@@Z PROC ; std::vector<RoundInfo,std::allocator<RoundInfo> >::_Inside, COMDAT
; _this$ = ecx

; 1285 : 		{	// test if _Ptr points inside vector

  00000	55		 push	 ebp
  00001	8b ec		 mov	 ebp, esp

; 1286 : 		return (_Ptr < this->_Mylast && this->_Myfirst <= _Ptr);

  00003	8b 45 08	 mov	 eax, DWORD PTR __Ptr$[ebp]
  00006	3b 41 04	 cmp	 eax, DWORD PTR [ecx+4]
  00009	73 09		 jae	 SHORT $LN3@Inside
  0000b	39 01		 cmp	 DWORD PTR [ecx], eax
  0000d	77 05		 ja	 SHORT $LN3@Inside
  0000f	33 c0		 xor	 eax, eax
  00011	40		 inc	 eax
  00012	eb 02		 jmp	 SHORT $LN4@Inside
$LN3@Inside:
  00014	33 c0		 xor	 eax, eax
$LN4@Inside:

; 1287 : 		}

  00016	5d		 pop	 ebp
  00017	c2 04 00	 ret	 4
?_Inside@?$vector@URoundInfo@@V?$allocator@URoundInfo@@@std@@@std@@IBE_NPBURoundInfo@@@Z ENDP ; std::vector<RoundInfo,std::allocator<RoundInfo> >::_Inside
_TEXT	ENDS
PUBLIC	?_Orphan_range@?$vector@URoundInfo@@V?$allocator@URoundInfo@@@std@@@std@@IBEXPAURoundInfo@@0@Z ; std::vector<RoundInfo,std::allocator<RoundInfo> >::_Orphan_range
; Function compile flags: /Ogsp
;	COMDAT ?_Orphan_range@?$vector@URoundInfo@@V?$allocator@URoundInfo@@@std@@@std@@IBEXPAURoundInfo@@0@Z
_TEXT	SEGMENT
___formal$ = 8						; size = 4
___formal$ = 12						; size = 4
?_Orphan_range@?$vector@URoundInfo@@V?$allocator@URoundInfo@@@std@@@std@@IBEXPAURoundInfo@@0@Z PROC ; std::vector<RoundInfo,std::allocator<RoundInfo> >::_Orphan_range, COMDAT
; _this$ = ecx

; 1454 : 		}

  00000	c2 08 00	 ret	 8
?_Orphan_range@?$vector@URoundInfo@@V?$allocator@URoundInfo@@@std@@@std@@IBEXPAURoundInfo@@0@Z ENDP ; std::vector<RoundInfo,std::allocator<RoundInfo> >::_Orphan_range
_TEXT	ENDS
PUBLIC	??1?$_Vector_val@URoundInfo@@V?$allocator@URoundInfo@@@std@@@std@@QAE@XZ ; std::_Vector_val<RoundInfo,std::allocator<RoundInfo> >::~_Vector_val<RoundInfo,std::allocator<RoundInfo> >
; Function compile flags: /Ogsp
;	COMDAT ??1?$_Vector_val@URoundInfo@@V?$allocator@URoundInfo@@@std@@@std@@QAE@XZ
_TEXT	SEGMENT
??1?$_Vector_val@URoundInfo@@V?$allocator@URoundInfo@@@std@@@std@@QAE@XZ PROC ; std::_Vector_val<RoundInfo,std::allocator<RoundInfo> >::~_Vector_val<RoundInfo,std::allocator<RoundInfo> >, COMDAT
; _this$ = ecx

; 434  : 		}

  00000	c3		 ret	 0
??1?$_Vector_val@URoundInfo@@V?$allocator@URoundInfo@@@std@@@std@@QAE@XZ ENDP ; std::_Vector_val<RoundInfo,std::allocator<RoundInfo> >::~_Vector_val<RoundInfo,std::allocator<RoundInfo> >
_TEXT	ENDS
PUBLIC	??0?$allocator@URoundInfo@@@std@@QAE@XZ		; std::allocator<RoundInfo>::allocator<RoundInfo>
; Function compile flags: /Ogsp
; File c:\program files (x86)\microsoft visual studio 10.0\vc\include\xmemory
;	COMDAT ??0?$allocator@URoundInfo@@@std@@QAE@XZ
_TEXT	SEGMENT
??0?$allocator@URoundInfo@@@std@@QAE@XZ PROC		; std::allocator<RoundInfo>::allocator<RoundInfo>, COMDAT
; _this$ = ecx

; 161  : 	_ALLOCATOR() _THROW0()

  00000	8b c1		 mov	 eax, ecx

; 162  : 		{	// construct default allocator (do nothing)
; 163  : 		}

  00002	c3		 ret	 0
??0?$allocator@URoundInfo@@@std@@QAE@XZ ENDP		; std::allocator<RoundInfo>::allocator<RoundInfo>
_TEXT	ENDS
PUBLIC	?capacity@?$vector@URoundInfo@@V?$allocator@URoundInfo@@@std@@@std@@QBEIXZ ; std::vector<RoundInfo,std::allocator<RoundInfo> >::capacity
; Function compile flags: /Ogsp
; File c:\program files (x86)\microsoft visual studio 10.0\vc\include\vector
;	COMDAT ?capacity@?$vector@URoundInfo@@V?$allocator@URoundInfo@@@std@@@std@@QBEIXZ
_TEXT	SEGMENT
?capacity@?$vector@URoundInfo@@V?$allocator@URoundInfo@@@std@@@std@@QBEIXZ PROC ; std::vector<RoundInfo,std::allocator<RoundInfo> >::capacity, COMDAT
; _this$ = ecx

; 777  : 		return (this->_Myend - this->_Myfirst);

  00000	8b 41 08	 mov	 eax, DWORD PTR [ecx+8]
  00003	2b 01		 sub	 eax, DWORD PTR [ecx]
  00005	c1 f8 07	 sar	 eax, 7

; 778  : 		}

  00008	c3		 ret	 0
?capacity@?$vector@URoundInfo@@V?$allocator@URoundInfo@@@std@@@std@@QBEIXZ ENDP ; std::vector<RoundInfo,std::allocator<RoundInfo> >::capacity
_TEXT	ENDS
PUBLIC	??_C@_0BD@OLBABOEK@vector?$DMT?$DO?5too?5long?$AA@ ; `string'
PUBLIC	?_Xlen@?$vector@URoundInfo@@V?$allocator@URoundInfo@@@std@@@std@@IBEXXZ ; std::vector<RoundInfo,std::allocator<RoundInfo> >::_Xlen
EXTRN	__imp_?_Xlength_error@std@@YAXPBD@Z:PROC
;	COMDAT ??_C@_0BD@OLBABOEK@vector?$DMT?$DO?5too?5long?$AA@
CONST	SEGMENT
??_C@_0BD@OLBABOEK@vector?$DMT?$DO?5too?5long?$AA@ DB 'vector<T> too long'
	DB	00H						; `string'
; Function compile flags: /Ogsp
CONST	ENDS
;	COMDAT ?_Xlen@?$vector@URoundInfo@@V?$allocator@URoundInfo@@@std@@@std@@IBEXXZ
_TEXT	SEGMENT
?_Xlen@?$vector@URoundInfo@@V?$allocator@URoundInfo@@@std@@@std@@IBEXXZ PROC ; std::vector<RoundInfo,std::allocator<RoundInfo> >::_Xlen, COMDAT
; _this$ = ecx

; 1427 : 		_Xlength_error("vector<T> too long");

  00000	68 00 00 00 00	 push	 OFFSET ??_C@_0BD@OLBABOEK@vector?$DMT?$DO?5too?5long?$AA@
  00005	ff 15 00 00 00
	00		 call	 DWORD PTR __imp_?_Xlength_error@std@@YAXPBD@Z
$LN4@Xlen:
$LN3@Xlen:
  0000b	cc		 int	 3
?_Xlen@?$vector@URoundInfo@@V?$allocator@URoundInfo@@@std@@@std@@IBEXXZ ENDP ; std::vector<RoundInfo,std::allocator<RoundInfo> >::_Xlen
_TEXT	ENDS
PUBLIC	??0?$allocator@URoundInfo@@@std@@QAE@ABV01@@Z	; std::allocator<RoundInfo>::allocator<RoundInfo>
; Function compile flags: /Ogsp
; File c:\program files (x86)\microsoft visual studio 10.0\vc\include\xmemory
;	COMDAT ??0?$allocator@URoundInfo@@@std@@QAE@ABV01@@Z
_TEXT	SEGMENT
___formal$ = 8						; size = 4
??0?$allocator@URoundInfo@@@std@@QAE@ABV01@@Z PROC	; std::allocator<RoundInfo>::allocator<RoundInfo>, COMDAT
; _this$ = ecx

; 165  : 	_ALLOCATOR(const _ALLOCATOR<_Ty>&) _THROW0()

  00000	8b c1		 mov	 eax, ecx

; 166  : 		{	// construct by copying (do nothing)
; 167  : 		}

  00002	c2 04 00	 ret	 4
??0?$allocator@URoundInfo@@@std@@QAE@ABV01@@Z ENDP	; std::allocator<RoundInfo>::allocator<RoundInfo>
_TEXT	ENDS
PUBLIC	?deallocate@?$allocator@URoundInfo@@@std@@QAEXPAURoundInfo@@I@Z ; std::allocator<RoundInfo>::deallocate
; Function compile flags: /Ogsp
;	COMDAT ?deallocate@?$allocator@URoundInfo@@@std@@QAEXPAURoundInfo@@I@Z
_TEXT	SEGMENT
__Ptr$ = 8						; size = 4
___formal$ = 12						; size = 4
?deallocate@?$allocator@URoundInfo@@@std@@QAEXPAURoundInfo@@I@Z PROC ; std::allocator<RoundInfo>::deallocate, COMDAT
; _this$ = ecx

; 181  : 		{	// deallocate object at _Ptr, ignore size

  00000	55		 push	 ebp
  00001	8b ec		 mov	 ebp, esp

; 182  : 		::operator delete(_Ptr);

  00003	ff 75 08	 push	 DWORD PTR __Ptr$[ebp]
  00006	e8 00 00 00 00	 call	 ??3@YAXPAX@Z		; operator delete
  0000b	59		 pop	 ecx

; 183  : 		}

  0000c	5d		 pop	 ebp
  0000d	c2 08 00	 ret	 8
?deallocate@?$allocator@URoundInfo@@@std@@QAEXPAURoundInfo@@I@Z ENDP ; std::allocator<RoundInfo>::deallocate
_TEXT	ENDS
PUBLIC	??0?$_Vector_const_iterator@V?$_Vector_val@URoundInfo@@V?$allocator@URoundInfo@@@std@@@std@@@std@@QAE@PAURoundInfo@@PBU_Container_base0@1@@Z ; std::_Vector_const_iterator<std::_Vector_val<RoundInfo,std::allocator<RoundInfo> > >::_Vector_const_iterator<std::_Vector_val<RoundInfo,std::allocator<RoundInfo> > >
; Function compile flags: /Ogsp
; File c:\program files (x86)\microsoft visual studio 10.0\vc\include\vector
;	COMDAT ??0?$_Vector_const_iterator@V?$_Vector_val@URoundInfo@@V?$allocator@URoundInfo@@@std@@@std@@@std@@QAE@PAURoundInfo@@PBU_Container_base0@1@@Z
_TEXT	SEGMENT
__Parg$ = 8						; size = 4
__Pvector$ = 12						; size = 4
??0?$_Vector_const_iterator@V?$_Vector_val@URoundInfo@@V?$allocator@URoundInfo@@@std@@@std@@@std@@QAE@PAURoundInfo@@PBU_Container_base0@1@@Z PROC ; std::_Vector_const_iterator<std::_Vector_val<RoundInfo,std::allocator<RoundInfo> > >::_Vector_const_iterator<std::_Vector_val<RoundInfo,std::allocator<RoundInfo> > >, COMDAT
; _this$ = ecx

; 45   : 		{	// construct with pointer _Parg

  00000	55		 push	 ebp
  00001	8b ec		 mov	 ebp, esp
  00003	8b c1		 mov	 eax, ecx
  00005	8b 4d 08	 mov	 ecx, DWORD PTR __Parg$[ebp]
  00008	89 08		 mov	 DWORD PTR [eax], ecx

; 46   : 		this->_Adopt(_Pvector);
; 47   : 		}

  0000a	5d		 pop	 ebp
  0000b	c2 08 00	 ret	 8
??0?$_Vector_const_iterator@V?$_Vector_val@URoundInfo@@V?$allocator@URoundInfo@@@std@@@std@@@std@@QAE@PAURoundInfo@@PBU_Container_base0@1@@Z ENDP ; std::_Vector_const_iterator<std::_Vector_val<RoundInfo,std::allocator<RoundInfo> > >::_Vector_const_iterator<std::_Vector_val<RoundInfo,std::allocator<RoundInfo> > >
_TEXT	ENDS
PUBLIC	?max_size@?$allocator@URoundInfo@@@std@@QBEIXZ	; std::allocator<RoundInfo>::max_size
; Function compile flags: /Ogsp
; File c:\program files (x86)\microsoft visual studio 10.0\vc\include\xmemory
;	COMDAT ?max_size@?$allocator@URoundInfo@@@std@@QBEIXZ
_TEXT	SEGMENT
?max_size@?$allocator@URoundInfo@@@std@@QBEIXZ PROC	; std::allocator<RoundInfo>::max_size, COMDAT
; _this$ = ecx

; 218  : 		_SIZT _Count = (_SIZT)(-1) / sizeof (_Ty);
; 219  : 		return (0 < _Count ? _Count : 1);

  00000	b8 ff ff ff 01	 mov	 eax, 33554431		; 01ffffffH

; 220  : 		}

  00005	c3		 ret	 0
?max_size@?$allocator@URoundInfo@@@std@@QBEIXZ ENDP	; std::allocator<RoundInfo>::max_size
_TEXT	ENDS
PUBLIC	?_Compat@?$_Vector_const_iterator@V?$_Vector_val@URoundInfo@@V?$allocator@URoundInfo@@@std@@@std@@@std@@QBEXABV12@@Z ; std::_Vector_const_iterator<std::_Vector_val<RoundInfo,std::allocator<RoundInfo> > >::_Compat
; Function compile flags: /Ogsp
; File c:\program files (x86)\microsoft visual studio 10.0\vc\include\vector
;	COMDAT ?_Compat@?$_Vector_const_iterator@V?$_Vector_val@URoundInfo@@V?$allocator@URoundInfo@@@std@@@std@@@std@@QBEXABV12@@Z
_TEXT	SEGMENT
___formal$ = 8						; size = 4
?_Compat@?$_Vector_const_iterator@V?$_Vector_val@URoundInfo@@V?$allocator@URoundInfo@@@std@@@std@@@std@@QBEXABV12@@Z PROC ; std::_Vector_const_iterator<std::_Vector_val<RoundInfo,std::allocator<RoundInfo> > >::_Compat, COMDAT
; _this$ = ecx

; 253  : 		}

  00000	c2 04 00	 ret	 4
?_Compat@?$_Vector_const_iterator@V?$_Vector_val@URoundInfo@@V?$allocator@URoundInfo@@@std@@@std@@@std@@QBEXABV12@@Z ENDP ; std::_Vector_const_iterator<std::_Vector_val<RoundInfo,std::allocator<RoundInfo> > >::_Compat
_TEXT	ENDS
PUBLIC	??$addressof@$$CBURoundInfo@@@std@@YAPBURoundInfo@@ABU1@@Z ; std::addressof<RoundInfo const >
; Function compile flags: /Ogsp
; File c:\program files (x86)\microsoft visual studio 10.0\vc\include\xmemory
;	COMDAT ??$addressof@$$CBURoundInfo@@@std@@YAPBURoundInfo@@ABU1@@Z
_TEXT	SEGMENT
__Val$ = 8						; size = 4
??$addressof@$$CBURoundInfo@@@std@@YAPBURoundInfo@@ABU1@@Z PROC ; std::addressof<RoundInfo const >, COMDAT

; 110  : 	{	// return address of _Val

  00000	55		 push	 ebp
  00001	8b ec		 mov	 ebp, esp

; 111  : 	return ((_Ty *) &(char&)_Val);

  00003	8b 45 08	 mov	 eax, DWORD PTR __Val$[ebp]

; 112  : 	}

  00006	5d		 pop	 ebp
  00007	c3		 ret	 0
??$addressof@$$CBURoundInfo@@@std@@YAPBURoundInfo@@ABU1@@Z ENDP ; std::addressof<RoundInfo const >
_TEXT	ENDS
PUBLIC	__TI2?AVbad_alloc@std@@
PUBLIC	??$_Allocate@URoundInfo@@@std@@YAPAURoundInfo@@IPAU1@@Z ; std::_Allocate<RoundInfo>
PUBLIC	__CTA2?AVbad_alloc@std@@
PUBLIC	__CT??_R0?AVbad_alloc@std@@@8??0bad_alloc@std@@QAE@ABV01@@Z12
PUBLIC	??0bad_alloc@std@@QAE@ABV01@@Z			; std::bad_alloc::bad_alloc
PUBLIC	__CT??_R0?AVexception@std@@@8??0exception@std@@QAE@ABV01@@Z12
EXTRN	??2@YAPAXI@Z:PROC				; operator new
EXTRN	__CxxThrowException@8:PROC
EXTRN	??0exception@std@@QAE@ABV01@@Z:PROC		; std::exception::exception
;	COMDAT __CT??_R0?AVexception@std@@@8??0exception@std@@QAE@ABV01@@Z12
; File c:\program files (x86)\microsoft visual studio 10.0\vc\include\exception
xdata$x	SEGMENT
__CT??_R0?AVexception@std@@@8??0exception@std@@QAE@ABV01@@Z12 DD 00H
	DD	FLAT:??_R0?AVexception@std@@@8
	DD	00H
	DD	0ffffffffH
	ORG $+4
	DD	0cH
	DD	FLAT:??0exception@std@@QAE@ABV01@@Z
xdata$x	ENDS
;	COMDAT __CT??_R0?AVbad_alloc@std@@@8??0bad_alloc@std@@QAE@ABV01@@Z12
xdata$x	SEGMENT
__CT??_R0?AVbad_alloc@std@@@8??0bad_alloc@std@@QAE@ABV01@@Z12 DD 00H
	DD	FLAT:??_R0?AVbad_alloc@std@@@8
	DD	00H
	DD	0ffffffffH
	ORG $+4
	DD	0cH
	DD	FLAT:??0bad_alloc@std@@QAE@ABV01@@Z
xdata$x	ENDS
;	COMDAT __CTA2?AVbad_alloc@std@@
xdata$x	SEGMENT
__CTA2?AVbad_alloc@std@@ DD 02H
	DD	FLAT:__CT??_R0?AVbad_alloc@std@@@8??0bad_alloc@std@@QAE@ABV01@@Z12
	DD	FLAT:__CT??_R0?AVexception@std@@@8??0exception@std@@QAE@ABV01@@Z12
xdata$x	ENDS
;	COMDAT __TI2?AVbad_alloc@std@@
xdata$x	SEGMENT
__TI2?AVbad_alloc@std@@ DD 00H
	DD	FLAT:??1bad_alloc@std@@UAE@XZ
	DD	00H
	DD	FLAT:__CTA2?AVbad_alloc@std@@
; Function compile flags: /Ogsp
; File c:\program files (x86)\microsoft visual studio 10.0\vc\include\xmemory
xdata$x	ENDS
;	COMDAT ??$_Allocate@URoundInfo@@@std@@YAPAURoundInfo@@IPAU1@@Z
_TEXT	SEGMENT
$T535465 = -12						; size = 12
$T535470 = 8						; size = 4
__Count$ = 8						; size = 4
___formal$ = 12						; size = 4
??$_Allocate@URoundInfo@@@std@@YAPAURoundInfo@@IPAU1@@Z PROC ; std::_Allocate<RoundInfo>, COMDAT

; 30   : 	{	// allocate storage for _Count elements of type _Ty

  00000	55		 push	 ebp
  00001	8b ec		 mov	 ebp, esp

; 31   : 	void *_Ptr = 0;
; 32   : 
; 33   : 	if (_Count <= 0)

  00003	8b 4d 08	 mov	 ecx, DWORD PTR __Count$[ebp]
  00006	83 ec 0c	 sub	 esp, 12			; 0000000cH
  00009	33 c0		 xor	 eax, eax
  0000b	85 c9		 test	 ecx, ecx

; 34   : 		_Count = 0;
; 35   : 	else if (((_SIZT)(-1) / sizeof (_Ty) < _Count)

  0000d	74 3c		 je	 SHORT $LN5@Allocate

; 36   : 		|| (_Ptr = ::operator new(_Count * sizeof (_Ty))) == 0)

  0000f	81 f9 ff ff ff
	01		 cmp	 ecx, 33554431		; 01ffffffH
  00015	77 0e		 ja	 SHORT $LN1@Allocate
  00017	c1 e1 07	 shl	 ecx, 7
  0001a	51		 push	 ecx
  0001b	e8 00 00 00 00	 call	 ??2@YAPAXI@Z		; operator new
  00020	59		 pop	 ecx
  00021	85 c0		 test	 eax, eax

; 38   : 
; 39   : 	return ((_Ty _FARQ *)_Ptr);

  00023	75 26		 jne	 SHORT $LN5@Allocate
$LN1@Allocate:

; 37   : 		_THROW_NCEE(bad_alloc, 0);

  00025	83 65 08 00	 and	 DWORD PTR $T535470[ebp], 0
  00029	8d 45 08	 lea	 eax, DWORD PTR $T535470[ebp]
  0002c	50		 push	 eax
  0002d	8d 4d f4	 lea	 ecx, DWORD PTR $T535465[ebp]
  00030	ff 15 00 00 00
	00		 call	 DWORD PTR __imp_??0exception@std@@QAE@ABQBD@Z
  00036	68 00 00 00 00	 push	 OFFSET __TI2?AVbad_alloc@std@@
  0003b	8d 45 f4	 lea	 eax, DWORD PTR $T535465[ebp]
  0003e	50		 push	 eax
  0003f	c7 45 f4 00 00
	00 00		 mov	 DWORD PTR $T535465[ebp], OFFSET ??_7bad_alloc@std@@6B@
  00046	e8 00 00 00 00	 call	 __CxxThrowException@8
$LN10@Allocate:
$LN5@Allocate:

; 40   : 	}

  0004b	c9		 leave
  0004c	c3		 ret	 0
$LN9@Allocate:
??$_Allocate@URoundInfo@@@std@@YAPAURoundInfo@@IPAU1@@Z ENDP ; std::_Allocate<RoundInfo>
_TEXT	ENDS
PUBLIC	??$forward@AAURoundInfo@@@std@@YAAAURoundInfo@@AAU1@@Z ; std::forward<RoundInfo &>
; Function compile flags: /Ogsp
; File c:\program files (x86)\microsoft visual studio 10.0\vc\include\utility
;	COMDAT ??$forward@AAURoundInfo@@@std@@YAAAURoundInfo@@AAU1@@Z
_TEXT	SEGMENT
__Arg$ = 8						; size = 4
??$forward@AAURoundInfo@@@std@@YAAAURoundInfo@@AAU1@@Z PROC ; std::forward<RoundInfo &>, COMDAT

; 78   : 	{	// forward _Arg, given explicitly specified type parameter

  00000	55		 push	 ebp
  00001	8b ec		 mov	 ebp, esp

; 79   : 	return ((_Ty&&)_Arg);

  00003	8b 45 08	 mov	 eax, DWORD PTR __Arg$[ebp]

; 80   : 	}

  00006	5d		 pop	 ebp
  00007	c3		 ret	 0
??$forward@AAURoundInfo@@@std@@YAAAURoundInfo@@AAU1@@Z ENDP ; std::forward<RoundInfo &>
_TEXT	ENDS
PUBLIC	??$construct@AAURoundInfo@@@?$allocator@URoundInfo@@@std@@QAEXPAURoundInfo@@AAU2@@Z ; std::allocator<RoundInfo>::construct<RoundInfo &>
;	COMDAT xdata$x
xdata$x	SEGMENT
__unwindtable$??$construct@AAURoundInfo@@@?$allocator@URoundInfo@@@std@@QAEXPAURoundInfo@@AAU2@@Z DD 0ffffffffH
	DD	FLAT:__unwindfunclet$??$construct@AAURoundInfo@@@?$allocator@URoundInfo@@@std@@QAEXPAURoundInfo@@AAU2@@Z$0
__ehfuncinfo$??$construct@AAURoundInfo@@@?$allocator@URoundInfo@@@std@@QAEXPAURoundInfo@@AAU2@@Z DD 019930522H
	DD	01H
	DD	FLAT:__unwindtable$??$construct@AAURoundInfo@@@?$allocator@URoundInfo@@@std@@QAEXPAURoundInfo@@AAU2@@Z
	DD	2 DUP(00H)
	DD	2 DUP(00H)
	DD	00H
	DD	01H
; Function compile flags: /Ogsp
; File c:\program files (x86)\microsoft visual studio 10.0\vc\include\xmemory
xdata$x	ENDS
;	COMDAT ??$construct@AAURoundInfo@@@?$allocator@URoundInfo@@@std@@QAEXPAURoundInfo@@AAU2@@Z
_TEXT	SEGMENT
$T535478 = -16						; size = 4
__$EHRec$ = -12						; size = 12
__Ptr$ = 8						; size = 4
__Val$ = 12						; size = 4
??$construct@AAURoundInfo@@@?$allocator@URoundInfo@@@std@@QAEXPAURoundInfo@@AAU2@@Z PROC ; std::allocator<RoundInfo>::construct<RoundInfo &>, COMDAT
; _this$ = ecx

; 206  : 		void construct(pointer _Ptr, _Other&& _Val)

  00000	6a 04		 push	 4
  00002	b8 00 00 00 00	 mov	 eax, __ehhandler$??$construct@AAURoundInfo@@@?$allocator@URoundInfo@@@std@@QAEXPAURoundInfo@@AAU2@@Z
  00007	e8 00 00 00 00	 call	 __EH_prolog3

; 207  : 		{	// construct object at _Ptr with value _Val
; 208  : 		::new ((void _FARQ *)_Ptr) _Ty(_STD forward<_Other>(_Val));

  0000c	8b 4d 08	 mov	 ecx, DWORD PTR __Ptr$[ebp]
  0000f	89 4d f0	 mov	 DWORD PTR $T535478[ebp], ecx
  00012	83 65 fc 00	 and	 DWORD PTR __$EHRec$[ebp+8], 0
  00016	85 c9		 test	 ecx, ecx
  00018	74 08		 je	 SHORT $LN3@construct
  0001a	ff 75 0c	 push	 DWORD PTR __Val$[ebp]
  0001d	e8 00 00 00 00	 call	 ??0RoundInfo@@QAE@ABU0@@Z
$LN3@construct:

; 209  : 		}

  00022	e8 00 00 00 00	 call	 __EH_epilog3
  00027	c2 08 00	 ret	 8
_TEXT	ENDS
;	COMDAT text$x
text$x	SEGMENT
__unwindfunclet$??$construct@AAURoundInfo@@@?$allocator@URoundInfo@@@std@@QAEXPAURoundInfo@@AAU2@@Z$0:
  00000	ff 75 08	 push	 DWORD PTR __Ptr$[ebp]
  00003	ff 75 f0	 push	 DWORD PTR $T535478[ebp]
  00006	e8 00 00 00 00	 call	 ??3@YAXPAX0@Z		; operator delete
  0000b	59		 pop	 ecx
  0000c	59		 pop	 ecx
  0000d	c3		 ret	 0
__ehhandler$??$construct@AAURoundInfo@@@?$allocator@URoundInfo@@@std@@QAEXPAURoundInfo@@AAU2@@Z:
  0000e	8b 54 24 08	 mov	 edx, DWORD PTR [esp+8]
  00012	8d 42 0c	 lea	 eax, DWORD PTR [edx+12]
  00015	8b 4a ec	 mov	 ecx, DWORD PTR [edx-20]
  00018	33 c8		 xor	 ecx, eax
  0001a	e8 00 00 00 00	 call	 @__security_check_cookie@4
  0001f	b8 00 00 00 00	 mov	 eax, OFFSET __ehfuncinfo$??$construct@AAURoundInfo@@@?$allocator@URoundInfo@@@std@@QAEXPAURoundInfo@@AAU2@@Z
  00024	e9 00 00 00 00	 jmp	 ___CxxFrameHandler3
text$x	ENDS
??$construct@AAURoundInfo@@@?$allocator@URoundInfo@@@std@@QAEXPAURoundInfo@@AAU2@@Z ENDP ; std::allocator<RoundInfo>::construct<RoundInfo &>
PUBLIC	??$forward@ABURoundInfo@@@std@@YAABURoundInfo@@ABU1@@Z ; std::forward<RoundInfo const &>
; Function compile flags: /Ogsp
; File c:\program files (x86)\microsoft visual studio 10.0\vc\include\utility
;	COMDAT ??$forward@ABURoundInfo@@@std@@YAABURoundInfo@@ABU1@@Z
_TEXT	SEGMENT
__Arg$ = 8						; size = 4
??$forward@ABURoundInfo@@@std@@YAABURoundInfo@@ABU1@@Z PROC ; std::forward<RoundInfo const &>, COMDAT

; 78   : 	{	// forward _Arg, given explicitly specified type parameter

  00000	55		 push	 ebp
  00001	8b ec		 mov	 ebp, esp

; 79   : 	return ((_Ty&&)_Arg);

  00003	8b 45 08	 mov	 eax, DWORD PTR __Arg$[ebp]

; 80   : 	}

  00006	5d		 pop	 ebp
  00007	c3		 ret	 0
??$forward@ABURoundInfo@@@std@@YAABURoundInfo@@ABU1@@Z ENDP ; std::forward<RoundInfo const &>
_TEXT	ENDS
PUBLIC	??$_Ptr_cat@URoundInfo@@U1@@std@@YA?AU_Nonscalar_ptr_iterator_tag@0@PAURoundInfo@@0@Z ; std::_Ptr_cat<RoundInfo,RoundInfo>
; Function compile flags: /Ogsp
; File c:\program files (x86)\microsoft visual studio 10.0\vc\include\xutility
;	COMDAT ??$_Ptr_cat@URoundInfo@@U1@@std@@YA?AU_Nonscalar_ptr_iterator_tag@0@PAURoundInfo@@0@Z
_TEXT	SEGMENT
__Cat$ = -1						; size = 1
___formal$ = 8						; size = 4
___formal$ = 12						; size = 4
??$_Ptr_cat@URoundInfo@@U1@@std@@YA?AU_Nonscalar_ptr_iterator_tag@0@PAURoundInfo@@0@Z PROC ; std::_Ptr_cat<RoundInfo,RoundInfo>, COMDAT

; 516  : 	{	// return pointer category from pointers

  00000	55		 push	 ebp
  00001	8b ec		 mov	 ebp, esp
  00003	51		 push	 ecx

; 517  : 	typename _Ptr_cat_helper<_Elem1, _Elem2>::_Type _Cat;
; 518  : 	return (_Cat);

  00004	8a 45 ff	 mov	 al, BYTE PTR __Cat$[ebp]

; 519  : 	}

  00007	c9		 leave
  00008	c3		 ret	 0
??$_Ptr_cat@URoundInfo@@U1@@std@@YA?AU_Nonscalar_ptr_iterator_tag@0@PAURoundInfo@@0@Z ENDP ; std::_Ptr_cat<RoundInfo,RoundInfo>
_TEXT	ENDS
PUBLIC	??$_Construct@URoundInfo@@ABU1@@std@@YAXPAURoundInfo@@ABU1@@Z ; std::_Construct<RoundInfo,RoundInfo const &>
;	COMDAT xdata$x
; File c:\program files (x86)\microsoft visual studio 10.0\vc\include\utility
xdata$x	SEGMENT
__unwindtable$??$_Construct@URoundInfo@@ABU1@@std@@YAXPAURoundInfo@@ABU1@@Z DD 0ffffffffH
	DD	FLAT:__unwindfunclet$??$_Construct@URoundInfo@@ABU1@@std@@YAXPAURoundInfo@@ABU1@@Z$0
__ehfuncinfo$??$_Construct@URoundInfo@@ABU1@@std@@YAXPAURoundInfo@@ABU1@@Z DD 019930522H
	DD	01H
	DD	FLAT:__unwindtable$??$_Construct@URoundInfo@@ABU1@@std@@YAXPAURoundInfo@@ABU1@@Z
	DD	2 DUP(00H)
	DD	2 DUP(00H)
	DD	00H
	DD	01H
; Function compile flags: /Ogsp
; File c:\program files (x86)\microsoft visual studio 10.0\vc\include\xmemory
xdata$x	ENDS
;	COMDAT ??$_Construct@URoundInfo@@ABU1@@std@@YAXPAURoundInfo@@ABU1@@Z
_TEXT	SEGMENT
$T535501 = -16						; size = 4
__$EHRec$ = -12						; size = 12
__Vptr$ = 8						; size = 4
__Ptr$ = 8						; size = 4
__Val$ = 12						; size = 4
??$_Construct@URoundInfo@@ABU1@@std@@YAXPAURoundInfo@@ABU1@@Z PROC ; std::_Construct<RoundInfo,RoundInfo const &>, COMDAT

; 46   : 	{	// construct object at _Ptr with value _Val

  00000	6a 04		 push	 4
  00002	b8 00 00 00 00	 mov	 eax, __ehhandler$??$_Construct@URoundInfo@@ABU1@@std@@YAXPAURoundInfo@@ABU1@@Z
  00007	e8 00 00 00 00	 call	 __EH_prolog3

; 47   : 	void _FARQ *_Vptr = _Ptr;

  0000c	8b 4d 08	 mov	 ecx, DWORD PTR __Ptr$[ebp]
  0000f	89 4d 08	 mov	 DWORD PTR __Vptr$[ebp], ecx

; 48   : 	::new (_Vptr) _Ty1(_STD forward<_Ty2>(_Val));

  00012	89 4d f0	 mov	 DWORD PTR $T535501[ebp], ecx
  00015	83 65 fc 00	 and	 DWORD PTR __$EHRec$[ebp+8], 0
  00019	85 c9		 test	 ecx, ecx
  0001b	74 08		 je	 SHORT $LN3@Construct
  0001d	ff 75 0c	 push	 DWORD PTR __Val$[ebp]
  00020	e8 00 00 00 00	 call	 ??0RoundInfo@@QAE@ABU0@@Z
$LN3@Construct:

; 49   : 	}

  00025	e8 00 00 00 00	 call	 __EH_epilog3
  0002a	c3		 ret	 0
_TEXT	ENDS
;	COMDAT text$x
text$x	SEGMENT
__unwindfunclet$??$_Construct@URoundInfo@@ABU1@@std@@YAXPAURoundInfo@@ABU1@@Z$0:
  00000	ff 75 08	 push	 DWORD PTR __Vptr$[ebp]
  00003	ff 75 f0	 push	 DWORD PTR $T535501[ebp]
  00006	e8 00 00 00 00	 call	 ??3@YAXPAX0@Z		; operator delete
  0000b	59		 pop	 ecx
  0000c	59		 pop	 ecx
  0000d	c3		 ret	 0
__ehhandler$??$_Construct@URoundInfo@@ABU1@@std@@YAXPAURoundInfo@@ABU1@@Z:
  0000e	8b 54 24 08	 mov	 edx, DWORD PTR [esp+8]
  00012	8d 42 0c	 lea	 eax, DWORD PTR [edx+12]
  00015	8b 4a ec	 mov	 ecx, DWORD PTR [edx-20]
  00018	33 c8		 xor	 ecx, eax
  0001a	e8 00 00 00 00	 call	 @__security_check_cookie@4
  0001f	b8 00 00 00 00	 mov	 eax, OFFSET __ehfuncinfo$??$_Construct@URoundInfo@@ABU1@@std@@YAXPAURoundInfo@@ABU1@@Z
  00024	e9 00 00 00 00	 jmp	 ___CxxFrameHandler3
text$x	ENDS
??$_Construct@URoundInfo@@ABU1@@std@@YAXPAURoundInfo@@ABU1@@Z ENDP ; std::_Construct<RoundInfo,RoundInfo const &>
PUBLIC	??4RoundInfo@@QAEAAU0@ABU0@@Z			; RoundInfo::operator=
EXTRN	__imp_??4ioHashString@@QAEAAV0@ABV0@@Z:PROC
; Function compile flags: /Ogsp
;	COMDAT ??4RoundInfo@@QAEAAU0@ABU0@@Z
_TEXT	SEGMENT
___that$ = 8						; size = 4
??4RoundInfo@@QAEAAU0@ABU0@@Z PROC			; RoundInfo::operator=, COMDAT
; _this$ = ecx
  00000	55		 push	 ebp
  00001	8b ec		 mov	 ebp, esp
  00003	53		 push	 ebx
  00004	8b 1d 00 00 00
	00		 mov	 ebx, DWORD PTR __imp_??4ioHashString@@QAEAAV0@ABV0@@Z
  0000a	56		 push	 esi
  0000b	57		 push	 edi
  0000c	8b 7d 08	 mov	 edi, DWORD PTR ___that$[ebp]
  0000f	57		 push	 edi
  00010	8b f1		 mov	 esi, ecx
  00012	ff d3		 call	 ebx
  00014	8b 47 10	 mov	 eax, DWORD PTR [edi+16]
  00017	89 46 10	 mov	 DWORD PTR [esi+16], eax
  0001a	8b 47 14	 mov	 eax, DWORD PTR [edi+20]
  0001d	89 46 14	 mov	 DWORD PTR [esi+20], eax
  00020	8b 47 18	 mov	 eax, DWORD PTR [edi+24]
  00023	89 46 18	 mov	 DWORD PTR [esi+24], eax
  00026	8d 47 1c	 lea	 eax, DWORD PTR [edi+28]
  00029	50		 push	 eax
  0002a	8d 4e 1c	 lea	 ecx, DWORD PTR [esi+28]
  0002d	ff d3		 call	 ebx
  0002f	8b 47 2c	 mov	 eax, DWORD PTR [edi+44]
  00032	89 46 2c	 mov	 DWORD PTR [esi+44], eax
  00035	8b 47 30	 mov	 eax, DWORD PTR [edi+48]
  00038	89 46 30	 mov	 DWORD PTR [esi+48], eax
  0003b	8b 47 34	 mov	 eax, DWORD PTR [edi+52]
  0003e	89 46 34	 mov	 DWORD PTR [esi+52], eax
  00041	8b 47 38	 mov	 eax, DWORD PTR [edi+56]
  00044	89 46 38	 mov	 DWORD PTR [esi+56], eax
  00047	8b 47 3c	 mov	 eax, DWORD PTR [edi+60]
  0004a	89 46 3c	 mov	 DWORD PTR [esi+60], eax
  0004d	8b 47 40	 mov	 eax, DWORD PTR [edi+64]
  00050	89 46 40	 mov	 DWORD PTR [esi+64], eax
  00053	8b 47 44	 mov	 eax, DWORD PTR [edi+68]
  00056	89 46 44	 mov	 DWORD PTR [esi+68], eax
  00059	8b 47 48	 mov	 eax, DWORD PTR [edi+72]
  0005c	89 46 48	 mov	 DWORD PTR [esi+72], eax
  0005f	8b 47 4c	 mov	 eax, DWORD PTR [edi+76]
  00062	89 46 4c	 mov	 DWORD PTR [esi+76], eax
  00065	8b 47 50	 mov	 eax, DWORD PTR [edi+80]
  00068	89 46 50	 mov	 DWORD PTR [esi+80], eax
  0006b	8a 47 54	 mov	 al, BYTE PTR [edi+84]
  0006e	88 46 54	 mov	 BYTE PTR [esi+84], al
  00071	8a 47 55	 mov	 al, BYTE PTR [edi+85]
  00074	88 46 55	 mov	 BYTE PTR [esi+85], al
  00077	8a 47 56	 mov	 al, BYTE PTR [edi+86]
  0007a	88 46 56	 mov	 BYTE PTR [esi+86], al
  0007d	8a 47 57	 mov	 al, BYTE PTR [edi+87]
  00080	88 46 57	 mov	 BYTE PTR [esi+87], al
  00083	8b 47 58	 mov	 eax, DWORD PTR [edi+88]
  00086	89 46 58	 mov	 DWORD PTR [esi+88], eax
  00089	8b 47 5c	 mov	 eax, DWORD PTR [edi+92]
  0008c	89 46 5c	 mov	 DWORD PTR [esi+92], eax
  0008f	8b 47 60	 mov	 eax, DWORD PTR [edi+96]
  00092	89 46 60	 mov	 DWORD PTR [esi+96], eax
  00095	8b 47 64	 mov	 eax, DWORD PTR [edi+100]
  00098	89 46 64	 mov	 DWORD PTR [esi+100], eax
  0009b	8b 47 68	 mov	 eax, DWORD PTR [edi+104]
  0009e	89 46 68	 mov	 DWORD PTR [esi+104], eax
  000a1	8b 47 6c	 mov	 eax, DWORD PTR [edi+108]
  000a4	89 46 6c	 mov	 DWORD PTR [esi+108], eax
  000a7	8b 47 70	 mov	 eax, DWORD PTR [edi+112]
  000aa	89 46 70	 mov	 DWORD PTR [esi+112], eax
  000ad	8b 47 74	 mov	 eax, DWORD PTR [edi+116]
  000b0	89 46 74	 mov	 DWORD PTR [esi+116], eax
  000b3	8a 47 78	 mov	 al, BYTE PTR [edi+120]
  000b6	88 46 78	 mov	 BYTE PTR [esi+120], al
  000b9	8a 47 79	 mov	 al, BYTE PTR [edi+121]
  000bc	88 46 79	 mov	 BYTE PTR [esi+121], al
  000bf	8b 47 7c	 mov	 eax, DWORD PTR [edi+124]
  000c2	89 46 7c	 mov	 DWORD PTR [esi+124], eax
  000c5	5f		 pop	 edi
  000c6	8b c6		 mov	 eax, esi
  000c8	5e		 pop	 esi
  000c9	5b		 pop	 ebx
  000ca	5d		 pop	 ebp
  000cb	c2 04 00	 ret	 4
??4RoundInfo@@QAEAAU0@ABU0@@Z ENDP			; RoundInfo::operator=
_TEXT	ENDS
PUBLIC	??$move@AAURoundInfo@@@std@@YA$$QAURoundInfo@@AAU1@@Z ; std::move<RoundInfo &>
; Function compile flags: /Ogsp
; File c:\program files (x86)\microsoft visual studio 10.0\vc\include\utility
;	COMDAT ??$move@AAURoundInfo@@@std@@YA$$QAURoundInfo@@AAU1@@Z
_TEXT	SEGMENT
__Arg$ = 8						; size = 4
??$move@AAURoundInfo@@@std@@YA$$QAURoundInfo@@AAU1@@Z PROC ; std::move<RoundInfo &>, COMDAT

; 86   : 	{	// forward _Arg as movable

  00000	55		 push	 ebp
  00001	8b ec		 mov	 ebp, esp

; 87   : 	return ((typename tr1::_Remove_reference<_Ty>::_Type&&)_Arg);

  00003	8b 45 08	 mov	 eax, DWORD PTR __Arg$[ebp]

; 88   : 	}

  00006	5d		 pop	 ebp
  00007	c3		 ret	 0
??$move@AAURoundInfo@@@std@@YA$$QAURoundInfo@@AAU1@@Z ENDP ; std::move<RoundInfo &>
_TEXT	ENDS
PUBLIC	??$_Val_type@PAURoundInfo@@@std@@YAPAURoundInfo@@PAU1@@Z ; std::_Val_type<RoundInfo *>
; Function compile flags: /Ogsp
; File c:\program files (x86)\microsoft visual studio 10.0\vc\include\xutility
;	COMDAT ??$_Val_type@PAURoundInfo@@@std@@YAPAURoundInfo@@PAU1@@Z
_TEXT	SEGMENT
___formal$ = 8						; size = 4
??$_Val_type@PAURoundInfo@@@std@@YAPAURoundInfo@@PAU1@@Z PROC ; std::_Val_type<RoundInfo *>, COMDAT

; 790  : 	return (0);

  00000	33 c0		 xor	 eax, eax

; 791  : 	}

  00002	c3		 ret	 0
??$_Val_type@PAURoundInfo@@@std@@YAPAURoundInfo@@PAU1@@Z ENDP ; std::_Val_type<RoundInfo *>
_TEXT	ENDS
PUBLIC	??_GRoundInfo@@QAEPAXI@Z			; RoundInfo::`scalar deleting destructor'
; Function compile flags: /Ogsp
;	COMDAT ??_GRoundInfo@@QAEPAXI@Z
_TEXT	SEGMENT
___flags$ = 8						; size = 4
??_GRoundInfo@@QAEPAXI@Z PROC				; RoundInfo::`scalar deleting destructor', COMDAT
; _this$ = ecx
  00000	55		 push	 ebp
  00001	8b ec		 mov	 ebp, esp
  00003	56		 push	 esi
  00004	8b f1		 mov	 esi, ecx
  00006	e8 00 00 00 00	 call	 ??1RoundInfo@@QAE@XZ
  0000b	f6 45 08 01	 test	 BYTE PTR ___flags$[ebp], 1
  0000f	74 07		 je	 SHORT $LN1@scalar@2
  00011	56		 push	 esi
  00012	e8 00 00 00 00	 call	 ??3@YAXPAX@Z		; operator delete
  00017	59		 pop	 ecx
$LN1@scalar@2:
  00018	8b c6		 mov	 eax, esi
  0001a	5e		 pop	 esi
  0001b	5d		 pop	 ebp
  0001c	c2 04 00	 ret	 4
??_GRoundInfo@@QAEPAXI@Z ENDP				; RoundInfo::`scalar deleting destructor'
_TEXT	ENDS
PUBLIC	??$forward@URoundInfo@@@std@@YA$$QAURoundInfo@@AAU1@@Z ; std::forward<RoundInfo>
; Function compile flags: /Ogsp
; File c:\program files (x86)\microsoft visual studio 10.0\vc\include\utility
;	COMDAT ??$forward@URoundInfo@@@std@@YA$$QAURoundInfo@@AAU1@@Z
_TEXT	SEGMENT
__Arg$ = 8						; size = 4
??$forward@URoundInfo@@@std@@YA$$QAURoundInfo@@AAU1@@Z PROC ; std::forward<RoundInfo>, COMDAT

; 78   : 	{	// forward _Arg, given explicitly specified type parameter

  00000	55		 push	 ebp
  00001	8b ec		 mov	 ebp, esp

; 79   : 	return ((_Ty&&)_Arg);

  00003	8b 45 08	 mov	 eax, DWORD PTR __Arg$[ebp]

; 80   : 	}

  00006	5d		 pop	 ebp
  00007	c3		 ret	 0
??$forward@URoundInfo@@@std@@YA$$QAURoundInfo@@AAU1@@Z ENDP ; std::forward<RoundInfo>
_TEXT	ENDS
PUBLIC	?_DECSTR@@YAXPADH@Z				; _DECSTR
; Function compile flags: /Ogsp
; File d:\lost saga for developer\youtube\tutorial\source\src\lsclient\stringprotect.h
;	COMDAT ?_DECSTR@@YAXPADH@Z
_TEXT	SEGMENT
_s$ = 8							; size = 4
_l$ = 12						; size = 4
?_DECSTR@@YAXPADH@Z PROC				; _DECSTR, COMDAT

; 40   : __forceinline void _DECSTR(char* s, int l){int i=0,l4=(l-1)/4,*p=(int*)s;s[l-1]=0;for(;i<l4;++i)*(p++)^=0xEAEBECED;for(i=l4*4;i<l-1;++i)s[i]^=0xED-i%4;}

  00000	55		 push	 ebp
  00001	8b ec		 mov	 ebp, esp
  00003	8b 4d 0c	 mov	 ecx, DWORD PTR _l$[ebp]
  00006	56		 push	 esi
  00007	8b 75 08	 mov	 esi, DWORD PTR _s$[ebp]
  0000a	57		 push	 edi
  0000b	8d 79 ff	 lea	 edi, DWORD PTR [ecx-1]
  0000e	8b c7		 mov	 eax, edi
  00010	99		 cdq
  00011	83 e2 03	 and	 edx, 3
  00014	03 c2		 add	 eax, edx
  00016	c1 f8 02	 sar	 eax, 2
  00019	8b d6		 mov	 edx, esi
  0001b	c6 44 0e ff 00	 mov	 BYTE PTR [esi+ecx-1], 0
  00020	85 c0		 test	 eax, eax
  00022	7e 0e		 jle	 SHORT $LN4@DECSTR
  00024	8b c8		 mov	 ecx, eax
$LL6@DECSTR:
  00026	81 32 ed ec eb
	ea		 xor	 DWORD PTR [edx], -353637139 ; eaebecedH
  0002c	83 c2 04	 add	 edx, 4
  0002f	49		 dec	 ecx
  00030	75 f4		 jne	 SHORT $LL6@DECSTR
$LN4@DECSTR:
  00032	c1 e0 02	 shl	 eax, 2
  00035	eb 17		 jmp	 SHORT $LN14@DECSTR
$LL3@DECSTR:
  00037	8b c8		 mov	 ecx, eax
  00039	81 e1 03 00 00
	80		 and	 ecx, -2147483645	; 80000003H
  0003f	79 05		 jns	 SHORT $LN13@DECSTR
  00041	49		 dec	 ecx
  00042	83 c9 fc	 or	 ecx, -4			; fffffffcH
  00045	41		 inc	 ecx
$LN13@DECSTR:
  00046	b2 ed		 mov	 dl, -19			; ffffffedH
  00048	2a d1		 sub	 dl, cl
  0004a	30 14 30	 xor	 BYTE PTR [eax+esi], dl
  0004d	40		 inc	 eax
$LN14@DECSTR:
  0004e	3b c7		 cmp	 eax, edi
  00050	7c e5		 jl	 SHORT $LL3@DECSTR
  00052	5f		 pop	 edi
  00053	5e		 pop	 esi
  00054	5d		 pop	 ebp
  00055	c3		 ret	 0
?_DECSTR@@YAXPADH@Z ENDP				; _DECSTR
_TEXT	ENDS
PUBLIC	?GetHP@ioPlayEntity@@QAEAAUStatusValue@@XZ	; ioPlayEntity::GetHP
; Function compile flags: /Ogsp
; File d:\lost saga for developer\youtube\tutorial\source\src\lsclient\ioplayentity.h
;	COMDAT ?GetHP@ioPlayEntity@@QAEAAUStatusValue@@XZ
_TEXT	SEGMENT
?GetHP@ioPlayEntity@@QAEAAUStatusValue@@XZ PROC		; ioPlayEntity::GetHP, COMDAT
; _this$ = ecx

; 96   : 	inline StatusValue& GetHP() { return m_HP; }

  00000	8d 81 c0 00 00
	00		 lea	 eax, DWORD PTR [ecx+192]
  00006	c3		 ret	 0
?GetHP@ioPlayEntity@@QAEAAUStatusValue@@XZ ENDP		; ioPlayEntity::GetHP
_TEXT	ENDS
PUBLIC	?GetMouse@ioApplication@@QAEPAVioLSMouse@@XZ	; ioApplication::GetMouse
; Function compile flags: /Ogsp
; File d:\lost saga for developer\youtube\tutorial\source\src\lsclient\ioapplication.h
;	COMDAT ?GetMouse@ioApplication@@QAEPAVioLSMouse@@XZ
_TEXT	SEGMENT
?GetMouse@ioApplication@@QAEPAVioLSMouse@@XZ PROC	; ioApplication::GetMouse, COMDAT
; _this$ = ecx

; 796  : 	inline ioLSMouse* GetMouse(){ return &m_Mouse;	}

  00000	8d 81 90 00 00
	00		 lea	 eax, DWORD PTR [ecx+144]
  00006	c3		 ret	 0
?GetMouse@ioApplication@@QAEPAVioLSMouse@@XZ ENDP	; ioApplication::GetMouse
_TEXT	ENDS
PUBLIC	??_7?$CEncrypt@M@@6B@				; CEncrypt<float>::`vftable'
PUBLIC	??1?$CEncrypt@M@@UAE@XZ				; CEncrypt<float>::~CEncrypt<float>
PUBLIC	??_R4?$CEncrypt@M@@6B@				; CEncrypt<float>::`RTTI Complete Object Locator'
PUBLIC	??_R0?AV?$CEncrypt@M@@@8			; CEncrypt<float> `RTTI Type Descriptor'
PUBLIC	??_R3?$CEncrypt@M@@8				; CEncrypt<float>::`RTTI Class Hierarchy Descriptor'
PUBLIC	??_R2?$CEncrypt@M@@8				; CEncrypt<float>::`RTTI Base Class Array'
PUBLIC	??_R1A@?0A@EA@?$CEncrypt@M@@8			; CEncrypt<float>::`RTTI Base Class Descriptor at (0,-1,0,64)'
EXTRN	??1ccddaabb@@UAE@XZ:PROC			; ccddaabb::~ccddaabb
EXTRN	??_E?$CEncrypt@M@@UAEPAXI@Z:PROC		; CEncrypt<float>::`vector deleting destructor'
;	COMDAT ??_R1A@?0A@EA@?$CEncrypt@M@@8
; File d:\lost saga for developer\youtube\tutorial\source\src\lsclient\encryptvalue.h
rdata$r	SEGMENT
??_R1A@?0A@EA@?$CEncrypt@M@@8 DD FLAT:??_R0?AV?$CEncrypt@M@@@8 ; CEncrypt<float>::`RTTI Base Class Descriptor at (0,-1,0,64)'
	DD	00H
	DD	00H
	DD	0ffffffffH
	DD	00H
	DD	040H
	DD	FLAT:??_R3?$CEncrypt@M@@8
rdata$r	ENDS
;	COMDAT ??_R2?$CEncrypt@M@@8
rdata$r	SEGMENT
??_R2?$CEncrypt@M@@8 DD FLAT:??_R1A@?0A@EA@?$CEncrypt@M@@8 ; CEncrypt<float>::`RTTI Base Class Array'
rdata$r	ENDS
;	COMDAT ??_R3?$CEncrypt@M@@8
rdata$r	SEGMENT
??_R3?$CEncrypt@M@@8 DD 00H				; CEncrypt<float>::`RTTI Class Hierarchy Descriptor'
	DD	00H
	DD	01H
	DD	FLAT:??_R2?$CEncrypt@M@@8
rdata$r	ENDS
;	COMDAT ??_R0?AV?$CEncrypt@M@@@8
_DATA	SEGMENT
??_R0?AV?$CEncrypt@M@@@8 DD FLAT:??_7type_info@@6B@	; CEncrypt<float> `RTTI Type Descriptor'
	DD	00H
	DB	'.?AV?$CEncrypt@M@@', 00H
_DATA	ENDS
;	COMDAT ??_R4?$CEncrypt@M@@6B@
rdata$r	SEGMENT
??_R4?$CEncrypt@M@@6B@ DD 00H				; CEncrypt<float>::`RTTI Complete Object Locator'
	DD	00H
	DD	00H
	DD	FLAT:??_R0?AV?$CEncrypt@M@@@8
	DD	FLAT:??_R3?$CEncrypt@M@@8
rdata$r	ENDS
;	COMDAT ??_7?$CEncrypt@M@@6B@
CONST	SEGMENT
??_7?$CEncrypt@M@@6B@ DD FLAT:??_R4?$CEncrypt@M@@6B@	; CEncrypt<float>::`vftable'
	DD	FLAT:??_E?$CEncrypt@M@@UAEPAXI@Z
; Function compile flags: /Ogsp
CONST	ENDS
;	COMDAT ??1?$CEncrypt@M@@UAE@XZ
_TEXT	SEGMENT
??1?$CEncrypt@M@@UAE@XZ PROC				; CEncrypt<float>::~CEncrypt<float>, COMDAT
; _this$ = ecx

; 127  : 	{

  00000	c7 01 00 00 00
	00		 mov	 DWORD PTR [ecx], OFFSET ??_7?$CEncrypt@M@@6B@

; 128  : 	}

  00006	83 c1 0c	 add	 ecx, 12			; 0000000cH
  00009	e9 00 00 00 00	 jmp	 ??1ccddaabb@@UAE@XZ	; ccddaabb::~ccddaabb
??1?$CEncrypt@M@@UAE@XZ ENDP				; CEncrypt<float>::~CEncrypt<float>
_TEXT	ENDS
PUBLIC	??_7?$CEncrypt@K@@6B@				; CEncrypt<unsigned long>::`vftable'
PUBLIC	??1?$CEncrypt@K@@UAE@XZ				; CEncrypt<unsigned long>::~CEncrypt<unsigned long>
PUBLIC	??_R4?$CEncrypt@K@@6B@				; CEncrypt<unsigned long>::`RTTI Complete Object Locator'
PUBLIC	??_R0?AV?$CEncrypt@K@@@8			; CEncrypt<unsigned long> `RTTI Type Descriptor'
PUBLIC	??_R3?$CEncrypt@K@@8				; CEncrypt<unsigned long>::`RTTI Class Hierarchy Descriptor'
PUBLIC	??_R2?$CEncrypt@K@@8				; CEncrypt<unsigned long>::`RTTI Base Class Array'
PUBLIC	??_R1A@?0A@EA@?$CEncrypt@K@@8			; CEncrypt<unsigned long>::`RTTI Base Class Descriptor at (0,-1,0,64)'
EXTRN	??_E?$CEncrypt@K@@UAEPAXI@Z:PROC		; CEncrypt<unsigned long>::`vector deleting destructor'
;	COMDAT ??_R1A@?0A@EA@?$CEncrypt@K@@8
rdata$r	SEGMENT
??_R1A@?0A@EA@?$CEncrypt@K@@8 DD FLAT:??_R0?AV?$CEncrypt@K@@@8 ; CEncrypt<unsigned long>::`RTTI Base Class Descriptor at (0,-1,0,64)'
	DD	00H
	DD	00H
	DD	0ffffffffH
	DD	00H
	DD	040H
	DD	FLAT:??_R3?$CEncrypt@K@@8
rdata$r	ENDS
;	COMDAT ??_R2?$CEncrypt@K@@8
rdata$r	SEGMENT
??_R2?$CEncrypt@K@@8 DD FLAT:??_R1A@?0A@EA@?$CEncrypt@K@@8 ; CEncrypt<unsigned long>::`RTTI Base Class Array'
rdata$r	ENDS
;	COMDAT ??_R3?$CEncrypt@K@@8
rdata$r	SEGMENT
??_R3?$CEncrypt@K@@8 DD 00H				; CEncrypt<unsigned long>::`RTTI Class Hierarchy Descriptor'
	DD	00H
	DD	01H
	DD	FLAT:??_R2?$CEncrypt@K@@8
rdata$r	ENDS
;	COMDAT ??_R0?AV?$CEncrypt@K@@@8
_DATA	SEGMENT
??_R0?AV?$CEncrypt@K@@@8 DD FLAT:??_7type_info@@6B@	; CEncrypt<unsigned long> `RTTI Type Descriptor'
	DD	00H
	DB	'.?AV?$CEncrypt@K@@', 00H
_DATA	ENDS
;	COMDAT ??_R4?$CEncrypt@K@@6B@
rdata$r	SEGMENT
??_R4?$CEncrypt@K@@6B@ DD 00H				; CEncrypt<unsigned long>::`RTTI Complete Object Locator'
	DD	00H
	DD	00H
	DD	FLAT:??_R0?AV?$CEncrypt@K@@@8
	DD	FLAT:??_R3?$CEncrypt@K@@8
rdata$r	ENDS
;	COMDAT ??_7?$CEncrypt@K@@6B@
CONST	SEGMENT
??_7?$CEncrypt@K@@6B@ DD FLAT:??_R4?$CEncrypt@K@@6B@	; CEncrypt<unsigned long>::`vftable'
	DD	FLAT:??_E?$CEncrypt@K@@UAEPAXI@Z
; Function compile flags: /Ogsp
CONST	ENDS
;	COMDAT ??1?$CEncrypt@K@@UAE@XZ
_TEXT	SEGMENT
??1?$CEncrypt@K@@UAE@XZ PROC				; CEncrypt<unsigned long>::~CEncrypt<unsigned long>, COMDAT
; _this$ = ecx

; 127  : 	{

  00000	c7 01 00 00 00
	00		 mov	 DWORD PTR [ecx], OFFSET ??_7?$CEncrypt@K@@6B@

; 128  : 	}

  00006	83 c1 0c	 add	 ecx, 12			; 0000000cH
  00009	e9 00 00 00 00	 jmp	 ??1ccddaabb@@UAE@XZ	; ccddaabb::~ccddaabb
??1?$CEncrypt@K@@UAE@XZ ENDP				; CEncrypt<unsigned long>::~CEncrypt<unsigned long>
; Function compile flags: /Ogsp
_TEXT	ENDS
;	COMDAT ??_G?$CEncrypt@M@@UAEPAXI@Z
_TEXT	SEGMENT
___flags$ = 8						; size = 4
??_G?$CEncrypt@M@@UAEPAXI@Z PROC			; CEncrypt<float>::`scalar deleting destructor', COMDAT
; _this$ = ecx
  00000	55		 push	 ebp
  00001	8b ec		 mov	 ebp, esp
  00003	56		 push	 esi
  00004	8b f1		 mov	 esi, ecx
  00006	8d 4e 0c	 lea	 ecx, DWORD PTR [esi+12]
  00009	c7 06 00 00 00
	00		 mov	 DWORD PTR [esi], OFFSET ??_7?$CEncrypt@M@@6B@
  0000f	e8 00 00 00 00	 call	 ??1ccddaabb@@UAE@XZ	; ccddaabb::~ccddaabb
  00014	f6 45 08 01	 test	 BYTE PTR ___flags$[ebp], 1
  00018	74 07		 je	 SHORT $LN1@scalar@3
  0001a	56		 push	 esi
  0001b	e8 00 00 00 00	 call	 ??3@YAXPAX@Z		; operator delete
  00020	59		 pop	 ecx
$LN1@scalar@3:
  00021	8b c6		 mov	 eax, esi
  00023	5e		 pop	 esi
  00024	5d		 pop	 ebp
  00025	c2 04 00	 ret	 4
??_G?$CEncrypt@M@@UAEPAXI@Z ENDP			; CEncrypt<float>::`scalar deleting destructor'
; Function compile flags: /Ogsp
_TEXT	ENDS
;	COMDAT ??_G?$CEncrypt@K@@UAEPAXI@Z
_TEXT	SEGMENT
___flags$ = 8						; size = 4
??_G?$CEncrypt@K@@UAEPAXI@Z PROC			; CEncrypt<unsigned long>::`scalar deleting destructor', COMDAT
; _this$ = ecx
  00000	55		 push	 ebp
  00001	8b ec		 mov	 ebp, esp
  00003	56		 push	 esi
  00004	8b f1		 mov	 esi, ecx
  00006	8d 4e 0c	 lea	 ecx, DWORD PTR [esi+12]
  00009	c7 06 00 00 00
	00		 mov	 DWORD PTR [esi], OFFSET ??_7?$CEncrypt@K@@6B@
  0000f	e8 00 00 00 00	 call	 ??1ccddaabb@@UAE@XZ	; ccddaabb::~ccddaabb
  00014	f6 45 08 01	 test	 BYTE PTR ___flags$[ebp], 1
  00018	74 07		 je	 SHORT $LN1@scalar@4
  0001a	56		 push	 esi
  0001b	e8 00 00 00 00	 call	 ??3@YAXPAX@Z		; operator delete
  00020	59		 pop	 ecx
$LN1@scalar@4:
  00021	8b c6		 mov	 eax, esi
  00023	5e		 pop	 esi
  00024	5d		 pop	 ebp
  00025	c2 04 00	 ret	 4
??_G?$CEncrypt@K@@UAEPAXI@Z ENDP			; CEncrypt<unsigned long>::`scalar deleting destructor'
_TEXT	ENDS
PUBLIC	?EncryptValueToPool@?$CEncrypt@M@@AAEXPBD@Z	; CEncrypt<float>::EncryptValueToPool
EXTRN	?EncryptByte@ccddaabb@@QAEXPBDPADH@Z:PROC	; ccddaabb::EncryptByte
; Function compile flags: /Ogsp
;	COMDAT ?EncryptValueToPool@?$CEncrypt@M@@AAEXPBD@Z
_TEXT	SEGMENT
_value$ = 8						; size = 4
?EncryptValueToPool@?$CEncrypt@M@@AAEXPBD@Z PROC	; CEncrypt<float>::EncryptValueToPool, COMDAT
; _this$ = ecx

; 67   : 	{

  00000	55		 push	 ebp
  00001	8b ec		 mov	 ebp, esp

; 68   : 		m_RC5.EncryptByte( value, m_MemPool, max(m_ValueSize, DEFAULT_ENCRYPT) );

  00003	0f b7 41 06	 movzx	 eax, WORD PTR [ecx+6]
  00007	83 f8 04	 cmp	 eax, 4
  0000a	77 03		 ja	 SHORT $LN4@EncryptVal
  0000c	6a 04		 push	 4
  0000e	58		 pop	 eax
$LN4@EncryptVal:
  0000f	50		 push	 eax
  00010	8d 41 1c	 lea	 eax, DWORD PTR [ecx+28]
  00013	50		 push	 eax
  00014	ff 75 08	 push	 DWORD PTR _value$[ebp]
  00017	83 c1 0c	 add	 ecx, 12			; 0000000cH
  0001a	e8 00 00 00 00	 call	 ?EncryptByte@ccddaabb@@QAEXPBDPADH@Z ; ccddaabb::EncryptByte

; 69   : 		
; 70   : 	}

  0001f	5d		 pop	 ebp
  00020	c2 04 00	 ret	 4
?EncryptValueToPool@?$CEncrypt@M@@AAEXPBD@Z ENDP	; CEncrypt<float>::EncryptValueToPool
_TEXT	ENDS
PUBLIC	?Init@?$CEncrypt@M@@AAEXXZ			; CEncrypt<float>::Init
EXTRN	?Setup@ccddaabb@@QAEXPBDHH@Z:PROC		; ccddaabb::Setup
EXTRN	__imp__rand:PROC
EXTRN	__imp__timeGetTime@0:PROC
EXTRN	__imp__GetCurrentProcessId@0:PROC
; Function compile flags: /Ogsp
;	COMDAT ?Init@?$CEncrypt@M@@AAEXXZ
_TEXT	SEGMENT
_pid$ = -8						; size = 4
_tick$ = -4						; size = 4
?Init@?$CEncrypt@M@@AAEXXZ PROC				; CEncrypt<float>::Init, COMDAT
; _this$ = ecx

; 73   : 	{

  00000	55		 push	 ebp
  00001	8b ec		 mov	 ebp, esp
  00003	51		 push	 ecx
  00004	51		 push	 ecx
  00005	53		 push	 ebx
  00006	56		 push	 esi
  00007	57		 push	 edi
  00008	8b f1		 mov	 esi, ecx

; 74   : 		DWORD pid = GetCurrentProcessId();

  0000a	ff 15 00 00 00
	00		 call	 DWORD PTR __imp__GetCurrentProcessId@0
  00010	89 45 f8	 mov	 DWORD PTR _pid$[ebp], eax

; 75   : 		DWORD tick = timeGetTime();

  00013	ff 15 00 00 00
	00		 call	 DWORD PTR __imp__timeGetTime@0

; 76   : 		m_ValueSize    = sizeof(type);
; 77   : 		m_MemPoolPos   = (unsigned short)( rand()+pid+tick )%(MAX_MEM_POOL-m_ValueSize);

  00019	8b 3d 00 00 00
	00		 mov	 edi, DWORD PTR __imp__rand
  0001f	89 45 fc	 mov	 DWORD PTR _tick$[ebp], eax
  00022	6a 04		 push	 4
  00024	58		 pop	 eax
  00025	66 89 46 06	 mov	 WORD PTR [esi+6], ax
  00029	ff d7		 call	 edi
  0002b	03 45 f8	 add	 eax, DWORD PTR _pid$[ebp]
  0002e	0f b7 4e 06	 movzx	 ecx, WORD PTR [esi+6]
  00032	03 45 fc	 add	 eax, DWORD PTR _tick$[ebp]
  00035	6a 0c		 push	 12			; 0000000cH
  00037	0f b7 c0	 movzx	 eax, ax
  0003a	5b		 pop	 ebx
  0003b	99		 cdq
  0003c	2b d9		 sub	 ebx, ecx
  0003e	f7 fb		 idiv	 ebx
  00040	66 89 56 04	 mov	 WORD PTR [esi+4], dx

; 78   : 		m_EncryptSeed  = (char)( rand()+pid+tick )%256;

  00044	ff d7		 call	 edi
  00046	02 45 f8	 add	 al, BYTE PTR _pid$[ebp]
  00049	02 45 fc	 add	 al, BYTE PTR _tick$[ebp]
  0004c	0f be c0	 movsx	 eax, al
  0004f	25 ff 00 00 80	 and	 eax, -2147483393	; 800000ffH
  00054	79 07		 jns	 SHORT $LN8@Init
  00056	48		 dec	 eax
  00057	0d 00 ff ff ff	 or	 eax, -256		; ffffff00H
  0005c	40		 inc	 eax
$LN8@Init:
  0005d	88 46 08	 mov	 BYTE PTR [esi+8], al

; 79   : 
; 80   : 		for (int i = 0; i < MAX_MEM_POOL ; i++)

  00060	33 db		 xor	 ebx, ebx
$LL3@Init:

; 81   : 			m_MemPool[i] = (char)( rand()+pid+tick )%256; // 

  00062	ff d7		 call	 edi
  00064	02 45 f8	 add	 al, BYTE PTR _pid$[ebp]
  00067	02 45 fc	 add	 al, BYTE PTR _tick$[ebp]
  0006a	0f be c0	 movsx	 eax, al
  0006d	25 ff 00 00 80	 and	 eax, -2147483393	; 800000ffH
  00072	79 07		 jns	 SHORT $LN9@Init
  00074	48		 dec	 eax
  00075	0d 00 ff ff ff	 or	 eax, -256		; ffffff00H
  0007a	40		 inc	 eax
$LN9@Init:
  0007b	88 44 1e 1c	 mov	 BYTE PTR [esi+ebx+28], al
  0007f	43		 inc	 ebx
  00080	83 fb 0c	 cmp	 ebx, 12			; 0000000cH
  00083	7c dd		 jl	 SHORT $LL3@Init

; 82   : 
; 83   : 		//UJ 130913, : szKey  
; 84   : 		//char szKey[ccddaabb::KEY_SIZE];//="";
; 85   : 		//for (int i = 0; i < ccddaabb::KEY_SIZE  ; i++)
; 86   : 		//	szKey[i] = (char)( rand()+pid+tick )%256; // 
; 87   : 		m_RC5.Setup( NULL, pid, tick );

  00085	ff 75 fc	 push	 DWORD PTR _tick$[ebp]
  00088	8d 4e 0c	 lea	 ecx, DWORD PTR [esi+12]
  0008b	ff 75 f8	 push	 DWORD PTR _pid$[ebp]
  0008e	6a 00		 push	 0
  00090	e8 00 00 00 00	 call	 ?Setup@ccddaabb@@QAEXPBDHH@Z ; ccddaabb::Setup
  00095	5f		 pop	 edi
  00096	5e		 pop	 esi
  00097	5b		 pop	 ebx

; 88   : 
; 89   : #ifdef _NOTUSE
; 90   : 		m_value        = 0;
; 91   : 		EncryptValueToPool((char*)&m_value);
; 92   : 		Debug();
; 93   : #endif
; 94   : 	}

  00098	c9		 leave
  00099	c3		 ret	 0
?Init@?$CEncrypt@M@@AAEXXZ ENDP				; CEncrypt<float>::Init
_TEXT	ENDS
PUBLIC	?DecryptValueToPool@?$CEncrypt@M@@QAEXPAM@Z	; CEncrypt<float>::DecryptValueToPool
EXTRN	?DecryptByte@ccddaabb@@QBEXPBDPADH@Z:PROC	; ccddaabb::DecryptByte
EXTRN	__fltused:DWORD
; Function compile flags: /Ogsp
;	COMDAT ?DecryptValueToPool@?$CEncrypt@M@@QAEXPAM@Z
_TEXT	SEGMENT
_value$ = 8						; size = 4
?DecryptValueToPool@?$CEncrypt@M@@QAEXPAM@Z PROC	; CEncrypt<float>::DecryptValueToPool, COMDAT
; _this$ = ecx

; 1648 : 	{

  00000	55		 push	 ebp
  00001	8b ec		 mov	 ebp, esp
  00003	56		 push	 esi

; 1649 : 		m_RC5.DecryptByte( m_MemPool, m_TempMem, 4 );

  00004	8d 71 28	 lea	 esi, DWORD PTR [ecx+40]
  00007	6a 04		 push	 4
  00009	8d 41 1c	 lea	 eax, DWORD PTR [ecx+28]
  0000c	56		 push	 esi
  0000d	50		 push	 eax
  0000e	83 c1 0c	 add	 ecx, 12			; 0000000cH
  00011	e8 00 00 00 00	 call	 ?DecryptByte@ccddaabb@@QBEXPBDPADH@Z ; ccddaabb::DecryptByte

; 1650 : 		*value = *((float*)m_TempMem);

  00016	d9 06		 fld	 DWORD PTR [esi]
  00018	8b 45 08	 mov	 eax, DWORD PTR _value$[ebp]
  0001b	d9 18		 fstp	 DWORD PTR [eax]
  0001d	5e		 pop	 esi

; 1651 : 	}

  0001e	5d		 pop	 ebp
  0001f	c2 04 00	 ret	 4
?DecryptValueToPool@?$CEncrypt@M@@QAEXPAM@Z ENDP	; CEncrypt<float>::DecryptValueToPool
_TEXT	ENDS
PUBLIC	?EncryptValueToPool@?$CEncrypt@K@@AAEXPBD@Z	; CEncrypt<unsigned long>::EncryptValueToPool
; Function compile flags: /Ogsp
;	COMDAT ?EncryptValueToPool@?$CEncrypt@K@@AAEXPBD@Z
_TEXT	SEGMENT
_value$ = 8						; size = 4
?EncryptValueToPool@?$CEncrypt@K@@AAEXPBD@Z PROC	; CEncrypt<unsigned long>::EncryptValueToPool, COMDAT
; _this$ = ecx

; 67   : 	{

  00000	55		 push	 ebp
  00001	8b ec		 mov	 ebp, esp

; 68   : 		m_RC5.EncryptByte( value, m_MemPool, max(m_ValueSize, DEFAULT_ENCRYPT) );

  00003	0f b7 41 06	 movzx	 eax, WORD PTR [ecx+6]
  00007	83 f8 04	 cmp	 eax, 4
  0000a	77 03		 ja	 SHORT $LN4@EncryptVal@2
  0000c	6a 04		 push	 4
  0000e	58		 pop	 eax
$LN4@EncryptVal@2:
  0000f	50		 push	 eax
  00010	8d 41 1c	 lea	 eax, DWORD PTR [ecx+28]
  00013	50		 push	 eax
  00014	ff 75 08	 push	 DWORD PTR _value$[ebp]
  00017	83 c1 0c	 add	 ecx, 12			; 0000000cH
  0001a	e8 00 00 00 00	 call	 ?EncryptByte@ccddaabb@@QAEXPBDPADH@Z ; ccddaabb::EncryptByte

; 69   : 		
; 70   : 	}

  0001f	5d		 pop	 ebp
  00020	c2 04 00	 ret	 4
?EncryptValueToPool@?$CEncrypt@K@@AAEXPBD@Z ENDP	; CEncrypt<unsigned long>::EncryptValueToPool
_TEXT	ENDS
PUBLIC	?Init@?$CEncrypt@K@@AAEXXZ			; CEncrypt<unsigned long>::Init
; Function compile flags: /Ogsp
;	COMDAT ?Init@?$CEncrypt@K@@AAEXXZ
_TEXT	SEGMENT
_pid$ = -8						; size = 4
_tick$ = -4						; size = 4
?Init@?$CEncrypt@K@@AAEXXZ PROC				; CEncrypt<unsigned long>::Init, COMDAT
; _this$ = ecx

; 73   : 	{

  00000	55		 push	 ebp
  00001	8b ec		 mov	 ebp, esp
  00003	51		 push	 ecx
  00004	51		 push	 ecx
  00005	53		 push	 ebx
  00006	56		 push	 esi
  00007	57		 push	 edi
  00008	8b f1		 mov	 esi, ecx

; 74   : 		DWORD pid = GetCurrentProcessId();

  0000a	ff 15 00 00 00
	00		 call	 DWORD PTR __imp__GetCurrentProcessId@0
  00010	89 45 f8	 mov	 DWORD PTR _pid$[ebp], eax

; 75   : 		DWORD tick = timeGetTime();

  00013	ff 15 00 00 00
	00		 call	 DWORD PTR __imp__timeGetTime@0

; 76   : 		m_ValueSize    = sizeof(type);
; 77   : 		m_MemPoolPos   = (unsigned short)( rand()+pid+tick )%(MAX_MEM_POOL-m_ValueSize);

  00019	8b 3d 00 00 00
	00		 mov	 edi, DWORD PTR __imp__rand
  0001f	89 45 fc	 mov	 DWORD PTR _tick$[ebp], eax
  00022	6a 04		 push	 4
  00024	58		 pop	 eax
  00025	66 89 46 06	 mov	 WORD PTR [esi+6], ax
  00029	ff d7		 call	 edi
  0002b	03 45 f8	 add	 eax, DWORD PTR _pid$[ebp]
  0002e	0f b7 4e 06	 movzx	 ecx, WORD PTR [esi+6]
  00032	03 45 fc	 add	 eax, DWORD PTR _tick$[ebp]
  00035	6a 0c		 push	 12			; 0000000cH
  00037	0f b7 c0	 movzx	 eax, ax
  0003a	5b		 pop	 ebx
  0003b	99		 cdq
  0003c	2b d9		 sub	 ebx, ecx
  0003e	f7 fb		 idiv	 ebx
  00040	66 89 56 04	 mov	 WORD PTR [esi+4], dx

; 78   : 		m_EncryptSeed  = (char)( rand()+pid+tick )%256;

  00044	ff d7		 call	 edi
  00046	02 45 f8	 add	 al, BYTE PTR _pid$[ebp]
  00049	02 45 fc	 add	 al, BYTE PTR _tick$[ebp]
  0004c	0f be c0	 movsx	 eax, al
  0004f	25 ff 00 00 80	 and	 eax, -2147483393	; 800000ffH
  00054	79 07		 jns	 SHORT $LN8@Init@2
  00056	48		 dec	 eax
  00057	0d 00 ff ff ff	 or	 eax, -256		; ffffff00H
  0005c	40		 inc	 eax
$LN8@Init@2:
  0005d	88 46 08	 mov	 BYTE PTR [esi+8], al

; 79   : 
; 80   : 		for (int i = 0; i < MAX_MEM_POOL ; i++)

  00060	33 db		 xor	 ebx, ebx
$LL3@Init@2:

; 81   : 			m_MemPool[i] = (char)( rand()+pid+tick )%256; // 

  00062	ff d7		 call	 edi
  00064	02 45 f8	 add	 al, BYTE PTR _pid$[ebp]
  00067	02 45 fc	 add	 al, BYTE PTR _tick$[ebp]
  0006a	0f be c0	 movsx	 eax, al
  0006d	25 ff 00 00 80	 and	 eax, -2147483393	; 800000ffH
  00072	79 07		 jns	 SHORT $LN9@Init@2
  00074	48		 dec	 eax
  00075	0d 00 ff ff ff	 or	 eax, -256		; ffffff00H
  0007a	40		 inc	 eax
$LN9@Init@2:
  0007b	88 44 1e 1c	 mov	 BYTE PTR [esi+ebx+28], al
  0007f	43		 inc	 ebx
  00080	83 fb 0c	 cmp	 ebx, 12			; 0000000cH
  00083	7c dd		 jl	 SHORT $LL3@Init@2

; 82   : 
; 83   : 		//UJ 130913, : szKey  
; 84   : 		//char szKey[ccddaabb::KEY_SIZE];//="";
; 85   : 		//for (int i = 0; i < ccddaabb::KEY_SIZE  ; i++)
; 86   : 		//	szKey[i] = (char)( rand()+pid+tick )%256; // 
; 87   : 		m_RC5.Setup( NULL, pid, tick );

  00085	ff 75 fc	 push	 DWORD PTR _tick$[ebp]
  00088	8d 4e 0c	 lea	 ecx, DWORD PTR [esi+12]
  0008b	ff 75 f8	 push	 DWORD PTR _pid$[ebp]
  0008e	6a 00		 push	 0
  00090	e8 00 00 00 00	 call	 ?Setup@ccddaabb@@QAEXPBDHH@Z ; ccddaabb::Setup
  00095	5f		 pop	 edi
  00096	5e		 pop	 esi
  00097	5b		 pop	 ebx

; 88   : 
; 89   : #ifdef _NOTUSE
; 90   : 		m_value        = 0;
; 91   : 		EncryptValueToPool((char*)&m_value);
; 92   : 		Debug();
; 93   : #endif
; 94   : 	}

  00098	c9		 leave
  00099	c3		 ret	 0
?Init@?$CEncrypt@K@@AAEXXZ ENDP				; CEncrypt<unsigned long>::Init
_TEXT	ENDS
PUBLIC	?DecryptValueToPool@?$CEncrypt@K@@QAEXPAK@Z	; CEncrypt<unsigned long>::DecryptValueToPool
; Function compile flags: /Ogsp
;	COMDAT ?DecryptValueToPool@?$CEncrypt@K@@QAEXPAK@Z
_TEXT	SEGMENT
_value$ = 8						; size = 4
?DecryptValueToPool@?$CEncrypt@K@@QAEXPAK@Z PROC	; CEncrypt<unsigned long>::DecryptValueToPool, COMDAT
; _this$ = ecx

; 1256 : 	{

  00000	55		 push	 ebp
  00001	8b ec		 mov	 ebp, esp
  00003	56		 push	 esi

; 1257 : 		m_RC5.DecryptByte( m_MemPool, m_TempMem, 4 );

  00004	8d 71 28	 lea	 esi, DWORD PTR [ecx+40]
  00007	6a 04		 push	 4
  00009	8d 41 1c	 lea	 eax, DWORD PTR [ecx+28]
  0000c	56		 push	 esi
  0000d	50		 push	 eax
  0000e	83 c1 0c	 add	 ecx, 12			; 0000000cH
  00011	e8 00 00 00 00	 call	 ?DecryptByte@ccddaabb@@QBEXPBDPADH@Z ; ccddaabb::DecryptByte

; 1258 : 		*value = *((DWORD*)m_TempMem);

  00016	8b 06		 mov	 eax, DWORD PTR [esi]
  00018	8b 4d 08	 mov	 ecx, DWORD PTR _value$[ebp]
  0001b	89 01		 mov	 DWORD PTR [ecx], eax
  0001d	5e		 pop	 esi

; 1259 : 	}

  0001e	5d		 pop	 ebp
  0001f	c2 04 00	 ret	 4
?DecryptValueToPool@?$CEncrypt@K@@QAEXPAK@Z ENDP	; CEncrypt<unsigned long>::DecryptValueToPool
_TEXT	ENDS
PUBLIC	?DecryptValueToPool@?$CEncrypt@_N@@QAEXPA_N@Z	; CEncrypt<bool>::DecryptValueToPool
; Function compile flags: /Ogsp
;	COMDAT ?DecryptValueToPool@?$CEncrypt@_N@@QAEXPA_N@Z
_TEXT	SEGMENT
_value$ = 8						; size = 4
?DecryptValueToPool@?$CEncrypt@_N@@QAEXPA_N@Z PROC	; CEncrypt<bool>::DecryptValueToPool, COMDAT
; _this$ = ecx

; 219  : 	{

  00000	55		 push	 ebp
  00001	8b ec		 mov	 ebp, esp
  00003	56		 push	 esi

; 220  : 		m_RC5.DecryptByte( m_MemPool, m_TempMem, 4 );

  00004	8d 71 28	 lea	 esi, DWORD PTR [ecx+40]
  00007	6a 04		 push	 4
  00009	8d 41 1c	 lea	 eax, DWORD PTR [ecx+28]
  0000c	56		 push	 esi
  0000d	50		 push	 eax
  0000e	83 c1 0c	 add	 ecx, 12			; 0000000cH
  00011	e8 00 00 00 00	 call	 ?DecryptByte@ccddaabb@@QBEXPBDPADH@Z ; ccddaabb::DecryptByte

; 221  : 		*value = *((bool*)m_TempMem);

  00016	8a 06		 mov	 al, BYTE PTR [esi]
  00018	8b 4d 08	 mov	 ecx, DWORD PTR _value$[ebp]
  0001b	88 01		 mov	 BYTE PTR [ecx], al
  0001d	5e		 pop	 esi

; 222  : 	}

  0001e	5d		 pop	 ebp
  0001f	c2 04 00	 ret	 4
?DecryptValueToPool@?$CEncrypt@_N@@QAEXPA_N@Z ENDP	; CEncrypt<bool>::DecryptValueToPool
_TEXT	ENDS
EXTRN	__imp_??0exception@std@@QAE@ABV01@@Z:PROC
; Function compile flags: /Ogsp
;	COMDAT ??0bad_alloc@std@@QAE@ABV01@@Z
_TEXT	SEGMENT
___that$ = 8						; size = 4
??0bad_alloc@std@@QAE@ABV01@@Z PROC			; std::bad_alloc::bad_alloc, COMDAT
; _this$ = ecx
  00000	55		 push	 ebp
  00001	8b ec		 mov	 ebp, esp
  00003	56		 push	 esi
  00004	ff 75 08	 push	 DWORD PTR ___that$[ebp]
  00007	8b f1		 mov	 esi, ecx
  00009	ff 15 00 00 00
	00		 call	 DWORD PTR __imp_??0exception@std@@QAE@ABV01@@Z
  0000f	c7 06 00 00 00
	00		 mov	 DWORD PTR [esi], OFFSET ??_7bad_alloc@std@@6B@
  00015	8b c6		 mov	 eax, esi
  00017	5e		 pop	 esi
  00018	5d		 pop	 ebp
  00019	c2 04 00	 ret	 4
??0bad_alloc@std@@QAE@ABV01@@Z ENDP			; std::bad_alloc::bad_alloc
_TEXT	ENDS
PUBLIC	__$ArrayPad$
PUBLIC	?UpdateWndSize@ioObserverRedWnd@@IAEXXZ		; ioObserverRedWnd::UpdateWndSize
EXTRN	__imp_?SetDragRect@ioWnd@@QAEXABUtagRECT@@@Z:PROC
EXTRN	___security_cookie:DWORD
; Function compile flags: /Ogsp
; File d:\lost saga for developer\youtube\tutorial\source\src\lsclient\gui\ioobserverwnd.cpp
;	COMDAT ?UpdateWndSize@ioObserverRedWnd@@IAEXXZ
_TEXT	SEGMENT
_rc$ = -20						; size = 16
__$ArrayPad$ = -4					; size = 4
?UpdateWndSize@ioObserverRedWnd@@IAEXXZ PROC		; ioObserverRedWnd::UpdateWndSize, COMDAT
; _this$ = ecx

; 111  : {

  00000	55		 push	 ebp
  00001	8b ec		 mov	 ebp, esp
  00003	83 ec 14	 sub	 esp, 20			; 00000014H
  00006	a1 00 00 00 00	 mov	 eax, DWORD PTR ___security_cookie
  0000b	33 c5		 xor	 eax, ebp
  0000d	89 45 fc	 mov	 DWORD PTR __$ArrayPad$[ebp], eax
  00010	53		 push	 ebx
  00011	56		 push	 esi
  00012	57		 push	 edi
  00013	8b f9		 mov	 edi, ecx

; 112  : 	int iCnt = m_RoundInfoList.size();

  00015	8b b7 04 02 00
	00		 mov	 esi, DWORD PTR [edi+516]
  0001b	2b b7 00 02 00
	00		 sub	 esi, DWORD PTR [edi+512]

; 113  : 
; 114  : 	int iSizeX = DEFAULT_WIDTH;
; 115  : 	int iSizeY = DEFAULT_HEIGHT * iCnt;
; 116  : 
; 117  : 	SetSize( iSizeX, iSizeY );

  00021	8b 07		 mov	 eax, DWORD PTR [edi]
  00023	c1 fe 07	 sar	 esi, 7
  00026	6b f6 1f	 imul	 esi, 31			; 0000001fH
  00029	56		 push	 esi
  0002a	bb a0 00 00 00	 mov	 ebx, 160		; 000000a0H
  0002f	53		 push	 ebx
  00030	ff 50 2c	 call	 DWORD PTR [eax+44]

; 118  : 
; 119  : 	RECT  rc = { 0, 0, iSizeX, iSizeY };

  00033	83 65 ec 00	 and	 DWORD PTR _rc$[ebp], 0
  00037	83 65 f0 00	 and	 DWORD PTR _rc$[ebp+4], 0

; 120  : 	SetDragRect( rc );

  0003b	8d 45 ec	 lea	 eax, DWORD PTR _rc$[ebp]
  0003e	50		 push	 eax
  0003f	8b cf		 mov	 ecx, edi
  00041	89 5d f4	 mov	 DWORD PTR _rc$[ebp+8], ebx
  00044	89 75 f8	 mov	 DWORD PTR _rc$[ebp+12], esi
  00047	ff 15 00 00 00
	00		 call	 DWORD PTR __imp_?SetDragRect@ioWnd@@QAEXABUtagRECT@@@Z

; 121  : 
; 122  : 	int iGap = GetYPos() - ((Setting::Height() - GetHeight() ) + 1);

  0004d	8b cf		 mov	 ecx, edi
  0004f	ff 15 00 00 00
	00		 call	 DWORD PTR __imp_?GetYPos@ioWnd@@QBEHXZ
  00055	8b f0		 mov	 esi, eax
  00057	e8 00 00 00 00	 call	 ?Height@Setting@@SAHXZ	; Setting::Height
  0005c	8b cf		 mov	 ecx, edi
  0005e	2b f0		 sub	 esi, eax
  00060	ff 15 00 00 00
	00		 call	 DWORD PTR __imp_?GetHeight@ioWnd@@QBEHXZ
  00066	8d 5c 30 ff	 lea	 ebx, DWORD PTR [eax+esi-1]

; 123  : 	if( iGap > 0 )

  0006a	85 db		 test	 ebx, ebx
  0006c	7e 2a		 jle	 SHORT $LN1@UpdateWndS

; 124  : 	{
; 125  : 		int iNewYPos = GetYPos() - iGap;

  0006e	8b cf		 mov	 ecx, edi
  00070	ff 15 00 00 00
	00		 call	 DWORD PTR __imp_?GetYPos@ioWnd@@QBEHXZ
  00076	8b f0		 mov	 esi, eax

; 126  : 
; 127  : 		m_iDefaultX = GetXPos();

  00078	8b cf		 mov	 ecx, edi
  0007a	2b f3		 sub	 esi, ebx
  0007c	ff 15 00 00 00
	00		 call	 DWORD PTR __imp_?GetXPos@ioWnd@@QBEHXZ

; 128  : 		m_iDefaultY = iNewYPos;
; 129  : 
; 130  : 		SetWndPos( m_iDefaultX, m_iDefaultY );

  00082	56		 push	 esi
  00083	50		 push	 eax
  00084	8b cf		 mov	 ecx, edi
  00086	89 87 10 02 00
	00		 mov	 DWORD PTR [edi+528], eax
  0008c	89 b7 14 02 00
	00		 mov	 DWORD PTR [edi+532], esi
  00092	ff 15 00 00 00
	00		 call	 DWORD PTR __imp_?SetWndPos@ioWnd@@QAEXHH@Z
$LN1@UpdateWndS:

; 131  : 	}
; 132  : }

  00098	8b 4d fc	 mov	 ecx, DWORD PTR __$ArrayPad$[ebp]
  0009b	5f		 pop	 edi
  0009c	5e		 pop	 esi
  0009d	33 cd		 xor	 ecx, ebp
  0009f	5b		 pop	 ebx
  000a0	e8 00 00 00 00	 call	 @__security_check_cookie@4
  000a5	c9		 leave
  000a6	c3		 ret	 0
?UpdateWndSize@ioObserverRedWnd@@IAEXXZ ENDP		; ioObserverRedWnd::UpdateWndSize
_TEXT	ENDS
PUBLIC	?iwm_show@ioObserverRedWnd@@UAEXXZ		; ioObserverRedWnd::iwm_show
; Function compile flags: /Ogsp
;	COMDAT ?iwm_show@ioObserverRedWnd@@UAEXXZ
_TEXT	SEGMENT
?iwm_show@ioObserverRedWnd@@UAEXXZ PROC			; ioObserverRedWnd::iwm_show, COMDAT
; _this$ = ecx

; 289  : {

  00000	56		 push	 esi
  00001	8b f1		 mov	 esi, ecx

; 290  : 	UpdateWndSize();

  00003	e8 00 00 00 00	 call	 ?UpdateWndSize@ioObserverRedWnd@@IAEXXZ ; ioObserverRedWnd::UpdateWndSize

; 291  : 
; 292  : 	m_bCheckMark = false;

  00008	c6 86 f8 01 00
	00 00		 mov	 BYTE PTR [esi+504], 0

; 293  : 	m_dwCheckTime = FRAMEGETTIME();

  0000f	ff 15 00 00 00
	00		 call	 DWORD PTR __imp_?GetSingleton@ioFrameTimer@@SAAAV1@XZ
  00015	8b c8		 mov	 ecx, eax
  00017	ff 15 00 00 00
	00		 call	 DWORD PTR __imp_?GetLoopSec@ioFrameTimer@@QBEKXZ
  0001d	89 86 fc 01 00
	00		 mov	 DWORD PTR [esi+508], eax
  00023	5e		 pop	 esi

; 294  : }

  00024	c3		 ret	 0
?iwm_show@ioObserverRedWnd@@UAEXXZ ENDP			; ioObserverRedWnd::iwm_show
_TEXT	ENDS
PUBLIC	?ProcessCameraClick@ioObserverRedWnd@@IAEXXZ	; ioObserverRedWnd::ProcessCameraClick
EXTRN	?CheckObserverCameraTarget@ioPlayStage@@QAEXABVioHashString@@@Z:PROC ; ioPlayStage::CheckObserverCameraTarget
EXTRN	__imp_?IsLBtnUp@ioMouse@@QBE_NXZ:PROC
EXTRN	__imp__PtInRect@12:PROC
EXTRN	__imp_?GetMousePos@ioMouse@@QBEABUtagPOINT@@XZ:PROC
EXTRN	__imp__SetRectEmpty@4:PROC
EXTRN	?IsVisibleMouse@ioApplication@@QAE_NXZ:PROC	; ioApplication::IsVisibleMouse
EXTRN	?GetSingleton@ioApplication@@SAAAV1@XZ:PROC	; ioApplication::GetSingleton
EXTRN	?IsCurrentOver@ioSP2GUIManager@@QBE_NK@Z:PROC	; ioSP2GUIManager::IsCurrentOver
EXTRN	__imp_?GetID@ioWnd@@QBEKXZ:PROC
EXTRN	__EH_epilog3_GS:PROC
EXTRN	__EH_prolog3_GS:PROC
;	COMDAT xdata$x
; File c:\program files (x86)\microsoft visual studio 10.0\vc\include\vector
xdata$x	SEGMENT
__unwindtable$?ProcessCameraClick@ioObserverRedWnd@@IAEXXZ DD 0ffffffffH
	DD	FLAT:__unwindfunclet$?ProcessCameraClick@ioObserverRedWnd@@IAEXXZ$0
__ehfuncinfo$?ProcessCameraClick@ioObserverRedWnd@@IAEXXZ DD 019930522H
	DD	01H
	DD	FLAT:__unwindtable$?ProcessCameraClick@ioObserverRedWnd@@IAEXXZ
	DD	2 DUP(00H)
	DD	2 DUP(00H)
	DD	00H
	DD	01H
; Function compile flags: /Ogsp
; File d:\lost saga for developer\youtube\tutorial\source\src\lsclient\gui\ioobserverwnd.cpp
xdata$x	ENDS
;	COMDAT ?ProcessCameraClick@ioObserverRedWnd@@IAEXXZ
_TEXT	SEGMENT
_kInfo$532273 = -180					; size = 128
_iYPos$ = -52						; size = 4
_iXPos$ = -48						; size = 4
_pMouse$ = -44						; size = 4
tv290 = -40						; size = 4
_i$532269 = -36						; size = 4
_rcNameRect$532274 = -32				; size = 16
__$EHRec$ = -12						; size = 12
?ProcessCameraClick@ioObserverRedWnd@@IAEXXZ PROC	; ioObserverRedWnd::ProcessCameraClick, COMDAT
; _this$ = ecx

; 521  : {

  00000	68 a8 00 00 00	 push	 168			; 000000a8H
  00005	b8 00 00 00 00	 mov	 eax, __ehhandler$?ProcessCameraClick@ioObserverRedWnd@@IAEXXZ
  0000a	e8 00 00 00 00	 call	 __EH_prolog3_GS
  0000f	8b f9		 mov	 edi, ecx

; 522  : 	if( !g_GUIMgr.IsCurrentOver( GetID() ) )

  00011	ff 15 00 00 00
	00		 call	 DWORD PTR __imp_?GetID@ioWnd@@QBEKXZ
  00017	50		 push	 eax
  00018	e8 00 00 00 00	 call	 ?GetSingleton@ioSP2GUIManager@@SAAAV1@XZ ; ioSP2GUIManager::GetSingleton
  0001d	8b c8		 mov	 ecx, eax
  0001f	e8 00 00 00 00	 call	 ?IsCurrentOver@ioSP2GUIManager@@QBE_NK@Z ; ioSP2GUIManager::IsCurrentOver
  00024	84 c0		 test	 al, al
  00026	0f 84 09 01 00
	00		 je	 $LN3@ProcessCam

; 523  : 		return;
; 524  : 
; 525  : 	if( !g_App.IsVisibleMouse() )

  0002c	e8 00 00 00 00	 call	 ?GetSingleton@ioApplication@@SAAAV1@XZ ; ioApplication::GetSingleton
  00031	8b c8		 mov	 ecx, eax
  00033	e8 00 00 00 00	 call	 ?IsVisibleMouse@ioApplication@@QAE_NXZ ; ioApplication::IsVisibleMouse
  00038	84 c0		 test	 al, al
  0003a	0f 84 f5 00 00
	00		 je	 $LN3@ProcessCam

; 526  : 		return;
; 527  : 
; 528  : 	int iXPos = GetDerivedPosX();

  00040	8b cf		 mov	 ecx, edi
  00042	ff 15 00 00 00
	00		 call	 DWORD PTR __imp_?GetDerivedPosX@ioWnd@@QBEHXZ

; 529  : 	int iYPos = GetDerivedPosY();

  00048	8b cf		 mov	 ecx, edi
  0004a	89 45 d0	 mov	 DWORD PTR _iXPos$[ebp], eax
  0004d	ff 15 00 00 00
	00		 call	 DWORD PTR __imp_?GetDerivedPosY@ioWnd@@QBEHXZ
  00053	89 45 cc	 mov	 DWORD PTR _iYPos$[ebp], eax

; 530  : 
; 531  : 	ioLSMouse *pMouse = g_App.GetMouse();

  00056	e8 00 00 00 00	 call	 ?GetSingleton@ioApplication@@SAAAV1@XZ ; ioApplication::GetSingleton

; 532  : 
; 533  : 	int iInfoCount = m_RoundInfoList.size();

  0005b	8b b7 04 02 00
	00		 mov	 esi, DWORD PTR [edi+516]
  00061	2b b7 00 02 00
	00		 sub	 esi, DWORD PTR [edi+512]

; 534  : 	for( int i=0; i < iInfoCount; i++ )

  00067	33 db		 xor	 ebx, ebx
  00069	05 90 00 00 00	 add	 eax, 144		; 00000090H
  0006e	c1 fe 07	 sar	 esi, 7
  00071	89 45 d4	 mov	 DWORD PTR _pMouse$[ebp], eax
  00074	89 5d dc	 mov	 DWORD PTR _i$532269[ebp], ebx
  00077	3b f3		 cmp	 esi, ebx
  00079	0f 8e b6 00 00
	00		 jle	 $LN3@ProcessCam

; 526  : 		return;
; 527  : 
; 528  : 	int iXPos = GetDerivedPosX();

  0007f	89 5d d8	 mov	 DWORD PTR tv290[ebp], ebx
$LN5@ProcessCam:

; 534  : 	for( int i=0; i < iInfoCount; i++ )

  00082	8b 87 00 02 00
	00		 mov	 eax, DWORD PTR [edi+512]
  00088	03 45 d8	 add	 eax, DWORD PTR tv290[ebp]

; 535  : 	{
; 536  : 		RoundInfo kInfo = m_RoundInfoList[i];

  0008b	8d 8d 4c ff ff
	ff		 lea	 ecx, DWORD PTR _kInfo$532273[ebp]
  00091	50		 push	 eax
  00092	e8 00 00 00 00	 call	 ??0RoundInfo@@QAE@ABU0@@Z
  00097	83 65 fc 00	 and	 DWORD PTR __$EHRec$[ebp+8], 0

; 537  : 
; 538  : 		RECT rcNameRect;
; 539  : 		SetRectEmpty( &rcNameRect );

  0009b	8d 45 e0	 lea	 eax, DWORD PTR _rcNameRect$532274[ebp]
  0009e	50		 push	 eax
  0009f	ff 15 00 00 00
	00		 call	 DWORD PTR __imp__SetRectEmpty@4

; 540  : 
; 541  : 		rcNameRect.left += iXPos;

  000a5	8b 45 d0	 mov	 eax, DWORD PTR _iXPos$[ebp]
  000a8	01 45 e0	 add	 DWORD PTR _rcNameRect$532274[ebp], eax

; 542  : 		rcNameRect.top  += iYPos + i * DEFAULT_HEIGHT;

  000ab	8b 45 cc	 mov	 eax, DWORD PTR _iYPos$[ebp]

; 543  : 		rcNameRect.right  = rcNameRect.left + DEFAULT_WIDTH;
; 544  : 		rcNameRect.bottom = rcNameRect.top  + DEFAULT_HEIGHT;
; 545  : 
; 546  : 		if( ::PtInRect( &rcNameRect, pMouse->GetMousePos() ) )

  000ae	8b 4d d4	 mov	 ecx, DWORD PTR _pMouse$[ebp]
  000b1	03 c3		 add	 eax, ebx
  000b3	01 45 e4	 add	 DWORD PTR _rcNameRect$532274[ebp+4], eax
  000b6	8b 45 e0	 mov	 eax, DWORD PTR _rcNameRect$532274[ebp]
  000b9	05 a0 00 00 00	 add	 eax, 160		; 000000a0H
  000be	89 45 e8	 mov	 DWORD PTR _rcNameRect$532274[ebp+8], eax
  000c1	8b 45 e4	 mov	 eax, DWORD PTR _rcNameRect$532274[ebp+4]
  000c4	83 c0 1f	 add	 eax, 31			; 0000001fH
  000c7	89 45 ec	 mov	 DWORD PTR _rcNameRect$532274[ebp+12], eax
  000ca	ff 15 00 00 00
	00		 call	 DWORD PTR __imp_?GetMousePos@ioMouse@@QBEABUtagPOINT@@XZ
  000d0	ff 70 04	 push	 DWORD PTR [eax+4]
  000d3	ff 30		 push	 DWORD PTR [eax]
  000d5	8d 45 e0	 lea	 eax, DWORD PTR _rcNameRect$532274[ebp]
  000d8	50		 push	 eax
  000d9	ff 15 00 00 00
	00		 call	 DWORD PTR __imp__PtInRect@12
  000df	85 c0		 test	 eax, eax
  000e1	75 20		 jne	 SHORT $LN18@ProcessCam

; 553  : 		}
; 554  : 	}

  000e3	83 4d fc ff	 or	 DWORD PTR __$EHRec$[ebp+8], -1
  000e7	8d 8d 4c ff ff
	ff		 lea	 ecx, DWORD PTR _kInfo$532273[ebp]
  000ed	e8 00 00 00 00	 call	 ??1RoundInfo@@QAE@XZ
  000f2	ff 45 dc	 inc	 DWORD PTR _i$532269[ebp]
  000f5	83 6d d8 80	 sub	 DWORD PTR tv290[ebp], -128 ; ffffff80H
  000f9	83 c3 1f	 add	 ebx, 31			; 0000001fH
  000fc	39 75 dc	 cmp	 DWORD PTR _i$532269[ebp], esi
  000ff	7c 81		 jl	 SHORT $LN5@ProcessCam

; 543  : 		rcNameRect.right  = rcNameRect.left + DEFAULT_WIDTH;
; 544  : 		rcNameRect.bottom = rcNameRect.top  + DEFAULT_HEIGHT;
; 545  : 
; 546  : 		if( ::PtInRect( &rcNameRect, pMouse->GetMousePos() ) )

  00101	eb 32		 jmp	 SHORT $LN3@ProcessCam
$LN18@ProcessCam:

; 547  : 		{
; 548  : 			if( pMouse->IsLBtnUp() && m_pPlayStage )

  00103	8b 4d d4	 mov	 ecx, DWORD PTR _pMouse$[ebp]
  00106	ff 15 00 00 00
	00		 call	 DWORD PTR __imp_?IsLBtnUp@ioMouse@@QBE_NXZ
  0010c	84 c0		 test	 al, al
  0010e	74 16		 je	 SHORT $LN1@ProcessCam
  00110	8b 8f 90 01 00
	00		 mov	 ecx, DWORD PTR [edi+400]
  00116	85 c9		 test	 ecx, ecx
  00118	74 0c		 je	 SHORT $LN1@ProcessCam

; 549  : 			{
; 550  : 				m_pPlayStage->CheckObserverCameraTarget( kInfo.m_szName );

  0011a	8d 85 4c ff ff
	ff		 lea	 eax, DWORD PTR _kInfo$532273[ebp]
  00120	50		 push	 eax
  00121	e8 00 00 00 00	 call	 ?CheckObserverCameraTarget@ioPlayStage@@QAEXABVioHashString@@@Z ; ioPlayStage::CheckObserverCameraTarget
$LN1@ProcessCam:

; 551  : 			}
; 552  : 			break;

  00126	83 4d fc ff	 or	 DWORD PTR __$EHRec$[ebp+8], -1
  0012a	8d 8d 4c ff ff
	ff		 lea	 ecx, DWORD PTR _kInfo$532273[ebp]
  00130	e8 00 00 00 00	 call	 ??1RoundInfo@@QAE@XZ
$LN3@ProcessCam:

; 555  : }

  00135	e8 00 00 00 00	 call	 __EH_epilog3_GS
  0013a	c3		 ret	 0
_TEXT	ENDS
;	COMDAT text$x
text$x	SEGMENT
__unwindfunclet$?ProcessCameraClick@ioObserverRedWnd@@IAEXXZ$0:
  00000	8d 8d 4c ff ff
	ff		 lea	 ecx, DWORD PTR _kInfo$532273[ebp]
  00006	e9 00 00 00 00	 jmp	 ??1RoundInfo@@QAE@XZ
__ehhandler$?ProcessCameraClick@ioObserverRedWnd@@IAEXXZ:
  0000b	8b 54 24 08	 mov	 edx, DWORD PTR [esp+8]
  0000f	8d 42 0c	 lea	 eax, DWORD PTR [edx+12]
  00012	8b 8a 48 ff ff
	ff		 mov	 ecx, DWORD PTR [edx-184]
  00018	33 c8		 xor	 ecx, eax
  0001a	e8 00 00 00 00	 call	 @__security_check_cookie@4
  0001f	8b 4a fc	 mov	 ecx, DWORD PTR [edx-4]
  00022	33 c8		 xor	 ecx, eax
  00024	e8 00 00 00 00	 call	 @__security_check_cookie@4
  00029	b8 00 00 00 00	 mov	 eax, OFFSET __ehfuncinfo$?ProcessCameraClick@ioObserverRedWnd@@IAEXXZ
  0002e	e9 00 00 00 00	 jmp	 ___CxxFrameHandler3
text$x	ENDS
?ProcessCameraClick@ioObserverRedWnd@@IAEXXZ ENDP	; ioObserverRedWnd::ProcessCameraClick
PUBLIC	??1StatusValue@@QAE@XZ				; StatusValue::~StatusValue
;	COMDAT xdata$x
xdata$x	SEGMENT
__unwindtable$??1StatusValue@@QAE@XZ DD 0ffffffffH
	DD	FLAT:__unwindfunclet$??1StatusValue@@QAE@XZ$0
	DD	00H
	DD	FLAT:__unwindfunclet$??1StatusValue@@QAE@XZ$1
	DD	01H
	DD	FLAT:__unwindfunclet$??1StatusValue@@QAE@XZ$2
	DD	02H
	DD	FLAT:__unwindfunclet$??1StatusValue@@QAE@XZ$3
__ehfuncinfo$??1StatusValue@@QAE@XZ DD 019930522H
	DD	04H
	DD	FLAT:__unwindtable$??1StatusValue@@QAE@XZ
	DD	2 DUP(00H)
	DD	2 DUP(00H)
	DD	00H
	DD	01H
; Function compile flags: /Ogsp
xdata$x	ENDS
;	COMDAT ??1StatusValue@@QAE@XZ
_TEXT	SEGMENT
_this$ = -16						; size = 4
__$EHRec$ = -12						; size = 12
??1StatusValue@@QAE@XZ PROC				; StatusValue::~StatusValue, COMDAT
; _this$ = ecx
  00000	6a 04		 push	 4
  00002	b8 00 00 00 00	 mov	 eax, __ehhandler$??1StatusValue@@QAE@XZ
  00007	e8 00 00 00 00	 call	 __EH_prolog3
  0000c	8b f1		 mov	 esi, ecx
  0000e	89 75 f0	 mov	 DWORD PTR _this$[ebp], esi
  00011	bf 00 00 00 00	 mov	 edi, OFFSET ??_7?$CEncrypt@K@@6B@
  00016	8d 8e cc 00 00
	00		 lea	 ecx, DWORD PTR [esi+204]
  0001c	c7 45 fc 03 00
	00 00		 mov	 DWORD PTR __$EHRec$[ebp+8], 3
  00023	89 be c0 00 00
	00		 mov	 DWORD PTR [esi+192], edi
  00029	e8 00 00 00 00	 call	 ??1ccddaabb@@UAE@XZ	; ccddaabb::~ccddaabb
  0002e	8d 8e 9c 00 00
	00		 lea	 ecx, DWORD PTR [esi+156]
  00034	c6 45 fc 02	 mov	 BYTE PTR __$EHRec$[ebp+8], 2
  00038	89 be 90 00 00
	00		 mov	 DWORD PTR [esi+144], edi
  0003e	e8 00 00 00 00	 call	 ??1ccddaabb@@UAE@XZ	; ccddaabb::~ccddaabb
  00043	bf 00 00 00 00	 mov	 edi, OFFSET ??_7?$CEncrypt@M@@6B@
  00048	8d 4e 6c	 lea	 ecx, DWORD PTR [esi+108]
  0004b	c6 45 fc 01	 mov	 BYTE PTR __$EHRec$[ebp+8], 1
  0004f	89 7e 60	 mov	 DWORD PTR [esi+96], edi
  00052	e8 00 00 00 00	 call	 ??1ccddaabb@@UAE@XZ	; ccddaabb::~ccddaabb
  00057	8d 4e 3c	 lea	 ecx, DWORD PTR [esi+60]
  0005a	c6 45 fc 00	 mov	 BYTE PTR __$EHRec$[ebp+8], 0
  0005e	89 7e 30	 mov	 DWORD PTR [esi+48], edi
  00061	e8 00 00 00 00	 call	 ??1ccddaabb@@UAE@XZ	; ccddaabb::~ccddaabb
  00066	83 4d fc ff	 or	 DWORD PTR __$EHRec$[ebp+8], -1
  0006a	8d 4e 0c	 lea	 ecx, DWORD PTR [esi+12]
  0006d	89 3e		 mov	 DWORD PTR [esi], edi
  0006f	e8 00 00 00 00	 call	 ??1ccddaabb@@UAE@XZ	; ccddaabb::~ccddaabb
  00074	e8 00 00 00 00	 call	 __EH_epilog3
  00079	c3		 ret	 0
_TEXT	ENDS
;	COMDAT text$x
text$x	SEGMENT
__unwindfunclet$??1StatusValue@@QAE@XZ$0:
  00000	8b 4d f0	 mov	 ecx, DWORD PTR _this$[ebp]
  00003	e9 00 00 00 00	 jmp	 ??1?$CEncrypt@M@@UAE@XZ	; CEncrypt<float>::~CEncrypt<float>
__unwindfunclet$??1StatusValue@@QAE@XZ$1:
  00008	8b 4d f0	 mov	 ecx, DWORD PTR _this$[ebp]
  0000b	83 c1 30	 add	 ecx, 48			; 00000030H
  0000e	e9 00 00 00 00	 jmp	 ??1?$CEncrypt@M@@UAE@XZ	; CEncrypt<float>::~CEncrypt<float>
__unwindfunclet$??1StatusValue@@QAE@XZ$2:
  00013	8b 4d f0	 mov	 ecx, DWORD PTR _this$[ebp]
  00016	83 c1 60	 add	 ecx, 96			; 00000060H
  00019	e9 00 00 00 00	 jmp	 ??1?$CEncrypt@M@@UAE@XZ	; CEncrypt<float>::~CEncrypt<float>
__unwindfunclet$??1StatusValue@@QAE@XZ$3:
  0001e	8b 4d f0	 mov	 ecx, DWORD PTR _this$[ebp]
  00021	81 c1 90 00 00
	00		 add	 ecx, 144		; 00000090H
  00027	e9 00 00 00 00	 jmp	 ??1?$CEncrypt@K@@UAE@XZ	; CEncrypt<unsigned long>::~CEncrypt<unsigned long>
__ehhandler$??1StatusValue@@QAE@XZ:
  0002c	8b 54 24 08	 mov	 edx, DWORD PTR [esp+8]
  00030	8d 42 0c	 lea	 eax, DWORD PTR [edx+12]
  00033	8b 4a ec	 mov	 ecx, DWORD PTR [edx-20]
  00036	33 c8		 xor	 ecx, eax
  00038	e8 00 00 00 00	 call	 @__security_check_cookie@4
  0003d	b8 00 00 00 00	 mov	 eax, OFFSET __ehfuncinfo$??1StatusValue@@QAE@XZ
  00042	e9 00 00 00 00	 jmp	 ___CxxFrameHandler3
text$x	ENDS
??1StatusValue@@QAE@XZ ENDP				; StatusValue::~StatusValue
PUBLIC	__real@4082c00000000000
PUBLIC	__real@4089000000000000
PUBLIC	?SetPositionToDefault@ioObserverRedWnd@@MAEXHH_N0@Z ; ioObserverRedWnd::SetPositionToDefault
EXTRN	__imp_?SetPositionToDefault@ioMovingWnd@@UAEXHH_N0@Z:PROC
;	COMDAT __real@4082c00000000000
; File d:\lost saga for developer\youtube\tutorial\source\src\lsclient\gui\timescorewnd.h
CONST	SEGMENT
__real@4082c00000000000 DQ 04082c00000000000r	; 600
CONST	ENDS
;	COMDAT __real@4089000000000000
CONST	SEGMENT
__real@4089000000000000 DQ 04089000000000000r	; 800
; Function compile flags: /Ogsp
; File d:\lost saga for developer\youtube\tutorial\source\src\lsclient\gui\ioobserverwnd.cpp
CONST	ENDS
;	COMDAT ?SetPositionToDefault@ioObserverRedWnd@@MAEXHH_N0@Z
_TEXT	SEGMENT
_iTempDefYPos$ = -16					; size = 4
_iTempDefXPos$ = -12					; size = 4
_fDefCenterYRate$ = -8					; size = 4
_fDefCenterXRate$ = -4					; size = 4
_iParentWidth$ = 8					; size = 4
_iParentHeight$ = 12					; size = 4
_bChildMove$ = 16					; size = 1
_bCreate$ = 20						; size = 1
?SetPositionToDefault@ioObserverRedWnd@@MAEXHH_N0@Z PROC ; ioObserverRedWnd::SetPositionToDefault, COMDAT
; _this$ = ecx

; 637  : {

  00000	55		 push	 ebp
  00001	8b ec		 mov	 ebp, esp
  00003	83 ec 10	 sub	 esp, 16			; 00000010H
  00006	53		 push	 ebx
  00007	56		 push	 esi

; 638  : 	TimeScoreWnd *pTimeScoreWnd = dynamic_cast<TimeScoreWnd *>( g_GUIMgr.FindWnd( TIME_SCORE_WND ) );

  00008	6a 00		 push	 0
  0000a	68 00 00 00 00	 push	 OFFSET ??_R0?AVTimeScoreWnd@@@8
  0000f	68 00 00 00 00	 push	 OFFSET ??_R0?AVioWnd@@@8
  00014	6a 00		 push	 0
  00016	68 b9 13 00 00	 push	 5049			; 000013b9H
  0001b	8b f1		 mov	 esi, ecx
  0001d	e8 00 00 00 00	 call	 ?GetSingleton@ioSP2GUIManager@@SAAAV1@XZ ; ioSP2GUIManager::GetSingleton
  00022	8b c8		 mov	 ecx, eax
  00024	ff 15 00 00 00
	00		 call	 DWORD PTR __imp_?FindWnd@ioGUIManager@@QAEPAVioWnd@@K@Z
  0002a	50		 push	 eax
  0002b	e8 00 00 00 00	 call	 ___RTDynamicCast
  00030	8b d8		 mov	 ebx, eax
  00032	83 c4 14	 add	 esp, 20			; 00000014H

; 639  : 	if( !pTimeScoreWnd ) return;

  00035	85 db		 test	 ebx, ebx
  00037	0f 84 42 01 00
	00		 je	 $LN1@SetPositio

; 640  : 
; 641  : 	UpdateMainDefaultPos();

  0003d	57		 push	 edi
  0003e	8b ce		 mov	 ecx, esi
  00040	e8 00 00 00 00	 call	 ?UpdateMainDefaultPos@ioObserverRedWnd@@IAEXXZ ; ioObserverRedWnd::UpdateMainDefaultPos

; 642  : 
; 643  : 	int iTempDefXPos = m_iDefXPos;

  00045	8b 86 c0 00 00
	00		 mov	 eax, DWORD PTR [esi+192]
  0004b	89 45 f4	 mov	 DWORD PTR _iTempDefXPos$[ebp], eax

; 644  : 	int iTempDefYPos = m_iDefYPos;

  0004e	8b 86 c4 00 00
	00		 mov	 eax, DWORD PTR [esi+196]

; 645  : 
; 646  : 	float fDefCenterX = (float)( m_iDefXPos + GetWidth() / 2 );

  00054	8b ce		 mov	 ecx, esi
  00056	89 45 f0	 mov	 DWORD PTR _iTempDefYPos$[ebp], eax
  00059	ff 15 00 00 00
	00		 call	 DWORD PTR __imp_?GetWidth@ioWnd@@QBEHXZ

; 647  : 	float fDefCenterXRate = fDefCenterX / 800.0f;
; 648  : 
; 649  : 	float fDefCenterY = (float)(pTimeScoreWnd->GetMainDefaultYPos() + pTimeScoreWnd->GetHeight() / 2) ;

  0005f	8b bb c4 00 00
	00		 mov	 edi, DWORD PTR [ebx+196]
  00065	99		 cdq
  00066	2b c2		 sub	 eax, edx
  00068	d1 f8		 sar	 eax, 1
  0006a	03 86 c0 00 00
	00		 add	 eax, DWORD PTR [esi+192]
  00070	0f 57 c0	 xorps	 xmm0, xmm0
  00073	8b cb		 mov	 ecx, ebx
  00075	f3 0f 2a c0	 cvtsi2ss xmm0, eax
  00079	0f 5a c0	 cvtps2pd xmm0, xmm0
  0007c	f2 0f 5e 05 00
	00 00 00	 divsd	 xmm0, QWORD PTR __real@4089000000000000
  00084	66 0f 5a c0	 cvtpd2ps xmm0, xmm0
  00088	f3 0f 11 45 fc	 movss	 DWORD PTR _fDefCenterXRate$[ebp], xmm0
  0008d	ff 15 00 00 00
	00		 call	 DWORD PTR __imp_?GetHeight@ioWnd@@QBEHXZ
  00093	99		 cdq
  00094	2b c2		 sub	 eax, edx
  00096	d1 f8		 sar	 eax, 1

; 650  : 	float fDefCenterYRate = fDefCenterY / 600.0f;

  00098	0f 57 c0	 xorps	 xmm0, xmm0
  0009b	03 c7		 add	 eax, edi
  0009d	f3 0f 2a c0	 cvtsi2ss xmm0, eax
  000a1	0f 5a c0	 cvtps2pd xmm0, xmm0
  000a4	f2 0f 5e 05 00
	00 00 00	 divsd	 xmm0, QWORD PTR __real@4082c00000000000
  000ac	66 0f 5a c0	 cvtpd2ps xmm0, xmm0
  000b0	f3 0f 11 45 f8	 movss	 DWORD PTR _fDefCenterYRate$[ebp], xmm0

; 651  : 
; 652  : 	m_iDefXPos = (int)(Setting::Width() * fDefCenterXRate) - GetWidth() / 2;

  000b5	e8 00 00 00 00	 call	 ?Width@Setting@@SAHXZ	; Setting::Width
  000ba	f3 0f 10 4d fc	 movss	 xmm1, DWORD PTR _fDefCenterXRate$[ebp]
  000bf	0f 57 c0	 xorps	 xmm0, xmm0
  000c2	f3 0f 2a c0	 cvtsi2ss xmm0, eax
  000c6	0f 5a c0	 cvtps2pd xmm0, xmm0
  000c9	0f 5a c9	 cvtps2pd xmm1, xmm1
  000cc	f2 0f 59 c1	 mulsd	 xmm0, xmm1
  000d0	8b ce		 mov	 ecx, esi
  000d2	f2 0f 2c f8	 cvttsd2si edi, xmm0
  000d6	ff 15 00 00 00
	00		 call	 DWORD PTR __imp_?GetWidth@ioWnd@@QBEHXZ
  000dc	99		 cdq
  000dd	2b c2		 sub	 eax, edx
  000df	d1 f8		 sar	 eax, 1
  000e1	2b f8		 sub	 edi, eax
  000e3	89 be c0 00 00
	00		 mov	 DWORD PTR [esi+192], edi

; 653  : 	m_iDefYPos = (int)(Setting::Height() * fDefCenterYRate) - (pTimeScoreWnd->GetHeight() / 2) + pTimeScoreWnd->GetHeight();

  000e9	e8 00 00 00 00	 call	 ?Height@Setting@@SAHXZ	; Setting::Height
  000ee	f3 0f 10 4d f8	 movss	 xmm1, DWORD PTR _fDefCenterYRate$[ebp]
  000f3	0f 57 c0	 xorps	 xmm0, xmm0
  000f6	f3 0f 2a c0	 cvtsi2ss xmm0, eax
  000fa	0f 5a c0	 cvtps2pd xmm0, xmm0
  000fd	0f 5a c9	 cvtps2pd xmm1, xmm1
  00100	f2 0f 59 c1	 mulsd	 xmm0, xmm1
  00104	8b cb		 mov	 ecx, ebx
  00106	f2 0f 2c f8	 cvttsd2si edi, xmm0
  0010a	ff 15 00 00 00
	00		 call	 DWORD PTR __imp_?GetHeight@ioWnd@@QBEHXZ
  00110	99		 cdq
  00111	2b c2		 sub	 eax, edx
  00113	d1 f8		 sar	 eax, 1
  00115	8b cb		 mov	 ecx, ebx
  00117	2b f8		 sub	 edi, eax
  00119	ff 15 00 00 00
	00		 call	 DWORD PTR __imp_?GetHeight@ioWnd@@QBEHXZ

; 654  : 
; 655  : 	ioMovingWnd::SetPositionToDefault( iParentWidth, iParentHeight, bChildMove, bCreate );

  0011f	ff 75 14	 push	 DWORD PTR _bCreate$[ebp]
  00122	03 c7		 add	 eax, edi
  00124	ff 75 10	 push	 DWORD PTR _bChildMove$[ebp]
  00127	8b ce		 mov	 ecx, esi
  00129	ff 75 0c	 push	 DWORD PTR _iParentHeight$[ebp]
  0012c	89 86 c4 00 00
	00		 mov	 DWORD PTR [esi+196], eax
  00132	ff 75 08	 push	 DWORD PTR _iParentWidth$[ebp]
  00135	ff 15 00 00 00
	00		 call	 DWORD PTR __imp_?SetPositionToDefault@ioMovingWnd@@UAEXHH_N0@Z

; 656  : 
; 657  : 	m_iDefXPos = iTempDefXPos;
; 658  : 	m_iDefYPos = iTempDefYPos;
; 659  : 
; 660  : 	if( !bCreate )

  0013b	80 7d 14 00	 cmp	 BYTE PTR _bCreate$[ebp], 0
  0013f	8b 45 f4	 mov	 eax, DWORD PTR _iTempDefXPos$[ebp]
  00142	89 86 c0 00 00
	00		 mov	 DWORD PTR [esi+192], eax
  00148	8b 45 f0	 mov	 eax, DWORD PTR _iTempDefYPos$[ebp]
  0014b	89 86 c4 00 00
	00		 mov	 DWORD PTR [esi+196], eax
  00151	75 2b		 jne	 SHORT $LN7@SetPositio

; 661  : 	{
; 662  : 		m_iDefaultX = GetXPos();

  00153	8b ce		 mov	 ecx, esi
  00155	ff 15 00 00 00
	00		 call	 DWORD PTR __imp_?GetXPos@ioWnd@@QBEHXZ

; 663  : 		m_iDefaultY = GetYPos();

  0015b	8b ce		 mov	 ecx, esi
  0015d	89 86 10 02 00
	00		 mov	 DWORD PTR [esi+528], eax
  00163	ff 15 00 00 00
	00		 call	 DWORD PTR __imp_?GetYPos@ioWnd@@QBEHXZ

; 664  : 		SetWndPos( m_iDefaultX, m_iDefaultY );

  00169	50		 push	 eax
  0016a	ff b6 10 02 00
	00		 push	 DWORD PTR [esi+528]
  00170	8b ce		 mov	 ecx, esi
  00172	89 86 14 02 00
	00		 mov	 DWORD PTR [esi+532], eax
  00178	ff 15 00 00 00
	00		 call	 DWORD PTR __imp_?SetWndPos@ioWnd@@QAEXHH@Z
$LN7@SetPositio:
  0017e	5f		 pop	 edi
$LN1@SetPositio:
  0017f	5e		 pop	 esi
  00180	5b		 pop	 ebx

; 665  : 	}
; 666  : }

  00181	c9		 leave
  00182	c2 10 00	 ret	 16			; 00000010H
?SetPositionToDefault@ioObserverRedWnd@@MAEXHH_N0@Z ENDP ; ioObserverRedWnd::SetPositionToDefault
_TEXT	ENDS
PUBLIC	__$ArrayPad$
PUBLIC	?UpdateWndSize@ioObserverBlueWnd@@IAEXXZ	; ioObserverBlueWnd::UpdateWndSize
; Function compile flags: /Ogsp
;	COMDAT ?UpdateWndSize@ioObserverBlueWnd@@IAEXXZ
_TEXT	SEGMENT
_rc$ = -20						; size = 16
__$ArrayPad$ = -4					; size = 4
?UpdateWndSize@ioObserverBlueWnd@@IAEXXZ PROC		; ioObserverBlueWnd::UpdateWndSize, COMDAT
; _this$ = ecx

; 768  : {

  00000	55		 push	 ebp
  00001	8b ec		 mov	 ebp, esp
  00003	83 ec 14	 sub	 esp, 20			; 00000014H
  00006	a1 00 00 00 00	 mov	 eax, DWORD PTR ___security_cookie
  0000b	33 c5		 xor	 eax, ebp
  0000d	89 45 fc	 mov	 DWORD PTR __$ArrayPad$[ebp], eax
  00010	53		 push	 ebx
  00011	56		 push	 esi
  00012	57		 push	 edi
  00013	8b f9		 mov	 edi, ecx

; 769  : 	int iCnt = m_RoundInfoList.size();

  00015	8b b7 cc 01 00
	00		 mov	 esi, DWORD PTR [edi+460]
  0001b	2b b7 c8 01 00
	00		 sub	 esi, DWORD PTR [edi+456]

; 770  : 
; 771  : 	int iSizeX = DEFAULT_WIDTH;
; 772  : 	int iSizeY = DEFAULT_HEIGHT * iCnt;
; 773  : 
; 774  : 	SetSize( iSizeX, iSizeY );

  00021	8b 07		 mov	 eax, DWORD PTR [edi]
  00023	c1 fe 07	 sar	 esi, 7
  00026	6b f6 1f	 imul	 esi, 31			; 0000001fH
  00029	56		 push	 esi
  0002a	bb a0 00 00 00	 mov	 ebx, 160		; 000000a0H
  0002f	53		 push	 ebx
  00030	ff 50 2c	 call	 DWORD PTR [eax+44]

; 775  : 
; 776  : 	RECT  rc = { 0, 0, iSizeX, iSizeY };

  00033	83 65 ec 00	 and	 DWORD PTR _rc$[ebp], 0
  00037	83 65 f0 00	 and	 DWORD PTR _rc$[ebp+4], 0

; 777  : 	SetDragRect( rc );

  0003b	8d 45 ec	 lea	 eax, DWORD PTR _rc$[ebp]
  0003e	50		 push	 eax
  0003f	8b cf		 mov	 ecx, edi
  00041	89 5d f4	 mov	 DWORD PTR _rc$[ebp+8], ebx
  00044	89 75 f8	 mov	 DWORD PTR _rc$[ebp+12], esi
  00047	ff 15 00 00 00
	00		 call	 DWORD PTR __imp_?SetDragRect@ioWnd@@QAEXABUtagRECT@@@Z

; 778  : 
; 779  : 	int iGap = GetYPos() - ((Setting::Height() - GetHeight() ) + 1);

  0004d	8b cf		 mov	 ecx, edi
  0004f	ff 15 00 00 00
	00		 call	 DWORD PTR __imp_?GetYPos@ioWnd@@QBEHXZ
  00055	8b f0		 mov	 esi, eax
  00057	e8 00 00 00 00	 call	 ?Height@Setting@@SAHXZ	; Setting::Height
  0005c	8b cf		 mov	 ecx, edi
  0005e	2b f0		 sub	 esi, eax
  00060	ff 15 00 00 00
	00		 call	 DWORD PTR __imp_?GetHeight@ioWnd@@QBEHXZ
  00066	8d 5c 30 ff	 lea	 ebx, DWORD PTR [eax+esi-1]

; 780  : 	if( iGap > 0 )

  0006a	85 db		 test	 ebx, ebx
  0006c	7e 2a		 jle	 SHORT $LN1@UpdateWndS@2

; 781  : 	{
; 782  : 		int iNewYPos = GetYPos() - iGap;

  0006e	8b cf		 mov	 ecx, edi
  00070	ff 15 00 00 00
	00		 call	 DWORD PTR __imp_?GetYPos@ioWnd@@QBEHXZ
  00076	8b f0		 mov	 esi, eax

; 783  : 
; 784  : 		m_iDefaultX = GetXPos();

  00078	8b cf		 mov	 ecx, edi
  0007a	2b f3		 sub	 esi, ebx
  0007c	ff 15 00 00 00
	00		 call	 DWORD PTR __imp_?GetXPos@ioWnd@@QBEHXZ

; 785  : 		m_iDefaultY = iNewYPos;
; 786  : 
; 787  : 		SetWndPos( m_iDefaultX, m_iDefaultY );

  00082	56		 push	 esi
  00083	50		 push	 eax
  00084	8b cf		 mov	 ecx, edi
  00086	89 87 d8 01 00
	00		 mov	 DWORD PTR [edi+472], eax
  0008c	89 b7 dc 01 00
	00		 mov	 DWORD PTR [edi+476], esi
  00092	ff 15 00 00 00
	00		 call	 DWORD PTR __imp_?SetWndPos@ioWnd@@QAEXHH@Z
$LN1@UpdateWndS@2:

; 788  : 	}
; 789  : }

  00098	8b 4d fc	 mov	 ecx, DWORD PTR __$ArrayPad$[ebp]
  0009b	5f		 pop	 edi
  0009c	5e		 pop	 esi
  0009d	33 cd		 xor	 ecx, ebp
  0009f	5b		 pop	 ebx
  000a0	e8 00 00 00 00	 call	 @__security_check_cookie@4
  000a5	c9		 leave
  000a6	c3		 ret	 0
?UpdateWndSize@ioObserverBlueWnd@@IAEXXZ ENDP		; ioObserverBlueWnd::UpdateWndSize
_TEXT	ENDS
PUBLIC	?iwm_show@ioObserverBlueWnd@@UAEXXZ		; ioObserverBlueWnd::iwm_show
; Function compile flags: /Ogsp
;	COMDAT ?iwm_show@ioObserverBlueWnd@@UAEXXZ
_TEXT	SEGMENT
?iwm_show@ioObserverBlueWnd@@UAEXXZ PROC		; ioObserverBlueWnd::iwm_show, COMDAT
; _this$ = ecx

; 876  : {

  00000	56		 push	 esi
  00001	8b f1		 mov	 esi, ecx

; 877  : 	UpdateWndSize();

  00003	e8 00 00 00 00	 call	 ?UpdateWndSize@ioObserverBlueWnd@@IAEXXZ ; ioObserverBlueWnd::UpdateWndSize

; 878  : 
; 879  : 	m_bCheckMark = false;

  00008	c6 86 c0 01 00
	00 00		 mov	 BYTE PTR [esi+448], 0

; 880  : 	m_dwCheckTime = FRAMEGETTIME();

  0000f	ff 15 00 00 00
	00		 call	 DWORD PTR __imp_?GetSingleton@ioFrameTimer@@SAAAV1@XZ
  00015	8b c8		 mov	 ecx, eax
  00017	ff 15 00 00 00
	00		 call	 DWORD PTR __imp_?GetLoopSec@ioFrameTimer@@QBEKXZ
  0001d	89 86 c4 01 00
	00		 mov	 DWORD PTR [esi+452], eax
  00023	5e		 pop	 esi

; 881  : }

  00024	c3		 ret	 0
?iwm_show@ioObserverBlueWnd@@UAEXXZ ENDP		; ioObserverBlueWnd::iwm_show
_TEXT	ENDS
PUBLIC	?ProcessCameraClick@ioObserverBlueWnd@@IAEXXZ	; ioObserverBlueWnd::ProcessCameraClick
;	COMDAT xdata$x
; File c:\program files (x86)\microsoft visual studio 10.0\vc\include\vector
xdata$x	SEGMENT
__unwindtable$?ProcessCameraClick@ioObserverBlueWnd@@IAEXXZ DD 0ffffffffH
	DD	FLAT:__unwindfunclet$?ProcessCameraClick@ioObserverBlueWnd@@IAEXXZ$0
__ehfuncinfo$?ProcessCameraClick@ioObserverBlueWnd@@IAEXXZ DD 019930522H
	DD	01H
	DD	FLAT:__unwindtable$?ProcessCameraClick@ioObserverBlueWnd@@IAEXXZ
	DD	2 DUP(00H)
	DD	2 DUP(00H)
	DD	00H
	DD	01H
; Function compile flags: /Ogsp
; File d:\lost saga for developer\youtube\tutorial\source\src\lsclient\gui\ioobserverwnd.cpp
xdata$x	ENDS
;	COMDAT ?ProcessCameraClick@ioObserverBlueWnd@@IAEXXZ
_TEXT	SEGMENT
_kInfo$532638 = -180					; size = 128
_iYPos$ = -52						; size = 4
_iXPos$ = -48						; size = 4
_pMouse$ = -44						; size = 4
tv290 = -40						; size = 4
_i$532634 = -36						; size = 4
_rcNameRect$532639 = -32				; size = 16
__$EHRec$ = -12						; size = 12
?ProcessCameraClick@ioObserverBlueWnd@@IAEXXZ PROC	; ioObserverBlueWnd::ProcessCameraClick, COMDAT
; _this$ = ecx

; 1113 : {

  00000	68 a8 00 00 00	 push	 168			; 000000a8H
  00005	b8 00 00 00 00	 mov	 eax, __ehhandler$?ProcessCameraClick@ioObserverBlueWnd@@IAEXXZ
  0000a	e8 00 00 00 00	 call	 __EH_prolog3_GS
  0000f	8b f9		 mov	 edi, ecx

; 1114 : 	if( !g_GUIMgr.IsCurrentOver( GetID() ) )

  00011	ff 15 00 00 00
	00		 call	 DWORD PTR __imp_?GetID@ioWnd@@QBEKXZ
  00017	50		 push	 eax
  00018	e8 00 00 00 00	 call	 ?GetSingleton@ioSP2GUIManager@@SAAAV1@XZ ; ioSP2GUIManager::GetSingleton
  0001d	8b c8		 mov	 ecx, eax
  0001f	e8 00 00 00 00	 call	 ?IsCurrentOver@ioSP2GUIManager@@QBE_NK@Z ; ioSP2GUIManager::IsCurrentOver
  00024	84 c0		 test	 al, al
  00026	0f 84 09 01 00
	00		 je	 $LN3@ProcessCam@2

; 1115 : 		return;
; 1116 : 
; 1117 : 	if( !g_App.IsVisibleMouse() )

  0002c	e8 00 00 00 00	 call	 ?GetSingleton@ioApplication@@SAAAV1@XZ ; ioApplication::GetSingleton
  00031	8b c8		 mov	 ecx, eax
  00033	e8 00 00 00 00	 call	 ?IsVisibleMouse@ioApplication@@QAE_NXZ ; ioApplication::IsVisibleMouse
  00038	84 c0		 test	 al, al
  0003a	0f 84 f5 00 00
	00		 je	 $LN3@ProcessCam@2

; 1118 : 		return;
; 1119 : 
; 1120 : 	int iXPos = GetDerivedPosX();

  00040	8b cf		 mov	 ecx, edi
  00042	ff 15 00 00 00
	00		 call	 DWORD PTR __imp_?GetDerivedPosX@ioWnd@@QBEHXZ

; 1121 : 	int iYPos = GetDerivedPosY();

  00048	8b cf		 mov	 ecx, edi
  0004a	89 45 d0	 mov	 DWORD PTR _iXPos$[ebp], eax
  0004d	ff 15 00 00 00
	00		 call	 DWORD PTR __imp_?GetDerivedPosY@ioWnd@@QBEHXZ
  00053	89 45 cc	 mov	 DWORD PTR _iYPos$[ebp], eax

; 1122 : 
; 1123 : 	ioLSMouse *pMouse = g_App.GetMouse();

  00056	e8 00 00 00 00	 call	 ?GetSingleton@ioApplication@@SAAAV1@XZ ; ioApplication::GetSingleton

; 1124 : 
; 1125 : 	int iInfoCount = m_RoundInfoList.size();

  0005b	8b b7 cc 01 00
	00		 mov	 esi, DWORD PTR [edi+460]
  00061	2b b7 c8 01 00
	00		 sub	 esi, DWORD PTR [edi+456]

; 1126 : 	for( int i=0; i < iInfoCount; i++ )

  00067	33 db		 xor	 ebx, ebx
  00069	05 90 00 00 00	 add	 eax, 144		; 00000090H
  0006e	c1 fe 07	 sar	 esi, 7
  00071	89 45 d4	 mov	 DWORD PTR _pMouse$[ebp], eax
  00074	89 5d dc	 mov	 DWORD PTR _i$532634[ebp], ebx
  00077	3b f3		 cmp	 esi, ebx
  00079	0f 8e b6 00 00
	00		 jle	 $LN3@ProcessCam@2

; 1118 : 		return;
; 1119 : 
; 1120 : 	int iXPos = GetDerivedPosX();

  0007f	89 5d d8	 mov	 DWORD PTR tv290[ebp], ebx
$LN5@ProcessCam@2:

; 1126 : 	for( int i=0; i < iInfoCount; i++ )

  00082	8b 87 c8 01 00
	00		 mov	 eax, DWORD PTR [edi+456]
  00088	03 45 d8	 add	 eax, DWORD PTR tv290[ebp]

; 1127 : 	{
; 1128 : 		RoundInfo kInfo = m_RoundInfoList[i];

  0008b	8d 8d 4c ff ff
	ff		 lea	 ecx, DWORD PTR _kInfo$532638[ebp]
  00091	50		 push	 eax
  00092	e8 00 00 00 00	 call	 ??0RoundInfo@@QAE@ABU0@@Z
  00097	83 65 fc 00	 and	 DWORD PTR __$EHRec$[ebp+8], 0

; 1129 : 
; 1130 : 		RECT rcNameRect;
; 1131 : 		SetRectEmpty( &rcNameRect );

  0009b	8d 45 e0	 lea	 eax, DWORD PTR _rcNameRect$532639[ebp]
  0009e	50		 push	 eax
  0009f	ff 15 00 00 00
	00		 call	 DWORD PTR __imp__SetRectEmpty@4

; 1132 : 
; 1133 : 		rcNameRect.left += iXPos;

  000a5	8b 45 d0	 mov	 eax, DWORD PTR _iXPos$[ebp]
  000a8	01 45 e0	 add	 DWORD PTR _rcNameRect$532639[ebp], eax

; 1134 : 		rcNameRect.top  += iYPos + i * DEFAULT_HEIGHT;

  000ab	8b 45 cc	 mov	 eax, DWORD PTR _iYPos$[ebp]

; 1135 : 		rcNameRect.right  = rcNameRect.left + DEFAULT_WIDTH;
; 1136 : 		rcNameRect.bottom = rcNameRect.top  + DEFAULT_HEIGHT;
; 1137 : 
; 1138 : 		if( ::PtInRect( &rcNameRect, pMouse->GetMousePos() ) )

  000ae	8b 4d d4	 mov	 ecx, DWORD PTR _pMouse$[ebp]
  000b1	03 c3		 add	 eax, ebx
  000b3	01 45 e4	 add	 DWORD PTR _rcNameRect$532639[ebp+4], eax
  000b6	8b 45 e0	 mov	 eax, DWORD PTR _rcNameRect$532639[ebp]
  000b9	05 a0 00 00 00	 add	 eax, 160		; 000000a0H
  000be	89 45 e8	 mov	 DWORD PTR _rcNameRect$532639[ebp+8], eax
  000c1	8b 45 e4	 mov	 eax, DWORD PTR _rcNameRect$532639[ebp+4]
  000c4	83 c0 1f	 add	 eax, 31			; 0000001fH
  000c7	89 45 ec	 mov	 DWORD PTR _rcNameRect$532639[ebp+12], eax
  000ca	ff 15 00 00 00
	00		 call	 DWORD PTR __imp_?GetMousePos@ioMouse@@QBEABUtagPOINT@@XZ
  000d0	ff 70 04	 push	 DWORD PTR [eax+4]
  000d3	ff 30		 push	 DWORD PTR [eax]
  000d5	8d 45 e0	 lea	 eax, DWORD PTR _rcNameRect$532639[ebp]
  000d8	50		 push	 eax
  000d9	ff 15 00 00 00
	00		 call	 DWORD PTR __imp__PtInRect@12
  000df	85 c0		 test	 eax, eax
  000e1	75 20		 jne	 SHORT $LN18@ProcessCam@2

; 1145 : 		}
; 1146 : 	}

  000e3	83 4d fc ff	 or	 DWORD PTR __$EHRec$[ebp+8], -1
  000e7	8d 8d 4c ff ff
	ff		 lea	 ecx, DWORD PTR _kInfo$532638[ebp]
  000ed	e8 00 00 00 00	 call	 ??1RoundInfo@@QAE@XZ
  000f2	ff 45 dc	 inc	 DWORD PTR _i$532634[ebp]
  000f5	83 6d d8 80	 sub	 DWORD PTR tv290[ebp], -128 ; ffffff80H
  000f9	83 c3 1f	 add	 ebx, 31			; 0000001fH
  000fc	39 75 dc	 cmp	 DWORD PTR _i$532634[ebp], esi
  000ff	7c 81		 jl	 SHORT $LN5@ProcessCam@2

; 1135 : 		rcNameRect.right  = rcNameRect.left + DEFAULT_WIDTH;
; 1136 : 		rcNameRect.bottom = rcNameRect.top  + DEFAULT_HEIGHT;
; 1137 : 
; 1138 : 		if( ::PtInRect( &rcNameRect, pMouse->GetMousePos() ) )

  00101	eb 32		 jmp	 SHORT $LN3@ProcessCam@2
$LN18@ProcessCam@2:

; 1139 : 		{
; 1140 : 			if( pMouse->IsLBtnUp() && m_pPlayStage )

  00103	8b 4d d4	 mov	 ecx, DWORD PTR _pMouse$[ebp]
  00106	ff 15 00 00 00
	00		 call	 DWORD PTR __imp_?IsLBtnUp@ioMouse@@QBE_NXZ
  0010c	84 c0		 test	 al, al
  0010e	74 16		 je	 SHORT $LN1@ProcessCam@2
  00110	8b 8f 90 01 00
	00		 mov	 ecx, DWORD PTR [edi+400]
  00116	85 c9		 test	 ecx, ecx
  00118	74 0c		 je	 SHORT $LN1@ProcessCam@2

; 1141 : 			{
; 1142 : 				m_pPlayStage->CheckObserverCameraTarget( kInfo.m_szName );

  0011a	8d 85 4c ff ff
	ff		 lea	 eax, DWORD PTR _kInfo$532638[ebp]
  00120	50		 push	 eax
  00121	e8 00 00 00 00	 call	 ?CheckObserverCameraTarget@ioPlayStage@@QAEXABVioHashString@@@Z ; ioPlayStage::CheckObserverCameraTarget
$LN1@ProcessCam@2:

; 1143 : 			}
; 1144 : 			break;

  00126	83 4d fc ff	 or	 DWORD PTR __$EHRec$[ebp+8], -1
  0012a	8d 8d 4c ff ff
	ff		 lea	 ecx, DWORD PTR _kInfo$532638[ebp]
  00130	e8 00 00 00 00	 call	 ??1RoundInfo@@QAE@XZ
$LN3@ProcessCam@2:

; 1147 : }

  00135	e8 00 00 00 00	 call	 __EH_epilog3_GS
  0013a	c3		 ret	 0
_TEXT	ENDS
;	COMDAT text$x
text$x	SEGMENT
__unwindfunclet$?ProcessCameraClick@ioObserverBlueWnd@@IAEXXZ$0:
  00000	8d 8d 4c ff ff
	ff		 lea	 ecx, DWORD PTR _kInfo$532638[ebp]
  00006	e9 00 00 00 00	 jmp	 ??1RoundInfo@@QAE@XZ
__ehhandler$?ProcessCameraClick@ioObserverBlueWnd@@IAEXXZ:
  0000b	8b 54 24 08	 mov	 edx, DWORD PTR [esp+8]
  0000f	8d 42 0c	 lea	 eax, DWORD PTR [edx+12]
  00012	8b 8a 48 ff ff
	ff		 mov	 ecx, DWORD PTR [edx-184]
  00018	33 c8		 xor	 ecx, eax
  0001a	e8 00 00 00 00	 call	 @__security_check_cookie@4
  0001f	8b 4a fc	 mov	 ecx, DWORD PTR [edx-4]
  00022	33 c8		 xor	 ecx, eax
  00024	e8 00 00 00 00	 call	 @__security_check_cookie@4
  00029	b8 00 00 00 00	 mov	 eax, OFFSET __ehfuncinfo$?ProcessCameraClick@ioObserverBlueWnd@@IAEXXZ
  0002e	e9 00 00 00 00	 jmp	 ___CxxFrameHandler3
text$x	ENDS
?ProcessCameraClick@ioObserverBlueWnd@@IAEXXZ ENDP	; ioObserverBlueWnd::ProcessCameraClick
PUBLIC	?SetPositionToDefault@ioObserverBlueWnd@@MAEXHH_N0@Z ; ioObserverBlueWnd::SetPositionToDefault
; Function compile flags: /Ogsp
;	COMDAT ?SetPositionToDefault@ioObserverBlueWnd@@MAEXHH_N0@Z
_TEXT	SEGMENT
_iTempDefYPos$ = -16					; size = 4
_iTempDefXPos$ = -12					; size = 4
_fDefCenterYRate$ = -8					; size = 4
_fDefCenterXRate$ = -4					; size = 4
_iParentWidth$ = 8					; size = 4
_iParentHeight$ = 12					; size = 4
_bChildMove$ = 16					; size = 1
_bCreate$ = 20						; size = 1
?SetPositionToDefault@ioObserverBlueWnd@@MAEXHH_N0@Z PROC ; ioObserverBlueWnd::SetPositionToDefault, COMDAT
; _this$ = ecx

; 1229 : {

  00000	55		 push	 ebp
  00001	8b ec		 mov	 ebp, esp
  00003	83 ec 10	 sub	 esp, 16			; 00000010H
  00006	53		 push	 ebx
  00007	56		 push	 esi

; 1230 : 	TimeScoreWnd *pTimeScoreWnd = dynamic_cast<TimeScoreWnd *>( g_GUIMgr.FindWnd( TIME_SCORE_WND ) );

  00008	6a 00		 push	 0
  0000a	68 00 00 00 00	 push	 OFFSET ??_R0?AVTimeScoreWnd@@@8
  0000f	68 00 00 00 00	 push	 OFFSET ??_R0?AVioWnd@@@8
  00014	6a 00		 push	 0
  00016	68 b9 13 00 00	 push	 5049			; 000013b9H
  0001b	8b f1		 mov	 esi, ecx
  0001d	e8 00 00 00 00	 call	 ?GetSingleton@ioSP2GUIManager@@SAAAV1@XZ ; ioSP2GUIManager::GetSingleton
  00022	8b c8		 mov	 ecx, eax
  00024	ff 15 00 00 00
	00		 call	 DWORD PTR __imp_?FindWnd@ioGUIManager@@QAEPAVioWnd@@K@Z
  0002a	50		 push	 eax
  0002b	e8 00 00 00 00	 call	 ___RTDynamicCast
  00030	8b d8		 mov	 ebx, eax
  00032	83 c4 14	 add	 esp, 20			; 00000014H

; 1231 : 	if( !pTimeScoreWnd ) return;

  00035	85 db		 test	 ebx, ebx
  00037	0f 84 42 01 00
	00		 je	 $LN1@SetPositio@2

; 1232 : 
; 1233 : 	UpdateMainDefaultPos();

  0003d	57		 push	 edi
  0003e	8b ce		 mov	 ecx, esi
  00040	e8 00 00 00 00	 call	 ?UpdateMainDefaultPos@ioObserverBlueWnd@@IAEXXZ ; ioObserverBlueWnd::UpdateMainDefaultPos

; 1234 : 
; 1235 : 	int iTempDefXPos = m_iDefXPos;

  00045	8b 86 c0 00 00
	00		 mov	 eax, DWORD PTR [esi+192]
  0004b	89 45 f4	 mov	 DWORD PTR _iTempDefXPos$[ebp], eax

; 1236 : 	int iTempDefYPos = m_iDefYPos;

  0004e	8b 86 c4 00 00
	00		 mov	 eax, DWORD PTR [esi+196]

; 1237 : 
; 1238 : 	float fDefCenterX = (float)( m_iDefXPos + GetWidth() / 2 );

  00054	8b ce		 mov	 ecx, esi
  00056	89 45 f0	 mov	 DWORD PTR _iTempDefYPos$[ebp], eax
  00059	ff 15 00 00 00
	00		 call	 DWORD PTR __imp_?GetWidth@ioWnd@@QBEHXZ

; 1239 : 	float fDefCenterXRate = fDefCenterX / 800.0f;
; 1240 : 
; 1241 : 	float fDefCenterY = (float)(pTimeScoreWnd->GetMainDefaultYPos() + pTimeScoreWnd->GetHeight() / 2);

  0005f	8b bb c4 00 00
	00		 mov	 edi, DWORD PTR [ebx+196]
  00065	99		 cdq
  00066	2b c2		 sub	 eax, edx
  00068	d1 f8		 sar	 eax, 1
  0006a	03 86 c0 00 00
	00		 add	 eax, DWORD PTR [esi+192]
  00070	0f 57 c0	 xorps	 xmm0, xmm0
  00073	8b cb		 mov	 ecx, ebx
  00075	f3 0f 2a c0	 cvtsi2ss xmm0, eax
  00079	0f 5a c0	 cvtps2pd xmm0, xmm0
  0007c	f2 0f 5e 05 00
	00 00 00	 divsd	 xmm0, QWORD PTR __real@4089000000000000
  00084	66 0f 5a c0	 cvtpd2ps xmm0, xmm0
  00088	f3 0f 11 45 fc	 movss	 DWORD PTR _fDefCenterXRate$[ebp], xmm0
  0008d	ff 15 00 00 00
	00		 call	 DWORD PTR __imp_?GetHeight@ioWnd@@QBEHXZ
  00093	99		 cdq
  00094	2b c2		 sub	 eax, edx
  00096	d1 f8		 sar	 eax, 1

; 1242 : 	float fDefCenterYRate = fDefCenterY / 600.0f;

  00098	0f 57 c0	 xorps	 xmm0, xmm0
  0009b	03 c7		 add	 eax, edi
  0009d	f3 0f 2a c0	 cvtsi2ss xmm0, eax
  000a1	0f 5a c0	 cvtps2pd xmm0, xmm0
  000a4	f2 0f 5e 05 00
	00 00 00	 divsd	 xmm0, QWORD PTR __real@4082c00000000000
  000ac	66 0f 5a c0	 cvtpd2ps xmm0, xmm0
  000b0	f3 0f 11 45 f8	 movss	 DWORD PTR _fDefCenterYRate$[ebp], xmm0

; 1243 : 
; 1244 : 	m_iDefXPos = (int)(Setting::Width() * fDefCenterXRate) - GetWidth() / 2;

  000b5	e8 00 00 00 00	 call	 ?Width@Setting@@SAHXZ	; Setting::Width
  000ba	f3 0f 10 4d fc	 movss	 xmm1, DWORD PTR _fDefCenterXRate$[ebp]
  000bf	0f 57 c0	 xorps	 xmm0, xmm0
  000c2	f3 0f 2a c0	 cvtsi2ss xmm0, eax
  000c6	0f 5a c0	 cvtps2pd xmm0, xmm0
  000c9	0f 5a c9	 cvtps2pd xmm1, xmm1
  000cc	f2 0f 59 c1	 mulsd	 xmm0, xmm1
  000d0	8b ce		 mov	 ecx, esi
  000d2	f2 0f 2c f8	 cvttsd2si edi, xmm0
  000d6	ff 15 00 00 00
	00		 call	 DWORD PTR __imp_?GetWidth@ioWnd@@QBEHXZ
  000dc	99		 cdq
  000dd	2b c2		 sub	 eax, edx
  000df	d1 f8		 sar	 eax, 1
  000e1	2b f8		 sub	 edi, eax
  000e3	89 be c0 00 00
	00		 mov	 DWORD PTR [esi+192], edi

; 1245 : 	m_iDefYPos = (int)(Setting::Height() * fDefCenterYRate) - (pTimeScoreWnd->GetHeight() / 2) + pTimeScoreWnd->GetHeight();

  000e9	e8 00 00 00 00	 call	 ?Height@Setting@@SAHXZ	; Setting::Height
  000ee	f3 0f 10 4d f8	 movss	 xmm1, DWORD PTR _fDefCenterYRate$[ebp]
  000f3	0f 57 c0	 xorps	 xmm0, xmm0
  000f6	f3 0f 2a c0	 cvtsi2ss xmm0, eax
  000fa	0f 5a c0	 cvtps2pd xmm0, xmm0
  000fd	0f 5a c9	 cvtps2pd xmm1, xmm1
  00100	f2 0f 59 c1	 mulsd	 xmm0, xmm1
  00104	8b cb		 mov	 ecx, ebx
  00106	f2 0f 2c f8	 cvttsd2si edi, xmm0
  0010a	ff 15 00 00 00
	00		 call	 DWORD PTR __imp_?GetHeight@ioWnd@@QBEHXZ
  00110	99		 cdq
  00111	2b c2		 sub	 eax, edx
  00113	d1 f8		 sar	 eax, 1
  00115	8b cb		 mov	 ecx, ebx
  00117	2b f8		 sub	 edi, eax
  00119	ff 15 00 00 00
	00		 call	 DWORD PTR __imp_?GetHeight@ioWnd@@QBEHXZ

; 1246 : 
; 1247 : 	ioMovingWnd::SetPositionToDefault( iParentWidth, iParentHeight, bChildMove, bCreate );

  0011f	ff 75 14	 push	 DWORD PTR _bCreate$[ebp]
  00122	03 c7		 add	 eax, edi
  00124	ff 75 10	 push	 DWORD PTR _bChildMove$[ebp]
  00127	8b ce		 mov	 ecx, esi
  00129	ff 75 0c	 push	 DWORD PTR _iParentHeight$[ebp]
  0012c	89 86 c4 00 00
	00		 mov	 DWORD PTR [esi+196], eax
  00132	ff 75 08	 push	 DWORD PTR _iParentWidth$[ebp]
  00135	ff 15 00 00 00
	00		 call	 DWORD PTR __imp_?SetPositionToDefault@ioMovingWnd@@UAEXHH_N0@Z

; 1248 : 
; 1249 : 	m_iDefXPos = iTempDefXPos;
; 1250 : 	m_iDefYPos = iTempDefYPos;
; 1251 : 
; 1252 : 	if( !bCreate )

  0013b	80 7d 14 00	 cmp	 BYTE PTR _bCreate$[ebp], 0
  0013f	8b 45 f4	 mov	 eax, DWORD PTR _iTempDefXPos$[ebp]
  00142	89 86 c0 00 00
	00		 mov	 DWORD PTR [esi+192], eax
  00148	8b 45 f0	 mov	 eax, DWORD PTR _iTempDefYPos$[ebp]
  0014b	89 86 c4 00 00
	00		 mov	 DWORD PTR [esi+196], eax
  00151	75 2b		 jne	 SHORT $LN7@SetPositio@2

; 1253 : 	{
; 1254 : 		m_iDefaultX = GetXPos();

  00153	8b ce		 mov	 ecx, esi
  00155	ff 15 00 00 00
	00		 call	 DWORD PTR __imp_?GetXPos@ioWnd@@QBEHXZ

; 1255 : 		m_iDefaultY = GetYPos();

  0015b	8b ce		 mov	 ecx, esi
  0015d	89 86 d8 01 00
	00		 mov	 DWORD PTR [esi+472], eax
  00163	ff 15 00 00 00
	00		 call	 DWORD PTR __imp_?GetYPos@ioWnd@@QBEHXZ

; 1256 : 		SetWndPos( m_iDefaultX, m_iDefaultY );

  00169	50		 push	 eax
  0016a	ff b6 d8 01 00
	00		 push	 DWORD PTR [esi+472]
  00170	8b ce		 mov	 ecx, esi
  00172	89 86 dc 01 00
	00		 mov	 DWORD PTR [esi+476], eax
  00178	ff 15 00 00 00
	00		 call	 DWORD PTR __imp_?SetWndPos@ioWnd@@QAEXHH@Z
$LN7@SetPositio@2:
  0017e	5f		 pop	 edi
$LN1@SetPositio@2:
  0017f	5e		 pop	 esi
  00180	5b		 pop	 ebx

; 1257 : 	}
; 1258 : }

  00181	c9		 leave
  00182	c2 10 00	 ret	 16			; 00000010H
?SetPositionToDefault@ioObserverBlueWnd@@MAEXHH_N0@Z ENDP ; ioObserverBlueWnd::SetPositionToDefault
_TEXT	ENDS
PUBLIC	??K?$CEncrypt@M@@QAEMABM@Z			; CEncrypt<float>::operator/
; Function compile flags: /Ogsp
; File d:\lost saga for developer\youtube\tutorial\source\src\lsclient\encryptvalue.h
;	COMDAT ??K?$CEncrypt@M@@QAEMABM@Z
_TEXT	SEGMENT
_value$ = -4						; size = 4
tv130 = 8						; size = 4
_inValue$ = 8						; size = 4
??K?$CEncrypt@M@@QAEMABM@Z PROC				; CEncrypt<float>::operator/, COMDAT
; _this$ = ecx

; 1695 : 	{

  00000	55		 push	 ebp
  00001	8b ec		 mov	 ebp, esp
  00003	51		 push	 ecx

; 1696 : 		type value;
; 1697 : 		DecryptValueToPool(&value);

  00004	8d 45 fc	 lea	 eax, DWORD PTR _value$[ebp]
  00007	50		 push	 eax
  00008	e8 00 00 00 00	 call	 ?DecryptValueToPool@?$CEncrypt@M@@QAEXPAM@Z ; CEncrypt<float>::DecryptValueToPool

; 1698 : #ifdef _NOTUSE
; 1699 : 		Debug();
; 1700 : #endif
; 1701 : 		return value / inValue;

  0000d	d9 45 fc	 fld	 DWORD PTR _value$[ebp]
  00010	8b 45 08	 mov	 eax, DWORD PTR _inValue$[ebp]
  00013	d8 30		 fdiv	 DWORD PTR [eax]
  00015	d9 5d 08	 fstp	 DWORD PTR tv130[ebp]
  00018	d9 45 08	 fld	 DWORD PTR tv130[ebp]

; 1702 : 	}

  0001b	c9		 leave
  0001c	c2 04 00	 ret	 4
??K?$CEncrypt@M@@QAEMABM@Z ENDP				; CEncrypt<float>::operator/
_TEXT	ENDS
PUBLIC	??N?$CEncrypt@M@@QAE_NABM@Z			; CEncrypt<float>::operator<=
; Function compile flags: /Ogsp
;	COMDAT ??N?$CEncrypt@M@@QAE_NABM@Z
_TEXT	SEGMENT
_value$ = -4						; size = 4
_inValue$ = 8						; size = 4
??N?$CEncrypt@M@@QAE_NABM@Z PROC			; CEncrypt<float>::operator<=, COMDAT
; _this$ = ecx

; 1821 : 	{

  00000	55		 push	 ebp
  00001	8b ec		 mov	 ebp, esp
  00003	51		 push	 ecx

; 1822 : 		type value;
; 1823 : 		DecryptValueToPool(&value);

  00004	8d 45 fc	 lea	 eax, DWORD PTR _value$[ebp]
  00007	50		 push	 eax
  00008	e8 00 00 00 00	 call	 ?DecryptValueToPool@?$CEncrypt@M@@QAEXPAM@Z ; CEncrypt<float>::DecryptValueToPool

; 1824 : #ifdef _NOTUSE
; 1825 : 		Debug();
; 1826 : #endif
; 1827 : 		return (value <= inValue);

  0000d	8b 45 08	 mov	 eax, DWORD PTR _inValue$[ebp]
  00010	f3 0f 10 08	 movss	 xmm1, DWORD PTR [eax]
  00014	f3 0f 10 45 fc	 movss	 xmm0, DWORD PTR _value$[ebp]
  00019	0f 5a c0	 cvtps2pd xmm0, xmm0
  0001c	0f 5a c9	 cvtps2pd xmm1, xmm1
  0001f	33 c0		 xor	 eax, eax
  00021	66 0f 2f c8	 comisd	 xmm1, xmm0
  00025	72 01		 jb	 SHORT $LN4@operator
  00027	40		 inc	 eax
$LN4@operator:

; 1828 : 	}

  00028	c9		 leave
  00029	c2 04 00	 ret	 4
??N?$CEncrypt@M@@QAE_NABM@Z ENDP			; CEncrypt<float>::operator<=
_TEXT	ENDS
PUBLIC	??0?$_Vector_val@URoundInfo@@V?$allocator@URoundInfo@@@std@@@std@@QAE@V?$allocator@URoundInfo@@@1@@Z ; std::_Vector_val<RoundInfo,std::allocator<RoundInfo> >::_Vector_val<RoundInfo,std::allocator<RoundInfo> >
; Function compile flags: /Ogsp
; File c:\program files (x86)\microsoft visual studio 10.0\vc\include\vector
;	COMDAT ??0?$_Vector_val@URoundInfo@@V?$allocator@URoundInfo@@@std@@@std@@QAE@V?$allocator@URoundInfo@@@1@@Z
_TEXT	SEGMENT
__Al$ = 8						; size = 1
??0?$_Vector_val@URoundInfo@@V?$allocator@URoundInfo@@@std@@@std@@QAE@V?$allocator@URoundInfo@@@1@@Z PROC ; std::_Vector_val<RoundInfo,std::allocator<RoundInfo> >::_Vector_val<RoundInfo,std::allocator<RoundInfo> >, COMDAT
; _this$ = ecx

; 426  : 		{	// construct allocator from _Al

  00000	8b c1		 mov	 eax, ecx

; 427  : 		_Myfirst = 0;

  00002	33 c9		 xor	 ecx, ecx
  00004	89 08		 mov	 DWORD PTR [eax], ecx

; 428  : 		_Mylast = 0;

  00006	89 48 04	 mov	 DWORD PTR [eax+4], ecx

; 429  : 		_Myend = 0;

  00009	89 48 08	 mov	 DWORD PTR [eax+8], ecx

; 430  : 		}

  0000c	c2 04 00	 ret	 4
??0?$_Vector_val@URoundInfo@@V?$allocator@URoundInfo@@@std@@@std@@QAE@V?$allocator@URoundInfo@@@1@@Z ENDP ; std::_Vector_val<RoundInfo,std::allocator<RoundInfo> >::_Vector_val<RoundInfo,std::allocator<RoundInfo> >
_TEXT	ENDS
PUBLIC	??0?$_Vector_iterator@V?$_Vector_val@URoundInfo@@V?$allocator@URoundInfo@@@std@@@std@@@std@@QAE@PAURoundInfo@@PBU_Container_base0@1@@Z ; std::_Vector_iterator<std::_Vector_val<RoundInfo,std::allocator<RoundInfo> > >::_Vector_iterator<std::_Vector_val<RoundInfo,std::allocator<RoundInfo> > >
; Function compile flags: /Ogsp
;	COMDAT ??0?$_Vector_iterator@V?$_Vector_val@URoundInfo@@V?$allocator@URoundInfo@@@std@@@std@@@std@@QAE@PAURoundInfo@@PBU_Container_base0@1@@Z
_TEXT	SEGMENT
__Parg$ = 8						; size = 4
__Pvector$ = 12						; size = 4
??0?$_Vector_iterator@V?$_Vector_val@URoundInfo@@V?$allocator@URoundInfo@@@std@@@std@@@std@@QAE@PAURoundInfo@@PBU_Container_base0@1@@Z PROC ; std::_Vector_iterator<std::_Vector_val<RoundInfo,std::allocator<RoundInfo> > >::_Vector_iterator<std::_Vector_val<RoundInfo,std::allocator<RoundInfo> > >, COMDAT
; _this$ = ecx

; 304  : 		{	// construct with pointer _Parg

  00000	55		 push	 ebp
  00001	8b ec		 mov	 ebp, esp
  00003	8b c1		 mov	 eax, ecx
  00005	8b 4d 08	 mov	 ecx, DWORD PTR __Parg$[ebp]
  00008	89 08		 mov	 DWORD PTR [eax], ecx

; 305  : 		}

  0000a	5d		 pop	 ebp
  0000b	c2 08 00	 ret	 8
??0?$_Vector_iterator@V?$_Vector_val@URoundInfo@@V?$allocator@URoundInfo@@@std@@@std@@@std@@QAE@PAURoundInfo@@PBU_Container_base0@1@@Z ENDP ; std::_Vector_iterator<std::_Vector_val<RoundInfo,std::allocator<RoundInfo> > >::_Vector_iterator<std::_Vector_val<RoundInfo,std::allocator<RoundInfo> > >
_TEXT	ENDS
PUBLIC	?max_size@?$vector@URoundInfo@@V?$allocator@URoundInfo@@@std@@@std@@QBEIXZ ; std::vector<RoundInfo,std::allocator<RoundInfo> >::max_size
; Function compile flags: /Ogsp
;	COMDAT ?max_size@?$vector@URoundInfo@@V?$allocator@URoundInfo@@@std@@@std@@QBEIXZ
_TEXT	SEGMENT
?max_size@?$vector@URoundInfo@@V?$allocator@URoundInfo@@@std@@@std@@QBEIXZ PROC ; std::vector<RoundInfo,std::allocator<RoundInfo> >::max_size, COMDAT
; _this$ = ecx

; 884  : 		return (this->_Alval.max_size());

  00000	b8 ff ff ff 01	 mov	 eax, 33554431		; 01ffffffH

; 885  : 		}

  00005	c3		 ret	 0
?max_size@?$vector@URoundInfo@@V?$allocator@URoundInfo@@@std@@@std@@QBEIXZ ENDP ; std::vector<RoundInfo,std::allocator<RoundInfo> >::max_size
_TEXT	ENDS
PUBLIC	?_Grow_to@?$vector@URoundInfo@@V?$allocator@URoundInfo@@@std@@@std@@IBEII@Z ; std::vector<RoundInfo,std::allocator<RoundInfo> >::_Grow_to
; Function compile flags: /Ogsp
;	COMDAT ?_Grow_to@?$vector@URoundInfo@@V?$allocator@URoundInfo@@@std@@@std@@IBEII@Z
_TEXT	SEGMENT
__Count$ = 8						; size = 4
?_Grow_to@?$vector@URoundInfo@@V?$allocator@URoundInfo@@@std@@@std@@IBEII@Z PROC ; std::vector<RoundInfo,std::allocator<RoundInfo> >::_Grow_to, COMDAT
; _this$ = ecx

; 1274 : 		{	// grow by 50% or at least to _Count

  00000	55		 push	 ebp
  00001	8b ec		 mov	 ebp, esp

; 1275 : 		size_type _Capacity = capacity();

  00003	8b 41 08	 mov	 eax, DWORD PTR [ecx+8]
  00006	2b 01		 sub	 eax, DWORD PTR [ecx]

; 1276 : 
; 1277 : 		_Capacity = max_size() - _Capacity / 2 < _Capacity
; 1278 : 			? 0 : _Capacity + _Capacity / 2;	// try to grow by 50%

  00008	ba ff ff ff 01	 mov	 edx, 33554431		; 01ffffffH
  0000d	c1 f8 07	 sar	 eax, 7
  00010	8b c8		 mov	 ecx, eax
  00012	d1 e9		 shr	 ecx, 1
  00014	2b d1		 sub	 edx, ecx
  00016	3b d0		 cmp	 edx, eax
  00018	73 04		 jae	 SHORT $LN4@Grow_to
  0001a	33 c0		 xor	 eax, eax
  0001c	eb 02		 jmp	 SHORT $LN5@Grow_to
$LN4@Grow_to:
  0001e	03 c1		 add	 eax, ecx
$LN5@Grow_to:

; 1279 : 		if (_Capacity < _Count)

  00020	3b 45 08	 cmp	 eax, DWORD PTR __Count$[ebp]

; 1280 : 			_Capacity = _Count;

  00023	0f 42 45 08	 cmovb	 eax, DWORD PTR __Count$[ebp]

; 1281 : 		return (_Capacity);
; 1282 : 		}

  00027	5d		 pop	 ebp
  00028	c2 04 00	 ret	 4
?_Grow_to@?$vector@URoundInfo@@V?$allocator@URoundInfo@@@std@@@std@@IBEII@Z ENDP ; std::vector<RoundInfo,std::allocator<RoundInfo> >::_Grow_to
_TEXT	ENDS
PUBLIC	??8?$_Vector_const_iterator@V?$_Vector_val@URoundInfo@@V?$allocator@URoundInfo@@@std@@@std@@@std@@QBE_NABV01@@Z ; std::_Vector_const_iterator<std::_Vector_val<RoundInfo,std::allocator<RoundInfo> > >::operator==
; Function compile flags: /Ogsp
;	COMDAT ??8?$_Vector_const_iterator@V?$_Vector_val@URoundInfo@@V?$allocator@URoundInfo@@@std@@@std@@@std@@QBE_NABV01@@Z
_TEXT	SEGMENT
__Right$ = 8						; size = 4
??8?$_Vector_const_iterator@V?$_Vector_val@URoundInfo@@V?$allocator@URoundInfo@@@std@@@std@@@std@@QBE_NABV01@@Z PROC ; std::_Vector_const_iterator<std::_Vector_val<RoundInfo,std::allocator<RoundInfo> > >::operator==, COMDAT
; _this$ = ecx

; 201  : 		{	// test for iterator equality

  00000	55		 push	 ebp
  00001	8b ec		 mov	 ebp, esp

; 202  : 		_Compat(_Right);
; 203  : 		return (this->_Ptr == _Right._Ptr);

  00003	8b 01		 mov	 eax, DWORD PTR [ecx]
  00005	8b 4d 08	 mov	 ecx, DWORD PTR __Right$[ebp]
  00008	2b 01		 sub	 eax, DWORD PTR [ecx]
  0000a	f7 d8		 neg	 eax
  0000c	1b c0		 sbb	 eax, eax
  0000e	40		 inc	 eax

; 204  : 		}

  0000f	5d		 pop	 ebp
  00010	c2 04 00	 ret	 4
??8?$_Vector_const_iterator@V?$_Vector_val@URoundInfo@@V?$allocator@URoundInfo@@@std@@@std@@@std@@QBE_NABV01@@Z ENDP ; std::_Vector_const_iterator<std::_Vector_val<RoundInfo,std::allocator<RoundInfo> > >::operator==
_TEXT	ENDS
PUBLIC	?allocate@?$allocator@URoundInfo@@@std@@QAEPAURoundInfo@@I@Z ; std::allocator<RoundInfo>::allocate
; Function compile flags: /Ogsp
; File c:\program files (x86)\microsoft visual studio 10.0\vc\include\xmemory
;	COMDAT ?allocate@?$allocator@URoundInfo@@@std@@QAEPAURoundInfo@@I@Z
_TEXT	SEGMENT
__Count$ = 8						; size = 4
?allocate@?$allocator@URoundInfo@@@std@@QAEPAURoundInfo@@I@Z PROC ; std::allocator<RoundInfo>::allocate, COMDAT
; _this$ = ecx

; 186  : 		{	// allocate array of _Count elements

  00000	55		 push	 ebp
  00001	8b ec		 mov	 ebp, esp

; 187  : 		return (_Allocate(_Count, (pointer)0));

  00003	6a 00		 push	 0
  00005	ff 75 08	 push	 DWORD PTR __Count$[ebp]
  00008	e8 00 00 00 00	 call	 ??$_Allocate@URoundInfo@@@std@@YAPAURoundInfo@@IPAU1@@Z ; std::_Allocate<RoundInfo>
  0000d	59		 pop	 ecx
  0000e	59		 pop	 ecx

; 188  : 		}

  0000f	5d		 pop	 ebp
  00010	c2 04 00	 ret	 4
?allocate@?$allocator@URoundInfo@@@std@@QAEPAURoundInfo@@I@Z ENDP ; std::allocator<RoundInfo>::allocate
_TEXT	ENDS
PUBLIC	__$ArrayPad$
PUBLIC	??$?8$08@@YA_NABVioHashString@@AAY08$$CBD@Z	; operator==<9>
EXTRN	__imp_?c_str@ioHashString@@QBEPBDXZ:PROC
; Function compile flags: /Ogsp
; File d:\lost saga for developer\youtube\tutorial\source\src\io3dengine\iohashstring.h
;	COMDAT ??$?8$08@@YA_NABVioHashString@@AAY08$$CBD@Z
_TEXT	SEGMENT
__t$ = -20						; size = 9
__$ArrayPad$ = -4					; size = 4
_lhs$ = 8						; size = 4
_t$ = 12						; size = 4
??$?8$08@@YA_NABVioHashString@@AAY08$$CBD@Z PROC	; operator==<9>, COMDAT

; 146  : {

  00000	55		 push	 ebp
  00001	8b ec		 mov	 ebp, esp
  00003	83 ec 14	 sub	 esp, 20			; 00000014H
  00006	a1 00 00 00 00	 mov	 eax, DWORD PTR ___security_cookie
  0000b	33 c5		 xor	 eax, ebp
  0000d	89 45 fc	 mov	 DWORD PTR __$ArrayPad$[ebp], eax
  00010	8b 45 0c	 mov	 eax, DWORD PTR _t$[ebp]

; 147  : 	_ENCSTR(t, _t); return ( strcmp( lhs.c_str(), _t ) == 0 );

  00013	8a 10		 mov	 dl, BYTE PTR [eax]
  00015	8b 4d 08	 mov	 ecx, DWORD PTR _lhs$[ebp]
  00018	84 d2		 test	 dl, dl
  0001a	0f 84 ee 00 00
	00		 je	 $LN96@operator@2
  00020	80 f2 ed	 xor	 dl, -19			; ffffffedH
  00023	88 55 ec	 mov	 BYTE PTR __t$[ebp], dl
  00026	8a 50 01	 mov	 dl, BYTE PTR [eax+1]
  00029	84 d2		 test	 dl, dl
  0002b	0f 84 d7 00 00
	00		 je	 $LN95@operator@2
  00031	80 f2 ec	 xor	 dl, -20			; ffffffecH
  00034	88 55 ed	 mov	 BYTE PTR __t$[ebp+1], dl
  00037	8a 50 02	 mov	 dl, BYTE PTR [eax+2]
  0003a	84 d2		 test	 dl, dl
  0003c	0f 84 c0 00 00
	00		 je	 $LN94@operator@2
  00042	80 f2 eb	 xor	 dl, -21			; ffffffebH
  00045	88 55 ee	 mov	 BYTE PTR __t$[ebp+2], dl
  00048	8a 50 03	 mov	 dl, BYTE PTR [eax+3]
  0004b	84 d2		 test	 dl, dl
  0004d	0f 84 a9 00 00
	00		 je	 $LN93@operator@2
  00053	80 f2 ea	 xor	 dl, -22			; ffffffeaH
  00056	88 55 ef	 mov	 BYTE PTR __t$[ebp+3], dl
  00059	8a 50 04	 mov	 dl, BYTE PTR [eax+4]
  0005c	84 d2		 test	 dl, dl
  0005e	0f 84 92 00 00
	00		 je	 $LN92@operator@2
  00064	80 f2 ed	 xor	 dl, -19			; ffffffedH
  00067	88 55 f0	 mov	 BYTE PTR __t$[ebp+4], dl
  0006a	8a 50 05	 mov	 dl, BYTE PTR [eax+5]
  0006d	84 d2		 test	 dl, dl
  0006f	74 7f		 je	 SHORT $LN91@operator@2
  00071	80 f2 ec	 xor	 dl, -20			; ffffffecH
  00074	88 55 f1	 mov	 BYTE PTR __t$[ebp+5], dl
  00077	8a 50 06	 mov	 dl, BYTE PTR [eax+6]
  0007a	84 d2		 test	 dl, dl
  0007c	74 6c		 je	 SHORT $LN90@operator@2
  0007e	80 f2 eb	 xor	 dl, -21			; ffffffebH
  00081	88 55 f2	 mov	 BYTE PTR __t$[ebp+6], dl
  00084	8a 50 07	 mov	 dl, BYTE PTR [eax+7]
  00087	84 d2		 test	 dl, dl
  00089	74 59		 je	 SHORT $LN89@operator@2
  0008b	80 f2 ea	 xor	 dl, -22			; ffffffeaH
  0008e	80 78 08 00	 cmp	 BYTE PTR [eax+8], 0
  00092	88 55 f3	 mov	 BYTE PTR __t$[ebp+7], dl
  00095	74 7b		 je	 SHORT $LN1@operator@2
  00097	8a 50 09	 mov	 dl, BYTE PTR [eax+9]
  0009a	84 d2		 test	 dl, dl
  0009c	74 40		 je	 SHORT $LN87@operator@2
  0009e	80 f2 ec	 xor	 dl, -20			; ffffffecH
  000a1	88 55 f5	 mov	 BYTE PTR __t$[ebp+9], dl
  000a4	8a 50 0a	 mov	 dl, BYTE PTR [eax+10]
  000a7	84 d2		 test	 dl, dl
  000a9	74 2d		 je	 SHORT $LN86@operator@2
  000ab	80 f2 eb	 xor	 dl, -21			; ffffffebH
  000ae	88 55 f6	 mov	 BYTE PTR __t$[ebp+10], dl
  000b1	8a 50 0b	 mov	 dl, BYTE PTR [eax+11]
  000b4	84 d2		 test	 dl, dl
  000b6	74 1a		 je	 SHORT $LN85@operator@2
  000b8	8a 40 0c	 mov	 al, BYTE PTR [eax+12]
  000bb	80 f2 ea	 xor	 dl, -22			; ffffffeaH
  000be	88 55 f7	 mov	 BYTE PTR __t$[ebp+11], dl
  000c1	84 c0		 test	 al, al
  000c3	74 07		 je	 SHORT $LN84@operator@2
  000c5	34 ed		 xor	 al, -19			; ffffffedH
  000c7	88 45 f8	 mov	 BYTE PTR __t$[ebp+12], al
  000ca	eb 46		 jmp	 SHORT $LN1@operator@2
$LN84@operator@2:
  000cc	c6 45 f8 ed	 mov	 BYTE PTR __t$[ebp+12], -19 ; ffffffedH
  000d0	eb 40		 jmp	 SHORT $LN1@operator@2
$LN85@operator@2:
  000d2	c6 45 f7 ea	 mov	 BYTE PTR __t$[ebp+11], -22 ; ffffffeaH
  000d6	eb 3a		 jmp	 SHORT $LN1@operator@2
$LN86@operator@2:
  000d8	c6 45 f6 eb	 mov	 BYTE PTR __t$[ebp+10], -21 ; ffffffebH
  000dc	eb 34		 jmp	 SHORT $LN1@operator@2
$LN87@operator@2:
  000de	c6 45 f5 ec	 mov	 BYTE PTR __t$[ebp+9], -20 ; ffffffecH
  000e2	eb 2e		 jmp	 SHORT $LN1@operator@2
$LN89@operator@2:
  000e4	c6 45 f3 ea	 mov	 BYTE PTR __t$[ebp+7], -22 ; ffffffeaH
  000e8	eb 28		 jmp	 SHORT $LN1@operator@2
$LN90@operator@2:
  000ea	c6 45 f2 eb	 mov	 BYTE PTR __t$[ebp+6], -21 ; ffffffebH
  000ee	eb 22		 jmp	 SHORT $LN1@operator@2
$LN91@operator@2:
  000f0	c6 45 f1 ec	 mov	 BYTE PTR __t$[ebp+5], -20 ; ffffffecH
  000f4	eb 1c		 jmp	 SHORT $LN1@operator@2
$LN92@operator@2:
  000f6	c6 45 f0 ed	 mov	 BYTE PTR __t$[ebp+4], -19 ; ffffffedH
  000fa	eb 16		 jmp	 SHORT $LN1@operator@2
$LN93@operator@2:
  000fc	c6 45 ef ea	 mov	 BYTE PTR __t$[ebp+3], -22 ; ffffffeaH
  00100	eb 10		 jmp	 SHORT $LN1@operator@2
$LN94@operator@2:
  00102	c6 45 ee eb	 mov	 BYTE PTR __t$[ebp+2], -21 ; ffffffebH
  00106	eb 0a		 jmp	 SHORT $LN1@operator@2
$LN95@operator@2:
  00108	c6 45 ed ec	 mov	 BYTE PTR __t$[ebp+1], -20 ; ffffffecH
  0010c	eb 04		 jmp	 SHORT $LN1@operator@2
$LN96@operator@2:
  0010e	c6 45 ec ed	 mov	 BYTE PTR __t$[ebp], -19	; ffffffedH
$LN1@operator@2:
  00112	6a 02		 push	 2
  00114	8d 45 ec	 lea	 eax, DWORD PTR __t$[ebp]
  00117	c6 45 f4 00	 mov	 BYTE PTR __t$[ebp+8], 0
  0011b	5a		 pop	 edx
$LL104@operator@2:
  0011c	81 30 ed ec eb
	ea		 xor	 DWORD PTR [eax], -353637139 ; eaebecedH
  00122	83 c0 04	 add	 eax, 4
  00125	4a		 dec	 edx
  00126	75 f4		 jne	 SHORT $LL104@operator@2
  00128	56		 push	 esi
  00129	8d 75 ec	 lea	 esi, DWORD PTR __t$[ebp]
  0012c	ff 15 00 00 00
	00		 call	 DWORD PTR __imp_?c_str@ioHashString@@QBEPBDXZ
$LL111@operator@2:
  00132	8a 08		 mov	 cl, BYTE PTR [eax]
  00134	3a 0e		 cmp	 cl, BYTE PTR [esi]
  00136	75 1a		 jne	 SHORT $LN112@operator@2
  00138	84 c9		 test	 cl, cl
  0013a	74 12		 je	 SHORT $LN113@operator@2
  0013c	8a 48 01	 mov	 cl, BYTE PTR [eax+1]
  0013f	3a 4e 01	 cmp	 cl, BYTE PTR [esi+1]
  00142	75 0e		 jne	 SHORT $LN112@operator@2
  00144	83 c0 02	 add	 eax, 2
  00147	83 c6 02	 add	 esi, 2
  0014a	84 c9		 test	 cl, cl
  0014c	75 e4		 jne	 SHORT $LL111@operator@2
$LN113@operator@2:
  0014e	33 c0		 xor	 eax, eax
  00150	eb 05		 jmp	 SHORT $LN114@operator@2
$LN112@operator@2:
  00152	1b c0		 sbb	 eax, eax
  00154	83 d8 ff	 sbb	 eax, -1
$LN114@operator@2:
  00157	33 c9		 xor	 ecx, ecx
  00159	85 c0		 test	 eax, eax
  0015b	0f 94 c0	 sete	 al

; 148  : }

  0015e	8b 4d fc	 mov	 ecx, DWORD PTR __$ArrayPad$[ebp]
  00161	33 cd		 xor	 ecx, ebp
  00163	5e		 pop	 esi
  00164	e8 00 00 00 00	 call	 @__security_check_cookie@4
  00169	c9		 leave
  0016a	c3		 ret	 0
??$?8$08@@YA_NABVioHashString@@AAY08$$CBD@Z ENDP	; operator==<9>
_TEXT	ENDS
PUBLIC	__$ArrayPad$
PUBLIC	??$?8$07@@YA_NABVioHashString@@AAY07$$CBD@Z	; operator==<8>
; Function compile flags: /Ogsp
;	COMDAT ??$?8$07@@YA_NABVioHashString@@AAY07$$CBD@Z
_TEXT	SEGMENT
__t$ = -16						; size = 8
__$ArrayPad$ = -4					; size = 4
_lhs$ = 8						; size = 4
_t$ = 12						; size = 4
??$?8$07@@YA_NABVioHashString@@AAY07$$CBD@Z PROC	; operator==<8>, COMDAT

; 146  : {

  00000	55		 push	 ebp
  00001	8b ec		 mov	 ebp, esp
  00003	83 ec 10	 sub	 esp, 16			; 00000010H
  00006	a1 00 00 00 00	 mov	 eax, DWORD PTR ___security_cookie
  0000b	33 c5		 xor	 eax, ebp
  0000d	89 45 fc	 mov	 DWORD PTR __$ArrayPad$[ebp], eax
  00010	8b 45 0c	 mov	 eax, DWORD PTR _t$[ebp]

; 147  : 	_ENCSTR(t, _t); return ( strcmp( lhs.c_str(), _t ) == 0 );

  00013	8a 10		 mov	 dl, BYTE PTR [eax]
  00015	56		 push	 esi
  00016	57		 push	 edi
  00017	8b 7d 08	 mov	 edi, DWORD PTR _lhs$[ebp]
  0001a	84 d2		 test	 dl, dl
  0001c	0f 84 d7 00 00
	00		 je	 $LN96@operator@3
  00022	80 f2 ed	 xor	 dl, -19			; ffffffedH
  00025	88 55 f0	 mov	 BYTE PTR __t$[ebp], dl
  00028	8a 50 01	 mov	 dl, BYTE PTR [eax+1]
  0002b	84 d2		 test	 dl, dl
  0002d	0f 84 c0 00 00
	00		 je	 $LN95@operator@3
  00033	80 f2 ec	 xor	 dl, -20			; ffffffecH
  00036	88 55 f1	 mov	 BYTE PTR __t$[ebp+1], dl
  00039	8a 50 02	 mov	 dl, BYTE PTR [eax+2]
  0003c	84 d2		 test	 dl, dl
  0003e	0f 84 a9 00 00
	00		 je	 $LN94@operator@3
  00044	80 f2 eb	 xor	 dl, -21			; ffffffebH
  00047	88 55 f2	 mov	 BYTE PTR __t$[ebp+2], dl
  0004a	8a 50 03	 mov	 dl, BYTE PTR [eax+3]
  0004d	84 d2		 test	 dl, dl
  0004f	0f 84 92 00 00
	00		 je	 $LN93@operator@3
  00055	80 f2 ea	 xor	 dl, -22			; ffffffeaH
  00058	88 55 f3	 mov	 BYTE PTR __t$[ebp+3], dl
  0005b	8a 50 04	 mov	 dl, BYTE PTR [eax+4]
  0005e	84 d2		 test	 dl, dl
  00060	74 7f		 je	 SHORT $LN92@operator@3
  00062	80 f2 ed	 xor	 dl, -19			; ffffffedH
  00065	88 55 f4	 mov	 BYTE PTR __t$[ebp+4], dl
  00068	8a 50 05	 mov	 dl, BYTE PTR [eax+5]
  0006b	84 d2		 test	 dl, dl
  0006d	74 6c		 je	 SHORT $LN91@operator@3
  0006f	80 f2 ec	 xor	 dl, -20			; ffffffecH
  00072	88 55 f5	 mov	 BYTE PTR __t$[ebp+5], dl
  00075	8a 50 06	 mov	 dl, BYTE PTR [eax+6]
  00078	84 d2		 test	 dl, dl
  0007a	74 59		 je	 SHORT $LN90@operator@3
  0007c	80 f2 eb	 xor	 dl, -21			; ffffffebH
  0007f	80 78 07 00	 cmp	 BYTE PTR [eax+7], 0
  00083	88 55 f6	 mov	 BYTE PTR __t$[ebp+6], dl
  00086	74 75		 je	 SHORT $LN1@operator@3
  00088	8a 50 08	 mov	 dl, BYTE PTR [eax+8]
  0008b	84 d2		 test	 dl, dl
  0008d	74 40		 je	 SHORT $LN88@operator@3
  0008f	80 f2 ed	 xor	 dl, -19			; ffffffedH
  00092	88 55 f8	 mov	 BYTE PTR __t$[ebp+8], dl
  00095	8a 50 09	 mov	 dl, BYTE PTR [eax+9]
  00098	84 d2		 test	 dl, dl
  0009a	74 2d		 je	 SHORT $LN87@operator@3
  0009c	80 f2 ec	 xor	 dl, -20			; ffffffecH
  0009f	88 55 f9	 mov	 BYTE PTR __t$[ebp+9], dl
  000a2	8a 50 0a	 mov	 dl, BYTE PTR [eax+10]
  000a5	84 d2		 test	 dl, dl
  000a7	74 1a		 je	 SHORT $LN86@operator@3
  000a9	8a 40 0b	 mov	 al, BYTE PTR [eax+11]
  000ac	80 f2 eb	 xor	 dl, -21			; ffffffebH
  000af	88 55 fa	 mov	 BYTE PTR __t$[ebp+10], dl
  000b2	84 c0		 test	 al, al
  000b4	74 07		 je	 SHORT $LN85@operator@3
  000b6	34 ea		 xor	 al, -22			; ffffffeaH
  000b8	88 45 fb	 mov	 BYTE PTR __t$[ebp+11], al
  000bb	eb 40		 jmp	 SHORT $LN1@operator@3
$LN85@operator@3:
  000bd	c6 45 fb ea	 mov	 BYTE PTR __t$[ebp+11], -22 ; ffffffeaH
  000c1	eb 3a		 jmp	 SHORT $LN1@operator@3
$LN86@operator@3:
  000c3	c6 45 fa eb	 mov	 BYTE PTR __t$[ebp+10], -21 ; ffffffebH
  000c7	eb 34		 jmp	 SHORT $LN1@operator@3
$LN87@operator@3:
  000c9	c6 45 f9 ec	 mov	 BYTE PTR __t$[ebp+9], -20 ; ffffffecH
  000cd	eb 2e		 jmp	 SHORT $LN1@operator@3
$LN88@operator@3:
  000cf	c6 45 f8 ed	 mov	 BYTE PTR __t$[ebp+8], -19 ; ffffffedH
  000d3	eb 28		 jmp	 SHORT $LN1@operator@3
$LN90@operator@3:
  000d5	c6 45 f6 eb	 mov	 BYTE PTR __t$[ebp+6], -21 ; ffffffebH
  000d9	eb 22		 jmp	 SHORT $LN1@operator@3
$LN91@operator@3:
  000db	c6 45 f5 ec	 mov	 BYTE PTR __t$[ebp+5], -20 ; ffffffecH
  000df	eb 1c		 jmp	 SHORT $LN1@operator@3
$LN92@operator@3:
  000e1	c6 45 f4 ed	 mov	 BYTE PTR __t$[ebp+4], -19 ; ffffffedH
  000e5	eb 16		 jmp	 SHORT $LN1@operator@3
$LN93@operator@3:
  000e7	c6 45 f3 ea	 mov	 BYTE PTR __t$[ebp+3], -22 ; ffffffeaH
  000eb	eb 10		 jmp	 SHORT $LN1@operator@3
$LN94@operator@3:
  000ed	c6 45 f2 eb	 mov	 BYTE PTR __t$[ebp+2], -21 ; ffffffebH
  000f1	eb 0a		 jmp	 SHORT $LN1@operator@3
$LN95@operator@3:
  000f3	c6 45 f1 ec	 mov	 BYTE PTR __t$[ebp+1], -20 ; ffffffecH
  000f7	eb 04		 jmp	 SHORT $LN1@operator@3
$LN96@operator@3:
  000f9	c6 45 f0 ed	 mov	 BYTE PTR __t$[ebp], -19	; ffffffedH
$LN1@operator@3:
  000fd	81 75 f0 ed ec
	eb ea		 xor	 DWORD PTR __t$[ebp], -353637139 ; eaebecedH
  00104	6a 04		 push	 4
  00106	c6 45 f7 00	 mov	 BYTE PTR __t$[ebp+7], 0
  0010a	58		 pop	 eax
$LL101@operator@3:
  0010b	8b c8		 mov	 ecx, eax
  0010d	81 e1 03 00 00
	80		 and	 ecx, -2147483645	; 80000003H
  00113	79 05		 jns	 SHORT $LN115@operator@3
  00115	49		 dec	 ecx
  00116	83 c9 fc	 or	 ecx, -4			; fffffffcH
  00119	41		 inc	 ecx
$LN115@operator@3:
  0011a	b2 ed		 mov	 dl, -19			; ffffffedH
  0011c	2a d1		 sub	 dl, cl
  0011e	30 54 05 f0	 xor	 BYTE PTR __t$[ebp+eax], dl
  00122	40		 inc	 eax
  00123	83 f8 07	 cmp	 eax, 7
  00126	7c e3		 jl	 SHORT $LL101@operator@3
  00128	8b cf		 mov	 ecx, edi
  0012a	8d 75 f0	 lea	 esi, DWORD PTR __t$[ebp]
  0012d	ff 15 00 00 00
	00		 call	 DWORD PTR __imp_?c_str@ioHashString@@QBEPBDXZ
$LL111@operator@3:
  00133	8a 08		 mov	 cl, BYTE PTR [eax]
  00135	3a 0e		 cmp	 cl, BYTE PTR [esi]
  00137	75 1a		 jne	 SHORT $LN112@operator@3
  00139	84 c9		 test	 cl, cl
  0013b	74 12		 je	 SHORT $LN113@operator@3
  0013d	8a 48 01	 mov	 cl, BYTE PTR [eax+1]
  00140	3a 4e 01	 cmp	 cl, BYTE PTR [esi+1]
  00143	75 0e		 jne	 SHORT $LN112@operator@3
  00145	83 c0 02	 add	 eax, 2
  00148	83 c6 02	 add	 esi, 2
  0014b	84 c9		 test	 cl, cl
  0014d	75 e4		 jne	 SHORT $LL111@operator@3
$LN113@operator@3:
  0014f	33 c0		 xor	 eax, eax
  00151	eb 05		 jmp	 SHORT $LN114@operator@3
$LN112@operator@3:
  00153	1b c0		 sbb	 eax, eax
  00155	83 d8 ff	 sbb	 eax, -1
$LN114@operator@3:
  00158	33 c9		 xor	 ecx, ecx
  0015a	85 c0		 test	 eax, eax
  0015c	0f 94 c0	 sete	 al

; 148  : }

  0015f	8b 4d fc	 mov	 ecx, DWORD PTR __$ArrayPad$[ebp]
  00162	5f		 pop	 edi
  00163	33 cd		 xor	 ecx, ebp
  00165	5e		 pop	 esi
  00166	e8 00 00 00 00	 call	 @__security_check_cookie@4
  0016b	c9		 leave
  0016c	c3		 ret	 0
??$?8$07@@YA_NABVioHashString@@AAY07$$CBD@Z ENDP	; operator==<8>
_TEXT	ENDS
PUBLIC	__$ArrayPad$
PUBLIC	??$?8$09@@YA_NABVioHashString@@AAY09$$CBD@Z	; operator==<10>
; Function compile flags: /Ogsp
;	COMDAT ??$?8$09@@YA_NABVioHashString@@AAY09$$CBD@Z
_TEXT	SEGMENT
__t$ = -20						; size = 10
__$ArrayPad$ = -4					; size = 4
_lhs$ = 8						; size = 4
_t$ = 12						; size = 4
??$?8$09@@YA_NABVioHashString@@AAY09$$CBD@Z PROC	; operator==<10>, COMDAT

; 146  : {

  00000	55		 push	 ebp
  00001	8b ec		 mov	 ebp, esp
  00003	83 ec 14	 sub	 esp, 20			; 00000014H
  00006	a1 00 00 00 00	 mov	 eax, DWORD PTR ___security_cookie
  0000b	33 c5		 xor	 eax, ebp
  0000d	89 45 fc	 mov	 DWORD PTR __$ArrayPad$[ebp], eax
  00010	8b 45 0c	 mov	 eax, DWORD PTR _t$[ebp]

; 147  : 	_ENCSTR(t, _t); return ( strcmp( lhs.c_str(), _t ) == 0 );

  00013	8a 10		 mov	 dl, BYTE PTR [eax]
  00015	8b 4d 08	 mov	 ecx, DWORD PTR _lhs$[ebp]
  00018	84 d2		 test	 dl, dl
  0001a	0f 84 0d 01 00
	00		 je	 $LN96@operator@4
  00020	80 f2 ed	 xor	 dl, -19			; ffffffedH
  00023	88 55 ec	 mov	 BYTE PTR __t$[ebp], dl
  00026	8a 50 01	 mov	 dl, BYTE PTR [eax+1]
  00029	84 d2		 test	 dl, dl
  0002b	0f 84 f6 00 00
	00		 je	 $LN95@operator@4
  00031	80 f2 ec	 xor	 dl, -20			; ffffffecH
  00034	88 55 ed	 mov	 BYTE PTR __t$[ebp+1], dl
  00037	8a 50 02	 mov	 dl, BYTE PTR [eax+2]
  0003a	84 d2		 test	 dl, dl
  0003c	0f 84 df 00 00
	00		 je	 $LN94@operator@4
  00042	80 f2 eb	 xor	 dl, -21			; ffffffebH
  00045	88 55 ee	 mov	 BYTE PTR __t$[ebp+2], dl
  00048	8a 50 03	 mov	 dl, BYTE PTR [eax+3]
  0004b	84 d2		 test	 dl, dl
  0004d	0f 84 c8 00 00
	00		 je	 $LN93@operator@4
  00053	80 f2 ea	 xor	 dl, -22			; ffffffeaH
  00056	88 55 ef	 mov	 BYTE PTR __t$[ebp+3], dl
  00059	8a 50 04	 mov	 dl, BYTE PTR [eax+4]
  0005c	84 d2		 test	 dl, dl
  0005e	0f 84 b1 00 00
	00		 je	 $LN92@operator@4
  00064	80 f2 ed	 xor	 dl, -19			; ffffffedH
  00067	88 55 f0	 mov	 BYTE PTR __t$[ebp+4], dl
  0006a	8a 50 05	 mov	 dl, BYTE PTR [eax+5]
  0006d	84 d2		 test	 dl, dl
  0006f	0f 84 9a 00 00
	00		 je	 $LN91@operator@4
  00075	80 f2 ec	 xor	 dl, -20			; ffffffecH
  00078	88 55 f1	 mov	 BYTE PTR __t$[ebp+5], dl
  0007b	8a 50 06	 mov	 dl, BYTE PTR [eax+6]
  0007e	84 d2		 test	 dl, dl
  00080	0f 84 83 00 00
	00		 je	 $LN90@operator@4
  00086	80 f2 eb	 xor	 dl, -21			; ffffffebH
  00089	88 55 f2	 mov	 BYTE PTR __t$[ebp+6], dl
  0008c	8a 50 07	 mov	 dl, BYTE PTR [eax+7]
  0008f	84 d2		 test	 dl, dl
  00091	74 70		 je	 SHORT $LN89@operator@4
  00093	80 f2 ea	 xor	 dl, -22			; ffffffeaH
  00096	88 55 f3	 mov	 BYTE PTR __t$[ebp+7], dl
  00099	8a 50 08	 mov	 dl, BYTE PTR [eax+8]
  0009c	84 d2		 test	 dl, dl
  0009e	74 5d		 je	 SHORT $LN88@operator@4
  000a0	80 f2 ed	 xor	 dl, -19			; ffffffedH
  000a3	80 78 09 00	 cmp	 BYTE PTR [eax+9], 0
  000a7	88 55 f4	 mov	 BYTE PTR __t$[ebp+8], dl
  000aa	0f 84 81 00 00
	00		 je	 $LN1@operator@4
  000b0	8a 50 0a	 mov	 dl, BYTE PTR [eax+10]
  000b3	84 d2		 test	 dl, dl
  000b5	74 40		 je	 SHORT $LN86@operator@4
  000b7	80 f2 eb	 xor	 dl, -21			; ffffffebH
  000ba	88 55 f6	 mov	 BYTE PTR __t$[ebp+10], dl
  000bd	8a 50 0b	 mov	 dl, BYTE PTR [eax+11]
  000c0	84 d2		 test	 dl, dl
  000c2	74 2d		 je	 SHORT $LN85@operator@4
  000c4	80 f2 ea	 xor	 dl, -22			; ffffffeaH
  000c7	88 55 f7	 mov	 BYTE PTR __t$[ebp+11], dl
  000ca	8a 50 0c	 mov	 dl, BYTE PTR [eax+12]
  000cd	84 d2		 test	 dl, dl
  000cf	74 1a		 je	 SHORT $LN84@operator@4
  000d1	8a 40 0d	 mov	 al, BYTE PTR [eax+13]
  000d4	80 f2 ed	 xor	 dl, -19			; ffffffedH
  000d7	88 55 f8	 mov	 BYTE PTR __t$[ebp+12], dl
  000da	84 c0		 test	 al, al
  000dc	74 07		 je	 SHORT $LN83@operator@4
  000de	34 ec		 xor	 al, -20			; ffffffecH
  000e0	88 45 f9	 mov	 BYTE PTR __t$[ebp+13], al
  000e3	eb 4c		 jmp	 SHORT $LN1@operator@4
$LN83@operator@4:
  000e5	c6 45 f9 ec	 mov	 BYTE PTR __t$[ebp+13], -20 ; ffffffecH
  000e9	eb 46		 jmp	 SHORT $LN1@operator@4
$LN84@operator@4:
  000eb	c6 45 f8 ed	 mov	 BYTE PTR __t$[ebp+12], -19 ; ffffffedH
  000ef	eb 40		 jmp	 SHORT $LN1@operator@4
$LN85@operator@4:
  000f1	c6 45 f7 ea	 mov	 BYTE PTR __t$[ebp+11], -22 ; ffffffeaH
  000f5	eb 3a		 jmp	 SHORT $LN1@operator@4
$LN86@operator@4:
  000f7	c6 45 f6 eb	 mov	 BYTE PTR __t$[ebp+10], -21 ; ffffffebH
  000fb	eb 34		 jmp	 SHORT $LN1@operator@4
$LN88@operator@4:
  000fd	c6 45 f4 ed	 mov	 BYTE PTR __t$[ebp+8], -19 ; ffffffedH
  00101	eb 2e		 jmp	 SHORT $LN1@operator@4
$LN89@operator@4:
  00103	c6 45 f3 ea	 mov	 BYTE PTR __t$[ebp+7], -22 ; ffffffeaH
  00107	eb 28		 jmp	 SHORT $LN1@operator@4
$LN90@operator@4:
  00109	c6 45 f2 eb	 mov	 BYTE PTR __t$[ebp+6], -21 ; ffffffebH
  0010d	eb 22		 jmp	 SHORT $LN1@operator@4
$LN91@operator@4:
  0010f	c6 45 f1 ec	 mov	 BYTE PTR __t$[ebp+5], -20 ; ffffffecH
  00113	eb 1c		 jmp	 SHORT $LN1@operator@4
$LN92@operator@4:
  00115	c6 45 f0 ed	 mov	 BYTE PTR __t$[ebp+4], -19 ; ffffffedH
  00119	eb 16		 jmp	 SHORT $LN1@operator@4
$LN93@operator@4:
  0011b	c6 45 ef ea	 mov	 BYTE PTR __t$[ebp+3], -22 ; ffffffeaH
  0011f	eb 10		 jmp	 SHORT $LN1@operator@4
$LN94@operator@4:
  00121	c6 45 ee eb	 mov	 BYTE PTR __t$[ebp+2], -21 ; ffffffebH
  00125	eb 0a		 jmp	 SHORT $LN1@operator@4
$LN95@operator@4:
  00127	c6 45 ed ec	 mov	 BYTE PTR __t$[ebp+1], -20 ; ffffffecH
  0012b	eb 04		 jmp	 SHORT $LN1@operator@4
$LN96@operator@4:
  0012d	c6 45 ec ed	 mov	 BYTE PTR __t$[ebp], -19	; ffffffedH
$LN1@operator@4:
  00131	6a 02		 push	 2
  00133	8d 45 ec	 lea	 eax, DWORD PTR __t$[ebp]
  00136	c6 45 f5 00	 mov	 BYTE PTR __t$[ebp+9], 0
  0013a	5a		 pop	 edx
$LL104@operator@4:
  0013b	81 30 ed ec eb
	ea		 xor	 DWORD PTR [eax], -353637139 ; eaebecedH
  00141	83 c0 04	 add	 eax, 4
  00144	4a		 dec	 edx
  00145	75 f4		 jne	 SHORT $LL104@operator@4
  00147	80 75 f4 ed	 xor	 BYTE PTR __t$[ebp+8], -19 ; ffffffedH
  0014b	56		 push	 esi
  0014c	8d 75 ec	 lea	 esi, DWORD PTR __t$[ebp]
  0014f	ff 15 00 00 00
	00		 call	 DWORD PTR __imp_?c_str@ioHashString@@QBEPBDXZ
$LL111@operator@4:
  00155	8a 08		 mov	 cl, BYTE PTR [eax]
  00157	3a 0e		 cmp	 cl, BYTE PTR [esi]
  00159	75 1a		 jne	 SHORT $LN112@operator@4
  0015b	84 c9		 test	 cl, cl
  0015d	74 12		 je	 SHORT $LN113@operator@4
  0015f	8a 48 01	 mov	 cl, BYTE PTR [eax+1]
  00162	3a 4e 01	 cmp	 cl, BYTE PTR [esi+1]
  00165	75 0e		 jne	 SHORT $LN112@operator@4
  00167	83 c0 02	 add	 eax, 2
  0016a	83 c6 02	 add	 esi, 2
  0016d	84 c9		 test	 cl, cl
  0016f	75 e4		 jne	 SHORT $LL111@operator@4
$LN113@operator@4:
  00171	33 c0		 xor	 eax, eax
  00173	eb 05		 jmp	 SHORT $LN114@operator@4
$LN112@operator@4:
  00175	1b c0		 sbb	 eax, eax
  00177	83 d8 ff	 sbb	 eax, -1
$LN114@operator@4:
  0017a	33 c9		 xor	 ecx, ecx
  0017c	85 c0		 test	 eax, eax
  0017e	0f 94 c0	 sete	 al

; 148  : }

  00181	8b 4d fc	 mov	 ecx, DWORD PTR __$ArrayPad$[ebp]
  00184	33 cd		 xor	 ecx, ebp
  00186	5e		 pop	 esi
  00187	e8 00 00 00 00	 call	 @__security_check_cookie@4
  0018c	c9		 leave
  0018d	c3		 ret	 0
??$?8$09@@YA_NABVioHashString@@AAY09$$CBD@Z ENDP	; operator==<10>
_TEXT	ENDS
PUBLIC	__$ArrayPad$
PUBLIC	??$?8$06@@YA_NABVioHashString@@AAY06$$CBD@Z	; operator==<7>
; Function compile flags: /Ogsp
;	COMDAT ??$?8$06@@YA_NABVioHashString@@AAY06$$CBD@Z
_TEXT	SEGMENT
__t$ = -16						; size = 7
__$ArrayPad$ = -4					; size = 4
_lhs$ = 8						; size = 4
_t$ = 12						; size = 4
??$?8$06@@YA_NABVioHashString@@AAY06$$CBD@Z PROC	; operator==<7>, COMDAT

; 146  : {

  00000	55		 push	 ebp
  00001	8b ec		 mov	 ebp, esp
  00003	83 ec 10	 sub	 esp, 16			; 00000010H
  00006	a1 00 00 00 00	 mov	 eax, DWORD PTR ___security_cookie
  0000b	33 c5		 xor	 eax, ebp
  0000d	89 45 fc	 mov	 DWORD PTR __$ArrayPad$[ebp], eax
  00010	8b 45 0c	 mov	 eax, DWORD PTR _t$[ebp]

; 147  : 	_ENCSTR(t, _t); return ( strcmp( lhs.c_str(), _t ) == 0 );

  00013	8a 10		 mov	 dl, BYTE PTR [eax]
  00015	56		 push	 esi
  00016	57		 push	 edi
  00017	8b 7d 08	 mov	 edi, DWORD PTR _lhs$[ebp]
  0001a	84 d2		 test	 dl, dl
  0001c	0f 84 c0 00 00
	00		 je	 $LN96@operator@5
  00022	80 f2 ed	 xor	 dl, -19			; ffffffedH
  00025	88 55 f0	 mov	 BYTE PTR __t$[ebp], dl
  00028	8a 50 01	 mov	 dl, BYTE PTR [eax+1]
  0002b	84 d2		 test	 dl, dl
  0002d	0f 84 a9 00 00
	00		 je	 $LN95@operator@5
  00033	80 f2 ec	 xor	 dl, -20			; ffffffecH
  00036	88 55 f1	 mov	 BYTE PTR __t$[ebp+1], dl
  00039	8a 50 02	 mov	 dl, BYTE PTR [eax+2]
  0003c	84 d2		 test	 dl, dl
  0003e	0f 84 92 00 00
	00		 je	 $LN94@operator@5
  00044	80 f2 eb	 xor	 dl, -21			; ffffffebH
  00047	88 55 f2	 mov	 BYTE PTR __t$[ebp+2], dl
  0004a	8a 50 03	 mov	 dl, BYTE PTR [eax+3]
  0004d	84 d2		 test	 dl, dl
  0004f	74 7f		 je	 SHORT $LN93@operator@5
  00051	80 f2 ea	 xor	 dl, -22			; ffffffeaH
  00054	88 55 f3	 mov	 BYTE PTR __t$[ebp+3], dl
  00057	8a 50 04	 mov	 dl, BYTE PTR [eax+4]
  0005a	84 d2		 test	 dl, dl
  0005c	74 6c		 je	 SHORT $LN92@operator@5
  0005e	80 f2 ed	 xor	 dl, -19			; ffffffedH
  00061	88 55 f4	 mov	 BYTE PTR __t$[ebp+4], dl
  00064	8a 50 05	 mov	 dl, BYTE PTR [eax+5]
  00067	84 d2		 test	 dl, dl
  00069	74 59		 je	 SHORT $LN91@operator@5
  0006b	80 f2 ec	 xor	 dl, -20			; ffffffecH
  0006e	80 78 06 00	 cmp	 BYTE PTR [eax+6], 0
  00072	88 55 f5	 mov	 BYTE PTR __t$[ebp+5], dl
  00075	74 6f		 je	 SHORT $LN1@operator@5
  00077	8a 50 07	 mov	 dl, BYTE PTR [eax+7]
  0007a	84 d2		 test	 dl, dl
  0007c	74 40		 je	 SHORT $LN89@operator@5
  0007e	80 f2 ea	 xor	 dl, -22			; ffffffeaH
  00081	88 55 f7	 mov	 BYTE PTR __t$[ebp+7], dl
  00084	8a 50 08	 mov	 dl, BYTE PTR [eax+8]
  00087	84 d2		 test	 dl, dl
  00089	74 2d		 je	 SHORT $LN88@operator@5
  0008b	80 f2 ed	 xor	 dl, -19			; ffffffedH
  0008e	88 55 f8	 mov	 BYTE PTR __t$[ebp+8], dl
  00091	8a 50 09	 mov	 dl, BYTE PTR [eax+9]
  00094	84 d2		 test	 dl, dl
  00096	74 1a		 je	 SHORT $LN87@operator@5
  00098	8a 40 0a	 mov	 al, BYTE PTR [eax+10]
  0009b	80 f2 ec	 xor	 dl, -20			; ffffffecH
  0009e	88 55 f9	 mov	 BYTE PTR __t$[ebp+9], dl
  000a1	84 c0		 test	 al, al
  000a3	74 07		 je	 SHORT $LN86@operator@5
  000a5	34 eb		 xor	 al, -21			; ffffffebH
  000a7	88 45 fa	 mov	 BYTE PTR __t$[ebp+10], al
  000aa	eb 3a		 jmp	 SHORT $LN1@operator@5
$LN86@operator@5:
  000ac	c6 45 fa eb	 mov	 BYTE PTR __t$[ebp+10], -21 ; ffffffebH
  000b0	eb 34		 jmp	 SHORT $LN1@operator@5
$LN87@operator@5:
  000b2	c6 45 f9 ec	 mov	 BYTE PTR __t$[ebp+9], -20 ; ffffffecH
  000b6	eb 2e		 jmp	 SHORT $LN1@operator@5
$LN88@operator@5:
  000b8	c6 45 f8 ed	 mov	 BYTE PTR __t$[ebp+8], -19 ; ffffffedH
  000bc	eb 28		 jmp	 SHORT $LN1@operator@5
$LN89@operator@5:
  000be	c6 45 f7 ea	 mov	 BYTE PTR __t$[ebp+7], -22 ; ffffffeaH
  000c2	eb 22		 jmp	 SHORT $LN1@operator@5
$LN91@operator@5:
  000c4	c6 45 f5 ec	 mov	 BYTE PTR __t$[ebp+5], -20 ; ffffffecH
  000c8	eb 1c		 jmp	 SHORT $LN1@operator@5
$LN92@operator@5:
  000ca	c6 45 f4 ed	 mov	 BYTE PTR __t$[ebp+4], -19 ; ffffffedH
  000ce	eb 16		 jmp	 SHORT $LN1@operator@5
$LN93@operator@5:
  000d0	c6 45 f3 ea	 mov	 BYTE PTR __t$[ebp+3], -22 ; ffffffeaH
  000d4	eb 10		 jmp	 SHORT $LN1@operator@5
$LN94@operator@5:
  000d6	c6 45 f2 eb	 mov	 BYTE PTR __t$[ebp+2], -21 ; ffffffebH
  000da	eb 0a		 jmp	 SHORT $LN1@operator@5
$LN95@operator@5:
  000dc	c6 45 f1 ec	 mov	 BYTE PTR __t$[ebp+1], -20 ; ffffffecH
  000e0	eb 04		 jmp	 SHORT $LN1@operator@5
$LN96@operator@5:
  000e2	c6 45 f0 ed	 mov	 BYTE PTR __t$[ebp], -19	; ffffffedH
$LN1@operator@5:
  000e6	81 75 f0 ed ec
	eb ea		 xor	 DWORD PTR __t$[ebp], -353637139 ; eaebecedH
  000ed	6a 04		 push	 4
  000ef	c6 45 f6 00	 mov	 BYTE PTR __t$[ebp+6], 0
  000f3	58		 pop	 eax
$LL101@operator@5:
  000f4	8b c8		 mov	 ecx, eax
  000f6	81 e1 03 00 00
	80		 and	 ecx, -2147483645	; 80000003H
  000fc	79 05		 jns	 SHORT $LN115@operator@5
  000fe	49		 dec	 ecx
  000ff	83 c9 fc	 or	 ecx, -4			; fffffffcH
  00102	41		 inc	 ecx
$LN115@operator@5:
  00103	b2 ed		 mov	 dl, -19			; ffffffedH
  00105	2a d1		 sub	 dl, cl
  00107	30 54 05 f0	 xor	 BYTE PTR __t$[ebp+eax], dl
  0010b	40		 inc	 eax
  0010c	83 f8 06	 cmp	 eax, 6
  0010f	7c e3		 jl	 SHORT $LL101@operator@5
  00111	8b cf		 mov	 ecx, edi
  00113	8d 75 f0	 lea	 esi, DWORD PTR __t$[ebp]
  00116	ff 15 00 00 00
	00		 call	 DWORD PTR __imp_?c_str@ioHashString@@QBEPBDXZ
$LL111@operator@5:
  0011c	8a 08		 mov	 cl, BYTE PTR [eax]
  0011e	3a 0e		 cmp	 cl, BYTE PTR [esi]
  00120	75 1a		 jne	 SHORT $LN112@operator@5
  00122	84 c9		 test	 cl, cl
  00124	74 12		 je	 SHORT $LN113@operator@5
  00126	8a 48 01	 mov	 cl, BYTE PTR [eax+1]
  00129	3a 4e 01	 cmp	 cl, BYTE PTR [esi+1]
  0012c	75 0e		 jne	 SHORT $LN112@operator@5
  0012e	83 c0 02	 add	 eax, 2
  00131	83 c6 02	 add	 esi, 2
  00134	84 c9		 test	 cl, cl
  00136	75 e4		 jne	 SHORT $LL111@operator@5
$LN113@operator@5:
  00138	33 c0		 xor	 eax, eax
  0013a	eb 05		 jmp	 SHORT $LN114@operator@5
$LN112@operator@5:
  0013c	1b c0		 sbb	 eax, eax
  0013e	83 d8 ff	 sbb	 eax, -1
$LN114@operator@5:
  00141	33 c9		 xor	 ecx, ecx
  00143	85 c0		 test	 eax, eax
  00145	0f 94 c0	 sete	 al

; 148  : }

  00148	8b 4d fc	 mov	 ecx, DWORD PTR __$ArrayPad$[ebp]
  0014b	5f		 pop	 edi
  0014c	33 cd		 xor	 ecx, ebp
  0014e	5e		 pop	 esi
  0014f	e8 00 00 00 00	 call	 @__security_check_cookie@4
  00154	c9		 leave
  00155	c3		 ret	 0
??$?8$06@@YA_NABVioHashString@@AAY06$$CBD@Z ENDP	; operator==<7>
_TEXT	ENDS
PUBLIC	__$ArrayPad$
PUBLIC	??$?8$0M@@@YA_NABVioHashString@@AAY0M@$$CBD@Z	; operator==<12>
; Function compile flags: /Ogsp
;	COMDAT ??$?8$0M@@@YA_NABVioHashString@@AAY0M@$$CBD@Z
_TEXT	SEGMENT
__t$ = -20						; size = 12
__$ArrayPad$ = -4					; size = 4
_lhs$ = 8						; size = 4
_t$ = 12						; size = 4
??$?8$0M@@@YA_NABVioHashString@@AAY0M@$$CBD@Z PROC	; operator==<12>, COMDAT

; 146  : {

  00000	55		 push	 ebp
  00001	8b ec		 mov	 ebp, esp
  00003	83 ec 14	 sub	 esp, 20			; 00000014H
  00006	a1 00 00 00 00	 mov	 eax, DWORD PTR ___security_cookie
  0000b	33 c5		 xor	 eax, ebp
  0000d	89 45 fc	 mov	 DWORD PTR __$ArrayPad$[ebp], eax
  00010	8b 45 0c	 mov	 eax, DWORD PTR _t$[ebp]

; 147  : 	_ENCSTR(t, _t); return ( strcmp( lhs.c_str(), _t ) == 0 );

  00013	8a 10		 mov	 dl, BYTE PTR [eax]
  00015	56		 push	 esi
  00016	57		 push	 edi
  00017	8b 7d 08	 mov	 edi, DWORD PTR _lhs$[ebp]
  0001a	84 d2		 test	 dl, dl
  0001c	0f 84 32 01 00
	00		 je	 $LN96@operator@6
  00022	80 f2 ed	 xor	 dl, -19			; ffffffedH
  00025	88 55 ec	 mov	 BYTE PTR __t$[ebp], dl
  00028	8a 50 01	 mov	 dl, BYTE PTR [eax+1]
  0002b	84 d2		 test	 dl, dl
  0002d	0f 84 1b 01 00
	00		 je	 $LN95@operator@6
  00033	80 f2 ec	 xor	 dl, -20			; ffffffecH
  00036	88 55 ed	 mov	 BYTE PTR __t$[ebp+1], dl
  00039	8a 50 02	 mov	 dl, BYTE PTR [eax+2]
  0003c	84 d2		 test	 dl, dl
  0003e	0f 84 04 01 00
	00		 je	 $LN94@operator@6
  00044	b1 eb		 mov	 cl, -21			; ffffffebH
  00046	32 d1		 xor	 dl, cl
  00048	88 55 ee	 mov	 BYTE PTR __t$[ebp+2], dl
  0004b	8a 50 03	 mov	 dl, BYTE PTR [eax+3]
  0004e	84 d2		 test	 dl, dl
  00050	0f 84 ec 00 00
	00		 je	 $LN93@operator@6
  00056	80 f2 ea	 xor	 dl, -22			; ffffffeaH
  00059	88 55 ef	 mov	 BYTE PTR __t$[ebp+3], dl
  0005c	8a 50 04	 mov	 dl, BYTE PTR [eax+4]
  0005f	84 d2		 test	 dl, dl
  00061	0f 84 d5 00 00
	00		 je	 $LN92@operator@6
  00067	80 f2 ed	 xor	 dl, -19			; ffffffedH
  0006a	88 55 f0	 mov	 BYTE PTR __t$[ebp+4], dl
  0006d	8a 50 05	 mov	 dl, BYTE PTR [eax+5]
  00070	84 d2		 test	 dl, dl
  00072	0f 84 be 00 00
	00		 je	 $LN91@operator@6
  00078	80 f2 ec	 xor	 dl, -20			; ffffffecH
  0007b	88 55 f1	 mov	 BYTE PTR __t$[ebp+5], dl
  0007e	8a 50 06	 mov	 dl, BYTE PTR [eax+6]
  00081	84 d2		 test	 dl, dl
  00083	0f 84 a8 00 00
	00		 je	 $LN90@operator@6
  00089	32 d1		 xor	 dl, cl
  0008b	88 55 f2	 mov	 BYTE PTR __t$[ebp+6], dl
  0008e	8a 50 07	 mov	 dl, BYTE PTR [eax+7]
  00091	84 d2		 test	 dl, dl
  00093	0f 84 92 00 00
	00		 je	 $LN89@operator@6
  00099	80 f2 ea	 xor	 dl, -22			; ffffffeaH
  0009c	88 55 f3	 mov	 BYTE PTR __t$[ebp+7], dl
  0009f	8a 50 08	 mov	 dl, BYTE PTR [eax+8]
  000a2	84 d2		 test	 dl, dl
  000a4	74 7f		 je	 SHORT $LN88@operator@6
  000a6	80 f2 ed	 xor	 dl, -19			; ffffffedH
  000a9	88 55 f4	 mov	 BYTE PTR __t$[ebp+8], dl
  000ac	8a 50 09	 mov	 dl, BYTE PTR [eax+9]
  000af	84 d2		 test	 dl, dl
  000b1	74 6c		 je	 SHORT $LN87@operator@6
  000b3	80 f2 ec	 xor	 dl, -20			; ffffffecH
  000b6	88 55 f5	 mov	 BYTE PTR __t$[ebp+9], dl
  000b9	8a 50 0a	 mov	 dl, BYTE PTR [eax+10]
  000bc	84 d2		 test	 dl, dl
  000be	74 5a		 je	 SHORT $LN86@operator@6
  000c0	32 d1		 xor	 dl, cl
  000c2	80 78 0b 00	 cmp	 BYTE PTR [eax+11], 0
  000c6	88 55 f6	 mov	 BYTE PTR __t$[ebp+10], dl
  000c9	0f 84 89 00 00
	00		 je	 $LN1@operator@6
  000cf	8a 50 0c	 mov	 dl, BYTE PTR [eax+12]
  000d2	84 d2		 test	 dl, dl
  000d4	74 3e		 je	 SHORT $LN84@operator@6
  000d6	80 f2 ed	 xor	 dl, -19			; ffffffedH
  000d9	88 55 f8	 mov	 BYTE PTR __t$[ebp+12], dl
  000dc	8a 50 0d	 mov	 dl, BYTE PTR [eax+13]
  000df	84 d2		 test	 dl, dl
  000e1	74 2b		 je	 SHORT $LN83@operator@6
  000e3	80 f2 ec	 xor	 dl, -20			; ffffffecH
  000e6	88 55 f9	 mov	 BYTE PTR __t$[ebp+13], dl
  000e9	8a 50 0e	 mov	 dl, BYTE PTR [eax+14]
  000ec	84 d2		 test	 dl, dl
  000ee	74 19		 je	 SHORT $LN82@operator@6
  000f0	8a 40 0f	 mov	 al, BYTE PTR [eax+15]
  000f3	32 d1		 xor	 dl, cl
  000f5	88 55 fa	 mov	 BYTE PTR __t$[ebp+14], dl
  000f8	84 c0		 test	 al, al
  000fa	74 07		 je	 SHORT $LN81@operator@6
  000fc	34 ea		 xor	 al, -22			; ffffffeaH
  000fe	88 45 fb	 mov	 BYTE PTR __t$[ebp+15], al
  00101	eb 55		 jmp	 SHORT $LN1@operator@6
$LN81@operator@6:
  00103	c6 45 fb ea	 mov	 BYTE PTR __t$[ebp+15], -22 ; ffffffeaH
  00107	eb 4f		 jmp	 SHORT $LN1@operator@6
$LN82@operator@6:
  00109	88 4d fa	 mov	 BYTE PTR __t$[ebp+14], cl
  0010c	eb 4a		 jmp	 SHORT $LN1@operator@6
$LN83@operator@6:
  0010e	c6 45 f9 ec	 mov	 BYTE PTR __t$[ebp+13], -20 ; ffffffecH
  00112	eb 44		 jmp	 SHORT $LN1@operator@6
$LN84@operator@6:
  00114	c6 45 f8 ed	 mov	 BYTE PTR __t$[ebp+12], -19 ; ffffffedH
  00118	eb 3e		 jmp	 SHORT $LN1@operator@6
$LN86@operator@6:
  0011a	88 4d f6	 mov	 BYTE PTR __t$[ebp+10], cl
  0011d	eb 39		 jmp	 SHORT $LN1@operator@6
$LN87@operator@6:
  0011f	c6 45 f5 ec	 mov	 BYTE PTR __t$[ebp+9], -20 ; ffffffecH
  00123	eb 33		 jmp	 SHORT $LN1@operator@6
$LN88@operator@6:
  00125	c6 45 f4 ed	 mov	 BYTE PTR __t$[ebp+8], -19 ; ffffffedH
  00129	eb 2d		 jmp	 SHORT $LN1@operator@6
$LN89@operator@6:
  0012b	c6 45 f3 ea	 mov	 BYTE PTR __t$[ebp+7], -22 ; ffffffeaH
  0012f	eb 27		 jmp	 SHORT $LN1@operator@6
$LN90@operator@6:
  00131	88 4d f2	 mov	 BYTE PTR __t$[ebp+6], cl
  00134	eb 22		 jmp	 SHORT $LN1@operator@6
$LN91@operator@6:
  00136	c6 45 f1 ec	 mov	 BYTE PTR __t$[ebp+5], -20 ; ffffffecH
  0013a	eb 1c		 jmp	 SHORT $LN1@operator@6
$LN92@operator@6:
  0013c	c6 45 f0 ed	 mov	 BYTE PTR __t$[ebp+4], -19 ; ffffffedH
  00140	eb 16		 jmp	 SHORT $LN1@operator@6
$LN93@operator@6:
  00142	c6 45 ef ea	 mov	 BYTE PTR __t$[ebp+3], -22 ; ffffffeaH
  00146	eb 10		 jmp	 SHORT $LN1@operator@6
$LN94@operator@6:
  00148	c6 45 ee eb	 mov	 BYTE PTR __t$[ebp+2], -21 ; ffffffebH
  0014c	eb 0a		 jmp	 SHORT $LN1@operator@6
$LN95@operator@6:
  0014e	c6 45 ed ec	 mov	 BYTE PTR __t$[ebp+1], -20 ; ffffffecH
  00152	eb 04		 jmp	 SHORT $LN1@operator@6
$LN96@operator@6:
  00154	c6 45 ec ed	 mov	 BYTE PTR __t$[ebp], -19	; ffffffedH
$LN1@operator@6:
  00158	6a 02		 push	 2
  0015a	8d 45 ec	 lea	 eax, DWORD PTR __t$[ebp]
  0015d	c6 45 f7 00	 mov	 BYTE PTR __t$[ebp+11], 0
  00161	5a		 pop	 edx
$LL104@operator@6:
  00162	81 30 ed ec eb
	ea		 xor	 DWORD PTR [eax], -353637139 ; eaebecedH
  00168	83 c0 04	 add	 eax, 4
  0016b	4a		 dec	 edx
  0016c	75 f4		 jne	 SHORT $LL104@operator@6
  0016e	6a 08		 push	 8
  00170	58		 pop	 eax
$LL101@operator@6:
  00171	8b c8		 mov	 ecx, eax
  00173	81 e1 03 00 00
	80		 and	 ecx, -2147483645	; 80000003H
  00179	79 05		 jns	 SHORT $LN115@operator@6
  0017b	49		 dec	 ecx
  0017c	83 c9 fc	 or	 ecx, -4			; fffffffcH
  0017f	41		 inc	 ecx
$LN115@operator@6:
  00180	b2 ed		 mov	 dl, -19			; ffffffedH
  00182	2a d1		 sub	 dl, cl
  00184	30 54 05 ec	 xor	 BYTE PTR __t$[ebp+eax], dl
  00188	40		 inc	 eax
  00189	83 f8 0b	 cmp	 eax, 11			; 0000000bH
  0018c	7c e3		 jl	 SHORT $LL101@operator@6
  0018e	8b cf		 mov	 ecx, edi
  00190	8d 75 ec	 lea	 esi, DWORD PTR __t$[ebp]
  00193	ff 15 00 00 00
	00		 call	 DWORD PTR __imp_?c_str@ioHashString@@QBEPBDXZ
$LL111@operator@6:
  00199	8a 08		 mov	 cl, BYTE PTR [eax]
  0019b	3a 0e		 cmp	 cl, BYTE PTR [esi]
  0019d	75 1a		 jne	 SHORT $LN112@operator@6
  0019f	84 c9		 test	 cl, cl
  001a1	74 12		 je	 SHORT $LN113@operator@6
  001a3	8a 48 01	 mov	 cl, BYTE PTR [eax+1]
  001a6	3a 4e 01	 cmp	 cl, BYTE PTR [esi+1]
  001a9	75 0e		 jne	 SHORT $LN112@operator@6
  001ab	83 c0 02	 add	 eax, 2
  001ae	83 c6 02	 add	 esi, 2
  001b1	84 c9		 test	 cl, cl
  001b3	75 e4		 jne	 SHORT $LL111@operator@6
$LN113@operator@6:
  001b5	33 c0		 xor	 eax, eax
  001b7	eb 05		 jmp	 SHORT $LN114@operator@6
$LN112@operator@6:
  001b9	1b c0		 sbb	 eax, eax
  001bb	83 d8 ff	 sbb	 eax, -1
$LN114@operator@6:
  001be	33 c9		 xor	 ecx, ecx
  001c0	85 c0		 test	 eax, eax
  001c2	0f 94 c0	 sete	 al

; 148  : }

  001c5	8b 4d fc	 mov	 ecx, DWORD PTR __$ArrayPad$[ebp]
  001c8	5f		 pop	 edi
  001c9	33 cd		 xor	 ecx, ebp
  001cb	5e		 pop	 esi
  001cc	e8 00 00 00 00	 call	 @__security_check_cookie@4
  001d1	c9		 leave
  001d2	c3		 ret	 0
??$?8$0M@@@YA_NABVioHashString@@AAY0M@$$CBD@Z ENDP	; operator==<12>
_TEXT	ENDS
PUBLIC	__$ArrayPad$
PUBLIC	??$?8$0N@@@YA_NABVioHashString@@AAY0N@$$CBD@Z	; operator==<13>
; Function compile flags: /Ogsp
;	COMDAT ??$?8$0N@@@YA_NABVioHashString@@AAY0N@$$CBD@Z
_TEXT	SEGMENT
__t$ = -24						; size = 13
__$ArrayPad$ = -4					; size = 4
_lhs$ = 8						; size = 4
_t$ = 12						; size = 4
??$?8$0N@@@YA_NABVioHashString@@AAY0N@$$CBD@Z PROC	; operator==<13>, COMDAT

; 146  : {

  00000	55		 push	 ebp
  00001	8b ec		 mov	 ebp, esp
  00003	83 ec 18	 sub	 esp, 24			; 00000018H
  00006	a1 00 00 00 00	 mov	 eax, DWORD PTR ___security_cookie
  0000b	33 c5		 xor	 eax, ebp
  0000d	89 45 fc	 mov	 DWORD PTR __$ArrayPad$[ebp], eax
  00010	8b 45 0c	 mov	 eax, DWORD PTR _t$[ebp]

; 147  : 	_ENCSTR(t, _t); return ( strcmp( lhs.c_str(), _t ) == 0 );

  00013	8a 10		 mov	 dl, BYTE PTR [eax]
  00015	56		 push	 esi
  00016	57		 push	 edi
  00017	8b 7d 08	 mov	 edi, DWORD PTR _lhs$[ebp]
  0001a	84 d2		 test	 dl, dl
  0001c	0f 84 4d 01 00
	00		 je	 $LN96@operator@7
  00022	80 f2 ed	 xor	 dl, -19			; ffffffedH
  00025	88 55 e8	 mov	 BYTE PTR __t$[ebp], dl
  00028	8a 50 01	 mov	 dl, BYTE PTR [eax+1]
  0002b	84 d2		 test	 dl, dl
  0002d	0f 84 36 01 00
	00		 je	 $LN95@operator@7
  00033	b1 ec		 mov	 cl, -20			; ffffffecH
  00035	32 d1		 xor	 dl, cl
  00037	88 55 e9	 mov	 BYTE PTR __t$[ebp+1], dl
  0003a	8a 50 02	 mov	 dl, BYTE PTR [eax+2]
  0003d	84 d2		 test	 dl, dl
  0003f	0f 84 1e 01 00
	00		 je	 $LN94@operator@7
  00045	80 f2 eb	 xor	 dl, -21			; ffffffebH
  00048	88 55 ea	 mov	 BYTE PTR __t$[ebp+2], dl
  0004b	8a 50 03	 mov	 dl, BYTE PTR [eax+3]
  0004e	84 d2		 test	 dl, dl
  00050	0f 84 07 01 00
	00		 je	 $LN93@operator@7
  00056	80 f2 ea	 xor	 dl, -22			; ffffffeaH
  00059	88 55 eb	 mov	 BYTE PTR __t$[ebp+3], dl
  0005c	8a 50 04	 mov	 dl, BYTE PTR [eax+4]
  0005f	84 d2		 test	 dl, dl
  00061	0f 84 f0 00 00
	00		 je	 $LN92@operator@7
  00067	80 f2 ed	 xor	 dl, -19			; ffffffedH
  0006a	88 55 ec	 mov	 BYTE PTR __t$[ebp+4], dl
  0006d	8a 50 05	 mov	 dl, BYTE PTR [eax+5]
  00070	84 d2		 test	 dl, dl
  00072	0f 84 da 00 00
	00		 je	 $LN91@operator@7
  00078	32 d1		 xor	 dl, cl
  0007a	88 55 ed	 mov	 BYTE PTR __t$[ebp+5], dl
  0007d	8a 50 06	 mov	 dl, BYTE PTR [eax+6]
  00080	84 d2		 test	 dl, dl
  00082	0f 84 c4 00 00
	00		 je	 $LN90@operator@7
  00088	80 f2 eb	 xor	 dl, -21			; ffffffebH
  0008b	88 55 ee	 mov	 BYTE PTR __t$[ebp+6], dl
  0008e	8a 50 07	 mov	 dl, BYTE PTR [eax+7]
  00091	84 d2		 test	 dl, dl
  00093	0f 84 ad 00 00
	00		 je	 $LN89@operator@7
  00099	80 f2 ea	 xor	 dl, -22			; ffffffeaH
  0009c	88 55 ef	 mov	 BYTE PTR __t$[ebp+7], dl
  0009f	8a 50 08	 mov	 dl, BYTE PTR [eax+8]
  000a2	84 d2		 test	 dl, dl
  000a4	0f 84 96 00 00
	00		 je	 $LN88@operator@7
  000aa	80 f2 ed	 xor	 dl, -19			; ffffffedH
  000ad	88 55 f0	 mov	 BYTE PTR __t$[ebp+8], dl
  000b0	8a 50 09	 mov	 dl, BYTE PTR [eax+9]
  000b3	84 d2		 test	 dl, dl
  000b5	0f 84 80 00 00
	00		 je	 $LN87@operator@7
  000bb	32 d1		 xor	 dl, cl
  000bd	88 55 f1	 mov	 BYTE PTR __t$[ebp+9], dl
  000c0	8a 50 0a	 mov	 dl, BYTE PTR [eax+10]
  000c3	84 d2		 test	 dl, dl
  000c5	74 6e		 je	 SHORT $LN86@operator@7
  000c7	80 f2 eb	 xor	 dl, -21			; ffffffebH
  000ca	88 55 f2	 mov	 BYTE PTR __t$[ebp+10], dl
  000cd	8a 50 0b	 mov	 dl, BYTE PTR [eax+11]
  000d0	84 d2		 test	 dl, dl
  000d2	74 5b		 je	 SHORT $LN85@operator@7
  000d4	80 f2 ea	 xor	 dl, -22			; ffffffeaH
  000d7	80 78 0c 00	 cmp	 BYTE PTR [eax+12], 0
  000db	88 55 f3	 mov	 BYTE PTR __t$[ebp+11], dl
  000de	0f 84 8f 00 00
	00		 je	 $LN1@operator@7
  000e4	8a 50 0d	 mov	 dl, BYTE PTR [eax+13]
  000e7	84 d2		 test	 dl, dl
  000e9	74 3f		 je	 SHORT $LN83@operator@7
  000eb	32 d1		 xor	 dl, cl
  000ed	88 55 f5	 mov	 BYTE PTR __t$[ebp+13], dl
  000f0	8a 50 0e	 mov	 dl, BYTE PTR [eax+14]
  000f3	84 d2		 test	 dl, dl
  000f5	74 2d		 je	 SHORT $LN82@operator@7
  000f7	80 f2 eb	 xor	 dl, -21			; ffffffebH
  000fa	88 55 f6	 mov	 BYTE PTR __t$[ebp+14], dl
  000fd	8a 50 0f	 mov	 dl, BYTE PTR [eax+15]
  00100	84 d2		 test	 dl, dl
  00102	74 1a		 je	 SHORT $LN81@operator@7
  00104	8a 40 10	 mov	 al, BYTE PTR [eax+16]
  00107	80 f2 ea	 xor	 dl, -22			; ffffffeaH
  0010a	88 55 f7	 mov	 BYTE PTR __t$[ebp+15], dl
  0010d	84 c0		 test	 al, al
  0010f	74 07		 je	 SHORT $LN80@operator@7
  00111	34 ed		 xor	 al, -19			; ffffffedH
  00113	88 45 f8	 mov	 BYTE PTR __t$[ebp+16], al
  00116	eb 5b		 jmp	 SHORT $LN1@operator@7
$LN80@operator@7:
  00118	c6 45 f8 ed	 mov	 BYTE PTR __t$[ebp+16], -19 ; ffffffedH
  0011c	eb 55		 jmp	 SHORT $LN1@operator@7
$LN81@operator@7:
  0011e	c6 45 f7 ea	 mov	 BYTE PTR __t$[ebp+15], -22 ; ffffffeaH
  00122	eb 4f		 jmp	 SHORT $LN1@operator@7
$LN82@operator@7:
  00124	c6 45 f6 eb	 mov	 BYTE PTR __t$[ebp+14], -21 ; ffffffebH
  00128	eb 49		 jmp	 SHORT $LN1@operator@7
$LN83@operator@7:
  0012a	88 4d f5	 mov	 BYTE PTR __t$[ebp+13], cl
  0012d	eb 44		 jmp	 SHORT $LN1@operator@7
$LN85@operator@7:
  0012f	c6 45 f3 ea	 mov	 BYTE PTR __t$[ebp+11], -22 ; ffffffeaH
  00133	eb 3e		 jmp	 SHORT $LN1@operator@7
$LN86@operator@7:
  00135	c6 45 f2 eb	 mov	 BYTE PTR __t$[ebp+10], -21 ; ffffffebH
  00139	eb 38		 jmp	 SHORT $LN1@operator@7
$LN87@operator@7:
  0013b	88 4d f1	 mov	 BYTE PTR __t$[ebp+9], cl
  0013e	eb 33		 jmp	 SHORT $LN1@operator@7
$LN88@operator@7:
  00140	c6 45 f0 ed	 mov	 BYTE PTR __t$[ebp+8], -19 ; ffffffedH
  00144	eb 2d		 jmp	 SHORT $LN1@operator@7
$LN89@operator@7:
  00146	c6 45 ef ea	 mov	 BYTE PTR __t$[ebp+7], -22 ; ffffffeaH
  0014a	eb 27		 jmp	 SHORT $LN1@operator@7
$LN90@operator@7:
  0014c	c6 45 ee eb	 mov	 BYTE PTR __t$[ebp+6], -21 ; ffffffebH
  00150	eb 21		 jmp	 SHORT $LN1@operator@7
$LN91@operator@7:
  00152	88 4d ed	 mov	 BYTE PTR __t$[ebp+5], cl
  00155	eb 1c		 jmp	 SHORT $LN1@operator@7
$LN92@operator@7:
  00157	c6 45 ec ed	 mov	 BYTE PTR __t$[ebp+4], -19 ; ffffffedH
  0015b	eb 16		 jmp	 SHORT $LN1@operator@7
$LN93@operator@7:
  0015d	c6 45 eb ea	 mov	 BYTE PTR __t$[ebp+3], -22 ; ffffffeaH
  00161	eb 10		 jmp	 SHORT $LN1@operator@7
$LN94@operator@7:
  00163	c6 45 ea eb	 mov	 BYTE PTR __t$[ebp+2], -21 ; ffffffebH
  00167	eb 0a		 jmp	 SHORT $LN1@operator@7
$LN95@operator@7:
  00169	c6 45 e9 ec	 mov	 BYTE PTR __t$[ebp+1], -20 ; ffffffecH
  0016d	eb 04		 jmp	 SHORT $LN1@operator@7
$LN96@operator@7:
  0016f	c6 45 e8 ed	 mov	 BYTE PTR __t$[ebp], -19	; ffffffedH
$LN1@operator@7:
  00173	6a 03		 push	 3
  00175	8d 45 e8	 lea	 eax, DWORD PTR __t$[ebp]
  00178	c6 45 f4 00	 mov	 BYTE PTR __t$[ebp+12], 0
  0017c	5a		 pop	 edx
$LL104@operator@7:
  0017d	81 30 ed ec eb
	ea		 xor	 DWORD PTR [eax], -353637139 ; eaebecedH
  00183	83 c0 04	 add	 eax, 4
  00186	4a		 dec	 edx
  00187	75 f4		 jne	 SHORT $LL104@operator@7
  00189	8b cf		 mov	 ecx, edi
  0018b	8d 75 e8	 lea	 esi, DWORD PTR __t$[ebp]
  0018e	ff 15 00 00 00
	00		 call	 DWORD PTR __imp_?c_str@ioHashString@@QBEPBDXZ
$LL111@operator@7:
  00194	8a 08		 mov	 cl, BYTE PTR [eax]
  00196	3a 0e		 cmp	 cl, BYTE PTR [esi]
  00198	75 1a		 jne	 SHORT $LN112@operator@7
  0019a	84 c9		 test	 cl, cl
  0019c	74 12		 je	 SHORT $LN113@operator@7
  0019e	8a 48 01	 mov	 cl, BYTE PTR [eax+1]
  001a1	3a 4e 01	 cmp	 cl, BYTE PTR [esi+1]
  001a4	75 0e		 jne	 SHORT $LN112@operator@7
  001a6	83 c0 02	 add	 eax, 2
  001a9	83 c6 02	 add	 esi, 2
  001ac	84 c9		 test	 cl, cl
  001ae	75 e4		 jne	 SHORT $LL111@operator@7
$LN113@operator@7:
  001b0	33 c0		 xor	 eax, eax
  001b2	eb 05		 jmp	 SHORT $LN114@operator@7
$LN112@operator@7:
  001b4	1b c0		 sbb	 eax, eax
  001b6	83 d8 ff	 sbb	 eax, -1
$LN114@operator@7:
  001b9	33 c9		 xor	 ecx, ecx
  001bb	85 c0		 test	 eax, eax
  001bd	0f 94 c0	 sete	 al

; 148  : }

  001c0	8b 4d fc	 mov	 ecx, DWORD PTR __$ArrayPad$[ebp]
  001c3	5f		 pop	 edi
  001c4	33 cd		 xor	 ecx, ebp
  001c6	5e		 pop	 esi
  001c7	e8 00 00 00 00	 call	 @__security_check_cookie@4
  001cc	c9		 leave
  001cd	c3		 ret	 0
??$?8$0N@@@YA_NABVioHashString@@AAY0N@$$CBD@Z ENDP	; operator==<13>
_TEXT	ENDS
PUBLIC	__$ArrayPad$
PUBLIC	??$GetIntAttribute_e@$0L@@ioXMLElement@@QBEHAAY0L@$$CBD@Z ; ioXMLElement::GetIntAttribute_e<11>
EXTRN	__imp_?GetIntAttribute@ioXMLElement@@QBEHPBD@Z:PROC
; Function compile flags: /Ogsp
; File d:\lost saga for developer\youtube\tutorial\source\src\io3dengine\ioxmlelement.h
;	COMDAT ??$GetIntAttribute_e@$0L@@ioXMLElement@@QBEHAAY0L@$$CBD@Z
_TEXT	SEGMENT
__k$ = -20						; size = 11
__$ArrayPad$ = -4					; size = 4
_k$ = 8							; size = 4
??$GetIntAttribute_e@$0L@@ioXMLElement@@QBEHAAY0L@$$CBD@Z PROC ; ioXMLElement::GetIntAttribute_e<11>, COMDAT
; _this$ = ecx

; 86   : 	{

  00000	55		 push	 ebp
  00001	8b ec		 mov	 ebp, esp
  00003	83 ec 14	 sub	 esp, 20			; 00000014H
  00006	a1 00 00 00 00	 mov	 eax, DWORD PTR ___security_cookie
  0000b	33 c5		 xor	 eax, ebp
  0000d	89 45 fc	 mov	 DWORD PTR __$ArrayPad$[ebp], eax
  00010	8b 45 08	 mov	 eax, DWORD PTR _k$[ebp]

; 87   : 		_ENCSTR(k, _k);

  00013	8a 10		 mov	 dl, BYTE PTR [eax]
  00015	56		 push	 esi
  00016	8b f1		 mov	 esi, ecx
  00018	84 d2		 test	 dl, dl
  0001a	0f 84 24 01 00
	00		 je	 $LN96@GetIntAttr
  00020	80 f2 ed	 xor	 dl, -19			; ffffffedH
  00023	88 55 ec	 mov	 BYTE PTR __k$[ebp], dl
  00026	8a 50 01	 mov	 dl, BYTE PTR [eax+1]
  00029	84 d2		 test	 dl, dl
  0002b	0f 84 0d 01 00
	00		 je	 $LN95@GetIntAttr
  00031	80 f2 ec	 xor	 dl, -20			; ffffffecH
  00034	88 55 ed	 mov	 BYTE PTR __k$[ebp+1], dl
  00037	8a 50 02	 mov	 dl, BYTE PTR [eax+2]
  0003a	84 d2		 test	 dl, dl
  0003c	0f 84 f6 00 00
	00		 je	 $LN94@GetIntAttr
  00042	80 f2 eb	 xor	 dl, -21			; ffffffebH
  00045	88 55 ee	 mov	 BYTE PTR __k$[ebp+2], dl
  00048	8a 50 03	 mov	 dl, BYTE PTR [eax+3]
  0004b	84 d2		 test	 dl, dl
  0004d	0f 84 df 00 00
	00		 je	 $LN93@GetIntAttr
  00053	80 f2 ea	 xor	 dl, -22			; ffffffeaH
  00056	88 55 ef	 mov	 BYTE PTR __k$[ebp+3], dl
  00059	8a 50 04	 mov	 dl, BYTE PTR [eax+4]
  0005c	84 d2		 test	 dl, dl
  0005e	0f 84 c8 00 00
	00		 je	 $LN92@GetIntAttr
  00064	80 f2 ed	 xor	 dl, -19			; ffffffedH
  00067	88 55 f0	 mov	 BYTE PTR __k$[ebp+4], dl
  0006a	8a 50 05	 mov	 dl, BYTE PTR [eax+5]
  0006d	84 d2		 test	 dl, dl
  0006f	0f 84 b1 00 00
	00		 je	 $LN91@GetIntAttr
  00075	80 f2 ec	 xor	 dl, -20			; ffffffecH
  00078	88 55 f1	 mov	 BYTE PTR __k$[ebp+5], dl
  0007b	8a 50 06	 mov	 dl, BYTE PTR [eax+6]
  0007e	84 d2		 test	 dl, dl
  00080	0f 84 9a 00 00
	00		 je	 $LN90@GetIntAttr
  00086	80 f2 eb	 xor	 dl, -21			; ffffffebH
  00089	88 55 f2	 mov	 BYTE PTR __k$[ebp+6], dl
  0008c	8a 50 07	 mov	 dl, BYTE PTR [eax+7]
  0008f	84 d2		 test	 dl, dl
  00091	0f 84 83 00 00
	00		 je	 $LN89@GetIntAttr
  00097	80 f2 ea	 xor	 dl, -22			; ffffffeaH
  0009a	88 55 f3	 mov	 BYTE PTR __k$[ebp+7], dl
  0009d	8a 50 08	 mov	 dl, BYTE PTR [eax+8]
  000a0	84 d2		 test	 dl, dl
  000a2	74 70		 je	 SHORT $LN88@GetIntAttr
  000a4	80 f2 ed	 xor	 dl, -19			; ffffffedH
  000a7	88 55 f4	 mov	 BYTE PTR __k$[ebp+8], dl
  000aa	8a 50 09	 mov	 dl, BYTE PTR [eax+9]
  000ad	84 d2		 test	 dl, dl
  000af	74 5d		 je	 SHORT $LN87@GetIntAttr
  000b1	80 f2 ec	 xor	 dl, -20			; ffffffecH
  000b4	80 78 0a 00	 cmp	 BYTE PTR [eax+10], 0
  000b8	88 55 f5	 mov	 BYTE PTR __k$[ebp+9], dl
  000bb	0f 84 87 00 00
	00		 je	 $LN1@GetIntAttr
  000c1	8a 50 0b	 mov	 dl, BYTE PTR [eax+11]
  000c4	84 d2		 test	 dl, dl
  000c6	74 40		 je	 SHORT $LN85@GetIntAttr
  000c8	80 f2 ea	 xor	 dl, -22			; ffffffeaH
  000cb	88 55 f7	 mov	 BYTE PTR __k$[ebp+11], dl
  000ce	8a 50 0c	 mov	 dl, BYTE PTR [eax+12]
  000d1	84 d2		 test	 dl, dl
  000d3	74 2d		 je	 SHORT $LN84@GetIntAttr
  000d5	80 f2 ed	 xor	 dl, -19			; ffffffedH
  000d8	88 55 f8	 mov	 BYTE PTR __k$[ebp+12], dl
  000db	8a 50 0d	 mov	 dl, BYTE PTR [eax+13]
  000de	84 d2		 test	 dl, dl
  000e0	74 1a		 je	 SHORT $LN83@GetIntAttr
  000e2	8a 40 0e	 mov	 al, BYTE PTR [eax+14]
  000e5	80 f2 ec	 xor	 dl, -20			; ffffffecH
  000e8	88 55 f9	 mov	 BYTE PTR __k$[ebp+13], dl
  000eb	84 c0		 test	 al, al
  000ed	74 07		 je	 SHORT $LN82@GetIntAttr
  000ef	34 eb		 xor	 al, -21			; ffffffebH
  000f1	88 45 fa	 mov	 BYTE PTR __k$[ebp+14], al
  000f4	eb 52		 jmp	 SHORT $LN1@GetIntAttr
$LN82@GetIntAttr:
  000f6	c6 45 fa eb	 mov	 BYTE PTR __k$[ebp+14], -21 ; ffffffebH
  000fa	eb 4c		 jmp	 SHORT $LN1@GetIntAttr
$LN83@GetIntAttr:
  000fc	c6 45 f9 ec	 mov	 BYTE PTR __k$[ebp+13], -20 ; ffffffecH
  00100	eb 46		 jmp	 SHORT $LN1@GetIntAttr
$LN84@GetIntAttr:
  00102	c6 45 f8 ed	 mov	 BYTE PTR __k$[ebp+12], -19 ; ffffffedH
  00106	eb 40		 jmp	 SHORT $LN1@GetIntAttr
$LN85@GetIntAttr:
  00108	c6 45 f7 ea	 mov	 BYTE PTR __k$[ebp+11], -22 ; ffffffeaH
  0010c	eb 3a		 jmp	 SHORT $LN1@GetIntAttr
$LN87@GetIntAttr:
  0010e	c6 45 f5 ec	 mov	 BYTE PTR __k$[ebp+9], -20 ; ffffffecH
  00112	eb 34		 jmp	 SHORT $LN1@GetIntAttr
$LN88@GetIntAttr:
  00114	c6 45 f4 ed	 mov	 BYTE PTR __k$[ebp+8], -19 ; ffffffedH
  00118	eb 2e		 jmp	 SHORT $LN1@GetIntAttr
$LN89@GetIntAttr:
  0011a	c6 45 f3 ea	 mov	 BYTE PTR __k$[ebp+7], -22 ; ffffffeaH
  0011e	eb 28		 jmp	 SHORT $LN1@GetIntAttr
$LN90@GetIntAttr:
  00120	c6 45 f2 eb	 mov	 BYTE PTR __k$[ebp+6], -21 ; ffffffebH
  00124	eb 22		 jmp	 SHORT $LN1@GetIntAttr
$LN91@GetIntAttr:
  00126	c6 45 f1 ec	 mov	 BYTE PTR __k$[ebp+5], -20 ; ffffffecH
  0012a	eb 1c		 jmp	 SHORT $LN1@GetIntAttr
$LN92@GetIntAttr:
  0012c	c6 45 f0 ed	 mov	 BYTE PTR __k$[ebp+4], -19 ; ffffffedH
  00130	eb 16		 jmp	 SHORT $LN1@GetIntAttr
$LN93@GetIntAttr:
  00132	c6 45 ef ea	 mov	 BYTE PTR __k$[ebp+3], -22 ; ffffffeaH
  00136	eb 10		 jmp	 SHORT $LN1@GetIntAttr
$LN94@GetIntAttr:
  00138	c6 45 ee eb	 mov	 BYTE PTR __k$[ebp+2], -21 ; ffffffebH
  0013c	eb 0a		 jmp	 SHORT $LN1@GetIntAttr
$LN95@GetIntAttr:
  0013e	c6 45 ed ec	 mov	 BYTE PTR __k$[ebp+1], -20 ; ffffffecH
  00142	eb 04		 jmp	 SHORT $LN1@GetIntAttr
$LN96@GetIntAttr:
  00144	c6 45 ec ed	 mov	 BYTE PTR __k$[ebp], -19	; ffffffedH
$LN1@GetIntAttr:
  00148	6a 02		 push	 2
  0014a	8d 45 ec	 lea	 eax, DWORD PTR __k$[ebp]
  0014d	c6 45 f6 00	 mov	 BYTE PTR __k$[ebp+10], 0
  00151	5a		 pop	 edx
$LL104@GetIntAttr:
  00152	81 30 ed ec eb
	ea		 xor	 DWORD PTR [eax], -353637139 ; eaebecedH
  00158	83 c0 04	 add	 eax, 4
  0015b	4a		 dec	 edx
  0015c	75 f4		 jne	 SHORT $LL104@GetIntAttr
  0015e	6a 08		 push	 8
  00160	58		 pop	 eax
$LL101@GetIntAttr:
  00161	8b c8		 mov	 ecx, eax
  00163	81 e1 03 00 00
	80		 and	 ecx, -2147483645	; 80000003H
  00169	79 05		 jns	 SHORT $LN111@GetIntAttr
  0016b	49		 dec	 ecx
  0016c	83 c9 fc	 or	 ecx, -4			; fffffffcH
  0016f	41		 inc	 ecx
$LN111@GetIntAttr:
  00170	b2 ed		 mov	 dl, -19			; ffffffedH
  00172	2a d1		 sub	 dl, cl
  00174	30 54 05 ec	 xor	 BYTE PTR __k$[ebp+eax], dl
  00178	40		 inc	 eax
  00179	83 f8 0a	 cmp	 eax, 10			; 0000000aH
  0017c	7c e3		 jl	 SHORT $LL101@GetIntAttr

; 88   : 		return GetIntAttribute(_k);

  0017e	8d 45 ec	 lea	 eax, DWORD PTR __k$[ebp]
  00181	50		 push	 eax
  00182	8b ce		 mov	 ecx, esi
  00184	ff 15 00 00 00
	00		 call	 DWORD PTR __imp_?GetIntAttribute@ioXMLElement@@QBEHPBD@Z

; 89   : 	}

  0018a	8b 4d fc	 mov	 ecx, DWORD PTR __$ArrayPad$[ebp]
  0018d	33 cd		 xor	 ecx, ebp
  0018f	5e		 pop	 esi
  00190	e8 00 00 00 00	 call	 @__security_check_cookie@4
  00195	c9		 leave
  00196	c2 04 00	 ret	 4
??$GetIntAttribute_e@$0L@@ioXMLElement@@QBEHAAY0L@$$CBD@Z ENDP ; ioXMLElement::GetIntAttribute_e<11>
_TEXT	ENDS
PUBLIC	__$ArrayPad$
PUBLIC	??$?8$0L@@@YA_NABVioHashString@@AAY0L@$$CBD@Z	; operator==<11>
; Function compile flags: /Ogsp
; File d:\lost saga for developer\youtube\tutorial\source\src\io3dengine\iohashstring.h
;	COMDAT ??$?8$0L@@@YA_NABVioHashString@@AAY0L@$$CBD@Z
_TEXT	SEGMENT
__t$ = -20						; size = 11
__$ArrayPad$ = -4					; size = 4
_lhs$ = 8						; size = 4
_t$ = 12						; size = 4
??$?8$0L@@@YA_NABVioHashString@@AAY0L@$$CBD@Z PROC	; operator==<11>, COMDAT

; 146  : {

  00000	55		 push	 ebp
  00001	8b ec		 mov	 ebp, esp
  00003	83 ec 14	 sub	 esp, 20			; 00000014H
  00006	a1 00 00 00 00	 mov	 eax, DWORD PTR ___security_cookie
  0000b	33 c5		 xor	 eax, ebp
  0000d	89 45 fc	 mov	 DWORD PTR __$ArrayPad$[ebp], eax
  00010	8b 45 0c	 mov	 eax, DWORD PTR _t$[ebp]

; 147  : 	_ENCSTR(t, _t); return ( strcmp( lhs.c_str(), _t ) == 0 );

  00013	8a 10		 mov	 dl, BYTE PTR [eax]
  00015	56		 push	 esi
  00016	57		 push	 edi
  00017	8b 7d 08	 mov	 edi, DWORD PTR _lhs$[ebp]
  0001a	84 d2		 test	 dl, dl
  0001c	0f 84 24 01 00
	00		 je	 $LN96@operator@8
  00022	80 f2 ed	 xor	 dl, -19			; ffffffedH
  00025	88 55 ec	 mov	 BYTE PTR __t$[ebp], dl
  00028	8a 50 01	 mov	 dl, BYTE PTR [eax+1]
  0002b	84 d2		 test	 dl, dl
  0002d	0f 84 0d 01 00
	00		 je	 $LN95@operator@8
  00033	80 f2 ec	 xor	 dl, -20			; ffffffecH
  00036	88 55 ed	 mov	 BYTE PTR __t$[ebp+1], dl
  00039	8a 50 02	 mov	 dl, BYTE PTR [eax+2]
  0003c	84 d2		 test	 dl, dl
  0003e	0f 84 f6 00 00
	00		 je	 $LN94@operator@8
  00044	80 f2 eb	 xor	 dl, -21			; ffffffebH
  00047	88 55 ee	 mov	 BYTE PTR __t$[ebp+2], dl
  0004a	8a 50 03	 mov	 dl, BYTE PTR [eax+3]
  0004d	84 d2		 test	 dl, dl
  0004f	0f 84 df 00 00
	00		 je	 $LN93@operator@8
  00055	80 f2 ea	 xor	 dl, -22			; ffffffeaH
  00058	88 55 ef	 mov	 BYTE PTR __t$[ebp+3], dl
  0005b	8a 50 04	 mov	 dl, BYTE PTR [eax+4]
  0005e	84 d2		 test	 dl, dl
  00060	0f 84 c8 00 00
	00		 je	 $LN92@operator@8
  00066	80 f2 ed	 xor	 dl, -19			; ffffffedH
  00069	88 55 f0	 mov	 BYTE PTR __t$[ebp+4], dl
  0006c	8a 50 05	 mov	 dl, BYTE PTR [eax+5]
  0006f	84 d2		 test	 dl, dl
  00071	0f 84 b1 00 00
	00		 je	 $LN91@operator@8
  00077	80 f2 ec	 xor	 dl, -20			; ffffffecH
  0007a	88 55 f1	 mov	 BYTE PTR __t$[ebp+5], dl
  0007d	8a 50 06	 mov	 dl, BYTE PTR [eax+6]
  00080	84 d2		 test	 dl, dl
  00082	0f 84 9a 00 00
	00		 je	 $LN90@operator@8
  00088	80 f2 eb	 xor	 dl, -21			; ffffffebH
  0008b	88 55 f2	 mov	 BYTE PTR __t$[ebp+6], dl
  0008e	8a 50 07	 mov	 dl, BYTE PTR [eax+7]
  00091	84 d2		 test	 dl, dl
  00093	0f 84 83 00 00
	00		 je	 $LN89@operator@8
  00099	80 f2 ea	 xor	 dl, -22			; ffffffeaH
  0009c	88 55 f3	 mov	 BYTE PTR __t$[ebp+7], dl
  0009f	8a 50 08	 mov	 dl, BYTE PTR [eax+8]
  000a2	84 d2		 test	 dl, dl
  000a4	74 70		 je	 SHORT $LN88@operator@8
  000a6	80 f2 ed	 xor	 dl, -19			; ffffffedH
  000a9	88 55 f4	 mov	 BYTE PTR __t$[ebp+8], dl
  000ac	8a 50 09	 mov	 dl, BYTE PTR [eax+9]
  000af	84 d2		 test	 dl, dl
  000b1	74 5d		 je	 SHORT $LN87@operator@8
  000b3	80 f2 ec	 xor	 dl, -20			; ffffffecH
  000b6	80 78 0a 00	 cmp	 BYTE PTR [eax+10], 0
  000ba	88 55 f5	 mov	 BYTE PTR __t$[ebp+9], dl
  000bd	0f 84 87 00 00
	00		 je	 $LN1@operator@8
  000c3	8a 50 0b	 mov	 dl, BYTE PTR [eax+11]
  000c6	84 d2		 test	 dl, dl
  000c8	74 40		 je	 SHORT $LN85@operator@8
  000ca	80 f2 ea	 xor	 dl, -22			; ffffffeaH
  000cd	88 55 f7	 mov	 BYTE PTR __t$[ebp+11], dl
  000d0	8a 50 0c	 mov	 dl, BYTE PTR [eax+12]
  000d3	84 d2		 test	 dl, dl
  000d5	74 2d		 je	 SHORT $LN84@operator@8
  000d7	80 f2 ed	 xor	 dl, -19			; ffffffedH
  000da	88 55 f8	 mov	 BYTE PTR __t$[ebp+12], dl
  000dd	8a 50 0d	 mov	 dl, BYTE PTR [eax+13]
  000e0	84 d2		 test	 dl, dl
  000e2	74 1a		 je	 SHORT $LN83@operator@8
  000e4	8a 40 0e	 mov	 al, BYTE PTR [eax+14]
  000e7	80 f2 ec	 xor	 dl, -20			; ffffffecH
  000ea	88 55 f9	 mov	 BYTE PTR __t$[ebp+13], dl
  000ed	84 c0		 test	 al, al
  000ef	74 07		 je	 SHORT $LN82@operator@8
  000f1	34 eb		 xor	 al, -21			; ffffffebH
  000f3	88 45 fa	 mov	 BYTE PTR __t$[ebp+14], al
  000f6	eb 52		 jmp	 SHORT $LN1@operator@8
$LN82@operator@8:
  000f8	c6 45 fa eb	 mov	 BYTE PTR __t$[ebp+14], -21 ; ffffffebH
  000fc	eb 4c		 jmp	 SHORT $LN1@operator@8
$LN83@operator@8:
  000fe	c6 45 f9 ec	 mov	 BYTE PTR __t$[ebp+13], -20 ; ffffffecH
  00102	eb 46		 jmp	 SHORT $LN1@operator@8
$LN84@operator@8:
  00104	c6 45 f8 ed	 mov	 BYTE PTR __t$[ebp+12], -19 ; ffffffedH
  00108	eb 40		 jmp	 SHORT $LN1@operator@8
$LN85@operator@8:
  0010a	c6 45 f7 ea	 mov	 BYTE PTR __t$[ebp+11], -22 ; ffffffeaH
  0010e	eb 3a		 jmp	 SHORT $LN1@operator@8
$LN87@operator@8:
  00110	c6 45 f5 ec	 mov	 BYTE PTR __t$[ebp+9], -20 ; ffffffecH
  00114	eb 34		 jmp	 SHORT $LN1@operator@8
$LN88@operator@8:
  00116	c6 45 f4 ed	 mov	 BYTE PTR __t$[ebp+8], -19 ; ffffffedH
  0011a	eb 2e		 jmp	 SHORT $LN1@operator@8
$LN89@operator@8:
  0011c	c6 45 f3 ea	 mov	 BYTE PTR __t$[ebp+7], -22 ; ffffffeaH
  00120	eb 28		 jmp	 SHORT $LN1@operator@8
$LN90@operator@8:
  00122	c6 45 f2 eb	 mov	 BYTE PTR __t$[ebp+6], -21 ; ffffffebH
  00126	eb 22		 jmp	 SHORT $LN1@operator@8
$LN91@operator@8:
  00128	c6 45 f1 ec	 mov	 BYTE PTR __t$[ebp+5], -20 ; ffffffecH
  0012c	eb 1c		 jmp	 SHORT $LN1@operator@8
$LN92@operator@8:
  0012e	c6 45 f0 ed	 mov	 BYTE PTR __t$[ebp+4], -19 ; ffffffedH
  00132	eb 16		 jmp	 SHORT $LN1@operator@8
$LN93@operator@8:
  00134	c6 45 ef ea	 mov	 BYTE PTR __t$[ebp+3], -22 ; ffffffeaH
  00138	eb 10		 jmp	 SHORT $LN1@operator@8
$LN94@operator@8:
  0013a	c6 45 ee eb	 mov	 BYTE PTR __t$[ebp+2], -21 ; ffffffebH
  0013e	eb 0a		 jmp	 SHORT $LN1@operator@8
$LN95@operator@8:
  00140	c6 45 ed ec	 mov	 BYTE PTR __t$[ebp+1], -20 ; ffffffecH
  00144	eb 04		 jmp	 SHORT $LN1@operator@8
$LN96@operator@8:
  00146	c6 45 ec ed	 mov	 BYTE PTR __t$[ebp], -19	; ffffffedH
$LN1@operator@8:
  0014a	6a 02		 push	 2
  0014c	8d 45 ec	 lea	 eax, DWORD PTR __t$[ebp]
  0014f	c6 45 f6 00	 mov	 BYTE PTR __t$[ebp+10], 0
  00153	5a		 pop	 edx
$LL104@operator@8:
  00154	81 30 ed ec eb
	ea		 xor	 DWORD PTR [eax], -353637139 ; eaebecedH
  0015a	83 c0 04	 add	 eax, 4
  0015d	4a		 dec	 edx
  0015e	75 f4		 jne	 SHORT $LL104@operator@8
  00160	6a 08		 push	 8
  00162	58		 pop	 eax
$LL101@operator@8:
  00163	8b c8		 mov	 ecx, eax
  00165	81 e1 03 00 00
	80		 and	 ecx, -2147483645	; 80000003H
  0016b	79 05		 jns	 SHORT $LN115@operator@8
  0016d	49		 dec	 ecx
  0016e	83 c9 fc	 or	 ecx, -4			; fffffffcH
  00171	41		 inc	 ecx
$LN115@operator@8:
  00172	b2 ed		 mov	 dl, -19			; ffffffedH
  00174	2a d1		 sub	 dl, cl
  00176	30 54 05 ec	 xor	 BYTE PTR __t$[ebp+eax], dl
  0017a	40		 inc	 eax
  0017b	83 f8 0a	 cmp	 eax, 10			; 0000000aH
  0017e	7c e3		 jl	 SHORT $LL101@operator@8
  00180	8b cf		 mov	 ecx, edi
  00182	8d 75 ec	 lea	 esi, DWORD PTR __t$[ebp]
  00185	ff 15 00 00 00
	00		 call	 DWORD PTR __imp_?c_str@ioHashString@@QBEPBDXZ
$LL111@operator@8:
  0018b	8a 08		 mov	 cl, BYTE PTR [eax]
  0018d	3a 0e		 cmp	 cl, BYTE PTR [esi]
  0018f	75 1a		 jne	 SHORT $LN112@operator@8
  00191	84 c9		 test	 cl, cl
  00193	74 12		 je	 SHORT $LN113@operator@8
  00195	8a 48 01	 mov	 cl, BYTE PTR [eax+1]
  00198	3a 4e 01	 cmp	 cl, BYTE PTR [esi+1]
  0019b	75 0e		 jne	 SHORT $LN112@operator@8
  0019d	83 c0 02	 add	 eax, 2
  001a0	83 c6 02	 add	 esi, 2
  001a3	84 c9		 test	 cl, cl
  001a5	75 e4		 jne	 SHORT $LL111@operator@8
$LN113@operator@8:
  001a7	33 c0		 xor	 eax, eax
  001a9	eb 05		 jmp	 SHORT $LN114@operator@8
$LN112@operator@8:
  001ab	1b c0		 sbb	 eax, eax
  001ad	83 d8 ff	 sbb	 eax, -1
$LN114@operator@8:
  001b0	33 c9		 xor	 ecx, ecx
  001b2	85 c0		 test	 eax, eax
  001b4	0f 94 c0	 sete	 al

; 148  : }

  001b7	8b 4d fc	 mov	 ecx, DWORD PTR __$ArrayPad$[ebp]
  001ba	5f		 pop	 edi
  001bb	33 cd		 xor	 ecx, ebp
  001bd	5e		 pop	 esi
  001be	e8 00 00 00 00	 call	 @__security_check_cookie@4
  001c3	c9		 leave
  001c4	c3		 ret	 0
??$?8$0L@@@YA_NABVioHashString@@AAY0L@$$CBD@Z ENDP	; operator==<11>
_TEXT	ENDS
PUBLIC	??$_Cons_val@V?$allocator@URoundInfo@@@std@@URoundInfo@@AAU3@@std@@YAXAAV?$allocator@URoundInfo@@@0@PAURoundInfo@@AAU2@@Z ; std::_Cons_val<std::allocator<RoundInfo>,RoundInfo,RoundInfo &>
;	COMDAT xdata$x
; File c:\program files (x86)\microsoft visual studio 10.0\vc\include\utility
xdata$x	SEGMENT
__unwindtable$??$_Cons_val@V?$allocator@URoundInfo@@@std@@URoundInfo@@AAU3@@std@@YAXAAV?$allocator@URoundInfo@@@0@PAURoundInfo@@AAU2@@Z DD 0ffffffffH
	DD	FLAT:__unwindfunclet$??$_Cons_val@V?$allocator@URoundInfo@@@std@@URoundInfo@@AAU3@@std@@YAXAAV?$allocator@URoundInfo@@@0@PAURoundInfo@@AAU2@@Z$0
__ehfuncinfo$??$_Cons_val@V?$allocator@URoundInfo@@@std@@URoundInfo@@AAU3@@std@@YAXAAV?$allocator@URoundInfo@@@0@PAURoundInfo@@AAU2@@Z DD 019930522H
	DD	01H
	DD	FLAT:__unwindtable$??$_Cons_val@V?$allocator@URoundInfo@@@std@@URoundInfo@@AAU3@@std@@YAXAAV?$allocator@URoundInfo@@@0@PAURoundInfo@@AAU2@@Z
	DD	2 DUP(00H)
	DD	2 DUP(00H)
	DD	00H
	DD	01H
; Function compile flags: /Ogsp
; File c:\program files (x86)\microsoft visual studio 10.0\vc\include\xmemory
xdata$x	ENDS
;	COMDAT ??$_Cons_val@V?$allocator@URoundInfo@@@std@@URoundInfo@@AAU3@@std@@YAXAAV?$allocator@URoundInfo@@@0@PAURoundInfo@@AAU2@@Z
_TEXT	SEGMENT
$T536012 = -16						; size = 4
__$EHRec$ = -12						; size = 12
__Alval$ = 8						; size = 4
__Pdest$ = 12						; size = 4
__Src$ = 16						; size = 4
??$_Cons_val@V?$allocator@URoundInfo@@@std@@URoundInfo@@AAU3@@std@@YAXAAV?$allocator@URoundInfo@@@0@PAURoundInfo@@AAU2@@Z PROC ; std::_Cons_val<std::allocator<RoundInfo>,RoundInfo,RoundInfo &>, COMDAT

; 279  : 	{	// construct using allocator

  00000	6a 04		 push	 4
  00002	b8 00 00 00 00	 mov	 eax, __ehhandler$??$_Cons_val@V?$allocator@URoundInfo@@@std@@URoundInfo@@AAU3@@std@@YAXAAV?$allocator@URoundInfo@@@0@PAURoundInfo@@AAU2@@Z
  00007	e8 00 00 00 00	 call	 __EH_prolog3

; 280  : 	_Alval.construct(_Pdest, _STD forward<_Ty2>(_Src));

  0000c	8b 4d 0c	 mov	 ecx, DWORD PTR __Pdest$[ebp]
  0000f	89 4d f0	 mov	 DWORD PTR $T536012[ebp], ecx
  00012	83 65 fc 00	 and	 DWORD PTR __$EHRec$[ebp+8], 0
  00016	85 c9		 test	 ecx, ecx
  00018	74 08		 je	 SHORT $LN7@Cons_val
  0001a	ff 75 10	 push	 DWORD PTR __Src$[ebp]
  0001d	e8 00 00 00 00	 call	 ??0RoundInfo@@QAE@ABU0@@Z
$LN7@Cons_val:

; 281  : 	}

  00022	e8 00 00 00 00	 call	 __EH_epilog3
  00027	c3		 ret	 0
_TEXT	ENDS
;	COMDAT text$x
text$x	SEGMENT
__unwindfunclet$??$_Cons_val@V?$allocator@URoundInfo@@@std@@URoundInfo@@AAU3@@std@@YAXAAV?$allocator@URoundInfo@@@0@PAURoundInfo@@AAU2@@Z$0:
  00000	ff 75 0c	 push	 DWORD PTR __Pdest$[ebp]
  00003	ff 75 f0	 push	 DWORD PTR $T536012[ebp]
  00006	e8 00 00 00 00	 call	 ??3@YAXPAX0@Z		; operator delete
  0000b	59		 pop	 ecx
  0000c	59		 pop	 ecx
  0000d	c3		 ret	 0
__ehhandler$??$_Cons_val@V?$allocator@URoundInfo@@@std@@URoundInfo@@AAU3@@std@@YAXAAV?$allocator@URoundInfo@@@0@PAURoundInfo@@AAU2@@Z:
  0000e	8b 54 24 08	 mov	 edx, DWORD PTR [esp+8]
  00012	8d 42 0c	 lea	 eax, DWORD PTR [edx+12]
  00015	8b 4a ec	 mov	 ecx, DWORD PTR [edx-20]
  00018	33 c8		 xor	 ecx, eax
  0001a	e8 00 00 00 00	 call	 @__security_check_cookie@4
  0001f	b8 00 00 00 00	 mov	 eax, OFFSET __ehfuncinfo$??$_Cons_val@V?$allocator@URoundInfo@@@std@@URoundInfo@@AAU3@@std@@YAXAAV?$allocator@URoundInfo@@@0@PAURoundInfo@@AAU2@@Z
  00024	e9 00 00 00 00	 jmp	 ___CxxFrameHandler3
text$x	ENDS
??$_Cons_val@V?$allocator@URoundInfo@@@std@@URoundInfo@@AAU3@@std@@YAXAAV?$allocator@URoundInfo@@@0@PAURoundInfo@@AAU2@@Z ENDP ; std::_Cons_val<std::allocator<RoundInfo>,RoundInfo,RoundInfo &>
PUBLIC	?construct@?$allocator@URoundInfo@@@std@@QAEXPAURoundInfo@@ABU3@@Z ; std::allocator<RoundInfo>::construct
; Function compile flags: /Ogsp
;	COMDAT ?construct@?$allocator@URoundInfo@@@std@@QAEXPAURoundInfo@@ABU3@@Z
_TEXT	SEGMENT
__Ptr$ = 8						; size = 4
__Val$ = 12						; size = 4
?construct@?$allocator@URoundInfo@@@std@@QAEXPAURoundInfo@@ABU3@@Z PROC ; std::allocator<RoundInfo>::construct, COMDAT
; _this$ = ecx

; 196  : 		{	// construct object at _Ptr with value _Val

  00000	55		 push	 ebp
  00001	8b ec		 mov	 ebp, esp

; 197  : 		_Construct(_Ptr, _Val);

  00003	ff 75 0c	 push	 DWORD PTR __Val$[ebp]
  00006	ff 75 08	 push	 DWORD PTR __Ptr$[ebp]
  00009	e8 00 00 00 00	 call	 ??$_Construct@URoundInfo@@ABU1@@std@@YAXPAURoundInfo@@ABU1@@Z ; std::_Construct<RoundInfo,RoundInfo const &>
  0000e	59		 pop	 ecx
  0000f	59		 pop	 ecx

; 198  : 		}

  00010	5d		 pop	 ebp
  00011	c2 08 00	 ret	 8
?construct@?$allocator@URoundInfo@@@std@@QAEXPAURoundInfo@@ABU3@@Z ENDP ; std::allocator<RoundInfo>::construct
_TEXT	ENDS
PUBLIC	??$_Move@PAURoundInfo@@PAU1@@std@@YAPAURoundInfo@@PAU1@00U_Nonscalar_ptr_iterator_tag@0@@Z ; std::_Move<RoundInfo *,RoundInfo *>
; Function compile flags: /Ogsp
; File c:\program files (x86)\microsoft visual studio 10.0\vc\include\xutility
;	COMDAT ??$_Move@PAURoundInfo@@PAU1@@std@@YAPAURoundInfo@@PAU1@00U_Nonscalar_ptr_iterator_tag@0@@Z
_TEXT	SEGMENT
__First$ = 8						; size = 4
__Last$ = 12						; size = 4
__Dest$ = 16						; size = 4
___formal$ = 20						; size = 1
??$_Move@PAURoundInfo@@PAU1@@std@@YAPAURoundInfo@@PAU1@00U_Nonscalar_ptr_iterator_tag@0@@Z PROC ; std::_Move<RoundInfo *,RoundInfo *>, COMDAT

; 2512 : 	{	// move [_First, _Last) to [_Dest, ...), arbitrary iterators

  00000	55		 push	 ebp
  00001	8b ec		 mov	 ebp, esp
  00003	57		 push	 edi

; 2513 : 	for (; _First != _Last; ++_Dest, ++_First)

  00004	8b 7d 08	 mov	 edi, DWORD PTR __First$[ebp]
  00007	3b 7d 0c	 cmp	 edi, DWORD PTR __Last$[ebp]
  0000a	74 1a		 je	 SHORT $LN10@Move
  0000c	56		 push	 esi
  0000d	be 80 00 00 00	 mov	 esi, 128		; 00000080H
$LL3@Move:

; 2514 : 		*_Dest = _STD move(*_First);

  00012	8b 4d 10	 mov	 ecx, DWORD PTR __Dest$[ebp]
  00015	57		 push	 edi
  00016	e8 00 00 00 00	 call	 ??4RoundInfo@@QAEAAU0@ABU0@@Z
  0001b	01 75 10	 add	 DWORD PTR __Dest$[ebp], esi
  0001e	03 fe		 add	 edi, esi
  00020	3b 7d 0c	 cmp	 edi, DWORD PTR __Last$[ebp]
  00023	75 ed		 jne	 SHORT $LL3@Move
  00025	5e		 pop	 esi
$LN10@Move:

; 2515 : 	return (_Dest);

  00026	8b 45 10	 mov	 eax, DWORD PTR __Dest$[ebp]
  00029	5f		 pop	 edi

; 2516 : 	}

  0002a	5d		 pop	 ebp
  0002b	c3		 ret	 0
??$_Move@PAURoundInfo@@PAU1@@std@@YAPAURoundInfo@@PAU1@00U_Nonscalar_ptr_iterator_tag@0@@Z ENDP ; std::_Move<RoundInfo *,RoundInfo *>
_TEXT	ENDS
PUBLIC	??$_Destroy@URoundInfo@@@std@@YAXPAURoundInfo@@@Z ; std::_Destroy<RoundInfo>
; Function compile flags: /Ogsp
; File c:\program files (x86)\microsoft visual studio 10.0\vc\include\xmemory
;	COMDAT ??$_Destroy@URoundInfo@@@std@@YAXPAURoundInfo@@@Z
_TEXT	SEGMENT
__Ptr$ = 8						; size = 4
??$_Destroy@URoundInfo@@@std@@YAXPAURoundInfo@@@Z PROC	; std::_Destroy<RoundInfo>, COMDAT

; 62   : 	{	// destroy object at _Ptr

  00000	55		 push	 ebp
  00001	8b ec		 mov	 ebp, esp

; 63   : 	_Ptr->~_Ty();

  00003	8b 4d 08	 mov	 ecx, DWORD PTR __Ptr$[ebp]

; 64   : 	}

  00006	5d		 pop	 ebp

; 63   : 	_Ptr->~_Ty();

  00007	e9 00 00 00 00	 jmp	 ??1RoundInfo@@QAE@XZ
??$_Destroy@URoundInfo@@@std@@YAXPAURoundInfo@@@Z ENDP	; std::_Destroy<RoundInfo>
_TEXT	ENDS
PUBLIC	?construct@?$allocator@URoundInfo@@@std@@QAEXPAURoundInfo@@$$QAU3@@Z ; std::allocator<RoundInfo>::construct
;	COMDAT xdata$x
; File c:\program files (x86)\microsoft visual studio 10.0\vc\include\utility
xdata$x	SEGMENT
__unwindtable$?construct@?$allocator@URoundInfo@@@std@@QAEXPAURoundInfo@@$$QAU3@@Z DD 0ffffffffH
	DD	FLAT:__unwindfunclet$?construct@?$allocator@URoundInfo@@@std@@QAEXPAURoundInfo@@$$QAU3@@Z$0
__ehfuncinfo$?construct@?$allocator@URoundInfo@@@std@@QAEXPAURoundInfo@@$$QAU3@@Z DD 019930522H
	DD	01H
	DD	FLAT:__unwindtable$?construct@?$allocator@URoundInfo@@@std@@QAEXPAURoundInfo@@$$QAU3@@Z
	DD	2 DUP(00H)
	DD	2 DUP(00H)
	DD	00H
	DD	01H
; Function compile flags: /Ogsp
; File c:\program files (x86)\microsoft visual studio 10.0\vc\include\xmemory
xdata$x	ENDS
;	COMDAT ?construct@?$allocator@URoundInfo@@@std@@QAEXPAURoundInfo@@$$QAU3@@Z
_TEXT	SEGMENT
$T536046 = -16						; size = 4
__$EHRec$ = -12						; size = 12
__Ptr$ = 8						; size = 4
__Val$ = 12						; size = 4
?construct@?$allocator@URoundInfo@@@std@@QAEXPAURoundInfo@@$$QAU3@@Z PROC ; std::allocator<RoundInfo>::construct, COMDAT
; _this$ = ecx

; 201  : 		{	// construct object at _Ptr with value _Val

  00000	6a 04		 push	 4
  00002	b8 00 00 00 00	 mov	 eax, __ehhandler$?construct@?$allocator@URoundInfo@@@std@@QAEXPAURoundInfo@@$$QAU3@@Z
  00007	e8 00 00 00 00	 call	 __EH_prolog3

; 202  : 		::new ((void _FARQ *)_Ptr) _Ty(_STD forward<_Ty>(_Val));

  0000c	8b 4d 08	 mov	 ecx, DWORD PTR __Ptr$[ebp]
  0000f	89 4d f0	 mov	 DWORD PTR $T536046[ebp], ecx
  00012	83 65 fc 00	 and	 DWORD PTR __$EHRec$[ebp+8], 0
  00016	85 c9		 test	 ecx, ecx
  00018	74 08		 je	 SHORT $LN3@construct@2
  0001a	ff 75 0c	 push	 DWORD PTR __Val$[ebp]
  0001d	e8 00 00 00 00	 call	 ??0RoundInfo@@QAE@ABU0@@Z
$LN3@construct@2:

; 203  : 		}

  00022	e8 00 00 00 00	 call	 __EH_epilog3
  00027	c2 08 00	 ret	 8
_TEXT	ENDS
;	COMDAT text$x
text$x	SEGMENT
__unwindfunclet$?construct@?$allocator@URoundInfo@@@std@@QAEXPAURoundInfo@@$$QAU3@@Z$0:
  00000	ff 75 08	 push	 DWORD PTR __Ptr$[ebp]
  00003	ff 75 f0	 push	 DWORD PTR $T536046[ebp]
  00006	e8 00 00 00 00	 call	 ??3@YAXPAX0@Z		; operator delete
  0000b	59		 pop	 ecx
  0000c	59		 pop	 ecx
  0000d	c3		 ret	 0
__ehhandler$?construct@?$allocator@URoundInfo@@@std@@QAEXPAURoundInfo@@$$QAU3@@Z:
  0000e	8b 54 24 08	 mov	 edx, DWORD PTR [esp+8]
  00012	8d 42 0c	 lea	 eax, DWORD PTR [edx+12]
  00015	8b 4a ec	 mov	 ecx, DWORD PTR [edx-20]
  00018	33 c8		 xor	 ecx, eax
  0001a	e8 00 00 00 00	 call	 @__security_check_cookie@4
  0001f	b8 00 00 00 00	 mov	 eax, OFFSET __ehfuncinfo$?construct@?$allocator@URoundInfo@@@std@@QAEXPAURoundInfo@@$$QAU3@@Z
  00024	e9 00 00 00 00	 jmp	 ___CxxFrameHandler3
text$x	ENDS
?construct@?$allocator@URoundInfo@@@std@@QAEXPAURoundInfo@@$$QAU3@@Z ENDP ; std::allocator<RoundInfo>::construct
PUBLIC	??B?$CEncrypt@M@@QAEMXZ				; CEncrypt<float>::operator float
; Function compile flags: /Ogsp
; File d:\lost saga for developer\youtube\tutorial\source\src\lsclient\encryptvalue.h
;	COMDAT ??B?$CEncrypt@M@@QAEMXZ
_TEXT	SEGMENT
_value$ = -4						; size = 4
??B?$CEncrypt@M@@QAEMXZ PROC				; CEncrypt<float>::operator float, COMDAT
; _this$ = ecx

; 134  : 	{

  00000	55		 push	 ebp
  00001	8b ec		 mov	 ebp, esp
  00003	51		 push	 ecx

; 135  : 		type value;
; 136  : 		DecryptValueToPool(&value);

  00004	8d 45 fc	 lea	 eax, DWORD PTR _value$[ebp]
  00007	50		 push	 eax
  00008	e8 00 00 00 00	 call	 ?DecryptValueToPool@?$CEncrypt@M@@QAEXPAM@Z ; CEncrypt<float>::DecryptValueToPool

; 137  : 
; 138  : #ifdef _NOTUSE
; 139  : 		Debug();
; 140  : #endif
; 141  : 		return value;

  0000d	d9 45 fc	 fld	 DWORD PTR _value$[ebp]

; 142  : 	}

  00010	c9		 leave
  00011	c3		 ret	 0
??B?$CEncrypt@M@@QAEMXZ ENDP				; CEncrypt<float>::operator float
_TEXT	ENDS
PUBLIC	??B?$CEncrypt@M@@QBEMXZ				; CEncrypt<float>::operator float
; Function compile flags: /Ogsp
;	COMDAT ??B?$CEncrypt@M@@QBEMXZ
_TEXT	SEGMENT
_value$ = -4						; size = 4
??B?$CEncrypt@M@@QBEMXZ PROC				; CEncrypt<float>::operator float, COMDAT
; _this$ = ecx

; 145  : 	{

  00000	55		 push	 ebp
  00001	8b ec		 mov	 ebp, esp
  00003	51		 push	 ecx

; 146  : 		//UJ 130829, const    --start
; 147  : 		type value;
; 148  : 		CEncrypt<type>* pThis = const_cast<CEncrypt<type>*>(this);
; 149  : 		pThis->DecryptValueToPool(&value);

  00004	8d 45 fc	 lea	 eax, DWORD PTR _value$[ebp]
  00007	50		 push	 eax
  00008	e8 00 00 00 00	 call	 ?DecryptValueToPool@?$CEncrypt@M@@QAEXPAM@Z ; CEncrypt<float>::DecryptValueToPool

; 150  : 		//// const DecryptValueToPool     .
; 151  :  		//type value;
; 152  : 		//char szTempMem[MAX_ENCRYPT];
; 153  : 		//m_RC5.DecryptByte( m_MemPool, szTempMem, max(m_ValueSize, DEFAULT_ENCRYPT) );
; 154  : 		//memcpy( &value, szTempMem, m_ValueSize );
; 155  : 		//UJ --end
; 156  : 
; 157  : #ifdef _NOTUSE
; 158  : 		Debug();
; 159  : #endif
; 160  : 		return value;

  0000d	d9 45 fc	 fld	 DWORD PTR _value$[ebp]

; 161  : 	}

  00010	c9		 leave
  00011	c3		 ret	 0
??B?$CEncrypt@M@@QBEMXZ ENDP				; CEncrypt<float>::operator float
_TEXT	ENDS
PUBLIC	??4?$CEncrypt@M@@QAEMM@Z			; CEncrypt<float>::operator=
; Function compile flags: /Ogsp
;	COMDAT ??4?$CEncrypt@M@@QAEMM@Z
_TEXT	SEGMENT
_value$ = 8						; size = 4
_inValue$ = 8						; size = 4
??4?$CEncrypt@M@@QAEMM@Z PROC				; CEncrypt<float>::operator=, COMDAT
; _this$ = ecx

; 1654 : 	{	

  00000	55		 push	 ebp
  00001	8b ec		 mov	 ebp, esp

; 1655 : 		type value = inValue;

  00003	d9 45 08	 fld	 DWORD PTR _inValue$[ebp]

; 1656 : 		EncryptValueToPool((char*)&value);

  00006	8d 45 08	 lea	 eax, DWORD PTR _value$[ebp]
  00009	50		 push	 eax
  0000a	d9 5d 08	 fstp	 DWORD PTR _value$[ebp]
  0000d	e8 00 00 00 00	 call	 ?EncryptValueToPool@?$CEncrypt@M@@AAEXPBD@Z ; CEncrypt<float>::EncryptValueToPool

; 1657 : #ifdef _NOTUSE
; 1658 : 		m_value = inValue;
; 1659 : 		Debug();
; 1660 : #endif
; 1661 : 		return value;

  00012	d9 45 08	 fld	 DWORD PTR _value$[ebp]

; 1662 : 	}

  00015	5d		 pop	 ebp
  00016	c2 04 00	 ret	 4
??4?$CEncrypt@M@@QAEMM@Z ENDP				; CEncrypt<float>::operator=
_TEXT	ENDS
PUBLIC	??B?$CEncrypt@K@@QBEKXZ				; CEncrypt<unsigned long>::operator unsigned long
; Function compile flags: /Ogsp
;	COMDAT ??B?$CEncrypt@K@@QBEKXZ
_TEXT	SEGMENT
_value$ = -4						; size = 4
??B?$CEncrypt@K@@QBEKXZ PROC				; CEncrypt<unsigned long>::operator unsigned long, COMDAT
; _this$ = ecx

; 145  : 	{

  00000	55		 push	 ebp
  00001	8b ec		 mov	 ebp, esp
  00003	51		 push	 ecx

; 146  : 		//UJ 130829, const    --start
; 147  : 		type value;
; 148  : 		CEncrypt<type>* pThis = const_cast<CEncrypt<type>*>(this);
; 149  : 		pThis->DecryptValueToPool(&value);

  00004	8d 45 fc	 lea	 eax, DWORD PTR _value$[ebp]
  00007	50		 push	 eax
  00008	e8 00 00 00 00	 call	 ?DecryptValueToPool@?$CEncrypt@K@@QAEXPAK@Z ; CEncrypt<unsigned long>::DecryptValueToPool

; 150  : 		//// const DecryptValueToPool     .
; 151  :  		//type value;
; 152  : 		//char szTempMem[MAX_ENCRYPT];
; 153  : 		//m_RC5.DecryptByte( m_MemPool, szTempMem, max(m_ValueSize, DEFAULT_ENCRYPT) );
; 154  : 		//memcpy( &value, szTempMem, m_ValueSize );
; 155  : 		//UJ --end
; 156  : 
; 157  : #ifdef _NOTUSE
; 158  : 		Debug();
; 159  : #endif
; 160  : 		return value;

  0000d	8b 45 fc	 mov	 eax, DWORD PTR _value$[ebp]

; 161  : 	}

  00010	c9		 leave
  00011	c3		 ret	 0
??B?$CEncrypt@K@@QBEKXZ ENDP				; CEncrypt<unsigned long>::operator unsigned long
_TEXT	ENDS
PUBLIC	??4?$CEncrypt@K@@QAEKK@Z			; CEncrypt<unsigned long>::operator=
; Function compile flags: /Ogsp
;	COMDAT ??4?$CEncrypt@K@@QAEKK@Z
_TEXT	SEGMENT
_value$ = 8						; size = 4
_inValue$ = 8						; size = 4
??4?$CEncrypt@K@@QAEKK@Z PROC				; CEncrypt<unsigned long>::operator=, COMDAT
; _this$ = ecx

; 1262 : 	{

  00000	55		 push	 ebp
  00001	8b ec		 mov	 ebp, esp

; 1263 : 		
; 1264 : 		type value = inValue;

  00003	8b 45 08	 mov	 eax, DWORD PTR _inValue$[ebp]
  00006	89 45 08	 mov	 DWORD PTR _value$[ebp], eax

; 1265 : 		EncryptValueToPool((char*)&value);

  00009	8d 45 08	 lea	 eax, DWORD PTR _value$[ebp]
  0000c	50		 push	 eax
  0000d	e8 00 00 00 00	 call	 ?EncryptValueToPool@?$CEncrypt@K@@AAEXPBD@Z ; CEncrypt<unsigned long>::EncryptValueToPool

; 1266 : #ifdef _NOTUSE
; 1267 : 		m_value = inValue;
; 1268 : 		Debug();
; 1269 : #endif
; 1270 : 		return value;

  00012	8b 45 08	 mov	 eax, DWORD PTR _value$[ebp]

; 1271 : 	}

  00015	5d		 pop	 ebp
  00016	c2 04 00	 ret	 4
??4?$CEncrypt@K@@QAEKK@Z ENDP				; CEncrypt<unsigned long>::operator=
_TEXT	ENDS
PUBLIC	??B?$CEncrypt@_N@@QBE_NXZ			; CEncrypt<bool>::operator bool
; Function compile flags: /Ogsp
;	COMDAT ??B?$CEncrypt@_N@@QBE_NXZ
_TEXT	SEGMENT
_value$ = -1						; size = 1
??B?$CEncrypt@_N@@QBE_NXZ PROC				; CEncrypt<bool>::operator bool, COMDAT
; _this$ = ecx

; 145  : 	{

  00000	55		 push	 ebp
  00001	8b ec		 mov	 ebp, esp
  00003	51		 push	 ecx

; 146  : 		//UJ 130829, const    --start
; 147  : 		type value;
; 148  : 		CEncrypt<type>* pThis = const_cast<CEncrypt<type>*>(this);
; 149  : 		pThis->DecryptValueToPool(&value);

  00004	8d 45 ff	 lea	 eax, DWORD PTR _value$[ebp]
  00007	50		 push	 eax
  00008	e8 00 00 00 00	 call	 ?DecryptValueToPool@?$CEncrypt@_N@@QAEXPA_N@Z ; CEncrypt<bool>::DecryptValueToPool

; 150  : 		//// const DecryptValueToPool     .
; 151  :  		//type value;
; 152  : 		//char szTempMem[MAX_ENCRYPT];
; 153  : 		//m_RC5.DecryptByte( m_MemPool, szTempMem, max(m_ValueSize, DEFAULT_ENCRYPT) );
; 154  : 		//memcpy( &value, szTempMem, m_ValueSize );
; 155  : 		//UJ --end
; 156  : 
; 157  : #ifdef _NOTUSE
; 158  : 		Debug();
; 159  : #endif
; 160  : 		return value;

  0000d	8a 45 ff	 mov	 al, BYTE PTR _value$[ebp]

; 161  : 	}

  00010	c9		 leave
  00011	c3		 ret	 0
??B?$CEncrypt@_N@@QBE_NXZ ENDP				; CEncrypt<bool>::operator bool
_TEXT	ENDS
PUBLIC	?IsPrisonerMode@ioBaseChar@@QBE_NXZ		; ioBaseChar::IsPrisonerMode
; Function compile flags: /Ogsp
; File d:\lost saga for developer\youtube\tutorial\source\src\lsclient\iobasechar.h
;	COMDAT ?IsPrisonerMode@ioBaseChar@@QBE_NXZ
_TEXT	SEGMENT
_value$536079 = -1					; size = 1
?IsPrisonerMode@ioBaseChar@@QBE_NXZ PROC		; ioBaseChar::IsPrisonerMode, COMDAT
; _this$ = ecx

; 2130 : 	inline bool IsPrisonerMode() const { return m_bPrisonerMode; }

  00000	55		 push	 ebp
  00001	8b ec		 mov	 ebp, esp
  00003	51		 push	 ecx
  00004	8d 45 ff	 lea	 eax, DWORD PTR _value$536079[ebp]
  00007	50		 push	 eax
  00008	81 c1 cc 14 00
	00		 add	 ecx, 5324		; 000014ccH
  0000e	e8 00 00 00 00	 call	 ?DecryptValueToPool@?$CEncrypt@_N@@QAEXPA_N@Z ; CEncrypt<bool>::DecryptValueToPool
  00013	8a 45 ff	 mov	 al, BYTE PTR _value$536079[ebp]
  00016	c9		 leave
  00017	c3		 ret	 0
?IsPrisonerMode@ioBaseChar@@QBE_NXZ ENDP		; ioBaseChar::IsPrisonerMode
_TEXT	ENDS
PUBLIC	_this$GSCopy$
PUBLIC	_pImage$GSCopy$
PUBLIC	_szType$GSCopy$
PUBLIC	__$ArrayPad$
PUBLIC	?AddRenderImage@ioObserverRedWnd@@UAEXABVioHashString@@PAVioUIRenderImage@@@Z ; ioObserverRedWnd::AddRenderImage
EXTRN	__imp_?AddRenderImage@ioWnd@@UAEXABVioHashString@@PAVioUIRenderImage@@@Z:PROC
; Function compile flags: /Ogsp
; File d:\lost saga for developer\youtube\tutorial\source\src\lsclient\gui\ioobserverwnd.cpp
;	COMDAT ?AddRenderImage@ioObserverRedWnd@@UAEXABVioHashString@@PAVioUIRenderImage@@@Z
_TEXT	SEGMENT
_this$GSCopy$ = -420					; size = 4
_pImage$GSCopy$ = -416					; size = 4
_szType$GSCopy$ = -412					; size = 4
__t$536194 = -408					; size = 9
__t$536569 = -392					; size = 9
__t$536832 = -376					; size = 9
__t$538707 = -360					; size = 13
__t$538944 = -340					; size = 13
__t$538569 = -320					; size = 13
__t$538832 = -300					; size = 13
__t$538444 = -280					; size = 13
__t$538319 = -260					; size = 13
__t$538194 = -240					; size = 13
__t$539069 = -220					; size = 13
__t$537944 = -200					; size = 12
__t$537082 = -184					; size = 10
__t$537819 = -168					; size = 12
__t$538069 = -152					; size = 12
__t$537569 = -136					; size = 12
__t$536444 = -120					; size = 10
__t$537319 = -104					; size = 12
__t$537194 = -88					; size = 12
__t$537707 = -72					; size = 12
__t$537444 = -56					; size = 12
__t$536319 = -40					; size = 8
__t$536707 = -28					; size = 8
__t$537036 = -16					; size = 7
__$ArrayPad$ = -4					; size = 4
_szType$ = 8						; size = 4
_pImage$ = 12						; size = 4
?AddRenderImage@ioObserverRedWnd@@UAEXABVioHashString@@PAVioUIRenderImage@@@Z PROC ; ioObserverRedWnd::AddRenderImage, COMDAT
; _this$ = ecx

; 135  : {

  00000	55		 push	 ebp
  00001	8b ec		 mov	 ebp, esp
  00003	81 ec a4 01 00
	00		 sub	 esp, 420		; 000001a4H
  00009	a1 00 00 00 00	 mov	 eax, DWORD PTR ___security_cookie
  0000e	33 c5		 xor	 eax, ebp
  00010	89 45 fc	 mov	 DWORD PTR __$ArrayPad$[ebp], eax

; 214  : 		m_pRedKeyText[7] = pImage;

  00013	8b 45 08	 mov	 eax, DWORD PTR _szType$[ebp]
  00016	53		 push	 ebx
  00017	56		 push	 esi
  00018	57		 push	 edi
  00019	89 85 64 fe ff
	ff		 mov	 DWORD PTR _szType$GSCopy$[ebp], eax
  0001f	8b 45 0c	 mov	 eax, DWORD PTR _pImage$[ebp]
  00022	8b f9		 mov	 edi, ecx
  00024	33 db		 xor	 ebx, ebx
  00026	6a 02		 push	 2
  00028	89 85 60 fe ff
	ff		 mov	 DWORD PTR _pImage$GSCopy$[ebp], eax

; 250  : 	}
; 251  : 	else if( szType == "BlueKeyTextI" )

  0002e	89 bd 5c fe ff
	ff		 mov	 DWORD PTR _this$GSCopy$[ebp], edi
  00034	c7 85 68 fe ff
	ff af 80 9e 8f	 mov	 DWORD PTR __t$536194[ebp], -1885437777 ; 8f9e80afH
  0003e	c7 85 6c fe ff
	ff af 8d 88 81	 mov	 DWORD PTR __t$536194[ebp+4], -2121757265 ; 81888dafH
  00048	8d 85 68 fe ff
	ff		 lea	 eax, DWORD PTR __t$536194[ebp]
  0004e	88 9d 70 fe ff
	ff		 mov	 BYTE PTR __t$536194[ebp+8], bl
  00054	59		 pop	 ecx
$LL226@AddRenderI:

; 136  : 	if( szType == "BlueBack" )

  00055	81 30 ed ec eb
	ea		 xor	 DWORD PTR [eax], -353637139 ; eaebecedH
  0005b	83 c0 04	 add	 eax, 4
  0005e	49		 dec	 ecx
  0005f	75 f4		 jne	 SHORT $LL226@AddRenderI
  00061	8b 8d 64 fe ff
	ff		 mov	 ecx, DWORD PTR _szType$GSCopy$[ebp]
  00067	8d b5 68 fe ff
	ff		 lea	 esi, DWORD PTR __t$536194[ebp]
  0006d	ff 15 00 00 00
	00		 call	 DWORD PTR __imp_?c_str@ioHashString@@QBEPBDXZ
$LL2786@AddRenderI:
  00073	8a 08		 mov	 cl, BYTE PTR [eax]
  00075	3a 0e		 cmp	 cl, BYTE PTR [esi]
  00077	75 1a		 jne	 SHORT $LN2787@AddRenderI
  00079	3a cb		 cmp	 cl, bl
  0007b	74 12		 je	 SHORT $LN2788@AddRenderI
  0007d	8a 48 01	 mov	 cl, BYTE PTR [eax+1]
  00080	3a 4e 01	 cmp	 cl, BYTE PTR [esi+1]
  00083	75 0e		 jne	 SHORT $LN2787@AddRenderI
  00085	83 c0 02	 add	 eax, 2
  00088	83 c6 02	 add	 esi, 2
  0008b	3a cb		 cmp	 cl, bl
  0008d	75 e4		 jne	 SHORT $LL2786@AddRenderI
$LN2788@AddRenderI:
  0008f	33 c0		 xor	 eax, eax
  00091	eb 05		 jmp	 SHORT $LN2789@AddRenderI
$LN2787@AddRenderI:
  00093	1b c0		 sbb	 eax, eax
  00095	83 d8 ff	 sbb	 eax, -1
$LN2789@AddRenderI:
  00098	3b c3		 cmp	 eax, ebx
  0009a	75 30		 jne	 SHORT $LN2763@AddRenderI

; 137  : 	{
; 138  : 		SAFEDELETE( m_pBlueBack );

  0009c	39 9f 98 01 00
	00		 cmp	 DWORD PTR [edi+408], ebx
  000a2	74 17		 je	 SHORT $LN71@AddRenderI
  000a4	8b 8f 98 01 00
	00		 mov	 ecx, DWORD PTR [edi+408]
  000aa	3b cb		 cmp	 ecx, ebx
  000ac	74 07		 je	 SHORT $LN75@AddRenderI
  000ae	8b 01		 mov	 eax, DWORD PTR [ecx]
  000b0	6a 01		 push	 1
  000b2	ff 50 40	 call	 DWORD PTR [eax+64]
$LN75@AddRenderI:
  000b5	89 9f 98 01 00
	00		 mov	 DWORD PTR [edi+408], ebx
$LN71@AddRenderI:

; 139  : 		m_pBlueBack = pImage;

  000bb	8b 85 60 fe ff
	ff		 mov	 eax, DWORD PTR _pImage$GSCopy$[ebp]
  000c1	89 87 98 01 00
	00		 mov	 DWORD PTR [edi+408], eax
  000c7	e9 8a 0f 00 00	 jmp	 $LN1@AddRenderI
$LN2763@AddRenderI:

; 140  : 	}
; 141  : 	else if( szType == "RedBack" )

  000cc	6a 04		 push	 4
  000ce	c7 45 d8 bf 89
	8f a8		 mov	 DWORD PTR __t$536319[ebp], -1466988097 ; a88f89bfH
  000d5	81 75 d8 ed ec
	eb ea		 xor	 DWORD PTR __t$536319[ebp], -353637139 ; eaebecedH
  000dc	c7 45 dc 8c 8f
	80 00		 mov	 DWORD PTR __t$536319[ebp+4], 8425356 ; 00808f8cH
  000e3	58		 pop	 eax
$LL329@AddRenderI:
  000e4	8b c8		 mov	 ecx, eax
  000e6	81 e1 03 00 00
	80		 and	 ecx, -2147483645	; 80000003H
  000ec	79 05		 jns	 SHORT $LN2894@AddRenderI
  000ee	49		 dec	 ecx
  000ef	83 c9 fc	 or	 ecx, -4			; fffffffcH
  000f2	41		 inc	 ecx
$LN2894@AddRenderI:
  000f3	b2 ed		 mov	 dl, -19			; ffffffedH
  000f5	2a d1		 sub	 dl, cl
  000f7	30 54 05 d8	 xor	 BYTE PTR __t$536319[ebp+eax], dl
  000fb	40		 inc	 eax
  000fc	83 f8 07	 cmp	 eax, 7
  000ff	7c e3		 jl	 SHORT $LL329@AddRenderI
  00101	8b 8d 64 fe ff
	ff		 mov	 ecx, DWORD PTR _szType$GSCopy$[ebp]
  00107	8d 75 d8	 lea	 esi, DWORD PTR __t$536319[ebp]
  0010a	ff 15 00 00 00
	00		 call	 DWORD PTR __imp_?c_str@ioHashString@@QBEPBDXZ
$LL2790@AddRenderI:
  00110	8a 08		 mov	 cl, BYTE PTR [eax]
  00112	3a 0e		 cmp	 cl, BYTE PTR [esi]
  00114	75 1a		 jne	 SHORT $LN2791@AddRenderI
  00116	3a cb		 cmp	 cl, bl
  00118	74 12		 je	 SHORT $LN2882@AddRenderI
  0011a	8a 48 01	 mov	 cl, BYTE PTR [eax+1]
  0011d	3a 4e 01	 cmp	 cl, BYTE PTR [esi+1]
  00120	75 0e		 jne	 SHORT $LN2791@AddRenderI
  00122	83 c0 02	 add	 eax, 2
  00125	83 c6 02	 add	 esi, 2
  00128	3a cb		 cmp	 cl, bl
  0012a	75 e4		 jne	 SHORT $LL2790@AddRenderI
$LN2882@AddRenderI:
  0012c	33 c0		 xor	 eax, eax
  0012e	eb 05		 jmp	 SHORT $LN2793@AddRenderI
$LN2791@AddRenderI:
  00130	1b c0		 sbb	 eax, eax
  00132	83 d8 ff	 sbb	 eax, -1
$LN2793@AddRenderI:
  00135	3b c3		 cmp	 eax, ebx
  00137	75 30		 jne	 SHORT $LN2764@AddRenderI

; 142  : 	{
; 143  : 		SAFEDELETE( m_pRedBack );

  00139	39 9f 9c 01 00
	00		 cmp	 DWORD PTR [edi+412], ebx
  0013f	74 17		 je	 SHORT $LN68@AddRenderI
  00141	8b 8f 9c 01 00
	00		 mov	 ecx, DWORD PTR [edi+412]
  00147	3b cb		 cmp	 ecx, ebx
  00149	74 07		 je	 SHORT $LN77@AddRenderI
  0014b	8b 01		 mov	 eax, DWORD PTR [ecx]
  0014d	6a 01		 push	 1
  0014f	ff 50 40	 call	 DWORD PTR [eax+64]
$LN77@AddRenderI:
  00152	89 9f 9c 01 00
	00		 mov	 DWORD PTR [edi+412], ebx
$LN68@AddRenderI:

; 144  : 		m_pRedBack = pImage;

  00158	8b 85 60 fe ff
	ff		 mov	 eax, DWORD PTR _pImage$GSCopy$[ebp]
  0015e	89 87 9c 01 00
	00		 mov	 DWORD PTR [edi+412], eax
  00164	e9 ed 0e 00 00	 jmp	 $LN1@AddRenderI
$LN2764@AddRenderI:

; 145  : 	}
; 146  : 	else if( szType == "BlueGauge" )

  00169	6a 02		 push	 2
  0016b	c7 45 88 af 80
	9e 8f		 mov	 DWORD PTR __t$536444[ebp], -1885437777 ; 8f9e80afH
  00172	c7 45 8c aa 8d
	9e 8d		 mov	 DWORD PTR __t$536444[ebp+4], -1918988886 ; 8d9e8daaH
  00179	8d 45 88	 lea	 eax, DWORD PTR __t$536444[ebp]
  0017c	66 c7 45 90 88
	00		 mov	 WORD PTR __t$536444[ebp+8], 136 ; 00000088H
  00182	59		 pop	 ecx
$LL438@AddRenderI:
  00183	81 30 ed ec eb
	ea		 xor	 DWORD PTR [eax], -353637139 ; eaebecedH
  00189	83 c0 04	 add	 eax, 4
  0018c	49		 dec	 ecx
  0018d	75 f4		 jne	 SHORT $LL438@AddRenderI
  0018f	8b 8d 64 fe ff
	ff		 mov	 ecx, DWORD PTR _szType$GSCopy$[ebp]
  00195	80 75 90 ed	 xor	 BYTE PTR __t$536444[ebp+8], -19 ; ffffffedH
  00199	8d 75 88	 lea	 esi, DWORD PTR __t$536444[ebp]
  0019c	ff 15 00 00 00
	00		 call	 DWORD PTR __imp_?c_str@ioHashString@@QBEPBDXZ
$LL2794@AddRenderI:
  001a2	8a 08		 mov	 cl, BYTE PTR [eax]
  001a4	3a 0e		 cmp	 cl, BYTE PTR [esi]
  001a6	75 1a		 jne	 SHORT $LN2795@AddRenderI
  001a8	3a cb		 cmp	 cl, bl
  001aa	74 12		 je	 SHORT $LN2883@AddRenderI
  001ac	8a 48 01	 mov	 cl, BYTE PTR [eax+1]
  001af	3a 4e 01	 cmp	 cl, BYTE PTR [esi+1]
  001b2	75 0e		 jne	 SHORT $LN2795@AddRenderI
  001b4	83 c0 02	 add	 eax, 2
  001b7	83 c6 02	 add	 esi, 2
  001ba	3a cb		 cmp	 cl, bl
  001bc	75 e4		 jne	 SHORT $LL2794@AddRenderI
$LN2883@AddRenderI:
  001be	33 c0		 xor	 eax, eax
  001c0	eb 05		 jmp	 SHORT $LN2797@AddRenderI
$LN2795@AddRenderI:
  001c2	1b c0		 sbb	 eax, eax
  001c4	83 d8 ff	 sbb	 eax, -1
$LN2797@AddRenderI:
  001c7	3b c3		 cmp	 eax, ebx
  001c9	75 30		 jne	 SHORT $LN2765@AddRenderI

; 147  : 	{
; 148  : 		SAFEDELETE( m_pBlueGauge );

  001cb	39 9f a0 01 00
	00		 cmp	 DWORD PTR [edi+416], ebx
  001d1	74 17		 je	 SHORT $LN65@AddRenderI
  001d3	8b 8f a0 01 00
	00		 mov	 ecx, DWORD PTR [edi+416]
  001d9	3b cb		 cmp	 ecx, ebx
  001db	74 07		 je	 SHORT $LN79@AddRenderI
  001dd	8b 01		 mov	 eax, DWORD PTR [ecx]
  001df	6a 01		 push	 1
  001e1	ff 50 40	 call	 DWORD PTR [eax+64]
$LN79@AddRenderI:
  001e4	89 9f a0 01 00
	00		 mov	 DWORD PTR [edi+416], ebx
$LN65@AddRenderI:

; 149  : 		m_pBlueGauge = pImage;

  001ea	8b 85 60 fe ff
	ff		 mov	 eax, DWORD PTR _pImage$GSCopy$[ebp]
  001f0	89 87 a0 01 00
	00		 mov	 DWORD PTR [edi+416], eax
  001f6	e9 5b 0e 00 00	 jmp	 $LN1@AddRenderI
$LN2765@AddRenderI:

; 150  : 	}
; 151  : 	else if( szType == "RedGauge" )

  001fb	6a 02		 push	 2
  001fd	c7 85 78 fe ff
	ff bf 89 8f ad	 mov	 DWORD PTR __t$536569[ebp], -1383102017 ; ad8f89bfH
  00207	c7 85 7c fe ff
	ff 8c 99 8c 8f	 mov	 DWORD PTR __t$536569[ebp+4], -1886611060 ; 8f8c998cH
  00211	8d 85 78 fe ff
	ff		 lea	 eax, DWORD PTR __t$536569[ebp]
  00217	88 9d 80 fe ff
	ff		 mov	 BYTE PTR __t$536569[ebp+8], bl
  0021d	59		 pop	 ecx
$LL544@AddRenderI:
  0021e	81 30 ed ec eb
	ea		 xor	 DWORD PTR [eax], -353637139 ; eaebecedH
  00224	83 c0 04	 add	 eax, 4
  00227	49		 dec	 ecx
  00228	75 f4		 jne	 SHORT $LL544@AddRenderI
  0022a	8b 8d 64 fe ff
	ff		 mov	 ecx, DWORD PTR _szType$GSCopy$[ebp]
  00230	8d b5 78 fe ff
	ff		 lea	 esi, DWORD PTR __t$536569[ebp]
  00236	ff 15 00 00 00
	00		 call	 DWORD PTR __imp_?c_str@ioHashString@@QBEPBDXZ
$LL2798@AddRenderI:
  0023c	8a 08		 mov	 cl, BYTE PTR [eax]
  0023e	3a 0e		 cmp	 cl, BYTE PTR [esi]
  00240	75 1a		 jne	 SHORT $LN2799@AddRenderI
  00242	3a cb		 cmp	 cl, bl
  00244	74 12		 je	 SHORT $LN2800@AddRenderI
  00246	8a 48 01	 mov	 cl, BYTE PTR [eax+1]
  00249	3a 4e 01	 cmp	 cl, BYTE PTR [esi+1]
  0024c	75 0e		 jne	 SHORT $LN2799@AddRenderI
  0024e	83 c0 02	 add	 eax, 2
  00251	83 c6 02	 add	 esi, 2
  00254	3a cb		 cmp	 cl, bl
  00256	75 e4		 jne	 SHORT $LL2798@AddRenderI
$LN2800@AddRenderI:
  00258	33 c0		 xor	 eax, eax
  0025a	eb 05		 jmp	 SHORT $LN2801@AddRenderI
$LN2799@AddRenderI:
  0025c	1b c0		 sbb	 eax, eax
  0025e	83 d8 ff	 sbb	 eax, -1
$LN2801@AddRenderI:
  00261	3b c3		 cmp	 eax, ebx
  00263	75 30		 jne	 SHORT $LN2766@AddRenderI

; 152  : 	{
; 153  : 		SAFEDELETE( m_pRedGauge );

  00265	39 9f a4 01 00
	00		 cmp	 DWORD PTR [edi+420], ebx
  0026b	74 17		 je	 SHORT $LN62@AddRenderI
  0026d	8b 8f a4 01 00
	00		 mov	 ecx, DWORD PTR [edi+420]
  00273	3b cb		 cmp	 ecx, ebx
  00275	74 07		 je	 SHORT $LN81@AddRenderI
  00277	8b 01		 mov	 eax, DWORD PTR [ecx]
  00279	6a 01		 push	 1
  0027b	ff 50 40	 call	 DWORD PTR [eax+64]
$LN81@AddRenderI:
  0027e	89 9f a4 01 00
	00		 mov	 DWORD PTR [edi+420], ebx
$LN62@AddRenderI:

; 154  : 		m_pRedGauge = pImage;

  00284	8b 85 60 fe ff
	ff		 mov	 eax, DWORD PTR _pImage$GSCopy$[ebp]
  0028a	89 87 a4 01 00
	00		 mov	 DWORD PTR [edi+420], eax
  00290	e9 c1 0d 00 00	 jmp	 $LN1@AddRenderI
$LN2766@AddRenderI:

; 155  : 	}
; 156  : 	else if( szType == "RedDead" )

  00295	6a 04		 push	 4
  00297	c7 45 e4 bf 89
	8f ae		 mov	 DWORD PTR __t$536707[ebp], -1366324801 ; ae8f89bfH
  0029e	81 75 e4 ed ec
	eb ea		 xor	 DWORD PTR __t$536707[ebp], -353637139 ; eaebecedH
  002a5	c7 45 e8 88 8d
	8f 00		 mov	 DWORD PTR __t$536707[ebp+4], 9407880 ; 008f8d88H
  002ac	58		 pop	 eax
$LL647@AddRenderI:
  002ad	8b c8		 mov	 ecx, eax
  002af	81 e1 03 00 00
	80		 and	 ecx, -2147483645	; 80000003H
  002b5	79 05		 jns	 SHORT $LN2895@AddRenderI
  002b7	49		 dec	 ecx
  002b8	83 c9 fc	 or	 ecx, -4			; fffffffcH
  002bb	41		 inc	 ecx
$LN2895@AddRenderI:
  002bc	b2 ed		 mov	 dl, -19			; ffffffedH
  002be	2a d1		 sub	 dl, cl
  002c0	30 54 05 e4	 xor	 BYTE PTR __t$536707[ebp+eax], dl
  002c4	40		 inc	 eax
  002c5	83 f8 07	 cmp	 eax, 7
  002c8	7c e3		 jl	 SHORT $LL647@AddRenderI
  002ca	8b 8d 64 fe ff
	ff		 mov	 ecx, DWORD PTR _szType$GSCopy$[ebp]
  002d0	8d 75 e4	 lea	 esi, DWORD PTR __t$536707[ebp]
  002d3	ff 15 00 00 00
	00		 call	 DWORD PTR __imp_?c_str@ioHashString@@QBEPBDXZ
$LL2802@AddRenderI:
  002d9	8a 08		 mov	 cl, BYTE PTR [eax]
  002db	3a 0e		 cmp	 cl, BYTE PTR [esi]
  002dd	75 1a		 jne	 SHORT $LN2803@AddRenderI
  002df	3a cb		 cmp	 cl, bl
  002e1	74 12		 je	 SHORT $LN2884@AddRenderI
  002e3	8a 48 01	 mov	 cl, BYTE PTR [eax+1]
  002e6	3a 4e 01	 cmp	 cl, BYTE PTR [esi+1]
  002e9	75 0e		 jne	 SHORT $LN2803@AddRenderI
  002eb	83 c0 02	 add	 eax, 2
  002ee	83 c6 02	 add	 esi, 2
  002f1	3a cb		 cmp	 cl, bl
  002f3	75 e4		 jne	 SHORT $LL2802@AddRenderI
$LN2884@AddRenderI:
  002f5	33 c0		 xor	 eax, eax
  002f7	eb 05		 jmp	 SHORT $LN2805@AddRenderI
$LN2803@AddRenderI:
  002f9	1b c0		 sbb	 eax, eax
  002fb	83 d8 ff	 sbb	 eax, -1
$LN2805@AddRenderI:
  002fe	3b c3		 cmp	 eax, ebx
  00300	75 30		 jne	 SHORT $LN2767@AddRenderI

; 157  : 	{
; 158  : 		SAFEDELETE( m_pRedDead );

  00302	39 9f a8 01 00
	00		 cmp	 DWORD PTR [edi+424], ebx
  00308	74 17		 je	 SHORT $LN59@AddRenderI
  0030a	8b 8f a8 01 00
	00		 mov	 ecx, DWORD PTR [edi+424]
  00310	3b cb		 cmp	 ecx, ebx
  00312	74 07		 je	 SHORT $LN83@AddRenderI
  00314	8b 01		 mov	 eax, DWORD PTR [ecx]
  00316	6a 01		 push	 1
  00318	ff 50 40	 call	 DWORD PTR [eax+64]
$LN83@AddRenderI:
  0031b	89 9f a8 01 00
	00		 mov	 DWORD PTR [edi+424], ebx
$LN59@AddRenderI:

; 159  : 		m_pRedDead = pImage;

  00321	8b 85 60 fe ff
	ff		 mov	 eax, DWORD PTR _pImage$GSCopy$[ebp]
  00327	89 87 a8 01 00
	00		 mov	 DWORD PTR [edi+424], eax
  0032d	e9 24 0d 00 00	 jmp	 $LN1@AddRenderI
$LN2767@AddRenderI:

; 160  : 	}
; 161  : 	else if( szType == "AddGauge" )

  00332	6a 02		 push	 2
  00334	c7 85 88 fe ff
	ff ac 88 8f ad	 mov	 DWORD PTR __t$536832[ebp], -1383102292 ; ad8f88acH
  0033e	c7 85 8c fe ff
	ff 8c 99 8c 8f	 mov	 DWORD PTR __t$536832[ebp+4], -1886611060 ; 8f8c998cH
  00348	8d 85 88 fe ff
	ff		 lea	 eax, DWORD PTR __t$536832[ebp]
  0034e	88 9d 90 fe ff
	ff		 mov	 BYTE PTR __t$536832[ebp+8], bl
  00354	59		 pop	 ecx
$LL756@AddRenderI:
  00355	81 30 ed ec eb
	ea		 xor	 DWORD PTR [eax], -353637139 ; eaebecedH
  0035b	83 c0 04	 add	 eax, 4
  0035e	49		 dec	 ecx
  0035f	75 f4		 jne	 SHORT $LL756@AddRenderI
  00361	8b 8d 64 fe ff
	ff		 mov	 ecx, DWORD PTR _szType$GSCopy$[ebp]
  00367	8d b5 88 fe ff
	ff		 lea	 esi, DWORD PTR __t$536832[ebp]
  0036d	ff 15 00 00 00
	00		 call	 DWORD PTR __imp_?c_str@ioHashString@@QBEPBDXZ
$LL2806@AddRenderI:
  00373	8a 08		 mov	 cl, BYTE PTR [eax]
  00375	3a 0e		 cmp	 cl, BYTE PTR [esi]
  00377	75 1a		 jne	 SHORT $LN2807@AddRenderI
  00379	3a cb		 cmp	 cl, bl
  0037b	74 12		 je	 SHORT $LN2808@AddRenderI
  0037d	8a 48 01	 mov	 cl, BYTE PTR [eax+1]
  00380	3a 4e 01	 cmp	 cl, BYTE PTR [esi+1]
  00383	75 0e		 jne	 SHORT $LN2807@AddRenderI
  00385	83 c0 02	 add	 eax, 2
  00388	83 c6 02	 add	 esi, 2
  0038b	3a cb		 cmp	 cl, bl
  0038d	75 e4		 jne	 SHORT $LL2806@AddRenderI
$LN2808@AddRenderI:
  0038f	33 c0		 xor	 eax, eax
  00391	eb 05		 jmp	 SHORT $LN2809@AddRenderI
$LN2807@AddRenderI:
  00393	1b c0		 sbb	 eax, eax
  00395	83 d8 ff	 sbb	 eax, -1
$LN2809@AddRenderI:
  00398	3b c3		 cmp	 eax, ebx
  0039a	75 30		 jne	 SHORT $LN2768@AddRenderI

; 162  : 	{
; 163  : 		SAFEDELETE( m_pAddGauge );

  0039c	39 9f ac 01 00
	00		 cmp	 DWORD PTR [edi+428], ebx
  003a2	74 17		 je	 SHORT $LN56@AddRenderI
  003a4	8b 8f ac 01 00
	00		 mov	 ecx, DWORD PTR [edi+428]
  003aa	3b cb		 cmp	 ecx, ebx
  003ac	74 07		 je	 SHORT $LN85@AddRenderI
  003ae	8b 01		 mov	 eax, DWORD PTR [ecx]
  003b0	6a 01		 push	 1
  003b2	ff 50 40	 call	 DWORD PTR [eax+64]
$LN85@AddRenderI:
  003b5	89 9f ac 01 00
	00		 mov	 DWORD PTR [edi+428], ebx
$LN56@AddRenderI:

; 164  : 		m_pAddGauge = pImage;

  003bb	8b 85 60 fe ff
	ff		 mov	 eax, DWORD PTR _pImage$GSCopy$[ebp]
  003c1	89 87 ac 01 00
	00		 mov	 DWORD PTR [edi+428], eax
  003c7	e9 8a 0c 00 00	 jmp	 $LN1@AddRenderI
$LN2768@AddRenderI:

; 165  : 	}
; 166  : 	else if( szType == "Target" )

  003cc	6a 04		 push	 4
  003ce	c7 45 f0 b9 8d
	99 8d		 mov	 DWORD PTR __t$537036[ebp], -1919316551 ; 8d998db9H
  003d5	81 75 f0 ed ec
	eb ea		 xor	 DWORD PTR __t$537036[ebp], -353637139 ; eaebecedH
  003dc	66 c7 45 f4 88
	98		 mov	 WORD PTR __t$537036[ebp+4], 39048 ; 00009888H
  003e2	88 5d f6	 mov	 BYTE PTR __t$537036[ebp+6], bl
  003e5	58		 pop	 eax
$LL859@AddRenderI:
  003e6	8b c8		 mov	 ecx, eax
  003e8	81 e1 03 00 00
	80		 and	 ecx, -2147483645	; 80000003H
  003ee	79 05		 jns	 SHORT $LN2896@AddRenderI
  003f0	49		 dec	 ecx
  003f1	83 c9 fc	 or	 ecx, -4			; fffffffcH
  003f4	41		 inc	 ecx
$LN2896@AddRenderI:
  003f5	b2 ed		 mov	 dl, -19			; ffffffedH
  003f7	2a d1		 sub	 dl, cl
  003f9	30 54 05 f0	 xor	 BYTE PTR __t$537036[ebp+eax], dl
  003fd	40		 inc	 eax
  003fe	83 f8 06	 cmp	 eax, 6
  00401	7c e3		 jl	 SHORT $LL859@AddRenderI
  00403	8b 8d 64 fe ff
	ff		 mov	 ecx, DWORD PTR _szType$GSCopy$[ebp]
  00409	8d 75 f0	 lea	 esi, DWORD PTR __t$537036[ebp]
  0040c	ff 15 00 00 00
	00		 call	 DWORD PTR __imp_?c_str@ioHashString@@QBEPBDXZ
$LL2810@AddRenderI:
  00412	8a 08		 mov	 cl, BYTE PTR [eax]
  00414	3a 0e		 cmp	 cl, BYTE PTR [esi]
  00416	75 1a		 jne	 SHORT $LN2811@AddRenderI
  00418	3a cb		 cmp	 cl, bl
  0041a	74 12		 je	 SHORT $LN2885@AddRenderI
  0041c	8a 48 01	 mov	 cl, BYTE PTR [eax+1]
  0041f	3a 4e 01	 cmp	 cl, BYTE PTR [esi+1]
  00422	75 0e		 jne	 SHORT $LN2811@AddRenderI
  00424	83 c0 02	 add	 eax, 2
  00427	83 c6 02	 add	 esi, 2
  0042a	3a cb		 cmp	 cl, bl
  0042c	75 e4		 jne	 SHORT $LL2810@AddRenderI
$LN2885@AddRenderI:
  0042e	33 c0		 xor	 eax, eax
  00430	eb 05		 jmp	 SHORT $LN2813@AddRenderI
$LN2811@AddRenderI:
  00432	1b c0		 sbb	 eax, eax
  00434	83 d8 ff	 sbb	 eax, -1
$LN2813@AddRenderI:
  00437	3b c3		 cmp	 eax, ebx
  00439	75 30		 jne	 SHORT $LN2769@AddRenderI

; 167  : 	{
; 168  : 		SAFEDELETE( m_pTargetMark );

  0043b	39 9f f0 01 00
	00		 cmp	 DWORD PTR [edi+496], ebx
  00441	74 17		 je	 SHORT $LN53@AddRenderI
  00443	8b 8f f0 01 00
	00		 mov	 ecx, DWORD PTR [edi+496]
  00449	3b cb		 cmp	 ecx, ebx
  0044b	74 07		 je	 SHORT $LN87@AddRenderI
  0044d	8b 01		 mov	 eax, DWORD PTR [ecx]
  0044f	6a 01		 push	 1
  00451	ff 50 40	 call	 DWORD PTR [eax+64]
$LN87@AddRenderI:
  00454	89 9f f0 01 00
	00		 mov	 DWORD PTR [edi+496], ebx
$LN53@AddRenderI:

; 169  : 		m_pTargetMark = pImage;

  0045a	8b 85 60 fe ff
	ff		 mov	 eax, DWORD PTR _pImage$GSCopy$[ebp]
  00460	89 87 f0 01 00
	00		 mov	 DWORD PTR [edi+496], eax
  00466	e9 eb 0b 00 00	 jmp	 $LN1@AddRenderI
$LN2769@AddRenderI:

; 170  : 	}
; 171  : 	else if( szType == "GuildBack" )

  0046b	6a 02		 push	 2
  0046d	c7 85 48 ff ff
	ff aa 99 82 86	 mov	 DWORD PTR __t$537082[ebp], -2038261334 ; 868299aaH
  00477	c7 85 4c ff ff
	ff 89 ae 8a 89	 mov	 DWORD PTR __t$537082[ebp+4], -1987400055 ; 898aae89H
  00481	8d 85 48 ff ff
	ff		 lea	 eax, DWORD PTR __t$537082[ebp]
  00487	66 c7 85 50 ff
	ff ff 86 00	 mov	 WORD PTR __t$537082[ebp+8], 134 ; 00000086H
  00490	59		 pop	 ecx
$LL968@AddRenderI:
  00491	81 30 ed ec eb
	ea		 xor	 DWORD PTR [eax], -353637139 ; eaebecedH
  00497	83 c0 04	 add	 eax, 4
  0049a	49		 dec	 ecx
  0049b	75 f4		 jne	 SHORT $LL968@AddRenderI
  0049d	8b 8d 64 fe ff
	ff		 mov	 ecx, DWORD PTR _szType$GSCopy$[ebp]
  004a3	80 b5 50 ff ff
	ff ed		 xor	 BYTE PTR __t$537082[ebp+8], -19 ; ffffffedH
  004aa	8d b5 48 ff ff
	ff		 lea	 esi, DWORD PTR __t$537082[ebp]
  004b0	ff 15 00 00 00
	00		 call	 DWORD PTR __imp_?c_str@ioHashString@@QBEPBDXZ
$LL2814@AddRenderI:
  004b6	8a 08		 mov	 cl, BYTE PTR [eax]
  004b8	3a 0e		 cmp	 cl, BYTE PTR [esi]
  004ba	75 1a		 jne	 SHORT $LN2815@AddRenderI
  004bc	3a cb		 cmp	 cl, bl
  004be	74 12		 je	 SHORT $LN2886@AddRenderI
  004c0	8a 48 01	 mov	 cl, BYTE PTR [eax+1]
  004c3	3a 4e 01	 cmp	 cl, BYTE PTR [esi+1]
  004c6	75 0e		 jne	 SHORT $LN2815@AddRenderI
  004c8	83 c0 02	 add	 eax, 2
  004cb	83 c6 02	 add	 esi, 2
  004ce	3a cb		 cmp	 cl, bl
  004d0	75 e4		 jne	 SHORT $LL2814@AddRenderI
$LN2886@AddRenderI:
  004d2	33 c0		 xor	 eax, eax
  004d4	eb 05		 jmp	 SHORT $LN2817@AddRenderI
$LN2815@AddRenderI:
  004d6	1b c0		 sbb	 eax, eax
  004d8	83 d8 ff	 sbb	 eax, -1
$LN2817@AddRenderI:
  004db	3b c3		 cmp	 eax, ebx
  004dd	75 30		 jne	 SHORT $LN2770@AddRenderI

; 172  : 	{
; 173  : 		SAFEDELETE( m_pGuildBack );

  004df	39 9f 94 01 00
	00		 cmp	 DWORD PTR [edi+404], ebx
  004e5	74 17		 je	 SHORT $LN50@AddRenderI
  004e7	8b 8f 94 01 00
	00		 mov	 ecx, DWORD PTR [edi+404]
  004ed	3b cb		 cmp	 ecx, ebx
  004ef	74 07		 je	 SHORT $LN89@AddRenderI
  004f1	8b 01		 mov	 eax, DWORD PTR [ecx]
  004f3	6a 01		 push	 1
  004f5	ff 50 40	 call	 DWORD PTR [eax+64]
$LN89@AddRenderI:
  004f8	89 9f 94 01 00
	00		 mov	 DWORD PTR [edi+404], ebx
$LN50@AddRenderI:

; 174  : 		m_pGuildBack = pImage;

  004fe	8b 85 60 fe ff
	ff		 mov	 eax, DWORD PTR _pImage$GSCopy$[ebp]
  00504	89 87 94 01 00
	00		 mov	 DWORD PTR [edi+404], eax
  0050a	e9 47 0b 00 00	 jmp	 $LN1@AddRenderI
$LN2770@AddRenderI:

; 175  : 	}
; 176  : 	else if( szType == "RedKeyTextQ" )

  0050f	6a 02		 push	 2
  00511	c7 45 a8 bf 89
	8f a1		 mov	 DWORD PTR __t$537194[ebp], -1584428609 ; a18f89bfH
  00518	c7 45 ac 88 95
	bf 8f		 mov	 DWORD PTR __t$537194[ebp+4], -1883269752 ; 8fbf9588H
  0051f	8d 45 a8	 lea	 eax, DWORD PTR __t$537194[ebp]
  00522	c7 45 b0 95 98
	ba 00		 mov	 DWORD PTR __t$537194[ebp+8], 12228757 ; 00ba9895H
  00529	59		 pop	 ecx
$LL1074@AddRenderI:
  0052a	81 30 ed ec eb
	ea		 xor	 DWORD PTR [eax], -353637139 ; eaebecedH
  00530	83 c0 04	 add	 eax, 4
  00533	49		 dec	 ecx
  00534	75 f4		 jne	 SHORT $LL1074@AddRenderI
  00536	6a 08		 push	 8
  00538	58		 pop	 eax
$LL1071@AddRenderI:
  00539	8b c8		 mov	 ecx, eax
  0053b	81 e1 03 00 00
	80		 and	 ecx, -2147483645	; 80000003H
  00541	79 05		 jns	 SHORT $LN2897@AddRenderI
  00543	49		 dec	 ecx
  00544	83 c9 fc	 or	 ecx, -4			; fffffffcH
  00547	41		 inc	 ecx
$LN2897@AddRenderI:
  00548	b2 ed		 mov	 dl, -19			; ffffffedH
  0054a	2a d1		 sub	 dl, cl
  0054c	30 54 05 a8	 xor	 BYTE PTR __t$537194[ebp+eax], dl
  00550	40		 inc	 eax
  00551	83 f8 0b	 cmp	 eax, 11			; 0000000bH
  00554	7c e3		 jl	 SHORT $LL1071@AddRenderI
  00556	8b 8d 64 fe ff
	ff		 mov	 ecx, DWORD PTR _szType$GSCopy$[ebp]
  0055c	8d 75 a8	 lea	 esi, DWORD PTR __t$537194[ebp]
  0055f	ff 15 00 00 00
	00		 call	 DWORD PTR __imp_?c_str@ioHashString@@QBEPBDXZ
$LL2818@AddRenderI:
  00565	8a 08		 mov	 cl, BYTE PTR [eax]
  00567	3a 0e		 cmp	 cl, BYTE PTR [esi]
  00569	75 1a		 jne	 SHORT $LN2819@AddRenderI
  0056b	3a cb		 cmp	 cl, bl
  0056d	74 12		 je	 SHORT $LN2887@AddRenderI
  0056f	8a 48 01	 mov	 cl, BYTE PTR [eax+1]
  00572	3a 4e 01	 cmp	 cl, BYTE PTR [esi+1]
  00575	75 0e		 jne	 SHORT $LN2819@AddRenderI
  00577	83 c0 02	 add	 eax, 2
  0057a	83 c6 02	 add	 esi, 2
  0057d	3a cb		 cmp	 cl, bl
  0057f	75 e4		 jne	 SHORT $LL2818@AddRenderI
$LN2887@AddRenderI:
  00581	33 c0		 xor	 eax, eax
  00583	eb 05		 jmp	 SHORT $LN2821@AddRenderI
$LN2819@AddRenderI:
  00585	1b c0		 sbb	 eax, eax
  00587	83 d8 ff	 sbb	 eax, -1
$LN2821@AddRenderI:
  0058a	3b c3		 cmp	 eax, ebx
  0058c	75 30		 jne	 SHORT $LN2771@AddRenderI

; 177  : 	{
; 178  : 		SAFEDELETE( m_pRedKeyText[0] );

  0058e	39 9f b0 01 00
	00		 cmp	 DWORD PTR [edi+432], ebx
  00594	74 17		 je	 SHORT $LN47@AddRenderI
  00596	8b 8f b0 01 00
	00		 mov	 ecx, DWORD PTR [edi+432]
  0059c	3b cb		 cmp	 ecx, ebx
  0059e	74 07		 je	 SHORT $LN91@AddRenderI
  005a0	8b 01		 mov	 eax, DWORD PTR [ecx]
  005a2	6a 01		 push	 1
  005a4	ff 50 40	 call	 DWORD PTR [eax+64]
$LN91@AddRenderI:
  005a7	89 9f b0 01 00
	00		 mov	 DWORD PTR [edi+432], ebx
$LN47@AddRenderI:

; 179  : 		m_pRedKeyText[0] = pImage;

  005ad	8b 85 60 fe ff
	ff		 mov	 eax, DWORD PTR _pImage$GSCopy$[ebp]
  005b3	89 87 b0 01 00
	00		 mov	 DWORD PTR [edi+432], eax
  005b9	e9 98 0a 00 00	 jmp	 $LN1@AddRenderI
$LN2771@AddRenderI:

; 180  : 	}
; 181  : 	else if( szType == "RedKeyTextW" )

  005be	6a 02		 push	 2
  005c0	c7 45 98 bf 89
	8f a1		 mov	 DWORD PTR __t$537319[ebp], -1584428609 ; a18f89bfH
  005c7	c7 45 9c 88 95
	bf 8f		 mov	 DWORD PTR __t$537319[ebp+4], -1883269752 ; 8fbf9588H
  005ce	8d 45 98	 lea	 eax, DWORD PTR __t$537319[ebp]
  005d1	c7 45 a0 95 98
	bc 00		 mov	 DWORD PTR __t$537319[ebp+8], 12359829 ; 00bc9895H
  005d8	59		 pop	 ecx
$LL1180@AddRenderI:
  005d9	81 30 ed ec eb
	ea		 xor	 DWORD PTR [eax], -353637139 ; eaebecedH
  005df	83 c0 04	 add	 eax, 4
  005e2	49		 dec	 ecx
  005e3	75 f4		 jne	 SHORT $LL1180@AddRenderI
  005e5	6a 08		 push	 8
  005e7	58		 pop	 eax
$LL1177@AddRenderI:
  005e8	8b c8		 mov	 ecx, eax
  005ea	81 e1 03 00 00
	80		 and	 ecx, -2147483645	; 80000003H
  005f0	79 05		 jns	 SHORT $LN2898@AddRenderI
  005f2	49		 dec	 ecx
  005f3	83 c9 fc	 or	 ecx, -4			; fffffffcH
  005f6	41		 inc	 ecx
$LN2898@AddRenderI:
  005f7	b2 ed		 mov	 dl, -19			; ffffffedH
  005f9	2a d1		 sub	 dl, cl
  005fb	30 54 05 98	 xor	 BYTE PTR __t$537319[ebp+eax], dl
  005ff	40		 inc	 eax
  00600	83 f8 0b	 cmp	 eax, 11			; 0000000bH
  00603	7c e3		 jl	 SHORT $LL1177@AddRenderI
  00605	8b 8d 64 fe ff
	ff		 mov	 ecx, DWORD PTR _szType$GSCopy$[ebp]
  0060b	8d 75 98	 lea	 esi, DWORD PTR __t$537319[ebp]
  0060e	ff 15 00 00 00
	00		 call	 DWORD PTR __imp_?c_str@ioHashString@@QBEPBDXZ
$LL2822@AddRenderI:
  00614	8a 08		 mov	 cl, BYTE PTR [eax]
  00616	3a 0e		 cmp	 cl, BYTE PTR [esi]
  00618	75 1a		 jne	 SHORT $LN2823@AddRenderI
  0061a	3a cb		 cmp	 cl, bl
  0061c	74 12		 je	 SHORT $LN2888@AddRenderI
  0061e	8a 48 01	 mov	 cl, BYTE PTR [eax+1]
  00621	3a 4e 01	 cmp	 cl, BYTE PTR [esi+1]
  00624	75 0e		 jne	 SHORT $LN2823@AddRenderI
  00626	83 c0 02	 add	 eax, 2
  00629	83 c6 02	 add	 esi, 2
  0062c	3a cb		 cmp	 cl, bl
  0062e	75 e4		 jne	 SHORT $LL2822@AddRenderI
$LN2888@AddRenderI:
  00630	33 c0		 xor	 eax, eax
  00632	eb 05		 jmp	 SHORT $LN2825@AddRenderI
$LN2823@AddRenderI:
  00634	1b c0		 sbb	 eax, eax
  00636	83 d8 ff	 sbb	 eax, -1
$LN2825@AddRenderI:
  00639	3b c3		 cmp	 eax, ebx
  0063b	75 30		 jne	 SHORT $LN2772@AddRenderI

; 182  : 	{
; 183  : 		SAFEDELETE( m_pRedKeyText[1] );

  0063d	39 9f b4 01 00
	00		 cmp	 DWORD PTR [edi+436], ebx
  00643	74 17		 je	 SHORT $LN44@AddRenderI
  00645	8b 8f b4 01 00
	00		 mov	 ecx, DWORD PTR [edi+436]
  0064b	3b cb		 cmp	 ecx, ebx
  0064d	74 07		 je	 SHORT $LN93@AddRenderI
  0064f	8b 01		 mov	 eax, DWORD PTR [ecx]
  00651	6a 01		 push	 1
  00653	ff 50 40	 call	 DWORD PTR [eax+64]
$LN93@AddRenderI:
  00656	89 9f b4 01 00
	00		 mov	 DWORD PTR [edi+436], ebx
$LN44@AddRenderI:

; 184  : 		m_pRedKeyText[1] = pImage;

  0065c	8b 85 60 fe ff
	ff		 mov	 eax, DWORD PTR _pImage$GSCopy$[ebp]
  00662	89 87 b4 01 00
	00		 mov	 DWORD PTR [edi+436], eax
  00668	e9 e9 09 00 00	 jmp	 $LN1@AddRenderI
$LN2772@AddRenderI:

; 185  : 	}
; 186  : 	else if( szType == "RedKeyTextE" )

  0066d	6a 02		 push	 2
  0066f	c7 45 c8 bf 89
	8f a1		 mov	 DWORD PTR __t$537444[ebp], -1584428609 ; a18f89bfH
  00676	c7 45 cc 88 95
	bf 8f		 mov	 DWORD PTR __t$537444[ebp+4], -1883269752 ; 8fbf9588H
  0067d	8d 45 c8	 lea	 eax, DWORD PTR __t$537444[ebp]
  00680	c7 45 d0 95 98
	ae 00		 mov	 DWORD PTR __t$537444[ebp+8], 11442325 ; 00ae9895H
  00687	59		 pop	 ecx
$LL1286@AddRenderI:
  00688	81 30 ed ec eb
	ea		 xor	 DWORD PTR [eax], -353637139 ; eaebecedH
  0068e	83 c0 04	 add	 eax, 4
  00691	49		 dec	 ecx
  00692	75 f4		 jne	 SHORT $LL1286@AddRenderI
  00694	6a 08		 push	 8
  00696	58		 pop	 eax
$LL1283@AddRenderI:
  00697	8b c8		 mov	 ecx, eax
  00699	81 e1 03 00 00
	80		 and	 ecx, -2147483645	; 80000003H
  0069f	79 05		 jns	 SHORT $LN2899@AddRenderI
  006a1	49		 dec	 ecx
  006a2	83 c9 fc	 or	 ecx, -4			; fffffffcH
  006a5	41		 inc	 ecx
$LN2899@AddRenderI:
  006a6	b2 ed		 mov	 dl, -19			; ffffffedH
  006a8	2a d1		 sub	 dl, cl
  006aa	30 54 05 c8	 xor	 BYTE PTR __t$537444[ebp+eax], dl
  006ae	40		 inc	 eax
  006af	83 f8 0b	 cmp	 eax, 11			; 0000000bH
  006b2	7c e3		 jl	 SHORT $LL1283@AddRenderI
  006b4	8b 8d 64 fe ff
	ff		 mov	 ecx, DWORD PTR _szType$GSCopy$[ebp]
  006ba	8d 75 c8	 lea	 esi, DWORD PTR __t$537444[ebp]
  006bd	ff 15 00 00 00
	00		 call	 DWORD PTR __imp_?c_str@ioHashString@@QBEPBDXZ
$LL2826@AddRenderI:
  006c3	8a 08		 mov	 cl, BYTE PTR [eax]
  006c5	3a 0e		 cmp	 cl, BYTE PTR [esi]
  006c7	75 1a		 jne	 SHORT $LN2827@AddRenderI
  006c9	3a cb		 cmp	 cl, bl
  006cb	74 12		 je	 SHORT $LN2889@AddRenderI
  006cd	8a 48 01	 mov	 cl, BYTE PTR [eax+1]
  006d0	3a 4e 01	 cmp	 cl, BYTE PTR [esi+1]
  006d3	75 0e		 jne	 SHORT $LN2827@AddRenderI
  006d5	83 c0 02	 add	 eax, 2
  006d8	83 c6 02	 add	 esi, 2
  006db	3a cb		 cmp	 cl, bl
  006dd	75 e4		 jne	 SHORT $LL2826@AddRenderI
$LN2889@AddRenderI:
  006df	33 c0		 xor	 eax, eax
  006e1	eb 05		 jmp	 SHORT $LN2829@AddRenderI
$LN2827@AddRenderI:
  006e3	1b c0		 sbb	 eax, eax
  006e5	83 d8 ff	 sbb	 eax, -1
$LN2829@AddRenderI:
  006e8	3b c3		 cmp	 eax, ebx
  006ea	75 30		 jne	 SHORT $LN2773@AddRenderI

; 187  : 	{
; 188  : 		SAFEDELETE( m_pRedKeyText[2] );

  006ec	39 9f b8 01 00
	00		 cmp	 DWORD PTR [edi+440], ebx
  006f2	74 17		 je	 SHORT $LN41@AddRenderI
  006f4	8b 8f b8 01 00
	00		 mov	 ecx, DWORD PTR [edi+440]
  006fa	3b cb		 cmp	 ecx, ebx
  006fc	74 07		 je	 SHORT $LN95@AddRenderI
  006fe	8b 01		 mov	 eax, DWORD PTR [ecx]
  00700	6a 01		 push	 1
  00702	ff 50 40	 call	 DWORD PTR [eax+64]
$LN95@AddRenderI:
  00705	89 9f b8 01 00
	00		 mov	 DWORD PTR [edi+440], ebx
$LN41@AddRenderI:

; 189  : 		m_pRedKeyText[2] = pImage;

  0070b	8b 85 60 fe ff
	ff		 mov	 eax, DWORD PTR _pImage$GSCopy$[ebp]
  00711	89 87 b8 01 00
	00		 mov	 DWORD PTR [edi+440], eax
  00717	e9 3a 09 00 00	 jmp	 $LN1@AddRenderI
$LN2773@AddRenderI:

; 190  : 	}
; 191  : 	else if( szType == "RedKeyTextR" )

  0071c	6a 02		 push	 2
  0071e	c7 85 78 ff ff
	ff bf 89 8f a1	 mov	 DWORD PTR __t$537569[ebp], -1584428609 ; a18f89bfH
  00728	c7 85 7c ff ff
	ff 88 95 bf 8f	 mov	 DWORD PTR __t$537569[ebp+4], -1883269752 ; 8fbf9588H
  00732	8d 85 78 ff ff
	ff		 lea	 eax, DWORD PTR __t$537569[ebp]
  00738	c7 45 80 95 98
	b9 00		 mov	 DWORD PTR __t$537569[ebp+8], 12163221 ; 00b99895H
  0073f	59		 pop	 ecx
$LL1392@AddRenderI:
  00740	81 30 ed ec eb
	ea		 xor	 DWORD PTR [eax], -353637139 ; eaebecedH
  00746	83 c0 04	 add	 eax, 4
  00749	49		 dec	 ecx
  0074a	75 f4		 jne	 SHORT $LL1392@AddRenderI
  0074c	6a 08		 push	 8
  0074e	58		 pop	 eax
$LL1389@AddRenderI:
  0074f	8b c8		 mov	 ecx, eax
  00751	81 e1 03 00 00
	80		 and	 ecx, -2147483645	; 80000003H
  00757	79 05		 jns	 SHORT $LN2900@AddRenderI
  00759	49		 dec	 ecx
  0075a	83 c9 fc	 or	 ecx, -4			; fffffffcH
  0075d	41		 inc	 ecx
$LN2900@AddRenderI:
  0075e	b2 ed		 mov	 dl, -19			; ffffffedH
  00760	2a d1		 sub	 dl, cl
  00762	30 94 05 78 ff
	ff ff		 xor	 BYTE PTR __t$537569[ebp+eax], dl
  00769	40		 inc	 eax
  0076a	83 f8 0b	 cmp	 eax, 11			; 0000000bH
  0076d	7c e0		 jl	 SHORT $LL1389@AddRenderI
  0076f	8b 8d 64 fe ff
	ff		 mov	 ecx, DWORD PTR _szType$GSCopy$[ebp]
  00775	8d b5 78 ff ff
	ff		 lea	 esi, DWORD PTR __t$537569[ebp]
  0077b	ff 15 00 00 00
	00		 call	 DWORD PTR __imp_?c_str@ioHashString@@QBEPBDXZ
$LL2830@AddRenderI:
  00781	8a 08		 mov	 cl, BYTE PTR [eax]
  00783	3a 0e		 cmp	 cl, BYTE PTR [esi]
  00785	75 1a		 jne	 SHORT $LN2831@AddRenderI
  00787	3a cb		 cmp	 cl, bl
  00789	74 12		 je	 SHORT $LN2890@AddRenderI
  0078b	8a 48 01	 mov	 cl, BYTE PTR [eax+1]
  0078e	3a 4e 01	 cmp	 cl, BYTE PTR [esi+1]
  00791	75 0e		 jne	 SHORT $LN2831@AddRenderI
  00793	83 c0 02	 add	 eax, 2
  00796	83 c6 02	 add	 esi, 2
  00799	3a cb		 cmp	 cl, bl
  0079b	75 e4		 jne	 SHORT $LL2830@AddRenderI
$LN2890@AddRenderI:
  0079d	33 c0		 xor	 eax, eax
  0079f	eb 05		 jmp	 SHORT $LN2833@AddRenderI
$LN2831@AddRenderI:
  007a1	1b c0		 sbb	 eax, eax
  007a3	83 d8 ff	 sbb	 eax, -1
$LN2833@AddRenderI:
  007a6	3b c3		 cmp	 eax, ebx
  007a8	75 30		 jne	 SHORT $LN2774@AddRenderI

; 192  : 	{
; 193  : 		SAFEDELETE( m_pRedKeyText[3] );

  007aa	39 9f bc 01 00
	00		 cmp	 DWORD PTR [edi+444], ebx
  007b0	74 17		 je	 SHORT $LN38@AddRenderI
  007b2	8b 8f bc 01 00
	00		 mov	 ecx, DWORD PTR [edi+444]
  007b8	3b cb		 cmp	 ecx, ebx
  007ba	74 07		 je	 SHORT $LN97@AddRenderI
  007bc	8b 01		 mov	 eax, DWORD PTR [ecx]
  007be	6a 01		 push	 1
  007c0	ff 50 40	 call	 DWORD PTR [eax+64]
$LN97@AddRenderI:
  007c3	89 9f bc 01 00
	00		 mov	 DWORD PTR [edi+444], ebx
$LN38@AddRenderI:

; 194  : 		m_pRedKeyText[3] = pImage;

  007c9	8b 85 60 fe ff
	ff		 mov	 eax, DWORD PTR _pImage$GSCopy$[ebp]
  007cf	89 87 bc 01 00
	00		 mov	 DWORD PTR [edi+444], eax
  007d5	e9 7c 08 00 00	 jmp	 $LN1@AddRenderI
$LN2774@AddRenderI:

; 195  : 	}
; 196  : 	else if( szType == "RedKeyTextT" )

  007da	6a 02		 push	 2
  007dc	c7 45 b8 bf 89
	8f a1		 mov	 DWORD PTR __t$537707[ebp], -1584428609 ; a18f89bfH
  007e3	c7 45 bc 88 95
	bf 8f		 mov	 DWORD PTR __t$537707[ebp+4], -1883269752 ; 8fbf9588H
  007ea	8d 45 b8	 lea	 eax, DWORD PTR __t$537707[ebp]
  007ed	c7 45 c0 95 98
	bf 00		 mov	 DWORD PTR __t$537707[ebp+8], 12556437 ; 00bf9895H
  007f4	59		 pop	 ecx
$LL1498@AddRenderI:
  007f5	81 30 ed ec eb
	ea		 xor	 DWORD PTR [eax], -353637139 ; eaebecedH
  007fb	83 c0 04	 add	 eax, 4
  007fe	49		 dec	 ecx
  007ff	75 f4		 jne	 SHORT $LL1498@AddRenderI
  00801	6a 08		 push	 8
  00803	58		 pop	 eax
$LL1495@AddRenderI:
  00804	8b c8		 mov	 ecx, eax
  00806	81 e1 03 00 00
	80		 and	 ecx, -2147483645	; 80000003H
  0080c	79 05		 jns	 SHORT $LN2901@AddRenderI
  0080e	49		 dec	 ecx
  0080f	83 c9 fc	 or	 ecx, -4			; fffffffcH
  00812	41		 inc	 ecx
$LN2901@AddRenderI:
  00813	b2 ed		 mov	 dl, -19			; ffffffedH
  00815	2a d1		 sub	 dl, cl
  00817	30 54 05 b8	 xor	 BYTE PTR __t$537707[ebp+eax], dl
  0081b	40		 inc	 eax
  0081c	83 f8 0b	 cmp	 eax, 11			; 0000000bH
  0081f	7c e3		 jl	 SHORT $LL1495@AddRenderI
  00821	8b 8d 64 fe ff
	ff		 mov	 ecx, DWORD PTR _szType$GSCopy$[ebp]
  00827	8d 75 b8	 lea	 esi, DWORD PTR __t$537707[ebp]
  0082a	ff 15 00 00 00
	00		 call	 DWORD PTR __imp_?c_str@ioHashString@@QBEPBDXZ
$LL2834@AddRenderI:
  00830	8a 08		 mov	 cl, BYTE PTR [eax]
  00832	3a 0e		 cmp	 cl, BYTE PTR [esi]
  00834	75 1a		 jne	 SHORT $LN2835@AddRenderI
  00836	3a cb		 cmp	 cl, bl
  00838	74 12		 je	 SHORT $LN2891@AddRenderI
  0083a	8a 48 01	 mov	 cl, BYTE PTR [eax+1]
  0083d	3a 4e 01	 cmp	 cl, BYTE PTR [esi+1]
  00840	75 0e		 jne	 SHORT $LN2835@AddRenderI
  00842	83 c0 02	 add	 eax, 2
  00845	83 c6 02	 add	 esi, 2
  00848	3a cb		 cmp	 cl, bl
  0084a	75 e4		 jne	 SHORT $LL2834@AddRenderI
$LN2891@AddRenderI:
  0084c	33 c0		 xor	 eax, eax
  0084e	eb 05		 jmp	 SHORT $LN2837@AddRenderI
$LN2835@AddRenderI:
  00850	1b c0		 sbb	 eax, eax
  00852	83 d8 ff	 sbb	 eax, -1
$LN2837@AddRenderI:
  00855	3b c3		 cmp	 eax, ebx
  00857	75 30		 jne	 SHORT $LN2775@AddRenderI

; 197  : 	{
; 198  : 		SAFEDELETE( m_pRedKeyText[4] );

  00859	39 9f c0 01 00
	00		 cmp	 DWORD PTR [edi+448], ebx
  0085f	74 17		 je	 SHORT $LN35@AddRenderI
  00861	8b 8f c0 01 00
	00		 mov	 ecx, DWORD PTR [edi+448]
  00867	3b cb		 cmp	 ecx, ebx
  00869	74 07		 je	 SHORT $LN99@AddRenderI
  0086b	8b 01		 mov	 eax, DWORD PTR [ecx]
  0086d	6a 01		 push	 1
  0086f	ff 50 40	 call	 DWORD PTR [eax+64]
$LN99@AddRenderI:
  00872	89 9f c0 01 00
	00		 mov	 DWORD PTR [edi+448], ebx
$LN35@AddRenderI:

; 199  : 		m_pRedKeyText[4] = pImage;

  00878	8b 85 60 fe ff
	ff		 mov	 eax, DWORD PTR _pImage$GSCopy$[ebp]
  0087e	89 87 c0 01 00
	00		 mov	 DWORD PTR [edi+448], eax
  00884	e9 cd 07 00 00	 jmp	 $LN1@AddRenderI
$LN2775@AddRenderI:

; 200  : 	}
; 201  : 	else if( szType == "RedKeyTextY" )

  00889	6a 02		 push	 2
  0088b	c7 85 58 ff ff
	ff bf 89 8f a1	 mov	 DWORD PTR __t$537819[ebp], -1584428609 ; a18f89bfH
  00895	c7 85 5c ff ff
	ff 88 95 bf 8f	 mov	 DWORD PTR __t$537819[ebp+4], -1883269752 ; 8fbf9588H
  0089f	8d 85 58 ff ff
	ff		 lea	 eax, DWORD PTR __t$537819[ebp]
  008a5	c7 85 60 ff ff
	ff 95 98 b2 00	 mov	 DWORD PTR __t$537819[ebp+8], 11704469 ; 00b29895H
  008af	59		 pop	 ecx
$LL1604@AddRenderI:
  008b0	81 30 ed ec eb
	ea		 xor	 DWORD PTR [eax], -353637139 ; eaebecedH
  008b6	83 c0 04	 add	 eax, 4
  008b9	49		 dec	 ecx
  008ba	75 f4		 jne	 SHORT $LL1604@AddRenderI
  008bc	6a 08		 push	 8
  008be	58		 pop	 eax
$LL1601@AddRenderI:
  008bf	8b c8		 mov	 ecx, eax
  008c1	81 e1 03 00 00
	80		 and	 ecx, -2147483645	; 80000003H
  008c7	79 05		 jns	 SHORT $LN2902@AddRenderI
  008c9	49		 dec	 ecx
  008ca	83 c9 fc	 or	 ecx, -4			; fffffffcH
  008cd	41		 inc	 ecx
$LN2902@AddRenderI:
  008ce	b2 ed		 mov	 dl, -19			; ffffffedH
  008d0	2a d1		 sub	 dl, cl
  008d2	30 94 05 58 ff
	ff ff		 xor	 BYTE PTR __t$537819[ebp+eax], dl
  008d9	40		 inc	 eax
  008da	83 f8 0b	 cmp	 eax, 11			; 0000000bH
  008dd	7c e0		 jl	 SHORT $LL1601@AddRenderI
  008df	8b 8d 64 fe ff
	ff		 mov	 ecx, DWORD PTR _szType$GSCopy$[ebp]
  008e5	8d b5 58 ff ff
	ff		 lea	 esi, DWORD PTR __t$537819[ebp]
  008eb	ff 15 00 00 00
	00		 call	 DWORD PTR __imp_?c_str@ioHashString@@QBEPBDXZ
$LL2838@AddRenderI:
  008f1	8a 08		 mov	 cl, BYTE PTR [eax]
  008f3	3a 0e		 cmp	 cl, BYTE PTR [esi]
  008f5	75 1a		 jne	 SHORT $LN2839@AddRenderI
  008f7	3a cb		 cmp	 cl, bl
  008f9	74 12		 je	 SHORT $LN2892@AddRenderI
  008fb	8a 48 01	 mov	 cl, BYTE PTR [eax+1]
  008fe	3a 4e 01	 cmp	 cl, BYTE PTR [esi+1]
  00901	75 0e		 jne	 SHORT $LN2839@AddRenderI
  00903	83 c0 02	 add	 eax, 2
  00906	83 c6 02	 add	 esi, 2
  00909	3a cb		 cmp	 cl, bl
  0090b	75 e4		 jne	 SHORT $LL2838@AddRenderI
$LN2892@AddRenderI:
  0090d	33 c0		 xor	 eax, eax
  0090f	eb 05		 jmp	 SHORT $LN2841@AddRenderI
$LN2839@AddRenderI:
  00911	1b c0		 sbb	 eax, eax
  00913	83 d8 ff	 sbb	 eax, -1
$LN2841@AddRenderI:
  00916	3b c3		 cmp	 eax, ebx
  00918	75 30		 jne	 SHORT $LN2776@AddRenderI

; 202  : 	{
; 203  : 		SAFEDELETE( m_pRedKeyText[5] );

  0091a	39 9f c4 01 00
	00		 cmp	 DWORD PTR [edi+452], ebx
  00920	74 17		 je	 SHORT $LN32@AddRenderI
  00922	8b 8f c4 01 00
	00		 mov	 ecx, DWORD PTR [edi+452]
  00928	3b cb		 cmp	 ecx, ebx
  0092a	74 07		 je	 SHORT $LN101@AddRenderI
  0092c	8b 01		 mov	 eax, DWORD PTR [ecx]
  0092e	6a 01		 push	 1
  00930	ff 50 40	 call	 DWORD PTR [eax+64]
$LN101@AddRenderI:
  00933	89 9f c4 01 00
	00		 mov	 DWORD PTR [edi+452], ebx
$LN32@AddRenderI:

; 204  : 		m_pRedKeyText[5] = pImage;

  00939	8b 85 60 fe ff
	ff		 mov	 eax, DWORD PTR _pImage$GSCopy$[ebp]
  0093f	89 87 c4 01 00
	00		 mov	 DWORD PTR [edi+452], eax
  00945	e9 0c 07 00 00	 jmp	 $LN1@AddRenderI
$LN2776@AddRenderI:

; 205  : 	}
; 206  : 	else if( szType == "RedKeyTextU" )

  0094a	6a 02		 push	 2
  0094c	c7 85 38 ff ff
	ff bf 89 8f a1	 mov	 DWORD PTR __t$537944[ebp], -1584428609 ; a18f89bfH
  00956	c7 85 3c ff ff
	ff 88 95 bf 8f	 mov	 DWORD PTR __t$537944[ebp+4], -1883269752 ; 8fbf9588H
  00960	8d 85 38 ff ff
	ff		 lea	 eax, DWORD PTR __t$537944[ebp]
  00966	c7 85 40 ff ff
	ff 95 98 be 00	 mov	 DWORD PTR __t$537944[ebp+8], 12490901 ; 00be9895H
  00970	59		 pop	 ecx
$LL1710@AddRenderI:
  00971	81 30 ed ec eb
	ea		 xor	 DWORD PTR [eax], -353637139 ; eaebecedH
  00977	83 c0 04	 add	 eax, 4
  0097a	49		 dec	 ecx
  0097b	75 f4		 jne	 SHORT $LL1710@AddRenderI
  0097d	6a 08		 push	 8
  0097f	58		 pop	 eax
$LL1707@AddRenderI:
  00980	8b c8		 mov	 ecx, eax
  00982	81 e1 03 00 00
	80		 and	 ecx, -2147483645	; 80000003H
  00988	79 05		 jns	 SHORT $LN2903@AddRenderI
  0098a	49		 dec	 ecx
  0098b	83 c9 fc	 or	 ecx, -4			; fffffffcH
  0098e	41		 inc	 ecx
$LN2903@AddRenderI:
  0098f	b2 ed		 mov	 dl, -19			; ffffffedH
  00991	2a d1		 sub	 dl, cl
  00993	30 94 05 38 ff
	ff ff		 xor	 BYTE PTR __t$537944[ebp+eax], dl
  0099a	40		 inc	 eax
  0099b	83 f8 0b	 cmp	 eax, 11			; 0000000bH
  0099e	7c e0		 jl	 SHORT $LL1707@AddRenderI
  009a0	8b 8d 64 fe ff
	ff		 mov	 ecx, DWORD PTR _szType$GSCopy$[ebp]
  009a6	8d b5 38 ff ff
	ff		 lea	 esi, DWORD PTR __t$537944[ebp]
  009ac	ff 15 00 00 00
	00		 call	 DWORD PTR __imp_?c_str@ioHashString@@QBEPBDXZ
$LL2842@AddRenderI:
  009b2	8a 08		 mov	 cl, BYTE PTR [eax]
  009b4	3a 0e		 cmp	 cl, BYTE PTR [esi]
  009b6	75 1a		 jne	 SHORT $LN2843@AddRenderI
  009b8	3a cb		 cmp	 cl, bl
  009ba	74 12		 je	 SHORT $LN2893@AddRenderI
  009bc	8a 48 01	 mov	 cl, BYTE PTR [eax+1]
  009bf	3a 4e 01	 cmp	 cl, BYTE PTR [esi+1]
  009c2	75 0e		 jne	 SHORT $LN2843@AddRenderI
  009c4	83 c0 02	 add	 eax, 2
  009c7	83 c6 02	 add	 esi, 2
  009ca	3a cb		 cmp	 cl, bl
  009cc	75 e4		 jne	 SHORT $LL2842@AddRenderI
$LN2893@AddRenderI:
  009ce	33 c0		 xor	 eax, eax
  009d0	eb 05		 jmp	 SHORT $LN2845@AddRenderI
$LN2843@AddRenderI:
  009d2	1b c0		 sbb	 eax, eax
  009d4	83 d8 ff	 sbb	 eax, -1
$LN2845@AddRenderI:
  009d7	3b c3		 cmp	 eax, ebx
  009d9	75 30		 jne	 SHORT $LN2777@AddRenderI

; 207  : 	{
; 208  : 		SAFEDELETE( m_pRedKeyText[6] );

  009db	39 9f c8 01 00
	00		 cmp	 DWORD PTR [edi+456], ebx
  009e1	74 17		 je	 SHORT $LN29@AddRenderI
  009e3	8b 8f c8 01 00
	00		 mov	 ecx, DWORD PTR [edi+456]
  009e9	3b cb		 cmp	 ecx, ebx
  009eb	74 07		 je	 SHORT $LN103@AddRenderI
  009ed	8b 01		 mov	 eax, DWORD PTR [ecx]
  009ef	6a 01		 push	 1
  009f1	ff 50 40	 call	 DWORD PTR [eax+64]
$LN103@AddRenderI:
  009f4	89 9f c8 01 00
	00		 mov	 DWORD PTR [edi+456], ebx
$LN29@AddRenderI:

; 209  : 		m_pRedKeyText[6] = pImage;

  009fa	8b 85 60 fe ff
	ff		 mov	 eax, DWORD PTR _pImage$GSCopy$[ebp]
  00a00	89 87 c8 01 00
	00		 mov	 DWORD PTR [edi+456], eax
  00a06	e9 4b 06 00 00	 jmp	 $LN1@AddRenderI
$LN2777@AddRenderI:

; 210  : 	}
; 211  : 	else if( szType == "RedKeyTextI" )

  00a0b	6a 02		 push	 2
  00a0d	c7 85 68 ff ff
	ff bf 89 8f a1	 mov	 DWORD PTR __t$538069[ebp], -1584428609 ; a18f89bfH
  00a17	c7 85 6c ff ff
	ff 88 95 bf 8f	 mov	 DWORD PTR __t$538069[ebp+4], -1883269752 ; 8fbf9588H
  00a21	8d 85 68 ff ff
	ff		 lea	 eax, DWORD PTR __t$538069[ebp]
  00a27	c7 85 70 ff ff
	ff 95 98 a2 00	 mov	 DWORD PTR __t$538069[ebp+8], 10655893 ; 00a29895H
  00a31	59		 pop	 ecx
$LL1816@AddRenderI:
  00a32	81 30 ed ec eb
	ea		 xor	 DWORD PTR [eax], -353637139 ; eaebecedH
  00a38	83 c0 04	 add	 eax, 4
  00a3b	49		 dec	 ecx
  00a3c	75 f4		 jne	 SHORT $LL1816@AddRenderI
  00a3e	6a 08		 push	 8
  00a40	58		 pop	 eax
$LL1813@AddRenderI:
  00a41	8b c8		 mov	 ecx, eax
  00a43	81 e1 03 00 00
	80		 and	 ecx, -2147483645	; 80000003H
  00a49	79 05		 jns	 SHORT $LN2904@AddRenderI
  00a4b	49		 dec	 ecx
  00a4c	83 c9 fc	 or	 ecx, -4			; fffffffcH
  00a4f	41		 inc	 ecx
$LN2904@AddRenderI:
  00a50	b2 ed		 mov	 dl, -19			; ffffffedH
  00a52	2a d1		 sub	 dl, cl
  00a54	30 94 05 68 ff
	ff ff		 xor	 BYTE PTR __t$538069[ebp+eax], dl
  00a5b	40		 inc	 eax
  00a5c	83 f8 0b	 cmp	 eax, 11			; 0000000bH
  00a5f	7c e0		 jl	 SHORT $LL1813@AddRenderI
  00a61	8b 8d 64 fe ff
	ff		 mov	 ecx, DWORD PTR _szType$GSCopy$[ebp]
  00a67	8d b5 68 ff ff
	ff		 lea	 esi, DWORD PTR __t$538069[ebp]
  00a6d	ff 15 00 00 00
	00		 call	 DWORD PTR __imp_?c_str@ioHashString@@QBEPBDXZ
$LL2846@AddRenderI:
  00a73	8a 08		 mov	 cl, BYTE PTR [eax]
  00a75	3a 0e		 cmp	 cl, BYTE PTR [esi]
  00a77	75 1a		 jne	 SHORT $LN2847@AddRenderI
  00a79	3a cb		 cmp	 cl, bl
  00a7b	74 12		 je	 SHORT $LN2848@AddRenderI
  00a7d	8a 48 01	 mov	 cl, BYTE PTR [eax+1]
  00a80	3a 4e 01	 cmp	 cl, BYTE PTR [esi+1]
  00a83	75 0e		 jne	 SHORT $LN2847@AddRenderI
  00a85	83 c0 02	 add	 eax, 2
  00a88	83 c6 02	 add	 esi, 2
  00a8b	3a cb		 cmp	 cl, bl
  00a8d	75 e4		 jne	 SHORT $LL2846@AddRenderI
$LN2848@AddRenderI:
  00a8f	33 c0		 xor	 eax, eax
  00a91	eb 05		 jmp	 SHORT $LN2849@AddRenderI
$LN2847@AddRenderI:
  00a93	1b c0		 sbb	 eax, eax
  00a95	83 d8 ff	 sbb	 eax, -1
$LN2849@AddRenderI:
  00a98	3b c3		 cmp	 eax, ebx
  00a9a	75 30		 jne	 SHORT $LN2778@AddRenderI

; 212  : 	{
; 213  : 		SAFEDELETE( m_pRedKeyText[7] );

  00a9c	39 9f cc 01 00
	00		 cmp	 DWORD PTR [edi+460], ebx
  00aa2	74 17		 je	 SHORT $LN26@AddRenderI
  00aa4	8b 8f cc 01 00
	00		 mov	 ecx, DWORD PTR [edi+460]
  00aaa	3b cb		 cmp	 ecx, ebx
  00aac	74 07		 je	 SHORT $LN105@AddRenderI
  00aae	8b 01		 mov	 eax, DWORD PTR [ecx]
  00ab0	6a 01		 push	 1
  00ab2	ff 50 40	 call	 DWORD PTR [eax+64]
$LN105@AddRenderI:
  00ab5	89 9f cc 01 00
	00		 mov	 DWORD PTR [edi+460], ebx
$LN26@AddRenderI:

; 214  : 		m_pRedKeyText[7] = pImage;

  00abb	8b 85 60 fe ff
	ff		 mov	 eax, DWORD PTR _pImage$GSCopy$[ebp]
  00ac1	89 87 cc 01 00
	00		 mov	 DWORD PTR [edi+460], eax
  00ac7	e9 8a 05 00 00	 jmp	 $LN1@AddRenderI
$LN2778@AddRenderI:

; 215  : 	}
; 216  : 	else if( szType == "BlueKeyTextQ" )

  00acc	6a 03		 push	 3
  00ace	5f		 pop	 edi
  00acf	c7 85 10 ff ff
	ff af 80 9e 8f	 mov	 DWORD PTR __t$538194[ebp], -1885437777 ; 8f9e80afH
  00ad9	c7 85 14 ff ff
	ff a6 89 92 be	 mov	 DWORD PTR __t$538194[ebp+4], -1097692762 ; be9289a6H
  00ae3	c7 85 18 ff ff
	ff 88 94 9f bb	 mov	 DWORD PTR __t$538194[ebp+8], -1147169656 ; bb9f9488H
  00aed	8d 85 10 ff ff
	ff		 lea	 eax, DWORD PTR __t$538194[ebp]
  00af3	88 9d 1c ff ff
	ff		 mov	 BYTE PTR __t$538194[ebp+12], bl
  00af9	8b cf		 mov	 ecx, edi
$LL1922@AddRenderI:
  00afb	81 30 ed ec eb
	ea		 xor	 DWORD PTR [eax], -353637139 ; eaebecedH
  00b01	83 c0 04	 add	 eax, 4
  00b04	49		 dec	 ecx
  00b05	75 f4		 jne	 SHORT $LL1922@AddRenderI
  00b07	8b 8d 64 fe ff
	ff		 mov	 ecx, DWORD PTR _szType$GSCopy$[ebp]
  00b0d	8d b5 10 ff ff
	ff		 lea	 esi, DWORD PTR __t$538194[ebp]
  00b13	ff 15 00 00 00
	00		 call	 DWORD PTR __imp_?c_str@ioHashString@@QBEPBDXZ
$LL2850@AddRenderI:
  00b19	8a 08		 mov	 cl, BYTE PTR [eax]
  00b1b	3a 0e		 cmp	 cl, BYTE PTR [esi]
  00b1d	75 1a		 jne	 SHORT $LN2851@AddRenderI
  00b1f	3a cb		 cmp	 cl, bl
  00b21	74 12		 je	 SHORT $LN2852@AddRenderI
  00b23	8a 48 01	 mov	 cl, BYTE PTR [eax+1]
  00b26	3a 4e 01	 cmp	 cl, BYTE PTR [esi+1]
  00b29	75 0e		 jne	 SHORT $LN2851@AddRenderI
  00b2b	83 c0 02	 add	 eax, 2
  00b2e	83 c6 02	 add	 esi, 2
  00b31	3a cb		 cmp	 cl, bl
  00b33	75 e4		 jne	 SHORT $LL2850@AddRenderI
$LN2852@AddRenderI:
  00b35	33 c0		 xor	 eax, eax
  00b37	eb 05		 jmp	 SHORT $LN2853@AddRenderI
$LN2851@AddRenderI:
  00b39	1b c0		 sbb	 eax, eax
  00b3b	83 d8 ff	 sbb	 eax, -1
$LN2853@AddRenderI:
  00b3e	3b c3		 cmp	 eax, ebx
  00b40	75 3c		 jne	 SHORT $LN2779@AddRenderI

; 217  : 	{
; 218  : 		SAFEDELETE( m_pBlueKeyText[0] );

  00b42	8b 85 5c fe ff
	ff		 mov	 eax, DWORD PTR _this$GSCopy$[ebp]
  00b48	39 98 d0 01 00
	00		 cmp	 DWORD PTR [eax+464], ebx
  00b4e	74 1d		 je	 SHORT $LN23@AddRenderI
  00b50	8b 88 d0 01 00
	00		 mov	 ecx, DWORD PTR [eax+464]
  00b56	3b cb		 cmp	 ecx, ebx
  00b58	74 0d		 je	 SHORT $LN107@AddRenderI
  00b5a	8b 01		 mov	 eax, DWORD PTR [ecx]
  00b5c	6a 01		 push	 1
  00b5e	ff 50 40	 call	 DWORD PTR [eax+64]
  00b61	8b 85 5c fe ff
	ff		 mov	 eax, DWORD PTR _this$GSCopy$[ebp]
$LN107@AddRenderI:
  00b67	89 98 d0 01 00
	00		 mov	 DWORD PTR [eax+464], ebx
$LN23@AddRenderI:

; 219  : 		m_pBlueKeyText[0] = pImage;

  00b6d	8b 8d 60 fe ff
	ff		 mov	 ecx, DWORD PTR _pImage$GSCopy$[ebp]
  00b73	89 88 d0 01 00
	00		 mov	 DWORD PTR [eax+464], ecx
  00b79	e9 d8 04 00 00	 jmp	 $LN1@AddRenderI
$LN2779@AddRenderI:

; 220  : 	}
; 221  : 	else if( szType == "BlueKeyTextW" )

  00b7e	c7 85 fc fe ff
	ff af 80 9e 8f	 mov	 DWORD PTR __t$538319[ebp], -1885437777 ; 8f9e80afH
  00b88	c7 85 00 ff ff
	ff a6 89 92 be	 mov	 DWORD PTR __t$538319[ebp+4], -1097692762 ; be9289a6H
  00b92	c7 85 04 ff ff
	ff 88 94 9f bd	 mov	 DWORD PTR __t$538319[ebp+8], -1113615224 ; bd9f9488H
  00b9c	8d 85 fc fe ff
	ff		 lea	 eax, DWORD PTR __t$538319[ebp]
  00ba2	88 9d 08 ff ff
	ff		 mov	 BYTE PTR __t$538319[ebp+12], bl
  00ba8	8b cf		 mov	 ecx, edi
$LL2028@AddRenderI:
  00baa	81 30 ed ec eb
	ea		 xor	 DWORD PTR [eax], -353637139 ; eaebecedH
  00bb0	83 c0 04	 add	 eax, 4
  00bb3	49		 dec	 ecx
  00bb4	75 f4		 jne	 SHORT $LL2028@AddRenderI
  00bb6	8b 8d 64 fe ff
	ff		 mov	 ecx, DWORD PTR _szType$GSCopy$[ebp]
  00bbc	8d b5 fc fe ff
	ff		 lea	 esi, DWORD PTR __t$538319[ebp]
  00bc2	ff 15 00 00 00
	00		 call	 DWORD PTR __imp_?c_str@ioHashString@@QBEPBDXZ
$LL2854@AddRenderI:
  00bc8	8a 08		 mov	 cl, BYTE PTR [eax]
  00bca	3a 0e		 cmp	 cl, BYTE PTR [esi]
  00bcc	75 1a		 jne	 SHORT $LN2855@AddRenderI
  00bce	3a cb		 cmp	 cl, bl
  00bd0	74 12		 je	 SHORT $LN2856@AddRenderI
  00bd2	8a 48 01	 mov	 cl, BYTE PTR [eax+1]
  00bd5	3a 4e 01	 cmp	 cl, BYTE PTR [esi+1]
  00bd8	75 0e		 jne	 SHORT $LN2855@AddRenderI
  00bda	83 c0 02	 add	 eax, 2
  00bdd	83 c6 02	 add	 esi, 2
  00be0	3a cb		 cmp	 cl, bl
  00be2	75 e4		 jne	 SHORT $LL2854@AddRenderI
$LN2856@AddRenderI:
  00be4	33 c0		 xor	 eax, eax
  00be6	eb 05		 jmp	 SHORT $LN2857@AddRenderI
$LN2855@AddRenderI:
  00be8	1b c0		 sbb	 eax, eax
  00bea	83 d8 ff	 sbb	 eax, -1
$LN2857@AddRenderI:
  00bed	3b c3		 cmp	 eax, ebx
  00bef	75 3c		 jne	 SHORT $LN2780@AddRenderI

; 222  : 	{
; 223  : 		SAFEDELETE( m_pBlueKeyText[1] );

  00bf1	8b 85 5c fe ff
	ff		 mov	 eax, DWORD PTR _this$GSCopy$[ebp]
  00bf7	39 98 d4 01 00
	00		 cmp	 DWORD PTR [eax+468], ebx
  00bfd	74 1d		 je	 SHORT $LN20@AddRenderI
  00bff	8b 88 d4 01 00
	00		 mov	 ecx, DWORD PTR [eax+468]
  00c05	3b cb		 cmp	 ecx, ebx
  00c07	74 0d		 je	 SHORT $LN109@AddRenderI
  00c09	8b 01		 mov	 eax, DWORD PTR [ecx]
  00c0b	6a 01		 push	 1
  00c0d	ff 50 40	 call	 DWORD PTR [eax+64]
  00c10	8b 85 5c fe ff
	ff		 mov	 eax, DWORD PTR _this$GSCopy$[ebp]
$LN109@AddRenderI:
  00c16	89 98 d4 01 00
	00		 mov	 DWORD PTR [eax+468], ebx
$LN20@AddRenderI:

; 224  : 		m_pBlueKeyText[1] = pImage;

  00c1c	8b 8d 60 fe ff
	ff		 mov	 ecx, DWORD PTR _pImage$GSCopy$[ebp]
  00c22	89 88 d4 01 00
	00		 mov	 DWORD PTR [eax+468], ecx
  00c28	e9 29 04 00 00	 jmp	 $LN1@AddRenderI
$LN2780@AddRenderI:

; 225  : 	}
; 226  : 	else if( szType == "BlueKeyTextE" )

  00c2d	c7 85 e8 fe ff
	ff af 80 9e 8f	 mov	 DWORD PTR __t$538444[ebp], -1885437777 ; 8f9e80afH
  00c37	c7 85 ec fe ff
	ff a6 89 92 be	 mov	 DWORD PTR __t$538444[ebp+4], -1097692762 ; be9289a6H
  00c41	c7 85 f0 fe ff
	ff 88 94 9f af	 mov	 DWORD PTR __t$538444[ebp+8], -1348496248 ; af9f9488H
  00c4b	8d 85 e8 fe ff
	ff		 lea	 eax, DWORD PTR __t$538444[ebp]
  00c51	88 9d f4 fe ff
	ff		 mov	 BYTE PTR __t$538444[ebp+12], bl
  00c57	8b cf		 mov	 ecx, edi
$LL2134@AddRenderI:
  00c59	81 30 ed ec eb
	ea		 xor	 DWORD PTR [eax], -353637139 ; eaebecedH
  00c5f	83 c0 04	 add	 eax, 4
  00c62	49		 dec	 ecx
  00c63	75 f4		 jne	 SHORT $LL2134@AddRenderI
  00c65	8b 8d 64 fe ff
	ff		 mov	 ecx, DWORD PTR _szType$GSCopy$[ebp]
  00c6b	8d b5 e8 fe ff
	ff		 lea	 esi, DWORD PTR __t$538444[ebp]
  00c71	ff 15 00 00 00
	00		 call	 DWORD PTR __imp_?c_str@ioHashString@@QBEPBDXZ
$LL2858@AddRenderI:
  00c77	8a 08		 mov	 cl, BYTE PTR [eax]
  00c79	3a 0e		 cmp	 cl, BYTE PTR [esi]
  00c7b	75 1a		 jne	 SHORT $LN2859@AddRenderI
  00c7d	3a cb		 cmp	 cl, bl
  00c7f	74 12		 je	 SHORT $LN2860@AddRenderI
  00c81	8a 48 01	 mov	 cl, BYTE PTR [eax+1]
  00c84	3a 4e 01	 cmp	 cl, BYTE PTR [esi+1]
  00c87	75 0e		 jne	 SHORT $LN2859@AddRenderI
  00c89	83 c0 02	 add	 eax, 2
  00c8c	83 c6 02	 add	 esi, 2
  00c8f	3a cb		 cmp	 cl, bl
  00c91	75 e4		 jne	 SHORT $LL2858@AddRenderI
$LN2860@AddRenderI:
  00c93	33 c0		 xor	 eax, eax
  00c95	eb 05		 jmp	 SHORT $LN2861@AddRenderI
$LN2859@AddRenderI:
  00c97	1b c0		 sbb	 eax, eax
  00c99	83 d8 ff	 sbb	 eax, -1
$LN2861@AddRenderI:
  00c9c	3b c3		 cmp	 eax, ebx
  00c9e	75 3c		 jne	 SHORT $LN2781@AddRenderI

; 227  : 	{
; 228  : 		SAFEDELETE( m_pBlueKeyText[2] );

  00ca0	8b 85 5c fe ff
	ff		 mov	 eax, DWORD PTR _this$GSCopy$[ebp]
  00ca6	39 98 d8 01 00
	00		 cmp	 DWORD PTR [eax+472], ebx
  00cac	74 1d		 je	 SHORT $LN17@AddRenderI
  00cae	8b 88 d8 01 00
	00		 mov	 ecx, DWORD PTR [eax+472]
  00cb4	3b cb		 cmp	 ecx, ebx
  00cb6	74 0d		 je	 SHORT $LN111@AddRenderI
  00cb8	8b 01		 mov	 eax, DWORD PTR [ecx]
  00cba	6a 01		 push	 1
  00cbc	ff 50 40	 call	 DWORD PTR [eax+64]
  00cbf	8b 85 5c fe ff
	ff		 mov	 eax, DWORD PTR _this$GSCopy$[ebp]
$LN111@AddRenderI:
  00cc5	89 98 d8 01 00
	00		 mov	 DWORD PTR [eax+472], ebx
$LN17@AddRenderI:

; 229  : 		m_pBlueKeyText[2] = pImage;

  00ccb	8b 8d 60 fe ff
	ff		 mov	 ecx, DWORD PTR _pImage$GSCopy$[ebp]
  00cd1	89 88 d8 01 00
	00		 mov	 DWORD PTR [eax+472], ecx
  00cd7	e9 7a 03 00 00	 jmp	 $LN1@AddRenderI
$LN2781@AddRenderI:

; 230  : 	}
; 231  : 	else if( szType == "BlueKeyTextR" )

  00cdc	c7 85 c0 fe ff
	ff af 80 9e 8f	 mov	 DWORD PTR __t$538569[ebp], -1885437777 ; 8f9e80afH
  00ce6	c7 85 c4 fe ff
	ff a6 89 92 be	 mov	 DWORD PTR __t$538569[ebp+4], -1097692762 ; be9289a6H
  00cf0	c7 85 c8 fe ff
	ff 88 94 9f b8	 mov	 DWORD PTR __t$538569[ebp+8], -1197501304 ; b89f9488H
  00cfa	8d 85 c0 fe ff
	ff		 lea	 eax, DWORD PTR __t$538569[ebp]
  00d00	88 9d cc fe ff
	ff		 mov	 BYTE PTR __t$538569[ebp+12], bl
  00d06	8b cf		 mov	 ecx, edi
$LL2240@AddRenderI:
  00d08	81 30 ed ec eb
	ea		 xor	 DWORD PTR [eax], -353637139 ; eaebecedH
  00d0e	83 c0 04	 add	 eax, 4
  00d11	49		 dec	 ecx
  00d12	75 f4		 jne	 SHORT $LL2240@AddRenderI
  00d14	8b 8d 64 fe ff
	ff		 mov	 ecx, DWORD PTR _szType$GSCopy$[ebp]
  00d1a	8d b5 c0 fe ff
	ff		 lea	 esi, DWORD PTR __t$538569[ebp]
  00d20	ff 15 00 00 00
	00		 call	 DWORD PTR __imp_?c_str@ioHashString@@QBEPBDXZ
$LL2862@AddRenderI:
  00d26	8a 08		 mov	 cl, BYTE PTR [eax]
  00d28	3a 0e		 cmp	 cl, BYTE PTR [esi]
  00d2a	75 1a		 jne	 SHORT $LN2863@AddRenderI
  00d2c	3a cb		 cmp	 cl, bl
  00d2e	74 12		 je	 SHORT $LN2864@AddRenderI
  00d30	8a 48 01	 mov	 cl, BYTE PTR [eax+1]
  00d33	3a 4e 01	 cmp	 cl, BYTE PTR [esi+1]
  00d36	75 0e		 jne	 SHORT $LN2863@AddRenderI
  00d38	83 c0 02	 add	 eax, 2
  00d3b	83 c6 02	 add	 esi, 2
  00d3e	3a cb		 cmp	 cl, bl
  00d40	75 e4		 jne	 SHORT $LL2862@AddRenderI
$LN2864@AddRenderI:
  00d42	33 c0		 xor	 eax, eax
  00d44	eb 05		 jmp	 SHORT $LN2865@AddRenderI
$LN2863@AddRenderI:
  00d46	1b c0		 sbb	 eax, eax
  00d48	83 d8 ff	 sbb	 eax, -1
$LN2865@AddRenderI:
  00d4b	3b c3		 cmp	 eax, ebx
  00d4d	75 3c		 jne	 SHORT $LN2782@AddRenderI

; 232  : 	{
; 233  : 		SAFEDELETE( m_pBlueKeyText[3] );

  00d4f	8b 85 5c fe ff
	ff		 mov	 eax, DWORD PTR _this$GSCopy$[ebp]
  00d55	39 98 dc 01 00
	00		 cmp	 DWORD PTR [eax+476], ebx
  00d5b	74 1d		 je	 SHORT $LN14@AddRenderI
  00d5d	8b 88 dc 01 00
	00		 mov	 ecx, DWORD PTR [eax+476]
  00d63	3b cb		 cmp	 ecx, ebx
  00d65	74 0d		 je	 SHORT $LN113@AddRenderI
  00d67	8b 01		 mov	 eax, DWORD PTR [ecx]
  00d69	6a 01		 push	 1
  00d6b	ff 50 40	 call	 DWORD PTR [eax+64]
  00d6e	8b 85 5c fe ff
	ff		 mov	 eax, DWORD PTR _this$GSCopy$[ebp]
$LN113@AddRenderI:
  00d74	89 98 dc 01 00
	00		 mov	 DWORD PTR [eax+476], ebx
$LN14@AddRenderI:

; 234  : 		m_pBlueKeyText[3] = pImage;

  00d7a	8b 8d 60 fe ff
	ff		 mov	 ecx, DWORD PTR _pImage$GSCopy$[ebp]
  00d80	89 88 dc 01 00
	00		 mov	 DWORD PTR [eax+476], ecx
  00d86	e9 cb 02 00 00	 jmp	 $LN1@AddRenderI
$LN2782@AddRenderI:

; 235  : 	}
; 236  : 	else if( szType == "BlueKeyTextT" )

  00d8b	c7 85 98 fe ff
	ff af 80 9e 8f	 mov	 DWORD PTR __t$538707[ebp], -1885437777 ; 8f9e80afH
  00d95	c7 85 9c fe ff
	ff a6 89 92 be	 mov	 DWORD PTR __t$538707[ebp+4], -1097692762 ; be9289a6H
  00d9f	c7 85 a0 fe ff
	ff 88 94 9f be	 mov	 DWORD PTR __t$538707[ebp+8], -1096838008 ; be9f9488H
  00da9	8d 85 98 fe ff
	ff		 lea	 eax, DWORD PTR __t$538707[ebp]
  00daf	88 9d a4 fe ff
	ff		 mov	 BYTE PTR __t$538707[ebp+12], bl
  00db5	8b cf		 mov	 ecx, edi
$LL2346@AddRenderI:
  00db7	81 30 ed ec eb
	ea		 xor	 DWORD PTR [eax], -353637139 ; eaebecedH
  00dbd	83 c0 04	 add	 eax, 4
  00dc0	49		 dec	 ecx
  00dc1	75 f4		 jne	 SHORT $LL2346@AddRenderI
  00dc3	8b 8d 64 fe ff
	ff		 mov	 ecx, DWORD PTR _szType$GSCopy$[ebp]
  00dc9	8d b5 98 fe ff
	ff		 lea	 esi, DWORD PTR __t$538707[ebp]
  00dcf	ff 15 00 00 00
	00		 call	 DWORD PTR __imp_?c_str@ioHashString@@QBEPBDXZ
$LL2866@AddRenderI:
  00dd5	8a 08		 mov	 cl, BYTE PTR [eax]
  00dd7	3a 0e		 cmp	 cl, BYTE PTR [esi]
  00dd9	75 1a		 jne	 SHORT $LN2867@AddRenderI
  00ddb	3a cb		 cmp	 cl, bl
  00ddd	74 12		 je	 SHORT $LN2868@AddRenderI
  00ddf	8a 48 01	 mov	 cl, BYTE PTR [eax+1]
  00de2	3a 4e 01	 cmp	 cl, BYTE PTR [esi+1]
  00de5	75 0e		 jne	 SHORT $LN2867@AddRenderI
  00de7	83 c0 02	 add	 eax, 2
  00dea	83 c6 02	 add	 esi, 2
  00ded	3a cb		 cmp	 cl, bl
  00def	75 e4		 jne	 SHORT $LL2866@AddRenderI
$LN2868@AddRenderI:
  00df1	33 c0		 xor	 eax, eax
  00df3	eb 05		 jmp	 SHORT $LN2869@AddRenderI
$LN2867@AddRenderI:
  00df5	1b c0		 sbb	 eax, eax
  00df7	83 d8 ff	 sbb	 eax, -1
$LN2869@AddRenderI:
  00dfa	3b c3		 cmp	 eax, ebx
  00dfc	75 3c		 jne	 SHORT $LN2783@AddRenderI

; 237  : 	{
; 238  : 		SAFEDELETE( m_pBlueKeyText[4] );

  00dfe	8b 85 5c fe ff
	ff		 mov	 eax, DWORD PTR _this$GSCopy$[ebp]
  00e04	39 98 e0 01 00
	00		 cmp	 DWORD PTR [eax+480], ebx
  00e0a	74 1d		 je	 SHORT $LN11@AddRenderI
  00e0c	8b 88 e0 01 00
	00		 mov	 ecx, DWORD PTR [eax+480]
  00e12	3b cb		 cmp	 ecx, ebx
  00e14	74 0d		 je	 SHORT $LN115@AddRenderI
  00e16	8b 01		 mov	 eax, DWORD PTR [ecx]
  00e18	6a 01		 push	 1
  00e1a	ff 50 40	 call	 DWORD PTR [eax+64]
  00e1d	8b 85 5c fe ff
	ff		 mov	 eax, DWORD PTR _this$GSCopy$[ebp]
$LN115@AddRenderI:
  00e23	89 98 e0 01 00
	00		 mov	 DWORD PTR [eax+480], ebx
$LN11@AddRenderI:

; 239  : 		m_pBlueKeyText[4] = pImage;

  00e29	8b 8d 60 fe ff
	ff		 mov	 ecx, DWORD PTR _pImage$GSCopy$[ebp]
  00e2f	89 88 e0 01 00
	00		 mov	 DWORD PTR [eax+480], ecx
  00e35	e9 1c 02 00 00	 jmp	 $LN1@AddRenderI
$LN2783@AddRenderI:

; 240  : 	}
; 241  : 	else if( szType == "BlueKeyTextY" )

  00e3a	c7 85 d4 fe ff
	ff af 80 9e 8f	 mov	 DWORD PTR __t$538832[ebp], -1885437777 ; 8f9e80afH
  00e44	c7 85 d8 fe ff
	ff a6 89 92 be	 mov	 DWORD PTR __t$538832[ebp+4], -1097692762 ; be9289a6H
  00e4e	c7 85 dc fe ff
	ff 88 94 9f b3	 mov	 DWORD PTR __t$538832[ebp+8], -1281387384 ; b39f9488H
  00e58	8d 85 d4 fe ff
	ff		 lea	 eax, DWORD PTR __t$538832[ebp]
  00e5e	88 9d e0 fe ff
	ff		 mov	 BYTE PTR __t$538832[ebp+12], bl
  00e64	8b cf		 mov	 ecx, edi
$LL2452@AddRenderI:
  00e66	81 30 ed ec eb
	ea		 xor	 DWORD PTR [eax], -353637139 ; eaebecedH
  00e6c	83 c0 04	 add	 eax, 4
  00e6f	49		 dec	 ecx
  00e70	75 f4		 jne	 SHORT $LL2452@AddRenderI
  00e72	8b 8d 64 fe ff
	ff		 mov	 ecx, DWORD PTR _szType$GSCopy$[ebp]
  00e78	8d b5 d4 fe ff
	ff		 lea	 esi, DWORD PTR __t$538832[ebp]
  00e7e	ff 15 00 00 00
	00		 call	 DWORD PTR __imp_?c_str@ioHashString@@QBEPBDXZ
$LL2870@AddRenderI:
  00e84	8a 08		 mov	 cl, BYTE PTR [eax]
  00e86	3a 0e		 cmp	 cl, BYTE PTR [esi]
  00e88	75 1a		 jne	 SHORT $LN2871@AddRenderI
  00e8a	3a cb		 cmp	 cl, bl
  00e8c	74 12		 je	 SHORT $LN2872@AddRenderI
  00e8e	8a 48 01	 mov	 cl, BYTE PTR [eax+1]
  00e91	3a 4e 01	 cmp	 cl, BYTE PTR [esi+1]
  00e94	75 0e		 jne	 SHORT $LN2871@AddRenderI
  00e96	83 c0 02	 add	 eax, 2
  00e99	83 c6 02	 add	 esi, 2
  00e9c	3a cb		 cmp	 cl, bl
  00e9e	75 e4		 jne	 SHORT $LL2870@AddRenderI
$LN2872@AddRenderI:
  00ea0	33 c0		 xor	 eax, eax
  00ea2	eb 05		 jmp	 SHORT $LN2873@AddRenderI
$LN2871@AddRenderI:
  00ea4	1b c0		 sbb	 eax, eax
  00ea6	83 d8 ff	 sbb	 eax, -1
$LN2873@AddRenderI:
  00ea9	3b c3		 cmp	 eax, ebx
  00eab	75 3c		 jne	 SHORT $LN2784@AddRenderI

; 242  : 	{
; 243  : 		SAFEDELETE( m_pBlueKeyText[5] );

  00ead	8b 85 5c fe ff
	ff		 mov	 eax, DWORD PTR _this$GSCopy$[ebp]
  00eb3	39 98 e4 01 00
	00		 cmp	 DWORD PTR [eax+484], ebx
  00eb9	74 1d		 je	 SHORT $LN8@AddRenderI
  00ebb	8b 88 e4 01 00
	00		 mov	 ecx, DWORD PTR [eax+484]
  00ec1	3b cb		 cmp	 ecx, ebx
  00ec3	74 0d		 je	 SHORT $LN117@AddRenderI
  00ec5	8b 01		 mov	 eax, DWORD PTR [ecx]
  00ec7	6a 01		 push	 1
  00ec9	ff 50 40	 call	 DWORD PTR [eax+64]
  00ecc	8b 85 5c fe ff
	ff		 mov	 eax, DWORD PTR _this$GSCopy$[ebp]
$LN117@AddRenderI:
  00ed2	89 98 e4 01 00
	00		 mov	 DWORD PTR [eax+484], ebx
$LN8@AddRenderI:

; 244  : 		m_pBlueKeyText[5] = pImage;

  00ed8	8b 8d 60 fe ff
	ff		 mov	 ecx, DWORD PTR _pImage$GSCopy$[ebp]
  00ede	89 88 e4 01 00
	00		 mov	 DWORD PTR [eax+484], ecx
  00ee4	e9 6d 01 00 00	 jmp	 $LN1@AddRenderI
$LN2784@AddRenderI:

; 245  : 	}
; 246  : 	else if( szType == "BlueKeyTextU" )

  00ee9	c7 85 ac fe ff
	ff af 80 9e 8f	 mov	 DWORD PTR __t$538944[ebp], -1885437777 ; 8f9e80afH
  00ef3	c7 85 b0 fe ff
	ff a6 89 92 be	 mov	 DWORD PTR __t$538944[ebp+4], -1097692762 ; be9289a6H
  00efd	c7 85 b4 fe ff
	ff 88 94 9f bf	 mov	 DWORD PTR __t$538944[ebp+8], -1080060792 ; bf9f9488H
  00f07	8d 85 ac fe ff
	ff		 lea	 eax, DWORD PTR __t$538944[ebp]
  00f0d	88 9d b8 fe ff
	ff		 mov	 BYTE PTR __t$538944[ebp+12], bl
  00f13	8b cf		 mov	 ecx, edi
$LL2558@AddRenderI:
  00f15	81 30 ed ec eb
	ea		 xor	 DWORD PTR [eax], -353637139 ; eaebecedH
  00f1b	83 c0 04	 add	 eax, 4
  00f1e	49		 dec	 ecx
  00f1f	75 f4		 jne	 SHORT $LL2558@AddRenderI
  00f21	8b 8d 64 fe ff
	ff		 mov	 ecx, DWORD PTR _szType$GSCopy$[ebp]
  00f27	8d b5 ac fe ff
	ff		 lea	 esi, DWORD PTR __t$538944[ebp]
  00f2d	ff 15 00 00 00
	00		 call	 DWORD PTR __imp_?c_str@ioHashString@@QBEPBDXZ
$LL2874@AddRenderI:
  00f33	8a 08		 mov	 cl, BYTE PTR [eax]
  00f35	3a 0e		 cmp	 cl, BYTE PTR [esi]
  00f37	75 1a		 jne	 SHORT $LN2875@AddRenderI
  00f39	3a cb		 cmp	 cl, bl
  00f3b	74 12		 je	 SHORT $LN2876@AddRenderI
  00f3d	8a 48 01	 mov	 cl, BYTE PTR [eax+1]
  00f40	3a 4e 01	 cmp	 cl, BYTE PTR [esi+1]
  00f43	75 0e		 jne	 SHORT $LN2875@AddRenderI
  00f45	83 c0 02	 add	 eax, 2
  00f48	83 c6 02	 add	 esi, 2
  00f4b	3a cb		 cmp	 cl, bl
  00f4d	75 e4		 jne	 SHORT $LL2874@AddRenderI
$LN2876@AddRenderI:
  00f4f	33 c0		 xor	 eax, eax
  00f51	eb 05		 jmp	 SHORT $LN2877@AddRenderI
$LN2875@AddRenderI:
  00f53	1b c0		 sbb	 eax, eax
  00f55	83 d8 ff	 sbb	 eax, -1
$LN2877@AddRenderI:
  00f58	3b c3		 cmp	 eax, ebx
  00f5a	75 3c		 jne	 SHORT $LN2785@AddRenderI

; 247  : 	{
; 248  : 		SAFEDELETE( m_pBlueKeyText[6] );

  00f5c	8b 85 5c fe ff
	ff		 mov	 eax, DWORD PTR _this$GSCopy$[ebp]
  00f62	39 98 e8 01 00
	00		 cmp	 DWORD PTR [eax+488], ebx
  00f68	74 1d		 je	 SHORT $LN5@AddRenderI
  00f6a	8b 88 e8 01 00
	00		 mov	 ecx, DWORD PTR [eax+488]
  00f70	3b cb		 cmp	 ecx, ebx
  00f72	74 0d		 je	 SHORT $LN119@AddRenderI
  00f74	8b 01		 mov	 eax, DWORD PTR [ecx]
  00f76	6a 01		 push	 1
  00f78	ff 50 40	 call	 DWORD PTR [eax+64]
  00f7b	8b 85 5c fe ff
	ff		 mov	 eax, DWORD PTR _this$GSCopy$[ebp]
$LN119@AddRenderI:
  00f81	89 98 e8 01 00
	00		 mov	 DWORD PTR [eax+488], ebx
$LN5@AddRenderI:

; 249  : 		m_pBlueKeyText[6] = pImage;

  00f87	8b 8d 60 fe ff
	ff		 mov	 ecx, DWORD PTR _pImage$GSCopy$[ebp]
  00f8d	89 88 e8 01 00
	00		 mov	 DWORD PTR [eax+488], ecx
  00f93	e9 be 00 00 00	 jmp	 $LN1@AddRenderI
$LN2785@AddRenderI:

; 250  : 	}
; 251  : 	else if( szType == "BlueKeyTextI" )

  00f98	c7 85 24 ff ff
	ff af 80 9e 8f	 mov	 DWORD PTR __t$539069[ebp], -1885437777 ; 8f9e80afH
  00fa2	c7 85 28 ff ff
	ff a6 89 92 be	 mov	 DWORD PTR __t$539069[ebp+4], -1097692762 ; be9289a6H
  00fac	c7 85 2c ff ff
	ff 88 94 9f a3	 mov	 DWORD PTR __t$539069[ebp+8], -1549822840 ; a39f9488H
  00fb6	8d 85 24 ff ff
	ff		 lea	 eax, DWORD PTR __t$539069[ebp]
  00fbc	88 9d 30 ff ff
	ff		 mov	 BYTE PTR __t$539069[ebp+12], bl
  00fc2	8b cf		 mov	 ecx, edi
$LL2664@AddRenderI:
  00fc4	81 30 ed ec eb
	ea		 xor	 DWORD PTR [eax], -353637139 ; eaebecedH
  00fca	83 c0 04	 add	 eax, 4
  00fcd	49		 dec	 ecx
  00fce	75 f4		 jne	 SHORT $LL2664@AddRenderI
  00fd0	8b 8d 64 fe ff
	ff		 mov	 ecx, DWORD PTR _szType$GSCopy$[ebp]
  00fd6	8d b5 24 ff ff
	ff		 lea	 esi, DWORD PTR __t$539069[ebp]
  00fdc	ff 15 00 00 00
	00		 call	 DWORD PTR __imp_?c_str@ioHashString@@QBEPBDXZ
$LL2878@AddRenderI:
  00fe2	8a 08		 mov	 cl, BYTE PTR [eax]
  00fe4	3a 0e		 cmp	 cl, BYTE PTR [esi]
  00fe6	75 1a		 jne	 SHORT $LN2879@AddRenderI
  00fe8	3a cb		 cmp	 cl, bl
  00fea	74 12		 je	 SHORT $LN2880@AddRenderI
  00fec	8a 48 01	 mov	 cl, BYTE PTR [eax+1]
  00fef	3a 4e 01	 cmp	 cl, BYTE PTR [esi+1]
  00ff2	75 0e		 jne	 SHORT $LN2879@AddRenderI
  00ff4	83 c0 02	 add	 eax, 2
  00ff7	83 c6 02	 add	 esi, 2
  00ffa	3a cb		 cmp	 cl, bl
  00ffc	75 e4		 jne	 SHORT $LL2878@AddRenderI
$LN2880@AddRenderI:
  00ffe	33 c0		 xor	 eax, eax
  01000	eb 05		 jmp	 SHORT $LN2881@AddRenderI
$LN2879@AddRenderI:
  01002	1b c0		 sbb	 eax, eax
  01004	83 d8 ff	 sbb	 eax, -1
$LN2881@AddRenderI:
  01007	3b c3		 cmp	 eax, ebx
  01009	75 33		 jne	 SHORT $LN3@AddRenderI

; 252  : 	{
; 253  : 		SAFEDELETE( m_pBlueKeyText[7] );

  0100b	8b b5 5c fe ff
	ff		 mov	 esi, DWORD PTR _this$GSCopy$[ebp]
  01011	39 9e ec 01 00
	00		 cmp	 DWORD PTR [esi+492], ebx
  01017	74 17		 je	 SHORT $LN2@AddRenderI
  01019	8b 8e ec 01 00
	00		 mov	 ecx, DWORD PTR [esi+492]
  0101f	3b cb		 cmp	 ecx, ebx
  01021	74 07		 je	 SHORT $LN121@AddRenderI
  01023	8b 01		 mov	 eax, DWORD PTR [ecx]
  01025	6a 01		 push	 1
  01027	ff 50 40	 call	 DWORD PTR [eax+64]
$LN121@AddRenderI:
  0102a	89 9e ec 01 00
	00		 mov	 DWORD PTR [esi+492], ebx
$LN2@AddRenderI:

; 254  : 		m_pBlueKeyText[7] = pImage;

  01030	8b 85 60 fe ff
	ff		 mov	 eax, DWORD PTR _pImage$GSCopy$[ebp]
  01036	89 86 ec 01 00
	00		 mov	 DWORD PTR [esi+492], eax

; 255  : 	}
; 256  : 	else

  0103c	eb 18		 jmp	 SHORT $LN1@AddRenderI
$LN3@AddRenderI:

; 257  : 	{
; 258  : 		ioWnd::AddRenderImage( szType, pImage );

  0103e	ff b5 60 fe ff
	ff		 push	 DWORD PTR _pImage$GSCopy$[ebp]
  01044	8b 8d 5c fe ff
	ff		 mov	 ecx, DWORD PTR _this$GSCopy$[ebp]
  0104a	ff b5 64 fe ff
	ff		 push	 DWORD PTR _szType$GSCopy$[ebp]
  01050	ff 15 00 00 00
	00		 call	 DWORD PTR __imp_?AddRenderImage@ioWnd@@UAEXABVioHashString@@PAVioUIRenderImage@@@Z
$LN1@AddRenderI:

; 259  : 	}
; 260  : }

  01056	8b 4d fc	 mov	 ecx, DWORD PTR __$ArrayPad$[ebp]
  01059	5f		 pop	 edi
  0105a	5e		 pop	 esi
  0105b	33 cd		 xor	 ecx, ebp
  0105d	5b		 pop	 ebx
  0105e	e8 00 00 00 00	 call	 @__security_check_cookie@4
  01063	c9		 leave
  01064	c2 08 00	 ret	 8
?AddRenderImage@ioObserverRedWnd@@UAEXABVioHashString@@PAVioUIRenderImage@@@Z ENDP ; ioObserverRedWnd::AddRenderImage
_TEXT	ENDS
PUBLIC	__$ArrayPad$
PUBLIC	?ParseExtraInfo@ioObserverRedWnd@@UAEXAAVioXMLElement@@@Z ; ioObserverRedWnd::ParseExtraInfo
; Function compile flags: /Ogsp
;	COMDAT ?ParseExtraInfo@ioObserverRedWnd@@UAEXAAVioXMLElement@@@Z
_TEXT	SEGMENT
__k$539437 = -20					; size = 11
__$ArrayPad$ = -4					; size = 4
_xElement$ = 8						; size = 4
?ParseExtraInfo@ioObserverRedWnd@@UAEXAAVioXMLElement@@@Z PROC ; ioObserverRedWnd::ParseExtraInfo, COMDAT
; _this$ = ecx

; 263  : {

  00000	55		 push	 ebp
  00001	8b ec		 mov	 ebp, esp
  00003	83 ec 14	 sub	 esp, 20			; 00000014H
  00006	a1 00 00 00 00	 mov	 eax, DWORD PTR ___security_cookie
  0000b	33 c5		 xor	 eax, ebp
  0000d	89 45 fc	 mov	 DWORD PTR __$ArrayPad$[ebp], eax
  00010	56		 push	 esi
  00011	57		 push	 edi

; 264  : 	m_dwMarkChangeTime = xElement.GetIntAttribute_e( "ChangeTime" );

  00012	6a 02		 push	 2
  00014	8b f9		 mov	 edi, ecx
  00016	8b 4d 08	 mov	 ecx, DWORD PTR _xElement$[ebp]
  00019	c7 45 ec ae 84
	8a 84		 mov	 DWORD PTR __k$539437[ebp], -2071296850 ; 848a84aeH
  00020	c7 45 f0 8a 89
	bf 83		 mov	 DWORD PTR __k$539437[ebp+4], -2084599414 ; 83bf898aH
  00027	66 c7 45 f4 80
	89		 mov	 WORD PTR __k$539437[ebp+8], 35200 ; 00008980H
  0002d	8d 45 ec	 lea	 eax, DWORD PTR __k$539437[ebp]
  00030	c6 45 f6 00	 mov	 BYTE PTR __k$539437[ebp+10], 0
  00034	5a		 pop	 edx
$LL106@ParseExtra:
  00035	81 30 ed ec eb
	ea		 xor	 DWORD PTR [eax], -353637139 ; eaebecedH
  0003b	83 c0 04	 add	 eax, 4
  0003e	4a		 dec	 edx
  0003f	75 f4		 jne	 SHORT $LL106@ParseExtra
  00041	6a 08		 push	 8
  00043	5e		 pop	 esi
$LL103@ParseExtra:
  00044	8b c6		 mov	 eax, esi
  00046	25 03 00 00 80	 and	 eax, -2147483645	; 80000003H
  0004b	79 05		 jns	 SHORT $LN113@ParseExtra
  0004d	48		 dec	 eax
  0004e	83 c8 fc	 or	 eax, -4			; fffffffcH
  00051	40		 inc	 eax
$LN113@ParseExtra:
  00052	b2 ed		 mov	 dl, -19			; ffffffedH
  00054	2a d0		 sub	 dl, al
  00056	30 54 35 ec	 xor	 BYTE PTR __k$539437[ebp+esi], dl
  0005a	46		 inc	 esi
  0005b	83 fe 0a	 cmp	 esi, 10			; 0000000aH
  0005e	7c e4		 jl	 SHORT $LL103@ParseExtra
  00060	8d 45 ec	 lea	 eax, DWORD PTR __k$539437[ebp]
  00063	50		 push	 eax
  00064	ff 15 00 00 00
	00		 call	 DWORD PTR __imp_?GetIntAttribute@ioXMLElement@@QBEHPBD@Z

; 265  : }

  0006a	8b 4d fc	 mov	 ecx, DWORD PTR __$ArrayPad$[ebp]
  0006d	89 87 f4 01 00
	00		 mov	 DWORD PTR [edi+500], eax
  00073	5f		 pop	 edi
  00074	33 cd		 xor	 ecx, ebp
  00076	5e		 pop	 esi
  00077	e8 00 00 00 00	 call	 @__security_check_cookie@4
  0007c	c9		 leave
  0007d	c2 04 00	 ret	 4
?ParseExtraInfo@ioObserverRedWnd@@UAEXAAVioXMLElement@@@Z ENDP ; ioObserverRedWnd::ParseExtraInfo
_TEXT	ENDS
PUBLIC	?OnProcess@ioObserverRedWnd@@MAEXM@Z		; ioObserverRedWnd::OnProcess
EXTRN	__imp_?OnProcess@ioWnd@@MAEXM@Z:PROC
EXTRN	__imp_?IsShow@ioWnd@@QBE_NXZ:PROC
; Function compile flags: /Ogsp
;	COMDAT ?OnProcess@ioObserverRedWnd@@MAEXM@Z
_TEXT	SEGMENT
_fTimePerSec$ = 8					; size = 4
?OnProcess@ioObserverRedWnd@@MAEXM@Z PROC		; ioObserverRedWnd::OnProcess, COMDAT
; _this$ = ecx

; 509  : {

  00000	55		 push	 ebp
  00001	8b ec		 mov	 ebp, esp
  00003	56		 push	 esi
  00004	8b f1		 mov	 esi, ecx

; 510  : 	if( !IsShow() )	return;

  00006	ff 15 00 00 00
	00		 call	 DWORD PTR __imp_?IsShow@ioWnd@@QBE_NXZ
  0000c	84 c0		 test	 al, al
  0000e	74 2f		 je	 SHORT $LN2@OnProcess

; 511  : 
; 512  : 	UpdateWndSize();

  00010	8b ce		 mov	 ecx, esi
  00012	e8 00 00 00 00	 call	 ?UpdateWndSize@ioObserverRedWnd@@IAEXXZ ; ioObserverRedWnd::UpdateWndSize

; 513  : 	UpdateDefaultPos();

  00017	8b ce		 mov	 ecx, esi
  00019	e8 00 00 00 00	 call	 ?UpdateDefaultPos@ioObserverRedWnd@@IAEXXZ ; ioObserverRedWnd::UpdateDefaultPos

; 514  : 	ProcessCameraClick();

  0001e	8b ce		 mov	 ecx, esi
  00020	e8 00 00 00 00	 call	 ?ProcessCameraClick@ioObserverRedWnd@@IAEXXZ ; ioObserverRedWnd::ProcessCameraClick

; 515  : 	UpdateMark();

  00025	8b ce		 mov	 ecx, esi
  00027	e8 00 00 00 00	 call	 ?UpdateMark@ioObserverRedWnd@@IAEXXZ ; ioObserverRedWnd::UpdateMark

; 516  : 
; 517  : 	ioMovingWnd::OnProcess( fTimePerSec );

  0002c	f3 0f 10 45 08	 movss	 xmm0, DWORD PTR _fTimePerSec$[ebp]
  00031	51		 push	 ecx
  00032	8b ce		 mov	 ecx, esi
  00034	f3 0f 11 04 24	 movss	 DWORD PTR [esp], xmm0
  00039	ff 15 00 00 00
	00		 call	 DWORD PTR __imp_?OnProcess@ioWnd@@MAEXM@Z
$LN2@OnProcess:
  0003f	5e		 pop	 esi

; 518  : }

  00040	5d		 pop	 ebp
  00041	c2 04 00	 ret	 4
?OnProcess@ioObserverRedWnd@@MAEXM@Z ENDP		; ioObserverRedWnd::OnProcess
_TEXT	ENDS
PUBLIC	?IsDieChar@ioObserverRedWnd@@IAE_NABVioHashString@@@Z ; ioObserverRedWnd::IsDieChar
; Function compile flags: /Ogsp
;	COMDAT ?IsDieChar@ioObserverRedWnd@@IAE_NABVioHashString@@@Z
_TEXT	SEGMENT
_szName$ = 8						; size = 4
_value$539583 = 11					; size = 1
?IsDieChar@ioObserverRedWnd@@IAE_NABVioHashString@@@Z PROC ; ioObserverRedWnd::IsDieChar, COMDAT
; _this$ = ecx

; 558  : {

  00000	55		 push	 ebp
  00001	8b ec		 mov	 ebp, esp

; 559  : 	if( !m_pPlayStage ) return true;

  00003	8b 89 90 01 00
	00		 mov	 ecx, DWORD PTR [ecx+400]
  00009	85 c9		 test	 ecx, ecx
  0000b	74 3f		 je	 SHORT $LN1@IsDieChar

; 560  : 
; 561  : 	ioBaseChar *pUser = m_pPlayStage->GetBaseChar( szName );

  0000d	ff 75 08	 push	 DWORD PTR _szName$[ebp]
  00010	e8 00 00 00 00	 call	 ?GetBaseChar@ioPlayStage@@QAEPAVioBaseChar@@ABVioHashString@@@Z ; ioPlayStage::GetBaseChar

; 562  : 	if( !pUser ) return true;

  00015	85 c0		 test	 eax, eax
  00017	74 33		 je	 SHORT $LN1@IsDieChar

; 563  : 
; 564  : 	if( pUser->GetState() == CS_DIE ||
; 565  : 		pUser->GetState() == CS_VIEW ||
; 566  : 		pUser->GetState() == CS_READY ||
; 567  : 		pUser->GetState() == CS_LOADING ||
; 568  : 		pUser->IsPrisonerMode() )

  00019	8a 88 10 03 00
	00		 mov	 cl, BYTE PTR [eax+784]
  0001f	80 f9 0e	 cmp	 cl, 14			; 0000000eH
  00022	74 28		 je	 SHORT $LN1@IsDieChar
  00024	80 f9 1a	 cmp	 cl, 26			; 0000001aH
  00027	74 23		 je	 SHORT $LN1@IsDieChar
  00029	80 f9 18	 cmp	 cl, 24			; 00000018H
  0002c	74 1e		 je	 SHORT $LN1@IsDieChar
  0002e	80 f9 24	 cmp	 cl, 36			; 00000024H
  00031	74 19		 je	 SHORT $LN1@IsDieChar
  00033	8d 4d 0b	 lea	 ecx, DWORD PTR _value$539583[ebp]
  00036	51		 push	 ecx
  00037	8d 88 cc 14 00
	00		 lea	 ecx, DWORD PTR [eax+5324]
  0003d	e8 00 00 00 00	 call	 ?DecryptValueToPool@?$CEncrypt@_N@@QAEXPA_N@Z ; CEncrypt<bool>::DecryptValueToPool
  00042	80 7d 0b 00	 cmp	 BYTE PTR _value$539583[ebp], 0
  00046	75 04		 jne	 SHORT $LN1@IsDieChar

; 570  : 
; 571  : 	return false;

  00048	32 c0		 xor	 al, al
  0004a	eb 02		 jmp	 SHORT $LN5@IsDieChar
$LN1@IsDieChar:

; 569  : 		return true;

  0004c	b0 01		 mov	 al, 1
$LN5@IsDieChar:

; 572  : }

  0004e	5d		 pop	 ebp
  0004f	c2 04 00	 ret	 4
?IsDieChar@ioObserverRedWnd@@IAE_NABVioHashString@@@Z ENDP ; ioObserverRedWnd::IsDieChar
_TEXT	ENDS
PUBLIC	_pImage$GSCopy$
PUBLIC	_this$GSCopy$
PUBLIC	_szType$GSCopy$
PUBLIC	__$ArrayPad$
PUBLIC	?AddRenderImage@ioObserverBlueWnd@@UAEXABVioHashString@@PAVioUIRenderImage@@@Z ; ioObserverBlueWnd::AddRenderImage
; Function compile flags: /Ogsp
;	COMDAT ?AddRenderImage@ioObserverBlueWnd@@UAEXABVioHashString@@PAVioUIRenderImage@@@Z
_TEXT	SEGMENT
_pImage$GSCopy$ = -32					; size = 4
_this$GSCopy$ = -28					; size = 4
_szType$GSCopy$ = -24					; size = 4
__t$540781 = -20					; size = 10
__t$540518 = -20					; size = 10
__t$540393 = -20					; size = 11
__t$540268 = -20					; size = 9
__t$540156 = -20					; size = 9
__t$540031 = -20					; size = 9
__t$539906 = -20					; size = 10
__t$539781 = -20					; size = 8
__t$539643 = -20					; size = 9
__t$540735 = -16					; size = 7
__$ArrayPad$ = -4					; size = 4
_szType$ = 8						; size = 4
_pImage$ = 12						; size = 4
?AddRenderImage@ioObserverBlueWnd@@UAEXABVioHashString@@PAVioUIRenderImage@@@Z PROC ; ioObserverBlueWnd::AddRenderImage, COMDAT
; _this$ = ecx

; 792  : {

  00000	55		 push	 ebp
  00001	8b ec		 mov	 ebp, esp
  00003	83 ec 20	 sub	 esp, 32			; 00000020H
  00006	a1 00 00 00 00	 mov	 eax, DWORD PTR ___security_cookie
  0000b	33 c5		 xor	 eax, ebp
  0000d	89 45 fc	 mov	 DWORD PTR __$ArrayPad$[ebp], eax
  00010	8b 45 08	 mov	 eax, DWORD PTR _szType$[ebp]
  00013	53		 push	 ebx
  00014	56		 push	 esi
  00015	57		 push	 edi

; 837  : 	}
; 838  : 	else if( szType == "GuildBack" )

  00016	89 45 e8	 mov	 DWORD PTR _szType$GSCopy$[ebp], eax
  00019	8b 45 0c	 mov	 eax, DWORD PTR _pImage$[ebp]
  0001c	6a 02		 push	 2
  0001e	33 db		 xor	 ebx, ebx
  00020	5f		 pop	 edi
  00021	89 4d e4	 mov	 DWORD PTR _this$GSCopy$[ebp], ecx
  00024	89 45 e0	 mov	 DWORD PTR _pImage$GSCopy$[ebp], eax
  00027	c7 45 ec af 80
	9e 8f		 mov	 DWORD PTR __t$539643[ebp], -1885437777 ; 8f9e80afH
  0002e	c7 45 f0 af 8d
	88 81		 mov	 DWORD PTR __t$539643[ebp+4], -2121757265 ; 81888dafH
  00035	8d 45 ec	 lea	 eax, DWORD PTR __t$539643[ebp]
  00038	88 5d f4	 mov	 BYTE PTR __t$539643[ebp+8], bl
  0003b	8b cf		 mov	 ecx, edi
$LL156@AddRenderI@2:

; 793  : 	if( szType == "BlueBack" )

  0003d	81 30 ed ec eb
	ea		 xor	 DWORD PTR [eax], -353637139 ; eaebecedH
  00043	83 c0 04	 add	 eax, 4
  00046	49		 dec	 ecx
  00047	75 f4		 jne	 SHORT $LL156@AddRenderI@2
  00049	8b 4d e8	 mov	 ecx, DWORD PTR _szType$GSCopy$[ebp]
  0004c	8d 75 ec	 lea	 esi, DWORD PTR __t$539643[ebp]
  0004f	ff 15 00 00 00
	00		 call	 DWORD PTR __imp_?c_str@ioHashString@@QBEPBDXZ
$LL1162@AddRenderI@2:
  00055	8a 08		 mov	 cl, BYTE PTR [eax]
  00057	3a 0e		 cmp	 cl, BYTE PTR [esi]
  00059	75 18		 jne	 SHORT $LN1163@AddRenderI@2
  0005b	3a cb		 cmp	 cl, bl
  0005d	74 10		 je	 SHORT $LN1164@AddRenderI@2
  0005f	8a 48 01	 mov	 cl, BYTE PTR [eax+1]
  00062	3a 4e 01	 cmp	 cl, BYTE PTR [esi+1]
  00065	75 0c		 jne	 SHORT $LN1163@AddRenderI@2
  00067	03 c7		 add	 eax, edi
  00069	03 f7		 add	 esi, edi
  0006b	3a cb		 cmp	 cl, bl
  0006d	75 e6		 jne	 SHORT $LL1162@AddRenderI@2
$LN1164@AddRenderI@2:
  0006f	33 c0		 xor	 eax, eax
  00071	eb 05		 jmp	 SHORT $LN1165@AddRenderI@2
$LN1163@AddRenderI@2:
  00073	1b c0		 sbb	 eax, eax
  00075	83 d8 ff	 sbb	 eax, -1
$LN1165@AddRenderI@2:
  00078	3b c3		 cmp	 eax, ebx
  0007a	75 28		 jne	 SHORT $LN1153@AddRenderI@2

; 794  : 	{
; 795  : 		SAFEDELETE( m_pBlueBack );

  0007c	8b 75 e4	 mov	 esi, DWORD PTR _this$GSCopy$[ebp]
  0007f	8b 8e 98 01 00
	00		 mov	 ecx, DWORD PTR [esi+408]
  00085	3b cb		 cmp	 ecx, ebx
  00087	74 0d		 je	 SHORT $LN29@AddRenderI@2
  00089	8b 01		 mov	 eax, DWORD PTR [ecx]
  0008b	6a 01		 push	 1
  0008d	ff 50 40	 call	 DWORD PTR [eax+64]
  00090	89 9e 98 01 00
	00		 mov	 DWORD PTR [esi+408], ebx
$LN29@AddRenderI@2:

; 796  : 		m_pBlueBack = pImage;

  00096	8b 45 e0	 mov	 eax, DWORD PTR _pImage$GSCopy$[ebp]
  00099	89 86 98 01 00
	00		 mov	 DWORD PTR [esi+408], eax
  0009f	e9 d4 04 00 00	 jmp	 $LN1@AddRenderI@2
$LN1153@AddRenderI@2:

; 797  : 	}
; 798  : 	else if( szType == "RedBack" )

  000a4	6a 04		 push	 4
  000a6	c7 45 ec bf 89
	8f a8		 mov	 DWORD PTR __t$539781[ebp], -1466988097 ; a88f89bfH
  000ad	81 75 ec ed ec
	eb ea		 xor	 DWORD PTR __t$539781[ebp], -353637139 ; eaebecedH
  000b4	c7 45 f0 8c 8f
	80 00		 mov	 DWORD PTR __t$539781[ebp+4], 8425356 ; 00808f8cH
  000bb	58		 pop	 eax
$LL259@AddRenderI@2:
  000bc	8b c8		 mov	 ecx, eax
  000be	81 e1 03 00 00
	80		 and	 ecx, -2147483645	; 80000003H
  000c4	79 05		 jns	 SHORT $LN1202@AddRenderI@2
  000c6	49		 dec	 ecx
  000c7	83 c9 fc	 or	 ecx, -4			; fffffffcH
  000ca	41		 inc	 ecx
$LN1202@AddRenderI@2:
  000cb	b2 ed		 mov	 dl, -19			; ffffffedH
  000cd	2a d1		 sub	 dl, cl
  000cf	30 54 05 ec	 xor	 BYTE PTR __t$539781[ebp+eax], dl
  000d3	40		 inc	 eax
  000d4	83 f8 07	 cmp	 eax, 7
  000d7	7c e3		 jl	 SHORT $LL259@AddRenderI@2
  000d9	8b 4d e8	 mov	 ecx, DWORD PTR _szType$GSCopy$[ebp]
  000dc	8d 75 ec	 lea	 esi, DWORD PTR __t$539781[ebp]
  000df	ff 15 00 00 00
	00		 call	 DWORD PTR __imp_?c_str@ioHashString@@QBEPBDXZ
$LL1166@AddRenderI@2:
  000e5	8a 08		 mov	 cl, BYTE PTR [eax]
  000e7	3a 0e		 cmp	 cl, BYTE PTR [esi]
  000e9	75 18		 jne	 SHORT $LN1167@AddRenderI@2
  000eb	3a cb		 cmp	 cl, bl
  000ed	74 10		 je	 SHORT $LN1168@AddRenderI@2
  000ef	8a 48 01	 mov	 cl, BYTE PTR [eax+1]
  000f2	3a 4e 01	 cmp	 cl, BYTE PTR [esi+1]
  000f5	75 0c		 jne	 SHORT $LN1167@AddRenderI@2
  000f7	03 c7		 add	 eax, edi
  000f9	03 f7		 add	 esi, edi
  000fb	3a cb		 cmp	 cl, bl
  000fd	75 e6		 jne	 SHORT $LL1166@AddRenderI@2
$LN1168@AddRenderI@2:
  000ff	33 c0		 xor	 eax, eax
  00101	eb 05		 jmp	 SHORT $LN1169@AddRenderI@2
$LN1167@AddRenderI@2:
  00103	1b c0		 sbb	 eax, eax
  00105	83 d8 ff	 sbb	 eax, -1
$LN1169@AddRenderI@2:
  00108	3b c3		 cmp	 eax, ebx
  0010a	75 28		 jne	 SHORT $LN1154@AddRenderI@2

; 799  : 	{
; 800  : 		SAFEDELETE( m_pRedBack );

  0010c	8b 75 e4	 mov	 esi, DWORD PTR _this$GSCopy$[ebp]
  0010f	8b 8e 9c 01 00
	00		 mov	 ecx, DWORD PTR [esi+412]
  00115	3b cb		 cmp	 ecx, ebx
  00117	74 0d		 je	 SHORT $LN26@AddRenderI@2
  00119	8b 01		 mov	 eax, DWORD PTR [ecx]
  0011b	6a 01		 push	 1
  0011d	ff 50 40	 call	 DWORD PTR [eax+64]
  00120	89 9e 9c 01 00
	00		 mov	 DWORD PTR [esi+412], ebx
$LN26@AddRenderI@2:

; 801  : 		m_pRedBack = pImage;

  00126	8b 45 e0	 mov	 eax, DWORD PTR _pImage$GSCopy$[ebp]
  00129	89 86 9c 01 00
	00		 mov	 DWORD PTR [esi+412], eax
  0012f	e9 44 04 00 00	 jmp	 $LN1@AddRenderI@2
$LN1154@AddRenderI@2:

; 802  : 	}
; 803  : 	else if( szType == "BlueGauge" )

  00134	c7 45 ec af 80
	9e 8f		 mov	 DWORD PTR __t$539906[ebp], -1885437777 ; 8f9e80afH
  0013b	c7 45 f0 aa 8d
	9e 8d		 mov	 DWORD PTR __t$539906[ebp+4], -1918988886 ; 8d9e8daaH
  00142	8d 45 ec	 lea	 eax, DWORD PTR __t$539906[ebp]
  00145	66 c7 45 f4 88
	00		 mov	 WORD PTR __t$539906[ebp+8], 136 ; 00000088H
  0014b	8b cf		 mov	 ecx, edi
$LL368@AddRenderI@2:
  0014d	81 30 ed ec eb
	ea		 xor	 DWORD PTR [eax], -353637139 ; eaebecedH
  00153	83 c0 04	 add	 eax, 4
  00156	49		 dec	 ecx
  00157	75 f4		 jne	 SHORT $LL368@AddRenderI@2
  00159	8b 4d e8	 mov	 ecx, DWORD PTR _szType$GSCopy$[ebp]
  0015c	80 75 f4 ed	 xor	 BYTE PTR __t$539906[ebp+8], -19 ; ffffffedH
  00160	8d 75 ec	 lea	 esi, DWORD PTR __t$539906[ebp]
  00163	ff 15 00 00 00
	00		 call	 DWORD PTR __imp_?c_str@ioHashString@@QBEPBDXZ
$LL1170@AddRenderI@2:
  00169	8a 08		 mov	 cl, BYTE PTR [eax]
  0016b	3a 0e		 cmp	 cl, BYTE PTR [esi]
  0016d	75 18		 jne	 SHORT $LN1171@AddRenderI@2
  0016f	3a cb		 cmp	 cl, bl
  00171	74 10		 je	 SHORT $LN1172@AddRenderI@2
  00173	8a 48 01	 mov	 cl, BYTE PTR [eax+1]
  00176	3a 4e 01	 cmp	 cl, BYTE PTR [esi+1]
  00179	75 0c		 jne	 SHORT $LN1171@AddRenderI@2
  0017b	03 c7		 add	 eax, edi
  0017d	03 f7		 add	 esi, edi
  0017f	3a cb		 cmp	 cl, bl
  00181	75 e6		 jne	 SHORT $LL1170@AddRenderI@2
$LN1172@AddRenderI@2:
  00183	33 c0		 xor	 eax, eax
  00185	eb 05		 jmp	 SHORT $LN1173@AddRenderI@2
$LN1171@AddRenderI@2:
  00187	1b c0		 sbb	 eax, eax
  00189	83 d8 ff	 sbb	 eax, -1
$LN1173@AddRenderI@2:
  0018c	3b c3		 cmp	 eax, ebx
  0018e	75 28		 jne	 SHORT $LN1155@AddRenderI@2

; 804  : 	{
; 805  : 		SAFEDELETE( m_pBlueGauge );

  00190	8b 75 e4	 mov	 esi, DWORD PTR _this$GSCopy$[ebp]
  00193	8b 8e a0 01 00
	00		 mov	 ecx, DWORD PTR [esi+416]
  00199	3b cb		 cmp	 ecx, ebx
  0019b	74 0d		 je	 SHORT $LN23@AddRenderI@2
  0019d	8b 01		 mov	 eax, DWORD PTR [ecx]
  0019f	6a 01		 push	 1
  001a1	ff 50 40	 call	 DWORD PTR [eax+64]
  001a4	89 9e a0 01 00
	00		 mov	 DWORD PTR [esi+416], ebx
$LN23@AddRenderI@2:

; 806  : 		m_pBlueGauge = pImage;

  001aa	8b 45 e0	 mov	 eax, DWORD PTR _pImage$GSCopy$[ebp]
  001ad	89 86 a0 01 00
	00		 mov	 DWORD PTR [esi+416], eax
  001b3	e9 c0 03 00 00	 jmp	 $LN1@AddRenderI@2
$LN1155@AddRenderI@2:

; 807  : 	}
; 808  : 	else if( szType == "RedGauge" )

  001b8	c7 45 ec bf 89
	8f ad		 mov	 DWORD PTR __t$540031[ebp], -1383102017 ; ad8f89bfH
  001bf	c7 45 f0 8c 99
	8c 8f		 mov	 DWORD PTR __t$540031[ebp+4], -1886611060 ; 8f8c998cH
  001c6	8d 45 ec	 lea	 eax, DWORD PTR __t$540031[ebp]
  001c9	88 5d f4	 mov	 BYTE PTR __t$540031[ebp+8], bl
  001cc	8b cf		 mov	 ecx, edi
$LL474@AddRenderI@2:
  001ce	81 30 ed ec eb
	ea		 xor	 DWORD PTR [eax], -353637139 ; eaebecedH
  001d4	83 c0 04	 add	 eax, 4
  001d7	49		 dec	 ecx
  001d8	75 f4		 jne	 SHORT $LL474@AddRenderI@2
  001da	8b 4d e8	 mov	 ecx, DWORD PTR _szType$GSCopy$[ebp]
  001dd	8d 75 ec	 lea	 esi, DWORD PTR __t$540031[ebp]
  001e0	ff 15 00 00 00
	00		 call	 DWORD PTR __imp_?c_str@ioHashString@@QBEPBDXZ
$LL1174@AddRenderI@2:
  001e6	8a 08		 mov	 cl, BYTE PTR [eax]
  001e8	3a 0e		 cmp	 cl, BYTE PTR [esi]
  001ea	75 18		 jne	 SHORT $LN1175@AddRenderI@2
  001ec	3a cb		 cmp	 cl, bl
  001ee	74 10		 je	 SHORT $LN1176@AddRenderI@2
  001f0	8a 48 01	 mov	 cl, BYTE PTR [eax+1]
  001f3	3a 4e 01	 cmp	 cl, BYTE PTR [esi+1]
  001f6	75 0c		 jne	 SHORT $LN1175@AddRenderI@2
  001f8	03 c7		 add	 eax, edi
  001fa	03 f7		 add	 esi, edi
  001fc	3a cb		 cmp	 cl, bl
  001fe	75 e6		 jne	 SHORT $LL1174@AddRenderI@2
$LN1176@AddRenderI@2:
  00200	33 c0		 xor	 eax, eax
  00202	eb 05		 jmp	 SHORT $LN1177@AddRenderI@2
$LN1175@AddRenderI@2:
  00204	1b c0		 sbb	 eax, eax
  00206	83 d8 ff	 sbb	 eax, -1
$LN1177@AddRenderI@2:
  00209	3b c3		 cmp	 eax, ebx
  0020b	75 28		 jne	 SHORT $LN1156@AddRenderI@2

; 809  : 	{
; 810  : 		SAFEDELETE( m_pRedGauge );

  0020d	8b 75 e4	 mov	 esi, DWORD PTR _this$GSCopy$[ebp]
  00210	8b 8e a4 01 00
	00		 mov	 ecx, DWORD PTR [esi+420]
  00216	3b cb		 cmp	 ecx, ebx
  00218	74 0d		 je	 SHORT $LN20@AddRenderI@2
  0021a	8b 01		 mov	 eax, DWORD PTR [ecx]
  0021c	6a 01		 push	 1
  0021e	ff 50 40	 call	 DWORD PTR [eax+64]
  00221	89 9e a4 01 00
	00		 mov	 DWORD PTR [esi+420], ebx
$LN20@AddRenderI@2:

; 811  : 		m_pRedGauge = pImage;

  00227	8b 45 e0	 mov	 eax, DWORD PTR _pImage$GSCopy$[ebp]
  0022a	89 86 a4 01 00
	00		 mov	 DWORD PTR [esi+420], eax
  00230	e9 43 03 00 00	 jmp	 $LN1@AddRenderI@2
$LN1156@AddRenderI@2:

; 812  : 	}
; 813  : 	else if( szType == "BlueDead" )

  00235	c7 45 ec af 80
	9e 8f		 mov	 DWORD PTR __t$540156[ebp], -1885437777 ; 8f9e80afH
  0023c	c7 45 f0 a9 89
	8a 8e		 mov	 DWORD PTR __t$540156[ebp+4], -1903523415 ; 8e8a89a9H
  00243	8d 45 ec	 lea	 eax, DWORD PTR __t$540156[ebp]
  00246	88 5d f4	 mov	 BYTE PTR __t$540156[ebp+8], bl
  00249	8b cf		 mov	 ecx, edi
$LL580@AddRenderI@2:
  0024b	81 30 ed ec eb
	ea		 xor	 DWORD PTR [eax], -353637139 ; eaebecedH
  00251	83 c0 04	 add	 eax, 4
  00254	49		 dec	 ecx
  00255	75 f4		 jne	 SHORT $LL580@AddRenderI@2
  00257	8b 4d e8	 mov	 ecx, DWORD PTR _szType$GSCopy$[ebp]
  0025a	8d 75 ec	 lea	 esi, DWORD PTR __t$540156[ebp]
  0025d	ff 15 00 00 00
	00		 call	 DWORD PTR __imp_?c_str@ioHashString@@QBEPBDXZ
$LL1178@AddRenderI@2:
  00263	8a 08		 mov	 cl, BYTE PTR [eax]
  00265	3a 0e		 cmp	 cl, BYTE PTR [esi]
  00267	75 18		 jne	 SHORT $LN1179@AddRenderI@2
  00269	3a cb		 cmp	 cl, bl
  0026b	74 10		 je	 SHORT $LN1180@AddRenderI@2
  0026d	8a 48 01	 mov	 cl, BYTE PTR [eax+1]
  00270	3a 4e 01	 cmp	 cl, BYTE PTR [esi+1]
  00273	75 0c		 jne	 SHORT $LN1179@AddRenderI@2
  00275	03 c7		 add	 eax, edi
  00277	03 f7		 add	 esi, edi
  00279	3a cb		 cmp	 cl, bl
  0027b	75 e6		 jne	 SHORT $LL1178@AddRenderI@2
$LN1180@AddRenderI@2:
  0027d	33 c0		 xor	 eax, eax
  0027f	eb 05		 jmp	 SHORT $LN1181@AddRenderI@2
$LN1179@AddRenderI@2:
  00281	1b c0		 sbb	 eax, eax
  00283	83 d8 ff	 sbb	 eax, -1
$LN1181@AddRenderI@2:
  00286	3b c3		 cmp	 eax, ebx
  00288	75 28		 jne	 SHORT $LN1157@AddRenderI@2

; 814  : 	{
; 815  : 		SAFEDELETE( m_pBlueDead );

  0028a	8b 75 e4	 mov	 esi, DWORD PTR _this$GSCopy$[ebp]
  0028d	8b 8e a8 01 00
	00		 mov	 ecx, DWORD PTR [esi+424]
  00293	3b cb		 cmp	 ecx, ebx
  00295	74 0d		 je	 SHORT $LN17@AddRenderI@2
  00297	8b 01		 mov	 eax, DWORD PTR [ecx]
  00299	6a 01		 push	 1
  0029b	ff 50 40	 call	 DWORD PTR [eax+64]
  0029e	89 9e a8 01 00
	00		 mov	 DWORD PTR [esi+424], ebx
$LN17@AddRenderI@2:

; 816  : 		m_pBlueDead = pImage;

  002a4	8b 45 e0	 mov	 eax, DWORD PTR _pImage$GSCopy$[ebp]
  002a7	89 86 a8 01 00
	00		 mov	 DWORD PTR [esi+424], eax
  002ad	e9 c6 02 00 00	 jmp	 $LN1@AddRenderI@2
$LN1157@AddRenderI@2:

; 817  : 	}
; 818  : 	else if( szType == "AddGauge" )

  002b2	c7 45 ec ac 88
	8f ad		 mov	 DWORD PTR __t$540268[ebp], -1383102292 ; ad8f88acH
  002b9	c7 45 f0 8c 99
	8c 8f		 mov	 DWORD PTR __t$540268[ebp+4], -1886611060 ; 8f8c998cH
  002c0	8d 45 ec	 lea	 eax, DWORD PTR __t$540268[ebp]
  002c3	88 5d f4	 mov	 BYTE PTR __t$540268[ebp+8], bl
  002c6	8b cf		 mov	 ecx, edi
$LL686@AddRenderI@2:
  002c8	81 30 ed ec eb
	ea		 xor	 DWORD PTR [eax], -353637139 ; eaebecedH
  002ce	83 c0 04	 add	 eax, 4
  002d1	49		 dec	 ecx
  002d2	75 f4		 jne	 SHORT $LL686@AddRenderI@2
  002d4	8b 4d e8	 mov	 ecx, DWORD PTR _szType$GSCopy$[ebp]
  002d7	8d 75 ec	 lea	 esi, DWORD PTR __t$540268[ebp]
  002da	ff 15 00 00 00
	00		 call	 DWORD PTR __imp_?c_str@ioHashString@@QBEPBDXZ
$LL1182@AddRenderI@2:
  002e0	8a 08		 mov	 cl, BYTE PTR [eax]
  002e2	3a 0e		 cmp	 cl, BYTE PTR [esi]
  002e4	75 18		 jne	 SHORT $LN1183@AddRenderI@2
  002e6	3a cb		 cmp	 cl, bl
  002e8	74 10		 je	 SHORT $LN1184@AddRenderI@2
  002ea	8a 48 01	 mov	 cl, BYTE PTR [eax+1]
  002ed	3a 4e 01	 cmp	 cl, BYTE PTR [esi+1]
  002f0	75 0c		 jne	 SHORT $LN1183@AddRenderI@2
  002f2	03 c7		 add	 eax, edi
  002f4	03 f7		 add	 esi, edi
  002f6	3a cb		 cmp	 cl, bl
  002f8	75 e6		 jne	 SHORT $LL1182@AddRenderI@2
$LN1184@AddRenderI@2:
  002fa	33 c0		 xor	 eax, eax
  002fc	eb 05		 jmp	 SHORT $LN1185@AddRenderI@2
$LN1183@AddRenderI@2:
  002fe	1b c0		 sbb	 eax, eax
  00300	83 d8 ff	 sbb	 eax, -1
$LN1185@AddRenderI@2:
  00303	3b c3		 cmp	 eax, ebx
  00305	75 28		 jne	 SHORT $LN1158@AddRenderI@2

; 819  : 	{
; 820  : 		SAFEDELETE( m_pAddGauge );

  00307	8b 75 e4	 mov	 esi, DWORD PTR _this$GSCopy$[ebp]
  0030a	8b 8e ac 01 00
	00		 mov	 ecx, DWORD PTR [esi+428]
  00310	3b cb		 cmp	 ecx, ebx
  00312	74 0d		 je	 SHORT $LN14@AddRenderI@2
  00314	8b 01		 mov	 eax, DWORD PTR [ecx]
  00316	6a 01		 push	 1
  00318	ff 50 40	 call	 DWORD PTR [eax+64]
  0031b	89 9e ac 01 00
	00		 mov	 DWORD PTR [esi+428], ebx
$LN14@AddRenderI@2:

; 821  : 		m_pAddGauge = pImage;

  00321	8b 45 e0	 mov	 eax, DWORD PTR _pImage$GSCopy$[ebp]
  00324	89 86 ac 01 00
	00		 mov	 DWORD PTR [esi+428], eax
  0032a	e9 49 02 00 00	 jmp	 $LN1@AddRenderI@2
$LN1158@AddRenderI@2:

; 822  : 	}
; 823  : 	else if( szType == "BlueNumKey" )

  0032f	c7 45 ec af 80
	9e 8f		 mov	 DWORD PTR __t$540393[ebp], -1885437777 ; 8f9e80afH
  00336	c7 45 f0 a3 99
	86 a1		 mov	 DWORD PTR __t$540393[ebp+4], -1585014365 ; a18699a3H
  0033d	66 c7 45 f4 88
	95		 mov	 WORD PTR __t$540393[ebp+8], 38280 ; 00009588H
  00343	8d 45 ec	 lea	 eax, DWORD PTR __t$540393[ebp]
  00346	88 5d f6	 mov	 BYTE PTR __t$540393[ebp+10], bl
  00349	8b cf		 mov	 ecx, edi
$LL792@AddRenderI@2:
  0034b	81 30 ed ec eb
	ea		 xor	 DWORD PTR [eax], -353637139 ; eaebecedH
  00351	83 c0 04	 add	 eax, 4
  00354	49		 dec	 ecx
  00355	75 f4		 jne	 SHORT $LL792@AddRenderI@2
  00357	6a 08		 push	 8
  00359	58		 pop	 eax
$LL789@AddRenderI@2:
  0035a	8b c8		 mov	 ecx, eax
  0035c	81 e1 03 00 00
	80		 and	 ecx, -2147483645	; 80000003H
  00362	79 05		 jns	 SHORT $LN1203@AddRenderI@2
  00364	49		 dec	 ecx
  00365	83 c9 fc	 or	 ecx, -4			; fffffffcH
  00368	41		 inc	 ecx
$LN1203@AddRenderI@2:
  00369	b2 ed		 mov	 dl, -19			; ffffffedH
  0036b	2a d1		 sub	 dl, cl
  0036d	30 54 05 ec	 xor	 BYTE PTR __t$540393[ebp+eax], dl
  00371	40		 inc	 eax
  00372	83 f8 0a	 cmp	 eax, 10			; 0000000aH
  00375	7c e3		 jl	 SHORT $LL789@AddRenderI@2
  00377	8b 4d e8	 mov	 ecx, DWORD PTR _szType$GSCopy$[ebp]
  0037a	8d 75 ec	 lea	 esi, DWORD PTR __t$540393[ebp]
  0037d	ff 15 00 00 00
	00		 call	 DWORD PTR __imp_?c_str@ioHashString@@QBEPBDXZ
$LL1186@AddRenderI@2:
  00383	8a 08		 mov	 cl, BYTE PTR [eax]
  00385	3a 0e		 cmp	 cl, BYTE PTR [esi]
  00387	75 18		 jne	 SHORT $LN1187@AddRenderI@2
  00389	3a cb		 cmp	 cl, bl
  0038b	74 10		 je	 SHORT $LN1188@AddRenderI@2
  0038d	8a 48 01	 mov	 cl, BYTE PTR [eax+1]
  00390	3a 4e 01	 cmp	 cl, BYTE PTR [esi+1]
  00393	75 0c		 jne	 SHORT $LN1187@AddRenderI@2
  00395	03 c7		 add	 eax, edi
  00397	03 f7		 add	 esi, edi
  00399	3a cb		 cmp	 cl, bl
  0039b	75 e6		 jne	 SHORT $LL1186@AddRenderI@2
$LN1188@AddRenderI@2:
  0039d	33 c0		 xor	 eax, eax
  0039f	eb 05		 jmp	 SHORT $LN1189@AddRenderI@2
$LN1187@AddRenderI@2:
  003a1	1b c0		 sbb	 eax, eax
  003a3	83 d8 ff	 sbb	 eax, -1
$LN1189@AddRenderI@2:
  003a6	3b c3		 cmp	 eax, ebx
  003a8	75 28		 jne	 SHORT $LN1159@AddRenderI@2

; 824  : 	{
; 825  : 		SAFEDELETE( m_pBlueNumKey );

  003aa	8b 75 e4	 mov	 esi, DWORD PTR _this$GSCopy$[ebp]
  003ad	8b 8e b0 01 00
	00		 mov	 ecx, DWORD PTR [esi+432]
  003b3	3b cb		 cmp	 ecx, ebx
  003b5	74 0d		 je	 SHORT $LN11@AddRenderI@2
  003b7	8b 01		 mov	 eax, DWORD PTR [ecx]
  003b9	6a 01		 push	 1
  003bb	ff 50 40	 call	 DWORD PTR [eax+64]
  003be	89 9e b0 01 00
	00		 mov	 DWORD PTR [esi+432], ebx
$LN11@AddRenderI@2:

; 826  : 		m_pBlueNumKey = pImage;

  003c4	8b 45 e0	 mov	 eax, DWORD PTR _pImage$GSCopy$[ebp]
  003c7	89 86 b0 01 00
	00		 mov	 DWORD PTR [esi+432], eax
  003cd	e9 a6 01 00 00	 jmp	 $LN1@AddRenderI@2
$LN1159@AddRenderI@2:

; 827  : 	}
; 828  : 	else if( szType == "RedNumKey" )

  003d2	c7 45 ec bf 89
	8f a4		 mov	 DWORD PTR __t$540518[ebp], -1534096961 ; a48f89bfH
  003d9	c7 45 f0 98 81
	a0 8f		 mov	 DWORD PTR __t$540518[ebp+4], -1885306472 ; 8fa08198H
  003e0	8d 45 ec	 lea	 eax, DWORD PTR __t$540518[ebp]
  003e3	66 c7 45 f4 94
	00		 mov	 WORD PTR __t$540518[ebp+8], 148 ; 00000094H
  003e9	8b cf		 mov	 ecx, edi
$LL898@AddRenderI@2:
  003eb	81 30 ed ec eb
	ea		 xor	 DWORD PTR [eax], -353637139 ; eaebecedH
  003f1	83 c0 04	 add	 eax, 4
  003f4	49		 dec	 ecx
  003f5	75 f4		 jne	 SHORT $LL898@AddRenderI@2
  003f7	8b 4d e8	 mov	 ecx, DWORD PTR _szType$GSCopy$[ebp]
  003fa	80 75 f4 ed	 xor	 BYTE PTR __t$540518[ebp+8], -19 ; ffffffedH
  003fe	8d 75 ec	 lea	 esi, DWORD PTR __t$540518[ebp]
  00401	ff 15 00 00 00
	00		 call	 DWORD PTR __imp_?c_str@ioHashString@@QBEPBDXZ
$LL1190@AddRenderI@2:
  00407	8a 08		 mov	 cl, BYTE PTR [eax]
  00409	3a 0e		 cmp	 cl, BYTE PTR [esi]
  0040b	75 18		 jne	 SHORT $LN1191@AddRenderI@2
  0040d	3a cb		 cmp	 cl, bl
  0040f	74 10		 je	 SHORT $LN1192@AddRenderI@2
  00411	8a 48 01	 mov	 cl, BYTE PTR [eax+1]
  00414	3a 4e 01	 cmp	 cl, BYTE PTR [esi+1]
  00417	75 0c		 jne	 SHORT $LN1191@AddRenderI@2
  00419	03 c7		 add	 eax, edi
  0041b	03 f7		 add	 esi, edi
  0041d	3a cb		 cmp	 cl, bl
  0041f	75 e6		 jne	 SHORT $LL1190@AddRenderI@2
$LN1192@AddRenderI@2:
  00421	33 c0		 xor	 eax, eax
  00423	eb 05		 jmp	 SHORT $LN1193@AddRenderI@2
$LN1191@AddRenderI@2:
  00425	1b c0		 sbb	 eax, eax
  00427	83 d8 ff	 sbb	 eax, -1
$LN1193@AddRenderI@2:
  0042a	3b c3		 cmp	 eax, ebx
  0042c	75 28		 jne	 SHORT $LN1160@AddRenderI@2

; 829  : 	{
; 830  : 		SAFEDELETE( m_pRedNumKey );

  0042e	8b 75 e4	 mov	 esi, DWORD PTR _this$GSCopy$[ebp]
  00431	8b 8e b4 01 00
	00		 mov	 ecx, DWORD PTR [esi+436]
  00437	3b cb		 cmp	 ecx, ebx
  00439	74 0d		 je	 SHORT $LN8@AddRenderI@2
  0043b	8b 01		 mov	 eax, DWORD PTR [ecx]
  0043d	6a 01		 push	 1
  0043f	ff 50 40	 call	 DWORD PTR [eax+64]
  00442	89 9e b4 01 00
	00		 mov	 DWORD PTR [esi+436], ebx
$LN8@AddRenderI@2:

; 831  : 		m_pRedNumKey = pImage;

  00448	8b 45 e0	 mov	 eax, DWORD PTR _pImage$GSCopy$[ebp]
  0044b	89 86 b4 01 00
	00		 mov	 DWORD PTR [esi+436], eax
  00451	e9 22 01 00 00	 jmp	 $LN1@AddRenderI@2
$LN1160@AddRenderI@2:

; 832  : 	}
; 833  : 	else if( szType == "Target" )

  00456	6a 04		 push	 4
  00458	c7 45 f0 b9 8d
	99 8d		 mov	 DWORD PTR __t$540735[ebp], -1919316551 ; 8d998db9H
  0045f	81 75 f0 ed ec
	eb ea		 xor	 DWORD PTR __t$540735[ebp], -353637139 ; eaebecedH
  00466	66 c7 45 f4 88
	98		 mov	 WORD PTR __t$540735[ebp+4], 39048 ; 00009888H
  0046c	88 5d f6	 mov	 BYTE PTR __t$540735[ebp+6], bl
  0046f	58		 pop	 eax
$LL1001@AddRenderI@2:
  00470	8b c8		 mov	 ecx, eax
  00472	81 e1 03 00 00
	80		 and	 ecx, -2147483645	; 80000003H
  00478	79 05		 jns	 SHORT $LN1204@AddRenderI@2
  0047a	49		 dec	 ecx
  0047b	83 c9 fc	 or	 ecx, -4			; fffffffcH
  0047e	41		 inc	 ecx
$LN1204@AddRenderI@2:
  0047f	b2 ed		 mov	 dl, -19			; ffffffedH
  00481	2a d1		 sub	 dl, cl
  00483	30 54 05 f0	 xor	 BYTE PTR __t$540735[ebp+eax], dl
  00487	40		 inc	 eax
  00488	83 f8 06	 cmp	 eax, 6
  0048b	7c e3		 jl	 SHORT $LL1001@AddRenderI@2
  0048d	8b 4d e8	 mov	 ecx, DWORD PTR _szType$GSCopy$[ebp]
  00490	8d 75 f0	 lea	 esi, DWORD PTR __t$540735[ebp]
  00493	ff 15 00 00 00
	00		 call	 DWORD PTR __imp_?c_str@ioHashString@@QBEPBDXZ
$LL1194@AddRenderI@2:
  00499	8a 08		 mov	 cl, BYTE PTR [eax]
  0049b	3a 0e		 cmp	 cl, BYTE PTR [esi]
  0049d	75 18		 jne	 SHORT $LN1195@AddRenderI@2
  0049f	3a cb		 cmp	 cl, bl
  004a1	74 10		 je	 SHORT $LN1196@AddRenderI@2
  004a3	8a 48 01	 mov	 cl, BYTE PTR [eax+1]
  004a6	3a 4e 01	 cmp	 cl, BYTE PTR [esi+1]
  004a9	75 0c		 jne	 SHORT $LN1195@AddRenderI@2
  004ab	03 c7		 add	 eax, edi
  004ad	03 f7		 add	 esi, edi
  004af	3a cb		 cmp	 cl, bl
  004b1	75 e6		 jne	 SHORT $LL1194@AddRenderI@2
$LN1196@AddRenderI@2:
  004b3	33 c0		 xor	 eax, eax
  004b5	eb 05		 jmp	 SHORT $LN1197@AddRenderI@2
$LN1195@AddRenderI@2:
  004b7	1b c0		 sbb	 eax, eax
  004b9	83 d8 ff	 sbb	 eax, -1
$LN1197@AddRenderI@2:
  004bc	3b c3		 cmp	 eax, ebx
  004be	75 28		 jne	 SHORT $LN1161@AddRenderI@2

; 834  : 	{
; 835  : 		SAFEDELETE( m_pTargetMark );

  004c0	8b 75 e4	 mov	 esi, DWORD PTR _this$GSCopy$[ebp]
  004c3	8b 8e b8 01 00
	00		 mov	 ecx, DWORD PTR [esi+440]
  004c9	3b cb		 cmp	 ecx, ebx
  004cb	74 0d		 je	 SHORT $LN5@AddRenderI@2
  004cd	8b 01		 mov	 eax, DWORD PTR [ecx]
  004cf	6a 01		 push	 1
  004d1	ff 50 40	 call	 DWORD PTR [eax+64]
  004d4	89 9e b8 01 00
	00		 mov	 DWORD PTR [esi+440], ebx
$LN5@AddRenderI@2:

; 836  : 		m_pTargetMark = pImage;

  004da	8b 45 e0	 mov	 eax, DWORD PTR _pImage$GSCopy$[ebp]
  004dd	89 86 b8 01 00
	00		 mov	 DWORD PTR [esi+440], eax
  004e3	e9 90 00 00 00	 jmp	 $LN1@AddRenderI@2
$LN1161@AddRenderI@2:

; 837  : 	}
; 838  : 	else if( szType == "GuildBack" )

  004e8	c7 45 ec aa 99
	82 86		 mov	 DWORD PTR __t$540781[ebp], -2038261334 ; 868299aaH
  004ef	c7 45 f0 89 ae
	8a 89		 mov	 DWORD PTR __t$540781[ebp+4], -1987400055 ; 898aae89H
  004f6	8d 45 ec	 lea	 eax, DWORD PTR __t$540781[ebp]
  004f9	66 c7 45 f4 86
	00		 mov	 WORD PTR __t$540781[ebp+8], 134 ; 00000086H
  004ff	8b cf		 mov	 ecx, edi
$LL1110@AddRenderI@2:
  00501	81 30 ed ec eb
	ea		 xor	 DWORD PTR [eax], -353637139 ; eaebecedH
  00507	83 c0 04	 add	 eax, 4
  0050a	49		 dec	 ecx
  0050b	75 f4		 jne	 SHORT $LL1110@AddRenderI@2
  0050d	8b 4d e8	 mov	 ecx, DWORD PTR _szType$GSCopy$[ebp]
  00510	80 75 f4 ed	 xor	 BYTE PTR __t$540781[ebp+8], -19 ; ffffffedH
  00514	8d 75 ec	 lea	 esi, DWORD PTR __t$540781[ebp]
  00517	ff 15 00 00 00
	00		 call	 DWORD PTR __imp_?c_str@ioHashString@@QBEPBDXZ
$LL1198@AddRenderI@2:
  0051d	8a 08		 mov	 cl, BYTE PTR [eax]
  0051f	3a 0e		 cmp	 cl, BYTE PTR [esi]
  00521	75 18		 jne	 SHORT $LN1199@AddRenderI@2
  00523	3a cb		 cmp	 cl, bl
  00525	74 10		 je	 SHORT $LN1200@AddRenderI@2
  00527	8a 48 01	 mov	 cl, BYTE PTR [eax+1]
  0052a	3a 4e 01	 cmp	 cl, BYTE PTR [esi+1]
  0052d	75 0c		 jne	 SHORT $LN1199@AddRenderI@2
  0052f	03 c7		 add	 eax, edi
  00531	03 f7		 add	 esi, edi
  00533	3a cb		 cmp	 cl, bl
  00535	75 e6		 jne	 SHORT $LL1198@AddRenderI@2
$LN1200@AddRenderI@2:
  00537	33 c0		 xor	 eax, eax
  00539	eb 05		 jmp	 SHORT $LN1201@AddRenderI@2
$LN1199@AddRenderI@2:
  0053b	1b c0		 sbb	 eax, eax
  0053d	83 d8 ff	 sbb	 eax, -1
$LN1201@AddRenderI@2:
  00540	3b c3		 cmp	 eax, ebx
  00542	75 25		 jne	 SHORT $LN3@AddRenderI@2

; 839  : 	{
; 840  : 		SAFEDELETE( m_pGuildBack );

  00544	8b 75 e4	 mov	 esi, DWORD PTR _this$GSCopy$[ebp]
  00547	8b 8e 94 01 00
	00		 mov	 ecx, DWORD PTR [esi+404]
  0054d	3b cb		 cmp	 ecx, ebx
  0054f	74 0d		 je	 SHORT $LN2@AddRenderI@2
  00551	8b 01		 mov	 eax, DWORD PTR [ecx]
  00553	6a 01		 push	 1
  00555	ff 50 40	 call	 DWORD PTR [eax+64]
  00558	89 9e 94 01 00
	00		 mov	 DWORD PTR [esi+404], ebx
$LN2@AddRenderI@2:

; 841  : 		m_pGuildBack = pImage;

  0055e	8b 45 e0	 mov	 eax, DWORD PTR _pImage$GSCopy$[ebp]
  00561	89 86 94 01 00
	00		 mov	 DWORD PTR [esi+404], eax

; 842  : 	}
; 843  : 	else

  00567	eb 0f		 jmp	 SHORT $LN1@AddRenderI@2
$LN3@AddRenderI@2:

; 844  : 	{
; 845  : 		ioWnd::AddRenderImage( szType, pImage );

  00569	ff 75 e0	 push	 DWORD PTR _pImage$GSCopy$[ebp]
  0056c	8b 4d e4	 mov	 ecx, DWORD PTR _this$GSCopy$[ebp]
  0056f	ff 75 e8	 push	 DWORD PTR _szType$GSCopy$[ebp]
  00572	ff 15 00 00 00
	00		 call	 DWORD PTR __imp_?AddRenderImage@ioWnd@@UAEXABVioHashString@@PAVioUIRenderImage@@@Z
$LN1@AddRenderI@2:

; 846  : 	}
; 847  : }

  00578	8b 4d fc	 mov	 ecx, DWORD PTR __$ArrayPad$[ebp]
  0057b	5f		 pop	 edi
  0057c	5e		 pop	 esi
  0057d	33 cd		 xor	 ecx, ebp
  0057f	5b		 pop	 ebx
  00580	e8 00 00 00 00	 call	 @__security_check_cookie@4
  00585	c9		 leave
  00586	c2 08 00	 ret	 8
?AddRenderImage@ioObserverBlueWnd@@UAEXABVioHashString@@PAVioUIRenderImage@@@Z ENDP ; ioObserverBlueWnd::AddRenderImage
_TEXT	ENDS
PUBLIC	__$ArrayPad$
PUBLIC	?ParseExtraInfo@ioObserverBlueWnd@@UAEXAAVioXMLElement@@@Z ; ioObserverBlueWnd::ParseExtraInfo
; Function compile flags: /Ogsp
;	COMDAT ?ParseExtraInfo@ioObserverBlueWnd@@UAEXAAVioXMLElement@@@Z
_TEXT	SEGMENT
__k$541003 = -20					; size = 11
__$ArrayPad$ = -4					; size = 4
_xElement$ = 8						; size = 4
?ParseExtraInfo@ioObserverBlueWnd@@UAEXAAVioXMLElement@@@Z PROC ; ioObserverBlueWnd::ParseExtraInfo, COMDAT
; _this$ = ecx

; 850  : {

  00000	55		 push	 ebp
  00001	8b ec		 mov	 ebp, esp
  00003	83 ec 14	 sub	 esp, 20			; 00000014H
  00006	a1 00 00 00 00	 mov	 eax, DWORD PTR ___security_cookie
  0000b	33 c5		 xor	 eax, ebp
  0000d	89 45 fc	 mov	 DWORD PTR __$ArrayPad$[ebp], eax
  00010	56		 push	 esi
  00011	57		 push	 edi

; 851  : 	m_dwMarkChangeTime = xElement.GetIntAttribute_e( "ChangeTime" );

  00012	6a 02		 push	 2
  00014	8b f9		 mov	 edi, ecx
  00016	8b 4d 08	 mov	 ecx, DWORD PTR _xElement$[ebp]
  00019	c7 45 ec ae 84
	8a 84		 mov	 DWORD PTR __k$541003[ebp], -2071296850 ; 848a84aeH
  00020	c7 45 f0 8a 89
	bf 83		 mov	 DWORD PTR __k$541003[ebp+4], -2084599414 ; 83bf898aH
  00027	66 c7 45 f4 80
	89		 mov	 WORD PTR __k$541003[ebp+8], 35200 ; 00008980H
  0002d	8d 45 ec	 lea	 eax, DWORD PTR __k$541003[ebp]
  00030	c6 45 f6 00	 mov	 BYTE PTR __k$541003[ebp+10], 0
  00034	5a		 pop	 edx
$LL106@ParseExtra@2:
  00035	81 30 ed ec eb
	ea		 xor	 DWORD PTR [eax], -353637139 ; eaebecedH
  0003b	83 c0 04	 add	 eax, 4
  0003e	4a		 dec	 edx
  0003f	75 f4		 jne	 SHORT $LL106@ParseExtra@2
  00041	6a 08		 push	 8
  00043	5e		 pop	 esi
$LL103@ParseExtra@2:
  00044	8b c6		 mov	 eax, esi
  00046	25 03 00 00 80	 and	 eax, -2147483645	; 80000003H
  0004b	79 05		 jns	 SHORT $LN113@ParseExtra@2
  0004d	48		 dec	 eax
  0004e	83 c8 fc	 or	 eax, -4			; fffffffcH
  00051	40		 inc	 eax
$LN113@ParseExtra@2:
  00052	b2 ed		 mov	 dl, -19			; ffffffedH
  00054	2a d0		 sub	 dl, al
  00056	30 54 35 ec	 xor	 BYTE PTR __k$541003[ebp+esi], dl
  0005a	46		 inc	 esi
  0005b	83 fe 0a	 cmp	 esi, 10			; 0000000aH
  0005e	7c e4		 jl	 SHORT $LL103@ParseExtra@2
  00060	8d 45 ec	 lea	 eax, DWORD PTR __k$541003[ebp]
  00063	50		 push	 eax
  00064	ff 15 00 00 00
	00		 call	 DWORD PTR __imp_?GetIntAttribute@ioXMLElement@@QBEHPBD@Z

; 852  : }

  0006a	8b 4d fc	 mov	 ecx, DWORD PTR __$ArrayPad$[ebp]
  0006d	89 87 bc 01 00
	00		 mov	 DWORD PTR [edi+444], eax
  00073	5f		 pop	 edi
  00074	33 cd		 xor	 ecx, ebp
  00076	5e		 pop	 esi
  00077	e8 00 00 00 00	 call	 @__security_check_cookie@4
  0007c	c9		 leave
  0007d	c2 04 00	 ret	 4
?ParseExtraInfo@ioObserverBlueWnd@@UAEXAAVioXMLElement@@@Z ENDP ; ioObserverBlueWnd::ParseExtraInfo
_TEXT	ENDS
PUBLIC	?OnProcess@ioObserverBlueWnd@@MAEXM@Z		; ioObserverBlueWnd::OnProcess
; Function compile flags: /Ogsp
;	COMDAT ?OnProcess@ioObserverBlueWnd@@MAEXM@Z
_TEXT	SEGMENT
_fTimePerSec$ = 8					; size = 4
?OnProcess@ioObserverBlueWnd@@MAEXM@Z PROC		; ioObserverBlueWnd::OnProcess, COMDAT
; _this$ = ecx

; 1101 : {

  00000	55		 push	 ebp
  00001	8b ec		 mov	 ebp, esp
  00003	56		 push	 esi
  00004	8b f1		 mov	 esi, ecx

; 1102 : 	if( !IsShow() )	return;

  00006	ff 15 00 00 00
	00		 call	 DWORD PTR __imp_?IsShow@ioWnd@@QBE_NXZ
  0000c	84 c0		 test	 al, al
  0000e	74 2f		 je	 SHORT $LN2@OnProcess@2

; 1103 : 
; 1104 : 	UpdateWndSize();

  00010	8b ce		 mov	 ecx, esi
  00012	e8 00 00 00 00	 call	 ?UpdateWndSize@ioObserverBlueWnd@@IAEXXZ ; ioObserverBlueWnd::UpdateWndSize

; 1105 : 	UpdateDefaultPos();

  00017	8b ce		 mov	 ecx, esi
  00019	e8 00 00 00 00	 call	 ?UpdateDefaultPos@ioObserverBlueWnd@@IAEXXZ ; ioObserverBlueWnd::UpdateDefaultPos

; 1106 : 	ProcessCameraClick();

  0001e	8b ce		 mov	 ecx, esi
  00020	e8 00 00 00 00	 call	 ?ProcessCameraClick@ioObserverBlueWnd@@IAEXXZ ; ioObserverBlueWnd::ProcessCameraClick

; 1107 : 	UpdateMark();

  00025	8b ce		 mov	 ecx, esi
  00027	e8 00 00 00 00	 call	 ?UpdateMark@ioObserverBlueWnd@@IAEXXZ ; ioObserverBlueWnd::UpdateMark

; 1108 : 
; 1109 : 	ioMovingWnd::OnProcess( fTimePerSec );

  0002c	f3 0f 10 45 08	 movss	 xmm0, DWORD PTR _fTimePerSec$[ebp]
  00031	51		 push	 ecx
  00032	8b ce		 mov	 ecx, esi
  00034	f3 0f 11 04 24	 movss	 DWORD PTR [esp], xmm0
  00039	ff 15 00 00 00
	00		 call	 DWORD PTR __imp_?OnProcess@ioWnd@@MAEXM@Z
$LN2@OnProcess@2:
  0003f	5e		 pop	 esi

; 1110 : }

  00040	5d		 pop	 ebp
  00041	c2 04 00	 ret	 4
?OnProcess@ioObserverBlueWnd@@MAEXM@Z ENDP		; ioObserverBlueWnd::OnProcess
_TEXT	ENDS
PUBLIC	?IsDieChar@ioObserverBlueWnd@@IAE_NABVioHashString@@@Z ; ioObserverBlueWnd::IsDieChar
; Function compile flags: /Ogsp
;	COMDAT ?IsDieChar@ioObserverBlueWnd@@IAE_NABVioHashString@@@Z
_TEXT	SEGMENT
_szName$ = 8						; size = 4
_value$541137 = 11					; size = 1
?IsDieChar@ioObserverBlueWnd@@IAE_NABVioHashString@@@Z PROC ; ioObserverBlueWnd::IsDieChar, COMDAT
; _this$ = ecx

; 1150 : {

  00000	55		 push	 ebp
  00001	8b ec		 mov	 ebp, esp

; 1151 : 	if( !m_pPlayStage ) return true;

  00003	8b 89 90 01 00
	00		 mov	 ecx, DWORD PTR [ecx+400]
  00009	85 c9		 test	 ecx, ecx
  0000b	74 3f		 je	 SHORT $LN1@IsDieChar@2

; 1152 : 
; 1153 : 	ioBaseChar *pUser = m_pPlayStage->GetBaseChar( szName );

  0000d	ff 75 08	 push	 DWORD PTR _szName$[ebp]
  00010	e8 00 00 00 00	 call	 ?GetBaseChar@ioPlayStage@@QAEPAVioBaseChar@@ABVioHashString@@@Z ; ioPlayStage::GetBaseChar

; 1154 : 	if( !pUser ) return true;

  00015	85 c0		 test	 eax, eax
  00017	74 33		 je	 SHORT $LN1@IsDieChar@2

; 1155 : 
; 1156 : 	if( pUser->GetState() == CS_DIE ||
; 1157 : 		pUser->GetState() == CS_VIEW ||
; 1158 : 		pUser->GetState() == CS_READY ||
; 1159 : 		pUser->GetState() == CS_LOADING ||
; 1160 : 		pUser->IsPrisonerMode() )

  00019	8a 88 10 03 00
	00		 mov	 cl, BYTE PTR [eax+784]
  0001f	80 f9 0e	 cmp	 cl, 14			; 0000000eH
  00022	74 28		 je	 SHORT $LN1@IsDieChar@2
  00024	80 f9 1a	 cmp	 cl, 26			; 0000001aH
  00027	74 23		 je	 SHORT $LN1@IsDieChar@2
  00029	80 f9 18	 cmp	 cl, 24			; 00000018H
  0002c	74 1e		 je	 SHORT $LN1@IsDieChar@2
  0002e	80 f9 24	 cmp	 cl, 36			; 00000024H
  00031	74 19		 je	 SHORT $LN1@IsDieChar@2
  00033	8d 4d 0b	 lea	 ecx, DWORD PTR _value$541137[ebp]
  00036	51		 push	 ecx
  00037	8d 88 cc 14 00
	00		 lea	 ecx, DWORD PTR [eax+5324]
  0003d	e8 00 00 00 00	 call	 ?DecryptValueToPool@?$CEncrypt@_N@@QAEXPA_N@Z ; CEncrypt<bool>::DecryptValueToPool
  00042	80 7d 0b 00	 cmp	 BYTE PTR _value$541137[ebp], 0
  00046	75 04		 jne	 SHORT $LN1@IsDieChar@2

; 1162 : 
; 1163 : 	return false;

  00048	32 c0		 xor	 al, al
  0004a	eb 02		 jmp	 SHORT $LN5@IsDieChar@2
$LN1@IsDieChar@2:

; 1161 : 		return true;

  0004c	b0 01		 mov	 al, 1
$LN5@IsDieChar@2:

; 1164 : }

  0004e	5d		 pop	 ebp
  0004f	c2 04 00	 ret	 4
?IsDieChar@ioObserverBlueWnd@@IAE_NABVioHashString@@@Z ENDP ; ioObserverBlueWnd::IsDieChar
_TEXT	ENDS
PUBLIC	??0?$CEncrypt@K@@QAE@ABV0@@Z			; CEncrypt<unsigned long>::CEncrypt<unsigned long>
EXTRN	??0ccddaabb@@QAE@XZ:PROC			; ccddaabb::ccddaabb
;	COMDAT xdata$x
; File d:\lost saga for developer\youtube\tutorial\source\src\lsclient\encryptvalue.h
xdata$x	SEGMENT
__unwindtable$??0?$CEncrypt@K@@QAE@ABV0@@Z DD 0ffffffffH
	DD	FLAT:__unwindfunclet$??0?$CEncrypt@K@@QAE@ABV0@@Z$0
__ehfuncinfo$??0?$CEncrypt@K@@QAE@ABV0@@Z DD 019930522H
	DD	01H
	DD	FLAT:__unwindtable$??0?$CEncrypt@K@@QAE@ABV0@@Z
	DD	2 DUP(00H)
	DD	2 DUP(00H)
	DD	00H
	DD	01H
; Function compile flags: /Ogsp
xdata$x	ENDS
;	COMDAT ??0?$CEncrypt@K@@QAE@ABV0@@Z
_TEXT	SEGMENT
_this$ = -16						; size = 4
__$EHRec$ = -12						; size = 12
_value$541150 = 8					; size = 4
_value$541145 = 8					; size = 4
_inValue$ = 8						; size = 4
??0?$CEncrypt@K@@QAE@ABV0@@Z PROC			; CEncrypt<unsigned long>::CEncrypt<unsigned long>, COMDAT
; _this$ = ecx

; 120  : 	CEncrypt( const CEncrypt<type> &inValue )   //     

  00000	6a 04		 push	 4
  00002	b8 00 00 00 00	 mov	 eax, __ehhandler$??0?$CEncrypt@K@@QAE@ABV0@@Z
  00007	e8 00 00 00 00	 call	 __EH_prolog3
  0000c	8b f1		 mov	 esi, ecx
  0000e	89 75 f0	 mov	 DWORD PTR _this$[ebp], esi
  00011	8d 4e 0c	 lea	 ecx, DWORD PTR [esi+12]
  00014	c7 06 00 00 00
	00		 mov	 DWORD PTR [esi], OFFSET ??_7?$CEncrypt@K@@6B@
  0001a	e8 00 00 00 00	 call	 ??0ccddaabb@@QAE@XZ	; ccddaabb::ccddaabb
  0001f	83 65 fc 00	 and	 DWORD PTR __$EHRec$[ebp+8], 0

; 121  : 	{
; 122  : 		Init();

  00023	8b ce		 mov	 ecx, esi
  00025	e8 00 00 00 00	 call	 ?Init@?$CEncrypt@K@@AAEXXZ ; CEncrypt<unsigned long>::Init

; 123  : 		*this = inValue;

  0002a	8b 4d 08	 mov	 ecx, DWORD PTR _inValue$[ebp]
  0002d	8d 45 08	 lea	 eax, DWORD PTR _value$541145[ebp]
  00030	50		 push	 eax
  00031	e8 00 00 00 00	 call	 ?DecryptValueToPool@?$CEncrypt@K@@QAEXPAK@Z ; CEncrypt<unsigned long>::DecryptValueToPool
  00036	8b 45 08	 mov	 eax, DWORD PTR _value$541145[ebp]
  00039	89 45 08	 mov	 DWORD PTR _value$541150[ebp], eax
  0003c	8d 45 08	 lea	 eax, DWORD PTR _value$541150[ebp]
  0003f	50		 push	 eax
  00040	8b ce		 mov	 ecx, esi
  00042	e8 00 00 00 00	 call	 ?EncryptValueToPool@?$CEncrypt@K@@AAEXPBD@Z ; CEncrypt<unsigned long>::EncryptValueToPool

; 124  : 	}

  00047	8b c6		 mov	 eax, esi
  00049	e8 00 00 00 00	 call	 __EH_epilog3
  0004e	c2 04 00	 ret	 4
_TEXT	ENDS
;	COMDAT text$x
text$x	SEGMENT
__unwindfunclet$??0?$CEncrypt@K@@QAE@ABV0@@Z$0:
  00000	8b 4d f0	 mov	 ecx, DWORD PTR _this$[ebp]
  00003	83 c1 0c	 add	 ecx, 12			; 0000000cH
  00006	e9 00 00 00 00	 jmp	 ??1ccddaabb@@UAE@XZ	; ccddaabb::~ccddaabb
__ehhandler$??0?$CEncrypt@K@@QAE@ABV0@@Z:
  0000b	8b 54 24 08	 mov	 edx, DWORD PTR [esp+8]
  0000f	8d 42 0c	 lea	 eax, DWORD PTR [edx+12]
  00012	8b 4a ec	 mov	 ecx, DWORD PTR [edx-20]
  00015	33 c8		 xor	 ecx, eax
  00017	e8 00 00 00 00	 call	 @__security_check_cookie@4
  0001c	b8 00 00 00 00	 mov	 eax, OFFSET __ehfuncinfo$??0?$CEncrypt@K@@QAE@ABV0@@Z
  00021	e9 00 00 00 00	 jmp	 ___CxxFrameHandler3
text$x	ENDS
??0?$CEncrypt@K@@QAE@ABV0@@Z ENDP			; CEncrypt<unsigned long>::CEncrypt<unsigned long>
PUBLIC	??0?$vector@URoundInfo@@V?$allocator@URoundInfo@@@std@@@std@@QAE@XZ ; std::vector<RoundInfo,std::allocator<RoundInfo> >::vector<RoundInfo,std::allocator<RoundInfo> >
; Function compile flags: /Ogsp
; File c:\program files (x86)\microsoft visual studio 10.0\vc\include\vector
;	COMDAT ??0?$vector@URoundInfo@@V?$allocator@URoundInfo@@@std@@@std@@QAE@XZ
_TEXT	SEGMENT
??0?$vector@URoundInfo@@V?$allocator@URoundInfo@@@std@@@std@@QAE@XZ PROC ; std::vector<RoundInfo,std::allocator<RoundInfo> >::vector<RoundInfo,std::allocator<RoundInfo> >, COMDAT
; _this$ = ecx

; 507  : 		{	// construct empty vector

  00000	8b c1		 mov	 eax, ecx
  00002	33 c9		 xor	 ecx, ecx
  00004	89 08		 mov	 DWORD PTR [eax], ecx
  00006	89 48 04	 mov	 DWORD PTR [eax+4], ecx
  00009	89 48 08	 mov	 DWORD PTR [eax+8], ecx

; 508  : 		}

  0000c	c3		 ret	 0
??0?$vector@URoundInfo@@V?$allocator@URoundInfo@@@std@@@std@@QAE@XZ ENDP ; std::vector<RoundInfo,std::allocator<RoundInfo> >::vector<RoundInfo,std::allocator<RoundInfo> >
_TEXT	ENDS
PUBLIC	?begin@?$vector@URoundInfo@@V?$allocator@URoundInfo@@@std@@@std@@QAE?AV?$_Vector_iterator@V?$_Vector_val@URoundInfo@@V?$allocator@URoundInfo@@@std@@@std@@@2@XZ ; std::vector<RoundInfo,std::allocator<RoundInfo> >::begin
; Function compile flags: /Ogsp
;	COMDAT ?begin@?$vector@URoundInfo@@V?$allocator@URoundInfo@@@std@@@std@@QAE?AV?$_Vector_iterator@V?$_Vector_val@URoundInfo@@V?$allocator@URoundInfo@@@std@@@std@@@2@XZ
_TEXT	SEGMENT
___$ReturnUdt$ = 8					; size = 4
?begin@?$vector@URoundInfo@@V?$allocator@URoundInfo@@@std@@@std@@QAE?AV?$_Vector_iterator@V?$_Vector_val@URoundInfo@@V?$allocator@URoundInfo@@@std@@@std@@@2@XZ PROC ; std::vector<RoundInfo,std::allocator<RoundInfo> >::begin, COMDAT
; _this$ = ecx

; 781  : 		{	// return iterator for beginning of mutable sequence

  00000	55		 push	 ebp
  00001	8b ec		 mov	 ebp, esp

; 782  : 		return (iterator(this->_Myfirst, this));

  00003	8b 09		 mov	 ecx, DWORD PTR [ecx]
  00005	8b 45 08	 mov	 eax, DWORD PTR ___$ReturnUdt$[ebp]
  00008	89 08		 mov	 DWORD PTR [eax], ecx

; 783  : 		}

  0000a	5d		 pop	 ebp
  0000b	c2 04 00	 ret	 4
?begin@?$vector@URoundInfo@@V?$allocator@URoundInfo@@@std@@@std@@QAE?AV?$_Vector_iterator@V?$_Vector_val@URoundInfo@@V?$allocator@URoundInfo@@@std@@@std@@@2@XZ ENDP ; std::vector<RoundInfo,std::allocator<RoundInfo> >::begin
_TEXT	ENDS
PUBLIC	?end@?$vector@URoundInfo@@V?$allocator@URoundInfo@@@std@@@std@@QAE?AV?$_Vector_iterator@V?$_Vector_val@URoundInfo@@V?$allocator@URoundInfo@@@std@@@std@@@2@XZ ; std::vector<RoundInfo,std::allocator<RoundInfo> >::end
; Function compile flags: /Ogsp
;	COMDAT ?end@?$vector@URoundInfo@@V?$allocator@URoundInfo@@@std@@@std@@QAE?AV?$_Vector_iterator@V?$_Vector_val@URoundInfo@@V?$allocator@URoundInfo@@@std@@@std@@@2@XZ
_TEXT	SEGMENT
___$ReturnUdt$ = 8					; size = 4
?end@?$vector@URoundInfo@@V?$allocator@URoundInfo@@@std@@@std@@QAE?AV?$_Vector_iterator@V?$_Vector_val@URoundInfo@@V?$allocator@URoundInfo@@@std@@@std@@@2@XZ PROC ; std::vector<RoundInfo,std::allocator<RoundInfo> >::end, COMDAT
; _this$ = ecx

; 791  : 		{	// return iterator for end of mutable sequence

  00000	55		 push	 ebp
  00001	8b ec		 mov	 ebp, esp

; 792  : 		return (iterator(this->_Mylast, this));

  00003	8b 49 04	 mov	 ecx, DWORD PTR [ecx+4]
  00006	8b 45 08	 mov	 eax, DWORD PTR ___$ReturnUdt$[ebp]
  00009	89 08		 mov	 DWORD PTR [eax], ecx

; 793  : 		}

  0000b	5d		 pop	 ebp
  0000c	c2 04 00	 ret	 4
?end@?$vector@URoundInfo@@V?$allocator@URoundInfo@@@std@@@std@@QAE?AV?$_Vector_iterator@V?$_Vector_val@URoundInfo@@V?$allocator@URoundInfo@@@std@@@std@@@2@XZ ENDP ; std::vector<RoundInfo,std::allocator<RoundInfo> >::end
_TEXT	ENDS
PUBLIC	?_Make_iter@?$vector@URoundInfo@@V?$allocator@URoundInfo@@@std@@@std@@QBE?AV?$_Vector_iterator@V?$_Vector_val@URoundInfo@@V?$allocator@URoundInfo@@@std@@@std@@@2@V?$_Vector_const_iterator@V?$_Vector_val@URoundInfo@@V?$allocator@URoundInfo@@@std@@@std@@@2@@Z ; std::vector<RoundInfo,std::allocator<RoundInfo> >::_Make_iter
; Function compile flags: /Ogsp
;	COMDAT ?_Make_iter@?$vector@URoundInfo@@V?$allocator@URoundInfo@@@std@@@std@@QBE?AV?$_Vector_iterator@V?$_Vector_val@URoundInfo@@V?$allocator@URoundInfo@@@std@@@std@@@2@V?$_Vector_const_iterator@V?$_Vector_val@URoundInfo@@V?$allocator@URoundInfo@@@std@@@std@@@2@@Z
_TEXT	SEGMENT
___$ReturnUdt$ = 8					; size = 4
__Where$ = 12						; size = 4
?_Make_iter@?$vector@URoundInfo@@V?$allocator@URoundInfo@@@std@@@std@@QBE?AV?$_Vector_iterator@V?$_Vector_val@URoundInfo@@V?$allocator@URoundInfo@@@std@@@std@@@2@V?$_Vector_const_iterator@V?$_Vector_val@URoundInfo@@V?$allocator@URoundInfo@@@std@@@std@@@2@@Z PROC ; std::vector<RoundInfo,std::allocator<RoundInfo> >::_Make_iter, COMDAT
; _this$ = ecx

; 801  : 		{	// make iterator from const_iterator

  00000	55		 push	 ebp
  00001	8b ec		 mov	 ebp, esp

; 802  : 		return (iterator(_Where._Ptr, this));

  00003	8b 45 08	 mov	 eax, DWORD PTR ___$ReturnUdt$[ebp]
  00006	8b 4d 0c	 mov	 ecx, DWORD PTR __Where$[ebp]
  00009	89 08		 mov	 DWORD PTR [eax], ecx

; 803  : 		}

  0000b	5d		 pop	 ebp
  0000c	c2 08 00	 ret	 8
?_Make_iter@?$vector@URoundInfo@@V?$allocator@URoundInfo@@@std@@@std@@QBE?AV?$_Vector_iterator@V?$_Vector_val@URoundInfo@@V?$allocator@URoundInfo@@@std@@@std@@@2@V?$_Vector_const_iterator@V?$_Vector_val@URoundInfo@@V?$allocator@URoundInfo@@@std@@@std@@@2@@Z ENDP ; std::vector<RoundInfo,std::allocator<RoundInfo> >::_Make_iter
_TEXT	ENDS
PUBLIC	??9?$_Vector_const_iterator@V?$_Vector_val@URoundInfo@@V?$allocator@URoundInfo@@@std@@@std@@@std@@QBE_NABV01@@Z ; std::_Vector_const_iterator<std::_Vector_val<RoundInfo,std::allocator<RoundInfo> > >::operator!=
; Function compile flags: /Ogsp
;	COMDAT ??9?$_Vector_const_iterator@V?$_Vector_val@URoundInfo@@V?$allocator@URoundInfo@@@std@@@std@@@std@@QBE_NABV01@@Z
_TEXT	SEGMENT
__Right$ = 8						; size = 4
??9?$_Vector_const_iterator@V?$_Vector_val@URoundInfo@@V?$allocator@URoundInfo@@@std@@@std@@@std@@QBE_NABV01@@Z PROC ; std::_Vector_const_iterator<std::_Vector_val<RoundInfo,std::allocator<RoundInfo> > >::operator!=, COMDAT
; _this$ = ecx

; 207  : 		{	// test for iterator inequality

  00000	55		 push	 ebp
  00001	8b ec		 mov	 ebp, esp

; 208  : 		return (!(*this == _Right));

  00003	8b 01		 mov	 eax, DWORD PTR [ecx]
  00005	8b 55 08	 mov	 edx, DWORD PTR __Right$[ebp]
  00008	33 c9		 xor	 ecx, ecx
  0000a	3b 02		 cmp	 eax, DWORD PTR [edx]
  0000c	0f 95 c0	 setne	 al

; 209  : 		}

  0000f	5d		 pop	 ebp
  00010	c2 04 00	 ret	 4
??9?$_Vector_const_iterator@V?$_Vector_val@URoundInfo@@V?$allocator@URoundInfo@@@std@@@std@@@std@@QBE_NABV01@@Z ENDP ; std::_Vector_const_iterator<std::_Vector_val<RoundInfo,std::allocator<RoundInfo> > >::operator!=
_TEXT	ENDS
PUBLIC	??$_Cons_val@V?$allocator@URoundInfo@@@std@@URoundInfo@@ABU3@@std@@YAXAAV?$allocator@URoundInfo@@@0@PAURoundInfo@@ABU2@@Z ; std::_Cons_val<std::allocator<RoundInfo>,RoundInfo,RoundInfo const &>
; Function compile flags: /Ogsp
; File c:\program files (x86)\microsoft visual studio 10.0\vc\include\xmemory
;	COMDAT ??$_Cons_val@V?$allocator@URoundInfo@@@std@@URoundInfo@@ABU3@@std@@YAXAAV?$allocator@URoundInfo@@@0@PAURoundInfo@@ABU2@@Z
_TEXT	SEGMENT
__Alval$ = 8						; size = 4
__Pdest$ = 12						; size = 4
__Src$ = 16						; size = 4
??$_Cons_val@V?$allocator@URoundInfo@@@std@@URoundInfo@@ABU3@@std@@YAXAAV?$allocator@URoundInfo@@@0@PAURoundInfo@@ABU2@@Z PROC ; std::_Cons_val<std::allocator<RoundInfo>,RoundInfo,RoundInfo const &>, COMDAT

; 279  : 	{	// construct using allocator

  00000	55		 push	 ebp
  00001	8b ec		 mov	 ebp, esp

; 280  : 	_Alval.construct(_Pdest, _STD forward<_Ty2>(_Src));

  00003	ff 75 10	 push	 DWORD PTR __Src$[ebp]
  00006	ff 75 0c	 push	 DWORD PTR __Pdest$[ebp]
  00009	e8 00 00 00 00	 call	 ??$_Construct@URoundInfo@@ABU1@@std@@YAXPAURoundInfo@@ABU1@@Z ; std::_Construct<RoundInfo,RoundInfo const &>
  0000e	59		 pop	 ecx
  0000f	59		 pop	 ecx

; 281  : 	}

  00010	5d		 pop	 ebp
  00011	c3		 ret	 0
??$_Cons_val@V?$allocator@URoundInfo@@@std@@URoundInfo@@ABU3@@std@@YAXAAV?$allocator@URoundInfo@@@0@PAURoundInfo@@ABU2@@Z ENDP ; std::_Cons_val<std::allocator<RoundInfo>,RoundInfo,RoundInfo const &>
_TEXT	ENDS
PUBLIC	??$_Move@PAURoundInfo@@PAU1@@std@@YAPAURoundInfo@@PAU1@00@Z ; std::_Move<RoundInfo *,RoundInfo *>
; Function compile flags: /Ogsp
; File c:\program files (x86)\microsoft visual studio 10.0\vc\include\xutility
;	COMDAT ??$_Move@PAURoundInfo@@PAU1@@std@@YAPAURoundInfo@@PAU1@00@Z
_TEXT	SEGMENT
__Cat$541251 = -4					; size = 1
__First$ = 8						; size = 4
__Last$ = 12						; size = 4
__Dest$ = 16						; size = 4
??$_Move@PAURoundInfo@@PAU1@@std@@YAPAURoundInfo@@PAU1@00@Z PROC ; std::_Move<RoundInfo *,RoundInfo *>, COMDAT

; 2533 : 	{	// move [_First, _Last) to [_Dest, ...), unchecked

  00000	55		 push	 ebp
  00001	8b ec		 mov	 ebp, esp
  00003	51		 push	 ecx

; 2534 : 	return (_Move(_First, _Last,
; 2535 : 		_Dest, _Ptr_cat(_First, _Dest)));

  00004	ff 75 fc	 push	 DWORD PTR __Cat$541251[ebp]
  00007	ff 75 10	 push	 DWORD PTR __Dest$[ebp]
  0000a	ff 75 0c	 push	 DWORD PTR __Last$[ebp]
  0000d	ff 75 08	 push	 DWORD PTR __First$[ebp]
  00010	e8 00 00 00 00	 call	 ??$_Move@PAURoundInfo@@PAU1@@std@@YAPAURoundInfo@@PAU1@00U_Nonscalar_ptr_iterator_tag@0@@Z ; std::_Move<RoundInfo *,RoundInfo *>
  00015	83 c4 10	 add	 esp, 16			; 00000010H

; 2536 : 	}

  00018	c9		 leave
  00019	c3		 ret	 0
??$_Move@PAURoundInfo@@PAU1@@std@@YAPAURoundInfo@@PAU1@00@Z ENDP ; std::_Move<RoundInfo *,RoundInfo *>
_TEXT	ENDS
PUBLIC	?destroy@?$allocator@URoundInfo@@@std@@QAEXPAURoundInfo@@@Z ; std::allocator<RoundInfo>::destroy
; Function compile flags: /Ogsp
; File c:\program files (x86)\microsoft visual studio 10.0\vc\include\xmemory
;	COMDAT ?destroy@?$allocator@URoundInfo@@@std@@QAEXPAURoundInfo@@@Z
_TEXT	SEGMENT
__Ptr$ = 8						; size = 4
?destroy@?$allocator@URoundInfo@@@std@@QAEXPAURoundInfo@@@Z PROC ; std::allocator<RoundInfo>::destroy, COMDAT
; _this$ = ecx

; 212  : 		{	// destroy object at _Ptr

  00000	55		 push	 ebp
  00001	8b ec		 mov	 ebp, esp

; 213  : 		_Destroy(_Ptr);

  00003	8b 4d 08	 mov	 ecx, DWORD PTR __Ptr$[ebp]
  00006	e8 00 00 00 00	 call	 ??1RoundInfo@@QAE@XZ

; 214  : 		}

  0000b	5d		 pop	 ebp
  0000c	c2 04 00	 ret	 4
?destroy@?$allocator@URoundInfo@@@std@@QAEXPAURoundInfo@@@Z ENDP ; std::allocator<RoundInfo>::destroy
_TEXT	ENDS
PUBLIC	??$_Cons_val@V?$allocator@URoundInfo@@@std@@URoundInfo@@U3@@std@@YAXAAV?$allocator@URoundInfo@@@0@PAURoundInfo@@$$QAU2@@Z ; std::_Cons_val<std::allocator<RoundInfo>,RoundInfo,RoundInfo>
;	COMDAT xdata$x
; File c:\program files (x86)\microsoft visual studio 10.0\vc\include\utility
xdata$x	SEGMENT
__unwindtable$??$_Cons_val@V?$allocator@URoundInfo@@@std@@URoundInfo@@U3@@std@@YAXAAV?$allocator@URoundInfo@@@0@PAURoundInfo@@$$QAU2@@Z DD 0ffffffffH
	DD	FLAT:__unwindfunclet$??$_Cons_val@V?$allocator@URoundInfo@@@std@@URoundInfo@@U3@@std@@YAXAAV?$allocator@URoundInfo@@@0@PAURoundInfo@@$$QAU2@@Z$0
__ehfuncinfo$??$_Cons_val@V?$allocator@URoundInfo@@@std@@URoundInfo@@U3@@std@@YAXAAV?$allocator@URoundInfo@@@0@PAURoundInfo@@$$QAU2@@Z DD 019930522H
	DD	01H
	DD	FLAT:__unwindtable$??$_Cons_val@V?$allocator@URoundInfo@@@std@@URoundInfo@@U3@@std@@YAXAAV?$allocator@URoundInfo@@@0@PAURoundInfo@@$$QAU2@@Z
	DD	2 DUP(00H)
	DD	2 DUP(00H)
	DD	00H
	DD	01H
; Function compile flags: /Ogsp
; File c:\program files (x86)\microsoft visual studio 10.0\vc\include\xmemory
xdata$x	ENDS
;	COMDAT ??$_Cons_val@V?$allocator@URoundInfo@@@std@@URoundInfo@@U3@@std@@YAXAAV?$allocator@URoundInfo@@@0@PAURoundInfo@@$$QAU2@@Z
_TEXT	SEGMENT
$T541285 = -16						; size = 4
__$EHRec$ = -12						; size = 12
__Alval$ = 8						; size = 4
__Pdest$ = 12						; size = 4
__Src$ = 16						; size = 4
??$_Cons_val@V?$allocator@URoundInfo@@@std@@URoundInfo@@U3@@std@@YAXAAV?$allocator@URoundInfo@@@0@PAURoundInfo@@$$QAU2@@Z PROC ; std::_Cons_val<std::allocator<RoundInfo>,RoundInfo,RoundInfo>, COMDAT

; 279  : 	{	// construct using allocator

  00000	6a 04		 push	 4
  00002	b8 00 00 00 00	 mov	 eax, __ehhandler$??$_Cons_val@V?$allocator@URoundInfo@@@std@@URoundInfo@@U3@@std@@YAXAAV?$allocator@URoundInfo@@@0@PAURoundInfo@@$$QAU2@@Z
  00007	e8 00 00 00 00	 call	 __EH_prolog3

; 280  : 	_Alval.construct(_Pdest, _STD forward<_Ty2>(_Src));

  0000c	8b 4d 0c	 mov	 ecx, DWORD PTR __Pdest$[ebp]
  0000f	89 4d f0	 mov	 DWORD PTR $T541285[ebp], ecx
  00012	83 65 fc 00	 and	 DWORD PTR __$EHRec$[ebp+8], 0
  00016	85 c9		 test	 ecx, ecx
  00018	74 08		 je	 SHORT $LN7@Cons_val@2
  0001a	ff 75 10	 push	 DWORD PTR __Src$[ebp]
  0001d	e8 00 00 00 00	 call	 ??0RoundInfo@@QAE@ABU0@@Z
$LN7@Cons_val@2:

; 281  : 	}

  00022	e8 00 00 00 00	 call	 __EH_epilog3
  00027	c3		 ret	 0
_TEXT	ENDS
;	COMDAT text$x
text$x	SEGMENT
__unwindfunclet$??$_Cons_val@V?$allocator@URoundInfo@@@std@@URoundInfo@@U3@@std@@YAXAAV?$allocator@URoundInfo@@@0@PAURoundInfo@@$$QAU2@@Z$0:
  00000	ff 75 0c	 push	 DWORD PTR __Pdest$[ebp]
  00003	ff 75 f0	 push	 DWORD PTR $T541285[ebp]
  00006	e8 00 00 00 00	 call	 ??3@YAXPAX0@Z		; operator delete
  0000b	59		 pop	 ecx
  0000c	59		 pop	 ecx
  0000d	c3		 ret	 0
__ehhandler$??$_Cons_val@V?$allocator@URoundInfo@@@std@@URoundInfo@@U3@@std@@YAXAAV?$allocator@URoundInfo@@@0@PAURoundInfo@@$$QAU2@@Z:
  0000e	8b 54 24 08	 mov	 edx, DWORD PTR [esp+8]
  00012	8d 42 0c	 lea	 eax, DWORD PTR [edx+12]
  00015	8b 4a ec	 mov	 ecx, DWORD PTR [edx-20]
  00018	33 c8		 xor	 ecx, eax
  0001a	e8 00 00 00 00	 call	 @__security_check_cookie@4
  0001f	b8 00 00 00 00	 mov	 eax, OFFSET __ehfuncinfo$??$_Cons_val@V?$allocator@URoundInfo@@@std@@URoundInfo@@U3@@std@@YAXAAV?$allocator@URoundInfo@@@0@PAURoundInfo@@$$QAU2@@Z
  00024	e9 00 00 00 00	 jmp	 ___CxxFrameHandler3
text$x	ENDS
??$_Cons_val@V?$allocator@URoundInfo@@@std@@URoundInfo@@U3@@std@@YAXAAV?$allocator@URoundInfo@@@0@PAURoundInfo@@$$QAU2@@Z ENDP ; std::_Cons_val<std::allocator<RoundInfo>,RoundInfo,RoundInfo>
PUBLIC	??0?$CEncrypt@M@@QAE@ABV0@@Z			; CEncrypt<float>::CEncrypt<float>
;	COMDAT xdata$x
; File d:\lost saga for developer\youtube\tutorial\source\src\lsclient\encryptvalue.h
xdata$x	SEGMENT
__unwindtable$??0?$CEncrypt@M@@QAE@ABV0@@Z DD 0ffffffffH
	DD	FLAT:__unwindfunclet$??0?$CEncrypt@M@@QAE@ABV0@@Z$0
__ehfuncinfo$??0?$CEncrypt@M@@QAE@ABV0@@Z DD 019930522H
	DD	01H
	DD	FLAT:__unwindtable$??0?$CEncrypt@M@@QAE@ABV0@@Z
	DD	2 DUP(00H)
	DD	2 DUP(00H)
	DD	00H
	DD	01H
; Function compile flags: /Ogsp
xdata$x	ENDS
;	COMDAT ??0?$CEncrypt@M@@QAE@ABV0@@Z
_TEXT	SEGMENT
_this$ = -16						; size = 4
__$EHRec$ = -12						; size = 12
_value$541309 = 8					; size = 4
_value$541304 = 8					; size = 4
_inValue$ = 8						; size = 4
??0?$CEncrypt@M@@QAE@ABV0@@Z PROC			; CEncrypt<float>::CEncrypt<float>, COMDAT
; _this$ = ecx

; 120  : 	CEncrypt( const CEncrypt<type> &inValue )   //     

  00000	6a 04		 push	 4
  00002	b8 00 00 00 00	 mov	 eax, __ehhandler$??0?$CEncrypt@M@@QAE@ABV0@@Z
  00007	e8 00 00 00 00	 call	 __EH_prolog3
  0000c	8b f1		 mov	 esi, ecx
  0000e	89 75 f0	 mov	 DWORD PTR _this$[ebp], esi
  00011	8d 4e 0c	 lea	 ecx, DWORD PTR [esi+12]
  00014	c7 06 00 00 00
	00		 mov	 DWORD PTR [esi], OFFSET ??_7?$CEncrypt@M@@6B@
  0001a	e8 00 00 00 00	 call	 ??0ccddaabb@@QAE@XZ	; ccddaabb::ccddaabb
  0001f	83 65 fc 00	 and	 DWORD PTR __$EHRec$[ebp+8], 0

; 121  : 	{
; 122  : 		Init();

  00023	8b ce		 mov	 ecx, esi
  00025	e8 00 00 00 00	 call	 ?Init@?$CEncrypt@M@@AAEXXZ ; CEncrypt<float>::Init

; 123  : 		*this = inValue;

  0002a	8b 4d 08	 mov	 ecx, DWORD PTR _inValue$[ebp]
  0002d	8d 45 08	 lea	 eax, DWORD PTR _value$541304[ebp]
  00030	50		 push	 eax
  00031	e8 00 00 00 00	 call	 ?DecryptValueToPool@?$CEncrypt@M@@QAEXPAM@Z ; CEncrypt<float>::DecryptValueToPool
  00036	f3 0f 10 45 08	 movss	 xmm0, DWORD PTR _value$541304[ebp]
  0003b	8d 45 08	 lea	 eax, DWORD PTR _value$541309[ebp]
  0003e	50		 push	 eax
  0003f	8b ce		 mov	 ecx, esi
  00041	f3 0f 11 45 08	 movss	 DWORD PTR _value$541309[ebp], xmm0
  00046	e8 00 00 00 00	 call	 ?EncryptValueToPool@?$CEncrypt@M@@AAEXPBD@Z ; CEncrypt<float>::EncryptValueToPool

; 124  : 	}

  0004b	8b c6		 mov	 eax, esi
  0004d	e8 00 00 00 00	 call	 __EH_epilog3
  00052	c2 04 00	 ret	 4
_TEXT	ENDS
;	COMDAT text$x
text$x	SEGMENT
__unwindfunclet$??0?$CEncrypt@M@@QAE@ABV0@@Z$0:
  00000	8b 4d f0	 mov	 ecx, DWORD PTR _this$[ebp]
  00003	83 c1 0c	 add	 ecx, 12			; 0000000cH
  00006	e9 00 00 00 00	 jmp	 ??1ccddaabb@@UAE@XZ	; ccddaabb::~ccddaabb
__ehhandler$??0?$CEncrypt@M@@QAE@ABV0@@Z:
  0000b	8b 54 24 08	 mov	 edx, DWORD PTR [esp+8]
  0000f	8d 42 0c	 lea	 eax, DWORD PTR [edx+12]
  00012	8b 4a ec	 mov	 ecx, DWORD PTR [edx-20]
  00015	33 c8		 xor	 ecx, eax
  00017	e8 00 00 00 00	 call	 @__security_check_cookie@4
  0001c	b8 00 00 00 00	 mov	 eax, OFFSET __ehfuncinfo$??0?$CEncrypt@M@@QAE@ABV0@@Z
  00021	e9 00 00 00 00	 jmp	 ___CxxFrameHandler3
text$x	ENDS
??0?$CEncrypt@M@@QAE@ABV0@@Z ENDP			; CEncrypt<float>::CEncrypt<float>
PUBLIC	??0StatusValue@@QAE@ABU0@@Z			; StatusValue::StatusValue
;	COMDAT xdata$x
xdata$x	SEGMENT
__unwindtable$??0StatusValue@@QAE@ABU0@@Z DD 0ffffffffH
	DD	FLAT:__unwindfunclet$??0StatusValue@@QAE@ABU0@@Z$0
	DD	00H
	DD	FLAT:__unwindfunclet$??0StatusValue@@QAE@ABU0@@Z$1
	DD	01H
	DD	FLAT:__unwindfunclet$??0StatusValue@@QAE@ABU0@@Z$2
	DD	02H
	DD	FLAT:__unwindfunclet$??0StatusValue@@QAE@ABU0@@Z$3
__ehfuncinfo$??0StatusValue@@QAE@ABU0@@Z DD 019930522H
	DD	04H
	DD	FLAT:__unwindtable$??0StatusValue@@QAE@ABU0@@Z
	DD	2 DUP(00H)
	DD	2 DUP(00H)
	DD	00H
	DD	01H
; Function compile flags: /Ogsp
xdata$x	ENDS
;	COMDAT ??0StatusValue@@QAE@ABU0@@Z
_TEXT	SEGMENT
_this$ = -16						; size = 4
__$EHRec$ = -12						; size = 12
___that$ = 8						; size = 4
??0StatusValue@@QAE@ABU0@@Z PROC			; StatusValue::StatusValue, COMDAT
; _this$ = ecx
  00000	6a 04		 push	 4
  00002	b8 00 00 00 00	 mov	 eax, __ehhandler$??0StatusValue@@QAE@ABU0@@Z
  00007	e8 00 00 00 00	 call	 __EH_prolog3
  0000c	8b f1		 mov	 esi, ecx
  0000e	89 75 f0	 mov	 DWORD PTR _this$[ebp], esi
  00011	8b 7d 08	 mov	 edi, DWORD PTR ___that$[ebp]
  00014	57		 push	 edi
  00015	e8 00 00 00 00	 call	 ??0?$CEncrypt@M@@QAE@ABV0@@Z ; CEncrypt<float>::CEncrypt<float>
  0001a	83 65 fc 00	 and	 DWORD PTR __$EHRec$[ebp+8], 0
  0001e	8d 47 30	 lea	 eax, DWORD PTR [edi+48]
  00021	50		 push	 eax
  00022	8d 4e 30	 lea	 ecx, DWORD PTR [esi+48]
  00025	e8 00 00 00 00	 call	 ??0?$CEncrypt@M@@QAE@ABV0@@Z ; CEncrypt<float>::CEncrypt<float>
  0002a	8d 47 60	 lea	 eax, DWORD PTR [edi+96]
  0002d	50		 push	 eax
  0002e	8d 4e 60	 lea	 ecx, DWORD PTR [esi+96]
  00031	c6 45 fc 01	 mov	 BYTE PTR __$EHRec$[ebp+8], 1
  00035	e8 00 00 00 00	 call	 ??0?$CEncrypt@M@@QAE@ABV0@@Z ; CEncrypt<float>::CEncrypt<float>
  0003a	8d 87 90 00 00
	00		 lea	 eax, DWORD PTR [edi+144]
  00040	50		 push	 eax
  00041	8d 8e 90 00 00
	00		 lea	 ecx, DWORD PTR [esi+144]
  00047	c6 45 fc 02	 mov	 BYTE PTR __$EHRec$[ebp+8], 2
  0004b	e8 00 00 00 00	 call	 ??0?$CEncrypt@K@@QAE@ABV0@@Z ; CEncrypt<unsigned long>::CEncrypt<unsigned long>
  00050	81 c7 c0 00 00
	00		 add	 edi, 192		; 000000c0H
  00056	57		 push	 edi
  00057	8d 8e c0 00 00
	00		 lea	 ecx, DWORD PTR [esi+192]
  0005d	c6 45 fc 03	 mov	 BYTE PTR __$EHRec$[ebp+8], 3
  00061	e8 00 00 00 00	 call	 ??0?$CEncrypt@K@@QAE@ABV0@@Z ; CEncrypt<unsigned long>::CEncrypt<unsigned long>
  00066	8b c6		 mov	 eax, esi
  00068	e8 00 00 00 00	 call	 __EH_epilog3
  0006d	c2 04 00	 ret	 4
_TEXT	ENDS
;	COMDAT text$x
text$x	SEGMENT
__unwindfunclet$??0StatusValue@@QAE@ABU0@@Z$0:
  00000	8b 4d f0	 mov	 ecx, DWORD PTR _this$[ebp]
  00003	e9 00 00 00 00	 jmp	 ??1?$CEncrypt@M@@UAE@XZ	; CEncrypt<float>::~CEncrypt<float>
__unwindfunclet$??0StatusValue@@QAE@ABU0@@Z$1:
  00008	8b 4d f0	 mov	 ecx, DWORD PTR _this$[ebp]
  0000b	83 c1 30	 add	 ecx, 48			; 00000030H
  0000e	e9 00 00 00 00	 jmp	 ??1?$CEncrypt@M@@UAE@XZ	; CEncrypt<float>::~CEncrypt<float>
__unwindfunclet$??0StatusValue@@QAE@ABU0@@Z$2:
  00013	8b 4d f0	 mov	 ecx, DWORD PTR _this$[ebp]
  00016	83 c1 60	 add	 ecx, 96			; 00000060H
  00019	e9 00 00 00 00	 jmp	 ??1?$CEncrypt@M@@UAE@XZ	; CEncrypt<float>::~CEncrypt<float>
__unwindfunclet$??0StatusValue@@QAE@ABU0@@Z$3:
  0001e	8b 4d f0	 mov	 ecx, DWORD PTR _this$[ebp]
  00021	81 c1 90 00 00
	00		 add	 ecx, 144		; 00000090H
  00027	e9 00 00 00 00	 jmp	 ??1?$CEncrypt@K@@UAE@XZ	; CEncrypt<unsigned long>::~CEncrypt<unsigned long>
__ehhandler$??0StatusValue@@QAE@ABU0@@Z:
  0002c	8b 54 24 08	 mov	 edx, DWORD PTR [esp+8]
  00030	8d 42 0c	 lea	 eax, DWORD PTR [edx+12]
  00033	8b 4a ec	 mov	 ecx, DWORD PTR [edx-20]
  00036	33 c8		 xor	 ecx, eax
  00038	e8 00 00 00 00	 call	 @__security_check_cookie@4
  0003d	b8 00 00 00 00	 mov	 eax, OFFSET __ehfuncinfo$??0StatusValue@@QAE@ABU0@@Z
  00042	e9 00 00 00 00	 jmp	 ___CxxFrameHandler3
text$x	ENDS
??0StatusValue@@QAE@ABU0@@Z ENDP			; StatusValue::StatusValue
PUBLIC	__real@00000000
PUBLIC	__real@4f800000
PUBLIC	?GetCurHPRate@ioObserverBlueWnd@@IAEMABVioHashString@@@Z ; ioObserverBlueWnd::GetCurHPRate
;	COMDAT __real@00000000
CONST	SEGMENT
__real@00000000 DD 000000000r			; 0
CONST	ENDS
;	COMDAT __real@4f800000
CONST	SEGMENT
__real@4f800000 DD 04f800000r			; 4.29497e+009
CONST	ENDS
;	COMDAT xdata$x
xdata$x	SEGMENT
__unwindtable$?GetCurHPRate@ioObserverBlueWnd@@IAEMABVioHashString@@@Z DD 0ffffffffH
	DD	FLAT:__unwindfunclet$?GetCurHPRate@ioObserverBlueWnd@@IAEMABVioHashString@@@Z$0
__ehfuncinfo$?GetCurHPRate@ioObserverBlueWnd@@IAEMABVioHashString@@@Z DD 019930522H
	DD	01H
	DD	FLAT:__unwindtable$?GetCurHPRate@ioObserverBlueWnd@@IAEMABVioHashString@@@Z
	DD	2 DUP(00H)
	DD	2 DUP(00H)
	DD	00H
	DD	01H
; Function compile flags: /Ogsp
; File d:\lost saga for developer\youtube\tutorial\source\src\lsclient\gui\ioobserverwnd.cpp
xdata$x	ENDS
;	COMDAT ?GetCurHPRate@ioObserverBlueWnd@@IAEMABVioHashString@@@Z
_TEXT	SEGMENT
tv226 = -260						; size = 4
tv217 = -260						; size = 4
tv211 = -260						; size = 4
$T541335 = -260						; size = 4
_rkHP$ = -256						; size = 240
__$EHRec$ = -12						; size = 12
_szName$ = 8						; size = 4
?GetCurHPRate@ioObserverBlueWnd@@IAEMABVioHashString@@@Z PROC ; ioObserverBlueWnd::GetCurHPRate, COMDAT
; _this$ = ecx

; 1193 : {

  00000	68 f8 00 00 00	 push	 248			; 000000f8H
  00005	b8 00 00 00 00	 mov	 eax, __ehhandler$?GetCurHPRate@ioObserverBlueWnd@@IAEMABVioHashString@@@Z
  0000a	e8 00 00 00 00	 call	 __EH_prolog3_GS

; 1194 : 	if( !m_pPlayStage )

  0000f	8b 89 90 01 00
	00		 mov	 ecx, DWORD PTR [ecx+400]
  00015	8b 55 08	 mov	 edx, DWORD PTR _szName$[ebp]
  00018	85 c9		 test	 ecx, ecx
  0001a	75 23		 jne	 SHORT $LN3@GetCurHPRa

; 1195 : 		return FLOAT1;

  0001c	b8 01 00 00 00	 mov	 eax, 1
  00021	89 85 fc fe ff
	ff		 mov	 DWORD PTR tv217[ebp], eax
  00027	db 85 fc fe ff
	ff		 fild	 DWORD PTR tv217[ebp]
$LN32@GetCurHPRa:
  0002d	85 c0		 test	 eax, eax
  0002f	79 06		 jns	 SHORT $LN4@GetCurHPRa
  00031	d8 05 00 00 00
	00		 fadd	 DWORD PTR __real@4f800000
$LN4@GetCurHPRa:

; 1208 : }

  00037	e8 00 00 00 00	 call	 __EH_epilog3_GS
  0003c	c2 04 00	 ret	 4
$LN3@GetCurHPRa:

; 1196 : 
; 1197 : 	ioBaseChar *pUser = m_pPlayStage->GetBaseChar( szName );

  0003f	52		 push	 edx
  00040	e8 00 00 00 00	 call	 ?GetBaseChar@ioPlayStage@@QAEPAVioBaseChar@@ABVioHashString@@@Z ; ioPlayStage::GetBaseChar

; 1198 : 	if( !pUser )

  00045	85 c0		 test	 eax, eax
  00047	75 13		 jne	 SHORT $LN2@GetCurHPRa

; 1199 : 		return FLOAT1;

  00049	b8 01 00 00 00	 mov	 eax, 1
  0004e	89 85 fc fe ff
	ff		 mov	 DWORD PTR tv211[ebp], eax
  00054	db 85 fc fe ff
	ff		 fild	 DWORD PTR tv211[ebp]
  0005a	eb d1		 jmp	 SHORT $LN32@GetCurHPRa
$LN2@GetCurHPRa:

; 1200 : 
; 1201 : 	StatusValue rkHP = pUser->GetHP();

  0005c	05 c0 00 00 00	 add	 eax, 192		; 000000c0H
  00061	50		 push	 eax
  00062	8d 8d 00 ff ff
	ff		 lea	 ecx, DWORD PTR _rkHP$[ebp]
  00068	e8 00 00 00 00	 call	 ??0StatusValue@@QAE@ABU0@@Z
  0006d	83 65 fc 00	 and	 DWORD PTR __$EHRec$[ebp+8], 0

; 1202 : 	if( rkHP.m_fMaxValue <= 0.0f )

  00071	6a 04		 push	 4
  00073	8d 85 58 ff ff
	ff		 lea	 eax, DWORD PTR _rkHP$[ebp+88]
  00079	50		 push	 eax
  0007a	8d 85 4c ff ff
	ff		 lea	 eax, DWORD PTR _rkHP$[ebp+76]
  00080	50		 push	 eax
  00081	8d 8d 3c ff ff
	ff		 lea	 ecx, DWORD PTR _rkHP$[ebp+60]
  00087	e8 00 00 00 00	 call	 ?DecryptByte@ccddaabb@@QBEXPBDPADH@Z ; ccddaabb::DecryptByte
  0008c	0f 57 c0	 xorps	 xmm0, xmm0
  0008f	0f 2f 85 58 ff
	ff ff		 comiss	 xmm0, DWORD PTR _rkHP$[ebp+88]
  00096	72 1f		 jb	 SHORT $LN1@GetCurHPRa
  00098	d9 ee		 fldz
  0009a	d9 9d fc fe ff
	ff		 fstp	 DWORD PTR tv226[ebp]
$LN28@GetCurHPRa:

; 1203 : 		return 0.0f;

  000a0	83 4d fc ff	 or	 DWORD PTR __$EHRec$[ebp+8], -1
  000a4	8d 8d 00 ff ff
	ff		 lea	 ecx, DWORD PTR _rkHP$[ebp]
  000aa	e8 00 00 00 00	 call	 ??1StatusValue@@QAE@XZ
  000af	d9 85 fc fe ff
	ff		 fld	 DWORD PTR tv226[ebp]
  000b5	eb 80		 jmp	 SHORT $LN4@GetCurHPRa
$LN1@GetCurHPRa:

; 1204 : 
; 1205 : 	float fRate = rkHP.m_fCurValue / rkHP.m_fMaxValue;

  000b7	6a 04		 push	 4
  000b9	8d 85 58 ff ff
	ff		 lea	 eax, DWORD PTR _rkHP$[ebp+88]
  000bf	50		 push	 eax
  000c0	8d 85 4c ff ff
	ff		 lea	 eax, DWORD PTR _rkHP$[ebp+76]
  000c6	50		 push	 eax
  000c7	8d 8d 3c ff ff
	ff		 lea	 ecx, DWORD PTR _rkHP$[ebp+60]
  000cd	e8 00 00 00 00	 call	 ?DecryptByte@ccddaabb@@QBEXPBDPADH@Z ; ccddaabb::DecryptByte
  000d2	f3 0f 10 85 58
	ff ff ff	 movss	 xmm0, DWORD PTR _rkHP$[ebp+88]
  000da	6a 04		 push	 4
  000dc	8d 85 28 ff ff
	ff		 lea	 eax, DWORD PTR _rkHP$[ebp+40]
  000e2	50		 push	 eax
  000e3	8d 85 1c ff ff
	ff		 lea	 eax, DWORD PTR _rkHP$[ebp+28]
  000e9	50		 push	 eax
  000ea	8d 8d 0c ff ff
	ff		 lea	 ecx, DWORD PTR _rkHP$[ebp+12]
  000f0	f3 0f 11 85 fc
	fe ff ff	 movss	 DWORD PTR $T541335[ebp], xmm0
  000f8	e8 00 00 00 00	 call	 ?DecryptByte@ccddaabb@@QBEXPBDPADH@Z ; ccddaabb::DecryptByte

; 1206 : 
; 1207 : 	return fRate;

  000fd	f3 0f 10 8d fc
	fe ff ff	 movss	 xmm1, DWORD PTR $T541335[ebp]
  00105	f3 0f 10 85 28
	ff ff ff	 movss	 xmm0, DWORD PTR _rkHP$[ebp+40]
  0010d	0f 5a c0	 cvtps2pd xmm0, xmm0
  00110	0f 5a c9	 cvtps2pd xmm1, xmm1
  00113	f2 0f 5e c1	 divsd	 xmm0, xmm1
  00117	66 0f 5a c0	 cvtpd2ps xmm0, xmm0
  0011b	f3 0f 11 85 fc
	fe ff ff	 movss	 DWORD PTR tv226[ebp], xmm0
  00123	e9 78 ff ff ff	 jmp	 $LN28@GetCurHPRa
_TEXT	ENDS
;	COMDAT text$x
text$x	SEGMENT
__unwindfunclet$?GetCurHPRate@ioObserverBlueWnd@@IAEMABVioHashString@@@Z$0:
  00000	8d 8d 00 ff ff
	ff		 lea	 ecx, DWORD PTR _rkHP$[ebp]
  00006	e9 00 00 00 00	 jmp	 ??1StatusValue@@QAE@XZ
__ehhandler$?GetCurHPRate@ioObserverBlueWnd@@IAEMABVioHashString@@@Z:
  0000b	8b 54 24 08	 mov	 edx, DWORD PTR [esp+8]
  0000f	8d 42 0c	 lea	 eax, DWORD PTR [edx+12]
  00012	8b 8a f8 fe ff
	ff		 mov	 ecx, DWORD PTR [edx-264]
  00018	33 c8		 xor	 ecx, eax
  0001a	e8 00 00 00 00	 call	 @__security_check_cookie@4
  0001f	8b 4a fc	 mov	 ecx, DWORD PTR [edx-4]
  00022	33 c8		 xor	 ecx, eax
  00024	e8 00 00 00 00	 call	 @__security_check_cookie@4
  00029	b8 00 00 00 00	 mov	 eax, OFFSET __ehfuncinfo$?GetCurHPRate@ioObserverBlueWnd@@IAEMABVioHashString@@@Z
  0002e	e9 00 00 00 00	 jmp	 ___CxxFrameHandler3
text$x	ENDS
?GetCurHPRate@ioObserverBlueWnd@@IAEMABVioHashString@@@Z ENDP ; ioObserverBlueWnd::GetCurHPRate
PUBLIC	??$_Dest_val@V?$allocator@URoundInfo@@@std@@URoundInfo@@@std@@YAXAAV?$allocator@URoundInfo@@@0@PAURoundInfo@@@Z ; std::_Dest_val<std::allocator<RoundInfo>,RoundInfo>
; Function compile flags: /Ogsp
; File c:\program files (x86)\microsoft visual studio 10.0\vc\include\xmemory
;	COMDAT ??$_Dest_val@V?$allocator@URoundInfo@@@std@@URoundInfo@@@std@@YAXAAV?$allocator@URoundInfo@@@0@PAURoundInfo@@@Z
_TEXT	SEGMENT
__Alval$ = 8						; size = 4
__Pdest$ = 12						; size = 4
??$_Dest_val@V?$allocator@URoundInfo@@@std@@URoundInfo@@@std@@YAXAAV?$allocator@URoundInfo@@@0@PAURoundInfo@@@Z PROC ; std::_Dest_val<std::allocator<RoundInfo>,RoundInfo>, COMDAT

; 286  : 	{	// destroy using allocator

  00000	55		 push	 ebp
  00001	8b ec		 mov	 ebp, esp

; 287  : 	_Alval.destroy(_Pdest);

  00003	8b 4d 0c	 mov	 ecx, DWORD PTR __Pdest$[ebp]

; 288  : 	}

  00006	5d		 pop	 ebp

; 287  : 	_Alval.destroy(_Pdest);

  00007	e9 00 00 00 00	 jmp	 ??1RoundInfo@@QAE@XZ
??$_Dest_val@V?$allocator@URoundInfo@@@std@@URoundInfo@@@std@@YAXAAV?$allocator@URoundInfo@@@0@PAURoundInfo@@@Z ENDP ; std::_Dest_val<std::allocator<RoundInfo>,RoundInfo>
_TEXT	ENDS
PUBLIC	??$_Uninit_move@PAURoundInfo@@PAU1@V?$allocator@URoundInfo@@@std@@U1@@std@@YAPAURoundInfo@@PAU1@00AAV?$allocator@URoundInfo@@@0@0U_Nonscalar_ptr_iterator_tag@0@@Z ; std::_Uninit_move<RoundInfo *,RoundInfo *,std::allocator<RoundInfo>,RoundInfo>
EXTRN	__EH_prolog3_catch:PROC
;	COMDAT xdata$x
xdata$x	SEGMENT
__catchsym$??$_Uninit_move@PAURoundInfo@@PAU1@V?$allocator@URoundInfo@@@std@@U1@@std@@YAPAURoundInfo@@PAU1@00AAV?$allocator@URoundInfo@@@0@0U_Nonscalar_ptr_iterator_tag@0@@Z$2 DD 040H
	DD	00H
	DD	00H
	DD	FLAT:__catch$??$_Uninit_move@PAURoundInfo@@PAU1@V?$allocator@URoundInfo@@@std@@U1@@std@@YAPAURoundInfo@@PAU1@00AAV?$allocator@URoundInfo@@@0@0U_Nonscalar_ptr_iterator_tag@0@@Z$0
__unwindtable$??$_Uninit_move@PAURoundInfo@@PAU1@V?$allocator@URoundInfo@@@std@@U1@@std@@YAPAURoundInfo@@PAU1@00AAV?$allocator@URoundInfo@@@0@0U_Nonscalar_ptr_iterator_tag@0@@Z DD 0ffffffffH
	DD	00H
	DD	0ffffffffH
	DD	00H
__tryblocktable$??$_Uninit_move@PAURoundInfo@@PAU1@V?$allocator@URoundInfo@@@std@@U1@@std@@YAPAURoundInfo@@PAU1@00AAV?$allocator@URoundInfo@@@0@0U_Nonscalar_ptr_iterator_tag@0@@Z DD 00H
	DD	00H
	DD	01H
	DD	01H
	DD	FLAT:__catchsym$??$_Uninit_move@PAURoundInfo@@PAU1@V?$allocator@URoundInfo@@@std@@U1@@std@@YAPAURoundInfo@@PAU1@00AAV?$allocator@URoundInfo@@@0@0U_Nonscalar_ptr_iterator_tag@0@@Z$2
__ehfuncinfo$??$_Uninit_move@PAURoundInfo@@PAU1@V?$allocator@URoundInfo@@@std@@U1@@std@@YAPAURoundInfo@@PAU1@00AAV?$allocator@URoundInfo@@@0@0U_Nonscalar_ptr_iterator_tag@0@@Z DD 019930522H
	DD	02H
	DD	FLAT:__unwindtable$??$_Uninit_move@PAURoundInfo@@PAU1@V?$allocator@URoundInfo@@@std@@U1@@std@@YAPAURoundInfo@@PAU1@00AAV?$allocator@URoundInfo@@@0@0U_Nonscalar_ptr_iterator_tag@0@@Z
	DD	01H
	DD	FLAT:__tryblocktable$??$_Uninit_move@PAURoundInfo@@PAU1@V?$allocator@URoundInfo@@@std@@U1@@std@@YAPAURoundInfo@@PAU1@00AAV?$allocator@URoundInfo@@@0@0U_Nonscalar_ptr_iterator_tag@0@@Z
	DD	2 DUP(00H)
	DD	00H
	DD	01H
; Function compile flags: /Ogsp
; File c:\program files (x86)\microsoft visual studio 10.0\vc\include\memory
xdata$x	ENDS
;	COMDAT ??$_Uninit_move@PAURoundInfo@@PAU1@V?$allocator@URoundInfo@@@std@@U1@@std@@YAPAURoundInfo@@PAU1@00AAV?$allocator@URoundInfo@@@0@0U_Nonscalar_ptr_iterator_tag@0@@Z
_TEXT	SEGMENT
__Next$ = -20						; size = 4
__$EHRec$ = -16						; size = 16
__First$ = 8						; size = 4
__Last$ = 12						; size = 4
__Dest$ = 16						; size = 4
__Al$ = 20						; size = 4
___formal$ = 24						; size = 4
___formal$ = 28						; size = 1
??$_Uninit_move@PAURoundInfo@@PAU1@V?$allocator@URoundInfo@@@std@@U1@@std@@YAPAURoundInfo@@PAU1@00AAV?$allocator@URoundInfo@@@0@0U_Nonscalar_ptr_iterator_tag@0@@Z PROC ; std::_Uninit_move<RoundInfo *,RoundInfo *,std::allocator<RoundInfo>,RoundInfo>, COMDAT

; 424  : 	{	// move [_First, _Last) to raw _Dest, using _Al, arbitrary type

  00000	6a 08		 push	 8
  00002	b8 00 00 00 00	 mov	 eax, __ehhandler$??$_Uninit_move@PAURoundInfo@@PAU1@V?$allocator@URoundInfo@@@std@@U1@@std@@YAPAURoundInfo@@PAU1@00AAV?$allocator@URoundInfo@@@0@0U_Nonscalar_ptr_iterator_tag@0@@Z
  00007	e8 00 00 00 00	 call	 __EH_prolog3_catch

; 425  : 	_DEBUG_RANGE(_First, _Last);
; 426  : 	_DEBUG_POINTER(_Dest);
; 427  : 	_FwdIt _Next = _Dest;

  0000c	8b 45 10	 mov	 eax, DWORD PTR __Dest$[ebp]

; 428  : 
; 429  : 	_TRY_BEGIN

  0000f	83 65 fc 00	 and	 DWORD PTR __$EHRec$[ebp+12], 0
  00013	8b 7d 08	 mov	 edi, DWORD PTR __First$[ebp]
  00016	89 45 ec	 mov	 DWORD PTR __Next$[ebp], eax
  00019	be 80 00 00 00	 mov	 esi, 128		; 00000080H
$LL6@Uninit_mov:

; 430  : 	for (; _First != _Last; ++_Dest, ++_First)

  0001e	3b 7d 0c	 cmp	 edi, DWORD PTR __Last$[ebp]
  00021	74 3a		 je	 SHORT $LN4@Uninit_mov

; 431  : 		_Cons_val(_Al, _Dest, (_Valty &&)*_First);

  00023	57		 push	 edi
  00024	ff 75 10	 push	 DWORD PTR __Dest$[ebp]
  00027	ff 75 14	 push	 DWORD PTR __Al$[ebp]
  0002a	e8 00 00 00 00	 call	 ??$_Cons_val@V?$allocator@URoundInfo@@@std@@URoundInfo@@U3@@std@@YAXAAV?$allocator@URoundInfo@@@0@PAURoundInfo@@$$QAU2@@Z ; std::_Cons_val<std::allocator<RoundInfo>,RoundInfo,RoundInfo>
  0002f	01 75 10	 add	 DWORD PTR __Dest$[ebp], esi
  00032	83 c4 0c	 add	 esp, 12			; 0000000cH
  00035	03 fe		 add	 edi, esi
  00037	eb e5		 jmp	 SHORT $LL6@Uninit_mov
__catch$??$_Uninit_move@PAURoundInfo@@PAU1@V?$allocator@URoundInfo@@@std@@U1@@std@@YAPAURoundInfo@@PAU1@00AAV?$allocator@URoundInfo@@@0@0U_Nonscalar_ptr_iterator_tag@0@@Z$0:

; 432  : 	_CATCH_ALL
; 433  : 	for (; _Next != _Dest; ++_Next)

  00039	8b 7d ec	 mov	 edi, DWORD PTR __Next$[ebp]
  0003c	3b 7d 10	 cmp	 edi, DWORD PTR __Dest$[ebp]
  0003f	74 13		 je	 SHORT $LN1@Uninit_mov
  00041	be 80 00 00 00	 mov	 esi, 128		; 00000080H
$LL3@Uninit_mov:

; 434  : 		_Dest_val(_Al, _Next);

  00046	8b cf		 mov	 ecx, edi
  00048	e8 00 00 00 00	 call	 ??1RoundInfo@@QAE@XZ
  0004d	03 fe		 add	 edi, esi
  0004f	3b 7d 10	 cmp	 edi, DWORD PTR __Dest$[ebp]
  00052	75 f2		 jne	 SHORT $LL3@Uninit_mov
$LN1@Uninit_mov:

; 435  : 	_RERAISE;

  00054	6a 00		 push	 0
  00056	6a 00		 push	 0
  00058	e8 00 00 00 00	 call	 __CxxThrowException@8
$LN29@Uninit_mov:
$LN4@Uninit_mov:

; 436  : 	_CATCH_END
; 437  : 	return (_Dest);

  0005d	8b 45 10	 mov	 eax, DWORD PTR __Dest$[ebp]

; 438  : 	}

  00060	e8 00 00 00 00	 call	 __EH_epilog3
  00065	c3		 ret	 0
$LN28@Uninit_mov:
_TEXT	ENDS
;	COMDAT text$x
text$x	SEGMENT
__ehhandler$??$_Uninit_move@PAURoundInfo@@PAU1@V?$allocator@URoundInfo@@@std@@U1@@std@@YAPAURoundInfo@@PAU1@00AAV?$allocator@URoundInfo@@@0@0U_Nonscalar_ptr_iterator_tag@0@@Z:
  00000	8b 54 24 08	 mov	 edx, DWORD PTR [esp+8]
  00004	8d 42 0c	 lea	 eax, DWORD PTR [edx+12]
  00007	8b 4a e8	 mov	 ecx, DWORD PTR [edx-24]
  0000a	33 c8		 xor	 ecx, eax
  0000c	e8 00 00 00 00	 call	 @__security_check_cookie@4
  00011	b8 00 00 00 00	 mov	 eax, OFFSET __ehfuncinfo$??$_Uninit_move@PAURoundInfo@@PAU1@V?$allocator@URoundInfo@@@std@@U1@@std@@YAPAURoundInfo@@PAU1@00AAV?$allocator@URoundInfo@@@0@0U_Nonscalar_ptr_iterator_tag@0@@Z
  00016	e9 00 00 00 00	 jmp	 ___CxxFrameHandler3
text$x	ENDS
??$_Uninit_move@PAURoundInfo@@PAU1@V?$allocator@URoundInfo@@@std@@U1@@std@@YAPAURoundInfo@@PAU1@00AAV?$allocator@URoundInfo@@@0@0U_Nonscalar_ptr_iterator_tag@0@@Z ENDP ; std::_Uninit_move<RoundInfo *,RoundInfo *,std::allocator<RoundInfo>,RoundInfo>
PUBLIC	?GetCurHPRate@ioObserverRedWnd@@IAEMABVioHashString@@@Z ; ioObserverRedWnd::GetCurHPRate
;	COMDAT xdata$x
; File d:\lost saga for developer\youtube\tutorial\source\src\lsclient\encryptvalue.h
xdata$x	SEGMENT
__unwindtable$?GetCurHPRate@ioObserverRedWnd@@IAEMABVioHashString@@@Z DD 0ffffffffH
	DD	FLAT:__unwindfunclet$?GetCurHPRate@ioObserverRedWnd@@IAEMABVioHashString@@@Z$0
__ehfuncinfo$?GetCurHPRate@ioObserverRedWnd@@IAEMABVioHashString@@@Z DD 019930522H
	DD	01H
	DD	FLAT:__unwindtable$?GetCurHPRate@ioObserverRedWnd@@IAEMABVioHashString@@@Z
	DD	2 DUP(00H)
	DD	2 DUP(00H)
	DD	00H
	DD	01H
; Function compile flags: /Ogsp
; File d:\lost saga for developer\youtube\tutorial\source\src\lsclient\gui\ioobserverwnd.cpp
xdata$x	ENDS
;	COMDAT ?GetCurHPRate@ioObserverRedWnd@@IAEMABVioHashString@@@Z
_TEXT	SEGMENT
tv226 = -260						; size = 4
tv217 = -260						; size = 4
tv211 = -260						; size = 4
$T541473 = -260						; size = 4
_rkHP$ = -256						; size = 240
__$EHRec$ = -12						; size = 12
_szName$ = 8						; size = 4
?GetCurHPRate@ioObserverRedWnd@@IAEMABVioHashString@@@Z PROC ; ioObserverRedWnd::GetCurHPRate, COMDAT
; _this$ = ecx

; 601  : {

  00000	68 f8 00 00 00	 push	 248			; 000000f8H
  00005	b8 00 00 00 00	 mov	 eax, __ehhandler$?GetCurHPRate@ioObserverRedWnd@@IAEMABVioHashString@@@Z
  0000a	e8 00 00 00 00	 call	 __EH_prolog3_GS

; 602  : 	if( !m_pPlayStage )

  0000f	8b 89 90 01 00
	00		 mov	 ecx, DWORD PTR [ecx+400]
  00015	8b 55 08	 mov	 edx, DWORD PTR _szName$[ebp]
  00018	85 c9		 test	 ecx, ecx
  0001a	75 23		 jne	 SHORT $LN3@GetCurHPRa@2

; 603  : 		return FLOAT1;

  0001c	b8 01 00 00 00	 mov	 eax, 1
  00021	89 85 fc fe ff
	ff		 mov	 DWORD PTR tv217[ebp], eax
  00027	db 85 fc fe ff
	ff		 fild	 DWORD PTR tv217[ebp]
$LN32@GetCurHPRa@2:
  0002d	85 c0		 test	 eax, eax
  0002f	79 06		 jns	 SHORT $LN4@GetCurHPRa@2
  00031	d8 05 00 00 00
	00		 fadd	 DWORD PTR __real@4f800000
$LN4@GetCurHPRa@2:

; 616  : }

  00037	e8 00 00 00 00	 call	 __EH_epilog3_GS
  0003c	c2 04 00	 ret	 4
$LN3@GetCurHPRa@2:

; 604  : 
; 605  : 	ioBaseChar *pUser = m_pPlayStage->GetBaseChar( szName );

  0003f	52		 push	 edx
  00040	e8 00 00 00 00	 call	 ?GetBaseChar@ioPlayStage@@QAEPAVioBaseChar@@ABVioHashString@@@Z ; ioPlayStage::GetBaseChar

; 606  : 	if( !pUser )

  00045	85 c0		 test	 eax, eax
  00047	75 13		 jne	 SHORT $LN2@GetCurHPRa@2

; 607  : 		return FLOAT1;

  00049	b8 01 00 00 00	 mov	 eax, 1
  0004e	89 85 fc fe ff
	ff		 mov	 DWORD PTR tv211[ebp], eax
  00054	db 85 fc fe ff
	ff		 fild	 DWORD PTR tv211[ebp]
  0005a	eb d1		 jmp	 SHORT $LN32@GetCurHPRa@2
$LN2@GetCurHPRa@2:

; 608  : 
; 609  : 	StatusValue rkHP = pUser->GetHP();

  0005c	05 c0 00 00 00	 add	 eax, 192		; 000000c0H
  00061	50		 push	 eax
  00062	8d 8d 00 ff ff
	ff		 lea	 ecx, DWORD PTR _rkHP$[ebp]
  00068	e8 00 00 00 00	 call	 ??0StatusValue@@QAE@ABU0@@Z
  0006d	83 65 fc 00	 and	 DWORD PTR __$EHRec$[ebp+8], 0

; 610  : 	if( rkHP.m_fMaxValue <= 0.0f )

  00071	6a 04		 push	 4
  00073	8d 85 58 ff ff
	ff		 lea	 eax, DWORD PTR _rkHP$[ebp+88]
  00079	50		 push	 eax
  0007a	8d 85 4c ff ff
	ff		 lea	 eax, DWORD PTR _rkHP$[ebp+76]
  00080	50		 push	 eax
  00081	8d 8d 3c ff ff
	ff		 lea	 ecx, DWORD PTR _rkHP$[ebp+60]
  00087	e8 00 00 00 00	 call	 ?DecryptByte@ccddaabb@@QBEXPBDPADH@Z ; ccddaabb::DecryptByte
  0008c	0f 57 c0	 xorps	 xmm0, xmm0
  0008f	0f 2f 85 58 ff
	ff ff		 comiss	 xmm0, DWORD PTR _rkHP$[ebp+88]
  00096	72 1f		 jb	 SHORT $LN1@GetCurHPRa@2
  00098	d9 ee		 fldz
  0009a	d9 9d fc fe ff
	ff		 fstp	 DWORD PTR tv226[ebp]
$LN28@GetCurHPRa@2:

; 611  : 		return 0.0f;

  000a0	83 4d fc ff	 or	 DWORD PTR __$EHRec$[ebp+8], -1
  000a4	8d 8d 00 ff ff
	ff		 lea	 ecx, DWORD PTR _rkHP$[ebp]
  000aa	e8 00 00 00 00	 call	 ??1StatusValue@@QAE@XZ
  000af	d9 85 fc fe ff
	ff		 fld	 DWORD PTR tv226[ebp]
  000b5	eb 80		 jmp	 SHORT $LN4@GetCurHPRa@2
$LN1@GetCurHPRa@2:

; 612  : 
; 613  : 	float fRate = rkHP.m_fCurValue / rkHP.m_fMaxValue;

  000b7	6a 04		 push	 4
  000b9	8d 85 58 ff ff
	ff		 lea	 eax, DWORD PTR _rkHP$[ebp+88]
  000bf	50		 push	 eax
  000c0	8d 85 4c ff ff
	ff		 lea	 eax, DWORD PTR _rkHP$[ebp+76]
  000c6	50		 push	 eax
  000c7	8d 8d 3c ff ff
	ff		 lea	 ecx, DWORD PTR _rkHP$[ebp+60]
  000cd	e8 00 00 00 00	 call	 ?DecryptByte@ccddaabb@@QBEXPBDPADH@Z ; ccddaabb::DecryptByte
  000d2	f3 0f 10 85 58
	ff ff ff	 movss	 xmm0, DWORD PTR _rkHP$[ebp+88]
  000da	6a 04		 push	 4
  000dc	8d 85 28 ff ff
	ff		 lea	 eax, DWORD PTR _rkHP$[ebp+40]
  000e2	50		 push	 eax
  000e3	8d 85 1c ff ff
	ff		 lea	 eax, DWORD PTR _rkHP$[ebp+28]
  000e9	50		 push	 eax
  000ea	8d 8d 0c ff ff
	ff		 lea	 ecx, DWORD PTR _rkHP$[ebp+12]
  000f0	f3 0f 11 85 fc
	fe ff ff	 movss	 DWORD PTR $T541473[ebp], xmm0
  000f8	e8 00 00 00 00	 call	 ?DecryptByte@ccddaabb@@QBEXPBDPADH@Z ; ccddaabb::DecryptByte

; 614  : 
; 615  : 	return fRate;

  000fd	f3 0f 10 8d fc
	fe ff ff	 movss	 xmm1, DWORD PTR $T541473[ebp]
  00105	f3 0f 10 85 28
	ff ff ff	 movss	 xmm0, DWORD PTR _rkHP$[ebp+40]
  0010d	0f 5a c0	 cvtps2pd xmm0, xmm0
  00110	0f 5a c9	 cvtps2pd xmm1, xmm1
  00113	f2 0f 5e c1	 divsd	 xmm0, xmm1
  00117	66 0f 5a c0	 cvtpd2ps xmm0, xmm0
  0011b	f3 0f 11 85 fc
	fe ff ff	 movss	 DWORD PTR tv226[ebp], xmm0
  00123	e9 78 ff ff ff	 jmp	 $LN28@GetCurHPRa@2
_TEXT	ENDS
;	COMDAT text$x
text$x	SEGMENT
__unwindfunclet$?GetCurHPRate@ioObserverRedWnd@@IAEMABVioHashString@@@Z$0:
  00000	8d 8d 00 ff ff
	ff		 lea	 ecx, DWORD PTR _rkHP$[ebp]
  00006	e9 00 00 00 00	 jmp	 ??1StatusValue@@QAE@XZ
__ehhandler$?GetCurHPRate@ioObserverRedWnd@@IAEMABVioHashString@@@Z:
  0000b	8b 54 24 08	 mov	 edx, DWORD PTR [esp+8]
  0000f	8d 42 0c	 lea	 eax, DWORD PTR [edx+12]
  00012	8b 8a f8 fe ff
	ff		 mov	 ecx, DWORD PTR [edx-264]
  00018	33 c8		 xor	 ecx, eax
  0001a	e8 00 00 00 00	 call	 @__security_check_cookie@4
  0001f	8b 4a fc	 mov	 ecx, DWORD PTR [edx-4]
  00022	33 c8		 xor	 ecx, eax
  00024	e8 00 00 00 00	 call	 @__security_check_cookie@4
  00029	b8 00 00 00 00	 mov	 eax, OFFSET __ehfuncinfo$?GetCurHPRate@ioObserverRedWnd@@IAEMABVioHashString@@@Z
  0002e	e9 00 00 00 00	 jmp	 ___CxxFrameHandler3
text$x	ENDS
?GetCurHPRate@ioObserverRedWnd@@IAEMABVioHashString@@@Z ENDP ; ioObserverRedWnd::GetCurHPRate
PUBLIC	__real@3f400000
PUBLIC	__real@42de0000
PUBLIC	__real@3f800000
PUBLIC	_rkInfo$GSCopy$
PUBLIC	?OnBlueRender@ioObserverBlueWnd@@IAEXHHHABURoundInfo@@@Z ; ioObserverBlueWnd::OnBlueRender
EXTRN	__imp_?PrintTextWidthCut@ioFontManager@@QAAXMMMMPBDZZ:PROC
EXTRN	__imp_?SetTextStyle@ioFontManager@@QAEXW4TextStyle@@@Z:PROC
EXTRN	__imp_?SetTextColor@ioFontManager@@QAEXK@Z:PROC
EXTRN	__imp_?SetBkColor@ioFontManager@@QAEXHHH@Z:PROC
EXTRN	__imp_?SetAlignType@ioFontManager@@QAEXW4TextAlignType@@@Z:PROC
EXTRN	__imp_?GetSingleton@ioFontManager@@SAAAV1@XZ:PROC
EXTRN	?RenderMarkSize@ioGuildMarkMgr@@QAEXHHKKMMW4UIRenderType@@@Z:PROC ; ioGuildMarkMgr::RenderMarkSize
EXTRN	?GetSingleton@ioGuildMarkMgr@@SAAAV1@XZ:PROC	; ioGuildMarkMgr::GetSingleton
EXTRN	__imp_?SetVertFormatting@ioUIRenderImage@@QAEXW4VertFormatting@1@@Z:PROC
EXTRN	__imp_?SetHorzFormatting@ioUIRenderImage@@QAEXW4HorzFormatting@1@@Z:PROC
EXTRN	__imp_?RenderNum@ioUIRenderImage@@QAEXMMHMMW4UIRenderType@@W4TextureFilterOption@@0W4RenerNumerFormatting@1@@Z:PROC
EXTRN	__imp_?SetReverseFormatting@ioUIRenderImage@@QAEXW4ReverseFormatting@1@@Z:PROC
EXTRN	__imp_?RenderWidthCut@ioUIRenderImage@@QAEXMMHHW4UIRenderType@@W4TextureFilterOption@@0@Z:PROC
EXTRN	__imp_?GetWidth@ioUIRenderElement@@QBEHXZ:PROC
;	COMDAT __real@3f400000
; File d:\lost saga for developer\youtube\tutorial\source\src\lsclient\stdafx.h
CONST	SEGMENT
__real@3f400000 DD 03f400000r			; 0.75
CONST	ENDS
;	COMDAT __real@42de0000
CONST	SEGMENT
__real@42de0000 DD 042de0000r			; 111
CONST	ENDS
;	COMDAT __real@3f800000
CONST	SEGMENT
__real@3f800000 DD 03f800000r			; 1
CONST	ENDS
;	COMDAT xdata$x
xdata$x	SEGMENT
__unwindtable$?OnBlueRender@ioObserverBlueWnd@@IAEXHHHABURoundInfo@@@Z DD 0ffffffffH
	DD	FLAT:__unwindfunclet$?OnBlueRender@ioObserverBlueWnd@@IAEXHHHABURoundInfo@@@Z$0
__ehfuncinfo$?OnBlueRender@ioObserverBlueWnd@@IAEXHHHABURoundInfo@@@Z DD 019930522H
	DD	01H
	DD	FLAT:__unwindtable$?OnBlueRender@ioObserverBlueWnd@@IAEXHHHABURoundInfo@@@Z
	DD	2 DUP(00H)
	DD	2 DUP(00H)
	DD	00H
	DD	01H
; Function compile flags: /Ogsp
; File d:\lost saga for developer\youtube\tutorial\source\src\lsclient\gui\ioobserverwnd.cpp
xdata$x	ENDS
;	COMDAT ?OnBlueRender@ioObserverBlueWnd@@IAEXHHHABURoundInfo@@@Z
_TEXT	SEGMENT
tv568 = -276						; size = 4
tv569 = -272						; size = 4
tv665 = -268						; size = 4
tv660 = -268						; size = 4
tv622 = -268						; size = 4
tv621 = -268						; size = 4
_rkInfo$GSCopy$ = -264					; size = 4
tv619 = -260						; size = 4
$T541594 = -260						; size = 4
$T541593 = -260						; size = 4
_iNum$532571 = -260					; size = 4
_fHPRate$532564 = -260					; size = 4
_rkHP$541586 = -256					; size = 240
__$EHRec$ = -12						; size = 12
_iXPos$ = 8						; size = 4
_iYPos$ = 12						; size = 4
_iSlot$ = 16						; size = 4
_rkInfo$ = 20						; size = 4
?OnBlueRender@ioObserverBlueWnd@@IAEXHHHABURoundInfo@@@Z PROC ; ioObserverBlueWnd::OnBlueRender, COMDAT
; _this$ = ecx

; 916  : {

  00000	68 08 01 00 00	 push	 264			; 00000108H
  00005	b8 00 00 00 00	 mov	 eax, __ehhandler$?OnBlueRender@ioObserverBlueWnd@@IAEXHHHABURoundInfo@@@Z
  0000a	e8 00 00 00 00	 call	 __EH_prolog3_GS
  0000f	8b 45 14	 mov	 eax, DWORD PTR _rkInfo$[ebp]
  00012	8b f1		 mov	 esi, ecx

; 917  : 	if( !m_pBlueBack || !m_pBlueGauge || !m_pBlueDead || !m_pAddGauge || !m_pBlueNumKey )

  00014	33 db		 xor	 ebx, ebx

; 991  : 
; 992  : 	g_FontMgr.SetTextStyle( TS_OUTLINE_FULL_2X );

  00016	89 85 f8 fe ff
	ff		 mov	 DWORD PTR _rkInfo$GSCopy$[ebp], eax
  0001c	39 9e 98 01 00
	00		 cmp	 DWORD PTR [esi+408], ebx
  00022	0f 84 24 05 00
	00		 je	 $LN13@OnBlueRend

; 917  : 	if( !m_pBlueBack || !m_pBlueGauge || !m_pBlueDead || !m_pAddGauge || !m_pBlueNumKey )

  00028	39 9e a0 01 00
	00		 cmp	 DWORD PTR [esi+416], ebx
  0002e	0f 84 18 05 00
	00		 je	 $LN13@OnBlueRend
  00034	39 9e a8 01 00
	00		 cmp	 DWORD PTR [esi+424], ebx
  0003a	0f 84 0c 05 00
	00		 je	 $LN13@OnBlueRend
  00040	39 9e ac 01 00
	00		 cmp	 DWORD PTR [esi+428], ebx
  00046	0f 84 00 05 00
	00		 je	 $LN13@OnBlueRend
  0004c	39 9e b0 01 00
	00		 cmp	 DWORD PTR [esi+432], ebx
  00052	0f 84 f4 04 00
	00		 je	 $LN13@OnBlueRend

; 918  : 		return;
; 919  : 
; 920  : 	enum
; 921  : 	{
; 922  : 		MARK_XPOS	= 134,
; 923  : 		MARK_YPOS	= 5,
; 924  : 		GAUGE_XPOS	= 17,
; 925  : 		GAUGE_YPOS	= 2,
; 926  : 		NAME_XPOS	= 73,
; 927  : 		NAME_YPOS	= 4,
; 928  : 		KEY_XPOS	= 5,
; 929  : 		KEY_YPOS	= 12,
; 930  : 	};
; 931  : 
; 932  : 	//Back
; 933  : 	m_pBlueBack->Render( iXPos, iYPos );

  00058	8b 8e 98 01 00
	00		 mov	 ecx, DWORD PTR [esi+408]
  0005e	8b 7d 0c	 mov	 edi, DWORD PTR _iYPos$[ebp]
  00061	66 0f 6e 4d 08	 movd	 xmm1, DWORD PTR _iXPos$[ebp]
  00066	8b 01		 mov	 eax, DWORD PTR [ecx]
  00068	53		 push	 ebx
  00069	53		 push	 ebx
  0006a	53		 push	 ebx
  0006b	53		 push	 ebx
  0006c	51		 push	 ecx
  0006d	51		 push	 ecx
  0006e	0f 57 c0	 xorps	 xmm0, xmm0
  00071	f3 0f 2a c7	 cvtsi2ss xmm0, edi
  00075	0f 5b c9	 cvtdq2ps xmm1, xmm1
  00078	f3 0f 11 44 24
	04		 movss	 DWORD PTR [esp+4], xmm0
  0007e	f3 0f 11 85 ec
	fe ff ff	 movss	 DWORD PTR tv568[ebp], xmm0
  00086	f3 0f 11 8d f0
	fe ff ff	 movss	 DWORD PTR tv569[ebp], xmm1
  0008e	f3 0f 11 0c 24	 movss	 DWORD PTR [esp], xmm1
  00093	ff 10		 call	 DWORD PTR [eax]

; 934  : 
; 935  : 	//Gauge or Dead
; 936  : 	if( IsDieChar( rkInfo.m_szName ) )

  00095	ff b5 f8 fe ff
	ff		 push	 DWORD PTR _rkInfo$GSCopy$[ebp]
  0009b	8b ce		 mov	 ecx, esi
  0009d	e8 00 00 00 00	 call	 ?IsDieChar@ioObserverBlueWnd@@IAE_NABVioHashString@@@Z ; ioObserverBlueWnd::IsDieChar
  000a2	84 c0		 test	 al, al
  000a4	74 37		 je	 SHORT $LN12@OnBlueRend

; 937  : 	{
; 938  : 		m_pBlueDead->Render( iXPos+GAUGE_XPOS, iYPos+GAUGE_YPOS );

  000a6	8b 8e a8 01 00
	00		 mov	 ecx, DWORD PTR [esi+424]
  000ac	8b 01		 mov	 eax, DWORD PTR [ecx]
  000ae	53		 push	 ebx
  000af	53		 push	 ebx
  000b0	53		 push	 ebx
  000b1	53		 push	 ebx
  000b2	0f 57 c0	 xorps	 xmm0, xmm0
  000b5	8d 57 02	 lea	 edx, DWORD PTR [edi+2]
  000b8	f3 0f 2a c2	 cvtsi2ss xmm0, edx
  000bc	8b 55 08	 mov	 edx, DWORD PTR _iXPos$[ebp]
  000bf	51		 push	 ecx
  000c0	51		 push	 ecx
  000c1	f3 0f 11 44 24
	04		 movss	 DWORD PTR [esp+4], xmm0
  000c7	83 c2 11	 add	 edx, 17			; 00000011H
  000ca	0f 57 c0	 xorps	 xmm0, xmm0
  000cd	f3 0f 2a c2	 cvtsi2ss xmm0, edx
  000d1	f3 0f 11 04 24	 movss	 DWORD PTR [esp], xmm0
  000d6	ff 10		 call	 DWORD PTR [eax]

; 939  : 	}
; 940  : 	else

  000d8	e9 8d 01 00 00	 jmp	 $LN11@OnBlueRend
$LN12@OnBlueRend:

; 941  : 	{
; 942  : 		float fHPRate = GetCurHPRate( rkInfo.m_szName );

  000dd	8b 8e 90 01 00
	00		 mov	 ecx, DWORD PTR [esi+400]
  000e3	3b cb		 cmp	 ecx, ebx
  000e5	75 26		 jne	 SHORT $LN19@OnBlueRend
  000e7	b8 01 00 00 00	 mov	 eax, 1
  000ec	89 85 f4 fe ff
	ff		 mov	 DWORD PTR tv665[ebp], eax
  000f2	db 85 f4 fe ff
	ff		 fild	 DWORD PTR tv665[ebp]
$LN51@OnBlueRend:
  000f8	85 c0		 test	 eax, eax
  000fa	79 06		 jns	 SHORT $LN47@OnBlueRend
  000fc	d8 05 00 00 00
	00		 fadd	 DWORD PTR __real@4f800000
$LN47@OnBlueRend:
  00102	d9 9d fc fe ff
	ff		 fstp	 DWORD PTR _fHPRate$532564[ebp]
  00108	e9 ff 00 00 00	 jmp	 $LN20@OnBlueRend
$LN19@OnBlueRend:
  0010d	ff b5 f8 fe ff
	ff		 push	 DWORD PTR _rkInfo$GSCopy$[ebp]
  00113	e8 00 00 00 00	 call	 ?GetBaseChar@ioPlayStage@@QAEPAVioBaseChar@@ABVioHashString@@@Z ; ioPlayStage::GetBaseChar
  00118	3b c3		 cmp	 eax, ebx
  0011a	75 13		 jne	 SHORT $LN18@OnBlueRend
  0011c	b8 01 00 00 00	 mov	 eax, 1
  00121	89 85 f4 fe ff
	ff		 mov	 DWORD PTR tv660[ebp], eax
  00127	db 85 f4 fe ff
	ff		 fild	 DWORD PTR tv660[ebp]
  0012d	eb c9		 jmp	 SHORT $LN51@OnBlueRend
$LN18@OnBlueRend:
  0012f	05 c0 00 00 00	 add	 eax, 192		; 000000c0H
  00134	50		 push	 eax
  00135	8d 8d 00 ff ff
	ff		 lea	 ecx, DWORD PTR _rkHP$541586[ebp]
  0013b	e8 00 00 00 00	 call	 ??0StatusValue@@QAE@ABU0@@Z
  00140	6a 04		 push	 4
  00142	8d 85 58 ff ff
	ff		 lea	 eax, DWORD PTR _rkHP$541586[ebp+88]
  00148	50		 push	 eax
  00149	8d 85 4c ff ff
	ff		 lea	 eax, DWORD PTR _rkHP$541586[ebp+76]
  0014f	50		 push	 eax
  00150	8d 8d 3c ff ff
	ff		 lea	 ecx, DWORD PTR _rkHP$541586[ebp+60]
  00156	89 5d fc	 mov	 DWORD PTR __$EHRec$[ebp+8], ebx
  00159	e8 00 00 00 00	 call	 ?DecryptByte@ccddaabb@@QBEXPBDPADH@Z ; ccddaabb::DecryptByte
  0015e	0f 57 c0	 xorps	 xmm0, xmm0
  00161	0f 2f 85 58 ff
	ff ff		 comiss	 xmm0, DWORD PTR _rkHP$541586[ebp+88]
  00168	72 17		 jb	 SHORT $LN17@OnBlueRend
  0016a	83 4d fc ff	 or	 DWORD PTR __$EHRec$[ebp+8], -1
  0016e	8d 8d 00 ff ff
	ff		 lea	 ecx, DWORD PTR _rkHP$541586[ebp]
  00174	e8 00 00 00 00	 call	 ??1StatusValue@@QAE@XZ
  00179	0f 57 c0	 xorps	 xmm0, xmm0
  0017c	e9 83 00 00 00	 jmp	 $LN50@OnBlueRend
$LN17@OnBlueRend:
  00181	6a 04		 push	 4
  00183	8d 85 58 ff ff
	ff		 lea	 eax, DWORD PTR _rkHP$541586[ebp+88]
  00189	50		 push	 eax
  0018a	8d 85 4c ff ff
	ff		 lea	 eax, DWORD PTR _rkHP$541586[ebp+76]
  00190	50		 push	 eax
  00191	8d 8d 3c ff ff
	ff		 lea	 ecx, DWORD PTR _rkHP$541586[ebp+60]
  00197	e8 00 00 00 00	 call	 ?DecryptByte@ccddaabb@@QBEXPBDPADH@Z ; ccddaabb::DecryptByte
  0019c	f3 0f 10 85 58
	ff ff ff	 movss	 xmm0, DWORD PTR _rkHP$541586[ebp+88]
  001a4	6a 04		 push	 4
  001a6	8d 85 28 ff ff
	ff		 lea	 eax, DWORD PTR _rkHP$541586[ebp+40]
  001ac	50		 push	 eax
  001ad	8d 85 1c ff ff
	ff		 lea	 eax, DWORD PTR _rkHP$541586[ebp+28]
  001b3	50		 push	 eax
  001b4	8d 8d 0c ff ff
	ff		 lea	 ecx, DWORD PTR _rkHP$541586[ebp+12]
  001ba	f3 0f 11 85 fc
	fe ff ff	 movss	 DWORD PTR $T541593[ebp], xmm0
  001c2	e8 00 00 00 00	 call	 ?DecryptByte@ccddaabb@@QBEXPBDPADH@Z ; ccddaabb::DecryptByte
  001c7	f3 0f 10 8d fc
	fe ff ff	 movss	 xmm1, DWORD PTR $T541593[ebp]
  001cf	f3 0f 10 85 28
	ff ff ff	 movss	 xmm0, DWORD PTR _rkHP$541586[ebp+40]
  001d7	83 4d fc ff	 or	 DWORD PTR __$EHRec$[ebp+8], -1
  001db	0f 5a c0	 cvtps2pd xmm0, xmm0
  001de	0f 5a c9	 cvtps2pd xmm1, xmm1
  001e1	f2 0f 5e c1	 divsd	 xmm0, xmm1
  001e5	66 0f 5a c0	 cvtpd2ps xmm0, xmm0
  001e9	8d 8d 00 ff ff
	ff		 lea	 ecx, DWORD PTR _rkHP$541586[ebp]
  001ef	f3 0f 11 85 fc
	fe ff ff	 movss	 DWORD PTR $T541594[ebp], xmm0
  001f7	e8 00 00 00 00	 call	 ??1StatusValue@@QAE@XZ
  001fc	f3 0f 10 85 fc
	fe ff ff	 movss	 xmm0, DWORD PTR $T541594[ebp]
$LN50@OnBlueRend:
  00204	f3 0f 11 85 fc
	fe ff ff	 movss	 DWORD PTR _fHPRate$532564[ebp], xmm0
$LN20@OnBlueRend:

; 943  : 		int iSize = m_pRedGauge->GetWidth();

  0020c	8b 8e a4 01 00
	00		 mov	 ecx, DWORD PTR [esi+420]
  00212	ff 15 00 00 00
	00		 call	 DWORD PTR __imp_?GetWidth@ioUIRenderElement@@QBEHXZ

; 944  : 		int iEnd = (float)iSize * fHPRate;

  00218	f3 0f 10 8d fc
	fe ff ff	 movss	 xmm1, DWORD PTR _fHPRate$532564[ebp]
  00220	0f 57 c0	 xorps	 xmm0, xmm0
  00223	f3 0f 2a c0	 cvtsi2ss xmm0, eax

; 945  : 
; 946  : 		m_pBlueGauge->RenderWidthCut( iXPos+GAUGE_XPOS, iYPos+GAUGE_YPOS, 0, iEnd );

  00227	53		 push	 ebx
  00228	53		 push	 ebx
  00229	0f 5a c0	 cvtps2pd xmm0, xmm0
  0022c	53		 push	 ebx
  0022d	0f 5a c9	 cvtps2pd xmm1, xmm1
  00230	f2 0f 59 c1	 mulsd	 xmm0, xmm1
  00234	f2 0f 2c c0	 cvttsd2si eax, xmm0
  00238	50		 push	 eax
  00239	53		 push	 ebx
  0023a	0f 57 c0	 xorps	 xmm0, xmm0
  0023d	8d 47 02	 lea	 eax, DWORD PTR [edi+2]
  00240	f3 0f 2a c0	 cvtsi2ss xmm0, eax
  00244	8b 45 08	 mov	 eax, DWORD PTR _iXPos$[ebp]
  00247	51		 push	 ecx
  00248	51		 push	 ecx
  00249	8b 8e a0 01 00
	00		 mov	 ecx, DWORD PTR [esi+416]
  0024f	f3 0f 11 44 24
	04		 movss	 DWORD PTR [esp+4], xmm0
  00255	83 c0 11	 add	 eax, 17			; 00000011H
  00258	0f 57 c0	 xorps	 xmm0, xmm0
  0025b	f3 0f 2a c0	 cvtsi2ss xmm0, eax
  0025f	f3 0f 11 04 24	 movss	 DWORD PTR [esp], xmm0
  00264	ff 15 00 00 00
	00		 call	 DWORD PTR __imp_?RenderWidthCut@ioUIRenderImage@@QAEXMMHHW4UIRenderType@@W4TextureFilterOption@@0@Z
$LN11@OnBlueRend:

; 947  : 	}
; 948  : 
; 949  : 	//Key
; 950  : 	if( IsTarget( rkInfo.m_szName ) && m_pTargetMark )

  0026a	ff b5 f8 fe ff
	ff		 push	 DWORD PTR _rkInfo$GSCopy$[ebp]
  00270	8b ce		 mov	 ecx, esi
  00272	e8 00 00 00 00	 call	 ?IsTarget@ioObserverBlueWnd@@IAE_NABVioHashString@@@Z ; ioObserverBlueWnd::IsTarget
  00277	84 c0		 test	 al, al
  00279	0f 84 94 00 00
	00		 je	 $LN10@OnBlueRend
  0027f	8b 8e b8 01 00
	00		 mov	 ecx, DWORD PTR [esi+440]
  00285	3b cb		 cmp	 ecx, ebx
  00287	0f 84 86 00 00
	00		 je	 $LN10@OnBlueRend

; 951  : 	{
; 952  : 		m_pTargetMark->SetReverseFormatting( ioUIRenderImage::RF_NONE_REVERSE );

  0028d	53		 push	 ebx
  0028e	ff 15 00 00 00
	00		 call	 DWORD PTR __imp_?SetReverseFormatting@ioUIRenderImage@@QAEXW4ReverseFormatting@1@@Z

; 953  : 		m_pTargetMark->Render( iXPos+4, iYPos+8 );

  00294	8b 8e b8 01 00
	00		 mov	 ecx, DWORD PTR [esi+440]
  0029a	53		 push	 ebx
  0029b	53		 push	 ebx
  0029c	53		 push	 ebx
  0029d	8d 47 08	 lea	 eax, DWORD PTR [edi+8]
  002a0	0f 57 c0	 xorps	 xmm0, xmm0
  002a3	f3 0f 2a c0	 cvtsi2ss xmm0, eax
  002a7	8b 45 08	 mov	 eax, DWORD PTR _iXPos$[ebp]
  002aa	53		 push	 ebx
  002ab	83 c0 04	 add	 eax, 4
  002ae	51		 push	 ecx
  002af	51		 push	 ecx
  002b0	0f 57 c9	 xorps	 xmm1, xmm1
  002b3	f3 0f 2a c8	 cvtsi2ss xmm1, eax
  002b7	8b 01		 mov	 eax, DWORD PTR [ecx]
  002b9	f3 0f 11 44 24
	04		 movss	 DWORD PTR [esp+4], xmm0
  002bf	f3 0f 11 85 fc
	fe ff ff	 movss	 DWORD PTR tv619[ebp], xmm0
  002c7	f3 0f 11 8d f4
	fe ff ff	 movss	 DWORD PTR tv621[ebp], xmm1
  002cf	f3 0f 11 0c 24	 movss	 DWORD PTR [esp], xmm1
  002d4	ff 10		 call	 DWORD PTR [eax]

; 954  : 
; 955  : 		if( m_bCheckMark )

  002d6	38 9e c0 01 00
	00		 cmp	 BYTE PTR [esi+448], bl
  002dc	0f 84 c6 00 00
	00		 je	 $LN6@OnBlueRend

; 956  : 			m_pTargetMark->Render( iXPos+4, iYPos+8, UI_RENDER_SCREEN );

  002e2	8b 8e b8 01 00
	00		 mov	 ecx, DWORD PTR [esi+440]
  002e8	f3 0f 10 85 fc
	fe ff ff	 movss	 xmm0, DWORD PTR tv619[ebp]
  002f0	8b 01		 mov	 eax, DWORD PTR [ecx]
  002f2	53		 push	 ebx
  002f3	53		 push	 ebx
  002f4	53		 push	 ebx
  002f5	6a 01		 push	 1
  002f7	51		 push	 ecx
  002f8	51		 push	 ecx
  002f9	f3 0f 11 44 24
	04		 movss	 DWORD PTR [esp+4], xmm0
  002ff	f3 0f 10 85 f4
	fe ff ff	 movss	 xmm0, DWORD PTR tv621[ebp]
  00307	f3 0f 11 04 24	 movss	 DWORD PTR [esp], xmm0
  0030c	ff 10		 call	 DWORD PTR [eax]

; 957  : 	}
; 958  : 	else

  0030e	e9 95 00 00 00	 jmp	 $LN6@OnBlueRend
$LN10@OnBlueRend:

; 959  : 	{
; 960  : 		int iNum = iSlot+1;

  00313	8b 45 10	 mov	 eax, DWORD PTR _iSlot$[ebp]

; 961  : 
; 962  : 		if( IsDieChar( rkInfo.m_szName ) )

  00316	ff b5 f8 fe ff
	ff		 push	 DWORD PTR _rkInfo$GSCopy$[ebp]
  0031c	40		 inc	 eax
  0031d	8b ce		 mov	 ecx, esi
  0031f	89 85 fc fe ff
	ff		 mov	 DWORD PTR _iNum$532571[ebp], eax
  00325	e8 00 00 00 00	 call	 ?IsDieChar@ioObserverBlueWnd@@IAE_NABVioHashString@@@Z ; ioObserverBlueWnd::IsDieChar
  0032a	84 c0		 test	 al, al
  0032c	74 28		 je	 SHORT $LN7@OnBlueRend

; 963  : 			m_pBlueNumKey->RenderNum( iXPos+KEY_XPOS, iYPos+KEY_YPOS, iNum, 0.0f, FLOAT1, UI_RENDER_GRAY );

  0032e	b8 01 00 00 00	 mov	 eax, 1
  00333	53		 push	 ebx
  00334	53		 push	 ebx
  00335	53		 push	 ebx
  00336	89 85 f4 fe ff
	ff		 mov	 DWORD PTR tv622[ebp], eax
  0033c	db 85 f4 fe ff
	ff		 fild	 DWORD PTR tv622[ebp]
  00342	6a 02		 push	 2
  00344	85 c0		 test	 eax, eax
  00346	79 06		 jns	 SHORT $LN49@OnBlueRend
  00348	d8 05 00 00 00
	00		 fadd	 DWORD PTR __real@4f800000
$LN49@OnBlueRend:
  0034e	51		 push	 ecx
  0034f	51		 push	 ecx
  00350	d9 5c 24 04	 fstp	 DWORD PTR [esp+4]

; 964  : 		else

  00354	eb 14		 jmp	 SHORT $LN52@OnBlueRend
$LN7@OnBlueRend:

; 965  : 			m_pBlueNumKey->RenderNum( iXPos+KEY_XPOS, iYPos+KEY_YPOS, iNum );

  00356	f3 0f 10 05 00
	00 00 00	 movss	 xmm0, DWORD PTR __real@3f800000
  0035e	53		 push	 ebx
  0035f	53		 push	 ebx
  00360	53		 push	 ebx
  00361	53		 push	 ebx
  00362	51		 push	 ecx
  00363	51		 push	 ecx
  00364	f3 0f 11 44 24
	04		 movss	 DWORD PTR [esp+4], xmm0
$LN52@OnBlueRend:
  0036a	0f 57 c0	 xorps	 xmm0, xmm0
  0036d	f3 0f 11 04 24	 movss	 DWORD PTR [esp], xmm0
  00372	ff b5 fc fe ff
	ff		 push	 DWORD PTR _iNum$532571[ebp]
  00378	0f 57 c0	 xorps	 xmm0, xmm0
  0037b	51		 push	 ecx
  0037c	8d 47 0c	 lea	 eax, DWORD PTR [edi+12]
  0037f	f3 0f 2a c0	 cvtsi2ss xmm0, eax
  00383	8b 45 08	 mov	 eax, DWORD PTR _iXPos$[ebp]
  00386	51		 push	 ecx
  00387	8b 8e b0 01 00
	00		 mov	 ecx, DWORD PTR [esi+432]
  0038d	f3 0f 11 44 24
	04		 movss	 DWORD PTR [esp+4], xmm0
  00393	83 c0 05	 add	 eax, 5
  00396	0f 57 c0	 xorps	 xmm0, xmm0
  00399	f3 0f 2a c0	 cvtsi2ss xmm0, eax
  0039d	f3 0f 11 04 24	 movss	 DWORD PTR [esp], xmm0
  003a2	ff 15 00 00 00
	00		 call	 DWORD PTR __imp_?RenderNum@ioUIRenderImage@@QAEXMMHMMW4UIRenderType@@W4TextureFilterOption@@0W4RenerNumerFormatting@1@@Z
$LN6@OnBlueRend:

; 966  : 	}
; 967  : 
; 968  : 	// Guild Mark
; 969  : 	if( m_pGuildBack )

  003a8	39 9e 94 01 00
	00		 cmp	 DWORD PTR [esi+404], ebx
  003ae	74 61		 je	 SHORT $LN5@OnBlueRend

; 970  : 	{
; 971  : 		m_pGuildBack->SetSize( 23, 23 );

  003b0	8b 8e 94 01 00
	00		 mov	 ecx, DWORD PTR [esi+404]
  003b6	8b 01		 mov	 eax, DWORD PTR [ecx]
  003b8	6a 17		 push	 23			; 00000017H
  003ba	6a 17		 push	 23			; 00000017H
  003bc	ff 50 10	 call	 DWORD PTR [eax+16]

; 972  : 		m_pGuildBack->SetHorzFormatting( ioUIRenderImage::HF_STRETCH );

  003bf	8b 8e 94 01 00
	00		 mov	 ecx, DWORD PTR [esi+404]
  003c5	6a 03		 push	 3
  003c7	ff 15 00 00 00
	00		 call	 DWORD PTR __imp_?SetHorzFormatting@ioUIRenderImage@@QAEXW4HorzFormatting@1@@Z

; 973  : 		m_pGuildBack->SetVertFormatting( ioUIRenderImage::VF_STRETCH );

  003cd	8b 8e 94 01 00
	00		 mov	 ecx, DWORD PTR [esi+404]
  003d3	6a 03		 push	 3
  003d5	ff 15 00 00 00
	00		 call	 DWORD PTR __imp_?SetVertFormatting@ioUIRenderImage@@QAEXW4VertFormatting@1@@Z

; 974  : 		m_pGuildBack->Render( iXPos + 133, iYPos + 4, UI_RENDER_MULTIPLY );

  003db	8b 8e 94 01 00
	00		 mov	 ecx, DWORD PTR [esi+404]
  003e1	8b 01		 mov	 eax, DWORD PTR [ecx]
  003e3	53		 push	 ebx
  003e4	53		 push	 ebx
  003e5	53		 push	 ebx
  003e6	6a 08		 push	 8
  003e8	0f 57 c0	 xorps	 xmm0, xmm0
  003eb	8d 57 04	 lea	 edx, DWORD PTR [edi+4]
  003ee	f3 0f 2a c2	 cvtsi2ss xmm0, edx
  003f2	8b 55 08	 mov	 edx, DWORD PTR _iXPos$[ebp]
  003f5	51		 push	 ecx
  003f6	51		 push	 ecx
  003f7	f3 0f 11 44 24
	04		 movss	 DWORD PTR [esp+4], xmm0
  003fd	81 c2 85 00 00
	00		 add	 edx, 133		; 00000085H
  00403	0f 57 c0	 xorps	 xmm0, xmm0
  00406	f3 0f 2a c2	 cvtsi2ss xmm0, edx
  0040a	f3 0f 11 04 24	 movss	 DWORD PTR [esp], xmm0
  0040f	ff 10		 call	 DWORD PTR [eax]
$LN5@OnBlueRend:

; 975  : 	}
; 976  : 
; 977  : 	if( IsDieChar( rkInfo.m_szName ) )

  00411	ff b5 f8 fe ff
	ff		 push	 DWORD PTR _rkInfo$GSCopy$[ebp]
  00417	8b ce		 mov	 ecx, esi
  00419	e8 00 00 00 00	 call	 ?IsDieChar@ioObserverBlueWnd@@IAE_NABVioHashString@@@Z ; ioObserverBlueWnd::IsDieChar
  0041e	84 c0		 test	 al, al

; 978  : 		g_GuildMarkMgr.RenderMarkSize( 21, 21, rkInfo.m_dwGuildIndex, rkInfo.m_dwGuildMark, iXPos+MARK_XPOS, iYPos+MARK_YPOS, UI_RENDER_GRAY );

  00420	8d 47 05	 lea	 eax, DWORD PTR [edi+5]
  00423	0f 57 c0	 xorps	 xmm0, xmm0
  00426	f3 0f 2a c0	 cvtsi2ss xmm0, eax
  0042a	8b 45 08	 mov	 eax, DWORD PTR _iXPos$[ebp]
  0042d	74 04		 je	 SHORT $LN4@OnBlueRend
  0042f	6a 02		 push	 2

; 979  : 	else

  00431	eb 01		 jmp	 SHORT $LN53@OnBlueRend
$LN4@OnBlueRend:

; 980  : 		g_GuildMarkMgr.RenderMarkSize( 21, 21, rkInfo.m_dwGuildIndex, rkInfo.m_dwGuildMark, iXPos+MARK_XPOS, iYPos+MARK_YPOS );

  00433	53		 push	 ebx
$LN53@OnBlueRend:
  00434	51		 push	 ecx
  00435	51		 push	 ecx
  00436	f3 0f 11 44 24
	04		 movss	 DWORD PTR [esp+4], xmm0
  0043c	05 86 00 00 00	 add	 eax, 134		; 00000086H
  00441	0f 57 c0	 xorps	 xmm0, xmm0
  00444	f3 0f 2a c0	 cvtsi2ss xmm0, eax
  00448	8b 85 f8 fe ff
	ff		 mov	 eax, DWORD PTR _rkInfo$GSCopy$[ebp]
  0044e	f3 0f 11 04 24	 movss	 DWORD PTR [esp], xmm0
  00453	ff 70 5c	 push	 DWORD PTR [eax+92]
  00456	ff 70 58	 push	 DWORD PTR [eax+88]
  00459	6a 15		 push	 21			; 00000015H
  0045b	6a 15		 push	 21			; 00000015H
  0045d	e8 00 00 00 00	 call	 ?GetSingleton@ioGuildMarkMgr@@SAAAV1@XZ ; ioGuildMarkMgr::GetSingleton
  00462	8b c8		 mov	 ecx, eax
  00464	e8 00 00 00 00	 call	 ?RenderMarkSize@ioGuildMarkMgr@@QAEXHHKKMMW4UIRenderType@@@Z ; ioGuildMarkMgr::RenderMarkSize

; 981  : 
; 982  : 
; 983  : 	//Name
; 984  : 	g_FontMgr.SetAlignType( TAT_CENTER );

  00469	6a 01		 push	 1
  0046b	ff 15 00 00 00
	00		 call	 DWORD PTR __imp_?GetSingleton@ioFontManager@@SAAAV1@XZ
  00471	8b c8		 mov	 ecx, eax
  00473	ff 15 00 00 00
	00		 call	 DWORD PTR __imp_?SetAlignType@ioFontManager@@QAEXW4TextAlignType@@@Z

; 985  : 	g_FontMgr.SetBkColor( 0, 0, 0 );

  00479	53		 push	 ebx
  0047a	53		 push	 ebx
  0047b	53		 push	 ebx
  0047c	ff 15 00 00 00
	00		 call	 DWORD PTR __imp_?GetSingleton@ioFontManager@@SAAAV1@XZ
  00482	8b c8		 mov	 ecx, eax
  00484	ff 15 00 00 00
	00		 call	 DWORD PTR __imp_?SetBkColor@ioFontManager@@QAEXHHH@Z

; 986  : 
; 987  : 	if( IsDieChar( rkInfo.m_szName ) )

  0048a	ff b5 f8 fe ff
	ff		 push	 DWORD PTR _rkInfo$GSCopy$[ebp]
  00490	8b ce		 mov	 ecx, esi
  00492	e8 00 00 00 00	 call	 ?IsDieChar@ioObserverBlueWnd@@IAE_NABVioHashString@@@Z ; ioObserverBlueWnd::IsDieChar
  00497	84 c0		 test	 al, al
  00499	74 07		 je	 SHORT $LN2@OnBlueRend

; 988  : 		g_FontMgr.SetTextColor( TCT_DEFAULT_GRAY2 );

  0049b	68 80 80 80 ff	 push	 -8355712		; ff808080H

; 989  : 	else

  004a0	eb 02		 jmp	 SHORT $LN54@OnBlueRend
$LN2@OnBlueRend:

; 990  : 		g_FontMgr.SetTextColor( TCT_DEFAULT_WHITE );

  004a2	6a ff		 push	 -1
$LN54@OnBlueRend:
  004a4	ff 15 00 00 00
	00		 call	 DWORD PTR __imp_?GetSingleton@ioFontManager@@SAAAV1@XZ
  004aa	8b c8		 mov	 ecx, eax
  004ac	ff 15 00 00 00
	00		 call	 DWORD PTR __imp_?SetTextColor@ioFontManager@@QAEXK@Z

; 991  : 
; 992  : 	g_FontMgr.SetTextStyle( TS_OUTLINE_FULL_2X );

  004b2	6a 05		 push	 5
  004b4	ff 15 00 00 00
	00		 call	 DWORD PTR __imp_?GetSingleton@ioFontManager@@SAAAV1@XZ
  004ba	8b c8		 mov	 ecx, eax
  004bc	ff 15 00 00 00
	00		 call	 DWORD PTR __imp_?SetTextStyle@ioFontManager@@QAEXW4TextStyle@@@Z

; 993  : 	g_FontMgr.PrintTextWidthCut( iXPos+NAME_XPOS, iYPos+NAME_YPOS, FONT_SIZE_15, 111.0f, rkInfo.m_szName.c_str() );

  004c2	8b 8d f8 fe ff
	ff		 mov	 ecx, DWORD PTR _rkInfo$GSCopy$[ebp]
  004c8	ff 15 00 00 00
	00		 call	 DWORD PTR __imp_?c_str@ioHashString@@QBEPBDXZ
  004ce	f3 0f 10 05 00
	00 00 00	 movss	 xmm0, DWORD PTR __real@42de0000
  004d6	50		 push	 eax
  004d7	8b 45 08	 mov	 eax, DWORD PTR _iXPos$[ebp]
  004da	83 ec 10	 sub	 esp, 16			; 00000010H
  004dd	f3 0f 11 44 24
	0c		 movss	 DWORD PTR [esp+12], xmm0
  004e3	f3 0f 10 05 00
	00 00 00	 movss	 xmm0, DWORD PTR __real@3f400000
  004eb	f3 0f 11 44 24
	08		 movss	 DWORD PTR [esp+8], xmm0
  004f1	0f 57 c0	 xorps	 xmm0, xmm0
  004f4	83 c7 04	 add	 edi, 4
  004f7	f3 0f 2a c7	 cvtsi2ss xmm0, edi
  004fb	f3 0f 11 44 24
	04		 movss	 DWORD PTR [esp+4], xmm0
  00501	83 c0 49	 add	 eax, 73			; 00000049H
  00504	0f 57 c0	 xorps	 xmm0, xmm0
  00507	f3 0f 2a c0	 cvtsi2ss xmm0, eax
  0050b	f3 0f 11 04 24	 movss	 DWORD PTR [esp], xmm0
  00510	ff 15 00 00 00
	00		 call	 DWORD PTR __imp_?GetSingleton@ioFontManager@@SAAAV1@XZ
  00516	50		 push	 eax
  00517	ff 15 00 00 00
	00		 call	 DWORD PTR __imp_?PrintTextWidthCut@ioFontManager@@QAAXMMMMPBDZZ

; 994  : 
; 995  : 	//Add
; 996  : 	m_pAddGauge->Render( iXPos, iYPos, UI_RENDER_ADD );

  0051d	8b 8e ac 01 00
	00		 mov	 ecx, DWORD PTR [esi+428]
  00523	f3 0f 10 85 ec
	fe ff ff	 movss	 xmm0, DWORD PTR tv568[ebp]
  0052b	8b 01		 mov	 eax, DWORD PTR [ecx]
  0052d	83 c4 18	 add	 esp, 24			; 00000018H
  00530	53		 push	 ebx
  00531	53		 push	 ebx
  00532	53		 push	 ebx
  00533	6a 03		 push	 3
  00535	51		 push	 ecx
  00536	51		 push	 ecx
  00537	f3 0f 11 44 24
	04		 movss	 DWORD PTR [esp+4], xmm0
  0053d	f3 0f 10 85 f0
	fe ff ff	 movss	 xmm0, DWORD PTR tv569[ebp]
  00545	f3 0f 11 04 24	 movss	 DWORD PTR [esp], xmm0
  0054a	ff 10		 call	 DWORD PTR [eax]
$LN13@OnBlueRend:

; 997  : 
; 998  : 	//Contribute
; 999  : 	/*
; 1000 : 	//g_FontMgr.SetTextStyle( TS_OUTLINE_FULL_2X );
; 1001 : 	//g_FontMgr.PrintText( iXPos+CONT_XPOS, iYPos+2, FONT_SIZE_13, STR(1), rkInfo.m_iContributePer );
; 1002 : 	*/
; 1003 : }

  0054c	e8 00 00 00 00	 call	 __EH_epilog3_GS
  00551	c2 10 00	 ret	 16			; 00000010H
_TEXT	ENDS
;	COMDAT text$x
text$x	SEGMENT
__unwindfunclet$?OnBlueRender@ioObserverBlueWnd@@IAEXHHHABURoundInfo@@@Z$0:
  00000	8d 8d 00 ff ff
	ff		 lea	 ecx, DWORD PTR _rkHP$541586[ebp]
  00006	e9 00 00 00 00	 jmp	 ??1StatusValue@@QAE@XZ
__ehhandler$?OnBlueRender@ioObserverBlueWnd@@IAEXHHHABURoundInfo@@@Z:
  0000b	8b 54 24 08	 mov	 edx, DWORD PTR [esp+8]
  0000f	8d 42 0c	 lea	 eax, DWORD PTR [edx+12]
  00012	8b 8a e8 fe ff
	ff		 mov	 ecx, DWORD PTR [edx-280]
  00018	33 c8		 xor	 ecx, eax
  0001a	e8 00 00 00 00	 call	 @__security_check_cookie@4
  0001f	8b 4a fc	 mov	 ecx, DWORD PTR [edx-4]
  00022	33 c8		 xor	 ecx, eax
  00024	e8 00 00 00 00	 call	 @__security_check_cookie@4
  00029	b8 00 00 00 00	 mov	 eax, OFFSET __ehfuncinfo$?OnBlueRender@ioObserverBlueWnd@@IAEXHHHABURoundInfo@@@Z
  0002e	e9 00 00 00 00	 jmp	 ___CxxFrameHandler3
text$x	ENDS
?OnBlueRender@ioObserverBlueWnd@@IAEXHHHABURoundInfo@@@Z ENDP ; ioObserverBlueWnd::OnBlueRender
PUBLIC	_rkInfo$GSCopy$
PUBLIC	?OnOtherRender@ioObserverBlueWnd@@IAEXHHHABURoundInfo@@@Z ; ioObserverBlueWnd::OnOtherRender
;	COMDAT xdata$x
; File d:\lost saga for developer\youtube\tutorial\source\src\lsclient\stdafx.h
xdata$x	SEGMENT
__unwindtable$?OnOtherRender@ioObserverBlueWnd@@IAEXHHHABURoundInfo@@@Z DD 0ffffffffH
	DD	FLAT:__unwindfunclet$?OnOtherRender@ioObserverBlueWnd@@IAEXHHHABURoundInfo@@@Z$0
__ehfuncinfo$?OnOtherRender@ioObserverBlueWnd@@IAEXHHHABURoundInfo@@@Z DD 019930522H
	DD	01H
	DD	FLAT:__unwindtable$?OnOtherRender@ioObserverBlueWnd@@IAEXHHHABURoundInfo@@@Z
	DD	2 DUP(00H)
	DD	2 DUP(00H)
	DD	00H
	DD	01H
; Function compile flags: /Ogsp
; File d:\lost saga for developer\youtube\tutorial\source\src\lsclient\gui\ioobserverwnd.cpp
xdata$x	ENDS
;	COMDAT ?OnOtherRender@ioObserverBlueWnd@@IAEXHHHABURoundInfo@@@Z
_TEXT	SEGMENT
tv568 = -276						; size = 4
tv569 = -272						; size = 4
tv662 = -268						; size = 4
tv657 = -268						; size = 4
tv619 = -268						; size = 4
tv618 = -268						; size = 4
_rkInfo$GSCopy$ = -264					; size = 4
tv616 = -260						; size = 4
$T541708 = -260						; size = 4
$T541707 = -260						; size = 4
_iNum$532609 = -260					; size = 4
_iEnd$532604 = -260					; size = 4
_fHPRate$532602 = -260					; size = 4
_rkHP$541700 = -256					; size = 240
__$EHRec$ = -12						; size = 12
_iXPos$ = 8						; size = 4
_iYPos$ = 12						; size = 4
_iSlot$ = 16						; size = 4
_rkInfo$ = 20						; size = 4
?OnOtherRender@ioObserverBlueWnd@@IAEXHHHABURoundInfo@@@Z PROC ; ioObserverBlueWnd::OnOtherRender, COMDAT
; _this$ = ecx

; 1006 : {

  00000	68 08 01 00 00	 push	 264			; 00000108H
  00005	b8 00 00 00 00	 mov	 eax, __ehhandler$?OnOtherRender@ioObserverBlueWnd@@IAEXHHHABURoundInfo@@@Z
  0000a	e8 00 00 00 00	 call	 __EH_prolog3_GS
  0000f	8b 45 14	 mov	 eax, DWORD PTR _rkInfo$[ebp]
  00012	8b f1		 mov	 esi, ecx

; 1007 : 	if( !m_pRedBack || !m_pRedGauge || !m_pBlueDead || !m_pAddGauge || !m_pRedNumKey )

  00014	8b 8e 9c 01 00
	00		 mov	 ecx, DWORD PTR [esi+412]
  0001a	33 db		 xor	 ebx, ebx

; 1085 : 
; 1086 : 
; 1087 : 	g_FontMgr.SetTextStyle( TS_OUTLINE_FULL_2X );

  0001c	89 85 f8 fe ff
	ff		 mov	 DWORD PTR _rkInfo$GSCopy$[ebp], eax
  00022	3b cb		 cmp	 ecx, ebx
  00024	0f 84 5f 05 00
	00		 je	 $LN13@OnOtherRen

; 1007 : 	if( !m_pRedBack || !m_pRedGauge || !m_pBlueDead || !m_pAddGauge || !m_pRedNumKey )

  0002a	39 9e a4 01 00
	00		 cmp	 DWORD PTR [esi+420], ebx
  00030	0f 84 53 05 00
	00		 je	 $LN13@OnOtherRen
  00036	39 9e a8 01 00
	00		 cmp	 DWORD PTR [esi+424], ebx
  0003c	0f 84 47 05 00
	00		 je	 $LN13@OnOtherRen
  00042	39 9e ac 01 00
	00		 cmp	 DWORD PTR [esi+428], ebx
  00048	0f 84 3b 05 00
	00		 je	 $LN13@OnOtherRen
  0004e	39 9e b4 01 00
	00		 cmp	 DWORD PTR [esi+436], ebx
  00054	0f 84 2f 05 00
	00		 je	 $LN13@OnOtherRen

; 1008 : 		return;
; 1009 : 
; 1010 : 	enum
; 1011 : 	{
; 1012 : 		MARK_XPOS	= 134,
; 1013 : 		MARK_YPOS	= 5,
; 1014 : 		GAUGE_XPOS	= 17,
; 1015 : 		GAUGE_YPOS	= 2,
; 1016 : 		NAME_XPOS	= 73,
; 1017 : 		NAME_YPOS	= 4,
; 1018 : 		KEY_XPOS	= 5,
; 1019 : 		KEY_YPOS	= 12,
; 1020 : 	};
; 1021 : 
; 1022 : 	//Back
; 1023 : 	m_pRedBack->SetReverseFormatting( ioUIRenderImage::RF_HORZ_REVERSE );

  0005a	6a 01		 push	 1
  0005c	ff 15 00 00 00
	00		 call	 DWORD PTR __imp_?SetReverseFormatting@ioUIRenderImage@@QAEXW4ReverseFormatting@1@@Z

; 1024 : 	m_pRedBack->Render( iXPos, iYPos );

  00062	8b 8e 9c 01 00
	00		 mov	 ecx, DWORD PTR [esi+412]
  00068	8b 7d 0c	 mov	 edi, DWORD PTR _iYPos$[ebp]
  0006b	66 0f 6e 4d 08	 movd	 xmm1, DWORD PTR _iXPos$[ebp]
  00070	8b 01		 mov	 eax, DWORD PTR [ecx]
  00072	53		 push	 ebx
  00073	53		 push	 ebx
  00074	53		 push	 ebx
  00075	53		 push	 ebx
  00076	51		 push	 ecx
  00077	51		 push	 ecx
  00078	0f 57 c0	 xorps	 xmm0, xmm0
  0007b	f3 0f 2a c7	 cvtsi2ss xmm0, edi
  0007f	0f 5b c9	 cvtdq2ps xmm1, xmm1
  00082	f3 0f 11 44 24
	04		 movss	 DWORD PTR [esp+4], xmm0
  00088	f3 0f 11 85 ec
	fe ff ff	 movss	 DWORD PTR tv568[ebp], xmm0
  00090	f3 0f 11 8d f0
	fe ff ff	 movss	 DWORD PTR tv569[ebp], xmm1
  00098	f3 0f 11 0c 24	 movss	 DWORD PTR [esp], xmm1
  0009d	ff 10		 call	 DWORD PTR [eax]

; 1025 : 	m_pRedBack->SetReverseFormatting( ioUIRenderImage::RF_NONE_REVERSE );

  0009f	8b 8e 9c 01 00
	00		 mov	 ecx, DWORD PTR [esi+412]
  000a5	53		 push	 ebx
  000a6	ff 15 00 00 00
	00		 call	 DWORD PTR __imp_?SetReverseFormatting@ioUIRenderImage@@QAEXW4ReverseFormatting@1@@Z

; 1026 : 
; 1027 : 	//Gauge or Dead
; 1028 : 	if( IsDieChar( rkInfo.m_szName ) )

  000ac	ff b5 f8 fe ff
	ff		 push	 DWORD PTR _rkInfo$GSCopy$[ebp]
  000b2	8b ce		 mov	 ecx, esi
  000b4	e8 00 00 00 00	 call	 ?IsDieChar@ioObserverBlueWnd@@IAE_NABVioHashString@@@Z ; ioObserverBlueWnd::IsDieChar
  000b9	84 c0		 test	 al, al
  000bb	74 37		 je	 SHORT $LN12@OnOtherRen

; 1029 : 	{
; 1030 : 		m_pBlueDead->Render( iXPos+GAUGE_XPOS, iYPos+GAUGE_YPOS );

  000bd	8b 8e a8 01 00
	00		 mov	 ecx, DWORD PTR [esi+424]
  000c3	8b 01		 mov	 eax, DWORD PTR [ecx]
  000c5	53		 push	 ebx
  000c6	53		 push	 ebx
  000c7	53		 push	 ebx
  000c8	53		 push	 ebx
  000c9	0f 57 c0	 xorps	 xmm0, xmm0
  000cc	8d 57 02	 lea	 edx, DWORD PTR [edi+2]
  000cf	f3 0f 2a c2	 cvtsi2ss xmm0, edx
  000d3	8b 55 08	 mov	 edx, DWORD PTR _iXPos$[ebp]
  000d6	51		 push	 ecx
  000d7	51		 push	 ecx
  000d8	f3 0f 11 44 24
	04		 movss	 DWORD PTR [esp+4], xmm0
  000de	83 c2 11	 add	 edx, 17			; 00000011H
  000e1	0f 57 c0	 xorps	 xmm0, xmm0
  000e4	f3 0f 2a c2	 cvtsi2ss xmm0, edx
  000e8	f3 0f 11 04 24	 movss	 DWORD PTR [esp], xmm0
  000ed	ff 10		 call	 DWORD PTR [eax]

; 1031 : 	}
; 1032 : 	else

  000ef	e9 b3 01 00 00	 jmp	 $LN11@OnOtherRen
$LN12@OnOtherRen:

; 1033 : 	{
; 1034 : 		float fHPRate = GetCurHPRate( rkInfo.m_szName );

  000f4	8b 8e 90 01 00
	00		 mov	 ecx, DWORD PTR [esi+400]
  000fa	3b cb		 cmp	 ecx, ebx
  000fc	75 26		 jne	 SHORT $LN19@OnOtherRen
  000fe	b8 01 00 00 00	 mov	 eax, 1
  00103	89 85 f4 fe ff
	ff		 mov	 DWORD PTR tv662[ebp], eax
  00109	db 85 f4 fe ff
	ff		 fild	 DWORD PTR tv662[ebp]
$LN51@OnOtherRen:
  0010f	85 c0		 test	 eax, eax
  00111	79 06		 jns	 SHORT $LN47@OnOtherRen
  00113	d8 05 00 00 00
	00		 fadd	 DWORD PTR __real@4f800000
$LN47@OnOtherRen:
  00119	d9 9d fc fe ff
	ff		 fstp	 DWORD PTR _fHPRate$532602[ebp]
  0011f	e9 ff 00 00 00	 jmp	 $LN20@OnOtherRen
$LN19@OnOtherRen:
  00124	ff b5 f8 fe ff
	ff		 push	 DWORD PTR _rkInfo$GSCopy$[ebp]
  0012a	e8 00 00 00 00	 call	 ?GetBaseChar@ioPlayStage@@QAEPAVioBaseChar@@ABVioHashString@@@Z ; ioPlayStage::GetBaseChar
  0012f	3b c3		 cmp	 eax, ebx
  00131	75 13		 jne	 SHORT $LN18@OnOtherRen
  00133	b8 01 00 00 00	 mov	 eax, 1
  00138	89 85 f4 fe ff
	ff		 mov	 DWORD PTR tv657[ebp], eax
  0013e	db 85 f4 fe ff
	ff		 fild	 DWORD PTR tv657[ebp]
  00144	eb c9		 jmp	 SHORT $LN51@OnOtherRen
$LN18@OnOtherRen:
  00146	05 c0 00 00 00	 add	 eax, 192		; 000000c0H
  0014b	50		 push	 eax
  0014c	8d 8d 00 ff ff
	ff		 lea	 ecx, DWORD PTR _rkHP$541700[ebp]
  00152	e8 00 00 00 00	 call	 ??0StatusValue@@QAE@ABU0@@Z
  00157	6a 04		 push	 4
  00159	8d 85 58 ff ff
	ff		 lea	 eax, DWORD PTR _rkHP$541700[ebp+88]
  0015f	50		 push	 eax
  00160	8d 85 4c ff ff
	ff		 lea	 eax, DWORD PTR _rkHP$541700[ebp+76]
  00166	50		 push	 eax
  00167	8d 8d 3c ff ff
	ff		 lea	 ecx, DWORD PTR _rkHP$541700[ebp+60]
  0016d	89 5d fc	 mov	 DWORD PTR __$EHRec$[ebp+8], ebx
  00170	e8 00 00 00 00	 call	 ?DecryptByte@ccddaabb@@QBEXPBDPADH@Z ; ccddaabb::DecryptByte
  00175	0f 57 c0	 xorps	 xmm0, xmm0
  00178	0f 2f 85 58 ff
	ff ff		 comiss	 xmm0, DWORD PTR _rkHP$541700[ebp+88]
  0017f	72 17		 jb	 SHORT $LN17@OnOtherRen
  00181	83 4d fc ff	 or	 DWORD PTR __$EHRec$[ebp+8], -1
  00185	8d 8d 00 ff ff
	ff		 lea	 ecx, DWORD PTR _rkHP$541700[ebp]
  0018b	e8 00 00 00 00	 call	 ??1StatusValue@@QAE@XZ
  00190	0f 57 c0	 xorps	 xmm0, xmm0
  00193	e9 83 00 00 00	 jmp	 $LN50@OnOtherRen
$LN17@OnOtherRen:
  00198	6a 04		 push	 4
  0019a	8d 85 58 ff ff
	ff		 lea	 eax, DWORD PTR _rkHP$541700[ebp+88]
  001a0	50		 push	 eax
  001a1	8d 85 4c ff ff
	ff		 lea	 eax, DWORD PTR _rkHP$541700[ebp+76]
  001a7	50		 push	 eax
  001a8	8d 8d 3c ff ff
	ff		 lea	 ecx, DWORD PTR _rkHP$541700[ebp+60]
  001ae	e8 00 00 00 00	 call	 ?DecryptByte@ccddaabb@@QBEXPBDPADH@Z ; ccddaabb::DecryptByte
  001b3	f3 0f 10 85 58
	ff ff ff	 movss	 xmm0, DWORD PTR _rkHP$541700[ebp+88]
  001bb	6a 04		 push	 4
  001bd	8d 85 28 ff ff
	ff		 lea	 eax, DWORD PTR _rkHP$541700[ebp+40]
  001c3	50		 push	 eax
  001c4	8d 85 1c ff ff
	ff		 lea	 eax, DWORD PTR _rkHP$541700[ebp+28]
  001ca	50		 push	 eax
  001cb	8d 8d 0c ff ff
	ff		 lea	 ecx, DWORD PTR _rkHP$541700[ebp+12]
  001d1	f3 0f 11 85 fc
	fe ff ff	 movss	 DWORD PTR $T541707[ebp], xmm0
  001d9	e8 00 00 00 00	 call	 ?DecryptByte@ccddaabb@@QBEXPBDPADH@Z ; ccddaabb::DecryptByte
  001de	f3 0f 10 8d fc
	fe ff ff	 movss	 xmm1, DWORD PTR $T541707[ebp]
  001e6	f3 0f 10 85 28
	ff ff ff	 movss	 xmm0, DWORD PTR _rkHP$541700[ebp+40]
  001ee	83 4d fc ff	 or	 DWORD PTR __$EHRec$[ebp+8], -1
  001f2	0f 5a c0	 cvtps2pd xmm0, xmm0
  001f5	0f 5a c9	 cvtps2pd xmm1, xmm1
  001f8	f2 0f 5e c1	 divsd	 xmm0, xmm1
  001fc	66 0f 5a c0	 cvtpd2ps xmm0, xmm0
  00200	8d 8d 00 ff ff
	ff		 lea	 ecx, DWORD PTR _rkHP$541700[ebp]
  00206	f3 0f 11 85 fc
	fe ff ff	 movss	 DWORD PTR $T541708[ebp], xmm0
  0020e	e8 00 00 00 00	 call	 ??1StatusValue@@QAE@XZ
  00213	f3 0f 10 85 fc
	fe ff ff	 movss	 xmm0, DWORD PTR $T541708[ebp]
$LN50@OnOtherRen:
  0021b	f3 0f 11 85 fc
	fe ff ff	 movss	 DWORD PTR _fHPRate$532602[ebp], xmm0
$LN20@OnOtherRen:

; 1035 : 		int iSize = m_pRedGauge->GetWidth();

  00223	8b 8e a4 01 00
	00		 mov	 ecx, DWORD PTR [esi+420]
  00229	ff 15 00 00 00
	00		 call	 DWORD PTR __imp_?GetWidth@ioUIRenderElement@@QBEHXZ

; 1036 : 		int iEnd = (float)iSize * fHPRate;

  0022f	f3 0f 10 8d fc
	fe ff ff	 movss	 xmm1, DWORD PTR _fHPRate$532602[ebp]

; 1037 : 
; 1038 : 		m_pRedGauge->SetReverseFormatting( ioUIRenderImage::RF_HORZ_REVERSE );

  00237	8b 8e a4 01 00
	00		 mov	 ecx, DWORD PTR [esi+420]
  0023d	0f 57 c0	 xorps	 xmm0, xmm0
  00240	f3 0f 2a c0	 cvtsi2ss xmm0, eax
  00244	0f 5a c0	 cvtps2pd xmm0, xmm0
  00247	0f 5a c9	 cvtps2pd xmm1, xmm1
  0024a	f2 0f 59 c1	 mulsd	 xmm0, xmm1
  0024e	f2 0f 2c c0	 cvttsd2si eax, xmm0
  00252	6a 01		 push	 1
  00254	89 85 fc fe ff
	ff		 mov	 DWORD PTR _iEnd$532604[ebp], eax
  0025a	ff 15 00 00 00
	00		 call	 DWORD PTR __imp_?SetReverseFormatting@ioUIRenderImage@@QAEXW4ReverseFormatting@1@@Z

; 1039 : 		m_pRedGauge->RenderWidthCut( iXPos+GAUGE_XPOS, iYPos+GAUGE_YPOS, 0, iEnd );

  00260	53		 push	 ebx
  00261	53		 push	 ebx
  00262	53		 push	 ebx
  00263	ff b5 fc fe ff
	ff		 push	 DWORD PTR _iEnd$532604[ebp]
  00269	0f 57 c0	 xorps	 xmm0, xmm0
  0026c	53		 push	 ebx
  0026d	8d 47 02	 lea	 eax, DWORD PTR [edi+2]
  00270	f3 0f 2a c0	 cvtsi2ss xmm0, eax
  00274	8b 45 08	 mov	 eax, DWORD PTR _iXPos$[ebp]
  00277	51		 push	 ecx
  00278	51		 push	 ecx
  00279	8b 8e a4 01 00
	00		 mov	 ecx, DWORD PTR [esi+420]
  0027f	f3 0f 11 44 24
	04		 movss	 DWORD PTR [esp+4], xmm0
  00285	83 c0 11	 add	 eax, 17			; 00000011H
  00288	0f 57 c0	 xorps	 xmm0, xmm0
  0028b	f3 0f 2a c0	 cvtsi2ss xmm0, eax
  0028f	f3 0f 11 04 24	 movss	 DWORD PTR [esp], xmm0
  00294	ff 15 00 00 00
	00		 call	 DWORD PTR __imp_?RenderWidthCut@ioUIRenderImage@@QAEXMMHHW4UIRenderType@@W4TextureFilterOption@@0@Z

; 1040 : 		m_pRedGauge->SetReverseFormatting( ioUIRenderImage::RF_NONE_REVERSE );

  0029a	8b 8e a4 01 00
	00		 mov	 ecx, DWORD PTR [esi+420]
  002a0	53		 push	 ebx
  002a1	ff 15 00 00 00
	00		 call	 DWORD PTR __imp_?SetReverseFormatting@ioUIRenderImage@@QAEXW4ReverseFormatting@1@@Z
$LN11@OnOtherRen:

; 1041 : 	}
; 1042 : 
; 1043 : 	//Key
; 1044 : 	if( IsTarget( rkInfo.m_szName ) && m_pTargetMark )

  002a7	ff b5 f8 fe ff
	ff		 push	 DWORD PTR _rkInfo$GSCopy$[ebp]
  002ad	8b ce		 mov	 ecx, esi
  002af	e8 00 00 00 00	 call	 ?IsTarget@ioObserverBlueWnd@@IAE_NABVioHashString@@@Z ; ioObserverBlueWnd::IsTarget
  002b4	84 c0		 test	 al, al
  002b6	0f 84 94 00 00
	00		 je	 $LN10@OnOtherRen
  002bc	8b 8e b8 01 00
	00		 mov	 ecx, DWORD PTR [esi+440]
  002c2	3b cb		 cmp	 ecx, ebx
  002c4	0f 84 86 00 00
	00		 je	 $LN10@OnOtherRen

; 1045 : 	{
; 1046 : 		m_pTargetMark->SetReverseFormatting( ioUIRenderImage::RF_NONE_REVERSE );

  002ca	53		 push	 ebx
  002cb	ff 15 00 00 00
	00		 call	 DWORD PTR __imp_?SetReverseFormatting@ioUIRenderImage@@QAEXW4ReverseFormatting@1@@Z

; 1047 : 		m_pTargetMark->Render( iXPos+4, iYPos+8 );

  002d1	8b 8e b8 01 00
	00		 mov	 ecx, DWORD PTR [esi+440]
  002d7	53		 push	 ebx
  002d8	53		 push	 ebx
  002d9	53		 push	 ebx
  002da	8d 47 08	 lea	 eax, DWORD PTR [edi+8]
  002dd	0f 57 c0	 xorps	 xmm0, xmm0
  002e0	f3 0f 2a c0	 cvtsi2ss xmm0, eax
  002e4	8b 45 08	 mov	 eax, DWORD PTR _iXPos$[ebp]
  002e7	53		 push	 ebx
  002e8	83 c0 04	 add	 eax, 4
  002eb	51		 push	 ecx
  002ec	51		 push	 ecx
  002ed	0f 57 c9	 xorps	 xmm1, xmm1
  002f0	f3 0f 2a c8	 cvtsi2ss xmm1, eax
  002f4	8b 01		 mov	 eax, DWORD PTR [ecx]
  002f6	f3 0f 11 44 24
	04		 movss	 DWORD PTR [esp+4], xmm0
  002fc	f3 0f 11 85 fc
	fe ff ff	 movss	 DWORD PTR tv616[ebp], xmm0
  00304	f3 0f 11 8d f4
	fe ff ff	 movss	 DWORD PTR tv618[ebp], xmm1
  0030c	f3 0f 11 0c 24	 movss	 DWORD PTR [esp], xmm1
  00311	ff 10		 call	 DWORD PTR [eax]

; 1048 : 
; 1049 : 		if( m_bCheckMark )

  00313	38 9e c0 01 00
	00		 cmp	 BYTE PTR [esi+448], bl
  00319	0f 84 c6 00 00
	00		 je	 $LN6@OnOtherRen

; 1050 : 			m_pTargetMark->Render( iXPos+4, iYPos+8, UI_RENDER_SCREEN );

  0031f	8b 8e b8 01 00
	00		 mov	 ecx, DWORD PTR [esi+440]
  00325	f3 0f 10 85 fc
	fe ff ff	 movss	 xmm0, DWORD PTR tv616[ebp]
  0032d	8b 01		 mov	 eax, DWORD PTR [ecx]
  0032f	53		 push	 ebx
  00330	53		 push	 ebx
  00331	53		 push	 ebx
  00332	6a 01		 push	 1
  00334	51		 push	 ecx
  00335	51		 push	 ecx
  00336	f3 0f 11 44 24
	04		 movss	 DWORD PTR [esp+4], xmm0
  0033c	f3 0f 10 85 f4
	fe ff ff	 movss	 xmm0, DWORD PTR tv618[ebp]
  00344	f3 0f 11 04 24	 movss	 DWORD PTR [esp], xmm0
  00349	ff 10		 call	 DWORD PTR [eax]

; 1051 : 	}
; 1052 : 	else

  0034b	e9 95 00 00 00	 jmp	 $LN6@OnOtherRen
$LN10@OnOtherRen:

; 1053 : 	{
; 1054 : 		int iNum = iSlot+1;

  00350	8b 45 10	 mov	 eax, DWORD PTR _iSlot$[ebp]

; 1055 : 
; 1056 : 		if( IsDieChar( rkInfo.m_szName ) )

  00353	ff b5 f8 fe ff
	ff		 push	 DWORD PTR _rkInfo$GSCopy$[ebp]
  00359	40		 inc	 eax
  0035a	8b ce		 mov	 ecx, esi
  0035c	89 85 fc fe ff
	ff		 mov	 DWORD PTR _iNum$532609[ebp], eax
  00362	e8 00 00 00 00	 call	 ?IsDieChar@ioObserverBlueWnd@@IAE_NABVioHashString@@@Z ; ioObserverBlueWnd::IsDieChar
  00367	84 c0		 test	 al, al
  00369	74 28		 je	 SHORT $LN7@OnOtherRen

; 1057 : 			m_pRedNumKey->RenderNum( iXPos+KEY_XPOS, iYPos+KEY_YPOS, iNum, 0.0f, FLOAT1, UI_RENDER_GRAY );

  0036b	b8 01 00 00 00	 mov	 eax, 1
  00370	53		 push	 ebx
  00371	53		 push	 ebx
  00372	53		 push	 ebx
  00373	89 85 f4 fe ff
	ff		 mov	 DWORD PTR tv619[ebp], eax
  00379	db 85 f4 fe ff
	ff		 fild	 DWORD PTR tv619[ebp]
  0037f	6a 02		 push	 2
  00381	85 c0		 test	 eax, eax
  00383	79 06		 jns	 SHORT $LN49@OnOtherRen
  00385	d8 05 00 00 00
	00		 fadd	 DWORD PTR __real@4f800000
$LN49@OnOtherRen:
  0038b	51		 push	 ecx
  0038c	51		 push	 ecx
  0038d	d9 5c 24 04	 fstp	 DWORD PTR [esp+4]

; 1058 : 		else

  00391	eb 14		 jmp	 SHORT $LN52@OnOtherRen
$LN7@OnOtherRen:

; 1059 : 			m_pRedNumKey->RenderNum( iXPos+KEY_XPOS, iYPos+KEY_YPOS, iNum );

  00393	f3 0f 10 05 00
	00 00 00	 movss	 xmm0, DWORD PTR __real@3f800000
  0039b	53		 push	 ebx
  0039c	53		 push	 ebx
  0039d	53		 push	 ebx
  0039e	53		 push	 ebx
  0039f	51		 push	 ecx
  003a0	51		 push	 ecx
  003a1	f3 0f 11 44 24
	04		 movss	 DWORD PTR [esp+4], xmm0
$LN52@OnOtherRen:
  003a7	0f 57 c0	 xorps	 xmm0, xmm0
  003aa	f3 0f 11 04 24	 movss	 DWORD PTR [esp], xmm0
  003af	ff b5 fc fe ff
	ff		 push	 DWORD PTR _iNum$532609[ebp]
  003b5	0f 57 c0	 xorps	 xmm0, xmm0
  003b8	51		 push	 ecx
  003b9	8d 47 0c	 lea	 eax, DWORD PTR [edi+12]
  003bc	f3 0f 2a c0	 cvtsi2ss xmm0, eax
  003c0	8b 45 08	 mov	 eax, DWORD PTR _iXPos$[ebp]
  003c3	51		 push	 ecx
  003c4	8b 8e b4 01 00
	00		 mov	 ecx, DWORD PTR [esi+436]
  003ca	f3 0f 11 44 24
	04		 movss	 DWORD PTR [esp+4], xmm0
  003d0	83 c0 05	 add	 eax, 5
  003d3	0f 57 c0	 xorps	 xmm0, xmm0
  003d6	f3 0f 2a c0	 cvtsi2ss xmm0, eax
  003da	f3 0f 11 04 24	 movss	 DWORD PTR [esp], xmm0
  003df	ff 15 00 00 00
	00		 call	 DWORD PTR __imp_?RenderNum@ioUIRenderImage@@QAEXMMHMMW4UIRenderType@@W4TextureFilterOption@@0W4RenerNumerFormatting@1@@Z
$LN6@OnOtherRen:

; 1060 : 	}
; 1061 : 
; 1062 : 	// Guild Mark
; 1063 : 	if( m_pGuildBack )

  003e5	39 9e 94 01 00
	00		 cmp	 DWORD PTR [esi+404], ebx
  003eb	74 61		 je	 SHORT $LN5@OnOtherRen

; 1064 : 	{
; 1065 : 		m_pGuildBack->SetSize( 23, 23 );

  003ed	8b 8e 94 01 00
	00		 mov	 ecx, DWORD PTR [esi+404]
  003f3	8b 01		 mov	 eax, DWORD PTR [ecx]
  003f5	6a 17		 push	 23			; 00000017H
  003f7	6a 17		 push	 23			; 00000017H
  003f9	ff 50 10	 call	 DWORD PTR [eax+16]

; 1066 : 		m_pGuildBack->SetHorzFormatting( ioUIRenderImage::HF_STRETCH );

  003fc	8b 8e 94 01 00
	00		 mov	 ecx, DWORD PTR [esi+404]
  00402	6a 03		 push	 3
  00404	ff 15 00 00 00
	00		 call	 DWORD PTR __imp_?SetHorzFormatting@ioUIRenderImage@@QAEXW4HorzFormatting@1@@Z

; 1067 : 		m_pGuildBack->SetVertFormatting( ioUIRenderImage::VF_STRETCH );

  0040a	8b 8e 94 01 00
	00		 mov	 ecx, DWORD PTR [esi+404]
  00410	6a 03		 push	 3
  00412	ff 15 00 00 00
	00		 call	 DWORD PTR __imp_?SetVertFormatting@ioUIRenderImage@@QAEXW4VertFormatting@1@@Z

; 1068 : 		m_pGuildBack->Render( iXPos + 133, iYPos + 4, UI_RENDER_MULTIPLY );

  00418	8b 8e 94 01 00
	00		 mov	 ecx, DWORD PTR [esi+404]
  0041e	8b 01		 mov	 eax, DWORD PTR [ecx]
  00420	53		 push	 ebx
  00421	53		 push	 ebx
  00422	53		 push	 ebx
  00423	6a 08		 push	 8
  00425	0f 57 c0	 xorps	 xmm0, xmm0
  00428	8d 57 04	 lea	 edx, DWORD PTR [edi+4]
  0042b	f3 0f 2a c2	 cvtsi2ss xmm0, edx
  0042f	8b 55 08	 mov	 edx, DWORD PTR _iXPos$[ebp]
  00432	51		 push	 ecx
  00433	51		 push	 ecx
  00434	f3 0f 11 44 24
	04		 movss	 DWORD PTR [esp+4], xmm0
  0043a	81 c2 85 00 00
	00		 add	 edx, 133		; 00000085H
  00440	0f 57 c0	 xorps	 xmm0, xmm0
  00443	f3 0f 2a c2	 cvtsi2ss xmm0, edx
  00447	f3 0f 11 04 24	 movss	 DWORD PTR [esp], xmm0
  0044c	ff 10		 call	 DWORD PTR [eax]
$LN5@OnOtherRen:

; 1069 : 	}
; 1070 : 
; 1071 : 	if( IsDieChar( rkInfo.m_szName ) )

  0044e	ff b5 f8 fe ff
	ff		 push	 DWORD PTR _rkInfo$GSCopy$[ebp]
  00454	8b ce		 mov	 ecx, esi
  00456	e8 00 00 00 00	 call	 ?IsDieChar@ioObserverBlueWnd@@IAE_NABVioHashString@@@Z ; ioObserverBlueWnd::IsDieChar
  0045b	84 c0		 test	 al, al

; 1072 : 		g_GuildMarkMgr.RenderMarkSize( 21, 21, rkInfo.m_dwGuildIndex, rkInfo.m_dwGuildMark, iXPos+MARK_XPOS, iYPos+MARK_YPOS, UI_RENDER_GRAY );

  0045d	8d 47 05	 lea	 eax, DWORD PTR [edi+5]
  00460	0f 57 c0	 xorps	 xmm0, xmm0
  00463	f3 0f 2a c0	 cvtsi2ss xmm0, eax
  00467	8b 45 08	 mov	 eax, DWORD PTR _iXPos$[ebp]
  0046a	74 04		 je	 SHORT $LN4@OnOtherRen
  0046c	6a 02		 push	 2

; 1073 : 	else

  0046e	eb 01		 jmp	 SHORT $LN53@OnOtherRen
$LN4@OnOtherRen:

; 1074 : 		g_GuildMarkMgr.RenderMarkSize( 21, 21, rkInfo.m_dwGuildIndex, rkInfo.m_dwGuildMark, iXPos+MARK_XPOS, iYPos+MARK_YPOS );

  00470	53		 push	 ebx
$LN53@OnOtherRen:
  00471	51		 push	 ecx
  00472	51		 push	 ecx
  00473	f3 0f 11 44 24
	04		 movss	 DWORD PTR [esp+4], xmm0
  00479	05 86 00 00 00	 add	 eax, 134		; 00000086H
  0047e	0f 57 c0	 xorps	 xmm0, xmm0
  00481	f3 0f 2a c0	 cvtsi2ss xmm0, eax
  00485	8b 85 f8 fe ff
	ff		 mov	 eax, DWORD PTR _rkInfo$GSCopy$[ebp]
  0048b	f3 0f 11 04 24	 movss	 DWORD PTR [esp], xmm0
  00490	ff 70 5c	 push	 DWORD PTR [eax+92]
  00493	ff 70 58	 push	 DWORD PTR [eax+88]
  00496	6a 15		 push	 21			; 00000015H
  00498	6a 15		 push	 21			; 00000015H
  0049a	e8 00 00 00 00	 call	 ?GetSingleton@ioGuildMarkMgr@@SAAAV1@XZ ; ioGuildMarkMgr::GetSingleton
  0049f	8b c8		 mov	 ecx, eax
  004a1	e8 00 00 00 00	 call	 ?RenderMarkSize@ioGuildMarkMgr@@QAEXHHKKMMW4UIRenderType@@@Z ; ioGuildMarkMgr::RenderMarkSize

; 1075 : 
; 1076 : 
; 1077 : 	//Name
; 1078 : 	g_FontMgr.SetAlignType( TAT_CENTER );

  004a6	6a 01		 push	 1
  004a8	ff 15 00 00 00
	00		 call	 DWORD PTR __imp_?GetSingleton@ioFontManager@@SAAAV1@XZ
  004ae	8b c8		 mov	 ecx, eax
  004b0	ff 15 00 00 00
	00		 call	 DWORD PTR __imp_?SetAlignType@ioFontManager@@QAEXW4TextAlignType@@@Z

; 1079 : 	g_FontMgr.SetBkColor( 0, 0, 0 );

  004b6	53		 push	 ebx
  004b7	53		 push	 ebx
  004b8	53		 push	 ebx
  004b9	ff 15 00 00 00
	00		 call	 DWORD PTR __imp_?GetSingleton@ioFontManager@@SAAAV1@XZ
  004bf	8b c8		 mov	 ecx, eax
  004c1	ff 15 00 00 00
	00		 call	 DWORD PTR __imp_?SetBkColor@ioFontManager@@QAEXHHH@Z

; 1080 : 
; 1081 : 	if( IsDieChar( rkInfo.m_szName ) )

  004c7	ff b5 f8 fe ff
	ff		 push	 DWORD PTR _rkInfo$GSCopy$[ebp]
  004cd	8b ce		 mov	 ecx, esi
  004cf	e8 00 00 00 00	 call	 ?IsDieChar@ioObserverBlueWnd@@IAE_NABVioHashString@@@Z ; ioObserverBlueWnd::IsDieChar
  004d4	84 c0		 test	 al, al
  004d6	74 07		 je	 SHORT $LN2@OnOtherRen

; 1082 : 		g_FontMgr.SetTextColor( TCT_DEFAULT_GRAY2 );

  004d8	68 80 80 80 ff	 push	 -8355712		; ff808080H

; 1083 : 	else

  004dd	eb 02		 jmp	 SHORT $LN54@OnOtherRen
$LN2@OnOtherRen:

; 1084 : 		g_FontMgr.SetTextColor( TCT_DEFAULT_WHITE );

  004df	6a ff		 push	 -1
$LN54@OnOtherRen:
  004e1	ff 15 00 00 00
	00		 call	 DWORD PTR __imp_?GetSingleton@ioFontManager@@SAAAV1@XZ
  004e7	8b c8		 mov	 ecx, eax
  004e9	ff 15 00 00 00
	00		 call	 DWORD PTR __imp_?SetTextColor@ioFontManager@@QAEXK@Z

; 1085 : 
; 1086 : 
; 1087 : 	g_FontMgr.SetTextStyle( TS_OUTLINE_FULL_2X );

  004ef	6a 05		 push	 5
  004f1	ff 15 00 00 00
	00		 call	 DWORD PTR __imp_?GetSingleton@ioFontManager@@SAAAV1@XZ
  004f7	8b c8		 mov	 ecx, eax
  004f9	ff 15 00 00 00
	00		 call	 DWORD PTR __imp_?SetTextStyle@ioFontManager@@QAEXW4TextStyle@@@Z

; 1088 : 	g_FontMgr.PrintTextWidthCut( iXPos+NAME_XPOS, iYPos+NAME_YPOS, FONT_SIZE_15, 111.0f, rkInfo.m_szName.c_str() );

  004ff	8b 8d f8 fe ff
	ff		 mov	 ecx, DWORD PTR _rkInfo$GSCopy$[ebp]
  00505	ff 15 00 00 00
	00		 call	 DWORD PTR __imp_?c_str@ioHashString@@QBEPBDXZ
  0050b	f3 0f 10 05 00
	00 00 00	 movss	 xmm0, DWORD PTR __real@42de0000
  00513	50		 push	 eax
  00514	8b 45 08	 mov	 eax, DWORD PTR _iXPos$[ebp]
  00517	83 ec 10	 sub	 esp, 16			; 00000010H
  0051a	f3 0f 11 44 24
	0c		 movss	 DWORD PTR [esp+12], xmm0
  00520	f3 0f 10 05 00
	00 00 00	 movss	 xmm0, DWORD PTR __real@3f400000
  00528	f3 0f 11 44 24
	08		 movss	 DWORD PTR [esp+8], xmm0
  0052e	0f 57 c0	 xorps	 xmm0, xmm0
  00531	83 c7 04	 add	 edi, 4
  00534	f3 0f 2a c7	 cvtsi2ss xmm0, edi
  00538	f3 0f 11 44 24
	04		 movss	 DWORD PTR [esp+4], xmm0
  0053e	83 c0 49	 add	 eax, 73			; 00000049H
  00541	0f 57 c0	 xorps	 xmm0, xmm0
  00544	f3 0f 2a c0	 cvtsi2ss xmm0, eax
  00548	f3 0f 11 04 24	 movss	 DWORD PTR [esp], xmm0
  0054d	ff 15 00 00 00
	00		 call	 DWORD PTR __imp_?GetSingleton@ioFontManager@@SAAAV1@XZ
  00553	50		 push	 eax
  00554	ff 15 00 00 00
	00		 call	 DWORD PTR __imp_?PrintTextWidthCut@ioFontManager@@QAAXMMMMPBDZZ

; 1089 : 
; 1090 : 	//Add
; 1091 : 	m_pAddGauge->Render( iXPos, iYPos, UI_RENDER_ADD );

  0055a	8b 8e ac 01 00
	00		 mov	 ecx, DWORD PTR [esi+428]
  00560	f3 0f 10 85 ec
	fe ff ff	 movss	 xmm0, DWORD PTR tv568[ebp]
  00568	8b 01		 mov	 eax, DWORD PTR [ecx]
  0056a	83 c4 18	 add	 esp, 24			; 00000018H
  0056d	53		 push	 ebx
  0056e	53		 push	 ebx
  0056f	53		 push	 ebx
  00570	6a 03		 push	 3
  00572	51		 push	 ecx
  00573	51		 push	 ecx
  00574	f3 0f 11 44 24
	04		 movss	 DWORD PTR [esp+4], xmm0
  0057a	f3 0f 10 85 f0
	fe ff ff	 movss	 xmm0, DWORD PTR tv569[ebp]
  00582	f3 0f 11 04 24	 movss	 DWORD PTR [esp], xmm0
  00587	ff 10		 call	 DWORD PTR [eax]
$LN13@OnOtherRen:

; 1092 : 
; 1093 : 	//Contribute
; 1094 : 	/*
; 1095 : 	//g_FontMgr.SetTextStyle( TS_OUTLINE_FULL_2X );
; 1096 : 	//g_FontMgr.PrintText( iXPos+129, iYPos+2, FONT_SIZE_13, STR(1), rkInfo.m_iContributePer );
; 1097 : 	*/
; 1098 : }

  00589	e8 00 00 00 00	 call	 __EH_epilog3_GS
  0058e	c2 10 00	 ret	 16			; 00000010H
_TEXT	ENDS
;	COMDAT text$x
text$x	SEGMENT
__unwindfunclet$?OnOtherRender@ioObserverBlueWnd@@IAEXHHHABURoundInfo@@@Z$0:
  00000	8d 8d 00 ff ff
	ff		 lea	 ecx, DWORD PTR _rkHP$541700[ebp]
  00006	e9 00 00 00 00	 jmp	 ??1StatusValue@@QAE@XZ
__ehhandler$?OnOtherRender@ioObserverBlueWnd@@IAEXHHHABURoundInfo@@@Z:
  0000b	8b 54 24 08	 mov	 edx, DWORD PTR [esp+8]
  0000f	8d 42 0c	 lea	 eax, DWORD PTR [edx+12]
  00012	8b 8a e8 fe ff
	ff		 mov	 ecx, DWORD PTR [edx-280]
  00018	33 c8		 xor	 ecx, eax
  0001a	e8 00 00 00 00	 call	 @__security_check_cookie@4
  0001f	8b 4a fc	 mov	 ecx, DWORD PTR [edx-4]
  00022	33 c8		 xor	 ecx, eax
  00024	e8 00 00 00 00	 call	 @__security_check_cookie@4
  00029	b8 00 00 00 00	 mov	 eax, OFFSET __ehfuncinfo$?OnOtherRender@ioObserverBlueWnd@@IAEXHHHABURoundInfo@@@Z
  0002e	e9 00 00 00 00	 jmp	 ___CxxFrameHandler3
text$x	ENDS
?OnOtherRender@ioObserverBlueWnd@@IAEXHHHABURoundInfo@@@Z ENDP ; ioObserverBlueWnd::OnOtherRender
PUBLIC	??$_Destroy_range@V?$allocator@URoundInfo@@@std@@@std@@YAXPAURoundInfo@@0AAV?$allocator@URoundInfo@@@0@U_Nonscalar_ptr_iterator_tag@0@@Z ; std::_Destroy_range<std::allocator<RoundInfo> >
; Function compile flags: /Ogsp
; File c:\program files (x86)\microsoft visual studio 10.0\vc\include\xmemory
;	COMDAT ??$_Destroy_range@V?$allocator@URoundInfo@@@std@@@std@@YAXPAURoundInfo@@0AAV?$allocator@URoundInfo@@@0@U_Nonscalar_ptr_iterator_tag@0@@Z
_TEXT	SEGMENT
__First$ = 8						; size = 4
__Last$ = 12						; size = 4
__Al$ = 16						; size = 4
___formal$ = 20						; size = 1
??$_Destroy_range@V?$allocator@URoundInfo@@@std@@@std@@YAXPAURoundInfo@@0AAV?$allocator@URoundInfo@@@0@U_Nonscalar_ptr_iterator_tag@0@@Z PROC ; std::_Destroy_range<std::allocator<RoundInfo> >, COMDAT

; 95   : 	{	// destroy [_First, _Last), arbitrary type

  00000	55		 push	 ebp
  00001	8b ec		 mov	 ebp, esp
  00003	56		 push	 esi

; 96   : 	for (; _First != _Last; ++_First)

  00004	8b 75 08	 mov	 esi, DWORD PTR __First$[ebp]
  00007	eb 0a		 jmp	 SHORT $LN17@Destroy_ra
$LL3@Destroy_ra:

; 97   : 		_Dest_val(_Al, _First);

  00009	8b ce		 mov	 ecx, esi
  0000b	e8 00 00 00 00	 call	 ??1RoundInfo@@QAE@XZ
  00010	83 ee 80	 sub	 esi, -128		; ffffff80H
$LN17@Destroy_ra:

; 96   : 	for (; _First != _Last; ++_First)

  00013	3b 75 0c	 cmp	 esi, DWORD PTR __Last$[ebp]
  00016	75 f1		 jne	 SHORT $LL3@Destroy_ra
  00018	5e		 pop	 esi

; 98   : 	}

  00019	5d		 pop	 ebp
  0001a	c3		 ret	 0
??$_Destroy_range@V?$allocator@URoundInfo@@@std@@@std@@YAXPAURoundInfo@@0AAV?$allocator@URoundInfo@@@0@U_Nonscalar_ptr_iterator_tag@0@@Z ENDP ; std::_Destroy_range<std::allocator<RoundInfo> >
_TEXT	ENDS
PUBLIC	??$_Uninitialized_move@PAURoundInfo@@PAU1@V?$allocator@URoundInfo@@@std@@@std@@YAPAURoundInfo@@PAU1@00AAV?$allocator@URoundInfo@@@0@@Z ; std::_Uninitialized_move<RoundInfo *,RoundInfo *,std::allocator<RoundInfo> >
; Function compile flags: /Ogsp
; File c:\program files (x86)\microsoft visual studio 10.0\vc\include\memory
;	COMDAT ??$_Uninitialized_move@PAURoundInfo@@PAU1@V?$allocator@URoundInfo@@@std@@@std@@YAPAURoundInfo@@PAU1@00AAV?$allocator@URoundInfo@@@0@@Z
_TEXT	SEGMENT
__Cat$541791 = -4					; size = 1
__First$ = 8						; size = 4
__Last$ = 12						; size = 4
__Dest$ = 16						; size = 4
__Al$ = 20						; size = 4
??$_Uninitialized_move@PAURoundInfo@@PAU1@V?$allocator@URoundInfo@@@std@@@std@@YAPAURoundInfo@@PAU1@00AAV?$allocator@URoundInfo@@@0@@Z PROC ; std::_Uninitialized_move<RoundInfo *,RoundInfo *,std::allocator<RoundInfo> >, COMDAT

; 469  : 	{	// move [_First, _Last) to raw _Dest, using _Al

  00000	55		 push	 ebp
  00001	8b ec		 mov	 ebp, esp
  00003	51		 push	 ecx

; 470  : 	return (_Uninit_move(_First, _Last, _Dest, _Al,
; 471  : 		_Val_type(_First), _Ptr_cat(_First, _Dest)));

  00004	ff 75 fc	 push	 DWORD PTR __Cat$541791[ebp]
  00007	6a 00		 push	 0
  00009	ff 75 14	 push	 DWORD PTR __Al$[ebp]
  0000c	ff 75 10	 push	 DWORD PTR __Dest$[ebp]
  0000f	ff 75 0c	 push	 DWORD PTR __Last$[ebp]
  00012	ff 75 08	 push	 DWORD PTR __First$[ebp]
  00015	e8 00 00 00 00	 call	 ??$_Uninit_move@PAURoundInfo@@PAU1@V?$allocator@URoundInfo@@@std@@U1@@std@@YAPAURoundInfo@@PAU1@00AAV?$allocator@URoundInfo@@@0@0U_Nonscalar_ptr_iterator_tag@0@@Z ; std::_Uninit_move<RoundInfo *,RoundInfo *,std::allocator<RoundInfo>,RoundInfo>
  0001a	83 c4 18	 add	 esp, 24			; 00000018H

; 472  : 	}

  0001d	c9		 leave
  0001e	c3		 ret	 0
??$_Uninitialized_move@PAURoundInfo@@PAU1@V?$allocator@URoundInfo@@@std@@@std@@YAPAURoundInfo@@PAU1@00AAV?$allocator@URoundInfo@@@0@@Z ENDP ; std::_Uninitialized_move<RoundInfo *,RoundInfo *,std::allocator<RoundInfo> >
_TEXT	ENDS
PUBLIC	_rkInfo$GSCopy$
PUBLIC	_iSlot$GSCopy$
PUBLIC	?OnRedRender@ioObserverRedWnd@@IAEXHHHABURoundInfo@@@Z ; ioObserverRedWnd::OnRedRender
EXTRN	__ftol2_sse:PROC
;	COMDAT xdata$x
; File d:\lost saga for developer\youtube\tutorial\source\src\lsclient\stdafx.h
xdata$x	SEGMENT
__unwindtable$?OnRedRender@ioObserverRedWnd@@IAEXHHHABURoundInfo@@@Z DD 0ffffffffH
	DD	FLAT:__unwindfunclet$?OnRedRender@ioObserverRedWnd@@IAEXHHHABURoundInfo@@@Z$0
__ehfuncinfo$?OnRedRender@ioObserverRedWnd@@IAEXHHHABURoundInfo@@@Z DD 019930522H
	DD	01H
	DD	FLAT:__unwindtable$?OnRedRender@ioObserverRedWnd@@IAEXHHHABURoundInfo@@@Z
	DD	2 DUP(00H)
	DD	2 DUP(00H)
	DD	00H
	DD	01H
; Function compile flags: /Ogsp
; File d:\lost saga for developer\youtube\tutorial\source\src\lsclient\gui\ioobserverwnd.cpp
xdata$x	ENDS
;	COMDAT ?OnRedRender@ioObserverRedWnd@@IAEXHHHABURoundInfo@@@Z
_TEXT	SEGMENT
_iSlot$GSCopy$ = -284					; size = 4
tv597 = -280						; size = 4
tv596 = -276						; size = 4
_fHPRate$532202 = -272					; size = 4
tv707 = -268						; size = 4
tv702 = -268						; size = 4
tv682 = -268						; size = 4
tv649 = -268						; size = 4
$T541886 = -268						; size = 4
_rkInfo$GSCopy$ = -264					; size = 4
tv666 = -260						; size = 4
tv651 = -260						; size = 4
$T541852 = -260						; size = 4
$T541851 = -260						; size = 4
_iSize$532203 = -260					; size = 4
_rkHP$541880 = -256					; size = 240
__$EHRec$ = -12						; size = 12
_iXPos$ = 8						; size = 4
_iYPos$ = 12						; size = 4
_iSlot$ = 16						; size = 4
_rkInfo$ = 20						; size = 4
?OnRedRender@ioObserverRedWnd@@IAEXHHHABURoundInfo@@@Z PROC ; ioObserverRedWnd::OnRedRender, COMDAT
; _this$ = ecx

; 331  : {

  00000	68 10 01 00 00	 push	 272			; 00000110H
  00005	b8 00 00 00 00	 mov	 eax, __ehhandler$?OnRedRender@ioObserverRedWnd@@IAEXHHHABURoundInfo@@@Z
  0000a	e8 00 00 00 00	 call	 __EH_prolog3_GS
  0000f	8b 45 10	 mov	 eax, DWORD PTR _iSlot$[ebp]
  00012	8b f1		 mov	 esi, ecx

; 332  : 	if( !m_pRedBack || !m_pRedGauge || !m_pRedDead || !m_pAddGauge )

  00014	8b 8e 9c 01 00
	00		 mov	 ecx, DWORD PTR [esi+412]

; 410  : 
; 411  : 	g_FontMgr.SetTextStyle( TS_OUTLINE_FULL_2X );

  0001a	89 85 e4 fe ff
	ff		 mov	 DWORD PTR _iSlot$GSCopy$[ebp], eax
  00020	8b 45 14	 mov	 eax, DWORD PTR _rkInfo$[ebp]
  00023	33 db		 xor	 ebx, ebx
  00025	89 85 f8 fe ff
	ff		 mov	 DWORD PTR _rkInfo$GSCopy$[ebp], eax
  0002b	3b cb		 cmp	 ecx, ebx
  0002d	0f 84 2c 05 00
	00		 je	 $LN14@OnRedRende

; 332  : 	if( !m_pRedBack || !m_pRedGauge || !m_pRedDead || !m_pAddGauge )

  00033	39 9e a4 01 00
	00		 cmp	 DWORD PTR [esi+420], ebx
  00039	0f 84 20 05 00
	00		 je	 $LN14@OnRedRende
  0003f	39 9e a8 01 00
	00		 cmp	 DWORD PTR [esi+424], ebx
  00045	0f 84 14 05 00
	00		 je	 $LN14@OnRedRende
  0004b	39 9e ac 01 00
	00		 cmp	 DWORD PTR [esi+428], ebx
  00051	0f 84 08 05 00
	00		 je	 $LN14@OnRedRende

; 333  : 		return;
; 334  : 
; 335  : 	enum
; 336  : 	{
; 337  : 		MARK_XPOS	= 5,
; 338  : 		MARK_YPOS	= 5,
; 339  : 		GAUGE_XPOS	= 30,
; 340  : 		GAUGE_YPOS	= 2,
; 341  : 		NAME_XPOS	= 86,
; 342  : 		NAME_YPOS	= 4,
; 343  : 		KEY_XPOS	= 146,
; 344  : 		KEY_YPOS	= 12,
; 345  : 	};
; 346  : 
; 347  : 	//Back
; 348  : 	m_pRedBack->SetReverseFormatting( ioUIRenderImage::RF_NONE_REVERSE );

  00057	53		 push	 ebx
  00058	ff 15 00 00 00
	00		 call	 DWORD PTR __imp_?SetReverseFormatting@ioUIRenderImage@@QAEXW4ReverseFormatting@1@@Z

; 349  : 	m_pRedBack->Render( iXPos, iYPos );

  0005e	8b 8e 9c 01 00
	00		 mov	 ecx, DWORD PTR [esi+412]
  00064	8b 7d 0c	 mov	 edi, DWORD PTR _iYPos$[ebp]
  00067	66 0f 6e 4d 08	 movd	 xmm1, DWORD PTR _iXPos$[ebp]
  0006c	8b 01		 mov	 eax, DWORD PTR [ecx]
  0006e	53		 push	 ebx
  0006f	53		 push	 ebx
  00070	53		 push	 ebx
  00071	53		 push	 ebx
  00072	51		 push	 ecx
  00073	51		 push	 ecx
  00074	0f 57 c0	 xorps	 xmm0, xmm0
  00077	f3 0f 2a c7	 cvtsi2ss xmm0, edi
  0007b	0f 5b c9	 cvtdq2ps xmm1, xmm1
  0007e	f3 0f 11 44 24
	04		 movss	 DWORD PTR [esp+4], xmm0
  00084	f3 0f 11 85 ec
	fe ff ff	 movss	 DWORD PTR tv596[ebp], xmm0
  0008c	f3 0f 11 8d e8
	fe ff ff	 movss	 DWORD PTR tv597[ebp], xmm1
  00094	f3 0f 11 0c 24	 movss	 DWORD PTR [esp], xmm1
  00099	ff 10		 call	 DWORD PTR [eax]

; 350  : 
; 351  : 	//Gauge or Dead
; 352  : 	if( IsDieChar( rkInfo.m_szName ) )

  0009b	ff b5 f8 fe ff
	ff		 push	 DWORD PTR _rkInfo$GSCopy$[ebp]
  000a1	8b ce		 mov	 ecx, esi
  000a3	e8 00 00 00 00	 call	 ?IsDieChar@ioObserverRedWnd@@IAE_NABVioHashString@@@Z ; ioObserverRedWnd::IsDieChar
  000a8	84 c0		 test	 al, al
  000aa	74 37		 je	 SHORT $LN13@OnRedRende

; 353  : 	{
; 354  : 		m_pRedDead->Render( iXPos+GAUGE_XPOS, iYPos+GAUGE_YPOS );

  000ac	8b 8e a8 01 00
	00		 mov	 ecx, DWORD PTR [esi+424]
  000b2	8b 01		 mov	 eax, DWORD PTR [ecx]
  000b4	53		 push	 ebx
  000b5	53		 push	 ebx
  000b6	53		 push	 ebx
  000b7	53		 push	 ebx
  000b8	0f 57 c0	 xorps	 xmm0, xmm0
  000bb	8d 57 02	 lea	 edx, DWORD PTR [edi+2]
  000be	f3 0f 2a c2	 cvtsi2ss xmm0, edx
  000c2	8b 55 08	 mov	 edx, DWORD PTR _iXPos$[ebp]
  000c5	51		 push	 ecx
  000c6	51		 push	 ecx
  000c7	f3 0f 11 44 24
	04		 movss	 DWORD PTR [esp+4], xmm0
  000cd	83 c2 1e	 add	 edx, 30			; 0000001eH
  000d0	0f 57 c0	 xorps	 xmm0, xmm0
  000d3	f3 0f 2a c2	 cvtsi2ss xmm0, edx
  000d7	f3 0f 11 04 24	 movss	 DWORD PTR [esp], xmm0
  000dc	ff 10		 call	 DWORD PTR [eax]

; 355  : 	}
; 356  : 	else

  000de	e9 ba 01 00 00	 jmp	 $LN12@OnRedRende
$LN13@OnRedRende:

; 357  : 	{
; 358  : 		float fHPRate = GetCurHPRate( rkInfo.m_szName );

  000e3	8b 8e 90 01 00
	00		 mov	 ecx, DWORD PTR [esi+400]
  000e9	3b cb		 cmp	 ecx, ebx
  000eb	75 26		 jne	 SHORT $LN20@OnRedRende
  000ed	b8 01 00 00 00	 mov	 eax, 1
  000f2	89 85 f4 fe ff
	ff		 mov	 DWORD PTR tv707[ebp], eax
  000f8	db 85 f4 fe ff
	ff		 fild	 DWORD PTR tv707[ebp]
$LN52@OnRedRende:
  000fe	85 c0		 test	 eax, eax
  00100	79 06		 jns	 SHORT $LN48@OnRedRende
  00102	d8 05 00 00 00
	00		 fadd	 DWORD PTR __real@4f800000
$LN48@OnRedRende:
  00108	d9 9d f0 fe ff
	ff		 fstp	 DWORD PTR _fHPRate$532202[ebp]
  0010e	e9 ff 00 00 00	 jmp	 $LN21@OnRedRende
$LN20@OnRedRende:
  00113	ff b5 f8 fe ff
	ff		 push	 DWORD PTR _rkInfo$GSCopy$[ebp]
  00119	e8 00 00 00 00	 call	 ?GetBaseChar@ioPlayStage@@QAEPAVioBaseChar@@ABVioHashString@@@Z ; ioPlayStage::GetBaseChar
  0011e	3b c3		 cmp	 eax, ebx
  00120	75 13		 jne	 SHORT $LN19@OnRedRende
  00122	b8 01 00 00 00	 mov	 eax, 1
  00127	89 85 f4 fe ff
	ff		 mov	 DWORD PTR tv702[ebp], eax
  0012d	db 85 f4 fe ff
	ff		 fild	 DWORD PTR tv702[ebp]
  00133	eb c9		 jmp	 SHORT $LN52@OnRedRende
$LN19@OnRedRende:
  00135	05 c0 00 00 00	 add	 eax, 192		; 000000c0H
  0013a	50		 push	 eax
  0013b	8d 8d 00 ff ff
	ff		 lea	 ecx, DWORD PTR _rkHP$541880[ebp]
  00141	e8 00 00 00 00	 call	 ??0StatusValue@@QAE@ABU0@@Z
  00146	6a 04		 push	 4
  00148	8d 85 58 ff ff
	ff		 lea	 eax, DWORD PTR _rkHP$541880[ebp+88]
  0014e	50		 push	 eax
  0014f	8d 85 4c ff ff
	ff		 lea	 eax, DWORD PTR _rkHP$541880[ebp+76]
  00155	50		 push	 eax
  00156	8d 8d 3c ff ff
	ff		 lea	 ecx, DWORD PTR _rkHP$541880[ebp+60]
  0015c	89 5d fc	 mov	 DWORD PTR __$EHRec$[ebp+8], ebx
  0015f	e8 00 00 00 00	 call	 ?DecryptByte@ccddaabb@@QBEXPBDPADH@Z ; ccddaabb::DecryptByte
  00164	0f 57 c0	 xorps	 xmm0, xmm0
  00167	0f 2f 85 58 ff
	ff ff		 comiss	 xmm0, DWORD PTR _rkHP$541880[ebp+88]
  0016e	72 17		 jb	 SHORT $LN18@OnRedRende
  00170	83 4d fc ff	 or	 DWORD PTR __$EHRec$[ebp+8], -1
  00174	8d 8d 00 ff ff
	ff		 lea	 ecx, DWORD PTR _rkHP$541880[ebp]
  0017a	e8 00 00 00 00	 call	 ??1StatusValue@@QAE@XZ
  0017f	0f 57 c0	 xorps	 xmm0, xmm0
  00182	e9 83 00 00 00	 jmp	 $LN51@OnRedRende
$LN18@OnRedRende:
  00187	6a 04		 push	 4
  00189	8d 85 58 ff ff
	ff		 lea	 eax, DWORD PTR _rkHP$541880[ebp+88]
  0018f	50		 push	 eax
  00190	8d 85 4c ff ff
	ff		 lea	 eax, DWORD PTR _rkHP$541880[ebp+76]
  00196	50		 push	 eax
  00197	8d 8d 3c ff ff
	ff		 lea	 ecx, DWORD PTR _rkHP$541880[ebp+60]
  0019d	e8 00 00 00 00	 call	 ?DecryptByte@ccddaabb@@QBEXPBDPADH@Z ; ccddaabb::DecryptByte
  001a2	f3 0f 10 85 58
	ff ff ff	 movss	 xmm0, DWORD PTR _rkHP$541880[ebp+88]
  001aa	6a 04		 push	 4
  001ac	8d 85 28 ff ff
	ff		 lea	 eax, DWORD PTR _rkHP$541880[ebp+40]
  001b2	50		 push	 eax
  001b3	8d 85 1c ff ff
	ff		 lea	 eax, DWORD PTR _rkHP$541880[ebp+28]
  001b9	50		 push	 eax
  001ba	8d 8d 0c ff ff
	ff		 lea	 ecx, DWORD PTR _rkHP$541880[ebp+12]
  001c0	f3 0f 11 85 fc
	fe ff ff	 movss	 DWORD PTR $T541851[ebp], xmm0
  001c8	e8 00 00 00 00	 call	 ?DecryptByte@ccddaabb@@QBEXPBDPADH@Z ; ccddaabb::DecryptByte
  001cd	f3 0f 10 8d fc
	fe ff ff	 movss	 xmm1, DWORD PTR $T541851[ebp]
  001d5	f3 0f 10 85 28
	ff ff ff	 movss	 xmm0, DWORD PTR _rkHP$541880[ebp+40]
  001dd	83 4d fc ff	 or	 DWORD PTR __$EHRec$[ebp+8], -1
  001e1	0f 5a c0	 cvtps2pd xmm0, xmm0
  001e4	0f 5a c9	 cvtps2pd xmm1, xmm1
  001e7	f2 0f 5e c1	 divsd	 xmm0, xmm1
  001eb	66 0f 5a c0	 cvtpd2ps xmm0, xmm0
  001ef	8d 8d 00 ff ff
	ff		 lea	 ecx, DWORD PTR _rkHP$541880[ebp]
  001f5	f3 0f 11 85 fc
	fe ff ff	 movss	 DWORD PTR $T541852[ebp], xmm0
  001fd	e8 00 00 00 00	 call	 ??1StatusValue@@QAE@XZ
  00202	f3 0f 10 85 fc
	fe ff ff	 movss	 xmm0, DWORD PTR $T541852[ebp]
$LN51@OnRedRende:
  0020a	f3 0f 11 85 f0
	fe ff ff	 movss	 DWORD PTR _fHPRate$532202[ebp], xmm0
$LN21@OnRedRende:

; 359  : 		int iSize = m_pRedGauge->GetWidth();

  00212	8b 8e a4 01 00
	00		 mov	 ecx, DWORD PTR [esi+420]
  00218	ff 15 00 00 00
	00		 call	 DWORD PTR __imp_?GetWidth@ioUIRenderElement@@QBEHXZ
  0021e	89 85 fc fe ff
	ff		 mov	 DWORD PTR _iSize$532203[ebp], eax

; 360  : 		int iStart = (float)iSize * ( FLOAT1 - fHPRate );

  00224	b8 01 00 00 00	 mov	 eax, 1

; 361  : 
; 362  : 		m_pRedGauge->SetReverseFormatting( ioUIRenderImage::RF_NONE_REVERSE );

  00229	8b 8e a4 01 00
	00		 mov	 ecx, DWORD PTR [esi+420]
  0022f	53		 push	 ebx
  00230	89 85 f4 fe ff
	ff		 mov	 DWORD PTR $T541886[ebp], eax
  00236	ff 15 00 00 00
	00		 call	 DWORD PTR __imp_?SetReverseFormatting@ioUIRenderImage@@QAEXW4ReverseFormatting@1@@Z

; 363  : 		m_pRedGauge->RenderWidthCut( iXPos+GAUGE_XPOS, iYPos+GAUGE_YPOS, iStart, iSize );

  0023c	db 85 f4 fe ff
	ff		 fild	 DWORD PTR $T541886[ebp]
  00242	8b 85 f4 fe ff
	ff		 mov	 eax, DWORD PTR $T541886[ebp]
  00248	53		 push	 ebx
  00249	53		 push	 ebx
  0024a	53		 push	 ebx
  0024b	ff b5 fc fe ff
	ff		 push	 DWORD PTR _iSize$532203[ebp]
  00251	85 c0		 test	 eax, eax
  00253	79 06		 jns	 SHORT $LN50@OnRedRende
  00255	d8 05 00 00 00
	00		 fadd	 DWORD PTR __real@4f800000
$LN50@OnRedRende:
  0025b	d8 a5 f0 fe ff
	ff		 fsub	 DWORD PTR _fHPRate$532202[ebp]
  00261	da 8d fc fe ff
	ff		 fimul	 DWORD PTR _iSize$532203[ebp]
  00267	e8 00 00 00 00	 call	 __ftol2_sse
  0026c	50		 push	 eax
  0026d	0f 57 c0	 xorps	 xmm0, xmm0
  00270	8d 47 02	 lea	 eax, DWORD PTR [edi+2]
  00273	f3 0f 2a c0	 cvtsi2ss xmm0, eax
  00277	8b 45 08	 mov	 eax, DWORD PTR _iXPos$[ebp]
  0027a	51		 push	 ecx
  0027b	51		 push	 ecx
  0027c	8b 8e a4 01 00
	00		 mov	 ecx, DWORD PTR [esi+420]
  00282	f3 0f 11 44 24
	04		 movss	 DWORD PTR [esp+4], xmm0
  00288	83 c0 1e	 add	 eax, 30			; 0000001eH
  0028b	0f 57 c0	 xorps	 xmm0, xmm0
  0028e	f3 0f 2a c0	 cvtsi2ss xmm0, eax
  00292	f3 0f 11 04 24	 movss	 DWORD PTR [esp], xmm0
  00297	ff 15 00 00 00
	00		 call	 DWORD PTR __imp_?RenderWidthCut@ioUIRenderImage@@QAEXMMHHW4UIRenderType@@W4TextureFilterOption@@0@Z
$LN12@OnRedRende:

; 364  : 	}
; 365  : 
; 366  : 	//Key
; 367  : 	if( IsTarget( rkInfo.m_szName ) && m_pTargetMark )

  0029d	ff b5 f8 fe ff
	ff		 push	 DWORD PTR _rkInfo$GSCopy$[ebp]
  002a3	8b ce		 mov	 ecx, esi
  002a5	e8 00 00 00 00	 call	 ?IsTarget@ioObserverRedWnd@@IAE_NABVioHashString@@@Z ; ioObserverRedWnd::IsTarget
  002aa	84 c0		 test	 al, al
  002ac	0f 84 9d 00 00
	00		 je	 $LN11@OnRedRende
  002b2	8b 8e f0 01 00
	00		 mov	 ecx, DWORD PTR [esi+496]
  002b8	3b cb		 cmp	 ecx, ebx
  002ba	0f 84 8f 00 00
	00		 je	 $LN11@OnRedRende

; 368  : 	{
; 369  : 		m_pTargetMark->SetReverseFormatting( ioUIRenderImage::RF_HORZ_REVERSE );

  002c0	6a 01		 push	 1
  002c2	ff 15 00 00 00
	00		 call	 DWORD PTR __imp_?SetReverseFormatting@ioUIRenderImage@@QAEXW4ReverseFormatting@1@@Z

; 370  : 		m_pTargetMark->Render( iXPos+146, iYPos+8 );

  002c8	8b 8e f0 01 00
	00		 mov	 ecx, DWORD PTR [esi+496]
  002ce	53		 push	 ebx
  002cf	53		 push	 ebx
  002d0	53		 push	 ebx
  002d1	8d 47 08	 lea	 eax, DWORD PTR [edi+8]
  002d4	0f 57 c0	 xorps	 xmm0, xmm0
  002d7	f3 0f 2a c0	 cvtsi2ss xmm0, eax
  002db	8b 45 08	 mov	 eax, DWORD PTR _iXPos$[ebp]
  002de	53		 push	 ebx
  002df	05 92 00 00 00	 add	 eax, 146		; 00000092H
  002e4	51		 push	 ecx
  002e5	51		 push	 ecx
  002e6	0f 57 c9	 xorps	 xmm1, xmm1
  002e9	f3 0f 2a c8	 cvtsi2ss xmm1, eax
  002ed	8b 01		 mov	 eax, DWORD PTR [ecx]
  002ef	f3 0f 11 44 24
	04		 movss	 DWORD PTR [esp+4], xmm0
  002f5	f3 0f 11 85 f4
	fe ff ff	 movss	 DWORD PTR tv649[ebp], xmm0
  002fd	f3 0f 11 8d fc
	fe ff ff	 movss	 DWORD PTR tv651[ebp], xmm1
  00305	f3 0f 11 0c 24	 movss	 DWORD PTR [esp], xmm1
  0030a	ff 10		 call	 DWORD PTR [eax]

; 371  : 
; 372  : 		if( m_bCheckMark )

  0030c	38 9e f8 01 00
	00		 cmp	 BYTE PTR [esi+504], bl
  00312	74 2c		 je	 SHORT $LN10@OnRedRende

; 373  : 			m_pTargetMark->Render( iXPos+146, iYPos+8, UI_RENDER_SCREEN );

  00314	8b 8e f0 01 00
	00		 mov	 ecx, DWORD PTR [esi+496]
  0031a	f3 0f 10 85 f4
	fe ff ff	 movss	 xmm0, DWORD PTR tv649[ebp]
  00322	8b 01		 mov	 eax, DWORD PTR [ecx]
  00324	53		 push	 ebx
  00325	53		 push	 ebx
  00326	53		 push	 ebx
  00327	6a 01		 push	 1
  00329	51		 push	 ecx
  0032a	51		 push	 ecx
  0032b	f3 0f 11 44 24
	04		 movss	 DWORD PTR [esp+4], xmm0
  00331	f3 0f 10 85 fc
	fe ff ff	 movss	 xmm0, DWORD PTR tv651[ebp]
  00339	f3 0f 11 04 24	 movss	 DWORD PTR [esp], xmm0
  0033e	ff 10		 call	 DWORD PTR [eax]
$LN10@OnRedRende:

; 374  : 
; 375  : 		m_pTargetMark->SetReverseFormatting( ioUIRenderImage::RF_NONE_REVERSE );

  00340	8b 8e f0 01 00
	00		 mov	 ecx, DWORD PTR [esi+496]
  00346	53		 push	 ebx
  00347	ff 15 00 00 00
	00		 call	 DWORD PTR __imp_?SetReverseFormatting@ioUIRenderImage@@QAEXW4ReverseFormatting@1@@Z

; 376  : 	}
; 377  : 	else

  0034d	eb 63		 jmp	 SHORT $LN6@OnRedRende
$LN11@OnRedRende:

; 378  : 	{
; 379  : 		if( m_pRedKeyText[iSlot] )

  0034f	8b 85 e4 fe ff
	ff		 mov	 eax, DWORD PTR _iSlot$GSCopy$[ebp]
  00355	8d 84 86 b0 01
	00 00		 lea	 eax, DWORD PTR [esi+eax*4+432]
  0035c	89 85 fc fe ff
	ff		 mov	 DWORD PTR tv666[ebp], eax
  00362	39 18		 cmp	 DWORD PTR [eax], ebx
  00364	74 4c		 je	 SHORT $LN6@OnRedRende

; 380  : 		{
; 381  : 			if( IsDieChar( rkInfo.m_szName ) )

  00366	ff b5 f8 fe ff
	ff		 push	 DWORD PTR _rkInfo$GSCopy$[ebp]
  0036c	8b ce		 mov	 ecx, esi
  0036e	e8 00 00 00 00	 call	 ?IsDieChar@ioObserverRedWnd@@IAE_NABVioHashString@@@Z ; ioObserverRedWnd::IsDieChar

; 382  : 				m_pRedKeyText[iSlot]->Render( iXPos+KEY_XPOS, iYPos+KEY_YPOS, UI_RENDER_GRAY );

  00373	8d 57 0c	 lea	 edx, DWORD PTR [edi+12]
  00376	0f 57 c0	 xorps	 xmm0, xmm0
  00379	f3 0f 2a c2	 cvtsi2ss xmm0, edx
  0037d	8b 55 08	 mov	 edx, DWORD PTR _iXPos$[ebp]
  00380	81 c2 92 00 00
	00		 add	 edx, 146		; 00000092H
  00386	84 c0		 test	 al, al
  00388	8b 85 fc fe ff
	ff		 mov	 eax, DWORD PTR tv666[ebp]
  0038e	8b 08		 mov	 ecx, DWORD PTR [eax]
  00390	8b 01		 mov	 eax, DWORD PTR [ecx]
  00392	53		 push	 ebx
  00393	53		 push	 ebx
  00394	53		 push	 ebx
  00395	74 04		 je	 SHORT $LN7@OnRedRende
  00397	6a 02		 push	 2

; 383  : 			else

  00399	eb 01		 jmp	 SHORT $LN53@OnRedRende
$LN7@OnRedRende:

; 384  : 				m_pRedKeyText[iSlot]->Render( iXPos+KEY_XPOS, iYPos+KEY_YPOS );

  0039b	53		 push	 ebx
$LN53@OnRedRende:
  0039c	51		 push	 ecx
  0039d	51		 push	 ecx
  0039e	f3 0f 11 44 24
	04		 movss	 DWORD PTR [esp+4], xmm0
  003a4	0f 57 c0	 xorps	 xmm0, xmm0
  003a7	f3 0f 2a c2	 cvtsi2ss xmm0, edx
  003ab	f3 0f 11 04 24	 movss	 DWORD PTR [esp], xmm0
  003b0	ff 10		 call	 DWORD PTR [eax]
$LN6@OnRedRende:

; 385  : 		}
; 386  : 	}
; 387  : 
; 388  : 	// Guild Mark
; 389  : 	if( m_pGuildBack )

  003b2	39 9e 94 01 00
	00		 cmp	 DWORD PTR [esi+404], ebx
  003b8	74 5e		 je	 SHORT $LN5@OnRedRende

; 390  : 	{
; 391  : 		m_pGuildBack->SetSize( 23, 23 );

  003ba	8b 8e 94 01 00
	00		 mov	 ecx, DWORD PTR [esi+404]
  003c0	8b 01		 mov	 eax, DWORD PTR [ecx]
  003c2	6a 17		 push	 23			; 00000017H
  003c4	6a 17		 push	 23			; 00000017H
  003c6	ff 50 10	 call	 DWORD PTR [eax+16]

; 392  : 		m_pGuildBack->SetHorzFormatting( ioUIRenderImage::HF_STRETCH );

  003c9	8b 8e 94 01 00
	00		 mov	 ecx, DWORD PTR [esi+404]
  003cf	6a 03		 push	 3
  003d1	ff 15 00 00 00
	00		 call	 DWORD PTR __imp_?SetHorzFormatting@ioUIRenderImage@@QAEXW4HorzFormatting@1@@Z

; 393  : 		m_pGuildBack->SetVertFormatting( ioUIRenderImage::VF_STRETCH );

  003d7	8b 8e 94 01 00
	00		 mov	 ecx, DWORD PTR [esi+404]
  003dd	6a 03		 push	 3
  003df	ff 15 00 00 00
	00		 call	 DWORD PTR __imp_?SetVertFormatting@ioUIRenderImage@@QAEXW4VertFormatting@1@@Z

; 394  : 		m_pGuildBack->Render( iXPos + 4, iYPos + 4, UI_RENDER_MULTIPLY );

  003e5	8b 8e 94 01 00
	00		 mov	 ecx, DWORD PTR [esi+404]
  003eb	8b 01		 mov	 eax, DWORD PTR [ecx]
  003ed	53		 push	 ebx
  003ee	53		 push	 ebx
  003ef	53		 push	 ebx
  003f0	6a 08		 push	 8
  003f2	0f 57 c0	 xorps	 xmm0, xmm0
  003f5	8d 57 04	 lea	 edx, DWORD PTR [edi+4]
  003f8	f3 0f 2a c2	 cvtsi2ss xmm0, edx
  003fc	8b 55 08	 mov	 edx, DWORD PTR _iXPos$[ebp]
  003ff	51		 push	 ecx
  00400	51		 push	 ecx
  00401	f3 0f 11 44 24
	04		 movss	 DWORD PTR [esp+4], xmm0
  00407	83 c2 04	 add	 edx, 4
  0040a	0f 57 c0	 xorps	 xmm0, xmm0
  0040d	f3 0f 2a c2	 cvtsi2ss xmm0, edx
  00411	f3 0f 11 04 24	 movss	 DWORD PTR [esp], xmm0
  00416	ff 10		 call	 DWORD PTR [eax]
$LN5@OnRedRende:

; 395  : 	}
; 396  : 
; 397  : 	if( IsDieChar( rkInfo.m_szName ) )

  00418	ff b5 f8 fe ff
	ff		 push	 DWORD PTR _rkInfo$GSCopy$[ebp]
  0041e	8b ce		 mov	 ecx, esi
  00420	e8 00 00 00 00	 call	 ?IsDieChar@ioObserverRedWnd@@IAE_NABVioHashString@@@Z ; ioObserverRedWnd::IsDieChar
  00425	84 c0		 test	 al, al

; 398  : 		g_GuildMarkMgr.RenderMarkSize( 21, 21, rkInfo.m_dwGuildIndex, rkInfo.m_dwGuildMark, iXPos+MARK_XPOS, iYPos+MARK_YPOS, UI_RENDER_GRAY );

  00427	8d 47 05	 lea	 eax, DWORD PTR [edi+5]
  0042a	0f 57 c0	 xorps	 xmm0, xmm0
  0042d	f3 0f 2a c0	 cvtsi2ss xmm0, eax
  00431	8b 45 08	 mov	 eax, DWORD PTR _iXPos$[ebp]
  00434	74 04		 je	 SHORT $LN4@OnRedRende
  00436	6a 02		 push	 2

; 399  : 	else

  00438	eb 01		 jmp	 SHORT $LN54@OnRedRende
$LN4@OnRedRende:

; 400  : 		g_GuildMarkMgr.RenderMarkSize( 21, 21, rkInfo.m_dwGuildIndex, rkInfo.m_dwGuildMark, iXPos+MARK_XPOS, iYPos+MARK_YPOS );

  0043a	53		 push	 ebx
$LN54@OnRedRende:
  0043b	51		 push	 ecx
  0043c	51		 push	 ecx
  0043d	f3 0f 11 44 24
	04		 movss	 DWORD PTR [esp+4], xmm0
  00443	83 c0 05	 add	 eax, 5
  00446	0f 57 c0	 xorps	 xmm0, xmm0
  00449	f3 0f 2a c0	 cvtsi2ss xmm0, eax
  0044d	8b 85 f8 fe ff
	ff		 mov	 eax, DWORD PTR _rkInfo$GSCopy$[ebp]
  00453	f3 0f 11 04 24	 movss	 DWORD PTR [esp], xmm0
  00458	ff 70 5c	 push	 DWORD PTR [eax+92]
  0045b	ff 70 58	 push	 DWORD PTR [eax+88]
  0045e	6a 15		 push	 21			; 00000015H
  00460	6a 15		 push	 21			; 00000015H
  00462	e8 00 00 00 00	 call	 ?GetSingleton@ioGuildMarkMgr@@SAAAV1@XZ ; ioGuildMarkMgr::GetSingleton
  00467	8b c8		 mov	 ecx, eax
  00469	e8 00 00 00 00	 call	 ?RenderMarkSize@ioGuildMarkMgr@@QAEXHHKKMMW4UIRenderType@@@Z ; ioGuildMarkMgr::RenderMarkSize

; 401  : 
; 402  : 	//Name
; 403  : 	g_FontMgr.SetAlignType( TAT_CENTER );

  0046e	6a 01		 push	 1
  00470	ff 15 00 00 00
	00		 call	 DWORD PTR __imp_?GetSingleton@ioFontManager@@SAAAV1@XZ
  00476	8b c8		 mov	 ecx, eax
  00478	ff 15 00 00 00
	00		 call	 DWORD PTR __imp_?SetAlignType@ioFontManager@@QAEXW4TextAlignType@@@Z

; 404  : 	g_FontMgr.SetBkColor( 0, 0, 0 );

  0047e	53		 push	 ebx
  0047f	53		 push	 ebx
  00480	53		 push	 ebx
  00481	ff 15 00 00 00
	00		 call	 DWORD PTR __imp_?GetSingleton@ioFontManager@@SAAAV1@XZ
  00487	8b c8		 mov	 ecx, eax
  00489	ff 15 00 00 00
	00		 call	 DWORD PTR __imp_?SetBkColor@ioFontManager@@QAEXHHH@Z

; 405  : 
; 406  : 	if( IsDieChar( rkInfo.m_szName ) )

  0048f	ff b5 f8 fe ff
	ff		 push	 DWORD PTR _rkInfo$GSCopy$[ebp]
  00495	8b ce		 mov	 ecx, esi
  00497	e8 00 00 00 00	 call	 ?IsDieChar@ioObserverRedWnd@@IAE_NABVioHashString@@@Z ; ioObserverRedWnd::IsDieChar
  0049c	84 c0		 test	 al, al
  0049e	74 07		 je	 SHORT $LN2@OnRedRende

; 407  : 		g_FontMgr.SetTextColor( TCT_DEFAULT_GRAY2 );

  004a0	68 80 80 80 ff	 push	 -8355712		; ff808080H

; 408  : 	else

  004a5	eb 02		 jmp	 SHORT $LN55@OnRedRende
$LN2@OnRedRende:

; 409  : 		g_FontMgr.SetTextColor( TCT_DEFAULT_WHITE );

  004a7	6a ff		 push	 -1
$LN55@OnRedRende:
  004a9	ff 15 00 00 00
	00		 call	 DWORD PTR __imp_?GetSingleton@ioFontManager@@SAAAV1@XZ
  004af	8b c8		 mov	 ecx, eax
  004b1	ff 15 00 00 00
	00		 call	 DWORD PTR __imp_?SetTextColor@ioFontManager@@QAEXK@Z

; 410  : 
; 411  : 	g_FontMgr.SetTextStyle( TS_OUTLINE_FULL_2X );

  004b7	6a 05		 push	 5
  004b9	ff 15 00 00 00
	00		 call	 DWORD PTR __imp_?GetSingleton@ioFontManager@@SAAAV1@XZ
  004bf	8b c8		 mov	 ecx, eax
  004c1	ff 15 00 00 00
	00		 call	 DWORD PTR __imp_?SetTextStyle@ioFontManager@@QAEXW4TextStyle@@@Z

; 412  : 	g_FontMgr.PrintTextWidthCut( iXPos+NAME_XPOS, iYPos+NAME_YPOS, FONT_SIZE_15, 111.0f, rkInfo.m_szName.c_str() );

  004c7	8b 8d f8 fe ff
	ff		 mov	 ecx, DWORD PTR _rkInfo$GSCopy$[ebp]
  004cd	ff 15 00 00 00
	00		 call	 DWORD PTR __imp_?c_str@ioHashString@@QBEPBDXZ
  004d3	f3 0f 10 05 00
	00 00 00	 movss	 xmm0, DWORD PTR __real@42de0000
  004db	50		 push	 eax
  004dc	8b 45 08	 mov	 eax, DWORD PTR _iXPos$[ebp]
  004df	83 ec 10	 sub	 esp, 16			; 00000010H
  004e2	f3 0f 11 44 24
	0c		 movss	 DWORD PTR [esp+12], xmm0
  004e8	f3 0f 10 05 00
	00 00 00	 movss	 xmm0, DWORD PTR __real@3f400000
  004f0	f3 0f 11 44 24
	08		 movss	 DWORD PTR [esp+8], xmm0
  004f6	0f 57 c0	 xorps	 xmm0, xmm0
  004f9	83 c7 04	 add	 edi, 4
  004fc	f3 0f 2a c7	 cvtsi2ss xmm0, edi
  00500	f3 0f 11 44 24
	04		 movss	 DWORD PTR [esp+4], xmm0
  00506	83 c0 56	 add	 eax, 86			; 00000056H
  00509	0f 57 c0	 xorps	 xmm0, xmm0
  0050c	f3 0f 2a c0	 cvtsi2ss xmm0, eax
  00510	f3 0f 11 04 24	 movss	 DWORD PTR [esp], xmm0
  00515	ff 15 00 00 00
	00		 call	 DWORD PTR __imp_?GetSingleton@ioFontManager@@SAAAV1@XZ
  0051b	50		 push	 eax
  0051c	ff 15 00 00 00
	00		 call	 DWORD PTR __imp_?PrintTextWidthCut@ioFontManager@@QAAXMMMMPBDZZ

; 413  : 
; 414  : 
; 415  : 	//Add
; 416  : 	m_pAddGauge->SetReverseFormatting( ioUIRenderImage::RF_HORZ_REVERSE );

  00522	8b 8e ac 01 00
	00		 mov	 ecx, DWORD PTR [esi+428]
  00528	83 c4 18	 add	 esp, 24			; 00000018H
  0052b	6a 01		 push	 1
  0052d	ff 15 00 00 00
	00		 call	 DWORD PTR __imp_?SetReverseFormatting@ioUIRenderImage@@QAEXW4ReverseFormatting@1@@Z

; 417  : 	m_pAddGauge->Render( iXPos, iYPos, UI_RENDER_ADD );

  00533	8b 8e ac 01 00
	00		 mov	 ecx, DWORD PTR [esi+428]
  00539	f3 0f 10 85 ec
	fe ff ff	 movss	 xmm0, DWORD PTR tv596[ebp]
  00541	8b 01		 mov	 eax, DWORD PTR [ecx]
  00543	53		 push	 ebx
  00544	53		 push	 ebx
  00545	53		 push	 ebx
  00546	6a 03		 push	 3
  00548	51		 push	 ecx
  00549	51		 push	 ecx
  0054a	f3 0f 11 44 24
	04		 movss	 DWORD PTR [esp+4], xmm0
  00550	f3 0f 10 85 e8
	fe ff ff	 movss	 xmm0, DWORD PTR tv597[ebp]
  00558	f3 0f 11 04 24	 movss	 DWORD PTR [esp], xmm0
  0055d	ff 10		 call	 DWORD PTR [eax]
$LN14@OnRedRende:

; 418  : }

  0055f	e8 00 00 00 00	 call	 __EH_epilog3_GS
  00564	c2 10 00	 ret	 16			; 00000010H
_TEXT	ENDS
;	COMDAT text$x
text$x	SEGMENT
__unwindfunclet$?OnRedRender@ioObserverRedWnd@@IAEXHHHABURoundInfo@@@Z$0:
  00000	8d 8d 00 ff ff
	ff		 lea	 ecx, DWORD PTR _rkHP$541880[ebp]
  00006	e9 00 00 00 00	 jmp	 ??1StatusValue@@QAE@XZ
__ehhandler$?OnRedRender@ioObserverRedWnd@@IAEXHHHABURoundInfo@@@Z:
  0000b	8b 54 24 08	 mov	 edx, DWORD PTR [esp+8]
  0000f	8d 42 0c	 lea	 eax, DWORD PTR [edx+12]
  00012	8b 8a e0 fe ff
	ff		 mov	 ecx, DWORD PTR [edx-288]
  00018	33 c8		 xor	 ecx, eax
  0001a	e8 00 00 00 00	 call	 @__security_check_cookie@4
  0001f	8b 4a fc	 mov	 ecx, DWORD PTR [edx-4]
  00022	33 c8		 xor	 ecx, eax
  00024	e8 00 00 00 00	 call	 @__security_check_cookie@4
  00029	b8 00 00 00 00	 mov	 eax, OFFSET __ehfuncinfo$?OnRedRender@ioObserverRedWnd@@IAEXHHHABURoundInfo@@@Z
  0002e	e9 00 00 00 00	 jmp	 ___CxxFrameHandler3
text$x	ENDS
?OnRedRender@ioObserverRedWnd@@IAEXHHHABURoundInfo@@@Z ENDP ; ioObserverRedWnd::OnRedRender
PUBLIC	_rkInfo$GSCopy$
PUBLIC	_iSlot$GSCopy$
PUBLIC	?OnOtherRender@ioObserverRedWnd@@IAEXHHHABURoundInfo@@@Z ; ioObserverRedWnd::OnOtherRender
;	COMDAT xdata$x
; File d:\lost saga for developer\youtube\tutorial\source\src\lsclient\encryptvalue.h
xdata$x	SEGMENT
__unwindtable$?OnOtherRender@ioObserverRedWnd@@IAEXHHHABURoundInfo@@@Z DD 0ffffffffH
	DD	FLAT:__unwindfunclet$?OnOtherRender@ioObserverRedWnd@@IAEXHHHABURoundInfo@@@Z$0
__ehfuncinfo$?OnOtherRender@ioObserverRedWnd@@IAEXHHHABURoundInfo@@@Z DD 019930522H
	DD	01H
	DD	FLAT:__unwindtable$?OnOtherRender@ioObserverRedWnd@@IAEXHHHABURoundInfo@@@Z
	DD	2 DUP(00H)
	DD	2 DUP(00H)
	DD	00H
	DD	01H
; Function compile flags: /Ogsp
; File d:\lost saga for developer\youtube\tutorial\source\src\lsclient\gui\ioobserverwnd.cpp
xdata$x	ENDS
;	COMDAT ?OnOtherRender@ioObserverRedWnd@@IAEXHHHABURoundInfo@@@Z
_TEXT	SEGMENT
tv583 = -276						; size = 4
tv584 = -272						; size = 4
tv640 = -268						; size = 4
_iSlot$GSCopy$ = -268					; size = 4
_rkInfo$GSCopy$ = -264					; size = 4
tv696 = -260						; size = 4
tv691 = -260						; size = 4
tv655 = -260						; size = 4
tv638 = -260						; size = 4
$T541962 = -260						; size = 4
$T541961 = -260						; size = 4
_iEnd$532240 = -260					; size = 4
_fHPRate$532238 = -260					; size = 4
_rkHP$541990 = -256					; size = 240
__$EHRec$ = -12						; size = 12
_iXPos$ = 8						; size = 4
_iYPos$ = 12						; size = 4
_iSlot$ = 16						; size = 4
_rkInfo$ = 20						; size = 4
?OnOtherRender@ioObserverRedWnd@@IAEXHHHABURoundInfo@@@Z PROC ; ioObserverRedWnd::OnOtherRender, COMDAT
; _this$ = ecx

; 421  : {

  00000	68 08 01 00 00	 push	 264			; 00000108H
  00005	b8 00 00 00 00	 mov	 eax, __ehhandler$?OnOtherRender@ioObserverRedWnd@@IAEXHHHABURoundInfo@@@Z
  0000a	e8 00 00 00 00	 call	 __EH_prolog3_GS
  0000f	8b 45 10	 mov	 eax, DWORD PTR _iSlot$[ebp]
  00012	8b f1		 mov	 esi, ecx

; 422  : 	enum
; 423  : 	{
; 424  : 		MARK_XPOS	= 5,
; 425  : 		MARK_YPOS	= 5,
; 426  : 		GAUGE_XPOS	= 30,
; 427  : 		GAUGE_YPOS	= 2,
; 428  : 		NAME_XPOS	= 86,
; 429  : 		NAME_YPOS	= 4,
; 430  : 		KEY_XPOS	= 146,
; 431  : 		KEY_YPOS	= 12,
; 432  : 	};
; 433  : 
; 434  : 	//Back
; 435  : 	m_pBlueBack->SetReverseFormatting( ioUIRenderImage::RF_HORZ_REVERSE );

  00014	8b 8e 98 01 00
	00		 mov	 ecx, DWORD PTR [esi+408]

; 499  : 
; 500  : 	g_FontMgr.SetTextStyle( TS_OUTLINE_FULL_2X );

  0001a	89 85 f4 fe ff
	ff		 mov	 DWORD PTR _iSlot$GSCopy$[ebp], eax
  00020	8b 45 14	 mov	 eax, DWORD PTR _rkInfo$[ebp]
  00023	6a 01		 push	 1
  00025	89 85 f8 fe ff
	ff		 mov	 DWORD PTR _rkInfo$GSCopy$[ebp], eax
  0002b	ff 15 00 00 00
	00		 call	 DWORD PTR __imp_?SetReverseFormatting@ioUIRenderImage@@QAEXW4ReverseFormatting@1@@Z
  00031	8b 8e 98 01 00
	00		 mov	 ecx, DWORD PTR [esi+408]
  00037	8b 7d 0c	 mov	 edi, DWORD PTR _iYPos$[ebp]
  0003a	66 0f 6e 4d 08	 movd	 xmm1, DWORD PTR _iXPos$[ebp]
  0003f	8b 01		 mov	 eax, DWORD PTR [ecx]
  00041	33 db		 xor	 ebx, ebx
  00043	53		 push	 ebx
  00044	53		 push	 ebx
  00045	53		 push	 ebx
  00046	53		 push	 ebx
  00047	51		 push	 ecx
  00048	51		 push	 ecx
  00049	0f 57 c0	 xorps	 xmm0, xmm0
  0004c	f3 0f 2a c7	 cvtsi2ss xmm0, edi
  00050	0f 5b c9	 cvtdq2ps xmm1, xmm1
  00053	f3 0f 11 44 24
	04		 movss	 DWORD PTR [esp+4], xmm0
  00059	f3 0f 11 85 ec
	fe ff ff	 movss	 DWORD PTR tv583[ebp], xmm0
  00061	f3 0f 11 8d f0
	fe ff ff	 movss	 DWORD PTR tv584[ebp], xmm1
  00069	f3 0f 11 0c 24	 movss	 DWORD PTR [esp], xmm1
  0006e	ff 10		 call	 DWORD PTR [eax]
  00070	8b 8e 98 01 00
	00		 mov	 ecx, DWORD PTR [esi+408]
  00076	53		 push	 ebx
  00077	ff 15 00 00 00
	00		 call	 DWORD PTR __imp_?SetReverseFormatting@ioUIRenderImage@@QAEXW4ReverseFormatting@1@@Z
  0007d	ff b5 f8 fe ff
	ff		 push	 DWORD PTR _rkInfo$GSCopy$[ebp]
  00083	8b ce		 mov	 ecx, esi
  00085	e8 00 00 00 00	 call	 ?IsDieChar@ioObserverRedWnd@@IAE_NABVioHashString@@@Z ; ioObserverRedWnd::IsDieChar
  0008a	84 c0		 test	 al, al
  0008c	74 37		 je	 SHORT $LN13@OnOtherRen@2

; 436  : 	m_pBlueBack->Render( iXPos, iYPos );
; 437  : 	m_pBlueBack->SetReverseFormatting( ioUIRenderImage::RF_NONE_REVERSE );
; 438  : 
; 439  : 	//Gauge or Dead
; 440  : 	if( IsDieChar( rkInfo.m_szName ) )
; 441  : 	{
; 442  : 		m_pRedDead->Render( iXPos+GAUGE_XPOS, iYPos+GAUGE_YPOS );

  0008e	8b 8e a8 01 00
	00		 mov	 ecx, DWORD PTR [esi+424]
  00094	8b 01		 mov	 eax, DWORD PTR [ecx]
  00096	53		 push	 ebx
  00097	53		 push	 ebx
  00098	53		 push	 ebx
  00099	53		 push	 ebx
  0009a	0f 57 c0	 xorps	 xmm0, xmm0
  0009d	8d 57 02	 lea	 edx, DWORD PTR [edi+2]
  000a0	f3 0f 2a c2	 cvtsi2ss xmm0, edx
  000a4	8b 55 08	 mov	 edx, DWORD PTR _iXPos$[ebp]
  000a7	51		 push	 ecx
  000a8	51		 push	 ecx
  000a9	f3 0f 11 44 24
	04		 movss	 DWORD PTR [esp+4], xmm0
  000af	83 c2 1e	 add	 edx, 30			; 0000001eH
  000b2	0f 57 c0	 xorps	 xmm0, xmm0
  000b5	f3 0f 2a c2	 cvtsi2ss xmm0, edx
  000b9	f3 0f 11 04 24	 movss	 DWORD PTR [esp], xmm0
  000be	ff 10		 call	 DWORD PTR [eax]

; 443  : 	}
; 444  : 	else

  000c0	e9 b3 01 00 00	 jmp	 $LN12@OnOtherRen@2
$LN13@OnOtherRen@2:

; 445  : 	{
; 446  : 		float fHPRate = GetCurHPRate( rkInfo.m_szName );

  000c5	8b 8e 90 01 00
	00		 mov	 ecx, DWORD PTR [esi+400]
  000cb	3b cb		 cmp	 ecx, ebx
  000cd	75 26		 jne	 SHORT $LN18@OnOtherRen@2
  000cf	b8 01 00 00 00	 mov	 eax, 1
  000d4	89 85 fc fe ff
	ff		 mov	 DWORD PTR tv696[ebp], eax
  000da	db 85 fc fe ff
	ff		 fild	 DWORD PTR tv696[ebp]
$LN47@OnOtherRen@2:
  000e0	85 c0		 test	 eax, eax
  000e2	79 06		 jns	 SHORT $LN44@OnOtherRen@2
  000e4	d8 05 00 00 00
	00		 fadd	 DWORD PTR __real@4f800000
$LN44@OnOtherRen@2:
  000ea	d9 9d fc fe ff
	ff		 fstp	 DWORD PTR _fHPRate$532238[ebp]
  000f0	e9 ff 00 00 00	 jmp	 $LN19@OnOtherRen@2
$LN18@OnOtherRen@2:
  000f5	ff b5 f8 fe ff
	ff		 push	 DWORD PTR _rkInfo$GSCopy$[ebp]
  000fb	e8 00 00 00 00	 call	 ?GetBaseChar@ioPlayStage@@QAEPAVioBaseChar@@ABVioHashString@@@Z ; ioPlayStage::GetBaseChar
  00100	3b c3		 cmp	 eax, ebx
  00102	75 13		 jne	 SHORT $LN17@OnOtherRen@2
  00104	b8 01 00 00 00	 mov	 eax, 1
  00109	89 85 fc fe ff
	ff		 mov	 DWORD PTR tv691[ebp], eax
  0010f	db 85 fc fe ff
	ff		 fild	 DWORD PTR tv691[ebp]
  00115	eb c9		 jmp	 SHORT $LN47@OnOtherRen@2
$LN17@OnOtherRen@2:
  00117	05 c0 00 00 00	 add	 eax, 192		; 000000c0H
  0011c	50		 push	 eax
  0011d	8d 8d 00 ff ff
	ff		 lea	 ecx, DWORD PTR _rkHP$541990[ebp]
  00123	e8 00 00 00 00	 call	 ??0StatusValue@@QAE@ABU0@@Z
  00128	6a 04		 push	 4
  0012a	8d 85 58 ff ff
	ff		 lea	 eax, DWORD PTR _rkHP$541990[ebp+88]
  00130	50		 push	 eax
  00131	8d 85 4c ff ff
	ff		 lea	 eax, DWORD PTR _rkHP$541990[ebp+76]
  00137	50		 push	 eax
  00138	8d 8d 3c ff ff
	ff		 lea	 ecx, DWORD PTR _rkHP$541990[ebp+60]
  0013e	89 5d fc	 mov	 DWORD PTR __$EHRec$[ebp+8], ebx
  00141	e8 00 00 00 00	 call	 ?DecryptByte@ccddaabb@@QBEXPBDPADH@Z ; ccddaabb::DecryptByte
  00146	0f 57 c0	 xorps	 xmm0, xmm0
  00149	0f 2f 85 58 ff
	ff ff		 comiss	 xmm0, DWORD PTR _rkHP$541990[ebp+88]
  00150	72 17		 jb	 SHORT $LN16@OnOtherRen@2
  00152	83 4d fc ff	 or	 DWORD PTR __$EHRec$[ebp+8], -1
  00156	8d 8d 00 ff ff
	ff		 lea	 ecx, DWORD PTR _rkHP$541990[ebp]
  0015c	e8 00 00 00 00	 call	 ??1StatusValue@@QAE@XZ
  00161	0f 57 c0	 xorps	 xmm0, xmm0
  00164	e9 83 00 00 00	 jmp	 $LN46@OnOtherRen@2
$LN16@OnOtherRen@2:
  00169	6a 04		 push	 4
  0016b	8d 85 58 ff ff
	ff		 lea	 eax, DWORD PTR _rkHP$541990[ebp+88]
  00171	50		 push	 eax
  00172	8d 85 4c ff ff
	ff		 lea	 eax, DWORD PTR _rkHP$541990[ebp+76]
  00178	50		 push	 eax
  00179	8d 8d 3c ff ff
	ff		 lea	 ecx, DWORD PTR _rkHP$541990[ebp+60]
  0017f	e8 00 00 00 00	 call	 ?DecryptByte@ccddaabb@@QBEXPBDPADH@Z ; ccddaabb::DecryptByte
  00184	f3 0f 10 85 58
	ff ff ff	 movss	 xmm0, DWORD PTR _rkHP$541990[ebp+88]
  0018c	6a 04		 push	 4
  0018e	8d 85 28 ff ff
	ff		 lea	 eax, DWORD PTR _rkHP$541990[ebp+40]
  00194	50		 push	 eax
  00195	8d 85 1c ff ff
	ff		 lea	 eax, DWORD PTR _rkHP$541990[ebp+28]
  0019b	50		 push	 eax
  0019c	8d 8d 0c ff ff
	ff		 lea	 ecx, DWORD PTR _rkHP$541990[ebp+12]
  001a2	f3 0f 11 85 fc
	fe ff ff	 movss	 DWORD PTR $T541961[ebp], xmm0
  001aa	e8 00 00 00 00	 call	 ?DecryptByte@ccddaabb@@QBEXPBDPADH@Z ; ccddaabb::DecryptByte
  001af	f3 0f 10 8d fc
	fe ff ff	 movss	 xmm1, DWORD PTR $T541961[ebp]
  001b7	f3 0f 10 85 28
	ff ff ff	 movss	 xmm0, DWORD PTR _rkHP$541990[ebp+40]
  001bf	83 4d fc ff	 or	 DWORD PTR __$EHRec$[ebp+8], -1
  001c3	0f 5a c0	 cvtps2pd xmm0, xmm0
  001c6	0f 5a c9	 cvtps2pd xmm1, xmm1
  001c9	f2 0f 5e c1	 divsd	 xmm0, xmm1
  001cd	66 0f 5a c0	 cvtpd2ps xmm0, xmm0
  001d1	8d 8d 00 ff ff
	ff		 lea	 ecx, DWORD PTR _rkHP$541990[ebp]
  001d7	f3 0f 11 85 fc
	fe ff ff	 movss	 DWORD PTR $T541962[ebp], xmm0
  001df	e8 00 00 00 00	 call	 ??1StatusValue@@QAE@XZ
  001e4	f3 0f 10 85 fc
	fe ff ff	 movss	 xmm0, DWORD PTR $T541962[ebp]
$LN46@OnOtherRen@2:
  001ec	f3 0f 11 85 fc
	fe ff ff	 movss	 DWORD PTR _fHPRate$532238[ebp], xmm0
$LN19@OnOtherRen@2:

; 447  : 		int iSize = m_pRedGauge->GetWidth();

  001f4	8b 8e a4 01 00
	00		 mov	 ecx, DWORD PTR [esi+420]
  001fa	ff 15 00 00 00
	00		 call	 DWORD PTR __imp_?GetWidth@ioUIRenderElement@@QBEHXZ

; 448  : 		int iEnd = (float)iSize * fHPRate;

  00200	f3 0f 10 8d fc
	fe ff ff	 movss	 xmm1, DWORD PTR _fHPRate$532238[ebp]

; 449  : 
; 450  : 		m_pBlueGauge->SetReverseFormatting( ioUIRenderImage::RF_HORZ_REVERSE );

  00208	8b 8e a0 01 00
	00		 mov	 ecx, DWORD PTR [esi+416]
  0020e	0f 57 c0	 xorps	 xmm0, xmm0
  00211	f3 0f 2a c0	 cvtsi2ss xmm0, eax
  00215	0f 5a c0	 cvtps2pd xmm0, xmm0
  00218	0f 5a c9	 cvtps2pd xmm1, xmm1
  0021b	f2 0f 59 c1	 mulsd	 xmm0, xmm1
  0021f	f2 0f 2c c0	 cvttsd2si eax, xmm0
  00223	6a 01		 push	 1
  00225	89 85 fc fe ff
	ff		 mov	 DWORD PTR _iEnd$532240[ebp], eax
  0022b	ff 15 00 00 00
	00		 call	 DWORD PTR __imp_?SetReverseFormatting@ioUIRenderImage@@QAEXW4ReverseFormatting@1@@Z

; 451  : 		m_pBlueGauge->RenderWidthCut( iXPos+GAUGE_XPOS, iYPos+GAUGE_YPOS, 0, iEnd );

  00231	53		 push	 ebx
  00232	53		 push	 ebx
  00233	53		 push	 ebx
  00234	ff b5 fc fe ff
	ff		 push	 DWORD PTR _iEnd$532240[ebp]
  0023a	0f 57 c0	 xorps	 xmm0, xmm0
  0023d	53		 push	 ebx
  0023e	8d 47 02	 lea	 eax, DWORD PTR [edi+2]
  00241	f3 0f 2a c0	 cvtsi2ss xmm0, eax
  00245	8b 45 08	 mov	 eax, DWORD PTR _iXPos$[ebp]
  00248	51		 push	 ecx
  00249	51		 push	 ecx
  0024a	8b 8e a0 01 00
	00		 mov	 ecx, DWORD PTR [esi+416]
  00250	f3 0f 11 44 24
	04		 movss	 DWORD PTR [esp+4], xmm0
  00256	83 c0 1e	 add	 eax, 30			; 0000001eH
  00259	0f 57 c0	 xorps	 xmm0, xmm0
  0025c	f3 0f 2a c0	 cvtsi2ss xmm0, eax
  00260	f3 0f 11 04 24	 movss	 DWORD PTR [esp], xmm0
  00265	ff 15 00 00 00
	00		 call	 DWORD PTR __imp_?RenderWidthCut@ioUIRenderImage@@QAEXMMHHW4UIRenderType@@W4TextureFilterOption@@0@Z

; 452  : 		m_pBlueGauge->SetReverseFormatting( ioUIRenderImage::RF_NONE_REVERSE );

  0026b	8b 8e a0 01 00
	00		 mov	 ecx, DWORD PTR [esi+416]
  00271	53		 push	 ebx
  00272	ff 15 00 00 00
	00		 call	 DWORD PTR __imp_?SetReverseFormatting@ioUIRenderImage@@QAEXW4ReverseFormatting@1@@Z
$LN12@OnOtherRen@2:

; 453  : 	}
; 454  : 
; 455  : 	//Key
; 456  : 	if( IsTarget( rkInfo.m_szName ) && m_pTargetMark )

  00278	ff b5 f8 fe ff
	ff		 push	 DWORD PTR _rkInfo$GSCopy$[ebp]
  0027e	8b ce		 mov	 ecx, esi
  00280	e8 00 00 00 00	 call	 ?IsTarget@ioObserverRedWnd@@IAE_NABVioHashString@@@Z ; ioObserverRedWnd::IsTarget
  00285	84 c0		 test	 al, al
  00287	0f 84 9d 00 00
	00		 je	 $LN11@OnOtherRen@2
  0028d	8b 8e f0 01 00
	00		 mov	 ecx, DWORD PTR [esi+496]
  00293	3b cb		 cmp	 ecx, ebx
  00295	0f 84 8f 00 00
	00		 je	 $LN11@OnOtherRen@2

; 457  : 	{
; 458  : 		m_pTargetMark->SetReverseFormatting( ioUIRenderImage::RF_HORZ_REVERSE );

  0029b	6a 01		 push	 1
  0029d	ff 15 00 00 00
	00		 call	 DWORD PTR __imp_?SetReverseFormatting@ioUIRenderImage@@QAEXW4ReverseFormatting@1@@Z

; 459  : 		m_pTargetMark->Render( iXPos+146, iYPos+8 );

  002a3	8b 8e f0 01 00
	00		 mov	 ecx, DWORD PTR [esi+496]
  002a9	53		 push	 ebx
  002aa	53		 push	 ebx
  002ab	53		 push	 ebx
  002ac	8d 47 08	 lea	 eax, DWORD PTR [edi+8]
  002af	0f 57 c0	 xorps	 xmm0, xmm0
  002b2	f3 0f 2a c0	 cvtsi2ss xmm0, eax
  002b6	8b 45 08	 mov	 eax, DWORD PTR _iXPos$[ebp]
  002b9	53		 push	 ebx
  002ba	05 92 00 00 00	 add	 eax, 146		; 00000092H
  002bf	51		 push	 ecx
  002c0	51		 push	 ecx
  002c1	0f 57 c9	 xorps	 xmm1, xmm1
  002c4	f3 0f 2a c8	 cvtsi2ss xmm1, eax
  002c8	8b 01		 mov	 eax, DWORD PTR [ecx]
  002ca	f3 0f 11 44 24
	04		 movss	 DWORD PTR [esp+4], xmm0
  002d0	f3 0f 11 85 fc
	fe ff ff	 movss	 DWORD PTR tv638[ebp], xmm0
  002d8	f3 0f 11 8d f4
	fe ff ff	 movss	 DWORD PTR tv640[ebp], xmm1
  002e0	f3 0f 11 0c 24	 movss	 DWORD PTR [esp], xmm1
  002e5	ff 10		 call	 DWORD PTR [eax]

; 460  : 
; 461  : 		if( m_bCheckMark )

  002e7	38 9e f8 01 00
	00		 cmp	 BYTE PTR [esi+504], bl
  002ed	74 2c		 je	 SHORT $LN10@OnOtherRen@2

; 462  : 			m_pTargetMark->Render( iXPos+146, iYPos+8, UI_RENDER_SCREEN );

  002ef	8b 8e f0 01 00
	00		 mov	 ecx, DWORD PTR [esi+496]
  002f5	f3 0f 10 85 fc
	fe ff ff	 movss	 xmm0, DWORD PTR tv638[ebp]
  002fd	8b 01		 mov	 eax, DWORD PTR [ecx]
  002ff	53		 push	 ebx
  00300	53		 push	 ebx
  00301	53		 push	 ebx
  00302	6a 01		 push	 1
  00304	51		 push	 ecx
  00305	51		 push	 ecx
  00306	f3 0f 11 44 24
	04		 movss	 DWORD PTR [esp+4], xmm0
  0030c	f3 0f 10 85 f4
	fe ff ff	 movss	 xmm0, DWORD PTR tv640[ebp]
  00314	f3 0f 11 04 24	 movss	 DWORD PTR [esp], xmm0
  00319	ff 10		 call	 DWORD PTR [eax]
$LN10@OnOtherRen@2:

; 463  : 
; 464  : 		m_pTargetMark->SetReverseFormatting( ioUIRenderImage::RF_NONE_REVERSE );

  0031b	8b 8e f0 01 00
	00		 mov	 ecx, DWORD PTR [esi+496]
  00321	53		 push	 ebx
  00322	ff 15 00 00 00
	00		 call	 DWORD PTR __imp_?SetReverseFormatting@ioUIRenderImage@@QAEXW4ReverseFormatting@1@@Z

; 465  : 	}
; 466  : 	else

  00328	eb 63		 jmp	 SHORT $LN6@OnOtherRen@2
$LN11@OnOtherRen@2:

; 467  : 	{
; 468  : 		if( m_pBlueKeyText[iSlot] )

  0032a	8b 85 f4 fe ff
	ff		 mov	 eax, DWORD PTR _iSlot$GSCopy$[ebp]
  00330	8d 84 86 d0 01
	00 00		 lea	 eax, DWORD PTR [esi+eax*4+464]
  00337	89 85 fc fe ff
	ff		 mov	 DWORD PTR tv655[ebp], eax
  0033d	39 18		 cmp	 DWORD PTR [eax], ebx
  0033f	74 4c		 je	 SHORT $LN6@OnOtherRen@2

; 469  : 		{
; 470  : 			if( IsDieChar( rkInfo.m_szName ) )

  00341	ff b5 f8 fe ff
	ff		 push	 DWORD PTR _rkInfo$GSCopy$[ebp]
  00347	8b ce		 mov	 ecx, esi
  00349	e8 00 00 00 00	 call	 ?IsDieChar@ioObserverRedWnd@@IAE_NABVioHashString@@@Z ; ioObserverRedWnd::IsDieChar

; 471  : 				m_pBlueKeyText[iSlot]->Render( iXPos+KEY_XPOS, iYPos+KEY_YPOS, UI_RENDER_GRAY );

  0034e	8d 57 0c	 lea	 edx, DWORD PTR [edi+12]
  00351	0f 57 c0	 xorps	 xmm0, xmm0
  00354	f3 0f 2a c2	 cvtsi2ss xmm0, edx
  00358	8b 55 08	 mov	 edx, DWORD PTR _iXPos$[ebp]
  0035b	81 c2 92 00 00
	00		 add	 edx, 146		; 00000092H
  00361	84 c0		 test	 al, al
  00363	8b 85 fc fe ff
	ff		 mov	 eax, DWORD PTR tv655[ebp]
  00369	8b 08		 mov	 ecx, DWORD PTR [eax]
  0036b	8b 01		 mov	 eax, DWORD PTR [ecx]
  0036d	53		 push	 ebx
  0036e	53		 push	 ebx
  0036f	53		 push	 ebx
  00370	74 04		 je	 SHORT $LN7@OnOtherRen@2
  00372	6a 02		 push	 2

; 472  : 			else

  00374	eb 01		 jmp	 SHORT $LN48@OnOtherRen@2
$LN7@OnOtherRen@2:

; 473  : 				m_pBlueKeyText[iSlot]->Render( iXPos+KEY_XPOS, iYPos+KEY_YPOS );

  00376	53		 push	 ebx
$LN48@OnOtherRen@2:
  00377	51		 push	 ecx
  00378	51		 push	 ecx
  00379	f3 0f 11 44 24
	04		 movss	 DWORD PTR [esp+4], xmm0
  0037f	0f 57 c0	 xorps	 xmm0, xmm0
  00382	f3 0f 2a c2	 cvtsi2ss xmm0, edx
  00386	f3 0f 11 04 24	 movss	 DWORD PTR [esp], xmm0
  0038b	ff 10		 call	 DWORD PTR [eax]
$LN6@OnOtherRen@2:

; 474  : 		}
; 475  : 	}
; 476  : 
; 477  : 	// Guild Mark
; 478  : 	if( m_pGuildBack )

  0038d	39 9e 94 01 00
	00		 cmp	 DWORD PTR [esi+404], ebx
  00393	74 5e		 je	 SHORT $LN5@OnOtherRen@2

; 479  : 	{
; 480  : 		m_pGuildBack->SetSize( 23, 23 );

  00395	8b 8e 94 01 00
	00		 mov	 ecx, DWORD PTR [esi+404]
  0039b	8b 01		 mov	 eax, DWORD PTR [ecx]
  0039d	6a 17		 push	 23			; 00000017H
  0039f	6a 17		 push	 23			; 00000017H
  003a1	ff 50 10	 call	 DWORD PTR [eax+16]

; 481  : 		m_pGuildBack->SetHorzFormatting( ioUIRenderImage::HF_STRETCH );

  003a4	8b 8e 94 01 00
	00		 mov	 ecx, DWORD PTR [esi+404]
  003aa	6a 03		 push	 3
  003ac	ff 15 00 00 00
	00		 call	 DWORD PTR __imp_?SetHorzFormatting@ioUIRenderImage@@QAEXW4HorzFormatting@1@@Z

; 482  : 		m_pGuildBack->SetVertFormatting( ioUIRenderImage::VF_STRETCH );

  003b2	8b 8e 94 01 00
	00		 mov	 ecx, DWORD PTR [esi+404]
  003b8	6a 03		 push	 3
  003ba	ff 15 00 00 00
	00		 call	 DWORD PTR __imp_?SetVertFormatting@ioUIRenderImage@@QAEXW4VertFormatting@1@@Z

; 483  : 		m_pGuildBack->Render( iXPos + 4, iYPos + 4, UI_RENDER_MULTIPLY );

  003c0	8b 8e 94 01 00
	00		 mov	 ecx, DWORD PTR [esi+404]
  003c6	8b 01		 mov	 eax, DWORD PTR [ecx]
  003c8	53		 push	 ebx
  003c9	53		 push	 ebx
  003ca	53		 push	 ebx
  003cb	6a 08		 push	 8
  003cd	0f 57 c0	 xorps	 xmm0, xmm0
  003d0	8d 57 04	 lea	 edx, DWORD PTR [edi+4]
  003d3	f3 0f 2a c2	 cvtsi2ss xmm0, edx
  003d7	8b 55 08	 mov	 edx, DWORD PTR _iXPos$[ebp]
  003da	51		 push	 ecx
  003db	51		 push	 ecx
  003dc	f3 0f 11 44 24
	04		 movss	 DWORD PTR [esp+4], xmm0
  003e2	83 c2 04	 add	 edx, 4
  003e5	0f 57 c0	 xorps	 xmm0, xmm0
  003e8	f3 0f 2a c2	 cvtsi2ss xmm0, edx
  003ec	f3 0f 11 04 24	 movss	 DWORD PTR [esp], xmm0
  003f1	ff 10		 call	 DWORD PTR [eax]
$LN5@OnOtherRen@2:

; 484  : 	}
; 485  : 
; 486  : 	if( IsDieChar( rkInfo.m_szName ) )

  003f3	ff b5 f8 fe ff
	ff		 push	 DWORD PTR _rkInfo$GSCopy$[ebp]
  003f9	8b ce		 mov	 ecx, esi
  003fb	e8 00 00 00 00	 call	 ?IsDieChar@ioObserverRedWnd@@IAE_NABVioHashString@@@Z ; ioObserverRedWnd::IsDieChar
  00400	84 c0		 test	 al, al

; 487  : 		g_GuildMarkMgr.RenderMarkSize( 21, 21, rkInfo.m_dwGuildIndex, rkInfo.m_dwGuildMark, iXPos+MARK_XPOS, iYPos+MARK_YPOS, UI_RENDER_GRAY );

  00402	8d 47 05	 lea	 eax, DWORD PTR [edi+5]
  00405	0f 57 c0	 xorps	 xmm0, xmm0
  00408	f3 0f 2a c0	 cvtsi2ss xmm0, eax
  0040c	8b 45 08	 mov	 eax, DWORD PTR _iXPos$[ebp]
  0040f	74 04		 je	 SHORT $LN4@OnOtherRen@2
  00411	6a 02		 push	 2

; 488  : 	else

  00413	eb 01		 jmp	 SHORT $LN49@OnOtherRen@2
$LN4@OnOtherRen@2:

; 489  : 		g_GuildMarkMgr.RenderMarkSize( 21, 21, rkInfo.m_dwGuildIndex, rkInfo.m_dwGuildMark, iXPos+MARK_XPOS, iYPos+MARK_YPOS );

  00415	53		 push	 ebx
$LN49@OnOtherRen@2:
  00416	51		 push	 ecx
  00417	51		 push	 ecx
  00418	f3 0f 11 44 24
	04		 movss	 DWORD PTR [esp+4], xmm0
  0041e	83 c0 05	 add	 eax, 5
  00421	0f 57 c0	 xorps	 xmm0, xmm0
  00424	f3 0f 2a c0	 cvtsi2ss xmm0, eax
  00428	8b 85 f8 fe ff
	ff		 mov	 eax, DWORD PTR _rkInfo$GSCopy$[ebp]
  0042e	f3 0f 11 04 24	 movss	 DWORD PTR [esp], xmm0
  00433	ff 70 5c	 push	 DWORD PTR [eax+92]
  00436	ff 70 58	 push	 DWORD PTR [eax+88]
  00439	6a 15		 push	 21			; 00000015H
  0043b	6a 15		 push	 21			; 00000015H
  0043d	e8 00 00 00 00	 call	 ?GetSingleton@ioGuildMarkMgr@@SAAAV1@XZ ; ioGuildMarkMgr::GetSingleton
  00442	8b c8		 mov	 ecx, eax
  00444	e8 00 00 00 00	 call	 ?RenderMarkSize@ioGuildMarkMgr@@QAEXHHKKMMW4UIRenderType@@@Z ; ioGuildMarkMgr::RenderMarkSize

; 490  : 
; 491  : 	//Name
; 492  : 	g_FontMgr.SetAlignType( TAT_CENTER );

  00449	6a 01		 push	 1
  0044b	ff 15 00 00 00
	00		 call	 DWORD PTR __imp_?GetSingleton@ioFontManager@@SAAAV1@XZ
  00451	8b c8		 mov	 ecx, eax
  00453	ff 15 00 00 00
	00		 call	 DWORD PTR __imp_?SetAlignType@ioFontManager@@QAEXW4TextAlignType@@@Z

; 493  : 	g_FontMgr.SetBkColor( 0, 0, 0 );

  00459	53		 push	 ebx
  0045a	53		 push	 ebx
  0045b	53		 push	 ebx
  0045c	ff 15 00 00 00
	00		 call	 DWORD PTR __imp_?GetSingleton@ioFontManager@@SAAAV1@XZ
  00462	8b c8		 mov	 ecx, eax
  00464	ff 15 00 00 00
	00		 call	 DWORD PTR __imp_?SetBkColor@ioFontManager@@QAEXHHH@Z

; 494  : 
; 495  : 	if( IsDieChar( rkInfo.m_szName ) )

  0046a	ff b5 f8 fe ff
	ff		 push	 DWORD PTR _rkInfo$GSCopy$[ebp]
  00470	8b ce		 mov	 ecx, esi
  00472	e8 00 00 00 00	 call	 ?IsDieChar@ioObserverRedWnd@@IAE_NABVioHashString@@@Z ; ioObserverRedWnd::IsDieChar
  00477	84 c0		 test	 al, al
  00479	74 07		 je	 SHORT $LN2@OnOtherRen@2

; 496  : 		g_FontMgr.SetTextColor( TCT_DEFAULT_GRAY2 );

  0047b	68 80 80 80 ff	 push	 -8355712		; ff808080H

; 497  : 	else

  00480	eb 02		 jmp	 SHORT $LN50@OnOtherRen@2
$LN2@OnOtherRen@2:

; 498  : 		g_FontMgr.SetTextColor( TCT_DEFAULT_WHITE );

  00482	6a ff		 push	 -1
$LN50@OnOtherRen@2:
  00484	ff 15 00 00 00
	00		 call	 DWORD PTR __imp_?GetSingleton@ioFontManager@@SAAAV1@XZ
  0048a	8b c8		 mov	 ecx, eax
  0048c	ff 15 00 00 00
	00		 call	 DWORD PTR __imp_?SetTextColor@ioFontManager@@QAEXK@Z

; 499  : 
; 500  : 	g_FontMgr.SetTextStyle( TS_OUTLINE_FULL_2X );

  00492	6a 05		 push	 5
  00494	ff 15 00 00 00
	00		 call	 DWORD PTR __imp_?GetSingleton@ioFontManager@@SAAAV1@XZ
  0049a	8b c8		 mov	 ecx, eax
  0049c	ff 15 00 00 00
	00		 call	 DWORD PTR __imp_?SetTextStyle@ioFontManager@@QAEXW4TextStyle@@@Z

; 501  : 	g_FontMgr.PrintTextWidthCut( iXPos+NAME_XPOS, iYPos+NAME_YPOS, FONT_SIZE_15, 111.0f, rkInfo.m_szName.c_str() );

  004a2	8b 8d f8 fe ff
	ff		 mov	 ecx, DWORD PTR _rkInfo$GSCopy$[ebp]
  004a8	ff 15 00 00 00
	00		 call	 DWORD PTR __imp_?c_str@ioHashString@@QBEPBDXZ
  004ae	f3 0f 10 05 00
	00 00 00	 movss	 xmm0, DWORD PTR __real@42de0000
  004b6	50		 push	 eax
  004b7	8b 45 08	 mov	 eax, DWORD PTR _iXPos$[ebp]
  004ba	83 ec 10	 sub	 esp, 16			; 00000010H
  004bd	f3 0f 11 44 24
	0c		 movss	 DWORD PTR [esp+12], xmm0
  004c3	f3 0f 10 05 00
	00 00 00	 movss	 xmm0, DWORD PTR __real@3f400000
  004cb	f3 0f 11 44 24
	08		 movss	 DWORD PTR [esp+8], xmm0
  004d1	0f 57 c0	 xorps	 xmm0, xmm0
  004d4	83 c7 04	 add	 edi, 4
  004d7	f3 0f 2a c7	 cvtsi2ss xmm0, edi
  004db	f3 0f 11 44 24
	04		 movss	 DWORD PTR [esp+4], xmm0
  004e1	83 c0 56	 add	 eax, 86			; 00000056H
  004e4	0f 57 c0	 xorps	 xmm0, xmm0
  004e7	f3 0f 2a c0	 cvtsi2ss xmm0, eax
  004eb	f3 0f 11 04 24	 movss	 DWORD PTR [esp], xmm0
  004f0	ff 15 00 00 00
	00		 call	 DWORD PTR __imp_?GetSingleton@ioFontManager@@SAAAV1@XZ
  004f6	50		 push	 eax
  004f7	ff 15 00 00 00
	00		 call	 DWORD PTR __imp_?PrintTextWidthCut@ioFontManager@@QAAXMMMMPBDZZ

; 502  : 
; 503  : 	//Add
; 504  : 	m_pAddGauge->SetReverseFormatting( ioUIRenderImage::RF_HORZ_REVERSE );

  004fd	8b 8e ac 01 00
	00		 mov	 ecx, DWORD PTR [esi+428]
  00503	83 c4 18	 add	 esp, 24			; 00000018H
  00506	6a 01		 push	 1
  00508	ff 15 00 00 00
	00		 call	 DWORD PTR __imp_?SetReverseFormatting@ioUIRenderImage@@QAEXW4ReverseFormatting@1@@Z

; 505  : 	m_pAddGauge->Render( iXPos, iYPos, UI_RENDER_ADD );

  0050e	8b 8e ac 01 00
	00		 mov	 ecx, DWORD PTR [esi+428]
  00514	f3 0f 10 85 ec
	fe ff ff	 movss	 xmm0, DWORD PTR tv583[ebp]
  0051c	8b 01		 mov	 eax, DWORD PTR [ecx]
  0051e	53		 push	 ebx
  0051f	53		 push	 ebx
  00520	53		 push	 ebx
  00521	6a 03		 push	 3
  00523	51		 push	 ecx
  00524	51		 push	 ecx
  00525	f3 0f 11 44 24
	04		 movss	 DWORD PTR [esp+4], xmm0
  0052b	f3 0f 10 85 f0
	fe ff ff	 movss	 xmm0, DWORD PTR tv584[ebp]
  00533	f3 0f 11 04 24	 movss	 DWORD PTR [esp], xmm0
  00538	ff 10		 call	 DWORD PTR [eax]

; 506  : }

  0053a	e8 00 00 00 00	 call	 __EH_epilog3_GS
  0053f	c2 10 00	 ret	 16			; 00000010H
_TEXT	ENDS
;	COMDAT text$x
text$x	SEGMENT
__unwindfunclet$?OnOtherRender@ioObserverRedWnd@@IAEXHHHABURoundInfo@@@Z$0:
  00000	8d 8d 00 ff ff
	ff		 lea	 ecx, DWORD PTR _rkHP$541990[ebp]
  00006	e9 00 00 00 00	 jmp	 ??1StatusValue@@QAE@XZ
__ehhandler$?OnOtherRender@ioObserverRedWnd@@IAEXHHHABURoundInfo@@@Z:
  0000b	8b 54 24 08	 mov	 edx, DWORD PTR [esp+8]
  0000f	8d 42 0c	 lea	 eax, DWORD PTR [edx+12]
  00012	8b 8a e8 fe ff
	ff		 mov	 ecx, DWORD PTR [edx-280]
  00018	33 c8		 xor	 ecx, eax
  0001a	e8 00 00 00 00	 call	 @__security_check_cookie@4
  0001f	8b 4a fc	 mov	 ecx, DWORD PTR [edx-4]
  00022	33 c8		 xor	 ecx, eax
  00024	e8 00 00 00 00	 call	 @__security_check_cookie@4
  00029	b8 00 00 00 00	 mov	 eax, OFFSET __ehfuncinfo$?OnOtherRender@ioObserverRedWnd@@IAEXHHHABURoundInfo@@@Z
  0002e	e9 00 00 00 00	 jmp	 ___CxxFrameHandler3
text$x	ENDS
?OnOtherRender@ioObserverRedWnd@@IAEXHHHABURoundInfo@@@Z ENDP ; ioObserverRedWnd::OnOtherRender
PUBLIC	?OnRender@ioObserverBlueWnd@@MAEXXZ		; ioObserverBlueWnd::OnRender
EXTRN	__imp_?OnRender@ioWnd@@MAEXXZ:PROC
; Function compile flags: /Ogsp
;	COMDAT ?OnRender@ioObserverBlueWnd@@MAEXXZ
_TEXT	SEGMENT
_iXPos$ = -8						; size = 4
tv261 = -4						; size = 4
?OnRender@ioObserverBlueWnd@@MAEXXZ PROC		; ioObserverBlueWnd::OnRender, COMDAT
; _this$ = ecx

; 889  : {

  00000	55		 push	 ebp
  00001	8b ec		 mov	 ebp, esp
  00003	51		 push	 ecx
  00004	51		 push	 ecx
  00005	56		 push	 esi
  00006	8b f1		 mov	 esi, ecx

; 890  : 	ioMovingWnd::OnRender();

  00008	ff 15 00 00 00
	00		 call	 DWORD PTR __imp_?OnRender@ioWnd@@MAEXXZ

; 891  : 
; 892  : 	if( m_RoundInfoList.empty() )

  0000e	8b 86 c8 01 00
	00		 mov	 eax, DWORD PTR [esi+456]
  00014	3b 86 cc 01 00
	00		 cmp	 eax, DWORD PTR [esi+460]
  0001a	74 70		 je	 SHORT $LN3@OnRender

; 893  : 		return;
; 894  : 
; 895  : 	int iXPos, iYPos;
; 896  : 	iXPos = GetDerivedPosX();

  0001c	57		 push	 edi
  0001d	8b ce		 mov	 ecx, esi
  0001f	ff 15 00 00 00
	00		 call	 DWORD PTR __imp_?GetDerivedPosX@ioWnd@@QBEHXZ

; 897  : 	iYPos = GetDerivedPosY();

  00025	8b ce		 mov	 ecx, esi
  00027	89 45 f8	 mov	 DWORD PTR _iXPos$[ebp], eax
  0002a	ff 15 00 00 00
	00		 call	 DWORD PTR __imp_?GetDerivedPosY@ioWnd@@QBEHXZ

; 898  : 
; 899  : 	for( int i=0; i < (int)m_RoundInfoList.size(); ++i )

  00030	8b 8e c8 01 00
	00		 mov	 ecx, DWORD PTR [esi+456]
  00036	8b 96 cc 01 00
	00		 mov	 edx, DWORD PTR [esi+460]
  0003c	2b d1		 sub	 edx, ecx
  0003e	33 ff		 xor	 edi, edi
  00040	f7 c2 80 ff ff
	ff		 test	 edx, -128		; ffffff80H
  00046	7e 43		 jle	 SHORT $LN18@OnRender

; 893  : 		return;
; 894  : 
; 895  : 	int iXPos, iYPos;
; 896  : 	iXPos = GetDerivedPosX();

  00048	53		 push	 ebx
  00049	89 7d fc	 mov	 DWORD PTR tv261[ebp], edi
  0004c	8b d8		 mov	 ebx, eax
$LL17@OnRender:

; 898  : 
; 899  : 	for( int i=0; i < (int)m_RoundInfoList.size(); ++i )

  0004e	8b 45 fc	 mov	 eax, DWORD PTR tv261[ebp]
  00051	03 c1		 add	 eax, ecx

; 900  : 	{
; 901  : 		const RoundInfo &rkInfo = m_RoundInfoList[i];
; 902  : 		int iNewYPos = iYPos + DEFAULT_HEIGHT * i;
; 903  : 
; 904  : 		if( rkInfo.m_Team == TEAM_BLUE )

  00053	83 78 10 02	 cmp	 DWORD PTR [eax+16], 2

; 905  : 		{
; 906  : 			OnBlueRender( iXPos, iNewYPos, i, rkInfo );

  00057	50		 push	 eax
  00058	57		 push	 edi
  00059	53		 push	 ebx
  0005a	ff 75 f8	 push	 DWORD PTR _iXPos$[ebp]
  0005d	8b ce		 mov	 ecx, esi
  0005f	75 07		 jne	 SHORT $LN2@OnRender
  00061	e8 00 00 00 00	 call	 ?OnBlueRender@ioObserverBlueWnd@@IAEXHHHABURoundInfo@@@Z ; ioObserverBlueWnd::OnBlueRender

; 907  : 		}
; 908  : 		else

  00066	eb 05		 jmp	 SHORT $LN4@OnRender
$LN2@OnRender:

; 909  : 		{
; 910  : 			OnOtherRender( iXPos, iNewYPos, i, rkInfo );

  00068	e8 00 00 00 00	 call	 ?OnOtherRender@ioObserverBlueWnd@@IAEXHHHABURoundInfo@@@Z ; ioObserverBlueWnd::OnOtherRender
$LN4@OnRender:

; 898  : 
; 899  : 	for( int i=0; i < (int)m_RoundInfoList.size(); ++i )

  0006d	8b 8e c8 01 00
	00		 mov	 ecx, DWORD PTR [esi+456]
  00073	8b 86 cc 01 00
	00		 mov	 eax, DWORD PTR [esi+460]
  00079	83 6d fc 80	 sub	 DWORD PTR tv261[ebp], -128 ; ffffff80H
  0007d	2b c1		 sub	 eax, ecx
  0007f	47		 inc	 edi
  00080	c1 f8 07	 sar	 eax, 7
  00083	83 c3 1f	 add	 ebx, 31			; 0000001fH
  00086	3b f8		 cmp	 edi, eax
  00088	7c c4		 jl	 SHORT $LL17@OnRender
  0008a	5b		 pop	 ebx
$LN18@OnRender:
  0008b	5f		 pop	 edi
$LN3@OnRender:
  0008c	5e		 pop	 esi

; 911  : 		}
; 912  : 	}
; 913  : }

  0008d	c9		 leave
  0008e	c3		 ret	 0
?OnRender@ioObserverBlueWnd@@MAEXXZ ENDP		; ioObserverBlueWnd::OnRender
_TEXT	ENDS
PUBLIC	??$_Destroy_range@V?$allocator@URoundInfo@@@std@@@std@@YAXPAURoundInfo@@0AAV?$allocator@URoundInfo@@@0@@Z ; std::_Destroy_range<std::allocator<RoundInfo> >
; Function compile flags: /Ogsp
; File c:\program files (x86)\microsoft visual studio 10.0\vc\include\xmemory
;	COMDAT ??$_Destroy_range@V?$allocator@URoundInfo@@@std@@@std@@YAXPAURoundInfo@@0AAV?$allocator@URoundInfo@@@0@@Z
_TEXT	SEGMENT
__First$ = 8						; size = 4
__Last$ = 12						; size = 4
__Al$ = 16						; size = 4
??$_Destroy_range@V?$allocator@URoundInfo@@@std@@@std@@YAXPAURoundInfo@@0AAV?$allocator@URoundInfo@@@0@@Z PROC ; std::_Destroy_range<std::allocator<RoundInfo> >, COMDAT

; 87   : 	{	// destroy [_First, _Last)

  00000	55		 push	 ebp
  00001	8b ec		 mov	 ebp, esp
  00003	56		 push	 esi

; 88   : 	_Destroy_range(_First, _Last, _Al, _Ptr_cat(_First, _Last));

  00004	8b 75 08	 mov	 esi, DWORD PTR __First$[ebp]
  00007	eb 0a		 jmp	 SHORT $LN21@Destroy_ra@2
$LL7@Destroy_ra@2:
  00009	8b ce		 mov	 ecx, esi
  0000b	e8 00 00 00 00	 call	 ??1RoundInfo@@QAE@XZ
  00010	83 ee 80	 sub	 esi, -128		; ffffff80H
$LN21@Destroy_ra@2:
  00013	3b 75 0c	 cmp	 esi, DWORD PTR __Last$[ebp]
  00016	75 f1		 jne	 SHORT $LL7@Destroy_ra@2
  00018	5e		 pop	 esi

; 89   : 	}

  00019	5d		 pop	 ebp
  0001a	c3		 ret	 0
??$_Destroy_range@V?$allocator@URoundInfo@@@std@@@std@@YAXPAURoundInfo@@0AAV?$allocator@URoundInfo@@@0@@Z ENDP ; std::_Destroy_range<std::allocator<RoundInfo> >
_TEXT	ENDS
PUBLIC	??$_Umove@PAURoundInfo@@@?$vector@URoundInfo@@V?$allocator@URoundInfo@@@std@@@std@@IAEPAURoundInfo@@PAU2@00@Z ; std::vector<RoundInfo,std::allocator<RoundInfo> >::_Umove<RoundInfo *>
; Function compile flags: /Ogsp
; File c:\program files (x86)\microsoft visual studio 10.0\vc\include\vector
;	COMDAT ??$_Umove@PAURoundInfo@@@?$vector@URoundInfo@@V?$allocator@URoundInfo@@@std@@@std@@IAEPAURoundInfo@@PAU2@00@Z
_TEXT	SEGMENT
__First$ = 8						; size = 4
__Last$ = 12						; size = 4
__Ptr$ = 16						; size = 4
??$_Umove@PAURoundInfo@@@?$vector@URoundInfo@@V?$allocator@URoundInfo@@@std@@@std@@IAEPAURoundInfo@@PAU2@00@Z PROC ; std::vector<RoundInfo,std::allocator<RoundInfo> >::_Umove<RoundInfo *>, COMDAT
; _this$ = ecx

; 1322 : 		pointer _Umove(_Iter _First, _Iter _Last, pointer _Ptr)

  00000	55		 push	 ebp
  00001	8b ec		 mov	 ebp, esp

; 1323 : 		{	// move initializing [_First, _Last), using allocator
; 1324 : 		return (_Uninitialized_move(_First, _Last,
; 1325 : 			_Ptr, this->_Alval));

  00003	83 c1 0c	 add	 ecx, 12			; 0000000cH
  00006	51		 push	 ecx
  00007	ff 75 10	 push	 DWORD PTR __Ptr$[ebp]
  0000a	ff 75 0c	 push	 DWORD PTR __Last$[ebp]
  0000d	ff 75 08	 push	 DWORD PTR __First$[ebp]
  00010	e8 00 00 00 00	 call	 ??$_Uninitialized_move@PAURoundInfo@@PAU1@V?$allocator@URoundInfo@@@std@@@std@@YAPAURoundInfo@@PAU1@00AAV?$allocator@URoundInfo@@@0@@Z ; std::_Uninitialized_move<RoundInfo *,RoundInfo *,std::allocator<RoundInfo> >
  00015	83 c4 10	 add	 esp, 16			; 00000010H

; 1326 : 		}

  00018	5d		 pop	 ebp
  00019	c2 0c 00	 ret	 12			; 0000000cH
??$_Umove@PAURoundInfo@@@?$vector@URoundInfo@@V?$allocator@URoundInfo@@@std@@@std@@IAEPAURoundInfo@@PAU2@00@Z ENDP ; std::vector<RoundInfo,std::allocator<RoundInfo> >::_Umove<RoundInfo *>
_TEXT	ENDS
PUBLIC	?OnRender@ioObserverRedWnd@@MAEXXZ		; ioObserverRedWnd::OnRender
; Function compile flags: /Ogsp
; File d:\lost saga for developer\youtube\tutorial\source\src\lsclient\gui\ioobserverwnd.cpp
;	COMDAT ?OnRender@ioObserverRedWnd@@MAEXXZ
_TEXT	SEGMENT
_iXPos$ = -8						; size = 4
tv261 = -4						; size = 4
?OnRender@ioObserverRedWnd@@MAEXXZ PROC			; ioObserverRedWnd::OnRender, COMDAT
; _this$ = ecx

; 302  : {

  00000	55		 push	 ebp
  00001	8b ec		 mov	 ebp, esp
  00003	51		 push	 ecx
  00004	51		 push	 ecx
  00005	56		 push	 esi
  00006	8b f1		 mov	 esi, ecx

; 303  : 	ioMovingWnd::OnRender();

  00008	ff 15 00 00 00
	00		 call	 DWORD PTR __imp_?OnRender@ioWnd@@MAEXXZ

; 304  : 
; 305  : 	if( m_RoundInfoList.empty() )

  0000e	8b 86 00 02 00
	00		 mov	 eax, DWORD PTR [esi+512]
  00014	3b 86 04 02 00
	00		 cmp	 eax, DWORD PTR [esi+516]
  0001a	74 70		 je	 SHORT $LN3@OnRender@2

; 306  : 		return;
; 307  : 
; 308  : 	int iXPos, iYPos;
; 309  : 	iXPos = GetDerivedPosX();

  0001c	57		 push	 edi
  0001d	8b ce		 mov	 ecx, esi
  0001f	ff 15 00 00 00
	00		 call	 DWORD PTR __imp_?GetDerivedPosX@ioWnd@@QBEHXZ

; 310  : 	iYPos = GetDerivedPosY();

  00025	8b ce		 mov	 ecx, esi
  00027	89 45 f8	 mov	 DWORD PTR _iXPos$[ebp], eax
  0002a	ff 15 00 00 00
	00		 call	 DWORD PTR __imp_?GetDerivedPosY@ioWnd@@QBEHXZ

; 311  : 
; 312  : 	for( int i=0; i < (int)m_RoundInfoList.size(); ++i )

  00030	8b 8e 00 02 00
	00		 mov	 ecx, DWORD PTR [esi+512]
  00036	8b 96 04 02 00
	00		 mov	 edx, DWORD PTR [esi+516]
  0003c	2b d1		 sub	 edx, ecx
  0003e	33 ff		 xor	 edi, edi
  00040	f7 c2 80 ff ff
	ff		 test	 edx, -128		; ffffff80H
  00046	7e 43		 jle	 SHORT $LN18@OnRender@2

; 306  : 		return;
; 307  : 
; 308  : 	int iXPos, iYPos;
; 309  : 	iXPos = GetDerivedPosX();

  00048	53		 push	 ebx
  00049	89 7d fc	 mov	 DWORD PTR tv261[ebp], edi
  0004c	8b d8		 mov	 ebx, eax
$LL17@OnRender@2:

; 311  : 
; 312  : 	for( int i=0; i < (int)m_RoundInfoList.size(); ++i )

  0004e	8b 45 fc	 mov	 eax, DWORD PTR tv261[ebp]
  00051	03 c1		 add	 eax, ecx

; 313  : 	{
; 314  : 		const RoundInfo &rkInfo = m_RoundInfoList[i];
; 315  : 		int iNewYPos = iYPos + DEFAULT_HEIGHT * i;
; 316  : 
; 317  : 		if( rkInfo.m_Team == TEAM_BLUE )

  00053	83 78 10 02	 cmp	 DWORD PTR [eax+16], 2

; 318  : 		{
; 319  : 			OnOtherRender( iXPos, iNewYPos, i, rkInfo );

  00057	50		 push	 eax
  00058	57		 push	 edi
  00059	53		 push	 ebx
  0005a	ff 75 f8	 push	 DWORD PTR _iXPos$[ebp]
  0005d	8b ce		 mov	 ecx, esi
  0005f	75 07		 jne	 SHORT $LN2@OnRender@2
  00061	e8 00 00 00 00	 call	 ?OnOtherRender@ioObserverRedWnd@@IAEXHHHABURoundInfo@@@Z ; ioObserverRedWnd::OnOtherRender

; 320  : 		}
; 321  : 		else

  00066	eb 05		 jmp	 SHORT $LN4@OnRender@2
$LN2@OnRender@2:

; 322  : 		{
; 323  : 			OnRedRender( iXPos, iNewYPos, i, rkInfo );

  00068	e8 00 00 00 00	 call	 ?OnRedRender@ioObserverRedWnd@@IAEXHHHABURoundInfo@@@Z ; ioObserverRedWnd::OnRedRender
$LN4@OnRender@2:

; 311  : 
; 312  : 	for( int i=0; i < (int)m_RoundInfoList.size(); ++i )

  0006d	8b 8e 00 02 00
	00		 mov	 ecx, DWORD PTR [esi+512]
  00073	8b 86 04 02 00
	00		 mov	 eax, DWORD PTR [esi+516]
  00079	83 6d fc 80	 sub	 DWORD PTR tv261[ebp], -128 ; ffffff80H
  0007d	2b c1		 sub	 eax, ecx
  0007f	47		 inc	 edi
  00080	c1 f8 07	 sar	 eax, 7
  00083	83 c3 1f	 add	 ebx, 31			; 0000001fH
  00086	3b f8		 cmp	 edi, eax
  00088	7c c4		 jl	 SHORT $LL17@OnRender@2
  0008a	5b		 pop	 ebx
$LN18@OnRender@2:
  0008b	5f		 pop	 edi
$LN3@OnRender@2:
  0008c	5e		 pop	 esi

; 324  : 		}
; 325  : 
; 326  : 
; 327  : 	}
; 328  : }

  0008d	c9		 leave
  0008e	c3		 ret	 0
?OnRender@ioObserverRedWnd@@MAEXXZ ENDP			; ioObserverRedWnd::OnRender
_TEXT	ENDS
PUBLIC	?_Destroy@?$vector@URoundInfo@@V?$allocator@URoundInfo@@@std@@@std@@IAEXPAURoundInfo@@0@Z ; std::vector<RoundInfo,std::allocator<RoundInfo> >::_Destroy
; Function compile flags: /Ogsp
; File c:\program files (x86)\microsoft visual studio 10.0\vc\include\vector
;	COMDAT ?_Destroy@?$vector@URoundInfo@@V?$allocator@URoundInfo@@@std@@@std@@IAEXPAURoundInfo@@0@Z
_TEXT	SEGMENT
__First$ = 8						; size = 4
__Last$ = 12						; size = 4
?_Destroy@?$vector@URoundInfo@@V?$allocator@URoundInfo@@@std@@@std@@IAEXPAURoundInfo@@0@Z PROC ; std::vector<RoundInfo,std::allocator<RoundInfo> >::_Destroy, COMDAT
; _this$ = ecx

; 1269 : 		{	// destroy [_First, _Last) using allocator

  00000	55		 push	 ebp
  00001	8b ec		 mov	 ebp, esp
  00003	56		 push	 esi

; 1270 : 		_Destroy_range(_First, _Last, this->_Alval);

  00004	8b 75 08	 mov	 esi, DWORD PTR __First$[ebp]
  00007	eb 0a		 jmp	 SHORT $LN23@Destroy
$LL9@Destroy:
  00009	8b ce		 mov	 ecx, esi
  0000b	e8 00 00 00 00	 call	 ??1RoundInfo@@QAE@XZ
  00010	83 ee 80	 sub	 esi, -128		; ffffff80H
$LN23@Destroy:
  00013	3b 75 0c	 cmp	 esi, DWORD PTR __Last$[ebp]
  00016	75 f1		 jne	 SHORT $LL9@Destroy
  00018	5e		 pop	 esi

; 1271 : 		}

  00019	5d		 pop	 ebp
  0001a	c2 08 00	 ret	 8
?_Destroy@?$vector@URoundInfo@@V?$allocator@URoundInfo@@@std@@@std@@IAEXPAURoundInfo@@0@Z ENDP ; std::vector<RoundInfo,std::allocator<RoundInfo> >::_Destroy
_TEXT	ENDS
PUBLIC	?_Tidy@?$vector@URoundInfo@@V?$allocator@URoundInfo@@@std@@@std@@IAEXXZ ; std::vector<RoundInfo,std::allocator<RoundInfo> >::_Tidy
EXTRN	__imp_?_Orphan_all@_Container_base0@std@@QAEXXZ:PROC
; Function compile flags: /Ogsp
;	COMDAT ?_Tidy@?$vector@URoundInfo@@V?$allocator@URoundInfo@@@std@@@std@@IAEXXZ
_TEXT	SEGMENT
?_Tidy@?$vector@URoundInfo@@V?$allocator@URoundInfo@@@std@@@std@@IAEXXZ PROC ; std::vector<RoundInfo,std::allocator<RoundInfo> >::_Tidy, COMDAT
; _this$ = ecx

; 1301 : 		{	// free all storage

  00000	56		 push	 esi
  00001	8b f1		 mov	 esi, ecx

; 1302 : 		if (this->_Myfirst != 0)

  00003	83 3e 00	 cmp	 DWORD PTR [esi], 0
  00006	74 27		 je	 SHORT $LN24@Tidy

; 1303 : 			{	// something to free, destroy and deallocate it
; 1304 : 			this->_Orphan_all();

  00008	53		 push	 ebx
  00009	57		 push	 edi
  0000a	ff 15 00 00 00
	00		 call	 DWORD PTR __imp_?_Orphan_all@_Container_base0@std@@QAEXXZ

; 1305 : 			_Destroy(this->_Myfirst, this->_Mylast);

  00010	8b 5e 04	 mov	 ebx, DWORD PTR [esi+4]
  00013	8b 3e		 mov	 edi, DWORD PTR [esi]
  00015	eb 0a		 jmp	 SHORT $LN28@Tidy
$LL12@Tidy:
  00017	8b cf		 mov	 ecx, edi
  00019	e8 00 00 00 00	 call	 ??1RoundInfo@@QAE@XZ
  0001e	83 ef 80	 sub	 edi, -128		; ffffff80H
$LN28@Tidy:
  00021	3b fb		 cmp	 edi, ebx
  00023	75 f2		 jne	 SHORT $LL12@Tidy

; 1306 : 			this->_Alval.deallocate(this->_Myfirst,
; 1307 : 				this->_Myend - this->_Myfirst);

  00025	ff 36		 push	 DWORD PTR [esi]
  00027	e8 00 00 00 00	 call	 ??3@YAXPAX@Z		; operator delete
  0002c	59		 pop	 ecx
  0002d	5f		 pop	 edi
  0002e	5b		 pop	 ebx
$LN24@Tidy:

; 1308 : 			}
; 1309 : 		this->_Myfirst = 0;

  0002f	33 c0		 xor	 eax, eax
  00031	89 06		 mov	 DWORD PTR [esi], eax

; 1310 : 		this->_Mylast = 0;

  00033	89 46 04	 mov	 DWORD PTR [esi+4], eax

; 1311 : 		this->_Myend = 0;

  00036	89 46 08	 mov	 DWORD PTR [esi+8], eax
  00039	5e		 pop	 esi

; 1312 : 		}

  0003a	c3		 ret	 0
?_Tidy@?$vector@URoundInfo@@V?$allocator@URoundInfo@@@std@@@std@@IAEXXZ ENDP ; std::vector<RoundInfo,std::allocator<RoundInfo> >::_Tidy
_TEXT	ENDS
PUBLIC	?reserve@?$vector@URoundInfo@@V?$allocator@URoundInfo@@@std@@@std@@QAEXI@Z ; std::vector<RoundInfo,std::allocator<RoundInfo> >::reserve
;	COMDAT xdata$x
; File c:\program files (x86)\microsoft visual studio 10.0\vc\include\xmemory
xdata$x	SEGMENT
__catchsym$?reserve@?$vector@URoundInfo@@V?$allocator@URoundInfo@@@std@@@std@@QAEXI@Z$2 DD 040H
	DD	00H
	DD	00H
	DD	FLAT:__catch$?reserve@?$vector@URoundInfo@@V?$allocator@URoundInfo@@@std@@@std@@QAEXI@Z$0
__unwindtable$?reserve@?$vector@URoundInfo@@V?$allocator@URoundInfo@@@std@@@std@@QAEXI@Z DD 0ffffffffH
	DD	00H
	DD	0ffffffffH
	DD	00H
__tryblocktable$?reserve@?$vector@URoundInfo@@V?$allocator@URoundInfo@@@std@@@std@@QAEXI@Z DD 00H
	DD	00H
	DD	01H
	DD	01H
	DD	FLAT:__catchsym$?reserve@?$vector@URoundInfo@@V?$allocator@URoundInfo@@@std@@@std@@QAEXI@Z$2
__ehfuncinfo$?reserve@?$vector@URoundInfo@@V?$allocator@URoundInfo@@@std@@@std@@QAEXI@Z DD 019930522H
	DD	02H
	DD	FLAT:__unwindtable$?reserve@?$vector@URoundInfo@@V?$allocator@URoundInfo@@@std@@@std@@QAEXI@Z
	DD	01H
	DD	FLAT:__tryblocktable$?reserve@?$vector@URoundInfo@@V?$allocator@URoundInfo@@@std@@@std@@QAEXI@Z
	DD	2 DUP(00H)
	DD	00H
	DD	01H
; Function compile flags: /Ogsp
; File c:\program files (x86)\microsoft visual studio 10.0\vc\include\vector
xdata$x	ENDS
;	COMDAT ?reserve@?$vector@URoundInfo@@V?$allocator@URoundInfo@@@std@@@std@@QAEXI@Z
_TEXT	SEGMENT
tv300 = -24						; size = 4
__Ptr$532992 = -20					; size = 4
__$EHRec$ = -16						; size = 16
$T542376 = 8						; size = 4
__Count$ = 8						; size = 4
?reserve@?$vector@URoundInfo@@V?$allocator@URoundInfo@@@std@@@std@@QAEXI@Z PROC ; std::vector<RoundInfo,std::allocator<RoundInfo> >::reserve, COMDAT
; _this$ = ecx

; 746  : 		{	// determine new minimum length of allocated storage

  00000	6a 0c		 push	 12			; 0000000cH
  00002	b8 00 00 00 00	 mov	 eax, __ehhandler$?reserve@?$vector@URoundInfo@@V?$allocator@URoundInfo@@@std@@@std@@QAEXI@Z
  00007	e8 00 00 00 00	 call	 __EH_prolog3_catch
  0000c	8b f1		 mov	 esi, ecx

; 747  : 		if (max_size() < _Count)

  0000e	8b 5d 08	 mov	 ebx, DWORD PTR __Count$[ebp]
  00011	81 fb ff ff ff
	01		 cmp	 ebx, 33554431		; 01ffffffH
  00017	76 0b		 jbe	 SHORT $LN5@reserve

; 748  : 			_Xlen();	// result too long

  00019	68 00 00 00 00	 push	 OFFSET ??_C@_0BD@OLBABOEK@vector?$DMT?$DO?5too?5long?$AA@
  0001e	ff 15 00 00 00
	00		 call	 DWORD PTR __imp_?_Xlength_error@std@@YAXPBD@Z
$LN59@reserve:
$LN5@reserve:

; 749  : 		else if (capacity() < _Count)

  00024	8b 46 08	 mov	 eax, DWORD PTR [esi+8]
  00027	2b 06		 sub	 eax, DWORD PTR [esi]
  00029	c1 f8 07	 sar	 eax, 7
  0002c	3b c3		 cmp	 eax, ebx
  0002e	73 79		 jae	 SHORT $LN3@reserve

; 750  : 			{	// not enough room, reallocate
; 751  : 			pointer _Ptr = this->_Alval.allocate(_Count);

  00030	6a 00		 push	 0
  00032	53		 push	 ebx
  00033	e8 00 00 00 00	 call	 ??$_Allocate@URoundInfo@@@std@@YAPAURoundInfo@@IPAU1@@Z ; std::_Allocate<RoundInfo>

; 752  : 
; 753  : 			_TRY_BEGIN
; 754  : 			_Umove(this->_Myfirst, this->_Mylast, _Ptr);

  00038	8b 0e		 mov	 ecx, DWORD PTR [esi]
  0003a	83 65 fc 00	 and	 DWORD PTR __$EHRec$[ebp+12], 0
  0003e	8d 56 0c	 lea	 edx, DWORD PTR [esi+12]
  00041	52		 push	 edx
  00042	89 45 ec	 mov	 DWORD PTR __Ptr$532992[ebp], eax
  00045	ff 75 ec	 push	 DWORD PTR __Ptr$532992[ebp]
  00048	8b 46 04	 mov	 eax, DWORD PTR [esi+4]
  0004b	50		 push	 eax
  0004c	51		 push	 ecx
  0004d	e8 00 00 00 00	 call	 ??$_Uninitialized_move@PAURoundInfo@@PAU1@V?$allocator@URoundInfo@@@std@@@std@@YAPAURoundInfo@@PAU1@00AAV?$allocator@URoundInfo@@@0@@Z ; std::_Uninitialized_move<RoundInfo *,RoundInfo *,std::allocator<RoundInfo> >

; 758  : 			_CATCH_END
; 759  : 
; 760  : 			size_type _Size = size();

  00052	8b 4e 04	 mov	 ecx, DWORD PTR [esi+4]
  00055	8b 06		 mov	 eax, DWORD PTR [esi]
  00057	83 4d fc ff	 or	 DWORD PTR __$EHRec$[ebp+12], -1
  0005b	8b f9		 mov	 edi, ecx
  0005d	83 c4 18	 add	 esp, 24			; 00000018H
  00060	2b f8		 sub	 edi, eax
  00062	89 4d e8	 mov	 DWORD PTR tv300[ebp], ecx
  00065	85 c0		 test	 eax, eax
  00067	74 23		 je	 SHORT $LN51@reserve

; 761  : 			if (this->_Myfirst != 0)
; 762  : 				{	// destroy and deallocate old array
; 763  : 				_Destroy(this->_Myfirst, this->_Mylast);

  00069	89 45 08	 mov	 DWORD PTR $T542376[ebp], eax
  0006c	3b c1		 cmp	 eax, ecx
  0006e	74 14		 je	 SHORT $LN37@reserve
$LN39@reserve:
  00070	8b 4d 08	 mov	 ecx, DWORD PTR $T542376[ebp]
  00073	e8 00 00 00 00	 call	 ??1RoundInfo@@QAE@XZ
  00078	83 6d 08 80	 sub	 DWORD PTR $T542376[ebp], -128 ; ffffff80H
  0007c	8b 45 08	 mov	 eax, DWORD PTR $T542376[ebp]
  0007f	3b 45 e8	 cmp	 eax, DWORD PTR tv300[ebp]
  00082	75 ec		 jne	 SHORT $LN39@reserve
$LN37@reserve:

; 764  : 				this->_Alval.deallocate(this->_Myfirst,
; 765  : 					this->_Myend - this->_Myfirst);

  00084	ff 36		 push	 DWORD PTR [esi]
  00086	e8 00 00 00 00	 call	 ??3@YAXPAX@Z		; operator delete
  0008b	59		 pop	 ecx
$LN51@reserve:

; 766  : 				}
; 767  : 
; 768  : 			this->_Orphan_all();

  0008c	8b ce		 mov	 ecx, esi
  0008e	ff 15 00 00 00
	00		 call	 DWORD PTR __imp_?_Orphan_all@_Container_base0@std@@QAEXXZ

; 769  : 			this->_Myend = _Ptr + _Count;

  00094	8b 45 ec	 mov	 eax, DWORD PTR __Ptr$532992[ebp]
  00097	c1 e3 07	 shl	 ebx, 7
  0009a	03 d8		 add	 ebx, eax

; 770  : 			this->_Mylast = _Ptr + _Size;

  0009c	83 e7 80	 and	 edi, -128		; ffffff80H
  0009f	03 f8		 add	 edi, eax
  000a1	89 5e 08	 mov	 DWORD PTR [esi+8], ebx
  000a4	89 7e 04	 mov	 DWORD PTR [esi+4], edi

; 771  : 			this->_Myfirst = _Ptr;

  000a7	89 06		 mov	 DWORD PTR [esi], eax
$LN3@reserve:

; 772  : 			}
; 773  : 		}

  000a9	e8 00 00 00 00	 call	 __EH_epilog3
  000ae	c2 04 00	 ret	 4
__catch$?reserve@?$vector@URoundInfo@@V?$allocator@URoundInfo@@@std@@@std@@QAEXI@Z$0:

; 755  : 			_CATCH_ALL
; 756  : 			this->_Alval.deallocate(_Ptr, _Count);

  000b1	ff 75 ec	 push	 DWORD PTR __Ptr$532992[ebp]
  000b4	e8 00 00 00 00	 call	 ??3@YAXPAX@Z		; operator delete
  000b9	59		 pop	 ecx

; 757  : 			_RERAISE;

  000ba	6a 00		 push	 0
  000bc	6a 00		 push	 0
  000be	e8 00 00 00 00	 call	 __CxxThrowException@8
$LN60@reserve:
$LN58@reserve:
  000c3	cc		 int	 3
_TEXT	ENDS
;	COMDAT text$x
text$x	SEGMENT
__ehhandler$?reserve@?$vector@URoundInfo@@V?$allocator@URoundInfo@@@std@@@std@@QAEXI@Z:
  00000	8b 54 24 08	 mov	 edx, DWORD PTR [esp+8]
  00004	8d 42 0c	 lea	 eax, DWORD PTR [edx+12]
  00007	8b 4a e4	 mov	 ecx, DWORD PTR [edx-28]
  0000a	33 c8		 xor	 ecx, eax
  0000c	e8 00 00 00 00	 call	 @__security_check_cookie@4
  00011	b8 00 00 00 00	 mov	 eax, OFFSET __ehfuncinfo$?reserve@?$vector@URoundInfo@@V?$allocator@URoundInfo@@@std@@@std@@QAEXI@Z
  00016	e9 00 00 00 00	 jmp	 ___CxxFrameHandler3
text$x	ENDS
?reserve@?$vector@URoundInfo@@V?$allocator@URoundInfo@@@std@@@std@@QAEXI@Z ENDP ; std::vector<RoundInfo,std::allocator<RoundInfo> >::reserve
PUBLIC	??1?$vector@URoundInfo@@V?$allocator@URoundInfo@@@std@@@std@@QAE@XZ ; std::vector<RoundInfo,std::allocator<RoundInfo> >::~vector<RoundInfo,std::allocator<RoundInfo> >
; Function compile flags: /Ogsp
;	COMDAT ??1?$vector@URoundInfo@@V?$allocator@URoundInfo@@@std@@@std@@QAE@XZ
_TEXT	SEGMENT
??1?$vector@URoundInfo@@V?$allocator@URoundInfo@@@std@@@std@@QAE@XZ PROC ; std::vector<RoundInfo,std::allocator<RoundInfo> >::~vector<RoundInfo,std::allocator<RoundInfo> >, COMDAT
; _this$ = ecx

; 705  : 		_Tidy();

  00000	e9 00 00 00 00	 jmp	 ?_Tidy@?$vector@URoundInfo@@V?$allocator@URoundInfo@@@std@@@std@@IAEXXZ ; std::vector<RoundInfo,std::allocator<RoundInfo> >::_Tidy
??1?$vector@URoundInfo@@V?$allocator@URoundInfo@@@std@@@std@@QAE@XZ ENDP ; std::vector<RoundInfo,std::allocator<RoundInfo> >::~vector<RoundInfo,std::allocator<RoundInfo> >
_TEXT	ENDS
PUBLIC	?erase@?$vector@URoundInfo@@V?$allocator@URoundInfo@@@std@@@std@@QAE?AV?$_Vector_iterator@V?$_Vector_val@URoundInfo@@V?$allocator@URoundInfo@@@std@@@std@@@2@V?$_Vector_const_iterator@V?$_Vector_val@URoundInfo@@V?$allocator@URoundInfo@@@std@@@std@@@2@0@Z ; std::vector<RoundInfo,std::allocator<RoundInfo> >::erase
; Function compile flags: /Ogsp
;	COMDAT ?erase@?$vector@URoundInfo@@V?$allocator@URoundInfo@@@std@@@std@@QAE?AV?$_Vector_iterator@V?$_Vector_val@URoundInfo@@V?$allocator@URoundInfo@@@std@@@std@@@2@V?$_Vector_const_iterator@V?$_Vector_val@URoundInfo@@V?$allocator@URoundInfo@@@std@@@std@@@2@0@Z
_TEXT	SEGMENT
$T542578 = -4						; size = 4
___$ReturnUdt$ = 8					; size = 4
__First_arg$ = 12					; size = 4
__Cat$542523 = 16					; size = 1
__Last_arg$ = 16					; size = 4
?erase@?$vector@URoundInfo@@V?$allocator@URoundInfo@@@std@@@std@@QAE?AV?$_Vector_iterator@V?$_Vector_val@URoundInfo@@V?$allocator@URoundInfo@@@std@@@std@@@2@V?$_Vector_const_iterator@V?$_Vector_val@URoundInfo@@V?$allocator@URoundInfo@@@std@@@std@@@2@0@Z PROC ; std::vector<RoundInfo,std::allocator<RoundInfo> >::erase, COMDAT
; _this$ = ecx

; 1190 : 		{	// erase [_First, _Last)

  00000	55		 push	 ebp
  00001	8b ec		 mov	 ebp, esp
  00003	51		 push	 ecx

; 1191 : 		iterator _First = _Make_iter(_First_arg);

  00004	8b 45 08	 mov	 eax, DWORD PTR ___$ReturnUdt$[ebp]
  00007	56		 push	 esi
  00008	8b f1		 mov	 esi, ecx
  0000a	8b 4d 0c	 mov	 ecx, DWORD PTR __First_arg$[ebp]
  0000d	89 08		 mov	 DWORD PTR [eax], ecx

; 1192 : 		iterator _Last = _Make_iter(_Last_arg);
; 1193 : 
; 1194 : 		if (_First != _Last)

  0000f	3b 4d 10	 cmp	 ecx, DWORD PTR __Last_arg$[ebp]
  00012	74 37		 je	 SHORT $LN1@erase

; 1195 : 			{	// worth doing, copy down over hole
; 1196 :  #if _ITERATOR_DEBUG_LEVEL == 2
; 1197 : 			if (_Last < _First || _VICONT(_First) != this
; 1198 : 				|| _VIPTR(_First) < this->_Myfirst
; 1199 : 				|| this->_Mylast < _VIPTR(_Last))
; 1200 : 				_DEBUG_ERROR("vector erase iterator outside range");
; 1201 : 			pointer _Ptr = _Move(_VIPTR(_Last), this->_Mylast,
; 1202 : 				_VIPTR(_First));
; 1203 : 			_Orphan_range(_VIPTR(_First), this->_Mylast);
; 1204 : 
; 1205 :  #else /* _ITERATOR_DEBUG_LEVEL == 2 */
; 1206 : 			pointer _Ptr = _Move(_VIPTR(_Last), this->_Mylast,
; 1207 : 				_VIPTR(_First));

  00014	8b 46 04	 mov	 eax, DWORD PTR [esi+4]
  00017	53		 push	 ebx
  00018	57		 push	 edi
  00019	ff 75 10	 push	 DWORD PTR __Cat$542523[ebp]
  0001c	51		 push	 ecx
  0001d	50		 push	 eax
  0001e	ff 75 10	 push	 DWORD PTR __Last_arg$[ebp]
  00021	e8 00 00 00 00	 call	 ??$_Move@PAURoundInfo@@PAU1@@std@@YAPAURoundInfo@@PAU1@00U_Nonscalar_ptr_iterator_tag@0@@Z ; std::_Move<RoundInfo *,RoundInfo *>

; 1208 :  #endif /* _ITERATOR_DEBUG_LEVEL == 2 */
; 1209 : 
; 1210 : 			_Destroy(_Ptr, this->_Mylast);

  00026	8b 7e 04	 mov	 edi, DWORD PTR [esi+4]
  00029	8b d8		 mov	 ebx, eax
  0002b	83 c4 10	 add	 esp, 16			; 00000010H
  0002e	89 5d fc	 mov	 DWORD PTR $T542578[ebp], ebx
  00031	3b df		 cmp	 ebx, edi
  00033	74 11		 je	 SHORT $LN36@erase
$LL52@erase:
  00035	8b 4d fc	 mov	 ecx, DWORD PTR $T542578[ebp]
  00038	e8 00 00 00 00	 call	 ??1RoundInfo@@QAE@XZ
  0003d	83 6d fc 80	 sub	 DWORD PTR $T542578[ebp], -128 ; ffffff80H
  00041	39 7d fc	 cmp	 DWORD PTR $T542578[ebp], edi
  00044	75 ef		 jne	 SHORT $LL52@erase
$LN36@erase:

; 1211 : 			this->_Mylast = _Ptr;

  00046	5f		 pop	 edi
  00047	89 5e 04	 mov	 DWORD PTR [esi+4], ebx
  0004a	5b		 pop	 ebx
$LN1@erase:

; 1212 : 			}
; 1213 : 		return (_First);

  0004b	8b 45 08	 mov	 eax, DWORD PTR ___$ReturnUdt$[ebp]
  0004e	5e		 pop	 esi

; 1214 : 		}

  0004f	c9		 leave
  00050	c2 0c 00	 ret	 12			; 0000000cH
?erase@?$vector@URoundInfo@@V?$allocator@URoundInfo@@@std@@@std@@QAE?AV?$_Vector_iterator@V?$_Vector_val@URoundInfo@@V?$allocator@URoundInfo@@@std@@@std@@@2@V?$_Vector_const_iterator@V?$_Vector_val@URoundInfo@@V?$allocator@URoundInfo@@@std@@@std@@@2@0@Z ENDP ; std::vector<RoundInfo,std::allocator<RoundInfo> >::erase
_TEXT	ENDS
PUBLIC	?clear@?$vector@URoundInfo@@V?$allocator@URoundInfo@@@std@@@std@@QAEXXZ ; std::vector<RoundInfo,std::allocator<RoundInfo> >::clear
; Function compile flags: /Ogsp
;	COMDAT ?clear@?$vector@URoundInfo@@V?$allocator@URoundInfo@@@std@@@std@@QAEXXZ
_TEXT	SEGMENT
$T542631 = -4						; size = 4
?clear@?$vector@URoundInfo@@V?$allocator@URoundInfo@@@std@@@std@@QAEXXZ PROC ; std::vector<RoundInfo,std::allocator<RoundInfo> >::clear, COMDAT
; _this$ = ecx

; 1217 : 		{	// erase all

  00000	55		 push	 ebp
  00001	8b ec		 mov	 ebp, esp
  00003	51		 push	 ecx

; 1218 : 		erase(begin(), end());

  00004	8b 41 04	 mov	 eax, DWORD PTR [ecx+4]
  00007	8b 11		 mov	 edx, DWORD PTR [ecx]
  00009	50		 push	 eax
  0000a	52		 push	 edx
  0000b	8d 45 fc	 lea	 eax, DWORD PTR $T542631[ebp]
  0000e	50		 push	 eax
  0000f	e8 00 00 00 00	 call	 ?erase@?$vector@URoundInfo@@V?$allocator@URoundInfo@@@std@@@std@@QAE?AV?$_Vector_iterator@V?$_Vector_val@URoundInfo@@V?$allocator@URoundInfo@@@std@@@std@@@2@V?$_Vector_const_iterator@V?$_Vector_val@URoundInfo@@V?$allocator@URoundInfo@@@std@@@std@@@2@0@Z ; std::vector<RoundInfo,std::allocator<RoundInfo> >::erase

; 1219 : 		}

  00014	c9		 leave
  00015	c3		 ret	 0
?clear@?$vector@URoundInfo@@V?$allocator@URoundInfo@@@std@@@std@@QAEXXZ ENDP ; std::vector<RoundInfo,std::allocator<RoundInfo> >::clear
_TEXT	ENDS
PUBLIC	?_Reserve@?$vector@URoundInfo@@V?$allocator@URoundInfo@@@std@@@std@@IAEXI@Z ; std::vector<RoundInfo,std::allocator<RoundInfo> >::_Reserve
; Function compile flags: /Ogsp
;	COMDAT ?_Reserve@?$vector@URoundInfo@@V?$allocator@URoundInfo@@@std@@@std@@IAEXI@Z
_TEXT	SEGMENT
__Count$ = 8						; size = 4
?_Reserve@?$vector@URoundInfo@@V?$allocator@URoundInfo@@@std@@@std@@IAEXI@Z PROC ; std::vector<RoundInfo,std::allocator<RoundInfo> >::_Reserve, COMDAT
; _this$ = ecx

; 1290 : 		{	// ensure room for _Count new elements, grow exponentially

  00000	55		 push	 ebp
  00001	8b ec		 mov	 ebp, esp
  00003	56		 push	 esi
  00004	8b f1		 mov	 esi, ecx

; 1291 : 		size_type _Size = size();

  00006	8b 0e		 mov	 ecx, DWORD PTR [esi]
  00008	8b 46 04	 mov	 eax, DWORD PTR [esi+4]
  0000b	2b c1		 sub	 eax, ecx

; 1292 : 		if (max_size() - _Count < _Size)

  0000d	ba ff ff ff 01	 mov	 edx, 33554431		; 01ffffffH
  00012	2b 55 08	 sub	 edx, DWORD PTR __Count$[ebp]
  00015	c1 f8 07	 sar	 eax, 7
  00018	3b d0		 cmp	 edx, eax
  0001a	73 0b		 jae	 SHORT $LN4@Reserve

; 1293 : 			_Xlen();

  0001c	68 00 00 00 00	 push	 OFFSET ??_C@_0BD@OLBABOEK@vector?$DMT?$DO?5too?5long?$AA@
  00021	ff 15 00 00 00
	00		 call	 DWORD PTR __imp_?_Xlength_error@std@@YAXPBD@Z
$LN21@Reserve:
$LN4@Reserve:

; 1294 : 		else if ((_Size += _Count) <= capacity())

  00027	8b 56 08	 mov	 edx, DWORD PTR [esi+8]
  0002a	03 45 08	 add	 eax, DWORD PTR __Count$[ebp]
  0002d	2b d1		 sub	 edx, ecx
  0002f	c1 fa 07	 sar	 edx, 7
  00032	3b c2		 cmp	 eax, edx
  00034	76 10		 jbe	 SHORT $LN1@Reserve

; 1295 : 			;
; 1296 : 		else
; 1297 : 			reserve(_Grow_to(_Size));

  00036	50		 push	 eax
  00037	8b ce		 mov	 ecx, esi
  00039	e8 00 00 00 00	 call	 ?_Grow_to@?$vector@URoundInfo@@V?$allocator@URoundInfo@@@std@@@std@@IBEII@Z ; std::vector<RoundInfo,std::allocator<RoundInfo> >::_Grow_to
  0003e	50		 push	 eax
  0003f	8b ce		 mov	 ecx, esi
  00041	e8 00 00 00 00	 call	 ?reserve@?$vector@URoundInfo@@V?$allocator@URoundInfo@@@std@@@std@@QAEXI@Z ; std::vector<RoundInfo,std::allocator<RoundInfo> >::reserve
$LN1@Reserve:
  00046	5e		 pop	 esi

; 1298 : 		}

  00047	5d		 pop	 ebp
  00048	c2 04 00	 ret	 4
$LN20@Reserve:
?_Reserve@?$vector@URoundInfo@@V?$allocator@URoundInfo@@@std@@@std@@IAEXI@Z ENDP ; std::vector<RoundInfo,std::allocator<RoundInfo> >::_Reserve
_TEXT	ENDS
PUBLIC	??_7ioObserverRedWnd@@6B@			; ioObserverRedWnd::`vftable'
PUBLIC	??0ioObserverRedWnd@@QAE@XZ			; ioObserverRedWnd::ioObserverRedWnd
PUBLIC	??_R4ioObserverRedWnd@@6B@			; ioObserverRedWnd::`RTTI Complete Object Locator'
PUBLIC	??_R0?AVioObserverRedWnd@@@8			; ioObserverRedWnd `RTTI Type Descriptor'
PUBLIC	??_R3ioObserverRedWnd@@8			; ioObserverRedWnd::`RTTI Class Hierarchy Descriptor'
PUBLIC	??_R2ioObserverRedWnd@@8			; ioObserverRedWnd::`RTTI Base Class Array'
PUBLIC	??_R1A@?0A@EA@ioObserverRedWnd@@8		; ioObserverRedWnd::`RTTI Base Class Descriptor at (0,-1,0,64)'
PUBLIC	??_R1A@?0A@EA@ioMovingWnd@@8			; ioMovingWnd::`RTTI Base Class Descriptor at (0,-1,0,64)'
PUBLIC	??_R0?AVioMovingWnd@@@8				; ioMovingWnd `RTTI Type Descriptor'
PUBLIC	??_R3ioMovingWnd@@8				; ioMovingWnd::`RTTI Class Hierarchy Descriptor'
PUBLIC	??_R2ioMovingWnd@@8				; ioMovingWnd::`RTTI Base Class Array'
PUBLIC	??_R1A@?0A@EA@ioWnd@@8				; ioWnd::`RTTI Base Class Descriptor at (0,-1,0,64)'
PUBLIC	??_R3ioWnd@@8					; ioWnd::`RTTI Class Hierarchy Descriptor'
PUBLIC	??_R2ioWnd@@8					; ioWnd::`RTTI Base Class Array'
PUBLIC	?iwm_hide@ioObserverRedWnd@@UAEXXZ		; ioObserverRedWnd::iwm_hide
EXTRN	__imp_??1ioMovingWnd@@UAE@XZ:PROC
EXTRN	__imp_??0ioMovingWnd@@QAE@XZ:PROC
EXTRN	?AddRenderFrame@ioWnd@@UAEXABVioHashString@@PAVioUIRenderFrame@@@Z:PROC ; ioWnd::AddRenderFrame
EXTRN	?AddTooltipHelp@ioWnd@@UAEXABVioHashString@@00@Z:PROC ; ioWnd::AddTooltipHelp
EXTRN	?AddNamedRenderImage@ioWnd@@UAEXABVioHashString@@PAVioUIRenderImage@@@Z:PROC ; ioWnd::AddNamedRenderImage
EXTRN	?RemoveNamedRenderImage@ioWnd@@UAEXABVioHashString@@@Z:PROC ; ioWnd::RemoveNamedRenderImage
EXTRN	?GetNamedRenderImage@ioWnd@@UBEPAVioUIRenderImage@@ABVioHashString@@@Z:PROC ; ioWnd::GetNamedRenderImage
EXTRN	?SetWindowAlpha@ioWnd@@UAEXH@Z:PROC		; ioWnd::SetWindowAlpha
EXTRN	?SetActive@ioWnd@@UAEXXZ:PROC			; ioWnd::SetActive
EXTRN	?SetInActive@ioWnd@@UAEXXZ:PROC			; ioWnd::SetInActive
EXTRN	?ClearElementImageList@ioWnd@@UAEXXZ:PROC	; ioWnd::ClearElementImageList
EXTRN	?SetSize@ioWnd@@UAEXHH@Z:PROC			; ioWnd::SetSize
EXTRN	?IsNeedProcess@ioWnd@@UBE_NXZ:PROC		; ioWnd::IsNeedProcess
EXTRN	?IsCanMouseReaction@ioWnd@@UBE_NXZ:PROC		; ioWnd::IsCanMouseReaction
EXTRN	?AddChild@ioWnd@@UAEXPAV1@@Z:PROC		; ioWnd::AddChild
EXTRN	?DeleteChild@ioWnd@@UAEXK@Z:PROC		; ioWnd::DeleteChild
EXTRN	?DeleteAllChild@ioWnd@@UAEXXZ:PROC		; ioWnd::DeleteAllChild
EXTRN	?OnRenderShowAndHide@ioWnd@@MAE_NXZ:PROC	; ioWnd::OnRenderShowAndHide
EXTRN	?OnRenderShowAndHideByDefault@ioWnd@@MAE_NK@Z:PROC ; ioWnd::OnRenderShowAndHideByDefault
EXTRN	?OnRenderShowAndHideByTop@ioWnd@@MAE_NK@Z:PROC	; ioWnd::OnRenderShowAndHideByTop
EXTRN	?OnRenderShowAndHideByDown@ioWnd@@MAE_NK@Z:PROC	; ioWnd::OnRenderShowAndHideByDown
EXTRN	?OnRenderAfterChild@ioWnd@@MAEXXZ:PROC		; ioWnd::OnRenderAfterChild
EXTRN	?OnMouseProcess@ioMovingWnd@@MAEXABVioMouse@@@Z:PROC ; ioMovingWnd::OnMouseProcess
EXTRN	?CheckFrameReSize@ioWnd@@MAEXHHHH@Z:PROC	; ioWnd::CheckFrameReSize
EXTRN	?RenderImageList@ioWnd@@MAEXHHW4UIRenderType@@@Z:PROC ; ioWnd::RenderImageList
EXTRN	?iwm_destroy@ioWnd@@UAEXXZ:PROC			; ioWnd::iwm_destroy
EXTRN	?iwm_lbuttondown@ioMovingWnd@@UAEXABVioMouse@@@Z:PROC ; ioMovingWnd::iwm_lbuttondown
EXTRN	?iwm_lbuttonup@ioMovingWnd@@UAEXABVioMouse@@@Z:PROC ; ioMovingWnd::iwm_lbuttonup
EXTRN	?iwm_lbuttonDBLCLK@ioWnd@@UAEXABVioMouse@@@Z:PROC ; ioWnd::iwm_lbuttonDBLCLK
EXTRN	?iwm_rbuttondown@ioWnd@@UAEXABVioMouse@@@Z:PROC	; ioWnd::iwm_rbuttondown
EXTRN	?iwm_rbuttonup@ioWnd@@UAEXABVioMouse@@@Z:PROC	; ioWnd::iwm_rbuttonup
EXTRN	?iwm_command@ioWnd@@UAEXPAV1@HK@Z:PROC		; ioWnd::iwm_command
EXTRN	?iwm_mouseover@ioWnd@@UAEXABVioMouse@@@Z:PROC	; ioWnd::iwm_mouseover
EXTRN	?iwm_mousemove@ioWnd@@UAEXABVioMouse@@@Z:PROC	; ioWnd::iwm_mousemove
EXTRN	?iwm_mouseleave@ioWnd@@UAEXABVioMouse@@@Z:PROC	; ioWnd::iwm_mouseleave
EXTRN	?iwm_vscroll@ioWnd@@UAEXKH@Z:PROC		; ioWnd::iwm_vscroll
EXTRN	?iwm_wheel@ioWnd@@UAEXH@Z:PROC			; ioWnd::iwm_wheel
EXTRN	?iwm_esc@ioWnd@@UAE_NXZ:PROC			; ioWnd::iwm_esc
EXTRN	?iwm_spacebar@ioWnd@@UAE_NXZ:PROC		; ioWnd::iwm_spacebar
EXTRN	?iwm_gototop@ioWnd@@UAEXXZ:PROC			; ioWnd::iwm_gototop
EXTRN	?iwm_dragenter@ioWnd@@UAE?AW4IWDropEffect@@PAVioDragItem@@ABVioMouse@@@Z:PROC ; ioWnd::iwm_dragenter
EXTRN	?iwm_dragover@ioWnd@@UAE?AW4IWDropEffect@@PAVioDragItem@@ABVioMouse@@@Z:PROC ; ioWnd::iwm_dragover
EXTRN	?iwm_dragleave@ioWnd@@UAEXXZ:PROC		; ioWnd::iwm_dragleave
EXTRN	?iwm_dropitem@ioWnd@@UAE_NPAVioDragItem@@ABVioMouse@@PAV1@@Z:PROC ; ioWnd::iwm_dropitem
EXTRN	?iwm_dropdone@ioWnd@@UAEXPAVioDragItem@@PAV1@_N@Z:PROC ; ioWnd::iwm_dropdone
EXTRN	?IsEXType@ioWnd@@UBE_NXZ:PROC			; ioWnd::IsEXType
EXTRN	?GetWndType@ioWnd@@UBEKXZ:PROC			; ioWnd::GetWndType
EXTRN	?RenderWnd@ioWnd@@UAEXXZ:PROC			; ioWnd::RenderWnd
EXTRN	?SetIDEX@ioWnd@@UAEXAAK_N@Z:PROC		; ioWnd::SetIDEX
EXTRN	?ParseXML@ioWnd@@UAEXAAVioXMLElement@@@Z:PROC	; ioWnd::ParseXML
EXTRN	?GetHeaderFileName@ioWnd@@UAEPBDXZ:PROC		; ioWnd::GetHeaderFileName
EXTRN	?GetTemplateName@ioWnd@@UAEPBDXZ:PROC		; ioWnd::GetTemplateName
EXTRN	?GetDefClassName@ioWnd@@UBEPBDXZ:PROC		; ioWnd::GetDefClassName
EXTRN	?_Clone@ioWnd@@UAEPAV1@XZ:PROC			; ioWnd::_Clone
EXTRN	?Copy@ioWnd@@UAEXPAV1@@Z:PROC			; ioWnd::Copy
EXTRN	?Save@ioWnd@@UAE_NAAVioXMLElement@@@Z:PROC	; ioWnd::Save
EXTRN	?SetSaveData@ioWnd@@UAEXAAVioXMLElement@@@Z:PROC ; ioWnd::SetSaveData
EXTRN	?SetPosX@ioWnd@@UAEXH@Z:PROC			; ioWnd::SetPosX
EXTRN	?SetPosY@ioWnd@@UAEXH@Z:PROC			; ioWnd::SetPosY
EXTRN	?SetWidth@ioWnd@@UAEXH@Z:PROC			; ioWnd::SetWidth
EXTRN	?SetHeight@ioWnd@@UAEXH@Z:PROC			; ioWnd::SetHeight
EXTRN	?GetNumFixedRenderFrame@ioWnd@@UBEHXZ:PROC	; ioWnd::GetNumFixedRenderFrame
EXTRN	?GetFixedRenderFrameType@ioWnd@@UAEPBDH@Z:PROC	; ioWnd::GetFixedRenderFrameType
EXTRN	?GetRenderFrame@ioWnd@@UAEPAPAVioUIRenderElement@@PBD@Z:PROC ; ioWnd::GetRenderFrame
EXTRN	?GetNumFixedRenderImage@ioWnd@@UBEHXZ:PROC	; ioWnd::GetNumFixedRenderImage
EXTRN	?GetFixedRenderImageType@ioWnd@@UAEPBDH@Z:PROC	; ioWnd::GetFixedRenderImageType
EXTRN	?GetRenderImage@ioWnd@@UAEPAPAVioUIRenderElement@@PBD@Z:PROC ; ioWnd::GetRenderImage
EXTRN	?AddEffect@ioWnd@@UAEXABVioHashString@@PAVioUI3DEffectRender@@@Z:PROC ; ioWnd::AddEffect
EXTRN	?GetEffect@ioWnd@@UAEPAVioUI3DEffectRender@@VioHashString@@@Z:PROC ; ioWnd::GetEffect
EXTRN	??_EioObserverRedWnd@@UAEPAXI@Z:PROC		; ioObserverRedWnd::`vector deleting destructor'
;	COMDAT ??_R2ioWnd@@8
; File c:\program files (x86)\microsoft visual studio 10.0\vc\include\xutility
rdata$r	SEGMENT
??_R2ioWnd@@8 DD FLAT:??_R1A@?0A@EA@ioWnd@@8		; ioWnd::`RTTI Base Class Array'
rdata$r	ENDS
;	COMDAT ??_R3ioWnd@@8
rdata$r	SEGMENT
??_R3ioWnd@@8 DD 00H					; ioWnd::`RTTI Class Hierarchy Descriptor'
	DD	00H
	DD	01H
	DD	FLAT:??_R2ioWnd@@8
rdata$r	ENDS
;	COMDAT ??_R1A@?0A@EA@ioWnd@@8
rdata$r	SEGMENT
??_R1A@?0A@EA@ioWnd@@8 DD FLAT:??_R0?AVioWnd@@@8	; ioWnd::`RTTI Base Class Descriptor at (0,-1,0,64)'
	DD	00H
	DD	00H
	DD	0ffffffffH
	DD	00H
	DD	040H
	DD	FLAT:??_R3ioWnd@@8
rdata$r	ENDS
;	COMDAT ??_R2ioMovingWnd@@8
rdata$r	SEGMENT
??_R2ioMovingWnd@@8 DD FLAT:??_R1A@?0A@EA@ioMovingWnd@@8 ; ioMovingWnd::`RTTI Base Class Array'
	DD	FLAT:??_R1A@?0A@EA@ioWnd@@8
rdata$r	ENDS
;	COMDAT ??_R3ioMovingWnd@@8
rdata$r	SEGMENT
??_R3ioMovingWnd@@8 DD 00H				; ioMovingWnd::`RTTI Class Hierarchy Descriptor'
	DD	00H
	DD	02H
	DD	FLAT:??_R2ioMovingWnd@@8
rdata$r	ENDS
;	COMDAT ??_R0?AVioMovingWnd@@@8
_DATA	SEGMENT
??_R0?AVioMovingWnd@@@8 DD FLAT:??_7type_info@@6B@	; ioMovingWnd `RTTI Type Descriptor'
	DD	00H
	DB	'.?AVioMovingWnd@@', 00H
_DATA	ENDS
;	COMDAT ??_R1A@?0A@EA@ioMovingWnd@@8
rdata$r	SEGMENT
??_R1A@?0A@EA@ioMovingWnd@@8 DD FLAT:??_R0?AVioMovingWnd@@@8 ; ioMovingWnd::`RTTI Base Class Descriptor at (0,-1,0,64)'
	DD	01H
	DD	00H
	DD	0ffffffffH
	DD	00H
	DD	040H
	DD	FLAT:??_R3ioMovingWnd@@8
rdata$r	ENDS
;	COMDAT ??_R1A@?0A@EA@ioObserverRedWnd@@8
rdata$r	SEGMENT
??_R1A@?0A@EA@ioObserverRedWnd@@8 DD FLAT:??_R0?AVioObserverRedWnd@@@8 ; ioObserverRedWnd::`RTTI Base Class Descriptor at (0,-1,0,64)'
	DD	02H
	DD	00H
	DD	0ffffffffH
	DD	00H
	DD	040H
	DD	FLAT:??_R3ioObserverRedWnd@@8
rdata$r	ENDS
;	COMDAT ??_R2ioObserverRedWnd@@8
rdata$r	SEGMENT
??_R2ioObserverRedWnd@@8 DD FLAT:??_R1A@?0A@EA@ioObserverRedWnd@@8 ; ioObserverRedWnd::`RTTI Base Class Array'
	DD	FLAT:??_R1A@?0A@EA@ioMovingWnd@@8
	DD	FLAT:??_R1A@?0A@EA@ioWnd@@8
rdata$r	ENDS
;	COMDAT ??_R3ioObserverRedWnd@@8
rdata$r	SEGMENT
??_R3ioObserverRedWnd@@8 DD 00H				; ioObserverRedWnd::`RTTI Class Hierarchy Descriptor'
	DD	00H
	DD	03H
	DD	FLAT:??_R2ioObserverRedWnd@@8
rdata$r	ENDS
;	COMDAT ??_R0?AVioObserverRedWnd@@@8
_DATA	SEGMENT
??_R0?AVioObserverRedWnd@@@8 DD FLAT:??_7type_info@@6B@	; ioObserverRedWnd `RTTI Type Descriptor'
	DD	00H
	DB	'.?AVioObserverRedWnd@@', 00H
_DATA	ENDS
;	COMDAT ??_R4ioObserverRedWnd@@6B@
rdata$r	SEGMENT
??_R4ioObserverRedWnd@@6B@ DD 00H			; ioObserverRedWnd::`RTTI Complete Object Locator'
	DD	00H
	DD	00H
	DD	FLAT:??_R0?AVioObserverRedWnd@@@8
	DD	FLAT:??_R3ioObserverRedWnd@@8
rdata$r	ENDS
;	COMDAT ??_7ioObserverRedWnd@@6B@
CONST	SEGMENT
??_7ioObserverRedWnd@@6B@ DD FLAT:??_R4ioObserverRedWnd@@6B@ ; ioObserverRedWnd::`vftable'
	DD	FLAT:?AddRenderFrame@ioWnd@@UAEXABVioHashString@@PAVioUIRenderFrame@@@Z
	DD	FLAT:?AddRenderImage@ioObserverRedWnd@@UAEXABVioHashString@@PAVioUIRenderImage@@@Z
	DD	FLAT:?AddTooltipHelp@ioWnd@@UAEXABVioHashString@@00@Z
	DD	FLAT:?ParseExtraInfo@ioObserverRedWnd@@UAEXAAVioXMLElement@@@Z
	DD	FLAT:?AddNamedRenderImage@ioWnd@@UAEXABVioHashString@@PAVioUIRenderImage@@@Z
	DD	FLAT:?RemoveNamedRenderImage@ioWnd@@UAEXABVioHashString@@@Z
	DD	FLAT:?GetNamedRenderImage@ioWnd@@UBEPAVioUIRenderImage@@ABVioHashString@@@Z
	DD	FLAT:?SetWindowAlpha@ioWnd@@UAEXH@Z
	DD	FLAT:?SetActive@ioWnd@@UAEXXZ
	DD	FLAT:?SetInActive@ioWnd@@UAEXXZ
	DD	FLAT:?ClearElementImageList@ioWnd@@UAEXXZ
	DD	FLAT:?SetSize@ioWnd@@UAEXHH@Z
	DD	FLAT:?SetPositionToDefault@ioObserverRedWnd@@MAEXHH_N0@Z
	DD	FLAT:?IsNeedProcess@ioWnd@@UBE_NXZ
	DD	FLAT:?IsCanMouseReaction@ioWnd@@UBE_NXZ
	DD	FLAT:?AddChild@ioWnd@@UAEXPAV1@@Z
	DD	FLAT:?DeleteChild@ioWnd@@UAEXK@Z
	DD	FLAT:?DeleteAllChild@ioWnd@@UAEXXZ
	DD	FLAT:?OnRenderShowAndHide@ioWnd@@MAE_NXZ
	DD	FLAT:?OnRenderShowAndHideByDefault@ioWnd@@MAE_NK@Z
	DD	FLAT:?OnRenderShowAndHideByTop@ioWnd@@MAE_NK@Z
	DD	FLAT:?OnRenderShowAndHideByDown@ioWnd@@MAE_NK@Z
	DD	FLAT:?OnRender@ioObserverRedWnd@@MAEXXZ
	DD	FLAT:?OnRenderAfterChild@ioWnd@@MAEXXZ
	DD	FLAT:?OnProcess@ioObserverRedWnd@@MAEXM@Z
	DD	FLAT:?OnMouseProcess@ioMovingWnd@@MAEXABVioMouse@@@Z
	DD	FLAT:?CheckFrameReSize@ioWnd@@MAEXHHHH@Z
	DD	FLAT:?RenderImageList@ioWnd@@MAEXHHW4UIRenderType@@@Z
	DD	FLAT:?iwm_create@ioObserverRedWnd@@UAEXXZ
	DD	FLAT:?iwm_destroy@ioWnd@@UAEXXZ
	DD	FLAT:?iwm_lbuttondown@ioMovingWnd@@UAEXABVioMouse@@@Z
	DD	FLAT:?iwm_lbuttonup@ioMovingWnd@@UAEXABVioMouse@@@Z
	DD	FLAT:?iwm_lbuttonDBLCLK@ioWnd@@UAEXABVioMouse@@@Z
	DD	FLAT:?iwm_rbuttondown@ioWnd@@UAEXABVioMouse@@@Z
	DD	FLAT:?iwm_rbuttonup@ioWnd@@UAEXABVioMouse@@@Z
	DD	FLAT:?iwm_command@ioWnd@@UAEXPAV1@HK@Z
	DD	FLAT:?iwm_mouseover@ioWnd@@UAEXABVioMouse@@@Z
	DD	FLAT:?iwm_mousemove@ioWnd@@UAEXABVioMouse@@@Z
	DD	FLAT:?iwm_mouseleave@ioWnd@@UAEXABVioMouse@@@Z
	DD	FLAT:?iwm_vscroll@ioWnd@@UAEXKH@Z
	DD	FLAT:?iwm_wheel@ioWnd@@UAEXH@Z
	DD	FLAT:?iwm_show@ioObserverRedWnd@@UAEXXZ
	DD	FLAT:?iwm_hide@ioObserverRedWnd@@UAEXXZ
	DD	FLAT:?iwm_esc@ioWnd@@UAE_NXZ
	DD	FLAT:?iwm_spacebar@ioWnd@@UAE_NXZ
	DD	FLAT:?iwm_gototop@ioWnd@@UAEXXZ
	DD	FLAT:?iwm_dragenter@ioWnd@@UAE?AW4IWDropEffect@@PAVioDragItem@@ABVioMouse@@@Z
	DD	FLAT:?iwm_dragover@ioWnd@@UAE?AW4IWDropEffect@@PAVioDragItem@@ABVioMouse@@@Z
	DD	FLAT:?iwm_dragleave@ioWnd@@UAEXXZ
	DD	FLAT:?iwm_dropitem@ioWnd@@UAE_NPAVioDragItem@@ABVioMouse@@PAV1@@Z
	DD	FLAT:?iwm_dropdone@ioWnd@@UAEXPAVioDragItem@@PAV1@_N@Z
	DD	FLAT:?IsEXType@ioWnd@@UBE_NXZ
	DD	FLAT:?GetWndType@ioWnd@@UBEKXZ
	DD	FLAT:?RenderWnd@ioWnd@@UAEXXZ
	DD	FLAT:?SetIDEX@ioWnd@@UAEXAAK_N@Z
	DD	FLAT:?ParseXML@ioWnd@@UAEXAAVioXMLElement@@@Z
	DD	FLAT:?GetHeaderFileName@ioWnd@@UAEPBDXZ
	DD	FLAT:?GetTemplateName@ioWnd@@UAEPBDXZ
	DD	FLAT:?GetDefClassName@ioWnd@@UBEPBDXZ
	DD	FLAT:?_Clone@ioWnd@@UAEPAV1@XZ
	DD	FLAT:?Copy@ioWnd@@UAEXPAV1@@Z
	DD	FLAT:?Save@ioWnd@@UAE_NAAVioXMLElement@@@Z
	DD	FLAT:?SetSaveData@ioWnd@@UAEXAAVioXMLElement@@@Z
	DD	FLAT:?SetPosX@ioWnd@@UAEXH@Z
	DD	FLAT:?SetPosY@ioWnd@@UAEXH@Z
	DD	FLAT:?SetWidth@ioWnd@@UAEXH@Z
	DD	FLAT:?SetHeight@ioWnd@@UAEXH@Z
	DD	FLAT:?GetNumFixedRenderFrame@ioWnd@@UBEHXZ
	DD	FLAT:?GetFixedRenderFrameType@ioWnd@@UAEPBDH@Z
	DD	FLAT:?GetRenderFrame@ioWnd@@UAEPAPAVioUIRenderElement@@PBD@Z
	DD	FLAT:?GetNumFixedRenderImage@ioWnd@@UBEHXZ
	DD	FLAT:?GetFixedRenderImageType@ioWnd@@UAEPBDH@Z
	DD	FLAT:?GetRenderImage@ioWnd@@UAEPAPAVioUIRenderElement@@PBD@Z
	DD	FLAT:?AddEffect@ioWnd@@UAEXABVioHashString@@PAVioUI3DEffectRender@@@Z
	DD	FLAT:?GetEffect@ioWnd@@UAEPAVioUI3DEffectRender@@VioHashString@@@Z
	DD	FLAT:??_EioObserverRedWnd@@UAEPAXI@Z
CONST	ENDS
;	COMDAT xdata$x
xdata$x	SEGMENT
__unwindtable$??0ioObserverRedWnd@@QAE@XZ DD 0ffffffffH
	DD	FLAT:__unwindfunclet$??0ioObserverRedWnd@@QAE@XZ$0
	DD	00H
	DD	FLAT:__unwindfunclet$??0ioObserverRedWnd@@QAE@XZ$1
__ehfuncinfo$??0ioObserverRedWnd@@QAE@XZ DD 019930522H
	DD	02H
	DD	FLAT:__unwindtable$??0ioObserverRedWnd@@QAE@XZ
	DD	2 DUP(00H)
	DD	2 DUP(00H)
	DD	00H
	DD	01H
; Function compile flags: /Ogsp
; File d:\lost saga for developer\youtube\tutorial\source\src\lsclient\gui\ioobserverwnd.cpp
xdata$x	ENDS
;	COMDAT ??0ioObserverRedWnd@@QAE@XZ
_TEXT	SEGMENT
$T542802 = -20						; size = 4
_this$ = -16						; size = 4
__$EHRec$ = -12						; size = 12
??0ioObserverRedWnd@@QAE@XZ PROC			; ioObserverRedWnd::ioObserverRedWnd, COMDAT
; _this$ = ecx

; 35   : {

  00000	6a 08		 push	 8
  00002	b8 00 00 00 00	 mov	 eax, __ehhandler$??0ioObserverRedWnd@@QAE@XZ
  00007	e8 00 00 00 00	 call	 __EH_prolog3
  0000c	8b f1		 mov	 esi, ecx
  0000e	89 75 f0	 mov	 DWORD PTR _this$[ebp], esi
  00011	ff 15 00 00 00
	00		 call	 DWORD PTR __imp_??0ioMovingWnd@@QAE@XZ
  00017	33 c0		 xor	 eax, eax
  00019	8d 8e 00 02 00
	00		 lea	 ecx, DWORD PTR [esi+512]
  0001f	c7 06 00 00 00
	00		 mov	 DWORD PTR [esi], OFFSET ??_7ioObserverRedWnd@@6B@
  00025	89 45 fc	 mov	 DWORD PTR __$EHRec$[ebp+8], eax
  00028	89 01		 mov	 DWORD PTR [ecx], eax
  0002a	89 41 04	 mov	 DWORD PTR [ecx+4], eax
  0002d	89 41 08	 mov	 DWORD PTR [ecx+8], eax
  00030	6a 08		 push	 8
  00032	c6 45 fc 01	 mov	 BYTE PTR __$EHRec$[ebp+8], 1

; 36   : 	m_pRedBack = NULL;

  00036	89 86 9c 01 00
	00		 mov	 DWORD PTR [esi+412], eax

; 37   : 	m_pRedGauge = NULL;

  0003c	89 86 a4 01 00
	00		 mov	 DWORD PTR [esi+420], eax

; 38   : 	m_pBlueBack = NULL;

  00042	89 86 98 01 00
	00		 mov	 DWORD PTR [esi+408], eax

; 39   : 	m_pBlueGauge = NULL;

  00048	89 86 a0 01 00
	00		 mov	 DWORD PTR [esi+416], eax

; 40   : 	m_pRedDead = NULL;

  0004e	89 86 a8 01 00
	00		 mov	 DWORD PTR [esi+424], eax

; 41   : 	m_pAddGauge = NULL;

  00054	89 86 ac 01 00
	00		 mov	 DWORD PTR [esi+428], eax

; 42   : 	m_pGuildBack = NULL;

  0005a	89 86 94 01 00
	00		 mov	 DWORD PTR [esi+404], eax

; 43   : 
; 44   : 	m_pTargetMark = NULL;

  00060	89 86 f0 01 00
	00		 mov	 DWORD PTR [esi+496], eax
  00066	8d 96 d0 01 00
	00		 lea	 edx, DWORD PTR [esi+464]
  0006c	5f		 pop	 edi
$LL3@ioObserver:

; 45   : 
; 46   : 	for( int i=0; i < MAX_TEAM_PLAYER; ++i )
; 47   : 	{
; 48   : 		m_pRedKeyText[i] = NULL;

  0006d	89 42 e0	 mov	 DWORD PTR [edx-32], eax

; 49   : 		m_pBlueKeyText[i] = NULL;

  00070	89 02		 mov	 DWORD PTR [edx], eax
  00072	83 c2 04	 add	 edx, 4
  00075	4f		 dec	 edi
  00076	75 f5		 jne	 SHORT $LL3@ioObserver

; 50   : 	}
; 51   : 
; 52   : 	m_pPlayStage = NULL;

  00078	89 86 90 01 00
	00		 mov	 DWORD PTR [esi+400], eax

; 53   : 
; 54   : 	m_iDefaultX = 0;

  0007e	89 86 10 02 00
	00		 mov	 DWORD PTR [esi+528], eax

; 55   : 	m_iDefaultY = 0;

  00084	89 86 14 02 00
	00		 mov	 DWORD PTR [esi+532], eax

; 56   : 
; 57   : 	m_bCheckMark = false;

  0008a	88 86 f8 01 00
	00		 mov	 BYTE PTR [esi+504], al

; 58   : 	m_dwCheckTime = 0;

  00090	89 86 fc 01 00
	00		 mov	 DWORD PTR [esi+508], eax

; 59   : 
; 60   : 	m_RoundInfoList.clear();

  00096	8b 41 04	 mov	 eax, DWORD PTR [ecx+4]
  00099	8b 11		 mov	 edx, DWORD PTR [ecx]
  0009b	50		 push	 eax
  0009c	52		 push	 edx
  0009d	8d 45 ec	 lea	 eax, DWORD PTR $T542802[ebp]
  000a0	50		 push	 eax
  000a1	e8 00 00 00 00	 call	 ?erase@?$vector@URoundInfo@@V?$allocator@URoundInfo@@@std@@@std@@QAE?AV?$_Vector_iterator@V?$_Vector_val@URoundInfo@@V?$allocator@URoundInfo@@@std@@@std@@@2@V?$_Vector_const_iterator@V?$_Vector_val@URoundInfo@@V?$allocator@URoundInfo@@@std@@@std@@@2@0@Z ; std::vector<RoundInfo,std::allocator<RoundInfo> >::erase

; 61   : }

  000a6	8b c6		 mov	 eax, esi
  000a8	e8 00 00 00 00	 call	 __EH_epilog3
  000ad	c3		 ret	 0
_TEXT	ENDS
;	COMDAT text$x
text$x	SEGMENT
__unwindfunclet$??0ioObserverRedWnd@@QAE@XZ$0:
  00000	8b 4d f0	 mov	 ecx, DWORD PTR _this$[ebp]
  00003	ff 25 00 00 00
	00		 jmp	 DWORD PTR __imp_??1ioMovingWnd@@UAE@XZ
__unwindfunclet$??0ioObserverRedWnd@@QAE@XZ$1:
  00009	8b 4d f0	 mov	 ecx, DWORD PTR _this$[ebp]
  0000c	81 c1 00 02 00
	00		 add	 ecx, 512		; 00000200H
  00012	e9 00 00 00 00	 jmp	 ??1?$vector@URoundInfo@@V?$allocator@URoundInfo@@@std@@@std@@QAE@XZ ; std::vector<RoundInfo,std::allocator<RoundInfo> >::~vector<RoundInfo,std::allocator<RoundInfo> >
__ehhandler$??0ioObserverRedWnd@@QAE@XZ:
  00017	8b 54 24 08	 mov	 edx, DWORD PTR [esp+8]
  0001b	8d 42 0c	 lea	 eax, DWORD PTR [edx+12]
  0001e	8b 4a e8	 mov	 ecx, DWORD PTR [edx-24]
  00021	33 c8		 xor	 ecx, eax
  00023	e8 00 00 00 00	 call	 @__security_check_cookie@4
  00028	b8 00 00 00 00	 mov	 eax, OFFSET __ehfuncinfo$??0ioObserverRedWnd@@QAE@XZ
  0002d	e9 00 00 00 00	 jmp	 ___CxxFrameHandler3
text$x	ENDS
??0ioObserverRedWnd@@QAE@XZ ENDP			; ioObserverRedWnd::ioObserverRedWnd
PUBLIC	??1ioObserverRedWnd@@UAE@XZ			; ioObserverRedWnd::~ioObserverRedWnd
EXTRN	?GUIPosSaveInt@ioSP2GUIManager@@QAEHPBD0HH@Z:PROC ; ioSP2GUIManager::GUIPosSaveInt
;	COMDAT xdata$x
; File c:\program files (x86)\microsoft visual studio 10.0\vc\include\vector
xdata$x	SEGMENT
__unwindtable$??1ioObserverRedWnd@@UAE@XZ DD 0ffffffffH
	DD	FLAT:__unwindfunclet$??1ioObserverRedWnd@@UAE@XZ$0
	DD	00H
	DD	FLAT:__unwindfunclet$??1ioObserverRedWnd@@UAE@XZ$1
__ehfuncinfo$??1ioObserverRedWnd@@UAE@XZ DD 019930522H
	DD	02H
	DD	FLAT:__unwindtable$??1ioObserverRedWnd@@UAE@XZ
	DD	2 DUP(00H)
	DD	2 DUP(00H)
	DD	00H
	DD	01H
; Function compile flags: /Ogsp
; File d:\lost saga for developer\youtube\tutorial\source\src\lsclient\gui\ioobserverwnd.cpp
xdata$x	ENDS
;	COMDAT ??1ioObserverRedWnd@@UAE@XZ
_TEXT	SEGMENT
_this$ = -20						; size = 4
tv238 = -16						; size = 4
$T542934 = -16						; size = 4
__$EHRec$ = -12						; size = 12
??1ioObserverRedWnd@@UAE@XZ PROC			; ioObserverRedWnd::~ioObserverRedWnd, COMDAT
; _this$ = ecx

; 64   : {

  00000	6a 08		 push	 8
  00002	b8 00 00 00 00	 mov	 eax, __ehhandler$??1ioObserverRedWnd@@UAE@XZ
  00007	e8 00 00 00 00	 call	 __EH_prolog3
  0000c	8b f1		 mov	 esi, ecx
  0000e	89 75 ec	 mov	 DWORD PTR _this$[ebp], esi
  00011	c7 06 00 00 00
	00		 mov	 DWORD PTR [esi], OFFSET ??_7ioObserverRedWnd@@6B@

; 65   : 	m_RoundInfoList.clear();

  00017	8d 8e 00 02 00
	00		 lea	 ecx, DWORD PTR [esi+512]
  0001d	8b 41 04	 mov	 eax, DWORD PTR [ecx+4]
  00020	8b 11		 mov	 edx, DWORD PTR [ecx]
  00022	50		 push	 eax
  00023	52		 push	 edx
  00024	8d 45 f0	 lea	 eax, DWORD PTR $T542934[ebp]
  00027	50		 push	 eax
  00028	c7 45 fc 01 00
	00 00		 mov	 DWORD PTR __$EHRec$[ebp+8], 1
  0002f	e8 00 00 00 00	 call	 ?erase@?$vector@URoundInfo@@V?$allocator@URoundInfo@@@std@@@std@@QAE?AV?$_Vector_iterator@V?$_Vector_val@URoundInfo@@V?$allocator@URoundInfo@@@std@@@std@@@2@V?$_Vector_const_iterator@V?$_Vector_val@URoundInfo@@V?$allocator@URoundInfo@@@std@@@std@@@2@0@Z ; std::vector<RoundInfo,std::allocator<RoundInfo> >::erase

; 66   : 
; 67   : 	SAFEDELETE( m_pRedBack );

  00034	8b 8e 9c 01 00
	00		 mov	 ecx, DWORD PTR [esi+412]
  0003a	33 db		 xor	 ebx, ebx
  0003c	3b cb		 cmp	 ecx, ebx
  0003e	74 0d		 je	 SHORT $LN16@ioObserver@2
  00040	8b 01		 mov	 eax, DWORD PTR [ecx]
  00042	6a 01		 push	 1
  00044	ff 50 40	 call	 DWORD PTR [eax+64]
  00047	89 9e 9c 01 00
	00		 mov	 DWORD PTR [esi+412], ebx
$LN16@ioObserver@2:

; 68   : 	SAFEDELETE( m_pRedGauge );

  0004d	8b 8e a4 01 00
	00		 mov	 ecx, DWORD PTR [esi+420]
  00053	3b cb		 cmp	 ecx, ebx
  00055	74 0d		 je	 SHORT $LN15@ioObserver@2
  00057	8b 01		 mov	 eax, DWORD PTR [ecx]
  00059	6a 01		 push	 1
  0005b	ff 50 40	 call	 DWORD PTR [eax+64]
  0005e	89 9e a4 01 00
	00		 mov	 DWORD PTR [esi+420], ebx
$LN15@ioObserver@2:

; 69   : 	SAFEDELETE( m_pBlueBack );

  00064	8b 8e 98 01 00
	00		 mov	 ecx, DWORD PTR [esi+408]
  0006a	3b cb		 cmp	 ecx, ebx
  0006c	74 0d		 je	 SHORT $LN14@ioObserver@2
  0006e	8b 01		 mov	 eax, DWORD PTR [ecx]
  00070	6a 01		 push	 1
  00072	ff 50 40	 call	 DWORD PTR [eax+64]
  00075	89 9e 98 01 00
	00		 mov	 DWORD PTR [esi+408], ebx
$LN14@ioObserver@2:

; 70   : 	SAFEDELETE( m_pBlueGauge );

  0007b	8b 8e a0 01 00
	00		 mov	 ecx, DWORD PTR [esi+416]
  00081	3b cb		 cmp	 ecx, ebx
  00083	74 0d		 je	 SHORT $LN13@ioObserver@2
  00085	8b 01		 mov	 eax, DWORD PTR [ecx]
  00087	6a 01		 push	 1
  00089	ff 50 40	 call	 DWORD PTR [eax+64]
  0008c	89 9e a0 01 00
	00		 mov	 DWORD PTR [esi+416], ebx
$LN13@ioObserver@2:

; 71   : 	SAFEDELETE( m_pRedDead );

  00092	8b 8e a8 01 00
	00		 mov	 ecx, DWORD PTR [esi+424]
  00098	3b cb		 cmp	 ecx, ebx
  0009a	74 0d		 je	 SHORT $LN12@ioObserver@2
  0009c	8b 01		 mov	 eax, DWORD PTR [ecx]
  0009e	6a 01		 push	 1
  000a0	ff 50 40	 call	 DWORD PTR [eax+64]
  000a3	89 9e a8 01 00
	00		 mov	 DWORD PTR [esi+424], ebx
$LN12@ioObserver@2:

; 72   : 	SAFEDELETE( m_pAddGauge );

  000a9	8b 8e ac 01 00
	00		 mov	 ecx, DWORD PTR [esi+428]
  000af	3b cb		 cmp	 ecx, ebx
  000b1	74 0d		 je	 SHORT $LN11@ioObserver@2
  000b3	8b 01		 mov	 eax, DWORD PTR [ecx]
  000b5	6a 01		 push	 1
  000b7	ff 50 40	 call	 DWORD PTR [eax+64]
  000ba	89 9e ac 01 00
	00		 mov	 DWORD PTR [esi+428], ebx
$LN11@ioObserver@2:

; 73   : 	SAFEDELETE( m_pTargetMark );

  000c0	8b 8e f0 01 00
	00		 mov	 ecx, DWORD PTR [esi+496]
  000c6	3b cb		 cmp	 ecx, ebx
  000c8	74 0d		 je	 SHORT $LN10@ioObserver@2
  000ca	8b 01		 mov	 eax, DWORD PTR [ecx]
  000cc	6a 01		 push	 1
  000ce	ff 50 40	 call	 DWORD PTR [eax+64]
  000d1	89 9e f0 01 00
	00		 mov	 DWORD PTR [esi+496], ebx
$LN10@ioObserver@2:

; 74   : 	SAFEDELETE( m_pGuildBack );

  000d7	8b 8e 94 01 00
	00		 mov	 ecx, DWORD PTR [esi+404]
  000dd	3b cb		 cmp	 ecx, ebx
  000df	74 0d		 je	 SHORT $LN9@ioObserver@2
  000e1	8b 01		 mov	 eax, DWORD PTR [ecx]
  000e3	6a 01		 push	 1
  000e5	ff 50 40	 call	 DWORD PTR [eax+64]
  000e8	89 9e 94 01 00
	00		 mov	 DWORD PTR [esi+404], ebx
$LN9@ioObserver@2:

; 75   : 
; 76   : 	for( int i=0; i < MAX_TEAM_PLAYER; ++i )

  000ee	8d be d0 01 00
	00		 lea	 edi, DWORD PTR [esi+464]
  000f4	c7 45 f0 08 00
	00 00		 mov	 DWORD PTR tv238[ebp], 8
$LL8@ioObserver@2:

; 77   : 	{
; 78   : 		SAFEDELETE( m_pRedKeyText[i] );

  000fb	8b 4f e0	 mov	 ecx, DWORD PTR [edi-32]
  000fe	3b cb		 cmp	 ecx, ebx
  00100	74 0a		 je	 SHORT $LN5@ioObserver@2
  00102	8b 01		 mov	 eax, DWORD PTR [ecx]
  00104	6a 01		 push	 1
  00106	ff 50 40	 call	 DWORD PTR [eax+64]
  00109	89 5f e0	 mov	 DWORD PTR [edi-32], ebx
$LN5@ioObserver@2:

; 79   : 		SAFEDELETE( m_pBlueKeyText[i] );

  0010c	8b 0f		 mov	 ecx, DWORD PTR [edi]
  0010e	3b cb		 cmp	 ecx, ebx
  00110	74 09		 je	 SHORT $LN7@ioObserver@2
  00112	8b 01		 mov	 eax, DWORD PTR [ecx]
  00114	6a 01		 push	 1
  00116	ff 50 40	 call	 DWORD PTR [eax+64]
  00119	89 1f		 mov	 DWORD PTR [edi], ebx
$LN7@ioObserver@2:

; 75   : 
; 76   : 	for( int i=0; i < MAX_TEAM_PLAYER; ++i )

  0011b	83 c7 04	 add	 edi, 4
  0011e	ff 4d f0	 dec	 DWORD PTR tv238[ebp]
  00121	75 d8		 jne	 SHORT $LL8@ioObserver@2

; 80   : 	}
; 81   : 
; 82   : 	m_pPlayStage = NULL;

  00123	89 9e 90 01 00
	00		 mov	 DWORD PTR [esi+400], ebx

; 83   : 
; 84   : 	if( !COMPARE( m_iDefaultX, 0, Setting::Width() ) || 
; 85   : 		!COMPARE( m_iDefaultY, 0, Setting::Height() ) )

  00129	39 9e 10 02 00
	00		 cmp	 DWORD PTR [esi+528], ebx
  0012f	7c 5b		 jl	 SHORT $LN1@ioObserver@2
  00131	e8 00 00 00 00	 call	 ?Width@Setting@@SAHXZ	; Setting::Width
  00136	39 86 10 02 00
	00		 cmp	 DWORD PTR [esi+528], eax
  0013c	7d 4e		 jge	 SHORT $LN1@ioObserver@2
  0013e	39 9e 14 02 00
	00		 cmp	 DWORD PTR [esi+532], ebx
  00144	7c 46		 jl	 SHORT $LN1@ioObserver@2
  00146	e8 00 00 00 00	 call	 ?Height@Setting@@SAHXZ	; Setting::Height
  0014b	39 86 14 02 00
	00		 cmp	 DWORD PTR [esi+532], eax
  00151	7d 39		 jge	 SHORT $LN1@ioObserver@2

; 86   : 		return;
; 87   : 
; 88   : 	g_GUIMgr.GUIPosSaveInt( "ObserverRedWnd", "XPos", m_iDefaultX ,POS_SAVE_VERSION );

  00153	6a 04		 push	 4
  00155	ff b6 10 02 00
	00		 push	 DWORD PTR [esi+528]
  0015b	bf 00 00 00 00	 mov	 edi, OFFSET ??_C@_0P@FMHIIAKN@ObserverRedWnd?$AA@
  00160	68 00 00 00 00	 push	 OFFSET ??_C@_04LNCKCFGC@XPos?$AA@
  00165	57		 push	 edi
  00166	e8 00 00 00 00	 call	 ?GetSingleton@ioSP2GUIManager@@SAAAV1@XZ ; ioSP2GUIManager::GetSingleton
  0016b	8b c8		 mov	 ecx, eax
  0016d	e8 00 00 00 00	 call	 ?GUIPosSaveInt@ioSP2GUIManager@@QAEHPBD0HH@Z ; ioSP2GUIManager::GUIPosSaveInt

; 89   : 	g_GUIMgr.GUIPosSaveInt( "ObserverRedWnd", "YPos", m_iDefaultY ,POS_SAVE_VERSION );

  00172	6a 04		 push	 4
  00174	ff b6 14 02 00
	00		 push	 DWORD PTR [esi+532]
  0017a	68 00 00 00 00	 push	 OFFSET ??_C@_04IAEKAMNC@YPos?$AA@
  0017f	57		 push	 edi
  00180	e8 00 00 00 00	 call	 ?GetSingleton@ioSP2GUIManager@@SAAAV1@XZ ; ioSP2GUIManager::GetSingleton
  00185	8b c8		 mov	 ecx, eax
  00187	e8 00 00 00 00	 call	 ?GUIPosSaveInt@ioSP2GUIManager@@QAEHPBD0HH@Z ; ioSP2GUIManager::GUIPosSaveInt
$LN1@ioObserver@2:

; 90   : }

  0018c	8d 8e 00 02 00
	00		 lea	 ecx, DWORD PTR [esi+512]
  00192	88 5d fc	 mov	 BYTE PTR __$EHRec$[ebp+8], bl
  00195	e8 00 00 00 00	 call	 ?_Tidy@?$vector@URoundInfo@@V?$allocator@URoundInfo@@@std@@@std@@IAEXXZ ; std::vector<RoundInfo,std::allocator<RoundInfo> >::_Tidy
  0019a	83 4d fc ff	 or	 DWORD PTR __$EHRec$[ebp+8], -1
  0019e	8b ce		 mov	 ecx, esi
  001a0	ff 15 00 00 00
	00		 call	 DWORD PTR __imp_??1ioMovingWnd@@UAE@XZ
  001a6	e8 00 00 00 00	 call	 __EH_epilog3
  001ab	c3		 ret	 0
_TEXT	ENDS
;	COMDAT text$x
text$x	SEGMENT
__unwindfunclet$??1ioObserverRedWnd@@UAE@XZ$0:
  00000	8b 4d ec	 mov	 ecx, DWORD PTR _this$[ebp]
  00003	ff 25 00 00 00
	00		 jmp	 DWORD PTR __imp_??1ioMovingWnd@@UAE@XZ
__unwindfunclet$??1ioObserverRedWnd@@UAE@XZ$1:
  00009	8b 4d ec	 mov	 ecx, DWORD PTR _this$[ebp]
  0000c	81 c1 00 02 00
	00		 add	 ecx, 512		; 00000200H
  00012	e9 00 00 00 00	 jmp	 ??1?$vector@URoundInfo@@V?$allocator@URoundInfo@@@std@@@std@@QAE@XZ ; std::vector<RoundInfo,std::allocator<RoundInfo> >::~vector<RoundInfo,std::allocator<RoundInfo> >
__ehhandler$??1ioObserverRedWnd@@UAE@XZ:
  00017	8b 54 24 08	 mov	 edx, DWORD PTR [esp+8]
  0001b	8d 42 0c	 lea	 eax, DWORD PTR [edx+12]
  0001e	8b 4a e8	 mov	 ecx, DWORD PTR [edx-24]
  00021	33 c8		 xor	 ecx, eax
  00023	e8 00 00 00 00	 call	 @__security_check_cookie@4
  00028	b8 00 00 00 00	 mov	 eax, OFFSET __ehfuncinfo$??1ioObserverRedWnd@@UAE@XZ
  0002d	e9 00 00 00 00	 jmp	 ___CxxFrameHandler3
text$x	ENDS
??1ioObserverRedWnd@@UAE@XZ ENDP			; ioObserverRedWnd::~ioObserverRedWnd
PUBLIC	?ClearInfo@ioObserverRedWnd@@QAEXXZ		; ioObserverRedWnd::ClearInfo
; Function compile flags: /Ogsp
;	COMDAT ?ClearInfo@ioObserverRedWnd@@QAEXXZ
_TEXT	SEGMENT
$T542976 = -4						; size = 4
?ClearInfo@ioObserverRedWnd@@QAEXXZ PROC		; ioObserverRedWnd::ClearInfo, COMDAT
; _this$ = ecx

; 98   : {

  00000	55		 push	 ebp
  00001	8b ec		 mov	 ebp, esp
  00003	51		 push	 ecx

; 99   : 	m_RoundInfoList.erase( m_RoundInfoList.begin(), m_RoundInfoList.end() );

  00004	8b 81 04 02 00
	00		 mov	 eax, DWORD PTR [ecx+516]
  0000a	81 c1 00 02 00
	00		 add	 ecx, 512		; 00000200H
  00010	8b 11		 mov	 edx, DWORD PTR [ecx]
  00012	50		 push	 eax
  00013	52		 push	 edx
  00014	8d 45 fc	 lea	 eax, DWORD PTR $T542976[ebp]
  00017	50		 push	 eax
  00018	e8 00 00 00 00	 call	 ?erase@?$vector@URoundInfo@@V?$allocator@URoundInfo@@@std@@@std@@QAE?AV?$_Vector_iterator@V?$_Vector_val@URoundInfo@@V?$allocator@URoundInfo@@@std@@@std@@@2@V?$_Vector_const_iterator@V?$_Vector_val@URoundInfo@@V?$allocator@URoundInfo@@@std@@@std@@@2@0@Z ; std::vector<RoundInfo,std::allocator<RoundInfo> >::erase

; 100  : }

  0001d	c9		 leave
  0001e	c3		 ret	 0
?ClearInfo@ioObserverRedWnd@@QAEXXZ ENDP		; ioObserverRedWnd::ClearInfo
; Function compile flags: /Ogsp
_TEXT	ENDS
;	COMDAT ?iwm_hide@ioObserverRedWnd@@UAEXXZ
_TEXT	SEGMENT
$T543033 = -4						; size = 4
?iwm_hide@ioObserverRedWnd@@UAEXXZ PROC			; ioObserverRedWnd::iwm_hide, COMDAT
; _this$ = ecx

; 297  : {

  00000	55		 push	 ebp
  00001	8b ec		 mov	 ebp, esp
  00003	51		 push	 ecx

; 298  : 	m_RoundInfoList.erase( m_RoundInfoList.begin(), m_RoundInfoList.end() );

  00004	8b 81 04 02 00
	00		 mov	 eax, DWORD PTR [ecx+516]
  0000a	81 c1 00 02 00
	00		 add	 ecx, 512		; 00000200H
  00010	8b 11		 mov	 edx, DWORD PTR [ecx]
  00012	50		 push	 eax
  00013	52		 push	 edx
  00014	8d 45 fc	 lea	 eax, DWORD PTR $T543033[ebp]
  00017	50		 push	 eax
  00018	e8 00 00 00 00	 call	 ?erase@?$vector@URoundInfo@@V?$allocator@URoundInfo@@@std@@@std@@QAE?AV?$_Vector_iterator@V?$_Vector_val@URoundInfo@@V?$allocator@URoundInfo@@@std@@@std@@@2@V?$_Vector_const_iterator@V?$_Vector_val@URoundInfo@@V?$allocator@URoundInfo@@@std@@@std@@@2@0@Z ; std::vector<RoundInfo,std::allocator<RoundInfo> >::erase

; 299  : }

  0001d	c9		 leave
  0001e	c3		 ret	 0
?iwm_hide@ioObserverRedWnd@@UAEXXZ ENDP			; ioObserverRedWnd::iwm_hide
_TEXT	ENDS
PUBLIC	??_7ioObserverBlueWnd@@6B@			; ioObserverBlueWnd::`vftable'
PUBLIC	??0ioObserverBlueWnd@@QAE@XZ			; ioObserverBlueWnd::ioObserverBlueWnd
PUBLIC	??_R4ioObserverBlueWnd@@6B@			; ioObserverBlueWnd::`RTTI Complete Object Locator'
PUBLIC	??_R0?AVioObserverBlueWnd@@@8			; ioObserverBlueWnd `RTTI Type Descriptor'
PUBLIC	??_R3ioObserverBlueWnd@@8			; ioObserverBlueWnd::`RTTI Class Hierarchy Descriptor'
PUBLIC	??_R2ioObserverBlueWnd@@8			; ioObserverBlueWnd::`RTTI Base Class Array'
PUBLIC	??_R1A@?0A@EA@ioObserverBlueWnd@@8		; ioObserverBlueWnd::`RTTI Base Class Descriptor at (0,-1,0,64)'
PUBLIC	?iwm_hide@ioObserverBlueWnd@@UAEXXZ		; ioObserverBlueWnd::iwm_hide
EXTRN	??_EioObserverBlueWnd@@UAEPAXI@Z:PROC		; ioObserverBlueWnd::`vector deleting destructor'
;	COMDAT ??_R1A@?0A@EA@ioObserverBlueWnd@@8
; File c:\program files (x86)\microsoft visual studio 10.0\vc\include\xmemory
rdata$r	SEGMENT
??_R1A@?0A@EA@ioObserverBlueWnd@@8 DD FLAT:??_R0?AVioObserverBlueWnd@@@8 ; ioObserverBlueWnd::`RTTI Base Class Descriptor at (0,-1,0,64)'
	DD	02H
	DD	00H
	DD	0ffffffffH
	DD	00H
	DD	040H
	DD	FLAT:??_R3ioObserverBlueWnd@@8
rdata$r	ENDS
;	COMDAT ??_R2ioObserverBlueWnd@@8
rdata$r	SEGMENT
??_R2ioObserverBlueWnd@@8 DD FLAT:??_R1A@?0A@EA@ioObserverBlueWnd@@8 ; ioObserverBlueWnd::`RTTI Base Class Array'
	DD	FLAT:??_R1A@?0A@EA@ioMovingWnd@@8
	DD	FLAT:??_R1A@?0A@EA@ioWnd@@8
rdata$r	ENDS
;	COMDAT ??_R3ioObserverBlueWnd@@8
rdata$r	SEGMENT
??_R3ioObserverBlueWnd@@8 DD 00H			; ioObserverBlueWnd::`RTTI Class Hierarchy Descriptor'
	DD	00H
	DD	03H
	DD	FLAT:??_R2ioObserverBlueWnd@@8
rdata$r	ENDS
;	COMDAT ??_R0?AVioObserverBlueWnd@@@8
_DATA	SEGMENT
??_R0?AVioObserverBlueWnd@@@8 DD FLAT:??_7type_info@@6B@ ; ioObserverBlueWnd `RTTI Type Descriptor'
	DD	00H
	DB	'.?AVioObserverBlueWnd@@', 00H
_DATA	ENDS
;	COMDAT ??_R4ioObserverBlueWnd@@6B@
rdata$r	SEGMENT
??_R4ioObserverBlueWnd@@6B@ DD 00H			; ioObserverBlueWnd::`RTTI Complete Object Locator'
	DD	00H
	DD	00H
	DD	FLAT:??_R0?AVioObserverBlueWnd@@@8
	DD	FLAT:??_R3ioObserverBlueWnd@@8
rdata$r	ENDS
;	COMDAT ??_7ioObserverBlueWnd@@6B@
CONST	SEGMENT
??_7ioObserverBlueWnd@@6B@ DD FLAT:??_R4ioObserverBlueWnd@@6B@ ; ioObserverBlueWnd::`vftable'
	DD	FLAT:?AddRenderFrame@ioWnd@@UAEXABVioHashString@@PAVioUIRenderFrame@@@Z
	DD	FLAT:?AddRenderImage@ioObserverBlueWnd@@UAEXABVioHashString@@PAVioUIRenderImage@@@Z
	DD	FLAT:?AddTooltipHelp@ioWnd@@UAEXABVioHashString@@00@Z
	DD	FLAT:?ParseExtraInfo@ioObserverBlueWnd@@UAEXAAVioXMLElement@@@Z
	DD	FLAT:?AddNamedRenderImage@ioWnd@@UAEXABVioHashString@@PAVioUIRenderImage@@@Z
	DD	FLAT:?RemoveNamedRenderImage@ioWnd@@UAEXABVioHashString@@@Z
	DD	FLAT:?GetNamedRenderImage@ioWnd@@UBEPAVioUIRenderImage@@ABVioHashString@@@Z
	DD	FLAT:?SetWindowAlpha@ioWnd@@UAEXH@Z
	DD	FLAT:?SetActive@ioWnd@@UAEXXZ
	DD	FLAT:?SetInActive@ioWnd@@UAEXXZ
	DD	FLAT:?ClearElementImageList@ioWnd@@UAEXXZ
	DD	FLAT:?SetSize@ioWnd@@UAEXHH@Z
	DD	FLAT:?SetPositionToDefault@ioObserverBlueWnd@@MAEXHH_N0@Z
	DD	FLAT:?IsNeedProcess@ioWnd@@UBE_NXZ
	DD	FLAT:?IsCanMouseReaction@ioWnd@@UBE_NXZ
	DD	FLAT:?AddChild@ioWnd@@UAEXPAV1@@Z
	DD	FLAT:?DeleteChild@ioWnd@@UAEXK@Z
	DD	FLAT:?DeleteAllChild@ioWnd@@UAEXXZ
	DD	FLAT:?OnRenderShowAndHide@ioWnd@@MAE_NXZ
	DD	FLAT:?OnRenderShowAndHideByDefault@ioWnd@@MAE_NK@Z
	DD	FLAT:?OnRenderShowAndHideByTop@ioWnd@@MAE_NK@Z
	DD	FLAT:?OnRenderShowAndHideByDown@ioWnd@@MAE_NK@Z
	DD	FLAT:?OnRender@ioObserverBlueWnd@@MAEXXZ
	DD	FLAT:?OnRenderAfterChild@ioWnd@@MAEXXZ
	DD	FLAT:?OnProcess@ioObserverBlueWnd@@MAEXM@Z
	DD	FLAT:?OnMouseProcess@ioMovingWnd@@MAEXABVioMouse@@@Z
	DD	FLAT:?CheckFrameReSize@ioWnd@@MAEXHHHH@Z
	DD	FLAT:?RenderImageList@ioWnd@@MAEXHHW4UIRenderType@@@Z
	DD	FLAT:?iwm_create@ioObserverBlueWnd@@UAEXXZ
	DD	FLAT:?iwm_destroy@ioWnd@@UAEXXZ
	DD	FLAT:?iwm_lbuttondown@ioMovingWnd@@UAEXABVioMouse@@@Z
	DD	FLAT:?iwm_lbuttonup@ioMovingWnd@@UAEXABVioMouse@@@Z
	DD	FLAT:?iwm_lbuttonDBLCLK@ioWnd@@UAEXABVioMouse@@@Z
	DD	FLAT:?iwm_rbuttondown@ioWnd@@UAEXABVioMouse@@@Z
	DD	FLAT:?iwm_rbuttonup@ioWnd@@UAEXABVioMouse@@@Z
	DD	FLAT:?iwm_command@ioWnd@@UAEXPAV1@HK@Z
	DD	FLAT:?iwm_mouseover@ioWnd@@UAEXABVioMouse@@@Z
	DD	FLAT:?iwm_mousemove@ioWnd@@UAEXABVioMouse@@@Z
	DD	FLAT:?iwm_mouseleave@ioWnd@@UAEXABVioMouse@@@Z
	DD	FLAT:?iwm_vscroll@ioWnd@@UAEXKH@Z
	DD	FLAT:?iwm_wheel@ioWnd@@UAEXH@Z
	DD	FLAT:?iwm_show@ioObserverBlueWnd@@UAEXXZ
	DD	FLAT:?iwm_hide@ioObserverBlueWnd@@UAEXXZ
	DD	FLAT:?iwm_esc@ioWnd@@UAE_NXZ
	DD	FLAT:?iwm_spacebar@ioWnd@@UAE_NXZ
	DD	FLAT:?iwm_gototop@ioWnd@@UAEXXZ
	DD	FLAT:?iwm_dragenter@ioWnd@@UAE?AW4IWDropEffect@@PAVioDragItem@@ABVioMouse@@@Z
	DD	FLAT:?iwm_dragover@ioWnd@@UAE?AW4IWDropEffect@@PAVioDragItem@@ABVioMouse@@@Z
	DD	FLAT:?iwm_dragleave@ioWnd@@UAEXXZ
	DD	FLAT:?iwm_dropitem@ioWnd@@UAE_NPAVioDragItem@@ABVioMouse@@PAV1@@Z
	DD	FLAT:?iwm_dropdone@ioWnd@@UAEXPAVioDragItem@@PAV1@_N@Z
	DD	FLAT:?IsEXType@ioWnd@@UBE_NXZ
	DD	FLAT:?GetWndType@ioWnd@@UBEKXZ
	DD	FLAT:?RenderWnd@ioWnd@@UAEXXZ
	DD	FLAT:?SetIDEX@ioWnd@@UAEXAAK_N@Z
	DD	FLAT:?ParseXML@ioWnd@@UAEXAAVioXMLElement@@@Z
	DD	FLAT:?GetHeaderFileName@ioWnd@@UAEPBDXZ
	DD	FLAT:?GetTemplateName@ioWnd@@UAEPBDXZ
	DD	FLAT:?GetDefClassName@ioWnd@@UBEPBDXZ
	DD	FLAT:?_Clone@ioWnd@@UAEPAV1@XZ
	DD	FLAT:?Copy@ioWnd@@UAEXPAV1@@Z
	DD	FLAT:?Save@ioWnd@@UAE_NAAVioXMLElement@@@Z
	DD	FLAT:?SetSaveData@ioWnd@@UAEXAAVioXMLElement@@@Z
	DD	FLAT:?SetPosX@ioWnd@@UAEXH@Z
	DD	FLAT:?SetPosY@ioWnd@@UAEXH@Z
	DD	FLAT:?SetWidth@ioWnd@@UAEXH@Z
	DD	FLAT:?SetHeight@ioWnd@@UAEXH@Z
	DD	FLAT:?GetNumFixedRenderFrame@ioWnd@@UBEHXZ
	DD	FLAT:?GetFixedRenderFrameType@ioWnd@@UAEPBDH@Z
	DD	FLAT:?GetRenderFrame@ioWnd@@UAEPAPAVioUIRenderElement@@PBD@Z
	DD	FLAT:?GetNumFixedRenderImage@ioWnd@@UBEHXZ
	DD	FLAT:?GetFixedRenderImageType@ioWnd@@UAEPBDH@Z
	DD	FLAT:?GetRenderImage@ioWnd@@UAEPAPAVioUIRenderElement@@PBD@Z
	DD	FLAT:?AddEffect@ioWnd@@UAEXABVioHashString@@PAVioUI3DEffectRender@@@Z
	DD	FLAT:?GetEffect@ioWnd@@UAEPAVioUI3DEffectRender@@VioHashString@@@Z
	DD	FLAT:??_EioObserverBlueWnd@@UAEPAXI@Z
; Function compile flags: /Ogsp
; File d:\lost saga for developer\youtube\tutorial\source\src\lsclient\gui\ioobserverwnd.cpp
CONST	ENDS
;	COMDAT ??0ioObserverBlueWnd@@QAE@XZ
_TEXT	SEGMENT
??0ioObserverBlueWnd@@QAE@XZ PROC			; ioObserverBlueWnd::ioObserverBlueWnd, COMDAT
; _this$ = ecx

; 697  : {

  00000	56		 push	 esi
  00001	8b f1		 mov	 esi, ecx
  00003	ff 15 00 00 00
	00		 call	 DWORD PTR __imp_??0ioMovingWnd@@QAE@XZ
  00009	33 c0		 xor	 eax, eax
  0000b	c7 06 00 00 00
	00		 mov	 DWORD PTR [esi], OFFSET ??_7ioObserverBlueWnd@@6B@
  00011	89 86 c8 01 00
	00		 mov	 DWORD PTR [esi+456], eax
  00017	89 86 cc 01 00
	00		 mov	 DWORD PTR [esi+460], eax
  0001d	89 86 d0 01 00
	00		 mov	 DWORD PTR [esi+464], eax

; 698  : 	m_pBlueBack = NULL;

  00023	89 86 98 01 00
	00		 mov	 DWORD PTR [esi+408], eax

; 699  : 	m_pRedBack = NULL;

  00029	89 86 9c 01 00
	00		 mov	 DWORD PTR [esi+412], eax

; 700  : 	m_pBlueGauge = NULL;

  0002f	89 86 a0 01 00
	00		 mov	 DWORD PTR [esi+416], eax

; 701  : 	m_pRedGauge = NULL;

  00035	89 86 a4 01 00
	00		 mov	 DWORD PTR [esi+420], eax

; 702  : 
; 703  : 	m_pBlueDead = NULL;

  0003b	89 86 a8 01 00
	00		 mov	 DWORD PTR [esi+424], eax

; 704  : 	m_pAddGauge = NULL;

  00041	89 86 ac 01 00
	00		 mov	 DWORD PTR [esi+428], eax

; 705  : 
; 706  : 	m_pBlueNumKey = NULL;

  00047	89 86 b0 01 00
	00		 mov	 DWORD PTR [esi+432], eax

; 707  : 	m_pRedNumKey = NULL;

  0004d	89 86 b4 01 00
	00		 mov	 DWORD PTR [esi+436], eax

; 708  : 
; 709  : 	m_pTargetMark = NULL;

  00053	89 86 b8 01 00
	00		 mov	 DWORD PTR [esi+440], eax

; 710  : 	m_pGuildBack = NULL;

  00059	89 86 94 01 00
	00		 mov	 DWORD PTR [esi+404], eax

; 711  : 
; 712  : 	m_pPlayStage = NULL;

  0005f	89 86 90 01 00
	00		 mov	 DWORD PTR [esi+400], eax

; 713  : 
; 714  : 	m_bCheckMark = false;

  00065	88 86 c0 01 00
	00		 mov	 BYTE PTR [esi+448], al

; 715  : 	m_dwCheckTime = 0;

  0006b	89 86 c4 01 00
	00		 mov	 DWORD PTR [esi+452], eax

; 716  : 
; 717  : 	m_iDefaultX = 0;

  00071	89 86 d8 01 00
	00		 mov	 DWORD PTR [esi+472], eax

; 718  : 	m_iDefaultY = 0;

  00077	89 86 dc 01 00
	00		 mov	 DWORD PTR [esi+476], eax

; 719  : }

  0007d	8b c6		 mov	 eax, esi
  0007f	5e		 pop	 esi
  00080	c3		 ret	 0
??0ioObserverBlueWnd@@QAE@XZ ENDP			; ioObserverBlueWnd::ioObserverBlueWnd
_TEXT	ENDS
PUBLIC	??1ioObserverBlueWnd@@UAE@XZ			; ioObserverBlueWnd::~ioObserverBlueWnd
;	COMDAT xdata$x
; File c:\program files (x86)\microsoft visual studio 10.0\vc\include\vector
xdata$x	SEGMENT
__unwindtable$??1ioObserverBlueWnd@@UAE@XZ DD 0ffffffffH
	DD	FLAT:__unwindfunclet$??1ioObserverBlueWnd@@UAE@XZ$0
	DD	00H
	DD	FLAT:__unwindfunclet$??1ioObserverBlueWnd@@UAE@XZ$1
__ehfuncinfo$??1ioObserverBlueWnd@@UAE@XZ DD 019930522H
	DD	02H
	DD	FLAT:__unwindtable$??1ioObserverBlueWnd@@UAE@XZ
	DD	2 DUP(00H)
	DD	2 DUP(00H)
	DD	00H
	DD	01H
; Function compile flags: /Ogsp
; File d:\lost saga for developer\youtube\tutorial\source\src\lsclient\gui\ioobserverwnd.cpp
xdata$x	ENDS
;	COMDAT ??1ioObserverBlueWnd@@UAE@XZ
_TEXT	SEGMENT
$T543220 = -20						; size = 4
_this$ = -16						; size = 4
__$EHRec$ = -12						; size = 12
??1ioObserverBlueWnd@@UAE@XZ PROC			; ioObserverBlueWnd::~ioObserverBlueWnd, COMDAT
; _this$ = ecx

; 722  : {

  00000	6a 08		 push	 8
  00002	b8 00 00 00 00	 mov	 eax, __ehhandler$??1ioObserverBlueWnd@@UAE@XZ
  00007	e8 00 00 00 00	 call	 __EH_prolog3
  0000c	8b f1		 mov	 esi, ecx
  0000e	89 75 f0	 mov	 DWORD PTR _this$[ebp], esi
  00011	c7 06 00 00 00
	00		 mov	 DWORD PTR [esi], OFFSET ??_7ioObserverBlueWnd@@6B@

; 723  : 	m_RoundInfoList.clear();

  00017	8d 8e c8 01 00
	00		 lea	 ecx, DWORD PTR [esi+456]
  0001d	8b 41 04	 mov	 eax, DWORD PTR [ecx+4]
  00020	8b 11		 mov	 edx, DWORD PTR [ecx]
  00022	50		 push	 eax
  00023	52		 push	 edx
  00024	8d 45 ec	 lea	 eax, DWORD PTR $T543220[ebp]
  00027	50		 push	 eax
  00028	c7 45 fc 01 00
	00 00		 mov	 DWORD PTR __$EHRec$[ebp+8], 1
  0002f	e8 00 00 00 00	 call	 ?erase@?$vector@URoundInfo@@V?$allocator@URoundInfo@@@std@@@std@@QAE?AV?$_Vector_iterator@V?$_Vector_val@URoundInfo@@V?$allocator@URoundInfo@@@std@@@std@@@2@V?$_Vector_const_iterator@V?$_Vector_val@URoundInfo@@V?$allocator@URoundInfo@@@std@@@std@@@2@0@Z ; std::vector<RoundInfo,std::allocator<RoundInfo> >::erase

; 724  : 
; 725  : 	SAFEDELETE( m_pBlueBack );

  00034	8b 8e 98 01 00
	00		 mov	 ecx, DWORD PTR [esi+408]
  0003a	33 db		 xor	 ebx, ebx
  0003c	3b cb		 cmp	 ecx, ebx
  0003e	74 0d		 je	 SHORT $LN13@ioObserver@3
  00040	8b 01		 mov	 eax, DWORD PTR [ecx]
  00042	6a 01		 push	 1
  00044	ff 50 40	 call	 DWORD PTR [eax+64]
  00047	89 9e 98 01 00
	00		 mov	 DWORD PTR [esi+408], ebx
$LN13@ioObserver@3:

; 726  : 	SAFEDELETE( m_pRedBack );

  0004d	8b 8e 9c 01 00
	00		 mov	 ecx, DWORD PTR [esi+412]
  00053	3b cb		 cmp	 ecx, ebx
  00055	74 0d		 je	 SHORT $LN12@ioObserver@3
  00057	8b 01		 mov	 eax, DWORD PTR [ecx]
  00059	6a 01		 push	 1
  0005b	ff 50 40	 call	 DWORD PTR [eax+64]
  0005e	89 9e 9c 01 00
	00		 mov	 DWORD PTR [esi+412], ebx
$LN12@ioObserver@3:

; 727  : 	SAFEDELETE( m_pBlueGauge );

  00064	8b 8e a0 01 00
	00		 mov	 ecx, DWORD PTR [esi+416]
  0006a	3b cb		 cmp	 ecx, ebx
  0006c	74 0d		 je	 SHORT $LN11@ioObserver@3
  0006e	8b 01		 mov	 eax, DWORD PTR [ecx]
  00070	6a 01		 push	 1
  00072	ff 50 40	 call	 DWORD PTR [eax+64]
  00075	89 9e a0 01 00
	00		 mov	 DWORD PTR [esi+416], ebx
$LN11@ioObserver@3:

; 728  : 	SAFEDELETE( m_pRedGauge );

  0007b	8b 8e a4 01 00
	00		 mov	 ecx, DWORD PTR [esi+420]
  00081	3b cb		 cmp	 ecx, ebx
  00083	74 0d		 je	 SHORT $LN10@ioObserver@3
  00085	8b 01		 mov	 eax, DWORD PTR [ecx]
  00087	6a 01		 push	 1
  00089	ff 50 40	 call	 DWORD PTR [eax+64]
  0008c	89 9e a4 01 00
	00		 mov	 DWORD PTR [esi+420], ebx
$LN10@ioObserver@3:

; 729  : 
; 730  : 	SAFEDELETE( m_pBlueDead );

  00092	8b 8e a8 01 00
	00		 mov	 ecx, DWORD PTR [esi+424]
  00098	3b cb		 cmp	 ecx, ebx
  0009a	74 0d		 je	 SHORT $LN9@ioObserver@3
  0009c	8b 01		 mov	 eax, DWORD PTR [ecx]
  0009e	6a 01		 push	 1
  000a0	ff 50 40	 call	 DWORD PTR [eax+64]
  000a3	89 9e a8 01 00
	00		 mov	 DWORD PTR [esi+424], ebx
$LN9@ioObserver@3:

; 731  : 	SAFEDELETE( m_pAddGauge );

  000a9	8b 8e ac 01 00
	00		 mov	 ecx, DWORD PTR [esi+428]
  000af	3b cb		 cmp	 ecx, ebx
  000b1	74 0d		 je	 SHORT $LN8@ioObserver@3
  000b3	8b 01		 mov	 eax, DWORD PTR [ecx]
  000b5	6a 01		 push	 1
  000b7	ff 50 40	 call	 DWORD PTR [eax+64]
  000ba	89 9e ac 01 00
	00		 mov	 DWORD PTR [esi+428], ebx
$LN8@ioObserver@3:

; 732  : 
; 733  : 	SAFEDELETE( m_pBlueNumKey );

  000c0	8b 8e b0 01 00
	00		 mov	 ecx, DWORD PTR [esi+432]
  000c6	3b cb		 cmp	 ecx, ebx
  000c8	74 0d		 je	 SHORT $LN7@ioObserver@3
  000ca	8b 01		 mov	 eax, DWORD PTR [ecx]
  000cc	6a 01		 push	 1
  000ce	ff 50 40	 call	 DWORD PTR [eax+64]
  000d1	89 9e b0 01 00
	00		 mov	 DWORD PTR [esi+432], ebx
$LN7@ioObserver@3:

; 734  : 	SAFEDELETE( m_pRedNumKey );

  000d7	8b 8e b4 01 00
	00		 mov	 ecx, DWORD PTR [esi+436]
  000dd	3b cb		 cmp	 ecx, ebx
  000df	74 0d		 je	 SHORT $LN6@ioObserver@3
  000e1	8b 01		 mov	 eax, DWORD PTR [ecx]
  000e3	6a 01		 push	 1
  000e5	ff 50 40	 call	 DWORD PTR [eax+64]
  000e8	89 9e b4 01 00
	00		 mov	 DWORD PTR [esi+436], ebx
$LN6@ioObserver@3:

; 735  : 
; 736  : 	SAFEDELETE( m_pTargetMark );

  000ee	8b 8e b8 01 00
	00		 mov	 ecx, DWORD PTR [esi+440]
  000f4	3b cb		 cmp	 ecx, ebx
  000f6	74 0d		 je	 SHORT $LN5@ioObserver@3
  000f8	8b 01		 mov	 eax, DWORD PTR [ecx]
  000fa	6a 01		 push	 1
  000fc	ff 50 40	 call	 DWORD PTR [eax+64]
  000ff	89 9e b8 01 00
	00		 mov	 DWORD PTR [esi+440], ebx
$LN5@ioObserver@3:

; 737  : 	SAFEDELETE( m_pGuildBack );

  00105	8b 8e 94 01 00
	00		 mov	 ecx, DWORD PTR [esi+404]
  0010b	3b cb		 cmp	 ecx, ebx
  0010d	74 0d		 je	 SHORT $LN4@ioObserver@3
  0010f	8b 01		 mov	 eax, DWORD PTR [ecx]
  00111	6a 01		 push	 1
  00113	ff 50 40	 call	 DWORD PTR [eax+64]
  00116	89 9e 94 01 00
	00		 mov	 DWORD PTR [esi+404], ebx
$LN4@ioObserver@3:

; 738  : 
; 739  : 	m_pPlayStage = NULL;

  0011c	89 9e 90 01 00
	00		 mov	 DWORD PTR [esi+400], ebx

; 740  : 
; 741  : 	if( !COMPARE( m_iDefaultX, 0, Setting::Width() ) || 
; 742  : 		!COMPARE( m_iDefaultY, 0, Setting::Height() ) )

  00122	39 9e d8 01 00
	00		 cmp	 DWORD PTR [esi+472], ebx
  00128	7c 5b		 jl	 SHORT $LN1@ioObserver@3
  0012a	e8 00 00 00 00	 call	 ?Width@Setting@@SAHXZ	; Setting::Width
  0012f	39 86 d8 01 00
	00		 cmp	 DWORD PTR [esi+472], eax
  00135	7d 4e		 jge	 SHORT $LN1@ioObserver@3
  00137	39 9e dc 01 00
	00		 cmp	 DWORD PTR [esi+476], ebx
  0013d	7c 46		 jl	 SHORT $LN1@ioObserver@3
  0013f	e8 00 00 00 00	 call	 ?Height@Setting@@SAHXZ	; Setting::Height
  00144	39 86 dc 01 00
	00		 cmp	 DWORD PTR [esi+476], eax
  0014a	7d 39		 jge	 SHORT $LN1@ioObserver@3

; 743  : 		return;
; 744  : 
; 745  : 	g_GUIMgr.GUIPosSaveInt( "ObserverBlueWnd", "XPos", m_iDefaultX ,POS_SAVE_VERSION );

  0014c	6a 04		 push	 4
  0014e	ff b6 d8 01 00
	00		 push	 DWORD PTR [esi+472]
  00154	bf 00 00 00 00	 mov	 edi, OFFSET ??_C@_0BA@NDFGHFKL@ObserverBlueWnd?$AA@
  00159	68 00 00 00 00	 push	 OFFSET ??_C@_04LNCKCFGC@XPos?$AA@
  0015e	57		 push	 edi
  0015f	e8 00 00 00 00	 call	 ?GetSingleton@ioSP2GUIManager@@SAAAV1@XZ ; ioSP2GUIManager::GetSingleton
  00164	8b c8		 mov	 ecx, eax
  00166	e8 00 00 00 00	 call	 ?GUIPosSaveInt@ioSP2GUIManager@@QAEHPBD0HH@Z ; ioSP2GUIManager::GUIPosSaveInt

; 746  : 	g_GUIMgr.GUIPosSaveInt( "ObserverBlueWnd", "YPos", m_iDefaultY ,POS_SAVE_VERSION );

  0016b	6a 04		 push	 4
  0016d	ff b6 dc 01 00
	00		 push	 DWORD PTR [esi+476]
  00173	68 00 00 00 00	 push	 OFFSET ??_C@_04IAEKAMNC@YPos?$AA@
  00178	57		 push	 edi
  00179	e8 00 00 00 00	 call	 ?GetSingleton@ioSP2GUIManager@@SAAAV1@XZ ; ioSP2GUIManager::GetSingleton
  0017e	8b c8		 mov	 ecx, eax
  00180	e8 00 00 00 00	 call	 ?GUIPosSaveInt@ioSP2GUIManager@@QAEHPBD0HH@Z ; ioSP2GUIManager::GUIPosSaveInt
$LN1@ioObserver@3:

; 747  : }

  00185	8d 8e c8 01 00
	00		 lea	 ecx, DWORD PTR [esi+456]
  0018b	88 5d fc	 mov	 BYTE PTR __$EHRec$[ebp+8], bl
  0018e	e8 00 00 00 00	 call	 ?_Tidy@?$vector@URoundInfo@@V?$allocator@URoundInfo@@@std@@@std@@IAEXXZ ; std::vector<RoundInfo,std::allocator<RoundInfo> >::_Tidy
  00193	83 4d fc ff	 or	 DWORD PTR __$EHRec$[ebp+8], -1
  00197	8b ce		 mov	 ecx, esi
  00199	ff 15 00 00 00
	00		 call	 DWORD PTR __imp_??1ioMovingWnd@@UAE@XZ
  0019f	e8 00 00 00 00	 call	 __EH_epilog3
  001a4	c3		 ret	 0
_TEXT	ENDS
;	COMDAT text$x
text$x	SEGMENT
__unwindfunclet$??1ioObserverBlueWnd@@UAE@XZ$0:
  00000	8b 4d f0	 mov	 ecx, DWORD PTR _this$[ebp]
  00003	ff 25 00 00 00
	00		 jmp	 DWORD PTR __imp_??1ioMovingWnd@@UAE@XZ
__unwindfunclet$??1ioObserverBlueWnd@@UAE@XZ$1:
  00009	8b 4d f0	 mov	 ecx, DWORD PTR _this$[ebp]
  0000c	81 c1 c8 01 00
	00		 add	 ecx, 456		; 000001c8H
  00012	e9 00 00 00 00	 jmp	 ??1?$vector@URoundInfo@@V?$allocator@URoundInfo@@@std@@@std@@QAE@XZ ; std::vector<RoundInfo,std::allocator<RoundInfo> >::~vector<RoundInfo,std::allocator<RoundInfo> >
__ehhandler$??1ioObserverBlueWnd@@UAE@XZ:
  00017	8b 54 24 08	 mov	 edx, DWORD PTR [esp+8]
  0001b	8d 42 0c	 lea	 eax, DWORD PTR [edx+12]
  0001e	8b 4a e8	 mov	 ecx, DWORD PTR [edx-24]
  00021	33 c8		 xor	 ecx, eax
  00023	e8 00 00 00 00	 call	 @__security_check_cookie@4
  00028	b8 00 00 00 00	 mov	 eax, OFFSET __ehfuncinfo$??1ioObserverBlueWnd@@UAE@XZ
  0002d	e9 00 00 00 00	 jmp	 ___CxxFrameHandler3
text$x	ENDS
??1ioObserverBlueWnd@@UAE@XZ ENDP			; ioObserverBlueWnd::~ioObserverBlueWnd
PUBLIC	?ClearInfo@ioObserverBlueWnd@@QAEXXZ		; ioObserverBlueWnd::ClearInfo
; Function compile flags: /Ogsp
;	COMDAT ?ClearInfo@ioObserverBlueWnd@@QAEXXZ
_TEXT	SEGMENT
$T543259 = -4						; size = 4
?ClearInfo@ioObserverBlueWnd@@QAEXXZ PROC		; ioObserverBlueWnd::ClearInfo, COMDAT
; _this$ = ecx

; 755  : {

  00000	55		 push	 ebp
  00001	8b ec		 mov	 ebp, esp
  00003	51		 push	 ecx

; 756  : 	m_RoundInfoList.erase( m_RoundInfoList.begin(), m_RoundInfoList.end() );

  00004	8b 81 cc 01 00
	00		 mov	 eax, DWORD PTR [ecx+460]
  0000a	81 c1 c8 01 00
	00		 add	 ecx, 456		; 000001c8H
  00010	8b 11		 mov	 edx, DWORD PTR [ecx]
  00012	50		 push	 eax
  00013	52		 push	 edx
  00014	8d 45 fc	 lea	 eax, DWORD PTR $T543259[ebp]
  00017	50		 push	 eax
  00018	e8 00 00 00 00	 call	 ?erase@?$vector@URoundInfo@@V?$allocator@URoundInfo@@@std@@@std@@QAE?AV?$_Vector_iterator@V?$_Vector_val@URoundInfo@@V?$allocator@URoundInfo@@@std@@@std@@@2@V?$_Vector_const_iterator@V?$_Vector_val@URoundInfo@@V?$allocator@URoundInfo@@@std@@@std@@@2@0@Z ; std::vector<RoundInfo,std::allocator<RoundInfo> >::erase

; 757  : }

  0001d	c9		 leave
  0001e	c3		 ret	 0
?ClearInfo@ioObserverBlueWnd@@QAEXXZ ENDP		; ioObserverBlueWnd::ClearInfo
; Function compile flags: /Ogsp
_TEXT	ENDS
;	COMDAT ?iwm_hide@ioObserverBlueWnd@@UAEXXZ
_TEXT	SEGMENT
$T543316 = -4						; size = 4
?iwm_hide@ioObserverBlueWnd@@UAEXXZ PROC		; ioObserverBlueWnd::iwm_hide, COMDAT
; _this$ = ecx

; 884  : {

  00000	55		 push	 ebp
  00001	8b ec		 mov	 ebp, esp
  00003	51		 push	 ecx

; 885  : 	m_RoundInfoList.erase( m_RoundInfoList.begin(), m_RoundInfoList.end() );

  00004	8b 81 cc 01 00
	00		 mov	 eax, DWORD PTR [ecx+460]
  0000a	81 c1 c8 01 00
	00		 add	 ecx, 456		; 000001c8H
  00010	8b 11		 mov	 edx, DWORD PTR [ecx]
  00012	50		 push	 eax
  00013	52		 push	 edx
  00014	8d 45 fc	 lea	 eax, DWORD PTR $T543316[ebp]
  00017	50		 push	 eax
  00018	e8 00 00 00 00	 call	 ?erase@?$vector@URoundInfo@@V?$allocator@URoundInfo@@@std@@@std@@QAE?AV?$_Vector_iterator@V?$_Vector_val@URoundInfo@@V?$allocator@URoundInfo@@@std@@@std@@@2@V?$_Vector_const_iterator@V?$_Vector_val@URoundInfo@@V?$allocator@URoundInfo@@@std@@@std@@@2@0@Z ; std::vector<RoundInfo,std::allocator<RoundInfo> >::erase

; 886  : }

  0001d	c9		 leave
  0001e	c3		 ret	 0
?iwm_hide@ioObserverBlueWnd@@UAEXXZ ENDP		; ioObserverBlueWnd::iwm_hide
_TEXT	ENDS
PUBLIC	?push_back@?$vector@URoundInfo@@V?$allocator@URoundInfo@@@std@@@std@@QAEXABURoundInfo@@@Z ; std::vector<RoundInfo,std::allocator<RoundInfo> >::push_back
; Function compile flags: /Ogsp
; File c:\program files (x86)\microsoft visual studio 10.0\vc\include\vector
;	COMDAT ?push_back@?$vector@URoundInfo@@V?$allocator@URoundInfo@@@std@@@std@@QAEXABURoundInfo@@@Z
_TEXT	SEGMENT
__Val$ = 8						; size = 4
?push_back@?$vector@URoundInfo@@V?$allocator@URoundInfo@@@std@@@std@@QAEXABURoundInfo@@@Z PROC ; std::vector<RoundInfo,std::allocator<RoundInfo> >::push_back, COMDAT
; _this$ = ecx

; 976  : 		{	// insert element at end

  00000	55		 push	 ebp
  00001	8b ec		 mov	 ebp, esp
  00003	56		 push	 esi
  00004	8b f1		 mov	 esi, ecx

; 977  : 		if (_Inside(_STD addressof(_Val)))

  00006	8b 46 04	 mov	 eax, DWORD PTR [esi+4]
  00009	57		 push	 edi
  0000a	8b 7d 08	 mov	 edi, DWORD PTR __Val$[ebp]
  0000d	3b f8		 cmp	 edi, eax
  0000f	73 2d		 jae	 SHORT $LN4@push_back
  00011	8b 0e		 mov	 ecx, DWORD PTR [esi]
  00013	3b cf		 cmp	 ecx, edi
  00015	77 27		 ja	 SHORT $LN4@push_back

; 978  : 			{	// push back an element
; 979  : 			size_type _Idx = _STD addressof(_Val) - this->_Myfirst;

  00017	2b f9		 sub	 edi, ecx

; 980  : 			if (this->_Mylast == this->_Myend)

  00019	3b 46 08	 cmp	 eax, DWORD PTR [esi+8]
  0001c	75 09		 jne	 SHORT $LN3@push_back

; 981  : 				_Reserve(1);

  0001e	6a 01		 push	 1
  00020	8b ce		 mov	 ecx, esi
  00022	e8 00 00 00 00	 call	 ?_Reserve@?$vector@URoundInfo@@V?$allocator@URoundInfo@@@std@@@std@@IAEXI@Z ; std::vector<RoundInfo,std::allocator<RoundInfo> >::_Reserve
$LN3@push_back:

; 982  : 			_Orphan_range(this->_Mylast, this->_Mylast);
; 983  : 			_Cons_val(this->_Alval,
; 984  : 				this->_Mylast,
; 985  : 				this->_Myfirst[_Idx]);

  00027	83 e7 80	 and	 edi, -128		; ffffff80H
  0002a	03 3e		 add	 edi, DWORD PTR [esi]
  0002c	8d 46 0c	 lea	 eax, DWORD PTR [esi+12]
  0002f	57		 push	 edi
  00030	ff 76 04	 push	 DWORD PTR [esi+4]
  00033	50		 push	 eax
  00034	e8 00 00 00 00	 call	 ??$_Cons_val@V?$allocator@URoundInfo@@@std@@URoundInfo@@AAU3@@std@@YAXAAV?$allocator@URoundInfo@@@0@PAURoundInfo@@AAU2@@Z ; std::_Cons_val<std::allocator<RoundInfo>,RoundInfo,RoundInfo &>
  00039	83 c4 0c	 add	 esp, 12			; 0000000cH

; 986  : 			++this->_Mylast;
; 987  : 			}
; 988  : 		else

  0003c	eb 19		 jmp	 SHORT $LN26@push_back
$LN4@push_back:

; 989  : 			{	// push back a non-element
; 990  : 			if (this->_Mylast == this->_Myend)

  0003e	3b 46 08	 cmp	 eax, DWORD PTR [esi+8]
  00041	75 09		 jne	 SHORT $LN1@push_back

; 991  : 				_Reserve(1);

  00043	6a 01		 push	 1
  00045	8b ce		 mov	 ecx, esi
  00047	e8 00 00 00 00	 call	 ?_Reserve@?$vector@URoundInfo@@V?$allocator@URoundInfo@@@std@@@std@@IAEXI@Z ; std::vector<RoundInfo,std::allocator<RoundInfo> >::_Reserve
$LN1@push_back:

; 992  : 			_Orphan_range(this->_Mylast, this->_Mylast);
; 993  : 			_Cons_val(this->_Alval,
; 994  : 				this->_Mylast,
; 995  : 				_Val);

  0004c	57		 push	 edi
  0004d	ff 76 04	 push	 DWORD PTR [esi+4]
  00050	e8 00 00 00 00	 call	 ??$_Construct@URoundInfo@@ABU1@@std@@YAXPAURoundInfo@@ABU1@@Z ; std::_Construct<RoundInfo,RoundInfo const &>
  00055	59		 pop	 ecx
  00056	59		 pop	 ecx
$LN26@push_back:

; 996  : 			++this->_Mylast;

  00057	83 6e 04 80	 sub	 DWORD PTR [esi+4], -128	; ffffff80H
  0005b	5f		 pop	 edi
  0005c	5e		 pop	 esi

; 997  : 			}
; 998  : 		}

  0005d	5d		 pop	 ebp
  0005e	c2 04 00	 ret	 4
?push_back@?$vector@URoundInfo@@V?$allocator@URoundInfo@@@std@@@std@@QAEXABURoundInfo@@@Z ENDP ; std::vector<RoundInfo,std::allocator<RoundInfo> >::push_back
; Function compile flags: /Ogsp
_TEXT	ENDS
;	COMDAT ??_GioObserverRedWnd@@UAEPAXI@Z
_TEXT	SEGMENT
___flags$ = 8						; size = 4
??_GioObserverRedWnd@@UAEPAXI@Z PROC			; ioObserverRedWnd::`scalar deleting destructor', COMDAT
; _this$ = ecx
  00000	55		 push	 ebp
  00001	8b ec		 mov	 ebp, esp
  00003	56		 push	 esi
  00004	8b f1		 mov	 esi, ecx
  00006	e8 00 00 00 00	 call	 ??1ioObserverRedWnd@@UAE@XZ ; ioObserverRedWnd::~ioObserverRedWnd
  0000b	f6 45 08 01	 test	 BYTE PTR ___flags$[ebp], 1
  0000f	74 07		 je	 SHORT $LN1@scalar@5
  00011	56		 push	 esi
  00012	e8 00 00 00 00	 call	 ??3@YAXPAX@Z		; operator delete
  00017	59		 pop	 ecx
$LN1@scalar@5:
  00018	8b c6		 mov	 eax, esi
  0001a	5e		 pop	 esi
  0001b	5d		 pop	 ebp
  0001c	c2 04 00	 ret	 4
??_GioObserverRedWnd@@UAEPAXI@Z ENDP			; ioObserverRedWnd::`scalar deleting destructor'
_TEXT	ENDS
PUBLIC	?SetInfo@ioObserverRedWnd@@QAEXAAURoundInfo@@@Z	; ioObserverRedWnd::SetInfo
EXTRN	__imp_?IsEmpty@ioHashString@@QBE_NXZ:PROC
; Function compile flags: /Ogsp
; File d:\lost saga for developer\youtube\tutorial\source\src\lsclient\gui\ioobserverwnd.cpp
;	COMDAT ?SetInfo@ioObserverRedWnd@@QAEXAAURoundInfo@@@Z
_TEXT	SEGMENT
_rkInfo$ = 8						; size = 4
?SetInfo@ioObserverRedWnd@@QAEXAAURoundInfo@@@Z PROC	; ioObserverRedWnd::SetInfo, COMDAT
; _this$ = ecx

; 103  : {

  00000	55		 push	 ebp
  00001	8b ec		 mov	 ebp, esp
  00003	56		 push	 esi
  00004	8b f1		 mov	 esi, ecx

; 104  : 	if( rkInfo.m_szName.IsEmpty() )

  00006	8b 4d 08	 mov	 ecx, DWORD PTR _rkInfo$[ebp]
  00009	ff 15 00 00 00
	00		 call	 DWORD PTR __imp_?IsEmpty@ioHashString@@QBE_NXZ
  0000f	84 c0		 test	 al, al
  00011	75 0e		 jne	 SHORT $LN2@SetInfo

; 105  : 		return;
; 106  : 
; 107  : 	m_RoundInfoList.push_back( rkInfo );

  00013	ff 75 08	 push	 DWORD PTR _rkInfo$[ebp]
  00016	8d 8e 00 02 00
	00		 lea	 ecx, DWORD PTR [esi+512]
  0001c	e8 00 00 00 00	 call	 ?push_back@?$vector@URoundInfo@@V?$allocator@URoundInfo@@@std@@@std@@QAEXABURoundInfo@@@Z ; std::vector<RoundInfo,std::allocator<RoundInfo> >::push_back
$LN2@SetInfo:
  00021	5e		 pop	 esi

; 108  : }

  00022	5d		 pop	 ebp
  00023	c2 04 00	 ret	 4
?SetInfo@ioObserverRedWnd@@QAEXAAURoundInfo@@@Z ENDP	; ioObserverRedWnd::SetInfo
; Function compile flags: /Ogsp
_TEXT	ENDS
;	COMDAT ??_GioObserverBlueWnd@@UAEPAXI@Z
_TEXT	SEGMENT
___flags$ = 8						; size = 4
??_GioObserverBlueWnd@@UAEPAXI@Z PROC			; ioObserverBlueWnd::`scalar deleting destructor', COMDAT
; _this$ = ecx
  00000	55		 push	 ebp
  00001	8b ec		 mov	 ebp, esp
  00003	56		 push	 esi
  00004	8b f1		 mov	 esi, ecx
  00006	e8 00 00 00 00	 call	 ??1ioObserverBlueWnd@@UAE@XZ ; ioObserverBlueWnd::~ioObserverBlueWnd
  0000b	f6 45 08 01	 test	 BYTE PTR ___flags$[ebp], 1
  0000f	74 07		 je	 SHORT $LN1@scalar@6
  00011	56		 push	 esi
  00012	e8 00 00 00 00	 call	 ??3@YAXPAX@Z		; operator delete
  00017	59		 pop	 ecx
$LN1@scalar@6:
  00018	8b c6		 mov	 eax, esi
  0001a	5e		 pop	 esi
  0001b	5d		 pop	 ebp
  0001c	c2 04 00	 ret	 4
??_GioObserverBlueWnd@@UAEPAXI@Z ENDP			; ioObserverBlueWnd::`scalar deleting destructor'
_TEXT	ENDS
PUBLIC	?SetInfo@ioObserverBlueWnd@@QAEXAAURoundInfo@@@Z ; ioObserverBlueWnd::SetInfo
; Function compile flags: /Ogsp
;	COMDAT ?SetInfo@ioObserverBlueWnd@@QAEXAAURoundInfo@@@Z
_TEXT	SEGMENT
_rkInfo$ = 8						; size = 4
?SetInfo@ioObserverBlueWnd@@QAEXAAURoundInfo@@@Z PROC	; ioObserverBlueWnd::SetInfo, COMDAT
; _this$ = ecx

; 760  : {

  00000	55		 push	 ebp
  00001	8b ec		 mov	 ebp, esp
  00003	56		 push	 esi
  00004	8b f1		 mov	 esi, ecx

; 761  : 	if( rkInfo.m_szName.IsEmpty() ) 

  00006	8b 4d 08	 mov	 ecx, DWORD PTR _rkInfo$[ebp]
  00009	ff 15 00 00 00
	00		 call	 DWORD PTR __imp_?IsEmpty@ioHashString@@QBE_NXZ
  0000f	84 c0		 test	 al, al
  00011	75 0e		 jne	 SHORT $LN2@SetInfo@2

; 762  : 		return;
; 763  : 
; 764  : 	m_RoundInfoList.push_back( rkInfo );

  00013	ff 75 08	 push	 DWORD PTR _rkInfo$[ebp]
  00016	8d 8e c8 01 00
	00		 lea	 ecx, DWORD PTR [esi+456]
  0001c	e8 00 00 00 00	 call	 ?push_back@?$vector@URoundInfo@@V?$allocator@URoundInfo@@@std@@@std@@QAEXABURoundInfo@@@Z ; std::vector<RoundInfo,std::allocator<RoundInfo> >::push_back
$LN2@SetInfo@2:
  00021	5e		 pop	 esi

; 765  : }

  00022	5d		 pop	 ebp
  00023	c2 04 00	 ret	 4
?SetInfo@ioObserverBlueWnd@@QAEXAAURoundInfo@@@Z ENDP	; ioObserverBlueWnd::SetInfo
_TEXT	ENDS
END
