; Listing generated by Microsoft (R) Optimizing Compiler Version 16.00.30319.01 

	TITLE	D:\Lost Saga For Developer\Youtube\Tutorial\Source\src\LSClient\ioOwnerControlDummy5.cpp
	.686P
	.XMM
	include listing.inc
	.model	flat

INCLUDELIB MSVCRT
INCLUDELIB OLDNAMES

PUBLIC	?_EEM_DS@?$deque@UD3DXVECTOR3@@V?$allocator@UD3DXVECTOR3@@@std@@@std@@2HB ; std::deque<D3DXVECTOR3,std::allocator<D3DXVECTOR3> >::_EEM_DS
;	COMDAT ?_EEM_DS@?$deque@UD3DXVECTOR3@@V?$allocator@UD3DXVECTOR3@@@std@@@std@@2HB
CONST	SEGMENT
?_EEM_DS@?$deque@UD3DXVECTOR3@@V?$allocator@UD3DXVECTOR3@@@std@@@std@@2HB DD 01H ; std::deque<D3DXVECTOR3,std::allocator<D3DXVECTOR3> >::_EEM_DS
CONST	ENDS
PUBLIC	?return5@@YAIXZ					; return5
; Function compile flags: /Ogsp
; File d:\lost saga for developer\youtube\tutorial\source\src\lsclient\stdafx.h
;	COMDAT ?return5@@YAIXZ
_TEXT	SEGMENT
?return5@@YAIXZ PROC					; return5, COMDAT

; 18   : 	__forceinline unsigned int return5() { __asm mov eax, 5 };

  00000	b8 05 00 00 00	 mov	 eax, 5
  00005	c3		 ret	 0
?return5@@YAIXZ ENDP					; return5
_TEXT	ENDS
PUBLIC	?return10@@YAIXZ				; return10
; Function compile flags: /Ogsp
;	COMDAT ?return10@@YAIXZ
_TEXT	SEGMENT
?return10@@YAIXZ PROC					; return10, COMDAT

; 21   : 	__forceinline unsigned int return10() { __asm mov eax, 10 };

  00000	b8 0a 00 00 00	 mov	 eax, 10			; 0000000aH
  00005	c3		 ret	 0
?return10@@YAIXZ ENDP					; return10
_TEXT	ENDS
PUBLIC	?GetTargetRot@ioBaseChar@@QBEABUD3DXQUATERNION@@XZ ; ioBaseChar::GetTargetRot
; Function compile flags: /Ogsp
; File d:\lost saga for developer\youtube\tutorial\source\src\lsclient\iobasechar.h
;	COMDAT ?GetTargetRot@ioBaseChar@@QBEABUD3DXQUATERNION@@XZ
_TEXT	SEGMENT
?GetTargetRot@ioBaseChar@@QBEABUD3DXQUATERNION@@XZ PROC	; ioBaseChar::GetTargetRot, COMDAT
; _this$ = ecx

; 2599 : 	inline const D3DXQUATERNION& GetTargetRot() const { return m_qtTargetRot; }

  00000	8d 81 a4 06 00
	00		 lea	 eax, DWORD PTR [ecx+1700]
  00006	c3		 ret	 0
?GetTargetRot@ioBaseChar@@QBEABUD3DXQUATERNION@@XZ ENDP	; ioBaseChar::GetTargetRot
_TEXT	ENDS
PUBLIC	?GetCreator@ioBaseChar@@QAEPAVioPlayStage@@XZ	; ioBaseChar::GetCreator
; Function compile flags: /Ogsp
;	COMDAT ?GetCreator@ioBaseChar@@QAEPAVioPlayStage@@XZ
_TEXT	SEGMENT
?GetCreator@ioBaseChar@@QAEPAVioPlayStage@@XZ PROC	; ioBaseChar::GetCreator, COMDAT
; _this$ = ecx

; 4013 : 	inline ioPlayStage* GetCreator() { return m_pCreator; }

  00000	8b 81 44 03 00
	00		 mov	 eax, DWORD PTR [ecx+836]
  00006	c3		 ret	 0
?GetCreator@ioBaseChar@@QAEPAVioPlayStage@@XZ ENDP	; ioBaseChar::GetCreator
_TEXT	ENDS
PUBLIC	??_R0?AVioWeapon@@@8				; ioWeapon `RTTI Type Descriptor'
PUBLIC	??_R0?AVioZoneEffectWeapon@@@8			; ioZoneEffectWeapon `RTTI Type Descriptor'
PUBLIC	?ToZoneEffectWeapon@@YAPAVioZoneEffectWeapon@@PAVioWeapon@@@Z ; ToZoneEffectWeapon
EXTRN	___RTDynamicCast:PROC
EXTRN	??_7type_info@@6B@:QWORD			; type_info::`vftable'
;	COMDAT ??_R0?AVioWeapon@@@8
; File d:\lost saga for developer\youtube\tutorial\source\src\lsclient\iozoneeffectweapon.h
_DATA	SEGMENT
??_R0?AVioWeapon@@@8 DD FLAT:??_7type_info@@6B@		; ioWeapon `RTTI Type Descriptor'
	DD	00H
	DB	'.?AVioWeapon@@', 00H
_DATA	ENDS
;	COMDAT ??_R0?AVioZoneEffectWeapon@@@8
_DATA	SEGMENT
??_R0?AVioZoneEffectWeapon@@@8 DD FLAT:??_7type_info@@6B@ ; ioZoneEffectWeapon `RTTI Type Descriptor'
	DD	00H
	DB	'.?AVioZoneEffectWeapon@@', 00H
; Function compile flags: /Ogsp
_DATA	ENDS
;	COMDAT ?ToZoneEffectWeapon@@YAPAVioZoneEffectWeapon@@PAVioWeapon@@@Z
_TEXT	SEGMENT
_pWeapon$ = 8						; size = 4
?ToZoneEffectWeapon@@YAPAVioZoneEffectWeapon@@PAVioWeapon@@@Z PROC ; ToZoneEffectWeapon, COMDAT

; 217  : {

  00000	55		 push	 ebp
  00001	8b ec		 mov	 ebp, esp
  00003	56		 push	 esi

; 218  : 	if( !pWeapon || pWeapon->GetType() != ioWeapon::WT_ZONE_EFFECT )

  00004	8b 75 08	 mov	 esi, DWORD PTR _pWeapon$[ebp]
  00007	85 f6		 test	 esi, esi
  00009	74 28		 je	 SHORT $LN1@ToZoneEffe
  0000b	8b 06		 mov	 eax, DWORD PTR [esi]
  0000d	8b ce		 mov	 ecx, esi
  0000f	ff 90 10 01 00
	00		 call	 DWORD PTR [eax+272]
  00015	83 f8 08	 cmp	 eax, 8
  00018	75 19		 jne	 SHORT $LN1@ToZoneEffe

; 220  : 
; 221  : 	return dynamic_cast< ioZoneEffectWeapon* >( pWeapon );

  0001a	6a 00		 push	 0
  0001c	68 00 00 00 00	 push	 OFFSET ??_R0?AVioZoneEffectWeapon@@@8
  00021	68 00 00 00 00	 push	 OFFSET ??_R0?AVioWeapon@@@8
  00026	6a 00		 push	 0
  00028	56		 push	 esi
  00029	e8 00 00 00 00	 call	 ___RTDynamicCast
  0002e	83 c4 14	 add	 esp, 20			; 00000014H
  00031	eb 02		 jmp	 SHORT $LN3@ToZoneEffe
$LN1@ToZoneEffe:

; 219  : 		return NULL;

  00033	33 c0		 xor	 eax, eax
$LN3@ToZoneEffe:
  00035	5e		 pop	 esi

; 222  : }

  00036	5d		 pop	 ebp
  00037	c3		 ret	 0
?ToZoneEffectWeapon@@YAPAVioZoneEffectWeapon@@PAVioWeapon@@@Z ENDP ; ToZoneEffectWeapon
_TEXT	ENDS
PUBLIC	??_7ioOwnerControlDummy5@@6BioWorldEventReceiver@@@ ; ioOwnerControlDummy5::`vftable'
PUBLIC	??_7ioOwnerControlDummy5@@6BioPlayEntity@@@	; ioOwnerControlDummy5::`vftable'
PUBLIC	??0ioOwnerControlDummy5@@QAE@PAVioEntityGroup@@PAVioPlayMode@@@Z ; ioOwnerControlDummy5::ioOwnerControlDummy5
PUBLIC	??_R4ioOwnerControlDummy5@@6BioPlayEntity@@@	; ioOwnerControlDummy5::`RTTI Complete Object Locator'
PUBLIC	??_R0?AVioOwnerControlDummy5@@@8		; ioOwnerControlDummy5 `RTTI Type Descriptor'
PUBLIC	??_R3ioOwnerControlDummy5@@8			; ioOwnerControlDummy5::`RTTI Class Hierarchy Descriptor'
PUBLIC	??_R2ioOwnerControlDummy5@@8			; ioOwnerControlDummy5::`RTTI Base Class Array'
PUBLIC	??_R1A@?0A@EA@ioOwnerControlDummy5@@8		; ioOwnerControlDummy5::`RTTI Base Class Descriptor at (0,-1,0,64)'
PUBLIC	??_R1A@?0A@EA@ioDummyChar@@8			; ioDummyChar::`RTTI Base Class Descriptor at (0,-1,0,64)'
PUBLIC	??_R0?AVioDummyChar@@@8				; ioDummyChar `RTTI Type Descriptor'
PUBLIC	??_R3ioDummyChar@@8				; ioDummyChar::`RTTI Class Hierarchy Descriptor'
PUBLIC	??_R2ioDummyChar@@8				; ioDummyChar::`RTTI Base Class Array'
PUBLIC	??_R1A@?0A@EA@ioPlayEntity@@8			; ioPlayEntity::`RTTI Base Class Descriptor at (0,-1,0,64)'
PUBLIC	??_R0?AVioPlayEntity@@@8			; ioPlayEntity `RTTI Type Descriptor'
PUBLIC	??_R3ioPlayEntity@@8				; ioPlayEntity::`RTTI Class Hierarchy Descriptor'
PUBLIC	??_R2ioPlayEntity@@8				; ioPlayEntity::`RTTI Base Class Array'
PUBLIC	??_R1A@?0A@EA@ioGameEntity@@8			; ioGameEntity::`RTTI Base Class Descriptor at (0,-1,0,64)'
PUBLIC	??_R0?AVioGameEntity@@@8			; ioGameEntity `RTTI Type Descriptor'
PUBLIC	??_R3ioGameEntity@@8				; ioGameEntity::`RTTI Class Hierarchy Descriptor'
PUBLIC	??_R2ioGameEntity@@8				; ioGameEntity::`RTTI Base Class Array'
PUBLIC	??_R1A@?0A@EA@ioEntityEvent@@8			; ioEntityEvent::`RTTI Base Class Descriptor at (0,-1,0,64)'
PUBLIC	??_R0?AVioEntityEvent@@@8			; ioEntityEvent `RTTI Type Descriptor'
PUBLIC	??_R3ioEntityEvent@@8				; ioEntityEvent::`RTTI Class Hierarchy Descriptor'
PUBLIC	??_R2ioEntityEvent@@8				; ioEntityEvent::`RTTI Base Class Array'
PUBLIC	??_R1BMI@?0A@EA@ioWorldEventReceiver@@8		; ioWorldEventReceiver::`RTTI Base Class Descriptor at (456,-1,0,64)'
PUBLIC	??_R0?AVioWorldEventReceiver@@@8		; ioWorldEventReceiver `RTTI Type Descriptor'
PUBLIC	??_R3ioWorldEventReceiver@@8			; ioWorldEventReceiver::`RTTI Class Hierarchy Descriptor'
PUBLIC	??_R2ioWorldEventReceiver@@8			; ioWorldEventReceiver::`RTTI Base Class Array'
PUBLIC	??_R1A@?0A@EA@ioWorldEventReceiver@@8		; ioWorldEventReceiver::`RTTI Base Class Descriptor at (0,-1,0,64)'
PUBLIC	?IsMountAvailable@ioOwnerControlDummy5@@MBE_NXZ	; ioOwnerControlDummy5::IsMountAvailable
PUBLIC	?IsMountingAvailable@ioOwnerControlDummy5@@MBE_NXZ ; ioOwnerControlDummy5::IsMountingAvailable
PUBLIC	?IsNowMountEnable@ioOwnerControlDummy5@@MBE_NXZ	; ioOwnerControlDummy5::IsNowMountEnable
PUBLIC	?DontMoveEntityLevel@ioOwnerControlDummy5@@MBEHXZ ; ioOwnerControlDummy5::DontMoveEntityLevel
PUBLIC	?LoadProperty@ioOwnerControlDummy5@@UAEXAAVioINILoader@@@Z ; ioOwnerControlDummy5::LoadProperty
PUBLIC	?SetTeam@ioPlayEntity@@UAEXW4TeamType@@@Z	; ioPlayEntity::SetTeam
PUBLIC	?ProcessState@ioOwnerControlDummy5@@MAEXMK@Z	; ioOwnerControlDummy5::ProcessState
PUBLIC	?ProcessPos@ioOwnerControlDummy5@@MAEXM@Z	; ioOwnerControlDummy5::ProcessPos
PUBLIC	?ProcessDelayState@ioOwnerControlDummy5@@MAEXM@Z ; ioOwnerControlDummy5::ProcessDelayState
PUBLIC	?ProcessMoveState@ioOwnerControlDummy5@@MAEXM@Z	; ioOwnerControlDummy5::ProcessMoveState
PUBLIC	?ProcessAttackState@ioOwnerControlDummy5@@MAEXMK@Z ; ioOwnerControlDummy5::ProcessAttackState
PUBLIC	?DropZoneCheck@ioOwnerControlDummy5@@MAEXXZ	; ioOwnerControlDummy5::DropZoneCheck
PUBLIC	?IsDummyCharMidSync@ioDummyChar@@UAE_NXZ	; ioDummyChar::IsDummyCharMidSync
PUBLIC	??_R4ioOwnerControlDummy5@@6BioWorldEventReceiver@@@ ; ioOwnerControlDummy5::`RTTI Complete Object Locator'
PUBLIC	??_EioOwnerControlDummy5@@WBMI@AEPAXI@Z		; [thunk]:ioOwnerControlDummy5::`vector deleting destructor'
EXTRN	??0ioDummyChar@@QAE@PAVioEntityGroup@@PAVioPlayMode@@@Z:PROC ; ioDummyChar::ioDummyChar
EXTRN	?AddEntityEvent@ioDummyChar@@UAEXPAVioEntity@@@Z:PROC ; ioDummyChar::AddEntityEvent
EXTRN	??_EioOwnerControlDummy5@@UAEPAXI@Z:PROC	; ioOwnerControlDummy5::`vector deleting destructor'
EXTRN	?Update@ioDummyChar@@UAEXMKK@Z:PROC		; ioDummyChar::Update
EXTRN	?UpdateAfter@ioDummyChar@@UAEXM@Z:PROC		; ioDummyChar::UpdateAfter
EXTRN	?GetTypeID@ioPlayEntity@@UBEHXZ:PROC		; ioPlayEntity::GetTypeID
EXTRN	?IsNeedCheckMapCollision@ioDummyChar@@UBE_NXZ:PROC ; ioDummyChar::IsNeedCheckMapCollision
EXTRN	?IsAllWeaponDefence@ioGameEntity@@UBE_NXZ:PROC	; ioGameEntity::IsAllWeaponDefence
EXTRN	?HasEntity@ioGameEntity@@UAE_NABVioHashString@@@Z:PROC ; ioGameEntity::HasEntity
EXTRN	?AddEntity@ioGameEntity@@UAEPAVioEntity@@ABVioHashString@@@Z:PROC ; ioGameEntity::AddEntity
EXTRN	?DestroyEntity@ioGameEntity@@UAE_NABVioHashString@@@Z:PROC ; ioGameEntity::DestroyEntity
EXTRN	?GetEntity@ioGameEntity@@UAEPAVioEntity@@ABVioHashString@@@Z:PROC ; ioGameEntity::GetEntity
EXTRN	?UpdateBound@ioGameEntity@@MBEXXZ:PROC		; ioGameEntity::UpdateBound
EXTRN	?UpdateBottomHeight@ioDummyChar@@MBEXXZ:PROC	; ioDummyChar::UpdateBottomHeight
EXTRN	?NeedUpdateBottomHeight@ioDummyChar@@UAEXXZ:PROC ; ioDummyChar::NeedUpdateBottomHeight
EXTRN	?SetWorldPosition@ioGameEntity@@UAEXABUD3DXVECTOR3@@@Z:PROC ; ioGameEntity::SetWorldPosition
EXTRN	?SetWorldOrientation@ioGameEntity@@UAEXABUD3DXQUATERNION@@@Z:PROC ; ioGameEntity::SetWorldOrientation
EXTRN	?SetWorldScale@ioGameEntity@@UAEXABUD3DXVECTOR3@@@Z:PROC ; ioGameEntity::SetWorldScale
EXTRN	?Translate@ioDummyChar@@UAEXABUD3DXVECTOR3@@@Z:PROC ; ioDummyChar::Translate
EXTRN	?TranslateByConveyer@ioDummyChar@@UAEXABUD3DXVECTOR3@@@Z:PROC ; ioDummyChar::TranslateByConveyer
EXTRN	?TranslateByWorldEntity@ioDummyChar@@UAEXABUD3DXVECTOR3@@@Z:PROC ; ioDummyChar::TranslateByWorldEntity
EXTRN	?MapCollisionPushingTranslate@ioDummyChar@@UAEXABUD3DXVECTOR3@@@Z:PROC ; ioDummyChar::MapCollisionPushingTranslate
EXTRN	?DontMoveCollisionPushingTranslate@ioGameEntity@@UAEXPAV1@ABUD3DXVECTOR3@@@Z:PROC ; ioGameEntity::DontMoveCollisionPushingTranslate
EXTRN	?Rotate@ioGameEntity@@UAEXABUD3DXVECTOR3@@MW4TransformSpace@ioNode@@@Z:PROC ; ioGameEntity::Rotate
EXTRN	?Scale@ioGameEntity@@UAEXMMM@Z:PROC		; ioGameEntity::Scale
EXTRN	?Scale@ioGameEntity@@UAEXABUD3DXVECTOR3@@@Z:PROC ; ioGameEntity::Scale
EXTRN	?GetWorldPosition@ioGameEntity@@UBEABUD3DXVECTOR3@@XZ:PROC ; ioGameEntity::GetWorldPosition
EXTRN	?GetWorldOrientation@ioGameEntity@@UBEABUD3DXQUATERNION@@XZ:PROC ; ioGameEntity::GetWorldOrientation
EXTRN	?GetWorldScale@ioGameEntity@@UBEABUD3DXVECTOR3@@XZ:PROC ; ioGameEntity::GetWorldScale
EXTRN	?ApplyWeapon@ioDummyChar@@UAE?AW4ApplyWeaponExp@@PAVioWeapon@@@Z:PROC ; ioDummyChar::ApplyWeapon
EXTRN	?IsCollisionAvailableWeapon@ioDummyChar@@UAE_NPAVioWeapon@@@Z:PROC ; ioDummyChar::IsCollisionAvailableWeapon
EXTRN	?IsCollisionAvailableRange@ioPlayEntity@@UAE_NPAVioWeapon@@@Z:PROC ; ioPlayEntity::IsCollisionAvailableRange
EXTRN	?IsEntityCollisionSkipState@ioDummyChar@@UBE_NPAVioGameEntity@@@Z:PROC ; ioDummyChar::IsEntityCollisionSkipState
EXTRN	?IsCharCollisionSkipState@ioDummyChar@@UBE_NW4TeamType@@H@Z:PROC ; ioDummyChar::IsCharCollisionSkipState
EXTRN	?IsWoundedCollision@ioPlayEntity@@UBE_NABVioOrientBox@@PAUD3DXVECTOR3@@@Z:PROC ; ioPlayEntity::IsWoundedCollision
EXTRN	?GetAttackCollisionBox@ioDummyChar@@UAE?AVioOrientBox@@W4AniCollisionType@@_N@Z:PROC ; ioDummyChar::GetAttackCollisionBox
EXTRN	?CheckSphereDistance@ioPlayEntity@@UBE_NABUD3DXVECTOR3@@MAAM@Z:PROC ; ioPlayEntity::CheckSphereDistance
EXTRN	?CheckSpherePoint@ioPlayEntity@@UBE_NABUD3DXVECTOR3@@MAAU2@@Z:PROC ; ioPlayEntity::CheckSpherePoint
EXTRN	?CheckCylinderPoint@ioPlayEntity@@UBE_NABVioCylinder@@ABUD3DXVECTOR3@@AAU3@@Z:PROC ; ioPlayEntity::CheckCylinderPoint
EXTRN	?GetSubType@ioDummyChar@@UBE?AW4PlaySubType@ioPlayEntity@@XZ:PROC ; ioDummyChar::GetSubType
EXTRN	?GetArmorType@ioDummyChar@@UBE?AW4ArmorType@@XZ:PROC ; ioDummyChar::GetArmorType
EXTRN	?NotifyDontMoveCollisionPushingSkip@ioPlayEntity@@UAEXPAVioGameEntity@@@Z:PROC ; ioPlayEntity::NotifyDontMoveCollisionPushingSkip
EXTRN	?GetWorldEventReceiver@ioDummyChar@@UAEPAVioWorldEventReceiver@@XZ:PROC ; ioDummyChar::GetWorldEventReceiver
EXTRN	?Revival@ioPlayEntity@@UAEXXZ:PROC		; ioPlayEntity::Revival
EXTRN	?UpdateGauge@ioDummyChar@@UAEXXZ:PROC		; ioDummyChar::UpdateGauge
EXTRN	?RenderGauge@ioDummyChar@@UAEXXZ:PROC		; ioDummyChar::RenderGauge
EXTRN	?FillMaxHP@ioPlayEntity@@UAEXXZ:PROC		; ioPlayEntity::FillMaxHP
EXTRN	?ProcessRecovery@ioPlayEntity@@MAEXXZ:PROC	; ioPlayEntity::ProcessRecovery
EXTRN	?AddHeadDamageInfo@ioPlayEntity@@UAEXH_N@Z:PROC	; ioPlayEntity::AddHeadDamageInfo
EXTRN	?RenderHeadInfoList@ioPlayEntity@@UAEXHH@Z:PROC	; ioPlayEntity::RenderHeadInfoList
EXTRN	?UpdateHeadInfoList@ioPlayEntity@@MAEXK@Z:PROC	; ioPlayEntity::UpdateHeadInfoList
EXTRN	?InitDummyCharInfo@ioDummyChar@@UAEXHKABUD3DXVECTOR3@@0M_N@Z:PROC ; ioDummyChar::InitDummyCharInfo
EXTRN	?TestMapCollision@ioDummyChar@@UAE_NPAVioOpcodeShape@@PAVioPlayStage@@PBUD3DXMATRIX@@@Z:PROC ; ioDummyChar::TestMapCollision
EXTRN	?CheckEntityCollision@ioDummyChar@@UAEXPAVioPlayEntity@@@Z:PROC ; ioDummyChar::CheckEntityCollision
EXTRN	?GetDummyGrassType@ioDummyChar@@UAEHXZ:PROC	; ioDummyChar::GetDummyGrassType
EXTRN	?IsActivateWeapon@ioDummyChar@@UAE_NXZ:PROC	; ioDummyChar::IsActivateWeapon
EXTRN	?IsDummyVsDummyCollisionSkipState@ioDummyChar@@UAE_NPBV1@@Z:PROC ; ioDummyChar::IsDummyVsDummyCollisionSkipState
EXTRN	?ProcessDashState@ioDummyChar@@MAEXM@Z:PROC	; ioDummyChar::ProcessDashState
EXTRN	?ApplyDummyCharSync@ioDummyChar@@UAEXPAVioPlayStage@@AAVSP2Packet@@@Z:PROC ; ioDummyChar::ApplyDummyCharSync
EXTRN	?SetDelayState@ioDummyChar@@UAEX_N@Z:PROC	; ioDummyChar::SetDelayState
EXTRN	?SetMoveState@ioDummyChar@@UAEXXZ:PROC		; ioDummyChar::SetMoveState
EXTRN	?SetDieState@ioDummyChar@@UAEX_N0@Z:PROC	; ioDummyChar::SetDieState
EXTRN	?SetDashState@ioDummyChar@@UAEXXZ:PROC		; ioDummyChar::SetDashState
EXTRN	?SetAttackState@ioDummyChar@@UAEXXZ:PROC	; ioDummyChar::SetAttackState
EXTRN	?SendAttackInfoToSkill@ioDummyChar@@MAEXXZ:PROC	; ioDummyChar::SendAttackInfoToSkill
EXTRN	?CheckCollisionWeapon@ioDummyChar@@UAEXPAVioBaseChar@@@Z:PROC ; ioDummyChar::CheckCollisionWeapon
EXTRN	?TranslateMountEntity@ioDummyChar@@MAEXABUD3DXVECTOR3@@@Z:PROC ; ioDummyChar::TranslateMountEntity
EXTRN	?ClearMountEntity@ioDummyChar@@MAEXXZ:PROC	; ioDummyChar::ClearMountEntity
EXTRN	?UpdateMountedEntityList@ioDummyChar@@MAEXXZ:PROC ; ioDummyChar::UpdateMountedEntityList
EXTRN	?UpdateMountedWeaponList@ioDummyChar@@MAEXXZ:PROC ; ioDummyChar::UpdateMountedWeaponList
EXTRN	?SetWorldPositionMountEntity@ioDummyChar@@MAEXM@Z:PROC ; ioDummyChar::SetWorldPositionMountEntity
EXTRN	?DummyDieClearMountEntity@ioDummyChar@@MAEXXZ:PROC ; ioDummyChar::DummyDieClearMountEntity
EXTRN	?FillDummyCharMidSync@ioDummyChar@@UAEXPAVioBaseChar@@AAVSP2Packet@@@Z:PROC ; ioDummyChar::FillDummyCharMidSync
EXTRN	?ApplyDummyCharMidSync@ioDummyChar@@UAEXPAVioBaseChar@@AAVSP2Packet@@@Z:PROC ; ioDummyChar::ApplyDummyCharMidSync
EXTRN	?GetSkillMaxActiveCnt@ioDummyChar@@UAEHXZ:PROC	; ioDummyChar::GetSkillMaxActiveCnt
EXTRN	?GetSkillCurActiveCnt@ioDummyChar@@UAEHXZ:PROC	; ioDummyChar::GetSkillCurActiveCnt
EXTRN	?OnTelepotation@ioDummyChar@@UAEXABUD3DXVECTOR3@@@Z:PROC ; ioDummyChar::OnTelepotation
EXTRN	?OnFireZoneDamage@ioDummyChar@@UAEXMABVioHashString@@@Z:PROC ; ioDummyChar::OnFireZoneDamage
EXTRN	?OnPoisonZoneDamage@ioDummyChar@@UAEXXZ:PROC	; ioDummyChar::OnPoisonZoneDamage
;	COMDAT ??_R4ioOwnerControlDummy5@@6BioWorldEventReceiver@@@
; File d:\lost saga for developer\youtube\tutorial\source\src\lsclient\ioownercontroldummy5.cpp
rdata$r	SEGMENT
??_R4ioOwnerControlDummy5@@6BioWorldEventReceiver@@@ DD 00H ; ioOwnerControlDummy5::`RTTI Complete Object Locator'
	DD	01c8H
	DD	00H
	DD	FLAT:??_R0?AVioOwnerControlDummy5@@@8
	DD	FLAT:??_R3ioOwnerControlDummy5@@8
rdata$r	ENDS
;	COMDAT ??_R1A@?0A@EA@ioWorldEventReceiver@@8
rdata$r	SEGMENT
??_R1A@?0A@EA@ioWorldEventReceiver@@8 DD FLAT:??_R0?AVioWorldEventReceiver@@@8 ; ioWorldEventReceiver::`RTTI Base Class Descriptor at (0,-1,0,64)'
	DD	00H
	DD	00H
	DD	0ffffffffH
	DD	00H
	DD	040H
	DD	FLAT:??_R3ioWorldEventReceiver@@8
rdata$r	ENDS
;	COMDAT ??_R2ioWorldEventReceiver@@8
rdata$r	SEGMENT
??_R2ioWorldEventReceiver@@8 DD FLAT:??_R1A@?0A@EA@ioWorldEventReceiver@@8 ; ioWorldEventReceiver::`RTTI Base Class Array'
rdata$r	ENDS
;	COMDAT ??_R3ioWorldEventReceiver@@8
rdata$r	SEGMENT
??_R3ioWorldEventReceiver@@8 DD 00H			; ioWorldEventReceiver::`RTTI Class Hierarchy Descriptor'
	DD	00H
	DD	01H
	DD	FLAT:??_R2ioWorldEventReceiver@@8
rdata$r	ENDS
;	COMDAT ??_R0?AVioWorldEventReceiver@@@8
_DATA	SEGMENT
??_R0?AVioWorldEventReceiver@@@8 DD FLAT:??_7type_info@@6B@ ; ioWorldEventReceiver `RTTI Type Descriptor'
	DD	00H
	DB	'.?AVioWorldEventReceiver@@', 00H
_DATA	ENDS
;	COMDAT ??_R1BMI@?0A@EA@ioWorldEventReceiver@@8
rdata$r	SEGMENT
??_R1BMI@?0A@EA@ioWorldEventReceiver@@8 DD FLAT:??_R0?AVioWorldEventReceiver@@@8 ; ioWorldEventReceiver::`RTTI Base Class Descriptor at (456,-1,0,64)'
	DD	00H
	DD	01c8H
	DD	0ffffffffH
	DD	00H
	DD	040H
	DD	FLAT:??_R3ioWorldEventReceiver@@8
rdata$r	ENDS
;	COMDAT ??_R2ioEntityEvent@@8
rdata$r	SEGMENT
??_R2ioEntityEvent@@8 DD FLAT:??_R1A@?0A@EA@ioEntityEvent@@8 ; ioEntityEvent::`RTTI Base Class Array'
rdata$r	ENDS
;	COMDAT ??_R3ioEntityEvent@@8
rdata$r	SEGMENT
??_R3ioEntityEvent@@8 DD 00H				; ioEntityEvent::`RTTI Class Hierarchy Descriptor'
	DD	00H
	DD	01H
	DD	FLAT:??_R2ioEntityEvent@@8
rdata$r	ENDS
;	COMDAT ??_R0?AVioEntityEvent@@@8
_DATA	SEGMENT
??_R0?AVioEntityEvent@@@8 DD FLAT:??_7type_info@@6B@	; ioEntityEvent `RTTI Type Descriptor'
	DD	00H
	DB	'.?AVioEntityEvent@@', 00H
_DATA	ENDS
;	COMDAT ??_R1A@?0A@EA@ioEntityEvent@@8
rdata$r	SEGMENT
??_R1A@?0A@EA@ioEntityEvent@@8 DD FLAT:??_R0?AVioEntityEvent@@@8 ; ioEntityEvent::`RTTI Base Class Descriptor at (0,-1,0,64)'
	DD	00H
	DD	00H
	DD	0ffffffffH
	DD	00H
	DD	040H
	DD	FLAT:??_R3ioEntityEvent@@8
rdata$r	ENDS
;	COMDAT ??_R2ioGameEntity@@8
rdata$r	SEGMENT
??_R2ioGameEntity@@8 DD FLAT:??_R1A@?0A@EA@ioGameEntity@@8 ; ioGameEntity::`RTTI Base Class Array'
	DD	FLAT:??_R1A@?0A@EA@ioEntityEvent@@8
rdata$r	ENDS
;	COMDAT ??_R3ioGameEntity@@8
rdata$r	SEGMENT
??_R3ioGameEntity@@8 DD 00H				; ioGameEntity::`RTTI Class Hierarchy Descriptor'
	DD	00H
	DD	02H
	DD	FLAT:??_R2ioGameEntity@@8
rdata$r	ENDS
;	COMDAT ??_R0?AVioGameEntity@@@8
_DATA	SEGMENT
??_R0?AVioGameEntity@@@8 DD FLAT:??_7type_info@@6B@	; ioGameEntity `RTTI Type Descriptor'
	DD	00H
	DB	'.?AVioGameEntity@@', 00H
_DATA	ENDS
;	COMDAT ??_R1A@?0A@EA@ioGameEntity@@8
rdata$r	SEGMENT
??_R1A@?0A@EA@ioGameEntity@@8 DD FLAT:??_R0?AVioGameEntity@@@8 ; ioGameEntity::`RTTI Base Class Descriptor at (0,-1,0,64)'
	DD	01H
	DD	00H
	DD	0ffffffffH
	DD	00H
	DD	040H
	DD	FLAT:??_R3ioGameEntity@@8
rdata$r	ENDS
;	COMDAT ??_R2ioPlayEntity@@8
rdata$r	SEGMENT
??_R2ioPlayEntity@@8 DD FLAT:??_R1A@?0A@EA@ioPlayEntity@@8 ; ioPlayEntity::`RTTI Base Class Array'
	DD	FLAT:??_R1A@?0A@EA@ioGameEntity@@8
	DD	FLAT:??_R1A@?0A@EA@ioEntityEvent@@8
rdata$r	ENDS
;	COMDAT ??_R3ioPlayEntity@@8
rdata$r	SEGMENT
??_R3ioPlayEntity@@8 DD 00H				; ioPlayEntity::`RTTI Class Hierarchy Descriptor'
	DD	00H
	DD	03H
	DD	FLAT:??_R2ioPlayEntity@@8
rdata$r	ENDS
;	COMDAT ??_R0?AVioPlayEntity@@@8
_DATA	SEGMENT
??_R0?AVioPlayEntity@@@8 DD FLAT:??_7type_info@@6B@	; ioPlayEntity `RTTI Type Descriptor'
	DD	00H
	DB	'.?AVioPlayEntity@@', 00H
_DATA	ENDS
;	COMDAT ??_R1A@?0A@EA@ioPlayEntity@@8
rdata$r	SEGMENT
??_R1A@?0A@EA@ioPlayEntity@@8 DD FLAT:??_R0?AVioPlayEntity@@@8 ; ioPlayEntity::`RTTI Base Class Descriptor at (0,-1,0,64)'
	DD	02H
	DD	00H
	DD	0ffffffffH
	DD	00H
	DD	040H
	DD	FLAT:??_R3ioPlayEntity@@8
rdata$r	ENDS
;	COMDAT ??_R2ioDummyChar@@8
rdata$r	SEGMENT
??_R2ioDummyChar@@8 DD FLAT:??_R1A@?0A@EA@ioDummyChar@@8 ; ioDummyChar::`RTTI Base Class Array'
	DD	FLAT:??_R1A@?0A@EA@ioPlayEntity@@8
	DD	FLAT:??_R1A@?0A@EA@ioGameEntity@@8
	DD	FLAT:??_R1A@?0A@EA@ioEntityEvent@@8
	DD	FLAT:??_R1BMI@?0A@EA@ioWorldEventReceiver@@8
rdata$r	ENDS
;	COMDAT ??_R3ioDummyChar@@8
rdata$r	SEGMENT
??_R3ioDummyChar@@8 DD 00H				; ioDummyChar::`RTTI Class Hierarchy Descriptor'
	DD	01H
	DD	05H
	DD	FLAT:??_R2ioDummyChar@@8
rdata$r	ENDS
;	COMDAT ??_R0?AVioDummyChar@@@8
_DATA	SEGMENT
??_R0?AVioDummyChar@@@8 DD FLAT:??_7type_info@@6B@	; ioDummyChar `RTTI Type Descriptor'
	DD	00H
	DB	'.?AVioDummyChar@@', 00H
_DATA	ENDS
;	COMDAT ??_R1A@?0A@EA@ioDummyChar@@8
rdata$r	SEGMENT
??_R1A@?0A@EA@ioDummyChar@@8 DD FLAT:??_R0?AVioDummyChar@@@8 ; ioDummyChar::`RTTI Base Class Descriptor at (0,-1,0,64)'
	DD	04H
	DD	00H
	DD	0ffffffffH
	DD	00H
	DD	040H
	DD	FLAT:??_R3ioDummyChar@@8
rdata$r	ENDS
;	COMDAT ??_R1A@?0A@EA@ioOwnerControlDummy5@@8
rdata$r	SEGMENT
??_R1A@?0A@EA@ioOwnerControlDummy5@@8 DD FLAT:??_R0?AVioOwnerControlDummy5@@@8 ; ioOwnerControlDummy5::`RTTI Base Class Descriptor at (0,-1,0,64)'
	DD	05H
	DD	00H
	DD	0ffffffffH
	DD	00H
	DD	040H
	DD	FLAT:??_R3ioOwnerControlDummy5@@8
rdata$r	ENDS
;	COMDAT ??_R2ioOwnerControlDummy5@@8
rdata$r	SEGMENT
??_R2ioOwnerControlDummy5@@8 DD FLAT:??_R1A@?0A@EA@ioOwnerControlDummy5@@8 ; ioOwnerControlDummy5::`RTTI Base Class Array'
	DD	FLAT:??_R1A@?0A@EA@ioDummyChar@@8
	DD	FLAT:??_R1A@?0A@EA@ioPlayEntity@@8
	DD	FLAT:??_R1A@?0A@EA@ioGameEntity@@8
	DD	FLAT:??_R1A@?0A@EA@ioEntityEvent@@8
	DD	FLAT:??_R1BMI@?0A@EA@ioWorldEventReceiver@@8
rdata$r	ENDS
;	COMDAT ??_R3ioOwnerControlDummy5@@8
rdata$r	SEGMENT
??_R3ioOwnerControlDummy5@@8 DD 00H			; ioOwnerControlDummy5::`RTTI Class Hierarchy Descriptor'
	DD	01H
	DD	06H
	DD	FLAT:??_R2ioOwnerControlDummy5@@8
rdata$r	ENDS
;	COMDAT ??_R0?AVioOwnerControlDummy5@@@8
_DATA	SEGMENT
??_R0?AVioOwnerControlDummy5@@@8 DD FLAT:??_7type_info@@6B@ ; ioOwnerControlDummy5 `RTTI Type Descriptor'
	DD	00H
	DB	'.?AVioOwnerControlDummy5@@', 00H
_DATA	ENDS
;	COMDAT ??_R4ioOwnerControlDummy5@@6BioPlayEntity@@@
rdata$r	SEGMENT
??_R4ioOwnerControlDummy5@@6BioPlayEntity@@@ DD 00H	; ioOwnerControlDummy5::`RTTI Complete Object Locator'
	DD	00H
	DD	00H
	DD	FLAT:??_R0?AVioOwnerControlDummy5@@@8
	DD	FLAT:??_R3ioOwnerControlDummy5@@8
rdata$r	ENDS
;	COMDAT ??_7ioOwnerControlDummy5@@6BioWorldEventReceiver@@@
CONST	SEGMENT
??_7ioOwnerControlDummy5@@6BioWorldEventReceiver@@@ DD FLAT:??_R4ioOwnerControlDummy5@@6BioWorldEventReceiver@@@ ; ioOwnerControlDummy5::`vftable'
	DD	FLAT:?OnTelepotation@ioDummyChar@@UAEXABUD3DXVECTOR3@@@Z
	DD	FLAT:?OnFireZoneDamage@ioDummyChar@@UAEXMABVioHashString@@@Z
	DD	FLAT:?OnPoisonZoneDamage@ioDummyChar@@UAEXXZ
	DD	FLAT:??_EioOwnerControlDummy5@@WBMI@AEPAXI@Z
CONST	ENDS
;	COMDAT ??_7ioOwnerControlDummy5@@6BioPlayEntity@@@
CONST	SEGMENT
??_7ioOwnerControlDummy5@@6BioPlayEntity@@@ DD FLAT:??_R4ioOwnerControlDummy5@@6BioPlayEntity@@@ ; ioOwnerControlDummy5::`vftable'
	DD	FLAT:?AddEntityEvent@ioDummyChar@@UAEXPAVioEntity@@@Z
	DD	FLAT:??_EioOwnerControlDummy5@@UAEPAXI@Z
	DD	FLAT:?Update@ioDummyChar@@UAEXMKK@Z
	DD	FLAT:?UpdateAfter@ioDummyChar@@UAEXM@Z
	DD	FLAT:?GetTypeID@ioPlayEntity@@UBEHXZ
	DD	FLAT:?IsNeedCheckMapCollision@ioDummyChar@@UBE_NXZ
	DD	FLAT:?IsMountAvailable@ioOwnerControlDummy5@@MBE_NXZ
	DD	FLAT:?IsMountingAvailable@ioOwnerControlDummy5@@MBE_NXZ
	DD	FLAT:?IsNowMountEnable@ioOwnerControlDummy5@@MBE_NXZ
	DD	FLAT:?IsAllWeaponDefence@ioGameEntity@@UBE_NXZ
	DD	FLAT:?HasEntity@ioGameEntity@@UAE_NABVioHashString@@@Z
	DD	FLAT:?AddEntity@ioGameEntity@@UAEPAVioEntity@@ABVioHashString@@@Z
	DD	FLAT:?DestroyEntity@ioGameEntity@@UAE_NABVioHashString@@@Z
	DD	FLAT:?GetEntity@ioGameEntity@@UAEPAVioEntity@@ABVioHashString@@@Z
	DD	FLAT:?UpdateBound@ioGameEntity@@MBEXXZ
	DD	FLAT:?UpdateBottomHeight@ioDummyChar@@MBEXXZ
	DD	FLAT:?NeedUpdateBottomHeight@ioDummyChar@@UAEXXZ
	DD	FLAT:?SetWorldPosition@ioGameEntity@@UAEXABUD3DXVECTOR3@@@Z
	DD	FLAT:?SetWorldOrientation@ioGameEntity@@UAEXABUD3DXQUATERNION@@@Z
	DD	FLAT:?SetWorldScale@ioGameEntity@@UAEXABUD3DXVECTOR3@@@Z
	DD	FLAT:?Translate@ioDummyChar@@UAEXABUD3DXVECTOR3@@@Z
	DD	FLAT:?TranslateByConveyer@ioDummyChar@@UAEXABUD3DXVECTOR3@@@Z
	DD	FLAT:?TranslateByWorldEntity@ioDummyChar@@UAEXABUD3DXVECTOR3@@@Z
	DD	FLAT:?MapCollisionPushingTranslate@ioDummyChar@@UAEXABUD3DXVECTOR3@@@Z
	DD	FLAT:?DontMoveCollisionPushingTranslate@ioGameEntity@@UAEXPAV1@ABUD3DXVECTOR3@@@Z
	DD	FLAT:?Rotate@ioGameEntity@@UAEXABUD3DXVECTOR3@@MW4TransformSpace@ioNode@@@Z
	DD	FLAT:?Scale@ioGameEntity@@UAEXMMM@Z
	DD	FLAT:?Scale@ioGameEntity@@UAEXABUD3DXVECTOR3@@@Z
	DD	FLAT:?GetWorldPosition@ioGameEntity@@UBEABUD3DXVECTOR3@@XZ
	DD	FLAT:?GetWorldOrientation@ioGameEntity@@UBEABUD3DXQUATERNION@@XZ
	DD	FLAT:?GetWorldScale@ioGameEntity@@UBEABUD3DXVECTOR3@@XZ
	DD	FLAT:?ApplyWeapon@ioDummyChar@@UAE?AW4ApplyWeaponExp@@PAVioWeapon@@@Z
	DD	FLAT:?IsCollisionAvailableWeapon@ioDummyChar@@UAE_NPAVioWeapon@@@Z
	DD	FLAT:?IsCollisionAvailableRange@ioPlayEntity@@UAE_NPAVioWeapon@@@Z
	DD	FLAT:?IsEntityCollisionSkipState@ioDummyChar@@UBE_NPAVioGameEntity@@@Z
	DD	FLAT:?IsCharCollisionSkipState@ioDummyChar@@UBE_NW4TeamType@@H@Z
	DD	FLAT:?IsWoundedCollision@ioPlayEntity@@UBE_NABVioOrientBox@@PAUD3DXVECTOR3@@@Z
	DD	FLAT:?GetAttackCollisionBox@ioDummyChar@@UAE?AVioOrientBox@@W4AniCollisionType@@_N@Z
	DD	FLAT:?CheckSphereDistance@ioPlayEntity@@UBE_NABUD3DXVECTOR3@@MAAM@Z
	DD	FLAT:?CheckSpherePoint@ioPlayEntity@@UBE_NABUD3DXVECTOR3@@MAAU2@@Z
	DD	FLAT:?CheckCylinderPoint@ioPlayEntity@@UBE_NABVioCylinder@@ABUD3DXVECTOR3@@AAU3@@Z
	DD	FLAT:?GetSubType@ioDummyChar@@UBE?AW4PlaySubType@ioPlayEntity@@XZ
	DD	FLAT:?GetArmorType@ioDummyChar@@UBE?AW4ArmorType@@XZ
	DD	FLAT:?DontMoveEntityLevel@ioOwnerControlDummy5@@MBEHXZ
	DD	FLAT:?NotifyDontMoveCollisionPushingSkip@ioPlayEntity@@UAEXPAVioGameEntity@@@Z
	DD	FLAT:?LoadProperty@ioOwnerControlDummy5@@UAEXAAVioINILoader@@@Z
	DD	FLAT:?GetWorldEventReceiver@ioDummyChar@@UAEPAVioWorldEventReceiver@@XZ
	DD	FLAT:?Revival@ioPlayEntity@@UAEXXZ
	DD	FLAT:?UpdateGauge@ioDummyChar@@UAEXXZ
	DD	FLAT:?RenderGauge@ioDummyChar@@UAEXXZ
	DD	FLAT:?FillMaxHP@ioPlayEntity@@UAEXXZ
	DD	FLAT:?ProcessRecovery@ioPlayEntity@@MAEXXZ
	DD	FLAT:?AddHeadDamageInfo@ioPlayEntity@@UAEXH_N@Z
	DD	FLAT:?RenderHeadInfoList@ioPlayEntity@@UAEXHH@Z
	DD	FLAT:?UpdateHeadInfoList@ioPlayEntity@@MAEXK@Z
	DD	FLAT:?SetTeam@ioPlayEntity@@UAEXW4TeamType@@@Z
	DD	FLAT:?InitDummyCharInfo@ioDummyChar@@UAEXHKABUD3DXVECTOR3@@0M_N@Z
	DD	FLAT:?TestMapCollision@ioDummyChar@@UAE_NPAVioOpcodeShape@@PAVioPlayStage@@PBUD3DXMATRIX@@@Z
	DD	FLAT:?CheckEntityCollision@ioDummyChar@@UAEXPAVioPlayEntity@@@Z
	DD	FLAT:?GetDummyGrassType@ioDummyChar@@UAEHXZ
	DD	FLAT:?IsActivateWeapon@ioDummyChar@@UAE_NXZ
	DD	FLAT:?IsDummyVsDummyCollisionSkipState@ioDummyChar@@UAE_NPBV1@@Z
	DD	FLAT:?ProcessState@ioOwnerControlDummy5@@MAEXMK@Z
	DD	FLAT:?ProcessPos@ioOwnerControlDummy5@@MAEXM@Z
	DD	FLAT:?ProcessDelayState@ioOwnerControlDummy5@@MAEXM@Z
	DD	FLAT:?ProcessMoveState@ioOwnerControlDummy5@@MAEXM@Z
	DD	FLAT:?ProcessDashState@ioDummyChar@@MAEXM@Z
	DD	FLAT:?ProcessAttackState@ioOwnerControlDummy5@@MAEXMK@Z
	DD	FLAT:?ApplyDummyCharSync@ioDummyChar@@UAEXPAVioPlayStage@@AAVSP2Packet@@@Z
	DD	FLAT:?SetDelayState@ioDummyChar@@UAEX_N@Z
	DD	FLAT:?SetMoveState@ioDummyChar@@UAEXXZ
	DD	FLAT:?SetDieState@ioDummyChar@@UAEX_N0@Z
	DD	FLAT:?SetDashState@ioDummyChar@@UAEXXZ
	DD	FLAT:?SetAttackState@ioDummyChar@@UAEXXZ
	DD	FLAT:?DropZoneCheck@ioOwnerControlDummy5@@MAEXXZ
	DD	FLAT:?SendAttackInfoToSkill@ioDummyChar@@MAEXXZ
	DD	FLAT:?CheckCollisionWeapon@ioDummyChar@@UAEXPAVioBaseChar@@@Z
	DD	FLAT:?TranslateMountEntity@ioDummyChar@@MAEXABUD3DXVECTOR3@@@Z
	DD	FLAT:?ClearMountEntity@ioDummyChar@@MAEXXZ
	DD	FLAT:?UpdateMountedEntityList@ioDummyChar@@MAEXXZ
	DD	FLAT:?UpdateMountedWeaponList@ioDummyChar@@MAEXXZ
	DD	FLAT:?SetWorldPositionMountEntity@ioDummyChar@@MAEXM@Z
	DD	FLAT:?DummyDieClearMountEntity@ioDummyChar@@MAEXXZ
	DD	FLAT:?IsDummyCharMidSync@ioDummyChar@@UAE_NXZ
	DD	FLAT:?FillDummyCharMidSync@ioDummyChar@@UAEXPAVioBaseChar@@AAVSP2Packet@@@Z
	DD	FLAT:?ApplyDummyCharMidSync@ioDummyChar@@UAEXPAVioBaseChar@@AAVSP2Packet@@@Z
	DD	FLAT:?GetSkillMaxActiveCnt@ioDummyChar@@UAEHXZ
	DD	FLAT:?GetSkillCurActiveCnt@ioDummyChar@@UAEHXZ
; Function compile flags: /Ogsp
CONST	ENDS
;	COMDAT ??0ioOwnerControlDummy5@@QAE@PAVioEntityGroup@@PAVioPlayMode@@@Z
_TEXT	SEGMENT
_pGrp$ = 8						; size = 4
_pMode$ = 12						; size = 4
??0ioOwnerControlDummy5@@QAE@PAVioEntityGroup@@PAVioPlayMode@@@Z PROC ; ioOwnerControlDummy5::ioOwnerControlDummy5, COMDAT
; _this$ = ecx

; 10   : {

  00000	55		 push	 ebp
  00001	8b ec		 mov	 ebp, esp
  00003	56		 push	 esi
  00004	ff 75 0c	 push	 DWORD PTR _pMode$[ebp]
  00007	8b f1		 mov	 esi, ecx
  00009	ff 75 08	 push	 DWORD PTR _pGrp$[ebp]
  0000c	e8 00 00 00 00	 call	 ??0ioDummyChar@@QAE@PAVioEntityGroup@@PAVioPlayMode@@@Z ; ioDummyChar::ioDummyChar

; 11   : 	m_dwAttackStartTime = 0;

  00011	83 a6 80 14 00
	00 00		 and	 DWORD PTR [esi+5248], 0
  00018	c7 06 00 00 00
	00		 mov	 DWORD PTR [esi], OFFSET ??_7ioOwnerControlDummy5@@6BioPlayEntity@@@
  0001e	c7 86 c8 01 00
	00 00 00 00 00	 mov	 DWORD PTR [esi+456], OFFSET ??_7ioOwnerControlDummy5@@6BioWorldEventReceiver@@@

; 12   : }

  00028	8b c6		 mov	 eax, esi
  0002a	5e		 pop	 esi
  0002b	5d		 pop	 ebp
  0002c	c2 08 00	 ret	 8
??0ioOwnerControlDummy5@@QAE@PAVioEntityGroup@@PAVioPlayMode@@@Z ENDP ; ioOwnerControlDummy5::ioOwnerControlDummy5
_TEXT	ENDS
PUBLIC	??1ioOwnerControlDummy5@@UAE@XZ			; ioOwnerControlDummy5::~ioOwnerControlDummy5
EXTRN	??1ioDummyChar@@UAE@XZ:PROC			; ioDummyChar::~ioDummyChar
; Function compile flags: /Ogsp
;	COMDAT ??1ioOwnerControlDummy5@@UAE@XZ
_TEXT	SEGMENT
??1ioOwnerControlDummy5@@UAE@XZ PROC			; ioOwnerControlDummy5::~ioOwnerControlDummy5, COMDAT
; _this$ = ecx

; 15   : {

  00000	c7 01 00 00 00
	00		 mov	 DWORD PTR [ecx], OFFSET ??_7ioOwnerControlDummy5@@6BioPlayEntity@@@
  00006	c7 81 c8 01 00
	00 00 00 00 00	 mov	 DWORD PTR [ecx+456], OFFSET ??_7ioOwnerControlDummy5@@6BioWorldEventReceiver@@@

; 16   : }

  00010	e9 00 00 00 00	 jmp	 ??1ioDummyChar@@UAE@XZ	; ioDummyChar::~ioDummyChar
??1ioOwnerControlDummy5@@UAE@XZ ENDP			; ioOwnerControlDummy5::~ioOwnerControlDummy5
_TEXT	ENDS
EXTRN	?ProcessForceMove@ioDummyChar@@IAEXM@Z:PROC	; ioDummyChar::ProcessForceMove
EXTRN	__imp_?GetLoopSec@ioFrameTimer@@QBEKXZ:PROC
EXTRN	__imp_?GetSingleton@ioFrameTimer@@SAAAV1@XZ:PROC
EXTRN	__fltused:DWORD
; Function compile flags: /Ogsp
;	COMDAT ?ProcessPos@ioOwnerControlDummy5@@MAEXM@Z
_TEXT	SEGMENT
_fTimePerSec$ = 8					; size = 4
?ProcessPos@ioOwnerControlDummy5@@MAEXM@Z PROC		; ioOwnerControlDummy5::ProcessPos, COMDAT
; _this$ = ecx

; 266  : {

  00000	55		 push	 ebp
  00001	8b ec		 mov	 ebp, esp
  00003	56		 push	 esi
  00004	8b f1		 mov	 esi, ecx

; 267  : 	DWORD dwCurTime = FRAMEGETTIME();

  00006	ff 15 00 00 00
	00		 call	 DWORD PTR __imp_?GetSingleton@ioFrameTimer@@SAAAV1@XZ
  0000c	8b c8		 mov	 ecx, eax
  0000e	ff 15 00 00 00
	00		 call	 DWORD PTR __imp_?GetLoopSec@ioFrameTimer@@QBEKXZ

; 268  : 
; 269  : 	if( m_State == DCS_START )

  00014	83 be 30 02 00
	00 01		 cmp	 DWORD PTR [esi+560], 1
  0001b	75 08		 jne	 SHORT $LN1@ProcessPos

; 270  : 	{
; 271  : 		m_dwProcessTime = dwCurTime;

  0001d	89 86 1c 02 00
	00		 mov	 DWORD PTR [esi+540], eax

; 272  : 		return;

  00023	eb 12		 jmp	 SHORT $LN2@ProcessPos
$LN1@ProcessPos:

; 273  : 	}
; 274  : 
; 275  : 	ProcessForceMove( fTimePerSec );

  00025	f3 0f 10 45 08	 movss	 xmm0, DWORD PTR _fTimePerSec$[ebp]
  0002a	51		 push	 ecx
  0002b	8b ce		 mov	 ecx, esi
  0002d	f3 0f 11 04 24	 movss	 DWORD PTR [esp], xmm0
  00032	e8 00 00 00 00	 call	 ?ProcessForceMove@ioDummyChar@@IAEXM@Z ; ioDummyChar::ProcessForceMove
$LN2@ProcessPos:
  00037	5e		 pop	 esi

; 276  : }

  00038	5d		 pop	 ebp
  00039	c2 04 00	 ret	 4
?ProcessPos@ioOwnerControlDummy5@@MAEXM@Z ENDP		; ioOwnerControlDummy5::ProcessPos
_TEXT	ENDS
PUBLIC	?_Adopt@_Iterator_base0@std@@QAEXPBX@Z		; std::_Iterator_base0::_Adopt
; Function compile flags: /Ogsp
; File c:\program files (x86)\microsoft visual studio 10.0\vc\include\xutility
;	COMDAT ?_Adopt@_Iterator_base0@std@@QAEXPBX@Z
_TEXT	SEGMENT
___formal$ = 8						; size = 4
?_Adopt@_Iterator_base0@std@@QAEXPBX@Z PROC		; std::_Iterator_base0::_Adopt, COMDAT
; _this$ = ecx

; 49   : 		}

  00000	c2 04 00	 ret	 4
?_Adopt@_Iterator_base0@std@@QAEXPBX@Z ENDP		; std::_Iterator_base0::_Adopt
_TEXT	ENDS
PUBLIC	?_Nextnode@?$_List_val@UFireTime@@V?$allocator@UFireTime@@@std@@@std@@SAAAPAU_Node@?$_List_nod@UFireTime@@V?$allocator@UFireTime@@@std@@@2@PAU342@@Z ; std::_List_val<FireTime,std::allocator<FireTime> >::_Nextnode
; Function compile flags: /Ogsp
; File c:\program files (x86)\microsoft visual studio 10.0\vc\include\list
;	COMDAT ?_Nextnode@?$_List_val@UFireTime@@V?$allocator@UFireTime@@@std@@@std@@SAAAPAU_Node@?$_List_nod@UFireTime@@V?$allocator@UFireTime@@@std@@@2@PAU342@@Z
_TEXT	SEGMENT
__Pnode$ = 8						; size = 4
?_Nextnode@?$_List_val@UFireTime@@V?$allocator@UFireTime@@@std@@@std@@SAAAPAU_Node@?$_List_nod@UFireTime@@V?$allocator@UFireTime@@@std@@@2@PAU342@@Z PROC ; std::_List_val<FireTime,std::allocator<FireTime> >::_Nextnode, COMDAT

; 560  : 		{	// return reference to successor pointer in node

  00000	55		 push	 ebp
  00001	8b ec		 mov	 ebp, esp

; 561  : 		return ((_Nodepref)(*_Pnode)._Next);

  00003	8b 45 08	 mov	 eax, DWORD PTR __Pnode$[ebp]

; 562  : 		}

  00006	5d		 pop	 ebp
  00007	c3		 ret	 0
?_Nextnode@?$_List_val@UFireTime@@V?$allocator@UFireTime@@@std@@@std@@SAAAPAU_Node@?$_List_nod@UFireTime@@V?$allocator@UFireTime@@@std@@@2@PAU342@@Z ENDP ; std::_List_val<FireTime,std::allocator<FireTime> >::_Nextnode
_TEXT	ENDS
PUBLIC	?_Prevnode@?$_List_val@UFireTime@@V?$allocator@UFireTime@@@std@@@std@@SAAAPAU_Node@?$_List_nod@UFireTime@@V?$allocator@UFireTime@@@std@@@2@PAU342@@Z ; std::_List_val<FireTime,std::allocator<FireTime> >::_Prevnode
; Function compile flags: /Ogsp
;	COMDAT ?_Prevnode@?$_List_val@UFireTime@@V?$allocator@UFireTime@@@std@@@std@@SAAAPAU_Node@?$_List_nod@UFireTime@@V?$allocator@UFireTime@@@std@@@2@PAU342@@Z
_TEXT	SEGMENT
__Pnode$ = 8						; size = 4
?_Prevnode@?$_List_val@UFireTime@@V?$allocator@UFireTime@@@std@@@std@@SAAAPAU_Node@?$_List_nod@UFireTime@@V?$allocator@UFireTime@@@std@@@2@PAU342@@Z PROC ; std::_List_val<FireTime,std::allocator<FireTime> >::_Prevnode, COMDAT

; 565  : 		{	// return reference to predecessor pointer in node

  00000	55		 push	 ebp
  00001	8b ec		 mov	 ebp, esp

; 566  : 		return ((_Nodepref)(*_Pnode)._Prev);

  00003	8b 45 08	 mov	 eax, DWORD PTR __Pnode$[ebp]
  00006	83 c0 04	 add	 eax, 4

; 567  : 		}

  00009	5d		 pop	 ebp
  0000a	c3		 ret	 0
?_Prevnode@?$_List_val@UFireTime@@V?$allocator@UFireTime@@@std@@@std@@SAAAPAU_Node@?$_List_nod@UFireTime@@V?$allocator@UFireTime@@@std@@@2@PAU342@@Z ENDP ; std::_List_val<FireTime,std::allocator<FireTime> >::_Prevnode
_TEXT	ENDS
PUBLIC	?deallocate@?$allocator@U_Node@?$_List_nod@UFireTime@@V?$allocator@UFireTime@@@std@@@std@@@std@@QAEXPAU_Node@?$_List_nod@UFireTime@@V?$allocator@UFireTime@@@std@@@2@I@Z ; std::allocator<std::_List_nod<FireTime,std::allocator<FireTime> >::_Node>::deallocate
EXTRN	??3@YAXPAX@Z:PROC				; operator delete
; Function compile flags: /Ogsp
; File c:\program files (x86)\microsoft visual studio 10.0\vc\include\xmemory
;	COMDAT ?deallocate@?$allocator@U_Node@?$_List_nod@UFireTime@@V?$allocator@UFireTime@@@std@@@std@@@std@@QAEXPAU_Node@?$_List_nod@UFireTime@@V?$allocator@UFireTime@@@std@@@2@I@Z
_TEXT	SEGMENT
__Ptr$ = 8						; size = 4
___formal$ = 12						; size = 4
?deallocate@?$allocator@U_Node@?$_List_nod@UFireTime@@V?$allocator@UFireTime@@@std@@@std@@@std@@QAEXPAU_Node@?$_List_nod@UFireTime@@V?$allocator@UFireTime@@@std@@@2@I@Z PROC ; std::allocator<std::_List_nod<FireTime,std::allocator<FireTime> >::_Node>::deallocate, COMDAT
; _this$ = ecx

; 181  : 		{	// deallocate object at _Ptr, ignore size

  00000	55		 push	 ebp
  00001	8b ec		 mov	 ebp, esp

; 182  : 		::operator delete(_Ptr);

  00003	ff 75 08	 push	 DWORD PTR __Ptr$[ebp]
  00006	e8 00 00 00 00	 call	 ??3@YAXPAX@Z		; operator delete
  0000b	59		 pop	 ecx

; 183  : 		}

  0000c	5d		 pop	 ebp
  0000d	c2 08 00	 ret	 8
?deallocate@?$allocator@U_Node@?$_List_nod@UFireTime@@V?$allocator@UFireTime@@@std@@@std@@@std@@QAEXPAU_Node@?$_List_nod@UFireTime@@V?$allocator@UFireTime@@@std@@@2@I@Z ENDP ; std::allocator<std::_List_nod<FireTime,std::allocator<FireTime> >::_Node>::deallocate
_TEXT	ENDS
PUBLIC	??E?$_List_const_iterator@V?$_List_val@UFireTime@@V?$allocator@UFireTime@@@std@@@std@@@std@@QAEAAV01@XZ ; std::_List_const_iterator<std::_List_val<FireTime,std::allocator<FireTime> > >::operator++
; Function compile flags: /Ogsp
; File c:\program files (x86)\microsoft visual studio 10.0\vc\include\list
;	COMDAT ??E?$_List_const_iterator@V?$_List_val@UFireTime@@V?$allocator@UFireTime@@@std@@@std@@@std@@QAEAAV01@XZ
_TEXT	SEGMENT
??E?$_List_const_iterator@V?$_List_val@UFireTime@@V?$allocator@UFireTime@@@std@@@std@@@std@@QAEAAV01@XZ PROC ; std::_List_const_iterator<std::_List_val<FireTime,std::allocator<FireTime> > >::operator++, COMDAT
; _this$ = ecx

; 221  : 		{	// preincrement

  00000	8b c1		 mov	 eax, ecx

; 222  :  #if _ITERATOR_DEBUG_LEVEL == 2
; 223  : 		if (this->_Getcont() == 0
; 224  : 			|| this->_Ptr == 0
; 225  : 			|| this->_Ptr == ((_Mylist *)this->_Getcont())->_Myhead)
; 226  : 			{	// report error
; 227  : 			_DEBUG_ERROR("list iterator not incrementable");
; 228  : 			_SCL_SECURE_OUT_OF_RANGE;
; 229  : 			}
; 230  : 
; 231  :  #elif _ITERATOR_DEBUG_LEVEL == 1
; 232  : 		_SCL_SECURE_VALIDATE(this->_Getcont() != 0 && this->_Ptr != 0);
; 233  : 		_SCL_SECURE_VALIDATE_RANGE(this->_Ptr !=
; 234  : 			((_Mylist *)this->_Getcont())->_Myhead);
; 235  :  #endif /* _ITERATOR_DEBUG_LEVEL */
; 236  : 
; 237  : 		this->_Ptr = _Mylist::_Nextnode(this->_Ptr);

  00002	8b 08		 mov	 ecx, DWORD PTR [eax]
  00004	8b 09		 mov	 ecx, DWORD PTR [ecx]
  00006	89 08		 mov	 DWORD PTR [eax], ecx

; 238  : 		return (*this);
; 239  : 		}

  00008	c3		 ret	 0
??E?$_List_const_iterator@V?$_List_val@UFireTime@@V?$allocator@UFireTime@@@std@@@std@@@std@@QAEAAV01@XZ ENDP ; std::_List_const_iterator<std::_List_val<FireTime,std::allocator<FireTime> > >::operator++
_TEXT	ENDS
PUBLIC	??E?$_List_const_iterator@V?$_List_val@UFireTime@@V?$allocator@UFireTime@@@std@@@std@@@std@@QAE?AV01@H@Z ; std::_List_const_iterator<std::_List_val<FireTime,std::allocator<FireTime> > >::operator++
; Function compile flags: /Ogsp
;	COMDAT ??E?$_List_const_iterator@V?$_List_val@UFireTime@@V?$allocator@UFireTime@@@std@@@std@@@std@@QAE?AV01@H@Z
_TEXT	SEGMENT
___$ReturnUdt$ = 8					; size = 4
___formal$ = 12						; size = 4
??E?$_List_const_iterator@V?$_List_val@UFireTime@@V?$allocator@UFireTime@@@std@@@std@@@std@@QAE?AV01@H@Z PROC ; std::_List_const_iterator<std::_List_val<FireTime,std::allocator<FireTime> > >::operator++, COMDAT
; _this$ = ecx

; 242  : 		{	// postincrement

  00000	55		 push	 ebp
  00001	8b ec		 mov	 ebp, esp

; 243  : 		_Myiter _Tmp = *this;

  00003	8b 11		 mov	 edx, DWORD PTR [ecx]
  00005	8b 45 08	 mov	 eax, DWORD PTR ___$ReturnUdt$[ebp]
  00008	89 10		 mov	 DWORD PTR [eax], edx

; 244  : 		++*this;

  0000a	8b 12		 mov	 edx, DWORD PTR [edx]
  0000c	89 11		 mov	 DWORD PTR [ecx], edx

; 245  : 		return (_Tmp);
; 246  : 		}

  0000e	5d		 pop	 ebp
  0000f	c2 08 00	 ret	 8
??E?$_List_const_iterator@V?$_List_val@UFireTime@@V?$allocator@UFireTime@@@std@@@std@@@std@@QAE?AV01@H@Z ENDP ; std::_List_const_iterator<std::_List_val<FireTime,std::allocator<FireTime> > >::operator++
_TEXT	ENDS
PUBLIC	??8?$_List_const_iterator@V?$_List_val@UFireTime@@V?$allocator@UFireTime@@@std@@@std@@@std@@QBE_NABV01@@Z ; std::_List_const_iterator<std::_List_val<FireTime,std::allocator<FireTime> > >::operator==
; Function compile flags: /Ogsp
;	COMDAT ??8?$_List_const_iterator@V?$_List_val@UFireTime@@V?$allocator@UFireTime@@@std@@@std@@@std@@QBE_NABV01@@Z
_TEXT	SEGMENT
__Right$ = 8						; size = 4
??8?$_List_const_iterator@V?$_List_val@UFireTime@@V?$allocator@UFireTime@@@std@@@std@@@std@@QBE_NABV01@@Z PROC ; std::_List_const_iterator<std::_List_val<FireTime,std::allocator<FireTime> > >::operator==, COMDAT
; _this$ = ecx

; 281  : 		{	// test for iterator equality

  00000	55		 push	 ebp
  00001	8b ec		 mov	 ebp, esp

; 282  :  #if _ITERATOR_DEBUG_LEVEL == 2
; 283  : 		if (this->_Getcont() == 0
; 284  : 			|| this->_Getcont() != _Right._Getcont())
; 285  : 			{	// report error
; 286  : 			_DEBUG_ERROR("list iterators incompatible");
; 287  : 			_SCL_SECURE_INVALID_ARGUMENT;
; 288  : 			}
; 289  : 
; 290  :  #elif _ITERATOR_DEBUG_LEVEL == 1
; 291  : 		_SCL_SECURE_VALIDATE(this->_Getcont() != 0
; 292  : 			&& this->_Getcont() == _Right._Getcont());
; 293  :  #endif /* _ITERATOR_DEBUG_LEVEL */
; 294  : 
; 295  : 		return (this->_Ptr == _Right._Ptr);

  00003	8b 01		 mov	 eax, DWORD PTR [ecx]
  00005	8b 4d 08	 mov	 ecx, DWORD PTR __Right$[ebp]
  00008	2b 01		 sub	 eax, DWORD PTR [ecx]
  0000a	f7 d8		 neg	 eax
  0000c	1b c0		 sbb	 eax, eax
  0000e	40		 inc	 eax

; 296  : 		}

  0000f	5d		 pop	 ebp
  00010	c2 04 00	 ret	 4
??8?$_List_const_iterator@V?$_List_val@UFireTime@@V?$allocator@UFireTime@@@std@@@std@@@std@@QBE_NABV01@@Z ENDP ; std::_List_const_iterator<std::_List_val<FireTime,std::allocator<FireTime> > >::operator==
_TEXT	ENDS
PUBLIC	?_Mynode@?$_List_unchecked_const_iterator@V?$_List_val@UFireTime@@V?$allocator@UFireTime@@@std@@@std@@U_Iterator_base0@2@@std@@QBEPAU_Node@?$_List_nod@UFireTime@@V?$allocator@UFireTime@@@std@@@2@XZ ; std::_List_unchecked_const_iterator<std::_List_val<FireTime,std::allocator<FireTime> >,std::_Iterator_base0>::_Mynode
; Function compile flags: /Ogsp
;	COMDAT ?_Mynode@?$_List_unchecked_const_iterator@V?$_List_val@UFireTime@@V?$allocator@UFireTime@@@std@@@std@@U_Iterator_base0@2@@std@@QBEPAU_Node@?$_List_nod@UFireTime@@V?$allocator@UFireTime@@@std@@@2@XZ
_TEXT	SEGMENT
?_Mynode@?$_List_unchecked_const_iterator@V?$_List_val@UFireTime@@V?$allocator@UFireTime@@@std@@@std@@U_Iterator_base0@2@@std@@QBEPAU_Node@?$_List_nod@UFireTime@@V?$allocator@UFireTime@@@std@@@2@XZ PROC ; std::_List_unchecked_const_iterator<std::_List_val<FireTime,std::allocator<FireTime> >,std::_Iterator_base0>::_Mynode, COMDAT
; _this$ = ecx

; 93   : 		return (_Ptr);

  00000	8b 01		 mov	 eax, DWORD PTR [ecx]

; 94   : 		}

  00002	c3		 ret	 0
?_Mynode@?$_List_unchecked_const_iterator@V?$_List_val@UFireTime@@V?$allocator@UFireTime@@@std@@@std@@U_Iterator_base0@2@@std@@QBEPAU_Node@?$_List_nod@UFireTime@@V?$allocator@UFireTime@@@std@@@2@XZ ENDP ; std::_List_unchecked_const_iterator<std::_List_val<FireTime,std::allocator<FireTime> >,std::_Iterator_base0>::_Mynode
_TEXT	ENDS
PUBLIC	?_Myval@?$_List_val@UFireTime@@V?$allocator@UFireTime@@@std@@@std@@SAAAUFireTime@@PAU_Node@?$_List_nod@UFireTime@@V?$allocator@UFireTime@@@std@@@2@@Z ; std::_List_val<FireTime,std::allocator<FireTime> >::_Myval
; Function compile flags: /Ogsp
;	COMDAT ?_Myval@?$_List_val@UFireTime@@V?$allocator@UFireTime@@@std@@@std@@SAAAUFireTime@@PAU_Node@?$_List_nod@UFireTime@@V?$allocator@UFireTime@@@std@@@2@@Z
_TEXT	SEGMENT
__Pnode$ = 8						; size = 4
?_Myval@?$_List_val@UFireTime@@V?$allocator@UFireTime@@@std@@@std@@SAAAUFireTime@@PAU_Node@?$_List_nod@UFireTime@@V?$allocator@UFireTime@@@std@@@2@@Z PROC ; std::_List_val<FireTime,std::allocator<FireTime> >::_Myval, COMDAT

; 570  : 		{	// return reference to value in node

  00000	55		 push	 ebp
  00001	8b ec		 mov	 ebp, esp

; 571  : 		return ((reference)(*_Pnode)._Myval);

  00003	8b 45 08	 mov	 eax, DWORD PTR __Pnode$[ebp]
  00006	83 c0 08	 add	 eax, 8

; 572  : 		}

  00009	5d		 pop	 ebp
  0000a	c3		 ret	 0
?_Myval@?$_List_val@UFireTime@@V?$allocator@UFireTime@@@std@@@std@@SAAAUFireTime@@PAU_Node@?$_List_nod@UFireTime@@V?$allocator@UFireTime@@@std@@@2@@Z ENDP ; std::_List_val<FireTime,std::allocator<FireTime> >::_Myval
_TEXT	ENDS
PUBLIC	??0?$_List_unchecked_const_iterator@V?$_List_val@UFireTime@@V?$allocator@UFireTime@@@std@@@std@@U_Iterator_base0@2@@std@@QAE@PAU_Node@?$_List_nod@UFireTime@@V?$allocator@UFireTime@@@std@@@1@PBV?$_List_val@UFireTime@@V?$allocator@UFireTime@@@std@@@1@@Z ; std::_List_unchecked_const_iterator<std::_List_val<FireTime,std::allocator<FireTime> >,std::_Iterator_base0>::_List_unchecked_const_iterator<std::_List_val<FireTime,std::allocator<FireTime> >,std::_Iterator_base0>
; Function compile flags: /Ogsp
;	COMDAT ??0?$_List_unchecked_const_iterator@V?$_List_val@UFireTime@@V?$allocator@UFireTime@@@std@@@std@@U_Iterator_base0@2@@std@@QAE@PAU_Node@?$_List_nod@UFireTime@@V?$allocator@UFireTime@@@std@@@1@PBV?$_List_val@UFireTime@@V?$allocator@UFireTime@@@std@@@1@@Z
_TEXT	SEGMENT
__Pnode$ = 8						; size = 4
__Plist$ = 12						; size = 4
??0?$_List_unchecked_const_iterator@V?$_List_val@UFireTime@@V?$allocator@UFireTime@@@std@@@std@@U_Iterator_base0@2@@std@@QAE@PAU_Node@?$_List_nod@UFireTime@@V?$allocator@UFireTime@@@std@@@1@PBV?$_List_val@UFireTime@@V?$allocator@UFireTime@@@std@@@1@@Z PROC ; std::_List_unchecked_const_iterator<std::_List_val<FireTime,std::allocator<FireTime> >,std::_Iterator_base0>::_List_unchecked_const_iterator<std::_List_val<FireTime,std::allocator<FireTime> >,std::_Iterator_base0>, COMDAT
; _this$ = ecx

; 41   : 		{	// construct with node pointer _Pnode

  00000	55		 push	 ebp
  00001	8b ec		 mov	 ebp, esp
  00003	8b c1		 mov	 eax, ecx
  00005	8b 4d 08	 mov	 ecx, DWORD PTR __Pnode$[ebp]
  00008	89 08		 mov	 DWORD PTR [eax], ecx

; 42   : 		this->_Adopt(_Plist);
; 43   : 		}

  0000a	5d		 pop	 ebp
  0000b	c2 08 00	 ret	 8
??0?$_List_unchecked_const_iterator@V?$_List_val@UFireTime@@V?$allocator@UFireTime@@@std@@@std@@U_Iterator_base0@2@@std@@QAE@PAU_Node@?$_List_nod@UFireTime@@V?$allocator@UFireTime@@@std@@@1@PBV?$_List_val@UFireTime@@V?$allocator@UFireTime@@@std@@@1@@Z ENDP ; std::_List_unchecked_const_iterator<std::_List_val<FireTime,std::allocator<FireTime> >,std::_Iterator_base0>::_List_unchecked_const_iterator<std::_List_val<FireTime,std::allocator<FireTime> >,std::_Iterator_base0>
_TEXT	ENDS
PUBLIC	__real@3f91df46a2526c7a
PUBLIC	??$DEGtoRAD@M@@YAMM@Z				; DEGtoRAD<float>
;	COMDAT __real@3f91df46a2526c7a
; File d:\lost saga for developer\youtube\tutorial\source\src\lsclient\veryoftenusedefine.h
CONST	SEGMENT
__real@3f91df46a2526c7a DQ 03f91df46a2526c7ar	; 0.0174533
; Function compile flags: /Ogsp
CONST	ENDS
;	COMDAT ??$DEGtoRAD@M@@YAMM@Z
_TEXT	SEGMENT
tv129 = 8						; size = 4
_val$ = 8						; size = 4
??$DEGtoRAD@M@@YAMM@Z PROC				; DEGtoRAD<float>, COMDAT

; 20   : type  DEGtoRAD (type val) {return (type) (val * 0.0174532925199);}

  00000	55		 push	 ebp
  00001	8b ec		 mov	 ebp, esp
  00003	d9 45 08	 fld	 DWORD PTR _val$[ebp]
  00006	dc 0d 00 00 00
	00		 fmul	 QWORD PTR __real@3f91df46a2526c7a
  0000c	d9 5d 08	 fstp	 DWORD PTR tv129[ebp]
  0000f	d9 45 08	 fld	 DWORD PTR tv129[ebp]
  00012	5d		 pop	 ebp
  00013	c3		 ret	 0
??$DEGtoRAD@M@@YAMM@Z ENDP				; DEGtoRAD<float>
_TEXT	ENDS
PUBLIC	??1FireTime@@QAE@XZ				; FireTime::~FireTime
EXTRN	__imp_??1ioHashString@@QAE@XZ:PROC
EXTRN	___CxxFrameHandler3:PROC
EXTRN	@__security_check_cookie@4:PROC
EXTRN	__EH_epilog3:PROC
EXTRN	__EH_prolog3:PROC
;	COMDAT xdata$x
xdata$x	SEGMENT
__unwindtable$??1FireTime@@QAE@XZ DD 0ffffffffH
	DD	FLAT:__unwindfunclet$??1FireTime@@QAE@XZ$0
	DD	00H
	DD	FLAT:__unwindfunclet$??1FireTime@@QAE@XZ$1
__ehfuncinfo$??1FireTime@@QAE@XZ DD 019930522H
	DD	02H
	DD	FLAT:__unwindtable$??1FireTime@@QAE@XZ
	DD	2 DUP(00H)
	DD	2 DUP(00H)
	DD	00H
	DD	01H
; Function compile flags: /Ogsp
xdata$x	ENDS
;	COMDAT ??1FireTime@@QAE@XZ
_TEXT	SEGMENT
_this$ = -16						; size = 4
__$EHRec$ = -12						; size = 12
??1FireTime@@QAE@XZ PROC				; FireTime::~FireTime, COMDAT
; _this$ = ecx
  00000	6a 04		 push	 4
  00002	b8 00 00 00 00	 mov	 eax, __ehhandler$??1FireTime@@QAE@XZ
  00007	e8 00 00 00 00	 call	 __EH_prolog3
  0000c	8b f9		 mov	 edi, ecx
  0000e	89 7d f0	 mov	 DWORD PTR _this$[ebp], edi
  00011	8b 35 00 00 00
	00		 mov	 esi, DWORD PTR __imp_??1ioHashString@@QAE@XZ
  00017	8d 4f 44	 lea	 ecx, DWORD PTR [edi+68]
  0001a	c7 45 fc 01 00
	00 00		 mov	 DWORD PTR __$EHRec$[ebp+8], 1
  00021	ff d6		 call	 esi
  00023	8d 4f 30	 lea	 ecx, DWORD PTR [edi+48]
  00026	c6 45 fc 00	 mov	 BYTE PTR __$EHRec$[ebp+8], 0
  0002a	ff d6		 call	 esi
  0002c	83 4d fc ff	 or	 DWORD PTR __$EHRec$[ebp+8], -1
  00030	8d 4f 14	 lea	 ecx, DWORD PTR [edi+20]
  00033	ff d6		 call	 esi
  00035	e8 00 00 00 00	 call	 __EH_epilog3
  0003a	c3		 ret	 0
_TEXT	ENDS
;	COMDAT text$x
text$x	SEGMENT
__unwindfunclet$??1FireTime@@QAE@XZ$0:
  00000	8b 4d f0	 mov	 ecx, DWORD PTR _this$[ebp]
  00003	83 c1 14	 add	 ecx, 20			; 00000014H
  00006	ff 25 00 00 00
	00		 jmp	 DWORD PTR __imp_??1ioHashString@@QAE@XZ
__unwindfunclet$??1FireTime@@QAE@XZ$1:
  0000c	8b 4d f0	 mov	 ecx, DWORD PTR _this$[ebp]
  0000f	83 c1 30	 add	 ecx, 48			; 00000030H
  00012	ff 25 00 00 00
	00		 jmp	 DWORD PTR __imp_??1ioHashString@@QAE@XZ
__ehhandler$??1FireTime@@QAE@XZ:
  00018	8b 54 24 08	 mov	 edx, DWORD PTR [esp+8]
  0001c	8d 42 0c	 lea	 eax, DWORD PTR [edx+12]
  0001f	8b 4a ec	 mov	 ecx, DWORD PTR [edx-20]
  00022	33 c8		 xor	 ecx, eax
  00024	e8 00 00 00 00	 call	 @__security_check_cookie@4
  00029	b8 00 00 00 00	 mov	 eax, OFFSET __ehfuncinfo$??1FireTime@@QAE@XZ
  0002e	e9 00 00 00 00	 jmp	 ___CxxFrameHandler3
text$x	ENDS
??1FireTime@@QAE@XZ ENDP				; FireTime::~FireTime
; Function compile flags: /Odsp
;	COMDAT ??_EioOwnerControlDummy5@@WBMI@AEPAXI@Z
_TEXT	SEGMENT
??_EioOwnerControlDummy5@@WBMI@AEPAXI@Z PROC		; [thunk]:ioOwnerControlDummy5::`vector deleting destructor', COMDAT
  00000	81 e9 c8 01 00
	00		 sub	 ecx, 456		; 000001c8H
  00006	e9 00 00 00 00	 jmp	 ??_EioOwnerControlDummy5@@UAEPAXI@Z
??_EioOwnerControlDummy5@@WBMI@AEPAXI@Z ENDP		; [thunk]:ioOwnerControlDummy5::`vector deleting destructor'
_TEXT	ENDS
PUBLIC	??0D3DXVECTOR3@@QAE@XZ				; D3DXVECTOR3::D3DXVECTOR3
; Function compile flags: /Ogsp
; File c:\program files (x86)\microsoft directx sdk (june 2010)\include\d3dx9math.h
;	COMDAT ??0D3DXVECTOR3@@QAE@XZ
_TEXT	SEGMENT
??0D3DXVECTOR3@@QAE@XZ PROC				; D3DXVECTOR3::D3DXVECTOR3, COMDAT
; _this$ = ecx

; 165  :     D3DXVECTOR3() {};

  00000	8b c1		 mov	 eax, ecx
  00002	c3		 ret	 0
??0D3DXVECTOR3@@QAE@XZ ENDP				; D3DXVECTOR3::D3DXVECTOR3
_TEXT	ENDS
PUBLIC	??0D3DXQUATERNION@@QAE@XZ			; D3DXQUATERNION::D3DXQUATERNION
; Function compile flags: /Ogsp
;	COMDAT ??0D3DXQUATERNION@@QAE@XZ
_TEXT	SEGMENT
??0D3DXQUATERNION@@QAE@XZ PROC				; D3DXQUATERNION::D3DXQUATERNION, COMDAT
; _this$ = ecx

; 429  :     D3DXQUATERNION() {}

  00000	8b c1		 mov	 eax, ecx
  00002	c3		 ret	 0
??0D3DXQUATERNION@@QAE@XZ ENDP				; D3DXQUATERNION::D3DXQUATERNION
_TEXT	ENDS
PUBLIC	??0D3DXVECTOR3@@QAE@MMM@Z			; D3DXVECTOR3::D3DXVECTOR3
; Function compile flags: /Ogsp
; File c:\program files (x86)\microsoft directx sdk (june 2010)\include\d3dx9math.inl
;	COMDAT ??0D3DXVECTOR3@@QAE@MMM@Z
_TEXT	SEGMENT
_fx$ = 8						; size = 4
_fy$ = 12						; size = 4
_fz$ = 16						; size = 4
??0D3DXVECTOR3@@QAE@MMM@Z PROC				; D3DXVECTOR3::D3DXVECTOR3, COMDAT
; _this$ = ecx

; 303  : {

  00000	55		 push	 ebp
  00001	8b ec		 mov	 ebp, esp

; 304  :     x = fx;

  00003	f3 0f 10 45 08	 movss	 xmm0, DWORD PTR _fx$[ebp]
  00008	8b c1		 mov	 eax, ecx
  0000a	f3 0f 11 00	 movss	 DWORD PTR [eax], xmm0

; 305  :     y = fy;

  0000e	f3 0f 10 45 0c	 movss	 xmm0, DWORD PTR _fy$[ebp]
  00013	f3 0f 11 40 04	 movss	 DWORD PTR [eax+4], xmm0

; 306  :     z = fz;

  00018	f3 0f 10 45 10	 movss	 xmm0, DWORD PTR _fz$[ebp]
  0001d	f3 0f 11 40 08	 movss	 DWORD PTR [eax+8], xmm0

; 307  : }

  00022	5d		 pop	 ebp
  00023	c2 0c 00	 ret	 12			; 0000000cH
??0D3DXVECTOR3@@QAE@MMM@Z ENDP				; D3DXVECTOR3::D3DXVECTOR3
_TEXT	ENDS
PUBLIC	??YD3DXVECTOR3@@QAEAAU0@ABU0@@Z			; D3DXVECTOR3::operator+=
; Function compile flags: /Ogsp
;	COMDAT ??YD3DXVECTOR3@@QAEAAU0@ABU0@@Z
_TEXT	SEGMENT
_v$ = 8							; size = 4
??YD3DXVECTOR3@@QAEAAU0@ABU0@@Z PROC			; D3DXVECTOR3::operator+=, COMDAT
; _this$ = ecx

; 327  : {

  00000	55		 push	 ebp
  00001	8b ec		 mov	 ebp, esp
  00003	8b c1		 mov	 eax, ecx

; 328  :     x += v.x;

  00005	8b 4d 08	 mov	 ecx, DWORD PTR _v$[ebp]
  00008	f3 0f 10 01	 movss	 xmm0, DWORD PTR [ecx]
  0000c	f3 0f 10 08	 movss	 xmm1, DWORD PTR [eax]
  00010	0f 5a c0	 cvtps2pd xmm0, xmm0
  00013	0f 5a c9	 cvtps2pd xmm1, xmm1
  00016	f2 0f 58 c1	 addsd	 xmm0, xmm1

; 329  :     y += v.y;

  0001a	f3 0f 10 48 04	 movss	 xmm1, DWORD PTR [eax+4]
  0001f	66 0f 5a c0	 cvtpd2ps xmm0, xmm0
  00023	f3 0f 11 00	 movss	 DWORD PTR [eax], xmm0
  00027	f3 0f 10 41 04	 movss	 xmm0, DWORD PTR [ecx+4]
  0002c	0f 5a c0	 cvtps2pd xmm0, xmm0
  0002f	0f 5a c9	 cvtps2pd xmm1, xmm1
  00032	f2 0f 58 c1	 addsd	 xmm0, xmm1

; 330  :     z += v.z;

  00036	f3 0f 10 48 08	 movss	 xmm1, DWORD PTR [eax+8]
  0003b	66 0f 5a c0	 cvtpd2ps xmm0, xmm0
  0003f	f3 0f 11 40 04	 movss	 DWORD PTR [eax+4], xmm0
  00044	f3 0f 10 41 08	 movss	 xmm0, DWORD PTR [ecx+8]
  00049	0f 5a c0	 cvtps2pd xmm0, xmm0
  0004c	0f 5a c9	 cvtps2pd xmm1, xmm1
  0004f	f2 0f 58 c1	 addsd	 xmm0, xmm1
  00053	66 0f 5a c0	 cvtpd2ps xmm0, xmm0
  00057	f3 0f 11 40 08	 movss	 DWORD PTR [eax+8], xmm0

; 331  :     return *this;
; 332  : }

  0005c	5d		 pop	 ebp
  0005d	c2 04 00	 ret	 4
??YD3DXVECTOR3@@QAEAAU0@ABU0@@Z ENDP			; D3DXVECTOR3::operator+=
_TEXT	ENDS
PUBLIC	__mask@@NegFloat@
PUBLIC	??GD3DXVECTOR3@@QBE?AU0@XZ			; D3DXVECTOR3::operator-
;	COMDAT __mask@@NegFloat@
CONST	SEGMENT
__mask@@NegFloat@ DB 00H, 00H, 00H, 080H, 00H, 00H, 00H, 080H, 00H, 00H, 00H
	DB	080H, 00H, 00H, 00H, 080H
; Function compile flags: /Ogsp
CONST	ENDS
;	COMDAT ??GD3DXVECTOR3@@QBE?AU0@XZ
_TEXT	SEGMENT
___$ReturnUdt$ = 8					; size = 4
??GD3DXVECTOR3@@QBE?AU0@XZ PROC				; D3DXVECTOR3::operator-, COMDAT
; _this$ = ecx

; 372  : {

  00000	55		 push	 ebp
  00001	8b ec		 mov	 ebp, esp

; 373  :     return D3DXVECTOR3(-x, -y, -z);

  00003	f3 0f 10 05 00
	00 00 00	 movss	 xmm0, DWORD PTR __mask@@NegFloat@
  0000b	8b 45 08	 mov	 eax, DWORD PTR ___$ReturnUdt$[ebp]
  0000e	f3 0f 10 09	 movss	 xmm1, DWORD PTR [ecx]
  00012	0f 57 c8	 xorps	 xmm1, xmm0
  00015	f3 0f 11 08	 movss	 DWORD PTR [eax], xmm1
  00019	f3 0f 10 49 04	 movss	 xmm1, DWORD PTR [ecx+4]
  0001e	0f 57 c8	 xorps	 xmm1, xmm0
  00021	f3 0f 11 48 04	 movss	 DWORD PTR [eax+4], xmm1
  00026	f3 0f 10 49 08	 movss	 xmm1, DWORD PTR [ecx+8]
  0002b	0f 57 c8	 xorps	 xmm1, xmm0
  0002e	f3 0f 11 48 08	 movss	 DWORD PTR [eax+8], xmm1

; 374  : }

  00033	5d		 pop	 ebp
  00034	c2 04 00	 ret	 4
??GD3DXVECTOR3@@QBE?AU0@XZ ENDP				; D3DXVECTOR3::operator-
_TEXT	ENDS
PUBLIC	??DD3DXVECTOR3@@QBE?AU0@M@Z			; D3DXVECTOR3::operator*
; Function compile flags: /Ogsp
;	COMDAT ??DD3DXVECTOR3@@QBE?AU0@M@Z
_TEXT	SEGMENT
___$ReturnUdt$ = 8					; size = 4
_f$ = 12						; size = 4
??DD3DXVECTOR3@@QBE?AU0@M@Z PROC			; D3DXVECTOR3::operator*, COMDAT
; _this$ = ecx

; 392  : {

  00000	55		 push	 ebp
  00001	8b ec		 mov	 ebp, esp

; 393  :     return D3DXVECTOR3(x * f, y * f, z * f);

  00003	f3 0f 10 4d 0c	 movss	 xmm1, DWORD PTR _f$[ebp]
  00008	f3 0f 10 01	 movss	 xmm0, DWORD PTR [ecx]
  0000c	8b 45 08	 mov	 eax, DWORD PTR ___$ReturnUdt$[ebp]
  0000f	0f 5a c0	 cvtps2pd xmm0, xmm0
  00012	0f 5a c9	 cvtps2pd xmm1, xmm1
  00015	f2 0f 59 c1	 mulsd	 xmm0, xmm1
  00019	f3 0f 10 4d 0c	 movss	 xmm1, DWORD PTR _f$[ebp]
  0001e	66 0f 5a c0	 cvtpd2ps xmm0, xmm0
  00022	f3 0f 11 00	 movss	 DWORD PTR [eax], xmm0
  00026	f3 0f 10 41 04	 movss	 xmm0, DWORD PTR [ecx+4]
  0002b	0f 5a c0	 cvtps2pd xmm0, xmm0
  0002e	0f 5a c9	 cvtps2pd xmm1, xmm1
  00031	f2 0f 59 c1	 mulsd	 xmm0, xmm1
  00035	f3 0f 10 4d 0c	 movss	 xmm1, DWORD PTR _f$[ebp]
  0003a	66 0f 5a c0	 cvtpd2ps xmm0, xmm0
  0003e	f3 0f 11 40 04	 movss	 DWORD PTR [eax+4], xmm0
  00043	f3 0f 10 41 08	 movss	 xmm0, DWORD PTR [ecx+8]
  00048	0f 5a c0	 cvtps2pd xmm0, xmm0
  0004b	0f 5a c9	 cvtps2pd xmm1, xmm1
  0004e	f2 0f 59 c1	 mulsd	 xmm0, xmm1
  00052	66 0f 5a c0	 cvtpd2ps xmm0, xmm0
  00056	f3 0f 11 40 08	 movss	 DWORD PTR [eax+8], xmm0

; 394  : }

  0005b	5d		 pop	 ebp
  0005c	c2 08 00	 ret	 8
??DD3DXVECTOR3@@QBE?AU0@M@Z ENDP			; D3DXVECTOR3::operator*
_TEXT	ENDS
PUBLIC	?D3DXVec3Cross@@YAPAUD3DXVECTOR3@@PAU1@PBU1@1@Z	; D3DXVec3Cross
; Function compile flags: /Ogsp
;	COMDAT ?D3DXVec3Cross@@YAPAUD3DXVECTOR3@@PAU1@PBU1@1@Z
_TEXT	SEGMENT
_v$ = -12						; size = 12
_pOut$ = 8						; size = 4
_pV1$ = 12						; size = 4
_pV2$ = 16						; size = 4
?D3DXVec3Cross@@YAPAUD3DXVECTOR3@@PAU1@PBU1@1@Z PROC	; D3DXVec3Cross, COMDAT

; 1747 : {

  00000	55		 push	 ebp
  00001	8b ec		 mov	 ebp, esp
  00003	83 ec 0c	 sub	 esp, 12			; 0000000cH

; 1757 :     v.z = pV1->x * pV2->y - pV1->y * pV2->x;
; 1758 : 
; 1759 :     *pOut = v;

  00006	56		 push	 esi
  00007	57		 push	 edi

; 1748 :     D3DXVECTOR3 v;
; 1749 : 
; 1750 : #ifdef D3DX_DEBUG
; 1751 :     if(!pOut || !pV1 || !pV2)
; 1752 :         return NULL;
; 1753 : #endif
; 1754 : 
; 1755 :     v.x = pV1->y * pV2->z - pV1->z * pV2->y;

  00008	8b 45 0c	 mov	 eax, DWORD PTR _pV1$[ebp]
  0000b	f3 0f 10 40 04	 movss	 xmm0, DWORD PTR [eax+4]
  00010	f3 0f 10 50 08	 movss	 xmm2, DWORD PTR [eax+8]
  00015	8b 4d 10	 mov	 ecx, DWORD PTR _pV2$[ebp]
  00018	f3 0f 10 49 08	 movss	 xmm1, DWORD PTR [ecx+8]
  0001d	f3 0f 10 59 04	 movss	 xmm3, DWORD PTR [ecx+4]
  00022	0f 5a e8	 cvtps2pd xmm5, xmm0
  00025	0f 5a e1	 cvtps2pd xmm4, xmm1
  00028	0f 5a f2	 cvtps2pd xmm6, xmm2
  0002b	f2 0f 59 e5	 mulsd	 xmm4, xmm5

; 1756 :     v.y = pV1->z * pV2->x - pV1->x * pV2->z;

  0002f	0f 5a d2	 cvtps2pd xmm2, xmm2
  00032	0f 5a c9	 cvtps2pd xmm1, xmm1
  00035	0f 5a eb	 cvtps2pd xmm5, xmm3
  00038	f2 0f 59 ee	 mulsd	 xmm5, xmm6
  0003c	f2 0f 5c e5	 subsd	 xmm4, xmm5
  00040	f3 0f 10 28	 movss	 xmm5, DWORD PTR [eax]

; 1757 :     v.z = pV1->x * pV2->y - pV1->y * pV2->x;
; 1758 : 
; 1759 :     *pOut = v;

  00044	8b 45 08	 mov	 eax, DWORD PTR _pOut$[ebp]
  00047	66 0f 5a e4	 cvtpd2ps xmm4, xmm4
  0004b	f3 0f 11 65 f4	 movss	 DWORD PTR _v$[ebp], xmm4
  00050	f3 0f 10 21	 movss	 xmm4, DWORD PTR [ecx]
  00054	0f 5a f4	 cvtps2pd xmm6, xmm4
  00057	f2 0f 59 f2	 mulsd	 xmm6, xmm2
  0005b	0f 5a d5	 cvtps2pd xmm2, xmm5
  0005e	f2 0f 59 d1	 mulsd	 xmm2, xmm1
  00062	f2 0f 5c f2	 subsd	 xmm6, xmm2
  00066	66 0f 5a ce	 cvtpd2ps xmm1, xmm6
  0006a	f3 0f 11 4d f8	 movss	 DWORD PTR _v$[ebp+4], xmm1
  0006f	0f 5a c0	 cvtps2pd xmm0, xmm0
  00072	0f 5a d3	 cvtps2pd xmm2, xmm3
  00075	0f 5a cd	 cvtps2pd xmm1, xmm5
  00078	f2 0f 59 ca	 mulsd	 xmm1, xmm2
  0007c	8d 75 f4	 lea	 esi, DWORD PTR _v$[ebp]
  0007f	8b f8		 mov	 edi, eax
  00081	0f 5a d4	 cvtps2pd xmm2, xmm4
  00084	f2 0f 59 d0	 mulsd	 xmm2, xmm0
  00088	f2 0f 5c ca	 subsd	 xmm1, xmm2
  0008c	66 0f 5a c1	 cvtpd2ps xmm0, xmm1
  00090	f3 0f 11 45 fc	 movss	 DWORD PTR _v$[ebp+8], xmm0
  00095	a5		 movsd
  00096	a5		 movsd
  00097	a5		 movsd
  00098	5f		 pop	 edi
  00099	5e		 pop	 esi

; 1760 :     return pOut;
; 1761 : }

  0009a	c9		 leave
  0009b	c3		 ret	 0
?D3DXVec3Cross@@YAPAUD3DXVECTOR3@@PAU1@PBU1@1@Z ENDP	; D3DXVec3Cross
_TEXT	ENDS
PUBLIC	?_DECSTR@@YAXPADH@Z				; _DECSTR
; Function compile flags: /Ogsp
; File d:\lost saga for developer\youtube\tutorial\source\src\lsclient\stringprotect.h
;	COMDAT ?_DECSTR@@YAXPADH@Z
_TEXT	SEGMENT
_s$ = 8							; size = 4
_l$ = 12						; size = 4
?_DECSTR@@YAXPADH@Z PROC				; _DECSTR, COMDAT

; 40   : __forceinline void _DECSTR(char* s, int l){int i=0,l4=(l-1)/4,*p=(int*)s;s[l-1]=0;for(;i<l4;++i)*(p++)^=0xEAEBECED;for(i=l4*4;i<l-1;++i)s[i]^=0xED-i%4;}

  00000	55		 push	 ebp
  00001	8b ec		 mov	 ebp, esp
  00003	8b 4d 0c	 mov	 ecx, DWORD PTR _l$[ebp]
  00006	56		 push	 esi
  00007	8b 75 08	 mov	 esi, DWORD PTR _s$[ebp]
  0000a	57		 push	 edi
  0000b	8d 79 ff	 lea	 edi, DWORD PTR [ecx-1]
  0000e	8b c7		 mov	 eax, edi
  00010	99		 cdq
  00011	83 e2 03	 and	 edx, 3
  00014	03 c2		 add	 eax, edx
  00016	c1 f8 02	 sar	 eax, 2
  00019	8b d6		 mov	 edx, esi
  0001b	c6 44 0e ff 00	 mov	 BYTE PTR [esi+ecx-1], 0
  00020	85 c0		 test	 eax, eax
  00022	7e 0e		 jle	 SHORT $LN4@DECSTR
  00024	8b c8		 mov	 ecx, eax
$LL6@DECSTR:
  00026	81 32 ed ec eb
	ea		 xor	 DWORD PTR [edx], -353637139 ; eaebecedH
  0002c	83 c2 04	 add	 edx, 4
  0002f	49		 dec	 ecx
  00030	75 f4		 jne	 SHORT $LL6@DECSTR
$LN4@DECSTR:
  00032	c1 e0 02	 shl	 eax, 2
  00035	eb 17		 jmp	 SHORT $LN14@DECSTR
$LL3@DECSTR:
  00037	8b c8		 mov	 ecx, eax
  00039	81 e1 03 00 00
	80		 and	 ecx, -2147483645	; 80000003H
  0003f	79 05		 jns	 SHORT $LN13@DECSTR
  00041	49		 dec	 ecx
  00042	83 c9 fc	 or	 ecx, -4			; fffffffcH
  00045	41		 inc	 ecx
$LN13@DECSTR:
  00046	b2 ed		 mov	 dl, -19			; ffffffedH
  00048	2a d1		 sub	 dl, cl
  0004a	30 14 30	 xor	 BYTE PTR [eax+esi], dl
  0004d	40		 inc	 eax
$LN14@DECSTR:
  0004e	3b c7		 cmp	 eax, edi
  00050	7c e5		 jl	 SHORT $LL3@DECSTR
  00052	5f		 pop	 edi
  00053	5e		 pop	 esi
  00054	5d		 pop	 ebp
  00055	c3		 ret	 0
?_DECSTR@@YAXPADH@Z ENDP				; _DECSTR
; Function compile flags: /Ogsp
; File d:\lost saga for developer\youtube\tutorial\source\src\lsclient\iodummychar.h
_TEXT	ENDS
;	COMDAT ?IsDummyCharMidSync@ioDummyChar@@UAE_NXZ
_TEXT	SEGMENT
?IsDummyCharMidSync@ioDummyChar@@UAE_NXZ PROC		; ioDummyChar::IsDummyCharMidSync, COMDAT
; _this$ = ecx

; 742  : 	virtual bool IsDummyCharMidSync(){ return false; }

  00000	32 c0		 xor	 al, al
  00002	c3		 ret	 0
?IsDummyCharMidSync@ioDummyChar@@UAE_NXZ ENDP		; ioDummyChar::IsDummyCharMidSync
_TEXT	ENDS
PUBLIC	?EncryptValueToPool@?$CEncrypt@M@@AAEXPBD@Z	; CEncrypt<float>::EncryptValueToPool
EXTRN	?EncryptByte@ccddaabb@@QAEXPBDPADH@Z:PROC	; ccddaabb::EncryptByte
; Function compile flags: /Ogsp
; File d:\lost saga for developer\youtube\tutorial\source\src\lsclient\encryptvalue.h
;	COMDAT ?EncryptValueToPool@?$CEncrypt@M@@AAEXPBD@Z
_TEXT	SEGMENT
_value$ = 8						; size = 4
?EncryptValueToPool@?$CEncrypt@M@@AAEXPBD@Z PROC	; CEncrypt<float>::EncryptValueToPool, COMDAT
; _this$ = ecx

; 67   : 	{

  00000	55		 push	 ebp
  00001	8b ec		 mov	 ebp, esp

; 68   : 		m_RC5.EncryptByte( value, m_MemPool, max(m_ValueSize, DEFAULT_ENCRYPT) );

  00003	0f b7 41 06	 movzx	 eax, WORD PTR [ecx+6]
  00007	83 f8 04	 cmp	 eax, 4
  0000a	77 03		 ja	 SHORT $LN4@EncryptVal
  0000c	6a 04		 push	 4
  0000e	58		 pop	 eax
$LN4@EncryptVal:
  0000f	50		 push	 eax
  00010	8d 41 1c	 lea	 eax, DWORD PTR [ecx+28]
  00013	50		 push	 eax
  00014	ff 75 08	 push	 DWORD PTR _value$[ebp]
  00017	83 c1 0c	 add	 ecx, 12			; 0000000cH
  0001a	e8 00 00 00 00	 call	 ?EncryptByte@ccddaabb@@QAEXPBDPADH@Z ; ccddaabb::EncryptByte

; 69   : 		
; 70   : 	}

  0001f	5d		 pop	 ebp
  00020	c2 04 00	 ret	 4
?EncryptValueToPool@?$CEncrypt@M@@AAEXPBD@Z ENDP	; CEncrypt<float>::EncryptValueToPool
_TEXT	ENDS
PUBLIC	?DecryptValueToPool@?$CEncrypt@M@@QAEXPAM@Z	; CEncrypt<float>::DecryptValueToPool
EXTRN	?DecryptByte@ccddaabb@@QBEXPBDPADH@Z:PROC	; ccddaabb::DecryptByte
; Function compile flags: /Ogsp
;	COMDAT ?DecryptValueToPool@?$CEncrypt@M@@QAEXPAM@Z
_TEXT	SEGMENT
_value$ = 8						; size = 4
?DecryptValueToPool@?$CEncrypt@M@@QAEXPAM@Z PROC	; CEncrypt<float>::DecryptValueToPool, COMDAT
; _this$ = ecx

; 1648 : 	{

  00000	55		 push	 ebp
  00001	8b ec		 mov	 ebp, esp
  00003	56		 push	 esi

; 1649 : 		m_RC5.DecryptByte( m_MemPool, m_TempMem, 4 );

  00004	8d 71 28	 lea	 esi, DWORD PTR [ecx+40]
  00007	6a 04		 push	 4
  00009	8d 41 1c	 lea	 eax, DWORD PTR [ecx+28]
  0000c	56		 push	 esi
  0000d	50		 push	 eax
  0000e	83 c1 0c	 add	 ecx, 12			; 0000000cH
  00011	e8 00 00 00 00	 call	 ?DecryptByte@ccddaabb@@QBEXPBDPADH@Z ; ccddaabb::DecryptByte

; 1650 : 		*value = *((float*)m_TempMem);

  00016	d9 06		 fld	 DWORD PTR [esi]
  00018	8b 45 08	 mov	 eax, DWORD PTR _value$[ebp]
  0001b	d9 18		 fstp	 DWORD PTR [eax]
  0001d	5e		 pop	 esi

; 1651 : 	}

  0001e	5d		 pop	 ebp
  0001f	c2 04 00	 ret	 4
?DecryptValueToPool@?$CEncrypt@M@@QAEXPAM@Z ENDP	; CEncrypt<float>::DecryptValueToPool
_TEXT	ENDS
PUBLIC	?DecryptValueToPool@?$CEncrypt@K@@QAEXPAK@Z	; CEncrypt<unsigned long>::DecryptValueToPool
; Function compile flags: /Ogsp
;	COMDAT ?DecryptValueToPool@?$CEncrypt@K@@QAEXPAK@Z
_TEXT	SEGMENT
_value$ = 8						; size = 4
?DecryptValueToPool@?$CEncrypt@K@@QAEXPAK@Z PROC	; CEncrypt<unsigned long>::DecryptValueToPool, COMDAT
; _this$ = ecx

; 1256 : 	{

  00000	55		 push	 ebp
  00001	8b ec		 mov	 ebp, esp
  00003	56		 push	 esi

; 1257 : 		m_RC5.DecryptByte( m_MemPool, m_TempMem, 4 );

  00004	8d 71 28	 lea	 esi, DWORD PTR [ecx+40]
  00007	6a 04		 push	 4
  00009	8d 41 1c	 lea	 eax, DWORD PTR [ecx+28]
  0000c	56		 push	 esi
  0000d	50		 push	 eax
  0000e	83 c1 0c	 add	 ecx, 12			; 0000000cH
  00011	e8 00 00 00 00	 call	 ?DecryptByte@ccddaabb@@QBEXPBDPADH@Z ; ccddaabb::DecryptByte

; 1258 : 		*value = *((DWORD*)m_TempMem);

  00016	8b 06		 mov	 eax, DWORD PTR [esi]
  00018	8b 4d 08	 mov	 ecx, DWORD PTR _value$[ebp]
  0001b	89 01		 mov	 DWORD PTR [ecx], eax
  0001d	5e		 pop	 esi

; 1259 : 	}

  0001e	5d		 pop	 ebp
  0001f	c2 04 00	 ret	 4
?DecryptValueToPool@?$CEncrypt@K@@QAEXPAK@Z ENDP	; CEncrypt<unsigned long>::DecryptValueToPool
_TEXT	ENDS
PUBLIC	?DecryptValueToPool@?$CEncrypt@_N@@QAEXPA_N@Z	; CEncrypt<bool>::DecryptValueToPool
; Function compile flags: /Ogsp
;	COMDAT ?DecryptValueToPool@?$CEncrypt@_N@@QAEXPA_N@Z
_TEXT	SEGMENT
_value$ = 8						; size = 4
?DecryptValueToPool@?$CEncrypt@_N@@QAEXPA_N@Z PROC	; CEncrypt<bool>::DecryptValueToPool, COMDAT
; _this$ = ecx

; 219  : 	{

  00000	55		 push	 ebp
  00001	8b ec		 mov	 ebp, esp
  00003	56		 push	 esi

; 220  : 		m_RC5.DecryptByte( m_MemPool, m_TempMem, 4 );

  00004	8d 71 28	 lea	 esi, DWORD PTR [ecx+40]
  00007	6a 04		 push	 4
  00009	8d 41 1c	 lea	 eax, DWORD PTR [ecx+28]
  0000c	56		 push	 esi
  0000d	50		 push	 eax
  0000e	83 c1 0c	 add	 ecx, 12			; 0000000cH
  00011	e8 00 00 00 00	 call	 ?DecryptByte@ccddaabb@@QBEXPBDPADH@Z ; ccddaabb::DecryptByte

; 221  : 		*value = *((bool*)m_TempMem);

  00016	8a 06		 mov	 al, BYTE PTR [esi]
  00018	8b 4d 08	 mov	 ecx, DWORD PTR _value$[ebp]
  0001b	88 01		 mov	 BYTE PTR [ecx], al
  0001d	5e		 pop	 esi

; 222  : 	}

  0001e	5d		 pop	 ebp
  0001f	c2 04 00	 ret	 4
?DecryptValueToPool@?$CEncrypt@_N@@QAEXPA_N@Z ENDP	; CEncrypt<bool>::DecryptValueToPool
_TEXT	ENDS
PUBLIC	?EncryptValueToPool@?$CEncrypt@W4TeamType@@@@AAEXPBD@Z ; CEncrypt<enum TeamType>::EncryptValueToPool
; Function compile flags: /Ogsp
;	COMDAT ?EncryptValueToPool@?$CEncrypt@W4TeamType@@@@AAEXPBD@Z
_TEXT	SEGMENT
_value$ = 8						; size = 4
?EncryptValueToPool@?$CEncrypt@W4TeamType@@@@AAEXPBD@Z PROC ; CEncrypt<enum TeamType>::EncryptValueToPool, COMDAT
; _this$ = ecx

; 67   : 	{

  00000	55		 push	 ebp
  00001	8b ec		 mov	 ebp, esp

; 68   : 		m_RC5.EncryptByte( value, m_MemPool, max(m_ValueSize, DEFAULT_ENCRYPT) );

  00003	0f b7 41 06	 movzx	 eax, WORD PTR [ecx+6]
  00007	83 f8 04	 cmp	 eax, 4
  0000a	77 03		 ja	 SHORT $LN4@EncryptVal@2
  0000c	6a 04		 push	 4
  0000e	58		 pop	 eax
$LN4@EncryptVal@2:
  0000f	50		 push	 eax
  00010	8d 41 1c	 lea	 eax, DWORD PTR [ecx+28]
  00013	50		 push	 eax
  00014	ff 75 08	 push	 DWORD PTR _value$[ebp]
  00017	83 c1 0c	 add	 ecx, 12			; 0000000cH
  0001a	e8 00 00 00 00	 call	 ?EncryptByte@ccddaabb@@QAEXPBDPADH@Z ; ccddaabb::EncryptByte

; 69   : 		
; 70   : 	}

  0001f	5d		 pop	 ebp
  00020	c2 04 00	 ret	 4
?EncryptValueToPool@?$CEncrypt@W4TeamType@@@@AAEXPBD@Z ENDP ; CEncrypt<enum TeamType>::EncryptValueToPool
; Function compile flags: /Ogsp
_TEXT	ENDS
;	COMDAT ??_GioOwnerControlDummy5@@UAEPAXI@Z
_TEXT	SEGMENT
___flags$ = 8						; size = 4
??_GioOwnerControlDummy5@@UAEPAXI@Z PROC		; ioOwnerControlDummy5::`scalar deleting destructor', COMDAT
; _this$ = ecx
  00000	55		 push	 ebp
  00001	8b ec		 mov	 ebp, esp
  00003	56		 push	 esi
  00004	8b f1		 mov	 esi, ecx
  00006	e8 00 00 00 00	 call	 ??1ioOwnerControlDummy5@@UAE@XZ ; ioOwnerControlDummy5::~ioOwnerControlDummy5
  0000b	f6 45 08 01	 test	 BYTE PTR ___flags$[ebp], 1
  0000f	74 07		 je	 SHORT $LN1@scalar
  00011	56		 push	 esi
  00012	e8 00 00 00 00	 call	 ??3@YAXPAX@Z		; operator delete
  00017	59		 pop	 ecx
$LN1@scalar:
  00018	8b c6		 mov	 eax, esi
  0001a	5e		 pop	 esi
  0001b	5d		 pop	 ebp
  0001c	c2 04 00	 ret	 4
??_GioOwnerControlDummy5@@UAEPAXI@Z ENDP		; ioOwnerControlDummy5::`scalar deleting destructor'
_TEXT	ENDS
PUBLIC	??9?$CEncrypt@M@@QAE_NABM@Z			; CEncrypt<float>::operator!=
; Function compile flags: /Ogsp
;	COMDAT ??9?$CEncrypt@M@@QAE_NABM@Z
_TEXT	SEGMENT
_value$ = -4						; size = 4
_inValue$ = 8						; size = 4
??9?$CEncrypt@M@@QAE_NABM@Z PROC			; CEncrypt<float>::operator!=, COMDAT
; _this$ = ecx

; 1801 : 	{

  00000	55		 push	 ebp
  00001	8b ec		 mov	 ebp, esp
  00003	51		 push	 ecx

; 1802 : 		type value;
; 1803 : 		DecryptValueToPool(&value);

  00004	8d 45 fc	 lea	 eax, DWORD PTR _value$[ebp]
  00007	50		 push	 eax
  00008	e8 00 00 00 00	 call	 ?DecryptValueToPool@?$CEncrypt@M@@QAEXPAM@Z ; CEncrypt<float>::DecryptValueToPool

; 1804 : #ifdef _NOTUSE
; 1805 : 		Debug();
; 1806 : #endif
; 1807 : 		return (value != inValue);

  0000d	8b 45 08	 mov	 eax, DWORD PTR _inValue$[ebp]
  00010	f3 0f 10 08	 movss	 xmm1, DWORD PTR [eax]
  00014	f3 0f 10 45 fc	 movss	 xmm0, DWORD PTR _value$[ebp]
  00019	0f 5a c0	 cvtps2pd xmm0, xmm0
  0001c	0f 5a c9	 cvtps2pd xmm1, xmm1
  0001f	66 0f 2e c1	 ucomisd xmm0, xmm1
  00023	9f		 lahf
  00024	f6 c4 44	 test	 ah, 68			; 00000044H
  00027	7b 05		 jnp	 SHORT $LN3@operator
  00029	33 c0		 xor	 eax, eax
  0002b	40		 inc	 eax
  0002c	eb 02		 jmp	 SHORT $LN4@operator
$LN3@operator:
  0002e	33 c0		 xor	 eax, eax
$LN4@operator:

; 1808 : 	} 		

  00030	c9		 leave
  00031	c2 04 00	 ret	 4
??9?$CEncrypt@M@@QAE_NABM@Z ENDP			; CEncrypt<float>::operator!=
_TEXT	ENDS
PUBLIC	??O?$CEncrypt@K@@QAE_NABH@Z			; CEncrypt<unsigned long>::operator>
; Function compile flags: /Ogsp
;	COMDAT ??O?$CEncrypt@K@@QAE_NABH@Z
_TEXT	SEGMENT
_value$ = -4						; size = 4
_inValue$ = 8						; size = 4
??O?$CEncrypt@K@@QAE_NABH@Z PROC			; CEncrypt<unsigned long>::operator>, COMDAT
; _this$ = ecx

; 1009 : 	{

  00000	55		 push	 ebp
  00001	8b ec		 mov	 ebp, esp
  00003	51		 push	 ecx

; 1010 : 		
; 1011 : 		type value;
; 1012 : 		DecryptValueToPool(&value);

  00004	8d 45 fc	 lea	 eax, DWORD PTR _value$[ebp]
  00007	50		 push	 eax
  00008	e8 00 00 00 00	 call	 ?DecryptValueToPool@?$CEncrypt@K@@QAEXPAK@Z ; CEncrypt<unsigned long>::DecryptValueToPool

; 1013 : #ifdef _NOTUSE
; 1014 : 		Debug();
; 1015 : #endif
; 1016 : 		return (value > inValue);

  0000d	8b 45 08	 mov	 eax, DWORD PTR _inValue$[ebp]
  00010	8b 00		 mov	 eax, DWORD PTR [eax]
  00012	3b 45 fc	 cmp	 eax, DWORD PTR _value$[ebp]
  00015	1b c0		 sbb	 eax, eax
  00017	f7 d8		 neg	 eax

; 1017 : 	}		

  00019	c9		 leave
  0001a	c2 04 00	 ret	 4
??O?$CEncrypt@K@@QAE_NABH@Z ENDP			; CEncrypt<unsigned long>::operator>
_TEXT	ENDS
PUBLIC	??E?$_List_iterator@V?$_List_val@UFireTime@@V?$allocator@UFireTime@@@std@@@std@@@std@@QAEAAV01@XZ ; std::_List_iterator<std::_List_val<FireTime,std::allocator<FireTime> > >::operator++
; Function compile flags: /Ogsp
; File c:\program files (x86)\microsoft visual studio 10.0\vc\include\list
;	COMDAT ??E?$_List_iterator@V?$_List_val@UFireTime@@V?$allocator@UFireTime@@@std@@@std@@@std@@QAEAAV01@XZ
_TEXT	SEGMENT
??E?$_List_iterator@V?$_List_val@UFireTime@@V?$allocator@UFireTime@@@std@@@std@@@std@@QAEAAV01@XZ PROC ; std::_List_iterator<std::_List_val<FireTime,std::allocator<FireTime> > >::operator++, COMDAT
; _this$ = ecx

; 369  : 		{	// preincrement

  00000	8b c1		 mov	 eax, ecx

; 370  : 		++(*(_Mybase *)this);

  00002	8b 08		 mov	 ecx, DWORD PTR [eax]
  00004	8b 09		 mov	 ecx, DWORD PTR [ecx]
  00006	89 08		 mov	 DWORD PTR [eax], ecx

; 371  : 		return (*this);
; 372  : 		}

  00008	c3		 ret	 0
??E?$_List_iterator@V?$_List_val@UFireTime@@V?$allocator@UFireTime@@@std@@@std@@@std@@QAEAAV01@XZ ENDP ; std::_List_iterator<std::_List_val<FireTime,std::allocator<FireTime> > >::operator++
_TEXT	ENDS
PUBLIC	??9?$_List_const_iterator@V?$_List_val@UFireTime@@V?$allocator@UFireTime@@@std@@@std@@@std@@QBE_NABV01@@Z ; std::_List_const_iterator<std::_List_val<FireTime,std::allocator<FireTime> > >::operator!=
; Function compile flags: /Ogsp
;	COMDAT ??9?$_List_const_iterator@V?$_List_val@UFireTime@@V?$allocator@UFireTime@@@std@@@std@@@std@@QBE_NABV01@@Z
_TEXT	SEGMENT
__Right$ = 8						; size = 4
??9?$_List_const_iterator@V?$_List_val@UFireTime@@V?$allocator@UFireTime@@@std@@@std@@@std@@QBE_NABV01@@Z PROC ; std::_List_const_iterator<std::_List_val<FireTime,std::allocator<FireTime> > >::operator!=, COMDAT
; _this$ = ecx

; 299  : 		{	// test for iterator inequality

  00000	55		 push	 ebp
  00001	8b ec		 mov	 ebp, esp

; 300  : 		return (!(*this == _Right));

  00003	8b 01		 mov	 eax, DWORD PTR [ecx]
  00005	8b 55 08	 mov	 edx, DWORD PTR __Right$[ebp]
  00008	33 c9		 xor	 ecx, ecx
  0000a	3b 02		 cmp	 eax, DWORD PTR [edx]
  0000c	0f 95 c0	 setne	 al

; 301  : 		}

  0000f	5d		 pop	 ebp
  00010	c2 04 00	 ret	 4
??9?$_List_const_iterator@V?$_List_val@UFireTime@@V?$allocator@UFireTime@@@std@@@std@@@std@@QBE_NABV01@@Z ENDP ; std::_List_const_iterator<std::_List_val<FireTime,std::allocator<FireTime> > >::operator!=
_TEXT	ENDS
PUBLIC	??D?$_List_const_iterator@V?$_List_val@UFireTime@@V?$allocator@UFireTime@@@std@@@std@@@std@@QBEABUFireTime@@XZ ; std::_List_const_iterator<std::_List_val<FireTime,std::allocator<FireTime> > >::operator*
; Function compile flags: /Ogsp
;	COMDAT ??D?$_List_const_iterator@V?$_List_val@UFireTime@@V?$allocator@UFireTime@@@std@@@std@@@std@@QBEABUFireTime@@XZ
_TEXT	SEGMENT
??D?$_List_const_iterator@V?$_List_val@UFireTime@@V?$allocator@UFireTime@@@std@@@std@@@std@@QBEABUFireTime@@XZ PROC ; std::_List_const_iterator<std::_List_val<FireTime,std::allocator<FireTime> > >::operator*, COMDAT
; _this$ = ecx

; 202  :  #if _ITERATOR_DEBUG_LEVEL == 2
; 203  : 		if (this->_Getcont() == 0
; 204  : 			|| this->_Ptr == 0
; 205  : 			|| this->_Ptr == ((_Mylist *)this->_Getcont())->_Myhead)
; 206  : 			{	// report error
; 207  : 			_DEBUG_ERROR("list iterator not dereferencable");
; 208  : 			_SCL_SECURE_OUT_OF_RANGE;
; 209  : 			}
; 210  : 
; 211  :  #elif _ITERATOR_DEBUG_LEVEL == 1
; 212  : 		_SCL_SECURE_VALIDATE(this->_Getcont() != 0 && this->_Ptr != 0);
; 213  : 		_SCL_SECURE_VALIDATE_RANGE(this->_Ptr !=
; 214  : 			((_Mylist *)this->_Getcont())->_Myhead);
; 215  :  #endif /* _ITERATOR_DEBUG_LEVEL */
; 216  : 
; 217  : 		return (_Mylist::_Myval(this->_Ptr));

  00000	8b 01		 mov	 eax, DWORD PTR [ecx]
  00002	83 c0 08	 add	 eax, 8

; 218  : 		}

  00005	c3		 ret	 0
??D?$_List_const_iterator@V?$_List_val@UFireTime@@V?$allocator@UFireTime@@@std@@@std@@@std@@QBEABUFireTime@@XZ ENDP ; std::_List_const_iterator<std::_List_val<FireTime,std::allocator<FireTime> > >::operator*
_TEXT	ENDS
PUBLIC	??0?$_List_const_iterator@V?$_List_val@UFireTime@@V?$allocator@UFireTime@@@std@@@std@@@std@@QAE@PAU_Node@?$_List_nod@UFireTime@@V?$allocator@UFireTime@@@std@@@1@PBV?$_List_val@UFireTime@@V?$allocator@UFireTime@@@std@@@1@@Z ; std::_List_const_iterator<std::_List_val<FireTime,std::allocator<FireTime> > >::_List_const_iterator<std::_List_val<FireTime,std::allocator<FireTime> > >
; Function compile flags: /Ogsp
;	COMDAT ??0?$_List_const_iterator@V?$_List_val@UFireTime@@V?$allocator@UFireTime@@@std@@@std@@@std@@QAE@PAU_Node@?$_List_nod@UFireTime@@V?$allocator@UFireTime@@@std@@@1@PBV?$_List_val@UFireTime@@V?$allocator@UFireTime@@@std@@@1@@Z
_TEXT	SEGMENT
__Pnode$ = 8						; size = 4
__Plist$ = 12						; size = 4
??0?$_List_const_iterator@V?$_List_val@UFireTime@@V?$allocator@UFireTime@@@std@@@std@@@std@@QAE@PAU_Node@?$_List_nod@UFireTime@@V?$allocator@UFireTime@@@std@@@1@PBV?$_List_val@UFireTime@@V?$allocator@UFireTime@@@std@@@1@@Z PROC ; std::_List_const_iterator<std::_List_val<FireTime,std::allocator<FireTime> > >::_List_const_iterator<std::_List_val<FireTime,std::allocator<FireTime> > >, COMDAT
; _this$ = ecx

; 184  : 		{	// construct with node pointer _Pnode

  00000	55		 push	 ebp
  00001	8b ec		 mov	 ebp, esp
  00003	8b c1		 mov	 eax, ecx
  00005	8b 4d 08	 mov	 ecx, DWORD PTR __Pnode$[ebp]
  00008	89 08		 mov	 DWORD PTR [eax], ecx

; 185  : 		}

  0000a	5d		 pop	 ebp
  0000b	c2 08 00	 ret	 8
??0?$_List_const_iterator@V?$_List_val@UFireTime@@V?$allocator@UFireTime@@@std@@@std@@@std@@QAE@PAU_Node@?$_List_nod@UFireTime@@V?$allocator@UFireTime@@@std@@@1@PBV?$_List_val@UFireTime@@V?$allocator@UFireTime@@@std@@@1@@Z ENDP ; std::_List_const_iterator<std::_List_val<FireTime,std::allocator<FireTime> > >::_List_const_iterator<std::_List_val<FireTime,std::allocator<FireTime> > >
_TEXT	ENDS
PUBLIC	__$ArrayPad$
PUBLIC	??$LoadInt_e@$0BA@@ioINILoader@@QAEHAAY0BA@$$CBDH@Z ; ioINILoader::LoadInt_e<16>
EXTRN	__imp_?LoadInt@ioINILoader@@QAEHPBDH@Z:PROC
EXTRN	___security_cookie:DWORD
; Function compile flags: /Ogsp
; File d:\lost saga for developer\youtube\tutorial\source\src\io3dengine\ioiniloader.h
;	COMDAT ??$LoadInt_e@$0BA@@ioINILoader@@QAEHAAY0BA@$$CBDH@Z
_TEXT	SEGMENT
__k$ = -24						; size = 16
__$ArrayPad$ = -4					; size = 4
_k$ = 8							; size = 4
_i$ = 12						; size = 4
??$LoadInt_e@$0BA@@ioINILoader@@QAEHAAY0BA@$$CBDH@Z PROC ; ioINILoader::LoadInt_e<16>, COMDAT
; _this$ = ecx

; 118  : 	{

  00000	55		 push	 ebp
  00001	8b ec		 mov	 ebp, esp
  00003	83 ec 18	 sub	 esp, 24			; 00000018H
  00006	a1 00 00 00 00	 mov	 eax, DWORD PTR ___security_cookie
  0000b	33 c5		 xor	 eax, ebp
  0000d	89 45 fc	 mov	 DWORD PTR __$ArrayPad$[ebp], eax
  00010	8b 45 08	 mov	 eax, DWORD PTR _k$[ebp]

; 119  : 		_ENCSTR(k, _k);

  00013	8a 10		 mov	 dl, BYTE PTR [eax]
  00015	56		 push	 esi
  00016	8b f1		 mov	 esi, ecx
  00018	84 d2		 test	 dl, dl
  0001a	0f 84 8c 01 00
	00		 je	 $LN96@LoadInt_e
  00020	80 f2 ed	 xor	 dl, -19			; ffffffedH
  00023	88 55 e8	 mov	 BYTE PTR __k$[ebp], dl
  00026	8a 50 01	 mov	 dl, BYTE PTR [eax+1]
  00029	84 d2		 test	 dl, dl
  0002b	0f 84 75 01 00
	00		 je	 $LN95@LoadInt_e
  00031	80 f2 ec	 xor	 dl, -20			; ffffffecH
  00034	88 55 e9	 mov	 BYTE PTR __k$[ebp+1], dl
  00037	8a 50 02	 mov	 dl, BYTE PTR [eax+2]
  0003a	84 d2		 test	 dl, dl
  0003c	0f 84 5e 01 00
	00		 je	 $LN94@LoadInt_e
  00042	b1 eb		 mov	 cl, -21			; ffffffebH
  00044	32 d1		 xor	 dl, cl
  00046	88 55 ea	 mov	 BYTE PTR __k$[ebp+2], dl
  00049	8a 50 03	 mov	 dl, BYTE PTR [eax+3]
  0004c	84 d2		 test	 dl, dl
  0004e	0f 84 46 01 00
	00		 je	 $LN93@LoadInt_e
  00054	80 f2 ea	 xor	 dl, -22			; ffffffeaH
  00057	88 55 eb	 mov	 BYTE PTR __k$[ebp+3], dl
  0005a	8a 50 04	 mov	 dl, BYTE PTR [eax+4]
  0005d	84 d2		 test	 dl, dl
  0005f	0f 84 2f 01 00
	00		 je	 $LN92@LoadInt_e
  00065	80 f2 ed	 xor	 dl, -19			; ffffffedH
  00068	88 55 ec	 mov	 BYTE PTR __k$[ebp+4], dl
  0006b	8a 50 05	 mov	 dl, BYTE PTR [eax+5]
  0006e	84 d2		 test	 dl, dl
  00070	0f 84 18 01 00
	00		 je	 $LN91@LoadInt_e
  00076	80 f2 ec	 xor	 dl, -20			; ffffffecH
  00079	88 55 ed	 mov	 BYTE PTR __k$[ebp+5], dl
  0007c	8a 50 06	 mov	 dl, BYTE PTR [eax+6]
  0007f	84 d2		 test	 dl, dl
  00081	0f 84 02 01 00
	00		 je	 $LN90@LoadInt_e
  00087	32 d1		 xor	 dl, cl
  00089	88 55 ee	 mov	 BYTE PTR __k$[ebp+6], dl
  0008c	8a 50 07	 mov	 dl, BYTE PTR [eax+7]
  0008f	84 d2		 test	 dl, dl
  00091	0f 84 ec 00 00
	00		 je	 $LN89@LoadInt_e
  00097	80 f2 ea	 xor	 dl, -22			; ffffffeaH
  0009a	88 55 ef	 mov	 BYTE PTR __k$[ebp+7], dl
  0009d	8a 50 08	 mov	 dl, BYTE PTR [eax+8]
  000a0	84 d2		 test	 dl, dl
  000a2	0f 84 d5 00 00
	00		 je	 $LN88@LoadInt_e
  000a8	80 f2 ed	 xor	 dl, -19			; ffffffedH
  000ab	88 55 f0	 mov	 BYTE PTR __k$[ebp+8], dl
  000ae	8a 50 09	 mov	 dl, BYTE PTR [eax+9]
  000b1	84 d2		 test	 dl, dl
  000b3	0f 84 be 00 00
	00		 je	 $LN87@LoadInt_e
  000b9	80 f2 ec	 xor	 dl, -20			; ffffffecH
  000bc	88 55 f1	 mov	 BYTE PTR __k$[ebp+9], dl
  000bf	8a 50 0a	 mov	 dl, BYTE PTR [eax+10]
  000c2	84 d2		 test	 dl, dl
  000c4	0f 84 a8 00 00
	00		 je	 $LN86@LoadInt_e
  000ca	32 d1		 xor	 dl, cl
  000cc	88 55 f2	 mov	 BYTE PTR __k$[ebp+10], dl
  000cf	8a 50 0b	 mov	 dl, BYTE PTR [eax+11]
  000d2	84 d2		 test	 dl, dl
  000d4	0f 84 92 00 00
	00		 je	 $LN85@LoadInt_e
  000da	80 f2 ea	 xor	 dl, -22			; ffffffeaH
  000dd	88 55 f3	 mov	 BYTE PTR __k$[ebp+11], dl
  000e0	8a 50 0c	 mov	 dl, BYTE PTR [eax+12]
  000e3	84 d2		 test	 dl, dl
  000e5	74 7f		 je	 SHORT $LN84@LoadInt_e
  000e7	80 f2 ed	 xor	 dl, -19			; ffffffedH
  000ea	88 55 f4	 mov	 BYTE PTR __k$[ebp+12], dl
  000ed	8a 50 0d	 mov	 dl, BYTE PTR [eax+13]
  000f0	84 d2		 test	 dl, dl
  000f2	74 6c		 je	 SHORT $LN83@LoadInt_e
  000f4	80 f2 ec	 xor	 dl, -20			; ffffffecH
  000f7	88 55 f5	 mov	 BYTE PTR __k$[ebp+13], dl
  000fa	8a 50 0e	 mov	 dl, BYTE PTR [eax+14]
  000fd	84 d2		 test	 dl, dl
  000ff	74 5a		 je	 SHORT $LN82@LoadInt_e
  00101	32 d1		 xor	 dl, cl
  00103	80 78 0f 00	 cmp	 BYTE PTR [eax+15], 0
  00107	88 55 f6	 mov	 BYTE PTR __k$[ebp+14], dl
  0010a	0f 84 a0 00 00
	00		 je	 $LN1@LoadInt_e
  00110	8a 50 10	 mov	 dl, BYTE PTR [eax+16]
  00113	84 d2		 test	 dl, dl
  00115	74 3e		 je	 SHORT $LN80@LoadInt_e
  00117	80 f2 ed	 xor	 dl, -19			; ffffffedH
  0011a	88 55 f8	 mov	 BYTE PTR __k$[ebp+16], dl
  0011d	8a 50 11	 mov	 dl, BYTE PTR [eax+17]
  00120	84 d2		 test	 dl, dl
  00122	74 2b		 je	 SHORT $LN79@LoadInt_e
  00124	80 f2 ec	 xor	 dl, -20			; ffffffecH
  00127	88 55 f9	 mov	 BYTE PTR __k$[ebp+17], dl
  0012a	8a 50 12	 mov	 dl, BYTE PTR [eax+18]
  0012d	84 d2		 test	 dl, dl
  0012f	74 19		 je	 SHORT $LN78@LoadInt_e
  00131	8a 40 13	 mov	 al, BYTE PTR [eax+19]
  00134	32 d1		 xor	 dl, cl
  00136	88 55 fa	 mov	 BYTE PTR __k$[ebp+18], dl
  00139	84 c0		 test	 al, al
  0013b	74 07		 je	 SHORT $LN77@LoadInt_e
  0013d	34 ea		 xor	 al, -22			; ffffffeaH
  0013f	88 45 fb	 mov	 BYTE PTR __k$[ebp+19], al
  00142	eb 6c		 jmp	 SHORT $LN1@LoadInt_e
$LN77@LoadInt_e:
  00144	c6 45 fb ea	 mov	 BYTE PTR __k$[ebp+19], -22 ; ffffffeaH
  00148	eb 66		 jmp	 SHORT $LN1@LoadInt_e
$LN78@LoadInt_e:
  0014a	88 4d fa	 mov	 BYTE PTR __k$[ebp+18], cl
  0014d	eb 61		 jmp	 SHORT $LN1@LoadInt_e
$LN79@LoadInt_e:
  0014f	c6 45 f9 ec	 mov	 BYTE PTR __k$[ebp+17], -20 ; ffffffecH
  00153	eb 5b		 jmp	 SHORT $LN1@LoadInt_e
$LN80@LoadInt_e:
  00155	c6 45 f8 ed	 mov	 BYTE PTR __k$[ebp+16], -19 ; ffffffedH
  00159	eb 55		 jmp	 SHORT $LN1@LoadInt_e
$LN82@LoadInt_e:
  0015b	88 4d f6	 mov	 BYTE PTR __k$[ebp+14], cl
  0015e	eb 50		 jmp	 SHORT $LN1@LoadInt_e
$LN83@LoadInt_e:
  00160	c6 45 f5 ec	 mov	 BYTE PTR __k$[ebp+13], -20 ; ffffffecH
  00164	eb 4a		 jmp	 SHORT $LN1@LoadInt_e
$LN84@LoadInt_e:
  00166	c6 45 f4 ed	 mov	 BYTE PTR __k$[ebp+12], -19 ; ffffffedH
  0016a	eb 44		 jmp	 SHORT $LN1@LoadInt_e
$LN85@LoadInt_e:
  0016c	c6 45 f3 ea	 mov	 BYTE PTR __k$[ebp+11], -22 ; ffffffeaH
  00170	eb 3e		 jmp	 SHORT $LN1@LoadInt_e
$LN86@LoadInt_e:
  00172	88 4d f2	 mov	 BYTE PTR __k$[ebp+10], cl
  00175	eb 39		 jmp	 SHORT $LN1@LoadInt_e
$LN87@LoadInt_e:
  00177	c6 45 f1 ec	 mov	 BYTE PTR __k$[ebp+9], -20 ; ffffffecH
  0017b	eb 33		 jmp	 SHORT $LN1@LoadInt_e
$LN88@LoadInt_e:
  0017d	c6 45 f0 ed	 mov	 BYTE PTR __k$[ebp+8], -19 ; ffffffedH
  00181	eb 2d		 jmp	 SHORT $LN1@LoadInt_e
$LN89@LoadInt_e:
  00183	c6 45 ef ea	 mov	 BYTE PTR __k$[ebp+7], -22 ; ffffffeaH
  00187	eb 27		 jmp	 SHORT $LN1@LoadInt_e
$LN90@LoadInt_e:
  00189	88 4d ee	 mov	 BYTE PTR __k$[ebp+6], cl
  0018c	eb 22		 jmp	 SHORT $LN1@LoadInt_e
$LN91@LoadInt_e:
  0018e	c6 45 ed ec	 mov	 BYTE PTR __k$[ebp+5], -20 ; ffffffecH
  00192	eb 1c		 jmp	 SHORT $LN1@LoadInt_e
$LN92@LoadInt_e:
  00194	c6 45 ec ed	 mov	 BYTE PTR __k$[ebp+4], -19 ; ffffffedH
  00198	eb 16		 jmp	 SHORT $LN1@LoadInt_e
$LN93@LoadInt_e:
  0019a	c6 45 eb ea	 mov	 BYTE PTR __k$[ebp+3], -22 ; ffffffeaH
  0019e	eb 10		 jmp	 SHORT $LN1@LoadInt_e
$LN94@LoadInt_e:
  001a0	c6 45 ea eb	 mov	 BYTE PTR __k$[ebp+2], -21 ; ffffffebH
  001a4	eb 0a		 jmp	 SHORT $LN1@LoadInt_e
$LN95@LoadInt_e:
  001a6	c6 45 e9 ec	 mov	 BYTE PTR __k$[ebp+1], -20 ; ffffffecH
  001aa	eb 04		 jmp	 SHORT $LN1@LoadInt_e
$LN96@LoadInt_e:
  001ac	c6 45 e8 ed	 mov	 BYTE PTR __k$[ebp], -19	; ffffffedH
$LN1@LoadInt_e:
  001b0	6a 03		 push	 3
  001b2	8d 45 e8	 lea	 eax, DWORD PTR __k$[ebp]
  001b5	c6 45 f7 00	 mov	 BYTE PTR __k$[ebp+15], 0
  001b9	5a		 pop	 edx
$LL104@LoadInt_e:
  001ba	81 30 ed ec eb
	ea		 xor	 DWORD PTR [eax], -353637139 ; eaebecedH
  001c0	83 c0 04	 add	 eax, 4
  001c3	4a		 dec	 edx
  001c4	75 f4		 jne	 SHORT $LL104@LoadInt_e
  001c6	6a 0c		 push	 12			; 0000000cH
  001c8	58		 pop	 eax
$LL101@LoadInt_e:
  001c9	8b c8		 mov	 ecx, eax
  001cb	81 e1 03 00 00
	80		 and	 ecx, -2147483645	; 80000003H
  001d1	79 05		 jns	 SHORT $LN111@LoadInt_e
  001d3	49		 dec	 ecx
  001d4	83 c9 fc	 or	 ecx, -4			; fffffffcH
  001d7	41		 inc	 ecx
$LN111@LoadInt_e:
  001d8	b2 ed		 mov	 dl, -19			; ffffffedH
  001da	2a d1		 sub	 dl, cl
  001dc	30 54 05 e8	 xor	 BYTE PTR __k$[ebp+eax], dl
  001e0	40		 inc	 eax
  001e1	83 f8 0f	 cmp	 eax, 15			; 0000000fH
  001e4	7c e3		 jl	 SHORT $LL101@LoadInt_e

; 120  : 		return LoadInt(_k, i);

  001e6	ff 75 0c	 push	 DWORD PTR _i$[ebp]
  001e9	8d 45 e8	 lea	 eax, DWORD PTR __k$[ebp]
  001ec	50		 push	 eax
  001ed	8b ce		 mov	 ecx, esi
  001ef	ff 15 00 00 00
	00		 call	 DWORD PTR __imp_?LoadInt@ioINILoader@@QAEHPBDH@Z

; 121  : 	}

  001f5	8b 4d fc	 mov	 ecx, DWORD PTR __$ArrayPad$[ebp]
  001f8	33 cd		 xor	 ecx, ebp
  001fa	5e		 pop	 esi
  001fb	e8 00 00 00 00	 call	 @__security_check_cookie@4
  00200	c9		 leave
  00201	c2 08 00	 ret	 8
??$LoadInt_e@$0BA@@ioINILoader@@QAEHAAY0BA@$$CBDH@Z ENDP ; ioINILoader::LoadInt_e<16>
_TEXT	ENDS
PUBLIC	??1_Node@?$_List_nod@UFireTime@@V?$allocator@UFireTime@@@std@@@std@@QAE@XZ ; std::_List_nod<FireTime,std::allocator<FireTime> >::_Node::~_Node
; Function compile flags: /Ogsp
;	COMDAT ??1_Node@?$_List_nod@UFireTime@@V?$allocator@UFireTime@@@std@@@std@@QAE@XZ
_TEXT	SEGMENT
??1_Node@?$_List_nod@UFireTime@@V?$allocator@UFireTime@@@std@@@std@@QAE@XZ PROC ; std::_List_nod<FireTime,std::allocator<FireTime> >::_Node::~_Node, COMDAT
; _this$ = ecx
  00000	83 c1 08	 add	 ecx, 8
  00003	e9 00 00 00 00	 jmp	 ??1FireTime@@QAE@XZ
??1_Node@?$_List_nod@UFireTime@@V?$allocator@UFireTime@@@std@@@std@@QAE@XZ ENDP ; std::_List_nod<FireTime,std::allocator<FireTime> >::_Node::~_Node
_TEXT	ENDS
PUBLIC	??B?$CEncrypt@M@@QAEMXZ				; CEncrypt<float>::operator float
; Function compile flags: /Ogsp
; File d:\lost saga for developer\youtube\tutorial\source\src\lsclient\encryptvalue.h
;	COMDAT ??B?$CEncrypt@M@@QAEMXZ
_TEXT	SEGMENT
_value$ = -4						; size = 4
??B?$CEncrypt@M@@QAEMXZ PROC				; CEncrypt<float>::operator float, COMDAT
; _this$ = ecx

; 134  : 	{

  00000	55		 push	 ebp
  00001	8b ec		 mov	 ebp, esp
  00003	51		 push	 ecx

; 135  : 		type value;
; 136  : 		DecryptValueToPool(&value);

  00004	8d 45 fc	 lea	 eax, DWORD PTR _value$[ebp]
  00007	50		 push	 eax
  00008	e8 00 00 00 00	 call	 ?DecryptValueToPool@?$CEncrypt@M@@QAEXPAM@Z ; CEncrypt<float>::DecryptValueToPool

; 137  : 
; 138  : #ifdef _NOTUSE
; 139  : 		Debug();
; 140  : #endif
; 141  : 		return value;

  0000d	d9 45 fc	 fld	 DWORD PTR _value$[ebp]

; 142  : 	}

  00010	c9		 leave
  00011	c3		 ret	 0
??B?$CEncrypt@M@@QAEMXZ ENDP				; CEncrypt<float>::operator float
_TEXT	ENDS
PUBLIC	??4?$CEncrypt@M@@QAEMM@Z			; CEncrypt<float>::operator=
; Function compile flags: /Ogsp
;	COMDAT ??4?$CEncrypt@M@@QAEMM@Z
_TEXT	SEGMENT
_value$ = 8						; size = 4
_inValue$ = 8						; size = 4
??4?$CEncrypt@M@@QAEMM@Z PROC				; CEncrypt<float>::operator=, COMDAT
; _this$ = ecx

; 1654 : 	{	

  00000	55		 push	 ebp
  00001	8b ec		 mov	 ebp, esp

; 1655 : 		type value = inValue;

  00003	d9 45 08	 fld	 DWORD PTR _inValue$[ebp]

; 1656 : 		EncryptValueToPool((char*)&value);

  00006	8d 45 08	 lea	 eax, DWORD PTR _value$[ebp]
  00009	50		 push	 eax
  0000a	d9 5d 08	 fstp	 DWORD PTR _value$[ebp]
  0000d	e8 00 00 00 00	 call	 ?EncryptValueToPool@?$CEncrypt@M@@AAEXPBD@Z ; CEncrypt<float>::EncryptValueToPool

; 1657 : #ifdef _NOTUSE
; 1658 : 		m_value = inValue;
; 1659 : 		Debug();
; 1660 : #endif
; 1661 : 		return value;

  00012	d9 45 08	 fld	 DWORD PTR _value$[ebp]

; 1662 : 	}

  00015	5d		 pop	 ebp
  00016	c2 04 00	 ret	 4
??4?$CEncrypt@M@@QAEMM@Z ENDP				; CEncrypt<float>::operator=
_TEXT	ENDS
PUBLIC	??B?$CEncrypt@K@@QAEKXZ				; CEncrypt<unsigned long>::operator unsigned long
; Function compile flags: /Ogsp
;	COMDAT ??B?$CEncrypt@K@@QAEKXZ
_TEXT	SEGMENT
_value$ = -4						; size = 4
??B?$CEncrypt@K@@QAEKXZ PROC				; CEncrypt<unsigned long>::operator unsigned long, COMDAT
; _this$ = ecx

; 134  : 	{

  00000	55		 push	 ebp
  00001	8b ec		 mov	 ebp, esp
  00003	51		 push	 ecx

; 135  : 		type value;
; 136  : 		DecryptValueToPool(&value);

  00004	8d 45 fc	 lea	 eax, DWORD PTR _value$[ebp]
  00007	50		 push	 eax
  00008	e8 00 00 00 00	 call	 ?DecryptValueToPool@?$CEncrypt@K@@QAEXPAK@Z ; CEncrypt<unsigned long>::DecryptValueToPool

; 137  : 
; 138  : #ifdef _NOTUSE
; 139  : 		Debug();
; 140  : #endif
; 141  : 		return value;

  0000d	8b 45 fc	 mov	 eax, DWORD PTR _value$[ebp]

; 142  : 	}

  00010	c9		 leave
  00011	c3		 ret	 0
??B?$CEncrypt@K@@QAEKXZ ENDP				; CEncrypt<unsigned long>::operator unsigned long
_TEXT	ENDS
PUBLIC	??B?$CEncrypt@_N@@QAE_NXZ			; CEncrypt<bool>::operator bool
; Function compile flags: /Ogsp
;	COMDAT ??B?$CEncrypt@_N@@QAE_NXZ
_TEXT	SEGMENT
_value$ = -1						; size = 1
??B?$CEncrypt@_N@@QAE_NXZ PROC				; CEncrypt<bool>::operator bool, COMDAT
; _this$ = ecx

; 134  : 	{

  00000	55		 push	 ebp
  00001	8b ec		 mov	 ebp, esp
  00003	51		 push	 ecx

; 135  : 		type value;
; 136  : 		DecryptValueToPool(&value);

  00004	8d 45 ff	 lea	 eax, DWORD PTR _value$[ebp]
  00007	50		 push	 eax
  00008	e8 00 00 00 00	 call	 ?DecryptValueToPool@?$CEncrypt@_N@@QAEXPA_N@Z ; CEncrypt<bool>::DecryptValueToPool

; 137  : 
; 138  : #ifdef _NOTUSE
; 139  : 		Debug();
; 140  : #endif
; 141  : 		return value;

  0000d	8a 45 ff	 mov	 al, BYTE PTR _value$[ebp]

; 142  : 	}

  00010	c9		 leave
  00011	c3		 ret	 0
??B?$CEncrypt@_N@@QAE_NXZ ENDP				; CEncrypt<bool>::operator bool
_TEXT	ENDS
PUBLIC	??B?$CEncrypt@_N@@QBE_NXZ			; CEncrypt<bool>::operator bool
; Function compile flags: /Ogsp
;	COMDAT ??B?$CEncrypt@_N@@QBE_NXZ
_TEXT	SEGMENT
_value$ = -1						; size = 1
??B?$CEncrypt@_N@@QBE_NXZ PROC				; CEncrypt<bool>::operator bool, COMDAT
; _this$ = ecx

; 145  : 	{

  00000	55		 push	 ebp
  00001	8b ec		 mov	 ebp, esp
  00003	51		 push	 ecx

; 146  : 		//UJ 130829, const    --start
; 147  : 		type value;
; 148  : 		CEncrypt<type>* pThis = const_cast<CEncrypt<type>*>(this);
; 149  : 		pThis->DecryptValueToPool(&value);

  00004	8d 45 ff	 lea	 eax, DWORD PTR _value$[ebp]
  00007	50		 push	 eax
  00008	e8 00 00 00 00	 call	 ?DecryptValueToPool@?$CEncrypt@_N@@QAEXPA_N@Z ; CEncrypt<bool>::DecryptValueToPool

; 150  : 		//// const DecryptValueToPool     .
; 151  :  		//type value;
; 152  : 		//char szTempMem[MAX_ENCRYPT];
; 153  : 		//m_RC5.DecryptByte( m_MemPool, szTempMem, max(m_ValueSize, DEFAULT_ENCRYPT) );
; 154  : 		//memcpy( &value, szTempMem, m_ValueSize );
; 155  : 		//UJ --end
; 156  : 
; 157  : #ifdef _NOTUSE
; 158  : 		Debug();
; 159  : #endif
; 160  : 		return value;

  0000d	8a 45 ff	 mov	 al, BYTE PTR _value$[ebp]

; 161  : 	}

  00010	c9		 leave
  00011	c3		 ret	 0
??B?$CEncrypt@_N@@QBE_NXZ ENDP				; CEncrypt<bool>::operator bool
_TEXT	ENDS
PUBLIC	??4?$CEncrypt@W4TeamType@@@@QAE?AW4TeamType@@W41@@Z ; CEncrypt<enum TeamType>::operator=
; Function compile flags: /Ogsp
;	COMDAT ??4?$CEncrypt@W4TeamType@@@@QAE?AW4TeamType@@W41@@Z
_TEXT	SEGMENT
_value$ = 8						; size = 4
_inValue$ = 8						; size = 4
??4?$CEncrypt@W4TeamType@@@@QAE?AW4TeamType@@W41@@Z PROC ; CEncrypt<enum TeamType>::operator=, COMDAT
; _this$ = ecx

; 2965 : 	{

  00000	55		 push	 ebp
  00001	8b ec		 mov	 ebp, esp

; 2966 : 		type value = inValue;

  00003	8b 45 08	 mov	 eax, DWORD PTR _inValue$[ebp]
  00006	89 45 08	 mov	 DWORD PTR _value$[ebp], eax

; 2967 : 		EncryptValueToPool((char*)&value);

  00009	8d 45 08	 lea	 eax, DWORD PTR _value$[ebp]
  0000c	50		 push	 eax
  0000d	e8 00 00 00 00	 call	 ?EncryptValueToPool@?$CEncrypt@W4TeamType@@@@AAEXPBD@Z ; CEncrypt<enum TeamType>::EncryptValueToPool

; 2968 : #ifdef _NOTUSE
; 2969 : 		m_value = inValue;
; 2970 : 		Debug();
; 2971 : #endif
; 2972 : 		return value;

  00012	8b 45 08	 mov	 eax, DWORD PTR _value$[ebp]

; 2973 : 	}

  00015	5d		 pop	 ebp
  00016	c2 04 00	 ret	 4
??4?$CEncrypt@W4TeamType@@@@QAE?AW4TeamType@@W41@@Z ENDP ; CEncrypt<enum TeamType>::operator=
_TEXT	ENDS
PUBLIC	__$ArrayPad$
EXTRN	?LoadProperty@ioDummyChar@@UAEXAAVioINILoader@@@Z:PROC ; ioDummyChar::LoadProperty
; Function compile flags: /Ogsp
; File d:\lost saga for developer\youtube\tutorial\source\src\lsclient\ioownercontroldummy5.cpp
;	COMDAT ?LoadProperty@ioOwnerControlDummy5@@UAEXAAVioINILoader@@@Z
_TEXT	SEGMENT
__k$532001 = -24					; size = 16
__$ArrayPad$ = -4					; size = 4
_rkLoader$ = 8						; size = 4
?LoadProperty@ioOwnerControlDummy5@@UAEXAAVioINILoader@@@Z PROC ; ioOwnerControlDummy5::LoadProperty, COMDAT
; _this$ = ecx

; 19   : {

  00000	55		 push	 ebp
  00001	8b ec		 mov	 ebp, esp
  00003	83 ec 18	 sub	 esp, 24			; 00000018H
  00006	a1 00 00 00 00	 mov	 eax, DWORD PTR ___security_cookie
  0000b	33 c5		 xor	 eax, ebp
  0000d	89 45 fc	 mov	 DWORD PTR __$ArrayPad$[ebp], eax
  00010	56		 push	 esi
  00011	8b 75 08	 mov	 esi, DWORD PTR _rkLoader$[ebp]
  00014	57		 push	 edi

; 20   : 	ioDummyChar::LoadProperty( rkLoader );

  00015	56		 push	 esi
  00016	8b f9		 mov	 edi, ecx
  00018	e8 00 00 00 00	 call	 ?LoadProperty@ioDummyChar@@UAEXAAVioINILoader@@@Z ; ioDummyChar::LoadProperty

; 21   : 
; 22   : 	m_dwAttackTicTime = (DWORD)rkLoader.LoadInt_e( "attack_tic_time", 0 );

  0001d	6a 03		 push	 3
  0001f	c7 45 e8 8c 98
	9f 8b		 mov	 DWORD PTR __k$532001[ebp], -1952474996 ; 8b9f988cH
  00026	c7 45 ec 8e 87
	b4 9e		 mov	 DWORD PTR __k$532001[ebp+4], -1632335986 ; 9eb4878eH
  0002d	c7 45 f0 84 8f
	b4 9e		 mov	 DWORD PTR __k$532001[ebp+8], -1632333948 ; 9eb48f84H
  00034	8d 45 e8	 lea	 eax, DWORD PTR __k$532001[ebp]
  00037	c7 45 f4 84 81
	8e 00		 mov	 DWORD PTR __k$532001[ebp+12], 9339268 ; 008e8184H
  0003e	59		 pop	 ecx
$LL106@LoadProper:
  0003f	81 30 ed ec eb
	ea		 xor	 DWORD PTR [eax], -353637139 ; eaebecedH
  00045	83 c0 04	 add	 eax, 4
  00048	49		 dec	 ecx
  00049	75 f4		 jne	 SHORT $LL106@LoadProper
  0004b	6a 0c		 push	 12			; 0000000cH
  0004d	58		 pop	 eax
$LL103@LoadProper:
  0004e	8b c8		 mov	 ecx, eax
  00050	81 e1 03 00 00
	80		 and	 ecx, -2147483645	; 80000003H
  00056	79 05		 jns	 SHORT $LN113@LoadProper
  00058	49		 dec	 ecx
  00059	83 c9 fc	 or	 ecx, -4			; fffffffcH
  0005c	41		 inc	 ecx
$LN113@LoadProper:
  0005d	b2 ed		 mov	 dl, -19			; ffffffedH
  0005f	2a d1		 sub	 dl, cl
  00061	30 54 05 e8	 xor	 BYTE PTR __k$532001[ebp+eax], dl
  00065	40		 inc	 eax
  00066	83 f8 0f	 cmp	 eax, 15			; 0000000fH
  00069	7c e3		 jl	 SHORT $LL103@LoadProper
  0006b	6a 00		 push	 0
  0006d	8d 45 e8	 lea	 eax, DWORD PTR __k$532001[ebp]
  00070	50		 push	 eax
  00071	8b ce		 mov	 ecx, esi
  00073	ff 15 00 00 00
	00		 call	 DWORD PTR __imp_?LoadInt@ioINILoader@@QAEHPBDH@Z

; 23   : }

  00079	8b 4d fc	 mov	 ecx, DWORD PTR __$ArrayPad$[ebp]
  0007c	89 87 84 14 00
	00		 mov	 DWORD PTR [edi+5252], eax
  00082	5f		 pop	 edi
  00083	33 cd		 xor	 ecx, ebp
  00085	5e		 pop	 esi
  00086	e8 00 00 00 00	 call	 @__security_check_cookie@4
  0008b	c9		 leave
  0008c	c2 04 00	 ret	 4
?LoadProperty@ioOwnerControlDummy5@@UAEXAAVioINILoader@@@Z ENDP ; ioOwnerControlDummy5::LoadProperty
_TEXT	ENDS
PUBLIC	__real@bf800000
PUBLIC	__$ArrayPad$
PUBLIC	?ProcessStartState@ioOwnerControlDummy5@@IAEXXZ	; ioOwnerControlDummy5::ProcessStartState
EXTRN	__imp_?CalcDirectionQuaternion@ioMath@@SAXAAUD3DXQUATERNION@@ABUD3DXVECTOR3@@@Z:PROC
EXTRN	_D3DXQuaternionRotationYawPitchRoll@16:PROC
EXTRN	__imp_?ArrangeHead@ioMath@@SAMM@Z:PROC
EXTRN	__imp_?UNIT_Y@ioMath@@2UD3DXVECTOR3@@A:BYTE
EXTRN	_D3DXVec3Normalize@8:PROC
EXTRN	__imp_??D@YA?AUD3DXVECTOR3@@ABUD3DXQUATERNION@@ABU0@@Z:PROC
EXTRN	?GetOwner@ioDummyChar@@QBEPAVioBaseChar@@XZ:PROC ; ioDummyChar::GetOwner
EXTRN	?SetAttachWeapon@ioDummyChar@@IAEXXZ:PROC	; ioDummyChar::SetAttachWeapon
;	COMDAT __real@bf800000
; File c:\program files (x86)\microsoft directx sdk (june 2010)\include\d3dx9math.inl
CONST	SEGMENT
__real@bf800000 DD 0bf800000r			; -1
; Function compile flags: /Ogsp
; File d:\lost saga for developer\youtube\tutorial\source\src\lsclient\ioownercontroldummy5.cpp
CONST	ENDS
;	COMDAT ?ProcessStartState@ioOwnerControlDummy5@@IAEXXZ
_TEXT	SEGMENT
_qtRot$530799 = -92					; size = 16
_qtRotate$530797 = -76					; size = 16
_value$532162 = -57					; size = 1
_value$532166 = -56					; size = 4
_fYawR$530792 = -56					; size = 4
$T532108 = -56						; size = 4
_pOwner$ = -56						; size = 4
_vScale$530782 = -52					; size = 12
_vPos$530781 = -40					; size = 12
$T530800 = -28						; size = 12
$T530798 = -28						; size = 12
$T530784 = -28						; size = 12
_vDir$530783 = -16					; size = 12
__$ArrayPad$ = -4					; size = 4
?ProcessStartState@ioOwnerControlDummy5@@IAEXXZ PROC	; ioOwnerControlDummy5::ProcessStartState, COMDAT
; _this$ = ecx

; 52   : {

  00000	55		 push	 ebp
  00001	8b ec		 mov	 ebp, esp
  00003	83 ec 5c	 sub	 esp, 92			; 0000005cH
  00006	a1 00 00 00 00	 mov	 eax, DWORD PTR ___security_cookie
  0000b	33 c5		 xor	 eax, ebp
  0000d	89 45 fc	 mov	 DWORD PTR __$ArrayPad$[ebp], eax
  00010	53		 push	 ebx
  00011	8b d9		 mov	 ebx, ecx

; 53   : 	if ( m_bStartAttchWeapon )

  00013	80 bb 69 14 00
	00 00		 cmp	 BYTE PTR [ebx+5225], 0
  0001a	74 05		 je	 SHORT $LN6@ProcessSta

; 54   : 		SetAttachWeapon();

  0001c	e8 00 00 00 00	 call	 ?SetAttachWeapon@ioDummyChar@@IAEXXZ ; ioDummyChar::SetAttachWeapon
$LN6@ProcessSta:

; 55   : 
; 56   : 	ioBaseChar* pOwner = GetOwner();

  00021	8b cb		 mov	 ecx, ebx
  00023	e8 00 00 00 00	 call	 ?GetOwner@ioDummyChar@@QBEPAVioBaseChar@@XZ ; ioDummyChar::GetOwner
  00028	89 45 c8	 mov	 DWORD PTR _pOwner$[ebp], eax

; 57   : 	if( pOwner )

  0002b	85 c0		 test	 eax, eax
  0002d	0f 84 f9 02 00
	00		 je	 $LN5@ProcessSta

; 58   : 	{
; 59   : 		D3DXVECTOR3 vPos = pOwner->GetWorldPosition();

  00033	8b 10		 mov	 edx, DWORD PTR [eax]
  00035	56		 push	 esi
  00036	57		 push	 edi
  00037	8b c8		 mov	 ecx, eax
  00039	ff 52 70	 call	 DWORD PTR [edx+112]

; 60   : 		D3DXVECTOR3 vScale = pOwner->GetWorldScale();

  0003c	8b 4d c8	 mov	 ecx, DWORD PTR _pOwner$[ebp]
  0003f	8b f0		 mov	 esi, eax
  00041	8b 01		 mov	 eax, DWORD PTR [ecx]
  00043	8d 7d d8	 lea	 edi, DWORD PTR _vPos$530781[ebp]
  00046	a5		 movsd
  00047	a5		 movsd
  00048	a5		 movsd
  00049	ff 50 78	 call	 DWORD PTR [eax+120]

; 61   : 		D3DXVECTOR3 vDir = pOwner->GetTargetRot() * D3DXVECTOR3( 0.0f, 0.0f, -1.0f );

  0004c	0f 57 c0	 xorps	 xmm0, xmm0
  0004f	8b f0		 mov	 esi, eax
  00051	8d 7d cc	 lea	 edi, DWORD PTR _vScale$530782[ebp]
  00054	a5		 movsd
  00055	8d 45 e4	 lea	 eax, DWORD PTR $T530784[ebp]
  00058	50		 push	 eax
  00059	8b 45 c8	 mov	 eax, DWORD PTR _pOwner$[ebp]
  0005c	a5		 movsd
  0005d	05 a4 06 00 00	 add	 eax, 1700		; 000006a4H
  00062	50		 push	 eax
  00063	8d 45 f0	 lea	 eax, DWORD PTR _vDir$530783[ebp]
  00066	a5		 movsd
  00067	8b 35 00 00 00
	00		 mov	 esi, DWORD PTR __imp_??D@YA?AUD3DXVECTOR3@@ABUD3DXQUATERNION@@ABU0@@Z
  0006d	f3 0f 11 45 e4	 movss	 DWORD PTR $T530784[ebp], xmm0
  00072	f3 0f 11 45 e8	 movss	 DWORD PTR $T530784[ebp+4], xmm0
  00077	f3 0f 10 05 00
	00 00 00	 movss	 xmm0, DWORD PTR __real@bf800000
  0007f	50		 push	 eax
  00080	f3 0f 11 45 ec	 movss	 DWORD PTR $T530784[ebp+8], xmm0
  00085	ff d6		 call	 esi
  00087	83 c4 0c	 add	 esp, 12			; 0000000cH

; 62   : 		D3DXVec3Normalize( &vDir, &vDir );

  0008a	8d 45 f0	 lea	 eax, DWORD PTR _vDir$530783[ebp]
  0008d	50		 push	 eax
  0008e	50		 push	 eax
  0008f	e8 00 00 00 00	 call	 _D3DXVec3Normalize@8

; 63   : 
; 64   : 		D3DXVECTOR3 vSide;
; 65   : 		D3DXVec3Cross( &vSide, &vDir, &ioMath::UNIT_Y );

  00094	f3 0f 10 5d f4	 movss	 xmm3, DWORD PTR _vDir$530783[ebp+4]
  00099	a1 00 00 00 00	 mov	 eax, DWORD PTR __imp_?UNIT_Y@ioMath@@2UD3DXVECTOR3@@A
  0009e	f3 0f 10 40 08	 movss	 xmm0, DWORD PTR [eax+8]
  000a3	f3 0f 10 48 04	 movss	 xmm1, DWORD PTR [eax+4]
  000a8	f3 0f 10 65 f8	 movss	 xmm4, DWORD PTR _vDir$530783[ebp+8]
  000ad	f3 0f 10 6d f8	 movss	 xmm5, DWORD PTR _vDir$530783[ebp+8]
  000b2	0f 5a d0	 cvtps2pd xmm2, xmm0
  000b5	0f 5a db	 cvtps2pd xmm3, xmm3
  000b8	f2 0f 59 d3	 mulsd	 xmm2, xmm3
  000bc	0f 5a e4	 cvtps2pd xmm4, xmm4
  000bf	0f 5a ed	 cvtps2pd xmm5, xmm5
  000c2	0f 5a c0	 cvtps2pd xmm0, xmm0
  000c5	0f 5a d9	 cvtps2pd xmm3, xmm1
  000c8	f2 0f 59 dc	 mulsd	 xmm3, xmm4
  000cc	f2 0f 5c d3	 subsd	 xmm2, xmm3
  000d0	0f 57 db	 xorps	 xmm3, xmm3
  000d3	66 0f 5a da	 cvtpd2ps xmm3, xmm2
  000d7	f3 0f 10 10	 movss	 xmm2, DWORD PTR [eax]
  000db	0f 5a e2	 cvtps2pd xmm4, xmm2
  000de	f2 0f 59 e5	 mulsd	 xmm4, xmm5
  000e2	f3 0f 10 6d f0	 movss	 xmm5, DWORD PTR _vDir$530783[ebp]
  000e7	0f 5a ed	 cvtps2pd xmm5, xmm5
  000ea	f2 0f 59 c5	 mulsd	 xmm0, xmm5

; 66   : 
; 67   : 		vPos += vDir * m_fFrontOffset;

  000ee	f3 0f 10 6d f0	 movss	 xmm5, DWORD PTR _vDir$530783[ebp]
  000f3	f2 0f 5c e0	 subsd	 xmm4, xmm0
  000f7	0f 5a ed	 cvtps2pd xmm5, xmm5
  000fa	66 0f 5a e4	 cvtpd2ps xmm4, xmm4
  000fe	0f 5a c1	 cvtps2pd xmm0, xmm1
  00101	f3 0f 10 4d f0	 movss	 xmm1, DWORD PTR _vDir$530783[ebp]
  00106	0f 5a c9	 cvtps2pd xmm1, xmm1
  00109	f2 0f 59 c1	 mulsd	 xmm0, xmm1
  0010d	0f 5a ca	 cvtps2pd xmm1, xmm2
  00110	f3 0f 10 55 f4	 movss	 xmm2, DWORD PTR _vDir$530783[ebp+4]
  00115	0f 5a d2	 cvtps2pd xmm2, xmm2
  00118	f2 0f 59 ca	 mulsd	 xmm1, xmm2
  0011c	f2 0f 5c c1	 subsd	 xmm0, xmm1
  00120	0f 57 c9	 xorps	 xmm1, xmm1
  00123	66 0f 5a c8	 cvtpd2ps xmm1, xmm0
  00127	f3 0f 10 83 28
	07 00 00	 movss	 xmm0, DWORD PTR [ebx+1832]
  0012f	0f 5a d0	 cvtps2pd xmm2, xmm0
  00132	f2 0f 59 d5	 mulsd	 xmm2, xmm5
  00136	f3 0f 10 6d f4	 movss	 xmm5, DWORD PTR _vDir$530783[ebp+4]
  0013b	66 0f 5a d2	 cvtpd2ps xmm2, xmm2
  0013f	0f 5a ed	 cvtps2pd xmm5, xmm5
  00142	0f 5a f0	 cvtps2pd xmm6, xmm0
  00145	f2 0f 59 ee	 mulsd	 xmm5, xmm6
  00149	f3 0f 10 75 f8	 movss	 xmm6, DWORD PTR _vDir$530783[ebp+8]
  0014e	0f 5a c0	 cvtps2pd xmm0, xmm0
  00151	0f 5a f6	 cvtps2pd xmm6, xmm6
  00154	f2 0f 59 f0	 mulsd	 xmm6, xmm0
  00158	0f 57 c0	 xorps	 xmm0, xmm0
  0015b	f2 0f 5a c6	 cvtsd2ss xmm0, xmm6
  0015f	f3 0f 10 75 d8	 movss	 xmm6, DWORD PTR _vPos$530781[ebp]
  00164	0f 5a f6	 cvtps2pd xmm6, xmm6
  00167	f3 0f 5a d2	 cvtss2sd xmm2, xmm2
  0016b	f2 0f 58 d6	 addsd	 xmm2, xmm6
  0016f	f3 0f 10 75 dc	 movss	 xmm6, DWORD PTR _vPos$530781[ebp+4]
  00174	f2 0f 5a ed	 cvtsd2ss xmm5, xmm5
  00178	0f 5a c0	 cvtps2pd xmm0, xmm0
  0017b	0f 5a f6	 cvtps2pd xmm6, xmm6
  0017e	f3 0f 5a ed	 cvtss2sd xmm5, xmm5
  00182	f2 0f 58 ee	 addsd	 xmm5, xmm6
  00186	f3 0f 10 75 e0	 movss	 xmm6, DWORD PTR _vPos$530781[ebp+8]
  0018b	f2 0f 5a ed	 cvtsd2ss xmm5, xmm5

; 68   : 		vPos.y += m_fHeightOffset;

  0018f	f3 0f 5a ed	 cvtss2sd xmm5, xmm5
  00193	0f 5a f6	 cvtps2pd xmm6, xmm6
  00196	f2 0f 58 f0	 addsd	 xmm6, xmm0
  0019a	f3 0f 10 83 2c
	07 00 00	 movss	 xmm0, DWORD PTR [ebx+1836]
  001a2	0f 5a c0	 cvtps2pd xmm0, xmm0
  001a5	f2 0f 58 c5	 addsd	 xmm0, xmm5
  001a9	66 0f 5a e8	 cvtpd2ps xmm5, xmm0

; 69   : 		vPos += vSide * m_fSideOffset;

  001ad	f3 0f 10 83 30
	07 00 00	 movss	 xmm0, DWORD PTR [ebx+1840]
  001b5	0f 5a f8	 cvtps2pd xmm7, xmm0

; 70   : 		SetWorldPosition( vPos );

  001b8	8b 03		 mov	 eax, DWORD PTR [ebx]
  001ba	0f 5a c9	 cvtps2pd xmm1, xmm1
  001bd	0f 5a db	 cvtps2pd xmm3, xmm3
  001c0	f2 0f 59 df	 mulsd	 xmm3, xmm7
  001c4	66 0f 5a d2	 cvtpd2ps xmm2, xmm2
  001c8	0f 5a f8	 cvtps2pd xmm7, xmm0
  001cb	0f 5a c0	 cvtps2pd xmm0, xmm0
  001ce	f2 0f 59 c8	 mulsd	 xmm1, xmm0
  001d2	0f 57 c0	 xorps	 xmm0, xmm0
  001d5	66 0f 5a c1	 cvtpd2ps xmm0, xmm1
  001d9	0f 57 c9	 xorps	 xmm1, xmm1
  001dc	f3 0f 5a d2	 cvtss2sd xmm2, xmm2
  001e0	66 0f 5a db	 cvtpd2ps xmm3, xmm3
  001e4	f3 0f 5a cb	 cvtss2sd xmm1, xmm3
  001e8	f2 0f 58 ca	 addsd	 xmm1, xmm2
  001ec	66 0f 5a c9	 cvtpd2ps xmm1, xmm1
  001f0	f3 0f 11 4d d8	 movss	 DWORD PTR _vPos$530781[ebp], xmm1
  001f5	0f 57 c9	 xorps	 xmm1, xmm1
  001f8	f3 0f 5a e4	 cvtss2sd xmm4, xmm4
  001fc	f2 0f 59 e7	 mulsd	 xmm4, xmm7
  00200	66 0f 5a e4	 cvtpd2ps xmm4, xmm4
  00204	f3 0f 5a cc	 cvtss2sd xmm1, xmm4
  00208	0f 5a d5	 cvtps2pd xmm2, xmm5
  0020b	f2 0f 58 ca	 addsd	 xmm1, xmm2
  0020f	66 0f 5a c9	 cvtpd2ps xmm1, xmm1
  00213	f3 0f 11 4d dc	 movss	 DWORD PTR _vPos$530781[ebp+4], xmm1
  00218	66 0f 5a f6	 cvtpd2ps xmm6, xmm6
  0021c	0f 5a c0	 cvtps2pd xmm0, xmm0
  0021f	0f 57 c9	 xorps	 xmm1, xmm1
  00222	8d 4d d8	 lea	 ecx, DWORD PTR _vPos$530781[ebp]
  00225	f3 0f 5a ce	 cvtss2sd xmm1, xmm6
  00229	f2 0f 58 c1	 addsd	 xmm0, xmm1
  0022d	51		 push	 ecx
  0022e	66 0f 5a c0	 cvtpd2ps xmm0, xmm0
  00232	8b cb		 mov	 ecx, ebx
  00234	f3 0f 11 45 e0	 movss	 DWORD PTR _vPos$530781[ebp+8], xmm0
  00239	ff 50 44	 call	 DWORD PTR [eax+68]

; 71   : 		SetWorldScale( vScale );

  0023c	8b 03		 mov	 eax, DWORD PTR [ebx]
  0023e	8d 4d cc	 lea	 ecx, DWORD PTR _vScale$530782[ebp]
  00241	51		 push	 ecx
  00242	8b cb		 mov	 ecx, ebx
  00244	ff 50 4c	 call	 DWORD PTR [eax+76]

; 72   : 		//    
; 73   : 		if( m_bKeepStartAngle && m_fStartAngle != 0.0f )

  00247	8d 45 c7	 lea	 eax, DWORD PTR _value$532162[ebp]
  0024a	50		 push	 eax
  0024b	8d 8b 78 06 00
	00		 lea	 ecx, DWORD PTR [ebx+1656]
  00251	e8 00 00 00 00	 call	 ?DecryptValueToPool@?$CEncrypt@_N@@QAEXPA_N@Z ; CEncrypt<bool>::DecryptValueToPool
  00256	80 7d c7 00	 cmp	 BYTE PTR _value$532162[ebp], 0
  0025a	0f 84 80 00 00
	00		 je	 $LN4@ProcessSta
  00260	0f 57 c0	 xorps	 xmm0, xmm0
  00263	8d 45 c8	 lea	 eax, DWORD PTR $T532108[ebp]
  00266	50		 push	 eax
  00267	8d 8b 48 06 00
	00		 lea	 ecx, DWORD PTR [ebx+1608]
  0026d	f3 0f 11 45 c8	 movss	 DWORD PTR $T532108[ebp], xmm0
  00272	e8 00 00 00 00	 call	 ??9?$CEncrypt@M@@QAE_NABM@Z ; CEncrypt<float>::operator!=
  00277	84 c0		 test	 al, al
  00279	74 65		 je	 SHORT $LN4@ProcessSta

; 74   : 		{
; 75   : 			float fYawD = ioMath::ArrangeHead( m_fStartAngle );

  0027b	8d 45 c8	 lea	 eax, DWORD PTR _value$532166[ebp]
  0027e	50		 push	 eax
  0027f	8d 8b 48 06 00
	00		 lea	 ecx, DWORD PTR [ebx+1608]
  00285	e8 00 00 00 00	 call	 ?DecryptValueToPool@?$CEncrypt@M@@QAEXPAM@Z ; CEncrypt<float>::DecryptValueToPool
  0028a	f3 0f 10 45 c8	 movss	 xmm0, DWORD PTR _value$532166[ebp]
  0028f	51		 push	 ecx
  00290	f3 0f 11 04 24	 movss	 DWORD PTR [esp], xmm0
  00295	ff 15 00 00 00
	00		 call	 DWORD PTR __imp_?ArrangeHead@ioMath@@SAMM@Z

; 76   : 			float fYawR = DEGtoRAD( fYawD );

  0029b	dc 0d 00 00 00
	00		 fmul	 QWORD PTR __real@3f91df46a2526c7a

; 77   : 			D3DXQUATERNION qtRotate;
; 78   : 			D3DXQuaternionRotationYawPitchRoll( &qtRotate, fYawR, 0.0f, 0.0f );

  002a1	0f 57 c0	 xorps	 xmm0, xmm0
  002a4	f3 0f 11 04 24	 movss	 DWORD PTR [esp], xmm0
  002a9	51		 push	 ecx
  002aa	d9 5d c8	 fstp	 DWORD PTR _fYawR$530792[ebp]
  002ad	51		 push	 ecx
  002ae	f3 0f 11 44 24
	04		 movss	 DWORD PTR [esp+4], xmm0
  002b4	f3 0f 10 45 c8	 movss	 xmm0, DWORD PTR _fYawR$530792[ebp]
  002b9	8d 45 b4	 lea	 eax, DWORD PTR _qtRotate$530797[ebp]
  002bc	f3 0f 11 04 24	 movss	 DWORD PTR [esp], xmm0
  002c1	50		 push	 eax
  002c2	e8 00 00 00 00	 call	 _D3DXQuaternionRotationYawPitchRoll@16

; 79   : 			vDir = qtRotate * vDir;					

  002c7	8d 45 f0	 lea	 eax, DWORD PTR _vDir$530783[ebp]
  002ca	50		 push	 eax
  002cb	8d 45 b4	 lea	 eax, DWORD PTR _qtRotate$530797[ebp]
  002ce	50		 push	 eax
  002cf	8d 45 e4	 lea	 eax, DWORD PTR $T530798[ebp]
  002d2	50		 push	 eax
  002d3	ff d6		 call	 esi
  002d5	8b f0		 mov	 esi, eax
  002d7	8d 7d f0	 lea	 edi, DWORD PTR _vDir$530783[ebp]
  002da	a5		 movsd
  002db	a5		 movsd
  002dc	83 c4 0c	 add	 esp, 12			; 0000000cH
  002df	a5		 movsd
$LN4@ProcessSta:

; 80   : 		}
; 81   : 
; 82   : 		D3DXQUATERNION qtRot;
; 83   : 		ioMath::CalcDirectionQuaternion( qtRot, -vDir );

  002e0	f3 0f 10 05 00
	00 00 00	 movss	 xmm0, DWORD PTR __mask@@NegFloat@
  002e8	f3 0f 10 4d f0	 movss	 xmm1, DWORD PTR _vDir$530783[ebp]
  002ed	0f 57 c8	 xorps	 xmm1, xmm0
  002f0	f3 0f 11 4d e4	 movss	 DWORD PTR $T530800[ebp], xmm1
  002f5	f3 0f 10 4d f4	 movss	 xmm1, DWORD PTR _vDir$530783[ebp+4]
  002fa	0f 57 c8	 xorps	 xmm1, xmm0
  002fd	8d 45 e4	 lea	 eax, DWORD PTR $T530800[ebp]
  00300	50		 push	 eax
  00301	f3 0f 11 4d e8	 movss	 DWORD PTR $T530800[ebp+4], xmm1
  00306	f3 0f 10 4d f8	 movss	 xmm1, DWORD PTR _vDir$530783[ebp+8]
  0030b	8d 45 a4	 lea	 eax, DWORD PTR _qtRot$530799[ebp]
  0030e	0f 57 c8	 xorps	 xmm1, xmm0
  00311	50		 push	 eax
  00312	f3 0f 11 4d ec	 movss	 DWORD PTR $T530800[ebp+8], xmm1
  00317	ff 15 00 00 00
	00		 call	 DWORD PTR __imp_?CalcDirectionQuaternion@ioMath@@SAXAAUD3DXQUATERNION@@ABUD3DXVECTOR3@@@Z

; 84   : 		SetWorldOrientation( qtRot );

  0031d	8b 03		 mov	 eax, DWORD PTR [ebx]
  0031f	59		 pop	 ecx
  00320	59		 pop	 ecx
  00321	8d 4d a4	 lea	 ecx, DWORD PTR _qtRot$530799[ebp]
  00324	51		 push	 ecx
  00325	8b cb		 mov	 ecx, ebx
  00327	ff 50 48	 call	 DWORD PTR [eax+72]
  0032a	5f		 pop	 edi
  0032b	5e		 pop	 esi
$LN5@ProcessSta:

; 85   : 	}
; 86   : 
; 87   : 	DWORD dwCurTime = FRAMEGETTIME();

  0032c	ff 15 00 00 00
	00		 call	 DWORD PTR __imp_?GetSingleton@ioFrameTimer@@SAAAV1@XZ
  00332	8b c8		 mov	 ecx, eax
  00334	ff 15 00 00 00
	00		 call	 DWORD PTR __imp_?GetLoopSec@ioFrameTimer@@QBEKXZ

; 88   : 	if( m_dwStartAniEndTime == 0 || m_dwStartAniEndTime <  dwCurTime )

  0033a	8b 8b e4 06 00
	00		 mov	 ecx, DWORD PTR [ebx+1764]
  00340	85 c9		 test	 ecx, ecx
  00342	74 04		 je	 SHORT $LN2@ProcessSta
  00344	3b c8		 cmp	 ecx, eax
  00346	73 1e		 jae	 SHORT $LN3@ProcessSta
$LN2@ProcessSta:

; 89   : 	{
; 90   : 		if ( m_dwAttackTicTime != 0 )

  00348	8b 8b 84 14 00
	00		 mov	 ecx, DWORD PTR [ebx+5252]
  0034e	85 c9		 test	 ecx, ecx
  00350	74 08		 je	 SHORT $LN1@ProcessSta

; 91   : 			m_dwAttackStartTime = dwCurTime + m_dwAttackTicTime;

  00352	03 c8		 add	 ecx, eax
  00354	89 8b 80 14 00
	00		 mov	 DWORD PTR [ebx+5248], ecx
$LN1@ProcessSta:

; 92   : 
; 93   : 		SetDelayState( false );

  0035a	8b 03		 mov	 eax, DWORD PTR [ebx]
  0035c	6a 00		 push	 0
  0035e	8b cb		 mov	 ecx, ebx
  00360	ff 90 14 01 00
	00		 call	 DWORD PTR [eax+276]
$LN3@ProcessSta:

; 94   : 		return;
; 95   : 	}
; 96   : }

  00366	8b 4d fc	 mov	 ecx, DWORD PTR __$ArrayPad$[ebp]
  00369	33 cd		 xor	 ecx, ebp
  0036b	5b		 pop	 ebx
  0036c	e8 00 00 00 00	 call	 @__security_check_cookie@4
  00371	c9		 leave
  00372	c3		 ret	 0
?ProcessStartState@ioOwnerControlDummy5@@IAEXXZ ENDP	; ioOwnerControlDummy5::ProcessStartState
_TEXT	ENDS
PUBLIC	__$ArrayPad$
EXTRN	??1SP2Packet@@UAE@XZ:PROC			; SP2Packet::~SP2Packet
EXTRN	??6SP2Packet@@QAEAAV0@ABUD3DXVECTOR3@@@Z:PROC	; SP2Packet::operator<<
EXTRN	??6SP2Packet@@QAEAAV0@_N@Z:PROC			; SP2Packet::operator<<
EXTRN	?IsDefenseKeyDown@ioBaseChar@@QBE_NXZ:PROC	; ioBaseChar::IsDefenseKeyDown
EXTRN	?IsJumpKeyDown@ioBaseChar@@QBE_NXZ:PROC		; ioBaseChar::IsJumpKeyDown
EXTRN	?CheckCurDirKey@ioBaseChar@@QAE?AW4DirKeyInput@ioUserKeyInput@@XZ:PROC ; ioBaseChar::CheckCurDirKey
EXTRN	?SendToAllPlayingUser@P2PNetwork@@YAXAAVSP2Packet@@PAVioBaseChar@@@Z:PROC ; P2PNetwork::SendToAllPlayingUser
EXTRN	??6SP2Packet@@QAEAAV0@H@Z:PROC			; SP2Packet::operator<<
EXTRN	??6SP2Packet@@QAEAAV0@ABVioHashString@@@Z:PROC	; SP2Packet::operator<<
EXTRN	??0SP2Packet@@QAE@K@Z:PROC			; SP2Packet::SP2Packet
EXTRN	__chkstk:PROC
;	COMDAT xdata$x
; File d:\lost saga for developer\youtube\tutorial\source\src\lsclient\encryptvalue.h
xdata$x	SEGMENT
__unwindtable$?ProcessDelayState@ioOwnerControlDummy5@@MAEXM@Z DD 0ffffffffH
	DD	FLAT:__unwindfunclet$?ProcessDelayState@ioOwnerControlDummy5@@MAEXM@Z$0
	DD	0ffffffffH
	DD	FLAT:__unwindfunclet$?ProcessDelayState@ioOwnerControlDummy5@@MAEXM@Z$1
__ehfuncinfo$?ProcessDelayState@ioOwnerControlDummy5@@MAEXM@Z DD 019930522H
	DD	02H
	DD	FLAT:__unwindtable$?ProcessDelayState@ioOwnerControlDummy5@@MAEXM@Z
	DD	2 DUP(00H)
	DD	2 DUP(00H)
	DD	00H
	DD	01H
; Function compile flags: /Ogsp
; File d:\lost saga for developer\youtube\tutorial\source\src\lsclient\ioownercontroldummy5.cpp
xdata$x	ENDS
;	COMDAT ?ProcessDelayState@ioOwnerControlDummy5@@MAEXM@Z
_TEXT	SEGMENT
_dwCurTime$ = -65608					; size = 4
_value$532201 = -65601					; size = 1
_kPacket$530815 = -65600				; size = 32792
_kPacket$530824 = -32808				; size = 32792
__$ArrayPad$ = -16					; size = 4
__$EHRec$ = -12						; size = 12
_fTimePerSec$ = 8					; size = 4
?ProcessDelayState@ioOwnerControlDummy5@@MAEXM@Z PROC	; ioOwnerControlDummy5::ProcessDelayState, COMDAT
; _this$ = ecx

; 99   : {

  00000	55		 push	 ebp
  00001	8b ec		 mov	 ebp, esp
  00003	6a ff		 push	 -1
  00005	68 00 00 00 00	 push	 __ehhandler$?ProcessDelayState@ioOwnerControlDummy5@@MAEXM@Z
  0000a	64 a1 00 00 00
	00		 mov	 eax, DWORD PTR fs:0
  00010	50		 push	 eax
  00011	b8 3c 00 01 00	 mov	 eax, 65596		; 0001003cH
  00016	e8 00 00 00 00	 call	 __chkstk
  0001b	a1 00 00 00 00	 mov	 eax, DWORD PTR ___security_cookie
  00020	33 c5		 xor	 eax, ebp
  00022	89 45 f0	 mov	 DWORD PTR __$ArrayPad$[ebp], eax
  00025	53		 push	 ebx
  00026	56		 push	 esi
  00027	57		 push	 edi
  00028	50		 push	 eax
  00029	8d 45 f4	 lea	 eax, DWORD PTR __$EHRec$[ebp]
  0002c	64 a3 00 00 00
	00		 mov	 DWORD PTR fs:0, eax
  00032	8b f1		 mov	 esi, ecx

; 100  : 	ioBaseChar *pOwner = GetOwner();

  00034	e8 00 00 00 00	 call	 ?GetOwner@ioDummyChar@@QBEPAVioBaseChar@@XZ ; ioDummyChar::GetOwner
  00039	8b f8		 mov	 edi, eax

; 101  : 
; 102  : 	if( !pOwner )

  0003b	33 db		 xor	 ebx, ebx
  0003d	3b fb		 cmp	 edi, ebx
  0003f	0f 84 0a 02 00
	00		 je	 $LN1@ProcessDel

; 103  : 		return;
; 104  : 
; 105  : 	DWORD dwCurTime = FRAMEGETTIME();

  00045	ff 15 00 00 00
	00		 call	 DWORD PTR __imp_?GetSingleton@ioFrameTimer@@SAAAV1@XZ
  0004b	8b c8		 mov	 ecx, eax
  0004d	ff 15 00 00 00
	00		 call	 DWORD PTR __imp_?GetLoopSec@ioFrameTimer@@QBEKXZ
  00053	89 85 b8 ff fe
	ff		 mov	 DWORD PTR _dwCurTime$[ebp], eax

; 106  : 	if( pOwner->IsNeedProcess() )

  00059	8b 07		 mov	 eax, DWORD PTR [edi]
  0005b	8b cf		 mov	 ecx, edi
  0005d	ff 90 00 01 00
	00		 call	 DWORD PTR [eax+256]
  00063	84 c0		 test	 al, al
  00065	0f 84 e4 01 00
	00		 je	 $LN1@ProcessDel

; 107  : 	{
; 108  : 		if ( m_dwAttackTicTime > 0 && m_dwAttackStartTime > 0 && m_dwAttackStartTime < dwCurTime )

  0006b	39 9e 84 14 00
	00		 cmp	 DWORD PTR [esi+5252], ebx
  00071	0f 86 a1 00 00
	00		 jbe	 $LN7@ProcessDel
  00077	8b 8e 80 14 00
	00		 mov	 ecx, DWORD PTR [esi+5248]
  0007d	3b cb		 cmp	 ecx, ebx
  0007f	0f 86 93 00 00
	00		 jbe	 $LN7@ProcessDel
  00085	3b 8d b8 ff fe
	ff		 cmp	 ecx, DWORD PTR _dwCurTime$[ebp]
  0008b	0f 83 87 00 00
	00		 jae	 $LN7@ProcessDel

; 109  : 		{
; 110  : 			m_dwAttackStartTime = 0;
; 111  : 			m_iReserveAttackCode = m_iControlNormalAttack;

  00091	8b 86 68 0d 00
	00		 mov	 eax, DWORD PTR [esi+3432]
  00097	89 86 74 05 00
	00		 mov	 DWORD PTR [esi+1396], eax

; 112  : 			SetAttackState();

  0009d	8b 06		 mov	 eax, DWORD PTR [esi]
  0009f	8b ce		 mov	 ecx, esi
  000a1	89 9e 80 14 00
	00		 mov	 DWORD PTR [esi+5248], ebx
  000a7	ff 90 24 01 00
	00		 call	 DWORD PTR [eax+292]

; 113  : 			if( pOwner->IsNeedSendNetwork() )

  000ad	8b 07		 mov	 eax, DWORD PTR [edi]
  000af	8b cf		 mov	 ecx, edi
  000b1	ff 90 04 01 00
	00		 call	 DWORD PTR [eax+260]
  000b7	84 c0		 test	 al, al
  000b9	74 5d		 je	 SHORT $LN7@ProcessDel

; 114  : 			{
; 115  : 				SP2Packet kPacket( CUPK_DUMMY_CHAR_SYNC );

  000bb	68 21 42 00 00	 push	 16929			; 00004221H
  000c0	8d 8d c0 ff fe
	ff		 lea	 ecx, DWORD PTR _kPacket$530815[ebp]
  000c6	e8 00 00 00 00	 call	 ??0SP2Packet@@QAE@K@Z	; SP2Packet::SP2Packet

; 116  : 				kPacket << m_OwnerName;

  000cb	8d 86 cc 01 00
	00		 lea	 eax, DWORD PTR [esi+460]
  000d1	50		 push	 eax
  000d2	8d 8d c0 ff fe
	ff		 lea	 ecx, DWORD PTR _kPacket$530815[ebp]
  000d8	89 5d fc	 mov	 DWORD PTR __$EHRec$[ebp+8], ebx
  000db	e8 00 00 00 00	 call	 ??6SP2Packet@@QAEAAV0@ABVioHashString@@@Z ; SP2Packet::operator<<

; 117  : 				kPacket << m_iCreateIndex;

  000e0	ff b6 dc 01 00
	00		 push	 DWORD PTR [esi+476]
  000e6	8d 8d c0 ff fe
	ff		 lea	 ecx, DWORD PTR _kPacket$530815[ebp]
  000ec	e8 00 00 00 00	 call	 ??6SP2Packet@@QAEAAV0@H@Z ; SP2Packet::operator<<

; 118  : 				kPacket << DUMMY_CHAR_NORMAL_ATT;

  000f1	6a 06		 push	 6
  000f3	8d 8d c0 ff fe
	ff		 lea	 ecx, DWORD PTR _kPacket$530815[ebp]
  000f9	e8 00 00 00 00	 call	 ??6SP2Packet@@QAEAAV0@H@Z ; SP2Packet::operator<<

; 119  : 				P2PNetwork::SendToAllPlayingUser( kPacket );

  000fe	8d 85 c0 ff fe
	ff		 lea	 eax, DWORD PTR _kPacket$530815[ebp]
  00104	53		 push	 ebx
  00105	50		 push	 eax
  00106	e8 00 00 00 00	 call	 ?SendToAllPlayingUser@P2PNetwork@@YAXAAVSP2Packet@@PAVioBaseChar@@@Z ; P2PNetwork::SendToAllPlayingUser
  0010b	59		 pop	 ecx
  0010c	59		 pop	 ecx

; 120  : 				return;

  0010d	8d 8d c0 ff fe
	ff		 lea	 ecx, DWORD PTR _kPacket$530815[ebp]
  00113	e9 2e 01 00 00	 jmp	 $LN21@ProcessDel
$LN7@ProcessDel:

; 121  : 			}
; 122  : 		}
; 123  : 		bool bChange = false;
; 124  : 
; 125  : 		//  
; 126  : 		ioUserKeyInput::DirKeyInput eNewDirKey = pOwner->CheckCurDirKey();

  00118	8b cf		 mov	 ecx, edi
  0011a	e8 00 00 00 00	 call	 ?CheckCurDirKey@ioBaseChar@@QAE?AW4DirKeyInput@ioUserKeyInput@@XZ ; ioBaseChar::CheckCurDirKey

; 127  : 		if( eNewDirKey != m_CurDirKey )

  0011f	3b 86 5c 0d 00
	00		 cmp	 eax, DWORD PTR [esi+3420]
  00125	74 08		 je	 SHORT $LN18@ProcessDel

; 128  : 		{
; 129  : 			bChange = true;
; 130  : 			m_CurDirKey = eNewDirKey;

  00127	89 86 5c 0d 00
	00		 mov	 DWORD PTR [esi+3420], eax

; 131  : 		}
; 132  : 
; 133  : 		// Up 
; 134  : 		if( !bChange && !m_bSetDownKey )

  0012d	eb 5c		 jmp	 SHORT $LN2@ProcessDel
$LN18@ProcessDel:
  0012f	38 9e 59 0d 00
	00		 cmp	 BYTE PTR [esi+3417], bl
  00135	75 14		 jne	 SHORT $LN19@ProcessDel

; 135  : 		{
; 136  : 			if( pOwner->IsJumpKeyDown() )

  00137	8b cf		 mov	 ecx, edi
  00139	e8 00 00 00 00	 call	 ?IsJumpKeyDown@ioBaseChar@@QBE_NXZ ; ioBaseChar::IsJumpKeyDown
  0013e	84 c0		 test	 al, al
  00140	74 09		 je	 SHORT $LN19@ProcessDel

; 137  : 			{
; 138  : 				bChange = true;
; 139  : 				m_bSetUpKey = true;

  00142	c6 86 58 0d 00
	00 01		 mov	 BYTE PTR [esi+3416], 1

; 140  : 			}
; 141  : 		}
; 142  : 
; 143  : 		// Down 
; 144  : 		if( !bChange && !m_bSetUpKey && !m_bAutoDescent )

  00149	eb 40		 jmp	 SHORT $LN2@ProcessDel
$LN19@ProcessDel:
  0014b	38 9e 58 0d 00
	00		 cmp	 BYTE PTR [esi+3416], bl
  00151	0f 85 f8 00 00
	00		 jne	 $LN1@ProcessDel
  00157	8d 85 bf ff fe
	ff		 lea	 eax, DWORD PTR _value$532201[ebp]
  0015d	50		 push	 eax
  0015e	8d 8e b0 0d 00
	00		 lea	 ecx, DWORD PTR [esi+3504]
  00164	e8 00 00 00 00	 call	 ?DecryptValueToPool@?$CEncrypt@_N@@QAEXPA_N@Z ; CEncrypt<bool>::DecryptValueToPool
  00169	38 9d bf ff fe
	ff		 cmp	 BYTE PTR _value$532201[ebp], bl
  0016f	0f 85 da 00 00
	00		 jne	 $LN1@ProcessDel

; 145  : 		{
; 146  : 			if( pOwner->IsDefenseKeyDown() )

  00175	8b cf		 mov	 ecx, edi
  00177	e8 00 00 00 00	 call	 ?IsDefenseKeyDown@ioBaseChar@@QBE_NXZ ; ioBaseChar::IsDefenseKeyDown
  0017c	84 c0		 test	 al, al
  0017e	0f 84 cb 00 00
	00		 je	 $LN1@ProcessDel

; 147  : 			{
; 148  : 				bChange = true;
; 149  : 				m_bSetDownKey = true;

  00184	c6 86 59 0d 00
	00 01		 mov	 BYTE PTR [esi+3417], 1
$LN2@ProcessDel:

; 150  : 			}
; 151  : 		}
; 152  : 
; 153  : 		if( bChange )
; 154  : 		{
; 155  : 			SP2Packet kPacket( CUPK_DUMMY_CHAR_SYNC );

  0018b	68 21 42 00 00	 push	 16929			; 00004221H
  00190	8d 8d d8 7f ff
	ff		 lea	 ecx, DWORD PTR _kPacket$530824[ebp]
  00196	e8 00 00 00 00	 call	 ??0SP2Packet@@QAE@K@Z	; SP2Packet::SP2Packet
  0019b	33 ff		 xor	 edi, edi

; 156  : 			kPacket << m_OwnerName;

  0019d	8d 86 cc 01 00
	00		 lea	 eax, DWORD PTR [esi+460]
  001a3	47		 inc	 edi
  001a4	50		 push	 eax
  001a5	8d 8d d8 7f ff
	ff		 lea	 ecx, DWORD PTR _kPacket$530824[ebp]
  001ab	89 7d fc	 mov	 DWORD PTR __$EHRec$[ebp+8], edi
  001ae	e8 00 00 00 00	 call	 ??6SP2Packet@@QAEAAV0@ABVioHashString@@@Z ; SP2Packet::operator<<

; 157  : 			kPacket << m_iCreateIndex;

  001b3	ff b6 dc 01 00
	00		 push	 DWORD PTR [esi+476]
  001b9	8d 8d d8 7f ff
	ff		 lea	 ecx, DWORD PTR _kPacket$530824[ebp]
  001bf	e8 00 00 00 00	 call	 ??6SP2Packet@@QAEAAV0@H@Z ; SP2Packet::operator<<

; 158  : 			kPacket << DUMMY_CHAR_KEY_CHANGE;

  001c4	6a 05		 push	 5
  001c6	8d 8d d8 7f ff
	ff		 lea	 ecx, DWORD PTR _kPacket$530824[ebp]
  001cc	e8 00 00 00 00	 call	 ??6SP2Packet@@QAEAAV0@H@Z ; SP2Packet::operator<<

; 159  : 			kPacket << (int)m_CurDirKey;

  001d1	ff b6 5c 0d 00
	00		 push	 DWORD PTR [esi+3420]
  001d7	8d 8d d8 7f ff
	ff		 lea	 ecx, DWORD PTR _kPacket$530824[ebp]
  001dd	e8 00 00 00 00	 call	 ??6SP2Packet@@QAEAAV0@H@Z ; SP2Packet::operator<<

; 160  : 			kPacket << m_bSetUpKey;

  001e2	0f b6 86 58 0d
	00 00		 movzx	 eax, BYTE PTR [esi+3416]
  001e9	50		 push	 eax
  001ea	8d 8d d8 7f ff
	ff		 lea	 ecx, DWORD PTR _kPacket$530824[ebp]
  001f0	e8 00 00 00 00	 call	 ??6SP2Packet@@QAEAAV0@_N@Z ; SP2Packet::operator<<

; 161  : 			kPacket << m_bSetDownKey;

  001f5	0f b6 86 59 0d
	00 00		 movzx	 eax, BYTE PTR [esi+3417]
  001fc	50		 push	 eax
  001fd	8d 8d d8 7f ff
	ff		 lea	 ecx, DWORD PTR _kPacket$530824[ebp]
  00203	e8 00 00 00 00	 call	 ??6SP2Packet@@QAEAAV0@_N@Z ; SP2Packet::operator<<

; 162  : 			kPacket << true;			// setmove...

  00208	57		 push	 edi
  00209	8d 8d d8 7f ff
	ff		 lea	 ecx, DWORD PTR _kPacket$530824[ebp]
  0020f	e8 00 00 00 00	 call	 ??6SP2Packet@@QAEAAV0@_N@Z ; SP2Packet::operator<<

; 163  : 			kPacket << GetWorldPosition();

  00214	8b 06		 mov	 eax, DWORD PTR [esi]
  00216	8b ce		 mov	 ecx, esi
  00218	ff 50 70	 call	 DWORD PTR [eax+112]
  0021b	50		 push	 eax
  0021c	8d 8d d8 7f ff
	ff		 lea	 ecx, DWORD PTR _kPacket$530824[ebp]
  00222	e8 00 00 00 00	 call	 ??6SP2Packet@@QAEAAV0@ABUD3DXVECTOR3@@@Z ; SP2Packet::operator<<

; 164  : 			P2PNetwork::SendToAllPlayingUser( kPacket );

  00227	8d 85 d8 7f ff
	ff		 lea	 eax, DWORD PTR _kPacket$530824[ebp]
  0022d	53		 push	 ebx
  0022e	50		 push	 eax
  0022f	e8 00 00 00 00	 call	 ?SendToAllPlayingUser@P2PNetwork@@YAXAAVSP2Packet@@PAVioBaseChar@@@Z ; P2PNetwork::SendToAllPlayingUser

; 165  : 			SetMoveState();		

  00234	8b 06		 mov	 eax, DWORD PTR [esi]
  00236	59		 pop	 ecx
  00237	59		 pop	 ecx
  00238	8b ce		 mov	 ecx, esi
  0023a	ff 90 18 01 00
	00		 call	 DWORD PTR [eax+280]

; 166  : 		}

  00240	8d 8d d8 7f ff
	ff		 lea	 ecx, DWORD PTR _kPacket$530824[ebp]
$LN21@ProcessDel:
  00246	83 4d fc ff	 or	 DWORD PTR __$EHRec$[ebp+8], -1
  0024a	e8 00 00 00 00	 call	 ??1SP2Packet@@UAE@XZ	; SP2Packet::~SP2Packet
$LN1@ProcessDel:

; 167  : 	}
; 168  : }

  0024f	8b 4d f4	 mov	 ecx, DWORD PTR __$EHRec$[ebp]
  00252	64 89 0d 00 00
	00 00		 mov	 DWORD PTR fs:0, ecx
  00259	59		 pop	 ecx
  0025a	5f		 pop	 edi
  0025b	5e		 pop	 esi
  0025c	5b		 pop	 ebx
  0025d	8b 4d f0	 mov	 ecx, DWORD PTR __$ArrayPad$[ebp]
  00260	33 cd		 xor	 ecx, ebp
  00262	e8 00 00 00 00	 call	 @__security_check_cookie@4
  00267	c9		 leave
  00268	c2 04 00	 ret	 4
_TEXT	ENDS
;	COMDAT text$x
text$x	SEGMENT
__unwindfunclet$?ProcessDelayState@ioOwnerControlDummy5@@MAEXM@Z$0:
  00000	8d 8d c0 ff fe
	ff		 lea	 ecx, DWORD PTR _kPacket$530815[ebp]
  00006	e9 00 00 00 00	 jmp	 ??1SP2Packet@@UAE@XZ	; SP2Packet::~SP2Packet
__unwindfunclet$?ProcessDelayState@ioOwnerControlDummy5@@MAEXM@Z$1:
  0000b	8d 8d d8 7f ff
	ff		 lea	 ecx, DWORD PTR _kPacket$530824[ebp]
  00011	e9 00 00 00 00	 jmp	 ??1SP2Packet@@UAE@XZ	; SP2Packet::~SP2Packet
__ehhandler$?ProcessDelayState@ioOwnerControlDummy5@@MAEXM@Z:
  00016	8b 54 24 08	 mov	 edx, DWORD PTR [esp+8]
  0001a	8d 42 0c	 lea	 eax, DWORD PTR [edx+12]
  0001d	8b 8a b4 ff fe
	ff		 mov	 ecx, DWORD PTR [edx-65612]
  00023	33 c8		 xor	 ecx, eax
  00025	e8 00 00 00 00	 call	 @__security_check_cookie@4
  0002a	8b 4a fc	 mov	 ecx, DWORD PTR [edx-4]
  0002d	33 c8		 xor	 ecx, eax
  0002f	e8 00 00 00 00	 call	 @__security_check_cookie@4
  00034	b8 00 00 00 00	 mov	 eax, OFFSET __ehfuncinfo$?ProcessDelayState@ioOwnerControlDummy5@@MAEXM@Z
  00039	e9 00 00 00 00	 jmp	 ___CxxFrameHandler3
text$x	ENDS
?ProcessDelayState@ioOwnerControlDummy5@@MAEXM@Z ENDP	; ioOwnerControlDummy5::ProcessDelayState
PUBLIC	__$ArrayPad$
EXTRN	?CheckControlMove@ioDummyChar@@IAEXM@Z:PROC	; ioDummyChar::CheckControlMove
EXTRN	?CheckKeyInputChange@ioDummyChar@@IAEXXZ:PROC	; ioDummyChar::CheckKeyInputChange
EXTRN	?IsSettedDirection@ioBaseChar@@QBE_NXZ:PROC	; ioBaseChar::IsSettedDirection
;	COMDAT xdata$x
; File d:\lost saga for developer\youtube\tutorial\source\src\lsclient\encryptvalue.h
xdata$x	SEGMENT
__unwindtable$?ProcessMoveState@ioOwnerControlDummy5@@MAEXM@Z DD 0ffffffffH
	DD	FLAT:__unwindfunclet$?ProcessMoveState@ioOwnerControlDummy5@@MAEXM@Z$0
__ehfuncinfo$?ProcessMoveState@ioOwnerControlDummy5@@MAEXM@Z DD 019930522H
	DD	01H
	DD	FLAT:__unwindtable$?ProcessMoveState@ioOwnerControlDummy5@@MAEXM@Z
	DD	2 DUP(00H)
	DD	2 DUP(00H)
	DD	00H
	DD	01H
; Function compile flags: /Ogsp
; File d:\lost saga for developer\youtube\tutorial\source\src\lsclient\ioownercontroldummy5.cpp
xdata$x	ENDS
;	COMDAT ?ProcessMoveState@ioOwnerControlDummy5@@MAEXM@Z
_TEXT	SEGMENT
_value$532221 = -32809					; size = 1
_kPacket$530835 = -32808				; size = 32792
__$ArrayPad$ = -16					; size = 4
__$EHRec$ = -12						; size = 12
_fTimePerSec$ = 8					; size = 4
?ProcessMoveState@ioOwnerControlDummy5@@MAEXM@Z PROC	; ioOwnerControlDummy5::ProcessMoveState, COMDAT
; _this$ = ecx

; 171  : {

  00000	55		 push	 ebp
  00001	8b ec		 mov	 ebp, esp
  00003	6a ff		 push	 -1
  00005	68 00 00 00 00	 push	 __ehhandler$?ProcessMoveState@ioOwnerControlDummy5@@MAEXM@Z
  0000a	64 a1 00 00 00
	00		 mov	 eax, DWORD PTR fs:0
  00010	50		 push	 eax
  00011	b8 20 80 00 00	 mov	 eax, 32800		; 00008020H
  00016	e8 00 00 00 00	 call	 __chkstk
  0001b	a1 00 00 00 00	 mov	 eax, DWORD PTR ___security_cookie
  00020	33 c5		 xor	 eax, ebp
  00022	89 45 f0	 mov	 DWORD PTR __$ArrayPad$[ebp], eax
  00025	53		 push	 ebx
  00026	56		 push	 esi
  00027	57		 push	 edi
  00028	50		 push	 eax
  00029	8d 45 f4	 lea	 eax, DWORD PTR __$EHRec$[ebp]
  0002c	64 a3 00 00 00
	00		 mov	 DWORD PTR fs:0, eax
  00032	8b f1		 mov	 esi, ecx

; 172  : 	ioBaseChar *pOwner = GetOwner();

  00034	e8 00 00 00 00	 call	 ?GetOwner@ioDummyChar@@QBEPAVioBaseChar@@XZ ; ioDummyChar::GetOwner
  00039	8b d8		 mov	 ebx, eax

; 173  : 	if( !pOwner ) return;

  0003b	85 db		 test	 ebx, ebx
  0003d	0f 84 39 01 00
	00		 je	 $LN6@ProcessMov

; 174  : 
; 175  : 	if( pOwner->IsNeedProcess() )

  00043	8b 03		 mov	 eax, DWORD PTR [ebx]
  00045	8b cb		 mov	 ecx, ebx
  00047	ff 90 00 01 00
	00		 call	 DWORD PTR [eax+256]
  0004d	84 c0		 test	 al, al
  0004f	0f 84 0e 01 00
	00		 je	 $LN1@ProcessMov

; 176  : 	{
; 177  : 		if ( m_dwAttackTicTime > 0 && m_dwAttackStartTime > 0 && m_dwAttackStartTime < FRAMEGETTIME() )

  00055	83 be 84 14 00
	00 00		 cmp	 DWORD PTR [esi+5252], 0
  0005c	0f 86 b7 00 00
	00		 jbe	 $LN2@ProcessMov
  00062	83 be 80 14 00
	00 00		 cmp	 DWORD PTR [esi+5248], 0
  00069	0f 86 aa 00 00
	00		 jbe	 $LN2@ProcessMov
  0006f	ff 15 00 00 00
	00		 call	 DWORD PTR __imp_?GetSingleton@ioFrameTimer@@SAAAV1@XZ
  00075	8b c8		 mov	 ecx, eax
  00077	ff 15 00 00 00
	00		 call	 DWORD PTR __imp_?GetLoopSec@ioFrameTimer@@QBEKXZ
  0007d	39 86 80 14 00
	00		 cmp	 DWORD PTR [esi+5248], eax
  00083	0f 83 90 00 00
	00		 jae	 $LN2@ProcessMov

; 178  : 		{
; 179  : 			m_dwAttackStartTime = 0;
; 180  : 			m_iReserveAttackCode = m_iControlNormalAttack;

  00089	8b 86 68 0d 00
	00		 mov	 eax, DWORD PTR [esi+3432]
  0008f	83 a6 80 14 00
	00 00		 and	 DWORD PTR [esi+5248], 0
  00096	89 86 74 05 00
	00		 mov	 DWORD PTR [esi+1396], eax

; 181  : 			SetAttackState();

  0009c	8b 06		 mov	 eax, DWORD PTR [esi]
  0009e	8b ce		 mov	 ecx, esi
  000a0	ff 90 24 01 00
	00		 call	 DWORD PTR [eax+292]

; 182  : 			if( pOwner->IsNeedSendNetwork() )

  000a6	8b 03		 mov	 eax, DWORD PTR [ebx]
  000a8	8b cb		 mov	 ecx, ebx
  000aa	ff 90 04 01 00
	00		 call	 DWORD PTR [eax+260]
  000b0	84 c0		 test	 al, al
  000b2	74 65		 je	 SHORT $LN2@ProcessMov

; 183  : 			{
; 184  : 				SP2Packet kPacket( CUPK_DUMMY_CHAR_SYNC );

  000b4	68 21 42 00 00	 push	 16929			; 00004221H
  000b9	8d 8d d8 7f ff
	ff		 lea	 ecx, DWORD PTR _kPacket$530835[ebp]
  000bf	e8 00 00 00 00	 call	 ??0SP2Packet@@QAE@K@Z	; SP2Packet::SP2Packet
  000c4	83 65 fc 00	 and	 DWORD PTR __$EHRec$[ebp+8], 0

; 185  : 				kPacket << m_OwnerName;

  000c8	8d 86 cc 01 00
	00		 lea	 eax, DWORD PTR [esi+460]
  000ce	50		 push	 eax
  000cf	8d 8d d8 7f ff
	ff		 lea	 ecx, DWORD PTR _kPacket$530835[ebp]
  000d5	e8 00 00 00 00	 call	 ??6SP2Packet@@QAEAAV0@ABVioHashString@@@Z ; SP2Packet::operator<<

; 186  : 				kPacket << m_iCreateIndex;

  000da	ff b6 dc 01 00
	00		 push	 DWORD PTR [esi+476]
  000e0	8d 8d d8 7f ff
	ff		 lea	 ecx, DWORD PTR _kPacket$530835[ebp]
  000e6	e8 00 00 00 00	 call	 ??6SP2Packet@@QAEAAV0@H@Z ; SP2Packet::operator<<

; 187  : 				kPacket << DUMMY_CHAR_NORMAL_ATT;

  000eb	6a 06		 push	 6
  000ed	8d 8d d8 7f ff
	ff		 lea	 ecx, DWORD PTR _kPacket$530835[ebp]
  000f3	e8 00 00 00 00	 call	 ??6SP2Packet@@QAEAAV0@H@Z ; SP2Packet::operator<<

; 188  : 				P2PNetwork::SendToAllPlayingUser( kPacket );

  000f8	8d 85 d8 7f ff
	ff		 lea	 eax, DWORD PTR _kPacket$530835[ebp]
  000fe	6a 00		 push	 0
  00100	50		 push	 eax
  00101	e8 00 00 00 00	 call	 ?SendToAllPlayingUser@P2PNetwork@@YAXAAVSP2Packet@@PAVioBaseChar@@@Z ; P2PNetwork::SendToAllPlayingUser

; 189  : 				return;

  00106	83 4d fc ff	 or	 DWORD PTR __$EHRec$[ebp+8], -1
  0010a	59		 pop	 ecx
  0010b	59		 pop	 ecx
  0010c	8d 8d d8 7f ff
	ff		 lea	 ecx, DWORD PTR _kPacket$530835[ebp]
  00112	e8 00 00 00 00	 call	 ??1SP2Packet@@UAE@XZ	; SP2Packet::~SP2Packet
  00117	eb 63		 jmp	 SHORT $LN6@ProcessMov
$LN2@ProcessMov:

; 190  : 			}
; 191  : 		}
; 192  : 
; 193  : 		if ( !pOwner->IsSettedDirection() && !pOwner->IsJumpKeyDown() && ( !pOwner->IsDefenseKeyDown() && !m_bAutoDescent ) )

  00119	8b cb		 mov	 ecx, ebx
  0011b	e8 00 00 00 00	 call	 ?IsSettedDirection@ioBaseChar@@QBE_NXZ ; ioBaseChar::IsSettedDirection
  00120	84 c0		 test	 al, al
  00122	75 3f		 jne	 SHORT $LN1@ProcessMov
  00124	8b cb		 mov	 ecx, ebx
  00126	e8 00 00 00 00	 call	 ?IsJumpKeyDown@ioBaseChar@@QBE_NXZ ; ioBaseChar::IsJumpKeyDown
  0012b	84 c0		 test	 al, al
  0012d	75 34		 jne	 SHORT $LN1@ProcessMov
  0012f	8b cb		 mov	 ecx, ebx
  00131	e8 00 00 00 00	 call	 ?IsDefenseKeyDown@ioBaseChar@@QBE_NXZ ; ioBaseChar::IsDefenseKeyDown
  00136	84 c0		 test	 al, al
  00138	75 29		 jne	 SHORT $LN1@ProcessMov
  0013a	8d 85 d7 7f ff
	ff		 lea	 eax, DWORD PTR _value$532221[ebp]
  00140	50		 push	 eax
  00141	8d 8e b0 0d 00
	00		 lea	 ecx, DWORD PTR [esi+3504]
  00147	e8 00 00 00 00	 call	 ?DecryptValueToPool@?$CEncrypt@_N@@QAEXPA_N@Z ; CEncrypt<bool>::DecryptValueToPool
  0014c	80 bd d7 7f ff
	ff 00		 cmp	 BYTE PTR _value$532221[ebp], 0
  00153	75 0e		 jne	 SHORT $LN1@ProcessMov

; 194  : 		{
; 195  : 			SetDelayState( true );

  00155	8b 06		 mov	 eax, DWORD PTR [esi]
  00157	6a 01		 push	 1
  00159	8b ce		 mov	 ecx, esi
  0015b	ff 90 14 01 00
	00		 call	 DWORD PTR [eax+276]

; 196  : 			return;

  00161	eb 19		 jmp	 SHORT $LN6@ProcessMov
$LN1@ProcessMov:

; 197  : 		}
; 198  : 	}
; 199  : 
; 200  : 	CheckKeyInputChange();

  00163	8b ce		 mov	 ecx, esi
  00165	e8 00 00 00 00	 call	 ?CheckKeyInputChange@ioDummyChar@@IAEXXZ ; ioDummyChar::CheckKeyInputChange

; 201  : 	CheckControlMove( fTimePerSec );

  0016a	f3 0f 10 45 08	 movss	 xmm0, DWORD PTR _fTimePerSec$[ebp]
  0016f	51		 push	 ecx
  00170	8b ce		 mov	 ecx, esi
  00172	f3 0f 11 04 24	 movss	 DWORD PTR [esp], xmm0
  00177	e8 00 00 00 00	 call	 ?CheckControlMove@ioDummyChar@@IAEXM@Z ; ioDummyChar::CheckControlMove
$LN6@ProcessMov:

; 202  : }

  0017c	8b 4d f4	 mov	 ecx, DWORD PTR __$EHRec$[ebp]
  0017f	64 89 0d 00 00
	00 00		 mov	 DWORD PTR fs:0, ecx
  00186	59		 pop	 ecx
  00187	5f		 pop	 edi
  00188	5e		 pop	 esi
  00189	5b		 pop	 ebx
  0018a	8b 4d f0	 mov	 ecx, DWORD PTR __$ArrayPad$[ebp]
  0018d	33 cd		 xor	 ecx, ebp
  0018f	e8 00 00 00 00	 call	 @__security_check_cookie@4
  00194	c9		 leave
  00195	c2 04 00	 ret	 4
_TEXT	ENDS
;	COMDAT text$x
text$x	SEGMENT
__unwindfunclet$?ProcessMoveState@ioOwnerControlDummy5@@MAEXM@Z$0:
  00000	8d 8d d8 7f ff
	ff		 lea	 ecx, DWORD PTR _kPacket$530835[ebp]
  00006	e9 00 00 00 00	 jmp	 ??1SP2Packet@@UAE@XZ	; SP2Packet::~SP2Packet
__ehhandler$?ProcessMoveState@ioOwnerControlDummy5@@MAEXM@Z:
  0000b	8b 54 24 08	 mov	 edx, DWORD PTR [esp+8]
  0000f	8d 42 0c	 lea	 eax, DWORD PTR [edx+12]
  00012	8b 8a d0 7f ff
	ff		 mov	 ecx, DWORD PTR [edx-32816]
  00018	33 c8		 xor	 ecx, eax
  0001a	e8 00 00 00 00	 call	 @__security_check_cookie@4
  0001f	8b 4a fc	 mov	 ecx, DWORD PTR [edx-4]
  00022	33 c8		 xor	 ecx, eax
  00024	e8 00 00 00 00	 call	 @__security_check_cookie@4
  00029	b8 00 00 00 00	 mov	 eax, OFFSET __ehfuncinfo$?ProcessMoveState@ioOwnerControlDummy5@@MAEXM@Z
  0002e	e9 00 00 00 00	 jmp	 ___CxxFrameHandler3
text$x	ENDS
?ProcessMoveState@ioOwnerControlDummy5@@MAEXM@Z ENDP	; ioOwnerControlDummy5::ProcessMoveState
; Function compile flags: /Ogsp
;	COMDAT ?DontMoveEntityLevel@ioOwnerControlDummy5@@MBEHXZ
_TEXT	SEGMENT
_value$532234 = -1					; size = 1
?DontMoveEntityLevel@ioOwnerControlDummy5@@MBEHXZ PROC	; ioOwnerControlDummy5::DontMoveEntityLevel, COMDAT
; _this$ = ecx

; 279  : {

  00000	55		 push	 ebp
  00001	8b ec		 mov	 ebp, esp
  00003	51		 push	 ecx

; 280  : 	if( m_bMountEnable )

  00004	8d 45 ff	 lea	 eax, DWORD PTR _value$532234[ebp]
  00007	50		 push	 eax
  00008	81 c1 74 13 00
	00		 add	 ecx, 4980		; 00001374H
  0000e	e8 00 00 00 00	 call	 ?DecryptValueToPool@?$CEncrypt@_N@@QAEXPA_N@Z ; CEncrypt<bool>::DecryptValueToPool
  00013	33 c0		 xor	 eax, eax
  00015	38 45 ff	 cmp	 BYTE PTR _value$532234[ebp], al
  00018	0f 94 c0	 sete	 al
  0001b	8d 44 00 01	 lea	 eax, DWORD PTR [eax+eax+1]

; 281  : 		return 1;
; 282  : 	else
; 283  : 		return 3;
; 284  : }

  0001f	c9		 leave
  00020	c3		 ret	 0
?DontMoveEntityLevel@ioOwnerControlDummy5@@MBEHXZ ENDP	; ioOwnerControlDummy5::DontMoveEntityLevel
; Function compile flags: /Ogsp
_TEXT	ENDS
;	COMDAT ?IsMountingAvailable@ioOwnerControlDummy5@@MBE_NXZ
_TEXT	SEGMENT
_value$532241 = -1					; size = 1
?IsMountingAvailable@ioOwnerControlDummy5@@MBE_NXZ PROC	; ioOwnerControlDummy5::IsMountingAvailable, COMDAT
; _this$ = ecx

; 287  : {

  00000	55		 push	 ebp
  00001	8b ec		 mov	 ebp, esp
  00003	51		 push	 ecx

; 288  : 	if( m_bMountEnable )

  00004	8d 45 ff	 lea	 eax, DWORD PTR _value$532241[ebp]
  00007	50		 push	 eax
  00008	81 c1 74 13 00
	00		 add	 ecx, 4980		; 00001374H
  0000e	e8 00 00 00 00	 call	 ?DecryptValueToPool@?$CEncrypt@_N@@QAEXPA_N@Z ; CEncrypt<bool>::DecryptValueToPool
  00013	80 7d ff 00	 cmp	 BYTE PTR _value$532241[ebp], 0
  00017	0f 94 c0	 sete	 al

; 289  : 		return false;
; 290  : 
; 291  : 	return true;
; 292  : }

  0001a	c9		 leave
  0001b	c3		 ret	 0
?IsMountingAvailable@ioOwnerControlDummy5@@MBE_NXZ ENDP	; ioOwnerControlDummy5::IsMountingAvailable
; Function compile flags: /Ogsp
_TEXT	ENDS
;	COMDAT ?IsNowMountEnable@ioOwnerControlDummy5@@MBE_NXZ
_TEXT	SEGMENT
_value$532252 = -1					; size = 1
_value$532248 = -1					; size = 1
?IsNowMountEnable@ioOwnerControlDummy5@@MBE_NXZ PROC	; ioOwnerControlDummy5::IsNowMountEnable, COMDAT
; _this$ = ecx

; 295  : {

  00000	55		 push	 ebp
  00001	8b ec		 mov	 ebp, esp
  00003	51		 push	 ecx
  00004	56		 push	 esi
  00005	8b f1		 mov	 esi, ecx

; 296  : 	if( m_bCurMountEnable && m_bMountEnable )

  00007	8d 45 ff	 lea	 eax, DWORD PTR _value$532248[ebp]
  0000a	50		 push	 eax
  0000b	8d 8e a4 13 00
	00		 lea	 ecx, DWORD PTR [esi+5028]
  00011	e8 00 00 00 00	 call	 ?DecryptValueToPool@?$CEncrypt@_N@@QAEXPA_N@Z ; CEncrypt<bool>::DecryptValueToPool
  00016	80 7d ff 00	 cmp	 BYTE PTR _value$532248[ebp], 0
  0001a	74 19		 je	 SHORT $LN1@IsNowMount
  0001c	8d 45 ff	 lea	 eax, DWORD PTR _value$532252[ebp]
  0001f	50		 push	 eax
  00020	8d 8e 74 13 00
	00		 lea	 ecx, DWORD PTR [esi+4980]
  00026	e8 00 00 00 00	 call	 ?DecryptValueToPool@?$CEncrypt@_N@@QAEXPA_N@Z ; CEncrypt<bool>::DecryptValueToPool
  0002b	80 7d ff 00	 cmp	 BYTE PTR _value$532252[ebp], 0
  0002f	74 04		 je	 SHORT $LN1@IsNowMount

; 297  : 		return true;

  00031	b0 01		 mov	 al, 1
  00033	eb 02		 jmp	 SHORT $LN2@IsNowMount
$LN1@IsNowMount:

; 298  : 
; 299  : 	return false;

  00035	32 c0		 xor	 al, al
$LN2@IsNowMount:
  00037	5e		 pop	 esi

; 300  : }

  00038	c9		 leave
  00039	c3		 ret	 0
?IsNowMountEnable@ioOwnerControlDummy5@@MBE_NXZ ENDP	; ioOwnerControlDummy5::IsNowMountEnable
_TEXT	ENDS
PUBLIC	__real@00000000
PUBLIC	__real@4008000000000000
EXTRN	__imp_??4ioHashString@@QAEAAV0@ABV0@@Z:PROC
EXTRN	?GetMapHeightNoneEntity@ioPlayStage@@QAEMMMM_N@Z:PROC ; ioPlayStage::GetMapHeightNoneEntity
;	COMDAT __real@00000000
; File d:\lost saga for developer\youtube\tutorial\source\src\lsclient\encryptvalue.h
CONST	SEGMENT
__real@00000000 DD 000000000r			; 0
CONST	ENDS
;	COMDAT __real@4008000000000000
CONST	SEGMENT
__real@4008000000000000 DQ 04008000000000000r	; 3
; Function compile flags: /Ogsp
; File d:\lost saga for developer\youtube\tutorial\source\src\lsclient\ioownercontroldummy5.cpp
CONST	ENDS
;	COMDAT ?DropZoneCheck@ioOwnerControlDummy5@@MAEXXZ
_TEXT	SEGMENT
_vCurPos$531056 = -16					; size = 12
_value$532280 = -4					; size = 4
_value$532275 = -4					; size = 4
_value$532261 = -4					; size = 4
?DropZoneCheck@ioOwnerControlDummy5@@MAEXXZ PROC	; ioOwnerControlDummy5::DropZoneCheck, COMDAT
; _this$ = ecx

; 303  : {

  00000	55		 push	 ebp
  00001	8b ec		 mov	 ebp, esp
  00003	83 ec 10	 sub	 esp, 16			; 00000010H
  00006	53		 push	 ebx
  00007	8b d9		 mov	 ebx, ecx

; 304  : 	if( m_dwDropZoneLiveTime > 0 )

  00009	8d 45 fc	 lea	 eax, DWORD PTR _value$532261[ebp]
  0000c	8d 8b 08 12 00
	00		 lea	 ecx, DWORD PTR [ebx+4616]
  00012	50		 push	 eax
  00013	e8 00 00 00 00	 call	 ?DecryptValueToPool@?$CEncrypt@K@@QAEXPAK@Z ; CEncrypt<unsigned long>::DecryptValueToPool
  00018	83 7d fc 00	 cmp	 DWORD PTR _value$532261[ebp], 0
  0001c	0f 86 0a 01 00
	00		 jbe	 $LN1@DropZoneCh

; 305  : 	{
; 306  : 		bool bCheckDropZone = false;
; 307  : 		if( m_dwDropZoneCheckStartTime <= 0 )

  00022	83 bb 38 12 00
	00 00		 cmp	 DWORD PTR [ebx+4664], 0
  00029	77 14		 ja	 SHORT $LN4@DropZoneCh

; 308  : 			m_dwDropZoneCheckStartTime = FRAMEGETTIME();

  0002b	ff 15 00 00 00
	00		 call	 DWORD PTR __imp_?GetSingleton@ioFrameTimer@@SAAAV1@XZ
  00031	8b c8		 mov	 ecx, eax
  00033	ff 15 00 00 00
	00		 call	 DWORD PTR __imp_?GetLoopSec@ioFrameTimer@@QBEKXZ
  00039	89 83 38 12 00
	00		 mov	 DWORD PTR [ebx+4664], eax
$LN4@DropZoneCh:

; 309  : 
; 310  : 		D3DXVECTOR3 vCurPos = GetWorldPosition();

  0003f	8b 03		 mov	 eax, DWORD PTR [ebx]
  00041	56		 push	 esi
  00042	57		 push	 edi
  00043	8b cb		 mov	 ecx, ebx
  00045	ff 50 70	 call	 DWORD PTR [eax+112]
  00048	8b f0		 mov	 esi, eax
  0004a	8d 7d f0	 lea	 edi, DWORD PTR _vCurPos$531056[ebp]
  0004d	a5		 movsd
  0004e	a5		 movsd

; 311  : 
; 312  : 		if( GetOwner() &&
; 313  : 			GetOwner()->GetCreator() &&
; 314  : 			GetOwner()->GetCreator()->GetMapHeightNoneEntity( vCurPos.x, vCurPos.z, vCurPos.y+3.0f ) <= 0.0f )

  0004f	8b cb		 mov	 ecx, ebx
  00051	a5		 movsd
  00052	e8 00 00 00 00	 call	 ?GetOwner@ioDummyChar@@QBEPAVioBaseChar@@XZ ; ioDummyChar::GetOwner
  00057	85 c0		 test	 eax, eax
  00059	0f 84 d0 00 00
	00		 je	 $LN20@DropZoneCh
  0005f	8b cb		 mov	 ecx, ebx
  00061	e8 00 00 00 00	 call	 ?GetOwner@ioDummyChar@@QBEPAVioBaseChar@@XZ ; ioDummyChar::GetOwner
  00066	33 f6		 xor	 esi, esi
  00068	39 b0 44 03 00
	00		 cmp	 DWORD PTR [eax+836], esi
  0006e	0f 84 bd 00 00
	00		 je	 $LN19@DropZoneCh
  00074	8b cb		 mov	 ecx, ebx
  00076	e8 00 00 00 00	 call	 ?GetOwner@ioDummyChar@@QBEPAVioBaseChar@@XZ ; ioDummyChar::GetOwner
  0007b	f3 0f 10 45 f4	 movss	 xmm0, DWORD PTR _vCurPos$531056[ebp+4]
  00080	8b 88 44 03 00
	00		 mov	 ecx, DWORD PTR [eax+836]
  00086	0f 5a c0	 cvtps2pd xmm0, xmm0
  00089	f2 0f 58 05 00
	00 00 00	 addsd	 xmm0, QWORD PTR __real@4008000000000000
  00091	56		 push	 esi
  00092	83 ec 0c	 sub	 esp, 12			; 0000000cH
  00095	66 0f 5a c0	 cvtpd2ps xmm0, xmm0
  00099	f3 0f 11 44 24
	08		 movss	 DWORD PTR [esp+8], xmm0
  0009f	f3 0f 10 45 f8	 movss	 xmm0, DWORD PTR _vCurPos$531056[ebp+8]
  000a4	f3 0f 11 44 24
	04		 movss	 DWORD PTR [esp+4], xmm0
  000aa	f3 0f 10 45 f0	 movss	 xmm0, DWORD PTR _vCurPos$531056[ebp]
  000af	f3 0f 11 04 24	 movss	 DWORD PTR [esp], xmm0
  000b4	e8 00 00 00 00	 call	 ?GetMapHeightNoneEntity@ioPlayStage@@QAEMMMM_N@Z ; ioPlayStage::GetMapHeightNoneEntity
  000b9	d9 ee		 fldz
  000bb	df f1		 fcomip	 ST(1)
  000bd	dd d8		 fstp	 ST(0)

; 315  : 			bCheckDropZone = true;
; 316  : 
; 317  : 		if( !bCheckDropZone )

  000bf	72 70		 jb	 SHORT $LN19@DropZoneCh

; 319  : 
; 320  : 		if( bCheckDropZone && m_dwDropZoneCheckStartTime > 0 && m_dwDropZoneCheckStartTime + m_dwDropZoneLiveTime <= FRAMEGETTIME() )

  000c1	39 b3 38 12 00
	00		 cmp	 DWORD PTR [ebx+4664], esi
  000c7	76 61		 jbe	 SHORT $LN21@DropZoneCh
  000c9	8d 45 fc	 lea	 eax, DWORD PTR _value$532275[ebp]
  000cc	50		 push	 eax
  000cd	8d 8b 08 12 00
	00		 lea	 ecx, DWORD PTR [ebx+4616]
  000d3	e8 00 00 00 00	 call	 ?DecryptValueToPool@?$CEncrypt@K@@QAEXPAK@Z ; CEncrypt<unsigned long>::DecryptValueToPool
  000d8	ff 15 00 00 00
	00		 call	 DWORD PTR __imp_?GetSingleton@ioFrameTimer@@SAAAV1@XZ
  000de	8b c8		 mov	 ecx, eax
  000e0	ff 15 00 00 00
	00		 call	 DWORD PTR __imp_?GetLoopSec@ioFrameTimer@@QBEKXZ
  000e6	8b 8b 38 12 00
	00		 mov	 ecx, DWORD PTR [ebx+4664]
  000ec	03 4d fc	 add	 ecx, DWORD PTR _value$532275[ebp]
  000ef	3b c8		 cmp	 ecx, eax
  000f1	77 37		 ja	 SHORT $LN21@DropZoneCh

; 321  : 		{
; 322  : 			m_HP.m_fCurValue = 0.0f;

  000f3	0f 57 c0	 xorps	 xmm0, xmm0
  000f6	8d 45 fc	 lea	 eax, DWORD PTR _value$532280[ebp]
  000f9	50		 push	 eax
  000fa	8d 8b c0 00 00
	00		 lea	 ecx, DWORD PTR [ebx+192]
  00100	f3 0f 11 45 fc	 movss	 DWORD PTR _value$532280[ebp], xmm0
  00105	e8 00 00 00 00	 call	 ?EncryptValueToPool@?$CEncrypt@M@@AAEXPBD@Z ; CEncrypt<float>::EncryptValueToPool

; 323  : 			m_LastAttacker = m_OwnerName;

  0010a	8d 83 cc 01 00
	00		 lea	 eax, DWORD PTR [ebx+460]
  00110	50		 push	 eax
  00111	8d 8b 30 05 00
	00		 lea	 ecx, DWORD PTR [ebx+1328]
  00117	ff 15 00 00 00
	00		 call	 DWORD PTR __imp_??4ioHashString@@QAEAAV0@ABV0@@Z

; 324  : 
; 325  : 			SetDieState( true );

  0011d	8b 03		 mov	 eax, DWORD PTR [ebx]
  0011f	56		 push	 esi
  00120	6a 01		 push	 1
  00122	8b cb		 mov	 ecx, ebx
  00124	ff 90 1c 01 00
	00		 call	 DWORD PTR [eax+284]
$LN21@DropZoneCh:
  0012a	5f		 pop	 edi
  0012b	5e		 pop	 esi
$LN1@DropZoneCh:
  0012c	5b		 pop	 ebx

; 326  : 		}
; 327  : 	}
; 328  : }

  0012d	c9		 leave
  0012e	c3		 ret	 0
$LN20@DropZoneCh:

; 315  : 			bCheckDropZone = true;
; 316  : 
; 317  : 		if( !bCheckDropZone )

  0012f	33 f6		 xor	 esi, esi
$LN19@DropZoneCh:

; 318  : 			m_dwDropZoneCheckStartTime = 0;

  00131	89 b3 38 12 00
	00		 mov	 DWORD PTR [ebx+4664], esi

; 319  : 
; 320  : 		if( bCheckDropZone && m_dwDropZoneCheckStartTime > 0 && m_dwDropZoneCheckStartTime + m_dwDropZoneLiveTime <= FRAMEGETTIME() )

  00137	eb f1		 jmp	 SHORT $LN21@DropZoneCh
?DropZoneCheck@ioOwnerControlDummy5@@MAEXXZ ENDP	; ioOwnerControlDummy5::DropZoneCheck
; Function compile flags: /Ogsp
_TEXT	ENDS
;	COMDAT ?IsMountAvailable@ioOwnerControlDummy5@@MBE_NXZ
_TEXT	SEGMENT
_value$532292 = -1					; size = 1
?IsMountAvailable@ioOwnerControlDummy5@@MBE_NXZ PROC	; ioOwnerControlDummy5::IsMountAvailable, COMDAT
; _this$ = ecx

; 331  : {

  00000	55		 push	 ebp
  00001	8b ec		 mov	 ebp, esp
  00003	51		 push	 ecx

; 332  : 	if( m_bMountEnable )

  00004	8d 45 ff	 lea	 eax, DWORD PTR _value$532292[ebp]
  00007	50		 push	 eax
  00008	81 c1 74 13 00
	00		 add	 ecx, 4980		; 00001374H
  0000e	e8 00 00 00 00	 call	 ?DecryptValueToPool@?$CEncrypt@_N@@QAEXPA_N@Z ; CEncrypt<bool>::DecryptValueToPool
  00013	80 7d ff 00	 cmp	 BYTE PTR _value$532292[ebp], 0
  00017	0f 95 c0	 setne	 al

; 333  : 		return true;
; 334  : 	return false;
; 335  : }

  0001a	c9		 leave
  0001b	c3		 ret	 0
?IsMountAvailable@ioOwnerControlDummy5@@MBE_NXZ ENDP	; ioOwnerControlDummy5::IsMountAvailable
_TEXT	ENDS
PUBLIC	??D?$_List_iterator@V?$_List_val@UFireTime@@V?$allocator@UFireTime@@@std@@@std@@@std@@QBEAAUFireTime@@XZ ; std::_List_iterator<std::_List_val<FireTime,std::allocator<FireTime> > >::operator*
; Function compile flags: /Ogsp
; File c:\program files (x86)\microsoft visual studio 10.0\vc\include\list
;	COMDAT ??D?$_List_iterator@V?$_List_val@UFireTime@@V?$allocator@UFireTime@@@std@@@std@@@std@@QBEAAUFireTime@@XZ
_TEXT	SEGMENT
??D?$_List_iterator@V?$_List_val@UFireTime@@V?$allocator@UFireTime@@@std@@@std@@@std@@QBEAAUFireTime@@XZ PROC ; std::_List_iterator<std::_List_val<FireTime,std::allocator<FireTime> > >::operator*, COMDAT
; _this$ = ecx

; 360  : 		return ((reference)**(_Mybase *)this);

  00000	8b 01		 mov	 eax, DWORD PTR [ecx]
  00002	83 c0 08	 add	 eax, 8

; 361  : 		}

  00005	c3		 ret	 0
??D?$_List_iterator@V?$_List_val@UFireTime@@V?$allocator@UFireTime@@@std@@@std@@@std@@QBEAAUFireTime@@XZ ENDP ; std::_List_iterator<std::_List_val<FireTime,std::allocator<FireTime> > >::operator*
_TEXT	ENDS
PUBLIC	??0?$_List_iterator@V?$_List_val@UFireTime@@V?$allocator@UFireTime@@@std@@@std@@@std@@QAE@PAU_Node@?$_List_nod@UFireTime@@V?$allocator@UFireTime@@@std@@@1@PBV?$_List_val@UFireTime@@V?$allocator@UFireTime@@@std@@@1@@Z ; std::_List_iterator<std::_List_val<FireTime,std::allocator<FireTime> > >::_List_iterator<std::_List_val<FireTime,std::allocator<FireTime> > >
; Function compile flags: /Ogsp
;	COMDAT ??0?$_List_iterator@V?$_List_val@UFireTime@@V?$allocator@UFireTime@@@std@@@std@@@std@@QAE@PAU_Node@?$_List_nod@UFireTime@@V?$allocator@UFireTime@@@std@@@1@PBV?$_List_val@UFireTime@@V?$allocator@UFireTime@@@std@@@1@@Z
_TEXT	SEGMENT
__Pnode$ = 8						; size = 4
__Plist$ = 12						; size = 4
??0?$_List_iterator@V?$_List_val@UFireTime@@V?$allocator@UFireTime@@@std@@@std@@@std@@QAE@PAU_Node@?$_List_nod@UFireTime@@V?$allocator@UFireTime@@@std@@@1@PBV?$_List_val@UFireTime@@V?$allocator@UFireTime@@@std@@@1@@Z PROC ; std::_List_iterator<std::_List_val<FireTime,std::allocator<FireTime> > >::_List_iterator<std::_List_val<FireTime,std::allocator<FireTime> > >, COMDAT
; _this$ = ecx

; 342  : 		{	// construct with node pointer _Pnode

  00000	55		 push	 ebp
  00001	8b ec		 mov	 ebp, esp
  00003	8b c1		 mov	 eax, ecx
  00005	8b 4d 08	 mov	 ecx, DWORD PTR __Pnode$[ebp]
  00008	89 08		 mov	 DWORD PTR [eax], ecx

; 343  : 		}

  0000a	5d		 pop	 ebp
  0000b	c2 08 00	 ret	 8
??0?$_List_iterator@V?$_List_val@UFireTime@@V?$allocator@UFireTime@@@std@@@std@@@std@@QAE@PAU_Node@?$_List_nod@UFireTime@@V?$allocator@UFireTime@@@std@@@1@PBV?$_List_val@UFireTime@@V?$allocator@UFireTime@@@std@@@1@@Z ENDP ; std::_List_iterator<std::_List_val<FireTime,std::allocator<FireTime> > >::_List_iterator<std::_List_val<FireTime,std::allocator<FireTime> > >
_TEXT	ENDS
PUBLIC	??_G_Node@?$_List_nod@UFireTime@@V?$allocator@UFireTime@@@std@@@std@@QAEPAXI@Z ; std::_List_nod<FireTime,std::allocator<FireTime> >::_Node::`scalar deleting destructor'
; Function compile flags: /Ogsp
;	COMDAT ??_G_Node@?$_List_nod@UFireTime@@V?$allocator@UFireTime@@@std@@@std@@QAEPAXI@Z
_TEXT	SEGMENT
___flags$ = 8						; size = 4
??_G_Node@?$_List_nod@UFireTime@@V?$allocator@UFireTime@@@std@@@std@@QAEPAXI@Z PROC ; std::_List_nod<FireTime,std::allocator<FireTime> >::_Node::`scalar deleting destructor', COMDAT
; _this$ = ecx
  00000	55		 push	 ebp
  00001	8b ec		 mov	 ebp, esp
  00003	56		 push	 esi
  00004	8b f1		 mov	 esi, ecx
  00006	8d 4e 08	 lea	 ecx, DWORD PTR [esi+8]
  00009	e8 00 00 00 00	 call	 ??1FireTime@@QAE@XZ
  0000e	f6 45 08 01	 test	 BYTE PTR ___flags$[ebp], 1
  00012	74 07		 je	 SHORT $LN1@scalar@2
  00014	56		 push	 esi
  00015	e8 00 00 00 00	 call	 ??3@YAXPAX@Z		; operator delete
  0001a	59		 pop	 ecx
$LN1@scalar@2:
  0001b	8b c6		 mov	 eax, esi
  0001d	5e		 pop	 esi
  0001e	5d		 pop	 ebp
  0001f	c2 04 00	 ret	 4
??_G_Node@?$_List_nod@UFireTime@@V?$allocator@UFireTime@@@std@@@std@@QAEPAXI@Z ENDP ; std::_List_nod<FireTime,std::allocator<FireTime> >::_Node::`scalar deleting destructor'
; Function compile flags: /Ogsp
; File d:\lost saga for developer\youtube\tutorial\source\src\lsclient\ioplayentity.h
_TEXT	ENDS
;	COMDAT ?SetTeam@ioPlayEntity@@UAEXW4TeamType@@@Z
_TEXT	SEGMENT
_value$532334 = 8					; size = 4
_eType$ = 8						; size = 4
?SetTeam@ioPlayEntity@@UAEXW4TeamType@@@Z PROC		; ioPlayEntity::SetTeam, COMDAT
; _this$ = ecx

; 106  : 	virtual void SetTeam( TeamType eType ) { m_TeamType = eType; }

  00000	55		 push	 ebp
  00001	8b ec		 mov	 ebp, esp
  00003	8b 45 08	 mov	 eax, DWORD PTR _eType$[ebp]
  00006	89 45 08	 mov	 DWORD PTR _value$532334[ebp], eax
  00009	8d 45 08	 lea	 eax, DWORD PTR _value$532334[ebp]
  0000c	50		 push	 eax
  0000d	81 c1 90 00 00
	00		 add	 ecx, 144		; 00000090H
  00013	e8 00 00 00 00	 call	 ?EncryptValueToPool@?$CEncrypt@W4TeamType@@@@AAEXPBD@Z ; CEncrypt<enum TeamType>::EncryptValueToPool
  00018	5d		 pop	 ebp
  00019	c2 04 00	 ret	 4
?SetTeam@ioPlayEntity@@UAEXW4TeamType@@@Z ENDP		; ioPlayEntity::SetTeam
_TEXT	ENDS
EXTRN	?SendDieState@ioDummyChar@@QAEX_N@Z:PROC	; ioDummyChar::SendDieState
EXTRN	?CheckExtraAniJump@ioDummyChar@@IAEXXZ:PROC	; ioDummyChar::CheckExtraAniJump
EXTRN	?CheckReservedSliding@ioDummyChar@@QAEXXZ:PROC	; ioDummyChar::CheckReservedSliding
; Function compile flags: /Ogsp
; File d:\lost saga for developer\youtube\tutorial\source\src\lsclient\ioownercontroldummy5.cpp
;	COMDAT ?ProcessState@ioOwnerControlDummy5@@MAEXMK@Z
_TEXT	SEGMENT
_fTimerPerSec$ = 8					; size = 4
_dwPreTime$ = 12					; size = 4
?ProcessState@ioOwnerControlDummy5@@MAEXMK@Z PROC	; ioOwnerControlDummy5::ProcessState, COMDAT
; _this$ = ecx

; 26   : {

  00000	55		 push	 ebp
  00001	8b ec		 mov	 ebp, esp

; 27   : 	switch( m_State )

  00003	f3 0f 10 45 08	 movss	 xmm0, DWORD PTR _fTimerPerSec$[ebp]
  00008	56		 push	 esi
  00009	8b f1		 mov	 esi, ecx
  0000b	8b 86 30 02 00
	00		 mov	 eax, DWORD PTR [esi+560]
  00011	48		 dec	 eax
  00012	57		 push	 edi
  00013	74 50		 je	 SHORT $LN5@ProcessSta@2
  00015	48		 dec	 eax
  00016	74 3d		 je	 SHORT $LN4@ProcessSta@2
  00018	48		 dec	 eax
  00019	74 2a		 je	 SHORT $LN3@ProcessSta@2
  0001b	48		 dec	 eax
  0001c	48		 dec	 eax
  0001d	75 4b		 jne	 SHORT $LN6@ProcessSta@2

; 38   : 	case DCS_ATTACK:
; 39   : 		CheckReservedSliding();

  0001f	e8 00 00 00 00	 call	 ?CheckReservedSliding@ioDummyChar@@QAEXXZ ; ioDummyChar::CheckReservedSliding

; 40   : 		CheckExtraAniJump();

  00024	8b ce		 mov	 ecx, esi
  00026	e8 00 00 00 00	 call	 ?CheckExtraAniJump@ioDummyChar@@IAEXXZ ; ioDummyChar::CheckExtraAniJump

; 41   : 		ProcessAttackState( fTimerPerSec, dwPreTime );

  0002b	ff 75 0c	 push	 DWORD PTR _dwPreTime$[ebp]
  0002e	f3 0f 10 45 08	 movss	 xmm0, DWORD PTR _fTimerPerSec$[ebp]
  00033	8b 06		 mov	 eax, DWORD PTR [esi]
  00035	51		 push	 ecx
  00036	8b ce		 mov	 ecx, esi
  00038	f3 0f 11 04 24	 movss	 DWORD PTR [esp], xmm0
  0003d	ff 90 0c 01 00
	00		 call	 DWORD PTR [eax+268]

; 42   : 		break;

  00043	eb 25		 jmp	 SHORT $LN6@ProcessSta@2
$LN3@ProcessSta@2:

; 35   : 	case DCS_MOVE:
; 36   : 		ProcessMoveState( fTimerPerSec );

  00045	8b 06		 mov	 eax, DWORD PTR [esi]
  00047	51		 push	 ecx
  00048	f3 0f 11 04 24	 movss	 DWORD PTR [esp], xmm0
  0004d	ff 90 04 01 00
	00		 call	 DWORD PTR [eax+260]

; 37   : 		break;

  00053	eb 15		 jmp	 SHORT $LN6@ProcessSta@2
$LN4@ProcessSta@2:

; 31   : 		break;
; 32   : 	case DCS_DELAY:
; 33   : 		ProcessDelayState( fTimerPerSec );

  00055	8b 06		 mov	 eax, DWORD PTR [esi]
  00057	51		 push	 ecx
  00058	f3 0f 11 04 24	 movss	 DWORD PTR [esp], xmm0
  0005d	ff 90 00 01 00
	00		 call	 DWORD PTR [eax+256]

; 34   : 		break;

  00063	eb 05		 jmp	 SHORT $LN6@ProcessSta@2
$LN5@ProcessSta@2:

; 28   : 	{
; 29   : 	case DCS_START:
; 30   : 		ProcessStartState();

  00065	e8 00 00 00 00	 call	 ?ProcessStartState@ioOwnerControlDummy5@@IAEXXZ ; ioOwnerControlDummy5::ProcessStartState
$LN6@ProcessSta@2:

; 43   : 	}
; 44   : 
; 45   : 	if( m_dwLifeTime && (DWORD)(m_dwStartTime + m_dwLifeTime) < FRAMEGETTIME() && m_State != DCS_ATTACK )

  0006a	83 be 10 0b 00
	00 00		 cmp	 DWORD PTR [esi+2832], 0
  00071	74 30		 je	 SHORT $LN10@ProcessSta@2
  00073	ff 15 00 00 00
	00		 call	 DWORD PTR __imp_?GetSingleton@ioFrameTimer@@SAAAV1@XZ
  00079	8b c8		 mov	 ecx, eax
  0007b	ff 15 00 00 00
	00		 call	 DWORD PTR __imp_?GetLoopSec@ioFrameTimer@@QBEKXZ
  00081	8b 8e 14 0b 00
	00		 mov	 ecx, DWORD PTR [esi+2836]
  00087	03 8e 10 0b 00
	00		 add	 ecx, DWORD PTR [esi+2832]
  0008d	3b c8		 cmp	 ecx, eax
  0008f	73 12		 jae	 SHORT $LN10@ProcessSta@2
  00091	83 be 30 02 00
	00 05		 cmp	 DWORD PTR [esi+560], 5
  00098	74 09		 je	 SHORT $LN10@ProcessSta@2

; 46   : 		SendDieState( true );

  0009a	6a 01		 push	 1
  0009c	8b ce		 mov	 ecx, esi
  0009e	e8 00 00 00 00	 call	 ?SendDieState@ioDummyChar@@QAEX_N@Z ; ioDummyChar::SendDieState
$LN10@ProcessSta@2:

; 47   : 
; 48   : 	ProcessPos( fTimerPerSec );

  000a3	f3 0f 10 45 08	 movss	 xmm0, DWORD PTR _fTimerPerSec$[ebp]
  000a8	8b 06		 mov	 eax, DWORD PTR [esi]
  000aa	51		 push	 ecx
  000ab	8b ce		 mov	 ecx, esi
  000ad	f3 0f 11 04 24	 movss	 DWORD PTR [esp], xmm0
  000b2	ff 90 fc 00 00
	00		 call	 DWORD PTR [eax+252]
  000b8	5f		 pop	 edi
  000b9	5e		 pop	 esi

; 49   : }

  000ba	5d		 pop	 ebp
  000bb	c2 08 00	 ret	 8
?ProcessState@ioOwnerControlDummy5@@MAEXMK@Z ENDP	; ioOwnerControlDummy5::ProcessState
_TEXT	ENDS
PUBLIC	?begin@?$list@UFireTime@@V?$allocator@UFireTime@@@std@@@std@@QAE?AV?$_List_iterator@V?$_List_val@UFireTime@@V?$allocator@UFireTime@@@std@@@std@@@2@XZ ; std::list<FireTime,std::allocator<FireTime> >::begin
; Function compile flags: /Ogsp
; File c:\program files (x86)\microsoft visual studio 10.0\vc\include\list
;	COMDAT ?begin@?$list@UFireTime@@V?$allocator@UFireTime@@@std@@@std@@QAE?AV?$_List_iterator@V?$_List_val@UFireTime@@V?$allocator@UFireTime@@@std@@@std@@@2@XZ
_TEXT	SEGMENT
___$ReturnUdt$ = 8					; size = 4
?begin@?$list@UFireTime@@V?$allocator@UFireTime@@@std@@@std@@QAE?AV?$_List_iterator@V?$_List_val@UFireTime@@V?$allocator@UFireTime@@@std@@@std@@@2@XZ PROC ; std::list<FireTime,std::allocator<FireTime> >::begin, COMDAT
; _this$ = ecx

; 781  : 		{	// return iterator for beginning of mutable sequence

  00000	55		 push	 ebp
  00001	8b ec		 mov	 ebp, esp

; 782  : 		return (iterator(this->_Nextnode(this->_Myhead), this));

  00003	8b 01		 mov	 eax, DWORD PTR [ecx]
  00005	8b 08		 mov	 ecx, DWORD PTR [eax]
  00007	8b 45 08	 mov	 eax, DWORD PTR ___$ReturnUdt$[ebp]
  0000a	89 08		 mov	 DWORD PTR [eax], ecx

; 783  : 		}

  0000c	5d		 pop	 ebp
  0000d	c2 04 00	 ret	 4
?begin@?$list@UFireTime@@V?$allocator@UFireTime@@@std@@@std@@QAE?AV?$_List_iterator@V?$_List_val@UFireTime@@V?$allocator@UFireTime@@@std@@@std@@@2@XZ ENDP ; std::list<FireTime,std::allocator<FireTime> >::begin
_TEXT	ENDS
PUBLIC	?end@?$list@UFireTime@@V?$allocator@UFireTime@@@std@@@std@@QAE?AV?$_List_iterator@V?$_List_val@UFireTime@@V?$allocator@UFireTime@@@std@@@std@@@2@XZ ; std::list<FireTime,std::allocator<FireTime> >::end
; Function compile flags: /Ogsp
;	COMDAT ?end@?$list@UFireTime@@V?$allocator@UFireTime@@@std@@@std@@QAE?AV?$_List_iterator@V?$_List_val@UFireTime@@V?$allocator@UFireTime@@@std@@@std@@@2@XZ
_TEXT	SEGMENT
___$ReturnUdt$ = 8					; size = 4
?end@?$list@UFireTime@@V?$allocator@UFireTime@@@std@@@std@@QAE?AV?$_List_iterator@V?$_List_val@UFireTime@@V?$allocator@UFireTime@@@std@@@std@@@2@XZ PROC ; std::list<FireTime,std::allocator<FireTime> >::end, COMDAT
; _this$ = ecx

; 791  : 		{	// return iterator for end of mutable sequence

  00000	55		 push	 ebp
  00001	8b ec		 mov	 ebp, esp

; 792  : 		return (iterator(this->_Myhead, this));

  00003	8b 09		 mov	 ecx, DWORD PTR [ecx]
  00005	8b 45 08	 mov	 eax, DWORD PTR ___$ReturnUdt$[ebp]
  00008	89 08		 mov	 DWORD PTR [eax], ecx

; 793  : 		}

  0000a	5d		 pop	 ebp
  0000b	c2 04 00	 ret	 4
?end@?$list@UFireTime@@V?$allocator@UFireTime@@@std@@@std@@QAE?AV?$_List_iterator@V?$_List_val@UFireTime@@V?$allocator@UFireTime@@@std@@@std@@@2@XZ ENDP ; std::list<FireTime,std::allocator<FireTime> >::end
_TEXT	ENDS
PUBLIC	?_Make_iter@?$list@UFireTime@@V?$allocator@UFireTime@@@std@@@std@@QBE?AV?$_List_iterator@V?$_List_val@UFireTime@@V?$allocator@UFireTime@@@std@@@std@@@2@V?$_List_const_iterator@V?$_List_val@UFireTime@@V?$allocator@UFireTime@@@std@@@std@@@2@@Z ; std::list<FireTime,std::allocator<FireTime> >::_Make_iter
; Function compile flags: /Ogsp
;	COMDAT ?_Make_iter@?$list@UFireTime@@V?$allocator@UFireTime@@@std@@@std@@QBE?AV?$_List_iterator@V?$_List_val@UFireTime@@V?$allocator@UFireTime@@@std@@@std@@@2@V?$_List_const_iterator@V?$_List_val@UFireTime@@V?$allocator@UFireTime@@@std@@@std@@@2@@Z
_TEXT	SEGMENT
___$ReturnUdt$ = 8					; size = 4
__Where$ = 12						; size = 4
?_Make_iter@?$list@UFireTime@@V?$allocator@UFireTime@@@std@@@std@@QBE?AV?$_List_iterator@V?$_List_val@UFireTime@@V?$allocator@UFireTime@@@std@@@std@@@2@V?$_List_const_iterator@V?$_List_val@UFireTime@@V?$allocator@UFireTime@@@std@@@std@@@2@@Z PROC ; std::list<FireTime,std::allocator<FireTime> >::_Make_iter, COMDAT
; _this$ = ecx

; 801  : 		{	// make iterator from const_iterator

  00000	55		 push	 ebp
  00001	8b ec		 mov	 ebp, esp

; 802  : 		return (iterator(_Where._Ptr, this));

  00003	8b 45 08	 mov	 eax, DWORD PTR ___$ReturnUdt$[ebp]
  00006	8b 4d 0c	 mov	 ecx, DWORD PTR __Where$[ebp]
  00009	89 08		 mov	 DWORD PTR [eax], ecx

; 803  : 		}

  0000b	5d		 pop	 ebp
  0000c	c2 08 00	 ret	 8
?_Make_iter@?$list@UFireTime@@V?$allocator@UFireTime@@@std@@@std@@QBE?AV?$_List_iterator@V?$_List_val@UFireTime@@V?$allocator@UFireTime@@@std@@@std@@@2@V?$_List_const_iterator@V?$_List_val@UFireTime@@V?$allocator@UFireTime@@@std@@@std@@@2@@Z ENDP ; std::list<FireTime,std::allocator<FireTime> >::_Make_iter
_TEXT	ENDS
PUBLIC	??$_Destroy@U_Node@?$_List_nod@UFireTime@@V?$allocator@UFireTime@@@std@@@std@@@std@@YAXPAU_Node@?$_List_nod@UFireTime@@V?$allocator@UFireTime@@@std@@@0@@Z ; std::_Destroy<std::_List_nod<FireTime,std::allocator<FireTime> >::_Node>
; Function compile flags: /Ogsp
; File c:\program files (x86)\microsoft visual studio 10.0\vc\include\xmemory
;	COMDAT ??$_Destroy@U_Node@?$_List_nod@UFireTime@@V?$allocator@UFireTime@@@std@@@std@@@std@@YAXPAU_Node@?$_List_nod@UFireTime@@V?$allocator@UFireTime@@@std@@@0@@Z
_TEXT	SEGMENT
__Ptr$ = 8						; size = 4
??$_Destroy@U_Node@?$_List_nod@UFireTime@@V?$allocator@UFireTime@@@std@@@std@@@std@@YAXPAU_Node@?$_List_nod@UFireTime@@V?$allocator@UFireTime@@@std@@@0@@Z PROC ; std::_Destroy<std::_List_nod<FireTime,std::allocator<FireTime> >::_Node>, COMDAT

; 62   : 	{	// destroy object at _Ptr

  00000	55		 push	 ebp
  00001	8b ec		 mov	 ebp, esp

; 63   : 	_Ptr->~_Ty();

  00003	8b 4d 08	 mov	 ecx, DWORD PTR __Ptr$[ebp]
  00006	83 c1 08	 add	 ecx, 8

; 64   : 	}

  00009	5d		 pop	 ebp

; 63   : 	_Ptr->~_Ty();

  0000a	e9 00 00 00 00	 jmp	 ??1FireTime@@QAE@XZ
??$_Destroy@U_Node@?$_List_nod@UFireTime@@V?$allocator@UFireTime@@@std@@@std@@@std@@YAXPAU_Node@?$_List_nod@UFireTime@@V?$allocator@UFireTime@@@std@@@0@@Z ENDP ; std::_Destroy<std::_List_nod<FireTime,std::allocator<FireTime> >::_Node>
_TEXT	ENDS
PUBLIC	?destroy@?$allocator@U_Node@?$_List_nod@UFireTime@@V?$allocator@UFireTime@@@std@@@std@@@std@@QAEXPAU_Node@?$_List_nod@UFireTime@@V?$allocator@UFireTime@@@std@@@2@@Z ; std::allocator<std::_List_nod<FireTime,std::allocator<FireTime> >::_Node>::destroy
; Function compile flags: /Ogsp
;	COMDAT ?destroy@?$allocator@U_Node@?$_List_nod@UFireTime@@V?$allocator@UFireTime@@@std@@@std@@@std@@QAEXPAU_Node@?$_List_nod@UFireTime@@V?$allocator@UFireTime@@@std@@@2@@Z
_TEXT	SEGMENT
__Ptr$ = 8						; size = 4
?destroy@?$allocator@U_Node@?$_List_nod@UFireTime@@V?$allocator@UFireTime@@@std@@@std@@@std@@QAEXPAU_Node@?$_List_nod@UFireTime@@V?$allocator@UFireTime@@@std@@@2@@Z PROC ; std::allocator<std::_List_nod<FireTime,std::allocator<FireTime> >::_Node>::destroy, COMDAT
; _this$ = ecx

; 212  : 		{	// destroy object at _Ptr

  00000	55		 push	 ebp
  00001	8b ec		 mov	 ebp, esp

; 213  : 		_Destroy(_Ptr);

  00003	8b 4d 08	 mov	 ecx, DWORD PTR __Ptr$[ebp]
  00006	83 c1 08	 add	 ecx, 8
  00009	e8 00 00 00 00	 call	 ??1FireTime@@QAE@XZ

; 214  : 		}

  0000e	5d		 pop	 ebp
  0000f	c2 04 00	 ret	 4
?destroy@?$allocator@U_Node@?$_List_nod@UFireTime@@V?$allocator@UFireTime@@@std@@@std@@@std@@QAEXPAU_Node@?$_List_nod@UFireTime@@V?$allocator@UFireTime@@@std@@@2@@Z ENDP ; std::allocator<std::_List_nod<FireTime,std::allocator<FireTime> >::_Node>::destroy
_TEXT	ENDS
PUBLIC	??$_Dest_val@V?$allocator@U_Node@?$_List_nod@UFireTime@@V?$allocator@UFireTime@@@std@@@std@@@std@@U_Node@?$_List_nod@UFireTime@@V?$allocator@UFireTime@@@std@@@2@@std@@YAXAAV?$allocator@U_Node@?$_List_nod@UFireTime@@V?$allocator@UFireTime@@@std@@@std@@@0@PAU_Node@?$_List_nod@UFireTime@@V?$allocator@UFireTime@@@std@@@0@@Z ; std::_Dest_val<std::allocator<std::_List_nod<FireTime,std::allocator<FireTime> >::_Node>,std::_List_nod<FireTime,std::allocator<FireTime> >::_Node>
; Function compile flags: /Ogsp
;	COMDAT ??$_Dest_val@V?$allocator@U_Node@?$_List_nod@UFireTime@@V?$allocator@UFireTime@@@std@@@std@@@std@@U_Node@?$_List_nod@UFireTime@@V?$allocator@UFireTime@@@std@@@2@@std@@YAXAAV?$allocator@U_Node@?$_List_nod@UFireTime@@V?$allocator@UFireTime@@@std@@@std@@@0@PAU_Node@?$_List_nod@UFireTime@@V?$allocator@UFireTime@@@std@@@0@@Z
_TEXT	SEGMENT
__Alval$ = 8						; size = 4
__Pdest$ = 12						; size = 4
??$_Dest_val@V?$allocator@U_Node@?$_List_nod@UFireTime@@V?$allocator@UFireTime@@@std@@@std@@@std@@U_Node@?$_List_nod@UFireTime@@V?$allocator@UFireTime@@@std@@@2@@std@@YAXAAV?$allocator@U_Node@?$_List_nod@UFireTime@@V?$allocator@UFireTime@@@std@@@std@@@0@PAU_Node@?$_List_nod@UFireTime@@V?$allocator@UFireTime@@@std@@@0@@Z PROC ; std::_Dest_val<std::allocator<std::_List_nod<FireTime,std::allocator<FireTime> >::_Node>,std::_List_nod<FireTime,std::allocator<FireTime> >::_Node>, COMDAT

; 286  : 	{	// destroy using allocator

  00000	55		 push	 ebp
  00001	8b ec		 mov	 ebp, esp

; 287  : 	_Alval.destroy(_Pdest);

  00003	8b 4d 0c	 mov	 ecx, DWORD PTR __Pdest$[ebp]
  00006	83 c1 08	 add	 ecx, 8

; 288  : 	}

  00009	5d		 pop	 ebp

; 287  : 	_Alval.destroy(_Pdest);

  0000a	e9 00 00 00 00	 jmp	 ??1FireTime@@QAE@XZ
??$_Dest_val@V?$allocator@U_Node@?$_List_nod@UFireTime@@V?$allocator@UFireTime@@@std@@@std@@@std@@U_Node@?$_List_nod@UFireTime@@V?$allocator@UFireTime@@@std@@@2@@std@@YAXAAV?$allocator@U_Node@?$_List_nod@UFireTime@@V?$allocator@UFireTime@@@std@@@std@@@0@PAU_Node@?$_List_nod@UFireTime@@V?$allocator@UFireTime@@@std@@@0@@Z ENDP ; std::_Dest_val<std::allocator<std::_List_nod<FireTime,std::allocator<FireTime> >::_Node>,std::_List_nod<FireTime,std::allocator<FireTime> >::_Node>
_TEXT	ENDS
PUBLIC	?erase@?$list@UFireTime@@V?$allocator@UFireTime@@@std@@@std@@QAE?AV?$_List_iterator@V?$_List_val@UFireTime@@V?$allocator@UFireTime@@@std@@@std@@@2@V?$_List_const_iterator@V?$_List_val@UFireTime@@V?$allocator@UFireTime@@@std@@@std@@@2@@Z ; std::list<FireTime,std::allocator<FireTime> >::erase
; Function compile flags: /Ogsp
; File c:\program files (x86)\microsoft visual studio 10.0\vc\include\list
;	COMDAT ?erase@?$list@UFireTime@@V?$allocator@UFireTime@@@std@@@std@@QAE?AV?$_List_iterator@V?$_List_val@UFireTime@@V?$allocator@UFireTime@@@std@@@std@@@2@V?$_List_const_iterator@V?$_List_val@UFireTime@@V?$allocator@UFireTime@@@std@@@std@@@2@@Z
_TEXT	SEGMENT
___$ReturnUdt$ = 8					; size = 4
__Where$ = 12						; size = 4
?erase@?$list@UFireTime@@V?$allocator@UFireTime@@@std@@@std@@QAE?AV?$_List_iterator@V?$_List_val@UFireTime@@V?$allocator@UFireTime@@@std@@@std@@@2@V?$_List_const_iterator@V?$_List_val@UFireTime@@V?$allocator@UFireTime@@@std@@@std@@@2@@Z PROC ; std::list<FireTime,std::allocator<FireTime> >::erase, COMDAT
; _this$ = ecx

; 1054 : 		{	// erase element at _Where

  00000	55		 push	 ebp
  00001	8b ec		 mov	 ebp, esp
  00003	56		 push	 esi

; 1055 :  #if _ITERATOR_DEBUG_LEVEL == 2
; 1056 : 		if (_Where._Getcont() != this || _Where._Ptr == this->_Myhead)
; 1057 : 			_DEBUG_ERROR("list erase iterator outside range");
; 1058 : 		_Nodeptr _Pnode = (_Where++)._Mynode();
; 1059 : 		_Orphan_ptr(*this, _Pnode);
; 1060 : 
; 1061 :  #else /* _ITERATOR_DEBUG_LEVEL == 2 */
; 1062 : 		_Nodeptr _Pnode = (_Where++)._Mynode();

  00004	8b 75 0c	 mov	 esi, DWORD PTR __Where$[ebp]
  00007	8b 06		 mov	 eax, DWORD PTR [esi]
  00009	57		 push	 edi
  0000a	8b f9		 mov	 edi, ecx
  0000c	89 45 0c	 mov	 DWORD PTR __Where$[ebp], eax

; 1063 :  #endif /* _ITERATOR_DEBUG_LEVEL == 2 */
; 1064 : 
; 1065 : 		if (_Pnode != this->_Myhead)

  0000f	3b 37		 cmp	 esi, DWORD PTR [edi]
  00011	74 21		 je	 SHORT $LN1@erase

; 1066 : 			{	// not list head, safe to erase
; 1067 : 			this->_Nextnode(this->_Prevnode(_Pnode)) =
; 1068 : 				this->_Nextnode(_Pnode);

  00013	8b 46 04	 mov	 eax, DWORD PTR [esi+4]
  00016	8b 0e		 mov	 ecx, DWORD PTR [esi]
  00018	89 08		 mov	 DWORD PTR [eax], ecx

; 1069 : 			this->_Prevnode(this->_Nextnode(_Pnode)) =
; 1070 : 				this->_Prevnode(_Pnode);

  0001a	8b 4e 04	 mov	 ecx, DWORD PTR [esi+4]
  0001d	8b 06		 mov	 eax, DWORD PTR [esi]
  0001f	89 48 04	 mov	 DWORD PTR [eax+4], ecx

; 1071 : 
; 1072 : 			_Dest_val(this->_Alnod, _Pnode);

  00022	8d 4e 08	 lea	 ecx, DWORD PTR [esi+8]
  00025	e8 00 00 00 00	 call	 ??1FireTime@@QAE@XZ

; 1073 : 			this->_Alnod.deallocate(_Pnode, 1);

  0002a	56		 push	 esi
  0002b	e8 00 00 00 00	 call	 ??3@YAXPAX@Z		; operator delete

; 1074 : 
; 1075 : 			--this->_Mysize;

  00030	ff 4f 04	 dec	 DWORD PTR [edi+4]
  00033	59		 pop	 ecx
$LN1@erase:

; 1076 : 			}
; 1077 : 		return (_Make_iter(_Where));

  00034	8b 45 08	 mov	 eax, DWORD PTR ___$ReturnUdt$[ebp]
  00037	8b 4d 0c	 mov	 ecx, DWORD PTR __Where$[ebp]
  0003a	5f		 pop	 edi
  0003b	89 08		 mov	 DWORD PTR [eax], ecx
  0003d	5e		 pop	 esi

; 1078 : 		}

  0003e	5d		 pop	 ebp
  0003f	c2 08 00	 ret	 8
?erase@?$list@UFireTime@@V?$allocator@UFireTime@@@std@@@std@@QAE?AV?$_List_iterator@V?$_List_val@UFireTime@@V?$allocator@UFireTime@@@std@@@std@@@2@V?$_List_const_iterator@V?$_List_val@UFireTime@@V?$allocator@UFireTime@@@std@@@std@@@2@@Z ENDP ; std::list<FireTime,std::allocator<FireTime> >::erase
_TEXT	ENDS
PUBLIC	??_C@_00CNPNBAHC@?$AA@				; `string'
PUBLIC	__real@4f800000
EXTRN	?SetZoneValue@ioZoneEffectWeapon@@QAEX_N0@Z:PROC ; ioZoneEffectWeapon::SetZoneValue
EXTRN	?SetCollisionDir@ioZoneEffectWeapon@@QAEXAAUD3DXVECTOR3@@@Z:PROC ; ioZoneEffectWeapon::SetCollisionDir
EXTRN	?GetOwner@ioWeapon@@QBEPAVioBaseChar@@XZ:PROC	; ioWeapon::GetOwner
EXTRN	?SetPosition@ioWeapon@@QAEXABUD3DXVECTOR3@@@Z:PROC ; ioWeapon::SetPosition
EXTRN	?ExtendFireExplicit@ioBaseChar@@QAEPAVioWeapon@@ABUFireTime@@ABUD3DXVECTOR3@@1ABVioHashString@@@Z:PROC ; ioBaseChar::ExtendFireExplicit
EXTRN	__imp_??0ioHashString@@QAE@PBD@Z:PROC
EXTRN	?GetMidPositionByRate@ioGameEntity@@QBE?AUD3DXVECTOR3@@M@Z:PROC ; ioGameEntity::GetMidPositionByRate
EXTRN	__EH_epilog3_GS:PROC
EXTRN	__EH_prolog3_GS:PROC
;	COMDAT ??_C@_00CNPNBAHC@?$AA@
CONST	SEGMENT
??_C@_00CNPNBAHC@?$AA@ DB 00H				; `string'
CONST	ENDS
;	COMDAT __real@4f800000
CONST	SEGMENT
__real@4f800000 DD 04f800000r			; 4.29497e+009
CONST	ENDS
;	COMDAT xdata$x
xdata$x	SEGMENT
__unwindtable$?ProcessAttackState@ioOwnerControlDummy5@@MAEXMK@Z DD 0ffffffffH
	DD	FLAT:__unwindfunclet$?ProcessAttackState@ioOwnerControlDummy5@@MAEXMK@Z$0
__ehfuncinfo$?ProcessAttackState@ioOwnerControlDummy5@@MAEXMK@Z DD 019930522H
	DD	01H
	DD	FLAT:__unwindtable$?ProcessAttackState@ioOwnerControlDummy5@@MAEXMK@Z
	DD	2 DUP(00H)
	DD	2 DUP(00H)
	DD	00H
	DD	01H
; Function compile flags: /Ogsp
; File d:\lost saga for developer\youtube\tutorial\source\src\lsclient\ioownercontroldummy5.cpp
xdata$x	ENDS
;	COMDAT ?ProcessAttackState@ioOwnerControlDummy5@@MAEXMK@Z
_TEXT	SEGMENT
$T532612 = -108						; size = 16
$T532614 = -92						; size = 4
_pOwner$ = -88						; size = 4
_dwCurTime$ = -84					; size = 4
tv550 = -80						; size = 4
tv546 = -80						; size = 4
tv542 = -80						; size = 4
tv528 = -80						; size = 4
tv524 = -80						; size = 4
tv520 = -80						; size = 4
_vDir$531021 = -76					; size = 12
$T531022 = -64						; size = 12
$T531018 = -52						; size = 12
$T530846 = -52						; size = 12
_vCurPos$ = -40						; size = 12
_vCurDir$ = -28						; size = 12
__$EHRec$ = -12						; size = 12
_fTimePerSec$ = 8					; size = 4
_dwPreTime$ = 12					; size = 4
?ProcessAttackState@ioOwnerControlDummy5@@MAEXMK@Z PROC	; ioOwnerControlDummy5::ProcessAttackState, COMDAT
; _this$ = ecx

; 205  : {

  00000	6a 60		 push	 96			; 00000060H
  00002	b8 00 00 00 00	 mov	 eax, __ehhandler$?ProcessAttackState@ioOwnerControlDummy5@@MAEXMK@Z
  00007	e8 00 00 00 00	 call	 __EH_prolog3_GS
  0000c	8b f1		 mov	 esi, ecx

; 206  : 	ioBaseChar *pOwner = GetOwner();

  0000e	e8 00 00 00 00	 call	 ?GetOwner@ioDummyChar@@QBEPAVioBaseChar@@XZ ; ioDummyChar::GetOwner
  00013	89 45 a8	 mov	 DWORD PTR _pOwner$[ebp], eax

; 207  : 	if ( !pOwner )

  00016	85 c0		 test	 eax, eax
  00018	0f 84 00 02 00
	00		 je	 $LN3@ProcessAtt

; 208  : 		return;
; 209  : 	DWORD dwCurTime = FRAMEGETTIME();

  0001e	ff 15 00 00 00
	00		 call	 DWORD PTR __imp_?GetSingleton@ioFrameTimer@@SAAAV1@XZ
  00024	8b c8		 mov	 ecx, eax
  00026	ff 15 00 00 00
	00		 call	 DWORD PTR __imp_?GetLoopSec@ioFrameTimer@@QBEKXZ

; 210  : 
; 211  : 	D3DXVECTOR3 vCurDir = GetWorldOrientation() * D3DXVECTOR3( 0.0f, 0.0f, -1.0f );

  0002c	0f 57 c0	 xorps	 xmm0, xmm0
  0002f	89 45 ac	 mov	 DWORD PTR _dwCurTime$[ebp], eax
  00032	8d 45 cc	 lea	 eax, DWORD PTR $T530846[ebp]
  00035	f3 0f 11 45 cc	 movss	 DWORD PTR $T530846[ebp], xmm0
  0003a	f3 0f 11 45 d0	 movss	 DWORD PTR $T530846[ebp+4], xmm0
  0003f	f3 0f 10 05 00
	00 00 00	 movss	 xmm0, DWORD PTR __real@bf800000
  00047	50		 push	 eax
  00048	8b 06		 mov	 eax, DWORD PTR [esi]
  0004a	8b ce		 mov	 ecx, esi
  0004c	f3 0f 11 45 d4	 movss	 DWORD PTR $T530846[ebp+8], xmm0
  00051	ff 50 74	 call	 DWORD PTR [eax+116]
  00054	50		 push	 eax
  00055	8d 45 e4	 lea	 eax, DWORD PTR _vCurDir$[ebp]
  00058	50		 push	 eax
  00059	ff 15 00 00 00
	00		 call	 DWORD PTR __imp_??D@YA?AUD3DXVECTOR3@@ABUD3DXQUATERNION@@ABU0@@Z
  0005f	83 c4 0c	 add	 esp, 12			; 0000000cH

; 212  : 	D3DXVec3Normalize( &vCurDir, &vCurDir );

  00062	8d 45 e4	 lea	 eax, DWORD PTR _vCurDir$[ebp]
  00065	50		 push	 eax
  00066	50		 push	 eax
  00067	e8 00 00 00 00	 call	 _D3DXVec3Normalize@8

; 213  : 
; 214  : 	D3DXVECTOR3 vCurPos = GetMidPositionByRate();

  0006c	b8 05 00 00 00	 mov	 eax, 5
  00071	8b c8		 mov	 ecx, eax
  00073	b8 0a 00 00 00	 mov	 eax, 10			; 0000000aH
  00078	89 4d b0	 mov	 DWORD PTR tv550[ebp], ecx
  0007b	db 45 b0	 fild	 DWORD PTR tv550[ebp]
  0007e	85 c9		 test	 ecx, ecx
  00080	79 06		 jns	 SHORT $LN69@ProcessAtt
  00082	d8 05 00 00 00
	00		 fadd	 DWORD PTR __real@4f800000
$LN69@ProcessAtt:
  00088	89 45 b0	 mov	 DWORD PTR tv546[ebp], eax
  0008b	db 45 b0	 fild	 DWORD PTR tv546[ebp]
  0008e	85 c0		 test	 eax, eax
  00090	79 06		 jns	 SHORT $LN70@ProcessAtt
  00092	d8 05 00 00 00
	00		 fadd	 DWORD PTR __real@4f800000
$LN70@ProcessAtt:
  00098	de f9		 fdivp	 ST(1), ST(0)
  0009a	51		 push	 ecx
  0009b	8d 45 d8	 lea	 eax, DWORD PTR _vCurPos$[ebp]
  0009e	8b ce		 mov	 ecx, esi
  000a0	d9 5d b0	 fstp	 DWORD PTR tv542[ebp]
  000a3	d9 45 b0	 fld	 DWORD PTR tv542[ebp]
  000a6	d9 1c 24	 fstp	 DWORD PTR [esp]
  000a9	50		 push	 eax
  000aa	e8 00 00 00 00	 call	 ?GetMidPositionByRate@ioGameEntity@@QBE?AUD3DXVECTOR3@@M@Z ; ioGameEntity::GetMidPositionByRate

; 215  : 
; 216  : 	DWORD dwLastFireTime = dwPreTime;
; 217  : 	FireTimeList::iterator iter = m_vAttackFireTimeList.begin();

  000af	8b 86 78 05 00
	00		 mov	 eax, DWORD PTR [esi+1400]
  000b5	8b 38		 mov	 edi, DWORD PTR [eax]

; 218  : 	while( iter != m_vAttackFireTimeList.end() )

  000b7	3b f8		 cmp	 edi, eax
  000b9	0f 84 31 01 00
	00		 je	 $LN10@ProcessAtt
$LL11@ProcessAtt:

; 219  : 	{
; 220  : 		const FireTime &rkFire = *iter;

  000bf	8d 5f 08	 lea	 ebx, DWORD PTR [edi+8]

; 221  : 
; 222  : 		DWORD dwFireTime = rkFire.dwStart;

  000c2	8b 03		 mov	 eax, DWORD PTR [ebx]

; 223  : 		if( COMPARE( dwFireTime, dwPreTime, dwCurTime ) )

  000c4	3b 45 0c	 cmp	 eax, DWORD PTR _dwPreTime$[ebp]
  000c7	0f 82 15 01 00
	00		 jb	 $LN9@ProcessAtt
  000cd	3b 45 ac	 cmp	 eax, DWORD PTR _dwCurTime$[ebp]
  000d0	0f 83 0c 01 00
	00		 jae	 $LN9@ProcessAtt

; 224  : 		{
; 225  : 			if( rkFire.iAttributeIdx != NO_WEAPON_ATTRIBUTE )

  000d6	83 7b 08 00	 cmp	 DWORD PTR [ebx+8], 0
  000da	0f 84 ee 00 00
	00		 je	 $LN5@ProcessAtt

; 226  : 			{
; 227  : 				ioWeapon *pWeapon = NULL;
; 228  : 				pWeapon = pOwner->ExtendFireExplicit( rkFire, vCurPos, vCurDir, "" );

  000e0	68 00 00 00 00	 push	 OFFSET ??_C@_00CNPNBAHC@?$AA@
  000e5	8d 4d 94	 lea	 ecx, DWORD PTR $T532612[ebp]
  000e8	ff 15 00 00 00
	00		 call	 DWORD PTR __imp_??0ioHashString@@QAE@PBD@Z
  000ee	8b 4d a8	 mov	 ecx, DWORD PTR _pOwner$[ebp]
  000f1	83 65 fc 00	 and	 DWORD PTR __$EHRec$[ebp+8], 0
  000f5	8d 45 94	 lea	 eax, DWORD PTR $T532612[ebp]
  000f8	50		 push	 eax
  000f9	8d 45 e4	 lea	 eax, DWORD PTR _vCurDir$[ebp]
  000fc	50		 push	 eax
  000fd	8d 45 d8	 lea	 eax, DWORD PTR _vCurPos$[ebp]
  00100	50		 push	 eax
  00101	53		 push	 ebx
  00102	e8 00 00 00 00	 call	 ?ExtendFireExplicit@ioBaseChar@@QAEPAVioWeapon@@ABUFireTime@@ABUD3DXVECTOR3@@1ABVioHashString@@@Z ; ioBaseChar::ExtendFireExplicit
  00107	83 4d fc ff	 or	 DWORD PTR __$EHRec$[ebp+8], -1
  0010b	8d 4d 94	 lea	 ecx, DWORD PTR $T532612[ebp]
  0010e	8b d8		 mov	 ebx, eax
  00110	ff 15 00 00 00
	00		 call	 DWORD PTR __imp_??1ioHashString@@QAE@XZ

; 229  : 
; 230  : 				if( pWeapon )

  00116	85 db		 test	 ebx, ebx
  00118	0f 84 b0 00 00
	00		 je	 $LN5@ProcessAtt

; 231  : 				{
; 232  : 					ioZoneEffectWeapon *pZone = ToZoneEffectWeapon( pWeapon );

  0011e	53		 push	 ebx
  0011f	e8 00 00 00 00	 call	 ?ToZoneEffectWeapon@@YAPAVioZoneEffectWeapon@@PAVioWeapon@@@Z ; ToZoneEffectWeapon
  00124	8b d8		 mov	 ebx, eax
  00126	59		 pop	 ecx

; 233  : 					if( pZone )

  00127	85 db		 test	 ebx, ebx
  00129	0f 84 9f 00 00
	00		 je	 $LN5@ProcessAtt

; 234  : 					{
; 235  : 						pZone->SetPosition( GetMidPositionByRate() );

  0012f	b8 05 00 00 00	 mov	 eax, 5
  00134	8b c8		 mov	 ecx, eax
  00136	b8 0a 00 00 00	 mov	 eax, 10			; 0000000aH
  0013b	89 4d b0	 mov	 DWORD PTR tv528[ebp], ecx
  0013e	db 45 b0	 fild	 DWORD PTR tv528[ebp]
  00141	85 c9		 test	 ecx, ecx
  00143	79 06		 jns	 SHORT $LN71@ProcessAtt
  00145	d8 05 00 00 00
	00		 fadd	 DWORD PTR __real@4f800000
$LN71@ProcessAtt:
  0014b	89 45 b0	 mov	 DWORD PTR tv524[ebp], eax
  0014e	db 45 b0	 fild	 DWORD PTR tv524[ebp]
  00151	85 c0		 test	 eax, eax
  00153	79 06		 jns	 SHORT $LN72@ProcessAtt
  00155	d8 05 00 00 00
	00		 fadd	 DWORD PTR __real@4f800000
$LN72@ProcessAtt:
  0015b	de f9		 fdivp	 ST(1), ST(0)
  0015d	51		 push	 ecx
  0015e	8d 45 cc	 lea	 eax, DWORD PTR $T531018[ebp]
  00161	8b ce		 mov	 ecx, esi
  00163	d9 5d b0	 fstp	 DWORD PTR tv520[ebp]
  00166	d9 45 b0	 fld	 DWORD PTR tv520[ebp]
  00169	d9 1c 24	 fstp	 DWORD PTR [esp]
  0016c	50		 push	 eax
  0016d	e8 00 00 00 00	 call	 ?GetMidPositionByRate@ioGameEntity@@QBE?AUD3DXVECTOR3@@M@Z ; ioGameEntity::GetMidPositionByRate
  00172	50		 push	 eax
  00173	8b cb		 mov	 ecx, ebx
  00175	e8 00 00 00 00	 call	 ?SetPosition@ioWeapon@@QAEXABUD3DXVECTOR3@@@Z ; ioWeapon::SetPosition

; 236  : 						ioBaseChar *pChar = pZone->GetOwner();

  0017a	8b cb		 mov	 ecx, ebx
  0017c	e8 00 00 00 00	 call	 ?GetOwner@ioWeapon@@QBEPAVioBaseChar@@XZ ; ioWeapon::GetOwner

; 237  : 						if( pChar )

  00181	85 c0		 test	 eax, eax
  00183	74 49		 je	 SHORT $LN5@ProcessAtt

; 238  : 						{
; 239  : 							D3DXVECTOR3 vDir = GetWorldOrientation() * D3DXVECTOR3( 0.0f, 0.0f, -1.0f );

  00185	0f 57 c0	 xorps	 xmm0, xmm0
  00188	8d 45 c0	 lea	 eax, DWORD PTR $T531022[ebp]
  0018b	f3 0f 11 45 c0	 movss	 DWORD PTR $T531022[ebp], xmm0
  00190	f3 0f 11 45 c4	 movss	 DWORD PTR $T531022[ebp+4], xmm0
  00195	f3 0f 10 05 00
	00 00 00	 movss	 xmm0, DWORD PTR __real@bf800000
  0019d	50		 push	 eax
  0019e	8b 06		 mov	 eax, DWORD PTR [esi]
  001a0	8b ce		 mov	 ecx, esi
  001a2	f3 0f 11 45 c8	 movss	 DWORD PTR $T531022[ebp+8], xmm0
  001a7	ff 50 74	 call	 DWORD PTR [eax+116]
  001aa	50		 push	 eax
  001ab	8d 45 b4	 lea	 eax, DWORD PTR _vDir$531021[ebp]
  001ae	50		 push	 eax
  001af	ff 15 00 00 00
	00		 call	 DWORD PTR __imp_??D@YA?AUD3DXVECTOR3@@ABUD3DXQUATERNION@@ABU0@@Z
  001b5	83 c4 0c	 add	 esp, 12			; 0000000cH

; 240  : 							pZone->SetCollisionDir( vDir );

  001b8	8d 45 b4	 lea	 eax, DWORD PTR _vDir$531021[ebp]
  001bb	50		 push	 eax
  001bc	8b cb		 mov	 ecx, ebx
  001be	e8 00 00 00 00	 call	 ?SetCollisionDir@ioZoneEffectWeapon@@QAEXAAUD3DXVECTOR3@@@Z ; ioZoneEffectWeapon::SetCollisionDir

; 241  : 							pZone->SetZoneValue( true, false );

  001c3	6a 00		 push	 0
  001c5	6a 01		 push	 1
  001c7	8b cb		 mov	 ecx, ebx
  001c9	e8 00 00 00 00	 call	 ?SetZoneValue@ioZoneEffectWeapon@@QAEX_N0@Z ; ioZoneEffectWeapon::SetZoneValue
$LN5@ProcessAtt:

; 242  : 						}
; 243  : 					}
; 244  : 				}
; 245  : 			}
; 246  : 
; 247  : 			iter = m_vAttackFireTimeList.erase( iter );

  001ce	57		 push	 edi
  001cf	8d 45 a4	 lea	 eax, DWORD PTR $T532614[ebp]
  001d2	50		 push	 eax
  001d3	8d 8e 78 05 00
	00		 lea	 ecx, DWORD PTR [esi+1400]
  001d9	e8 00 00 00 00	 call	 ?erase@?$list@UFireTime@@V?$allocator@UFireTime@@@std@@@std@@QAE?AV?$_List_iterator@V?$_List_val@UFireTime@@V?$allocator@UFireTime@@@std@@@std@@@2@V?$_List_const_iterator@V?$_List_val@UFireTime@@V?$allocator@UFireTime@@@std@@@std@@@2@@Z ; std::list<FireTime,std::allocator<FireTime> >::erase
  001de	8b 38		 mov	 edi, DWORD PTR [eax]

; 248  : 		}
; 249  : 		else

  001e0	eb 02		 jmp	 SHORT $LN62@ProcessAtt
$LN9@ProcessAtt:

; 250  : 		{
; 251  : 			++iter;

  001e2	8b 3f		 mov	 edi, DWORD PTR [edi]
$LN62@ProcessAtt:

; 218  : 	while( iter != m_vAttackFireTimeList.end() )

  001e4	3b be 78 05 00
	00		 cmp	 edi, DWORD PTR [esi+1400]
  001ea	0f 85 cf fe ff
	ff		 jne	 $LL11@ProcessAtt
$LN10@ProcessAtt:

; 252  : 		}
; 253  : 	}
; 254  : 
; 255  : 	//
; 256  : 	if( m_dwAttackAniEndTime == 0 || m_dwAttackAniEndTime < dwCurTime )

  001f0	8b 86 e8 06 00
	00		 mov	 eax, DWORD PTR [esi+1768]
  001f6	85 c0		 test	 eax, eax
  001f8	74 05		 je	 SHORT $LN2@ProcessAtt
  001fa	3b 45 ac	 cmp	 eax, DWORD PTR _dwCurTime$[ebp]
  001fd	73 1f		 jae	 SHORT $LN3@ProcessAtt
$LN2@ProcessAtt:

; 257  : 	{
; 258  : 		if ( m_dwAttackTicTime != 0 )

  001ff	8b 86 84 14 00
	00		 mov	 eax, DWORD PTR [esi+5252]
  00205	85 c0		 test	 eax, eax
  00207	74 09		 je	 SHORT $LN1@ProcessAtt

; 259  : 			m_dwAttackStartTime = dwCurTime + m_dwAttackTicTime;

  00209	03 45 ac	 add	 eax, DWORD PTR _dwCurTime$[ebp]
  0020c	89 86 80 14 00
	00		 mov	 DWORD PTR [esi+5248], eax
$LN1@ProcessAtt:

; 260  : 		SetDelayState( false );

  00212	8b 06		 mov	 eax, DWORD PTR [esi]
  00214	6a 00		 push	 0
  00216	8b ce		 mov	 ecx, esi
  00218	ff 90 14 01 00
	00		 call	 DWORD PTR [eax+276]
$LN3@ProcessAtt:

; 261  : 		return;
; 262  : 	}
; 263  : }

  0021e	e8 00 00 00 00	 call	 __EH_epilog3_GS
  00223	c2 08 00	 ret	 8
_TEXT	ENDS
;	COMDAT text$x
text$x	SEGMENT
__unwindfunclet$?ProcessAttackState@ioOwnerControlDummy5@@MAEXMK@Z$0:
  00000	8d 4d 94	 lea	 ecx, DWORD PTR $T532612[ebp]
  00003	ff 25 00 00 00
	00		 jmp	 DWORD PTR __imp_??1ioHashString@@QAE@XZ
__ehhandler$?ProcessAttackState@ioOwnerControlDummy5@@MAEXMK@Z:
  00009	8b 54 24 08	 mov	 edx, DWORD PTR [esp+8]
  0000d	8d 42 0c	 lea	 eax, DWORD PTR [edx+12]
  00010	8b 4a 90	 mov	 ecx, DWORD PTR [edx-112]
  00013	33 c8		 xor	 ecx, eax
  00015	e8 00 00 00 00	 call	 @__security_check_cookie@4
  0001a	8b 4a fc	 mov	 ecx, DWORD PTR [edx-4]
  0001d	33 c8		 xor	 ecx, eax
  0001f	e8 00 00 00 00	 call	 @__security_check_cookie@4
  00024	b8 00 00 00 00	 mov	 eax, OFFSET __ehfuncinfo$?ProcessAttackState@ioOwnerControlDummy5@@MAEXMK@Z
  00029	e9 00 00 00 00	 jmp	 ___CxxFrameHandler3
text$x	ENDS
?ProcessAttackState@ioOwnerControlDummy5@@MAEXMK@Z ENDP	; ioOwnerControlDummy5::ProcessAttackState
END
