; Listing generated by Microsoft (R) Optimizing Compiler Version 16.00.30319.01 

	TITLE	D:\Lost Saga For Developer\Youtube\Tutorial\Source\src\LSClient\ioOwnerControlDummy2.cpp
	.686P
	.XMM
	include listing.inc
	.model	flat

INCLUDELIB MSVCRT
INCLUDELIB OLDNAMES

PUBLIC	?_EEM_DS@?$deque@UD3DXVECTOR3@@V?$allocator@UD3DXVECTOR3@@@std@@@std@@2HB ; std::deque<D3DXVECTOR3,std::allocator<D3DXVECTOR3> >::_EEM_DS
PUBLIC	?_EEM_DS@?$deque@MV?$allocator@M@std@@@std@@2HB	; std::deque<float,std::allocator<float> >::_EEM_DS
PUBLIC	?_VBITS@?$vector@_NV?$allocator@_N@std@@@std@@2HB ; std::vector<bool,std::allocator<bool> >::_VBITS
;	COMDAT ?_VBITS@?$vector@_NV?$allocator@_N@std@@@std@@2HB
CONST	SEGMENT
?_VBITS@?$vector@_NV?$allocator@_N@std@@@std@@2HB DD 020H ; std::vector<bool,std::allocator<bool> >::_VBITS
CONST	ENDS
;	COMDAT ?_EEM_DS@?$deque@MV?$allocator@M@std@@@std@@2HB
CONST	SEGMENT
?_EEM_DS@?$deque@MV?$allocator@M@std@@@std@@2HB DD 04H	; std::deque<float,std::allocator<float> >::_EEM_DS
CONST	ENDS
;	COMDAT ?_EEM_DS@?$deque@UD3DXVECTOR3@@V?$allocator@UD3DXVECTOR3@@@std@@@std@@2HB
CONST	SEGMENT
?_EEM_DS@?$deque@UD3DXVECTOR3@@V?$allocator@UD3DXVECTOR3@@@std@@@std@@2HB DD 01H ; std::deque<D3DXVECTOR3,std::allocator<D3DXVECTOR3> >::_EEM_DS
CONST	ENDS
PUBLIC	?return1@@YAIXZ					; return1
; Function compile flags: /Ogsp
; File d:\lost saga for developer\youtube\tutorial\source\src\lsclient\stdafx.h
;	COMDAT ?return1@@YAIXZ
_TEXT	SEGMENT
?return1@@YAIXZ PROC					; return1, COMDAT

; 17   : 	__forceinline unsigned int return1() { __asm mov eax, 1 };

  00000	b8 01 00 00 00	 mov	 eax, 1
  00005	c3		 ret	 0
?return1@@YAIXZ ENDP					; return1
_TEXT	ENDS
PUBLIC	?return10@@YAIXZ				; return10
; Function compile flags: /Ogsp
;	COMDAT ?return10@@YAIXZ
_TEXT	SEGMENT
?return10@@YAIXZ PROC					; return10, COMDAT

; 21   : 	__forceinline unsigned int return10() { __asm mov eax, 10 };

  00000	b8 0a 00 00 00	 mov	 eax, 10			; 0000000aH
  00005	c3		 ret	 0
?return10@@YAIXZ ENDP					; return10
_TEXT	ENDS
PUBLIC	?return360@@YAIXZ				; return360
; Function compile flags: /Ogsp
;	COMDAT ?return360@@YAIXZ
_TEXT	SEGMENT
?return360@@YAIXZ PROC					; return360, COMDAT

; 27   : 	__forceinline unsigned int return360() { __asm mov eax, 360 };

  00000	b8 68 01 00 00	 mov	 eax, 360		; 00000168H
  00005	c3		 ret	 0
?return360@@YAIXZ ENDP					; return360
_TEXT	ENDS
PUBLIC	?GetEquipSlot@ioBaseChar@@QAEPAVioEquipSlot@@XZ	; ioBaseChar::GetEquipSlot
; Function compile flags: /Ogsp
; File d:\lost saga for developer\youtube\tutorial\source\src\lsclient\iobasechar.h
;	COMDAT ?GetEquipSlot@ioBaseChar@@QAEPAVioEquipSlot@@XZ
_TEXT	SEGMENT
?GetEquipSlot@ioBaseChar@@QAEPAVioEquipSlot@@XZ PROC	; ioBaseChar::GetEquipSlot, COMDAT
; _this$ = ecx

; 1871 : 	ioEquipSlot* GetEquipSlot() { return m_pEquipSlot; }

  00000	8b 81 48 03 00
	00		 mov	 eax, DWORD PTR [ecx+840]
  00006	c3		 ret	 0
?GetEquipSlot@ioBaseChar@@QAEPAVioEquipSlot@@XZ ENDP	; ioBaseChar::GetEquipSlot
_TEXT	ENDS
PUBLIC	_fabsf
EXTRN	__fltused:DWORD
; Function compile flags: /Ogsp
; File c:\program files (x86)\microsoft visual studio 10.0\vc\include\math.h
;	COMDAT _fabsf
_TEXT	SEGMENT
tv129 = 8						; size = 4
__X$ = 8						; size = 4
_fabsf	PROC						; COMDAT

; 395  :         {return ((float)fabs((double)_X)); }

  00000	55		 push	 ebp
  00001	8b ec		 mov	 ebp, esp
  00003	d9 45 08	 fld	 DWORD PTR __X$[ebp]
  00006	d9 e1		 fabs
  00008	d9 5d 08	 fstp	 DWORD PTR tv129[ebp]
  0000b	d9 45 08	 fld	 DWORD PTR tv129[ebp]
  0000e	5d		 pop	 ebp
  0000f	c3		 ret	 0
_fabsf	ENDP
_TEXT	ENDS
PUBLIC	?fabs@@YAMM@Z					; fabs
; Function compile flags: /Ogsp
;	COMDAT ?fabs@@YAMM@Z
_TEXT	SEGMENT
tv131 = 8						; size = 4
__X$ = 8						; size = 4
?fabs@@YAMM@Z PROC					; fabs, COMDAT

; 518  :         {return (fabsf(_X)); }

  00000	55		 push	 ebp
  00001	8b ec		 mov	 ebp, esp
  00003	d9 45 08	 fld	 DWORD PTR __X$[ebp]
  00006	d9 e1		 fabs
  00008	d9 5d 08	 fstp	 DWORD PTR tv131[ebp]
  0000b	d9 45 08	 fld	 DWORD PTR tv131[ebp]
  0000e	5d		 pop	 ebp
  0000f	c3		 ret	 0
?fabs@@YAMM@Z ENDP					; fabs
_TEXT	ENDS
PUBLIC	?GetCreator@ioBaseChar@@QAEPAVioPlayStage@@XZ	; ioBaseChar::GetCreator
; Function compile flags: /Ogsp
; File d:\lost saga for developer\youtube\tutorial\source\src\lsclient\iobasechar.h
;	COMDAT ?GetCreator@ioBaseChar@@QAEPAVioPlayStage@@XZ
_TEXT	SEGMENT
?GetCreator@ioBaseChar@@QAEPAVioPlayStage@@XZ PROC	; ioBaseChar::GetCreator, COMDAT
; _this$ = ecx

; 4013 : 	inline ioPlayStage* GetCreator() { return m_pCreator; }

  00000	8b 81 44 03 00
	00		 mov	 eax, DWORD PTR [ecx+836]
  00006	c3		 ret	 0
?GetCreator@ioBaseChar@@QAEPAVioPlayStage@@XZ ENDP	; ioBaseChar::GetCreator
_TEXT	ENDS
PUBLIC	??0D3DXQUATERNION@@QAE@XZ			; D3DXQUATERNION::D3DXQUATERNION
; Function compile flags: /Ogsp
; File c:\program files (x86)\microsoft directx sdk (june 2010)\include\d3dx9math.h
;	COMDAT ??0D3DXQUATERNION@@QAE@XZ
_TEXT	SEGMENT
??0D3DXQUATERNION@@QAE@XZ PROC				; D3DXQUATERNION::D3DXQUATERNION, COMDAT
; _this$ = ecx

; 429  :     D3DXQUATERNION() {}

  00000	8b c1		 mov	 eax, ecx
  00002	c3		 ret	 0
??0D3DXQUATERNION@@QAE@XZ ENDP				; D3DXQUATERNION::D3DXQUATERNION
_TEXT	ENDS
PUBLIC	??0D3DXVECTOR3@@QAE@MMM@Z			; D3DXVECTOR3::D3DXVECTOR3
; Function compile flags: /Ogsp
; File c:\program files (x86)\microsoft directx sdk (june 2010)\include\d3dx9math.inl
;	COMDAT ??0D3DXVECTOR3@@QAE@MMM@Z
_TEXT	SEGMENT
_fx$ = 8						; size = 4
_fy$ = 12						; size = 4
_fz$ = 16						; size = 4
??0D3DXVECTOR3@@QAE@MMM@Z PROC				; D3DXVECTOR3::D3DXVECTOR3, COMDAT
; _this$ = ecx

; 303  : {

  00000	55		 push	 ebp
  00001	8b ec		 mov	 ebp, esp

; 304  :     x = fx;

  00003	f3 0f 10 45 08	 movss	 xmm0, DWORD PTR _fx$[ebp]
  00008	8b c1		 mov	 eax, ecx
  0000a	f3 0f 11 00	 movss	 DWORD PTR [eax], xmm0

; 305  :     y = fy;

  0000e	f3 0f 10 45 0c	 movss	 xmm0, DWORD PTR _fy$[ebp]
  00013	f3 0f 11 40 04	 movss	 DWORD PTR [eax+4], xmm0

; 306  :     z = fz;

  00018	f3 0f 10 45 10	 movss	 xmm0, DWORD PTR _fz$[ebp]
  0001d	f3 0f 11 40 08	 movss	 DWORD PTR [eax+8], xmm0

; 307  : }

  00022	5d		 pop	 ebp
  00023	c2 0c 00	 ret	 12			; 0000000cH
??0D3DXVECTOR3@@QAE@MMM@Z ENDP				; D3DXVECTOR3::D3DXVECTOR3
_TEXT	ENDS
PUBLIC	??YD3DXVECTOR3@@QAEAAU0@ABU0@@Z			; D3DXVECTOR3::operator+=
; Function compile flags: /Ogsp
;	COMDAT ??YD3DXVECTOR3@@QAEAAU0@ABU0@@Z
_TEXT	SEGMENT
_v$ = 8							; size = 4
??YD3DXVECTOR3@@QAEAAU0@ABU0@@Z PROC			; D3DXVECTOR3::operator+=, COMDAT
; _this$ = ecx

; 327  : {

  00000	55		 push	 ebp
  00001	8b ec		 mov	 ebp, esp
  00003	8b c1		 mov	 eax, ecx

; 328  :     x += v.x;

  00005	8b 4d 08	 mov	 ecx, DWORD PTR _v$[ebp]
  00008	f3 0f 10 01	 movss	 xmm0, DWORD PTR [ecx]
  0000c	f3 0f 10 08	 movss	 xmm1, DWORD PTR [eax]
  00010	0f 5a c0	 cvtps2pd xmm0, xmm0
  00013	0f 5a c9	 cvtps2pd xmm1, xmm1
  00016	f2 0f 58 c1	 addsd	 xmm0, xmm1

; 329  :     y += v.y;

  0001a	f3 0f 10 48 04	 movss	 xmm1, DWORD PTR [eax+4]
  0001f	66 0f 5a c0	 cvtpd2ps xmm0, xmm0
  00023	f3 0f 11 00	 movss	 DWORD PTR [eax], xmm0
  00027	f3 0f 10 41 04	 movss	 xmm0, DWORD PTR [ecx+4]
  0002c	0f 5a c0	 cvtps2pd xmm0, xmm0
  0002f	0f 5a c9	 cvtps2pd xmm1, xmm1
  00032	f2 0f 58 c1	 addsd	 xmm0, xmm1

; 330  :     z += v.z;

  00036	f3 0f 10 48 08	 movss	 xmm1, DWORD PTR [eax+8]
  0003b	66 0f 5a c0	 cvtpd2ps xmm0, xmm0
  0003f	f3 0f 11 40 04	 movss	 DWORD PTR [eax+4], xmm0
  00044	f3 0f 10 41 08	 movss	 xmm0, DWORD PTR [ecx+8]
  00049	0f 5a c0	 cvtps2pd xmm0, xmm0
  0004c	0f 5a c9	 cvtps2pd xmm1, xmm1
  0004f	f2 0f 58 c1	 addsd	 xmm0, xmm1
  00053	66 0f 5a c0	 cvtpd2ps xmm0, xmm0
  00057	f3 0f 11 40 08	 movss	 DWORD PTR [eax+8], xmm0

; 331  :     return *this;
; 332  : }

  0005c	5d		 pop	 ebp
  0005d	c2 04 00	 ret	 4
??YD3DXVECTOR3@@QAEAAU0@ABU0@@Z ENDP			; D3DXVECTOR3::operator+=
_TEXT	ENDS
PUBLIC	__mask@@NegFloat@
PUBLIC	??GD3DXVECTOR3@@QBE?AU0@XZ			; D3DXVECTOR3::operator-
;	COMDAT __mask@@NegFloat@
CONST	SEGMENT
__mask@@NegFloat@ DB 00H, 00H, 00H, 080H, 00H, 00H, 00H, 080H, 00H, 00H, 00H
	DB	080H, 00H, 00H, 00H, 080H
; Function compile flags: /Ogsp
CONST	ENDS
;	COMDAT ??GD3DXVECTOR3@@QBE?AU0@XZ
_TEXT	SEGMENT
___$ReturnUdt$ = 8					; size = 4
??GD3DXVECTOR3@@QBE?AU0@XZ PROC				; D3DXVECTOR3::operator-, COMDAT
; _this$ = ecx

; 372  : {

  00000	55		 push	 ebp
  00001	8b ec		 mov	 ebp, esp

; 373  :     return D3DXVECTOR3(-x, -y, -z);

  00003	f3 0f 10 05 00
	00 00 00	 movss	 xmm0, DWORD PTR __mask@@NegFloat@
  0000b	8b 45 08	 mov	 eax, DWORD PTR ___$ReturnUdt$[ebp]
  0000e	f3 0f 10 09	 movss	 xmm1, DWORD PTR [ecx]
  00012	0f 57 c8	 xorps	 xmm1, xmm0
  00015	f3 0f 11 08	 movss	 DWORD PTR [eax], xmm1
  00019	f3 0f 10 49 04	 movss	 xmm1, DWORD PTR [ecx+4]
  0001e	0f 57 c8	 xorps	 xmm1, xmm0
  00021	f3 0f 11 48 04	 movss	 DWORD PTR [eax+4], xmm1
  00026	f3 0f 10 49 08	 movss	 xmm1, DWORD PTR [ecx+8]
  0002b	0f 57 c8	 xorps	 xmm1, xmm0
  0002e	f3 0f 11 48 08	 movss	 DWORD PTR [eax+8], xmm1

; 374  : }

  00033	5d		 pop	 ebp
  00034	c2 04 00	 ret	 4
??GD3DXVECTOR3@@QBE?AU0@XZ ENDP				; D3DXVECTOR3::operator-
_TEXT	ENDS
PUBLIC	??DD3DXVECTOR3@@QBE?AU0@M@Z			; D3DXVECTOR3::operator*
; Function compile flags: /Ogsp
;	COMDAT ??DD3DXVECTOR3@@QBE?AU0@M@Z
_TEXT	SEGMENT
___$ReturnUdt$ = 8					; size = 4
_f$ = 12						; size = 4
??DD3DXVECTOR3@@QBE?AU0@M@Z PROC			; D3DXVECTOR3::operator*, COMDAT
; _this$ = ecx

; 392  : {

  00000	55		 push	 ebp
  00001	8b ec		 mov	 ebp, esp

; 393  :     return D3DXVECTOR3(x * f, y * f, z * f);

  00003	f3 0f 10 4d 0c	 movss	 xmm1, DWORD PTR _f$[ebp]
  00008	f3 0f 10 01	 movss	 xmm0, DWORD PTR [ecx]
  0000c	8b 45 08	 mov	 eax, DWORD PTR ___$ReturnUdt$[ebp]
  0000f	0f 5a c0	 cvtps2pd xmm0, xmm0
  00012	0f 5a c9	 cvtps2pd xmm1, xmm1
  00015	f2 0f 59 c1	 mulsd	 xmm0, xmm1
  00019	f3 0f 10 4d 0c	 movss	 xmm1, DWORD PTR _f$[ebp]
  0001e	66 0f 5a c0	 cvtpd2ps xmm0, xmm0
  00022	f3 0f 11 00	 movss	 DWORD PTR [eax], xmm0
  00026	f3 0f 10 41 04	 movss	 xmm0, DWORD PTR [ecx+4]
  0002b	0f 5a c0	 cvtps2pd xmm0, xmm0
  0002e	0f 5a c9	 cvtps2pd xmm1, xmm1
  00031	f2 0f 59 c1	 mulsd	 xmm0, xmm1
  00035	f3 0f 10 4d 0c	 movss	 xmm1, DWORD PTR _f$[ebp]
  0003a	66 0f 5a c0	 cvtpd2ps xmm0, xmm0
  0003e	f3 0f 11 40 04	 movss	 DWORD PTR [eax+4], xmm0
  00043	f3 0f 10 41 08	 movss	 xmm0, DWORD PTR [ecx+8]
  00048	0f 5a c0	 cvtps2pd xmm0, xmm0
  0004b	0f 5a c9	 cvtps2pd xmm1, xmm1
  0004e	f2 0f 59 c1	 mulsd	 xmm0, xmm1
  00052	66 0f 5a c0	 cvtpd2ps xmm0, xmm0
  00056	f3 0f 11 40 08	 movss	 DWORD PTR [eax+8], xmm0

; 394  : }

  0005b	5d		 pop	 ebp
  0005c	c2 08 00	 ret	 8
??DD3DXVECTOR3@@QBE?AU0@M@Z ENDP			; D3DXVECTOR3::operator*
_TEXT	ENDS
PUBLIC	?ProcessStartState@ioOwnerControlDummy2@@IAEXM@Z ; ioOwnerControlDummy2::ProcessStartState
EXTRN	__imp_?GetLoopSec@ioFrameTimer@@QBEKXZ:PROC
EXTRN	__imp_?GetSingleton@ioFrameTimer@@SAAAV1@XZ:PROC
; Function compile flags: /Ogsp
; File d:\lost saga for developer\youtube\tutorial\source\src\lsclient\ioownercontroldummy2.cpp
;	COMDAT ?ProcessStartState@ioOwnerControlDummy2@@IAEXM@Z
_TEXT	SEGMENT
_fTimePerSec$ = 8					; size = 4
?ProcessStartState@ioOwnerControlDummy2@@IAEXM@Z PROC	; ioOwnerControlDummy2::ProcessStartState, COMDAT
; _this$ = ecx

; 81   : {

  00000	56		 push	 esi
  00001	8b f1		 mov	 esi, ecx

; 82   : 	DWORD dwCurTime = FRAMEGETTIME();

  00003	ff 15 00 00 00
	00		 call	 DWORD PTR __imp_?GetSingleton@ioFrameTimer@@SAAAV1@XZ
  00009	8b c8		 mov	 ecx, eax
  0000b	ff 15 00 00 00
	00		 call	 DWORD PTR __imp_?GetLoopSec@ioFrameTimer@@QBEKXZ

; 83   : 
; 84   : 	if( m_dwStartAniEndTime == 0 || m_dwStartAniEndTime < dwCurTime )

  00011	8b 8e e4 06 00
	00		 mov	 ecx, DWORD PTR [esi+1764]
  00017	33 d2		 xor	 edx, edx
  00019	3b ca		 cmp	 ecx, edx
  0001b	74 04		 je	 SHORT $LN1@ProcessSta
  0001d	3b c8		 cmp	 ecx, eax
  0001f	73 1d		 jae	 SHORT $LN2@ProcessSta
$LN1@ProcessSta:

; 85   : 	{
; 86   : 		m_OwnerControlState = OCS_CONTROL;
; 87   : 		m_dwLostControlTime = 0;
; 88   : 
; 89   : 		m_bSetUpKey = false;
; 90   : 		m_bSetDownKey = false;
; 91   : 		SetMoveState();

  00021	8b 06		 mov	 eax, DWORD PTR [esi]
  00023	8b ce		 mov	 ecx, esi
  00025	89 96 e4 14 00
	00		 mov	 DWORD PTR [esi+5348], edx
  0002b	89 96 b0 14 00
	00		 mov	 DWORD PTR [esi+5296], edx
  00031	66 89 96 58 0d
	00 00		 mov	 WORD PTR [esi+3416], dx
  00038	ff 90 18 01 00
	00		 call	 DWORD PTR [eax+280]
$LN2@ProcessSta:
  0003e	5e		 pop	 esi

; 92   : 		return;
; 93   : 	}
; 94   : }

  0003f	c2 04 00	 ret	 4
?ProcessStartState@ioOwnerControlDummy2@@IAEXM@Z ENDP	; ioOwnerControlDummy2::ProcessStartState
_TEXT	ENDS
PUBLIC	__real@4f800000
PUBLIC	?SetMoveState@ioOwnerControlDummy2@@UAEXXZ	; ioOwnerControlDummy2::SetMoveState
EXTRN	?SetAttachWeapon@ioDummyChar@@IAEXXZ:PROC	; ioDummyChar::SetAttachWeapon
EXTRN	__imp_?SetLoopAni@ioEntityGroup@@QAE_NHMMMM@Z:PROC
EXTRN	__imp_?ClearAllLoopAni@ioEntityGroup@@QAEXM_N@Z:PROC
EXTRN	__imp_?ClearAllActionAni@ioEntityGroup@@QAEXM_N@Z:PROC
EXTRN	__imp_?GetAnimationIdx@ioEntityGroup@@QAEHABVioHashString@@@Z:PROC
EXTRN	__imp_?IsEmpty@ioHashString@@QBE_NXZ:PROC
;	COMDAT __real@4f800000
; File d:\lost saga for developer\youtube\tutorial\source\src\lsclient\stdafx.h
CONST	SEGMENT
__real@4f800000 DD 04f800000r			; 4.29497e+009
; Function compile flags: /Ogsp
; File d:\lost saga for developer\youtube\tutorial\source\src\lsclient\ioownercontroldummy2.cpp
CONST	ENDS
;	COMDAT ?SetMoveState@ioOwnerControlDummy2@@UAEXXZ
_TEXT	SEGMENT
tv198 = -8						; size = 4
tv196 = -8						; size = 4
tv85 = -8						; size = 4
tv242 = -4						; size = 4
tv236 = -4						; size = 4
tv231 = -4						; size = 4
tv92 = -4						; size = 4
_fAniRate$600475 = -4					; size = 4
?SetMoveState@ioOwnerControlDummy2@@UAEXXZ PROC		; ioOwnerControlDummy2::SetMoveState, COMDAT
; _this$ = ecx

; 122  : {

  00000	55		 push	 ebp
  00001	8b ec		 mov	 ebp, esp
  00003	51		 push	 ecx
  00004	51		 push	 ecx
  00005	56		 push	 esi
  00006	8b f1		 mov	 esi, ecx
  00008	57		 push	 edi

; 123  : 	m_State = DCS_MOVE;
; 124  : 
; 125  : 	if( !m_MoveAnimation.IsEmpty() )

  00009	8d be bc 06 00
	00		 lea	 edi, DWORD PTR [esi+1724]
  0000f	8b cf		 mov	 ecx, edi
  00011	c7 86 30 02 00
	00 03 00 00 00	 mov	 DWORD PTR [esi+560], 3
  0001b	ff 15 00 00 00
	00		 call	 DWORD PTR __imp_?IsEmpty@ioHashString@@QBE_NXZ
  00021	84 c0		 test	 al, al
  00023	0f 85 f4 00 00
	00		 jne	 $LN2@SetMoveSta

; 126  : 	{
; 127  : 		int iAniID = m_pGroup->GetAnimationIdx( m_MoveAnimation );

  00029	8b 4e 04	 mov	 ecx, DWORD PTR [esi+4]
  0002c	57		 push	 edi
  0002d	ff 15 00 00 00
	00		 call	 DWORD PTR __imp_?GetAnimationIdx@ioEntityGroup@@QAEHABVioHashString@@@Z
  00033	8b f8		 mov	 edi, eax

; 128  : 		if( iAniID != -1 )

  00035	83 ff ff	 cmp	 edi, -1
  00038	0f 84 df 00 00
	00		 je	 $LN2@SetMoveSta

; 129  : 		{
; 130  : 			m_pGroup->ClearAllActionAni( FLOAT10, true );

  0003e	b8 0a 00 00 00	 mov	 eax, 10			; 0000000aH
  00043	89 45 fc	 mov	 DWORD PTR tv242[ebp], eax
  00046	db 45 fc	 fild	 DWORD PTR tv242[ebp]
  00049	6a 01		 push	 1
  0004b	85 c0		 test	 eax, eax
  0004d	79 06		 jns	 SHORT $LN18@SetMoveSta
  0004f	d8 05 00 00 00
	00		 fadd	 DWORD PTR __real@4f800000
$LN18@SetMoveSta:
  00055	51		 push	 ecx
  00056	8b 4e 04	 mov	 ecx, DWORD PTR [esi+4]
  00059	d9 1c 24	 fstp	 DWORD PTR [esp]
  0005c	ff 15 00 00 00
	00		 call	 DWORD PTR __imp_?ClearAllActionAni@ioEntityGroup@@QAEXM_N@Z

; 131  : 			m_pGroup->ClearAllLoopAni( FLOAT10, true );

  00062	b8 0a 00 00 00	 mov	 eax, 10			; 0000000aH
  00067	89 45 fc	 mov	 DWORD PTR tv236[ebp], eax
  0006a	db 45 fc	 fild	 DWORD PTR tv236[ebp]
  0006d	6a 01		 push	 1
  0006f	85 c0		 test	 eax, eax
  00071	79 06		 jns	 SHORT $LN19@SetMoveSta
  00073	d8 05 00 00 00
	00		 fadd	 DWORD PTR __real@4f800000
$LN19@SetMoveSta:
  00079	51		 push	 ecx
  0007a	8b 4e 04	 mov	 ecx, DWORD PTR [esi+4]
  0007d	d9 1c 24	 fstp	 DWORD PTR [esp]
  00080	ff 15 00 00 00
	00		 call	 DWORD PTR __imp_?ClearAllLoopAni@ioEntityGroup@@QAEXM_N@Z

; 132  : 
; 133  : 			float fAniRate = FLOAT1;

  00086	b8 01 00 00 00	 mov	 eax, 1
  0008b	89 45 fc	 mov	 DWORD PTR tv231[ebp], eax
  0008e	db 45 fc	 fild	 DWORD PTR tv231[ebp]
  00091	85 c0		 test	 eax, eax
  00093	79 06		 jns	 SHORT $LN20@SetMoveSta
  00095	d8 05 00 00 00
	00		 fadd	 DWORD PTR __real@4f800000
$LN20@SetMoveSta:

; 134  : 			if( m_fMoveAniRate > 0.0f )

  0009b	f3 0f 10 86 cc
	06 00 00	 movss	 xmm0, DWORD PTR [esi+1740]
  000a3	d9 5d fc	 fstp	 DWORD PTR _fAniRate$600475[ebp]
  000a6	0f 57 c9	 xorps	 xmm1, xmm1
  000a9	0f 2f c1	 comiss	 xmm0, xmm1
  000ac	76 05		 jbe	 SHORT $LN1@SetMoveSta

; 135  : 				fAniRate = m_fMoveAniRate;

  000ae	f3 0f 11 45 fc	 movss	 DWORD PTR _fAniRate$600475[ebp], xmm0
$LN1@SetMoveSta:

; 136  : 
; 137  : 			m_pGroup->SetLoopAni( iAniID, FLOAT10, FLOAT1, FLOAT1/fAniRate );

  000b3	b8 01 00 00 00	 mov	 eax, 1
  000b8	8b c8		 mov	 ecx, eax
  000ba	b8 01 00 00 00	 mov	 eax, 1
  000bf	8b d0		 mov	 edx, eax
  000c1	b8 0a 00 00 00	 mov	 eax, 10			; 0000000aH
  000c6	83 ec 10	 sub	 esp, 16			; 00000010H
  000c9	89 4d f8	 mov	 DWORD PTR tv196[ebp], ecx
  000cc	db 45 f8	 fild	 DWORD PTR tv196[ebp]
  000cf	f3 0f 11 4c 24
	0c		 movss	 DWORD PTR [esp+12], xmm1
  000d5	85 c9		 test	 ecx, ecx
  000d7	79 06		 jns	 SHORT $LN21@SetMoveSta
  000d9	d8 05 00 00 00
	00		 fadd	 DWORD PTR __real@4f800000
$LN21@SetMoveSta:
  000df	d8 75 fc	 fdiv	 DWORD PTR _fAniRate$600475[ebp]
  000e2	89 55 f8	 mov	 DWORD PTR tv198[ebp], edx
  000e5	d9 5d fc	 fstp	 DWORD PTR tv92[ebp]
  000e8	d9 45 fc	 fld	 DWORD PTR tv92[ebp]
  000eb	d9 5c 24 08	 fstp	 DWORD PTR [esp+8]
  000ef	db 45 f8	 fild	 DWORD PTR tv198[ebp]
  000f2	85 d2		 test	 edx, edx
  000f4	79 06		 jns	 SHORT $LN22@SetMoveSta
  000f6	d8 05 00 00 00
	00		 fadd	 DWORD PTR __real@4f800000
$LN22@SetMoveSta:
  000fc	89 45 f8	 mov	 DWORD PTR tv85[ebp], eax
  000ff	d9 5c 24 04	 fstp	 DWORD PTR [esp+4]
  00103	db 45 f8	 fild	 DWORD PTR tv85[ebp]
  00106	85 c0		 test	 eax, eax
  00108	79 06		 jns	 SHORT $LN23@SetMoveSta
  0010a	d8 05 00 00 00
	00		 fadd	 DWORD PTR __real@4f800000
$LN23@SetMoveSta:
  00110	8b 4e 04	 mov	 ecx, DWORD PTR [esi+4]
  00113	d9 1c 24	 fstp	 DWORD PTR [esp]
  00116	57		 push	 edi
  00117	ff 15 00 00 00
	00		 call	 DWORD PTR __imp_?SetLoopAni@ioEntityGroup@@QAE_NHMMMM@Z
$LN2@SetMoveSta:

; 138  : 		}
; 139  : 	}
; 140  : 
; 141  : 	SetAttachWeapon();

  0011d	8b ce		 mov	 ecx, esi
  0011f	e8 00 00 00 00	 call	 ?SetAttachWeapon@ioDummyChar@@IAEXXZ ; ioDummyChar::SetAttachWeapon
  00124	5f		 pop	 edi
  00125	5e		 pop	 esi

; 142  : }

  00126	c9		 leave
  00127	c3		 ret	 0
?SetMoveState@ioOwnerControlDummy2@@UAEXXZ ENDP		; ioOwnerControlDummy2::SetMoveState
_TEXT	ENDS
PUBLIC	__$ArrayPad$
PUBLIC	?CheckKeyInputChange@ioOwnerControlDummy2@@IAEXXZ ; ioOwnerControlDummy2::CheckKeyInputChange
EXTRN	??1SP2Packet@@UAE@XZ:PROC			; SP2Packet::~SP2Packet
EXTRN	?SendToAllPlayingUser@P2PNetwork@@YAXAAVSP2Packet@@PAVioBaseChar@@@Z:PROC ; P2PNetwork::SendToAllPlayingUser
EXTRN	??6SP2Packet@@QAEAAV0@ABUD3DXVECTOR3@@@Z:PROC	; SP2Packet::operator<<
EXTRN	??6SP2Packet@@QAEAAV0@_N@Z:PROC			; SP2Packet::operator<<
EXTRN	??6SP2Packet@@QAEAAV0@H@Z:PROC			; SP2Packet::operator<<
EXTRN	??6SP2Packet@@QAEAAV0@ABVioHashString@@@Z:PROC	; SP2Packet::operator<<
EXTRN	??0SP2Packet@@QAE@K@Z:PROC			; SP2Packet::SP2Packet
EXTRN	?IsDefenseKeyDown@ioBaseChar@@QBE_NXZ:PROC	; ioBaseChar::IsDefenseKeyDown
EXTRN	?IsJumpKeyDown@ioBaseChar@@QBE_NXZ:PROC		; ioBaseChar::IsJumpKeyDown
EXTRN	?CheckCurDirKey@ioBaseChar@@QAE?AW4DirKeyInput@ioUserKeyInput@@XZ:PROC ; ioBaseChar::CheckCurDirKey
EXTRN	?GetOwner@ioDummyChar@@QBEPAVioBaseChar@@XZ:PROC ; ioDummyChar::GetOwner
EXTRN	___security_cookie:DWORD
EXTRN	___CxxFrameHandler3:PROC
EXTRN	@__security_check_cookie@4:PROC
EXTRN	__chkstk:PROC
;	COMDAT xdata$x
xdata$x	SEGMENT
__unwindtable$?CheckKeyInputChange@ioOwnerControlDummy2@@IAEXXZ DD 0ffffffffH
	DD	FLAT:__unwindfunclet$?CheckKeyInputChange@ioOwnerControlDummy2@@IAEXXZ$0
__ehfuncinfo$?CheckKeyInputChange@ioOwnerControlDummy2@@IAEXXZ DD 019930522H
	DD	01H
	DD	FLAT:__unwindtable$?CheckKeyInputChange@ioOwnerControlDummy2@@IAEXXZ
	DD	2 DUP(00H)
	DD	2 DUP(00H)
	DD	00H
	DD	01H
; Function compile flags: /Ogsp
xdata$x	ENDS
;	COMDAT ?CheckKeyInputChange@ioOwnerControlDummy2@@IAEXXZ
_TEXT	SEGMENT
_kPacket$600536 = -32808				; size = 32792
__$ArrayPad$ = -16					; size = 4
__$EHRec$ = -12						; size = 12
?CheckKeyInputChange@ioOwnerControlDummy2@@IAEXXZ PROC	; ioOwnerControlDummy2::CheckKeyInputChange, COMDAT
; _this$ = ecx

; 220  : {

  00000	55		 push	 ebp
  00001	8b ec		 mov	 ebp, esp
  00003	6a ff		 push	 -1
  00005	68 00 00 00 00	 push	 __ehhandler$?CheckKeyInputChange@ioOwnerControlDummy2@@IAEXXZ
  0000a	64 a1 00 00 00
	00		 mov	 eax, DWORD PTR fs:0
  00010	50		 push	 eax
  00011	b8 1c 80 00 00	 mov	 eax, 32796		; 0000801cH
  00016	e8 00 00 00 00	 call	 __chkstk
  0001b	a1 00 00 00 00	 mov	 eax, DWORD PTR ___security_cookie
  00020	33 c5		 xor	 eax, ebp
  00022	89 45 f0	 mov	 DWORD PTR __$ArrayPad$[ebp], eax
  00025	53		 push	 ebx
  00026	56		 push	 esi
  00027	57		 push	 edi
  00028	50		 push	 eax
  00029	8d 45 f4	 lea	 eax, DWORD PTR __$EHRec$[ebp]
  0002c	64 a3 00 00 00
	00		 mov	 DWORD PTR fs:0, eax
  00032	8b f1		 mov	 esi, ecx

; 221  : 	ioBaseChar *pOwner = GetOwner();

  00034	e8 00 00 00 00	 call	 ?GetOwner@ioDummyChar@@QBEPAVioBaseChar@@XZ ; ioDummyChar::GetOwner
  00039	8b f8		 mov	 edi, eax

; 222  : 
; 223  : 	if( !pOwner )

  0003b	33 db		 xor	 ebx, ebx
  0003d	3b fb		 cmp	 edi, ebx
  0003f	0f 84 8d 01 00
	00		 je	 $LN1@CheckKeyIn

; 224  : 		return;
; 225  : 
; 226  : 	if( !pOwner->IsNeedProcess() )

  00045	8b 07		 mov	 eax, DWORD PTR [edi]
  00047	8b cf		 mov	 ecx, edi
  00049	ff 90 00 01 00
	00		 call	 DWORD PTR [eax+256]
  0004f	84 c0		 test	 al, al
  00051	0f 84 7b 01 00
	00		 je	 $LN1@CheckKeyIn

; 227  : 		return;
; 228  : 
; 229  : 	if( m_OwnerControlState != OCS_CONTROL )

  00057	39 9e e4 14 00
	00		 cmp	 DWORD PTR [esi+5348], ebx
  0005d	0f 85 6f 01 00
	00		 jne	 $LN1@CheckKeyIn

; 230  : 		return;
; 231  : 
; 232  : 	bool bChange = false;
; 233  : 
; 234  : 	// 방향변화 체크
; 235  : 	ioUserKeyInput::DirKeyInput eNewDirKey = pOwner->CheckCurDirKey();

  00063	8b cf		 mov	 ecx, edi
  00065	e8 00 00 00 00	 call	 ?CheckCurDirKey@ioBaseChar@@QAE?AW4DirKeyInput@ioUserKeyInput@@XZ ; ioBaseChar::CheckCurDirKey

; 236  : 	if( eNewDirKey != m_CurDirKey )

  0006a	3b 86 5c 0d 00
	00		 cmp	 eax, DWORD PTR [esi+3420]
  00070	74 0b		 je	 SHORT $LN18@CheckKeyIn

; 237  : 	{
; 238  : 		bChange = true;
; 239  : 		m_CurDirKey = eNewDirKey;

  00072	89 86 5c 0d 00
	00		 mov	 DWORD PTR [esi+3420], eax

; 240  : 	}
; 241  : 
; 242  : 	// Up 체크
; 243  : 	if( !bChange && !m_bSetDownKey )

  00078	e9 8c 00 00 00	 jmp	 $LN2@CheckKeyIn
$LN18@CheckKeyIn:
  0007d	38 9e 59 0d 00
	00		 cmp	 BYTE PTR [esi+3417], bl
  00083	75 3b		 jne	 SHORT $LN19@CheckKeyIn

; 244  : 	{
; 245  : 		if( m_bSetUpKey && !pOwner->IsJumpKeyDown() )

  00085	38 9e 58 0d 00
	00		 cmp	 BYTE PTR [esi+3416], bl
  0008b	74 1f		 je	 SHORT $LN22@CheckKeyIn
  0008d	8b cf		 mov	 ecx, edi
  0008f	e8 00 00 00 00	 call	 ?IsJumpKeyDown@ioBaseChar@@QBE_NXZ ; ioBaseChar::IsJumpKeyDown
  00094	84 c0		 test	 al, al
  00096	75 08		 jne	 SHORT $LN8@CheckKeyIn

; 246  : 		{
; 247  : 			bChange = true;
; 248  : 			m_bSetUpKey = false;

  00098	88 9e 58 0d 00
	00		 mov	 BYTE PTR [esi+3416], bl
  0009e	eb 69		 jmp	 SHORT $LN2@CheckKeyIn
$LN8@CheckKeyIn:

; 249  : 		}
; 250  : 		else if( !m_bSetUpKey && pOwner->IsJumpKeyDown() )

  000a0	38 9e 58 0d 00
	00		 cmp	 BYTE PTR [esi+3416], bl
  000a6	0f 85 26 01 00
	00		 jne	 $LN1@CheckKeyIn
$LN22@CheckKeyIn:
  000ac	8b cf		 mov	 ecx, edi
  000ae	e8 00 00 00 00	 call	 ?IsJumpKeyDown@ioBaseChar@@QBE_NXZ ; ioBaseChar::IsJumpKeyDown
  000b3	84 c0		 test	 al, al
  000b5	74 09		 je	 SHORT $LN19@CheckKeyIn

; 251  : 		{
; 252  : 			bChange = true;
; 253  : 			m_bSetUpKey = true;

  000b7	c6 86 58 0d 00
	00 01		 mov	 BYTE PTR [esi+3416], 1

; 254  : 		}
; 255  : 	}
; 256  : 
; 257  : 	// Down 체크
; 258  : 	if( !bChange && !m_bSetUpKey )

  000be	eb 49		 jmp	 SHORT $LN2@CheckKeyIn
$LN19@CheckKeyIn:
  000c0	38 9e 58 0d 00
	00		 cmp	 BYTE PTR [esi+3416], bl
  000c6	0f 85 06 01 00
	00		 jne	 $LN1@CheckKeyIn

; 259  : 	{
; 260  : 		if( m_bSetDownKey && !pOwner->IsDefenseKeyDown() )

  000cc	38 9e 59 0d 00
	00		 cmp	 BYTE PTR [esi+3417], bl
  000d2	74 1f		 je	 SHORT $LN25@CheckKeyIn
  000d4	8b cf		 mov	 ecx, edi
  000d6	e8 00 00 00 00	 call	 ?IsDefenseKeyDown@ioBaseChar@@QBE_NXZ ; ioBaseChar::IsDefenseKeyDown
  000db	84 c0		 test	 al, al
  000dd	75 08		 jne	 SHORT $LN4@CheckKeyIn

; 261  : 		{
; 262  : 			bChange = true;
; 263  : 			m_bSetDownKey = false;

  000df	88 9e 59 0d 00
	00		 mov	 BYTE PTR [esi+3417], bl
  000e5	eb 22		 jmp	 SHORT $LN2@CheckKeyIn
$LN4@CheckKeyIn:

; 264  : 		}
; 265  : 		else if( !m_bSetDownKey && pOwner->IsDefenseKeyDown() )

  000e7	38 9e 59 0d 00
	00		 cmp	 BYTE PTR [esi+3417], bl
  000ed	0f 85 df 00 00
	00		 jne	 $LN1@CheckKeyIn
$LN25@CheckKeyIn:
  000f3	8b cf		 mov	 ecx, edi
  000f5	e8 00 00 00 00	 call	 ?IsDefenseKeyDown@ioBaseChar@@QBE_NXZ ; ioBaseChar::IsDefenseKeyDown
  000fa	84 c0		 test	 al, al
  000fc	0f 84 d0 00 00
	00		 je	 $LN1@CheckKeyIn

; 266  : 		{
; 267  : 			bChange = true;
; 268  : 			m_bSetDownKey = true;

  00102	c6 86 59 0d 00
	00 01		 mov	 BYTE PTR [esi+3417], 1
$LN2@CheckKeyIn:

; 269  : 		}
; 270  : 	}
; 271  : 
; 272  : 	if( bChange && pOwner->IsNeedSendNetwork() )

  00109	8b 07		 mov	 eax, DWORD PTR [edi]
  0010b	8b cf		 mov	 ecx, edi
  0010d	ff 90 04 01 00
	00		 call	 DWORD PTR [eax+260]
  00113	84 c0		 test	 al, al
  00115	0f 84 b7 00 00
	00		 je	 $LN1@CheckKeyIn

; 273  : 	{
; 274  : 		SP2Packet kPacket( CUPK_DUMMY_CHAR_SYNC );

  0011b	68 21 42 00 00	 push	 16929			; 00004221H
  00120	8d 8d d8 7f ff
	ff		 lea	 ecx, DWORD PTR _kPacket$600536[ebp]
  00126	e8 00 00 00 00	 call	 ??0SP2Packet@@QAE@K@Z	; SP2Packet::SP2Packet

; 275  : 		kPacket << m_OwnerName;

  0012b	8d 86 cc 01 00
	00		 lea	 eax, DWORD PTR [esi+460]
  00131	50		 push	 eax
  00132	8d 8d d8 7f ff
	ff		 lea	 ecx, DWORD PTR _kPacket$600536[ebp]
  00138	89 5d fc	 mov	 DWORD PTR __$EHRec$[ebp+8], ebx
  0013b	e8 00 00 00 00	 call	 ??6SP2Packet@@QAEAAV0@ABVioHashString@@@Z ; SP2Packet::operator<<

; 276  : 		kPacket << m_iCreateIndex;

  00140	ff b6 dc 01 00
	00		 push	 DWORD PTR [esi+476]
  00146	8d 8d d8 7f ff
	ff		 lea	 ecx, DWORD PTR _kPacket$600536[ebp]
  0014c	e8 00 00 00 00	 call	 ??6SP2Packet@@QAEAAV0@H@Z ; SP2Packet::operator<<

; 277  : 		kPacket << DUMMY_CHAR_KEY_CHANGE;

  00151	6a 05		 push	 5
  00153	8d 8d d8 7f ff
	ff		 lea	 ecx, DWORD PTR _kPacket$600536[ebp]
  00159	e8 00 00 00 00	 call	 ??6SP2Packet@@QAEAAV0@H@Z ; SP2Packet::operator<<

; 278  : 		kPacket << (int)m_CurDirKey;

  0015e	ff b6 5c 0d 00
	00		 push	 DWORD PTR [esi+3420]
  00164	8d 8d d8 7f ff
	ff		 lea	 ecx, DWORD PTR _kPacket$600536[ebp]
  0016a	e8 00 00 00 00	 call	 ??6SP2Packet@@QAEAAV0@H@Z ; SP2Packet::operator<<

; 279  : 		kPacket << m_bSetUpKey;

  0016f	0f b6 86 58 0d
	00 00		 movzx	 eax, BYTE PTR [esi+3416]
  00176	50		 push	 eax
  00177	8d 8d d8 7f ff
	ff		 lea	 ecx, DWORD PTR _kPacket$600536[ebp]
  0017d	e8 00 00 00 00	 call	 ??6SP2Packet@@QAEAAV0@_N@Z ; SP2Packet::operator<<

; 280  : 		kPacket << m_bSetDownKey;

  00182	0f b6 86 59 0d
	00 00		 movzx	 eax, BYTE PTR [esi+3417]
  00189	50		 push	 eax
  0018a	8d 8d d8 7f ff
	ff		 lea	 ecx, DWORD PTR _kPacket$600536[ebp]
  00190	e8 00 00 00 00	 call	 ??6SP2Packet@@QAEAAV0@_N@Z ; SP2Packet::operator<<

; 281  : 		kPacket << false;			// setmove...

  00195	53		 push	 ebx
  00196	8d 8d d8 7f ff
	ff		 lea	 ecx, DWORD PTR _kPacket$600536[ebp]
  0019c	e8 00 00 00 00	 call	 ??6SP2Packet@@QAEAAV0@_N@Z ; SP2Packet::operator<<

; 282  : 		kPacket << GetWorldPosition();

  001a1	8b 06		 mov	 eax, DWORD PTR [esi]
  001a3	8b ce		 mov	 ecx, esi
  001a5	ff 50 70	 call	 DWORD PTR [eax+112]
  001a8	50		 push	 eax
  001a9	8d 8d d8 7f ff
	ff		 lea	 ecx, DWORD PTR _kPacket$600536[ebp]
  001af	e8 00 00 00 00	 call	 ??6SP2Packet@@QAEAAV0@ABUD3DXVECTOR3@@@Z ; SP2Packet::operator<<

; 283  : 		P2PNetwork::SendToAllPlayingUser( kPacket );

  001b4	8d 85 d8 7f ff
	ff		 lea	 eax, DWORD PTR _kPacket$600536[ebp]
  001ba	53		 push	 ebx
  001bb	50		 push	 eax
  001bc	e8 00 00 00 00	 call	 ?SendToAllPlayingUser@P2PNetwork@@YAXAAVSP2Packet@@PAVioBaseChar@@@Z ; P2PNetwork::SendToAllPlayingUser

; 284  : 	}

  001c1	83 4d fc ff	 or	 DWORD PTR __$EHRec$[ebp+8], -1
  001c5	59		 pop	 ecx
  001c6	59		 pop	 ecx
  001c7	8d 8d d8 7f ff
	ff		 lea	 ecx, DWORD PTR _kPacket$600536[ebp]
  001cd	e8 00 00 00 00	 call	 ??1SP2Packet@@UAE@XZ	; SP2Packet::~SP2Packet
$LN1@CheckKeyIn:

; 285  : }

  001d2	8b 4d f4	 mov	 ecx, DWORD PTR __$EHRec$[ebp]
  001d5	64 89 0d 00 00
	00 00		 mov	 DWORD PTR fs:0, ecx
  001dc	59		 pop	 ecx
  001dd	5f		 pop	 edi
  001de	5e		 pop	 esi
  001df	5b		 pop	 ebx
  001e0	8b 4d f0	 mov	 ecx, DWORD PTR __$ArrayPad$[ebp]
  001e3	33 cd		 xor	 ecx, ebp
  001e5	e8 00 00 00 00	 call	 @__security_check_cookie@4
  001ea	c9		 leave
  001eb	c3		 ret	 0
_TEXT	ENDS
;	COMDAT text$x
text$x	SEGMENT
__unwindfunclet$?CheckKeyInputChange@ioOwnerControlDummy2@@IAEXXZ$0:
  00000	8d 8d d8 7f ff
	ff		 lea	 ecx, DWORD PTR _kPacket$600536[ebp]
  00006	e9 00 00 00 00	 jmp	 ??1SP2Packet@@UAE@XZ	; SP2Packet::~SP2Packet
__ehhandler$?CheckKeyInputChange@ioOwnerControlDummy2@@IAEXXZ:
  0000b	8b 54 24 08	 mov	 edx, DWORD PTR [esp+8]
  0000f	8d 42 0c	 lea	 eax, DWORD PTR [edx+12]
  00012	8b 8a d4 7f ff
	ff		 mov	 ecx, DWORD PTR [edx-32812]
  00018	33 c8		 xor	 ecx, eax
  0001a	e8 00 00 00 00	 call	 @__security_check_cookie@4
  0001f	8b 4a fc	 mov	 ecx, DWORD PTR [edx-4]
  00022	33 c8		 xor	 ecx, eax
  00024	e8 00 00 00 00	 call	 @__security_check_cookie@4
  00029	b8 00 00 00 00	 mov	 eax, OFFSET __ehfuncinfo$?CheckKeyInputChange@ioOwnerControlDummy2@@IAEXXZ
  0002e	e9 00 00 00 00	 jmp	 ___CxxFrameHandler3
text$x	ENDS
?CheckKeyInputChange@ioOwnerControlDummy2@@IAEXXZ ENDP	; ioOwnerControlDummy2::CheckKeyInputChange
PUBLIC	__real@3f91df46a2526c7a
PUBLIC	??$DEGtoRAD@M@@YAMM@Z				; DEGtoRAD<float>
;	COMDAT __real@3f91df46a2526c7a
; File d:\lost saga for developer\youtube\tutorial\source\src\lsclient\veryoftenusedefine.h
CONST	SEGMENT
__real@3f91df46a2526c7a DQ 03f91df46a2526c7ar	; 0.0174533
; Function compile flags: /Ogsp
CONST	ENDS
;	COMDAT ??$DEGtoRAD@M@@YAMM@Z
_TEXT	SEGMENT
tv129 = 8						; size = 4
_val$ = 8						; size = 4
??$DEGtoRAD@M@@YAMM@Z PROC				; DEGtoRAD<float>, COMDAT

; 20   : type  DEGtoRAD (type val) {return (type) (val * 0.0174532925199);}

  00000	55		 push	 ebp
  00001	8b ec		 mov	 ebp, esp
  00003	d9 45 08	 fld	 DWORD PTR _val$[ebp]
  00006	dc 0d 00 00 00
	00		 fmul	 QWORD PTR __real@3f91df46a2526c7a
  0000c	d9 5d 08	 fstp	 DWORD PTR tv129[ebp]
  0000f	d9 45 08	 fld	 DWORD PTR tv129[ebp]
  00012	5d		 pop	 ebp
  00013	c3		 ret	 0
??$DEGtoRAD@M@@YAMM@Z ENDP				; DEGtoRAD<float>
_TEXT	ENDS
PUBLIC	?_DECSTR@@YAXPADH@Z				; _DECSTR
; Function compile flags: /Ogsp
; File d:\lost saga for developer\youtube\tutorial\source\src\lsclient\stringprotect.h
;	COMDAT ?_DECSTR@@YAXPADH@Z
_TEXT	SEGMENT
_s$ = 8							; size = 4
_l$ = 12						; size = 4
?_DECSTR@@YAXPADH@Z PROC				; _DECSTR, COMDAT

; 40   : __forceinline void _DECSTR(char* s, int l){int i=0,l4=(l-1)/4,*p=(int*)s;s[l-1]=0;for(;i<l4;++i)*(p++)^=0xEAEBECED;for(i=l4*4;i<l-1;++i)s[i]^=0xED-i%4;}

  00000	55		 push	 ebp
  00001	8b ec		 mov	 ebp, esp
  00003	8b 4d 0c	 mov	 ecx, DWORD PTR _l$[ebp]
  00006	56		 push	 esi
  00007	8b 75 08	 mov	 esi, DWORD PTR _s$[ebp]
  0000a	57		 push	 edi
  0000b	8d 79 ff	 lea	 edi, DWORD PTR [ecx-1]
  0000e	8b c7		 mov	 eax, edi
  00010	99		 cdq
  00011	83 e2 03	 and	 edx, 3
  00014	03 c2		 add	 eax, edx
  00016	c1 f8 02	 sar	 eax, 2
  00019	8b d6		 mov	 edx, esi
  0001b	c6 44 0e ff 00	 mov	 BYTE PTR [esi+ecx-1], 0
  00020	85 c0		 test	 eax, eax
  00022	7e 0e		 jle	 SHORT $LN4@DECSTR
  00024	8b c8		 mov	 ecx, eax
$LL6@DECSTR:
  00026	81 32 ed ec eb
	ea		 xor	 DWORD PTR [edx], -353637139 ; eaebecedH
  0002c	83 c2 04	 add	 edx, 4
  0002f	49		 dec	 ecx
  00030	75 f4		 jne	 SHORT $LL6@DECSTR
$LN4@DECSTR:
  00032	c1 e0 02	 shl	 eax, 2
  00035	eb 17		 jmp	 SHORT $LN14@DECSTR
$LL3@DECSTR:
  00037	8b c8		 mov	 ecx, eax
  00039	81 e1 03 00 00
	80		 and	 ecx, -2147483645	; 80000003H
  0003f	79 05		 jns	 SHORT $LN13@DECSTR
  00041	49		 dec	 ecx
  00042	83 c9 fc	 or	 ecx, -4			; fffffffcH
  00045	41		 inc	 ecx
$LN13@DECSTR:
  00046	b2 ed		 mov	 dl, -19			; ffffffedH
  00048	2a d1		 sub	 dl, cl
  0004a	30 14 30	 xor	 BYTE PTR [eax+esi], dl
  0004d	40		 inc	 eax
$LN14@DECSTR:
  0004e	3b c7		 cmp	 eax, edi
  00050	7c e5		 jl	 SHORT $LL3@DECSTR
  00052	5f		 pop	 edi
  00053	5e		 pop	 esi
  00054	5d		 pop	 ebp
  00055	c3		 ret	 0
?_DECSTR@@YAXPADH@Z ENDP				; _DECSTR
_TEXT	ENDS
PUBLIC	?return57@@YAIXZ				; return57
; Function compile flags: /Ogsp
; File d:\lost saga for developer\youtube\tutorial\source\src\lsclient\veryoftenusedefine.h
;	COMDAT ?return57@@YAIXZ
_TEXT	SEGMENT
?return57@@YAIXZ PROC					; return57, COMDAT

; 15   : __forceinline unsigned int return57() { __asm mov eax, 57 };

  00000	b8 39 00 00 00	 mov	 eax, 57			; 00000039H
  00005	c3		 ret	 0
?return57@@YAIXZ ENDP					; return57
_TEXT	ENDS
PUBLIC	??_R0?AVioSkill@@@8				; ioSkill `RTTI Type Descriptor'
PUBLIC	??_R0?AVioAttackSkill@@@8			; ioAttackSkill `RTTI Type Descriptor'
PUBLIC	?ToAttackSkill@@YAPAVioAttackSkill@@PAVioSkill@@@Z ; ToAttackSkill
EXTRN	___RTDynamicCast:PROC
EXTRN	??_7type_info@@6B@:QWORD			; type_info::`vftable'
;	COMDAT ??_R0?AVioSkill@@@8
; File d:\lost saga for developer\youtube\tutorial\source\src\lsclient\ioattackskill.h
_DATA	SEGMENT
??_R0?AVioSkill@@@8 DD FLAT:??_7type_info@@6B@		; ioSkill `RTTI Type Descriptor'
	DD	00H
	DB	'.?AVioSkill@@', 00H
_DATA	ENDS
;	COMDAT ??_R0?AVioAttackSkill@@@8
_DATA	SEGMENT
??_R0?AVioAttackSkill@@@8 DD FLAT:??_7type_info@@6B@	; ioAttackSkill `RTTI Type Descriptor'
	DD	00H
	DB	'.?AVioAttackSkill@@', 00H
; Function compile flags: /Ogsp
_DATA	ENDS
;	COMDAT ?ToAttackSkill@@YAPAVioAttackSkill@@PAVioSkill@@@Z
_TEXT	SEGMENT
_pSkill$ = 8						; size = 4
?ToAttackSkill@@YAPAVioAttackSkill@@PAVioSkill@@@Z PROC	; ToAttackSkill, COMDAT

; 103  : {

  00000	55		 push	 ebp
  00001	8b ec		 mov	 ebp, esp
  00003	56		 push	 esi

; 104  : 	if( !pSkill || pSkill->GetTypeID() != ST_ATTACK )

  00004	8b 75 08	 mov	 esi, DWORD PTR _pSkill$[ebp]
  00007	85 f6		 test	 esi, esi
  00009	74 25		 je	 SHORT $LN1@ToAttackSk
  0000b	8b 06		 mov	 eax, DWORD PTR [esi]
  0000d	8b ce		 mov	 ecx, esi
  0000f	ff 50 08	 call	 DWORD PTR [eax+8]
  00012	83 f8 01	 cmp	 eax, 1
  00015	75 19		 jne	 SHORT $LN1@ToAttackSk

; 106  : 
; 107  : 	return dynamic_cast< ioAttackSkill* >( pSkill );

  00017	6a 00		 push	 0
  00019	68 00 00 00 00	 push	 OFFSET ??_R0?AVioAttackSkill@@@8
  0001e	68 00 00 00 00	 push	 OFFSET ??_R0?AVioSkill@@@8
  00023	6a 00		 push	 0
  00025	56		 push	 esi
  00026	e8 00 00 00 00	 call	 ___RTDynamicCast
  0002b	83 c4 14	 add	 esp, 20			; 00000014H
  0002e	eb 02		 jmp	 SHORT $LN3@ToAttackSk
$LN1@ToAttackSk:

; 105  : 		return NULL;

  00030	33 c0		 xor	 eax, eax
$LN3@ToAttackSk:
  00032	5e		 pop	 esi

; 108  : }

  00033	5d		 pop	 ebp
  00034	c3		 ret	 0
?ToAttackSkill@@YAPAVioAttackSkill@@PAVioSkill@@@Z ENDP	; ToAttackSkill
_TEXT	ENDS
PUBLIC	??_7?$CEncrypt@M@@6B@				; CEncrypt<float>::`vftable'
PUBLIC	??1?$CEncrypt@M@@UAE@XZ				; CEncrypt<float>::~CEncrypt<float>
PUBLIC	??_R4?$CEncrypt@M@@6B@				; CEncrypt<float>::`RTTI Complete Object Locator'
PUBLIC	??_R0?AV?$CEncrypt@M@@@8			; CEncrypt<float> `RTTI Type Descriptor'
PUBLIC	??_R3?$CEncrypt@M@@8				; CEncrypt<float>::`RTTI Class Hierarchy Descriptor'
PUBLIC	??_R2?$CEncrypt@M@@8				; CEncrypt<float>::`RTTI Base Class Array'
PUBLIC	??_R1A@?0A@EA@?$CEncrypt@M@@8			; CEncrypt<float>::`RTTI Base Class Descriptor at (0,-1,0,64)'
EXTRN	??1ccddaabb@@UAE@XZ:PROC			; ccddaabb::~ccddaabb
EXTRN	??_E?$CEncrypt@M@@UAEPAXI@Z:PROC		; CEncrypt<float>::`vector deleting destructor'
;	COMDAT ??_R1A@?0A@EA@?$CEncrypt@M@@8
; File d:\lost saga for developer\youtube\tutorial\source\src\lsclient\encryptvalue.h
rdata$r	SEGMENT
??_R1A@?0A@EA@?$CEncrypt@M@@8 DD FLAT:??_R0?AV?$CEncrypt@M@@@8 ; CEncrypt<float>::`RTTI Base Class Descriptor at (0,-1,0,64)'
	DD	00H
	DD	00H
	DD	0ffffffffH
	DD	00H
	DD	040H
	DD	FLAT:??_R3?$CEncrypt@M@@8
rdata$r	ENDS
;	COMDAT ??_R2?$CEncrypt@M@@8
rdata$r	SEGMENT
??_R2?$CEncrypt@M@@8 DD FLAT:??_R1A@?0A@EA@?$CEncrypt@M@@8 ; CEncrypt<float>::`RTTI Base Class Array'
rdata$r	ENDS
;	COMDAT ??_R3?$CEncrypt@M@@8
rdata$r	SEGMENT
??_R3?$CEncrypt@M@@8 DD 00H				; CEncrypt<float>::`RTTI Class Hierarchy Descriptor'
	DD	00H
	DD	01H
	DD	FLAT:??_R2?$CEncrypt@M@@8
rdata$r	ENDS
;	COMDAT ??_R0?AV?$CEncrypt@M@@@8
_DATA	SEGMENT
??_R0?AV?$CEncrypt@M@@@8 DD FLAT:??_7type_info@@6B@	; CEncrypt<float> `RTTI Type Descriptor'
	DD	00H
	DB	'.?AV?$CEncrypt@M@@', 00H
_DATA	ENDS
;	COMDAT ??_R4?$CEncrypt@M@@6B@
rdata$r	SEGMENT
??_R4?$CEncrypt@M@@6B@ DD 00H				; CEncrypt<float>::`RTTI Complete Object Locator'
	DD	00H
	DD	00H
	DD	FLAT:??_R0?AV?$CEncrypt@M@@@8
	DD	FLAT:??_R3?$CEncrypt@M@@8
rdata$r	ENDS
;	COMDAT ??_7?$CEncrypt@M@@6B@
CONST	SEGMENT
??_7?$CEncrypt@M@@6B@ DD FLAT:??_R4?$CEncrypt@M@@6B@	; CEncrypt<float>::`vftable'
	DD	FLAT:??_E?$CEncrypt@M@@UAEPAXI@Z
; Function compile flags: /Ogsp
CONST	ENDS
;	COMDAT ??1?$CEncrypt@M@@UAE@XZ
_TEXT	SEGMENT
??1?$CEncrypt@M@@UAE@XZ PROC				; CEncrypt<float>::~CEncrypt<float>, COMDAT
; _this$ = ecx

; 127  : 	{

  00000	c7 01 00 00 00
	00		 mov	 DWORD PTR [ecx], OFFSET ??_7?$CEncrypt@M@@6B@

; 128  : 	}

  00006	83 c1 0c	 add	 ecx, 12			; 0000000cH
  00009	e9 00 00 00 00	 jmp	 ??1ccddaabb@@UAE@XZ	; ccddaabb::~ccddaabb
??1?$CEncrypt@M@@UAE@XZ ENDP				; CEncrypt<float>::~CEncrypt<float>
_TEXT	ENDS
PUBLIC	??_7?$CEncrypt@K@@6B@				; CEncrypt<unsigned long>::`vftable'
PUBLIC	??1?$CEncrypt@K@@UAE@XZ				; CEncrypt<unsigned long>::~CEncrypt<unsigned long>
PUBLIC	??_R4?$CEncrypt@K@@6B@				; CEncrypt<unsigned long>::`RTTI Complete Object Locator'
PUBLIC	??_R0?AV?$CEncrypt@K@@@8			; CEncrypt<unsigned long> `RTTI Type Descriptor'
PUBLIC	??_R3?$CEncrypt@K@@8				; CEncrypt<unsigned long>::`RTTI Class Hierarchy Descriptor'
PUBLIC	??_R2?$CEncrypt@K@@8				; CEncrypt<unsigned long>::`RTTI Base Class Array'
PUBLIC	??_R1A@?0A@EA@?$CEncrypt@K@@8			; CEncrypt<unsigned long>::`RTTI Base Class Descriptor at (0,-1,0,64)'
EXTRN	??_E?$CEncrypt@K@@UAEPAXI@Z:PROC		; CEncrypt<unsigned long>::`vector deleting destructor'
;	COMDAT ??_R1A@?0A@EA@?$CEncrypt@K@@8
rdata$r	SEGMENT
??_R1A@?0A@EA@?$CEncrypt@K@@8 DD FLAT:??_R0?AV?$CEncrypt@K@@@8 ; CEncrypt<unsigned long>::`RTTI Base Class Descriptor at (0,-1,0,64)'
	DD	00H
	DD	00H
	DD	0ffffffffH
	DD	00H
	DD	040H
	DD	FLAT:??_R3?$CEncrypt@K@@8
rdata$r	ENDS
;	COMDAT ??_R2?$CEncrypt@K@@8
rdata$r	SEGMENT
??_R2?$CEncrypt@K@@8 DD FLAT:??_R1A@?0A@EA@?$CEncrypt@K@@8 ; CEncrypt<unsigned long>::`RTTI Base Class Array'
rdata$r	ENDS
;	COMDAT ??_R3?$CEncrypt@K@@8
rdata$r	SEGMENT
??_R3?$CEncrypt@K@@8 DD 00H				; CEncrypt<unsigned long>::`RTTI Class Hierarchy Descriptor'
	DD	00H
	DD	01H
	DD	FLAT:??_R2?$CEncrypt@K@@8
rdata$r	ENDS
;	COMDAT ??_R0?AV?$CEncrypt@K@@@8
_DATA	SEGMENT
??_R0?AV?$CEncrypt@K@@@8 DD FLAT:??_7type_info@@6B@	; CEncrypt<unsigned long> `RTTI Type Descriptor'
	DD	00H
	DB	'.?AV?$CEncrypt@K@@', 00H
_DATA	ENDS
;	COMDAT ??_R4?$CEncrypt@K@@6B@
rdata$r	SEGMENT
??_R4?$CEncrypt@K@@6B@ DD 00H				; CEncrypt<unsigned long>::`RTTI Complete Object Locator'
	DD	00H
	DD	00H
	DD	FLAT:??_R0?AV?$CEncrypt@K@@@8
	DD	FLAT:??_R3?$CEncrypt@K@@8
rdata$r	ENDS
;	COMDAT ??_7?$CEncrypt@K@@6B@
CONST	SEGMENT
??_7?$CEncrypt@K@@6B@ DD FLAT:??_R4?$CEncrypt@K@@6B@	; CEncrypt<unsigned long>::`vftable'
	DD	FLAT:??_E?$CEncrypt@K@@UAEPAXI@Z
; Function compile flags: /Ogsp
CONST	ENDS
;	COMDAT ??1?$CEncrypt@K@@UAE@XZ
_TEXT	SEGMENT
??1?$CEncrypt@K@@UAE@XZ PROC				; CEncrypt<unsigned long>::~CEncrypt<unsigned long>, COMDAT
; _this$ = ecx

; 127  : 	{

  00000	c7 01 00 00 00
	00		 mov	 DWORD PTR [ecx], OFFSET ??_7?$CEncrypt@K@@6B@

; 128  : 	}

  00006	83 c1 0c	 add	 ecx, 12			; 0000000cH
  00009	e9 00 00 00 00	 jmp	 ??1ccddaabb@@UAE@XZ	; ccddaabb::~ccddaabb
??1?$CEncrypt@K@@UAE@XZ ENDP				; CEncrypt<unsigned long>::~CEncrypt<unsigned long>
_TEXT	ENDS
PUBLIC	?size@?$vector@KV?$allocator@K@std@@@std@@QBEIXZ ; std::vector<unsigned long,std::allocator<unsigned long> >::size
; Function compile flags: /Ogsp
; File c:\program files (x86)\microsoft visual studio 10.0\vc\include\vector
;	COMDAT ?size@?$vector@KV?$allocator@K@std@@@std@@QBEIXZ
_TEXT	SEGMENT
?size@?$vector@KV?$allocator@K@std@@@std@@QBEIXZ PROC	; std::vector<unsigned long,std::allocator<unsigned long> >::size, COMDAT
; _this$ = ecx

; 879  : 		return (this->_Mylast - this->_Myfirst);

  00000	8b 41 04	 mov	 eax, DWORD PTR [ecx+4]
  00003	2b 01		 sub	 eax, DWORD PTR [ecx]
  00005	c1 f8 02	 sar	 eax, 2

; 880  : 		}

  00008	c3		 ret	 0
?size@?$vector@KV?$allocator@K@std@@@std@@QBEIXZ ENDP	; std::vector<unsigned long,std::allocator<unsigned long> >::size
_TEXT	ENDS
PUBLIC	??A?$vector@KV?$allocator@K@std@@@std@@QAEAAKI@Z ; std::vector<unsigned long,std::allocator<unsigned long> >::operator[]
; Function compile flags: /Ogsp
;	COMDAT ??A?$vector@KV?$allocator@K@std@@@std@@QAEAAKI@Z
_TEXT	SEGMENT
__Pos$ = 8						; size = 4
??A?$vector@KV?$allocator@K@std@@@std@@QAEAAKI@Z PROC	; std::vector<unsigned long,std::allocator<unsigned long> >::operator[], COMDAT
; _this$ = ecx

; 928  : 		{	// subscript mutable sequence

  00000	55		 push	 ebp
  00001	8b ec		 mov	 ebp, esp

; 929  :  #if _ITERATOR_DEBUG_LEVEL == 2
; 930  : 		if (size() <= _Pos)
; 931  : 			{	// report error
; 932  : 			_DEBUG_ERROR("vector subscript out of range");
; 933  : 			_SCL_SECURE_OUT_OF_RANGE;
; 934  : 			}
; 935  : 
; 936  :  #elif _ITERATOR_DEBUG_LEVEL == 1
; 937  : 		_SCL_SECURE_VALIDATE_RANGE(_Pos < size());
; 938  :  #endif /* _ITERATOR_DEBUG_LEVEL */
; 939  : 
; 940  : 		return (*(this->_Myfirst + _Pos));

  00003	8b 01		 mov	 eax, DWORD PTR [ecx]
  00005	8b 4d 08	 mov	 ecx, DWORD PTR __Pos$[ebp]
  00008	8d 04 88	 lea	 eax, DWORD PTR [eax+ecx*4]

; 941  : 		}

  0000b	5d		 pop	 ebp
  0000c	c2 04 00	 ret	 4
??A?$vector@KV?$allocator@K@std@@@std@@QAEAAKI@Z ENDP	; std::vector<unsigned long,std::allocator<unsigned long> >::operator[]
_TEXT	ENDS
EXTRN	??3@YAXPAX@Z:PROC				; operator delete
; Function compile flags: /Ogsp
;	COMDAT ??_G?$CEncrypt@M@@UAEPAXI@Z
_TEXT	SEGMENT
___flags$ = 8						; size = 4
??_G?$CEncrypt@M@@UAEPAXI@Z PROC			; CEncrypt<float>::`scalar deleting destructor', COMDAT
; _this$ = ecx
  00000	55		 push	 ebp
  00001	8b ec		 mov	 ebp, esp
  00003	56		 push	 esi
  00004	8b f1		 mov	 esi, ecx
  00006	8d 4e 0c	 lea	 ecx, DWORD PTR [esi+12]
  00009	c7 06 00 00 00
	00		 mov	 DWORD PTR [esi], OFFSET ??_7?$CEncrypt@M@@6B@
  0000f	e8 00 00 00 00	 call	 ??1ccddaabb@@UAE@XZ	; ccddaabb::~ccddaabb
  00014	f6 45 08 01	 test	 BYTE PTR ___flags$[ebp], 1
  00018	74 07		 je	 SHORT $LN1@scalar
  0001a	56		 push	 esi
  0001b	e8 00 00 00 00	 call	 ??3@YAXPAX@Z		; operator delete
  00020	59		 pop	 ecx
$LN1@scalar:
  00021	8b c6		 mov	 eax, esi
  00023	5e		 pop	 esi
  00024	5d		 pop	 ebp
  00025	c2 04 00	 ret	 4
??_G?$CEncrypt@M@@UAEPAXI@Z ENDP			; CEncrypt<float>::`scalar deleting destructor'
; Function compile flags: /Ogsp
_TEXT	ENDS
;	COMDAT ??_G?$CEncrypt@K@@UAEPAXI@Z
_TEXT	SEGMENT
___flags$ = 8						; size = 4
??_G?$CEncrypt@K@@UAEPAXI@Z PROC			; CEncrypt<unsigned long>::`scalar deleting destructor', COMDAT
; _this$ = ecx
  00000	55		 push	 ebp
  00001	8b ec		 mov	 ebp, esp
  00003	56		 push	 esi
  00004	8b f1		 mov	 esi, ecx
  00006	8d 4e 0c	 lea	 ecx, DWORD PTR [esi+12]
  00009	c7 06 00 00 00
	00		 mov	 DWORD PTR [esi], OFFSET ??_7?$CEncrypt@K@@6B@
  0000f	e8 00 00 00 00	 call	 ??1ccddaabb@@UAE@XZ	; ccddaabb::~ccddaabb
  00014	f6 45 08 01	 test	 BYTE PTR ___flags$[ebp], 1
  00018	74 07		 je	 SHORT $LN1@scalar@2
  0001a	56		 push	 esi
  0001b	e8 00 00 00 00	 call	 ??3@YAXPAX@Z		; operator delete
  00020	59		 pop	 ecx
$LN1@scalar@2:
  00021	8b c6		 mov	 eax, esi
  00023	5e		 pop	 esi
  00024	5d		 pop	 ebp
  00025	c2 04 00	 ret	 4
??_G?$CEncrypt@K@@UAEPAXI@Z ENDP			; CEncrypt<unsigned long>::`scalar deleting destructor'
_TEXT	ENDS
PUBLIC	?EncryptValueToPool@?$CEncrypt@M@@AAEXPBD@Z	; CEncrypt<float>::EncryptValueToPool
EXTRN	?EncryptByte@ccddaabb@@QAEXPBDPADH@Z:PROC	; ccddaabb::EncryptByte
; Function compile flags: /Ogsp
; File d:\lost saga for developer\youtube\tutorial\source\src\lsclient\encryptvalue.h
;	COMDAT ?EncryptValueToPool@?$CEncrypt@M@@AAEXPBD@Z
_TEXT	SEGMENT
_value$ = 8						; size = 4
?EncryptValueToPool@?$CEncrypt@M@@AAEXPBD@Z PROC	; CEncrypt<float>::EncryptValueToPool, COMDAT
; _this$ = ecx

; 67   : 	{

  00000	55		 push	 ebp
  00001	8b ec		 mov	 ebp, esp

; 68   : 		m_RC5.EncryptByte( value, m_MemPool, max(m_ValueSize, DEFAULT_ENCRYPT) );

  00003	0f b7 41 06	 movzx	 eax, WORD PTR [ecx+6]
  00007	83 f8 04	 cmp	 eax, 4
  0000a	77 03		 ja	 SHORT $LN4@EncryptVal
  0000c	6a 04		 push	 4
  0000e	58		 pop	 eax
$LN4@EncryptVal:
  0000f	50		 push	 eax
  00010	8d 41 1c	 lea	 eax, DWORD PTR [ecx+28]
  00013	50		 push	 eax
  00014	ff 75 08	 push	 DWORD PTR _value$[ebp]
  00017	83 c1 0c	 add	 ecx, 12			; 0000000cH
  0001a	e8 00 00 00 00	 call	 ?EncryptByte@ccddaabb@@QAEXPBDPADH@Z ; ccddaabb::EncryptByte

; 69   : 		
; 70   : 	}

  0001f	5d		 pop	 ebp
  00020	c2 04 00	 ret	 4
?EncryptValueToPool@?$CEncrypt@M@@AAEXPBD@Z ENDP	; CEncrypt<float>::EncryptValueToPool
_TEXT	ENDS
PUBLIC	?Init@?$CEncrypt@M@@AAEXXZ			; CEncrypt<float>::Init
EXTRN	?Setup@ccddaabb@@QAEXPBDHH@Z:PROC		; ccddaabb::Setup
EXTRN	__imp__rand:PROC
EXTRN	__imp__timeGetTime@0:PROC
EXTRN	__imp__GetCurrentProcessId@0:PROC
; Function compile flags: /Ogsp
;	COMDAT ?Init@?$CEncrypt@M@@AAEXXZ
_TEXT	SEGMENT
_pid$ = -8						; size = 4
_tick$ = -4						; size = 4
?Init@?$CEncrypt@M@@AAEXXZ PROC				; CEncrypt<float>::Init, COMDAT
; _this$ = ecx

; 73   : 	{

  00000	55		 push	 ebp
  00001	8b ec		 mov	 ebp, esp
  00003	51		 push	 ecx
  00004	51		 push	 ecx
  00005	53		 push	 ebx
  00006	56		 push	 esi
  00007	57		 push	 edi
  00008	8b f1		 mov	 esi, ecx

; 74   : 		DWORD pid = GetCurrentProcessId();

  0000a	ff 15 00 00 00
	00		 call	 DWORD PTR __imp__GetCurrentProcessId@0
  00010	89 45 f8	 mov	 DWORD PTR _pid$[ebp], eax

; 75   : 		DWORD tick = timeGetTime();

  00013	ff 15 00 00 00
	00		 call	 DWORD PTR __imp__timeGetTime@0

; 76   : 		m_ValueSize    = sizeof(type);
; 77   : 		m_MemPoolPos   = (unsigned short)( rand()+pid+tick )%(MAX_MEM_POOL-m_ValueSize);

  00019	8b 3d 00 00 00
	00		 mov	 edi, DWORD PTR __imp__rand
  0001f	89 45 fc	 mov	 DWORD PTR _tick$[ebp], eax
  00022	6a 04		 push	 4
  00024	58		 pop	 eax
  00025	66 89 46 06	 mov	 WORD PTR [esi+6], ax
  00029	ff d7		 call	 edi
  0002b	03 45 f8	 add	 eax, DWORD PTR _pid$[ebp]
  0002e	0f b7 4e 06	 movzx	 ecx, WORD PTR [esi+6]
  00032	03 45 fc	 add	 eax, DWORD PTR _tick$[ebp]
  00035	6a 0c		 push	 12			; 0000000cH
  00037	0f b7 c0	 movzx	 eax, ax
  0003a	5b		 pop	 ebx
  0003b	99		 cdq
  0003c	2b d9		 sub	 ebx, ecx
  0003e	f7 fb		 idiv	 ebx
  00040	66 89 56 04	 mov	 WORD PTR [esi+4], dx

; 78   : 		m_EncryptSeed  = (char)( rand()+pid+tick )%256;

  00044	ff d7		 call	 edi
  00046	02 45 f8	 add	 al, BYTE PTR _pid$[ebp]
  00049	02 45 fc	 add	 al, BYTE PTR _tick$[ebp]
  0004c	0f be c0	 movsx	 eax, al
  0004f	25 ff 00 00 80	 and	 eax, -2147483393	; 800000ffH
  00054	79 07		 jns	 SHORT $LN8@Init
  00056	48		 dec	 eax
  00057	0d 00 ff ff ff	 or	 eax, -256		; ffffff00H
  0005c	40		 inc	 eax
$LN8@Init:
  0005d	88 46 08	 mov	 BYTE PTR [esi+8], al

; 79   : 
; 80   : 		for (int i = 0; i < MAX_MEM_POOL ; i++)

  00060	33 db		 xor	 ebx, ebx
$LL3@Init:

; 81   : 			m_MemPool[i] = (char)( rand()+pid+tick )%256; // 더미

  00062	ff d7		 call	 edi
  00064	02 45 f8	 add	 al, BYTE PTR _pid$[ebp]
  00067	02 45 fc	 add	 al, BYTE PTR _tick$[ebp]
  0006a	0f be c0	 movsx	 eax, al
  0006d	25 ff 00 00 80	 and	 eax, -2147483393	; 800000ffH
  00072	79 07		 jns	 SHORT $LN9@Init
  00074	48		 dec	 eax
  00075	0d 00 ff ff ff	 or	 eax, -256		; ffffff00H
  0007a	40		 inc	 eax
$LN9@Init:
  0007b	88 44 1e 1c	 mov	 BYTE PTR [esi+ebx+28], al
  0007f	43		 inc	 ebx
  00080	83 fb 0c	 cmp	 ebx, 12			; 0000000cH
  00083	7c dd		 jl	 SHORT $LL3@Init

; 82   : 
; 83   : 		//UJ 130913, 최적화: szKey 사용안하도록 간략화
; 84   : 		//char szKey[ccddaabb::KEY_SIZE];//="";
; 85   : 		//for (int i = 0; i < ccddaabb::KEY_SIZE  ; i++)
; 86   : 		//	szKey[i] = (char)( rand()+pid+tick )%256; // 더미
; 87   : 		m_RC5.Setup( NULL, pid, tick );

  00085	ff 75 fc	 push	 DWORD PTR _tick$[ebp]
  00088	8d 4e 0c	 lea	 ecx, DWORD PTR [esi+12]
  0008b	ff 75 f8	 push	 DWORD PTR _pid$[ebp]
  0008e	6a 00		 push	 0
  00090	e8 00 00 00 00	 call	 ?Setup@ccddaabb@@QAEXPBDHH@Z ; ccddaabb::Setup
  00095	5f		 pop	 edi
  00096	5e		 pop	 esi
  00097	5b		 pop	 ebx

; 88   : 
; 89   : #ifdef _NOTUSE
; 90   : 		m_value        = 0;
; 91   : 		EncryptValueToPool((char*)&m_value);
; 92   : 		Debug();
; 93   : #endif
; 94   : 	}

  00098	c9		 leave
  00099	c3		 ret	 0
?Init@?$CEncrypt@M@@AAEXXZ ENDP				; CEncrypt<float>::Init
_TEXT	ENDS
PUBLIC	?DecryptValueToPool@?$CEncrypt@M@@QAEXPAM@Z	; CEncrypt<float>::DecryptValueToPool
EXTRN	?DecryptByte@ccddaabb@@QBEXPBDPADH@Z:PROC	; ccddaabb::DecryptByte
; Function compile flags: /Ogsp
;	COMDAT ?DecryptValueToPool@?$CEncrypt@M@@QAEXPAM@Z
_TEXT	SEGMENT
_value$ = 8						; size = 4
?DecryptValueToPool@?$CEncrypt@M@@QAEXPAM@Z PROC	; CEncrypt<float>::DecryptValueToPool, COMDAT
; _this$ = ecx

; 1648 : 	{

  00000	55		 push	 ebp
  00001	8b ec		 mov	 ebp, esp
  00003	56		 push	 esi

; 1649 : 		m_RC5.DecryptByte( m_MemPool, m_TempMem, 4 );

  00004	8d 71 28	 lea	 esi, DWORD PTR [ecx+40]
  00007	6a 04		 push	 4
  00009	8d 41 1c	 lea	 eax, DWORD PTR [ecx+28]
  0000c	56		 push	 esi
  0000d	50		 push	 eax
  0000e	83 c1 0c	 add	 ecx, 12			; 0000000cH
  00011	e8 00 00 00 00	 call	 ?DecryptByte@ccddaabb@@QBEXPBDPADH@Z ; ccddaabb::DecryptByte

; 1650 : 		*value = *((float*)m_TempMem);

  00016	d9 06		 fld	 DWORD PTR [esi]
  00018	8b 45 08	 mov	 eax, DWORD PTR _value$[ebp]
  0001b	d9 18		 fstp	 DWORD PTR [eax]
  0001d	5e		 pop	 esi

; 1651 : 	}

  0001e	5d		 pop	 ebp
  0001f	c2 04 00	 ret	 4
?DecryptValueToPool@?$CEncrypt@M@@QAEXPAM@Z ENDP	; CEncrypt<float>::DecryptValueToPool
_TEXT	ENDS
PUBLIC	?EncryptValueToPool@?$CEncrypt@K@@AAEXPBD@Z	; CEncrypt<unsigned long>::EncryptValueToPool
; Function compile flags: /Ogsp
;	COMDAT ?EncryptValueToPool@?$CEncrypt@K@@AAEXPBD@Z
_TEXT	SEGMENT
_value$ = 8						; size = 4
?EncryptValueToPool@?$CEncrypt@K@@AAEXPBD@Z PROC	; CEncrypt<unsigned long>::EncryptValueToPool, COMDAT
; _this$ = ecx

; 67   : 	{

  00000	55		 push	 ebp
  00001	8b ec		 mov	 ebp, esp

; 68   : 		m_RC5.EncryptByte( value, m_MemPool, max(m_ValueSize, DEFAULT_ENCRYPT) );

  00003	0f b7 41 06	 movzx	 eax, WORD PTR [ecx+6]
  00007	83 f8 04	 cmp	 eax, 4
  0000a	77 03		 ja	 SHORT $LN4@EncryptVal@2
  0000c	6a 04		 push	 4
  0000e	58		 pop	 eax
$LN4@EncryptVal@2:
  0000f	50		 push	 eax
  00010	8d 41 1c	 lea	 eax, DWORD PTR [ecx+28]
  00013	50		 push	 eax
  00014	ff 75 08	 push	 DWORD PTR _value$[ebp]
  00017	83 c1 0c	 add	 ecx, 12			; 0000000cH
  0001a	e8 00 00 00 00	 call	 ?EncryptByte@ccddaabb@@QAEXPBDPADH@Z ; ccddaabb::EncryptByte

; 69   : 		
; 70   : 	}

  0001f	5d		 pop	 ebp
  00020	c2 04 00	 ret	 4
?EncryptValueToPool@?$CEncrypt@K@@AAEXPBD@Z ENDP	; CEncrypt<unsigned long>::EncryptValueToPool
_TEXT	ENDS
PUBLIC	?Init@?$CEncrypt@K@@AAEXXZ			; CEncrypt<unsigned long>::Init
; Function compile flags: /Ogsp
;	COMDAT ?Init@?$CEncrypt@K@@AAEXXZ
_TEXT	SEGMENT
_pid$ = -8						; size = 4
_tick$ = -4						; size = 4
?Init@?$CEncrypt@K@@AAEXXZ PROC				; CEncrypt<unsigned long>::Init, COMDAT
; _this$ = ecx

; 73   : 	{

  00000	55		 push	 ebp
  00001	8b ec		 mov	 ebp, esp
  00003	51		 push	 ecx
  00004	51		 push	 ecx
  00005	53		 push	 ebx
  00006	56		 push	 esi
  00007	57		 push	 edi
  00008	8b f1		 mov	 esi, ecx

; 74   : 		DWORD pid = GetCurrentProcessId();

  0000a	ff 15 00 00 00
	00		 call	 DWORD PTR __imp__GetCurrentProcessId@0
  00010	89 45 f8	 mov	 DWORD PTR _pid$[ebp], eax

; 75   : 		DWORD tick = timeGetTime();

  00013	ff 15 00 00 00
	00		 call	 DWORD PTR __imp__timeGetTime@0

; 76   : 		m_ValueSize    = sizeof(type);
; 77   : 		m_MemPoolPos   = (unsigned short)( rand()+pid+tick )%(MAX_MEM_POOL-m_ValueSize);

  00019	8b 3d 00 00 00
	00		 mov	 edi, DWORD PTR __imp__rand
  0001f	89 45 fc	 mov	 DWORD PTR _tick$[ebp], eax
  00022	6a 04		 push	 4
  00024	58		 pop	 eax
  00025	66 89 46 06	 mov	 WORD PTR [esi+6], ax
  00029	ff d7		 call	 edi
  0002b	03 45 f8	 add	 eax, DWORD PTR _pid$[ebp]
  0002e	0f b7 4e 06	 movzx	 ecx, WORD PTR [esi+6]
  00032	03 45 fc	 add	 eax, DWORD PTR _tick$[ebp]
  00035	6a 0c		 push	 12			; 0000000cH
  00037	0f b7 c0	 movzx	 eax, ax
  0003a	5b		 pop	 ebx
  0003b	99		 cdq
  0003c	2b d9		 sub	 ebx, ecx
  0003e	f7 fb		 idiv	 ebx
  00040	66 89 56 04	 mov	 WORD PTR [esi+4], dx

; 78   : 		m_EncryptSeed  = (char)( rand()+pid+tick )%256;

  00044	ff d7		 call	 edi
  00046	02 45 f8	 add	 al, BYTE PTR _pid$[ebp]
  00049	02 45 fc	 add	 al, BYTE PTR _tick$[ebp]
  0004c	0f be c0	 movsx	 eax, al
  0004f	25 ff 00 00 80	 and	 eax, -2147483393	; 800000ffH
  00054	79 07		 jns	 SHORT $LN8@Init@2
  00056	48		 dec	 eax
  00057	0d 00 ff ff ff	 or	 eax, -256		; ffffff00H
  0005c	40		 inc	 eax
$LN8@Init@2:
  0005d	88 46 08	 mov	 BYTE PTR [esi+8], al

; 79   : 
; 80   : 		for (int i = 0; i < MAX_MEM_POOL ; i++)

  00060	33 db		 xor	 ebx, ebx
$LL3@Init@2:

; 81   : 			m_MemPool[i] = (char)( rand()+pid+tick )%256; // 더미

  00062	ff d7		 call	 edi
  00064	02 45 f8	 add	 al, BYTE PTR _pid$[ebp]
  00067	02 45 fc	 add	 al, BYTE PTR _tick$[ebp]
  0006a	0f be c0	 movsx	 eax, al
  0006d	25 ff 00 00 80	 and	 eax, -2147483393	; 800000ffH
  00072	79 07		 jns	 SHORT $LN9@Init@2
  00074	48		 dec	 eax
  00075	0d 00 ff ff ff	 or	 eax, -256		; ffffff00H
  0007a	40		 inc	 eax
$LN9@Init@2:
  0007b	88 44 1e 1c	 mov	 BYTE PTR [esi+ebx+28], al
  0007f	43		 inc	 ebx
  00080	83 fb 0c	 cmp	 ebx, 12			; 0000000cH
  00083	7c dd		 jl	 SHORT $LL3@Init@2

; 82   : 
; 83   : 		//UJ 130913, 최적화: szKey 사용안하도록 간략화
; 84   : 		//char szKey[ccddaabb::KEY_SIZE];//="";
; 85   : 		//for (int i = 0; i < ccddaabb::KEY_SIZE  ; i++)
; 86   : 		//	szKey[i] = (char)( rand()+pid+tick )%256; // 더미
; 87   : 		m_RC5.Setup( NULL, pid, tick );

  00085	ff 75 fc	 push	 DWORD PTR _tick$[ebp]
  00088	8d 4e 0c	 lea	 ecx, DWORD PTR [esi+12]
  0008b	ff 75 f8	 push	 DWORD PTR _pid$[ebp]
  0008e	6a 00		 push	 0
  00090	e8 00 00 00 00	 call	 ?Setup@ccddaabb@@QAEXPBDHH@Z ; ccddaabb::Setup
  00095	5f		 pop	 edi
  00096	5e		 pop	 esi
  00097	5b		 pop	 ebx

; 88   : 
; 89   : #ifdef _NOTUSE
; 90   : 		m_value        = 0;
; 91   : 		EncryptValueToPool((char*)&m_value);
; 92   : 		Debug();
; 93   : #endif
; 94   : 	}

  00098	c9		 leave
  00099	c3		 ret	 0
?Init@?$CEncrypt@K@@AAEXXZ ENDP				; CEncrypt<unsigned long>::Init
_TEXT	ENDS
PUBLIC	?DecryptValueToPool@?$CEncrypt@K@@QAEXPAK@Z	; CEncrypt<unsigned long>::DecryptValueToPool
; Function compile flags: /Ogsp
;	COMDAT ?DecryptValueToPool@?$CEncrypt@K@@QAEXPAK@Z
_TEXT	SEGMENT
_value$ = 8						; size = 4
?DecryptValueToPool@?$CEncrypt@K@@QAEXPAK@Z PROC	; CEncrypt<unsigned long>::DecryptValueToPool, COMDAT
; _this$ = ecx

; 1256 : 	{

  00000	55		 push	 ebp
  00001	8b ec		 mov	 ebp, esp
  00003	56		 push	 esi

; 1257 : 		m_RC5.DecryptByte( m_MemPool, m_TempMem, 4 );

  00004	8d 71 28	 lea	 esi, DWORD PTR [ecx+40]
  00007	6a 04		 push	 4
  00009	8d 41 1c	 lea	 eax, DWORD PTR [ecx+28]
  0000c	56		 push	 esi
  0000d	50		 push	 eax
  0000e	83 c1 0c	 add	 ecx, 12			; 0000000cH
  00011	e8 00 00 00 00	 call	 ?DecryptByte@ccddaabb@@QBEXPBDPADH@Z ; ccddaabb::DecryptByte

; 1258 : 		*value = *((DWORD*)m_TempMem);

  00016	8b 06		 mov	 eax, DWORD PTR [esi]
  00018	8b 4d 08	 mov	 ecx, DWORD PTR _value$[ebp]
  0001b	89 01		 mov	 DWORD PTR [ecx], eax
  0001d	5e		 pop	 esi

; 1259 : 	}

  0001e	5d		 pop	 ebp
  0001f	c2 04 00	 ret	 4
?DecryptValueToPool@?$CEncrypt@K@@QAEXPAK@Z ENDP	; CEncrypt<unsigned long>::DecryptValueToPool
_TEXT	ENDS
PUBLIC	?DecryptValueToPool@?$CEncrypt@H@@QAEXPAH@Z	; CEncrypt<int>::DecryptValueToPool
; Function compile flags: /Ogsp
;	COMDAT ?DecryptValueToPool@?$CEncrypt@H@@QAEXPAH@Z
_TEXT	SEGMENT
_value$ = 8						; size = 4
?DecryptValueToPool@?$CEncrypt@H@@QAEXPAH@Z PROC	; CEncrypt<int>::DecryptValueToPool, COMDAT
; _this$ = ecx

; 837  : 	{

  00000	55		 push	 ebp
  00001	8b ec		 mov	 ebp, esp
  00003	56		 push	 esi

; 838  : 		m_RC5.DecryptByte( m_MemPool, m_TempMem, 4 );

  00004	8d 71 28	 lea	 esi, DWORD PTR [ecx+40]
  00007	6a 04		 push	 4
  00009	8d 41 1c	 lea	 eax, DWORD PTR [ecx+28]
  0000c	56		 push	 esi
  0000d	50		 push	 eax
  0000e	83 c1 0c	 add	 ecx, 12			; 0000000cH
  00011	e8 00 00 00 00	 call	 ?DecryptByte@ccddaabb@@QBEXPBDPADH@Z ; ccddaabb::DecryptByte

; 839  : 		*value = *((int*)m_TempMem);

  00016	8b 06		 mov	 eax, DWORD PTR [esi]
  00018	8b 4d 08	 mov	 ecx, DWORD PTR _value$[ebp]
  0001b	89 01		 mov	 DWORD PTR [ecx], eax
  0001d	5e		 pop	 esi

; 840  : 	}

  0001e	5d		 pop	 ebp
  0001f	c2 04 00	 ret	 4
?DecryptValueToPool@?$CEncrypt@H@@QAEXPAH@Z ENDP	; CEncrypt<int>::DecryptValueToPool
_TEXT	ENDS
PUBLIC	??_7ioOwnerControlDummy2@@6BioWorldEventReceiver@@@ ; ioOwnerControlDummy2::`vftable'
PUBLIC	??_7ioOwnerControlDummy2@@6BioPlayEntity@@@	; ioOwnerControlDummy2::`vftable'
PUBLIC	??1ioOwnerControlDummy2@@UAE@XZ			; ioOwnerControlDummy2::~ioOwnerControlDummy2
PUBLIC	??_R4ioOwnerControlDummy2@@6BioPlayEntity@@@	; ioOwnerControlDummy2::`RTTI Complete Object Locator'
PUBLIC	??_R0?AVioOwnerControlDummy2@@@8		; ioOwnerControlDummy2 `RTTI Type Descriptor'
PUBLIC	??_R3ioOwnerControlDummy2@@8			; ioOwnerControlDummy2::`RTTI Class Hierarchy Descriptor'
PUBLIC	??_R2ioOwnerControlDummy2@@8			; ioOwnerControlDummy2::`RTTI Base Class Array'
PUBLIC	??_R1A@?0A@EA@ioOwnerControlDummy2@@8		; ioOwnerControlDummy2::`RTTI Base Class Descriptor at (0,-1,0,64)'
PUBLIC	??_R1A@?0A@EA@ioDummyChar@@8			; ioDummyChar::`RTTI Base Class Descriptor at (0,-1,0,64)'
PUBLIC	??_R0?AVioDummyChar@@@8				; ioDummyChar `RTTI Type Descriptor'
PUBLIC	??_R3ioDummyChar@@8				; ioDummyChar::`RTTI Class Hierarchy Descriptor'
PUBLIC	??_R2ioDummyChar@@8				; ioDummyChar::`RTTI Base Class Array'
PUBLIC	??_R1A@?0A@EA@ioPlayEntity@@8			; ioPlayEntity::`RTTI Base Class Descriptor at (0,-1,0,64)'
PUBLIC	??_R0?AVioPlayEntity@@@8			; ioPlayEntity `RTTI Type Descriptor'
PUBLIC	??_R3ioPlayEntity@@8				; ioPlayEntity::`RTTI Class Hierarchy Descriptor'
PUBLIC	??_R2ioPlayEntity@@8				; ioPlayEntity::`RTTI Base Class Array'
PUBLIC	??_R1A@?0A@EA@ioGameEntity@@8			; ioGameEntity::`RTTI Base Class Descriptor at (0,-1,0,64)'
PUBLIC	??_R0?AVioGameEntity@@@8			; ioGameEntity `RTTI Type Descriptor'
PUBLIC	??_R3ioGameEntity@@8				; ioGameEntity::`RTTI Class Hierarchy Descriptor'
PUBLIC	??_R2ioGameEntity@@8				; ioGameEntity::`RTTI Base Class Array'
PUBLIC	??_R1A@?0A@EA@ioEntityEvent@@8			; ioEntityEvent::`RTTI Base Class Descriptor at (0,-1,0,64)'
PUBLIC	??_R0?AVioEntityEvent@@@8			; ioEntityEvent `RTTI Type Descriptor'
PUBLIC	??_R3ioEntityEvent@@8				; ioEntityEvent::`RTTI Class Hierarchy Descriptor'
PUBLIC	??_R2ioEntityEvent@@8				; ioEntityEvent::`RTTI Base Class Array'
PUBLIC	??_R1BMI@?0A@EA@ioWorldEventReceiver@@8		; ioWorldEventReceiver::`RTTI Base Class Descriptor at (456,-1,0,64)'
PUBLIC	??_R0?AVioWorldEventReceiver@@@8		; ioWorldEventReceiver `RTTI Type Descriptor'
PUBLIC	??_R3ioWorldEventReceiver@@8			; ioWorldEventReceiver::`RTTI Class Hierarchy Descriptor'
PUBLIC	??_R2ioWorldEventReceiver@@8			; ioWorldEventReceiver::`RTTI Base Class Array'
PUBLIC	??_R1A@?0A@EA@ioWorldEventReceiver@@8		; ioWorldEventReceiver::`RTTI Base Class Descriptor at (0,-1,0,64)'
PUBLIC	?LoadProperty@ioOwnerControlDummy2@@UAEXAAVioINILoader@@@Z ; ioOwnerControlDummy2::LoadProperty
PUBLIC	?SetTeam@ioPlayEntity@@UAEXW4TeamType@@@Z	; ioPlayEntity::SetTeam
PUBLIC	?ProcessState@ioOwnerControlDummy2@@MAEXMK@Z	; ioOwnerControlDummy2::ProcessState
PUBLIC	?ProcessPos@ioOwnerControlDummy2@@MAEXM@Z	; ioOwnerControlDummy2::ProcessPos
PUBLIC	?ProcessMoveState@ioOwnerControlDummy2@@MAEXM@Z	; ioOwnerControlDummy2::ProcessMoveState
PUBLIC	?ApplyDummyCharSync@ioOwnerControlDummy2@@UAEXPAVioPlayStage@@AAVSP2Packet@@@Z ; ioOwnerControlDummy2::ApplyDummyCharSync
PUBLIC	?IsDummyCharMidSync@ioDummyChar@@UAE_NXZ	; ioDummyChar::IsDummyCharMidSync
PUBLIC	??_R4ioOwnerControlDummy2@@6BioWorldEventReceiver@@@ ; ioOwnerControlDummy2::`RTTI Complete Object Locator'
PUBLIC	??_EioOwnerControlDummy2@@WBMI@AEPAXI@Z		; [thunk]:ioOwnerControlDummy2::`vector deleting destructor'
EXTRN	??1ioDummyChar@@UAE@XZ:PROC			; ioDummyChar::~ioDummyChar
EXTRN	__EH_epilog3:PROC
EXTRN	__EH_prolog3:PROC
EXTRN	?AddEntityEvent@ioDummyChar@@UAEXPAVioEntity@@@Z:PROC ; ioDummyChar::AddEntityEvent
EXTRN	??_EioOwnerControlDummy2@@UAEPAXI@Z:PROC	; ioOwnerControlDummy2::`vector deleting destructor'
EXTRN	?Update@ioDummyChar@@UAEXMKK@Z:PROC		; ioDummyChar::Update
EXTRN	?UpdateAfter@ioDummyChar@@UAEXM@Z:PROC		; ioDummyChar::UpdateAfter
EXTRN	?GetTypeID@ioPlayEntity@@UBEHXZ:PROC		; ioPlayEntity::GetTypeID
EXTRN	?IsNeedCheckMapCollision@ioDummyChar@@UBE_NXZ:PROC ; ioDummyChar::IsNeedCheckMapCollision
EXTRN	?IsMountAvailable@ioDummyChar@@UBE_NXZ:PROC	; ioDummyChar::IsMountAvailable
EXTRN	?IsMountingAvailable@ioDummyChar@@UBE_NXZ:PROC	; ioDummyChar::IsMountingAvailable
EXTRN	?IsNowMountEnable@ioDummyChar@@UBE_NXZ:PROC	; ioDummyChar::IsNowMountEnable
EXTRN	?IsAllWeaponDefence@ioGameEntity@@UBE_NXZ:PROC	; ioGameEntity::IsAllWeaponDefence
EXTRN	?HasEntity@ioGameEntity@@UAE_NABVioHashString@@@Z:PROC ; ioGameEntity::HasEntity
EXTRN	?AddEntity@ioGameEntity@@UAEPAVioEntity@@ABVioHashString@@@Z:PROC ; ioGameEntity::AddEntity
EXTRN	?DestroyEntity@ioGameEntity@@UAE_NABVioHashString@@@Z:PROC ; ioGameEntity::DestroyEntity
EXTRN	?GetEntity@ioGameEntity@@UAEPAVioEntity@@ABVioHashString@@@Z:PROC ; ioGameEntity::GetEntity
EXTRN	?UpdateBound@ioGameEntity@@MBEXXZ:PROC		; ioGameEntity::UpdateBound
EXTRN	?UpdateBottomHeight@ioDummyChar@@MBEXXZ:PROC	; ioDummyChar::UpdateBottomHeight
EXTRN	?NeedUpdateBottomHeight@ioDummyChar@@UAEXXZ:PROC ; ioDummyChar::NeedUpdateBottomHeight
EXTRN	?SetWorldPosition@ioGameEntity@@UAEXABUD3DXVECTOR3@@@Z:PROC ; ioGameEntity::SetWorldPosition
EXTRN	?SetWorldOrientation@ioGameEntity@@UAEXABUD3DXQUATERNION@@@Z:PROC ; ioGameEntity::SetWorldOrientation
EXTRN	?SetWorldScale@ioGameEntity@@UAEXABUD3DXVECTOR3@@@Z:PROC ; ioGameEntity::SetWorldScale
EXTRN	?Translate@ioDummyChar@@UAEXABUD3DXVECTOR3@@@Z:PROC ; ioDummyChar::Translate
EXTRN	?TranslateByConveyer@ioDummyChar@@UAEXABUD3DXVECTOR3@@@Z:PROC ; ioDummyChar::TranslateByConveyer
EXTRN	?TranslateByWorldEntity@ioDummyChar@@UAEXABUD3DXVECTOR3@@@Z:PROC ; ioDummyChar::TranslateByWorldEntity
EXTRN	?MapCollisionPushingTranslate@ioDummyChar@@UAEXABUD3DXVECTOR3@@@Z:PROC ; ioDummyChar::MapCollisionPushingTranslate
EXTRN	?DontMoveCollisionPushingTranslate@ioGameEntity@@UAEXPAV1@ABUD3DXVECTOR3@@@Z:PROC ; ioGameEntity::DontMoveCollisionPushingTranslate
EXTRN	?Rotate@ioGameEntity@@UAEXABUD3DXVECTOR3@@MW4TransformSpace@ioNode@@@Z:PROC ; ioGameEntity::Rotate
EXTRN	?Scale@ioGameEntity@@UAEXMMM@Z:PROC		; ioGameEntity::Scale
EXTRN	?Scale@ioGameEntity@@UAEXABUD3DXVECTOR3@@@Z:PROC ; ioGameEntity::Scale
EXTRN	?GetWorldPosition@ioGameEntity@@UBEABUD3DXVECTOR3@@XZ:PROC ; ioGameEntity::GetWorldPosition
EXTRN	?GetWorldOrientation@ioGameEntity@@UBEABUD3DXQUATERNION@@XZ:PROC ; ioGameEntity::GetWorldOrientation
EXTRN	?GetWorldScale@ioGameEntity@@UBEABUD3DXVECTOR3@@XZ:PROC ; ioGameEntity::GetWorldScale
EXTRN	?ApplyWeapon@ioDummyChar@@UAE?AW4ApplyWeaponExp@@PAVioWeapon@@@Z:PROC ; ioDummyChar::ApplyWeapon
EXTRN	?IsCollisionAvailableWeapon@ioDummyChar@@UAE_NPAVioWeapon@@@Z:PROC ; ioDummyChar::IsCollisionAvailableWeapon
EXTRN	?IsCollisionAvailableRange@ioPlayEntity@@UAE_NPAVioWeapon@@@Z:PROC ; ioPlayEntity::IsCollisionAvailableRange
EXTRN	?IsEntityCollisionSkipState@ioDummyChar@@UBE_NPAVioGameEntity@@@Z:PROC ; ioDummyChar::IsEntityCollisionSkipState
EXTRN	?IsCharCollisionSkipState@ioDummyChar@@UBE_NW4TeamType@@H@Z:PROC ; ioDummyChar::IsCharCollisionSkipState
EXTRN	?IsWoundedCollision@ioPlayEntity@@UBE_NABVioOrientBox@@PAUD3DXVECTOR3@@@Z:PROC ; ioPlayEntity::IsWoundedCollision
EXTRN	?GetAttackCollisionBox@ioDummyChar@@UAE?AVioOrientBox@@W4AniCollisionType@@_N@Z:PROC ; ioDummyChar::GetAttackCollisionBox
EXTRN	?CheckSphereDistance@ioPlayEntity@@UBE_NABUD3DXVECTOR3@@MAAM@Z:PROC ; ioPlayEntity::CheckSphereDistance
EXTRN	?CheckSpherePoint@ioPlayEntity@@UBE_NABUD3DXVECTOR3@@MAAU2@@Z:PROC ; ioPlayEntity::CheckSpherePoint
EXTRN	?CheckCylinderPoint@ioPlayEntity@@UBE_NABVioCylinder@@ABUD3DXVECTOR3@@AAU3@@Z:PROC ; ioPlayEntity::CheckCylinderPoint
EXTRN	?GetSubType@ioDummyChar@@UBE?AW4PlaySubType@ioPlayEntity@@XZ:PROC ; ioDummyChar::GetSubType
EXTRN	?GetArmorType@ioDummyChar@@UBE?AW4ArmorType@@XZ:PROC ; ioDummyChar::GetArmorType
EXTRN	?DontMoveEntityLevel@ioDummyChar@@UBEHXZ:PROC	; ioDummyChar::DontMoveEntityLevel
EXTRN	?NotifyDontMoveCollisionPushingSkip@ioPlayEntity@@UAEXPAVioGameEntity@@@Z:PROC ; ioPlayEntity::NotifyDontMoveCollisionPushingSkip
EXTRN	?GetWorldEventReceiver@ioDummyChar@@UAEPAVioWorldEventReceiver@@XZ:PROC ; ioDummyChar::GetWorldEventReceiver
EXTRN	?Revival@ioPlayEntity@@UAEXXZ:PROC		; ioPlayEntity::Revival
EXTRN	?UpdateGauge@ioDummyChar@@UAEXXZ:PROC		; ioDummyChar::UpdateGauge
EXTRN	?RenderGauge@ioDummyChar@@UAEXXZ:PROC		; ioDummyChar::RenderGauge
EXTRN	?FillMaxHP@ioPlayEntity@@UAEXXZ:PROC		; ioPlayEntity::FillMaxHP
EXTRN	?ProcessRecovery@ioPlayEntity@@MAEXXZ:PROC	; ioPlayEntity::ProcessRecovery
EXTRN	?AddHeadDamageInfo@ioPlayEntity@@UAEXH_N@Z:PROC	; ioPlayEntity::AddHeadDamageInfo
EXTRN	?RenderHeadInfoList@ioPlayEntity@@UAEXHH@Z:PROC	; ioPlayEntity::RenderHeadInfoList
EXTRN	?UpdateHeadInfoList@ioPlayEntity@@MAEXK@Z:PROC	; ioPlayEntity::UpdateHeadInfoList
EXTRN	?InitDummyCharInfo@ioDummyChar@@UAEXHKABUD3DXVECTOR3@@0M_N@Z:PROC ; ioDummyChar::InitDummyCharInfo
EXTRN	?TestMapCollision@ioDummyChar@@UAE_NPAVioOpcodeShape@@PAVioPlayStage@@PBUD3DXMATRIX@@@Z:PROC ; ioDummyChar::TestMapCollision
EXTRN	?CheckEntityCollision@ioDummyChar@@UAEXPAVioPlayEntity@@@Z:PROC ; ioDummyChar::CheckEntityCollision
EXTRN	?GetDummyGrassType@ioDummyChar@@UAEHXZ:PROC	; ioDummyChar::GetDummyGrassType
EXTRN	?IsActivateWeapon@ioDummyChar@@UAE_NXZ:PROC	; ioDummyChar::IsActivateWeapon
EXTRN	?IsDummyVsDummyCollisionSkipState@ioDummyChar@@UAE_NPBV1@@Z:PROC ; ioDummyChar::IsDummyVsDummyCollisionSkipState
EXTRN	?ProcessDelayState@ioDummyChar@@MAEXM@Z:PROC	; ioDummyChar::ProcessDelayState
EXTRN	?ProcessDashState@ioDummyChar@@MAEXM@Z:PROC	; ioDummyChar::ProcessDashState
EXTRN	?ProcessAttackState@ioDummyChar@@MAEXMK@Z:PROC	; ioDummyChar::ProcessAttackState
EXTRN	?SetDelayState@ioDummyChar@@UAEX_N@Z:PROC	; ioDummyChar::SetDelayState
EXTRN	?SetDieState@ioDummyChar@@UAEX_N0@Z:PROC	; ioDummyChar::SetDieState
EXTRN	?SetDashState@ioDummyChar@@UAEXXZ:PROC		; ioDummyChar::SetDashState
EXTRN	?SetAttackState@ioDummyChar@@UAEXXZ:PROC	; ioDummyChar::SetAttackState
EXTRN	?DropZoneCheck@ioDummyChar@@MAEXXZ:PROC		; ioDummyChar::DropZoneCheck
EXTRN	?SendAttackInfoToSkill@ioDummyChar@@MAEXXZ:PROC	; ioDummyChar::SendAttackInfoToSkill
EXTRN	?CheckCollisionWeapon@ioDummyChar@@UAEXPAVioBaseChar@@@Z:PROC ; ioDummyChar::CheckCollisionWeapon
EXTRN	?TranslateMountEntity@ioDummyChar@@MAEXABUD3DXVECTOR3@@@Z:PROC ; ioDummyChar::TranslateMountEntity
EXTRN	?ClearMountEntity@ioDummyChar@@MAEXXZ:PROC	; ioDummyChar::ClearMountEntity
EXTRN	?UpdateMountedEntityList@ioDummyChar@@MAEXXZ:PROC ; ioDummyChar::UpdateMountedEntityList
EXTRN	?UpdateMountedWeaponList@ioDummyChar@@MAEXXZ:PROC ; ioDummyChar::UpdateMountedWeaponList
EXTRN	?SetWorldPositionMountEntity@ioDummyChar@@MAEXM@Z:PROC ; ioDummyChar::SetWorldPositionMountEntity
EXTRN	?DummyDieClearMountEntity@ioDummyChar@@MAEXXZ:PROC ; ioDummyChar::DummyDieClearMountEntity
EXTRN	?FillDummyCharMidSync@ioDummyChar@@UAEXPAVioBaseChar@@AAVSP2Packet@@@Z:PROC ; ioDummyChar::FillDummyCharMidSync
EXTRN	?ApplyDummyCharMidSync@ioDummyChar@@UAEXPAVioBaseChar@@AAVSP2Packet@@@Z:PROC ; ioDummyChar::ApplyDummyCharMidSync
EXTRN	?GetSkillMaxActiveCnt@ioDummyChar@@UAEHXZ:PROC	; ioDummyChar::GetSkillMaxActiveCnt
EXTRN	?GetSkillCurActiveCnt@ioDummyChar@@UAEHXZ:PROC	; ioDummyChar::GetSkillCurActiveCnt
EXTRN	?OnTelepotation@ioDummyChar@@UAEXABUD3DXVECTOR3@@@Z:PROC ; ioDummyChar::OnTelepotation
EXTRN	?OnFireZoneDamage@ioDummyChar@@UAEXMABVioHashString@@@Z:PROC ; ioDummyChar::OnFireZoneDamage
EXTRN	?OnPoisonZoneDamage@ioDummyChar@@UAEXXZ:PROC	; ioDummyChar::OnPoisonZoneDamage
;	COMDAT ??_R4ioOwnerControlDummy2@@6BioWorldEventReceiver@@@
rdata$r	SEGMENT
??_R4ioOwnerControlDummy2@@6BioWorldEventReceiver@@@ DD 00H ; ioOwnerControlDummy2::`RTTI Complete Object Locator'
	DD	01c8H
	DD	00H
	DD	FLAT:??_R0?AVioOwnerControlDummy2@@@8
	DD	FLAT:??_R3ioOwnerControlDummy2@@8
rdata$r	ENDS
;	COMDAT ??_R1A@?0A@EA@ioWorldEventReceiver@@8
rdata$r	SEGMENT
??_R1A@?0A@EA@ioWorldEventReceiver@@8 DD FLAT:??_R0?AVioWorldEventReceiver@@@8 ; ioWorldEventReceiver::`RTTI Base Class Descriptor at (0,-1,0,64)'
	DD	00H
	DD	00H
	DD	0ffffffffH
	DD	00H
	DD	040H
	DD	FLAT:??_R3ioWorldEventReceiver@@8
rdata$r	ENDS
;	COMDAT ??_R2ioWorldEventReceiver@@8
rdata$r	SEGMENT
??_R2ioWorldEventReceiver@@8 DD FLAT:??_R1A@?0A@EA@ioWorldEventReceiver@@8 ; ioWorldEventReceiver::`RTTI Base Class Array'
rdata$r	ENDS
;	COMDAT ??_R3ioWorldEventReceiver@@8
rdata$r	SEGMENT
??_R3ioWorldEventReceiver@@8 DD 00H			; ioWorldEventReceiver::`RTTI Class Hierarchy Descriptor'
	DD	00H
	DD	01H
	DD	FLAT:??_R2ioWorldEventReceiver@@8
rdata$r	ENDS
;	COMDAT ??_R0?AVioWorldEventReceiver@@@8
_DATA	SEGMENT
??_R0?AVioWorldEventReceiver@@@8 DD FLAT:??_7type_info@@6B@ ; ioWorldEventReceiver `RTTI Type Descriptor'
	DD	00H
	DB	'.?AVioWorldEventReceiver@@', 00H
_DATA	ENDS
;	COMDAT ??_R1BMI@?0A@EA@ioWorldEventReceiver@@8
rdata$r	SEGMENT
??_R1BMI@?0A@EA@ioWorldEventReceiver@@8 DD FLAT:??_R0?AVioWorldEventReceiver@@@8 ; ioWorldEventReceiver::`RTTI Base Class Descriptor at (456,-1,0,64)'
	DD	00H
	DD	01c8H
	DD	0ffffffffH
	DD	00H
	DD	040H
	DD	FLAT:??_R3ioWorldEventReceiver@@8
rdata$r	ENDS
;	COMDAT ??_R2ioEntityEvent@@8
rdata$r	SEGMENT
??_R2ioEntityEvent@@8 DD FLAT:??_R1A@?0A@EA@ioEntityEvent@@8 ; ioEntityEvent::`RTTI Base Class Array'
rdata$r	ENDS
;	COMDAT ??_R3ioEntityEvent@@8
rdata$r	SEGMENT
??_R3ioEntityEvent@@8 DD 00H				; ioEntityEvent::`RTTI Class Hierarchy Descriptor'
	DD	00H
	DD	01H
	DD	FLAT:??_R2ioEntityEvent@@8
rdata$r	ENDS
;	COMDAT ??_R0?AVioEntityEvent@@@8
_DATA	SEGMENT
??_R0?AVioEntityEvent@@@8 DD FLAT:??_7type_info@@6B@	; ioEntityEvent `RTTI Type Descriptor'
	DD	00H
	DB	'.?AVioEntityEvent@@', 00H
_DATA	ENDS
;	COMDAT ??_R1A@?0A@EA@ioEntityEvent@@8
rdata$r	SEGMENT
??_R1A@?0A@EA@ioEntityEvent@@8 DD FLAT:??_R0?AVioEntityEvent@@@8 ; ioEntityEvent::`RTTI Base Class Descriptor at (0,-1,0,64)'
	DD	00H
	DD	00H
	DD	0ffffffffH
	DD	00H
	DD	040H
	DD	FLAT:??_R3ioEntityEvent@@8
rdata$r	ENDS
;	COMDAT ??_R2ioGameEntity@@8
rdata$r	SEGMENT
??_R2ioGameEntity@@8 DD FLAT:??_R1A@?0A@EA@ioGameEntity@@8 ; ioGameEntity::`RTTI Base Class Array'
	DD	FLAT:??_R1A@?0A@EA@ioEntityEvent@@8
rdata$r	ENDS
;	COMDAT ??_R3ioGameEntity@@8
rdata$r	SEGMENT
??_R3ioGameEntity@@8 DD 00H				; ioGameEntity::`RTTI Class Hierarchy Descriptor'
	DD	00H
	DD	02H
	DD	FLAT:??_R2ioGameEntity@@8
rdata$r	ENDS
;	COMDAT ??_R0?AVioGameEntity@@@8
_DATA	SEGMENT
??_R0?AVioGameEntity@@@8 DD FLAT:??_7type_info@@6B@	; ioGameEntity `RTTI Type Descriptor'
	DD	00H
	DB	'.?AVioGameEntity@@', 00H
_DATA	ENDS
;	COMDAT ??_R1A@?0A@EA@ioGameEntity@@8
rdata$r	SEGMENT
??_R1A@?0A@EA@ioGameEntity@@8 DD FLAT:??_R0?AVioGameEntity@@@8 ; ioGameEntity::`RTTI Base Class Descriptor at (0,-1,0,64)'
	DD	01H
	DD	00H
	DD	0ffffffffH
	DD	00H
	DD	040H
	DD	FLAT:??_R3ioGameEntity@@8
rdata$r	ENDS
;	COMDAT ??_R2ioPlayEntity@@8
rdata$r	SEGMENT
??_R2ioPlayEntity@@8 DD FLAT:??_R1A@?0A@EA@ioPlayEntity@@8 ; ioPlayEntity::`RTTI Base Class Array'
	DD	FLAT:??_R1A@?0A@EA@ioGameEntity@@8
	DD	FLAT:??_R1A@?0A@EA@ioEntityEvent@@8
rdata$r	ENDS
;	COMDAT ??_R3ioPlayEntity@@8
rdata$r	SEGMENT
??_R3ioPlayEntity@@8 DD 00H				; ioPlayEntity::`RTTI Class Hierarchy Descriptor'
	DD	00H
	DD	03H
	DD	FLAT:??_R2ioPlayEntity@@8
rdata$r	ENDS
;	COMDAT ??_R0?AVioPlayEntity@@@8
_DATA	SEGMENT
??_R0?AVioPlayEntity@@@8 DD FLAT:??_7type_info@@6B@	; ioPlayEntity `RTTI Type Descriptor'
	DD	00H
	DB	'.?AVioPlayEntity@@', 00H
_DATA	ENDS
;	COMDAT ??_R1A@?0A@EA@ioPlayEntity@@8
rdata$r	SEGMENT
??_R1A@?0A@EA@ioPlayEntity@@8 DD FLAT:??_R0?AVioPlayEntity@@@8 ; ioPlayEntity::`RTTI Base Class Descriptor at (0,-1,0,64)'
	DD	02H
	DD	00H
	DD	0ffffffffH
	DD	00H
	DD	040H
	DD	FLAT:??_R3ioPlayEntity@@8
rdata$r	ENDS
;	COMDAT ??_R2ioDummyChar@@8
rdata$r	SEGMENT
??_R2ioDummyChar@@8 DD FLAT:??_R1A@?0A@EA@ioDummyChar@@8 ; ioDummyChar::`RTTI Base Class Array'
	DD	FLAT:??_R1A@?0A@EA@ioPlayEntity@@8
	DD	FLAT:??_R1A@?0A@EA@ioGameEntity@@8
	DD	FLAT:??_R1A@?0A@EA@ioEntityEvent@@8
	DD	FLAT:??_R1BMI@?0A@EA@ioWorldEventReceiver@@8
rdata$r	ENDS
;	COMDAT ??_R3ioDummyChar@@8
rdata$r	SEGMENT
??_R3ioDummyChar@@8 DD 00H				; ioDummyChar::`RTTI Class Hierarchy Descriptor'
	DD	01H
	DD	05H
	DD	FLAT:??_R2ioDummyChar@@8
rdata$r	ENDS
;	COMDAT ??_R0?AVioDummyChar@@@8
_DATA	SEGMENT
??_R0?AVioDummyChar@@@8 DD FLAT:??_7type_info@@6B@	; ioDummyChar `RTTI Type Descriptor'
	DD	00H
	DB	'.?AVioDummyChar@@', 00H
_DATA	ENDS
;	COMDAT ??_R1A@?0A@EA@ioDummyChar@@8
rdata$r	SEGMENT
??_R1A@?0A@EA@ioDummyChar@@8 DD FLAT:??_R0?AVioDummyChar@@@8 ; ioDummyChar::`RTTI Base Class Descriptor at (0,-1,0,64)'
	DD	04H
	DD	00H
	DD	0ffffffffH
	DD	00H
	DD	040H
	DD	FLAT:??_R3ioDummyChar@@8
rdata$r	ENDS
;	COMDAT ??_R1A@?0A@EA@ioOwnerControlDummy2@@8
rdata$r	SEGMENT
??_R1A@?0A@EA@ioOwnerControlDummy2@@8 DD FLAT:??_R0?AVioOwnerControlDummy2@@@8 ; ioOwnerControlDummy2::`RTTI Base Class Descriptor at (0,-1,0,64)'
	DD	05H
	DD	00H
	DD	0ffffffffH
	DD	00H
	DD	040H
	DD	FLAT:??_R3ioOwnerControlDummy2@@8
rdata$r	ENDS
;	COMDAT ??_R2ioOwnerControlDummy2@@8
rdata$r	SEGMENT
??_R2ioOwnerControlDummy2@@8 DD FLAT:??_R1A@?0A@EA@ioOwnerControlDummy2@@8 ; ioOwnerControlDummy2::`RTTI Base Class Array'
	DD	FLAT:??_R1A@?0A@EA@ioDummyChar@@8
	DD	FLAT:??_R1A@?0A@EA@ioPlayEntity@@8
	DD	FLAT:??_R1A@?0A@EA@ioGameEntity@@8
	DD	FLAT:??_R1A@?0A@EA@ioEntityEvent@@8
	DD	FLAT:??_R1BMI@?0A@EA@ioWorldEventReceiver@@8
rdata$r	ENDS
;	COMDAT ??_R3ioOwnerControlDummy2@@8
rdata$r	SEGMENT
??_R3ioOwnerControlDummy2@@8 DD 00H			; ioOwnerControlDummy2::`RTTI Class Hierarchy Descriptor'
	DD	01H
	DD	06H
	DD	FLAT:??_R2ioOwnerControlDummy2@@8
rdata$r	ENDS
;	COMDAT ??_R0?AVioOwnerControlDummy2@@@8
_DATA	SEGMENT
??_R0?AVioOwnerControlDummy2@@@8 DD FLAT:??_7type_info@@6B@ ; ioOwnerControlDummy2 `RTTI Type Descriptor'
	DD	00H
	DB	'.?AVioOwnerControlDummy2@@', 00H
_DATA	ENDS
;	COMDAT ??_R4ioOwnerControlDummy2@@6BioPlayEntity@@@
rdata$r	SEGMENT
??_R4ioOwnerControlDummy2@@6BioPlayEntity@@@ DD 00H	; ioOwnerControlDummy2::`RTTI Complete Object Locator'
	DD	00H
	DD	00H
	DD	FLAT:??_R0?AVioOwnerControlDummy2@@@8
	DD	FLAT:??_R3ioOwnerControlDummy2@@8
rdata$r	ENDS
;	COMDAT ??_7ioOwnerControlDummy2@@6BioWorldEventReceiver@@@
CONST	SEGMENT
??_7ioOwnerControlDummy2@@6BioWorldEventReceiver@@@ DD FLAT:??_R4ioOwnerControlDummy2@@6BioWorldEventReceiver@@@ ; ioOwnerControlDummy2::`vftable'
	DD	FLAT:?OnTelepotation@ioDummyChar@@UAEXABUD3DXVECTOR3@@@Z
	DD	FLAT:?OnFireZoneDamage@ioDummyChar@@UAEXMABVioHashString@@@Z
	DD	FLAT:?OnPoisonZoneDamage@ioDummyChar@@UAEXXZ
	DD	FLAT:??_EioOwnerControlDummy2@@WBMI@AEPAXI@Z
CONST	ENDS
;	COMDAT ??_7ioOwnerControlDummy2@@6BioPlayEntity@@@
CONST	SEGMENT
??_7ioOwnerControlDummy2@@6BioPlayEntity@@@ DD FLAT:??_R4ioOwnerControlDummy2@@6BioPlayEntity@@@ ; ioOwnerControlDummy2::`vftable'
	DD	FLAT:?AddEntityEvent@ioDummyChar@@UAEXPAVioEntity@@@Z
	DD	FLAT:??_EioOwnerControlDummy2@@UAEPAXI@Z
	DD	FLAT:?Update@ioDummyChar@@UAEXMKK@Z
	DD	FLAT:?UpdateAfter@ioDummyChar@@UAEXM@Z
	DD	FLAT:?GetTypeID@ioPlayEntity@@UBEHXZ
	DD	FLAT:?IsNeedCheckMapCollision@ioDummyChar@@UBE_NXZ
	DD	FLAT:?IsMountAvailable@ioDummyChar@@UBE_NXZ
	DD	FLAT:?IsMountingAvailable@ioDummyChar@@UBE_NXZ
	DD	FLAT:?IsNowMountEnable@ioDummyChar@@UBE_NXZ
	DD	FLAT:?IsAllWeaponDefence@ioGameEntity@@UBE_NXZ
	DD	FLAT:?HasEntity@ioGameEntity@@UAE_NABVioHashString@@@Z
	DD	FLAT:?AddEntity@ioGameEntity@@UAEPAVioEntity@@ABVioHashString@@@Z
	DD	FLAT:?DestroyEntity@ioGameEntity@@UAE_NABVioHashString@@@Z
	DD	FLAT:?GetEntity@ioGameEntity@@UAEPAVioEntity@@ABVioHashString@@@Z
	DD	FLAT:?UpdateBound@ioGameEntity@@MBEXXZ
	DD	FLAT:?UpdateBottomHeight@ioDummyChar@@MBEXXZ
	DD	FLAT:?NeedUpdateBottomHeight@ioDummyChar@@UAEXXZ
	DD	FLAT:?SetWorldPosition@ioGameEntity@@UAEXABUD3DXVECTOR3@@@Z
	DD	FLAT:?SetWorldOrientation@ioGameEntity@@UAEXABUD3DXQUATERNION@@@Z
	DD	FLAT:?SetWorldScale@ioGameEntity@@UAEXABUD3DXVECTOR3@@@Z
	DD	FLAT:?Translate@ioDummyChar@@UAEXABUD3DXVECTOR3@@@Z
	DD	FLAT:?TranslateByConveyer@ioDummyChar@@UAEXABUD3DXVECTOR3@@@Z
	DD	FLAT:?TranslateByWorldEntity@ioDummyChar@@UAEXABUD3DXVECTOR3@@@Z
	DD	FLAT:?MapCollisionPushingTranslate@ioDummyChar@@UAEXABUD3DXVECTOR3@@@Z
	DD	FLAT:?DontMoveCollisionPushingTranslate@ioGameEntity@@UAEXPAV1@ABUD3DXVECTOR3@@@Z
	DD	FLAT:?Rotate@ioGameEntity@@UAEXABUD3DXVECTOR3@@MW4TransformSpace@ioNode@@@Z
	DD	FLAT:?Scale@ioGameEntity@@UAEXMMM@Z
	DD	FLAT:?Scale@ioGameEntity@@UAEXABUD3DXVECTOR3@@@Z
	DD	FLAT:?GetWorldPosition@ioGameEntity@@UBEABUD3DXVECTOR3@@XZ
	DD	FLAT:?GetWorldOrientation@ioGameEntity@@UBEABUD3DXQUATERNION@@XZ
	DD	FLAT:?GetWorldScale@ioGameEntity@@UBEABUD3DXVECTOR3@@XZ
	DD	FLAT:?ApplyWeapon@ioDummyChar@@UAE?AW4ApplyWeaponExp@@PAVioWeapon@@@Z
	DD	FLAT:?IsCollisionAvailableWeapon@ioDummyChar@@UAE_NPAVioWeapon@@@Z
	DD	FLAT:?IsCollisionAvailableRange@ioPlayEntity@@UAE_NPAVioWeapon@@@Z
	DD	FLAT:?IsEntityCollisionSkipState@ioDummyChar@@UBE_NPAVioGameEntity@@@Z
	DD	FLAT:?IsCharCollisionSkipState@ioDummyChar@@UBE_NW4TeamType@@H@Z
	DD	FLAT:?IsWoundedCollision@ioPlayEntity@@UBE_NABVioOrientBox@@PAUD3DXVECTOR3@@@Z
	DD	FLAT:?GetAttackCollisionBox@ioDummyChar@@UAE?AVioOrientBox@@W4AniCollisionType@@_N@Z
	DD	FLAT:?CheckSphereDistance@ioPlayEntity@@UBE_NABUD3DXVECTOR3@@MAAM@Z
	DD	FLAT:?CheckSpherePoint@ioPlayEntity@@UBE_NABUD3DXVECTOR3@@MAAU2@@Z
	DD	FLAT:?CheckCylinderPoint@ioPlayEntity@@UBE_NABVioCylinder@@ABUD3DXVECTOR3@@AAU3@@Z
	DD	FLAT:?GetSubType@ioDummyChar@@UBE?AW4PlaySubType@ioPlayEntity@@XZ
	DD	FLAT:?GetArmorType@ioDummyChar@@UBE?AW4ArmorType@@XZ
	DD	FLAT:?DontMoveEntityLevel@ioDummyChar@@UBEHXZ
	DD	FLAT:?NotifyDontMoveCollisionPushingSkip@ioPlayEntity@@UAEXPAVioGameEntity@@@Z
	DD	FLAT:?LoadProperty@ioOwnerControlDummy2@@UAEXAAVioINILoader@@@Z
	DD	FLAT:?GetWorldEventReceiver@ioDummyChar@@UAEPAVioWorldEventReceiver@@XZ
	DD	FLAT:?Revival@ioPlayEntity@@UAEXXZ
	DD	FLAT:?UpdateGauge@ioDummyChar@@UAEXXZ
	DD	FLAT:?RenderGauge@ioDummyChar@@UAEXXZ
	DD	FLAT:?FillMaxHP@ioPlayEntity@@UAEXXZ
	DD	FLAT:?ProcessRecovery@ioPlayEntity@@MAEXXZ
	DD	FLAT:?AddHeadDamageInfo@ioPlayEntity@@UAEXH_N@Z
	DD	FLAT:?RenderHeadInfoList@ioPlayEntity@@UAEXHH@Z
	DD	FLAT:?UpdateHeadInfoList@ioPlayEntity@@MAEXK@Z
	DD	FLAT:?SetTeam@ioPlayEntity@@UAEXW4TeamType@@@Z
	DD	FLAT:?InitDummyCharInfo@ioDummyChar@@UAEXHKABUD3DXVECTOR3@@0M_N@Z
	DD	FLAT:?TestMapCollision@ioDummyChar@@UAE_NPAVioOpcodeShape@@PAVioPlayStage@@PBUD3DXMATRIX@@@Z
	DD	FLAT:?CheckEntityCollision@ioDummyChar@@UAEXPAVioPlayEntity@@@Z
	DD	FLAT:?GetDummyGrassType@ioDummyChar@@UAEHXZ
	DD	FLAT:?IsActivateWeapon@ioDummyChar@@UAE_NXZ
	DD	FLAT:?IsDummyVsDummyCollisionSkipState@ioDummyChar@@UAE_NPBV1@@Z
	DD	FLAT:?ProcessState@ioOwnerControlDummy2@@MAEXMK@Z
	DD	FLAT:?ProcessPos@ioOwnerControlDummy2@@MAEXM@Z
	DD	FLAT:?ProcessDelayState@ioDummyChar@@MAEXM@Z
	DD	FLAT:?ProcessMoveState@ioOwnerControlDummy2@@MAEXM@Z
	DD	FLAT:?ProcessDashState@ioDummyChar@@MAEXM@Z
	DD	FLAT:?ProcessAttackState@ioDummyChar@@MAEXMK@Z
	DD	FLAT:?ApplyDummyCharSync@ioOwnerControlDummy2@@UAEXPAVioPlayStage@@AAVSP2Packet@@@Z
	DD	FLAT:?SetDelayState@ioDummyChar@@UAEX_N@Z
	DD	FLAT:?SetMoveState@ioOwnerControlDummy2@@UAEXXZ
	DD	FLAT:?SetDieState@ioDummyChar@@UAEX_N0@Z
	DD	FLAT:?SetDashState@ioDummyChar@@UAEXXZ
	DD	FLAT:?SetAttackState@ioDummyChar@@UAEXXZ
	DD	FLAT:?DropZoneCheck@ioDummyChar@@MAEXXZ
	DD	FLAT:?SendAttackInfoToSkill@ioDummyChar@@MAEXXZ
	DD	FLAT:?CheckCollisionWeapon@ioDummyChar@@UAEXPAVioBaseChar@@@Z
	DD	FLAT:?TranslateMountEntity@ioDummyChar@@MAEXABUD3DXVECTOR3@@@Z
	DD	FLAT:?ClearMountEntity@ioDummyChar@@MAEXXZ
	DD	FLAT:?UpdateMountedEntityList@ioDummyChar@@MAEXXZ
	DD	FLAT:?UpdateMountedWeaponList@ioDummyChar@@MAEXXZ
	DD	FLAT:?SetWorldPositionMountEntity@ioDummyChar@@MAEXM@Z
	DD	FLAT:?DummyDieClearMountEntity@ioDummyChar@@MAEXXZ
	DD	FLAT:?IsDummyCharMidSync@ioDummyChar@@UAE_NXZ
	DD	FLAT:?FillDummyCharMidSync@ioDummyChar@@UAEXPAVioBaseChar@@AAVSP2Packet@@@Z
	DD	FLAT:?ApplyDummyCharMidSync@ioDummyChar@@UAEXPAVioBaseChar@@AAVSP2Packet@@@Z
	DD	FLAT:?GetSkillMaxActiveCnt@ioDummyChar@@UAEHXZ
	DD	FLAT:?GetSkillCurActiveCnt@ioDummyChar@@UAEHXZ
CONST	ENDS
;	COMDAT xdata$x
xdata$x	SEGMENT
__unwindtable$??1ioOwnerControlDummy2@@UAE@XZ DD 0ffffffffH
	DD	FLAT:__unwindfunclet$??1ioOwnerControlDummy2@@UAE@XZ$0
	DD	00H
	DD	FLAT:__unwindfunclet$??1ioOwnerControlDummy2@@UAE@XZ$1
__ehfuncinfo$??1ioOwnerControlDummy2@@UAE@XZ DD 019930522H
	DD	02H
	DD	FLAT:__unwindtable$??1ioOwnerControlDummy2@@UAE@XZ
	DD	2 DUP(00H)
	DD	2 DUP(00H)
	DD	00H
	DD	01H
; Function compile flags: /Ogsp
; File d:\lost saga for developer\youtube\tutorial\source\src\lsclient\ioownercontroldummy2.cpp
xdata$x	ENDS
;	COMDAT ??1ioOwnerControlDummy2@@UAE@XZ
_TEXT	SEGMENT
_this$ = -16						; size = 4
__$EHRec$ = -12						; size = 12
??1ioOwnerControlDummy2@@UAE@XZ PROC			; ioOwnerControlDummy2::~ioOwnerControlDummy2, COMDAT
; _this$ = ecx

; 24   : {

  00000	6a 04		 push	 4
  00002	b8 00 00 00 00	 mov	 eax, __ehhandler$??1ioOwnerControlDummy2@@UAE@XZ
  00007	e8 00 00 00 00	 call	 __EH_prolog3
  0000c	8b f1		 mov	 esi, ecx
  0000e	89 75 f0	 mov	 DWORD PTR _this$[ebp], esi
  00011	c7 06 00 00 00
	00		 mov	 DWORD PTR [esi], OFFSET ??_7ioOwnerControlDummy2@@6BioPlayEntity@@@
  00017	c7 86 c8 01 00
	00 00 00 00 00	 mov	 DWORD PTR [esi+456], OFFSET ??_7ioOwnerControlDummy2@@6BioWorldEventReceiver@@@

; 25   : }

  00021	8d 8e c0 14 00
	00		 lea	 ecx, DWORD PTR [esi+5312]
  00027	c7 45 fc 01 00
	00 00		 mov	 DWORD PTR __$EHRec$[ebp+8], 1
  0002e	c7 86 b4 14 00
	00 00 00 00 00	 mov	 DWORD PTR [esi+5300], OFFSET ??_7?$CEncrypt@M@@6B@
  00038	e8 00 00 00 00	 call	 ??1ccddaabb@@UAE@XZ	; ccddaabb::~ccddaabb
  0003d	8d 8e 8c 14 00
	00		 lea	 ecx, DWORD PTR [esi+5260]
  00043	c6 45 fc 00	 mov	 BYTE PTR __$EHRec$[ebp+8], 0
  00047	c7 86 80 14 00
	00 00 00 00 00	 mov	 DWORD PTR [esi+5248], OFFSET ??_7?$CEncrypt@K@@6B@
  00051	e8 00 00 00 00	 call	 ??1ccddaabb@@UAE@XZ	; ccddaabb::~ccddaabb
  00056	83 4d fc ff	 or	 DWORD PTR __$EHRec$[ebp+8], -1
  0005a	8b ce		 mov	 ecx, esi
  0005c	e8 00 00 00 00	 call	 ??1ioDummyChar@@UAE@XZ	; ioDummyChar::~ioDummyChar
  00061	e8 00 00 00 00	 call	 __EH_epilog3
  00066	c3		 ret	 0
_TEXT	ENDS
;	COMDAT text$x
text$x	SEGMENT
__unwindfunclet$??1ioOwnerControlDummy2@@UAE@XZ$0:
  00000	8b 4d f0	 mov	 ecx, DWORD PTR _this$[ebp]
  00003	e9 00 00 00 00	 jmp	 ??1ioDummyChar@@UAE@XZ	; ioDummyChar::~ioDummyChar
__unwindfunclet$??1ioOwnerControlDummy2@@UAE@XZ$1:
  00008	8b 4d f0	 mov	 ecx, DWORD PTR _this$[ebp]
  0000b	81 c1 80 14 00
	00		 add	 ecx, 5248		; 00001480H
  00011	e9 00 00 00 00	 jmp	 ??1?$CEncrypt@K@@UAE@XZ	; CEncrypt<unsigned long>::~CEncrypt<unsigned long>
__ehhandler$??1ioOwnerControlDummy2@@UAE@XZ:
  00016	8b 54 24 08	 mov	 edx, DWORD PTR [esp+8]
  0001a	8d 42 0c	 lea	 eax, DWORD PTR [edx+12]
  0001d	8b 4a ec	 mov	 ecx, DWORD PTR [edx-20]
  00020	33 c8		 xor	 ecx, eax
  00022	e8 00 00 00 00	 call	 @__security_check_cookie@4
  00027	b8 00 00 00 00	 mov	 eax, OFFSET __ehfuncinfo$??1ioOwnerControlDummy2@@UAE@XZ
  0002c	e9 00 00 00 00	 jmp	 ___CxxFrameHandler3
text$x	ENDS
??1ioOwnerControlDummy2@@UAE@XZ ENDP			; ioOwnerControlDummy2::~ioOwnerControlDummy2
; Function compile flags: /Odsp
;	COMDAT ??_EioOwnerControlDummy2@@WBMI@AEPAXI@Z
_TEXT	SEGMENT
??_EioOwnerControlDummy2@@WBMI@AEPAXI@Z PROC		; [thunk]:ioOwnerControlDummy2::`vector deleting destructor', COMDAT
  00000	81 e9 c8 01 00
	00		 sub	 ecx, 456		; 000001c8H
  00006	e9 00 00 00 00	 jmp	 ??_EioOwnerControlDummy2@@UAEPAXI@Z
??_EioOwnerControlDummy2@@WBMI@AEPAXI@Z ENDP		; [thunk]:ioOwnerControlDummy2::`vector deleting destructor'
; Function compile flags: /Ogsp
; File d:\lost saga for developer\youtube\tutorial\source\src\lsclient\iodummychar.h
_TEXT	ENDS
;	COMDAT ?IsDummyCharMidSync@ioDummyChar@@UAE_NXZ
_TEXT	SEGMENT
?IsDummyCharMidSync@ioDummyChar@@UAE_NXZ PROC		; ioDummyChar::IsDummyCharMidSync, COMDAT
; _this$ = ecx

; 742  : 	virtual bool IsDummyCharMidSync(){ return false; }

  00000	32 c0		 xor	 al, al
  00002	c3		 ret	 0
?IsDummyCharMidSync@ioDummyChar@@UAE_NXZ ENDP		; ioDummyChar::IsDummyCharMidSync
_TEXT	ENDS
PUBLIC	?EncryptValueToPool@?$CEncrypt@W4TeamType@@@@AAEXPBD@Z ; CEncrypt<enum TeamType>::EncryptValueToPool
; Function compile flags: /Ogsp
; File d:\lost saga for developer\youtube\tutorial\source\src\lsclient\encryptvalue.h
;	COMDAT ?EncryptValueToPool@?$CEncrypt@W4TeamType@@@@AAEXPBD@Z
_TEXT	SEGMENT
_value$ = 8						; size = 4
?EncryptValueToPool@?$CEncrypt@W4TeamType@@@@AAEXPBD@Z PROC ; CEncrypt<enum TeamType>::EncryptValueToPool, COMDAT
; _this$ = ecx

; 67   : 	{

  00000	55		 push	 ebp
  00001	8b ec		 mov	 ebp, esp

; 68   : 		m_RC5.EncryptByte( value, m_MemPool, max(m_ValueSize, DEFAULT_ENCRYPT) );

  00003	0f b7 41 06	 movzx	 eax, WORD PTR [ecx+6]
  00007	83 f8 04	 cmp	 eax, 4
  0000a	77 03		 ja	 SHORT $LN4@EncryptVal@3
  0000c	6a 04		 push	 4
  0000e	58		 pop	 eax
$LN4@EncryptVal@3:
  0000f	50		 push	 eax
  00010	8d 41 1c	 lea	 eax, DWORD PTR [ecx+28]
  00013	50		 push	 eax
  00014	ff 75 08	 push	 DWORD PTR _value$[ebp]
  00017	83 c1 0c	 add	 ecx, 12			; 0000000cH
  0001a	e8 00 00 00 00	 call	 ?EncryptByte@ccddaabb@@QAEXPBDPADH@Z ; ccddaabb::EncryptByte

; 69   : 		
; 70   : 	}

  0001f	5d		 pop	 ebp
  00020	c2 04 00	 ret	 4
?EncryptValueToPool@?$CEncrypt@W4TeamType@@@@AAEXPBD@Z ENDP ; CEncrypt<enum TeamType>::EncryptValueToPool
; Function compile flags: /Ogsp
; File d:\lost saga for developer\youtube\tutorial\source\src\lsclient\ioownercontroldummy2.cpp
_TEXT	ENDS
;	COMDAT ?ProcessState@ioOwnerControlDummy2@@MAEXMK@Z
_TEXT	SEGMENT
_fTimePerSec$ = 8					; size = 4
_dwPreTime$ = 12					; size = 4
?ProcessState@ioOwnerControlDummy2@@MAEXMK@Z PROC	; ioOwnerControlDummy2::ProcessState, COMDAT
; _this$ = ecx

; 37   : {

  00000	55		 push	 ebp
  00001	8b ec		 mov	 ebp, esp

; 38   : 	switch( m_State )

  00003	f3 0f 10 45 08	 movss	 xmm0, DWORD PTR _fTimePerSec$[ebp]
  00008	56		 push	 esi
  00009	8b f1		 mov	 esi, ecx
  0000b	8b 86 30 02 00
	00		 mov	 eax, DWORD PTR [esi+560]
  00011	48		 dec	 eax
  00012	74 14		 je	 SHORT $LN2@ProcessSta@2
  00014	48		 dec	 eax
  00015	48		 dec	 eax
  00016	75 1b		 jne	 SHORT $LN3@ProcessSta@2

; 42   : 		break;
; 43   : 	case DCS_MOVE:
; 44   : 		ProcessMoveState( fTimePerSec );

  00018	8b 06		 mov	 eax, DWORD PTR [esi]
  0001a	51		 push	 ecx
  0001b	f3 0f 11 04 24	 movss	 DWORD PTR [esp], xmm0
  00020	ff 90 04 01 00
	00		 call	 DWORD PTR [eax+260]

; 45   : 		break;

  00026	eb 0b		 jmp	 SHORT $LN3@ProcessSta@2
$LN2@ProcessSta@2:

; 39   : 	{
; 40   : 	case DCS_START:
; 41   : 		ProcessStartState( fTimePerSec );

  00028	51		 push	 ecx
  00029	f3 0f 11 04 24	 movss	 DWORD PTR [esp], xmm0
  0002e	e8 00 00 00 00	 call	 ?ProcessStartState@ioOwnerControlDummy2@@IAEXM@Z ; ioOwnerControlDummy2::ProcessStartState
$LN3@ProcessSta@2:

; 46   : 	}
; 47   : 
; 48   : 	ProcessPos( fTimePerSec );

  00033	f3 0f 10 45 08	 movss	 xmm0, DWORD PTR _fTimePerSec$[ebp]
  00038	8b 06		 mov	 eax, DWORD PTR [esi]
  0003a	51		 push	 ecx
  0003b	8b ce		 mov	 ecx, esi
  0003d	f3 0f 11 04 24	 movss	 DWORD PTR [esp], xmm0
  00042	ff 90 fc 00 00
	00		 call	 DWORD PTR [eax+252]
  00048	5e		 pop	 esi

; 49   : }

  00049	5d		 pop	 ebp
  0004a	c2 08 00	 ret	 8
?ProcessState@ioOwnerControlDummy2@@MAEXMK@Z ENDP	; ioOwnerControlDummy2::ProcessState
_TEXT	ENDS
PUBLIC	??D?$CEncrypt@M@@QAEMABM@Z			; CEncrypt<float>::operator*
; Function compile flags: /Ogsp
; File d:\lost saga for developer\youtube\tutorial\source\src\lsclient\encryptvalue.h
;	COMDAT ??D?$CEncrypt@M@@QAEMABM@Z
_TEXT	SEGMENT
_value$ = -4						; size = 4
tv130 = 8						; size = 4
_inValue$ = 8						; size = 4
??D?$CEncrypt@M@@QAEMABM@Z PROC				; CEncrypt<float>::operator*, COMDAT
; _this$ = ecx

; 1685 : 	{	

  00000	55		 push	 ebp
  00001	8b ec		 mov	 ebp, esp
  00003	51		 push	 ecx

; 1686 : 		type value;
; 1687 : 		DecryptValueToPool(&value);

  00004	8d 45 fc	 lea	 eax, DWORD PTR _value$[ebp]
  00007	50		 push	 eax
  00008	e8 00 00 00 00	 call	 ?DecryptValueToPool@?$CEncrypt@M@@QAEXPAM@Z ; CEncrypt<float>::DecryptValueToPool

; 1688 : #ifdef _NOTUSE
; 1689 : 		Debug();
; 1690 : #endif
; 1691 : 		return value * inValue;

  0000d	8b 45 08	 mov	 eax, DWORD PTR _inValue$[ebp]
  00010	d9 00		 fld	 DWORD PTR [eax]
  00012	d8 4d fc	 fmul	 DWORD PTR _value$[ebp]
  00015	d9 5d 08	 fstp	 DWORD PTR tv130[ebp]
  00018	d9 45 08	 fld	 DWORD PTR tv130[ebp]

; 1692 : 	}

  0001b	c9		 leave
  0001c	c2 04 00	 ret	 4
??D?$CEncrypt@M@@QAEMABM@Z ENDP				; CEncrypt<float>::operator*
_TEXT	ENDS
PUBLIC	__$ArrayPad$
PUBLIC	??$LoadFloat_e@$0BL@@ioINILoader@@QAEMAAY0BL@$$CBDM@Z ; ioINILoader::LoadFloat_e<27>
EXTRN	__imp_?LoadFloat@ioINILoader@@QAEMPBDM@Z:PROC
; Function compile flags: /Ogsp
; File d:\lost saga for developer\youtube\tutorial\source\src\io3dengine\ioiniloader.h
;	COMDAT ??$LoadFloat_e@$0BL@@ioINILoader@@QAEMAAY0BL@$$CBDM@Z
_TEXT	SEGMENT
__k$ = -36						; size = 27
__$ArrayPad$ = -4					; size = 4
_k$ = 8							; size = 4
_f$ = 12						; size = 4
??$LoadFloat_e@$0BL@@ioINILoader@@QAEMAAY0BL@$$CBDM@Z PROC ; ioINILoader::LoadFloat_e<27>, COMDAT
; _this$ = ecx

; 135  : 	{

  00000	55		 push	 ebp
  00001	8b ec		 mov	 ebp, esp
  00003	83 ec 24	 sub	 esp, 36			; 00000024H
  00006	a1 00 00 00 00	 mov	 eax, DWORD PTR ___security_cookie
  0000b	33 c5		 xor	 eax, ebp
  0000d	89 45 fc	 mov	 DWORD PTR __$ArrayPad$[ebp], eax
  00010	8b 45 08	 mov	 eax, DWORD PTR _k$[ebp]

; 136  : 		_ENCSTR(k, _k);

  00013	8a 10		 mov	 dl, BYTE PTR [eax]
  00015	53		 push	 ebx
  00016	56		 push	 esi
  00017	8b f1		 mov	 esi, ecx
  00019	84 d2		 test	 dl, dl
  0001b	0f 84 91 02 00
	00		 je	 $LN96@LoadFloat_
  00021	80 f2 ed	 xor	 dl, -19			; ffffffedH
  00024	88 55 dc	 mov	 BYTE PTR __k$[ebp], dl
  00027	8a 50 01	 mov	 dl, BYTE PTR [eax+1]
  0002a	84 d2		 test	 dl, dl
  0002c	0f 84 7a 02 00
	00		 je	 $LN95@LoadFloat_
  00032	b1 ec		 mov	 cl, -20			; ffffffecH
  00034	32 d1		 xor	 dl, cl
  00036	88 55 dd	 mov	 BYTE PTR __k$[ebp+1], dl
  00039	8a 50 02	 mov	 dl, BYTE PTR [eax+2]
  0003c	84 d2		 test	 dl, dl
  0003e	0f 84 62 02 00
	00		 je	 $LN94@LoadFloat_
  00044	80 f2 eb	 xor	 dl, -21			; ffffffebH
  00047	88 55 de	 mov	 BYTE PTR __k$[ebp+2], dl
  0004a	8a 50 03	 mov	 dl, BYTE PTR [eax+3]
  0004d	84 d2		 test	 dl, dl
  0004f	0f 84 4b 02 00
	00		 je	 $LN93@LoadFloat_
  00055	b3 ea		 mov	 bl, -22			; ffffffeaH
  00057	32 d3		 xor	 dl, bl
  00059	88 55 df	 mov	 BYTE PTR __k$[ebp+3], dl
  0005c	8a 50 04	 mov	 dl, BYTE PTR [eax+4]
  0005f	84 d2		 test	 dl, dl
  00061	0f 84 33 02 00
	00		 je	 $LN92@LoadFloat_
  00067	80 f2 ed	 xor	 dl, -19			; ffffffedH
  0006a	88 55 e0	 mov	 BYTE PTR __k$[ebp+4], dl
  0006d	8a 50 05	 mov	 dl, BYTE PTR [eax+5]
  00070	84 d2		 test	 dl, dl
  00072	0f 84 1d 02 00
	00		 je	 $LN91@LoadFloat_
  00078	32 d1		 xor	 dl, cl
  0007a	88 55 e1	 mov	 BYTE PTR __k$[ebp+5], dl
  0007d	8a 50 06	 mov	 dl, BYTE PTR [eax+6]
  00080	84 d2		 test	 dl, dl
  00082	0f 84 07 02 00
	00		 je	 $LN90@LoadFloat_
  00088	80 f2 eb	 xor	 dl, -21			; ffffffebH
  0008b	88 55 e2	 mov	 BYTE PTR __k$[ebp+6], dl
  0008e	8a 50 07	 mov	 dl, BYTE PTR [eax+7]
  00091	84 d2		 test	 dl, dl
  00093	0f 84 f1 01 00
	00		 je	 $LN89@LoadFloat_
  00099	32 d3		 xor	 dl, bl
  0009b	88 55 e3	 mov	 BYTE PTR __k$[ebp+7], dl
  0009e	8a 50 08	 mov	 dl, BYTE PTR [eax+8]
  000a1	84 d2		 test	 dl, dl
  000a3	0f 84 db 01 00
	00		 je	 $LN88@LoadFloat_
  000a9	80 f2 ed	 xor	 dl, -19			; ffffffedH
  000ac	88 55 e4	 mov	 BYTE PTR __k$[ebp+8], dl
  000af	8a 50 09	 mov	 dl, BYTE PTR [eax+9]
  000b2	84 d2		 test	 dl, dl
  000b4	0f 84 c5 01 00
	00		 je	 $LN87@LoadFloat_
  000ba	32 d1		 xor	 dl, cl
  000bc	88 55 e5	 mov	 BYTE PTR __k$[ebp+9], dl
  000bf	8a 50 0a	 mov	 dl, BYTE PTR [eax+10]
  000c2	84 d2		 test	 dl, dl
  000c4	0f 84 af 01 00
	00		 je	 $LN86@LoadFloat_
  000ca	80 f2 eb	 xor	 dl, -21			; ffffffebH
  000cd	88 55 e6	 mov	 BYTE PTR __k$[ebp+10], dl
  000d0	8a 50 0b	 mov	 dl, BYTE PTR [eax+11]
  000d3	84 d2		 test	 dl, dl
  000d5	0f 84 99 01 00
	00		 je	 $LN85@LoadFloat_
  000db	32 d3		 xor	 dl, bl
  000dd	88 55 e7	 mov	 BYTE PTR __k$[ebp+11], dl
  000e0	8a 50 0c	 mov	 dl, BYTE PTR [eax+12]
  000e3	84 d2		 test	 dl, dl
  000e5	0f 84 83 01 00
	00		 je	 $LN84@LoadFloat_
  000eb	80 f2 ed	 xor	 dl, -19			; ffffffedH
  000ee	88 55 e8	 mov	 BYTE PTR __k$[ebp+12], dl
  000f1	8a 50 0d	 mov	 dl, BYTE PTR [eax+13]
  000f4	84 d2		 test	 dl, dl
  000f6	0f 84 6d 01 00
	00		 je	 $LN83@LoadFloat_
  000fc	32 d1		 xor	 dl, cl
  000fe	88 55 e9	 mov	 BYTE PTR __k$[ebp+13], dl
  00101	8a 50 0e	 mov	 dl, BYTE PTR [eax+14]
  00104	84 d2		 test	 dl, dl
  00106	0f 84 57 01 00
	00		 je	 $LN82@LoadFloat_
  0010c	80 f2 eb	 xor	 dl, -21			; ffffffebH
  0010f	88 55 ea	 mov	 BYTE PTR __k$[ebp+14], dl
  00112	8a 50 0f	 mov	 dl, BYTE PTR [eax+15]
  00115	84 d2		 test	 dl, dl
  00117	0f 84 41 01 00
	00		 je	 $LN81@LoadFloat_
  0011d	32 d3		 xor	 dl, bl
  0011f	88 55 eb	 mov	 BYTE PTR __k$[ebp+15], dl
  00122	8a 50 10	 mov	 dl, BYTE PTR [eax+16]
  00125	84 d2		 test	 dl, dl
  00127	0f 84 2b 01 00
	00		 je	 $LN80@LoadFloat_
  0012d	80 f2 ed	 xor	 dl, -19			; ffffffedH
  00130	88 55 ec	 mov	 BYTE PTR __k$[ebp+16], dl
  00133	8a 50 11	 mov	 dl, BYTE PTR [eax+17]
  00136	84 d2		 test	 dl, dl
  00138	0f 84 15 01 00
	00		 je	 $LN79@LoadFloat_
  0013e	32 d1		 xor	 dl, cl
  00140	88 55 ed	 mov	 BYTE PTR __k$[ebp+17], dl
  00143	8a 50 12	 mov	 dl, BYTE PTR [eax+18]
  00146	84 d2		 test	 dl, dl
  00148	0f 84 ff 00 00
	00		 je	 $LN78@LoadFloat_
  0014e	80 f2 eb	 xor	 dl, -21			; ffffffebH
  00151	88 55 ee	 mov	 BYTE PTR __k$[ebp+18], dl
  00154	8a 50 13	 mov	 dl, BYTE PTR [eax+19]
  00157	84 d2		 test	 dl, dl
  00159	0f 84 e9 00 00
	00		 je	 $LN77@LoadFloat_
  0015f	32 d3		 xor	 dl, bl
  00161	88 55 ef	 mov	 BYTE PTR __k$[ebp+19], dl
  00164	8a 50 14	 mov	 dl, BYTE PTR [eax+20]
  00167	84 d2		 test	 dl, dl
  00169	0f 84 d3 00 00
	00		 je	 $LN76@LoadFloat_
  0016f	80 f2 ed	 xor	 dl, -19			; ffffffedH
  00172	88 55 f0	 mov	 BYTE PTR __k$[ebp+20], dl
  00175	8a 50 15	 mov	 dl, BYTE PTR [eax+21]
  00178	84 d2		 test	 dl, dl
  0017a	0f 84 bd 00 00
	00		 je	 $LN75@LoadFloat_
  00180	32 d1		 xor	 dl, cl
  00182	88 55 f1	 mov	 BYTE PTR __k$[ebp+21], dl
  00185	8a 50 16	 mov	 dl, BYTE PTR [eax+22]
  00188	84 d2		 test	 dl, dl
  0018a	0f 84 a7 00 00
	00		 je	 $LN74@LoadFloat_
  00190	80 f2 eb	 xor	 dl, -21			; ffffffebH
  00193	88 55 f2	 mov	 BYTE PTR __k$[ebp+22], dl
  00196	8a 50 17	 mov	 dl, BYTE PTR [eax+23]
  00199	84 d2		 test	 dl, dl
  0019b	0f 84 91 00 00
	00		 je	 $LN73@LoadFloat_
  001a1	32 d3		 xor	 dl, bl
  001a3	88 55 f3	 mov	 BYTE PTR __k$[ebp+23], dl
  001a6	8a 50 18	 mov	 dl, BYTE PTR [eax+24]
  001a9	84 d2		 test	 dl, dl
  001ab	74 7c		 je	 SHORT $LN72@LoadFloat_
  001ad	80 f2 ed	 xor	 dl, -19			; ffffffedH
  001b0	88 55 f4	 mov	 BYTE PTR __k$[ebp+24], dl
  001b3	8a 50 19	 mov	 dl, BYTE PTR [eax+25]
  001b6	84 d2		 test	 dl, dl
  001b8	74 67		 je	 SHORT $LN71@LoadFloat_
  001ba	32 d1		 xor	 dl, cl
  001bc	80 78 1a 00	 cmp	 BYTE PTR [eax+26], 0
  001c0	88 55 f5	 mov	 BYTE PTR __k$[ebp+25], dl
  001c3	0f 84 ed 00 00
	00		 je	 $LN1@LoadFloat_
  001c9	8a 50 1b	 mov	 dl, BYTE PTR [eax+27]
  001cc	84 d2		 test	 dl, dl
  001ce	74 49		 je	 SHORT $LN69@LoadFloat_
  001d0	32 d3		 xor	 dl, bl
  001d2	88 55 f7	 mov	 BYTE PTR __k$[ebp+27], dl
  001d5	8a 50 1c	 mov	 dl, BYTE PTR [eax+28]
  001d8	84 d2		 test	 dl, dl
  001da	74 34		 je	 SHORT $LN68@LoadFloat_
  001dc	80 f2 ed	 xor	 dl, -19			; ffffffedH
  001df	88 55 f8	 mov	 BYTE PTR __k$[ebp+28], dl
  001e2	8a 50 1d	 mov	 dl, BYTE PTR [eax+29]
  001e5	84 d2		 test	 dl, dl
  001e7	74 1f		 je	 SHORT $LN67@LoadFloat_
  001e9	8a 40 1e	 mov	 al, BYTE PTR [eax+30]
  001ec	32 d1		 xor	 dl, cl
  001ee	88 55 f9	 mov	 BYTE PTR __k$[ebp+29], dl
  001f1	84 c0		 test	 al, al
  001f3	74 0a		 je	 SHORT $LN66@LoadFloat_
  001f5	34 eb		 xor	 al, -21			; ffffffebH
  001f7	88 45 fa	 mov	 BYTE PTR __k$[ebp+30], al
  001fa	e9 b7 00 00 00	 jmp	 $LN1@LoadFloat_
$LN66@LoadFloat_:
  001ff	c6 45 fa eb	 mov	 BYTE PTR __k$[ebp+30], -21 ; ffffffebH
  00203	e9 ae 00 00 00	 jmp	 $LN1@LoadFloat_
$LN67@LoadFloat_:
  00208	88 4d f9	 mov	 BYTE PTR __k$[ebp+29], cl
  0020b	e9 a6 00 00 00	 jmp	 $LN1@LoadFloat_
$LN68@LoadFloat_:
  00210	c6 45 f8 ed	 mov	 BYTE PTR __k$[ebp+28], -19 ; ffffffedH
  00214	e9 9d 00 00 00	 jmp	 $LN1@LoadFloat_
$LN69@LoadFloat_:
  00219	88 5d f7	 mov	 BYTE PTR __k$[ebp+27], bl
  0021c	e9 95 00 00 00	 jmp	 $LN1@LoadFloat_
$LN71@LoadFloat_:
  00221	88 4d f5	 mov	 BYTE PTR __k$[ebp+25], cl
  00224	e9 8d 00 00 00	 jmp	 $LN1@LoadFloat_
$LN72@LoadFloat_:
  00229	c6 45 f4 ed	 mov	 BYTE PTR __k$[ebp+24], -19 ; ffffffedH
  0022d	e9 84 00 00 00	 jmp	 $LN1@LoadFloat_
$LN73@LoadFloat_:
  00232	88 5d f3	 mov	 BYTE PTR __k$[ebp+23], bl
  00235	eb 7f		 jmp	 SHORT $LN1@LoadFloat_
$LN74@LoadFloat_:
  00237	c6 45 f2 eb	 mov	 BYTE PTR __k$[ebp+22], -21 ; ffffffebH
  0023b	eb 79		 jmp	 SHORT $LN1@LoadFloat_
$LN75@LoadFloat_:
  0023d	88 4d f1	 mov	 BYTE PTR __k$[ebp+21], cl
  00240	eb 74		 jmp	 SHORT $LN1@LoadFloat_
$LN76@LoadFloat_:
  00242	c6 45 f0 ed	 mov	 BYTE PTR __k$[ebp+20], -19 ; ffffffedH
  00246	eb 6e		 jmp	 SHORT $LN1@LoadFloat_
$LN77@LoadFloat_:
  00248	88 5d ef	 mov	 BYTE PTR __k$[ebp+19], bl
  0024b	eb 69		 jmp	 SHORT $LN1@LoadFloat_
$LN78@LoadFloat_:
  0024d	c6 45 ee eb	 mov	 BYTE PTR __k$[ebp+18], -21 ; ffffffebH
  00251	eb 63		 jmp	 SHORT $LN1@LoadFloat_
$LN79@LoadFloat_:
  00253	88 4d ed	 mov	 BYTE PTR __k$[ebp+17], cl
  00256	eb 5e		 jmp	 SHORT $LN1@LoadFloat_
$LN80@LoadFloat_:
  00258	c6 45 ec ed	 mov	 BYTE PTR __k$[ebp+16], -19 ; ffffffedH
  0025c	eb 58		 jmp	 SHORT $LN1@LoadFloat_
$LN81@LoadFloat_:
  0025e	88 5d eb	 mov	 BYTE PTR __k$[ebp+15], bl
  00261	eb 53		 jmp	 SHORT $LN1@LoadFloat_
$LN82@LoadFloat_:
  00263	c6 45 ea eb	 mov	 BYTE PTR __k$[ebp+14], -21 ; ffffffebH
  00267	eb 4d		 jmp	 SHORT $LN1@LoadFloat_
$LN83@LoadFloat_:
  00269	88 4d e9	 mov	 BYTE PTR __k$[ebp+13], cl
  0026c	eb 48		 jmp	 SHORT $LN1@LoadFloat_
$LN84@LoadFloat_:
  0026e	c6 45 e8 ed	 mov	 BYTE PTR __k$[ebp+12], -19 ; ffffffedH
  00272	eb 42		 jmp	 SHORT $LN1@LoadFloat_
$LN85@LoadFloat_:
  00274	88 5d e7	 mov	 BYTE PTR __k$[ebp+11], bl
  00277	eb 3d		 jmp	 SHORT $LN1@LoadFloat_
$LN86@LoadFloat_:
  00279	c6 45 e6 eb	 mov	 BYTE PTR __k$[ebp+10], -21 ; ffffffebH
  0027d	eb 37		 jmp	 SHORT $LN1@LoadFloat_
$LN87@LoadFloat_:
  0027f	88 4d e5	 mov	 BYTE PTR __k$[ebp+9], cl
  00282	eb 32		 jmp	 SHORT $LN1@LoadFloat_
$LN88@LoadFloat_:
  00284	c6 45 e4 ed	 mov	 BYTE PTR __k$[ebp+8], -19 ; ffffffedH
  00288	eb 2c		 jmp	 SHORT $LN1@LoadFloat_
$LN89@LoadFloat_:
  0028a	88 5d e3	 mov	 BYTE PTR __k$[ebp+7], bl
  0028d	eb 27		 jmp	 SHORT $LN1@LoadFloat_
$LN90@LoadFloat_:
  0028f	c6 45 e2 eb	 mov	 BYTE PTR __k$[ebp+6], -21 ; ffffffebH
  00293	eb 21		 jmp	 SHORT $LN1@LoadFloat_
$LN91@LoadFloat_:
  00295	88 4d e1	 mov	 BYTE PTR __k$[ebp+5], cl
  00298	eb 1c		 jmp	 SHORT $LN1@LoadFloat_
$LN92@LoadFloat_:
  0029a	c6 45 e0 ed	 mov	 BYTE PTR __k$[ebp+4], -19 ; ffffffedH
  0029e	eb 16		 jmp	 SHORT $LN1@LoadFloat_
$LN93@LoadFloat_:
  002a0	c6 45 df ea	 mov	 BYTE PTR __k$[ebp+3], -22 ; ffffffeaH
  002a4	eb 10		 jmp	 SHORT $LN1@LoadFloat_
$LN94@LoadFloat_:
  002a6	c6 45 de eb	 mov	 BYTE PTR __k$[ebp+2], -21 ; ffffffebH
  002aa	eb 0a		 jmp	 SHORT $LN1@LoadFloat_
$LN95@LoadFloat_:
  002ac	c6 45 dd ec	 mov	 BYTE PTR __k$[ebp+1], -20 ; ffffffecH
  002b0	eb 04		 jmp	 SHORT $LN1@LoadFloat_
$LN96@LoadFloat_:
  002b2	c6 45 dc ed	 mov	 BYTE PTR __k$[ebp], -19	; ffffffedH
$LN1@LoadFloat_:
  002b6	6a 06		 push	 6
  002b8	8d 45 dc	 lea	 eax, DWORD PTR __k$[ebp]
  002bb	c6 45 f6 00	 mov	 BYTE PTR __k$[ebp+26], 0
  002bf	5a		 pop	 edx
$LL104@LoadFloat_:
  002c0	81 30 ed ec eb
	ea		 xor	 DWORD PTR [eax], -353637139 ; eaebecedH
  002c6	83 c0 04	 add	 eax, 4
  002c9	4a		 dec	 edx
  002ca	75 f4		 jne	 SHORT $LL104@LoadFloat_
  002cc	6a 18		 push	 24			; 00000018H
  002ce	58		 pop	 eax
$LL101@LoadFloat_:
  002cf	8b c8		 mov	 ecx, eax
  002d1	81 e1 03 00 00
	80		 and	 ecx, -2147483645	; 80000003H
  002d7	79 05		 jns	 SHORT $LN111@LoadFloat_
  002d9	49		 dec	 ecx
  002da	83 c9 fc	 or	 ecx, -4			; fffffffcH
  002dd	41		 inc	 ecx
$LN111@LoadFloat_:
  002de	b2 ed		 mov	 dl, -19			; ffffffedH
  002e0	2a d1		 sub	 dl, cl
  002e2	30 54 05 dc	 xor	 BYTE PTR __k$[ebp+eax], dl
  002e6	40		 inc	 eax
  002e7	83 f8 1a	 cmp	 eax, 26			; 0000001aH
  002ea	7c e3		 jl	 SHORT $LL101@LoadFloat_

; 137  : 		return LoadFloat(_k, f);

  002ec	f3 0f 10 45 0c	 movss	 xmm0, DWORD PTR _f$[ebp]
  002f1	51		 push	 ecx
  002f2	8d 45 dc	 lea	 eax, DWORD PTR __k$[ebp]
  002f5	f3 0f 11 04 24	 movss	 DWORD PTR [esp], xmm0
  002fa	50		 push	 eax
  002fb	8b ce		 mov	 ecx, esi
  002fd	ff 15 00 00 00
	00		 call	 DWORD PTR __imp_?LoadFloat@ioINILoader@@QAEMPBDM@Z

; 138  : 	}

  00303	8b 4d fc	 mov	 ecx, DWORD PTR __$ArrayPad$[ebp]
  00306	5e		 pop	 esi
  00307	33 cd		 xor	 ecx, ebp
  00309	5b		 pop	 ebx
  0030a	e8 00 00 00 00	 call	 @__security_check_cookie@4
  0030f	c9		 leave
  00310	c2 08 00	 ret	 8
??$LoadFloat_e@$0BL@@ioINILoader@@QAEMAAY0BL@$$CBDM@Z ENDP ; ioINILoader::LoadFloat_e<27>
_TEXT	ENDS
PUBLIC	__$ArrayPad$
PUBLIC	??$LoadInt_e@$0BH@@ioINILoader@@QAEHAAY0BH@$$CBDH@Z ; ioINILoader::LoadInt_e<23>
EXTRN	__imp_?LoadInt@ioINILoader@@QAEHPBDH@Z:PROC
; Function compile flags: /Ogsp
;	COMDAT ??$LoadInt_e@$0BH@@ioINILoader@@QAEHAAY0BH@$$CBDH@Z
_TEXT	SEGMENT
__k$ = -32						; size = 23
__$ArrayPad$ = -4					; size = 4
_k$ = 8							; size = 4
_i$ = 12						; size = 4
??$LoadInt_e@$0BH@@ioINILoader@@QAEHAAY0BH@$$CBDH@Z PROC ; ioINILoader::LoadInt_e<23>, COMDAT
; _this$ = ecx

; 118  : 	{

  00000	55		 push	 ebp
  00001	8b ec		 mov	 ebp, esp
  00003	83 ec 20	 sub	 esp, 32			; 00000020H
  00006	a1 00 00 00 00	 mov	 eax, DWORD PTR ___security_cookie
  0000b	33 c5		 xor	 eax, ebp
  0000d	89 45 fc	 mov	 DWORD PTR __$ArrayPad$[ebp], eax
  00010	8b 45 08	 mov	 eax, DWORD PTR _k$[ebp]

; 119  : 		_ENCSTR(k, _k);

  00013	8a 10		 mov	 dl, BYTE PTR [eax]
  00015	53		 push	 ebx
  00016	56		 push	 esi
  00017	8b f1		 mov	 esi, ecx
  00019	84 d2		 test	 dl, dl
  0001b	0f 84 2d 02 00
	00		 je	 $LN96@LoadInt_e
  00021	80 f2 ed	 xor	 dl, -19			; ffffffedH
  00024	88 55 e0	 mov	 BYTE PTR __k$[ebp], dl
  00027	8a 50 01	 mov	 dl, BYTE PTR [eax+1]
  0002a	84 d2		 test	 dl, dl
  0002c	0f 84 16 02 00
	00		 je	 $LN95@LoadInt_e
  00032	b1 ec		 mov	 cl, -20			; ffffffecH
  00034	32 d1		 xor	 dl, cl
  00036	88 55 e1	 mov	 BYTE PTR __k$[ebp+1], dl
  00039	8a 50 02	 mov	 dl, BYTE PTR [eax+2]
  0003c	84 d2		 test	 dl, dl
  0003e	0f 84 fe 01 00
	00		 je	 $LN94@LoadInt_e
  00044	80 f2 eb	 xor	 dl, -21			; ffffffebH
  00047	88 55 e2	 mov	 BYTE PTR __k$[ebp+2], dl
  0004a	8a 50 03	 mov	 dl, BYTE PTR [eax+3]
  0004d	84 d2		 test	 dl, dl
  0004f	0f 84 e7 01 00
	00		 je	 $LN93@LoadInt_e
  00055	b3 ea		 mov	 bl, -22			; ffffffeaH
  00057	32 d3		 xor	 dl, bl
  00059	88 55 e3	 mov	 BYTE PTR __k$[ebp+3], dl
  0005c	8a 50 04	 mov	 dl, BYTE PTR [eax+4]
  0005f	84 d2		 test	 dl, dl
  00061	0f 84 cf 01 00
	00		 je	 $LN92@LoadInt_e
  00067	80 f2 ed	 xor	 dl, -19			; ffffffedH
  0006a	88 55 e4	 mov	 BYTE PTR __k$[ebp+4], dl
  0006d	8a 50 05	 mov	 dl, BYTE PTR [eax+5]
  00070	84 d2		 test	 dl, dl
  00072	0f 84 b9 01 00
	00		 je	 $LN91@LoadInt_e
  00078	32 d1		 xor	 dl, cl
  0007a	88 55 e5	 mov	 BYTE PTR __k$[ebp+5], dl
  0007d	8a 50 06	 mov	 dl, BYTE PTR [eax+6]
  00080	84 d2		 test	 dl, dl
  00082	0f 84 a3 01 00
	00		 je	 $LN90@LoadInt_e
  00088	80 f2 eb	 xor	 dl, -21			; ffffffebH
  0008b	88 55 e6	 mov	 BYTE PTR __k$[ebp+6], dl
  0008e	8a 50 07	 mov	 dl, BYTE PTR [eax+7]
  00091	84 d2		 test	 dl, dl
  00093	0f 84 8d 01 00
	00		 je	 $LN89@LoadInt_e
  00099	32 d3		 xor	 dl, bl
  0009b	88 55 e7	 mov	 BYTE PTR __k$[ebp+7], dl
  0009e	8a 50 08	 mov	 dl, BYTE PTR [eax+8]
  000a1	84 d2		 test	 dl, dl
  000a3	0f 84 77 01 00
	00		 je	 $LN88@LoadInt_e
  000a9	80 f2 ed	 xor	 dl, -19			; ffffffedH
  000ac	88 55 e8	 mov	 BYTE PTR __k$[ebp+8], dl
  000af	8a 50 09	 mov	 dl, BYTE PTR [eax+9]
  000b2	84 d2		 test	 dl, dl
  000b4	0f 84 61 01 00
	00		 je	 $LN87@LoadInt_e
  000ba	32 d1		 xor	 dl, cl
  000bc	88 55 e9	 mov	 BYTE PTR __k$[ebp+9], dl
  000bf	8a 50 0a	 mov	 dl, BYTE PTR [eax+10]
  000c2	84 d2		 test	 dl, dl
  000c4	0f 84 4b 01 00
	00		 je	 $LN86@LoadInt_e
  000ca	80 f2 eb	 xor	 dl, -21			; ffffffebH
  000cd	88 55 ea	 mov	 BYTE PTR __k$[ebp+10], dl
  000d0	8a 50 0b	 mov	 dl, BYTE PTR [eax+11]
  000d3	84 d2		 test	 dl, dl
  000d5	0f 84 35 01 00
	00		 je	 $LN85@LoadInt_e
  000db	32 d3		 xor	 dl, bl
  000dd	88 55 eb	 mov	 BYTE PTR __k$[ebp+11], dl
  000e0	8a 50 0c	 mov	 dl, BYTE PTR [eax+12]
  000e3	84 d2		 test	 dl, dl
  000e5	0f 84 1f 01 00
	00		 je	 $LN84@LoadInt_e
  000eb	80 f2 ed	 xor	 dl, -19			; ffffffedH
  000ee	88 55 ec	 mov	 BYTE PTR __k$[ebp+12], dl
  000f1	8a 50 0d	 mov	 dl, BYTE PTR [eax+13]
  000f4	84 d2		 test	 dl, dl
  000f6	0f 84 09 01 00
	00		 je	 $LN83@LoadInt_e
  000fc	32 d1		 xor	 dl, cl
  000fe	88 55 ed	 mov	 BYTE PTR __k$[ebp+13], dl
  00101	8a 50 0e	 mov	 dl, BYTE PTR [eax+14]
  00104	84 d2		 test	 dl, dl
  00106	0f 84 f3 00 00
	00		 je	 $LN82@LoadInt_e
  0010c	80 f2 eb	 xor	 dl, -21			; ffffffebH
  0010f	88 55 ee	 mov	 BYTE PTR __k$[ebp+14], dl
  00112	8a 50 0f	 mov	 dl, BYTE PTR [eax+15]
  00115	84 d2		 test	 dl, dl
  00117	0f 84 dd 00 00
	00		 je	 $LN81@LoadInt_e
  0011d	32 d3		 xor	 dl, bl
  0011f	88 55 ef	 mov	 BYTE PTR __k$[ebp+15], dl
  00122	8a 50 10	 mov	 dl, BYTE PTR [eax+16]
  00125	84 d2		 test	 dl, dl
  00127	0f 84 c7 00 00
	00		 je	 $LN80@LoadInt_e
  0012d	80 f2 ed	 xor	 dl, -19			; ffffffedH
  00130	88 55 f0	 mov	 BYTE PTR __k$[ebp+16], dl
  00133	8a 50 11	 mov	 dl, BYTE PTR [eax+17]
  00136	84 d2		 test	 dl, dl
  00138	0f 84 b1 00 00
	00		 je	 $LN79@LoadInt_e
  0013e	32 d1		 xor	 dl, cl
  00140	88 55 f1	 mov	 BYTE PTR __k$[ebp+17], dl
  00143	8a 50 12	 mov	 dl, BYTE PTR [eax+18]
  00146	84 d2		 test	 dl, dl
  00148	0f 84 9b 00 00
	00		 je	 $LN78@LoadInt_e
  0014e	80 f2 eb	 xor	 dl, -21			; ffffffebH
  00151	88 55 f2	 mov	 BYTE PTR __k$[ebp+18], dl
  00154	8a 50 13	 mov	 dl, BYTE PTR [eax+19]
  00157	84 d2		 test	 dl, dl
  00159	0f 84 85 00 00
	00		 je	 $LN77@LoadInt_e
  0015f	32 d3		 xor	 dl, bl
  00161	88 55 f3	 mov	 BYTE PTR __k$[ebp+19], dl
  00164	8a 50 14	 mov	 dl, BYTE PTR [eax+20]
  00167	84 d2		 test	 dl, dl
  00169	74 73		 je	 SHORT $LN76@LoadInt_e
  0016b	80 f2 ed	 xor	 dl, -19			; ffffffedH
  0016e	88 55 f4	 mov	 BYTE PTR __k$[ebp+20], dl
  00171	8a 50 15	 mov	 dl, BYTE PTR [eax+21]
  00174	84 d2		 test	 dl, dl
  00176	74 61		 je	 SHORT $LN75@LoadInt_e
  00178	32 d1		 xor	 dl, cl
  0017a	80 78 16 00	 cmp	 BYTE PTR [eax+22], 0
  0017e	88 55 f5	 mov	 BYTE PTR __k$[ebp+21], dl
  00181	0f 84 cb 00 00
	00		 je	 $LN1@LoadInt_e
  00187	8a 50 17	 mov	 dl, BYTE PTR [eax+23]
  0018a	84 d2		 test	 dl, dl
  0018c	74 46		 je	 SHORT $LN73@LoadInt_e
  0018e	32 d3		 xor	 dl, bl
  00190	88 55 f7	 mov	 BYTE PTR __k$[ebp+23], dl
  00193	8a 50 18	 mov	 dl, BYTE PTR [eax+24]
  00196	84 d2		 test	 dl, dl
  00198	74 34		 je	 SHORT $LN72@LoadInt_e
  0019a	80 f2 ed	 xor	 dl, -19			; ffffffedH
  0019d	88 55 f8	 mov	 BYTE PTR __k$[ebp+24], dl
  001a0	8a 50 19	 mov	 dl, BYTE PTR [eax+25]
  001a3	84 d2		 test	 dl, dl
  001a5	74 1f		 je	 SHORT $LN71@LoadInt_e
  001a7	8a 40 1a	 mov	 al, BYTE PTR [eax+26]
  001aa	32 d1		 xor	 dl, cl
  001ac	88 55 f9	 mov	 BYTE PTR __k$[ebp+25], dl
  001af	84 c0		 test	 al, al
  001b1	74 0a		 je	 SHORT $LN70@LoadInt_e
  001b3	34 eb		 xor	 al, -21			; ffffffebH
  001b5	88 45 fa	 mov	 BYTE PTR __k$[ebp+26], al
  001b8	e9 95 00 00 00	 jmp	 $LN1@LoadInt_e
$LN70@LoadInt_e:
  001bd	c6 45 fa eb	 mov	 BYTE PTR __k$[ebp+26], -21 ; ffffffebH
  001c1	e9 8c 00 00 00	 jmp	 $LN1@LoadInt_e
$LN71@LoadInt_e:
  001c6	88 4d f9	 mov	 BYTE PTR __k$[ebp+25], cl
  001c9	e9 84 00 00 00	 jmp	 $LN1@LoadInt_e
$LN72@LoadInt_e:
  001ce	c6 45 f8 ed	 mov	 BYTE PTR __k$[ebp+24], -19 ; ffffffedH
  001d2	eb 7e		 jmp	 SHORT $LN1@LoadInt_e
$LN73@LoadInt_e:
  001d4	88 5d f7	 mov	 BYTE PTR __k$[ebp+23], bl
  001d7	eb 79		 jmp	 SHORT $LN1@LoadInt_e
$LN75@LoadInt_e:
  001d9	88 4d f5	 mov	 BYTE PTR __k$[ebp+21], cl
  001dc	eb 74		 jmp	 SHORT $LN1@LoadInt_e
$LN76@LoadInt_e:
  001de	c6 45 f4 ed	 mov	 BYTE PTR __k$[ebp+20], -19 ; ffffffedH
  001e2	eb 6e		 jmp	 SHORT $LN1@LoadInt_e
$LN77@LoadInt_e:
  001e4	88 5d f3	 mov	 BYTE PTR __k$[ebp+19], bl
  001e7	eb 69		 jmp	 SHORT $LN1@LoadInt_e
$LN78@LoadInt_e:
  001e9	c6 45 f2 eb	 mov	 BYTE PTR __k$[ebp+18], -21 ; ffffffebH
  001ed	eb 63		 jmp	 SHORT $LN1@LoadInt_e
$LN79@LoadInt_e:
  001ef	88 4d f1	 mov	 BYTE PTR __k$[ebp+17], cl
  001f2	eb 5e		 jmp	 SHORT $LN1@LoadInt_e
$LN80@LoadInt_e:
  001f4	c6 45 f0 ed	 mov	 BYTE PTR __k$[ebp+16], -19 ; ffffffedH
  001f8	eb 58		 jmp	 SHORT $LN1@LoadInt_e
$LN81@LoadInt_e:
  001fa	88 5d ef	 mov	 BYTE PTR __k$[ebp+15], bl
  001fd	eb 53		 jmp	 SHORT $LN1@LoadInt_e
$LN82@LoadInt_e:
  001ff	c6 45 ee eb	 mov	 BYTE PTR __k$[ebp+14], -21 ; ffffffebH
  00203	eb 4d		 jmp	 SHORT $LN1@LoadInt_e
$LN83@LoadInt_e:
  00205	88 4d ed	 mov	 BYTE PTR __k$[ebp+13], cl
  00208	eb 48		 jmp	 SHORT $LN1@LoadInt_e
$LN84@LoadInt_e:
  0020a	c6 45 ec ed	 mov	 BYTE PTR __k$[ebp+12], -19 ; ffffffedH
  0020e	eb 42		 jmp	 SHORT $LN1@LoadInt_e
$LN85@LoadInt_e:
  00210	88 5d eb	 mov	 BYTE PTR __k$[ebp+11], bl
  00213	eb 3d		 jmp	 SHORT $LN1@LoadInt_e
$LN86@LoadInt_e:
  00215	c6 45 ea eb	 mov	 BYTE PTR __k$[ebp+10], -21 ; ffffffebH
  00219	eb 37		 jmp	 SHORT $LN1@LoadInt_e
$LN87@LoadInt_e:
  0021b	88 4d e9	 mov	 BYTE PTR __k$[ebp+9], cl
  0021e	eb 32		 jmp	 SHORT $LN1@LoadInt_e
$LN88@LoadInt_e:
  00220	c6 45 e8 ed	 mov	 BYTE PTR __k$[ebp+8], -19 ; ffffffedH
  00224	eb 2c		 jmp	 SHORT $LN1@LoadInt_e
$LN89@LoadInt_e:
  00226	88 5d e7	 mov	 BYTE PTR __k$[ebp+7], bl
  00229	eb 27		 jmp	 SHORT $LN1@LoadInt_e
$LN90@LoadInt_e:
  0022b	c6 45 e6 eb	 mov	 BYTE PTR __k$[ebp+6], -21 ; ffffffebH
  0022f	eb 21		 jmp	 SHORT $LN1@LoadInt_e
$LN91@LoadInt_e:
  00231	88 4d e5	 mov	 BYTE PTR __k$[ebp+5], cl
  00234	eb 1c		 jmp	 SHORT $LN1@LoadInt_e
$LN92@LoadInt_e:
  00236	c6 45 e4 ed	 mov	 BYTE PTR __k$[ebp+4], -19 ; ffffffedH
  0023a	eb 16		 jmp	 SHORT $LN1@LoadInt_e
$LN93@LoadInt_e:
  0023c	c6 45 e3 ea	 mov	 BYTE PTR __k$[ebp+3], -22 ; ffffffeaH
  00240	eb 10		 jmp	 SHORT $LN1@LoadInt_e
$LN94@LoadInt_e:
  00242	c6 45 e2 eb	 mov	 BYTE PTR __k$[ebp+2], -21 ; ffffffebH
  00246	eb 0a		 jmp	 SHORT $LN1@LoadInt_e
$LN95@LoadInt_e:
  00248	c6 45 e1 ec	 mov	 BYTE PTR __k$[ebp+1], -20 ; ffffffecH
  0024c	eb 04		 jmp	 SHORT $LN1@LoadInt_e
$LN96@LoadInt_e:
  0024e	c6 45 e0 ed	 mov	 BYTE PTR __k$[ebp], -19	; ffffffedH
$LN1@LoadInt_e:
  00252	6a 05		 push	 5
  00254	8d 45 e0	 lea	 eax, DWORD PTR __k$[ebp]
  00257	c6 45 f6 00	 mov	 BYTE PTR __k$[ebp+22], 0
  0025b	5a		 pop	 edx
$LL104@LoadInt_e:
  0025c	81 30 ed ec eb
	ea		 xor	 DWORD PTR [eax], -353637139 ; eaebecedH
  00262	83 c0 04	 add	 eax, 4
  00265	4a		 dec	 edx
  00266	75 f4		 jne	 SHORT $LL104@LoadInt_e
  00268	6a 14		 push	 20			; 00000014H
  0026a	58		 pop	 eax
$LL101@LoadInt_e:
  0026b	8b c8		 mov	 ecx, eax
  0026d	81 e1 03 00 00
	80		 and	 ecx, -2147483645	; 80000003H
  00273	79 05		 jns	 SHORT $LN111@LoadInt_e
  00275	49		 dec	 ecx
  00276	83 c9 fc	 or	 ecx, -4			; fffffffcH
  00279	41		 inc	 ecx
$LN111@LoadInt_e:
  0027a	b2 ed		 mov	 dl, -19			; ffffffedH
  0027c	2a d1		 sub	 dl, cl
  0027e	30 54 05 e0	 xor	 BYTE PTR __k$[ebp+eax], dl
  00282	40		 inc	 eax
  00283	83 f8 16	 cmp	 eax, 22			; 00000016H
  00286	7c e3		 jl	 SHORT $LL101@LoadInt_e

; 120  : 		return LoadInt(_k, i);

  00288	ff 75 0c	 push	 DWORD PTR _i$[ebp]
  0028b	8d 45 e0	 lea	 eax, DWORD PTR __k$[ebp]
  0028e	50		 push	 eax
  0028f	8b ce		 mov	 ecx, esi
  00291	ff 15 00 00 00
	00		 call	 DWORD PTR __imp_?LoadInt@ioINILoader@@QAEHPBDH@Z

; 121  : 	}

  00297	8b 4d fc	 mov	 ecx, DWORD PTR __$ArrayPad$[ebp]
  0029a	5e		 pop	 esi
  0029b	33 cd		 xor	 ecx, ebp
  0029d	5b		 pop	 ebx
  0029e	e8 00 00 00 00	 call	 @__security_check_cookie@4
  002a3	c9		 leave
  002a4	c2 08 00	 ret	 8
??$LoadInt_e@$0BH@@ioINILoader@@QAEHAAY0BH@$$CBDH@Z ENDP ; ioINILoader::LoadInt_e<23>
_TEXT	ENDS
PUBLIC	__real@3fd2ee0d320154cb
PUBLIC	__real@41f0000000000000
PUBLIC	??$RADtoDEG@M@@YAMM@Z				; RADtoDEG<float>
;	COMDAT __real@3fd2ee0d320154cb
; File d:\lost saga for developer\youtube\tutorial\source\src\lsclient\veryoftenusedefine.h
CONST	SEGMENT
__real@3fd2ee0d320154cb DQ 03fd2ee0d320154cbr	; 0.29578
CONST	ENDS
;	COMDAT __real@41f0000000000000
CONST	SEGMENT
__real@41f0000000000000 DQ 041f0000000000000r	; 4.29497e+009
; Function compile flags: /Ogsp
CONST	ENDS
;	COMDAT ??$RADtoDEG@M@@YAMM@Z
_TEXT	SEGMENT
tv130 = -4						; size = 4
tv75 = 8						; size = 4
_val$ = 8						; size = 4
??$RADtoDEG@M@@YAMM@Z PROC				; RADtoDEG<float>, COMDAT

; 18   : type  RADtoDEG (type val) {return (type) (val * (return57() + 0.2957795132)); }

  00000	55		 push	 ebp
  00001	8b ec		 mov	 ebp, esp
  00003	51		 push	 ecx
  00004	b8 39 00 00 00	 mov	 eax, 57			; 00000039H
  00009	89 45 fc	 mov	 DWORD PTR tv130[ebp], eax
  0000c	db 45 fc	 fild	 DWORD PTR tv130[ebp]
  0000f	85 c0		 test	 eax, eax
  00011	79 06		 jns	 SHORT $LN5@RADtoDEG
  00013	dc 05 00 00 00
	00		 fadd	 QWORD PTR __real@41f0000000000000
$LN5@RADtoDEG:
  00019	dc 05 00 00 00
	00		 fadd	 QWORD PTR __real@3fd2ee0d320154cb
  0001f	d8 4d 08	 fmul	 DWORD PTR _val$[ebp]
  00022	d9 5d 08	 fstp	 DWORD PTR tv75[ebp]
  00025	d9 45 08	 fld	 DWORD PTR tv75[ebp]
  00028	c9		 leave
  00029	c3		 ret	 0
??$RADtoDEG@M@@YAMM@Z ENDP				; RADtoDEG<float>
_TEXT	ENDS
PUBLIC	??0?$CEncrypt@M@@QAE@XZ				; CEncrypt<float>::CEncrypt<float>
EXTRN	??0ccddaabb@@QAE@XZ:PROC			; ccddaabb::ccddaabb
;	COMDAT xdata$x
; File d:\lost saga for developer\youtube\tutorial\source\src\lsclient\encryptvalue.h
xdata$x	SEGMENT
__unwindtable$??0?$CEncrypt@M@@QAE@XZ DD 0ffffffffH
	DD	FLAT:__unwindfunclet$??0?$CEncrypt@M@@QAE@XZ$0
__ehfuncinfo$??0?$CEncrypt@M@@QAE@XZ DD 019930522H
	DD	01H
	DD	FLAT:__unwindtable$??0?$CEncrypt@M@@QAE@XZ
	DD	2 DUP(00H)
	DD	2 DUP(00H)
	DD	00H
	DD	01H
; Function compile flags: /Ogsp
xdata$x	ENDS
;	COMDAT ??0?$CEncrypt@M@@QAE@XZ
_TEXT	SEGMENT
_this$ = -16						; size = 4
__$EHRec$ = -12						; size = 12
??0?$CEncrypt@M@@QAE@XZ PROC				; CEncrypt<float>::CEncrypt<float>, COMDAT
; _this$ = ecx

; 109  : 	CEncrypt()

  00000	6a 04		 push	 4
  00002	b8 00 00 00 00	 mov	 eax, __ehhandler$??0?$CEncrypt@M@@QAE@XZ
  00007	e8 00 00 00 00	 call	 __EH_prolog3
  0000c	8b f1		 mov	 esi, ecx
  0000e	89 75 f0	 mov	 DWORD PTR _this$[ebp], esi
  00011	8d 4e 0c	 lea	 ecx, DWORD PTR [esi+12]
  00014	c7 06 00 00 00
	00		 mov	 DWORD PTR [esi], OFFSET ??_7?$CEncrypt@M@@6B@
  0001a	e8 00 00 00 00	 call	 ??0ccddaabb@@QAE@XZ	; ccddaabb::ccddaabb
  0001f	83 65 fc 00	 and	 DWORD PTR __$EHRec$[ebp+8], 0

; 110  : 	{
; 111  : 		Init();

  00023	8b ce		 mov	 ecx, esi
  00025	e8 00 00 00 00	 call	 ?Init@?$CEncrypt@M@@AAEXXZ ; CEncrypt<float>::Init

; 112  : 	}

  0002a	8b c6		 mov	 eax, esi
  0002c	e8 00 00 00 00	 call	 __EH_epilog3
  00031	c3		 ret	 0
_TEXT	ENDS
;	COMDAT text$x
text$x	SEGMENT
__unwindfunclet$??0?$CEncrypt@M@@QAE@XZ$0:
  00000	8b 4d f0	 mov	 ecx, DWORD PTR _this$[ebp]
  00003	83 c1 0c	 add	 ecx, 12			; 0000000cH
  00006	e9 00 00 00 00	 jmp	 ??1ccddaabb@@UAE@XZ	; ccddaabb::~ccddaabb
__ehhandler$??0?$CEncrypt@M@@QAE@XZ:
  0000b	8b 54 24 08	 mov	 edx, DWORD PTR [esp+8]
  0000f	8d 42 0c	 lea	 eax, DWORD PTR [edx+12]
  00012	8b 4a ec	 mov	 ecx, DWORD PTR [edx-20]
  00015	33 c8		 xor	 ecx, eax
  00017	e8 00 00 00 00	 call	 @__security_check_cookie@4
  0001c	b8 00 00 00 00	 mov	 eax, OFFSET __ehfuncinfo$??0?$CEncrypt@M@@QAE@XZ
  00021	e9 00 00 00 00	 jmp	 ___CxxFrameHandler3
text$x	ENDS
??0?$CEncrypt@M@@QAE@XZ ENDP				; CEncrypt<float>::CEncrypt<float>
PUBLIC	??B?$CEncrypt@M@@QAEMXZ				; CEncrypt<float>::operator float
; Function compile flags: /Ogsp
;	COMDAT ??B?$CEncrypt@M@@QAEMXZ
_TEXT	SEGMENT
_value$ = -4						; size = 4
??B?$CEncrypt@M@@QAEMXZ PROC				; CEncrypt<float>::operator float, COMDAT
; _this$ = ecx

; 134  : 	{

  00000	55		 push	 ebp
  00001	8b ec		 mov	 ebp, esp
  00003	51		 push	 ecx

; 135  : 		type value;
; 136  : 		DecryptValueToPool(&value);

  00004	8d 45 fc	 lea	 eax, DWORD PTR _value$[ebp]
  00007	50		 push	 eax
  00008	e8 00 00 00 00	 call	 ?DecryptValueToPool@?$CEncrypt@M@@QAEXPAM@Z ; CEncrypt<float>::DecryptValueToPool

; 137  : 
; 138  : #ifdef _NOTUSE
; 139  : 		Debug();
; 140  : #endif
; 141  : 		return value;

  0000d	d9 45 fc	 fld	 DWORD PTR _value$[ebp]

; 142  : 	}

  00010	c9		 leave
  00011	c3		 ret	 0
??B?$CEncrypt@M@@QAEMXZ ENDP				; CEncrypt<float>::operator float
_TEXT	ENDS
PUBLIC	??4?$CEncrypt@M@@QAEMM@Z			; CEncrypt<float>::operator=
; Function compile flags: /Ogsp
;	COMDAT ??4?$CEncrypt@M@@QAEMM@Z
_TEXT	SEGMENT
_value$ = 8						; size = 4
_inValue$ = 8						; size = 4
??4?$CEncrypt@M@@QAEMM@Z PROC				; CEncrypt<float>::operator=, COMDAT
; _this$ = ecx

; 1654 : 	{	

  00000	55		 push	 ebp
  00001	8b ec		 mov	 ebp, esp

; 1655 : 		type value = inValue;

  00003	d9 45 08	 fld	 DWORD PTR _inValue$[ebp]

; 1656 : 		EncryptValueToPool((char*)&value);

  00006	8d 45 08	 lea	 eax, DWORD PTR _value$[ebp]
  00009	50		 push	 eax
  0000a	d9 5d 08	 fstp	 DWORD PTR _value$[ebp]
  0000d	e8 00 00 00 00	 call	 ?EncryptValueToPool@?$CEncrypt@M@@AAEXPBD@Z ; CEncrypt<float>::EncryptValueToPool

; 1657 : #ifdef _NOTUSE
; 1658 : 		m_value = inValue;
; 1659 : 		Debug();
; 1660 : #endif
; 1661 : 		return value;

  00012	d9 45 08	 fld	 DWORD PTR _value$[ebp]

; 1662 : 	}

  00015	5d		 pop	 ebp
  00016	c2 04 00	 ret	 4
??4?$CEncrypt@M@@QAEMM@Z ENDP				; CEncrypt<float>::operator=
_TEXT	ENDS
PUBLIC	??O?$CEncrypt@M@@QAE_NABM@Z			; CEncrypt<float>::operator>
; Function compile flags: /Ogsp
;	COMDAT ??O?$CEncrypt@M@@QAE_NABM@Z
_TEXT	SEGMENT
_value$ = -4						; size = 4
_inValue$ = 8						; size = 4
??O?$CEncrypt@M@@QAE_NABM@Z PROC			; CEncrypt<float>::operator>, COMDAT
; _this$ = ecx

; 1811 : 	{

  00000	55		 push	 ebp
  00001	8b ec		 mov	 ebp, esp
  00003	51		 push	 ecx

; 1812 : 		type value;
; 1813 : 		DecryptValueToPool(&value);

  00004	8d 45 fc	 lea	 eax, DWORD PTR _value$[ebp]
  00007	50		 push	 eax
  00008	e8 00 00 00 00	 call	 ?DecryptValueToPool@?$CEncrypt@M@@QAEXPAM@Z ; CEncrypt<float>::DecryptValueToPool

; 1814 : #ifdef _NOTUSE
; 1815 : 		Debug();
; 1816 : #endif
; 1817 : 		return (value > inValue);

  0000d	8b 45 08	 mov	 eax, DWORD PTR _inValue$[ebp]
  00010	f3 0f 10 08	 movss	 xmm1, DWORD PTR [eax]
  00014	f3 0f 10 45 fc	 movss	 xmm0, DWORD PTR _value$[ebp]
  00019	0f 5a c0	 cvtps2pd xmm0, xmm0
  0001c	0f 5a c9	 cvtps2pd xmm1, xmm1
  0001f	33 c0		 xor	 eax, eax
  00021	66 0f 2f c1	 comisd	 xmm0, xmm1
  00025	76 01		 jbe	 SHORT $LN4@operator
  00027	40		 inc	 eax
$LN4@operator:

; 1818 : 	}		

  00028	c9		 leave
  00029	c2 04 00	 ret	 4
??O?$CEncrypt@M@@QAE_NABM@Z ENDP			; CEncrypt<float>::operator>
_TEXT	ENDS
PUBLIC	??0?$CEncrypt@K@@QAE@XZ				; CEncrypt<unsigned long>::CEncrypt<unsigned long>
;	COMDAT xdata$x
xdata$x	SEGMENT
__unwindtable$??0?$CEncrypt@K@@QAE@XZ DD 0ffffffffH
	DD	FLAT:__unwindfunclet$??0?$CEncrypt@K@@QAE@XZ$0
__ehfuncinfo$??0?$CEncrypt@K@@QAE@XZ DD 019930522H
	DD	01H
	DD	FLAT:__unwindtable$??0?$CEncrypt@K@@QAE@XZ
	DD	2 DUP(00H)
	DD	2 DUP(00H)
	DD	00H
	DD	01H
; Function compile flags: /Ogsp
xdata$x	ENDS
;	COMDAT ??0?$CEncrypt@K@@QAE@XZ
_TEXT	SEGMENT
_this$ = -16						; size = 4
__$EHRec$ = -12						; size = 12
??0?$CEncrypt@K@@QAE@XZ PROC				; CEncrypt<unsigned long>::CEncrypt<unsigned long>, COMDAT
; _this$ = ecx

; 109  : 	CEncrypt()

  00000	6a 04		 push	 4
  00002	b8 00 00 00 00	 mov	 eax, __ehhandler$??0?$CEncrypt@K@@QAE@XZ
  00007	e8 00 00 00 00	 call	 __EH_prolog3
  0000c	8b f1		 mov	 esi, ecx
  0000e	89 75 f0	 mov	 DWORD PTR _this$[ebp], esi
  00011	8d 4e 0c	 lea	 ecx, DWORD PTR [esi+12]
  00014	c7 06 00 00 00
	00		 mov	 DWORD PTR [esi], OFFSET ??_7?$CEncrypt@K@@6B@
  0001a	e8 00 00 00 00	 call	 ??0ccddaabb@@QAE@XZ	; ccddaabb::ccddaabb
  0001f	83 65 fc 00	 and	 DWORD PTR __$EHRec$[ebp+8], 0

; 110  : 	{
; 111  : 		Init();

  00023	8b ce		 mov	 ecx, esi
  00025	e8 00 00 00 00	 call	 ?Init@?$CEncrypt@K@@AAEXXZ ; CEncrypt<unsigned long>::Init

; 112  : 	}

  0002a	8b c6		 mov	 eax, esi
  0002c	e8 00 00 00 00	 call	 __EH_epilog3
  00031	c3		 ret	 0
_TEXT	ENDS
;	COMDAT text$x
text$x	SEGMENT
__unwindfunclet$??0?$CEncrypt@K@@QAE@XZ$0:
  00000	8b 4d f0	 mov	 ecx, DWORD PTR _this$[ebp]
  00003	83 c1 0c	 add	 ecx, 12			; 0000000cH
  00006	e9 00 00 00 00	 jmp	 ??1ccddaabb@@UAE@XZ	; ccddaabb::~ccddaabb
__ehhandler$??0?$CEncrypt@K@@QAE@XZ:
  0000b	8b 54 24 08	 mov	 edx, DWORD PTR [esp+8]
  0000f	8d 42 0c	 lea	 eax, DWORD PTR [edx+12]
  00012	8b 4a ec	 mov	 ecx, DWORD PTR [edx-20]
  00015	33 c8		 xor	 ecx, eax
  00017	e8 00 00 00 00	 call	 @__security_check_cookie@4
  0001c	b8 00 00 00 00	 mov	 eax, OFFSET __ehfuncinfo$??0?$CEncrypt@K@@QAE@XZ
  00021	e9 00 00 00 00	 jmp	 ___CxxFrameHandler3
text$x	ENDS
??0?$CEncrypt@K@@QAE@XZ ENDP				; CEncrypt<unsigned long>::CEncrypt<unsigned long>
PUBLIC	??B?$CEncrypt@K@@QAEKXZ				; CEncrypt<unsigned long>::operator unsigned long
; Function compile flags: /Ogsp
;	COMDAT ??B?$CEncrypt@K@@QAEKXZ
_TEXT	SEGMENT
_value$ = -4						; size = 4
??B?$CEncrypt@K@@QAEKXZ PROC				; CEncrypt<unsigned long>::operator unsigned long, COMDAT
; _this$ = ecx

; 134  : 	{

  00000	55		 push	 ebp
  00001	8b ec		 mov	 ebp, esp
  00003	51		 push	 ecx

; 135  : 		type value;
; 136  : 		DecryptValueToPool(&value);

  00004	8d 45 fc	 lea	 eax, DWORD PTR _value$[ebp]
  00007	50		 push	 eax
  00008	e8 00 00 00 00	 call	 ?DecryptValueToPool@?$CEncrypt@K@@QAEXPAK@Z ; CEncrypt<unsigned long>::DecryptValueToPool

; 137  : 
; 138  : #ifdef _NOTUSE
; 139  : 		Debug();
; 140  : #endif
; 141  : 		return value;

  0000d	8b 45 fc	 mov	 eax, DWORD PTR _value$[ebp]

; 142  : 	}

  00010	c9		 leave
  00011	c3		 ret	 0
??B?$CEncrypt@K@@QAEKXZ ENDP				; CEncrypt<unsigned long>::operator unsigned long
_TEXT	ENDS
PUBLIC	??4?$CEncrypt@K@@QAEKK@Z			; CEncrypt<unsigned long>::operator=
; Function compile flags: /Ogsp
;	COMDAT ??4?$CEncrypt@K@@QAEKK@Z
_TEXT	SEGMENT
_value$ = 8						; size = 4
_inValue$ = 8						; size = 4
??4?$CEncrypt@K@@QAEKK@Z PROC				; CEncrypt<unsigned long>::operator=, COMDAT
; _this$ = ecx

; 1262 : 	{

  00000	55		 push	 ebp
  00001	8b ec		 mov	 ebp, esp

; 1263 : 		
; 1264 : 		type value = inValue;

  00003	8b 45 08	 mov	 eax, DWORD PTR _inValue$[ebp]
  00006	89 45 08	 mov	 DWORD PTR _value$[ebp], eax

; 1265 : 		EncryptValueToPool((char*)&value);

  00009	8d 45 08	 lea	 eax, DWORD PTR _value$[ebp]
  0000c	50		 push	 eax
  0000d	e8 00 00 00 00	 call	 ?EncryptValueToPool@?$CEncrypt@K@@AAEXPBD@Z ; CEncrypt<unsigned long>::EncryptValueToPool

; 1266 : #ifdef _NOTUSE
; 1267 : 		m_value = inValue;
; 1268 : 		Debug();
; 1269 : #endif
; 1270 : 		return value;

  00012	8b 45 08	 mov	 eax, DWORD PTR _value$[ebp]

; 1271 : 	}

  00015	5d		 pop	 ebp
  00016	c2 04 00	 ret	 4
??4?$CEncrypt@K@@QAEKK@Z ENDP				; CEncrypt<unsigned long>::operator=
_TEXT	ENDS
PUBLIC	??B?$CEncrypt@H@@QBEHXZ				; CEncrypt<int>::operator int
; Function compile flags: /Ogsp
;	COMDAT ??B?$CEncrypt@H@@QBEHXZ
_TEXT	SEGMENT
_value$ = -4						; size = 4
??B?$CEncrypt@H@@QBEHXZ PROC				; CEncrypt<int>::operator int, COMDAT
; _this$ = ecx

; 145  : 	{

  00000	55		 push	 ebp
  00001	8b ec		 mov	 ebp, esp
  00003	51		 push	 ecx

; 146  : 		//UJ 130829, const도 똑같이 하면 된다 --start
; 147  : 		type value;
; 148  : 		CEncrypt<type>* pThis = const_cast<CEncrypt<type>*>(this);
; 149  : 		pThis->DecryptValueToPool(&value);

  00004	8d 45 fc	 lea	 eax, DWORD PTR _value$[ebp]
  00007	50		 push	 eax
  00008	e8 00 00 00 00	 call	 ?DecryptValueToPool@?$CEncrypt@H@@QAEXPAH@Z ; CEncrypt<int>::DecryptValueToPool

; 150  : 		//// const에서 DecryptValueToPool 사용할 수 없으므로 아래와 같이함.
; 151  :  		//type value;
; 152  : 		//char szTempMem[MAX_ENCRYPT];
; 153  : 		//m_RC5.DecryptByte( m_MemPool, szTempMem, max(m_ValueSize, DEFAULT_ENCRYPT) );
; 154  : 		//memcpy( &value, szTempMem, m_ValueSize );
; 155  : 		//UJ --end
; 156  : 
; 157  : #ifdef _NOTUSE
; 158  : 		Debug();
; 159  : #endif
; 160  : 		return value;

  0000d	8b 45 fc	 mov	 eax, DWORD PTR _value$[ebp]

; 161  : 	}

  00010	c9		 leave
  00011	c3		 ret	 0
??B?$CEncrypt@H@@QBEHXZ ENDP				; CEncrypt<int>::operator int
_TEXT	ENDS
PUBLIC	??4?$CEncrypt@W4TeamType@@@@QAE?AW4TeamType@@W41@@Z ; CEncrypt<enum TeamType>::operator=
; Function compile flags: /Ogsp
;	COMDAT ??4?$CEncrypt@W4TeamType@@@@QAE?AW4TeamType@@W41@@Z
_TEXT	SEGMENT
_value$ = 8						; size = 4
_inValue$ = 8						; size = 4
??4?$CEncrypt@W4TeamType@@@@QAE?AW4TeamType@@W41@@Z PROC ; CEncrypt<enum TeamType>::operator=, COMDAT
; _this$ = ecx

; 2965 : 	{

  00000	55		 push	 ebp
  00001	8b ec		 mov	 ebp, esp

; 2966 : 		type value = inValue;

  00003	8b 45 08	 mov	 eax, DWORD PTR _inValue$[ebp]
  00006	89 45 08	 mov	 DWORD PTR _value$[ebp], eax

; 2967 : 		EncryptValueToPool((char*)&value);

  00009	8d 45 08	 lea	 eax, DWORD PTR _value$[ebp]
  0000c	50		 push	 eax
  0000d	e8 00 00 00 00	 call	 ?EncryptValueToPool@?$CEncrypt@W4TeamType@@@@AAEXPBD@Z ; CEncrypt<enum TeamType>::EncryptValueToPool

; 2968 : #ifdef _NOTUSE
; 2969 : 		m_value = inValue;
; 2970 : 		Debug();
; 2971 : #endif
; 2972 : 		return value;

  00012	8b 45 08	 mov	 eax, DWORD PTR _value$[ebp]

; 2973 : 	}

  00015	5d		 pop	 ebp
  00016	c2 04 00	 ret	 4
??4?$CEncrypt@W4TeamType@@@@QAE?AW4TeamType@@W41@@Z ENDP ; CEncrypt<enum TeamType>::operator=
_TEXT	ENDS
PUBLIC	??0ioOwnerControlDummy2@@QAE@PAVioEntityGroup@@PAVioPlayMode@@@Z ; ioOwnerControlDummy2::ioOwnerControlDummy2
EXTRN	??0ioDummyChar@@QAE@PAVioEntityGroup@@PAVioPlayMode@@@Z:PROC ; ioDummyChar::ioDummyChar
;	COMDAT xdata$x
; File d:\lost saga for developer\youtube\tutorial\source\src\lsclient\ioownercontroldummy2.cpp
xdata$x	SEGMENT
__unwindtable$??0ioOwnerControlDummy2@@QAE@PAVioEntityGroup@@PAVioPlayMode@@@Z DD 0ffffffffH
	DD	FLAT:__unwindfunclet$??0ioOwnerControlDummy2@@QAE@PAVioEntityGroup@@PAVioPlayMode@@@Z$0
	DD	00H
	DD	FLAT:__unwindfunclet$??0ioOwnerControlDummy2@@QAE@PAVioEntityGroup@@PAVioPlayMode@@@Z$1
__ehfuncinfo$??0ioOwnerControlDummy2@@QAE@PAVioEntityGroup@@PAVioPlayMode@@@Z DD 019930522H
	DD	02H
	DD	FLAT:__unwindtable$??0ioOwnerControlDummy2@@QAE@PAVioEntityGroup@@PAVioPlayMode@@@Z
	DD	2 DUP(00H)
	DD	2 DUP(00H)
	DD	00H
	DD	01H
; Function compile flags: /Ogsp
xdata$x	ENDS
;	COMDAT ??0ioOwnerControlDummy2@@QAE@PAVioEntityGroup@@PAVioPlayMode@@@Z
_TEXT	SEGMENT
_this$ = -16						; size = 4
__$EHRec$ = -12						; size = 12
_pGrp$ = 8						; size = 4
_pMode$ = 12						; size = 4
??0ioOwnerControlDummy2@@QAE@PAVioEntityGroup@@PAVioPlayMode@@@Z PROC ; ioOwnerControlDummy2::ioOwnerControlDummy2, COMDAT
; _this$ = ecx

; 15   : {

  00000	6a 04		 push	 4
  00002	b8 00 00 00 00	 mov	 eax, __ehhandler$??0ioOwnerControlDummy2@@QAE@PAVioEntityGroup@@PAVioPlayMode@@@Z
  00007	e8 00 00 00 00	 call	 __EH_prolog3
  0000c	8b f1		 mov	 esi, ecx
  0000e	89 75 f0	 mov	 DWORD PTR _this$[ebp], esi
  00011	ff 75 0c	 push	 DWORD PTR _pMode$[ebp]
  00014	ff 75 08	 push	 DWORD PTR _pGrp$[ebp]
  00017	e8 00 00 00 00	 call	 ??0ioDummyChar@@QAE@PAVioEntityGroup@@PAVioPlayMode@@@Z ; ioDummyChar::ioDummyChar
  0001c	33 db		 xor	 ebx, ebx
  0001e	8d 8e 80 14 00
	00		 lea	 ecx, DWORD PTR [esi+5248]
  00024	89 5d fc	 mov	 DWORD PTR __$EHRec$[ebp+8], ebx
  00027	c7 06 00 00 00
	00		 mov	 DWORD PTR [esi], OFFSET ??_7ioOwnerControlDummy2@@6BioPlayEntity@@@
  0002d	c7 86 c8 01 00
	00 00 00 00 00	 mov	 DWORD PTR [esi+456], OFFSET ??_7ioOwnerControlDummy2@@6BioWorldEventReceiver@@@
  00037	e8 00 00 00 00	 call	 ??0?$CEncrypt@K@@QAE@XZ	; CEncrypt<unsigned long>::CEncrypt<unsigned long>
  0003c	8d 8e b4 14 00
	00		 lea	 ecx, DWORD PTR [esi+5300]
  00042	c6 45 fc 01	 mov	 BYTE PTR __$EHRec$[ebp+8], 1
  00046	e8 00 00 00 00	 call	 ??0?$CEncrypt@M@@QAE@XZ	; CEncrypt<float>::CEncrypt<float>

; 16   : 	m_OwnerControlState = OCS_CONTROL;

  0004b	89 9e e4 14 00
	00		 mov	 DWORD PTR [esi+5348], ebx

; 17   : 	m_dwLostControlTime = 0;

  00051	89 9e b0 14 00
	00		 mov	 DWORD PTR [esi+5296], ebx

; 18   : 
; 19   : 	m_bSetUpKey   = false;

  00057	66 89 9e 58 0d
	00 00		 mov	 WORD PTR [esi+3416], bx

; 20   : 	m_bSetDownKey = false;
; 21   : }

  0005e	8b c6		 mov	 eax, esi
  00060	e8 00 00 00 00	 call	 __EH_epilog3
  00065	c2 08 00	 ret	 8
_TEXT	ENDS
;	COMDAT text$x
text$x	SEGMENT
__unwindfunclet$??0ioOwnerControlDummy2@@QAE@PAVioEntityGroup@@PAVioPlayMode@@@Z$0:
  00000	8b 4d f0	 mov	 ecx, DWORD PTR _this$[ebp]
  00003	e9 00 00 00 00	 jmp	 ??1ioDummyChar@@UAE@XZ	; ioDummyChar::~ioDummyChar
__unwindfunclet$??0ioOwnerControlDummy2@@QAE@PAVioEntityGroup@@PAVioPlayMode@@@Z$1:
  00008	8b 4d f0	 mov	 ecx, DWORD PTR _this$[ebp]
  0000b	81 c1 80 14 00
	00		 add	 ecx, 5248		; 00001480H
  00011	e9 00 00 00 00	 jmp	 ??1?$CEncrypt@K@@UAE@XZ	; CEncrypt<unsigned long>::~CEncrypt<unsigned long>
__ehhandler$??0ioOwnerControlDummy2@@QAE@PAVioEntityGroup@@PAVioPlayMode@@@Z:
  00016	8b 54 24 08	 mov	 edx, DWORD PTR [esp+8]
  0001a	8d 42 0c	 lea	 eax, DWORD PTR [edx+12]
  0001d	8b 4a ec	 mov	 ecx, DWORD PTR [edx-20]
  00020	33 c8		 xor	 ecx, eax
  00022	e8 00 00 00 00	 call	 @__security_check_cookie@4
  00027	b8 00 00 00 00	 mov	 eax, OFFSET __ehfuncinfo$??0ioOwnerControlDummy2@@QAE@PAVioEntityGroup@@PAVioPlayMode@@@Z
  0002c	e9 00 00 00 00	 jmp	 ___CxxFrameHandler3
text$x	ENDS
??0ioOwnerControlDummy2@@QAE@PAVioEntityGroup@@PAVioPlayMode@@@Z ENDP ; ioOwnerControlDummy2::ioOwnerControlDummy2
; Function compile flags: /Ogsp
;	COMDAT ??_GioOwnerControlDummy2@@UAEPAXI@Z
_TEXT	SEGMENT
___flags$ = 8						; size = 4
??_GioOwnerControlDummy2@@UAEPAXI@Z PROC		; ioOwnerControlDummy2::`scalar deleting destructor', COMDAT
; _this$ = ecx
  00000	55		 push	 ebp
  00001	8b ec		 mov	 ebp, esp
  00003	56		 push	 esi
  00004	8b f1		 mov	 esi, ecx
  00006	e8 00 00 00 00	 call	 ??1ioOwnerControlDummy2@@UAE@XZ ; ioOwnerControlDummy2::~ioOwnerControlDummy2
  0000b	f6 45 08 01	 test	 BYTE PTR ___flags$[ebp], 1
  0000f	74 07		 je	 SHORT $LN1@scalar@3
  00011	56		 push	 esi
  00012	e8 00 00 00 00	 call	 ??3@YAXPAX@Z		; operator delete
  00017	59		 pop	 ecx
$LN1@scalar@3:
  00018	8b c6		 mov	 eax, esi
  0001a	5e		 pop	 esi
  0001b	5d		 pop	 ebp
  0001c	c2 04 00	 ret	 4
??_GioOwnerControlDummy2@@UAEPAXI@Z ENDP		; ioOwnerControlDummy2::`scalar deleting destructor'
_TEXT	ENDS
PUBLIC	__$ArrayPad$
EXTRN	?LoadProperty@ioDummyChar@@UAEXAAVioINILoader@@@Z:PROC ; ioDummyChar::LoadProperty
; Function compile flags: /Ogsp
;	COMDAT ?LoadProperty@ioOwnerControlDummy2@@UAEXAAVioINILoader@@@Z
_TEXT	SEGMENT
_value$602930 = -40					; size = 4
_value$602801 = -40					; size = 4
__k$602701 = -36					; size = 27
__k$602831 = -32					; size = 23
__$ArrayPad$ = -4					; size = 4
_rkLoader$ = 8						; size = 4
?LoadProperty@ioOwnerControlDummy2@@UAEXAAVioINILoader@@@Z PROC ; ioOwnerControlDummy2::LoadProperty, COMDAT
; _this$ = ecx

; 28   : {

  00000	55		 push	 ebp
  00001	8b ec		 mov	 ebp, esp
  00003	83 ec 28	 sub	 esp, 40			; 00000028H
  00006	a1 00 00 00 00	 mov	 eax, DWORD PTR ___security_cookie
  0000b	33 c5		 xor	 eax, ebp
  0000d	89 45 fc	 mov	 DWORD PTR __$ArrayPad$[ebp], eax
  00010	56		 push	 esi
  00011	57		 push	 edi
  00012	8b 7d 08	 mov	 edi, DWORD PTR _rkLoader$[ebp]

; 29   : 	ioDummyChar::LoadProperty( rkLoader );

  00015	57		 push	 edi
  00016	8b f1		 mov	 esi, ecx
  00018	e8 00 00 00 00	 call	 ?LoadProperty@ioDummyChar@@UAEXAAVioINILoader@@@Z ; ioDummyChar::LoadProperty

; 30   : 	char szBuf[MAX_PATH] = "", szKey[MAX_PATH] = "";
; 31   : 
; 32   : 	m_fRotateSpeed = rkLoader.LoadFloat_e( "owner_control_rotate_speed", 0.0f );

  0001d	6a 06		 push	 6
  0001f	c7 45 dc 82 9b
	85 8f		 mov	 DWORD PTR __k$602701[ebp], -1887069310 ; 8f859b82H
  00026	c7 45 e0 9f b3
	88 85		 mov	 DWORD PTR __k$602701[ebp+4], -2054638689 ; 8588b39fH
  0002d	c7 45 e4 83 98
	99 85		 mov	 DWORD PTR __k$602701[ebp+8], -2053531517 ; 85999883H
  00034	c7 45 e8 81 b3
	99 85		 mov	 DWORD PTR __k$602701[ebp+12], -2053524607 ; 8599b381H
  0003b	c7 45 ec 99 8d
	9f 8f		 mov	 DWORD PTR __k$602701[ebp+16], -1885368935 ; 8f9f8d99H
  00042	c7 45 f0 b2 9f
	9b 8f		 mov	 DWORD PTR __k$602701[ebp+20], -1885626446 ; 8f9b9fb2H
  00049	66 c7 45 f4 88
	88		 mov	 WORD PTR __k$602701[ebp+24], 34952 ; 00008888H
  0004f	8d 45 dc	 lea	 eax, DWORD PTR __k$602701[ebp]
  00052	c6 45 f6 00	 mov	 BYTE PTR __k$602701[ebp+26], 0
  00056	59		 pop	 ecx
$LL106@LoadProper:
  00057	81 30 ed ec eb
	ea		 xor	 DWORD PTR [eax], -353637139 ; eaebecedH
  0005d	83 c0 04	 add	 eax, 4
  00060	49		 dec	 ecx
  00061	75 f4		 jne	 SHORT $LL106@LoadProper
  00063	6a 18		 push	 24			; 00000018H
  00065	58		 pop	 eax
$LL103@LoadProper:
  00066	8b c8		 mov	 ecx, eax
  00068	81 e1 03 00 00
	80		 and	 ecx, -2147483645	; 80000003H
  0006e	79 05		 jns	 SHORT $LN227@LoadProper
  00070	49		 dec	 ecx
  00071	83 c9 fc	 or	 ecx, -4			; fffffffcH
  00074	41		 inc	 ecx
$LN227@LoadProper:
  00075	b2 ed		 mov	 dl, -19			; ffffffedH
  00077	2a d1		 sub	 dl, cl
  00079	30 54 05 dc	 xor	 BYTE PTR __k$602701[ebp+eax], dl
  0007d	40		 inc	 eax
  0007e	83 f8 1a	 cmp	 eax, 26			; 0000001aH
  00081	7c e3		 jl	 SHORT $LL103@LoadProper
  00083	0f 57 c0	 xorps	 xmm0, xmm0
  00086	51		 push	 ecx
  00087	8d 45 dc	 lea	 eax, DWORD PTR __k$602701[ebp]
  0008a	f3 0f 11 04 24	 movss	 DWORD PTR [esp], xmm0
  0008f	50		 push	 eax
  00090	8b cf		 mov	 ecx, edi
  00092	ff 15 00 00 00
	00		 call	 DWORD PTR __imp_?LoadFloat@ioINILoader@@QAEMPBDM@Z
  00098	d9 5d d8	 fstp	 DWORD PTR _value$602801[ebp]
  0009b	8d 45 d8	 lea	 eax, DWORD PTR _value$602801[ebp]
  0009e	50		 push	 eax
  0009f	8d 8e b4 14 00
	00		 lea	 ecx, DWORD PTR [esi+5300]
  000a5	e8 00 00 00 00	 call	 ?EncryptValueToPool@?$CEncrypt@M@@AAEXPBD@Z ; CEncrypt<float>::EncryptValueToPool
  000aa	6a 05		 push	 5

; 33   : 	m_dwLostControlMoveTime = (DWORD)rkLoader.LoadInt_e( "lost_control_move_time", 0 );

  000ac	c7 45 e0 81 83
	98 9e		 mov	 DWORD PTR __k$602831[ebp], -1634172031 ; 9e988381H
  000b3	c7 45 e4 b2 8f
	84 84		 mov	 DWORD PTR __k$602831[ebp+4], -2071687246 ; 84848fb2H
  000ba	c7 45 e8 99 9e
	84 86		 mov	 DWORD PTR __k$602831[ebp+8], -2038128999 ; 86849e99H
  000c1	c7 45 ec b2 81
	84 9c		 mov	 DWORD PTR __k$602831[ebp+12], -1669037646 ; 9c8481b2H
  000c8	c7 45 f0 88 b3
	9f 83		 mov	 DWORD PTR __k$602831[ebp+16], -2086685816 ; 839fb388H
  000cf	66 c7 45 f4 80
	89		 mov	 WORD PTR __k$602831[ebp+20], 35200 ; 00008980H
  000d5	8d 45 e0	 lea	 eax, DWORD PTR __k$602831[ebp]
  000d8	c6 45 f6 00	 mov	 BYTE PTR __k$602831[ebp+22], 0
  000dc	59		 pop	 ecx
$LL214@LoadProper:
  000dd	81 30 ed ec eb
	ea		 xor	 DWORD PTR [eax], -353637139 ; eaebecedH
  000e3	83 c0 04	 add	 eax, 4
  000e6	49		 dec	 ecx
  000e7	75 f4		 jne	 SHORT $LL214@LoadProper
  000e9	6a 14		 push	 20			; 00000014H
  000eb	58		 pop	 eax
$LL211@LoadProper:
  000ec	8b c8		 mov	 ecx, eax
  000ee	81 e1 03 00 00
	80		 and	 ecx, -2147483645	; 80000003H
  000f4	79 05		 jns	 SHORT $LN228@LoadProper
  000f6	49		 dec	 ecx
  000f7	83 c9 fc	 or	 ecx, -4			; fffffffcH
  000fa	41		 inc	 ecx
$LN228@LoadProper:
  000fb	b2 ed		 mov	 dl, -19			; ffffffedH
  000fd	2a d1		 sub	 dl, cl
  000ff	30 54 05 e0	 xor	 BYTE PTR __k$602831[ebp+eax], dl
  00103	40		 inc	 eax
  00104	83 f8 16	 cmp	 eax, 22			; 00000016H
  00107	7c e3		 jl	 SHORT $LL211@LoadProper
  00109	6a 00		 push	 0
  0010b	8d 45 e0	 lea	 eax, DWORD PTR __k$602831[ebp]
  0010e	50		 push	 eax
  0010f	8b cf		 mov	 ecx, edi
  00111	ff 15 00 00 00
	00		 call	 DWORD PTR __imp_?LoadInt@ioINILoader@@QAEHPBDH@Z
  00117	89 45 d8	 mov	 DWORD PTR _value$602930[ebp], eax
  0011a	8d 45 d8	 lea	 eax, DWORD PTR _value$602930[ebp]
  0011d	50		 push	 eax
  0011e	8d 8e 80 14 00
	00		 lea	 ecx, DWORD PTR [esi+5248]
  00124	e8 00 00 00 00	 call	 ?EncryptValueToPool@?$CEncrypt@K@@AAEXPBD@Z ; CEncrypt<unsigned long>::EncryptValueToPool

; 34   : }

  00129	8b 4d fc	 mov	 ecx, DWORD PTR __$ArrayPad$[ebp]
  0012c	5f		 pop	 edi
  0012d	33 cd		 xor	 ecx, ebp
  0012f	5e		 pop	 esi
  00130	e8 00 00 00 00	 call	 @__security_check_cookie@4
  00135	c9		 leave
  00136	c2 04 00	 ret	 4
?LoadProperty@ioOwnerControlDummy2@@UAEXAAVioINILoader@@@Z ENDP ; ioOwnerControlDummy2::LoadProperty
_TEXT	ENDS
PUBLIC	__real@00000000
PUBLIC	__$ArrayPad$
EXTRN	?GetMapHeight@ioPlayStage@@QAEMMMPBVioGameEntity@@_NM1@Z:PROC ; ioPlayStage::GetMapHeight
;	COMDAT __real@00000000
; File d:\lost saga for developer\youtube\tutorial\source\src\lsclient\encryptvalue.h
CONST	SEGMENT
__real@00000000 DD 000000000r			; 0
; Function compile flags: /Ogsp
; File d:\lost saga for developer\youtube\tutorial\source\src\lsclient\ioownercontroldummy2.cpp
CONST	ENDS
;	COMDAT ?ProcessPos@ioOwnerControlDummy2@@MAEXM@Z
_TEXT	SEGMENT
_value$602955 = -28					; size = 4
_value$602961 = -24					; size = 4
_fHeightGap$600444 = -24				; size = 4
_fMapHeight$600443 = -20				; size = 4
_pStage$600440 = -20					; size = 4
_vPos$600446 = -16					; size = 12
_vPos$600442 = -16					; size = 12
__$ArrayPad$ = -4					; size = 4
_fTimePerSec$ = 8					; size = 4
?ProcessPos@ioOwnerControlDummy2@@MAEXM@Z PROC		; ioOwnerControlDummy2::ProcessPos, COMDAT
; _this$ = ecx

; 52   : {

  00000	55		 push	 ebp
  00001	8b ec		 mov	 ebp, esp
  00003	83 ec 1c	 sub	 esp, 28			; 0000001cH
  00006	a1 00 00 00 00	 mov	 eax, DWORD PTR ___security_cookie
  0000b	33 c5		 xor	 eax, ebp
  0000d	89 45 fc	 mov	 DWORD PTR __$ArrayPad$[ebp], eax
  00010	53		 push	 ebx
  00011	8b d9		 mov	 ebx, ecx

; 53   : 	DWORD dwCurTime = FRAMEGETTIME();

  00013	ff 15 00 00 00
	00		 call	 DWORD PTR __imp_?GetSingleton@ioFrameTimer@@SAAAV1@XZ
  00019	8b c8		 mov	 ecx, eax
  0001b	ff 15 00 00 00
	00		 call	 DWORD PTR __imp_?GetLoopSec@ioFrameTimer@@QBEKXZ

; 54   : 
; 55   : 	if( m_State == DCS_START )

  00021	83 bb 30 02 00
	00 01		 cmp	 DWORD PTR [ebx+560], 1
  00028	75 0b		 jne	 SHORT $LN4@ProcessPos

; 56   : 	{
; 57   : 		m_dwProcessTime = dwCurTime;

  0002a	89 83 1c 02 00
	00		 mov	 DWORD PTR [ebx+540], eax

; 58   : 		return;

  00030	e9 e9 00 00 00	 jmp	 $LN1@ProcessPos
$LN4@ProcessPos:

; 59   : 	}
; 60   : 
; 61   : 	ioBaseChar *pOwner = GetOwner();

  00035	8b cb		 mov	 ecx, ebx
  00037	e8 00 00 00 00	 call	 ?GetOwner@ioDummyChar@@QBEPAVioBaseChar@@XZ ; ioDummyChar::GetOwner

; 62   : 	if( pOwner )

  0003c	85 c0		 test	 eax, eax
  0003e	0f 84 da 00 00
	00		 je	 $LN1@ProcessPos

; 63   : 	{
; 64   : 		ioPlayStage *pStage = pOwner->GetCreator();

  00044	8b 80 44 03 00
	00		 mov	 eax, DWORD PTR [eax+836]
  0004a	89 45 ec	 mov	 DWORD PTR _pStage$600440[ebp], eax

; 65   : 		if( pStage )

  0004d	85 c0		 test	 eax, eax
  0004f	0f 84 c9 00 00
	00		 je	 $LN1@ProcessPos

; 66   : 		{
; 67   : 			D3DXVECTOR3 vPos = GetWorldPosition();

  00055	8b 03		 mov	 eax, DWORD PTR [ebx]
  00057	56		 push	 esi
  00058	57		 push	 edi
  00059	8b cb		 mov	 ecx, ebx
  0005b	ff 50 70	 call	 DWORD PTR [eax+112]

; 68   : 			float fMapHeight = pStage->GetMapHeight( vPos.x, vPos.z, this, true );

  0005e	0f 57 c0	 xorps	 xmm0, xmm0
  00061	6a 00		 push	 0
  00063	51		 push	 ecx
  00064	f3 0f 11 04 24	 movss	 DWORD PTR [esp], xmm0
  00069	8b f0		 mov	 esi, eax
  0006b	8d 7d f0	 lea	 edi, DWORD PTR _vPos$600442[ebp]
  0006e	a5		 movsd
  0006f	6a 01		 push	 1
  00071	a5		 movsd
  00072	53		 push	 ebx
  00073	51		 push	 ecx
  00074	51		 push	 ecx
  00075	8b 4d ec	 mov	 ecx, DWORD PTR _pStage$600440[ebp]
  00078	a5		 movsd
  00079	f3 0f 10 45 f8	 movss	 xmm0, DWORD PTR _vPos$600442[ebp+8]
  0007e	f3 0f 11 44 24
	04		 movss	 DWORD PTR [esp+4], xmm0
  00084	f3 0f 10 45 f0	 movss	 xmm0, DWORD PTR _vPos$600442[ebp]
  00089	f3 0f 11 04 24	 movss	 DWORD PTR [esp], xmm0
  0008e	e8 00 00 00 00	 call	 ?GetMapHeight@ioPlayStage@@QAEMMMPBVioGameEntity@@_NM1@Z ; ioPlayStage::GetMapHeight
  00093	d9 5d ec	 fstp	 DWORD PTR _fMapHeight$600443[ebp]

; 69   : 			float fHeightGap = GetWorldPosition().y - fMapHeight;

  00096	8b 03		 mov	 eax, DWORD PTR [ebx]
  00098	8b cb		 mov	 ecx, ebx
  0009a	ff 50 70	 call	 DWORD PTR [eax+112]
  0009d	d9 40 04	 fld	 DWORD PTR [eax+4]
  000a0	d8 65 ec	 fsub	 DWORD PTR _fMapHeight$600443[ebp]
  000a3	d9 5d e8	 fstp	 DWORD PTR _fHeightGap$600444[ebp]

; 70   : 			if( fMapHeight > 0.0f && m_fMinHeight > fHeightGap )

  000a6	d9 ee		 fldz
  000a8	d9 45 ec	 fld	 DWORD PTR _fMapHeight$600443[ebp]
  000ab	df f1		 fcomip	 ST(1)
  000ad	dd d8		 fstp	 ST(0)
  000af	76 6b		 jbe	 SHORT $LN16@ProcessPos
  000b1	8d 45 e4	 lea	 eax, DWORD PTR _value$602955[ebp]
  000b4	8d 8b c8 0c 00
	00		 lea	 ecx, DWORD PTR [ebx+3272]
  000ba	50		 push	 eax
  000bb	e8 00 00 00 00	 call	 ?DecryptValueToPool@?$CEncrypt@M@@QAEXPAM@Z ; CEncrypt<float>::DecryptValueToPool
  000c0	f3 0f 10 45 e4	 movss	 xmm0, DWORD PTR _value$602955[ebp]
  000c5	f3 0f 10 4d e8	 movss	 xmm1, DWORD PTR _fHeightGap$600444[ebp]
  000ca	0f 5a c0	 cvtps2pd xmm0, xmm0
  000cd	0f 5a c9	 cvtps2pd xmm1, xmm1
  000d0	66 0f 2f c1	 comisd	 xmm0, xmm1
  000d4	76 46		 jbe	 SHORT $LN16@ProcessPos

; 71   : 			{
; 72   : 				D3DXVECTOR3 vPos = GetWorldPosition();

  000d6	8b 03		 mov	 eax, DWORD PTR [ebx]
  000d8	8b cb		 mov	 ecx, ebx
  000da	ff 50 70	 call	 DWORD PTR [eax+112]
  000dd	8b f0		 mov	 esi, eax
  000df	8d 7d f0	 lea	 edi, DWORD PTR _vPos$600446[ebp]
  000e2	a5		 movsd
  000e3	a5		 movsd

; 73   : 				vPos.y = fMapHeight + m_fMinHeight;

  000e4	8d 45 e8	 lea	 eax, DWORD PTR _value$602961[ebp]
  000e7	50		 push	 eax
  000e8	8d 8b c8 0c 00
	00		 lea	 ecx, DWORD PTR [ebx+3272]
  000ee	a5		 movsd
  000ef	e8 00 00 00 00	 call	 ?DecryptValueToPool@?$CEncrypt@M@@QAEXPAM@Z ; CEncrypt<float>::DecryptValueToPool
  000f4	f3 0f 10 45 e8	 movss	 xmm0, DWORD PTR _value$602961[ebp]
  000f9	f3 0f 10 4d ec	 movss	 xmm1, DWORD PTR _fMapHeight$600443[ebp]

; 74   : 				SetWorldPosition( vPos );

  000fe	8b 03		 mov	 eax, DWORD PTR [ebx]
  00100	0f 5a c0	 cvtps2pd xmm0, xmm0
  00103	8d 4d f0	 lea	 ecx, DWORD PTR _vPos$600446[ebp]
  00106	0f 5a c9	 cvtps2pd xmm1, xmm1
  00109	f2 0f 58 c1	 addsd	 xmm0, xmm1
  0010d	51		 push	 ecx
  0010e	66 0f 5a c0	 cvtpd2ps xmm0, xmm0
  00112	8b cb		 mov	 ecx, ebx
  00114	f3 0f 11 45 f4	 movss	 DWORD PTR _vPos$600446[ebp+4], xmm0
  00119	ff 50 44	 call	 DWORD PTR [eax+68]
$LN16@ProcessPos:
  0011c	5f		 pop	 edi
  0011d	5e		 pop	 esi
$LN1@ProcessPos:

; 75   : 			}
; 76   : 		}
; 77   : 	}
; 78   : }

  0011e	8b 4d fc	 mov	 ecx, DWORD PTR __$ArrayPad$[ebp]
  00121	33 cd		 xor	 ecx, ebp
  00123	5b		 pop	 ebx
  00124	e8 00 00 00 00	 call	 @__security_check_cookie@4
  00129	c9		 leave
  0012a	c2 04 00	 ret	 4
?ProcessPos@ioOwnerControlDummy2@@MAEXM@Z ENDP		; ioOwnerControlDummy2::ProcessPos
_TEXT	ENDS
PUBLIC	__real@bff0000000000000
PUBLIC	__real@4066800000000000
PUBLIC	__real@4046800000000000
PUBLIC	__real@0000000000000000
PUBLIC	?CheckControlMove@ioOwnerControlDummy2@@IAEXM@Z	; ioOwnerControlDummy2::CheckControlMove
EXTRN	__imp_??1ioOrientBox@@QAE@XZ:PROC
EXTRN	?CheckAxisLimit@ioPlayStage@@QAE_NPAUD3DXVECTOR3@@@Z:PROC ; ioPlayStage::CheckAxisLimit
EXTRN	?CheckFlyMapLimit@ioPlayStage@@QAEXPAUD3DXVECTOR3@@@Z:PROC ; ioPlayStage::CheckFlyMapLimit
EXTRN	__imp_?GetExtents@ioOrientBox@@QBEMH@Z:PROC
EXTRN	?GetWorldCollisionBox@ioGameEntity@@QBEABVioOrientBox@@XZ:PROC ; ioGameEntity::GetWorldCollisionBox
EXTRN	?SetWorldOrientationAndDir@ioDummyChar@@QAEXABUD3DXQUATERNION@@@Z:PROC ; ioDummyChar::SetWorldOrientationAndDir
EXTRN	__imp_?CalcDirectionQuaternion@ioMath@@SAXAAUD3DXQUATERNION@@ABUD3DXVECTOR3@@@Z:PROC
EXTRN	__imp_??D@YA?AUD3DXVECTOR3@@ABUD3DXQUATERNION@@ABU0@@Z:PROC
EXTRN	__imp_?AngleGap@ioMath@@SAMMM@Z:PROC
EXTRN	__imp_?QuaterToYaw@ioMath@@SAMABUD3DXQUATERNION@@@Z:PROC
EXTRN	_D3DXQuaternionRotationYawPitchRoll@16:PROC
EXTRN	__imp_?ArrangeHead@ioMath@@SAMM@Z:PROC
EXTRN	__imp_?GetCurFrameGap@ioFrameTimer@@QBEMXZ:PROC
EXTRN	__EH_epilog3_GS:PROC
EXTRN	__EH_prolog3_GS:PROC
;	COMDAT __real@bff0000000000000
; File c:\program files (x86)\microsoft directx sdk (june 2010)\include\d3dx9math.inl
CONST	SEGMENT
__real@bff0000000000000 DQ 0bff0000000000000r	; -1
CONST	ENDS
;	COMDAT __real@4066800000000000
CONST	SEGMENT
__real@4066800000000000 DQ 04066800000000000r	; 180
CONST	ENDS
;	COMDAT __real@4046800000000000
CONST	SEGMENT
__real@4046800000000000 DQ 04046800000000000r	; 45
CONST	ENDS
;	COMDAT __real@0000000000000000
CONST	SEGMENT
__real@0000000000000000 DQ 00000000000000000r	; 0
CONST	ENDS
;	COMDAT xdata$x
xdata$x	SEGMENT
__unwindtable$?CheckControlMove@ioOwnerControlDummy2@@IAEXM@Z DD 0ffffffffH
	DD	FLAT:__unwindfunclet$?CheckControlMove@ioOwnerControlDummy2@@IAEXM@Z$0
__ehfuncinfo$?CheckControlMove@ioOwnerControlDummy2@@IAEXM@Z DD 019930522H
	DD	01H
	DD	FLAT:__unwindtable$?CheckControlMove@ioOwnerControlDummy2@@IAEXM@Z
	DD	2 DUP(00H)
	DD	2 DUP(00H)
	DD	00H
	DD	01H
; Function compile flags: /Ogsp
; File d:\lost saga for developer\youtube\tutorial\source\src\lsclient\ioownercontroldummy2.cpp
xdata$x	ENDS
;	COMDAT ?CheckControlMove@ioOwnerControlDummy2@@IAEXM@Z
_TEXT	SEGMENT
_qtCurRot$600567 = -188					; size = 16
_qtAngle$600578 = -172					; size = 16
_qtRotate$600566 = -156					; size = 16
_pStage$ = -140						; size = 4
_fMapHeight$ = -136					; size = 4
_fHeightAmt$ = -132					; size = 4
_fRotateAngle$600558 = -128				; size = 4
_fUpDownSpeed$ = -128					; size = 4
tv819 = -124						; size = 4
tv761 = -124						; size = 4
_value$602988 = -124					; size = 4
_value$602984 = -124					; size = 4
_value$602980 = -124					; size = 4
_fTargetYaw$600569 = -124				; size = 4
_kBox$ = -120						; size = 68
_vDir$600579 = -52					; size = 12
_vPos$ = -52						; size = 12
_vCurPos$ = -40						; size = 12
$T600581 = -28						; size = 12
tv768 = -24						; size = 8
tv746 = -20						; size = 4
_value$603027 = -20					; size = 4
_value$603031 = -20					; size = 4
_value$602976 = -20					; size = 4
_fDownHeight$ = -20					; size = 4
_fRotAngle$600574 = -20					; size = 4
_fCurYaw$600568 = -20					; size = 4
_fYawD$600560 = -20					; size = 4
_fRate$600557 = -20					; size = 4
_fFrameGap$600556 = -20					; size = 4
_fHeightGap$ = -20					; size = 4
__$EHRec$ = -12						; size = 12
_fTimePerSec$ = 8					; size = 4
?CheckControlMove@ioOwnerControlDummy2@@IAEXM@Z PROC	; ioOwnerControlDummy2::CheckControlMove, COMDAT
; _this$ = ecx

; 288  : {

  00000	68 b0 00 00 00	 push	 176			; 000000b0H
  00005	b8 00 00 00 00	 mov	 eax, __ehhandler$?CheckControlMove@ioOwnerControlDummy2@@IAEXM@Z
  0000a	e8 00 00 00 00	 call	 __EH_prolog3_GS
  0000f	8b d9		 mov	 ebx, ecx

; 289  : 	ioBaseChar *pOwner = GetOwner();

  00011	e8 00 00 00 00	 call	 ?GetOwner@ioDummyChar@@QBEPAVioBaseChar@@XZ ; ioDummyChar::GetOwner

; 290  : 	if( !pOwner )	return;

  00016	85 c0		 test	 eax, eax
  00018	0f 84 35 05 00
	00		 je	 $LN12@CheckContr

; 291  : 
; 292  : 	ioPlayStage *pStage = pOwner->GetCreator();

  0001e	8b 80 44 03 00
	00		 mov	 eax, DWORD PTR [eax+836]
  00024	89 85 74 ff ff
	ff		 mov	 DWORD PTR _pStage$[ebp], eax

; 293  : 	if( !pStage )	return;

  0002a	85 c0		 test	 eax, eax
  0002c	0f 84 21 05 00
	00		 je	 $LN12@CheckContr

; 294  : 
; 295  : 	D3DXVECTOR3 vPos = GetWorldPosition();

  00032	8b 03		 mov	 eax, DWORD PTR [ebx]
  00034	8b cb		 mov	 ecx, ebx
  00036	ff 50 70	 call	 DWORD PTR [eax+112]

; 296  : 	float fMapHeight = pStage->GetMapHeight( vPos.x, vPos.z, this, true );

  00039	0f 57 c0	 xorps	 xmm0, xmm0
  0003c	6a 00		 push	 0
  0003e	51		 push	 ecx
  0003f	f3 0f 11 04 24	 movss	 DWORD PTR [esp], xmm0
  00044	8b f0		 mov	 esi, eax
  00046	8d 7d cc	 lea	 edi, DWORD PTR _vPos$[ebp]
  00049	a5		 movsd
  0004a	6a 01		 push	 1
  0004c	a5		 movsd
  0004d	53		 push	 ebx
  0004e	51		 push	 ecx
  0004f	51		 push	 ecx
  00050	8b 8d 74 ff ff
	ff		 mov	 ecx, DWORD PTR _pStage$[ebp]
  00056	a5		 movsd
  00057	f3 0f 10 45 d4	 movss	 xmm0, DWORD PTR _vPos$[ebp+8]
  0005c	f3 0f 11 44 24
	04		 movss	 DWORD PTR [esp+4], xmm0
  00062	f3 0f 10 45 cc	 movss	 xmm0, DWORD PTR _vPos$[ebp]
  00067	f3 0f 11 04 24	 movss	 DWORD PTR [esp], xmm0
  0006c	e8 00 00 00 00	 call	 ?GetMapHeight@ioPlayStage@@QAEMMMPBVioGameEntity@@_NM1@Z ; ioPlayStage::GetMapHeight
  00071	d9 9d 78 ff ff
	ff		 fstp	 DWORD PTR _fMapHeight$[ebp]

; 297  : 	float fHeightAmt = 0.0f;

  00077	0f 57 c0	 xorps	 xmm0, xmm0

; 298  : 
; 299  : 	// 수직이동
; 300  : 	float fUpDownSpeed = m_fUpDownSpeed * fTimePerSec;

  0007a	8d 45 ec	 lea	 eax, DWORD PTR _value$602976[ebp]
  0007d	50		 push	 eax
  0007e	8d 8b 98 0c 00
	00		 lea	 ecx, DWORD PTR [ebx+3224]
  00084	f3 0f 11 85 7c
	ff ff ff	 movss	 DWORD PTR _fHeightAmt$[ebp], xmm0
  0008c	e8 00 00 00 00	 call	 ?DecryptValueToPool@?$CEncrypt@M@@QAEXPAM@Z ; CEncrypt<float>::DecryptValueToPool
  00091	f3 0f 10 45 ec	 movss	 xmm0, DWORD PTR _value$602976[ebp]
  00096	f3 0f 10 4d 08	 movss	 xmm1, DWORD PTR _fTimePerSec$[ebp]

; 301  : 	float fHeightGap = ( GetWorldPosition().y + fUpDownSpeed ) - fMapHeight;

  0009b	8b 03		 mov	 eax, DWORD PTR [ebx]
  0009d	0f 5a c0	 cvtps2pd xmm0, xmm0
  000a0	0f 5a c9	 cvtps2pd xmm1, xmm1
  000a3	f2 0f 59 c1	 mulsd	 xmm0, xmm1
  000a7	66 0f 5a c0	 cvtpd2ps xmm0, xmm0
  000ab	8b cb		 mov	 ecx, ebx
  000ad	f3 0f 11 45 80	 movss	 DWORD PTR _fUpDownSpeed$[ebp], xmm0
  000b2	ff 50 70	 call	 DWORD PTR [eax+112]

; 302  : 
; 303  : 	// 위로
; 304  : 	if( m_bSetUpKey )

  000b5	80 bb 58 0d 00
	00 00		 cmp	 BYTE PTR [ebx+3416], 0
  000bc	f3 0f 10 40 04	 movss	 xmm0, DWORD PTR [eax+4]
  000c1	0f 5a c8	 cvtps2pd xmm1, xmm0
  000c4	f3 0f 10 45 80	 movss	 xmm0, DWORD PTR _fUpDownSpeed$[ebp]
  000c9	0f 5a c0	 cvtps2pd xmm0, xmm0
  000cc	f2 0f 58 c8	 addsd	 xmm1, xmm0
  000d0	f3 0f 10 85 78
	ff ff ff	 movss	 xmm0, DWORD PTR _fMapHeight$[ebp]
  000d8	0f 5a d0	 cvtps2pd xmm2, xmm0
  000db	f2 0f 5c ca	 subsd	 xmm1, xmm2
  000df	66 0f 5a c9	 cvtpd2ps xmm1, xmm1
  000e3	f3 0f 11 4d ec	 movss	 DWORD PTR _fHeightGap$[ebp], xmm1
  000e8	74 4a		 je	 SHORT $LN8@CheckContr

; 305  : 	{
; 306  : 		// 상승 최대치에 대한 보정.		
; 307  : 		if( fMapHeight > 0.0f && fHeightGap < m_fMaxHeight )

  000ea	0f 2f 05 00 00
	00 00		 comiss	 xmm0, DWORD PTR __real@00000000
  000f1	76 41		 jbe	 SHORT $LN8@CheckContr
  000f3	8d 45 84	 lea	 eax, DWORD PTR _value$602980[ebp]
  000f6	50		 push	 eax
  000f7	8d 8b f8 0c 00
	00		 lea	 ecx, DWORD PTR [ebx+3320]
  000fd	e8 00 00 00 00	 call	 ?DecryptValueToPool@?$CEncrypt@M@@QAEXPAM@Z ; CEncrypt<float>::DecryptValueToPool
  00102	f3 0f 10 45 ec	 movss	 xmm0, DWORD PTR _fHeightGap$[ebp]
  00107	f3 0f 10 4d 84	 movss	 xmm1, DWORD PTR _value$602980[ebp]
  0010c	0f 5a c0	 cvtps2pd xmm0, xmm0
  0010f	0f 5a c9	 cvtps2pd xmm1, xmm1
  00112	66 0f 2f c8	 comisd	 xmm1, xmm0
  00116	76 1c		 jbe	 SHORT $LN8@CheckContr

; 308  : 		{
; 309  : 			fHeightAmt += fUpDownSpeed;

  00118	f3 0f 10 45 80	 movss	 xmm0, DWORD PTR _fUpDownSpeed$[ebp]
  0011d	0f 5a c0	 cvtps2pd xmm0, xmm0
  00120	f2 0f 58 05 00
	00 00 00	 addsd	 xmm0, QWORD PTR __real@0000000000000000
  00128	f2 0f 5a c0	 cvtsd2ss xmm0, xmm0
  0012c	f3 0f 11 85 7c
	ff ff ff	 movss	 DWORD PTR _fHeightAmt$[ebp], xmm0
$LN8@CheckContr:

; 310  : 		}
; 311  : 	}
; 312  : 
; 313  : 	// 아래로
; 314  : 	if( m_bSetDownKey )

  00134	80 bb 59 0d 00
	00 00		 cmp	 BYTE PTR [ebx+3417], 0
  0013b	74 59		 je	 SHORT $LN6@CheckContr

; 315  : 	{
; 316  : 		if( fMapHeight > 0.0f && fHeightGap > m_fMinHeight )

  0013d	f3 0f 10 85 78
	ff ff ff	 movss	 xmm0, DWORD PTR _fMapHeight$[ebp]
  00145	0f 2f 05 00 00
	00 00		 comiss	 xmm0, DWORD PTR __real@00000000
  0014c	76 48		 jbe	 SHORT $LN6@CheckContr
  0014e	8d 45 84	 lea	 eax, DWORD PTR _value$602984[ebp]
  00151	50		 push	 eax
  00152	8d 8b c8 0c 00
	00		 lea	 ecx, DWORD PTR [ebx+3272]
  00158	e8 00 00 00 00	 call	 ?DecryptValueToPool@?$CEncrypt@M@@QAEXPAM@Z ; CEncrypt<float>::DecryptValueToPool
  0015d	f3 0f 10 45 ec	 movss	 xmm0, DWORD PTR _fHeightGap$[ebp]
  00162	f3 0f 10 4d 84	 movss	 xmm1, DWORD PTR _value$602984[ebp]
  00167	0f 5a c0	 cvtps2pd xmm0, xmm0
  0016a	0f 5a c9	 cvtps2pd xmm1, xmm1
  0016d	66 0f 2f c1	 comisd	 xmm0, xmm1
  00171	76 23		 jbe	 SHORT $LN6@CheckContr

; 317  : 		{
; 318  : 			fHeightAmt -= fUpDownSpeed;

  00173	f3 0f 10 85 7c
	ff ff ff	 movss	 xmm0, DWORD PTR _fHeightAmt$[ebp]
  0017b	f3 0f 10 4d 80	 movss	 xmm1, DWORD PTR _fUpDownSpeed$[ebp]
  00180	0f 5a c0	 cvtps2pd xmm0, xmm0
  00183	0f 5a c9	 cvtps2pd xmm1, xmm1
  00186	f2 0f 5c c1	 subsd	 xmm0, xmm1
  0018a	f2 0f 5a c0	 cvtsd2ss xmm0, xmm0
  0018e	f3 0f 11 85 7c
	ff ff ff	 movss	 DWORD PTR _fHeightAmt$[ebp], xmm0
$LN6@CheckContr:

; 319  : 		}
; 320  : 	}
; 321  : 
; 322  : 	if( m_CurDirKey != ioUserKeyInput::DKI_NONE )

  00196	83 bb 5c 0d 00
	00 00		 cmp	 DWORD PTR [ebx+3420], 0
  0019d	0f 84 19 02 00
	00		 je	 $LN3@CheckContr

; 323  : 	{
; 324  :  		float fFrameGap = g_FrameTimer.GetCurFrameGap();

  001a3	ff 15 00 00 00
	00		 call	 DWORD PTR __imp_?GetSingleton@ioFrameTimer@@SAAAV1@XZ
  001a9	8b c8		 mov	 ecx, eax
  001ab	ff 15 00 00 00
	00		 call	 DWORD PTR __imp_?GetCurFrameGap@ioFrameTimer@@QBEMXZ
  001b1	d9 5d ec	 fstp	 DWORD PTR _fFrameGap$600556[ebp]

; 325  :  		float fRate = fFrameGap / m_fRotateSpeed;

  001b4	8d 45 84	 lea	 eax, DWORD PTR _value$602988[ebp]
  001b7	50		 push	 eax
  001b8	8d 8b b4 14 00
	00		 lea	 ecx, DWORD PTR [ebx+5300]
  001be	e8 00 00 00 00	 call	 ?DecryptValueToPool@?$CEncrypt@M@@QAEXPAM@Z ; CEncrypt<float>::DecryptValueToPool
  001c3	d9 45 ec	 fld	 DWORD PTR _fFrameGap$600556[ebp]
  001c6	d8 75 84	 fdiv	 DWORD PTR _value$602988[ebp]
  001c9	d9 5d ec	 fstp	 DWORD PTR _fRate$600557[ebp]

; 326  :  		float fRotateAngle = FLOAT360 * fRate;

  001cc	b8 68 01 00 00	 mov	 eax, 360		; 00000168H
  001d1	89 45 84	 mov	 DWORD PTR tv819[ebp], eax
  001d4	db 45 84	 fild	 DWORD PTR tv819[ebp]
  001d7	85 c0		 test	 eax, eax
  001d9	79 06		 jns	 SHORT $LN58@CheckContr
  001db	d8 05 00 00 00
	00		 fadd	 DWORD PTR __real@4f800000
$LN58@CheckContr:

; 327  : 
; 328  : 		// 목표에 도달체크 및 처리
; 329  : 		float fYawD = 180.0f + 45.0f * ( m_CurDirKey - ioUserKeyInput::DKI_UP );

  001e1	8b 83 5c 0d 00
	00		 mov	 eax, DWORD PTR [ebx+3420]
  001e7	d8 4d ec	 fmul	 DWORD PTR _fRate$600557[ebp]
  001ea	0f 57 c0	 xorps	 xmm0, xmm0
  001ed	48		 dec	 eax
  001ee	f3 0f 2a c0	 cvtsi2ss xmm0, eax
  001f2	d9 5d 80	 fstp	 DWORD PTR _fRotateAngle$600558[ebp]
  001f5	0f 5a c0	 cvtps2pd xmm0, xmm0
  001f8	f2 0f 59 05 00
	00 00 00	 mulsd	 xmm0, QWORD PTR __real@4046800000000000
  00200	f2 0f 58 05 00
	00 00 00	 addsd	 xmm0, QWORD PTR __real@4066800000000000

; 330  : 		fYawD = ioMath::ArrangeHead( fYawD );

  00208	51		 push	 ecx
  00209	66 0f 5a c0	 cvtpd2ps xmm0, xmm0
  0020d	f3 0f 11 04 24	 movss	 DWORD PTR [esp], xmm0
  00212	ff 15 00 00 00
	00		 call	 DWORD PTR __imp_?ArrangeHead@ioMath@@SAMM@Z
  00218	d9 5d ec	 fstp	 DWORD PTR _fYawD$600560[ebp]

; 331  : 
; 332  : 		float fYawR = DEGtoRAD( fYawD );

  0021b	f3 0f 10 45 ec	 movss	 xmm0, DWORD PTR _fYawD$600560[ebp]
  00220	0f 5a c0	 cvtps2pd xmm0, xmm0
  00223	f2 0f 59 05 00
	00 00 00	 mulsd	 xmm0, QWORD PTR __real@3f91df46a2526c7a
  0022b	66 0f 5a c8	 cvtpd2ps xmm1, xmm0

; 333  : 		D3DXQUATERNION qtRotate;
; 334  : 		D3DXQuaternionRotationYawPitchRoll( &qtRotate, fYawR, 0.0f, 0.0f );

  0022f	0f 57 c0	 xorps	 xmm0, xmm0
  00232	f3 0f 11 04 24	 movss	 DWORD PTR [esp], xmm0
  00237	51		 push	 ecx
  00238	51		 push	 ecx
  00239	f3 0f 11 44 24
	04		 movss	 DWORD PTR [esp+4], xmm0
  0023f	8d 85 64 ff ff
	ff		 lea	 eax, DWORD PTR _qtRotate$600566[ebp]
  00245	f3 0f 11 0c 24	 movss	 DWORD PTR [esp], xmm1
  0024a	50		 push	 eax
  0024b	e8 00 00 00 00	 call	 _D3DXQuaternionRotationYawPitchRoll@16

; 335  : 
; 336  : 		D3DXQUATERNION qtCurRot = GetWorldOrientation();

  00250	8b 03		 mov	 eax, DWORD PTR [ebx]
  00252	8b cb		 mov	 ecx, ebx
  00254	ff 50 74	 call	 DWORD PTR [eax+116]
  00257	8b f0		 mov	 esi, eax
  00259	8d bd 44 ff ff
	ff		 lea	 edi, DWORD PTR _qtCurRot$600567[ebp]
  0025f	a5		 movsd
  00260	a5		 movsd
  00261	a5		 movsd

; 337  : 
; 338  : 		float fCurYaw, fTargetYaw;
; 339  : 		fCurYaw = RADtoDEG( ioMath::QuaterToYaw( qtCurRot ) );

  00262	8d 85 44 ff ff
	ff		 lea	 eax, DWORD PTR _qtCurRot$600567[ebp]
  00268	50		 push	 eax
  00269	a5		 movsd
  0026a	ff 15 00 00 00
	00		 call	 DWORD PTR __imp_?QuaterToYaw@ioMath@@SAMABUD3DXQUATERNION@@@Z
  00270	d9 1c 24	 fstp	 DWORD PTR [esp]
  00273	e8 00 00 00 00	 call	 ??$RADtoDEG@M@@YAMM@Z	; RADtoDEG<float>

; 340  : 		fTargetYaw = RADtoDEG( ioMath::QuaterToYaw( qtRotate ) );

  00278	8d 85 64 ff ff
	ff		 lea	 eax, DWORD PTR _qtRotate$600566[ebp]
  0027e	d9 5d ec	 fstp	 DWORD PTR _fCurYaw$600568[ebp]
  00281	50		 push	 eax
  00282	ff 15 00 00 00
	00		 call	 DWORD PTR __imp_?QuaterToYaw@ioMath@@SAMABUD3DXQUATERNION@@@Z
  00288	59		 pop	 ecx
  00289	d9 1c 24	 fstp	 DWORD PTR [esp]
  0028c	e8 00 00 00 00	 call	 ??$RADtoDEG@M@@YAMM@Z	; RADtoDEG<float>

; 341  : 
; 342  : 		fCurYaw = ioMath::ArrangeHead( fCurYaw );

  00291	f3 0f 10 45 ec	 movss	 xmm0, DWORD PTR _fCurYaw$600568[ebp]
  00296	d9 5d 84	 fstp	 DWORD PTR _fTargetYaw$600569[ebp]
  00299	f3 0f 11 04 24	 movss	 DWORD PTR [esp], xmm0
  0029e	ff 15 00 00 00
	00		 call	 DWORD PTR __imp_?ArrangeHead@ioMath@@SAMM@Z
  002a4	d9 5d ec	 fstp	 DWORD PTR _fCurYaw$600568[ebp]

; 343  : 		fTargetYaw = ioMath::ArrangeHead( fTargetYaw );

  002a7	f3 0f 10 45 84	 movss	 xmm0, DWORD PTR _fTargetYaw$600569[ebp]
  002ac	f3 0f 11 04 24	 movss	 DWORD PTR [esp], xmm0
  002b1	ff 15 00 00 00
	00		 call	 DWORD PTR __imp_?ArrangeHead@ioMath@@SAMM@Z
  002b7	d9 5d 84	 fstp	 DWORD PTR _fTargetYaw$600569[ebp]

; 344  : 
; 345  : 		float fRotAngle = ioMath::AngleGap( fCurYaw, fTargetYaw );

  002ba	f3 0f 10 45 84	 movss	 xmm0, DWORD PTR _fTargetYaw$600569[ebp]
  002bf	f3 0f 11 04 24	 movss	 DWORD PTR [esp], xmm0
  002c4	f3 0f 10 45 ec	 movss	 xmm0, DWORD PTR _fCurYaw$600568[ebp]
  002c9	51		 push	 ecx
  002ca	f3 0f 11 04 24	 movss	 DWORD PTR [esp], xmm0
  002cf	ff 15 00 00 00
	00		 call	 DWORD PTR __imp_?AngleGap@ioMath@@SAMMM@Z
  002d5	d9 5d ec	 fstp	 DWORD PTR _fRotAngle$600574[ebp]

; 346  : 		
; 347  : 		if( fabs( fRotAngle ) < fRotateAngle )

  002d8	d9 45 ec	 fld	 DWORD PTR _fRotAngle$600574[ebp]
  002db	59		 pop	 ecx
  002dc	d9 e1		 fabs
  002de	59		 pop	 ecx
  002df	d9 5d 84	 fstp	 DWORD PTR tv761[ebp]
  002e2	d9 45 84	 fld	 DWORD PTR tv761[ebp]
  002e5	d9 45 80	 fld	 DWORD PTR _fRotateAngle$600558[ebp]
  002e8	df f1		 fcomip	 ST(1)
  002ea	dd d8		 fstp	 ST(0)
  002ec	76 0b		 jbe	 SHORT $LN4@CheckContr

; 348  : 		{
; 349  : 			SetWorldOrientationAndDir( qtRotate );

  002ee	8d 85 64 ff ff
	ff		 lea	 eax, DWORD PTR _qtRotate$600566[ebp]

; 350  : 		}
; 351  : 		else

  002f4	e9 bb 00 00 00	 jmp	 $LN59@CheckContr
$LN4@CheckContr:

; 352  : 		{
; 353  : 			if( fRotAngle < 0.0f )

  002f9	0f 57 c0	 xorps	 xmm0, xmm0
  002fc	0f 2f 45 ec	 comiss	 xmm0, DWORD PTR _fRotAngle$600574[ebp]

; 354  : 				fRotateAngle *= -1;

  00300	f3 0f 10 45 80	 movss	 xmm0, DWORD PTR _fRotateAngle$600558[ebp]
  00305	76 0f		 jbe	 SHORT $LN2@CheckContr
  00307	0f 5a c0	 cvtps2pd xmm0, xmm0
  0030a	f2 0f 59 05 00
	00 00 00	 mulsd	 xmm0, QWORD PTR __real@bff0000000000000
  00312	66 0f 5a c0	 cvtpd2ps xmm0, xmm0
$LN2@CheckContr:

; 355  : 
; 356  : 			fRotateAngle = ioMath::ArrangeHead( fRotateAngle );

  00316	51		 push	 ecx
  00317	f3 0f 11 04 24	 movss	 DWORD PTR [esp], xmm0
  0031c	ff 15 00 00 00
	00		 call	 DWORD PTR __imp_?ArrangeHead@ioMath@@SAMM@Z
  00322	d9 5d 80	 fstp	 DWORD PTR _fRotateAngle$600558[ebp]

; 357  : 
; 358  : 			D3DXQUATERNION qtAngle;
; 359  : 			D3DXQuaternionRotationYawPitchRoll( &qtAngle, DEGtoRAD(fRotateAngle), 0.0f, 0.0f );

  00325	0f 57 c0	 xorps	 xmm0, xmm0
  00328	d9 45 80	 fld	 DWORD PTR _fRotateAngle$600558[ebp]
  0032b	dc 0d 00 00 00
	00		 fmul	 QWORD PTR __real@3f91df46a2526c7a
  00331	f3 0f 11 04 24	 movss	 DWORD PTR [esp], xmm0
  00336	51		 push	 ecx
  00337	51		 push	 ecx
  00338	d9 5d ec	 fstp	 DWORD PTR tv746[ebp]
  0033b	f3 0f 11 44 24
	04		 movss	 DWORD PTR [esp+4], xmm0
  00341	d9 45 ec	 fld	 DWORD PTR tv746[ebp]
  00344	8d 85 54 ff ff
	ff		 lea	 eax, DWORD PTR _qtAngle$600578[ebp]
  0034a	d9 1c 24	 fstp	 DWORD PTR [esp]
  0034d	50		 push	 eax
  0034e	e8 00 00 00 00	 call	 _D3DXQuaternionRotationYawPitchRoll@16

; 360  : 
; 361  : 			D3DXVECTOR3 vDir = qtAngle * m_vAttackDir;

  00353	8d 83 00 0f 00
	00		 lea	 eax, DWORD PTR [ebx+3840]
  00359	50		 push	 eax
  0035a	8d 85 54 ff ff
	ff		 lea	 eax, DWORD PTR _qtAngle$600578[ebp]
  00360	50		 push	 eax
  00361	8d 45 cc	 lea	 eax, DWORD PTR _vDir$600579[ebp]
  00364	50		 push	 eax
  00365	ff 15 00 00 00
	00		 call	 DWORD PTR __imp_??D@YA?AUD3DXVECTOR3@@ABUD3DXQUATERNION@@ABU0@@Z

; 362  : 			ioMath::CalcDirectionQuaternion( qtAngle, -vDir );

  0036b	f3 0f 10 05 00
	00 00 00	 movss	 xmm0, DWORD PTR __mask@@NegFloat@
  00373	f3 0f 10 4d cc	 movss	 xmm1, DWORD PTR _vDir$600579[ebp]
  00378	f3 0f 10 55 d0	 movss	 xmm2, DWORD PTR _vDir$600579[ebp+4]
  0037d	f3 0f 10 5d d4	 movss	 xmm3, DWORD PTR _vDir$600579[ebp+8]
  00382	8d 45 e4	 lea	 eax, DWORD PTR $T600581[ebp]
  00385	50		 push	 eax
  00386	8d 85 54 ff ff
	ff		 lea	 eax, DWORD PTR _qtAngle$600578[ebp]
  0038c	0f 57 c8	 xorps	 xmm1, xmm0
  0038f	0f 57 d0	 xorps	 xmm2, xmm0
  00392	0f 57 d8	 xorps	 xmm3, xmm0
  00395	50		 push	 eax
  00396	f3 0f 11 4d e4	 movss	 DWORD PTR $T600581[ebp], xmm1
  0039b	f3 0f 11 55 e8	 movss	 DWORD PTR $T600581[ebp+4], xmm2
  003a0	f3 0f 11 5d ec	 movss	 DWORD PTR $T600581[ebp+8], xmm3
  003a5	ff 15 00 00 00
	00		 call	 DWORD PTR __imp_?CalcDirectionQuaternion@ioMath@@SAXAAUD3DXQUATERNION@@ABUD3DXVECTOR3@@@Z
  003ab	83 c4 14	 add	 esp, 20			; 00000014H

; 363  : 
; 364  : 			SetWorldOrientationAndDir( qtAngle );

  003ae	8d 85 54 ff ff
	ff		 lea	 eax, DWORD PTR _qtAngle$600578[ebp]
$LN59@CheckContr:
  003b4	50		 push	 eax
  003b5	8b cb		 mov	 ecx, ebx
  003b7	e8 00 00 00 00	 call	 ?SetWorldOrientationAndDir@ioDummyChar@@QAEXABUD3DXQUATERNION@@@Z ; ioDummyChar::SetWorldOrientationAndDir
$LN3@CheckContr:

; 365  : 		}
; 366  : 	}
; 367  : 
; 368  : 	m_fGravityAmt = 0.0f;

  003bc	0f 57 c0	 xorps	 xmm0, xmm0
  003bf	8d 45 ec	 lea	 eax, DWORD PTR _value$603027[ebp]
  003c2	50		 push	 eax
  003c3	8d 8b c0 02 00
	00		 lea	 ecx, DWORD PTR [ebx+704]
  003c9	f3 0f 11 45 ec	 movss	 DWORD PTR _value$603027[ebp], xmm0
  003ce	e8 00 00 00 00	 call	 ?EncryptValueToPool@?$CEncrypt@M@@AAEXPBD@Z ; CEncrypt<float>::EncryptValueToPool

; 369  : 
; 370  : 	D3DXVECTOR3 vCurPos = GetWorldPosition();

  003d3	8b 03		 mov	 eax, DWORD PTR [ebx]
  003d5	8b cb		 mov	 ecx, ebx
  003d7	ff 50 70	 call	 DWORD PTR [eax+112]

; 371  : 	vCurPos.y += fHeightAmt;

  003da	f3 0f 10 8d 7c
	ff ff ff	 movss	 xmm1, DWORD PTR _fHeightAmt$[ebp]
  003e2	8b f0		 mov	 esi, eax
  003e4	8d 7d d8	 lea	 edi, DWORD PTR _vCurPos$[ebp]
  003e7	a5		 movsd
  003e8	a5		 movsd
  003e9	a5		 movsd
  003ea	f3 0f 10 45 dc	 movss	 xmm0, DWORD PTR _vCurPos$[ebp+4]
  003ef	0f 5a c0	 cvtps2pd xmm0, xmm0
  003f2	0f 5a c9	 cvtps2pd xmm1, xmm1

; 372  : 	
; 373  : 	float fMoveValue = fTimePerSec * m_fMoveSpeed;

  003f5	8d 45 ec	 lea	 eax, DWORD PTR _value$603031[ebp]
  003f8	f2 0f 58 c1	 addsd	 xmm0, xmm1
  003fc	66 0f 5a c0	 cvtpd2ps xmm0, xmm0
  00400	50		 push	 eax
  00401	8d 8b d8 0b 00
	00		 lea	 ecx, DWORD PTR [ebx+3032]
  00407	f3 0f 11 45 dc	 movss	 DWORD PTR _vCurPos$[ebp+4], xmm0
  0040c	e8 00 00 00 00	 call	 ?DecryptValueToPool@?$CEncrypt@M@@QAEXPAM@Z ; CEncrypt<float>::DecryptValueToPool
  00411	f3 0f 10 45 ec	 movss	 xmm0, DWORD PTR _value$603031[ebp]
  00416	f3 0f 10 4d 08	 movss	 xmm1, DWORD PTR _fTimePerSec$[ebp]
  0041b	0f 5a c9	 cvtps2pd xmm1, xmm1
  0041e	0f 5a c0	 cvtps2pd xmm0, xmm0
  00421	f2 0f 59 c1	 mulsd	 xmm0, xmm1

; 374  : 	vCurPos += m_vAttackDir * fMoveValue;

  00425	f3 0f 10 8b 00
	0f 00 00	 movss	 xmm1, DWORD PTR [ebx+3840]
  0042d	0f 5a c9	 cvtps2pd xmm1, xmm1
  00430	66 0f 5a c0	 cvtpd2ps xmm0, xmm0
  00434	0f 57 d2	 xorps	 xmm2, xmm2
  00437	f3 0f 5a d0	 cvtss2sd xmm2, xmm0
  0043b	f2 0f 59 ca	 mulsd	 xmm1, xmm2
  0043f	f3 0f 10 93 04
	0f 00 00	 movss	 xmm2, DWORD PTR [ebx+3844]
  00447	0f 57 db	 xorps	 xmm3, xmm3
  0044a	f3 0f 5a d8	 cvtss2sd xmm3, xmm0
  0044e	0f 5a d2	 cvtps2pd xmm2, xmm2
  00451	f2 0f 59 d3	 mulsd	 xmm2, xmm3
  00455	f3 0f 10 9b 08
	0f 00 00	 movss	 xmm3, DWORD PTR [ebx+3848]
  0045d	66 0f 5a c9	 cvtpd2ps xmm1, xmm1
  00461	f3 0f 5a c0	 cvtss2sd xmm0, xmm0
  00465	f3 0f 5a c9	 cvtss2sd xmm1, xmm1
  00469	0f 5a db	 cvtps2pd xmm3, xmm3
  0046c	f2 0f 59 d8	 mulsd	 xmm3, xmm0
  00470	0f 57 c0	 xorps	 xmm0, xmm0
  00473	66 0f 5a c3	 cvtpd2ps xmm0, xmm3
  00477	f3 0f 10 5d d8	 movss	 xmm3, DWORD PTR _vCurPos$[ebp]
  0047c	0f 5a db	 cvtps2pd xmm3, xmm3
  0047f	f2 0f 58 cb	 addsd	 xmm1, xmm3
  00483	66 0f 5a c9	 cvtpd2ps xmm1, xmm1
  00487	f3 0f 11 4d d8	 movss	 DWORD PTR _vCurPos$[ebp], xmm1
  0048c	0f 57 c9	 xorps	 xmm1, xmm1
  0048f	66 0f 5a d2	 cvtpd2ps xmm2, xmm2
  00493	f3 0f 5a ca	 cvtss2sd xmm1, xmm2
  00497	f3 0f 10 55 dc	 movss	 xmm2, DWORD PTR _vCurPos$[ebp+4]
  0049c	0f 5a d2	 cvtps2pd xmm2, xmm2
  0049f	f2 0f 58 ca	 addsd	 xmm1, xmm2
  004a3	66 0f 5a c9	 cvtpd2ps xmm1, xmm1
  004a7	f3 0f 11 4d dc	 movss	 DWORD PTR _vCurPos$[ebp+4], xmm1
  004ac	f3 0f 10 4d e0	 movss	 xmm1, DWORD PTR _vCurPos$[ebp+8]
  004b1	0f 5a c0	 cvtps2pd xmm0, xmm0
  004b4	0f 5a c9	 cvtps2pd xmm1, xmm1
  004b7	f2 0f 58 c8	 addsd	 xmm1, xmm0
  004bb	0f 57 c0	 xorps	 xmm0, xmm0
  004be	66 0f 5a c1	 cvtpd2ps xmm0, xmm1

; 375  : 
; 376  : 	ioOrientBox kBox = GetWorldCollisionBox();

  004c2	8b cb		 mov	 ecx, ebx
  004c4	f3 0f 11 45 e0	 movss	 DWORD PTR _vCurPos$[ebp+8], xmm0
  004c9	e8 00 00 00 00	 call	 ?GetWorldCollisionBox@ioGameEntity@@QBEABVioOrientBox@@XZ ; ioGameEntity::GetWorldCollisionBox
  004ce	6a 11		 push	 17			; 00000011H
  004d0	59		 pop	 ecx
  004d1	8b f0		 mov	 esi, eax
  004d3	8d 7d 88	 lea	 edi, DWORD PTR _kBox$[ebp]
  004d6	f3 a5		 rep movsd

; 377  : 	float fDownHeight = vCurPos.y - kBox.GetExtents(1);

  004d8	f3 0f 10 45 dc	 movss	 xmm0, DWORD PTR _vCurPos$[ebp+4]
  004dd	83 65 fc 00	 and	 DWORD PTR __$EHRec$[ebp+8], 0
  004e1	0f 5a c0	 cvtps2pd xmm0, xmm0
  004e4	f2 0f 11 45 e8	 movsd	 QWORD PTR tv768[ebp], xmm0
  004e9	6a 01		 push	 1
  004eb	8d 4d 88	 lea	 ecx, DWORD PTR _kBox$[ebp]
  004ee	ff 15 00 00 00
	00		 call	 DWORD PTR __imp_?GetExtents@ioOrientBox@@QBEMH@Z
  004f4	dc 6d e8	 fsubr	 QWORD PTR tv768[ebp]
  004f7	d9 5d ec	 fstp	 DWORD PTR _fDownHeight$[ebp]

; 378  : 	if( fDownHeight < fMapHeight )

  004fa	d9 45 ec	 fld	 DWORD PTR _fDownHeight$[ebp]
  004fd	d9 85 78 ff ff
	ff		 fld	 DWORD PTR _fMapHeight$[ebp]
  00503	df f1		 fcomip	 ST(1)
  00505	dd d8		 fstp	 ST(0)
  00507	76 14		 jbe	 SHORT $LN1@CheckContr

; 379  : 	{
; 380  : 		vCurPos.y = fMapHeight + kBox.GetExtents(1);

  00509	6a 01		 push	 1
  0050b	8d 4d 88	 lea	 ecx, DWORD PTR _kBox$[ebp]
  0050e	ff 15 00 00 00
	00		 call	 DWORD PTR __imp_?GetExtents@ioOrientBox@@QBEMH@Z
  00514	d8 85 78 ff ff
	ff		 fadd	 DWORD PTR _fMapHeight$[ebp]
  0051a	d9 5d dc	 fstp	 DWORD PTR _vCurPos$[ebp+4]
$LN1@CheckContr:

; 381  : 	}
; 382  : 
; 383  : 	pStage->CheckFlyMapLimit( &vCurPos );

  0051d	8b 8d 74 ff ff
	ff		 mov	 ecx, DWORD PTR _pStage$[ebp]
  00523	8d 45 d8	 lea	 eax, DWORD PTR _vCurPos$[ebp]
  00526	50		 push	 eax
  00527	e8 00 00 00 00	 call	 ?CheckFlyMapLimit@ioPlayStage@@QAEXPAUD3DXVECTOR3@@@Z ; ioPlayStage::CheckFlyMapLimit

; 384  : 	pStage->CheckAxisLimit( &vCurPos );

  0052c	8b 8d 74 ff ff
	ff		 mov	 ecx, DWORD PTR _pStage$[ebp]
  00532	8d 45 d8	 lea	 eax, DWORD PTR _vCurPos$[ebp]
  00535	50		 push	 eax
  00536	e8 00 00 00 00	 call	 ?CheckAxisLimit@ioPlayStage@@QAE_NPAUD3DXVECTOR3@@@Z ; ioPlayStage::CheckAxisLimit

; 385  : 	SetWorldPosition( vCurPos );

  0053b	8b 03		 mov	 eax, DWORD PTR [ebx]
  0053d	8d 4d d8	 lea	 ecx, DWORD PTR _vCurPos$[ebp]
  00540	51		 push	 ecx
  00541	8b cb		 mov	 ecx, ebx
  00543	ff 50 44	 call	 DWORD PTR [eax+68]

; 386  : }

  00546	83 4d fc ff	 or	 DWORD PTR __$EHRec$[ebp+8], -1
  0054a	8d 4d 88	 lea	 ecx, DWORD PTR _kBox$[ebp]
  0054d	ff 15 00 00 00
	00		 call	 DWORD PTR __imp_??1ioOrientBox@@QAE@XZ
$LN12@CheckContr:
  00553	e8 00 00 00 00	 call	 __EH_epilog3_GS
  00558	c2 04 00	 ret	 4
_TEXT	ENDS
;	COMDAT text$x
text$x	SEGMENT
__unwindfunclet$?CheckControlMove@ioOwnerControlDummy2@@IAEXM@Z$0:
  00000	8d 4d 88	 lea	 ecx, DWORD PTR _kBox$[ebp]
  00003	ff 25 00 00 00
	00		 jmp	 DWORD PTR __imp_??1ioOrientBox@@QAE@XZ
__ehhandler$?CheckControlMove@ioOwnerControlDummy2@@IAEXM@Z:
  00009	8b 54 24 08	 mov	 edx, DWORD PTR [esp+8]
  0000d	8d 42 0c	 lea	 eax, DWORD PTR [edx+12]
  00010	8b 8a 40 ff ff
	ff		 mov	 ecx, DWORD PTR [edx-192]
  00016	33 c8		 xor	 ecx, eax
  00018	e8 00 00 00 00	 call	 @__security_check_cookie@4
  0001d	8b 4a fc	 mov	 ecx, DWORD PTR [edx-4]
  00020	33 c8		 xor	 ecx, eax
  00022	e8 00 00 00 00	 call	 @__security_check_cookie@4
  00027	b8 00 00 00 00	 mov	 eax, OFFSET __ehfuncinfo$?CheckControlMove@ioOwnerControlDummy2@@IAEXM@Z
  0002c	e9 00 00 00 00	 jmp	 ___CxxFrameHandler3
text$x	ENDS
?CheckControlMove@ioOwnerControlDummy2@@IAEXM@Z ENDP	; ioOwnerControlDummy2::CheckControlMove
; Function compile flags: /Ogsp
; File d:\lost saga for developer\youtube\tutorial\source\src\lsclient\ioplayentity.h
;	COMDAT ?SetTeam@ioPlayEntity@@UAEXW4TeamType@@@Z
_TEXT	SEGMENT
_value$603076 = 8					; size = 4
_eType$ = 8						; size = 4
?SetTeam@ioPlayEntity@@UAEXW4TeamType@@@Z PROC		; ioPlayEntity::SetTeam, COMDAT
; _this$ = ecx

; 106  : 	virtual void SetTeam( TeamType eType ) { m_TeamType = eType; }

  00000	55		 push	 ebp
  00001	8b ec		 mov	 ebp, esp
  00003	8b 45 08	 mov	 eax, DWORD PTR _eType$[ebp]
  00006	89 45 08	 mov	 DWORD PTR _value$603076[ebp], eax
  00009	8d 45 08	 lea	 eax, DWORD PTR _value$603076[ebp]
  0000c	50		 push	 eax
  0000d	81 c1 90 00 00
	00		 add	 ecx, 144		; 00000090H
  00013	e8 00 00 00 00	 call	 ?EncryptValueToPool@?$CEncrypt@W4TeamType@@@@AAEXPBD@Z ; CEncrypt<enum TeamType>::EncryptValueToPool
  00018	5d		 pop	 ebp
  00019	c2 04 00	 ret	 4
?SetTeam@ioPlayEntity@@UAEXW4TeamType@@@Z ENDP		; ioPlayEntity::SetTeam
_TEXT	ENDS
PUBLIC	?GetSubSkillType@ioSkill@@QBEHXZ		; ioSkill::GetSubSkillType
; Function compile flags: /Ogsp
; File d:\lost saga for developer\youtube\tutorial\source\src\lsclient\ioskill.h
;	COMDAT ?GetSubSkillType@ioSkill@@QBEHXZ
_TEXT	SEGMENT
_value$603081 = -4					; size = 4
?GetSubSkillType@ioSkill@@QBEHXZ PROC			; ioSkill::GetSubSkillType, COMDAT
; _this$ = ecx

; 399  : 	inline int GetSubSkillType() const { return m_iSubSkillType; }

  00000	55		 push	 ebp
  00001	8b ec		 mov	 ebp, esp
  00003	51		 push	 ecx
  00004	8d 45 fc	 lea	 eax, DWORD PTR _value$603081[ebp]
  00007	50		 push	 eax
  00008	81 c1 20 03 00
	00		 add	 ecx, 800		; 00000320H
  0000e	e8 00 00 00 00	 call	 ?DecryptValueToPool@?$CEncrypt@H@@QAEXPAH@Z ; CEncrypt<int>::DecryptValueToPool
  00013	8b 45 fc	 mov	 eax, DWORD PTR _value$603081[ebp]
  00016	c9		 leave
  00017	c3		 ret	 0
?GetSubSkillType@ioSkill@@QBEHXZ ENDP			; ioSkill::GetSubSkillType
_TEXT	ENDS
PUBLIC	??_R0?AVioControlDummySkill@@@8			; ioControlDummySkill `RTTI Type Descriptor'
PUBLIC	?ToControlDummySkill@@YAPAVioControlDummySkill@@PAVioSkill@@@Z ; ToControlDummySkill
;	COMDAT ??_R0?AVioControlDummySkill@@@8
; File d:\lost saga for developer\youtube\tutorial\source\src\lsclient\encryptvalue.h
_DATA	SEGMENT
??_R0?AVioControlDummySkill@@@8 DD FLAT:??_7type_info@@6B@ ; ioControlDummySkill `RTTI Type Descriptor'
	DD	00H
	DB	'.?AVioControlDummySkill@@', 00H
; Function compile flags: /Ogsp
; File d:\lost saga for developer\youtube\tutorial\source\src\lsclient\iocontroldummyskill.h
_DATA	ENDS
;	COMDAT ?ToControlDummySkill@@YAPAVioControlDummySkill@@PAVioSkill@@@Z
_TEXT	SEGMENT
_value$603095 = -4					; size = 4
_pSkill$ = 8						; size = 4
?ToControlDummySkill@@YAPAVioControlDummySkill@@PAVioSkill@@@Z PROC ; ToControlDummySkill, COMDAT

; 113  : {

  00000	55		 push	 ebp
  00001	8b ec		 mov	 ebp, esp
  00003	51		 push	 ecx
  00004	56		 push	 esi

; 114  : 	ioAttackSkill *pAttack = ToAttackSkill( pSkill );

  00005	ff 75 08	 push	 DWORD PTR _pSkill$[ebp]
  00008	e8 00 00 00 00	 call	 ?ToAttackSkill@@YAPAVioAttackSkill@@PAVioSkill@@@Z ; ToAttackSkill
  0000d	8b f0		 mov	 esi, eax
  0000f	59		 pop	 ecx

; 115  : 	if( !pAttack || pAttack->GetSubSkillType() != AST_CONTROL_DUMMY )

  00010	85 f6		 test	 esi, esi
  00012	74 2e		 je	 SHORT $LN1@ToControlD
  00014	8d 45 fc	 lea	 eax, DWORD PTR _value$603095[ebp]
  00017	50		 push	 eax
  00018	8d 8e 20 03 00
	00		 lea	 ecx, DWORD PTR [esi+800]
  0001e	e8 00 00 00 00	 call	 ?DecryptValueToPool@?$CEncrypt@H@@QAEXPAH@Z ; CEncrypt<int>::DecryptValueToPool
  00023	83 7d fc 24	 cmp	 DWORD PTR _value$603095[ebp], 36 ; 00000024H
  00027	75 19		 jne	 SHORT $LN1@ToControlD

; 117  : 
; 118  : 	return dynamic_cast< ioControlDummySkill* >(pAttack);

  00029	6a 00		 push	 0
  0002b	68 00 00 00 00	 push	 OFFSET ??_R0?AVioControlDummySkill@@@8
  00030	68 00 00 00 00	 push	 OFFSET ??_R0?AVioAttackSkill@@@8
  00035	6a 00		 push	 0
  00037	56		 push	 esi
  00038	e8 00 00 00 00	 call	 ___RTDynamicCast
  0003d	83 c4 14	 add	 esp, 20			; 00000014H
  00040	eb 02		 jmp	 SHORT $LN3@ToControlD
$LN1@ToControlD:

; 116  : 		return NULL;

  00042	33 c0		 xor	 eax, eax
$LN3@ToControlD:
  00044	5e		 pop	 esi

; 119  : }

  00045	c9		 leave
  00046	c3		 ret	 0
?ToControlDummySkill@@YAPAVioControlDummySkill@@PAVioSkill@@@Z ENDP ; ToControlDummySkill
_TEXT	ENDS
PUBLIC	??_R0?AVioControlDummySkill2@@@8		; ioControlDummySkill2 `RTTI Type Descriptor'
PUBLIC	?ToControlDummySkill2@@YAPAVioControlDummySkill2@@PAVioSkill@@@Z ; ToControlDummySkill2
;	COMDAT ??_R0?AVioControlDummySkill2@@@8
; File d:\lost saga for developer\youtube\tutorial\source\src\lsclient\encryptvalue.h
_DATA	SEGMENT
??_R0?AVioControlDummySkill2@@@8 DD FLAT:??_7type_info@@6B@ ; ioControlDummySkill2 `RTTI Type Descriptor'
	DD	00H
	DB	'.?AVioControlDummySkill2@@', 00H
; Function compile flags: /Ogsp
; File d:\lost saga for developer\youtube\tutorial\source\src\lsclient\iocontroldummyskill2.h
_DATA	ENDS
;	COMDAT ?ToControlDummySkill2@@YAPAVioControlDummySkill2@@PAVioSkill@@@Z
_TEXT	SEGMENT
_value$603109 = -4					; size = 4
_pSkill$ = 8						; size = 4
?ToControlDummySkill2@@YAPAVioControlDummySkill2@@PAVioSkill@@@Z PROC ; ToControlDummySkill2, COMDAT

; 87   : {

  00000	55		 push	 ebp
  00001	8b ec		 mov	 ebp, esp
  00003	51		 push	 ecx
  00004	56		 push	 esi

; 88   : 	ioAttackSkill *pAttack = ToAttackSkill( pSkill );

  00005	ff 75 08	 push	 DWORD PTR _pSkill$[ebp]
  00008	e8 00 00 00 00	 call	 ?ToAttackSkill@@YAPAVioAttackSkill@@PAVioSkill@@@Z ; ToAttackSkill
  0000d	8b f0		 mov	 esi, eax
  0000f	59		 pop	 ecx

; 89   : 	if( !pAttack || pAttack->GetSubSkillType() != AST_CONTROL_DUMMY2 )

  00010	85 f6		 test	 esi, esi
  00012	74 2e		 je	 SHORT $LN1@ToControlD@2
  00014	8d 45 fc	 lea	 eax, DWORD PTR _value$603109[ebp]
  00017	50		 push	 eax
  00018	8d 8e 20 03 00
	00		 lea	 ecx, DWORD PTR [esi+800]
  0001e	e8 00 00 00 00	 call	 ?DecryptValueToPool@?$CEncrypt@H@@QAEXPAH@Z ; CEncrypt<int>::DecryptValueToPool
  00023	83 7d fc 5c	 cmp	 DWORD PTR _value$603109[ebp], 92 ; 0000005cH
  00027	75 19		 jne	 SHORT $LN1@ToControlD@2

; 91   : 
; 92   : 	return dynamic_cast< ioControlDummySkill2* >(pAttack);

  00029	6a 00		 push	 0
  0002b	68 00 00 00 00	 push	 OFFSET ??_R0?AVioControlDummySkill2@@@8
  00030	68 00 00 00 00	 push	 OFFSET ??_R0?AVioAttackSkill@@@8
  00035	6a 00		 push	 0
  00037	56		 push	 esi
  00038	e8 00 00 00 00	 call	 ___RTDynamicCast
  0003d	83 c4 14	 add	 esp, 20			; 00000014H
  00040	eb 02		 jmp	 SHORT $LN3@ToControlD@2
$LN1@ToControlD@2:

; 90   : 		return NULL;

  00042	33 c0		 xor	 eax, eax
$LN3@ToControlD@2:
  00044	5e		 pop	 esi

; 93   : }

  00045	c9		 leave
  00046	c3		 ret	 0
?ToControlDummySkill2@@YAPAVioControlDummySkill2@@PAVioSkill@@@Z ENDP ; ToControlDummySkill2
_TEXT	ENDS
PUBLIC	??_R0?AVioControlDummySkill3@@@8		; ioControlDummySkill3 `RTTI Type Descriptor'
PUBLIC	?ToControlDummySkill3@@YAPAVioControlDummySkill3@@PAVioSkill@@@Z ; ToControlDummySkill3
;	COMDAT ??_R0?AVioControlDummySkill3@@@8
; File d:\lost saga for developer\youtube\tutorial\source\src\lsclient\encryptvalue.h
_DATA	SEGMENT
??_R0?AVioControlDummySkill3@@@8 DD FLAT:??_7type_info@@6B@ ; ioControlDummySkill3 `RTTI Type Descriptor'
	DD	00H
	DB	'.?AVioControlDummySkill3@@', 00H
; Function compile flags: /Ogsp
; File d:\lost saga for developer\youtube\tutorial\source\src\lsclient\iocontroldummyskill3.h
_DATA	ENDS
;	COMDAT ?ToControlDummySkill3@@YAPAVioControlDummySkill3@@PAVioSkill@@@Z
_TEXT	SEGMENT
_value$603123 = -4					; size = 4
_pSkill$ = 8						; size = 4
?ToControlDummySkill3@@YAPAVioControlDummySkill3@@PAVioSkill@@@Z PROC ; ToControlDummySkill3, COMDAT

; 144  : {

  00000	55		 push	 ebp
  00001	8b ec		 mov	 ebp, esp
  00003	51		 push	 ecx
  00004	56		 push	 esi

; 145  : 	ioAttackSkill *pAttack = ToAttackSkill( pSkill );

  00005	ff 75 08	 push	 DWORD PTR _pSkill$[ebp]
  00008	e8 00 00 00 00	 call	 ?ToAttackSkill@@YAPAVioAttackSkill@@PAVioSkill@@@Z ; ToAttackSkill
  0000d	8b f0		 mov	 esi, eax
  0000f	59		 pop	 ecx

; 146  : 	if( !pAttack || pAttack->GetSubSkillType() != AST_CONTROL_DUMMY3 )

  00010	85 f6		 test	 esi, esi
  00012	74 31		 je	 SHORT $LN1@ToControlD@3
  00014	8d 45 fc	 lea	 eax, DWORD PTR _value$603123[ebp]
  00017	50		 push	 eax
  00018	8d 8e 20 03 00
	00		 lea	 ecx, DWORD PTR [esi+800]
  0001e	e8 00 00 00 00	 call	 ?DecryptValueToPool@?$CEncrypt@H@@QAEXPAH@Z ; CEncrypt<int>::DecryptValueToPool
  00023	81 7d fc 9e 00
	00 00		 cmp	 DWORD PTR _value$603123[ebp], 158 ; 0000009eH
  0002a	75 19		 jne	 SHORT $LN1@ToControlD@3

; 148  : 
; 149  : 	return dynamic_cast< ioControlDummySkill3* >( pAttack );

  0002c	6a 00		 push	 0
  0002e	68 00 00 00 00	 push	 OFFSET ??_R0?AVioControlDummySkill3@@@8
  00033	68 00 00 00 00	 push	 OFFSET ??_R0?AVioAttackSkill@@@8
  00038	6a 00		 push	 0
  0003a	56		 push	 esi
  0003b	e8 00 00 00 00	 call	 ___RTDynamicCast
  00040	83 c4 14	 add	 esp, 20			; 00000014H
  00043	eb 02		 jmp	 SHORT $LN3@ToControlD@3
$LN1@ToControlD@3:

; 147  : 		return NULL;

  00045	33 c0		 xor	 eax, eax
$LN3@ToControlD@3:
  00047	5e		 pop	 esi

; 150  : }

  00048	c9		 leave
  00049	c3		 ret	 0
?ToControlDummySkill3@@YAPAVioControlDummySkill3@@PAVioSkill@@@Z ENDP ; ToControlDummySkill3
_TEXT	ENDS
PUBLIC	?SetLostControl@ioOwnerControlDummy2@@QAEXXZ	; ioOwnerControlDummy2::SetLostControl
EXTRN	?SetSkillEndState@ioControlDummySkill3@@QAEXPAVioBaseChar@@PAVioPlayStage@@@Z:PROC ; ioControlDummySkill3::SetSkillEndState
EXTRN	?SetSkillEndState@ioControlDummySkill2@@QAEXPAVioBaseChar@@@Z:PROC ; ioControlDummySkill2::SetSkillEndState
EXTRN	?SetSkillEndState@ioControlDummySkill@@QAEXPAVioBaseChar@@@Z:PROC ; ioControlDummySkill::SetSkillEndState
EXTRN	?GetEquipedSkill@ioEquipSlot@@QAEPAVioSkill@@ABVioHashString@@@Z:PROC ; ioEquipSlot::GetEquipedSkill
; Function compile flags: /Ogsp
; File d:\lost saga for developer\youtube\tutorial\source\src\lsclient\ioownercontroldummy2.cpp
;	COMDAT ?SetLostControl@ioOwnerControlDummy2@@QAEXXZ
_TEXT	SEGMENT
?SetLostControl@ioOwnerControlDummy2@@QAEXXZ PROC	; ioOwnerControlDummy2::SetLostControl, COMDAT
; _this$ = ecx

; 145  : {

  00000	53		 push	 ebx
  00001	56		 push	 esi
  00002	8b f1		 mov	 esi, ecx

; 146  : 	m_OwnerControlState = OCS_LOST_CONTROL;

  00004	c7 86 e4 14 00
	00 01 00 00 00	 mov	 DWORD PTR [esi+5348], 1

; 147  : 	m_dwLostControlTime = FRAMEGETTIME();

  0000e	ff 15 00 00 00
	00		 call	 DWORD PTR __imp_?GetSingleton@ioFrameTimer@@SAAAV1@XZ
  00014	8b c8		 mov	 ecx, eax
  00016	ff 15 00 00 00
	00		 call	 DWORD PTR __imp_?GetLoopSec@ioFrameTimer@@QBEKXZ

; 148  : 
; 149  : 	ioBaseChar *pOwner = GetOwner();

  0001c	8b ce		 mov	 ecx, esi
  0001e	89 86 b0 14 00
	00		 mov	 DWORD PTR [esi+5296], eax
  00024	e8 00 00 00 00	 call	 ?GetOwner@ioDummyChar@@QBEPAVioBaseChar@@XZ ; ioDummyChar::GetOwner
  00029	8b d8		 mov	 ebx, eax

; 150  : 	if( pOwner )

  0002b	85 db		 test	 ebx, ebx
  0002d	74 69		 je	 SHORT $LN1@SetLostCon

; 151  : 	{
; 152  : 		ioEquipSlot *pSlot = pOwner->GetEquipSlot();

  0002f	57		 push	 edi
  00030	8b bb 48 03 00
	00		 mov	 edi, DWORD PTR [ebx+840]

; 153  : 		if( pSlot )

  00036	85 ff		 test	 edi, edi
  00038	74 5d		 je	 SHORT $LN12@SetLostCon

; 154  : 		{
; 155  : 			ioControlDummySkill *pSkill1 = ToControlDummySkill( pSlot->GetEquipedSkill( m_ControlSkillName ) );

  0003a	81 c6 98 0d 00
	00		 add	 esi, 3480		; 00000d98H
  00040	56		 push	 esi
  00041	8b cf		 mov	 ecx, edi
  00043	e8 00 00 00 00	 call	 ?GetEquipedSkill@ioEquipSlot@@QAEPAVioSkill@@ABVioHashString@@@Z ; ioEquipSlot::GetEquipedSkill
  00048	50		 push	 eax
  00049	e8 00 00 00 00	 call	 ?ToControlDummySkill@@YAPAVioControlDummySkill@@PAVioSkill@@@Z ; ToControlDummySkill
  0004e	59		 pop	 ecx

; 156  : 			if( pSkill1 )

  0004f	85 c0		 test	 eax, eax
  00051	74 08		 je	 SHORT $LN3@SetLostCon

; 157  : 			{
; 158  : 				pSkill1->SetSkillEndState( pOwner );

  00053	53		 push	 ebx
  00054	8b c8		 mov	 ecx, eax
  00056	e8 00 00 00 00	 call	 ?SetSkillEndState@ioControlDummySkill@@QAEXPAVioBaseChar@@@Z ; ioControlDummySkill::SetSkillEndState
$LN3@SetLostCon:

; 159  : 			}
; 160  : 			ioControlDummySkill2 *pSkill2 = ToControlDummySkill2( pSlot->GetEquipedSkill( m_ControlSkillName ) );

  0005b	56		 push	 esi
  0005c	8b cf		 mov	 ecx, edi
  0005e	e8 00 00 00 00	 call	 ?GetEquipedSkill@ioEquipSlot@@QAEPAVioSkill@@ABVioHashString@@@Z ; ioEquipSlot::GetEquipedSkill
  00063	50		 push	 eax
  00064	e8 00 00 00 00	 call	 ?ToControlDummySkill2@@YAPAVioControlDummySkill2@@PAVioSkill@@@Z ; ToControlDummySkill2
  00069	59		 pop	 ecx

; 161  : 			if( pSkill2 )

  0006a	85 c0		 test	 eax, eax
  0006c	74 08		 je	 SHORT $LN2@SetLostCon

; 162  : 			{
; 163  : 				pSkill2->SetSkillEndState( pOwner );

  0006e	53		 push	 ebx
  0006f	8b c8		 mov	 ecx, eax
  00071	e8 00 00 00 00	 call	 ?SetSkillEndState@ioControlDummySkill2@@QAEXPAVioBaseChar@@@Z ; ioControlDummySkill2::SetSkillEndState
$LN2@SetLostCon:

; 164  : 			}
; 165  : 			ioControlDummySkill3 *pSkill3 = ToControlDummySkill3( pSlot->GetEquipedSkill( m_ControlSkillName ) );

  00076	56		 push	 esi
  00077	8b cf		 mov	 ecx, edi
  00079	e8 00 00 00 00	 call	 ?GetEquipedSkill@ioEquipSlot@@QAEPAVioSkill@@ABVioHashString@@@Z ; ioEquipSlot::GetEquipedSkill
  0007e	50		 push	 eax
  0007f	e8 00 00 00 00	 call	 ?ToControlDummySkill3@@YAPAVioControlDummySkill3@@PAVioSkill@@@Z ; ToControlDummySkill3
  00084	59		 pop	 ecx

; 166  : 			if( pSkill3 )

  00085	85 c0		 test	 eax, eax
  00087	74 0e		 je	 SHORT $LN12@SetLostCon

; 167  : 			{
; 168  : 				pSkill3->SetSkillEndState( pOwner, pOwner->GetCreator() );

  00089	ff b3 44 03 00
	00		 push	 DWORD PTR [ebx+836]
  0008f	8b c8		 mov	 ecx, eax
  00091	53		 push	 ebx
  00092	e8 00 00 00 00	 call	 ?SetSkillEndState@ioControlDummySkill3@@QAEXPAVioBaseChar@@PAVioPlayStage@@@Z ; ioControlDummySkill3::SetSkillEndState
$LN12@SetLostCon:
  00097	5f		 pop	 edi
$LN1@SetLostCon:
  00098	5e		 pop	 esi
  00099	5b		 pop	 ebx

; 169  : 			}
; 170  : 		}
; 171  : 	}
; 172  : }

  0009a	c3		 ret	 0
?SetLostControl@ioOwnerControlDummy2@@QAEXXZ ENDP	; ioOwnerControlDummy2::SetLostControl
_TEXT	ENDS
EXTRN	?ApplyDummyCharSyncByType@ioDummyChar@@IAEXHAAVSP2Packet@@PAVioPlayStage@@@Z:PROC ; ioDummyChar::ApplyDummyCharSyncByType
EXTRN	??5SP2Packet@@QAEAAV0@AAH@Z:PROC		; SP2Packet::operator>>
; Function compile flags: /Ogsp
;	COMDAT ?ApplyDummyCharSync@ioOwnerControlDummy2@@UAEXPAVioPlayStage@@AAVSP2Packet@@@Z
_TEXT	SEGMENT
_iType$ = -4						; size = 4
_pStage$ = 8						; size = 4
_rkPacket$ = 12						; size = 4
?ApplyDummyCharSync@ioOwnerControlDummy2@@UAEXPAVioPlayStage@@AAVSP2Packet@@@Z PROC ; ioOwnerControlDummy2::ApplyDummyCharSync, COMDAT
; _this$ = ecx

; 175  : {

  00000	55		 push	 ebp
  00001	8b ec		 mov	 ebp, esp
  00003	51		 push	 ecx

; 176  : 	if( !pStage ) return;

  00004	83 7d 08 00	 cmp	 DWORD PTR _pStage$[ebp], 0
  00008	56		 push	 esi
  00009	8b f1		 mov	 esi, ecx
  0000b	74 2c		 je	 SHORT $LN3@ApplyDummy

; 177  : 
; 178  : 	int iType;
; 179  : 	rkPacket >> iType;

  0000d	8b 4d 0c	 mov	 ecx, DWORD PTR _rkPacket$[ebp]
  00010	8d 45 fc	 lea	 eax, DWORD PTR _iType$[ebp]
  00013	50		 push	 eax
  00014	e8 00 00 00 00	 call	 ??5SP2Packet@@QAEAAV0@AAH@Z ; SP2Packet::operator>>

; 180  : 
; 181  : 	switch( iType )

  00019	81 7d fc e8 03
	00 00		 cmp	 DWORD PTR _iType$[ebp], 1000 ; 000003e8H

; 185  : 		break;
; 186  : 	default:
; 187  : 		ioDummyChar::ApplyDummyCharSyncByType( iType, rkPacket, pStage );

  00020	8b ce		 mov	 ecx, esi
  00022	74 10		 je	 SHORT $LN2@ApplyDummy
  00024	ff 75 08	 push	 DWORD PTR _pStage$[ebp]
  00027	ff 75 0c	 push	 DWORD PTR _rkPacket$[ebp]
  0002a	ff 75 fc	 push	 DWORD PTR _iType$[ebp]
  0002d	e8 00 00 00 00	 call	 ?ApplyDummyCharSyncByType@ioDummyChar@@IAEXHAAVSP2Packet@@PAVioPlayStage@@@Z ; ioDummyChar::ApplyDummyCharSyncByType
  00032	eb 05		 jmp	 SHORT $LN3@ApplyDummy
$LN2@ApplyDummy:

; 182  : 	{
; 183  : 	case SYNC_ATTACK_KEY:
; 184  : 		SetLostControl();

  00034	e8 00 00 00 00	 call	 ?SetLostControl@ioOwnerControlDummy2@@QAEXXZ ; ioOwnerControlDummy2::SetLostControl
$LN3@ApplyDummy:
  00039	5e		 pop	 esi

; 188  : 	}
; 189  : }

  0003a	c9		 leave
  0003b	c2 08 00	 ret	 8
?ApplyDummyCharSync@ioOwnerControlDummy2@@UAEXPAVioPlayStage@@AAVSP2Packet@@@Z ENDP ; ioOwnerControlDummy2::ApplyDummyCharSync
_TEXT	ENDS
PUBLIC	__$ArrayPad$
PUBLIC	?CheckAttackKeyControl@ioOwnerControlDummy2@@IAEXXZ ; ioOwnerControlDummy2::CheckAttackKeyControl
EXTRN	?IsAttackKey@ioBaseChar@@QBE_NXZ:PROC		; ioBaseChar::IsAttackKey
;	COMDAT xdata$x
xdata$x	SEGMENT
__unwindtable$?CheckAttackKeyControl@ioOwnerControlDummy2@@IAEXXZ DD 0ffffffffH
	DD	FLAT:__unwindfunclet$?CheckAttackKeyControl@ioOwnerControlDummy2@@IAEXXZ$0
__ehfuncinfo$?CheckAttackKeyControl@ioOwnerControlDummy2@@IAEXXZ DD 019930522H
	DD	01H
	DD	FLAT:__unwindtable$?CheckAttackKeyControl@ioOwnerControlDummy2@@IAEXXZ
	DD	2 DUP(00H)
	DD	2 DUP(00H)
	DD	00H
	DD	01H
; Function compile flags: /Ogsp
xdata$x	ENDS
;	COMDAT ?CheckAttackKeyControl@ioOwnerControlDummy2@@IAEXXZ
_TEXT	SEGMENT
_kPacket$600516 = -32808				; size = 32792
__$ArrayPad$ = -16					; size = 4
__$EHRec$ = -12						; size = 12
?CheckAttackKeyControl@ioOwnerControlDummy2@@IAEXXZ PROC ; ioOwnerControlDummy2::CheckAttackKeyControl, COMDAT
; _this$ = ecx

; 192  : {

  00000	55		 push	 ebp
  00001	8b ec		 mov	 ebp, esp
  00003	6a ff		 push	 -1
  00005	68 00 00 00 00	 push	 __ehhandler$?CheckAttackKeyControl@ioOwnerControlDummy2@@IAEXXZ
  0000a	64 a1 00 00 00
	00		 mov	 eax, DWORD PTR fs:0
  00010	50		 push	 eax
  00011	b8 1c 80 00 00	 mov	 eax, 32796		; 0000801cH
  00016	e8 00 00 00 00	 call	 __chkstk
  0001b	a1 00 00 00 00	 mov	 eax, DWORD PTR ___security_cookie
  00020	33 c5		 xor	 eax, ebp
  00022	89 45 f0	 mov	 DWORD PTR __$ArrayPad$[ebp], eax
  00025	56		 push	 esi
  00026	57		 push	 edi
  00027	50		 push	 eax
  00028	8d 45 f4	 lea	 eax, DWORD PTR __$EHRec$[ebp]
  0002b	64 a3 00 00 00
	00		 mov	 DWORD PTR fs:0, eax
  00031	8b f1		 mov	 esi, ecx

; 193  : 	ioBaseChar *pOwner = GetOwner();

  00033	e8 00 00 00 00	 call	 ?GetOwner@ioDummyChar@@QBEPAVioBaseChar@@XZ ; ioDummyChar::GetOwner
  00038	8b f8		 mov	 edi, eax

; 194  : 
; 195  : 	if( !pOwner )

  0003a	85 ff		 test	 edi, edi
  0003c	0f 84 a5 00 00
	00		 je	 $LN1@CheckAttac

; 196  : 		return;
; 197  : 
; 198  : 	if( !pOwner->IsNeedProcess() )

  00042	8b 07		 mov	 eax, DWORD PTR [edi]
  00044	8b cf		 mov	 ecx, edi
  00046	ff 90 00 01 00
	00		 call	 DWORD PTR [eax+256]
  0004c	84 c0		 test	 al, al
  0004e	0f 84 93 00 00
	00		 je	 $LN1@CheckAttac

; 199  : 		return;
; 200  : 	
; 201  : 	if( m_OwnerControlState == OCS_LOST_CONTROL )

  00054	83 be e4 14 00
	00 01		 cmp	 DWORD PTR [esi+5348], 1
  0005b	0f 84 86 00 00
	00		 je	 $LN1@CheckAttac

; 202  : 		return;
; 203  : 
; 204  : 	if( pOwner->IsAttackKey() )

  00061	8b cf		 mov	 ecx, edi
  00063	e8 00 00 00 00	 call	 ?IsAttackKey@ioBaseChar@@QBE_NXZ ; ioBaseChar::IsAttackKey
  00068	84 c0		 test	 al, al
  0006a	74 7b		 je	 SHORT $LN1@CheckAttac

; 205  : 	{
; 206  : 		SetLostControl();

  0006c	8b ce		 mov	 ecx, esi
  0006e	e8 00 00 00 00	 call	 ?SetLostControl@ioOwnerControlDummy2@@QAEXXZ ; ioOwnerControlDummy2::SetLostControl

; 207  : 
; 208  : 		if( pOwner->IsNeedSendNetwork() )

  00073	8b 07		 mov	 eax, DWORD PTR [edi]
  00075	8b cf		 mov	 ecx, edi
  00077	ff 90 04 01 00
	00		 call	 DWORD PTR [eax+260]
  0007d	84 c0		 test	 al, al
  0007f	74 66		 je	 SHORT $LN1@CheckAttac

; 209  : 		{
; 210  : 			SP2Packet kPacket( CUPK_DUMMY_CHAR_SYNC );

  00081	68 21 42 00 00	 push	 16929			; 00004221H
  00086	8d 8d d8 7f ff
	ff		 lea	 ecx, DWORD PTR _kPacket$600516[ebp]
  0008c	e8 00 00 00 00	 call	 ??0SP2Packet@@QAE@K@Z	; SP2Packet::SP2Packet
  00091	83 65 fc 00	 and	 DWORD PTR __$EHRec$[ebp+8], 0

; 211  : 			kPacket << m_OwnerName;

  00095	8d 86 cc 01 00
	00		 lea	 eax, DWORD PTR [esi+460]
  0009b	50		 push	 eax
  0009c	8d 8d d8 7f ff
	ff		 lea	 ecx, DWORD PTR _kPacket$600516[ebp]
  000a2	e8 00 00 00 00	 call	 ??6SP2Packet@@QAEAAV0@ABVioHashString@@@Z ; SP2Packet::operator<<

; 212  : 			kPacket << m_iCreateIndex;

  000a7	ff b6 dc 01 00
	00		 push	 DWORD PTR [esi+476]
  000ad	8d 8d d8 7f ff
	ff		 lea	 ecx, DWORD PTR _kPacket$600516[ebp]
  000b3	e8 00 00 00 00	 call	 ??6SP2Packet@@QAEAAV0@H@Z ; SP2Packet::operator<<

; 213  : 			kPacket << SYNC_ATTACK_KEY;

  000b8	68 e8 03 00 00	 push	 1000			; 000003e8H
  000bd	8d 8d d8 7f ff
	ff		 lea	 ecx, DWORD PTR _kPacket$600516[ebp]
  000c3	e8 00 00 00 00	 call	 ??6SP2Packet@@QAEAAV0@H@Z ; SP2Packet::operator<<

; 214  : 			P2PNetwork::SendToAllPlayingUser( kPacket );

  000c8	8d 85 d8 7f ff
	ff		 lea	 eax, DWORD PTR _kPacket$600516[ebp]
  000ce	6a 00		 push	 0
  000d0	50		 push	 eax
  000d1	e8 00 00 00 00	 call	 ?SendToAllPlayingUser@P2PNetwork@@YAXAAVSP2Packet@@PAVioBaseChar@@@Z ; P2PNetwork::SendToAllPlayingUser

; 215  : 		}

  000d6	83 4d fc ff	 or	 DWORD PTR __$EHRec$[ebp+8], -1
  000da	59		 pop	 ecx
  000db	59		 pop	 ecx
  000dc	8d 8d d8 7f ff
	ff		 lea	 ecx, DWORD PTR _kPacket$600516[ebp]
  000e2	e8 00 00 00 00	 call	 ??1SP2Packet@@UAE@XZ	; SP2Packet::~SP2Packet
$LN1@CheckAttac:

; 216  : 	}
; 217  : }

  000e7	8b 4d f4	 mov	 ecx, DWORD PTR __$EHRec$[ebp]
  000ea	64 89 0d 00 00
	00 00		 mov	 DWORD PTR fs:0, ecx
  000f1	59		 pop	 ecx
  000f2	5f		 pop	 edi
  000f3	5e		 pop	 esi
  000f4	8b 4d f0	 mov	 ecx, DWORD PTR __$ArrayPad$[ebp]
  000f7	33 cd		 xor	 ecx, ebp
  000f9	e8 00 00 00 00	 call	 @__security_check_cookie@4
  000fe	c9		 leave
  000ff	c3		 ret	 0
_TEXT	ENDS
;	COMDAT text$x
text$x	SEGMENT
__unwindfunclet$?CheckAttackKeyControl@ioOwnerControlDummy2@@IAEXXZ$0:
  00000	8d 8d d8 7f ff
	ff		 lea	 ecx, DWORD PTR _kPacket$600516[ebp]
  00006	e9 00 00 00 00	 jmp	 ??1SP2Packet@@UAE@XZ	; SP2Packet::~SP2Packet
__ehhandler$?CheckAttackKeyControl@ioOwnerControlDummy2@@IAEXXZ:
  0000b	8b 54 24 08	 mov	 edx, DWORD PTR [esp+8]
  0000f	8d 42 0c	 lea	 eax, DWORD PTR [edx+12]
  00012	8b 8a d8 7f ff
	ff		 mov	 ecx, DWORD PTR [edx-32808]
  00018	33 c8		 xor	 ecx, eax
  0001a	e8 00 00 00 00	 call	 @__security_check_cookie@4
  0001f	8b 4a fc	 mov	 ecx, DWORD PTR [edx-4]
  00022	33 c8		 xor	 ecx, eax
  00024	e8 00 00 00 00	 call	 @__security_check_cookie@4
  00029	b8 00 00 00 00	 mov	 eax, OFFSET __ehfuncinfo$?CheckAttackKeyControl@ioOwnerControlDummy2@@IAEXXZ
  0002e	e9 00 00 00 00	 jmp	 ___CxxFrameHandler3
text$x	ENDS
?CheckAttackKeyControl@ioOwnerControlDummy2@@IAEXXZ ENDP ; ioOwnerControlDummy2::CheckAttackKeyControl
EXTRN	?FindWeapon@ioWeaponManager@@QAEPAVioWeapon@@PAVioBaseChar@@K@Z:PROC ; ioWeaponManager::FindWeapon
EXTRN	?GetSingleton@ioWeaponManager@@SAAAV1@XZ:PROC	; ioWeaponManager::GetSingleton
; Function compile flags: /Ogsp
;	COMDAT ?ProcessMoveState@ioOwnerControlDummy2@@MAEXM@Z
_TEXT	SEGMENT
_value$603155 = 8					; size = 4
_fTimePerSec$ = 8					; size = 4
?ProcessMoveState@ioOwnerControlDummy2@@MAEXM@Z PROC	; ioOwnerControlDummy2::ProcessMoveState, COMDAT
; _this$ = ecx

; 97   : {

  00000	55		 push	 ebp
  00001	8b ec		 mov	 ebp, esp
  00003	53		 push	 ebx
  00004	56		 push	 esi
  00005	8b f1		 mov	 esi, ecx

; 98   : 	// 공격 체크
; 99   : 	CheckAttackKeyControl();

  00007	e8 00 00 00 00	 call	 ?CheckAttackKeyControl@ioOwnerControlDummy2@@IAEXXZ ; ioOwnerControlDummy2::CheckAttackKeyControl

; 100  : 	CheckKeyInputChange();

  0000c	8b ce		 mov	 ecx, esi
  0000e	e8 00 00 00 00	 call	 ?CheckKeyInputChange@ioOwnerControlDummy2@@IAEXXZ ; ioOwnerControlDummy2::CheckKeyInputChange

; 101  : 	CheckControlMove( fTimePerSec );

  00013	f3 0f 10 45 08	 movss	 xmm0, DWORD PTR _fTimePerSec$[ebp]
  00018	51		 push	 ecx
  00019	8b ce		 mov	 ecx, esi
  0001b	f3 0f 11 04 24	 movss	 DWORD PTR [esp], xmm0
  00020	e8 00 00 00 00	 call	 ?CheckControlMove@ioOwnerControlDummy2@@IAEXM@Z ; ioOwnerControlDummy2::CheckControlMove

; 102  : 
; 103  : 	if( m_dwLostControlTime > 0 && m_dwLostControlTime + m_dwLostControlMoveTime < FRAMEGETTIME() )

  00025	33 db		 xor	 ebx, ebx
  00027	39 9e b0 14 00
	00		 cmp	 DWORD PTR [esi+5296], ebx
  0002d	76 39		 jbe	 SHORT $LN5@ProcessMov
  0002f	8d 45 08	 lea	 eax, DWORD PTR _value$603155[ebp]
  00032	50		 push	 eax
  00033	8d 8e 80 14 00
	00		 lea	 ecx, DWORD PTR [esi+5248]
  00039	e8 00 00 00 00	 call	 ?DecryptValueToPool@?$CEncrypt@K@@QAEXPAK@Z ; CEncrypt<unsigned long>::DecryptValueToPool
  0003e	ff 15 00 00 00
	00		 call	 DWORD PTR __imp_?GetSingleton@ioFrameTimer@@SAAAV1@XZ
  00044	8b c8		 mov	 ecx, eax
  00046	ff 15 00 00 00
	00		 call	 DWORD PTR __imp_?GetLoopSec@ioFrameTimer@@QBEKXZ
  0004c	8b 8e b0 14 00
	00		 mov	 ecx, DWORD PTR [esi+5296]
  00052	03 4d 08	 add	 ecx, DWORD PTR _value$603155[ebp]
  00055	3b c8		 cmp	 ecx, eax
  00057	73 0f		 jae	 SHORT $LN5@ProcessMov

; 104  : 	{
; 105  : 		SetDieState( true );

  00059	8b 06		 mov	 eax, DWORD PTR [esi]
  0005b	53		 push	 ebx
  0005c	6a 01		 push	 1
  0005e	8b ce		 mov	 ecx, esi
  00060	ff 90 1c 01 00
	00		 call	 DWORD PTR [eax+284]

; 106  : 		return;

  00066	eb 4b		 jmp	 SHORT $LN2@ProcessMov
$LN5@ProcessMov:
  00068	57		 push	 edi

; 107  : 	}
; 108  : 
; 109  : 	int iCnt = m_vAttachWeaponIndexList.size();

  00069	8b be 18 11 00
	00		 mov	 edi, DWORD PTR [esi+4376]
  0006f	2b be 14 11 00
	00		 sub	 edi, DWORD PTR [esi+4372]
  00075	c1 ff 02	 sar	 edi, 2

; 110  : 	for( int i=0; i<iCnt; ++i )

  00078	85 ff		 test	 edi, edi
  0007a	7e 36		 jle	 SHORT $LN16@ProcessMov
$LL4@ProcessMov:

; 111  : 	{
; 112  : 		ioBaseChar *pOwner = GetOwner();

  0007c	8b ce		 mov	 ecx, esi
  0007e	e8 00 00 00 00	 call	 ?GetOwner@ioDummyChar@@QBEPAVioBaseChar@@XZ ; ioDummyChar::GetOwner
  00083	8b 8e 14 11 00
	00		 mov	 ecx, DWORD PTR [esi+4372]
  00089	8d 0c 99	 lea	 ecx, DWORD PTR [ecx+ebx*4]

; 113  : 		ioWeapon *pWeapon = g_WeaponMgr.FindWeapon( pOwner, m_vAttachWeaponIndexList[i] );

  0008c	ff 31		 push	 DWORD PTR [ecx]
  0008e	50		 push	 eax
  0008f	e8 00 00 00 00	 call	 ?GetSingleton@ioWeaponManager@@SAAAV1@XZ ; ioWeaponManager::GetSingleton
  00094	8b c8		 mov	 ecx, eax
  00096	e8 00 00 00 00	 call	 ?FindWeapon@ioWeaponManager@@QAEPAVioWeapon@@PAVioBaseChar@@K@Z ; ioWeaponManager::FindWeapon

; 114  : 		if( !pWeapon )

  0009b	85 c0		 test	 eax, eax
  0009d	75 0e		 jne	 SHORT $LN3@ProcessMov

; 115  : 		{
; 116  : 			SetDieState( true );

  0009f	8b 06		 mov	 eax, DWORD PTR [esi]
  000a1	6a 00		 push	 0
  000a3	6a 01		 push	 1
  000a5	8b ce		 mov	 ecx, esi
  000a7	ff 90 1c 01 00
	00		 call	 DWORD PTR [eax+284]
$LN3@ProcessMov:

; 110  : 	for( int i=0; i<iCnt; ++i )

  000ad	43		 inc	 ebx
  000ae	3b df		 cmp	 ebx, edi
  000b0	7c ca		 jl	 SHORT $LL4@ProcessMov
$LN16@ProcessMov:
  000b2	5f		 pop	 edi
$LN2@ProcessMov:
  000b3	5e		 pop	 esi
  000b4	5b		 pop	 ebx

; 117  : 		}
; 118  : 	}
; 119  : }

  000b5	5d		 pop	 ebp
  000b6	c2 04 00	 ret	 4
?ProcessMoveState@ioOwnerControlDummy2@@MAEXM@Z ENDP	; ioOwnerControlDummy2::ProcessMoveState
_TEXT	ENDS
END
