; Listing generated by Microsoft (R) Optimizing Compiler Version 16.00.30319.01 

	TITLE	D:\Lost Saga For Developer\Youtube\Tutorial\Source\src\LSClient\ioOwnerAttach5Dummy.cpp
	.686P
	.XMM
	include listing.inc
	.model	flat

INCLUDELIB MSVCRT
INCLUDELIB OLDNAMES

PUBLIC	?_EEM_DS@?$deque@UD3DXVECTOR3@@V?$allocator@UD3DXVECTOR3@@@std@@@std@@2HB ; std::deque<D3DXVECTOR3,std::allocator<D3DXVECTOR3> >::_EEM_DS
;	COMDAT ?_EEM_DS@?$deque@UD3DXVECTOR3@@V?$allocator@UD3DXVECTOR3@@@std@@@std@@2HB
CONST	SEGMENT
?_EEM_DS@?$deque@UD3DXVECTOR3@@V?$allocator@UD3DXVECTOR3@@@std@@@std@@2HB DD 01H ; std::deque<D3DXVECTOR3,std::allocator<D3DXVECTOR3> >::_EEM_DS
CONST	ENDS
PUBLIC	??MDistInfo@ioOwnerAttach5Dummy@@QBE_NABU01@@Z	; ioOwnerAttach5Dummy::DistInfo::operator<
EXTRN	__fltused:DWORD
; Function compile flags: /Ogsp
; File d:\lost saga for developer\youtube\tutorial\source\src\lsclient\ioownerattach5dummy.h
;	COMDAT ??MDistInfo@ioOwnerAttach5Dummy@@QBE_NABU01@@Z
_TEXT	SEGMENT
_rhs$ = 8						; size = 4
??MDistInfo@ioOwnerAttach5Dummy@@QBE_NABU01@@Z PROC	; ioOwnerAttach5Dummy::DistInfo::operator<, COMDAT
; _this$ = ecx

; 28   : 		{

  00000	55		 push	 ebp
  00001	8b ec		 mov	 ebp, esp

; 29   : 			return fDistSq < rhs.fDistSq;

  00003	8b 45 08	 mov	 eax, DWORD PTR _rhs$[ebp]
  00006	f3 0f 10 48 04	 movss	 xmm1, DWORD PTR [eax+4]
  0000b	f3 0f 10 41 04	 movss	 xmm0, DWORD PTR [ecx+4]
  00010	0f 5a c0	 cvtps2pd xmm0, xmm0
  00013	0f 5a c9	 cvtps2pd xmm1, xmm1
  00016	33 c0		 xor	 eax, eax
  00018	66 0f 2f c8	 comisd	 xmm1, xmm0
  0001c	76 01		 jbe	 SHORT $LN4@operator
  0001e	40		 inc	 eax
$LN4@operator:

; 30   : 		}

  0001f	5d		 pop	 ebp
  00020	c2 04 00	 ret	 4
??MDistInfo@ioOwnerAttach5Dummy@@QBE_NABU01@@Z ENDP	; ioOwnerAttach5Dummy::DistInfo::operator<
_TEXT	ENDS
PUBLIC	?return1@@YAIXZ					; return1
; Function compile flags: /Ogsp
; File d:\lost saga for developer\youtube\tutorial\source\src\lsclient\stdafx.h
;	COMDAT ?return1@@YAIXZ
_TEXT	SEGMENT
?return1@@YAIXZ PROC					; return1, COMDAT

; 17   : 	__forceinline unsigned int return1() { __asm mov eax, 1 };

  00000	b8 01 00 00 00	 mov	 eax, 1
  00005	c3		 ret	 0
?return1@@YAIXZ ENDP					; return1
_TEXT	ENDS
PUBLIC	?return5@@YAIXZ					; return5
; Function compile flags: /Ogsp
;	COMDAT ?return5@@YAIXZ
_TEXT	SEGMENT
?return5@@YAIXZ PROC					; return5, COMDAT

; 18   : 	__forceinline unsigned int return5() { __asm mov eax, 5 };

  00000	b8 05 00 00 00	 mov	 eax, 5
  00005	c3		 ret	 0
?return5@@YAIXZ ENDP					; return5
_TEXT	ENDS
PUBLIC	?return10@@YAIXZ				; return10
; Function compile flags: /Ogsp
;	COMDAT ?return10@@YAIXZ
_TEXT	SEGMENT
?return10@@YAIXZ PROC					; return10, COMDAT

; 21   : 	__forceinline unsigned int return10() { __asm mov eax, 10 };

  00000	b8 0a 00 00 00	 mov	 eax, 10			; 0000000aH
  00005	c3		 ret	 0
?return10@@YAIXZ ENDP					; return10
_TEXT	ENDS
PUBLIC	?return100@@YAIXZ				; return100
; Function compile flags: /Ogsp
;	COMDAT ?return100@@YAIXZ
_TEXT	SEGMENT
?return100@@YAIXZ PROC					; return100, COMDAT

; 25   : 	__forceinline unsigned int return100() { __asm mov eax, 100 };

  00000	b8 64 00 00 00	 mov	 eax, 100		; 00000064H
  00005	c3		 ret	 0
?return100@@YAIXZ ENDP					; return100
_TEXT	ENDS
PUBLIC	?GetState@ioBaseChar@@QBE?AW4CharState@@XZ	; ioBaseChar::GetState
; Function compile flags: /Ogsp
; File d:\lost saga for developer\youtube\tutorial\source\src\lsclient\iobasechar.h
;	COMDAT ?GetState@ioBaseChar@@QBE?AW4CharState@@XZ
_TEXT	SEGMENT
?GetState@ioBaseChar@@QBE?AW4CharState@@XZ PROC		; ioBaseChar::GetState, COMDAT
; _this$ = ecx

; 2156 : 	inline CharState GetState() const { return m_CharState; }	

  00000	8a 81 10 03 00
	00		 mov	 al, BYTE PTR [ecx+784]
  00006	c3		 ret	 0
?GetState@ioBaseChar@@QBE?AW4CharState@@XZ ENDP		; ioBaseChar::GetState
_TEXT	ENDS
PUBLIC	?GetCharName@ioBaseChar@@QBEABVioHashString@@XZ	; ioBaseChar::GetCharName
; Function compile flags: /Ogsp
;	COMDAT ?GetCharName@ioBaseChar@@QBEABVioHashString@@XZ
_TEXT	SEGMENT
?GetCharName@ioBaseChar@@QBEABVioHashString@@XZ PROC	; ioBaseChar::GetCharName, COMDAT
; _this$ = ecx

; 2594 : 	inline const ioHashString& GetCharName() const { return m_Name; }

  00000	8d 81 d4 02 00
	00		 lea	 eax, DWORD PTR [ecx+724]
  00006	c3		 ret	 0
?GetCharName@ioBaseChar@@QBEABVioHashString@@XZ ENDP	; ioBaseChar::GetCharName
_TEXT	ENDS
PUBLIC	_sqrtf
EXTRN	__CIsqrt:PROC
; Function compile flags: /Ogsp
; File c:\program files (x86)\microsoft visual studio 10.0\vc\include\math.h
;	COMDAT _sqrtf
_TEXT	SEGMENT
tv69 = 8						; size = 4
__X$ = 8						; size = 4
_sqrtf	PROC						; COMDAT

; 434  :         {return ((float)sqrt((double)_X)); }

  00000	55		 push	 ebp
  00001	8b ec		 mov	 ebp, esp
  00003	d9 45 08	 fld	 DWORD PTR __X$[ebp]
  00006	e8 00 00 00 00	 call	 __CIsqrt
  0000b	d9 5d 08	 fstp	 DWORD PTR tv69[ebp]
  0000e	d9 45 08	 fld	 DWORD PTR tv69[ebp]
  00011	5d		 pop	 ebp
  00012	c3		 ret	 0
_sqrtf	ENDP
_TEXT	ENDS
PUBLIC	??_7bad_alloc@std@@6B@				; std::bad_alloc::`vftable'
PUBLIC	??0bad_alloc@std@@QAE@PBD@Z			; std::bad_alloc::bad_alloc
PUBLIC	??_R4bad_alloc@std@@6B@				; std::bad_alloc::`RTTI Complete Object Locator'
PUBLIC	??_R0?AVbad_alloc@std@@@8			; std::bad_alloc `RTTI Type Descriptor'
PUBLIC	??_R3bad_alloc@std@@8				; std::bad_alloc::`RTTI Class Hierarchy Descriptor'
PUBLIC	??_R2bad_alloc@std@@8				; std::bad_alloc::`RTTI Base Class Array'
PUBLIC	??_R1A@?0A@EA@bad_alloc@std@@8			; std::bad_alloc::`RTTI Base Class Descriptor at (0,-1,0,64)'
PUBLIC	??_R1A@?0A@EA@exception@std@@8			; std::exception::`RTTI Base Class Descriptor at (0,-1,0,64)'
PUBLIC	??_R0?AVexception@std@@@8			; std::exception `RTTI Type Descriptor'
PUBLIC	??_R3exception@std@@8				; std::exception::`RTTI Class Hierarchy Descriptor'
PUBLIC	??_R2exception@std@@8				; std::exception::`RTTI Base Class Array'
EXTRN	__imp_??0exception@std@@QAE@ABQBD@Z:PROC
EXTRN	??_7type_info@@6B@:QWORD			; type_info::`vftable'
EXTRN	??_Ebad_alloc@std@@UAEPAXI@Z:PROC		; std::bad_alloc::`vector deleting destructor'
EXTRN	?what@exception@std@@UBEPBDXZ:PROC		; std::exception::what
;	COMDAT ??_R2exception@std@@8
; File c:\program files (x86)\microsoft visual studio 10.0\vc\include\exception
rdata$r	SEGMENT
??_R2exception@std@@8 DD FLAT:??_R1A@?0A@EA@exception@std@@8 ; std::exception::`RTTI Base Class Array'
rdata$r	ENDS
;	COMDAT ??_R3exception@std@@8
rdata$r	SEGMENT
??_R3exception@std@@8 DD 00H				; std::exception::`RTTI Class Hierarchy Descriptor'
	DD	00H
	DD	01H
	DD	FLAT:??_R2exception@std@@8
rdata$r	ENDS
;	COMDAT ??_R0?AVexception@std@@@8
_DATA	SEGMENT
??_R0?AVexception@std@@@8 DD FLAT:??_7type_info@@6B@	; std::exception `RTTI Type Descriptor'
	DD	00H
	DB	'.?AVexception@std@@', 00H
_DATA	ENDS
;	COMDAT ??_R1A@?0A@EA@exception@std@@8
rdata$r	SEGMENT
??_R1A@?0A@EA@exception@std@@8 DD FLAT:??_R0?AVexception@std@@@8 ; std::exception::`RTTI Base Class Descriptor at (0,-1,0,64)'
	DD	00H
	DD	00H
	DD	0ffffffffH
	DD	00H
	DD	040H
	DD	FLAT:??_R3exception@std@@8
rdata$r	ENDS
;	COMDAT ??_R1A@?0A@EA@bad_alloc@std@@8
rdata$r	SEGMENT
??_R1A@?0A@EA@bad_alloc@std@@8 DD FLAT:??_R0?AVbad_alloc@std@@@8 ; std::bad_alloc::`RTTI Base Class Descriptor at (0,-1,0,64)'
	DD	01H
	DD	00H
	DD	0ffffffffH
	DD	00H
	DD	040H
	DD	FLAT:??_R3bad_alloc@std@@8
rdata$r	ENDS
;	COMDAT ??_R2bad_alloc@std@@8
rdata$r	SEGMENT
??_R2bad_alloc@std@@8 DD FLAT:??_R1A@?0A@EA@bad_alloc@std@@8 ; std::bad_alloc::`RTTI Base Class Array'
	DD	FLAT:??_R1A@?0A@EA@exception@std@@8
rdata$r	ENDS
;	COMDAT ??_R3bad_alloc@std@@8
rdata$r	SEGMENT
??_R3bad_alloc@std@@8 DD 00H				; std::bad_alloc::`RTTI Class Hierarchy Descriptor'
	DD	00H
	DD	02H
	DD	FLAT:??_R2bad_alloc@std@@8
rdata$r	ENDS
;	COMDAT ??_R0?AVbad_alloc@std@@@8
_DATA	SEGMENT
??_R0?AVbad_alloc@std@@@8 DD FLAT:??_7type_info@@6B@	; std::bad_alloc `RTTI Type Descriptor'
	DD	00H
	DB	'.?AVbad_alloc@std@@', 00H
_DATA	ENDS
;	COMDAT ??_R4bad_alloc@std@@6B@
rdata$r	SEGMENT
??_R4bad_alloc@std@@6B@ DD 00H				; std::bad_alloc::`RTTI Complete Object Locator'
	DD	00H
	DD	00H
	DD	FLAT:??_R0?AVbad_alloc@std@@@8
	DD	FLAT:??_R3bad_alloc@std@@8
rdata$r	ENDS
;	COMDAT ??_7bad_alloc@std@@6B@
CONST	SEGMENT
??_7bad_alloc@std@@6B@ DD FLAT:??_R4bad_alloc@std@@6B@	; std::bad_alloc::`vftable'
	DD	FLAT:??_Ebad_alloc@std@@UAEPAXI@Z
	DD	FLAT:?what@exception@std@@UBEPBDXZ
; Function compile flags: /Ogsp
CONST	ENDS
;	COMDAT ??0bad_alloc@std@@QAE@PBD@Z
_TEXT	SEGMENT
__Message$ = 8						; size = 4
??0bad_alloc@std@@QAE@PBD@Z PROC			; std::bad_alloc::bad_alloc, COMDAT
; _this$ = ecx

; 345  : 		{	// construct from message string

  00000	55		 push	 ebp
  00001	8b ec		 mov	 ebp, esp
  00003	56		 push	 esi
  00004	8d 45 08	 lea	 eax, DWORD PTR __Message$[ebp]
  00007	50		 push	 eax
  00008	8b f1		 mov	 esi, ecx
  0000a	ff 15 00 00 00
	00		 call	 DWORD PTR __imp_??0exception@std@@QAE@ABQBD@Z
  00010	c7 06 00 00 00
	00		 mov	 DWORD PTR [esi], OFFSET ??_7bad_alloc@std@@6B@

; 346  : 		}

  00016	8b c6		 mov	 eax, esi
  00018	5e		 pop	 esi
  00019	5d		 pop	 ebp
  0001a	c2 04 00	 ret	 4
??0bad_alloc@std@@QAE@PBD@Z ENDP			; std::bad_alloc::bad_alloc
_TEXT	ENDS
PUBLIC	??1bad_alloc@std@@UAE@XZ			; std::bad_alloc::~bad_alloc
EXTRN	__imp_??1exception@std@@UAE@XZ:PROC
; Function compile flags: /Ogsp
;	COMDAT ??1bad_alloc@std@@UAE@XZ
_TEXT	SEGMENT
??1bad_alloc@std@@UAE@XZ PROC				; std::bad_alloc::~bad_alloc, COMDAT
; _this$ = ecx

; 354  : 		{	// destroy the object

  00000	c7 01 00 00 00
	00		 mov	 DWORD PTR [ecx], OFFSET ??_7bad_alloc@std@@6B@

; 355  : 		}

  00006	ff 25 00 00 00
	00		 jmp	 DWORD PTR __imp_??1exception@std@@UAE@XZ
??1bad_alloc@std@@UAE@XZ ENDP				; std::bad_alloc::~bad_alloc
_TEXT	ENDS
EXTRN	??3@YAXPAX@Z:PROC				; operator delete
; Function compile flags: /Ogsp
;	COMDAT ??_Gbad_alloc@std@@UAEPAXI@Z
_TEXT	SEGMENT
___flags$ = 8						; size = 4
??_Gbad_alloc@std@@UAEPAXI@Z PROC			; std::bad_alloc::`scalar deleting destructor', COMDAT
; _this$ = ecx
  00000	55		 push	 ebp
  00001	8b ec		 mov	 ebp, esp
  00003	56		 push	 esi
  00004	8b f1		 mov	 esi, ecx
  00006	c7 06 00 00 00
	00		 mov	 DWORD PTR [esi], OFFSET ??_7bad_alloc@std@@6B@
  0000c	ff 15 00 00 00
	00		 call	 DWORD PTR __imp_??1exception@std@@UAE@XZ
  00012	f6 45 08 01	 test	 BYTE PTR ___flags$[ebp], 1
  00016	74 07		 je	 SHORT $LN1@scalar
  00018	56		 push	 esi
  00019	e8 00 00 00 00	 call	 ??3@YAXPAX@Z		; operator delete
  0001e	59		 pop	 ecx
$LN1@scalar:
  0001f	8b c6		 mov	 eax, esi
  00021	5e		 pop	 esi
  00022	5d		 pop	 ebp
  00023	c2 04 00	 ret	 4
??_Gbad_alloc@std@@UAEPAXI@Z ENDP			; std::bad_alloc::`scalar deleting destructor'
_TEXT	ENDS
PUBLIC	??2@YAPAXIPAX@Z					; operator new
; Function compile flags: /Ogsp
; File c:\program files (x86)\microsoft visual studio 10.0\vc\include\new
;	COMDAT ??2@YAPAXIPAX@Z
_TEXT	SEGMENT
___formal$ = 8						; size = 4
__Where$ = 12						; size = 4
??2@YAPAXIPAX@Z PROC					; operator new, COMDAT

; 56   : 	{	// construct array with placement at _Where

  00000	55		 push	 ebp
  00001	8b ec		 mov	 ebp, esp

; 57   : 	return (_Where);

  00003	8b 45 0c	 mov	 eax, DWORD PTR __Where$[ebp]

; 58   : 	}

  00006	5d		 pop	 ebp
  00007	c3		 ret	 0
??2@YAPAXIPAX@Z ENDP					; operator new
_TEXT	ENDS
PUBLIC	??3@YAXPAX0@Z					; operator delete
; Function compile flags: /Ogsp
;	COMDAT ??3@YAXPAX0@Z
_TEXT	SEGMENT
___formal$ = 8						; size = 4
___formal$ = 12						; size = 4
??3@YAXPAX0@Z PROC					; operator delete, COMDAT

; 62   : 	}

  00000	c3		 ret	 0
??3@YAXPAX0@Z ENDP					; operator delete
_TEXT	ENDS
PUBLIC	?GetCreator@ioBaseChar@@QAEPAVioPlayStage@@XZ	; ioBaseChar::GetCreator
; Function compile flags: /Ogsp
; File d:\lost saga for developer\youtube\tutorial\source\src\lsclient\iobasechar.h
;	COMDAT ?GetCreator@ioBaseChar@@QAEPAVioPlayStage@@XZ
_TEXT	SEGMENT
?GetCreator@ioBaseChar@@QAEPAVioPlayStage@@XZ PROC	; ioBaseChar::GetCreator, COMDAT
; _this$ = ecx

; 4013 : 	inline ioPlayStage* GetCreator() { return m_pCreator; }

  00000	8b 81 44 03 00
	00		 mov	 eax, DWORD PTR [ecx+836]
  00006	c3		 ret	 0
?GetCreator@ioBaseChar@@QAEPAVioPlayStage@@XZ ENDP	; ioBaseChar::GetCreator
_TEXT	ENDS
PUBLIC	?_Adopt@_Iterator_base0@std@@QAEXPBX@Z		; std::_Iterator_base0::_Adopt
; Function compile flags: /Ogsp
; File c:\program files (x86)\microsoft visual studio 10.0\vc\include\xutility
;	COMDAT ?_Adopt@_Iterator_base0@std@@QAEXPBX@Z
_TEXT	SEGMENT
___formal$ = 8						; size = 4
?_Adopt@_Iterator_base0@std@@QAEXPBX@Z PROC		; std::_Iterator_base0::_Adopt, COMDAT
; _this$ = ecx

; 49   : 		}

  00000	c2 04 00	 ret	 4
?_Adopt@_Iterator_base0@std@@QAEXPBX@Z ENDP		; std::_Iterator_base0::_Adopt
_TEXT	ENDS
PUBLIC	?SetDieState@ioOwnerAttach5Dummy@@UAEX_N@Z	; ioOwnerAttach5Dummy::SetDieState
EXTRN	?SetDieState@ioDummyChar@@UAEX_N0@Z:PROC	; ioDummyChar::SetDieState
; Function compile flags: /Ogsp
; File d:\lost saga for developer\youtube\tutorial\source\src\lsclient\ioownerattach5dummy.cpp
;	COMDAT ?SetDieState@ioOwnerAttach5Dummy@@UAEX_N@Z
_TEXT	SEGMENT
_bEffect$ = 8						; size = 1
?SetDieState@ioOwnerAttach5Dummy@@UAEX_N@Z PROC		; ioOwnerAttach5Dummy::SetDieState, COMDAT
; _this$ = ecx

; 229  : {

  00000	55		 push	 ebp
  00001	8b ec		 mov	 ebp, esp

; 230  : 	ioDummyChar::SetDieState( bEffect );

  00003	6a 00		 push	 0
  00005	ff 75 08	 push	 DWORD PTR _bEffect$[ebp]
  00008	e8 00 00 00 00	 call	 ?SetDieState@ioDummyChar@@UAEX_N0@Z ; ioDummyChar::SetDieState

; 231  : }

  0000d	5d		 pop	 ebp
  0000e	c2 04 00	 ret	 4
?SetDieState@ioOwnerAttach5Dummy@@UAEX_N@Z ENDP		; ioOwnerAttach5Dummy::SetDieState
_TEXT	ENDS
PUBLIC	?IsActivateWeapon@ioOwnerAttach5Dummy@@UAE_NXZ	; ioOwnerAttach5Dummy::IsActivateWeapon
; Function compile flags: /Ogsp
;	COMDAT ?IsActivateWeapon@ioOwnerAttach5Dummy@@UAE_NXZ
_TEXT	SEGMENT
?IsActivateWeapon@ioOwnerAttach5Dummy@@UAE_NXZ PROC	; ioOwnerAttach5Dummy::IsActivateWeapon, COMDAT
; _this$ = ecx

; 235  : 	if( m_AttachState != AS_Attack )

  00000	83 b9 ec 14 00
	00 04		 cmp	 DWORD PTR [ecx+5356], 4
  00007	0f 94 c0	 sete	 al

; 236  : 		return false;
; 237  : 
; 238  : 	return true;
; 239  : }

  0000a	c3		 ret	 0
?IsActivateWeapon@ioOwnerAttach5Dummy@@UAE_NXZ ENDP	; ioOwnerAttach5Dummy::IsActivateWeapon
_TEXT	ENDS
PUBLIC	__$ArrayPad$
PUBLIC	?SetStartState@ioOwnerAttach5Dummy@@IAEXPAVioBaseChar@@@Z ; ioOwnerAttach5Dummy::SetStartState
EXTRN	?GetMapHeightOnlyTerrain@ioPlayStage@@QAEMMMM@Z:PROC ; ioPlayStage::GetMapHeightOnlyTerrain
EXTRN	___security_cookie:DWORD
EXTRN	@__security_check_cookie@4:PROC
; Function compile flags: /Ogsp
;	COMDAT ?SetStartState@ioOwnerAttach5Dummy@@IAEXPAVioBaseChar@@@Z
_TEXT	SEGMENT
_pStage$ = -20						; size = 4
_vPos$ = -16						; size = 12
__$ArrayPad$ = -4					; size = 4
_pOwner$ = 8						; size = 4
?SetStartState@ioOwnerAttach5Dummy@@IAEXPAVioBaseChar@@@Z PROC ; ioOwnerAttach5Dummy::SetStartState, COMDAT
; _this$ = ecx

; 244  : {

  00000	55		 push	 ebp
  00001	8b ec		 mov	 ebp, esp
  00003	83 ec 14	 sub	 esp, 20			; 00000014H
  00006	a1 00 00 00 00	 mov	 eax, DWORD PTR ___security_cookie
  0000b	33 c5		 xor	 eax, ebp
  0000d	89 45 fc	 mov	 DWORD PTR __$ArrayPad$[ebp], eax
  00010	8b 45 08	 mov	 eax, DWORD PTR _pOwner$[ebp]
  00013	53		 push	 ebx
  00014	8b d9		 mov	 ebx, ecx

; 245  : 	if ( !pOwner )

  00016	85 c0		 test	 eax, eax
  00018	74 5f		 je	 SHORT $LN3@SetStartSt

; 246  : 		return;
; 247  : 
; 248  : 	ioPlayStage *pStage = pOwner->GetCreator();

  0001a	8b 80 44 03 00
	00		 mov	 eax, DWORD PTR [eax+836]
  00020	89 45 ec	 mov	 DWORD PTR _pStage$[ebp], eax

; 249  : 	if ( !pStage )

  00023	85 c0		 test	 eax, eax
  00025	74 52		 je	 SHORT $LN3@SetStartSt

; 250  : 		return;
; 251  : 
; 252  : 	D3DXVECTOR3 vPos = GetWorldPosition();

  00027	8b 03		 mov	 eax, DWORD PTR [ebx]
  00029	56		 push	 esi
  0002a	57		 push	 edi
  0002b	ff 50 70	 call	 DWORD PTR [eax+112]

; 253  : 
; 254  : 	float fMapHeight = pStage->GetMapHeightOnlyTerrain( vPos.x, vPos.z );

  0002e	0f 57 c0	 xorps	 xmm0, xmm0
  00031	8b 4d ec	 mov	 ecx, DWORD PTR _pStage$[ebp]
  00034	8b f0		 mov	 esi, eax
  00036	8d 7d f0	 lea	 edi, DWORD PTR _vPos$[ebp]
  00039	a5		 movsd
  0003a	a5		 movsd
  0003b	83 ec 0c	 sub	 esp, 12			; 0000000cH
  0003e	f3 0f 11 44 24
	08		 movss	 DWORD PTR [esp+8], xmm0
  00044	a5		 movsd
  00045	f3 0f 10 45 f8	 movss	 xmm0, DWORD PTR _vPos$[ebp+8]
  0004a	f3 0f 11 44 24
	04		 movss	 DWORD PTR [esp+4], xmm0
  00050	f3 0f 10 45 f0	 movss	 xmm0, DWORD PTR _vPos$[ebp]
  00055	f3 0f 11 04 24	 movss	 DWORD PTR [esp], xmm0
  0005a	e8 00 00 00 00	 call	 ?GetMapHeightOnlyTerrain@ioPlayStage@@QAEMMMM@Z ; ioPlayStage::GetMapHeightOnlyTerrain

; 255  : 	vPos.y = fMapHeight;

  0005f	d9 5d f4	 fstp	 DWORD PTR _vPos$[ebp+4]

; 256  : 	SetWorldPosition( vPos );

  00062	8b 03		 mov	 eax, DWORD PTR [ebx]
  00064	8d 4d f0	 lea	 ecx, DWORD PTR _vPos$[ebp]
  00067	51		 push	 ecx
  00068	8b cb		 mov	 ecx, ebx
  0006a	ff 50 44	 call	 DWORD PTR [eax+68]
  0006d	5f		 pop	 edi

; 257  : 
; 258  : 	m_AttachState = AS_Start;

  0006e	c7 83 ec 14 00
	00 01 00 00 00	 mov	 DWORD PTR [ebx+5356], 1
  00078	5e		 pop	 esi
$LN3@SetStartSt:

; 259  : }

  00079	8b 4d fc	 mov	 ecx, DWORD PTR __$ArrayPad$[ebp]
  0007c	33 cd		 xor	 ecx, ebp
  0007e	5b		 pop	 ebx
  0007f	e8 00 00 00 00	 call	 @__security_check_cookie@4
  00084	c9		 leave
  00085	c2 04 00	 ret	 4
?SetStartState@ioOwnerAttach5Dummy@@IAEXPAVioBaseChar@@@Z ENDP ; ioOwnerAttach5Dummy::SetStartState
_TEXT	ENDS
PUBLIC	__real@4f800000
PUBLIC	?SetDelayState@ioOwnerAttach5Dummy@@IAEXPAVioBaseChar@@@Z ; ioOwnerAttach5Dummy::SetDelayState
EXTRN	__imp_?SetLoopAni@ioEntityGroup@@QAE_NHMMMM@Z:PROC
EXTRN	__imp_?ClearAllLoopAni@ioEntityGroup@@QAEXM_N@Z:PROC
EXTRN	__imp_?ClearAllActionAni@ioEntityGroup@@QAEXM_N@Z:PROC
EXTRN	__imp_?GetAnimationIdx@ioEntityGroup@@QAEHABVioHashString@@@Z:PROC
EXTRN	__imp_?IsEmpty@ioHashString@@QBE_NXZ:PROC
;	COMDAT __real@4f800000
; File d:\lost saga for developer\youtube\tutorial\source\src\lsclient\stdafx.h
CONST	SEGMENT
__real@4f800000 DD 04f800000r			; 4.29497e+009
; Function compile flags: /Ogsp
; File d:\lost saga for developer\youtube\tutorial\source\src\lsclient\ioownerattach5dummy.cpp
CONST	ENDS
;	COMDAT ?SetDelayState@ioOwnerAttach5Dummy@@IAEXPAVioBaseChar@@@Z
_TEXT	SEGMENT
tv195 = -4						; size = 4
tv210 = 8						; size = 4
tv205 = 8						; size = 4
tv178 = 8						; size = 4
tv155 = 8						; size = 4
tv142 = 8						; size = 4
_fAniRate$568518 = 8					; size = 4
_pOwner$ = 8						; size = 4
?SetDelayState@ioOwnerAttach5Dummy@@IAEXPAVioBaseChar@@@Z PROC ; ioOwnerAttach5Dummy::SetDelayState, COMDAT
; _this$ = ecx

; 276  : {

  00000	55		 push	 ebp
  00001	8b ec		 mov	 ebp, esp
  00003	51		 push	 ecx

; 277  : 	if ( !pOwner )

  00004	83 7d 08 00	 cmp	 DWORD PTR _pOwner$[ebp], 0
  00008	56		 push	 esi
  00009	8b f1		 mov	 esi, ecx
  0000b	0f 84 02 01 00
	00		 je	 $LN5@SetDelaySt

; 278  : 		return;
; 279  : 
; 280  : 	if( m_AttachState == AS_Delay )

  00011	83 be ec 14 00
	00 02		 cmp	 DWORD PTR [esi+5356], 2
  00018	0f 84 f5 00 00
	00		 je	 $LN5@SetDelaySt

; 281  : 		return;
; 282  : 
; 283  : 	if( !m_DelayAnimation.IsEmpty() )

  0001e	57		 push	 edi
  0001f	8d be a8 06 00
	00		 lea	 edi, DWORD PTR [esi+1704]
  00025	8b cf		 mov	 ecx, edi
  00027	ff 15 00 00 00
	00		 call	 DWORD PTR __imp_?IsEmpty@ioHashString@@QBE_NXZ
  0002d	84 c0		 test	 al, al
  0002f	0f 85 d3 00 00
	00		 jne	 $LN1@SetDelaySt

; 284  : 	{
; 285  : 		int iAniID = m_pGroup->GetAnimationIdx( m_DelayAnimation );

  00035	8b 4e 04	 mov	 ecx, DWORD PTR [esi+4]
  00038	57		 push	 edi
  00039	ff 15 00 00 00
	00		 call	 DWORD PTR __imp_?GetAnimationIdx@ioEntityGroup@@QAEHABVioHashString@@@Z
  0003f	8b f8		 mov	 edi, eax

; 286  : 		if( iAniID != -1 )

  00041	83 ff ff	 cmp	 edi, -1
  00044	0f 84 be 00 00
	00		 je	 $LN1@SetDelaySt

; 287  : 		{
; 288  : 			m_pGroup->ClearAllActionAni( FLOAT10, true );

  0004a	b8 0a 00 00 00	 mov	 eax, 10			; 0000000aH
  0004f	89 45 08	 mov	 DWORD PTR tv210[ebp], eax
  00052	db 45 08	 fild	 DWORD PTR tv210[ebp]
  00055	6a 01		 push	 1
  00057	85 c0		 test	 eax, eax
  00059	79 06		 jns	 SHORT $LN17@SetDelaySt
  0005b	d8 05 00 00 00
	00		 fadd	 DWORD PTR __real@4f800000
$LN17@SetDelaySt:
  00061	51		 push	 ecx
  00062	8b 4e 04	 mov	 ecx, DWORD PTR [esi+4]
  00065	d9 1c 24	 fstp	 DWORD PTR [esp]
  00068	ff 15 00 00 00
	00		 call	 DWORD PTR __imp_?ClearAllActionAni@ioEntityGroup@@QAEXM_N@Z

; 289  : 			m_pGroup->ClearAllLoopAni( FLOAT10, true );

  0006e	b8 0a 00 00 00	 mov	 eax, 10			; 0000000aH
  00073	89 45 08	 mov	 DWORD PTR tv205[ebp], eax
  00076	db 45 08	 fild	 DWORD PTR tv205[ebp]
  00079	6a 01		 push	 1
  0007b	85 c0		 test	 eax, eax
  0007d	79 06		 jns	 SHORT $LN18@SetDelaySt
  0007f	d8 05 00 00 00
	00		 fadd	 DWORD PTR __real@4f800000
$LN18@SetDelaySt:
  00085	51		 push	 ecx
  00086	8b 4e 04	 mov	 ecx, DWORD PTR [esi+4]
  00089	d9 1c 24	 fstp	 DWORD PTR [esp]
  0008c	ff 15 00 00 00
	00		 call	 DWORD PTR __imp_?ClearAllLoopAni@ioEntityGroup@@QAEXM_N@Z

; 290  : 
; 291  : 			float fAniRate = m_fMoveAniRate;

  00092	d9 86 cc 06 00
	00		 fld	 DWORD PTR [esi+1740]
  00098	d9 5d 08	 fstp	 DWORD PTR _fAniRate$568518[ebp]

; 292  : 
; 293  : 			m_pGroup->SetLoopAni( iAniID, FLOAT100, FLOAT1, FLOAT1/fAniRate );

  0009b	b8 01 00 00 00	 mov	 eax, 1
  000a0	8b c8		 mov	 ecx, eax
  000a2	b8 01 00 00 00	 mov	 eax, 1
  000a7	8b d0		 mov	 edx, eax
  000a9	b8 64 00 00 00	 mov	 eax, 100		; 00000064H
  000ae	0f 57 c0	 xorps	 xmm0, xmm0
  000b1	83 ec 10	 sub	 esp, 16			; 00000010H
  000b4	89 4d fc	 mov	 DWORD PTR tv195[ebp], ecx
  000b7	db 45 fc	 fild	 DWORD PTR tv195[ebp]
  000ba	f3 0f 11 44 24
	0c		 movss	 DWORD PTR [esp+12], xmm0
  000c0	85 c9		 test	 ecx, ecx
  000c2	79 06		 jns	 SHORT $LN19@SetDelaySt
  000c4	d8 05 00 00 00
	00		 fadd	 DWORD PTR __real@4f800000
$LN19@SetDelaySt:
  000ca	d8 75 08	 fdiv	 DWORD PTR _fAniRate$568518[ebp]
  000cd	d9 5d 08	 fstp	 DWORD PTR tv155[ebp]
  000d0	d9 45 08	 fld	 DWORD PTR tv155[ebp]
  000d3	d9 5c 24 08	 fstp	 DWORD PTR [esp+8]
  000d7	89 55 08	 mov	 DWORD PTR tv178[ebp], edx
  000da	db 45 08	 fild	 DWORD PTR tv178[ebp]
  000dd	85 d2		 test	 edx, edx
  000df	79 06		 jns	 SHORT $LN20@SetDelaySt
  000e1	d8 05 00 00 00
	00		 fadd	 DWORD PTR __real@4f800000
$LN20@SetDelaySt:
  000e7	89 45 08	 mov	 DWORD PTR tv142[ebp], eax
  000ea	d9 5c 24 04	 fstp	 DWORD PTR [esp+4]
  000ee	db 45 08	 fild	 DWORD PTR tv142[ebp]
  000f1	85 c0		 test	 eax, eax
  000f3	79 06		 jns	 SHORT $LN21@SetDelaySt
  000f5	d8 05 00 00 00
	00		 fadd	 DWORD PTR __real@4f800000
$LN21@SetDelaySt:
  000fb	8b 4e 04	 mov	 ecx, DWORD PTR [esi+4]
  000fe	d9 1c 24	 fstp	 DWORD PTR [esp]
  00101	57		 push	 edi
  00102	ff 15 00 00 00
	00		 call	 DWORD PTR __imp_?SetLoopAni@ioEntityGroup@@QAE_NHMMMM@Z
$LN1@SetDelaySt:

; 294  : 		}
; 295  : 	}
; 296  : 
; 297  : 	m_AttachState = AS_Delay;

  00108	c7 86 ec 14 00
	00 02 00 00 00	 mov	 DWORD PTR [esi+5356], 2
  00112	5f		 pop	 edi
$LN5@SetDelaySt:
  00113	5e		 pop	 esi

; 298  : }

  00114	c9		 leave
  00115	c2 04 00	 ret	 4
?SetDelayState@ioOwnerAttach5Dummy@@IAEXPAVioBaseChar@@@Z ENDP ; ioOwnerAttach5Dummy::SetDelayState
_TEXT	ENDS
PUBLIC	?SetFollowState@ioOwnerAttach5Dummy@@IAEXPAVioBaseChar@@@Z ; ioOwnerAttach5Dummy::SetFollowState
; Function compile flags: /Ogsp
;	COMDAT ?SetFollowState@ioOwnerAttach5Dummy@@IAEXPAVioBaseChar@@@Z
_TEXT	SEGMENT
tv195 = -4						; size = 4
tv210 = 8						; size = 4
tv205 = 8						; size = 4
tv178 = 8						; size = 4
tv155 = 8						; size = 4
tv142 = 8						; size = 4
_fAniRate$568544 = 8					; size = 4
_pOwner$ = 8						; size = 4
?SetFollowState@ioOwnerAttach5Dummy@@IAEXPAVioBaseChar@@@Z PROC ; ioOwnerAttach5Dummy::SetFollowState, COMDAT
; _this$ = ecx

; 334  : {

  00000	55		 push	 ebp
  00001	8b ec		 mov	 ebp, esp
  00003	51		 push	 ecx

; 335  : 	if ( !pOwner )

  00004	83 7d 08 00	 cmp	 DWORD PTR _pOwner$[ebp], 0
  00008	56		 push	 esi
  00009	8b f1		 mov	 esi, ecx
  0000b	0f 84 02 01 00
	00		 je	 $LN5@SetFollowS

; 336  : 		return;
; 337  : 
; 338  : 	if( m_AttachState == AS_Follow )

  00011	83 be ec 14 00
	00 03		 cmp	 DWORD PTR [esi+5356], 3
  00018	0f 84 f5 00 00
	00		 je	 $LN5@SetFollowS

; 339  : 		return;
; 340  : 
; 341  : 	if( !m_MoveAnimation.IsEmpty() )

  0001e	57		 push	 edi
  0001f	8d be bc 06 00
	00		 lea	 edi, DWORD PTR [esi+1724]
  00025	8b cf		 mov	 ecx, edi
  00027	ff 15 00 00 00
	00		 call	 DWORD PTR __imp_?IsEmpty@ioHashString@@QBE_NXZ
  0002d	84 c0		 test	 al, al
  0002f	0f 85 d3 00 00
	00		 jne	 $LN1@SetFollowS

; 342  : 	{
; 343  : 		int iAniID = m_pGroup->GetAnimationIdx( m_MoveAnimation );

  00035	8b 4e 04	 mov	 ecx, DWORD PTR [esi+4]
  00038	57		 push	 edi
  00039	ff 15 00 00 00
	00		 call	 DWORD PTR __imp_?GetAnimationIdx@ioEntityGroup@@QAEHABVioHashString@@@Z
  0003f	8b f8		 mov	 edi, eax

; 344  : 		if( iAniID != -1 )

  00041	83 ff ff	 cmp	 edi, -1
  00044	0f 84 be 00 00
	00		 je	 $LN1@SetFollowS

; 345  : 		{
; 346  : 			m_pGroup->ClearAllActionAni( FLOAT10, true );

  0004a	b8 0a 00 00 00	 mov	 eax, 10			; 0000000aH
  0004f	89 45 08	 mov	 DWORD PTR tv210[ebp], eax
  00052	db 45 08	 fild	 DWORD PTR tv210[ebp]
  00055	6a 01		 push	 1
  00057	85 c0		 test	 eax, eax
  00059	79 06		 jns	 SHORT $LN17@SetFollowS
  0005b	d8 05 00 00 00
	00		 fadd	 DWORD PTR __real@4f800000
$LN17@SetFollowS:
  00061	51		 push	 ecx
  00062	8b 4e 04	 mov	 ecx, DWORD PTR [esi+4]
  00065	d9 1c 24	 fstp	 DWORD PTR [esp]
  00068	ff 15 00 00 00
	00		 call	 DWORD PTR __imp_?ClearAllActionAni@ioEntityGroup@@QAEXM_N@Z

; 347  : 			m_pGroup->ClearAllLoopAni( FLOAT10, true );

  0006e	b8 0a 00 00 00	 mov	 eax, 10			; 0000000aH
  00073	89 45 08	 mov	 DWORD PTR tv205[ebp], eax
  00076	db 45 08	 fild	 DWORD PTR tv205[ebp]
  00079	6a 01		 push	 1
  0007b	85 c0		 test	 eax, eax
  0007d	79 06		 jns	 SHORT $LN18@SetFollowS
  0007f	d8 05 00 00 00
	00		 fadd	 DWORD PTR __real@4f800000
$LN18@SetFollowS:
  00085	51		 push	 ecx
  00086	8b 4e 04	 mov	 ecx, DWORD PTR [esi+4]
  00089	d9 1c 24	 fstp	 DWORD PTR [esp]
  0008c	ff 15 00 00 00
	00		 call	 DWORD PTR __imp_?ClearAllLoopAni@ioEntityGroup@@QAEXM_N@Z

; 348  : 
; 349  : 			float fAniRate = m_fMoveAniRate;

  00092	d9 86 cc 06 00
	00		 fld	 DWORD PTR [esi+1740]
  00098	d9 5d 08	 fstp	 DWORD PTR _fAniRate$568544[ebp]

; 350  : 
; 351  : 			m_pGroup->SetLoopAni( iAniID, FLOAT10, FLOAT1, FLOAT1/fAniRate );

  0009b	b8 01 00 00 00	 mov	 eax, 1
  000a0	8b c8		 mov	 ecx, eax
  000a2	b8 01 00 00 00	 mov	 eax, 1
  000a7	8b d0		 mov	 edx, eax
  000a9	b8 0a 00 00 00	 mov	 eax, 10			; 0000000aH
  000ae	0f 57 c0	 xorps	 xmm0, xmm0
  000b1	83 ec 10	 sub	 esp, 16			; 00000010H
  000b4	89 4d fc	 mov	 DWORD PTR tv195[ebp], ecx
  000b7	db 45 fc	 fild	 DWORD PTR tv195[ebp]
  000ba	f3 0f 11 44 24
	0c		 movss	 DWORD PTR [esp+12], xmm0
  000c0	85 c9		 test	 ecx, ecx
  000c2	79 06		 jns	 SHORT $LN19@SetFollowS
  000c4	d8 05 00 00 00
	00		 fadd	 DWORD PTR __real@4f800000
$LN19@SetFollowS:
  000ca	d8 75 08	 fdiv	 DWORD PTR _fAniRate$568544[ebp]
  000cd	d9 5d 08	 fstp	 DWORD PTR tv155[ebp]
  000d0	d9 45 08	 fld	 DWORD PTR tv155[ebp]
  000d3	d9 5c 24 08	 fstp	 DWORD PTR [esp+8]
  000d7	89 55 08	 mov	 DWORD PTR tv178[ebp], edx
  000da	db 45 08	 fild	 DWORD PTR tv178[ebp]
  000dd	85 d2		 test	 edx, edx
  000df	79 06		 jns	 SHORT $LN20@SetFollowS
  000e1	d8 05 00 00 00
	00		 fadd	 DWORD PTR __real@4f800000
$LN20@SetFollowS:
  000e7	89 45 08	 mov	 DWORD PTR tv142[ebp], eax
  000ea	d9 5c 24 04	 fstp	 DWORD PTR [esp+4]
  000ee	db 45 08	 fild	 DWORD PTR tv142[ebp]
  000f1	85 c0		 test	 eax, eax
  000f3	79 06		 jns	 SHORT $LN21@SetFollowS
  000f5	d8 05 00 00 00
	00		 fadd	 DWORD PTR __real@4f800000
$LN21@SetFollowS:
  000fb	8b 4e 04	 mov	 ecx, DWORD PTR [esi+4]
  000fe	d9 1c 24	 fstp	 DWORD PTR [esp]
  00101	57		 push	 edi
  00102	ff 15 00 00 00
	00		 call	 DWORD PTR __imp_?SetLoopAni@ioEntityGroup@@QAE_NHMMMM@Z
$LN1@SetFollowS:

; 352  : 		}
; 353  : 	}
; 354  : 
; 355  : 	m_AttachState = AS_Follow;

  00108	c7 86 ec 14 00
	00 03 00 00 00	 mov	 DWORD PTR [esi+5356], 3
  00112	5f		 pop	 edi
$LN5@SetFollowS:
  00113	5e		 pop	 esi

; 356  : }

  00114	c9		 leave
  00115	c2 04 00	 ret	 4
?SetFollowState@ioOwnerAttach5Dummy@@IAEXPAVioBaseChar@@@Z ENDP ; ioOwnerAttach5Dummy::SetFollowState
_TEXT	ENDS
PUBLIC	__$ArrayPad$
PUBLIC	?CheckInputKey@ioOwnerAttach5Dummy@@IAEXPAVioBaseChar@@@Z ; ioOwnerAttach5Dummy::CheckInputKey
EXTRN	??1SP2Packet@@UAE@XZ:PROC			; SP2Packet::~SP2Packet
EXTRN	?SendToAllPlayingUser@P2PNetwork@@YAXAAVSP2Packet@@PAVioBaseChar@@@Z:PROC ; P2PNetwork::SendToAllPlayingUser
EXTRN	??6SP2Packet@@QAEAAV0@H@Z:PROC			; SP2Packet::operator<<
EXTRN	??6SP2Packet@@QAEAAV0@ABVioHashString@@@Z:PROC	; SP2Packet::operator<<
EXTRN	??0SP2Packet@@QAE@K@Z:PROC			; SP2Packet::SP2Packet
EXTRN	?IsSettedDirection@ioBaseChar@@QBE_NXZ:PROC	; ioBaseChar::IsSettedDirection
EXTRN	___CxxFrameHandler3:PROC
EXTRN	__chkstk:PROC
;	COMDAT xdata$x
xdata$x	SEGMENT
__unwindtable$?CheckInputKey@ioOwnerAttach5Dummy@@IAEXPAVioBaseChar@@@Z DD 0ffffffffH
	DD	FLAT:__unwindfunclet$?CheckInputKey@ioOwnerAttach5Dummy@@IAEXPAVioBaseChar@@@Z$0
	DD	0ffffffffH
	DD	FLAT:__unwindfunclet$?CheckInputKey@ioOwnerAttach5Dummy@@IAEXPAVioBaseChar@@@Z$1
__ehfuncinfo$?CheckInputKey@ioOwnerAttach5Dummy@@IAEXPAVioBaseChar@@@Z DD 019930522H
	DD	02H
	DD	FLAT:__unwindtable$?CheckInputKey@ioOwnerAttach5Dummy@@IAEXPAVioBaseChar@@@Z
	DD	2 DUP(00H)
	DD	2 DUP(00H)
	DD	00H
	DD	01H
; Function compile flags: /Ogsp
xdata$x	ENDS
;	COMDAT ?CheckInputKey@ioOwnerAttach5Dummy@@IAEXPAVioBaseChar@@@Z
_TEXT	SEGMENT
_kPacket$568961 = -65600				; size = 32792
_kPacket$568957 = -32808				; size = 32792
__$ArrayPad$ = -16					; size = 4
__$EHRec$ = -12						; size = 12
_pOwner$ = 8						; size = 4
?CheckInputKey@ioOwnerAttach5Dummy@@IAEXPAVioBaseChar@@@Z PROC ; ioOwnerAttach5Dummy::CheckInputKey, COMDAT
; _this$ = ecx

; 673  : {

  00000	55		 push	 ebp
  00001	8b ec		 mov	 ebp, esp
  00003	6a ff		 push	 -1
  00005	68 00 00 00 00	 push	 __ehhandler$?CheckInputKey@ioOwnerAttach5Dummy@@IAEXPAVioBaseChar@@@Z
  0000a	64 a1 00 00 00
	00		 mov	 eax, DWORD PTR fs:0
  00010	50		 push	 eax
  00011	b8 34 00 01 00	 mov	 eax, 65588		; 00010034H
  00016	e8 00 00 00 00	 call	 __chkstk
  0001b	a1 00 00 00 00	 mov	 eax, DWORD PTR ___security_cookie
  00020	33 c5		 xor	 eax, ebp
  00022	89 45 f0	 mov	 DWORD PTR __$ArrayPad$[ebp], eax
  00025	56		 push	 esi
  00026	57		 push	 edi
  00027	50		 push	 eax
  00028	8d 45 f4	 lea	 eax, DWORD PTR __$EHRec$[ebp]
  0002b	64 a3 00 00 00
	00		 mov	 DWORD PTR fs:0, eax
  00031	8b 7d 08	 mov	 edi, DWORD PTR _pOwner$[ebp]
  00034	8b f1		 mov	 esi, ecx

; 674  : 	if ( !pOwner || !pOwner->IsNeedProcess() )

  00036	85 ff		 test	 edi, edi
  00038	0f 84 44 01 00
	00		 je	 $LN6@CheckInput
  0003e	8b 07		 mov	 eax, DWORD PTR [edi]
  00040	8b cf		 mov	 ecx, edi
  00042	ff 90 00 01 00
	00		 call	 DWORD PTR [eax+256]
  00048	84 c0		 test	 al, al
  0004a	0f 84 32 01 00
	00		 je	 $LN6@CheckInput

; 675  : 		return;
; 676  : 
; 677  : 	if ( m_AttachState == AS_Delay && pOwner->IsSettedDirection() )

  00050	83 be ec 14 00
	00 02		 cmp	 DWORD PTR [esi+5356], 2
  00057	0f 85 84 00 00
	00		 jne	 $LN5@CheckInput
  0005d	8b cf		 mov	 ecx, edi
  0005f	e8 00 00 00 00	 call	 ?IsSettedDirection@ioBaseChar@@QBE_NXZ ; ioBaseChar::IsSettedDirection
  00064	84 c0		 test	 al, al
  00066	74 79		 je	 SHORT $LN5@CheckInput

; 678  : 	{
; 679  : 		SetFollowState( pOwner );

  00068	57		 push	 edi
  00069	8b ce		 mov	 ecx, esi
  0006b	e8 00 00 00 00	 call	 ?SetFollowState@ioOwnerAttach5Dummy@@IAEXPAVioBaseChar@@@Z ; ioOwnerAttach5Dummy::SetFollowState

; 680  : 
; 681  : 		if ( pOwner->IsNeedSendNetwork() )

  00070	8b 07		 mov	 eax, DWORD PTR [edi]
  00072	8b cf		 mov	 ecx, edi
  00074	ff 90 04 01 00
	00		 call	 DWORD PTR [eax+260]
  0007a	84 c0		 test	 al, al
  0007c	0f 84 00 01 00
	00		 je	 $LN6@CheckInput

; 682  : 		{
; 683  : 			SP2Packet kPacket( CUPK_DUMMY_CHAR_SYNC );

  00082	68 21 42 00 00	 push	 16929			; 00004221H
  00087	8d 8d d8 7f ff
	ff		 lea	 ecx, DWORD PTR _kPacket$568957[ebp]
  0008d	e8 00 00 00 00	 call	 ??0SP2Packet@@QAE@K@Z	; SP2Packet::SP2Packet
  00092	83 65 fc 00	 and	 DWORD PTR __$EHRec$[ebp+8], 0

; 684  : 			kPacket << m_OwnerName;

  00096	8d 86 cc 01 00
	00		 lea	 eax, DWORD PTR [esi+460]
  0009c	50		 push	 eax
  0009d	8d 8d d8 7f ff
	ff		 lea	 ecx, DWORD PTR _kPacket$568957[ebp]
  000a3	e8 00 00 00 00	 call	 ??6SP2Packet@@QAEAAV0@ABVioHashString@@@Z ; SP2Packet::operator<<

; 685  : 			kPacket << m_iCreateIndex;

  000a8	ff b6 dc 01 00
	00		 push	 DWORD PTR [esi+476]
  000ae	8d 8d d8 7f ff
	ff		 lea	 ecx, DWORD PTR _kPacket$568957[ebp]
  000b4	e8 00 00 00 00	 call	 ??6SP2Packet@@QAEAAV0@H@Z ; SP2Packet::operator<<

; 686  : 			kPacket << AS_Follow;

  000b9	6a 03		 push	 3
  000bb	8d 8d d8 7f ff
	ff		 lea	 ecx, DWORD PTR _kPacket$568957[ebp]
  000c1	e8 00 00 00 00	 call	 ??6SP2Packet@@QAEAAV0@H@Z ; SP2Packet::operator<<

; 687  : 			P2PNetwork::SendToAllPlayingUser( kPacket );

  000c6	8d 85 d8 7f ff
	ff		 lea	 eax, DWORD PTR _kPacket$568957[ebp]
  000cc	6a 00		 push	 0
  000ce	50		 push	 eax
  000cf	e8 00 00 00 00	 call	 ?SendToAllPlayingUser@P2PNetwork@@YAXAAVSP2Packet@@PAVioBaseChar@@@Z ; P2PNetwork::SendToAllPlayingUser
  000d4	59		 pop	 ecx
  000d5	59		 pop	 ecx

; 688  : 		}

  000d6	8d 8d d8 7f ff
	ff		 lea	 ecx, DWORD PTR _kPacket$568957[ebp]

; 689  : 	}

  000dc	e9 98 00 00 00	 jmp	 $LN13@CheckInput
$LN5@CheckInput:

; 690  : 	else if ( m_AttachState == AS_Follow && !m_bAutoFollow && !pOwner->IsSettedDirection() )

  000e1	83 be ec 14 00
	00 03		 cmp	 DWORD PTR [esi+5356], 3
  000e8	0f 85 94 00 00
	00		 jne	 $LN6@CheckInput
  000ee	80 be 30 15 00
	00 00		 cmp	 BYTE PTR [esi+5424], 0
  000f5	0f 85 87 00 00
	00		 jne	 $LN6@CheckInput
  000fb	8b cf		 mov	 ecx, edi
  000fd	e8 00 00 00 00	 call	 ?IsSettedDirection@ioBaseChar@@QBE_NXZ ; ioBaseChar::IsSettedDirection
  00102	84 c0		 test	 al, al
  00104	75 7c		 jne	 SHORT $LN6@CheckInput

; 691  : 	{
; 692  : 		SetDelayState( pOwner );

  00106	57		 push	 edi
  00107	8b ce		 mov	 ecx, esi
  00109	e8 00 00 00 00	 call	 ?SetDelayState@ioOwnerAttach5Dummy@@IAEXPAVioBaseChar@@@Z ; ioOwnerAttach5Dummy::SetDelayState

; 693  : 
; 694  : 		if ( pOwner->IsNeedSendNetwork() )

  0010e	8b 07		 mov	 eax, DWORD PTR [edi]
  00110	8b cf		 mov	 ecx, edi
  00112	ff 90 04 01 00
	00		 call	 DWORD PTR [eax+260]
  00118	84 c0		 test	 al, al
  0011a	74 66		 je	 SHORT $LN6@CheckInput

; 695  : 		{
; 696  : 			SP2Packet kPacket( CUPK_DUMMY_CHAR_SYNC );

  0011c	68 21 42 00 00	 push	 16929			; 00004221H
  00121	8d 8d c0 ff fe
	ff		 lea	 ecx, DWORD PTR _kPacket$568961[ebp]
  00127	e8 00 00 00 00	 call	 ??0SP2Packet@@QAE@K@Z	; SP2Packet::SP2Packet

; 697  : 			kPacket << m_OwnerName;

  0012c	8d 86 cc 01 00
	00		 lea	 eax, DWORD PTR [esi+460]
  00132	50		 push	 eax
  00133	8d 8d c0 ff fe
	ff		 lea	 ecx, DWORD PTR _kPacket$568961[ebp]
  00139	c7 45 fc 01 00
	00 00		 mov	 DWORD PTR __$EHRec$[ebp+8], 1
  00140	e8 00 00 00 00	 call	 ??6SP2Packet@@QAEAAV0@ABVioHashString@@@Z ; SP2Packet::operator<<

; 698  : 			kPacket << m_iCreateIndex;

  00145	ff b6 dc 01 00
	00		 push	 DWORD PTR [esi+476]
  0014b	8d 8d c0 ff fe
	ff		 lea	 ecx, DWORD PTR _kPacket$568961[ebp]
  00151	e8 00 00 00 00	 call	 ??6SP2Packet@@QAEAAV0@H@Z ; SP2Packet::operator<<

; 699  : 			kPacket << AS_Delay;

  00156	6a 02		 push	 2
  00158	8d 8d c0 ff fe
	ff		 lea	 ecx, DWORD PTR _kPacket$568961[ebp]
  0015e	e8 00 00 00 00	 call	 ??6SP2Packet@@QAEAAV0@H@Z ; SP2Packet::operator<<

; 700  : 			P2PNetwork::SendToAllPlayingUser( kPacket );

  00163	8d 85 c0 ff fe
	ff		 lea	 eax, DWORD PTR _kPacket$568961[ebp]
  00169	6a 00		 push	 0
  0016b	50		 push	 eax
  0016c	e8 00 00 00 00	 call	 ?SendToAllPlayingUser@P2PNetwork@@YAXAAVSP2Packet@@PAVioBaseChar@@@Z ; P2PNetwork::SendToAllPlayingUser
  00171	59		 pop	 ecx
  00172	59		 pop	 ecx

; 701  : 		}

  00173	8d 8d c0 ff fe
	ff		 lea	 ecx, DWORD PTR _kPacket$568961[ebp]
$LN13@CheckInput:
  00179	83 4d fc ff	 or	 DWORD PTR __$EHRec$[ebp+8], -1
  0017d	e8 00 00 00 00	 call	 ??1SP2Packet@@UAE@XZ	; SP2Packet::~SP2Packet
$LN6@CheckInput:

; 702  : 	}
; 703  : }

  00182	8b 4d f4	 mov	 ecx, DWORD PTR __$EHRec$[ebp]
  00185	64 89 0d 00 00
	00 00		 mov	 DWORD PTR fs:0, ecx
  0018c	59		 pop	 ecx
  0018d	5f		 pop	 edi
  0018e	5e		 pop	 esi
  0018f	8b 4d f0	 mov	 ecx, DWORD PTR __$ArrayPad$[ebp]
  00192	33 cd		 xor	 ecx, ebp
  00194	e8 00 00 00 00	 call	 @__security_check_cookie@4
  00199	c9		 leave
  0019a	c2 04 00	 ret	 4
_TEXT	ENDS
;	COMDAT text$x
text$x	SEGMENT
__unwindfunclet$?CheckInputKey@ioOwnerAttach5Dummy@@IAEXPAVioBaseChar@@@Z$0:
  00000	8d 8d d8 7f ff
	ff		 lea	 ecx, DWORD PTR _kPacket$568957[ebp]
  00006	e9 00 00 00 00	 jmp	 ??1SP2Packet@@UAE@XZ	; SP2Packet::~SP2Packet
__unwindfunclet$?CheckInputKey@ioOwnerAttach5Dummy@@IAEXPAVioBaseChar@@@Z$1:
  0000b	8d 8d c0 ff fe
	ff		 lea	 ecx, DWORD PTR _kPacket$568961[ebp]
  00011	e9 00 00 00 00	 jmp	 ??1SP2Packet@@UAE@XZ	; SP2Packet::~SP2Packet
__ehhandler$?CheckInputKey@ioOwnerAttach5Dummy@@IAEXPAVioBaseChar@@@Z:
  00016	8b 54 24 08	 mov	 edx, DWORD PTR [esp+8]
  0001a	8d 42 0c	 lea	 eax, DWORD PTR [edx+12]
  0001d	8b 8a c0 ff fe
	ff		 mov	 ecx, DWORD PTR [edx-65600]
  00023	33 c8		 xor	 ecx, eax
  00025	e8 00 00 00 00	 call	 @__security_check_cookie@4
  0002a	8b 4a fc	 mov	 ecx, DWORD PTR [edx-4]
  0002d	33 c8		 xor	 ecx, eax
  0002f	e8 00 00 00 00	 call	 @__security_check_cookie@4
  00034	b8 00 00 00 00	 mov	 eax, OFFSET __ehfuncinfo$?CheckInputKey@ioOwnerAttach5Dummy@@IAEXPAVioBaseChar@@@Z
  00039	e9 00 00 00 00	 jmp	 ___CxxFrameHandler3
text$x	ENDS
?CheckInputKey@ioOwnerAttach5Dummy@@IAEXPAVioBaseChar@@@Z ENDP ; ioOwnerAttach5Dummy::CheckInputKey
PUBLIC	__real@00000000
PUBLIC	?CheckDropZone@ioOwnerAttach5Dummy@@IAE_NPAVioBaseChar@@@Z ; ioOwnerAttach5Dummy::CheckDropZone
;	COMDAT __real@00000000
; File d:\lost saga for developer\youtube\tutorial\source\src\lsclient\iobasechar.h
CONST	SEGMENT
__real@00000000 DD 000000000r			; 0
; Function compile flags: /Ogsp
; File d:\lost saga for developer\youtube\tutorial\source\src\lsclient\ioownerattach5dummy.cpp
CONST	ENDS
;	COMDAT ?CheckDropZone@ioOwnerAttach5Dummy@@IAE_NPAVioBaseChar@@@Z
_TEXT	SEGMENT
_vPos$ = -12						; size = 12
_pOwner$ = 8						; size = 4
?CheckDropZone@ioOwnerAttach5Dummy@@IAE_NPAVioBaseChar@@@Z PROC ; ioOwnerAttach5Dummy::CheckDropZone, COMDAT
; _this$ = ecx

; 732  : {

  00000	55		 push	 ebp
  00001	8b ec		 mov	 ebp, esp

; 733  : 	if ( !pOwner )

  00003	8b 45 08	 mov	 eax, DWORD PTR _pOwner$[ebp]
  00006	83 ec 0c	 sub	 esp, 12			; 0000000cH
  00009	85 c0		 test	 eax, eax
  0000b	75 04		 jne	 SHORT $LN3@CheckDropZ

; 734  : 		return false;

  0000d	32 c0		 xor	 al, al
  0000f	eb 53		 jmp	 SHORT $LN4@CheckDropZ
$LN3@CheckDropZ:
  00011	53		 push	 ebx

; 735  : 
; 736  : 	ioPlayStage *pStage = pOwner->GetCreator();

  00012	8b 98 44 03 00
	00		 mov	 ebx, DWORD PTR [eax+836]

; 737  : 	if ( !pStage )

  00018	85 db		 test	 ebx, ebx

; 738  : 		return false;

  0001a	74 45		 je	 SHORT $LN1@CheckDropZ

; 739  : 
; 740  : 	D3DXVECTOR3 vPos = GetWorldPosition();

  0001c	8b 01		 mov	 eax, DWORD PTR [ecx]
  0001e	56		 push	 esi
  0001f	57		 push	 edi
  00020	ff 50 70	 call	 DWORD PTR [eax+112]

; 741  : 
; 742  : 	float fMapHeight = pStage->GetMapHeightOnlyTerrain( vPos.x, vPos.z );

  00023	0f 57 c0	 xorps	 xmm0, xmm0
  00026	8b f0		 mov	 esi, eax
  00028	8d 7d f4	 lea	 edi, DWORD PTR _vPos$[ebp]
  0002b	a5		 movsd
  0002c	a5		 movsd
  0002d	83 ec 0c	 sub	 esp, 12			; 0000000cH
  00030	f3 0f 11 44 24
	08		 movss	 DWORD PTR [esp+8], xmm0
  00036	a5		 movsd
  00037	f3 0f 10 45 fc	 movss	 xmm0, DWORD PTR _vPos$[ebp+8]
  0003c	f3 0f 11 44 24
	04		 movss	 DWORD PTR [esp+4], xmm0
  00042	f3 0f 10 45 f4	 movss	 xmm0, DWORD PTR _vPos$[ebp]
  00047	8b cb		 mov	 ecx, ebx
  00049	f3 0f 11 04 24	 movss	 DWORD PTR [esp], xmm0
  0004e	e8 00 00 00 00	 call	 ?GetMapHeightOnlyTerrain@ioPlayStage@@QAEMMMM@Z ; ioPlayStage::GetMapHeightOnlyTerrain

; 743  : 
; 744  : 	if ( fMapHeight <= 0.0f )

  00053	d9 ee		 fldz
  00055	5f		 pop	 edi
  00056	df f1		 fcomip	 ST(1)
  00058	dd d8		 fstp	 ST(0)
  0005a	5e		 pop	 esi
  0005b	72 04		 jb	 SHORT $LN1@CheckDropZ

; 745  : 		return true;

  0005d	b0 01		 mov	 al, 1
  0005f	eb 02		 jmp	 SHORT $LN8@CheckDropZ
$LN1@CheckDropZ:

; 746  : 
; 747  : 	return false;

  00061	32 c0		 xor	 al, al
$LN8@CheckDropZ:
  00063	5b		 pop	 ebx
$LN4@CheckDropZ:

; 748  : }

  00064	c9		 leave
  00065	c2 04 00	 ret	 4
?CheckDropZone@ioOwnerAttach5Dummy@@IAE_NPAVioBaseChar@@@Z ENDP ; ioOwnerAttach5Dummy::CheckDropZone
_TEXT	ENDS
PUBLIC	??1FireTime@@QAE@XZ				; FireTime::~FireTime
EXTRN	__imp_??1ioHashString@@QAE@XZ:PROC
EXTRN	__EH_epilog3:PROC
EXTRN	__EH_prolog3:PROC
;	COMDAT xdata$x
xdata$x	SEGMENT
__unwindtable$??1FireTime@@QAE@XZ DD 0ffffffffH
	DD	FLAT:__unwindfunclet$??1FireTime@@QAE@XZ$0
	DD	00H
	DD	FLAT:__unwindfunclet$??1FireTime@@QAE@XZ$1
__ehfuncinfo$??1FireTime@@QAE@XZ DD 019930522H
	DD	02H
	DD	FLAT:__unwindtable$??1FireTime@@QAE@XZ
	DD	2 DUP(00H)
	DD	2 DUP(00H)
	DD	00H
	DD	01H
; Function compile flags: /Ogsp
xdata$x	ENDS
;	COMDAT ??1FireTime@@QAE@XZ
_TEXT	SEGMENT
_this$ = -16						; size = 4
__$EHRec$ = -12						; size = 12
??1FireTime@@QAE@XZ PROC				; FireTime::~FireTime, COMDAT
; _this$ = ecx
  00000	6a 04		 push	 4
  00002	b8 00 00 00 00	 mov	 eax, __ehhandler$??1FireTime@@QAE@XZ
  00007	e8 00 00 00 00	 call	 __EH_prolog3
  0000c	8b f9		 mov	 edi, ecx
  0000e	89 7d f0	 mov	 DWORD PTR _this$[ebp], edi
  00011	8b 35 00 00 00
	00		 mov	 esi, DWORD PTR __imp_??1ioHashString@@QAE@XZ
  00017	8d 4f 44	 lea	 ecx, DWORD PTR [edi+68]
  0001a	c7 45 fc 01 00
	00 00		 mov	 DWORD PTR __$EHRec$[ebp+8], 1
  00021	ff d6		 call	 esi
  00023	8d 4f 30	 lea	 ecx, DWORD PTR [edi+48]
  00026	c6 45 fc 00	 mov	 BYTE PTR __$EHRec$[ebp+8], 0
  0002a	ff d6		 call	 esi
  0002c	83 4d fc ff	 or	 DWORD PTR __$EHRec$[ebp+8], -1
  00030	8d 4f 14	 lea	 ecx, DWORD PTR [edi+20]
  00033	ff d6		 call	 esi
  00035	e8 00 00 00 00	 call	 __EH_epilog3
  0003a	c3		 ret	 0
_TEXT	ENDS
;	COMDAT text$x
text$x	SEGMENT
__unwindfunclet$??1FireTime@@QAE@XZ$0:
  00000	8b 4d f0	 mov	 ecx, DWORD PTR _this$[ebp]
  00003	83 c1 14	 add	 ecx, 20			; 00000014H
  00006	ff 25 00 00 00
	00		 jmp	 DWORD PTR __imp_??1ioHashString@@QAE@XZ
__unwindfunclet$??1FireTime@@QAE@XZ$1:
  0000c	8b 4d f0	 mov	 ecx, DWORD PTR _this$[ebp]
  0000f	83 c1 30	 add	 ecx, 48			; 00000030H
  00012	ff 25 00 00 00
	00		 jmp	 DWORD PTR __imp_??1ioHashString@@QAE@XZ
__ehhandler$??1FireTime@@QAE@XZ:
  00018	8b 54 24 08	 mov	 edx, DWORD PTR [esp+8]
  0001c	8d 42 0c	 lea	 eax, DWORD PTR [edx+12]
  0001f	8b 4a ec	 mov	 ecx, DWORD PTR [edx-20]
  00022	33 c8		 xor	 ecx, eax
  00024	e8 00 00 00 00	 call	 @__security_check_cookie@4
  00029	b8 00 00 00 00	 mov	 eax, OFFSET __ehfuncinfo$??1FireTime@@QAE@XZ
  0002e	e9 00 00 00 00	 jmp	 ___CxxFrameHandler3
text$x	ENDS
??1FireTime@@QAE@XZ ENDP				; FireTime::~FireTime
PUBLIC	??A?$vector@VioHashString@@V?$allocator@VioHashString@@@std@@@std@@QAEAAVioHashString@@I@Z ; std::vector<ioHashString,std::allocator<ioHashString> >::operator[]
; Function compile flags: /Ogsp
; File c:\program files (x86)\microsoft visual studio 10.0\vc\include\vector
;	COMDAT ??A?$vector@VioHashString@@V?$allocator@VioHashString@@@std@@@std@@QAEAAVioHashString@@I@Z
_TEXT	SEGMENT
__Pos$ = 8						; size = 4
??A?$vector@VioHashString@@V?$allocator@VioHashString@@@std@@@std@@QAEAAVioHashString@@I@Z PROC ; std::vector<ioHashString,std::allocator<ioHashString> >::operator[], COMDAT
; _this$ = ecx

; 928  : 		{	// subscript mutable sequence

  00000	55		 push	 ebp
  00001	8b ec		 mov	 ebp, esp

; 929  :  #if _ITERATOR_DEBUG_LEVEL == 2
; 930  : 		if (size() <= _Pos)
; 931  : 			{	// report error
; 932  : 			_DEBUG_ERROR("vector subscript out of range");
; 933  : 			_SCL_SECURE_OUT_OF_RANGE;
; 934  : 			}
; 935  : 
; 936  :  #elif _ITERATOR_DEBUG_LEVEL == 1
; 937  : 		_SCL_SECURE_VALIDATE_RANGE(_Pos < size());
; 938  :  #endif /* _ITERATOR_DEBUG_LEVEL */
; 939  : 
; 940  : 		return (*(this->_Myfirst + _Pos));

  00003	8b 45 08	 mov	 eax, DWORD PTR __Pos$[ebp]
  00006	c1 e0 04	 shl	 eax, 4
  00009	03 01		 add	 eax, DWORD PTR [ecx]

; 941  : 		}

  0000b	5d		 pop	 ebp
  0000c	c2 04 00	 ret	 4
??A?$vector@VioHashString@@V?$allocator@VioHashString@@@std@@@std@@QAEAAVioHashString@@I@Z ENDP ; std::vector<ioHashString,std::allocator<ioHashString> >::operator[]
_TEXT	ENDS
PUBLIC	?size@?$vector@PAVioBaseChar@@V?$allocator@PAVioBaseChar@@@std@@@std@@QBEIXZ ; std::vector<ioBaseChar *,std::allocator<ioBaseChar *> >::size
; Function compile flags: /Ogsp
;	COMDAT ?size@?$vector@PAVioBaseChar@@V?$allocator@PAVioBaseChar@@@std@@@std@@QBEIXZ
_TEXT	SEGMENT
?size@?$vector@PAVioBaseChar@@V?$allocator@PAVioBaseChar@@@std@@@std@@QBEIXZ PROC ; std::vector<ioBaseChar *,std::allocator<ioBaseChar *> >::size, COMDAT
; _this$ = ecx

; 879  : 		return (this->_Mylast - this->_Myfirst);

  00000	8b 41 04	 mov	 eax, DWORD PTR [ecx+4]
  00003	2b 01		 sub	 eax, DWORD PTR [ecx]
  00005	c1 f8 02	 sar	 eax, 2

; 880  : 		}

  00008	c3		 ret	 0
?size@?$vector@PAVioBaseChar@@V?$allocator@PAVioBaseChar@@@std@@@std@@QBEIXZ ENDP ; std::vector<ioBaseChar *,std::allocator<ioBaseChar *> >::size
_TEXT	ENDS
PUBLIC	?empty@?$vector@PAVioBaseChar@@V?$allocator@PAVioBaseChar@@@std@@@std@@QBE_NXZ ; std::vector<ioBaseChar *,std::allocator<ioBaseChar *> >::empty
; Function compile flags: /Ogsp
;	COMDAT ?empty@?$vector@PAVioBaseChar@@V?$allocator@PAVioBaseChar@@@std@@@std@@QBE_NXZ
_TEXT	SEGMENT
?empty@?$vector@PAVioBaseChar@@V?$allocator@PAVioBaseChar@@@std@@@std@@QBE_NXZ PROC ; std::vector<ioBaseChar *,std::allocator<ioBaseChar *> >::empty, COMDAT
; _this$ = ecx

; 889  : 		return (this->_Myfirst == this->_Mylast);

  00000	8b 01		 mov	 eax, DWORD PTR [ecx]
  00002	2b 41 04	 sub	 eax, DWORD PTR [ecx+4]
  00005	f7 d8		 neg	 eax
  00007	1b c0		 sbb	 eax, eax
  00009	40		 inc	 eax

; 890  : 		}

  0000a	c3		 ret	 0
?empty@?$vector@PAVioBaseChar@@V?$allocator@PAVioBaseChar@@@std@@@std@@QBE_NXZ ENDP ; std::vector<ioBaseChar *,std::allocator<ioBaseChar *> >::empty
_TEXT	ENDS
PUBLIC	??0D3DXVECTOR3@@QAE@XZ				; D3DXVECTOR3::D3DXVECTOR3
; Function compile flags: /Ogsp
; File c:\program files (x86)\microsoft directx sdk (june 2010)\include\d3dx9math.h
;	COMDAT ??0D3DXVECTOR3@@QAE@XZ
_TEXT	SEGMENT
??0D3DXVECTOR3@@QAE@XZ PROC				; D3DXVECTOR3::D3DXVECTOR3, COMDAT
; _this$ = ecx

; 165  :     D3DXVECTOR3() {};

  00000	8b c1		 mov	 eax, ecx
  00002	c3		 ret	 0
??0D3DXVECTOR3@@QAE@XZ ENDP				; D3DXVECTOR3::D3DXVECTOR3
_TEXT	ENDS
PUBLIC	?empty@?$vector@UDistInfo@ioOwnerAttach5Dummy@@V?$allocator@UDistInfo@ioOwnerAttach5Dummy@@@std@@@std@@QBE_NXZ ; std::vector<ioOwnerAttach5Dummy::DistInfo,std::allocator<ioOwnerAttach5Dummy::DistInfo> >::empty
; Function compile flags: /Ogsp
; File c:\program files (x86)\microsoft visual studio 10.0\vc\include\vector
;	COMDAT ?empty@?$vector@UDistInfo@ioOwnerAttach5Dummy@@V?$allocator@UDistInfo@ioOwnerAttach5Dummy@@@std@@@std@@QBE_NXZ
_TEXT	SEGMENT
?empty@?$vector@UDistInfo@ioOwnerAttach5Dummy@@V?$allocator@UDistInfo@ioOwnerAttach5Dummy@@@std@@@std@@QBE_NXZ PROC ; std::vector<ioOwnerAttach5Dummy::DistInfo,std::allocator<ioOwnerAttach5Dummy::DistInfo> >::empty, COMDAT
; _this$ = ecx

; 889  : 		return (this->_Myfirst == this->_Mylast);

  00000	8b 01		 mov	 eax, DWORD PTR [ecx]
  00002	2b 41 04	 sub	 eax, DWORD PTR [ecx+4]
  00005	f7 d8		 neg	 eax
  00007	1b c0		 sbb	 eax, eax
  00009	40		 inc	 eax

; 890  : 		}

  0000a	c3		 ret	 0
?empty@?$vector@UDistInfo@ioOwnerAttach5Dummy@@V?$allocator@UDistInfo@ioOwnerAttach5Dummy@@@std@@@std@@QBE_NXZ ENDP ; std::vector<ioOwnerAttach5Dummy::DistInfo,std::allocator<ioOwnerAttach5Dummy::DistInfo> >::empty
_TEXT	ENDS
PUBLIC	??A?$vector@UDistInfo@ioOwnerAttach5Dummy@@V?$allocator@UDistInfo@ioOwnerAttach5Dummy@@@std@@@std@@QAEAAUDistInfo@ioOwnerAttach5Dummy@@I@Z ; std::vector<ioOwnerAttach5Dummy::DistInfo,std::allocator<ioOwnerAttach5Dummy::DistInfo> >::operator[]
; Function compile flags: /Ogsp
;	COMDAT ??A?$vector@UDistInfo@ioOwnerAttach5Dummy@@V?$allocator@UDistInfo@ioOwnerAttach5Dummy@@@std@@@std@@QAEAAUDistInfo@ioOwnerAttach5Dummy@@I@Z
_TEXT	SEGMENT
__Pos$ = 8						; size = 4
??A?$vector@UDistInfo@ioOwnerAttach5Dummy@@V?$allocator@UDistInfo@ioOwnerAttach5Dummy@@@std@@@std@@QAEAAUDistInfo@ioOwnerAttach5Dummy@@I@Z PROC ; std::vector<ioOwnerAttach5Dummy::DistInfo,std::allocator<ioOwnerAttach5Dummy::DistInfo> >::operator[], COMDAT
; _this$ = ecx

; 928  : 		{	// subscript mutable sequence

  00000	55		 push	 ebp
  00001	8b ec		 mov	 ebp, esp

; 929  :  #if _ITERATOR_DEBUG_LEVEL == 2
; 930  : 		if (size() <= _Pos)
; 931  : 			{	// report error
; 932  : 			_DEBUG_ERROR("vector subscript out of range");
; 933  : 			_SCL_SECURE_OUT_OF_RANGE;
; 934  : 			}
; 935  : 
; 936  :  #elif _ITERATOR_DEBUG_LEVEL == 1
; 937  : 		_SCL_SECURE_VALIDATE_RANGE(_Pos < size());
; 938  :  #endif /* _ITERATOR_DEBUG_LEVEL */
; 939  : 
; 940  : 		return (*(this->_Myfirst + _Pos));

  00003	8b 01		 mov	 eax, DWORD PTR [ecx]
  00005	8b 4d 08	 mov	 ecx, DWORD PTR __Pos$[ebp]
  00008	8d 04 c8	 lea	 eax, DWORD PTR [eax+ecx*8]

; 941  : 		}

  0000b	5d		 pop	 ebp
  0000c	c2 04 00	 ret	 4
??A?$vector@UDistInfo@ioOwnerAttach5Dummy@@V?$allocator@UDistInfo@ioOwnerAttach5Dummy@@@std@@@std@@QAEAAUDistInfo@ioOwnerAttach5Dummy@@I@Z ENDP ; std::vector<ioOwnerAttach5Dummy::DistInfo,std::allocator<ioOwnerAttach5Dummy::DistInfo> >::operator[]
_TEXT	ENDS
PUBLIC	??0D3DXVECTOR3@@QAE@MMM@Z			; D3DXVECTOR3::D3DXVECTOR3
; Function compile flags: /Ogsp
; File c:\program files (x86)\microsoft directx sdk (june 2010)\include\d3dx9math.inl
;	COMDAT ??0D3DXVECTOR3@@QAE@MMM@Z
_TEXT	SEGMENT
_fx$ = 8						; size = 4
_fy$ = 12						; size = 4
_fz$ = 16						; size = 4
??0D3DXVECTOR3@@QAE@MMM@Z PROC				; D3DXVECTOR3::D3DXVECTOR3, COMDAT
; _this$ = ecx

; 303  : {

  00000	55		 push	 ebp
  00001	8b ec		 mov	 ebp, esp

; 304  :     x = fx;

  00003	f3 0f 10 45 08	 movss	 xmm0, DWORD PTR _fx$[ebp]
  00008	8b c1		 mov	 eax, ecx
  0000a	f3 0f 11 00	 movss	 DWORD PTR [eax], xmm0

; 305  :     y = fy;

  0000e	f3 0f 10 45 0c	 movss	 xmm0, DWORD PTR _fy$[ebp]
  00013	f3 0f 11 40 04	 movss	 DWORD PTR [eax+4], xmm0

; 306  :     z = fz;

  00018	f3 0f 10 45 10	 movss	 xmm0, DWORD PTR _fz$[ebp]
  0001d	f3 0f 11 40 08	 movss	 DWORD PTR [eax+8], xmm0

; 307  : }

  00022	5d		 pop	 ebp
  00023	c2 0c 00	 ret	 12			; 0000000cH
??0D3DXVECTOR3@@QAE@MMM@Z ENDP				; D3DXVECTOR3::D3DXVECTOR3
_TEXT	ENDS
PUBLIC	??YD3DXVECTOR3@@QAEAAU0@ABU0@@Z			; D3DXVECTOR3::operator+=
; Function compile flags: /Ogsp
;	COMDAT ??YD3DXVECTOR3@@QAEAAU0@ABU0@@Z
_TEXT	SEGMENT
_v$ = 8							; size = 4
??YD3DXVECTOR3@@QAEAAU0@ABU0@@Z PROC			; D3DXVECTOR3::operator+=, COMDAT
; _this$ = ecx

; 327  : {

  00000	55		 push	 ebp
  00001	8b ec		 mov	 ebp, esp
  00003	8b c1		 mov	 eax, ecx

; 328  :     x += v.x;

  00005	8b 4d 08	 mov	 ecx, DWORD PTR _v$[ebp]
  00008	f3 0f 10 01	 movss	 xmm0, DWORD PTR [ecx]
  0000c	f3 0f 10 08	 movss	 xmm1, DWORD PTR [eax]
  00010	0f 5a c0	 cvtps2pd xmm0, xmm0
  00013	0f 5a c9	 cvtps2pd xmm1, xmm1
  00016	f2 0f 58 c1	 addsd	 xmm0, xmm1

; 329  :     y += v.y;

  0001a	f3 0f 10 48 04	 movss	 xmm1, DWORD PTR [eax+4]
  0001f	66 0f 5a c0	 cvtpd2ps xmm0, xmm0
  00023	f3 0f 11 00	 movss	 DWORD PTR [eax], xmm0
  00027	f3 0f 10 41 04	 movss	 xmm0, DWORD PTR [ecx+4]
  0002c	0f 5a c0	 cvtps2pd xmm0, xmm0
  0002f	0f 5a c9	 cvtps2pd xmm1, xmm1
  00032	f2 0f 58 c1	 addsd	 xmm0, xmm1

; 330  :     z += v.z;

  00036	f3 0f 10 48 08	 movss	 xmm1, DWORD PTR [eax+8]
  0003b	66 0f 5a c0	 cvtpd2ps xmm0, xmm0
  0003f	f3 0f 11 40 04	 movss	 DWORD PTR [eax+4], xmm0
  00044	f3 0f 10 41 08	 movss	 xmm0, DWORD PTR [ecx+8]
  00049	0f 5a c0	 cvtps2pd xmm0, xmm0
  0004c	0f 5a c9	 cvtps2pd xmm1, xmm1
  0004f	f2 0f 58 c1	 addsd	 xmm0, xmm1
  00053	66 0f 5a c0	 cvtpd2ps xmm0, xmm0
  00057	f3 0f 11 40 08	 movss	 DWORD PTR [eax+8], xmm0

; 331  :     return *this;
; 332  : }

  0005c	5d		 pop	 ebp
  0005d	c2 04 00	 ret	 4
??YD3DXVECTOR3@@QAEAAU0@ABU0@@Z ENDP			; D3DXVECTOR3::operator+=
_TEXT	ENDS
PUBLIC	??0?$_Vector_const_iterator@V?$_Vector_val@PAVioBaseChar@@V?$allocator@PAVioBaseChar@@@std@@@std@@@std@@QAE@XZ ; std::_Vector_const_iterator<std::_Vector_val<ioBaseChar *,std::allocator<ioBaseChar *> > >::_Vector_const_iterator<std::_Vector_val<ioBaseChar *,std::allocator<ioBaseChar *> > >
; Function compile flags: /Ogsp
; File c:\program files (x86)\microsoft visual studio 10.0\vc\include\vector
;	COMDAT ??0?$_Vector_const_iterator@V?$_Vector_val@PAVioBaseChar@@V?$allocator@PAVioBaseChar@@@std@@@std@@@std@@QAE@XZ
_TEXT	SEGMENT
??0?$_Vector_const_iterator@V?$_Vector_val@PAVioBaseChar@@V?$allocator@PAVioBaseChar@@@std@@@std@@@std@@QAE@XZ PROC ; std::_Vector_const_iterator<std::_Vector_val<ioBaseChar *,std::allocator<ioBaseChar *> > >::_Vector_const_iterator<std::_Vector_val<ioBaseChar *,std::allocator<ioBaseChar *> > >, COMDAT
; _this$ = ecx

; 40   : 		{	// construct with null pointer

  00000	8b c1		 mov	 eax, ecx
  00002	83 20 00	 and	 DWORD PTR [eax], 0

; 41   : 		}

  00005	c3		 ret	 0
??0?$_Vector_const_iterator@V?$_Vector_val@PAVioBaseChar@@V?$allocator@PAVioBaseChar@@@std@@@std@@@std@@QAE@XZ ENDP ; std::_Vector_const_iterator<std::_Vector_val<ioBaseChar *,std::allocator<ioBaseChar *> > >::_Vector_const_iterator<std::_Vector_val<ioBaseChar *,std::allocator<ioBaseChar *> > >
_TEXT	ENDS
PUBLIC	??D?$_Vector_const_iterator@V?$_Vector_val@PAVioBaseChar@@V?$allocator@PAVioBaseChar@@@std@@@std@@@std@@QBEABQAVioBaseChar@@XZ ; std::_Vector_const_iterator<std::_Vector_val<ioBaseChar *,std::allocator<ioBaseChar *> > >::operator*
; Function compile flags: /Ogsp
;	COMDAT ??D?$_Vector_const_iterator@V?$_Vector_val@PAVioBaseChar@@V?$allocator@PAVioBaseChar@@@std@@@std@@@std@@QBEABQAVioBaseChar@@XZ
_TEXT	SEGMENT
??D?$_Vector_const_iterator@V?$_Vector_val@PAVioBaseChar@@V?$allocator@PAVioBaseChar@@@std@@@std@@@std@@QBEABQAVioBaseChar@@XZ PROC ; std::_Vector_const_iterator<std::_Vector_val<ioBaseChar *,std::allocator<ioBaseChar *> > >::operator*, COMDAT
; _this$ = ecx

; 64   :  #if _ITERATOR_DEBUG_LEVEL == 2
; 65   : 		if (this->_Getcont() == 0
; 66   : 			|| this->_Ptr == 0
; 67   : 			|| this->_Ptr < ((_Myvec *)this->_Getcont())->_Myfirst
; 68   : 			|| ((_Myvec *)this->_Getcont())->_Mylast <= this->_Ptr)
; 69   : 			{	// report error
; 70   : 			_DEBUG_ERROR("vector iterator not dereferencable");
; 71   : 			_SCL_SECURE_OUT_OF_RANGE;
; 72   : 			}
; 73   : 
; 74   :  #elif _ITERATOR_DEBUG_LEVEL == 1
; 75   : 		_SCL_SECURE_VALIDATE(this->_Getcont() != 0);
; 76   : 		_SCL_SECURE_VALIDATE_RANGE(
; 77   : 			this->_Ptr != 0
; 78   : 			&& ((_Myvec *)this->_Getcont())->_Myfirst <= this->_Ptr
; 79   : 			&& this->_Ptr < ((_Myvec *)this->_Getcont())->_Mylast);
; 80   :  #endif /* _ITERATOR_DEBUG_LEVEL */
; 81   : 
; 82   : 		__analysis_assume(this->_Ptr != 0);
; 83   : 
; 84   : 		return (*this->_Ptr);

  00000	8b 01		 mov	 eax, DWORD PTR [ecx]

; 85   : 		}

  00002	c3		 ret	 0
??D?$_Vector_const_iterator@V?$_Vector_val@PAVioBaseChar@@V?$allocator@PAVioBaseChar@@@std@@@std@@@std@@QBEABQAVioBaseChar@@XZ ENDP ; std::_Vector_const_iterator<std::_Vector_val<ioBaseChar *,std::allocator<ioBaseChar *> > >::operator*
_TEXT	ENDS
PUBLIC	??E?$_Vector_const_iterator@V?$_Vector_val@PAVioBaseChar@@V?$allocator@PAVioBaseChar@@@std@@@std@@@std@@QAEAAV01@XZ ; std::_Vector_const_iterator<std::_Vector_val<ioBaseChar *,std::allocator<ioBaseChar *> > >::operator++
; Function compile flags: /Ogsp
;	COMDAT ??E?$_Vector_const_iterator@V?$_Vector_val@PAVioBaseChar@@V?$allocator@PAVioBaseChar@@@std@@@std@@@std@@QAEAAV01@XZ
_TEXT	SEGMENT
??E?$_Vector_const_iterator@V?$_Vector_val@PAVioBaseChar@@V?$allocator@PAVioBaseChar@@@std@@@std@@@std@@QAEAAV01@XZ PROC ; std::_Vector_const_iterator<std::_Vector_val<ioBaseChar *,std::allocator<ioBaseChar *> > >::operator++, COMDAT
; _this$ = ecx

; 93   : 		{	// preincrement

  00000	8b c1		 mov	 eax, ecx

; 94   :  #if _ITERATOR_DEBUG_LEVEL == 2
; 95   : 		if (this->_Getcont() == 0
; 96   : 			|| this->_Ptr == 0
; 97   : 			|| ((_Myvec *)this->_Getcont())->_Mylast <= this->_Ptr)
; 98   : 			{	// report error
; 99   : 			_DEBUG_ERROR("vector iterator not incrementable");
; 100  : 			_SCL_SECURE_OUT_OF_RANGE;
; 101  : 			}
; 102  : 
; 103  :  #elif _ITERATOR_DEBUG_LEVEL == 1
; 104  : 		_SCL_SECURE_VALIDATE(this->_Getcont() != 0);
; 105  : 		_SCL_SECURE_VALIDATE_RANGE(
; 106  : 			this->_Ptr != 0
; 107  : 			&& this->_Ptr < ((_Myvec *)this->_Getcont())->_Mylast);
; 108  :  #endif /* _ITERATOR_DEBUG_LEVEL */
; 109  : 
; 110  : 		++this->_Ptr;

  00002	83 00 04	 add	 DWORD PTR [eax], 4

; 111  : 		return (*this);
; 112  : 		}

  00005	c3		 ret	 0
??E?$_Vector_const_iterator@V?$_Vector_val@PAVioBaseChar@@V?$allocator@PAVioBaseChar@@@std@@@std@@@std@@QAEAAV01@XZ ENDP ; std::_Vector_const_iterator<std::_Vector_val<ioBaseChar *,std::allocator<ioBaseChar *> > >::operator++
_TEXT	ENDS
PUBLIC	??HD3DXVECTOR3@@QBE?AU0@ABU0@@Z			; D3DXVECTOR3::operator+
; Function compile flags: /Ogsp
; File c:\program files (x86)\microsoft directx sdk (june 2010)\include\d3dx9math.inl
;	COMDAT ??HD3DXVECTOR3@@QBE?AU0@ABU0@@Z
_TEXT	SEGMENT
___$ReturnUdt$ = 8					; size = 4
_v$ = 12						; size = 4
??HD3DXVECTOR3@@QBE?AU0@ABU0@@Z PROC			; D3DXVECTOR3::operator+, COMDAT
; _this$ = ecx

; 380  : {

  00000	55		 push	 ebp
  00001	8b ec		 mov	 ebp, esp

; 381  :     return D3DXVECTOR3(x + v.x, y + v.y, z + v.z);

  00003	8b 55 0c	 mov	 edx, DWORD PTR _v$[ebp]
  00006	f3 0f 10 02	 movss	 xmm0, DWORD PTR [edx]
  0000a	f3 0f 10 09	 movss	 xmm1, DWORD PTR [ecx]
  0000e	8b 45 08	 mov	 eax, DWORD PTR ___$ReturnUdt$[ebp]
  00011	0f 5a c0	 cvtps2pd xmm0, xmm0
  00014	0f 5a c9	 cvtps2pd xmm1, xmm1
  00017	f2 0f 58 c1	 addsd	 xmm0, xmm1
  0001b	f3 0f 10 49 04	 movss	 xmm1, DWORD PTR [ecx+4]
  00020	66 0f 5a c0	 cvtpd2ps xmm0, xmm0
  00024	f3 0f 11 00	 movss	 DWORD PTR [eax], xmm0
  00028	f3 0f 10 42 04	 movss	 xmm0, DWORD PTR [edx+4]
  0002d	0f 5a c0	 cvtps2pd xmm0, xmm0
  00030	0f 5a c9	 cvtps2pd xmm1, xmm1
  00033	f2 0f 58 c1	 addsd	 xmm0, xmm1
  00037	f3 0f 10 49 08	 movss	 xmm1, DWORD PTR [ecx+8]
  0003c	66 0f 5a c0	 cvtpd2ps xmm0, xmm0
  00040	f3 0f 11 40 04	 movss	 DWORD PTR [eax+4], xmm0
  00045	f3 0f 10 42 08	 movss	 xmm0, DWORD PTR [edx+8]
  0004a	0f 5a c0	 cvtps2pd xmm0, xmm0
  0004d	0f 5a c9	 cvtps2pd xmm1, xmm1
  00050	f2 0f 58 c1	 addsd	 xmm0, xmm1
  00054	66 0f 5a c0	 cvtpd2ps xmm0, xmm0
  00058	f3 0f 11 40 08	 movss	 DWORD PTR [eax+8], xmm0

; 382  : }

  0005d	5d		 pop	 ebp
  0005e	c2 08 00	 ret	 8
??HD3DXVECTOR3@@QBE?AU0@ABU0@@Z ENDP			; D3DXVECTOR3::operator+
_TEXT	ENDS
PUBLIC	??GD3DXVECTOR3@@QBE?AU0@ABU0@@Z			; D3DXVECTOR3::operator-
; Function compile flags: /Ogsp
;	COMDAT ??GD3DXVECTOR3@@QBE?AU0@ABU0@@Z
_TEXT	SEGMENT
___$ReturnUdt$ = 8					; size = 4
_v$ = 12						; size = 4
??GD3DXVECTOR3@@QBE?AU0@ABU0@@Z PROC			; D3DXVECTOR3::operator-, COMDAT
; _this$ = ecx

; 386  : {

  00000	55		 push	 ebp
  00001	8b ec		 mov	 ebp, esp

; 387  :     return D3DXVECTOR3(x - v.x, y - v.y, z - v.z);

  00003	8b 55 0c	 mov	 edx, DWORD PTR _v$[ebp]
  00006	f3 0f 10 01	 movss	 xmm0, DWORD PTR [ecx]
  0000a	f3 0f 10 0a	 movss	 xmm1, DWORD PTR [edx]
  0000e	8b 45 08	 mov	 eax, DWORD PTR ___$ReturnUdt$[ebp]
  00011	0f 5a c0	 cvtps2pd xmm0, xmm0
  00014	0f 5a c9	 cvtps2pd xmm1, xmm1
  00017	f2 0f 5c c1	 subsd	 xmm0, xmm1
  0001b	f3 0f 10 4a 04	 movss	 xmm1, DWORD PTR [edx+4]
  00020	66 0f 5a c0	 cvtpd2ps xmm0, xmm0
  00024	f3 0f 11 00	 movss	 DWORD PTR [eax], xmm0
  00028	f3 0f 10 41 04	 movss	 xmm0, DWORD PTR [ecx+4]
  0002d	0f 5a c0	 cvtps2pd xmm0, xmm0
  00030	0f 5a c9	 cvtps2pd xmm1, xmm1
  00033	f2 0f 5c c1	 subsd	 xmm0, xmm1
  00037	f3 0f 10 4a 08	 movss	 xmm1, DWORD PTR [edx+8]
  0003c	66 0f 5a c0	 cvtpd2ps xmm0, xmm0
  00040	f3 0f 11 40 04	 movss	 DWORD PTR [eax+4], xmm0
  00045	f3 0f 10 41 08	 movss	 xmm0, DWORD PTR [ecx+8]
  0004a	0f 5a c0	 cvtps2pd xmm0, xmm0
  0004d	0f 5a c9	 cvtps2pd xmm1, xmm1
  00050	f2 0f 5c c1	 subsd	 xmm0, xmm1
  00054	66 0f 5a c0	 cvtpd2ps xmm0, xmm0
  00058	f3 0f 11 40 08	 movss	 DWORD PTR [eax+8], xmm0

; 388  : }

  0005d	5d		 pop	 ebp
  0005e	c2 08 00	 ret	 8
??GD3DXVECTOR3@@QBE?AU0@ABU0@@Z ENDP			; D3DXVECTOR3::operator-
_TEXT	ENDS
PUBLIC	?capacity@?$vector@VioHashString@@V?$allocator@VioHashString@@@std@@@std@@QBEIXZ ; std::vector<ioHashString,std::allocator<ioHashString> >::capacity
; Function compile flags: /Ogsp
; File c:\program files (x86)\microsoft visual studio 10.0\vc\include\vector
;	COMDAT ?capacity@?$vector@VioHashString@@V?$allocator@VioHashString@@@std@@@std@@QBEIXZ
_TEXT	SEGMENT
?capacity@?$vector@VioHashString@@V?$allocator@VioHashString@@@std@@@std@@QBEIXZ PROC ; std::vector<ioHashString,std::allocator<ioHashString> >::capacity, COMDAT
; _this$ = ecx

; 777  : 		return (this->_Myend - this->_Myfirst);

  00000	8b 41 08	 mov	 eax, DWORD PTR [ecx+8]
  00003	2b 01		 sub	 eax, DWORD PTR [ecx]
  00005	c1 f8 04	 sar	 eax, 4

; 778  : 		}

  00008	c3		 ret	 0
?capacity@?$vector@VioHashString@@V?$allocator@VioHashString@@@std@@@std@@QBEIXZ ENDP ; std::vector<ioHashString,std::allocator<ioHashString> >::capacity
_TEXT	ENDS
PUBLIC	?_Inside@?$vector@VioHashString@@V?$allocator@VioHashString@@@std@@@std@@IBE_NPBVioHashString@@@Z ; std::vector<ioHashString,std::allocator<ioHashString> >::_Inside
; Function compile flags: /Ogsp
;	COMDAT ?_Inside@?$vector@VioHashString@@V?$allocator@VioHashString@@@std@@@std@@IBE_NPBVioHashString@@@Z
_TEXT	SEGMENT
__Ptr$ = 8						; size = 4
?_Inside@?$vector@VioHashString@@V?$allocator@VioHashString@@@std@@@std@@IBE_NPBVioHashString@@@Z PROC ; std::vector<ioHashString,std::allocator<ioHashString> >::_Inside, COMDAT
; _this$ = ecx

; 1285 : 		{	// test if _Ptr points inside vector

  00000	55		 push	 ebp
  00001	8b ec		 mov	 ebp, esp

; 1286 : 		return (_Ptr < this->_Mylast && this->_Myfirst <= _Ptr);

  00003	8b 45 08	 mov	 eax, DWORD PTR __Ptr$[ebp]
  00006	3b 41 04	 cmp	 eax, DWORD PTR [ecx+4]
  00009	73 09		 jae	 SHORT $LN3@Inside
  0000b	39 01		 cmp	 DWORD PTR [ecx], eax
  0000d	77 05		 ja	 SHORT $LN3@Inside
  0000f	33 c0		 xor	 eax, eax
  00011	40		 inc	 eax
  00012	eb 02		 jmp	 SHORT $LN4@Inside
$LN3@Inside:
  00014	33 c0		 xor	 eax, eax
$LN4@Inside:

; 1287 : 		}

  00016	5d		 pop	 ebp
  00017	c2 04 00	 ret	 4
?_Inside@?$vector@VioHashString@@V?$allocator@VioHashString@@@std@@@std@@IBE_NPBVioHashString@@@Z ENDP ; std::vector<ioHashString,std::allocator<ioHashString> >::_Inside
_TEXT	ENDS
PUBLIC	??DD3DXVECTOR3@@QBE?AU0@M@Z			; D3DXVECTOR3::operator*
; Function compile flags: /Ogsp
; File c:\program files (x86)\microsoft directx sdk (june 2010)\include\d3dx9math.inl
;	COMDAT ??DD3DXVECTOR3@@QBE?AU0@M@Z
_TEXT	SEGMENT
___$ReturnUdt$ = 8					; size = 4
_f$ = 12						; size = 4
??DD3DXVECTOR3@@QBE?AU0@M@Z PROC			; D3DXVECTOR3::operator*, COMDAT
; _this$ = ecx

; 392  : {

  00000	55		 push	 ebp
  00001	8b ec		 mov	 ebp, esp

; 393  :     return D3DXVECTOR3(x * f, y * f, z * f);

  00003	f3 0f 10 4d 0c	 movss	 xmm1, DWORD PTR _f$[ebp]
  00008	f3 0f 10 01	 movss	 xmm0, DWORD PTR [ecx]
  0000c	8b 45 08	 mov	 eax, DWORD PTR ___$ReturnUdt$[ebp]
  0000f	0f 5a c0	 cvtps2pd xmm0, xmm0
  00012	0f 5a c9	 cvtps2pd xmm1, xmm1
  00015	f2 0f 59 c1	 mulsd	 xmm0, xmm1
  00019	f3 0f 10 4d 0c	 movss	 xmm1, DWORD PTR _f$[ebp]
  0001e	66 0f 5a c0	 cvtpd2ps xmm0, xmm0
  00022	f3 0f 11 00	 movss	 DWORD PTR [eax], xmm0
  00026	f3 0f 10 41 04	 movss	 xmm0, DWORD PTR [ecx+4]
  0002b	0f 5a c0	 cvtps2pd xmm0, xmm0
  0002e	0f 5a c9	 cvtps2pd xmm1, xmm1
  00031	f2 0f 59 c1	 mulsd	 xmm0, xmm1
  00035	f3 0f 10 4d 0c	 movss	 xmm1, DWORD PTR _f$[ebp]
  0003a	66 0f 5a c0	 cvtpd2ps xmm0, xmm0
  0003e	f3 0f 11 40 04	 movss	 DWORD PTR [eax+4], xmm0
  00043	f3 0f 10 41 08	 movss	 xmm0, DWORD PTR [ecx+8]
  00048	0f 5a c0	 cvtps2pd xmm0, xmm0
  0004b	0f 5a c9	 cvtps2pd xmm1, xmm1
  0004e	f2 0f 59 c1	 mulsd	 xmm0, xmm1
  00052	66 0f 5a c0	 cvtpd2ps xmm0, xmm0
  00056	f3 0f 11 40 08	 movss	 DWORD PTR [eax+8], xmm0

; 394  : }

  0005b	5d		 pop	 ebp
  0005c	c2 08 00	 ret	 8
??DD3DXVECTOR3@@QBE?AU0@M@Z ENDP			; D3DXVECTOR3::operator*
_TEXT	ENDS
PUBLIC	?_Orphan_range@?$vector@VioHashString@@V?$allocator@VioHashString@@@std@@@std@@IBEXPAVioHashString@@0@Z ; std::vector<ioHashString,std::allocator<ioHashString> >::_Orphan_range
; Function compile flags: /Ogsp
; File c:\program files (x86)\microsoft visual studio 10.0\vc\include\vector
;	COMDAT ?_Orphan_range@?$vector@VioHashString@@V?$allocator@VioHashString@@@std@@@std@@IBEXPAVioHashString@@0@Z
_TEXT	SEGMENT
___formal$ = 8						; size = 4
___formal$ = 12						; size = 4
?_Orphan_range@?$vector@VioHashString@@V?$allocator@VioHashString@@@std@@@std@@IBEXPAVioHashString@@0@Z PROC ; std::vector<ioHashString,std::allocator<ioHashString> >::_Orphan_range, COMDAT
; _this$ = ecx

; 1454 : 		}

  00000	c2 08 00	 ret	 8
?_Orphan_range@?$vector@VioHashString@@V?$allocator@VioHashString@@@std@@@std@@IBEXPAVioHashString@@0@Z ENDP ; std::vector<ioHashString,std::allocator<ioHashString> >::_Orphan_range
_TEXT	ENDS
PUBLIC	??D@YA?AUD3DXVECTOR3@@MABU0@@Z			; operator*
; Function compile flags: /Ogsp
; File c:\program files (x86)\microsoft directx sdk (june 2010)\include\d3dx9math.inl
;	COMDAT ??D@YA?AUD3DXVECTOR3@@MABU0@@Z
_TEXT	SEGMENT
___$ReturnUdt$ = 8					; size = 4
_f$ = 12						; size = 4
_v$ = 16						; size = 4
??D@YA?AUD3DXVECTOR3@@MABU0@@Z PROC			; operator*, COMDAT

; 406  : {

  00000	55		 push	 ebp
  00001	8b ec		 mov	 ebp, esp

; 407  :     return D3DXVECTOR3(f * v.x, f * v.y, f * v.z);

  00003	8b 4d 10	 mov	 ecx, DWORD PTR _v$[ebp]
  00006	f3 0f 10 4d 0c	 movss	 xmm1, DWORD PTR _f$[ebp]
  0000b	f3 0f 10 01	 movss	 xmm0, DWORD PTR [ecx]
  0000f	8b 45 08	 mov	 eax, DWORD PTR ___$ReturnUdt$[ebp]
  00012	0f 5a c0	 cvtps2pd xmm0, xmm0
  00015	0f 5a c9	 cvtps2pd xmm1, xmm1
  00018	f2 0f 59 c1	 mulsd	 xmm0, xmm1
  0001c	f3 0f 10 4d 0c	 movss	 xmm1, DWORD PTR _f$[ebp]
  00021	66 0f 5a c0	 cvtpd2ps xmm0, xmm0
  00025	f3 0f 11 00	 movss	 DWORD PTR [eax], xmm0
  00029	f3 0f 10 41 04	 movss	 xmm0, DWORD PTR [ecx+4]
  0002e	0f 5a c0	 cvtps2pd xmm0, xmm0
  00031	0f 5a c9	 cvtps2pd xmm1, xmm1
  00034	f2 0f 59 c1	 mulsd	 xmm0, xmm1
  00038	f3 0f 10 4d 0c	 movss	 xmm1, DWORD PTR _f$[ebp]
  0003d	66 0f 5a c0	 cvtpd2ps xmm0, xmm0
  00041	f3 0f 11 40 04	 movss	 DWORD PTR [eax+4], xmm0
  00046	f3 0f 10 41 08	 movss	 xmm0, DWORD PTR [ecx+8]
  0004b	0f 5a c0	 cvtps2pd xmm0, xmm0
  0004e	0f 5a c9	 cvtps2pd xmm1, xmm1
  00051	f2 0f 59 c1	 mulsd	 xmm0, xmm1
  00055	66 0f 5a c0	 cvtpd2ps xmm0, xmm0
  00059	f3 0f 11 40 08	 movss	 DWORD PTR [eax+8], xmm0

; 408  : }

  0005e	5d		 pop	 ebp
  0005f	c3		 ret	 0
??D@YA?AUD3DXVECTOR3@@MABU0@@Z ENDP			; operator*
_TEXT	ENDS
PUBLIC	??9D3DXVECTOR3@@QBEHABU0@@Z			; D3DXVECTOR3::operator!=
; Function compile flags: /Ogsp
;	COMDAT ??9D3DXVECTOR3@@QBEHABU0@@Z
_TEXT	SEGMENT
_v$ = 8							; size = 4
??9D3DXVECTOR3@@QBEHABU0@@Z PROC			; D3DXVECTOR3::operator!=, COMDAT
; _this$ = ecx

; 419  : {

  00000	55		 push	 ebp
  00001	8b ec		 mov	 ebp, esp

; 420  :     return x != v.x || y != v.y || z != v.z;

  00003	8b 55 08	 mov	 edx, DWORD PTR _v$[ebp]
  00006	f3 0f 10 01	 movss	 xmm0, DWORD PTR [ecx]
  0000a	f3 0f 10 0a	 movss	 xmm1, DWORD PTR [edx]
  0000e	0f 5a c0	 cvtps2pd xmm0, xmm0
  00011	0f 5a c9	 cvtps2pd xmm1, xmm1
  00014	66 0f 2e c1	 ucomisd xmm0, xmm1
  00018	9f		 lahf
  00019	f6 c4 44	 test	 ah, 68			; 00000044H
  0001c	7a 38		 jp	 SHORT $LN3@operator@2
  0001e	f3 0f 10 41 04	 movss	 xmm0, DWORD PTR [ecx+4]
  00023	f3 0f 10 4a 04	 movss	 xmm1, DWORD PTR [edx+4]
  00028	0f 5a c0	 cvtps2pd xmm0, xmm0
  0002b	0f 5a c9	 cvtps2pd xmm1, xmm1
  0002e	66 0f 2e c1	 ucomisd xmm0, xmm1
  00032	9f		 lahf
  00033	f6 c4 44	 test	 ah, 68			; 00000044H
  00036	7a 1e		 jp	 SHORT $LN3@operator@2
  00038	f3 0f 10 41 08	 movss	 xmm0, DWORD PTR [ecx+8]
  0003d	f3 0f 10 4a 08	 movss	 xmm1, DWORD PTR [edx+8]
  00042	0f 5a c0	 cvtps2pd xmm0, xmm0
  00045	0f 5a c9	 cvtps2pd xmm1, xmm1
  00048	66 0f 2e c1	 ucomisd xmm0, xmm1
  0004c	9f		 lahf
  0004d	f6 c4 44	 test	 ah, 68			; 00000044H
  00050	7a 04		 jp	 SHORT $LN3@operator@2
  00052	33 c0		 xor	 eax, eax
  00054	eb 03		 jmp	 SHORT $LN4@operator@2
$LN3@operator@2:
  00056	33 c0		 xor	 eax, eax
  00058	40		 inc	 eax
$LN4@operator@2:

; 421  : }

  00059	5d		 pop	 ebp
  0005a	c2 04 00	 ret	 4
??9D3DXVECTOR3@@QBEHABU0@@Z ENDP			; D3DXVECTOR3::operator!=
_TEXT	ENDS
PUBLIC	??1?$_Vector_val@PAVioBaseChar@@V?$allocator@PAVioBaseChar@@@std@@@std@@QAE@XZ ; std::_Vector_val<ioBaseChar *,std::allocator<ioBaseChar *> >::~_Vector_val<ioBaseChar *,std::allocator<ioBaseChar *> >
; Function compile flags: /Ogsp
; File c:\program files (x86)\microsoft visual studio 10.0\vc\include\vector
;	COMDAT ??1?$_Vector_val@PAVioBaseChar@@V?$allocator@PAVioBaseChar@@@std@@@std@@QAE@XZ
_TEXT	SEGMENT
??1?$_Vector_val@PAVioBaseChar@@V?$allocator@PAVioBaseChar@@@std@@@std@@QAE@XZ PROC ; std::_Vector_val<ioBaseChar *,std::allocator<ioBaseChar *> >::~_Vector_val<ioBaseChar *,std::allocator<ioBaseChar *> >, COMDAT
; _this$ = ecx

; 434  : 		}

  00000	c3		 ret	 0
??1?$_Vector_val@PAVioBaseChar@@V?$allocator@PAVioBaseChar@@@std@@@std@@QAE@XZ ENDP ; std::_Vector_val<ioBaseChar *,std::allocator<ioBaseChar *> >::~_Vector_val<ioBaseChar *,std::allocator<ioBaseChar *> >
_TEXT	ENDS
PUBLIC	??0?$allocator@PAVioBaseChar@@@std@@QAE@XZ	; std::allocator<ioBaseChar *>::allocator<ioBaseChar *>
; Function compile flags: /Ogsp
; File c:\program files (x86)\microsoft visual studio 10.0\vc\include\xmemory
;	COMDAT ??0?$allocator@PAVioBaseChar@@@std@@QAE@XZ
_TEXT	SEGMENT
??0?$allocator@PAVioBaseChar@@@std@@QAE@XZ PROC		; std::allocator<ioBaseChar *>::allocator<ioBaseChar *>, COMDAT
; _this$ = ecx

; 161  : 	_ALLOCATOR() _THROW0()

  00000	8b c1		 mov	 eax, ecx

; 162  : 		{	// construct default allocator (do nothing)
; 163  : 		}

  00002	c3		 ret	 0
??0?$allocator@PAVioBaseChar@@@std@@QAE@XZ ENDP		; std::allocator<ioBaseChar *>::allocator<ioBaseChar *>
_TEXT	ENDS
PUBLIC	?capacity@?$vector@UDistInfo@ioOwnerAttach5Dummy@@V?$allocator@UDistInfo@ioOwnerAttach5Dummy@@@std@@@std@@QBEIXZ ; std::vector<ioOwnerAttach5Dummy::DistInfo,std::allocator<ioOwnerAttach5Dummy::DistInfo> >::capacity
; Function compile flags: /Ogsp
; File c:\program files (x86)\microsoft visual studio 10.0\vc\include\vector
;	COMDAT ?capacity@?$vector@UDistInfo@ioOwnerAttach5Dummy@@V?$allocator@UDistInfo@ioOwnerAttach5Dummy@@@std@@@std@@QBEIXZ
_TEXT	SEGMENT
?capacity@?$vector@UDistInfo@ioOwnerAttach5Dummy@@V?$allocator@UDistInfo@ioOwnerAttach5Dummy@@@std@@@std@@QBEIXZ PROC ; std::vector<ioOwnerAttach5Dummy::DistInfo,std::allocator<ioOwnerAttach5Dummy::DistInfo> >::capacity, COMDAT
; _this$ = ecx

; 777  : 		return (this->_Myend - this->_Myfirst);

  00000	8b 41 08	 mov	 eax, DWORD PTR [ecx+8]
  00003	2b 01		 sub	 eax, DWORD PTR [ecx]
  00005	c1 f8 03	 sar	 eax, 3

; 778  : 		}

  00008	c3		 ret	 0
?capacity@?$vector@UDistInfo@ioOwnerAttach5Dummy@@V?$allocator@UDistInfo@ioOwnerAttach5Dummy@@@std@@@std@@QBEIXZ ENDP ; std::vector<ioOwnerAttach5Dummy::DistInfo,std::allocator<ioOwnerAttach5Dummy::DistInfo> >::capacity
_TEXT	ENDS
PUBLIC	?size@?$vector@UDistInfo@ioOwnerAttach5Dummy@@V?$allocator@UDistInfo@ioOwnerAttach5Dummy@@@std@@@std@@QBEIXZ ; std::vector<ioOwnerAttach5Dummy::DistInfo,std::allocator<ioOwnerAttach5Dummy::DistInfo> >::size
; Function compile flags: /Ogsp
;	COMDAT ?size@?$vector@UDistInfo@ioOwnerAttach5Dummy@@V?$allocator@UDistInfo@ioOwnerAttach5Dummy@@@std@@@std@@QBEIXZ
_TEXT	SEGMENT
?size@?$vector@UDistInfo@ioOwnerAttach5Dummy@@V?$allocator@UDistInfo@ioOwnerAttach5Dummy@@@std@@@std@@QBEIXZ PROC ; std::vector<ioOwnerAttach5Dummy::DistInfo,std::allocator<ioOwnerAttach5Dummy::DistInfo> >::size, COMDAT
; _this$ = ecx

; 879  : 		return (this->_Mylast - this->_Myfirst);

  00000	8b 41 04	 mov	 eax, DWORD PTR [ecx+4]
  00003	2b 01		 sub	 eax, DWORD PTR [ecx]
  00005	c1 f8 03	 sar	 eax, 3

; 880  : 		}

  00008	c3		 ret	 0
?size@?$vector@UDistInfo@ioOwnerAttach5Dummy@@V?$allocator@UDistInfo@ioOwnerAttach5Dummy@@@std@@@std@@QBEIXZ ENDP ; std::vector<ioOwnerAttach5Dummy::DistInfo,std::allocator<ioOwnerAttach5Dummy::DistInfo> >::size
_TEXT	ENDS
PUBLIC	?_Inside@?$vector@UDistInfo@ioOwnerAttach5Dummy@@V?$allocator@UDistInfo@ioOwnerAttach5Dummy@@@std@@@std@@IBE_NPBUDistInfo@ioOwnerAttach5Dummy@@@Z ; std::vector<ioOwnerAttach5Dummy::DistInfo,std::allocator<ioOwnerAttach5Dummy::DistInfo> >::_Inside
; Function compile flags: /Ogsp
;	COMDAT ?_Inside@?$vector@UDistInfo@ioOwnerAttach5Dummy@@V?$allocator@UDistInfo@ioOwnerAttach5Dummy@@@std@@@std@@IBE_NPBUDistInfo@ioOwnerAttach5Dummy@@@Z
_TEXT	SEGMENT
__Ptr$ = 8						; size = 4
?_Inside@?$vector@UDistInfo@ioOwnerAttach5Dummy@@V?$allocator@UDistInfo@ioOwnerAttach5Dummy@@@std@@@std@@IBE_NPBUDistInfo@ioOwnerAttach5Dummy@@@Z PROC ; std::vector<ioOwnerAttach5Dummy::DistInfo,std::allocator<ioOwnerAttach5Dummy::DistInfo> >::_Inside, COMDAT
; _this$ = ecx

; 1285 : 		{	// test if _Ptr points inside vector

  00000	55		 push	 ebp
  00001	8b ec		 mov	 ebp, esp

; 1286 : 		return (_Ptr < this->_Mylast && this->_Myfirst <= _Ptr);

  00003	8b 45 08	 mov	 eax, DWORD PTR __Ptr$[ebp]
  00006	3b 41 04	 cmp	 eax, DWORD PTR [ecx+4]
  00009	73 09		 jae	 SHORT $LN3@Inside@2
  0000b	39 01		 cmp	 DWORD PTR [ecx], eax
  0000d	77 05		 ja	 SHORT $LN3@Inside@2
  0000f	33 c0		 xor	 eax, eax
  00011	40		 inc	 eax
  00012	eb 02		 jmp	 SHORT $LN4@Inside@2
$LN3@Inside@2:
  00014	33 c0		 xor	 eax, eax
$LN4@Inside@2:

; 1287 : 		}

  00016	5d		 pop	 ebp
  00017	c2 04 00	 ret	 4
?_Inside@?$vector@UDistInfo@ioOwnerAttach5Dummy@@V?$allocator@UDistInfo@ioOwnerAttach5Dummy@@@std@@@std@@IBE_NPBUDistInfo@ioOwnerAttach5Dummy@@@Z ENDP ; std::vector<ioOwnerAttach5Dummy::DistInfo,std::allocator<ioOwnerAttach5Dummy::DistInfo> >::_Inside
_TEXT	ENDS
PUBLIC	??_C@_0BD@OLBABOEK@vector?$DMT?$DO?5too?5long?$AA@ ; `string'
PUBLIC	?_Xlen@?$vector@UDistInfo@ioOwnerAttach5Dummy@@V?$allocator@UDistInfo@ioOwnerAttach5Dummy@@@std@@@std@@IBEXXZ ; std::vector<ioOwnerAttach5Dummy::DistInfo,std::allocator<ioOwnerAttach5Dummy::DistInfo> >::_Xlen
EXTRN	__imp_?_Xlength_error@std@@YAXPBD@Z:PROC
;	COMDAT ??_C@_0BD@OLBABOEK@vector?$DMT?$DO?5too?5long?$AA@
CONST	SEGMENT
??_C@_0BD@OLBABOEK@vector?$DMT?$DO?5too?5long?$AA@ DB 'vector<T> too long'
	DB	00H						; `string'
; Function compile flags: /Ogsp
CONST	ENDS
;	COMDAT ?_Xlen@?$vector@UDistInfo@ioOwnerAttach5Dummy@@V?$allocator@UDistInfo@ioOwnerAttach5Dummy@@@std@@@std@@IBEXXZ
_TEXT	SEGMENT
?_Xlen@?$vector@UDistInfo@ioOwnerAttach5Dummy@@V?$allocator@UDistInfo@ioOwnerAttach5Dummy@@@std@@@std@@IBEXXZ PROC ; std::vector<ioOwnerAttach5Dummy::DistInfo,std::allocator<ioOwnerAttach5Dummy::DistInfo> >::_Xlen, COMDAT
; _this$ = ecx

; 1427 : 		_Xlength_error("vector<T> too long");

  00000	68 00 00 00 00	 push	 OFFSET ??_C@_0BD@OLBABOEK@vector?$DMT?$DO?5too?5long?$AA@
  00005	ff 15 00 00 00
	00		 call	 DWORD PTR __imp_?_Xlength_error@std@@YAXPBD@Z
$LN4@Xlen:
$LN3@Xlen:
  0000b	cc		 int	 3
?_Xlen@?$vector@UDistInfo@ioOwnerAttach5Dummy@@V?$allocator@UDistInfo@ioOwnerAttach5Dummy@@@std@@@std@@IBEXXZ ENDP ; std::vector<ioOwnerAttach5Dummy::DistInfo,std::allocator<ioOwnerAttach5Dummy::DistInfo> >::_Xlen
_TEXT	ENDS
PUBLIC	?_Orphan_range@?$vector@UDistInfo@ioOwnerAttach5Dummy@@V?$allocator@UDistInfo@ioOwnerAttach5Dummy@@@std@@@std@@IBEXPAUDistInfo@ioOwnerAttach5Dummy@@0@Z ; std::vector<ioOwnerAttach5Dummy::DistInfo,std::allocator<ioOwnerAttach5Dummy::DistInfo> >::_Orphan_range
; Function compile flags: /Ogsp
;	COMDAT ?_Orphan_range@?$vector@UDistInfo@ioOwnerAttach5Dummy@@V?$allocator@UDistInfo@ioOwnerAttach5Dummy@@@std@@@std@@IBEXPAUDistInfo@ioOwnerAttach5Dummy@@0@Z
_TEXT	SEGMENT
___formal$ = 8						; size = 4
___formal$ = 12						; size = 4
?_Orphan_range@?$vector@UDistInfo@ioOwnerAttach5Dummy@@V?$allocator@UDistInfo@ioOwnerAttach5Dummy@@@std@@@std@@IBEXPAUDistInfo@ioOwnerAttach5Dummy@@0@Z PROC ; std::vector<ioOwnerAttach5Dummy::DistInfo,std::allocator<ioOwnerAttach5Dummy::DistInfo> >::_Orphan_range, COMDAT
; _this$ = ecx

; 1454 : 		}

  00000	c2 08 00	 ret	 8
?_Orphan_range@?$vector@UDistInfo@ioOwnerAttach5Dummy@@V?$allocator@UDistInfo@ioOwnerAttach5Dummy@@@std@@@std@@IBEXPAUDistInfo@ioOwnerAttach5Dummy@@0@Z ENDP ; std::vector<ioOwnerAttach5Dummy::DistInfo,std::allocator<ioOwnerAttach5Dummy::DistInfo> >::_Orphan_range
_TEXT	ENDS
PUBLIC	??1?$_Vector_val@UDistInfo@ioOwnerAttach5Dummy@@V?$allocator@UDistInfo@ioOwnerAttach5Dummy@@@std@@@std@@QAE@XZ ; std::_Vector_val<ioOwnerAttach5Dummy::DistInfo,std::allocator<ioOwnerAttach5Dummy::DistInfo> >::~_Vector_val<ioOwnerAttach5Dummy::DistInfo,std::allocator<ioOwnerAttach5Dummy::DistInfo> >
; Function compile flags: /Ogsp
;	COMDAT ??1?$_Vector_val@UDistInfo@ioOwnerAttach5Dummy@@V?$allocator@UDistInfo@ioOwnerAttach5Dummy@@@std@@@std@@QAE@XZ
_TEXT	SEGMENT
??1?$_Vector_val@UDistInfo@ioOwnerAttach5Dummy@@V?$allocator@UDistInfo@ioOwnerAttach5Dummy@@@std@@@std@@QAE@XZ PROC ; std::_Vector_val<ioOwnerAttach5Dummy::DistInfo,std::allocator<ioOwnerAttach5Dummy::DistInfo> >::~_Vector_val<ioOwnerAttach5Dummy::DistInfo,std::allocator<ioOwnerAttach5Dummy::DistInfo> >, COMDAT
; _this$ = ecx

; 434  : 		}

  00000	c3		 ret	 0
??1?$_Vector_val@UDistInfo@ioOwnerAttach5Dummy@@V?$allocator@UDistInfo@ioOwnerAttach5Dummy@@@std@@@std@@QAE@XZ ENDP ; std::_Vector_val<ioOwnerAttach5Dummy::DistInfo,std::allocator<ioOwnerAttach5Dummy::DistInfo> >::~_Vector_val<ioOwnerAttach5Dummy::DistInfo,std::allocator<ioOwnerAttach5Dummy::DistInfo> >
_TEXT	ENDS
PUBLIC	??0?$allocator@UDistInfo@ioOwnerAttach5Dummy@@@std@@QAE@XZ ; std::allocator<ioOwnerAttach5Dummy::DistInfo>::allocator<ioOwnerAttach5Dummy::DistInfo>
; Function compile flags: /Ogsp
; File c:\program files (x86)\microsoft visual studio 10.0\vc\include\xmemory
;	COMDAT ??0?$allocator@UDistInfo@ioOwnerAttach5Dummy@@@std@@QAE@XZ
_TEXT	SEGMENT
??0?$allocator@UDistInfo@ioOwnerAttach5Dummy@@@std@@QAE@XZ PROC ; std::allocator<ioOwnerAttach5Dummy::DistInfo>::allocator<ioOwnerAttach5Dummy::DistInfo>, COMDAT
; _this$ = ecx

; 161  : 	_ALLOCATOR() _THROW0()

  00000	8b c1		 mov	 eax, ecx

; 162  : 		{	// construct default allocator (do nothing)
; 163  : 		}

  00002	c3		 ret	 0
??0?$allocator@UDistInfo@ioOwnerAttach5Dummy@@@std@@QAE@XZ ENDP ; std::allocator<ioOwnerAttach5Dummy::DistInfo>::allocator<ioOwnerAttach5Dummy::DistInfo>
_TEXT	ENDS
PUBLIC	?deallocate@?$allocator@UDistInfo@ioOwnerAttach5Dummy@@@std@@QAEXPAUDistInfo@ioOwnerAttach5Dummy@@I@Z ; std::allocator<ioOwnerAttach5Dummy::DistInfo>::deallocate
; Function compile flags: /Ogsp
;	COMDAT ?deallocate@?$allocator@UDistInfo@ioOwnerAttach5Dummy@@@std@@QAEXPAUDistInfo@ioOwnerAttach5Dummy@@I@Z
_TEXT	SEGMENT
__Ptr$ = 8						; size = 4
___formal$ = 12						; size = 4
?deallocate@?$allocator@UDistInfo@ioOwnerAttach5Dummy@@@std@@QAEXPAUDistInfo@ioOwnerAttach5Dummy@@I@Z PROC ; std::allocator<ioOwnerAttach5Dummy::DistInfo>::deallocate, COMDAT
; _this$ = ecx

; 181  : 		{	// deallocate object at _Ptr, ignore size

  00000	55		 push	 ebp
  00001	8b ec		 mov	 ebp, esp

; 182  : 		::operator delete(_Ptr);

  00003	ff 75 08	 push	 DWORD PTR __Ptr$[ebp]
  00006	e8 00 00 00 00	 call	 ??3@YAXPAX@Z		; operator delete
  0000b	59		 pop	 ecx

; 183  : 		}

  0000c	5d		 pop	 ebp
  0000d	c2 08 00	 ret	 8
?deallocate@?$allocator@UDistInfo@ioOwnerAttach5Dummy@@@std@@QAEXPAUDistInfo@ioOwnerAttach5Dummy@@I@Z ENDP ; std::allocator<ioOwnerAttach5Dummy::DistInfo>::deallocate
_TEXT	ENDS
PUBLIC	??0?$_Vector_const_iterator@V?$_Vector_val@PAVioBaseChar@@V?$allocator@PAVioBaseChar@@@std@@@std@@@std@@QAE@PAPAVioBaseChar@@PBU_Container_base0@1@@Z ; std::_Vector_const_iterator<std::_Vector_val<ioBaseChar *,std::allocator<ioBaseChar *> > >::_Vector_const_iterator<std::_Vector_val<ioBaseChar *,std::allocator<ioBaseChar *> > >
; Function compile flags: /Ogsp
; File c:\program files (x86)\microsoft visual studio 10.0\vc\include\vector
;	COMDAT ??0?$_Vector_const_iterator@V?$_Vector_val@PAVioBaseChar@@V?$allocator@PAVioBaseChar@@@std@@@std@@@std@@QAE@PAPAVioBaseChar@@PBU_Container_base0@1@@Z
_TEXT	SEGMENT
__Parg$ = 8						; size = 4
__Pvector$ = 12						; size = 4
??0?$_Vector_const_iterator@V?$_Vector_val@PAVioBaseChar@@V?$allocator@PAVioBaseChar@@@std@@@std@@@std@@QAE@PAPAVioBaseChar@@PBU_Container_base0@1@@Z PROC ; std::_Vector_const_iterator<std::_Vector_val<ioBaseChar *,std::allocator<ioBaseChar *> > >::_Vector_const_iterator<std::_Vector_val<ioBaseChar *,std::allocator<ioBaseChar *> > >, COMDAT
; _this$ = ecx

; 45   : 		{	// construct with pointer _Parg

  00000	55		 push	 ebp
  00001	8b ec		 mov	 ebp, esp
  00003	8b c1		 mov	 eax, ecx
  00005	8b 4d 08	 mov	 ecx, DWORD PTR __Parg$[ebp]
  00008	89 08		 mov	 DWORD PTR [eax], ecx

; 46   : 		this->_Adopt(_Pvector);
; 47   : 		}

  0000a	5d		 pop	 ebp
  0000b	c2 08 00	 ret	 8
??0?$_Vector_const_iterator@V?$_Vector_val@PAVioBaseChar@@V?$allocator@PAVioBaseChar@@@std@@@std@@@std@@QAE@PAPAVioBaseChar@@PBU_Container_base0@1@@Z ENDP ; std::_Vector_const_iterator<std::_Vector_val<ioBaseChar *,std::allocator<ioBaseChar *> > >::_Vector_const_iterator<std::_Vector_val<ioBaseChar *,std::allocator<ioBaseChar *> > >
_TEXT	ENDS
PUBLIC	??0?$allocator@PAVioBaseChar@@@std@@QAE@ABV01@@Z ; std::allocator<ioBaseChar *>::allocator<ioBaseChar *>
; Function compile flags: /Ogsp
; File c:\program files (x86)\microsoft visual studio 10.0\vc\include\xmemory
;	COMDAT ??0?$allocator@PAVioBaseChar@@@std@@QAE@ABV01@@Z
_TEXT	SEGMENT
___formal$ = 8						; size = 4
??0?$allocator@PAVioBaseChar@@@std@@QAE@ABV01@@Z PROC	; std::allocator<ioBaseChar *>::allocator<ioBaseChar *>, COMDAT
; _this$ = ecx

; 165  : 	_ALLOCATOR(const _ALLOCATOR<_Ty>&) _THROW0()

  00000	8b c1		 mov	 eax, ecx

; 166  : 		{	// construct by copying (do nothing)
; 167  : 		}

  00002	c2 04 00	 ret	 4
??0?$allocator@PAVioBaseChar@@@std@@QAE@ABV01@@Z ENDP	; std::allocator<ioBaseChar *>::allocator<ioBaseChar *>
_TEXT	ENDS
PUBLIC	?deallocate@?$allocator@PAVioBaseChar@@@std@@QAEXPAPAVioBaseChar@@I@Z ; std::allocator<ioBaseChar *>::deallocate
; Function compile flags: /Ogsp
;	COMDAT ?deallocate@?$allocator@PAVioBaseChar@@@std@@QAEXPAPAVioBaseChar@@I@Z
_TEXT	SEGMENT
__Ptr$ = 8						; size = 4
___formal$ = 12						; size = 4
?deallocate@?$allocator@PAVioBaseChar@@@std@@QAEXPAPAVioBaseChar@@I@Z PROC ; std::allocator<ioBaseChar *>::deallocate, COMDAT
; _this$ = ecx

; 181  : 		{	// deallocate object at _Ptr, ignore size

  00000	55		 push	 ebp
  00001	8b ec		 mov	 ebp, esp

; 182  : 		::operator delete(_Ptr);

  00003	ff 75 08	 push	 DWORD PTR __Ptr$[ebp]
  00006	e8 00 00 00 00	 call	 ??3@YAXPAX@Z		; operator delete
  0000b	59		 pop	 ecx

; 183  : 		}

  0000c	5d		 pop	 ebp
  0000d	c2 08 00	 ret	 8
?deallocate@?$allocator@PAVioBaseChar@@@std@@QAEXPAPAVioBaseChar@@I@Z ENDP ; std::allocator<ioBaseChar *>::deallocate
_TEXT	ENDS
PUBLIC	??0?$allocator@UDistInfo@ioOwnerAttach5Dummy@@@std@@QAE@ABV01@@Z ; std::allocator<ioOwnerAttach5Dummy::DistInfo>::allocator<ioOwnerAttach5Dummy::DistInfo>
; Function compile flags: /Ogsp
;	COMDAT ??0?$allocator@UDistInfo@ioOwnerAttach5Dummy@@@std@@QAE@ABV01@@Z
_TEXT	SEGMENT
___formal$ = 8						; size = 4
??0?$allocator@UDistInfo@ioOwnerAttach5Dummy@@@std@@QAE@ABV01@@Z PROC ; std::allocator<ioOwnerAttach5Dummy::DistInfo>::allocator<ioOwnerAttach5Dummy::DistInfo>, COMDAT
; _this$ = ecx

; 165  : 	_ALLOCATOR(const _ALLOCATOR<_Ty>&) _THROW0()

  00000	8b c1		 mov	 eax, ecx

; 166  : 		{	// construct by copying (do nothing)
; 167  : 		}

  00002	c2 04 00	 ret	 4
??0?$allocator@UDistInfo@ioOwnerAttach5Dummy@@@std@@QAE@ABV01@@Z ENDP ; std::allocator<ioOwnerAttach5Dummy::DistInfo>::allocator<ioOwnerAttach5Dummy::DistInfo>
_TEXT	ENDS
PUBLIC	?max_size@?$allocator@UDistInfo@ioOwnerAttach5Dummy@@@std@@QBEIXZ ; std::allocator<ioOwnerAttach5Dummy::DistInfo>::max_size
; Function compile flags: /Ogsp
;	COMDAT ?max_size@?$allocator@UDistInfo@ioOwnerAttach5Dummy@@@std@@QBEIXZ
_TEXT	SEGMENT
?max_size@?$allocator@UDistInfo@ioOwnerAttach5Dummy@@@std@@QBEIXZ PROC ; std::allocator<ioOwnerAttach5Dummy::DistInfo>::max_size, COMDAT
; _this$ = ecx

; 218  : 		_SIZT _Count = (_SIZT)(-1) / sizeof (_Ty);
; 219  : 		return (0 < _Count ? _Count : 1);

  00000	b8 ff ff ff 1f	 mov	 eax, 536870911		; 1fffffffH

; 220  : 		}

  00005	c3		 ret	 0
?max_size@?$allocator@UDistInfo@ioOwnerAttach5Dummy@@@std@@QBEIXZ ENDP ; std::allocator<ioOwnerAttach5Dummy::DistInfo>::max_size
_TEXT	ENDS
PUBLIC	??0?$_Vector_const_iterator@V?$_Vector_val@UDistInfo@ioOwnerAttach5Dummy@@V?$allocator@UDistInfo@ioOwnerAttach5Dummy@@@std@@@std@@@std@@QAE@PAUDistInfo@ioOwnerAttach5Dummy@@PBU_Container_base0@1@@Z ; std::_Vector_const_iterator<std::_Vector_val<ioOwnerAttach5Dummy::DistInfo,std::allocator<ioOwnerAttach5Dummy::DistInfo> > >::_Vector_const_iterator<std::_Vector_val<ioOwnerAttach5Dummy::DistInfo,std::allocator<ioOwnerAttach5Dummy::DistInfo> > >
; Function compile flags: /Ogsp
; File c:\program files (x86)\microsoft visual studio 10.0\vc\include\vector
;	COMDAT ??0?$_Vector_const_iterator@V?$_Vector_val@UDistInfo@ioOwnerAttach5Dummy@@V?$allocator@UDistInfo@ioOwnerAttach5Dummy@@@std@@@std@@@std@@QAE@PAUDistInfo@ioOwnerAttach5Dummy@@PBU_Container_base0@1@@Z
_TEXT	SEGMENT
__Parg$ = 8						; size = 4
__Pvector$ = 12						; size = 4
??0?$_Vector_const_iterator@V?$_Vector_val@UDistInfo@ioOwnerAttach5Dummy@@V?$allocator@UDistInfo@ioOwnerAttach5Dummy@@@std@@@std@@@std@@QAE@PAUDistInfo@ioOwnerAttach5Dummy@@PBU_Container_base0@1@@Z PROC ; std::_Vector_const_iterator<std::_Vector_val<ioOwnerAttach5Dummy::DistInfo,std::allocator<ioOwnerAttach5Dummy::DistInfo> > >::_Vector_const_iterator<std::_Vector_val<ioOwnerAttach5Dummy::DistInfo,std::allocator<ioOwnerAttach5Dummy::DistInfo> > >, COMDAT
; _this$ = ecx

; 45   : 		{	// construct with pointer _Parg

  00000	55		 push	 ebp
  00001	8b ec		 mov	 ebp, esp
  00003	8b c1		 mov	 eax, ecx
  00005	8b 4d 08	 mov	 ecx, DWORD PTR __Parg$[ebp]
  00008	89 08		 mov	 DWORD PTR [eax], ecx

; 46   : 		this->_Adopt(_Pvector);
; 47   : 		}

  0000a	5d		 pop	 ebp
  0000b	c2 08 00	 ret	 8
??0?$_Vector_const_iterator@V?$_Vector_val@UDistInfo@ioOwnerAttach5Dummy@@V?$allocator@UDistInfo@ioOwnerAttach5Dummy@@@std@@@std@@@std@@QAE@PAUDistInfo@ioOwnerAttach5Dummy@@PBU_Container_base0@1@@Z ENDP ; std::_Vector_const_iterator<std::_Vector_val<ioOwnerAttach5Dummy::DistInfo,std::allocator<ioOwnerAttach5Dummy::DistInfo> > >::_Vector_const_iterator<std::_Vector_val<ioOwnerAttach5Dummy::DistInfo,std::allocator<ioOwnerAttach5Dummy::DistInfo> > >
_TEXT	ENDS
PUBLIC	?_Compat@?$_Vector_const_iterator@V?$_Vector_val@PAVioBaseChar@@V?$allocator@PAVioBaseChar@@@std@@@std@@@std@@QBEXABV12@@Z ; std::_Vector_const_iterator<std::_Vector_val<ioBaseChar *,std::allocator<ioBaseChar *> > >::_Compat
; Function compile flags: /Ogsp
;	COMDAT ?_Compat@?$_Vector_const_iterator@V?$_Vector_val@PAVioBaseChar@@V?$allocator@PAVioBaseChar@@@std@@@std@@@std@@QBEXABV12@@Z
_TEXT	SEGMENT
___formal$ = 8						; size = 4
?_Compat@?$_Vector_const_iterator@V?$_Vector_val@PAVioBaseChar@@V?$allocator@PAVioBaseChar@@@std@@@std@@@std@@QBEXABV12@@Z PROC ; std::_Vector_const_iterator<std::_Vector_val<ioBaseChar *,std::allocator<ioBaseChar *> > >::_Compat, COMDAT
; _this$ = ecx

; 253  : 		}

  00000	c2 04 00	 ret	 4
?_Compat@?$_Vector_const_iterator@V?$_Vector_val@PAVioBaseChar@@V?$allocator@PAVioBaseChar@@@std@@@std@@@std@@QBEXABV12@@Z ENDP ; std::_Vector_const_iterator<std::_Vector_val<ioBaseChar *,std::allocator<ioBaseChar *> > >::_Compat
_TEXT	ENDS
PUBLIC	?_Compat@?$_Vector_const_iterator@V?$_Vector_val@UDistInfo@ioOwnerAttach5Dummy@@V?$allocator@UDistInfo@ioOwnerAttach5Dummy@@@std@@@std@@@std@@QBEXABV12@@Z ; std::_Vector_const_iterator<std::_Vector_val<ioOwnerAttach5Dummy::DistInfo,std::allocator<ioOwnerAttach5Dummy::DistInfo> > >::_Compat
; Function compile flags: /Ogsp
;	COMDAT ?_Compat@?$_Vector_const_iterator@V?$_Vector_val@UDistInfo@ioOwnerAttach5Dummy@@V?$allocator@UDistInfo@ioOwnerAttach5Dummy@@@std@@@std@@@std@@QBEXABV12@@Z
_TEXT	SEGMENT
___formal$ = 8						; size = 4
?_Compat@?$_Vector_const_iterator@V?$_Vector_val@UDistInfo@ioOwnerAttach5Dummy@@V?$allocator@UDistInfo@ioOwnerAttach5Dummy@@@std@@@std@@@std@@QBEXABV12@@Z PROC ; std::_Vector_const_iterator<std::_Vector_val<ioOwnerAttach5Dummy::DistInfo,std::allocator<ioOwnerAttach5Dummy::DistInfo> > >::_Compat, COMDAT
; _this$ = ecx

; 253  : 		}

  00000	c2 04 00	 ret	 4
?_Compat@?$_Vector_const_iterator@V?$_Vector_val@UDistInfo@ioOwnerAttach5Dummy@@V?$allocator@UDistInfo@ioOwnerAttach5Dummy@@@std@@@std@@@std@@QBEXABV12@@Z ENDP ; std::_Vector_const_iterator<std::_Vector_val<ioOwnerAttach5Dummy::DistInfo,std::allocator<ioOwnerAttach5Dummy::DistInfo> > >::_Compat
_TEXT	ENDS
PUBLIC	?D3DXVec3Length@@YAMPBUD3DXVECTOR3@@@Z		; D3DXVec3Length
; Function compile flags: /Ogsp
; File c:\program files (x86)\microsoft directx sdk (june 2010)\include\d3dx9math.inl
;	COMDAT ?D3DXVec3Length@@YAMPBUD3DXVECTOR3@@@Z
_TEXT	SEGMENT
tv169 = 8						; size = 4
tv160 = 8						; size = 4
_pV$ = 8						; size = 4
?D3DXVec3Length@@YAMPBUD3DXVECTOR3@@@Z PROC		; D3DXVec3Length, COMDAT

; 1710 : {

  00000	55		 push	 ebp
  00001	8b ec		 mov	 ebp, esp

; 1711 : #ifdef D3DX_DEBUG
; 1712 :     if(!pV)
; 1713 :         return 0.0f;
; 1714 : #endif
; 1715 : 
; 1716 : #ifdef __cplusplus
; 1717 :     return sqrtf(pV->x * pV->x + pV->y * pV->y + pV->z * pV->z);

  00003	8b 45 08	 mov	 eax, DWORD PTR _pV$[ebp]
  00006	d9 40 04	 fld	 DWORD PTR [eax+4]
  00009	d9 00		 fld	 DWORD PTR [eax]
  0000b	d9 40 08	 fld	 DWORD PTR [eax+8]
  0000e	d9 c1		 fld	 ST(1)
  00010	de ca		 fmulp	 ST(2), ST(0)
  00012	d9 c2		 fld	 ST(2)
  00014	de cb		 fmulp	 ST(3), ST(0)
  00016	d9 c9		 fxch	 ST(1)
  00018	de c2		 faddp	 ST(2), ST(0)
  0001a	d9 c0		 fld	 ST(0)
  0001c	de c9		 fmulp	 ST(1), ST(0)
  0001e	de c1		 faddp	 ST(1), ST(0)
  00020	d9 5d 08	 fstp	 DWORD PTR tv169[ebp]
  00023	d9 45 08	 fld	 DWORD PTR tv169[ebp]
  00026	e8 00 00 00 00	 call	 __CIsqrt
  0002b	d9 5d 08	 fstp	 DWORD PTR tv160[ebp]
  0002e	d9 45 08	 fld	 DWORD PTR tv160[ebp]

; 1718 : #else
; 1719 :     return (FLOAT) sqrt(pV->x * pV->x + pV->y * pV->y + pV->z * pV->z);
; 1720 : #endif
; 1721 : }

  00031	5d		 pop	 ebp
  00032	c3		 ret	 0
?D3DXVec3Length@@YAMPBUD3DXVECTOR3@@@Z ENDP		; D3DXVec3Length
_TEXT	ENDS
PUBLIC	?D3DXVec3LengthSq@@YAMPBUD3DXVECTOR3@@@Z	; D3DXVec3LengthSq
; Function compile flags: /Ogsp
;	COMDAT ?D3DXVec3LengthSq@@YAMPBUD3DXVECTOR3@@@Z
_TEXT	SEGMENT
tv165 = 8						; size = 4
_pV$ = 8						; size = 4
?D3DXVec3LengthSq@@YAMPBUD3DXVECTOR3@@@Z PROC		; D3DXVec3LengthSq, COMDAT

; 1725 : {

  00000	55		 push	 ebp
  00001	8b ec		 mov	 ebp, esp

; 1726 : #ifdef D3DX_DEBUG
; 1727 :     if(!pV)
; 1728 :         return 0.0f;
; 1729 : #endif
; 1730 : 
; 1731 :     return pV->x * pV->x + pV->y * pV->y + pV->z * pV->z;

  00003	8b 45 08	 mov	 eax, DWORD PTR _pV$[ebp]
  00006	d9 40 04	 fld	 DWORD PTR [eax+4]
  00009	d9 00		 fld	 DWORD PTR [eax]
  0000b	d9 40 08	 fld	 DWORD PTR [eax+8]
  0000e	d9 c1		 fld	 ST(1)
  00010	de ca		 fmulp	 ST(2), ST(0)
  00012	d9 c2		 fld	 ST(2)
  00014	de cb		 fmulp	 ST(3), ST(0)
  00016	d9 c9		 fxch	 ST(1)
  00018	de c2		 faddp	 ST(2), ST(0)
  0001a	d9 c0		 fld	 ST(0)
  0001c	de c9		 fmulp	 ST(1), ST(0)
  0001e	de c1		 faddp	 ST(1), ST(0)
  00020	d9 5d 08	 fstp	 DWORD PTR tv165[ebp]
  00023	d9 45 08	 fld	 DWORD PTR tv165[ebp]

; 1732 : }

  00026	5d		 pop	 ebp
  00027	c3		 ret	 0
?D3DXVec3LengthSq@@YAMPBUD3DXVECTOR3@@@Z ENDP		; D3DXVec3LengthSq
_TEXT	ENDS
PUBLIC	?D3DXVec3Cross@@YAPAUD3DXVECTOR3@@PAU1@PBU1@1@Z	; D3DXVec3Cross
; Function compile flags: /Ogsp
;	COMDAT ?D3DXVec3Cross@@YAPAUD3DXVECTOR3@@PAU1@PBU1@1@Z
_TEXT	SEGMENT
_v$ = -12						; size = 12
_pOut$ = 8						; size = 4
_pV1$ = 12						; size = 4
_pV2$ = 16						; size = 4
?D3DXVec3Cross@@YAPAUD3DXVECTOR3@@PAU1@PBU1@1@Z PROC	; D3DXVec3Cross, COMDAT

; 1747 : {

  00000	55		 push	 ebp
  00001	8b ec		 mov	 ebp, esp
  00003	83 ec 0c	 sub	 esp, 12			; 0000000cH

; 1757 :     v.z = pV1->x * pV2->y - pV1->y * pV2->x;
; 1758 : 
; 1759 :     *pOut = v;

  00006	56		 push	 esi
  00007	57		 push	 edi

; 1748 :     D3DXVECTOR3 v;
; 1749 : 
; 1750 : #ifdef D3DX_DEBUG
; 1751 :     if(!pOut || !pV1 || !pV2)
; 1752 :         return NULL;
; 1753 : #endif
; 1754 : 
; 1755 :     v.x = pV1->y * pV2->z - pV1->z * pV2->y;

  00008	8b 45 0c	 mov	 eax, DWORD PTR _pV1$[ebp]
  0000b	f3 0f 10 40 04	 movss	 xmm0, DWORD PTR [eax+4]
  00010	f3 0f 10 50 08	 movss	 xmm2, DWORD PTR [eax+8]
  00015	8b 4d 10	 mov	 ecx, DWORD PTR _pV2$[ebp]
  00018	f3 0f 10 49 08	 movss	 xmm1, DWORD PTR [ecx+8]
  0001d	f3 0f 10 59 04	 movss	 xmm3, DWORD PTR [ecx+4]
  00022	0f 5a e8	 cvtps2pd xmm5, xmm0
  00025	0f 5a e1	 cvtps2pd xmm4, xmm1
  00028	0f 5a f2	 cvtps2pd xmm6, xmm2
  0002b	f2 0f 59 e5	 mulsd	 xmm4, xmm5

; 1756 :     v.y = pV1->z * pV2->x - pV1->x * pV2->z;

  0002f	0f 5a d2	 cvtps2pd xmm2, xmm2
  00032	0f 5a c9	 cvtps2pd xmm1, xmm1
  00035	0f 5a eb	 cvtps2pd xmm5, xmm3
  00038	f2 0f 59 ee	 mulsd	 xmm5, xmm6
  0003c	f2 0f 5c e5	 subsd	 xmm4, xmm5
  00040	f3 0f 10 28	 movss	 xmm5, DWORD PTR [eax]

; 1757 :     v.z = pV1->x * pV2->y - pV1->y * pV2->x;
; 1758 : 
; 1759 :     *pOut = v;

  00044	8b 45 08	 mov	 eax, DWORD PTR _pOut$[ebp]
  00047	66 0f 5a e4	 cvtpd2ps xmm4, xmm4
  0004b	f3 0f 11 65 f4	 movss	 DWORD PTR _v$[ebp], xmm4
  00050	f3 0f 10 21	 movss	 xmm4, DWORD PTR [ecx]
  00054	0f 5a f4	 cvtps2pd xmm6, xmm4
  00057	f2 0f 59 f2	 mulsd	 xmm6, xmm2
  0005b	0f 5a d5	 cvtps2pd xmm2, xmm5
  0005e	f2 0f 59 d1	 mulsd	 xmm2, xmm1
  00062	f2 0f 5c f2	 subsd	 xmm6, xmm2
  00066	66 0f 5a ce	 cvtpd2ps xmm1, xmm6
  0006a	f3 0f 11 4d f8	 movss	 DWORD PTR _v$[ebp+4], xmm1
  0006f	0f 5a c0	 cvtps2pd xmm0, xmm0
  00072	0f 5a d3	 cvtps2pd xmm2, xmm3
  00075	0f 5a cd	 cvtps2pd xmm1, xmm5
  00078	f2 0f 59 ca	 mulsd	 xmm1, xmm2
  0007c	8d 75 f4	 lea	 esi, DWORD PTR _v$[ebp]
  0007f	8b f8		 mov	 edi, eax
  00081	0f 5a d4	 cvtps2pd xmm2, xmm4
  00084	f2 0f 59 d0	 mulsd	 xmm2, xmm0
  00088	f2 0f 5c ca	 subsd	 xmm1, xmm2
  0008c	66 0f 5a c1	 cvtpd2ps xmm0, xmm1
  00090	f3 0f 11 45 fc	 movss	 DWORD PTR _v$[ebp+8], xmm0
  00095	a5		 movsd
  00096	a5		 movsd
  00097	a5		 movsd
  00098	5f		 pop	 edi
  00099	5e		 pop	 esi

; 1760 :     return pOut;
; 1761 : }

  0009a	c9		 leave
  0009b	c3		 ret	 0
?D3DXVec3Cross@@YAPAUD3DXVECTOR3@@PAU1@PBU1@1@Z ENDP	; D3DXVec3Cross
_TEXT	ENDS
PUBLIC	??$addressof@$$CBVioHashString@@@std@@YAPBVioHashString@@ABV1@@Z ; std::addressof<ioHashString const >
; Function compile flags: /Ogsp
; File c:\program files (x86)\microsoft visual studio 10.0\vc\include\xmemory
;	COMDAT ??$addressof@$$CBVioHashString@@@std@@YAPBVioHashString@@ABV1@@Z
_TEXT	SEGMENT
__Val$ = 8						; size = 4
??$addressof@$$CBVioHashString@@@std@@YAPBVioHashString@@ABV1@@Z PROC ; std::addressof<ioHashString const >, COMDAT

; 110  : 	{	// return address of _Val

  00000	55		 push	 ebp
  00001	8b ec		 mov	 ebp, esp

; 111  : 	return ((_Ty *) &(char&)_Val);

  00003	8b 45 08	 mov	 eax, DWORD PTR __Val$[ebp]

; 112  : 	}

  00006	5d		 pop	 ebp
  00007	c3		 ret	 0
??$addressof@$$CBVioHashString@@@std@@YAPBVioHashString@@ABV1@@Z ENDP ; std::addressof<ioHashString const >
_TEXT	ENDS
PUBLIC	??$addressof@$$CBUDistInfo@ioOwnerAttach5Dummy@@@std@@YAPBUDistInfo@ioOwnerAttach5Dummy@@ABU12@@Z ; std::addressof<ioOwnerAttach5Dummy::DistInfo const >
; Function compile flags: /Ogsp
;	COMDAT ??$addressof@$$CBUDistInfo@ioOwnerAttach5Dummy@@@std@@YAPBUDistInfo@ioOwnerAttach5Dummy@@ABU12@@Z
_TEXT	SEGMENT
__Val$ = 8						; size = 4
??$addressof@$$CBUDistInfo@ioOwnerAttach5Dummy@@@std@@YAPBUDistInfo@ioOwnerAttach5Dummy@@ABU12@@Z PROC ; std::addressof<ioOwnerAttach5Dummy::DistInfo const >, COMDAT

; 110  : 	{	// return address of _Val

  00000	55		 push	 ebp
  00001	8b ec		 mov	 ebp, esp

; 111  : 	return ((_Ty *) &(char&)_Val);

  00003	8b 45 08	 mov	 eax, DWORD PTR __Val$[ebp]

; 112  : 	}

  00006	5d		 pop	 ebp
  00007	c3		 ret	 0
??$addressof@$$CBUDistInfo@ioOwnerAttach5Dummy@@@std@@YAPBUDistInfo@ioOwnerAttach5Dummy@@ABU12@@Z ENDP ; std::addressof<ioOwnerAttach5Dummy::DistInfo const >
_TEXT	ENDS
PUBLIC	__TI2?AVbad_alloc@std@@
PUBLIC	??$_Allocate@UDistInfo@ioOwnerAttach5Dummy@@@std@@YAPAUDistInfo@ioOwnerAttach5Dummy@@IPAU12@@Z ; std::_Allocate<ioOwnerAttach5Dummy::DistInfo>
PUBLIC	__CTA2?AVbad_alloc@std@@
PUBLIC	__CT??_R0?AVbad_alloc@std@@@8??0bad_alloc@std@@QAE@ABV01@@Z12
PUBLIC	??0bad_alloc@std@@QAE@ABV01@@Z			; std::bad_alloc::bad_alloc
PUBLIC	__CT??_R0?AVexception@std@@@8??0exception@std@@QAE@ABV01@@Z12
EXTRN	??2@YAPAXI@Z:PROC				; operator new
EXTRN	__CxxThrowException@8:PROC
EXTRN	??0exception@std@@QAE@ABV01@@Z:PROC		; std::exception::exception
;	COMDAT __CT??_R0?AVexception@std@@@8??0exception@std@@QAE@ABV01@@Z12
; File c:\program files (x86)\microsoft visual studio 10.0\vc\include\exception
xdata$x	SEGMENT
__CT??_R0?AVexception@std@@@8??0exception@std@@QAE@ABV01@@Z12 DD 00H
	DD	FLAT:??_R0?AVexception@std@@@8
	DD	00H
	DD	0ffffffffH
	ORG $+4
	DD	0cH
	DD	FLAT:??0exception@std@@QAE@ABV01@@Z
xdata$x	ENDS
;	COMDAT __CT??_R0?AVbad_alloc@std@@@8??0bad_alloc@std@@QAE@ABV01@@Z12
xdata$x	SEGMENT
__CT??_R0?AVbad_alloc@std@@@8??0bad_alloc@std@@QAE@ABV01@@Z12 DD 00H
	DD	FLAT:??_R0?AVbad_alloc@std@@@8
	DD	00H
	DD	0ffffffffH
	ORG $+4
	DD	0cH
	DD	FLAT:??0bad_alloc@std@@QAE@ABV01@@Z
xdata$x	ENDS
;	COMDAT __CTA2?AVbad_alloc@std@@
xdata$x	SEGMENT
__CTA2?AVbad_alloc@std@@ DD 02H
	DD	FLAT:__CT??_R0?AVbad_alloc@std@@@8??0bad_alloc@std@@QAE@ABV01@@Z12
	DD	FLAT:__CT??_R0?AVexception@std@@@8??0exception@std@@QAE@ABV01@@Z12
xdata$x	ENDS
;	COMDAT __TI2?AVbad_alloc@std@@
xdata$x	SEGMENT
__TI2?AVbad_alloc@std@@ DD 00H
	DD	FLAT:??1bad_alloc@std@@UAE@XZ
	DD	00H
	DD	FLAT:__CTA2?AVbad_alloc@std@@
; Function compile flags: /Ogsp
; File c:\program files (x86)\microsoft visual studio 10.0\vc\include\xmemory
xdata$x	ENDS
;	COMDAT ??$_Allocate@UDistInfo@ioOwnerAttach5Dummy@@@std@@YAPAUDistInfo@ioOwnerAttach5Dummy@@IPAU12@@Z
_TEXT	SEGMENT
$T573789 = -12						; size = 12
$T573794 = 8						; size = 4
__Count$ = 8						; size = 4
___formal$ = 12						; size = 4
??$_Allocate@UDistInfo@ioOwnerAttach5Dummy@@@std@@YAPAUDistInfo@ioOwnerAttach5Dummy@@IPAU12@@Z PROC ; std::_Allocate<ioOwnerAttach5Dummy::DistInfo>, COMDAT

; 30   : 	{	// allocate storage for _Count elements of type _Ty

  00000	55		 push	 ebp
  00001	8b ec		 mov	 ebp, esp

; 31   : 	void *_Ptr = 0;
; 32   : 
; 33   : 	if (_Count <= 0)

  00003	8b 4d 08	 mov	 ecx, DWORD PTR __Count$[ebp]
  00006	83 ec 0c	 sub	 esp, 12			; 0000000cH
  00009	33 c0		 xor	 eax, eax
  0000b	85 c9		 test	 ecx, ecx

; 34   : 		_Count = 0;
; 35   : 	else if (((_SIZT)(-1) / sizeof (_Ty) < _Count)

  0000d	74 3e		 je	 SHORT $LN5@Allocate

; 36   : 		|| (_Ptr = ::operator new(_Count * sizeof (_Ty))) == 0)

  0000f	81 f9 ff ff ff
	1f		 cmp	 ecx, 536870911		; 1fffffffH
  00015	77 10		 ja	 SHORT $LN1@Allocate
  00017	8b c1		 mov	 eax, ecx
  00019	c1 e0 03	 shl	 eax, 3
  0001c	50		 push	 eax
  0001d	e8 00 00 00 00	 call	 ??2@YAPAXI@Z		; operator new
  00022	59		 pop	 ecx
  00023	85 c0		 test	 eax, eax

; 38   : 
; 39   : 	return ((_Ty _FARQ *)_Ptr);

  00025	75 26		 jne	 SHORT $LN5@Allocate
$LN1@Allocate:

; 37   : 		_THROW_NCEE(bad_alloc, 0);

  00027	83 65 08 00	 and	 DWORD PTR $T573794[ebp], 0
  0002b	8d 45 08	 lea	 eax, DWORD PTR $T573794[ebp]
  0002e	50		 push	 eax
  0002f	8d 4d f4	 lea	 ecx, DWORD PTR $T573789[ebp]
  00032	ff 15 00 00 00
	00		 call	 DWORD PTR __imp_??0exception@std@@QAE@ABQBD@Z
  00038	68 00 00 00 00	 push	 OFFSET __TI2?AVbad_alloc@std@@
  0003d	8d 45 f4	 lea	 eax, DWORD PTR $T573789[ebp]
  00040	50		 push	 eax
  00041	c7 45 f4 00 00
	00 00		 mov	 DWORD PTR $T573789[ebp], OFFSET ??_7bad_alloc@std@@6B@
  00048	e8 00 00 00 00	 call	 __CxxThrowException@8
$LN10@Allocate:
$LN5@Allocate:

; 40   : 	}

  0004d	c9		 leave
  0004e	c3		 ret	 0
$LN9@Allocate:
??$_Allocate@UDistInfo@ioOwnerAttach5Dummy@@@std@@YAPAUDistInfo@ioOwnerAttach5Dummy@@IPAU12@@Z ENDP ; std::_Allocate<ioOwnerAttach5Dummy::DistInfo>
_TEXT	ENDS
PUBLIC	??G?$_Vector_const_iterator@V?$_Vector_val@UDistInfo@ioOwnerAttach5Dummy@@V?$allocator@UDistInfo@ioOwnerAttach5Dummy@@@std@@@std@@@std@@QBEHABV01@@Z ; std::_Vector_const_iterator<std::_Vector_val<ioOwnerAttach5Dummy::DistInfo,std::allocator<ioOwnerAttach5Dummy::DistInfo> > >::operator-
; Function compile flags: /Ogsp
; File c:\program files (x86)\microsoft visual studio 10.0\vc\include\vector
;	COMDAT ??G?$_Vector_const_iterator@V?$_Vector_val@UDistInfo@ioOwnerAttach5Dummy@@V?$allocator@UDistInfo@ioOwnerAttach5Dummy@@@std@@@std@@@std@@QBEHABV01@@Z
_TEXT	SEGMENT
__Right$ = 8						; size = 4
??G?$_Vector_const_iterator@V?$_Vector_val@UDistInfo@ioOwnerAttach5Dummy@@V?$allocator@UDistInfo@ioOwnerAttach5Dummy@@@std@@@std@@@std@@QBEHABV01@@Z PROC ; std::_Vector_const_iterator<std::_Vector_val<ioOwnerAttach5Dummy::DistInfo,std::allocator<ioOwnerAttach5Dummy::DistInfo> > >::operator-, COMDAT
; _this$ = ecx

; 190  : 		{	// return difference of iterators

  00000	55		 push	 ebp
  00001	8b ec		 mov	 ebp, esp

; 191  : 		_Compat(_Right);
; 192  : 		return (this->_Ptr - _Right._Ptr);

  00003	8b 01		 mov	 eax, DWORD PTR [ecx]
  00005	8b 4d 08	 mov	 ecx, DWORD PTR __Right$[ebp]
  00008	2b 01		 sub	 eax, DWORD PTR [ecx]
  0000a	c1 f8 03	 sar	 eax, 3

; 193  : 		}

  0000d	5d		 pop	 ebp
  0000e	c2 04 00	 ret	 4
??G?$_Vector_const_iterator@V?$_Vector_val@UDistInfo@ioOwnerAttach5Dummy@@V?$allocator@UDistInfo@ioOwnerAttach5Dummy@@@std@@@std@@@std@@QBEHABV01@@Z ENDP ; std::_Vector_const_iterator<std::_Vector_val<ioOwnerAttach5Dummy::DistInfo,std::allocator<ioOwnerAttach5Dummy::DistInfo> > >::operator-
_TEXT	ENDS
PUBLIC	??$forward@AAUDistInfo@ioOwnerAttach5Dummy@@@std@@YAAAUDistInfo@ioOwnerAttach5Dummy@@AAU12@@Z ; std::forward<ioOwnerAttach5Dummy::DistInfo &>
; Function compile flags: /Ogsp
; File c:\program files (x86)\microsoft visual studio 10.0\vc\include\utility
;	COMDAT ??$forward@AAUDistInfo@ioOwnerAttach5Dummy@@@std@@YAAAUDistInfo@ioOwnerAttach5Dummy@@AAU12@@Z
_TEXT	SEGMENT
__Arg$ = 8						; size = 4
??$forward@AAUDistInfo@ioOwnerAttach5Dummy@@@std@@YAAAUDistInfo@ioOwnerAttach5Dummy@@AAU12@@Z PROC ; std::forward<ioOwnerAttach5Dummy::DistInfo &>, COMDAT

; 78   : 	{	// forward _Arg, given explicitly specified type parameter

  00000	55		 push	 ebp
  00001	8b ec		 mov	 ebp, esp

; 79   : 	return ((_Ty&&)_Arg);

  00003	8b 45 08	 mov	 eax, DWORD PTR __Arg$[ebp]

; 80   : 	}

  00006	5d		 pop	 ebp
  00007	c3		 ret	 0
??$forward@AAUDistInfo@ioOwnerAttach5Dummy@@@std@@YAAAUDistInfo@ioOwnerAttach5Dummy@@AAU12@@Z ENDP ; std::forward<ioOwnerAttach5Dummy::DistInfo &>
_TEXT	ENDS
PUBLIC	??$construct@AAUDistInfo@ioOwnerAttach5Dummy@@@?$allocator@UDistInfo@ioOwnerAttach5Dummy@@@std@@QAEXPAUDistInfo@ioOwnerAttach5Dummy@@AAU23@@Z ; std::allocator<ioOwnerAttach5Dummy::DistInfo>::construct<ioOwnerAttach5Dummy::DistInfo &>
; Function compile flags: /Ogsp
; File c:\program files (x86)\microsoft visual studio 10.0\vc\include\xmemory
;	COMDAT ??$construct@AAUDistInfo@ioOwnerAttach5Dummy@@@?$allocator@UDistInfo@ioOwnerAttach5Dummy@@@std@@QAEXPAUDistInfo@ioOwnerAttach5Dummy@@AAU23@@Z
_TEXT	SEGMENT
__Ptr$ = 8						; size = 4
__Val$ = 12						; size = 4
??$construct@AAUDistInfo@ioOwnerAttach5Dummy@@@?$allocator@UDistInfo@ioOwnerAttach5Dummy@@@std@@QAEXPAUDistInfo@ioOwnerAttach5Dummy@@AAU23@@Z PROC ; std::allocator<ioOwnerAttach5Dummy::DistInfo>::construct<ioOwnerAttach5Dummy::DistInfo &>, COMDAT
; _this$ = ecx

; 206  : 		void construct(pointer _Ptr, _Other&& _Val)

  00000	55		 push	 ebp
  00001	8b ec		 mov	 ebp, esp

; 207  : 		{	// construct object at _Ptr with value _Val
; 208  : 		::new ((void _FARQ *)_Ptr) _Ty(_STD forward<_Other>(_Val));

  00003	8b 45 08	 mov	 eax, DWORD PTR __Ptr$[ebp]
  00006	85 c0		 test	 eax, eax
  00008	74 0d		 je	 SHORT $LN3@construct
  0000a	8b 4d 0c	 mov	 ecx, DWORD PTR __Val$[ebp]
  0000d	8b 11		 mov	 edx, DWORD PTR [ecx]
  0000f	89 10		 mov	 DWORD PTR [eax], edx
  00011	8b 49 04	 mov	 ecx, DWORD PTR [ecx+4]
  00014	89 48 04	 mov	 DWORD PTR [eax+4], ecx
$LN3@construct:

; 209  : 		}

  00017	5d		 pop	 ebp
  00018	c2 08 00	 ret	 8
??$construct@AAUDistInfo@ioOwnerAttach5Dummy@@@?$allocator@UDistInfo@ioOwnerAttach5Dummy@@@std@@QAEXPAUDistInfo@ioOwnerAttach5Dummy@@AAU23@@Z ENDP ; std::allocator<ioOwnerAttach5Dummy::DistInfo>::construct<ioOwnerAttach5Dummy::DistInfo &>
_TEXT	ENDS
PUBLIC	??$forward@ABUDistInfo@ioOwnerAttach5Dummy@@@std@@YAABUDistInfo@ioOwnerAttach5Dummy@@ABU12@@Z ; std::forward<ioOwnerAttach5Dummy::DistInfo const &>
; Function compile flags: /Ogsp
; File c:\program files (x86)\microsoft visual studio 10.0\vc\include\utility
;	COMDAT ??$forward@ABUDistInfo@ioOwnerAttach5Dummy@@@std@@YAABUDistInfo@ioOwnerAttach5Dummy@@ABU12@@Z
_TEXT	SEGMENT
__Arg$ = 8						; size = 4
??$forward@ABUDistInfo@ioOwnerAttach5Dummy@@@std@@YAABUDistInfo@ioOwnerAttach5Dummy@@ABU12@@Z PROC ; std::forward<ioOwnerAttach5Dummy::DistInfo const &>, COMDAT

; 78   : 	{	// forward _Arg, given explicitly specified type parameter

  00000	55		 push	 ebp
  00001	8b ec		 mov	 ebp, esp

; 79   : 	return ((_Ty&&)_Arg);

  00003	8b 45 08	 mov	 eax, DWORD PTR __Arg$[ebp]

; 80   : 	}

  00006	5d		 pop	 ebp
  00007	c3		 ret	 0
??$forward@ABUDistInfo@ioOwnerAttach5Dummy@@@std@@YAABUDistInfo@ioOwnerAttach5Dummy@@ABU12@@Z ENDP ; std::forward<ioOwnerAttach5Dummy::DistInfo const &>
_TEXT	ENDS
PUBLIC	??$_Ptr_cat@UDistInfo@ioOwnerAttach5Dummy@@U12@@std@@YA?AU_Nonscalar_ptr_iterator_tag@0@PAUDistInfo@ioOwnerAttach5Dummy@@0@Z ; std::_Ptr_cat<ioOwnerAttach5Dummy::DistInfo,ioOwnerAttach5Dummy::DistInfo>
; Function compile flags: /Ogsp
; File c:\program files (x86)\microsoft visual studio 10.0\vc\include\xutility
;	COMDAT ??$_Ptr_cat@UDistInfo@ioOwnerAttach5Dummy@@U12@@std@@YA?AU_Nonscalar_ptr_iterator_tag@0@PAUDistInfo@ioOwnerAttach5Dummy@@0@Z
_TEXT	SEGMENT
__Cat$ = -1						; size = 1
___formal$ = 8						; size = 4
___formal$ = 12						; size = 4
??$_Ptr_cat@UDistInfo@ioOwnerAttach5Dummy@@U12@@std@@YA?AU_Nonscalar_ptr_iterator_tag@0@PAUDistInfo@ioOwnerAttach5Dummy@@0@Z PROC ; std::_Ptr_cat<ioOwnerAttach5Dummy::DistInfo,ioOwnerAttach5Dummy::DistInfo>, COMDAT

; 516  : 	{	// return pointer category from pointers

  00000	55		 push	 ebp
  00001	8b ec		 mov	 ebp, esp
  00003	51		 push	 ecx

; 517  : 	typename _Ptr_cat_helper<_Elem1, _Elem2>::_Type _Cat;
; 518  : 	return (_Cat);

  00004	8a 45 ff	 mov	 al, BYTE PTR __Cat$[ebp]

; 519  : 	}

  00007	c9		 leave
  00008	c3		 ret	 0
??$_Ptr_cat@UDistInfo@ioOwnerAttach5Dummy@@U12@@std@@YA?AU_Nonscalar_ptr_iterator_tag@0@PAUDistInfo@ioOwnerAttach5Dummy@@0@Z ENDP ; std::_Ptr_cat<ioOwnerAttach5Dummy::DistInfo,ioOwnerAttach5Dummy::DistInfo>
_TEXT	ENDS
PUBLIC	??$_Ptr_cat@PAVioBaseChar@@PAV1@@std@@YA?AU_Scalar_ptr_iterator_tag@0@PAPAVioBaseChar@@0@Z ; std::_Ptr_cat<ioBaseChar *,ioBaseChar *>
; Function compile flags: /Ogsp
;	COMDAT ??$_Ptr_cat@PAVioBaseChar@@PAV1@@std@@YA?AU_Scalar_ptr_iterator_tag@0@PAPAVioBaseChar@@0@Z
_TEXT	SEGMENT
__Cat$ = -1						; size = 1
___formal$ = 8						; size = 4
___formal$ = 12						; size = 4
??$_Ptr_cat@PAVioBaseChar@@PAV1@@std@@YA?AU_Scalar_ptr_iterator_tag@0@PAPAVioBaseChar@@0@Z PROC ; std::_Ptr_cat<ioBaseChar *,ioBaseChar *>, COMDAT

; 516  : 	{	// return pointer category from pointers

  00000	55		 push	 ebp
  00001	8b ec		 mov	 ebp, esp
  00003	51		 push	 ecx

; 517  : 	typename _Ptr_cat_helper<_Elem1, _Elem2>::_Type _Cat;
; 518  : 	return (_Cat);

  00004	8a 45 ff	 mov	 al, BYTE PTR __Cat$[ebp]

; 519  : 	}

  00007	c9		 leave
  00008	c3		 ret	 0
??$_Ptr_cat@PAVioBaseChar@@PAV1@@std@@YA?AU_Scalar_ptr_iterator_tag@0@PAPAVioBaseChar@@0@Z ENDP ; std::_Ptr_cat<ioBaseChar *,ioBaseChar *>
_TEXT	ENDS
PUBLIC	??$_Destroy_range@V?$allocator@PAVioBaseChar@@@std@@@std@@YAXPAPAVioBaseChar@@0AAV?$allocator@PAVioBaseChar@@@0@U_Scalar_ptr_iterator_tag@0@@Z ; std::_Destroy_range<std::allocator<ioBaseChar *> >
; Function compile flags: /Ogsp
; File c:\program files (x86)\microsoft visual studio 10.0\vc\include\xmemory
;	COMDAT ??$_Destroy_range@V?$allocator@PAVioBaseChar@@@std@@@std@@YAXPAPAVioBaseChar@@0AAV?$allocator@PAVioBaseChar@@@0@U_Scalar_ptr_iterator_tag@0@@Z
_TEXT	SEGMENT
__First$ = 8						; size = 4
__Last$ = 12						; size = 4
__Al$ = 16						; size = 4
___formal$ = 20						; size = 1
??$_Destroy_range@V?$allocator@PAVioBaseChar@@@std@@@std@@YAXPAPAVioBaseChar@@0AAV?$allocator@PAVioBaseChar@@@0@U_Scalar_ptr_iterator_tag@0@@Z PROC ; std::_Destroy_range<std::allocator<ioBaseChar *> >, COMDAT

; 105  : 	}

  00000	c3		 ret	 0
??$_Destroy_range@V?$allocator@PAVioBaseChar@@@std@@@std@@YAXPAPAVioBaseChar@@0AAV?$allocator@PAVioBaseChar@@@0@U_Scalar_ptr_iterator_tag@0@@Z ENDP ; std::_Destroy_range<std::allocator<ioBaseChar *> >
_TEXT	ENDS
PUBLIC	??$_Construct@UDistInfo@ioOwnerAttach5Dummy@@ABU12@@std@@YAXPAUDistInfo@ioOwnerAttach5Dummy@@ABU12@@Z ; std::_Construct<ioOwnerAttach5Dummy::DistInfo,ioOwnerAttach5Dummy::DistInfo const &>
; Function compile flags: /Ogsp
;	COMDAT ??$_Construct@UDistInfo@ioOwnerAttach5Dummy@@ABU12@@std@@YAXPAUDistInfo@ioOwnerAttach5Dummy@@ABU12@@Z
_TEXT	SEGMENT
__Ptr$ = 8						; size = 4
__Val$ = 12						; size = 4
??$_Construct@UDistInfo@ioOwnerAttach5Dummy@@ABU12@@std@@YAXPAUDistInfo@ioOwnerAttach5Dummy@@ABU12@@Z PROC ; std::_Construct<ioOwnerAttach5Dummy::DistInfo,ioOwnerAttach5Dummy::DistInfo const &>, COMDAT

; 46   : 	{	// construct object at _Ptr with value _Val

  00000	55		 push	 ebp
  00001	8b ec		 mov	 ebp, esp

; 47   : 	void _FARQ *_Vptr = _Ptr;
; 48   : 	::new (_Vptr) _Ty1(_STD forward<_Ty2>(_Val));

  00003	8b 45 08	 mov	 eax, DWORD PTR __Ptr$[ebp]
  00006	85 c0		 test	 eax, eax
  00008	74 0d		 je	 SHORT $LN3@Construct
  0000a	8b 4d 0c	 mov	 ecx, DWORD PTR __Val$[ebp]
  0000d	8b 11		 mov	 edx, DWORD PTR [ecx]
  0000f	89 10		 mov	 DWORD PTR [eax], edx
  00011	8b 49 04	 mov	 ecx, DWORD PTR [ecx+4]
  00014	89 48 04	 mov	 DWORD PTR [eax+4], ecx
$LN3@Construct:

; 49   : 	}

  00017	5d		 pop	 ebp
  00018	c3		 ret	 0
??$_Construct@UDistInfo@ioOwnerAttach5Dummy@@ABU12@@std@@YAXPAUDistInfo@ioOwnerAttach5Dummy@@ABU12@@Z ENDP ; std::_Construct<ioOwnerAttach5Dummy::DistInfo,ioOwnerAttach5Dummy::DistInfo const &>
_TEXT	ENDS
PUBLIC	?_Unchecked@?$_Vector_iterator@V?$_Vector_val@UDistInfo@ioOwnerAttach5Dummy@@V?$allocator@UDistInfo@ioOwnerAttach5Dummy@@@std@@@std@@@std@@QBEPAUDistInfo@ioOwnerAttach5Dummy@@XZ ; std::_Vector_iterator<std::_Vector_val<ioOwnerAttach5Dummy::DistInfo,std::allocator<ioOwnerAttach5Dummy::DistInfo> > >::_Unchecked
; Function compile flags: /Ogsp
; File c:\program files (x86)\microsoft visual studio 10.0\vc\include\vector
;	COMDAT ?_Unchecked@?$_Vector_iterator@V?$_Vector_val@UDistInfo@ioOwnerAttach5Dummy@@V?$allocator@UDistInfo@ioOwnerAttach5Dummy@@@std@@@std@@@std@@QBEPAUDistInfo@ioOwnerAttach5Dummy@@XZ
_TEXT	SEGMENT
?_Unchecked@?$_Vector_iterator@V?$_Vector_val@UDistInfo@ioOwnerAttach5Dummy@@V?$allocator@UDistInfo@ioOwnerAttach5Dummy@@@std@@@std@@@std@@QBEPAUDistInfo@ioOwnerAttach5Dummy@@XZ PROC ; std::_Vector_iterator<std::_Vector_val<ioOwnerAttach5Dummy::DistInfo,std::allocator<ioOwnerAttach5Dummy::DistInfo> > >::_Unchecked, COMDAT
; _this$ = ecx

; 317  : 		return (_Unchecked_type(this->_Ptr));

  00000	8b 01		 mov	 eax, DWORD PTR [ecx]

; 318  : 		}

  00002	c3		 ret	 0
?_Unchecked@?$_Vector_iterator@V?$_Vector_val@UDistInfo@ioOwnerAttach5Dummy@@V?$allocator@UDistInfo@ioOwnerAttach5Dummy@@@std@@@std@@@std@@QBEPAUDistInfo@ioOwnerAttach5Dummy@@XZ ENDP ; std::_Vector_iterator<std::_Vector_val<ioOwnerAttach5Dummy::DistInfo,std::allocator<ioOwnerAttach5Dummy::DistInfo> > >::_Unchecked
_TEXT	ENDS
PUBLIC	??$_Val_type@PAVioHashString@@@std@@YAPAVioHashString@@PAV1@@Z ; std::_Val_type<ioHashString *>
; Function compile flags: /Ogsp
; File c:\program files (x86)\microsoft visual studio 10.0\vc\include\xutility
;	COMDAT ??$_Val_type@PAVioHashString@@@std@@YAPAVioHashString@@PAV1@@Z
_TEXT	SEGMENT
___formal$ = 8						; size = 4
??$_Val_type@PAVioHashString@@@std@@YAPAVioHashString@@PAV1@@Z PROC ; std::_Val_type<ioHashString *>, COMDAT

; 790  : 	return (0);

  00000	33 c0		 xor	 eax, eax

; 791  : 	}

  00002	c3		 ret	 0
??$_Val_type@PAVioHashString@@@std@@YAPAVioHashString@@PAV1@@Z ENDP ; std::_Val_type<ioHashString *>
_TEXT	ENDS
PUBLIC	??$_Val_type@PAUDistInfo@ioOwnerAttach5Dummy@@@std@@YAPAUDistInfo@ioOwnerAttach5Dummy@@PAU12@@Z ; std::_Val_type<ioOwnerAttach5Dummy::DistInfo *>
; Function compile flags: /Ogsp
;	COMDAT ??$_Val_type@PAUDistInfo@ioOwnerAttach5Dummy@@@std@@YAPAUDistInfo@ioOwnerAttach5Dummy@@PAU12@@Z
_TEXT	SEGMENT
___formal$ = 8						; size = 4
??$_Val_type@PAUDistInfo@ioOwnerAttach5Dummy@@@std@@YAPAUDistInfo@ioOwnerAttach5Dummy@@PAU12@@Z PROC ; std::_Val_type<ioOwnerAttach5Dummy::DistInfo *>, COMDAT

; 790  : 	return (0);

  00000	33 c0		 xor	 eax, eax

; 791  : 	}

  00002	c3		 ret	 0
??$_Val_type@PAUDistInfo@ioOwnerAttach5Dummy@@@std@@YAPAUDistInfo@ioOwnerAttach5Dummy@@PAU12@@Z ENDP ; std::_Val_type<ioOwnerAttach5Dummy::DistInfo *>
_TEXT	ENDS
PUBLIC	??$move@AAUDistInfo@ioOwnerAttach5Dummy@@@std@@YA$$QAUDistInfo@ioOwnerAttach5Dummy@@AAU12@@Z ; std::move<ioOwnerAttach5Dummy::DistInfo &>
; Function compile flags: /Ogsp
; File c:\program files (x86)\microsoft visual studio 10.0\vc\include\utility
;	COMDAT ??$move@AAUDistInfo@ioOwnerAttach5Dummy@@@std@@YA$$QAUDistInfo@ioOwnerAttach5Dummy@@AAU12@@Z
_TEXT	SEGMENT
__Arg$ = 8						; size = 4
??$move@AAUDistInfo@ioOwnerAttach5Dummy@@@std@@YA$$QAUDistInfo@ioOwnerAttach5Dummy@@AAU12@@Z PROC ; std::move<ioOwnerAttach5Dummy::DistInfo &>, COMDAT

; 86   : 	{	// forward _Arg as movable

  00000	55		 push	 ebp
  00001	8b ec		 mov	 ebp, esp

; 87   : 	return ((typename tr1::_Remove_reference<_Ty>::_Type&&)_Arg);

  00003	8b 45 08	 mov	 eax, DWORD PTR __Arg$[ebp]

; 88   : 	}

  00006	5d		 pop	 ebp
  00007	c3		 ret	 0
??$move@AAUDistInfo@ioOwnerAttach5Dummy@@@std@@YA$$QAUDistInfo@ioOwnerAttach5Dummy@@AAU12@@Z ENDP ; std::move<ioOwnerAttach5Dummy::DistInfo &>
_TEXT	ENDS
PUBLIC	??$_Unchecked@PAUDistInfo@ioOwnerAttach5Dummy@@@std@@YAPAUDistInfo@ioOwnerAttach5Dummy@@PAU12@@Z ; std::_Unchecked<ioOwnerAttach5Dummy::DistInfo *>
; Function compile flags: /Ogsp
; File c:\program files (x86)\microsoft visual studio 10.0\vc\include\xutility
;	COMDAT ??$_Unchecked@PAUDistInfo@ioOwnerAttach5Dummy@@@std@@YAPAUDistInfo@ioOwnerAttach5Dummy@@PAU12@@Z
_TEXT	SEGMENT
__Src$ = 8						; size = 4
??$_Unchecked@PAUDistInfo@ioOwnerAttach5Dummy@@@std@@YAPAUDistInfo@ioOwnerAttach5Dummy@@PAU12@@Z PROC ; std::_Unchecked<ioOwnerAttach5Dummy::DistInfo *>, COMDAT

; 266  : 	{	// construct unchecked from checked, generic

  00000	55		 push	 ebp
  00001	8b ec		 mov	 ebp, esp

; 267  : 	return (_Src);

  00003	8b 45 08	 mov	 eax, DWORD PTR __Src$[ebp]

; 268  : 	}

  00006	5d		 pop	 ebp
  00007	c3		 ret	 0
??$_Unchecked@PAUDistInfo@ioOwnerAttach5Dummy@@@std@@YAPAUDistInfo@ioOwnerAttach5Dummy@@PAU12@@Z ENDP ; std::_Unchecked<ioOwnerAttach5Dummy::DistInfo *>
_TEXT	ENDS
PUBLIC	??$_Dist_type@PAUDistInfo@ioOwnerAttach5Dummy@@@std@@YAPAHPAUDistInfo@ioOwnerAttach5Dummy@@@Z ; std::_Dist_type<ioOwnerAttach5Dummy::DistInfo *>
; Function compile flags: /Ogsp
;	COMDAT ??$_Dist_type@PAUDistInfo@ioOwnerAttach5Dummy@@@std@@YAPAHPAUDistInfo@ioOwnerAttach5Dummy@@@Z
_TEXT	SEGMENT
___formal$ = 8						; size = 4
??$_Dist_type@PAUDistInfo@ioOwnerAttach5Dummy@@@std@@YAPAHPAUDistInfo@ioOwnerAttach5Dummy@@@Z PROC ; std::_Dist_type<ioOwnerAttach5Dummy::DistInfo *>, COMDAT

; 850  : 	return (0);

  00000	33 c0		 xor	 eax, eax

; 851  : 	}

  00002	c3		 ret	 0
??$_Dist_type@PAUDistInfo@ioOwnerAttach5Dummy@@@std@@YAPAHPAUDistInfo@ioOwnerAttach5Dummy@@@Z ENDP ; std::_Dist_type<ioOwnerAttach5Dummy::DistInfo *>
_TEXT	ENDS
PUBLIC	??$_Destroy@UDistInfo@ioOwnerAttach5Dummy@@@std@@YAXPAUDistInfo@ioOwnerAttach5Dummy@@@Z ; std::_Destroy<ioOwnerAttach5Dummy::DistInfo>
; Function compile flags: /Ogsp
; File c:\program files (x86)\microsoft visual studio 10.0\vc\include\xmemory
;	COMDAT ??$_Destroy@UDistInfo@ioOwnerAttach5Dummy@@@std@@YAXPAUDistInfo@ioOwnerAttach5Dummy@@@Z
_TEXT	SEGMENT
__Ptr$ = 8						; size = 4
??$_Destroy@UDistInfo@ioOwnerAttach5Dummy@@@std@@YAXPAUDistInfo@ioOwnerAttach5Dummy@@@Z PROC ; std::_Destroy<ioOwnerAttach5Dummy::DistInfo>, COMDAT

; 63   : 	_Ptr->~_Ty();
; 64   : 	}

  00000	c3		 ret	 0
??$_Destroy@UDistInfo@ioOwnerAttach5Dummy@@@std@@YAXPAUDistInfo@ioOwnerAttach5Dummy@@@Z ENDP ; std::_Destroy<ioOwnerAttach5Dummy::DistInfo>
_TEXT	ENDS
PUBLIC	??$forward@AAPAUDistInfo@ioOwnerAttach5Dummy@@@std@@YAAAPAUDistInfo@ioOwnerAttach5Dummy@@AAPAU12@@Z ; std::forward<ioOwnerAttach5Dummy::DistInfo * &>
; Function compile flags: /Ogsp
; File c:\program files (x86)\microsoft visual studio 10.0\vc\include\utility
;	COMDAT ??$forward@AAPAUDistInfo@ioOwnerAttach5Dummy@@@std@@YAAAPAUDistInfo@ioOwnerAttach5Dummy@@AAPAU12@@Z
_TEXT	SEGMENT
__Arg$ = 8						; size = 4
??$forward@AAPAUDistInfo@ioOwnerAttach5Dummy@@@std@@YAAAPAUDistInfo@ioOwnerAttach5Dummy@@AAPAU12@@Z PROC ; std::forward<ioOwnerAttach5Dummy::DistInfo * &>, COMDAT

; 78   : 	{	// forward _Arg, given explicitly specified type parameter

  00000	55		 push	 ebp
  00001	8b ec		 mov	 ebp, esp

; 79   : 	return ((_Ty&&)_Arg);

  00003	8b 45 08	 mov	 eax, DWORD PTR __Arg$[ebp]

; 80   : 	}

  00006	5d		 pop	 ebp
  00007	c3		 ret	 0
??$forward@AAPAUDistInfo@ioOwnerAttach5Dummy@@@std@@YAAAPAUDistInfo@ioOwnerAttach5Dummy@@AAPAU12@@Z ENDP ; std::forward<ioOwnerAttach5Dummy::DistInfo * &>
_TEXT	ENDS
PUBLIC	??$?0AAPAUDistInfo@ioOwnerAttach5Dummy@@AAPAU01@@?$_Pair_base@PAUDistInfo@ioOwnerAttach5Dummy@@PAU12@@std@@QAE@AAPAUDistInfo@ioOwnerAttach5Dummy@@0@Z ; std::_Pair_base<ioOwnerAttach5Dummy::DistInfo *,ioOwnerAttach5Dummy::DistInfo *>::_Pair_base<ioOwnerAttach5Dummy::DistInfo *,ioOwnerAttach5Dummy::DistInfo *><ioOwnerAttach5Dummy::DistInfo * &,ioOwnerAttach5Dummy::DistInfo * &>
; Function compile flags: /Ogsp
;	COMDAT ??$?0AAPAUDistInfo@ioOwnerAttach5Dummy@@AAPAU01@@?$_Pair_base@PAUDistInfo@ioOwnerAttach5Dummy@@PAU12@@std@@QAE@AAPAUDistInfo@ioOwnerAttach5Dummy@@0@Z
_TEXT	SEGMENT
__Val1$ = 8						; size = 4
__Val2$ = 12						; size = 4
??$?0AAPAUDistInfo@ioOwnerAttach5Dummy@@AAPAU01@@?$_Pair_base@PAUDistInfo@ioOwnerAttach5Dummy@@PAU12@@std@@QAE@AAPAUDistInfo@ioOwnerAttach5Dummy@@0@Z PROC ; std::_Pair_base<ioOwnerAttach5Dummy::DistInfo *,ioOwnerAttach5Dummy::DistInfo *>::_Pair_base<ioOwnerAttach5Dummy::DistInfo *,ioOwnerAttach5Dummy::DistInfo *><ioOwnerAttach5Dummy::DistInfo * &,ioOwnerAttach5Dummy::DistInfo * &>, COMDAT
; _this$ = ecx

; 163  : 		{	// construct from moved values

  00000	55		 push	 ebp
  00001	8b ec		 mov	 ebp, esp
  00003	8b c1		 mov	 eax, ecx
  00005	8b 4d 08	 mov	 ecx, DWORD PTR __Val1$[ebp]
  00008	8b 09		 mov	 ecx, DWORD PTR [ecx]
  0000a	89 08		 mov	 DWORD PTR [eax], ecx
  0000c	8b 4d 0c	 mov	 ecx, DWORD PTR __Val2$[ebp]
  0000f	8b 09		 mov	 ecx, DWORD PTR [ecx]
  00011	89 48 04	 mov	 DWORD PTR [eax+4], ecx

; 164  : 		}

  00014	5d		 pop	 ebp
  00015	c2 08 00	 ret	 8
??$?0AAPAUDistInfo@ioOwnerAttach5Dummy@@AAPAU01@@?$_Pair_base@PAUDistInfo@ioOwnerAttach5Dummy@@PAU12@@std@@QAE@AAPAUDistInfo@ioOwnerAttach5Dummy@@0@Z ENDP ; std::_Pair_base<ioOwnerAttach5Dummy::DistInfo *,ioOwnerAttach5Dummy::DistInfo *>::_Pair_base<ioOwnerAttach5Dummy::DistInfo *,ioOwnerAttach5Dummy::DistInfo *><ioOwnerAttach5Dummy::DistInfo * &,ioOwnerAttach5Dummy::DistInfo * &>
_TEXT	ENDS
PUBLIC	??$_Move@AAUDistInfo@ioOwnerAttach5Dummy@@@std@@YA$$QAUDistInfo@ioOwnerAttach5Dummy@@AAU12@@Z ; std::_Move<ioOwnerAttach5Dummy::DistInfo &>
; Function compile flags: /Ogsp
;	COMDAT ??$_Move@AAUDistInfo@ioOwnerAttach5Dummy@@@std@@YA$$QAUDistInfo@ioOwnerAttach5Dummy@@AAU12@@Z
_TEXT	SEGMENT
__Arg$ = 8						; size = 4
??$_Move@AAUDistInfo@ioOwnerAttach5Dummy@@@std@@YA$$QAUDistInfo@ioOwnerAttach5Dummy@@AAU12@@Z PROC ; std::_Move<ioOwnerAttach5Dummy::DistInfo &>, COMDAT

; 94   : 	{	// forward _Arg as movable

  00000	55		 push	 ebp
  00001	8b ec		 mov	 ebp, esp

; 95   : 	return ((typename tr1::_Remove_reference<_Ty>::_Type&&)_Arg);

  00003	8b 45 08	 mov	 eax, DWORD PTR __Arg$[ebp]

; 96   : 	}

  00006	5d		 pop	 ebp
  00007	c3		 ret	 0
??$_Move@AAUDistInfo@ioOwnerAttach5Dummy@@@std@@YA$$QAUDistInfo@ioOwnerAttach5Dummy@@AAU12@@Z ENDP ; std::_Move<ioOwnerAttach5Dummy::DistInfo &>
_TEXT	ENDS
PUBLIC	??$forward@VioHashString@@@std@@YA$$QAVioHashString@@AAV1@@Z ; std::forward<ioHashString>
; Function compile flags: /Ogsp
;	COMDAT ??$forward@VioHashString@@@std@@YA$$QAVioHashString@@AAV1@@Z
_TEXT	SEGMENT
__Arg$ = 8						; size = 4
??$forward@VioHashString@@@std@@YA$$QAVioHashString@@AAV1@@Z PROC ; std::forward<ioHashString>, COMDAT

; 78   : 	{	// forward _Arg, given explicitly specified type parameter

  00000	55		 push	 ebp
  00001	8b ec		 mov	 ebp, esp

; 79   : 	return ((_Ty&&)_Arg);

  00003	8b 45 08	 mov	 eax, DWORD PTR __Arg$[ebp]

; 80   : 	}

  00006	5d		 pop	 ebp
  00007	c3		 ret	 0
??$forward@VioHashString@@@std@@YA$$QAVioHashString@@AAV1@@Z ENDP ; std::forward<ioHashString>
_TEXT	ENDS
PUBLIC	??$forward@UDistInfo@ioOwnerAttach5Dummy@@@std@@YA$$QAUDistInfo@ioOwnerAttach5Dummy@@AAU12@@Z ; std::forward<ioOwnerAttach5Dummy::DistInfo>
; Function compile flags: /Ogsp
;	COMDAT ??$forward@UDistInfo@ioOwnerAttach5Dummy@@@std@@YA$$QAUDistInfo@ioOwnerAttach5Dummy@@AAU12@@Z
_TEXT	SEGMENT
__Arg$ = 8						; size = 4
??$forward@UDistInfo@ioOwnerAttach5Dummy@@@std@@YA$$QAUDistInfo@ioOwnerAttach5Dummy@@AAU12@@Z PROC ; std::forward<ioOwnerAttach5Dummy::DistInfo>, COMDAT

; 78   : 	{	// forward _Arg, given explicitly specified type parameter

  00000	55		 push	 ebp
  00001	8b ec		 mov	 ebp, esp

; 79   : 	return ((_Ty&&)_Arg);

  00003	8b 45 08	 mov	 eax, DWORD PTR __Arg$[ebp]

; 80   : 	}

  00006	5d		 pop	 ebp
  00007	c3		 ret	 0
??$forward@UDistInfo@ioOwnerAttach5Dummy@@@std@@YA$$QAUDistInfo@ioOwnerAttach5Dummy@@AAU12@@Z ENDP ; std::forward<ioOwnerAttach5Dummy::DistInfo>
_TEXT	ENDS
PUBLIC	??$_Push_heap@PAUDistInfo@ioOwnerAttach5Dummy@@HU12@@std@@YAXPAUDistInfo@ioOwnerAttach5Dummy@@HH$$QAU12@@Z ; std::_Push_heap<ioOwnerAttach5Dummy::DistInfo *,int,ioOwnerAttach5Dummy::DistInfo>
; Function compile flags: /Ogsp
; File c:\program files (x86)\microsoft visual studio 10.0\vc\include\algorithm
;	COMDAT ??$_Push_heap@PAUDistInfo@ioOwnerAttach5Dummy@@HU12@@std@@YAXPAUDistInfo@ioOwnerAttach5Dummy@@HH$$QAU12@@Z
_TEXT	SEGMENT
__First$ = 8						; size = 4
__Hole$ = 12						; size = 4
__Top$ = 16						; size = 4
__Val$ = 20						; size = 4
??$_Push_heap@PAUDistInfo@ioOwnerAttach5Dummy@@HU12@@std@@YAXPAUDistInfo@ioOwnerAttach5Dummy@@HH$$QAU12@@Z PROC ; std::_Push_heap<ioOwnerAttach5Dummy::DistInfo *,int,ioOwnerAttach5Dummy::DistInfo>, COMDAT

; 2410 : 	{	// percolate _Hole to _Top or where _Val belongs, using operator<

  00000	55		 push	 ebp
  00001	8b ec		 mov	 ebp, esp

; 2411 : 	for (_Diff _Idx = (_Hole - 1) / 2;

  00003	8b 4d 0c	 mov	 ecx, DWORD PTR __Hole$[ebp]
  00006	56		 push	 esi

; 2412 : 		_Top < _Hole && _DEBUG_LT(*(_First + _Idx), _Val);
; 2413 : 		_Idx = (_Hole - 1) / 2)

  00007	8b 75 08	 mov	 esi, DWORD PTR __First$[ebp]
  0000a	57		 push	 edi
  0000b	8b 7d 14	 mov	 edi, DWORD PTR __Val$[ebp]
  0000e	8d 41 ff	 lea	 eax, DWORD PTR [ecx-1]
  00011	eb 28		 jmp	 SHORT $LN18@Push_heap
$LL3@Push_heap:
  00013	f3 0f 10 44 c6
	04		 movss	 xmm0, DWORD PTR [esi+eax*8+4]
  00019	f3 0f 10 4f 04	 movss	 xmm1, DWORD PTR [edi+4]
  0001e	0f 5a c0	 cvtps2pd xmm0, xmm0
  00021	0f 5a c9	 cvtps2pd xmm1, xmm1
  00024	66 0f 2f c8	 comisd	 xmm1, xmm0
  00028	76 1b		 jbe	 SHORT $LN8@Push_heap

; 2414 : 		{	// move _Hole up to parent
; 2415 : 		*(_First + _Hole) = _Move(*(_First + _Idx));

  0002a	8b 14 c6	 mov	 edx, DWORD PTR [esi+eax*8]
  0002d	89 14 ce	 mov	 DWORD PTR [esi+ecx*8], edx
  00030	8b 54 c6 04	 mov	 edx, DWORD PTR [esi+eax*8+4]
  00034	89 54 ce 04	 mov	 DWORD PTR [esi+ecx*8+4], edx

; 2416 : 		_Hole = _Idx;

  00038	8b c8		 mov	 ecx, eax
  0003a	48		 dec	 eax
$LN18@Push_heap:

; 2412 : 		_Top < _Hole && _DEBUG_LT(*(_First + _Idx), _Val);
; 2413 : 		_Idx = (_Hole - 1) / 2)

  0003b	99		 cdq
  0003c	2b c2		 sub	 eax, edx
  0003e	d1 f8		 sar	 eax, 1
  00040	39 4d 10	 cmp	 DWORD PTR __Top$[ebp], ecx
  00043	7c ce		 jl	 SHORT $LL3@Push_heap
$LN8@Push_heap:

; 2417 : 		}
; 2418 : 
; 2419 : 	*(_First + _Hole) = _Move(_Val);	// drop _Val into final hole

  00045	8b 07		 mov	 eax, DWORD PTR [edi]
  00047	89 04 ce	 mov	 DWORD PTR [esi+ecx*8], eax
  0004a	8b 47 04	 mov	 eax, DWORD PTR [edi+4]
  0004d	5f		 pop	 edi
  0004e	89 44 ce 04	 mov	 DWORD PTR [esi+ecx*8+4], eax
  00052	5e		 pop	 esi

; 2420 : 	}

  00053	5d		 pop	 ebp
  00054	c3		 ret	 0
??$_Push_heap@PAUDistInfo@ioOwnerAttach5Dummy@@HU12@@std@@YAXPAUDistInfo@ioOwnerAttach5Dummy@@HH$$QAU12@@Z ENDP ; std::_Push_heap<ioOwnerAttach5Dummy::DistInfo *,int,ioOwnerAttach5Dummy::DistInfo>
_TEXT	ENDS
PUBLIC	??$_Move_backward@PAUDistInfo@ioOwnerAttach5Dummy@@PAU12@@std@@YAPAUDistInfo@ioOwnerAttach5Dummy@@PAU12@00U_Nonscalar_ptr_iterator_tag@0@@Z ; std::_Move_backward<ioOwnerAttach5Dummy::DistInfo *,ioOwnerAttach5Dummy::DistInfo *>
; Function compile flags: /Ogsp
; File c:\program files (x86)\microsoft visual studio 10.0\vc\include\xutility
;	COMDAT ??$_Move_backward@PAUDistInfo@ioOwnerAttach5Dummy@@PAU12@@std@@YAPAUDistInfo@ioOwnerAttach5Dummy@@PAU12@00U_Nonscalar_ptr_iterator_tag@0@@Z
_TEXT	SEGMENT
__First$ = 8						; size = 4
__Last$ = 12						; size = 4
__Dest$ = 16						; size = 4
___formal$ = 20						; size = 1
??$_Move_backward@PAUDistInfo@ioOwnerAttach5Dummy@@PAU12@@std@@YAPAUDistInfo@ioOwnerAttach5Dummy@@PAU12@00U_Nonscalar_ptr_iterator_tag@0@@Z PROC ; std::_Move_backward<ioOwnerAttach5Dummy::DistInfo *,ioOwnerAttach5Dummy::DistInfo *>, COMDAT

; 2617 : 	{	// move [_First, _Last) backwards to [..., _Dest), arbitrary iterators

  00000	55		 push	 ebp
  00001	8b ec		 mov	 ebp, esp

; 2618 : 	while (_First != _Last)

  00003	8b 4d 0c	 mov	 ecx, DWORD PTR __Last$[ebp]
  00006	8b 45 10	 mov	 eax, DWORD PTR __Dest$[ebp]
  00009	39 4d 08	 cmp	 DWORD PTR __First$[ebp], ecx
  0000c	74 15		 je	 SHORT $LN1@Move_backw
$LL2@Move_backw:

; 2619 : 		*--_Dest = _STD move(*--_Last);

  0000e	83 e9 08	 sub	 ecx, 8
  00011	8b 11		 mov	 edx, DWORD PTR [ecx]
  00013	83 e8 08	 sub	 eax, 8
  00016	89 10		 mov	 DWORD PTR [eax], edx
  00018	8b 51 04	 mov	 edx, DWORD PTR [ecx+4]
  0001b	89 50 04	 mov	 DWORD PTR [eax+4], edx
  0001e	3b 4d 08	 cmp	 ecx, DWORD PTR __First$[ebp]
  00021	75 eb		 jne	 SHORT $LL2@Move_backw
$LN1@Move_backw:

; 2620 : 	return (_Dest);
; 2621 : 	}

  00023	5d		 pop	 ebp
  00024	c3		 ret	 0
??$_Move_backward@PAUDistInfo@ioOwnerAttach5Dummy@@PAU12@@std@@YAPAUDistInfo@ioOwnerAttach5Dummy@@PAU12@00U_Nonscalar_ptr_iterator_tag@0@@Z ENDP ; std::_Move_backward<ioOwnerAttach5Dummy::DistInfo *,ioOwnerAttach5Dummy::DistInfo *>
_TEXT	ENDS
PUBLIC	?_DECSTR@@YAXPADH@Z				; _DECSTR
; Function compile flags: /Ogsp
; File d:\lost saga for developer\youtube\tutorial\source\src\lsclient\stringprotect.h
;	COMDAT ?_DECSTR@@YAXPADH@Z
_TEXT	SEGMENT
_s$ = 8							; size = 4
_l$ = 12						; size = 4
?_DECSTR@@YAXPADH@Z PROC				; _DECSTR, COMDAT

; 40   : __forceinline void _DECSTR(char* s, int l){int i=0,l4=(l-1)/4,*p=(int*)s;s[l-1]=0;for(;i<l4;++i)*(p++)^=0xEAEBECED;for(i=l4*4;i<l-1;++i)s[i]^=0xED-i%4;}

  00000	55		 push	 ebp
  00001	8b ec		 mov	 ebp, esp
  00003	8b 4d 0c	 mov	 ecx, DWORD PTR _l$[ebp]
  00006	56		 push	 esi
  00007	8b 75 08	 mov	 esi, DWORD PTR _s$[ebp]
  0000a	57		 push	 edi
  0000b	8d 79 ff	 lea	 edi, DWORD PTR [ecx-1]
  0000e	8b c7		 mov	 eax, edi
  00010	99		 cdq
  00011	83 e2 03	 and	 edx, 3
  00014	03 c2		 add	 eax, edx
  00016	c1 f8 02	 sar	 eax, 2
  00019	8b d6		 mov	 edx, esi
  0001b	c6 44 0e ff 00	 mov	 BYTE PTR [esi+ecx-1], 0
  00020	85 c0		 test	 eax, eax
  00022	7e 0e		 jle	 SHORT $LN4@DECSTR
  00024	8b c8		 mov	 ecx, eax
$LL6@DECSTR:
  00026	81 32 ed ec eb
	ea		 xor	 DWORD PTR [edx], -353637139 ; eaebecedH
  0002c	83 c2 04	 add	 edx, 4
  0002f	49		 dec	 ecx
  00030	75 f4		 jne	 SHORT $LL6@DECSTR
$LN4@DECSTR:
  00032	c1 e0 02	 shl	 eax, 2
  00035	eb 17		 jmp	 SHORT $LN14@DECSTR
$LL3@DECSTR:
  00037	8b c8		 mov	 ecx, eax
  00039	81 e1 03 00 00
	80		 and	 ecx, -2147483645	; 80000003H
  0003f	79 05		 jns	 SHORT $LN13@DECSTR
  00041	49		 dec	 ecx
  00042	83 c9 fc	 or	 ecx, -4			; fffffffcH
  00045	41		 inc	 ecx
$LN13@DECSTR:
  00046	b2 ed		 mov	 dl, -19			; ffffffedH
  00048	2a d1		 sub	 dl, cl
  0004a	30 14 30	 xor	 BYTE PTR [eax+esi], dl
  0004d	40		 inc	 eax
$LN14@DECSTR:
  0004e	3b c7		 cmp	 eax, edi
  00050	7c e5		 jl	 SHORT $LL3@DECSTR
  00052	5f		 pop	 edi
  00053	5e		 pop	 esi
  00054	5d		 pop	 ebp
  00055	c3		 ret	 0
?_DECSTR@@YAXPADH@Z ENDP				; _DECSTR
_TEXT	ENDS
PUBLIC	??0FireTime@@QAE@XZ				; FireTime::FireTime
EXTRN	__imp_??0ioHashString@@QAE@XZ:PROC
;	COMDAT xdata$x
; File d:\lost saga for developer\youtube\tutorial\source\src\lsclient\playentityhelpstruct.h
xdata$x	SEGMENT
__unwindtable$??0FireTime@@QAE@XZ DD 0ffffffffH
	DD	FLAT:__unwindfunclet$??0FireTime@@QAE@XZ$0
	DD	00H
	DD	FLAT:__unwindfunclet$??0FireTime@@QAE@XZ$1
__ehfuncinfo$??0FireTime@@QAE@XZ DD 019930522H
	DD	02H
	DD	FLAT:__unwindtable$??0FireTime@@QAE@XZ
	DD	2 DUP(00H)
	DD	2 DUP(00H)
	DD	00H
	DD	01H
; Function compile flags: /Ogsp
xdata$x	ENDS
;	COMDAT ??0FireTime@@QAE@XZ
_TEXT	SEGMENT
_this$ = -16						; size = 4
__$EHRec$ = -12						; size = 12
??0FireTime@@QAE@XZ PROC				; FireTime::FireTime, COMDAT
; _this$ = ecx

; 219  : 	FireTime()

  00000	6a 04		 push	 4
  00002	b8 00 00 00 00	 mov	 eax, __ehhandler$??0FireTime@@QAE@XZ
  00007	e8 00 00 00 00	 call	 __EH_prolog3
  0000c	8b f1		 mov	 esi, ecx
  0000e	89 75 f0	 mov	 DWORD PTR _this$[ebp], esi
  00011	8b 3d 00 00 00
	00		 mov	 edi, DWORD PTR __imp_??0ioHashString@@QAE@XZ
  00017	8d 4e 14	 lea	 ecx, DWORD PTR [esi+20]
  0001a	ff d7		 call	 edi
  0001c	33 db		 xor	 ebx, ebx
  0001e	8d 4e 30	 lea	 ecx, DWORD PTR [esi+48]
  00021	89 5d fc	 mov	 DWORD PTR __$EHRec$[ebp+8], ebx
  00024	ff d7		 call	 edi
  00026	8d 4e 44	 lea	 ecx, DWORD PTR [esi+68]
  00029	c6 45 fc 01	 mov	 BYTE PTR __$EHRec$[ebp+8], 1
  0002d	ff d7		 call	 edi

; 220  : 	{
; 221  : 		dwStart = 0;

  0002f	89 1e		 mov	 DWORD PTR [esi], ebx

; 222  : 		dwDuration = 0;

  00031	89 5e 04	 mov	 DWORD PTR [esi+4], ebx

; 223  : 
; 224  : 		iAttributeIdx = 0;

  00034	89 5e 08	 mov	 DWORD PTR [esi+8], ebx

; 225  : 		iResistanceIdx = 0;

  00037	89 5e 0c	 mov	 DWORD PTR [esi+12], ebx

; 226  : 
; 227  : 		bLoopWoundedAni = false;

  0003a	88 5e 10	 mov	 BYTE PTR [esi+16], bl

; 228  : 		dwWoundedAniDuration = 0;

  0003d	89 5e 24	 mov	 DWORD PTR [esi+36], ebx

; 229  : 
; 230  : 		dwWeaponIdx = 0;

  00040	89 5e 28	 mov	 DWORD PTR [esi+40], ebx

; 231  : 		eCollisionType = ACT_NONE;

  00043	c7 46 2c 06 00
	00 00		 mov	 DWORD PTR [esi+44], 6

; 232  : 		eFireTimeType = FTT_NORMAL_ATTACK;

  0004a	89 5e 40	 mov	 DWORD PTR [esi+64], ebx

; 233  : 
; 234  : 		m_iExtraValue = 0;

  0004d	89 5e 54	 mov	 DWORD PTR [esi+84], ebx

; 235  : 	}

  00050	8b c6		 mov	 eax, esi
  00052	e8 00 00 00 00	 call	 __EH_epilog3
  00057	c3		 ret	 0
_TEXT	ENDS
;	COMDAT text$x
text$x	SEGMENT
__unwindfunclet$??0FireTime@@QAE@XZ$0:
  00000	8b 4d f0	 mov	 ecx, DWORD PTR _this$[ebp]
  00003	83 c1 14	 add	 ecx, 20			; 00000014H
  00006	ff 25 00 00 00
	00		 jmp	 DWORD PTR __imp_??1ioHashString@@QAE@XZ
__unwindfunclet$??0FireTime@@QAE@XZ$1:
  0000c	8b 4d f0	 mov	 ecx, DWORD PTR _this$[ebp]
  0000f	83 c1 30	 add	 ecx, 48			; 00000030H
  00012	ff 25 00 00 00
	00		 jmp	 DWORD PTR __imp_??1ioHashString@@QAE@XZ
__ehhandler$??0FireTime@@QAE@XZ:
  00018	8b 54 24 08	 mov	 edx, DWORD PTR [esp+8]
  0001c	8d 42 0c	 lea	 eax, DWORD PTR [edx+12]
  0001f	8b 4a ec	 mov	 ecx, DWORD PTR [edx-20]
  00022	33 c8		 xor	 ecx, eax
  00024	e8 00 00 00 00	 call	 @__security_check_cookie@4
  00029	b8 00 00 00 00	 mov	 eax, OFFSET __ehfuncinfo$??0FireTime@@QAE@XZ
  0002e	e9 00 00 00 00	 jmp	 ___CxxFrameHandler3
text$x	ENDS
??0FireTime@@QAE@XZ ENDP				; FireTime::FireTime
PUBLIC	?CheckWeaponBySkill@ioWeapon@@QBE_NXZ		; ioWeapon::CheckWeaponBySkill
; Function compile flags: /Ogsp
; File d:\lost saga for developer\youtube\tutorial\source\src\lsclient\ioweapon.h
;	COMDAT ?CheckWeaponBySkill@ioWeapon@@QBE_NXZ
_TEXT	SEGMENT
?CheckWeaponBySkill@ioWeapon@@QBE_NXZ PROC		; ioWeapon::CheckWeaponBySkill, COMDAT
; _this$ = ecx

; 484  : 	inline bool CheckWeaponBySkill() const { return m_bUseSkill; }

  00000	8a 81 7e 05 00
	00		 mov	 al, BYTE PTR [ecx+1406]
  00006	c3		 ret	 0
?CheckWeaponBySkill@ioWeapon@@QBE_NXZ ENDP		; ioWeapon::CheckWeaponBySkill
_TEXT	ENDS
PUBLIC	?CheckWeaponByStruct@ioWeapon@@QBE_NXZ		; ioWeapon::CheckWeaponByStruct
; Function compile flags: /Ogsp
;	COMDAT ?CheckWeaponByStruct@ioWeapon@@QBE_NXZ
_TEXT	SEGMENT
?CheckWeaponByStruct@ioWeapon@@QBE_NXZ PROC		; ioWeapon::CheckWeaponByStruct, COMDAT
; _this$ = ecx

; 488  : 	inline bool CheckWeaponByStruct() const { return m_bStructWeapon; }

  00000	8a 81 8c 05 00
	00		 mov	 al, BYTE PTR [ecx+1420]
  00006	c3		 ret	 0
?CheckWeaponByStruct@ioWeapon@@QBE_NXZ ENDP		; ioWeapon::CheckWeaponByStruct
_TEXT	ENDS
PUBLIC	?CheckWeaponByDummyChar@ioWeapon@@QBE_NXZ	; ioWeapon::CheckWeaponByDummyChar
; Function compile flags: /Ogsp
;	COMDAT ?CheckWeaponByDummyChar@ioWeapon@@QBE_NXZ
_TEXT	SEGMENT
?CheckWeaponByDummyChar@ioWeapon@@QBE_NXZ PROC		; ioWeapon::CheckWeaponByDummyChar, COMDAT
; _this$ = ecx

; 489  : 	inline bool CheckWeaponByDummyChar() const { return m_bDummyCharWeapon; }

  00000	8a 81 9c 05 00
	00		 mov	 al, BYTE PTR [ecx+1436]
  00006	c3		 ret	 0
?CheckWeaponByDummyChar@ioWeapon@@QBE_NXZ ENDP		; ioWeapon::CheckWeaponByDummyChar
_TEXT	ENDS
PUBLIC	?GetOwnerName@ioWeapon@@QBEABVioHashString@@XZ	; ioWeapon::GetOwnerName
; Function compile flags: /Ogsp
;	COMDAT ?GetOwnerName@ioWeapon@@QBEABVioHashString@@XZ
_TEXT	SEGMENT
?GetOwnerName@ioWeapon@@QBEABVioHashString@@XZ PROC	; ioWeapon::GetOwnerName, COMDAT
; _this$ = ecx

; 636  : 	inline const ioHashString& GetOwnerName() const { return m_OwnerName; }

  00000	8d 41 10	 lea	 eax, DWORD PTR [ecx+16]
  00003	c3		 ret	 0
?GetOwnerName@ioWeapon@@QBEABVioHashString@@XZ ENDP	; ioWeapon::GetOwnerName
_TEXT	ENDS
PUBLIC	?GetWeaponByDummyChar@ioWeapon@@QAE?BHXZ	; ioWeapon::GetWeaponByDummyChar
; Function compile flags: /Ogsp
;	COMDAT ?GetWeaponByDummyChar@ioWeapon@@QAE?BHXZ
_TEXT	SEGMENT
?GetWeaponByDummyChar@ioWeapon@@QAE?BHXZ PROC		; ioWeapon::GetWeaponByDummyChar, COMDAT
; _this$ = ecx

; 638  : 	inline const int GetWeaponByDummyChar() { return m_iDummyIndex; }

  00000	8b 81 98 05 00
	00		 mov	 eax, DWORD PTR [ecx+1432]
  00006	c3		 ret	 0
?GetWeaponByDummyChar@ioWeapon@@QAE?BHXZ ENDP		; ioWeapon::GetWeaponByDummyChar
_TEXT	ENDS
PUBLIC	?size@?$vector@VioHashString@@V?$allocator@VioHashString@@@std@@@std@@QBEIXZ ; std::vector<ioHashString,std::allocator<ioHashString> >::size
; Function compile flags: /Ogsp
; File c:\program files (x86)\microsoft visual studio 10.0\vc\include\vector
;	COMDAT ?size@?$vector@VioHashString@@V?$allocator@VioHashString@@@std@@@std@@QBEIXZ
_TEXT	SEGMENT
?size@?$vector@VioHashString@@V?$allocator@VioHashString@@@std@@@std@@QBEIXZ PROC ; std::vector<ioHashString,std::allocator<ioHashString> >::size, COMDAT
; _this$ = ecx

; 879  : 		return (this->_Mylast - this->_Myfirst);

  00000	8b 41 04	 mov	 eax, DWORD PTR [ecx+4]
  00003	2b 01		 sub	 eax, DWORD PTR [ecx]
  00005	c1 f8 04	 sar	 eax, 4

; 880  : 		}

  00008	c3		 ret	 0
?size@?$vector@VioHashString@@V?$allocator@VioHashString@@@std@@@std@@QBEIXZ ENDP ; std::vector<ioHashString,std::allocator<ioHashString> >::size
_TEXT	ENDS
PUBLIC	??1?$_Vector_val@VioHashString@@V?$allocator@VioHashString@@@std@@@std@@QAE@XZ ; std::_Vector_val<ioHashString,std::allocator<ioHashString> >::~_Vector_val<ioHashString,std::allocator<ioHashString> >
; Function compile flags: /Ogsp
;	COMDAT ??1?$_Vector_val@VioHashString@@V?$allocator@VioHashString@@@std@@@std@@QAE@XZ
_TEXT	SEGMENT
??1?$_Vector_val@VioHashString@@V?$allocator@VioHashString@@@std@@@std@@QAE@XZ PROC ; std::_Vector_val<ioHashString,std::allocator<ioHashString> >::~_Vector_val<ioHashString,std::allocator<ioHashString> >, COMDAT
; _this$ = ecx

; 434  : 		}

  00000	c3		 ret	 0
??1?$_Vector_val@VioHashString@@V?$allocator@VioHashString@@@std@@@std@@QAE@XZ ENDP ; std::_Vector_val<ioHashString,std::allocator<ioHashString> >::~_Vector_val<ioHashString,std::allocator<ioHashString> >
_TEXT	ENDS
PUBLIC	??0?$allocator@VioHashString@@@std@@QAE@XZ	; std::allocator<ioHashString>::allocator<ioHashString>
; Function compile flags: /Ogsp
; File c:\program files (x86)\microsoft visual studio 10.0\vc\include\xmemory
;	COMDAT ??0?$allocator@VioHashString@@@std@@QAE@XZ
_TEXT	SEGMENT
??0?$allocator@VioHashString@@@std@@QAE@XZ PROC		; std::allocator<ioHashString>::allocator<ioHashString>, COMDAT
; _this$ = ecx

; 161  : 	_ALLOCATOR() _THROW0()

  00000	8b c1		 mov	 eax, ecx

; 162  : 		{	// construct default allocator (do nothing)
; 163  : 		}

  00002	c3		 ret	 0
??0?$allocator@VioHashString@@@std@@QAE@XZ ENDP		; std::allocator<ioHashString>::allocator<ioHashString>
_TEXT	ENDS
PUBLIC	??0?$allocator@VioHashString@@@std@@QAE@ABV01@@Z ; std::allocator<ioHashString>::allocator<ioHashString>
; Function compile flags: /Ogsp
;	COMDAT ??0?$allocator@VioHashString@@@std@@QAE@ABV01@@Z
_TEXT	SEGMENT
___formal$ = 8						; size = 4
??0?$allocator@VioHashString@@@std@@QAE@ABV01@@Z PROC	; std::allocator<ioHashString>::allocator<ioHashString>, COMDAT
; _this$ = ecx

; 165  : 	_ALLOCATOR(const _ALLOCATOR<_Ty>&) _THROW0()

  00000	8b c1		 mov	 eax, ecx

; 166  : 		{	// construct by copying (do nothing)
; 167  : 		}

  00002	c2 04 00	 ret	 4
??0?$allocator@VioHashString@@@std@@QAE@ABV01@@Z ENDP	; std::allocator<ioHashString>::allocator<ioHashString>
_TEXT	ENDS
PUBLIC	?EncryptValueToPool@?$CEncrypt@M@@AAEXPBD@Z	; CEncrypt<float>::EncryptValueToPool
EXTRN	?EncryptByte@ccddaabb@@QAEXPBDPADH@Z:PROC	; ccddaabb::EncryptByte
; Function compile flags: /Ogsp
; File d:\lost saga for developer\youtube\tutorial\source\src\lsclient\encryptvalue.h
;	COMDAT ?EncryptValueToPool@?$CEncrypt@M@@AAEXPBD@Z
_TEXT	SEGMENT
_value$ = 8						; size = 4
?EncryptValueToPool@?$CEncrypt@M@@AAEXPBD@Z PROC	; CEncrypt<float>::EncryptValueToPool, COMDAT
; _this$ = ecx

; 67   : 	{

  00000	55		 push	 ebp
  00001	8b ec		 mov	 ebp, esp

; 68   : 		m_RC5.EncryptByte( value, m_MemPool, max(m_ValueSize, DEFAULT_ENCRYPT) );

  00003	0f b7 41 06	 movzx	 eax, WORD PTR [ecx+6]
  00007	83 f8 04	 cmp	 eax, 4
  0000a	77 03		 ja	 SHORT $LN4@EncryptVal
  0000c	6a 04		 push	 4
  0000e	58		 pop	 eax
$LN4@EncryptVal:
  0000f	50		 push	 eax
  00010	8d 41 1c	 lea	 eax, DWORD PTR [ecx+28]
  00013	50		 push	 eax
  00014	ff 75 08	 push	 DWORD PTR _value$[ebp]
  00017	83 c1 0c	 add	 ecx, 12			; 0000000cH
  0001a	e8 00 00 00 00	 call	 ?EncryptByte@ccddaabb@@QAEXPBDPADH@Z ; ccddaabb::EncryptByte

; 69   : 		
; 70   : 	}

  0001f	5d		 pop	 ebp
  00020	c2 04 00	 ret	 4
?EncryptValueToPool@?$CEncrypt@M@@AAEXPBD@Z ENDP	; CEncrypt<float>::EncryptValueToPool
_TEXT	ENDS
PUBLIC	?DecryptValueToPool@?$CEncrypt@M@@QAEXPAM@Z	; CEncrypt<float>::DecryptValueToPool
EXTRN	?DecryptByte@ccddaabb@@QBEXPBDPADH@Z:PROC	; ccddaabb::DecryptByte
; Function compile flags: /Ogsp
;	COMDAT ?DecryptValueToPool@?$CEncrypt@M@@QAEXPAM@Z
_TEXT	SEGMENT
_value$ = 8						; size = 4
?DecryptValueToPool@?$CEncrypt@M@@QAEXPAM@Z PROC	; CEncrypt<float>::DecryptValueToPool, COMDAT
; _this$ = ecx

; 1648 : 	{

  00000	55		 push	 ebp
  00001	8b ec		 mov	 ebp, esp
  00003	56		 push	 esi

; 1649 : 		m_RC5.DecryptByte( m_MemPool, m_TempMem, 4 );

  00004	8d 71 28	 lea	 esi, DWORD PTR [ecx+40]
  00007	6a 04		 push	 4
  00009	8d 41 1c	 lea	 eax, DWORD PTR [ecx+28]
  0000c	56		 push	 esi
  0000d	50		 push	 eax
  0000e	83 c1 0c	 add	 ecx, 12			; 0000000cH
  00011	e8 00 00 00 00	 call	 ?DecryptByte@ccddaabb@@QBEXPBDPADH@Z ; ccddaabb::DecryptByte

; 1650 : 		*value = *((float*)m_TempMem);

  00016	d9 06		 fld	 DWORD PTR [esi]
  00018	8b 45 08	 mov	 eax, DWORD PTR _value$[ebp]
  0001b	d9 18		 fstp	 DWORD PTR [eax]
  0001d	5e		 pop	 esi

; 1651 : 	}

  0001e	5d		 pop	 ebp
  0001f	c2 04 00	 ret	 4
?DecryptValueToPool@?$CEncrypt@M@@QAEXPAM@Z ENDP	; CEncrypt<float>::DecryptValueToPool
_TEXT	ENDS
PUBLIC	?DecryptValueToPool@?$CEncrypt@_N@@QAEXPA_N@Z	; CEncrypt<bool>::DecryptValueToPool
; Function compile flags: /Ogsp
;	COMDAT ?DecryptValueToPool@?$CEncrypt@_N@@QAEXPA_N@Z
_TEXT	SEGMENT
_value$ = 8						; size = 4
?DecryptValueToPool@?$CEncrypt@_N@@QAEXPA_N@Z PROC	; CEncrypt<bool>::DecryptValueToPool, COMDAT
; _this$ = ecx

; 219  : 	{

  00000	55		 push	 ebp
  00001	8b ec		 mov	 ebp, esp
  00003	56		 push	 esi

; 220  : 		m_RC5.DecryptByte( m_MemPool, m_TempMem, 4 );

  00004	8d 71 28	 lea	 esi, DWORD PTR [ecx+40]
  00007	6a 04		 push	 4
  00009	8d 41 1c	 lea	 eax, DWORD PTR [ecx+28]
  0000c	56		 push	 esi
  0000d	50		 push	 eax
  0000e	83 c1 0c	 add	 ecx, 12			; 0000000cH
  00011	e8 00 00 00 00	 call	 ?DecryptByte@ccddaabb@@QBEXPBDPADH@Z ; ccddaabb::DecryptByte

; 221  : 		*value = *((bool*)m_TempMem);

  00016	8a 06		 mov	 al, BYTE PTR [esi]
  00018	8b 4d 08	 mov	 ecx, DWORD PTR _value$[ebp]
  0001b	88 01		 mov	 BYTE PTR [ecx], al
  0001d	5e		 pop	 esi

; 222  : 	}

  0001e	5d		 pop	 ebp
  0001f	c2 04 00	 ret	 4
?DecryptValueToPool@?$CEncrypt@_N@@QAEXPA_N@Z ENDP	; CEncrypt<bool>::DecryptValueToPool
_TEXT	ENDS
PUBLIC	?DecryptValueToPool@?$CEncrypt@W4TeamType@@@@QAEXPAW4TeamType@@@Z ; CEncrypt<enum TeamType>::DecryptValueToPool
; Function compile flags: /Ogsp
;	COMDAT ?DecryptValueToPool@?$CEncrypt@W4TeamType@@@@QAEXPAW4TeamType@@@Z
_TEXT	SEGMENT
_value$ = 8						; size = 4
?DecryptValueToPool@?$CEncrypt@W4TeamType@@@@QAEXPAW4TeamType@@@Z PROC ; CEncrypt<enum TeamType>::DecryptValueToPool, COMDAT
; _this$ = ecx

; 2959 : 	{

  00000	55		 push	 ebp
  00001	8b ec		 mov	 ebp, esp
  00003	56		 push	 esi

; 2960 : 		m_RC5.DecryptByte( m_MemPool, m_TempMem, sizeof(TeamType) );

  00004	8d 71 28	 lea	 esi, DWORD PTR [ecx+40]
  00007	6a 04		 push	 4
  00009	8d 41 1c	 lea	 eax, DWORD PTR [ecx+28]
  0000c	56		 push	 esi
  0000d	50		 push	 eax
  0000e	83 c1 0c	 add	 ecx, 12			; 0000000cH
  00011	e8 00 00 00 00	 call	 ?DecryptByte@ccddaabb@@QBEXPBDPADH@Z ; ccddaabb::DecryptByte

; 2961 : 		*value = *((TeamType*)m_TempMem);

  00016	8b 06		 mov	 eax, DWORD PTR [esi]
  00018	8b 4d 08	 mov	 ecx, DWORD PTR _value$[ebp]
  0001b	89 01		 mov	 DWORD PTR [ecx], eax
  0001d	5e		 pop	 esi

; 2962 : 	}

  0001e	5d		 pop	 ebp
  0001f	c2 04 00	 ret	 4
?DecryptValueToPool@?$CEncrypt@W4TeamType@@@@QAEXPAW4TeamType@@@Z ENDP ; CEncrypt<enum TeamType>::DecryptValueToPool
_TEXT	ENDS
PUBLIC	?_Xlen@?$vector@VioHashString@@V?$allocator@VioHashString@@@std@@@std@@IBEXXZ ; std::vector<ioHashString,std::allocator<ioHashString> >::_Xlen
; Function compile flags: /Ogsp
; File c:\program files (x86)\microsoft visual studio 10.0\vc\include\vector
;	COMDAT ?_Xlen@?$vector@VioHashString@@V?$allocator@VioHashString@@@std@@@std@@IBEXXZ
_TEXT	SEGMENT
?_Xlen@?$vector@VioHashString@@V?$allocator@VioHashString@@@std@@@std@@IBEXXZ PROC ; std::vector<ioHashString,std::allocator<ioHashString> >::_Xlen, COMDAT
; _this$ = ecx

; 1427 : 		_Xlength_error("vector<T> too long");

  00000	68 00 00 00 00	 push	 OFFSET ??_C@_0BD@OLBABOEK@vector?$DMT?$DO?5too?5long?$AA@
  00005	ff 15 00 00 00
	00		 call	 DWORD PTR __imp_?_Xlength_error@std@@YAXPBD@Z
$LN4@Xlen@2:
$LN3@Xlen@2:
  0000b	cc		 int	 3
?_Xlen@?$vector@VioHashString@@V?$allocator@VioHashString@@@std@@@std@@IBEXXZ ENDP ; std::vector<ioHashString,std::allocator<ioHashString> >::_Xlen
_TEXT	ENDS
PUBLIC	?deallocate@?$allocator@VioHashString@@@std@@QAEXPAVioHashString@@I@Z ; std::allocator<ioHashString>::deallocate
; Function compile flags: /Ogsp
; File c:\program files (x86)\microsoft visual studio 10.0\vc\include\xmemory
;	COMDAT ?deallocate@?$allocator@VioHashString@@@std@@QAEXPAVioHashString@@I@Z
_TEXT	SEGMENT
__Ptr$ = 8						; size = 4
___formal$ = 12						; size = 4
?deallocate@?$allocator@VioHashString@@@std@@QAEXPAVioHashString@@I@Z PROC ; std::allocator<ioHashString>::deallocate, COMDAT
; _this$ = ecx

; 181  : 		{	// deallocate object at _Ptr, ignore size

  00000	55		 push	 ebp
  00001	8b ec		 mov	 ebp, esp

; 182  : 		::operator delete(_Ptr);

  00003	ff 75 08	 push	 DWORD PTR __Ptr$[ebp]
  00006	e8 00 00 00 00	 call	 ??3@YAXPAX@Z		; operator delete
  0000b	59		 pop	 ecx

; 183  : 		}

  0000c	5d		 pop	 ebp
  0000d	c2 08 00	 ret	 8
?deallocate@?$allocator@VioHashString@@@std@@QAEXPAVioHashString@@I@Z ENDP ; std::allocator<ioHashString>::deallocate
_TEXT	ENDS
PUBLIC	??0?$_Vector_const_iterator@V?$_Vector_val@VioHashString@@V?$allocator@VioHashString@@@std@@@std@@@std@@QAE@PAVioHashString@@PBU_Container_base0@1@@Z ; std::_Vector_const_iterator<std::_Vector_val<ioHashString,std::allocator<ioHashString> > >::_Vector_const_iterator<std::_Vector_val<ioHashString,std::allocator<ioHashString> > >
; Function compile flags: /Ogsp
; File c:\program files (x86)\microsoft visual studio 10.0\vc\include\vector
;	COMDAT ??0?$_Vector_const_iterator@V?$_Vector_val@VioHashString@@V?$allocator@VioHashString@@@std@@@std@@@std@@QAE@PAVioHashString@@PBU_Container_base0@1@@Z
_TEXT	SEGMENT
__Parg$ = 8						; size = 4
__Pvector$ = 12						; size = 4
??0?$_Vector_const_iterator@V?$_Vector_val@VioHashString@@V?$allocator@VioHashString@@@std@@@std@@@std@@QAE@PAVioHashString@@PBU_Container_base0@1@@Z PROC ; std::_Vector_const_iterator<std::_Vector_val<ioHashString,std::allocator<ioHashString> > >::_Vector_const_iterator<std::_Vector_val<ioHashString,std::allocator<ioHashString> > >, COMDAT
; _this$ = ecx

; 45   : 		{	// construct with pointer _Parg

  00000	55		 push	 ebp
  00001	8b ec		 mov	 ebp, esp
  00003	8b c1		 mov	 eax, ecx
  00005	8b 4d 08	 mov	 ecx, DWORD PTR __Parg$[ebp]
  00008	89 08		 mov	 DWORD PTR [eax], ecx

; 46   : 		this->_Adopt(_Pvector);
; 47   : 		}

  0000a	5d		 pop	 ebp
  0000b	c2 08 00	 ret	 8
??0?$_Vector_const_iterator@V?$_Vector_val@VioHashString@@V?$allocator@VioHashString@@@std@@@std@@@std@@QAE@PAVioHashString@@PBU_Container_base0@1@@Z ENDP ; std::_Vector_const_iterator<std::_Vector_val<ioHashString,std::allocator<ioHashString> > >::_Vector_const_iterator<std::_Vector_val<ioHashString,std::allocator<ioHashString> > >
_TEXT	ENDS
PUBLIC	??0?$_Vector_iterator@V?$_Vector_val@VioHashString@@V?$allocator@VioHashString@@@std@@@std@@@std@@QAE@PAVioHashString@@PBU_Container_base0@1@@Z ; std::_Vector_iterator<std::_Vector_val<ioHashString,std::allocator<ioHashString> > >::_Vector_iterator<std::_Vector_val<ioHashString,std::allocator<ioHashString> > >
; Function compile flags: /Ogsp
;	COMDAT ??0?$_Vector_iterator@V?$_Vector_val@VioHashString@@V?$allocator@VioHashString@@@std@@@std@@@std@@QAE@PAVioHashString@@PBU_Container_base0@1@@Z
_TEXT	SEGMENT
__Parg$ = 8						; size = 4
__Pvector$ = 12						; size = 4
??0?$_Vector_iterator@V?$_Vector_val@VioHashString@@V?$allocator@VioHashString@@@std@@@std@@@std@@QAE@PAVioHashString@@PBU_Container_base0@1@@Z PROC ; std::_Vector_iterator<std::_Vector_val<ioHashString,std::allocator<ioHashString> > >::_Vector_iterator<std::_Vector_val<ioHashString,std::allocator<ioHashString> > >, COMDAT
; _this$ = ecx

; 304  : 		{	// construct with pointer _Parg

  00000	55		 push	 ebp
  00001	8b ec		 mov	 ebp, esp
  00003	8b c1		 mov	 eax, ecx
  00005	8b 4d 08	 mov	 ecx, DWORD PTR __Parg$[ebp]
  00008	89 08		 mov	 DWORD PTR [eax], ecx

; 305  : 		}

  0000a	5d		 pop	 ebp
  0000b	c2 08 00	 ret	 8
??0?$_Vector_iterator@V?$_Vector_val@VioHashString@@V?$allocator@VioHashString@@@std@@@std@@@std@@QAE@PAVioHashString@@PBU_Container_base0@1@@Z ENDP ; std::_Vector_iterator<std::_Vector_val<ioHashString,std::allocator<ioHashString> > >::_Vector_iterator<std::_Vector_val<ioHashString,std::allocator<ioHashString> > >
_TEXT	ENDS
PUBLIC	?max_size@?$allocator@VioHashString@@@std@@QBEIXZ ; std::allocator<ioHashString>::max_size
; Function compile flags: /Ogsp
; File c:\program files (x86)\microsoft visual studio 10.0\vc\include\xmemory
;	COMDAT ?max_size@?$allocator@VioHashString@@@std@@QBEIXZ
_TEXT	SEGMENT
?max_size@?$allocator@VioHashString@@@std@@QBEIXZ PROC	; std::allocator<ioHashString>::max_size, COMDAT
; _this$ = ecx

; 218  : 		_SIZT _Count = (_SIZT)(-1) / sizeof (_Ty);
; 219  : 		return (0 < _Count ? _Count : 1);

  00000	b8 ff ff ff 0f	 mov	 eax, 268435455		; 0fffffffH

; 220  : 		}

  00005	c3		 ret	 0
?max_size@?$allocator@VioHashString@@@std@@QBEIXZ ENDP	; std::allocator<ioHashString>::max_size
_TEXT	ENDS
PUBLIC	?_Compat@?$_Vector_const_iterator@V?$_Vector_val@VioHashString@@V?$allocator@VioHashString@@@std@@@std@@@std@@QBEXABV12@@Z ; std::_Vector_const_iterator<std::_Vector_val<ioHashString,std::allocator<ioHashString> > >::_Compat
; Function compile flags: /Ogsp
; File c:\program files (x86)\microsoft visual studio 10.0\vc\include\vector
;	COMDAT ?_Compat@?$_Vector_const_iterator@V?$_Vector_val@VioHashString@@V?$allocator@VioHashString@@@std@@@std@@@std@@QBEXABV12@@Z
_TEXT	SEGMENT
___formal$ = 8						; size = 4
?_Compat@?$_Vector_const_iterator@V?$_Vector_val@VioHashString@@V?$allocator@VioHashString@@@std@@@std@@@std@@QBEXABV12@@Z PROC ; std::_Vector_const_iterator<std::_Vector_val<ioHashString,std::allocator<ioHashString> > >::_Compat, COMDAT
; _this$ = ecx

; 253  : 		}

  00000	c2 04 00	 ret	 4
?_Compat@?$_Vector_const_iterator@V?$_Vector_val@VioHashString@@V?$allocator@VioHashString@@@std@@@std@@@std@@QBEXABV12@@Z ENDP ; std::_Vector_const_iterator<std::_Vector_val<ioHashString,std::allocator<ioHashString> > >::_Compat
_TEXT	ENDS
PUBLIC	??$_Allocate@VioHashString@@@std@@YAPAVioHashString@@IPAV1@@Z ; std::_Allocate<ioHashString>
; Function compile flags: /Ogsp
; File c:\program files (x86)\microsoft visual studio 10.0\vc\include\xmemory
;	COMDAT ??$_Allocate@VioHashString@@@std@@YAPAVioHashString@@IPAV1@@Z
_TEXT	SEGMENT
$T573990 = -12						; size = 12
$T573994 = 8						; size = 4
__Count$ = 8						; size = 4
___formal$ = 12						; size = 4
??$_Allocate@VioHashString@@@std@@YAPAVioHashString@@IPAV1@@Z PROC ; std::_Allocate<ioHashString>, COMDAT

; 30   : 	{	// allocate storage for _Count elements of type _Ty

  00000	55		 push	 ebp
  00001	8b ec		 mov	 ebp, esp

; 31   : 	void *_Ptr = 0;
; 32   : 
; 33   : 	if (_Count <= 0)

  00003	8b 4d 08	 mov	 ecx, DWORD PTR __Count$[ebp]
  00006	83 ec 0c	 sub	 esp, 12			; 0000000cH
  00009	33 c0		 xor	 eax, eax
  0000b	85 c9		 test	 ecx, ecx

; 34   : 		_Count = 0;
; 35   : 	else if (((_SIZT)(-1) / sizeof (_Ty) < _Count)

  0000d	74 3c		 je	 SHORT $LN5@Allocate@2

; 36   : 		|| (_Ptr = ::operator new(_Count * sizeof (_Ty))) == 0)

  0000f	81 f9 ff ff ff
	0f		 cmp	 ecx, 268435455		; 0fffffffH
  00015	77 0e		 ja	 SHORT $LN1@Allocate@2
  00017	c1 e1 04	 shl	 ecx, 4
  0001a	51		 push	 ecx
  0001b	e8 00 00 00 00	 call	 ??2@YAPAXI@Z		; operator new
  00020	59		 pop	 ecx
  00021	85 c0		 test	 eax, eax

; 38   : 
; 39   : 	return ((_Ty _FARQ *)_Ptr);

  00023	75 26		 jne	 SHORT $LN5@Allocate@2
$LN1@Allocate@2:

; 37   : 		_THROW_NCEE(bad_alloc, 0);

  00025	83 65 08 00	 and	 DWORD PTR $T573994[ebp], 0
  00029	8d 45 08	 lea	 eax, DWORD PTR $T573994[ebp]
  0002c	50		 push	 eax
  0002d	8d 4d f4	 lea	 ecx, DWORD PTR $T573990[ebp]
  00030	ff 15 00 00 00
	00		 call	 DWORD PTR __imp_??0exception@std@@QAE@ABQBD@Z
  00036	68 00 00 00 00	 push	 OFFSET __TI2?AVbad_alloc@std@@
  0003b	8d 45 f4	 lea	 eax, DWORD PTR $T573990[ebp]
  0003e	50		 push	 eax
  0003f	c7 45 f4 00 00
	00 00		 mov	 DWORD PTR $T573990[ebp], OFFSET ??_7bad_alloc@std@@6B@
  00046	e8 00 00 00 00	 call	 __CxxThrowException@8
$LN10@Allocate@2:
$LN5@Allocate@2:

; 40   : 	}

  0004b	c9		 leave
  0004c	c3		 ret	 0
$LN9@Allocate@2:
??$_Allocate@VioHashString@@@std@@YAPAVioHashString@@IPAV1@@Z ENDP ; std::_Allocate<ioHashString>
_TEXT	ENDS
EXTRN	__imp_??0exception@std@@QAE@ABV01@@Z:PROC
; Function compile flags: /Ogsp
;	COMDAT ??0bad_alloc@std@@QAE@ABV01@@Z
_TEXT	SEGMENT
___that$ = 8						; size = 4
??0bad_alloc@std@@QAE@ABV01@@Z PROC			; std::bad_alloc::bad_alloc, COMDAT
; _this$ = ecx
  00000	55		 push	 ebp
  00001	8b ec		 mov	 ebp, esp
  00003	56		 push	 esi
  00004	ff 75 08	 push	 DWORD PTR ___that$[ebp]
  00007	8b f1		 mov	 esi, ecx
  00009	ff 15 00 00 00
	00		 call	 DWORD PTR __imp_??0exception@std@@QAE@ABV01@@Z
  0000f	c7 06 00 00 00
	00		 mov	 DWORD PTR [esi], OFFSET ??_7bad_alloc@std@@6B@
  00015	8b c6		 mov	 eax, esi
  00017	5e		 pop	 esi
  00018	5d		 pop	 ebp
  00019	c2 04 00	 ret	 4
??0bad_alloc@std@@QAE@ABV01@@Z ENDP			; std::bad_alloc::bad_alloc
_TEXT	ENDS
PUBLIC	??$forward@ABVioHashString@@@std@@YAABVioHashString@@ABV1@@Z ; std::forward<ioHashString const &>
; Function compile flags: /Ogsp
; File c:\program files (x86)\microsoft visual studio 10.0\vc\include\utility
;	COMDAT ??$forward@ABVioHashString@@@std@@YAABVioHashString@@ABV1@@Z
_TEXT	SEGMENT
__Arg$ = 8						; size = 4
??$forward@ABVioHashString@@@std@@YAABVioHashString@@ABV1@@Z PROC ; std::forward<ioHashString const &>, COMDAT

; 78   : 	{	// forward _Arg, given explicitly specified type parameter

  00000	55		 push	 ebp
  00001	8b ec		 mov	 ebp, esp

; 79   : 	return ((_Ty&&)_Arg);

  00003	8b 45 08	 mov	 eax, DWORD PTR __Arg$[ebp]

; 80   : 	}

  00006	5d		 pop	 ebp
  00007	c3		 ret	 0
??$forward@ABVioHashString@@@std@@YAABVioHashString@@ABV1@@Z ENDP ; std::forward<ioHashString const &>
_TEXT	ENDS
PUBLIC	??$forward@AAVioHashString@@@std@@YAAAVioHashString@@AAV1@@Z ; std::forward<ioHashString &>
; Function compile flags: /Ogsp
;	COMDAT ??$forward@AAVioHashString@@@std@@YAAAVioHashString@@AAV1@@Z
_TEXT	SEGMENT
__Arg$ = 8						; size = 4
??$forward@AAVioHashString@@@std@@YAAAVioHashString@@AAV1@@Z PROC ; std::forward<ioHashString &>, COMDAT

; 78   : 	{	// forward _Arg, given explicitly specified type parameter

  00000	55		 push	 ebp
  00001	8b ec		 mov	 ebp, esp

; 79   : 	return ((_Ty&&)_Arg);

  00003	8b 45 08	 mov	 eax, DWORD PTR __Arg$[ebp]

; 80   : 	}

  00006	5d		 pop	 ebp
  00007	c3		 ret	 0
??$forward@AAVioHashString@@@std@@YAAAVioHashString@@AAV1@@Z ENDP ; std::forward<ioHashString &>
_TEXT	ENDS
PUBLIC	??$_Ptr_cat@VioHashString@@V1@@std@@YA?AU_Nonscalar_ptr_iterator_tag@0@PAVioHashString@@0@Z ; std::_Ptr_cat<ioHashString,ioHashString>
; Function compile flags: /Ogsp
; File c:\program files (x86)\microsoft visual studio 10.0\vc\include\xutility
;	COMDAT ??$_Ptr_cat@VioHashString@@V1@@std@@YA?AU_Nonscalar_ptr_iterator_tag@0@PAVioHashString@@0@Z
_TEXT	SEGMENT
__Cat$ = -1						; size = 1
___formal$ = 8						; size = 4
___formal$ = 12						; size = 4
??$_Ptr_cat@VioHashString@@V1@@std@@YA?AU_Nonscalar_ptr_iterator_tag@0@PAVioHashString@@0@Z PROC ; std::_Ptr_cat<ioHashString,ioHashString>, COMDAT

; 516  : 	{	// return pointer category from pointers

  00000	55		 push	 ebp
  00001	8b ec		 mov	 ebp, esp
  00003	51		 push	 ecx

; 517  : 	typename _Ptr_cat_helper<_Elem1, _Elem2>::_Type _Cat;
; 518  : 	return (_Cat);

  00004	8a 45 ff	 mov	 al, BYTE PTR __Cat$[ebp]

; 519  : 	}

  00007	c9		 leave
  00008	c3		 ret	 0
??$_Ptr_cat@VioHashString@@V1@@std@@YA?AU_Nonscalar_ptr_iterator_tag@0@PAVioHashString@@0@Z ENDP ; std::_Ptr_cat<ioHashString,ioHashString>
_TEXT	ENDS
PUBLIC	??$move@AAVioHashString@@@std@@YA$$QAVioHashString@@AAV1@@Z ; std::move<ioHashString &>
; Function compile flags: /Ogsp
; File c:\program files (x86)\microsoft visual studio 10.0\vc\include\utility
;	COMDAT ??$move@AAVioHashString@@@std@@YA$$QAVioHashString@@AAV1@@Z
_TEXT	SEGMENT
__Arg$ = 8						; size = 4
??$move@AAVioHashString@@@std@@YA$$QAVioHashString@@AAV1@@Z PROC ; std::move<ioHashString &>, COMDAT

; 86   : 	{	// forward _Arg as movable

  00000	55		 push	 ebp
  00001	8b ec		 mov	 ebp, esp

; 87   : 	return ((typename tr1::_Remove_reference<_Ty>::_Type&&)_Arg);

  00003	8b 45 08	 mov	 eax, DWORD PTR __Arg$[ebp]

; 88   : 	}

  00006	5d		 pop	 ebp
  00007	c3		 ret	 0
??$move@AAVioHashString@@@std@@YA$$QAVioHashString@@AAV1@@Z ENDP ; std::move<ioHashString &>
_TEXT	ENDS
PUBLIC	??_GioHashString@@QAEPAXI@Z			; ioHashString::`scalar deleting destructor'
; Function compile flags: /Ogsp
;	COMDAT ??_GioHashString@@QAEPAXI@Z
_TEXT	SEGMENT
___flags$ = 8						; size = 4
??_GioHashString@@QAEPAXI@Z PROC			; ioHashString::`scalar deleting destructor', COMDAT
; _this$ = ecx
  00000	55		 push	 ebp
  00001	8b ec		 mov	 ebp, esp
  00003	56		 push	 esi
  00004	8b f1		 mov	 esi, ecx
  00006	ff 15 00 00 00
	00		 call	 DWORD PTR __imp_??1ioHashString@@QAE@XZ
  0000c	f6 45 08 01	 test	 BYTE PTR ___flags$[ebp], 1
  00010	74 07		 je	 SHORT $LN1@scalar@2
  00012	56		 push	 esi
  00013	e8 00 00 00 00	 call	 ??3@YAXPAX@Z		; operator delete
  00018	59		 pop	 ecx
$LN1@scalar@2:
  00019	8b c6		 mov	 eax, esi
  0001b	5e		 pop	 esi
  0001c	5d		 pop	 ebp
  0001d	c2 04 00	 ret	 4
??_GioHashString@@QAEPAXI@Z ENDP			; ioHashString::`scalar deleting destructor'
_TEXT	ENDS
PUBLIC	??$_Construct@VioHashString@@ABV1@@std@@YAXPAVioHashString@@ABV1@@Z ; std::_Construct<ioHashString,ioHashString const &>
EXTRN	__imp_??0ioHashString@@QAE@ABV0@@Z:PROC
;	COMDAT xdata$x
xdata$x	SEGMENT
__unwindtable$??$_Construct@VioHashString@@ABV1@@std@@YAXPAVioHashString@@ABV1@@Z DD 0ffffffffH
	DD	FLAT:__unwindfunclet$??$_Construct@VioHashString@@ABV1@@std@@YAXPAVioHashString@@ABV1@@Z$0
__ehfuncinfo$??$_Construct@VioHashString@@ABV1@@std@@YAXPAVioHashString@@ABV1@@Z DD 019930522H
	DD	01H
	DD	FLAT:__unwindtable$??$_Construct@VioHashString@@ABV1@@std@@YAXPAVioHashString@@ABV1@@Z
	DD	2 DUP(00H)
	DD	2 DUP(00H)
	DD	00H
	DD	01H
; Function compile flags: /Ogsp
; File c:\program files (x86)\microsoft visual studio 10.0\vc\include\xmemory
xdata$x	ENDS
;	COMDAT ??$_Construct@VioHashString@@ABV1@@std@@YAXPAVioHashString@@ABV1@@Z
_TEXT	SEGMENT
$T574013 = -16						; size = 4
__$EHRec$ = -12						; size = 12
__Vptr$ = 8						; size = 4
__Ptr$ = 8						; size = 4
__Val$ = 12						; size = 4
??$_Construct@VioHashString@@ABV1@@std@@YAXPAVioHashString@@ABV1@@Z PROC ; std::_Construct<ioHashString,ioHashString const &>, COMDAT

; 46   : 	{	// construct object at _Ptr with value _Val

  00000	6a 04		 push	 4
  00002	b8 00 00 00 00	 mov	 eax, __ehhandler$??$_Construct@VioHashString@@ABV1@@std@@YAXPAVioHashString@@ABV1@@Z
  00007	e8 00 00 00 00	 call	 __EH_prolog3

; 47   : 	void _FARQ *_Vptr = _Ptr;

  0000c	8b 4d 08	 mov	 ecx, DWORD PTR __Ptr$[ebp]
  0000f	89 4d 08	 mov	 DWORD PTR __Vptr$[ebp], ecx

; 48   : 	::new (_Vptr) _Ty1(_STD forward<_Ty2>(_Val));

  00012	89 4d f0	 mov	 DWORD PTR $T574013[ebp], ecx
  00015	83 65 fc 00	 and	 DWORD PTR __$EHRec$[ebp+8], 0
  00019	85 c9		 test	 ecx, ecx
  0001b	74 09		 je	 SHORT $LN3@Construct@2
  0001d	ff 75 0c	 push	 DWORD PTR __Val$[ebp]
  00020	ff 15 00 00 00
	00		 call	 DWORD PTR __imp_??0ioHashString@@QAE@ABV0@@Z
$LN3@Construct@2:

; 49   : 	}

  00026	e8 00 00 00 00	 call	 __EH_epilog3
  0002b	c3		 ret	 0
_TEXT	ENDS
;	COMDAT text$x
text$x	SEGMENT
__unwindfunclet$??$_Construct@VioHashString@@ABV1@@std@@YAXPAVioHashString@@ABV1@@Z$0:
  00000	ff 75 08	 push	 DWORD PTR __Vptr$[ebp]
  00003	ff 75 f0	 push	 DWORD PTR $T574013[ebp]
  00006	e8 00 00 00 00	 call	 ??3@YAXPAX0@Z		; operator delete
  0000b	59		 pop	 ecx
  0000c	59		 pop	 ecx
  0000d	c3		 ret	 0
__ehhandler$??$_Construct@VioHashString@@ABV1@@std@@YAXPAVioHashString@@ABV1@@Z:
  0000e	8b 54 24 08	 mov	 edx, DWORD PTR [esp+8]
  00012	8d 42 0c	 lea	 eax, DWORD PTR [edx+12]
  00015	8b 4a ec	 mov	 ecx, DWORD PTR [edx-20]
  00018	33 c8		 xor	 ecx, eax
  0001a	e8 00 00 00 00	 call	 @__security_check_cookie@4
  0001f	b8 00 00 00 00	 mov	 eax, OFFSET __ehfuncinfo$??$_Construct@VioHashString@@ABV1@@std@@YAXPAVioHashString@@ABV1@@Z
  00024	e9 00 00 00 00	 jmp	 ___CxxFrameHandler3
text$x	ENDS
??$_Construct@VioHashString@@ABV1@@std@@YAXPAVioHashString@@ABV1@@Z ENDP ; std::_Construct<ioHashString,ioHashString const &>
PUBLIC	?ApplyDummyCharSync@ioOwnerAttach5Dummy@@UAEXPAVioPlayStage@@AAVSP2Packet@@@Z ; ioOwnerAttach5Dummy::ApplyDummyCharSync
EXTRN	??5SP2Packet@@QAEAAV0@AAH@Z:PROC		; SP2Packet::operator>>
EXTRN	?GetOwner@ioDummyChar@@QBEPAVioBaseChar@@XZ:PROC ; ioDummyChar::GetOwner
; Function compile flags: /Ogsp
; File d:\lost saga for developer\youtube\tutorial\source\src\lsclient\ioownerattach5dummy.cpp
;	COMDAT ?ApplyDummyCharSync@ioOwnerAttach5Dummy@@UAEXPAVioPlayStage@@AAVSP2Packet@@@Z
_TEXT	SEGMENT
_nState$ = -4						; size = 4
_pStage$ = 8						; size = 4
_rkPacket$ = 12						; size = 4
?ApplyDummyCharSync@ioOwnerAttach5Dummy@@UAEXPAVioPlayStage@@AAVSP2Packet@@@Z PROC ; ioOwnerAttach5Dummy::ApplyDummyCharSync, COMDAT
; _this$ = ecx

; 206  : {

  00000	55		 push	 ebp
  00001	8b ec		 mov	 ebp, esp
  00003	51		 push	 ecx
  00004	56		 push	 esi
  00005	57		 push	 edi
  00006	8b f1		 mov	 esi, ecx

; 207  : 	ioBaseChar *pOwner = GetOwner();

  00008	e8 00 00 00 00	 call	 ?GetOwner@ioDummyChar@@QBEPAVioBaseChar@@XZ ; ioDummyChar::GetOwner
  0000d	8b f8		 mov	 edi, eax

; 208  : 	if ( !pOwner )

  0000f	85 ff		 test	 edi, edi
  00011	74 2e		 je	 SHORT $LN3@ApplyDummy

; 209  : 		return;
; 210  : 
; 211  : 	if( !pStage ) 

  00013	83 7d 08 00	 cmp	 DWORD PTR _pStage$[ebp], 0
  00017	74 28		 je	 SHORT $LN3@ApplyDummy

; 212  : 		return;	
; 213  : 
; 214  : 	int nState;
; 215  : 	rkPacket >> nState;

  00019	8b 4d 0c	 mov	 ecx, DWORD PTR _rkPacket$[ebp]
  0001c	8d 45 fc	 lea	 eax, DWORD PTR _nState$[ebp]
  0001f	50		 push	 eax
  00020	e8 00 00 00 00	 call	 ??5SP2Packet@@QAEAAV0@AAH@Z ; SP2Packet::operator>>

; 216  : 
; 217  : 	switch ( (AttachState)nState )

  00025	8b 45 fc	 mov	 eax, DWORD PTR _nState$[ebp]
  00028	48		 dec	 eax
  00029	48		 dec	 eax
  0002a	74 0d		 je	 SHORT $LN2@ApplyDummy
  0002c	48		 dec	 eax
  0002d	75 12		 jne	 SHORT $LN3@ApplyDummy

; 221  : 		break;
; 222  : 	case AS_Follow:
; 223  : 		SetFollowState( pOwner );

  0002f	57		 push	 edi
  00030	8b ce		 mov	 ecx, esi
  00032	e8 00 00 00 00	 call	 ?SetFollowState@ioOwnerAttach5Dummy@@IAEXPAVioBaseChar@@@Z ; ioOwnerAttach5Dummy::SetFollowState

; 224  : 		break;

  00037	eb 08		 jmp	 SHORT $LN3@ApplyDummy
$LN2@ApplyDummy:

; 218  : 	{
; 219  : 	case AS_Delay:
; 220  : 		SetDelayState( pOwner );

  00039	57		 push	 edi
  0003a	8b ce		 mov	 ecx, esi
  0003c	e8 00 00 00 00	 call	 ?SetDelayState@ioOwnerAttach5Dummy@@IAEXPAVioBaseChar@@@Z ; ioOwnerAttach5Dummy::SetDelayState
$LN3@ApplyDummy:
  00041	5f		 pop	 edi
  00042	5e		 pop	 esi

; 225  : 	}
; 226  : }

  00043	c9		 leave
  00044	c2 08 00	 ret	 8
?ApplyDummyCharSync@ioOwnerAttach5Dummy@@UAEXPAVioPlayStage@@AAVSP2Packet@@@Z ENDP ; ioOwnerAttach5Dummy::ApplyDummyCharSync
_TEXT	ENDS
PUBLIC	__$ArrayPad$
PUBLIC	?SetRotateToTarget@ioOwnerAttach5Dummy@@IAEXPAVioBaseChar@@@Z ; ioOwnerAttach5Dummy::SetRotateToTarget
EXTRN	?ConvertDirToQuaternion@Help@@YA?AUD3DXQUATERNION@@ABUD3DXVECTOR3@@@Z:PROC ; Help::ConvertDirToQuaternion
EXTRN	_D3DXVec3Normalize@8:PROC
EXTRN	?GetBaseChar@ioBaseChar@@QAEPAV1@ABVioHashString@@@Z:PROC ; ioBaseChar::GetBaseChar
; Function compile flags: /Ogsp
;	COMDAT ?SetRotateToTarget@ioOwnerAttach5Dummy@@IAEXPAVioBaseChar@@@Z
_TEXT	SEGMENT
_qtRot$568900 = -44					; size = 16
_vTargetPos$568897 = -28				; size = 12
_vTargetDir$568898 = -16				; size = 12
__$ArrayPad$ = -4					; size = 4
_pOwner$ = 8						; size = 4
?SetRotateToTarget@ioOwnerAttach5Dummy@@IAEXPAVioBaseChar@@@Z PROC ; ioOwnerAttach5Dummy::SetRotateToTarget, COMDAT
; _this$ = ecx

; 568  : {

  00000	55		 push	 ebp
  00001	8b ec		 mov	 ebp, esp
  00003	83 ec 2c	 sub	 esp, 44			; 0000002cH
  00006	a1 00 00 00 00	 mov	 eax, DWORD PTR ___security_cookie
  0000b	33 c5		 xor	 eax, ebp
  0000d	89 45 fc	 mov	 DWORD PTR __$ArrayPad$[ebp], eax
  00010	53		 push	 ebx
  00011	56		 push	 esi
  00012	8b 75 08	 mov	 esi, DWORD PTR _pOwner$[ebp]
  00015	8b d9		 mov	 ebx, ecx

; 569  : 	if ( !pOwner || m_szTargetName.IsEmpty() )

  00017	85 f6		 test	 esi, esi
  00019	0f 84 9f 00 00
	00		 je	 $LN2@SetRotateT
  0001f	57		 push	 edi
  00020	8d bb 20 15 00
	00		 lea	 edi, DWORD PTR [ebx+5408]
  00026	8b cf		 mov	 ecx, edi
  00028	ff 15 00 00 00
	00		 call	 DWORD PTR __imp_?IsEmpty@ioHashString@@QBE_NXZ
  0002e	84 c0		 test	 al, al
  00030	0f 85 87 00 00
	00		 jne	 $LN10@SetRotateT

; 570  : 		return;
; 571  : 
; 572  : 	//  
; 573  : 	ioBaseChar *pTarget = pOwner->GetBaseChar( m_szTargetName );

  00036	57		 push	 edi
  00037	8b ce		 mov	 ecx, esi
  00039	e8 00 00 00 00	 call	 ?GetBaseChar@ioBaseChar@@QAEPAV1@ABVioHashString@@@Z ; ioBaseChar::GetBaseChar

; 574  : 	if ( pTarget )

  0003e	85 c0		 test	 eax, eax
  00040	74 7b		 je	 SHORT $LN10@SetRotateT

; 575  : 	{
; 576  : 		//  
; 577  : 		D3DXVECTOR3 vTargetPos = pTarget->GetWorldPosition();

  00042	8b 10		 mov	 edx, DWORD PTR [eax]
  00044	8b c8		 mov	 ecx, eax
  00046	ff 52 70	 call	 DWORD PTR [edx+112]
  00049	8b f0		 mov	 esi, eax

; 578  : 
; 579  : 		//  
; 580  : 		D3DXVECTOR3 vTargetDir = vTargetPos - GetWorldPosition();

  0004b	8b 03		 mov	 eax, DWORD PTR [ebx]
  0004d	8d 7d e4	 lea	 edi, DWORD PTR _vTargetPos$568897[ebp]
  00050	a5		 movsd
  00051	a5		 movsd
  00052	8b cb		 mov	 ecx, ebx
  00054	a5		 movsd
  00055	ff 50 70	 call	 DWORD PTR [eax+112]
  00058	f3 0f 10 48 08	 movss	 xmm1, DWORD PTR [eax+8]
  0005d	f3 0f 10 10	 movss	 xmm2, DWORD PTR [eax]
  00061	f3 0f 10 45 ec	 movss	 xmm0, DWORD PTR _vTargetPos$568897[ebp+8]
  00066	0f 5a c9	 cvtps2pd xmm1, xmm1
  00069	0f 5a c0	 cvtps2pd xmm0, xmm0
  0006c	f2 0f 5c c1	 subsd	 xmm0, xmm1
  00070	f3 0f 10 4d e4	 movss	 xmm1, DWORD PTR _vTargetPos$568897[ebp]

; 581  : 
; 582  : 		vTargetDir.y = 0.0f;
; 583  : 		D3DXVec3Normalize( &vTargetDir, &vTargetDir );		

  00075	8d 45 f0	 lea	 eax, DWORD PTR _vTargetDir$568898[ebp]
  00078	66 0f 5a c0	 cvtpd2ps xmm0, xmm0
  0007c	0f 5a c9	 cvtps2pd xmm1, xmm1
  0007f	0f 5a d2	 cvtps2pd xmm2, xmm2
  00082	50		 push	 eax
  00083	f2 0f 5c ca	 subsd	 xmm1, xmm2
  00087	f3 0f 11 45 f8	 movss	 DWORD PTR _vTargetDir$568898[ebp+8], xmm0
  0008c	0f 57 c0	 xorps	 xmm0, xmm0
  0008f	66 0f 5a c9	 cvtpd2ps xmm1, xmm1
  00093	50		 push	 eax
  00094	f3 0f 11 4d f0	 movss	 DWORD PTR _vTargetDir$568898[ebp], xmm1
  00099	f3 0f 11 45 f4	 movss	 DWORD PTR _vTargetDir$568898[ebp+4], xmm0
  0009e	e8 00 00 00 00	 call	 _D3DXVec3Normalize@8

; 584  : 
; 585  : 		D3DXQUATERNION qtRot = Help::ConvertDirToQuaternion( vTargetDir );

  000a3	8d 45 f0	 lea	 eax, DWORD PTR _vTargetDir$568898[ebp]
  000a6	50		 push	 eax
  000a7	8d 45 d4	 lea	 eax, DWORD PTR _qtRot$568900[ebp]
  000aa	50		 push	 eax
  000ab	e8 00 00 00 00	 call	 ?ConvertDirToQuaternion@Help@@YA?AUD3DXQUATERNION@@ABUD3DXVECTOR3@@@Z ; Help::ConvertDirToQuaternion

; 586  : 		SetWorldOrientation( qtRot );

  000b0	8b 03		 mov	 eax, DWORD PTR [ebx]
  000b2	59		 pop	 ecx
  000b3	59		 pop	 ecx
  000b4	8d 4d d4	 lea	 ecx, DWORD PTR _qtRot$568900[ebp]
  000b7	51		 push	 ecx
  000b8	8b cb		 mov	 ecx, ebx
  000ba	ff 50 48	 call	 DWORD PTR [eax+72]
$LN10@SetRotateT:
  000bd	5f		 pop	 edi
$LN2@SetRotateT:

; 587  : 	}
; 588  : }

  000be	8b 4d fc	 mov	 ecx, DWORD PTR __$ArrayPad$[ebp]
  000c1	5e		 pop	 esi
  000c2	33 cd		 xor	 ecx, ebp
  000c4	5b		 pop	 ebx
  000c5	e8 00 00 00 00	 call	 @__security_check_cookie@4
  000ca	c9		 leave
  000cb	c2 04 00	 ret	 4
?SetRotateToTarget@ioOwnerAttach5Dummy@@IAEXPAVioBaseChar@@@Z ENDP ; ioOwnerAttach5Dummy::SetRotateToTarget
_TEXT	ENDS
PUBLIC	_this$GSCopy$
PUBLIC	__$ArrayPad$
PUBLIC	?SetOffsetPosAndDir@ioOwnerAttach5Dummy@@IAEXPAVioBaseChar@@@Z ; ioOwnerAttach5Dummy::SetOffsetPosAndDir
EXTRN	__imp_?UNIT_Y@ioMath@@2UD3DXVECTOR3@@A:BYTE
EXTRN	__imp_??D@YA?AUD3DXVECTOR3@@ABUD3DXQUATERNION@@ABU0@@Z:PROC
; Function compile flags: /Ogsp
;	COMDAT ?SetOffsetPosAndDir@ioOwnerAttach5Dummy@@IAEXPAVioBaseChar@@@Z
_TEXT	SEGMENT
_vOnwerPos$ = -76					; size = 12
_qtOwnerRot$ = -64					; size = 16
tv808 = -48						; size = 4
_this$GSCopy$ = -44					; size = 4
_vSideDir$ = -40					; size = 12
_vDir$ = -28						; size = 12
_v$574072 = -16						; size = 12
$T568925 = -16						; size = 12
$T568920 = -16						; size = 12
__$ArrayPad$ = -4					; size = 4
_pOwner$ = 8						; size = 4
?SetOffsetPosAndDir@ioOwnerAttach5Dummy@@IAEXPAVioBaseChar@@@Z PROC ; ioOwnerAttach5Dummy::SetOffsetPosAndDir, COMDAT
; _this$ = ecx

; 609  : {

  00000	55		 push	 ebp
  00001	8b ec		 mov	 ebp, esp
  00003	83 ec 4c	 sub	 esp, 76			; 0000004cH
  00006	a1 00 00 00 00	 mov	 eax, DWORD PTR ___security_cookie
  0000b	33 c5		 xor	 eax, ebp
  0000d	89 45 fc	 mov	 DWORD PTR __$ArrayPad$[ebp], eax
  00010	53		 push	 ebx
  00011	8b 5d 08	 mov	 ebx, DWORD PTR _pOwner$[ebp]
  00014	89 4d d4	 mov	 DWORD PTR _this$GSCopy$[ebp], ecx

; 610  : 	if ( !pOwner )

  00017	85 db		 test	 ebx, ebx
  00019	0f 84 e9 02 00
	00		 je	 $LN2@SetOffsetP

; 611  : 		return;
; 612  : 
; 613  : 	D3DXQUATERNION qtOwnerRot = pOwner->GetWorldOrientation();

  0001f	8b 03		 mov	 eax, DWORD PTR [ebx]
  00021	56		 push	 esi
  00022	57		 push	 edi
  00023	8b cb		 mov	 ecx, ebx
  00025	ff 50 74	 call	 DWORD PTR [eax+116]
  00028	8b f0		 mov	 esi, eax

; 614  : 	D3DXVECTOR3 vOnwerPos = pOwner->GetWorldPosition();

  0002a	8b 03		 mov	 eax, DWORD PTR [ebx]
  0002c	8d 7d c0	 lea	 edi, DWORD PTR _qtOwnerRot$[ebp]
  0002f	a5		 movsd
  00030	a5		 movsd
  00031	a5		 movsd
  00032	8b cb		 mov	 ecx, ebx
  00034	a5		 movsd
  00035	ff 50 70	 call	 DWORD PTR [eax+112]
  00038	8b f0		 mov	 esi, eax
  0003a	8d 7d b4	 lea	 edi, DWORD PTR _vOnwerPos$[ebp]
  0003d	a5		 movsd
  0003e	a5		 movsd
  0003f	a5		 movsd

; 615  : 
; 616  : 	D3DXVECTOR3 vDir = qtOwnerRot * D3DXVECTOR3( 0.0f, 0.0f, -FLOAT1 );

  00040	b8 01 00 00 00	 mov	 eax, 1
  00045	0f 57 c0	 xorps	 xmm0, xmm0
  00048	89 45 d0	 mov	 DWORD PTR tv808[ebp], eax
  0004b	db 45 d0	 fild	 DWORD PTR tv808[ebp]
  0004e	f3 0f 11 45 f0	 movss	 DWORD PTR $T568920[ebp], xmm0
  00053	f3 0f 11 45 f4	 movss	 DWORD PTR $T568920[ebp+4], xmm0
  00058	85 c0		 test	 eax, eax
  0005a	79 06		 jns	 SHORT $LN30@SetOffsetP
  0005c	d8 05 00 00 00
	00		 fadd	 DWORD PTR __real@4f800000
$LN30@SetOffsetP:
  00062	8d 45 f0	 lea	 eax, DWORD PTR $T568920[ebp]
  00065	d9 e0		 fchs
  00067	50		 push	 eax
  00068	d9 5d f8	 fstp	 DWORD PTR $T568920[ebp+8]
  0006b	8d 45 c0	 lea	 eax, DWORD PTR _qtOwnerRot$[ebp]
  0006e	50		 push	 eax
  0006f	8d 45 e4	 lea	 eax, DWORD PTR _vDir$[ebp]
  00072	50		 push	 eax
  00073	ff 15 00 00 00
	00		 call	 DWORD PTR __imp_??D@YA?AUD3DXVECTOR3@@ABUD3DXQUATERNION@@ABU0@@Z
  00079	83 c4 0c	 add	 esp, 12			; 0000000cH

; 617  : 	D3DXVec3Normalize( &vDir, &vDir );

  0007c	8d 45 e4	 lea	 eax, DWORD PTR _vDir$[ebp]
  0007f	50		 push	 eax
  00080	50		 push	 eax
  00081	e8 00 00 00 00	 call	 _D3DXVec3Normalize@8

; 618  : 
; 619  : 	D3DXVECTOR3 vSideDir;
; 620  : 	D3DXVec3Cross( &vSideDir, &ioMath::UNIT_Y, &vDir );

  00086	f3 0f 10 5d ec	 movss	 xmm3, DWORD PTR _vDir$[ebp+8]
  0008b	a1 00 00 00 00	 mov	 eax, DWORD PTR __imp_?UNIT_Y@ioMath@@2UD3DXVECTOR3@@A
  00090	f3 0f 10 40 04	 movss	 xmm0, DWORD PTR [eax+4]
  00095	f3 0f 10 48 08	 movss	 xmm1, DWORD PTR [eax+8]
  0009a	f3 0f 10 65 e8	 movss	 xmm4, DWORD PTR _vDir$[ebp+4]
  0009f	0f 5a d0	 cvtps2pd xmm2, xmm0
  000a2	0f 5a db	 cvtps2pd xmm3, xmm3
  000a5	f2 0f 59 d3	 mulsd	 xmm2, xmm3
  000a9	0f 5a e4	 cvtps2pd xmm4, xmm4
  000ac	0f 5a c0	 cvtps2pd xmm0, xmm0
  000af	8d 75 f0	 lea	 esi, DWORD PTR _v$574072[ebp]
  000b2	8d 7d d8	 lea	 edi, DWORD PTR _vSideDir$[ebp]
  000b5	0f 5a d9	 cvtps2pd xmm3, xmm1
  000b8	f2 0f 59 dc	 mulsd	 xmm3, xmm4
  000bc	f3 0f 10 65 ec	 movss	 xmm4, DWORD PTR _vDir$[ebp+8]
  000c1	f2 0f 5c d3	 subsd	 xmm2, xmm3
  000c5	f3 0f 10 5d e4	 movss	 xmm3, DWORD PTR _vDir$[ebp]
  000ca	0f 5a db	 cvtps2pd xmm3, xmm3
  000cd	66 0f 5a d2	 cvtpd2ps xmm2, xmm2
  000d1	f3 0f 11 55 f0	 movss	 DWORD PTR _v$574072[ebp], xmm2
  000d6	f3 0f 10 10	 movss	 xmm2, DWORD PTR [eax]
  000da	0f 5a c9	 cvtps2pd xmm1, xmm1
  000dd	f2 0f 59 cb	 mulsd	 xmm1, xmm3
  000e1	0f 5a da	 cvtps2pd xmm3, xmm2
  000e4	0f 5a e4	 cvtps2pd xmm4, xmm4
  000e7	f2 0f 59 dc	 mulsd	 xmm3, xmm4
  000eb	f2 0f 5c cb	 subsd	 xmm1, xmm3
  000ef	66 0f 5a c9	 cvtpd2ps xmm1, xmm1
  000f3	f3 0f 11 4d f4	 movss	 DWORD PTR _v$574072[ebp+4], xmm1

; 621  : 	D3DXVec3Normalize( &vSideDir, &vSideDir );

  000f8	8d 45 d8	 lea	 eax, DWORD PTR _vSideDir$[ebp]
  000fb	50		 push	 eax
  000fc	50		 push	 eax
  000fd	0f 5a ca	 cvtps2pd xmm1, xmm2
  00100	f3 0f 10 55 e8	 movss	 xmm2, DWORD PTR _vDir$[ebp+4]
  00105	0f 5a d2	 cvtps2pd xmm2, xmm2
  00108	f2 0f 59 ca	 mulsd	 xmm1, xmm2
  0010c	f3 0f 10 55 e4	 movss	 xmm2, DWORD PTR _vDir$[ebp]
  00111	0f 5a d2	 cvtps2pd xmm2, xmm2
  00114	f2 0f 59 c2	 mulsd	 xmm0, xmm2
  00118	f2 0f 5c c8	 subsd	 xmm1, xmm0
  0011c	0f 57 c0	 xorps	 xmm0, xmm0
  0011f	66 0f 5a c1	 cvtpd2ps xmm0, xmm1
  00123	f3 0f 11 45 f8	 movss	 DWORD PTR _v$574072[ebp+8], xmm0
  00128	a5		 movsd
  00129	a5		 movsd
  0012a	a5		 movsd
  0012b	e8 00 00 00 00	 call	 _D3DXVec3Normalize@8

; 622  : 
; 623  : 	m_vOffsetPos = vOnwerPos;

  00130	8b 5d d4	 mov	 ebx, DWORD PTR _this$GSCopy$[ebp]

; 624  : 	m_vOffsetPos += (m_vTargetOffset.z * vDir);	

  00133	f3 0f 10 55 e4	 movss	 xmm2, DWORD PTR _vDir$[ebp]
  00138	8d 75 b4	 lea	 esi, DWORD PTR _vOnwerPos$[ebp]
  0013b	8d bb fc 14 00
	00		 lea	 edi, DWORD PTR [ebx+5372]
  00141	a5		 movsd
  00142	a5		 movsd
  00143	a5		 movsd
  00144	0f 5a d2	 cvtps2pd xmm2, xmm2
  00147	8b f3		 mov	 esi, ebx
  00149	f3 0f 10 86 88
	14 00 00	 movss	 xmm0, DWORD PTR [esi+5256]
  00151	0f 5a c8	 cvtps2pd xmm1, xmm0
  00154	f2 0f 59 ca	 mulsd	 xmm1, xmm2
  00158	f3 0f 10 55 e8	 movss	 xmm2, DWORD PTR _vDir$[ebp+4]
  0015d	0f 5a d8	 cvtps2pd xmm3, xmm0
  00160	0f 5a d2	 cvtps2pd xmm2, xmm2
  00163	f2 0f 59 d3	 mulsd	 xmm2, xmm3
  00167	f3 0f 10 5d ec	 movss	 xmm3, DWORD PTR _vDir$[ebp+8]
  0016c	66 0f 5a c9	 cvtpd2ps xmm1, xmm1
  00170	66 0f 5a d2	 cvtpd2ps xmm2, xmm2
  00174	0f 5a db	 cvtps2pd xmm3, xmm3
  00177	f3 0f 5a c9	 cvtss2sd xmm1, xmm1
  0017b	0f 5a c0	 cvtps2pd xmm0, xmm0
  0017e	f2 0f 59 d8	 mulsd	 xmm3, xmm0
  00182	0f 57 c0	 xorps	 xmm0, xmm0
  00185	66 0f 5a c3	 cvtpd2ps xmm0, xmm3
  00189	f3 0f 10 9b fc
	14 00 00	 movss	 xmm3, DWORD PTR [ebx+5372]
  00191	0f 5a db	 cvtps2pd xmm3, xmm3
  00194	f2 0f 58 cb	 addsd	 xmm1, xmm3
  00198	66 0f 5a c9	 cvtpd2ps xmm1, xmm1
  0019c	f3 0f 11 8b fc
	14 00 00	 movss	 DWORD PTR [ebx+5372], xmm1
  001a4	f3 0f 10 8b 00
	15 00 00	 movss	 xmm1, DWORD PTR [ebx+5376]
  001ac	0f 5a c9	 cvtps2pd xmm1, xmm1
  001af	f3 0f 5a d2	 cvtss2sd xmm2, xmm2
  001b3	f2 0f 58 ca	 addsd	 xmm1, xmm2
  001b7	66 0f 5a c9	 cvtpd2ps xmm1, xmm1
  001bb	f3 0f 11 8b 00
	15 00 00	 movss	 DWORD PTR [ebx+5376], xmm1
  001c3	f3 0f 10 8b 04
	15 00 00	 movss	 xmm1, DWORD PTR [ebx+5380]
  001cb	0f 5a c9	 cvtps2pd xmm1, xmm1
  001ce	0f 5a c0	 cvtps2pd xmm0, xmm0
  001d1	f2 0f 58 c8	 addsd	 xmm1, xmm0
  001d5	0f 57 c0	 xorps	 xmm0, xmm0
  001d8	66 0f 5a c1	 cvtpd2ps xmm0, xmm1

; 625  : 	m_vOffsetPos += (m_vTargetOffset.x * vSideDir);	

  001dc	f3 0f 10 4d d8	 movss	 xmm1, DWORD PTR _vSideDir$[ebp]
  001e1	f3 0f 11 83 04
	15 00 00	 movss	 DWORD PTR [ebx+5380], xmm0
  001e9	f3 0f 10 86 80
	14 00 00	 movss	 xmm0, DWORD PTR [esi+5248]
  001f1	0f 5a c9	 cvtps2pd xmm1, xmm1
  001f4	0f 5a d0	 cvtps2pd xmm2, xmm0
  001f7	f2 0f 59 ca	 mulsd	 xmm1, xmm2
  001fb	f3 0f 10 55 dc	 movss	 xmm2, DWORD PTR _vSideDir$[ebp+4]
  00200	0f 5a d8	 cvtps2pd xmm3, xmm0
  00203	66 0f 5a c9	 cvtpd2ps xmm1, xmm1
  00207	0f 5a d2	 cvtps2pd xmm2, xmm2
  0020a	f2 0f 59 d3	 mulsd	 xmm2, xmm3
  0020e	f3 0f 10 5d e0	 movss	 xmm3, DWORD PTR _vSideDir$[ebp+8]
  00213	0f 5a c0	 cvtps2pd xmm0, xmm0
  00216	f3 0f 5a c9	 cvtss2sd xmm1, xmm1
  0021a	0f 5a db	 cvtps2pd xmm3, xmm3
  0021d	f2 0f 59 d8	 mulsd	 xmm3, xmm0
  00221	0f 57 c0	 xorps	 xmm0, xmm0
  00224	66 0f 5a c3	 cvtpd2ps xmm0, xmm3
  00228	f3 0f 10 9b fc
	14 00 00	 movss	 xmm3, DWORD PTR [ebx+5372]
  00230	0f 5a db	 cvtps2pd xmm3, xmm3
  00233	f2 0f 58 cb	 addsd	 xmm1, xmm3
  00237	66 0f 5a c9	 cvtpd2ps xmm1, xmm1
  0023b	f3 0f 11 8b fc
	14 00 00	 movss	 DWORD PTR [ebx+5372], xmm1
  00243	f3 0f 10 8b 00
	15 00 00	 movss	 xmm1, DWORD PTR [ebx+5376]
  0024b	0f 5a c9	 cvtps2pd xmm1, xmm1
  0024e	66 0f 5a d2	 cvtpd2ps xmm2, xmm2
  00252	f3 0f 5a d2	 cvtss2sd xmm2, xmm2
  00256	f2 0f 58 ca	 addsd	 xmm1, xmm2
  0025a	66 0f 5a c9	 cvtpd2ps xmm1, xmm1
  0025e	f3 0f 11 8b 00
	15 00 00	 movss	 DWORD PTR [ebx+5376], xmm1
  00266	f3 0f 10 8b 04
	15 00 00	 movss	 xmm1, DWORD PTR [ebx+5380]
  0026e	0f 5a c0	 cvtps2pd xmm0, xmm0
  00271	0f 5a c9	 cvtps2pd xmm1, xmm1
  00274	f2 0f 58 c8	 addsd	 xmm1, xmm0
  00278	0f 57 c0	 xorps	 xmm0, xmm0
  0027b	66 0f 5a c1	 cvtpd2ps xmm0, xmm1
  0027f	f3 0f 11 83 04
	15 00 00	 movss	 DWORD PTR [ebx+5380], xmm0

; 626  : 
; 627  : 	m_vMoveDir = m_vOffsetPos - GetWorldPosition();

  00287	8b 06		 mov	 eax, DWORD PTR [esi]
  00289	8b ce		 mov	 ecx, esi
  0028b	ff 50 70	 call	 DWORD PTR [eax+112]
  0028e	f3 0f 10 83 fc
	14 00 00	 movss	 xmm0, DWORD PTR [ebx+5372]
  00296	f3 0f 10 08	 movss	 xmm1, DWORD PTR [eax]
  0029a	0f 5a c0	 cvtps2pd xmm0, xmm0
  0029d	0f 5a c9	 cvtps2pd xmm1, xmm1
  002a0	f2 0f 5c c1	 subsd	 xmm0, xmm1
  002a4	f3 0f 10 48 04	 movss	 xmm1, DWORD PTR [eax+4]
  002a9	66 0f 5a c0	 cvtpd2ps xmm0, xmm0
  002ad	f3 0f 11 45 f0	 movss	 DWORD PTR $T568925[ebp], xmm0
  002b2	f3 0f 10 83 00
	15 00 00	 movss	 xmm0, DWORD PTR [ebx+5376]
  002ba	0f 5a c0	 cvtps2pd xmm0, xmm0
  002bd	0f 5a c9	 cvtps2pd xmm1, xmm1
  002c0	f2 0f 5c c1	 subsd	 xmm0, xmm1
  002c4	f3 0f 10 48 08	 movss	 xmm1, DWORD PTR [eax+8]
  002c9	66 0f 5a c0	 cvtpd2ps xmm0, xmm0
  002cd	f3 0f 11 45 f4	 movss	 DWORD PTR $T568925[ebp+4], xmm0
  002d2	f3 0f 10 83 04
	15 00 00	 movss	 xmm0, DWORD PTR [ebx+5380]
  002da	0f 5a c0	 cvtps2pd xmm0, xmm0
  002dd	0f 5a c9	 cvtps2pd xmm1, xmm1
  002e0	f2 0f 5c c1	 subsd	 xmm0, xmm1
  002e4	8d be f0 14 00
	00		 lea	 edi, DWORD PTR [esi+5360]
  002ea	66 0f 5a c0	 cvtpd2ps xmm0, xmm0
  002ee	f3 0f 11 45 f8	 movss	 DWORD PTR $T568925[ebp+8], xmm0

; 628  : 	m_vMoveDir.y = 0.0f;

  002f3	0f 57 c0	 xorps	 xmm0, xmm0
  002f6	8d 75 f0	 lea	 esi, DWORD PTR $T568925[ebp]
  002f9	a5		 movsd
  002fa	a5		 movsd
  002fb	a5		 movsd
  002fc	8b c3		 mov	 eax, ebx
  002fe	5f		 pop	 edi
  002ff	f3 0f 11 80 f4
	14 00 00	 movss	 DWORD PTR [eax+5364], xmm0
  00307	5e		 pop	 esi
$LN2@SetOffsetP:

; 629  : }

  00308	8b 4d fc	 mov	 ecx, DWORD PTR __$ArrayPad$[ebp]
  0030b	33 cd		 xor	 ecx, ebp
  0030d	5b		 pop	 ebx
  0030e	e8 00 00 00 00	 call	 @__security_check_cookie@4
  00313	c9		 leave
  00314	c2 04 00	 ret	 4
?SetOffsetPosAndDir@ioOwnerAttach5Dummy@@IAEXPAVioBaseChar@@@Z ENDP ; ioOwnerAttach5Dummy::SetOffsetPosAndDir
_TEXT	ENDS
PUBLIC	?CheckFollowRange@ioOwnerAttach5Dummy@@IAE_NPAVioBaseChar@@@Z ; ioOwnerAttach5Dummy::CheckFollowRange
; Function compile flags: /Ogsp
;	COMDAT ?CheckFollowRange@ioOwnerAttach5Dummy@@IAE_NPAVioBaseChar@@@Z
_TEXT	SEGMENT
_pOwner$ = 8						; size = 4
?CheckFollowRange@ioOwnerAttach5Dummy@@IAE_NPAVioBaseChar@@@Z PROC ; ioOwnerAttach5Dummy::CheckFollowRange, COMDAT
; _this$ = ecx

; 719  : {

  00000	55		 push	 ebp
  00001	8b ec		 mov	 ebp, esp
  00003	53		 push	 ebx

; 720  : 	if ( !pOwner )

  00004	8b 5d 08	 mov	 ebx, DWORD PTR _pOwner$[ebp]
  00007	57		 push	 edi
  00008	8b f9		 mov	 edi, ecx
  0000a	85 db		 test	 ebx, ebx

; 721  : 		return false;

  0000c	0f 84 99 00 00
	00		 je	 $LN1@CheckFollo

; 722  : 
; 723  : 	D3DXVECTOR3 vDist = pOwner->GetWorldPosition() - GetWorldPosition();

  00012	8b 07		 mov	 eax, DWORD PTR [edi]
  00014	56		 push	 esi
  00015	ff 50 70	 call	 DWORD PTR [eax+112]
  00018	8b f0		 mov	 esi, eax
  0001a	8b 03		 mov	 eax, DWORD PTR [ebx]
  0001c	8b cb		 mov	 ecx, ebx
  0001e	ff 50 70	 call	 DWORD PTR [eax+112]
  00021	f3 0f 10 00	 movss	 xmm0, DWORD PTR [eax]
  00025	f3 0f 10 0e	 movss	 xmm1, DWORD PTR [esi]
  00029	f3 0f 10 56 04	 movss	 xmm2, DWORD PTR [esi+4]
  0002e	f3 0f 10 5e 08	 movss	 xmm3, DWORD PTR [esi+8]
  00033	0f 5a c9	 cvtps2pd xmm1, xmm1
  00036	0f 5a c0	 cvtps2pd xmm0, xmm0
  00039	f2 0f 5c c1	 subsd	 xmm0, xmm1
  0003d	f3 0f 10 48 04	 movss	 xmm1, DWORD PTR [eax+4]
  00042	0f 5a d2	 cvtps2pd xmm2, xmm2
  00045	0f 5a c9	 cvtps2pd xmm1, xmm1
  00048	f2 0f 5c ca	 subsd	 xmm1, xmm2
  0004c	f3 0f 10 50 08	 movss	 xmm2, DWORD PTR [eax+8]
  00051	66 0f 5a c0	 cvtpd2ps xmm0, xmm0
  00055	0f 5a d2	 cvtps2pd xmm2, xmm2
  00058	0f 5a db	 cvtps2pd xmm3, xmm3
  0005b	f2 0f 5c d3	 subsd	 xmm2, xmm3

; 724  : 
; 725  : 	if ( D3DXVec3LengthSq( &vDist ) > m_fFollowRange * m_fFollowRange )

  0005f	f3 0f 10 9f e8
	14 00 00	 movss	 xmm3, DWORD PTR [edi+5352]
  00067	66 0f 5a c9	 cvtpd2ps xmm1, xmm1
  0006b	f3 0f 5a c0	 cvtss2sd xmm0, xmm0
  0006f	f3 0f 5a c9	 cvtss2sd xmm1, xmm1
  00073	f2 0f 59 c0	 mulsd	 xmm0, xmm0
  00077	66 0f 5a d2	 cvtpd2ps xmm2, xmm2
  0007b	f2 0f 59 c9	 mulsd	 xmm1, xmm1
  0007f	f2 0f 58 c8	 addsd	 xmm1, xmm0
  00083	f3 0f 5a d2	 cvtss2sd xmm2, xmm2
  00087	f2 0f 59 d2	 mulsd	 xmm2, xmm2
  0008b	0f 57 c0	 xorps	 xmm0, xmm0
  0008e	f2 0f 58 ca	 addsd	 xmm1, xmm2
  00092	0f 5a db	 cvtps2pd xmm3, xmm3
  00095	66 0f 5a c1	 cvtpd2ps xmm0, xmm1
  00099	0f 5a c0	 cvtps2pd xmm0, xmm0
  0009c	f2 0f 59 db	 mulsd	 xmm3, xmm3
  000a0	66 0f 2f c3	 comisd	 xmm0, xmm3
  000a4	5e		 pop	 esi
  000a5	76 04		 jbe	 SHORT $LN1@CheckFollo

; 726  : 		return true;

  000a7	b0 01		 mov	 al, 1
  000a9	eb 02		 jmp	 SHORT $LN3@CheckFollo
$LN1@CheckFollo:

; 727  : 
; 728  : 	return false;

  000ab	32 c0		 xor	 al, al
$LN3@CheckFollo:
  000ad	5f		 pop	 edi
  000ae	5b		 pop	 ebx

; 729  : }

  000af	5d		 pop	 ebp
  000b0	c2 04 00	 ret	 4
?CheckFollowRange@ioOwnerAttach5Dummy@@IAE_NPAVioBaseChar@@@Z ENDP ; ioOwnerAttach5Dummy::CheckFollowRange
_TEXT	ENDS
PUBLIC	__$ArrayPad$
PUBLIC	?GetAttackDir@ioOwnerAttach5Dummy@@IAE?AUD3DXVECTOR3@@PAVioBaseChar@@ABU2@@Z ; ioOwnerAttach5Dummy::GetAttackDir
EXTRN	__imp_?VEC3_ZERO@ioMath@@2UD3DXVECTOR3@@A:BYTE
EXTRN	?GetMidPositionByRate@ioGameEntity@@QBE?AUD3DXVECTOR3@@M@Z:PROC ; ioGameEntity::GetMidPositionByRate
; Function compile flags: /Ogsp
;	COMDAT ?GetAttackDir@ioOwnerAttach5Dummy@@IAE?AUD3DXVECTOR3@@PAVioBaseChar@@ABU2@@Z
_TEXT	SEGMENT
tv254 = -32						; size = 4
tv250 = -32						; size = 4
tv246 = -32						; size = 4
tv225 = -32						; size = 4
_vTargetPos$569018 = -28				; size = 12
_vTargetDir$569020 = -16				; size = 12
__$ArrayPad$ = -4					; size = 4
___$ReturnUdt$ = 8					; size = 4
_pOwner$ = 12						; size = 4
_vPos$ = 16						; size = 4
?GetAttackDir@ioOwnerAttach5Dummy@@IAE?AUD3DXVECTOR3@@PAVioBaseChar@@ABU2@@Z PROC ; ioOwnerAttach5Dummy::GetAttackDir, COMDAT
; _this$ = ecx

; 789  : {

  00000	55		 push	 ebp
  00001	8b ec		 mov	 ebp, esp
  00003	83 ec 20	 sub	 esp, 32			; 00000020H
  00006	a1 00 00 00 00	 mov	 eax, DWORD PTR ___security_cookie
  0000b	33 c5		 xor	 eax, ebp
  0000d	89 45 fc	 mov	 DWORD PTR __$ArrayPad$[ebp], eax
  00010	53		 push	 ebx
  00011	8b 5d 08	 mov	 ebx, DWORD PTR ___$ReturnUdt$[ebp]
  00014	56		 push	 esi
  00015	8b 75 10	 mov	 esi, DWORD PTR _vPos$[ebp]
  00018	57		 push	 edi
  00019	8b 7d 0c	 mov	 edi, DWORD PTR _pOwner$[ebp]

; 790  : 	if ( !pOwner || m_szTargetName.IsEmpty() )

  0001c	85 ff		 test	 edi, edi
  0001e	0f 84 d1 00 00
	00		 je	 $LN2@GetAttackD
  00024	81 c1 20 15 00
	00		 add	 ecx, 5408		; 00001520H
  0002a	89 4d e0	 mov	 DWORD PTR tv225[ebp], ecx
  0002d	ff 15 00 00 00
	00		 call	 DWORD PTR __imp_?IsEmpty@ioHashString@@QBE_NXZ
  00033	84 c0		 test	 al, al
  00035	0f 85 ba 00 00
	00		 jne	 $LN2@GetAttackD

; 792  : 
; 793  : 	//  
; 794  : 	ioBaseChar *pTarget = pOwner->GetBaseChar( m_szTargetName );

  0003b	ff 75 e0	 push	 DWORD PTR tv225[ebp]
  0003e	8b cf		 mov	 ecx, edi
  00040	e8 00 00 00 00	 call	 ?GetBaseChar@ioBaseChar@@QAEPAV1@ABVioHashString@@@Z ; ioBaseChar::GetBaseChar
  00045	8b c8		 mov	 ecx, eax

; 795  : 	if ( pTarget )

  00047	85 c9		 test	 ecx, ecx
  00049	0f 84 a6 00 00
	00		 je	 $LN2@GetAttackD

; 796  : 	{
; 797  : 		//  
; 798  : 		D3DXVECTOR3 vTargetPos = pTarget->GetMidPositionByRate();

  0004f	b8 05 00 00 00	 mov	 eax, 5
  00054	8b d0		 mov	 edx, eax
  00056	b8 0a 00 00 00	 mov	 eax, 10			; 0000000aH
  0005b	89 55 e0	 mov	 DWORD PTR tv254[ebp], edx
  0005e	db 45 e0	 fild	 DWORD PTR tv254[ebp]
  00061	85 d2		 test	 edx, edx
  00063	79 06		 jns	 SHORT $LN14@GetAttackD
  00065	d8 05 00 00 00
	00		 fadd	 DWORD PTR __real@4f800000
$LN14@GetAttackD:
  0006b	89 45 e0	 mov	 DWORD PTR tv250[ebp], eax
  0006e	db 45 e0	 fild	 DWORD PTR tv250[ebp]
  00071	85 c0		 test	 eax, eax
  00073	79 06		 jns	 SHORT $LN15@GetAttackD
  00075	d8 05 00 00 00
	00		 fadd	 DWORD PTR __real@4f800000
$LN15@GetAttackD:
  0007b	de f9		 fdivp	 ST(1), ST(0)
  0007d	51		 push	 ecx
  0007e	8d 45 e4	 lea	 eax, DWORD PTR _vTargetPos$569018[ebp]
  00081	d9 5d e0	 fstp	 DWORD PTR tv246[ebp]
  00084	d9 45 e0	 fld	 DWORD PTR tv246[ebp]
  00087	d9 1c 24	 fstp	 DWORD PTR [esp]
  0008a	50		 push	 eax
  0008b	e8 00 00 00 00	 call	 ?GetMidPositionByRate@ioGameEntity@@QBE?AUD3DXVECTOR3@@M@Z ; ioGameEntity::GetMidPositionByRate

; 799  : 
; 800  : 		//  
; 801  : 		D3DXVECTOR3 vTargetDir = vTargetPos - vPos;

  00090	f3 0f 10 45 e4	 movss	 xmm0, DWORD PTR _vTargetPos$569018[ebp]
  00095	f3 0f 10 0e	 movss	 xmm1, DWORD PTR [esi]
  00099	0f 5a c0	 cvtps2pd xmm0, xmm0
  0009c	0f 5a c9	 cvtps2pd xmm1, xmm1
  0009f	f2 0f 5c c1	 subsd	 xmm0, xmm1
  000a3	f3 0f 10 4e 04	 movss	 xmm1, DWORD PTR [esi+4]
  000a8	66 0f 5a c0	 cvtpd2ps xmm0, xmm0
  000ac	f3 0f 11 45 f0	 movss	 DWORD PTR _vTargetDir$569020[ebp], xmm0
  000b1	f3 0f 10 45 e8	 movss	 xmm0, DWORD PTR _vTargetPos$569018[ebp+4]
  000b6	0f 5a c0	 cvtps2pd xmm0, xmm0
  000b9	0f 5a c9	 cvtps2pd xmm1, xmm1
  000bc	f2 0f 5c c1	 subsd	 xmm0, xmm1
  000c0	f3 0f 10 4e 08	 movss	 xmm1, DWORD PTR [esi+8]
  000c5	66 0f 5a c0	 cvtpd2ps xmm0, xmm0
  000c9	f3 0f 11 45 f4	 movss	 DWORD PTR _vTargetDir$569020[ebp+4], xmm0
  000ce	f3 0f 10 45 ec	 movss	 xmm0, DWORD PTR _vTargetPos$569018[ebp+8]

; 802  : 		D3DXVec3Normalize( &vTargetDir, &vTargetDir );

  000d3	8d 45 f0	 lea	 eax, DWORD PTR _vTargetDir$569020[ebp]
  000d6	0f 5a c0	 cvtps2pd xmm0, xmm0
  000d9	0f 5a c9	 cvtps2pd xmm1, xmm1
  000dc	50		 push	 eax
  000dd	f2 0f 5c c1	 subsd	 xmm0, xmm1
  000e1	66 0f 5a c0	 cvtpd2ps xmm0, xmm0
  000e5	50		 push	 eax
  000e6	f3 0f 11 45 f8	 movss	 DWORD PTR _vTargetDir$569020[ebp+8], xmm0
  000eb	e8 00 00 00 00	 call	 _D3DXVec3Normalize@8

; 803  : 		
; 804  : 		return vTargetDir;

  000f0	8d 75 f0	 lea	 esi, DWORD PTR _vTargetDir$569020[ebp]
  000f3	eb 06		 jmp	 SHORT $LN16@GetAttackD
$LN2@GetAttackD:

; 791  : 		return ioMath::VEC3_ZERO;

  000f5	8b 35 00 00 00
	00		 mov	 esi, DWORD PTR __imp_?VEC3_ZERO@ioMath@@2UD3DXVECTOR3@@A
$LN16@GetAttackD:

; 805  : 	}
; 806  : 
; 807  : 	return ioMath::VEC3_ZERO;
; 808  : }

  000fb	8b 4d fc	 mov	 ecx, DWORD PTR __$ArrayPad$[ebp]
  000fe	8b fb		 mov	 edi, ebx
  00100	a5		 movsd
  00101	a5		 movsd
  00102	a5		 movsd
  00103	5f		 pop	 edi
  00104	5e		 pop	 esi
  00105	8b c3		 mov	 eax, ebx
  00107	33 cd		 xor	 ecx, ebp
  00109	5b		 pop	 ebx
  0010a	e8 00 00 00 00	 call	 @__security_check_cookie@4
  0010f	c9		 leave
  00110	c2 0c 00	 ret	 12			; 0000000cH
?GetAttackDir@ioOwnerAttach5Dummy@@IAE?AUD3DXVECTOR3@@PAVioBaseChar@@ABU2@@Z ENDP ; ioOwnerAttach5Dummy::GetAttackDir
_TEXT	ENDS
PUBLIC	??D?$CEncrypt@M@@QAEMABM@Z			; CEncrypt<float>::operator*
; Function compile flags: /Ogsp
; File d:\lost saga for developer\youtube\tutorial\source\src\lsclient\encryptvalue.h
;	COMDAT ??D?$CEncrypt@M@@QAEMABM@Z
_TEXT	SEGMENT
_value$ = -4						; size = 4
tv130 = 8						; size = 4
_inValue$ = 8						; size = 4
??D?$CEncrypt@M@@QAEMABM@Z PROC				; CEncrypt<float>::operator*, COMDAT
; _this$ = ecx

; 1685 : 	{	

  00000	55		 push	 ebp
  00001	8b ec		 mov	 ebp, esp
  00003	51		 push	 ecx

; 1686 : 		type value;
; 1687 : 		DecryptValueToPool(&value);

  00004	8d 45 fc	 lea	 eax, DWORD PTR _value$[ebp]
  00007	50		 push	 eax
  00008	e8 00 00 00 00	 call	 ?DecryptValueToPool@?$CEncrypt@M@@QAEXPAM@Z ; CEncrypt<float>::DecryptValueToPool

; 1688 : #ifdef _NOTUSE
; 1689 : 		Debug();
; 1690 : #endif
; 1691 : 		return value * inValue;

  0000d	8b 45 08	 mov	 eax, DWORD PTR _inValue$[ebp]
  00010	d9 00		 fld	 DWORD PTR [eax]
  00012	d8 4d fc	 fmul	 DWORD PTR _value$[ebp]
  00015	d9 5d 08	 fstp	 DWORD PTR tv130[ebp]
  00018	d9 45 08	 fld	 DWORD PTR tv130[ebp]

; 1692 : 	}

  0001b	c9		 leave
  0001c	c2 04 00	 ret	 4
??D?$CEncrypt@M@@QAEMABM@Z ENDP				; CEncrypt<float>::operator*
_TEXT	ENDS
PUBLIC	??N?$CEncrypt@M@@QAE_NABM@Z			; CEncrypt<float>::operator<=
; Function compile flags: /Ogsp
;	COMDAT ??N?$CEncrypt@M@@QAE_NABM@Z
_TEXT	SEGMENT
_value$ = -4						; size = 4
_inValue$ = 8						; size = 4
??N?$CEncrypt@M@@QAE_NABM@Z PROC			; CEncrypt<float>::operator<=, COMDAT
; _this$ = ecx

; 1821 : 	{

  00000	55		 push	 ebp
  00001	8b ec		 mov	 ebp, esp
  00003	51		 push	 ecx

; 1822 : 		type value;
; 1823 : 		DecryptValueToPool(&value);

  00004	8d 45 fc	 lea	 eax, DWORD PTR _value$[ebp]
  00007	50		 push	 eax
  00008	e8 00 00 00 00	 call	 ?DecryptValueToPool@?$CEncrypt@M@@QAEXPAM@Z ; CEncrypt<float>::DecryptValueToPool

; 1824 : #ifdef _NOTUSE
; 1825 : 		Debug();
; 1826 : #endif
; 1827 : 		return (value <= inValue);

  0000d	8b 45 08	 mov	 eax, DWORD PTR _inValue$[ebp]
  00010	f3 0f 10 08	 movss	 xmm1, DWORD PTR [eax]
  00014	f3 0f 10 45 fc	 movss	 xmm0, DWORD PTR _value$[ebp]
  00019	0f 5a c0	 cvtps2pd xmm0, xmm0
  0001c	0f 5a c9	 cvtps2pd xmm1, xmm1
  0001f	33 c0		 xor	 eax, eax
  00021	66 0f 2f c8	 comisd	 xmm1, xmm0
  00025	72 01		 jb	 SHORT $LN4@operator@3
  00027	40		 inc	 eax
$LN4@operator@3:

; 1828 : 	}

  00028	c9		 leave
  00029	c2 04 00	 ret	 4
??N?$CEncrypt@M@@QAE_NABM@Z ENDP			; CEncrypt<float>::operator<=
_TEXT	ENDS
PUBLIC	?begin@?$vector@PAVioBaseChar@@V?$allocator@PAVioBaseChar@@@std@@@std@@QBE?AV?$_Vector_const_iterator@V?$_Vector_val@PAVioBaseChar@@V?$allocator@PAVioBaseChar@@@std@@@std@@@2@XZ ; std::vector<ioBaseChar *,std::allocator<ioBaseChar *> >::begin
; Function compile flags: /Ogsp
; File c:\program files (x86)\microsoft visual studio 10.0\vc\include\vector
;	COMDAT ?begin@?$vector@PAVioBaseChar@@V?$allocator@PAVioBaseChar@@@std@@@std@@QBE?AV?$_Vector_const_iterator@V?$_Vector_val@PAVioBaseChar@@V?$allocator@PAVioBaseChar@@@std@@@std@@@2@XZ
_TEXT	SEGMENT
___$ReturnUdt$ = 8					; size = 4
?begin@?$vector@PAVioBaseChar@@V?$allocator@PAVioBaseChar@@@std@@@std@@QBE?AV?$_Vector_const_iterator@V?$_Vector_val@PAVioBaseChar@@V?$allocator@PAVioBaseChar@@@std@@@std@@@2@XZ PROC ; std::vector<ioBaseChar *,std::allocator<ioBaseChar *> >::begin, COMDAT
; _this$ = ecx

; 786  : 		{	// return iterator for beginning of nonmutable sequence

  00000	55		 push	 ebp
  00001	8b ec		 mov	 ebp, esp

; 787  : 		return (const_iterator(this->_Myfirst, this));

  00003	8b 09		 mov	 ecx, DWORD PTR [ecx]
  00005	8b 45 08	 mov	 eax, DWORD PTR ___$ReturnUdt$[ebp]
  00008	89 08		 mov	 DWORD PTR [eax], ecx

; 788  : 		}

  0000a	5d		 pop	 ebp
  0000b	c2 04 00	 ret	 4
?begin@?$vector@PAVioBaseChar@@V?$allocator@PAVioBaseChar@@@std@@@std@@QBE?AV?$_Vector_const_iterator@V?$_Vector_val@PAVioBaseChar@@V?$allocator@PAVioBaseChar@@@std@@@std@@@2@XZ ENDP ; std::vector<ioBaseChar *,std::allocator<ioBaseChar *> >::begin
_TEXT	ENDS
PUBLIC	?end@?$vector@PAVioBaseChar@@V?$allocator@PAVioBaseChar@@@std@@@std@@QBE?AV?$_Vector_const_iterator@V?$_Vector_val@PAVioBaseChar@@V?$allocator@PAVioBaseChar@@@std@@@std@@@2@XZ ; std::vector<ioBaseChar *,std::allocator<ioBaseChar *> >::end
; Function compile flags: /Ogsp
;	COMDAT ?end@?$vector@PAVioBaseChar@@V?$allocator@PAVioBaseChar@@@std@@@std@@QBE?AV?$_Vector_const_iterator@V?$_Vector_val@PAVioBaseChar@@V?$allocator@PAVioBaseChar@@@std@@@std@@@2@XZ
_TEXT	SEGMENT
___$ReturnUdt$ = 8					; size = 4
?end@?$vector@PAVioBaseChar@@V?$allocator@PAVioBaseChar@@@std@@@std@@QBE?AV?$_Vector_const_iterator@V?$_Vector_val@PAVioBaseChar@@V?$allocator@PAVioBaseChar@@@std@@@std@@@2@XZ PROC ; std::vector<ioBaseChar *,std::allocator<ioBaseChar *> >::end, COMDAT
; _this$ = ecx

; 796  : 		{	// return iterator for end of nonmutable sequence

  00000	55		 push	 ebp
  00001	8b ec		 mov	 ebp, esp

; 797  : 		return (const_iterator(this->_Mylast, this));

  00003	8b 49 04	 mov	 ecx, DWORD PTR [ecx+4]
  00006	8b 45 08	 mov	 eax, DWORD PTR ___$ReturnUdt$[ebp]
  00009	89 08		 mov	 DWORD PTR [eax], ecx

; 798  : 		}

  0000b	5d		 pop	 ebp
  0000c	c2 04 00	 ret	 4
?end@?$vector@PAVioBaseChar@@V?$allocator@PAVioBaseChar@@@std@@@std@@QBE?AV?$_Vector_const_iterator@V?$_Vector_val@PAVioBaseChar@@V?$allocator@PAVioBaseChar@@@std@@@std@@@2@XZ ENDP ; std::vector<ioBaseChar *,std::allocator<ioBaseChar *> >::end
_TEXT	ENDS
PUBLIC	??0?$_Vector_val@PAVioBaseChar@@V?$allocator@PAVioBaseChar@@@std@@@std@@QAE@V?$allocator@PAVioBaseChar@@@1@@Z ; std::_Vector_val<ioBaseChar *,std::allocator<ioBaseChar *> >::_Vector_val<ioBaseChar *,std::allocator<ioBaseChar *> >
; Function compile flags: /Ogsp
;	COMDAT ??0?$_Vector_val@PAVioBaseChar@@V?$allocator@PAVioBaseChar@@@std@@@std@@QAE@V?$allocator@PAVioBaseChar@@@1@@Z
_TEXT	SEGMENT
__Al$ = 8						; size = 1
??0?$_Vector_val@PAVioBaseChar@@V?$allocator@PAVioBaseChar@@@std@@@std@@QAE@V?$allocator@PAVioBaseChar@@@1@@Z PROC ; std::_Vector_val<ioBaseChar *,std::allocator<ioBaseChar *> >::_Vector_val<ioBaseChar *,std::allocator<ioBaseChar *> >, COMDAT
; _this$ = ecx

; 426  : 		{	// construct allocator from _Al

  00000	8b c1		 mov	 eax, ecx

; 427  : 		_Myfirst = 0;

  00002	33 c9		 xor	 ecx, ecx
  00004	89 08		 mov	 DWORD PTR [eax], ecx

; 428  : 		_Mylast = 0;

  00006	89 48 04	 mov	 DWORD PTR [eax+4], ecx

; 429  : 		_Myend = 0;

  00009	89 48 08	 mov	 DWORD PTR [eax+8], ecx

; 430  : 		}

  0000c	c2 04 00	 ret	 4
??0?$_Vector_val@PAVioBaseChar@@V?$allocator@PAVioBaseChar@@@std@@@std@@QAE@V?$allocator@PAVioBaseChar@@@1@@Z ENDP ; std::_Vector_val<ioBaseChar *,std::allocator<ioBaseChar *> >::_Vector_val<ioBaseChar *,std::allocator<ioBaseChar *> >
_TEXT	ENDS
PUBLIC	?max_size@?$vector@UDistInfo@ioOwnerAttach5Dummy@@V?$allocator@UDistInfo@ioOwnerAttach5Dummy@@@std@@@std@@QBEIXZ ; std::vector<ioOwnerAttach5Dummy::DistInfo,std::allocator<ioOwnerAttach5Dummy::DistInfo> >::max_size
; Function compile flags: /Ogsp
;	COMDAT ?max_size@?$vector@UDistInfo@ioOwnerAttach5Dummy@@V?$allocator@UDistInfo@ioOwnerAttach5Dummy@@@std@@@std@@QBEIXZ
_TEXT	SEGMENT
?max_size@?$vector@UDistInfo@ioOwnerAttach5Dummy@@V?$allocator@UDistInfo@ioOwnerAttach5Dummy@@@std@@@std@@QBEIXZ PROC ; std::vector<ioOwnerAttach5Dummy::DistInfo,std::allocator<ioOwnerAttach5Dummy::DistInfo> >::max_size, COMDAT
; _this$ = ecx

; 884  : 		return (this->_Alval.max_size());

  00000	b8 ff ff ff 1f	 mov	 eax, 536870911		; 1fffffffH

; 885  : 		}

  00005	c3		 ret	 0
?max_size@?$vector@UDistInfo@ioOwnerAttach5Dummy@@V?$allocator@UDistInfo@ioOwnerAttach5Dummy@@@std@@@std@@QBEIXZ ENDP ; std::vector<ioOwnerAttach5Dummy::DistInfo,std::allocator<ioOwnerAttach5Dummy::DistInfo> >::max_size
_TEXT	ENDS
PUBLIC	??0?$_Vector_val@UDistInfo@ioOwnerAttach5Dummy@@V?$allocator@UDistInfo@ioOwnerAttach5Dummy@@@std@@@std@@QAE@V?$allocator@UDistInfo@ioOwnerAttach5Dummy@@@1@@Z ; std::_Vector_val<ioOwnerAttach5Dummy::DistInfo,std::allocator<ioOwnerAttach5Dummy::DistInfo> >::_Vector_val<ioOwnerAttach5Dummy::DistInfo,std::allocator<ioOwnerAttach5Dummy::DistInfo> >
; Function compile flags: /Ogsp
;	COMDAT ??0?$_Vector_val@UDistInfo@ioOwnerAttach5Dummy@@V?$allocator@UDistInfo@ioOwnerAttach5Dummy@@@std@@@std@@QAE@V?$allocator@UDistInfo@ioOwnerAttach5Dummy@@@1@@Z
_TEXT	SEGMENT
__Al$ = 8						; size = 1
??0?$_Vector_val@UDistInfo@ioOwnerAttach5Dummy@@V?$allocator@UDistInfo@ioOwnerAttach5Dummy@@@std@@@std@@QAE@V?$allocator@UDistInfo@ioOwnerAttach5Dummy@@@1@@Z PROC ; std::_Vector_val<ioOwnerAttach5Dummy::DistInfo,std::allocator<ioOwnerAttach5Dummy::DistInfo> >::_Vector_val<ioOwnerAttach5Dummy::DistInfo,std::allocator<ioOwnerAttach5Dummy::DistInfo> >, COMDAT
; _this$ = ecx

; 426  : 		{	// construct allocator from _Al

  00000	8b c1		 mov	 eax, ecx

; 427  : 		_Myfirst = 0;

  00002	33 c9		 xor	 ecx, ecx
  00004	89 08		 mov	 DWORD PTR [eax], ecx

; 428  : 		_Mylast = 0;

  00006	89 48 04	 mov	 DWORD PTR [eax+4], ecx

; 429  : 		_Myend = 0;

  00009	89 48 08	 mov	 DWORD PTR [eax+8], ecx

; 430  : 		}

  0000c	c2 04 00	 ret	 4
??0?$_Vector_val@UDistInfo@ioOwnerAttach5Dummy@@V?$allocator@UDistInfo@ioOwnerAttach5Dummy@@@std@@@std@@QAE@V?$allocator@UDistInfo@ioOwnerAttach5Dummy@@@1@@Z ENDP ; std::_Vector_val<ioOwnerAttach5Dummy::DistInfo,std::allocator<ioOwnerAttach5Dummy::DistInfo> >::_Vector_val<ioOwnerAttach5Dummy::DistInfo,std::allocator<ioOwnerAttach5Dummy::DistInfo> >
_TEXT	ENDS
PUBLIC	?allocate@?$allocator@UDistInfo@ioOwnerAttach5Dummy@@@std@@QAEPAUDistInfo@ioOwnerAttach5Dummy@@I@Z ; std::allocator<ioOwnerAttach5Dummy::DistInfo>::allocate
; Function compile flags: /Ogsp
; File c:\program files (x86)\microsoft visual studio 10.0\vc\include\xmemory
;	COMDAT ?allocate@?$allocator@UDistInfo@ioOwnerAttach5Dummy@@@std@@QAEPAUDistInfo@ioOwnerAttach5Dummy@@I@Z
_TEXT	SEGMENT
__Count$ = 8						; size = 4
?allocate@?$allocator@UDistInfo@ioOwnerAttach5Dummy@@@std@@QAEPAUDistInfo@ioOwnerAttach5Dummy@@I@Z PROC ; std::allocator<ioOwnerAttach5Dummy::DistInfo>::allocate, COMDAT
; _this$ = ecx

; 186  : 		{	// allocate array of _Count elements

  00000	55		 push	 ebp
  00001	8b ec		 mov	 ebp, esp

; 187  : 		return (_Allocate(_Count, (pointer)0));

  00003	6a 00		 push	 0
  00005	ff 75 08	 push	 DWORD PTR __Count$[ebp]
  00008	e8 00 00 00 00	 call	 ??$_Allocate@UDistInfo@ioOwnerAttach5Dummy@@@std@@YAPAUDistInfo@ioOwnerAttach5Dummy@@IPAU12@@Z ; std::_Allocate<ioOwnerAttach5Dummy::DistInfo>
  0000d	59		 pop	 ecx
  0000e	59		 pop	 ecx

; 188  : 		}

  0000f	5d		 pop	 ebp
  00010	c2 04 00	 ret	 4
?allocate@?$allocator@UDistInfo@ioOwnerAttach5Dummy@@@std@@QAEPAUDistInfo@ioOwnerAttach5Dummy@@I@Z ENDP ; std::allocator<ioOwnerAttach5Dummy::DistInfo>::allocate
_TEXT	ENDS
PUBLIC	??0?$_Vector_iterator@V?$_Vector_val@UDistInfo@ioOwnerAttach5Dummy@@V?$allocator@UDistInfo@ioOwnerAttach5Dummy@@@std@@@std@@@std@@QAE@PAUDistInfo@ioOwnerAttach5Dummy@@PBU_Container_base0@1@@Z ; std::_Vector_iterator<std::_Vector_val<ioOwnerAttach5Dummy::DistInfo,std::allocator<ioOwnerAttach5Dummy::DistInfo> > >::_Vector_iterator<std::_Vector_val<ioOwnerAttach5Dummy::DistInfo,std::allocator<ioOwnerAttach5Dummy::DistInfo> > >
; Function compile flags: /Ogsp
; File c:\program files (x86)\microsoft visual studio 10.0\vc\include\vector
;	COMDAT ??0?$_Vector_iterator@V?$_Vector_val@UDistInfo@ioOwnerAttach5Dummy@@V?$allocator@UDistInfo@ioOwnerAttach5Dummy@@@std@@@std@@@std@@QAE@PAUDistInfo@ioOwnerAttach5Dummy@@PBU_Container_base0@1@@Z
_TEXT	SEGMENT
__Parg$ = 8						; size = 4
__Pvector$ = 12						; size = 4
??0?$_Vector_iterator@V?$_Vector_val@UDistInfo@ioOwnerAttach5Dummy@@V?$allocator@UDistInfo@ioOwnerAttach5Dummy@@@std@@@std@@@std@@QAE@PAUDistInfo@ioOwnerAttach5Dummy@@PBU_Container_base0@1@@Z PROC ; std::_Vector_iterator<std::_Vector_val<ioOwnerAttach5Dummy::DistInfo,std::allocator<ioOwnerAttach5Dummy::DistInfo> > >::_Vector_iterator<std::_Vector_val<ioOwnerAttach5Dummy::DistInfo,std::allocator<ioOwnerAttach5Dummy::DistInfo> > >, COMDAT
; _this$ = ecx

; 304  : 		{	// construct with pointer _Parg

  00000	55		 push	 ebp
  00001	8b ec		 mov	 ebp, esp
  00003	8b c1		 mov	 eax, ecx
  00005	8b 4d 08	 mov	 ecx, DWORD PTR __Parg$[ebp]
  00008	89 08		 mov	 DWORD PTR [eax], ecx

; 305  : 		}

  0000a	5d		 pop	 ebp
  0000b	c2 08 00	 ret	 8
??0?$_Vector_iterator@V?$_Vector_val@UDistInfo@ioOwnerAttach5Dummy@@V?$allocator@UDistInfo@ioOwnerAttach5Dummy@@@std@@@std@@@std@@QAE@PAUDistInfo@ioOwnerAttach5Dummy@@PBU_Container_base0@1@@Z ENDP ; std::_Vector_iterator<std::_Vector_val<ioOwnerAttach5Dummy::DistInfo,std::allocator<ioOwnerAttach5Dummy::DistInfo> > >::_Vector_iterator<std::_Vector_val<ioOwnerAttach5Dummy::DistInfo,std::allocator<ioOwnerAttach5Dummy::DistInfo> > >
_TEXT	ENDS
PUBLIC	??8?$_Vector_const_iterator@V?$_Vector_val@PAVioBaseChar@@V?$allocator@PAVioBaseChar@@@std@@@std@@@std@@QBE_NABV01@@Z ; std::_Vector_const_iterator<std::_Vector_val<ioBaseChar *,std::allocator<ioBaseChar *> > >::operator==
; Function compile flags: /Ogsp
;	COMDAT ??8?$_Vector_const_iterator@V?$_Vector_val@PAVioBaseChar@@V?$allocator@PAVioBaseChar@@@std@@@std@@@std@@QBE_NABV01@@Z
_TEXT	SEGMENT
__Right$ = 8						; size = 4
??8?$_Vector_const_iterator@V?$_Vector_val@PAVioBaseChar@@V?$allocator@PAVioBaseChar@@@std@@@std@@@std@@QBE_NABV01@@Z PROC ; std::_Vector_const_iterator<std::_Vector_val<ioBaseChar *,std::allocator<ioBaseChar *> > >::operator==, COMDAT
; _this$ = ecx

; 201  : 		{	// test for iterator equality

  00000	55		 push	 ebp
  00001	8b ec		 mov	 ebp, esp

; 202  : 		_Compat(_Right);
; 203  : 		return (this->_Ptr == _Right._Ptr);

  00003	8b 01		 mov	 eax, DWORD PTR [ecx]
  00005	8b 4d 08	 mov	 ecx, DWORD PTR __Right$[ebp]
  00008	2b 01		 sub	 eax, DWORD PTR [ecx]
  0000a	f7 d8		 neg	 eax
  0000c	1b c0		 sbb	 eax, eax
  0000e	40		 inc	 eax

; 204  : 		}

  0000f	5d		 pop	 ebp
  00010	c2 04 00	 ret	 4
??8?$_Vector_const_iterator@V?$_Vector_val@PAVioBaseChar@@V?$allocator@PAVioBaseChar@@@std@@@std@@@std@@QBE_NABV01@@Z ENDP ; std::_Vector_const_iterator<std::_Vector_val<ioBaseChar *,std::allocator<ioBaseChar *> > >::operator==
_TEXT	ENDS
PUBLIC	?_Grow_to@?$vector@UDistInfo@ioOwnerAttach5Dummy@@V?$allocator@UDistInfo@ioOwnerAttach5Dummy@@@std@@@std@@IBEII@Z ; std::vector<ioOwnerAttach5Dummy::DistInfo,std::allocator<ioOwnerAttach5Dummy::DistInfo> >::_Grow_to
; Function compile flags: /Ogsp
;	COMDAT ?_Grow_to@?$vector@UDistInfo@ioOwnerAttach5Dummy@@V?$allocator@UDistInfo@ioOwnerAttach5Dummy@@@std@@@std@@IBEII@Z
_TEXT	SEGMENT
__Count$ = 8						; size = 4
?_Grow_to@?$vector@UDistInfo@ioOwnerAttach5Dummy@@V?$allocator@UDistInfo@ioOwnerAttach5Dummy@@@std@@@std@@IBEII@Z PROC ; std::vector<ioOwnerAttach5Dummy::DistInfo,std::allocator<ioOwnerAttach5Dummy::DistInfo> >::_Grow_to, COMDAT
; _this$ = ecx

; 1274 : 		{	// grow by 50% or at least to _Count

  00000	55		 push	 ebp
  00001	8b ec		 mov	 ebp, esp

; 1275 : 		size_type _Capacity = capacity();

  00003	8b 41 08	 mov	 eax, DWORD PTR [ecx+8]
  00006	2b 01		 sub	 eax, DWORD PTR [ecx]

; 1276 : 
; 1277 : 		_Capacity = max_size() - _Capacity / 2 < _Capacity
; 1278 : 			? 0 : _Capacity + _Capacity / 2;	// try to grow by 50%

  00008	ba ff ff ff 1f	 mov	 edx, 536870911		; 1fffffffH
  0000d	c1 f8 03	 sar	 eax, 3
  00010	8b c8		 mov	 ecx, eax
  00012	d1 e9		 shr	 ecx, 1
  00014	2b d1		 sub	 edx, ecx
  00016	3b d0		 cmp	 edx, eax
  00018	73 04		 jae	 SHORT $LN4@Grow_to
  0001a	33 c0		 xor	 eax, eax
  0001c	eb 02		 jmp	 SHORT $LN5@Grow_to
$LN4@Grow_to:
  0001e	03 c1		 add	 eax, ecx
$LN5@Grow_to:

; 1279 : 		if (_Capacity < _Count)

  00020	3b 45 08	 cmp	 eax, DWORD PTR __Count$[ebp]

; 1280 : 			_Capacity = _Count;

  00023	0f 42 45 08	 cmovb	 eax, DWORD PTR __Count$[ebp]

; 1281 : 		return (_Capacity);
; 1282 : 		}

  00027	5d		 pop	 ebp
  00028	c2 04 00	 ret	 4
?_Grow_to@?$vector@UDistInfo@ioOwnerAttach5Dummy@@V?$allocator@UDistInfo@ioOwnerAttach5Dummy@@@std@@@std@@IBEII@Z ENDP ; std::vector<ioOwnerAttach5Dummy::DistInfo,std::allocator<ioOwnerAttach5Dummy::DistInfo> >::_Grow_to
_TEXT	ENDS
PUBLIC	??8?$_Vector_const_iterator@V?$_Vector_val@UDistInfo@ioOwnerAttach5Dummy@@V?$allocator@UDistInfo@ioOwnerAttach5Dummy@@@std@@@std@@@std@@QBE_NABV01@@Z ; std::_Vector_const_iterator<std::_Vector_val<ioOwnerAttach5Dummy::DistInfo,std::allocator<ioOwnerAttach5Dummy::DistInfo> > >::operator==
; Function compile flags: /Ogsp
;	COMDAT ??8?$_Vector_const_iterator@V?$_Vector_val@UDistInfo@ioOwnerAttach5Dummy@@V?$allocator@UDistInfo@ioOwnerAttach5Dummy@@@std@@@std@@@std@@QBE_NABV01@@Z
_TEXT	SEGMENT
__Right$ = 8						; size = 4
??8?$_Vector_const_iterator@V?$_Vector_val@UDistInfo@ioOwnerAttach5Dummy@@V?$allocator@UDistInfo@ioOwnerAttach5Dummy@@@std@@@std@@@std@@QBE_NABV01@@Z PROC ; std::_Vector_const_iterator<std::_Vector_val<ioOwnerAttach5Dummy::DistInfo,std::allocator<ioOwnerAttach5Dummy::DistInfo> > >::operator==, COMDAT
; _this$ = ecx

; 201  : 		{	// test for iterator equality

  00000	55		 push	 ebp
  00001	8b ec		 mov	 ebp, esp

; 202  : 		_Compat(_Right);
; 203  : 		return (this->_Ptr == _Right._Ptr);

  00003	8b 01		 mov	 eax, DWORD PTR [ecx]
  00005	8b 4d 08	 mov	 ecx, DWORD PTR __Right$[ebp]
  00008	2b 01		 sub	 eax, DWORD PTR [ecx]
  0000a	f7 d8		 neg	 eax
  0000c	1b c0		 sbb	 eax, eax
  0000e	40		 inc	 eax

; 204  : 		}

  0000f	5d		 pop	 ebp
  00010	c2 04 00	 ret	 4
??8?$_Vector_const_iterator@V?$_Vector_val@UDistInfo@ioOwnerAttach5Dummy@@V?$allocator@UDistInfo@ioOwnerAttach5Dummy@@@std@@@std@@@std@@QBE_NABV01@@Z ENDP ; std::_Vector_const_iterator<std::_Vector_val<ioOwnerAttach5Dummy::DistInfo,std::allocator<ioOwnerAttach5Dummy::DistInfo> > >::operator==
_TEXT	ENDS
PUBLIC	__$ArrayPad$
PUBLIC	??$LoadFloat_e@$0P@@ioINILoader@@QAEMAAY0P@$$CBDM@Z ; ioINILoader::LoadFloat_e<15>
EXTRN	__imp_?LoadFloat@ioINILoader@@QAEMPBDM@Z:PROC
; Function compile flags: /Ogsp
; File d:\lost saga for developer\youtube\tutorial\source\src\io3dengine\ioiniloader.h
;	COMDAT ??$LoadFloat_e@$0P@@ioINILoader@@QAEMAAY0P@$$CBDM@Z
_TEXT	SEGMENT
__k$ = -24						; size = 15
__$ArrayPad$ = -4					; size = 4
_k$ = 8							; size = 4
_f$ = 12						; size = 4
??$LoadFloat_e@$0P@@ioINILoader@@QAEMAAY0P@$$CBDM@Z PROC ; ioINILoader::LoadFloat_e<15>, COMDAT
; _this$ = ecx

; 135  : 	{

  00000	55		 push	 ebp
  00001	8b ec		 mov	 ebp, esp
  00003	83 ec 18	 sub	 esp, 24			; 00000018H
  00006	a1 00 00 00 00	 mov	 eax, DWORD PTR ___security_cookie
  0000b	33 c5		 xor	 eax, ebp
  0000d	89 45 fc	 mov	 DWORD PTR __$ArrayPad$[ebp], eax
  00010	8b 45 08	 mov	 eax, DWORD PTR _k$[ebp]

; 136  : 		_ENCSTR(k, _k);

  00013	8a 10		 mov	 dl, BYTE PTR [eax]
  00015	56		 push	 esi
  00016	8b f1		 mov	 esi, ecx
  00018	84 d2		 test	 dl, dl
  0001a	0f 84 75 01 00
	00		 je	 $LN96@LoadFloat_
  00020	80 f2 ed	 xor	 dl, -19			; ffffffedH
  00023	88 55 e8	 mov	 BYTE PTR __k$[ebp], dl
  00026	8a 50 01	 mov	 dl, BYTE PTR [eax+1]
  00029	84 d2		 test	 dl, dl
  0002b	0f 84 5e 01 00
	00		 je	 $LN95@LoadFloat_
  00031	b1 ec		 mov	 cl, -20			; ffffffecH
  00033	32 d1		 xor	 dl, cl
  00035	88 55 e9	 mov	 BYTE PTR __k$[ebp+1], dl
  00038	8a 50 02	 mov	 dl, BYTE PTR [eax+2]
  0003b	84 d2		 test	 dl, dl
  0003d	0f 84 46 01 00
	00		 je	 $LN94@LoadFloat_
  00043	80 f2 eb	 xor	 dl, -21			; ffffffebH
  00046	88 55 ea	 mov	 BYTE PTR __k$[ebp+2], dl
  00049	8a 50 03	 mov	 dl, BYTE PTR [eax+3]
  0004c	84 d2		 test	 dl, dl
  0004e	0f 84 2f 01 00
	00		 je	 $LN93@LoadFloat_
  00054	80 f2 ea	 xor	 dl, -22			; ffffffeaH
  00057	88 55 eb	 mov	 BYTE PTR __k$[ebp+3], dl
  0005a	8a 50 04	 mov	 dl, BYTE PTR [eax+4]
  0005d	84 d2		 test	 dl, dl
  0005f	0f 84 18 01 00
	00		 je	 $LN92@LoadFloat_
  00065	80 f2 ed	 xor	 dl, -19			; ffffffedH
  00068	88 55 ec	 mov	 BYTE PTR __k$[ebp+4], dl
  0006b	8a 50 05	 mov	 dl, BYTE PTR [eax+5]
  0006e	84 d2		 test	 dl, dl
  00070	0f 84 02 01 00
	00		 je	 $LN91@LoadFloat_
  00076	32 d1		 xor	 dl, cl
  00078	88 55 ed	 mov	 BYTE PTR __k$[ebp+5], dl
  0007b	8a 50 06	 mov	 dl, BYTE PTR [eax+6]
  0007e	84 d2		 test	 dl, dl
  00080	0f 84 ec 00 00
	00		 je	 $LN90@LoadFloat_
  00086	80 f2 eb	 xor	 dl, -21			; ffffffebH
  00089	88 55 ee	 mov	 BYTE PTR __k$[ebp+6], dl
  0008c	8a 50 07	 mov	 dl, BYTE PTR [eax+7]
  0008f	84 d2		 test	 dl, dl
  00091	0f 84 d5 00 00
	00		 je	 $LN89@LoadFloat_
  00097	80 f2 ea	 xor	 dl, -22			; ffffffeaH
  0009a	88 55 ef	 mov	 BYTE PTR __k$[ebp+7], dl
  0009d	8a 50 08	 mov	 dl, BYTE PTR [eax+8]
  000a0	84 d2		 test	 dl, dl
  000a2	0f 84 be 00 00
	00		 je	 $LN88@LoadFloat_
  000a8	80 f2 ed	 xor	 dl, -19			; ffffffedH
  000ab	88 55 f0	 mov	 BYTE PTR __k$[ebp+8], dl
  000ae	8a 50 09	 mov	 dl, BYTE PTR [eax+9]
  000b1	84 d2		 test	 dl, dl
  000b3	0f 84 a8 00 00
	00		 je	 $LN87@LoadFloat_
  000b9	32 d1		 xor	 dl, cl
  000bb	88 55 f1	 mov	 BYTE PTR __k$[ebp+9], dl
  000be	8a 50 0a	 mov	 dl, BYTE PTR [eax+10]
  000c1	84 d2		 test	 dl, dl
  000c3	0f 84 92 00 00
	00		 je	 $LN86@LoadFloat_
  000c9	80 f2 eb	 xor	 dl, -21			; ffffffebH
  000cc	88 55 f2	 mov	 BYTE PTR __k$[ebp+10], dl
  000cf	8a 50 0b	 mov	 dl, BYTE PTR [eax+11]
  000d2	84 d2		 test	 dl, dl
  000d4	74 7f		 je	 SHORT $LN85@LoadFloat_
  000d6	80 f2 ea	 xor	 dl, -22			; ffffffeaH
  000d9	88 55 f3	 mov	 BYTE PTR __k$[ebp+11], dl
  000dc	8a 50 0c	 mov	 dl, BYTE PTR [eax+12]
  000df	84 d2		 test	 dl, dl
  000e1	74 6c		 je	 SHORT $LN84@LoadFloat_
  000e3	80 f2 ed	 xor	 dl, -19			; ffffffedH
  000e6	88 55 f4	 mov	 BYTE PTR __k$[ebp+12], dl
  000e9	8a 50 0d	 mov	 dl, BYTE PTR [eax+13]
  000ec	84 d2		 test	 dl, dl
  000ee	74 5a		 je	 SHORT $LN83@LoadFloat_
  000f0	32 d1		 xor	 dl, cl
  000f2	80 78 0e 00	 cmp	 BYTE PTR [eax+14], 0
  000f6	88 55 f5	 mov	 BYTE PTR __k$[ebp+13], dl
  000f9	0f 84 9a 00 00
	00		 je	 $LN1@LoadFloat_
  000ff	8a 50 0f	 mov	 dl, BYTE PTR [eax+15]
  00102	84 d2		 test	 dl, dl
  00104	74 3e		 je	 SHORT $LN81@LoadFloat_
  00106	80 f2 ea	 xor	 dl, -22			; ffffffeaH
  00109	88 55 f7	 mov	 BYTE PTR __k$[ebp+15], dl
  0010c	8a 50 10	 mov	 dl, BYTE PTR [eax+16]
  0010f	84 d2		 test	 dl, dl
  00111	74 2b		 je	 SHORT $LN80@LoadFloat_
  00113	80 f2 ed	 xor	 dl, -19			; ffffffedH
  00116	88 55 f8	 mov	 BYTE PTR __k$[ebp+16], dl
  00119	8a 50 11	 mov	 dl, BYTE PTR [eax+17]
  0011c	84 d2		 test	 dl, dl
  0011e	74 19		 je	 SHORT $LN79@LoadFloat_
  00120	8a 40 12	 mov	 al, BYTE PTR [eax+18]
  00123	32 d1		 xor	 dl, cl
  00125	88 55 f9	 mov	 BYTE PTR __k$[ebp+17], dl
  00128	84 c0		 test	 al, al
  0012a	74 07		 je	 SHORT $LN78@LoadFloat_
  0012c	34 eb		 xor	 al, -21			; ffffffebH
  0012e	88 45 fa	 mov	 BYTE PTR __k$[ebp+18], al
  00131	eb 66		 jmp	 SHORT $LN1@LoadFloat_
$LN78@LoadFloat_:
  00133	c6 45 fa eb	 mov	 BYTE PTR __k$[ebp+18], -21 ; ffffffebH
  00137	eb 60		 jmp	 SHORT $LN1@LoadFloat_
$LN79@LoadFloat_:
  00139	88 4d f9	 mov	 BYTE PTR __k$[ebp+17], cl
  0013c	eb 5b		 jmp	 SHORT $LN1@LoadFloat_
$LN80@LoadFloat_:
  0013e	c6 45 f8 ed	 mov	 BYTE PTR __k$[ebp+16], -19 ; ffffffedH
  00142	eb 55		 jmp	 SHORT $LN1@LoadFloat_
$LN81@LoadFloat_:
  00144	c6 45 f7 ea	 mov	 BYTE PTR __k$[ebp+15], -22 ; ffffffeaH
  00148	eb 4f		 jmp	 SHORT $LN1@LoadFloat_
$LN83@LoadFloat_:
  0014a	88 4d f5	 mov	 BYTE PTR __k$[ebp+13], cl
  0014d	eb 4a		 jmp	 SHORT $LN1@LoadFloat_
$LN84@LoadFloat_:
  0014f	c6 45 f4 ed	 mov	 BYTE PTR __k$[ebp+12], -19 ; ffffffedH
  00153	eb 44		 jmp	 SHORT $LN1@LoadFloat_
$LN85@LoadFloat_:
  00155	c6 45 f3 ea	 mov	 BYTE PTR __k$[ebp+11], -22 ; ffffffeaH
  00159	eb 3e		 jmp	 SHORT $LN1@LoadFloat_
$LN86@LoadFloat_:
  0015b	c6 45 f2 eb	 mov	 BYTE PTR __k$[ebp+10], -21 ; ffffffebH
  0015f	eb 38		 jmp	 SHORT $LN1@LoadFloat_
$LN87@LoadFloat_:
  00161	88 4d f1	 mov	 BYTE PTR __k$[ebp+9], cl
  00164	eb 33		 jmp	 SHORT $LN1@LoadFloat_
$LN88@LoadFloat_:
  00166	c6 45 f0 ed	 mov	 BYTE PTR __k$[ebp+8], -19 ; ffffffedH
  0016a	eb 2d		 jmp	 SHORT $LN1@LoadFloat_
$LN89@LoadFloat_:
  0016c	c6 45 ef ea	 mov	 BYTE PTR __k$[ebp+7], -22 ; ffffffeaH
  00170	eb 27		 jmp	 SHORT $LN1@LoadFloat_
$LN90@LoadFloat_:
  00172	c6 45 ee eb	 mov	 BYTE PTR __k$[ebp+6], -21 ; ffffffebH
  00176	eb 21		 jmp	 SHORT $LN1@LoadFloat_
$LN91@LoadFloat_:
  00178	88 4d ed	 mov	 BYTE PTR __k$[ebp+5], cl
  0017b	eb 1c		 jmp	 SHORT $LN1@LoadFloat_
$LN92@LoadFloat_:
  0017d	c6 45 ec ed	 mov	 BYTE PTR __k$[ebp+4], -19 ; ffffffedH
  00181	eb 16		 jmp	 SHORT $LN1@LoadFloat_
$LN93@LoadFloat_:
  00183	c6 45 eb ea	 mov	 BYTE PTR __k$[ebp+3], -22 ; ffffffeaH
  00187	eb 10		 jmp	 SHORT $LN1@LoadFloat_
$LN94@LoadFloat_:
  00189	c6 45 ea eb	 mov	 BYTE PTR __k$[ebp+2], -21 ; ffffffebH
  0018d	eb 0a		 jmp	 SHORT $LN1@LoadFloat_
$LN95@LoadFloat_:
  0018f	c6 45 e9 ec	 mov	 BYTE PTR __k$[ebp+1], -20 ; ffffffecH
  00193	eb 04		 jmp	 SHORT $LN1@LoadFloat_
$LN96@LoadFloat_:
  00195	c6 45 e8 ed	 mov	 BYTE PTR __k$[ebp], -19	; ffffffedH
$LN1@LoadFloat_:
  00199	6a 03		 push	 3
  0019b	8d 45 e8	 lea	 eax, DWORD PTR __k$[ebp]
  0019e	c6 45 f6 00	 mov	 BYTE PTR __k$[ebp+14], 0
  001a2	5a		 pop	 edx
$LL104@LoadFloat_:
  001a3	81 30 ed ec eb
	ea		 xor	 DWORD PTR [eax], -353637139 ; eaebecedH
  001a9	83 c0 04	 add	 eax, 4
  001ac	4a		 dec	 edx
  001ad	75 f4		 jne	 SHORT $LL104@LoadFloat_
  001af	6a 0c		 push	 12			; 0000000cH
  001b1	58		 pop	 eax
$LL101@LoadFloat_:
  001b2	8b c8		 mov	 ecx, eax
  001b4	81 e1 03 00 00
	80		 and	 ecx, -2147483645	; 80000003H
  001ba	79 05		 jns	 SHORT $LN111@LoadFloat_
  001bc	49		 dec	 ecx
  001bd	83 c9 fc	 or	 ecx, -4			; fffffffcH
  001c0	41		 inc	 ecx
$LN111@LoadFloat_:
  001c1	b2 ed		 mov	 dl, -19			; ffffffedH
  001c3	2a d1		 sub	 dl, cl
  001c5	30 54 05 e8	 xor	 BYTE PTR __k$[ebp+eax], dl
  001c9	40		 inc	 eax
  001ca	83 f8 0e	 cmp	 eax, 14			; 0000000eH
  001cd	7c e3		 jl	 SHORT $LL101@LoadFloat_

; 137  : 		return LoadFloat(_k, f);

  001cf	f3 0f 10 45 0c	 movss	 xmm0, DWORD PTR _f$[ebp]
  001d4	51		 push	 ecx
  001d5	8d 45 e8	 lea	 eax, DWORD PTR __k$[ebp]
  001d8	f3 0f 11 04 24	 movss	 DWORD PTR [esp], xmm0
  001dd	50		 push	 eax
  001de	8b ce		 mov	 ecx, esi
  001e0	ff 15 00 00 00
	00		 call	 DWORD PTR __imp_?LoadFloat@ioINILoader@@QAEMPBDM@Z

; 138  : 	}

  001e6	8b 4d fc	 mov	 ecx, DWORD PTR __$ArrayPad$[ebp]
  001e9	33 cd		 xor	 ecx, ebp
  001eb	5e		 pop	 esi
  001ec	e8 00 00 00 00	 call	 @__security_check_cookie@4
  001f1	c9		 leave
  001f2	c2 08 00	 ret	 8
??$LoadFloat_e@$0P@@ioINILoader@@QAEMAAY0P@$$CBDM@Z ENDP ; ioINILoader::LoadFloat_e<15>
_TEXT	ENDS
PUBLIC	__$ArrayPad$
PUBLIC	??$LoadFloat_e@$0BA@@ioINILoader@@QAEMAAY0BA@$$CBDM@Z ; ioINILoader::LoadFloat_e<16>
; Function compile flags: /Ogsp
;	COMDAT ??$LoadFloat_e@$0BA@@ioINILoader@@QAEMAAY0BA@$$CBDM@Z
_TEXT	SEGMENT
__k$ = -24						; size = 16
__$ArrayPad$ = -4					; size = 4
_k$ = 8							; size = 4
_f$ = 12						; size = 4
??$LoadFloat_e@$0BA@@ioINILoader@@QAEMAAY0BA@$$CBDM@Z PROC ; ioINILoader::LoadFloat_e<16>, COMDAT
; _this$ = ecx

; 135  : 	{

  00000	55		 push	 ebp
  00001	8b ec		 mov	 ebp, esp
  00003	83 ec 18	 sub	 esp, 24			; 00000018H
  00006	a1 00 00 00 00	 mov	 eax, DWORD PTR ___security_cookie
  0000b	33 c5		 xor	 eax, ebp
  0000d	89 45 fc	 mov	 DWORD PTR __$ArrayPad$[ebp], eax
  00010	8b 45 08	 mov	 eax, DWORD PTR _k$[ebp]

; 136  : 		_ENCSTR(k, _k);

  00013	8a 10		 mov	 dl, BYTE PTR [eax]
  00015	56		 push	 esi
  00016	8b f1		 mov	 esi, ecx
  00018	84 d2		 test	 dl, dl
  0001a	0f 84 8c 01 00
	00		 je	 $LN96@LoadFloat_@2
  00020	80 f2 ed	 xor	 dl, -19			; ffffffedH
  00023	88 55 e8	 mov	 BYTE PTR __k$[ebp], dl
  00026	8a 50 01	 mov	 dl, BYTE PTR [eax+1]
  00029	84 d2		 test	 dl, dl
  0002b	0f 84 75 01 00
	00		 je	 $LN95@LoadFloat_@2
  00031	80 f2 ec	 xor	 dl, -20			; ffffffecH
  00034	88 55 e9	 mov	 BYTE PTR __k$[ebp+1], dl
  00037	8a 50 02	 mov	 dl, BYTE PTR [eax+2]
  0003a	84 d2		 test	 dl, dl
  0003c	0f 84 5e 01 00
	00		 je	 $LN94@LoadFloat_@2
  00042	b1 eb		 mov	 cl, -21			; ffffffebH
  00044	32 d1		 xor	 dl, cl
  00046	88 55 ea	 mov	 BYTE PTR __k$[ebp+2], dl
  00049	8a 50 03	 mov	 dl, BYTE PTR [eax+3]
  0004c	84 d2		 test	 dl, dl
  0004e	0f 84 46 01 00
	00		 je	 $LN93@LoadFloat_@2
  00054	80 f2 ea	 xor	 dl, -22			; ffffffeaH
  00057	88 55 eb	 mov	 BYTE PTR __k$[ebp+3], dl
  0005a	8a 50 04	 mov	 dl, BYTE PTR [eax+4]
  0005d	84 d2		 test	 dl, dl
  0005f	0f 84 2f 01 00
	00		 je	 $LN92@LoadFloat_@2
  00065	80 f2 ed	 xor	 dl, -19			; ffffffedH
  00068	88 55 ec	 mov	 BYTE PTR __k$[ebp+4], dl
  0006b	8a 50 05	 mov	 dl, BYTE PTR [eax+5]
  0006e	84 d2		 test	 dl, dl
  00070	0f 84 18 01 00
	00		 je	 $LN91@LoadFloat_@2
  00076	80 f2 ec	 xor	 dl, -20			; ffffffecH
  00079	88 55 ed	 mov	 BYTE PTR __k$[ebp+5], dl
  0007c	8a 50 06	 mov	 dl, BYTE PTR [eax+6]
  0007f	84 d2		 test	 dl, dl
  00081	0f 84 02 01 00
	00		 je	 $LN90@LoadFloat_@2
  00087	32 d1		 xor	 dl, cl
  00089	88 55 ee	 mov	 BYTE PTR __k$[ebp+6], dl
  0008c	8a 50 07	 mov	 dl, BYTE PTR [eax+7]
  0008f	84 d2		 test	 dl, dl
  00091	0f 84 ec 00 00
	00		 je	 $LN89@LoadFloat_@2
  00097	80 f2 ea	 xor	 dl, -22			; ffffffeaH
  0009a	88 55 ef	 mov	 BYTE PTR __k$[ebp+7], dl
  0009d	8a 50 08	 mov	 dl, BYTE PTR [eax+8]
  000a0	84 d2		 test	 dl, dl
  000a2	0f 84 d5 00 00
	00		 je	 $LN88@LoadFloat_@2
  000a8	80 f2 ed	 xor	 dl, -19			; ffffffedH
  000ab	88 55 f0	 mov	 BYTE PTR __k$[ebp+8], dl
  000ae	8a 50 09	 mov	 dl, BYTE PTR [eax+9]
  000b1	84 d2		 test	 dl, dl
  000b3	0f 84 be 00 00
	00		 je	 $LN87@LoadFloat_@2
  000b9	80 f2 ec	 xor	 dl, -20			; ffffffecH
  000bc	88 55 f1	 mov	 BYTE PTR __k$[ebp+9], dl
  000bf	8a 50 0a	 mov	 dl, BYTE PTR [eax+10]
  000c2	84 d2		 test	 dl, dl
  000c4	0f 84 a8 00 00
	00		 je	 $LN86@LoadFloat_@2
  000ca	32 d1		 xor	 dl, cl
  000cc	88 55 f2	 mov	 BYTE PTR __k$[ebp+10], dl
  000cf	8a 50 0b	 mov	 dl, BYTE PTR [eax+11]
  000d2	84 d2		 test	 dl, dl
  000d4	0f 84 92 00 00
	00		 je	 $LN85@LoadFloat_@2
  000da	80 f2 ea	 xor	 dl, -22			; ffffffeaH
  000dd	88 55 f3	 mov	 BYTE PTR __k$[ebp+11], dl
  000e0	8a 50 0c	 mov	 dl, BYTE PTR [eax+12]
  000e3	84 d2		 test	 dl, dl
  000e5	74 7f		 je	 SHORT $LN84@LoadFloat_@2
  000e7	80 f2 ed	 xor	 dl, -19			; ffffffedH
  000ea	88 55 f4	 mov	 BYTE PTR __k$[ebp+12], dl
  000ed	8a 50 0d	 mov	 dl, BYTE PTR [eax+13]
  000f0	84 d2		 test	 dl, dl
  000f2	74 6c		 je	 SHORT $LN83@LoadFloat_@2
  000f4	80 f2 ec	 xor	 dl, -20			; ffffffecH
  000f7	88 55 f5	 mov	 BYTE PTR __k$[ebp+13], dl
  000fa	8a 50 0e	 mov	 dl, BYTE PTR [eax+14]
  000fd	84 d2		 test	 dl, dl
  000ff	74 5a		 je	 SHORT $LN82@LoadFloat_@2
  00101	32 d1		 xor	 dl, cl
  00103	80 78 0f 00	 cmp	 BYTE PTR [eax+15], 0
  00107	88 55 f6	 mov	 BYTE PTR __k$[ebp+14], dl
  0010a	0f 84 a0 00 00
	00		 je	 $LN1@LoadFloat_@2
  00110	8a 50 10	 mov	 dl, BYTE PTR [eax+16]
  00113	84 d2		 test	 dl, dl
  00115	74 3e		 je	 SHORT $LN80@LoadFloat_@2
  00117	80 f2 ed	 xor	 dl, -19			; ffffffedH
  0011a	88 55 f8	 mov	 BYTE PTR __k$[ebp+16], dl
  0011d	8a 50 11	 mov	 dl, BYTE PTR [eax+17]
  00120	84 d2		 test	 dl, dl
  00122	74 2b		 je	 SHORT $LN79@LoadFloat_@2
  00124	80 f2 ec	 xor	 dl, -20			; ffffffecH
  00127	88 55 f9	 mov	 BYTE PTR __k$[ebp+17], dl
  0012a	8a 50 12	 mov	 dl, BYTE PTR [eax+18]
  0012d	84 d2		 test	 dl, dl
  0012f	74 19		 je	 SHORT $LN78@LoadFloat_@2
  00131	8a 40 13	 mov	 al, BYTE PTR [eax+19]
  00134	32 d1		 xor	 dl, cl
  00136	88 55 fa	 mov	 BYTE PTR __k$[ebp+18], dl
  00139	84 c0		 test	 al, al
  0013b	74 07		 je	 SHORT $LN77@LoadFloat_@2
  0013d	34 ea		 xor	 al, -22			; ffffffeaH
  0013f	88 45 fb	 mov	 BYTE PTR __k$[ebp+19], al
  00142	eb 6c		 jmp	 SHORT $LN1@LoadFloat_@2
$LN77@LoadFloat_@2:
  00144	c6 45 fb ea	 mov	 BYTE PTR __k$[ebp+19], -22 ; ffffffeaH
  00148	eb 66		 jmp	 SHORT $LN1@LoadFloat_@2
$LN78@LoadFloat_@2:
  0014a	88 4d fa	 mov	 BYTE PTR __k$[ebp+18], cl
  0014d	eb 61		 jmp	 SHORT $LN1@LoadFloat_@2
$LN79@LoadFloat_@2:
  0014f	c6 45 f9 ec	 mov	 BYTE PTR __k$[ebp+17], -20 ; ffffffecH
  00153	eb 5b		 jmp	 SHORT $LN1@LoadFloat_@2
$LN80@LoadFloat_@2:
  00155	c6 45 f8 ed	 mov	 BYTE PTR __k$[ebp+16], -19 ; ffffffedH
  00159	eb 55		 jmp	 SHORT $LN1@LoadFloat_@2
$LN82@LoadFloat_@2:
  0015b	88 4d f6	 mov	 BYTE PTR __k$[ebp+14], cl
  0015e	eb 50		 jmp	 SHORT $LN1@LoadFloat_@2
$LN83@LoadFloat_@2:
  00160	c6 45 f5 ec	 mov	 BYTE PTR __k$[ebp+13], -20 ; ffffffecH
  00164	eb 4a		 jmp	 SHORT $LN1@LoadFloat_@2
$LN84@LoadFloat_@2:
  00166	c6 45 f4 ed	 mov	 BYTE PTR __k$[ebp+12], -19 ; ffffffedH
  0016a	eb 44		 jmp	 SHORT $LN1@LoadFloat_@2
$LN85@LoadFloat_@2:
  0016c	c6 45 f3 ea	 mov	 BYTE PTR __k$[ebp+11], -22 ; ffffffeaH
  00170	eb 3e		 jmp	 SHORT $LN1@LoadFloat_@2
$LN86@LoadFloat_@2:
  00172	88 4d f2	 mov	 BYTE PTR __k$[ebp+10], cl
  00175	eb 39		 jmp	 SHORT $LN1@LoadFloat_@2
$LN87@LoadFloat_@2:
  00177	c6 45 f1 ec	 mov	 BYTE PTR __k$[ebp+9], -20 ; ffffffecH
  0017b	eb 33		 jmp	 SHORT $LN1@LoadFloat_@2
$LN88@LoadFloat_@2:
  0017d	c6 45 f0 ed	 mov	 BYTE PTR __k$[ebp+8], -19 ; ffffffedH
  00181	eb 2d		 jmp	 SHORT $LN1@LoadFloat_@2
$LN89@LoadFloat_@2:
  00183	c6 45 ef ea	 mov	 BYTE PTR __k$[ebp+7], -22 ; ffffffeaH
  00187	eb 27		 jmp	 SHORT $LN1@LoadFloat_@2
$LN90@LoadFloat_@2:
  00189	88 4d ee	 mov	 BYTE PTR __k$[ebp+6], cl
  0018c	eb 22		 jmp	 SHORT $LN1@LoadFloat_@2
$LN91@LoadFloat_@2:
  0018e	c6 45 ed ec	 mov	 BYTE PTR __k$[ebp+5], -20 ; ffffffecH
  00192	eb 1c		 jmp	 SHORT $LN1@LoadFloat_@2
$LN92@LoadFloat_@2:
  00194	c6 45 ec ed	 mov	 BYTE PTR __k$[ebp+4], -19 ; ffffffedH
  00198	eb 16		 jmp	 SHORT $LN1@LoadFloat_@2
$LN93@LoadFloat_@2:
  0019a	c6 45 eb ea	 mov	 BYTE PTR __k$[ebp+3], -22 ; ffffffeaH
  0019e	eb 10		 jmp	 SHORT $LN1@LoadFloat_@2
$LN94@LoadFloat_@2:
  001a0	c6 45 ea eb	 mov	 BYTE PTR __k$[ebp+2], -21 ; ffffffebH
  001a4	eb 0a		 jmp	 SHORT $LN1@LoadFloat_@2
$LN95@LoadFloat_@2:
  001a6	c6 45 e9 ec	 mov	 BYTE PTR __k$[ebp+1], -20 ; ffffffecH
  001aa	eb 04		 jmp	 SHORT $LN1@LoadFloat_@2
$LN96@LoadFloat_@2:
  001ac	c6 45 e8 ed	 mov	 BYTE PTR __k$[ebp], -19	; ffffffedH
$LN1@LoadFloat_@2:
  001b0	6a 03		 push	 3
  001b2	8d 45 e8	 lea	 eax, DWORD PTR __k$[ebp]
  001b5	c6 45 f7 00	 mov	 BYTE PTR __k$[ebp+15], 0
  001b9	5a		 pop	 edx
$LL104@LoadFloat_@2:
  001ba	81 30 ed ec eb
	ea		 xor	 DWORD PTR [eax], -353637139 ; eaebecedH
  001c0	83 c0 04	 add	 eax, 4
  001c3	4a		 dec	 edx
  001c4	75 f4		 jne	 SHORT $LL104@LoadFloat_@2
  001c6	6a 0c		 push	 12			; 0000000cH
  001c8	58		 pop	 eax
$LL101@LoadFloat_@2:
  001c9	8b c8		 mov	 ecx, eax
  001cb	81 e1 03 00 00
	80		 and	 ecx, -2147483645	; 80000003H
  001d1	79 05		 jns	 SHORT $LN111@LoadFloat_@2
  001d3	49		 dec	 ecx
  001d4	83 c9 fc	 or	 ecx, -4			; fffffffcH
  001d7	41		 inc	 ecx
$LN111@LoadFloat_@2:
  001d8	b2 ed		 mov	 dl, -19			; ffffffedH
  001da	2a d1		 sub	 dl, cl
  001dc	30 54 05 e8	 xor	 BYTE PTR __k$[ebp+eax], dl
  001e0	40		 inc	 eax
  001e1	83 f8 0f	 cmp	 eax, 15			; 0000000fH
  001e4	7c e3		 jl	 SHORT $LL101@LoadFloat_@2

; 137  : 		return LoadFloat(_k, f);

  001e6	f3 0f 10 45 0c	 movss	 xmm0, DWORD PTR _f$[ebp]
  001eb	51		 push	 ecx
  001ec	8d 45 e8	 lea	 eax, DWORD PTR __k$[ebp]
  001ef	f3 0f 11 04 24	 movss	 DWORD PTR [esp], xmm0
  001f4	50		 push	 eax
  001f5	8b ce		 mov	 ecx, esi
  001f7	ff 15 00 00 00
	00		 call	 DWORD PTR __imp_?LoadFloat@ioINILoader@@QAEMPBDM@Z

; 138  : 	}

  001fd	8b 4d fc	 mov	 ecx, DWORD PTR __$ArrayPad$[ebp]
  00200	33 cd		 xor	 ecx, ebp
  00202	5e		 pop	 esi
  00203	e8 00 00 00 00	 call	 @__security_check_cookie@4
  00208	c9		 leave
  00209	c2 08 00	 ret	 8
??$LoadFloat_e@$0BA@@ioINILoader@@QAEMAAY0BA@$$CBDM@Z ENDP ; ioINILoader::LoadFloat_e<16>
_TEXT	ENDS
PUBLIC	__$ArrayPad$
PUBLIC	??$LoadFloat_e@$0N@@ioINILoader@@QAEMAAY0N@$$CBDM@Z ; ioINILoader::LoadFloat_e<13>
; Function compile flags: /Ogsp
;	COMDAT ??$LoadFloat_e@$0N@@ioINILoader@@QAEMAAY0N@$$CBDM@Z
_TEXT	SEGMENT
__k$ = -24						; size = 13
__$ArrayPad$ = -4					; size = 4
_k$ = 8							; size = 4
_f$ = 12						; size = 4
??$LoadFloat_e@$0N@@ioINILoader@@QAEMAAY0N@$$CBDM@Z PROC ; ioINILoader::LoadFloat_e<13>, COMDAT
; _this$ = ecx

; 135  : 	{

  00000	55		 push	 ebp
  00001	8b ec		 mov	 ebp, esp
  00003	83 ec 18	 sub	 esp, 24			; 00000018H
  00006	a1 00 00 00 00	 mov	 eax, DWORD PTR ___security_cookie
  0000b	33 c5		 xor	 eax, ebp
  0000d	89 45 fc	 mov	 DWORD PTR __$ArrayPad$[ebp], eax
  00010	8b 45 08	 mov	 eax, DWORD PTR _k$[ebp]

; 136  : 		_ENCSTR(k, _k);

  00013	8a 10		 mov	 dl, BYTE PTR [eax]
  00015	56		 push	 esi
  00016	8b f1		 mov	 esi, ecx
  00018	84 d2		 test	 dl, dl
  0001a	0f 84 4d 01 00
	00		 je	 $LN96@LoadFloat_@3
  00020	80 f2 ed	 xor	 dl, -19			; ffffffedH
  00023	88 55 e8	 mov	 BYTE PTR __k$[ebp], dl
  00026	8a 50 01	 mov	 dl, BYTE PTR [eax+1]
  00029	84 d2		 test	 dl, dl
  0002b	0f 84 36 01 00
	00		 je	 $LN95@LoadFloat_@3
  00031	b1 ec		 mov	 cl, -20			; ffffffecH
  00033	32 d1		 xor	 dl, cl
  00035	88 55 e9	 mov	 BYTE PTR __k$[ebp+1], dl
  00038	8a 50 02	 mov	 dl, BYTE PTR [eax+2]
  0003b	84 d2		 test	 dl, dl
  0003d	0f 84 1e 01 00
	00		 je	 $LN94@LoadFloat_@3
  00043	80 f2 eb	 xor	 dl, -21			; ffffffebH
  00046	88 55 ea	 mov	 BYTE PTR __k$[ebp+2], dl
  00049	8a 50 03	 mov	 dl, BYTE PTR [eax+3]
  0004c	84 d2		 test	 dl, dl
  0004e	0f 84 07 01 00
	00		 je	 $LN93@LoadFloat_@3
  00054	80 f2 ea	 xor	 dl, -22			; ffffffeaH
  00057	88 55 eb	 mov	 BYTE PTR __k$[ebp+3], dl
  0005a	8a 50 04	 mov	 dl, BYTE PTR [eax+4]
  0005d	84 d2		 test	 dl, dl
  0005f	0f 84 f0 00 00
	00		 je	 $LN92@LoadFloat_@3
  00065	80 f2 ed	 xor	 dl, -19			; ffffffedH
  00068	88 55 ec	 mov	 BYTE PTR __k$[ebp+4], dl
  0006b	8a 50 05	 mov	 dl, BYTE PTR [eax+5]
  0006e	84 d2		 test	 dl, dl
  00070	0f 84 da 00 00
	00		 je	 $LN91@LoadFloat_@3
  00076	32 d1		 xor	 dl, cl
  00078	88 55 ed	 mov	 BYTE PTR __k$[ebp+5], dl
  0007b	8a 50 06	 mov	 dl, BYTE PTR [eax+6]
  0007e	84 d2		 test	 dl, dl
  00080	0f 84 c4 00 00
	00		 je	 $LN90@LoadFloat_@3
  00086	80 f2 eb	 xor	 dl, -21			; ffffffebH
  00089	88 55 ee	 mov	 BYTE PTR __k$[ebp+6], dl
  0008c	8a 50 07	 mov	 dl, BYTE PTR [eax+7]
  0008f	84 d2		 test	 dl, dl
  00091	0f 84 ad 00 00
	00		 je	 $LN89@LoadFloat_@3
  00097	80 f2 ea	 xor	 dl, -22			; ffffffeaH
  0009a	88 55 ef	 mov	 BYTE PTR __k$[ebp+7], dl
  0009d	8a 50 08	 mov	 dl, BYTE PTR [eax+8]
  000a0	84 d2		 test	 dl, dl
  000a2	0f 84 96 00 00
	00		 je	 $LN88@LoadFloat_@3
  000a8	80 f2 ed	 xor	 dl, -19			; ffffffedH
  000ab	88 55 f0	 mov	 BYTE PTR __k$[ebp+8], dl
  000ae	8a 50 09	 mov	 dl, BYTE PTR [eax+9]
  000b1	84 d2		 test	 dl, dl
  000b3	0f 84 80 00 00
	00		 je	 $LN87@LoadFloat_@3
  000b9	32 d1		 xor	 dl, cl
  000bb	88 55 f1	 mov	 BYTE PTR __k$[ebp+9], dl
  000be	8a 50 0a	 mov	 dl, BYTE PTR [eax+10]
  000c1	84 d2		 test	 dl, dl
  000c3	74 6e		 je	 SHORT $LN86@LoadFloat_@3
  000c5	80 f2 eb	 xor	 dl, -21			; ffffffebH
  000c8	88 55 f2	 mov	 BYTE PTR __k$[ebp+10], dl
  000cb	8a 50 0b	 mov	 dl, BYTE PTR [eax+11]
  000ce	84 d2		 test	 dl, dl
  000d0	74 5b		 je	 SHORT $LN85@LoadFloat_@3
  000d2	80 f2 ea	 xor	 dl, -22			; ffffffeaH
  000d5	80 78 0c 00	 cmp	 BYTE PTR [eax+12], 0
  000d9	88 55 f3	 mov	 BYTE PTR __k$[ebp+11], dl
  000dc	0f 84 8f 00 00
	00		 je	 $LN1@LoadFloat_@3
  000e2	8a 50 0d	 mov	 dl, BYTE PTR [eax+13]
  000e5	84 d2		 test	 dl, dl
  000e7	74 3f		 je	 SHORT $LN83@LoadFloat_@3
  000e9	32 d1		 xor	 dl, cl
  000eb	88 55 f5	 mov	 BYTE PTR __k$[ebp+13], dl
  000ee	8a 50 0e	 mov	 dl, BYTE PTR [eax+14]
  000f1	84 d2		 test	 dl, dl
  000f3	74 2d		 je	 SHORT $LN82@LoadFloat_@3
  000f5	80 f2 eb	 xor	 dl, -21			; ffffffebH
  000f8	88 55 f6	 mov	 BYTE PTR __k$[ebp+14], dl
  000fb	8a 50 0f	 mov	 dl, BYTE PTR [eax+15]
  000fe	84 d2		 test	 dl, dl
  00100	74 1a		 je	 SHORT $LN81@LoadFloat_@3
  00102	8a 40 10	 mov	 al, BYTE PTR [eax+16]
  00105	80 f2 ea	 xor	 dl, -22			; ffffffeaH
  00108	88 55 f7	 mov	 BYTE PTR __k$[ebp+15], dl
  0010b	84 c0		 test	 al, al
  0010d	74 07		 je	 SHORT $LN80@LoadFloat_@3
  0010f	34 ed		 xor	 al, -19			; ffffffedH
  00111	88 45 f8	 mov	 BYTE PTR __k$[ebp+16], al
  00114	eb 5b		 jmp	 SHORT $LN1@LoadFloat_@3
$LN80@LoadFloat_@3:
  00116	c6 45 f8 ed	 mov	 BYTE PTR __k$[ebp+16], -19 ; ffffffedH
  0011a	eb 55		 jmp	 SHORT $LN1@LoadFloat_@3
$LN81@LoadFloat_@3:
  0011c	c6 45 f7 ea	 mov	 BYTE PTR __k$[ebp+15], -22 ; ffffffeaH
  00120	eb 4f		 jmp	 SHORT $LN1@LoadFloat_@3
$LN82@LoadFloat_@3:
  00122	c6 45 f6 eb	 mov	 BYTE PTR __k$[ebp+14], -21 ; ffffffebH
  00126	eb 49		 jmp	 SHORT $LN1@LoadFloat_@3
$LN83@LoadFloat_@3:
  00128	88 4d f5	 mov	 BYTE PTR __k$[ebp+13], cl
  0012b	eb 44		 jmp	 SHORT $LN1@LoadFloat_@3
$LN85@LoadFloat_@3:
  0012d	c6 45 f3 ea	 mov	 BYTE PTR __k$[ebp+11], -22 ; ffffffeaH
  00131	eb 3e		 jmp	 SHORT $LN1@LoadFloat_@3
$LN86@LoadFloat_@3:
  00133	c6 45 f2 eb	 mov	 BYTE PTR __k$[ebp+10], -21 ; ffffffebH
  00137	eb 38		 jmp	 SHORT $LN1@LoadFloat_@3
$LN87@LoadFloat_@3:
  00139	88 4d f1	 mov	 BYTE PTR __k$[ebp+9], cl
  0013c	eb 33		 jmp	 SHORT $LN1@LoadFloat_@3
$LN88@LoadFloat_@3:
  0013e	c6 45 f0 ed	 mov	 BYTE PTR __k$[ebp+8], -19 ; ffffffedH
  00142	eb 2d		 jmp	 SHORT $LN1@LoadFloat_@3
$LN89@LoadFloat_@3:
  00144	c6 45 ef ea	 mov	 BYTE PTR __k$[ebp+7], -22 ; ffffffeaH
  00148	eb 27		 jmp	 SHORT $LN1@LoadFloat_@3
$LN90@LoadFloat_@3:
  0014a	c6 45 ee eb	 mov	 BYTE PTR __k$[ebp+6], -21 ; ffffffebH
  0014e	eb 21		 jmp	 SHORT $LN1@LoadFloat_@3
$LN91@LoadFloat_@3:
  00150	88 4d ed	 mov	 BYTE PTR __k$[ebp+5], cl
  00153	eb 1c		 jmp	 SHORT $LN1@LoadFloat_@3
$LN92@LoadFloat_@3:
  00155	c6 45 ec ed	 mov	 BYTE PTR __k$[ebp+4], -19 ; ffffffedH
  00159	eb 16		 jmp	 SHORT $LN1@LoadFloat_@3
$LN93@LoadFloat_@3:
  0015b	c6 45 eb ea	 mov	 BYTE PTR __k$[ebp+3], -22 ; ffffffeaH
  0015f	eb 10		 jmp	 SHORT $LN1@LoadFloat_@3
$LN94@LoadFloat_@3:
  00161	c6 45 ea eb	 mov	 BYTE PTR __k$[ebp+2], -21 ; ffffffebH
  00165	eb 0a		 jmp	 SHORT $LN1@LoadFloat_@3
$LN95@LoadFloat_@3:
  00167	c6 45 e9 ec	 mov	 BYTE PTR __k$[ebp+1], -20 ; ffffffecH
  0016b	eb 04		 jmp	 SHORT $LN1@LoadFloat_@3
$LN96@LoadFloat_@3:
  0016d	c6 45 e8 ed	 mov	 BYTE PTR __k$[ebp], -19	; ffffffedH
$LN1@LoadFloat_@3:
  00171	6a 03		 push	 3
  00173	8d 45 e8	 lea	 eax, DWORD PTR __k$[ebp]
  00176	c6 45 f4 00	 mov	 BYTE PTR __k$[ebp+12], 0
  0017a	5a		 pop	 edx
$LL104@LoadFloat_@3:
  0017b	81 30 ed ec eb
	ea		 xor	 DWORD PTR [eax], -353637139 ; eaebecedH
  00181	83 c0 04	 add	 eax, 4
  00184	4a		 dec	 edx
  00185	75 f4		 jne	 SHORT $LL104@LoadFloat_@3

; 137  : 		return LoadFloat(_k, f);

  00187	f3 0f 10 45 0c	 movss	 xmm0, DWORD PTR _f$[ebp]
  0018c	51		 push	 ecx
  0018d	8d 45 e8	 lea	 eax, DWORD PTR __k$[ebp]
  00190	f3 0f 11 04 24	 movss	 DWORD PTR [esp], xmm0
  00195	50		 push	 eax
  00196	8b ce		 mov	 ecx, esi
  00198	ff 15 00 00 00
	00		 call	 DWORD PTR __imp_?LoadFloat@ioINILoader@@QAEMPBDM@Z

; 138  : 	}

  0019e	8b 4d fc	 mov	 ecx, DWORD PTR __$ArrayPad$[ebp]
  001a1	33 cd		 xor	 ecx, ebp
  001a3	5e		 pop	 esi
  001a4	e8 00 00 00 00	 call	 @__security_check_cookie@4
  001a9	c9		 leave
  001aa	c2 08 00	 ret	 8
??$LoadFloat_e@$0N@@ioINILoader@@QAEMAAY0N@$$CBDM@Z ENDP ; ioINILoader::LoadFloat_e<13>
_TEXT	ENDS
PUBLIC	__$ArrayPad$
PUBLIC	??$LoadString_e@$0L@@ioINILoader@@QAEXAAY0L@$$CBDAAY00$$CBDPADH@Z ; ioINILoader::LoadString_e<11>
EXTRN	__imp_?LoadStringA@ioINILoader@@QAEXPBD0PADH@Z:PROC
; Function compile flags: /Ogsp
;	COMDAT ??$LoadString_e@$0L@@ioINILoader@@QAEXAAY0L@$$CBDAAY00$$CBDPADH@Z
_TEXT	SEGMENT
__k$ = -20						; size = 11
__$ArrayPad$ = -4					; size = 4
_k$ = 8							; size = 4
_d$ = 12						; size = 4
_b$ = 16						; size = 4
_i$ = 20						; size = 4
??$LoadString_e@$0L@@ioINILoader@@QAEXAAY0L@$$CBDAAY00$$CBDPADH@Z PROC ; ioINILoader::LoadString_e<11>, COMDAT
; _this$ = ecx

; 161  : 	{

  00000	55		 push	 ebp
  00001	8b ec		 mov	 ebp, esp
  00003	83 ec 14	 sub	 esp, 20			; 00000014H
  00006	a1 00 00 00 00	 mov	 eax, DWORD PTR ___security_cookie
  0000b	33 c5		 xor	 eax, ebp
  0000d	89 45 fc	 mov	 DWORD PTR __$ArrayPad$[ebp], eax
  00010	8b 45 08	 mov	 eax, DWORD PTR _k$[ebp]

; 162  : 		_ENCSTR(k, _k);

  00013	8a 10		 mov	 dl, BYTE PTR [eax]
  00015	53		 push	 ebx
  00016	56		 push	 esi
  00017	8b 75 0c	 mov	 esi, DWORD PTR _d$[ebp]
  0001a	57		 push	 edi
  0001b	8b 7d 10	 mov	 edi, DWORD PTR _b$[ebp]
  0001e	84 d2		 test	 dl, dl
  00020	0f 84 1b 01 00
	00		 je	 $LN96@LoadString
  00026	80 f2 ed	 xor	 dl, -19			; ffffffedH
  00029	88 55 ec	 mov	 BYTE PTR __k$[ebp], dl
  0002c	8a 50 01	 mov	 dl, BYTE PTR [eax+1]
  0002f	84 d2		 test	 dl, dl
  00031	0f 84 04 01 00
	00		 je	 $LN95@LoadString
  00037	b3 ec		 mov	 bl, -20			; ffffffecH
  00039	32 d3		 xor	 dl, bl
  0003b	88 55 ed	 mov	 BYTE PTR __k$[ebp+1], dl
  0003e	8a 50 02	 mov	 dl, BYTE PTR [eax+2]
  00041	84 d2		 test	 dl, dl
  00043	0f 84 ec 00 00
	00		 je	 $LN94@LoadString
  00049	80 f2 eb	 xor	 dl, -21			; ffffffebH
  0004c	88 55 ee	 mov	 BYTE PTR __k$[ebp+2], dl
  0004f	8a 50 03	 mov	 dl, BYTE PTR [eax+3]
  00052	84 d2		 test	 dl, dl
  00054	0f 84 d5 00 00
	00		 je	 $LN93@LoadString
  0005a	80 f2 ea	 xor	 dl, -22			; ffffffeaH
  0005d	88 55 ef	 mov	 BYTE PTR __k$[ebp+3], dl
  00060	8a 50 04	 mov	 dl, BYTE PTR [eax+4]
  00063	84 d2		 test	 dl, dl
  00065	0f 84 be 00 00
	00		 je	 $LN92@LoadString
  0006b	80 f2 ed	 xor	 dl, -19			; ffffffedH
  0006e	88 55 f0	 mov	 BYTE PTR __k$[ebp+4], dl
  00071	8a 50 05	 mov	 dl, BYTE PTR [eax+5]
  00074	84 d2		 test	 dl, dl
  00076	0f 84 a8 00 00
	00		 je	 $LN91@LoadString
  0007c	32 d3		 xor	 dl, bl
  0007e	88 55 f1	 mov	 BYTE PTR __k$[ebp+5], dl
  00081	8a 50 06	 mov	 dl, BYTE PTR [eax+6]
  00084	84 d2		 test	 dl, dl
  00086	0f 84 92 00 00
	00		 je	 $LN90@LoadString
  0008c	80 f2 eb	 xor	 dl, -21			; ffffffebH
  0008f	88 55 f2	 mov	 BYTE PTR __k$[ebp+6], dl
  00092	8a 50 07	 mov	 dl, BYTE PTR [eax+7]
  00095	84 d2		 test	 dl, dl
  00097	74 7f		 je	 SHORT $LN89@LoadString
  00099	80 f2 ea	 xor	 dl, -22			; ffffffeaH
  0009c	88 55 f3	 mov	 BYTE PTR __k$[ebp+7], dl
  0009f	8a 50 08	 mov	 dl, BYTE PTR [eax+8]
  000a2	84 d2		 test	 dl, dl
  000a4	74 6c		 je	 SHORT $LN88@LoadString
  000a6	80 f2 ed	 xor	 dl, -19			; ffffffedH
  000a9	88 55 f4	 mov	 BYTE PTR __k$[ebp+8], dl
  000ac	8a 50 09	 mov	 dl, BYTE PTR [eax+9]
  000af	84 d2		 test	 dl, dl
  000b1	74 5a		 je	 SHORT $LN87@LoadString
  000b3	32 d3		 xor	 dl, bl
  000b5	80 78 0a 00	 cmp	 BYTE PTR [eax+10], 0
  000b9	88 55 f5	 mov	 BYTE PTR __k$[ebp+9], dl
  000bc	0f 84 83 00 00
	00		 je	 $LN1@LoadString
  000c2	8a 50 0b	 mov	 dl, BYTE PTR [eax+11]
  000c5	84 d2		 test	 dl, dl
  000c7	74 3e		 je	 SHORT $LN85@LoadString
  000c9	80 f2 ea	 xor	 dl, -22			; ffffffeaH
  000cc	88 55 f7	 mov	 BYTE PTR __k$[ebp+11], dl
  000cf	8a 50 0c	 mov	 dl, BYTE PTR [eax+12]
  000d2	84 d2		 test	 dl, dl
  000d4	74 2b		 je	 SHORT $LN84@LoadString
  000d6	80 f2 ed	 xor	 dl, -19			; ffffffedH
  000d9	88 55 f8	 mov	 BYTE PTR __k$[ebp+12], dl
  000dc	8a 50 0d	 mov	 dl, BYTE PTR [eax+13]
  000df	84 d2		 test	 dl, dl
  000e1	74 19		 je	 SHORT $LN83@LoadString
  000e3	8a 40 0e	 mov	 al, BYTE PTR [eax+14]
  000e6	32 d3		 xor	 dl, bl
  000e8	88 55 f9	 mov	 BYTE PTR __k$[ebp+13], dl
  000eb	84 c0		 test	 al, al
  000ed	74 07		 je	 SHORT $LN82@LoadString
  000ef	34 eb		 xor	 al, -21			; ffffffebH
  000f1	88 45 fa	 mov	 BYTE PTR __k$[ebp+14], al
  000f4	eb 4f		 jmp	 SHORT $LN1@LoadString
$LN82@LoadString:
  000f6	c6 45 fa eb	 mov	 BYTE PTR __k$[ebp+14], -21 ; ffffffebH
  000fa	eb 49		 jmp	 SHORT $LN1@LoadString
$LN83@LoadString:
  000fc	88 5d f9	 mov	 BYTE PTR __k$[ebp+13], bl
  000ff	eb 44		 jmp	 SHORT $LN1@LoadString
$LN84@LoadString:
  00101	c6 45 f8 ed	 mov	 BYTE PTR __k$[ebp+12], -19 ; ffffffedH
  00105	eb 3e		 jmp	 SHORT $LN1@LoadString
$LN85@LoadString:
  00107	c6 45 f7 ea	 mov	 BYTE PTR __k$[ebp+11], -22 ; ffffffeaH
  0010b	eb 38		 jmp	 SHORT $LN1@LoadString
$LN87@LoadString:
  0010d	88 5d f5	 mov	 BYTE PTR __k$[ebp+9], bl
  00110	eb 33		 jmp	 SHORT $LN1@LoadString
$LN88@LoadString:
  00112	c6 45 f4 ed	 mov	 BYTE PTR __k$[ebp+8], -19 ; ffffffedH
  00116	eb 2d		 jmp	 SHORT $LN1@LoadString
$LN89@LoadString:
  00118	c6 45 f3 ea	 mov	 BYTE PTR __k$[ebp+7], -22 ; ffffffeaH
  0011c	eb 27		 jmp	 SHORT $LN1@LoadString
$LN90@LoadString:
  0011e	c6 45 f2 eb	 mov	 BYTE PTR __k$[ebp+6], -21 ; ffffffebH
  00122	eb 21		 jmp	 SHORT $LN1@LoadString
$LN91@LoadString:
  00124	88 5d f1	 mov	 BYTE PTR __k$[ebp+5], bl
  00127	eb 1c		 jmp	 SHORT $LN1@LoadString
$LN92@LoadString:
  00129	c6 45 f0 ed	 mov	 BYTE PTR __k$[ebp+4], -19 ; ffffffedH
  0012d	eb 16		 jmp	 SHORT $LN1@LoadString
$LN93@LoadString:
  0012f	c6 45 ef ea	 mov	 BYTE PTR __k$[ebp+3], -22 ; ffffffeaH
  00133	eb 10		 jmp	 SHORT $LN1@LoadString
$LN94@LoadString:
  00135	c6 45 ee eb	 mov	 BYTE PTR __k$[ebp+2], -21 ; ffffffebH
  00139	eb 0a		 jmp	 SHORT $LN1@LoadString
$LN95@LoadString:
  0013b	c6 45 ed ec	 mov	 BYTE PTR __k$[ebp+1], -20 ; ffffffecH
  0013f	eb 04		 jmp	 SHORT $LN1@LoadString
$LN96@LoadString:
  00141	c6 45 ec ed	 mov	 BYTE PTR __k$[ebp], -19	; ffffffedH
$LN1@LoadString:
  00145	6a 02		 push	 2
  00147	8d 45 ec	 lea	 eax, DWORD PTR __k$[ebp]
  0014a	c6 45 f6 00	 mov	 BYTE PTR __k$[ebp+10], 0
  0014e	5a		 pop	 edx
$LL104@LoadString:
  0014f	81 30 ed ec eb
	ea		 xor	 DWORD PTR [eax], -353637139 ; eaebecedH
  00155	83 c0 04	 add	 eax, 4
  00158	4a		 dec	 edx
  00159	75 f4		 jne	 SHORT $LL104@LoadString
  0015b	6a 08		 push	 8
  0015d	58		 pop	 eax
$LL101@LoadString:
  0015e	8b d0		 mov	 edx, eax
  00160	81 e2 03 00 00
	80		 and	 edx, -2147483645	; 80000003H
  00166	79 05		 jns	 SHORT $LN111@LoadString
  00168	4a		 dec	 edx
  00169	83 ca fc	 or	 edx, -4			; fffffffcH
  0016c	42		 inc	 edx
$LN111@LoadString:
  0016d	b3 ed		 mov	 bl, -19			; ffffffedH
  0016f	2a da		 sub	 bl, dl
  00171	30 5c 05 ec	 xor	 BYTE PTR __k$[ebp+eax], bl
  00175	40		 inc	 eax
  00176	83 f8 0a	 cmp	 eax, 10			; 0000000aH
  00179	7c e3		 jl	 SHORT $LL101@LoadString

; 163  : 		LoadString(_k, d, b, i);

  0017b	ff 75 14	 push	 DWORD PTR _i$[ebp]
  0017e	8d 45 ec	 lea	 eax, DWORD PTR __k$[ebp]
  00181	57		 push	 edi
  00182	56		 push	 esi
  00183	50		 push	 eax
  00184	ff 15 00 00 00
	00		 call	 DWORD PTR __imp_?LoadStringA@ioINILoader@@QAEXPBD0PADH@Z

; 164  : 	}

  0018a	8b 4d fc	 mov	 ecx, DWORD PTR __$ArrayPad$[ebp]
  0018d	5f		 pop	 edi
  0018e	5e		 pop	 esi
  0018f	33 cd		 xor	 ecx, ebp
  00191	5b		 pop	 ebx
  00192	e8 00 00 00 00	 call	 @__security_check_cookie@4
  00197	c9		 leave
  00198	c2 10 00	 ret	 16			; 00000010H
??$LoadString_e@$0L@@ioINILoader@@QAEXAAY0L@$$CBDAAY00$$CBDPADH@Z ENDP ; ioINILoader::LoadString_e<11>
_TEXT	ENDS
PUBLIC	_this$GSCopy$
PUBLIC	__$ArrayPad$
PUBLIC	??$LoadString_e@$0BB@@ioINILoader@@QAEXAAY0BB@$$CBDAAY00$$CBDPADH@Z ; ioINILoader::LoadString_e<17>
; Function compile flags: /Ogsp
;	COMDAT ??$LoadString_e@$0BB@@ioINILoader@@QAEXAAY0BB@$$CBDAAY00$$CBDPADH@Z
_TEXT	SEGMENT
_this$GSCopy$ = -32					; size = 4
__k$ = -28						; size = 17
__$ArrayPad$ = -4					; size = 4
_k$ = 8							; size = 4
_d$ = 12						; size = 4
_b$ = 16						; size = 4
_i$ = 20						; size = 4
??$LoadString_e@$0BB@@ioINILoader@@QAEXAAY0BB@$$CBDAAY00$$CBDPADH@Z PROC ; ioINILoader::LoadString_e<17>, COMDAT
; _this$ = ecx

; 161  : 	{

  00000	55		 push	 ebp
  00001	8b ec		 mov	 ebp, esp
  00003	83 ec 20	 sub	 esp, 32			; 00000020H
  00006	a1 00 00 00 00	 mov	 eax, DWORD PTR ___security_cookie
  0000b	33 c5		 xor	 eax, ebp
  0000d	89 45 fc	 mov	 DWORD PTR __$ArrayPad$[ebp], eax
  00010	8b 45 08	 mov	 eax, DWORD PTR _k$[ebp]

; 162  : 		_ENCSTR(k, _k);

  00013	8a 10		 mov	 dl, BYTE PTR [eax]
  00015	56		 push	 esi
  00016	8b 75 0c	 mov	 esi, DWORD PTR _d$[ebp]
  00019	57		 push	 edi
  0001a	8b 7d 10	 mov	 edi, DWORD PTR _b$[ebp]
  0001d	89 4d e0	 mov	 DWORD PTR _this$GSCopy$[ebp], ecx
  00020	84 d2		 test	 dl, dl
  00022	0f 84 a7 01 00
	00		 je	 $LN96@LoadString@2
  00028	80 f2 ed	 xor	 dl, -19			; ffffffedH
  0002b	88 55 e4	 mov	 BYTE PTR __k$[ebp], dl
  0002e	8a 50 01	 mov	 dl, BYTE PTR [eax+1]
  00031	84 d2		 test	 dl, dl
  00033	0f 84 90 01 00
	00		 je	 $LN95@LoadString@2
  00039	b1 ec		 mov	 cl, -20			; ffffffecH
  0003b	32 d1		 xor	 dl, cl
  0003d	88 55 e5	 mov	 BYTE PTR __k$[ebp+1], dl
  00040	8a 50 02	 mov	 dl, BYTE PTR [eax+2]
  00043	84 d2		 test	 dl, dl
  00045	0f 84 78 01 00
	00		 je	 $LN94@LoadString@2
  0004b	80 f2 eb	 xor	 dl, -21			; ffffffebH
  0004e	88 55 e6	 mov	 BYTE PTR __k$[ebp+2], dl
  00051	8a 50 03	 mov	 dl, BYTE PTR [eax+3]
  00054	84 d2		 test	 dl, dl
  00056	0f 84 61 01 00
	00		 je	 $LN93@LoadString@2
  0005c	80 f2 ea	 xor	 dl, -22			; ffffffeaH
  0005f	88 55 e7	 mov	 BYTE PTR __k$[ebp+3], dl
  00062	8a 50 04	 mov	 dl, BYTE PTR [eax+4]
  00065	84 d2		 test	 dl, dl
  00067	0f 84 4a 01 00
	00		 je	 $LN92@LoadString@2
  0006d	80 f2 ed	 xor	 dl, -19			; ffffffedH
  00070	88 55 e8	 mov	 BYTE PTR __k$[ebp+4], dl
  00073	8a 50 05	 mov	 dl, BYTE PTR [eax+5]
  00076	84 d2		 test	 dl, dl
  00078	0f 84 34 01 00
	00		 je	 $LN91@LoadString@2
  0007e	32 d1		 xor	 dl, cl
  00080	88 55 e9	 mov	 BYTE PTR __k$[ebp+5], dl
  00083	8a 50 06	 mov	 dl, BYTE PTR [eax+6]
  00086	84 d2		 test	 dl, dl
  00088	0f 84 1e 01 00
	00		 je	 $LN90@LoadString@2
  0008e	80 f2 eb	 xor	 dl, -21			; ffffffebH
  00091	88 55 ea	 mov	 BYTE PTR __k$[ebp+6], dl
  00094	8a 50 07	 mov	 dl, BYTE PTR [eax+7]
  00097	84 d2		 test	 dl, dl
  00099	0f 84 07 01 00
	00		 je	 $LN89@LoadString@2
  0009f	80 f2 ea	 xor	 dl, -22			; ffffffeaH
  000a2	88 55 eb	 mov	 BYTE PTR __k$[ebp+7], dl
  000a5	8a 50 08	 mov	 dl, BYTE PTR [eax+8]
  000a8	84 d2		 test	 dl, dl
  000aa	0f 84 f0 00 00
	00		 je	 $LN88@LoadString@2
  000b0	80 f2 ed	 xor	 dl, -19			; ffffffedH
  000b3	88 55 ec	 mov	 BYTE PTR __k$[ebp+8], dl
  000b6	8a 50 09	 mov	 dl, BYTE PTR [eax+9]
  000b9	84 d2		 test	 dl, dl
  000bb	0f 84 da 00 00
	00		 je	 $LN87@LoadString@2
  000c1	32 d1		 xor	 dl, cl
  000c3	88 55 ed	 mov	 BYTE PTR __k$[ebp+9], dl
  000c6	8a 50 0a	 mov	 dl, BYTE PTR [eax+10]
  000c9	84 d2		 test	 dl, dl
  000cb	0f 84 c4 00 00
	00		 je	 $LN86@LoadString@2
  000d1	80 f2 eb	 xor	 dl, -21			; ffffffebH
  000d4	88 55 ee	 mov	 BYTE PTR __k$[ebp+10], dl
  000d7	8a 50 0b	 mov	 dl, BYTE PTR [eax+11]
  000da	84 d2		 test	 dl, dl
  000dc	0f 84 ad 00 00
	00		 je	 $LN85@LoadString@2
  000e2	80 f2 ea	 xor	 dl, -22			; ffffffeaH
  000e5	88 55 ef	 mov	 BYTE PTR __k$[ebp+11], dl
  000e8	8a 50 0c	 mov	 dl, BYTE PTR [eax+12]
  000eb	84 d2		 test	 dl, dl
  000ed	0f 84 96 00 00
	00		 je	 $LN84@LoadString@2
  000f3	80 f2 ed	 xor	 dl, -19			; ffffffedH
  000f6	88 55 f0	 mov	 BYTE PTR __k$[ebp+12], dl
  000f9	8a 50 0d	 mov	 dl, BYTE PTR [eax+13]
  000fc	84 d2		 test	 dl, dl
  000fe	0f 84 80 00 00
	00		 je	 $LN83@LoadString@2
  00104	32 d1		 xor	 dl, cl
  00106	88 55 f1	 mov	 BYTE PTR __k$[ebp+13], dl
  00109	8a 50 0e	 mov	 dl, BYTE PTR [eax+14]
  0010c	84 d2		 test	 dl, dl
  0010e	74 6e		 je	 SHORT $LN82@LoadString@2
  00110	80 f2 eb	 xor	 dl, -21			; ffffffebH
  00113	88 55 f2	 mov	 BYTE PTR __k$[ebp+14], dl
  00116	8a 50 0f	 mov	 dl, BYTE PTR [eax+15]
  00119	84 d2		 test	 dl, dl
  0011b	74 5b		 je	 SHORT $LN81@LoadString@2
  0011d	80 f2 ea	 xor	 dl, -22			; ffffffeaH
  00120	80 78 10 00	 cmp	 BYTE PTR [eax+16], 0
  00124	88 55 f3	 mov	 BYTE PTR __k$[ebp+15], dl
  00127	0f 84 a6 00 00
	00		 je	 $LN111@LoadString@2
  0012d	8a 50 11	 mov	 dl, BYTE PTR [eax+17]
  00130	84 d2		 test	 dl, dl
  00132	74 3f		 je	 SHORT $LN79@LoadString@2
  00134	32 d1		 xor	 dl, cl
  00136	88 55 f5	 mov	 BYTE PTR __k$[ebp+17], dl
  00139	8a 50 12	 mov	 dl, BYTE PTR [eax+18]
  0013c	84 d2		 test	 dl, dl
  0013e	74 2d		 je	 SHORT $LN78@LoadString@2
  00140	80 f2 eb	 xor	 dl, -21			; ffffffebH
  00143	88 55 f6	 mov	 BYTE PTR __k$[ebp+18], dl
  00146	8a 50 13	 mov	 dl, BYTE PTR [eax+19]
  00149	84 d2		 test	 dl, dl
  0014b	74 1a		 je	 SHORT $LN77@LoadString@2
  0014d	8a 40 14	 mov	 al, BYTE PTR [eax+20]
  00150	80 f2 ea	 xor	 dl, -22			; ffffffeaH
  00153	88 55 f7	 mov	 BYTE PTR __k$[ebp+19], dl
  00156	84 c0		 test	 al, al
  00158	74 07		 je	 SHORT $LN76@LoadString@2
  0015a	34 ed		 xor	 al, -19			; ffffffedH
  0015c	88 45 f8	 mov	 BYTE PTR __k$[ebp+20], al
  0015f	eb 72		 jmp	 SHORT $LN111@LoadString@2
$LN76@LoadString@2:
  00161	c6 45 f8 ed	 mov	 BYTE PTR __k$[ebp+20], -19 ; ffffffedH
  00165	eb 6c		 jmp	 SHORT $LN111@LoadString@2
$LN77@LoadString@2:
  00167	c6 45 f7 ea	 mov	 BYTE PTR __k$[ebp+19], -22 ; ffffffeaH
  0016b	eb 66		 jmp	 SHORT $LN111@LoadString@2
$LN78@LoadString@2:
  0016d	c6 45 f6 eb	 mov	 BYTE PTR __k$[ebp+18], -21 ; ffffffebH
  00171	eb 60		 jmp	 SHORT $LN111@LoadString@2
$LN79@LoadString@2:
  00173	88 4d f5	 mov	 BYTE PTR __k$[ebp+17], cl
  00176	eb 5b		 jmp	 SHORT $LN111@LoadString@2
$LN81@LoadString@2:
  00178	c6 45 f3 ea	 mov	 BYTE PTR __k$[ebp+15], -22 ; ffffffeaH
  0017c	eb 55		 jmp	 SHORT $LN111@LoadString@2
$LN82@LoadString@2:
  0017e	c6 45 f2 eb	 mov	 BYTE PTR __k$[ebp+14], -21 ; ffffffebH
  00182	eb 4f		 jmp	 SHORT $LN111@LoadString@2
$LN83@LoadString@2:
  00184	88 4d f1	 mov	 BYTE PTR __k$[ebp+13], cl
  00187	eb 4a		 jmp	 SHORT $LN111@LoadString@2
$LN84@LoadString@2:
  00189	c6 45 f0 ed	 mov	 BYTE PTR __k$[ebp+12], -19 ; ffffffedH
  0018d	eb 44		 jmp	 SHORT $LN111@LoadString@2
$LN85@LoadString@2:
  0018f	c6 45 ef ea	 mov	 BYTE PTR __k$[ebp+11], -22 ; ffffffeaH
  00193	eb 3e		 jmp	 SHORT $LN111@LoadString@2
$LN86@LoadString@2:
  00195	c6 45 ee eb	 mov	 BYTE PTR __k$[ebp+10], -21 ; ffffffebH
  00199	eb 38		 jmp	 SHORT $LN111@LoadString@2
$LN87@LoadString@2:
  0019b	88 4d ed	 mov	 BYTE PTR __k$[ebp+9], cl
  0019e	eb 33		 jmp	 SHORT $LN111@LoadString@2
$LN88@LoadString@2:
  001a0	c6 45 ec ed	 mov	 BYTE PTR __k$[ebp+8], -19 ; ffffffedH
  001a4	eb 2d		 jmp	 SHORT $LN111@LoadString@2
$LN89@LoadString@2:
  001a6	c6 45 eb ea	 mov	 BYTE PTR __k$[ebp+7], -22 ; ffffffeaH
  001aa	eb 27		 jmp	 SHORT $LN111@LoadString@2
$LN90@LoadString@2:
  001ac	c6 45 ea eb	 mov	 BYTE PTR __k$[ebp+6], -21 ; ffffffebH
  001b0	eb 21		 jmp	 SHORT $LN111@LoadString@2
$LN91@LoadString@2:
  001b2	88 4d e9	 mov	 BYTE PTR __k$[ebp+5], cl
  001b5	eb 1c		 jmp	 SHORT $LN111@LoadString@2
$LN92@LoadString@2:
  001b7	c6 45 e8 ed	 mov	 BYTE PTR __k$[ebp+4], -19 ; ffffffedH
  001bb	eb 16		 jmp	 SHORT $LN111@LoadString@2
$LN93@LoadString@2:
  001bd	c6 45 e7 ea	 mov	 BYTE PTR __k$[ebp+3], -22 ; ffffffeaH
  001c1	eb 10		 jmp	 SHORT $LN111@LoadString@2
$LN94@LoadString@2:
  001c3	c6 45 e6 eb	 mov	 BYTE PTR __k$[ebp+2], -21 ; ffffffebH
  001c7	eb 0a		 jmp	 SHORT $LN111@LoadString@2
$LN95@LoadString@2:
  001c9	c6 45 e5 ec	 mov	 BYTE PTR __k$[ebp+1], -20 ; ffffffecH
  001cd	eb 04		 jmp	 SHORT $LN111@LoadString@2
$LN96@LoadString@2:
  001cf	c6 45 e4 ed	 mov	 BYTE PTR __k$[ebp], -19	; ffffffedH
$LN111@LoadString@2:
  001d3	6a 04		 push	 4
  001d5	8d 45 e4	 lea	 eax, DWORD PTR __k$[ebp]
  001d8	c6 45 f4 00	 mov	 BYTE PTR __k$[ebp+16], 0
  001dc	5a		 pop	 edx
$LL104@LoadString@2:
  001dd	81 30 ed ec eb
	ea		 xor	 DWORD PTR [eax], -353637139 ; eaebecedH
  001e3	83 c0 04	 add	 eax, 4
  001e6	4a		 dec	 edx
  001e7	75 f4		 jne	 SHORT $LL104@LoadString@2

; 163  : 		LoadString(_k, d, b, i);

  001e9	ff 75 14	 push	 DWORD PTR _i$[ebp]
  001ec	8b 4d e0	 mov	 ecx, DWORD PTR _this$GSCopy$[ebp]
  001ef	57		 push	 edi
  001f0	56		 push	 esi
  001f1	8d 45 e4	 lea	 eax, DWORD PTR __k$[ebp]
  001f4	50		 push	 eax
  001f5	ff 15 00 00 00
	00		 call	 DWORD PTR __imp_?LoadStringA@ioINILoader@@QAEXPBD0PADH@Z

; 164  : 	}

  001fb	8b 4d fc	 mov	 ecx, DWORD PTR __$ArrayPad$[ebp]
  001fe	5f		 pop	 edi
  001ff	33 cd		 xor	 ecx, ebp
  00201	5e		 pop	 esi
  00202	e8 00 00 00 00	 call	 @__security_check_cookie@4
  00207	c9		 leave
  00208	c2 10 00	 ret	 16			; 00000010H
??$LoadString_e@$0BB@@ioINILoader@@QAEXAAY0BB@$$CBDAAY00$$CBDPADH@Z ENDP ; ioINILoader::LoadString_e<17>
_TEXT	ENDS
PUBLIC	__$ArrayPad$
PUBLIC	??$LoadBool_e@$0BA@@ioINILoader@@QAE_NAAY0BA@$$CBD_N@Z ; ioINILoader::LoadBool_e<16>
EXTRN	__imp_?LoadBool@ioINILoader@@QAE_NPBD_N@Z:PROC
; Function compile flags: /Ogsp
;	COMDAT ??$LoadBool_e@$0BA@@ioINILoader@@QAE_NAAY0BA@$$CBD_N@Z
_TEXT	SEGMENT
__k$ = -24						; size = 16
__$ArrayPad$ = -4					; size = 4
_k$ = 8							; size = 4
_b$ = 12						; size = 1
??$LoadBool_e@$0BA@@ioINILoader@@QAE_NAAY0BA@$$CBD_N@Z PROC ; ioINILoader::LoadBool_e<16>, COMDAT
; _this$ = ecx

; 101  : 	{

  00000	55		 push	 ebp
  00001	8b ec		 mov	 ebp, esp
  00003	83 ec 18	 sub	 esp, 24			; 00000018H
  00006	a1 00 00 00 00	 mov	 eax, DWORD PTR ___security_cookie
  0000b	33 c5		 xor	 eax, ebp
  0000d	89 45 fc	 mov	 DWORD PTR __$ArrayPad$[ebp], eax
  00010	8b 45 08	 mov	 eax, DWORD PTR _k$[ebp]

; 102  : 		_ENCSTR(k, _k);

  00013	8a 10		 mov	 dl, BYTE PTR [eax]
  00015	56		 push	 esi
  00016	8b f1		 mov	 esi, ecx
  00018	84 d2		 test	 dl, dl
  0001a	0f 84 8c 01 00
	00		 je	 $LN96@LoadBool_e
  00020	80 f2 ed	 xor	 dl, -19			; ffffffedH
  00023	88 55 e8	 mov	 BYTE PTR __k$[ebp], dl
  00026	8a 50 01	 mov	 dl, BYTE PTR [eax+1]
  00029	84 d2		 test	 dl, dl
  0002b	0f 84 75 01 00
	00		 je	 $LN95@LoadBool_e
  00031	80 f2 ec	 xor	 dl, -20			; ffffffecH
  00034	88 55 e9	 mov	 BYTE PTR __k$[ebp+1], dl
  00037	8a 50 02	 mov	 dl, BYTE PTR [eax+2]
  0003a	84 d2		 test	 dl, dl
  0003c	0f 84 5e 01 00
	00		 je	 $LN94@LoadBool_e
  00042	b1 eb		 mov	 cl, -21			; ffffffebH
  00044	32 d1		 xor	 dl, cl
  00046	88 55 ea	 mov	 BYTE PTR __k$[ebp+2], dl
  00049	8a 50 03	 mov	 dl, BYTE PTR [eax+3]
  0004c	84 d2		 test	 dl, dl
  0004e	0f 84 46 01 00
	00		 je	 $LN93@LoadBool_e
  00054	80 f2 ea	 xor	 dl, -22			; ffffffeaH
  00057	88 55 eb	 mov	 BYTE PTR __k$[ebp+3], dl
  0005a	8a 50 04	 mov	 dl, BYTE PTR [eax+4]
  0005d	84 d2		 test	 dl, dl
  0005f	0f 84 2f 01 00
	00		 je	 $LN92@LoadBool_e
  00065	80 f2 ed	 xor	 dl, -19			; ffffffedH
  00068	88 55 ec	 mov	 BYTE PTR __k$[ebp+4], dl
  0006b	8a 50 05	 mov	 dl, BYTE PTR [eax+5]
  0006e	84 d2		 test	 dl, dl
  00070	0f 84 18 01 00
	00		 je	 $LN91@LoadBool_e
  00076	80 f2 ec	 xor	 dl, -20			; ffffffecH
  00079	88 55 ed	 mov	 BYTE PTR __k$[ebp+5], dl
  0007c	8a 50 06	 mov	 dl, BYTE PTR [eax+6]
  0007f	84 d2		 test	 dl, dl
  00081	0f 84 02 01 00
	00		 je	 $LN90@LoadBool_e
  00087	32 d1		 xor	 dl, cl
  00089	88 55 ee	 mov	 BYTE PTR __k$[ebp+6], dl
  0008c	8a 50 07	 mov	 dl, BYTE PTR [eax+7]
  0008f	84 d2		 test	 dl, dl
  00091	0f 84 ec 00 00
	00		 je	 $LN89@LoadBool_e
  00097	80 f2 ea	 xor	 dl, -22			; ffffffeaH
  0009a	88 55 ef	 mov	 BYTE PTR __k$[ebp+7], dl
  0009d	8a 50 08	 mov	 dl, BYTE PTR [eax+8]
  000a0	84 d2		 test	 dl, dl
  000a2	0f 84 d5 00 00
	00		 je	 $LN88@LoadBool_e
  000a8	80 f2 ed	 xor	 dl, -19			; ffffffedH
  000ab	88 55 f0	 mov	 BYTE PTR __k$[ebp+8], dl
  000ae	8a 50 09	 mov	 dl, BYTE PTR [eax+9]
  000b1	84 d2		 test	 dl, dl
  000b3	0f 84 be 00 00
	00		 je	 $LN87@LoadBool_e
  000b9	80 f2 ec	 xor	 dl, -20			; ffffffecH
  000bc	88 55 f1	 mov	 BYTE PTR __k$[ebp+9], dl
  000bf	8a 50 0a	 mov	 dl, BYTE PTR [eax+10]
  000c2	84 d2		 test	 dl, dl
  000c4	0f 84 a8 00 00
	00		 je	 $LN86@LoadBool_e
  000ca	32 d1		 xor	 dl, cl
  000cc	88 55 f2	 mov	 BYTE PTR __k$[ebp+10], dl
  000cf	8a 50 0b	 mov	 dl, BYTE PTR [eax+11]
  000d2	84 d2		 test	 dl, dl
  000d4	0f 84 92 00 00
	00		 je	 $LN85@LoadBool_e
  000da	80 f2 ea	 xor	 dl, -22			; ffffffeaH
  000dd	88 55 f3	 mov	 BYTE PTR __k$[ebp+11], dl
  000e0	8a 50 0c	 mov	 dl, BYTE PTR [eax+12]
  000e3	84 d2		 test	 dl, dl
  000e5	74 7f		 je	 SHORT $LN84@LoadBool_e
  000e7	80 f2 ed	 xor	 dl, -19			; ffffffedH
  000ea	88 55 f4	 mov	 BYTE PTR __k$[ebp+12], dl
  000ed	8a 50 0d	 mov	 dl, BYTE PTR [eax+13]
  000f0	84 d2		 test	 dl, dl
  000f2	74 6c		 je	 SHORT $LN83@LoadBool_e
  000f4	80 f2 ec	 xor	 dl, -20			; ffffffecH
  000f7	88 55 f5	 mov	 BYTE PTR __k$[ebp+13], dl
  000fa	8a 50 0e	 mov	 dl, BYTE PTR [eax+14]
  000fd	84 d2		 test	 dl, dl
  000ff	74 5a		 je	 SHORT $LN82@LoadBool_e
  00101	32 d1		 xor	 dl, cl
  00103	80 78 0f 00	 cmp	 BYTE PTR [eax+15], 0
  00107	88 55 f6	 mov	 BYTE PTR __k$[ebp+14], dl
  0010a	0f 84 a0 00 00
	00		 je	 $LN1@LoadBool_e
  00110	8a 50 10	 mov	 dl, BYTE PTR [eax+16]
  00113	84 d2		 test	 dl, dl
  00115	74 3e		 je	 SHORT $LN80@LoadBool_e
  00117	80 f2 ed	 xor	 dl, -19			; ffffffedH
  0011a	88 55 f8	 mov	 BYTE PTR __k$[ebp+16], dl
  0011d	8a 50 11	 mov	 dl, BYTE PTR [eax+17]
  00120	84 d2		 test	 dl, dl
  00122	74 2b		 je	 SHORT $LN79@LoadBool_e
  00124	80 f2 ec	 xor	 dl, -20			; ffffffecH
  00127	88 55 f9	 mov	 BYTE PTR __k$[ebp+17], dl
  0012a	8a 50 12	 mov	 dl, BYTE PTR [eax+18]
  0012d	84 d2		 test	 dl, dl
  0012f	74 19		 je	 SHORT $LN78@LoadBool_e
  00131	8a 40 13	 mov	 al, BYTE PTR [eax+19]
  00134	32 d1		 xor	 dl, cl
  00136	88 55 fa	 mov	 BYTE PTR __k$[ebp+18], dl
  00139	84 c0		 test	 al, al
  0013b	74 07		 je	 SHORT $LN77@LoadBool_e
  0013d	34 ea		 xor	 al, -22			; ffffffeaH
  0013f	88 45 fb	 mov	 BYTE PTR __k$[ebp+19], al
  00142	eb 6c		 jmp	 SHORT $LN1@LoadBool_e
$LN77@LoadBool_e:
  00144	c6 45 fb ea	 mov	 BYTE PTR __k$[ebp+19], -22 ; ffffffeaH
  00148	eb 66		 jmp	 SHORT $LN1@LoadBool_e
$LN78@LoadBool_e:
  0014a	88 4d fa	 mov	 BYTE PTR __k$[ebp+18], cl
  0014d	eb 61		 jmp	 SHORT $LN1@LoadBool_e
$LN79@LoadBool_e:
  0014f	c6 45 f9 ec	 mov	 BYTE PTR __k$[ebp+17], -20 ; ffffffecH
  00153	eb 5b		 jmp	 SHORT $LN1@LoadBool_e
$LN80@LoadBool_e:
  00155	c6 45 f8 ed	 mov	 BYTE PTR __k$[ebp+16], -19 ; ffffffedH
  00159	eb 55		 jmp	 SHORT $LN1@LoadBool_e
$LN82@LoadBool_e:
  0015b	88 4d f6	 mov	 BYTE PTR __k$[ebp+14], cl
  0015e	eb 50		 jmp	 SHORT $LN1@LoadBool_e
$LN83@LoadBool_e:
  00160	c6 45 f5 ec	 mov	 BYTE PTR __k$[ebp+13], -20 ; ffffffecH
  00164	eb 4a		 jmp	 SHORT $LN1@LoadBool_e
$LN84@LoadBool_e:
  00166	c6 45 f4 ed	 mov	 BYTE PTR __k$[ebp+12], -19 ; ffffffedH
  0016a	eb 44		 jmp	 SHORT $LN1@LoadBool_e
$LN85@LoadBool_e:
  0016c	c6 45 f3 ea	 mov	 BYTE PTR __k$[ebp+11], -22 ; ffffffeaH
  00170	eb 3e		 jmp	 SHORT $LN1@LoadBool_e
$LN86@LoadBool_e:
  00172	88 4d f2	 mov	 BYTE PTR __k$[ebp+10], cl
  00175	eb 39		 jmp	 SHORT $LN1@LoadBool_e
$LN87@LoadBool_e:
  00177	c6 45 f1 ec	 mov	 BYTE PTR __k$[ebp+9], -20 ; ffffffecH
  0017b	eb 33		 jmp	 SHORT $LN1@LoadBool_e
$LN88@LoadBool_e:
  0017d	c6 45 f0 ed	 mov	 BYTE PTR __k$[ebp+8], -19 ; ffffffedH
  00181	eb 2d		 jmp	 SHORT $LN1@LoadBool_e
$LN89@LoadBool_e:
  00183	c6 45 ef ea	 mov	 BYTE PTR __k$[ebp+7], -22 ; ffffffeaH
  00187	eb 27		 jmp	 SHORT $LN1@LoadBool_e
$LN90@LoadBool_e:
  00189	88 4d ee	 mov	 BYTE PTR __k$[ebp+6], cl
  0018c	eb 22		 jmp	 SHORT $LN1@LoadBool_e
$LN91@LoadBool_e:
  0018e	c6 45 ed ec	 mov	 BYTE PTR __k$[ebp+5], -20 ; ffffffecH
  00192	eb 1c		 jmp	 SHORT $LN1@LoadBool_e
$LN92@LoadBool_e:
  00194	c6 45 ec ed	 mov	 BYTE PTR __k$[ebp+4], -19 ; ffffffedH
  00198	eb 16		 jmp	 SHORT $LN1@LoadBool_e
$LN93@LoadBool_e:
  0019a	c6 45 eb ea	 mov	 BYTE PTR __k$[ebp+3], -22 ; ffffffeaH
  0019e	eb 10		 jmp	 SHORT $LN1@LoadBool_e
$LN94@LoadBool_e:
  001a0	c6 45 ea eb	 mov	 BYTE PTR __k$[ebp+2], -21 ; ffffffebH
  001a4	eb 0a		 jmp	 SHORT $LN1@LoadBool_e
$LN95@LoadBool_e:
  001a6	c6 45 e9 ec	 mov	 BYTE PTR __k$[ebp+1], -20 ; ffffffecH
  001aa	eb 04		 jmp	 SHORT $LN1@LoadBool_e
$LN96@LoadBool_e:
  001ac	c6 45 e8 ed	 mov	 BYTE PTR __k$[ebp], -19	; ffffffedH
$LN1@LoadBool_e:
  001b0	6a 03		 push	 3
  001b2	8d 45 e8	 lea	 eax, DWORD PTR __k$[ebp]
  001b5	c6 45 f7 00	 mov	 BYTE PTR __k$[ebp+15], 0
  001b9	5a		 pop	 edx
$LL104@LoadBool_e:
  001ba	81 30 ed ec eb
	ea		 xor	 DWORD PTR [eax], -353637139 ; eaebecedH
  001c0	83 c0 04	 add	 eax, 4
  001c3	4a		 dec	 edx
  001c4	75 f4		 jne	 SHORT $LL104@LoadBool_e
  001c6	6a 0c		 push	 12			; 0000000cH
  001c8	58		 pop	 eax
$LL101@LoadBool_e:
  001c9	8b c8		 mov	 ecx, eax
  001cb	81 e1 03 00 00
	80		 and	 ecx, -2147483645	; 80000003H
  001d1	79 05		 jns	 SHORT $LN111@LoadBool_e
  001d3	49		 dec	 ecx
  001d4	83 c9 fc	 or	 ecx, -4			; fffffffcH
  001d7	41		 inc	 ecx
$LN111@LoadBool_e:
  001d8	b2 ed		 mov	 dl, -19			; ffffffedH
  001da	2a d1		 sub	 dl, cl
  001dc	30 54 05 e8	 xor	 BYTE PTR __k$[ebp+eax], dl
  001e0	40		 inc	 eax
  001e1	83 f8 0f	 cmp	 eax, 15			; 0000000fH
  001e4	7c e3		 jl	 SHORT $LL101@LoadBool_e

; 103  : 		return LoadBool(_k, b);

  001e6	ff 75 0c	 push	 DWORD PTR _b$[ebp]
  001e9	8d 45 e8	 lea	 eax, DWORD PTR __k$[ebp]
  001ec	50		 push	 eax
  001ed	8b ce		 mov	 ecx, esi
  001ef	ff 15 00 00 00
	00		 call	 DWORD PTR __imp_?LoadBool@ioINILoader@@QAE_NPBD_N@Z

; 104  : 	}

  001f5	8b 4d fc	 mov	 ecx, DWORD PTR __$ArrayPad$[ebp]
  001f8	33 cd		 xor	 ecx, ebp
  001fa	5e		 pop	 esi
  001fb	e8 00 00 00 00	 call	 @__security_check_cookie@4
  00200	c9		 leave
  00201	c2 08 00	 ret	 8
??$LoadBool_e@$0BA@@ioINILoader@@QAE_NAAY0BA@$$CBD_N@Z ENDP ; ioINILoader::LoadBool_e<16>
_TEXT	ENDS
PUBLIC	__$ArrayPad$
PUBLIC	??$LoadInt_e@$0BE@@ioINILoader@@QAEHAAY0BE@$$CBDH@Z ; ioINILoader::LoadInt_e<20>
EXTRN	__imp_?LoadInt@ioINILoader@@QAEHPBDH@Z:PROC
; Function compile flags: /Ogsp
;	COMDAT ??$LoadInt_e@$0BE@@ioINILoader@@QAEHAAY0BE@$$CBDH@Z
_TEXT	SEGMENT
__k$ = -28						; size = 20
__$ArrayPad$ = -4					; size = 4
_k$ = 8							; size = 4
_i$ = 12						; size = 4
??$LoadInt_e@$0BE@@ioINILoader@@QAEHAAY0BE@$$CBDH@Z PROC ; ioINILoader::LoadInt_e<20>, COMDAT
; _this$ = ecx

; 118  : 	{

  00000	55		 push	 ebp
  00001	8b ec		 mov	 ebp, esp
  00003	83 ec 1c	 sub	 esp, 28			; 0000001cH
  00006	a1 00 00 00 00	 mov	 eax, DWORD PTR ___security_cookie
  0000b	33 c5		 xor	 eax, ebp
  0000d	89 45 fc	 mov	 DWORD PTR __$ArrayPad$[ebp], eax
  00010	8b 45 08	 mov	 eax, DWORD PTR _k$[ebp]

; 119  : 		_ENCSTR(k, _k);

  00013	8a 10		 mov	 dl, BYTE PTR [eax]
  00015	53		 push	 ebx
  00016	56		 push	 esi
  00017	8b f1		 mov	 esi, ecx
  00019	84 d2		 test	 dl, dl
  0001b	0f 84 dd 01 00
	00		 je	 $LN96@LoadInt_e
  00021	80 f2 ed	 xor	 dl, -19			; ffffffedH
  00024	88 55 e4	 mov	 BYTE PTR __k$[ebp], dl
  00027	8a 50 01	 mov	 dl, BYTE PTR [eax+1]
  0002a	84 d2		 test	 dl, dl
  0002c	0f 84 c6 01 00
	00		 je	 $LN95@LoadInt_e
  00032	b3 ec		 mov	 bl, -20			; ffffffecH
  00034	32 d3		 xor	 dl, bl
  00036	88 55 e5	 mov	 BYTE PTR __k$[ebp+1], dl
  00039	8a 50 02	 mov	 dl, BYTE PTR [eax+2]
  0003c	84 d2		 test	 dl, dl
  0003e	0f 84 ae 01 00
	00		 je	 $LN94@LoadInt_e
  00044	b1 eb		 mov	 cl, -21			; ffffffebH
  00046	32 d1		 xor	 dl, cl
  00048	88 55 e6	 mov	 BYTE PTR __k$[ebp+2], dl
  0004b	8a 50 03	 mov	 dl, BYTE PTR [eax+3]
  0004e	84 d2		 test	 dl, dl
  00050	0f 84 96 01 00
	00		 je	 $LN93@LoadInt_e
  00056	80 f2 ea	 xor	 dl, -22			; ffffffeaH
  00059	88 55 e7	 mov	 BYTE PTR __k$[ebp+3], dl
  0005c	8a 50 04	 mov	 dl, BYTE PTR [eax+4]
  0005f	84 d2		 test	 dl, dl
  00061	0f 84 7f 01 00
	00		 je	 $LN92@LoadInt_e
  00067	80 f2 ed	 xor	 dl, -19			; ffffffedH
  0006a	88 55 e8	 mov	 BYTE PTR __k$[ebp+4], dl
  0006d	8a 50 05	 mov	 dl, BYTE PTR [eax+5]
  00070	84 d2		 test	 dl, dl
  00072	0f 84 69 01 00
	00		 je	 $LN91@LoadInt_e
  00078	32 d3		 xor	 dl, bl
  0007a	88 55 e9	 mov	 BYTE PTR __k$[ebp+5], dl
  0007d	8a 50 06	 mov	 dl, BYTE PTR [eax+6]
  00080	84 d2		 test	 dl, dl
  00082	0f 84 54 01 00
	00		 je	 $LN90@LoadInt_e
  00088	32 d1		 xor	 dl, cl
  0008a	88 55 ea	 mov	 BYTE PTR __k$[ebp+6], dl
  0008d	8a 50 07	 mov	 dl, BYTE PTR [eax+7]
  00090	84 d2		 test	 dl, dl
  00092	0f 84 3e 01 00
	00		 je	 $LN89@LoadInt_e
  00098	80 f2 ea	 xor	 dl, -22			; ffffffeaH
  0009b	88 55 eb	 mov	 BYTE PTR __k$[ebp+7], dl
  0009e	8a 50 08	 mov	 dl, BYTE PTR [eax+8]
  000a1	84 d2		 test	 dl, dl
  000a3	0f 84 27 01 00
	00		 je	 $LN88@LoadInt_e
  000a9	80 f2 ed	 xor	 dl, -19			; ffffffedH
  000ac	88 55 ec	 mov	 BYTE PTR __k$[ebp+8], dl
  000af	8a 50 09	 mov	 dl, BYTE PTR [eax+9]
  000b2	84 d2		 test	 dl, dl
  000b4	0f 84 11 01 00
	00		 je	 $LN87@LoadInt_e
  000ba	32 d3		 xor	 dl, bl
  000bc	88 55 ed	 mov	 BYTE PTR __k$[ebp+9], dl
  000bf	8a 50 0a	 mov	 dl, BYTE PTR [eax+10]
  000c2	84 d2		 test	 dl, dl
  000c4	0f 84 fc 00 00
	00		 je	 $LN86@LoadInt_e
  000ca	32 d1		 xor	 dl, cl
  000cc	88 55 ee	 mov	 BYTE PTR __k$[ebp+10], dl
  000cf	8a 50 0b	 mov	 dl, BYTE PTR [eax+11]
  000d2	84 d2		 test	 dl, dl
  000d4	0f 84 e6 00 00
	00		 je	 $LN85@LoadInt_e
  000da	80 f2 ea	 xor	 dl, -22			; ffffffeaH
  000dd	88 55 ef	 mov	 BYTE PTR __k$[ebp+11], dl
  000e0	8a 50 0c	 mov	 dl, BYTE PTR [eax+12]
  000e3	84 d2		 test	 dl, dl
  000e5	0f 84 cf 00 00
	00		 je	 $LN84@LoadInt_e
  000eb	80 f2 ed	 xor	 dl, -19			; ffffffedH
  000ee	88 55 f0	 mov	 BYTE PTR __k$[ebp+12], dl
  000f1	8a 50 0d	 mov	 dl, BYTE PTR [eax+13]
  000f4	84 d2		 test	 dl, dl
  000f6	0f 84 b9 00 00
	00		 je	 $LN83@LoadInt_e
  000fc	32 d3		 xor	 dl, bl
  000fe	88 55 f1	 mov	 BYTE PTR __k$[ebp+13], dl
  00101	8a 50 0e	 mov	 dl, BYTE PTR [eax+14]
  00104	84 d2		 test	 dl, dl
  00106	0f 84 a4 00 00
	00		 je	 $LN82@LoadInt_e
  0010c	32 d1		 xor	 dl, cl
  0010e	88 55 f2	 mov	 BYTE PTR __k$[ebp+14], dl
  00111	8a 50 0f	 mov	 dl, BYTE PTR [eax+15]
  00114	84 d2		 test	 dl, dl
  00116	0f 84 8e 00 00
	00		 je	 $LN81@LoadInt_e
  0011c	80 f2 ea	 xor	 dl, -22			; ffffffeaH
  0011f	88 55 f3	 mov	 BYTE PTR __k$[ebp+15], dl
  00122	8a 50 10	 mov	 dl, BYTE PTR [eax+16]
  00125	84 d2		 test	 dl, dl
  00127	74 7b		 je	 SHORT $LN80@LoadInt_e
  00129	80 f2 ed	 xor	 dl, -19			; ffffffedH
  0012c	88 55 f4	 mov	 BYTE PTR __k$[ebp+16], dl
  0012f	8a 50 11	 mov	 dl, BYTE PTR [eax+17]
  00132	84 d2		 test	 dl, dl
  00134	74 69		 je	 SHORT $LN79@LoadInt_e
  00136	32 d3		 xor	 dl, bl
  00138	88 55 f5	 mov	 BYTE PTR __k$[ebp+17], dl
  0013b	8a 50 12	 mov	 dl, BYTE PTR [eax+18]
  0013e	84 d2		 test	 dl, dl
  00140	74 58		 je	 SHORT $LN78@LoadInt_e
  00142	32 d1		 xor	 dl, cl
  00144	80 78 13 00	 cmp	 BYTE PTR [eax+19], 0
  00148	88 55 f6	 mov	 BYTE PTR __k$[ebp+18], dl
  0014b	0f 84 b1 00 00
	00		 je	 $LN1@LoadInt_e
  00151	8a 50 14	 mov	 dl, BYTE PTR [eax+20]
  00154	84 d2		 test	 dl, dl
  00156	74 3c		 je	 SHORT $LN76@LoadInt_e
  00158	80 f2 ed	 xor	 dl, -19			; ffffffedH
  0015b	88 55 f8	 mov	 BYTE PTR __k$[ebp+20], dl
  0015e	8a 50 15	 mov	 dl, BYTE PTR [eax+21]
  00161	84 d2		 test	 dl, dl
  00163	74 2a		 je	 SHORT $LN75@LoadInt_e
  00165	32 d3		 xor	 dl, bl
  00167	88 55 f9	 mov	 BYTE PTR __k$[ebp+21], dl
  0016a	8a 50 16	 mov	 dl, BYTE PTR [eax+22]
  0016d	84 d2		 test	 dl, dl
  0016f	74 19		 je	 SHORT $LN74@LoadInt_e
  00171	8a 40 17	 mov	 al, BYTE PTR [eax+23]
  00174	32 d1		 xor	 dl, cl
  00176	88 55 fa	 mov	 BYTE PTR __k$[ebp+22], dl
  00179	84 c0		 test	 al, al
  0017b	74 07		 je	 SHORT $LN73@LoadInt_e
  0017d	34 ea		 xor	 al, -22			; ffffffeaH
  0017f	88 45 fb	 mov	 BYTE PTR __k$[ebp+23], al
  00182	eb 7e		 jmp	 SHORT $LN1@LoadInt_e
$LN73@LoadInt_e:
  00184	c6 45 fb ea	 mov	 BYTE PTR __k$[ebp+23], -22 ; ffffffeaH
  00188	eb 78		 jmp	 SHORT $LN1@LoadInt_e
$LN74@LoadInt_e:
  0018a	88 4d fa	 mov	 BYTE PTR __k$[ebp+22], cl
  0018d	eb 73		 jmp	 SHORT $LN1@LoadInt_e
$LN75@LoadInt_e:
  0018f	88 5d f9	 mov	 BYTE PTR __k$[ebp+21], bl
  00192	eb 6e		 jmp	 SHORT $LN1@LoadInt_e
$LN76@LoadInt_e:
  00194	c6 45 f8 ed	 mov	 BYTE PTR __k$[ebp+20], -19 ; ffffffedH
  00198	eb 68		 jmp	 SHORT $LN1@LoadInt_e
$LN78@LoadInt_e:
  0019a	88 4d f6	 mov	 BYTE PTR __k$[ebp+18], cl
  0019d	eb 63		 jmp	 SHORT $LN1@LoadInt_e
$LN79@LoadInt_e:
  0019f	88 5d f5	 mov	 BYTE PTR __k$[ebp+17], bl
  001a2	eb 5e		 jmp	 SHORT $LN1@LoadInt_e
$LN80@LoadInt_e:
  001a4	c6 45 f4 ed	 mov	 BYTE PTR __k$[ebp+16], -19 ; ffffffedH
  001a8	eb 58		 jmp	 SHORT $LN1@LoadInt_e
$LN81@LoadInt_e:
  001aa	c6 45 f3 ea	 mov	 BYTE PTR __k$[ebp+15], -22 ; ffffffeaH
  001ae	eb 52		 jmp	 SHORT $LN1@LoadInt_e
$LN82@LoadInt_e:
  001b0	88 4d f2	 mov	 BYTE PTR __k$[ebp+14], cl
  001b3	eb 4d		 jmp	 SHORT $LN1@LoadInt_e
$LN83@LoadInt_e:
  001b5	88 5d f1	 mov	 BYTE PTR __k$[ebp+13], bl
  001b8	eb 48		 jmp	 SHORT $LN1@LoadInt_e
$LN84@LoadInt_e:
  001ba	c6 45 f0 ed	 mov	 BYTE PTR __k$[ebp+12], -19 ; ffffffedH
  001be	eb 42		 jmp	 SHORT $LN1@LoadInt_e
$LN85@LoadInt_e:
  001c0	c6 45 ef ea	 mov	 BYTE PTR __k$[ebp+11], -22 ; ffffffeaH
  001c4	eb 3c		 jmp	 SHORT $LN1@LoadInt_e
$LN86@LoadInt_e:
  001c6	88 4d ee	 mov	 BYTE PTR __k$[ebp+10], cl
  001c9	eb 37		 jmp	 SHORT $LN1@LoadInt_e
$LN87@LoadInt_e:
  001cb	88 5d ed	 mov	 BYTE PTR __k$[ebp+9], bl
  001ce	eb 32		 jmp	 SHORT $LN1@LoadInt_e
$LN88@LoadInt_e:
  001d0	c6 45 ec ed	 mov	 BYTE PTR __k$[ebp+8], -19 ; ffffffedH
  001d4	eb 2c		 jmp	 SHORT $LN1@LoadInt_e
$LN89@LoadInt_e:
  001d6	c6 45 eb ea	 mov	 BYTE PTR __k$[ebp+7], -22 ; ffffffeaH
  001da	eb 26		 jmp	 SHORT $LN1@LoadInt_e
$LN90@LoadInt_e:
  001dc	88 4d ea	 mov	 BYTE PTR __k$[ebp+6], cl
  001df	eb 21		 jmp	 SHORT $LN1@LoadInt_e
$LN91@LoadInt_e:
  001e1	88 5d e9	 mov	 BYTE PTR __k$[ebp+5], bl
  001e4	eb 1c		 jmp	 SHORT $LN1@LoadInt_e
$LN92@LoadInt_e:
  001e6	c6 45 e8 ed	 mov	 BYTE PTR __k$[ebp+4], -19 ; ffffffedH
  001ea	eb 16		 jmp	 SHORT $LN1@LoadInt_e
$LN93@LoadInt_e:
  001ec	c6 45 e7 ea	 mov	 BYTE PTR __k$[ebp+3], -22 ; ffffffeaH
  001f0	eb 10		 jmp	 SHORT $LN1@LoadInt_e
$LN94@LoadInt_e:
  001f2	c6 45 e6 eb	 mov	 BYTE PTR __k$[ebp+2], -21 ; ffffffebH
  001f6	eb 0a		 jmp	 SHORT $LN1@LoadInt_e
$LN95@LoadInt_e:
  001f8	c6 45 e5 ec	 mov	 BYTE PTR __k$[ebp+1], -20 ; ffffffecH
  001fc	eb 04		 jmp	 SHORT $LN1@LoadInt_e
$LN96@LoadInt_e:
  001fe	c6 45 e4 ed	 mov	 BYTE PTR __k$[ebp], -19	; ffffffedH
$LN1@LoadInt_e:
  00202	6a 04		 push	 4
  00204	8d 45 e4	 lea	 eax, DWORD PTR __k$[ebp]
  00207	c6 45 f7 00	 mov	 BYTE PTR __k$[ebp+19], 0
  0020b	5a		 pop	 edx
$LL104@LoadInt_e:
  0020c	81 30 ed ec eb
	ea		 xor	 DWORD PTR [eax], -353637139 ; eaebecedH
  00212	83 c0 04	 add	 eax, 4
  00215	4a		 dec	 edx
  00216	75 f4		 jne	 SHORT $LL104@LoadInt_e
  00218	6a 10		 push	 16			; 00000010H
  0021a	58		 pop	 eax
$LL101@LoadInt_e:
  0021b	8b c8		 mov	 ecx, eax
  0021d	81 e1 03 00 00
	80		 and	 ecx, -2147483645	; 80000003H
  00223	79 05		 jns	 SHORT $LN111@LoadInt_e
  00225	49		 dec	 ecx
  00226	83 c9 fc	 or	 ecx, -4			; fffffffcH
  00229	41		 inc	 ecx
$LN111@LoadInt_e:
  0022a	b2 ed		 mov	 dl, -19			; ffffffedH
  0022c	2a d1		 sub	 dl, cl
  0022e	30 54 05 e4	 xor	 BYTE PTR __k$[ebp+eax], dl
  00232	40		 inc	 eax
  00233	83 f8 13	 cmp	 eax, 19			; 00000013H
  00236	7c e3		 jl	 SHORT $LL101@LoadInt_e

; 120  : 		return LoadInt(_k, i);

  00238	ff 75 0c	 push	 DWORD PTR _i$[ebp]
  0023b	8d 45 e4	 lea	 eax, DWORD PTR __k$[ebp]
  0023e	50		 push	 eax
  0023f	8b ce		 mov	 ecx, esi
  00241	ff 15 00 00 00
	00		 call	 DWORD PTR __imp_?LoadInt@ioINILoader@@QAEHPBDH@Z

; 121  : 	}

  00247	8b 4d fc	 mov	 ecx, DWORD PTR __$ArrayPad$[ebp]
  0024a	5e		 pop	 esi
  0024b	33 cd		 xor	 ecx, ebp
  0024d	5b		 pop	 ebx
  0024e	e8 00 00 00 00	 call	 @__security_check_cookie@4
  00253	c9		 leave
  00254	c2 08 00	 ret	 8
??$LoadInt_e@$0BE@@ioINILoader@@QAEHAAY0BE@$$CBDH@Z ENDP ; ioINILoader::LoadInt_e<20>
_TEXT	ENDS
PUBLIC	__$ArrayPad$
PUBLIC	??$LoadInt_e@$0BC@@ioINILoader@@QAEHAAY0BC@$$CBDH@Z ; ioINILoader::LoadInt_e<18>
; Function compile flags: /Ogsp
;	COMDAT ??$LoadInt_e@$0BC@@ioINILoader@@QAEHAAY0BC@$$CBDH@Z
_TEXT	SEGMENT
__k$ = -28						; size = 18
__$ArrayPad$ = -4					; size = 4
_k$ = 8							; size = 4
_i$ = 12						; size = 4
??$LoadInt_e@$0BC@@ioINILoader@@QAEHAAY0BC@$$CBDH@Z PROC ; ioINILoader::LoadInt_e<18>, COMDAT
; _this$ = ecx

; 118  : 	{

  00000	55		 push	 ebp
  00001	8b ec		 mov	 ebp, esp
  00003	83 ec 1c	 sub	 esp, 28			; 0000001cH
  00006	a1 00 00 00 00	 mov	 eax, DWORD PTR ___security_cookie
  0000b	33 c5		 xor	 eax, ebp
  0000d	89 45 fc	 mov	 DWORD PTR __$ArrayPad$[ebp], eax
  00010	8b 45 08	 mov	 eax, DWORD PTR _k$[ebp]

; 119  : 		_ENCSTR(k, _k);

  00013	8a 10		 mov	 dl, BYTE PTR [eax]
  00015	56		 push	 esi
  00016	8b f1		 mov	 esi, ecx
  00018	84 d2		 test	 dl, dl
  0001a	0f 84 be 01 00
	00		 je	 $LN96@LoadInt_e@2
  00020	80 f2 ed	 xor	 dl, -19			; ffffffedH
  00023	88 55 e4	 mov	 BYTE PTR __k$[ebp], dl
  00026	8a 50 01	 mov	 dl, BYTE PTR [eax+1]
  00029	84 d2		 test	 dl, dl
  0002b	0f 84 a7 01 00
	00		 je	 $LN95@LoadInt_e@2
  00031	80 f2 ec	 xor	 dl, -20			; ffffffecH
  00034	88 55 e5	 mov	 BYTE PTR __k$[ebp+1], dl
  00037	8a 50 02	 mov	 dl, BYTE PTR [eax+2]
  0003a	84 d2		 test	 dl, dl
  0003c	0f 84 90 01 00
	00		 je	 $LN94@LoadInt_e@2
  00042	b1 eb		 mov	 cl, -21			; ffffffebH
  00044	32 d1		 xor	 dl, cl
  00046	88 55 e6	 mov	 BYTE PTR __k$[ebp+2], dl
  00049	8a 50 03	 mov	 dl, BYTE PTR [eax+3]
  0004c	84 d2		 test	 dl, dl
  0004e	0f 84 78 01 00
	00		 je	 $LN93@LoadInt_e@2
  00054	80 f2 ea	 xor	 dl, -22			; ffffffeaH
  00057	88 55 e7	 mov	 BYTE PTR __k$[ebp+3], dl
  0005a	8a 50 04	 mov	 dl, BYTE PTR [eax+4]
  0005d	84 d2		 test	 dl, dl
  0005f	0f 84 61 01 00
	00		 je	 $LN92@LoadInt_e@2
  00065	80 f2 ed	 xor	 dl, -19			; ffffffedH
  00068	88 55 e8	 mov	 BYTE PTR __k$[ebp+4], dl
  0006b	8a 50 05	 mov	 dl, BYTE PTR [eax+5]
  0006e	84 d2		 test	 dl, dl
  00070	0f 84 4a 01 00
	00		 je	 $LN91@LoadInt_e@2
  00076	80 f2 ec	 xor	 dl, -20			; ffffffecH
  00079	88 55 e9	 mov	 BYTE PTR __k$[ebp+5], dl
  0007c	8a 50 06	 mov	 dl, BYTE PTR [eax+6]
  0007f	84 d2		 test	 dl, dl
  00081	0f 84 34 01 00
	00		 je	 $LN90@LoadInt_e@2
  00087	32 d1		 xor	 dl, cl
  00089	88 55 ea	 mov	 BYTE PTR __k$[ebp+6], dl
  0008c	8a 50 07	 mov	 dl, BYTE PTR [eax+7]
  0008f	84 d2		 test	 dl, dl
  00091	0f 84 1e 01 00
	00		 je	 $LN89@LoadInt_e@2
  00097	80 f2 ea	 xor	 dl, -22			; ffffffeaH
  0009a	88 55 eb	 mov	 BYTE PTR __k$[ebp+7], dl
  0009d	8a 50 08	 mov	 dl, BYTE PTR [eax+8]
  000a0	84 d2		 test	 dl, dl
  000a2	0f 84 07 01 00
	00		 je	 $LN88@LoadInt_e@2
  000a8	80 f2 ed	 xor	 dl, -19			; ffffffedH
  000ab	88 55 ec	 mov	 BYTE PTR __k$[ebp+8], dl
  000ae	8a 50 09	 mov	 dl, BYTE PTR [eax+9]
  000b1	84 d2		 test	 dl, dl
  000b3	0f 84 f0 00 00
	00		 je	 $LN87@LoadInt_e@2
  000b9	80 f2 ec	 xor	 dl, -20			; ffffffecH
  000bc	88 55 ed	 mov	 BYTE PTR __k$[ebp+9], dl
  000bf	8a 50 0a	 mov	 dl, BYTE PTR [eax+10]
  000c2	84 d2		 test	 dl, dl
  000c4	0f 84 da 00 00
	00		 je	 $LN86@LoadInt_e@2
  000ca	32 d1		 xor	 dl, cl
  000cc	88 55 ee	 mov	 BYTE PTR __k$[ebp+10], dl
  000cf	8a 50 0b	 mov	 dl, BYTE PTR [eax+11]
  000d2	84 d2		 test	 dl, dl
  000d4	0f 84 c4 00 00
	00		 je	 $LN85@LoadInt_e@2
  000da	80 f2 ea	 xor	 dl, -22			; ffffffeaH
  000dd	88 55 ef	 mov	 BYTE PTR __k$[ebp+11], dl
  000e0	8a 50 0c	 mov	 dl, BYTE PTR [eax+12]
  000e3	84 d2		 test	 dl, dl
  000e5	0f 84 ad 00 00
	00		 je	 $LN84@LoadInt_e@2
  000eb	80 f2 ed	 xor	 dl, -19			; ffffffedH
  000ee	88 55 f0	 mov	 BYTE PTR __k$[ebp+12], dl
  000f1	8a 50 0d	 mov	 dl, BYTE PTR [eax+13]
  000f4	84 d2		 test	 dl, dl
  000f6	0f 84 96 00 00
	00		 je	 $LN83@LoadInt_e@2
  000fc	80 f2 ec	 xor	 dl, -20			; ffffffecH
  000ff	88 55 f1	 mov	 BYTE PTR __k$[ebp+13], dl
  00102	8a 50 0e	 mov	 dl, BYTE PTR [eax+14]
  00105	84 d2		 test	 dl, dl
  00107	0f 84 80 00 00
	00		 je	 $LN82@LoadInt_e@2
  0010d	32 d1		 xor	 dl, cl
  0010f	88 55 f2	 mov	 BYTE PTR __k$[ebp+14], dl
  00112	8a 50 0f	 mov	 dl, BYTE PTR [eax+15]
  00115	84 d2		 test	 dl, dl
  00117	74 6e		 je	 SHORT $LN81@LoadInt_e@2
  00119	80 f2 ea	 xor	 dl, -22			; ffffffeaH
  0011c	88 55 f3	 mov	 BYTE PTR __k$[ebp+15], dl
  0011f	8a 50 10	 mov	 dl, BYTE PTR [eax+16]
  00122	84 d2		 test	 dl, dl
  00124	74 5b		 je	 SHORT $LN80@LoadInt_e@2
  00126	80 f2 ed	 xor	 dl, -19			; ffffffedH
  00129	80 78 11 00	 cmp	 BYTE PTR [eax+17], 0
  0012d	88 55 f4	 mov	 BYTE PTR __k$[ebp+16], dl
  00130	0f 84 ac 00 00
	00		 je	 $LN1@LoadInt_e@2
  00136	8a 50 12	 mov	 dl, BYTE PTR [eax+18]
  00139	84 d2		 test	 dl, dl
  0013b	74 3f		 je	 SHORT $LN78@LoadInt_e@2
  0013d	32 d1		 xor	 dl, cl
  0013f	88 55 f6	 mov	 BYTE PTR __k$[ebp+18], dl
  00142	8a 50 13	 mov	 dl, BYTE PTR [eax+19]
  00145	84 d2		 test	 dl, dl
  00147	74 2d		 je	 SHORT $LN77@LoadInt_e@2
  00149	80 f2 ea	 xor	 dl, -22			; ffffffeaH
  0014c	88 55 f7	 mov	 BYTE PTR __k$[ebp+19], dl
  0014f	8a 50 14	 mov	 dl, BYTE PTR [eax+20]
  00152	84 d2		 test	 dl, dl
  00154	74 1a		 je	 SHORT $LN76@LoadInt_e@2
  00156	8a 40 15	 mov	 al, BYTE PTR [eax+21]
  00159	80 f2 ed	 xor	 dl, -19			; ffffffedH
  0015c	88 55 f8	 mov	 BYTE PTR __k$[ebp+20], dl
  0015f	84 c0		 test	 al, al
  00161	74 07		 je	 SHORT $LN75@LoadInt_e@2
  00163	34 ec		 xor	 al, -20			; ffffffecH
  00165	88 45 f9	 mov	 BYTE PTR __k$[ebp+21], al
  00168	eb 78		 jmp	 SHORT $LN1@LoadInt_e@2
$LN75@LoadInt_e@2:
  0016a	c6 45 f9 ec	 mov	 BYTE PTR __k$[ebp+21], -20 ; ffffffecH
  0016e	eb 72		 jmp	 SHORT $LN1@LoadInt_e@2
$LN76@LoadInt_e@2:
  00170	c6 45 f8 ed	 mov	 BYTE PTR __k$[ebp+20], -19 ; ffffffedH
  00174	eb 6c		 jmp	 SHORT $LN1@LoadInt_e@2
$LN77@LoadInt_e@2:
  00176	c6 45 f7 ea	 mov	 BYTE PTR __k$[ebp+19], -22 ; ffffffeaH
  0017a	eb 66		 jmp	 SHORT $LN1@LoadInt_e@2
$LN78@LoadInt_e@2:
  0017c	88 4d f6	 mov	 BYTE PTR __k$[ebp+18], cl
  0017f	eb 61		 jmp	 SHORT $LN1@LoadInt_e@2
$LN80@LoadInt_e@2:
  00181	c6 45 f4 ed	 mov	 BYTE PTR __k$[ebp+16], -19 ; ffffffedH
  00185	eb 5b		 jmp	 SHORT $LN1@LoadInt_e@2
$LN81@LoadInt_e@2:
  00187	c6 45 f3 ea	 mov	 BYTE PTR __k$[ebp+15], -22 ; ffffffeaH
  0018b	eb 55		 jmp	 SHORT $LN1@LoadInt_e@2
$LN82@LoadInt_e@2:
  0018d	88 4d f2	 mov	 BYTE PTR __k$[ebp+14], cl
  00190	eb 50		 jmp	 SHORT $LN1@LoadInt_e@2
$LN83@LoadInt_e@2:
  00192	c6 45 f1 ec	 mov	 BYTE PTR __k$[ebp+13], -20 ; ffffffecH
  00196	eb 4a		 jmp	 SHORT $LN1@LoadInt_e@2
$LN84@LoadInt_e@2:
  00198	c6 45 f0 ed	 mov	 BYTE PTR __k$[ebp+12], -19 ; ffffffedH
  0019c	eb 44		 jmp	 SHORT $LN1@LoadInt_e@2
$LN85@LoadInt_e@2:
  0019e	c6 45 ef ea	 mov	 BYTE PTR __k$[ebp+11], -22 ; ffffffeaH
  001a2	eb 3e		 jmp	 SHORT $LN1@LoadInt_e@2
$LN86@LoadInt_e@2:
  001a4	88 4d ee	 mov	 BYTE PTR __k$[ebp+10], cl
  001a7	eb 39		 jmp	 SHORT $LN1@LoadInt_e@2
$LN87@LoadInt_e@2:
  001a9	c6 45 ed ec	 mov	 BYTE PTR __k$[ebp+9], -20 ; ffffffecH
  001ad	eb 33		 jmp	 SHORT $LN1@LoadInt_e@2
$LN88@LoadInt_e@2:
  001af	c6 45 ec ed	 mov	 BYTE PTR __k$[ebp+8], -19 ; ffffffedH
  001b3	eb 2d		 jmp	 SHORT $LN1@LoadInt_e@2
$LN89@LoadInt_e@2:
  001b5	c6 45 eb ea	 mov	 BYTE PTR __k$[ebp+7], -22 ; ffffffeaH
  001b9	eb 27		 jmp	 SHORT $LN1@LoadInt_e@2
$LN90@LoadInt_e@2:
  001bb	88 4d ea	 mov	 BYTE PTR __k$[ebp+6], cl
  001be	eb 22		 jmp	 SHORT $LN1@LoadInt_e@2
$LN91@LoadInt_e@2:
  001c0	c6 45 e9 ec	 mov	 BYTE PTR __k$[ebp+5], -20 ; ffffffecH
  001c4	eb 1c		 jmp	 SHORT $LN1@LoadInt_e@2
$LN92@LoadInt_e@2:
  001c6	c6 45 e8 ed	 mov	 BYTE PTR __k$[ebp+4], -19 ; ffffffedH
  001ca	eb 16		 jmp	 SHORT $LN1@LoadInt_e@2
$LN93@LoadInt_e@2:
  001cc	c6 45 e7 ea	 mov	 BYTE PTR __k$[ebp+3], -22 ; ffffffeaH
  001d0	eb 10		 jmp	 SHORT $LN1@LoadInt_e@2
$LN94@LoadInt_e@2:
  001d2	c6 45 e6 eb	 mov	 BYTE PTR __k$[ebp+2], -21 ; ffffffebH
  001d6	eb 0a		 jmp	 SHORT $LN1@LoadInt_e@2
$LN95@LoadInt_e@2:
  001d8	c6 45 e5 ec	 mov	 BYTE PTR __k$[ebp+1], -20 ; ffffffecH
  001dc	eb 04		 jmp	 SHORT $LN1@LoadInt_e@2
$LN96@LoadInt_e@2:
  001de	c6 45 e4 ed	 mov	 BYTE PTR __k$[ebp], -19	; ffffffedH
$LN1@LoadInt_e@2:
  001e2	6a 04		 push	 4
  001e4	8d 45 e4	 lea	 eax, DWORD PTR __k$[ebp]
  001e7	c6 45 f5 00	 mov	 BYTE PTR __k$[ebp+17], 0
  001eb	5a		 pop	 edx
$LL104@LoadInt_e@2:
  001ec	81 30 ed ec eb
	ea		 xor	 DWORD PTR [eax], -353637139 ; eaebecedH
  001f2	83 c0 04	 add	 eax, 4
  001f5	4a		 dec	 edx
  001f6	75 f4		 jne	 SHORT $LL104@LoadInt_e@2

; 120  : 		return LoadInt(_k, i);

  001f8	ff 75 0c	 push	 DWORD PTR _i$[ebp]
  001fb	80 75 f4 ed	 xor	 BYTE PTR __k$[ebp+16], -19 ; ffffffedH
  001ff	8d 45 e4	 lea	 eax, DWORD PTR __k$[ebp]
  00202	50		 push	 eax
  00203	8b ce		 mov	 ecx, esi
  00205	ff 15 00 00 00
	00		 call	 DWORD PTR __imp_?LoadInt@ioINILoader@@QAEHPBDH@Z

; 121  : 	}

  0020b	8b 4d fc	 mov	 ecx, DWORD PTR __$ArrayPad$[ebp]
  0020e	33 cd		 xor	 ecx, ebp
  00210	5e		 pop	 esi
  00211	e8 00 00 00 00	 call	 @__security_check_cookie@4
  00216	c9		 leave
  00217	c2 08 00	 ret	 8
??$LoadInt_e@$0BC@@ioINILoader@@QAEHAAY0BC@$$CBDH@Z ENDP ; ioINILoader::LoadInt_e<18>
_TEXT	ENDS
PUBLIC	__$ArrayPad$
PUBLIC	??$LoadInt_e@$0P@@ioINILoader@@QAEHAAY0P@$$CBDH@Z ; ioINILoader::LoadInt_e<15>
; Function compile flags: /Ogsp
;	COMDAT ??$LoadInt_e@$0P@@ioINILoader@@QAEHAAY0P@$$CBDH@Z
_TEXT	SEGMENT
__k$ = -24						; size = 15
__$ArrayPad$ = -4					; size = 4
_k$ = 8							; size = 4
_i$ = 12						; size = 4
??$LoadInt_e@$0P@@ioINILoader@@QAEHAAY0P@$$CBDH@Z PROC	; ioINILoader::LoadInt_e<15>, COMDAT
; _this$ = ecx

; 118  : 	{

  00000	55		 push	 ebp
  00001	8b ec		 mov	 ebp, esp
  00003	83 ec 18	 sub	 esp, 24			; 00000018H
  00006	a1 00 00 00 00	 mov	 eax, DWORD PTR ___security_cookie
  0000b	33 c5		 xor	 eax, ebp
  0000d	89 45 fc	 mov	 DWORD PTR __$ArrayPad$[ebp], eax
  00010	8b 45 08	 mov	 eax, DWORD PTR _k$[ebp]

; 119  : 		_ENCSTR(k, _k);

  00013	8a 10		 mov	 dl, BYTE PTR [eax]
  00015	56		 push	 esi
  00016	8b f1		 mov	 esi, ecx
  00018	84 d2		 test	 dl, dl
  0001a	0f 84 75 01 00
	00		 je	 $LN96@LoadInt_e@3
  00020	80 f2 ed	 xor	 dl, -19			; ffffffedH
  00023	88 55 e8	 mov	 BYTE PTR __k$[ebp], dl
  00026	8a 50 01	 mov	 dl, BYTE PTR [eax+1]
  00029	84 d2		 test	 dl, dl
  0002b	0f 84 5e 01 00
	00		 je	 $LN95@LoadInt_e@3
  00031	b1 ec		 mov	 cl, -20			; ffffffecH
  00033	32 d1		 xor	 dl, cl
  00035	88 55 e9	 mov	 BYTE PTR __k$[ebp+1], dl
  00038	8a 50 02	 mov	 dl, BYTE PTR [eax+2]
  0003b	84 d2		 test	 dl, dl
  0003d	0f 84 46 01 00
	00		 je	 $LN94@LoadInt_e@3
  00043	80 f2 eb	 xor	 dl, -21			; ffffffebH
  00046	88 55 ea	 mov	 BYTE PTR __k$[ebp+2], dl
  00049	8a 50 03	 mov	 dl, BYTE PTR [eax+3]
  0004c	84 d2		 test	 dl, dl
  0004e	0f 84 2f 01 00
	00		 je	 $LN93@LoadInt_e@3
  00054	80 f2 ea	 xor	 dl, -22			; ffffffeaH
  00057	88 55 eb	 mov	 BYTE PTR __k$[ebp+3], dl
  0005a	8a 50 04	 mov	 dl, BYTE PTR [eax+4]
  0005d	84 d2		 test	 dl, dl
  0005f	0f 84 18 01 00
	00		 je	 $LN92@LoadInt_e@3
  00065	80 f2 ed	 xor	 dl, -19			; ffffffedH
  00068	88 55 ec	 mov	 BYTE PTR __k$[ebp+4], dl
  0006b	8a 50 05	 mov	 dl, BYTE PTR [eax+5]
  0006e	84 d2		 test	 dl, dl
  00070	0f 84 02 01 00
	00		 je	 $LN91@LoadInt_e@3
  00076	32 d1		 xor	 dl, cl
  00078	88 55 ed	 mov	 BYTE PTR __k$[ebp+5], dl
  0007b	8a 50 06	 mov	 dl, BYTE PTR [eax+6]
  0007e	84 d2		 test	 dl, dl
  00080	0f 84 ec 00 00
	00		 je	 $LN90@LoadInt_e@3
  00086	80 f2 eb	 xor	 dl, -21			; ffffffebH
  00089	88 55 ee	 mov	 BYTE PTR __k$[ebp+6], dl
  0008c	8a 50 07	 mov	 dl, BYTE PTR [eax+7]
  0008f	84 d2		 test	 dl, dl
  00091	0f 84 d5 00 00
	00		 je	 $LN89@LoadInt_e@3
  00097	80 f2 ea	 xor	 dl, -22			; ffffffeaH
  0009a	88 55 ef	 mov	 BYTE PTR __k$[ebp+7], dl
  0009d	8a 50 08	 mov	 dl, BYTE PTR [eax+8]
  000a0	84 d2		 test	 dl, dl
  000a2	0f 84 be 00 00
	00		 je	 $LN88@LoadInt_e@3
  000a8	80 f2 ed	 xor	 dl, -19			; ffffffedH
  000ab	88 55 f0	 mov	 BYTE PTR __k$[ebp+8], dl
  000ae	8a 50 09	 mov	 dl, BYTE PTR [eax+9]
  000b1	84 d2		 test	 dl, dl
  000b3	0f 84 a8 00 00
	00		 je	 $LN87@LoadInt_e@3
  000b9	32 d1		 xor	 dl, cl
  000bb	88 55 f1	 mov	 BYTE PTR __k$[ebp+9], dl
  000be	8a 50 0a	 mov	 dl, BYTE PTR [eax+10]
  000c1	84 d2		 test	 dl, dl
  000c3	0f 84 92 00 00
	00		 je	 $LN86@LoadInt_e@3
  000c9	80 f2 eb	 xor	 dl, -21			; ffffffebH
  000cc	88 55 f2	 mov	 BYTE PTR __k$[ebp+10], dl
  000cf	8a 50 0b	 mov	 dl, BYTE PTR [eax+11]
  000d2	84 d2		 test	 dl, dl
  000d4	74 7f		 je	 SHORT $LN85@LoadInt_e@3
  000d6	80 f2 ea	 xor	 dl, -22			; ffffffeaH
  000d9	88 55 f3	 mov	 BYTE PTR __k$[ebp+11], dl
  000dc	8a 50 0c	 mov	 dl, BYTE PTR [eax+12]
  000df	84 d2		 test	 dl, dl
  000e1	74 6c		 je	 SHORT $LN84@LoadInt_e@3
  000e3	80 f2 ed	 xor	 dl, -19			; ffffffedH
  000e6	88 55 f4	 mov	 BYTE PTR __k$[ebp+12], dl
  000e9	8a 50 0d	 mov	 dl, BYTE PTR [eax+13]
  000ec	84 d2		 test	 dl, dl
  000ee	74 5a		 je	 SHORT $LN83@LoadInt_e@3
  000f0	32 d1		 xor	 dl, cl
  000f2	80 78 0e 00	 cmp	 BYTE PTR [eax+14], 0
  000f6	88 55 f5	 mov	 BYTE PTR __k$[ebp+13], dl
  000f9	0f 84 9a 00 00
	00		 je	 $LN1@LoadInt_e@3
  000ff	8a 50 0f	 mov	 dl, BYTE PTR [eax+15]
  00102	84 d2		 test	 dl, dl
  00104	74 3e		 je	 SHORT $LN81@LoadInt_e@3
  00106	80 f2 ea	 xor	 dl, -22			; ffffffeaH
  00109	88 55 f7	 mov	 BYTE PTR __k$[ebp+15], dl
  0010c	8a 50 10	 mov	 dl, BYTE PTR [eax+16]
  0010f	84 d2		 test	 dl, dl
  00111	74 2b		 je	 SHORT $LN80@LoadInt_e@3
  00113	80 f2 ed	 xor	 dl, -19			; ffffffedH
  00116	88 55 f8	 mov	 BYTE PTR __k$[ebp+16], dl
  00119	8a 50 11	 mov	 dl, BYTE PTR [eax+17]
  0011c	84 d2		 test	 dl, dl
  0011e	74 19		 je	 SHORT $LN79@LoadInt_e@3
  00120	8a 40 12	 mov	 al, BYTE PTR [eax+18]
  00123	32 d1		 xor	 dl, cl
  00125	88 55 f9	 mov	 BYTE PTR __k$[ebp+17], dl
  00128	84 c0		 test	 al, al
  0012a	74 07		 je	 SHORT $LN78@LoadInt_e@3
  0012c	34 eb		 xor	 al, -21			; ffffffebH
  0012e	88 45 fa	 mov	 BYTE PTR __k$[ebp+18], al
  00131	eb 66		 jmp	 SHORT $LN1@LoadInt_e@3
$LN78@LoadInt_e@3:
  00133	c6 45 fa eb	 mov	 BYTE PTR __k$[ebp+18], -21 ; ffffffebH
  00137	eb 60		 jmp	 SHORT $LN1@LoadInt_e@3
$LN79@LoadInt_e@3:
  00139	88 4d f9	 mov	 BYTE PTR __k$[ebp+17], cl
  0013c	eb 5b		 jmp	 SHORT $LN1@LoadInt_e@3
$LN80@LoadInt_e@3:
  0013e	c6 45 f8 ed	 mov	 BYTE PTR __k$[ebp+16], -19 ; ffffffedH
  00142	eb 55		 jmp	 SHORT $LN1@LoadInt_e@3
$LN81@LoadInt_e@3:
  00144	c6 45 f7 ea	 mov	 BYTE PTR __k$[ebp+15], -22 ; ffffffeaH
  00148	eb 4f		 jmp	 SHORT $LN1@LoadInt_e@3
$LN83@LoadInt_e@3:
  0014a	88 4d f5	 mov	 BYTE PTR __k$[ebp+13], cl
  0014d	eb 4a		 jmp	 SHORT $LN1@LoadInt_e@3
$LN84@LoadInt_e@3:
  0014f	c6 45 f4 ed	 mov	 BYTE PTR __k$[ebp+12], -19 ; ffffffedH
  00153	eb 44		 jmp	 SHORT $LN1@LoadInt_e@3
$LN85@LoadInt_e@3:
  00155	c6 45 f3 ea	 mov	 BYTE PTR __k$[ebp+11], -22 ; ffffffeaH
  00159	eb 3e		 jmp	 SHORT $LN1@LoadInt_e@3
$LN86@LoadInt_e@3:
  0015b	c6 45 f2 eb	 mov	 BYTE PTR __k$[ebp+10], -21 ; ffffffebH
  0015f	eb 38		 jmp	 SHORT $LN1@LoadInt_e@3
$LN87@LoadInt_e@3:
  00161	88 4d f1	 mov	 BYTE PTR __k$[ebp+9], cl
  00164	eb 33		 jmp	 SHORT $LN1@LoadInt_e@3
$LN88@LoadInt_e@3:
  00166	c6 45 f0 ed	 mov	 BYTE PTR __k$[ebp+8], -19 ; ffffffedH
  0016a	eb 2d		 jmp	 SHORT $LN1@LoadInt_e@3
$LN89@LoadInt_e@3:
  0016c	c6 45 ef ea	 mov	 BYTE PTR __k$[ebp+7], -22 ; ffffffeaH
  00170	eb 27		 jmp	 SHORT $LN1@LoadInt_e@3
$LN90@LoadInt_e@3:
  00172	c6 45 ee eb	 mov	 BYTE PTR __k$[ebp+6], -21 ; ffffffebH
  00176	eb 21		 jmp	 SHORT $LN1@LoadInt_e@3
$LN91@LoadInt_e@3:
  00178	88 4d ed	 mov	 BYTE PTR __k$[ebp+5], cl
  0017b	eb 1c		 jmp	 SHORT $LN1@LoadInt_e@3
$LN92@LoadInt_e@3:
  0017d	c6 45 ec ed	 mov	 BYTE PTR __k$[ebp+4], -19 ; ffffffedH
  00181	eb 16		 jmp	 SHORT $LN1@LoadInt_e@3
$LN93@LoadInt_e@3:
  00183	c6 45 eb ea	 mov	 BYTE PTR __k$[ebp+3], -22 ; ffffffeaH
  00187	eb 10		 jmp	 SHORT $LN1@LoadInt_e@3
$LN94@LoadInt_e@3:
  00189	c6 45 ea eb	 mov	 BYTE PTR __k$[ebp+2], -21 ; ffffffebH
  0018d	eb 0a		 jmp	 SHORT $LN1@LoadInt_e@3
$LN95@LoadInt_e@3:
  0018f	c6 45 e9 ec	 mov	 BYTE PTR __k$[ebp+1], -20 ; ffffffecH
  00193	eb 04		 jmp	 SHORT $LN1@LoadInt_e@3
$LN96@LoadInt_e@3:
  00195	c6 45 e8 ed	 mov	 BYTE PTR __k$[ebp], -19	; ffffffedH
$LN1@LoadInt_e@3:
  00199	6a 03		 push	 3
  0019b	8d 45 e8	 lea	 eax, DWORD PTR __k$[ebp]
  0019e	c6 45 f6 00	 mov	 BYTE PTR __k$[ebp+14], 0
  001a2	5a		 pop	 edx
$LL104@LoadInt_e@3:
  001a3	81 30 ed ec eb
	ea		 xor	 DWORD PTR [eax], -353637139 ; eaebecedH
  001a9	83 c0 04	 add	 eax, 4
  001ac	4a		 dec	 edx
  001ad	75 f4		 jne	 SHORT $LL104@LoadInt_e@3
  001af	6a 0c		 push	 12			; 0000000cH
  001b1	58		 pop	 eax
$LL101@LoadInt_e@3:
  001b2	8b c8		 mov	 ecx, eax
  001b4	81 e1 03 00 00
	80		 and	 ecx, -2147483645	; 80000003H
  001ba	79 05		 jns	 SHORT $LN111@LoadInt_e@3
  001bc	49		 dec	 ecx
  001bd	83 c9 fc	 or	 ecx, -4			; fffffffcH
  001c0	41		 inc	 ecx
$LN111@LoadInt_e@3:
  001c1	b2 ed		 mov	 dl, -19			; ffffffedH
  001c3	2a d1		 sub	 dl, cl
  001c5	30 54 05 e8	 xor	 BYTE PTR __k$[ebp+eax], dl
  001c9	40		 inc	 eax
  001ca	83 f8 0e	 cmp	 eax, 14			; 0000000eH
  001cd	7c e3		 jl	 SHORT $LL101@LoadInt_e@3

; 120  : 		return LoadInt(_k, i);

  001cf	ff 75 0c	 push	 DWORD PTR _i$[ebp]
  001d2	8d 45 e8	 lea	 eax, DWORD PTR __k$[ebp]
  001d5	50		 push	 eax
  001d6	8b ce		 mov	 ecx, esi
  001d8	ff 15 00 00 00
	00		 call	 DWORD PTR __imp_?LoadInt@ioINILoader@@QAEHPBDH@Z

; 121  : 	}

  001de	8b 4d fc	 mov	 ecx, DWORD PTR __$ArrayPad$[ebp]
  001e1	33 cd		 xor	 ecx, ebp
  001e3	5e		 pop	 esi
  001e4	e8 00 00 00 00	 call	 @__security_check_cookie@4
  001e9	c9		 leave
  001ea	c2 08 00	 ret	 8
??$LoadInt_e@$0P@@ioINILoader@@QAEHAAY0P@$$CBDH@Z ENDP	; ioINILoader::LoadInt_e<15>
_TEXT	ENDS
PUBLIC	??$GetAnimationEventTime_e@$06@ioEntityGroup@@QAEMHAAY06$$CBD@Z ; ioEntityGroup::GetAnimationEventTime_e<7>
EXTRN	__imp_?GetAnimationEventTime@ioEntityGroup@@QAEMHABVioHashString@@@Z:PROC
EXTRN	__imp_??0ioHashString@@QAE@PBD@Z:PROC
EXTRN	__EH_epilog3_GS:PROC
EXTRN	__EH_prolog3_GS:PROC
;	COMDAT xdata$x
; File d:\lost saga for developer\youtube\tutorial\source\src\lsclient\stringprotect.h
xdata$x	SEGMENT
__unwindtable$??$GetAnimationEventTime_e@$06@ioEntityGroup@@QAEMHAAY06$$CBD@Z DD 0ffffffffH
	DD	FLAT:__unwindfunclet$??$GetAnimationEventTime_e@$06@ioEntityGroup@@QAEMHAAY06$$CBD@Z$0
__ehfuncinfo$??$GetAnimationEventTime_e@$06@ioEntityGroup@@QAEMHAAY06$$CBD@Z DD 019930522H
	DD	01H
	DD	FLAT:__unwindtable$??$GetAnimationEventTime_e@$06@ioEntityGroup@@QAEMHAAY06$$CBD@Z
	DD	2 DUP(00H)
	DD	2 DUP(00H)
	DD	00H
	DD	01H
; Function compile flags: /Ogsp
; File d:\lost saga for developer\youtube\tutorial\source\src\io3dengine\ioentitygroup.h
xdata$x	ENDS
;	COMDAT ??$GetAnimationEventTime_e@$06@ioEntityGroup@@QAEMHAAY06$$CBD@Z
_TEXT	SEGMENT
$T574469 = -48						; size = 16
$T574468 = -32						; size = 4
_szEncEventType$ = -28					; size = 7
__$EHRec$ = -12						; size = 12
_id$ = 8						; size = 4
_szEventType$ = 12					; size = 4
??$GetAnimationEventTime_e@$06@ioEntityGroup@@QAEMHAAY06$$CBD@Z PROC ; ioEntityGroup::GetAnimationEventTime_e<7>, COMDAT
; _this$ = ecx

; 414  : 	{

  00000	6a 24		 push	 36			; 00000024H
  00002	b8 00 00 00 00	 mov	 eax, __ehhandler$??$GetAnimationEventTime_e@$06@ioEntityGroup@@QAEMHAAY06$$CBD@Z
  00007	e8 00 00 00 00	 call	 __EH_prolog3_GS
  0000c	8b 45 0c	 mov	 eax, DWORD PTR _szEventType$[ebp]
  0000f	8b f1		 mov	 esi, ecx

; 415  : 		_ENCSTR(szEventType, szEncEventType);

  00011	8a 08		 mov	 cl, BYTE PTR [eax]
  00013	84 c9		 test	 cl, cl
  00015	0f 84 c0 00 00
	00		 je	 $LN96@GetAnimati
  0001b	80 f1 ed	 xor	 cl, -19			; ffffffedH
  0001e	88 4d e4	 mov	 BYTE PTR _szEncEventType$[ebp], cl
  00021	8a 48 01	 mov	 cl, BYTE PTR [eax+1]
  00024	84 c9		 test	 cl, cl
  00026	0f 84 a9 00 00
	00		 je	 $LN95@GetAnimati
  0002c	80 f1 ec	 xor	 cl, -20			; ffffffecH
  0002f	88 4d e5	 mov	 BYTE PTR _szEncEventType$[ebp+1], cl
  00032	8a 48 02	 mov	 cl, BYTE PTR [eax+2]
  00035	84 c9		 test	 cl, cl
  00037	0f 84 92 00 00
	00		 je	 $LN94@GetAnimati
  0003d	80 f1 eb	 xor	 cl, -21			; ffffffebH
  00040	88 4d e6	 mov	 BYTE PTR _szEncEventType$[ebp+2], cl
  00043	8a 48 03	 mov	 cl, BYTE PTR [eax+3]
  00046	84 c9		 test	 cl, cl
  00048	74 7f		 je	 SHORT $LN93@GetAnimati
  0004a	80 f1 ea	 xor	 cl, -22			; ffffffeaH
  0004d	88 4d e7	 mov	 BYTE PTR _szEncEventType$[ebp+3], cl
  00050	8a 48 04	 mov	 cl, BYTE PTR [eax+4]
  00053	84 c9		 test	 cl, cl
  00055	74 6c		 je	 SHORT $LN92@GetAnimati
  00057	80 f1 ed	 xor	 cl, -19			; ffffffedH
  0005a	88 4d e8	 mov	 BYTE PTR _szEncEventType$[ebp+4], cl
  0005d	8a 48 05	 mov	 cl, BYTE PTR [eax+5]
  00060	84 c9		 test	 cl, cl
  00062	74 59		 je	 SHORT $LN91@GetAnimati
  00064	80 f1 ec	 xor	 cl, -20			; ffffffecH
  00067	80 78 06 00	 cmp	 BYTE PTR [eax+6], 0
  0006b	88 4d e9	 mov	 BYTE PTR _szEncEventType$[ebp+5], cl
  0006e	74 6f		 je	 SHORT $LN1@GetAnimati
  00070	8a 48 07	 mov	 cl, BYTE PTR [eax+7]
  00073	84 c9		 test	 cl, cl
  00075	74 40		 je	 SHORT $LN89@GetAnimati
  00077	80 f1 ea	 xor	 cl, -22			; ffffffeaH
  0007a	88 4d eb	 mov	 BYTE PTR _szEncEventType$[ebp+7], cl
  0007d	8a 48 08	 mov	 cl, BYTE PTR [eax+8]
  00080	84 c9		 test	 cl, cl
  00082	74 2d		 je	 SHORT $LN88@GetAnimati
  00084	80 f1 ed	 xor	 cl, -19			; ffffffedH
  00087	88 4d ec	 mov	 BYTE PTR _szEncEventType$[ebp+8], cl
  0008a	8a 48 09	 mov	 cl, BYTE PTR [eax+9]
  0008d	84 c9		 test	 cl, cl
  0008f	74 1a		 je	 SHORT $LN87@GetAnimati
  00091	8a 40 0a	 mov	 al, BYTE PTR [eax+10]
  00094	80 f1 ec	 xor	 cl, -20			; ffffffecH
  00097	88 4d ed	 mov	 BYTE PTR _szEncEventType$[ebp+9], cl
  0009a	84 c0		 test	 al, al
  0009c	74 07		 je	 SHORT $LN86@GetAnimati
  0009e	34 eb		 xor	 al, -21			; ffffffebH
  000a0	88 45 ee	 mov	 BYTE PTR _szEncEventType$[ebp+10], al
  000a3	eb 3a		 jmp	 SHORT $LN1@GetAnimati
$LN86@GetAnimati:
  000a5	c6 45 ee eb	 mov	 BYTE PTR _szEncEventType$[ebp+10], -21 ; ffffffebH
  000a9	eb 34		 jmp	 SHORT $LN1@GetAnimati
$LN87@GetAnimati:
  000ab	c6 45 ed ec	 mov	 BYTE PTR _szEncEventType$[ebp+9], -20 ; ffffffecH
  000af	eb 2e		 jmp	 SHORT $LN1@GetAnimati
$LN88@GetAnimati:
  000b1	c6 45 ec ed	 mov	 BYTE PTR _szEncEventType$[ebp+8], -19 ; ffffffedH
  000b5	eb 28		 jmp	 SHORT $LN1@GetAnimati
$LN89@GetAnimati:
  000b7	c6 45 eb ea	 mov	 BYTE PTR _szEncEventType$[ebp+7], -22 ; ffffffeaH
  000bb	eb 22		 jmp	 SHORT $LN1@GetAnimati
$LN91@GetAnimati:
  000bd	c6 45 e9 ec	 mov	 BYTE PTR _szEncEventType$[ebp+5], -20 ; ffffffecH
  000c1	eb 1c		 jmp	 SHORT $LN1@GetAnimati
$LN92@GetAnimati:
  000c3	c6 45 e8 ed	 mov	 BYTE PTR _szEncEventType$[ebp+4], -19 ; ffffffedH
  000c7	eb 16		 jmp	 SHORT $LN1@GetAnimati
$LN93@GetAnimati:
  000c9	c6 45 e7 ea	 mov	 BYTE PTR _szEncEventType$[ebp+3], -22 ; ffffffeaH
  000cd	eb 10		 jmp	 SHORT $LN1@GetAnimati
$LN94@GetAnimati:
  000cf	c6 45 e6 eb	 mov	 BYTE PTR _szEncEventType$[ebp+2], -21 ; ffffffebH
  000d3	eb 0a		 jmp	 SHORT $LN1@GetAnimati
$LN95@GetAnimati:
  000d5	c6 45 e5 ec	 mov	 BYTE PTR _szEncEventType$[ebp+1], -20 ; ffffffecH
  000d9	eb 04		 jmp	 SHORT $LN1@GetAnimati
$LN96@GetAnimati:
  000db	c6 45 e4 ed	 mov	 BYTE PTR _szEncEventType$[ebp], -19 ; ffffffedH
$LN1@GetAnimati:
  000df	81 75 e4 ed ec
	eb ea		 xor	 DWORD PTR _szEncEventType$[ebp], -353637139 ; eaebecedH
  000e6	6a 04		 push	 4
  000e8	c6 45 ea 00	 mov	 BYTE PTR _szEncEventType$[ebp+6], 0
  000ec	58		 pop	 eax
$LL102@GetAnimati:
  000ed	8b c8		 mov	 ecx, eax
  000ef	81 e1 03 00 00
	80		 and	 ecx, -2147483645	; 80000003H
  000f5	79 05		 jns	 SHORT $LN113@GetAnimati
  000f7	49		 dec	 ecx
  000f8	83 c9 fc	 or	 ecx, -4			; fffffffcH
  000fb	41		 inc	 ecx
$LN113@GetAnimati:
  000fc	b2 ed		 mov	 dl, -19			; ffffffedH
  000fe	2a d1		 sub	 dl, cl
  00100	30 54 05 e4	 xor	 BYTE PTR _szEncEventType$[ebp+eax], dl
  00104	40		 inc	 eax
  00105	83 f8 06	 cmp	 eax, 6
  00108	7c e3		 jl	 SHORT $LL102@GetAnimati

; 416  : 		return GetAnimationEventTime(id, szEncEventType);

  0010a	8d 45 e4	 lea	 eax, DWORD PTR _szEncEventType$[ebp]
  0010d	50		 push	 eax
  0010e	8d 4d d0	 lea	 ecx, DWORD PTR $T574469[ebp]
  00111	ff 15 00 00 00
	00		 call	 DWORD PTR __imp_??0ioHashString@@QAE@PBD@Z
  00117	83 65 fc 00	 and	 DWORD PTR __$EHRec$[ebp+8], 0
  0011b	8d 45 d0	 lea	 eax, DWORD PTR $T574469[ebp]
  0011e	50		 push	 eax
  0011f	ff 75 08	 push	 DWORD PTR _id$[ebp]
  00122	8b ce		 mov	 ecx, esi
  00124	ff 15 00 00 00
	00		 call	 DWORD PTR __imp_?GetAnimationEventTime@ioEntityGroup@@QAEMHABVioHashString@@@Z
  0012a	d9 5d e0	 fstp	 DWORD PTR $T574468[ebp]
  0012d	83 4d fc ff	 or	 DWORD PTR __$EHRec$[ebp+8], -1
  00131	8d 4d d0	 lea	 ecx, DWORD PTR $T574469[ebp]
  00134	ff 15 00 00 00
	00		 call	 DWORD PTR __imp_??1ioHashString@@QAE@XZ
  0013a	d9 45 e0	 fld	 DWORD PTR $T574468[ebp]

; 417  : 	}

  0013d	e8 00 00 00 00	 call	 __EH_epilog3_GS
  00142	c2 08 00	 ret	 8
_TEXT	ENDS
;	COMDAT text$x
text$x	SEGMENT
__unwindfunclet$??$GetAnimationEventTime_e@$06@ioEntityGroup@@QAEMHAAY06$$CBD@Z$0:
  00000	8d 4d d0	 lea	 ecx, DWORD PTR $T574469[ebp]
  00003	ff 25 00 00 00
	00		 jmp	 DWORD PTR __imp_??1ioHashString@@QAE@XZ
__ehhandler$??$GetAnimationEventTime_e@$06@ioEntityGroup@@QAEMHAAY06$$CBD@Z:
  00009	8b 54 24 08	 mov	 edx, DWORD PTR [esp+8]
  0000d	8d 42 0c	 lea	 eax, DWORD PTR [edx+12]
  00010	8b 4a cc	 mov	 ecx, DWORD PTR [edx-52]
  00013	33 c8		 xor	 ecx, eax
  00015	e8 00 00 00 00	 call	 @__security_check_cookie@4
  0001a	8b 4a fc	 mov	 ecx, DWORD PTR [edx-4]
  0001d	33 c8		 xor	 ecx, eax
  0001f	e8 00 00 00 00	 call	 @__security_check_cookie@4
  00024	b8 00 00 00 00	 mov	 eax, OFFSET __ehfuncinfo$??$GetAnimationEventTime_e@$06@ioEntityGroup@@QAEMHAAY06$$CBD@Z
  00029	e9 00 00 00 00	 jmp	 ___CxxFrameHandler3
text$x	ENDS
??$GetAnimationEventTime_e@$06@ioEntityGroup@@QAEMHAAY06$$CBD@Z ENDP ; ioEntityGroup::GetAnimationEventTime_e<7>
PUBLIC	??$_Cons_val@V?$allocator@UDistInfo@ioOwnerAttach5Dummy@@@std@@UDistInfo@ioOwnerAttach5Dummy@@AAU34@@std@@YAXAAV?$allocator@UDistInfo@ioOwnerAttach5Dummy@@@0@PAUDistInfo@ioOwnerAttach5Dummy@@AAU23@@Z ; std::_Cons_val<std::allocator<ioOwnerAttach5Dummy::DistInfo>,ioOwnerAttach5Dummy::DistInfo,ioOwnerAttach5Dummy::DistInfo &>
; Function compile flags: /Ogsp
; File c:\program files (x86)\microsoft visual studio 10.0\vc\include\xmemory
;	COMDAT ??$_Cons_val@V?$allocator@UDistInfo@ioOwnerAttach5Dummy@@@std@@UDistInfo@ioOwnerAttach5Dummy@@AAU34@@std@@YAXAAV?$allocator@UDistInfo@ioOwnerAttach5Dummy@@@0@PAUDistInfo@ioOwnerAttach5Dummy@@AAU23@@Z
_TEXT	SEGMENT
__Alval$ = 8						; size = 4
__Pdest$ = 12						; size = 4
__Src$ = 16						; size = 4
??$_Cons_val@V?$allocator@UDistInfo@ioOwnerAttach5Dummy@@@std@@UDistInfo@ioOwnerAttach5Dummy@@AAU34@@std@@YAXAAV?$allocator@UDistInfo@ioOwnerAttach5Dummy@@@0@PAUDistInfo@ioOwnerAttach5Dummy@@AAU23@@Z PROC ; std::_Cons_val<std::allocator<ioOwnerAttach5Dummy::DistInfo>,ioOwnerAttach5Dummy::DistInfo,ioOwnerAttach5Dummy::DistInfo &>, COMDAT

; 279  : 	{	// construct using allocator

  00000	55		 push	 ebp
  00001	8b ec		 mov	 ebp, esp

; 280  : 	_Alval.construct(_Pdest, _STD forward<_Ty2>(_Src));

  00003	8b 45 0c	 mov	 eax, DWORD PTR __Pdest$[ebp]
  00006	85 c0		 test	 eax, eax
  00008	74 0d		 je	 SHORT $LN7@Cons_val
  0000a	8b 4d 10	 mov	 ecx, DWORD PTR __Src$[ebp]
  0000d	8b 11		 mov	 edx, DWORD PTR [ecx]
  0000f	89 10		 mov	 DWORD PTR [eax], edx
  00011	8b 49 04	 mov	 ecx, DWORD PTR [ecx+4]
  00014	89 48 04	 mov	 DWORD PTR [eax+4], ecx
$LN7@Cons_val:

; 281  : 	}

  00017	5d		 pop	 ebp
  00018	c3		 ret	 0
??$_Cons_val@V?$allocator@UDistInfo@ioOwnerAttach5Dummy@@@std@@UDistInfo@ioOwnerAttach5Dummy@@AAU34@@std@@YAXAAV?$allocator@UDistInfo@ioOwnerAttach5Dummy@@@0@PAUDistInfo@ioOwnerAttach5Dummy@@AAU23@@Z ENDP ; std::_Cons_val<std::allocator<ioOwnerAttach5Dummy::DistInfo>,ioOwnerAttach5Dummy::DistInfo,ioOwnerAttach5Dummy::DistInfo &>
_TEXT	ENDS
PUBLIC	??$_Destroy_range@V?$allocator@PAVioBaseChar@@@std@@@std@@YAXPAPAVioBaseChar@@0AAV?$allocator@PAVioBaseChar@@@0@@Z ; std::_Destroy_range<std::allocator<ioBaseChar *> >
; Function compile flags: /Ogsp
;	COMDAT ??$_Destroy_range@V?$allocator@PAVioBaseChar@@@std@@@std@@YAXPAPAVioBaseChar@@0AAV?$allocator@PAVioBaseChar@@@0@@Z
_TEXT	SEGMENT
__First$ = 8						; size = 4
__Last$ = 12						; size = 4
__Al$ = 16						; size = 4
??$_Destroy_range@V?$allocator@PAVioBaseChar@@@std@@@std@@YAXPAPAVioBaseChar@@0AAV?$allocator@PAVioBaseChar@@@0@@Z PROC ; std::_Destroy_range<std::allocator<ioBaseChar *> >, COMDAT

; 88   : 	_Destroy_range(_First, _Last, _Al, _Ptr_cat(_First, _Last));
; 89   : 	}

  00000	c3		 ret	 0
??$_Destroy_range@V?$allocator@PAVioBaseChar@@@std@@@std@@YAXPAPAVioBaseChar@@0AAV?$allocator@PAVioBaseChar@@@0@@Z ENDP ; std::_Destroy_range<std::allocator<ioBaseChar *> >
_TEXT	ENDS
PUBLIC	?construct@?$allocator@UDistInfo@ioOwnerAttach5Dummy@@@std@@QAEXPAUDistInfo@ioOwnerAttach5Dummy@@ABU34@@Z ; std::allocator<ioOwnerAttach5Dummy::DistInfo>::construct
; Function compile flags: /Ogsp
;	COMDAT ?construct@?$allocator@UDistInfo@ioOwnerAttach5Dummy@@@std@@QAEXPAUDistInfo@ioOwnerAttach5Dummy@@ABU34@@Z
_TEXT	SEGMENT
__Ptr$ = 8						; size = 4
__Val$ = 12						; size = 4
?construct@?$allocator@UDistInfo@ioOwnerAttach5Dummy@@@std@@QAEXPAUDistInfo@ioOwnerAttach5Dummy@@ABU34@@Z PROC ; std::allocator<ioOwnerAttach5Dummy::DistInfo>::construct, COMDAT
; _this$ = ecx

; 196  : 		{	// construct object at _Ptr with value _Val

  00000	55		 push	 ebp
  00001	8b ec		 mov	 ebp, esp

; 197  : 		_Construct(_Ptr, _Val);

  00003	8b 45 08	 mov	 eax, DWORD PTR __Ptr$[ebp]
  00006	85 c0		 test	 eax, eax
  00008	74 0d		 je	 SHORT $LN5@construct@2
  0000a	8b 4d 0c	 mov	 ecx, DWORD PTR __Val$[ebp]
  0000d	8b 11		 mov	 edx, DWORD PTR [ecx]
  0000f	89 10		 mov	 DWORD PTR [eax], edx
  00011	8b 49 04	 mov	 ecx, DWORD PTR [ecx+4]
  00014	89 48 04	 mov	 DWORD PTR [eax+4], ecx
$LN5@construct@2:

; 198  : 		}

  00017	5d		 pop	 ebp
  00018	c2 08 00	 ret	 8
?construct@?$allocator@UDistInfo@ioOwnerAttach5Dummy@@@std@@QAEXPAUDistInfo@ioOwnerAttach5Dummy@@ABU34@@Z ENDP ; std::allocator<ioOwnerAttach5Dummy::DistInfo>::construct
_TEXT	ENDS
PUBLIC	??G?$_Vector_iterator@V?$_Vector_val@UDistInfo@ioOwnerAttach5Dummy@@V?$allocator@UDistInfo@ioOwnerAttach5Dummy@@@std@@@std@@@std@@QBEHABV?$_Vector_const_iterator@V?$_Vector_val@UDistInfo@ioOwnerAttach5Dummy@@V?$allocator@UDistInfo@ioOwnerAttach5Dummy@@@std@@@std@@@1@@Z ; std::_Vector_iterator<std::_Vector_val<ioOwnerAttach5Dummy::DistInfo,std::allocator<ioOwnerAttach5Dummy::DistInfo> > >::operator-
; Function compile flags: /Ogsp
; File c:\program files (x86)\microsoft visual studio 10.0\vc\include\vector
;	COMDAT ??G?$_Vector_iterator@V?$_Vector_val@UDistInfo@ioOwnerAttach5Dummy@@V?$allocator@UDistInfo@ioOwnerAttach5Dummy@@@std@@@std@@@std@@QBEHABV?$_Vector_const_iterator@V?$_Vector_val@UDistInfo@ioOwnerAttach5Dummy@@V?$allocator@UDistInfo@ioOwnerAttach5Dummy@@@std@@@std@@@1@@Z
_TEXT	SEGMENT
__Right$ = 8						; size = 4
??G?$_Vector_iterator@V?$_Vector_val@UDistInfo@ioOwnerAttach5Dummy@@V?$allocator@UDistInfo@ioOwnerAttach5Dummy@@@std@@@std@@@std@@QBEHABV?$_Vector_const_iterator@V?$_Vector_val@UDistInfo@ioOwnerAttach5Dummy@@V?$allocator@UDistInfo@ioOwnerAttach5Dummy@@@std@@@std@@@1@@Z PROC ; std::_Vector_iterator<std::_Vector_val<ioOwnerAttach5Dummy::DistInfo,std::allocator<ioOwnerAttach5Dummy::DistInfo> > >::operator-, COMDAT
; _this$ = ecx

; 380  : 		{	// return difference of iterators

  00000	55		 push	 ebp
  00001	8b ec		 mov	 ebp, esp

; 381  : 		return (*(_Mybase *)this - _Right);

  00003	8b 01		 mov	 eax, DWORD PTR [ecx]
  00005	8b 4d 08	 mov	 ecx, DWORD PTR __Right$[ebp]
  00008	2b 01		 sub	 eax, DWORD PTR [ecx]
  0000a	c1 f8 03	 sar	 eax, 3

; 382  : 		}

  0000d	5d		 pop	 ebp
  0000e	c2 04 00	 ret	 4
??G?$_Vector_iterator@V?$_Vector_val@UDistInfo@ioOwnerAttach5Dummy@@V?$allocator@UDistInfo@ioOwnerAttach5Dummy@@@std@@@std@@@std@@QBEHABV?$_Vector_const_iterator@V?$_Vector_val@UDistInfo@ioOwnerAttach5Dummy@@V?$allocator@UDistInfo@ioOwnerAttach5Dummy@@@std@@@std@@@1@@Z ENDP ; std::_Vector_iterator<std::_Vector_val<ioOwnerAttach5Dummy::DistInfo,std::allocator<ioOwnerAttach5Dummy::DistInfo> > >::operator-
_TEXT	ENDS
PUBLIC	??$_Unchecked@V?$_Vector_val@UDistInfo@ioOwnerAttach5Dummy@@V?$allocator@UDistInfo@ioOwnerAttach5Dummy@@@std@@@std@@@std@@YAPAUDistInfo@ioOwnerAttach5Dummy@@V?$_Vector_iterator@V?$_Vector_val@UDistInfo@ioOwnerAttach5Dummy@@V?$allocator@UDistInfo@ioOwnerAttach5Dummy@@@std@@@std@@@0@@Z ; std::_Unchecked<std::_Vector_val<ioOwnerAttach5Dummy::DistInfo,std::allocator<ioOwnerAttach5Dummy::DistInfo> > >
; Function compile flags: /Ogsp
;	COMDAT ??$_Unchecked@V?$_Vector_val@UDistInfo@ioOwnerAttach5Dummy@@V?$allocator@UDistInfo@ioOwnerAttach5Dummy@@@std@@@std@@@std@@YAPAUDistInfo@ioOwnerAttach5Dummy@@V?$_Vector_iterator@V?$_Vector_val@UDistInfo@ioOwnerAttach5Dummy@@V?$allocator@UDistInfo@ioOwnerAttach5Dummy@@@std@@@std@@@0@@Z
_TEXT	SEGMENT
__Iter$ = 8						; size = 4
??$_Unchecked@V?$_Vector_val@UDistInfo@ioOwnerAttach5Dummy@@V?$allocator@UDistInfo@ioOwnerAttach5Dummy@@@std@@@std@@@std@@YAPAUDistInfo@ioOwnerAttach5Dummy@@V?$_Vector_iterator@V?$_Vector_val@UDistInfo@ioOwnerAttach5Dummy@@V?$allocator@UDistInfo@ioOwnerAttach5Dummy@@@std@@@std@@@0@@Z PROC ; std::_Unchecked<std::_Vector_val<ioOwnerAttach5Dummy::DistInfo,std::allocator<ioOwnerAttach5Dummy::DistInfo> > >, COMDAT

; 393  : 	{	// convert to unchecked

  00000	55		 push	 ebp
  00001	8b ec		 mov	 ebp, esp

; 394  : 	return (_Iter._Unchecked());

  00003	8b 45 08	 mov	 eax, DWORD PTR __Iter$[ebp]

; 395  : 	}

  00006	5d		 pop	 ebp
  00007	c3		 ret	 0
??$_Unchecked@V?$_Vector_val@UDistInfo@ioOwnerAttach5Dummy@@V?$allocator@UDistInfo@ioOwnerAttach5Dummy@@@std@@@std@@@std@@YAPAUDistInfo@ioOwnerAttach5Dummy@@V?$_Vector_iterator@V?$_Vector_val@UDistInfo@ioOwnerAttach5Dummy@@V?$allocator@UDistInfo@ioOwnerAttach5Dummy@@@std@@@std@@@0@@Z ENDP ; std::_Unchecked<std::_Vector_val<ioOwnerAttach5Dummy::DistInfo,std::allocator<ioOwnerAttach5Dummy::DistInfo> > >
_TEXT	ENDS
PUBLIC	??$construct@AAVioHashString@@@?$allocator@VioHashString@@@std@@QAEXPAVioHashString@@AAV2@@Z ; std::allocator<ioHashString>::construct<ioHashString &>
;	COMDAT xdata$x
; File c:\program files (x86)\microsoft visual studio 10.0\vc\include\utility
xdata$x	SEGMENT
__unwindtable$??$construct@AAVioHashString@@@?$allocator@VioHashString@@@std@@QAEXPAVioHashString@@AAV2@@Z DD 0ffffffffH
	DD	FLAT:__unwindfunclet$??$construct@AAVioHashString@@@?$allocator@VioHashString@@@std@@QAEXPAVioHashString@@AAV2@@Z$0
__ehfuncinfo$??$construct@AAVioHashString@@@?$allocator@VioHashString@@@std@@QAEXPAVioHashString@@AAV2@@Z DD 019930522H
	DD	01H
	DD	FLAT:__unwindtable$??$construct@AAVioHashString@@@?$allocator@VioHashString@@@std@@QAEXPAVioHashString@@AAV2@@Z
	DD	2 DUP(00H)
	DD	2 DUP(00H)
	DD	00H
	DD	01H
; Function compile flags: /Ogsp
; File c:\program files (x86)\microsoft visual studio 10.0\vc\include\xmemory
xdata$x	ENDS
;	COMDAT ??$construct@AAVioHashString@@@?$allocator@VioHashString@@@std@@QAEXPAVioHashString@@AAV2@@Z
_TEXT	SEGMENT
$T574577 = -16						; size = 4
__$EHRec$ = -12						; size = 12
__Ptr$ = 8						; size = 4
__Val$ = 12						; size = 4
??$construct@AAVioHashString@@@?$allocator@VioHashString@@@std@@QAEXPAVioHashString@@AAV2@@Z PROC ; std::allocator<ioHashString>::construct<ioHashString &>, COMDAT
; _this$ = ecx

; 206  : 		void construct(pointer _Ptr, _Other&& _Val)

  00000	6a 04		 push	 4
  00002	b8 00 00 00 00	 mov	 eax, __ehhandler$??$construct@AAVioHashString@@@?$allocator@VioHashString@@@std@@QAEXPAVioHashString@@AAV2@@Z
  00007	e8 00 00 00 00	 call	 __EH_prolog3

; 207  : 		{	// construct object at _Ptr with value _Val
; 208  : 		::new ((void _FARQ *)_Ptr) _Ty(_STD forward<_Other>(_Val));

  0000c	8b 4d 08	 mov	 ecx, DWORD PTR __Ptr$[ebp]
  0000f	89 4d f0	 mov	 DWORD PTR $T574577[ebp], ecx
  00012	83 65 fc 00	 and	 DWORD PTR __$EHRec$[ebp+8], 0
  00016	85 c9		 test	 ecx, ecx
  00018	74 09		 je	 SHORT $LN3@construct@3
  0001a	ff 75 0c	 push	 DWORD PTR __Val$[ebp]
  0001d	ff 15 00 00 00
	00		 call	 DWORD PTR __imp_??0ioHashString@@QAE@ABV0@@Z
$LN3@construct@3:

; 209  : 		}

  00023	e8 00 00 00 00	 call	 __EH_epilog3
  00028	c2 08 00	 ret	 8
_TEXT	ENDS
;	COMDAT text$x
text$x	SEGMENT
__unwindfunclet$??$construct@AAVioHashString@@@?$allocator@VioHashString@@@std@@QAEXPAVioHashString@@AAV2@@Z$0:
  00000	ff 75 08	 push	 DWORD PTR __Ptr$[ebp]
  00003	ff 75 f0	 push	 DWORD PTR $T574577[ebp]
  00006	e8 00 00 00 00	 call	 ??3@YAXPAX0@Z		; operator delete
  0000b	59		 pop	 ecx
  0000c	59		 pop	 ecx
  0000d	c3		 ret	 0
__ehhandler$??$construct@AAVioHashString@@@?$allocator@VioHashString@@@std@@QAEXPAVioHashString@@AAV2@@Z:
  0000e	8b 54 24 08	 mov	 edx, DWORD PTR [esp+8]
  00012	8d 42 0c	 lea	 eax, DWORD PTR [edx+12]
  00015	8b 4a ec	 mov	 ecx, DWORD PTR [edx-20]
  00018	33 c8		 xor	 ecx, eax
  0001a	e8 00 00 00 00	 call	 @__security_check_cookie@4
  0001f	b8 00 00 00 00	 mov	 eax, OFFSET __ehfuncinfo$??$construct@AAVioHashString@@@?$allocator@VioHashString@@@std@@QAEXPAVioHashString@@AAV2@@Z
  00024	e9 00 00 00 00	 jmp	 ___CxxFrameHandler3
text$x	ENDS
??$construct@AAVioHashString@@@?$allocator@VioHashString@@@std@@QAEXPAVioHashString@@AAV2@@Z ENDP ; std::allocator<ioHashString>::construct<ioHashString &>
PUBLIC	??$_Move@PAUDistInfo@ioOwnerAttach5Dummy@@PAU12@@std@@YAPAUDistInfo@ioOwnerAttach5Dummy@@PAU12@00U_Nonscalar_ptr_iterator_tag@0@@Z ; std::_Move<ioOwnerAttach5Dummy::DistInfo *,ioOwnerAttach5Dummy::DistInfo *>
; Function compile flags: /Ogsp
; File c:\program files (x86)\microsoft visual studio 10.0\vc\include\xutility
;	COMDAT ??$_Move@PAUDistInfo@ioOwnerAttach5Dummy@@PAU12@@std@@YAPAUDistInfo@ioOwnerAttach5Dummy@@PAU12@00U_Nonscalar_ptr_iterator_tag@0@@Z
_TEXT	SEGMENT
__First$ = 8						; size = 4
__Last$ = 12						; size = 4
__Dest$ = 16						; size = 4
___formal$ = 20						; size = 1
??$_Move@PAUDistInfo@ioOwnerAttach5Dummy@@PAU12@@std@@YAPAUDistInfo@ioOwnerAttach5Dummy@@PAU12@00U_Nonscalar_ptr_iterator_tag@0@@Z PROC ; std::_Move<ioOwnerAttach5Dummy::DistInfo *,ioOwnerAttach5Dummy::DistInfo *>, COMDAT

; 2512 : 	{	// move [_First, _Last) to [_Dest, ...), arbitrary iterators

  00000	55		 push	 ebp
  00001	8b ec		 mov	 ebp, esp

; 2513 : 	for (; _First != _Last; ++_Dest, ++_First)

  00003	8b 4d 08	 mov	 ecx, DWORD PTR __First$[ebp]
  00006	8b 45 10	 mov	 eax, DWORD PTR __Dest$[ebp]
$LN11@Move:
  00009	3b 4d 0c	 cmp	 ecx, DWORD PTR __Last$[ebp]
  0000c	74 12		 je	 SHORT $LN1@Move

; 2514 : 		*_Dest = _STD move(*_First);

  0000e	8b 11		 mov	 edx, DWORD PTR [ecx]
  00010	89 10		 mov	 DWORD PTR [eax], edx
  00012	8b 51 04	 mov	 edx, DWORD PTR [ecx+4]
  00015	89 50 04	 mov	 DWORD PTR [eax+4], edx
  00018	83 c0 08	 add	 eax, 8
  0001b	83 c1 08	 add	 ecx, 8
  0001e	eb e9		 jmp	 SHORT $LN11@Move
$LN1@Move:

; 2515 : 	return (_Dest);
; 2516 : 	}

  00020	5d		 pop	 ebp
  00021	c3		 ret	 0
??$_Move@PAUDistInfo@ioOwnerAttach5Dummy@@PAU12@@std@@YAPAUDistInfo@ioOwnerAttach5Dummy@@PAU12@00U_Nonscalar_ptr_iterator_tag@0@@Z ENDP ; std::_Move<ioOwnerAttach5Dummy::DistInfo *,ioOwnerAttach5Dummy::DistInfo *>
_TEXT	ENDS
PUBLIC	?destroy@?$allocator@UDistInfo@ioOwnerAttach5Dummy@@@std@@QAEXPAUDistInfo@ioOwnerAttach5Dummy@@@Z ; std::allocator<ioOwnerAttach5Dummy::DistInfo>::destroy
; Function compile flags: /Ogsp
; File c:\program files (x86)\microsoft visual studio 10.0\vc\include\xmemory
;	COMDAT ?destroy@?$allocator@UDistInfo@ioOwnerAttach5Dummy@@@std@@QAEXPAUDistInfo@ioOwnerAttach5Dummy@@@Z
_TEXT	SEGMENT
__Ptr$ = 8						; size = 4
?destroy@?$allocator@UDistInfo@ioOwnerAttach5Dummy@@@std@@QAEXPAUDistInfo@ioOwnerAttach5Dummy@@@Z PROC ; std::allocator<ioOwnerAttach5Dummy::DistInfo>::destroy, COMDAT
; _this$ = ecx

; 213  : 		_Destroy(_Ptr);
; 214  : 		}

  00000	c2 04 00	 ret	 4
?destroy@?$allocator@UDistInfo@ioOwnerAttach5Dummy@@@std@@QAEXPAUDistInfo@ioOwnerAttach5Dummy@@@Z ENDP ; std::allocator<ioOwnerAttach5Dummy::DistInfo>::destroy
_TEXT	ENDS
PUBLIC	??$?0AAPAUDistInfo@ioOwnerAttach5Dummy@@AAPAU01@@?$pair@PAUDistInfo@ioOwnerAttach5Dummy@@PAU12@@std@@QAE@AAPAUDistInfo@ioOwnerAttach5Dummy@@0@Z ; std::pair<ioOwnerAttach5Dummy::DistInfo *,ioOwnerAttach5Dummy::DistInfo *>::pair<ioOwnerAttach5Dummy::DistInfo *,ioOwnerAttach5Dummy::DistInfo *><ioOwnerAttach5Dummy::DistInfo * &,ioOwnerAttach5Dummy::DistInfo * &>
; Function compile flags: /Ogsp
; File c:\program files (x86)\microsoft visual studio 10.0\vc\include\utility
;	COMDAT ??$?0AAPAUDistInfo@ioOwnerAttach5Dummy@@AAPAU01@@?$pair@PAUDistInfo@ioOwnerAttach5Dummy@@PAU12@@std@@QAE@AAPAUDistInfo@ioOwnerAttach5Dummy@@0@Z
_TEXT	SEGMENT
__Val1$ = 8						; size = 4
__Val2$ = 12						; size = 4
??$?0AAPAUDistInfo@ioOwnerAttach5Dummy@@AAPAU01@@?$pair@PAUDistInfo@ioOwnerAttach5Dummy@@PAU12@@std@@QAE@AAPAUDistInfo@ioOwnerAttach5Dummy@@0@Z PROC ; std::pair<ioOwnerAttach5Dummy::DistInfo *,ioOwnerAttach5Dummy::DistInfo *>::pair<ioOwnerAttach5Dummy::DistInfo *,ioOwnerAttach5Dummy::DistInfo *><ioOwnerAttach5Dummy::DistInfo * &,ioOwnerAttach5Dummy::DistInfo * &>, COMDAT
; _this$ = ecx

; 247  : 		{	// construct from moved values

  00000	55		 push	 ebp
  00001	8b ec		 mov	 ebp, esp
  00003	8b c1		 mov	 eax, ecx
  00005	8b 4d 08	 mov	 ecx, DWORD PTR __Val1$[ebp]
  00008	8b 09		 mov	 ecx, DWORD PTR [ecx]
  0000a	89 08		 mov	 DWORD PTR [eax], ecx
  0000c	8b 4d 0c	 mov	 ecx, DWORD PTR __Val2$[ebp]
  0000f	8b 09		 mov	 ecx, DWORD PTR [ecx]
  00011	89 48 04	 mov	 DWORD PTR [eax+4], ecx

; 248  : 		}

  00014	5d		 pop	 ebp
  00015	c2 08 00	 ret	 8
??$?0AAPAUDistInfo@ioOwnerAttach5Dummy@@AAPAU01@@?$pair@PAUDistInfo@ioOwnerAttach5Dummy@@PAU12@@std@@QAE@AAPAUDistInfo@ioOwnerAttach5Dummy@@0@Z ENDP ; std::pair<ioOwnerAttach5Dummy::DistInfo *,ioOwnerAttach5Dummy::DistInfo *>::pair<ioOwnerAttach5Dummy::DistInfo *,ioOwnerAttach5Dummy::DistInfo *><ioOwnerAttach5Dummy::DistInfo * &,ioOwnerAttach5Dummy::DistInfo * &>
_TEXT	ENDS
PUBLIC	?construct@?$allocator@VioHashString@@@std@@QAEXPAVioHashString@@$$QAV3@@Z ; std::allocator<ioHashString>::construct
;	COMDAT xdata$x
xdata$x	SEGMENT
__unwindtable$?construct@?$allocator@VioHashString@@@std@@QAEXPAVioHashString@@$$QAV3@@Z DD 0ffffffffH
	DD	FLAT:__unwindfunclet$?construct@?$allocator@VioHashString@@@std@@QAEXPAVioHashString@@$$QAV3@@Z$0
__ehfuncinfo$?construct@?$allocator@VioHashString@@@std@@QAEXPAVioHashString@@$$QAV3@@Z DD 019930522H
	DD	01H
	DD	FLAT:__unwindtable$?construct@?$allocator@VioHashString@@@std@@QAEXPAVioHashString@@$$QAV3@@Z
	DD	2 DUP(00H)
	DD	2 DUP(00H)
	DD	00H
	DD	01H
; Function compile flags: /Ogsp
; File c:\program files (x86)\microsoft visual studio 10.0\vc\include\xmemory
xdata$x	ENDS
;	COMDAT ?construct@?$allocator@VioHashString@@@std@@QAEXPAVioHashString@@$$QAV3@@Z
_TEXT	SEGMENT
$T574632 = -16						; size = 4
__$EHRec$ = -12						; size = 12
__Ptr$ = 8						; size = 4
__Val$ = 12						; size = 4
?construct@?$allocator@VioHashString@@@std@@QAEXPAVioHashString@@$$QAV3@@Z PROC ; std::allocator<ioHashString>::construct, COMDAT
; _this$ = ecx

; 201  : 		{	// construct object at _Ptr with value _Val

  00000	6a 04		 push	 4
  00002	b8 00 00 00 00	 mov	 eax, __ehhandler$?construct@?$allocator@VioHashString@@@std@@QAEXPAVioHashString@@$$QAV3@@Z
  00007	e8 00 00 00 00	 call	 __EH_prolog3

; 202  : 		::new ((void _FARQ *)_Ptr) _Ty(_STD forward<_Ty>(_Val));

  0000c	8b 4d 08	 mov	 ecx, DWORD PTR __Ptr$[ebp]
  0000f	89 4d f0	 mov	 DWORD PTR $T574632[ebp], ecx
  00012	83 65 fc 00	 and	 DWORD PTR __$EHRec$[ebp+8], 0
  00016	85 c9		 test	 ecx, ecx
  00018	74 09		 je	 SHORT $LN3@construct@4
  0001a	ff 75 0c	 push	 DWORD PTR __Val$[ebp]
  0001d	ff 15 00 00 00
	00		 call	 DWORD PTR __imp_??0ioHashString@@QAE@ABV0@@Z
$LN3@construct@4:

; 203  : 		}

  00023	e8 00 00 00 00	 call	 __EH_epilog3
  00028	c2 08 00	 ret	 8
_TEXT	ENDS
;	COMDAT text$x
text$x	SEGMENT
__unwindfunclet$?construct@?$allocator@VioHashString@@@std@@QAEXPAVioHashString@@$$QAV3@@Z$0:
  00000	ff 75 08	 push	 DWORD PTR __Ptr$[ebp]
  00003	ff 75 f0	 push	 DWORD PTR $T574632[ebp]
  00006	e8 00 00 00 00	 call	 ??3@YAXPAX0@Z		; operator delete
  0000b	59		 pop	 ecx
  0000c	59		 pop	 ecx
  0000d	c3		 ret	 0
__ehhandler$?construct@?$allocator@VioHashString@@@std@@QAEXPAVioHashString@@$$QAV3@@Z:
  0000e	8b 54 24 08	 mov	 edx, DWORD PTR [esp+8]
  00012	8d 42 0c	 lea	 eax, DWORD PTR [edx+12]
  00015	8b 4a ec	 mov	 ecx, DWORD PTR [edx-20]
  00018	33 c8		 xor	 ecx, eax
  0001a	e8 00 00 00 00	 call	 @__security_check_cookie@4
  0001f	b8 00 00 00 00	 mov	 eax, OFFSET __ehfuncinfo$?construct@?$allocator@VioHashString@@@std@@QAEXPAVioHashString@@$$QAV3@@Z
  00024	e9 00 00 00 00	 jmp	 ___CxxFrameHandler3
text$x	ENDS
?construct@?$allocator@VioHashString@@@std@@QAEXPAVioHashString@@$$QAV3@@Z ENDP ; std::allocator<ioHashString>::construct
PUBLIC	?construct@?$allocator@UDistInfo@ioOwnerAttach5Dummy@@@std@@QAEXPAUDistInfo@ioOwnerAttach5Dummy@@$$QAU34@@Z ; std::allocator<ioOwnerAttach5Dummy::DistInfo>::construct
; Function compile flags: /Ogsp
;	COMDAT ?construct@?$allocator@UDistInfo@ioOwnerAttach5Dummy@@@std@@QAEXPAUDistInfo@ioOwnerAttach5Dummy@@$$QAU34@@Z
_TEXT	SEGMENT
__Ptr$ = 8						; size = 4
__Val$ = 12						; size = 4
?construct@?$allocator@UDistInfo@ioOwnerAttach5Dummy@@@std@@QAEXPAUDistInfo@ioOwnerAttach5Dummy@@$$QAU34@@Z PROC ; std::allocator<ioOwnerAttach5Dummy::DistInfo>::construct, COMDAT
; _this$ = ecx

; 201  : 		{	// construct object at _Ptr with value _Val

  00000	55		 push	 ebp
  00001	8b ec		 mov	 ebp, esp

; 202  : 		::new ((void _FARQ *)_Ptr) _Ty(_STD forward<_Ty>(_Val));

  00003	8b 45 08	 mov	 eax, DWORD PTR __Ptr$[ebp]
  00006	85 c0		 test	 eax, eax
  00008	74 0d		 je	 SHORT $LN3@construct@5
  0000a	8b 4d 0c	 mov	 ecx, DWORD PTR __Val$[ebp]
  0000d	8b 11		 mov	 edx, DWORD PTR [ecx]
  0000f	89 10		 mov	 DWORD PTR [eax], edx
  00011	8b 49 04	 mov	 ecx, DWORD PTR [ecx+4]
  00014	89 48 04	 mov	 DWORD PTR [eax+4], ecx
$LN3@construct@5:

; 203  : 		}

  00017	5d		 pop	 ebp
  00018	c2 08 00	 ret	 8
?construct@?$allocator@UDistInfo@ioOwnerAttach5Dummy@@@std@@QAEXPAUDistInfo@ioOwnerAttach5Dummy@@$$QAU34@@Z ENDP ; std::allocator<ioOwnerAttach5Dummy::DistInfo>::construct
_TEXT	ENDS
PUBLIC	??$swap@UDistInfo@ioOwnerAttach5Dummy@@@std@@YAXAAUDistInfo@ioOwnerAttach5Dummy@@0@Z ; std::swap<ioOwnerAttach5Dummy::DistInfo>
; Function compile flags: /Ogsp
; File c:\program files (x86)\microsoft visual studio 10.0\vc\include\utility
;	COMDAT ??$swap@UDistInfo@ioOwnerAttach5Dummy@@@std@@YAXAAUDistInfo@ioOwnerAttach5Dummy@@0@Z
_TEXT	SEGMENT
__Left$ = 8						; size = 4
__Right$ = 12						; size = 4
??$swap@UDistInfo@ioOwnerAttach5Dummy@@@std@@YAXAAUDistInfo@ioOwnerAttach5Dummy@@0@Z PROC ; std::swap<ioOwnerAttach5Dummy::DistInfo>, COMDAT

; 101  : 	{	// exchange values stored at _Left and _Right

  00000	55		 push	 ebp
  00001	8b ec		 mov	 ebp, esp

; 102  : 	_Ty _Tmp = _Move(_Left);
; 103  : 	_Left = _Move(_Right);

  00003	8b 4d 0c	 mov	 ecx, DWORD PTR __Right$[ebp]
  00006	8b 45 08	 mov	 eax, DWORD PTR __Left$[ebp]
  00009	8b 10		 mov	 edx, DWORD PTR [eax]
  0000b	56		 push	 esi
  0000c	8b 70 04	 mov	 esi, DWORD PTR [eax+4]
  0000f	57		 push	 edi
  00010	8b 39		 mov	 edi, DWORD PTR [ecx]
  00012	89 38		 mov	 DWORD PTR [eax], edi
  00014	8b 79 04	 mov	 edi, DWORD PTR [ecx+4]
  00017	89 78 04	 mov	 DWORD PTR [eax+4], edi
  0001a	5f		 pop	 edi

; 104  : 	_Right = _Move(_Tmp);

  0001b	89 71 04	 mov	 DWORD PTR [ecx+4], esi
  0001e	89 11		 mov	 DWORD PTR [ecx], edx
  00020	5e		 pop	 esi

; 105  : 	}

  00021	5d		 pop	 ebp
  00022	c3		 ret	 0
??$swap@UDistInfo@ioOwnerAttach5Dummy@@@std@@YAXAAUDistInfo@ioOwnerAttach5Dummy@@0@Z ENDP ; std::swap<ioOwnerAttach5Dummy::DistInfo>
_TEXT	ENDS
PUBLIC	??$_Adjust_heap@PAUDistInfo@ioOwnerAttach5Dummy@@HU12@@std@@YAXPAUDistInfo@ioOwnerAttach5Dummy@@HH$$QAU12@@Z ; std::_Adjust_heap<ioOwnerAttach5Dummy::DistInfo *,int,ioOwnerAttach5Dummy::DistInfo>
; Function compile flags: /Ogsp
; File c:\program files (x86)\microsoft visual studio 10.0\vc\include\algorithm
;	COMDAT ??$_Adjust_heap@PAUDistInfo@ioOwnerAttach5Dummy@@HU12@@std@@YAXPAUDistInfo@ioOwnerAttach5Dummy@@HH$$QAU12@@Z
_TEXT	SEGMENT
__First$ = 8						; size = 4
__Hole$ = 12						; size = 4
__Bottom$ = 16						; size = 4
__Val$ = 20						; size = 4
??$_Adjust_heap@PAUDistInfo@ioOwnerAttach5Dummy@@HU12@@std@@YAXPAUDistInfo@ioOwnerAttach5Dummy@@HH$$QAU12@@Z PROC ; std::_Adjust_heap<ioOwnerAttach5Dummy::DistInfo *,int,ioOwnerAttach5Dummy::DistInfo>, COMDAT

; 2502 : 	{	// percolate _Hole to _Bottom, then push _Val, using operator<

  00000	55		 push	 ebp
  00001	8b ec		 mov	 ebp, esp

; 2503 : 	_Diff _Top = _Hole;

  00003	8b 55 0c	 mov	 edx, DWORD PTR __Hole$[ebp]

; 2504 : 	_Diff _Idx = 2 * _Hole + 2;
; 2505 : 
; 2506 : 	for (; _Idx < _Bottom; _Idx = 2 * _Idx + 2)

  00006	8b 45 08	 mov	 eax, DWORD PTR __First$[ebp]
  00009	56		 push	 esi
  0000a	8b 75 10	 mov	 esi, DWORD PTR __Bottom$[ebp]
  0000d	8d 4c 12 02	 lea	 ecx, DWORD PTR [edx+edx+2]
  00011	57		 push	 edi
  00012	8b fa		 mov	 edi, edx
  00014	3b ce		 cmp	 ecx, esi
  00016	7d 33		 jge	 SHORT $LN21@Adjust_hea
  00018	53		 push	 ebx
$LL5@Adjust_hea:

; 2507 : 		{	// move _Hole down to larger child
; 2508 : 		if (_DEBUG_LT(*(_First + _Idx), *(_First + (_Idx - 1))))

  00019	f3 0f 10 44 c8
	04		 movss	 xmm0, DWORD PTR [eax+ecx*8+4]
  0001f	f3 0f 10 4c c8
	fc		 movss	 xmm1, DWORD PTR [eax+ecx*8-4]
  00025	0f 5a c0	 cvtps2pd xmm0, xmm0
  00028	0f 5a c9	 cvtps2pd xmm1, xmm1
  0002b	66 0f 2f c8	 comisd	 xmm1, xmm0
  0002f	76 01		 jbe	 SHORT $LN2@Adjust_hea

; 2509 : 			--_Idx;

  00031	49		 dec	 ecx
$LN2@Adjust_hea:

; 2510 : 		*(_First + _Hole) = _Move(*(_First + _Idx));

  00032	8b 1c c8	 mov	 ebx, DWORD PTR [eax+ecx*8]
  00035	89 1c d0	 mov	 DWORD PTR [eax+edx*8], ebx
  00038	8b 5c c8 04	 mov	 ebx, DWORD PTR [eax+ecx*8+4]
  0003c	89 5c d0 04	 mov	 DWORD PTR [eax+edx*8+4], ebx

; 2511 : 		_Hole = _Idx;

  00040	8b d1		 mov	 edx, ecx
  00042	8d 4c 09 02	 lea	 ecx, DWORD PTR [ecx+ecx+2]
  00046	3b ce		 cmp	 ecx, esi
  00048	7c cf		 jl	 SHORT $LL5@Adjust_hea
  0004a	5b		 pop	 ebx
$LN21@Adjust_hea:

; 2512 : 		}
; 2513 : 
; 2514 : 	if (_Idx == _Bottom)

  0004b	75 12		 jne	 SHORT $LN1@Adjust_hea

; 2515 : 		{	// only child at bottom, move _Hole down to it
; 2516 : 		*(_First + _Hole) = _Move(*(_First + (_Bottom - 1)));

  0004d	8b 4c f0 f8	 mov	 ecx, DWORD PTR [eax+esi*8-8]
  00051	89 0c d0	 mov	 DWORD PTR [eax+edx*8], ecx
  00054	8b 4c f0 fc	 mov	 ecx, DWORD PTR [eax+esi*8-4]
  00058	89 4c d0 04	 mov	 DWORD PTR [eax+edx*8+4], ecx

; 2517 : 		_Hole = _Bottom - 1;

  0005c	8d 56 ff	 lea	 edx, DWORD PTR [esi-1]
$LN1@Adjust_hea:

; 2518 : 		}
; 2519 : 	_Push_heap(_First, _Hole, _Top, _Move(_Val));

  0005f	ff 75 14	 push	 DWORD PTR __Val$[ebp]
  00062	57		 push	 edi
  00063	52		 push	 edx
  00064	50		 push	 eax
  00065	e8 00 00 00 00	 call	 ??$_Push_heap@PAUDistInfo@ioOwnerAttach5Dummy@@HU12@@std@@YAXPAUDistInfo@ioOwnerAttach5Dummy@@HH$$QAU12@@Z ; std::_Push_heap<ioOwnerAttach5Dummy::DistInfo *,int,ioOwnerAttach5Dummy::DistInfo>
  0006a	83 c4 10	 add	 esp, 16			; 00000010H
  0006d	5f		 pop	 edi
  0006e	5e		 pop	 esi

; 2520 : 	}

  0006f	5d		 pop	 ebp
  00070	c3		 ret	 0
??$_Adjust_heap@PAUDistInfo@ioOwnerAttach5Dummy@@HU12@@std@@YAXPAUDistInfo@ioOwnerAttach5Dummy@@HH$$QAU12@@Z ENDP ; std::_Adjust_heap<ioOwnerAttach5Dummy::DistInfo *,int,ioOwnerAttach5Dummy::DistInfo>
_TEXT	ENDS
PUBLIC	??$_Move_backward@PAUDistInfo@ioOwnerAttach5Dummy@@PAU12@@std@@YAPAUDistInfo@ioOwnerAttach5Dummy@@PAU12@00@Z ; std::_Move_backward<ioOwnerAttach5Dummy::DistInfo *,ioOwnerAttach5Dummy::DistInfo *>
; Function compile flags: /Ogsp
; File c:\program files (x86)\microsoft visual studio 10.0\vc\include\xutility
;	COMDAT ??$_Move_backward@PAUDistInfo@ioOwnerAttach5Dummy@@PAU12@@std@@YAPAUDistInfo@ioOwnerAttach5Dummy@@PAU12@00@Z
_TEXT	SEGMENT
__Cat$574700 = -4					; size = 1
__First$ = 8						; size = 4
__Last$ = 12						; size = 4
__Dest$ = 16						; size = 4
??$_Move_backward@PAUDistInfo@ioOwnerAttach5Dummy@@PAU12@@std@@YAPAUDistInfo@ioOwnerAttach5Dummy@@PAU12@00@Z PROC ; std::_Move_backward<ioOwnerAttach5Dummy::DistInfo *,ioOwnerAttach5Dummy::DistInfo *>, COMDAT

; 2638 : 	{	// move [_First, _Last) backwards to [..., _Dest), unchecked

  00000	55		 push	 ebp
  00001	8b ec		 mov	 ebp, esp
  00003	51		 push	 ecx

; 2639 : 	return (_Move_backward(_First, _Last,
; 2640 : 		_Dest, _Ptr_cat(_First, _Dest)));

  00004	ff 75 fc	 push	 DWORD PTR __Cat$574700[ebp]
  00007	ff 75 10	 push	 DWORD PTR __Dest$[ebp]
  0000a	ff 75 0c	 push	 DWORD PTR __Last$[ebp]
  0000d	ff 75 08	 push	 DWORD PTR __First$[ebp]
  00010	e8 00 00 00 00	 call	 ??$_Move_backward@PAUDistInfo@ioOwnerAttach5Dummy@@PAU12@@std@@YAPAUDistInfo@ioOwnerAttach5Dummy@@PAU12@00U_Nonscalar_ptr_iterator_tag@0@@Z ; std::_Move_backward<ioOwnerAttach5Dummy::DistInfo *,ioOwnerAttach5Dummy::DistInfo *>
  00015	83 c4 10	 add	 esp, 16			; 00000010H

; 2641 : 	}

  00018	c9		 leave
  00019	c3		 ret	 0
??$_Move_backward@PAUDistInfo@ioOwnerAttach5Dummy@@PAU12@@std@@YAPAUDistInfo@ioOwnerAttach5Dummy@@PAU12@00@Z ENDP ; std::_Move_backward<ioOwnerAttach5Dummy::DistInfo *,ioOwnerAttach5Dummy::DistInfo *>
_TEXT	ENDS
PUBLIC	??$_Pop_heap@PAUDistInfo@ioOwnerAttach5Dummy@@HU12@@std@@YAXPAUDistInfo@ioOwnerAttach5Dummy@@00$$QAU12@PAH@Z ; std::_Pop_heap<ioOwnerAttach5Dummy::DistInfo *,int,ioOwnerAttach5Dummy::DistInfo>
; Function compile flags: /Ogsp
; File c:\program files (x86)\microsoft visual studio 10.0\vc\include\algorithm
;	COMDAT ??$_Pop_heap@PAUDistInfo@ioOwnerAttach5Dummy@@HU12@@std@@YAXPAUDistInfo@ioOwnerAttach5Dummy@@00$$QAU12@PAH@Z
_TEXT	SEGMENT
__First$ = 8						; size = 4
__Last$ = 12						; size = 4
__Dest$ = 16						; size = 4
__Val$ = 20						; size = 4
___formal$ = 24						; size = 4
??$_Pop_heap@PAUDistInfo@ioOwnerAttach5Dummy@@HU12@@std@@YAXPAUDistInfo@ioOwnerAttach5Dummy@@00$$QAU12@PAH@Z PROC ; std::_Pop_heap<ioOwnerAttach5Dummy::DistInfo *,int,ioOwnerAttach5Dummy::DistInfo>, COMDAT

; 2527 : 	{	// pop *_First to *_Dest and reheap, using operator<

  00000	55		 push	 ebp
  00001	8b ec		 mov	 ebp, esp

; 2528 : 	*_Dest = _Move(*_First);

  00003	8b 45 08	 mov	 eax, DWORD PTR __First$[ebp]
  00006	8b 10		 mov	 edx, DWORD PTR [eax]
  00008	8b 4d 10	 mov	 ecx, DWORD PTR __Dest$[ebp]

; 2529 : 	_Adjust_heap(_First, _Diff(0), _Diff(_Last - _First),
; 2530 : 		_Move(_Val));

  0000b	ff 75 14	 push	 DWORD PTR __Val$[ebp]
  0000e	89 11		 mov	 DWORD PTR [ecx], edx
  00010	8b 50 04	 mov	 edx, DWORD PTR [eax+4]
  00013	89 51 04	 mov	 DWORD PTR [ecx+4], edx
  00016	8b 4d 0c	 mov	 ecx, DWORD PTR __Last$[ebp]
  00019	2b c8		 sub	 ecx, eax
  0001b	c1 f9 03	 sar	 ecx, 3
  0001e	51		 push	 ecx
  0001f	6a 00		 push	 0
  00021	50		 push	 eax
  00022	e8 00 00 00 00	 call	 ??$_Adjust_heap@PAUDistInfo@ioOwnerAttach5Dummy@@HU12@@std@@YAXPAUDistInfo@ioOwnerAttach5Dummy@@HH$$QAU12@@Z ; std::_Adjust_heap<ioOwnerAttach5Dummy::DistInfo *,int,ioOwnerAttach5Dummy::DistInfo>
  00027	83 c4 10	 add	 esp, 16			; 00000010H

; 2531 : 	}

  0002a	5d		 pop	 ebp
  0002b	c3		 ret	 0
??$_Pop_heap@PAUDistInfo@ioOwnerAttach5Dummy@@HU12@@std@@YAXPAUDistInfo@ioOwnerAttach5Dummy@@00$$QAU12@PAH@Z ENDP ; std::_Pop_heap<ioOwnerAttach5Dummy::DistInfo *,int,ioOwnerAttach5Dummy::DistInfo>
_TEXT	ENDS
PUBLIC	??B?$CEncrypt@M@@QAEMXZ				; CEncrypt<float>::operator float
; Function compile flags: /Ogsp
; File d:\lost saga for developer\youtube\tutorial\source\src\lsclient\encryptvalue.h
;	COMDAT ??B?$CEncrypt@M@@QAEMXZ
_TEXT	SEGMENT
_value$ = -4						; size = 4
??B?$CEncrypt@M@@QAEMXZ PROC				; CEncrypt<float>::operator float, COMDAT
; _this$ = ecx

; 134  : 	{

  00000	55		 push	 ebp
  00001	8b ec		 mov	 ebp, esp
  00003	51		 push	 ecx

; 135  : 		type value;
; 136  : 		DecryptValueToPool(&value);

  00004	8d 45 fc	 lea	 eax, DWORD PTR _value$[ebp]
  00007	50		 push	 eax
  00008	e8 00 00 00 00	 call	 ?DecryptValueToPool@?$CEncrypt@M@@QAEXPAM@Z ; CEncrypt<float>::DecryptValueToPool

; 137  : 
; 138  : #ifdef _NOTUSE
; 139  : 		Debug();
; 140  : #endif
; 141  : 		return value;

  0000d	d9 45 fc	 fld	 DWORD PTR _value$[ebp]

; 142  : 	}

  00010	c9		 leave
  00011	c3		 ret	 0
??B?$CEncrypt@M@@QAEMXZ ENDP				; CEncrypt<float>::operator float
_TEXT	ENDS
PUBLIC	??4?$CEncrypt@M@@QAEMM@Z			; CEncrypt<float>::operator=
; Function compile flags: /Ogsp
;	COMDAT ??4?$CEncrypt@M@@QAEMM@Z
_TEXT	SEGMENT
_value$ = 8						; size = 4
_inValue$ = 8						; size = 4
??4?$CEncrypt@M@@QAEMM@Z PROC				; CEncrypt<float>::operator=, COMDAT
; _this$ = ecx

; 1654 : 	{	

  00000	55		 push	 ebp
  00001	8b ec		 mov	 ebp, esp

; 1655 : 		type value = inValue;

  00003	d9 45 08	 fld	 DWORD PTR _inValue$[ebp]

; 1656 : 		EncryptValueToPool((char*)&value);

  00006	8d 45 08	 lea	 eax, DWORD PTR _value$[ebp]
  00009	50		 push	 eax
  0000a	d9 5d 08	 fstp	 DWORD PTR _value$[ebp]
  0000d	e8 00 00 00 00	 call	 ?EncryptValueToPool@?$CEncrypt@M@@AAEXPBD@Z ; CEncrypt<float>::EncryptValueToPool

; 1657 : #ifdef _NOTUSE
; 1658 : 		m_value = inValue;
; 1659 : 		Debug();
; 1660 : #endif
; 1661 : 		return value;

  00012	d9 45 08	 fld	 DWORD PTR _value$[ebp]

; 1662 : 	}

  00015	5d		 pop	 ebp
  00016	c2 04 00	 ret	 4
??4?$CEncrypt@M@@QAEMM@Z ENDP				; CEncrypt<float>::operator=
_TEXT	ENDS
PUBLIC	??Z?$CEncrypt@M@@QAEAAMABM@Z			; CEncrypt<float>::operator-=
; Function compile flags: /Ogsp
;	COMDAT ??Z?$CEncrypt@M@@QAEAAMABM@Z
_TEXT	SEGMENT
_value$ = -4						; size = 4
_inValue$ = 8						; size = 4
??Z?$CEncrypt@M@@QAEAAMABM@Z PROC			; CEncrypt<float>::operator-=, COMDAT
; _this$ = ecx

; 1728 : 	{

  00000	55		 push	 ebp
  00001	8b ec		 mov	 ebp, esp
  00003	51		 push	 ecx
  00004	56		 push	 esi

; 1729 : 		type value;
; 1730 : 		DecryptValueToPool(&value);

  00005	8d 45 fc	 lea	 eax, DWORD PTR _value$[ebp]
  00008	50		 push	 eax
  00009	8b f1		 mov	 esi, ecx
  0000b	e8 00 00 00 00	 call	 ?DecryptValueToPool@?$CEncrypt@M@@QAEXPAM@Z ; CEncrypt<float>::DecryptValueToPool

; 1731 : 		value -= inValue;

  00010	8b 45 08	 mov	 eax, DWORD PTR _inValue$[ebp]
  00013	f3 0f 10 45 fc	 movss	 xmm0, DWORD PTR _value$[ebp]
  00018	f3 0f 10 08	 movss	 xmm1, DWORD PTR [eax]
  0001c	0f 5a c0	 cvtps2pd xmm0, xmm0
  0001f	0f 5a c9	 cvtps2pd xmm1, xmm1

; 1732 : 		EncryptValueToPool((char*)&value);

  00022	8d 45 fc	 lea	 eax, DWORD PTR _value$[ebp]
  00025	f2 0f 5c c1	 subsd	 xmm0, xmm1
  00029	66 0f 5a c0	 cvtpd2ps xmm0, xmm0
  0002d	50		 push	 eax
  0002e	8b ce		 mov	 ecx, esi
  00030	f3 0f 11 45 fc	 movss	 DWORD PTR _value$[ebp], xmm0
  00035	e8 00 00 00 00	 call	 ?EncryptValueToPool@?$CEncrypt@M@@AAEXPBD@Z ; CEncrypt<float>::EncryptValueToPool

; 1733 : #ifdef _NOTUSE
; 1734 : 		m_value -= inValue;
; 1735 : 		Debug();
; 1736 : #endif
; 1737 : 		return value;

  0003a	8d 45 fc	 lea	 eax, DWORD PTR _value$[ebp]
  0003d	5e		 pop	 esi

; 1738 : 	} 

  0003e	c9		 leave
  0003f	c2 04 00	 ret	 4
??Z?$CEncrypt@M@@QAEAAMABM@Z ENDP			; CEncrypt<float>::operator-=
_TEXT	ENDS
PUBLIC	??B?$CEncrypt@_N@@QAE_NXZ			; CEncrypt<bool>::operator bool
; Function compile flags: /Ogsp
;	COMDAT ??B?$CEncrypt@_N@@QAE_NXZ
_TEXT	SEGMENT
_value$ = -1						; size = 1
??B?$CEncrypt@_N@@QAE_NXZ PROC				; CEncrypt<bool>::operator bool, COMDAT
; _this$ = ecx

; 134  : 	{

  00000	55		 push	 ebp
  00001	8b ec		 mov	 ebp, esp
  00003	51		 push	 ecx

; 135  : 		type value;
; 136  : 		DecryptValueToPool(&value);

  00004	8d 45 ff	 lea	 eax, DWORD PTR _value$[ebp]
  00007	50		 push	 eax
  00008	e8 00 00 00 00	 call	 ?DecryptValueToPool@?$CEncrypt@_N@@QAEXPA_N@Z ; CEncrypt<bool>::DecryptValueToPool

; 137  : 
; 138  : #ifdef _NOTUSE
; 139  : 		Debug();
; 140  : #endif
; 141  : 		return value;

  0000d	8a 45 ff	 mov	 al, BYTE PTR _value$[ebp]

; 142  : 	}

  00010	c9		 leave
  00011	c3		 ret	 0
??B?$CEncrypt@_N@@QAE_NXZ ENDP				; CEncrypt<bool>::operator bool
_TEXT	ENDS
PUBLIC	??B?$CEncrypt@_N@@QBE_NXZ			; CEncrypt<bool>::operator bool
; Function compile flags: /Ogsp
;	COMDAT ??B?$CEncrypt@_N@@QBE_NXZ
_TEXT	SEGMENT
_value$ = -1						; size = 1
??B?$CEncrypt@_N@@QBE_NXZ PROC				; CEncrypt<bool>::operator bool, COMDAT
; _this$ = ecx

; 145  : 	{

  00000	55		 push	 ebp
  00001	8b ec		 mov	 ebp, esp
  00003	51		 push	 ecx

; 146  : 		//UJ 130829, const    --start
; 147  : 		type value;
; 148  : 		CEncrypt<type>* pThis = const_cast<CEncrypt<type>*>(this);
; 149  : 		pThis->DecryptValueToPool(&value);

  00004	8d 45 ff	 lea	 eax, DWORD PTR _value$[ebp]
  00007	50		 push	 eax
  00008	e8 00 00 00 00	 call	 ?DecryptValueToPool@?$CEncrypt@_N@@QAEXPA_N@Z ; CEncrypt<bool>::DecryptValueToPool

; 150  : 		//// const DecryptValueToPool     .
; 151  :  		//type value;
; 152  : 		//char szTempMem[MAX_ENCRYPT];
; 153  : 		//m_RC5.DecryptByte( m_MemPool, szTempMem, max(m_ValueSize, DEFAULT_ENCRYPT) );
; 154  : 		//memcpy( &value, szTempMem, m_ValueSize );
; 155  : 		//UJ --end
; 156  : 
; 157  : #ifdef _NOTUSE
; 158  : 		Debug();
; 159  : #endif
; 160  : 		return value;

  0000d	8a 45 ff	 mov	 al, BYTE PTR _value$[ebp]

; 161  : 	}

  00010	c9		 leave
  00011	c3		 ret	 0
??B?$CEncrypt@_N@@QBE_NXZ ENDP				; CEncrypt<bool>::operator bool
_TEXT	ENDS
PUBLIC	??B?$CEncrypt@W4TeamType@@@@QBE?AW4TeamType@@XZ	; CEncrypt<enum TeamType>::operator enum TeamType
; Function compile flags: /Ogsp
;	COMDAT ??B?$CEncrypt@W4TeamType@@@@QBE?AW4TeamType@@XZ
_TEXT	SEGMENT
_value$ = -4						; size = 4
??B?$CEncrypt@W4TeamType@@@@QBE?AW4TeamType@@XZ PROC	; CEncrypt<enum TeamType>::operator enum TeamType, COMDAT
; _this$ = ecx

; 145  : 	{

  00000	55		 push	 ebp
  00001	8b ec		 mov	 ebp, esp
  00003	51		 push	 ecx

; 146  : 		//UJ 130829, const    --start
; 147  : 		type value;
; 148  : 		CEncrypt<type>* pThis = const_cast<CEncrypt<type>*>(this);
; 149  : 		pThis->DecryptValueToPool(&value);

  00004	8d 45 fc	 lea	 eax, DWORD PTR _value$[ebp]
  00007	50		 push	 eax
  00008	e8 00 00 00 00	 call	 ?DecryptValueToPool@?$CEncrypt@W4TeamType@@@@QAEXPAW4TeamType@@@Z ; CEncrypt<enum TeamType>::DecryptValueToPool

; 150  : 		//// const DecryptValueToPool     .
; 151  :  		//type value;
; 152  : 		//char szTempMem[MAX_ENCRYPT];
; 153  : 		//m_RC5.DecryptByte( m_MemPool, szTempMem, max(m_ValueSize, DEFAULT_ENCRYPT) );
; 154  : 		//memcpy( &value, szTempMem, m_ValueSize );
; 155  : 		//UJ --end
; 156  : 
; 157  : #ifdef _NOTUSE
; 158  : 		Debug();
; 159  : #endif
; 160  : 		return value;

  0000d	8b 45 fc	 mov	 eax, DWORD PTR _value$[ebp]

; 161  : 	}

  00010	c9		 leave
  00011	c3		 ret	 0
??B?$CEncrypt@W4TeamType@@@@QBE?AW4TeamType@@XZ ENDP	; CEncrypt<enum TeamType>::operator enum TeamType
_TEXT	ENDS
PUBLIC	?begin@?$vector@VioHashString@@V?$allocator@VioHashString@@@std@@@std@@QAE?AV?$_Vector_iterator@V?$_Vector_val@VioHashString@@V?$allocator@VioHashString@@@std@@@std@@@2@XZ ; std::vector<ioHashString,std::allocator<ioHashString> >::begin
; Function compile flags: /Ogsp
; File c:\program files (x86)\microsoft visual studio 10.0\vc\include\vector
;	COMDAT ?begin@?$vector@VioHashString@@V?$allocator@VioHashString@@@std@@@std@@QAE?AV?$_Vector_iterator@V?$_Vector_val@VioHashString@@V?$allocator@VioHashString@@@std@@@std@@@2@XZ
_TEXT	SEGMENT
___$ReturnUdt$ = 8					; size = 4
?begin@?$vector@VioHashString@@V?$allocator@VioHashString@@@std@@@std@@QAE?AV?$_Vector_iterator@V?$_Vector_val@VioHashString@@V?$allocator@VioHashString@@@std@@@std@@@2@XZ PROC ; std::vector<ioHashString,std::allocator<ioHashString> >::begin, COMDAT
; _this$ = ecx

; 781  : 		{	// return iterator for beginning of mutable sequence

  00000	55		 push	 ebp
  00001	8b ec		 mov	 ebp, esp

; 782  : 		return (iterator(this->_Myfirst, this));

  00003	8b 09		 mov	 ecx, DWORD PTR [ecx]
  00005	8b 45 08	 mov	 eax, DWORD PTR ___$ReturnUdt$[ebp]
  00008	89 08		 mov	 DWORD PTR [eax], ecx

; 783  : 		}

  0000a	5d		 pop	 ebp
  0000b	c2 04 00	 ret	 4
?begin@?$vector@VioHashString@@V?$allocator@VioHashString@@@std@@@std@@QAE?AV?$_Vector_iterator@V?$_Vector_val@VioHashString@@V?$allocator@VioHashString@@@std@@@std@@@2@XZ ENDP ; std::vector<ioHashString,std::allocator<ioHashString> >::begin
_TEXT	ENDS
PUBLIC	?end@?$vector@VioHashString@@V?$allocator@VioHashString@@@std@@@std@@QAE?AV?$_Vector_iterator@V?$_Vector_val@VioHashString@@V?$allocator@VioHashString@@@std@@@std@@@2@XZ ; std::vector<ioHashString,std::allocator<ioHashString> >::end
; Function compile flags: /Ogsp
;	COMDAT ?end@?$vector@VioHashString@@V?$allocator@VioHashString@@@std@@@std@@QAE?AV?$_Vector_iterator@V?$_Vector_val@VioHashString@@V?$allocator@VioHashString@@@std@@@std@@@2@XZ
_TEXT	SEGMENT
___$ReturnUdt$ = 8					; size = 4
?end@?$vector@VioHashString@@V?$allocator@VioHashString@@@std@@@std@@QAE?AV?$_Vector_iterator@V?$_Vector_val@VioHashString@@V?$allocator@VioHashString@@@std@@@std@@@2@XZ PROC ; std::vector<ioHashString,std::allocator<ioHashString> >::end, COMDAT
; _this$ = ecx

; 791  : 		{	// return iterator for end of mutable sequence

  00000	55		 push	 ebp
  00001	8b ec		 mov	 ebp, esp

; 792  : 		return (iterator(this->_Mylast, this));

  00003	8b 49 04	 mov	 ecx, DWORD PTR [ecx+4]
  00006	8b 45 08	 mov	 eax, DWORD PTR ___$ReturnUdt$[ebp]
  00009	89 08		 mov	 DWORD PTR [eax], ecx

; 793  : 		}

  0000b	5d		 pop	 ebp
  0000c	c2 04 00	 ret	 4
?end@?$vector@VioHashString@@V?$allocator@VioHashString@@@std@@@std@@QAE?AV?$_Vector_iterator@V?$_Vector_val@VioHashString@@V?$allocator@VioHashString@@@std@@@std@@@2@XZ ENDP ; std::vector<ioHashString,std::allocator<ioHashString> >::end
_TEXT	ENDS
PUBLIC	??0?$_Vector_val@VioHashString@@V?$allocator@VioHashString@@@std@@@std@@QAE@V?$allocator@VioHashString@@@1@@Z ; std::_Vector_val<ioHashString,std::allocator<ioHashString> >::_Vector_val<ioHashString,std::allocator<ioHashString> >
; Function compile flags: /Ogsp
;	COMDAT ??0?$_Vector_val@VioHashString@@V?$allocator@VioHashString@@@std@@@std@@QAE@V?$allocator@VioHashString@@@1@@Z
_TEXT	SEGMENT
__Al$ = 8						; size = 1
??0?$_Vector_val@VioHashString@@V?$allocator@VioHashString@@@std@@@std@@QAE@V?$allocator@VioHashString@@@1@@Z PROC ; std::_Vector_val<ioHashString,std::allocator<ioHashString> >::_Vector_val<ioHashString,std::allocator<ioHashString> >, COMDAT
; _this$ = ecx

; 426  : 		{	// construct allocator from _Al

  00000	8b c1		 mov	 eax, ecx

; 427  : 		_Myfirst = 0;

  00002	33 c9		 xor	 ecx, ecx
  00004	89 08		 mov	 DWORD PTR [eax], ecx

; 428  : 		_Mylast = 0;

  00006	89 48 04	 mov	 DWORD PTR [eax+4], ecx

; 429  : 		_Myend = 0;

  00009	89 48 08	 mov	 DWORD PTR [eax+8], ecx

; 430  : 		}

  0000c	c2 04 00	 ret	 4
??0?$_Vector_val@VioHashString@@V?$allocator@VioHashString@@@std@@@std@@QAE@V?$allocator@VioHashString@@@1@@Z ENDP ; std::_Vector_val<ioHashString,std::allocator<ioHashString> >::_Vector_val<ioHashString,std::allocator<ioHashString> >
_TEXT	ENDS
PUBLIC	?_Make_iter@?$vector@VioHashString@@V?$allocator@VioHashString@@@std@@@std@@QBE?AV?$_Vector_iterator@V?$_Vector_val@VioHashString@@V?$allocator@VioHashString@@@std@@@std@@@2@V?$_Vector_const_iterator@V?$_Vector_val@VioHashString@@V?$allocator@VioHashString@@@std@@@std@@@2@@Z ; std::vector<ioHashString,std::allocator<ioHashString> >::_Make_iter
; Function compile flags: /Ogsp
;	COMDAT ?_Make_iter@?$vector@VioHashString@@V?$allocator@VioHashString@@@std@@@std@@QBE?AV?$_Vector_iterator@V?$_Vector_val@VioHashString@@V?$allocator@VioHashString@@@std@@@std@@@2@V?$_Vector_const_iterator@V?$_Vector_val@VioHashString@@V?$allocator@VioHashString@@@std@@@std@@@2@@Z
_TEXT	SEGMENT
___$ReturnUdt$ = 8					; size = 4
__Where$ = 12						; size = 4
?_Make_iter@?$vector@VioHashString@@V?$allocator@VioHashString@@@std@@@std@@QBE?AV?$_Vector_iterator@V?$_Vector_val@VioHashString@@V?$allocator@VioHashString@@@std@@@std@@@2@V?$_Vector_const_iterator@V?$_Vector_val@VioHashString@@V?$allocator@VioHashString@@@std@@@std@@@2@@Z PROC ; std::vector<ioHashString,std::allocator<ioHashString> >::_Make_iter, COMDAT
; _this$ = ecx

; 801  : 		{	// make iterator from const_iterator

  00000	55		 push	 ebp
  00001	8b ec		 mov	 ebp, esp

; 802  : 		return (iterator(_Where._Ptr, this));

  00003	8b 45 08	 mov	 eax, DWORD PTR ___$ReturnUdt$[ebp]
  00006	8b 4d 0c	 mov	 ecx, DWORD PTR __Where$[ebp]
  00009	89 08		 mov	 DWORD PTR [eax], ecx

; 803  : 		}

  0000b	5d		 pop	 ebp
  0000c	c2 08 00	 ret	 8
?_Make_iter@?$vector@VioHashString@@V?$allocator@VioHashString@@@std@@@std@@QBE?AV?$_Vector_iterator@V?$_Vector_val@VioHashString@@V?$allocator@VioHashString@@@std@@@std@@@2@V?$_Vector_const_iterator@V?$_Vector_val@VioHashString@@V?$allocator@VioHashString@@@std@@@std@@@2@@Z ENDP ; std::vector<ioHashString,std::allocator<ioHashString> >::_Make_iter
_TEXT	ENDS
PUBLIC	?max_size@?$vector@VioHashString@@V?$allocator@VioHashString@@@std@@@std@@QBEIXZ ; std::vector<ioHashString,std::allocator<ioHashString> >::max_size
; Function compile flags: /Ogsp
;	COMDAT ?max_size@?$vector@VioHashString@@V?$allocator@VioHashString@@@std@@@std@@QBEIXZ
_TEXT	SEGMENT
?max_size@?$vector@VioHashString@@V?$allocator@VioHashString@@@std@@@std@@QBEIXZ PROC ; std::vector<ioHashString,std::allocator<ioHashString> >::max_size, COMDAT
; _this$ = ecx

; 884  : 		return (this->_Alval.max_size());

  00000	b8 ff ff ff 0f	 mov	 eax, 268435455		; 0fffffffH

; 885  : 		}

  00005	c3		 ret	 0
?max_size@?$vector@VioHashString@@V?$allocator@VioHashString@@@std@@@std@@QBEIXZ ENDP ; std::vector<ioHashString,std::allocator<ioHashString> >::max_size
_TEXT	ENDS
PUBLIC	?allocate@?$allocator@VioHashString@@@std@@QAEPAVioHashString@@I@Z ; std::allocator<ioHashString>::allocate
; Function compile flags: /Ogsp
; File c:\program files (x86)\microsoft visual studio 10.0\vc\include\xmemory
;	COMDAT ?allocate@?$allocator@VioHashString@@@std@@QAEPAVioHashString@@I@Z
_TEXT	SEGMENT
__Count$ = 8						; size = 4
?allocate@?$allocator@VioHashString@@@std@@QAEPAVioHashString@@I@Z PROC ; std::allocator<ioHashString>::allocate, COMDAT
; _this$ = ecx

; 186  : 		{	// allocate array of _Count elements

  00000	55		 push	 ebp
  00001	8b ec		 mov	 ebp, esp

; 187  : 		return (_Allocate(_Count, (pointer)0));

  00003	6a 00		 push	 0
  00005	ff 75 08	 push	 DWORD PTR __Count$[ebp]
  00008	e8 00 00 00 00	 call	 ??$_Allocate@VioHashString@@@std@@YAPAVioHashString@@IPAV1@@Z ; std::_Allocate<ioHashString>
  0000d	59		 pop	 ecx
  0000e	59		 pop	 ecx

; 188  : 		}

  0000f	5d		 pop	 ebp
  00010	c2 04 00	 ret	 4
?allocate@?$allocator@VioHashString@@@std@@QAEPAVioHashString@@I@Z ENDP ; std::allocator<ioHashString>::allocate
_TEXT	ENDS
PUBLIC	??8?$_Vector_const_iterator@V?$_Vector_val@VioHashString@@V?$allocator@VioHashString@@@std@@@std@@@std@@QBE_NABV01@@Z ; std::_Vector_const_iterator<std::_Vector_val<ioHashString,std::allocator<ioHashString> > >::operator==
; Function compile flags: /Ogsp
; File c:\program files (x86)\microsoft visual studio 10.0\vc\include\vector
;	COMDAT ??8?$_Vector_const_iterator@V?$_Vector_val@VioHashString@@V?$allocator@VioHashString@@@std@@@std@@@std@@QBE_NABV01@@Z
_TEXT	SEGMENT
__Right$ = 8						; size = 4
??8?$_Vector_const_iterator@V?$_Vector_val@VioHashString@@V?$allocator@VioHashString@@@std@@@std@@@std@@QBE_NABV01@@Z PROC ; std::_Vector_const_iterator<std::_Vector_val<ioHashString,std::allocator<ioHashString> > >::operator==, COMDAT
; _this$ = ecx

; 201  : 		{	// test for iterator equality

  00000	55		 push	 ebp
  00001	8b ec		 mov	 ebp, esp

; 202  : 		_Compat(_Right);
; 203  : 		return (this->_Ptr == _Right._Ptr);

  00003	8b 01		 mov	 eax, DWORD PTR [ecx]
  00005	8b 4d 08	 mov	 ecx, DWORD PTR __Right$[ebp]
  00008	2b 01		 sub	 eax, DWORD PTR [ecx]
  0000a	f7 d8		 neg	 eax
  0000c	1b c0		 sbb	 eax, eax
  0000e	40		 inc	 eax

; 204  : 		}

  0000f	5d		 pop	 ebp
  00010	c2 04 00	 ret	 4
??8?$_Vector_const_iterator@V?$_Vector_val@VioHashString@@V?$allocator@VioHashString@@@std@@@std@@@std@@QBE_NABV01@@Z ENDP ; std::_Vector_const_iterator<std::_Vector_val<ioHashString,std::allocator<ioHashString> > >::operator==
_TEXT	ENDS
PUBLIC	??$_Move@PAVioHashString@@PAV1@@std@@YAPAVioHashString@@PAV1@00U_Nonscalar_ptr_iterator_tag@0@@Z ; std::_Move<ioHashString *,ioHashString *>
EXTRN	__imp_??4ioHashString@@QAEAAV0@ABV0@@Z:PROC
; Function compile flags: /Ogsp
; File c:\program files (x86)\microsoft visual studio 10.0\vc\include\xutility
;	COMDAT ??$_Move@PAVioHashString@@PAV1@@std@@YAPAVioHashString@@PAV1@00U_Nonscalar_ptr_iterator_tag@0@@Z
_TEXT	SEGMENT
__First$ = 8						; size = 4
__Last$ = 12						; size = 4
__Dest$ = 16						; size = 4
___formal$ = 20						; size = 1
??$_Move@PAVioHashString@@PAV1@@std@@YAPAVioHashString@@PAV1@00U_Nonscalar_ptr_iterator_tag@0@@Z PROC ; std::_Move<ioHashString *,ioHashString *>, COMDAT

; 2512 : 	{	// move [_First, _Last) to [_Dest, ...), arbitrary iterators

  00000	55		 push	 ebp
  00001	8b ec		 mov	 ebp, esp
  00003	56		 push	 esi

; 2513 : 	for (; _First != _Last; ++_Dest, ++_First)

  00004	8b 75 08	 mov	 esi, DWORD PTR __First$[ebp]
  00007	eb 11		 jmp	 SHORT $LN11@Move@2
$LL3@Move@2:

; 2514 : 		*_Dest = _STD move(*_First);

  00009	8b 4d 10	 mov	 ecx, DWORD PTR __Dest$[ebp]
  0000c	56		 push	 esi
  0000d	ff 15 00 00 00
	00		 call	 DWORD PTR __imp_??4ioHashString@@QAEAAV0@ABV0@@Z
  00013	83 45 10 10	 add	 DWORD PTR __Dest$[ebp], 16 ; 00000010H
  00017	83 c6 10	 add	 esi, 16			; 00000010H
$LN11@Move@2:

; 2513 : 	for (; _First != _Last; ++_Dest, ++_First)

  0001a	3b 75 0c	 cmp	 esi, DWORD PTR __Last$[ebp]
  0001d	75 ea		 jne	 SHORT $LL3@Move@2

; 2515 : 	return (_Dest);

  0001f	8b 45 10	 mov	 eax, DWORD PTR __Dest$[ebp]
  00022	5e		 pop	 esi

; 2516 : 	}

  00023	5d		 pop	 ebp
  00024	c3		 ret	 0
??$_Move@PAVioHashString@@PAV1@@std@@YAPAVioHashString@@PAV1@00U_Nonscalar_ptr_iterator_tag@0@@Z ENDP ; std::_Move<ioHashString *,ioHashString *>
_TEXT	ENDS
PUBLIC	??$_Destroy@VioHashString@@@std@@YAXPAVioHashString@@@Z ; std::_Destroy<ioHashString>
; Function compile flags: /Ogsp
; File c:\program files (x86)\microsoft visual studio 10.0\vc\include\xmemory
;	COMDAT ??$_Destroy@VioHashString@@@std@@YAXPAVioHashString@@@Z
_TEXT	SEGMENT
__Ptr$ = 8						; size = 4
??$_Destroy@VioHashString@@@std@@YAXPAVioHashString@@@Z PROC ; std::_Destroy<ioHashString>, COMDAT

; 62   : 	{	// destroy object at _Ptr

  00000	55		 push	 ebp
  00001	8b ec		 mov	 ebp, esp

; 63   : 	_Ptr->~_Ty();

  00003	8b 4d 08	 mov	 ecx, DWORD PTR __Ptr$[ebp]

; 64   : 	}

  00006	5d		 pop	 ebp

; 63   : 	_Ptr->~_Ty();

  00007	ff 25 00 00 00
	00		 jmp	 DWORD PTR __imp_??1ioHashString@@QAE@XZ
??$_Destroy@VioHashString@@@std@@YAXPAVioHashString@@@Z ENDP ; std::_Destroy<ioHashString>
_TEXT	ENDS
PUBLIC	?construct@?$allocator@VioHashString@@@std@@QAEXPAVioHashString@@ABV3@@Z ; std::allocator<ioHashString>::construct
; Function compile flags: /Ogsp
;	COMDAT ?construct@?$allocator@VioHashString@@@std@@QAEXPAVioHashString@@ABV3@@Z
_TEXT	SEGMENT
__Ptr$ = 8						; size = 4
__Val$ = 12						; size = 4
?construct@?$allocator@VioHashString@@@std@@QAEXPAVioHashString@@ABV3@@Z PROC ; std::allocator<ioHashString>::construct, COMDAT
; _this$ = ecx

; 196  : 		{	// construct object at _Ptr with value _Val

  00000	55		 push	 ebp
  00001	8b ec		 mov	 ebp, esp

; 197  : 		_Construct(_Ptr, _Val);

  00003	ff 75 0c	 push	 DWORD PTR __Val$[ebp]
  00006	ff 75 08	 push	 DWORD PTR __Ptr$[ebp]
  00009	e8 00 00 00 00	 call	 ??$_Construct@VioHashString@@ABV1@@std@@YAXPAVioHashString@@ABV1@@Z ; std::_Construct<ioHashString,ioHashString const &>
  0000e	59		 pop	 ecx
  0000f	59		 pop	 ecx

; 198  : 		}

  00010	5d		 pop	 ebp
  00011	c2 08 00	 ret	 8
?construct@?$allocator@VioHashString@@@std@@QAEXPAVioHashString@@ABV3@@Z ENDP ; std::allocator<ioHashString>::construct
_TEXT	ENDS
PUBLIC	?IsPrisonerMode@ioBaseChar@@QBE_NXZ		; ioBaseChar::IsPrisonerMode
; Function compile flags: /Ogsp
; File d:\lost saga for developer\youtube\tutorial\source\src\lsclient\iobasechar.h
;	COMDAT ?IsPrisonerMode@ioBaseChar@@QBE_NXZ
_TEXT	SEGMENT
_value$574821 = -1					; size = 1
?IsPrisonerMode@ioBaseChar@@QBE_NXZ PROC		; ioBaseChar::IsPrisonerMode, COMDAT
; _this$ = ecx

; 2130 : 	inline bool IsPrisonerMode() const { return m_bPrisonerMode; }

  00000	55		 push	 ebp
  00001	8b ec		 mov	 ebp, esp
  00003	51		 push	 ecx
  00004	8d 45 ff	 lea	 eax, DWORD PTR _value$574821[ebp]
  00007	50		 push	 eax
  00008	81 c1 cc 14 00
	00		 add	 ecx, 5324		; 000014ccH
  0000e	e8 00 00 00 00	 call	 ?DecryptValueToPool@?$CEncrypt@_N@@QAEXPA_N@Z ; CEncrypt<bool>::DecryptValueToPool
  00013	8a 45 ff	 mov	 al, BYTE PTR _value$574821[ebp]
  00016	c9		 leave
  00017	c3		 ret	 0
?IsPrisonerMode@ioBaseChar@@QBE_NXZ ENDP		; ioBaseChar::IsPrisonerMode
_TEXT	ENDS
PUBLIC	__real@41f0000000000000
PUBLIC	?SetAttackState@ioOwnerAttach5Dummy@@IAEXPAVioBaseChar@@@Z ; ioOwnerAttach5Dummy::SetAttackState
EXTRN	__imp_?GetAnimationFullTime@ioEntityGroup@@QAEMH@Z:PROC
EXTRN	__imp_?GetLoopSec@ioFrameTimer@@QBEKXZ:PROC
EXTRN	__imp_?GetSingleton@ioFrameTimer@@SAAAV1@XZ:PROC
EXTRN	__imp_?SetActionAni@ioEntityGroup@@QAE_NHMMMMMM_N0@Z:PROC
EXTRN	__ftol2:PROC
;	COMDAT __real@41f0000000000000
; File d:\lost saga for developer\youtube\tutorial\source\src\lsclient\stringprotect.h
CONST	SEGMENT
__real@41f0000000000000 DQ 041f0000000000000r	; 4.29497e+009
CONST	ENDS
;	COMDAT xdata$x
xdata$x	SEGMENT
__unwindtable$?SetAttackState@ioOwnerAttach5Dummy@@IAEXPAVioBaseChar@@@Z DD 0ffffffffH
	DD	FLAT:__unwindfunclet$?SetAttackState@ioOwnerAttach5Dummy@@IAEXPAVioBaseChar@@@Z$0
__ehfuncinfo$?SetAttackState@ioOwnerAttach5Dummy@@IAEXPAVioBaseChar@@@Z DD 019930522H
	DD	01H
	DD	FLAT:__unwindtable$?SetAttackState@ioOwnerAttach5Dummy@@IAEXPAVioBaseChar@@@Z
	DD	2 DUP(00H)
	DD	2 DUP(00H)
	DD	00H
	DD	01H
; Function compile flags: /Ogsp
; File d:\lost saga for developer\youtube\tutorial\source\src\lsclient\ioownerattach5dummy.cpp
xdata$x	ENDS
;	COMDAT ?SetAttackState@ioOwnerAttach5Dummy@@IAEXPAVioBaseChar@@@Z
_TEXT	SEGMENT
$T574869 = -56						; size = 16
_iAniID$568565 = -40					; size = 4
_fTimeRate$568567 = -36					; size = 4
tv1090 = -32						; size = 4
tv1085 = -32						; size = 4
tv1077 = -32						; size = 4
tv1074 = -32						; size = 4
tv1072 = -32						; size = 4
tv1070 = -32						; size = 4
tv1068 = -32						; size = 4
tv1048 = -32						; size = 4
tv1036 = -32						; size = 4
$T574868 = -32						; size = 4
_szEncEventType$574882 = -28				; size = 7
__$EHRec$ = -12						; size = 12
_pOwner$ = 8						; size = 4
?SetAttackState@ioOwnerAttach5Dummy@@IAEXPAVioBaseChar@@@Z PROC ; ioOwnerAttach5Dummy::SetAttackState, COMDAT
; _this$ = ecx

; 386  : {

  00000	6a 2c		 push	 44			; 0000002cH
  00002	b8 00 00 00 00	 mov	 eax, __ehhandler$?SetAttackState@ioOwnerAttach5Dummy@@IAEXPAVioBaseChar@@@Z
  00007	e8 00 00 00 00	 call	 __EH_prolog3_GS

; 387  : 	if ( !pOwner )

  0000c	83 7d 08 00	 cmp	 DWORD PTR _pOwner$[ebp], 0
  00010	8b f1		 mov	 esi, ecx
  00012	0f 84 0a 02 00
	00		 je	 $LN5@SetAttackS

; 388  : 		return;
; 389  : 
; 390  : 	if( m_AttachState == AS_Attack )

  00018	83 be ec 14 00
	00 04		 cmp	 DWORD PTR [esi+5356], 4
  0001f	0f 84 fd 01 00
	00		 je	 $LN5@SetAttackS

; 391  : 		return;
; 392  : 
; 393  : 	if( !m_szAttackAnimation.IsEmpty() )

  00025	8d be 9c 14 00
	00		 lea	 edi, DWORD PTR [esi+5276]
  0002b	8b cf		 mov	 ecx, edi
  0002d	ff 15 00 00 00
	00		 call	 DWORD PTR __imp_?IsEmpty@ioHashString@@QBE_NXZ
  00033	84 c0		 test	 al, al
  00035	0f 85 dd 01 00
	00		 jne	 $LN1@SetAttackS

; 394  : 	{
; 395  : 		int iAniID = m_pGroup->GetAnimationIdx( m_szAttackAnimation );

  0003b	8b 4e 04	 mov	 ecx, DWORD PTR [esi+4]
  0003e	57		 push	 edi
  0003f	ff 15 00 00 00
	00		 call	 DWORD PTR __imp_?GetAnimationIdx@ioEntityGroup@@QAEHABVioHashString@@@Z
  00045	89 45 d8	 mov	 DWORD PTR _iAniID$568565[ebp], eax

; 396  : 		if( iAniID != -1 )

  00048	83 f8 ff	 cmp	 eax, -1
  0004b	0f 84 c7 01 00
	00		 je	 $LN1@SetAttackS

; 397  : 		{
; 398  : 			float fTimeRate = m_fAttackAniRate;

  00051	d9 86 ac 14 00
	00		 fld	 DWORD PTR [esi+5292]
  00057	d9 5d dc	 fstp	 DWORD PTR _fTimeRate$568567[ebp]

; 399  : 
; 400  : 			m_pGroup->ClearAllActionAni( FLOAT100, true );

  0005a	b8 64 00 00 00	 mov	 eax, 100		; 00000064H
  0005f	89 45 e0	 mov	 DWORD PTR tv1090[ebp], eax
  00062	db 45 e0	 fild	 DWORD PTR tv1090[ebp]
  00065	6a 01		 push	 1
  00067	85 c0		 test	 eax, eax
  00069	79 06		 jns	 SHORT $LN131@SetAttackS
  0006b	d8 05 00 00 00
	00		 fadd	 DWORD PTR __real@4f800000
$LN131@SetAttackS:
  00071	51		 push	 ecx
  00072	8b 4e 04	 mov	 ecx, DWORD PTR [esi+4]
  00075	d9 1c 24	 fstp	 DWORD PTR [esp]
  00078	ff 15 00 00 00
	00		 call	 DWORD PTR __imp_?ClearAllActionAni@ioEntityGroup@@QAEXM_N@Z

; 401  : 			m_pGroup->ClearAllLoopAni( FLOAT100, true );

  0007e	b8 64 00 00 00	 mov	 eax, 100		; 00000064H
  00083	89 45 e0	 mov	 DWORD PTR tv1085[ebp], eax
  00086	db 45 e0	 fild	 DWORD PTR tv1085[ebp]
  00089	6a 01		 push	 1
  0008b	85 c0		 test	 eax, eax
  0008d	79 06		 jns	 SHORT $LN132@SetAttackS
  0008f	d8 05 00 00 00
	00		 fadd	 DWORD PTR __real@4f800000
$LN132@SetAttackS:
  00095	51		 push	 ecx
  00096	8b 4e 04	 mov	 ecx, DWORD PTR [esi+4]
  00099	d9 1c 24	 fstp	 DWORD PTR [esp]
  0009c	ff 15 00 00 00
	00		 call	 DWORD PTR __imp_?ClearAllLoopAni@ioEntityGroup@@QAEXM_N@Z

; 402  : 			m_pGroup->SetActionAni( iAniID, FLOAT100, FLOAT100, FLOAT1, FLOAT1/fTimeRate );

  000a2	b8 01 00 00 00	 mov	 eax, 1
  000a7	8b c8		 mov	 ecx, eax
  000a9	b8 01 00 00 00	 mov	 eax, 1
  000ae	8b d0		 mov	 edx, eax
  000b0	b8 64 00 00 00	 mov	 eax, 100		; 00000064H
  000b5	8b f8		 mov	 edi, eax
  000b7	b8 64 00 00 00	 mov	 eax, 100		; 00000064H
  000bc	0f 57 c0	 xorps	 xmm0, xmm0
  000bf	6a 01		 push	 1
  000c1	6a 00		 push	 0
  000c3	83 ec 18	 sub	 esp, 24			; 00000018H
  000c6	89 4d e0	 mov	 DWORD PTR tv1077[ebp], ecx
  000c9	db 45 e0	 fild	 DWORD PTR tv1077[ebp]
  000cc	f3 0f 11 44 24
	14		 movss	 DWORD PTR [esp+20], xmm0
  000d2	f3 0f 11 44 24
	10		 movss	 DWORD PTR [esp+16], xmm0
  000d8	85 c9		 test	 ecx, ecx
  000da	79 06		 jns	 SHORT $LN133@SetAttackS
  000dc	d8 05 00 00 00
	00		 fadd	 DWORD PTR __real@4f800000
$LN133@SetAttackS:
  000e2	d8 75 dc	 fdiv	 DWORD PTR _fTimeRate$568567[ebp]
  000e5	d9 5d e0	 fstp	 DWORD PTR tv1074[ebp]
  000e8	d9 45 e0	 fld	 DWORD PTR tv1074[ebp]
  000eb	d9 5c 24 0c	 fstp	 DWORD PTR [esp+12]
  000ef	89 55 e0	 mov	 DWORD PTR tv1072[ebp], edx
  000f2	db 45 e0	 fild	 DWORD PTR tv1072[ebp]
  000f5	85 d2		 test	 edx, edx
  000f7	79 06		 jns	 SHORT $LN134@SetAttackS
  000f9	d8 05 00 00 00
	00		 fadd	 DWORD PTR __real@4f800000
$LN134@SetAttackS:
  000ff	89 7d e0	 mov	 DWORD PTR tv1070[ebp], edi
  00102	d9 5c 24 08	 fstp	 DWORD PTR [esp+8]
  00106	db 45 e0	 fild	 DWORD PTR tv1070[ebp]
  00109	85 ff		 test	 edi, edi
  0010b	79 06		 jns	 SHORT $LN135@SetAttackS
  0010d	d8 05 00 00 00
	00		 fadd	 DWORD PTR __real@4f800000
$LN135@SetAttackS:
  00113	89 45 e0	 mov	 DWORD PTR tv1068[ebp], eax
  00116	d9 5c 24 04	 fstp	 DWORD PTR [esp+4]
  0011a	db 45 e0	 fild	 DWORD PTR tv1068[ebp]
  0011d	85 c0		 test	 eax, eax
  0011f	79 06		 jns	 SHORT $LN136@SetAttackS
  00121	d8 05 00 00 00
	00		 fadd	 DWORD PTR __real@4f800000
$LN136@SetAttackS:
  00127	8b 4e 04	 mov	 ecx, DWORD PTR [esi+4]
  0012a	d9 1c 24	 fstp	 DWORD PTR [esp]
  0012d	ff 75 d8	 push	 DWORD PTR _iAniID$568565[ebp]
  00130	ff 15 00 00 00
	00		 call	 DWORD PTR __imp_?SetActionAni@ioEntityGroup@@QAE_NHMMMMMM_N0@Z

; 403  : 
; 404  : 			DWORD dwCurTime = FRAMEGETTIME();

  00136	ff 15 00 00 00
	00		 call	 DWORD PTR __imp_?GetSingleton@ioFrameTimer@@SAAAV1@XZ
  0013c	8b c8		 mov	 ecx, eax
  0013e	ff 15 00 00 00
	00		 call	 DWORD PTR __imp_?GetLoopSec@ioFrameTimer@@QBEKXZ

; 405  : 			m_dwAttackEndTime = dwCurTime;
; 406  : 			m_dwAttackEndTime += m_pGroup->GetAnimationFullTime(iAniID) * fTimeRate;

  00144	ff 75 d8	 push	 DWORD PTR _iAniID$568565[ebp]
  00147	8b 4e 04	 mov	 ecx, DWORD PTR [esi+4]
  0014a	8b d8		 mov	 ebx, eax
  0014c	89 9e 0c 15 00
	00		 mov	 DWORD PTR [esi+5388], ebx
  00152	ff 15 00 00 00
	00		 call	 DWORD PTR __imp_?GetAnimationFullTime@ioEntityGroup@@QAEMH@Z
  00158	d8 4d dc	 fmul	 DWORD PTR _fTimeRate$568567[ebp]
  0015b	8b 86 0c 15 00
	00		 mov	 eax, DWORD PTR [esi+5388]
  00161	db 86 0c 15 00
	00		 fild	 DWORD PTR [esi+5388]
  00167	85 c0		 test	 eax, eax
  00169	79 06		 jns	 SHORT $LN137@SetAttackS
  0016b	dc 05 00 00 00
	00		 fadd	 QWORD PTR __real@41f0000000000000
$LN137@SetAttackS:
  00171	de c1		 faddp	 ST(1), ST(0)
  00173	e8 00 00 00 00	 call	 __ftol2

; 407  : 
; 408  : 			m_dwFireStart = dwCurTime;
; 409  : 			m_dwFireStart += m_pGroup->GetAnimationEventTime_e( iAniID, "fire_s" ) * fTimeRate;

  00178	6a 04		 push	 4
  0017a	89 86 0c 15 00
	00		 mov	 DWORD PTR [esi+5388], eax
  00180	89 9e 08 15 00
	00		 mov	 DWORD PTR [esi+5384], ebx
  00186	8b 5e 04	 mov	 ebx, DWORD PTR [esi+4]
  00189	c7 45 e4 8b 85
	99 8f		 mov	 DWORD PTR _szEncEventType$574882[ebp], -1885764213 ; 8f99858bH
  00190	81 75 e4 ed ec
	eb ea		 xor	 DWORD PTR _szEncEventType$574882[ebp], -353637139 ; eaebecedH
  00197	66 c7 45 e8 b2
	9f		 mov	 WORD PTR _szEncEventType$574882[ebp+4], 40882 ; 00009fb2H
  0019d	c6 45 ea 00	 mov	 BYTE PTR _szEncEventType$574882[ebp+6], 0
  001a1	58		 pop	 eax
$LL120@SetAttackS:
  001a2	8b c8		 mov	 ecx, eax
  001a4	81 e1 03 00 00
	80		 and	 ecx, -2147483645	; 80000003H
  001aa	79 05		 jns	 SHORT $LN138@SetAttackS
  001ac	49		 dec	 ecx
  001ad	83 c9 fc	 or	 ecx, -4			; fffffffcH
  001b0	41		 inc	 ecx
$LN138@SetAttackS:
  001b1	b2 ed		 mov	 dl, -19			; ffffffedH
  001b3	2a d1		 sub	 dl, cl
  001b5	30 54 05 e4	 xor	 BYTE PTR _szEncEventType$574882[ebp+eax], dl
  001b9	40		 inc	 eax
  001ba	83 f8 06	 cmp	 eax, 6
  001bd	7c e3		 jl	 SHORT $LL120@SetAttackS
  001bf	8d 45 e4	 lea	 eax, DWORD PTR _szEncEventType$574882[ebp]
  001c2	50		 push	 eax
  001c3	8d 4d c8	 lea	 ecx, DWORD PTR $T574869[ebp]
  001c6	ff 15 00 00 00
	00		 call	 DWORD PTR __imp_??0ioHashString@@QAE@PBD@Z
  001cc	83 65 fc 00	 and	 DWORD PTR __$EHRec$[ebp+8], 0
  001d0	8d 45 c8	 lea	 eax, DWORD PTR $T574869[ebp]
  001d3	50		 push	 eax
  001d4	ff 75 d8	 push	 DWORD PTR _iAniID$568565[ebp]
  001d7	8b cb		 mov	 ecx, ebx
  001d9	ff 15 00 00 00
	00		 call	 DWORD PTR __imp_?GetAnimationEventTime@ioEntityGroup@@QAEMHABVioHashString@@@Z
  001df	d9 5d e0	 fstp	 DWORD PTR $T574868[ebp]
  001e2	83 4d fc ff	 or	 DWORD PTR __$EHRec$[ebp+8], -1
  001e6	8d 4d c8	 lea	 ecx, DWORD PTR $T574869[ebp]
  001e9	ff 15 00 00 00
	00		 call	 DWORD PTR __imp_??1ioHashString@@QAE@XZ
  001ef	d9 45 e0	 fld	 DWORD PTR $T574868[ebp]
  001f2	8b 86 08 15 00
	00		 mov	 eax, DWORD PTR [esi+5384]
  001f8	d8 4d dc	 fmul	 DWORD PTR _fTimeRate$568567[ebp]
  001fb	db 86 08 15 00
	00		 fild	 DWORD PTR [esi+5384]
  00201	85 c0		 test	 eax, eax
  00203	79 06		 jns	 SHORT $LN139@SetAttackS
  00205	dc 05 00 00 00
	00		 fadd	 QWORD PTR __real@41f0000000000000
$LN139@SetAttackS:
  0020b	de c1		 faddp	 ST(1), ST(0)
  0020d	e8 00 00 00 00	 call	 __ftol2
  00212	89 86 08 15 00
	00		 mov	 DWORD PTR [esi+5384], eax
$LN1@SetAttackS:

; 410  : 		}
; 411  : 	}
; 412  : 
; 413  : 	m_AttachState = AS_Attack;

  00218	c7 86 ec 14 00
	00 04 00 00 00	 mov	 DWORD PTR [esi+5356], 4
$LN5@SetAttackS:

; 414  : }

  00222	e8 00 00 00 00	 call	 __EH_epilog3_GS
  00227	c2 04 00	 ret	 4
_TEXT	ENDS
;	COMDAT text$x
text$x	SEGMENT
__unwindfunclet$?SetAttackState@ioOwnerAttach5Dummy@@IAEXPAVioBaseChar@@@Z$0:
  00000	8d 4d c8	 lea	 ecx, DWORD PTR $T574869[ebp]
  00003	ff 25 00 00 00
	00		 jmp	 DWORD PTR __imp_??1ioHashString@@QAE@XZ
__ehhandler$?SetAttackState@ioOwnerAttach5Dummy@@IAEXPAVioBaseChar@@@Z:
  00009	8b 54 24 08	 mov	 edx, DWORD PTR [esp+8]
  0000d	8d 42 0c	 lea	 eax, DWORD PTR [edx+12]
  00010	8b 4a c4	 mov	 ecx, DWORD PTR [edx-60]
  00013	33 c8		 xor	 ecx, eax
  00015	e8 00 00 00 00	 call	 @__security_check_cookie@4
  0001a	8b 4a fc	 mov	 ecx, DWORD PTR [edx-4]
  0001d	33 c8		 xor	 ecx, eax
  0001f	e8 00 00 00 00	 call	 @__security_check_cookie@4
  00024	b8 00 00 00 00	 mov	 eax, OFFSET __ehfuncinfo$?SetAttackState@ioOwnerAttach5Dummy@@IAEXPAVioBaseChar@@@Z
  00029	e9 00 00 00 00	 jmp	 ___CxxFrameHandler3
text$x	ENDS
?SetAttackState@ioOwnerAttach5Dummy@@IAEXPAVioBaseChar@@@Z ENDP ; ioOwnerAttach5Dummy::SetAttackState
PUBLIC	?IsEnableTarget@ioOwnerAttach5Dummy@@IAE_NPAVioBaseChar@@@Z ; ioOwnerAttach5Dummy::IsEnableTarget
EXTRN	?IsApplyDownState@ioBaseChar@@QAE_N_N@Z:PROC	; ioBaseChar::IsApplyDownState
EXTRN	?IsFloatingState@ioBaseChar@@QBE_NXZ:PROC	; ioBaseChar::IsFloatingState
EXTRN	?IsEnableTarget@ioBaseChar@@QAE_N_N0@Z:PROC	; ioBaseChar::IsEnableTarget
EXTRN	?IsSystemState@ioBaseChar@@QAE_NXZ:PROC		; ioBaseChar::IsSystemState
EXTRN	?HasBuff@ioBaseChar@@QBE_NABVioHashString@@@Z:PROC ; ioBaseChar::HasBuff
EXTRN	?HasHideBuff@ioBaseChar@@QAE?B_NXZ:PROC		; ioBaseChar::HasHideBuff
; Function compile flags: /Ogsp
;	COMDAT ?IsEnableTarget@ioOwnerAttach5Dummy@@IAE_NPAVioBaseChar@@@Z
_TEXT	SEGMENT
_i$568869 = -4						; size = 4
tv295 = 8						; size = 4
_pTarget$ = 8						; size = 4
_value$575015 = 11					; size = 1
?IsEnableTarget@ioOwnerAttach5Dummy@@IAE_NPAVioBaseChar@@@Z PROC ; ioOwnerAttach5Dummy::IsEnableTarget, COMDAT
; _this$ = ecx

; 520  : {

  00000	55		 push	 ebp
  00001	8b ec		 mov	 ebp, esp
  00003	51		 push	 ecx
  00004	53		 push	 ebx

; 521  : 	if ( !pTarget || pTarget->HasHideBuff() || pTarget->IsPrisonerMode() )

  00005	8b 5d 08	 mov	 ebx, DWORD PTR _pTarget$[ebp]
  00008	56		 push	 esi
  00009	57		 push	 edi
  0000a	8b f9		 mov	 edi, ecx
  0000c	85 db		 test	 ebx, ebx
  0000e	0f 84 f0 00 00
	00		 je	 $LN17@IsEnableTa
  00014	8b cb		 mov	 ecx, ebx
  00016	e8 00 00 00 00	 call	 ?HasHideBuff@ioBaseChar@@QAE?B_NXZ ; ioBaseChar::HasHideBuff
  0001b	84 c0		 test	 al, al
  0001d	0f 85 e1 00 00
	00		 jne	 $LN17@IsEnableTa
  00023	8d 45 0b	 lea	 eax, DWORD PTR _value$575015[ebp]
  00026	50		 push	 eax
  00027	8d 8b cc 14 00
	00		 lea	 ecx, DWORD PTR [ebx+5324]
  0002d	e8 00 00 00 00	 call	 ?DecryptValueToPool@?$CEncrypt@_N@@QAEXPA_N@Z ; CEncrypt<bool>::DecryptValueToPool
  00032	80 7d 0b 00	 cmp	 BYTE PTR _value$575015[ebp], 0
  00036	0f 85 c8 00 00
	00		 jne	 $LN17@IsEnableTa

; 523  : 
; 524  : 	int nBuffCnt = m_vCheckBuffList.size();

  0003c	8b b7 d4 14 00
	00		 mov	 esi, DWORD PTR [edi+5332]
  00042	2b b7 d0 14 00
	00		 sub	 esi, DWORD PTR [edi+5328]

; 525  : 	for ( int i=0; i<nBuffCnt; i++)

  00048	83 65 fc 00	 and	 DWORD PTR _i$568869[ebp], 0
  0004c	c1 fe 04	 sar	 esi, 4
  0004f	85 f6		 test	 esi, esi
  00051	7e 29		 jle	 SHORT $LN14@IsEnableTa

; 523  : 
; 524  : 	int nBuffCnt = m_vCheckBuffList.size();

  00053	83 65 08 00	 and	 DWORD PTR tv295[ebp], 0
$LL34@IsEnableTa:

; 525  : 	for ( int i=0; i<nBuffCnt; i++)

  00057	8b 87 d0 14 00
	00		 mov	 eax, DWORD PTR [edi+5328]
  0005d	03 45 08	 add	 eax, DWORD PTR tv295[ebp]

; 526  : 	{
; 527  : 		if ( pTarget->HasBuff( m_vCheckBuffList[i] ))

  00060	8b cb		 mov	 ecx, ebx
  00062	50		 push	 eax
  00063	e8 00 00 00 00	 call	 ?HasBuff@ioBaseChar@@QBE_NABVioHashString@@@Z ; ioBaseChar::HasBuff
  00068	84 c0		 test	 al, al
  0006a	0f 85 94 00 00
	00		 jne	 $LN17@IsEnableTa

; 525  : 	for ( int i=0; i<nBuffCnt; i++)

  00070	ff 45 fc	 inc	 DWORD PTR _i$568869[ebp]
  00073	83 45 08 10	 add	 DWORD PTR tv295[ebp], 16 ; 00000010H
  00077	39 75 fc	 cmp	 DWORD PTR _i$568869[ebp], esi
  0007a	7c db		 jl	 SHORT $LL34@IsEnableTa
$LN14@IsEnableTa:

; 528  : 			return false;
; 529  : 	}
; 530  : 
; 531  : 	if( pTarget->IsSystemState() )

  0007c	8b cb		 mov	 ecx, ebx
  0007e	e8 00 00 00 00	 call	 ?IsSystemState@ioBaseChar@@QAE_NXZ ; ioBaseChar::IsSystemState
  00083	84 c0		 test	 al, al

; 532  : 		return false;

  00085	75 7d		 jne	 SHORT $LN17@IsEnableTa

; 533  : 			
; 534  : 	if( !pTarget->IsEnableTarget() )

  00087	6a 01		 push	 1
  00089	6a 01		 push	 1
  0008b	8b cb		 mov	 ecx, ebx
  0008d	e8 00 00 00 00	 call	 ?IsEnableTarget@ioBaseChar@@QAE_N_N0@Z ; ioBaseChar::IsEnableTarget
  00092	84 c0		 test	 al, al

; 535  : 		return false;

  00094	74 6e		 je	 SHORT $LN17@IsEnableTa

; 536  : 
; 537  : 	CharState eTargetState = pTarget->GetState();

  00096	8a 83 10 03 00
	00		 mov	 al, BYTE PTR [ebx+784]

; 538  : 	switch( eTargetState )

  0009c	3c 07		 cmp	 al, 7
  0009e	74 4a		 je	 SHORT $LN35@IsEnableTa
  000a0	3c 0c		 cmp	 al, 12			; 0000000cH
  000a2	74 0a		 je	 SHORT $LN8@IsEnableTa
  000a4	3c 0f		 cmp	 al, 15			; 0000000fH
  000a6	74 2c		 je	 SHORT $LN5@IsEnableTa
  000a8	3c 31		 cmp	 al, 49			; 00000031H
  000aa	74 15		 je	 SHORT $LN7@IsEnableTa
  000ac	eb 52		 jmp	 SHORT $LN1@IsEnableTa
$LN8@IsEnableTa:

; 539  : 	{
; 540  : 	case CS_BLOW_WOUNDED:
; 541  : 		{
; 542  : 			if ( !pTarget->IsFloatingState() && !m_bSetDownAim )

  000ae	8b cb		 mov	 ecx, ebx
  000b0	e8 00 00 00 00	 call	 ?IsFloatingState@ioBaseChar@@QBE_NXZ ; ioBaseChar::IsFloatingState
  000b5	84 c0		 test	 al, al
  000b7	75 08		 jne	 SHORT $LN7@IsEnableTa
  000b9	38 87 b0 14 00
	00		 cmp	 BYTE PTR [edi+5296], al

; 543  : 				return false;

  000bf	74 43		 je	 SHORT $LN17@IsEnableTa
$LN7@IsEnableTa:

; 544  : 		}
; 545  : 	case CS_BOUND_BLOW_WOUNDED:
; 546  : 		{
; 547  : 			if ( !pTarget->IsFloatingState() && !m_bSetDownAim )

  000c1	8b cb		 mov	 ecx, ebx
  000c3	e8 00 00 00 00	 call	 ?IsFloatingState@ioBaseChar@@QBE_NXZ ; ioBaseChar::IsFloatingState
  000c8	84 c0		 test	 al, al
  000ca	75 08		 jne	 SHORT $LN5@IsEnableTa
  000cc	38 87 b0 14 00
	00		 cmp	 BYTE PTR [edi+5296], al

; 548  : 				return false;

  000d2	74 30		 je	 SHORT $LN17@IsEnableTa
$LN5@IsEnableTa:

; 549  : 		}
; 550  : 	case CS_ETC_STATE:
; 551  : 		{
; 552  : 			if ( pTarget->IsApplyDownState(false) && !m_bSetDownAim )

  000d4	6a 00		 push	 0
  000d6	8b cb		 mov	 ecx, ebx
  000d8	e8 00 00 00 00	 call	 ?IsApplyDownState@ioBaseChar@@QAE_N_N@Z ; ioBaseChar::IsApplyDownState
  000dd	84 c0		 test	 al, al
  000df	74 09		 je	 SHORT $LN35@IsEnableTa
  000e1	80 bf b0 14 00
	00 00		 cmp	 BYTE PTR [edi+5296], 0

; 553  : 				return false;

  000e8	74 1a		 je	 SHORT $LN17@IsEnableTa
$LN35@IsEnableTa:

; 554  : 		}
; 555  : 	case CS_USING_SKILL:
; 556  : 		{
; 557  : 			if ( pTarget->IsApplyDownState(false) && !m_bSetDownAim )

  000ea	6a 00		 push	 0
  000ec	8b cb		 mov	 ecx, ebx
  000ee	e8 00 00 00 00	 call	 ?IsApplyDownState@ioBaseChar@@QAE_N_N@Z ; ioBaseChar::IsApplyDownState
  000f3	84 c0		 test	 al, al
  000f5	74 09		 je	 SHORT $LN1@IsEnableTa
  000f7	80 bf b0 14 00
	00 00		 cmp	 BYTE PTR [edi+5296], 0

; 558  : 				return false;

  000fe	74 04		 je	 SHORT $LN17@IsEnableTa
$LN1@IsEnableTa:

; 559  : 		}
; 560  : 	}
; 561  : 
; 562  : 	return true;

  00100	b0 01		 mov	 al, 1
  00102	eb 02		 jmp	 SHORT $LN19@IsEnableTa
$LN17@IsEnableTa:

; 522  : 		return false;

  00104	32 c0		 xor	 al, al
$LN19@IsEnableTa:
  00106	5f		 pop	 edi
  00107	5e		 pop	 esi
  00108	5b		 pop	 ebx

; 563  : }

  00109	c9		 leave
  0010a	c2 04 00	 ret	 4
?IsEnableTarget@ioOwnerAttach5Dummy@@IAE_NPAVioBaseChar@@@Z ENDP ; ioOwnerAttach5Dummy::IsEnableTarget
_TEXT	ENDS
PUBLIC	__$ArrayPad$
PUBLIC	?SetRotateToOwner@ioOwnerAttach5Dummy@@IAEXPAVioBaseChar@@@Z ; ioOwnerAttach5Dummy::SetRotateToOwner
; Function compile flags: /Ogsp
;	COMDAT ?SetRotateToOwner@ioOwnerAttach5Dummy@@IAEXPAVioBaseChar@@@Z
_TEXT	SEGMENT
_qtRot$568909 = -32					; size = 16
_vRot$568908 = -16					; size = 12
__$ArrayPad$ = -4					; size = 4
_pOwner$ = 8						; size = 4
?SetRotateToOwner@ioOwnerAttach5Dummy@@IAEXPAVioBaseChar@@@Z PROC ; ioOwnerAttach5Dummy::SetRotateToOwner, COMDAT
; _this$ = ecx

; 592  : {

  00000	55		 push	 ebp
  00001	8b ec		 mov	 ebp, esp
  00003	83 ec 20	 sub	 esp, 32			; 00000020H
  00006	a1 00 00 00 00	 mov	 eax, DWORD PTR ___security_cookie
  0000b	33 c5		 xor	 eax, ebp
  0000d	89 45 fc	 mov	 DWORD PTR __$ArrayPad$[ebp], eax
  00010	8b 45 08	 mov	 eax, DWORD PTR _pOwner$[ebp]
  00013	53		 push	 ebx
  00014	8b d9		 mov	 ebx, ecx

; 593  : 	if ( !pOwner )

  00016	85 c0		 test	 eax, eax
  00018	0f 84 8c 00 00
	00		 je	 $LN1@SetRotateT@2

; 594  : 		return;
; 595  : 
; 596  : 	SetOffsetPosAndDir( pOwner );

  0001e	56		 push	 esi
  0001f	50		 push	 eax
  00020	e8 00 00 00 00	 call	 ?SetOffsetPosAndDir@ioOwnerAttach5Dummy@@IAEXPAVioBaseChar@@@Z ; ioOwnerAttach5Dummy::SetOffsetPosAndDir

; 597  : 
; 598  : 	if ( m_vMoveDir != ioMath::VEC3_ZERO )

  00025	8b 0d 00 00 00
	00		 mov	 ecx, DWORD PTR __imp_?VEC3_ZERO@ioMath@@2UD3DXVECTOR3@@A
  0002b	f3 0f 10 09	 movss	 xmm1, DWORD PTR [ecx]
  0002f	8d b3 f0 14 00
	00		 lea	 esi, DWORD PTR [ebx+5360]
  00035	f3 0f 10 06	 movss	 xmm0, DWORD PTR [esi]
  00039	0f 5a c0	 cvtps2pd xmm0, xmm0
  0003c	0f 5a c9	 cvtps2pd xmm1, xmm1
  0003f	66 0f 2e c1	 ucomisd xmm0, xmm1
  00043	9f		 lahf
  00044	f6 c4 44	 test	 ah, 68			; 00000044H
  00047	7a 34		 jp	 SHORT $LN7@SetRotateT@2
  00049	f3 0f 10 46 04	 movss	 xmm0, DWORD PTR [esi+4]
  0004e	f3 0f 10 49 04	 movss	 xmm1, DWORD PTR [ecx+4]
  00053	0f 5a c0	 cvtps2pd xmm0, xmm0
  00056	0f 5a c9	 cvtps2pd xmm1, xmm1
  00059	66 0f 2e c1	 ucomisd xmm0, xmm1
  0005d	9f		 lahf
  0005e	f6 c4 44	 test	 ah, 68			; 00000044H
  00061	7a 1a		 jp	 SHORT $LN7@SetRotateT@2
  00063	f3 0f 10 46 08	 movss	 xmm0, DWORD PTR [esi+8]
  00068	f3 0f 10 49 08	 movss	 xmm1, DWORD PTR [ecx+8]
  0006d	0f 5a c0	 cvtps2pd xmm0, xmm0
  00070	0f 5a c9	 cvtps2pd xmm1, xmm1
  00073	66 0f 2e c1	 ucomisd xmm0, xmm1
  00077	9f		 lahf
  00078	f6 c4 44	 test	 ah, 68			; 00000044H
  0007b	7b 2c		 jnp	 SHORT $LN9@SetRotateT@2
$LN7@SetRotateT@2:

; 599  : 	{
; 600  : 		D3DXVECTOR3 vRot = m_vMoveDir;

  0007d	57		 push	 edi
  0007e	8d 7d f0	 lea	 edi, DWORD PTR _vRot$568908[ebp]
  00081	a5		 movsd

; 601  : 		D3DXVec3Normalize( &vRot, &vRot );

  00082	8d 45 f0	 lea	 eax, DWORD PTR _vRot$568908[ebp]
  00085	a5		 movsd
  00086	50		 push	 eax
  00087	50		 push	 eax
  00088	a5		 movsd
  00089	e8 00 00 00 00	 call	 _D3DXVec3Normalize@8

; 602  : 
; 603  : 		D3DXQUATERNION qtRot = Help::ConvertDirToQuaternion( vRot );

  0008e	8d 45 f0	 lea	 eax, DWORD PTR _vRot$568908[ebp]
  00091	50		 push	 eax
  00092	8d 45 e0	 lea	 eax, DWORD PTR _qtRot$568909[ebp]
  00095	50		 push	 eax
  00096	e8 00 00 00 00	 call	 ?ConvertDirToQuaternion@Help@@YA?AUD3DXQUATERNION@@ABUD3DXVECTOR3@@@Z ; Help::ConvertDirToQuaternion

; 604  : 		SetWorldOrientation( qtRot );

  0009b	8b 03		 mov	 eax, DWORD PTR [ebx]
  0009d	59		 pop	 ecx
  0009e	59		 pop	 ecx
  0009f	8d 4d e0	 lea	 ecx, DWORD PTR _qtRot$568909[ebp]
  000a2	51		 push	 ecx
  000a3	8b cb		 mov	 ecx, ebx
  000a5	ff 50 48	 call	 DWORD PTR [eax+72]
  000a8	5f		 pop	 edi
$LN9@SetRotateT@2:
  000a9	5e		 pop	 esi
$LN1@SetRotateT@2:

; 605  : 	}
; 606  : }

  000aa	8b 4d fc	 mov	 ecx, DWORD PTR __$ArrayPad$[ebp]
  000ad	33 cd		 xor	 ecx, ebp
  000af	5b		 pop	 ebx
  000b0	e8 00 00 00 00	 call	 @__security_check_cookie@4
  000b5	c9		 leave
  000b6	c2 04 00	 ret	 4
?SetRotateToOwner@ioOwnerAttach5Dummy@@IAEXPAVioBaseChar@@@Z ENDP ; ioOwnerAttach5Dummy::SetRotateToOwner
_TEXT	ENDS
PUBLIC	_fTimePerSec$GSCopy$
PUBLIC	__$ArrayPad$
PUBLIC	?FollowOwner@ioOwnerAttach5Dummy@@IAEXPAVioBaseChar@@M@Z ; ioOwnerAttach5Dummy::FollowOwner
; Function compile flags: /Ogsp
;	COMDAT ?FollowOwner@ioOwnerAttach5Dummy@@IAEXPAVioBaseChar@@M@Z
_TEXT	SEGMENT
_qtRot$568945 = -80					; size = 16
_pStage$ = -64						; size = 4
_fTimePerSec$GSCopy$ = -60				; size = 4
_fMapHeight$568942 = -60				; size = 4
tv537 = -56						; size = 4
_value$575085 = -56					; size = 4
$T575077 = -56						; size = 4
_value$575065 = -56					; size = 4
_value$575060 = -56					; size = 4
_vRot$568944 = -52					; size = 12
$T568940 = -40						; size = 12
_vPos$568941 = -28					; size = 12
_vMoveDir$568938 = -16					; size = 12
__$ArrayPad$ = -4					; size = 4
_pOwner$ = 8						; size = 4
_fTimePerSec$ = 12					; size = 4
?FollowOwner@ioOwnerAttach5Dummy@@IAEXPAVioBaseChar@@M@Z PROC ; ioOwnerAttach5Dummy::FollowOwner, COMDAT
; _this$ = ecx

; 633  : {

  00000	55		 push	 ebp
  00001	8b ec		 mov	 ebp, esp
  00003	83 ec 50	 sub	 esp, 80			; 00000050H
  00006	a1 00 00 00 00	 mov	 eax, DWORD PTR ___security_cookie
  0000b	33 c5		 xor	 eax, ebp
  0000d	89 45 fc	 mov	 DWORD PTR __$ArrayPad$[ebp], eax
  00010	f3 0f 10 45 0c	 movss	 xmm0, DWORD PTR _fTimePerSec$[ebp]
  00015	53		 push	 ebx
  00016	56		 push	 esi
  00017	8b 75 08	 mov	 esi, DWORD PTR _pOwner$[ebp]
  0001a	8b d9		 mov	 ebx, ecx
  0001c	f3 0f 11 45 c4	 movss	 DWORD PTR _fTimePerSec$GSCopy$[ebp], xmm0

; 634  : 	if ( !pOwner )

  00021	85 f6		 test	 esi, esi
  00023	0f 84 0f 02 00
	00		 je	 $LN1@FollowOwne

; 635  : 		return;
; 636  : 	
; 637  : 	ioPlayStage *pStage = pOwner->GetCreator();

  00029	8b 86 44 03 00
	00		 mov	 eax, DWORD PTR [esi+836]
  0002f	89 45 c0	 mov	 DWORD PTR _pStage$[ebp], eax

; 638  : 	if ( !pStage )

  00032	85 c0		 test	 eax, eax
  00034	0f 84 fe 01 00
	00		 je	 $LN1@FollowOwne

; 639  : 		return;
; 640  : 
; 641  : 	if ( pOwner->GetState() == CS_DASH )

  0003a	80 be 10 03 00
	00 02		 cmp	 BYTE PTR [esi+784], 2

; 642  : 		m_fMoveSpeed = m_fDashMoveSpeed;

  00041	8d 45 c8	 lea	 eax, DWORD PTR _value$575060[ebp]
  00044	8d 8b d8 0b 00
	00		 lea	 ecx, DWORD PTR [ebx+3032]
  0004a	50		 push	 eax
  0004b	75 0a		 jne	 SHORT $LN6@FollowOwne
  0004d	f3 0f 10 83 e4
	14 00 00	 movss	 xmm0, DWORD PTR [ebx+5348]

; 643  : 	else 

  00055	eb 08		 jmp	 SHORT $LN36@FollowOwne
$LN6@FollowOwne:

; 644  : 		m_fMoveSpeed = m_fRunMoveSpeed;

  00057	f3 0f 10 83 e0
	14 00 00	 movss	 xmm0, DWORD PTR [ebx+5344]
$LN36@FollowOwne:
  0005f	f3 0f 11 45 c8	 movss	 DWORD PTR _value$575065[ebp], xmm0
  00064	e8 00 00 00 00	 call	 ?EncryptValueToPool@?$CEncrypt@M@@AAEXPBD@Z ; CEncrypt<float>::EncryptValueToPool

; 645  : 
; 646  : 	SetOffsetPosAndDir( pOwner );

  00069	56		 push	 esi
  0006a	8b cb		 mov	 ecx, ebx
  0006c	e8 00 00 00 00	 call	 ?SetOffsetPosAndDir@ioOwnerAttach5Dummy@@IAEXPAVioBaseChar@@@Z ; ioOwnerAttach5Dummy::SetOffsetPosAndDir

; 647  : 	
; 648  : 	if ( D3DXVec3Length( &m_vMoveDir ) > FLOAT1 )

  00071	8d 8b f0 14 00
	00		 lea	 ecx, DWORD PTR [ebx+5360]
  00077	f3 0f 10 41 04	 movss	 xmm0, DWORD PTR [ecx+4]
  0007c	f3 0f 10 09	 movss	 xmm1, DWORD PTR [ecx]
  00080	f3 0f 10 51 08	 movss	 xmm2, DWORD PTR [ecx+8]
  00085	0f 5a c0	 cvtps2pd xmm0, xmm0
  00088	f2 0f 59 c0	 mulsd	 xmm0, xmm0
  0008c	0f 5a c9	 cvtps2pd xmm1, xmm1
  0008f	f2 0f 59 c9	 mulsd	 xmm1, xmm1
  00093	f2 0f 58 c8	 addsd	 xmm1, xmm0
  00097	0f 57 c0	 xorps	 xmm0, xmm0
  0009a	0f 5a d2	 cvtps2pd xmm2, xmm2
  0009d	f2 0f 59 d2	 mulsd	 xmm2, xmm2
  000a1	f2 0f 58 ca	 addsd	 xmm1, xmm2
  000a5	66 0f 5a c1	 cvtpd2ps xmm0, xmm1
  000a9	0f 5a c0	 cvtps2pd xmm0, xmm0
  000ac	f2 0f 51 c0	 sqrtsd	 xmm0, xmm0
  000b0	66 0f 5a c0	 cvtpd2ps xmm0, xmm0
  000b4	f3 0f 11 45 c8	 movss	 DWORD PTR $T575077[ebp], xmm0
  000b9	b8 01 00 00 00	 mov	 eax, 1
  000be	d9 45 c8	 fld	 DWORD PTR $T575077[ebp]
  000c1	89 45 c8	 mov	 DWORD PTR tv537[ebp], eax
  000c4	db 45 c8	 fild	 DWORD PTR tv537[ebp]
  000c7	85 c0		 test	 eax, eax
  000c9	79 06		 jns	 SHORT $LN35@FollowOwne
  000cb	d8 05 00 00 00
	00		 fadd	 DWORD PTR __real@4f800000
$LN35@FollowOwne:
  000d1	d9 c9		 fxch	 ST(1)
  000d3	df f1		 fcomip	 ST(1)
  000d5	dd d8		 fstp	 ST(0)
  000d7	0f 86 4b 01 00
	00		 jbe	 $LN4@FollowOwne

; 649  : 	{
; 650  : 		D3DXVECTOR3 vMoveDir = ioMath::VEC3_ZERO;

  000dd	8b 35 00 00 00
	00		 mov	 esi, DWORD PTR __imp_?VEC3_ZERO@ioMath@@2UD3DXVECTOR3@@A
  000e3	57		 push	 edi
  000e4	8d 7d f0	 lea	 edi, DWORD PTR _vMoveDir$568938[ebp]
  000e7	a5		 movsd
  000e8	a5		 movsd

; 651  : 		D3DXVec3Normalize( &vMoveDir, &m_vMoveDir);

  000e9	51		 push	 ecx
  000ea	8d 45 f0	 lea	 eax, DWORD PTR _vMoveDir$568938[ebp]
  000ed	50		 push	 eax
  000ee	a5		 movsd
  000ef	e8 00 00 00 00	 call	 _D3DXVec3Normalize@8

; 652  : 
; 653  : 		Translate( vMoveDir * m_fMoveSpeed * fTimePerSec );

  000f4	8d 45 c8	 lea	 eax, DWORD PTR _value$575085[ebp]
  000f7	50		 push	 eax
  000f8	8d 8b d8 0b 00
	00		 lea	 ecx, DWORD PTR [ebx+3032]
  000fe	e8 00 00 00 00	 call	 ?DecryptValueToPool@?$CEncrypt@M@@QAEXPAM@Z ; CEncrypt<float>::DecryptValueToPool
  00103	f3 0f 10 45 f0	 movss	 xmm0, DWORD PTR _vMoveDir$568938[ebp]
  00108	f3 0f 10 4d c8	 movss	 xmm1, DWORD PTR _value$575085[ebp]
  0010d	f3 0f 10 55 c8	 movss	 xmm2, DWORD PTR _value$575085[ebp]
  00112	f3 0f 10 5d c8	 movss	 xmm3, DWORD PTR _value$575085[ebp]
  00117	0f 5a c0	 cvtps2pd xmm0, xmm0
  0011a	0f 5a c9	 cvtps2pd xmm1, xmm1
  0011d	f2 0f 59 c1	 mulsd	 xmm0, xmm1
  00121	f3 0f 10 4d f4	 movss	 xmm1, DWORD PTR _vMoveDir$568938[ebp+4]
  00126	8b 03		 mov	 eax, DWORD PTR [ebx]
  00128	66 0f 5a c0	 cvtpd2ps xmm0, xmm0
  0012c	0f 5a c9	 cvtps2pd xmm1, xmm1
  0012f	0f 5a d2	 cvtps2pd xmm2, xmm2
  00132	f2 0f 59 ca	 mulsd	 xmm1, xmm2
  00136	f3 0f 10 55 f8	 movss	 xmm2, DWORD PTR _vMoveDir$568938[ebp+8]
  0013b	f3 0f 5a c0	 cvtss2sd xmm0, xmm0
  0013f	0f 5a db	 cvtps2pd xmm3, xmm3
  00142	0f 5a d2	 cvtps2pd xmm2, xmm2
  00145	f2 0f 59 d3	 mulsd	 xmm2, xmm3
  00149	f3 0f 10 5d c4	 movss	 xmm3, DWORD PTR _fTimePerSec$GSCopy$[ebp]
  0014e	66 0f 5a c9	 cvtpd2ps xmm1, xmm1
  00152	0f 5a db	 cvtps2pd xmm3, xmm3
  00155	f2 0f 59 c3	 mulsd	 xmm0, xmm3
  00159	66 0f 5a c0	 cvtpd2ps xmm0, xmm0
  0015d	f3 0f 11 45 d8	 movss	 DWORD PTR $T568940[ebp], xmm0
  00162	0f 57 c0	 xorps	 xmm0, xmm0
  00165	f3 0f 5a c1	 cvtss2sd xmm0, xmm1
  00169	f3 0f 10 4d c4	 movss	 xmm1, DWORD PTR _fTimePerSec$GSCopy$[ebp]
  0016e	0f 5a c9	 cvtps2pd xmm1, xmm1
  00171	f2 0f 59 c1	 mulsd	 xmm0, xmm1
  00175	f3 0f 10 4d c4	 movss	 xmm1, DWORD PTR _fTimePerSec$GSCopy$[ebp]
  0017a	66 0f 5a c0	 cvtpd2ps xmm0, xmm0
  0017e	f3 0f 11 45 dc	 movss	 DWORD PTR $T568940[ebp+4], xmm0
  00183	0f 57 c0	 xorps	 xmm0, xmm0
  00186	66 0f 5a d2	 cvtpd2ps xmm2, xmm2
  0018a	f3 0f 5a c2	 cvtss2sd xmm0, xmm2
  0018e	8d 4d d8	 lea	 ecx, DWORD PTR $T568940[ebp]
  00191	0f 5a c9	 cvtps2pd xmm1, xmm1
  00194	f2 0f 59 c1	 mulsd	 xmm0, xmm1
  00198	51		 push	 ecx
  00199	66 0f 5a c0	 cvtpd2ps xmm0, xmm0
  0019d	8b cb		 mov	 ecx, ebx
  0019f	f3 0f 11 45 e0	 movss	 DWORD PTR $T568940[ebp+8], xmm0
  001a4	ff 50 50	 call	 DWORD PTR [eax+80]

; 654  : 				
; 655  : 		D3DXVECTOR3 vPos = GetWorldPosition();

  001a7	8b 03		 mov	 eax, DWORD PTR [ebx]
  001a9	8b cb		 mov	 ecx, ebx
  001ab	ff 50 70	 call	 DWORD PTR [eax+112]

; 656  : 		float fMapHeight = pStage->GetMapHeightOnlyTerrain( vPos.x, vPos.z );

  001ae	0f 57 c0	 xorps	 xmm0, xmm0
  001b1	8b 4d c0	 mov	 ecx, DWORD PTR _pStage$[ebp]
  001b4	8b f0		 mov	 esi, eax
  001b6	8d 7d e4	 lea	 edi, DWORD PTR _vPos$568941[ebp]
  001b9	a5		 movsd
  001ba	a5		 movsd
  001bb	83 ec 0c	 sub	 esp, 12			; 0000000cH
  001be	f3 0f 11 44 24
	08		 movss	 DWORD PTR [esp+8], xmm0
  001c4	a5		 movsd
  001c5	f3 0f 10 45 ec	 movss	 xmm0, DWORD PTR _vPos$568941[ebp+8]
  001ca	f3 0f 11 44 24
	04		 movss	 DWORD PTR [esp+4], xmm0
  001d0	f3 0f 10 45 e4	 movss	 xmm0, DWORD PTR _vPos$568941[ebp]
  001d5	f3 0f 11 04 24	 movss	 DWORD PTR [esp], xmm0
  001da	e8 00 00 00 00	 call	 ?GetMapHeightOnlyTerrain@ioPlayStage@@QAEMMMM@Z ; ioPlayStage::GetMapHeightOnlyTerrain
  001df	d9 5d c4	 fstp	 DWORD PTR _fMapHeight$568942[ebp]

; 657  : 		if ( fMapHeight > 0.0f )

  001e2	d9 ee		 fldz
  001e4	d9 45 c4	 fld	 DWORD PTR _fMapHeight$568942[ebp]
  001e7	df f1		 fcomip	 ST(1)
  001e9	dd d8		 fstp	 ST(0)
  001eb	76 0a		 jbe	 SHORT $LN3@FollowOwne

; 658  : 			vPos.y = fMapHeight;

  001ed	f3 0f 10 45 c4	 movss	 xmm0, DWORD PTR _fMapHeight$568942[ebp]
  001f2	f3 0f 11 45 e8	 movss	 DWORD PTR _vPos$568941[ebp+4], xmm0
$LN3@FollowOwne:

; 659  : 		SetWorldPosition( vPos );

  001f7	8b 03		 mov	 eax, DWORD PTR [ebx]
  001f9	8d 4d e4	 lea	 ecx, DWORD PTR _vPos$568941[ebp]
  001fc	51		 push	 ecx
  001fd	8b cb		 mov	 ecx, ebx
  001ff	ff 50 44	 call	 DWORD PTR [eax+68]

; 660  : 
; 661  : 		D3DXVECTOR3 vRot = vMoveDir;

  00202	8d 75 f0	 lea	 esi, DWORD PTR _vMoveDir$568938[ebp]
  00205	8d 7d cc	 lea	 edi, DWORD PTR _vRot$568944[ebp]
  00208	a5		 movsd

; 662  : 		D3DXQUATERNION qtRot = Help::ConvertDirToQuaternion( vRot );

  00209	8d 45 cc	 lea	 eax, DWORD PTR _vRot$568944[ebp]
  0020c	a5		 movsd
  0020d	50		 push	 eax
  0020e	8d 45 b0	 lea	 eax, DWORD PTR _qtRot$568945[ebp]
  00211	50		 push	 eax
  00212	a5		 movsd
  00213	e8 00 00 00 00	 call	 ?ConvertDirToQuaternion@Help@@YA?AUD3DXQUATERNION@@ABUD3DXVECTOR3@@@Z ; Help::ConvertDirToQuaternion

; 663  : 		SetWorldOrientation( qtRot );

  00218	8b 03		 mov	 eax, DWORD PTR [ebx]
  0021a	59		 pop	 ecx
  0021b	59		 pop	 ecx
  0021c	8d 4d b0	 lea	 ecx, DWORD PTR _qtRot$568945[ebp]
  0021f	51		 push	 ecx
  00220	8b cb		 mov	 ecx, ebx
  00222	ff 50 48	 call	 DWORD PTR [eax+72]
  00225	5f		 pop	 edi

; 664  : 	}
; 665  : 	else

  00226	eb 10		 jmp	 SHORT $LN1@FollowOwne
$LN4@FollowOwne:

; 666  : 	{
; 667  : 		if ( m_bAutoFollow )

  00228	80 bb 30 15 00
	00 00		 cmp	 BYTE PTR [ebx+5424], 0
  0022f	74 07		 je	 SHORT $LN1@FollowOwne

; 668  : 			m_bAutoFollow = false;

  00231	c6 83 30 15 00
	00 00		 mov	 BYTE PTR [ebx+5424], 0
$LN1@FollowOwne:

; 669  : 	}
; 670  : }

  00238	8b 4d fc	 mov	 ecx, DWORD PTR __$ArrayPad$[ebp]
  0023b	5e		 pop	 esi
  0023c	33 cd		 xor	 ecx, ebp
  0023e	5b		 pop	 ebx
  0023f	e8 00 00 00 00	 call	 @__security_check_cookie@4
  00244	c9		 leave
  00245	c2 08 00	 ret	 8
?FollowOwner@ioOwnerAttach5Dummy@@IAEXPAVioBaseChar@@M@Z ENDP ; ioOwnerAttach5Dummy::FollowOwner
_TEXT	ENDS
PUBLIC	?CheckControllRange@ioOwnerAttach5Dummy@@IAE_NPAVioBaseChar@@@Z ; ioOwnerAttach5Dummy::CheckControllRange
; Function compile flags: /Ogsp
;	COMDAT ?CheckControllRange@ioOwnerAttach5Dummy@@IAE_NPAVioBaseChar@@@Z
_TEXT	SEGMENT
_vDist$ = -16						; size = 12
_value$575134 = -4					; size = 4
_value$575142 = 8					; size = 4
_pOwner$ = 8						; size = 4
?CheckControllRange@ioOwnerAttach5Dummy@@IAE_NPAVioBaseChar@@@Z PROC ; ioOwnerAttach5Dummy::CheckControllRange, COMDAT
; _this$ = ecx

; 706  : {

  00000	55		 push	 ebp
  00001	8b ec		 mov	 ebp, esp
  00003	83 ec 10	 sub	 esp, 16			; 00000010H
  00006	53		 push	 ebx

; 707  : 	if ( !pOwner )

  00007	8b 5d 08	 mov	 ebx, DWORD PTR _pOwner$[ebp]
  0000a	57		 push	 edi
  0000b	8b f9		 mov	 edi, ecx
  0000d	85 db		 test	 ebx, ebx
  0000f	75 07		 jne	 SHORT $LN2@CheckContr
$LN15@CheckContr:

; 708  : 		return false;

  00011	32 c0		 xor	 al, al
  00013	e9 e1 00 00 00	 jmp	 $LN3@CheckContr
$LN2@CheckContr:

; 709  : 
; 710  : 	D3DXVECTOR3 vDist = pOwner->GetWorldPosition() - GetWorldPosition();

  00018	8b 07		 mov	 eax, DWORD PTR [edi]
  0001a	56		 push	 esi
  0001b	ff 50 70	 call	 DWORD PTR [eax+112]
  0001e	8b f0		 mov	 esi, eax
  00020	8b 03		 mov	 eax, DWORD PTR [ebx]
  00022	8b cb		 mov	 ecx, ebx
  00024	ff 50 70	 call	 DWORD PTR [eax+112]
  00027	f3 0f 10 00	 movss	 xmm0, DWORD PTR [eax]
  0002b	f3 0f 10 0e	 movss	 xmm1, DWORD PTR [esi]
  0002f	0f 5a c0	 cvtps2pd xmm0, xmm0
  00032	0f 5a c9	 cvtps2pd xmm1, xmm1
  00035	f2 0f 5c c1	 subsd	 xmm0, xmm1
  00039	f3 0f 10 4e 04	 movss	 xmm1, DWORD PTR [esi+4]
  0003e	66 0f 5a c0	 cvtpd2ps xmm0, xmm0
  00042	f3 0f 11 45 f0	 movss	 DWORD PTR _vDist$[ebp], xmm0
  00047	f3 0f 10 40 04	 movss	 xmm0, DWORD PTR [eax+4]
  0004c	0f 5a c0	 cvtps2pd xmm0, xmm0
  0004f	0f 5a c9	 cvtps2pd xmm1, xmm1
  00052	f2 0f 5c c1	 subsd	 xmm0, xmm1
  00056	f3 0f 10 4e 08	 movss	 xmm1, DWORD PTR [esi+8]
  0005b	66 0f 5a c0	 cvtpd2ps xmm0, xmm0
  0005f	f3 0f 11 45 f4	 movss	 DWORD PTR _vDist$[ebp+4], xmm0
  00064	f3 0f 10 40 08	 movss	 xmm0, DWORD PTR [eax+8]
  00069	0f 5a c0	 cvtps2pd xmm0, xmm0
  0006c	0f 5a c9	 cvtps2pd xmm1, xmm1

; 711  : 
; 712  : 	if ( D3DXVec3LengthSq( &vDist ) > m_fControlOutRange * m_fControlOutRange )

  0006f	8d 45 fc	 lea	 eax, DWORD PTR _value$575134[ebp]
  00072	f2 0f 5c c1	 subsd	 xmm0, xmm1
  00076	66 0f 5a c0	 cvtpd2ps xmm0, xmm0
  0007a	50		 push	 eax
  0007b	8d 8f 50 03 00
	00		 lea	 ecx, DWORD PTR [edi+848]
  00081	f3 0f 11 45 f8	 movss	 DWORD PTR _vDist$[ebp+8], xmm0
  00086	e8 00 00 00 00	 call	 ?DecryptValueToPool@?$CEncrypt@M@@QAEXPAM@Z ; CEncrypt<float>::DecryptValueToPool
  0008b	8d 45 08	 lea	 eax, DWORD PTR _value$575142[ebp]
  0008e	50		 push	 eax
  0008f	8d 8f 50 03 00
	00		 lea	 ecx, DWORD PTR [edi+848]
  00095	e8 00 00 00 00	 call	 ?DecryptValueToPool@?$CEncrypt@M@@QAEXPAM@Z ; CEncrypt<float>::DecryptValueToPool
  0009a	f3 0f 10 45 f4	 movss	 xmm0, DWORD PTR _vDist$[ebp+4]
  0009f	f3 0f 10 4d f0	 movss	 xmm1, DWORD PTR _vDist$[ebp]
  000a4	f3 0f 10 55 f8	 movss	 xmm2, DWORD PTR _vDist$[ebp+8]
  000a9	0f 5a c9	 cvtps2pd xmm1, xmm1
  000ac	f2 0f 59 c9	 mulsd	 xmm1, xmm1
  000b0	0f 5a c0	 cvtps2pd xmm0, xmm0
  000b3	f2 0f 59 c0	 mulsd	 xmm0, xmm0
  000b7	f2 0f 58 c8	 addsd	 xmm1, xmm0
  000bb	0f 5a d2	 cvtps2pd xmm2, xmm2
  000be	f2 0f 59 d2	 mulsd	 xmm2, xmm2
  000c2	f2 0f 58 ca	 addsd	 xmm1, xmm2
  000c6	f3 0f 10 55 fc	 movss	 xmm2, DWORD PTR _value$575134[ebp]
  000cb	0f 57 c0	 xorps	 xmm0, xmm0
  000ce	f2 0f 5a c1	 cvtsd2ss xmm0, xmm1
  000d2	f3 0f 10 4d 08	 movss	 xmm1, DWORD PTR _value$575142[ebp]
  000d7	0f 5a c9	 cvtps2pd xmm1, xmm1
  000da	0f 5a d2	 cvtps2pd xmm2, xmm2
  000dd	f2 0f 59 ca	 mulsd	 xmm1, xmm2
  000e1	66 0f 5a c9	 cvtpd2ps xmm1, xmm1
  000e5	0f 5a c0	 cvtps2pd xmm0, xmm0
  000e8	f3 0f 5a c9	 cvtss2sd xmm1, xmm1
  000ec	66 0f 2f c1	 comisd	 xmm0, xmm1
  000f0	5e		 pop	 esi

; 713  : 		return false;

  000f1	0f 87 1a ff ff
	ff		 ja	 $LN15@CheckContr

; 714  : 
; 715  : 	return true;

  000f7	b0 01		 mov	 al, 1
$LN3@CheckContr:
  000f9	5f		 pop	 edi
  000fa	5b		 pop	 ebx

; 716  : }

  000fb	c9		 leave
  000fc	c2 04 00	 ret	 4
?CheckControllRange@ioOwnerAttach5Dummy@@IAE_NPAVioBaseChar@@@Z ENDP ; ioOwnerAttach5Dummy::CheckControllRange
_TEXT	ENDS
PUBLIC	??_C@_00CNPNBAHC@?$AA@				; `string'
PUBLIC	_pOwner$GSCopy$
PUBLIC	?CreateWeapon@ioOwnerAttach5Dummy@@IAEXPAVioBaseChar@@@Z ; ioOwnerAttach5Dummy::CreateWeapon
EXTRN	?SetPosition@ioWeapon@@QAEXABUD3DXVECTOR3@@@Z:PROC ; ioWeapon::SetPosition
EXTRN	?ExtendFireExplicit@ioBaseChar@@QAEPAVioWeapon@@ABUFireTime@@ABUD3DXVECTOR3@@1ABVioHashString@@@Z:PROC ; ioBaseChar::ExtendFireExplicit
EXTRN	?SetWeaponIndexBase@ioBaseChar@@QAEXK@Z:PROC	; ioBaseChar::SetWeaponIndexBase
EXTRN	__imp_??4ioHashString@@QAEAAV0@PBD@Z:PROC
EXTRN	?GetWeaponIndexBase@ioBaseChar@@QBEKXZ:PROC	; ioBaseChar::GetWeaponIndexBase
;	COMDAT ??_C@_00CNPNBAHC@?$AA@
; File c:\program files (x86)\microsoft directx sdk (june 2010)\include\d3dx9math.inl
CONST	SEGMENT
??_C@_00CNPNBAHC@?$AA@ DB 00H				; `string'
CONST	ENDS
;	COMDAT xdata$x
xdata$x	SEGMENT
__unwindtable$?CreateWeapon@ioOwnerAttach5Dummy@@IAEXPAVioBaseChar@@@Z DD 0ffffffffH
	DD	FLAT:__unwindfunclet$?CreateWeapon@ioOwnerAttach5Dummy@@IAEXPAVioBaseChar@@@Z$0
	DD	00H
	DD	FLAT:__unwindfunclet$?CreateWeapon@ioOwnerAttach5Dummy@@IAEXPAVioBaseChar@@@Z$1
__ehfuncinfo$?CreateWeapon@ioOwnerAttach5Dummy@@IAEXPAVioBaseChar@@@Z DD 019930522H
	DD	02H
	DD	FLAT:__unwindtable$?CreateWeapon@ioOwnerAttach5Dummy@@IAEXPAVioBaseChar@@@Z
	DD	2 DUP(00H)
	DD	2 DUP(00H)
	DD	00H
	DD	01H
; Function compile flags: /Ogsp
; File d:\lost saga for developer\youtube\tutorial\source\src\lsclient\ioownerattach5dummy.cpp
xdata$x	ENDS
;	COMDAT ?CreateWeapon@ioOwnerAttach5Dummy@@IAEXPAVioBaseChar@@@Z
_TEXT	SEGMENT
_kFireTime$ = -148					; size = 88
_pOwner$GSCopy$ = -60					; size = 4
_vDir$ = -56						; size = 12
$T575147 = -44						; size = 16
$T568999 = -40						; size = 12
_vPos$ = -28						; size = 12
__$EHRec$ = -12						; size = 12
_pOwner$ = 8						; size = 4
?CreateWeapon@ioOwnerAttach5Dummy@@IAEXPAVioBaseChar@@@Z PROC ; ioOwnerAttach5Dummy::CreateWeapon, COMDAT
; _this$ = ecx

; 751  : {

  00000	68 88 00 00 00	 push	 136			; 00000088H
  00005	b8 00 00 00 00	 mov	 eax, __ehhandler$?CreateWeapon@ioOwnerAttach5Dummy@@IAEXPAVioBaseChar@@@Z
  0000a	e8 00 00 00 00	 call	 __EH_prolog3_GS
  0000f	8b 7d 08	 mov	 edi, DWORD PTR _pOwner$[ebp]
  00012	8b f1		 mov	 esi, ecx

; 757  : 		return;
; 758  : 
; 759  : 	m_dwBaseWeaponIndex = pOwner->GetWeaponIndexBase() + 1;

  00014	89 7d c4	 mov	 DWORD PTR _pOwner$GSCopy$[ebp], edi
  00017	85 ff		 test	 edi, edi
  00019	0f 84 82 01 00
	00		 je	 $LN3@CreateWeap

; 752  : 	if ( !pOwner || m_bCreateWeapon )

  0001f	80 be 31 15 00
	00 00		 cmp	 BYTE PTR [esi+5425], 0
  00026	0f 85 75 01 00
	00		 jne	 $LN3@CreateWeap

; 753  : 		return;
; 754  : 	
; 755  : 	DWORD dwCurTime = FRAMEGETTIME();

  0002c	ff 15 00 00 00
	00		 call	 DWORD PTR __imp_?GetSingleton@ioFrameTimer@@SAAAV1@XZ
  00032	8b c8		 mov	 ecx, eax
  00034	ff 15 00 00 00
	00		 call	 DWORD PTR __imp_?GetLoopSec@ioFrameTimer@@QBEKXZ
  0003a	8b d8		 mov	 ebx, eax

; 756  : 	if ( m_dwFireStart > dwCurTime )

  0003c	39 9e 08 15 00
	00		 cmp	 DWORD PTR [esi+5384], ebx
  00042	0f 87 59 01 00
	00		 ja	 $LN3@CreateWeap

; 757  : 		return;
; 758  : 
; 759  : 	m_dwBaseWeaponIndex = pOwner->GetWeaponIndexBase() + 1;

  00048	8b cf		 mov	 ecx, edi
  0004a	e8 00 00 00 00	 call	 ?GetWeaponIndexBase@ioBaseChar@@QBEKXZ ; ioBaseChar::GetWeaponIndexBase
  0004f	40		 inc	 eax

; 760  : 
; 761  : 	FireTime kFireTime;

  00050	8d 8d 6c ff ff
	ff		 lea	 ecx, DWORD PTR _kFireTime$[ebp]
  00056	89 86 30 06 00
	00		 mov	 DWORD PTR [esi+1584], eax
  0005c	e8 00 00 00 00	 call	 ??0FireTime@@QAE@XZ	; FireTime::FireTime

; 762  : 	kFireTime.dwStart = dwCurTime;
; 763  : 
; 764  : 	kFireTime.iAttributeIdx = m_nAttackWeaponNum;

  00061	8b 86 c0 14 00
	00		 mov	 eax, DWORD PTR [esi+5312]
  00067	83 65 fc 00	 and	 DWORD PTR __$EHRec$[ebp+8], 0

; 765  : 	kFireTime.iResistanceIdx = 0;

  0006b	83 a5 78 ff ff
	ff 00		 and	 DWORD PTR _kFireTime$[ebp+12], 0
  00072	89 9d 6c ff ff
	ff		 mov	 DWORD PTR _kFireTime$[ebp], ebx

; 766  : 	kFireTime.szWoundedAni  = "";

  00078	bb 00 00 00 00	 mov	 ebx, OFFSET ??_C@_00CNPNBAHC@?$AA@
  0007d	53		 push	 ebx
  0007e	8d 4d 80	 lea	 ecx, DWORD PTR _kFireTime$[ebp+20]
  00081	89 85 74 ff ff
	ff		 mov	 DWORD PTR _kFireTime$[ebp+8], eax
  00087	ff 15 00 00 00
	00		 call	 DWORD PTR __imp_??4ioHashString@@QAEAAV0@PBD@Z

; 767  : 	kFireTime.dwWoundedAniDuration = 0;
; 768  : 	kFireTime.bLoopWoundedAni = false;
; 769  : 	kFireTime.dwWeaponIdx = m_dwBaseWeaponIndex;

  0008d	8b 86 30 06 00
	00		 mov	 eax, DWORD PTR [esi+1584]
  00093	83 65 90 00	 and	 DWORD PTR _kFireTime$[ebp+36], 0

; 770  : 	kFireTime.eFireTimeType = FTT_DUMMY_CHAR_ATTACK;
; 771  : 
; 772  : 	pOwner->SetWeaponIndexBase( m_dwBaseWeaponIndex );

  00097	50		 push	 eax
  00098	8b cf		 mov	 ecx, edi
  0009a	c6 85 7c ff ff
	ff 00		 mov	 BYTE PTR _kFireTime$[ebp+16], 0
  000a1	89 45 94	 mov	 DWORD PTR _kFireTime$[ebp+40], eax
  000a4	c7 45 ac 0b 00
	00 00		 mov	 DWORD PTR _kFireTime$[ebp+64], 11 ; 0000000bH
  000ab	e8 00 00 00 00	 call	 ?SetWeaponIndexBase@ioBaseChar@@QAEXK@Z ; ioBaseChar::SetWeaponIndexBase

; 773  : 
; 774  : 	SetRotateToTarget( pOwner );

  000b0	57		 push	 edi
  000b1	8b ce		 mov	 ecx, esi
  000b3	e8 00 00 00 00	 call	 ?SetRotateToTarget@ioOwnerAttach5Dummy@@IAEXPAVioBaseChar@@@Z ; ioOwnerAttach5Dummy::SetRotateToTarget

; 775  : 
; 776  : 	D3DXVECTOR3 vPos = GetWorldPosition() + GetWorldOrientation() * m_vWeaponOffset;

  000b8	8d 86 c4 14 00
	00		 lea	 eax, DWORD PTR [esi+5316]
  000be	50		 push	 eax
  000bf	8b 06		 mov	 eax, DWORD PTR [esi]
  000c1	8b ce		 mov	 ecx, esi
  000c3	ff 50 74	 call	 DWORD PTR [eax+116]
  000c6	50		 push	 eax
  000c7	8d 45 d8	 lea	 eax, DWORD PTR $T568999[ebp]
  000ca	50		 push	 eax
  000cb	ff 15 00 00 00
	00		 call	 DWORD PTR __imp_??D@YA?AUD3DXVECTOR3@@ABUD3DXQUATERNION@@ABU0@@Z
  000d1	8b f8		 mov	 edi, eax
  000d3	8b 06		 mov	 eax, DWORD PTR [esi]
  000d5	83 c4 0c	 add	 esp, 12			; 0000000cH
  000d8	8b ce		 mov	 ecx, esi
  000da	ff 50 70	 call	 DWORD PTR [eax+112]
  000dd	f3 0f 10 08	 movss	 xmm1, DWORD PTR [eax]
  000e1	f3 0f 10 50 04	 movss	 xmm2, DWORD PTR [eax+4]
  000e6	f3 0f 10 58 08	 movss	 xmm3, DWORD PTR [eax+8]
  000eb	f3 0f 10 07	 movss	 xmm0, DWORD PTR [edi]
  000ef	0f 5a c9	 cvtps2pd xmm1, xmm1
  000f2	0f 5a c0	 cvtps2pd xmm0, xmm0
  000f5	f2 0f 58 c1	 addsd	 xmm0, xmm1
  000f9	f3 0f 10 4f 04	 movss	 xmm1, DWORD PTR [edi+4]
  000fe	0f 5a d2	 cvtps2pd xmm2, xmm2

; 777  : 	D3DXVECTOR3 vDir = GetAttackDir( pOwner, vPos );

  00101	8d 45 e4	 lea	 eax, DWORD PTR _vPos$[ebp]
  00104	50		 push	 eax
  00105	ff 75 c4	 push	 DWORD PTR _pOwner$GSCopy$[ebp]
  00108	0f 5a c9	 cvtps2pd xmm1, xmm1
  0010b	f2 0f 58 ca	 addsd	 xmm1, xmm2
  0010f	f3 0f 10 57 08	 movss	 xmm2, DWORD PTR [edi+8]
  00114	0f 5a d2	 cvtps2pd xmm2, xmm2
  00117	0f 5a db	 cvtps2pd xmm3, xmm3
  0011a	8d 45 c8	 lea	 eax, DWORD PTR _vDir$[ebp]
  0011d	f2 0f 58 d3	 addsd	 xmm2, xmm3
  00121	66 0f 5a c0	 cvtpd2ps xmm0, xmm0
  00125	66 0f 5a c9	 cvtpd2ps xmm1, xmm1
  00129	66 0f 5a d2	 cvtpd2ps xmm2, xmm2
  0012d	50		 push	 eax
  0012e	8b ce		 mov	 ecx, esi
  00130	f3 0f 11 45 e4	 movss	 DWORD PTR _vPos$[ebp], xmm0
  00135	f3 0f 11 4d e8	 movss	 DWORD PTR _vPos$[ebp+4], xmm1
  0013a	f3 0f 11 55 ec	 movss	 DWORD PTR _vPos$[ebp+8], xmm2
  0013f	e8 00 00 00 00	 call	 ?GetAttackDir@ioOwnerAttach5Dummy@@IAE?AUD3DXVECTOR3@@PAVioBaseChar@@ABU2@@Z ; ioOwnerAttach5Dummy::GetAttackDir

; 778  : 
; 779  : 	ioWeapon *pWeapon = pOwner->ExtendFireExplicit( kFireTime, vPos, vDir, "" );

  00144	53		 push	 ebx
  00145	8d 4d d4	 lea	 ecx, DWORD PTR $T575147[ebp]
  00148	ff 15 00 00 00
	00		 call	 DWORD PTR __imp_??0ioHashString@@QAE@PBD@Z
  0014e	8d 45 d4	 lea	 eax, DWORD PTR $T575147[ebp]
  00151	50		 push	 eax
  00152	8d 45 c8	 lea	 eax, DWORD PTR _vDir$[ebp]
  00155	50		 push	 eax
  00156	8d 45 e4	 lea	 eax, DWORD PTR _vPos$[ebp]
  00159	50		 push	 eax
  0015a	c6 45 fc 01	 mov	 BYTE PTR __$EHRec$[ebp+8], 1
  0015e	8d 85 6c ff ff
	ff		 lea	 eax, DWORD PTR _kFireTime$[ebp]
  00164	8b 4d c4	 mov	 ecx, DWORD PTR _pOwner$GSCopy$[ebp]
  00167	50		 push	 eax
  00168	e8 00 00 00 00	 call	 ?ExtendFireExplicit@ioBaseChar@@QAEPAVioWeapon@@ABUFireTime@@ABUD3DXVECTOR3@@1ABVioHashString@@@Z ; ioBaseChar::ExtendFireExplicit
  0016d	8d 4d d4	 lea	 ecx, DWORD PTR $T575147[ebp]
  00170	8b f8		 mov	 edi, eax
  00172	c6 45 fc 00	 mov	 BYTE PTR __$EHRec$[ebp+8], 0
  00176	ff 15 00 00 00
	00		 call	 DWORD PTR __imp_??1ioHashString@@QAE@XZ

; 780  : 	if ( pWeapon )

  0017c	85 ff		 test	 edi, edi
  0017e	74 0b		 je	 SHORT $LN1@CreateWeap

; 781  : 	{
; 782  : 		pWeapon->SetPosition( vPos );

  00180	8d 45 e4	 lea	 eax, DWORD PTR _vPos$[ebp]
  00183	50		 push	 eax
  00184	8b cf		 mov	 ecx, edi
  00186	e8 00 00 00 00	 call	 ?SetPosition@ioWeapon@@QAEXABUD3DXVECTOR3@@@Z ; ioWeapon::SetPosition
$LN1@CreateWeap:

; 783  : 	}
; 784  : 
; 785  : 	m_bCreateWeapon = true;
; 786  : }

  0018b	83 4d fc ff	 or	 DWORD PTR __$EHRec$[ebp+8], -1
  0018f	8d 8d 6c ff ff
	ff		 lea	 ecx, DWORD PTR _kFireTime$[ebp]
  00195	c6 86 31 15 00
	00 01		 mov	 BYTE PTR [esi+5425], 1
  0019c	e8 00 00 00 00	 call	 ??1FireTime@@QAE@XZ
$LN3@CreateWeap:
  001a1	e8 00 00 00 00	 call	 __EH_epilog3_GS
  001a6	c2 04 00	 ret	 4
_TEXT	ENDS
;	COMDAT text$x
text$x	SEGMENT
__unwindfunclet$?CreateWeapon@ioOwnerAttach5Dummy@@IAEXPAVioBaseChar@@@Z$0:
  00000	8d 8d 6c ff ff
	ff		 lea	 ecx, DWORD PTR _kFireTime$[ebp]
  00006	e9 00 00 00 00	 jmp	 ??1FireTime@@QAE@XZ
__unwindfunclet$?CreateWeapon@ioOwnerAttach5Dummy@@IAEXPAVioBaseChar@@@Z$1:
  0000b	8d 4d d4	 lea	 ecx, DWORD PTR $T575147[ebp]
  0000e	ff 25 00 00 00
	00		 jmp	 DWORD PTR __imp_??1ioHashString@@QAE@XZ
__ehhandler$?CreateWeapon@ioOwnerAttach5Dummy@@IAEXPAVioBaseChar@@@Z:
  00014	8b 54 24 08	 mov	 edx, DWORD PTR [esp+8]
  00018	8d 42 0c	 lea	 eax, DWORD PTR [edx+12]
  0001b	8b 8a 68 ff ff
	ff		 mov	 ecx, DWORD PTR [edx-152]
  00021	33 c8		 xor	 ecx, eax
  00023	e8 00 00 00 00	 call	 @__security_check_cookie@4
  00028	8b 4a fc	 mov	 ecx, DWORD PTR [edx-4]
  0002b	33 c8		 xor	 ecx, eax
  0002d	e8 00 00 00 00	 call	 @__security_check_cookie@4
  00032	b8 00 00 00 00	 mov	 eax, OFFSET __ehfuncinfo$?CreateWeapon@ioOwnerAttach5Dummy@@IAEXPAVioBaseChar@@@Z
  00037	e9 00 00 00 00	 jmp	 ___CxxFrameHandler3
text$x	ENDS
?CreateWeapon@ioOwnerAttach5Dummy@@IAEXPAVioBaseChar@@@Z ENDP ; ioOwnerAttach5Dummy::CreateWeapon
PUBLIC	??0?$vector@PAVioBaseChar@@V?$allocator@PAVioBaseChar@@@std@@@std@@QAE@XZ ; std::vector<ioBaseChar *,std::allocator<ioBaseChar *> >::vector<ioBaseChar *,std::allocator<ioBaseChar *> >
; Function compile flags: /Ogsp
; File c:\program files (x86)\microsoft visual studio 10.0\vc\include\vector
;	COMDAT ??0?$vector@PAVioBaseChar@@V?$allocator@PAVioBaseChar@@@std@@@std@@QAE@XZ
_TEXT	SEGMENT
??0?$vector@PAVioBaseChar@@V?$allocator@PAVioBaseChar@@@std@@@std@@QAE@XZ PROC ; std::vector<ioBaseChar *,std::allocator<ioBaseChar *> >::vector<ioBaseChar *,std::allocator<ioBaseChar *> >, COMDAT
; _this$ = ecx

; 507  : 		{	// construct empty vector

  00000	8b c1		 mov	 eax, ecx
  00002	33 c9		 xor	 ecx, ecx
  00004	89 08		 mov	 DWORD PTR [eax], ecx
  00006	89 48 04	 mov	 DWORD PTR [eax+4], ecx
  00009	89 48 08	 mov	 DWORD PTR [eax+8], ecx

; 508  : 		}

  0000c	c3		 ret	 0
??0?$vector@PAVioBaseChar@@V?$allocator@PAVioBaseChar@@@std@@@std@@QAE@XZ ENDP ; std::vector<ioBaseChar *,std::allocator<ioBaseChar *> >::vector<ioBaseChar *,std::allocator<ioBaseChar *> >
_TEXT	ENDS
PUBLIC	??0?$vector@UDistInfo@ioOwnerAttach5Dummy@@V?$allocator@UDistInfo@ioOwnerAttach5Dummy@@@std@@@std@@QAE@XZ ; std::vector<ioOwnerAttach5Dummy::DistInfo,std::allocator<ioOwnerAttach5Dummy::DistInfo> >::vector<ioOwnerAttach5Dummy::DistInfo,std::allocator<ioOwnerAttach5Dummy::DistInfo> >
; Function compile flags: /Ogsp
;	COMDAT ??0?$vector@UDistInfo@ioOwnerAttach5Dummy@@V?$allocator@UDistInfo@ioOwnerAttach5Dummy@@@std@@@std@@QAE@XZ
_TEXT	SEGMENT
??0?$vector@UDistInfo@ioOwnerAttach5Dummy@@V?$allocator@UDistInfo@ioOwnerAttach5Dummy@@@std@@@std@@QAE@XZ PROC ; std::vector<ioOwnerAttach5Dummy::DistInfo,std::allocator<ioOwnerAttach5Dummy::DistInfo> >::vector<ioOwnerAttach5Dummy::DistInfo,std::allocator<ioOwnerAttach5Dummy::DistInfo> >, COMDAT
; _this$ = ecx

; 507  : 		{	// construct empty vector

  00000	8b c1		 mov	 eax, ecx
  00002	33 c9		 xor	 ecx, ecx
  00004	89 08		 mov	 DWORD PTR [eax], ecx
  00006	89 48 04	 mov	 DWORD PTR [eax+4], ecx
  00009	89 48 08	 mov	 DWORD PTR [eax+8], ecx

; 508  : 		}

  0000c	c3		 ret	 0
??0?$vector@UDistInfo@ioOwnerAttach5Dummy@@V?$allocator@UDistInfo@ioOwnerAttach5Dummy@@@std@@@std@@QAE@XZ ENDP ; std::vector<ioOwnerAttach5Dummy::DistInfo,std::allocator<ioOwnerAttach5Dummy::DistInfo> >::vector<ioOwnerAttach5Dummy::DistInfo,std::allocator<ioOwnerAttach5Dummy::DistInfo> >
_TEXT	ENDS
PUBLIC	?begin@?$vector@UDistInfo@ioOwnerAttach5Dummy@@V?$allocator@UDistInfo@ioOwnerAttach5Dummy@@@std@@@std@@QAE?AV?$_Vector_iterator@V?$_Vector_val@UDistInfo@ioOwnerAttach5Dummy@@V?$allocator@UDistInfo@ioOwnerAttach5Dummy@@@std@@@std@@@2@XZ ; std::vector<ioOwnerAttach5Dummy::DistInfo,std::allocator<ioOwnerAttach5Dummy::DistInfo> >::begin
; Function compile flags: /Ogsp
;	COMDAT ?begin@?$vector@UDistInfo@ioOwnerAttach5Dummy@@V?$allocator@UDistInfo@ioOwnerAttach5Dummy@@@std@@@std@@QAE?AV?$_Vector_iterator@V?$_Vector_val@UDistInfo@ioOwnerAttach5Dummy@@V?$allocator@UDistInfo@ioOwnerAttach5Dummy@@@std@@@std@@@2@XZ
_TEXT	SEGMENT
___$ReturnUdt$ = 8					; size = 4
?begin@?$vector@UDistInfo@ioOwnerAttach5Dummy@@V?$allocator@UDistInfo@ioOwnerAttach5Dummy@@@std@@@std@@QAE?AV?$_Vector_iterator@V?$_Vector_val@UDistInfo@ioOwnerAttach5Dummy@@V?$allocator@UDistInfo@ioOwnerAttach5Dummy@@@std@@@std@@@2@XZ PROC ; std::vector<ioOwnerAttach5Dummy::DistInfo,std::allocator<ioOwnerAttach5Dummy::DistInfo> >::begin, COMDAT
; _this$ = ecx

; 781  : 		{	// return iterator for beginning of mutable sequence

  00000	55		 push	 ebp
  00001	8b ec		 mov	 ebp, esp

; 782  : 		return (iterator(this->_Myfirst, this));

  00003	8b 09		 mov	 ecx, DWORD PTR [ecx]
  00005	8b 45 08	 mov	 eax, DWORD PTR ___$ReturnUdt$[ebp]
  00008	89 08		 mov	 DWORD PTR [eax], ecx

; 783  : 		}

  0000a	5d		 pop	 ebp
  0000b	c2 04 00	 ret	 4
?begin@?$vector@UDistInfo@ioOwnerAttach5Dummy@@V?$allocator@UDistInfo@ioOwnerAttach5Dummy@@@std@@@std@@QAE?AV?$_Vector_iterator@V?$_Vector_val@UDistInfo@ioOwnerAttach5Dummy@@V?$allocator@UDistInfo@ioOwnerAttach5Dummy@@@std@@@std@@@2@XZ ENDP ; std::vector<ioOwnerAttach5Dummy::DistInfo,std::allocator<ioOwnerAttach5Dummy::DistInfo> >::begin
_TEXT	ENDS
PUBLIC	?end@?$vector@UDistInfo@ioOwnerAttach5Dummy@@V?$allocator@UDistInfo@ioOwnerAttach5Dummy@@@std@@@std@@QAE?AV?$_Vector_iterator@V?$_Vector_val@UDistInfo@ioOwnerAttach5Dummy@@V?$allocator@UDistInfo@ioOwnerAttach5Dummy@@@std@@@std@@@2@XZ ; std::vector<ioOwnerAttach5Dummy::DistInfo,std::allocator<ioOwnerAttach5Dummy::DistInfo> >::end
; Function compile flags: /Ogsp
;	COMDAT ?end@?$vector@UDistInfo@ioOwnerAttach5Dummy@@V?$allocator@UDistInfo@ioOwnerAttach5Dummy@@@std@@@std@@QAE?AV?$_Vector_iterator@V?$_Vector_val@UDistInfo@ioOwnerAttach5Dummy@@V?$allocator@UDistInfo@ioOwnerAttach5Dummy@@@std@@@std@@@2@XZ
_TEXT	SEGMENT
___$ReturnUdt$ = 8					; size = 4
?end@?$vector@UDistInfo@ioOwnerAttach5Dummy@@V?$allocator@UDistInfo@ioOwnerAttach5Dummy@@@std@@@std@@QAE?AV?$_Vector_iterator@V?$_Vector_val@UDistInfo@ioOwnerAttach5Dummy@@V?$allocator@UDistInfo@ioOwnerAttach5Dummy@@@std@@@std@@@2@XZ PROC ; std::vector<ioOwnerAttach5Dummy::DistInfo,std::allocator<ioOwnerAttach5Dummy::DistInfo> >::end, COMDAT
; _this$ = ecx

; 791  : 		{	// return iterator for end of mutable sequence

  00000	55		 push	 ebp
  00001	8b ec		 mov	 ebp, esp

; 792  : 		return (iterator(this->_Mylast, this));

  00003	8b 49 04	 mov	 ecx, DWORD PTR [ecx+4]
  00006	8b 45 08	 mov	 eax, DWORD PTR ___$ReturnUdt$[ebp]
  00009	89 08		 mov	 DWORD PTR [eax], ecx

; 793  : 		}

  0000b	5d		 pop	 ebp
  0000c	c2 04 00	 ret	 4
?end@?$vector@UDistInfo@ioOwnerAttach5Dummy@@V?$allocator@UDistInfo@ioOwnerAttach5Dummy@@@std@@@std@@QAE?AV?$_Vector_iterator@V?$_Vector_val@UDistInfo@ioOwnerAttach5Dummy@@V?$allocator@UDistInfo@ioOwnerAttach5Dummy@@@std@@@std@@@2@XZ ENDP ; std::vector<ioOwnerAttach5Dummy::DistInfo,std::allocator<ioOwnerAttach5Dummy::DistInfo> >::end
_TEXT	ENDS
PUBLIC	??9?$_Vector_const_iterator@V?$_Vector_val@PAVioBaseChar@@V?$allocator@PAVioBaseChar@@@std@@@std@@@std@@QBE_NABV01@@Z ; std::_Vector_const_iterator<std::_Vector_val<ioBaseChar *,std::allocator<ioBaseChar *> > >::operator!=
; Function compile flags: /Ogsp
;	COMDAT ??9?$_Vector_const_iterator@V?$_Vector_val@PAVioBaseChar@@V?$allocator@PAVioBaseChar@@@std@@@std@@@std@@QBE_NABV01@@Z
_TEXT	SEGMENT
__Right$ = 8						; size = 4
??9?$_Vector_const_iterator@V?$_Vector_val@PAVioBaseChar@@V?$allocator@PAVioBaseChar@@@std@@@std@@@std@@QBE_NABV01@@Z PROC ; std::_Vector_const_iterator<std::_Vector_val<ioBaseChar *,std::allocator<ioBaseChar *> > >::operator!=, COMDAT
; _this$ = ecx

; 207  : 		{	// test for iterator inequality

  00000	55		 push	 ebp
  00001	8b ec		 mov	 ebp, esp

; 208  : 		return (!(*this == _Right));

  00003	8b 01		 mov	 eax, DWORD PTR [ecx]
  00005	8b 55 08	 mov	 edx, DWORD PTR __Right$[ebp]
  00008	33 c9		 xor	 ecx, ecx
  0000a	3b 02		 cmp	 eax, DWORD PTR [edx]
  0000c	0f 95 c0	 setne	 al

; 209  : 		}

  0000f	5d		 pop	 ebp
  00010	c2 04 00	 ret	 4
??9?$_Vector_const_iterator@V?$_Vector_val@PAVioBaseChar@@V?$allocator@PAVioBaseChar@@@std@@@std@@@std@@QBE_NABV01@@Z ENDP ; std::_Vector_const_iterator<std::_Vector_val<ioBaseChar *,std::allocator<ioBaseChar *> > >::operator!=
_TEXT	ENDS
PUBLIC	?_Make_iter@?$vector@UDistInfo@ioOwnerAttach5Dummy@@V?$allocator@UDistInfo@ioOwnerAttach5Dummy@@@std@@@std@@QBE?AV?$_Vector_iterator@V?$_Vector_val@UDistInfo@ioOwnerAttach5Dummy@@V?$allocator@UDistInfo@ioOwnerAttach5Dummy@@@std@@@std@@@2@V?$_Vector_const_iterator@V?$_Vector_val@UDistInfo@ioOwnerAttach5Dummy@@V?$allocator@UDistInfo@ioOwnerAttach5Dummy@@@std@@@std@@@2@@Z ; std::vector<ioOwnerAttach5Dummy::DistInfo,std::allocator<ioOwnerAttach5Dummy::DistInfo> >::_Make_iter
; Function compile flags: /Ogsp
;	COMDAT ?_Make_iter@?$vector@UDistInfo@ioOwnerAttach5Dummy@@V?$allocator@UDistInfo@ioOwnerAttach5Dummy@@@std@@@std@@QBE?AV?$_Vector_iterator@V?$_Vector_val@UDistInfo@ioOwnerAttach5Dummy@@V?$allocator@UDistInfo@ioOwnerAttach5Dummy@@@std@@@std@@@2@V?$_Vector_const_iterator@V?$_Vector_val@UDistInfo@ioOwnerAttach5Dummy@@V?$allocator@UDistInfo@ioOwnerAttach5Dummy@@@std@@@std@@@2@@Z
_TEXT	SEGMENT
___$ReturnUdt$ = 8					; size = 4
__Where$ = 12						; size = 4
?_Make_iter@?$vector@UDistInfo@ioOwnerAttach5Dummy@@V?$allocator@UDistInfo@ioOwnerAttach5Dummy@@@std@@@std@@QBE?AV?$_Vector_iterator@V?$_Vector_val@UDistInfo@ioOwnerAttach5Dummy@@V?$allocator@UDistInfo@ioOwnerAttach5Dummy@@@std@@@std@@@2@V?$_Vector_const_iterator@V?$_Vector_val@UDistInfo@ioOwnerAttach5Dummy@@V?$allocator@UDistInfo@ioOwnerAttach5Dummy@@@std@@@std@@@2@@Z PROC ; std::vector<ioOwnerAttach5Dummy::DistInfo,std::allocator<ioOwnerAttach5Dummy::DistInfo> >::_Make_iter, COMDAT
; _this$ = ecx

; 801  : 		{	// make iterator from const_iterator

  00000	55		 push	 ebp
  00001	8b ec		 mov	 ebp, esp

; 802  : 		return (iterator(_Where._Ptr, this));

  00003	8b 45 08	 mov	 eax, DWORD PTR ___$ReturnUdt$[ebp]
  00006	8b 4d 0c	 mov	 ecx, DWORD PTR __Where$[ebp]
  00009	89 08		 mov	 DWORD PTR [eax], ecx

; 803  : 		}

  0000b	5d		 pop	 ebp
  0000c	c2 08 00	 ret	 8
?_Make_iter@?$vector@UDistInfo@ioOwnerAttach5Dummy@@V?$allocator@UDistInfo@ioOwnerAttach5Dummy@@@std@@@std@@QBE?AV?$_Vector_iterator@V?$_Vector_val@UDistInfo@ioOwnerAttach5Dummy@@V?$allocator@UDistInfo@ioOwnerAttach5Dummy@@@std@@@std@@@2@V?$_Vector_const_iterator@V?$_Vector_val@UDistInfo@ioOwnerAttach5Dummy@@V?$allocator@UDistInfo@ioOwnerAttach5Dummy@@@std@@@std@@@2@@Z ENDP ; std::vector<ioOwnerAttach5Dummy::DistInfo,std::allocator<ioOwnerAttach5Dummy::DistInfo> >::_Make_iter
_TEXT	ENDS
PUBLIC	??9?$_Vector_const_iterator@V?$_Vector_val@UDistInfo@ioOwnerAttach5Dummy@@V?$allocator@UDistInfo@ioOwnerAttach5Dummy@@@std@@@std@@@std@@QBE_NABV01@@Z ; std::_Vector_const_iterator<std::_Vector_val<ioOwnerAttach5Dummy::DistInfo,std::allocator<ioOwnerAttach5Dummy::DistInfo> > >::operator!=
; Function compile flags: /Ogsp
;	COMDAT ??9?$_Vector_const_iterator@V?$_Vector_val@UDistInfo@ioOwnerAttach5Dummy@@V?$allocator@UDistInfo@ioOwnerAttach5Dummy@@@std@@@std@@@std@@QBE_NABV01@@Z
_TEXT	SEGMENT
__Right$ = 8						; size = 4
??9?$_Vector_const_iterator@V?$_Vector_val@UDistInfo@ioOwnerAttach5Dummy@@V?$allocator@UDistInfo@ioOwnerAttach5Dummy@@@std@@@std@@@std@@QBE_NABV01@@Z PROC ; std::_Vector_const_iterator<std::_Vector_val<ioOwnerAttach5Dummy::DistInfo,std::allocator<ioOwnerAttach5Dummy::DistInfo> > >::operator!=, COMDAT
; _this$ = ecx

; 207  : 		{	// test for iterator inequality

  00000	55		 push	 ebp
  00001	8b ec		 mov	 ebp, esp

; 208  : 		return (!(*this == _Right));

  00003	8b 01		 mov	 eax, DWORD PTR [ecx]
  00005	8b 55 08	 mov	 edx, DWORD PTR __Right$[ebp]
  00008	33 c9		 xor	 ecx, ecx
  0000a	3b 02		 cmp	 eax, DWORD PTR [edx]
  0000c	0f 95 c0	 setne	 al

; 209  : 		}

  0000f	5d		 pop	 ebp
  00010	c2 04 00	 ret	 4
??9?$_Vector_const_iterator@V?$_Vector_val@UDistInfo@ioOwnerAttach5Dummy@@V?$allocator@UDistInfo@ioOwnerAttach5Dummy@@@std@@@std@@@std@@QBE_NABV01@@Z ENDP ; std::_Vector_const_iterator<std::_Vector_val<ioOwnerAttach5Dummy::DistInfo,std::allocator<ioOwnerAttach5Dummy::DistInfo> > >::operator!=
_TEXT	ENDS
PUBLIC	?_Grow_to@?$vector@VioHashString@@V?$allocator@VioHashString@@@std@@@std@@IBEII@Z ; std::vector<ioHashString,std::allocator<ioHashString> >::_Grow_to
; Function compile flags: /Ogsp
;	COMDAT ?_Grow_to@?$vector@VioHashString@@V?$allocator@VioHashString@@@std@@@std@@IBEII@Z
_TEXT	SEGMENT
__Count$ = 8						; size = 4
?_Grow_to@?$vector@VioHashString@@V?$allocator@VioHashString@@@std@@@std@@IBEII@Z PROC ; std::vector<ioHashString,std::allocator<ioHashString> >::_Grow_to, COMDAT
; _this$ = ecx

; 1274 : 		{	// grow by 50% or at least to _Count

  00000	55		 push	 ebp
  00001	8b ec		 mov	 ebp, esp

; 1275 : 		size_type _Capacity = capacity();

  00003	8b 41 08	 mov	 eax, DWORD PTR [ecx+8]
  00006	2b 01		 sub	 eax, DWORD PTR [ecx]

; 1276 : 
; 1277 : 		_Capacity = max_size() - _Capacity / 2 < _Capacity
; 1278 : 			? 0 : _Capacity + _Capacity / 2;	// try to grow by 50%

  00008	ba ff ff ff 0f	 mov	 edx, 268435455		; 0fffffffH
  0000d	c1 f8 04	 sar	 eax, 4
  00010	8b c8		 mov	 ecx, eax
  00012	d1 e9		 shr	 ecx, 1
  00014	2b d1		 sub	 edx, ecx
  00016	3b d0		 cmp	 edx, eax
  00018	73 04		 jae	 SHORT $LN4@Grow_to@2
  0001a	33 c0		 xor	 eax, eax
  0001c	eb 02		 jmp	 SHORT $LN5@Grow_to@2
$LN4@Grow_to@2:
  0001e	03 c1		 add	 eax, ecx
$LN5@Grow_to@2:

; 1279 : 		if (_Capacity < _Count)

  00020	3b 45 08	 cmp	 eax, DWORD PTR __Count$[ebp]

; 1280 : 			_Capacity = _Count;

  00023	0f 42 45 08	 cmovb	 eax, DWORD PTR __Count$[ebp]

; 1281 : 		return (_Capacity);
; 1282 : 		}

  00027	5d		 pop	 ebp
  00028	c2 04 00	 ret	 4
?_Grow_to@?$vector@VioHashString@@V?$allocator@VioHashString@@@std@@@std@@IBEII@Z ENDP ; std::vector<ioHashString,std::allocator<ioHashString> >::_Grow_to
_TEXT	ENDS
PUBLIC	?_Destroy@?$vector@PAVioBaseChar@@V?$allocator@PAVioBaseChar@@@std@@@std@@IAEXPAPAVioBaseChar@@0@Z ; std::vector<ioBaseChar *,std::allocator<ioBaseChar *> >::_Destroy
; Function compile flags: /Ogsp
;	COMDAT ?_Destroy@?$vector@PAVioBaseChar@@V?$allocator@PAVioBaseChar@@@std@@@std@@IAEXPAPAVioBaseChar@@0@Z
_TEXT	SEGMENT
__First$ = 8						; size = 4
__Last$ = 12						; size = 4
?_Destroy@?$vector@PAVioBaseChar@@V?$allocator@PAVioBaseChar@@@std@@@std@@IAEXPAPAVioBaseChar@@0@Z PROC ; std::vector<ioBaseChar *,std::allocator<ioBaseChar *> >::_Destroy, COMDAT
; _this$ = ecx

; 1270 : 		_Destroy_range(_First, _Last, this->_Alval);
; 1271 : 		}

  00000	c2 08 00	 ret	 8
?_Destroy@?$vector@PAVioBaseChar@@V?$allocator@PAVioBaseChar@@@std@@@std@@IAEXPAPAVioBaseChar@@0@Z ENDP ; std::vector<ioBaseChar *,std::allocator<ioBaseChar *> >::_Destroy
_TEXT	ENDS
PUBLIC	??$_Cons_val@V?$allocator@VioHashString@@@std@@VioHashString@@AAV3@@std@@YAXAAV?$allocator@VioHashString@@@0@PAVioHashString@@AAV2@@Z ; std::_Cons_val<std::allocator<ioHashString>,ioHashString,ioHashString &>
; Function compile flags: /Ogsp
; File c:\program files (x86)\microsoft visual studio 10.0\vc\include\xmemory
;	COMDAT ??$_Cons_val@V?$allocator@VioHashString@@@std@@VioHashString@@AAV3@@std@@YAXAAV?$allocator@VioHashString@@@0@PAVioHashString@@AAV2@@Z
_TEXT	SEGMENT
__Alval$ = 8						; size = 4
__Pdest$ = 12						; size = 4
__Src$ = 16						; size = 4
??$_Cons_val@V?$allocator@VioHashString@@@std@@VioHashString@@AAV3@@std@@YAXAAV?$allocator@VioHashString@@@0@PAVioHashString@@AAV2@@Z PROC ; std::_Cons_val<std::allocator<ioHashString>,ioHashString,ioHashString &>, COMDAT

; 279  : 	{	// construct using allocator

  00000	55		 push	 ebp
  00001	8b ec		 mov	 ebp, esp

; 280  : 	_Alval.construct(_Pdest, _STD forward<_Ty2>(_Src));

  00003	ff 75 10	 push	 DWORD PTR __Src$[ebp]
  00006	8b 4d 08	 mov	 ecx, DWORD PTR __Alval$[ebp]
  00009	ff 75 0c	 push	 DWORD PTR __Pdest$[ebp]
  0000c	e8 00 00 00 00	 call	 ??$construct@AAVioHashString@@@?$allocator@VioHashString@@@std@@QAEXPAVioHashString@@AAV2@@Z ; std::allocator<ioHashString>::construct<ioHashString &>

; 281  : 	}

  00011	5d		 pop	 ebp
  00012	c3		 ret	 0
??$_Cons_val@V?$allocator@VioHashString@@@std@@VioHashString@@AAV3@@std@@YAXAAV?$allocator@VioHashString@@@0@PAVioHashString@@AAV2@@Z ENDP ; std::_Cons_val<std::allocator<ioHashString>,ioHashString,ioHashString &>
_TEXT	ENDS
PUBLIC	??$_Cons_val@V?$allocator@UDistInfo@ioOwnerAttach5Dummy@@@std@@UDistInfo@ioOwnerAttach5Dummy@@ABU34@@std@@YAXAAV?$allocator@UDistInfo@ioOwnerAttach5Dummy@@@0@PAUDistInfo@ioOwnerAttach5Dummy@@ABU23@@Z ; std::_Cons_val<std::allocator<ioOwnerAttach5Dummy::DistInfo>,ioOwnerAttach5Dummy::DistInfo,ioOwnerAttach5Dummy::DistInfo const &>
; Function compile flags: /Ogsp
;	COMDAT ??$_Cons_val@V?$allocator@UDistInfo@ioOwnerAttach5Dummy@@@std@@UDistInfo@ioOwnerAttach5Dummy@@ABU34@@std@@YAXAAV?$allocator@UDistInfo@ioOwnerAttach5Dummy@@@0@PAUDistInfo@ioOwnerAttach5Dummy@@ABU23@@Z
_TEXT	SEGMENT
__Alval$ = 8						; size = 4
__Pdest$ = 12						; size = 4
__Src$ = 16						; size = 4
??$_Cons_val@V?$allocator@UDistInfo@ioOwnerAttach5Dummy@@@std@@UDistInfo@ioOwnerAttach5Dummy@@ABU34@@std@@YAXAAV?$allocator@UDistInfo@ioOwnerAttach5Dummy@@@0@PAUDistInfo@ioOwnerAttach5Dummy@@ABU23@@Z PROC ; std::_Cons_val<std::allocator<ioOwnerAttach5Dummy::DistInfo>,ioOwnerAttach5Dummy::DistInfo,ioOwnerAttach5Dummy::DistInfo const &>, COMDAT

; 279  : 	{	// construct using allocator

  00000	55		 push	 ebp
  00001	8b ec		 mov	 ebp, esp

; 280  : 	_Alval.construct(_Pdest, _STD forward<_Ty2>(_Src));

  00003	8b 45 0c	 mov	 eax, DWORD PTR __Pdest$[ebp]
  00006	85 c0		 test	 eax, eax
  00008	74 0d		 je	 SHORT $LN9@Cons_val@2
  0000a	8b 4d 10	 mov	 ecx, DWORD PTR __Src$[ebp]
  0000d	8b 11		 mov	 edx, DWORD PTR [ecx]
  0000f	89 10		 mov	 DWORD PTR [eax], edx
  00011	8b 49 04	 mov	 ecx, DWORD PTR [ecx+4]
  00014	89 48 04	 mov	 DWORD PTR [eax+4], ecx
$LN9@Cons_val@2:

; 281  : 	}

  00017	5d		 pop	 ebp
  00018	c3		 ret	 0
??$_Cons_val@V?$allocator@UDistInfo@ioOwnerAttach5Dummy@@@std@@UDistInfo@ioOwnerAttach5Dummy@@ABU34@@std@@YAXAAV?$allocator@UDistInfo@ioOwnerAttach5Dummy@@@0@PAUDistInfo@ioOwnerAttach5Dummy@@ABU23@@Z ENDP ; std::_Cons_val<std::allocator<ioOwnerAttach5Dummy::DistInfo>,ioOwnerAttach5Dummy::DistInfo,ioOwnerAttach5Dummy::DistInfo const &>
_TEXT	ENDS
PUBLIC	??$_Move@PAUDistInfo@ioOwnerAttach5Dummy@@PAU12@@std@@YAPAUDistInfo@ioOwnerAttach5Dummy@@PAU12@00@Z ; std::_Move<ioOwnerAttach5Dummy::DistInfo *,ioOwnerAttach5Dummy::DistInfo *>
; Function compile flags: /Ogsp
; File c:\program files (x86)\microsoft visual studio 10.0\vc\include\xutility
;	COMDAT ??$_Move@PAUDistInfo@ioOwnerAttach5Dummy@@PAU12@@std@@YAPAUDistInfo@ioOwnerAttach5Dummy@@PAU12@00@Z
_TEXT	SEGMENT
__Cat$575372 = -4					; size = 1
__First$ = 8						; size = 4
__Last$ = 12						; size = 4
__Dest$ = 16						; size = 4
??$_Move@PAUDistInfo@ioOwnerAttach5Dummy@@PAU12@@std@@YAPAUDistInfo@ioOwnerAttach5Dummy@@PAU12@00@Z PROC ; std::_Move<ioOwnerAttach5Dummy::DistInfo *,ioOwnerAttach5Dummy::DistInfo *>, COMDAT

; 2533 : 	{	// move [_First, _Last) to [_Dest, ...), unchecked

  00000	55		 push	 ebp
  00001	8b ec		 mov	 ebp, esp
  00003	51		 push	 ecx

; 2534 : 	return (_Move(_First, _Last,
; 2535 : 		_Dest, _Ptr_cat(_First, _Dest)));

  00004	ff 75 fc	 push	 DWORD PTR __Cat$575372[ebp]
  00007	ff 75 10	 push	 DWORD PTR __Dest$[ebp]
  0000a	ff 75 0c	 push	 DWORD PTR __Last$[ebp]
  0000d	ff 75 08	 push	 DWORD PTR __First$[ebp]
  00010	e8 00 00 00 00	 call	 ??$_Move@PAUDistInfo@ioOwnerAttach5Dummy@@PAU12@@std@@YAPAUDistInfo@ioOwnerAttach5Dummy@@PAU12@00U_Nonscalar_ptr_iterator_tag@0@@Z ; std::_Move<ioOwnerAttach5Dummy::DistInfo *,ioOwnerAttach5Dummy::DistInfo *>
  00015	83 c4 10	 add	 esp, 16			; 00000010H

; 2536 : 	}

  00018	c9		 leave
  00019	c3		 ret	 0
??$_Move@PAUDistInfo@ioOwnerAttach5Dummy@@PAU12@@std@@YAPAUDistInfo@ioOwnerAttach5Dummy@@PAU12@00@Z ENDP ; std::_Move<ioOwnerAttach5Dummy::DistInfo *,ioOwnerAttach5Dummy::DistInfo *>
_TEXT	ENDS
PUBLIC	??$_Dest_val@V?$allocator@UDistInfo@ioOwnerAttach5Dummy@@@std@@UDistInfo@ioOwnerAttach5Dummy@@@std@@YAXAAV?$allocator@UDistInfo@ioOwnerAttach5Dummy@@@0@PAUDistInfo@ioOwnerAttach5Dummy@@@Z ; std::_Dest_val<std::allocator<ioOwnerAttach5Dummy::DistInfo>,ioOwnerAttach5Dummy::DistInfo>
; Function compile flags: /Ogsp
; File c:\program files (x86)\microsoft visual studio 10.0\vc\include\xmemory
;	COMDAT ??$_Dest_val@V?$allocator@UDistInfo@ioOwnerAttach5Dummy@@@std@@UDistInfo@ioOwnerAttach5Dummy@@@std@@YAXAAV?$allocator@UDistInfo@ioOwnerAttach5Dummy@@@0@PAUDistInfo@ioOwnerAttach5Dummy@@@Z
_TEXT	SEGMENT
__Alval$ = 8						; size = 4
__Pdest$ = 12						; size = 4
??$_Dest_val@V?$allocator@UDistInfo@ioOwnerAttach5Dummy@@@std@@UDistInfo@ioOwnerAttach5Dummy@@@std@@YAXAAV?$allocator@UDistInfo@ioOwnerAttach5Dummy@@@0@PAUDistInfo@ioOwnerAttach5Dummy@@@Z PROC ; std::_Dest_val<std::allocator<ioOwnerAttach5Dummy::DistInfo>,ioOwnerAttach5Dummy::DistInfo>, COMDAT

; 287  : 	_Alval.destroy(_Pdest);
; 288  : 	}

  00000	c3		 ret	 0
??$_Dest_val@V?$allocator@UDistInfo@ioOwnerAttach5Dummy@@@std@@UDistInfo@ioOwnerAttach5Dummy@@@std@@YAXAAV?$allocator@UDistInfo@ioOwnerAttach5Dummy@@@0@PAUDistInfo@ioOwnerAttach5Dummy@@@Z ENDP ; std::_Dest_val<std::allocator<ioOwnerAttach5Dummy::DistInfo>,ioOwnerAttach5Dummy::DistInfo>
_TEXT	ENDS
PUBLIC	??$iter_swap@PAUDistInfo@ioOwnerAttach5Dummy@@PAU12@@std@@YAXPAUDistInfo@ioOwnerAttach5Dummy@@0@Z ; std::iter_swap<ioOwnerAttach5Dummy::DistInfo *,ioOwnerAttach5Dummy::DistInfo *>
; Function compile flags: /Ogsp
; File c:\program files (x86)\microsoft visual studio 10.0\vc\include\xutility
;	COMDAT ??$iter_swap@PAUDistInfo@ioOwnerAttach5Dummy@@PAU12@@std@@YAXPAUDistInfo@ioOwnerAttach5Dummy@@0@Z
_TEXT	SEGMENT
__Left$ = 8						; size = 4
__Right$ = 12						; size = 4
??$iter_swap@PAUDistInfo@ioOwnerAttach5Dummy@@PAU12@@std@@YAXPAUDistInfo@ioOwnerAttach5Dummy@@0@Z PROC ; std::iter_swap<ioOwnerAttach5Dummy::DistInfo *,ioOwnerAttach5Dummy::DistInfo *>, COMDAT

; 2133 : 	{	// swap *_Left and *_Right

  00000	55		 push	 ebp
  00001	8b ec		 mov	 ebp, esp

; 2134 : 	swap(*_Left, *_Right);

  00003	8b 4d 0c	 mov	 ecx, DWORD PTR __Right$[ebp]
  00006	8b 45 08	 mov	 eax, DWORD PTR __Left$[ebp]
  00009	8b 10		 mov	 edx, DWORD PTR [eax]
  0000b	56		 push	 esi
  0000c	8b 70 04	 mov	 esi, DWORD PTR [eax+4]
  0000f	57		 push	 edi
  00010	8b 39		 mov	 edi, DWORD PTR [ecx]
  00012	89 38		 mov	 DWORD PTR [eax], edi
  00014	8b 79 04	 mov	 edi, DWORD PTR [ecx+4]
  00017	89 78 04	 mov	 DWORD PTR [eax+4], edi
  0001a	5f		 pop	 edi
  0001b	89 71 04	 mov	 DWORD PTR [ecx+4], esi
  0001e	89 11		 mov	 DWORD PTR [ecx], edx
  00020	5e		 pop	 esi

; 2135 : 	}

  00021	5d		 pop	 ebp
  00022	c3		 ret	 0
??$iter_swap@PAUDistInfo@ioOwnerAttach5Dummy@@PAU12@@std@@YAXPAUDistInfo@ioOwnerAttach5Dummy@@0@Z ENDP ; std::iter_swap<ioOwnerAttach5Dummy::DistInfo *,ioOwnerAttach5Dummy::DistInfo *>
_TEXT	ENDS
PUBLIC	??$_Make_heap@PAUDistInfo@ioOwnerAttach5Dummy@@HU12@@std@@YAXPAUDistInfo@ioOwnerAttach5Dummy@@0PAH0@Z ; std::_Make_heap<ioOwnerAttach5Dummy::DistInfo *,int,ioOwnerAttach5Dummy::DistInfo>
; Function compile flags: /Ogsp
; File c:\program files (x86)\microsoft visual studio 10.0\vc\include\algorithm
;	COMDAT ??$_Make_heap@PAUDistInfo@ioOwnerAttach5Dummy@@HU12@@std@@YAXPAUDistInfo@ioOwnerAttach5Dummy@@0PAH0@Z
_TEXT	SEGMENT
__Val$572421 = -8					; size = 8
__First$ = 8						; size = 4
__Last$ = 12						; size = 4
___formal$ = 16						; size = 4
___formal$ = 20						; size = 4
??$_Make_heap@PAUDistInfo@ioOwnerAttach5Dummy@@HU12@@std@@YAXPAUDistInfo@ioOwnerAttach5Dummy@@0PAH0@Z PROC ; std::_Make_heap<ioOwnerAttach5Dummy::DistInfo *,int,ioOwnerAttach5Dummy::DistInfo>, COMDAT

; 2631 : 	{	// make nontrivial [_First, _Last) into a heap, using operator<

  00000	55		 push	 ebp
  00001	8b ec		 mov	 ebp, esp
  00003	51		 push	 ecx
  00004	51		 push	 ecx
  00005	53		 push	 ebx

; 2632 : 	_Diff _Bottom = _Last - _First;

  00006	8b 5d 08	 mov	 ebx, DWORD PTR __First$[ebp]
  00009	56		 push	 esi
  0000a	57		 push	 edi
  0000b	8b 7d 0c	 mov	 edi, DWORD PTR __Last$[ebp]
  0000e	2b fb		 sub	 edi, ebx
  00010	c1 ff 03	 sar	 edi, 3

; 2633 : 
; 2634 : 	for (_Diff _Hole = _Bottom / 2; 0 < _Hole; )

  00013	8b c7		 mov	 eax, edi
  00015	99		 cdq
  00016	2b c2		 sub	 eax, edx
  00018	8b f0		 mov	 esi, eax
  0001a	d1 fe		 sar	 esi, 1
  0001c	85 f6		 test	 esi, esi
  0001e	7e 27		 jle	 SHORT $LN1@Make_heap

; 2632 : 	_Diff _Bottom = _Last - _First;

  00020	8d 1c f3	 lea	 ebx, DWORD PTR [ebx+esi*8]
$LL2@Make_heap:

; 2635 : 		{	// reheap top half, bottom to top
; 2636 : 		--_Hole;

  00023	83 eb 08	 sub	 ebx, 8

; 2637 : 		_Ty _Val = _Move(*(_First + _Hole));

  00026	8b 03		 mov	 eax, DWORD PTR [ebx]
  00028	89 45 f8	 mov	 DWORD PTR __Val$572421[ebp], eax
  0002b	8b 43 04	 mov	 eax, DWORD PTR [ebx+4]
  0002e	89 45 fc	 mov	 DWORD PTR __Val$572421[ebp+4], eax

; 2638 : 		_Adjust_heap(_First, _Hole, _Bottom,
; 2639 : 			_Move(_Val));

  00031	8d 45 f8	 lea	 eax, DWORD PTR __Val$572421[ebp]
  00034	50		 push	 eax
  00035	57		 push	 edi
  00036	4e		 dec	 esi
  00037	56		 push	 esi
  00038	ff 75 08	 push	 DWORD PTR __First$[ebp]
  0003b	e8 00 00 00 00	 call	 ??$_Adjust_heap@PAUDistInfo@ioOwnerAttach5Dummy@@HU12@@std@@YAXPAUDistInfo@ioOwnerAttach5Dummy@@HH$$QAU12@@Z ; std::_Adjust_heap<ioOwnerAttach5Dummy::DistInfo *,int,ioOwnerAttach5Dummy::DistInfo>
  00040	83 c4 10	 add	 esp, 16			; 00000010H
  00043	85 f6		 test	 esi, esi
  00045	7f dc		 jg	 SHORT $LL2@Make_heap
$LN1@Make_heap:
  00047	5f		 pop	 edi
  00048	5e		 pop	 esi
  00049	5b		 pop	 ebx

; 2640 : 		}
; 2641 : 	}

  0004a	c9		 leave
  0004b	c3		 ret	 0
??$_Make_heap@PAUDistInfo@ioOwnerAttach5Dummy@@HU12@@std@@YAXPAUDistInfo@ioOwnerAttach5Dummy@@0PAH0@Z ENDP ; std::_Make_heap<ioOwnerAttach5Dummy::DistInfo *,int,ioOwnerAttach5Dummy::DistInfo>
_TEXT	ENDS
PUBLIC	??$_Insertion_sort1@PAUDistInfo@ioOwnerAttach5Dummy@@U12@@std@@YAXPAUDistInfo@ioOwnerAttach5Dummy@@00@Z ; std::_Insertion_sort1<ioOwnerAttach5Dummy::DistInfo *,ioOwnerAttach5Dummy::DistInfo>
; Function compile flags: /Ogsp
;	COMDAT ??$_Insertion_sort1@PAUDistInfo@ioOwnerAttach5Dummy@@U12@@std@@YAXPAUDistInfo@ioOwnerAttach5Dummy@@00@Z
_TEXT	SEGMENT
__Val$572452 = -8					; size = 8
__First$ = 8						; size = 4
__Cat$575439 = 12					; size = 1
__Last$ = 12						; size = 4
___formal$ = 16						; size = 4
??$_Insertion_sort1@PAUDistInfo@ioOwnerAttach5Dummy@@U12@@std@@YAXPAUDistInfo@ioOwnerAttach5Dummy@@00@Z PROC ; std::_Insertion_sort1<ioOwnerAttach5Dummy::DistInfo *,ioOwnerAttach5Dummy::DistInfo>, COMDAT

; 3493 : 	{	// insertion sort [_First, _Last), using operator<

  00000	55		 push	 ebp
  00001	8b ec		 mov	 ebp, esp
  00003	51		 push	 ecx
  00004	51		 push	 ecx
  00005	57		 push	 edi

; 3494 : 	if (_First != _Last)

  00006	8b 7d 08	 mov	 edi, DWORD PTR __First$[ebp]
  00009	3b 7d 0c	 cmp	 edi, DWORD PTR __Last$[ebp]
  0000c	0f 84 80 00 00
	00		 je	 $LN6@Insertion_

; 3495 : 		for (_BidIt _Next = _First; ++_Next != _Last; )

  00012	56		 push	 esi
  00013	8d 77 08	 lea	 esi, DWORD PTR [edi+8]
  00016	3b 75 0c	 cmp	 esi, DWORD PTR __Last$[ebp]
  00019	74 76		 je	 SHORT $LN35@Insertion_
  0001b	53		 push	 ebx
$LL7@Insertion_:

; 3496 : 			{	// order next element
; 3497 : 			_BidIt _Next1 = _Next;
; 3498 : 			_Ty _Val = _Move(*_Next);

  0001c	8b 4e 04	 mov	 ecx, DWORD PTR [esi+4]

; 3499 : 
; 3500 : 			if (_DEBUG_LT(_Val, *_First))

  0001f	f3 0f 10 4f 04	 movss	 xmm1, DWORD PTR [edi+4]
  00024	8b 1e		 mov	 ebx, DWORD PTR [esi]
  00026	89 4d fc	 mov	 DWORD PTR __Val$572452[ebp+4], ecx
  00029	f3 0f 10 45 fc	 movss	 xmm0, DWORD PTR __Val$572452[ebp+4]
  0002e	0f 5a c0	 cvtps2pd xmm0, xmm0
  00031	0f 5a c9	 cvtps2pd xmm1, xmm1
  00034	66 0f 2f c8	 comisd	 xmm1, xmm0
  00038	8b c6		 mov	 eax, esi
  0003a	76 1b		 jbe	 SHORT $LN5@Insertion_

; 3501 : 				{	// found new earliest element, move to front
; 3502 : 				_Move_backward(_First, _Next, ++_Next1);

  0003c	ff 75 0c	 push	 DWORD PTR __Cat$575439[ebp]
  0003f	8d 46 08	 lea	 eax, DWORD PTR [esi+8]
  00042	50		 push	 eax
  00043	56		 push	 esi
  00044	57		 push	 edi
  00045	e8 00 00 00 00	 call	 ??$_Move_backward@PAUDistInfo@ioOwnerAttach5Dummy@@PAU12@@std@@YAPAUDistInfo@ioOwnerAttach5Dummy@@PAU12@00U_Nonscalar_ptr_iterator_tag@0@@Z ; std::_Move_backward<ioOwnerAttach5Dummy::DistInfo *,ioOwnerAttach5Dummy::DistInfo *>

; 3503 : 				*_First = _Move(_Val);

  0004a	8b 45 fc	 mov	 eax, DWORD PTR __Val$572452[ebp+4]
  0004d	83 c4 10	 add	 esp, 16			; 00000010H
  00050	89 1f		 mov	 DWORD PTR [edi], ebx
  00052	89 47 04	 mov	 DWORD PTR [edi+4], eax

; 3504 : 				}
; 3505 : 			else

  00055	eb 31		 jmp	 SHORT $LN4@Insertion_
$LN5@Insertion_:

; 3506 : 				{	// look for insertion point after first
; 3507 : 				for (_BidIt _First1 = _Next1;

  00057	8b ce		 mov	 ecx, esi
$LL3@Insertion_:

; 3508 : 					_DEBUG_LT(_Val, *--_First1);
; 3509 : 					_Next1 = _First1)

  00059	f3 0f 10 45 fc	 movss	 xmm0, DWORD PTR __Val$572452[ebp+4]
  0005e	f3 0f 10 49 fc	 movss	 xmm1, DWORD PTR [ecx-4]
  00063	83 e9 08	 sub	 ecx, 8
  00066	0f 5a c0	 cvtps2pd xmm0, xmm0
  00069	0f 5a c9	 cvtps2pd xmm1, xmm1
  0006c	66 0f 2f c8	 comisd	 xmm1, xmm0
  00070	76 0e		 jbe	 SHORT $LN25@Insertion_

; 3510 : 					*_Next1 = _Move(*_First1);	// move hole down

  00072	8b 11		 mov	 edx, DWORD PTR [ecx]
  00074	89 10		 mov	 DWORD PTR [eax], edx
  00076	8b 51 04	 mov	 edx, DWORD PTR [ecx+4]
  00079	89 50 04	 mov	 DWORD PTR [eax+4], edx
  0007c	8b c1		 mov	 eax, ecx
  0007e	eb d9		 jmp	 SHORT $LL3@Insertion_

; 3508 : 					_DEBUG_LT(_Val, *--_First1);
; 3509 : 					_Next1 = _First1)

$LN25@Insertion_:

; 3511 : 				*_Next1 = _Move(_Val);	// insert element in hole

  00080	8b 4d fc	 mov	 ecx, DWORD PTR __Val$572452[ebp+4]
  00083	89 18		 mov	 DWORD PTR [eax], ebx
  00085	89 48 04	 mov	 DWORD PTR [eax+4], ecx
$LN4@Insertion_:

; 3495 : 		for (_BidIt _Next = _First; ++_Next != _Last; )

  00088	83 c6 08	 add	 esi, 8
  0008b	3b 75 0c	 cmp	 esi, DWORD PTR __Last$[ebp]
  0008e	75 8c		 jne	 SHORT $LL7@Insertion_
  00090	5b		 pop	 ebx
$LN35@Insertion_:
  00091	5e		 pop	 esi
$LN6@Insertion_:
  00092	5f		 pop	 edi

; 3512 : 				}
; 3513 : 			}
; 3514 : 	}

  00093	c9		 leave
  00094	c3		 ret	 0
??$_Insertion_sort1@PAUDistInfo@ioOwnerAttach5Dummy@@U12@@std@@YAXPAUDistInfo@ioOwnerAttach5Dummy@@00@Z ENDP ; std::_Insertion_sort1<ioOwnerAttach5Dummy::DistInfo *,ioOwnerAttach5Dummy::DistInfo>
_TEXT	ENDS
PUBLIC	??$_Cons_val@V?$allocator@VioHashString@@@std@@VioHashString@@V3@@std@@YAXAAV?$allocator@VioHashString@@@0@PAVioHashString@@$$QAV2@@Z ; std::_Cons_val<std::allocator<ioHashString>,ioHashString,ioHashString>
; Function compile flags: /Ogsp
; File c:\program files (x86)\microsoft visual studio 10.0\vc\include\xmemory
;	COMDAT ??$_Cons_val@V?$allocator@VioHashString@@@std@@VioHashString@@V3@@std@@YAXAAV?$allocator@VioHashString@@@0@PAVioHashString@@$$QAV2@@Z
_TEXT	SEGMENT
__Alval$ = 8						; size = 4
__Pdest$ = 12						; size = 4
__Src$ = 16						; size = 4
??$_Cons_val@V?$allocator@VioHashString@@@std@@VioHashString@@V3@@std@@YAXAAV?$allocator@VioHashString@@@0@PAVioHashString@@$$QAV2@@Z PROC ; std::_Cons_val<std::allocator<ioHashString>,ioHashString,ioHashString>, COMDAT

; 279  : 	{	// construct using allocator

  00000	55		 push	 ebp
  00001	8b ec		 mov	 ebp, esp

; 280  : 	_Alval.construct(_Pdest, _STD forward<_Ty2>(_Src));

  00003	ff 75 10	 push	 DWORD PTR __Src$[ebp]
  00006	8b 4d 08	 mov	 ecx, DWORD PTR __Alval$[ebp]
  00009	ff 75 0c	 push	 DWORD PTR __Pdest$[ebp]
  0000c	e8 00 00 00 00	 call	 ?construct@?$allocator@VioHashString@@@std@@QAEXPAVioHashString@@$$QAV3@@Z ; std::allocator<ioHashString>::construct

; 281  : 	}

  00011	5d		 pop	 ebp
  00012	c3		 ret	 0
??$_Cons_val@V?$allocator@VioHashString@@@std@@VioHashString@@V3@@std@@YAXAAV?$allocator@VioHashString@@@0@PAVioHashString@@$$QAV2@@Z ENDP ; std::_Cons_val<std::allocator<ioHashString>,ioHashString,ioHashString>
_TEXT	ENDS
PUBLIC	??$_Cons_val@V?$allocator@UDistInfo@ioOwnerAttach5Dummy@@@std@@UDistInfo@ioOwnerAttach5Dummy@@U34@@std@@YAXAAV?$allocator@UDistInfo@ioOwnerAttach5Dummy@@@0@PAUDistInfo@ioOwnerAttach5Dummy@@$$QAU23@@Z ; std::_Cons_val<std::allocator<ioOwnerAttach5Dummy::DistInfo>,ioOwnerAttach5Dummy::DistInfo,ioOwnerAttach5Dummy::DistInfo>
; Function compile flags: /Ogsp
;	COMDAT ??$_Cons_val@V?$allocator@UDistInfo@ioOwnerAttach5Dummy@@@std@@UDistInfo@ioOwnerAttach5Dummy@@U34@@std@@YAXAAV?$allocator@UDistInfo@ioOwnerAttach5Dummy@@@0@PAUDistInfo@ioOwnerAttach5Dummy@@$$QAU23@@Z
_TEXT	SEGMENT
__Alval$ = 8						; size = 4
__Pdest$ = 12						; size = 4
__Src$ = 16						; size = 4
??$_Cons_val@V?$allocator@UDistInfo@ioOwnerAttach5Dummy@@@std@@UDistInfo@ioOwnerAttach5Dummy@@U34@@std@@YAXAAV?$allocator@UDistInfo@ioOwnerAttach5Dummy@@@0@PAUDistInfo@ioOwnerAttach5Dummy@@$$QAU23@@Z PROC ; std::_Cons_val<std::allocator<ioOwnerAttach5Dummy::DistInfo>,ioOwnerAttach5Dummy::DistInfo,ioOwnerAttach5Dummy::DistInfo>, COMDAT

; 279  : 	{	// construct using allocator

  00000	55		 push	 ebp
  00001	8b ec		 mov	 ebp, esp

; 280  : 	_Alval.construct(_Pdest, _STD forward<_Ty2>(_Src));

  00003	8b 45 0c	 mov	 eax, DWORD PTR __Pdest$[ebp]
  00006	85 c0		 test	 eax, eax
  00008	74 0d		 je	 SHORT $LN7@Cons_val@3
  0000a	8b 4d 10	 mov	 ecx, DWORD PTR __Src$[ebp]
  0000d	8b 11		 mov	 edx, DWORD PTR [ecx]
  0000f	89 10		 mov	 DWORD PTR [eax], edx
  00011	8b 49 04	 mov	 ecx, DWORD PTR [ecx+4]
  00014	89 48 04	 mov	 DWORD PTR [eax+4], ecx
$LN7@Cons_val@3:

; 281  : 	}

  00017	5d		 pop	 ebp
  00018	c3		 ret	 0
??$_Cons_val@V?$allocator@UDistInfo@ioOwnerAttach5Dummy@@@std@@UDistInfo@ioOwnerAttach5Dummy@@U34@@std@@YAXAAV?$allocator@UDistInfo@ioOwnerAttach5Dummy@@@0@PAUDistInfo@ioOwnerAttach5Dummy@@$$QAU23@@Z ENDP ; std::_Cons_val<std::allocator<ioOwnerAttach5Dummy::DistInfo>,ioOwnerAttach5Dummy::DistInfo,ioOwnerAttach5Dummy::DistInfo>
_TEXT	ENDS
PUBLIC	??$_Med3@PAUDistInfo@ioOwnerAttach5Dummy@@@std@@YAXPAUDistInfo@ioOwnerAttach5Dummy@@00@Z ; std::_Med3<ioOwnerAttach5Dummy::DistInfo *>
; Function compile flags: /Ogsp
; File c:\program files (x86)\microsoft visual studio 10.0\vc\include\algorithm
;	COMDAT ??$_Med3@PAUDistInfo@ioOwnerAttach5Dummy@@@std@@YAXPAUDistInfo@ioOwnerAttach5Dummy@@00@Z
_TEXT	SEGMENT
__First$ = 8						; size = 4
__Mid$ = 12						; size = 4
__Last$ = 16						; size = 4
??$_Med3@PAUDistInfo@ioOwnerAttach5Dummy@@@std@@YAXPAUDistInfo@ioOwnerAttach5Dummy@@00@Z PROC ; std::_Med3<ioOwnerAttach5Dummy::DistInfo *>, COMDAT

; 3524 : 	{	// sort median of three elements to middle

  00000	55		 push	 ebp
  00001	8b ec		 mov	 ebp, esp

; 3525 : 	if (_DEBUG_LT(*_Mid, *_First))

  00003	8b 45 0c	 mov	 eax, DWORD PTR __Mid$[ebp]
  00006	8b 4d 08	 mov	 ecx, DWORD PTR __First$[ebp]
  00009	f3 0f 10 40 04	 movss	 xmm0, DWORD PTR [eax+4]
  0000e	f3 0f 10 49 04	 movss	 xmm1, DWORD PTR [ecx+4]
  00013	56		 push	 esi
  00014	0f 5a c0	 cvtps2pd xmm0, xmm0
  00017	0f 5a c9	 cvtps2pd xmm1, xmm1
  0001a	66 0f 2f c8	 comisd	 xmm1, xmm0
  0001e	57		 push	 edi
  0001f	76 14		 jbe	 SHORT $LN12@Med3

; 3526 : 		_STD iter_swap(_Mid, _First);

  00021	8b 39		 mov	 edi, DWORD PTR [ecx]
  00023	8b 10		 mov	 edx, DWORD PTR [eax]
  00025	8b 70 04	 mov	 esi, DWORD PTR [eax+4]
  00028	89 38		 mov	 DWORD PTR [eax], edi
  0002a	8b 79 04	 mov	 edi, DWORD PTR [ecx+4]
  0002d	89 78 04	 mov	 DWORD PTR [eax+4], edi
  00030	89 11		 mov	 DWORD PTR [ecx], edx
  00032	89 71 04	 mov	 DWORD PTR [ecx+4], esi
$LN12@Med3:

; 3527 : 	if (_DEBUG_LT(*_Last, *_Mid))

  00035	8b 55 10	 mov	 edx, DWORD PTR __Last$[ebp]
  00038	f3 0f 10 42 04	 movss	 xmm0, DWORD PTR [edx+4]
  0003d	f3 0f 10 48 04	 movss	 xmm1, DWORD PTR [eax+4]
  00042	0f 5a c0	 cvtps2pd xmm0, xmm0
  00045	0f 5a c9	 cvtps2pd xmm1, xmm1
  00048	66 0f 2f c8	 comisd	 xmm1, xmm0
  0004c	76 16		 jbe	 SHORT $LN26@Med3

; 3528 : 		_STD iter_swap(_Last, _Mid);

  0004e	8b 32		 mov	 esi, DWORD PTR [edx]
  00050	8b 7a 04	 mov	 edi, DWORD PTR [edx+4]
  00053	53		 push	 ebx
  00054	8b 18		 mov	 ebx, DWORD PTR [eax]
  00056	89 1a		 mov	 DWORD PTR [edx], ebx
  00058	8b 58 04	 mov	 ebx, DWORD PTR [eax+4]
  0005b	89 5a 04	 mov	 DWORD PTR [edx+4], ebx
  0005e	89 30		 mov	 DWORD PTR [eax], esi
  00060	89 78 04	 mov	 DWORD PTR [eax+4], edi
  00063	5b		 pop	 ebx
$LN26@Med3:

; 3529 : 	if (_DEBUG_LT(*_Mid, *_First))

  00064	f3 0f 10 40 04	 movss	 xmm0, DWORD PTR [eax+4]
  00069	f3 0f 10 49 04	 movss	 xmm1, DWORD PTR [ecx+4]
  0006e	0f 5a c0	 cvtps2pd xmm0, xmm0
  00071	0f 5a c9	 cvtps2pd xmm1, xmm1
  00074	66 0f 2f c8	 comisd	 xmm1, xmm0
  00078	76 14		 jbe	 SHORT $LN40@Med3

; 3530 : 		_STD iter_swap(_Mid, _First);

  0007a	8b 39		 mov	 edi, DWORD PTR [ecx]
  0007c	8b 10		 mov	 edx, DWORD PTR [eax]
  0007e	8b 70 04	 mov	 esi, DWORD PTR [eax+4]
  00081	89 38		 mov	 DWORD PTR [eax], edi
  00083	8b 79 04	 mov	 edi, DWORD PTR [ecx+4]
  00086	89 78 04	 mov	 DWORD PTR [eax+4], edi
  00089	89 11		 mov	 DWORD PTR [ecx], edx
  0008b	89 71 04	 mov	 DWORD PTR [ecx+4], esi
$LN40@Med3:
  0008e	5f		 pop	 edi
  0008f	5e		 pop	 esi

; 3531 : 	}

  00090	5d		 pop	 ebp
  00091	c3		 ret	 0
??$_Med3@PAUDistInfo@ioOwnerAttach5Dummy@@@std@@YAXPAUDistInfo@ioOwnerAttach5Dummy@@00@Z ENDP ; std::_Med3<ioOwnerAttach5Dummy::DistInfo *>
_TEXT	ENDS
PUBLIC	??$_Pop_heap_0@PAUDistInfo@ioOwnerAttach5Dummy@@U12@@std@@YAXPAUDistInfo@ioOwnerAttach5Dummy@@00@Z ; std::_Pop_heap_0<ioOwnerAttach5Dummy::DistInfo *,ioOwnerAttach5Dummy::DistInfo>
; Function compile flags: /Ogsp
;	COMDAT ??$_Pop_heap_0@PAUDistInfo@ioOwnerAttach5Dummy@@U12@@std@@YAXPAUDistInfo@ioOwnerAttach5Dummy@@00@Z
_TEXT	SEGMENT
__Val$ = -8						; size = 8
__First$ = 8						; size = 4
__Last$ = 12						; size = 4
___formal$ = 16						; size = 4
??$_Pop_heap_0@PAUDistInfo@ioOwnerAttach5Dummy@@U12@@std@@YAXPAUDistInfo@ioOwnerAttach5Dummy@@00@Z PROC ; std::_Pop_heap_0<ioOwnerAttach5Dummy::DistInfo *,ioOwnerAttach5Dummy::DistInfo>, COMDAT

; 2536 : 	{	// pop *_First to *(_Last - 1) and reheap, using operator<

  00000	55		 push	 ebp
  00001	8b ec		 mov	 ebp, esp
  00003	51		 push	 ecx
  00004	51		 push	 ecx

; 2537 : 	_Ty _Val = _Move(*(_Last - 1));

  00005	8b 45 0c	 mov	 eax, DWORD PTR __Last$[ebp]
  00008	83 c0 f8	 add	 eax, -8			; fffffff8H
  0000b	8b 08		 mov	 ecx, DWORD PTR [eax]
  0000d	89 4d f8	 mov	 DWORD PTR __Val$[ebp], ecx
  00010	8b 48 04	 mov	 ecx, DWORD PTR [eax+4]

; 2538 : 	_Pop_heap(_First, _Last - 1, _Last - 1,
; 2539 : 		_Move(_Val), _Dist_type(_First));

  00013	6a 00		 push	 0
  00015	89 4d fc	 mov	 DWORD PTR __Val$[ebp+4], ecx
  00018	8d 4d f8	 lea	 ecx, DWORD PTR __Val$[ebp]
  0001b	51		 push	 ecx
  0001c	50		 push	 eax
  0001d	50		 push	 eax
  0001e	ff 75 08	 push	 DWORD PTR __First$[ebp]
  00021	e8 00 00 00 00	 call	 ??$_Pop_heap@PAUDistInfo@ioOwnerAttach5Dummy@@HU12@@std@@YAXPAUDistInfo@ioOwnerAttach5Dummy@@00$$QAU12@PAH@Z ; std::_Pop_heap<ioOwnerAttach5Dummy::DistInfo *,int,ioOwnerAttach5Dummy::DistInfo>
  00026	83 c4 14	 add	 esp, 20			; 00000014H

; 2540 : 	}

  00029	c9		 leave
  0002a	c3		 ret	 0
??$_Pop_heap_0@PAUDistInfo@ioOwnerAttach5Dummy@@U12@@std@@YAXPAUDistInfo@ioOwnerAttach5Dummy@@00@Z ENDP ; std::_Pop_heap_0<ioOwnerAttach5Dummy::DistInfo *,ioOwnerAttach5Dummy::DistInfo>
_TEXT	ENDS
PUBLIC	?GetTeam@ioPlayEntity@@QBE?AW4TeamType@@XZ	; ioPlayEntity::GetTeam
; Function compile flags: /Ogsp
; File d:\lost saga for developer\youtube\tutorial\source\src\lsclient\ioplayentity.h
;	COMDAT ?GetTeam@ioPlayEntity@@QBE?AW4TeamType@@XZ
_TEXT	SEGMENT
_value$575629 = -4					; size = 4
?GetTeam@ioPlayEntity@@QBE?AW4TeamType@@XZ PROC		; ioPlayEntity::GetTeam, COMDAT
; _this$ = ecx

; 107  : 	inline TeamType GetTeam() const { return m_TeamType; }

  00000	55		 push	 ebp
  00001	8b ec		 mov	 ebp, esp
  00003	51		 push	 ecx
  00004	8d 45 fc	 lea	 eax, DWORD PTR _value$575629[ebp]
  00007	50		 push	 eax
  00008	81 c1 90 00 00
	00		 add	 ecx, 144		; 00000090H
  0000e	e8 00 00 00 00	 call	 ?DecryptValueToPool@?$CEncrypt@W4TeamType@@@@QAEXPAW4TeamType@@@Z ; CEncrypt<enum TeamType>::DecryptValueToPool
  00013	8b 45 fc	 mov	 eax, DWORD PTR _value$575629[ebp]
  00016	c9		 leave
  00017	c3		 ret	 0
?GetTeam@ioPlayEntity@@QBE?AW4TeamType@@XZ ENDP		; ioPlayEntity::GetTeam
_TEXT	ENDS
PUBLIC	?IsNoWoundedWeapon@ioWeapon@@QBE_NXZ		; ioWeapon::IsNoWoundedWeapon
; Function compile flags: /Ogsp
; File d:\lost saga for developer\youtube\tutorial\source\src\lsclient\ioweapon.h
;	COMDAT ?IsNoWoundedWeapon@ioWeapon@@QBE_NXZ
_TEXT	SEGMENT
_value$575636 = -1					; size = 1
?IsNoWoundedWeapon@ioWeapon@@QBE_NXZ PROC		; ioWeapon::IsNoWoundedWeapon, COMDAT
; _this$ = ecx

; 552  : 	inline bool IsNoWoundedWeapon() const { return m_bNoWoundedWeapon; }

  00000	55		 push	 ebp
  00001	8b ec		 mov	 ebp, esp
  00003	51		 push	 ecx
  00004	8d 45 ff	 lea	 eax, DWORD PTR _value$575636[ebp]
  00007	50		 push	 eax
  00008	81 c1 a0 06 00
	00		 add	 ecx, 1696		; 000006a0H
  0000e	e8 00 00 00 00	 call	 ?DecryptValueToPool@?$CEncrypt@_N@@QAEXPA_N@Z ; CEncrypt<bool>::DecryptValueToPool
  00013	8a 45 ff	 mov	 al, BYTE PTR _value$575636[ebp]
  00016	c9		 leave
  00017	c3		 ret	 0
?IsNoWoundedWeapon@ioWeapon@@QBE_NXZ ENDP		; ioWeapon::IsNoWoundedWeapon
_TEXT	ENDS
PUBLIC	??0?$vector@VioHashString@@V?$allocator@VioHashString@@@std@@@std@@QAE@XZ ; std::vector<ioHashString,std::allocator<ioHashString> >::vector<ioHashString,std::allocator<ioHashString> >
; Function compile flags: /Ogsp
; File c:\program files (x86)\microsoft visual studio 10.0\vc\include\vector
;	COMDAT ??0?$vector@VioHashString@@V?$allocator@VioHashString@@@std@@@std@@QAE@XZ
_TEXT	SEGMENT
??0?$vector@VioHashString@@V?$allocator@VioHashString@@@std@@@std@@QAE@XZ PROC ; std::vector<ioHashString,std::allocator<ioHashString> >::vector<ioHashString,std::allocator<ioHashString> >, COMDAT
; _this$ = ecx

; 507  : 		{	// construct empty vector

  00000	8b c1		 mov	 eax, ecx
  00002	33 c9		 xor	 ecx, ecx
  00004	89 08		 mov	 DWORD PTR [eax], ecx
  00006	89 48 04	 mov	 DWORD PTR [eax+4], ecx
  00009	89 48 08	 mov	 DWORD PTR [eax+8], ecx

; 508  : 		}

  0000c	c3		 ret	 0
??0?$vector@VioHashString@@V?$allocator@VioHashString@@@std@@@std@@QAE@XZ ENDP ; std::vector<ioHashString,std::allocator<ioHashString> >::vector<ioHashString,std::allocator<ioHashString> >
_TEXT	ENDS
PUBLIC	??9?$_Vector_const_iterator@V?$_Vector_val@VioHashString@@V?$allocator@VioHashString@@@std@@@std@@@std@@QBE_NABV01@@Z ; std::_Vector_const_iterator<std::_Vector_val<ioHashString,std::allocator<ioHashString> > >::operator!=
; Function compile flags: /Ogsp
;	COMDAT ??9?$_Vector_const_iterator@V?$_Vector_val@VioHashString@@V?$allocator@VioHashString@@@std@@@std@@@std@@QBE_NABV01@@Z
_TEXT	SEGMENT
__Right$ = 8						; size = 4
??9?$_Vector_const_iterator@V?$_Vector_val@VioHashString@@V?$allocator@VioHashString@@@std@@@std@@@std@@QBE_NABV01@@Z PROC ; std::_Vector_const_iterator<std::_Vector_val<ioHashString,std::allocator<ioHashString> > >::operator!=, COMDAT
; _this$ = ecx

; 207  : 		{	// test for iterator inequality

  00000	55		 push	 ebp
  00001	8b ec		 mov	 ebp, esp

; 208  : 		return (!(*this == _Right));

  00003	8b 01		 mov	 eax, DWORD PTR [ecx]
  00005	8b 55 08	 mov	 edx, DWORD PTR __Right$[ebp]
  00008	33 c9		 xor	 ecx, ecx
  0000a	3b 02		 cmp	 eax, DWORD PTR [edx]
  0000c	0f 95 c0	 setne	 al

; 209  : 		}

  0000f	5d		 pop	 ebp
  00010	c2 04 00	 ret	 4
??9?$_Vector_const_iterator@V?$_Vector_val@VioHashString@@V?$allocator@VioHashString@@@std@@@std@@@std@@QBE_NABV01@@Z ENDP ; std::_Vector_const_iterator<std::_Vector_val<ioHashString,std::allocator<ioHashString> > >::operator!=
_TEXT	ENDS
PUBLIC	??$_Move@PAVioHashString@@PAV1@@std@@YAPAVioHashString@@PAV1@00@Z ; std::_Move<ioHashString *,ioHashString *>
; Function compile flags: /Ogsp
; File c:\program files (x86)\microsoft visual studio 10.0\vc\include\xutility
;	COMDAT ??$_Move@PAVioHashString@@PAV1@@std@@YAPAVioHashString@@PAV1@00@Z
_TEXT	SEGMENT
__Cat$575671 = -4					; size = 1
__First$ = 8						; size = 4
__Last$ = 12						; size = 4
__Dest$ = 16						; size = 4
??$_Move@PAVioHashString@@PAV1@@std@@YAPAVioHashString@@PAV1@00@Z PROC ; std::_Move<ioHashString *,ioHashString *>, COMDAT

; 2533 : 	{	// move [_First, _Last) to [_Dest, ...), unchecked

  00000	55		 push	 ebp
  00001	8b ec		 mov	 ebp, esp
  00003	51		 push	 ecx

; 2534 : 	return (_Move(_First, _Last,
; 2535 : 		_Dest, _Ptr_cat(_First, _Dest)));

  00004	ff 75 fc	 push	 DWORD PTR __Cat$575671[ebp]
  00007	ff 75 10	 push	 DWORD PTR __Dest$[ebp]
  0000a	ff 75 0c	 push	 DWORD PTR __Last$[ebp]
  0000d	ff 75 08	 push	 DWORD PTR __First$[ebp]
  00010	e8 00 00 00 00	 call	 ??$_Move@PAVioHashString@@PAV1@@std@@YAPAVioHashString@@PAV1@00U_Nonscalar_ptr_iterator_tag@0@@Z ; std::_Move<ioHashString *,ioHashString *>
  00015	83 c4 10	 add	 esp, 16			; 00000010H

; 2536 : 	}

  00018	c9		 leave
  00019	c3		 ret	 0
??$_Move@PAVioHashString@@PAV1@@std@@YAPAVioHashString@@PAV1@00@Z ENDP ; std::_Move<ioHashString *,ioHashString *>
_TEXT	ENDS
PUBLIC	?destroy@?$allocator@VioHashString@@@std@@QAEXPAVioHashString@@@Z ; std::allocator<ioHashString>::destroy
; Function compile flags: /Ogsp
; File c:\program files (x86)\microsoft visual studio 10.0\vc\include\xmemory
;	COMDAT ?destroy@?$allocator@VioHashString@@@std@@QAEXPAVioHashString@@@Z
_TEXT	SEGMENT
__Ptr$ = 8						; size = 4
?destroy@?$allocator@VioHashString@@@std@@QAEXPAVioHashString@@@Z PROC ; std::allocator<ioHashString>::destroy, COMDAT
; _this$ = ecx

; 212  : 		{	// destroy object at _Ptr

  00000	55		 push	 ebp
  00001	8b ec		 mov	 ebp, esp

; 213  : 		_Destroy(_Ptr);

  00003	8b 4d 08	 mov	 ecx, DWORD PTR __Ptr$[ebp]
  00006	ff 15 00 00 00
	00		 call	 DWORD PTR __imp_??1ioHashString@@QAE@XZ

; 214  : 		}

  0000c	5d		 pop	 ebp
  0000d	c2 04 00	 ret	 4
?destroy@?$allocator@VioHashString@@@std@@QAEXPAVioHashString@@@Z ENDP ; std::allocator<ioHashString>::destroy
_TEXT	ENDS
PUBLIC	??$_Cons_val@V?$allocator@VioHashString@@@std@@VioHashString@@ABV3@@std@@YAXAAV?$allocator@VioHashString@@@0@PAVioHashString@@ABV2@@Z ; std::_Cons_val<std::allocator<ioHashString>,ioHashString,ioHashString const &>
; Function compile flags: /Ogsp
;	COMDAT ??$_Cons_val@V?$allocator@VioHashString@@@std@@VioHashString@@ABV3@@std@@YAXAAV?$allocator@VioHashString@@@0@PAVioHashString@@ABV2@@Z
_TEXT	SEGMENT
__Alval$ = 8						; size = 4
__Pdest$ = 12						; size = 4
__Src$ = 16						; size = 4
??$_Cons_val@V?$allocator@VioHashString@@@std@@VioHashString@@ABV3@@std@@YAXAAV?$allocator@VioHashString@@@0@PAVioHashString@@ABV2@@Z PROC ; std::_Cons_val<std::allocator<ioHashString>,ioHashString,ioHashString const &>, COMDAT

; 279  : 	{	// construct using allocator

  00000	55		 push	 ebp
  00001	8b ec		 mov	 ebp, esp

; 280  : 	_Alval.construct(_Pdest, _STD forward<_Ty2>(_Src));

  00003	ff 75 10	 push	 DWORD PTR __Src$[ebp]
  00006	ff 75 0c	 push	 DWORD PTR __Pdest$[ebp]
  00009	e8 00 00 00 00	 call	 ??$_Construct@VioHashString@@ABV1@@std@@YAXPAVioHashString@@ABV1@@Z ; std::_Construct<ioHashString,ioHashString const &>
  0000e	59		 pop	 ecx
  0000f	59		 pop	 ecx

; 281  : 	}

  00010	5d		 pop	 ebp
  00011	c3		 ret	 0
??$_Cons_val@V?$allocator@VioHashString@@@std@@VioHashString@@ABV3@@std@@YAXAAV?$allocator@VioHashString@@@0@PAVioHashString@@ABV2@@Z ENDP ; std::_Cons_val<std::allocator<ioHashString>,ioHashString,ioHashString const &>
_TEXT	ENDS
PUBLIC	??_C@_0CI@IACIOAIO@ioDummyChar?3?3ApplyWeapon?5?9?5?$CFs?5No@ ; `string'
PUBLIC	?ApplyWeapon@ioOwnerAttach5Dummy@@UAE?AW4ApplyWeaponExp@@PAVioWeapon@@@Z ; ioOwnerAttach5Dummy::ApplyWeapon
EXTRN	?CheckEntityCollision@ioDummyCharManager@@QAEXPAVioBaseChar@@PAVioPlayEntity@@H@Z:PROC ; ioDummyCharManager::CheckEntityCollision
EXTRN	?GetSingleton@ioDummyCharManager@@SAAAV1@XZ:PROC ; ioDummyCharManager::GetSingleton
EXTRN	__imp_?Clear@ioHashString@@QAEXXZ:PROC
EXTRN	?ClearAttackFireTimeAndSkill@ioBaseChar@@QAEXW4ClearAttackFireType@@@Z:PROC ; ioBaseChar::ClearAttackFireTimeAndSkill
EXTRN	?IsCurUsingSkill@ioBaseChar@@QAE_NVioHashString@@@Z:PROC ; ioBaseChar::IsCurUsingSkill
EXTRN	?SetActionStopDuration@ioWeapon@@QAEXKM@Z:PROC	; ioWeapon::SetActionStopDuration
EXTRN	?CalcActionStopDelay@ioBaseChar@@SAKM_N@Z:PROC	; ioBaseChar::CalcActionStopDelay
EXTRN	?GetActionStopLooseRate@ioBaseChar@@SAM_N@Z:PROC ; ioBaseChar::GetActionStopLooseRate
EXTRN	?SetActionStopDelay@ioBaseChar@@QAEXM_NH@Z:PROC	; ioBaseChar::SetActionStopDelay
EXTRN	?GetShakeCamera@ioWeapon@@QBEHXZ:PROC		; ioWeapon::GetShakeCamera
EXTRN	?SetDisableAttackEmoticon@ioBaseGUISupport@@QAEXXZ:PROC ; ioBaseGUISupport::SetDisableAttackEmoticon
EXTRN	?ReverseReflectPush@ioBaseChar@@QAEXABUD3DXVECTOR3@@M@Z:PROC ; ioBaseChar::ReverseReflectPush
EXTRN	?AddNewBuff@ioBaseChar@@QAEPAVioBuff@@ABVioHashString@@00PAVioSkill@@_N@Z:PROC ; ioBaseChar::AddNewBuff
EXTRN	?IgnoreBlock@ioBaseChar@@QAE_NXZ:PROC		; ioBaseChar::IgnoreBlock
EXTRN	?IsChangeJumpping@ioWeapon@@QAE_N_N0@Z:PROC	; ioWeapon::IsChangeJumpping
EXTRN	?IsEnableAttackCancelState@ioBaseChar@@QAE_NXZ:PROC ; ioBaseChar::IsEnableAttackCancelState
EXTRN	__imp_?PrintTimeAndLog@CLog@@QAAXHPADZZ:PROC
EXTRN	__imp_?LOG@@3VCLog@@A:BYTE
EXTRN	__imp_?c_str@ioHashString@@QBEPBDXZ:PROC
EXTRN	?GetOwner@ioWeapon@@QBEPAVioBaseChar@@XZ:PROC	; ioWeapon::GetOwner
;	COMDAT ??_C@_0CI@IACIOAIO@ioDummyChar?3?3ApplyWeapon?5?9?5?$CFs?5No@
; File d:\lost saga for developer\youtube\tutorial\source\src\lsclient\ioweapon.h
CONST	SEGMENT
??_C@_0CI@IACIOAIO@ioDummyChar?3?3ApplyWeapon?5?9?5?$CFs?5No@ DB 'ioDummy'
	DB	'Char::ApplyWeapon - %s Not Exist', 00H	; `string'
CONST	ENDS
;	COMDAT xdata$x
xdata$x	SEGMENT
__unwindtable$?ApplyWeapon@ioOwnerAttach5Dummy@@UAE?AW4ApplyWeaponExp@@PAVioWeapon@@@Z DD 0ffffffffH
	DD	FLAT:__unwindfunclet$?ApplyWeapon@ioOwnerAttach5Dummy@@UAE?AW4ApplyWeaponExp@@PAVioWeapon@@@Z$0
	DD	00H
	DD	FLAT:__unwindfunclet$?ApplyWeapon@ioOwnerAttach5Dummy@@UAE?AW4ApplyWeaponExp@@PAVioWeapon@@@Z$1
	DD	0ffffffffH
	DD	FLAT:__unwindfunclet$?ApplyWeapon@ioOwnerAttach5Dummy@@UAE?AW4ApplyWeaponExp@@PAVioWeapon@@@Z$2
__ehfuncinfo$?ApplyWeapon@ioOwnerAttach5Dummy@@UAE?AW4ApplyWeaponExp@@PAVioWeapon@@@Z DD 019930522H
	DD	03H
	DD	FLAT:__unwindtable$?ApplyWeapon@ioOwnerAttach5Dummy@@UAE?AW4ApplyWeaponExp@@PAVioWeapon@@@Z
	DD	2 DUP(00H)
	DD	2 DUP(00H)
	DD	00H
	DD	01H
; Function compile flags: /Ogsp
; File d:\lost saga for developer\youtube\tutorial\source\src\lsclient\ioownerattach5dummy.cpp
xdata$x	ENDS
;	COMDAT ?ApplyWeapon@ioOwnerAttach5Dummy@@UAE?AW4ApplyWeaponExp@@PAVioWeapon@@@Z
_TEXT	SEGMENT
$T575695 = -84						; size = 16
$T575696 = -68						; size = 16
_value$575773 = -52					; size = 4
_fDamage$ = -48						; size = 4
_pAttacker$ = -44					; size = 4
tv581 = -40						; size = 4
_value$575769 = -40					; size = 4
_value$575723 = -40					; size = 4
$T575698 = -40						; size = 4
_fPushPower$ = -40					; size = 4
tv592 = -36						; size = 4
tv588 = -36						; size = 4
tv584 = -36						; size = 4
_value$575740 = -36					; size = 4
_value$575727 = -36					; size = 4
_value$575736 = -29					; size = 1
_value$575732 = -29					; size = 1
_value$575715 = -29					; size = 1
_bStructWeapon$ = -29					; size = 1
_vAttackDir$ = -28					; size = 12
__$EHRec$ = -12						; size = 12
_pWeapon$ = 8						; size = 4
?ApplyWeapon@ioOwnerAttach5Dummy@@UAE?AW4ApplyWeaponExp@@PAVioWeapon@@@Z PROC ; ioOwnerAttach5Dummy::ApplyWeapon, COMDAT
; _this$ = ecx

; 114  : {

  00000	6a 48		 push	 72			; 00000048H
  00002	b8 00 00 00 00	 mov	 eax, __ehhandler$?ApplyWeapon@ioOwnerAttach5Dummy@@UAE?AW4ApplyWeaponExp@@PAVioWeapon@@@Z
  00007	e8 00 00 00 00	 call	 __EH_prolog3_GS
  0000c	8b 75 08	 mov	 esi, DWORD PTR _pWeapon$[ebp]
  0000f	8b f9		 mov	 edi, ecx

; 115  : 	ioBaseChar *pAttacker = pWeapon->GetOwner();

  00011	8b ce		 mov	 ecx, esi
  00013	e8 00 00 00 00	 call	 ?GetOwner@ioWeapon@@QBEPAVioBaseChar@@XZ ; ioWeapon::GetOwner
  00018	89 45 d4	 mov	 DWORD PTR _pAttacker$[ebp], eax

; 116  : 	if( !pAttacker )

  0001b	85 c0		 test	 eax, eax
  0001d	75 25		 jne	 SHORT $LN19@ApplyWeapo

; 117  : 	{
; 118  : 		LOG.PrintTimeAndLog( 0, "ioDummyChar::ApplyWeapon - %s Not Exist", pWeapon->GetOwnerName().c_str() );

  0001f	8d 4e 10	 lea	 ecx, DWORD PTR [esi+16]
  00022	ff 15 00 00 00
	00		 call	 DWORD PTR __imp_?c_str@ioHashString@@QBEPBDXZ
  00028	50		 push	 eax
  00029	68 00 00 00 00	 push	 OFFSET ??_C@_0CI@IACIOAIO@ioDummyChar?3?3ApplyWeapon?5?9?5?$CFs?5No@
  0002e	6a 00		 push	 0
  00030	ff 35 00 00 00
	00		 push	 DWORD PTR __imp_?LOG@@3VCLog@@A
  00036	ff 15 00 00 00
	00		 call	 DWORD PTR __imp_?PrintTimeAndLog@CLog@@QAAXHPADZZ
  0003c	83 c4 10	 add	 esp, 16			; 00000010H

; 119  : 		return AWE_EXPLOSION;

  0003f	e9 83 03 00 00	 jmp	 $LN70@ApplyWeapo
$LN19@ApplyWeapo:

; 120  : 	}
; 121  : 
; 122  : 	if( pWeapon->IsNoWoundedWeapon() )

  00044	8d 45 e3	 lea	 eax, DWORD PTR _value$575715[ebp]
  00047	8d 8e a0 06 00
	00		 lea	 ecx, DWORD PTR [esi+1696]
  0004d	50		 push	 eax
  0004e	e8 00 00 00 00	 call	 ?DecryptValueToPool@?$CEncrypt@_N@@QAEXPA_N@Z ; CEncrypt<bool>::DecryptValueToPool
  00053	80 7d e3 00	 cmp	 BYTE PTR _value$575715[ebp], 0
  00057	74 07		 je	 SHORT $LN18@ApplyWeapo

; 123  : 		return AWE_NO_EXPLOSION;

  00059	33 c0		 xor	 eax, eax
  0005b	e9 6a 03 00 00	 jmp	 $LN20@ApplyWeapo
$LN18@ApplyWeapo:

; 124  : 
; 125  : 	m_LastAttacker = pWeapon->GetOwnerName();

  00060	8d 46 10	 lea	 eax, DWORD PTR [esi+16]
  00063	50		 push	 eax
  00064	8d 8f 30 05 00
	00		 lea	 ecx, DWORD PTR [edi+1328]
  0006a	ff 15 00 00 00
	00		 call	 DWORD PTR __imp_??4ioHashString@@QAEAAV0@ABV0@@Z

; 126  : 
; 127  : 	float fPreCurHP = m_HP.m_fCurValue;

  00070	8d 45 d8	 lea	 eax, DWORD PTR _value$575723[ebp]
  00073	8d 9f c0 00 00
	00		 lea	 ebx, DWORD PTR [edi+192]
  00079	50		 push	 eax
  0007a	8b cb		 mov	 ecx, ebx
  0007c	e8 00 00 00 00	 call	 ?DecryptValueToPool@?$CEncrypt@M@@QAEXPAM@Z ; CEncrypt<float>::DecryptValueToPool

; 128  : 	float fDamage = pWeapon->GetDamage( this ) * m_fDamageRate;

  00081	8d 45 dc	 lea	 eax, DWORD PTR _value$575727[ebp]
  00084	50		 push	 eax
  00085	8d 8f d0 04 00
	00		 lea	 ecx, DWORD PTR [edi+1232]
  0008b	e8 00 00 00 00	 call	 ?DecryptValueToPool@?$CEncrypt@M@@QAEXPAM@Z ; CEncrypt<float>::DecryptValueToPool
  00090	8b 06		 mov	 eax, DWORD PTR [esi]
  00092	57		 push	 edi
  00093	8b ce		 mov	 ecx, esi
  00095	ff 90 d4 00 00
	00		 call	 DWORD PTR [eax+212]
  0009b	d8 4d dc	 fmul	 DWORD PTR _value$575727[ebp]

; 129  : 	float fPushPower = pWeapon->GetDefensePushPower( fDamage );

  0009e	8b 06		 mov	 eax, DWORD PTR [esi]
  000a0	51		 push	 ecx
  000a1	d9 5d d0	 fstp	 DWORD PTR _fDamage$[ebp]
  000a4	8b ce		 mov	 ecx, esi
  000a6	f3 0f 10 45 d0	 movss	 xmm0, DWORD PTR _fDamage$[ebp]
  000ab	f3 0f 11 04 24	 movss	 DWORD PTR [esp], xmm0
  000b0	ff 90 88 00 00
	00		 call	 DWORD PTR [eax+136]
  000b6	d9 5d d8	 fstp	 DWORD PTR _fPushPower$[ebp]

; 130  : 
; 131  : 	if( !m_bNoDamage && !m_bPiercingProtected )

  000b9	8d 45 e3	 lea	 eax, DWORD PTR _value$575732[ebp]
  000bc	50		 push	 eax
  000bd	8d 8f 80 03 00
	00		 lea	 ecx, DWORD PTR [edi+896]
  000c3	e8 00 00 00 00	 call	 ?DecryptValueToPool@?$CEncrypt@_N@@QAEXPA_N@Z ; CEncrypt<bool>::DecryptValueToPool
  000c8	80 7d e3 00	 cmp	 BYTE PTR _value$575732[ebp], 0
  000cc	75 48		 jne	 SHORT $LN41@ApplyWeapo
  000ce	8d 45 e3	 lea	 eax, DWORD PTR _value$575736[ebp]
  000d1	50		 push	 eax
  000d2	8d 8f 70 04 00
	00		 lea	 ecx, DWORD PTR [edi+1136]
  000d8	e8 00 00 00 00	 call	 ?DecryptValueToPool@?$CEncrypt@_N@@QAEXPA_N@Z ; CEncrypt<bool>::DecryptValueToPool
  000dd	80 7d e3 00	 cmp	 BYTE PTR _value$575736[ebp], 0
  000e1	75 33		 jne	 SHORT $LN41@ApplyWeapo

; 132  : 		m_HP.m_fCurValue -= fDamage;

  000e3	8d 45 dc	 lea	 eax, DWORD PTR _value$575740[ebp]
  000e6	50		 push	 eax
  000e7	8b cb		 mov	 ecx, ebx
  000e9	e8 00 00 00 00	 call	 ?DecryptValueToPool@?$CEncrypt@M@@QAEXPAM@Z ; CEncrypt<float>::DecryptValueToPool
  000ee	f3 0f 10 45 dc	 movss	 xmm0, DWORD PTR _value$575740[ebp]
  000f3	f3 0f 10 4d d0	 movss	 xmm1, DWORD PTR _fDamage$[ebp]
  000f8	0f 5a c0	 cvtps2pd xmm0, xmm0
  000fb	0f 5a c9	 cvtps2pd xmm1, xmm1
  000fe	8d 45 dc	 lea	 eax, DWORD PTR _value$575740[ebp]
  00101	f2 0f 5c c1	 subsd	 xmm0, xmm1
  00105	66 0f 5a c0	 cvtpd2ps xmm0, xmm0
  00109	50		 push	 eax
  0010a	8b cb		 mov	 ecx, ebx
  0010c	f3 0f 11 45 dc	 movss	 DWORD PTR _value$575740[ebp], xmm0
  00111	e8 00 00 00 00	 call	 ?EncryptValueToPool@?$CEncrypt@M@@AAEXPBD@Z ; CEncrypt<float>::EncryptValueToPool
$LN41@ApplyWeapo:

; 133  : 	AddHeadDamageInfo( (int)fDamage );

  00116	f3 0f 2c 4d d0	 cvttss2si ecx, DWORD PTR _fDamage$[ebp]
  0011b	8b 07		 mov	 eax, DWORD PTR [edi]
  0011d	6a 00		 push	 0
  0011f	51		 push	 ecx
  00120	8b cf		 mov	 ecx, edi
  00122	ff 90 d0 00 00
	00		 call	 DWORD PTR [eax+208]

; 134  : 
; 135  : 	bool bContactType = false;
; 136  : 	if( pWeapon->GetType() == ioWeapon::WT_CONTACT ||
; 137  : 		pWeapon->GetType() == ioWeapon::WT_RUN_CONTACT ||
; 138  : 		pWeapon->GetType() == ioWeapon::WT_CONTACT2 )

  00128	8b 06		 mov	 eax, DWORD PTR [esi]
  0012a	8b ce		 mov	 ecx, esi
  0012c	32 db		 xor	 bl, bl
  0012e	ff 90 10 01 00
	00		 call	 DWORD PTR [eax+272]
  00134	83 f8 01	 cmp	 eax, 1
  00137	74 1e		 je	 SHORT $LN15@ApplyWeapo
  00139	8b 06		 mov	 eax, DWORD PTR [esi]
  0013b	8b ce		 mov	 ecx, esi
  0013d	ff 90 10 01 00
	00		 call	 DWORD PTR [eax+272]
  00143	83 f8 1e	 cmp	 eax, 30			; 0000001eH
  00146	74 0f		 je	 SHORT $LN15@ApplyWeapo
  00148	8b 06		 mov	 eax, DWORD PTR [esi]
  0014a	8b ce		 mov	 ecx, esi
  0014c	ff 90 10 01 00
	00		 call	 DWORD PTR [eax+272]
  00152	83 f8 2b	 cmp	 eax, 43			; 0000002bH
  00155	75 02		 jne	 SHORT $LN16@ApplyWeapo
$LN15@ApplyWeapo:

; 139  : 		bContactType = true;

  00157	b3 01		 mov	 bl, 1
$LN16@ApplyWeapo:

; 140  : 
; 141  : 	bool bStructWeapon = false;
; 142  : 	if( pWeapon->CheckWeaponByStruct() || pWeapon->CheckWeaponByDummyChar() )

  00159	80 be 8c 05 00
	00 00		 cmp	 BYTE PTR [esi+1420], 0
  00160	c6 45 e3 00	 mov	 BYTE PTR _bStructWeapon$[ebp], 0
  00164	75 09		 jne	 SHORT $LN13@ApplyWeapo
  00166	80 be 9c 05 00
	00 00		 cmp	 BYTE PTR [esi+1436], 0
  0016d	74 04		 je	 SHORT $LN14@ApplyWeapo
$LN13@ApplyWeapo:

; 143  : 		bStructWeapon = true;

  0016f	c6 45 e3 01	 mov	 BYTE PTR _bStructWeapon$[ebp], 1
$LN14@ApplyWeapo:

; 144  : 
; 145  : 	bool bOnlyEmoticon = true;
; 146  : 	D3DXVECTOR3 vAttackDir = pWeapon->GetAttackDir(this);

  00173	8b 06		 mov	 eax, DWORD PTR [esi]
  00175	57		 push	 edi
  00176	8d 4d e4	 lea	 ecx, DWORD PTR _vAttackDir$[ebp]
  00179	51		 push	 ecx
  0017a	8b ce		 mov	 ecx, esi
  0017c	ff 90 fc 00 00
	00		 call	 DWORD PTR [eax+252]

; 147  : 
; 148  : 	if( bContactType && !bStructWeapon && !pWeapon->CheckWeaponBySkill() && !m_BlockBuff.IsEmpty() )

  00182	84 db		 test	 bl, bl
  00184	0f 84 00 01 00
	00		 je	 $LN11@ApplyWeapo
  0018a	80 7d e3 00	 cmp	 BYTE PTR _bStructWeapon$[ebp], 0
  0018e	0f 85 f6 00 00
	00		 jne	 $LN11@ApplyWeapo
  00194	80 be 7e 05 00
	00 00		 cmp	 BYTE PTR [esi+1406], 0
  0019b	0f 85 e9 00 00
	00		 jne	 $LN11@ApplyWeapo
  001a1	8d 8f b0 02 00
	00		 lea	 ecx, DWORD PTR [edi+688]
  001a7	ff 15 00 00 00
	00		 call	 DWORD PTR __imp_?IsEmpty@ioHashString@@QBE_NXZ
  001ad	84 c0		 test	 al, al
  001af	0f 85 d5 00 00
	00		 jne	 $LN11@ApplyWeapo

; 149  : 	{
; 150  : 		if( pAttacker->IsEnableAttackCancelState() && !pWeapon->IsChangeJumpping( false, false )
; 151  : 			&& !pAttacker->IgnoreBlock() )

  001b5	8b 4d d4	 mov	 ecx, DWORD PTR _pAttacker$[ebp]
  001b8	e8 00 00 00 00	 call	 ?IsEnableAttackCancelState@ioBaseChar@@QAE_NXZ ; ioBaseChar::IsEnableAttackCancelState
  001bd	84 c0		 test	 al, al
  001bf	0f 84 c5 00 00
	00		 je	 $LN11@ApplyWeapo
  001c5	6a 00		 push	 0
  001c7	6a 00		 push	 0
  001c9	8b ce		 mov	 ecx, esi
  001cb	e8 00 00 00 00	 call	 ?IsChangeJumpping@ioWeapon@@QAE_N_N0@Z ; ioWeapon::IsChangeJumpping
  001d0	84 c0		 test	 al, al
  001d2	0f 85 b2 00 00
	00		 jne	 $LN11@ApplyWeapo
  001d8	8b 4d d4	 mov	 ecx, DWORD PTR _pAttacker$[ebp]
  001db	e8 00 00 00 00	 call	 ?IgnoreBlock@ioBaseChar@@QAE_NXZ ; ioBaseChar::IgnoreBlock
  001e0	84 c0		 test	 al, al
  001e2	0f 85 a2 00 00
	00		 jne	 $LN11@ApplyWeapo

; 152  : 		{
; 153  : 			pAttacker->AddNewBuff( m_BlockBuff, "", "", NULL );

  001e8	8b 1d 00 00 00
	00		 mov	 ebx, DWORD PTR __imp_??0ioHashString@@QAE@PBD@Z
  001ee	68 00 00 00 00	 push	 OFFSET ??_C@_00CNPNBAHC@?$AA@
  001f3	8d 4d ac	 lea	 ecx, DWORD PTR $T575695[ebp]
  001f6	ff d3		 call	 ebx
  001f8	83 65 fc 00	 and	 DWORD PTR __$EHRec$[ebp+8], 0
  001fc	68 00 00 00 00	 push	 OFFSET ??_C@_00CNPNBAHC@?$AA@
  00201	8d 4d bc	 lea	 ecx, DWORD PTR $T575696[ebp]
  00204	ff d3		 call	 ebx
  00206	8b 4d d4	 mov	 ecx, DWORD PTR _pAttacker$[ebp]
  00209	6a 00		 push	 0
  0020b	6a 00		 push	 0
  0020d	8d 45 ac	 lea	 eax, DWORD PTR $T575695[ebp]
  00210	50		 push	 eax
  00211	8d 45 bc	 lea	 eax, DWORD PTR $T575696[ebp]
  00214	50		 push	 eax
  00215	8d 87 b0 02 00
	00		 lea	 eax, DWORD PTR [edi+688]
  0021b	50		 push	 eax
  0021c	c6 45 fc 01	 mov	 BYTE PTR __$EHRec$[ebp+8], 1
  00220	e8 00 00 00 00	 call	 ?AddNewBuff@ioBaseChar@@QAEPAVioBuff@@ABVioHashString@@00PAVioSkill@@_N@Z ; ioBaseChar::AddNewBuff
  00225	8b 1d 00 00 00
	00		 mov	 ebx, DWORD PTR __imp_??1ioHashString@@QAE@XZ
  0022b	8d 4d bc	 lea	 ecx, DWORD PTR $T575696[ebp]
  0022e	c6 45 fc 00	 mov	 BYTE PTR __$EHRec$[ebp+8], 0
  00232	ff d3		 call	 ebx
  00234	83 4d fc ff	 or	 DWORD PTR __$EHRec$[ebp+8], -1
  00238	8d 4d ac	 lea	 ecx, DWORD PTR $T575695[ebp]
  0023b	ff d3		 call	 ebx

; 154  : 			pAttacker->ReverseReflectPush( vAttackDir, fPushPower * FLOAT05 );

  0023d	b8 05 00 00 00	 mov	 eax, 5
  00242	8b c8		 mov	 ecx, eax
  00244	b8 0a 00 00 00	 mov	 eax, 10			; 0000000aH
  00249	89 4d dc	 mov	 DWORD PTR tv592[ebp], ecx
  0024c	db 45 dc	 fild	 DWORD PTR tv592[ebp]
  0024f	85 c9		 test	 ecx, ecx
  00251	79 06		 jns	 SHORT $LN68@ApplyWeapo
  00253	d8 05 00 00 00
	00		 fadd	 DWORD PTR __real@4f800000
$LN68@ApplyWeapo:
  00259	89 45 dc	 mov	 DWORD PTR tv588[ebp], eax
  0025c	db 45 dc	 fild	 DWORD PTR tv588[ebp]
  0025f	85 c0		 test	 eax, eax
  00261	79 06		 jns	 SHORT $LN69@ApplyWeapo
  00263	d8 05 00 00 00
	00		 fadd	 DWORD PTR __real@4f800000
$LN69@ApplyWeapo:
  00269	de f9		 fdivp	 ST(1), ST(0)
  0026b	51		 push	 ecx
  0026c	8b 4d d4	 mov	 ecx, DWORD PTR _pAttacker$[ebp]
  0026f	8d 45 e4	 lea	 eax, DWORD PTR _vAttackDir$[ebp]
  00272	d9 5d dc	 fstp	 DWORD PTR tv584[ebp]
  00275	d9 45 dc	 fld	 DWORD PTR tv584[ebp]
  00278	d8 4d d8	 fmul	 DWORD PTR _fPushPower$[ebp]
  0027b	d9 5d d8	 fstp	 DWORD PTR tv581[ebp]
  0027e	d9 45 d8	 fld	 DWORD PTR tv581[ebp]
  00281	d9 1c 24	 fstp	 DWORD PTR [esp]
  00284	50		 push	 eax
  00285	e8 00 00 00 00	 call	 ?ReverseReflectPush@ioBaseChar@@QAEXABUD3DXVECTOR3@@M@Z ; ioBaseChar::ReverseReflectPush
$LN11@ApplyWeapo:

; 155  : 
; 156  : 			bOnlyEmoticon = false;
; 157  : 		}
; 158  : 	}
; 159  : 
; 160  : 	if( !m_BlockBuff.IsEmpty() )

  0028a	8d 8f b0 02 00
	00		 lea	 ecx, DWORD PTR [edi+688]
  00290	ff 15 00 00 00
	00		 call	 DWORD PTR __imp_?IsEmpty@ioHashString@@QBE_NXZ
  00296	84 c0		 test	 al, al
  00298	75 0e		 jne	 SHORT $LN10@ApplyWeapo

; 161  : 		pAttacker->SetDisableAttackEmoticon();

  0029a	8b 4d d4	 mov	 ecx, DWORD PTR _pAttacker$[ebp]
  0029d	81 c1 cc 01 00
	00		 add	 ecx, 460		; 000001ccH
  002a3	e8 00 00 00 00	 call	 ?SetDisableAttackEmoticon@ioBaseGUISupport@@QAEXXZ ; ioBaseGUISupport::SetDisableAttackEmoticon
$LN10@ApplyWeapo:

; 162  : 
; 163  : 	int iShakeCamera = pWeapon->GetShakeCamera();

  002a8	8b ce		 mov	 ecx, esi
  002aa	e8 00 00 00 00	 call	 ?GetShakeCamera@ioWeapon@@QBEHXZ ; ioWeapon::GetShakeCamera
  002af	8b d8		 mov	 ebx, eax

; 164  : 	ActionStopType eActionStop = pWeapon->GetActionStopType();

  002b1	8b 06		 mov	 eax, DWORD PTR [esi]
  002b3	8b ce		 mov	 ecx, esi
  002b5	ff 90 14 01 00
	00		 call	 DWORD PTR [eax+276]

; 165  : 
; 166  : 	if( eActionStop == AST_BOTH || eActionStop == AST_ATTACKER )

  002bb	83 f8 01	 cmp	 eax, 1
  002be	74 05		 je	 SHORT $LN8@ApplyWeapo
  002c0	83 f8 02	 cmp	 eax, 2
  002c3	75 3b		 jne	 SHORT $LN9@ApplyWeapo
$LN8@ApplyWeapo:

; 167  : 	{
; 168  : 		pAttacker->SetActionStopDelay( fDamage, false, iShakeCamera );

  002c5	f3 0f 10 45 d0	 movss	 xmm0, DWORD PTR _fDamage$[ebp]
  002ca	53		 push	 ebx
  002cb	33 db		 xor	 ebx, ebx
  002cd	53		 push	 ebx
  002ce	51		 push	 ecx
  002cf	8b 4d d4	 mov	 ecx, DWORD PTR _pAttacker$[ebp]
  002d2	f3 0f 11 04 24	 movss	 DWORD PTR [esp], xmm0
  002d7	e8 00 00 00 00	 call	 ?SetActionStopDelay@ioBaseChar@@QAEXM_NH@Z ; ioBaseChar::SetActionStopDelay

; 169  : 		pWeapon->SetActionStopDuration( ioBaseChar::CalcActionStopDelay( fDamage, false ),
; 170  : 			ioBaseChar::GetActionStopLooseRate( false ) );

  002dc	53		 push	 ebx
  002dd	e8 00 00 00 00	 call	 ?GetActionStopLooseRate@ioBaseChar@@SAM_N@Z ; ioBaseChar::GetActionStopLooseRate
  002e2	d9 1c 24	 fstp	 DWORD PTR [esp]
  002e5	f3 0f 10 45 d0	 movss	 xmm0, DWORD PTR _fDamage$[ebp]
  002ea	53		 push	 ebx
  002eb	51		 push	 ecx
  002ec	f3 0f 11 04 24	 movss	 DWORD PTR [esp], xmm0
  002f1	e8 00 00 00 00	 call	 ?CalcActionStopDelay@ioBaseChar@@SAKM_N@Z ; ioBaseChar::CalcActionStopDelay
  002f6	59		 pop	 ecx
  002f7	59		 pop	 ecx
  002f8	50		 push	 eax
  002f9	8b ce		 mov	 ecx, esi
  002fb	e8 00 00 00 00	 call	 ?SetActionStopDuration@ioWeapon@@QAEXKM@Z ; ioWeapon::SetActionStopDuration
$LN9@ApplyWeapo:

; 171  : 	}
; 172  : 
; 173  : 	if( m_HP.m_fCurValue <= 0.0f )

  00300	8d 45 d8	 lea	 eax, DWORD PTR _value$575769[ebp]
  00303	50		 push	 eax
  00304	8d 8f c0 00 00
	00		 lea	 ecx, DWORD PTR [edi+192]
  0030a	e8 00 00 00 00	 call	 ?DecryptValueToPool@?$CEncrypt@M@@QAEXPAM@Z ; CEncrypt<float>::DecryptValueToPool
  0030f	0f 57 c0	 xorps	 xmm0, xmm0
  00312	0f 2f 45 d8	 comiss	 xmm0, DWORD PTR _value$575769[ebp]
  00316	0f 82 95 00 00
	00		 jb	 $LN2@ApplyWeapo

; 174  : 	{
; 175  : 		m_HP.m_fCurValue = 0.0f;

  0031c	8d 45 cc	 lea	 eax, DWORD PTR _value$575773[ebp]
  0031f	50		 push	 eax
  00320	8d 8f c0 00 00
	00		 lea	 ecx, DWORD PTR [edi+192]
  00326	f3 0f 11 45 cc	 movss	 DWORD PTR _value$575773[ebp], xmm0
  0032b	e8 00 00 00 00	 call	 ?EncryptValueToPool@?$CEncrypt@M@@AAEXPBD@Z ; CEncrypt<float>::EncryptValueToPool

; 176  : 		SetDieState( true );

  00330	8b 07		 mov	 eax, DWORD PTR [edi]
  00332	6a 01		 push	 1
  00334	8b cf		 mov	 ecx, edi
  00336	ff 90 60 01 00
	00		 call	 DWORD PTR [eax+352]

; 177  : 
; 178  : 		//     
; 179  : 		switch( m_DummyCharType )

  0033c	8b 87 2c 02 00
	00		 mov	 eax, DWORD PTR [edi+556]
  00342	83 e8 03	 sub	 eax, 3
  00345	74 09		 je	 SHORT $LN4@ApplyWeapo
  00347	48		 dec	 eax
  00348	48		 dec	 eax
  00349	74 05		 je	 SHORT $LN4@ApplyWeapo
  0034b	83 e8 18	 sub	 eax, 24			; 00000018H
  0034e	75 61		 jne	 SHORT $LN2@ApplyWeapo
$LN4@ApplyWeapo:

; 180  : 		{
; 181  : 		case DCT_OWNER_CONTROL:
; 182  : 		case DCT_OWNER_CONTROL3:
; 183  : 		case DCT_OWNER_ATTACH:
; 184  : 			if( !m_ControlSkillName.IsEmpty() )

  00350	8d 9f 98 0d 00
	00		 lea	 ebx, DWORD PTR [edi+3480]
  00356	8b cb		 mov	 ecx, ebx
  00358	ff 15 00 00 00
	00		 call	 DWORD PTR __imp_?IsEmpty@ioHashString@@QBE_NXZ
  0035e	84 c0		 test	 al, al
  00360	75 4f		 jne	 SHORT $LN2@ApplyWeapo

; 185  : 			{
; 186  : 				if( GetOwner() && GetOwner()->IsCurUsingSkill( m_ControlSkillName ) )

  00362	8b cf		 mov	 ecx, edi
  00364	e8 00 00 00 00	 call	 ?GetOwner@ioDummyChar@@QBEPAVioBaseChar@@XZ ; ioDummyChar::GetOwner
  00369	85 c0		 test	 eax, eax
  0036b	74 44		 je	 SHORT $LN2@ApplyWeapo
  0036d	83 ec 10	 sub	 esp, 16			; 00000010H
  00370	8b cc		 mov	 ecx, esp
  00372	89 65 d8	 mov	 DWORD PTR $T575698[ebp], esp
  00375	53		 push	 ebx
  00376	ff 15 00 00 00
	00		 call	 DWORD PTR __imp_??0ioHashString@@QAE@ABV0@@Z
  0037c	8b cf		 mov	 ecx, edi
  0037e	c7 45 fc 02 00
	00 00		 mov	 DWORD PTR __$EHRec$[ebp+8], 2
  00385	e8 00 00 00 00	 call	 ?GetOwner@ioDummyChar@@QBEPAVioBaseChar@@XZ ; ioDummyChar::GetOwner
  0038a	83 4d fc ff	 or	 DWORD PTR __$EHRec$[ebp+8], -1
  0038e	8b c8		 mov	 ecx, eax
  00390	e8 00 00 00 00	 call	 ?IsCurUsingSkill@ioBaseChar@@QAE_NVioHashString@@@Z ; ioBaseChar::IsCurUsingSkill
  00395	84 c0		 test	 al, al
  00397	74 18		 je	 SHORT $LN2@ApplyWeapo

; 187  : 				{
; 188  : 					GetOwner()->ClearAttackFireTimeAndSkill( CAFT_APPLY_WOUNDED_BY_DUMMY );

  00399	6a 02		 push	 2
  0039b	8b cf		 mov	 ecx, edi
  0039d	e8 00 00 00 00	 call	 ?GetOwner@ioDummyChar@@QBEPAVioBaseChar@@XZ ; ioDummyChar::GetOwner
  003a2	8b c8		 mov	 ecx, eax
  003a4	e8 00 00 00 00	 call	 ?ClearAttackFireTimeAndSkill@ioBaseChar@@QAEXW4ClearAttackFireType@@@Z ; ioBaseChar::ClearAttackFireTimeAndSkill

; 189  : 					m_ControlSkillName.Clear();

  003a9	8b cb		 mov	 ecx, ebx
  003ab	ff 15 00 00 00
	00		 call	 DWORD PTR __imp_?Clear@ioHashString@@QAEXXZ
$LN2@ApplyWeapo:

; 190  : 				}
; 191  : 			}
; 192  : 			break;
; 193  : 		}
; 194  : 	}
; 195  : 
; 196  : 	if( pWeapon )
; 197  : 	{
; 198  : 		int iDummyIndex = pWeapon->GetWeaponByDummyChar();
; 199  : 		g_DummyCharMgr.CheckEntityCollision( pAttacker, this, iDummyIndex );

  003b1	ff b6 98 05 00
	00		 push	 DWORD PTR [esi+1432]
  003b7	57		 push	 edi
  003b8	ff 75 d4	 push	 DWORD PTR _pAttacker$[ebp]
  003bb	e8 00 00 00 00	 call	 ?GetSingleton@ioDummyCharManager@@SAAAV1@XZ ; ioDummyCharManager::GetSingleton
  003c0	8b c8		 mov	 ecx, eax
  003c2	e8 00 00 00 00	 call	 ?CheckEntityCollision@ioDummyCharManager@@QAEXPAVioBaseChar@@PAVioPlayEntity@@H@Z ; ioDummyCharManager::CheckEntityCollision
$LN70@ApplyWeapo:

; 200  : 	}
; 201  : 
; 202  : 	return AWE_EXPLOSION;

  003c7	33 c0		 xor	 eax, eax
  003c9	40		 inc	 eax
$LN20@ApplyWeapo:

; 203  : }

  003ca	e8 00 00 00 00	 call	 __EH_epilog3_GS
  003cf	c2 04 00	 ret	 4
_TEXT	ENDS
;	COMDAT text$x
text$x	SEGMENT
__unwindfunclet$?ApplyWeapon@ioOwnerAttach5Dummy@@UAE?AW4ApplyWeaponExp@@PAVioWeapon@@@Z$0:
  00000	8d 4d ac	 lea	 ecx, DWORD PTR $T575695[ebp]
  00003	ff 25 00 00 00
	00		 jmp	 DWORD PTR __imp_??1ioHashString@@QAE@XZ
__unwindfunclet$?ApplyWeapon@ioOwnerAttach5Dummy@@UAE?AW4ApplyWeaponExp@@PAVioWeapon@@@Z$1:
  00009	8d 4d bc	 lea	 ecx, DWORD PTR $T575696[ebp]
  0000c	ff 25 00 00 00
	00		 jmp	 DWORD PTR __imp_??1ioHashString@@QAE@XZ
__unwindfunclet$?ApplyWeapon@ioOwnerAttach5Dummy@@UAE?AW4ApplyWeaponExp@@PAVioWeapon@@@Z$2:
  00012	8b 4d d8	 mov	 ecx, DWORD PTR $T575698[ebp]
  00015	ff 25 00 00 00
	00		 jmp	 DWORD PTR __imp_??1ioHashString@@QAE@XZ
__ehhandler$?ApplyWeapon@ioOwnerAttach5Dummy@@UAE?AW4ApplyWeaponExp@@PAVioWeapon@@@Z:
  0001b	8b 54 24 08	 mov	 edx, DWORD PTR [esp+8]
  0001f	8d 42 0c	 lea	 eax, DWORD PTR [edx+12]
  00022	8b 4a a8	 mov	 ecx, DWORD PTR [edx-88]
  00025	33 c8		 xor	 ecx, eax
  00027	e8 00 00 00 00	 call	 @__security_check_cookie@4
  0002c	8b 4a fc	 mov	 ecx, DWORD PTR [edx-4]
  0002f	33 c8		 xor	 ecx, eax
  00031	e8 00 00 00 00	 call	 @__security_check_cookie@4
  00036	b8 00 00 00 00	 mov	 eax, OFFSET __ehfuncinfo$?ApplyWeapon@ioOwnerAttach5Dummy@@UAE?AW4ApplyWeaponExp@@PAVioWeapon@@@Z
  0003b	e9 00 00 00 00	 jmp	 ___CxxFrameHandler3
text$x	ENDS
?ApplyWeapon@ioOwnerAttach5Dummy@@UAE?AW4ApplyWeaponExp@@PAVioWeapon@@@Z ENDP ; ioOwnerAttach5Dummy::ApplyWeapon
PUBLIC	?ProcessStartState@ioOwnerAttach5Dummy@@IAEXPAVioBaseChar@@M@Z ; ioOwnerAttach5Dummy::ProcessStartState
; Function compile flags: /Ogsp
;	COMDAT ?ProcessStartState@ioOwnerAttach5Dummy@@IAEXPAVioBaseChar@@M@Z
_TEXT	SEGMENT
_pOwner$ = 8						; size = 4
_fTimePerSec$ = 12					; size = 4
?ProcessStartState@ioOwnerAttach5Dummy@@IAEXPAVioBaseChar@@M@Z PROC ; ioOwnerAttach5Dummy::ProcessStartState, COMDAT
; _this$ = ecx

; 262  : {	

  00000	55		 push	 ebp
  00001	8b ec		 mov	 ebp, esp

; 263  : 	if ( !pOwner )

  00003	83 7d 08 00	 cmp	 DWORD PTR _pOwner$[ebp], 0
  00007	57		 push	 edi
  00008	8b f9		 mov	 edi, ecx
  0000a	74 33		 je	 SHORT $LN2@ProcessSta

; 264  : 		return;
; 265  : 
; 266  : 	//  
; 267  : 	SetRotateToOwner( pOwner );

  0000c	56		 push	 esi
  0000d	ff 75 08	 push	 DWORD PTR _pOwner$[ebp]
  00010	e8 00 00 00 00	 call	 ?SetRotateToOwner@ioOwnerAttach5Dummy@@IAEXPAVioBaseChar@@@Z ; ioOwnerAttach5Dummy::SetRotateToOwner

; 268  : 
; 269  : 	if( m_dwStartAniEndTime == 0 || m_dwStartAniEndTime < FRAMEGETTIME() )

  00015	83 bf e4 06 00
	00 00		 cmp	 DWORD PTR [edi+1764], 0
  0001c	74 16		 je	 SHORT $LN1@ProcessSta
  0001e	ff 15 00 00 00
	00		 call	 DWORD PTR __imp_?GetSingleton@ioFrameTimer@@SAAAV1@XZ
  00024	8b c8		 mov	 ecx, eax
  00026	ff 15 00 00 00
	00		 call	 DWORD PTR __imp_?GetLoopSec@ioFrameTimer@@QBEKXZ
  0002c	39 87 e4 06 00
	00		 cmp	 DWORD PTR [edi+1764], eax
  00032	73 0a		 jae	 SHORT $LN6@ProcessSta
$LN1@ProcessSta:

; 270  : 	{
; 271  : 		SetDelayState( pOwner );

  00034	ff 75 08	 push	 DWORD PTR _pOwner$[ebp]
  00037	8b cf		 mov	 ecx, edi
  00039	e8 00 00 00 00	 call	 ?SetDelayState@ioOwnerAttach5Dummy@@IAEXPAVioBaseChar@@@Z ; ioOwnerAttach5Dummy::SetDelayState
$LN6@ProcessSta:
  0003e	5e		 pop	 esi
$LN2@ProcessSta:
  0003f	5f		 pop	 edi

; 272  : 	}
; 273  : }

  00040	5d		 pop	 ebp
  00041	c2 08 00	 ret	 8
?ProcessStartState@ioOwnerAttach5Dummy@@IAEXPAVioBaseChar@@M@Z ENDP ; ioOwnerAttach5Dummy::ProcessStartState
_TEXT	ENDS
PUBLIC	?ProcessAttackState@ioOwnerAttach5Dummy@@IAEXPAVioBaseChar@@M@Z ; ioOwnerAttach5Dummy::ProcessAttackState
; Function compile flags: /Ogsp
;	COMDAT ?ProcessAttackState@ioOwnerAttach5Dummy@@IAEXPAVioBaseChar@@M@Z
_TEXT	SEGMENT
_pOwner$ = 8						; size = 4
_fTimePerSec$ = 12					; size = 4
?ProcessAttackState@ioOwnerAttach5Dummy@@IAEXPAVioBaseChar@@M@Z PROC ; ioOwnerAttach5Dummy::ProcessAttackState, COMDAT
; _this$ = ecx

; 417  : {

  00000	55		 push	 ebp
  00001	8b ec		 mov	 ebp, esp
  00003	51		 push	 ecx

; 418  : 	if( !pOwner )

  00004	83 7d 08 00	 cmp	 DWORD PTR _pOwner$[ebp], 0
  00008	56		 push	 esi
  00009	8b f1		 mov	 esi, ecx
  0000b	0f 84 82 00 00
	00		 je	 $LN3@ProcessAtt

; 419  : 		return;
; 420  : 
; 421  : 	DWORD dwCurTime = FRAMEGETTIME();

  00011	53		 push	 ebx
  00012	8b 1d 00 00 00
	00		 mov	 ebx, DWORD PTR __imp_?GetSingleton@ioFrameTimer@@SAAAV1@XZ
  00018	57		 push	 edi
  00019	ff d3		 call	 ebx
  0001b	8b c8		 mov	 ecx, eax
  0001d	ff 15 00 00 00
	00		 call	 DWORD PTR __imp_?GetLoopSec@ioFrameTimer@@QBEKXZ

; 422  : 
; 423  : 	CreateWeapon( pOwner );

  00023	ff 75 08	 push	 DWORD PTR _pOwner$[ebp]
  00026	8b ce		 mov	 ecx, esi
  00028	8b f8		 mov	 edi, eax
  0002a	e8 00 00 00 00	 call	 ?CreateWeapon@ioOwnerAttach5Dummy@@IAEXPAVioBaseChar@@@Z ; ioOwnerAttach5Dummy::CreateWeapon

; 424  : 
; 425  : 	if ( m_dwAttackEndTime < dwCurTime )

  0002f	39 be 0c 15 00
	00		 cmp	 DWORD PTR [esi+5388], edi
  00035	73 5a		 jae	 SHORT $LN7@ProcessAtt

; 426  : 	{
; 427  : 		if ( !CheckControllRange( pOwner ) || 
; 428  : 			( m_dwLifeTime > 0 && ( m_dwStartTime + m_dwLifeTime ) < FRAMEGETTIME() ))

  00037	ff 75 08	 push	 DWORD PTR _pOwner$[ebp]
  0003a	8b ce		 mov	 ecx, esi
  0003c	e8 00 00 00 00	 call	 ?CheckControllRange@ioOwnerAttach5Dummy@@IAE_NPAVioBaseChar@@@Z ; ioOwnerAttach5Dummy::CheckControllRange
  00041	84 c0		 test	 al, al
  00043	74 40		 je	 SHORT $LN1@ProcessAtt
  00045	83 be 10 0b 00
	00 00		 cmp	 DWORD PTR [esi+2832], 0
  0004c	76 1a		 jbe	 SHORT $LN2@ProcessAtt
  0004e	ff d3		 call	 ebx
  00050	8b c8		 mov	 ecx, eax
  00052	ff 15 00 00 00
	00		 call	 DWORD PTR __imp_?GetLoopSec@ioFrameTimer@@QBEKXZ
  00058	8b 8e 14 0b 00
	00		 mov	 ecx, DWORD PTR [esi+2836]
  0005e	03 8e 10 0b 00
	00		 add	 ecx, DWORD PTR [esi+2832]
  00064	3b c8		 cmp	 ecx, eax
  00066	72 1d		 jb	 SHORT $LN1@ProcessAtt
$LN2@ProcessAtt:

; 431  : 			return;
; 432  : 		}
; 433  : 
; 434  : 		SetFollowState( pOwner );

  00068	ff 75 08	 push	 DWORD PTR _pOwner$[ebp]
  0006b	8b ce		 mov	 ecx, esi
  0006d	e8 00 00 00 00	 call	 ?SetFollowState@ioOwnerAttach5Dummy@@IAEXPAVioBaseChar@@@Z ; ioOwnerAttach5Dummy::SetFollowState

; 435  : 		m_bAutoFollow = true;
; 436  : 		m_bCreateWeapon = false;
; 437  : 		m_dwCheckRefreshTime = dwCurTime;

  00072	8b c7		 mov	 eax, edi
  00074	66 c7 86 30 15
	00 00 01 00	 mov	 WORD PTR [esi+5424], 1
  0007d	89 86 34 15 00
	00		 mov	 DWORD PTR [esi+5428], eax
  00083	eb 0c		 jmp	 SHORT $LN7@ProcessAtt
$LN1@ProcessAtt:

; 429  : 		{
; 430  : 			SetDieState( true );

  00085	8b 06		 mov	 eax, DWORD PTR [esi]
  00087	6a 01		 push	 1
  00089	8b ce		 mov	 ecx, esi
  0008b	ff 90 60 01 00
	00		 call	 DWORD PTR [eax+352]
$LN7@ProcessAtt:
  00091	5f		 pop	 edi
  00092	5b		 pop	 ebx
$LN3@ProcessAtt:
  00093	5e		 pop	 esi

; 438  : 	}	
; 439  : }

  00094	c9		 leave
  00095	c2 08 00	 ret	 8
?ProcessAttackState@ioOwnerAttach5Dummy@@IAEXPAVioBaseChar@@M@Z ENDP ; ioOwnerAttach5Dummy::ProcessAttackState
_TEXT	ENDS
PUBLIC	?_Tidy@?$vector@PAVioBaseChar@@V?$allocator@PAVioBaseChar@@@std@@@std@@IAEXXZ ; std::vector<ioBaseChar *,std::allocator<ioBaseChar *> >::_Tidy
EXTRN	__imp_?_Orphan_all@_Container_base0@std@@QAEXXZ:PROC
; Function compile flags: /Ogsp
; File c:\program files (x86)\microsoft visual studio 10.0\vc\include\vector
;	COMDAT ?_Tidy@?$vector@PAVioBaseChar@@V?$allocator@PAVioBaseChar@@@std@@@std@@IAEXXZ
_TEXT	SEGMENT
?_Tidy@?$vector@PAVioBaseChar@@V?$allocator@PAVioBaseChar@@@std@@@std@@IAEXXZ PROC ; std::vector<ioBaseChar *,std::allocator<ioBaseChar *> >::_Tidy, COMDAT
; _this$ = ecx

; 1301 : 		{	// free all storage

  00000	56		 push	 esi
  00001	8b f1		 mov	 esi, ecx

; 1302 : 		if (this->_Myfirst != 0)

  00003	83 3e 00	 cmp	 DWORD PTR [esi], 0
  00006	74 0e		 je	 SHORT $LN12@Tidy

; 1303 : 			{	// something to free, destroy and deallocate it
; 1304 : 			this->_Orphan_all();

  00008	ff 15 00 00 00
	00		 call	 DWORD PTR __imp_?_Orphan_all@_Container_base0@std@@QAEXXZ

; 1305 : 			_Destroy(this->_Myfirst, this->_Mylast);
; 1306 : 			this->_Alval.deallocate(this->_Myfirst,
; 1307 : 				this->_Myend - this->_Myfirst);

  0000e	ff 36		 push	 DWORD PTR [esi]
  00010	e8 00 00 00 00	 call	 ??3@YAXPAX@Z		; operator delete
  00015	59		 pop	 ecx
$LN12@Tidy:

; 1308 : 			}
; 1309 : 		this->_Myfirst = 0;

  00016	83 26 00	 and	 DWORD PTR [esi], 0

; 1310 : 		this->_Mylast = 0;

  00019	83 66 04 00	 and	 DWORD PTR [esi+4], 0

; 1311 : 		this->_Myend = 0;

  0001d	83 66 08 00	 and	 DWORD PTR [esi+8], 0
  00021	5e		 pop	 esi

; 1312 : 		}

  00022	c3		 ret	 0
?_Tidy@?$vector@PAVioBaseChar@@V?$allocator@PAVioBaseChar@@@std@@@std@@IAEXXZ ENDP ; std::vector<ioBaseChar *,std::allocator<ioBaseChar *> >::_Tidy
_TEXT	ENDS
PUBLIC	??$_Destroy_range@V?$allocator@UDistInfo@ioOwnerAttach5Dummy@@@std@@@std@@YAXPAUDistInfo@ioOwnerAttach5Dummy@@0AAV?$allocator@UDistInfo@ioOwnerAttach5Dummy@@@0@U_Nonscalar_ptr_iterator_tag@0@@Z ; std::_Destroy_range<std::allocator<ioOwnerAttach5Dummy::DistInfo> >
; Function compile flags: /Ogsp
; File c:\program files (x86)\microsoft visual studio 10.0\vc\include\xmemory
;	COMDAT ??$_Destroy_range@V?$allocator@UDistInfo@ioOwnerAttach5Dummy@@@std@@@std@@YAXPAUDistInfo@ioOwnerAttach5Dummy@@0AAV?$allocator@UDistInfo@ioOwnerAttach5Dummy@@@0@U_Nonscalar_ptr_iterator_tag@0@@Z
_TEXT	SEGMENT
__First$ = 8						; size = 4
__Last$ = 12						; size = 4
__Al$ = 16						; size = 4
___formal$ = 20						; size = 1
??$_Destroy_range@V?$allocator@UDistInfo@ioOwnerAttach5Dummy@@@std@@@std@@YAXPAUDistInfo@ioOwnerAttach5Dummy@@0AAV?$allocator@UDistInfo@ioOwnerAttach5Dummy@@@0@U_Nonscalar_ptr_iterator_tag@0@@Z PROC ; std::_Destroy_range<std::allocator<ioOwnerAttach5Dummy::DistInfo> >, COMDAT

; 96   : 	for (; _First != _Last; ++_First)
; 97   : 		_Dest_val(_Al, _First);
; 98   : 	}

  00000	c3		 ret	 0
??$_Destroy_range@V?$allocator@UDistInfo@ioOwnerAttach5Dummy@@@std@@@std@@YAXPAUDistInfo@ioOwnerAttach5Dummy@@0AAV?$allocator@UDistInfo@ioOwnerAttach5Dummy@@@0@U_Nonscalar_ptr_iterator_tag@0@@Z ENDP ; std::_Destroy_range<std::allocator<ioOwnerAttach5Dummy::DistInfo> >
_TEXT	ENDS
PUBLIC	??$make_heap@PAUDistInfo@ioOwnerAttach5Dummy@@@std@@YAXPAUDistInfo@ioOwnerAttach5Dummy@@0@Z ; std::make_heap<ioOwnerAttach5Dummy::DistInfo *>
; Function compile flags: /Ogsp
; File c:\program files (x86)\microsoft visual studio 10.0\vc\include\algorithm
;	COMDAT ??$make_heap@PAUDistInfo@ioOwnerAttach5Dummy@@@std@@YAXPAUDistInfo@ioOwnerAttach5Dummy@@0@Z
_TEXT	SEGMENT
__First$ = 8						; size = 4
__Last$ = 12						; size = 4
??$make_heap@PAUDistInfo@ioOwnerAttach5Dummy@@@std@@YAXPAUDistInfo@ioOwnerAttach5Dummy@@0@Z PROC ; std::make_heap<ioOwnerAttach5Dummy::DistInfo *>, COMDAT

; 2645 : 	{	// make [_First, _Last) into a heap, using operator<

  00000	55		 push	 ebp
  00001	8b ec		 mov	 ebp, esp

; 2646 : 	_DEBUG_RANGE(_First, _Last);
; 2647 : 	if (1 < _Last - _First)

  00003	8b 45 0c	 mov	 eax, DWORD PTR __Last$[ebp]
  00006	2b 45 08	 sub	 eax, DWORD PTR __First$[ebp]
  00009	83 e0 f8	 and	 eax, -8			; fffffff8H
  0000c	83 f8 08	 cmp	 eax, 8
  0000f	7e 12		 jle	 SHORT $LN1@make_heap

; 2648 : 		_Make_heap(_Unchecked(_First), _Unchecked(_Last),
; 2649 : 			_Dist_type(_First), _Val_type(_First));

  00011	6a 00		 push	 0
  00013	6a 00		 push	 0
  00015	ff 75 0c	 push	 DWORD PTR __Last$[ebp]
  00018	ff 75 08	 push	 DWORD PTR __First$[ebp]
  0001b	e8 00 00 00 00	 call	 ??$_Make_heap@PAUDistInfo@ioOwnerAttach5Dummy@@HU12@@std@@YAXPAUDistInfo@ioOwnerAttach5Dummy@@0PAH0@Z ; std::_Make_heap<ioOwnerAttach5Dummy::DistInfo *,int,ioOwnerAttach5Dummy::DistInfo>
  00020	83 c4 10	 add	 esp, 16			; 00000010H
$LN1@make_heap:

; 2650 : 	}

  00023	5d		 pop	 ebp
  00024	c3		 ret	 0
??$make_heap@PAUDistInfo@ioOwnerAttach5Dummy@@@std@@YAXPAUDistInfo@ioOwnerAttach5Dummy@@0@Z ENDP ; std::make_heap<ioOwnerAttach5Dummy::DistInfo *>
_TEXT	ENDS
PUBLIC	??$_Insertion_sort@PAUDistInfo@ioOwnerAttach5Dummy@@@std@@YAXPAUDistInfo@ioOwnerAttach5Dummy@@0@Z ; std::_Insertion_sort<ioOwnerAttach5Dummy::DistInfo *>
; Function compile flags: /Ogsp
;	COMDAT ??$_Insertion_sort@PAUDistInfo@ioOwnerAttach5Dummy@@@std@@YAXPAUDistInfo@ioOwnerAttach5Dummy@@0@Z
_TEXT	SEGMENT
__First$ = 8						; size = 4
__Last$ = 12						; size = 4
??$_Insertion_sort@PAUDistInfo@ioOwnerAttach5Dummy@@@std@@YAXPAUDistInfo@ioOwnerAttach5Dummy@@0@Z PROC ; std::_Insertion_sort<ioOwnerAttach5Dummy::DistInfo *>, COMDAT

; 3518 : 	{	// insertion sort [_First, _Last), using operator<

  00000	55		 push	 ebp
  00001	8b ec		 mov	 ebp, esp

; 3519 : 	_Insertion_sort1(_First, _Last, _Val_type(_First));

  00003	6a 00		 push	 0
  00005	ff 75 0c	 push	 DWORD PTR __Last$[ebp]
  00008	ff 75 08	 push	 DWORD PTR __First$[ebp]
  0000b	e8 00 00 00 00	 call	 ??$_Insertion_sort1@PAUDistInfo@ioOwnerAttach5Dummy@@U12@@std@@YAXPAUDistInfo@ioOwnerAttach5Dummy@@00@Z ; std::_Insertion_sort1<ioOwnerAttach5Dummy::DistInfo *,ioOwnerAttach5Dummy::DistInfo>
  00010	83 c4 0c	 add	 esp, 12			; 0000000cH

; 3520 : 	}

  00013	5d		 pop	 ebp
  00014	c3		 ret	 0
??$_Insertion_sort@PAUDistInfo@ioOwnerAttach5Dummy@@@std@@YAXPAUDistInfo@ioOwnerAttach5Dummy@@0@Z ENDP ; std::_Insertion_sort<ioOwnerAttach5Dummy::DistInfo *>
_TEXT	ENDS
PUBLIC	??$_Uninit_move@PAUDistInfo@ioOwnerAttach5Dummy@@PAU12@V?$allocator@UDistInfo@ioOwnerAttach5Dummy@@@std@@U12@@std@@YAPAUDistInfo@ioOwnerAttach5Dummy@@PAU12@00AAV?$allocator@UDistInfo@ioOwnerAttach5Dummy@@@0@0U_Nonscalar_ptr_iterator_tag@0@@Z ; std::_Uninit_move<ioOwnerAttach5Dummy::DistInfo *,ioOwnerAttach5Dummy::DistInfo *,std::allocator<ioOwnerAttach5Dummy::DistInfo>,ioOwnerAttach5Dummy::DistInfo>
; Function compile flags: /Ogsp
; File c:\program files (x86)\microsoft visual studio 10.0\vc\include\memory
;	COMDAT ??$_Uninit_move@PAUDistInfo@ioOwnerAttach5Dummy@@PAU12@V?$allocator@UDistInfo@ioOwnerAttach5Dummy@@@std@@U12@@std@@YAPAUDistInfo@ioOwnerAttach5Dummy@@PAU12@00AAV?$allocator@UDistInfo@ioOwnerAttach5Dummy@@@0@0U_Nonscalar_ptr_iterator_tag@0@@Z
_TEXT	SEGMENT
__First$ = 8						; size = 4
__Last$ = 12						; size = 4
__Dest$ = 16						; size = 4
__Al$ = 20						; size = 4
___formal$ = 24						; size = 4
___formal$ = 28						; size = 1
??$_Uninit_move@PAUDistInfo@ioOwnerAttach5Dummy@@PAU12@V?$allocator@UDistInfo@ioOwnerAttach5Dummy@@@std@@U12@@std@@YAPAUDistInfo@ioOwnerAttach5Dummy@@PAU12@00AAV?$allocator@UDistInfo@ioOwnerAttach5Dummy@@@0@0U_Nonscalar_ptr_iterator_tag@0@@Z PROC ; std::_Uninit_move<ioOwnerAttach5Dummy::DistInfo *,ioOwnerAttach5Dummy::DistInfo *,std::allocator<ioOwnerAttach5Dummy::DistInfo>,ioOwnerAttach5Dummy::DistInfo>, COMDAT

; 424  : 	{	// move [_First, _Last) to raw _Dest, using _Al, arbitrary type

  00000	55		 push	 ebp
  00001	8b ec		 mov	 ebp, esp
  00003	56		 push	 esi

; 425  : 	_DEBUG_RANGE(_First, _Last);
; 426  : 	_DEBUG_POINTER(_Dest);
; 427  : 	_FwdIt _Next = _Dest;
; 428  : 
; 429  : 	_TRY_BEGIN
; 430  : 	for (; _First != _Last; ++_Dest, ++_First)

  00004	8b 75 08	 mov	 esi, DWORD PTR __First$[ebp]
  00007	eb 16		 jmp	 SHORT $LN24@Uninit_mov
$LL6@Uninit_mov:

; 431  : 		_Cons_val(_Al, _Dest, (_Valty &&)*_First);

  00009	56		 push	 esi
  0000a	ff 75 10	 push	 DWORD PTR __Dest$[ebp]
  0000d	ff 75 14	 push	 DWORD PTR __Al$[ebp]
  00010	e8 00 00 00 00	 call	 ??$_Cons_val@V?$allocator@UDistInfo@ioOwnerAttach5Dummy@@@std@@UDistInfo@ioOwnerAttach5Dummy@@U34@@std@@YAXAAV?$allocator@UDistInfo@ioOwnerAttach5Dummy@@@0@PAUDistInfo@ioOwnerAttach5Dummy@@$$QAU23@@Z ; std::_Cons_val<std::allocator<ioOwnerAttach5Dummy::DistInfo>,ioOwnerAttach5Dummy::DistInfo,ioOwnerAttach5Dummy::DistInfo>
  00015	83 45 10 08	 add	 DWORD PTR __Dest$[ebp], 8
  00019	83 c4 0c	 add	 esp, 12			; 0000000cH
  0001c	83 c6 08	 add	 esi, 8
$LN24@Uninit_mov:

; 425  : 	_DEBUG_RANGE(_First, _Last);
; 426  : 	_DEBUG_POINTER(_Dest);
; 427  : 	_FwdIt _Next = _Dest;
; 428  : 
; 429  : 	_TRY_BEGIN
; 430  : 	for (; _First != _Last; ++_Dest, ++_First)

  0001f	3b 75 0c	 cmp	 esi, DWORD PTR __Last$[ebp]
  00022	75 e5		 jne	 SHORT $LL6@Uninit_mov

; 432  : 	_CATCH_ALL
; 433  : 	for (; _Next != _Dest; ++_Next)
; 434  : 		_Dest_val(_Al, _Next);
; 435  : 	_RERAISE;
; 436  : 	_CATCH_END
; 437  : 	return (_Dest);

  00024	8b 45 10	 mov	 eax, DWORD PTR __Dest$[ebp]
  00027	5e		 pop	 esi

; 438  : 	}

  00028	5d		 pop	 ebp
  00029	c3		 ret	 0
??$_Uninit_move@PAUDistInfo@ioOwnerAttach5Dummy@@PAU12@V?$allocator@UDistInfo@ioOwnerAttach5Dummy@@@std@@U12@@std@@YAPAUDistInfo@ioOwnerAttach5Dummy@@PAU12@00AAV?$allocator@UDistInfo@ioOwnerAttach5Dummy@@@0@0U_Nonscalar_ptr_iterator_tag@0@@Z ENDP ; std::_Uninit_move<ioOwnerAttach5Dummy::DistInfo *,ioOwnerAttach5Dummy::DistInfo *,std::allocator<ioOwnerAttach5Dummy::DistInfo>,ioOwnerAttach5Dummy::DistInfo>
_TEXT	ENDS
PUBLIC	??$_Median@PAUDistInfo@ioOwnerAttach5Dummy@@@std@@YAXPAUDistInfo@ioOwnerAttach5Dummy@@00@Z ; std::_Median<ioOwnerAttach5Dummy::DistInfo *>
; Function compile flags: /Ogsp
; File c:\program files (x86)\microsoft visual studio 10.0\vc\include\algorithm
;	COMDAT ??$_Median@PAUDistInfo@ioOwnerAttach5Dummy@@@std@@YAXPAUDistInfo@ioOwnerAttach5Dummy@@00@Z
_TEXT	SEGMENT
tv200 = 8						; size = 4
__First$ = 8						; size = 4
__Mid$ = 12						; size = 4
tv203 = 16						; size = 4
__Last$ = 16						; size = 4
??$_Median@PAUDistInfo@ioOwnerAttach5Dummy@@@std@@YAXPAUDistInfo@ioOwnerAttach5Dummy@@00@Z PROC ; std::_Median<ioOwnerAttach5Dummy::DistInfo *>, COMDAT

; 3535 : 	{	// sort median element to middle

  00000	55		 push	 ebp
  00001	8b ec		 mov	 ebp, esp

; 3536 : 	if (40 < _Last - _First)

  00003	8b 4d 08	 mov	 ecx, DWORD PTR __First$[ebp]
  00006	57		 push	 edi
  00007	8b 7d 10	 mov	 edi, DWORD PTR __Last$[ebp]
  0000a	8b c7		 mov	 eax, edi
  0000c	2b c1		 sub	 eax, ecx
  0000e	c1 f8 03	 sar	 eax, 3
  00011	83 f8 28	 cmp	 eax, 40			; 00000028H
  00014	7e 5e		 jle	 SHORT $LN2@Median

; 3537 : 		{	// median of nine
; 3538 : 		size_t _Step = (_Last - _First + 1) / 8;

  00016	40		 inc	 eax
  00017	99		 cdq
  00018	83 e2 07	 and	 edx, 7
  0001b	03 c2		 add	 eax, edx
  0001d	53		 push	 ebx
  0001e	c1 f8 03	 sar	 eax, 3
  00021	56		 push	 esi

; 3539 : 		_Med3(_First, _First + _Step, _First + 2 * _Step);

  00022	8b d8		 mov	 ebx, eax
  00024	8b f0		 mov	 esi, eax
  00026	c1 e3 04	 shl	 ebx, 4
  00029	8d 14 0b	 lea	 edx, DWORD PTR [ebx+ecx]
  0002c	c1 e6 03	 shl	 esi, 3
  0002f	8d 04 0e	 lea	 eax, DWORD PTR [esi+ecx]
  00032	52		 push	 edx
  00033	50		 push	 eax
  00034	51		 push	 ecx
  00035	89 45 08	 mov	 DWORD PTR tv200[ebp], eax
  00038	e8 00 00 00 00	 call	 ??$_Med3@PAUDistInfo@ioOwnerAttach5Dummy@@@std@@YAXPAUDistInfo@ioOwnerAttach5Dummy@@00@Z ; std::_Med3<ioOwnerAttach5Dummy::DistInfo *>

; 3540 : 		_Med3(_Mid - _Step, _Mid, _Mid + _Step);

  0003d	8b 45 0c	 mov	 eax, DWORD PTR __Mid$[ebp]
  00040	8d 0c 06	 lea	 ecx, DWORD PTR [esi+eax]
  00043	51		 push	 ecx
  00044	50		 push	 eax
  00045	2b c6		 sub	 eax, esi
  00047	50		 push	 eax
  00048	e8 00 00 00 00	 call	 ??$_Med3@PAUDistInfo@ioOwnerAttach5Dummy@@@std@@YAXPAUDistInfo@ioOwnerAttach5Dummy@@00@Z ; std::_Med3<ioOwnerAttach5Dummy::DistInfo *>

; 3541 : 		_Med3(_Last - 2 * _Step, _Last - _Step, _Last);

  0004d	89 7d 10	 mov	 DWORD PTR tv203[ebp], edi
  00050	29 75 10	 sub	 DWORD PTR tv203[ebp], esi
  00053	57		 push	 edi
  00054	ff 75 10	 push	 DWORD PTR tv203[ebp]
  00057	2b fb		 sub	 edi, ebx
  00059	57		 push	 edi
  0005a	e8 00 00 00 00	 call	 ??$_Med3@PAUDistInfo@ioOwnerAttach5Dummy@@@std@@YAXPAUDistInfo@ioOwnerAttach5Dummy@@00@Z ; std::_Med3<ioOwnerAttach5Dummy::DistInfo *>

; 3542 : 		_Med3(_First + _Step, _Mid, _Last - _Step);

  0005f	ff 75 10	 push	 DWORD PTR tv203[ebp]
  00062	ff 75 0c	 push	 DWORD PTR __Mid$[ebp]
  00065	ff 75 08	 push	 DWORD PTR tv200[ebp]
  00068	e8 00 00 00 00	 call	 ??$_Med3@PAUDistInfo@ioOwnerAttach5Dummy@@@std@@YAXPAUDistInfo@ioOwnerAttach5Dummy@@00@Z ; std::_Med3<ioOwnerAttach5Dummy::DistInfo *>
  0006d	83 c4 30	 add	 esp, 48			; 00000030H
  00070	5e		 pop	 esi
  00071	5b		 pop	 ebx

; 3543 : 		}
; 3544 : 	else

  00072	eb 0d		 jmp	 SHORT $LN1@Median
$LN2@Median:

; 3545 : 		_Med3(_First, _Mid, _Last);

  00074	57		 push	 edi
  00075	ff 75 0c	 push	 DWORD PTR __Mid$[ebp]
  00078	51		 push	 ecx
  00079	e8 00 00 00 00	 call	 ??$_Med3@PAUDistInfo@ioOwnerAttach5Dummy@@@std@@YAXPAUDistInfo@ioOwnerAttach5Dummy@@00@Z ; std::_Med3<ioOwnerAttach5Dummy::DistInfo *>
  0007e	83 c4 0c	 add	 esp, 12			; 0000000cH
$LN1@Median:
  00081	5f		 pop	 edi

; 3546 : 	}

  00082	5d		 pop	 ebp
  00083	c3		 ret	 0
??$_Median@PAUDistInfo@ioOwnerAttach5Dummy@@@std@@YAXPAUDistInfo@ioOwnerAttach5Dummy@@00@Z ENDP ; std::_Median<ioOwnerAttach5Dummy::DistInfo *>
_TEXT	ENDS
PUBLIC	??$_Pop_heap@PAUDistInfo@ioOwnerAttach5Dummy@@@std@@YAXPAUDistInfo@ioOwnerAttach5Dummy@@0@Z ; std::_Pop_heap<ioOwnerAttach5Dummy::DistInfo *>
; Function compile flags: /Ogsp
;	COMDAT ??$_Pop_heap@PAUDistInfo@ioOwnerAttach5Dummy@@@std@@YAXPAUDistInfo@ioOwnerAttach5Dummy@@0@Z
_TEXT	SEGMENT
__First$ = 8						; size = 4
__Last$ = 12						; size = 4
??$_Pop_heap@PAUDistInfo@ioOwnerAttach5Dummy@@@std@@YAXPAUDistInfo@ioOwnerAttach5Dummy@@0@Z PROC ; std::_Pop_heap<ioOwnerAttach5Dummy::DistInfo *>, COMDAT

; 2544 : 	{	// pop *_First to *(_Last - 1) and reheap, using operator<

  00000	55		 push	 ebp
  00001	8b ec		 mov	 ebp, esp

; 2545 : 	_Pop_heap_0(_Unchecked(_First), _Unchecked(_Last),
; 2546 : 		_Val_type(_First));

  00003	6a 00		 push	 0
  00005	ff 75 0c	 push	 DWORD PTR __Last$[ebp]
  00008	ff 75 08	 push	 DWORD PTR __First$[ebp]
  0000b	e8 00 00 00 00	 call	 ??$_Pop_heap_0@PAUDistInfo@ioOwnerAttach5Dummy@@U12@@std@@YAXPAUDistInfo@ioOwnerAttach5Dummy@@00@Z ; std::_Pop_heap_0<ioOwnerAttach5Dummy::DistInfo *,ioOwnerAttach5Dummy::DistInfo>
  00010	83 c4 0c	 add	 esp, 12			; 0000000cH

; 2547 : 	}

  00013	5d		 pop	 ebp
  00014	c3		 ret	 0
??$_Pop_heap@PAUDistInfo@ioOwnerAttach5Dummy@@@std@@YAXPAUDistInfo@ioOwnerAttach5Dummy@@0@Z ENDP ; std::_Pop_heap<ioOwnerAttach5Dummy::DistInfo *>
_TEXT	ENDS
PUBLIC	??$_Dest_val@V?$allocator@VioHashString@@@std@@VioHashString@@@std@@YAXAAV?$allocator@VioHashString@@@0@PAVioHashString@@@Z ; std::_Dest_val<std::allocator<ioHashString>,ioHashString>
; Function compile flags: /Ogsp
; File c:\program files (x86)\microsoft visual studio 10.0\vc\include\xmemory
;	COMDAT ??$_Dest_val@V?$allocator@VioHashString@@@std@@VioHashString@@@std@@YAXAAV?$allocator@VioHashString@@@0@PAVioHashString@@@Z
_TEXT	SEGMENT
__Alval$ = 8						; size = 4
__Pdest$ = 12						; size = 4
??$_Dest_val@V?$allocator@VioHashString@@@std@@VioHashString@@@std@@YAXAAV?$allocator@VioHashString@@@0@PAVioHashString@@@Z PROC ; std::_Dest_val<std::allocator<ioHashString>,ioHashString>, COMDAT

; 286  : 	{	// destroy using allocator

  00000	55		 push	 ebp
  00001	8b ec		 mov	 ebp, esp

; 287  : 	_Alval.destroy(_Pdest);

  00003	8b 4d 0c	 mov	 ecx, DWORD PTR __Pdest$[ebp]

; 288  : 	}

  00006	5d		 pop	 ebp

; 287  : 	_Alval.destroy(_Pdest);

  00007	ff 25 00 00 00
	00		 jmp	 DWORD PTR __imp_??1ioHashString@@QAE@XZ
??$_Dest_val@V?$allocator@VioHashString@@@std@@VioHashString@@@std@@YAXAAV?$allocator@VioHashString@@@0@PAVioHashString@@@Z ENDP ; std::_Dest_val<std::allocator<ioHashString>,ioHashString>
_TEXT	ENDS
PUBLIC	??1?$vector@PAVioBaseChar@@V?$allocator@PAVioBaseChar@@@std@@@std@@QAE@XZ ; std::vector<ioBaseChar *,std::allocator<ioBaseChar *> >::~vector<ioBaseChar *,std::allocator<ioBaseChar *> >
; Function compile flags: /Ogsp
; File c:\program files (x86)\microsoft visual studio 10.0\vc\include\vector
;	COMDAT ??1?$vector@PAVioBaseChar@@V?$allocator@PAVioBaseChar@@@std@@@std@@QAE@XZ
_TEXT	SEGMENT
??1?$vector@PAVioBaseChar@@V?$allocator@PAVioBaseChar@@@std@@@std@@QAE@XZ PROC ; std::vector<ioBaseChar *,std::allocator<ioBaseChar *> >::~vector<ioBaseChar *,std::allocator<ioBaseChar *> >, COMDAT
; _this$ = ecx

; 705  : 		_Tidy();

  00000	e9 00 00 00 00	 jmp	 ?_Tidy@?$vector@PAVioBaseChar@@V?$allocator@PAVioBaseChar@@@std@@@std@@IAEXXZ ; std::vector<ioBaseChar *,std::allocator<ioBaseChar *> >::_Tidy
??1?$vector@PAVioBaseChar@@V?$allocator@PAVioBaseChar@@@std@@@std@@QAE@XZ ENDP ; std::vector<ioBaseChar *,std::allocator<ioBaseChar *> >::~vector<ioBaseChar *,std::allocator<ioBaseChar *> >
_TEXT	ENDS
PUBLIC	??$_Destroy_range@V?$allocator@UDistInfo@ioOwnerAttach5Dummy@@@std@@@std@@YAXPAUDistInfo@ioOwnerAttach5Dummy@@0AAV?$allocator@UDistInfo@ioOwnerAttach5Dummy@@@0@@Z ; std::_Destroy_range<std::allocator<ioOwnerAttach5Dummy::DistInfo> >
; Function compile flags: /Ogsp
; File c:\program files (x86)\microsoft visual studio 10.0\vc\include\xmemory
;	COMDAT ??$_Destroy_range@V?$allocator@UDistInfo@ioOwnerAttach5Dummy@@@std@@@std@@YAXPAUDistInfo@ioOwnerAttach5Dummy@@0AAV?$allocator@UDistInfo@ioOwnerAttach5Dummy@@@0@@Z
_TEXT	SEGMENT
__First$ = 8						; size = 4
__Last$ = 12						; size = 4
__Al$ = 16						; size = 4
??$_Destroy_range@V?$allocator@UDistInfo@ioOwnerAttach5Dummy@@@std@@@std@@YAXPAUDistInfo@ioOwnerAttach5Dummy@@0AAV?$allocator@UDistInfo@ioOwnerAttach5Dummy@@@0@@Z PROC ; std::_Destroy_range<std::allocator<ioOwnerAttach5Dummy::DistInfo> >, COMDAT

; 88   : 	_Destroy_range(_First, _Last, _Al, _Ptr_cat(_First, _Last));
; 89   : 	}

  00000	c3		 ret	 0
??$_Destroy_range@V?$allocator@UDistInfo@ioOwnerAttach5Dummy@@@std@@@std@@YAXPAUDistInfo@ioOwnerAttach5Dummy@@0AAV?$allocator@UDistInfo@ioOwnerAttach5Dummy@@@0@@Z ENDP ; std::_Destroy_range<std::allocator<ioOwnerAttach5Dummy::DistInfo> >
_TEXT	ENDS
PUBLIC	??$_Uninitialized_move@PAUDistInfo@ioOwnerAttach5Dummy@@PAU12@V?$allocator@UDistInfo@ioOwnerAttach5Dummy@@@std@@@std@@YAPAUDistInfo@ioOwnerAttach5Dummy@@PAU12@00AAV?$allocator@UDistInfo@ioOwnerAttach5Dummy@@@0@@Z ; std::_Uninitialized_move<ioOwnerAttach5Dummy::DistInfo *,ioOwnerAttach5Dummy::DistInfo *,std::allocator<ioOwnerAttach5Dummy::DistInfo> >
; Function compile flags: /Ogsp
; File c:\program files (x86)\microsoft visual studio 10.0\vc\include\memory
;	COMDAT ??$_Uninitialized_move@PAUDistInfo@ioOwnerAttach5Dummy@@PAU12@V?$allocator@UDistInfo@ioOwnerAttach5Dummy@@@std@@@std@@YAPAUDistInfo@ioOwnerAttach5Dummy@@PAU12@00AAV?$allocator@UDistInfo@ioOwnerAttach5Dummy@@@0@@Z
_TEXT	SEGMENT
__Cat$575989 = -4					; size = 1
__First$ = 8						; size = 4
__Last$ = 12						; size = 4
__Dest$ = 16						; size = 4
__Al$ = 20						; size = 4
??$_Uninitialized_move@PAUDistInfo@ioOwnerAttach5Dummy@@PAU12@V?$allocator@UDistInfo@ioOwnerAttach5Dummy@@@std@@@std@@YAPAUDistInfo@ioOwnerAttach5Dummy@@PAU12@00AAV?$allocator@UDistInfo@ioOwnerAttach5Dummy@@@0@@Z PROC ; std::_Uninitialized_move<ioOwnerAttach5Dummy::DistInfo *,ioOwnerAttach5Dummy::DistInfo *,std::allocator<ioOwnerAttach5Dummy::DistInfo> >, COMDAT

; 469  : 	{	// move [_First, _Last) to raw _Dest, using _Al

  00000	55		 push	 ebp
  00001	8b ec		 mov	 ebp, esp
  00003	51		 push	 ecx

; 470  : 	return (_Uninit_move(_First, _Last, _Dest, _Al,
; 471  : 		_Val_type(_First), _Ptr_cat(_First, _Dest)));

  00004	ff 75 fc	 push	 DWORD PTR __Cat$575989[ebp]
  00007	6a 00		 push	 0
  00009	ff 75 14	 push	 DWORD PTR __Al$[ebp]
  0000c	ff 75 10	 push	 DWORD PTR __Dest$[ebp]
  0000f	ff 75 0c	 push	 DWORD PTR __Last$[ebp]
  00012	ff 75 08	 push	 DWORD PTR __First$[ebp]
  00015	e8 00 00 00 00	 call	 ??$_Uninit_move@PAUDistInfo@ioOwnerAttach5Dummy@@PAU12@V?$allocator@UDistInfo@ioOwnerAttach5Dummy@@@std@@U12@@std@@YAPAUDistInfo@ioOwnerAttach5Dummy@@PAU12@00AAV?$allocator@UDistInfo@ioOwnerAttach5Dummy@@@0@0U_Nonscalar_ptr_iterator_tag@0@@Z ; std::_Uninit_move<ioOwnerAttach5Dummy::DistInfo *,ioOwnerAttach5Dummy::DistInfo *,std::allocator<ioOwnerAttach5Dummy::DistInfo>,ioOwnerAttach5Dummy::DistInfo>
  0001a	83 c4 18	 add	 esp, 24			; 00000018H

; 472  : 	}

  0001d	c9		 leave
  0001e	c3		 ret	 0
??$_Uninitialized_move@PAUDistInfo@ioOwnerAttach5Dummy@@PAU12@V?$allocator@UDistInfo@ioOwnerAttach5Dummy@@@std@@@std@@YAPAUDistInfo@ioOwnerAttach5Dummy@@PAU12@00AAV?$allocator@UDistInfo@ioOwnerAttach5Dummy@@@0@@Z ENDP ; std::_Uninitialized_move<ioOwnerAttach5Dummy::DistInfo *,ioOwnerAttach5Dummy::DistInfo *,std::allocator<ioOwnerAttach5Dummy::DistInfo> >
_TEXT	ENDS
PUBLIC	??$_Unguarded_partition@PAUDistInfo@ioOwnerAttach5Dummy@@@std@@YA?AU?$pair@PAUDistInfo@ioOwnerAttach5Dummy@@PAU12@@0@PAUDistInfo@ioOwnerAttach5Dummy@@0@Z ; std::_Unguarded_partition<ioOwnerAttach5Dummy::DistInfo *>
; Function compile flags: /Ogsp
; File c:\program files (x86)\microsoft visual studio 10.0\vc\include\algorithm
;	COMDAT ??$_Unguarded_partition@PAUDistInfo@ioOwnerAttach5Dummy@@@std@@YA?AU?$pair@PAUDistInfo@ioOwnerAttach5Dummy@@PAU12@@0@PAUDistInfo@ioOwnerAttach5Dummy@@0@Z
_TEXT	SEGMENT
__Tmp$576301 = -52					; size = 8
__Tmp$576268 = -44					; size = 8
__Tmp$576236 = -36					; size = 8
__Tmp$576203 = -28					; size = 8
__Tmp$576105 = -20					; size = 8
__Tmp$576059 = -12					; size = 8
__Glast$ = -4						; size = 4
___$ReturnUdt$ = 8					; size = 4
__First$ = 12						; size = 4
__Last$ = 16						; size = 4
??$_Unguarded_partition@PAUDistInfo@ioOwnerAttach5Dummy@@@std@@YA?AU?$pair@PAUDistInfo@ioOwnerAttach5Dummy@@PAU12@@0@PAUDistInfo@ioOwnerAttach5Dummy@@0@Z PROC ; std::_Unguarded_partition<ioOwnerAttach5Dummy::DistInfo *>, COMDAT

; 3551 : 	{	// partition [_First, _Last), using operator<

  00000	55		 push	 ebp
  00001	8b ec		 mov	 ebp, esp
  00003	83 ec 34	 sub	 esp, 52			; 00000034H
  00006	53		 push	 ebx

; 3552 : 	_RanIt _Mid = _First + (_Last - _First) / 2;	// sort median to _Mid

  00007	8b 5d 10	 mov	 ebx, DWORD PTR __Last$[ebp]
  0000a	56		 push	 esi
  0000b	57		 push	 edi
  0000c	8b 7d 0c	 mov	 edi, DWORD PTR __First$[ebp]
  0000f	8b c3		 mov	 eax, ebx
  00011	2b c7		 sub	 eax, edi
  00013	c1 f8 03	 sar	 eax, 3
  00016	99		 cdq
  00017	2b c2		 sub	 eax, edx
  00019	d1 f8		 sar	 eax, 1
  0001b	8d 34 c7	 lea	 esi, DWORD PTR [edi+eax*8]

; 3553 : 	_Median(_First, _Mid, _Last - 1);

  0001e	8d 43 f8	 lea	 eax, DWORD PTR [ebx-8]
  00021	50		 push	 eax
  00022	56		 push	 esi
  00023	57		 push	 edi
  00024	e8 00 00 00 00	 call	 ??$_Median@PAUDistInfo@ioOwnerAttach5Dummy@@@std@@YAXPAUDistInfo@ioOwnerAttach5Dummy@@00@Z ; std::_Median<ioOwnerAttach5Dummy::DistInfo *>
  00029	83 c4 0c	 add	 esp, 12			; 0000000cH

; 3554 : 	_RanIt _Pfirst = _Mid;

  0002c	8b ce		 mov	 ecx, esi

; 3555 : 	_RanIt _Plast = _Pfirst + 1;

  0002e	8d 56 08	 lea	 edx, DWORD PTR [esi+8]

; 3556 : 
; 3557 : 	while (_First < _Pfirst
; 3558 : 		&& !_DEBUG_LT(*(_Pfirst - 1), *_Pfirst)
; 3559 : 		&& !(*_Pfirst < *(_Pfirst - 1)))

  00031	3b fe		 cmp	 edi, esi
  00033	73 29		 jae	 SHORT $LN158@Unguarded_
$LL27@Unguarded_:
  00035	f3 0f 10 41 fc	 movss	 xmm0, DWORD PTR [ecx-4]
  0003a	f3 0f 10 49 04	 movss	 xmm1, DWORD PTR [ecx+4]
  0003f	0f 5a d0	 cvtps2pd xmm2, xmm0
  00042	0f 5a d9	 cvtps2pd xmm3, xmm1
  00045	66 0f 2f da	 comisd	 xmm3, xmm2
  00049	77 13		 ja	 SHORT $LN158@Unguarded_
  0004b	0f 5a c9	 cvtps2pd xmm1, xmm1
  0004e	0f 5a c0	 cvtps2pd xmm0, xmm0
  00051	66 0f 2f c1	 comisd	 xmm0, xmm1
  00055	77 07		 ja	 SHORT $LN158@Unguarded_

; 3560 : 		--_Pfirst;

  00057	83 e9 08	 sub	 ecx, 8
  0005a	3b f9		 cmp	 edi, ecx
  0005c	72 d7		 jb	 SHORT $LL27@Unguarded_
$LN158@Unguarded_:

; 3561 : 	while (_Plast < _Last
; 3562 : 		&& !_DEBUG_LT(*_Plast, *_Pfirst)
; 3563 : 		&& !(*_Pfirst < *_Plast))

  0005e	3b d3		 cmp	 edx, ebx
  00060	73 31		 jae	 SHORT $LN160@Unguarded_
  00062	f3 0f 10 49 04	 movss	 xmm1, DWORD PTR [ecx+4]
$LL25@Unguarded_:
  00067	f3 0f 10 42 04	 movss	 xmm0, DWORD PTR [edx+4]
  0006c	0f 57 db	 xorps	 xmm3, xmm3
  0006f	0f 5a d0	 cvtps2pd xmm2, xmm0
  00072	f3 0f 5a d9	 cvtss2sd xmm3, xmm1
  00076	66 0f 2f da	 comisd	 xmm3, xmm2
  0007a	77 17		 ja	 SHORT $LN160@Unguarded_
  0007c	0f 57 d2	 xorps	 xmm2, xmm2
  0007f	f3 0f 5a d1	 cvtss2sd xmm2, xmm1
  00083	0f 5a c0	 cvtps2pd xmm0, xmm0
  00086	66 0f 2f c2	 comisd	 xmm0, xmm2
  0008a	77 07		 ja	 SHORT $LN160@Unguarded_

; 3564 : 		++_Plast;

  0008c	83 c2 08	 add	 edx, 8
  0008f	3b d3		 cmp	 edx, ebx
  00091	72 d4		 jb	 SHORT $LL25@Unguarded_
$LN160@Unguarded_:

; 3565 : 
; 3566 : 	_RanIt _Gfirst = _Plast;
; 3567 : 	_RanIt _Glast = _Pfirst;

  00093	8b f1		 mov	 esi, ecx
  00095	8b c2		 mov	 eax, edx
  00097	89 75 fc	 mov	 DWORD PTR __Glast$[ebp], esi

; 3568 : 
; 3569 : 	for (; ; )
; 3570 : 		{	// partition
; 3571 : 		for (; _Gfirst < _Last; ++_Gfirst)

  0009a	eb 4a		 jmp	 SHORT $LN166@Unguarded_
$LL21@Unguarded_:

; 3572 : 			if (_DEBUG_LT(*_Pfirst, *_Gfirst))

  0009c	f3 0f 10 41 04	 movss	 xmm0, DWORD PTR [ecx+4]
  000a1	f3 0f 10 48 04	 movss	 xmm1, DWORD PTR [eax+4]
  000a6	0f 5a d0	 cvtps2pd xmm2, xmm0
  000a9	0f 5a d9	 cvtps2pd xmm3, xmm1
  000ac	66 0f 2f da	 comisd	 xmm3, xmm2
  000b0	77 31		 ja	 SHORT $LN20@Unguarded_

; 3573 : 				;
; 3574 : 			else if (*_Gfirst < *_Pfirst)

  000b2	0f 5a c9	 cvtps2pd xmm1, xmm1
  000b5	0f 5a c0	 cvtps2pd xmm0, xmm0
  000b8	66 0f 2f c1	 comisd	 xmm0, xmm1
  000bc	77 2d		 ja	 SHORT $LN161@Unguarded_

; 3575 : 				break;
; 3576 : 			else
; 3577 : 				_STD iter_swap(_Plast++, _Gfirst);

  000be	8b fa		 mov	 edi, edx
  000c0	8b 1f		 mov	 ebx, DWORD PTR [edi]
  000c2	89 5d f4	 mov	 DWORD PTR __Tmp$576059[ebp], ebx
  000c5	8b 5f 04	 mov	 ebx, DWORD PTR [edi+4]
  000c8	89 5d f8	 mov	 DWORD PTR __Tmp$576059[ebp+4], ebx
  000cb	8b 18		 mov	 ebx, DWORD PTR [eax]
  000cd	89 1f		 mov	 DWORD PTR [edi], ebx
  000cf	8b 58 04	 mov	 ebx, DWORD PTR [eax+4]
  000d2	89 5f 04	 mov	 DWORD PTR [edi+4], ebx
  000d5	8b 7d f4	 mov	 edi, DWORD PTR __Tmp$576059[ebp]
  000d8	89 38		 mov	 DWORD PTR [eax], edi
  000da	8b 7d f8	 mov	 edi, DWORD PTR __Tmp$576059[ebp+4]
  000dd	89 78 04	 mov	 DWORD PTR [eax+4], edi
$LN168@Unguarded_:
  000e0	83 c2 08	 add	 edx, 8
$LN20@Unguarded_:

; 3568 : 
; 3569 : 	for (; ; )
; 3570 : 		{	// partition
; 3571 : 		for (; _Gfirst < _Last; ++_Gfirst)

  000e3	83 c0 08	 add	 eax, 8
$LN166@Unguarded_:
  000e6	3b 45 10	 cmp	 eax, DWORD PTR __Last$[ebp]
  000e9	72 b1		 jb	 SHORT $LL21@Unguarded_
$LN161@Unguarded_:

; 3578 : 		for (; _First < _Glast; --_Glast)

  000eb	3b 75 0c	 cmp	 esi, DWORD PTR __First$[ebp]
  000ee	76 59		 jbe	 SHORT $LN167@Unguarded_
  000f0	8d 7e f8	 lea	 edi, DWORD PTR [esi-8]
$LL163@Unguarded_:

; 3579 : 			if (_DEBUG_LT(*(_Glast - 1), *_Pfirst))

  000f3	f3 0f 10 47 04	 movss	 xmm0, DWORD PTR [edi+4]
  000f8	f3 0f 10 49 04	 movss	 xmm1, DWORD PTR [ecx+4]
  000fd	0f 5a d0	 cvtps2pd xmm2, xmm0
  00100	0f 5a d9	 cvtps2pd xmm3, xmm1
  00103	66 0f 2f da	 comisd	 xmm3, xmm2
  00107	77 2f		 ja	 SHORT $LN13@Unguarded_

; 3580 : 				;
; 3581 : 			else if (*_Pfirst < *(_Glast - 1))

  00109	0f 5a c9	 cvtps2pd xmm1, xmm1
  0010c	0f 5a c0	 cvtps2pd xmm0, xmm0
  0010f	66 0f 2f c1	 comisd	 xmm0, xmm1
  00113	77 31		 ja	 SHORT $LN162@Unguarded_

; 3582 : 				break;
; 3583 : 			else
; 3584 : 				_STD iter_swap(--_Pfirst, _Glast - 1);

  00115	83 e9 08	 sub	 ecx, 8
  00118	8b 19		 mov	 ebx, DWORD PTR [ecx]
  0011a	89 5d ec	 mov	 DWORD PTR __Tmp$576105[ebp], ebx
  0011d	8b 59 04	 mov	 ebx, DWORD PTR [ecx+4]
  00120	89 5d f0	 mov	 DWORD PTR __Tmp$576105[ebp+4], ebx
  00123	8b 1f		 mov	 ebx, DWORD PTR [edi]
  00125	89 19		 mov	 DWORD PTR [ecx], ebx
  00127	8b 5f 04	 mov	 ebx, DWORD PTR [edi+4]
  0012a	89 59 04	 mov	 DWORD PTR [ecx+4], ebx
  0012d	8b 5d ec	 mov	 ebx, DWORD PTR __Tmp$576105[ebp]
  00130	89 1f		 mov	 DWORD PTR [edi], ebx
  00132	8b 5d f0	 mov	 ebx, DWORD PTR __Tmp$576105[ebp+4]
  00135	89 5f 04	 mov	 DWORD PTR [edi+4], ebx
$LN13@Unguarded_:

; 3578 : 		for (; _First < _Glast; --_Glast)

  00138	83 ee 08	 sub	 esi, 8
  0013b	83 ef 08	 sub	 edi, 8
  0013e	89 75 fc	 mov	 DWORD PTR __Glast$[ebp], esi
  00141	39 75 0c	 cmp	 DWORD PTR __First$[ebp], esi
  00144	72 ad		 jb	 SHORT $LL163@Unguarded_
$LN162@Unguarded_:

; 3585 : 		if (_Glast == _First && _Gfirst == _Last)

  00146	3b 75 0c	 cmp	 esi, DWORD PTR __First$[ebp]
$LN167@Unguarded_:
  00149	75 50		 jne	 SHORT $LN6@Unguarded_
  0014b	3b 45 10	 cmp	 eax, DWORD PTR __Last$[ebp]
  0014e	0f 84 b4 00 00
	00		 je	 $LN152@Unguarded_

; 3587 : 
; 3588 : 		if (_Glast == _First)
; 3589 : 			{	// no room at bottom, rotate pivot upward
; 3590 : 			if (_Plast != _Gfirst)

  00154	3b d0		 cmp	 edx, eax
  00156	74 14		 je	 SHORT $LN96@Unguarded_

; 3591 : 				_STD iter_swap(_Pfirst, _Plast);

  00158	8b 1a		 mov	 ebx, DWORD PTR [edx]
  0015a	8b 31		 mov	 esi, DWORD PTR [ecx]
  0015c	8b 79 04	 mov	 edi, DWORD PTR [ecx+4]
  0015f	89 19		 mov	 DWORD PTR [ecx], ebx
  00161	8b 5a 04	 mov	 ebx, DWORD PTR [edx+4]
  00164	89 59 04	 mov	 DWORD PTR [ecx+4], ebx
  00167	89 32		 mov	 DWORD PTR [edx], esi
  00169	89 7a 04	 mov	 DWORD PTR [edx+4], edi
$LN96@Unguarded_:

; 3592 : 			++_Plast;
; 3593 : 			_STD iter_swap(_Pfirst++, _Gfirst++);

  0016c	8b f9		 mov	 edi, ecx
  0016e	8b 1f		 mov	 ebx, DWORD PTR [edi]
  00170	89 5d e4	 mov	 DWORD PTR __Tmp$576203[ebp], ebx
  00173	8b 5f 04	 mov	 ebx, DWORD PTR [edi+4]
  00176	8b f0		 mov	 esi, eax
  00178	89 5d e8	 mov	 DWORD PTR __Tmp$576203[ebp+4], ebx
  0017b	8b 1e		 mov	 ebx, DWORD PTR [esi]
  0017d	89 1f		 mov	 DWORD PTR [edi], ebx
  0017f	8b 5e 04	 mov	 ebx, DWORD PTR [esi+4]
  00182	89 5f 04	 mov	 DWORD PTR [edi+4], ebx
  00185	8b 7d e4	 mov	 edi, DWORD PTR __Tmp$576203[ebp]
  00188	89 3e		 mov	 DWORD PTR [esi], edi
  0018a	8b 7d e8	 mov	 edi, DWORD PTR __Tmp$576203[ebp+4]
  0018d	89 7e 04	 mov	 DWORD PTR [esi+4], edi
  00190	8b 75 fc	 mov	 esi, DWORD PTR __Glast$[ebp]
  00193	83 c1 08	 add	 ecx, 8
  00196	e9 45 ff ff ff	 jmp	 $LN168@Unguarded_
$LN6@Unguarded_:

; 3594 : 			}
; 3595 : 		else if (_Gfirst == _Last)
; 3596 : 			{	// no room at top, rotate pivot downward
; 3597 : 			if (--_Glast != --_Pfirst)

  0019b	83 ee 08	 sub	 esi, 8
  0019e	89 75 fc	 mov	 DWORD PTR __Glast$[ebp], esi
  001a1	3b 45 10	 cmp	 eax, DWORD PTR __Last$[ebp]
  001a4	75 43		 jne	 SHORT $LN3@Unguarded_
  001a6	83 e9 08	 sub	 ecx, 8
  001a9	3b f1		 cmp	 esi, ecx
  001ab	74 1a		 je	 SHORT $LN116@Unguarded_

; 3598 : 				_STD iter_swap(_Glast, _Pfirst);

  001ad	8b 5e 04	 mov	 ebx, DWORD PTR [esi+4]
  001b0	8b 3e		 mov	 edi, DWORD PTR [esi]
  001b2	89 5d e0	 mov	 DWORD PTR __Tmp$576236[ebp+4], ebx
  001b5	8b 19		 mov	 ebx, DWORD PTR [ecx]
  001b7	89 1e		 mov	 DWORD PTR [esi], ebx
  001b9	8b 59 04	 mov	 ebx, DWORD PTR [ecx+4]
  001bc	89 5e 04	 mov	 DWORD PTR [esi+4], ebx
  001bf	89 39		 mov	 DWORD PTR [ecx], edi
  001c1	8b 7d e0	 mov	 edi, DWORD PTR __Tmp$576236[ebp+4]
  001c4	89 79 04	 mov	 DWORD PTR [ecx+4], edi
$LN116@Unguarded_:

; 3599 : 			_STD iter_swap(_Pfirst, --_Plast);

  001c7	8b 59 04	 mov	 ebx, DWORD PTR [ecx+4]
  001ca	8b 39		 mov	 edi, DWORD PTR [ecx]
  001cc	83 ea 08	 sub	 edx, 8
  001cf	89 5d d8	 mov	 DWORD PTR __Tmp$576268[ebp+4], ebx
  001d2	8b 1a		 mov	 ebx, DWORD PTR [edx]
  001d4	89 19		 mov	 DWORD PTR [ecx], ebx
  001d6	8b 5a 04	 mov	 ebx, DWORD PTR [edx+4]
  001d9	89 59 04	 mov	 DWORD PTR [ecx+4], ebx
  001dc	89 3a		 mov	 DWORD PTR [edx], edi
  001de	8b 7d d8	 mov	 edi, DWORD PTR __Tmp$576268[ebp+4]
  001e1	89 7a 04	 mov	 DWORD PTR [edx+4], edi

; 3600 : 			}
; 3601 : 		else

  001e4	e9 fd fe ff ff	 jmp	 $LN166@Unguarded_
$LN3@Unguarded_:

; 3602 : 			_STD iter_swap(_Gfirst++, --_Glast);

  001e9	8b 58 04	 mov	 ebx, DWORD PTR [eax+4]
  001ec	8b 38		 mov	 edi, DWORD PTR [eax]
  001ee	89 5d d0	 mov	 DWORD PTR __Tmp$576301[ebp+4], ebx
  001f1	8b 1e		 mov	 ebx, DWORD PTR [esi]
  001f3	89 18		 mov	 DWORD PTR [eax], ebx
  001f5	8b 5e 04	 mov	 ebx, DWORD PTR [esi+4]
  001f8	89 58 04	 mov	 DWORD PTR [eax+4], ebx
  001fb	89 3e		 mov	 DWORD PTR [esi], edi
  001fd	8b 7d d0	 mov	 edi, DWORD PTR __Tmp$576301[ebp+4]
  00200	89 7e 04	 mov	 DWORD PTR [esi+4], edi

; 3603 : 		}

  00203	e9 db fe ff ff	 jmp	 $LN20@Unguarded_
$LN152@Unguarded_:

; 3586 : 			return (_STD pair<_RanIt, _RanIt>(_Pfirst, _Plast));

  00208	8b 45 08	 mov	 eax, DWORD PTR ___$ReturnUdt$[ebp]
  0020b	5f		 pop	 edi
  0020c	5e		 pop	 esi
  0020d	89 08		 mov	 DWORD PTR [eax], ecx
  0020f	89 50 04	 mov	 DWORD PTR [eax+4], edx
  00212	5b		 pop	 ebx

; 3604 : 	}

  00213	c9		 leave
  00214	c3		 ret	 0
??$_Unguarded_partition@PAUDistInfo@ioOwnerAttach5Dummy@@@std@@YA?AU?$pair@PAUDistInfo@ioOwnerAttach5Dummy@@PAU12@@0@PAUDistInfo@ioOwnerAttach5Dummy@@0@Z ENDP ; std::_Unguarded_partition<ioOwnerAttach5Dummy::DistInfo *>
_TEXT	ENDS
PUBLIC	??$_Uninit_move@PAVioHashString@@PAV1@V?$allocator@VioHashString@@@std@@V1@@std@@YAPAVioHashString@@PAV1@00AAV?$allocator@VioHashString@@@0@0U_Nonscalar_ptr_iterator_tag@0@@Z ; std::_Uninit_move<ioHashString *,ioHashString *,std::allocator<ioHashString>,ioHashString>
EXTRN	__EH_prolog3_catch:PROC
;	COMDAT xdata$x
; File c:\program files (x86)\microsoft visual studio 10.0\vc\include\vector
xdata$x	SEGMENT
__catchsym$??$_Uninit_move@PAVioHashString@@PAV1@V?$allocator@VioHashString@@@std@@V1@@std@@YAPAVioHashString@@PAV1@00AAV?$allocator@VioHashString@@@0@0U_Nonscalar_ptr_iterator_tag@0@@Z$2 DD 040H
	DD	00H
	DD	00H
	DD	FLAT:__catch$??$_Uninit_move@PAVioHashString@@PAV1@V?$allocator@VioHashString@@@std@@V1@@std@@YAPAVioHashString@@PAV1@00AAV?$allocator@VioHashString@@@0@0U_Nonscalar_ptr_iterator_tag@0@@Z$0
__unwindtable$??$_Uninit_move@PAVioHashString@@PAV1@V?$allocator@VioHashString@@@std@@V1@@std@@YAPAVioHashString@@PAV1@00AAV?$allocator@VioHashString@@@0@0U_Nonscalar_ptr_iterator_tag@0@@Z DD 0ffffffffH
	DD	00H
	DD	0ffffffffH
	DD	00H
__tryblocktable$??$_Uninit_move@PAVioHashString@@PAV1@V?$allocator@VioHashString@@@std@@V1@@std@@YAPAVioHashString@@PAV1@00AAV?$allocator@VioHashString@@@0@0U_Nonscalar_ptr_iterator_tag@0@@Z DD 00H
	DD	00H
	DD	01H
	DD	01H
	DD	FLAT:__catchsym$??$_Uninit_move@PAVioHashString@@PAV1@V?$allocator@VioHashString@@@std@@V1@@std@@YAPAVioHashString@@PAV1@00AAV?$allocator@VioHashString@@@0@0U_Nonscalar_ptr_iterator_tag@0@@Z$2
__ehfuncinfo$??$_Uninit_move@PAVioHashString@@PAV1@V?$allocator@VioHashString@@@std@@V1@@std@@YAPAVioHashString@@PAV1@00AAV?$allocator@VioHashString@@@0@0U_Nonscalar_ptr_iterator_tag@0@@Z DD 019930522H
	DD	02H
	DD	FLAT:__unwindtable$??$_Uninit_move@PAVioHashString@@PAV1@V?$allocator@VioHashString@@@std@@V1@@std@@YAPAVioHashString@@PAV1@00AAV?$allocator@VioHashString@@@0@0U_Nonscalar_ptr_iterator_tag@0@@Z
	DD	01H
	DD	FLAT:__tryblocktable$??$_Uninit_move@PAVioHashString@@PAV1@V?$allocator@VioHashString@@@std@@V1@@std@@YAPAVioHashString@@PAV1@00AAV?$allocator@VioHashString@@@0@0U_Nonscalar_ptr_iterator_tag@0@@Z
	DD	2 DUP(00H)
	DD	00H
	DD	01H
; Function compile flags: /Ogsp
; File c:\program files (x86)\microsoft visual studio 10.0\vc\include\memory
xdata$x	ENDS
;	COMDAT ??$_Uninit_move@PAVioHashString@@PAV1@V?$allocator@VioHashString@@@std@@V1@@std@@YAPAVioHashString@@PAV1@00AAV?$allocator@VioHashString@@@0@0U_Nonscalar_ptr_iterator_tag@0@@Z
_TEXT	SEGMENT
__Next$ = -20						; size = 4
__$EHRec$ = -16						; size = 16
__First$ = 8						; size = 4
__Last$ = 12						; size = 4
__Dest$ = 16						; size = 4
__Al$ = 20						; size = 4
___formal$ = 24						; size = 4
___formal$ = 28						; size = 1
??$_Uninit_move@PAVioHashString@@PAV1@V?$allocator@VioHashString@@@std@@V1@@std@@YAPAVioHashString@@PAV1@00AAV?$allocator@VioHashString@@@0@0U_Nonscalar_ptr_iterator_tag@0@@Z PROC ; std::_Uninit_move<ioHashString *,ioHashString *,std::allocator<ioHashString>,ioHashString>, COMDAT

; 424  : 	{	// move [_First, _Last) to raw _Dest, using _Al, arbitrary type

  00000	6a 08		 push	 8
  00002	b8 00 00 00 00	 mov	 eax, __ehhandler$??$_Uninit_move@PAVioHashString@@PAV1@V?$allocator@VioHashString@@@std@@V1@@std@@YAPAVioHashString@@PAV1@00AAV?$allocator@VioHashString@@@0@0U_Nonscalar_ptr_iterator_tag@0@@Z
  00007	e8 00 00 00 00	 call	 __EH_prolog3_catch

; 425  : 	_DEBUG_RANGE(_First, _Last);
; 426  : 	_DEBUG_POINTER(_Dest);
; 427  : 	_FwdIt _Next = _Dest;

  0000c	8b 45 10	 mov	 eax, DWORD PTR __Dest$[ebp]

; 428  : 
; 429  : 	_TRY_BEGIN

  0000f	83 65 fc 00	 and	 DWORD PTR __$EHRec$[ebp+12], 0
  00013	8b 75 08	 mov	 esi, DWORD PTR __First$[ebp]
  00016	89 45 ec	 mov	 DWORD PTR __Next$[ebp], eax
$LL6@Uninit_mov@2:

; 430  : 	for (; _First != _Last; ++_Dest, ++_First)

  00019	3b 75 0c	 cmp	 esi, DWORD PTR __Last$[ebp]
  0001c	74 33		 je	 SHORT $LN4@Uninit_mov@2

; 431  : 		_Cons_val(_Al, _Dest, (_Valty &&)*_First);

  0001e	8b 4d 14	 mov	 ecx, DWORD PTR __Al$[ebp]
  00021	56		 push	 esi
  00022	ff 75 10	 push	 DWORD PTR __Dest$[ebp]
  00025	e8 00 00 00 00	 call	 ?construct@?$allocator@VioHashString@@@std@@QAEXPAVioHashString@@$$QAV3@@Z ; std::allocator<ioHashString>::construct
  0002a	83 45 10 10	 add	 DWORD PTR __Dest$[ebp], 16 ; 00000010H
  0002e	83 c6 10	 add	 esi, 16			; 00000010H
  00031	eb e6		 jmp	 SHORT $LL6@Uninit_mov@2
__catch$??$_Uninit_move@PAVioHashString@@PAV1@V?$allocator@VioHashString@@@std@@V1@@std@@YAPAVioHashString@@PAV1@00AAV?$allocator@VioHashString@@@0@0U_Nonscalar_ptr_iterator_tag@0@@Z$0:

; 432  : 	_CATCH_ALL
; 433  : 	for (; _Next != _Dest; ++_Next)

  00033	8b 75 ec	 mov	 esi, DWORD PTR __Next$[ebp]
  00036	eb 0b		 jmp	 SHORT $LN33@Uninit_mov@2
$LL3@Uninit_mov@2:

; 434  : 		_Dest_val(_Al, _Next);

  00038	8b ce		 mov	 ecx, esi
  0003a	ff 15 00 00 00
	00		 call	 DWORD PTR __imp_??1ioHashString@@QAE@XZ
  00040	83 c6 10	 add	 esi, 16			; 00000010H
$LN33@Uninit_mov@2:

; 432  : 	_CATCH_ALL
; 433  : 	for (; _Next != _Dest; ++_Next)

  00043	3b 75 10	 cmp	 esi, DWORD PTR __Dest$[ebp]
  00046	75 f0		 jne	 SHORT $LL3@Uninit_mov@2

; 435  : 	_RERAISE;

  00048	6a 00		 push	 0
  0004a	6a 00		 push	 0
  0004c	e8 00 00 00 00	 call	 __CxxThrowException@8
$LN34@Uninit_mov@2:
$LN4@Uninit_mov@2:

; 436  : 	_CATCH_END
; 437  : 	return (_Dest);

  00051	8b 45 10	 mov	 eax, DWORD PTR __Dest$[ebp]

; 438  : 	}

  00054	e8 00 00 00 00	 call	 __EH_epilog3
  00059	c3		 ret	 0
$LN32@Uninit_mov@2:
_TEXT	ENDS
;	COMDAT text$x
text$x	SEGMENT
__ehhandler$??$_Uninit_move@PAVioHashString@@PAV1@V?$allocator@VioHashString@@@std@@V1@@std@@YAPAVioHashString@@PAV1@00AAV?$allocator@VioHashString@@@0@0U_Nonscalar_ptr_iterator_tag@0@@Z:
  00000	8b 54 24 08	 mov	 edx, DWORD PTR [esp+8]
  00004	8d 42 0c	 lea	 eax, DWORD PTR [edx+12]
  00007	8b 4a e8	 mov	 ecx, DWORD PTR [edx-24]
  0000a	33 c8		 xor	 ecx, eax
  0000c	e8 00 00 00 00	 call	 @__security_check_cookie@4
  00011	b8 00 00 00 00	 mov	 eax, OFFSET __ehfuncinfo$??$_Uninit_move@PAVioHashString@@PAV1@V?$allocator@VioHashString@@@std@@V1@@std@@YAPAVioHashString@@PAV1@00AAV?$allocator@VioHashString@@@0@0U_Nonscalar_ptr_iterator_tag@0@@Z
  00016	e9 00 00 00 00	 jmp	 ___CxxFrameHandler3
text$x	ENDS
??$_Uninit_move@PAVioHashString@@PAV1@V?$allocator@VioHashString@@@std@@V1@@std@@YAPAVioHashString@@PAV1@00AAV?$allocator@VioHashString@@@0@0U_Nonscalar_ptr_iterator_tag@0@@Z ENDP ; std::_Uninit_move<ioHashString *,ioHashString *,std::allocator<ioHashString>,ioHashString>
PUBLIC	??$_Sort_heap@PAUDistInfo@ioOwnerAttach5Dummy@@@std@@YAXPAUDistInfo@ioOwnerAttach5Dummy@@0@Z ; std::_Sort_heap<ioOwnerAttach5Dummy::DistInfo *>
; Function compile flags: /Ogsp
; File c:\program files (x86)\microsoft visual studio 10.0\vc\include\algorithm
;	COMDAT ??$_Sort_heap@PAUDistInfo@ioOwnerAttach5Dummy@@@std@@YAXPAUDistInfo@ioOwnerAttach5Dummy@@0@Z
_TEXT	SEGMENT
__First$ = 8						; size = 4
__Last$ = 12						; size = 4
??$_Sort_heap@PAUDistInfo@ioOwnerAttach5Dummy@@@std@@YAXPAUDistInfo@ioOwnerAttach5Dummy@@0@Z PROC ; std::_Sort_heap<ioOwnerAttach5Dummy::DistInfo *>, COMDAT

; 2683 : 	{	// order heap by repeatedly popping, using operator<

  00000	55		 push	 ebp
  00001	8b ec		 mov	 ebp, esp

; 2684 : 	for (; 1 < _Last - _First; --_Last)

  00003	8b 45 0c	 mov	 eax, DWORD PTR __Last$[ebp]
  00006	2b 45 08	 sub	 eax, DWORD PTR __First$[ebp]
  00009	8b c8		 mov	 ecx, eax
  0000b	83 e1 f8	 and	 ecx, -8			; fffffff8H
  0000e	83 f9 08	 cmp	 ecx, 8
  00011	7e 25		 jle	 SHORT $LN1@Sort_heap
  00013	57		 push	 edi
  00014	8b f8		 mov	 edi, eax
$LL3@Sort_heap:

; 2685 : 		_Pop_heap(_First, _Last);

  00016	6a 00		 push	 0
  00018	ff 75 0c	 push	 DWORD PTR __Last$[ebp]
  0001b	ff 75 08	 push	 DWORD PTR __First$[ebp]
  0001e	e8 00 00 00 00	 call	 ??$_Pop_heap_0@PAUDistInfo@ioOwnerAttach5Dummy@@U12@@std@@YAXPAUDistInfo@ioOwnerAttach5Dummy@@00@Z ; std::_Pop_heap_0<ioOwnerAttach5Dummy::DistInfo *,ioOwnerAttach5Dummy::DistInfo>
  00023	83 6d 0c 08	 sub	 DWORD PTR __Last$[ebp], 8
  00027	83 ef 08	 sub	 edi, 8
  0002a	8b c7		 mov	 eax, edi
  0002c	83 e0 f8	 and	 eax, -8			; fffffff8H
  0002f	83 c4 0c	 add	 esp, 12			; 0000000cH
  00032	83 f8 08	 cmp	 eax, 8
  00035	7f df		 jg	 SHORT $LL3@Sort_heap
  00037	5f		 pop	 edi
$LN1@Sort_heap:

; 2686 : 	}

  00038	5d		 pop	 ebp
  00039	c3		 ret	 0
??$_Sort_heap@PAUDistInfo@ioOwnerAttach5Dummy@@@std@@YAXPAUDistInfo@ioOwnerAttach5Dummy@@0@Z ENDP ; std::_Sort_heap<ioOwnerAttach5Dummy::DistInfo *>
_TEXT	ENDS
PUBLIC	??$_Destroy_range@V?$allocator@VioHashString@@@std@@@std@@YAXPAVioHashString@@0AAV?$allocator@VioHashString@@@0@U_Nonscalar_ptr_iterator_tag@0@@Z ; std::_Destroy_range<std::allocator<ioHashString> >
; Function compile flags: /Ogsp
; File c:\program files (x86)\microsoft visual studio 10.0\vc\include\xmemory
;	COMDAT ??$_Destroy_range@V?$allocator@VioHashString@@@std@@@std@@YAXPAVioHashString@@0AAV?$allocator@VioHashString@@@0@U_Nonscalar_ptr_iterator_tag@0@@Z
_TEXT	SEGMENT
__First$ = 8						; size = 4
__Last$ = 12						; size = 4
__Al$ = 16						; size = 4
___formal$ = 20						; size = 1
??$_Destroy_range@V?$allocator@VioHashString@@@std@@@std@@YAXPAVioHashString@@0AAV?$allocator@VioHashString@@@0@U_Nonscalar_ptr_iterator_tag@0@@Z PROC ; std::_Destroy_range<std::allocator<ioHashString> >, COMDAT

; 95   : 	{	// destroy [_First, _Last), arbitrary type

  00000	55		 push	 ebp
  00001	8b ec		 mov	 ebp, esp
  00003	56		 push	 esi

; 96   : 	for (; _First != _Last; ++_First)

  00004	8b 75 08	 mov	 esi, DWORD PTR __First$[ebp]
  00007	eb 0b		 jmp	 SHORT $LN17@Destroy_ra
$LL3@Destroy_ra:

; 97   : 		_Dest_val(_Al, _First);

  00009	8b ce		 mov	 ecx, esi
  0000b	ff 15 00 00 00
	00		 call	 DWORD PTR __imp_??1ioHashString@@QAE@XZ
  00011	83 c6 10	 add	 esi, 16			; 00000010H
$LN17@Destroy_ra:

; 96   : 	for (; _First != _Last; ++_First)

  00014	3b 75 0c	 cmp	 esi, DWORD PTR __Last$[ebp]
  00017	75 f0		 jne	 SHORT $LL3@Destroy_ra
  00019	5e		 pop	 esi

; 98   : 	}

  0001a	5d		 pop	 ebp
  0001b	c3		 ret	 0
??$_Destroy_range@V?$allocator@VioHashString@@@std@@@std@@YAXPAVioHashString@@0AAV?$allocator@VioHashString@@@0@U_Nonscalar_ptr_iterator_tag@0@@Z ENDP ; std::_Destroy_range<std::allocator<ioHashString> >
_TEXT	ENDS
PUBLIC	?_Destroy@?$vector@UDistInfo@ioOwnerAttach5Dummy@@V?$allocator@UDistInfo@ioOwnerAttach5Dummy@@@std@@@std@@IAEXPAUDistInfo@ioOwnerAttach5Dummy@@0@Z ; std::vector<ioOwnerAttach5Dummy::DistInfo,std::allocator<ioOwnerAttach5Dummy::DistInfo> >::_Destroy
; Function compile flags: /Ogsp
; File c:\program files (x86)\microsoft visual studio 10.0\vc\include\vector
;	COMDAT ?_Destroy@?$vector@UDistInfo@ioOwnerAttach5Dummy@@V?$allocator@UDistInfo@ioOwnerAttach5Dummy@@@std@@@std@@IAEXPAUDistInfo@ioOwnerAttach5Dummy@@0@Z
_TEXT	SEGMENT
__First$ = 8						; size = 4
__Last$ = 12						; size = 4
?_Destroy@?$vector@UDistInfo@ioOwnerAttach5Dummy@@V?$allocator@UDistInfo@ioOwnerAttach5Dummy@@@std@@@std@@IAEXPAUDistInfo@ioOwnerAttach5Dummy@@0@Z PROC ; std::vector<ioOwnerAttach5Dummy::DistInfo,std::allocator<ioOwnerAttach5Dummy::DistInfo> >::_Destroy, COMDAT
; _this$ = ecx

; 1270 : 		_Destroy_range(_First, _Last, this->_Alval);
; 1271 : 		}

  00000	c2 08 00	 ret	 8
?_Destroy@?$vector@UDistInfo@ioOwnerAttach5Dummy@@V?$allocator@UDistInfo@ioOwnerAttach5Dummy@@@std@@@std@@IAEXPAUDistInfo@ioOwnerAttach5Dummy@@0@Z ENDP ; std::vector<ioOwnerAttach5Dummy::DistInfo,std::allocator<ioOwnerAttach5Dummy::DistInfo> >::_Destroy
_TEXT	ENDS
PUBLIC	?_Tidy@?$vector@UDistInfo@ioOwnerAttach5Dummy@@V?$allocator@UDistInfo@ioOwnerAttach5Dummy@@@std@@@std@@IAEXXZ ; std::vector<ioOwnerAttach5Dummy::DistInfo,std::allocator<ioOwnerAttach5Dummy::DistInfo> >::_Tidy
; Function compile flags: /Ogsp
;	COMDAT ?_Tidy@?$vector@UDistInfo@ioOwnerAttach5Dummy@@V?$allocator@UDistInfo@ioOwnerAttach5Dummy@@@std@@@std@@IAEXXZ
_TEXT	SEGMENT
?_Tidy@?$vector@UDistInfo@ioOwnerAttach5Dummy@@V?$allocator@UDistInfo@ioOwnerAttach5Dummy@@@std@@@std@@IAEXXZ PROC ; std::vector<ioOwnerAttach5Dummy::DistInfo,std::allocator<ioOwnerAttach5Dummy::DistInfo> >::_Tidy, COMDAT
; _this$ = ecx

; 1301 : 		{	// free all storage

  00000	56		 push	 esi
  00001	8b f1		 mov	 esi, ecx

; 1302 : 		if (this->_Myfirst != 0)

  00003	83 3e 00	 cmp	 DWORD PTR [esi], 0
  00006	74 0e		 je	 SHORT $LN21@Tidy@2

; 1303 : 			{	// something to free, destroy and deallocate it
; 1304 : 			this->_Orphan_all();

  00008	ff 15 00 00 00
	00		 call	 DWORD PTR __imp_?_Orphan_all@_Container_base0@std@@QAEXXZ

; 1305 : 			_Destroy(this->_Myfirst, this->_Mylast);
; 1306 : 			this->_Alval.deallocate(this->_Myfirst,
; 1307 : 				this->_Myend - this->_Myfirst);

  0000e	ff 36		 push	 DWORD PTR [esi]
  00010	e8 00 00 00 00	 call	 ??3@YAXPAX@Z		; operator delete
  00015	59		 pop	 ecx
$LN21@Tidy@2:

; 1308 : 			}
; 1309 : 		this->_Myfirst = 0;

  00016	83 26 00	 and	 DWORD PTR [esi], 0

; 1310 : 		this->_Mylast = 0;

  00019	83 66 04 00	 and	 DWORD PTR [esi+4], 0

; 1311 : 		this->_Myend = 0;

  0001d	83 66 08 00	 and	 DWORD PTR [esi+8], 0
  00021	5e		 pop	 esi

; 1312 : 		}

  00022	c3		 ret	 0
?_Tidy@?$vector@UDistInfo@ioOwnerAttach5Dummy@@V?$allocator@UDistInfo@ioOwnerAttach5Dummy@@@std@@@std@@IAEXXZ ENDP ; std::vector<ioOwnerAttach5Dummy::DistInfo,std::allocator<ioOwnerAttach5Dummy::DistInfo> >::_Tidy
_TEXT	ENDS
PUBLIC	??$_Umove@PAUDistInfo@ioOwnerAttach5Dummy@@@?$vector@UDistInfo@ioOwnerAttach5Dummy@@V?$allocator@UDistInfo@ioOwnerAttach5Dummy@@@std@@@std@@IAEPAUDistInfo@ioOwnerAttach5Dummy@@PAU23@00@Z ; std::vector<ioOwnerAttach5Dummy::DistInfo,std::allocator<ioOwnerAttach5Dummy::DistInfo> >::_Umove<ioOwnerAttach5Dummy::DistInfo *>
; Function compile flags: /Ogsp
;	COMDAT ??$_Umove@PAUDistInfo@ioOwnerAttach5Dummy@@@?$vector@UDistInfo@ioOwnerAttach5Dummy@@V?$allocator@UDistInfo@ioOwnerAttach5Dummy@@@std@@@std@@IAEPAUDistInfo@ioOwnerAttach5Dummy@@PAU23@00@Z
_TEXT	SEGMENT
__First$ = 8						; size = 4
__Last$ = 12						; size = 4
__Ptr$ = 16						; size = 4
??$_Umove@PAUDistInfo@ioOwnerAttach5Dummy@@@?$vector@UDistInfo@ioOwnerAttach5Dummy@@V?$allocator@UDistInfo@ioOwnerAttach5Dummy@@@std@@@std@@IAEPAUDistInfo@ioOwnerAttach5Dummy@@PAU23@00@Z PROC ; std::vector<ioOwnerAttach5Dummy::DistInfo,std::allocator<ioOwnerAttach5Dummy::DistInfo> >::_Umove<ioOwnerAttach5Dummy::DistInfo *>, COMDAT
; _this$ = ecx

; 1322 : 		pointer _Umove(_Iter _First, _Iter _Last, pointer _Ptr)

  00000	55		 push	 ebp
  00001	8b ec		 mov	 ebp, esp

; 1323 : 		{	// move initializing [_First, _Last), using allocator
; 1324 : 		return (_Uninitialized_move(_First, _Last,
; 1325 : 			_Ptr, this->_Alval));

  00003	83 c1 0c	 add	 ecx, 12			; 0000000cH
  00006	51		 push	 ecx
  00007	ff 75 10	 push	 DWORD PTR __Ptr$[ebp]
  0000a	ff 75 0c	 push	 DWORD PTR __Last$[ebp]
  0000d	ff 75 08	 push	 DWORD PTR __First$[ebp]
  00010	e8 00 00 00 00	 call	 ??$_Uninitialized_move@PAUDistInfo@ioOwnerAttach5Dummy@@PAU12@V?$allocator@UDistInfo@ioOwnerAttach5Dummy@@@std@@@std@@YAPAUDistInfo@ioOwnerAttach5Dummy@@PAU12@00AAV?$allocator@UDistInfo@ioOwnerAttach5Dummy@@@0@@Z ; std::_Uninitialized_move<ioOwnerAttach5Dummy::DistInfo *,ioOwnerAttach5Dummy::DistInfo *,std::allocator<ioOwnerAttach5Dummy::DistInfo> >
  00015	83 c4 10	 add	 esp, 16			; 00000010H

; 1326 : 		}

  00018	5d		 pop	 ebp
  00019	c2 0c 00	 ret	 12			; 0000000cH
??$_Umove@PAUDistInfo@ioOwnerAttach5Dummy@@@?$vector@UDistInfo@ioOwnerAttach5Dummy@@V?$allocator@UDistInfo@ioOwnerAttach5Dummy@@@std@@@std@@IAEPAUDistInfo@ioOwnerAttach5Dummy@@PAU23@00@Z ENDP ; std::vector<ioOwnerAttach5Dummy::DistInfo,std::allocator<ioOwnerAttach5Dummy::DistInfo> >::_Umove<ioOwnerAttach5Dummy::DistInfo *>
_TEXT	ENDS
PUBLIC	??$_Uninitialized_move@PAVioHashString@@PAV1@V?$allocator@VioHashString@@@std@@@std@@YAPAVioHashString@@PAV1@00AAV?$allocator@VioHashString@@@0@@Z ; std::_Uninitialized_move<ioHashString *,ioHashString *,std::allocator<ioHashString> >
; Function compile flags: /Ogsp
; File c:\program files (x86)\microsoft visual studio 10.0\vc\include\memory
;	COMDAT ??$_Uninitialized_move@PAVioHashString@@PAV1@V?$allocator@VioHashString@@@std@@@std@@YAPAVioHashString@@PAV1@00AAV?$allocator@VioHashString@@@0@@Z
_TEXT	SEGMENT
__Cat$576594 = -4					; size = 1
__First$ = 8						; size = 4
__Last$ = 12						; size = 4
__Dest$ = 16						; size = 4
__Al$ = 20						; size = 4
??$_Uninitialized_move@PAVioHashString@@PAV1@V?$allocator@VioHashString@@@std@@@std@@YAPAVioHashString@@PAV1@00AAV?$allocator@VioHashString@@@0@@Z PROC ; std::_Uninitialized_move<ioHashString *,ioHashString *,std::allocator<ioHashString> >, COMDAT

; 469  : 	{	// move [_First, _Last) to raw _Dest, using _Al

  00000	55		 push	 ebp
  00001	8b ec		 mov	 ebp, esp
  00003	51		 push	 ecx

; 470  : 	return (_Uninit_move(_First, _Last, _Dest, _Al,
; 471  : 		_Val_type(_First), _Ptr_cat(_First, _Dest)));

  00004	ff 75 fc	 push	 DWORD PTR __Cat$576594[ebp]
  00007	6a 00		 push	 0
  00009	ff 75 14	 push	 DWORD PTR __Al$[ebp]
  0000c	ff 75 10	 push	 DWORD PTR __Dest$[ebp]
  0000f	ff 75 0c	 push	 DWORD PTR __Last$[ebp]
  00012	ff 75 08	 push	 DWORD PTR __First$[ebp]
  00015	e8 00 00 00 00	 call	 ??$_Uninit_move@PAVioHashString@@PAV1@V?$allocator@VioHashString@@@std@@V1@@std@@YAPAVioHashString@@PAV1@00AAV?$allocator@VioHashString@@@0@0U_Nonscalar_ptr_iterator_tag@0@@Z ; std::_Uninit_move<ioHashString *,ioHashString *,std::allocator<ioHashString>,ioHashString>
  0001a	83 c4 18	 add	 esp, 24			; 00000018H

; 472  : 	}

  0001d	c9		 leave
  0001e	c3		 ret	 0
??$_Uninitialized_move@PAVioHashString@@PAV1@V?$allocator@VioHashString@@@std@@@std@@YAPAVioHashString@@PAV1@00AAV?$allocator@VioHashString@@@0@@Z ENDP ; std::_Uninitialized_move<ioHashString *,ioHashString *,std::allocator<ioHashString> >
_TEXT	ENDS
PUBLIC	??$sort_heap@PAUDistInfo@ioOwnerAttach5Dummy@@@std@@YAXPAUDistInfo@ioOwnerAttach5Dummy@@0@Z ; std::sort_heap<ioOwnerAttach5Dummy::DistInfo *>
; Function compile flags: /Ogsp
; File c:\program files (x86)\microsoft visual studio 10.0\vc\include\algorithm
;	COMDAT ??$sort_heap@PAUDistInfo@ioOwnerAttach5Dummy@@@std@@YAXPAUDistInfo@ioOwnerAttach5Dummy@@0@Z
_TEXT	SEGMENT
__First$ = 8						; size = 4
__Last$ = 12						; size = 4
??$sort_heap@PAUDistInfo@ioOwnerAttach5Dummy@@@std@@YAXPAUDistInfo@ioOwnerAttach5Dummy@@0@Z PROC ; std::sort_heap<ioOwnerAttach5Dummy::DistInfo *>, COMDAT

; 2690 : 	{	// order heap by repeatedly popping, using operator<

  00000	55		 push	 ebp
  00001	8b ec		 mov	 ebp, esp

; 2694 : 	}

  00003	5d		 pop	 ebp

; 2691 : 	_DEBUG_RANGE(_First, _Last);
; 2692 : 	_DEBUG_HEAP(_First, _Last);
; 2693 : 	_Sort_heap(_Unchecked(_First), _Unchecked(_Last));

  00004	e9 00 00 00 00	 jmp	 ??$_Sort_heap@PAUDistInfo@ioOwnerAttach5Dummy@@@std@@YAXPAUDistInfo@ioOwnerAttach5Dummy@@0@Z ; std::_Sort_heap<ioOwnerAttach5Dummy::DistInfo *>
??$sort_heap@PAUDistInfo@ioOwnerAttach5Dummy@@@std@@YAXPAUDistInfo@ioOwnerAttach5Dummy@@0@Z ENDP ; std::sort_heap<ioOwnerAttach5Dummy::DistInfo *>
_TEXT	ENDS
PUBLIC	??$_Destroy_range@V?$allocator@VioHashString@@@std@@@std@@YAXPAVioHashString@@0AAV?$allocator@VioHashString@@@0@@Z ; std::_Destroy_range<std::allocator<ioHashString> >
; Function compile flags: /Ogsp
; File c:\program files (x86)\microsoft visual studio 10.0\vc\include\xmemory
;	COMDAT ??$_Destroy_range@V?$allocator@VioHashString@@@std@@@std@@YAXPAVioHashString@@0AAV?$allocator@VioHashString@@@0@@Z
_TEXT	SEGMENT
__First$ = 8						; size = 4
__Last$ = 12						; size = 4
__Al$ = 16						; size = 4
??$_Destroy_range@V?$allocator@VioHashString@@@std@@@std@@YAXPAVioHashString@@0AAV?$allocator@VioHashString@@@0@@Z PROC ; std::_Destroy_range<std::allocator<ioHashString> >, COMDAT

; 87   : 	{	// destroy [_First, _Last)

  00000	55		 push	 ebp
  00001	8b ec		 mov	 ebp, esp
  00003	56		 push	 esi

; 88   : 	_Destroy_range(_First, _Last, _Al, _Ptr_cat(_First, _Last));

  00004	8b 75 08	 mov	 esi, DWORD PTR __First$[ebp]
  00007	eb 0b		 jmp	 SHORT $LN21@Destroy_ra@2
$LL7@Destroy_ra@2:
  00009	8b ce		 mov	 ecx, esi
  0000b	ff 15 00 00 00
	00		 call	 DWORD PTR __imp_??1ioHashString@@QAE@XZ
  00011	83 c6 10	 add	 esi, 16			; 00000010H
$LN21@Destroy_ra@2:
  00014	3b 75 0c	 cmp	 esi, DWORD PTR __Last$[ebp]
  00017	75 f0		 jne	 SHORT $LL7@Destroy_ra@2
  00019	5e		 pop	 esi

; 89   : 	}

  0001a	5d		 pop	 ebp
  0001b	c3		 ret	 0
??$_Destroy_range@V?$allocator@VioHashString@@@std@@@std@@YAXPAVioHashString@@0AAV?$allocator@VioHashString@@@0@@Z ENDP ; std::_Destroy_range<std::allocator<ioHashString> >
_TEXT	ENDS
PUBLIC	??1?$vector@UDistInfo@ioOwnerAttach5Dummy@@V?$allocator@UDistInfo@ioOwnerAttach5Dummy@@@std@@@std@@QAE@XZ ; std::vector<ioOwnerAttach5Dummy::DistInfo,std::allocator<ioOwnerAttach5Dummy::DistInfo> >::~vector<ioOwnerAttach5Dummy::DistInfo,std::allocator<ioOwnerAttach5Dummy::DistInfo> >
; Function compile flags: /Ogsp
; File c:\program files (x86)\microsoft visual studio 10.0\vc\include\vector
;	COMDAT ??1?$vector@UDistInfo@ioOwnerAttach5Dummy@@V?$allocator@UDistInfo@ioOwnerAttach5Dummy@@@std@@@std@@QAE@XZ
_TEXT	SEGMENT
??1?$vector@UDistInfo@ioOwnerAttach5Dummy@@V?$allocator@UDistInfo@ioOwnerAttach5Dummy@@@std@@@std@@QAE@XZ PROC ; std::vector<ioOwnerAttach5Dummy::DistInfo,std::allocator<ioOwnerAttach5Dummy::DistInfo> >::~vector<ioOwnerAttach5Dummy::DistInfo,std::allocator<ioOwnerAttach5Dummy::DistInfo> >, COMDAT
; _this$ = ecx

; 705  : 		_Tidy();

  00000	e9 00 00 00 00	 jmp	 ?_Tidy@?$vector@UDistInfo@ioOwnerAttach5Dummy@@V?$allocator@UDistInfo@ioOwnerAttach5Dummy@@@std@@@std@@IAEXXZ ; std::vector<ioOwnerAttach5Dummy::DistInfo,std::allocator<ioOwnerAttach5Dummy::DistInfo> >::_Tidy
??1?$vector@UDistInfo@ioOwnerAttach5Dummy@@V?$allocator@UDistInfo@ioOwnerAttach5Dummy@@@std@@@std@@QAE@XZ ENDP ; std::vector<ioOwnerAttach5Dummy::DistInfo,std::allocator<ioOwnerAttach5Dummy::DistInfo> >::~vector<ioOwnerAttach5Dummy::DistInfo,std::allocator<ioOwnerAttach5Dummy::DistInfo> >
_TEXT	ENDS
PUBLIC	?reserve@?$vector@UDistInfo@ioOwnerAttach5Dummy@@V?$allocator@UDistInfo@ioOwnerAttach5Dummy@@@std@@@std@@QAEXI@Z ; std::vector<ioOwnerAttach5Dummy::DistInfo,std::allocator<ioOwnerAttach5Dummy::DistInfo> >::reserve
;	COMDAT xdata$x
; File c:\program files (x86)\microsoft visual studio 10.0\vc\include\xmemory
xdata$x	SEGMENT
__catchsym$?reserve@?$vector@UDistInfo@ioOwnerAttach5Dummy@@V?$allocator@UDistInfo@ioOwnerAttach5Dummy@@@std@@@std@@QAEXI@Z$2 DD 040H
	DD	00H
	DD	00H
	DD	FLAT:__catch$?reserve@?$vector@UDistInfo@ioOwnerAttach5Dummy@@V?$allocator@UDistInfo@ioOwnerAttach5Dummy@@@std@@@std@@QAEXI@Z$0
__unwindtable$?reserve@?$vector@UDistInfo@ioOwnerAttach5Dummy@@V?$allocator@UDistInfo@ioOwnerAttach5Dummy@@@std@@@std@@QAEXI@Z DD 0ffffffffH
	DD	00H
	DD	0ffffffffH
	DD	00H
__tryblocktable$?reserve@?$vector@UDistInfo@ioOwnerAttach5Dummy@@V?$allocator@UDistInfo@ioOwnerAttach5Dummy@@@std@@@std@@QAEXI@Z DD 00H
	DD	00H
	DD	01H
	DD	01H
	DD	FLAT:__catchsym$?reserve@?$vector@UDistInfo@ioOwnerAttach5Dummy@@V?$allocator@UDistInfo@ioOwnerAttach5Dummy@@@std@@@std@@QAEXI@Z$2
__ehfuncinfo$?reserve@?$vector@UDistInfo@ioOwnerAttach5Dummy@@V?$allocator@UDistInfo@ioOwnerAttach5Dummy@@@std@@@std@@QAEXI@Z DD 019930522H
	DD	02H
	DD	FLAT:__unwindtable$?reserve@?$vector@UDistInfo@ioOwnerAttach5Dummy@@V?$allocator@UDistInfo@ioOwnerAttach5Dummy@@@std@@@std@@QAEXI@Z
	DD	01H
	DD	FLAT:__tryblocktable$?reserve@?$vector@UDistInfo@ioOwnerAttach5Dummy@@V?$allocator@UDistInfo@ioOwnerAttach5Dummy@@@std@@@std@@QAEXI@Z
	DD	2 DUP(00H)
	DD	00H
	DD	01H
; Function compile flags: /Ogsp
; File c:\program files (x86)\microsoft visual studio 10.0\vc\include\vector
xdata$x	ENDS
;	COMDAT ?reserve@?$vector@UDistInfo@ioOwnerAttach5Dummy@@V?$allocator@UDistInfo@ioOwnerAttach5Dummy@@@std@@@std@@QAEXI@Z
_TEXT	SEGMENT
__Ptr$569129 = -20					; size = 4
__$EHRec$ = -16						; size = 16
__Count$ = 8						; size = 4
?reserve@?$vector@UDistInfo@ioOwnerAttach5Dummy@@V?$allocator@UDistInfo@ioOwnerAttach5Dummy@@@std@@@std@@QAEXI@Z PROC ; std::vector<ioOwnerAttach5Dummy::DistInfo,std::allocator<ioOwnerAttach5Dummy::DistInfo> >::reserve, COMDAT
; _this$ = ecx

; 746  : 		{	// determine new minimum length of allocated storage

  00000	6a 08		 push	 8
  00002	b8 00 00 00 00	 mov	 eax, __ehhandler$?reserve@?$vector@UDistInfo@ioOwnerAttach5Dummy@@V?$allocator@UDistInfo@ioOwnerAttach5Dummy@@@std@@@std@@QAEXI@Z
  00007	e8 00 00 00 00	 call	 __EH_prolog3_catch
  0000c	8b f1		 mov	 esi, ecx

; 747  : 		if (max_size() < _Count)

  0000e	81 7d 08 ff ff
	ff 1f		 cmp	 DWORD PTR __Count$[ebp], 536870911 ; 1fffffffH
  00015	76 0b		 jbe	 SHORT $LN5@reserve

; 748  : 			_Xlen();	// result too long

  00017	68 00 00 00 00	 push	 OFFSET ??_C@_0BD@OLBABOEK@vector?$DMT?$DO?5too?5long?$AA@
  0001c	ff 15 00 00 00
	00		 call	 DWORD PTR __imp_?_Xlength_error@std@@YAXPBD@Z
$LN56@reserve:
$LN5@reserve:

; 749  : 		else if (capacity() < _Count)

  00022	8b 46 08	 mov	 eax, DWORD PTR [esi+8]
  00025	2b 06		 sub	 eax, DWORD PTR [esi]
  00027	c1 f8 03	 sar	 eax, 3
  0002a	3b 45 08	 cmp	 eax, DWORD PTR __Count$[ebp]
  0002d	73 65		 jae	 SHORT $LN3@reserve

; 750  : 			{	// not enough room, reallocate
; 751  : 			pointer _Ptr = this->_Alval.allocate(_Count);

  0002f	6a 00		 push	 0
  00031	ff 75 08	 push	 DWORD PTR __Count$[ebp]
  00034	e8 00 00 00 00	 call	 ??$_Allocate@UDistInfo@ioOwnerAttach5Dummy@@@std@@YAPAUDistInfo@ioOwnerAttach5Dummy@@IPAU12@@Z ; std::_Allocate<ioOwnerAttach5Dummy::DistInfo>

; 752  : 
; 753  : 			_TRY_BEGIN
; 754  : 			_Umove(this->_Myfirst, this->_Mylast, _Ptr);

  00039	8b 0e		 mov	 ecx, DWORD PTR [esi]
  0003b	83 65 fc 00	 and	 DWORD PTR __$EHRec$[ebp+12], 0
  0003f	8b d8		 mov	 ebx, eax
  00041	8b 46 04	 mov	 eax, DWORD PTR [esi+4]
  00044	8d 56 0c	 lea	 edx, DWORD PTR [esi+12]
  00047	52		 push	 edx
  00048	53		 push	 ebx
  00049	50		 push	 eax
  0004a	51		 push	 ecx
  0004b	89 5d ec	 mov	 DWORD PTR __Ptr$569129[ebp], ebx
  0004e	e8 00 00 00 00	 call	 ??$_Uninitialized_move@PAUDistInfo@ioOwnerAttach5Dummy@@PAU12@V?$allocator@UDistInfo@ioOwnerAttach5Dummy@@@std@@@std@@YAPAUDistInfo@ioOwnerAttach5Dummy@@PAU12@00AAV?$allocator@UDistInfo@ioOwnerAttach5Dummy@@@0@@Z ; std::_Uninitialized_move<ioOwnerAttach5Dummy::DistInfo *,ioOwnerAttach5Dummy::DistInfo *,std::allocator<ioOwnerAttach5Dummy::DistInfo> >

; 758  : 			_CATCH_END
; 759  : 
; 760  : 			size_type _Size = size();

  00053	8b 4e 04	 mov	 ecx, DWORD PTR [esi+4]
  00056	8b 06		 mov	 eax, DWORD PTR [esi]
  00058	83 4d fc ff	 or	 DWORD PTR __$EHRec$[ebp+12], -1
  0005c	8b f9		 mov	 edi, ecx
  0005e	2b f8		 sub	 edi, eax
  00060	83 c4 18	 add	 esp, 24			; 00000018H
  00063	c1 ff 03	 sar	 edi, 3
  00066	85 c0		 test	 eax, eax
  00068	74 11		 je	 SHORT $LN48@reserve

; 761  : 			if (this->_Myfirst != 0)

  0006a	eb 03		 jmp	 SHORT $LN55@reserve

; 762  : 				{	// destroy and deallocate old array
; 763  : 				_Destroy(this->_Myfirst, this->_Mylast);

$LL39@reserve:
  0006c	83 c0 08	 add	 eax, 8
$LN55@reserve:
  0006f	3b c1		 cmp	 eax, ecx
  00071	75 f9		 jne	 SHORT $LL39@reserve

; 764  : 				this->_Alval.deallocate(this->_Myfirst,
; 765  : 					this->_Myend - this->_Myfirst);

  00073	ff 36		 push	 DWORD PTR [esi]
  00075	e8 00 00 00 00	 call	 ??3@YAXPAX@Z		; operator delete
  0007a	59		 pop	 ecx
$LN48@reserve:

; 766  : 				}
; 767  : 
; 768  : 			this->_Orphan_all();

  0007b	8b ce		 mov	 ecx, esi
  0007d	ff 15 00 00 00
	00		 call	 DWORD PTR __imp_?_Orphan_all@_Container_base0@std@@QAEXXZ

; 769  : 			this->_Myend = _Ptr + _Count;

  00083	8b 45 08	 mov	 eax, DWORD PTR __Count$[ebp]
  00086	8d 04 c3	 lea	 eax, DWORD PTR [ebx+eax*8]
  00089	89 46 08	 mov	 DWORD PTR [esi+8], eax

; 770  : 			this->_Mylast = _Ptr + _Size;

  0008c	8d 04 fb	 lea	 eax, DWORD PTR [ebx+edi*8]
  0008f	89 46 04	 mov	 DWORD PTR [esi+4], eax

; 771  : 			this->_Myfirst = _Ptr;

  00092	89 1e		 mov	 DWORD PTR [esi], ebx
$LN3@reserve:

; 772  : 			}
; 773  : 		}

  00094	e8 00 00 00 00	 call	 __EH_epilog3
  00099	c2 04 00	 ret	 4
__catch$?reserve@?$vector@UDistInfo@ioOwnerAttach5Dummy@@V?$allocator@UDistInfo@ioOwnerAttach5Dummy@@@std@@@std@@QAEXI@Z$0:

; 755  : 			_CATCH_ALL
; 756  : 			this->_Alval.deallocate(_Ptr, _Count);

  0009c	ff 75 ec	 push	 DWORD PTR __Ptr$569129[ebp]
  0009f	e8 00 00 00 00	 call	 ??3@YAXPAX@Z		; operator delete
  000a4	59		 pop	 ecx

; 757  : 			_RERAISE;

  000a5	6a 00		 push	 0
  000a7	6a 00		 push	 0
  000a9	e8 00 00 00 00	 call	 __CxxThrowException@8
$LN57@reserve:
$LN54@reserve:
  000ae	cc		 int	 3
_TEXT	ENDS
;	COMDAT text$x
text$x	SEGMENT
__ehhandler$?reserve@?$vector@UDistInfo@ioOwnerAttach5Dummy@@V?$allocator@UDistInfo@ioOwnerAttach5Dummy@@@std@@@std@@QAEXI@Z:
  00000	8b 54 24 08	 mov	 edx, DWORD PTR [esp+8]
  00004	8d 42 0c	 lea	 eax, DWORD PTR [edx+12]
  00007	8b 4a e8	 mov	 ecx, DWORD PTR [edx-24]
  0000a	33 c8		 xor	 ecx, eax
  0000c	e8 00 00 00 00	 call	 @__security_check_cookie@4
  00011	b8 00 00 00 00	 mov	 eax, OFFSET __ehfuncinfo$?reserve@?$vector@UDistInfo@ioOwnerAttach5Dummy@@V?$allocator@UDistInfo@ioOwnerAttach5Dummy@@@std@@@std@@QAEXI@Z
  00016	e9 00 00 00 00	 jmp	 ___CxxFrameHandler3
text$x	ENDS
?reserve@?$vector@UDistInfo@ioOwnerAttach5Dummy@@V?$allocator@UDistInfo@ioOwnerAttach5Dummy@@@std@@@std@@QAEXI@Z ENDP ; std::vector<ioOwnerAttach5Dummy::DistInfo,std::allocator<ioOwnerAttach5Dummy::DistInfo> >::reserve
PUBLIC	?erase@?$vector@UDistInfo@ioOwnerAttach5Dummy@@V?$allocator@UDistInfo@ioOwnerAttach5Dummy@@@std@@@std@@QAE?AV?$_Vector_iterator@V?$_Vector_val@UDistInfo@ioOwnerAttach5Dummy@@V?$allocator@UDistInfo@ioOwnerAttach5Dummy@@@std@@@std@@@2@V?$_Vector_const_iterator@V?$_Vector_val@UDistInfo@ioOwnerAttach5Dummy@@V?$allocator@UDistInfo@ioOwnerAttach5Dummy@@@std@@@std@@@2@0@Z ; std::vector<ioOwnerAttach5Dummy::DistInfo,std::allocator<ioOwnerAttach5Dummy::DistInfo> >::erase
; Function compile flags: /Ogsp
;	COMDAT ?erase@?$vector@UDistInfo@ioOwnerAttach5Dummy@@V?$allocator@UDistInfo@ioOwnerAttach5Dummy@@@std@@@std@@QAE?AV?$_Vector_iterator@V?$_Vector_val@UDistInfo@ioOwnerAttach5Dummy@@V?$allocator@UDistInfo@ioOwnerAttach5Dummy@@@std@@@std@@@2@V?$_Vector_const_iterator@V?$_Vector_val@UDistInfo@ioOwnerAttach5Dummy@@V?$allocator@UDistInfo@ioOwnerAttach5Dummy@@@std@@@std@@@2@0@Z
_TEXT	SEGMENT
___$ReturnUdt$ = 8					; size = 4
__First_arg$ = 12					; size = 4
__Cat$576878 = 16					; size = 1
__Last_arg$ = 16					; size = 4
?erase@?$vector@UDistInfo@ioOwnerAttach5Dummy@@V?$allocator@UDistInfo@ioOwnerAttach5Dummy@@@std@@@std@@QAE?AV?$_Vector_iterator@V?$_Vector_val@UDistInfo@ioOwnerAttach5Dummy@@V?$allocator@UDistInfo@ioOwnerAttach5Dummy@@@std@@@std@@@2@V?$_Vector_const_iterator@V?$_Vector_val@UDistInfo@ioOwnerAttach5Dummy@@V?$allocator@UDistInfo@ioOwnerAttach5Dummy@@@std@@@std@@@2@0@Z PROC ; std::vector<ioOwnerAttach5Dummy::DistInfo,std::allocator<ioOwnerAttach5Dummy::DistInfo> >::erase, COMDAT
; _this$ = ecx

; 1190 : 		{	// erase [_First, _Last)

  00000	55		 push	 ebp
  00001	8b ec		 mov	 ebp, esp

; 1191 : 		iterator _First = _Make_iter(_First_arg);

  00003	8b 45 0c	 mov	 eax, DWORD PTR __First_arg$[ebp]
  00006	56		 push	 esi
  00007	57		 push	 edi
  00008	8b 7d 08	 mov	 edi, DWORD PTR ___$ReturnUdt$[ebp]
  0000b	8b f1		 mov	 esi, ecx
  0000d	89 07		 mov	 DWORD PTR [edi], eax

; 1192 : 		iterator _Last = _Make_iter(_Last_arg);
; 1193 : 
; 1194 : 		if (_First != _Last)

  0000f	3b 45 10	 cmp	 eax, DWORD PTR __Last_arg$[ebp]
  00012	74 16		 je	 SHORT $LN1@erase

; 1195 : 			{	// worth doing, copy down over hole
; 1196 :  #if _ITERATOR_DEBUG_LEVEL == 2
; 1197 : 			if (_Last < _First || _VICONT(_First) != this
; 1198 : 				|| _VIPTR(_First) < this->_Myfirst
; 1199 : 				|| this->_Mylast < _VIPTR(_Last))
; 1200 : 				_DEBUG_ERROR("vector erase iterator outside range");
; 1201 : 			pointer _Ptr = _Move(_VIPTR(_Last), this->_Mylast,
; 1202 : 				_VIPTR(_First));
; 1203 : 			_Orphan_range(_VIPTR(_First), this->_Mylast);
; 1204 : 
; 1205 :  #else /* _ITERATOR_DEBUG_LEVEL == 2 */
; 1206 : 			pointer _Ptr = _Move(_VIPTR(_Last), this->_Mylast,
; 1207 : 				_VIPTR(_First));

  00014	ff 75 10	 push	 DWORD PTR __Cat$576878[ebp]
  00017	8b 4e 04	 mov	 ecx, DWORD PTR [esi+4]
  0001a	50		 push	 eax
  0001b	51		 push	 ecx
  0001c	ff 75 10	 push	 DWORD PTR __Last_arg$[ebp]
  0001f	e8 00 00 00 00	 call	 ??$_Move@PAUDistInfo@ioOwnerAttach5Dummy@@PAU12@@std@@YAPAUDistInfo@ioOwnerAttach5Dummy@@PAU12@00U_Nonscalar_ptr_iterator_tag@0@@Z ; std::_Move<ioOwnerAttach5Dummy::DistInfo *,ioOwnerAttach5Dummy::DistInfo *>
  00024	83 c4 10	 add	 esp, 16			; 00000010H

; 1208 :  #endif /* _ITERATOR_DEBUG_LEVEL == 2 */
; 1209 : 
; 1210 : 			_Destroy(_Ptr, this->_Mylast);
; 1211 : 			this->_Mylast = _Ptr;

  00027	89 46 04	 mov	 DWORD PTR [esi+4], eax
$LN1@erase:

; 1212 : 			}
; 1213 : 		return (_First);

  0002a	8b c7		 mov	 eax, edi
  0002c	5f		 pop	 edi
  0002d	5e		 pop	 esi

; 1214 : 		}

  0002e	5d		 pop	 ebp
  0002f	c2 0c 00	 ret	 12			; 0000000cH
?erase@?$vector@UDistInfo@ioOwnerAttach5Dummy@@V?$allocator@UDistInfo@ioOwnerAttach5Dummy@@@std@@@std@@QAE?AV?$_Vector_iterator@V?$_Vector_val@UDistInfo@ioOwnerAttach5Dummy@@V?$allocator@UDistInfo@ioOwnerAttach5Dummy@@@std@@@std@@@2@V?$_Vector_const_iterator@V?$_Vector_val@UDistInfo@ioOwnerAttach5Dummy@@V?$allocator@UDistInfo@ioOwnerAttach5Dummy@@@std@@@std@@@2@0@Z ENDP ; std::vector<ioOwnerAttach5Dummy::DistInfo,std::allocator<ioOwnerAttach5Dummy::DistInfo> >::erase
_TEXT	ENDS
PUBLIC	?_Reserve@?$vector@UDistInfo@ioOwnerAttach5Dummy@@V?$allocator@UDistInfo@ioOwnerAttach5Dummy@@@std@@@std@@IAEXI@Z ; std::vector<ioOwnerAttach5Dummy::DistInfo,std::allocator<ioOwnerAttach5Dummy::DistInfo> >::_Reserve
; Function compile flags: /Ogsp
;	COMDAT ?_Reserve@?$vector@UDistInfo@ioOwnerAttach5Dummy@@V?$allocator@UDistInfo@ioOwnerAttach5Dummy@@@std@@@std@@IAEXI@Z
_TEXT	SEGMENT
__Count$ = 8						; size = 4
?_Reserve@?$vector@UDistInfo@ioOwnerAttach5Dummy@@V?$allocator@UDistInfo@ioOwnerAttach5Dummy@@@std@@@std@@IAEXI@Z PROC ; std::vector<ioOwnerAttach5Dummy::DistInfo,std::allocator<ioOwnerAttach5Dummy::DistInfo> >::_Reserve, COMDAT
; _this$ = ecx

; 1290 : 		{	// ensure room for _Count new elements, grow exponentially

  00000	55		 push	 ebp
  00001	8b ec		 mov	 ebp, esp
  00003	56		 push	 esi
  00004	8b f1		 mov	 esi, ecx

; 1291 : 		size_type _Size = size();

  00006	8b 0e		 mov	 ecx, DWORD PTR [esi]
  00008	8b 46 04	 mov	 eax, DWORD PTR [esi+4]
  0000b	2b c1		 sub	 eax, ecx

; 1292 : 		if (max_size() - _Count < _Size)

  0000d	ba ff ff ff 1f	 mov	 edx, 536870911		; 1fffffffH
  00012	2b 55 08	 sub	 edx, DWORD PTR __Count$[ebp]
  00015	c1 f8 03	 sar	 eax, 3
  00018	3b d0		 cmp	 edx, eax
  0001a	73 0b		 jae	 SHORT $LN4@Reserve

; 1293 : 			_Xlen();

  0001c	68 00 00 00 00	 push	 OFFSET ??_C@_0BD@OLBABOEK@vector?$DMT?$DO?5too?5long?$AA@
  00021	ff 15 00 00 00
	00		 call	 DWORD PTR __imp_?_Xlength_error@std@@YAXPBD@Z
$LN21@Reserve:
$LN4@Reserve:

; 1294 : 		else if ((_Size += _Count) <= capacity())

  00027	8b 56 08	 mov	 edx, DWORD PTR [esi+8]
  0002a	03 45 08	 add	 eax, DWORD PTR __Count$[ebp]
  0002d	2b d1		 sub	 edx, ecx
  0002f	c1 fa 03	 sar	 edx, 3
  00032	3b c2		 cmp	 eax, edx
  00034	76 10		 jbe	 SHORT $LN1@Reserve

; 1295 : 			;
; 1296 : 		else
; 1297 : 			reserve(_Grow_to(_Size));

  00036	50		 push	 eax
  00037	8b ce		 mov	 ecx, esi
  00039	e8 00 00 00 00	 call	 ?_Grow_to@?$vector@UDistInfo@ioOwnerAttach5Dummy@@V?$allocator@UDistInfo@ioOwnerAttach5Dummy@@@std@@@std@@IBEII@Z ; std::vector<ioOwnerAttach5Dummy::DistInfo,std::allocator<ioOwnerAttach5Dummy::DistInfo> >::_Grow_to
  0003e	50		 push	 eax
  0003f	8b ce		 mov	 ecx, esi
  00041	e8 00 00 00 00	 call	 ?reserve@?$vector@UDistInfo@ioOwnerAttach5Dummy@@V?$allocator@UDistInfo@ioOwnerAttach5Dummy@@@std@@@std@@QAEXI@Z ; std::vector<ioOwnerAttach5Dummy::DistInfo,std::allocator<ioOwnerAttach5Dummy::DistInfo> >::reserve
$LN1@Reserve:
  00046	5e		 pop	 esi

; 1298 : 		}

  00047	5d		 pop	 ebp
  00048	c2 04 00	 ret	 4
$LN20@Reserve:
?_Reserve@?$vector@UDistInfo@ioOwnerAttach5Dummy@@V?$allocator@UDistInfo@ioOwnerAttach5Dummy@@@std@@@std@@IAEXI@Z ENDP ; std::vector<ioOwnerAttach5Dummy::DistInfo,std::allocator<ioOwnerAttach5Dummy::DistInfo> >::_Reserve
_TEXT	ENDS
PUBLIC	??$_Umove@PAVioHashString@@@?$vector@VioHashString@@V?$allocator@VioHashString@@@std@@@std@@IAEPAVioHashString@@PAV2@00@Z ; std::vector<ioHashString,std::allocator<ioHashString> >::_Umove<ioHashString *>
; Function compile flags: /Ogsp
;	COMDAT ??$_Umove@PAVioHashString@@@?$vector@VioHashString@@V?$allocator@VioHashString@@@std@@@std@@IAEPAVioHashString@@PAV2@00@Z
_TEXT	SEGMENT
__First$ = 8						; size = 4
__Last$ = 12						; size = 4
__Ptr$ = 16						; size = 4
??$_Umove@PAVioHashString@@@?$vector@VioHashString@@V?$allocator@VioHashString@@@std@@@std@@IAEPAVioHashString@@PAV2@00@Z PROC ; std::vector<ioHashString,std::allocator<ioHashString> >::_Umove<ioHashString *>, COMDAT
; _this$ = ecx

; 1322 : 		pointer _Umove(_Iter _First, _Iter _Last, pointer _Ptr)

  00000	55		 push	 ebp
  00001	8b ec		 mov	 ebp, esp

; 1323 : 		{	// move initializing [_First, _Last), using allocator
; 1324 : 		return (_Uninitialized_move(_First, _Last,
; 1325 : 			_Ptr, this->_Alval));

  00003	83 c1 0c	 add	 ecx, 12			; 0000000cH
  00006	51		 push	 ecx
  00007	ff 75 10	 push	 DWORD PTR __Ptr$[ebp]
  0000a	ff 75 0c	 push	 DWORD PTR __Last$[ebp]
  0000d	ff 75 08	 push	 DWORD PTR __First$[ebp]
  00010	e8 00 00 00 00	 call	 ??$_Uninitialized_move@PAVioHashString@@PAV1@V?$allocator@VioHashString@@@std@@@std@@YAPAVioHashString@@PAV1@00AAV?$allocator@VioHashString@@@0@@Z ; std::_Uninitialized_move<ioHashString *,ioHashString *,std::allocator<ioHashString> >
  00015	83 c4 10	 add	 esp, 16			; 00000010H

; 1326 : 		}

  00018	5d		 pop	 ebp
  00019	c2 0c 00	 ret	 12			; 0000000cH
??$_Umove@PAVioHashString@@@?$vector@VioHashString@@V?$allocator@VioHashString@@@std@@@std@@IAEPAVioHashString@@PAV2@00@Z ENDP ; std::vector<ioHashString,std::allocator<ioHashString> >::_Umove<ioHashString *>
_TEXT	ENDS
PUBLIC	??$_Sort@PAUDistInfo@ioOwnerAttach5Dummy@@H@std@@YAXPAUDistInfo@ioOwnerAttach5Dummy@@0H@Z ; std::_Sort<ioOwnerAttach5Dummy::DistInfo *,int>
; Function compile flags: /Ogsp
; File c:\program files (x86)\microsoft visual studio 10.0\vc\include\algorithm
;	COMDAT ??$_Sort@PAUDistInfo@ioOwnerAttach5Dummy@@H@std@@YAXPAUDistInfo@ioOwnerAttach5Dummy@@0H@Z
_TEXT	SEGMENT
__Mid$571931 = -8					; size = 8
__First$ = 8						; size = 4
__Last$ = 12						; size = 4
__Ideal$ = 16						; size = 4
??$_Sort@PAUDistInfo@ioOwnerAttach5Dummy@@H@std@@YAXPAUDistInfo@ioOwnerAttach5Dummy@@0H@Z PROC ; std::_Sort<ioOwnerAttach5Dummy::DistInfo *,int>, COMDAT

; 3609 : 	{	// order [_First, _Last), using operator<

  00000	55		 push	 ebp
  00001	8b ec		 mov	 ebp, esp
  00003	51		 push	 ecx
  00004	51		 push	 ecx
  00005	53		 push	 ebx

; 3610 : 	_Diff _Count;
; 3611 : 	for (; _ISORT_MAX < (_Count = _Last - _First) && 0 < _Ideal; )

  00006	8b 5d 08	 mov	 ebx, DWORD PTR __First$[ebp]
  00009	57		 push	 edi
  0000a	8b 7d 0c	 mov	 edi, DWORD PTR __Last$[ebp]
  0000d	8b c7		 mov	 eax, edi
  0000f	2b c3		 sub	 eax, ebx
  00011	c1 f8 03	 sar	 eax, 3
  00014	83 f8 20	 cmp	 eax, 32			; 00000020H
  00017	7e 7d		 jle	 SHORT $LN22@Sort
  00019	56		 push	 esi
  0001a	8b 75 10	 mov	 esi, DWORD PTR __Ideal$[ebp]
$LL7@Sort:
  0001d	85 f6		 test	 esi, esi
  0001f	7e 5c		 jle	 SHORT $LN6@Sort

; 3612 : 		{	// divide and conquer by quicksort
; 3613 : 		_STD pair<_RanIt, _RanIt> _Mid =
; 3614 : 			_Unguarded_partition(_First, _Last);

  00021	57		 push	 edi
  00022	8d 45 f8	 lea	 eax, DWORD PTR __Mid$571931[ebp]
  00025	53		 push	 ebx
  00026	50		 push	 eax
  00027	e8 00 00 00 00	 call	 ??$_Unguarded_partition@PAUDistInfo@ioOwnerAttach5Dummy@@@std@@YA?AU?$pair@PAUDistInfo@ioOwnerAttach5Dummy@@PAU12@@0@PAUDistInfo@ioOwnerAttach5Dummy@@0@Z ; std::_Unguarded_partition<ioOwnerAttach5Dummy::DistInfo *>

; 3615 : 		_Ideal /= 2, _Ideal += _Ideal / 2;	// allow 1.5 log2(N) divisions
; 3616 : 
; 3617 : 		if (_Mid.first - _First < _Last - _Mid.second)

  0002c	8b 4d f8	 mov	 ecx, DWORD PTR __Mid$571931[ebp]
  0002f	8b c6		 mov	 eax, esi
  00031	99		 cdq
  00032	2b c2		 sub	 eax, edx
  00034	d1 f8		 sar	 eax, 1
  00036	8b f0		 mov	 esi, eax
  00038	99		 cdq
  00039	2b c2		 sub	 eax, edx
  0003b	d1 f8		 sar	 eax, 1
  0003d	03 f0		 add	 esi, eax
  0003f	8b c7		 mov	 eax, edi
  00041	2b 45 fc	 sub	 eax, DWORD PTR __Mid$571931[ebp+4]
  00044	2b cb		 sub	 ecx, ebx
  00046	83 c4 0c	 add	 esp, 12			; 0000000cH
  00049	83 e0 f8	 and	 eax, -8			; fffffff8H
  0004c	83 e1 f8	 and	 ecx, -8			; fffffff8H

; 3618 : 			{	// loop on second half
; 3619 : 			_Sort(_First, _Mid.first, _Ideal);

  0004f	56		 push	 esi
  00050	3b c8		 cmp	 ecx, eax
  00052	7d 0e		 jge	 SHORT $LN5@Sort
  00054	ff 75 f8	 push	 DWORD PTR __Mid$571931[ebp]
  00057	53		 push	 ebx
  00058	e8 00 00 00 00	 call	 ??$_Sort@PAUDistInfo@ioOwnerAttach5Dummy@@H@std@@YAXPAUDistInfo@ioOwnerAttach5Dummy@@0H@Z ; std::_Sort<ioOwnerAttach5Dummy::DistInfo *,int>

; 3620 : 			_First = _Mid.second;

  0005d	8b 5d fc	 mov	 ebx, DWORD PTR __Mid$571931[ebp+4]

; 3621 : 			}
; 3622 : 		else

  00060	eb 0c		 jmp	 SHORT $LN23@Sort
$LN5@Sort:

; 3623 : 			{	// loop on first half
; 3624 : 			_Sort(_Mid.second, _Last, _Ideal);

  00062	57		 push	 edi
  00063	ff 75 fc	 push	 DWORD PTR __Mid$571931[ebp+4]
  00066	e8 00 00 00 00	 call	 ??$_Sort@PAUDistInfo@ioOwnerAttach5Dummy@@H@std@@YAXPAUDistInfo@ioOwnerAttach5Dummy@@0H@Z ; std::_Sort<ioOwnerAttach5Dummy::DistInfo *,int>

; 3625 : 			_Last = _Mid.first;

  0006b	8b 7d f8	 mov	 edi, DWORD PTR __Mid$571931[ebp]
$LN23@Sort:

; 3610 : 	_Diff _Count;
; 3611 : 	for (; _ISORT_MAX < (_Count = _Last - _First) && 0 < _Ideal; )

  0006e	8b c7		 mov	 eax, edi
  00070	2b c3		 sub	 eax, ebx
  00072	c1 f8 03	 sar	 eax, 3

; 3623 : 			{	// loop on first half
; 3624 : 			_Sort(_Mid.second, _Last, _Ideal);

  00075	83 c4 0c	 add	 esp, 12			; 0000000cH
  00078	83 f8 20	 cmp	 eax, 32			; 00000020H
  0007b	7f a0		 jg	 SHORT $LL7@Sort
$LN6@Sort:
  0007d	5e		 pop	 esi

; 3626 : 			}
; 3627 : 		}
; 3628 : 
; 3629 : 	if (_ISORT_MAX < _Count)

  0007e	83 f8 20	 cmp	 eax, 32			; 00000020H
  00081	7e 13		 jle	 SHORT $LN22@Sort

; 3630 : 		{	// heap sort if too many divisions
; 3631 : 		_STD make_heap(_First, _Last);

  00083	57		 push	 edi
  00084	53		 push	 ebx
  00085	e8 00 00 00 00	 call	 ??$make_heap@PAUDistInfo@ioOwnerAttach5Dummy@@@std@@YAXPAUDistInfo@ioOwnerAttach5Dummy@@0@Z ; std::make_heap<ioOwnerAttach5Dummy::DistInfo *>

; 3632 : 		_STD sort_heap(_First, _Last);

  0008a	57		 push	 edi
  0008b	53		 push	 ebx
  0008c	e8 00 00 00 00	 call	 ??$_Sort_heap@PAUDistInfo@ioOwnerAttach5Dummy@@@std@@YAXPAUDistInfo@ioOwnerAttach5Dummy@@0@Z ; std::_Sort_heap<ioOwnerAttach5Dummy::DistInfo *>
  00091	83 c4 10	 add	 esp, 16			; 00000010H
  00094	eb 11		 jmp	 SHORT $LN16@Sort
$LN22@Sort:

; 3633 : 		}
; 3634 : 	else if (1 < _Count)

  00096	83 f8 01	 cmp	 eax, 1
  00099	7e 0c		 jle	 SHORT $LN16@Sort

; 3635 : 		_Insertion_sort(_First, _Last);	// small

  0009b	6a 00		 push	 0
  0009d	57		 push	 edi
  0009e	53		 push	 ebx
  0009f	e8 00 00 00 00	 call	 ??$_Insertion_sort1@PAUDistInfo@ioOwnerAttach5Dummy@@U12@@std@@YAXPAUDistInfo@ioOwnerAttach5Dummy@@00@Z ; std::_Insertion_sort1<ioOwnerAttach5Dummy::DistInfo *,ioOwnerAttach5Dummy::DistInfo>
  000a4	83 c4 0c	 add	 esp, 12			; 0000000cH
$LN16@Sort:
  000a7	5f		 pop	 edi
  000a8	5b		 pop	 ebx

; 3636 : 	}

  000a9	c9		 leave
  000aa	c3		 ret	 0
??$_Sort@PAUDistInfo@ioOwnerAttach5Dummy@@H@std@@YAXPAUDistInfo@ioOwnerAttach5Dummy@@0H@Z ENDP ; std::_Sort<ioOwnerAttach5Dummy::DistInfo *,int>
_TEXT	ENDS
PUBLIC	?_Destroy@?$vector@VioHashString@@V?$allocator@VioHashString@@@std@@@std@@IAEXPAVioHashString@@0@Z ; std::vector<ioHashString,std::allocator<ioHashString> >::_Destroy
; Function compile flags: /Ogsp
; File c:\program files (x86)\microsoft visual studio 10.0\vc\include\vector
;	COMDAT ?_Destroy@?$vector@VioHashString@@V?$allocator@VioHashString@@@std@@@std@@IAEXPAVioHashString@@0@Z
_TEXT	SEGMENT
__First$ = 8						; size = 4
__Last$ = 12						; size = 4
?_Destroy@?$vector@VioHashString@@V?$allocator@VioHashString@@@std@@@std@@IAEXPAVioHashString@@0@Z PROC ; std::vector<ioHashString,std::allocator<ioHashString> >::_Destroy, COMDAT
; _this$ = ecx

; 1269 : 		{	// destroy [_First, _Last) using allocator

  00000	55		 push	 ebp
  00001	8b ec		 mov	 ebp, esp
  00003	56		 push	 esi

; 1270 : 		_Destroy_range(_First, _Last, this->_Alval);

  00004	8b 75 08	 mov	 esi, DWORD PTR __First$[ebp]
  00007	eb 0b		 jmp	 SHORT $LN23@Destroy
$LL9@Destroy:
  00009	8b ce		 mov	 ecx, esi
  0000b	ff 15 00 00 00
	00		 call	 DWORD PTR __imp_??1ioHashString@@QAE@XZ
  00011	83 c6 10	 add	 esi, 16			; 00000010H
$LN23@Destroy:
  00014	3b 75 0c	 cmp	 esi, DWORD PTR __Last$[ebp]
  00017	75 f0		 jne	 SHORT $LL9@Destroy
  00019	5e		 pop	 esi

; 1271 : 		}

  0001a	5d		 pop	 ebp
  0001b	c2 08 00	 ret	 8
?_Destroy@?$vector@VioHashString@@V?$allocator@VioHashString@@@std@@@std@@IAEXPAVioHashString@@0@Z ENDP ; std::vector<ioHashString,std::allocator<ioHashString> >::_Destroy
_TEXT	ENDS
PUBLIC	?reserve@?$vector@VioHashString@@V?$allocator@VioHashString@@@std@@@std@@QAEXI@Z ; std::vector<ioHashString,std::allocator<ioHashString> >::reserve
;	COMDAT xdata$x
; File c:\program files (x86)\microsoft visual studio 10.0\vc\include\xmemory
xdata$x	SEGMENT
__catchsym$?reserve@?$vector@VioHashString@@V?$allocator@VioHashString@@@std@@@std@@QAEXI@Z$2 DD 040H
	DD	00H
	DD	00H
	DD	FLAT:__catch$?reserve@?$vector@VioHashString@@V?$allocator@VioHashString@@@std@@@std@@QAEXI@Z$0
__unwindtable$?reserve@?$vector@VioHashString@@V?$allocator@VioHashString@@@std@@@std@@QAEXI@Z DD 0ffffffffH
	DD	00H
	DD	0ffffffffH
	DD	00H
__tryblocktable$?reserve@?$vector@VioHashString@@V?$allocator@VioHashString@@@std@@@std@@QAEXI@Z DD 00H
	DD	00H
	DD	01H
	DD	01H
	DD	FLAT:__catchsym$?reserve@?$vector@VioHashString@@V?$allocator@VioHashString@@@std@@@std@@QAEXI@Z$2
__ehfuncinfo$?reserve@?$vector@VioHashString@@V?$allocator@VioHashString@@@std@@@std@@QAEXI@Z DD 019930522H
	DD	02H
	DD	FLAT:__unwindtable$?reserve@?$vector@VioHashString@@V?$allocator@VioHashString@@@std@@@std@@QAEXI@Z
	DD	01H
	DD	FLAT:__tryblocktable$?reserve@?$vector@VioHashString@@V?$allocator@VioHashString@@@std@@@std@@QAEXI@Z
	DD	2 DUP(00H)
	DD	00H
	DD	01H
; Function compile flags: /Ogsp
; File c:\program files (x86)\microsoft visual studio 10.0\vc\include\vector
xdata$x	ENDS
;	COMDAT ?reserve@?$vector@VioHashString@@V?$allocator@VioHashString@@@std@@@std@@QAEXI@Z
_TEXT	SEGMENT
tv300 = -24						; size = 4
__Ptr$569052 = -20					; size = 4
__$EHRec$ = -16						; size = 16
$T577183 = 8						; size = 4
__Count$ = 8						; size = 4
?reserve@?$vector@VioHashString@@V?$allocator@VioHashString@@@std@@@std@@QAEXI@Z PROC ; std::vector<ioHashString,std::allocator<ioHashString> >::reserve, COMDAT
; _this$ = ecx

; 746  : 		{	// determine new minimum length of allocated storage

  00000	6a 0c		 push	 12			; 0000000cH
  00002	b8 00 00 00 00	 mov	 eax, __ehhandler$?reserve@?$vector@VioHashString@@V?$allocator@VioHashString@@@std@@@std@@QAEXI@Z
  00007	e8 00 00 00 00	 call	 __EH_prolog3_catch
  0000c	8b f1		 mov	 esi, ecx

; 747  : 		if (max_size() < _Count)

  0000e	8b 5d 08	 mov	 ebx, DWORD PTR __Count$[ebp]
  00011	81 fb ff ff ff
	0f		 cmp	 ebx, 268435455		; 0fffffffH
  00017	76 0b		 jbe	 SHORT $LN5@reserve@2

; 748  : 			_Xlen();	// result too long

  00019	68 00 00 00 00	 push	 OFFSET ??_C@_0BD@OLBABOEK@vector?$DMT?$DO?5too?5long?$AA@
  0001e	ff 15 00 00 00
	00		 call	 DWORD PTR __imp_?_Xlength_error@std@@YAXPBD@Z
$LN59@reserve@2:
$LN5@reserve@2:

; 749  : 		else if (capacity() < _Count)

  00024	8b 46 08	 mov	 eax, DWORD PTR [esi+8]
  00027	2b 06		 sub	 eax, DWORD PTR [esi]
  00029	c1 f8 04	 sar	 eax, 4
  0002c	3b c3		 cmp	 eax, ebx
  0002e	73 7a		 jae	 SHORT $LN3@reserve@2

; 750  : 			{	// not enough room, reallocate
; 751  : 			pointer _Ptr = this->_Alval.allocate(_Count);

  00030	6a 00		 push	 0
  00032	53		 push	 ebx
  00033	e8 00 00 00 00	 call	 ??$_Allocate@VioHashString@@@std@@YAPAVioHashString@@IPAV1@@Z ; std::_Allocate<ioHashString>

; 752  : 
; 753  : 			_TRY_BEGIN
; 754  : 			_Umove(this->_Myfirst, this->_Mylast, _Ptr);

  00038	8b 0e		 mov	 ecx, DWORD PTR [esi]
  0003a	83 65 fc 00	 and	 DWORD PTR __$EHRec$[ebp+12], 0
  0003e	8d 56 0c	 lea	 edx, DWORD PTR [esi+12]
  00041	52		 push	 edx
  00042	89 45 ec	 mov	 DWORD PTR __Ptr$569052[ebp], eax
  00045	ff 75 ec	 push	 DWORD PTR __Ptr$569052[ebp]
  00048	8b 46 04	 mov	 eax, DWORD PTR [esi+4]
  0004b	50		 push	 eax
  0004c	51		 push	 ecx
  0004d	e8 00 00 00 00	 call	 ??$_Uninitialized_move@PAVioHashString@@PAV1@V?$allocator@VioHashString@@@std@@@std@@YAPAVioHashString@@PAV1@00AAV?$allocator@VioHashString@@@0@@Z ; std::_Uninitialized_move<ioHashString *,ioHashString *,std::allocator<ioHashString> >

; 758  : 			_CATCH_END
; 759  : 
; 760  : 			size_type _Size = size();

  00052	8b 4e 04	 mov	 ecx, DWORD PTR [esi+4]
  00055	8b 06		 mov	 eax, DWORD PTR [esi]
  00057	83 4d fc ff	 or	 DWORD PTR __$EHRec$[ebp+12], -1
  0005b	8b f9		 mov	 edi, ecx
  0005d	83 c4 18	 add	 esp, 24			; 00000018H
  00060	2b f8		 sub	 edi, eax
  00062	89 4d e8	 mov	 DWORD PTR tv300[ebp], ecx
  00065	85 c0		 test	 eax, eax
  00067	74 24		 je	 SHORT $LN51@reserve@2

; 761  : 			if (this->_Myfirst != 0)
; 762  : 				{	// destroy and deallocate old array
; 763  : 				_Destroy(this->_Myfirst, this->_Mylast);

  00069	89 45 08	 mov	 DWORD PTR $T577183[ebp], eax
  0006c	3b c1		 cmp	 eax, ecx
  0006e	74 15		 je	 SHORT $LN37@reserve@2
$LN39@reserve@2:
  00070	8b 4d 08	 mov	 ecx, DWORD PTR $T577183[ebp]
  00073	ff 15 00 00 00
	00		 call	 DWORD PTR __imp_??1ioHashString@@QAE@XZ
  00079	83 45 08 10	 add	 DWORD PTR $T577183[ebp], 16 ; 00000010H
  0007d	8b 45 08	 mov	 eax, DWORD PTR $T577183[ebp]
  00080	3b 45 e8	 cmp	 eax, DWORD PTR tv300[ebp]
  00083	75 eb		 jne	 SHORT $LN39@reserve@2
$LN37@reserve@2:

; 764  : 				this->_Alval.deallocate(this->_Myfirst,
; 765  : 					this->_Myend - this->_Myfirst);

  00085	ff 36		 push	 DWORD PTR [esi]
  00087	e8 00 00 00 00	 call	 ??3@YAXPAX@Z		; operator delete
  0008c	59		 pop	 ecx
$LN51@reserve@2:

; 766  : 				}
; 767  : 
; 768  : 			this->_Orphan_all();

  0008d	8b ce		 mov	 ecx, esi
  0008f	ff 15 00 00 00
	00		 call	 DWORD PTR __imp_?_Orphan_all@_Container_base0@std@@QAEXXZ

; 769  : 			this->_Myend = _Ptr + _Count;

  00095	8b 45 ec	 mov	 eax, DWORD PTR __Ptr$569052[ebp]
  00098	c1 e3 04	 shl	 ebx, 4
  0009b	03 d8		 add	 ebx, eax

; 770  : 			this->_Mylast = _Ptr + _Size;

  0009d	83 e7 f0	 and	 edi, -16		; fffffff0H
  000a0	03 f8		 add	 edi, eax
  000a2	89 5e 08	 mov	 DWORD PTR [esi+8], ebx
  000a5	89 7e 04	 mov	 DWORD PTR [esi+4], edi

; 771  : 			this->_Myfirst = _Ptr;

  000a8	89 06		 mov	 DWORD PTR [esi], eax
$LN3@reserve@2:

; 772  : 			}
; 773  : 		}

  000aa	e8 00 00 00 00	 call	 __EH_epilog3
  000af	c2 04 00	 ret	 4
__catch$?reserve@?$vector@VioHashString@@V?$allocator@VioHashString@@@std@@@std@@QAEXI@Z$0:

; 755  : 			_CATCH_ALL
; 756  : 			this->_Alval.deallocate(_Ptr, _Count);

  000b2	ff 75 ec	 push	 DWORD PTR __Ptr$569052[ebp]
  000b5	e8 00 00 00 00	 call	 ??3@YAXPAX@Z		; operator delete
  000ba	59		 pop	 ecx

; 757  : 			_RERAISE;

  000bb	6a 00		 push	 0
  000bd	6a 00		 push	 0
  000bf	e8 00 00 00 00	 call	 __CxxThrowException@8
$LN60@reserve@2:
$LN58@reserve@2:
  000c4	cc		 int	 3
_TEXT	ENDS
;	COMDAT text$x
text$x	SEGMENT
__ehhandler$?reserve@?$vector@VioHashString@@V?$allocator@VioHashString@@@std@@@std@@QAEXI@Z:
  00000	8b 54 24 08	 mov	 edx, DWORD PTR [esp+8]
  00004	8d 42 0c	 lea	 eax, DWORD PTR [edx+12]
  00007	8b 4a e4	 mov	 ecx, DWORD PTR [edx-28]
  0000a	33 c8		 xor	 ecx, eax
  0000c	e8 00 00 00 00	 call	 @__security_check_cookie@4
  00011	b8 00 00 00 00	 mov	 eax, OFFSET __ehfuncinfo$?reserve@?$vector@VioHashString@@V?$allocator@VioHashString@@@std@@@std@@QAEXI@Z
  00016	e9 00 00 00 00	 jmp	 ___CxxFrameHandler3
text$x	ENDS
?reserve@?$vector@VioHashString@@V?$allocator@VioHashString@@@std@@@std@@QAEXI@Z ENDP ; std::vector<ioHashString,std::allocator<ioHashString> >::reserve
PUBLIC	?push_back@?$vector@UDistInfo@ioOwnerAttach5Dummy@@V?$allocator@UDistInfo@ioOwnerAttach5Dummy@@@std@@@std@@QAEXABUDistInfo@ioOwnerAttach5Dummy@@@Z ; std::vector<ioOwnerAttach5Dummy::DistInfo,std::allocator<ioOwnerAttach5Dummy::DistInfo> >::push_back
; Function compile flags: /Ogsp
;	COMDAT ?push_back@?$vector@UDistInfo@ioOwnerAttach5Dummy@@V?$allocator@UDistInfo@ioOwnerAttach5Dummy@@@std@@@std@@QAEXABUDistInfo@ioOwnerAttach5Dummy@@@Z
_TEXT	SEGMENT
__Val$ = 8						; size = 4
?push_back@?$vector@UDistInfo@ioOwnerAttach5Dummy@@V?$allocator@UDistInfo@ioOwnerAttach5Dummy@@@std@@@std@@QAEXABUDistInfo@ioOwnerAttach5Dummy@@@Z PROC ; std::vector<ioOwnerAttach5Dummy::DistInfo,std::allocator<ioOwnerAttach5Dummy::DistInfo> >::push_back, COMDAT
; _this$ = ecx

; 976  : 		{	// insert element at end

  00000	55		 push	 ebp
  00001	8b ec		 mov	 ebp, esp
  00003	56		 push	 esi
  00004	8b f1		 mov	 esi, ecx

; 977  : 		if (_Inside(_STD addressof(_Val)))

  00006	8b 46 04	 mov	 eax, DWORD PTR [esi+4]
  00009	57		 push	 edi
  0000a	8b 7d 08	 mov	 edi, DWORD PTR __Val$[ebp]
  0000d	3b f8		 cmp	 edi, eax
  0000f	73 2d		 jae	 SHORT $LN4@push_back
  00011	8b 0e		 mov	 ecx, DWORD PTR [esi]
  00013	3b cf		 cmp	 ecx, edi
  00015	77 27		 ja	 SHORT $LN4@push_back

; 978  : 			{	// push back an element
; 979  : 			size_type _Idx = _STD addressof(_Val) - this->_Myfirst;

  00017	2b f9		 sub	 edi, ecx
  00019	c1 ff 03	 sar	 edi, 3

; 980  : 			if (this->_Mylast == this->_Myend)

  0001c	3b 46 08	 cmp	 eax, DWORD PTR [esi+8]
  0001f	75 09		 jne	 SHORT $LN3@push_back

; 981  : 				_Reserve(1);

  00021	6a 01		 push	 1
  00023	8b ce		 mov	 ecx, esi
  00025	e8 00 00 00 00	 call	 ?_Reserve@?$vector@UDistInfo@ioOwnerAttach5Dummy@@V?$allocator@UDistInfo@ioOwnerAttach5Dummy@@@std@@@std@@IAEXI@Z ; std::vector<ioOwnerAttach5Dummy::DistInfo,std::allocator<ioOwnerAttach5Dummy::DistInfo> >::_Reserve
$LN3@push_back:

; 982  : 			_Orphan_range(this->_Mylast, this->_Mylast);
; 983  : 			_Cons_val(this->_Alval,
; 984  : 				this->_Mylast,
; 985  : 				this->_Myfirst[_Idx]);

  0002a	8b 06		 mov	 eax, DWORD PTR [esi]
  0002c	8d 04 f8	 lea	 eax, DWORD PTR [eax+edi*8]
  0002f	50		 push	 eax
  00030	ff 76 04	 push	 DWORD PTR [esi+4]
  00033	8d 46 0c	 lea	 eax, DWORD PTR [esi+12]
  00036	50		 push	 eax
  00037	e8 00 00 00 00	 call	 ??$_Cons_val@V?$allocator@UDistInfo@ioOwnerAttach5Dummy@@@std@@UDistInfo@ioOwnerAttach5Dummy@@AAU34@@std@@YAXAAV?$allocator@UDistInfo@ioOwnerAttach5Dummy@@@0@PAUDistInfo@ioOwnerAttach5Dummy@@AAU23@@Z ; std::_Cons_val<std::allocator<ioOwnerAttach5Dummy::DistInfo>,ioOwnerAttach5Dummy::DistInfo,ioOwnerAttach5Dummy::DistInfo &>

; 986  : 			++this->_Mylast;
; 987  : 			}
; 988  : 		else

  0003c	eb 1b		 jmp	 SHORT $LN20@push_back
$LN4@push_back:

; 989  : 			{	// push back a non-element
; 990  : 			if (this->_Mylast == this->_Myend)

  0003e	3b 46 08	 cmp	 eax, DWORD PTR [esi+8]
  00041	75 09		 jne	 SHORT $LN1@push_back

; 991  : 				_Reserve(1);

  00043	6a 01		 push	 1
  00045	8b ce		 mov	 ecx, esi
  00047	e8 00 00 00 00	 call	 ?_Reserve@?$vector@UDistInfo@ioOwnerAttach5Dummy@@V?$allocator@UDistInfo@ioOwnerAttach5Dummy@@@std@@@std@@IAEXI@Z ; std::vector<ioOwnerAttach5Dummy::DistInfo,std::allocator<ioOwnerAttach5Dummy::DistInfo> >::_Reserve
$LN1@push_back:

; 992  : 			_Orphan_range(this->_Mylast, this->_Mylast);
; 993  : 			_Cons_val(this->_Alval,
; 994  : 				this->_Mylast,
; 995  : 				_Val);

  0004c	57		 push	 edi
  0004d	ff 76 04	 push	 DWORD PTR [esi+4]
  00050	8d 46 0c	 lea	 eax, DWORD PTR [esi+12]
  00053	50		 push	 eax
  00054	e8 00 00 00 00	 call	 ??$_Cons_val@V?$allocator@UDistInfo@ioOwnerAttach5Dummy@@@std@@UDistInfo@ioOwnerAttach5Dummy@@ABU34@@std@@YAXAAV?$allocator@UDistInfo@ioOwnerAttach5Dummy@@@0@PAUDistInfo@ioOwnerAttach5Dummy@@ABU23@@Z ; std::_Cons_val<std::allocator<ioOwnerAttach5Dummy::DistInfo>,ioOwnerAttach5Dummy::DistInfo,ioOwnerAttach5Dummy::DistInfo const &>
$LN20@push_back:
  00059	83 c4 0c	 add	 esp, 12			; 0000000cH

; 996  : 			++this->_Mylast;

  0005c	83 46 04 08	 add	 DWORD PTR [esi+4], 8
  00060	5f		 pop	 edi
  00061	5e		 pop	 esi

; 997  : 			}
; 998  : 		}

  00062	5d		 pop	 ebp
  00063	c2 04 00	 ret	 4
?push_back@?$vector@UDistInfo@ioOwnerAttach5Dummy@@V?$allocator@UDistInfo@ioOwnerAttach5Dummy@@@std@@@std@@QAEXABUDistInfo@ioOwnerAttach5Dummy@@@Z ENDP ; std::vector<ioOwnerAttach5Dummy::DistInfo,std::allocator<ioOwnerAttach5Dummy::DistInfo> >::push_back
_TEXT	ENDS
PUBLIC	?_Reserve@?$vector@VioHashString@@V?$allocator@VioHashString@@@std@@@std@@IAEXI@Z ; std::vector<ioHashString,std::allocator<ioHashString> >::_Reserve
; Function compile flags: /Ogsp
;	COMDAT ?_Reserve@?$vector@VioHashString@@V?$allocator@VioHashString@@@std@@@std@@IAEXI@Z
_TEXT	SEGMENT
__Count$ = 8						; size = 4
?_Reserve@?$vector@VioHashString@@V?$allocator@VioHashString@@@std@@@std@@IAEXI@Z PROC ; std::vector<ioHashString,std::allocator<ioHashString> >::_Reserve, COMDAT
; _this$ = ecx

; 1290 : 		{	// ensure room for _Count new elements, grow exponentially

  00000	55		 push	 ebp
  00001	8b ec		 mov	 ebp, esp
  00003	56		 push	 esi
  00004	8b f1		 mov	 esi, ecx

; 1291 : 		size_type _Size = size();

  00006	8b 0e		 mov	 ecx, DWORD PTR [esi]
  00008	8b 46 04	 mov	 eax, DWORD PTR [esi+4]
  0000b	2b c1		 sub	 eax, ecx

; 1292 : 		if (max_size() - _Count < _Size)

  0000d	ba ff ff ff 0f	 mov	 edx, 268435455		; 0fffffffH
  00012	2b 55 08	 sub	 edx, DWORD PTR __Count$[ebp]
  00015	c1 f8 04	 sar	 eax, 4
  00018	3b d0		 cmp	 edx, eax
  0001a	73 0b		 jae	 SHORT $LN4@Reserve@2

; 1293 : 			_Xlen();

  0001c	68 00 00 00 00	 push	 OFFSET ??_C@_0BD@OLBABOEK@vector?$DMT?$DO?5too?5long?$AA@
  00021	ff 15 00 00 00
	00		 call	 DWORD PTR __imp_?_Xlength_error@std@@YAXPBD@Z
$LN21@Reserve@2:
$LN4@Reserve@2:

; 1294 : 		else if ((_Size += _Count) <= capacity())

  00027	8b 56 08	 mov	 edx, DWORD PTR [esi+8]
  0002a	03 45 08	 add	 eax, DWORD PTR __Count$[ebp]
  0002d	2b d1		 sub	 edx, ecx
  0002f	c1 fa 04	 sar	 edx, 4
  00032	3b c2		 cmp	 eax, edx
  00034	76 10		 jbe	 SHORT $LN1@Reserve@2

; 1295 : 			;
; 1296 : 		else
; 1297 : 			reserve(_Grow_to(_Size));

  00036	50		 push	 eax
  00037	8b ce		 mov	 ecx, esi
  00039	e8 00 00 00 00	 call	 ?_Grow_to@?$vector@VioHashString@@V?$allocator@VioHashString@@@std@@@std@@IBEII@Z ; std::vector<ioHashString,std::allocator<ioHashString> >::_Grow_to
  0003e	50		 push	 eax
  0003f	8b ce		 mov	 ecx, esi
  00041	e8 00 00 00 00	 call	 ?reserve@?$vector@VioHashString@@V?$allocator@VioHashString@@@std@@@std@@QAEXI@Z ; std::vector<ioHashString,std::allocator<ioHashString> >::reserve
$LN1@Reserve@2:
  00046	5e		 pop	 esi

; 1298 : 		}

  00047	5d		 pop	 ebp
  00048	c2 04 00	 ret	 4
$LN20@Reserve@2:
?_Reserve@?$vector@VioHashString@@V?$allocator@VioHashString@@@std@@@std@@IAEXI@Z ENDP ; std::vector<ioHashString,std::allocator<ioHashString> >::_Reserve
_TEXT	ENDS
PUBLIC	??$sort@V?$_Vector_iterator@V?$_Vector_val@UDistInfo@ioOwnerAttach5Dummy@@V?$allocator@UDistInfo@ioOwnerAttach5Dummy@@@std@@@std@@@std@@@std@@YAXV?$_Vector_iterator@V?$_Vector_val@UDistInfo@ioOwnerAttach5Dummy@@V?$allocator@UDistInfo@ioOwnerAttach5Dummy@@@std@@@std@@@0@0@Z ; std::sort<std::_Vector_iterator<std::_Vector_val<ioOwnerAttach5Dummy::DistInfo,std::allocator<ioOwnerAttach5Dummy::DistInfo> > > >
; Function compile flags: /Ogsp
; File c:\program files (x86)\microsoft visual studio 10.0\vc\include\algorithm
;	COMDAT ??$sort@V?$_Vector_iterator@V?$_Vector_val@UDistInfo@ioOwnerAttach5Dummy@@V?$allocator@UDistInfo@ioOwnerAttach5Dummy@@@std@@@std@@@std@@@std@@YAXV?$_Vector_iterator@V?$_Vector_val@UDistInfo@ioOwnerAttach5Dummy@@V?$allocator@UDistInfo@ioOwnerAttach5Dummy@@@std@@@std@@@0@0@Z
_TEXT	SEGMENT
__First$ = 8						; size = 4
__Last$ = 12						; size = 4
??$sort@V?$_Vector_iterator@V?$_Vector_val@UDistInfo@ioOwnerAttach5Dummy@@V?$allocator@UDistInfo@ioOwnerAttach5Dummy@@@std@@@std@@@std@@@std@@YAXV?$_Vector_iterator@V?$_Vector_val@UDistInfo@ioOwnerAttach5Dummy@@V?$allocator@UDistInfo@ioOwnerAttach5Dummy@@@std@@@std@@@0@0@Z PROC ; std::sort<std::_Vector_iterator<std::_Vector_val<ioOwnerAttach5Dummy::DistInfo,std::allocator<ioOwnerAttach5Dummy::DistInfo> > > >, COMDAT

; 3640 : 	{	// order [_First, _Last), using operator<

  00000	55		 push	 ebp
  00001	8b ec		 mov	 ebp, esp

; 3641 : 	_DEBUG_RANGE(_First, _Last);
; 3642 : 	_Sort(_Unchecked(_First), _Unchecked(_Last), _Last - _First);

  00003	8b 45 0c	 mov	 eax, DWORD PTR __Last$[ebp]
  00006	2b 45 08	 sub	 eax, DWORD PTR __First$[ebp]
  00009	c1 f8 03	 sar	 eax, 3
  0000c	50		 push	 eax
  0000d	ff 75 0c	 push	 DWORD PTR __Last$[ebp]
  00010	ff 75 08	 push	 DWORD PTR __First$[ebp]
  00013	e8 00 00 00 00	 call	 ??$_Sort@PAUDistInfo@ioOwnerAttach5Dummy@@H@std@@YAXPAUDistInfo@ioOwnerAttach5Dummy@@0H@Z ; std::_Sort<ioOwnerAttach5Dummy::DistInfo *,int>
  00018	83 c4 0c	 add	 esp, 12			; 0000000cH

; 3643 : 	}

  0001b	5d		 pop	 ebp
  0001c	c3		 ret	 0
??$sort@V?$_Vector_iterator@V?$_Vector_val@UDistInfo@ioOwnerAttach5Dummy@@V?$allocator@UDistInfo@ioOwnerAttach5Dummy@@@std@@@std@@@std@@@std@@YAXV?$_Vector_iterator@V?$_Vector_val@UDistInfo@ioOwnerAttach5Dummy@@V?$allocator@UDistInfo@ioOwnerAttach5Dummy@@@std@@@std@@@0@0@Z ENDP ; std::sort<std::_Vector_iterator<std::_Vector_val<ioOwnerAttach5Dummy::DistInfo,std::allocator<ioOwnerAttach5Dummy::DistInfo> > > >
_TEXT	ENDS
PUBLIC	?erase@?$vector@VioHashString@@V?$allocator@VioHashString@@@std@@@std@@QAE?AV?$_Vector_iterator@V?$_Vector_val@VioHashString@@V?$allocator@VioHashString@@@std@@@std@@@2@V?$_Vector_const_iterator@V?$_Vector_val@VioHashString@@V?$allocator@VioHashString@@@std@@@std@@@2@0@Z ; std::vector<ioHashString,std::allocator<ioHashString> >::erase
; Function compile flags: /Ogsp
; File c:\program files (x86)\microsoft visual studio 10.0\vc\include\vector
;	COMDAT ?erase@?$vector@VioHashString@@V?$allocator@VioHashString@@@std@@@std@@QAE?AV?$_Vector_iterator@V?$_Vector_val@VioHashString@@V?$allocator@VioHashString@@@std@@@std@@@2@V?$_Vector_const_iterator@V?$_Vector_val@VioHashString@@V?$allocator@VioHashString@@@std@@@std@@@2@0@Z
_TEXT	SEGMENT
$T577466 = -4						; size = 4
___$ReturnUdt$ = 8					; size = 4
__First_arg$ = 12					; size = 4
__Cat$577411 = 16					; size = 1
__Last_arg$ = 16					; size = 4
?erase@?$vector@VioHashString@@V?$allocator@VioHashString@@@std@@@std@@QAE?AV?$_Vector_iterator@V?$_Vector_val@VioHashString@@V?$allocator@VioHashString@@@std@@@std@@@2@V?$_Vector_const_iterator@V?$_Vector_val@VioHashString@@V?$allocator@VioHashString@@@std@@@std@@@2@0@Z PROC ; std::vector<ioHashString,std::allocator<ioHashString> >::erase, COMDAT
; _this$ = ecx

; 1190 : 		{	// erase [_First, _Last)

  00000	55		 push	 ebp
  00001	8b ec		 mov	 ebp, esp
  00003	51		 push	 ecx

; 1191 : 		iterator _First = _Make_iter(_First_arg);

  00004	8b 45 08	 mov	 eax, DWORD PTR ___$ReturnUdt$[ebp]
  00007	56		 push	 esi
  00008	8b f1		 mov	 esi, ecx
  0000a	8b 4d 0c	 mov	 ecx, DWORD PTR __First_arg$[ebp]
  0000d	89 08		 mov	 DWORD PTR [eax], ecx

; 1192 : 		iterator _Last = _Make_iter(_Last_arg);
; 1193 : 
; 1194 : 		if (_First != _Last)

  0000f	3b 4d 10	 cmp	 ecx, DWORD PTR __Last_arg$[ebp]
  00012	74 38		 je	 SHORT $LN1@erase@2

; 1195 : 			{	// worth doing, copy down over hole
; 1196 :  #if _ITERATOR_DEBUG_LEVEL == 2
; 1197 : 			if (_Last < _First || _VICONT(_First) != this
; 1198 : 				|| _VIPTR(_First) < this->_Myfirst
; 1199 : 				|| this->_Mylast < _VIPTR(_Last))
; 1200 : 				_DEBUG_ERROR("vector erase iterator outside range");
; 1201 : 			pointer _Ptr = _Move(_VIPTR(_Last), this->_Mylast,
; 1202 : 				_VIPTR(_First));
; 1203 : 			_Orphan_range(_VIPTR(_First), this->_Mylast);
; 1204 : 
; 1205 :  #else /* _ITERATOR_DEBUG_LEVEL == 2 */
; 1206 : 			pointer _Ptr = _Move(_VIPTR(_Last), this->_Mylast,
; 1207 : 				_VIPTR(_First));

  00014	8b 46 04	 mov	 eax, DWORD PTR [esi+4]
  00017	53		 push	 ebx
  00018	57		 push	 edi
  00019	ff 75 10	 push	 DWORD PTR __Cat$577411[ebp]
  0001c	51		 push	 ecx
  0001d	50		 push	 eax
  0001e	ff 75 10	 push	 DWORD PTR __Last_arg$[ebp]
  00021	e8 00 00 00 00	 call	 ??$_Move@PAVioHashString@@PAV1@@std@@YAPAVioHashString@@PAV1@00U_Nonscalar_ptr_iterator_tag@0@@Z ; std::_Move<ioHashString *,ioHashString *>

; 1208 :  #endif /* _ITERATOR_DEBUG_LEVEL == 2 */
; 1209 : 
; 1210 : 			_Destroy(_Ptr, this->_Mylast);

  00026	8b 7e 04	 mov	 edi, DWORD PTR [esi+4]
  00029	8b d8		 mov	 ebx, eax
  0002b	83 c4 10	 add	 esp, 16			; 00000010H
  0002e	89 5d fc	 mov	 DWORD PTR $T577466[ebp], ebx
  00031	3b df		 cmp	 ebx, edi
  00033	74 12		 je	 SHORT $LN36@erase@2
$LL52@erase@2:
  00035	8b 4d fc	 mov	 ecx, DWORD PTR $T577466[ebp]
  00038	ff 15 00 00 00
	00		 call	 DWORD PTR __imp_??1ioHashString@@QAE@XZ
  0003e	83 45 fc 10	 add	 DWORD PTR $T577466[ebp], 16 ; 00000010H
  00042	39 7d fc	 cmp	 DWORD PTR $T577466[ebp], edi
  00045	75 ee		 jne	 SHORT $LL52@erase@2
$LN36@erase@2:

; 1211 : 			this->_Mylast = _Ptr;

  00047	5f		 pop	 edi
  00048	89 5e 04	 mov	 DWORD PTR [esi+4], ebx
  0004b	5b		 pop	 ebx
$LN1@erase@2:

; 1212 : 			}
; 1213 : 		return (_First);

  0004c	8b 45 08	 mov	 eax, DWORD PTR ___$ReturnUdt$[ebp]
  0004f	5e		 pop	 esi

; 1214 : 		}

  00050	c9		 leave
  00051	c2 0c 00	 ret	 12			; 0000000cH
?erase@?$vector@VioHashString@@V?$allocator@VioHashString@@@std@@@std@@QAE?AV?$_Vector_iterator@V?$_Vector_val@VioHashString@@V?$allocator@VioHashString@@@std@@@std@@@2@V?$_Vector_const_iterator@V?$_Vector_val@VioHashString@@V?$allocator@VioHashString@@@std@@@std@@@2@0@Z ENDP ; std::vector<ioHashString,std::allocator<ioHashString> >::erase
_TEXT	ENDS
PUBLIC	?_Tidy@?$vector@VioHashString@@V?$allocator@VioHashString@@@std@@@std@@IAEXXZ ; std::vector<ioHashString,std::allocator<ioHashString> >::_Tidy
; Function compile flags: /Ogsp
;	COMDAT ?_Tidy@?$vector@VioHashString@@V?$allocator@VioHashString@@@std@@@std@@IAEXXZ
_TEXT	SEGMENT
?_Tidy@?$vector@VioHashString@@V?$allocator@VioHashString@@@std@@@std@@IAEXXZ PROC ; std::vector<ioHashString,std::allocator<ioHashString> >::_Tidy, COMDAT
; _this$ = ecx

; 1301 : 		{	// free all storage

  00000	56		 push	 esi
  00001	8b f1		 mov	 esi, ecx

; 1302 : 		if (this->_Myfirst != 0)

  00003	83 3e 00	 cmp	 DWORD PTR [esi], 0
  00006	74 28		 je	 SHORT $LN24@Tidy@3

; 1303 : 			{	// something to free, destroy and deallocate it
; 1304 : 			this->_Orphan_all();

  00008	53		 push	 ebx
  00009	57		 push	 edi
  0000a	ff 15 00 00 00
	00		 call	 DWORD PTR __imp_?_Orphan_all@_Container_base0@std@@QAEXXZ

; 1305 : 			_Destroy(this->_Myfirst, this->_Mylast);

  00010	8b 5e 04	 mov	 ebx, DWORD PTR [esi+4]
  00013	8b 3e		 mov	 edi, DWORD PTR [esi]
  00015	eb 0b		 jmp	 SHORT $LN28@Tidy@3
$LL12@Tidy@3:
  00017	8b cf		 mov	 ecx, edi
  00019	ff 15 00 00 00
	00		 call	 DWORD PTR __imp_??1ioHashString@@QAE@XZ
  0001f	83 c7 10	 add	 edi, 16			; 00000010H
$LN28@Tidy@3:
  00022	3b fb		 cmp	 edi, ebx
  00024	75 f1		 jne	 SHORT $LL12@Tidy@3

; 1306 : 			this->_Alval.deallocate(this->_Myfirst,
; 1307 : 				this->_Myend - this->_Myfirst);

  00026	ff 36		 push	 DWORD PTR [esi]
  00028	e8 00 00 00 00	 call	 ??3@YAXPAX@Z		; operator delete
  0002d	59		 pop	 ecx
  0002e	5f		 pop	 edi
  0002f	5b		 pop	 ebx
$LN24@Tidy@3:

; 1308 : 			}
; 1309 : 		this->_Myfirst = 0;

  00030	33 c0		 xor	 eax, eax
  00032	89 06		 mov	 DWORD PTR [esi], eax

; 1310 : 		this->_Mylast = 0;

  00034	89 46 04	 mov	 DWORD PTR [esi+4], eax

; 1311 : 		this->_Myend = 0;

  00037	89 46 08	 mov	 DWORD PTR [esi+8], eax
  0003a	5e		 pop	 esi

; 1312 : 		}

  0003b	c3		 ret	 0
?_Tidy@?$vector@VioHashString@@V?$allocator@VioHashString@@@std@@@std@@IAEXXZ ENDP ; std::vector<ioHashString,std::allocator<ioHashString> >::_Tidy
_TEXT	ENDS
PUBLIC	?SortTargetList@ioOwnerAttach5Dummy@@IAEXPAVioBaseChar@@ABV?$vector@PAVioBaseChar@@V?$allocator@PAVioBaseChar@@@std@@@std@@@Z ; ioOwnerAttach5Dummy::SortTargetList
; Function compile flags: /Ogsp
; File d:\lost saga for developer\youtube\tutorial\source\src\lsclient\ioownerattach5dummy.cpp
;	COMDAT ?SortTargetList@ioOwnerAttach5Dummy@@IAEXPAVioBaseChar@@ABV?$vector@PAVioBaseChar@@V?$allocator@PAVioBaseChar@@@std@@@std@@@Z
_TEXT	SEGMENT
_vOwnerPos$ = -32					; size = 12
_sDist$568854 = -20					; size = 8
_value$577765 = -12					; size = 4
$T577626 = -12						; size = 4
tv484 = -8						; size = 4
_this$ = -4						; size = 4
_pOwner$ = 8						; size = 4
_value$577752 = 12					; size = 4
_TargetList$ = 12					; size = 4
?SortTargetList@ioOwnerAttach5Dummy@@IAEXPAVioBaseChar@@ABV?$vector@PAVioBaseChar@@V?$allocator@PAVioBaseChar@@@std@@@std@@@Z PROC ; ioOwnerAttach5Dummy::SortTargetList, COMDAT
; _this$ = ecx

; 482  : {

  00000	55		 push	 ebp
  00001	8b ec		 mov	 ebp, esp
  00003	83 ec 20	 sub	 esp, 32			; 00000020H
  00006	57		 push	 edi

; 483  : 	if( !pOwner )	

  00007	8b 7d 08	 mov	 edi, DWORD PTR _pOwner$[ebp]
  0000a	89 4d fc	 mov	 DWORD PTR _this$[ebp], ecx
  0000d	85 ff		 test	 edi, edi
  0000f	0f 84 41 01 00
	00		 je	 $LN8@SortTarget

; 484  : 		return;
; 485  : 
; 486  : 	m_SortList.erase( m_SortList.begin(), m_SortList.end() );

  00015	8b 81 14 15 00
	00		 mov	 eax, DWORD PTR [ecx+5396]
  0001b	53		 push	 ebx
  0001c	56		 push	 esi
  0001d	8d b1 10 15 00
	00		 lea	 esi, DWORD PTR [ecx+5392]
  00023	8b 0e		 mov	 ecx, DWORD PTR [esi]
  00025	50		 push	 eax
  00026	51		 push	 ecx
  00027	8d 45 f4	 lea	 eax, DWORD PTR $T577626[ebp]
  0002a	50		 push	 eax
  0002b	8b ce		 mov	 ecx, esi
  0002d	89 75 f8	 mov	 DWORD PTR tv484[ebp], esi
  00030	e8 00 00 00 00	 call	 ?erase@?$vector@UDistInfo@ioOwnerAttach5Dummy@@V?$allocator@UDistInfo@ioOwnerAttach5Dummy@@@std@@@std@@QAE?AV?$_Vector_iterator@V?$_Vector_val@UDistInfo@ioOwnerAttach5Dummy@@V?$allocator@UDistInfo@ioOwnerAttach5Dummy@@@std@@@std@@@2@V?$_Vector_const_iterator@V?$_Vector_val@UDistInfo@ioOwnerAttach5Dummy@@V?$allocator@UDistInfo@ioOwnerAttach5Dummy@@@std@@@std@@@2@0@Z ; std::vector<ioOwnerAttach5Dummy::DistInfo,std::allocator<ioOwnerAttach5Dummy::DistInfo> >::erase

; 487  : 	m_SortList.reserve( TargetList.size() );

  00035	8b 5d 0c	 mov	 ebx, DWORD PTR _TargetList$[ebp]
  00038	8b 43 04	 mov	 eax, DWORD PTR [ebx+4]
  0003b	2b 03		 sub	 eax, DWORD PTR [ebx]
  0003d	8b ce		 mov	 ecx, esi
  0003f	c1 f8 02	 sar	 eax, 2
  00042	50		 push	 eax
  00043	e8 00 00 00 00	 call	 ?reserve@?$vector@UDistInfo@ioOwnerAttach5Dummy@@V?$allocator@UDistInfo@ioOwnerAttach5Dummy@@@std@@@std@@QAEXI@Z ; std::vector<ioOwnerAttach5Dummy::DistInfo,std::allocator<ioOwnerAttach5Dummy::DistInfo> >::reserve

; 488  : 
; 489  : 	D3DXVECTOR3 vDiff;
; 490  : 	D3DXVECTOR3 vOwnerPos = pOwner->GetWorldPosition();

  00048	8b 07		 mov	 eax, DWORD PTR [edi]
  0004a	8b cf		 mov	 ecx, edi
  0004c	ff 50 70	 call	 DWORD PTR [eax+112]
  0004f	8b f0		 mov	 esi, eax
  00051	8d 7d e0	 lea	 edi, DWORD PTR _vOwnerPos$[ebp]
  00054	a5		 movsd
  00055	a5		 movsd
  00056	a5		 movsd

; 491  : 
; 492  : 	BaseCharList::const_iterator iter;
; 493  : 	for( iter=TargetList.begin(); iter!=TargetList.end(); ++iter )

  00057	8b 33		 mov	 esi, DWORD PTR [ebx]
  00059	e9 d6 00 00 00	 jmp	 $LN86@SortTarget
$LL38@SortTarget:

; 494  : 	{
; 495  : 		ioBaseChar *pCurChar = *iter;

  0005e	8b 3e		 mov	 edi, DWORD PTR [esi]

; 496  : 		if( pCurChar != pOwner )

  00060	8b 45 08	 mov	 eax, DWORD PTR _pOwner$[ebp]
  00063	3b f8		 cmp	 edi, eax
  00065	0f 84 c6 00 00
	00		 je	 $LN5@SortTarget

; 497  : 		{
; 498  : 			//       
; 499  : 			if ( pOwner->GetTeam() == pCurChar->GetTeam() )

  0006b	8d 4d 0c	 lea	 ecx, DWORD PTR _value$577752[ebp]
  0006e	51		 push	 ecx
  0006f	8d 88 90 00 00
	00		 lea	 ecx, DWORD PTR [eax+144]
  00075	e8 00 00 00 00	 call	 ?DecryptValueToPool@?$CEncrypt@W4TeamType@@@@QAEXPAW4TeamType@@@Z ; CEncrypt<enum TeamType>::DecryptValueToPool
  0007a	8d 45 f4	 lea	 eax, DWORD PTR _value$577765[ebp]
  0007d	50		 push	 eax
  0007e	8d 8f 90 00 00
	00		 lea	 ecx, DWORD PTR [edi+144]
  00084	e8 00 00 00 00	 call	 ?DecryptValueToPool@?$CEncrypt@W4TeamType@@@@QAEXPAW4TeamType@@@Z ; CEncrypt<enum TeamType>::DecryptValueToPool
  00089	8b 45 0c	 mov	 eax, DWORD PTR _value$577752[ebp]
  0008c	3b 45 f4	 cmp	 eax, DWORD PTR _value$577765[ebp]
  0008f	0f 84 9c 00 00
	00		 je	 $LN5@SortTarget

; 500  : 				continue;
; 501  : 
; 502  : 			if ( !IsEnableTarget( pCurChar ) )

  00095	8b 4d fc	 mov	 ecx, DWORD PTR _this$[ebp]
  00098	57		 push	 edi
  00099	e8 00 00 00 00	 call	 ?IsEnableTarget@ioOwnerAttach5Dummy@@IAE_NPAVioBaseChar@@@Z ; ioOwnerAttach5Dummy::IsEnableTarget
  0009e	84 c0		 test	 al, al
  000a0	0f 84 8b 00 00
	00		 je	 $LN5@SortTarget

; 503  : 				continue;
; 504  : 
; 505  : 			vDiff = pCurChar->GetWorldPosition() - vOwnerPos;

  000a6	8b 07		 mov	 eax, DWORD PTR [edi]
  000a8	8b cf		 mov	 ecx, edi
  000aa	ff 50 70	 call	 DWORD PTR [eax+112]
  000ad	f3 0f 10 00	 movss	 xmm0, DWORD PTR [eax]
  000b1	f3 0f 10 4d e0	 movss	 xmm1, DWORD PTR _vOwnerPos$[ebp]
  000b6	f3 0f 10 55 e4	 movss	 xmm2, DWORD PTR _vOwnerPos$[ebp+4]
  000bb	f3 0f 10 5d e8	 movss	 xmm3, DWORD PTR _vOwnerPos$[ebp+8]

; 506  : 			float fCurDistSq = D3DXVec3LengthSq( &vDiff );
; 507  : 
; 508  : 			DistInfo sDist;
; 509  : 			sDist.pChar = pCurChar;
; 510  : 			sDist.fDistSq = fCurDistSq;
; 511  : 			m_SortList.push_back( sDist );

  000c0	8b 4d f8	 mov	 ecx, DWORD PTR tv484[ebp]
  000c3	0f 5a c0	 cvtps2pd xmm0, xmm0
  000c6	0f 5a c9	 cvtps2pd xmm1, xmm1
  000c9	f2 0f 5c c1	 subsd	 xmm0, xmm1
  000cd	0f 57 c9	 xorps	 xmm1, xmm1
  000d0	66 0f 5a c8	 cvtpd2ps xmm1, xmm0
  000d4	f3 0f 10 40 04	 movss	 xmm0, DWORD PTR [eax+4]
  000d9	0f 5a d2	 cvtps2pd xmm2, xmm2
  000dc	0f 5a c0	 cvtps2pd xmm0, xmm0
  000df	f2 0f 5c c2	 subsd	 xmm0, xmm2
  000e3	f3 0f 10 50 08	 movss	 xmm2, DWORD PTR [eax+8]
  000e8	0f 5a d2	 cvtps2pd xmm2, xmm2
  000eb	66 0f 5a c0	 cvtpd2ps xmm0, xmm0
  000ef	0f 5a db	 cvtps2pd xmm3, xmm3
  000f2	f2 0f 5c d3	 subsd	 xmm2, xmm3
  000f6	f3 0f 5a c0	 cvtss2sd xmm0, xmm0
  000fa	0f 5a c9	 cvtps2pd xmm1, xmm1
  000fd	66 0f 5a d2	 cvtpd2ps xmm2, xmm2
  00101	f2 0f 59 c0	 mulsd	 xmm0, xmm0
  00105	f2 0f 59 c9	 mulsd	 xmm1, xmm1
  00109	f2 0f 58 c8	 addsd	 xmm1, xmm0
  0010d	f3 0f 5a d2	 cvtss2sd xmm2, xmm2
  00111	f2 0f 59 d2	 mulsd	 xmm2, xmm2
  00115	8d 45 ec	 lea	 eax, DWORD PTR _sDist$568854[ebp]
  00118	f2 0f 58 ca	 addsd	 xmm1, xmm2
  0011c	0f 57 c0	 xorps	 xmm0, xmm0
  0011f	66 0f 5a c1	 cvtpd2ps xmm0, xmm1
  00123	50		 push	 eax
  00124	89 7d ec	 mov	 DWORD PTR _sDist$568854[ebp], edi
  00127	f3 0f 11 45 f0	 movss	 DWORD PTR _sDist$568854[ebp+4], xmm0
  0012c	e8 00 00 00 00	 call	 ?push_back@?$vector@UDistInfo@ioOwnerAttach5Dummy@@V?$allocator@UDistInfo@ioOwnerAttach5Dummy@@@std@@@std@@QAEXABUDistInfo@ioOwnerAttach5Dummy@@@Z ; std::vector<ioOwnerAttach5Dummy::DistInfo,std::allocator<ioOwnerAttach5Dummy::DistInfo> >::push_back
$LN5@SortTarget:

; 491  : 
; 492  : 	BaseCharList::const_iterator iter;
; 493  : 	for( iter=TargetList.begin(); iter!=TargetList.end(); ++iter )

  00131	83 c6 04	 add	 esi, 4
$LN86@SortTarget:
  00134	3b 73 04	 cmp	 esi, DWORD PTR [ebx+4]
  00137	0f 85 21 ff ff
	ff		 jne	 $LL38@SortTarget

; 512  : 		}
; 513  : 	}
; 514  : 
; 515  : 	std::sort( m_SortList.begin(), m_SortList.end() );

  0013d	8b 45 fc	 mov	 eax, DWORD PTR _this$[ebp]
  00140	8b 80 14 15 00
	00		 mov	 eax, DWORD PTR [eax+5396]
  00146	8b 4d f8	 mov	 ecx, DWORD PTR tv484[ebp]
  00149	8b 09		 mov	 ecx, DWORD PTR [ecx]
  0014b	50		 push	 eax
  0014c	51		 push	 ecx
  0014d	e8 00 00 00 00	 call	 ??$sort@V?$_Vector_iterator@V?$_Vector_val@UDistInfo@ioOwnerAttach5Dummy@@V?$allocator@UDistInfo@ioOwnerAttach5Dummy@@@std@@@std@@@std@@@std@@YAXV?$_Vector_iterator@V?$_Vector_val@UDistInfo@ioOwnerAttach5Dummy@@V?$allocator@UDistInfo@ioOwnerAttach5Dummy@@@std@@@std@@@0@0@Z ; std::sort<std::_Vector_iterator<std::_Vector_val<ioOwnerAttach5Dummy::DistInfo,std::allocator<ioOwnerAttach5Dummy::DistInfo> > > >
  00152	59		 pop	 ecx
  00153	59		 pop	 ecx
  00154	5e		 pop	 esi
  00155	5b		 pop	 ebx
$LN8@SortTarget:
  00156	5f		 pop	 edi

; 516  : }

  00157	c9		 leave
  00158	c2 08 00	 ret	 8
?SortTargetList@ioOwnerAttach5Dummy@@IAEXPAVioBaseChar@@ABV?$vector@PAVioBaseChar@@V?$allocator@PAVioBaseChar@@@std@@@std@@@Z ENDP ; ioOwnerAttach5Dummy::SortTargetList
_TEXT	ENDS
PUBLIC	?push_back@?$vector@VioHashString@@V?$allocator@VioHashString@@@std@@@std@@QAEXABVioHashString@@@Z ; std::vector<ioHashString,std::allocator<ioHashString> >::push_back
; Function compile flags: /Ogsp
; File c:\program files (x86)\microsoft visual studio 10.0\vc\include\vector
;	COMDAT ?push_back@?$vector@VioHashString@@V?$allocator@VioHashString@@@std@@@std@@QAEXABVioHashString@@@Z
_TEXT	SEGMENT
__Val$ = 8						; size = 4
?push_back@?$vector@VioHashString@@V?$allocator@VioHashString@@@std@@@std@@QAEXABVioHashString@@@Z PROC ; std::vector<ioHashString,std::allocator<ioHashString> >::push_back, COMDAT
; _this$ = ecx

; 976  : 		{	// insert element at end

  00000	55		 push	 ebp
  00001	8b ec		 mov	 ebp, esp
  00003	56		 push	 esi
  00004	8b f1		 mov	 esi, ecx

; 977  : 		if (_Inside(_STD addressof(_Val)))

  00006	8b 46 04	 mov	 eax, DWORD PTR [esi+4]
  00009	57		 push	 edi
  0000a	8b 7d 08	 mov	 edi, DWORD PTR __Val$[ebp]
  0000d	3b f8		 cmp	 edi, eax
  0000f	73 29		 jae	 SHORT $LN4@push_back@2
  00011	8b 0e		 mov	 ecx, DWORD PTR [esi]
  00013	3b cf		 cmp	 ecx, edi
  00015	77 23		 ja	 SHORT $LN4@push_back@2

; 978  : 			{	// push back an element
; 979  : 			size_type _Idx = _STD addressof(_Val) - this->_Myfirst;

  00017	2b f9		 sub	 edi, ecx

; 980  : 			if (this->_Mylast == this->_Myend)

  00019	3b 46 08	 cmp	 eax, DWORD PTR [esi+8]
  0001c	75 09		 jne	 SHORT $LN3@push_back@2

; 981  : 				_Reserve(1);

  0001e	6a 01		 push	 1
  00020	8b ce		 mov	 ecx, esi
  00022	e8 00 00 00 00	 call	 ?_Reserve@?$vector@VioHashString@@V?$allocator@VioHashString@@@std@@@std@@IAEXI@Z ; std::vector<ioHashString,std::allocator<ioHashString> >::_Reserve
$LN3@push_back@2:

; 982  : 			_Orphan_range(this->_Mylast, this->_Mylast);
; 983  : 			_Cons_val(this->_Alval,
; 984  : 				this->_Mylast,
; 985  : 				this->_Myfirst[_Idx]);

  00027	83 e7 f0	 and	 edi, -16		; fffffff0H
  0002a	03 3e		 add	 edi, DWORD PTR [esi]
  0002c	8d 4e 0c	 lea	 ecx, DWORD PTR [esi+12]
  0002f	57		 push	 edi
  00030	ff 76 04	 push	 DWORD PTR [esi+4]
  00033	e8 00 00 00 00	 call	 ??$construct@AAVioHashString@@@?$allocator@VioHashString@@@std@@QAEXPAVioHashString@@AAV2@@Z ; std::allocator<ioHashString>::construct<ioHashString &>

; 986  : 			++this->_Mylast;
; 987  : 			}
; 988  : 		else

  00038	eb 19		 jmp	 SHORT $LN30@push_back@2
$LN4@push_back@2:

; 989  : 			{	// push back a non-element
; 990  : 			if (this->_Mylast == this->_Myend)

  0003a	3b 46 08	 cmp	 eax, DWORD PTR [esi+8]
  0003d	75 09		 jne	 SHORT $LN1@push_back@2

; 991  : 				_Reserve(1);

  0003f	6a 01		 push	 1
  00041	8b ce		 mov	 ecx, esi
  00043	e8 00 00 00 00	 call	 ?_Reserve@?$vector@VioHashString@@V?$allocator@VioHashString@@@std@@@std@@IAEXI@Z ; std::vector<ioHashString,std::allocator<ioHashString> >::_Reserve
$LN1@push_back@2:

; 992  : 			_Orphan_range(this->_Mylast, this->_Mylast);
; 993  : 			_Cons_val(this->_Alval,
; 994  : 				this->_Mylast,
; 995  : 				_Val);

  00048	57		 push	 edi
  00049	ff 76 04	 push	 DWORD PTR [esi+4]
  0004c	e8 00 00 00 00	 call	 ??$_Construct@VioHashString@@ABV1@@std@@YAXPAVioHashString@@ABV1@@Z ; std::_Construct<ioHashString,ioHashString const &>
  00051	59		 pop	 ecx
  00052	59		 pop	 ecx
$LN30@push_back@2:

; 996  : 			++this->_Mylast;

  00053	83 46 04 10	 add	 DWORD PTR [esi+4], 16	; 00000010H
  00057	5f		 pop	 edi
  00058	5e		 pop	 esi

; 997  : 			}
; 998  : 		}

  00059	5d		 pop	 ebp
  0005a	c2 04 00	 ret	 4
?push_back@?$vector@VioHashString@@V?$allocator@VioHashString@@@std@@@std@@QAEXABVioHashString@@@Z ENDP ; std::vector<ioHashString,std::allocator<ioHashString> >::push_back
_TEXT	ENDS
PUBLIC	??1?$vector@VioHashString@@V?$allocator@VioHashString@@@std@@@std@@QAE@XZ ; std::vector<ioHashString,std::allocator<ioHashString> >::~vector<ioHashString,std::allocator<ioHashString> >
; Function compile flags: /Ogsp
;	COMDAT ??1?$vector@VioHashString@@V?$allocator@VioHashString@@@std@@@std@@QAE@XZ
_TEXT	SEGMENT
??1?$vector@VioHashString@@V?$allocator@VioHashString@@@std@@@std@@QAE@XZ PROC ; std::vector<ioHashString,std::allocator<ioHashString> >::~vector<ioHashString,std::allocator<ioHashString> >, COMDAT
; _this$ = ecx

; 705  : 		_Tidy();

  00000	e9 00 00 00 00	 jmp	 ?_Tidy@?$vector@VioHashString@@V?$allocator@VioHashString@@@std@@@std@@IAEXXZ ; std::vector<ioHashString,std::allocator<ioHashString> >::_Tidy
??1?$vector@VioHashString@@V?$allocator@VioHashString@@@std@@@std@@QAE@XZ ENDP ; std::vector<ioHashString,std::allocator<ioHashString> >::~vector<ioHashString,std::allocator<ioHashString> >
_TEXT	ENDS
PUBLIC	?clear@?$vector@VioHashString@@V?$allocator@VioHashString@@@std@@@std@@QAEXXZ ; std::vector<ioHashString,std::allocator<ioHashString> >::clear
; Function compile flags: /Ogsp
;	COMDAT ?clear@?$vector@VioHashString@@V?$allocator@VioHashString@@@std@@@std@@QAEXXZ
_TEXT	SEGMENT
$T577896 = -4						; size = 4
?clear@?$vector@VioHashString@@V?$allocator@VioHashString@@@std@@@std@@QAEXXZ PROC ; std::vector<ioHashString,std::allocator<ioHashString> >::clear, COMDAT
; _this$ = ecx

; 1217 : 		{	// erase all

  00000	55		 push	 ebp
  00001	8b ec		 mov	 ebp, esp
  00003	51		 push	 ecx

; 1218 : 		erase(begin(), end());

  00004	8b 41 04	 mov	 eax, DWORD PTR [ecx+4]
  00007	8b 11		 mov	 edx, DWORD PTR [ecx]
  00009	50		 push	 eax
  0000a	52		 push	 edx
  0000b	8d 45 fc	 lea	 eax, DWORD PTR $T577896[ebp]
  0000e	50		 push	 eax
  0000f	e8 00 00 00 00	 call	 ?erase@?$vector@VioHashString@@V?$allocator@VioHashString@@@std@@@std@@QAE?AV?$_Vector_iterator@V?$_Vector_val@VioHashString@@V?$allocator@VioHashString@@@std@@@std@@@2@V?$_Vector_const_iterator@V?$_Vector_val@VioHashString@@V?$allocator@VioHashString@@@std@@@std@@@2@0@Z ; std::vector<ioHashString,std::allocator<ioHashString> >::erase

; 1219 : 		}

  00014	c9		 leave
  00015	c3		 ret	 0
?clear@?$vector@VioHashString@@V?$allocator@VioHashString@@@std@@@std@@QAEXXZ ENDP ; std::vector<ioHashString,std::allocator<ioHashString> >::clear
_TEXT	ENDS
PUBLIC	??_7ioOwnerAttach5Dummy@@6BioWorldEventReceiver@@@ ; ioOwnerAttach5Dummy::`vftable'
PUBLIC	??_7ioOwnerAttach5Dummy@@6BioPlayEntity@@@	; ioOwnerAttach5Dummy::`vftable'
PUBLIC	??0ioOwnerAttach5Dummy@@QAE@PAVioEntityGroup@@PAVioPlayMode@@@Z ; ioOwnerAttach5Dummy::ioOwnerAttach5Dummy
PUBLIC	??_R4ioOwnerAttach5Dummy@@6BioPlayEntity@@@	; ioOwnerAttach5Dummy::`RTTI Complete Object Locator'
PUBLIC	??_R0?AVioOwnerAttach5Dummy@@@8			; ioOwnerAttach5Dummy `RTTI Type Descriptor'
PUBLIC	??_R3ioOwnerAttach5Dummy@@8			; ioOwnerAttach5Dummy::`RTTI Class Hierarchy Descriptor'
PUBLIC	??_R2ioOwnerAttach5Dummy@@8			; ioOwnerAttach5Dummy::`RTTI Base Class Array'
PUBLIC	??_R1A@?0A@EA@ioOwnerAttach5Dummy@@8		; ioOwnerAttach5Dummy::`RTTI Base Class Descriptor at (0,-1,0,64)'
PUBLIC	??_R1A@?0A@EA@ioDummyChar@@8			; ioDummyChar::`RTTI Base Class Descriptor at (0,-1,0,64)'
PUBLIC	??_R0?AVioDummyChar@@@8				; ioDummyChar `RTTI Type Descriptor'
PUBLIC	??_R3ioDummyChar@@8				; ioDummyChar::`RTTI Class Hierarchy Descriptor'
PUBLIC	??_R2ioDummyChar@@8				; ioDummyChar::`RTTI Base Class Array'
PUBLIC	??_R1A@?0A@EA@ioPlayEntity@@8			; ioPlayEntity::`RTTI Base Class Descriptor at (0,-1,0,64)'
PUBLIC	??_R0?AVioPlayEntity@@@8			; ioPlayEntity `RTTI Type Descriptor'
PUBLIC	??_R3ioPlayEntity@@8				; ioPlayEntity::`RTTI Class Hierarchy Descriptor'
PUBLIC	??_R2ioPlayEntity@@8				; ioPlayEntity::`RTTI Base Class Array'
PUBLIC	??_R1A@?0A@EA@ioGameEntity@@8			; ioGameEntity::`RTTI Base Class Descriptor at (0,-1,0,64)'
PUBLIC	??_R0?AVioGameEntity@@@8			; ioGameEntity `RTTI Type Descriptor'
PUBLIC	??_R3ioGameEntity@@8				; ioGameEntity::`RTTI Class Hierarchy Descriptor'
PUBLIC	??_R2ioGameEntity@@8				; ioGameEntity::`RTTI Base Class Array'
PUBLIC	??_R1A@?0A@EA@ioEntityEvent@@8			; ioEntityEvent::`RTTI Base Class Descriptor at (0,-1,0,64)'
PUBLIC	??_R0?AVioEntityEvent@@@8			; ioEntityEvent `RTTI Type Descriptor'
PUBLIC	??_R3ioEntityEvent@@8				; ioEntityEvent::`RTTI Class Hierarchy Descriptor'
PUBLIC	??_R2ioEntityEvent@@8				; ioEntityEvent::`RTTI Base Class Array'
PUBLIC	??_R1BMI@?0A@EA@ioWorldEventReceiver@@8		; ioWorldEventReceiver::`RTTI Base Class Descriptor at (456,-1,0,64)'
PUBLIC	??_R0?AVioWorldEventReceiver@@@8		; ioWorldEventReceiver `RTTI Type Descriptor'
PUBLIC	??_R3ioWorldEventReceiver@@8			; ioWorldEventReceiver::`RTTI Class Hierarchy Descriptor'
PUBLIC	??_R2ioWorldEventReceiver@@8			; ioWorldEventReceiver::`RTTI Base Class Array'
PUBLIC	??_R1A@?0A@EA@ioWorldEventReceiver@@8		; ioWorldEventReceiver::`RTTI Base Class Descriptor at (0,-1,0,64)'
PUBLIC	?LoadProperty@ioOwnerAttach5Dummy@@UAEXAAVioINILoader@@@Z ; ioOwnerAttach5Dummy::LoadProperty
PUBLIC	?SetTeam@ioPlayEntity@@UAEXW4TeamType@@@Z	; ioPlayEntity::SetTeam
PUBLIC	?ProcessState@ioOwnerAttach5Dummy@@MAEXMK@Z	; ioOwnerAttach5Dummy::ProcessState
PUBLIC	?IsDummyCharMidSync@ioDummyChar@@UAE_NXZ	; ioDummyChar::IsDummyCharMidSync
PUBLIC	??_R4ioOwnerAttach5Dummy@@6BioWorldEventReceiver@@@ ; ioOwnerAttach5Dummy::`RTTI Complete Object Locator'
PUBLIC	??_EioOwnerAttach5Dummy@@WBMI@AEPAXI@Z		; [thunk]:ioOwnerAttach5Dummy::`vector deleting destructor'
EXTRN	??1ioDummyChar@@UAE@XZ:PROC			; ioDummyChar::~ioDummyChar
EXTRN	??0ioDummyChar@@QAE@PAVioEntityGroup@@PAVioPlayMode@@@Z:PROC ; ioDummyChar::ioDummyChar
EXTRN	?AddEntityEvent@ioDummyChar@@UAEXPAVioEntity@@@Z:PROC ; ioDummyChar::AddEntityEvent
EXTRN	??_EioOwnerAttach5Dummy@@UAEPAXI@Z:PROC		; ioOwnerAttach5Dummy::`vector deleting destructor'
EXTRN	?Update@ioDummyChar@@UAEXMKK@Z:PROC		; ioDummyChar::Update
EXTRN	?UpdateAfter@ioDummyChar@@UAEXM@Z:PROC		; ioDummyChar::UpdateAfter
EXTRN	?GetTypeID@ioPlayEntity@@UBEHXZ:PROC		; ioPlayEntity::GetTypeID
EXTRN	?IsNeedCheckMapCollision@ioDummyChar@@UBE_NXZ:PROC ; ioDummyChar::IsNeedCheckMapCollision
EXTRN	?IsMountAvailable@ioDummyChar@@UBE_NXZ:PROC	; ioDummyChar::IsMountAvailable
EXTRN	?IsMountingAvailable@ioDummyChar@@UBE_NXZ:PROC	; ioDummyChar::IsMountingAvailable
EXTRN	?IsNowMountEnable@ioDummyChar@@UBE_NXZ:PROC	; ioDummyChar::IsNowMountEnable
EXTRN	?IsAllWeaponDefence@ioGameEntity@@UBE_NXZ:PROC	; ioGameEntity::IsAllWeaponDefence
EXTRN	?HasEntity@ioGameEntity@@UAE_NABVioHashString@@@Z:PROC ; ioGameEntity::HasEntity
EXTRN	?AddEntity@ioGameEntity@@UAEPAVioEntity@@ABVioHashString@@@Z:PROC ; ioGameEntity::AddEntity
EXTRN	?DestroyEntity@ioGameEntity@@UAE_NABVioHashString@@@Z:PROC ; ioGameEntity::DestroyEntity
EXTRN	?GetEntity@ioGameEntity@@UAEPAVioEntity@@ABVioHashString@@@Z:PROC ; ioGameEntity::GetEntity
EXTRN	?UpdateBound@ioGameEntity@@MBEXXZ:PROC		; ioGameEntity::UpdateBound
EXTRN	?UpdateBottomHeight@ioDummyChar@@MBEXXZ:PROC	; ioDummyChar::UpdateBottomHeight
EXTRN	?NeedUpdateBottomHeight@ioDummyChar@@UAEXXZ:PROC ; ioDummyChar::NeedUpdateBottomHeight
EXTRN	?SetWorldPosition@ioGameEntity@@UAEXABUD3DXVECTOR3@@@Z:PROC ; ioGameEntity::SetWorldPosition
EXTRN	?SetWorldOrientation@ioGameEntity@@UAEXABUD3DXQUATERNION@@@Z:PROC ; ioGameEntity::SetWorldOrientation
EXTRN	?SetWorldScale@ioGameEntity@@UAEXABUD3DXVECTOR3@@@Z:PROC ; ioGameEntity::SetWorldScale
EXTRN	?Translate@ioDummyChar@@UAEXABUD3DXVECTOR3@@@Z:PROC ; ioDummyChar::Translate
EXTRN	?TranslateByConveyer@ioDummyChar@@UAEXABUD3DXVECTOR3@@@Z:PROC ; ioDummyChar::TranslateByConveyer
EXTRN	?TranslateByWorldEntity@ioDummyChar@@UAEXABUD3DXVECTOR3@@@Z:PROC ; ioDummyChar::TranslateByWorldEntity
EXTRN	?MapCollisionPushingTranslate@ioDummyChar@@UAEXABUD3DXVECTOR3@@@Z:PROC ; ioDummyChar::MapCollisionPushingTranslate
EXTRN	?DontMoveCollisionPushingTranslate@ioGameEntity@@UAEXPAV1@ABUD3DXVECTOR3@@@Z:PROC ; ioGameEntity::DontMoveCollisionPushingTranslate
EXTRN	?Rotate@ioGameEntity@@UAEXABUD3DXVECTOR3@@MW4TransformSpace@ioNode@@@Z:PROC ; ioGameEntity::Rotate
EXTRN	?Scale@ioGameEntity@@UAEXMMM@Z:PROC		; ioGameEntity::Scale
EXTRN	?Scale@ioGameEntity@@UAEXABUD3DXVECTOR3@@@Z:PROC ; ioGameEntity::Scale
EXTRN	?GetWorldPosition@ioGameEntity@@UBEABUD3DXVECTOR3@@XZ:PROC ; ioGameEntity::GetWorldPosition
EXTRN	?GetWorldOrientation@ioGameEntity@@UBEABUD3DXQUATERNION@@XZ:PROC ; ioGameEntity::GetWorldOrientation
EXTRN	?GetWorldScale@ioGameEntity@@UBEABUD3DXVECTOR3@@XZ:PROC ; ioGameEntity::GetWorldScale
EXTRN	?IsCollisionAvailableWeapon@ioDummyChar@@UAE_NPAVioWeapon@@@Z:PROC ; ioDummyChar::IsCollisionAvailableWeapon
EXTRN	?IsCollisionAvailableRange@ioPlayEntity@@UAE_NPAVioWeapon@@@Z:PROC ; ioPlayEntity::IsCollisionAvailableRange
EXTRN	?IsEntityCollisionSkipState@ioDummyChar@@UBE_NPAVioGameEntity@@@Z:PROC ; ioDummyChar::IsEntityCollisionSkipState
EXTRN	?IsCharCollisionSkipState@ioDummyChar@@UBE_NW4TeamType@@H@Z:PROC ; ioDummyChar::IsCharCollisionSkipState
EXTRN	?IsWoundedCollision@ioPlayEntity@@UBE_NABVioOrientBox@@PAUD3DXVECTOR3@@@Z:PROC ; ioPlayEntity::IsWoundedCollision
EXTRN	?GetAttackCollisionBox@ioDummyChar@@UAE?AVioOrientBox@@W4AniCollisionType@@_N@Z:PROC ; ioDummyChar::GetAttackCollisionBox
EXTRN	?CheckSphereDistance@ioPlayEntity@@UBE_NABUD3DXVECTOR3@@MAAM@Z:PROC ; ioPlayEntity::CheckSphereDistance
EXTRN	?CheckSpherePoint@ioPlayEntity@@UBE_NABUD3DXVECTOR3@@MAAU2@@Z:PROC ; ioPlayEntity::CheckSpherePoint
EXTRN	?CheckCylinderPoint@ioPlayEntity@@UBE_NABVioCylinder@@ABUD3DXVECTOR3@@AAU3@@Z:PROC ; ioPlayEntity::CheckCylinderPoint
EXTRN	?GetSubType@ioDummyChar@@UBE?AW4PlaySubType@ioPlayEntity@@XZ:PROC ; ioDummyChar::GetSubType
EXTRN	?GetArmorType@ioDummyChar@@UBE?AW4ArmorType@@XZ:PROC ; ioDummyChar::GetArmorType
EXTRN	?DontMoveEntityLevel@ioDummyChar@@UBEHXZ:PROC	; ioDummyChar::DontMoveEntityLevel
EXTRN	?NotifyDontMoveCollisionPushingSkip@ioPlayEntity@@UAEXPAVioGameEntity@@@Z:PROC ; ioPlayEntity::NotifyDontMoveCollisionPushingSkip
EXTRN	?GetWorldEventReceiver@ioDummyChar@@UAEPAVioWorldEventReceiver@@XZ:PROC ; ioDummyChar::GetWorldEventReceiver
EXTRN	?Revival@ioPlayEntity@@UAEXXZ:PROC		; ioPlayEntity::Revival
EXTRN	?UpdateGauge@ioDummyChar@@UAEXXZ:PROC		; ioDummyChar::UpdateGauge
EXTRN	?RenderGauge@ioDummyChar@@UAEXXZ:PROC		; ioDummyChar::RenderGauge
EXTRN	?FillMaxHP@ioPlayEntity@@UAEXXZ:PROC		; ioPlayEntity::FillMaxHP
EXTRN	?ProcessRecovery@ioPlayEntity@@MAEXXZ:PROC	; ioPlayEntity::ProcessRecovery
EXTRN	?AddHeadDamageInfo@ioPlayEntity@@UAEXH_N@Z:PROC	; ioPlayEntity::AddHeadDamageInfo
EXTRN	?RenderHeadInfoList@ioPlayEntity@@UAEXHH@Z:PROC	; ioPlayEntity::RenderHeadInfoList
EXTRN	?UpdateHeadInfoList@ioPlayEntity@@MAEXK@Z:PROC	; ioPlayEntity::UpdateHeadInfoList
EXTRN	?InitDummyCharInfo@ioDummyChar@@UAEXHKABUD3DXVECTOR3@@0M_N@Z:PROC ; ioDummyChar::InitDummyCharInfo
EXTRN	?TestMapCollision@ioDummyChar@@UAE_NPAVioOpcodeShape@@PAVioPlayStage@@PBUD3DXMATRIX@@@Z:PROC ; ioDummyChar::TestMapCollision
EXTRN	?CheckEntityCollision@ioDummyChar@@UAEXPAVioPlayEntity@@@Z:PROC ; ioDummyChar::CheckEntityCollision
EXTRN	?GetDummyGrassType@ioDummyChar@@UAEHXZ:PROC	; ioDummyChar::GetDummyGrassType
EXTRN	?IsDummyVsDummyCollisionSkipState@ioDummyChar@@UAE_NPBV1@@Z:PROC ; ioDummyChar::IsDummyVsDummyCollisionSkipState
EXTRN	?ProcessPos@ioDummyChar@@MAEXM@Z:PROC		; ioDummyChar::ProcessPos
EXTRN	?ProcessDelayState@ioDummyChar@@MAEXM@Z:PROC	; ioDummyChar::ProcessDelayState
EXTRN	?ProcessMoveState@ioDummyChar@@MAEXM@Z:PROC	; ioDummyChar::ProcessMoveState
EXTRN	?ProcessDashState@ioDummyChar@@MAEXM@Z:PROC	; ioDummyChar::ProcessDashState
EXTRN	?ProcessAttackState@ioDummyChar@@MAEXMK@Z:PROC	; ioDummyChar::ProcessAttackState
EXTRN	?SetDelayState@ioDummyChar@@UAEX_N@Z:PROC	; ioDummyChar::SetDelayState
EXTRN	?SetMoveState@ioDummyChar@@UAEXXZ:PROC		; ioDummyChar::SetMoveState
EXTRN	?SetDashState@ioDummyChar@@UAEXXZ:PROC		; ioDummyChar::SetDashState
EXTRN	?SetAttackState@ioDummyChar@@UAEXXZ:PROC	; ioDummyChar::SetAttackState
EXTRN	?DropZoneCheck@ioDummyChar@@MAEXXZ:PROC		; ioDummyChar::DropZoneCheck
EXTRN	?SendAttackInfoToSkill@ioDummyChar@@MAEXXZ:PROC	; ioDummyChar::SendAttackInfoToSkill
EXTRN	?CheckCollisionWeapon@ioDummyChar@@UAEXPAVioBaseChar@@@Z:PROC ; ioDummyChar::CheckCollisionWeapon
EXTRN	?TranslateMountEntity@ioDummyChar@@MAEXABUD3DXVECTOR3@@@Z:PROC ; ioDummyChar::TranslateMountEntity
EXTRN	?ClearMountEntity@ioDummyChar@@MAEXXZ:PROC	; ioDummyChar::ClearMountEntity
EXTRN	?UpdateMountedEntityList@ioDummyChar@@MAEXXZ:PROC ; ioDummyChar::UpdateMountedEntityList
EXTRN	?UpdateMountedWeaponList@ioDummyChar@@MAEXXZ:PROC ; ioDummyChar::UpdateMountedWeaponList
EXTRN	?SetWorldPositionMountEntity@ioDummyChar@@MAEXM@Z:PROC ; ioDummyChar::SetWorldPositionMountEntity
EXTRN	?DummyDieClearMountEntity@ioDummyChar@@MAEXXZ:PROC ; ioDummyChar::DummyDieClearMountEntity
EXTRN	?FillDummyCharMidSync@ioDummyChar@@UAEXPAVioBaseChar@@AAVSP2Packet@@@Z:PROC ; ioDummyChar::FillDummyCharMidSync
EXTRN	?ApplyDummyCharMidSync@ioDummyChar@@UAEXPAVioBaseChar@@AAVSP2Packet@@@Z:PROC ; ioDummyChar::ApplyDummyCharMidSync
EXTRN	?GetSkillMaxActiveCnt@ioDummyChar@@UAEHXZ:PROC	; ioDummyChar::GetSkillMaxActiveCnt
EXTRN	?GetSkillCurActiveCnt@ioDummyChar@@UAEHXZ:PROC	; ioDummyChar::GetSkillCurActiveCnt
EXTRN	?OnTelepotation@ioDummyChar@@UAEXABUD3DXVECTOR3@@@Z:PROC ; ioDummyChar::OnTelepotation
EXTRN	?OnFireZoneDamage@ioDummyChar@@UAEXMABVioHashString@@@Z:PROC ; ioDummyChar::OnFireZoneDamage
EXTRN	?OnPoisonZoneDamage@ioDummyChar@@UAEXXZ:PROC	; ioDummyChar::OnPoisonZoneDamage
;	COMDAT ??_R4ioOwnerAttach5Dummy@@6BioWorldEventReceiver@@@
; File c:\program files (x86)\microsoft visual studio 10.0\vc\include\xmemory
rdata$r	SEGMENT
??_R4ioOwnerAttach5Dummy@@6BioWorldEventReceiver@@@ DD 00H ; ioOwnerAttach5Dummy::`RTTI Complete Object Locator'
	DD	01c8H
	DD	00H
	DD	FLAT:??_R0?AVioOwnerAttach5Dummy@@@8
	DD	FLAT:??_R3ioOwnerAttach5Dummy@@8
rdata$r	ENDS
;	COMDAT ??_R1A@?0A@EA@ioWorldEventReceiver@@8
rdata$r	SEGMENT
??_R1A@?0A@EA@ioWorldEventReceiver@@8 DD FLAT:??_R0?AVioWorldEventReceiver@@@8 ; ioWorldEventReceiver::`RTTI Base Class Descriptor at (0,-1,0,64)'
	DD	00H
	DD	00H
	DD	0ffffffffH
	DD	00H
	DD	040H
	DD	FLAT:??_R3ioWorldEventReceiver@@8
rdata$r	ENDS
;	COMDAT ??_R2ioWorldEventReceiver@@8
rdata$r	SEGMENT
??_R2ioWorldEventReceiver@@8 DD FLAT:??_R1A@?0A@EA@ioWorldEventReceiver@@8 ; ioWorldEventReceiver::`RTTI Base Class Array'
rdata$r	ENDS
;	COMDAT ??_R3ioWorldEventReceiver@@8
rdata$r	SEGMENT
??_R3ioWorldEventReceiver@@8 DD 00H			; ioWorldEventReceiver::`RTTI Class Hierarchy Descriptor'
	DD	00H
	DD	01H
	DD	FLAT:??_R2ioWorldEventReceiver@@8
rdata$r	ENDS
;	COMDAT ??_R0?AVioWorldEventReceiver@@@8
_DATA	SEGMENT
??_R0?AVioWorldEventReceiver@@@8 DD FLAT:??_7type_info@@6B@ ; ioWorldEventReceiver `RTTI Type Descriptor'
	DD	00H
	DB	'.?AVioWorldEventReceiver@@', 00H
_DATA	ENDS
;	COMDAT ??_R1BMI@?0A@EA@ioWorldEventReceiver@@8
rdata$r	SEGMENT
??_R1BMI@?0A@EA@ioWorldEventReceiver@@8 DD FLAT:??_R0?AVioWorldEventReceiver@@@8 ; ioWorldEventReceiver::`RTTI Base Class Descriptor at (456,-1,0,64)'
	DD	00H
	DD	01c8H
	DD	0ffffffffH
	DD	00H
	DD	040H
	DD	FLAT:??_R3ioWorldEventReceiver@@8
rdata$r	ENDS
;	COMDAT ??_R2ioEntityEvent@@8
rdata$r	SEGMENT
??_R2ioEntityEvent@@8 DD FLAT:??_R1A@?0A@EA@ioEntityEvent@@8 ; ioEntityEvent::`RTTI Base Class Array'
rdata$r	ENDS
;	COMDAT ??_R3ioEntityEvent@@8
rdata$r	SEGMENT
??_R3ioEntityEvent@@8 DD 00H				; ioEntityEvent::`RTTI Class Hierarchy Descriptor'
	DD	00H
	DD	01H
	DD	FLAT:??_R2ioEntityEvent@@8
rdata$r	ENDS
;	COMDAT ??_R0?AVioEntityEvent@@@8
_DATA	SEGMENT
??_R0?AVioEntityEvent@@@8 DD FLAT:??_7type_info@@6B@	; ioEntityEvent `RTTI Type Descriptor'
	DD	00H
	DB	'.?AVioEntityEvent@@', 00H
_DATA	ENDS
;	COMDAT ??_R1A@?0A@EA@ioEntityEvent@@8
rdata$r	SEGMENT
??_R1A@?0A@EA@ioEntityEvent@@8 DD FLAT:??_R0?AVioEntityEvent@@@8 ; ioEntityEvent::`RTTI Base Class Descriptor at (0,-1,0,64)'
	DD	00H
	DD	00H
	DD	0ffffffffH
	DD	00H
	DD	040H
	DD	FLAT:??_R3ioEntityEvent@@8
rdata$r	ENDS
;	COMDAT ??_R2ioGameEntity@@8
rdata$r	SEGMENT
??_R2ioGameEntity@@8 DD FLAT:??_R1A@?0A@EA@ioGameEntity@@8 ; ioGameEntity::`RTTI Base Class Array'
	DD	FLAT:??_R1A@?0A@EA@ioEntityEvent@@8
rdata$r	ENDS
;	COMDAT ??_R3ioGameEntity@@8
rdata$r	SEGMENT
??_R3ioGameEntity@@8 DD 00H				; ioGameEntity::`RTTI Class Hierarchy Descriptor'
	DD	00H
	DD	02H
	DD	FLAT:??_R2ioGameEntity@@8
rdata$r	ENDS
;	COMDAT ??_R0?AVioGameEntity@@@8
_DATA	SEGMENT
??_R0?AVioGameEntity@@@8 DD FLAT:??_7type_info@@6B@	; ioGameEntity `RTTI Type Descriptor'
	DD	00H
	DB	'.?AVioGameEntity@@', 00H
_DATA	ENDS
;	COMDAT ??_R1A@?0A@EA@ioGameEntity@@8
rdata$r	SEGMENT
??_R1A@?0A@EA@ioGameEntity@@8 DD FLAT:??_R0?AVioGameEntity@@@8 ; ioGameEntity::`RTTI Base Class Descriptor at (0,-1,0,64)'
	DD	01H
	DD	00H
	DD	0ffffffffH
	DD	00H
	DD	040H
	DD	FLAT:??_R3ioGameEntity@@8
rdata$r	ENDS
;	COMDAT ??_R2ioPlayEntity@@8
rdata$r	SEGMENT
??_R2ioPlayEntity@@8 DD FLAT:??_R1A@?0A@EA@ioPlayEntity@@8 ; ioPlayEntity::`RTTI Base Class Array'
	DD	FLAT:??_R1A@?0A@EA@ioGameEntity@@8
	DD	FLAT:??_R1A@?0A@EA@ioEntityEvent@@8
rdata$r	ENDS
;	COMDAT ??_R3ioPlayEntity@@8
rdata$r	SEGMENT
??_R3ioPlayEntity@@8 DD 00H				; ioPlayEntity::`RTTI Class Hierarchy Descriptor'
	DD	00H
	DD	03H
	DD	FLAT:??_R2ioPlayEntity@@8
rdata$r	ENDS
;	COMDAT ??_R0?AVioPlayEntity@@@8
_DATA	SEGMENT
??_R0?AVioPlayEntity@@@8 DD FLAT:??_7type_info@@6B@	; ioPlayEntity `RTTI Type Descriptor'
	DD	00H
	DB	'.?AVioPlayEntity@@', 00H
_DATA	ENDS
;	COMDAT ??_R1A@?0A@EA@ioPlayEntity@@8
rdata$r	SEGMENT
??_R1A@?0A@EA@ioPlayEntity@@8 DD FLAT:??_R0?AVioPlayEntity@@@8 ; ioPlayEntity::`RTTI Base Class Descriptor at (0,-1,0,64)'
	DD	02H
	DD	00H
	DD	0ffffffffH
	DD	00H
	DD	040H
	DD	FLAT:??_R3ioPlayEntity@@8
rdata$r	ENDS
;	COMDAT ??_R2ioDummyChar@@8
rdata$r	SEGMENT
??_R2ioDummyChar@@8 DD FLAT:??_R1A@?0A@EA@ioDummyChar@@8 ; ioDummyChar::`RTTI Base Class Array'
	DD	FLAT:??_R1A@?0A@EA@ioPlayEntity@@8
	DD	FLAT:??_R1A@?0A@EA@ioGameEntity@@8
	DD	FLAT:??_R1A@?0A@EA@ioEntityEvent@@8
	DD	FLAT:??_R1BMI@?0A@EA@ioWorldEventReceiver@@8
rdata$r	ENDS
;	COMDAT ??_R3ioDummyChar@@8
rdata$r	SEGMENT
??_R3ioDummyChar@@8 DD 00H				; ioDummyChar::`RTTI Class Hierarchy Descriptor'
	DD	01H
	DD	05H
	DD	FLAT:??_R2ioDummyChar@@8
rdata$r	ENDS
;	COMDAT ??_R0?AVioDummyChar@@@8
_DATA	SEGMENT
??_R0?AVioDummyChar@@@8 DD FLAT:??_7type_info@@6B@	; ioDummyChar `RTTI Type Descriptor'
	DD	00H
	DB	'.?AVioDummyChar@@', 00H
_DATA	ENDS
;	COMDAT ??_R1A@?0A@EA@ioDummyChar@@8
rdata$r	SEGMENT
??_R1A@?0A@EA@ioDummyChar@@8 DD FLAT:??_R0?AVioDummyChar@@@8 ; ioDummyChar::`RTTI Base Class Descriptor at (0,-1,0,64)'
	DD	04H
	DD	00H
	DD	0ffffffffH
	DD	00H
	DD	040H
	DD	FLAT:??_R3ioDummyChar@@8
rdata$r	ENDS
;	COMDAT ??_R1A@?0A@EA@ioOwnerAttach5Dummy@@8
rdata$r	SEGMENT
??_R1A@?0A@EA@ioOwnerAttach5Dummy@@8 DD FLAT:??_R0?AVioOwnerAttach5Dummy@@@8 ; ioOwnerAttach5Dummy::`RTTI Base Class Descriptor at (0,-1,0,64)'
	DD	05H
	DD	00H
	DD	0ffffffffH
	DD	00H
	DD	040H
	DD	FLAT:??_R3ioOwnerAttach5Dummy@@8
rdata$r	ENDS
;	COMDAT ??_R2ioOwnerAttach5Dummy@@8
rdata$r	SEGMENT
??_R2ioOwnerAttach5Dummy@@8 DD FLAT:??_R1A@?0A@EA@ioOwnerAttach5Dummy@@8 ; ioOwnerAttach5Dummy::`RTTI Base Class Array'
	DD	FLAT:??_R1A@?0A@EA@ioDummyChar@@8
	DD	FLAT:??_R1A@?0A@EA@ioPlayEntity@@8
	DD	FLAT:??_R1A@?0A@EA@ioGameEntity@@8
	DD	FLAT:??_R1A@?0A@EA@ioEntityEvent@@8
	DD	FLAT:??_R1BMI@?0A@EA@ioWorldEventReceiver@@8
rdata$r	ENDS
;	COMDAT ??_R3ioOwnerAttach5Dummy@@8
rdata$r	SEGMENT
??_R3ioOwnerAttach5Dummy@@8 DD 00H			; ioOwnerAttach5Dummy::`RTTI Class Hierarchy Descriptor'
	DD	01H
	DD	06H
	DD	FLAT:??_R2ioOwnerAttach5Dummy@@8
rdata$r	ENDS
;	COMDAT ??_R0?AVioOwnerAttach5Dummy@@@8
_DATA	SEGMENT
??_R0?AVioOwnerAttach5Dummy@@@8 DD FLAT:??_7type_info@@6B@ ; ioOwnerAttach5Dummy `RTTI Type Descriptor'
	DD	00H
	DB	'.?AVioOwnerAttach5Dummy@@', 00H
_DATA	ENDS
;	COMDAT ??_R4ioOwnerAttach5Dummy@@6BioPlayEntity@@@
rdata$r	SEGMENT
??_R4ioOwnerAttach5Dummy@@6BioPlayEntity@@@ DD 00H	; ioOwnerAttach5Dummy::`RTTI Complete Object Locator'
	DD	00H
	DD	00H
	DD	FLAT:??_R0?AVioOwnerAttach5Dummy@@@8
	DD	FLAT:??_R3ioOwnerAttach5Dummy@@8
rdata$r	ENDS
;	COMDAT ??_7ioOwnerAttach5Dummy@@6BioWorldEventReceiver@@@
CONST	SEGMENT
??_7ioOwnerAttach5Dummy@@6BioWorldEventReceiver@@@ DD FLAT:??_R4ioOwnerAttach5Dummy@@6BioWorldEventReceiver@@@ ; ioOwnerAttach5Dummy::`vftable'
	DD	FLAT:?OnTelepotation@ioDummyChar@@UAEXABUD3DXVECTOR3@@@Z
	DD	FLAT:?OnFireZoneDamage@ioDummyChar@@UAEXMABVioHashString@@@Z
	DD	FLAT:?OnPoisonZoneDamage@ioDummyChar@@UAEXXZ
	DD	FLAT:??_EioOwnerAttach5Dummy@@WBMI@AEPAXI@Z
CONST	ENDS
;	COMDAT ??_7ioOwnerAttach5Dummy@@6BioPlayEntity@@@
CONST	SEGMENT
??_7ioOwnerAttach5Dummy@@6BioPlayEntity@@@ DD FLAT:??_R4ioOwnerAttach5Dummy@@6BioPlayEntity@@@ ; ioOwnerAttach5Dummy::`vftable'
	DD	FLAT:?AddEntityEvent@ioDummyChar@@UAEXPAVioEntity@@@Z
	DD	FLAT:??_EioOwnerAttach5Dummy@@UAEPAXI@Z
	DD	FLAT:?Update@ioDummyChar@@UAEXMKK@Z
	DD	FLAT:?UpdateAfter@ioDummyChar@@UAEXM@Z
	DD	FLAT:?GetTypeID@ioPlayEntity@@UBEHXZ
	DD	FLAT:?IsNeedCheckMapCollision@ioDummyChar@@UBE_NXZ
	DD	FLAT:?IsMountAvailable@ioDummyChar@@UBE_NXZ
	DD	FLAT:?IsMountingAvailable@ioDummyChar@@UBE_NXZ
	DD	FLAT:?IsNowMountEnable@ioDummyChar@@UBE_NXZ
	DD	FLAT:?IsAllWeaponDefence@ioGameEntity@@UBE_NXZ
	DD	FLAT:?HasEntity@ioGameEntity@@UAE_NABVioHashString@@@Z
	DD	FLAT:?AddEntity@ioGameEntity@@UAEPAVioEntity@@ABVioHashString@@@Z
	DD	FLAT:?DestroyEntity@ioGameEntity@@UAE_NABVioHashString@@@Z
	DD	FLAT:?GetEntity@ioGameEntity@@UAEPAVioEntity@@ABVioHashString@@@Z
	DD	FLAT:?UpdateBound@ioGameEntity@@MBEXXZ
	DD	FLAT:?UpdateBottomHeight@ioDummyChar@@MBEXXZ
	DD	FLAT:?NeedUpdateBottomHeight@ioDummyChar@@UAEXXZ
	DD	FLAT:?SetWorldPosition@ioGameEntity@@UAEXABUD3DXVECTOR3@@@Z
	DD	FLAT:?SetWorldOrientation@ioGameEntity@@UAEXABUD3DXQUATERNION@@@Z
	DD	FLAT:?SetWorldScale@ioGameEntity@@UAEXABUD3DXVECTOR3@@@Z
	DD	FLAT:?Translate@ioDummyChar@@UAEXABUD3DXVECTOR3@@@Z
	DD	FLAT:?TranslateByConveyer@ioDummyChar@@UAEXABUD3DXVECTOR3@@@Z
	DD	FLAT:?TranslateByWorldEntity@ioDummyChar@@UAEXABUD3DXVECTOR3@@@Z
	DD	FLAT:?MapCollisionPushingTranslate@ioDummyChar@@UAEXABUD3DXVECTOR3@@@Z
	DD	FLAT:?DontMoveCollisionPushingTranslate@ioGameEntity@@UAEXPAV1@ABUD3DXVECTOR3@@@Z
	DD	FLAT:?Rotate@ioGameEntity@@UAEXABUD3DXVECTOR3@@MW4TransformSpace@ioNode@@@Z
	DD	FLAT:?Scale@ioGameEntity@@UAEXMMM@Z
	DD	FLAT:?Scale@ioGameEntity@@UAEXABUD3DXVECTOR3@@@Z
	DD	FLAT:?GetWorldPosition@ioGameEntity@@UBEABUD3DXVECTOR3@@XZ
	DD	FLAT:?GetWorldOrientation@ioGameEntity@@UBEABUD3DXQUATERNION@@XZ
	DD	FLAT:?GetWorldScale@ioGameEntity@@UBEABUD3DXVECTOR3@@XZ
	DD	FLAT:?ApplyWeapon@ioOwnerAttach5Dummy@@UAE?AW4ApplyWeaponExp@@PAVioWeapon@@@Z
	DD	FLAT:?IsCollisionAvailableWeapon@ioDummyChar@@UAE_NPAVioWeapon@@@Z
	DD	FLAT:?IsCollisionAvailableRange@ioPlayEntity@@UAE_NPAVioWeapon@@@Z
	DD	FLAT:?IsEntityCollisionSkipState@ioDummyChar@@UBE_NPAVioGameEntity@@@Z
	DD	FLAT:?IsCharCollisionSkipState@ioDummyChar@@UBE_NW4TeamType@@H@Z
	DD	FLAT:?IsWoundedCollision@ioPlayEntity@@UBE_NABVioOrientBox@@PAUD3DXVECTOR3@@@Z
	DD	FLAT:?GetAttackCollisionBox@ioDummyChar@@UAE?AVioOrientBox@@W4AniCollisionType@@_N@Z
	DD	FLAT:?CheckSphereDistance@ioPlayEntity@@UBE_NABUD3DXVECTOR3@@MAAM@Z
	DD	FLAT:?CheckSpherePoint@ioPlayEntity@@UBE_NABUD3DXVECTOR3@@MAAU2@@Z
	DD	FLAT:?CheckCylinderPoint@ioPlayEntity@@UBE_NABVioCylinder@@ABUD3DXVECTOR3@@AAU3@@Z
	DD	FLAT:?GetSubType@ioDummyChar@@UBE?AW4PlaySubType@ioPlayEntity@@XZ
	DD	FLAT:?GetArmorType@ioDummyChar@@UBE?AW4ArmorType@@XZ
	DD	FLAT:?DontMoveEntityLevel@ioDummyChar@@UBEHXZ
	DD	FLAT:?NotifyDontMoveCollisionPushingSkip@ioPlayEntity@@UAEXPAVioGameEntity@@@Z
	DD	FLAT:?LoadProperty@ioOwnerAttach5Dummy@@UAEXAAVioINILoader@@@Z
	DD	FLAT:?GetWorldEventReceiver@ioDummyChar@@UAEPAVioWorldEventReceiver@@XZ
	DD	FLAT:?Revival@ioPlayEntity@@UAEXXZ
	DD	FLAT:?UpdateGauge@ioDummyChar@@UAEXXZ
	DD	FLAT:?RenderGauge@ioDummyChar@@UAEXXZ
	DD	FLAT:?FillMaxHP@ioPlayEntity@@UAEXXZ
	DD	FLAT:?ProcessRecovery@ioPlayEntity@@MAEXXZ
	DD	FLAT:?AddHeadDamageInfo@ioPlayEntity@@UAEXH_N@Z
	DD	FLAT:?RenderHeadInfoList@ioPlayEntity@@UAEXHH@Z
	DD	FLAT:?UpdateHeadInfoList@ioPlayEntity@@MAEXK@Z
	DD	FLAT:?SetTeam@ioPlayEntity@@UAEXW4TeamType@@@Z
	DD	FLAT:?InitDummyCharInfo@ioDummyChar@@UAEXHKABUD3DXVECTOR3@@0M_N@Z
	DD	FLAT:?TestMapCollision@ioDummyChar@@UAE_NPAVioOpcodeShape@@PAVioPlayStage@@PBUD3DXMATRIX@@@Z
	DD	FLAT:?CheckEntityCollision@ioDummyChar@@UAEXPAVioPlayEntity@@@Z
	DD	FLAT:?GetDummyGrassType@ioDummyChar@@UAEHXZ
	DD	FLAT:?IsActivateWeapon@ioOwnerAttach5Dummy@@UAE_NXZ
	DD	FLAT:?IsDummyVsDummyCollisionSkipState@ioDummyChar@@UAE_NPBV1@@Z
	DD	FLAT:?ProcessState@ioOwnerAttach5Dummy@@MAEXMK@Z
	DD	FLAT:?ProcessPos@ioDummyChar@@MAEXM@Z
	DD	FLAT:?ProcessDelayState@ioDummyChar@@MAEXM@Z
	DD	FLAT:?ProcessMoveState@ioDummyChar@@MAEXM@Z
	DD	FLAT:?ProcessDashState@ioDummyChar@@MAEXM@Z
	DD	FLAT:?ProcessAttackState@ioDummyChar@@MAEXMK@Z
	DD	FLAT:?ApplyDummyCharSync@ioOwnerAttach5Dummy@@UAEXPAVioPlayStage@@AAVSP2Packet@@@Z
	DD	FLAT:?SetDelayState@ioDummyChar@@UAEX_N@Z
	DD	FLAT:?SetMoveState@ioDummyChar@@UAEXXZ
	DD	FLAT:?SetDieState@ioDummyChar@@UAEX_N0@Z
	DD	FLAT:?SetDashState@ioDummyChar@@UAEXXZ
	DD	FLAT:?SetAttackState@ioDummyChar@@UAEXXZ
	DD	FLAT:?DropZoneCheck@ioDummyChar@@MAEXXZ
	DD	FLAT:?SendAttackInfoToSkill@ioDummyChar@@MAEXXZ
	DD	FLAT:?CheckCollisionWeapon@ioDummyChar@@UAEXPAVioBaseChar@@@Z
	DD	FLAT:?TranslateMountEntity@ioDummyChar@@MAEXABUD3DXVECTOR3@@@Z
	DD	FLAT:?ClearMountEntity@ioDummyChar@@MAEXXZ
	DD	FLAT:?UpdateMountedEntityList@ioDummyChar@@MAEXXZ
	DD	FLAT:?UpdateMountedWeaponList@ioDummyChar@@MAEXXZ
	DD	FLAT:?SetWorldPositionMountEntity@ioDummyChar@@MAEXM@Z
	DD	FLAT:?DummyDieClearMountEntity@ioDummyChar@@MAEXXZ
	DD	FLAT:?IsDummyCharMidSync@ioDummyChar@@UAE_NXZ
	DD	FLAT:?FillDummyCharMidSync@ioDummyChar@@UAEXPAVioBaseChar@@AAVSP2Packet@@@Z
	DD	FLAT:?ApplyDummyCharMidSync@ioDummyChar@@UAEXPAVioBaseChar@@AAVSP2Packet@@@Z
	DD	FLAT:?GetSkillMaxActiveCnt@ioDummyChar@@UAEHXZ
	DD	FLAT:?GetSkillCurActiveCnt@ioDummyChar@@UAEHXZ
	DD	FLAT:?SetDieState@ioOwnerAttach5Dummy@@UAEX_N@Z
CONST	ENDS
;	COMDAT xdata$x
xdata$x	SEGMENT
__ehfuncinfo$??0ioOwnerAttach5Dummy@@QAE@PAVioEntityGroup@@PAVioPlayMode@@@Z DD 019930522H
	DD	05H
	DD	FLAT:__unwindtable$??0ioOwnerAttach5Dummy@@QAE@PAVioEntityGroup@@PAVioPlayMode@@@Z
	DD	2 DUP(00H)
	DD	2 DUP(00H)
	DD	00H
	DD	01H
__unwindtable$??0ioOwnerAttach5Dummy@@QAE@PAVioEntityGroup@@PAVioPlayMode@@@Z DD 0ffffffffH
	DD	FLAT:__unwindfunclet$??0ioOwnerAttach5Dummy@@QAE@PAVioEntityGroup@@PAVioPlayMode@@@Z$0
	DD	00H
	DD	FLAT:__unwindfunclet$??0ioOwnerAttach5Dummy@@QAE@PAVioEntityGroup@@PAVioPlayMode@@@Z$1
	DD	01H
	DD	FLAT:__unwindfunclet$??0ioOwnerAttach5Dummy@@QAE@PAVioEntityGroup@@PAVioPlayMode@@@Z$2
	DD	02H
	DD	FLAT:__unwindfunclet$??0ioOwnerAttach5Dummy@@QAE@PAVioEntityGroup@@PAVioPlayMode@@@Z$3
	DD	03H
	DD	FLAT:__unwindfunclet$??0ioOwnerAttach5Dummy@@QAE@PAVioEntityGroup@@PAVioPlayMode@@@Z$4
; Function compile flags: /Ogsp
; File d:\lost saga for developer\youtube\tutorial\source\src\lsclient\ioownerattach5dummy.cpp
xdata$x	ENDS
;	COMDAT ??0ioOwnerAttach5Dummy@@QAE@PAVioEntityGroup@@PAVioPlayMode@@@Z
_TEXT	SEGMENT
_this$ = -16						; size = 4
__$EHRec$ = -12						; size = 12
_pGrp$ = 8						; size = 4
_pMode$ = 12						; size = 4
??0ioOwnerAttach5Dummy@@QAE@PAVioEntityGroup@@PAVioPlayMode@@@Z PROC ; ioOwnerAttach5Dummy::ioOwnerAttach5Dummy, COMDAT
; _this$ = ecx

; 13   : {

  00000	6a 04		 push	 4
  00002	b8 00 00 00 00	 mov	 eax, __ehhandler$??0ioOwnerAttach5Dummy@@QAE@PAVioEntityGroup@@PAVioPlayMode@@@Z
  00007	e8 00 00 00 00	 call	 __EH_prolog3
  0000c	8b f1		 mov	 esi, ecx
  0000e	89 75 f0	 mov	 DWORD PTR _this$[ebp], esi
  00011	ff 75 0c	 push	 DWORD PTR _pMode$[ebp]
  00014	ff 75 08	 push	 DWORD PTR _pGrp$[ebp]
  00017	e8 00 00 00 00	 call	 ??0ioDummyChar@@QAE@PAVioEntityGroup@@PAVioPlayMode@@@Z ; ioDummyChar::ioDummyChar
  0001c	8b 3d 00 00 00
	00		 mov	 edi, DWORD PTR __imp_??0ioHashString@@QAE@XZ
  00022	33 db		 xor	 ebx, ebx
  00024	8d 8e 8c 14 00
	00		 lea	 ecx, DWORD PTR [esi+5260]
  0002a	89 5d fc	 mov	 DWORD PTR __$EHRec$[ebp+8], ebx
  0002d	c7 06 00 00 00
	00		 mov	 DWORD PTR [esi], OFFSET ??_7ioOwnerAttach5Dummy@@6BioPlayEntity@@@
  00033	c7 86 c8 01 00
	00 00 00 00 00	 mov	 DWORD PTR [esi+456], OFFSET ??_7ioOwnerAttach5Dummy@@6BioWorldEventReceiver@@@
  0003d	ff d7		 call	 edi
  0003f	8d 8e 9c 14 00
	00		 lea	 ecx, DWORD PTR [esi+5276]
  00045	c6 45 fc 01	 mov	 BYTE PTR __$EHRec$[ebp+8], 1
  00049	ff d7		 call	 edi
  0004b	89 9e d0 14 00
	00		 mov	 DWORD PTR [esi+5328], ebx
  00051	89 9e d4 14 00
	00		 mov	 DWORD PTR [esi+5332], ebx
  00057	89 9e d8 14 00
	00		 mov	 DWORD PTR [esi+5336], ebx
  0005d	89 9e 10 15 00
	00		 mov	 DWORD PTR [esi+5392], ebx
  00063	89 9e 14 15 00
	00		 mov	 DWORD PTR [esi+5396], ebx
  00069	89 9e 18 15 00
	00		 mov	 DWORD PTR [esi+5400], ebx
  0006f	8d 8e 20 15 00
	00		 lea	 ecx, DWORD PTR [esi+5408]
  00075	c6 45 fc 04	 mov	 BYTE PTR __$EHRec$[ebp+8], 4
  00079	ff d7		 call	 edi

; 14   : 	m_AttachState = AS_None;

  0007b	89 9e ec 14 00
	00		 mov	 DWORD PTR [esi+5356], ebx

; 15   : 	m_dwFireStart = 0;

  00081	89 9e 08 15 00
	00		 mov	 DWORD PTR [esi+5384], ebx

; 16   : 	m_dwAttackEndTime = 0;

  00087	89 9e 0c 15 00
	00		 mov	 DWORD PTR [esi+5388], ebx

; 17   : 	m_bAutoFollow = false;

  0008d	66 89 9e 30 15
	00 00		 mov	 WORD PTR [esi+5424], bx

; 18   : 	m_bCreateWeapon = false;
; 19   : 	m_dwCheckRefreshTime = 0;

  00094	89 9e 34 15 00
	00		 mov	 DWORD PTR [esi+5428], ebx

; 20   : }

  0009a	8b c6		 mov	 eax, esi
  0009c	e8 00 00 00 00	 call	 __EH_epilog3
  000a1	c2 08 00	 ret	 8
_TEXT	ENDS
;	COMDAT text$x
text$x	SEGMENT
__unwindfunclet$??0ioOwnerAttach5Dummy@@QAE@PAVioEntityGroup@@PAVioPlayMode@@@Z$0:
  00000	8b 4d f0	 mov	 ecx, DWORD PTR _this$[ebp]
  00003	e9 00 00 00 00	 jmp	 ??1ioDummyChar@@UAE@XZ	; ioDummyChar::~ioDummyChar
__unwindfunclet$??0ioOwnerAttach5Dummy@@QAE@PAVioEntityGroup@@PAVioPlayMode@@@Z$1:
  00008	8b 4d f0	 mov	 ecx, DWORD PTR _this$[ebp]
  0000b	81 c1 8c 14 00
	00		 add	 ecx, 5260		; 0000148cH
  00011	ff 25 00 00 00
	00		 jmp	 DWORD PTR __imp_??1ioHashString@@QAE@XZ
__unwindfunclet$??0ioOwnerAttach5Dummy@@QAE@PAVioEntityGroup@@PAVioPlayMode@@@Z$2:
  00017	8b 4d f0	 mov	 ecx, DWORD PTR _this$[ebp]
  0001a	81 c1 9c 14 00
	00		 add	 ecx, 5276		; 0000149cH
  00020	ff 25 00 00 00
	00		 jmp	 DWORD PTR __imp_??1ioHashString@@QAE@XZ
__unwindfunclet$??0ioOwnerAttach5Dummy@@QAE@PAVioEntityGroup@@PAVioPlayMode@@@Z$3:
  00026	8b 4d f0	 mov	 ecx, DWORD PTR _this$[ebp]
  00029	81 c1 d0 14 00
	00		 add	 ecx, 5328		; 000014d0H
  0002f	e9 00 00 00 00	 jmp	 ??1?$vector@VioHashString@@V?$allocator@VioHashString@@@std@@@std@@QAE@XZ ; std::vector<ioHashString,std::allocator<ioHashString> >::~vector<ioHashString,std::allocator<ioHashString> >
__unwindfunclet$??0ioOwnerAttach5Dummy@@QAE@PAVioEntityGroup@@PAVioPlayMode@@@Z$4:
  00034	8b 4d f0	 mov	 ecx, DWORD PTR _this$[ebp]
  00037	81 c1 10 15 00
	00		 add	 ecx, 5392		; 00001510H
  0003d	e9 00 00 00 00	 jmp	 ??1?$vector@UDistInfo@ioOwnerAttach5Dummy@@V?$allocator@UDistInfo@ioOwnerAttach5Dummy@@@std@@@std@@QAE@XZ ; std::vector<ioOwnerAttach5Dummy::DistInfo,std::allocator<ioOwnerAttach5Dummy::DistInfo> >::~vector<ioOwnerAttach5Dummy::DistInfo,std::allocator<ioOwnerAttach5Dummy::DistInfo> >
__ehhandler$??0ioOwnerAttach5Dummy@@QAE@PAVioEntityGroup@@PAVioPlayMode@@@Z:
  00042	8b 54 24 08	 mov	 edx, DWORD PTR [esp+8]
  00046	8d 42 0c	 lea	 eax, DWORD PTR [edx+12]
  00049	8b 4a ec	 mov	 ecx, DWORD PTR [edx-20]
  0004c	33 c8		 xor	 ecx, eax
  0004e	e8 00 00 00 00	 call	 @__security_check_cookie@4
  00053	b8 00 00 00 00	 mov	 eax, OFFSET __ehfuncinfo$??0ioOwnerAttach5Dummy@@QAE@PAVioEntityGroup@@PAVioPlayMode@@@Z
  00058	e9 00 00 00 00	 jmp	 ___CxxFrameHandler3
text$x	ENDS
??0ioOwnerAttach5Dummy@@QAE@PAVioEntityGroup@@PAVioPlayMode@@@Z ENDP ; ioOwnerAttach5Dummy::ioOwnerAttach5Dummy
; Function compile flags: /Odsp
;	COMDAT ??_EioOwnerAttach5Dummy@@WBMI@AEPAXI@Z
_TEXT	SEGMENT
??_EioOwnerAttach5Dummy@@WBMI@AEPAXI@Z PROC		; [thunk]:ioOwnerAttach5Dummy::`vector deleting destructor', COMDAT
  00000	81 e9 c8 01 00
	00		 sub	 ecx, 456		; 000001c8H
  00006	e9 00 00 00 00	 jmp	 ??_EioOwnerAttach5Dummy@@UAEPAXI@Z
??_EioOwnerAttach5Dummy@@WBMI@AEPAXI@Z ENDP		; [thunk]:ioOwnerAttach5Dummy::`vector deleting destructor'
; Function compile flags: /Ogsp
; File d:\lost saga for developer\youtube\tutorial\source\src\lsclient\iodummychar.h
_TEXT	ENDS
;	COMDAT ?IsDummyCharMidSync@ioDummyChar@@UAE_NXZ
_TEXT	SEGMENT
?IsDummyCharMidSync@ioDummyChar@@UAE_NXZ PROC		; ioDummyChar::IsDummyCharMidSync, COMDAT
; _this$ = ecx

; 742  : 	virtual bool IsDummyCharMidSync(){ return false; }

  00000	32 c0		 xor	 al, al
  00002	c3		 ret	 0
?IsDummyCharMidSync@ioDummyChar@@UAE_NXZ ENDP		; ioDummyChar::IsDummyCharMidSync
_TEXT	ENDS
PUBLIC	?EncryptValueToPool@?$CEncrypt@W4TeamType@@@@AAEXPBD@Z ; CEncrypt<enum TeamType>::EncryptValueToPool
; Function compile flags: /Ogsp
; File d:\lost saga for developer\youtube\tutorial\source\src\lsclient\encryptvalue.h
;	COMDAT ?EncryptValueToPool@?$CEncrypt@W4TeamType@@@@AAEXPBD@Z
_TEXT	SEGMENT
_value$ = 8						; size = 4
?EncryptValueToPool@?$CEncrypt@W4TeamType@@@@AAEXPBD@Z PROC ; CEncrypt<enum TeamType>::EncryptValueToPool, COMDAT
; _this$ = ecx

; 67   : 	{

  00000	55		 push	 ebp
  00001	8b ec		 mov	 ebp, esp

; 68   : 		m_RC5.EncryptByte( value, m_MemPool, max(m_ValueSize, DEFAULT_ENCRYPT) );

  00003	0f b7 41 06	 movzx	 eax, WORD PTR [ecx+6]
  00007	83 f8 04	 cmp	 eax, 4
  0000a	77 03		 ja	 SHORT $LN4@EncryptVal@2
  0000c	6a 04		 push	 4
  0000e	58		 pop	 eax
$LN4@EncryptVal@2:
  0000f	50		 push	 eax
  00010	8d 41 1c	 lea	 eax, DWORD PTR [ecx+28]
  00013	50		 push	 eax
  00014	ff 75 08	 push	 DWORD PTR _value$[ebp]
  00017	83 c1 0c	 add	 ecx, 12			; 0000000cH
  0001a	e8 00 00 00 00	 call	 ?EncryptByte@ccddaabb@@QAEXPBDPADH@Z ; ccddaabb::EncryptByte

; 69   : 		
; 70   : 	}

  0001f	5d		 pop	 ebp
  00020	c2 04 00	 ret	 4
?EncryptValueToPool@?$CEncrypt@W4TeamType@@@@AAEXPBD@Z ENDP ; CEncrypt<enum TeamType>::EncryptValueToPool
_TEXT	ENDS
PUBLIC	??4?$CEncrypt@W4TeamType@@@@QAE?AW4TeamType@@W41@@Z ; CEncrypt<enum TeamType>::operator=
; Function compile flags: /Ogsp
;	COMDAT ??4?$CEncrypt@W4TeamType@@@@QAE?AW4TeamType@@W41@@Z
_TEXT	SEGMENT
_value$ = 8						; size = 4
_inValue$ = 8						; size = 4
??4?$CEncrypt@W4TeamType@@@@QAE?AW4TeamType@@W41@@Z PROC ; CEncrypt<enum TeamType>::operator=, COMDAT
; _this$ = ecx

; 2965 : 	{

  00000	55		 push	 ebp
  00001	8b ec		 mov	 ebp, esp

; 2966 : 		type value = inValue;

  00003	8b 45 08	 mov	 eax, DWORD PTR _inValue$[ebp]
  00006	89 45 08	 mov	 DWORD PTR _value$[ebp], eax

; 2967 : 		EncryptValueToPool((char*)&value);

  00009	8d 45 08	 lea	 eax, DWORD PTR _value$[ebp]
  0000c	50		 push	 eax
  0000d	e8 00 00 00 00	 call	 ?EncryptValueToPool@?$CEncrypt@W4TeamType@@@@AAEXPBD@Z ; CEncrypt<enum TeamType>::EncryptValueToPool

; 2968 : #ifdef _NOTUSE
; 2969 : 		m_value = inValue;
; 2970 : 		Debug();
; 2971 : #endif
; 2972 : 		return value;

  00012	8b 45 08	 mov	 eax, DWORD PTR _value$[ebp]

; 2973 : 	}

  00015	5d		 pop	 ebp
  00016	c2 04 00	 ret	 4
??4?$CEncrypt@W4TeamType@@@@QAE?AW4TeamType@@W41@@Z ENDP ; CEncrypt<enum TeamType>::operator=
; Function compile flags: /Ogsp
; File d:\lost saga for developer\youtube\tutorial\source\src\lsclient\ioplayentity.h
_TEXT	ENDS
;	COMDAT ?SetTeam@ioPlayEntity@@UAEXW4TeamType@@@Z
_TEXT	SEGMENT
_value$578039 = 8					; size = 4
_eType$ = 8						; size = 4
?SetTeam@ioPlayEntity@@UAEXW4TeamType@@@Z PROC		; ioPlayEntity::SetTeam, COMDAT
; _this$ = ecx

; 106  : 	virtual void SetTeam( TeamType eType ) { m_TeamType = eType; }

  00000	55		 push	 ebp
  00001	8b ec		 mov	 ebp, esp
  00003	8b 45 08	 mov	 eax, DWORD PTR _eType$[ebp]
  00006	89 45 08	 mov	 DWORD PTR _value$578039[ebp], eax
  00009	8d 45 08	 lea	 eax, DWORD PTR _value$578039[ebp]
  0000c	50		 push	 eax
  0000d	81 c1 90 00 00
	00		 add	 ecx, 144		; 00000090H
  00013	e8 00 00 00 00	 call	 ?EncryptValueToPool@?$CEncrypt@W4TeamType@@@@AAEXPBD@Z ; CEncrypt<enum TeamType>::EncryptValueToPool
  00018	5d		 pop	 ebp
  00019	c2 04 00	 ret	 4
?SetTeam@ioPlayEntity@@UAEXW4TeamType@@@Z ENDP		; ioPlayEntity::SetTeam
_TEXT	ENDS
PUBLIC	??1ioOwnerAttach5Dummy@@UAE@XZ			; ioOwnerAttach5Dummy::~ioOwnerAttach5Dummy
;	COMDAT xdata$x
; File c:\program files (x86)\microsoft visual studio 10.0\vc\include\vector
xdata$x	SEGMENT
__ehfuncinfo$??1ioOwnerAttach5Dummy@@UAE@XZ DD 019930522H
	DD	05H
	DD	FLAT:__unwindtable$??1ioOwnerAttach5Dummy@@UAE@XZ
	DD	2 DUP(00H)
	DD	2 DUP(00H)
	DD	00H
	DD	01H
__unwindtable$??1ioOwnerAttach5Dummy@@UAE@XZ DD 0ffffffffH
	DD	FLAT:__unwindfunclet$??1ioOwnerAttach5Dummy@@UAE@XZ$0
	DD	00H
	DD	FLAT:__unwindfunclet$??1ioOwnerAttach5Dummy@@UAE@XZ$1
	DD	01H
	DD	FLAT:__unwindfunclet$??1ioOwnerAttach5Dummy@@UAE@XZ$2
	DD	02H
	DD	FLAT:__unwindfunclet$??1ioOwnerAttach5Dummy@@UAE@XZ$3
	DD	03H
	DD	FLAT:__unwindfunclet$??1ioOwnerAttach5Dummy@@UAE@XZ$4
; Function compile flags: /Ogsp
; File d:\lost saga for developer\youtube\tutorial\source\src\lsclient\ioownerattach5dummy.cpp
xdata$x	ENDS
;	COMDAT ??1ioOwnerAttach5Dummy@@UAE@XZ
_TEXT	SEGMENT
_this$ = -16						; size = 4
__$EHRec$ = -12						; size = 12
??1ioOwnerAttach5Dummy@@UAE@XZ PROC			; ioOwnerAttach5Dummy::~ioOwnerAttach5Dummy, COMDAT
; _this$ = ecx

; 23   : {

  00000	6a 04		 push	 4
  00002	b8 00 00 00 00	 mov	 eax, __ehhandler$??1ioOwnerAttach5Dummy@@UAE@XZ
  00007	e8 00 00 00 00	 call	 __EH_prolog3
  0000c	8b f1		 mov	 esi, ecx
  0000e	89 75 f0	 mov	 DWORD PTR _this$[ebp], esi
  00011	c7 06 00 00 00
	00		 mov	 DWORD PTR [esi], OFFSET ??_7ioOwnerAttach5Dummy@@6BioPlayEntity@@@
  00017	c7 86 c8 01 00
	00 00 00 00 00	 mov	 DWORD PTR [esi+456], OFFSET ??_7ioOwnerAttach5Dummy@@6BioWorldEventReceiver@@@

; 24   : }

  00021	8b 3d 00 00 00
	00		 mov	 edi, DWORD PTR __imp_??1ioHashString@@QAE@XZ
  00027	8d 8e 20 15 00
	00		 lea	 ecx, DWORD PTR [esi+5408]
  0002d	c7 45 fc 04 00
	00 00		 mov	 DWORD PTR __$EHRec$[ebp+8], 4
  00034	ff d7		 call	 edi
  00036	8d 8e 10 15 00
	00		 lea	 ecx, DWORD PTR [esi+5392]
  0003c	c6 45 fc 03	 mov	 BYTE PTR __$EHRec$[ebp+8], 3
  00040	e8 00 00 00 00	 call	 ?_Tidy@?$vector@UDistInfo@ioOwnerAttach5Dummy@@V?$allocator@UDistInfo@ioOwnerAttach5Dummy@@@std@@@std@@IAEXXZ ; std::vector<ioOwnerAttach5Dummy::DistInfo,std::allocator<ioOwnerAttach5Dummy::DistInfo> >::_Tidy
  00045	8d 8e d0 14 00
	00		 lea	 ecx, DWORD PTR [esi+5328]
  0004b	c6 45 fc 02	 mov	 BYTE PTR __$EHRec$[ebp+8], 2
  0004f	e8 00 00 00 00	 call	 ?_Tidy@?$vector@VioHashString@@V?$allocator@VioHashString@@@std@@@std@@IAEXXZ ; std::vector<ioHashString,std::allocator<ioHashString> >::_Tidy
  00054	8d 8e 9c 14 00
	00		 lea	 ecx, DWORD PTR [esi+5276]
  0005a	c6 45 fc 01	 mov	 BYTE PTR __$EHRec$[ebp+8], 1
  0005e	ff d7		 call	 edi
  00060	8d 8e 8c 14 00
	00		 lea	 ecx, DWORD PTR [esi+5260]
  00066	c6 45 fc 00	 mov	 BYTE PTR __$EHRec$[ebp+8], 0
  0006a	ff d7		 call	 edi
  0006c	83 4d fc ff	 or	 DWORD PTR __$EHRec$[ebp+8], -1
  00070	8b ce		 mov	 ecx, esi
  00072	e8 00 00 00 00	 call	 ??1ioDummyChar@@UAE@XZ	; ioDummyChar::~ioDummyChar
  00077	e8 00 00 00 00	 call	 __EH_epilog3
  0007c	c3		 ret	 0
_TEXT	ENDS
;	COMDAT text$x
text$x	SEGMENT
__unwindfunclet$??1ioOwnerAttach5Dummy@@UAE@XZ$0:
  00000	8b 4d f0	 mov	 ecx, DWORD PTR _this$[ebp]
  00003	e9 00 00 00 00	 jmp	 ??1ioDummyChar@@UAE@XZ	; ioDummyChar::~ioDummyChar
__unwindfunclet$??1ioOwnerAttach5Dummy@@UAE@XZ$1:
  00008	8b 4d f0	 mov	 ecx, DWORD PTR _this$[ebp]
  0000b	81 c1 8c 14 00
	00		 add	 ecx, 5260		; 0000148cH
  00011	ff 25 00 00 00
	00		 jmp	 DWORD PTR __imp_??1ioHashString@@QAE@XZ
__unwindfunclet$??1ioOwnerAttach5Dummy@@UAE@XZ$2:
  00017	8b 4d f0	 mov	 ecx, DWORD PTR _this$[ebp]
  0001a	81 c1 9c 14 00
	00		 add	 ecx, 5276		; 0000149cH
  00020	ff 25 00 00 00
	00		 jmp	 DWORD PTR __imp_??1ioHashString@@QAE@XZ
__unwindfunclet$??1ioOwnerAttach5Dummy@@UAE@XZ$3:
  00026	8b 4d f0	 mov	 ecx, DWORD PTR _this$[ebp]
  00029	81 c1 d0 14 00
	00		 add	 ecx, 5328		; 000014d0H
  0002f	e9 00 00 00 00	 jmp	 ??1?$vector@VioHashString@@V?$allocator@VioHashString@@@std@@@std@@QAE@XZ ; std::vector<ioHashString,std::allocator<ioHashString> >::~vector<ioHashString,std::allocator<ioHashString> >
__unwindfunclet$??1ioOwnerAttach5Dummy@@UAE@XZ$4:
  00034	8b 4d f0	 mov	 ecx, DWORD PTR _this$[ebp]
  00037	81 c1 10 15 00
	00		 add	 ecx, 5392		; 00001510H
  0003d	e9 00 00 00 00	 jmp	 ??1?$vector@UDistInfo@ioOwnerAttach5Dummy@@V?$allocator@UDistInfo@ioOwnerAttach5Dummy@@@std@@@std@@QAE@XZ ; std::vector<ioOwnerAttach5Dummy::DistInfo,std::allocator<ioOwnerAttach5Dummy::DistInfo> >::~vector<ioOwnerAttach5Dummy::DistInfo,std::allocator<ioOwnerAttach5Dummy::DistInfo> >
__ehhandler$??1ioOwnerAttach5Dummy@@UAE@XZ:
  00042	8b 54 24 08	 mov	 edx, DWORD PTR [esp+8]
  00046	8d 42 0c	 lea	 eax, DWORD PTR [edx+12]
  00049	8b 4a ec	 mov	 ecx, DWORD PTR [edx-20]
  0004c	33 c8		 xor	 ecx, eax
  0004e	e8 00 00 00 00	 call	 @__security_check_cookie@4
  00053	b8 00 00 00 00	 mov	 eax, OFFSET __ehfuncinfo$??1ioOwnerAttach5Dummy@@UAE@XZ
  00058	e9 00 00 00 00	 jmp	 ___CxxFrameHandler3
text$x	ENDS
??1ioOwnerAttach5Dummy@@UAE@XZ ENDP			; ioOwnerAttach5Dummy::~ioOwnerAttach5Dummy
PUBLIC	?LoadInitProperty@ioOwnerAttach5Dummy@@IAEXAAVioINILoader@@@Z ; ioOwnerAttach5Dummy::LoadInitProperty
EXTRN	__imp__wsprintfA:PROC
;	COMDAT xdata$x
; File d:\lost saga for developer\youtube\tutorial\source\src\lsclient\stringprotect.h
xdata$x	SEGMENT
__unwindtable$?LoadInitProperty@ioOwnerAttach5Dummy@@IAEXAAVioINILoader@@@Z DD 0ffffffffH
	DD	FLAT:__unwindfunclet$?LoadInitProperty@ioOwnerAttach5Dummy@@IAEXAAVioINILoader@@@Z$0
__ehfuncinfo$?LoadInitProperty@ioOwnerAttach5Dummy@@IAEXAAVioINILoader@@@Z DD 019930522H
	DD	01H
	DD	FLAT:__unwindtable$?LoadInitProperty@ioOwnerAttach5Dummy@@IAEXAAVioINILoader@@@Z
	DD	2 DUP(00H)
	DD	2 DUP(00H)
	DD	00H
	DD	01H
; Function compile flags: /Ogsp
; File d:\lost saga for developer\youtube\tutorial\source\src\lsclient\ioownerattach5dummy.cpp
xdata$x	ENDS
;	COMDAT ?LoadInitProperty@ioOwnerAttach5Dummy@@IAEXAAVioINILoader@@@Z
_TEXT	SEGMENT
$T578073 = -584						; size = 16
tv17110 = -568						; size = 4
tv14605 = -568						; size = 4
_i$579569 = -564					; size = 4
_nBuffCnt$ = -564					; size = 4
_szKey$ = -560						; size = 260
_szBuf$ = -300						; size = 260
__k$580094 = -40					; size = 18
__k$579969 = -40					; size = 20
__k$579340 = -40					; size = 17
___encStr$568251 = -40					; size = 18
__k$580219 = -36					; size = 15
__k$579857 = -36					; size = 13
__k$579732 = -36					; size = 13
__k$579616 = -36					; size = 16
__k$579469 = -36					; size = 16
__k$579215 = -36					; size = 16
__k$579090 = -36					; size = 16
__k$578965 = -36					; size = 16
__k$578853 = -36					; size = 16
__k$578728 = -36					; size = 16
__k$578603 = -36					; size = 16
__k$578340 = -36					; size = 13
__k$578215 = -36					; size = 16
__k$578090 = -36					; size = 15
__k$578465 = -32					; size = 11
__$EHRec$ = -12						; size = 12
_rkLoader$ = 8						; size = 4
?LoadInitProperty@ioOwnerAttach5Dummy@@IAEXAAVioINILoader@@@Z PROC ; ioOwnerAttach5Dummy::LoadInitProperty, COMDAT
; _this$ = ecx

; 34   : {

  00000	68 3c 02 00 00	 push	 572			; 0000023cH
  00005	b8 00 00 00 00	 mov	 eax, __ehhandler$?LoadInitProperty@ioOwnerAttach5Dummy@@IAEXAAVioINILoader@@@Z
  0000a	e8 00 00 00 00	 call	 __EH_prolog3_GS
  0000f	8b 7d 08	 mov	 edi, DWORD PTR _rkLoader$[ebp]

; 35   : 	m_fRunMoveSpeed = rkLoader.LoadFloat_e( "run_move_speed", 0.0f );

  00012	33 db		 xor	 ebx, ebx
  00014	6a 03		 push	 3
  00016	8b f1		 mov	 esi, ecx
  00018	c7 45 dc 9f 99
	85 b5		 mov	 DWORD PTR __k$578090[ebp], -1249535585 ; b585999fH
  0001f	c7 45 e0 80 83
	9d 8f		 mov	 DWORD PTR __k$578090[ebp+4], -1885502592 ; 8f9d8380H
  00026	c7 45 e4 b2 9f
	9b 8f		 mov	 DWORD PTR __k$578090[ebp+8], -1885626446 ; 8f9b9fb2H
  0002d	66 c7 45 e8 88
	88		 mov	 WORD PTR __k$578090[ebp+12], 34952 ; 00008888H
  00033	8d 45 dc	 lea	 eax, DWORD PTR __k$578090[ebp]
  00036	88 5d ea	 mov	 BYTE PTR __k$578090[ebp+14], bl
  00039	59		 pop	 ecx
$LL209@LoadInitPr:
  0003a	81 30 ed ec eb
	ea		 xor	 DWORD PTR [eax], -353637139 ; eaebecedH
  00040	83 c0 04	 add	 eax, 4
  00043	49		 dec	 ecx
  00044	75 f4		 jne	 SHORT $LL209@LoadInitPr
  00046	6a 0c		 push	 12			; 0000000cH
  00048	58		 pop	 eax
$LL206@LoadInitPr:
  00049	8b c8		 mov	 ecx, eax
  0004b	81 e1 03 00 00
	80		 and	 ecx, -2147483645	; 80000003H
  00051	79 05		 jns	 SHORT $LN2103@LoadInitPr
  00053	49		 dec	 ecx
  00054	83 c9 fc	 or	 ecx, -4			; fffffffcH
  00057	41		 inc	 ecx
$LN2103@LoadInitPr:
  00058	b2 ed		 mov	 dl, -19			; ffffffedH
  0005a	2a d1		 sub	 dl, cl
  0005c	30 54 05 dc	 xor	 BYTE PTR __k$578090[ebp+eax], dl
  00060	40		 inc	 eax
  00061	83 f8 0e	 cmp	 eax, 14			; 0000000eH
  00064	7c e3		 jl	 SHORT $LL206@LoadInitPr
  00066	0f 57 c0	 xorps	 xmm0, xmm0
  00069	51		 push	 ecx
  0006a	8d 45 dc	 lea	 eax, DWORD PTR __k$578090[ebp]
  0006d	f3 0f 11 04 24	 movss	 DWORD PTR [esp], xmm0
  00072	50		 push	 eax
  00073	8b cf		 mov	 ecx, edi
  00075	ff 15 00 00 00
	00		 call	 DWORD PTR __imp_?LoadFloat@ioINILoader@@QAEMPBDM@Z
  0007b	d9 9e e0 14 00
	00		 fstp	 DWORD PTR [esi+5344]
  00081	6a 03		 push	 3

; 36   : 	m_fDashMoveSpeed = rkLoader.LoadFloat_e( "dash_move_speed", 0.0f );

  00083	c7 45 dc 89 8d
	98 82		 mov	 DWORD PTR __k$578215[ebp], -2103931511 ; 82988d89H
  0008a	c7 45 e0 b2 81
	84 9c		 mov	 DWORD PTR __k$578215[ebp+4], -1669037646 ; 9c8481b2H
  00091	c7 45 e4 88 b3
	98 9a		 mov	 DWORD PTR __k$578215[ebp+8], -1701268600 ; 9a98b388H
  00098	8d 45 dc	 lea	 eax, DWORD PTR __k$578215[ebp]
  0009b	c7 45 e8 88 89
	8f 00		 mov	 DWORD PTR __k$578215[ebp+12], 9406856 ; 008f8988H
  000a2	59		 pop	 ecx
$LL315@LoadInitPr:
  000a3	81 30 ed ec eb
	ea		 xor	 DWORD PTR [eax], -353637139 ; eaebecedH
  000a9	83 c0 04	 add	 eax, 4
  000ac	49		 dec	 ecx
  000ad	75 f4		 jne	 SHORT $LL315@LoadInitPr
  000af	6a 0c		 push	 12			; 0000000cH
  000b1	58		 pop	 eax
$LL312@LoadInitPr:
  000b2	8b c8		 mov	 ecx, eax
  000b4	81 e1 03 00 00
	80		 and	 ecx, -2147483645	; 80000003H
  000ba	79 05		 jns	 SHORT $LN2104@LoadInitPr
  000bc	49		 dec	 ecx
  000bd	83 c9 fc	 or	 ecx, -4			; fffffffcH
  000c0	41		 inc	 ecx
$LN2104@LoadInitPr:
  000c1	b2 ed		 mov	 dl, -19			; ffffffedH
  000c3	2a d1		 sub	 dl, cl
  000c5	30 54 05 dc	 xor	 BYTE PTR __k$578215[ebp+eax], dl
  000c9	40		 inc	 eax
  000ca	83 f8 0f	 cmp	 eax, 15			; 0000000fH
  000cd	7c e3		 jl	 SHORT $LL312@LoadInitPr
  000cf	0f 57 c0	 xorps	 xmm0, xmm0
  000d2	51		 push	 ecx
  000d3	8d 45 dc	 lea	 eax, DWORD PTR __k$578215[ebp]
  000d6	f3 0f 11 04 24	 movss	 DWORD PTR [esp], xmm0
  000db	50		 push	 eax
  000dc	8b cf		 mov	 ecx, edi
  000de	ff 15 00 00 00
	00		 call	 DWORD PTR __imp_?LoadFloat@ioINILoader@@QAEMPBDM@Z
  000e4	d9 9e e4 14 00
	00		 fstp	 DWORD PTR [esi+5348]
  000ea	6a 03		 push	 3

; 37   : 
; 38   : 	m_fFollowRange = rkLoader.LoadFloat_e( "follow_range", 0.0f ); 

  000ec	c7 45 dc 8b 83
	87 86		 mov	 DWORD PTR __k$578340[ebp], -2037939317 ; 8687838bH
  000f3	c7 45 e0 82 9b
	b4 98		 mov	 DWORD PTR __k$578340[ebp+4], -1732994174 ; 98b49b82H
  000fa	c7 45 e4 8c 82
	8c 8f		 mov	 DWORD PTR __k$578340[ebp+8], -1886616948 ; 8f8c828cH
  00101	8d 45 dc	 lea	 eax, DWORD PTR __k$578340[ebp]
  00104	88 5d e8	 mov	 BYTE PTR __k$578340[ebp+12], bl
  00107	59		 pop	 ecx
$LL421@LoadInitPr:
  00108	81 30 ed ec eb
	ea		 xor	 DWORD PTR [eax], -353637139 ; eaebecedH
  0010e	83 c0 04	 add	 eax, 4
  00111	49		 dec	 ecx
  00112	75 f4		 jne	 SHORT $LL421@LoadInitPr
  00114	0f 57 c0	 xorps	 xmm0, xmm0
  00117	51		 push	 ecx
  00118	8d 45 dc	 lea	 eax, DWORD PTR __k$578340[ebp]
  0011b	f3 0f 11 04 24	 movss	 DWORD PTR [esp], xmm0
  00120	50		 push	 eax
  00121	8b cf		 mov	 ecx, edi
  00123	ff 15 00 00 00
	00		 call	 DWORD PTR __imp_?LoadFloat@ioINILoader@@QAEMPBDM@Z
  00129	d9 9e e8 14 00
	00		 fstp	 DWORD PTR [esi+5352]
  0012f	6a 02		 push	 2

; 39   : 
; 40   : 	char szBuf[MAX_PATH], szKey[MAX_PATH];
; 41   : 	rkLoader.LoadString_e( "check_buff", "", szBuf, MAX_PATH );

  00131	c7 45 e0 8e 84
	8e 89		 mov	 DWORD PTR __k$578465[ebp], -1987148658 ; 898e848eH
  00138	c7 45 e4 86 b3
	89 9f		 mov	 DWORD PTR __k$578465[ebp+4], -1618365562 ; 9f89b386H
  0013f	66 c7 45 e8 8b
	8a		 mov	 WORD PTR __k$578465[ebp+8], 35467 ; 00008a8bH
  00145	8d 45 e0	 lea	 eax, DWORD PTR __k$578465[ebp]
  00148	88 5d ea	 mov	 BYTE PTR __k$578465[ebp+10], bl
  0014b	59		 pop	 ecx
$LL527@LoadInitPr:
  0014c	81 30 ed ec eb
	ea		 xor	 DWORD PTR [eax], -353637139 ; eaebecedH
  00152	83 c0 04	 add	 eax, 4
  00155	49		 dec	 ecx
  00156	75 f4		 jne	 SHORT $LL527@LoadInitPr
  00158	6a 08		 push	 8
  0015a	58		 pop	 eax
$LL524@LoadInitPr:
  0015b	8b c8		 mov	 ecx, eax
  0015d	81 e1 03 00 00
	80		 and	 ecx, -2147483645	; 80000003H
  00163	79 05		 jns	 SHORT $LN2105@LoadInitPr
  00165	49		 dec	 ecx
  00166	83 c9 fc	 or	 ecx, -4			; fffffffcH
  00169	41		 inc	 ecx
$LN2105@LoadInitPr:
  0016a	b2 ed		 mov	 dl, -19			; ffffffedH
  0016c	2a d1		 sub	 dl, cl
  0016e	30 54 05 e0	 xor	 BYTE PTR __k$578465[ebp+eax], dl
  00172	40		 inc	 eax
  00173	83 f8 0a	 cmp	 eax, 10			; 0000000aH
  00176	7c e3		 jl	 SHORT $LL524@LoadInitPr
  00178	68 04 01 00 00	 push	 260			; 00000104H
  0017d	8d 85 d4 fe ff
	ff		 lea	 eax, DWORD PTR _szBuf$[ebp]
  00183	50		 push	 eax
  00184	68 00 00 00 00	 push	 OFFSET ??_C@_00CNPNBAHC@?$AA@
  00189	8d 45 e0	 lea	 eax, DWORD PTR __k$578465[ebp]
  0018c	50		 push	 eax
  0018d	8b cf		 mov	 ecx, edi
  0018f	ff 15 00 00 00
	00		 call	 DWORD PTR __imp_?LoadStringA@ioINILoader@@QAEXPBD0PADH@Z

; 42   : 	m_szCheckBuff = szBuf;

  00195	8d 85 d4 fe ff
	ff		 lea	 eax, DWORD PTR _szBuf$[ebp]
  0019b	50		 push	 eax
  0019c	8d 8e 8c 14 00
	00		 lea	 ecx, DWORD PTR [esi+5260]
  001a2	ff 15 00 00 00
	00		 call	 DWORD PTR __imp_??4ioHashString@@QAEAAV0@PBD@Z
  001a8	6a 03		 push	 3

; 43   : 
; 44   : 	m_vTargetOffset.x = rkLoader.LoadFloat_e( "target_offset_x", 0.0f );

  001aa	c7 45 dc 99 8d
	99 8d		 mov	 DWORD PTR __k$578603[ebp], -1919316583 ; 8d998d99H
  001b1	c7 45 e0 88 98
	b4 85		 mov	 DWORD PTR __k$578603[ebp+4], -2051762040 ; 85b49888H
  001b8	c7 45 e4 8b 8a
	98 8f		 mov	 DWORD PTR __k$578603[ebp+8], -1885828469 ; 8f988a8bH
  001bf	8d 45 dc	 lea	 eax, DWORD PTR __k$578603[ebp]
  001c2	c7 45 e8 99 b3
	93 00		 mov	 DWORD PTR __k$578603[ebp+12], 9679769 ; 0093b399H
  001c9	59		 pop	 ecx
$LL633@LoadInitPr:
  001ca	81 30 ed ec eb
	ea		 xor	 DWORD PTR [eax], -353637139 ; eaebecedH
  001d0	83 c0 04	 add	 eax, 4
  001d3	49		 dec	 ecx
  001d4	75 f4		 jne	 SHORT $LL633@LoadInitPr
  001d6	6a 0c		 push	 12			; 0000000cH
  001d8	58		 pop	 eax
$LL630@LoadInitPr:
  001d9	8b c8		 mov	 ecx, eax
  001db	81 e1 03 00 00
	80		 and	 ecx, -2147483645	; 80000003H
  001e1	79 05		 jns	 SHORT $LN2106@LoadInitPr
  001e3	49		 dec	 ecx
  001e4	83 c9 fc	 or	 ecx, -4			; fffffffcH
  001e7	41		 inc	 ecx
$LN2106@LoadInitPr:
  001e8	b2 ed		 mov	 dl, -19			; ffffffedH
  001ea	2a d1		 sub	 dl, cl
  001ec	30 54 05 dc	 xor	 BYTE PTR __k$578603[ebp+eax], dl
  001f0	40		 inc	 eax
  001f1	83 f8 0f	 cmp	 eax, 15			; 0000000fH
  001f4	7c e3		 jl	 SHORT $LL630@LoadInitPr
  001f6	0f 57 c0	 xorps	 xmm0, xmm0
  001f9	51		 push	 ecx
  001fa	8d 45 dc	 lea	 eax, DWORD PTR __k$578603[ebp]
  001fd	f3 0f 11 04 24	 movss	 DWORD PTR [esp], xmm0
  00202	50		 push	 eax
  00203	8b cf		 mov	 ecx, edi
  00205	ff 15 00 00 00
	00		 call	 DWORD PTR __imp_?LoadFloat@ioINILoader@@QAEMPBDM@Z
  0020b	d9 9e 80 14 00
	00		 fstp	 DWORD PTR [esi+5248]
  00211	6a 03		 push	 3

; 45   : 	m_vTargetOffset.y = rkLoader.LoadFloat_e( "target_offset_y", 0.0f );

  00213	c7 45 dc 99 8d
	99 8d		 mov	 DWORD PTR __k$578728[ebp], -1919316583 ; 8d998d99H
  0021a	c7 45 e0 88 98
	b4 85		 mov	 DWORD PTR __k$578728[ebp+4], -2051762040 ; 85b49888H
  00221	c7 45 e4 8b 8a
	98 8f		 mov	 DWORD PTR __k$578728[ebp+8], -1885828469 ; 8f988a8bH
  00228	8d 45 dc	 lea	 eax, DWORD PTR __k$578728[ebp]
  0022b	c7 45 e8 99 b3
	92 00		 mov	 DWORD PTR __k$578728[ebp+12], 9614233 ; 0092b399H
  00232	59		 pop	 ecx
$LL739@LoadInitPr:
  00233	81 30 ed ec eb
	ea		 xor	 DWORD PTR [eax], -353637139 ; eaebecedH
  00239	83 c0 04	 add	 eax, 4
  0023c	49		 dec	 ecx
  0023d	75 f4		 jne	 SHORT $LL739@LoadInitPr
  0023f	6a 0c		 push	 12			; 0000000cH
  00241	58		 pop	 eax
$LL736@LoadInitPr:
  00242	8b c8		 mov	 ecx, eax
  00244	81 e1 03 00 00
	80		 and	 ecx, -2147483645	; 80000003H
  0024a	79 05		 jns	 SHORT $LN2107@LoadInitPr
  0024c	49		 dec	 ecx
  0024d	83 c9 fc	 or	 ecx, -4			; fffffffcH
  00250	41		 inc	 ecx
$LN2107@LoadInitPr:
  00251	b2 ed		 mov	 dl, -19			; ffffffedH
  00253	2a d1		 sub	 dl, cl
  00255	30 54 05 dc	 xor	 BYTE PTR __k$578728[ebp+eax], dl
  00259	40		 inc	 eax
  0025a	83 f8 0f	 cmp	 eax, 15			; 0000000fH
  0025d	7c e3		 jl	 SHORT $LL736@LoadInitPr
  0025f	0f 57 c0	 xorps	 xmm0, xmm0
  00262	51		 push	 ecx
  00263	8d 45 dc	 lea	 eax, DWORD PTR __k$578728[ebp]
  00266	f3 0f 11 04 24	 movss	 DWORD PTR [esp], xmm0
  0026b	50		 push	 eax
  0026c	8b cf		 mov	 ecx, edi
  0026e	ff 15 00 00 00
	00		 call	 DWORD PTR __imp_?LoadFloat@ioINILoader@@QAEMPBDM@Z
  00274	d9 9e 84 14 00
	00		 fstp	 DWORD PTR [esi+5252]
  0027a	6a 03		 push	 3

; 46   : 	m_vTargetOffset.z = rkLoader.LoadFloat_e( "target_offset_z", 0.0f );

  0027c	c7 45 dc 99 8d
	99 8d		 mov	 DWORD PTR __k$578853[ebp], -1919316583 ; 8d998d99H
  00283	c7 45 e0 88 98
	b4 85		 mov	 DWORD PTR __k$578853[ebp+4], -2051762040 ; 85b49888H
  0028a	c7 45 e4 8b 8a
	98 8f		 mov	 DWORD PTR __k$578853[ebp+8], -1885828469 ; 8f988a8bH
  00291	8d 45 dc	 lea	 eax, DWORD PTR __k$578853[ebp]
  00294	c7 45 e8 99 b3
	91 00		 mov	 DWORD PTR __k$578853[ebp+12], 9548697 ; 0091b399H
  0029b	59		 pop	 ecx
$LL845@LoadInitPr:
  0029c	81 30 ed ec eb
	ea		 xor	 DWORD PTR [eax], -353637139 ; eaebecedH
  002a2	83 c0 04	 add	 eax, 4
  002a5	49		 dec	 ecx
  002a6	75 f4		 jne	 SHORT $LL845@LoadInitPr
  002a8	6a 0c		 push	 12			; 0000000cH
  002aa	58		 pop	 eax
$LL842@LoadInitPr:
  002ab	8b c8		 mov	 ecx, eax
  002ad	81 e1 03 00 00
	80		 and	 ecx, -2147483645	; 80000003H
  002b3	79 05		 jns	 SHORT $LN2108@LoadInitPr
  002b5	49		 dec	 ecx
  002b6	83 c9 fc	 or	 ecx, -4			; fffffffcH
  002b9	41		 inc	 ecx
$LN2108@LoadInitPr:
  002ba	b2 ed		 mov	 dl, -19			; ffffffedH
  002bc	2a d1		 sub	 dl, cl
  002be	30 54 05 dc	 xor	 BYTE PTR __k$578853[ebp+eax], dl
  002c2	40		 inc	 eax
  002c3	83 f8 0f	 cmp	 eax, 15			; 0000000fH
  002c6	7c e3		 jl	 SHORT $LL842@LoadInitPr
  002c8	0f 57 c0	 xorps	 xmm0, xmm0
  002cb	51		 push	 ecx
  002cc	8d 45 dc	 lea	 eax, DWORD PTR __k$578853[ebp]
  002cf	f3 0f 11 04 24	 movss	 DWORD PTR [esp], xmm0
  002d4	50		 push	 eax
  002d5	8b cf		 mov	 ecx, edi
  002d7	ff 15 00 00 00
	00		 call	 DWORD PTR __imp_?LoadFloat@ioINILoader@@QAEMPBDM@Z
  002dd	d9 9e 88 14 00
	00		 fstp	 DWORD PTR [esi+5256]
  002e3	6a 03		 push	 3

; 47   : 
; 48   : 	m_vWeaponOffset.x = rkLoader.LoadFloat_e( "weapon_offset_x", 0.0f );

  002e5	c7 45 dc 9a 89
	8a 9a		 mov	 DWORD PTR __k$578965[ebp], -1702196838 ; 9a8a899aH
  002ec	c7 45 e0 82 82
	b4 85		 mov	 DWORD PTR __k$578965[ebp+4], -2051767678 ; 85b48282H
  002f3	c7 45 e4 8b 8a
	98 8f		 mov	 DWORD PTR __k$578965[ebp+8], -1885828469 ; 8f988a8bH
  002fa	8d 45 dc	 lea	 eax, DWORD PTR __k$578965[ebp]
  002fd	c7 45 e8 99 b3
	93 00		 mov	 DWORD PTR __k$578965[ebp+12], 9679769 ; 0093b399H
  00304	59		 pop	 ecx
$LL951@LoadInitPr:
  00305	81 30 ed ec eb
	ea		 xor	 DWORD PTR [eax], -353637139 ; eaebecedH
  0030b	83 c0 04	 add	 eax, 4
  0030e	49		 dec	 ecx
  0030f	75 f4		 jne	 SHORT $LL951@LoadInitPr
  00311	6a 0c		 push	 12			; 0000000cH
  00313	58		 pop	 eax
$LL948@LoadInitPr:
  00314	8b c8		 mov	 ecx, eax
  00316	81 e1 03 00 00
	80		 and	 ecx, -2147483645	; 80000003H
  0031c	79 05		 jns	 SHORT $LN2109@LoadInitPr
  0031e	49		 dec	 ecx
  0031f	83 c9 fc	 or	 ecx, -4			; fffffffcH
  00322	41		 inc	 ecx
$LN2109@LoadInitPr:
  00323	b2 ed		 mov	 dl, -19			; ffffffedH
  00325	2a d1		 sub	 dl, cl
  00327	30 54 05 dc	 xor	 BYTE PTR __k$578965[ebp+eax], dl
  0032b	40		 inc	 eax
  0032c	83 f8 0f	 cmp	 eax, 15			; 0000000fH
  0032f	7c e3		 jl	 SHORT $LL948@LoadInitPr
  00331	0f 57 c0	 xorps	 xmm0, xmm0
  00334	51		 push	 ecx
  00335	8d 45 dc	 lea	 eax, DWORD PTR __k$578965[ebp]
  00338	f3 0f 11 04 24	 movss	 DWORD PTR [esp], xmm0
  0033d	50		 push	 eax
  0033e	8b cf		 mov	 ecx, edi
  00340	ff 15 00 00 00
	00		 call	 DWORD PTR __imp_?LoadFloat@ioINILoader@@QAEMPBDM@Z
  00346	d9 9e c4 14 00
	00		 fstp	 DWORD PTR [esi+5316]
  0034c	6a 03		 push	 3

; 49   : 	m_vWeaponOffset.y = rkLoader.LoadFloat_e( "weapon_offset_y", 0.0f );

  0034e	c7 45 dc 9a 89
	8a 9a		 mov	 DWORD PTR __k$579090[ebp], -1702196838 ; 9a8a899aH
  00355	c7 45 e0 82 82
	b4 85		 mov	 DWORD PTR __k$579090[ebp+4], -2051767678 ; 85b48282H
  0035c	c7 45 e4 8b 8a
	98 8f		 mov	 DWORD PTR __k$579090[ebp+8], -1885828469 ; 8f988a8bH
  00363	8d 45 dc	 lea	 eax, DWORD PTR __k$579090[ebp]
  00366	c7 45 e8 99 b3
	92 00		 mov	 DWORD PTR __k$579090[ebp+12], 9614233 ; 0092b399H
  0036d	59		 pop	 ecx
$LL1057@LoadInitPr:
  0036e	81 30 ed ec eb
	ea		 xor	 DWORD PTR [eax], -353637139 ; eaebecedH
  00374	83 c0 04	 add	 eax, 4
  00377	49		 dec	 ecx
  00378	75 f4		 jne	 SHORT $LL1057@LoadInitPr
  0037a	6a 0c		 push	 12			; 0000000cH
  0037c	58		 pop	 eax
$LL1054@LoadInitPr:
  0037d	8b c8		 mov	 ecx, eax
  0037f	81 e1 03 00 00
	80		 and	 ecx, -2147483645	; 80000003H
  00385	79 05		 jns	 SHORT $LN2110@LoadInitPr
  00387	49		 dec	 ecx
  00388	83 c9 fc	 or	 ecx, -4			; fffffffcH
  0038b	41		 inc	 ecx
$LN2110@LoadInitPr:
  0038c	b2 ed		 mov	 dl, -19			; ffffffedH
  0038e	2a d1		 sub	 dl, cl
  00390	30 54 05 dc	 xor	 BYTE PTR __k$579090[ebp+eax], dl
  00394	40		 inc	 eax
  00395	83 f8 0f	 cmp	 eax, 15			; 0000000fH
  00398	7c e3		 jl	 SHORT $LL1054@LoadInitPr
  0039a	0f 57 c0	 xorps	 xmm0, xmm0
  0039d	51		 push	 ecx
  0039e	8d 45 dc	 lea	 eax, DWORD PTR __k$579090[ebp]
  003a1	f3 0f 11 04 24	 movss	 DWORD PTR [esp], xmm0
  003a6	50		 push	 eax
  003a7	8b cf		 mov	 ecx, edi
  003a9	ff 15 00 00 00
	00		 call	 DWORD PTR __imp_?LoadFloat@ioINILoader@@QAEMPBDM@Z
  003af	d9 9e c8 14 00
	00		 fstp	 DWORD PTR [esi+5320]
  003b5	6a 03		 push	 3

; 50   : 	m_vWeaponOffset.z = rkLoader.LoadFloat_e( "weapon_offset_z", 0.0f );

  003b7	c7 45 dc 9a 89
	8a 9a		 mov	 DWORD PTR __k$579215[ebp], -1702196838 ; 9a8a899aH
  003be	c7 45 e0 82 82
	b4 85		 mov	 DWORD PTR __k$579215[ebp+4], -2051767678 ; 85b48282H
  003c5	c7 45 e4 8b 8a
	98 8f		 mov	 DWORD PTR __k$579215[ebp+8], -1885828469 ; 8f988a8bH
  003cc	8d 45 dc	 lea	 eax, DWORD PTR __k$579215[ebp]
  003cf	c7 45 e8 99 b3
	91 00		 mov	 DWORD PTR __k$579215[ebp+12], 9548697 ; 0091b399H
  003d6	59		 pop	 ecx
$LL1163@LoadInitPr:
  003d7	81 30 ed ec eb
	ea		 xor	 DWORD PTR [eax], -353637139 ; eaebecedH
  003dd	83 c0 04	 add	 eax, 4
  003e0	49		 dec	 ecx
  003e1	75 f4		 jne	 SHORT $LL1163@LoadInitPr
  003e3	6a 0c		 push	 12			; 0000000cH
  003e5	58		 pop	 eax
$LL1160@LoadInitPr:
  003e6	8b c8		 mov	 ecx, eax
  003e8	81 e1 03 00 00
	80		 and	 ecx, -2147483645	; 80000003H
  003ee	79 05		 jns	 SHORT $LN2111@LoadInitPr
  003f0	49		 dec	 ecx
  003f1	83 c9 fc	 or	 ecx, -4			; fffffffcH
  003f4	41		 inc	 ecx
$LN2111@LoadInitPr:
  003f5	b2 ed		 mov	 dl, -19			; ffffffedH
  003f7	2a d1		 sub	 dl, cl
  003f9	30 54 05 dc	 xor	 BYTE PTR __k$579215[ebp+eax], dl
  003fd	40		 inc	 eax
  003fe	83 f8 0f	 cmp	 eax, 15			; 0000000fH
  00401	7c e3		 jl	 SHORT $LL1160@LoadInitPr
  00403	0f 57 c0	 xorps	 xmm0, xmm0
  00406	51		 push	 ecx
  00407	8d 45 dc	 lea	 eax, DWORD PTR __k$579215[ebp]
  0040a	f3 0f 11 04 24	 movss	 DWORD PTR [esp], xmm0
  0040f	50		 push	 eax
  00410	8b cf		 mov	 ecx, edi
  00412	ff 15 00 00 00
	00		 call	 DWORD PTR __imp_?LoadFloat@ioINILoader@@QAEMPBDM@Z
  00418	d9 9e cc 14 00
	00		 fstp	 DWORD PTR [esi+5324]
  0041e	6a 04		 push	 4

; 51   : 
; 52   : 	rkLoader.LoadString_e( "attack_animation", "", szBuf, MAX_PATH );

  00420	c7 45 d8 8c 98
	9f 8b		 mov	 DWORD PTR __k$579340[ebp], -1952474996 ; 8b9f988cH
  00427	c7 45 dc 8e 87
	b4 8b		 mov	 DWORD PTR __k$579340[ebp+4], -1951103090 ; 8bb4878eH
  0042e	c7 45 e0 83 85
	86 8b		 mov	 DWORD PTR __k$579340[ebp+8], -1954118269 ; 8b868583H
  00435	c7 45 e4 99 85
	84 84		 mov	 DWORD PTR __k$579340[ebp+12], -2071689831 ; 84848599H
  0043c	8d 45 d8	 lea	 eax, DWORD PTR __k$579340[ebp]
  0043f	88 5d e8	 mov	 BYTE PTR __k$579340[ebp+16], bl
  00442	59		 pop	 ecx
$LL1269@LoadInitPr:
  00443	81 30 ed ec eb
	ea		 xor	 DWORD PTR [eax], -353637139 ; eaebecedH
  00449	83 c0 04	 add	 eax, 4
  0044c	49		 dec	 ecx
  0044d	75 f4		 jne	 SHORT $LL1269@LoadInitPr
  0044f	68 04 01 00 00	 push	 260			; 00000104H
  00454	8d 85 d4 fe ff
	ff		 lea	 eax, DWORD PTR _szBuf$[ebp]
  0045a	50		 push	 eax
  0045b	68 00 00 00 00	 push	 OFFSET ??_C@_00CNPNBAHC@?$AA@
  00460	8d 45 d8	 lea	 eax, DWORD PTR __k$579340[ebp]
  00463	50		 push	 eax
  00464	8b cf		 mov	 ecx, edi
  00466	ff 15 00 00 00
	00		 call	 DWORD PTR __imp_?LoadStringA@ioINILoader@@QAEXPBD0PADH@Z

; 53   : 	m_szAttackAnimation = szBuf;

  0046c	8d 85 d4 fe ff
	ff		 lea	 eax, DWORD PTR _szBuf$[ebp]
  00472	50		 push	 eax
  00473	8d 8e 9c 14 00
	00		 lea	 ecx, DWORD PTR [esi+5276]
  00479	ff 15 00 00 00
	00		 call	 DWORD PTR __imp_??4ioHashString@@QAEAAV0@PBD@Z

; 54   : 
; 55   : 	m_fAttackAniRate = rkLoader.LoadFloat_e( "attack_ani_rate", FLOAT1 );	

  0047f	b8 01 00 00 00	 mov	 eax, 1
  00484	6a 03		 push	 3
  00486	c7 45 dc 8c 98
	9f 8b		 mov	 DWORD PTR __k$579469[ebp], -1952474996 ; 8b9f988cH
  0048d	c7 45 e0 8e 87
	b4 8b		 mov	 DWORD PTR __k$579469[ebp+4], -1951103090 ; 8bb4878eH
  00494	c7 45 e4 83 85
	b4 98		 mov	 DWORD PTR __k$579469[ebp+8], -1732999805 ; 98b48583H
  0049b	8d 4d dc	 lea	 ecx, DWORD PTR __k$579469[ebp]
  0049e	c7 45 e8 8c 98
	8e 00		 mov	 DWORD PTR __k$579469[ebp+12], 9345164 ; 008e988cH
  004a5	5a		 pop	 edx
$LL1377@LoadInitPr:
  004a6	81 31 ed ec eb
	ea		 xor	 DWORD PTR [ecx], -353637139 ; eaebecedH
  004ac	83 c1 04	 add	 ecx, 4
  004af	4a		 dec	 edx
  004b0	75 f4		 jne	 SHORT $LL1377@LoadInitPr
  004b2	c7 85 cc fd ff
	ff 0c 00 00 00	 mov	 DWORD PTR _i$579569[ebp], 12 ; 0000000cH
$LL1374@LoadInitPr:
  004bc	8b 8d cc fd ff
	ff		 mov	 ecx, DWORD PTR _i$579569[ebp]
  004c2	81 e1 03 00 00
	80		 and	 ecx, -2147483645	; 80000003H
  004c8	79 05		 jns	 SHORT $LN2112@LoadInitPr
  004ca	49		 dec	 ecx
  004cb	83 c9 fc	 or	 ecx, -4			; fffffffcH
  004ce	41		 inc	 ecx
$LN2112@LoadInitPr:
  004cf	b2 ed		 mov	 dl, -19			; ffffffedH
  004d1	2a d1		 sub	 dl, cl
  004d3	8b 8d cc fd ff
	ff		 mov	 ecx, DWORD PTR _i$579569[ebp]
  004d9	30 54 0d dc	 xor	 BYTE PTR __k$579469[ebp+ecx], dl
  004dd	ff 85 cc fd ff
	ff		 inc	 DWORD PTR _i$579569[ebp]
  004e3	83 bd cc fd ff
	ff 0f		 cmp	 DWORD PTR _i$579569[ebp], 15 ; 0000000fH
  004ea	7c d0		 jl	 SHORT $LL1374@LoadInitPr
  004ec	89 85 c8 fd ff
	ff		 mov	 DWORD PTR tv17110[ebp], eax
  004f2	db 85 c8 fd ff
	ff		 fild	 DWORD PTR tv17110[ebp]
  004f8	85 c0		 test	 eax, eax
  004fa	79 06		 jns	 SHORT $LN2113@LoadInitPr
  004fc	d8 05 00 00 00
	00		 fadd	 DWORD PTR __real@4f800000
$LN2113@LoadInitPr:
  00502	51		 push	 ecx
  00503	8d 45 dc	 lea	 eax, DWORD PTR __k$579469[ebp]
  00506	d9 1c 24	 fstp	 DWORD PTR [esp]
  00509	50		 push	 eax
  0050a	8b cf		 mov	 ecx, edi
  0050c	ff 15 00 00 00
	00		 call	 DWORD PTR __imp_?LoadFloat@ioINILoader@@QAEMPBDM@Z
  00512	d9 9e ac 14 00
	00		 fstp	 DWORD PTR [esi+5292]
  00518	6a 03		 push	 3

; 56   : 
; 57   : 	m_bSetDownAim = rkLoader.LoadBool_e( "set_down_target", false );

  0051a	c7 45 dc 9e 89
	9f b5		 mov	 DWORD PTR __k$579616[ebp], -1247835746 ; b59f899eH
  00521	c7 45 e0 89 83
	9c 84		 mov	 DWORD PTR __k$579616[ebp+4], -2070117495 ; 849c8389H
  00528	c7 45 e4 b2 98
	8a 98		 mov	 DWORD PTR __k$579616[ebp+8], -1735747406 ; 988a98b2H
  0052f	8d 45 dc	 lea	 eax, DWORD PTR __k$579616[ebp]
  00532	c7 45 e8 8a 89
	9f 00		 mov	 DWORD PTR __k$579616[ebp+12], 10455434 ; 009f898aH
  00539	59		 pop	 ecx
$LL1483@LoadInitPr:
  0053a	81 30 ed ec eb
	ea		 xor	 DWORD PTR [eax], -353637139 ; eaebecedH
  00540	83 c0 04	 add	 eax, 4
  00543	49		 dec	 ecx
  00544	75 f4		 jne	 SHORT $LL1483@LoadInitPr
  00546	6a 0c		 push	 12			; 0000000cH
  00548	58		 pop	 eax
$LL1480@LoadInitPr:
  00549	8b c8		 mov	 ecx, eax
  0054b	81 e1 03 00 00
	80		 and	 ecx, -2147483645	; 80000003H
  00551	79 05		 jns	 SHORT $LN2114@LoadInitPr
  00553	49		 dec	 ecx
  00554	83 c9 fc	 or	 ecx, -4			; fffffffcH
  00557	41		 inc	 ecx
$LN2114@LoadInitPr:
  00558	b2 ed		 mov	 dl, -19			; ffffffedH
  0055a	2a d1		 sub	 dl, cl
  0055c	30 54 05 dc	 xor	 BYTE PTR __k$579616[ebp+eax], dl
  00560	40		 inc	 eax
  00561	83 f8 0f	 cmp	 eax, 15			; 0000000fH
  00564	7c e3		 jl	 SHORT $LL1480@LoadInitPr
  00566	53		 push	 ebx
  00567	8d 45 dc	 lea	 eax, DWORD PTR __k$579616[ebp]
  0056a	50		 push	 eax
  0056b	8b cf		 mov	 ecx, edi
  0056d	ff 15 00 00 00
	00		 call	 DWORD PTR __imp_?LoadBool@ioINILoader@@QAE_NPBD_N@Z
  00573	6a 03		 push	 3
  00575	88 86 b0 14 00
	00		 mov	 BYTE PTR [esi+5296], al

; 58   : 
; 59   : 	// 
; 60   : 	m_fColAngle = rkLoader.LoadFloat_e( "target_angle", 0.0f );

  0057b	c7 45 dc 99 8d
	99 8d		 mov	 DWORD PTR __k$579732[ebp], -1919316583 ; 8d998d99H
  00582	c7 45 e0 88 98
	b4 8b		 mov	 DWORD PTR __k$579732[ebp+4], -1951098744 ; 8bb49888H
  00589	c7 45 e4 83 8b
	87 8f		 mov	 DWORD PTR __k$579732[ebp+8], -1886942333 ; 8f878b83H
  00590	8d 45 dc	 lea	 eax, DWORD PTR __k$579732[ebp]
  00593	88 5d e8	 mov	 BYTE PTR __k$579732[ebp+12], bl
  00596	59		 pop	 ecx
$LL1589@LoadInitPr:
  00597	81 30 ed ec eb
	ea		 xor	 DWORD PTR [eax], -353637139 ; eaebecedH
  0059d	83 c0 04	 add	 eax, 4
  005a0	49		 dec	 ecx
  005a1	75 f4		 jne	 SHORT $LL1589@LoadInitPr
  005a3	0f 57 c0	 xorps	 xmm0, xmm0
  005a6	51		 push	 ecx
  005a7	8d 45 dc	 lea	 eax, DWORD PTR __k$579732[ebp]
  005aa	f3 0f 11 04 24	 movss	 DWORD PTR [esp], xmm0
  005af	50		 push	 eax
  005b0	8b cf		 mov	 ecx, edi
  005b2	ff 15 00 00 00
	00		 call	 DWORD PTR __imp_?LoadFloat@ioINILoader@@QAEMPBDM@Z
  005b8	d9 9e b8 14 00
	00		 fstp	 DWORD PTR [esi+5304]
  005be	6a 03		 push	 3

; 61   : 	m_fColRange = rkLoader.LoadFloat_e( "target_range", 0.0f );

  005c0	c7 45 dc 99 8d
	99 8d		 mov	 DWORD PTR __k$579857[ebp], -1919316583 ; 8d998d99H
  005c7	c7 45 e0 88 98
	b4 98		 mov	 DWORD PTR __k$579857[ebp+4], -1732994936 ; 98b49888H
  005ce	c7 45 e4 8c 82
	8c 8f		 mov	 DWORD PTR __k$579857[ebp+8], -1886616948 ; 8f8c828cH
  005d5	8d 45 dc	 lea	 eax, DWORD PTR __k$579857[ebp]
  005d8	88 5d e8	 mov	 BYTE PTR __k$579857[ebp+12], bl
  005db	59		 pop	 ecx
$LL1695@LoadInitPr:
  005dc	81 30 ed ec eb
	ea		 xor	 DWORD PTR [eax], -353637139 ; eaebecedH
  005e2	83 c0 04	 add	 eax, 4
  005e5	49		 dec	 ecx
  005e6	75 f4		 jne	 SHORT $LL1695@LoadInitPr
  005e8	0f 57 c0	 xorps	 xmm0, xmm0
  005eb	51		 push	 ecx
  005ec	8d 45 dc	 lea	 eax, DWORD PTR __k$579857[ebp]
  005ef	f3 0f 11 04 24	 movss	 DWORD PTR [esp], xmm0
  005f4	50		 push	 eax
  005f5	8b cf		 mov	 ecx, edi
  005f7	ff 15 00 00 00
	00		 call	 DWORD PTR __imp_?LoadFloat@ioINILoader@@QAEMPBDM@Z
  005fd	d9 9e b4 14 00
	00		 fstp	 DWORD PTR [esi+5300]
  00603	6a 04		 push	 4

; 62   : 	
; 63   : 	m_dwRefreshTime = rkLoader.LoadInt_e( "search_refresh_time", 0 );

  00605	c7 45 d8 9e 89
	8a 98		 mov	 DWORD PTR __k$579969[ebp], -1735751266 ; 988a899eH
  0060c	c7 45 dc 8e 84
	b4 98		 mov	 DWORD PTR __k$579969[ebp+4], -1733000050 ; 98b4848eH
  00613	c7 45 e0 88 8a
	99 8f		 mov	 DWORD PTR __k$579969[ebp+8], -1885762936 ; 8f998a88H
  0061a	c7 45 e4 9e 84
	b4 9e		 mov	 DWORD PTR __k$579969[ebp+12], -1632336738 ; 9eb4849eH
  00621	8d 45 d8	 lea	 eax, DWORD PTR __k$579969[ebp]
  00624	c7 45 e8 84 81
	8e 00		 mov	 DWORD PTR __k$579969[ebp+16], 9339268 ; 008e8184H
  0062b	59		 pop	 ecx
$LL1801@LoadInitPr:
  0062c	81 30 ed ec eb
	ea		 xor	 DWORD PTR [eax], -353637139 ; eaebecedH
  00632	83 c0 04	 add	 eax, 4
  00635	49		 dec	 ecx
  00636	75 f4		 jne	 SHORT $LL1801@LoadInitPr
  00638	6a 10		 push	 16			; 00000010H
  0063a	58		 pop	 eax
$LL1798@LoadInitPr:
  0063b	8b c8		 mov	 ecx, eax
  0063d	81 e1 03 00 00
	80		 and	 ecx, -2147483645	; 80000003H
  00643	79 05		 jns	 SHORT $LN2115@LoadInitPr
  00645	49		 dec	 ecx
  00646	83 c9 fc	 or	 ecx, -4			; fffffffcH
  00649	41		 inc	 ecx
$LN2115@LoadInitPr:
  0064a	b2 ed		 mov	 dl, -19			; ffffffedH
  0064c	2a d1		 sub	 dl, cl
  0064e	30 54 05 d8	 xor	 BYTE PTR __k$579969[ebp+eax], dl
  00652	40		 inc	 eax
  00653	83 f8 13	 cmp	 eax, 19			; 00000013H
  00656	7c e3		 jl	 SHORT $LL1798@LoadInitPr
  00658	53		 push	 ebx
  00659	8d 45 d8	 lea	 eax, DWORD PTR __k$579969[ebp]
  0065c	50		 push	 eax
  0065d	8b cf		 mov	 ecx, edi
  0065f	ff 15 00 00 00
	00		 call	 DWORD PTR __imp_?LoadInt@ioINILoader@@QAEHPBDH@Z
  00665	6a 04		 push	 4
  00667	89 86 bc 14 00
	00		 mov	 DWORD PTR [esi+5308], eax

; 64   : 
; 65   : 	m_nAttackWeaponNum = rkLoader.LoadInt_e( "attack_weapon_num", NO_WEAPON_ATTRIBUTE );

  0066d	c7 45 d8 8c 98
	9f 8b		 mov	 DWORD PTR __k$580094[ebp], -1952474996 ; 8b9f988cH
  00674	c7 45 dc 8e 87
	b4 9d		 mov	 DWORD PTR __k$580094[ebp+4], -1649113202 ; 9db4878eH
  0067b	c7 45 e0 88 8d
	9b 85		 mov	 DWORD PTR __k$580094[ebp+8], -2053403256 ; 859b8d88H
  00682	c7 45 e4 83 b3
	85 9f		 mov	 DWORD PTR __k$580094[ebp+12], -1618627709 ; 9f85b383H
  00689	8d 45 d8	 lea	 eax, DWORD PTR __k$580094[ebp]
  0068c	66 c7 45 e8 80
	00		 mov	 WORD PTR __k$580094[ebp+16], 128 ; 00000080H
  00692	59		 pop	 ecx
$LL1907@LoadInitPr:
  00693	81 30 ed ec eb
	ea		 xor	 DWORD PTR [eax], -353637139 ; eaebecedH
  00699	83 c0 04	 add	 eax, 4
  0069c	49		 dec	 ecx
  0069d	75 f4		 jne	 SHORT $LL1907@LoadInitPr
  0069f	80 75 e8 ed	 xor	 BYTE PTR __k$580094[ebp+16], -19 ; ffffffedH
  006a3	53		 push	 ebx
  006a4	8d 45 d8	 lea	 eax, DWORD PTR __k$580094[ebp]
  006a7	50		 push	 eax
  006a8	8b cf		 mov	 ecx, edi
  006aa	ff 15 00 00 00
	00		 call	 DWORD PTR __imp_?LoadInt@ioINILoader@@QAEHPBDH@Z
  006b0	6a 03		 push	 3
  006b2	89 86 c0 14 00
	00		 mov	 DWORD PTR [esi+5312], eax

; 66   : 
; 67   : 	int nBuffCnt = rkLoader.LoadInt_e( "check_buff_cnt", 0 );

  006b8	c7 45 dc 8e 84
	8e 89		 mov	 DWORD PTR __k$580219[ebp], -1987148658 ; 898e848eH
  006bf	c7 45 e0 86 b3
	89 9f		 mov	 DWORD PTR __k$580219[ebp+4], -1618365562 ; 9f89b386H
  006c6	c7 45 e4 8b 8a
	b4 89		 mov	 DWORD PTR __k$580219[ebp+8], -1984656757 ; 89b48a8bH
  006cd	66 c7 45 e8 83
	98		 mov	 WORD PTR __k$580219[ebp+12], 39043 ; 00009883H
  006d3	8d 45 dc	 lea	 eax, DWORD PTR __k$580219[ebp]
  006d6	88 5d ea	 mov	 BYTE PTR __k$580219[ebp+14], bl
  006d9	59		 pop	 ecx
$LL2013@LoadInitPr:
  006da	81 30 ed ec eb
	ea		 xor	 DWORD PTR [eax], -353637139 ; eaebecedH
  006e0	83 c0 04	 add	 eax, 4
  006e3	49		 dec	 ecx
  006e4	75 f4		 jne	 SHORT $LL2013@LoadInitPr
  006e6	6a 0c		 push	 12			; 0000000cH
  006e8	58		 pop	 eax
$LL2010@LoadInitPr:
  006e9	8b c8		 mov	 ecx, eax
  006eb	81 e1 03 00 00
	80		 and	 ecx, -2147483645	; 80000003H
  006f1	79 05		 jns	 SHORT $LN2116@LoadInitPr
  006f3	49		 dec	 ecx
  006f4	83 c9 fc	 or	 ecx, -4			; fffffffcH
  006f7	41		 inc	 ecx
$LN2116@LoadInitPr:
  006f8	b2 ed		 mov	 dl, -19			; ffffffedH
  006fa	2a d1		 sub	 dl, cl
  006fc	30 54 05 dc	 xor	 BYTE PTR __k$580219[ebp+eax], dl
  00700	40		 inc	 eax
  00701	83 f8 0e	 cmp	 eax, 14			; 0000000eH
  00704	7c e3		 jl	 SHORT $LL2010@LoadInitPr
  00706	53		 push	 ebx
  00707	8d 45 dc	 lea	 eax, DWORD PTR __k$580219[ebp]
  0070a	50		 push	 eax
  0070b	8b cf		 mov	 ecx, edi
  0070d	ff 15 00 00 00
	00		 call	 DWORD PTR __imp_?LoadInt@ioINILoader@@QAEHPBDH@Z

; 68   : 	m_vCheckBuffList.clear();

  00713	81 c6 d0 14 00
	00		 add	 esi, 5328		; 000014d0H
  00719	8b ce		 mov	 ecx, esi
  0071b	89 85 cc fd ff
	ff		 mov	 DWORD PTR _nBuffCnt$[ebp], eax
  00721	89 b5 c8 fd ff
	ff		 mov	 DWORD PTR tv14605[ebp], esi
  00727	e8 00 00 00 00	 call	 ?clear@?$vector@VioHashString@@V?$allocator@VioHashString@@@std@@@std@@QAEXXZ ; std::vector<ioHashString,std::allocator<ioHashString> >::clear

; 69   : 	m_vCheckBuffList.reserve( nBuffCnt );

  0072c	ff b5 cc fd ff
	ff		 push	 DWORD PTR _nBuffCnt$[ebp]
  00732	8b ce		 mov	 ecx, esi
  00734	e8 00 00 00 00	 call	 ?reserve@?$vector@VioHashString@@V?$allocator@VioHashString@@@std@@@std@@QAEXI@Z ; std::vector<ioHashString,std::allocator<ioHashString> >::reserve

; 70   : 	for( int i=0; i < nBuffCnt; ++i )

  00739	33 f6		 xor	 esi, esi
  0073b	39 9d cc fd ff
	ff		 cmp	 DWORD PTR _nBuffCnt$[ebp], ebx
  00741	0f 8e b2 00 00
	00		 jle	 $LN100@LoadInitPr
$LL102@LoadInitPr:

; 66   : 
; 67   : 	int nBuffCnt = rkLoader.LoadInt_e( "check_buff_cnt", 0 );

  00747	6a 04		 push	 4

; 71   : 	{
; 72   : 		wsprintf_e( szKey, "check_buff_name%d", i+1 );

  00749	c7 45 d8 8e 84
	8e 89		 mov	 DWORD PTR ___encStr$568251[ebp], -1987148658 ; 898e848eH
  00750	c7 45 dc 86 b3
	89 9f		 mov	 DWORD PTR ___encStr$568251[ebp+4], -1618365562 ; 9f89b386H
  00757	c7 45 e0 8b 8a
	b4 84		 mov	 DWORD PTR ___encStr$568251[ebp+8], -2068542837 ; 84b48a8bH
  0075e	c7 45 e4 8c 81
	8e cf		 mov	 DWORD PTR ___encStr$568251[ebp+12], -812744308 ; cf8e818cH
  00765	8d 45 d8	 lea	 eax, DWORD PTR ___encStr$568251[ebp]
  00768	66 c7 45 e8 89
	00		 mov	 WORD PTR ___encStr$568251[ebp+16], 137 ; 00000089H
  0076e	59		 pop	 ecx
$LL2021@LoadInitPr:
  0076f	81 30 ed ec eb
	ea		 xor	 DWORD PTR [eax], -353637139 ; eaebecedH
  00775	83 c0 04	 add	 eax, 4
  00778	49		 dec	 ecx
  00779	75 f4		 jne	 SHORT $LL2021@LoadInitPr
  0077b	80 75 e8 ed	 xor	 BYTE PTR ___encStr$568251[ebp+16], -19 ; ffffffedH
  0077f	46		 inc	 esi
  00780	56		 push	 esi
  00781	8d 45 d8	 lea	 eax, DWORD PTR ___encStr$568251[ebp]
  00784	50		 push	 eax
  00785	8d 85 d0 fd ff
	ff		 lea	 eax, DWORD PTR _szKey$[ebp]
  0078b	50		 push	 eax
  0078c	ff 15 00 00 00
	00		 call	 DWORD PTR __imp__wsprintfA
  00792	83 c4 0c	 add	 esp, 12			; 0000000cH

; 73   : 		rkLoader.LoadString( szKey, "", szBuf, MAX_PATH );

  00795	68 04 01 00 00	 push	 260			; 00000104H
  0079a	8d 85 d4 fe ff
	ff		 lea	 eax, DWORD PTR _szBuf$[ebp]
  007a0	50		 push	 eax
  007a1	68 00 00 00 00	 push	 OFFSET ??_C@_00CNPNBAHC@?$AA@
  007a6	8d 85 d0 fd ff
	ff		 lea	 eax, DWORD PTR _szKey$[ebp]
  007ac	50		 push	 eax
  007ad	8b cf		 mov	 ecx, edi
  007af	ff 15 00 00 00
	00		 call	 DWORD PTR __imp_?LoadStringA@ioINILoader@@QAEXPBD0PADH@Z

; 74   : 		m_vCheckBuffList.push_back( szBuf );

  007b5	8d 85 d4 fe ff
	ff		 lea	 eax, DWORD PTR _szBuf$[ebp]
  007bb	50		 push	 eax
  007bc	8d 8d b8 fd ff
	ff		 lea	 ecx, DWORD PTR $T578073[ebp]
  007c2	ff 15 00 00 00
	00		 call	 DWORD PTR __imp_??0ioHashString@@QAE@PBD@Z
  007c8	8b 8d c8 fd ff
	ff		 mov	 ecx, DWORD PTR tv14605[ebp]
  007ce	8d 85 b8 fd ff
	ff		 lea	 eax, DWORD PTR $T578073[ebp]
  007d4	50		 push	 eax
  007d5	89 5d fc	 mov	 DWORD PTR __$EHRec$[ebp+8], ebx
  007d8	e8 00 00 00 00	 call	 ?push_back@?$vector@VioHashString@@V?$allocator@VioHashString@@@std@@@std@@QAEXABVioHashString@@@Z ; std::vector<ioHashString,std::allocator<ioHashString> >::push_back
  007dd	83 4d fc ff	 or	 DWORD PTR __$EHRec$[ebp+8], -1
  007e1	8d 8d b8 fd ff
	ff		 lea	 ecx, DWORD PTR $T578073[ebp]
  007e7	ff 15 00 00 00
	00		 call	 DWORD PTR __imp_??1ioHashString@@QAE@XZ
  007ed	3b b5 cc fd ff
	ff		 cmp	 esi, DWORD PTR _nBuffCnt$[ebp]
  007f3	0f 8c 4e ff ff
	ff		 jl	 $LL102@LoadInitPr
$LN100@LoadInitPr:

; 75   : 	}
; 76   : }

  007f9	e8 00 00 00 00	 call	 __EH_epilog3_GS
  007fe	c2 04 00	 ret	 4
_TEXT	ENDS
;	COMDAT text$x
text$x	SEGMENT
__unwindfunclet$?LoadInitProperty@ioOwnerAttach5Dummy@@IAEXAAVioINILoader@@@Z$0:
  00000	8d 8d b8 fd ff
	ff		 lea	 ecx, DWORD PTR $T578073[ebp]
  00006	ff 25 00 00 00
	00		 jmp	 DWORD PTR __imp_??1ioHashString@@QAE@XZ
__ehhandler$?LoadInitProperty@ioOwnerAttach5Dummy@@IAEXAAVioINILoader@@@Z:
  0000c	8b 54 24 08	 mov	 edx, DWORD PTR [esp+8]
  00010	8d 42 0c	 lea	 eax, DWORD PTR [edx+12]
  00013	8b 8a b4 fd ff
	ff		 mov	 ecx, DWORD PTR [edx-588]
  00019	33 c8		 xor	 ecx, eax
  0001b	e8 00 00 00 00	 call	 @__security_check_cookie@4
  00020	8b 4a fc	 mov	 ecx, DWORD PTR [edx-4]
  00023	33 c8		 xor	 ecx, eax
  00025	e8 00 00 00 00	 call	 @__security_check_cookie@4
  0002a	b8 00 00 00 00	 mov	 eax, OFFSET __ehfuncinfo$?LoadInitProperty@ioOwnerAttach5Dummy@@IAEXAAVioINILoader@@@Z
  0002f	e9 00 00 00 00	 jmp	 ___CxxFrameHandler3
text$x	ENDS
?LoadInitProperty@ioOwnerAttach5Dummy@@IAEXAAVioINILoader@@@Z ENDP ; ioOwnerAttach5Dummy::LoadInitProperty
PUBLIC	_pOwner$GSCopy$
PUBLIC	?FindTarget@ioOwnerAttach5Dummy@@IAE_NPAVioBaseChar@@@Z ; ioOwnerAttach5Dummy::FindTarget
EXTRN	?GetTargetCharListBySphere@ioBaseChar@@QAEXABUD3DXVECTOR3@@MMAAV?$vector@PAVioBaseChar@@V?$allocator@PAVioBaseChar@@@std@@@std@@@Z:PROC ; ioBaseChar::GetTargetCharListBySphere
;	COMDAT xdata$x
; File c:\program files (x86)\microsoft visual studio 10.0\vc\include\vector
xdata$x	SEGMENT
__unwindtable$?FindTarget@ioOwnerAttach5Dummy@@IAE_NPAVioBaseChar@@@Z DD 0ffffffffH
	DD	FLAT:__unwindfunclet$?FindTarget@ioOwnerAttach5Dummy@@IAE_NPAVioBaseChar@@@Z$0
__ehfuncinfo$?FindTarget@ioOwnerAttach5Dummy@@IAE_NPAVioBaseChar@@@Z DD 019930522H
	DD	01H
	DD	FLAT:__unwindtable$?FindTarget@ioOwnerAttach5Dummy@@IAE_NPAVioBaseChar@@@Z
	DD	2 DUP(00H)
	DD	2 DUP(00H)
	DD	00H
	DD	01H
; Function compile flags: /Ogsp
; File d:\lost saga for developer\youtube\tutorial\source\src\lsclient\ioownerattach5dummy.cpp
xdata$x	ENDS
;	COMDAT ?FindTarget@ioOwnerAttach5Dummy@@IAE_NPAVioBaseChar@@@Z
_TEXT	SEGMENT
_vTargetList$ = -48					; size = 16
_pOwner$GSCopy$ = -32					; size = 4
_vPos$ = -28						; size = 12
__$EHRec$ = -12						; size = 12
_pOwner$ = 8						; size = 4
?FindTarget@ioOwnerAttach5Dummy@@IAE_NPAVioBaseChar@@@Z PROC ; ioOwnerAttach5Dummy::FindTarget, COMDAT
; _this$ = ecx

; 443  : {	

  00000	6a 24		 push	 36			; 00000024H
  00002	b8 00 00 00 00	 mov	 eax, __ehhandler$?FindTarget@ioOwnerAttach5Dummy@@IAE_NPAVioBaseChar@@@Z
  00007	e8 00 00 00 00	 call	 __EH_prolog3_GS
  0000c	8b 45 08	 mov	 eax, DWORD PTR _pOwner$[ebp]

; 444  : 	if( !pOwner ) 

  0000f	33 f6		 xor	 esi, esi
  00011	8b d9		 mov	 ebx, ecx

; 471  : 		{
; 472  : 			m_szTargetName = pTarget->GetCharName();

  00013	89 45 e0	 mov	 DWORD PTR _pOwner$GSCopy$[ebp], eax
  00016	3b c6		 cmp	 eax, esi
  00018	75 0a		 jne	 SHORT $LN5@FindTarget
$LN40@FindTarget:

; 445  : 		return false;

  0001a	32 c0		 xor	 al, al
$LN6@FindTarget:

; 473  : 			return true;
; 474  : 		}
; 475  : 	}
; 476  : 
; 477  : 	return false;
; 478  : }

  0001c	e8 00 00 00 00	 call	 __EH_epilog3_GS
  00021	c2 04 00	 ret	 4
$LN5@FindTarget:

; 446  : 	
; 447  : 	if ( m_dwCheckRefreshTime + m_dwRefreshTime > FRAMEGETTIME() )

  00024	ff 15 00 00 00
	00		 call	 DWORD PTR __imp_?GetSingleton@ioFrameTimer@@SAAAV1@XZ
  0002a	8b c8		 mov	 ecx, eax
  0002c	ff 15 00 00 00
	00		 call	 DWORD PTR __imp_?GetLoopSec@ioFrameTimer@@QBEKXZ
  00032	8b 8b 34 15 00
	00		 mov	 ecx, DWORD PTR [ebx+5428]
  00038	03 8b bc 14 00
	00		 add	 ecx, DWORD PTR [ebx+5308]
  0003e	3b c8		 cmp	 ecx, eax

; 448  : 		return false;

  00040	77 d8		 ja	 SHORT $LN40@FindTarget

; 449  : 
; 450  : 	// 
; 451  : 	BaseCharList vTargetList;

  00042	89 75 d0	 mov	 DWORD PTR _vTargetList$[ebp], esi
  00045	89 75 d4	 mov	 DWORD PTR _vTargetList$[ebp+4], esi
  00048	89 75 d8	 mov	 DWORD PTR _vTargetList$[ebp+8], esi

; 452  : 
; 453  : 	// 
; 454  : 	D3DXVECTOR3 vPos = GetWorldPosition();

  0004b	8b 03		 mov	 eax, DWORD PTR [ebx]
  0004d	8b cb		 mov	 ecx, ebx
  0004f	89 75 fc	 mov	 DWORD PTR __$EHRec$[ebp+8], esi
  00052	ff 50 70	 call	 DWORD PTR [eax+112]

; 455  : 
; 456  : 	//  
; 457  : 	pOwner->GetTargetCharListBySphere( vPos, m_fColRange, m_fColAngle, vTargetList );

  00055	f3 0f 10 83 b8
	14 00 00	 movss	 xmm0, DWORD PTR [ebx+5304]
  0005d	8b f0		 mov	 esi, eax
  0005f	8d 45 d0	 lea	 eax, DWORD PTR _vTargetList$[ebp]
  00062	50		 push	 eax
  00063	8d 7d e4	 lea	 edi, DWORD PTR _vPos$[ebp]
  00066	a5		 movsd
  00067	51		 push	 ecx
  00068	51		 push	 ecx
  00069	8b 4d e0	 mov	 ecx, DWORD PTR _pOwner$GSCopy$[ebp]
  0006c	f3 0f 11 44 24
	04		 movss	 DWORD PTR [esp+4], xmm0
  00072	f3 0f 10 83 b4
	14 00 00	 movss	 xmm0, DWORD PTR [ebx+5300]
  0007a	a5		 movsd
  0007b	8d 45 e4	 lea	 eax, DWORD PTR _vPos$[ebp]
  0007e	f3 0f 11 04 24	 movss	 DWORD PTR [esp], xmm0
  00083	50		 push	 eax
  00084	a5		 movsd
  00085	e8 00 00 00 00	 call	 ?GetTargetCharListBySphere@ioBaseChar@@QAEXABUD3DXVECTOR3@@MMAAV?$vector@PAVioBaseChar@@V?$allocator@PAVioBaseChar@@@std@@@std@@@Z ; ioBaseChar::GetTargetCharListBySphere

; 458  : 
; 459  : 	//  
; 460  : 	if ( vTargetList.empty() )

  0008a	8b 45 d0	 mov	 eax, DWORD PTR _vTargetList$[ebp]
  0008d	3b 45 d4	 cmp	 eax, DWORD PTR _vTargetList$[ebp+4]
  00090	75 15		 jne	 SHORT $LN3@FindTarget
$LN1@FindTarget:
  00092	32 db		 xor	 bl, bl
$LN37@FindTarget:

; 461  : 		return false;

  00094	83 4d fc ff	 or	 DWORD PTR __$EHRec$[ebp+8], -1
  00098	8d 4d d0	 lea	 ecx, DWORD PTR _vTargetList$[ebp]
  0009b	e8 00 00 00 00	 call	 ?_Tidy@?$vector@PAVioBaseChar@@V?$allocator@PAVioBaseChar@@@std@@@std@@IAEXXZ ; std::vector<ioBaseChar *,std::allocator<ioBaseChar *> >::_Tidy
  000a0	8a c3		 mov	 al, bl
  000a2	e9 75 ff ff ff	 jmp	 $LN6@FindTarget
$LN3@FindTarget:

; 462  : 
; 463  : 	//  
; 464  : 	SortTargetList( pOwner, vTargetList );

  000a7	8d 45 d0	 lea	 eax, DWORD PTR _vTargetList$[ebp]
  000aa	50		 push	 eax
  000ab	ff 75 e0	 push	 DWORD PTR _pOwner$GSCopy$[ebp]
  000ae	8b cb		 mov	 ecx, ebx
  000b0	e8 00 00 00 00	 call	 ?SortTargetList@ioOwnerAttach5Dummy@@IAEXPAVioBaseChar@@ABV?$vector@PAVioBaseChar@@V?$allocator@PAVioBaseChar@@@std@@@std@@@Z ; ioOwnerAttach5Dummy::SortTargetList

; 465  : 
; 466  : 	//
; 467  : 	if ( !m_SortList.empty() )

  000b5	8b 8b 10 15 00
	00		 mov	 ecx, DWORD PTR [ebx+5392]
  000bb	3b 8b 14 15 00
	00		 cmp	 ecx, DWORD PTR [ebx+5396]
  000c1	74 cf		 je	 SHORT $LN1@FindTarget

; 468  : 	{
; 469  : 		ioBaseChar *pTarget = m_SortList[0].pChar;

  000c3	8b 09		 mov	 ecx, DWORD PTR [ecx]

; 470  : 		if ( pTarget )

  000c5	85 c9		 test	 ecx, ecx
  000c7	74 c9		 je	 SHORT $LN1@FindTarget

; 471  : 		{
; 472  : 			m_szTargetName = pTarget->GetCharName();

  000c9	81 c1 d4 02 00
	00		 add	 ecx, 724		; 000002d4H
  000cf	51		 push	 ecx
  000d0	8d 8b 20 15 00
	00		 lea	 ecx, DWORD PTR [ebx+5408]
  000d6	ff 15 00 00 00
	00		 call	 DWORD PTR __imp_??4ioHashString@@QAEAAV0@ABV0@@Z
  000dc	b3 01		 mov	 bl, 1
  000de	eb b4		 jmp	 SHORT $LN37@FindTarget
_TEXT	ENDS
;	COMDAT text$x
text$x	SEGMENT
__unwindfunclet$?FindTarget@ioOwnerAttach5Dummy@@IAE_NPAVioBaseChar@@@Z$0:
  00000	8d 4d d0	 lea	 ecx, DWORD PTR _vTargetList$[ebp]
  00003	e9 00 00 00 00	 jmp	 ??1?$vector@PAVioBaseChar@@V?$allocator@PAVioBaseChar@@@std@@@std@@QAE@XZ ; std::vector<ioBaseChar *,std::allocator<ioBaseChar *> >::~vector<ioBaseChar *,std::allocator<ioBaseChar *> >
__ehhandler$?FindTarget@ioOwnerAttach5Dummy@@IAE_NPAVioBaseChar@@@Z:
  00008	8b 54 24 08	 mov	 edx, DWORD PTR [esp+8]
  0000c	8d 42 0c	 lea	 eax, DWORD PTR [edx+12]
  0000f	8b 4a cc	 mov	 ecx, DWORD PTR [edx-52]
  00012	33 c8		 xor	 ecx, eax
  00014	e8 00 00 00 00	 call	 @__security_check_cookie@4
  00019	8b 4a fc	 mov	 ecx, DWORD PTR [edx-4]
  0001c	33 c8		 xor	 ecx, eax
  0001e	e8 00 00 00 00	 call	 @__security_check_cookie@4
  00023	b8 00 00 00 00	 mov	 eax, OFFSET __ehfuncinfo$?FindTarget@ioOwnerAttach5Dummy@@IAE_NPAVioBaseChar@@@Z
  00028	e9 00 00 00 00	 jmp	 ___CxxFrameHandler3
text$x	ENDS
?FindTarget@ioOwnerAttach5Dummy@@IAE_NPAVioBaseChar@@@Z ENDP ; ioOwnerAttach5Dummy::FindTarget
; Function compile flags: /Ogsp
;	COMDAT ??_GioOwnerAttach5Dummy@@UAEPAXI@Z
_TEXT	SEGMENT
___flags$ = 8						; size = 4
??_GioOwnerAttach5Dummy@@UAEPAXI@Z PROC			; ioOwnerAttach5Dummy::`scalar deleting destructor', COMDAT
; _this$ = ecx
  00000	55		 push	 ebp
  00001	8b ec		 mov	 ebp, esp
  00003	56		 push	 esi
  00004	8b f1		 mov	 esi, ecx
  00006	e8 00 00 00 00	 call	 ??1ioOwnerAttach5Dummy@@UAE@XZ ; ioOwnerAttach5Dummy::~ioOwnerAttach5Dummy
  0000b	f6 45 08 01	 test	 BYTE PTR ___flags$[ebp], 1
  0000f	74 07		 je	 SHORT $LN1@scalar@3
  00011	56		 push	 esi
  00012	e8 00 00 00 00	 call	 ??3@YAXPAX@Z		; operator delete
  00017	59		 pop	 ecx
$LN1@scalar@3:
  00018	8b c6		 mov	 eax, esi
  0001a	5e		 pop	 esi
  0001b	5d		 pop	 ebp
  0001c	c2 04 00	 ret	 4
??_GioOwnerAttach5Dummy@@UAEPAXI@Z ENDP			; ioOwnerAttach5Dummy::`scalar deleting destructor'
_TEXT	ENDS
EXTRN	?LoadProperty@ioDummyChar@@UAEXAAVioINILoader@@@Z:PROC ; ioDummyChar::LoadProperty
; Function compile flags: /Ogsp
;	COMDAT ?LoadProperty@ioOwnerAttach5Dummy@@UAEXAAVioINILoader@@@Z
_TEXT	SEGMENT
_rkLoader$ = 8						; size = 4
?LoadProperty@ioOwnerAttach5Dummy@@UAEXAAVioINILoader@@@Z PROC ; ioOwnerAttach5Dummy::LoadProperty, COMDAT
; _this$ = ecx

; 27   : {

  00000	55		 push	 ebp
  00001	8b ec		 mov	 ebp, esp
  00003	56		 push	 esi

; 28   : 	ioDummyChar::LoadProperty( rkLoader );

  00004	ff 75 08	 push	 DWORD PTR _rkLoader$[ebp]
  00007	8b f1		 mov	 esi, ecx
  00009	e8 00 00 00 00	 call	 ?LoadProperty@ioDummyChar@@UAEXAAVioINILoader@@@Z ; ioDummyChar::LoadProperty

; 29   : 	
; 30   : 	LoadInitProperty( rkLoader );

  0000e	ff 75 08	 push	 DWORD PTR _rkLoader$[ebp]
  00011	8b ce		 mov	 ecx, esi
  00013	e8 00 00 00 00	 call	 ?LoadInitProperty@ioOwnerAttach5Dummy@@IAEXAAVioINILoader@@@Z ; ioOwnerAttach5Dummy::LoadInitProperty
  00018	5e		 pop	 esi

; 31   : }

  00019	5d		 pop	 ebp
  0001a	c2 04 00	 ret	 4
?LoadProperty@ioOwnerAttach5Dummy@@UAEXAAVioINILoader@@@Z ENDP ; ioOwnerAttach5Dummy::LoadProperty
_TEXT	ENDS
PUBLIC	_pOwner$GSCopy$
PUBLIC	?ProcessDelayState@ioOwnerAttach5Dummy@@IAEXPAVioBaseChar@@M@Z ; ioOwnerAttach5Dummy::ProcessDelayState
;	COMDAT xdata$x
; File c:\program files (x86)\microsoft visual studio 10.0\vc\include\vector
xdata$x	SEGMENT
__unwindtable$?ProcessDelayState@ioOwnerAttach5Dummy@@IAEXPAVioBaseChar@@M@Z DD 0ffffffffH
	DD	FLAT:__unwindfunclet$?ProcessDelayState@ioOwnerAttach5Dummy@@IAEXPAVioBaseChar@@M@Z$0
__ehfuncinfo$?ProcessDelayState@ioOwnerAttach5Dummy@@IAEXPAVioBaseChar@@M@Z DD 019930522H
	DD	01H
	DD	FLAT:__unwindtable$?ProcessDelayState@ioOwnerAttach5Dummy@@IAEXPAVioBaseChar@@M@Z
	DD	2 DUP(00H)
	DD	2 DUP(00H)
	DD	00H
	DD	01H
; Function compile flags: /Ogsp
; File d:\lost saga for developer\youtube\tutorial\source\src\lsclient\ioownerattach5dummy.cpp
xdata$x	ENDS
;	COMDAT ?ProcessDelayState@ioOwnerAttach5Dummy@@IAEXPAVioBaseChar@@M@Z
_TEXT	SEGMENT
_vTargetList$580596 = -48				; size = 16
_pOwner$GSCopy$ = -32					; size = 4
_vPos$580597 = -28					; size = 12
__$EHRec$ = -12						; size = 12
_pOwner$ = 8						; size = 4
_fTimePerSec$ = 12					; size = 4
?ProcessDelayState@ioOwnerAttach5Dummy@@IAEXPAVioBaseChar@@M@Z PROC ; ioOwnerAttach5Dummy::ProcessDelayState, COMDAT
; _this$ = ecx

; 301  : {	

  00000	6a 24		 push	 36			; 00000024H
  00002	b8 00 00 00 00	 mov	 eax, __ehhandler$?ProcessDelayState@ioOwnerAttach5Dummy@@IAEXPAVioBaseChar@@M@Z
  00007	e8 00 00 00 00	 call	 __EH_prolog3_GS
  0000c	8b 45 08	 mov	 eax, DWORD PTR _pOwner$[ebp]
  0000f	8b d9		 mov	 ebx, ecx

; 307  : 	{
; 308  : 		SetDieState( true );

  00011	89 45 e0	 mov	 DWORD PTR _pOwner$GSCopy$[ebp], eax
  00014	85 c0		 test	 eax, eax
  00016	0f 84 4a 01 00
	00		 je	 $LN1@ProcessDel

; 302  : 	if ( !pOwner )
; 303  : 		return;
; 304  : 
; 305  : 	if ( !CheckControllRange( pOwner ) || 
; 306  : 		( m_dwLifeTime > 0 && ( m_dwStartTime + m_dwLifeTime ) < FRAMEGETTIME() ))

  0001c	50		 push	 eax
  0001d	e8 00 00 00 00	 call	 ?CheckControllRange@ioOwnerAttach5Dummy@@IAE_NPAVioBaseChar@@@Z ; ioOwnerAttach5Dummy::CheckControllRange
  00022	84 c0		 test	 al, al
  00024	0f 84 30 01 00
	00		 je	 $LN4@ProcessDel
  0002a	83 bb 10 0b 00
	00 00		 cmp	 DWORD PTR [ebx+2832], 0
  00031	8b 3d 00 00 00
	00		 mov	 edi, DWORD PTR __imp_?GetSingleton@ioFrameTimer@@SAAAV1@XZ
  00037	76 1e		 jbe	 SHORT $LN5@ProcessDel
  00039	ff d7		 call	 edi
  0003b	8b c8		 mov	 ecx, eax
  0003d	ff 15 00 00 00
	00		 call	 DWORD PTR __imp_?GetLoopSec@ioFrameTimer@@QBEKXZ
  00043	8b 8b 14 0b 00
	00		 mov	 ecx, DWORD PTR [ebx+2836]
  00049	03 8b 10 0b 00
	00		 add	 ecx, DWORD PTR [ebx+2832]
  0004f	3b c8		 cmp	 ecx, eax
  00051	0f 82 03 01 00
	00		 jb	 $LN4@ProcessDel
$LN5@ProcessDel:

; 309  : 		return;
; 310  : 	}
; 311  : 	
; 312  : 	// 
; 313  : 	if ( FindTarget( pOwner ) )

  00057	ff d7		 call	 edi
  00059	8b c8		 mov	 ecx, eax
  0005b	ff 15 00 00 00
	00		 call	 DWORD PTR __imp_?GetLoopSec@ioFrameTimer@@QBEKXZ
  00061	8b 8b 34 15 00
	00		 mov	 ecx, DWORD PTR [ebx+5428]
  00067	03 8b bc 14 00
	00		 add	 ecx, DWORD PTR [ebx+5308]
  0006d	3b c8		 cmp	 ecx, eax
  0006f	0f 87 b0 00 00
	00		 ja	 $LN3@ProcessDel
  00075	33 c0		 xor	 eax, eax
  00077	89 45 d0	 mov	 DWORD PTR _vTargetList$580596[ebp], eax
  0007a	89 45 d4	 mov	 DWORD PTR _vTargetList$580596[ebp+4], eax
  0007d	89 45 d8	 mov	 DWORD PTR _vTargetList$580596[ebp+8], eax
  00080	89 45 fc	 mov	 DWORD PTR __$EHRec$[ebp+8], eax
  00083	8b 03		 mov	 eax, DWORD PTR [ebx]
  00085	8b cb		 mov	 ecx, ebx
  00087	ff 50 70	 call	 DWORD PTR [eax+112]
  0008a	f3 0f 10 83 b8
	14 00 00	 movss	 xmm0, DWORD PTR [ebx+5304]
  00092	8b f0		 mov	 esi, eax
  00094	8d 7d e4	 lea	 edi, DWORD PTR _vPos$580597[ebp]
  00097	a5		 movsd
  00098	8d 45 d0	 lea	 eax, DWORD PTR _vTargetList$580596[ebp]
  0009b	50		 push	 eax
  0009c	a5		 movsd
  0009d	51		 push	 ecx
  0009e	51		 push	 ecx
  0009f	f3 0f 11 44 24
	04		 movss	 DWORD PTR [esp+4], xmm0
  000a5	f3 0f 10 83 b4
	14 00 00	 movss	 xmm0, DWORD PTR [ebx+5300]
  000ad	a5		 movsd
  000ae	8b 75 e0	 mov	 esi, DWORD PTR _pOwner$GSCopy$[ebp]
  000b1	8d 45 e4	 lea	 eax, DWORD PTR _vPos$580597[ebp]
  000b4	f3 0f 11 04 24	 movss	 DWORD PTR [esp], xmm0
  000b9	50		 push	 eax
  000ba	8b ce		 mov	 ecx, esi
  000bc	e8 00 00 00 00	 call	 ?GetTargetCharListBySphere@ioBaseChar@@QAEXABUD3DXVECTOR3@@MMAAV?$vector@PAVioBaseChar@@V?$allocator@PAVioBaseChar@@@std@@@std@@@Z ; ioBaseChar::GetTargetCharListBySphere
  000c1	8b 45 d0	 mov	 eax, DWORD PTR _vTargetList$580596[ebp]
  000c4	3b 45 d4	 cmp	 eax, DWORD PTR _vTargetList$580596[ebp+4]
  000c7	74 50		 je	 SHORT $LN9@ProcessDel
  000c9	8d 45 d0	 lea	 eax, DWORD PTR _vTargetList$580596[ebp]
  000cc	50		 push	 eax
  000cd	56		 push	 esi
  000ce	8b cb		 mov	 ecx, ebx
  000d0	e8 00 00 00 00	 call	 ?SortTargetList@ioOwnerAttach5Dummy@@IAEXPAVioBaseChar@@ABV?$vector@PAVioBaseChar@@V?$allocator@PAVioBaseChar@@@std@@@std@@@Z ; ioOwnerAttach5Dummy::SortTargetList
  000d5	8b 8b 10 15 00
	00		 mov	 ecx, DWORD PTR [ebx+5392]
  000db	3b 8b 14 15 00
	00		 cmp	 ecx, DWORD PTR [ebx+5396]
  000e1	74 36		 je	 SHORT $LN9@ProcessDel
  000e3	8b 01		 mov	 eax, DWORD PTR [ecx]
  000e5	85 c0		 test	 eax, eax
  000e7	74 30		 je	 SHORT $LN9@ProcessDel
  000e9	05 d4 02 00 00	 add	 eax, 724		; 000002d4H
  000ee	50		 push	 eax
  000ef	8d 8b 20 15 00
	00		 lea	 ecx, DWORD PTR [ebx+5408]
  000f5	ff 15 00 00 00
	00		 call	 DWORD PTR __imp_??4ioHashString@@QAEAAV0@ABV0@@Z
  000fb	83 4d fc ff	 or	 DWORD PTR __$EHRec$[ebp+8], -1
  000ff	8d 4d d0	 lea	 ecx, DWORD PTR _vTargetList$580596[ebp]
  00102	e8 00 00 00 00	 call	 ?_Tidy@?$vector@PAVioBaseChar@@V?$allocator@PAVioBaseChar@@@std@@@std@@IAEXXZ ; std::vector<ioBaseChar *,std::allocator<ioBaseChar *> >::_Tidy

; 314  : 	{
; 315  : 		SetRotateToTarget( pOwner );

  00107	56		 push	 esi
  00108	8b cb		 mov	 ecx, ebx
  0010a	e8 00 00 00 00	 call	 ?SetRotateToTarget@ioOwnerAttach5Dummy@@IAEXPAVioBaseChar@@@Z ; ioOwnerAttach5Dummy::SetRotateToTarget

; 316  : 		SetAttackState( pOwner );

  0010f	56		 push	 esi
  00110	8b cb		 mov	 ecx, ebx
  00112	e8 00 00 00 00	 call	 ?SetAttackState@ioOwnerAttach5Dummy@@IAEXPAVioBaseChar@@@Z ; ioOwnerAttach5Dummy::SetAttackState

; 317  : 	}
; 318  : 	else

  00117	eb 20		 jmp	 SHORT $LN2@ProcessDel

; 309  : 		return;
; 310  : 	}
; 311  : 	
; 312  : 	// 
; 313  : 	if ( FindTarget( pOwner ) )

$LN9@ProcessDel:
  00119	83 4d fc ff	 or	 DWORD PTR __$EHRec$[ebp+8], -1
  0011d	8d 4d d0	 lea	 ecx, DWORD PTR _vTargetList$580596[ebp]
  00120	e8 00 00 00 00	 call	 ?_Tidy@?$vector@PAVioBaseChar@@V?$allocator@PAVioBaseChar@@@std@@@std@@IAEXXZ ; std::vector<ioBaseChar *,std::allocator<ioBaseChar *> >::_Tidy
$LN3@ProcessDel:

; 319  : 	{
; 320  : 		//  
; 321  : 		SetRotateToOwner( pOwner );

  00125	ff 75 e0	 push	 DWORD PTR _pOwner$GSCopy$[ebp]
  00128	8b cb		 mov	 ecx, ebx
  0012a	e8 00 00 00 00	 call	 ?SetRotateToOwner@ioOwnerAttach5Dummy@@IAEXPAVioBaseChar@@@Z ; ioOwnerAttach5Dummy::SetRotateToOwner

; 322  : 		// 
; 323  : 		CheckInputKey( pOwner );

  0012f	ff 75 e0	 push	 DWORD PTR _pOwner$GSCopy$[ebp]
  00132	8b cb		 mov	 ecx, ebx
  00134	e8 00 00 00 00	 call	 ?CheckInputKey@ioOwnerAttach5Dummy@@IAEXPAVioBaseChar@@@Z ; ioOwnerAttach5Dummy::CheckInputKey
$LN2@ProcessDel:

; 324  : 	}
; 325  : 	
; 326  : 	if ( CheckFollowRange( pOwner ) )

  00139	ff 75 e0	 push	 DWORD PTR _pOwner$GSCopy$[ebp]
  0013c	8b cb		 mov	 ecx, ebx
  0013e	e8 00 00 00 00	 call	 ?CheckFollowRange@ioOwnerAttach5Dummy@@IAE_NPAVioBaseChar@@@Z ; ioOwnerAttach5Dummy::CheckFollowRange
  00143	84 c0		 test	 al, al
  00145	74 1f		 je	 SHORT $LN1@ProcessDel

; 327  : 	{
; 328  : 		SetFollowState( pOwner );

  00147	ff 75 e0	 push	 DWORD PTR _pOwner$GSCopy$[ebp]
  0014a	8b cb		 mov	 ecx, ebx
  0014c	e8 00 00 00 00	 call	 ?SetFollowState@ioOwnerAttach5Dummy@@IAEXPAVioBaseChar@@@Z ; ioOwnerAttach5Dummy::SetFollowState

; 329  : 		m_bAutoFollow = true;

  00151	c6 83 30 15 00
	00 01		 mov	 BYTE PTR [ebx+5424], 1
  00158	eb 0c		 jmp	 SHORT $LN1@ProcessDel
$LN4@ProcessDel:

; 307  : 	{
; 308  : 		SetDieState( true );

  0015a	8b 03		 mov	 eax, DWORD PTR [ebx]
  0015c	6a 01		 push	 1
  0015e	8b cb		 mov	 ecx, ebx
  00160	ff 90 60 01 00
	00		 call	 DWORD PTR [eax+352]
$LN1@ProcessDel:

; 330  : 	}
; 331  : }

  00166	e8 00 00 00 00	 call	 __EH_epilog3_GS
  0016b	c2 08 00	 ret	 8
_TEXT	ENDS
;	COMDAT text$x
text$x	SEGMENT
__unwindfunclet$?ProcessDelayState@ioOwnerAttach5Dummy@@IAEXPAVioBaseChar@@M@Z$0:
  00000	8d 4d d0	 lea	 ecx, DWORD PTR _vTargetList$580596[ebp]
  00003	e9 00 00 00 00	 jmp	 ??1?$vector@PAVioBaseChar@@V?$allocator@PAVioBaseChar@@@std@@@std@@QAE@XZ ; std::vector<ioBaseChar *,std::allocator<ioBaseChar *> >::~vector<ioBaseChar *,std::allocator<ioBaseChar *> >
__ehhandler$?ProcessDelayState@ioOwnerAttach5Dummy@@IAEXPAVioBaseChar@@M@Z:
  00008	8b 54 24 08	 mov	 edx, DWORD PTR [esp+8]
  0000c	8d 42 0c	 lea	 eax, DWORD PTR [edx+12]
  0000f	8b 4a cc	 mov	 ecx, DWORD PTR [edx-52]
  00012	33 c8		 xor	 ecx, eax
  00014	e8 00 00 00 00	 call	 @__security_check_cookie@4
  00019	8b 4a fc	 mov	 ecx, DWORD PTR [edx-4]
  0001c	33 c8		 xor	 ecx, eax
  0001e	e8 00 00 00 00	 call	 @__security_check_cookie@4
  00023	b8 00 00 00 00	 mov	 eax, OFFSET __ehfuncinfo$?ProcessDelayState@ioOwnerAttach5Dummy@@IAEXPAVioBaseChar@@M@Z
  00028	e9 00 00 00 00	 jmp	 ___CxxFrameHandler3
text$x	ENDS
?ProcessDelayState@ioOwnerAttach5Dummy@@IAEXPAVioBaseChar@@M@Z ENDP ; ioOwnerAttach5Dummy::ProcessDelayState
PUBLIC	_pOwner$GSCopy$
PUBLIC	?ProcessFollowState@ioOwnerAttach5Dummy@@IAEXPAVioBaseChar@@M@Z ; ioOwnerAttach5Dummy::ProcessFollowState
;	COMDAT xdata$x
; File c:\program files (x86)\microsoft visual studio 10.0\vc\include\vector
xdata$x	SEGMENT
__unwindtable$?ProcessFollowState@ioOwnerAttach5Dummy@@IAEXPAVioBaseChar@@M@Z DD 0ffffffffH
	DD	FLAT:__unwindfunclet$?ProcessFollowState@ioOwnerAttach5Dummy@@IAEXPAVioBaseChar@@M@Z$0
__ehfuncinfo$?ProcessFollowState@ioOwnerAttach5Dummy@@IAEXPAVioBaseChar@@M@Z DD 019930522H
	DD	01H
	DD	FLAT:__unwindtable$?ProcessFollowState@ioOwnerAttach5Dummy@@IAEXPAVioBaseChar@@M@Z
	DD	2 DUP(00H)
	DD	2 DUP(00H)
	DD	00H
	DD	01H
; Function compile flags: /Ogsp
; File d:\lost saga for developer\youtube\tutorial\source\src\lsclient\ioownerattach5dummy.cpp
xdata$x	ENDS
;	COMDAT ?ProcessFollowState@ioOwnerAttach5Dummy@@IAEXPAVioBaseChar@@M@Z
_TEXT	SEGMENT
_vTargetList$580752 = -48				; size = 16
_pOwner$GSCopy$ = -32					; size = 4
_vPos$580753 = -28					; size = 12
__$EHRec$ = -12						; size = 12
_pOwner$ = 8						; size = 4
_fTimePerSec$ = 12					; size = 4
?ProcessFollowState@ioOwnerAttach5Dummy@@IAEXPAVioBaseChar@@M@Z PROC ; ioOwnerAttach5Dummy::ProcessFollowState, COMDAT
; _this$ = ecx

; 359  : {

  00000	6a 24		 push	 36			; 00000024H
  00002	b8 00 00 00 00	 mov	 eax, __ehhandler$?ProcessFollowState@ioOwnerAttach5Dummy@@IAEXPAVioBaseChar@@M@Z
  00007	e8 00 00 00 00	 call	 __EH_prolog3_GS
  0000c	8b 45 08	 mov	 eax, DWORD PTR _pOwner$[ebp]
  0000f	8b d9		 mov	 ebx, ecx

; 365  : 	{
; 366  : 		SetDieState( true );

  00011	89 45 e0	 mov	 DWORD PTR _pOwner$GSCopy$[ebp], eax
  00014	85 c0		 test	 eax, eax
  00016	0f 84 37 01 00
	00		 je	 $LN1@ProcessFol

; 360  : 	if( !pOwner )
; 361  : 		return;
; 362  : 	
; 363  : 	if ( !CheckControllRange( pOwner ) || 
; 364  : 		( m_dwLifeTime > 0 && ( m_dwStartTime + m_dwLifeTime ) < FRAMEGETTIME() ))

  0001c	50		 push	 eax
  0001d	e8 00 00 00 00	 call	 ?CheckControllRange@ioOwnerAttach5Dummy@@IAE_NPAVioBaseChar@@@Z ; ioOwnerAttach5Dummy::CheckControllRange
  00022	84 c0		 test	 al, al
  00024	0f 84 1d 01 00
	00		 je	 $LN3@ProcessFol
  0002a	83 bb 10 0b 00
	00 00		 cmp	 DWORD PTR [ebx+2832], 0
  00031	8b 3d 00 00 00
	00		 mov	 edi, DWORD PTR __imp_?GetSingleton@ioFrameTimer@@SAAAV1@XZ
  00037	76 1e		 jbe	 SHORT $LN4@ProcessFol
  00039	ff d7		 call	 edi
  0003b	8b c8		 mov	 ecx, eax
  0003d	ff 15 00 00 00
	00		 call	 DWORD PTR __imp_?GetLoopSec@ioFrameTimer@@QBEKXZ
  00043	8b 8b 14 0b 00
	00		 mov	 ecx, DWORD PTR [ebx+2836]
  00049	03 8b 10 0b 00
	00		 add	 ecx, DWORD PTR [ebx+2832]
  0004f	3b c8		 cmp	 ecx, eax
  00051	0f 82 f0 00 00
	00		 jb	 $LN3@ProcessFol
$LN4@ProcessFol:

; 367  : 		return;
; 368  : 	}
; 369  : 
; 370  : 	// 
; 371  : 	if ( FindTarget( pOwner ) )

  00057	ff d7		 call	 edi
  00059	8b c8		 mov	 ecx, eax
  0005b	ff 15 00 00 00
	00		 call	 DWORD PTR __imp_?GetLoopSec@ioFrameTimer@@QBEKXZ
  00061	8b 8b 34 15 00
	00		 mov	 ecx, DWORD PTR [ebx+5428]
  00067	03 8b bc 14 00
	00		 add	 ecx, DWORD PTR [ebx+5308]
  0006d	3b c8		 cmp	 ecx, eax
  0006f	0f 87 b1 00 00
	00		 ja	 $LN2@ProcessFol
  00075	33 c0		 xor	 eax, eax
  00077	89 45 d0	 mov	 DWORD PTR _vTargetList$580752[ebp], eax
  0007a	89 45 d4	 mov	 DWORD PTR _vTargetList$580752[ebp+4], eax
  0007d	89 45 d8	 mov	 DWORD PTR _vTargetList$580752[ebp+8], eax
  00080	89 45 fc	 mov	 DWORD PTR __$EHRec$[ebp+8], eax
  00083	8b 03		 mov	 eax, DWORD PTR [ebx]
  00085	8b cb		 mov	 ecx, ebx
  00087	ff 50 70	 call	 DWORD PTR [eax+112]
  0008a	f3 0f 10 83 b8
	14 00 00	 movss	 xmm0, DWORD PTR [ebx+5304]
  00092	8b f0		 mov	 esi, eax
  00094	8d 7d e4	 lea	 edi, DWORD PTR _vPos$580753[ebp]
  00097	a5		 movsd
  00098	8d 45 d0	 lea	 eax, DWORD PTR _vTargetList$580752[ebp]
  0009b	50		 push	 eax
  0009c	a5		 movsd
  0009d	51		 push	 ecx
  0009e	51		 push	 ecx
  0009f	f3 0f 11 44 24
	04		 movss	 DWORD PTR [esp+4], xmm0
  000a5	f3 0f 10 83 b4
	14 00 00	 movss	 xmm0, DWORD PTR [ebx+5300]
  000ad	a5		 movsd
  000ae	8b 75 e0	 mov	 esi, DWORD PTR _pOwner$GSCopy$[ebp]
  000b1	8d 45 e4	 lea	 eax, DWORD PTR _vPos$580753[ebp]
  000b4	f3 0f 11 04 24	 movss	 DWORD PTR [esp], xmm0
  000b9	50		 push	 eax
  000ba	8b ce		 mov	 ecx, esi
  000bc	e8 00 00 00 00	 call	 ?GetTargetCharListBySphere@ioBaseChar@@QAEXABUD3DXVECTOR3@@MMAAV?$vector@PAVioBaseChar@@V?$allocator@PAVioBaseChar@@@std@@@std@@@Z ; ioBaseChar::GetTargetCharListBySphere
  000c1	8b 45 d0	 mov	 eax, DWORD PTR _vTargetList$580752[ebp]
  000c4	3b 45 d4	 cmp	 eax, DWORD PTR _vTargetList$580752[ebp+4]
  000c7	74 51		 je	 SHORT $LN8@ProcessFol
  000c9	8d 45 d0	 lea	 eax, DWORD PTR _vTargetList$580752[ebp]
  000cc	50		 push	 eax
  000cd	56		 push	 esi
  000ce	8b cb		 mov	 ecx, ebx
  000d0	e8 00 00 00 00	 call	 ?SortTargetList@ioOwnerAttach5Dummy@@IAEXPAVioBaseChar@@ABV?$vector@PAVioBaseChar@@V?$allocator@PAVioBaseChar@@@std@@@std@@@Z ; ioOwnerAttach5Dummy::SortTargetList
  000d5	8b 8b 10 15 00
	00		 mov	 ecx, DWORD PTR [ebx+5392]
  000db	3b 8b 14 15 00
	00		 cmp	 ecx, DWORD PTR [ebx+5396]
  000e1	74 37		 je	 SHORT $LN8@ProcessFol
  000e3	8b 09		 mov	 ecx, DWORD PTR [ecx]
  000e5	85 c9		 test	 ecx, ecx
  000e7	74 31		 je	 SHORT $LN8@ProcessFol
  000e9	81 c1 d4 02 00
	00		 add	 ecx, 724		; 000002d4H
  000ef	51		 push	 ecx
  000f0	8d 8b 20 15 00
	00		 lea	 ecx, DWORD PTR [ebx+5408]
  000f6	ff 15 00 00 00
	00		 call	 DWORD PTR __imp_??4ioHashString@@QAEAAV0@ABV0@@Z
  000fc	83 4d fc ff	 or	 DWORD PTR __$EHRec$[ebp+8], -1
  00100	8d 4d d0	 lea	 ecx, DWORD PTR _vTargetList$580752[ebp]
  00103	e8 00 00 00 00	 call	 ?_Tidy@?$vector@PAVioBaseChar@@V?$allocator@PAVioBaseChar@@@std@@@std@@IAEXXZ ; std::vector<ioBaseChar *,std::allocator<ioBaseChar *> >::_Tidy

; 372  : 	{
; 373  : 		SetRotateToTarget( pOwner );

  00108	56		 push	 esi
  00109	8b cb		 mov	 ecx, ebx
  0010b	e8 00 00 00 00	 call	 ?SetRotateToTarget@ioOwnerAttach5Dummy@@IAEXPAVioBaseChar@@@Z ; ioOwnerAttach5Dummy::SetRotateToTarget

; 374  : 		SetAttackState( pOwner );

  00110	56		 push	 esi
  00111	8b cb		 mov	 ecx, ebx
  00113	e8 00 00 00 00	 call	 ?SetAttackState@ioOwnerAttach5Dummy@@IAEXPAVioBaseChar@@@Z ; ioOwnerAttach5Dummy::SetAttackState

; 375  : 	}
; 376  : 	else

  00118	eb 39		 jmp	 SHORT $LN1@ProcessFol

; 367  : 		return;
; 368  : 	}
; 369  : 
; 370  : 	// 
; 371  : 	if ( FindTarget( pOwner ) )

$LN8@ProcessFol:
  0011a	83 4d fc ff	 or	 DWORD PTR __$EHRec$[ebp+8], -1
  0011e	8d 4d d0	 lea	 ecx, DWORD PTR _vTargetList$580752[ebp]
  00121	e8 00 00 00 00	 call	 ?_Tidy@?$vector@PAVioBaseChar@@V?$allocator@PAVioBaseChar@@@std@@@std@@IAEXXZ ; std::vector<ioBaseChar *,std::allocator<ioBaseChar *> >::_Tidy
$LN2@ProcessFol:

; 377  : 	{
; 378  : 		// 
; 379  : 		FollowOwner( pOwner, fTimePerSec );

  00126	f3 0f 10 45 0c	 movss	 xmm0, DWORD PTR _fTimePerSec$[ebp]
  0012b	51		 push	 ecx
  0012c	f3 0f 11 04 24	 movss	 DWORD PTR [esp], xmm0
  00131	ff 75 e0	 push	 DWORD PTR _pOwner$GSCopy$[ebp]
  00134	8b cb		 mov	 ecx, ebx
  00136	e8 00 00 00 00	 call	 ?FollowOwner@ioOwnerAttach5Dummy@@IAEXPAVioBaseChar@@M@Z ; ioOwnerAttach5Dummy::FollowOwner

; 380  : 		// 
; 381  : 		CheckInputKey( pOwner );

  0013b	ff 75 e0	 push	 DWORD PTR _pOwner$GSCopy$[ebp]
  0013e	8b cb		 mov	 ecx, ebx
  00140	e8 00 00 00 00	 call	 ?CheckInputKey@ioOwnerAttach5Dummy@@IAEXPAVioBaseChar@@@Z ; ioOwnerAttach5Dummy::CheckInputKey
  00145	eb 0c		 jmp	 SHORT $LN1@ProcessFol
$LN3@ProcessFol:

; 365  : 	{
; 366  : 		SetDieState( true );

  00147	8b 03		 mov	 eax, DWORD PTR [ebx]
  00149	6a 01		 push	 1
  0014b	8b cb		 mov	 ecx, ebx
  0014d	ff 90 60 01 00
	00		 call	 DWORD PTR [eax+352]
$LN1@ProcessFol:

; 382  : 	}
; 383  : }

  00153	e8 00 00 00 00	 call	 __EH_epilog3_GS
  00158	c2 08 00	 ret	 8
_TEXT	ENDS
;	COMDAT text$x
text$x	SEGMENT
__unwindfunclet$?ProcessFollowState@ioOwnerAttach5Dummy@@IAEXPAVioBaseChar@@M@Z$0:
  00000	8d 4d d0	 lea	 ecx, DWORD PTR _vTargetList$580752[ebp]
  00003	e9 00 00 00 00	 jmp	 ??1?$vector@PAVioBaseChar@@V?$allocator@PAVioBaseChar@@@std@@@std@@QAE@XZ ; std::vector<ioBaseChar *,std::allocator<ioBaseChar *> >::~vector<ioBaseChar *,std::allocator<ioBaseChar *> >
__ehhandler$?ProcessFollowState@ioOwnerAttach5Dummy@@IAEXPAVioBaseChar@@M@Z:
  00008	8b 54 24 08	 mov	 edx, DWORD PTR [esp+8]
  0000c	8d 42 0c	 lea	 eax, DWORD PTR [edx+12]
  0000f	8b 4a cc	 mov	 ecx, DWORD PTR [edx-52]
  00012	33 c8		 xor	 ecx, eax
  00014	e8 00 00 00 00	 call	 @__security_check_cookie@4
  00019	8b 4a fc	 mov	 ecx, DWORD PTR [edx-4]
  0001c	33 c8		 xor	 ecx, eax
  0001e	e8 00 00 00 00	 call	 @__security_check_cookie@4
  00023	b8 00 00 00 00	 mov	 eax, OFFSET __ehfuncinfo$?ProcessFollowState@ioOwnerAttach5Dummy@@IAEXPAVioBaseChar@@M@Z
  00028	e9 00 00 00 00	 jmp	 ___CxxFrameHandler3
text$x	ENDS
?ProcessFollowState@ioOwnerAttach5Dummy@@IAEXPAVioBaseChar@@M@Z ENDP ; ioOwnerAttach5Dummy::ProcessFollowState
EXTRN	?SendDieState@ioDummyChar@@QAEX_N@Z:PROC	; ioDummyChar::SendDieState
; Function compile flags: /Ogsp
;	COMDAT ?ProcessState@ioOwnerAttach5Dummy@@MAEXMK@Z
_TEXT	SEGMENT
_fTimePerSec$ = 8					; size = 4
_dwPreTime$ = 12					; size = 4
?ProcessState@ioOwnerAttach5Dummy@@MAEXMK@Z PROC	; ioOwnerAttach5Dummy::ProcessState, COMDAT
; _this$ = ecx

; 79   : {

  00000	55		 push	 ebp
  00001	8b ec		 mov	 ebp, esp
  00003	56		 push	 esi
  00004	57		 push	 edi
  00005	8b f1		 mov	 esi, ecx

; 80   : 	ioBaseChar *pOwner = GetOwner();

  00007	e8 00 00 00 00	 call	 ?GetOwner@ioDummyChar@@QBEPAVioBaseChar@@XZ ; ioDummyChar::GetOwner
  0000c	8b f8		 mov	 edi, eax

; 81   : 	if( !pOwner || CheckDropZone( pOwner ) )

  0000e	85 ff		 test	 edi, edi
  00010	0f 84 9c 00 00
	00		 je	 $LN9@ProcessSta@2
  00016	57		 push	 edi
  00017	8b ce		 mov	 ecx, esi
  00019	e8 00 00 00 00	 call	 ?CheckDropZone@ioOwnerAttach5Dummy@@IAE_NPAVioBaseChar@@@Z ; ioOwnerAttach5Dummy::CheckDropZone
  0001e	84 c0		 test	 al, al
  00020	0f 85 8c 00 00
	00		 jne	 $LN9@ProcessSta@2

; 84   : 		return;
; 85   : 	}
; 86   : 
; 87   : 	if ( pOwner->GetState() == CS_BLOW_WOUNDED )

  00026	80 bf 10 03 00
	00 0c		 cmp	 BYTE PTR [edi+784], 12	; 0000000cH
  0002d	75 0e		 jne	 SHORT $LN8@ProcessSta@2

; 88   : 	{
; 89   : 		SendDieState( true );

  0002f	6a 01		 push	 1
  00031	8b ce		 mov	 ecx, esi
  00033	e8 00 00 00 00	 call	 ?SendDieState@ioDummyChar@@QAEX_N@Z ; ioDummyChar::SendDieState

; 90   : 		return;

  00038	e9 81 00 00 00	 jmp	 $LN6@ProcessSta@2
$LN8@ProcessSta@2:

; 91   : 	}
; 92   : 
; 93   : 	switch( m_AttachState )

  0003d	8b 86 ec 14 00
	00		 mov	 eax, DWORD PTR [esi+5356]
  00043	83 e8 00	 sub	 eax, 0
  00046	74 60		 je	 SHORT $LN5@ProcessSta@2
  00048	48		 dec	 eax
  00049	74 48		 je	 SHORT $LN4@ProcessSta@2
  0004b	48		 dec	 eax
  0004c	74 30		 je	 SHORT $LN3@ProcessSta@2
  0004e	48		 dec	 eax
  0004f	74 18		 je	 SHORT $LN2@ProcessSta@2
  00051	48		 dec	 eax
  00052	75 6a		 jne	 SHORT $LN6@ProcessSta@2

; 107  : 	case AS_Attack:
; 108  : 		ProcessAttackState( pOwner, fTimePerSec );

  00054	f3 0f 10 45 08	 movss	 xmm0, DWORD PTR _fTimePerSec$[ebp]
  00059	51		 push	 ecx
  0005a	f3 0f 11 04 24	 movss	 DWORD PTR [esp], xmm0
  0005f	57		 push	 edi
  00060	8b ce		 mov	 ecx, esi
  00062	e8 00 00 00 00	 call	 ?ProcessAttackState@ioOwnerAttach5Dummy@@IAEXPAVioBaseChar@@M@Z ; ioOwnerAttach5Dummy::ProcessAttackState

; 109  : 		break;

  00067	eb 55		 jmp	 SHORT $LN6@ProcessSta@2
$LN2@ProcessSta@2:

; 104  : 	case AS_Follow:
; 105  : 		ProcessFollowState( pOwner, fTimePerSec );

  00069	f3 0f 10 45 08	 movss	 xmm0, DWORD PTR _fTimePerSec$[ebp]
  0006e	51		 push	 ecx
  0006f	f3 0f 11 04 24	 movss	 DWORD PTR [esp], xmm0
  00074	57		 push	 edi
  00075	8b ce		 mov	 ecx, esi
  00077	e8 00 00 00 00	 call	 ?ProcessFollowState@ioOwnerAttach5Dummy@@IAEXPAVioBaseChar@@M@Z ; ioOwnerAttach5Dummy::ProcessFollowState

; 106  : 		break;

  0007c	eb 40		 jmp	 SHORT $LN6@ProcessSta@2
$LN3@ProcessSta@2:

; 101  : 	case AS_Delay:
; 102  : 		ProcessDelayState( pOwner, fTimePerSec );

  0007e	f3 0f 10 45 08	 movss	 xmm0, DWORD PTR _fTimePerSec$[ebp]
  00083	51		 push	 ecx
  00084	f3 0f 11 04 24	 movss	 DWORD PTR [esp], xmm0
  00089	57		 push	 edi
  0008a	8b ce		 mov	 ecx, esi
  0008c	e8 00 00 00 00	 call	 ?ProcessDelayState@ioOwnerAttach5Dummy@@IAEXPAVioBaseChar@@M@Z ; ioOwnerAttach5Dummy::ProcessDelayState

; 103  : 		break;

  00091	eb 2b		 jmp	 SHORT $LN6@ProcessSta@2
$LN4@ProcessSta@2:

; 98   : 	case AS_Start:
; 99   : 		ProcessStartState( pOwner, fTimePerSec );

  00093	f3 0f 10 45 08	 movss	 xmm0, DWORD PTR _fTimePerSec$[ebp]
  00098	51		 push	 ecx
  00099	f3 0f 11 04 24	 movss	 DWORD PTR [esp], xmm0
  0009e	57		 push	 edi
  0009f	8b ce		 mov	 ecx, esi
  000a1	e8 00 00 00 00	 call	 ?ProcessStartState@ioOwnerAttach5Dummy@@IAEXPAVioBaseChar@@M@Z ; ioOwnerAttach5Dummy::ProcessStartState

; 100  : 		break;

  000a6	eb 16		 jmp	 SHORT $LN6@ProcessSta@2
$LN5@ProcessSta@2:

; 94   : 	{
; 95   : 	case AS_None:
; 96   : 		SetStartState( pOwner );

  000a8	57		 push	 edi
  000a9	8b ce		 mov	 ecx, esi
  000ab	e8 00 00 00 00	 call	 ?SetStartState@ioOwnerAttach5Dummy@@IAEXPAVioBaseChar@@@Z ; ioOwnerAttach5Dummy::SetStartState

; 97   : 		break;

  000b0	eb 0c		 jmp	 SHORT $LN6@ProcessSta@2
$LN9@ProcessSta@2:

; 82   : 	{
; 83   : 		SetDieState( true );

  000b2	8b 06		 mov	 eax, DWORD PTR [esi]
  000b4	6a 01		 push	 1
  000b6	8b ce		 mov	 ecx, esi
  000b8	ff 90 60 01 00
	00		 call	 DWORD PTR [eax+352]
$LN6@ProcessSta@2:
  000be	5f		 pop	 edi
  000bf	5e		 pop	 esi

; 110  : 	}
; 111  : }

  000c0	5d		 pop	 ebp
  000c1	c2 08 00	 ret	 8
?ProcessState@ioOwnerAttach5Dummy@@MAEXMK@Z ENDP	; ioOwnerAttach5Dummy::ProcessState
_TEXT	ENDS
END
