; Listing generated by Microsoft (R) Optimizing Compiler Version 16.00.30319.01 

	TITLE	D:\Lost Saga For Developer\Youtube\Tutorial\Source\src\LSClient\ioOwnerAttach4Dummy.cpp
	.686P
	.XMM
	include listing.inc
	.model	flat

INCLUDELIB MSVCRT
INCLUDELIB OLDNAMES

PUBLIC	?_EEM_DS@?$deque@UD3DXVECTOR3@@V?$allocator@UD3DXVECTOR3@@@std@@@std@@2HB ; std::deque<D3DXVECTOR3,std::allocator<D3DXVECTOR3> >::_EEM_DS
;	COMDAT ?_EEM_DS@?$deque@UD3DXVECTOR3@@V?$allocator@UD3DXVECTOR3@@@std@@@std@@2HB
CONST	SEGMENT
?_EEM_DS@?$deque@UD3DXVECTOR3@@V?$allocator@UD3DXVECTOR3@@@std@@@std@@2HB DD 01H ; std::deque<D3DXVECTOR3,std::allocator<D3DXVECTOR3> >::_EEM_DS
CONST	ENDS
PUBLIC	?return1@@YAIXZ					; return1
; Function compile flags: /Ogsp
; File d:\lost saga for developer\youtube\tutorial\source\src\lsclient\stdafx.h
;	COMDAT ?return1@@YAIXZ
_TEXT	SEGMENT
?return1@@YAIXZ PROC					; return1, COMDAT

; 17   : 	__forceinline unsigned int return1() { __asm mov eax, 1 };

  00000	b8 01 00 00 00	 mov	 eax, 1
  00005	c3		 ret	 0
?return1@@YAIXZ ENDP					; return1
_TEXT	ENDS
PUBLIC	?return5@@YAIXZ					; return5
; Function compile flags: /Ogsp
;	COMDAT ?return5@@YAIXZ
_TEXT	SEGMENT
?return5@@YAIXZ PROC					; return5, COMDAT

; 18   : 	__forceinline unsigned int return5() { __asm mov eax, 5 };

  00000	b8 05 00 00 00	 mov	 eax, 5
  00005	c3		 ret	 0
?return5@@YAIXZ ENDP					; return5
_TEXT	ENDS
PUBLIC	?return10@@YAIXZ				; return10
; Function compile flags: /Ogsp
;	COMDAT ?return10@@YAIXZ
_TEXT	SEGMENT
?return10@@YAIXZ PROC					; return10, COMDAT

; 21   : 	__forceinline unsigned int return10() { __asm mov eax, 10 };

  00000	b8 0a 00 00 00	 mov	 eax, 10			; 0000000aH
  00005	c3		 ret	 0
?return10@@YAIXZ ENDP					; return10
_TEXT	ENDS
PUBLIC	_fabsf
EXTRN	__fltused:DWORD
; Function compile flags: /Ogsp
; File c:\program files (x86)\microsoft visual studio 10.0\vc\include\math.h
;	COMDAT _fabsf
_TEXT	SEGMENT
tv129 = 8						; size = 4
__X$ = 8						; size = 4
_fabsf	PROC						; COMDAT

; 395  :         {return ((float)fabs((double)_X)); }

  00000	55		 push	 ebp
  00001	8b ec		 mov	 ebp, esp
  00003	d9 45 08	 fld	 DWORD PTR __X$[ebp]
  00006	d9 e1		 fabs
  00008	d9 5d 08	 fstp	 DWORD PTR tv129[ebp]
  0000b	d9 45 08	 fld	 DWORD PTR tv129[ebp]
  0000e	5d		 pop	 ebp
  0000f	c3		 ret	 0
_fabsf	ENDP
_TEXT	ENDS
PUBLIC	_sqrtf
EXTRN	__CIsqrt:PROC
; Function compile flags: /Ogsp
;	COMDAT _sqrtf
_TEXT	SEGMENT
tv69 = 8						; size = 4
__X$ = 8						; size = 4
_sqrtf	PROC						; COMDAT

; 434  :         {return ((float)sqrt((double)_X)); }

  00000	55		 push	 ebp
  00001	8b ec		 mov	 ebp, esp
  00003	d9 45 08	 fld	 DWORD PTR __X$[ebp]
  00006	e8 00 00 00 00	 call	 __CIsqrt
  0000b	d9 5d 08	 fstp	 DWORD PTR tv69[ebp]
  0000e	d9 45 08	 fld	 DWORD PTR tv69[ebp]
  00011	5d		 pop	 ebp
  00012	c3		 ret	 0
_sqrtf	ENDP
_TEXT	ENDS
PUBLIC	?abs@@YAMM@Z					; abs
; Function compile flags: /Ogsp
;	COMDAT ?abs@@YAMM@Z
_TEXT	SEGMENT
tv131 = 8						; size = 4
__X$ = 8						; size = 4
?abs@@YAMM@Z PROC					; abs, COMDAT

; 500  :         {return (fabsf(_X)); }

  00000	55		 push	 ebp
  00001	8b ec		 mov	 ebp, esp
  00003	d9 45 08	 fld	 DWORD PTR __X$[ebp]
  00006	d9 e1		 fabs
  00008	d9 5d 08	 fstp	 DWORD PTR tv131[ebp]
  0000b	d9 45 08	 fld	 DWORD PTR tv131[ebp]
  0000e	5d		 pop	 ebp
  0000f	c3		 ret	 0
?abs@@YAMM@Z ENDP					; abs
_TEXT	ENDS
PUBLIC	??_7bad_alloc@std@@6B@				; std::bad_alloc::`vftable'
PUBLIC	??0bad_alloc@std@@QAE@PBD@Z			; std::bad_alloc::bad_alloc
PUBLIC	??_R4bad_alloc@std@@6B@				; std::bad_alloc::`RTTI Complete Object Locator'
PUBLIC	??_R0?AVbad_alloc@std@@@8			; std::bad_alloc `RTTI Type Descriptor'
PUBLIC	??_R3bad_alloc@std@@8				; std::bad_alloc::`RTTI Class Hierarchy Descriptor'
PUBLIC	??_R2bad_alloc@std@@8				; std::bad_alloc::`RTTI Base Class Array'
PUBLIC	??_R1A@?0A@EA@bad_alloc@std@@8			; std::bad_alloc::`RTTI Base Class Descriptor at (0,-1,0,64)'
PUBLIC	??_R1A@?0A@EA@exception@std@@8			; std::exception::`RTTI Base Class Descriptor at (0,-1,0,64)'
PUBLIC	??_R0?AVexception@std@@@8			; std::exception `RTTI Type Descriptor'
PUBLIC	??_R3exception@std@@8				; std::exception::`RTTI Class Hierarchy Descriptor'
PUBLIC	??_R2exception@std@@8				; std::exception::`RTTI Base Class Array'
EXTRN	__imp_??0exception@std@@QAE@ABQBD@Z:PROC
EXTRN	??_7type_info@@6B@:QWORD			; type_info::`vftable'
EXTRN	??_Ebad_alloc@std@@UAEPAXI@Z:PROC		; std::bad_alloc::`vector deleting destructor'
EXTRN	?what@exception@std@@UBEPBDXZ:PROC		; std::exception::what
;	COMDAT ??_R2exception@std@@8
; File c:\program files (x86)\microsoft visual studio 10.0\vc\include\exception
rdata$r	SEGMENT
??_R2exception@std@@8 DD FLAT:??_R1A@?0A@EA@exception@std@@8 ; std::exception::`RTTI Base Class Array'
rdata$r	ENDS
;	COMDAT ??_R3exception@std@@8
rdata$r	SEGMENT
??_R3exception@std@@8 DD 00H				; std::exception::`RTTI Class Hierarchy Descriptor'
	DD	00H
	DD	01H
	DD	FLAT:??_R2exception@std@@8
rdata$r	ENDS
;	COMDAT ??_R0?AVexception@std@@@8
_DATA	SEGMENT
??_R0?AVexception@std@@@8 DD FLAT:??_7type_info@@6B@	; std::exception `RTTI Type Descriptor'
	DD	00H
	DB	'.?AVexception@std@@', 00H
_DATA	ENDS
;	COMDAT ??_R1A@?0A@EA@exception@std@@8
rdata$r	SEGMENT
??_R1A@?0A@EA@exception@std@@8 DD FLAT:??_R0?AVexception@std@@@8 ; std::exception::`RTTI Base Class Descriptor at (0,-1,0,64)'
	DD	00H
	DD	00H
	DD	0ffffffffH
	DD	00H
	DD	040H
	DD	FLAT:??_R3exception@std@@8
rdata$r	ENDS
;	COMDAT ??_R1A@?0A@EA@bad_alloc@std@@8
rdata$r	SEGMENT
??_R1A@?0A@EA@bad_alloc@std@@8 DD FLAT:??_R0?AVbad_alloc@std@@@8 ; std::bad_alloc::`RTTI Base Class Descriptor at (0,-1,0,64)'
	DD	01H
	DD	00H
	DD	0ffffffffH
	DD	00H
	DD	040H
	DD	FLAT:??_R3bad_alloc@std@@8
rdata$r	ENDS
;	COMDAT ??_R2bad_alloc@std@@8
rdata$r	SEGMENT
??_R2bad_alloc@std@@8 DD FLAT:??_R1A@?0A@EA@bad_alloc@std@@8 ; std::bad_alloc::`RTTI Base Class Array'
	DD	FLAT:??_R1A@?0A@EA@exception@std@@8
rdata$r	ENDS
;	COMDAT ??_R3bad_alloc@std@@8
rdata$r	SEGMENT
??_R3bad_alloc@std@@8 DD 00H				; std::bad_alloc::`RTTI Class Hierarchy Descriptor'
	DD	00H
	DD	02H
	DD	FLAT:??_R2bad_alloc@std@@8
rdata$r	ENDS
;	COMDAT ??_R0?AVbad_alloc@std@@@8
_DATA	SEGMENT
??_R0?AVbad_alloc@std@@@8 DD FLAT:??_7type_info@@6B@	; std::bad_alloc `RTTI Type Descriptor'
	DD	00H
	DB	'.?AVbad_alloc@std@@', 00H
_DATA	ENDS
;	COMDAT ??_R4bad_alloc@std@@6B@
rdata$r	SEGMENT
??_R4bad_alloc@std@@6B@ DD 00H				; std::bad_alloc::`RTTI Complete Object Locator'
	DD	00H
	DD	00H
	DD	FLAT:??_R0?AVbad_alloc@std@@@8
	DD	FLAT:??_R3bad_alloc@std@@8
rdata$r	ENDS
;	COMDAT ??_7bad_alloc@std@@6B@
CONST	SEGMENT
??_7bad_alloc@std@@6B@ DD FLAT:??_R4bad_alloc@std@@6B@	; std::bad_alloc::`vftable'
	DD	FLAT:??_Ebad_alloc@std@@UAEPAXI@Z
	DD	FLAT:?what@exception@std@@UBEPBDXZ
; Function compile flags: /Ogsp
CONST	ENDS
;	COMDAT ??0bad_alloc@std@@QAE@PBD@Z
_TEXT	SEGMENT
__Message$ = 8						; size = 4
??0bad_alloc@std@@QAE@PBD@Z PROC			; std::bad_alloc::bad_alloc, COMDAT
; _this$ = ecx

; 345  : 		{	// construct from message string

  00000	55		 push	 ebp
  00001	8b ec		 mov	 ebp, esp
  00003	56		 push	 esi
  00004	8d 45 08	 lea	 eax, DWORD PTR __Message$[ebp]
  00007	50		 push	 eax
  00008	8b f1		 mov	 esi, ecx
  0000a	ff 15 00 00 00
	00		 call	 DWORD PTR __imp_??0exception@std@@QAE@ABQBD@Z
  00010	c7 06 00 00 00
	00		 mov	 DWORD PTR [esi], OFFSET ??_7bad_alloc@std@@6B@

; 346  : 		}

  00016	8b c6		 mov	 eax, esi
  00018	5e		 pop	 esi
  00019	5d		 pop	 ebp
  0001a	c2 04 00	 ret	 4
??0bad_alloc@std@@QAE@PBD@Z ENDP			; std::bad_alloc::bad_alloc
_TEXT	ENDS
PUBLIC	??1bad_alloc@std@@UAE@XZ			; std::bad_alloc::~bad_alloc
EXTRN	__imp_??1exception@std@@UAE@XZ:PROC
; Function compile flags: /Ogsp
;	COMDAT ??1bad_alloc@std@@UAE@XZ
_TEXT	SEGMENT
??1bad_alloc@std@@UAE@XZ PROC				; std::bad_alloc::~bad_alloc, COMDAT
; _this$ = ecx

; 354  : 		{	// destroy the object

  00000	c7 01 00 00 00
	00		 mov	 DWORD PTR [ecx], OFFSET ??_7bad_alloc@std@@6B@

; 355  : 		}

  00006	ff 25 00 00 00
	00		 jmp	 DWORD PTR __imp_??1exception@std@@UAE@XZ
??1bad_alloc@std@@UAE@XZ ENDP				; std::bad_alloc::~bad_alloc
_TEXT	ENDS
EXTRN	??3@YAXPAX@Z:PROC				; operator delete
; Function compile flags: /Ogsp
;	COMDAT ??_Gbad_alloc@std@@UAEPAXI@Z
_TEXT	SEGMENT
___flags$ = 8						; size = 4
??_Gbad_alloc@std@@UAEPAXI@Z PROC			; std::bad_alloc::`scalar deleting destructor', COMDAT
; _this$ = ecx
  00000	55		 push	 ebp
  00001	8b ec		 mov	 ebp, esp
  00003	56		 push	 esi
  00004	8b f1		 mov	 esi, ecx
  00006	c7 06 00 00 00
	00		 mov	 DWORD PTR [esi], OFFSET ??_7bad_alloc@std@@6B@
  0000c	ff 15 00 00 00
	00		 call	 DWORD PTR __imp_??1exception@std@@UAE@XZ
  00012	f6 45 08 01	 test	 BYTE PTR ___flags$[ebp], 1
  00016	74 07		 je	 SHORT $LN1@scalar
  00018	56		 push	 esi
  00019	e8 00 00 00 00	 call	 ??3@YAXPAX@Z		; operator delete
  0001e	59		 pop	 ecx
$LN1@scalar:
  0001f	8b c6		 mov	 eax, esi
  00021	5e		 pop	 esi
  00022	5d		 pop	 ebp
  00023	c2 04 00	 ret	 4
??_Gbad_alloc@std@@UAEPAXI@Z ENDP			; std::bad_alloc::`scalar deleting destructor'
_TEXT	ENDS
PUBLIC	??2@YAPAXIPAX@Z					; operator new
; Function compile flags: /Ogsp
; File c:\program files (x86)\microsoft visual studio 10.0\vc\include\new
;	COMDAT ??2@YAPAXIPAX@Z
_TEXT	SEGMENT
___formal$ = 8						; size = 4
__Where$ = 12						; size = 4
??2@YAPAXIPAX@Z PROC					; operator new, COMDAT

; 56   : 	{	// construct array with placement at _Where

  00000	55		 push	 ebp
  00001	8b ec		 mov	 ebp, esp

; 57   : 	return (_Where);

  00003	8b 45 0c	 mov	 eax, DWORD PTR __Where$[ebp]

; 58   : 	}

  00006	5d		 pop	 ebp
  00007	c3		 ret	 0
??2@YAPAXIPAX@Z ENDP					; operator new
_TEXT	ENDS
PUBLIC	??3@YAXPAX0@Z					; operator delete
; Function compile flags: /Ogsp
;	COMDAT ??3@YAXPAX0@Z
_TEXT	SEGMENT
___formal$ = 8						; size = 4
___formal$ = 12						; size = 4
??3@YAXPAX0@Z PROC					; operator delete, COMDAT

; 62   : 	}

  00000	c3		 ret	 0
??3@YAXPAX0@Z ENDP					; operator delete
_TEXT	ENDS
PUBLIC	?_Adopt@_Iterator_base0@std@@QAEXPBX@Z		; std::_Iterator_base0::_Adopt
; Function compile flags: /Ogsp
; File c:\program files (x86)\microsoft visual studio 10.0\vc\include\xutility
;	COMDAT ?_Adopt@_Iterator_base0@std@@QAEXPBX@Z
_TEXT	SEGMENT
___formal$ = 8						; size = 4
?_Adopt@_Iterator_base0@std@@QAEXPBX@Z PROC		; std::_Iterator_base0::_Adopt, COMDAT
; _this$ = ecx

; 49   : 		}

  00000	c2 04 00	 ret	 4
?_Adopt@_Iterator_base0@std@@QAEXPBX@Z ENDP		; std::_Iterator_base0::_Adopt
_TEXT	ENDS
PUBLIC	__real@4f800000
PUBLIC	?SetDelayState@ioOwnerAttach4Dummy@@IAEXXZ	; ioOwnerAttach4Dummy::SetDelayState
EXTRN	__imp_?SetLoopAni@ioEntityGroup@@QAE_NHMMMM@Z:PROC
EXTRN	__imp_?ClearAllLoopAni@ioEntityGroup@@QAEXM_N@Z:PROC
EXTRN	__imp_?ClearAllActionAni@ioEntityGroup@@QAEXM_N@Z:PROC
EXTRN	__imp_?GetAnimationIdx@ioEntityGroup@@QAEHABVioHashString@@@Z:PROC
EXTRN	__imp_?IsEmpty@ioHashString@@QBE_NXZ:PROC
;	COMDAT __real@4f800000
; File d:\lost saga for developer\youtube\tutorial\source\src\lsclient\stdafx.h
CONST	SEGMENT
__real@4f800000 DD 04f800000r			; 4.29497e+009
; Function compile flags: /Ogsp
; File d:\lost saga for developer\youtube\tutorial\source\src\lsclient\ioownerattach4dummy.cpp
CONST	ENDS
;	COMDAT ?SetDelayState@ioOwnerAttach4Dummy@@IAEXXZ
_TEXT	SEGMENT
tv197 = -8						; size = 4
tv195 = -8						; size = 4
tv139 = -8						; size = 4
tv245 = -4						; size = 4
tv239 = -4						; size = 4
tv234 = -4						; size = 4
tv141 = -4						; size = 4
_fAniRate$551761 = -4					; size = 4
?SetDelayState@ioOwnerAttach4Dummy@@IAEXXZ PROC		; ioOwnerAttach4Dummy::SetDelayState, COMDAT
; _this$ = ecx

; 205  : {

  00000	55		 push	 ebp
  00001	8b ec		 mov	 ebp, esp
  00003	51		 push	 ecx
  00004	51		 push	 ecx
  00005	56		 push	 esi
  00006	8b f1		 mov	 esi, ecx

; 206  : 	if( m_State == DCS_DELAY )

  00008	6a 02		 push	 2
  0000a	59		 pop	 ecx
  0000b	39 8e 30 02 00
	00		 cmp	 DWORD PTR [esi+560], ecx
  00011	0f 84 12 01 00
	00		 je	 $LN2@SetDelaySt

; 207  : 		return;
; 208  : 
; 209  : 	m_State = DCS_DELAY;

  00017	57		 push	 edi
  00018	89 8e 30 02 00
	00		 mov	 DWORD PTR [esi+560], ecx

; 210  : 
; 211  : 	if( !m_DelayAnimation.IsEmpty() )

  0001e	8d be a8 06 00
	00		 lea	 edi, DWORD PTR [esi+1704]
  00024	8b cf		 mov	 ecx, edi
  00026	ff 15 00 00 00
	00		 call	 DWORD PTR __imp_?IsEmpty@ioHashString@@QBE_NXZ
  0002c	84 c0		 test	 al, al
  0002e	0f 85 f4 00 00
	00		 jne	 $LN19@SetDelaySt

; 212  : 	{
; 213  : 		int iAniID = m_pGroup->GetAnimationIdx( m_DelayAnimation );

  00034	8b 4e 04	 mov	 ecx, DWORD PTR [esi+4]
  00037	57		 push	 edi
  00038	ff 15 00 00 00
	00		 call	 DWORD PTR __imp_?GetAnimationIdx@ioEntityGroup@@QAEHABVioHashString@@@Z
  0003e	8b f8		 mov	 edi, eax

; 214  : 		if( iAniID != -1 )

  00040	83 ff ff	 cmp	 edi, -1
  00043	0f 84 df 00 00
	00		 je	 $LN19@SetDelaySt

; 215  : 		{
; 216  : 			m_pGroup->ClearAllActionAni( FLOAT10, true );

  00049	b8 0a 00 00 00	 mov	 eax, 10			; 0000000aH
  0004e	89 45 fc	 mov	 DWORD PTR tv245[ebp], eax
  00051	db 45 fc	 fild	 DWORD PTR tv245[ebp]
  00054	6a 01		 push	 1
  00056	85 c0		 test	 eax, eax
  00058	79 06		 jns	 SHORT $LN20@SetDelaySt
  0005a	d8 05 00 00 00
	00		 fadd	 DWORD PTR __real@4f800000
$LN20@SetDelaySt:
  00060	51		 push	 ecx
  00061	8b 4e 04	 mov	 ecx, DWORD PTR [esi+4]
  00064	d9 1c 24	 fstp	 DWORD PTR [esp]
  00067	ff 15 00 00 00
	00		 call	 DWORD PTR __imp_?ClearAllActionAni@ioEntityGroup@@QAEXM_N@Z

; 217  : 			m_pGroup->ClearAllLoopAni( FLOAT10, true );

  0006d	b8 0a 00 00 00	 mov	 eax, 10			; 0000000aH
  00072	89 45 fc	 mov	 DWORD PTR tv239[ebp], eax
  00075	db 45 fc	 fild	 DWORD PTR tv239[ebp]
  00078	6a 01		 push	 1
  0007a	85 c0		 test	 eax, eax
  0007c	79 06		 jns	 SHORT $LN21@SetDelaySt
  0007e	d8 05 00 00 00
	00		 fadd	 DWORD PTR __real@4f800000
$LN21@SetDelaySt:
  00084	51		 push	 ecx
  00085	8b 4e 04	 mov	 ecx, DWORD PTR [esi+4]
  00088	d9 1c 24	 fstp	 DWORD PTR [esp]
  0008b	ff 15 00 00 00
	00		 call	 DWORD PTR __imp_?ClearAllLoopAni@ioEntityGroup@@QAEXM_N@Z

; 218  : 
; 219  : 			float fAniRate = FLOAT1;

  00091	b8 01 00 00 00	 mov	 eax, 1
  00096	89 45 fc	 mov	 DWORD PTR tv234[ebp], eax
  00099	db 45 fc	 fild	 DWORD PTR tv234[ebp]
  0009c	85 c0		 test	 eax, eax
  0009e	79 06		 jns	 SHORT $LN22@SetDelaySt
  000a0	d8 05 00 00 00
	00		 fadd	 DWORD PTR __real@4f800000
$LN22@SetDelaySt:

; 220  : 			if( m_fMoveAniRate > 0.0f )

  000a6	f3 0f 10 86 cc
	06 00 00	 movss	 xmm0, DWORD PTR [esi+1740]
  000ae	d9 5d fc	 fstp	 DWORD PTR _fAniRate$551761[ebp]
  000b1	0f 57 c9	 xorps	 xmm1, xmm1
  000b4	0f 2f c1	 comiss	 xmm0, xmm1
  000b7	76 05		 jbe	 SHORT $LN1@SetDelaySt

; 221  : 				fAniRate = m_fMoveAniRate;

  000b9	f3 0f 11 45 fc	 movss	 DWORD PTR _fAniRate$551761[ebp], xmm0
$LN1@SetDelaySt:

; 222  : 
; 223  : 			m_pGroup->SetLoopAni( iAniID, FLOAT10, FLOAT1, FLOAT1/fAniRate );

  000be	b8 01 00 00 00	 mov	 eax, 1
  000c3	8b c8		 mov	 ecx, eax
  000c5	b8 01 00 00 00	 mov	 eax, 1
  000ca	8b d0		 mov	 edx, eax
  000cc	b8 0a 00 00 00	 mov	 eax, 10			; 0000000aH
  000d1	83 ec 10	 sub	 esp, 16			; 00000010H
  000d4	89 4d f8	 mov	 DWORD PTR tv195[ebp], ecx
  000d7	db 45 f8	 fild	 DWORD PTR tv195[ebp]
  000da	f3 0f 11 4c 24
	0c		 movss	 DWORD PTR [esp+12], xmm1
  000e0	85 c9		 test	 ecx, ecx
  000e2	79 06		 jns	 SHORT $LN23@SetDelaySt
  000e4	d8 05 00 00 00
	00		 fadd	 DWORD PTR __real@4f800000
$LN23@SetDelaySt:
  000ea	d8 75 fc	 fdiv	 DWORD PTR _fAniRate$551761[ebp]
  000ed	89 55 f8	 mov	 DWORD PTR tv197[ebp], edx
  000f0	d9 5d fc	 fstp	 DWORD PTR tv141[ebp]
  000f3	d9 45 fc	 fld	 DWORD PTR tv141[ebp]
  000f6	d9 5c 24 08	 fstp	 DWORD PTR [esp+8]
  000fa	db 45 f8	 fild	 DWORD PTR tv197[ebp]
  000fd	85 d2		 test	 edx, edx
  000ff	79 06		 jns	 SHORT $LN24@SetDelaySt
  00101	d8 05 00 00 00
	00		 fadd	 DWORD PTR __real@4f800000
$LN24@SetDelaySt:
  00107	89 45 f8	 mov	 DWORD PTR tv139[ebp], eax
  0010a	d9 5c 24 04	 fstp	 DWORD PTR [esp+4]
  0010e	db 45 f8	 fild	 DWORD PTR tv139[ebp]
  00111	85 c0		 test	 eax, eax
  00113	79 06		 jns	 SHORT $LN25@SetDelaySt
  00115	d8 05 00 00 00
	00		 fadd	 DWORD PTR __real@4f800000
$LN25@SetDelaySt:
  0011b	8b 4e 04	 mov	 ecx, DWORD PTR [esi+4]
  0011e	d9 1c 24	 fstp	 DWORD PTR [esp]
  00121	57		 push	 edi
  00122	ff 15 00 00 00
	00		 call	 DWORD PTR __imp_?SetLoopAni@ioEntityGroup@@QAE_NHMMMM@Z
$LN19@SetDelaySt:
  00128	5f		 pop	 edi
$LN2@SetDelaySt:
  00129	5e		 pop	 esi

; 224  : 		}
; 225  : 	}
; 226  : }

  0012a	c9		 leave
  0012b	c3		 ret	 0
?SetDelayState@ioOwnerAttach4Dummy@@IAEXXZ ENDP		; ioOwnerAttach4Dummy::SetDelayState
_TEXT	ENDS
PUBLIC	?SetFollowState@ioOwnerAttach4Dummy@@IAEXXZ	; ioOwnerAttach4Dummy::SetFollowState
; Function compile flags: /Ogsp
;	COMDAT ?SetFollowState@ioOwnerAttach4Dummy@@IAEXXZ
_TEXT	SEGMENT
tv197 = -8						; size = 4
tv195 = -8						; size = 4
tv139 = -8						; size = 4
tv245 = -4						; size = 4
tv239 = -4						; size = 4
tv234 = -4						; size = 4
tv141 = -4						; size = 4
_fAniRate$551776 = -4					; size = 4
?SetFollowState@ioOwnerAttach4Dummy@@IAEXXZ PROC	; ioOwnerAttach4Dummy::SetFollowState, COMDAT
; _this$ = ecx

; 229  : {

  00000	55		 push	 ebp
  00001	8b ec		 mov	 ebp, esp
  00003	51		 push	 ecx
  00004	51		 push	 ecx
  00005	56		 push	 esi
  00006	8b f1		 mov	 esi, ecx

; 230  : 	if( m_State == DCS_MOVE )

  00008	6a 03		 push	 3
  0000a	59		 pop	 ecx
  0000b	39 8e 30 02 00
	00		 cmp	 DWORD PTR [esi+560], ecx
  00011	0f 84 12 01 00
	00		 je	 $LN2@SetFollowS

; 231  : 		return;
; 232  : 
; 233  : 	m_State = DCS_MOVE;

  00017	57		 push	 edi
  00018	89 8e 30 02 00
	00		 mov	 DWORD PTR [esi+560], ecx

; 234  : 	if( !m_MoveAnimation.IsEmpty() )

  0001e	8d be bc 06 00
	00		 lea	 edi, DWORD PTR [esi+1724]
  00024	8b cf		 mov	 ecx, edi
  00026	ff 15 00 00 00
	00		 call	 DWORD PTR __imp_?IsEmpty@ioHashString@@QBE_NXZ
  0002c	84 c0		 test	 al, al
  0002e	0f 85 f4 00 00
	00		 jne	 $LN19@SetFollowS

; 235  : 	{
; 236  : 		int iAniID = m_pGroup->GetAnimationIdx( m_MoveAnimation );

  00034	8b 4e 04	 mov	 ecx, DWORD PTR [esi+4]
  00037	57		 push	 edi
  00038	ff 15 00 00 00
	00		 call	 DWORD PTR __imp_?GetAnimationIdx@ioEntityGroup@@QAEHABVioHashString@@@Z
  0003e	8b f8		 mov	 edi, eax

; 237  : 		if( iAniID != -1 )

  00040	83 ff ff	 cmp	 edi, -1
  00043	0f 84 df 00 00
	00		 je	 $LN19@SetFollowS

; 238  : 		{
; 239  : 			m_pGroup->ClearAllActionAni( FLOAT10, true );

  00049	b8 0a 00 00 00	 mov	 eax, 10			; 0000000aH
  0004e	89 45 fc	 mov	 DWORD PTR tv245[ebp], eax
  00051	db 45 fc	 fild	 DWORD PTR tv245[ebp]
  00054	6a 01		 push	 1
  00056	85 c0		 test	 eax, eax
  00058	79 06		 jns	 SHORT $LN20@SetFollowS
  0005a	d8 05 00 00 00
	00		 fadd	 DWORD PTR __real@4f800000
$LN20@SetFollowS:
  00060	51		 push	 ecx
  00061	8b 4e 04	 mov	 ecx, DWORD PTR [esi+4]
  00064	d9 1c 24	 fstp	 DWORD PTR [esp]
  00067	ff 15 00 00 00
	00		 call	 DWORD PTR __imp_?ClearAllActionAni@ioEntityGroup@@QAEXM_N@Z

; 240  : 			m_pGroup->ClearAllLoopAni( FLOAT10, true );

  0006d	b8 0a 00 00 00	 mov	 eax, 10			; 0000000aH
  00072	89 45 fc	 mov	 DWORD PTR tv239[ebp], eax
  00075	db 45 fc	 fild	 DWORD PTR tv239[ebp]
  00078	6a 01		 push	 1
  0007a	85 c0		 test	 eax, eax
  0007c	79 06		 jns	 SHORT $LN21@SetFollowS
  0007e	d8 05 00 00 00
	00		 fadd	 DWORD PTR __real@4f800000
$LN21@SetFollowS:
  00084	51		 push	 ecx
  00085	8b 4e 04	 mov	 ecx, DWORD PTR [esi+4]
  00088	d9 1c 24	 fstp	 DWORD PTR [esp]
  0008b	ff 15 00 00 00
	00		 call	 DWORD PTR __imp_?ClearAllLoopAni@ioEntityGroup@@QAEXM_N@Z

; 241  : 
; 242  : 			float fAniRate = FLOAT1;

  00091	b8 01 00 00 00	 mov	 eax, 1
  00096	89 45 fc	 mov	 DWORD PTR tv234[ebp], eax
  00099	db 45 fc	 fild	 DWORD PTR tv234[ebp]
  0009c	85 c0		 test	 eax, eax
  0009e	79 06		 jns	 SHORT $LN22@SetFollowS
  000a0	d8 05 00 00 00
	00		 fadd	 DWORD PTR __real@4f800000
$LN22@SetFollowS:

; 243  : 			if( m_fMoveAniRate > 0.0f )

  000a6	f3 0f 10 86 cc
	06 00 00	 movss	 xmm0, DWORD PTR [esi+1740]
  000ae	d9 5d fc	 fstp	 DWORD PTR _fAniRate$551776[ebp]
  000b1	0f 57 c9	 xorps	 xmm1, xmm1
  000b4	0f 2f c1	 comiss	 xmm0, xmm1
  000b7	76 05		 jbe	 SHORT $LN1@SetFollowS

; 244  : 				fAniRate = m_fMoveAniRate;

  000b9	f3 0f 11 45 fc	 movss	 DWORD PTR _fAniRate$551776[ebp], xmm0
$LN1@SetFollowS:

; 245  : 
; 246  : 			m_pGroup->SetLoopAni( iAniID, FLOAT10, FLOAT1, FLOAT1/fAniRate );

  000be	b8 01 00 00 00	 mov	 eax, 1
  000c3	8b c8		 mov	 ecx, eax
  000c5	b8 01 00 00 00	 mov	 eax, 1
  000ca	8b d0		 mov	 edx, eax
  000cc	b8 0a 00 00 00	 mov	 eax, 10			; 0000000aH
  000d1	83 ec 10	 sub	 esp, 16			; 00000010H
  000d4	89 4d f8	 mov	 DWORD PTR tv195[ebp], ecx
  000d7	db 45 f8	 fild	 DWORD PTR tv195[ebp]
  000da	f3 0f 11 4c 24
	0c		 movss	 DWORD PTR [esp+12], xmm1
  000e0	85 c9		 test	 ecx, ecx
  000e2	79 06		 jns	 SHORT $LN23@SetFollowS
  000e4	d8 05 00 00 00
	00		 fadd	 DWORD PTR __real@4f800000
$LN23@SetFollowS:
  000ea	d8 75 fc	 fdiv	 DWORD PTR _fAniRate$551776[ebp]
  000ed	89 55 f8	 mov	 DWORD PTR tv197[ebp], edx
  000f0	d9 5d fc	 fstp	 DWORD PTR tv141[ebp]
  000f3	d9 45 fc	 fld	 DWORD PTR tv141[ebp]
  000f6	d9 5c 24 08	 fstp	 DWORD PTR [esp+8]
  000fa	db 45 f8	 fild	 DWORD PTR tv197[ebp]
  000fd	85 d2		 test	 edx, edx
  000ff	79 06		 jns	 SHORT $LN24@SetFollowS
  00101	d8 05 00 00 00
	00		 fadd	 DWORD PTR __real@4f800000
$LN24@SetFollowS:
  00107	89 45 f8	 mov	 DWORD PTR tv139[ebp], eax
  0010a	d9 5c 24 04	 fstp	 DWORD PTR [esp+4]
  0010e	db 45 f8	 fild	 DWORD PTR tv139[ebp]
  00111	85 c0		 test	 eax, eax
  00113	79 06		 jns	 SHORT $LN25@SetFollowS
  00115	d8 05 00 00 00
	00		 fadd	 DWORD PTR __real@4f800000
$LN25@SetFollowS:
  0011b	8b 4e 04	 mov	 ecx, DWORD PTR [esi+4]
  0011e	d9 1c 24	 fstp	 DWORD PTR [esp]
  00121	57		 push	 edi
  00122	ff 15 00 00 00
	00		 call	 DWORD PTR __imp_?SetLoopAni@ioEntityGroup@@QAE_NHMMMM@Z
$LN19@SetFollowS:
  00128	5f		 pop	 edi
$LN2@SetFollowS:
  00129	5e		 pop	 esi

; 247  : 		}
; 248  : 	}
; 249  : }

  0012a	c9		 leave
  0012b	c3		 ret	 0
?SetFollowState@ioOwnerAttach4Dummy@@IAEXXZ ENDP	; ioOwnerAttach4Dummy::SetFollowState
_TEXT	ENDS
PUBLIC	?ApplyDummyCharSync@ioOwnerAttach4Dummy@@UAEXPAVioPlayStage@@AAVSP2Packet@@@Z ; ioOwnerAttach4Dummy::ApplyDummyCharSync
EXTRN	??5SP2Packet@@QAEAAV0@AAH@Z:PROC		; SP2Packet::operator>>
; Function compile flags: /Ogsp
;	COMDAT ?ApplyDummyCharSync@ioOwnerAttach4Dummy@@UAEXPAVioPlayStage@@AAVSP2Packet@@@Z
_TEXT	SEGMENT
_state$ = 8						; size = 4
_pStage$ = 8						; size = 4
_rkPacket$ = 12						; size = 4
?ApplyDummyCharSync@ioOwnerAttach4Dummy@@UAEXPAVioPlayStage@@AAVSP2Packet@@@Z PROC ; ioOwnerAttach4Dummy::ApplyDummyCharSync, COMDAT
; _this$ = ecx

; 340  : {

  00000	55		 push	 ebp
  00001	8b ec		 mov	 ebp, esp

; 341  : 	if( !pStage ) return;	

  00003	83 7d 08 00	 cmp	 DWORD PTR _pStage$[ebp], 0
  00007	56		 push	 esi
  00008	8b f1		 mov	 esi, ecx
  0000a	74 26		 je	 SHORT $LN3@ApplyDummy

; 342  : 
; 343  : 	int state;
; 344  : 	rkPacket >> state;

  0000c	8b 4d 0c	 mov	 ecx, DWORD PTR _rkPacket$[ebp]
  0000f	8d 45 08	 lea	 eax, DWORD PTR _state$[ebp]
  00012	50		 push	 eax
  00013	e8 00 00 00 00	 call	 ??5SP2Packet@@QAEAAV0@AAH@Z ; SP2Packet::operator>>

; 345  : 
; 346  : 	switch ( (DummyCharState)state )

  00018	8b 45 08	 mov	 eax, DWORD PTR _state$[ebp]
  0001b	48		 dec	 eax
  0001c	48		 dec	 eax
  0001d	74 0c		 je	 SHORT $LN2@ApplyDummy
  0001f	48		 dec	 eax
  00020	75 10		 jne	 SHORT $LN3@ApplyDummy

; 350  : 		break;
; 351  : 	case DCS_MOVE:
; 352  : 		SetFollowState();

  00022	8b ce		 mov	 ecx, esi
  00024	e8 00 00 00 00	 call	 ?SetFollowState@ioOwnerAttach4Dummy@@IAEXXZ ; ioOwnerAttach4Dummy::SetFollowState

; 353  : 		break;

  00029	eb 07		 jmp	 SHORT $LN3@ApplyDummy
$LN2@ApplyDummy:

; 347  : 	{
; 348  : 	case DCS_DELAY:
; 349  : 		SetDelayState();

  0002b	8b ce		 mov	 ecx, esi
  0002d	e8 00 00 00 00	 call	 ?SetDelayState@ioOwnerAttach4Dummy@@IAEXXZ ; ioOwnerAttach4Dummy::SetDelayState
$LN3@ApplyDummy:
  00032	5e		 pop	 esi

; 354  : 	}
; 355  : }

  00033	5d		 pop	 ebp
  00034	c2 08 00	 ret	 8
?ApplyDummyCharSync@ioOwnerAttach4Dummy@@UAEXPAVioPlayStage@@AAVSP2Packet@@@Z ENDP ; ioOwnerAttach4Dummy::ApplyDummyCharSync
_TEXT	ENDS
PUBLIC	?SetDieState@ioOwnerAttach4Dummy@@UAEX_N@Z	; ioOwnerAttach4Dummy::SetDieState
EXTRN	?SetDieState@ioDummyChar@@UAEX_N0@Z:PROC	; ioDummyChar::SetDieState
; Function compile flags: /Ogsp
;	COMDAT ?SetDieState@ioOwnerAttach4Dummy@@UAEX_N@Z
_TEXT	SEGMENT
_bEffect$ = 8						; size = 1
?SetDieState@ioOwnerAttach4Dummy@@UAEX_N@Z PROC		; ioOwnerAttach4Dummy::SetDieState, COMDAT
; _this$ = ecx

; 358  : {

  00000	55		 push	 ebp
  00001	8b ec		 mov	 ebp, esp

; 359  : 	ioDummyChar::SetDieState( bEffect );

  00003	6a 00		 push	 0
  00005	ff 75 08	 push	 DWORD PTR _bEffect$[ebp]
  00008	e8 00 00 00 00	 call	 ?SetDieState@ioDummyChar@@UAEX_N0@Z ; ioDummyChar::SetDieState

; 360  : }

  0000d	5d		 pop	 ebp
  0000e	c2 04 00	 ret	 4
?SetDieState@ioOwnerAttach4Dummy@@UAEX_N@Z ENDP		; ioOwnerAttach4Dummy::SetDieState
_TEXT	ENDS
PUBLIC	?IsActivateWeapon@ioOwnerAttach4Dummy@@UAE_NXZ	; ioOwnerAttach4Dummy::IsActivateWeapon
; Function compile flags: /Ogsp
;	COMDAT ?IsActivateWeapon@ioOwnerAttach4Dummy@@UAE_NXZ
_TEXT	SEGMENT
?IsActivateWeapon@ioOwnerAttach4Dummy@@UAE_NXZ PROC	; ioOwnerAttach4Dummy::IsActivateWeapon, COMDAT
; _this$ = ecx

; 364  : 	if( m_State == DCS_DELAY )

  00000	83 b9 30 02 00
	00 02		 cmp	 DWORD PTR [ecx+560], 2
  00007	0f 95 c0	 setne	 al

; 365  : 		return false;
; 366  : 
; 367  : 	return true;
; 368  : }

  0000a	c3		 ret	 0
?IsActivateWeapon@ioOwnerAttach4Dummy@@UAE_NXZ ENDP	; ioOwnerAttach4Dummy::IsActivateWeapon
_TEXT	ENDS
PUBLIC	?CheckOwnerBuff@ioOwnerAttach4Dummy@@IAE_NXZ	; ioOwnerAttach4Dummy::CheckOwnerBuff
EXTRN	?HasBuff@ioBaseChar@@QBE_NABVioHashString@@@Z:PROC ; ioBaseChar::HasBuff
EXTRN	?GetOwner@ioDummyChar@@QBEPAVioBaseChar@@XZ:PROC ; ioDummyChar::GetOwner
; Function compile flags: /Ogsp
;	COMDAT ?CheckOwnerBuff@ioOwnerAttach4Dummy@@IAE_NXZ
_TEXT	SEGMENT
?CheckOwnerBuff@ioOwnerAttach4Dummy@@IAE_NXZ PROC	; ioOwnerAttach4Dummy::CheckOwnerBuff, COMDAT
; _this$ = ecx

; 372  : {

  00000	56		 push	 esi
  00001	57		 push	 edi
  00002	8b f1		 mov	 esi, ecx

; 373  : 	ioBaseChar *pOwner = GetOwner();

  00004	e8 00 00 00 00	 call	 ?GetOwner@ioDummyChar@@QBEPAVioBaseChar@@XZ ; ioDummyChar::GetOwner
  00009	8b f8		 mov	 edi, eax

; 374  : 	if( !pOwner )

  0000b	85 ff		 test	 edi, edi
  0000d	75 04		 jne	 SHORT $LN2@CheckOwner
$LN5@CheckOwner:

; 375  : 		return false;

  0000f	32 c0		 xor	 al, al
  00011	eb 20		 jmp	 SHORT $LN3@CheckOwner
$LN2@CheckOwner:

; 376  : 
; 377  : 	if( !m_szCheckBuff.IsEmpty() && !pOwner->HasBuff( m_szCheckBuff ) )

  00013	81 c6 ac 14 00
	00		 add	 esi, 5292		; 000014acH
  00019	8b ce		 mov	 ecx, esi
  0001b	ff 15 00 00 00
	00		 call	 DWORD PTR __imp_?IsEmpty@ioHashString@@QBE_NXZ
  00021	84 c0		 test	 al, al
  00023	75 0c		 jne	 SHORT $LN1@CheckOwner
  00025	56		 push	 esi
  00026	8b cf		 mov	 ecx, edi
  00028	e8 00 00 00 00	 call	 ?HasBuff@ioBaseChar@@QBE_NABVioHashString@@@Z ; ioBaseChar::HasBuff
  0002d	84 c0		 test	 al, al

; 378  : 		return false;

  0002f	74 de		 je	 SHORT $LN5@CheckOwner
$LN1@CheckOwner:

; 379  : 
; 380  : 	return true;

  00031	b0 01		 mov	 al, 1
$LN3@CheckOwner:
  00033	5f		 pop	 edi
  00034	5e		 pop	 esi

; 381  : }

  00035	c3		 ret	 0
?CheckOwnerBuff@ioOwnerAttach4Dummy@@IAE_NXZ ENDP	; ioOwnerAttach4Dummy::CheckOwnerBuff
_TEXT	ENDS
PUBLIC	?SetTargetPos@ioOwnerAttach4Dummy@@QAEXUD3DXVECTOR3@@@Z ; ioOwnerAttach4Dummy::SetTargetPos
; Function compile flags: /Ogsp
;	COMDAT ?SetTargetPos@ioOwnerAttach4Dummy@@QAEXUD3DXVECTOR3@@@Z
_TEXT	SEGMENT
_vPos$ = 8						; size = 12
?SetTargetPos@ioOwnerAttach4Dummy@@QAEXUD3DXVECTOR3@@@Z PROC ; ioOwnerAttach4Dummy::SetTargetPos, COMDAT
; _this$ = ecx

; 384  : {

  00000	55		 push	 ebp
  00001	8b ec		 mov	 ebp, esp
  00003	56		 push	 esi
  00004	57		 push	 edi

; 385  : 	m_vTargetPos = vPos;

  00005	8d b9 90 14 00
	00		 lea	 edi, DWORD PTR [ecx+5264]
  0000b	8d 75 08	 lea	 esi, DWORD PTR _vPos$[ebp]
  0000e	a5		 movsd
  0000f	a5		 movsd
  00010	a5		 movsd
  00011	5f		 pop	 edi
  00012	5e		 pop	 esi

; 386  : }

  00013	5d		 pop	 ebp
  00014	c2 0c 00	 ret	 12			; 0000000cH
?SetTargetPos@ioOwnerAttach4Dummy@@QAEXUD3DXVECTOR3@@@Z ENDP ; ioOwnerAttach4Dummy::SetTargetPos
_TEXT	ENDS
PUBLIC	?SetHead@ioOwnerAttach4Dummy@@QAEX_N@Z		; ioOwnerAttach4Dummy::SetHead
; Function compile flags: /Ogsp
;	COMDAT ?SetHead@ioOwnerAttach4Dummy@@QAEX_N@Z
_TEXT	SEGMENT
_bHead$ = 8						; size = 1
?SetHead@ioOwnerAttach4Dummy@@QAEX_N@Z PROC		; ioOwnerAttach4Dummy::SetHead, COMDAT
; _this$ = ecx

; 389  : {

  00000	55		 push	 ebp
  00001	8b ec		 mov	 ebp, esp

; 390  : 	m_bIsHead = bHead;

  00003	8a 45 08	 mov	 al, BYTE PTR _bHead$[ebp]
  00006	88 81 a8 14 00
	00		 mov	 BYTE PTR [ecx+5288], al

; 391  : }

  0000c	5d		 pop	 ebp
  0000d	c2 04 00	 ret	 4
?SetHead@ioOwnerAttach4Dummy@@QAEX_N@Z ENDP		; ioOwnerAttach4Dummy::SetHead
_TEXT	ENDS
PUBLIC	?GetHead@ioOwnerAttach4Dummy@@QAE_NXZ		; ioOwnerAttach4Dummy::GetHead
; Function compile flags: /Ogsp
;	COMDAT ?GetHead@ioOwnerAttach4Dummy@@QAE_NXZ
_TEXT	SEGMENT
?GetHead@ioOwnerAttach4Dummy@@QAE_NXZ PROC		; ioOwnerAttach4Dummy::GetHead, COMDAT
; _this$ = ecx

; 395  : 	return m_bIsHead;

  00000	8a 81 a8 14 00
	00		 mov	 al, BYTE PTR [ecx+5288]

; 396  : }

  00006	c3		 ret	 0
?GetHead@ioOwnerAttach4Dummy@@QAE_NXZ ENDP		; ioOwnerAttach4Dummy::GetHead
_TEXT	ENDS
PUBLIC	?SetDontMove@ioOwnerAttach4Dummy@@QAEX_N@Z	; ioOwnerAttach4Dummy::SetDontMove
; Function compile flags: /Ogsp
;	COMDAT ?SetDontMove@ioOwnerAttach4Dummy@@QAEX_N@Z
_TEXT	SEGMENT
_bDontMove$ = 8						; size = 1
?SetDontMove@ioOwnerAttach4Dummy@@QAEX_N@Z PROC		; ioOwnerAttach4Dummy::SetDontMove, COMDAT
; _this$ = ecx

; 423  : {

  00000	55		 push	 ebp
  00001	8b ec		 mov	 ebp, esp

; 424  : 	m_bSetDontMove = bDontMove;

  00003	8a 45 08	 mov	 al, BYTE PTR _bDontMove$[ebp]
  00006	88 81 bc 14 00
	00		 mov	 BYTE PTR [ecx+5308], al

; 425  : }

  0000c	5d		 pop	 ebp
  0000d	c2 04 00	 ret	 4
?SetDontMove@ioOwnerAttach4Dummy@@QAEX_N@Z ENDP		; ioOwnerAttach4Dummy::SetDontMove
_TEXT	ENDS
PUBLIC	??1FireTime@@QAE@XZ				; FireTime::~FireTime
EXTRN	__imp_??1ioHashString@@QAE@XZ:PROC
EXTRN	___CxxFrameHandler3:PROC
EXTRN	@__security_check_cookie@4:PROC
EXTRN	__EH_epilog3:PROC
EXTRN	__EH_prolog3:PROC
;	COMDAT xdata$x
xdata$x	SEGMENT
__unwindtable$??1FireTime@@QAE@XZ DD 0ffffffffH
	DD	FLAT:__unwindfunclet$??1FireTime@@QAE@XZ$0
	DD	00H
	DD	FLAT:__unwindfunclet$??1FireTime@@QAE@XZ$1
__ehfuncinfo$??1FireTime@@QAE@XZ DD 019930522H
	DD	02H
	DD	FLAT:__unwindtable$??1FireTime@@QAE@XZ
	DD	2 DUP(00H)
	DD	2 DUP(00H)
	DD	00H
	DD	01H
; Function compile flags: /Ogsp
xdata$x	ENDS
;	COMDAT ??1FireTime@@QAE@XZ
_TEXT	SEGMENT
_this$ = -16						; size = 4
__$EHRec$ = -12						; size = 12
??1FireTime@@QAE@XZ PROC				; FireTime::~FireTime, COMDAT
; _this$ = ecx
  00000	6a 04		 push	 4
  00002	b8 00 00 00 00	 mov	 eax, __ehhandler$??1FireTime@@QAE@XZ
  00007	e8 00 00 00 00	 call	 __EH_prolog3
  0000c	8b f9		 mov	 edi, ecx
  0000e	89 7d f0	 mov	 DWORD PTR _this$[ebp], edi
  00011	8b 35 00 00 00
	00		 mov	 esi, DWORD PTR __imp_??1ioHashString@@QAE@XZ
  00017	8d 4f 44	 lea	 ecx, DWORD PTR [edi+68]
  0001a	c7 45 fc 01 00
	00 00		 mov	 DWORD PTR __$EHRec$[ebp+8], 1
  00021	ff d6		 call	 esi
  00023	8d 4f 30	 lea	 ecx, DWORD PTR [edi+48]
  00026	c6 45 fc 00	 mov	 BYTE PTR __$EHRec$[ebp+8], 0
  0002a	ff d6		 call	 esi
  0002c	83 4d fc ff	 or	 DWORD PTR __$EHRec$[ebp+8], -1
  00030	8d 4f 14	 lea	 ecx, DWORD PTR [edi+20]
  00033	ff d6		 call	 esi
  00035	e8 00 00 00 00	 call	 __EH_epilog3
  0003a	c3		 ret	 0
_TEXT	ENDS
;	COMDAT text$x
text$x	SEGMENT
__unwindfunclet$??1FireTime@@QAE@XZ$0:
  00000	8b 4d f0	 mov	 ecx, DWORD PTR _this$[ebp]
  00003	83 c1 14	 add	 ecx, 20			; 00000014H
  00006	ff 25 00 00 00
	00		 jmp	 DWORD PTR __imp_??1ioHashString@@QAE@XZ
__unwindfunclet$??1FireTime@@QAE@XZ$1:
  0000c	8b 4d f0	 mov	 ecx, DWORD PTR _this$[ebp]
  0000f	83 c1 30	 add	 ecx, 48			; 00000030H
  00012	ff 25 00 00 00
	00		 jmp	 DWORD PTR __imp_??1ioHashString@@QAE@XZ
__ehhandler$??1FireTime@@QAE@XZ:
  00018	8b 54 24 08	 mov	 edx, DWORD PTR [esp+8]
  0001c	8d 42 0c	 lea	 eax, DWORD PTR [edx+12]
  0001f	8b 4a ec	 mov	 ecx, DWORD PTR [edx-20]
  00022	33 c8		 xor	 ecx, eax
  00024	e8 00 00 00 00	 call	 @__security_check_cookie@4
  00029	b8 00 00 00 00	 mov	 eax, OFFSET __ehfuncinfo$??1FireTime@@QAE@XZ
  0002e	e9 00 00 00 00	 jmp	 ___CxxFrameHandler3
text$x	ENDS
??1FireTime@@QAE@XZ ENDP				; FireTime::~FireTime
PUBLIC	?SetFire@ioOwnerAttach4Dummy@@QAEX_N@Z		; ioOwnerAttach4Dummy::SetFire
; Function compile flags: /Ogsp
;	COMDAT ?SetFire@ioOwnerAttach4Dummy@@QAEX_N@Z
_TEXT	SEGMENT
_bFire$ = 8						; size = 1
?SetFire@ioOwnerAttach4Dummy@@QAEX_N@Z PROC		; ioOwnerAttach4Dummy::SetFire, COMDAT
; _this$ = ecx

; 529  : {

  00000	55		 push	 ebp
  00001	8b ec		 mov	 ebp, esp

; 530  : 	m_bSetFire = bFire;

  00003	8a 45 08	 mov	 al, BYTE PTR _bFire$[ebp]
  00006	88 81 bd 14 00
	00		 mov	 BYTE PTR [ecx+5309], al

; 531  : }

  0000c	5d		 pop	 ebp
  0000d	c2 04 00	 ret	 4
?SetFire@ioOwnerAttach4Dummy@@QAEX_N@Z ENDP		; ioOwnerAttach4Dummy::SetFire
_TEXT	ENDS
PUBLIC	?size@?$vector@UCreateWeaponInfo@ioOwnerAttach4Dummy@@V?$allocator@UCreateWeaponInfo@ioOwnerAttach4Dummy@@@std@@@std@@QBEIXZ ; std::vector<ioOwnerAttach4Dummy::CreateWeaponInfo,std::allocator<ioOwnerAttach4Dummy::CreateWeaponInfo> >::size
; Function compile flags: /Ogsp
; File c:\program files (x86)\microsoft visual studio 10.0\vc\include\vector
;	COMDAT ?size@?$vector@UCreateWeaponInfo@ioOwnerAttach4Dummy@@V?$allocator@UCreateWeaponInfo@ioOwnerAttach4Dummy@@@std@@@std@@QBEIXZ
_TEXT	SEGMENT
?size@?$vector@UCreateWeaponInfo@ioOwnerAttach4Dummy@@V?$allocator@UCreateWeaponInfo@ioOwnerAttach4Dummy@@@std@@@std@@QBEIXZ PROC ; std::vector<ioOwnerAttach4Dummy::CreateWeaponInfo,std::allocator<ioOwnerAttach4Dummy::CreateWeaponInfo> >::size, COMDAT
; _this$ = ecx

; 879  : 		return (this->_Mylast - this->_Myfirst);

  00000	8b 41 04	 mov	 eax, DWORD PTR [ecx+4]
  00003	2b 01		 sub	 eax, DWORD PTR [ecx]
  00005	6a 24		 push	 36			; 00000024H
  00007	99		 cdq
  00008	59		 pop	 ecx
  00009	f7 f9		 idiv	 ecx

; 880  : 		}

  0000b	c3		 ret	 0
?size@?$vector@UCreateWeaponInfo@ioOwnerAttach4Dummy@@V?$allocator@UCreateWeaponInfo@ioOwnerAttach4Dummy@@@std@@@std@@QBEIXZ ENDP ; std::vector<ioOwnerAttach4Dummy::CreateWeaponInfo,std::allocator<ioOwnerAttach4Dummy::CreateWeaponInfo> >::size
_TEXT	ENDS
PUBLIC	??A?$vector@UCreateWeaponInfo@ioOwnerAttach4Dummy@@V?$allocator@UCreateWeaponInfo@ioOwnerAttach4Dummy@@@std@@@std@@QAEAAUCreateWeaponInfo@ioOwnerAttach4Dummy@@I@Z ; std::vector<ioOwnerAttach4Dummy::CreateWeaponInfo,std::allocator<ioOwnerAttach4Dummy::CreateWeaponInfo> >::operator[]
; Function compile flags: /Ogsp
;	COMDAT ??A?$vector@UCreateWeaponInfo@ioOwnerAttach4Dummy@@V?$allocator@UCreateWeaponInfo@ioOwnerAttach4Dummy@@@std@@@std@@QAEAAUCreateWeaponInfo@ioOwnerAttach4Dummy@@I@Z
_TEXT	SEGMENT
__Pos$ = 8						; size = 4
??A?$vector@UCreateWeaponInfo@ioOwnerAttach4Dummy@@V?$allocator@UCreateWeaponInfo@ioOwnerAttach4Dummy@@@std@@@std@@QAEAAUCreateWeaponInfo@ioOwnerAttach4Dummy@@I@Z PROC ; std::vector<ioOwnerAttach4Dummy::CreateWeaponInfo,std::allocator<ioOwnerAttach4Dummy::CreateWeaponInfo> >::operator[], COMDAT
; _this$ = ecx

; 928  : 		{	// subscript mutable sequence

  00000	55		 push	 ebp
  00001	8b ec		 mov	 ebp, esp

; 929  :  #if _ITERATOR_DEBUG_LEVEL == 2
; 930  : 		if (size() <= _Pos)
; 931  : 			{	// report error
; 932  : 			_DEBUG_ERROR("vector subscript out of range");
; 933  : 			_SCL_SECURE_OUT_OF_RANGE;
; 934  : 			}
; 935  : 
; 936  :  #elif _ITERATOR_DEBUG_LEVEL == 1
; 937  : 		_SCL_SECURE_VALIDATE_RANGE(_Pos < size());
; 938  :  #endif /* _ITERATOR_DEBUG_LEVEL */
; 939  : 
; 940  : 		return (*(this->_Myfirst + _Pos));

  00003	8b 45 08	 mov	 eax, DWORD PTR __Pos$[ebp]
  00006	6b c0 24	 imul	 eax, 36			; 00000024H
  00009	03 01		 add	 eax, DWORD PTR [ecx]

; 941  : 		}

  0000b	5d		 pop	 ebp
  0000c	c2 04 00	 ret	 4
??A?$vector@UCreateWeaponInfo@ioOwnerAttach4Dummy@@V?$allocator@UCreateWeaponInfo@ioOwnerAttach4Dummy@@@std@@@std@@QAEAAUCreateWeaponInfo@ioOwnerAttach4Dummy@@I@Z ENDP ; std::vector<ioOwnerAttach4Dummy::CreateWeaponInfo,std::allocator<ioOwnerAttach4Dummy::CreateWeaponInfo> >::operator[]
_TEXT	ENDS
PUBLIC	?_Inside@?$vector@UCreateWeaponInfo@ioOwnerAttach4Dummy@@V?$allocator@UCreateWeaponInfo@ioOwnerAttach4Dummy@@@std@@@std@@IBE_NPBUCreateWeaponInfo@ioOwnerAttach4Dummy@@@Z ; std::vector<ioOwnerAttach4Dummy::CreateWeaponInfo,std::allocator<ioOwnerAttach4Dummy::CreateWeaponInfo> >::_Inside
; Function compile flags: /Ogsp
;	COMDAT ?_Inside@?$vector@UCreateWeaponInfo@ioOwnerAttach4Dummy@@V?$allocator@UCreateWeaponInfo@ioOwnerAttach4Dummy@@@std@@@std@@IBE_NPBUCreateWeaponInfo@ioOwnerAttach4Dummy@@@Z
_TEXT	SEGMENT
__Ptr$ = 8						; size = 4
?_Inside@?$vector@UCreateWeaponInfo@ioOwnerAttach4Dummy@@V?$allocator@UCreateWeaponInfo@ioOwnerAttach4Dummy@@@std@@@std@@IBE_NPBUCreateWeaponInfo@ioOwnerAttach4Dummy@@@Z PROC ; std::vector<ioOwnerAttach4Dummy::CreateWeaponInfo,std::allocator<ioOwnerAttach4Dummy::CreateWeaponInfo> >::_Inside, COMDAT
; _this$ = ecx

; 1285 : 		{	// test if _Ptr points inside vector

  00000	55		 push	 ebp
  00001	8b ec		 mov	 ebp, esp

; 1286 : 		return (_Ptr < this->_Mylast && this->_Myfirst <= _Ptr);

  00003	8b 45 08	 mov	 eax, DWORD PTR __Ptr$[ebp]
  00006	3b 41 04	 cmp	 eax, DWORD PTR [ecx+4]
  00009	73 09		 jae	 SHORT $LN3@Inside
  0000b	39 01		 cmp	 DWORD PTR [ecx], eax
  0000d	77 05		 ja	 SHORT $LN3@Inside
  0000f	33 c0		 xor	 eax, eax
  00011	40		 inc	 eax
  00012	eb 02		 jmp	 SHORT $LN4@Inside
$LN3@Inside:
  00014	33 c0		 xor	 eax, eax
$LN4@Inside:

; 1287 : 		}

  00016	5d		 pop	 ebp
  00017	c2 04 00	 ret	 4
?_Inside@?$vector@UCreateWeaponInfo@ioOwnerAttach4Dummy@@V?$allocator@UCreateWeaponInfo@ioOwnerAttach4Dummy@@@std@@@std@@IBE_NPBUCreateWeaponInfo@ioOwnerAttach4Dummy@@@Z ENDP ; std::vector<ioOwnerAttach4Dummy::CreateWeaponInfo,std::allocator<ioOwnerAttach4Dummy::CreateWeaponInfo> >::_Inside
_TEXT	ENDS
PUBLIC	?_Orphan_range@?$vector@UCreateWeaponInfo@ioOwnerAttach4Dummy@@V?$allocator@UCreateWeaponInfo@ioOwnerAttach4Dummy@@@std@@@std@@IBEXPAUCreateWeaponInfo@ioOwnerAttach4Dummy@@0@Z ; std::vector<ioOwnerAttach4Dummy::CreateWeaponInfo,std::allocator<ioOwnerAttach4Dummy::CreateWeaponInfo> >::_Orphan_range
; Function compile flags: /Ogsp
;	COMDAT ?_Orphan_range@?$vector@UCreateWeaponInfo@ioOwnerAttach4Dummy@@V?$allocator@UCreateWeaponInfo@ioOwnerAttach4Dummy@@@std@@@std@@IBEXPAUCreateWeaponInfo@ioOwnerAttach4Dummy@@0@Z
_TEXT	SEGMENT
___formal$ = 8						; size = 4
___formal$ = 12						; size = 4
?_Orphan_range@?$vector@UCreateWeaponInfo@ioOwnerAttach4Dummy@@V?$allocator@UCreateWeaponInfo@ioOwnerAttach4Dummy@@@std@@@std@@IBEXPAUCreateWeaponInfo@ioOwnerAttach4Dummy@@0@Z PROC ; std::vector<ioOwnerAttach4Dummy::CreateWeaponInfo,std::allocator<ioOwnerAttach4Dummy::CreateWeaponInfo> >::_Orphan_range, COMDAT
; _this$ = ecx

; 1454 : 		}

  00000	c2 08 00	 ret	 8
?_Orphan_range@?$vector@UCreateWeaponInfo@ioOwnerAttach4Dummy@@V?$allocator@UCreateWeaponInfo@ioOwnerAttach4Dummy@@@std@@@std@@IBEXPAUCreateWeaponInfo@ioOwnerAttach4Dummy@@0@Z ENDP ; std::vector<ioOwnerAttach4Dummy::CreateWeaponInfo,std::allocator<ioOwnerAttach4Dummy::CreateWeaponInfo> >::_Orphan_range
_TEXT	ENDS
PUBLIC	??1?$_Vector_val@UCreateWeaponInfo@ioOwnerAttach4Dummy@@V?$allocator@UCreateWeaponInfo@ioOwnerAttach4Dummy@@@std@@@std@@QAE@XZ ; std::_Vector_val<ioOwnerAttach4Dummy::CreateWeaponInfo,std::allocator<ioOwnerAttach4Dummy::CreateWeaponInfo> >::~_Vector_val<ioOwnerAttach4Dummy::CreateWeaponInfo,std::allocator<ioOwnerAttach4Dummy::CreateWeaponInfo> >
; Function compile flags: /Ogsp
;	COMDAT ??1?$_Vector_val@UCreateWeaponInfo@ioOwnerAttach4Dummy@@V?$allocator@UCreateWeaponInfo@ioOwnerAttach4Dummy@@@std@@@std@@QAE@XZ
_TEXT	SEGMENT
??1?$_Vector_val@UCreateWeaponInfo@ioOwnerAttach4Dummy@@V?$allocator@UCreateWeaponInfo@ioOwnerAttach4Dummy@@@std@@@std@@QAE@XZ PROC ; std::_Vector_val<ioOwnerAttach4Dummy::CreateWeaponInfo,std::allocator<ioOwnerAttach4Dummy::CreateWeaponInfo> >::~_Vector_val<ioOwnerAttach4Dummy::CreateWeaponInfo,std::allocator<ioOwnerAttach4Dummy::CreateWeaponInfo> >, COMDAT
; _this$ = ecx

; 434  : 		}

  00000	c3		 ret	 0
??1?$_Vector_val@UCreateWeaponInfo@ioOwnerAttach4Dummy@@V?$allocator@UCreateWeaponInfo@ioOwnerAttach4Dummy@@@std@@@std@@QAE@XZ ENDP ; std::_Vector_val<ioOwnerAttach4Dummy::CreateWeaponInfo,std::allocator<ioOwnerAttach4Dummy::CreateWeaponInfo> >::~_Vector_val<ioOwnerAttach4Dummy::CreateWeaponInfo,std::allocator<ioOwnerAttach4Dummy::CreateWeaponInfo> >
_TEXT	ENDS
PUBLIC	??0?$allocator@UCreateWeaponInfo@ioOwnerAttach4Dummy@@@std@@QAE@XZ ; std::allocator<ioOwnerAttach4Dummy::CreateWeaponInfo>::allocator<ioOwnerAttach4Dummy::CreateWeaponInfo>
; Function compile flags: /Ogsp
; File c:\program files (x86)\microsoft visual studio 10.0\vc\include\xmemory
;	COMDAT ??0?$allocator@UCreateWeaponInfo@ioOwnerAttach4Dummy@@@std@@QAE@XZ
_TEXT	SEGMENT
??0?$allocator@UCreateWeaponInfo@ioOwnerAttach4Dummy@@@std@@QAE@XZ PROC ; std::allocator<ioOwnerAttach4Dummy::CreateWeaponInfo>::allocator<ioOwnerAttach4Dummy::CreateWeaponInfo>, COMDAT
; _this$ = ecx

; 161  : 	_ALLOCATOR() _THROW0()

  00000	8b c1		 mov	 eax, ecx

; 162  : 		{	// construct default allocator (do nothing)
; 163  : 		}

  00002	c3		 ret	 0
??0?$allocator@UCreateWeaponInfo@ioOwnerAttach4Dummy@@@std@@QAE@XZ ENDP ; std::allocator<ioOwnerAttach4Dummy::CreateWeaponInfo>::allocator<ioOwnerAttach4Dummy::CreateWeaponInfo>
_TEXT	ENDS
PUBLIC	?capacity@?$vector@UCreateWeaponInfo@ioOwnerAttach4Dummy@@V?$allocator@UCreateWeaponInfo@ioOwnerAttach4Dummy@@@std@@@std@@QBEIXZ ; std::vector<ioOwnerAttach4Dummy::CreateWeaponInfo,std::allocator<ioOwnerAttach4Dummy::CreateWeaponInfo> >::capacity
; Function compile flags: /Ogsp
; File c:\program files (x86)\microsoft visual studio 10.0\vc\include\vector
;	COMDAT ?capacity@?$vector@UCreateWeaponInfo@ioOwnerAttach4Dummy@@V?$allocator@UCreateWeaponInfo@ioOwnerAttach4Dummy@@@std@@@std@@QBEIXZ
_TEXT	SEGMENT
?capacity@?$vector@UCreateWeaponInfo@ioOwnerAttach4Dummy@@V?$allocator@UCreateWeaponInfo@ioOwnerAttach4Dummy@@@std@@@std@@QBEIXZ PROC ; std::vector<ioOwnerAttach4Dummy::CreateWeaponInfo,std::allocator<ioOwnerAttach4Dummy::CreateWeaponInfo> >::capacity, COMDAT
; _this$ = ecx

; 777  : 		return (this->_Myend - this->_Myfirst);

  00000	8b 41 08	 mov	 eax, DWORD PTR [ecx+8]
  00003	2b 01		 sub	 eax, DWORD PTR [ecx]
  00005	6a 24		 push	 36			; 00000024H
  00007	99		 cdq
  00008	59		 pop	 ecx
  00009	f7 f9		 idiv	 ecx

; 778  : 		}

  0000b	c3		 ret	 0
?capacity@?$vector@UCreateWeaponInfo@ioOwnerAttach4Dummy@@V?$allocator@UCreateWeaponInfo@ioOwnerAttach4Dummy@@@std@@@std@@QBEIXZ ENDP ; std::vector<ioOwnerAttach4Dummy::CreateWeaponInfo,std::allocator<ioOwnerAttach4Dummy::CreateWeaponInfo> >::capacity
_TEXT	ENDS
PUBLIC	??_C@_0BD@OLBABOEK@vector?$DMT?$DO?5too?5long?$AA@ ; `string'
PUBLIC	?_Xlen@?$vector@UCreateWeaponInfo@ioOwnerAttach4Dummy@@V?$allocator@UCreateWeaponInfo@ioOwnerAttach4Dummy@@@std@@@std@@IBEXXZ ; std::vector<ioOwnerAttach4Dummy::CreateWeaponInfo,std::allocator<ioOwnerAttach4Dummy::CreateWeaponInfo> >::_Xlen
EXTRN	__imp_?_Xlength_error@std@@YAXPBD@Z:PROC
;	COMDAT ??_C@_0BD@OLBABOEK@vector?$DMT?$DO?5too?5long?$AA@
CONST	SEGMENT
??_C@_0BD@OLBABOEK@vector?$DMT?$DO?5too?5long?$AA@ DB 'vector<T> too long'
	DB	00H						; `string'
; Function compile flags: /Ogsp
CONST	ENDS
;	COMDAT ?_Xlen@?$vector@UCreateWeaponInfo@ioOwnerAttach4Dummy@@V?$allocator@UCreateWeaponInfo@ioOwnerAttach4Dummy@@@std@@@std@@IBEXXZ
_TEXT	SEGMENT
?_Xlen@?$vector@UCreateWeaponInfo@ioOwnerAttach4Dummy@@V?$allocator@UCreateWeaponInfo@ioOwnerAttach4Dummy@@@std@@@std@@IBEXXZ PROC ; std::vector<ioOwnerAttach4Dummy::CreateWeaponInfo,std::allocator<ioOwnerAttach4Dummy::CreateWeaponInfo> >::_Xlen, COMDAT
; _this$ = ecx

; 1427 : 		_Xlength_error("vector<T> too long");

  00000	68 00 00 00 00	 push	 OFFSET ??_C@_0BD@OLBABOEK@vector?$DMT?$DO?5too?5long?$AA@
  00005	ff 15 00 00 00
	00		 call	 DWORD PTR __imp_?_Xlength_error@std@@YAXPBD@Z
$LN4@Xlen:
$LN3@Xlen:
  0000b	cc		 int	 3
?_Xlen@?$vector@UCreateWeaponInfo@ioOwnerAttach4Dummy@@V?$allocator@UCreateWeaponInfo@ioOwnerAttach4Dummy@@@std@@@std@@IBEXXZ ENDP ; std::vector<ioOwnerAttach4Dummy::CreateWeaponInfo,std::allocator<ioOwnerAttach4Dummy::CreateWeaponInfo> >::_Xlen
_TEXT	ENDS
PUBLIC	??0?$allocator@UCreateWeaponInfo@ioOwnerAttach4Dummy@@@std@@QAE@ABV01@@Z ; std::allocator<ioOwnerAttach4Dummy::CreateWeaponInfo>::allocator<ioOwnerAttach4Dummy::CreateWeaponInfo>
; Function compile flags: /Ogsp
; File c:\program files (x86)\microsoft visual studio 10.0\vc\include\xmemory
;	COMDAT ??0?$allocator@UCreateWeaponInfo@ioOwnerAttach4Dummy@@@std@@QAE@ABV01@@Z
_TEXT	SEGMENT
___formal$ = 8						; size = 4
??0?$allocator@UCreateWeaponInfo@ioOwnerAttach4Dummy@@@std@@QAE@ABV01@@Z PROC ; std::allocator<ioOwnerAttach4Dummy::CreateWeaponInfo>::allocator<ioOwnerAttach4Dummy::CreateWeaponInfo>, COMDAT
; _this$ = ecx

; 165  : 	_ALLOCATOR(const _ALLOCATOR<_Ty>&) _THROW0()

  00000	8b c1		 mov	 eax, ecx

; 166  : 		{	// construct by copying (do nothing)
; 167  : 		}

  00002	c2 04 00	 ret	 4
??0?$allocator@UCreateWeaponInfo@ioOwnerAttach4Dummy@@@std@@QAE@ABV01@@Z ENDP ; std::allocator<ioOwnerAttach4Dummy::CreateWeaponInfo>::allocator<ioOwnerAttach4Dummy::CreateWeaponInfo>
_TEXT	ENDS
PUBLIC	?deallocate@?$allocator@UCreateWeaponInfo@ioOwnerAttach4Dummy@@@std@@QAEXPAUCreateWeaponInfo@ioOwnerAttach4Dummy@@I@Z ; std::allocator<ioOwnerAttach4Dummy::CreateWeaponInfo>::deallocate
; Function compile flags: /Ogsp
;	COMDAT ?deallocate@?$allocator@UCreateWeaponInfo@ioOwnerAttach4Dummy@@@std@@QAEXPAUCreateWeaponInfo@ioOwnerAttach4Dummy@@I@Z
_TEXT	SEGMENT
__Ptr$ = 8						; size = 4
___formal$ = 12						; size = 4
?deallocate@?$allocator@UCreateWeaponInfo@ioOwnerAttach4Dummy@@@std@@QAEXPAUCreateWeaponInfo@ioOwnerAttach4Dummy@@I@Z PROC ; std::allocator<ioOwnerAttach4Dummy::CreateWeaponInfo>::deallocate, COMDAT
; _this$ = ecx

; 181  : 		{	// deallocate object at _Ptr, ignore size

  00000	55		 push	 ebp
  00001	8b ec		 mov	 ebp, esp

; 182  : 		::operator delete(_Ptr);

  00003	ff 75 08	 push	 DWORD PTR __Ptr$[ebp]
  00006	e8 00 00 00 00	 call	 ??3@YAXPAX@Z		; operator delete
  0000b	59		 pop	 ecx

; 183  : 		}

  0000c	5d		 pop	 ebp
  0000d	c2 08 00	 ret	 8
?deallocate@?$allocator@UCreateWeaponInfo@ioOwnerAttach4Dummy@@@std@@QAEXPAUCreateWeaponInfo@ioOwnerAttach4Dummy@@I@Z ENDP ; std::allocator<ioOwnerAttach4Dummy::CreateWeaponInfo>::deallocate
_TEXT	ENDS
PUBLIC	?max_size@?$allocator@UCreateWeaponInfo@ioOwnerAttach4Dummy@@@std@@QBEIXZ ; std::allocator<ioOwnerAttach4Dummy::CreateWeaponInfo>::max_size
; Function compile flags: /Ogsp
;	COMDAT ?max_size@?$allocator@UCreateWeaponInfo@ioOwnerAttach4Dummy@@@std@@QBEIXZ
_TEXT	SEGMENT
?max_size@?$allocator@UCreateWeaponInfo@ioOwnerAttach4Dummy@@@std@@QBEIXZ PROC ; std::allocator<ioOwnerAttach4Dummy::CreateWeaponInfo>::max_size, COMDAT
; _this$ = ecx

; 218  : 		_SIZT _Count = (_SIZT)(-1) / sizeof (_Ty);
; 219  : 		return (0 < _Count ? _Count : 1);

  00000	b8 c7 71 1c 07	 mov	 eax, 119304647		; 071c71c7H

; 220  : 		}

  00005	c3		 ret	 0
?max_size@?$allocator@UCreateWeaponInfo@ioOwnerAttach4Dummy@@@std@@QBEIXZ ENDP ; std::allocator<ioOwnerAttach4Dummy::CreateWeaponInfo>::max_size
_TEXT	ENDS
PUBLIC	??0?$_Vector_const_iterator@V?$_Vector_val@UCreateWeaponInfo@ioOwnerAttach4Dummy@@V?$allocator@UCreateWeaponInfo@ioOwnerAttach4Dummy@@@std@@@std@@@std@@QAE@PAUCreateWeaponInfo@ioOwnerAttach4Dummy@@PBU_Container_base0@1@@Z ; std::_Vector_const_iterator<std::_Vector_val<ioOwnerAttach4Dummy::CreateWeaponInfo,std::allocator<ioOwnerAttach4Dummy::CreateWeaponInfo> > >::_Vector_const_iterator<std::_Vector_val<ioOwnerAttach4Dummy::CreateWeaponInfo,std::allocator<ioOwnerAttach4Dummy::CreateWeaponInfo> > >
; Function compile flags: /Ogsp
; File c:\program files (x86)\microsoft visual studio 10.0\vc\include\vector
;	COMDAT ??0?$_Vector_const_iterator@V?$_Vector_val@UCreateWeaponInfo@ioOwnerAttach4Dummy@@V?$allocator@UCreateWeaponInfo@ioOwnerAttach4Dummy@@@std@@@std@@@std@@QAE@PAUCreateWeaponInfo@ioOwnerAttach4Dummy@@PBU_Container_base0@1@@Z
_TEXT	SEGMENT
__Parg$ = 8						; size = 4
__Pvector$ = 12						; size = 4
??0?$_Vector_const_iterator@V?$_Vector_val@UCreateWeaponInfo@ioOwnerAttach4Dummy@@V?$allocator@UCreateWeaponInfo@ioOwnerAttach4Dummy@@@std@@@std@@@std@@QAE@PAUCreateWeaponInfo@ioOwnerAttach4Dummy@@PBU_Container_base0@1@@Z PROC ; std::_Vector_const_iterator<std::_Vector_val<ioOwnerAttach4Dummy::CreateWeaponInfo,std::allocator<ioOwnerAttach4Dummy::CreateWeaponInfo> > >::_Vector_const_iterator<std::_Vector_val<ioOwnerAttach4Dummy::CreateWeaponInfo,std::allocator<ioOwnerAttach4Dummy::CreateWeaponInfo> > >, COMDAT
; _this$ = ecx

; 45   : 		{	// construct with pointer _Parg

  00000	55		 push	 ebp
  00001	8b ec		 mov	 ebp, esp
  00003	8b c1		 mov	 eax, ecx
  00005	8b 4d 08	 mov	 ecx, DWORD PTR __Parg$[ebp]
  00008	89 08		 mov	 DWORD PTR [eax], ecx

; 46   : 		this->_Adopt(_Pvector);
; 47   : 		}

  0000a	5d		 pop	 ebp
  0000b	c2 08 00	 ret	 8
??0?$_Vector_const_iterator@V?$_Vector_val@UCreateWeaponInfo@ioOwnerAttach4Dummy@@V?$allocator@UCreateWeaponInfo@ioOwnerAttach4Dummy@@@std@@@std@@@std@@QAE@PAUCreateWeaponInfo@ioOwnerAttach4Dummy@@PBU_Container_base0@1@@Z ENDP ; std::_Vector_const_iterator<std::_Vector_val<ioOwnerAttach4Dummy::CreateWeaponInfo,std::allocator<ioOwnerAttach4Dummy::CreateWeaponInfo> > >::_Vector_const_iterator<std::_Vector_val<ioOwnerAttach4Dummy::CreateWeaponInfo,std::allocator<ioOwnerAttach4Dummy::CreateWeaponInfo> > >
_TEXT	ENDS
PUBLIC	?_Compat@?$_Vector_const_iterator@V?$_Vector_val@UCreateWeaponInfo@ioOwnerAttach4Dummy@@V?$allocator@UCreateWeaponInfo@ioOwnerAttach4Dummy@@@std@@@std@@@std@@QBEXABV12@@Z ; std::_Vector_const_iterator<std::_Vector_val<ioOwnerAttach4Dummy::CreateWeaponInfo,std::allocator<ioOwnerAttach4Dummy::CreateWeaponInfo> > >::_Compat
; Function compile flags: /Ogsp
;	COMDAT ?_Compat@?$_Vector_const_iterator@V?$_Vector_val@UCreateWeaponInfo@ioOwnerAttach4Dummy@@V?$allocator@UCreateWeaponInfo@ioOwnerAttach4Dummy@@@std@@@std@@@std@@QBEXABV12@@Z
_TEXT	SEGMENT
___formal$ = 8						; size = 4
?_Compat@?$_Vector_const_iterator@V?$_Vector_val@UCreateWeaponInfo@ioOwnerAttach4Dummy@@V?$allocator@UCreateWeaponInfo@ioOwnerAttach4Dummy@@@std@@@std@@@std@@QBEXABV12@@Z PROC ; std::_Vector_const_iterator<std::_Vector_val<ioOwnerAttach4Dummy::CreateWeaponInfo,std::allocator<ioOwnerAttach4Dummy::CreateWeaponInfo> > >::_Compat, COMDAT
; _this$ = ecx

; 253  : 		}

  00000	c2 04 00	 ret	 4
?_Compat@?$_Vector_const_iterator@V?$_Vector_val@UCreateWeaponInfo@ioOwnerAttach4Dummy@@V?$allocator@UCreateWeaponInfo@ioOwnerAttach4Dummy@@@std@@@std@@@std@@QBEXABV12@@Z ENDP ; std::_Vector_const_iterator<std::_Vector_val<ioOwnerAttach4Dummy::CreateWeaponInfo,std::allocator<ioOwnerAttach4Dummy::CreateWeaponInfo> > >::_Compat
_TEXT	ENDS
PUBLIC	??0D3DXVECTOR3@@QAE@XZ				; D3DXVECTOR3::D3DXVECTOR3
; Function compile flags: /Ogsp
; File c:\program files (x86)\microsoft directx sdk (june 2010)\include\d3dx9math.h
;	COMDAT ??0D3DXVECTOR3@@QAE@XZ
_TEXT	SEGMENT
??0D3DXVECTOR3@@QAE@XZ PROC				; D3DXVECTOR3::D3DXVECTOR3, COMDAT
; _this$ = ecx

; 165  :     D3DXVECTOR3() {};

  00000	8b c1		 mov	 eax, ecx
  00002	c3		 ret	 0
??0D3DXVECTOR3@@QAE@XZ ENDP				; D3DXVECTOR3::D3DXVECTOR3
_TEXT	ENDS
PUBLIC	??0D3DXQUATERNION@@QAE@XZ			; D3DXQUATERNION::D3DXQUATERNION
; Function compile flags: /Ogsp
;	COMDAT ??0D3DXQUATERNION@@QAE@XZ
_TEXT	SEGMENT
??0D3DXQUATERNION@@QAE@XZ PROC				; D3DXQUATERNION::D3DXQUATERNION, COMDAT
; _this$ = ecx

; 429  :     D3DXQUATERNION() {}

  00000	8b c1		 mov	 eax, ecx
  00002	c3		 ret	 0
??0D3DXQUATERNION@@QAE@XZ ENDP				; D3DXQUATERNION::D3DXQUATERNION
_TEXT	ENDS
PUBLIC	??0D3DXVECTOR3@@QAE@MMM@Z			; D3DXVECTOR3::D3DXVECTOR3
; Function compile flags: /Ogsp
; File c:\program files (x86)\microsoft directx sdk (june 2010)\include\d3dx9math.inl
;	COMDAT ??0D3DXVECTOR3@@QAE@MMM@Z
_TEXT	SEGMENT
_fx$ = 8						; size = 4
_fy$ = 12						; size = 4
_fz$ = 16						; size = 4
??0D3DXVECTOR3@@QAE@MMM@Z PROC				; D3DXVECTOR3::D3DXVECTOR3, COMDAT
; _this$ = ecx

; 303  : {

  00000	55		 push	 ebp
  00001	8b ec		 mov	 ebp, esp

; 304  :     x = fx;

  00003	f3 0f 10 45 08	 movss	 xmm0, DWORD PTR _fx$[ebp]
  00008	8b c1		 mov	 eax, ecx
  0000a	f3 0f 11 00	 movss	 DWORD PTR [eax], xmm0

; 305  :     y = fy;

  0000e	f3 0f 10 45 0c	 movss	 xmm0, DWORD PTR _fy$[ebp]
  00013	f3 0f 11 40 04	 movss	 DWORD PTR [eax+4], xmm0

; 306  :     z = fz;

  00018	f3 0f 10 45 10	 movss	 xmm0, DWORD PTR _fz$[ebp]
  0001d	f3 0f 11 40 08	 movss	 DWORD PTR [eax+8], xmm0

; 307  : }

  00022	5d		 pop	 ebp
  00023	c2 0c 00	 ret	 12			; 0000000cH
??0D3DXVECTOR3@@QAE@MMM@Z ENDP				; D3DXVECTOR3::D3DXVECTOR3
_TEXT	ENDS
PUBLIC	??HD3DXVECTOR3@@QBE?AU0@ABU0@@Z			; D3DXVECTOR3::operator+
; Function compile flags: /Ogsp
;	COMDAT ??HD3DXVECTOR3@@QBE?AU0@ABU0@@Z
_TEXT	SEGMENT
___$ReturnUdt$ = 8					; size = 4
_v$ = 12						; size = 4
??HD3DXVECTOR3@@QBE?AU0@ABU0@@Z PROC			; D3DXVECTOR3::operator+, COMDAT
; _this$ = ecx

; 380  : {

  00000	55		 push	 ebp
  00001	8b ec		 mov	 ebp, esp

; 381  :     return D3DXVECTOR3(x + v.x, y + v.y, z + v.z);

  00003	8b 55 0c	 mov	 edx, DWORD PTR _v$[ebp]
  00006	f3 0f 10 02	 movss	 xmm0, DWORD PTR [edx]
  0000a	f3 0f 10 09	 movss	 xmm1, DWORD PTR [ecx]
  0000e	8b 45 08	 mov	 eax, DWORD PTR ___$ReturnUdt$[ebp]
  00011	0f 5a c0	 cvtps2pd xmm0, xmm0
  00014	0f 5a c9	 cvtps2pd xmm1, xmm1
  00017	f2 0f 58 c1	 addsd	 xmm0, xmm1
  0001b	f3 0f 10 49 04	 movss	 xmm1, DWORD PTR [ecx+4]
  00020	66 0f 5a c0	 cvtpd2ps xmm0, xmm0
  00024	f3 0f 11 00	 movss	 DWORD PTR [eax], xmm0
  00028	f3 0f 10 42 04	 movss	 xmm0, DWORD PTR [edx+4]
  0002d	0f 5a c0	 cvtps2pd xmm0, xmm0
  00030	0f 5a c9	 cvtps2pd xmm1, xmm1
  00033	f2 0f 58 c1	 addsd	 xmm0, xmm1
  00037	f3 0f 10 49 08	 movss	 xmm1, DWORD PTR [ecx+8]
  0003c	66 0f 5a c0	 cvtpd2ps xmm0, xmm0
  00040	f3 0f 11 40 04	 movss	 DWORD PTR [eax+4], xmm0
  00045	f3 0f 10 42 08	 movss	 xmm0, DWORD PTR [edx+8]
  0004a	0f 5a c0	 cvtps2pd xmm0, xmm0
  0004d	0f 5a c9	 cvtps2pd xmm1, xmm1
  00050	f2 0f 58 c1	 addsd	 xmm0, xmm1
  00054	66 0f 5a c0	 cvtpd2ps xmm0, xmm0
  00058	f3 0f 11 40 08	 movss	 DWORD PTR [eax+8], xmm0

; 382  : }

  0005d	5d		 pop	 ebp
  0005e	c2 08 00	 ret	 8
??HD3DXVECTOR3@@QBE?AU0@ABU0@@Z ENDP			; D3DXVECTOR3::operator+
_TEXT	ENDS
PUBLIC	??GD3DXVECTOR3@@QBE?AU0@ABU0@@Z			; D3DXVECTOR3::operator-
; Function compile flags: /Ogsp
;	COMDAT ??GD3DXVECTOR3@@QBE?AU0@ABU0@@Z
_TEXT	SEGMENT
___$ReturnUdt$ = 8					; size = 4
_v$ = 12						; size = 4
??GD3DXVECTOR3@@QBE?AU0@ABU0@@Z PROC			; D3DXVECTOR3::operator-, COMDAT
; _this$ = ecx

; 386  : {

  00000	55		 push	 ebp
  00001	8b ec		 mov	 ebp, esp

; 387  :     return D3DXVECTOR3(x - v.x, y - v.y, z - v.z);

  00003	8b 55 0c	 mov	 edx, DWORD PTR _v$[ebp]
  00006	f3 0f 10 01	 movss	 xmm0, DWORD PTR [ecx]
  0000a	f3 0f 10 0a	 movss	 xmm1, DWORD PTR [edx]
  0000e	8b 45 08	 mov	 eax, DWORD PTR ___$ReturnUdt$[ebp]
  00011	0f 5a c0	 cvtps2pd xmm0, xmm0
  00014	0f 5a c9	 cvtps2pd xmm1, xmm1
  00017	f2 0f 5c c1	 subsd	 xmm0, xmm1
  0001b	f3 0f 10 4a 04	 movss	 xmm1, DWORD PTR [edx+4]
  00020	66 0f 5a c0	 cvtpd2ps xmm0, xmm0
  00024	f3 0f 11 00	 movss	 DWORD PTR [eax], xmm0
  00028	f3 0f 10 41 04	 movss	 xmm0, DWORD PTR [ecx+4]
  0002d	0f 5a c0	 cvtps2pd xmm0, xmm0
  00030	0f 5a c9	 cvtps2pd xmm1, xmm1
  00033	f2 0f 5c c1	 subsd	 xmm0, xmm1
  00037	f3 0f 10 4a 08	 movss	 xmm1, DWORD PTR [edx+8]
  0003c	66 0f 5a c0	 cvtpd2ps xmm0, xmm0
  00040	f3 0f 11 40 04	 movss	 DWORD PTR [eax+4], xmm0
  00045	f3 0f 10 41 08	 movss	 xmm0, DWORD PTR [ecx+8]
  0004a	0f 5a c0	 cvtps2pd xmm0, xmm0
  0004d	0f 5a c9	 cvtps2pd xmm1, xmm1
  00050	f2 0f 5c c1	 subsd	 xmm0, xmm1
  00054	66 0f 5a c0	 cvtpd2ps xmm0, xmm0
  00058	f3 0f 11 40 08	 movss	 DWORD PTR [eax+8], xmm0

; 388  : }

  0005d	5d		 pop	 ebp
  0005e	c2 08 00	 ret	 8
??GD3DXVECTOR3@@QBE?AU0@ABU0@@Z ENDP			; D3DXVECTOR3::operator-
_TEXT	ENDS
PUBLIC	??DD3DXVECTOR3@@QBE?AU0@M@Z			; D3DXVECTOR3::operator*
; Function compile flags: /Ogsp
;	COMDAT ??DD3DXVECTOR3@@QBE?AU0@M@Z
_TEXT	SEGMENT
___$ReturnUdt$ = 8					; size = 4
_f$ = 12						; size = 4
??DD3DXVECTOR3@@QBE?AU0@M@Z PROC			; D3DXVECTOR3::operator*, COMDAT
; _this$ = ecx

; 392  : {

  00000	55		 push	 ebp
  00001	8b ec		 mov	 ebp, esp

; 393  :     return D3DXVECTOR3(x * f, y * f, z * f);

  00003	f3 0f 10 4d 0c	 movss	 xmm1, DWORD PTR _f$[ebp]
  00008	f3 0f 10 01	 movss	 xmm0, DWORD PTR [ecx]
  0000c	8b 45 08	 mov	 eax, DWORD PTR ___$ReturnUdt$[ebp]
  0000f	0f 5a c0	 cvtps2pd xmm0, xmm0
  00012	0f 5a c9	 cvtps2pd xmm1, xmm1
  00015	f2 0f 59 c1	 mulsd	 xmm0, xmm1
  00019	f3 0f 10 4d 0c	 movss	 xmm1, DWORD PTR _f$[ebp]
  0001e	66 0f 5a c0	 cvtpd2ps xmm0, xmm0
  00022	f3 0f 11 00	 movss	 DWORD PTR [eax], xmm0
  00026	f3 0f 10 41 04	 movss	 xmm0, DWORD PTR [ecx+4]
  0002b	0f 5a c0	 cvtps2pd xmm0, xmm0
  0002e	0f 5a c9	 cvtps2pd xmm1, xmm1
  00031	f2 0f 59 c1	 mulsd	 xmm0, xmm1
  00035	f3 0f 10 4d 0c	 movss	 xmm1, DWORD PTR _f$[ebp]
  0003a	66 0f 5a c0	 cvtpd2ps xmm0, xmm0
  0003e	f3 0f 11 40 04	 movss	 DWORD PTR [eax+4], xmm0
  00043	f3 0f 10 41 08	 movss	 xmm0, DWORD PTR [ecx+8]
  00048	0f 5a c0	 cvtps2pd xmm0, xmm0
  0004b	0f 5a c9	 cvtps2pd xmm1, xmm1
  0004e	f2 0f 59 c1	 mulsd	 xmm0, xmm1
  00052	66 0f 5a c0	 cvtpd2ps xmm0, xmm0
  00056	f3 0f 11 40 08	 movss	 DWORD PTR [eax+8], xmm0

; 394  : }

  0005b	5d		 pop	 ebp
  0005c	c2 08 00	 ret	 8
??DD3DXVECTOR3@@QBE?AU0@M@Z ENDP			; D3DXVECTOR3::operator*
_TEXT	ENDS
PUBLIC	__real@3f91df46a2526c7a
PUBLIC	??$DEGtoRAD@M@@YAMM@Z				; DEGtoRAD<float>
;	COMDAT __real@3f91df46a2526c7a
; File d:\lost saga for developer\youtube\tutorial\source\src\lsclient\veryoftenusedefine.h
CONST	SEGMENT
__real@3f91df46a2526c7a DQ 03f91df46a2526c7ar	; 0.0174533
; Function compile flags: /Ogsp
CONST	ENDS
;	COMDAT ??$DEGtoRAD@M@@YAMM@Z
_TEXT	SEGMENT
tv129 = 8						; size = 4
_val$ = 8						; size = 4
??$DEGtoRAD@M@@YAMM@Z PROC				; DEGtoRAD<float>, COMDAT

; 20   : type  DEGtoRAD (type val) {return (type) (val * 0.0174532925199);}

  00000	55		 push	 ebp
  00001	8b ec		 mov	 ebp, esp
  00003	d9 45 08	 fld	 DWORD PTR _val$[ebp]
  00006	dc 0d 00 00 00
	00		 fmul	 QWORD PTR __real@3f91df46a2526c7a
  0000c	d9 5d 08	 fstp	 DWORD PTR tv129[ebp]
  0000f	d9 45 08	 fld	 DWORD PTR tv129[ebp]
  00012	5d		 pop	 ebp
  00013	c3		 ret	 0
??$DEGtoRAD@M@@YAMM@Z ENDP				; DEGtoRAD<float>
_TEXT	ENDS
PUBLIC	??$addressof@$$CBUCreateWeaponInfo@ioOwnerAttach4Dummy@@@std@@YAPBUCreateWeaponInfo@ioOwnerAttach4Dummy@@ABU12@@Z ; std::addressof<ioOwnerAttach4Dummy::CreateWeaponInfo const >
; Function compile flags: /Ogsp
; File c:\program files (x86)\microsoft visual studio 10.0\vc\include\xmemory
;	COMDAT ??$addressof@$$CBUCreateWeaponInfo@ioOwnerAttach4Dummy@@@std@@YAPBUCreateWeaponInfo@ioOwnerAttach4Dummy@@ABU12@@Z
_TEXT	SEGMENT
__Val$ = 8						; size = 4
??$addressof@$$CBUCreateWeaponInfo@ioOwnerAttach4Dummy@@@std@@YAPBUCreateWeaponInfo@ioOwnerAttach4Dummy@@ABU12@@Z PROC ; std::addressof<ioOwnerAttach4Dummy::CreateWeaponInfo const >, COMDAT

; 110  : 	{	// return address of _Val

  00000	55		 push	 ebp
  00001	8b ec		 mov	 ebp, esp

; 111  : 	return ((_Ty *) &(char&)_Val);

  00003	8b 45 08	 mov	 eax, DWORD PTR __Val$[ebp]

; 112  : 	}

  00006	5d		 pop	 ebp
  00007	c3		 ret	 0
??$addressof@$$CBUCreateWeaponInfo@ioOwnerAttach4Dummy@@@std@@YAPBUCreateWeaponInfo@ioOwnerAttach4Dummy@@ABU12@@Z ENDP ; std::addressof<ioOwnerAttach4Dummy::CreateWeaponInfo const >
_TEXT	ENDS
PUBLIC	__TI2?AVbad_alloc@std@@
PUBLIC	??$_Allocate@UCreateWeaponInfo@ioOwnerAttach4Dummy@@@std@@YAPAUCreateWeaponInfo@ioOwnerAttach4Dummy@@IPAU12@@Z ; std::_Allocate<ioOwnerAttach4Dummy::CreateWeaponInfo>
PUBLIC	__CTA2?AVbad_alloc@std@@
PUBLIC	__CT??_R0?AVbad_alloc@std@@@8??0bad_alloc@std@@QAE@ABV01@@Z12
PUBLIC	??0bad_alloc@std@@QAE@ABV01@@Z			; std::bad_alloc::bad_alloc
PUBLIC	__CT??_R0?AVexception@std@@@8??0exception@std@@QAE@ABV01@@Z12
EXTRN	??2@YAPAXI@Z:PROC				; operator new
EXTRN	__CxxThrowException@8:PROC
EXTRN	??0exception@std@@QAE@ABV01@@Z:PROC		; std::exception::exception
;	COMDAT __CT??_R0?AVexception@std@@@8??0exception@std@@QAE@ABV01@@Z12
; File c:\program files (x86)\microsoft visual studio 10.0\vc\include\exception
xdata$x	SEGMENT
__CT??_R0?AVexception@std@@@8??0exception@std@@QAE@ABV01@@Z12 DD 00H
	DD	FLAT:??_R0?AVexception@std@@@8
	DD	00H
	DD	0ffffffffH
	ORG $+4
	DD	0cH
	DD	FLAT:??0exception@std@@QAE@ABV01@@Z
xdata$x	ENDS
;	COMDAT __CT??_R0?AVbad_alloc@std@@@8??0bad_alloc@std@@QAE@ABV01@@Z12
xdata$x	SEGMENT
__CT??_R0?AVbad_alloc@std@@@8??0bad_alloc@std@@QAE@ABV01@@Z12 DD 00H
	DD	FLAT:??_R0?AVbad_alloc@std@@@8
	DD	00H
	DD	0ffffffffH
	ORG $+4
	DD	0cH
	DD	FLAT:??0bad_alloc@std@@QAE@ABV01@@Z
xdata$x	ENDS
;	COMDAT __CTA2?AVbad_alloc@std@@
xdata$x	SEGMENT
__CTA2?AVbad_alloc@std@@ DD 02H
	DD	FLAT:__CT??_R0?AVbad_alloc@std@@@8??0bad_alloc@std@@QAE@ABV01@@Z12
	DD	FLAT:__CT??_R0?AVexception@std@@@8??0exception@std@@QAE@ABV01@@Z12
xdata$x	ENDS
;	COMDAT __TI2?AVbad_alloc@std@@
xdata$x	SEGMENT
__TI2?AVbad_alloc@std@@ DD 00H
	DD	FLAT:??1bad_alloc@std@@UAE@XZ
	DD	00H
	DD	FLAT:__CTA2?AVbad_alloc@std@@
; Function compile flags: /Ogsp
; File c:\program files (x86)\microsoft visual studio 10.0\vc\include\xmemory
xdata$x	ENDS
;	COMDAT ??$_Allocate@UCreateWeaponInfo@ioOwnerAttach4Dummy@@@std@@YAPAUCreateWeaponInfo@ioOwnerAttach4Dummy@@IPAU12@@Z
_TEXT	SEGMENT
$T554250 = -12						; size = 12
$T554255 = 8						; size = 4
__Count$ = 8						; size = 4
___formal$ = 12						; size = 4
??$_Allocate@UCreateWeaponInfo@ioOwnerAttach4Dummy@@@std@@YAPAUCreateWeaponInfo@ioOwnerAttach4Dummy@@IPAU12@@Z PROC ; std::_Allocate<ioOwnerAttach4Dummy::CreateWeaponInfo>, COMDAT

; 30   : 	{	// allocate storage for _Count elements of type _Ty

  00000	55		 push	 ebp
  00001	8b ec		 mov	 ebp, esp

; 31   : 	void *_Ptr = 0;
; 32   : 
; 33   : 	if (_Count <= 0)

  00003	8b 4d 08	 mov	 ecx, DWORD PTR __Count$[ebp]
  00006	83 ec 0c	 sub	 esp, 12			; 0000000cH
  00009	33 c0		 xor	 eax, eax
  0000b	85 c9		 test	 ecx, ecx

; 34   : 		_Count = 0;
; 35   : 	else if (((_SIZT)(-1) / sizeof (_Ty) < _Count)

  0000d	74 3c		 je	 SHORT $LN5@Allocate

; 36   : 		|| (_Ptr = ::operator new(_Count * sizeof (_Ty))) == 0)

  0000f	81 f9 c7 71 1c
	07		 cmp	 ecx, 119304647		; 071c71c7H
  00015	77 0e		 ja	 SHORT $LN1@Allocate
  00017	6b c9 24	 imul	 ecx, 36			; 00000024H
  0001a	51		 push	 ecx
  0001b	e8 00 00 00 00	 call	 ??2@YAPAXI@Z		; operator new
  00020	59		 pop	 ecx
  00021	85 c0		 test	 eax, eax

; 38   : 
; 39   : 	return ((_Ty _FARQ *)_Ptr);

  00023	75 26		 jne	 SHORT $LN5@Allocate
$LN1@Allocate:

; 37   : 		_THROW_NCEE(bad_alloc, 0);

  00025	83 65 08 00	 and	 DWORD PTR $T554255[ebp], 0
  00029	8d 45 08	 lea	 eax, DWORD PTR $T554255[ebp]
  0002c	50		 push	 eax
  0002d	8d 4d f4	 lea	 ecx, DWORD PTR $T554250[ebp]
  00030	ff 15 00 00 00
	00		 call	 DWORD PTR __imp_??0exception@std@@QAE@ABQBD@Z
  00036	68 00 00 00 00	 push	 OFFSET __TI2?AVbad_alloc@std@@
  0003b	8d 45 f4	 lea	 eax, DWORD PTR $T554250[ebp]
  0003e	50		 push	 eax
  0003f	c7 45 f4 00 00
	00 00		 mov	 DWORD PTR $T554250[ebp], OFFSET ??_7bad_alloc@std@@6B@
  00046	e8 00 00 00 00	 call	 __CxxThrowException@8
$LN10@Allocate:
$LN5@Allocate:

; 40   : 	}

  0004b	c9		 leave
  0004c	c3		 ret	 0
$LN9@Allocate:
??$_Allocate@UCreateWeaponInfo@ioOwnerAttach4Dummy@@@std@@YAPAUCreateWeaponInfo@ioOwnerAttach4Dummy@@IPAU12@@Z ENDP ; std::_Allocate<ioOwnerAttach4Dummy::CreateWeaponInfo>
_TEXT	ENDS
PUBLIC	??$forward@AAUCreateWeaponInfo@ioOwnerAttach4Dummy@@@std@@YAAAUCreateWeaponInfo@ioOwnerAttach4Dummy@@AAU12@@Z ; std::forward<ioOwnerAttach4Dummy::CreateWeaponInfo &>
; Function compile flags: /Ogsp
; File c:\program files (x86)\microsoft visual studio 10.0\vc\include\utility
;	COMDAT ??$forward@AAUCreateWeaponInfo@ioOwnerAttach4Dummy@@@std@@YAAAUCreateWeaponInfo@ioOwnerAttach4Dummy@@AAU12@@Z
_TEXT	SEGMENT
__Arg$ = 8						; size = 4
??$forward@AAUCreateWeaponInfo@ioOwnerAttach4Dummy@@@std@@YAAAUCreateWeaponInfo@ioOwnerAttach4Dummy@@AAU12@@Z PROC ; std::forward<ioOwnerAttach4Dummy::CreateWeaponInfo &>, COMDAT

; 78   : 	{	// forward _Arg, given explicitly specified type parameter

  00000	55		 push	 ebp
  00001	8b ec		 mov	 ebp, esp

; 79   : 	return ((_Ty&&)_Arg);

  00003	8b 45 08	 mov	 eax, DWORD PTR __Arg$[ebp]

; 80   : 	}

  00006	5d		 pop	 ebp
  00007	c3		 ret	 0
??$forward@AAUCreateWeaponInfo@ioOwnerAttach4Dummy@@@std@@YAAAUCreateWeaponInfo@ioOwnerAttach4Dummy@@AAU12@@Z ENDP ; std::forward<ioOwnerAttach4Dummy::CreateWeaponInfo &>
_TEXT	ENDS
PUBLIC	??$construct@AAUCreateWeaponInfo@ioOwnerAttach4Dummy@@@?$allocator@UCreateWeaponInfo@ioOwnerAttach4Dummy@@@std@@QAEXPAUCreateWeaponInfo@ioOwnerAttach4Dummy@@AAU23@@Z ; std::allocator<ioOwnerAttach4Dummy::CreateWeaponInfo>::construct<ioOwnerAttach4Dummy::CreateWeaponInfo &>
; Function compile flags: /Ogsp
; File c:\program files (x86)\microsoft visual studio 10.0\vc\include\xmemory
;	COMDAT ??$construct@AAUCreateWeaponInfo@ioOwnerAttach4Dummy@@@?$allocator@UCreateWeaponInfo@ioOwnerAttach4Dummy@@@std@@QAEXPAUCreateWeaponInfo@ioOwnerAttach4Dummy@@AAU23@@Z
_TEXT	SEGMENT
__Ptr$ = 8						; size = 4
__Val$ = 12						; size = 4
??$construct@AAUCreateWeaponInfo@ioOwnerAttach4Dummy@@@?$allocator@UCreateWeaponInfo@ioOwnerAttach4Dummy@@@std@@QAEXPAUCreateWeaponInfo@ioOwnerAttach4Dummy@@AAU23@@Z PROC ; std::allocator<ioOwnerAttach4Dummy::CreateWeaponInfo>::construct<ioOwnerAttach4Dummy::CreateWeaponInfo &>, COMDAT
; _this$ = ecx

; 206  : 		void construct(pointer _Ptr, _Other&& _Val)

  00000	55		 push	 ebp
  00001	8b ec		 mov	 ebp, esp
  00003	57		 push	 edi

; 207  : 		{	// construct object at _Ptr with value _Val
; 208  : 		::new ((void _FARQ *)_Ptr) _Ty(_STD forward<_Other>(_Val));

  00004	8b 7d 08	 mov	 edi, DWORD PTR __Ptr$[ebp]
  00007	85 ff		 test	 edi, edi
  00009	74 0a		 je	 SHORT $LN3@construct
  0000b	56		 push	 esi
  0000c	8b 75 0c	 mov	 esi, DWORD PTR __Val$[ebp]
  0000f	6a 09		 push	 9
  00011	59		 pop	 ecx
  00012	f3 a5		 rep movsd
  00014	5e		 pop	 esi
$LN3@construct:
  00015	5f		 pop	 edi

; 209  : 		}

  00016	5d		 pop	 ebp
  00017	c2 08 00	 ret	 8
??$construct@AAUCreateWeaponInfo@ioOwnerAttach4Dummy@@@?$allocator@UCreateWeaponInfo@ioOwnerAttach4Dummy@@@std@@QAEXPAUCreateWeaponInfo@ioOwnerAttach4Dummy@@AAU23@@Z ENDP ; std::allocator<ioOwnerAttach4Dummy::CreateWeaponInfo>::construct<ioOwnerAttach4Dummy::CreateWeaponInfo &>
_TEXT	ENDS
PUBLIC	??$forward@ABUCreateWeaponInfo@ioOwnerAttach4Dummy@@@std@@YAABUCreateWeaponInfo@ioOwnerAttach4Dummy@@ABU12@@Z ; std::forward<ioOwnerAttach4Dummy::CreateWeaponInfo const &>
; Function compile flags: /Ogsp
; File c:\program files (x86)\microsoft visual studio 10.0\vc\include\utility
;	COMDAT ??$forward@ABUCreateWeaponInfo@ioOwnerAttach4Dummy@@@std@@YAABUCreateWeaponInfo@ioOwnerAttach4Dummy@@ABU12@@Z
_TEXT	SEGMENT
__Arg$ = 8						; size = 4
??$forward@ABUCreateWeaponInfo@ioOwnerAttach4Dummy@@@std@@YAABUCreateWeaponInfo@ioOwnerAttach4Dummy@@ABU12@@Z PROC ; std::forward<ioOwnerAttach4Dummy::CreateWeaponInfo const &>, COMDAT

; 78   : 	{	// forward _Arg, given explicitly specified type parameter

  00000	55		 push	 ebp
  00001	8b ec		 mov	 ebp, esp

; 79   : 	return ((_Ty&&)_Arg);

  00003	8b 45 08	 mov	 eax, DWORD PTR __Arg$[ebp]

; 80   : 	}

  00006	5d		 pop	 ebp
  00007	c3		 ret	 0
??$forward@ABUCreateWeaponInfo@ioOwnerAttach4Dummy@@@std@@YAABUCreateWeaponInfo@ioOwnerAttach4Dummy@@ABU12@@Z ENDP ; std::forward<ioOwnerAttach4Dummy::CreateWeaponInfo const &>
_TEXT	ENDS
PUBLIC	??$_Ptr_cat@UCreateWeaponInfo@ioOwnerAttach4Dummy@@U12@@std@@YA?AU_Nonscalar_ptr_iterator_tag@0@PAUCreateWeaponInfo@ioOwnerAttach4Dummy@@0@Z ; std::_Ptr_cat<ioOwnerAttach4Dummy::CreateWeaponInfo,ioOwnerAttach4Dummy::CreateWeaponInfo>
; Function compile flags: /Ogsp
; File c:\program files (x86)\microsoft visual studio 10.0\vc\include\xutility
;	COMDAT ??$_Ptr_cat@UCreateWeaponInfo@ioOwnerAttach4Dummy@@U12@@std@@YA?AU_Nonscalar_ptr_iterator_tag@0@PAUCreateWeaponInfo@ioOwnerAttach4Dummy@@0@Z
_TEXT	SEGMENT
__Cat$ = -1						; size = 1
___formal$ = 8						; size = 4
___formal$ = 12						; size = 4
??$_Ptr_cat@UCreateWeaponInfo@ioOwnerAttach4Dummy@@U12@@std@@YA?AU_Nonscalar_ptr_iterator_tag@0@PAUCreateWeaponInfo@ioOwnerAttach4Dummy@@0@Z PROC ; std::_Ptr_cat<ioOwnerAttach4Dummy::CreateWeaponInfo,ioOwnerAttach4Dummy::CreateWeaponInfo>, COMDAT

; 516  : 	{	// return pointer category from pointers

  00000	55		 push	 ebp
  00001	8b ec		 mov	 ebp, esp
  00003	51		 push	 ecx

; 517  : 	typename _Ptr_cat_helper<_Elem1, _Elem2>::_Type _Cat;
; 518  : 	return (_Cat);

  00004	8a 45 ff	 mov	 al, BYTE PTR __Cat$[ebp]

; 519  : 	}

  00007	c9		 leave
  00008	c3		 ret	 0
??$_Ptr_cat@UCreateWeaponInfo@ioOwnerAttach4Dummy@@U12@@std@@YA?AU_Nonscalar_ptr_iterator_tag@0@PAUCreateWeaponInfo@ioOwnerAttach4Dummy@@0@Z ENDP ; std::_Ptr_cat<ioOwnerAttach4Dummy::CreateWeaponInfo,ioOwnerAttach4Dummy::CreateWeaponInfo>
_TEXT	ENDS
PUBLIC	??$_Construct@UCreateWeaponInfo@ioOwnerAttach4Dummy@@ABU12@@std@@YAXPAUCreateWeaponInfo@ioOwnerAttach4Dummy@@ABU12@@Z ; std::_Construct<ioOwnerAttach4Dummy::CreateWeaponInfo,ioOwnerAttach4Dummy::CreateWeaponInfo const &>
; Function compile flags: /Ogsp
; File c:\program files (x86)\microsoft visual studio 10.0\vc\include\xmemory
;	COMDAT ??$_Construct@UCreateWeaponInfo@ioOwnerAttach4Dummy@@ABU12@@std@@YAXPAUCreateWeaponInfo@ioOwnerAttach4Dummy@@ABU12@@Z
_TEXT	SEGMENT
__Ptr$ = 8						; size = 4
__Val$ = 12						; size = 4
??$_Construct@UCreateWeaponInfo@ioOwnerAttach4Dummy@@ABU12@@std@@YAXPAUCreateWeaponInfo@ioOwnerAttach4Dummy@@ABU12@@Z PROC ; std::_Construct<ioOwnerAttach4Dummy::CreateWeaponInfo,ioOwnerAttach4Dummy::CreateWeaponInfo const &>, COMDAT

; 46   : 	{	// construct object at _Ptr with value _Val

  00000	55		 push	 ebp
  00001	8b ec		 mov	 ebp, esp
  00003	57		 push	 edi

; 47   : 	void _FARQ *_Vptr = _Ptr;
; 48   : 	::new (_Vptr) _Ty1(_STD forward<_Ty2>(_Val));

  00004	8b 7d 08	 mov	 edi, DWORD PTR __Ptr$[ebp]
  00007	85 ff		 test	 edi, edi
  00009	74 0a		 je	 SHORT $LN3@Construct
  0000b	56		 push	 esi
  0000c	8b 75 0c	 mov	 esi, DWORD PTR __Val$[ebp]
  0000f	6a 09		 push	 9
  00011	59		 pop	 ecx
  00012	f3 a5		 rep movsd
  00014	5e		 pop	 esi
$LN3@Construct:
  00015	5f		 pop	 edi

; 49   : 	}

  00016	5d		 pop	 ebp
  00017	c3		 ret	 0
??$_Construct@UCreateWeaponInfo@ioOwnerAttach4Dummy@@ABU12@@std@@YAXPAUCreateWeaponInfo@ioOwnerAttach4Dummy@@ABU12@@Z ENDP ; std::_Construct<ioOwnerAttach4Dummy::CreateWeaponInfo,ioOwnerAttach4Dummy::CreateWeaponInfo const &>
_TEXT	ENDS
PUBLIC	??$move@AAUCreateWeaponInfo@ioOwnerAttach4Dummy@@@std@@YA$$QAUCreateWeaponInfo@ioOwnerAttach4Dummy@@AAU12@@Z ; std::move<ioOwnerAttach4Dummy::CreateWeaponInfo &>
; Function compile flags: /Ogsp
; File c:\program files (x86)\microsoft visual studio 10.0\vc\include\utility
;	COMDAT ??$move@AAUCreateWeaponInfo@ioOwnerAttach4Dummy@@@std@@YA$$QAUCreateWeaponInfo@ioOwnerAttach4Dummy@@AAU12@@Z
_TEXT	SEGMENT
__Arg$ = 8						; size = 4
??$move@AAUCreateWeaponInfo@ioOwnerAttach4Dummy@@@std@@YA$$QAUCreateWeaponInfo@ioOwnerAttach4Dummy@@AAU12@@Z PROC ; std::move<ioOwnerAttach4Dummy::CreateWeaponInfo &>, COMDAT

; 86   : 	{	// forward _Arg as movable

  00000	55		 push	 ebp
  00001	8b ec		 mov	 ebp, esp

; 87   : 	return ((typename tr1::_Remove_reference<_Ty>::_Type&&)_Arg);

  00003	8b 45 08	 mov	 eax, DWORD PTR __Arg$[ebp]

; 88   : 	}

  00006	5d		 pop	 ebp
  00007	c3		 ret	 0
??$move@AAUCreateWeaponInfo@ioOwnerAttach4Dummy@@@std@@YA$$QAUCreateWeaponInfo@ioOwnerAttach4Dummy@@AAU12@@Z ENDP ; std::move<ioOwnerAttach4Dummy::CreateWeaponInfo &>
_TEXT	ENDS
PUBLIC	??$_Val_type@PAUCreateWeaponInfo@ioOwnerAttach4Dummy@@@std@@YAPAUCreateWeaponInfo@ioOwnerAttach4Dummy@@PAU12@@Z ; std::_Val_type<ioOwnerAttach4Dummy::CreateWeaponInfo *>
; Function compile flags: /Ogsp
; File c:\program files (x86)\microsoft visual studio 10.0\vc\include\xutility
;	COMDAT ??$_Val_type@PAUCreateWeaponInfo@ioOwnerAttach4Dummy@@@std@@YAPAUCreateWeaponInfo@ioOwnerAttach4Dummy@@PAU12@@Z
_TEXT	SEGMENT
___formal$ = 8						; size = 4
??$_Val_type@PAUCreateWeaponInfo@ioOwnerAttach4Dummy@@@std@@YAPAUCreateWeaponInfo@ioOwnerAttach4Dummy@@PAU12@@Z PROC ; std::_Val_type<ioOwnerAttach4Dummy::CreateWeaponInfo *>, COMDAT

; 790  : 	return (0);

  00000	33 c0		 xor	 eax, eax

; 791  : 	}

  00002	c3		 ret	 0
??$_Val_type@PAUCreateWeaponInfo@ioOwnerAttach4Dummy@@@std@@YAPAUCreateWeaponInfo@ioOwnerAttach4Dummy@@PAU12@@Z ENDP ; std::_Val_type<ioOwnerAttach4Dummy::CreateWeaponInfo *>
_TEXT	ENDS
PUBLIC	??$_Destroy@UCreateWeaponInfo@ioOwnerAttach4Dummy@@@std@@YAXPAUCreateWeaponInfo@ioOwnerAttach4Dummy@@@Z ; std::_Destroy<ioOwnerAttach4Dummy::CreateWeaponInfo>
; Function compile flags: /Ogsp
; File c:\program files (x86)\microsoft visual studio 10.0\vc\include\xmemory
;	COMDAT ??$_Destroy@UCreateWeaponInfo@ioOwnerAttach4Dummy@@@std@@YAXPAUCreateWeaponInfo@ioOwnerAttach4Dummy@@@Z
_TEXT	SEGMENT
__Ptr$ = 8						; size = 4
??$_Destroy@UCreateWeaponInfo@ioOwnerAttach4Dummy@@@std@@YAXPAUCreateWeaponInfo@ioOwnerAttach4Dummy@@@Z PROC ; std::_Destroy<ioOwnerAttach4Dummy::CreateWeaponInfo>, COMDAT

; 63   : 	_Ptr->~_Ty();
; 64   : 	}

  00000	c3		 ret	 0
??$_Destroy@UCreateWeaponInfo@ioOwnerAttach4Dummy@@@std@@YAXPAUCreateWeaponInfo@ioOwnerAttach4Dummy@@@Z ENDP ; std::_Destroy<ioOwnerAttach4Dummy::CreateWeaponInfo>
_TEXT	ENDS
PUBLIC	??$forward@UCreateWeaponInfo@ioOwnerAttach4Dummy@@@std@@YA$$QAUCreateWeaponInfo@ioOwnerAttach4Dummy@@AAU12@@Z ; std::forward<ioOwnerAttach4Dummy::CreateWeaponInfo>
; Function compile flags: /Ogsp
; File c:\program files (x86)\microsoft visual studio 10.0\vc\include\utility
;	COMDAT ??$forward@UCreateWeaponInfo@ioOwnerAttach4Dummy@@@std@@YA$$QAUCreateWeaponInfo@ioOwnerAttach4Dummy@@AAU12@@Z
_TEXT	SEGMENT
__Arg$ = 8						; size = 4
??$forward@UCreateWeaponInfo@ioOwnerAttach4Dummy@@@std@@YA$$QAUCreateWeaponInfo@ioOwnerAttach4Dummy@@AAU12@@Z PROC ; std::forward<ioOwnerAttach4Dummy::CreateWeaponInfo>, COMDAT

; 78   : 	{	// forward _Arg, given explicitly specified type parameter

  00000	55		 push	 ebp
  00001	8b ec		 mov	 ebp, esp

; 79   : 	return ((_Ty&&)_Arg);

  00003	8b 45 08	 mov	 eax, DWORD PTR __Arg$[ebp]

; 80   : 	}

  00006	5d		 pop	 ebp
  00007	c3		 ret	 0
??$forward@UCreateWeaponInfo@ioOwnerAttach4Dummy@@@std@@YA$$QAUCreateWeaponInfo@ioOwnerAttach4Dummy@@AAU12@@Z ENDP ; std::forward<ioOwnerAttach4Dummy::CreateWeaponInfo>
_TEXT	ENDS
PUBLIC	?D3DXVec3Length@@YAMPBUD3DXVECTOR3@@@Z		; D3DXVec3Length
; Function compile flags: /Ogsp
; File c:\program files (x86)\microsoft directx sdk (june 2010)\include\d3dx9math.inl
;	COMDAT ?D3DXVec3Length@@YAMPBUD3DXVECTOR3@@@Z
_TEXT	SEGMENT
tv169 = 8						; size = 4
tv160 = 8						; size = 4
_pV$ = 8						; size = 4
?D3DXVec3Length@@YAMPBUD3DXVECTOR3@@@Z PROC		; D3DXVec3Length, COMDAT

; 1710 : {

  00000	55		 push	 ebp
  00001	8b ec		 mov	 ebp, esp

; 1711 : #ifdef D3DX_DEBUG
; 1712 :     if(!pV)
; 1713 :         return 0.0f;
; 1714 : #endif
; 1715 : 
; 1716 : #ifdef __cplusplus
; 1717 :     return sqrtf(pV->x * pV->x + pV->y * pV->y + pV->z * pV->z);

  00003	8b 45 08	 mov	 eax, DWORD PTR _pV$[ebp]
  00006	d9 40 04	 fld	 DWORD PTR [eax+4]
  00009	d9 00		 fld	 DWORD PTR [eax]
  0000b	d9 40 08	 fld	 DWORD PTR [eax+8]
  0000e	d9 c1		 fld	 ST(1)
  00010	de ca		 fmulp	 ST(2), ST(0)
  00012	d9 c2		 fld	 ST(2)
  00014	de cb		 fmulp	 ST(3), ST(0)
  00016	d9 c9		 fxch	 ST(1)
  00018	de c2		 faddp	 ST(2), ST(0)
  0001a	d9 c0		 fld	 ST(0)
  0001c	de c9		 fmulp	 ST(1), ST(0)
  0001e	de c1		 faddp	 ST(1), ST(0)
  00020	d9 5d 08	 fstp	 DWORD PTR tv169[ebp]
  00023	d9 45 08	 fld	 DWORD PTR tv169[ebp]
  00026	e8 00 00 00 00	 call	 __CIsqrt
  0002b	d9 5d 08	 fstp	 DWORD PTR tv160[ebp]
  0002e	d9 45 08	 fld	 DWORD PTR tv160[ebp]

; 1718 : #else
; 1719 :     return (FLOAT) sqrt(pV->x * pV->x + pV->y * pV->y + pV->z * pV->z);
; 1720 : #endif
; 1721 : }

  00031	5d		 pop	 ebp
  00032	c3		 ret	 0
?D3DXVec3Length@@YAMPBUD3DXVECTOR3@@@Z ENDP		; D3DXVec3Length
_TEXT	ENDS
PUBLIC	?_DECSTR@@YAXPADH@Z				; _DECSTR
; Function compile flags: /Ogsp
; File d:\lost saga for developer\youtube\tutorial\source\src\lsclient\stringprotect.h
;	COMDAT ?_DECSTR@@YAXPADH@Z
_TEXT	SEGMENT
_s$ = 8							; size = 4
_l$ = 12						; size = 4
?_DECSTR@@YAXPADH@Z PROC				; _DECSTR, COMDAT

; 40   : __forceinline void _DECSTR(char* s, int l){int i=0,l4=(l-1)/4,*p=(int*)s;s[l-1]=0;for(;i<l4;++i)*(p++)^=0xEAEBECED;for(i=l4*4;i<l-1;++i)s[i]^=0xED-i%4;}

  00000	55		 push	 ebp
  00001	8b ec		 mov	 ebp, esp
  00003	8b 4d 0c	 mov	 ecx, DWORD PTR _l$[ebp]
  00006	56		 push	 esi
  00007	8b 75 08	 mov	 esi, DWORD PTR _s$[ebp]
  0000a	57		 push	 edi
  0000b	8d 79 ff	 lea	 edi, DWORD PTR [ecx-1]
  0000e	8b c7		 mov	 eax, edi
  00010	99		 cdq
  00011	83 e2 03	 and	 edx, 3
  00014	03 c2		 add	 eax, edx
  00016	c1 f8 02	 sar	 eax, 2
  00019	8b d6		 mov	 edx, esi
  0001b	c6 44 0e ff 00	 mov	 BYTE PTR [esi+ecx-1], 0
  00020	85 c0		 test	 eax, eax
  00022	7e 0e		 jle	 SHORT $LN4@DECSTR
  00024	8b c8		 mov	 ecx, eax
$LL6@DECSTR:
  00026	81 32 ed ec eb
	ea		 xor	 DWORD PTR [edx], -353637139 ; eaebecedH
  0002c	83 c2 04	 add	 edx, 4
  0002f	49		 dec	 ecx
  00030	75 f4		 jne	 SHORT $LL6@DECSTR
$LN4@DECSTR:
  00032	c1 e0 02	 shl	 eax, 2
  00035	eb 17		 jmp	 SHORT $LN14@DECSTR
$LL3@DECSTR:
  00037	8b c8		 mov	 ecx, eax
  00039	81 e1 03 00 00
	80		 and	 ecx, -2147483645	; 80000003H
  0003f	79 05		 jns	 SHORT $LN13@DECSTR
  00041	49		 dec	 ecx
  00042	83 c9 fc	 or	 ecx, -4			; fffffffcH
  00045	41		 inc	 ecx
$LN13@DECSTR:
  00046	b2 ed		 mov	 dl, -19			; ffffffedH
  00048	2a d1		 sub	 dl, cl
  0004a	30 14 30	 xor	 BYTE PTR [eax+esi], dl
  0004d	40		 inc	 eax
$LN14@DECSTR:
  0004e	3b c7		 cmp	 eax, edi
  00050	7c e5		 jl	 SHORT $LL3@DECSTR
  00052	5f		 pop	 edi
  00053	5e		 pop	 esi
  00054	5d		 pop	 ebp
  00055	c3		 ret	 0
?_DECSTR@@YAXPADH@Z ENDP				; _DECSTR
_TEXT	ENDS
PUBLIC	??0FireTime@@QAE@XZ				; FireTime::FireTime
EXTRN	__imp_??0ioHashString@@QAE@XZ:PROC
;	COMDAT xdata$x
; File d:\lost saga for developer\youtube\tutorial\source\src\lsclient\playentityhelpstruct.h
xdata$x	SEGMENT
__unwindtable$??0FireTime@@QAE@XZ DD 0ffffffffH
	DD	FLAT:__unwindfunclet$??0FireTime@@QAE@XZ$0
	DD	00H
	DD	FLAT:__unwindfunclet$??0FireTime@@QAE@XZ$1
__ehfuncinfo$??0FireTime@@QAE@XZ DD 019930522H
	DD	02H
	DD	FLAT:__unwindtable$??0FireTime@@QAE@XZ
	DD	2 DUP(00H)
	DD	2 DUP(00H)
	DD	00H
	DD	01H
; Function compile flags: /Ogsp
xdata$x	ENDS
;	COMDAT ??0FireTime@@QAE@XZ
_TEXT	SEGMENT
_this$ = -16						; size = 4
__$EHRec$ = -12						; size = 12
??0FireTime@@QAE@XZ PROC				; FireTime::FireTime, COMDAT
; _this$ = ecx

; 219  : 	FireTime()

  00000	6a 04		 push	 4
  00002	b8 00 00 00 00	 mov	 eax, __ehhandler$??0FireTime@@QAE@XZ
  00007	e8 00 00 00 00	 call	 __EH_prolog3
  0000c	8b f1		 mov	 esi, ecx
  0000e	89 75 f0	 mov	 DWORD PTR _this$[ebp], esi
  00011	8b 3d 00 00 00
	00		 mov	 edi, DWORD PTR __imp_??0ioHashString@@QAE@XZ
  00017	8d 4e 14	 lea	 ecx, DWORD PTR [esi+20]
  0001a	ff d7		 call	 edi
  0001c	33 db		 xor	 ebx, ebx
  0001e	8d 4e 30	 lea	 ecx, DWORD PTR [esi+48]
  00021	89 5d fc	 mov	 DWORD PTR __$EHRec$[ebp+8], ebx
  00024	ff d7		 call	 edi
  00026	8d 4e 44	 lea	 ecx, DWORD PTR [esi+68]
  00029	c6 45 fc 01	 mov	 BYTE PTR __$EHRec$[ebp+8], 1
  0002d	ff d7		 call	 edi

; 220  : 	{
; 221  : 		dwStart = 0;

  0002f	89 1e		 mov	 DWORD PTR [esi], ebx

; 222  : 		dwDuration = 0;

  00031	89 5e 04	 mov	 DWORD PTR [esi+4], ebx

; 223  : 
; 224  : 		iAttributeIdx = 0;

  00034	89 5e 08	 mov	 DWORD PTR [esi+8], ebx

; 225  : 		iResistanceIdx = 0;

  00037	89 5e 0c	 mov	 DWORD PTR [esi+12], ebx

; 226  : 
; 227  : 		bLoopWoundedAni = false;

  0003a	88 5e 10	 mov	 BYTE PTR [esi+16], bl

; 228  : 		dwWoundedAniDuration = 0;

  0003d	89 5e 24	 mov	 DWORD PTR [esi+36], ebx

; 229  : 
; 230  : 		dwWeaponIdx = 0;

  00040	89 5e 28	 mov	 DWORD PTR [esi+40], ebx

; 231  : 		eCollisionType = ACT_NONE;

  00043	c7 46 2c 06 00
	00 00		 mov	 DWORD PTR [esi+44], 6

; 232  : 		eFireTimeType = FTT_NORMAL_ATTACK;

  0004a	89 5e 40	 mov	 DWORD PTR [esi+64], ebx

; 233  : 
; 234  : 		m_iExtraValue = 0;

  0004d	89 5e 54	 mov	 DWORD PTR [esi+84], ebx

; 235  : 	}

  00050	8b c6		 mov	 eax, esi
  00052	e8 00 00 00 00	 call	 __EH_epilog3
  00057	c3		 ret	 0
_TEXT	ENDS
;	COMDAT text$x
text$x	SEGMENT
__unwindfunclet$??0FireTime@@QAE@XZ$0:
  00000	8b 4d f0	 mov	 ecx, DWORD PTR _this$[ebp]
  00003	83 c1 14	 add	 ecx, 20			; 00000014H
  00006	ff 25 00 00 00
	00		 jmp	 DWORD PTR __imp_??1ioHashString@@QAE@XZ
__unwindfunclet$??0FireTime@@QAE@XZ$1:
  0000c	8b 4d f0	 mov	 ecx, DWORD PTR _this$[ebp]
  0000f	83 c1 30	 add	 ecx, 48			; 00000030H
  00012	ff 25 00 00 00
	00		 jmp	 DWORD PTR __imp_??1ioHashString@@QAE@XZ
__ehhandler$??0FireTime@@QAE@XZ:
  00018	8b 54 24 08	 mov	 edx, DWORD PTR [esp+8]
  0001c	8d 42 0c	 lea	 eax, DWORD PTR [edx+12]
  0001f	8b 4a ec	 mov	 ecx, DWORD PTR [edx-20]
  00022	33 c8		 xor	 ecx, eax
  00024	e8 00 00 00 00	 call	 @__security_check_cookie@4
  00029	b8 00 00 00 00	 mov	 eax, OFFSET __ehfuncinfo$??0FireTime@@QAE@XZ
  0002e	e9 00 00 00 00	 jmp	 ___CxxFrameHandler3
text$x	ENDS
??0FireTime@@QAE@XZ ENDP				; FireTime::FireTime
PUBLIC	?CheckWeaponBySkill@ioWeapon@@QBE_NXZ		; ioWeapon::CheckWeaponBySkill
; Function compile flags: /Ogsp
; File d:\lost saga for developer\youtube\tutorial\source\src\lsclient\ioweapon.h
;	COMDAT ?CheckWeaponBySkill@ioWeapon@@QBE_NXZ
_TEXT	SEGMENT
?CheckWeaponBySkill@ioWeapon@@QBE_NXZ PROC		; ioWeapon::CheckWeaponBySkill, COMDAT
; _this$ = ecx

; 484  : 	inline bool CheckWeaponBySkill() const { return m_bUseSkill; }

  00000	8a 81 7e 05 00
	00		 mov	 al, BYTE PTR [ecx+1406]
  00006	c3		 ret	 0
?CheckWeaponBySkill@ioWeapon@@QBE_NXZ ENDP		; ioWeapon::CheckWeaponBySkill
_TEXT	ENDS
PUBLIC	?CheckWeaponByStruct@ioWeapon@@QBE_NXZ		; ioWeapon::CheckWeaponByStruct
; Function compile flags: /Ogsp
;	COMDAT ?CheckWeaponByStruct@ioWeapon@@QBE_NXZ
_TEXT	SEGMENT
?CheckWeaponByStruct@ioWeapon@@QBE_NXZ PROC		; ioWeapon::CheckWeaponByStruct, COMDAT
; _this$ = ecx

; 488  : 	inline bool CheckWeaponByStruct() const { return m_bStructWeapon; }

  00000	8a 81 8c 05 00
	00		 mov	 al, BYTE PTR [ecx+1420]
  00006	c3		 ret	 0
?CheckWeaponByStruct@ioWeapon@@QBE_NXZ ENDP		; ioWeapon::CheckWeaponByStruct
_TEXT	ENDS
PUBLIC	?CheckWeaponByDummyChar@ioWeapon@@QBE_NXZ	; ioWeapon::CheckWeaponByDummyChar
; Function compile flags: /Ogsp
;	COMDAT ?CheckWeaponByDummyChar@ioWeapon@@QBE_NXZ
_TEXT	SEGMENT
?CheckWeaponByDummyChar@ioWeapon@@QBE_NXZ PROC		; ioWeapon::CheckWeaponByDummyChar, COMDAT
; _this$ = ecx

; 489  : 	inline bool CheckWeaponByDummyChar() const { return m_bDummyCharWeapon; }

  00000	8a 81 9c 05 00
	00		 mov	 al, BYTE PTR [ecx+1436]
  00006	c3		 ret	 0
?CheckWeaponByDummyChar@ioWeapon@@QBE_NXZ ENDP		; ioWeapon::CheckWeaponByDummyChar
_TEXT	ENDS
PUBLIC	?GetOwnerName@ioWeapon@@QBEABVioHashString@@XZ	; ioWeapon::GetOwnerName
; Function compile flags: /Ogsp
;	COMDAT ?GetOwnerName@ioWeapon@@QBEABVioHashString@@XZ
_TEXT	SEGMENT
?GetOwnerName@ioWeapon@@QBEABVioHashString@@XZ PROC	; ioWeapon::GetOwnerName, COMDAT
; _this$ = ecx

; 636  : 	inline const ioHashString& GetOwnerName() const { return m_OwnerName; }

  00000	8d 41 10	 lea	 eax, DWORD PTR [ecx+16]
  00003	c3		 ret	 0
?GetOwnerName@ioWeapon@@QBEABVioHashString@@XZ ENDP	; ioWeapon::GetOwnerName
_TEXT	ENDS
PUBLIC	?GetWeaponByDummyChar@ioWeapon@@QAE?BHXZ	; ioWeapon::GetWeaponByDummyChar
; Function compile flags: /Ogsp
;	COMDAT ?GetWeaponByDummyChar@ioWeapon@@QAE?BHXZ
_TEXT	SEGMENT
?GetWeaponByDummyChar@ioWeapon@@QAE?BHXZ PROC		; ioWeapon::GetWeaponByDummyChar, COMDAT
; _this$ = ecx

; 638  : 	inline const int GetWeaponByDummyChar() { return m_iDummyIndex; }

  00000	8b 81 98 05 00
	00		 mov	 eax, DWORD PTR [ecx+1432]
  00006	c3		 ret	 0
?GetWeaponByDummyChar@ioWeapon@@QAE?BHXZ ENDP		; ioWeapon::GetWeaponByDummyChar
_TEXT	ENDS
PUBLIC	?EncryptValueToPool@?$CEncrypt@M@@AAEXPBD@Z	; CEncrypt<float>::EncryptValueToPool
EXTRN	?EncryptByte@ccddaabb@@QAEXPBDPADH@Z:PROC	; ccddaabb::EncryptByte
; Function compile flags: /Ogsp
; File d:\lost saga for developer\youtube\tutorial\source\src\lsclient\encryptvalue.h
;	COMDAT ?EncryptValueToPool@?$CEncrypt@M@@AAEXPBD@Z
_TEXT	SEGMENT
_value$ = 8						; size = 4
?EncryptValueToPool@?$CEncrypt@M@@AAEXPBD@Z PROC	; CEncrypt<float>::EncryptValueToPool, COMDAT
; _this$ = ecx

; 67   : 	{

  00000	55		 push	 ebp
  00001	8b ec		 mov	 ebp, esp

; 68   : 		m_RC5.EncryptByte( value, m_MemPool, max(m_ValueSize, DEFAULT_ENCRYPT) );

  00003	0f b7 41 06	 movzx	 eax, WORD PTR [ecx+6]
  00007	83 f8 04	 cmp	 eax, 4
  0000a	77 03		 ja	 SHORT $LN4@EncryptVal
  0000c	6a 04		 push	 4
  0000e	58		 pop	 eax
$LN4@EncryptVal:
  0000f	50		 push	 eax
  00010	8d 41 1c	 lea	 eax, DWORD PTR [ecx+28]
  00013	50		 push	 eax
  00014	ff 75 08	 push	 DWORD PTR _value$[ebp]
  00017	83 c1 0c	 add	 ecx, 12			; 0000000cH
  0001a	e8 00 00 00 00	 call	 ?EncryptByte@ccddaabb@@QAEXPBDPADH@Z ; ccddaabb::EncryptByte

; 69   : 		
; 70   : 	}

  0001f	5d		 pop	 ebp
  00020	c2 04 00	 ret	 4
?EncryptValueToPool@?$CEncrypt@M@@AAEXPBD@Z ENDP	; CEncrypt<float>::EncryptValueToPool
_TEXT	ENDS
PUBLIC	?DecryptValueToPool@?$CEncrypt@M@@QAEXPAM@Z	; CEncrypt<float>::DecryptValueToPool
EXTRN	?DecryptByte@ccddaabb@@QBEXPBDPADH@Z:PROC	; ccddaabb::DecryptByte
; Function compile flags: /Ogsp
;	COMDAT ?DecryptValueToPool@?$CEncrypt@M@@QAEXPAM@Z
_TEXT	SEGMENT
_value$ = 8						; size = 4
?DecryptValueToPool@?$CEncrypt@M@@QAEXPAM@Z PROC	; CEncrypt<float>::DecryptValueToPool, COMDAT
; _this$ = ecx

; 1648 : 	{

  00000	55		 push	 ebp
  00001	8b ec		 mov	 ebp, esp
  00003	56		 push	 esi

; 1649 : 		m_RC5.DecryptByte( m_MemPool, m_TempMem, 4 );

  00004	8d 71 28	 lea	 esi, DWORD PTR [ecx+40]
  00007	6a 04		 push	 4
  00009	8d 41 1c	 lea	 eax, DWORD PTR [ecx+28]
  0000c	56		 push	 esi
  0000d	50		 push	 eax
  0000e	83 c1 0c	 add	 ecx, 12			; 0000000cH
  00011	e8 00 00 00 00	 call	 ?DecryptByte@ccddaabb@@QBEXPBDPADH@Z ; ccddaabb::DecryptByte

; 1650 : 		*value = *((float*)m_TempMem);

  00016	d9 06		 fld	 DWORD PTR [esi]
  00018	8b 45 08	 mov	 eax, DWORD PTR _value$[ebp]
  0001b	d9 18		 fstp	 DWORD PTR [eax]
  0001d	5e		 pop	 esi

; 1651 : 	}

  0001e	5d		 pop	 ebp
  0001f	c2 04 00	 ret	 4
?DecryptValueToPool@?$CEncrypt@M@@QAEXPAM@Z ENDP	; CEncrypt<float>::DecryptValueToPool
_TEXT	ENDS
PUBLIC	?DecryptValueToPool@?$CEncrypt@_N@@QAEXPA_N@Z	; CEncrypt<bool>::DecryptValueToPool
; Function compile flags: /Ogsp
;	COMDAT ?DecryptValueToPool@?$CEncrypt@_N@@QAEXPA_N@Z
_TEXT	SEGMENT
_value$ = 8						; size = 4
?DecryptValueToPool@?$CEncrypt@_N@@QAEXPA_N@Z PROC	; CEncrypt<bool>::DecryptValueToPool, COMDAT
; _this$ = ecx

; 219  : 	{

  00000	55		 push	 ebp
  00001	8b ec		 mov	 ebp, esp
  00003	56		 push	 esi

; 220  : 		m_RC5.DecryptByte( m_MemPool, m_TempMem, 4 );

  00004	8d 71 28	 lea	 esi, DWORD PTR [ecx+40]
  00007	6a 04		 push	 4
  00009	8d 41 1c	 lea	 eax, DWORD PTR [ecx+28]
  0000c	56		 push	 esi
  0000d	50		 push	 eax
  0000e	83 c1 0c	 add	 ecx, 12			; 0000000cH
  00011	e8 00 00 00 00	 call	 ?DecryptByte@ccddaabb@@QBEXPBDPADH@Z ; ccddaabb::DecryptByte

; 221  : 		*value = *((bool*)m_TempMem);

  00016	8a 06		 mov	 al, BYTE PTR [esi]
  00018	8b 4d 08	 mov	 ecx, DWORD PTR _value$[ebp]
  0001b	88 01		 mov	 BYTE PTR [ecx], al
  0001d	5e		 pop	 esi

; 222  : 	}

  0001e	5d		 pop	 ebp
  0001f	c2 04 00	 ret	 4
?DecryptValueToPool@?$CEncrypt@_N@@QAEXPA_N@Z ENDP	; CEncrypt<bool>::DecryptValueToPool
_TEXT	ENDS
EXTRN	__imp_??0exception@std@@QAE@ABV01@@Z:PROC
; Function compile flags: /Ogsp
;	COMDAT ??0bad_alloc@std@@QAE@ABV01@@Z
_TEXT	SEGMENT
___that$ = 8						; size = 4
??0bad_alloc@std@@QAE@ABV01@@Z PROC			; std::bad_alloc::bad_alloc, COMDAT
; _this$ = ecx
  00000	55		 push	 ebp
  00001	8b ec		 mov	 ebp, esp
  00003	56		 push	 esi
  00004	ff 75 08	 push	 DWORD PTR ___that$[ebp]
  00007	8b f1		 mov	 esi, ecx
  00009	ff 15 00 00 00
	00		 call	 DWORD PTR __imp_??0exception@std@@QAE@ABV01@@Z
  0000f	c7 06 00 00 00
	00		 mov	 DWORD PTR [esi], OFFSET ??_7bad_alloc@std@@6B@
  00015	8b c6		 mov	 eax, esi
  00017	5e		 pop	 esi
  00018	5d		 pop	 ebp
  00019	c2 04 00	 ret	 4
??0bad_alloc@std@@QAE@ABV01@@Z ENDP			; std::bad_alloc::bad_alloc
_TEXT	ENDS
PUBLIC	??0CreateWeaponInfo@ioOwnerAttach4Dummy@@QAE@XZ	; ioOwnerAttach4Dummy::CreateWeaponInfo::CreateWeaponInfo
; Function compile flags: /Ogsp
;	COMDAT ??0CreateWeaponInfo@ioOwnerAttach4Dummy@@QAE@XZ
_TEXT	SEGMENT
??0CreateWeaponInfo@ioOwnerAttach4Dummy@@QAE@XZ PROC	; ioOwnerAttach4Dummy::CreateWeaponInfo::CreateWeaponInfo, COMDAT
; _this$ = ecx
  00000	8b c1		 mov	 eax, ecx
  00002	c3		 ret	 0
??0CreateWeaponInfo@ioOwnerAttach4Dummy@@QAE@XZ ENDP	; ioOwnerAttach4Dummy::CreateWeaponInfo::CreateWeaponInfo
_TEXT	ENDS
PUBLIC	__$ArrayPad$
PUBLIC	?ProcessStartState@ioOwnerAttach4Dummy@@IAEXM@Z	; ioOwnerAttach4Dummy::ProcessStartState
EXTRN	__imp_?GetLoopSec@ioFrameTimer@@QBEKXZ:PROC
EXTRN	__imp_?GetSingleton@ioFrameTimer@@SAAAV1@XZ:PROC
EXTRN	?SetAttachWeapon@ioDummyChar@@IAEXXZ:PROC	; ioDummyChar::SetAttachWeapon
EXTRN	___security_cookie:DWORD
; Function compile flags: /Ogsp
; File d:\lost saga for developer\youtube\tutorial\source\src\lsclient\ioownerattach4dummy.cpp
;	COMDAT ?ProcessStartState@ioOwnerAttach4Dummy@@IAEXM@Z
_TEXT	SEGMENT
_vPos$551725 = -16					; size = 12
__$ArrayPad$ = -4					; size = 4
_fTimePerSec$ = 8					; size = 4
?ProcessStartState@ioOwnerAttach4Dummy@@IAEXM@Z PROC	; ioOwnerAttach4Dummy::ProcessStartState, COMDAT
; _this$ = ecx

; 96   : {

  00000	55		 push	 ebp
  00001	8b ec		 mov	 ebp, esp
  00003	83 ec 10	 sub	 esp, 16			; 00000010H
  00006	a1 00 00 00 00	 mov	 eax, DWORD PTR ___security_cookie
  0000b	33 c5		 xor	 eax, ebp
  0000d	89 45 fc	 mov	 DWORD PTR __$ArrayPad$[ebp], eax
  00010	53		 push	 ebx
  00011	8b d9		 mov	 ebx, ecx

; 97   : 	ioBaseChar *pOwner = GetOwner();

  00013	e8 00 00 00 00	 call	 ?GetOwner@ioDummyChar@@QBEPAVioBaseChar@@XZ ; ioDummyChar::GetOwner

; 98   : 
; 99   : 	if( !pOwner )

  00018	85 c0		 test	 eax, eax
  0001a	74 7b		 je	 SHORT $LN2@ProcessSta

; 100  : 		return;
; 101  : 
; 102  : 	if ( !m_bStartInit )

  0001c	80 bb a9 14 00
	00 00		 cmp	 BYTE PTR [ebx+5289], 0
  00023	56		 push	 esi
  00024	75 4a		 jne	 SHORT $LN3@ProcessSta

; 103  : 	{
; 104  : 		SetAttachWeapon();

  00026	57		 push	 edi
  00027	8b cb		 mov	 ecx, ebx
  00029	e8 00 00 00 00	 call	 ?SetAttachWeapon@ioDummyChar@@IAEXXZ ; ioDummyChar::SetAttachWeapon

; 105  : 
; 106  : 		//  
; 107  : 		D3DXVECTOR3 vPos = GetWorldPosition();

  0002e	8b 03		 mov	 eax, DWORD PTR [ebx]
  00030	8b cb		 mov	 ecx, ebx
  00032	ff 50 70	 call	 DWORD PTR [eax+112]

; 108  : 		vPos.y += m_fHeightOffset;

  00035	f3 0f 10 83 2c
	07 00 00	 movss	 xmm0, DWORD PTR [ebx+1836]
  0003d	8b f0		 mov	 esi, eax

; 109  : 		SetWorldPosition( vPos );

  0003f	8b 03		 mov	 eax, DWORD PTR [ebx]
  00041	8d 7d f0	 lea	 edi, DWORD PTR _vPos$551725[ebp]
  00044	a5		 movsd
  00045	a5		 movsd
  00046	a5		 movsd
  00047	f3 0f 10 4d f4	 movss	 xmm1, DWORD PTR _vPos$551725[ebp+4]
  0004c	0f 5a c0	 cvtps2pd xmm0, xmm0
  0004f	8d 4d f0	 lea	 ecx, DWORD PTR _vPos$551725[ebp]
  00052	0f 5a c9	 cvtps2pd xmm1, xmm1
  00055	f2 0f 58 c1	 addsd	 xmm0, xmm1
  00059	51		 push	 ecx
  0005a	66 0f 5a c0	 cvtpd2ps xmm0, xmm0
  0005e	8b cb		 mov	 ecx, ebx
  00060	f3 0f 11 45 f4	 movss	 DWORD PTR _vPos$551725[ebp+4], xmm0
  00065	ff 50 44	 call	 DWORD PTR [eax+68]

; 110  : 		m_bStartInit = true;

  00068	c6 83 a9 14 00
	00 01		 mov	 BYTE PTR [ebx+5289], 1
  0006f	5f		 pop	 edi
$LN3@ProcessSta:

; 111  : 	}
; 112  : 	
; 113  : 	if( m_dwStartAniEndTime == 0 || m_dwStartAniEndTime < FRAMEGETTIME() )

  00070	83 bb e4 06 00
	00 00		 cmp	 DWORD PTR [ebx+1764], 0
  00077	74 16		 je	 SHORT $LN1@ProcessSta
  00079	ff 15 00 00 00
	00		 call	 DWORD PTR __imp_?GetSingleton@ioFrameTimer@@SAAAV1@XZ
  0007f	8b c8		 mov	 ecx, eax
  00081	ff 15 00 00 00
	00		 call	 DWORD PTR __imp_?GetLoopSec@ioFrameTimer@@QBEKXZ
  00087	39 83 e4 06 00
	00		 cmp	 DWORD PTR [ebx+1764], eax
  0008d	73 07		 jae	 SHORT $LN7@ProcessSta
$LN1@ProcessSta:

; 114  : 	{
; 115  : 		SetDelayState();	

  0008f	8b cb		 mov	 ecx, ebx
  00091	e8 00 00 00 00	 call	 ?SetDelayState@ioOwnerAttach4Dummy@@IAEXXZ ; ioOwnerAttach4Dummy::SetDelayState
$LN7@ProcessSta:
  00096	5e		 pop	 esi
$LN2@ProcessSta:

; 116  : 		return;
; 117  : 	}
; 118  : }

  00097	8b 4d fc	 mov	 ecx, DWORD PTR __$ArrayPad$[ebp]
  0009a	33 cd		 xor	 ecx, ebp
  0009c	5b		 pop	 ebx
  0009d	e8 00 00 00 00	 call	 @__security_check_cookie@4
  000a2	c9		 leave
  000a3	c2 04 00	 ret	 4
?ProcessStartState@ioOwnerAttach4Dummy@@IAEXM@Z ENDP	; ioOwnerAttach4Dummy::ProcessStartState
_TEXT	ENDS
PUBLIC	??_C@_00CNPNBAHC@?$AA@				; `string'
PUBLIC	?CreateWeapon@ioOwnerAttach4Dummy@@IAEXHABUD3DXVECTOR3@@0@Z ; ioOwnerAttach4Dummy::CreateWeapon
EXTRN	?SetPosition@ioWeapon@@QAEXABUD3DXVECTOR3@@@Z:PROC ; ioWeapon::SetPosition
EXTRN	?ExtendFireExplicit@ioBaseChar@@QAEPAVioWeapon@@ABUFireTime@@ABUD3DXVECTOR3@@1ABVioHashString@@@Z:PROC ; ioBaseChar::ExtendFireExplicit
EXTRN	__imp_??0ioHashString@@QAE@PBD@Z:PROC
EXTRN	?SetWeaponIndexBase@ioBaseChar@@QAEXK@Z:PROC	; ioBaseChar::SetWeaponIndexBase
EXTRN	__imp_??4ioHashString@@QAEAAV0@PBD@Z:PROC
EXTRN	?GetWeaponIndexBase@ioBaseChar@@QBEKXZ:PROC	; ioBaseChar::GetWeaponIndexBase
;	COMDAT ??_C@_00CNPNBAHC@?$AA@
CONST	SEGMENT
??_C@_00CNPNBAHC@?$AA@ DB 00H				; `string'
CONST	ENDS
;	COMDAT xdata$x
xdata$x	SEGMENT
__unwindtable$?CreateWeapon@ioOwnerAttach4Dummy@@IAEXHABUD3DXVECTOR3@@0@Z DD 0ffffffffH
	DD	FLAT:__unwindfunclet$?CreateWeapon@ioOwnerAttach4Dummy@@IAEXHABUD3DXVECTOR3@@0@Z$0
	DD	00H
	DD	FLAT:__unwindfunclet$?CreateWeapon@ioOwnerAttach4Dummy@@IAEXHABUD3DXVECTOR3@@0@Z$1
__ehfuncinfo$?CreateWeapon@ioOwnerAttach4Dummy@@IAEXHABUD3DXVECTOR3@@0@Z DD 019930522H
	DD	02H
	DD	FLAT:__unwindtable$?CreateWeapon@ioOwnerAttach4Dummy@@IAEXHABUD3DXVECTOR3@@0@Z
	DD	2 DUP(00H)
	DD	2 DUP(00H)
	DD	00H
	DD	01H
; Function compile flags: /Ogsp
xdata$x	ENDS
;	COMDAT ?CreateWeapon@ioOwnerAttach4Dummy@@IAEXHABUD3DXVECTOR3@@0@Z
_TEXT	SEGMENT
_kFireTime$ = -120					; size = 88
$T554365 = -32						; size = 16
_pOwner$ = -16						; size = 4
__$EHRec$ = -12						; size = 12
_nAttackIndex$ = 8					; size = 4
_vPos$ = 12						; size = 4
_vDir$ = 16						; size = 4
?CreateWeapon@ioOwnerAttach4Dummy@@IAEXHABUD3DXVECTOR3@@0@Z PROC ; ioOwnerAttach4Dummy::CreateWeapon, COMDAT
; _this$ = ecx

; 428  : {

  00000	6a 6c		 push	 108			; 0000006cH
  00002	b8 00 00 00 00	 mov	 eax, __ehhandler$?CreateWeapon@ioOwnerAttach4Dummy@@IAEXHABUD3DXVECTOR3@@0@Z
  00007	e8 00 00 00 00	 call	 __EH_prolog3
  0000c	8b f9		 mov	 edi, ecx

; 429  : 	ioBaseChar *pOwner = GetOwner();

  0000e	e8 00 00 00 00	 call	 ?GetOwner@ioDummyChar@@QBEPAVioBaseChar@@XZ ; ioDummyChar::GetOwner
  00013	8b c8		 mov	 ecx, eax

; 430  : 
; 431  : 	if ( !pOwner )

  00015	33 db		 xor	 ebx, ebx
  00017	89 4d f0	 mov	 DWORD PTR _pOwner$[ebp], ecx
  0001a	3b cb		 cmp	 ecx, ebx
  0001c	0f 84 ab 00 00
	00		 je	 $LN3@CreateWeap

; 432  : 		return;
; 433  : 
; 434  : 	m_dwBaseWeaponIndex = pOwner->GetWeaponIndexBase() + 1;

  00022	e8 00 00 00 00	 call	 ?GetWeaponIndexBase@ioBaseChar@@QBEKXZ ; ioBaseChar::GetWeaponIndexBase
  00027	40		 inc	 eax

; 435  : 
; 436  : 	FireTime kFireTime;

  00028	8d 4d 88	 lea	 ecx, DWORD PTR _kFireTime$[ebp]
  0002b	89 87 30 06 00
	00		 mov	 DWORD PTR [edi+1584], eax
  00031	e8 00 00 00 00	 call	 ??0FireTime@@QAE@XZ	; FireTime::FireTime
  00036	89 5d fc	 mov	 DWORD PTR __$EHRec$[ebp+8], ebx

; 437  : 	kFireTime.dwStart = FRAMEGETTIME();

  00039	ff 15 00 00 00
	00		 call	 DWORD PTR __imp_?GetSingleton@ioFrameTimer@@SAAAV1@XZ
  0003f	8b c8		 mov	 ecx, eax
  00041	ff 15 00 00 00
	00		 call	 DWORD PTR __imp_?GetLoopSec@ioFrameTimer@@QBEKXZ
  00047	89 45 88	 mov	 DWORD PTR _kFireTime$[ebp], eax

; 438  : 
; 439  : 	kFireTime.iAttributeIdx = nAttackIndex;

  0004a	8b 45 08	 mov	 eax, DWORD PTR _nAttackIndex$[ebp]

; 440  : 	kFireTime.iResistanceIdx = 0;
; 441  : 	kFireTime.szWoundedAni  = "";

  0004d	be 00 00 00 00	 mov	 esi, OFFSET ??_C@_00CNPNBAHC@?$AA@
  00052	56		 push	 esi
  00053	8d 4d 9c	 lea	 ecx, DWORD PTR _kFireTime$[ebp+20]
  00056	89 45 90	 mov	 DWORD PTR _kFireTime$[ebp+8], eax
  00059	89 5d 94	 mov	 DWORD PTR _kFireTime$[ebp+12], ebx
  0005c	ff 15 00 00 00
	00		 call	 DWORD PTR __imp_??4ioHashString@@QAEAAV0@PBD@Z

; 442  : 	kFireTime.dwWoundedAniDuration = 0;
; 443  : 	kFireTime.bLoopWoundedAni = false;
; 444  : 	kFireTime.dwWeaponIdx = m_dwBaseWeaponIndex;

  00062	8b 87 30 06 00
	00		 mov	 eax, DWORD PTR [edi+1584]

; 445  : 	kFireTime.eFireTimeType = FTT_DUMMY_CHAR_ATTACK;
; 446  : 
; 447  : 	pOwner->SetWeaponIndexBase( m_dwBaseWeaponIndex );

  00068	8b 4d f0	 mov	 ecx, DWORD PTR _pOwner$[ebp]
  0006b	50		 push	 eax
  0006c	89 5d ac	 mov	 DWORD PTR _kFireTime$[ebp+36], ebx
  0006f	88 5d 98	 mov	 BYTE PTR _kFireTime$[ebp+16], bl
  00072	89 45 b0	 mov	 DWORD PTR _kFireTime$[ebp+40], eax
  00075	c7 45 c8 0b 00
	00 00		 mov	 DWORD PTR _kFireTime$[ebp+64], 11 ; 0000000bH
  0007c	e8 00 00 00 00	 call	 ?SetWeaponIndexBase@ioBaseChar@@QAEXK@Z ; ioBaseChar::SetWeaponIndexBase

; 448  : 		
; 449  : 	ioWeapon *pWeapon = pOwner->ExtendFireExplicit( kFireTime, vPos, vDir, "" );

  00081	56		 push	 esi
  00082	8d 4d e0	 lea	 ecx, DWORD PTR $T554365[ebp]
  00085	ff 15 00 00 00
	00		 call	 DWORD PTR __imp_??0ioHashString@@QAE@PBD@Z
  0008b	8b 4d f0	 mov	 ecx, DWORD PTR _pOwner$[ebp]
  0008e	8d 45 e0	 lea	 eax, DWORD PTR $T554365[ebp]
  00091	50		 push	 eax
  00092	ff 75 10	 push	 DWORD PTR _vDir$[ebp]
  00095	8d 45 88	 lea	 eax, DWORD PTR _kFireTime$[ebp]
  00098	ff 75 0c	 push	 DWORD PTR _vPos$[ebp]
  0009b	c6 45 fc 01	 mov	 BYTE PTR __$EHRec$[ebp+8], 1
  0009f	50		 push	 eax
  000a0	e8 00 00 00 00	 call	 ?ExtendFireExplicit@ioBaseChar@@QAEPAVioWeapon@@ABUFireTime@@ABUD3DXVECTOR3@@1ABVioHashString@@@Z ; ioBaseChar::ExtendFireExplicit
  000a5	8d 4d e0	 lea	 ecx, DWORD PTR $T554365[ebp]
  000a8	8b f0		 mov	 esi, eax
  000aa	88 5d fc	 mov	 BYTE PTR __$EHRec$[ebp+8], bl
  000ad	ff 15 00 00 00
	00		 call	 DWORD PTR __imp_??1ioHashString@@QAE@XZ

; 450  : 	if ( pWeapon )

  000b3	3b f3		 cmp	 esi, ebx
  000b5	74 0a		 je	 SHORT $LN1@CreateWeap

; 451  : 	{
; 452  : 		pWeapon->SetPosition( vPos );

  000b7	ff 75 0c	 push	 DWORD PTR _vPos$[ebp]
  000ba	8b ce		 mov	 ecx, esi
  000bc	e8 00 00 00 00	 call	 ?SetPosition@ioWeapon@@QAEXABUD3DXVECTOR3@@@Z ; ioWeapon::SetPosition
$LN1@CreateWeap:

; 453  : 	}
; 454  : }

  000c1	83 4d fc ff	 or	 DWORD PTR __$EHRec$[ebp+8], -1
  000c5	8d 4d 88	 lea	 ecx, DWORD PTR _kFireTime$[ebp]
  000c8	e8 00 00 00 00	 call	 ??1FireTime@@QAE@XZ
$LN3@CreateWeap:
  000cd	e8 00 00 00 00	 call	 __EH_epilog3
  000d2	c2 0c 00	 ret	 12			; 0000000cH
_TEXT	ENDS
;	COMDAT text$x
text$x	SEGMENT
__unwindfunclet$?CreateWeapon@ioOwnerAttach4Dummy@@IAEXHABUD3DXVECTOR3@@0@Z$0:
  00000	8d 4d 88	 lea	 ecx, DWORD PTR _kFireTime$[ebp]
  00003	e9 00 00 00 00	 jmp	 ??1FireTime@@QAE@XZ
__unwindfunclet$?CreateWeapon@ioOwnerAttach4Dummy@@IAEXHABUD3DXVECTOR3@@0@Z$1:
  00008	8d 4d e0	 lea	 ecx, DWORD PTR $T554365[ebp]
  0000b	ff 25 00 00 00
	00		 jmp	 DWORD PTR __imp_??1ioHashString@@QAE@XZ
__ehhandler$?CreateWeapon@ioOwnerAttach4Dummy@@IAEXHABUD3DXVECTOR3@@0@Z:
  00011	8b 54 24 08	 mov	 edx, DWORD PTR [esp+8]
  00015	8d 42 0c	 lea	 eax, DWORD PTR [edx+12]
  00018	8b 4a 84	 mov	 ecx, DWORD PTR [edx-124]
  0001b	33 c8		 xor	 ecx, eax
  0001d	e8 00 00 00 00	 call	 @__security_check_cookie@4
  00022	b8 00 00 00 00	 mov	 eax, OFFSET __ehfuncinfo$?CreateWeapon@ioOwnerAttach4Dummy@@IAEXHABUD3DXVECTOR3@@0@Z
  00027	e9 00 00 00 00	 jmp	 ___CxxFrameHandler3
text$x	ENDS
?CreateWeapon@ioOwnerAttach4Dummy@@IAEXHABUD3DXVECTOR3@@0@Z ENDP ; ioOwnerAttach4Dummy::CreateWeapon
PUBLIC	_this$GSCopy$
PUBLIC	__$ArrayPad$
PUBLIC	?FireWeapon@ioOwnerAttach4Dummy@@IAEXXZ		; ioOwnerAttach4Dummy::FireWeapon
EXTRN	__imp_??D@YA?AUD3DXVECTOR3@@ABUD3DXQUATERNION@@ABU0@@Z:PROC
EXTRN	_D3DXQuaternionRotationYawPitchRoll@16:PROC
EXTRN	_D3DXVec3Normalize@8:PROC
EXTRN	__imp_?VEC3_ZERO@ioMath@@2UD3DXVECTOR3@@A:BYTE
; Function compile flags: /Ogsp
;	COMDAT ?FireWeapon@ioOwnerAttach4Dummy@@IAEXXZ
_TEXT	SEGMENT
_qtRotate$551916 = -64					; size = 16
_i$551902 = -48						; size = 4
_this$GSCopy$ = -44					; size = 4
$T551917 = -40						; size = 12
_vPos$551908 = -28					; size = 12
_vDir$551910 = -16					; size = 12
__$ArrayPad$ = -4					; size = 4
?FireWeapon@ioOwnerAttach4Dummy@@IAEXXZ PROC		; ioOwnerAttach4Dummy::FireWeapon, COMDAT
; _this$ = ecx

; 457  : {

  00000	55		 push	 ebp
  00001	8b ec		 mov	 ebp, esp
  00003	83 ec 40	 sub	 esp, 64			; 00000040H
  00006	a1 00 00 00 00	 mov	 eax, DWORD PTR ___security_cookie
  0000b	33 c5		 xor	 eax, ebp
  0000d	89 45 fc	 mov	 DWORD PTR __$ArrayPad$[ebp], eax
  00010	56		 push	 esi
  00011	8b f1		 mov	 esi, ecx

; 458  : 	if ( !m_bSetFire )

  00013	80 be bd 14 00
	00 00		 cmp	 BYTE PTR [esi+5309], 0

; 472  : 		{
; 473  : 			//,  
; 474  : 			D3DXVECTOR3 vPos = GetWorldPosition() + FireInfo.vOffsetPos;

  0001a	89 75 d4	 mov	 DWORD PTR _this$GSCopy$[ebp], esi
  0001d	0f 84 dc 01 00
	00		 je	 $LN5@FireWeapon

; 459  : 		return;
; 460  : 	
; 461  : 	if (m_nWeaponSplitCnt <= 0)

  00023	8b 86 c4 14 00
	00		 mov	 eax, DWORD PTR [esi+5316]
  00029	85 c0		 test	 eax, eax
  0002b	0f 8e ce 01 00
	00		 jle	 $LN5@FireWeapon

; 462  : 		return;
; 463  : 		
; 464  : 	//   
; 465  : 	for (int i=0; i<m_nWeaponSplitCnt; ++i)

  00031	83 65 d0 00	 and	 DWORD PTR _i$551902[ebp], 0
  00035	57		 push	 edi
  00036	85 c0		 test	 eax, eax
  00038	0f 8e 5f 01 00
	00		 jle	 $LN8@FireWeapon
  0003e	53		 push	 ebx
$LL10@FireWeapon:

; 466  : 	{   
; 467  : 		//   
; 468  : 		CreateWeaponInfo &FireInfo = m_CreateWeaponList[i*m_nMaxSplitCnt + m_nCurSplitIndex];

  0003f	8b 9e c0 14 00
	00		 mov	 ebx, DWORD PTR [esi+5312]
  00045	0f af 5d d0	 imul	 ebx, DWORD PTR _i$551902[ebp]
  00049	03 9e c8 14 00
	00		 add	 ebx, DWORD PTR [esi+5320]
  0004f	6b db 24	 imul	 ebx, 36			; 00000024H
  00052	03 9e 80 14 00
	00		 add	 ebx, DWORD PTR [esi+5248]

; 469  : 
; 470  : 		if ( FireInfo.nCurFireCnt < FireInfo.nMaxFireCnt && 
; 471  : 			( FireInfo.dwCheckTime + FireInfo.dwReloadTime < FRAMEGETTIME()) )

  00058	8b 43 20	 mov	 eax, DWORD PTR [ebx+32]
  0005b	3b 43 1c	 cmp	 eax, DWORD PTR [ebx+28]
  0005e	0f 8d 26 01 00
	00		 jge	 $LN9@FireWeapon
  00064	ff 15 00 00 00
	00		 call	 DWORD PTR __imp_?GetSingleton@ioFrameTimer@@SAAAV1@XZ
  0006a	8b c8		 mov	 ecx, eax
  0006c	ff 15 00 00 00
	00		 call	 DWORD PTR __imp_?GetLoopSec@ioFrameTimer@@QBEKXZ
  00072	8b 4b 14	 mov	 ecx, DWORD PTR [ebx+20]
  00075	03 4b 18	 add	 ecx, DWORD PTR [ebx+24]
  00078	3b c8		 cmp	 ecx, eax
  0007a	0f 83 0a 01 00
	00		 jae	 $LN9@FireWeapon

; 472  : 		{
; 473  : 			//,  
; 474  : 			D3DXVECTOR3 vPos = GetWorldPosition() + FireInfo.vOffsetPos;

  00080	8b 06		 mov	 eax, DWORD PTR [esi]
  00082	8b ce		 mov	 ecx, esi
  00084	ff 50 70	 call	 DWORD PTR [eax+112]
  00087	f3 0f 10 40 04	 movss	 xmm0, DWORD PTR [eax+4]
  0008c	f3 0f 10 4b 08	 movss	 xmm1, DWORD PTR [ebx+8]
  00091	f3 0f 10 53 0c	 movss	 xmm2, DWORD PTR [ebx+12]
  00096	f3 0f 10 5b 04	 movss	 xmm3, DWORD PTR [ebx+4]

; 475  : 			D3DXVECTOR3 vDir = ioMath::VEC3_ZERO;

  0009b	8b 35 00 00 00
	00		 mov	 esi, DWORD PTR __imp_?VEC3_ZERO@ioMath@@2UD3DXVECTOR3@@A
  000a1	0f 5a c9	 cvtps2pd xmm1, xmm1
  000a4	0f 5a c0	 cvtps2pd xmm0, xmm0
  000a7	f2 0f 58 c1	 addsd	 xmm0, xmm1
  000ab	f3 0f 10 48 08	 movss	 xmm1, DWORD PTR [eax+8]
  000b0	0f 5a d2	 cvtps2pd xmm2, xmm2
  000b3	0f 5a c9	 cvtps2pd xmm1, xmm1
  000b6	f2 0f 58 ca	 addsd	 xmm1, xmm2
  000ba	f3 0f 10 10	 movss	 xmm2, DWORD PTR [eax]

; 476  : 			D3DXVec3Normalize( &vDir, &m_vMoveDir);

  000be	8b 45 d4	 mov	 eax, DWORD PTR _this$GSCopy$[ebp]
  000c1	0f 5a d2	 cvtps2pd xmm2, xmm2
  000c4	0f 5a db	 cvtps2pd xmm3, xmm3
  000c7	f2 0f 58 d3	 addsd	 xmm2, xmm3
  000cb	66 0f 5a c0	 cvtpd2ps xmm0, xmm0
  000cf	f3 0f 11 45 e8	 movss	 DWORD PTR _vPos$551908[ebp+4], xmm0
  000d4	66 0f 5a c9	 cvtpd2ps xmm1, xmm1
  000d8	f3 0f 11 4d ec	 movss	 DWORD PTR _vPos$551908[ebp+8], xmm1
  000dd	66 0f 5a d2	 cvtpd2ps xmm2, xmm2
  000e1	f3 0f 11 55 e4	 movss	 DWORD PTR _vPos$551908[ebp], xmm2
  000e6	8d 7d f0	 lea	 edi, DWORD PTR _vDir$551910[ebp]
  000e9	a5		 movsd
  000ea	05 9c 14 00 00	 add	 eax, 5276		; 0000149cH
  000ef	a5		 movsd
  000f0	50		 push	 eax
  000f1	8d 45 f0	 lea	 eax, DWORD PTR _vDir$551910[ebp]
  000f4	50		 push	 eax
  000f5	a5		 movsd
  000f6	e8 00 00 00 00	 call	 _D3DXVec3Normalize@8

; 477  : 
; 478  : 			// 
; 479  : 			float fYawR = DEGtoRAD( FireInfo.fDegree );
; 480  : 			D3DXQUATERNION qtRotate;
; 481  : 			D3DXQuaternionRotationYawPitchRoll( &qtRotate, fYawR, 0.0f, 0.0f );

  000fb	0f 57 c0	 xorps	 xmm0, xmm0
  000fe	83 ec 0c	 sub	 esp, 12			; 0000000cH
  00101	f3 0f 11 44 24
	08		 movss	 DWORD PTR [esp+8], xmm0
  00107	f3 0f 11 44 24
	04		 movss	 DWORD PTR [esp+4], xmm0
  0010d	f3 0f 10 43 10	 movss	 xmm0, DWORD PTR [ebx+16]
  00112	0f 5a c0	 cvtps2pd xmm0, xmm0
  00115	f2 0f 59 05 00
	00 00 00	 mulsd	 xmm0, QWORD PTR __real@3f91df46a2526c7a
  0011d	66 0f 5a c0	 cvtpd2ps xmm0, xmm0
  00121	8d 45 c0	 lea	 eax, DWORD PTR _qtRotate$551916[ebp]
  00124	f3 0f 11 04 24	 movss	 DWORD PTR [esp], xmm0
  00129	50		 push	 eax
  0012a	e8 00 00 00 00	 call	 _D3DXQuaternionRotationYawPitchRoll@16

; 482  : 			
; 483  : 			// 
; 484  : 			vDir = qtRotate * vDir;

  0012f	8d 45 f0	 lea	 eax, DWORD PTR _vDir$551910[ebp]
  00132	50		 push	 eax
  00133	8d 45 c0	 lea	 eax, DWORD PTR _qtRotate$551916[ebp]
  00136	50		 push	 eax
  00137	8d 45 d8	 lea	 eax, DWORD PTR $T551917[ebp]
  0013a	50		 push	 eax
  0013b	ff 15 00 00 00
	00		 call	 DWORD PTR __imp_??D@YA?AUD3DXVECTOR3@@ABUD3DXQUATERNION@@ABU0@@Z

; 485  : 			
; 486  : 			// 
; 487  : 			CreateWeapon( FireInfo.nAttackIndex, vPos, vDir);

  00141	8b 4d d4	 mov	 ecx, DWORD PTR _this$GSCopy$[ebp]
  00144	8b f0		 mov	 esi, eax
  00146	83 c4 0c	 add	 esp, 12			; 0000000cH
  00149	8d 7d f0	 lea	 edi, DWORD PTR _vDir$551910[ebp]
  0014c	a5		 movsd
  0014d	8d 45 f0	 lea	 eax, DWORD PTR _vDir$551910[ebp]
  00150	50		 push	 eax
  00151	8d 45 e4	 lea	 eax, DWORD PTR _vPos$551908[ebp]
  00154	a5		 movsd
  00155	50		 push	 eax
  00156	ff 33		 push	 DWORD PTR [ebx]
  00158	a5		 movsd
  00159	e8 00 00 00 00	 call	 ?CreateWeapon@ioOwnerAttach4Dummy@@IAEXHABUD3DXVECTOR3@@0@Z ; ioOwnerAttach4Dummy::CreateWeapon

; 488  : 			FireInfo.dwCheckTime = FRAMEGETTIME();

  0015e	ff 15 00 00 00
	00		 call	 DWORD PTR __imp_?GetSingleton@ioFrameTimer@@SAAAV1@XZ
  00164	8b c8		 mov	 ecx, eax
  00166	ff 15 00 00 00
	00		 call	 DWORD PTR __imp_?GetLoopSec@ioFrameTimer@@QBEKXZ

; 489  : 			FireInfo.nCurFireCnt++;	

  0016c	ff 43 20	 inc	 DWORD PTR [ebx+32]
  0016f	89 43 18	 mov	 DWORD PTR [ebx+24], eax
  00172	8b 43 20	 mov	 eax, DWORD PTR [ebx+32]

; 490  : 
; 491  : 			//  
; 492  : 			if ( FireInfo.nCurFireCnt >= FireInfo.nMaxFireCnt )

  00175	3b 43 1c	 cmp	 eax, DWORD PTR [ebx+28]
  00178	7c 0d		 jl	 SHORT $LN31@FireWeapon

; 493  : 			{
; 494  : 				//  
; 495  : 				m_nFinshCnt++;

  0017a	8b 45 d4	 mov	 eax, DWORD PTR _this$GSCopy$[ebp]
  0017d	ff 80 cc 14 00
	00		 inc	 DWORD PTR [eax+5324]
  00183	8b f0		 mov	 esi, eax
  00185	eb 03		 jmp	 SHORT $LN9@FireWeapon
$LN31@FireWeapon:
  00187	8b 75 d4	 mov	 esi, DWORD PTR _this$GSCopy$[ebp]
$LN9@FireWeapon:

; 462  : 		return;
; 463  : 		
; 464  : 	//   
; 465  : 	for (int i=0; i<m_nWeaponSplitCnt; ++i)

  0018a	ff 45 d0	 inc	 DWORD PTR _i$551902[ebp]
  0018d	8b 45 d0	 mov	 eax, DWORD PTR _i$551902[ebp]
  00190	3b 86 c4 14 00
	00		 cmp	 eax, DWORD PTR [esi+5316]
  00196	0f 8c a3 fe ff
	ff		 jl	 $LL10@FireWeapon
  0019c	5b		 pop	 ebx
$LN8@FireWeapon:

; 496  : 			}		
; 497  : 		}
; 498  : 	}
; 499  : 
; 500  : 	//    
; 501  : 	if ( m_nFinshCnt >= m_nWeaponSplitCnt )

  0019d	8b 8e c4 14 00
	00		 mov	 ecx, DWORD PTR [esi+5316]
  001a3	39 8e cc 14 00
	00		 cmp	 DWORD PTR [esi+5324], ecx
  001a9	7c 53		 jl	 SHORT $LN32@FireWeapon

; 502  : 	{
; 503  : 		//  
; 504  : 		for (int i=0; i<m_nWeaponSplitCnt; ++i)

  001ab	33 d2		 xor	 edx, edx
  001ad	33 c0		 xor	 eax, eax
  001af	3b ca		 cmp	 ecx, edx
  001b1	7e 25		 jle	 SHORT $LN2@FireWeapon
$LL4@FireWeapon:

; 505  : 		{   
; 506  : 			CreateWeaponInfo &FireInfo = m_CreateWeaponList[i*m_nMaxSplitCnt + m_nCurSplitIndex];
; 507  : 			FireInfo.nCurFireCnt = 0;

  001b3	8b 8e c0 14 00
	00		 mov	 ecx, DWORD PTR [esi+5312]
  001b9	8b be 80 14 00
	00		 mov	 edi, DWORD PTR [esi+5248]
  001bf	0f af c8	 imul	 ecx, eax
  001c2	03 8e c8 14 00
	00		 add	 ecx, DWORD PTR [esi+5320]
  001c8	6b c9 24	 imul	 ecx, 36			; 00000024H
  001cb	40		 inc	 eax
  001cc	89 54 39 20	 mov	 DWORD PTR [ecx+edi+32], edx
  001d0	3b 86 c4 14 00
	00		 cmp	 eax, DWORD PTR [esi+5316]
  001d6	7c db		 jl	 SHORT $LL4@FireWeapon
$LN2@FireWeapon:

; 508  : 		}
; 509  : 
; 510  : 		//  
; 511  : 		m_nCurSplitIndex++;

  001d8	ff 86 c8 14 00
	00		 inc	 DWORD PTR [esi+5320]
  001de	8b 8e c8 14 00
	00		 mov	 ecx, DWORD PTR [esi+5320]

; 512  : 
; 513  : 		//   
; 514  : 		if (m_nCurSplitIndex >= m_nMaxSplitCnt)

  001e4	3b 8e c0 14 00
	00		 cmp	 ecx, DWORD PTR [esi+5312]
  001ea	7c 06		 jl	 SHORT $LN1@FireWeapon

; 515  : 		{
; 516  : 			m_nCurSplitIndex = 0;

  001ec	89 96 c8 14 00
	00		 mov	 DWORD PTR [esi+5320], edx
$LN1@FireWeapon:

; 517  : 		}
; 518  : 
; 519  : 		//  
; 520  : 		m_nFinshCnt = 0;

  001f2	89 96 cc 14 00
	00		 mov	 DWORD PTR [esi+5324], edx

; 521  : 				
; 522  : 		//  
; 523  : 		m_bSetFire = false;

  001f8	88 96 bd 14 00
	00		 mov	 BYTE PTR [esi+5309], dl
$LN32@FireWeapon:
  001fe	5f		 pop	 edi
$LN5@FireWeapon:

; 524  : 	}	
; 525  : }

  001ff	8b 4d fc	 mov	 ecx, DWORD PTR __$ArrayPad$[ebp]
  00202	33 cd		 xor	 ecx, ebp
  00204	5e		 pop	 esi
  00205	e8 00 00 00 00	 call	 @__security_check_cookie@4
  0020a	c9		 leave
  0020b	c3		 ret	 0
?FireWeapon@ioOwnerAttach4Dummy@@IAEXXZ ENDP		; ioOwnerAttach4Dummy::FireWeapon
_TEXT	ENDS
PUBLIC	??N?$CEncrypt@M@@QAE_NABM@Z			; CEncrypt<float>::operator<=
; Function compile flags: /Ogsp
; File d:\lost saga for developer\youtube\tutorial\source\src\lsclient\encryptvalue.h
;	COMDAT ??N?$CEncrypt@M@@QAE_NABM@Z
_TEXT	SEGMENT
_value$ = -4						; size = 4
_inValue$ = 8						; size = 4
??N?$CEncrypt@M@@QAE_NABM@Z PROC			; CEncrypt<float>::operator<=, COMDAT
; _this$ = ecx

; 1821 : 	{

  00000	55		 push	 ebp
  00001	8b ec		 mov	 ebp, esp
  00003	51		 push	 ecx

; 1822 : 		type value;
; 1823 : 		DecryptValueToPool(&value);

  00004	8d 45 fc	 lea	 eax, DWORD PTR _value$[ebp]
  00007	50		 push	 eax
  00008	e8 00 00 00 00	 call	 ?DecryptValueToPool@?$CEncrypt@M@@QAEXPAM@Z ; CEncrypt<float>::DecryptValueToPool

; 1824 : #ifdef _NOTUSE
; 1825 : 		Debug();
; 1826 : #endif
; 1827 : 		return (value <= inValue);

  0000d	8b 45 08	 mov	 eax, DWORD PTR _inValue$[ebp]
  00010	f3 0f 10 08	 movss	 xmm1, DWORD PTR [eax]
  00014	f3 0f 10 45 fc	 movss	 xmm0, DWORD PTR _value$[ebp]
  00019	0f 5a c0	 cvtps2pd xmm0, xmm0
  0001c	0f 5a c9	 cvtps2pd xmm1, xmm1
  0001f	33 c0		 xor	 eax, eax
  00021	66 0f 2f c8	 comisd	 xmm1, xmm0
  00025	72 01		 jb	 SHORT $LN4@operator
  00027	40		 inc	 eax
$LN4@operator:

; 1828 : 	}

  00028	c9		 leave
  00029	c2 04 00	 ret	 4
??N?$CEncrypt@M@@QAE_NABM@Z ENDP			; CEncrypt<float>::operator<=
_TEXT	ENDS
PUBLIC	??0?$_Vector_val@UCreateWeaponInfo@ioOwnerAttach4Dummy@@V?$allocator@UCreateWeaponInfo@ioOwnerAttach4Dummy@@@std@@@std@@QAE@V?$allocator@UCreateWeaponInfo@ioOwnerAttach4Dummy@@@1@@Z ; std::_Vector_val<ioOwnerAttach4Dummy::CreateWeaponInfo,std::allocator<ioOwnerAttach4Dummy::CreateWeaponInfo> >::_Vector_val<ioOwnerAttach4Dummy::CreateWeaponInfo,std::allocator<ioOwnerAttach4Dummy::CreateWeaponInfo> >
; Function compile flags: /Ogsp
; File c:\program files (x86)\microsoft visual studio 10.0\vc\include\vector
;	COMDAT ??0?$_Vector_val@UCreateWeaponInfo@ioOwnerAttach4Dummy@@V?$allocator@UCreateWeaponInfo@ioOwnerAttach4Dummy@@@std@@@std@@QAE@V?$allocator@UCreateWeaponInfo@ioOwnerAttach4Dummy@@@1@@Z
_TEXT	SEGMENT
__Al$ = 8						; size = 1
??0?$_Vector_val@UCreateWeaponInfo@ioOwnerAttach4Dummy@@V?$allocator@UCreateWeaponInfo@ioOwnerAttach4Dummy@@@std@@@std@@QAE@V?$allocator@UCreateWeaponInfo@ioOwnerAttach4Dummy@@@1@@Z PROC ; std::_Vector_val<ioOwnerAttach4Dummy::CreateWeaponInfo,std::allocator<ioOwnerAttach4Dummy::CreateWeaponInfo> >::_Vector_val<ioOwnerAttach4Dummy::CreateWeaponInfo,std::allocator<ioOwnerAttach4Dummy::CreateWeaponInfo> >, COMDAT
; _this$ = ecx

; 426  : 		{	// construct allocator from _Al

  00000	8b c1		 mov	 eax, ecx

; 427  : 		_Myfirst = 0;

  00002	33 c9		 xor	 ecx, ecx
  00004	89 08		 mov	 DWORD PTR [eax], ecx

; 428  : 		_Mylast = 0;

  00006	89 48 04	 mov	 DWORD PTR [eax+4], ecx

; 429  : 		_Myend = 0;

  00009	89 48 08	 mov	 DWORD PTR [eax+8], ecx

; 430  : 		}

  0000c	c2 04 00	 ret	 4
??0?$_Vector_val@UCreateWeaponInfo@ioOwnerAttach4Dummy@@V?$allocator@UCreateWeaponInfo@ioOwnerAttach4Dummy@@@std@@@std@@QAE@V?$allocator@UCreateWeaponInfo@ioOwnerAttach4Dummy@@@1@@Z ENDP ; std::_Vector_val<ioOwnerAttach4Dummy::CreateWeaponInfo,std::allocator<ioOwnerAttach4Dummy::CreateWeaponInfo> >::_Vector_val<ioOwnerAttach4Dummy::CreateWeaponInfo,std::allocator<ioOwnerAttach4Dummy::CreateWeaponInfo> >
_TEXT	ENDS
PUBLIC	?max_size@?$vector@UCreateWeaponInfo@ioOwnerAttach4Dummy@@V?$allocator@UCreateWeaponInfo@ioOwnerAttach4Dummy@@@std@@@std@@QBEIXZ ; std::vector<ioOwnerAttach4Dummy::CreateWeaponInfo,std::allocator<ioOwnerAttach4Dummy::CreateWeaponInfo> >::max_size
; Function compile flags: /Ogsp
;	COMDAT ?max_size@?$vector@UCreateWeaponInfo@ioOwnerAttach4Dummy@@V?$allocator@UCreateWeaponInfo@ioOwnerAttach4Dummy@@@std@@@std@@QBEIXZ
_TEXT	SEGMENT
?max_size@?$vector@UCreateWeaponInfo@ioOwnerAttach4Dummy@@V?$allocator@UCreateWeaponInfo@ioOwnerAttach4Dummy@@@std@@@std@@QBEIXZ PROC ; std::vector<ioOwnerAttach4Dummy::CreateWeaponInfo,std::allocator<ioOwnerAttach4Dummy::CreateWeaponInfo> >::max_size, COMDAT
; _this$ = ecx

; 884  : 		return (this->_Alval.max_size());

  00000	b8 c7 71 1c 07	 mov	 eax, 119304647		; 071c71c7H

; 885  : 		}

  00005	c3		 ret	 0
?max_size@?$vector@UCreateWeaponInfo@ioOwnerAttach4Dummy@@V?$allocator@UCreateWeaponInfo@ioOwnerAttach4Dummy@@@std@@@std@@QBEIXZ ENDP ; std::vector<ioOwnerAttach4Dummy::CreateWeaponInfo,std::allocator<ioOwnerAttach4Dummy::CreateWeaponInfo> >::max_size
_TEXT	ENDS
PUBLIC	?_Grow_to@?$vector@UCreateWeaponInfo@ioOwnerAttach4Dummy@@V?$allocator@UCreateWeaponInfo@ioOwnerAttach4Dummy@@@std@@@std@@IBEII@Z ; std::vector<ioOwnerAttach4Dummy::CreateWeaponInfo,std::allocator<ioOwnerAttach4Dummy::CreateWeaponInfo> >::_Grow_to
; Function compile flags: /Ogsp
;	COMDAT ?_Grow_to@?$vector@UCreateWeaponInfo@ioOwnerAttach4Dummy@@V?$allocator@UCreateWeaponInfo@ioOwnerAttach4Dummy@@@std@@@std@@IBEII@Z
_TEXT	SEGMENT
__Count$ = 8						; size = 4
?_Grow_to@?$vector@UCreateWeaponInfo@ioOwnerAttach4Dummy@@V?$allocator@UCreateWeaponInfo@ioOwnerAttach4Dummy@@@std@@@std@@IBEII@Z PROC ; std::vector<ioOwnerAttach4Dummy::CreateWeaponInfo,std::allocator<ioOwnerAttach4Dummy::CreateWeaponInfo> >::_Grow_to, COMDAT
; _this$ = ecx

; 1274 : 		{	// grow by 50% or at least to _Count

  00000	55		 push	 ebp
  00001	8b ec		 mov	 ebp, esp

; 1275 : 		size_type _Capacity = capacity();

  00003	8b 41 08	 mov	 eax, DWORD PTR [ecx+8]
  00006	2b 01		 sub	 eax, DWORD PTR [ecx]
  00008	6a 24		 push	 36			; 00000024H
  0000a	99		 cdq
  0000b	59		 pop	 ecx
  0000c	f7 f9		 idiv	 ecx

; 1276 : 
; 1277 : 		_Capacity = max_size() - _Capacity / 2 < _Capacity
; 1278 : 			? 0 : _Capacity + _Capacity / 2;	// try to grow by 50%

  0000e	ba c7 71 1c 07	 mov	 edx, 119304647		; 071c71c7H
  00013	8b c8		 mov	 ecx, eax
  00015	d1 e9		 shr	 ecx, 1
  00017	2b d1		 sub	 edx, ecx
  00019	3b d0		 cmp	 edx, eax
  0001b	73 04		 jae	 SHORT $LN4@Grow_to
  0001d	33 c0		 xor	 eax, eax
  0001f	eb 02		 jmp	 SHORT $LN5@Grow_to
$LN4@Grow_to:
  00021	03 c1		 add	 eax, ecx
$LN5@Grow_to:

; 1279 : 		if (_Capacity < _Count)

  00023	3b 45 08	 cmp	 eax, DWORD PTR __Count$[ebp]

; 1280 : 			_Capacity = _Count;

  00026	0f 42 45 08	 cmovb	 eax, DWORD PTR __Count$[ebp]

; 1281 : 		return (_Capacity);
; 1282 : 		}

  0002a	5d		 pop	 ebp
  0002b	c2 04 00	 ret	 4
?_Grow_to@?$vector@UCreateWeaponInfo@ioOwnerAttach4Dummy@@V?$allocator@UCreateWeaponInfo@ioOwnerAttach4Dummy@@@std@@@std@@IBEII@Z ENDP ; std::vector<ioOwnerAttach4Dummy::CreateWeaponInfo,std::allocator<ioOwnerAttach4Dummy::CreateWeaponInfo> >::_Grow_to
_TEXT	ENDS
PUBLIC	??0?$_Vector_iterator@V?$_Vector_val@UCreateWeaponInfo@ioOwnerAttach4Dummy@@V?$allocator@UCreateWeaponInfo@ioOwnerAttach4Dummy@@@std@@@std@@@std@@QAE@PAUCreateWeaponInfo@ioOwnerAttach4Dummy@@PBU_Container_base0@1@@Z ; std::_Vector_iterator<std::_Vector_val<ioOwnerAttach4Dummy::CreateWeaponInfo,std::allocator<ioOwnerAttach4Dummy::CreateWeaponInfo> > >::_Vector_iterator<std::_Vector_val<ioOwnerAttach4Dummy::CreateWeaponInfo,std::allocator<ioOwnerAttach4Dummy::CreateWeaponInfo> > >
; Function compile flags: /Ogsp
;	COMDAT ??0?$_Vector_iterator@V?$_Vector_val@UCreateWeaponInfo@ioOwnerAttach4Dummy@@V?$allocator@UCreateWeaponInfo@ioOwnerAttach4Dummy@@@std@@@std@@@std@@QAE@PAUCreateWeaponInfo@ioOwnerAttach4Dummy@@PBU_Container_base0@1@@Z
_TEXT	SEGMENT
__Parg$ = 8						; size = 4
__Pvector$ = 12						; size = 4
??0?$_Vector_iterator@V?$_Vector_val@UCreateWeaponInfo@ioOwnerAttach4Dummy@@V?$allocator@UCreateWeaponInfo@ioOwnerAttach4Dummy@@@std@@@std@@@std@@QAE@PAUCreateWeaponInfo@ioOwnerAttach4Dummy@@PBU_Container_base0@1@@Z PROC ; std::_Vector_iterator<std::_Vector_val<ioOwnerAttach4Dummy::CreateWeaponInfo,std::allocator<ioOwnerAttach4Dummy::CreateWeaponInfo> > >::_Vector_iterator<std::_Vector_val<ioOwnerAttach4Dummy::CreateWeaponInfo,std::allocator<ioOwnerAttach4Dummy::CreateWeaponInfo> > >, COMDAT
; _this$ = ecx

; 304  : 		{	// construct with pointer _Parg

  00000	55		 push	 ebp
  00001	8b ec		 mov	 ebp, esp
  00003	8b c1		 mov	 eax, ecx
  00005	8b 4d 08	 mov	 ecx, DWORD PTR __Parg$[ebp]
  00008	89 08		 mov	 DWORD PTR [eax], ecx

; 305  : 		}

  0000a	5d		 pop	 ebp
  0000b	c2 08 00	 ret	 8
??0?$_Vector_iterator@V?$_Vector_val@UCreateWeaponInfo@ioOwnerAttach4Dummy@@V?$allocator@UCreateWeaponInfo@ioOwnerAttach4Dummy@@@std@@@std@@@std@@QAE@PAUCreateWeaponInfo@ioOwnerAttach4Dummy@@PBU_Container_base0@1@@Z ENDP ; std::_Vector_iterator<std::_Vector_val<ioOwnerAttach4Dummy::CreateWeaponInfo,std::allocator<ioOwnerAttach4Dummy::CreateWeaponInfo> > >::_Vector_iterator<std::_Vector_val<ioOwnerAttach4Dummy::CreateWeaponInfo,std::allocator<ioOwnerAttach4Dummy::CreateWeaponInfo> > >
_TEXT	ENDS
PUBLIC	?allocate@?$allocator@UCreateWeaponInfo@ioOwnerAttach4Dummy@@@std@@QAEPAUCreateWeaponInfo@ioOwnerAttach4Dummy@@I@Z ; std::allocator<ioOwnerAttach4Dummy::CreateWeaponInfo>::allocate
; Function compile flags: /Ogsp
; File c:\program files (x86)\microsoft visual studio 10.0\vc\include\xmemory
;	COMDAT ?allocate@?$allocator@UCreateWeaponInfo@ioOwnerAttach4Dummy@@@std@@QAEPAUCreateWeaponInfo@ioOwnerAttach4Dummy@@I@Z
_TEXT	SEGMENT
__Count$ = 8						; size = 4
?allocate@?$allocator@UCreateWeaponInfo@ioOwnerAttach4Dummy@@@std@@QAEPAUCreateWeaponInfo@ioOwnerAttach4Dummy@@I@Z PROC ; std::allocator<ioOwnerAttach4Dummy::CreateWeaponInfo>::allocate, COMDAT
; _this$ = ecx

; 186  : 		{	// allocate array of _Count elements

  00000	55		 push	 ebp
  00001	8b ec		 mov	 ebp, esp

; 187  : 		return (_Allocate(_Count, (pointer)0));

  00003	6a 00		 push	 0
  00005	ff 75 08	 push	 DWORD PTR __Count$[ebp]
  00008	e8 00 00 00 00	 call	 ??$_Allocate@UCreateWeaponInfo@ioOwnerAttach4Dummy@@@std@@YAPAUCreateWeaponInfo@ioOwnerAttach4Dummy@@IPAU12@@Z ; std::_Allocate<ioOwnerAttach4Dummy::CreateWeaponInfo>
  0000d	59		 pop	 ecx
  0000e	59		 pop	 ecx

; 188  : 		}

  0000f	5d		 pop	 ebp
  00010	c2 04 00	 ret	 4
?allocate@?$allocator@UCreateWeaponInfo@ioOwnerAttach4Dummy@@@std@@QAEPAUCreateWeaponInfo@ioOwnerAttach4Dummy@@I@Z ENDP ; std::allocator<ioOwnerAttach4Dummy::CreateWeaponInfo>::allocate
_TEXT	ENDS
PUBLIC	??8?$_Vector_const_iterator@V?$_Vector_val@UCreateWeaponInfo@ioOwnerAttach4Dummy@@V?$allocator@UCreateWeaponInfo@ioOwnerAttach4Dummy@@@std@@@std@@@std@@QBE_NABV01@@Z ; std::_Vector_const_iterator<std::_Vector_val<ioOwnerAttach4Dummy::CreateWeaponInfo,std::allocator<ioOwnerAttach4Dummy::CreateWeaponInfo> > >::operator==
; Function compile flags: /Ogsp
; File c:\program files (x86)\microsoft visual studio 10.0\vc\include\vector
;	COMDAT ??8?$_Vector_const_iterator@V?$_Vector_val@UCreateWeaponInfo@ioOwnerAttach4Dummy@@V?$allocator@UCreateWeaponInfo@ioOwnerAttach4Dummy@@@std@@@std@@@std@@QBE_NABV01@@Z
_TEXT	SEGMENT
__Right$ = 8						; size = 4
??8?$_Vector_const_iterator@V?$_Vector_val@UCreateWeaponInfo@ioOwnerAttach4Dummy@@V?$allocator@UCreateWeaponInfo@ioOwnerAttach4Dummy@@@std@@@std@@@std@@QBE_NABV01@@Z PROC ; std::_Vector_const_iterator<std::_Vector_val<ioOwnerAttach4Dummy::CreateWeaponInfo,std::allocator<ioOwnerAttach4Dummy::CreateWeaponInfo> > >::operator==, COMDAT
; _this$ = ecx

; 201  : 		{	// test for iterator equality

  00000	55		 push	 ebp
  00001	8b ec		 mov	 ebp, esp

; 202  : 		_Compat(_Right);
; 203  : 		return (this->_Ptr == _Right._Ptr);

  00003	8b 01		 mov	 eax, DWORD PTR [ecx]
  00005	8b 4d 08	 mov	 ecx, DWORD PTR __Right$[ebp]
  00008	2b 01		 sub	 eax, DWORD PTR [ecx]
  0000a	f7 d8		 neg	 eax
  0000c	1b c0		 sbb	 eax, eax
  0000e	40		 inc	 eax

; 204  : 		}

  0000f	5d		 pop	 ebp
  00010	c2 04 00	 ret	 4
??8?$_Vector_const_iterator@V?$_Vector_val@UCreateWeaponInfo@ioOwnerAttach4Dummy@@V?$allocator@UCreateWeaponInfo@ioOwnerAttach4Dummy@@@std@@@std@@@std@@QBE_NABV01@@Z ENDP ; std::_Vector_const_iterator<std::_Vector_val<ioOwnerAttach4Dummy::CreateWeaponInfo,std::allocator<ioOwnerAttach4Dummy::CreateWeaponInfo> > >::operator==
_TEXT	ENDS
PUBLIC	__$ArrayPad$
PUBLIC	??$LoadFloat_e@$0L@@ioINILoader@@QAEMAAY0L@$$CBDM@Z ; ioINILoader::LoadFloat_e<11>
EXTRN	__imp_?LoadFloat@ioINILoader@@QAEMPBDM@Z:PROC
; Function compile flags: /Ogsp
; File d:\lost saga for developer\youtube\tutorial\source\src\io3dengine\ioiniloader.h
;	COMDAT ??$LoadFloat_e@$0L@@ioINILoader@@QAEMAAY0L@$$CBDM@Z
_TEXT	SEGMENT
__k$ = -20						; size = 11
__$ArrayPad$ = -4					; size = 4
_k$ = 8							; size = 4
_f$ = 12						; size = 4
??$LoadFloat_e@$0L@@ioINILoader@@QAEMAAY0L@$$CBDM@Z PROC ; ioINILoader::LoadFloat_e<11>, COMDAT
; _this$ = ecx

; 135  : 	{

  00000	55		 push	 ebp
  00001	8b ec		 mov	 ebp, esp
  00003	83 ec 14	 sub	 esp, 20			; 00000014H
  00006	a1 00 00 00 00	 mov	 eax, DWORD PTR ___security_cookie
  0000b	33 c5		 xor	 eax, ebp
  0000d	89 45 fc	 mov	 DWORD PTR __$ArrayPad$[ebp], eax
  00010	8b 45 08	 mov	 eax, DWORD PTR _k$[ebp]

; 136  : 		_ENCSTR(k, _k);

  00013	8a 10		 mov	 dl, BYTE PTR [eax]
  00015	56		 push	 esi
  00016	8b f1		 mov	 esi, ecx
  00018	84 d2		 test	 dl, dl
  0001a	0f 84 24 01 00
	00		 je	 $LN96@LoadFloat_
  00020	80 f2 ed	 xor	 dl, -19			; ffffffedH
  00023	88 55 ec	 mov	 BYTE PTR __k$[ebp], dl
  00026	8a 50 01	 mov	 dl, BYTE PTR [eax+1]
  00029	84 d2		 test	 dl, dl
  0002b	0f 84 0d 01 00
	00		 je	 $LN95@LoadFloat_
  00031	80 f2 ec	 xor	 dl, -20			; ffffffecH
  00034	88 55 ed	 mov	 BYTE PTR __k$[ebp+1], dl
  00037	8a 50 02	 mov	 dl, BYTE PTR [eax+2]
  0003a	84 d2		 test	 dl, dl
  0003c	0f 84 f6 00 00
	00		 je	 $LN94@LoadFloat_
  00042	80 f2 eb	 xor	 dl, -21			; ffffffebH
  00045	88 55 ee	 mov	 BYTE PTR __k$[ebp+2], dl
  00048	8a 50 03	 mov	 dl, BYTE PTR [eax+3]
  0004b	84 d2		 test	 dl, dl
  0004d	0f 84 df 00 00
	00		 je	 $LN93@LoadFloat_
  00053	80 f2 ea	 xor	 dl, -22			; ffffffeaH
  00056	88 55 ef	 mov	 BYTE PTR __k$[ebp+3], dl
  00059	8a 50 04	 mov	 dl, BYTE PTR [eax+4]
  0005c	84 d2		 test	 dl, dl
  0005e	0f 84 c8 00 00
	00		 je	 $LN92@LoadFloat_
  00064	80 f2 ed	 xor	 dl, -19			; ffffffedH
  00067	88 55 f0	 mov	 BYTE PTR __k$[ebp+4], dl
  0006a	8a 50 05	 mov	 dl, BYTE PTR [eax+5]
  0006d	84 d2		 test	 dl, dl
  0006f	0f 84 b1 00 00
	00		 je	 $LN91@LoadFloat_
  00075	80 f2 ec	 xor	 dl, -20			; ffffffecH
  00078	88 55 f1	 mov	 BYTE PTR __k$[ebp+5], dl
  0007b	8a 50 06	 mov	 dl, BYTE PTR [eax+6]
  0007e	84 d2		 test	 dl, dl
  00080	0f 84 9a 00 00
	00		 je	 $LN90@LoadFloat_
  00086	80 f2 eb	 xor	 dl, -21			; ffffffebH
  00089	88 55 f2	 mov	 BYTE PTR __k$[ebp+6], dl
  0008c	8a 50 07	 mov	 dl, BYTE PTR [eax+7]
  0008f	84 d2		 test	 dl, dl
  00091	0f 84 83 00 00
	00		 je	 $LN89@LoadFloat_
  00097	80 f2 ea	 xor	 dl, -22			; ffffffeaH
  0009a	88 55 f3	 mov	 BYTE PTR __k$[ebp+7], dl
  0009d	8a 50 08	 mov	 dl, BYTE PTR [eax+8]
  000a0	84 d2		 test	 dl, dl
  000a2	74 70		 je	 SHORT $LN88@LoadFloat_
  000a4	80 f2 ed	 xor	 dl, -19			; ffffffedH
  000a7	88 55 f4	 mov	 BYTE PTR __k$[ebp+8], dl
  000aa	8a 50 09	 mov	 dl, BYTE PTR [eax+9]
  000ad	84 d2		 test	 dl, dl
  000af	74 5d		 je	 SHORT $LN87@LoadFloat_
  000b1	80 f2 ec	 xor	 dl, -20			; ffffffecH
  000b4	80 78 0a 00	 cmp	 BYTE PTR [eax+10], 0
  000b8	88 55 f5	 mov	 BYTE PTR __k$[ebp+9], dl
  000bb	0f 84 87 00 00
	00		 je	 $LN1@LoadFloat_
  000c1	8a 50 0b	 mov	 dl, BYTE PTR [eax+11]
  000c4	84 d2		 test	 dl, dl
  000c6	74 40		 je	 SHORT $LN85@LoadFloat_
  000c8	80 f2 ea	 xor	 dl, -22			; ffffffeaH
  000cb	88 55 f7	 mov	 BYTE PTR __k$[ebp+11], dl
  000ce	8a 50 0c	 mov	 dl, BYTE PTR [eax+12]
  000d1	84 d2		 test	 dl, dl
  000d3	74 2d		 je	 SHORT $LN84@LoadFloat_
  000d5	80 f2 ed	 xor	 dl, -19			; ffffffedH
  000d8	88 55 f8	 mov	 BYTE PTR __k$[ebp+12], dl
  000db	8a 50 0d	 mov	 dl, BYTE PTR [eax+13]
  000de	84 d2		 test	 dl, dl
  000e0	74 1a		 je	 SHORT $LN83@LoadFloat_
  000e2	8a 40 0e	 mov	 al, BYTE PTR [eax+14]
  000e5	80 f2 ec	 xor	 dl, -20			; ffffffecH
  000e8	88 55 f9	 mov	 BYTE PTR __k$[ebp+13], dl
  000eb	84 c0		 test	 al, al
  000ed	74 07		 je	 SHORT $LN82@LoadFloat_
  000ef	34 eb		 xor	 al, -21			; ffffffebH
  000f1	88 45 fa	 mov	 BYTE PTR __k$[ebp+14], al
  000f4	eb 52		 jmp	 SHORT $LN1@LoadFloat_
$LN82@LoadFloat_:
  000f6	c6 45 fa eb	 mov	 BYTE PTR __k$[ebp+14], -21 ; ffffffebH
  000fa	eb 4c		 jmp	 SHORT $LN1@LoadFloat_
$LN83@LoadFloat_:
  000fc	c6 45 f9 ec	 mov	 BYTE PTR __k$[ebp+13], -20 ; ffffffecH
  00100	eb 46		 jmp	 SHORT $LN1@LoadFloat_
$LN84@LoadFloat_:
  00102	c6 45 f8 ed	 mov	 BYTE PTR __k$[ebp+12], -19 ; ffffffedH
  00106	eb 40		 jmp	 SHORT $LN1@LoadFloat_
$LN85@LoadFloat_:
  00108	c6 45 f7 ea	 mov	 BYTE PTR __k$[ebp+11], -22 ; ffffffeaH
  0010c	eb 3a		 jmp	 SHORT $LN1@LoadFloat_
$LN87@LoadFloat_:
  0010e	c6 45 f5 ec	 mov	 BYTE PTR __k$[ebp+9], -20 ; ffffffecH
  00112	eb 34		 jmp	 SHORT $LN1@LoadFloat_
$LN88@LoadFloat_:
  00114	c6 45 f4 ed	 mov	 BYTE PTR __k$[ebp+8], -19 ; ffffffedH
  00118	eb 2e		 jmp	 SHORT $LN1@LoadFloat_
$LN89@LoadFloat_:
  0011a	c6 45 f3 ea	 mov	 BYTE PTR __k$[ebp+7], -22 ; ffffffeaH
  0011e	eb 28		 jmp	 SHORT $LN1@LoadFloat_
$LN90@LoadFloat_:
  00120	c6 45 f2 eb	 mov	 BYTE PTR __k$[ebp+6], -21 ; ffffffebH
  00124	eb 22		 jmp	 SHORT $LN1@LoadFloat_
$LN91@LoadFloat_:
  00126	c6 45 f1 ec	 mov	 BYTE PTR __k$[ebp+5], -20 ; ffffffecH
  0012a	eb 1c		 jmp	 SHORT $LN1@LoadFloat_
$LN92@LoadFloat_:
  0012c	c6 45 f0 ed	 mov	 BYTE PTR __k$[ebp+4], -19 ; ffffffedH
  00130	eb 16		 jmp	 SHORT $LN1@LoadFloat_
$LN93@LoadFloat_:
  00132	c6 45 ef ea	 mov	 BYTE PTR __k$[ebp+3], -22 ; ffffffeaH
  00136	eb 10		 jmp	 SHORT $LN1@LoadFloat_
$LN94@LoadFloat_:
  00138	c6 45 ee eb	 mov	 BYTE PTR __k$[ebp+2], -21 ; ffffffebH
  0013c	eb 0a		 jmp	 SHORT $LN1@LoadFloat_
$LN95@LoadFloat_:
  0013e	c6 45 ed ec	 mov	 BYTE PTR __k$[ebp+1], -20 ; ffffffecH
  00142	eb 04		 jmp	 SHORT $LN1@LoadFloat_
$LN96@LoadFloat_:
  00144	c6 45 ec ed	 mov	 BYTE PTR __k$[ebp], -19	; ffffffedH
$LN1@LoadFloat_:
  00148	6a 02		 push	 2
  0014a	8d 45 ec	 lea	 eax, DWORD PTR __k$[ebp]
  0014d	c6 45 f6 00	 mov	 BYTE PTR __k$[ebp+10], 0
  00151	5a		 pop	 edx
$LL104@LoadFloat_:
  00152	81 30 ed ec eb
	ea		 xor	 DWORD PTR [eax], -353637139 ; eaebecedH
  00158	83 c0 04	 add	 eax, 4
  0015b	4a		 dec	 edx
  0015c	75 f4		 jne	 SHORT $LL104@LoadFloat_
  0015e	6a 08		 push	 8
  00160	58		 pop	 eax
$LL101@LoadFloat_:
  00161	8b c8		 mov	 ecx, eax
  00163	81 e1 03 00 00
	80		 and	 ecx, -2147483645	; 80000003H
  00169	79 05		 jns	 SHORT $LN111@LoadFloat_
  0016b	49		 dec	 ecx
  0016c	83 c9 fc	 or	 ecx, -4			; fffffffcH
  0016f	41		 inc	 ecx
$LN111@LoadFloat_:
  00170	b2 ed		 mov	 dl, -19			; ffffffedH
  00172	2a d1		 sub	 dl, cl
  00174	30 54 05 ec	 xor	 BYTE PTR __k$[ebp+eax], dl
  00178	40		 inc	 eax
  00179	83 f8 0a	 cmp	 eax, 10			; 0000000aH
  0017c	7c e3		 jl	 SHORT $LL101@LoadFloat_

; 137  : 		return LoadFloat(_k, f);

  0017e	f3 0f 10 45 0c	 movss	 xmm0, DWORD PTR _f$[ebp]
  00183	51		 push	 ecx
  00184	8d 45 ec	 lea	 eax, DWORD PTR __k$[ebp]
  00187	f3 0f 11 04 24	 movss	 DWORD PTR [esp], xmm0
  0018c	50		 push	 eax
  0018d	8b ce		 mov	 ecx, esi
  0018f	ff 15 00 00 00
	00		 call	 DWORD PTR __imp_?LoadFloat@ioINILoader@@QAEMPBDM@Z

; 138  : 	}

  00195	8b 4d fc	 mov	 ecx, DWORD PTR __$ArrayPad$[ebp]
  00198	33 cd		 xor	 ecx, ebp
  0019a	5e		 pop	 esi
  0019b	e8 00 00 00 00	 call	 @__security_check_cookie@4
  001a0	c9		 leave
  001a1	c2 08 00	 ret	 8
??$LoadFloat_e@$0L@@ioINILoader@@QAEMAAY0L@$$CBDM@Z ENDP ; ioINILoader::LoadFloat_e<11>
_TEXT	ENDS
PUBLIC	__$ArrayPad$
PUBLIC	??$LoadString_e@$0L@@ioINILoader@@QAEXAAY0L@$$CBDAAY00$$CBDPADH@Z ; ioINILoader::LoadString_e<11>
EXTRN	__imp_?LoadStringA@ioINILoader@@QAEXPBD0PADH@Z:PROC
; Function compile flags: /Ogsp
;	COMDAT ??$LoadString_e@$0L@@ioINILoader@@QAEXAAY0L@$$CBDAAY00$$CBDPADH@Z
_TEXT	SEGMENT
__k$ = -20						; size = 11
__$ArrayPad$ = -4					; size = 4
_k$ = 8							; size = 4
_d$ = 12						; size = 4
_b$ = 16						; size = 4
_i$ = 20						; size = 4
??$LoadString_e@$0L@@ioINILoader@@QAEXAAY0L@$$CBDAAY00$$CBDPADH@Z PROC ; ioINILoader::LoadString_e<11>, COMDAT
; _this$ = ecx

; 161  : 	{

  00000	55		 push	 ebp
  00001	8b ec		 mov	 ebp, esp
  00003	83 ec 14	 sub	 esp, 20			; 00000014H
  00006	a1 00 00 00 00	 mov	 eax, DWORD PTR ___security_cookie
  0000b	33 c5		 xor	 eax, ebp
  0000d	89 45 fc	 mov	 DWORD PTR __$ArrayPad$[ebp], eax
  00010	8b 45 08	 mov	 eax, DWORD PTR _k$[ebp]

; 162  : 		_ENCSTR(k, _k);

  00013	8a 10		 mov	 dl, BYTE PTR [eax]
  00015	53		 push	 ebx
  00016	56		 push	 esi
  00017	8b 75 0c	 mov	 esi, DWORD PTR _d$[ebp]
  0001a	57		 push	 edi
  0001b	8b 7d 10	 mov	 edi, DWORD PTR _b$[ebp]
  0001e	84 d2		 test	 dl, dl
  00020	0f 84 1b 01 00
	00		 je	 $LN96@LoadString
  00026	80 f2 ed	 xor	 dl, -19			; ffffffedH
  00029	88 55 ec	 mov	 BYTE PTR __k$[ebp], dl
  0002c	8a 50 01	 mov	 dl, BYTE PTR [eax+1]
  0002f	84 d2		 test	 dl, dl
  00031	0f 84 04 01 00
	00		 je	 $LN95@LoadString
  00037	b3 ec		 mov	 bl, -20			; ffffffecH
  00039	32 d3		 xor	 dl, bl
  0003b	88 55 ed	 mov	 BYTE PTR __k$[ebp+1], dl
  0003e	8a 50 02	 mov	 dl, BYTE PTR [eax+2]
  00041	84 d2		 test	 dl, dl
  00043	0f 84 ec 00 00
	00		 je	 $LN94@LoadString
  00049	80 f2 eb	 xor	 dl, -21			; ffffffebH
  0004c	88 55 ee	 mov	 BYTE PTR __k$[ebp+2], dl
  0004f	8a 50 03	 mov	 dl, BYTE PTR [eax+3]
  00052	84 d2		 test	 dl, dl
  00054	0f 84 d5 00 00
	00		 je	 $LN93@LoadString
  0005a	80 f2 ea	 xor	 dl, -22			; ffffffeaH
  0005d	88 55 ef	 mov	 BYTE PTR __k$[ebp+3], dl
  00060	8a 50 04	 mov	 dl, BYTE PTR [eax+4]
  00063	84 d2		 test	 dl, dl
  00065	0f 84 be 00 00
	00		 je	 $LN92@LoadString
  0006b	80 f2 ed	 xor	 dl, -19			; ffffffedH
  0006e	88 55 f0	 mov	 BYTE PTR __k$[ebp+4], dl
  00071	8a 50 05	 mov	 dl, BYTE PTR [eax+5]
  00074	84 d2		 test	 dl, dl
  00076	0f 84 a8 00 00
	00		 je	 $LN91@LoadString
  0007c	32 d3		 xor	 dl, bl
  0007e	88 55 f1	 mov	 BYTE PTR __k$[ebp+5], dl
  00081	8a 50 06	 mov	 dl, BYTE PTR [eax+6]
  00084	84 d2		 test	 dl, dl
  00086	0f 84 92 00 00
	00		 je	 $LN90@LoadString
  0008c	80 f2 eb	 xor	 dl, -21			; ffffffebH
  0008f	88 55 f2	 mov	 BYTE PTR __k$[ebp+6], dl
  00092	8a 50 07	 mov	 dl, BYTE PTR [eax+7]
  00095	84 d2		 test	 dl, dl
  00097	74 7f		 je	 SHORT $LN89@LoadString
  00099	80 f2 ea	 xor	 dl, -22			; ffffffeaH
  0009c	88 55 f3	 mov	 BYTE PTR __k$[ebp+7], dl
  0009f	8a 50 08	 mov	 dl, BYTE PTR [eax+8]
  000a2	84 d2		 test	 dl, dl
  000a4	74 6c		 je	 SHORT $LN88@LoadString
  000a6	80 f2 ed	 xor	 dl, -19			; ffffffedH
  000a9	88 55 f4	 mov	 BYTE PTR __k$[ebp+8], dl
  000ac	8a 50 09	 mov	 dl, BYTE PTR [eax+9]
  000af	84 d2		 test	 dl, dl
  000b1	74 5a		 je	 SHORT $LN87@LoadString
  000b3	32 d3		 xor	 dl, bl
  000b5	80 78 0a 00	 cmp	 BYTE PTR [eax+10], 0
  000b9	88 55 f5	 mov	 BYTE PTR __k$[ebp+9], dl
  000bc	0f 84 83 00 00
	00		 je	 $LN1@LoadString
  000c2	8a 50 0b	 mov	 dl, BYTE PTR [eax+11]
  000c5	84 d2		 test	 dl, dl
  000c7	74 3e		 je	 SHORT $LN85@LoadString
  000c9	80 f2 ea	 xor	 dl, -22			; ffffffeaH
  000cc	88 55 f7	 mov	 BYTE PTR __k$[ebp+11], dl
  000cf	8a 50 0c	 mov	 dl, BYTE PTR [eax+12]
  000d2	84 d2		 test	 dl, dl
  000d4	74 2b		 je	 SHORT $LN84@LoadString
  000d6	80 f2 ed	 xor	 dl, -19			; ffffffedH
  000d9	88 55 f8	 mov	 BYTE PTR __k$[ebp+12], dl
  000dc	8a 50 0d	 mov	 dl, BYTE PTR [eax+13]
  000df	84 d2		 test	 dl, dl
  000e1	74 19		 je	 SHORT $LN83@LoadString
  000e3	8a 40 0e	 mov	 al, BYTE PTR [eax+14]
  000e6	32 d3		 xor	 dl, bl
  000e8	88 55 f9	 mov	 BYTE PTR __k$[ebp+13], dl
  000eb	84 c0		 test	 al, al
  000ed	74 07		 je	 SHORT $LN82@LoadString
  000ef	34 eb		 xor	 al, -21			; ffffffebH
  000f1	88 45 fa	 mov	 BYTE PTR __k$[ebp+14], al
  000f4	eb 4f		 jmp	 SHORT $LN1@LoadString
$LN82@LoadString:
  000f6	c6 45 fa eb	 mov	 BYTE PTR __k$[ebp+14], -21 ; ffffffebH
  000fa	eb 49		 jmp	 SHORT $LN1@LoadString
$LN83@LoadString:
  000fc	88 5d f9	 mov	 BYTE PTR __k$[ebp+13], bl
  000ff	eb 44		 jmp	 SHORT $LN1@LoadString
$LN84@LoadString:
  00101	c6 45 f8 ed	 mov	 BYTE PTR __k$[ebp+12], -19 ; ffffffedH
  00105	eb 3e		 jmp	 SHORT $LN1@LoadString
$LN85@LoadString:
  00107	c6 45 f7 ea	 mov	 BYTE PTR __k$[ebp+11], -22 ; ffffffeaH
  0010b	eb 38		 jmp	 SHORT $LN1@LoadString
$LN87@LoadString:
  0010d	88 5d f5	 mov	 BYTE PTR __k$[ebp+9], bl
  00110	eb 33		 jmp	 SHORT $LN1@LoadString
$LN88@LoadString:
  00112	c6 45 f4 ed	 mov	 BYTE PTR __k$[ebp+8], -19 ; ffffffedH
  00116	eb 2d		 jmp	 SHORT $LN1@LoadString
$LN89@LoadString:
  00118	c6 45 f3 ea	 mov	 BYTE PTR __k$[ebp+7], -22 ; ffffffeaH
  0011c	eb 27		 jmp	 SHORT $LN1@LoadString
$LN90@LoadString:
  0011e	c6 45 f2 eb	 mov	 BYTE PTR __k$[ebp+6], -21 ; ffffffebH
  00122	eb 21		 jmp	 SHORT $LN1@LoadString
$LN91@LoadString:
  00124	88 5d f1	 mov	 BYTE PTR __k$[ebp+5], bl
  00127	eb 1c		 jmp	 SHORT $LN1@LoadString
$LN92@LoadString:
  00129	c6 45 f0 ed	 mov	 BYTE PTR __k$[ebp+4], -19 ; ffffffedH
  0012d	eb 16		 jmp	 SHORT $LN1@LoadString
$LN93@LoadString:
  0012f	c6 45 ef ea	 mov	 BYTE PTR __k$[ebp+3], -22 ; ffffffeaH
  00133	eb 10		 jmp	 SHORT $LN1@LoadString
$LN94@LoadString:
  00135	c6 45 ee eb	 mov	 BYTE PTR __k$[ebp+2], -21 ; ffffffebH
  00139	eb 0a		 jmp	 SHORT $LN1@LoadString
$LN95@LoadString:
  0013b	c6 45 ed ec	 mov	 BYTE PTR __k$[ebp+1], -20 ; ffffffecH
  0013f	eb 04		 jmp	 SHORT $LN1@LoadString
$LN96@LoadString:
  00141	c6 45 ec ed	 mov	 BYTE PTR __k$[ebp], -19	; ffffffedH
$LN1@LoadString:
  00145	6a 02		 push	 2
  00147	8d 45 ec	 lea	 eax, DWORD PTR __k$[ebp]
  0014a	c6 45 f6 00	 mov	 BYTE PTR __k$[ebp+10], 0
  0014e	5a		 pop	 edx
$LL104@LoadString:
  0014f	81 30 ed ec eb
	ea		 xor	 DWORD PTR [eax], -353637139 ; eaebecedH
  00155	83 c0 04	 add	 eax, 4
  00158	4a		 dec	 edx
  00159	75 f4		 jne	 SHORT $LL104@LoadString
  0015b	6a 08		 push	 8
  0015d	58		 pop	 eax
$LL101@LoadString:
  0015e	8b d0		 mov	 edx, eax
  00160	81 e2 03 00 00
	80		 and	 edx, -2147483645	; 80000003H
  00166	79 05		 jns	 SHORT $LN111@LoadString
  00168	4a		 dec	 edx
  00169	83 ca fc	 or	 edx, -4			; fffffffcH
  0016c	42		 inc	 edx
$LN111@LoadString:
  0016d	b3 ed		 mov	 bl, -19			; ffffffedH
  0016f	2a da		 sub	 bl, dl
  00171	30 5c 05 ec	 xor	 BYTE PTR __k$[ebp+eax], bl
  00175	40		 inc	 eax
  00176	83 f8 0a	 cmp	 eax, 10			; 0000000aH
  00179	7c e3		 jl	 SHORT $LL101@LoadString

; 163  : 		LoadString(_k, d, b, i);

  0017b	ff 75 14	 push	 DWORD PTR _i$[ebp]
  0017e	8d 45 ec	 lea	 eax, DWORD PTR __k$[ebp]
  00181	57		 push	 edi
  00182	56		 push	 esi
  00183	50		 push	 eax
  00184	ff 15 00 00 00
	00		 call	 DWORD PTR __imp_?LoadStringA@ioINILoader@@QAEXPBD0PADH@Z

; 164  : 	}

  0018a	8b 4d fc	 mov	 ecx, DWORD PTR __$ArrayPad$[ebp]
  0018d	5f		 pop	 edi
  0018e	5e		 pop	 esi
  0018f	33 cd		 xor	 ecx, ebp
  00191	5b		 pop	 ebx
  00192	e8 00 00 00 00	 call	 @__security_check_cookie@4
  00197	c9		 leave
  00198	c2 10 00	 ret	 16			; 00000010H
??$LoadString_e@$0L@@ioINILoader@@QAEXAAY0L@$$CBDAAY00$$CBDPADH@Z ENDP ; ioINILoader::LoadString_e<11>
_TEXT	ENDS
PUBLIC	__$ArrayPad$
PUBLIC	??$LoadInt_e@$0O@@ioINILoader@@QAEHAAY0O@$$CBDH@Z ; ioINILoader::LoadInt_e<14>
EXTRN	__imp_?LoadInt@ioINILoader@@QAEHPBDH@Z:PROC
; Function compile flags: /Ogsp
;	COMDAT ??$LoadInt_e@$0O@@ioINILoader@@QAEHAAY0O@$$CBDH@Z
_TEXT	SEGMENT
__k$ = -24						; size = 14
__$ArrayPad$ = -4					; size = 4
_k$ = 8							; size = 4
_i$ = 12						; size = 4
??$LoadInt_e@$0O@@ioINILoader@@QAEHAAY0O@$$CBDH@Z PROC	; ioINILoader::LoadInt_e<14>, COMDAT
; _this$ = ecx

; 118  : 	{

  00000	55		 push	 ebp
  00001	8b ec		 mov	 ebp, esp
  00003	83 ec 18	 sub	 esp, 24			; 00000018H
  00006	a1 00 00 00 00	 mov	 eax, DWORD PTR ___security_cookie
  0000b	33 c5		 xor	 eax, ebp
  0000d	89 45 fc	 mov	 DWORD PTR __$ArrayPad$[ebp], eax
  00010	8b 45 08	 mov	 eax, DWORD PTR _k$[ebp]

; 119  : 		_ENCSTR(k, _k);

  00013	8a 10		 mov	 dl, BYTE PTR [eax]
  00015	56		 push	 esi
  00016	8b f1		 mov	 esi, ecx
  00018	84 d2		 test	 dl, dl
  0001a	0f 84 64 01 00
	00		 je	 $LN96@LoadInt_e
  00020	80 f2 ed	 xor	 dl, -19			; ffffffedH
  00023	88 55 e8	 mov	 BYTE PTR __k$[ebp], dl
  00026	8a 50 01	 mov	 dl, BYTE PTR [eax+1]
  00029	84 d2		 test	 dl, dl
  0002b	0f 84 4d 01 00
	00		 je	 $LN95@LoadInt_e
  00031	80 f2 ec	 xor	 dl, -20			; ffffffecH
  00034	88 55 e9	 mov	 BYTE PTR __k$[ebp+1], dl
  00037	8a 50 02	 mov	 dl, BYTE PTR [eax+2]
  0003a	84 d2		 test	 dl, dl
  0003c	0f 84 36 01 00
	00		 je	 $LN94@LoadInt_e
  00042	b1 eb		 mov	 cl, -21			; ffffffebH
  00044	32 d1		 xor	 dl, cl
  00046	88 55 ea	 mov	 BYTE PTR __k$[ebp+2], dl
  00049	8a 50 03	 mov	 dl, BYTE PTR [eax+3]
  0004c	84 d2		 test	 dl, dl
  0004e	0f 84 1e 01 00
	00		 je	 $LN93@LoadInt_e
  00054	80 f2 ea	 xor	 dl, -22			; ffffffeaH
  00057	88 55 eb	 mov	 BYTE PTR __k$[ebp+3], dl
  0005a	8a 50 04	 mov	 dl, BYTE PTR [eax+4]
  0005d	84 d2		 test	 dl, dl
  0005f	0f 84 07 01 00
	00		 je	 $LN92@LoadInt_e
  00065	80 f2 ed	 xor	 dl, -19			; ffffffedH
  00068	88 55 ec	 mov	 BYTE PTR __k$[ebp+4], dl
  0006b	8a 50 05	 mov	 dl, BYTE PTR [eax+5]
  0006e	84 d2		 test	 dl, dl
  00070	0f 84 f0 00 00
	00		 je	 $LN91@LoadInt_e
  00076	80 f2 ec	 xor	 dl, -20			; ffffffecH
  00079	88 55 ed	 mov	 BYTE PTR __k$[ebp+5], dl
  0007c	8a 50 06	 mov	 dl, BYTE PTR [eax+6]
  0007f	84 d2		 test	 dl, dl
  00081	0f 84 da 00 00
	00		 je	 $LN90@LoadInt_e
  00087	32 d1		 xor	 dl, cl
  00089	88 55 ee	 mov	 BYTE PTR __k$[ebp+6], dl
  0008c	8a 50 07	 mov	 dl, BYTE PTR [eax+7]
  0008f	84 d2		 test	 dl, dl
  00091	0f 84 c4 00 00
	00		 je	 $LN89@LoadInt_e
  00097	80 f2 ea	 xor	 dl, -22			; ffffffeaH
  0009a	88 55 ef	 mov	 BYTE PTR __k$[ebp+7], dl
  0009d	8a 50 08	 mov	 dl, BYTE PTR [eax+8]
  000a0	84 d2		 test	 dl, dl
  000a2	0f 84 ad 00 00
	00		 je	 $LN88@LoadInt_e
  000a8	80 f2 ed	 xor	 dl, -19			; ffffffedH
  000ab	88 55 f0	 mov	 BYTE PTR __k$[ebp+8], dl
  000ae	8a 50 09	 mov	 dl, BYTE PTR [eax+9]
  000b1	84 d2		 test	 dl, dl
  000b3	0f 84 96 00 00
	00		 je	 $LN87@LoadInt_e
  000b9	80 f2 ec	 xor	 dl, -20			; ffffffecH
  000bc	88 55 f1	 mov	 BYTE PTR __k$[ebp+9], dl
  000bf	8a 50 0a	 mov	 dl, BYTE PTR [eax+10]
  000c2	84 d2		 test	 dl, dl
  000c4	0f 84 80 00 00
	00		 je	 $LN86@LoadInt_e
  000ca	32 d1		 xor	 dl, cl
  000cc	88 55 f2	 mov	 BYTE PTR __k$[ebp+10], dl
  000cf	8a 50 0b	 mov	 dl, BYTE PTR [eax+11]
  000d2	84 d2		 test	 dl, dl
  000d4	74 6e		 je	 SHORT $LN85@LoadInt_e
  000d6	80 f2 ea	 xor	 dl, -22			; ffffffeaH
  000d9	88 55 f3	 mov	 BYTE PTR __k$[ebp+11], dl
  000dc	8a 50 0c	 mov	 dl, BYTE PTR [eax+12]
  000df	84 d2		 test	 dl, dl
  000e1	74 5b		 je	 SHORT $LN84@LoadInt_e
  000e3	80 f2 ed	 xor	 dl, -19			; ffffffedH
  000e6	80 78 0d 00	 cmp	 BYTE PTR [eax+13], 0
  000ea	88 55 f4	 mov	 BYTE PTR __k$[ebp+12], dl
  000ed	0f 84 95 00 00
	00		 je	 $LN1@LoadInt_e
  000f3	8a 50 0e	 mov	 dl, BYTE PTR [eax+14]
  000f6	84 d2		 test	 dl, dl
  000f8	74 3f		 je	 SHORT $LN82@LoadInt_e
  000fa	32 d1		 xor	 dl, cl
  000fc	88 55 f6	 mov	 BYTE PTR __k$[ebp+14], dl
  000ff	8a 50 0f	 mov	 dl, BYTE PTR [eax+15]
  00102	84 d2		 test	 dl, dl
  00104	74 2d		 je	 SHORT $LN81@LoadInt_e
  00106	80 f2 ea	 xor	 dl, -22			; ffffffeaH
  00109	88 55 f7	 mov	 BYTE PTR __k$[ebp+15], dl
  0010c	8a 50 10	 mov	 dl, BYTE PTR [eax+16]
  0010f	84 d2		 test	 dl, dl
  00111	74 1a		 je	 SHORT $LN80@LoadInt_e
  00113	8a 40 11	 mov	 al, BYTE PTR [eax+17]
  00116	80 f2 ed	 xor	 dl, -19			; ffffffedH
  00119	88 55 f8	 mov	 BYTE PTR __k$[ebp+16], dl
  0011c	84 c0		 test	 al, al
  0011e	74 07		 je	 SHORT $LN79@LoadInt_e
  00120	34 ec		 xor	 al, -20			; ffffffecH
  00122	88 45 f9	 mov	 BYTE PTR __k$[ebp+17], al
  00125	eb 61		 jmp	 SHORT $LN1@LoadInt_e
$LN79@LoadInt_e:
  00127	c6 45 f9 ec	 mov	 BYTE PTR __k$[ebp+17], -20 ; ffffffecH
  0012b	eb 5b		 jmp	 SHORT $LN1@LoadInt_e
$LN80@LoadInt_e:
  0012d	c6 45 f8 ed	 mov	 BYTE PTR __k$[ebp+16], -19 ; ffffffedH
  00131	eb 55		 jmp	 SHORT $LN1@LoadInt_e
$LN81@LoadInt_e:
  00133	c6 45 f7 ea	 mov	 BYTE PTR __k$[ebp+15], -22 ; ffffffeaH
  00137	eb 4f		 jmp	 SHORT $LN1@LoadInt_e
$LN82@LoadInt_e:
  00139	88 4d f6	 mov	 BYTE PTR __k$[ebp+14], cl
  0013c	eb 4a		 jmp	 SHORT $LN1@LoadInt_e
$LN84@LoadInt_e:
  0013e	c6 45 f4 ed	 mov	 BYTE PTR __k$[ebp+12], -19 ; ffffffedH
  00142	eb 44		 jmp	 SHORT $LN1@LoadInt_e
$LN85@LoadInt_e:
  00144	c6 45 f3 ea	 mov	 BYTE PTR __k$[ebp+11], -22 ; ffffffeaH
  00148	eb 3e		 jmp	 SHORT $LN1@LoadInt_e
$LN86@LoadInt_e:
  0014a	88 4d f2	 mov	 BYTE PTR __k$[ebp+10], cl
  0014d	eb 39		 jmp	 SHORT $LN1@LoadInt_e
$LN87@LoadInt_e:
  0014f	c6 45 f1 ec	 mov	 BYTE PTR __k$[ebp+9], -20 ; ffffffecH
  00153	eb 33		 jmp	 SHORT $LN1@LoadInt_e
$LN88@LoadInt_e:
  00155	c6 45 f0 ed	 mov	 BYTE PTR __k$[ebp+8], -19 ; ffffffedH
  00159	eb 2d		 jmp	 SHORT $LN1@LoadInt_e
$LN89@LoadInt_e:
  0015b	c6 45 ef ea	 mov	 BYTE PTR __k$[ebp+7], -22 ; ffffffeaH
  0015f	eb 27		 jmp	 SHORT $LN1@LoadInt_e
$LN90@LoadInt_e:
  00161	88 4d ee	 mov	 BYTE PTR __k$[ebp+6], cl
  00164	eb 22		 jmp	 SHORT $LN1@LoadInt_e
$LN91@LoadInt_e:
  00166	c6 45 ed ec	 mov	 BYTE PTR __k$[ebp+5], -20 ; ffffffecH
  0016a	eb 1c		 jmp	 SHORT $LN1@LoadInt_e
$LN92@LoadInt_e:
  0016c	c6 45 ec ed	 mov	 BYTE PTR __k$[ebp+4], -19 ; ffffffedH
  00170	eb 16		 jmp	 SHORT $LN1@LoadInt_e
$LN93@LoadInt_e:
  00172	c6 45 eb ea	 mov	 BYTE PTR __k$[ebp+3], -22 ; ffffffeaH
  00176	eb 10		 jmp	 SHORT $LN1@LoadInt_e
$LN94@LoadInt_e:
  00178	c6 45 ea eb	 mov	 BYTE PTR __k$[ebp+2], -21 ; ffffffebH
  0017c	eb 0a		 jmp	 SHORT $LN1@LoadInt_e
$LN95@LoadInt_e:
  0017e	c6 45 e9 ec	 mov	 BYTE PTR __k$[ebp+1], -20 ; ffffffecH
  00182	eb 04		 jmp	 SHORT $LN1@LoadInt_e
$LN96@LoadInt_e:
  00184	c6 45 e8 ed	 mov	 BYTE PTR __k$[ebp], -19	; ffffffedH
$LN1@LoadInt_e:
  00188	6a 03		 push	 3
  0018a	8d 45 e8	 lea	 eax, DWORD PTR __k$[ebp]
  0018d	c6 45 f5 00	 mov	 BYTE PTR __k$[ebp+13], 0
  00191	5a		 pop	 edx
$LL104@LoadInt_e:
  00192	81 30 ed ec eb
	ea		 xor	 DWORD PTR [eax], -353637139 ; eaebecedH
  00198	83 c0 04	 add	 eax, 4
  0019b	4a		 dec	 edx
  0019c	75 f4		 jne	 SHORT $LL104@LoadInt_e

; 120  : 		return LoadInt(_k, i);

  0019e	ff 75 0c	 push	 DWORD PTR _i$[ebp]
  001a1	80 75 f4 ed	 xor	 BYTE PTR __k$[ebp+12], -19 ; ffffffedH
  001a5	8d 45 e8	 lea	 eax, DWORD PTR __k$[ebp]
  001a8	50		 push	 eax
  001a9	8b ce		 mov	 ecx, esi
  001ab	ff 15 00 00 00
	00		 call	 DWORD PTR __imp_?LoadInt@ioINILoader@@QAEHPBDH@Z

; 121  : 	}

  001b1	8b 4d fc	 mov	 ecx, DWORD PTR __$ArrayPad$[ebp]
  001b4	33 cd		 xor	 ecx, ebp
  001b6	5e		 pop	 esi
  001b7	e8 00 00 00 00	 call	 @__security_check_cookie@4
  001bc	c9		 leave
  001bd	c2 08 00	 ret	 8
??$LoadInt_e@$0O@@ioINILoader@@QAEHAAY0O@$$CBDH@Z ENDP	; ioINILoader::LoadInt_e<14>
_TEXT	ENDS
PUBLIC	__$ArrayPad$
PUBLIC	??$LoadInt_e@$0L@@ioINILoader@@QAEHAAY0L@$$CBDH@Z ; ioINILoader::LoadInt_e<11>
; Function compile flags: /Ogsp
;	COMDAT ??$LoadInt_e@$0L@@ioINILoader@@QAEHAAY0L@$$CBDH@Z
_TEXT	SEGMENT
__k$ = -20						; size = 11
__$ArrayPad$ = -4					; size = 4
_k$ = 8							; size = 4
_i$ = 12						; size = 4
??$LoadInt_e@$0L@@ioINILoader@@QAEHAAY0L@$$CBDH@Z PROC	; ioINILoader::LoadInt_e<11>, COMDAT
; _this$ = ecx

; 118  : 	{

  00000	55		 push	 ebp
  00001	8b ec		 mov	 ebp, esp
  00003	83 ec 14	 sub	 esp, 20			; 00000014H
  00006	a1 00 00 00 00	 mov	 eax, DWORD PTR ___security_cookie
  0000b	33 c5		 xor	 eax, ebp
  0000d	89 45 fc	 mov	 DWORD PTR __$ArrayPad$[ebp], eax
  00010	8b 45 08	 mov	 eax, DWORD PTR _k$[ebp]

; 119  : 		_ENCSTR(k, _k);

  00013	8a 10		 mov	 dl, BYTE PTR [eax]
  00015	56		 push	 esi
  00016	8b f1		 mov	 esi, ecx
  00018	84 d2		 test	 dl, dl
  0001a	0f 84 24 01 00
	00		 je	 $LN96@LoadInt_e@2
  00020	80 f2 ed	 xor	 dl, -19			; ffffffedH
  00023	88 55 ec	 mov	 BYTE PTR __k$[ebp], dl
  00026	8a 50 01	 mov	 dl, BYTE PTR [eax+1]
  00029	84 d2		 test	 dl, dl
  0002b	0f 84 0d 01 00
	00		 je	 $LN95@LoadInt_e@2
  00031	80 f2 ec	 xor	 dl, -20			; ffffffecH
  00034	88 55 ed	 mov	 BYTE PTR __k$[ebp+1], dl
  00037	8a 50 02	 mov	 dl, BYTE PTR [eax+2]
  0003a	84 d2		 test	 dl, dl
  0003c	0f 84 f6 00 00
	00		 je	 $LN94@LoadInt_e@2
  00042	80 f2 eb	 xor	 dl, -21			; ffffffebH
  00045	88 55 ee	 mov	 BYTE PTR __k$[ebp+2], dl
  00048	8a 50 03	 mov	 dl, BYTE PTR [eax+3]
  0004b	84 d2		 test	 dl, dl
  0004d	0f 84 df 00 00
	00		 je	 $LN93@LoadInt_e@2
  00053	80 f2 ea	 xor	 dl, -22			; ffffffeaH
  00056	88 55 ef	 mov	 BYTE PTR __k$[ebp+3], dl
  00059	8a 50 04	 mov	 dl, BYTE PTR [eax+4]
  0005c	84 d2		 test	 dl, dl
  0005e	0f 84 c8 00 00
	00		 je	 $LN92@LoadInt_e@2
  00064	80 f2 ed	 xor	 dl, -19			; ffffffedH
  00067	88 55 f0	 mov	 BYTE PTR __k$[ebp+4], dl
  0006a	8a 50 05	 mov	 dl, BYTE PTR [eax+5]
  0006d	84 d2		 test	 dl, dl
  0006f	0f 84 b1 00 00
	00		 je	 $LN91@LoadInt_e@2
  00075	80 f2 ec	 xor	 dl, -20			; ffffffecH
  00078	88 55 f1	 mov	 BYTE PTR __k$[ebp+5], dl
  0007b	8a 50 06	 mov	 dl, BYTE PTR [eax+6]
  0007e	84 d2		 test	 dl, dl
  00080	0f 84 9a 00 00
	00		 je	 $LN90@LoadInt_e@2
  00086	80 f2 eb	 xor	 dl, -21			; ffffffebH
  00089	88 55 f2	 mov	 BYTE PTR __k$[ebp+6], dl
  0008c	8a 50 07	 mov	 dl, BYTE PTR [eax+7]
  0008f	84 d2		 test	 dl, dl
  00091	0f 84 83 00 00
	00		 je	 $LN89@LoadInt_e@2
  00097	80 f2 ea	 xor	 dl, -22			; ffffffeaH
  0009a	88 55 f3	 mov	 BYTE PTR __k$[ebp+7], dl
  0009d	8a 50 08	 mov	 dl, BYTE PTR [eax+8]
  000a0	84 d2		 test	 dl, dl
  000a2	74 70		 je	 SHORT $LN88@LoadInt_e@2
  000a4	80 f2 ed	 xor	 dl, -19			; ffffffedH
  000a7	88 55 f4	 mov	 BYTE PTR __k$[ebp+8], dl
  000aa	8a 50 09	 mov	 dl, BYTE PTR [eax+9]
  000ad	84 d2		 test	 dl, dl
  000af	74 5d		 je	 SHORT $LN87@LoadInt_e@2
  000b1	80 f2 ec	 xor	 dl, -20			; ffffffecH
  000b4	80 78 0a 00	 cmp	 BYTE PTR [eax+10], 0
  000b8	88 55 f5	 mov	 BYTE PTR __k$[ebp+9], dl
  000bb	0f 84 87 00 00
	00		 je	 $LN1@LoadInt_e@2
  000c1	8a 50 0b	 mov	 dl, BYTE PTR [eax+11]
  000c4	84 d2		 test	 dl, dl
  000c6	74 40		 je	 SHORT $LN85@LoadInt_e@2
  000c8	80 f2 ea	 xor	 dl, -22			; ffffffeaH
  000cb	88 55 f7	 mov	 BYTE PTR __k$[ebp+11], dl
  000ce	8a 50 0c	 mov	 dl, BYTE PTR [eax+12]
  000d1	84 d2		 test	 dl, dl
  000d3	74 2d		 je	 SHORT $LN84@LoadInt_e@2
  000d5	80 f2 ed	 xor	 dl, -19			; ffffffedH
  000d8	88 55 f8	 mov	 BYTE PTR __k$[ebp+12], dl
  000db	8a 50 0d	 mov	 dl, BYTE PTR [eax+13]
  000de	84 d2		 test	 dl, dl
  000e0	74 1a		 je	 SHORT $LN83@LoadInt_e@2
  000e2	8a 40 0e	 mov	 al, BYTE PTR [eax+14]
  000e5	80 f2 ec	 xor	 dl, -20			; ffffffecH
  000e8	88 55 f9	 mov	 BYTE PTR __k$[ebp+13], dl
  000eb	84 c0		 test	 al, al
  000ed	74 07		 je	 SHORT $LN82@LoadInt_e@2
  000ef	34 eb		 xor	 al, -21			; ffffffebH
  000f1	88 45 fa	 mov	 BYTE PTR __k$[ebp+14], al
  000f4	eb 52		 jmp	 SHORT $LN1@LoadInt_e@2
$LN82@LoadInt_e@2:
  000f6	c6 45 fa eb	 mov	 BYTE PTR __k$[ebp+14], -21 ; ffffffebH
  000fa	eb 4c		 jmp	 SHORT $LN1@LoadInt_e@2
$LN83@LoadInt_e@2:
  000fc	c6 45 f9 ec	 mov	 BYTE PTR __k$[ebp+13], -20 ; ffffffecH
  00100	eb 46		 jmp	 SHORT $LN1@LoadInt_e@2
$LN84@LoadInt_e@2:
  00102	c6 45 f8 ed	 mov	 BYTE PTR __k$[ebp+12], -19 ; ffffffedH
  00106	eb 40		 jmp	 SHORT $LN1@LoadInt_e@2
$LN85@LoadInt_e@2:
  00108	c6 45 f7 ea	 mov	 BYTE PTR __k$[ebp+11], -22 ; ffffffeaH
  0010c	eb 3a		 jmp	 SHORT $LN1@LoadInt_e@2
$LN87@LoadInt_e@2:
  0010e	c6 45 f5 ec	 mov	 BYTE PTR __k$[ebp+9], -20 ; ffffffecH
  00112	eb 34		 jmp	 SHORT $LN1@LoadInt_e@2
$LN88@LoadInt_e@2:
  00114	c6 45 f4 ed	 mov	 BYTE PTR __k$[ebp+8], -19 ; ffffffedH
  00118	eb 2e		 jmp	 SHORT $LN1@LoadInt_e@2
$LN89@LoadInt_e@2:
  0011a	c6 45 f3 ea	 mov	 BYTE PTR __k$[ebp+7], -22 ; ffffffeaH
  0011e	eb 28		 jmp	 SHORT $LN1@LoadInt_e@2
$LN90@LoadInt_e@2:
  00120	c6 45 f2 eb	 mov	 BYTE PTR __k$[ebp+6], -21 ; ffffffebH
  00124	eb 22		 jmp	 SHORT $LN1@LoadInt_e@2
$LN91@LoadInt_e@2:
  00126	c6 45 f1 ec	 mov	 BYTE PTR __k$[ebp+5], -20 ; ffffffecH
  0012a	eb 1c		 jmp	 SHORT $LN1@LoadInt_e@2
$LN92@LoadInt_e@2:
  0012c	c6 45 f0 ed	 mov	 BYTE PTR __k$[ebp+4], -19 ; ffffffedH
  00130	eb 16		 jmp	 SHORT $LN1@LoadInt_e@2
$LN93@LoadInt_e@2:
  00132	c6 45 ef ea	 mov	 BYTE PTR __k$[ebp+3], -22 ; ffffffeaH
  00136	eb 10		 jmp	 SHORT $LN1@LoadInt_e@2
$LN94@LoadInt_e@2:
  00138	c6 45 ee eb	 mov	 BYTE PTR __k$[ebp+2], -21 ; ffffffebH
  0013c	eb 0a		 jmp	 SHORT $LN1@LoadInt_e@2
$LN95@LoadInt_e@2:
  0013e	c6 45 ed ec	 mov	 BYTE PTR __k$[ebp+1], -20 ; ffffffecH
  00142	eb 04		 jmp	 SHORT $LN1@LoadInt_e@2
$LN96@LoadInt_e@2:
  00144	c6 45 ec ed	 mov	 BYTE PTR __k$[ebp], -19	; ffffffedH
$LN1@LoadInt_e@2:
  00148	6a 02		 push	 2
  0014a	8d 45 ec	 lea	 eax, DWORD PTR __k$[ebp]
  0014d	c6 45 f6 00	 mov	 BYTE PTR __k$[ebp+10], 0
  00151	5a		 pop	 edx
$LL104@LoadInt_e@2:
  00152	81 30 ed ec eb
	ea		 xor	 DWORD PTR [eax], -353637139 ; eaebecedH
  00158	83 c0 04	 add	 eax, 4
  0015b	4a		 dec	 edx
  0015c	75 f4		 jne	 SHORT $LL104@LoadInt_e@2
  0015e	6a 08		 push	 8
  00160	58		 pop	 eax
$LL101@LoadInt_e@2:
  00161	8b c8		 mov	 ecx, eax
  00163	81 e1 03 00 00
	80		 and	 ecx, -2147483645	; 80000003H
  00169	79 05		 jns	 SHORT $LN111@LoadInt_e@2
  0016b	49		 dec	 ecx
  0016c	83 c9 fc	 or	 ecx, -4			; fffffffcH
  0016f	41		 inc	 ecx
$LN111@LoadInt_e@2:
  00170	b2 ed		 mov	 dl, -19			; ffffffedH
  00172	2a d1		 sub	 dl, cl
  00174	30 54 05 ec	 xor	 BYTE PTR __k$[ebp+eax], dl
  00178	40		 inc	 eax
  00179	83 f8 0a	 cmp	 eax, 10			; 0000000aH
  0017c	7c e3		 jl	 SHORT $LL101@LoadInt_e@2

; 120  : 		return LoadInt(_k, i);

  0017e	ff 75 0c	 push	 DWORD PTR _i$[ebp]
  00181	8d 45 ec	 lea	 eax, DWORD PTR __k$[ebp]
  00184	50		 push	 eax
  00185	8b ce		 mov	 ecx, esi
  00187	ff 15 00 00 00
	00		 call	 DWORD PTR __imp_?LoadInt@ioINILoader@@QAEHPBDH@Z

; 121  : 	}

  0018d	8b 4d fc	 mov	 ecx, DWORD PTR __$ArrayPad$[ebp]
  00190	33 cd		 xor	 ecx, ebp
  00192	5e		 pop	 esi
  00193	e8 00 00 00 00	 call	 @__security_check_cookie@4
  00198	c9		 leave
  00199	c2 08 00	 ret	 8
??$LoadInt_e@$0L@@ioINILoader@@QAEHAAY0L@$$CBDH@Z ENDP	; ioINILoader::LoadInt_e<11>
_TEXT	ENDS
PUBLIC	??$_Cons_val@V?$allocator@UCreateWeaponInfo@ioOwnerAttach4Dummy@@@std@@UCreateWeaponInfo@ioOwnerAttach4Dummy@@AAU34@@std@@YAXAAV?$allocator@UCreateWeaponInfo@ioOwnerAttach4Dummy@@@0@PAUCreateWeaponInfo@ioOwnerAttach4Dummy@@AAU23@@Z ; std::_Cons_val<std::allocator<ioOwnerAttach4Dummy::CreateWeaponInfo>,ioOwnerAttach4Dummy::CreateWeaponInfo,ioOwnerAttach4Dummy::CreateWeaponInfo &>
; Function compile flags: /Ogsp
; File c:\program files (x86)\microsoft visual studio 10.0\vc\include\xmemory
;	COMDAT ??$_Cons_val@V?$allocator@UCreateWeaponInfo@ioOwnerAttach4Dummy@@@std@@UCreateWeaponInfo@ioOwnerAttach4Dummy@@AAU34@@std@@YAXAAV?$allocator@UCreateWeaponInfo@ioOwnerAttach4Dummy@@@0@PAUCreateWeaponInfo@ioOwnerAttach4Dummy@@AAU23@@Z
_TEXT	SEGMENT
__Alval$ = 8						; size = 4
__Pdest$ = 12						; size = 4
__Src$ = 16						; size = 4
??$_Cons_val@V?$allocator@UCreateWeaponInfo@ioOwnerAttach4Dummy@@@std@@UCreateWeaponInfo@ioOwnerAttach4Dummy@@AAU34@@std@@YAXAAV?$allocator@UCreateWeaponInfo@ioOwnerAttach4Dummy@@@0@PAUCreateWeaponInfo@ioOwnerAttach4Dummy@@AAU23@@Z PROC ; std::_Cons_val<std::allocator<ioOwnerAttach4Dummy::CreateWeaponInfo>,ioOwnerAttach4Dummy::CreateWeaponInfo,ioOwnerAttach4Dummy::CreateWeaponInfo &>, COMDAT

; 279  : 	{	// construct using allocator

  00000	55		 push	 ebp
  00001	8b ec		 mov	 ebp, esp
  00003	57		 push	 edi

; 280  : 	_Alval.construct(_Pdest, _STD forward<_Ty2>(_Src));

  00004	8b 7d 0c	 mov	 edi, DWORD PTR __Pdest$[ebp]
  00007	85 ff		 test	 edi, edi
  00009	74 0a		 je	 SHORT $LN7@Cons_val
  0000b	56		 push	 esi
  0000c	8b 75 10	 mov	 esi, DWORD PTR __Src$[ebp]
  0000f	6a 09		 push	 9
  00011	59		 pop	 ecx
  00012	f3 a5		 rep movsd
  00014	5e		 pop	 esi
$LN7@Cons_val:
  00015	5f		 pop	 edi

; 281  : 	}

  00016	5d		 pop	 ebp
  00017	c3		 ret	 0
??$_Cons_val@V?$allocator@UCreateWeaponInfo@ioOwnerAttach4Dummy@@@std@@UCreateWeaponInfo@ioOwnerAttach4Dummy@@AAU34@@std@@YAXAAV?$allocator@UCreateWeaponInfo@ioOwnerAttach4Dummy@@@0@PAUCreateWeaponInfo@ioOwnerAttach4Dummy@@AAU23@@Z ENDP ; std::_Cons_val<std::allocator<ioOwnerAttach4Dummy::CreateWeaponInfo>,ioOwnerAttach4Dummy::CreateWeaponInfo,ioOwnerAttach4Dummy::CreateWeaponInfo &>
_TEXT	ENDS
PUBLIC	?construct@?$allocator@UCreateWeaponInfo@ioOwnerAttach4Dummy@@@std@@QAEXPAUCreateWeaponInfo@ioOwnerAttach4Dummy@@ABU34@@Z ; std::allocator<ioOwnerAttach4Dummy::CreateWeaponInfo>::construct
; Function compile flags: /Ogsp
;	COMDAT ?construct@?$allocator@UCreateWeaponInfo@ioOwnerAttach4Dummy@@@std@@QAEXPAUCreateWeaponInfo@ioOwnerAttach4Dummy@@ABU34@@Z
_TEXT	SEGMENT
__Ptr$ = 8						; size = 4
__Val$ = 12						; size = 4
?construct@?$allocator@UCreateWeaponInfo@ioOwnerAttach4Dummy@@@std@@QAEXPAUCreateWeaponInfo@ioOwnerAttach4Dummy@@ABU34@@Z PROC ; std::allocator<ioOwnerAttach4Dummy::CreateWeaponInfo>::construct, COMDAT
; _this$ = ecx

; 196  : 		{	// construct object at _Ptr with value _Val

  00000	55		 push	 ebp
  00001	8b ec		 mov	 ebp, esp
  00003	57		 push	 edi

; 197  : 		_Construct(_Ptr, _Val);

  00004	8b 7d 08	 mov	 edi, DWORD PTR __Ptr$[ebp]
  00007	85 ff		 test	 edi, edi
  00009	74 0a		 je	 SHORT $LN5@construct@2
  0000b	56		 push	 esi
  0000c	8b 75 0c	 mov	 esi, DWORD PTR __Val$[ebp]
  0000f	6a 09		 push	 9
  00011	59		 pop	 ecx
  00012	f3 a5		 rep movsd
  00014	5e		 pop	 esi
$LN5@construct@2:
  00015	5f		 pop	 edi

; 198  : 		}

  00016	5d		 pop	 ebp
  00017	c2 08 00	 ret	 8
?construct@?$allocator@UCreateWeaponInfo@ioOwnerAttach4Dummy@@@std@@QAEXPAUCreateWeaponInfo@ioOwnerAttach4Dummy@@ABU34@@Z ENDP ; std::allocator<ioOwnerAttach4Dummy::CreateWeaponInfo>::construct
_TEXT	ENDS
PUBLIC	??$_Move@PAUCreateWeaponInfo@ioOwnerAttach4Dummy@@PAU12@@std@@YAPAUCreateWeaponInfo@ioOwnerAttach4Dummy@@PAU12@00U_Nonscalar_ptr_iterator_tag@0@@Z ; std::_Move<ioOwnerAttach4Dummy::CreateWeaponInfo *,ioOwnerAttach4Dummy::CreateWeaponInfo *>
; Function compile flags: /Ogsp
; File c:\program files (x86)\microsoft visual studio 10.0\vc\include\xutility
;	COMDAT ??$_Move@PAUCreateWeaponInfo@ioOwnerAttach4Dummy@@PAU12@@std@@YAPAUCreateWeaponInfo@ioOwnerAttach4Dummy@@PAU12@00U_Nonscalar_ptr_iterator_tag@0@@Z
_TEXT	SEGMENT
__First$ = 8						; size = 4
__Last$ = 12						; size = 4
__Dest$ = 16						; size = 4
___formal$ = 20						; size = 1
??$_Move@PAUCreateWeaponInfo@ioOwnerAttach4Dummy@@PAU12@@std@@YAPAUCreateWeaponInfo@ioOwnerAttach4Dummy@@PAU12@00U_Nonscalar_ptr_iterator_tag@0@@Z PROC ; std::_Move<ioOwnerAttach4Dummy::CreateWeaponInfo *,ioOwnerAttach4Dummy::CreateWeaponInfo *>, COMDAT

; 2512 : 	{	// move [_First, _Last) to [_Dest, ...), arbitrary iterators

  00000	55		 push	 ebp
  00001	8b ec		 mov	 ebp, esp

; 2513 : 	for (; _First != _Last; ++_Dest, ++_First)

  00003	8b 45 08	 mov	 eax, DWORD PTR __First$[ebp]
  00006	3b 45 0c	 cmp	 eax, DWORD PTR __Last$[ebp]
  00009	74 1a		 je	 SHORT $LN10@Move
  0000b	56		 push	 esi
  0000c	57		 push	 edi
$LL3@Move:

; 2514 : 		*_Dest = _STD move(*_First);

  0000d	8b 7d 10	 mov	 edi, DWORD PTR __Dest$[ebp]
  00010	83 45 10 24	 add	 DWORD PTR __Dest$[ebp], 36 ; 00000024H
  00014	8b f0		 mov	 esi, eax
  00016	6a 09		 push	 9
  00018	83 c0 24	 add	 eax, 36			; 00000024H
  0001b	59		 pop	 ecx
  0001c	f3 a5		 rep movsd
  0001e	3b 45 0c	 cmp	 eax, DWORD PTR __Last$[ebp]
  00021	75 ea		 jne	 SHORT $LL3@Move
  00023	5f		 pop	 edi
  00024	5e		 pop	 esi
$LN10@Move:

; 2515 : 	return (_Dest);

  00025	8b 45 10	 mov	 eax, DWORD PTR __Dest$[ebp]

; 2516 : 	}

  00028	5d		 pop	 ebp
  00029	c3		 ret	 0
??$_Move@PAUCreateWeaponInfo@ioOwnerAttach4Dummy@@PAU12@@std@@YAPAUCreateWeaponInfo@ioOwnerAttach4Dummy@@PAU12@00U_Nonscalar_ptr_iterator_tag@0@@Z ENDP ; std::_Move<ioOwnerAttach4Dummy::CreateWeaponInfo *,ioOwnerAttach4Dummy::CreateWeaponInfo *>
_TEXT	ENDS
PUBLIC	?destroy@?$allocator@UCreateWeaponInfo@ioOwnerAttach4Dummy@@@std@@QAEXPAUCreateWeaponInfo@ioOwnerAttach4Dummy@@@Z ; std::allocator<ioOwnerAttach4Dummy::CreateWeaponInfo>::destroy
; Function compile flags: /Ogsp
; File c:\program files (x86)\microsoft visual studio 10.0\vc\include\xmemory
;	COMDAT ?destroy@?$allocator@UCreateWeaponInfo@ioOwnerAttach4Dummy@@@std@@QAEXPAUCreateWeaponInfo@ioOwnerAttach4Dummy@@@Z
_TEXT	SEGMENT
__Ptr$ = 8						; size = 4
?destroy@?$allocator@UCreateWeaponInfo@ioOwnerAttach4Dummy@@@std@@QAEXPAUCreateWeaponInfo@ioOwnerAttach4Dummy@@@Z PROC ; std::allocator<ioOwnerAttach4Dummy::CreateWeaponInfo>::destroy, COMDAT
; _this$ = ecx

; 213  : 		_Destroy(_Ptr);
; 214  : 		}

  00000	c2 04 00	 ret	 4
?destroy@?$allocator@UCreateWeaponInfo@ioOwnerAttach4Dummy@@@std@@QAEXPAUCreateWeaponInfo@ioOwnerAttach4Dummy@@@Z ENDP ; std::allocator<ioOwnerAttach4Dummy::CreateWeaponInfo>::destroy
_TEXT	ENDS
PUBLIC	?construct@?$allocator@UCreateWeaponInfo@ioOwnerAttach4Dummy@@@std@@QAEXPAUCreateWeaponInfo@ioOwnerAttach4Dummy@@$$QAU34@@Z ; std::allocator<ioOwnerAttach4Dummy::CreateWeaponInfo>::construct
; Function compile flags: /Ogsp
;	COMDAT ?construct@?$allocator@UCreateWeaponInfo@ioOwnerAttach4Dummy@@@std@@QAEXPAUCreateWeaponInfo@ioOwnerAttach4Dummy@@$$QAU34@@Z
_TEXT	SEGMENT
__Ptr$ = 8						; size = 4
__Val$ = 12						; size = 4
?construct@?$allocator@UCreateWeaponInfo@ioOwnerAttach4Dummy@@@std@@QAEXPAUCreateWeaponInfo@ioOwnerAttach4Dummy@@$$QAU34@@Z PROC ; std::allocator<ioOwnerAttach4Dummy::CreateWeaponInfo>::construct, COMDAT
; _this$ = ecx

; 201  : 		{	// construct object at _Ptr with value _Val

  00000	55		 push	 ebp
  00001	8b ec		 mov	 ebp, esp
  00003	57		 push	 edi

; 202  : 		::new ((void _FARQ *)_Ptr) _Ty(_STD forward<_Ty>(_Val));

  00004	8b 7d 08	 mov	 edi, DWORD PTR __Ptr$[ebp]
  00007	85 ff		 test	 edi, edi
  00009	74 0a		 je	 SHORT $LN3@construct@3
  0000b	56		 push	 esi
  0000c	8b 75 0c	 mov	 esi, DWORD PTR __Val$[ebp]
  0000f	6a 09		 push	 9
  00011	59		 pop	 ecx
  00012	f3 a5		 rep movsd
  00014	5e		 pop	 esi
$LN3@construct@3:
  00015	5f		 pop	 edi

; 203  : 		}

  00016	5d		 pop	 ebp
  00017	c2 08 00	 ret	 8
?construct@?$allocator@UCreateWeaponInfo@ioOwnerAttach4Dummy@@@std@@QAEXPAUCreateWeaponInfo@ioOwnerAttach4Dummy@@$$QAU34@@Z ENDP ; std::allocator<ioOwnerAttach4Dummy::CreateWeaponInfo>::construct
_TEXT	ENDS
PUBLIC	??B?$CEncrypt@M@@QAEMXZ				; CEncrypt<float>::operator float
; Function compile flags: /Ogsp
; File d:\lost saga for developer\youtube\tutorial\source\src\lsclient\encryptvalue.h
;	COMDAT ??B?$CEncrypt@M@@QAEMXZ
_TEXT	SEGMENT
_value$ = -4						; size = 4
??B?$CEncrypt@M@@QAEMXZ PROC				; CEncrypt<float>::operator float, COMDAT
; _this$ = ecx

; 134  : 	{

  00000	55		 push	 ebp
  00001	8b ec		 mov	 ebp, esp
  00003	51		 push	 ecx

; 135  : 		type value;
; 136  : 		DecryptValueToPool(&value);

  00004	8d 45 fc	 lea	 eax, DWORD PTR _value$[ebp]
  00007	50		 push	 eax
  00008	e8 00 00 00 00	 call	 ?DecryptValueToPool@?$CEncrypt@M@@QAEXPAM@Z ; CEncrypt<float>::DecryptValueToPool

; 137  : 
; 138  : #ifdef _NOTUSE
; 139  : 		Debug();
; 140  : #endif
; 141  : 		return value;

  0000d	d9 45 fc	 fld	 DWORD PTR _value$[ebp]

; 142  : 	}

  00010	c9		 leave
  00011	c3		 ret	 0
??B?$CEncrypt@M@@QAEMXZ ENDP				; CEncrypt<float>::operator float
_TEXT	ENDS
PUBLIC	??4?$CEncrypt@M@@QAEMM@Z			; CEncrypt<float>::operator=
; Function compile flags: /Ogsp
;	COMDAT ??4?$CEncrypt@M@@QAEMM@Z
_TEXT	SEGMENT
_value$ = 8						; size = 4
_inValue$ = 8						; size = 4
??4?$CEncrypt@M@@QAEMM@Z PROC				; CEncrypt<float>::operator=, COMDAT
; _this$ = ecx

; 1654 : 	{	

  00000	55		 push	 ebp
  00001	8b ec		 mov	 ebp, esp

; 1655 : 		type value = inValue;

  00003	d9 45 08	 fld	 DWORD PTR _inValue$[ebp]

; 1656 : 		EncryptValueToPool((char*)&value);

  00006	8d 45 08	 lea	 eax, DWORD PTR _value$[ebp]
  00009	50		 push	 eax
  0000a	d9 5d 08	 fstp	 DWORD PTR _value$[ebp]
  0000d	e8 00 00 00 00	 call	 ?EncryptValueToPool@?$CEncrypt@M@@AAEXPBD@Z ; CEncrypt<float>::EncryptValueToPool

; 1657 : #ifdef _NOTUSE
; 1658 : 		m_value = inValue;
; 1659 : 		Debug();
; 1660 : #endif
; 1661 : 		return value;

  00012	d9 45 08	 fld	 DWORD PTR _value$[ebp]

; 1662 : 	}

  00015	5d		 pop	 ebp
  00016	c2 04 00	 ret	 4
??4?$CEncrypt@M@@QAEMM@Z ENDP				; CEncrypt<float>::operator=
_TEXT	ENDS
PUBLIC	??Z?$CEncrypt@M@@QAEAAMABM@Z			; CEncrypt<float>::operator-=
; Function compile flags: /Ogsp
;	COMDAT ??Z?$CEncrypt@M@@QAEAAMABM@Z
_TEXT	SEGMENT
_value$ = -4						; size = 4
_inValue$ = 8						; size = 4
??Z?$CEncrypt@M@@QAEAAMABM@Z PROC			; CEncrypt<float>::operator-=, COMDAT
; _this$ = ecx

; 1728 : 	{

  00000	55		 push	 ebp
  00001	8b ec		 mov	 ebp, esp
  00003	51		 push	 ecx
  00004	56		 push	 esi

; 1729 : 		type value;
; 1730 : 		DecryptValueToPool(&value);

  00005	8d 45 fc	 lea	 eax, DWORD PTR _value$[ebp]
  00008	50		 push	 eax
  00009	8b f1		 mov	 esi, ecx
  0000b	e8 00 00 00 00	 call	 ?DecryptValueToPool@?$CEncrypt@M@@QAEXPAM@Z ; CEncrypt<float>::DecryptValueToPool

; 1731 : 		value -= inValue;

  00010	8b 45 08	 mov	 eax, DWORD PTR _inValue$[ebp]
  00013	f3 0f 10 45 fc	 movss	 xmm0, DWORD PTR _value$[ebp]
  00018	f3 0f 10 08	 movss	 xmm1, DWORD PTR [eax]
  0001c	0f 5a c0	 cvtps2pd xmm0, xmm0
  0001f	0f 5a c9	 cvtps2pd xmm1, xmm1

; 1732 : 		EncryptValueToPool((char*)&value);

  00022	8d 45 fc	 lea	 eax, DWORD PTR _value$[ebp]
  00025	f2 0f 5c c1	 subsd	 xmm0, xmm1
  00029	66 0f 5a c0	 cvtpd2ps xmm0, xmm0
  0002d	50		 push	 eax
  0002e	8b ce		 mov	 ecx, esi
  00030	f3 0f 11 45 fc	 movss	 DWORD PTR _value$[ebp], xmm0
  00035	e8 00 00 00 00	 call	 ?EncryptValueToPool@?$CEncrypt@M@@AAEXPBD@Z ; CEncrypt<float>::EncryptValueToPool

; 1733 : #ifdef _NOTUSE
; 1734 : 		m_value -= inValue;
; 1735 : 		Debug();
; 1736 : #endif
; 1737 : 		return value;

  0003a	8d 45 fc	 lea	 eax, DWORD PTR _value$[ebp]
  0003d	5e		 pop	 esi

; 1738 : 	} 

  0003e	c9		 leave
  0003f	c2 04 00	 ret	 4
??Z?$CEncrypt@M@@QAEAAMABM@Z ENDP			; CEncrypt<float>::operator-=
_TEXT	ENDS
PUBLIC	??B?$CEncrypt@_N@@QAE_NXZ			; CEncrypt<bool>::operator bool
; Function compile flags: /Ogsp
;	COMDAT ??B?$CEncrypt@_N@@QAE_NXZ
_TEXT	SEGMENT
_value$ = -1						; size = 1
??B?$CEncrypt@_N@@QAE_NXZ PROC				; CEncrypt<bool>::operator bool, COMDAT
; _this$ = ecx

; 134  : 	{

  00000	55		 push	 ebp
  00001	8b ec		 mov	 ebp, esp
  00003	51		 push	 ecx

; 135  : 		type value;
; 136  : 		DecryptValueToPool(&value);

  00004	8d 45 ff	 lea	 eax, DWORD PTR _value$[ebp]
  00007	50		 push	 eax
  00008	e8 00 00 00 00	 call	 ?DecryptValueToPool@?$CEncrypt@_N@@QAEXPA_N@Z ; CEncrypt<bool>::DecryptValueToPool

; 137  : 
; 138  : #ifdef _NOTUSE
; 139  : 		Debug();
; 140  : #endif
; 141  : 		return value;

  0000d	8a 45 ff	 mov	 al, BYTE PTR _value$[ebp]

; 142  : 	}

  00010	c9		 leave
  00011	c3		 ret	 0
??B?$CEncrypt@_N@@QAE_NXZ ENDP				; CEncrypt<bool>::operator bool
_TEXT	ENDS
PUBLIC	??B?$CEncrypt@_N@@QBE_NXZ			; CEncrypt<bool>::operator bool
; Function compile flags: /Ogsp
;	COMDAT ??B?$CEncrypt@_N@@QBE_NXZ
_TEXT	SEGMENT
_value$ = -1						; size = 1
??B?$CEncrypt@_N@@QBE_NXZ PROC				; CEncrypt<bool>::operator bool, COMDAT
; _this$ = ecx

; 145  : 	{

  00000	55		 push	 ebp
  00001	8b ec		 mov	 ebp, esp
  00003	51		 push	 ecx

; 146  : 		//UJ 130829, const    --start
; 147  : 		type value;
; 148  : 		CEncrypt<type>* pThis = const_cast<CEncrypt<type>*>(this);
; 149  : 		pThis->DecryptValueToPool(&value);

  00004	8d 45 ff	 lea	 eax, DWORD PTR _value$[ebp]
  00007	50		 push	 eax
  00008	e8 00 00 00 00	 call	 ?DecryptValueToPool@?$CEncrypt@_N@@QAEXPA_N@Z ; CEncrypt<bool>::DecryptValueToPool

; 150  : 		//// const DecryptValueToPool     .
; 151  :  		//type value;
; 152  : 		//char szTempMem[MAX_ENCRYPT];
; 153  : 		//m_RC5.DecryptByte( m_MemPool, szTempMem, max(m_ValueSize, DEFAULT_ENCRYPT) );
; 154  : 		//memcpy( &value, szTempMem, m_ValueSize );
; 155  : 		//UJ --end
; 156  : 
; 157  : #ifdef _NOTUSE
; 158  : 		Debug();
; 159  : #endif
; 160  : 		return value;

  0000d	8a 45 ff	 mov	 al, BYTE PTR _value$[ebp]

; 161  : 	}

  00010	c9		 leave
  00011	c3		 ret	 0
??B?$CEncrypt@_N@@QBE_NXZ ENDP				; CEncrypt<bool>::operator bool
_TEXT	ENDS
PUBLIC	?ProcessState@ioOwnerAttach4Dummy@@MAEXMK@Z	; ioOwnerAttach4Dummy::ProcessState
; Function compile flags: /Ogsp
; File d:\lost saga for developer\youtube\tutorial\source\src\lsclient\ioownerattach4dummy.cpp
;	COMDAT ?ProcessState@ioOwnerAttach4Dummy@@MAEXMK@Z
_TEXT	SEGMENT
_fTimePerSec$ = 8					; size = 4
_dwPreTime$ = 12					; size = 4
?ProcessState@ioOwnerAttach4Dummy@@MAEXMK@Z PROC	; ioOwnerAttach4Dummy::ProcessState, COMDAT
; _this$ = ecx

; 80   : {

  00000	55		 push	 ebp
  00001	8b ec		 mov	 ebp, esp

; 81   : 	switch( m_State )

  00003	8b 81 30 02 00
	00		 mov	 eax, DWORD PTR [ecx+560]
  00009	48		 dec	 eax
  0000a	74 30		 je	 SHORT $LN3@ProcessSta@2
  0000c	48		 dec	 eax
  0000d	74 18		 je	 SHORT $LN2@ProcessSta@2
  0000f	48		 dec	 eax
  00010	75 3a		 jne	 SHORT $LN4@ProcessSta@2

; 89   : 	case DCS_MOVE:
; 90   : 		ProcessMoveState( fTimePerSec );

  00012	f3 0f 10 45 08	 movss	 xmm0, DWORD PTR _fTimePerSec$[ebp]
  00017	8b 01		 mov	 eax, DWORD PTR [ecx]
  00019	51		 push	 ecx
  0001a	f3 0f 11 04 24	 movss	 DWORD PTR [esp], xmm0
  0001f	ff 90 04 01 00
	00		 call	 DWORD PTR [eax+260]

; 91   : 		break;

  00025	eb 25		 jmp	 SHORT $LN4@ProcessSta@2
$LN2@ProcessSta@2:

; 85   : 		break;
; 86   : 	case DCS_DELAY:
; 87   : 		ProcessDelayState( fTimePerSec );

  00027	f3 0f 10 45 08	 movss	 xmm0, DWORD PTR _fTimePerSec$[ebp]
  0002c	8b 01		 mov	 eax, DWORD PTR [ecx]
  0002e	51		 push	 ecx
  0002f	f3 0f 11 04 24	 movss	 DWORD PTR [esp], xmm0
  00034	ff 90 00 01 00
	00		 call	 DWORD PTR [eax+256]

; 88   : 		break;

  0003a	eb 10		 jmp	 SHORT $LN4@ProcessSta@2
$LN3@ProcessSta@2:

; 82   : 	{
; 83   : 	case DCS_START:
; 84   : 		ProcessStartState( fTimePerSec );

  0003c	f3 0f 10 45 08	 movss	 xmm0, DWORD PTR _fTimePerSec$[ebp]
  00041	51		 push	 ecx
  00042	f3 0f 11 04 24	 movss	 DWORD PTR [esp], xmm0
  00047	e8 00 00 00 00	 call	 ?ProcessStartState@ioOwnerAttach4Dummy@@IAEXM@Z ; ioOwnerAttach4Dummy::ProcessStartState
$LN4@ProcessSta@2:

; 92   : 	}
; 93   : }

  0004c	5d		 pop	 ebp
  0004d	c2 08 00	 ret	 8
?ProcessState@ioOwnerAttach4Dummy@@MAEXMK@Z ENDP	; ioOwnerAttach4Dummy::ProcessState
_TEXT	ENDS
PUBLIC	__mask@@AbsDouble@
PUBLIC	_fTimePerSec$GSCopy$
PUBLIC	__$ArrayPad$
PUBLIC	?DummyMove@ioOwnerAttach4Dummy@@IAEXM@Z		; ioOwnerAttach4Dummy::DummyMove
EXTRN	?ConvertDirToQuaternion@Help@@YA?AUD3DXQUATERNION@@ABUD3DXVECTOR3@@@Z:PROC ; Help::ConvertDirToQuaternion
;	COMDAT __mask@@AbsDouble@
; File c:\program files (x86)\microsoft directx sdk (june 2010)\include\d3dx9math.inl
CONST	SEGMENT
__mask@@AbsDouble@ DB 0ffH, 0ffH, 0ffH, 0ffH, 0ffH, 0ffH, 0ffH, 07fH, 0ffH
	DB	0ffH, 0ffH, 0ffH, 0ffH, 0ffH, 0ffH, 07fH
; Function compile flags: /Ogsp
; File d:\lost saga for developer\youtube\tutorial\source\src\lsclient\ioownerattach4dummy.cpp
CONST	ENDS
;	COMDAT ?DummyMove@ioOwnerAttach4Dummy@@IAEXM@Z
_TEXT	SEGMENT
_qtRot$ = -64						; size = 16
_value$554686 = -48					; size = 4
_fTimePerSec$GSCopy$ = -44				; size = 4
_vRot$ = -40						; size = 12
$T551875 = -28						; size = 12
$T551871 = -28						; size = 12
_vMoveDir$551873 = -16					; size = 12
_vOffsetPos$ = -16					; size = 12
__$ArrayPad$ = -4					; size = 4
_fTimePerSec$ = 8					; size = 4
?DummyMove@ioOwnerAttach4Dummy@@IAEXM@Z PROC		; ioOwnerAttach4Dummy::DummyMove, COMDAT
; _this$ = ecx

; 399  : {

  00000	55		 push	 ebp
  00001	8b ec		 mov	 ebp, esp
  00003	83 ec 40	 sub	 esp, 64			; 00000040H
  00006	a1 00 00 00 00	 mov	 eax, DWORD PTR ___security_cookie
  0000b	33 c5		 xor	 eax, ebp
  0000d	89 45 fc	 mov	 DWORD PTR __$ArrayPad$[ebp], eax
  00010	f3 0f 10 45 08	 movss	 xmm0, DWORD PTR _fTimePerSec$[ebp]
  00015	53		 push	 ebx
  00016	56		 push	 esi
  00017	8b d9		 mov	 ebx, ecx

; 400  : 	D3DXVECTOR3 vOffsetPos = GetWorldPosition();

  00019	8b 03		 mov	 eax, DWORD PTR [ebx]
  0001b	57		 push	 edi
  0001c	f3 0f 11 45 d4	 movss	 DWORD PTR _fTimePerSec$GSCopy$[ebp], xmm0
  00021	ff 50 70	 call	 DWORD PTR [eax+112]

; 401  : 	if ( m_bIsHead )

  00024	80 bb a8 14 00
	00 00		 cmp	 BYTE PTR [ebx+5288], 0
  0002b	8b f0		 mov	 esi, eax
  0002d	8d 7d f0	 lea	 edi, DWORD PTR _vOffsetPos$[ebp]
  00030	a5		 movsd
  00031	a5		 movsd
  00032	a5		 movsd

; 402  : 	{
; 403  : 		vOffsetPos.y -= m_fHeightOffset;

  00033	f3 0f 10 45 f4	 movss	 xmm0, DWORD PTR _vOffsetPos$[ebp+4]
  00038	74 16		 je	 SHORT $LN2@DummyMove
  0003a	f3 0f 10 8b 2c
	07 00 00	 movss	 xmm1, DWORD PTR [ebx+1836]
  00042	0f 5a c0	 cvtps2pd xmm0, xmm0
  00045	0f 5a c9	 cvtps2pd xmm1, xmm1
  00048	f2 0f 5c c1	 subsd	 xmm0, xmm1
  0004c	66 0f 5a c0	 cvtpd2ps xmm0, xmm0
$LN2@DummyMove:

; 404  : 	}
; 405  : 
; 406  : 	m_vMoveDir = m_vTargetPos - vOffsetPos;

  00050	f3 0f 10 8b 90
	14 00 00	 movss	 xmm1, DWORD PTR [ebx+5264]
  00058	f3 0f 10 55 f0	 movss	 xmm2, DWORD PTR _vOffsetPos$[ebp]
  0005d	0f 5a c9	 cvtps2pd xmm1, xmm1
  00060	f3 0f 5a c0	 cvtss2sd xmm0, xmm0
  00064	0f 5a d2	 cvtps2pd xmm2, xmm2
  00067	f2 0f 5c ca	 subsd	 xmm1, xmm2
  0006b	66 0f 5a c9	 cvtpd2ps xmm1, xmm1
  0006f	f3 0f 11 4d e4	 movss	 DWORD PTR $T551871[ebp], xmm1
  00074	f3 0f 10 8b 94
	14 00 00	 movss	 xmm1, DWORD PTR [ebx+5268]
  0007c	0f 5a c9	 cvtps2pd xmm1, xmm1
  0007f	f2 0f 5c c8	 subsd	 xmm1, xmm0
  00083	0f 57 c0	 xorps	 xmm0, xmm0
  00086	66 0f 5a c1	 cvtpd2ps xmm0, xmm1
  0008a	f3 0f 10 4d f8	 movss	 xmm1, DWORD PTR _vOffsetPos$[ebp+8]
  0008f	f3 0f 11 45 e8	 movss	 DWORD PTR $T551871[ebp+4], xmm0
  00094	f3 0f 10 83 98
	14 00 00	 movss	 xmm0, DWORD PTR [ebx+5272]
  0009c	0f 5a c0	 cvtps2pd xmm0, xmm0
  0009f	0f 5a c9	 cvtps2pd xmm1, xmm1
  000a2	f2 0f 5c c1	 subsd	 xmm0, xmm1
  000a6	66 0f 5a c0	 cvtpd2ps xmm0, xmm0
  000aa	f3 0f 11 45 ec	 movss	 DWORD PTR $T551871[ebp+8], xmm0
  000af	8d 83 9c 14 00
	00		 lea	 eax, DWORD PTR [ebx+5276]
  000b5	8d 75 e4	 lea	 esi, DWORD PTR $T551871[ebp]
  000b8	8b f8		 mov	 edi, eax
  000ba	a5		 movsd
  000bb	a5		 movsd
  000bc	a5		 movsd

; 407  : 
; 408  : 	if ( D3DXVec3Length( &m_vMoveDir ) > abs( m_fFrontOffset ) )

  000bd	f3 0f 10 40 04	 movss	 xmm0, DWORD PTR [eax+4]
  000c2	f3 0f 10 08	 movss	 xmm1, DWORD PTR [eax]
  000c6	f3 0f 10 50 08	 movss	 xmm2, DWORD PTR [eax+8]
  000cb	0f 5a c9	 cvtps2pd xmm1, xmm1
  000ce	0f 5a c0	 cvtps2pd xmm0, xmm0
  000d1	f2 0f 59 c9	 mulsd	 xmm1, xmm1
  000d5	f2 0f 59 c0	 mulsd	 xmm0, xmm0
  000d9	f2 0f 58 c8	 addsd	 xmm1, xmm0
  000dd	0f 57 c0	 xorps	 xmm0, xmm0
  000e0	0f 5a d2	 cvtps2pd xmm2, xmm2
  000e3	f2 0f 59 d2	 mulsd	 xmm2, xmm2
  000e7	f2 0f 58 ca	 addsd	 xmm1, xmm2
  000eb	66 0f 5a c1	 cvtpd2ps xmm0, xmm1
  000ef	f3 0f 10 8b 28
	07 00 00	 movss	 xmm1, DWORD PTR [ebx+1832]
  000f7	0f 5a c0	 cvtps2pd xmm0, xmm0
  000fa	0f 5a c9	 cvtps2pd xmm1, xmm1
  000fd	66 0f 54 0d 00
	00 00 00	 andpd	 xmm1, QWORD PTR __mask@@AbsDouble@
  00105	f2 0f 51 c0	 sqrtsd	 xmm0, xmm0
  00109	66 0f 5a c0	 cvtpd2ps xmm0, xmm0
  0010d	f2 0f 5a c9	 cvtsd2ss xmm1, xmm1
  00111	f3 0f 5a c0	 cvtss2sd xmm0, xmm0
  00115	f3 0f 5a c9	 cvtss2sd xmm1, xmm1
  00119	66 0f 2f c1	 comisd	 xmm0, xmm1
  0011d	0f 86 c9 00 00
	00		 jbe	 $LN1@DummyMove

; 409  : 	{
; 410  : 		D3DXVECTOR3 vMoveDir = ioMath::VEC3_ZERO;

  00123	8b 35 00 00 00
	00		 mov	 esi, DWORD PTR __imp_?VEC3_ZERO@ioMath@@2UD3DXVECTOR3@@A
  00129	8d 7d f0	 lea	 edi, DWORD PTR _vMoveDir$551873[ebp]
  0012c	a5		 movsd
  0012d	a5		 movsd

; 411  : 		D3DXVec3Normalize( &vMoveDir, &m_vMoveDir);

  0012e	50		 push	 eax
  0012f	8d 45 f0	 lea	 eax, DWORD PTR _vMoveDir$551873[ebp]
  00132	50		 push	 eax
  00133	a5		 movsd
  00134	e8 00 00 00 00	 call	 _D3DXVec3Normalize@8

; 412  : 		Translate( vMoveDir * m_fMoveSpeed * fTimePerSec );

  00139	8d 45 d0	 lea	 eax, DWORD PTR _value$554686[ebp]
  0013c	50		 push	 eax
  0013d	8d 8b d8 0b 00
	00		 lea	 ecx, DWORD PTR [ebx+3032]
  00143	e8 00 00 00 00	 call	 ?DecryptValueToPool@?$CEncrypt@M@@QAEXPAM@Z ; CEncrypt<float>::DecryptValueToPool
  00148	f3 0f 10 45 f0	 movss	 xmm0, DWORD PTR _vMoveDir$551873[ebp]
  0014d	f3 0f 10 4d d0	 movss	 xmm1, DWORD PTR _value$554686[ebp]
  00152	f3 0f 10 55 d0	 movss	 xmm2, DWORD PTR _value$554686[ebp]
  00157	f3 0f 10 5d d0	 movss	 xmm3, DWORD PTR _value$554686[ebp]
  0015c	0f 5a c0	 cvtps2pd xmm0, xmm0
  0015f	0f 5a c9	 cvtps2pd xmm1, xmm1
  00162	f2 0f 59 c1	 mulsd	 xmm0, xmm1
  00166	f3 0f 10 4d f4	 movss	 xmm1, DWORD PTR _vMoveDir$551873[ebp+4]
  0016b	8b 03		 mov	 eax, DWORD PTR [ebx]
  0016d	66 0f 5a c0	 cvtpd2ps xmm0, xmm0
  00171	0f 5a c9	 cvtps2pd xmm1, xmm1
  00174	0f 5a d2	 cvtps2pd xmm2, xmm2
  00177	f2 0f 59 ca	 mulsd	 xmm1, xmm2
  0017b	f3 0f 10 55 f8	 movss	 xmm2, DWORD PTR _vMoveDir$551873[ebp+8]
  00180	f3 0f 5a c0	 cvtss2sd xmm0, xmm0
  00184	0f 5a db	 cvtps2pd xmm3, xmm3
  00187	0f 5a d2	 cvtps2pd xmm2, xmm2
  0018a	f2 0f 59 d3	 mulsd	 xmm2, xmm3
  0018e	f3 0f 10 5d d4	 movss	 xmm3, DWORD PTR _fTimePerSec$GSCopy$[ebp]
  00193	66 0f 5a c9	 cvtpd2ps xmm1, xmm1
  00197	0f 5a db	 cvtps2pd xmm3, xmm3
  0019a	f2 0f 59 c3	 mulsd	 xmm0, xmm3
  0019e	66 0f 5a c0	 cvtpd2ps xmm0, xmm0
  001a2	f3 0f 11 45 e4	 movss	 DWORD PTR $T551875[ebp], xmm0
  001a7	0f 57 c0	 xorps	 xmm0, xmm0
  001aa	f3 0f 5a c1	 cvtss2sd xmm0, xmm1
  001ae	f3 0f 10 4d d4	 movss	 xmm1, DWORD PTR _fTimePerSec$GSCopy$[ebp]
  001b3	0f 5a c9	 cvtps2pd xmm1, xmm1
  001b6	f2 0f 59 c1	 mulsd	 xmm0, xmm1
  001ba	f3 0f 10 4d d4	 movss	 xmm1, DWORD PTR _fTimePerSec$GSCopy$[ebp]
  001bf	66 0f 5a c0	 cvtpd2ps xmm0, xmm0
  001c3	f3 0f 11 45 e8	 movss	 DWORD PTR $T551875[ebp+4], xmm0
  001c8	0f 57 c0	 xorps	 xmm0, xmm0
  001cb	66 0f 5a d2	 cvtpd2ps xmm2, xmm2
  001cf	f3 0f 5a c2	 cvtss2sd xmm0, xmm2
  001d3	8d 4d e4	 lea	 ecx, DWORD PTR $T551875[ebp]
  001d6	0f 5a c9	 cvtps2pd xmm1, xmm1
  001d9	f2 0f 59 c1	 mulsd	 xmm0, xmm1
  001dd	51		 push	 ecx
  001de	66 0f 5a c0	 cvtpd2ps xmm0, xmm0
  001e2	8b cb		 mov	 ecx, ebx
  001e4	f3 0f 11 45 ec	 movss	 DWORD PTR $T551875[ebp+8], xmm0
  001e9	ff 50 50	 call	 DWORD PTR [eax+80]
$LN1@DummyMove:

; 413  : 	}
; 414  : 
; 415  : 	D3DXVECTOR3 vRot = m_vMoveDir;
; 416  : 	vRot.y = 0.0f;

  001ec	0f 57 c0	 xorps	 xmm0, xmm0
  001ef	8d b3 9c 14 00
	00		 lea	 esi, DWORD PTR [ebx+5276]
  001f5	8d 7d d8	 lea	 edi, DWORD PTR _vRot$[ebp]
  001f8	a5		 movsd
  001f9	a5		 movsd

; 417  : 
; 418  : 	D3DXQUATERNION qtRot = Help::ConvertDirToQuaternion( vRot );

  001fa	8d 45 d8	 lea	 eax, DWORD PTR _vRot$[ebp]
  001fd	50		 push	 eax
  001fe	8d 45 c0	 lea	 eax, DWORD PTR _qtRot$[ebp]
  00201	a5		 movsd
  00202	50		 push	 eax
  00203	f3 0f 11 45 dc	 movss	 DWORD PTR _vRot$[ebp+4], xmm0
  00208	e8 00 00 00 00	 call	 ?ConvertDirToQuaternion@Help@@YA?AUD3DXQUATERNION@@ABUD3DXVECTOR3@@@Z ; Help::ConvertDirToQuaternion

; 419  : 	SetWorldOrientation( qtRot );

  0020d	8b 03		 mov	 eax, DWORD PTR [ebx]
  0020f	59		 pop	 ecx
  00210	59		 pop	 ecx
  00211	8d 4d c0	 lea	 ecx, DWORD PTR _qtRot$[ebp]
  00214	51		 push	 ecx
  00215	8b cb		 mov	 ecx, ebx
  00217	ff 50 48	 call	 DWORD PTR [eax+72]

; 420  : }

  0021a	8b 4d fc	 mov	 ecx, DWORD PTR __$ArrayPad$[ebp]
  0021d	5f		 pop	 edi
  0021e	5e		 pop	 esi
  0021f	33 cd		 xor	 ecx, ebp
  00221	5b		 pop	 ebx
  00222	e8 00 00 00 00	 call	 @__security_check_cookie@4
  00227	c9		 leave
  00228	c2 04 00	 ret	 4
?DummyMove@ioOwnerAttach4Dummy@@IAEXM@Z ENDP		; ioOwnerAttach4Dummy::DummyMove
_TEXT	ENDS
PUBLIC	??0?$vector@UCreateWeaponInfo@ioOwnerAttach4Dummy@@V?$allocator@UCreateWeaponInfo@ioOwnerAttach4Dummy@@@std@@@std@@QAE@XZ ; std::vector<ioOwnerAttach4Dummy::CreateWeaponInfo,std::allocator<ioOwnerAttach4Dummy::CreateWeaponInfo> >::vector<ioOwnerAttach4Dummy::CreateWeaponInfo,std::allocator<ioOwnerAttach4Dummy::CreateWeaponInfo> >
; Function compile flags: /Ogsp
; File c:\program files (x86)\microsoft visual studio 10.0\vc\include\vector
;	COMDAT ??0?$vector@UCreateWeaponInfo@ioOwnerAttach4Dummy@@V?$allocator@UCreateWeaponInfo@ioOwnerAttach4Dummy@@@std@@@std@@QAE@XZ
_TEXT	SEGMENT
??0?$vector@UCreateWeaponInfo@ioOwnerAttach4Dummy@@V?$allocator@UCreateWeaponInfo@ioOwnerAttach4Dummy@@@std@@@std@@QAE@XZ PROC ; std::vector<ioOwnerAttach4Dummy::CreateWeaponInfo,std::allocator<ioOwnerAttach4Dummy::CreateWeaponInfo> >::vector<ioOwnerAttach4Dummy::CreateWeaponInfo,std::allocator<ioOwnerAttach4Dummy::CreateWeaponInfo> >, COMDAT
; _this$ = ecx

; 507  : 		{	// construct empty vector

  00000	8b c1		 mov	 eax, ecx
  00002	33 c9		 xor	 ecx, ecx
  00004	89 08		 mov	 DWORD PTR [eax], ecx
  00006	89 48 04	 mov	 DWORD PTR [eax+4], ecx
  00009	89 48 08	 mov	 DWORD PTR [eax+8], ecx

; 508  : 		}

  0000c	c3		 ret	 0
??0?$vector@UCreateWeaponInfo@ioOwnerAttach4Dummy@@V?$allocator@UCreateWeaponInfo@ioOwnerAttach4Dummy@@@std@@@std@@QAE@XZ ENDP ; std::vector<ioOwnerAttach4Dummy::CreateWeaponInfo,std::allocator<ioOwnerAttach4Dummy::CreateWeaponInfo> >::vector<ioOwnerAttach4Dummy::CreateWeaponInfo,std::allocator<ioOwnerAttach4Dummy::CreateWeaponInfo> >
_TEXT	ENDS
PUBLIC	?begin@?$vector@UCreateWeaponInfo@ioOwnerAttach4Dummy@@V?$allocator@UCreateWeaponInfo@ioOwnerAttach4Dummy@@@std@@@std@@QAE?AV?$_Vector_iterator@V?$_Vector_val@UCreateWeaponInfo@ioOwnerAttach4Dummy@@V?$allocator@UCreateWeaponInfo@ioOwnerAttach4Dummy@@@std@@@std@@@2@XZ ; std::vector<ioOwnerAttach4Dummy::CreateWeaponInfo,std::allocator<ioOwnerAttach4Dummy::CreateWeaponInfo> >::begin
; Function compile flags: /Ogsp
;	COMDAT ?begin@?$vector@UCreateWeaponInfo@ioOwnerAttach4Dummy@@V?$allocator@UCreateWeaponInfo@ioOwnerAttach4Dummy@@@std@@@std@@QAE?AV?$_Vector_iterator@V?$_Vector_val@UCreateWeaponInfo@ioOwnerAttach4Dummy@@V?$allocator@UCreateWeaponInfo@ioOwnerAttach4Dummy@@@std@@@std@@@2@XZ
_TEXT	SEGMENT
___$ReturnUdt$ = 8					; size = 4
?begin@?$vector@UCreateWeaponInfo@ioOwnerAttach4Dummy@@V?$allocator@UCreateWeaponInfo@ioOwnerAttach4Dummy@@@std@@@std@@QAE?AV?$_Vector_iterator@V?$_Vector_val@UCreateWeaponInfo@ioOwnerAttach4Dummy@@V?$allocator@UCreateWeaponInfo@ioOwnerAttach4Dummy@@@std@@@std@@@2@XZ PROC ; std::vector<ioOwnerAttach4Dummy::CreateWeaponInfo,std::allocator<ioOwnerAttach4Dummy::CreateWeaponInfo> >::begin, COMDAT
; _this$ = ecx

; 781  : 		{	// return iterator for beginning of mutable sequence

  00000	55		 push	 ebp
  00001	8b ec		 mov	 ebp, esp

; 782  : 		return (iterator(this->_Myfirst, this));

  00003	8b 09		 mov	 ecx, DWORD PTR [ecx]
  00005	8b 45 08	 mov	 eax, DWORD PTR ___$ReturnUdt$[ebp]
  00008	89 08		 mov	 DWORD PTR [eax], ecx

; 783  : 		}

  0000a	5d		 pop	 ebp
  0000b	c2 04 00	 ret	 4
?begin@?$vector@UCreateWeaponInfo@ioOwnerAttach4Dummy@@V?$allocator@UCreateWeaponInfo@ioOwnerAttach4Dummy@@@std@@@std@@QAE?AV?$_Vector_iterator@V?$_Vector_val@UCreateWeaponInfo@ioOwnerAttach4Dummy@@V?$allocator@UCreateWeaponInfo@ioOwnerAttach4Dummy@@@std@@@std@@@2@XZ ENDP ; std::vector<ioOwnerAttach4Dummy::CreateWeaponInfo,std::allocator<ioOwnerAttach4Dummy::CreateWeaponInfo> >::begin
_TEXT	ENDS
PUBLIC	?end@?$vector@UCreateWeaponInfo@ioOwnerAttach4Dummy@@V?$allocator@UCreateWeaponInfo@ioOwnerAttach4Dummy@@@std@@@std@@QAE?AV?$_Vector_iterator@V?$_Vector_val@UCreateWeaponInfo@ioOwnerAttach4Dummy@@V?$allocator@UCreateWeaponInfo@ioOwnerAttach4Dummy@@@std@@@std@@@2@XZ ; std::vector<ioOwnerAttach4Dummy::CreateWeaponInfo,std::allocator<ioOwnerAttach4Dummy::CreateWeaponInfo> >::end
; Function compile flags: /Ogsp
;	COMDAT ?end@?$vector@UCreateWeaponInfo@ioOwnerAttach4Dummy@@V?$allocator@UCreateWeaponInfo@ioOwnerAttach4Dummy@@@std@@@std@@QAE?AV?$_Vector_iterator@V?$_Vector_val@UCreateWeaponInfo@ioOwnerAttach4Dummy@@V?$allocator@UCreateWeaponInfo@ioOwnerAttach4Dummy@@@std@@@std@@@2@XZ
_TEXT	SEGMENT
___$ReturnUdt$ = 8					; size = 4
?end@?$vector@UCreateWeaponInfo@ioOwnerAttach4Dummy@@V?$allocator@UCreateWeaponInfo@ioOwnerAttach4Dummy@@@std@@@std@@QAE?AV?$_Vector_iterator@V?$_Vector_val@UCreateWeaponInfo@ioOwnerAttach4Dummy@@V?$allocator@UCreateWeaponInfo@ioOwnerAttach4Dummy@@@std@@@std@@@2@XZ PROC ; std::vector<ioOwnerAttach4Dummy::CreateWeaponInfo,std::allocator<ioOwnerAttach4Dummy::CreateWeaponInfo> >::end, COMDAT
; _this$ = ecx

; 791  : 		{	// return iterator for end of mutable sequence

  00000	55		 push	 ebp
  00001	8b ec		 mov	 ebp, esp

; 792  : 		return (iterator(this->_Mylast, this));

  00003	8b 49 04	 mov	 ecx, DWORD PTR [ecx+4]
  00006	8b 45 08	 mov	 eax, DWORD PTR ___$ReturnUdt$[ebp]
  00009	89 08		 mov	 DWORD PTR [eax], ecx

; 793  : 		}

  0000b	5d		 pop	 ebp
  0000c	c2 04 00	 ret	 4
?end@?$vector@UCreateWeaponInfo@ioOwnerAttach4Dummy@@V?$allocator@UCreateWeaponInfo@ioOwnerAttach4Dummy@@@std@@@std@@QAE?AV?$_Vector_iterator@V?$_Vector_val@UCreateWeaponInfo@ioOwnerAttach4Dummy@@V?$allocator@UCreateWeaponInfo@ioOwnerAttach4Dummy@@@std@@@std@@@2@XZ ENDP ; std::vector<ioOwnerAttach4Dummy::CreateWeaponInfo,std::allocator<ioOwnerAttach4Dummy::CreateWeaponInfo> >::end
_TEXT	ENDS
PUBLIC	?_Make_iter@?$vector@UCreateWeaponInfo@ioOwnerAttach4Dummy@@V?$allocator@UCreateWeaponInfo@ioOwnerAttach4Dummy@@@std@@@std@@QBE?AV?$_Vector_iterator@V?$_Vector_val@UCreateWeaponInfo@ioOwnerAttach4Dummy@@V?$allocator@UCreateWeaponInfo@ioOwnerAttach4Dummy@@@std@@@std@@@2@V?$_Vector_const_iterator@V?$_Vector_val@UCreateWeaponInfo@ioOwnerAttach4Dummy@@V?$allocator@UCreateWeaponInfo@ioOwnerAttach4Dummy@@@std@@@std@@@2@@Z ; std::vector<ioOwnerAttach4Dummy::CreateWeaponInfo,std::allocator<ioOwnerAttach4Dummy::CreateWeaponInfo> >::_Make_iter
; Function compile flags: /Ogsp
;	COMDAT ?_Make_iter@?$vector@UCreateWeaponInfo@ioOwnerAttach4Dummy@@V?$allocator@UCreateWeaponInfo@ioOwnerAttach4Dummy@@@std@@@std@@QBE?AV?$_Vector_iterator@V?$_Vector_val@UCreateWeaponInfo@ioOwnerAttach4Dummy@@V?$allocator@UCreateWeaponInfo@ioOwnerAttach4Dummy@@@std@@@std@@@2@V?$_Vector_const_iterator@V?$_Vector_val@UCreateWeaponInfo@ioOwnerAttach4Dummy@@V?$allocator@UCreateWeaponInfo@ioOwnerAttach4Dummy@@@std@@@std@@@2@@Z
_TEXT	SEGMENT
___$ReturnUdt$ = 8					; size = 4
__Where$ = 12						; size = 4
?_Make_iter@?$vector@UCreateWeaponInfo@ioOwnerAttach4Dummy@@V?$allocator@UCreateWeaponInfo@ioOwnerAttach4Dummy@@@std@@@std@@QBE?AV?$_Vector_iterator@V?$_Vector_val@UCreateWeaponInfo@ioOwnerAttach4Dummy@@V?$allocator@UCreateWeaponInfo@ioOwnerAttach4Dummy@@@std@@@std@@@2@V?$_Vector_const_iterator@V?$_Vector_val@UCreateWeaponInfo@ioOwnerAttach4Dummy@@V?$allocator@UCreateWeaponInfo@ioOwnerAttach4Dummy@@@std@@@std@@@2@@Z PROC ; std::vector<ioOwnerAttach4Dummy::CreateWeaponInfo,std::allocator<ioOwnerAttach4Dummy::CreateWeaponInfo> >::_Make_iter, COMDAT
; _this$ = ecx

; 801  : 		{	// make iterator from const_iterator

  00000	55		 push	 ebp
  00001	8b ec		 mov	 ebp, esp

; 802  : 		return (iterator(_Where._Ptr, this));

  00003	8b 45 08	 mov	 eax, DWORD PTR ___$ReturnUdt$[ebp]
  00006	8b 4d 0c	 mov	 ecx, DWORD PTR __Where$[ebp]
  00009	89 08		 mov	 DWORD PTR [eax], ecx

; 803  : 		}

  0000b	5d		 pop	 ebp
  0000c	c2 08 00	 ret	 8
?_Make_iter@?$vector@UCreateWeaponInfo@ioOwnerAttach4Dummy@@V?$allocator@UCreateWeaponInfo@ioOwnerAttach4Dummy@@@std@@@std@@QBE?AV?$_Vector_iterator@V?$_Vector_val@UCreateWeaponInfo@ioOwnerAttach4Dummy@@V?$allocator@UCreateWeaponInfo@ioOwnerAttach4Dummy@@@std@@@std@@@2@V?$_Vector_const_iterator@V?$_Vector_val@UCreateWeaponInfo@ioOwnerAttach4Dummy@@V?$allocator@UCreateWeaponInfo@ioOwnerAttach4Dummy@@@std@@@std@@@2@@Z ENDP ; std::vector<ioOwnerAttach4Dummy::CreateWeaponInfo,std::allocator<ioOwnerAttach4Dummy::CreateWeaponInfo> >::_Make_iter
_TEXT	ENDS
PUBLIC	??9?$_Vector_const_iterator@V?$_Vector_val@UCreateWeaponInfo@ioOwnerAttach4Dummy@@V?$allocator@UCreateWeaponInfo@ioOwnerAttach4Dummy@@@std@@@std@@@std@@QBE_NABV01@@Z ; std::_Vector_const_iterator<std::_Vector_val<ioOwnerAttach4Dummy::CreateWeaponInfo,std::allocator<ioOwnerAttach4Dummy::CreateWeaponInfo> > >::operator!=
; Function compile flags: /Ogsp
;	COMDAT ??9?$_Vector_const_iterator@V?$_Vector_val@UCreateWeaponInfo@ioOwnerAttach4Dummy@@V?$allocator@UCreateWeaponInfo@ioOwnerAttach4Dummy@@@std@@@std@@@std@@QBE_NABV01@@Z
_TEXT	SEGMENT
__Right$ = 8						; size = 4
??9?$_Vector_const_iterator@V?$_Vector_val@UCreateWeaponInfo@ioOwnerAttach4Dummy@@V?$allocator@UCreateWeaponInfo@ioOwnerAttach4Dummy@@@std@@@std@@@std@@QBE_NABV01@@Z PROC ; std::_Vector_const_iterator<std::_Vector_val<ioOwnerAttach4Dummy::CreateWeaponInfo,std::allocator<ioOwnerAttach4Dummy::CreateWeaponInfo> > >::operator!=, COMDAT
; _this$ = ecx

; 207  : 		{	// test for iterator inequality

  00000	55		 push	 ebp
  00001	8b ec		 mov	 ebp, esp

; 208  : 		return (!(*this == _Right));

  00003	8b 01		 mov	 eax, DWORD PTR [ecx]
  00005	8b 55 08	 mov	 edx, DWORD PTR __Right$[ebp]
  00008	33 c9		 xor	 ecx, ecx
  0000a	3b 02		 cmp	 eax, DWORD PTR [edx]
  0000c	0f 95 c0	 setne	 al

; 209  : 		}

  0000f	5d		 pop	 ebp
  00010	c2 04 00	 ret	 4
??9?$_Vector_const_iterator@V?$_Vector_val@UCreateWeaponInfo@ioOwnerAttach4Dummy@@V?$allocator@UCreateWeaponInfo@ioOwnerAttach4Dummy@@@std@@@std@@@std@@QBE_NABV01@@Z ENDP ; std::_Vector_const_iterator<std::_Vector_val<ioOwnerAttach4Dummy::CreateWeaponInfo,std::allocator<ioOwnerAttach4Dummy::CreateWeaponInfo> > >::operator!=
_TEXT	ENDS
PUBLIC	??$_Cons_val@V?$allocator@UCreateWeaponInfo@ioOwnerAttach4Dummy@@@std@@UCreateWeaponInfo@ioOwnerAttach4Dummy@@ABU34@@std@@YAXAAV?$allocator@UCreateWeaponInfo@ioOwnerAttach4Dummy@@@0@PAUCreateWeaponInfo@ioOwnerAttach4Dummy@@ABU23@@Z ; std::_Cons_val<std::allocator<ioOwnerAttach4Dummy::CreateWeaponInfo>,ioOwnerAttach4Dummy::CreateWeaponInfo,ioOwnerAttach4Dummy::CreateWeaponInfo const &>
; Function compile flags: /Ogsp
; File c:\program files (x86)\microsoft visual studio 10.0\vc\include\xmemory
;	COMDAT ??$_Cons_val@V?$allocator@UCreateWeaponInfo@ioOwnerAttach4Dummy@@@std@@UCreateWeaponInfo@ioOwnerAttach4Dummy@@ABU34@@std@@YAXAAV?$allocator@UCreateWeaponInfo@ioOwnerAttach4Dummy@@@0@PAUCreateWeaponInfo@ioOwnerAttach4Dummy@@ABU23@@Z
_TEXT	SEGMENT
__Alval$ = 8						; size = 4
__Pdest$ = 12						; size = 4
__Src$ = 16						; size = 4
??$_Cons_val@V?$allocator@UCreateWeaponInfo@ioOwnerAttach4Dummy@@@std@@UCreateWeaponInfo@ioOwnerAttach4Dummy@@ABU34@@std@@YAXAAV?$allocator@UCreateWeaponInfo@ioOwnerAttach4Dummy@@@0@PAUCreateWeaponInfo@ioOwnerAttach4Dummy@@ABU23@@Z PROC ; std::_Cons_val<std::allocator<ioOwnerAttach4Dummy::CreateWeaponInfo>,ioOwnerAttach4Dummy::CreateWeaponInfo,ioOwnerAttach4Dummy::CreateWeaponInfo const &>, COMDAT

; 279  : 	{	// construct using allocator

  00000	55		 push	 ebp
  00001	8b ec		 mov	 ebp, esp
  00003	57		 push	 edi

; 280  : 	_Alval.construct(_Pdest, _STD forward<_Ty2>(_Src));

  00004	8b 7d 0c	 mov	 edi, DWORD PTR __Pdest$[ebp]
  00007	85 ff		 test	 edi, edi
  00009	74 0a		 je	 SHORT $LN9@Cons_val@2
  0000b	56		 push	 esi
  0000c	8b 75 10	 mov	 esi, DWORD PTR __Src$[ebp]
  0000f	6a 09		 push	 9
  00011	59		 pop	 ecx
  00012	f3 a5		 rep movsd
  00014	5e		 pop	 esi
$LN9@Cons_val@2:
  00015	5f		 pop	 edi

; 281  : 	}

  00016	5d		 pop	 ebp
  00017	c3		 ret	 0
??$_Cons_val@V?$allocator@UCreateWeaponInfo@ioOwnerAttach4Dummy@@@std@@UCreateWeaponInfo@ioOwnerAttach4Dummy@@ABU34@@std@@YAXAAV?$allocator@UCreateWeaponInfo@ioOwnerAttach4Dummy@@@0@PAUCreateWeaponInfo@ioOwnerAttach4Dummy@@ABU23@@Z ENDP ; std::_Cons_val<std::allocator<ioOwnerAttach4Dummy::CreateWeaponInfo>,ioOwnerAttach4Dummy::CreateWeaponInfo,ioOwnerAttach4Dummy::CreateWeaponInfo const &>
_TEXT	ENDS
PUBLIC	??$_Move@PAUCreateWeaponInfo@ioOwnerAttach4Dummy@@PAU12@@std@@YAPAUCreateWeaponInfo@ioOwnerAttach4Dummy@@PAU12@00@Z ; std::_Move<ioOwnerAttach4Dummy::CreateWeaponInfo *,ioOwnerAttach4Dummy::CreateWeaponInfo *>
; Function compile flags: /Ogsp
; File c:\program files (x86)\microsoft visual studio 10.0\vc\include\xutility
;	COMDAT ??$_Move@PAUCreateWeaponInfo@ioOwnerAttach4Dummy@@PAU12@@std@@YAPAUCreateWeaponInfo@ioOwnerAttach4Dummy@@PAU12@00@Z
_TEXT	SEGMENT
__Cat$554842 = -4					; size = 1
__First$ = 8						; size = 4
__Last$ = 12						; size = 4
__Dest$ = 16						; size = 4
??$_Move@PAUCreateWeaponInfo@ioOwnerAttach4Dummy@@PAU12@@std@@YAPAUCreateWeaponInfo@ioOwnerAttach4Dummy@@PAU12@00@Z PROC ; std::_Move<ioOwnerAttach4Dummy::CreateWeaponInfo *,ioOwnerAttach4Dummy::CreateWeaponInfo *>, COMDAT

; 2533 : 	{	// move [_First, _Last) to [_Dest, ...), unchecked

  00000	55		 push	 ebp
  00001	8b ec		 mov	 ebp, esp
  00003	51		 push	 ecx

; 2534 : 	return (_Move(_First, _Last,
; 2535 : 		_Dest, _Ptr_cat(_First, _Dest)));

  00004	ff 75 fc	 push	 DWORD PTR __Cat$554842[ebp]
  00007	ff 75 10	 push	 DWORD PTR __Dest$[ebp]
  0000a	ff 75 0c	 push	 DWORD PTR __Last$[ebp]
  0000d	ff 75 08	 push	 DWORD PTR __First$[ebp]
  00010	e8 00 00 00 00	 call	 ??$_Move@PAUCreateWeaponInfo@ioOwnerAttach4Dummy@@PAU12@@std@@YAPAUCreateWeaponInfo@ioOwnerAttach4Dummy@@PAU12@00U_Nonscalar_ptr_iterator_tag@0@@Z ; std::_Move<ioOwnerAttach4Dummy::CreateWeaponInfo *,ioOwnerAttach4Dummy::CreateWeaponInfo *>
  00015	83 c4 10	 add	 esp, 16			; 00000010H

; 2536 : 	}

  00018	c9		 leave
  00019	c3		 ret	 0
??$_Move@PAUCreateWeaponInfo@ioOwnerAttach4Dummy@@PAU12@@std@@YAPAUCreateWeaponInfo@ioOwnerAttach4Dummy@@PAU12@00@Z ENDP ; std::_Move<ioOwnerAttach4Dummy::CreateWeaponInfo *,ioOwnerAttach4Dummy::CreateWeaponInfo *>
_TEXT	ENDS
PUBLIC	??$_Dest_val@V?$allocator@UCreateWeaponInfo@ioOwnerAttach4Dummy@@@std@@UCreateWeaponInfo@ioOwnerAttach4Dummy@@@std@@YAXAAV?$allocator@UCreateWeaponInfo@ioOwnerAttach4Dummy@@@0@PAUCreateWeaponInfo@ioOwnerAttach4Dummy@@@Z ; std::_Dest_val<std::allocator<ioOwnerAttach4Dummy::CreateWeaponInfo>,ioOwnerAttach4Dummy::CreateWeaponInfo>
; Function compile flags: /Ogsp
; File c:\program files (x86)\microsoft visual studio 10.0\vc\include\xmemory
;	COMDAT ??$_Dest_val@V?$allocator@UCreateWeaponInfo@ioOwnerAttach4Dummy@@@std@@UCreateWeaponInfo@ioOwnerAttach4Dummy@@@std@@YAXAAV?$allocator@UCreateWeaponInfo@ioOwnerAttach4Dummy@@@0@PAUCreateWeaponInfo@ioOwnerAttach4Dummy@@@Z
_TEXT	SEGMENT
__Alval$ = 8						; size = 4
__Pdest$ = 12						; size = 4
??$_Dest_val@V?$allocator@UCreateWeaponInfo@ioOwnerAttach4Dummy@@@std@@UCreateWeaponInfo@ioOwnerAttach4Dummy@@@std@@YAXAAV?$allocator@UCreateWeaponInfo@ioOwnerAttach4Dummy@@@0@PAUCreateWeaponInfo@ioOwnerAttach4Dummy@@@Z PROC ; std::_Dest_val<std::allocator<ioOwnerAttach4Dummy::CreateWeaponInfo>,ioOwnerAttach4Dummy::CreateWeaponInfo>, COMDAT

; 287  : 	_Alval.destroy(_Pdest);
; 288  : 	}

  00000	c3		 ret	 0
??$_Dest_val@V?$allocator@UCreateWeaponInfo@ioOwnerAttach4Dummy@@@std@@UCreateWeaponInfo@ioOwnerAttach4Dummy@@@std@@YAXAAV?$allocator@UCreateWeaponInfo@ioOwnerAttach4Dummy@@@0@PAUCreateWeaponInfo@ioOwnerAttach4Dummy@@@Z ENDP ; std::_Dest_val<std::allocator<ioOwnerAttach4Dummy::CreateWeaponInfo>,ioOwnerAttach4Dummy::CreateWeaponInfo>
_TEXT	ENDS
PUBLIC	??$_Cons_val@V?$allocator@UCreateWeaponInfo@ioOwnerAttach4Dummy@@@std@@UCreateWeaponInfo@ioOwnerAttach4Dummy@@U34@@std@@YAXAAV?$allocator@UCreateWeaponInfo@ioOwnerAttach4Dummy@@@0@PAUCreateWeaponInfo@ioOwnerAttach4Dummy@@$$QAU23@@Z ; std::_Cons_val<std::allocator<ioOwnerAttach4Dummy::CreateWeaponInfo>,ioOwnerAttach4Dummy::CreateWeaponInfo,ioOwnerAttach4Dummy::CreateWeaponInfo>
; Function compile flags: /Ogsp
;	COMDAT ??$_Cons_val@V?$allocator@UCreateWeaponInfo@ioOwnerAttach4Dummy@@@std@@UCreateWeaponInfo@ioOwnerAttach4Dummy@@U34@@std@@YAXAAV?$allocator@UCreateWeaponInfo@ioOwnerAttach4Dummy@@@0@PAUCreateWeaponInfo@ioOwnerAttach4Dummy@@$$QAU23@@Z
_TEXT	SEGMENT
__Alval$ = 8						; size = 4
__Pdest$ = 12						; size = 4
__Src$ = 16						; size = 4
??$_Cons_val@V?$allocator@UCreateWeaponInfo@ioOwnerAttach4Dummy@@@std@@UCreateWeaponInfo@ioOwnerAttach4Dummy@@U34@@std@@YAXAAV?$allocator@UCreateWeaponInfo@ioOwnerAttach4Dummy@@@0@PAUCreateWeaponInfo@ioOwnerAttach4Dummy@@$$QAU23@@Z PROC ; std::_Cons_val<std::allocator<ioOwnerAttach4Dummy::CreateWeaponInfo>,ioOwnerAttach4Dummy::CreateWeaponInfo,ioOwnerAttach4Dummy::CreateWeaponInfo>, COMDAT

; 279  : 	{	// construct using allocator

  00000	55		 push	 ebp
  00001	8b ec		 mov	 ebp, esp
  00003	57		 push	 edi

; 280  : 	_Alval.construct(_Pdest, _STD forward<_Ty2>(_Src));

  00004	8b 7d 0c	 mov	 edi, DWORD PTR __Pdest$[ebp]
  00007	85 ff		 test	 edi, edi
  00009	74 0a		 je	 SHORT $LN7@Cons_val@3
  0000b	56		 push	 esi
  0000c	8b 75 10	 mov	 esi, DWORD PTR __Src$[ebp]
  0000f	6a 09		 push	 9
  00011	59		 pop	 ecx
  00012	f3 a5		 rep movsd
  00014	5e		 pop	 esi
$LN7@Cons_val@3:
  00015	5f		 pop	 edi

; 281  : 	}

  00016	5d		 pop	 ebp
  00017	c3		 ret	 0
??$_Cons_val@V?$allocator@UCreateWeaponInfo@ioOwnerAttach4Dummy@@@std@@UCreateWeaponInfo@ioOwnerAttach4Dummy@@U34@@std@@YAXAAV?$allocator@UCreateWeaponInfo@ioOwnerAttach4Dummy@@@0@PAUCreateWeaponInfo@ioOwnerAttach4Dummy@@$$QAU23@@Z ENDP ; std::_Cons_val<std::allocator<ioOwnerAttach4Dummy::CreateWeaponInfo>,ioOwnerAttach4Dummy::CreateWeaponInfo,ioOwnerAttach4Dummy::CreateWeaponInfo>
_TEXT	ENDS
PUBLIC	?IsNoWoundedWeapon@ioWeapon@@QBE_NXZ		; ioWeapon::IsNoWoundedWeapon
; Function compile flags: /Ogsp
; File d:\lost saga for developer\youtube\tutorial\source\src\lsclient\ioweapon.h
;	COMDAT ?IsNoWoundedWeapon@ioWeapon@@QBE_NXZ
_TEXT	SEGMENT
_value$554885 = -1					; size = 1
?IsNoWoundedWeapon@ioWeapon@@QBE_NXZ PROC		; ioWeapon::IsNoWoundedWeapon, COMDAT
; _this$ = ecx

; 552  : 	inline bool IsNoWoundedWeapon() const { return m_bNoWoundedWeapon; }

  00000	55		 push	 ebp
  00001	8b ec		 mov	 ebp, esp
  00003	51		 push	 ecx
  00004	8d 45 ff	 lea	 eax, DWORD PTR _value$554885[ebp]
  00007	50		 push	 eax
  00008	81 c1 a0 06 00
	00		 add	 ecx, 1696		; 000006a0H
  0000e	e8 00 00 00 00	 call	 ?DecryptValueToPool@?$CEncrypt@_N@@QAEXPA_N@Z ; CEncrypt<bool>::DecryptValueToPool
  00013	8a 45 ff	 mov	 al, BYTE PTR _value$554885[ebp]
  00016	c9		 leave
  00017	c3		 ret	 0
?IsNoWoundedWeapon@ioWeapon@@QBE_NXZ ENDP		; ioWeapon::IsNoWoundedWeapon
_TEXT	ENDS
PUBLIC	__$ArrayPad$
PUBLIC	?ProcessDelayState@ioOwnerAttach4Dummy@@MAEXM@Z	; ioOwnerAttach4Dummy::ProcessDelayState
EXTRN	??1SP2Packet@@UAE@XZ:PROC			; SP2Packet::~SP2Packet
EXTRN	?SendToAllPlayingUser@P2PNetwork@@YAXAAVSP2Packet@@PAVioBaseChar@@@Z:PROC ; P2PNetwork::SendToAllPlayingUser
EXTRN	??6SP2Packet@@QAEAAV0@H@Z:PROC			; SP2Packet::operator<<
EXTRN	??6SP2Packet@@QAEAAV0@ABVioHashString@@@Z:PROC	; SP2Packet::operator<<
EXTRN	??0SP2Packet@@QAE@K@Z:PROC			; SP2Packet::SP2Packet
EXTRN	?IsSettedDirection@ioBaseChar@@QBE_NXZ:PROC	; ioBaseChar::IsSettedDirection
EXTRN	__chkstk:PROC
;	COMDAT xdata$x
; File d:\lost saga for developer\youtube\tutorial\source\src\lsclient\ioownerattach4dummy.cpp
xdata$x	SEGMENT
__unwindtable$?ProcessDelayState@ioOwnerAttach4Dummy@@MAEXM@Z DD 0ffffffffH
	DD	FLAT:__unwindfunclet$?ProcessDelayState@ioOwnerAttach4Dummy@@MAEXM@Z$0
__ehfuncinfo$?ProcessDelayState@ioOwnerAttach4Dummy@@MAEXM@Z DD 019930522H
	DD	01H
	DD	FLAT:__unwindtable$?ProcessDelayState@ioOwnerAttach4Dummy@@MAEXM@Z
	DD	2 DUP(00H)
	DD	2 DUP(00H)
	DD	00H
	DD	01H
; Function compile flags: /Ogsp
xdata$x	ENDS
;	COMDAT ?ProcessDelayState@ioOwnerAttach4Dummy@@MAEXM@Z
_TEXT	SEGMENT
_kPacket$551739 = -32808				; size = 32792
__$ArrayPad$ = -16					; size = 4
__$EHRec$ = -12						; size = 12
_fTimePerSec$ = 8					; size = 4
?ProcessDelayState@ioOwnerAttach4Dummy@@MAEXM@Z PROC	; ioOwnerAttach4Dummy::ProcessDelayState, COMDAT
; _this$ = ecx

; 121  : {	

  00000	55		 push	 ebp
  00001	8b ec		 mov	 ebp, esp
  00003	6a ff		 push	 -1
  00005	68 00 00 00 00	 push	 __ehhandler$?ProcessDelayState@ioOwnerAttach4Dummy@@MAEXM@Z
  0000a	64 a1 00 00 00
	00		 mov	 eax, DWORD PTR fs:0
  00010	50		 push	 eax
  00011	b8 1c 80 00 00	 mov	 eax, 32796		; 0000801cH
  00016	e8 00 00 00 00	 call	 __chkstk
  0001b	a1 00 00 00 00	 mov	 eax, DWORD PTR ___security_cookie
  00020	33 c5		 xor	 eax, ebp
  00022	89 45 f0	 mov	 DWORD PTR __$ArrayPad$[ebp], eax
  00025	56		 push	 esi
  00026	57		 push	 edi
  00027	50		 push	 eax
  00028	8d 45 f4	 lea	 eax, DWORD PTR __$EHRec$[ebp]
  0002b	64 a3 00 00 00
	00		 mov	 DWORD PTR fs:0, eax
  00031	8b f1		 mov	 esi, ecx

; 122  : 	ioBaseChar *pOwner = GetOwner();

  00033	e8 00 00 00 00	 call	 ?GetOwner@ioDummyChar@@QBEPAVioBaseChar@@XZ ; ioDummyChar::GetOwner
  00038	8b f8		 mov	 edi, eax

; 123  : 
; 124  : 	if ( !pOwner )

  0003a	85 ff		 test	 edi, edi
  0003c	0f 84 d3 00 00
	00		 je	 $LN1@ProcessDel

; 125  : 		return;
; 126  : 
; 127  : 	// 
; 128  : 	if ( !CheckOwnerBuff() )

  00042	8b ce		 mov	 ecx, esi
  00044	e8 00 00 00 00	 call	 ?CheckOwnerBuff@ioOwnerAttach4Dummy@@IAE_NXZ ; ioOwnerAttach4Dummy::CheckOwnerBuff
  00049	84 c0		 test	 al, al
  0004b	75 11		 jne	 SHORT $LN5@ProcessDel

; 129  : 	{
; 130  : 		SetDieState(true);

  0004d	8b 06		 mov	 eax, DWORD PTR [esi]
  0004f	6a 01		 push	 1
  00051	8b ce		 mov	 ecx, esi
  00053	ff 90 60 01 00
	00		 call	 DWORD PTR [eax+352]

; 131  : 		return;

  00059	e9 b7 00 00 00	 jmp	 $LN1@ProcessDel
$LN5@ProcessDel:

; 132  : 	}
; 133  : 
; 134  : 	// 
; 135  : 	if ( !m_bSetDontMove )

  0005e	80 be bc 14 00
	00 00		 cmp	 BYTE PTR [esi+5308], 0
  00065	75 12		 jne	 SHORT $LN4@ProcessDel

; 136  : 	{
; 137  : 		DummyMove( fTimePerSec );

  00067	f3 0f 10 45 08	 movss	 xmm0, DWORD PTR _fTimePerSec$[ebp]
  0006c	51		 push	 ecx
  0006d	8b ce		 mov	 ecx, esi
  0006f	f3 0f 11 04 24	 movss	 DWORD PTR [esp], xmm0
  00074	e8 00 00 00 00	 call	 ?DummyMove@ioOwnerAttach4Dummy@@IAEXM@Z ; ioOwnerAttach4Dummy::DummyMove
$LN4@ProcessDel:

; 138  : 	}
; 139  : 
; 140  : 	// 
; 141  : 	FireWeapon();

  00079	8b ce		 mov	 ecx, esi
  0007b	e8 00 00 00 00	 call	 ?FireWeapon@ioOwnerAttach4Dummy@@IAEXXZ ; ioOwnerAttach4Dummy::FireWeapon

; 142  : 
; 143  : 	if ( pOwner->IsNeedProcess() )

  00080	8b 07		 mov	 eax, DWORD PTR [edi]
  00082	8b cf		 mov	 ecx, edi
  00084	ff 90 00 01 00
	00		 call	 DWORD PTR [eax+256]
  0008a	84 c0		 test	 al, al
  0008c	0f 84 83 00 00
	00		 je	 $LN1@ProcessDel

; 144  : 	{
; 145  : 		if ( pOwner->IsSettedDirection() )

  00092	8b cf		 mov	 ecx, edi
  00094	e8 00 00 00 00	 call	 ?IsSettedDirection@ioBaseChar@@QBE_NXZ ; ioBaseChar::IsSettedDirection
  00099	84 c0		 test	 al, al
  0009b	74 78		 je	 SHORT $LN1@ProcessDel

; 146  : 		{
; 147  : 			SetFollowState();

  0009d	8b ce		 mov	 ecx, esi
  0009f	e8 00 00 00 00	 call	 ?SetFollowState@ioOwnerAttach4Dummy@@IAEXXZ ; ioOwnerAttach4Dummy::SetFollowState

; 148  : 
; 149  : 			if ( pOwner->IsNeedSendNetwork() )

  000a4	8b 07		 mov	 eax, DWORD PTR [edi]
  000a6	8b cf		 mov	 ecx, edi
  000a8	ff 90 04 01 00
	00		 call	 DWORD PTR [eax+260]
  000ae	84 c0		 test	 al, al
  000b0	74 63		 je	 SHORT $LN1@ProcessDel

; 150  : 			{
; 151  : 				SP2Packet kPacket( CUPK_DUMMY_CHAR_SYNC );

  000b2	68 21 42 00 00	 push	 16929			; 00004221H
  000b7	8d 8d d8 7f ff
	ff		 lea	 ecx, DWORD PTR _kPacket$551739[ebp]
  000bd	e8 00 00 00 00	 call	 ??0SP2Packet@@QAE@K@Z	; SP2Packet::SP2Packet
  000c2	83 65 fc 00	 and	 DWORD PTR __$EHRec$[ebp+8], 0

; 152  : 				kPacket << m_OwnerName;

  000c6	8d 86 cc 01 00
	00		 lea	 eax, DWORD PTR [esi+460]
  000cc	50		 push	 eax
  000cd	8d 8d d8 7f ff
	ff		 lea	 ecx, DWORD PTR _kPacket$551739[ebp]
  000d3	e8 00 00 00 00	 call	 ??6SP2Packet@@QAEAAV0@ABVioHashString@@@Z ; SP2Packet::operator<<

; 153  : 				kPacket << m_iCreateIndex;

  000d8	ff b6 dc 01 00
	00		 push	 DWORD PTR [esi+476]
  000de	8d 8d d8 7f ff
	ff		 lea	 ecx, DWORD PTR _kPacket$551739[ebp]
  000e4	e8 00 00 00 00	 call	 ??6SP2Packet@@QAEAAV0@H@Z ; SP2Packet::operator<<

; 154  : 				kPacket << DCS_MOVE;

  000e9	6a 03		 push	 3
  000eb	8d 8d d8 7f ff
	ff		 lea	 ecx, DWORD PTR _kPacket$551739[ebp]
  000f1	e8 00 00 00 00	 call	 ??6SP2Packet@@QAEAAV0@H@Z ; SP2Packet::operator<<

; 155  : 				P2PNetwork::SendToAllPlayingUser( kPacket );

  000f6	8d 85 d8 7f ff
	ff		 lea	 eax, DWORD PTR _kPacket$551739[ebp]
  000fc	6a 00		 push	 0
  000fe	50		 push	 eax
  000ff	e8 00 00 00 00	 call	 ?SendToAllPlayingUser@P2PNetwork@@YAXAAVSP2Packet@@PAVioBaseChar@@@Z ; P2PNetwork::SendToAllPlayingUser

; 156  : 			}

  00104	83 4d fc ff	 or	 DWORD PTR __$EHRec$[ebp+8], -1
  00108	59		 pop	 ecx
  00109	59		 pop	 ecx
  0010a	8d 8d d8 7f ff
	ff		 lea	 ecx, DWORD PTR _kPacket$551739[ebp]
  00110	e8 00 00 00 00	 call	 ??1SP2Packet@@UAE@XZ	; SP2Packet::~SP2Packet
$LN1@ProcessDel:

; 157  : 		}
; 158  : 	}
; 159  : 	
; 160  : }

  00115	8b 4d f4	 mov	 ecx, DWORD PTR __$EHRec$[ebp]
  00118	64 89 0d 00 00
	00 00		 mov	 DWORD PTR fs:0, ecx
  0011f	59		 pop	 ecx
  00120	5f		 pop	 edi
  00121	5e		 pop	 esi
  00122	8b 4d f0	 mov	 ecx, DWORD PTR __$ArrayPad$[ebp]
  00125	33 cd		 xor	 ecx, ebp
  00127	e8 00 00 00 00	 call	 @__security_check_cookie@4
  0012c	c9		 leave
  0012d	c2 04 00	 ret	 4
_TEXT	ENDS
;	COMDAT text$x
text$x	SEGMENT
__unwindfunclet$?ProcessDelayState@ioOwnerAttach4Dummy@@MAEXM@Z$0:
  00000	8d 8d d8 7f ff
	ff		 lea	 ecx, DWORD PTR _kPacket$551739[ebp]
  00006	e9 00 00 00 00	 jmp	 ??1SP2Packet@@UAE@XZ	; SP2Packet::~SP2Packet
__ehhandler$?ProcessDelayState@ioOwnerAttach4Dummy@@MAEXM@Z:
  0000b	8b 54 24 08	 mov	 edx, DWORD PTR [esp+8]
  0000f	8d 42 0c	 lea	 eax, DWORD PTR [edx+12]
  00012	8b 8a d8 7f ff
	ff		 mov	 ecx, DWORD PTR [edx-32808]
  00018	33 c8		 xor	 ecx, eax
  0001a	e8 00 00 00 00	 call	 @__security_check_cookie@4
  0001f	8b 4a fc	 mov	 ecx, DWORD PTR [edx-4]
  00022	33 c8		 xor	 ecx, eax
  00024	e8 00 00 00 00	 call	 @__security_check_cookie@4
  00029	b8 00 00 00 00	 mov	 eax, OFFSET __ehfuncinfo$?ProcessDelayState@ioOwnerAttach4Dummy@@MAEXM@Z
  0002e	e9 00 00 00 00	 jmp	 ___CxxFrameHandler3
text$x	ENDS
?ProcessDelayState@ioOwnerAttach4Dummy@@MAEXM@Z ENDP	; ioOwnerAttach4Dummy::ProcessDelayState
PUBLIC	__$ArrayPad$
PUBLIC	?ProcessMoveState@ioOwnerAttach4Dummy@@MAEXM@Z	; ioOwnerAttach4Dummy::ProcessMoveState
;	COMDAT xdata$x
xdata$x	SEGMENT
__unwindtable$?ProcessMoveState@ioOwnerAttach4Dummy@@MAEXM@Z DD 0ffffffffH
	DD	FLAT:__unwindfunclet$?ProcessMoveState@ioOwnerAttach4Dummy@@MAEXM@Z$0
__ehfuncinfo$?ProcessMoveState@ioOwnerAttach4Dummy@@MAEXM@Z DD 019930522H
	DD	01H
	DD	FLAT:__unwindtable$?ProcessMoveState@ioOwnerAttach4Dummy@@MAEXM@Z
	DD	2 DUP(00H)
	DD	2 DUP(00H)
	DD	00H
	DD	01H
; Function compile flags: /Ogsp
xdata$x	ENDS
;	COMDAT ?ProcessMoveState@ioOwnerAttach4Dummy@@MAEXM@Z
_TEXT	SEGMENT
_kPacket$551751 = -32808				; size = 32792
__$ArrayPad$ = -16					; size = 4
__$EHRec$ = -12						; size = 12
_fTimePerSec$ = 8					; size = 4
?ProcessMoveState@ioOwnerAttach4Dummy@@MAEXM@Z PROC	; ioOwnerAttach4Dummy::ProcessMoveState, COMDAT
; _this$ = ecx

; 163  : {

  00000	55		 push	 ebp
  00001	8b ec		 mov	 ebp, esp
  00003	6a ff		 push	 -1
  00005	68 00 00 00 00	 push	 __ehhandler$?ProcessMoveState@ioOwnerAttach4Dummy@@MAEXM@Z
  0000a	64 a1 00 00 00
	00		 mov	 eax, DWORD PTR fs:0
  00010	50		 push	 eax
  00011	b8 1c 80 00 00	 mov	 eax, 32796		; 0000801cH
  00016	e8 00 00 00 00	 call	 __chkstk
  0001b	a1 00 00 00 00	 mov	 eax, DWORD PTR ___security_cookie
  00020	33 c5		 xor	 eax, ebp
  00022	89 45 f0	 mov	 DWORD PTR __$ArrayPad$[ebp], eax
  00025	56		 push	 esi
  00026	57		 push	 edi
  00027	50		 push	 eax
  00028	8d 45 f4	 lea	 eax, DWORD PTR __$EHRec$[ebp]
  0002b	64 a3 00 00 00
	00		 mov	 DWORD PTR fs:0, eax
  00031	8b f1		 mov	 esi, ecx

; 164  : 	ioBaseChar *pOwner = GetOwner();

  00033	e8 00 00 00 00	 call	 ?GetOwner@ioDummyChar@@QBEPAVioBaseChar@@XZ ; ioDummyChar::GetOwner
  00038	8b f8		 mov	 edi, eax

; 165  : 
; 166  : 	if( !pOwner )

  0003a	85 ff		 test	 edi, edi
  0003c	0f 84 d3 00 00
	00		 je	 $LN1@ProcessMov

; 167  : 		return;
; 168  : 
; 169  : 	// 
; 170  : 	if ( !CheckOwnerBuff() )

  00042	8b ce		 mov	 ecx, esi
  00044	e8 00 00 00 00	 call	 ?CheckOwnerBuff@ioOwnerAttach4Dummy@@IAE_NXZ ; ioOwnerAttach4Dummy::CheckOwnerBuff
  00049	84 c0		 test	 al, al
  0004b	75 11		 jne	 SHORT $LN5@ProcessMov

; 171  : 	{
; 172  : 		SetDieState(true);

  0004d	8b 06		 mov	 eax, DWORD PTR [esi]
  0004f	6a 01		 push	 1
  00051	8b ce		 mov	 ecx, esi
  00053	ff 90 60 01 00
	00		 call	 DWORD PTR [eax+352]

; 173  : 		return;

  00059	e9 b7 00 00 00	 jmp	 $LN1@ProcessMov
$LN5@ProcessMov:

; 174  : 	}
; 175  : 	
; 176  : 	// 
; 177  : 	if ( !m_bSetDontMove )

  0005e	80 be bc 14 00
	00 00		 cmp	 BYTE PTR [esi+5308], 0
  00065	75 12		 jne	 SHORT $LN4@ProcessMov

; 178  : 	{
; 179  : 		DummyMove( fTimePerSec );

  00067	f3 0f 10 45 08	 movss	 xmm0, DWORD PTR _fTimePerSec$[ebp]
  0006c	51		 push	 ecx
  0006d	8b ce		 mov	 ecx, esi
  0006f	f3 0f 11 04 24	 movss	 DWORD PTR [esp], xmm0
  00074	e8 00 00 00 00	 call	 ?DummyMove@ioOwnerAttach4Dummy@@IAEXM@Z ; ioOwnerAttach4Dummy::DummyMove
$LN4@ProcessMov:

; 180  : 	}
; 181  : 		
; 182  : 	// 
; 183  : 	FireWeapon();	

  00079	8b ce		 mov	 ecx, esi
  0007b	e8 00 00 00 00	 call	 ?FireWeapon@ioOwnerAttach4Dummy@@IAEXXZ ; ioOwnerAttach4Dummy::FireWeapon

; 184  : 
; 185  : 	if ( pOwner->IsNeedProcess() )

  00080	8b 07		 mov	 eax, DWORD PTR [edi]
  00082	8b cf		 mov	 ecx, edi
  00084	ff 90 00 01 00
	00		 call	 DWORD PTR [eax+256]
  0008a	84 c0		 test	 al, al
  0008c	0f 84 83 00 00
	00		 je	 $LN1@ProcessMov

; 186  : 	{
; 187  : 		if ( !pOwner->IsSettedDirection() )

  00092	8b cf		 mov	 ecx, edi
  00094	e8 00 00 00 00	 call	 ?IsSettedDirection@ioBaseChar@@QBE_NXZ ; ioBaseChar::IsSettedDirection
  00099	84 c0		 test	 al, al
  0009b	75 78		 jne	 SHORT $LN1@ProcessMov

; 188  : 		{
; 189  : 			SetDelayState();

  0009d	8b ce		 mov	 ecx, esi
  0009f	e8 00 00 00 00	 call	 ?SetDelayState@ioOwnerAttach4Dummy@@IAEXXZ ; ioOwnerAttach4Dummy::SetDelayState

; 190  : 
; 191  : 			if ( pOwner->IsNeedSendNetwork() )

  000a4	8b 07		 mov	 eax, DWORD PTR [edi]
  000a6	8b cf		 mov	 ecx, edi
  000a8	ff 90 04 01 00
	00		 call	 DWORD PTR [eax+260]
  000ae	84 c0		 test	 al, al
  000b0	74 63		 je	 SHORT $LN1@ProcessMov

; 192  : 			{
; 193  : 				SP2Packet kPacket( CUPK_DUMMY_CHAR_SYNC );

  000b2	68 21 42 00 00	 push	 16929			; 00004221H
  000b7	8d 8d d8 7f ff
	ff		 lea	 ecx, DWORD PTR _kPacket$551751[ebp]
  000bd	e8 00 00 00 00	 call	 ??0SP2Packet@@QAE@K@Z	; SP2Packet::SP2Packet
  000c2	83 65 fc 00	 and	 DWORD PTR __$EHRec$[ebp+8], 0

; 194  : 				kPacket << m_OwnerName;

  000c6	8d 86 cc 01 00
	00		 lea	 eax, DWORD PTR [esi+460]
  000cc	50		 push	 eax
  000cd	8d 8d d8 7f ff
	ff		 lea	 ecx, DWORD PTR _kPacket$551751[ebp]
  000d3	e8 00 00 00 00	 call	 ??6SP2Packet@@QAEAAV0@ABVioHashString@@@Z ; SP2Packet::operator<<

; 195  : 				kPacket << m_iCreateIndex;

  000d8	ff b6 dc 01 00
	00		 push	 DWORD PTR [esi+476]
  000de	8d 8d d8 7f ff
	ff		 lea	 ecx, DWORD PTR _kPacket$551751[ebp]
  000e4	e8 00 00 00 00	 call	 ??6SP2Packet@@QAEAAV0@H@Z ; SP2Packet::operator<<

; 196  : 				kPacket << DCS_DELAY;

  000e9	6a 02		 push	 2
  000eb	8d 8d d8 7f ff
	ff		 lea	 ecx, DWORD PTR _kPacket$551751[ebp]
  000f1	e8 00 00 00 00	 call	 ??6SP2Packet@@QAEAAV0@H@Z ; SP2Packet::operator<<

; 197  : 				P2PNetwork::SendToAllPlayingUser( kPacket );

  000f6	8d 85 d8 7f ff
	ff		 lea	 eax, DWORD PTR _kPacket$551751[ebp]
  000fc	6a 00		 push	 0
  000fe	50		 push	 eax
  000ff	e8 00 00 00 00	 call	 ?SendToAllPlayingUser@P2PNetwork@@YAXAAVSP2Packet@@PAVioBaseChar@@@Z ; P2PNetwork::SendToAllPlayingUser

; 198  : 			}

  00104	83 4d fc ff	 or	 DWORD PTR __$EHRec$[ebp+8], -1
  00108	59		 pop	 ecx
  00109	59		 pop	 ecx
  0010a	8d 8d d8 7f ff
	ff		 lea	 ecx, DWORD PTR _kPacket$551751[ebp]
  00110	e8 00 00 00 00	 call	 ??1SP2Packet@@UAE@XZ	; SP2Packet::~SP2Packet
$LN1@ProcessMov:

; 199  : 		}
; 200  : 	}
; 201  : }

  00115	8b 4d f4	 mov	 ecx, DWORD PTR __$EHRec$[ebp]
  00118	64 89 0d 00 00
	00 00		 mov	 DWORD PTR fs:0, ecx
  0011f	59		 pop	 ecx
  00120	5f		 pop	 edi
  00121	5e		 pop	 esi
  00122	8b 4d f0	 mov	 ecx, DWORD PTR __$ArrayPad$[ebp]
  00125	33 cd		 xor	 ecx, ebp
  00127	e8 00 00 00 00	 call	 @__security_check_cookie@4
  0012c	c9		 leave
  0012d	c2 04 00	 ret	 4
_TEXT	ENDS
;	COMDAT text$x
text$x	SEGMENT
__unwindfunclet$?ProcessMoveState@ioOwnerAttach4Dummy@@MAEXM@Z$0:
  00000	8d 8d d8 7f ff
	ff		 lea	 ecx, DWORD PTR _kPacket$551751[ebp]
  00006	e9 00 00 00 00	 jmp	 ??1SP2Packet@@UAE@XZ	; SP2Packet::~SP2Packet
__ehhandler$?ProcessMoveState@ioOwnerAttach4Dummy@@MAEXM@Z:
  0000b	8b 54 24 08	 mov	 edx, DWORD PTR [esp+8]
  0000f	8d 42 0c	 lea	 eax, DWORD PTR [edx+12]
  00012	8b 8a d8 7f ff
	ff		 mov	 ecx, DWORD PTR [edx-32808]
  00018	33 c8		 xor	 ecx, eax
  0001a	e8 00 00 00 00	 call	 @__security_check_cookie@4
  0001f	8b 4a fc	 mov	 ecx, DWORD PTR [edx-4]
  00022	33 c8		 xor	 ecx, eax
  00024	e8 00 00 00 00	 call	 @__security_check_cookie@4
  00029	b8 00 00 00 00	 mov	 eax, OFFSET __ehfuncinfo$?ProcessMoveState@ioOwnerAttach4Dummy@@MAEXM@Z
  0002e	e9 00 00 00 00	 jmp	 ___CxxFrameHandler3
text$x	ENDS
?ProcessMoveState@ioOwnerAttach4Dummy@@MAEXM@Z ENDP	; ioOwnerAttach4Dummy::ProcessMoveState
PUBLIC	??_C@_0CI@IACIOAIO@ioDummyChar?3?3ApplyWeapon?5?9?5?$CFs?5No@ ; `string'
PUBLIC	?ApplyWeapon@ioOwnerAttach4Dummy@@UAE?AW4ApplyWeaponExp@@PAVioWeapon@@@Z ; ioOwnerAttach4Dummy::ApplyWeapon
EXTRN	?CheckEntityCollision@ioDummyCharManager@@QAEXPAVioBaseChar@@PAVioPlayEntity@@H@Z:PROC ; ioDummyCharManager::CheckEntityCollision
EXTRN	?GetSingleton@ioDummyCharManager@@SAAAV1@XZ:PROC ; ioDummyCharManager::GetSingleton
EXTRN	__imp_?Clear@ioHashString@@QAEXXZ:PROC
EXTRN	?ClearAttackFireTimeAndSkill@ioBaseChar@@QAEXW4ClearAttackFireType@@@Z:PROC ; ioBaseChar::ClearAttackFireTimeAndSkill
EXTRN	?IsCurUsingSkill@ioBaseChar@@QAE_NVioHashString@@@Z:PROC ; ioBaseChar::IsCurUsingSkill
EXTRN	__imp_??0ioHashString@@QAE@ABV0@@Z:PROC
EXTRN	?SetActionStopDuration@ioWeapon@@QAEXKM@Z:PROC	; ioWeapon::SetActionStopDuration
EXTRN	?CalcActionStopDelay@ioBaseChar@@SAKM_N@Z:PROC	; ioBaseChar::CalcActionStopDelay
EXTRN	?GetActionStopLooseRate@ioBaseChar@@SAM_N@Z:PROC ; ioBaseChar::GetActionStopLooseRate
EXTRN	?SetActionStopDelay@ioBaseChar@@QAEXM_NH@Z:PROC	; ioBaseChar::SetActionStopDelay
EXTRN	?GetShakeCamera@ioWeapon@@QBEHXZ:PROC		; ioWeapon::GetShakeCamera
EXTRN	?SetDisableAttackEmoticon@ioBaseGUISupport@@QAEXXZ:PROC ; ioBaseGUISupport::SetDisableAttackEmoticon
EXTRN	?ReverseReflectPush@ioBaseChar@@QAEXABUD3DXVECTOR3@@M@Z:PROC ; ioBaseChar::ReverseReflectPush
EXTRN	?AddNewBuff@ioBaseChar@@QAEPAVioBuff@@ABVioHashString@@00PAVioSkill@@_N@Z:PROC ; ioBaseChar::AddNewBuff
EXTRN	?IgnoreBlock@ioBaseChar@@QAE_NXZ:PROC		; ioBaseChar::IgnoreBlock
EXTRN	?IsChangeJumpping@ioWeapon@@QAE_N_N0@Z:PROC	; ioWeapon::IsChangeJumpping
EXTRN	?IsEnableAttackCancelState@ioBaseChar@@QAE_NXZ:PROC ; ioBaseChar::IsEnableAttackCancelState
EXTRN	__imp_??4ioHashString@@QAEAAV0@ABV0@@Z:PROC
EXTRN	__imp_?PrintTimeAndLog@CLog@@QAAXHPADZZ:PROC
EXTRN	__imp_?LOG@@3VCLog@@A:BYTE
EXTRN	__imp_?c_str@ioHashString@@QBEPBDXZ:PROC
EXTRN	?GetOwner@ioWeapon@@QBEPAVioBaseChar@@XZ:PROC	; ioWeapon::GetOwner
EXTRN	__EH_epilog3_GS:PROC
EXTRN	__EH_prolog3_GS:PROC
;	COMDAT ??_C@_0CI@IACIOAIO@ioDummyChar?3?3ApplyWeapon?5?9?5?$CFs?5No@
; File d:\lost saga for developer\youtube\tutorial\source\src\lsclient\ioweapon.h
CONST	SEGMENT
??_C@_0CI@IACIOAIO@ioDummyChar?3?3ApplyWeapon?5?9?5?$CFs?5No@ DB 'ioDummy'
	DB	'Char::ApplyWeapon - %s Not Exist', 00H	; `string'
CONST	ENDS
;	COMDAT xdata$x
xdata$x	SEGMENT
__unwindtable$?ApplyWeapon@ioOwnerAttach4Dummy@@UAE?AW4ApplyWeaponExp@@PAVioWeapon@@@Z DD 0ffffffffH
	DD	FLAT:__unwindfunclet$?ApplyWeapon@ioOwnerAttach4Dummy@@UAE?AW4ApplyWeaponExp@@PAVioWeapon@@@Z$0
	DD	00H
	DD	FLAT:__unwindfunclet$?ApplyWeapon@ioOwnerAttach4Dummy@@UAE?AW4ApplyWeaponExp@@PAVioWeapon@@@Z$1
	DD	0ffffffffH
	DD	FLAT:__unwindfunclet$?ApplyWeapon@ioOwnerAttach4Dummy@@UAE?AW4ApplyWeaponExp@@PAVioWeapon@@@Z$2
__ehfuncinfo$?ApplyWeapon@ioOwnerAttach4Dummy@@UAE?AW4ApplyWeaponExp@@PAVioWeapon@@@Z DD 019930522H
	DD	03H
	DD	FLAT:__unwindtable$?ApplyWeapon@ioOwnerAttach4Dummy@@UAE?AW4ApplyWeaponExp@@PAVioWeapon@@@Z
	DD	2 DUP(00H)
	DD	2 DUP(00H)
	DD	00H
	DD	01H
; Function compile flags: /Ogsp
; File d:\lost saga for developer\youtube\tutorial\source\src\lsclient\ioownerattach4dummy.cpp
xdata$x	ENDS
;	COMDAT ?ApplyWeapon@ioOwnerAttach4Dummy@@UAE?AW4ApplyWeaponExp@@PAVioWeapon@@@Z
_TEXT	SEGMENT
$T554914 = -84						; size = 16
$T554915 = -68						; size = 16
_value$554987 = -52					; size = 4
_fDamage$ = -48						; size = 4
tv582 = -44						; size = 4
_value$554984 = -44					; size = 4
$T554917 = -44						; size = 4
_fPushPower$ = -44					; size = 4
_pAttacker$ = -40					; size = 4
tv593 = -36						; size = 4
tv589 = -36						; size = 4
tv585 = -36						; size = 4
_value$554954 = -36					; size = 4
_value$554941 = -36					; size = 4
_value$554950 = -29					; size = 1
_value$554946 = -29					; size = 1
_value$554933 = -29					; size = 1
_bStructWeapon$ = -29					; size = 1
_vAttackDir$ = -28					; size = 12
__$EHRec$ = -12						; size = 12
_pWeapon$ = 8						; size = 4
?ApplyWeapon@ioOwnerAttach4Dummy@@UAE?AW4ApplyWeaponExp@@PAVioWeapon@@@Z PROC ; ioOwnerAttach4Dummy::ApplyWeapon, COMDAT
; _this$ = ecx

; 252  : {

  00000	6a 48		 push	 72			; 00000048H
  00002	b8 00 00 00 00	 mov	 eax, __ehhandler$?ApplyWeapon@ioOwnerAttach4Dummy@@UAE?AW4ApplyWeaponExp@@PAVioWeapon@@@Z
  00007	e8 00 00 00 00	 call	 __EH_prolog3_GS
  0000c	8b 75 08	 mov	 esi, DWORD PTR _pWeapon$[ebp]
  0000f	8b f9		 mov	 edi, ecx

; 253  : 	ioBaseChar *pAttacker = pWeapon->GetOwner();

  00011	8b ce		 mov	 ecx, esi
  00013	e8 00 00 00 00	 call	 ?GetOwner@ioWeapon@@QBEPAVioBaseChar@@XZ ; ioWeapon::GetOwner
  00018	89 45 d8	 mov	 DWORD PTR _pAttacker$[ebp], eax

; 254  : 	if( !pAttacker )

  0001b	85 c0		 test	 eax, eax
  0001d	75 25		 jne	 SHORT $LN19@ApplyWeapo

; 255  : 	{
; 256  : 		LOG.PrintTimeAndLog( 0, "ioDummyChar::ApplyWeapon - %s Not Exist", pWeapon->GetOwnerName().c_str() );

  0001f	8d 4e 10	 lea	 ecx, DWORD PTR [esi+16]
  00022	ff 15 00 00 00
	00		 call	 DWORD PTR __imp_?c_str@ioHashString@@QBEPBDXZ
  00028	50		 push	 eax
  00029	68 00 00 00 00	 push	 OFFSET ??_C@_0CI@IACIOAIO@ioDummyChar?3?3ApplyWeapon?5?9?5?$CFs?5No@
  0002e	6a 00		 push	 0
  00030	ff 35 00 00 00
	00		 push	 DWORD PTR __imp_?LOG@@3VCLog@@A
  00036	ff 15 00 00 00
	00		 call	 DWORD PTR __imp_?PrintTimeAndLog@CLog@@QAAXHPADZZ
  0003c	83 c4 10	 add	 esp, 16			; 00000010H

; 257  : 		return AWE_EXPLOSION;

  0003f	e9 78 03 00 00	 jmp	 $LN68@ApplyWeapo
$LN19@ApplyWeapo:

; 258  : 	}
; 259  : 
; 260  : 	if( pWeapon->IsNoWoundedWeapon() )

  00044	8d 45 e3	 lea	 eax, DWORD PTR _value$554933[ebp]
  00047	8d 8e a0 06 00
	00		 lea	 ecx, DWORD PTR [esi+1696]
  0004d	50		 push	 eax
  0004e	e8 00 00 00 00	 call	 ?DecryptValueToPool@?$CEncrypt@_N@@QAEXPA_N@Z ; CEncrypt<bool>::DecryptValueToPool
  00053	80 7d e3 00	 cmp	 BYTE PTR _value$554933[ebp], 0
  00057	74 07		 je	 SHORT $LN18@ApplyWeapo

; 261  : 		return AWE_NO_EXPLOSION;

  00059	33 c0		 xor	 eax, eax
  0005b	e9 5f 03 00 00	 jmp	 $LN20@ApplyWeapo
$LN18@ApplyWeapo:

; 262  : 	
; 263  : 	m_LastAttacker = pWeapon->GetOwnerName();

  00060	8d 46 10	 lea	 eax, DWORD PTR [esi+16]
  00063	50		 push	 eax
  00064	8d 8f 30 05 00
	00		 lea	 ecx, DWORD PTR [edi+1328]
  0006a	ff 15 00 00 00
	00		 call	 DWORD PTR __imp_??4ioHashString@@QAEAAV0@ABV0@@Z

; 264  : 
; 265  : 	float fDamage = pWeapon->GetDamage( this ) * m_fDamageRate;

  00070	8d 45 dc	 lea	 eax, DWORD PTR _value$554941[ebp]
  00073	50		 push	 eax
  00074	8d 8f d0 04 00
	00		 lea	 ecx, DWORD PTR [edi+1232]
  0007a	e8 00 00 00 00	 call	 ?DecryptValueToPool@?$CEncrypt@M@@QAEXPAM@Z ; CEncrypt<float>::DecryptValueToPool
  0007f	8b 06		 mov	 eax, DWORD PTR [esi]
  00081	57		 push	 edi
  00082	8b ce		 mov	 ecx, esi
  00084	ff 90 d4 00 00
	00		 call	 DWORD PTR [eax+212]
  0008a	d8 4d dc	 fmul	 DWORD PTR _value$554941[ebp]

; 266  : 	float fPushPower = pWeapon->GetDefensePushPower( fDamage );

  0008d	8b 06		 mov	 eax, DWORD PTR [esi]
  0008f	51		 push	 ecx
  00090	d9 5d d0	 fstp	 DWORD PTR _fDamage$[ebp]
  00093	8b ce		 mov	 ecx, esi
  00095	f3 0f 10 45 d0	 movss	 xmm0, DWORD PTR _fDamage$[ebp]
  0009a	f3 0f 11 04 24	 movss	 DWORD PTR [esp], xmm0
  0009f	ff 90 88 00 00
	00		 call	 DWORD PTR [eax+136]
  000a5	d9 5d d4	 fstp	 DWORD PTR _fPushPower$[ebp]

; 267  : 
; 268  : 	if( !m_bNoDamage && !m_bPiercingProtected )

  000a8	8d 45 e3	 lea	 eax, DWORD PTR _value$554946[ebp]
  000ab	50		 push	 eax
  000ac	8d 8f 80 03 00
	00		 lea	 ecx, DWORD PTR [edi+896]
  000b2	e8 00 00 00 00	 call	 ?DecryptValueToPool@?$CEncrypt@_N@@QAEXPA_N@Z ; CEncrypt<bool>::DecryptValueToPool
  000b7	80 7d e3 00	 cmp	 BYTE PTR _value$554946[ebp], 0
  000bb	75 4e		 jne	 SHORT $LN39@ApplyWeapo
  000bd	8d 45 e3	 lea	 eax, DWORD PTR _value$554950[ebp]
  000c0	50		 push	 eax
  000c1	8d 8f 70 04 00
	00		 lea	 ecx, DWORD PTR [edi+1136]
  000c7	e8 00 00 00 00	 call	 ?DecryptValueToPool@?$CEncrypt@_N@@QAEXPA_N@Z ; CEncrypt<bool>::DecryptValueToPool
  000cc	80 7d e3 00	 cmp	 BYTE PTR _value$554950[ebp], 0
  000d0	75 39		 jne	 SHORT $LN39@ApplyWeapo

; 269  : 		m_HP.m_fCurValue -= fDamage;

  000d2	8d 45 dc	 lea	 eax, DWORD PTR _value$554954[ebp]
  000d5	8d 9f c0 00 00
	00		 lea	 ebx, DWORD PTR [edi+192]
  000db	50		 push	 eax
  000dc	8b cb		 mov	 ecx, ebx
  000de	e8 00 00 00 00	 call	 ?DecryptValueToPool@?$CEncrypt@M@@QAEXPAM@Z ; CEncrypt<float>::DecryptValueToPool
  000e3	f3 0f 10 45 dc	 movss	 xmm0, DWORD PTR _value$554954[ebp]
  000e8	f3 0f 10 4d d0	 movss	 xmm1, DWORD PTR _fDamage$[ebp]
  000ed	0f 5a c0	 cvtps2pd xmm0, xmm0
  000f0	0f 5a c9	 cvtps2pd xmm1, xmm1
  000f3	8d 45 dc	 lea	 eax, DWORD PTR _value$554954[ebp]
  000f6	f2 0f 5c c1	 subsd	 xmm0, xmm1
  000fa	66 0f 5a c0	 cvtpd2ps xmm0, xmm0
  000fe	50		 push	 eax
  000ff	8b cb		 mov	 ecx, ebx
  00101	f3 0f 11 45 dc	 movss	 DWORD PTR _value$554954[ebp], xmm0
  00106	e8 00 00 00 00	 call	 ?EncryptValueToPool@?$CEncrypt@M@@AAEXPBD@Z ; CEncrypt<float>::EncryptValueToPool
$LN39@ApplyWeapo:

; 270  : 	AddHeadDamageInfo( (int)fDamage );

  0010b	f3 0f 2c 4d d0	 cvttss2si ecx, DWORD PTR _fDamage$[ebp]
  00110	8b 07		 mov	 eax, DWORD PTR [edi]
  00112	6a 00		 push	 0
  00114	51		 push	 ecx
  00115	8b cf		 mov	 ecx, edi
  00117	ff 90 d0 00 00
	00		 call	 DWORD PTR [eax+208]

; 271  : 
; 272  : 	bool bContactType = false;
; 273  : 	if( pWeapon->GetType() == ioWeapon::WT_CONTACT ||
; 274  : 		pWeapon->GetType() == ioWeapon::WT_RUN_CONTACT ||
; 275  : 		pWeapon->GetType() == ioWeapon::WT_CONTACT2 )

  0011d	8b 06		 mov	 eax, DWORD PTR [esi]
  0011f	8b ce		 mov	 ecx, esi
  00121	32 db		 xor	 bl, bl
  00123	ff 90 10 01 00
	00		 call	 DWORD PTR [eax+272]
  00129	83 f8 01	 cmp	 eax, 1
  0012c	74 1e		 je	 SHORT $LN15@ApplyWeapo
  0012e	8b 06		 mov	 eax, DWORD PTR [esi]
  00130	8b ce		 mov	 ecx, esi
  00132	ff 90 10 01 00
	00		 call	 DWORD PTR [eax+272]
  00138	83 f8 1e	 cmp	 eax, 30			; 0000001eH
  0013b	74 0f		 je	 SHORT $LN15@ApplyWeapo
  0013d	8b 06		 mov	 eax, DWORD PTR [esi]
  0013f	8b ce		 mov	 ecx, esi
  00141	ff 90 10 01 00
	00		 call	 DWORD PTR [eax+272]
  00147	83 f8 2b	 cmp	 eax, 43			; 0000002bH
  0014a	75 02		 jne	 SHORT $LN16@ApplyWeapo
$LN15@ApplyWeapo:

; 276  : 		bContactType = true;

  0014c	b3 01		 mov	 bl, 1
$LN16@ApplyWeapo:

; 277  : 
; 278  : 	bool bStructWeapon = false;
; 279  : 	if( pWeapon->CheckWeaponByStruct() || pWeapon->CheckWeaponByDummyChar() )

  0014e	80 be 8c 05 00
	00 00		 cmp	 BYTE PTR [esi+1420], 0
  00155	c6 45 e3 00	 mov	 BYTE PTR _bStructWeapon$[ebp], 0
  00159	75 09		 jne	 SHORT $LN13@ApplyWeapo
  0015b	80 be 9c 05 00
	00 00		 cmp	 BYTE PTR [esi+1436], 0
  00162	74 04		 je	 SHORT $LN14@ApplyWeapo
$LN13@ApplyWeapo:

; 280  : 		bStructWeapon = true;

  00164	c6 45 e3 01	 mov	 BYTE PTR _bStructWeapon$[ebp], 1
$LN14@ApplyWeapo:

; 281  : 
; 282  : 	D3DXVECTOR3 vAttackDir = pWeapon->GetAttackDir(this);

  00168	8b 06		 mov	 eax, DWORD PTR [esi]
  0016a	57		 push	 edi
  0016b	8d 4d e4	 lea	 ecx, DWORD PTR _vAttackDir$[ebp]
  0016e	51		 push	 ecx
  0016f	8b ce		 mov	 ecx, esi
  00171	ff 90 fc 00 00
	00		 call	 DWORD PTR [eax+252]

; 283  : 
; 284  : 	if( bContactType && !bStructWeapon && !pWeapon->CheckWeaponBySkill() && !m_BlockBuff.IsEmpty() )

  00177	84 db		 test	 bl, bl
  00179	0f 84 00 01 00
	00		 je	 $LN11@ApplyWeapo
  0017f	80 7d e3 00	 cmp	 BYTE PTR _bStructWeapon$[ebp], 0
  00183	0f 85 f6 00 00
	00		 jne	 $LN11@ApplyWeapo
  00189	80 be 7e 05 00
	00 00		 cmp	 BYTE PTR [esi+1406], 0
  00190	0f 85 e9 00 00
	00		 jne	 $LN11@ApplyWeapo
  00196	8d 8f b0 02 00
	00		 lea	 ecx, DWORD PTR [edi+688]
  0019c	ff 15 00 00 00
	00		 call	 DWORD PTR __imp_?IsEmpty@ioHashString@@QBE_NXZ
  001a2	84 c0		 test	 al, al
  001a4	0f 85 d5 00 00
	00		 jne	 $LN11@ApplyWeapo

; 285  : 	{
; 286  : 		if( pAttacker->IsEnableAttackCancelState() && !pWeapon->IsChangeJumpping( false, false )
; 287  : 			&& !pAttacker->IgnoreBlock() )

  001aa	8b 4d d8	 mov	 ecx, DWORD PTR _pAttacker$[ebp]
  001ad	e8 00 00 00 00	 call	 ?IsEnableAttackCancelState@ioBaseChar@@QAE_NXZ ; ioBaseChar::IsEnableAttackCancelState
  001b2	84 c0		 test	 al, al
  001b4	0f 84 c5 00 00
	00		 je	 $LN11@ApplyWeapo
  001ba	6a 00		 push	 0
  001bc	6a 00		 push	 0
  001be	8b ce		 mov	 ecx, esi
  001c0	e8 00 00 00 00	 call	 ?IsChangeJumpping@ioWeapon@@QAE_N_N0@Z ; ioWeapon::IsChangeJumpping
  001c5	84 c0		 test	 al, al
  001c7	0f 85 b2 00 00
	00		 jne	 $LN11@ApplyWeapo
  001cd	8b 4d d8	 mov	 ecx, DWORD PTR _pAttacker$[ebp]
  001d0	e8 00 00 00 00	 call	 ?IgnoreBlock@ioBaseChar@@QAE_NXZ ; ioBaseChar::IgnoreBlock
  001d5	84 c0		 test	 al, al
  001d7	0f 85 a2 00 00
	00		 jne	 $LN11@ApplyWeapo

; 288  : 		{
; 289  : 			pAttacker->AddNewBuff( m_BlockBuff, "", "", NULL );

  001dd	8b 1d 00 00 00
	00		 mov	 ebx, DWORD PTR __imp_??0ioHashString@@QAE@PBD@Z
  001e3	68 00 00 00 00	 push	 OFFSET ??_C@_00CNPNBAHC@?$AA@
  001e8	8d 4d ac	 lea	 ecx, DWORD PTR $T554914[ebp]
  001eb	ff d3		 call	 ebx
  001ed	83 65 fc 00	 and	 DWORD PTR __$EHRec$[ebp+8], 0
  001f1	68 00 00 00 00	 push	 OFFSET ??_C@_00CNPNBAHC@?$AA@
  001f6	8d 4d bc	 lea	 ecx, DWORD PTR $T554915[ebp]
  001f9	ff d3		 call	 ebx
  001fb	8b 4d d8	 mov	 ecx, DWORD PTR _pAttacker$[ebp]
  001fe	6a 00		 push	 0
  00200	6a 00		 push	 0
  00202	8d 45 ac	 lea	 eax, DWORD PTR $T554914[ebp]
  00205	50		 push	 eax
  00206	8d 45 bc	 lea	 eax, DWORD PTR $T554915[ebp]
  00209	50		 push	 eax
  0020a	8d 87 b0 02 00
	00		 lea	 eax, DWORD PTR [edi+688]
  00210	50		 push	 eax
  00211	c6 45 fc 01	 mov	 BYTE PTR __$EHRec$[ebp+8], 1
  00215	e8 00 00 00 00	 call	 ?AddNewBuff@ioBaseChar@@QAEPAVioBuff@@ABVioHashString@@00PAVioSkill@@_N@Z ; ioBaseChar::AddNewBuff
  0021a	8b 1d 00 00 00
	00		 mov	 ebx, DWORD PTR __imp_??1ioHashString@@QAE@XZ
  00220	8d 4d bc	 lea	 ecx, DWORD PTR $T554915[ebp]
  00223	c6 45 fc 00	 mov	 BYTE PTR __$EHRec$[ebp+8], 0
  00227	ff d3		 call	 ebx
  00229	83 4d fc ff	 or	 DWORD PTR __$EHRec$[ebp+8], -1
  0022d	8d 4d ac	 lea	 ecx, DWORD PTR $T554914[ebp]
  00230	ff d3		 call	 ebx

; 290  : 			pAttacker->ReverseReflectPush( vAttackDir, fPushPower * FLOAT05 );

  00232	b8 05 00 00 00	 mov	 eax, 5
  00237	8b c8		 mov	 ecx, eax
  00239	b8 0a 00 00 00	 mov	 eax, 10			; 0000000aH
  0023e	89 4d dc	 mov	 DWORD PTR tv593[ebp], ecx
  00241	db 45 dc	 fild	 DWORD PTR tv593[ebp]
  00244	85 c9		 test	 ecx, ecx
  00246	79 06		 jns	 SHORT $LN66@ApplyWeapo
  00248	d8 05 00 00 00
	00		 fadd	 DWORD PTR __real@4f800000
$LN66@ApplyWeapo:
  0024e	89 45 dc	 mov	 DWORD PTR tv589[ebp], eax
  00251	db 45 dc	 fild	 DWORD PTR tv589[ebp]
  00254	85 c0		 test	 eax, eax
  00256	79 06		 jns	 SHORT $LN67@ApplyWeapo
  00258	d8 05 00 00 00
	00		 fadd	 DWORD PTR __real@4f800000
$LN67@ApplyWeapo:
  0025e	de f9		 fdivp	 ST(1), ST(0)
  00260	51		 push	 ecx
  00261	8b 4d d8	 mov	 ecx, DWORD PTR _pAttacker$[ebp]
  00264	8d 45 e4	 lea	 eax, DWORD PTR _vAttackDir$[ebp]
  00267	d9 5d dc	 fstp	 DWORD PTR tv585[ebp]
  0026a	d9 45 dc	 fld	 DWORD PTR tv585[ebp]
  0026d	d8 4d d4	 fmul	 DWORD PTR _fPushPower$[ebp]
  00270	d9 5d d4	 fstp	 DWORD PTR tv582[ebp]
  00273	d9 45 d4	 fld	 DWORD PTR tv582[ebp]
  00276	d9 1c 24	 fstp	 DWORD PTR [esp]
  00279	50		 push	 eax
  0027a	e8 00 00 00 00	 call	 ?ReverseReflectPush@ioBaseChar@@QAEXABUD3DXVECTOR3@@M@Z ; ioBaseChar::ReverseReflectPush
$LN11@ApplyWeapo:

; 291  : 		}
; 292  : 	}
; 293  : 
; 294  : 	if( !m_BlockBuff.IsEmpty() )

  0027f	8d 8f b0 02 00
	00		 lea	 ecx, DWORD PTR [edi+688]
  00285	ff 15 00 00 00
	00		 call	 DWORD PTR __imp_?IsEmpty@ioHashString@@QBE_NXZ
  0028b	84 c0		 test	 al, al
  0028d	75 0e		 jne	 SHORT $LN10@ApplyWeapo

; 295  : 		pAttacker->SetDisableAttackEmoticon();

  0028f	8b 4d d8	 mov	 ecx, DWORD PTR _pAttacker$[ebp]
  00292	81 c1 cc 01 00
	00		 add	 ecx, 460		; 000001ccH
  00298	e8 00 00 00 00	 call	 ?SetDisableAttackEmoticon@ioBaseGUISupport@@QAEXXZ ; ioBaseGUISupport::SetDisableAttackEmoticon
$LN10@ApplyWeapo:

; 296  : 
; 297  : 	int iShakeCamera = pWeapon->GetShakeCamera();

  0029d	8b ce		 mov	 ecx, esi
  0029f	e8 00 00 00 00	 call	 ?GetShakeCamera@ioWeapon@@QBEHXZ ; ioWeapon::GetShakeCamera
  002a4	8b d8		 mov	 ebx, eax

; 298  : 	ActionStopType eActionStop = pWeapon->GetActionStopType();

  002a6	8b 06		 mov	 eax, DWORD PTR [esi]
  002a8	8b ce		 mov	 ecx, esi
  002aa	ff 90 14 01 00
	00		 call	 DWORD PTR [eax+276]

; 299  : 
; 300  : 	if( eActionStop == AST_BOTH || eActionStop == AST_ATTACKER )

  002b0	83 f8 01	 cmp	 eax, 1
  002b3	74 05		 je	 SHORT $LN8@ApplyWeapo
  002b5	83 f8 02	 cmp	 eax, 2
  002b8	75 3b		 jne	 SHORT $LN9@ApplyWeapo
$LN8@ApplyWeapo:

; 301  : 	{
; 302  : 		pAttacker->SetActionStopDelay( fDamage, false, iShakeCamera );

  002ba	f3 0f 10 45 d0	 movss	 xmm0, DWORD PTR _fDamage$[ebp]
  002bf	53		 push	 ebx
  002c0	33 db		 xor	 ebx, ebx
  002c2	53		 push	 ebx
  002c3	51		 push	 ecx
  002c4	8b 4d d8	 mov	 ecx, DWORD PTR _pAttacker$[ebp]
  002c7	f3 0f 11 04 24	 movss	 DWORD PTR [esp], xmm0
  002cc	e8 00 00 00 00	 call	 ?SetActionStopDelay@ioBaseChar@@QAEXM_NH@Z ; ioBaseChar::SetActionStopDelay

; 303  : 		pWeapon->SetActionStopDuration( ioBaseChar::CalcActionStopDelay( fDamage, false ),
; 304  : 			ioBaseChar::GetActionStopLooseRate( false ) );

  002d1	53		 push	 ebx
  002d2	e8 00 00 00 00	 call	 ?GetActionStopLooseRate@ioBaseChar@@SAM_N@Z ; ioBaseChar::GetActionStopLooseRate
  002d7	d9 1c 24	 fstp	 DWORD PTR [esp]
  002da	f3 0f 10 45 d0	 movss	 xmm0, DWORD PTR _fDamage$[ebp]
  002df	53		 push	 ebx
  002e0	51		 push	 ecx
  002e1	f3 0f 11 04 24	 movss	 DWORD PTR [esp], xmm0
  002e6	e8 00 00 00 00	 call	 ?CalcActionStopDelay@ioBaseChar@@SAKM_N@Z ; ioBaseChar::CalcActionStopDelay
  002eb	59		 pop	 ecx
  002ec	59		 pop	 ecx
  002ed	50		 push	 eax
  002ee	8b ce		 mov	 ecx, esi
  002f0	e8 00 00 00 00	 call	 ?SetActionStopDuration@ioWeapon@@QAEXKM@Z ; ioWeapon::SetActionStopDuration
$LN9@ApplyWeapo:

; 305  : 	}
; 306  : 
; 307  : 	if( m_HP.m_fCurValue <= 0.0f )

  002f5	8d 45 d4	 lea	 eax, DWORD PTR _value$554984[ebp]
  002f8	50		 push	 eax
  002f9	8d 8f c0 00 00
	00		 lea	 ecx, DWORD PTR [edi+192]
  002ff	e8 00 00 00 00	 call	 ?DecryptValueToPool@?$CEncrypt@M@@QAEXPAM@Z ; CEncrypt<float>::DecryptValueToPool
  00304	0f 57 c0	 xorps	 xmm0, xmm0
  00307	0f 2f 45 d4	 comiss	 xmm0, DWORD PTR _value$554984[ebp]
  0030b	0f 82 95 00 00
	00		 jb	 $LN2@ApplyWeapo

; 308  : 	{
; 309  : 		m_HP.m_fCurValue = 0.0f;

  00311	8d 45 cc	 lea	 eax, DWORD PTR _value$554987[ebp]
  00314	50		 push	 eax
  00315	8d 8f c0 00 00
	00		 lea	 ecx, DWORD PTR [edi+192]
  0031b	f3 0f 11 45 cc	 movss	 DWORD PTR _value$554987[ebp], xmm0
  00320	e8 00 00 00 00	 call	 ?EncryptValueToPool@?$CEncrypt@M@@AAEXPBD@Z ; CEncrypt<float>::EncryptValueToPool

; 310  : 		SetDieState( true );

  00325	8b 07		 mov	 eax, DWORD PTR [edi]
  00327	6a 01		 push	 1
  00329	8b cf		 mov	 ecx, edi
  0032b	ff 90 60 01 00
	00		 call	 DWORD PTR [eax+352]

; 311  : 
; 312  : 		//     
; 313  : 		switch( m_DummyCharType )

  00331	8b 87 2c 02 00
	00		 mov	 eax, DWORD PTR [edi+556]
  00337	83 e8 03	 sub	 eax, 3
  0033a	74 09		 je	 SHORT $LN4@ApplyWeapo
  0033c	48		 dec	 eax
  0033d	48		 dec	 eax
  0033e	74 05		 je	 SHORT $LN4@ApplyWeapo
  00340	83 e8 18	 sub	 eax, 24			; 00000018H
  00343	75 61		 jne	 SHORT $LN2@ApplyWeapo
$LN4@ApplyWeapo:

; 314  : 		{
; 315  : 		case DCT_OWNER_CONTROL:
; 316  : 		case DCT_OWNER_CONTROL3:
; 317  : 		case DCT_OWNER_ATTACH:
; 318  : 			if( !m_ControlSkillName.IsEmpty() )

  00345	8d 9f 98 0d 00
	00		 lea	 ebx, DWORD PTR [edi+3480]
  0034b	8b cb		 mov	 ecx, ebx
  0034d	ff 15 00 00 00
	00		 call	 DWORD PTR __imp_?IsEmpty@ioHashString@@QBE_NXZ
  00353	84 c0		 test	 al, al
  00355	75 4f		 jne	 SHORT $LN2@ApplyWeapo

; 319  : 			{
; 320  : 				if( GetOwner() && GetOwner()->IsCurUsingSkill( m_ControlSkillName ) )

  00357	8b cf		 mov	 ecx, edi
  00359	e8 00 00 00 00	 call	 ?GetOwner@ioDummyChar@@QBEPAVioBaseChar@@XZ ; ioDummyChar::GetOwner
  0035e	85 c0		 test	 eax, eax
  00360	74 44		 je	 SHORT $LN2@ApplyWeapo
  00362	83 ec 10	 sub	 esp, 16			; 00000010H
  00365	8b cc		 mov	 ecx, esp
  00367	89 65 d4	 mov	 DWORD PTR $T554917[ebp], esp
  0036a	53		 push	 ebx
  0036b	ff 15 00 00 00
	00		 call	 DWORD PTR __imp_??0ioHashString@@QAE@ABV0@@Z
  00371	8b cf		 mov	 ecx, edi
  00373	c7 45 fc 02 00
	00 00		 mov	 DWORD PTR __$EHRec$[ebp+8], 2
  0037a	e8 00 00 00 00	 call	 ?GetOwner@ioDummyChar@@QBEPAVioBaseChar@@XZ ; ioDummyChar::GetOwner
  0037f	83 4d fc ff	 or	 DWORD PTR __$EHRec$[ebp+8], -1
  00383	8b c8		 mov	 ecx, eax
  00385	e8 00 00 00 00	 call	 ?IsCurUsingSkill@ioBaseChar@@QAE_NVioHashString@@@Z ; ioBaseChar::IsCurUsingSkill
  0038a	84 c0		 test	 al, al
  0038c	74 18		 je	 SHORT $LN2@ApplyWeapo

; 321  : 				{
; 322  : 					GetOwner()->ClearAttackFireTimeAndSkill( CAFT_APPLY_WOUNDED_BY_DUMMY );

  0038e	6a 02		 push	 2
  00390	8b cf		 mov	 ecx, edi
  00392	e8 00 00 00 00	 call	 ?GetOwner@ioDummyChar@@QBEPAVioBaseChar@@XZ ; ioDummyChar::GetOwner
  00397	8b c8		 mov	 ecx, eax
  00399	e8 00 00 00 00	 call	 ?ClearAttackFireTimeAndSkill@ioBaseChar@@QAEXW4ClearAttackFireType@@@Z ; ioBaseChar::ClearAttackFireTimeAndSkill

; 323  : 					m_ControlSkillName.Clear();

  0039e	8b cb		 mov	 ecx, ebx
  003a0	ff 15 00 00 00
	00		 call	 DWORD PTR __imp_?Clear@ioHashString@@QAEXXZ
$LN2@ApplyWeapo:

; 324  : 				}
; 325  : 			}
; 326  : 			break;
; 327  : 		}
; 328  : 	}
; 329  : 
; 330  : 	if( pWeapon )
; 331  : 	{
; 332  : 		int iDummyIndex = pWeapon->GetWeaponByDummyChar();
; 333  : 		g_DummyCharMgr.CheckEntityCollision( pAttacker, this, iDummyIndex );

  003a6	ff b6 98 05 00
	00		 push	 DWORD PTR [esi+1432]
  003ac	57		 push	 edi
  003ad	ff 75 d8	 push	 DWORD PTR _pAttacker$[ebp]
  003b0	e8 00 00 00 00	 call	 ?GetSingleton@ioDummyCharManager@@SAAAV1@XZ ; ioDummyCharManager::GetSingleton
  003b5	8b c8		 mov	 ecx, eax
  003b7	e8 00 00 00 00	 call	 ?CheckEntityCollision@ioDummyCharManager@@QAEXPAVioBaseChar@@PAVioPlayEntity@@H@Z ; ioDummyCharManager::CheckEntityCollision
$LN68@ApplyWeapo:

; 334  : 	}
; 335  : 
; 336  : 	return AWE_EXPLOSION;

  003bc	33 c0		 xor	 eax, eax
  003be	40		 inc	 eax
$LN20@ApplyWeapo:

; 337  : }

  003bf	e8 00 00 00 00	 call	 __EH_epilog3_GS
  003c4	c2 04 00	 ret	 4
_TEXT	ENDS
;	COMDAT text$x
text$x	SEGMENT
__unwindfunclet$?ApplyWeapon@ioOwnerAttach4Dummy@@UAE?AW4ApplyWeaponExp@@PAVioWeapon@@@Z$0:
  00000	8d 4d ac	 lea	 ecx, DWORD PTR $T554914[ebp]
  00003	ff 25 00 00 00
	00		 jmp	 DWORD PTR __imp_??1ioHashString@@QAE@XZ
__unwindfunclet$?ApplyWeapon@ioOwnerAttach4Dummy@@UAE?AW4ApplyWeaponExp@@PAVioWeapon@@@Z$1:
  00009	8d 4d bc	 lea	 ecx, DWORD PTR $T554915[ebp]
  0000c	ff 25 00 00 00
	00		 jmp	 DWORD PTR __imp_??1ioHashString@@QAE@XZ
__unwindfunclet$?ApplyWeapon@ioOwnerAttach4Dummy@@UAE?AW4ApplyWeaponExp@@PAVioWeapon@@@Z$2:
  00012	8b 4d d4	 mov	 ecx, DWORD PTR $T554917[ebp]
  00015	ff 25 00 00 00
	00		 jmp	 DWORD PTR __imp_??1ioHashString@@QAE@XZ
__ehhandler$?ApplyWeapon@ioOwnerAttach4Dummy@@UAE?AW4ApplyWeaponExp@@PAVioWeapon@@@Z:
  0001b	8b 54 24 08	 mov	 edx, DWORD PTR [esp+8]
  0001f	8d 42 0c	 lea	 eax, DWORD PTR [edx+12]
  00022	8b 4a a8	 mov	 ecx, DWORD PTR [edx-88]
  00025	33 c8		 xor	 ecx, eax
  00027	e8 00 00 00 00	 call	 @__security_check_cookie@4
  0002c	8b 4a fc	 mov	 ecx, DWORD PTR [edx-4]
  0002f	33 c8		 xor	 ecx, eax
  00031	e8 00 00 00 00	 call	 @__security_check_cookie@4
  00036	b8 00 00 00 00	 mov	 eax, OFFSET __ehfuncinfo$?ApplyWeapon@ioOwnerAttach4Dummy@@UAE?AW4ApplyWeaponExp@@PAVioWeapon@@@Z
  0003b	e9 00 00 00 00	 jmp	 ___CxxFrameHandler3
text$x	ENDS
?ApplyWeapon@ioOwnerAttach4Dummy@@UAE?AW4ApplyWeaponExp@@PAVioWeapon@@@Z ENDP ; ioOwnerAttach4Dummy::ApplyWeapon
PUBLIC	??$_Destroy_range@V?$allocator@UCreateWeaponInfo@ioOwnerAttach4Dummy@@@std@@@std@@YAXPAUCreateWeaponInfo@ioOwnerAttach4Dummy@@0AAV?$allocator@UCreateWeaponInfo@ioOwnerAttach4Dummy@@@0@U_Nonscalar_ptr_iterator_tag@0@@Z ; std::_Destroy_range<std::allocator<ioOwnerAttach4Dummy::CreateWeaponInfo> >
; Function compile flags: /Ogsp
; File c:\program files (x86)\microsoft visual studio 10.0\vc\include\xmemory
;	COMDAT ??$_Destroy_range@V?$allocator@UCreateWeaponInfo@ioOwnerAttach4Dummy@@@std@@@std@@YAXPAUCreateWeaponInfo@ioOwnerAttach4Dummy@@0AAV?$allocator@UCreateWeaponInfo@ioOwnerAttach4Dummy@@@0@U_Nonscalar_ptr_iterator_tag@0@@Z
_TEXT	SEGMENT
__First$ = 8						; size = 4
__Last$ = 12						; size = 4
__Al$ = 16						; size = 4
___formal$ = 20						; size = 1
??$_Destroy_range@V?$allocator@UCreateWeaponInfo@ioOwnerAttach4Dummy@@@std@@@std@@YAXPAUCreateWeaponInfo@ioOwnerAttach4Dummy@@0AAV?$allocator@UCreateWeaponInfo@ioOwnerAttach4Dummy@@@0@U_Nonscalar_ptr_iterator_tag@0@@Z PROC ; std::_Destroy_range<std::allocator<ioOwnerAttach4Dummy::CreateWeaponInfo> >, COMDAT

; 96   : 	for (; _First != _Last; ++_First)
; 97   : 		_Dest_val(_Al, _First);
; 98   : 	}

  00000	c3		 ret	 0
??$_Destroy_range@V?$allocator@UCreateWeaponInfo@ioOwnerAttach4Dummy@@@std@@@std@@YAXPAUCreateWeaponInfo@ioOwnerAttach4Dummy@@0AAV?$allocator@UCreateWeaponInfo@ioOwnerAttach4Dummy@@@0@U_Nonscalar_ptr_iterator_tag@0@@Z ENDP ; std::_Destroy_range<std::allocator<ioOwnerAttach4Dummy::CreateWeaponInfo> >
_TEXT	ENDS
PUBLIC	??$_Uninit_move@PAUCreateWeaponInfo@ioOwnerAttach4Dummy@@PAU12@V?$allocator@UCreateWeaponInfo@ioOwnerAttach4Dummy@@@std@@U12@@std@@YAPAUCreateWeaponInfo@ioOwnerAttach4Dummy@@PAU12@00AAV?$allocator@UCreateWeaponInfo@ioOwnerAttach4Dummy@@@0@0U_Nonscalar_ptr_iterator_tag@0@@Z ; std::_Uninit_move<ioOwnerAttach4Dummy::CreateWeaponInfo *,ioOwnerAttach4Dummy::CreateWeaponInfo *,std::allocator<ioOwnerAttach4Dummy::CreateWeaponInfo>,ioOwnerAttach4Dummy::CreateWeaponInfo>
; Function compile flags: /Ogsp
; File c:\program files (x86)\microsoft visual studio 10.0\vc\include\memory
;	COMDAT ??$_Uninit_move@PAUCreateWeaponInfo@ioOwnerAttach4Dummy@@PAU12@V?$allocator@UCreateWeaponInfo@ioOwnerAttach4Dummy@@@std@@U12@@std@@YAPAUCreateWeaponInfo@ioOwnerAttach4Dummy@@PAU12@00AAV?$allocator@UCreateWeaponInfo@ioOwnerAttach4Dummy@@@0@0U_Nonscalar_ptr_iterator_tag@0@@Z
_TEXT	SEGMENT
__First$ = 8						; size = 4
__Last$ = 12						; size = 4
__Dest$ = 16						; size = 4
__Al$ = 20						; size = 4
___formal$ = 24						; size = 4
___formal$ = 28						; size = 1
??$_Uninit_move@PAUCreateWeaponInfo@ioOwnerAttach4Dummy@@PAU12@V?$allocator@UCreateWeaponInfo@ioOwnerAttach4Dummy@@@std@@U12@@std@@YAPAUCreateWeaponInfo@ioOwnerAttach4Dummy@@PAU12@00AAV?$allocator@UCreateWeaponInfo@ioOwnerAttach4Dummy@@@0@0U_Nonscalar_ptr_iterator_tag@0@@Z PROC ; std::_Uninit_move<ioOwnerAttach4Dummy::CreateWeaponInfo *,ioOwnerAttach4Dummy::CreateWeaponInfo *,std::allocator<ioOwnerAttach4Dummy::CreateWeaponInfo>,ioOwnerAttach4Dummy::CreateWeaponInfo>, COMDAT

; 424  : 	{	// move [_First, _Last) to raw _Dest, using _Al, arbitrary type

  00000	55		 push	 ebp
  00001	8b ec		 mov	 ebp, esp
  00003	56		 push	 esi

; 425  : 	_DEBUG_RANGE(_First, _Last);
; 426  : 	_DEBUG_POINTER(_Dest);
; 427  : 	_FwdIt _Next = _Dest;
; 428  : 
; 429  : 	_TRY_BEGIN
; 430  : 	for (; _First != _Last; ++_Dest, ++_First)

  00004	8b 75 08	 mov	 esi, DWORD PTR __First$[ebp]
  00007	eb 16		 jmp	 SHORT $LN24@Uninit_mov
$LL6@Uninit_mov:

; 431  : 		_Cons_val(_Al, _Dest, (_Valty &&)*_First);

  00009	56		 push	 esi
  0000a	ff 75 10	 push	 DWORD PTR __Dest$[ebp]
  0000d	ff 75 14	 push	 DWORD PTR __Al$[ebp]
  00010	e8 00 00 00 00	 call	 ??$_Cons_val@V?$allocator@UCreateWeaponInfo@ioOwnerAttach4Dummy@@@std@@UCreateWeaponInfo@ioOwnerAttach4Dummy@@U34@@std@@YAXAAV?$allocator@UCreateWeaponInfo@ioOwnerAttach4Dummy@@@0@PAUCreateWeaponInfo@ioOwnerAttach4Dummy@@$$QAU23@@Z ; std::_Cons_val<std::allocator<ioOwnerAttach4Dummy::CreateWeaponInfo>,ioOwnerAttach4Dummy::CreateWeaponInfo,ioOwnerAttach4Dummy::CreateWeaponInfo>
  00015	83 45 10 24	 add	 DWORD PTR __Dest$[ebp], 36 ; 00000024H
  00019	83 c4 0c	 add	 esp, 12			; 0000000cH
  0001c	83 c6 24	 add	 esi, 36			; 00000024H
$LN24@Uninit_mov:

; 425  : 	_DEBUG_RANGE(_First, _Last);
; 426  : 	_DEBUG_POINTER(_Dest);
; 427  : 	_FwdIt _Next = _Dest;
; 428  : 
; 429  : 	_TRY_BEGIN
; 430  : 	for (; _First != _Last; ++_Dest, ++_First)

  0001f	3b 75 0c	 cmp	 esi, DWORD PTR __Last$[ebp]
  00022	75 e5		 jne	 SHORT $LL6@Uninit_mov

; 432  : 	_CATCH_ALL
; 433  : 	for (; _Next != _Dest; ++_Next)
; 434  : 		_Dest_val(_Al, _Next);
; 435  : 	_RERAISE;
; 436  : 	_CATCH_END
; 437  : 	return (_Dest);

  00024	8b 45 10	 mov	 eax, DWORD PTR __Dest$[ebp]
  00027	5e		 pop	 esi

; 438  : 	}

  00028	5d		 pop	 ebp
  00029	c3		 ret	 0
??$_Uninit_move@PAUCreateWeaponInfo@ioOwnerAttach4Dummy@@PAU12@V?$allocator@UCreateWeaponInfo@ioOwnerAttach4Dummy@@@std@@U12@@std@@YAPAUCreateWeaponInfo@ioOwnerAttach4Dummy@@PAU12@00AAV?$allocator@UCreateWeaponInfo@ioOwnerAttach4Dummy@@@0@0U_Nonscalar_ptr_iterator_tag@0@@Z ENDP ; std::_Uninit_move<ioOwnerAttach4Dummy::CreateWeaponInfo *,ioOwnerAttach4Dummy::CreateWeaponInfo *,std::allocator<ioOwnerAttach4Dummy::CreateWeaponInfo>,ioOwnerAttach4Dummy::CreateWeaponInfo>
_TEXT	ENDS
PUBLIC	??$_Destroy_range@V?$allocator@UCreateWeaponInfo@ioOwnerAttach4Dummy@@@std@@@std@@YAXPAUCreateWeaponInfo@ioOwnerAttach4Dummy@@0AAV?$allocator@UCreateWeaponInfo@ioOwnerAttach4Dummy@@@0@@Z ; std::_Destroy_range<std::allocator<ioOwnerAttach4Dummy::CreateWeaponInfo> >
; Function compile flags: /Ogsp
; File c:\program files (x86)\microsoft visual studio 10.0\vc\include\xmemory
;	COMDAT ??$_Destroy_range@V?$allocator@UCreateWeaponInfo@ioOwnerAttach4Dummy@@@std@@@std@@YAXPAUCreateWeaponInfo@ioOwnerAttach4Dummy@@0AAV?$allocator@UCreateWeaponInfo@ioOwnerAttach4Dummy@@@0@@Z
_TEXT	SEGMENT
__First$ = 8						; size = 4
__Last$ = 12						; size = 4
__Al$ = 16						; size = 4
??$_Destroy_range@V?$allocator@UCreateWeaponInfo@ioOwnerAttach4Dummy@@@std@@@std@@YAXPAUCreateWeaponInfo@ioOwnerAttach4Dummy@@0AAV?$allocator@UCreateWeaponInfo@ioOwnerAttach4Dummy@@@0@@Z PROC ; std::_Destroy_range<std::allocator<ioOwnerAttach4Dummy::CreateWeaponInfo> >, COMDAT

; 88   : 	_Destroy_range(_First, _Last, _Al, _Ptr_cat(_First, _Last));
; 89   : 	}

  00000	c3		 ret	 0
??$_Destroy_range@V?$allocator@UCreateWeaponInfo@ioOwnerAttach4Dummy@@@std@@@std@@YAXPAUCreateWeaponInfo@ioOwnerAttach4Dummy@@0AAV?$allocator@UCreateWeaponInfo@ioOwnerAttach4Dummy@@@0@@Z ENDP ; std::_Destroy_range<std::allocator<ioOwnerAttach4Dummy::CreateWeaponInfo> >
_TEXT	ENDS
PUBLIC	??$_Uninitialized_move@PAUCreateWeaponInfo@ioOwnerAttach4Dummy@@PAU12@V?$allocator@UCreateWeaponInfo@ioOwnerAttach4Dummy@@@std@@@std@@YAPAUCreateWeaponInfo@ioOwnerAttach4Dummy@@PAU12@00AAV?$allocator@UCreateWeaponInfo@ioOwnerAttach4Dummy@@@0@@Z ; std::_Uninitialized_move<ioOwnerAttach4Dummy::CreateWeaponInfo *,ioOwnerAttach4Dummy::CreateWeaponInfo *,std::allocator<ioOwnerAttach4Dummy::CreateWeaponInfo> >
; Function compile flags: /Ogsp
; File c:\program files (x86)\microsoft visual studio 10.0\vc\include\memory
;	COMDAT ??$_Uninitialized_move@PAUCreateWeaponInfo@ioOwnerAttach4Dummy@@PAU12@V?$allocator@UCreateWeaponInfo@ioOwnerAttach4Dummy@@@std@@@std@@YAPAUCreateWeaponInfo@ioOwnerAttach4Dummy@@PAU12@00AAV?$allocator@UCreateWeaponInfo@ioOwnerAttach4Dummy@@@0@@Z
_TEXT	SEGMENT
__Cat$555103 = -4					; size = 1
__First$ = 8						; size = 4
__Last$ = 12						; size = 4
__Dest$ = 16						; size = 4
__Al$ = 20						; size = 4
??$_Uninitialized_move@PAUCreateWeaponInfo@ioOwnerAttach4Dummy@@PAU12@V?$allocator@UCreateWeaponInfo@ioOwnerAttach4Dummy@@@std@@@std@@YAPAUCreateWeaponInfo@ioOwnerAttach4Dummy@@PAU12@00AAV?$allocator@UCreateWeaponInfo@ioOwnerAttach4Dummy@@@0@@Z PROC ; std::_Uninitialized_move<ioOwnerAttach4Dummy::CreateWeaponInfo *,ioOwnerAttach4Dummy::CreateWeaponInfo *,std::allocator<ioOwnerAttach4Dummy::CreateWeaponInfo> >, COMDAT

; 469  : 	{	// move [_First, _Last) to raw _Dest, using _Al

  00000	55		 push	 ebp
  00001	8b ec		 mov	 ebp, esp
  00003	51		 push	 ecx

; 470  : 	return (_Uninit_move(_First, _Last, _Dest, _Al,
; 471  : 		_Val_type(_First), _Ptr_cat(_First, _Dest)));

  00004	ff 75 fc	 push	 DWORD PTR __Cat$555103[ebp]
  00007	6a 00		 push	 0
  00009	ff 75 14	 push	 DWORD PTR __Al$[ebp]
  0000c	ff 75 10	 push	 DWORD PTR __Dest$[ebp]
  0000f	ff 75 0c	 push	 DWORD PTR __Last$[ebp]
  00012	ff 75 08	 push	 DWORD PTR __First$[ebp]
  00015	e8 00 00 00 00	 call	 ??$_Uninit_move@PAUCreateWeaponInfo@ioOwnerAttach4Dummy@@PAU12@V?$allocator@UCreateWeaponInfo@ioOwnerAttach4Dummy@@@std@@U12@@std@@YAPAUCreateWeaponInfo@ioOwnerAttach4Dummy@@PAU12@00AAV?$allocator@UCreateWeaponInfo@ioOwnerAttach4Dummy@@@0@0U_Nonscalar_ptr_iterator_tag@0@@Z ; std::_Uninit_move<ioOwnerAttach4Dummy::CreateWeaponInfo *,ioOwnerAttach4Dummy::CreateWeaponInfo *,std::allocator<ioOwnerAttach4Dummy::CreateWeaponInfo>,ioOwnerAttach4Dummy::CreateWeaponInfo>
  0001a	83 c4 18	 add	 esp, 24			; 00000018H

; 472  : 	}

  0001d	c9		 leave
  0001e	c3		 ret	 0
??$_Uninitialized_move@PAUCreateWeaponInfo@ioOwnerAttach4Dummy@@PAU12@V?$allocator@UCreateWeaponInfo@ioOwnerAttach4Dummy@@@std@@@std@@YAPAUCreateWeaponInfo@ioOwnerAttach4Dummy@@PAU12@00AAV?$allocator@UCreateWeaponInfo@ioOwnerAttach4Dummy@@@0@@Z ENDP ; std::_Uninitialized_move<ioOwnerAttach4Dummy::CreateWeaponInfo *,ioOwnerAttach4Dummy::CreateWeaponInfo *,std::allocator<ioOwnerAttach4Dummy::CreateWeaponInfo> >
_TEXT	ENDS
PUBLIC	?_Destroy@?$vector@UCreateWeaponInfo@ioOwnerAttach4Dummy@@V?$allocator@UCreateWeaponInfo@ioOwnerAttach4Dummy@@@std@@@std@@IAEXPAUCreateWeaponInfo@ioOwnerAttach4Dummy@@0@Z ; std::vector<ioOwnerAttach4Dummy::CreateWeaponInfo,std::allocator<ioOwnerAttach4Dummy::CreateWeaponInfo> >::_Destroy
; Function compile flags: /Ogsp
; File c:\program files (x86)\microsoft visual studio 10.0\vc\include\vector
;	COMDAT ?_Destroy@?$vector@UCreateWeaponInfo@ioOwnerAttach4Dummy@@V?$allocator@UCreateWeaponInfo@ioOwnerAttach4Dummy@@@std@@@std@@IAEXPAUCreateWeaponInfo@ioOwnerAttach4Dummy@@0@Z
_TEXT	SEGMENT
__First$ = 8						; size = 4
__Last$ = 12						; size = 4
?_Destroy@?$vector@UCreateWeaponInfo@ioOwnerAttach4Dummy@@V?$allocator@UCreateWeaponInfo@ioOwnerAttach4Dummy@@@std@@@std@@IAEXPAUCreateWeaponInfo@ioOwnerAttach4Dummy@@0@Z PROC ; std::vector<ioOwnerAttach4Dummy::CreateWeaponInfo,std::allocator<ioOwnerAttach4Dummy::CreateWeaponInfo> >::_Destroy, COMDAT
; _this$ = ecx

; 1270 : 		_Destroy_range(_First, _Last, this->_Alval);
; 1271 : 		}

  00000	c2 08 00	 ret	 8
?_Destroy@?$vector@UCreateWeaponInfo@ioOwnerAttach4Dummy@@V?$allocator@UCreateWeaponInfo@ioOwnerAttach4Dummy@@@std@@@std@@IAEXPAUCreateWeaponInfo@ioOwnerAttach4Dummy@@0@Z ENDP ; std::vector<ioOwnerAttach4Dummy::CreateWeaponInfo,std::allocator<ioOwnerAttach4Dummy::CreateWeaponInfo> >::_Destroy
_TEXT	ENDS
PUBLIC	??$_Umove@PAUCreateWeaponInfo@ioOwnerAttach4Dummy@@@?$vector@UCreateWeaponInfo@ioOwnerAttach4Dummy@@V?$allocator@UCreateWeaponInfo@ioOwnerAttach4Dummy@@@std@@@std@@IAEPAUCreateWeaponInfo@ioOwnerAttach4Dummy@@PAU23@00@Z ; std::vector<ioOwnerAttach4Dummy::CreateWeaponInfo,std::allocator<ioOwnerAttach4Dummy::CreateWeaponInfo> >::_Umove<ioOwnerAttach4Dummy::CreateWeaponInfo *>
; Function compile flags: /Ogsp
;	COMDAT ??$_Umove@PAUCreateWeaponInfo@ioOwnerAttach4Dummy@@@?$vector@UCreateWeaponInfo@ioOwnerAttach4Dummy@@V?$allocator@UCreateWeaponInfo@ioOwnerAttach4Dummy@@@std@@@std@@IAEPAUCreateWeaponInfo@ioOwnerAttach4Dummy@@PAU23@00@Z
_TEXT	SEGMENT
__First$ = 8						; size = 4
__Last$ = 12						; size = 4
__Ptr$ = 16						; size = 4
??$_Umove@PAUCreateWeaponInfo@ioOwnerAttach4Dummy@@@?$vector@UCreateWeaponInfo@ioOwnerAttach4Dummy@@V?$allocator@UCreateWeaponInfo@ioOwnerAttach4Dummy@@@std@@@std@@IAEPAUCreateWeaponInfo@ioOwnerAttach4Dummy@@PAU23@00@Z PROC ; std::vector<ioOwnerAttach4Dummy::CreateWeaponInfo,std::allocator<ioOwnerAttach4Dummy::CreateWeaponInfo> >::_Umove<ioOwnerAttach4Dummy::CreateWeaponInfo *>, COMDAT
; _this$ = ecx

; 1322 : 		pointer _Umove(_Iter _First, _Iter _Last, pointer _Ptr)

  00000	55		 push	 ebp
  00001	8b ec		 mov	 ebp, esp

; 1323 : 		{	// move initializing [_First, _Last), using allocator
; 1324 : 		return (_Uninitialized_move(_First, _Last,
; 1325 : 			_Ptr, this->_Alval));

  00003	83 c1 0c	 add	 ecx, 12			; 0000000cH
  00006	51		 push	 ecx
  00007	ff 75 10	 push	 DWORD PTR __Ptr$[ebp]
  0000a	ff 75 0c	 push	 DWORD PTR __Last$[ebp]
  0000d	ff 75 08	 push	 DWORD PTR __First$[ebp]
  00010	e8 00 00 00 00	 call	 ??$_Uninitialized_move@PAUCreateWeaponInfo@ioOwnerAttach4Dummy@@PAU12@V?$allocator@UCreateWeaponInfo@ioOwnerAttach4Dummy@@@std@@@std@@YAPAUCreateWeaponInfo@ioOwnerAttach4Dummy@@PAU12@00AAV?$allocator@UCreateWeaponInfo@ioOwnerAttach4Dummy@@@0@@Z ; std::_Uninitialized_move<ioOwnerAttach4Dummy::CreateWeaponInfo *,ioOwnerAttach4Dummy::CreateWeaponInfo *,std::allocator<ioOwnerAttach4Dummy::CreateWeaponInfo> >
  00015	83 c4 10	 add	 esp, 16			; 00000010H

; 1326 : 		}

  00018	5d		 pop	 ebp
  00019	c2 0c 00	 ret	 12			; 0000000cH
??$_Umove@PAUCreateWeaponInfo@ioOwnerAttach4Dummy@@@?$vector@UCreateWeaponInfo@ioOwnerAttach4Dummy@@V?$allocator@UCreateWeaponInfo@ioOwnerAttach4Dummy@@@std@@@std@@IAEPAUCreateWeaponInfo@ioOwnerAttach4Dummy@@PAU23@00@Z ENDP ; std::vector<ioOwnerAttach4Dummy::CreateWeaponInfo,std::allocator<ioOwnerAttach4Dummy::CreateWeaponInfo> >::_Umove<ioOwnerAttach4Dummy::CreateWeaponInfo *>
_TEXT	ENDS
PUBLIC	?erase@?$vector@UCreateWeaponInfo@ioOwnerAttach4Dummy@@V?$allocator@UCreateWeaponInfo@ioOwnerAttach4Dummy@@@std@@@std@@QAE?AV?$_Vector_iterator@V?$_Vector_val@UCreateWeaponInfo@ioOwnerAttach4Dummy@@V?$allocator@UCreateWeaponInfo@ioOwnerAttach4Dummy@@@std@@@std@@@2@V?$_Vector_const_iterator@V?$_Vector_val@UCreateWeaponInfo@ioOwnerAttach4Dummy@@V?$allocator@UCreateWeaponInfo@ioOwnerAttach4Dummy@@@std@@@std@@@2@0@Z ; std::vector<ioOwnerAttach4Dummy::CreateWeaponInfo,std::allocator<ioOwnerAttach4Dummy::CreateWeaponInfo> >::erase
; Function compile flags: /Ogsp
;	COMDAT ?erase@?$vector@UCreateWeaponInfo@ioOwnerAttach4Dummy@@V?$allocator@UCreateWeaponInfo@ioOwnerAttach4Dummy@@@std@@@std@@QAE?AV?$_Vector_iterator@V?$_Vector_val@UCreateWeaponInfo@ioOwnerAttach4Dummy@@V?$allocator@UCreateWeaponInfo@ioOwnerAttach4Dummy@@@std@@@std@@@2@V?$_Vector_const_iterator@V?$_Vector_val@UCreateWeaponInfo@ioOwnerAttach4Dummy@@V?$allocator@UCreateWeaponInfo@ioOwnerAttach4Dummy@@@std@@@std@@@2@0@Z
_TEXT	SEGMENT
___$ReturnUdt$ = 8					; size = 4
__First_arg$ = 12					; size = 4
__Cat$555241 = 16					; size = 1
__Last_arg$ = 16					; size = 4
?erase@?$vector@UCreateWeaponInfo@ioOwnerAttach4Dummy@@V?$allocator@UCreateWeaponInfo@ioOwnerAttach4Dummy@@@std@@@std@@QAE?AV?$_Vector_iterator@V?$_Vector_val@UCreateWeaponInfo@ioOwnerAttach4Dummy@@V?$allocator@UCreateWeaponInfo@ioOwnerAttach4Dummy@@@std@@@std@@@2@V?$_Vector_const_iterator@V?$_Vector_val@UCreateWeaponInfo@ioOwnerAttach4Dummy@@V?$allocator@UCreateWeaponInfo@ioOwnerAttach4Dummy@@@std@@@std@@@2@0@Z PROC ; std::vector<ioOwnerAttach4Dummy::CreateWeaponInfo,std::allocator<ioOwnerAttach4Dummy::CreateWeaponInfo> >::erase, COMDAT
; _this$ = ecx

; 1190 : 		{	// erase [_First, _Last)

  00000	55		 push	 ebp
  00001	8b ec		 mov	 ebp, esp

; 1191 : 		iterator _First = _Make_iter(_First_arg);

  00003	8b 45 0c	 mov	 eax, DWORD PTR __First_arg$[ebp]
  00006	56		 push	 esi
  00007	57		 push	 edi
  00008	8b 7d 08	 mov	 edi, DWORD PTR ___$ReturnUdt$[ebp]
  0000b	8b f1		 mov	 esi, ecx
  0000d	89 07		 mov	 DWORD PTR [edi], eax

; 1192 : 		iterator _Last = _Make_iter(_Last_arg);
; 1193 : 
; 1194 : 		if (_First != _Last)

  0000f	3b 45 10	 cmp	 eax, DWORD PTR __Last_arg$[ebp]
  00012	74 16		 je	 SHORT $LN1@erase

; 1195 : 			{	// worth doing, copy down over hole
; 1196 :  #if _ITERATOR_DEBUG_LEVEL == 2
; 1197 : 			if (_Last < _First || _VICONT(_First) != this
; 1198 : 				|| _VIPTR(_First) < this->_Myfirst
; 1199 : 				|| this->_Mylast < _VIPTR(_Last))
; 1200 : 				_DEBUG_ERROR("vector erase iterator outside range");
; 1201 : 			pointer _Ptr = _Move(_VIPTR(_Last), this->_Mylast,
; 1202 : 				_VIPTR(_First));
; 1203 : 			_Orphan_range(_VIPTR(_First), this->_Mylast);
; 1204 : 
; 1205 :  #else /* _ITERATOR_DEBUG_LEVEL == 2 */
; 1206 : 			pointer _Ptr = _Move(_VIPTR(_Last), this->_Mylast,
; 1207 : 				_VIPTR(_First));

  00014	ff 75 10	 push	 DWORD PTR __Cat$555241[ebp]
  00017	8b 4e 04	 mov	 ecx, DWORD PTR [esi+4]
  0001a	50		 push	 eax
  0001b	51		 push	 ecx
  0001c	ff 75 10	 push	 DWORD PTR __Last_arg$[ebp]
