; Listing generated by Microsoft (R) Optimizing Compiler Version 16.00.30319.01 

	TITLE	D:\Lost Saga For Developer\Youtube\Tutorial\Source\src\LSClient\ioParkilpyoJump.cpp
	.686P
	.XMM
	include listing.inc
	.model	flat

INCLUDELIB MSVCRT
INCLUDELIB OLDNAMES

PUBLIC	?_EEM_DS@?$deque@UD3DXVECTOR3@@V?$allocator@UD3DXVECTOR3@@@std@@@std@@2HB ; std::deque<D3DXVECTOR3,std::allocator<D3DXVECTOR3> >::_EEM_DS
;	COMDAT ?_EEM_DS@?$deque@UD3DXVECTOR3@@V?$allocator@UD3DXVECTOR3@@@std@@@std@@2HB
CONST	SEGMENT
?_EEM_DS@?$deque@UD3DXVECTOR3@@V?$allocator@UD3DXVECTOR3@@@std@@@std@@2HB DD 01H ; std::deque<D3DXVECTOR3,std::allocator<D3DXVECTOR3> >::_EEM_DS
CONST	ENDS
PUBLIC	?IsCatchMode@ioBaseChar@@QBE_NXZ		; ioBaseChar::IsCatchMode
; Function compile flags: /Ogsp
; File d:\lost saga for developer\youtube\tutorial\source\src\lsclient\iobasechar.h
;	COMDAT ?IsCatchMode@ioBaseChar@@QBE_NXZ
_TEXT	SEGMENT
?IsCatchMode@ioBaseChar@@QBE_NXZ PROC			; ioBaseChar::IsCatchMode, COMDAT
; _this$ = ecx

; 2131 : 	inline bool IsCatchMode() const { return m_bCatchState; }

  00000	8a 81 78 23 00
	00		 mov	 al, BYTE PTR [ecx+9080]
  00006	c3		 ret	 0
?IsCatchMode@ioBaseChar@@QBE_NXZ ENDP			; ioBaseChar::IsCatchMode
_TEXT	ENDS
PUBLIC	_fabsf
EXTRN	__fltused:DWORD
; Function compile flags: /Ogsp
; File c:\program files (x86)\microsoft visual studio 10.0\vc\include\math.h
;	COMDAT _fabsf
_TEXT	SEGMENT
tv129 = 8						; size = 4
__X$ = 8						; size = 4
_fabsf	PROC						; COMDAT

; 395  :         {return ((float)fabs((double)_X)); }

  00000	55		 push	 ebp
  00001	8b ec		 mov	 ebp, esp
  00003	d9 45 08	 fld	 DWORD PTR __X$[ebp]
  00006	d9 e1		 fabs
  00008	d9 5d 08	 fstp	 DWORD PTR tv129[ebp]
  0000b	d9 45 08	 fld	 DWORD PTR tv129[ebp]
  0000e	5d		 pop	 ebp
  0000f	c3		 ret	 0
_fabsf	ENDP
_TEXT	ENDS
PUBLIC	?GetActionStopTotalDelay@ioBaseChar@@QBEKXZ	; ioBaseChar::GetActionStopTotalDelay
; Function compile flags: /Ogsp
; File d:\lost saga for developer\youtube\tutorial\source\src\lsclient\iobasechar.h
;	COMDAT ?GetActionStopTotalDelay@ioBaseChar@@QBEKXZ
_TEXT	SEGMENT
?GetActionStopTotalDelay@ioBaseChar@@QBEKXZ PROC	; ioBaseChar::GetActionStopTotalDelay, COMDAT
; _this$ = ecx

; 2399 : 	DWORD GetActionStopTotalDelay() const { return m_dwActionStopTotalDelay; }	// kaseton : action delay

  00000	8b 81 b8 15 00
	00		 mov	 eax, DWORD PTR [ecx+5560]
  00006	c3		 ret	 0
?GetActionStopTotalDelay@ioBaseChar@@QBEKXZ ENDP	; ioBaseChar::GetActionStopTotalDelay
_TEXT	ENDS
PUBLIC	?GetCharName@ioBaseChar@@QBEABVioHashString@@XZ	; ioBaseChar::GetCharName
; Function compile flags: /Ogsp
;	COMDAT ?GetCharName@ioBaseChar@@QBEABVioHashString@@XZ
_TEXT	SEGMENT
?GetCharName@ioBaseChar@@QBEABVioHashString@@XZ PROC	; ioBaseChar::GetCharName, COMDAT
; _this$ = ecx

; 2594 : 	inline const ioHashString& GetCharName() const { return m_Name; }

  00000	8d 81 d4 02 00
	00		 lea	 eax, DWORD PTR [ecx+724]
  00006	c3		 ret	 0
?GetCharName@ioBaseChar@@QBEABVioHashString@@XZ ENDP	; ioBaseChar::GetCharName
_TEXT	ENDS
PUBLIC	?GetMoveDir@ioBaseChar@@QBEABUD3DXVECTOR3@@XZ	; ioBaseChar::GetMoveDir
; Function compile flags: /Ogsp
;	COMDAT ?GetMoveDir@ioBaseChar@@QBEABUD3DXVECTOR3@@XZ
_TEXT	SEGMENT
?GetMoveDir@ioBaseChar@@QBEABUD3DXVECTOR3@@XZ PROC	; ioBaseChar::GetMoveDir, COMDAT
; _this$ = ecx

; 2596 : 	inline const D3DXVECTOR3& GetMoveDir() const { return m_vMoveDir; }

  00000	8d 81 b4 06 00
	00		 lea	 eax, DWORD PTR [ecx+1716]
  00006	c3		 ret	 0
?GetMoveDir@ioBaseChar@@QBEABUD3DXVECTOR3@@XZ ENDP	; ioBaseChar::GetMoveDir
_TEXT	ENDS
PUBLIC	?GetInputDir@ioBaseChar@@QBEABUD3DXVECTOR3@@XZ	; ioBaseChar::GetInputDir
; Function compile flags: /Ogsp
;	COMDAT ?GetInputDir@ioBaseChar@@QBEABUD3DXVECTOR3@@XZ
_TEXT	SEGMENT
?GetInputDir@ioBaseChar@@QBEABUD3DXVECTOR3@@XZ PROC	; ioBaseChar::GetInputDir, COMDAT
; _this$ = ecx

; 2597 : 	inline const D3DXVECTOR3& GetInputDir() const { return m_vInputDir; }

  00000	8d 81 c0 06 00
	00		 lea	 eax, DWORD PTR [ecx+1728]
  00006	c3		 ret	 0
?GetInputDir@ioBaseChar@@QBEABUD3DXVECTOR3@@XZ ENDP	; ioBaseChar::GetInputDir
_TEXT	ENDS
PUBLIC	?GetTargetRot@ioBaseChar@@QBEABUD3DXQUATERNION@@XZ ; ioBaseChar::GetTargetRot
; Function compile flags: /Ogsp
;	COMDAT ?GetTargetRot@ioBaseChar@@QBEABUD3DXQUATERNION@@XZ
_TEXT	SEGMENT
?GetTargetRot@ioBaseChar@@QBEABUD3DXQUATERNION@@XZ PROC	; ioBaseChar::GetTargetRot, COMDAT
; _this$ = ecx

; 2599 : 	inline const D3DXQUATERNION& GetTargetRot() const { return m_qtTargetRot; }

  00000	8d 81 a4 06 00
	00		 lea	 eax, DWORD PTR [ecx+1700]
  00006	c3		 ret	 0
?GetTargetRot@ioBaseChar@@QBEABUD3DXQUATERNION@@XZ ENDP	; ioBaseChar::GetTargetRot
_TEXT	ENDS
PUBLIC	?fabs@@YAMM@Z					; fabs
; Function compile flags: /Ogsp
; File c:\program files (x86)\microsoft visual studio 10.0\vc\include\math.h
;	COMDAT ?fabs@@YAMM@Z
_TEXT	SEGMENT
tv131 = 8						; size = 4
__X$ = 8						; size = 4
?fabs@@YAMM@Z PROC					; fabs, COMDAT

; 518  :         {return (fabsf(_X)); }

  00000	55		 push	 ebp
  00001	8b ec		 mov	 ebp, esp
  00003	d9 45 08	 fld	 DWORD PTR __X$[ebp]
  00006	d9 e1		 fabs
  00008	d9 5d 08	 fstp	 DWORD PTR tv131[ebp]
  0000b	d9 45 08	 fld	 DWORD PTR tv131[ebp]
  0000e	5d		 pop	 ebp
  0000f	c3		 ret	 0
?fabs@@YAMM@Z ENDP					; fabs
_TEXT	ENDS
PUBLIC	?GetUsedBuffJump@ioBaseChar@@QBEHXZ		; ioBaseChar::GetUsedBuffJump
; Function compile flags: /Ogsp
; File d:\lost saga for developer\youtube\tutorial\source\src\lsclient\iobasechar.h
;	COMDAT ?GetUsedBuffJump@ioBaseChar@@QBEHXZ
_TEXT	SEGMENT
?GetUsedBuffJump@ioBaseChar@@QBEHXZ PROC		; ioBaseChar::GetUsedBuffJump, COMDAT
; _this$ = ecx

; 2622 : 	inline int GetUsedBuffJump() const { return m_UsedBuffJump; }

  00000	8b 81 ac 0e 00
	00		 mov	 eax, DWORD PTR [ecx+3756]
  00006	c3		 ret	 0
?GetUsedBuffJump@ioBaseChar@@QBEHXZ ENDP		; ioBaseChar::GetUsedBuffJump
_TEXT	ENDS
PUBLIC	?GetUsedBuffFlyJump@ioBaseChar@@QBEHXZ		; ioBaseChar::GetUsedBuffFlyJump
; Function compile flags: /Ogsp
;	COMDAT ?GetUsedBuffFlyJump@ioBaseChar@@QBEHXZ
_TEXT	SEGMENT
?GetUsedBuffFlyJump@ioBaseChar@@QBEHXZ PROC		; ioBaseChar::GetUsedBuffFlyJump, COMDAT
; _this$ = ecx

; 2623 : 	inline int GetUsedBuffFlyJump() const { return m_UsedBuffFlyJump; }

  00000	8b 81 b0 0e 00
	00		 mov	 eax, DWORD PTR [ecx+3760]
  00006	c3		 ret	 0
?GetUsedBuffFlyJump@ioBaseChar@@QBEHXZ ENDP		; ioBaseChar::GetUsedBuffFlyJump
_TEXT	ENDS
PUBLIC	?GetUsedBuffMultiFlyJump@ioBaseChar@@QBEHXZ	; ioBaseChar::GetUsedBuffMultiFlyJump
; Function compile flags: /Ogsp
;	COMDAT ?GetUsedBuffMultiFlyJump@ioBaseChar@@QBEHXZ
_TEXT	SEGMENT
?GetUsedBuffMultiFlyJump@ioBaseChar@@QBEHXZ PROC	; ioBaseChar::GetUsedBuffMultiFlyJump, COMDAT
; _this$ = ecx

; 2624 : 	inline int GetUsedBuffMultiFlyJump() const { return m_UsedBuffMultiFlyJump; }

  00000	8b 81 b4 0e 00
	00		 mov	 eax, DWORD PTR [ecx+3764]
  00006	c3		 ret	 0
?GetUsedBuffMultiFlyJump@ioBaseChar@@QBEHXZ ENDP	; ioBaseChar::GetUsedBuffMultiFlyJump
_TEXT	ENDS
PUBLIC	?GetJumpMoveStartTime@ioBaseChar@@QAEKXZ	; ioBaseChar::GetJumpMoveStartTime
; Function compile flags: /Ogsp
;	COMDAT ?GetJumpMoveStartTime@ioBaseChar@@QAEKXZ
_TEXT	SEGMENT
?GetJumpMoveStartTime@ioBaseChar@@QAEKXZ PROC		; ioBaseChar::GetJumpMoveStartTime, COMDAT
; _this$ = ecx

; 2625 : 	inline DWORD GetJumpMoveStartTime() { return m_dwJumpMoveStartTime; }

  00000	8b 81 80 0e 00
	00		 mov	 eax, DWORD PTR [ecx+3712]
  00006	c3		 ret	 0
?GetJumpMoveStartTime@ioBaseChar@@QAEKXZ ENDP		; ioBaseChar::GetJumpMoveStartTime
_TEXT	ENDS
PUBLIC	?SetUsedFlashJump@ioBaseChar@@QAEX_N@Z		; ioBaseChar::SetUsedFlashJump
; Function compile flags: /Ogsp
;	COMDAT ?SetUsedFlashJump@ioBaseChar@@QAEX_N@Z
_TEXT	SEGMENT
_bFlashJump$ = 8					; size = 1
?SetUsedFlashJump@ioBaseChar@@QAEX_N@Z PROC		; ioBaseChar::SetUsedFlashJump, COMDAT
; _this$ = ecx

; 2626 : 	inline void SetUsedFlashJump( bool bFlashJump ) { m_bUsedFlashJump = bFlashJump; }

  00000	55		 push	 ebp
  00001	8b ec		 mov	 ebp, esp
  00003	8a 45 08	 mov	 al, BYTE PTR _bFlashJump$[ebp]
  00006	88 81 9c 0e 00
	00		 mov	 BYTE PTR [ecx+3740], al
  0000c	5d		 pop	 ebp
  0000d	c2 04 00	 ret	 4
?SetUsedFlashJump@ioBaseChar@@QAEX_N@Z ENDP		; ioBaseChar::SetUsedFlashJump
_TEXT	ENDS
PUBLIC	?SetCurJumpPowerAmt@ioBaseChar@@QAEXM@Z		; ioBaseChar::SetCurJumpPowerAmt
; Function compile flags: /Ogsp
;	COMDAT ?SetCurJumpPowerAmt@ioBaseChar@@QAEXM@Z
_TEXT	SEGMENT
_fAmt$ = 8						; size = 4
?SetCurJumpPowerAmt@ioBaseChar@@QAEXM@Z PROC		; ioBaseChar::SetCurJumpPowerAmt, COMDAT
; _this$ = ecx

; 2628 : 	inline void SetCurJumpPowerAmt( float fAmt ) { m_fCurJumpPowerAmt = fAmt; }

  00000	55		 push	 ebp
  00001	8b ec		 mov	 ebp, esp
  00003	f3 0f 10 45 08	 movss	 xmm0, DWORD PTR _fAmt$[ebp]
  00008	f3 0f 11 81 90
	0e 00 00	 movss	 DWORD PTR [ecx+3728], xmm0
  00010	5d		 pop	 ebp
  00011	c2 04 00	 ret	 4
?SetCurJumpPowerAmt@ioBaseChar@@QAEXM@Z ENDP		; ioBaseChar::SetCurJumpPowerAmt
_TEXT	ENDS
PUBLIC	??_7bad_alloc@std@@6B@				; std::bad_alloc::`vftable'
PUBLIC	??0bad_alloc@std@@QAE@PBD@Z			; std::bad_alloc::bad_alloc
PUBLIC	??_R4bad_alloc@std@@6B@				; std::bad_alloc::`RTTI Complete Object Locator'
PUBLIC	??_R0?AVbad_alloc@std@@@8			; std::bad_alloc `RTTI Type Descriptor'
PUBLIC	??_R3bad_alloc@std@@8				; std::bad_alloc::`RTTI Class Hierarchy Descriptor'
PUBLIC	??_R2bad_alloc@std@@8				; std::bad_alloc::`RTTI Base Class Array'
PUBLIC	??_R1A@?0A@EA@bad_alloc@std@@8			; std::bad_alloc::`RTTI Base Class Descriptor at (0,-1,0,64)'
PUBLIC	??_R1A@?0A@EA@exception@std@@8			; std::exception::`RTTI Base Class Descriptor at (0,-1,0,64)'
PUBLIC	??_R0?AVexception@std@@@8			; std::exception `RTTI Type Descriptor'
PUBLIC	??_R3exception@std@@8				; std::exception::`RTTI Class Hierarchy Descriptor'
PUBLIC	??_R2exception@std@@8				; std::exception::`RTTI Base Class Array'
EXTRN	__imp_??0exception@std@@QAE@ABQBD@Z:PROC
EXTRN	??_7type_info@@6B@:QWORD			; type_info::`vftable'
EXTRN	??_Ebad_alloc@std@@UAEPAXI@Z:PROC		; std::bad_alloc::`vector deleting destructor'
EXTRN	?what@exception@std@@UBEPBDXZ:PROC		; std::exception::what
;	COMDAT ??_R2exception@std@@8
; File c:\program files (x86)\microsoft visual studio 10.0\vc\include\exception
rdata$r	SEGMENT
??_R2exception@std@@8 DD FLAT:??_R1A@?0A@EA@exception@std@@8 ; std::exception::`RTTI Base Class Array'
rdata$r	ENDS
;	COMDAT ??_R3exception@std@@8
rdata$r	SEGMENT
??_R3exception@std@@8 DD 00H				; std::exception::`RTTI Class Hierarchy Descriptor'
	DD	00H
	DD	01H
	DD	FLAT:??_R2exception@std@@8
rdata$r	ENDS
;	COMDAT ??_R0?AVexception@std@@@8
_DATA	SEGMENT
??_R0?AVexception@std@@@8 DD FLAT:??_7type_info@@6B@	; std::exception `RTTI Type Descriptor'
	DD	00H
	DB	'.?AVexception@std@@', 00H
_DATA	ENDS
;	COMDAT ??_R1A@?0A@EA@exception@std@@8
rdata$r	SEGMENT
??_R1A@?0A@EA@exception@std@@8 DD FLAT:??_R0?AVexception@std@@@8 ; std::exception::`RTTI Base Class Descriptor at (0,-1,0,64)'
	DD	00H
	DD	00H
	DD	0ffffffffH
	DD	00H
	DD	040H
	DD	FLAT:??_R3exception@std@@8
rdata$r	ENDS
;	COMDAT ??_R1A@?0A@EA@bad_alloc@std@@8
rdata$r	SEGMENT
??_R1A@?0A@EA@bad_alloc@std@@8 DD FLAT:??_R0?AVbad_alloc@std@@@8 ; std::bad_alloc::`RTTI Base Class Descriptor at (0,-1,0,64)'
	DD	01H
	DD	00H
	DD	0ffffffffH
	DD	00H
	DD	040H
	DD	FLAT:??_R3bad_alloc@std@@8
rdata$r	ENDS
;	COMDAT ??_R2bad_alloc@std@@8
rdata$r	SEGMENT
??_R2bad_alloc@std@@8 DD FLAT:??_R1A@?0A@EA@bad_alloc@std@@8 ; std::bad_alloc::`RTTI Base Class Array'
	DD	FLAT:??_R1A@?0A@EA@exception@std@@8
rdata$r	ENDS
;	COMDAT ??_R3bad_alloc@std@@8
rdata$r	SEGMENT
??_R3bad_alloc@std@@8 DD 00H				; std::bad_alloc::`RTTI Class Hierarchy Descriptor'
	DD	00H
	DD	02H
	DD	FLAT:??_R2bad_alloc@std@@8
rdata$r	ENDS
;	COMDAT ??_R0?AVbad_alloc@std@@@8
_DATA	SEGMENT
??_R0?AVbad_alloc@std@@@8 DD FLAT:??_7type_info@@6B@	; std::bad_alloc `RTTI Type Descriptor'
	DD	00H
	DB	'.?AVbad_alloc@std@@', 00H
_DATA	ENDS
;	COMDAT ??_R4bad_alloc@std@@6B@
rdata$r	SEGMENT
??_R4bad_alloc@std@@6B@ DD 00H				; std::bad_alloc::`RTTI Complete Object Locator'
	DD	00H
	DD	00H
	DD	FLAT:??_R0?AVbad_alloc@std@@@8
	DD	FLAT:??_R3bad_alloc@std@@8
rdata$r	ENDS
;	COMDAT ??_7bad_alloc@std@@6B@
CONST	SEGMENT
??_7bad_alloc@std@@6B@ DD FLAT:??_R4bad_alloc@std@@6B@	; std::bad_alloc::`vftable'
	DD	FLAT:??_Ebad_alloc@std@@UAEPAXI@Z
	DD	FLAT:?what@exception@std@@UBEPBDXZ
; Function compile flags: /Ogsp
CONST	ENDS
;	COMDAT ??0bad_alloc@std@@QAE@PBD@Z
_TEXT	SEGMENT
__Message$ = 8						; size = 4
??0bad_alloc@std@@QAE@PBD@Z PROC			; std::bad_alloc::bad_alloc, COMDAT
; _this$ = ecx

; 345  : 		{	// construct from message string

  00000	55		 push	 ebp
  00001	8b ec		 mov	 ebp, esp
  00003	56		 push	 esi
  00004	8d 45 08	 lea	 eax, DWORD PTR __Message$[ebp]
  00007	50		 push	 eax
  00008	8b f1		 mov	 esi, ecx
  0000a	ff 15 00 00 00
	00		 call	 DWORD PTR __imp_??0exception@std@@QAE@ABQBD@Z
  00010	c7 06 00 00 00
	00		 mov	 DWORD PTR [esi], OFFSET ??_7bad_alloc@std@@6B@

; 346  : 		}

  00016	8b c6		 mov	 eax, esi
  00018	5e		 pop	 esi
  00019	5d		 pop	 ebp
  0001a	c2 04 00	 ret	 4
??0bad_alloc@std@@QAE@PBD@Z ENDP			; std::bad_alloc::bad_alloc
_TEXT	ENDS
PUBLIC	??1bad_alloc@std@@UAE@XZ			; std::bad_alloc::~bad_alloc
EXTRN	__imp_??1exception@std@@UAE@XZ:PROC
; Function compile flags: /Ogsp
;	COMDAT ??1bad_alloc@std@@UAE@XZ
_TEXT	SEGMENT
??1bad_alloc@std@@UAE@XZ PROC				; std::bad_alloc::~bad_alloc, COMDAT
; _this$ = ecx

; 354  : 		{	// destroy the object

  00000	c7 01 00 00 00
	00		 mov	 DWORD PTR [ecx], OFFSET ??_7bad_alloc@std@@6B@

; 355  : 		}

  00006	ff 25 00 00 00
	00		 jmp	 DWORD PTR __imp_??1exception@std@@UAE@XZ
??1bad_alloc@std@@UAE@XZ ENDP				; std::bad_alloc::~bad_alloc
_TEXT	ENDS
EXTRN	??3@YAXPAX@Z:PROC				; operator delete
; Function compile flags: /Ogsp
;	COMDAT ??_Gbad_alloc@std@@UAEPAXI@Z
_TEXT	SEGMENT
___flags$ = 8						; size = 4
??_Gbad_alloc@std@@UAEPAXI@Z PROC			; std::bad_alloc::`scalar deleting destructor', COMDAT
; _this$ = ecx
  00000	55		 push	 ebp
  00001	8b ec		 mov	 ebp, esp
  00003	56		 push	 esi
  00004	8b f1		 mov	 esi, ecx
  00006	c7 06 00 00 00
	00		 mov	 DWORD PTR [esi], OFFSET ??_7bad_alloc@std@@6B@
  0000c	ff 15 00 00 00
	00		 call	 DWORD PTR __imp_??1exception@std@@UAE@XZ
  00012	f6 45 08 01	 test	 BYTE PTR ___flags$[ebp], 1
  00016	74 07		 je	 SHORT $LN1@scalar
  00018	56		 push	 esi
  00019	e8 00 00 00 00	 call	 ??3@YAXPAX@Z		; operator delete
  0001e	59		 pop	 ecx
$LN1@scalar:
  0001f	8b c6		 mov	 eax, esi
  00021	5e		 pop	 esi
  00022	5d		 pop	 ebp
  00023	c2 04 00	 ret	 4
??_Gbad_alloc@std@@UAEPAXI@Z ENDP			; std::bad_alloc::`scalar deleting destructor'
_TEXT	ENDS
PUBLIC	??2@YAPAXIPAX@Z					; operator new
; Function compile flags: /Ogsp
; File c:\program files (x86)\microsoft visual studio 10.0\vc\include\new
;	COMDAT ??2@YAPAXIPAX@Z
_TEXT	SEGMENT
___formal$ = 8						; size = 4
__Where$ = 12						; size = 4
??2@YAPAXIPAX@Z PROC					; operator new, COMDAT

; 56   : 	{	// construct array with placement at _Where

  00000	55		 push	 ebp
  00001	8b ec		 mov	 ebp, esp

; 57   : 	return (_Where);

  00003	8b 45 0c	 mov	 eax, DWORD PTR __Where$[ebp]

; 58   : 	}

  00006	5d		 pop	 ebp
  00007	c3		 ret	 0
??2@YAPAXIPAX@Z ENDP					; operator new
_TEXT	ENDS
PUBLIC	??3@YAXPAX0@Z					; operator delete
; Function compile flags: /Ogsp
;	COMDAT ??3@YAXPAX0@Z
_TEXT	SEGMENT
___formal$ = 8						; size = 4
___formal$ = 12						; size = 4
??3@YAXPAX0@Z PROC					; operator delete, COMDAT

; 62   : 	}

  00000	c3		 ret	 0
??3@YAXPAX0@Z ENDP					; operator delete
_TEXT	ENDS
PUBLIC	?_Adopt@_Iterator_base0@std@@QAEXPBX@Z		; std::_Iterator_base0::_Adopt
; Function compile flags: /Ogsp
; File c:\program files (x86)\microsoft visual studio 10.0\vc\include\xutility
;	COMDAT ?_Adopt@_Iterator_base0@std@@QAEXPBX@Z
_TEXT	SEGMENT
___formal$ = 8						; size = 4
?_Adopt@_Iterator_base0@std@@QAEXPBX@Z PROC		; std::_Iterator_base0::_Adopt, COMDAT
; _this$ = ecx

; 49   : 		}

  00000	c2 04 00	 ret	 4
?_Adopt@_Iterator_base0@std@@QAEXPBX@Z ENDP		; std::_Iterator_base0::_Adopt
_TEXT	ENDS
PUBLIC	??0D3DXVECTOR3@@QAE@XZ				; D3DXVECTOR3::D3DXVECTOR3
; Function compile flags: /Ogsp
; File c:\program files (x86)\microsoft directx sdk (june 2010)\include\d3dx9math.h
;	COMDAT ??0D3DXVECTOR3@@QAE@XZ
_TEXT	SEGMENT
??0D3DXVECTOR3@@QAE@XZ PROC				; D3DXVECTOR3::D3DXVECTOR3, COMDAT
; _this$ = ecx

; 165  :     D3DXVECTOR3() {};

  00000	8b c1		 mov	 eax, ecx
  00002	c3		 ret	 0
??0D3DXVECTOR3@@QAE@XZ ENDP				; D3DXVECTOR3::D3DXVECTOR3
_TEXT	ENDS
PUBLIC	??0D3DXQUATERNION@@QAE@XZ			; D3DXQUATERNION::D3DXQUATERNION
; Function compile flags: /Ogsp
;	COMDAT ??0D3DXQUATERNION@@QAE@XZ
_TEXT	SEGMENT
??0D3DXQUATERNION@@QAE@XZ PROC				; D3DXQUATERNION::D3DXQUATERNION, COMDAT
; _this$ = ecx

; 429  :     D3DXQUATERNION() {}

  00000	8b c1		 mov	 eax, ecx
  00002	c3		 ret	 0
??0D3DXQUATERNION@@QAE@XZ ENDP				; D3DXQUATERNION::D3DXQUATERNION
_TEXT	ENDS
PUBLIC	??0D3DXVECTOR3@@QAE@MMM@Z			; D3DXVECTOR3::D3DXVECTOR3
; Function compile flags: /Ogsp
; File c:\program files (x86)\microsoft directx sdk (june 2010)\include\d3dx9math.inl
;	COMDAT ??0D3DXVECTOR3@@QAE@MMM@Z
_TEXT	SEGMENT
_fx$ = 8						; size = 4
_fy$ = 12						; size = 4
_fz$ = 16						; size = 4
??0D3DXVECTOR3@@QAE@MMM@Z PROC				; D3DXVECTOR3::D3DXVECTOR3, COMDAT
; _this$ = ecx

; 303  : {

  00000	55		 push	 ebp
  00001	8b ec		 mov	 ebp, esp

; 304  :     x = fx;

  00003	f3 0f 10 45 08	 movss	 xmm0, DWORD PTR _fx$[ebp]
  00008	8b c1		 mov	 eax, ecx
  0000a	f3 0f 11 00	 movss	 DWORD PTR [eax], xmm0

; 305  :     y = fy;

  0000e	f3 0f 10 45 0c	 movss	 xmm0, DWORD PTR _fy$[ebp]
  00013	f3 0f 11 40 04	 movss	 DWORD PTR [eax+4], xmm0

; 306  :     z = fz;

  00018	f3 0f 10 45 10	 movss	 xmm0, DWORD PTR _fz$[ebp]
  0001d	f3 0f 11 40 08	 movss	 DWORD PTR [eax+8], xmm0

; 307  : }

  00022	5d		 pop	 ebp
  00023	c2 0c 00	 ret	 12			; 0000000cH
??0D3DXVECTOR3@@QAE@MMM@Z ENDP				; D3DXVECTOR3::D3DXVECTOR3
_TEXT	ENDS
PUBLIC	__mask@@NegFloat@
PUBLIC	??GD3DXVECTOR3@@QBE?AU0@XZ			; D3DXVECTOR3::operator-
;	COMDAT __mask@@NegFloat@
CONST	SEGMENT
__mask@@NegFloat@ DB 00H, 00H, 00H, 080H, 00H, 00H, 00H, 080H, 00H, 00H, 00H
	DB	080H, 00H, 00H, 00H, 080H
; Function compile flags: /Ogsp
CONST	ENDS
;	COMDAT ??GD3DXVECTOR3@@QBE?AU0@XZ
_TEXT	SEGMENT
___$ReturnUdt$ = 8					; size = 4
??GD3DXVECTOR3@@QBE?AU0@XZ PROC				; D3DXVECTOR3::operator-, COMDAT
; _this$ = ecx

; 372  : {

  00000	55		 push	 ebp
  00001	8b ec		 mov	 ebp, esp

; 373  :     return D3DXVECTOR3(-x, -y, -z);

  00003	f3 0f 10 05 00
	00 00 00	 movss	 xmm0, DWORD PTR __mask@@NegFloat@
  0000b	8b 45 08	 mov	 eax, DWORD PTR ___$ReturnUdt$[ebp]
  0000e	f3 0f 10 09	 movss	 xmm1, DWORD PTR [ecx]
  00012	0f 57 c8	 xorps	 xmm1, xmm0
  00015	f3 0f 11 08	 movss	 DWORD PTR [eax], xmm1
  00019	f3 0f 10 49 04	 movss	 xmm1, DWORD PTR [ecx+4]
  0001e	0f 57 c8	 xorps	 xmm1, xmm0
  00021	f3 0f 11 48 04	 movss	 DWORD PTR [eax+4], xmm1
  00026	f3 0f 10 49 08	 movss	 xmm1, DWORD PTR [ecx+8]
  0002b	0f 57 c8	 xorps	 xmm1, xmm0
  0002e	f3 0f 11 48 08	 movss	 DWORD PTR [eax+8], xmm1

; 374  : }

  00033	5d		 pop	 ebp
  00034	c2 04 00	 ret	 4
??GD3DXVECTOR3@@QBE?AU0@XZ ENDP				; D3DXVECTOR3::operator-
_TEXT	ENDS
PUBLIC	?GetType@ioParkilpyoJump@@UBE?AW4JumpType@@XZ	; ioParkilpyoJump::GetType
; Function compile flags: /Ogsp
; File d:\lost saga for developer\youtube\tutorial\source\src\lsclient\ioparkilpyojump.cpp
;	COMDAT ?GetType@ioParkilpyoJump@@UBE?AW4JumpType@@XZ
_TEXT	SEGMENT
?GetType@ioParkilpyoJump@@UBE?AW4JumpType@@XZ PROC	; ioParkilpyoJump::GetType, COMDAT
; _this$ = ecx

; 90   : 	return JT_PARKILPYO_JUMP;

  00000	6a 25		 push	 37			; 00000025H
  00002	58		 pop	 eax

; 91   : }

  00003	c3		 ret	 0
?GetType@ioParkilpyoJump@@UBE?AW4JumpType@@XZ ENDP	; ioParkilpyoJump::GetType
_TEXT	ENDS
PUBLIC	?SetJumpping@ioParkilpyoJump@@UAEXPAVioBaseChar@@_N@Z ; ioParkilpyoJump::SetJumpping
; Function compile flags: /Ogsp
;	COMDAT ?SetJumpping@ioParkilpyoJump@@UAEXPAVioBaseChar@@_N@Z
_TEXT	SEGMENT
_pOwner$ = 8						; size = 4
_bFullTime$ = 12					; size = 1
?SetJumpping@ioParkilpyoJump@@UAEXPAVioBaseChar@@_N@Z PROC ; ioParkilpyoJump::SetJumpping, COMDAT
; _this$ = ecx

; 147  : {

  00000	55		 push	 ebp
  00001	8b ec		 mov	 ebp, esp

; 148  : 	m_ChargeComboState = CCS_NONE;
; 149  : 	pOwner->SetUsedFlashJump( false );

  00003	8b 55 08	 mov	 edx, DWORD PTR _pOwner$[ebp]
  00006	33 c0		 xor	 eax, eax
  00008	89 81 f0 01 00
	00		 mov	 DWORD PTR [ecx+496], eax
  0000e	88 82 9c 0e 00
	00		 mov	 BYTE PTR [edx+3740], al

; 150  : 
; 151  : 	m_bUseExtendJump = false;

  00014	88 41 10	 mov	 BYTE PTR [ecx+16], al

; 152  : 	m_bUsedDoubleJump = false;

  00017	66 89 81 10 02
	00 00		 mov	 WORD PTR [ecx+528], ax

; 153  : 	m_bUsedChargeAttack = false;
; 154  : 
; 155  : 	// combo
; 156  : 	m_nCurComboCnt = 0;

  0001e	89 81 fc 01 00
	00		 mov	 DWORD PTR [ecx+508], eax

; 157  : 	m_dwEnableComboTime_S = 0;

  00024	89 81 00 02 00
	00		 mov	 DWORD PTR [ecx+512], eax

; 158  : 	m_dwEnableComboTime_E = 0;

  0002a	89 81 04 02 00
	00		 mov	 DWORD PTR [ecx+516], eax

; 159  : 
; 160  : 	m_bReserveJumpAttack = false;

  00030	88 81 08 02 00
	00		 mov	 BYTE PTR [ecx+520], al

; 161  : 
; 162  : 	// gather
; 163  : 	m_dwChargingStartTime = 0;

  00036	89 81 f4 01 00
	00		 mov	 DWORD PTR [ecx+500], eax

; 164  : 	m_dwGatherStartTime = 0;

  0003c	89 81 f8 01 00
	00		 mov	 DWORD PTR [ecx+504], eax

; 165  : 
; 166  : 	m_dwReserveEnableTime = 0;

  00042	89 81 e8 00 00
	00		 mov	 DWORD PTR [ecx+232], eax

; 167  : 	m_nCurJumpCnt = 1;

  00048	c7 81 0c 02 00
	00 01 00 00 00	 mov	 DWORD PTR [ecx+524], 1

; 168  : }

  00052	5d		 pop	 ebp
  00053	c2 08 00	 ret	 8
?SetJumpping@ioParkilpyoJump@@UAEXPAVioBaseChar@@_N@Z ENDP ; ioParkilpyoJump::SetJumpping
_TEXT	ENDS
PUBLIC	?SetLandingState@ioParkilpyoJump@@UAEXPAVioBaseChar@@@Z ; ioParkilpyoJump::SetLandingState
; Function compile flags: /Ogsp
;	COMDAT ?SetLandingState@ioParkilpyoJump@@UAEXPAVioBaseChar@@@Z
_TEXT	SEGMENT
_pOwner$ = 8						; size = 4
?SetLandingState@ioParkilpyoJump@@UAEXPAVioBaseChar@@@Z PROC ; ioParkilpyoJump::SetLandingState, COMDAT
; _this$ = ecx

; 329  : {

  00000	55		 push	 ebp
  00001	8b ec		 mov	 ebp, esp

; 330  : 	m_bUseExtendJump = false;

  00003	33 c0		 xor	 eax, eax
  00005	88 41 10	 mov	 BYTE PTR [ecx+16], al

; 331  : 	m_bUsedDoubleJump = false;

  00008	66 89 81 10 02
	00 00		 mov	 WORD PTR [ecx+528], ax

; 332  : 	m_bUsedChargeAttack = false;
; 333  : 	m_ChargeComboState = CCS_NONE;

  0000f	89 81 f0 01 00
	00		 mov	 DWORD PTR [ecx+496], eax

; 334  : 
; 335  : 	m_nCurComboCnt = 0;

  00015	89 81 fc 01 00
	00		 mov	 DWORD PTR [ecx+508], eax

; 336  : 	m_dwEnableComboTime_S = 0;

  0001b	89 81 00 02 00
	00		 mov	 DWORD PTR [ecx+512], eax

; 337  : 	m_dwEnableComboTime_E = 0;

  00021	89 81 04 02 00
	00		 mov	 DWORD PTR [ecx+516], eax

; 338  : 
; 339  : 	m_bReserveJumpAttack = false;

  00027	88 81 08 02 00
	00		 mov	 BYTE PTR [ecx+520], al

; 340  : 
; 341  : 	pOwner->SetUsedFlashJump( false );

  0002d	8b 4d 08	 mov	 ecx, DWORD PTR _pOwner$[ebp]
  00030	88 81 9c 0e 00
	00		 mov	 BYTE PTR [ecx+3740], al

; 342  : }

  00036	5d		 pop	 ebp
  00037	c2 04 00	 ret	 4
?SetLandingState@ioParkilpyoJump@@UAEXPAVioBaseChar@@@Z ENDP ; ioParkilpyoJump::SetLandingState
_TEXT	ENDS
PUBLIC	?IsNoProcessGravity@ioParkilpyoJump@@QAE_NXZ	; ioParkilpyoJump::IsNoProcessGravity
; Function compile flags: /Ogsp
;	COMDAT ?IsNoProcessGravity@ioParkilpyoJump@@QAE_NXZ
_TEXT	SEGMENT
?IsNoProcessGravity@ioParkilpyoJump@@QAE_NXZ PROC	; ioParkilpyoJump::IsNoProcessGravity, COMDAT
; _this$ = ecx

; 406  : 	if ( m_bApplyGravity )

  00000	80 b9 ec 01 00
	00 00		 cmp	 BYTE PTR [ecx+492], 0
  00007	74 03		 je	 SHORT $LN4@IsNoProces
$LN7@IsNoProces:

; 407  : 		return false;

  00009	32 c0		 xor	 al, al

; 417  : }

  0000b	c3		 ret	 0
$LN4@IsNoProces:

; 408  : 
; 409  : 	switch( m_ChargeComboState )

  0000c	8b 81 f0 01 00
	00		 mov	 eax, DWORD PTR [ecx+496]
  00012	83 e8 03	 sub	 eax, 3
  00015	74 04		 je	 SHORT $LN1@IsNoProces
  00017	48		 dec	 eax
  00018	48		 dec	 eax

; 414  : 	}
; 415  : 
; 416  : 	return false;

  00019	75 ee		 jne	 SHORT $LN7@IsNoProces
$LN1@IsNoProces:

; 410  : 	{
; 411  : 	case CCS_GATHER:
; 412  : 	case CCS_EQUIP_OBJECT:
; 413  : 		return true;

  0001b	b0 01		 mov	 al, 1

; 417  : }

  0001d	c3		 ret	 0
?IsNoProcessGravity@ioParkilpyoJump@@QAE_NXZ ENDP	; ioParkilpyoJump::IsNoProcessGravity
_TEXT	ENDS
PUBLIC	?ProcessAirJump@ioParkilpyoJump@@IAEXPAVioBaseChar@@@Z ; ioParkilpyoJump::ProcessAirJump
EXTRN	__imp_?GetLoopSec@ioFrameTimer@@QBEKXZ:PROC
EXTRN	__imp_?GetSingleton@ioFrameTimer@@SAAAV1@XZ:PROC
; Function compile flags: /Ogsp
;	COMDAT ?ProcessAirJump@ioParkilpyoJump@@IAEXPAVioBaseChar@@@Z
_TEXT	SEGMENT
_pOwner$ = 8						; size = 4
?ProcessAirJump@ioParkilpyoJump@@IAEXPAVioBaseChar@@@Z PROC ; ioParkilpyoJump::ProcessAirJump, COMDAT
; _this$ = ecx

; 821  : {

  00000	55		 push	 ebp
  00001	8b ec		 mov	 ebp, esp

; 822  : 	if( !pOwner ) return;

  00003	83 7d 08 00	 cmp	 DWORD PTR _pOwner$[ebp], 0
  00007	56		 push	 esi
  00008	8b f1		 mov	 esi, ecx
  0000a	74 18		 je	 SHORT $LN2@ProcessAir

; 823  : 
; 824  : 	DWORD dwCurTime = FRAMEGETTIME();

  0000c	ff 15 00 00 00
	00		 call	 DWORD PTR __imp_?GetSingleton@ioFrameTimer@@SAAAV1@XZ
  00012	8b c8		 mov	 ecx, eax
  00014	ff 15 00 00 00
	00		 call	 DWORD PTR __imp_?GetLoopSec@ioFrameTimer@@QBEKXZ

; 825  : 	DWORD dwLooseTime = pOwner->GetActionStopTotalDelay();
; 826  : 
; 827  : 	CheckAirJump( pOwner );

  0001a	ff 75 08	 push	 DWORD PTR _pOwner$[ebp]
  0001d	8b 06		 mov	 eax, DWORD PTR [esi]
  0001f	8b ce		 mov	 ecx, esi
  00021	ff 50 7c	 call	 DWORD PTR [eax+124]
$LN2@ProcessAir:
  00024	5e		 pop	 esi

; 828  : }

  00025	5d		 pop	 ebp
  00026	c2 04 00	 ret	 4
?ProcessAirJump@ioParkilpyoJump@@IAEXPAVioBaseChar@@@Z ENDP ; ioParkilpyoJump::ProcessAirJump
_TEXT	ENDS
PUBLIC	?IsChargeAttackState@ioParkilpyoJump@@QAE_NXZ	; ioParkilpyoJump::IsChargeAttackState
; Function compile flags: /Ogsp
;	COMDAT ?IsChargeAttackState@ioParkilpyoJump@@QAE_NXZ
_TEXT	SEGMENT
?IsChargeAttackState@ioParkilpyoJump@@QAE_NXZ PROC	; ioParkilpyoJump::IsChargeAttackState, COMDAT
; _this$ = ecx

; 994  : 	return m_bUsedChargeAttack;

  00000	8a 81 11 02 00
	00		 mov	 al, BYTE PTR [ecx+529]

; 995  : }

  00006	c3		 ret	 0
?IsChargeAttackState@ioParkilpyoJump@@QAE_NXZ ENDP	; ioParkilpyoJump::IsChargeAttackState
_TEXT	ENDS
PUBLIC	??A?$vector@VioHashString@@V?$allocator@VioHashString@@@std@@@std@@QAEAAVioHashString@@I@Z ; std::vector<ioHashString,std::allocator<ioHashString> >::operator[]
; Function compile flags: /Ogsp
; File c:\program files (x86)\microsoft visual studio 10.0\vc\include\vector
;	COMDAT ??A?$vector@VioHashString@@V?$allocator@VioHashString@@@std@@@std@@QAEAAVioHashString@@I@Z
_TEXT	SEGMENT
__Pos$ = 8						; size = 4
??A?$vector@VioHashString@@V?$allocator@VioHashString@@@std@@@std@@QAEAAVioHashString@@I@Z PROC ; std::vector<ioHashString,std::allocator<ioHashString> >::operator[], COMDAT
; _this$ = ecx

; 928  : 		{	// subscript mutable sequence

  00000	55		 push	 ebp
  00001	8b ec		 mov	 ebp, esp

; 929  :  #if _ITERATOR_DEBUG_LEVEL == 2
; 930  : 		if (size() <= _Pos)
; 931  : 			{	// report error
; 932  : 			_DEBUG_ERROR("vector subscript out of range");
; 933  : 			_SCL_SECURE_OUT_OF_RANGE;
; 934  : 			}
; 935  : 
; 936  :  #elif _ITERATOR_DEBUG_LEVEL == 1
; 937  : 		_SCL_SECURE_VALIDATE_RANGE(_Pos < size());
; 938  :  #endif /* _ITERATOR_DEBUG_LEVEL */
; 939  : 
; 940  : 		return (*(this->_Myfirst + _Pos));

  00003	8b 45 08	 mov	 eax, DWORD PTR __Pos$[ebp]
  00006	c1 e0 04	 shl	 eax, 4
  00009	03 01		 add	 eax, DWORD PTR [ecx]

; 941  : 		}

  0000b	5d		 pop	 ebp
  0000c	c2 04 00	 ret	 4
??A?$vector@VioHashString@@V?$allocator@VioHashString@@@std@@@std@@QAEAAVioHashString@@I@Z ENDP ; std::vector<ioHashString,std::allocator<ioHashString> >::operator[]
_TEXT	ENDS
PUBLIC	?size@?$vector@UAttackAttribute@@V?$allocator@UAttackAttribute@@@std@@@std@@QBEIXZ ; std::vector<AttackAttribute,std::allocator<AttackAttribute> >::size
; Function compile flags: /Ogsp
;	COMDAT ?size@?$vector@UAttackAttribute@@V?$allocator@UAttackAttribute@@@std@@@std@@QBEIXZ
_TEXT	SEGMENT
?size@?$vector@UAttackAttribute@@V?$allocator@UAttackAttribute@@@std@@@std@@QBEIXZ PROC ; std::vector<AttackAttribute,std::allocator<AttackAttribute> >::size, COMDAT
; _this$ = ecx

; 879  : 		return (this->_Mylast - this->_Myfirst);

  00000	8b 41 04	 mov	 eax, DWORD PTR [ecx+4]
  00003	2b 01		 sub	 eax, DWORD PTR [ecx]
  00005	6a 50		 push	 80			; 00000050H
  00007	99		 cdq
  00008	59		 pop	 ecx
  00009	f7 f9		 idiv	 ecx

; 880  : 		}

  0000b	c3		 ret	 0
?size@?$vector@UAttackAttribute@@V?$allocator@UAttackAttribute@@@std@@@std@@QBEIXZ ENDP ; std::vector<AttackAttribute,std::allocator<AttackAttribute> >::size
_TEXT	ENDS
PUBLIC	??A?$vector@UAttackAttribute@@V?$allocator@UAttackAttribute@@@std@@@std@@QAEAAUAttackAttribute@@I@Z ; std::vector<AttackAttribute,std::allocator<AttackAttribute> >::operator[]
; Function compile flags: /Ogsp
;	COMDAT ??A?$vector@UAttackAttribute@@V?$allocator@UAttackAttribute@@@std@@@std@@QAEAAUAttackAttribute@@I@Z
_TEXT	SEGMENT
__Pos$ = 8						; size = 4
??A?$vector@UAttackAttribute@@V?$allocator@UAttackAttribute@@@std@@@std@@QAEAAUAttackAttribute@@I@Z PROC ; std::vector<AttackAttribute,std::allocator<AttackAttribute> >::operator[], COMDAT
; _this$ = ecx

; 928  : 		{	// subscript mutable sequence

  00000	55		 push	 ebp
  00001	8b ec		 mov	 ebp, esp

; 929  :  #if _ITERATOR_DEBUG_LEVEL == 2
; 930  : 		if (size() <= _Pos)
; 931  : 			{	// report error
; 932  : 			_DEBUG_ERROR("vector subscript out of range");
; 933  : 			_SCL_SECURE_OUT_OF_RANGE;
; 934  : 			}
; 935  : 
; 936  :  #elif _ITERATOR_DEBUG_LEVEL == 1
; 937  : 		_SCL_SECURE_VALIDATE_RANGE(_Pos < size());
; 938  :  #endif /* _ITERATOR_DEBUG_LEVEL */
; 939  : 
; 940  : 		return (*(this->_Myfirst + _Pos));

  00003	8b 45 08	 mov	 eax, DWORD PTR __Pos$[ebp]
  00006	6b c0 50	 imul	 eax, 80			; 00000050H
  00009	03 01		 add	 eax, DWORD PTR [ecx]

; 941  : 		}

  0000b	5d		 pop	 ebp
  0000c	c2 04 00	 ret	 4
??A?$vector@UAttackAttribute@@V?$allocator@UAttackAttribute@@@std@@@std@@QAEAAUAttackAttribute@@I@Z ENDP ; std::vector<AttackAttribute,std::allocator<AttackAttribute> >::operator[]
_TEXT	ENDS
PUBLIC	?capacity@?$vector@VioHashString@@V?$allocator@VioHashString@@@std@@@std@@QBEIXZ ; std::vector<ioHashString,std::allocator<ioHashString> >::capacity
; Function compile flags: /Ogsp
;	COMDAT ?capacity@?$vector@VioHashString@@V?$allocator@VioHashString@@@std@@@std@@QBEIXZ
_TEXT	SEGMENT
?capacity@?$vector@VioHashString@@V?$allocator@VioHashString@@@std@@@std@@QBEIXZ PROC ; std::vector<ioHashString,std::allocator<ioHashString> >::capacity, COMDAT
; _this$ = ecx

; 777  : 		return (this->_Myend - this->_Myfirst);

  00000	8b 41 08	 mov	 eax, DWORD PTR [ecx+8]
  00003	2b 01		 sub	 eax, DWORD PTR [ecx]
  00005	c1 f8 04	 sar	 eax, 4

; 778  : 		}

  00008	c3		 ret	 0
?capacity@?$vector@VioHashString@@V?$allocator@VioHashString@@@std@@@std@@QBEIXZ ENDP ; std::vector<ioHashString,std::allocator<ioHashString> >::capacity
_TEXT	ENDS
PUBLIC	?_Inside@?$vector@VioHashString@@V?$allocator@VioHashString@@@std@@@std@@IBE_NPBVioHashString@@@Z ; std::vector<ioHashString,std::allocator<ioHashString> >::_Inside
; Function compile flags: /Ogsp
;	COMDAT ?_Inside@?$vector@VioHashString@@V?$allocator@VioHashString@@@std@@@std@@IBE_NPBVioHashString@@@Z
_TEXT	SEGMENT
__Ptr$ = 8						; size = 4
?_Inside@?$vector@VioHashString@@V?$allocator@VioHashString@@@std@@@std@@IBE_NPBVioHashString@@@Z PROC ; std::vector<ioHashString,std::allocator<ioHashString> >::_Inside, COMDAT
; _this$ = ecx

; 1285 : 		{	// test if _Ptr points inside vector

  00000	55		 push	 ebp
  00001	8b ec		 mov	 ebp, esp

; 1286 : 		return (_Ptr < this->_Mylast && this->_Myfirst <= _Ptr);

  00003	8b 45 08	 mov	 eax, DWORD PTR __Ptr$[ebp]
  00006	3b 41 04	 cmp	 eax, DWORD PTR [ecx+4]
  00009	73 09		 jae	 SHORT $LN3@Inside
  0000b	39 01		 cmp	 DWORD PTR [ecx], eax
  0000d	77 05		 ja	 SHORT $LN3@Inside
  0000f	33 c0		 xor	 eax, eax
  00011	40		 inc	 eax
  00012	eb 02		 jmp	 SHORT $LN4@Inside
$LN3@Inside:
  00014	33 c0		 xor	 eax, eax
$LN4@Inside:

; 1287 : 		}

  00016	5d		 pop	 ebp
  00017	c2 04 00	 ret	 4
?_Inside@?$vector@VioHashString@@V?$allocator@VioHashString@@@std@@@std@@IBE_NPBVioHashString@@@Z ENDP ; std::vector<ioHashString,std::allocator<ioHashString> >::_Inside
_TEXT	ENDS
PUBLIC	?_Orphan_range@?$vector@VioHashString@@V?$allocator@VioHashString@@@std@@@std@@IBEXPAVioHashString@@0@Z ; std::vector<ioHashString,std::allocator<ioHashString> >::_Orphan_range
; Function compile flags: /Ogsp
;	COMDAT ?_Orphan_range@?$vector@VioHashString@@V?$allocator@VioHashString@@@std@@@std@@IBEXPAVioHashString@@0@Z
_TEXT	SEGMENT
___formal$ = 8						; size = 4
___formal$ = 12						; size = 4
?_Orphan_range@?$vector@VioHashString@@V?$allocator@VioHashString@@@std@@@std@@IBEXPAVioHashString@@0@Z PROC ; std::vector<ioHashString,std::allocator<ioHashString> >::_Orphan_range, COMDAT
; _this$ = ecx

; 1454 : 		}

  00000	c2 08 00	 ret	 8
?_Orphan_range@?$vector@VioHashString@@V?$allocator@VioHashString@@@std@@@std@@IBEXPAVioHashString@@0@Z ENDP ; std::vector<ioHashString,std::allocator<ioHashString> >::_Orphan_range
_TEXT	ENDS
PUBLIC	?_Inside@?$vector@UAttackAttribute@@V?$allocator@UAttackAttribute@@@std@@@std@@IBE_NPBUAttackAttribute@@@Z ; std::vector<AttackAttribute,std::allocator<AttackAttribute> >::_Inside
; Function compile flags: /Ogsp
;	COMDAT ?_Inside@?$vector@UAttackAttribute@@V?$allocator@UAttackAttribute@@@std@@@std@@IBE_NPBUAttackAttribute@@@Z
_TEXT	SEGMENT
__Ptr$ = 8						; size = 4
?_Inside@?$vector@UAttackAttribute@@V?$allocator@UAttackAttribute@@@std@@@std@@IBE_NPBUAttackAttribute@@@Z PROC ; std::vector<AttackAttribute,std::allocator<AttackAttribute> >::_Inside, COMDAT
; _this$ = ecx

; 1285 : 		{	// test if _Ptr points inside vector

  00000	55		 push	 ebp
  00001	8b ec		 mov	 ebp, esp

; 1286 : 		return (_Ptr < this->_Mylast && this->_Myfirst <= _Ptr);

  00003	8b 45 08	 mov	 eax, DWORD PTR __Ptr$[ebp]
  00006	3b 41 04	 cmp	 eax, DWORD PTR [ecx+4]
  00009	73 09		 jae	 SHORT $LN3@Inside@2
  0000b	39 01		 cmp	 DWORD PTR [ecx], eax
  0000d	77 05		 ja	 SHORT $LN3@Inside@2
  0000f	33 c0		 xor	 eax, eax
  00011	40		 inc	 eax
  00012	eb 02		 jmp	 SHORT $LN4@Inside@2
$LN3@Inside@2:
  00014	33 c0		 xor	 eax, eax
$LN4@Inside@2:

; 1287 : 		}

  00016	5d		 pop	 ebp
  00017	c2 04 00	 ret	 4
?_Inside@?$vector@UAttackAttribute@@V?$allocator@UAttackAttribute@@@std@@@std@@IBE_NPBUAttackAttribute@@@Z ENDP ; std::vector<AttackAttribute,std::allocator<AttackAttribute> >::_Inside
_TEXT	ENDS
PUBLIC	?_Orphan_range@?$vector@UAttackAttribute@@V?$allocator@UAttackAttribute@@@std@@@std@@IBEXPAUAttackAttribute@@0@Z ; std::vector<AttackAttribute,std::allocator<AttackAttribute> >::_Orphan_range
; Function compile flags: /Ogsp
;	COMDAT ?_Orphan_range@?$vector@UAttackAttribute@@V?$allocator@UAttackAttribute@@@std@@@std@@IBEXPAUAttackAttribute@@0@Z
_TEXT	SEGMENT
___formal$ = 8						; size = 4
___formal$ = 12						; size = 4
?_Orphan_range@?$vector@UAttackAttribute@@V?$allocator@UAttackAttribute@@@std@@@std@@IBEXPAUAttackAttribute@@0@Z PROC ; std::vector<AttackAttribute,std::allocator<AttackAttribute> >::_Orphan_range, COMDAT
; _this$ = ecx

; 1454 : 		}

  00000	c2 08 00	 ret	 8
?_Orphan_range@?$vector@UAttackAttribute@@V?$allocator@UAttackAttribute@@@std@@@std@@IBEXPAUAttackAttribute@@0@Z ENDP ; std::vector<AttackAttribute,std::allocator<AttackAttribute> >::_Orphan_range
_TEXT	ENDS
PUBLIC	?capacity@?$vector@UAttackAttribute@@V?$allocator@UAttackAttribute@@@std@@@std@@QBEIXZ ; std::vector<AttackAttribute,std::allocator<AttackAttribute> >::capacity
; Function compile flags: /Ogsp
;	COMDAT ?capacity@?$vector@UAttackAttribute@@V?$allocator@UAttackAttribute@@@std@@@std@@QBEIXZ
_TEXT	SEGMENT
?capacity@?$vector@UAttackAttribute@@V?$allocator@UAttackAttribute@@@std@@@std@@QBEIXZ PROC ; std::vector<AttackAttribute,std::allocator<AttackAttribute> >::capacity, COMDAT
; _this$ = ecx

; 777  : 		return (this->_Myend - this->_Myfirst);

  00000	8b 41 08	 mov	 eax, DWORD PTR [ecx+8]
  00003	2b 01		 sub	 eax, DWORD PTR [ecx]
  00005	6a 50		 push	 80			; 00000050H
  00007	99		 cdq
  00008	59		 pop	 ecx
  00009	f7 f9		 idiv	 ecx

; 778  : 		}

  0000b	c3		 ret	 0
?capacity@?$vector@UAttackAttribute@@V?$allocator@UAttackAttribute@@@std@@@std@@QBEIXZ ENDP ; std::vector<AttackAttribute,std::allocator<AttackAttribute> >::capacity
_TEXT	ENDS
PUBLIC	??_C@_0BD@OLBABOEK@vector?$DMT?$DO?5too?5long?$AA@ ; `string'
PUBLIC	?_Xlen@?$vector@UAttackAttribute@@V?$allocator@UAttackAttribute@@@std@@@std@@IBEXXZ ; std::vector<AttackAttribute,std::allocator<AttackAttribute> >::_Xlen
EXTRN	__imp_?_Xlength_error@std@@YAXPBD@Z:PROC
;	COMDAT ??_C@_0BD@OLBABOEK@vector?$DMT?$DO?5too?5long?$AA@
CONST	SEGMENT
??_C@_0BD@OLBABOEK@vector?$DMT?$DO?5too?5long?$AA@ DB 'vector<T> too long'
	DB	00H						; `string'
; Function compile flags: /Ogsp
CONST	ENDS
;	COMDAT ?_Xlen@?$vector@UAttackAttribute@@V?$allocator@UAttackAttribute@@@std@@@std@@IBEXXZ
_TEXT	SEGMENT
?_Xlen@?$vector@UAttackAttribute@@V?$allocator@UAttackAttribute@@@std@@@std@@IBEXXZ PROC ; std::vector<AttackAttribute,std::allocator<AttackAttribute> >::_Xlen, COMDAT
; _this$ = ecx

; 1427 : 		_Xlength_error("vector<T> too long");

  00000	68 00 00 00 00	 push	 OFFSET ??_C@_0BD@OLBABOEK@vector?$DMT?$DO?5too?5long?$AA@
  00005	ff 15 00 00 00
	00		 call	 DWORD PTR __imp_?_Xlength_error@std@@YAXPBD@Z
$LN4@Xlen:
$LN3@Xlen:
  0000b	cc		 int	 3
?_Xlen@?$vector@UAttackAttribute@@V?$allocator@UAttackAttribute@@@std@@@std@@IBEXXZ ENDP ; std::vector<AttackAttribute,std::allocator<AttackAttribute> >::_Xlen
_TEXT	ENDS
PUBLIC	?max_size@?$allocator@UAttackAttribute@@@std@@QBEIXZ ; std::allocator<AttackAttribute>::max_size
; Function compile flags: /Ogsp
; File c:\program files (x86)\microsoft visual studio 10.0\vc\include\xmemory
;	COMDAT ?max_size@?$allocator@UAttackAttribute@@@std@@QBEIXZ
_TEXT	SEGMENT
?max_size@?$allocator@UAttackAttribute@@@std@@QBEIXZ PROC ; std::allocator<AttackAttribute>::max_size, COMDAT
; _this$ = ecx

; 218  : 		_SIZT _Count = (_SIZT)(-1) / sizeof (_Ty);
; 219  : 		return (0 < _Count ? _Count : 1);

  00000	b8 33 33 33 03	 mov	 eax, 53687091		; 03333333H

; 220  : 		}

  00005	c3		 ret	 0
?max_size@?$allocator@UAttackAttribute@@@std@@QBEIXZ ENDP ; std::allocator<AttackAttribute>::max_size
_TEXT	ENDS
PUBLIC	__real@3f91df46a2526c7a
PUBLIC	??$DEGtoRAD@M@@YAMM@Z				; DEGtoRAD<float>
;	COMDAT __real@3f91df46a2526c7a
; File d:\lost saga for developer\youtube\tutorial\source\src\lsclient\veryoftenusedefine.h
CONST	SEGMENT
__real@3f91df46a2526c7a DQ 03f91df46a2526c7ar	; 0.0174533
; Function compile flags: /Ogsp
CONST	ENDS
;	COMDAT ??$DEGtoRAD@M@@YAMM@Z
_TEXT	SEGMENT
tv129 = 8						; size = 4
_val$ = 8						; size = 4
??$DEGtoRAD@M@@YAMM@Z PROC				; DEGtoRAD<float>, COMDAT

; 20   : type  DEGtoRAD (type val) {return (type) (val * 0.0174532925199);}

  00000	55		 push	 ebp
  00001	8b ec		 mov	 ebp, esp
  00003	d9 45 08	 fld	 DWORD PTR _val$[ebp]
  00006	dc 0d 00 00 00
	00		 fmul	 QWORD PTR __real@3f91df46a2526c7a
  0000c	d9 5d 08	 fstp	 DWORD PTR tv129[ebp]
  0000f	d9 45 08	 fld	 DWORD PTR tv129[ebp]
  00012	5d		 pop	 ebp
  00013	c3		 ret	 0
??$DEGtoRAD@M@@YAMM@Z ENDP				; DEGtoRAD<float>
_TEXT	ENDS
PUBLIC	??$addressof@$$CBVioHashString@@@std@@YAPBVioHashString@@ABV1@@Z ; std::addressof<ioHashString const >
; Function compile flags: /Ogsp
; File c:\program files (x86)\microsoft visual studio 10.0\vc\include\xmemory
;	COMDAT ??$addressof@$$CBVioHashString@@@std@@YAPBVioHashString@@ABV1@@Z
_TEXT	SEGMENT
__Val$ = 8						; size = 4
??$addressof@$$CBVioHashString@@@std@@YAPBVioHashString@@ABV1@@Z PROC ; std::addressof<ioHashString const >, COMDAT

; 110  : 	{	// return address of _Val

  00000	55		 push	 ebp
  00001	8b ec		 mov	 ebp, esp

; 111  : 	return ((_Ty *) &(char&)_Val);

  00003	8b 45 08	 mov	 eax, DWORD PTR __Val$[ebp]

; 112  : 	}

  00006	5d		 pop	 ebp
  00007	c3		 ret	 0
??$addressof@$$CBVioHashString@@@std@@YAPBVioHashString@@ABV1@@Z ENDP ; std::addressof<ioHashString const >
_TEXT	ENDS
PUBLIC	??$addressof@$$CBUAttackAttribute@@@std@@YAPBUAttackAttribute@@ABU1@@Z ; std::addressof<AttackAttribute const >
; Function compile flags: /Ogsp
;	COMDAT ??$addressof@$$CBUAttackAttribute@@@std@@YAPBUAttackAttribute@@ABU1@@Z
_TEXT	SEGMENT
__Val$ = 8						; size = 4
??$addressof@$$CBUAttackAttribute@@@std@@YAPBUAttackAttribute@@ABU1@@Z PROC ; std::addressof<AttackAttribute const >, COMDAT

; 110  : 	{	// return address of _Val

  00000	55		 push	 ebp
  00001	8b ec		 mov	 ebp, esp

; 111  : 	return ((_Ty *) &(char&)_Val);

  00003	8b 45 08	 mov	 eax, DWORD PTR __Val$[ebp]

; 112  : 	}

  00006	5d		 pop	 ebp
  00007	c3		 ret	 0
??$addressof@$$CBUAttackAttribute@@@std@@YAPBUAttackAttribute@@ABU1@@Z ENDP ; std::addressof<AttackAttribute const >
_TEXT	ENDS
PUBLIC	__TI2?AVbad_alloc@std@@
PUBLIC	??$_Allocate@UAttackAttribute@@@std@@YAPAUAttackAttribute@@IPAU1@@Z ; std::_Allocate<AttackAttribute>
PUBLIC	__CTA2?AVbad_alloc@std@@
PUBLIC	__CT??_R0?AVbad_alloc@std@@@8??0bad_alloc@std@@QAE@ABV01@@Z12
PUBLIC	??0bad_alloc@std@@QAE@ABV01@@Z			; std::bad_alloc::bad_alloc
PUBLIC	__CT??_R0?AVexception@std@@@8??0exception@std@@QAE@ABV01@@Z12
EXTRN	??2@YAPAXI@Z:PROC				; operator new
EXTRN	__CxxThrowException@8:PROC
EXTRN	??0exception@std@@QAE@ABV01@@Z:PROC		; std::exception::exception
;	COMDAT __CT??_R0?AVexception@std@@@8??0exception@std@@QAE@ABV01@@Z12
; File c:\program files (x86)\microsoft visual studio 10.0\vc\include\exception
xdata$x	SEGMENT
__CT??_R0?AVexception@std@@@8??0exception@std@@QAE@ABV01@@Z12 DD 00H
	DD	FLAT:??_R0?AVexception@std@@@8
	DD	00H
	DD	0ffffffffH
	ORG $+4
	DD	0cH
	DD	FLAT:??0exception@std@@QAE@ABV01@@Z
xdata$x	ENDS
;	COMDAT __CT??_R0?AVbad_alloc@std@@@8??0bad_alloc@std@@QAE@ABV01@@Z12
xdata$x	SEGMENT
__CT??_R0?AVbad_alloc@std@@@8??0bad_alloc@std@@QAE@ABV01@@Z12 DD 00H
	DD	FLAT:??_R0?AVbad_alloc@std@@@8
	DD	00H
	DD	0ffffffffH
	ORG $+4
	DD	0cH
	DD	FLAT:??0bad_alloc@std@@QAE@ABV01@@Z
xdata$x	ENDS
;	COMDAT __CTA2?AVbad_alloc@std@@
xdata$x	SEGMENT
__CTA2?AVbad_alloc@std@@ DD 02H
	DD	FLAT:__CT??_R0?AVbad_alloc@std@@@8??0bad_alloc@std@@QAE@ABV01@@Z12
	DD	FLAT:__CT??_R0?AVexception@std@@@8??0exception@std@@QAE@ABV01@@Z12
xdata$x	ENDS
;	COMDAT __TI2?AVbad_alloc@std@@
xdata$x	SEGMENT
__TI2?AVbad_alloc@std@@ DD 00H
	DD	FLAT:??1bad_alloc@std@@UAE@XZ
	DD	00H
	DD	FLAT:__CTA2?AVbad_alloc@std@@
; Function compile flags: /Ogsp
; File c:\program files (x86)\microsoft visual studio 10.0\vc\include\xmemory
xdata$x	ENDS
;	COMDAT ??$_Allocate@UAttackAttribute@@@std@@YAPAUAttackAttribute@@IPAU1@@Z
_TEXT	SEGMENT
$T596922 = -12						; size = 12
$T596927 = 8						; size = 4
__Count$ = 8						; size = 4
___formal$ = 12						; size = 4
??$_Allocate@UAttackAttribute@@@std@@YAPAUAttackAttribute@@IPAU1@@Z PROC ; std::_Allocate<AttackAttribute>, COMDAT

; 30   : 	{	// allocate storage for _Count elements of type _Ty

  00000	55		 push	 ebp
  00001	8b ec		 mov	 ebp, esp

; 31   : 	void *_Ptr = 0;
; 32   : 
; 33   : 	if (_Count <= 0)

  00003	8b 4d 08	 mov	 ecx, DWORD PTR __Count$[ebp]
  00006	83 ec 0c	 sub	 esp, 12			; 0000000cH
  00009	33 c0		 xor	 eax, eax
  0000b	85 c9		 test	 ecx, ecx

; 34   : 		_Count = 0;
; 35   : 	else if (((_SIZT)(-1) / sizeof (_Ty) < _Count)

  0000d	74 3c		 je	 SHORT $LN5@Allocate

; 36   : 		|| (_Ptr = ::operator new(_Count * sizeof (_Ty))) == 0)

  0000f	81 f9 33 33 33
	03		 cmp	 ecx, 53687091		; 03333333H
  00015	77 0e		 ja	 SHORT $LN1@Allocate
  00017	6b c9 50	 imul	 ecx, 80			; 00000050H
  0001a	51		 push	 ecx
  0001b	e8 00 00 00 00	 call	 ??2@YAPAXI@Z		; operator new
  00020	59		 pop	 ecx
  00021	85 c0		 test	 eax, eax

; 38   : 
; 39   : 	return ((_Ty _FARQ *)_Ptr);

  00023	75 26		 jne	 SHORT $LN5@Allocate
$LN1@Allocate:

; 37   : 		_THROW_NCEE(bad_alloc, 0);

  00025	83 65 08 00	 and	 DWORD PTR $T596927[ebp], 0
  00029	8d 45 08	 lea	 eax, DWORD PTR $T596927[ebp]
  0002c	50		 push	 eax
  0002d	8d 4d f4	 lea	 ecx, DWORD PTR $T596922[ebp]
  00030	ff 15 00 00 00
	00		 call	 DWORD PTR __imp_??0exception@std@@QAE@ABQBD@Z
  00036	68 00 00 00 00	 push	 OFFSET __TI2?AVbad_alloc@std@@
  0003b	8d 45 f4	 lea	 eax, DWORD PTR $T596922[ebp]
  0003e	50		 push	 eax
  0003f	c7 45 f4 00 00
	00 00		 mov	 DWORD PTR $T596922[ebp], OFFSET ??_7bad_alloc@std@@6B@
  00046	e8 00 00 00 00	 call	 __CxxThrowException@8
$LN10@Allocate:
$LN5@Allocate:

; 40   : 	}

  0004b	c9		 leave
  0004c	c3		 ret	 0
$LN9@Allocate:
??$_Allocate@UAttackAttribute@@@std@@YAPAUAttackAttribute@@IPAU1@@Z ENDP ; std::_Allocate<AttackAttribute>
_TEXT	ENDS
PUBLIC	??$forward@AAUAttackAttribute@@@std@@YAAAUAttackAttribute@@AAU1@@Z ; std::forward<AttackAttribute &>
; Function compile flags: /Ogsp
; File c:\program files (x86)\microsoft visual studio 10.0\vc\include\utility
;	COMDAT ??$forward@AAUAttackAttribute@@@std@@YAAAUAttackAttribute@@AAU1@@Z
_TEXT	SEGMENT
__Arg$ = 8						; size = 4
??$forward@AAUAttackAttribute@@@std@@YAAAUAttackAttribute@@AAU1@@Z PROC ; std::forward<AttackAttribute &>, COMDAT

; 78   : 	{	// forward _Arg, given explicitly specified type parameter

  00000	55		 push	 ebp
  00001	8b ec		 mov	 ebp, esp

; 79   : 	return ((_Ty&&)_Arg);

  00003	8b 45 08	 mov	 eax, DWORD PTR __Arg$[ebp]

; 80   : 	}

  00006	5d		 pop	 ebp
  00007	c3		 ret	 0
??$forward@AAUAttackAttribute@@@std@@YAAAUAttackAttribute@@AAU1@@Z ENDP ; std::forward<AttackAttribute &>
_TEXT	ENDS
PUBLIC	??$forward@ABUAttackAttribute@@@std@@YAABUAttackAttribute@@ABU1@@Z ; std::forward<AttackAttribute const &>
; Function compile flags: /Ogsp
;	COMDAT ??$forward@ABUAttackAttribute@@@std@@YAABUAttackAttribute@@ABU1@@Z
_TEXT	SEGMENT
__Arg$ = 8						; size = 4
??$forward@ABUAttackAttribute@@@std@@YAABUAttackAttribute@@ABU1@@Z PROC ; std::forward<AttackAttribute const &>, COMDAT

; 78   : 	{	// forward _Arg, given explicitly specified type parameter

  00000	55		 push	 ebp
  00001	8b ec		 mov	 ebp, esp

; 79   : 	return ((_Ty&&)_Arg);

  00003	8b 45 08	 mov	 eax, DWORD PTR __Arg$[ebp]

; 80   : 	}

  00006	5d		 pop	 ebp
  00007	c3		 ret	 0
??$forward@ABUAttackAttribute@@@std@@YAABUAttackAttribute@@ABU1@@Z ENDP ; std::forward<AttackAttribute const &>
_TEXT	ENDS
PUBLIC	??$_Val_type@PAVioHashString@@@std@@YAPAVioHashString@@PAV1@@Z ; std::_Val_type<ioHashString *>
; Function compile flags: /Ogsp
; File c:\program files (x86)\microsoft visual studio 10.0\vc\include\xutility
;	COMDAT ??$_Val_type@PAVioHashString@@@std@@YAPAVioHashString@@PAV1@@Z
_TEXT	SEGMENT
___formal$ = 8						; size = 4
??$_Val_type@PAVioHashString@@@std@@YAPAVioHashString@@PAV1@@Z PROC ; std::_Val_type<ioHashString *>, COMDAT

; 790  : 	return (0);

  00000	33 c0		 xor	 eax, eax

; 791  : 	}

  00002	c3		 ret	 0
??$_Val_type@PAVioHashString@@@std@@YAPAVioHashString@@PAV1@@Z ENDP ; std::_Val_type<ioHashString *>
_TEXT	ENDS
PUBLIC	??$_Ptr_cat@V?$_Vector_const_iterator@V?$_Vector_val@UWeaponInfo@@V?$allocator@UWeaponInfo@@@std@@@std@@@std@@PAUWeaponInfo@@@std@@YA?AU_Nonscalar_ptr_iterator_tag@0@AAV?$_Vector_const_iterator@V?$_Vector_val@UWeaponInfo@@V?$allocator@UWeaponInfo@@@std@@@std@@@0@AAPAUWeaponInfo@@@Z ; std::_Ptr_cat<std::_Vector_const_iterator<std::_Vector_val<WeaponInfo,std::allocator<WeaponInfo> > >,WeaponInfo *>
; Function compile flags: /Ogsp
;	COMDAT ??$_Ptr_cat@V?$_Vector_const_iterator@V?$_Vector_val@UWeaponInfo@@V?$allocator@UWeaponInfo@@@std@@@std@@@std@@PAUWeaponInfo@@@std@@YA?AU_Nonscalar_ptr_iterator_tag@0@AAV?$_Vector_const_iterator@V?$_Vector_val@UWeaponInfo@@V?$allocator@UWeaponInfo@@@std@@@std@@@0@AAPAUWeaponInfo@@@Z
_TEXT	SEGMENT
__Cat$ = -1						; size = 1
___formal$ = 8						; size = 4
___formal$ = 12						; size = 4
??$_Ptr_cat@V?$_Vector_const_iterator@V?$_Vector_val@UWeaponInfo@@V?$allocator@UWeaponInfo@@@std@@@std@@@std@@PAUWeaponInfo@@@std@@YA?AU_Nonscalar_ptr_iterator_tag@0@AAV?$_Vector_const_iterator@V?$_Vector_val@UWeaponInfo@@V?$allocator@UWeaponInfo@@@std@@@std@@@0@AAPAUWeaponInfo@@@Z PROC ; std::_Ptr_cat<std::_Vector_const_iterator<std::_Vector_val<WeaponInfo,std::allocator<WeaponInfo> > >,WeaponInfo *>, COMDAT

; 485  : 	{	// return pointer category from arbitrary arguments

  00000	55		 push	 ebp
  00001	8b ec		 mov	 ebp, esp
  00003	51		 push	 ecx

; 486  : 	_Nonscalar_ptr_iterator_tag _Cat;
; 487  : 	return (_Cat);

  00004	8a 45 ff	 mov	 al, BYTE PTR __Cat$[ebp]

; 488  : 	}

  00007	c9		 leave
  00008	c3		 ret	 0
??$_Ptr_cat@V?$_Vector_const_iterator@V?$_Vector_val@UWeaponInfo@@V?$allocator@UWeaponInfo@@@std@@@std@@@std@@PAUWeaponInfo@@@std@@YA?AU_Nonscalar_ptr_iterator_tag@0@AAV?$_Vector_const_iterator@V?$_Vector_val@UWeaponInfo@@V?$allocator@UWeaponInfo@@@std@@@std@@@0@AAPAUWeaponInfo@@@Z ENDP ; std::_Ptr_cat<std::_Vector_const_iterator<std::_Vector_val<WeaponInfo,std::allocator<WeaponInfo> > >,WeaponInfo *>
_TEXT	ENDS
PUBLIC	??$_Ptr_cat@V?$_Vector_const_iterator@V?$_Vector_val@UForceInfo@@V?$allocator@UForceInfo@@@std@@@std@@@std@@PAUForceInfo@@@std@@YA?AU_Nonscalar_ptr_iterator_tag@0@AAV?$_Vector_const_iterator@V?$_Vector_val@UForceInfo@@V?$allocator@UForceInfo@@@std@@@std@@@0@AAPAUForceInfo@@@Z ; std::_Ptr_cat<std::_Vector_const_iterator<std::_Vector_val<ForceInfo,std::allocator<ForceInfo> > >,ForceInfo *>
; Function compile flags: /Ogsp
;	COMDAT ??$_Ptr_cat@V?$_Vector_const_iterator@V?$_Vector_val@UForceInfo@@V?$allocator@UForceInfo@@@std@@@std@@@std@@PAUForceInfo@@@std@@YA?AU_Nonscalar_ptr_iterator_tag@0@AAV?$_Vector_const_iterator@V?$_Vector_val@UForceInfo@@V?$allocator@UForceInfo@@@std@@@std@@@0@AAPAUForceInfo@@@Z
_TEXT	SEGMENT
__Cat$ = -1						; size = 1
___formal$ = 8						; size = 4
___formal$ = 12						; size = 4
??$_Ptr_cat@V?$_Vector_const_iterator@V?$_Vector_val@UForceInfo@@V?$allocator@UForceInfo@@@std@@@std@@@std@@PAUForceInfo@@@std@@YA?AU_Nonscalar_ptr_iterator_tag@0@AAV?$_Vector_const_iterator@V?$_Vector_val@UForceInfo@@V?$allocator@UForceInfo@@@std@@@std@@@0@AAPAUForceInfo@@@Z PROC ; std::_Ptr_cat<std::_Vector_const_iterator<std::_Vector_val<ForceInfo,std::allocator<ForceInfo> > >,ForceInfo *>, COMDAT

; 485  : 	{	// return pointer category from arbitrary arguments

  00000	55		 push	 ebp
  00001	8b ec		 mov	 ebp, esp
  00003	51		 push	 ecx

; 486  : 	_Nonscalar_ptr_iterator_tag _Cat;
; 487  : 	return (_Cat);

  00004	8a 45 ff	 mov	 al, BYTE PTR __Cat$[ebp]

; 488  : 	}

  00007	c9		 leave
  00008	c3		 ret	 0
??$_Ptr_cat@V?$_Vector_const_iterator@V?$_Vector_val@UForceInfo@@V?$allocator@UForceInfo@@@std@@@std@@@std@@PAUForceInfo@@@std@@YA?AU_Nonscalar_ptr_iterator_tag@0@AAV?$_Vector_const_iterator@V?$_Vector_val@UForceInfo@@V?$allocator@UForceInfo@@@std@@@std@@@0@AAPAUForceInfo@@@Z ENDP ; std::_Ptr_cat<std::_Vector_const_iterator<std::_Vector_val<ForceInfo,std::allocator<ForceInfo> > >,ForceInfo *>
_TEXT	ENDS
PUBLIC	??$_Ptr_cat@V?$_Vector_const_iterator@V?$_Vector_val@UAttackAttribute@@V?$allocator@UAttackAttribute@@@std@@@std@@@std@@PAUAttackAttribute@@@std@@YA?AU_Nonscalar_ptr_iterator_tag@0@AAV?$_Vector_const_iterator@V?$_Vector_val@UAttackAttribute@@V?$allocator@UAttackAttribute@@@std@@@std@@@0@AAPAUAttackAttribute@@@Z ; std::_Ptr_cat<std::_Vector_const_iterator<std::_Vector_val<AttackAttribute,std::allocator<AttackAttribute> > >,AttackAttribute *>
; Function compile flags: /Ogsp
;	COMDAT ??$_Ptr_cat@V?$_Vector_const_iterator@V?$_Vector_val@UAttackAttribute@@V?$allocator@UAttackAttribute@@@std@@@std@@@std@@PAUAttackAttribute@@@std@@YA?AU_Nonscalar_ptr_iterator_tag@0@AAV?$_Vector_const_iterator@V?$_Vector_val@UAttackAttribute@@V?$allocator@UAttackAttribute@@@std@@@std@@@0@AAPAUAttackAttribute@@@Z
_TEXT	SEGMENT
__Cat$ = -1						; size = 1
___formal$ = 8						; size = 4
___formal$ = 12						; size = 4
??$_Ptr_cat@V?$_Vector_const_iterator@V?$_Vector_val@UAttackAttribute@@V?$allocator@UAttackAttribute@@@std@@@std@@@std@@PAUAttackAttribute@@@std@@YA?AU_Nonscalar_ptr_iterator_tag@0@AAV?$_Vector_const_iterator@V?$_Vector_val@UAttackAttribute@@V?$allocator@UAttackAttribute@@@std@@@std@@@0@AAPAUAttackAttribute@@@Z PROC ; std::_Ptr_cat<std::_Vector_const_iterator<std::_Vector_val<AttackAttribute,std::allocator<AttackAttribute> > >,AttackAttribute *>, COMDAT

; 485  : 	{	// return pointer category from arbitrary arguments

  00000	55		 push	 ebp
  00001	8b ec		 mov	 ebp, esp
  00003	51		 push	 ecx

; 486  : 	_Nonscalar_ptr_iterator_tag _Cat;
; 487  : 	return (_Cat);

  00004	8a 45 ff	 mov	 al, BYTE PTR __Cat$[ebp]

; 488  : 	}

  00007	c9		 leave
  00008	c3		 ret	 0
??$_Ptr_cat@V?$_Vector_const_iterator@V?$_Vector_val@UAttackAttribute@@V?$allocator@UAttackAttribute@@@std@@@std@@@std@@PAUAttackAttribute@@@std@@YA?AU_Nonscalar_ptr_iterator_tag@0@AAV?$_Vector_const_iterator@V?$_Vector_val@UAttackAttribute@@V?$allocator@UAttackAttribute@@@std@@@std@@@0@AAPAUAttackAttribute@@@Z ENDP ; std::_Ptr_cat<std::_Vector_const_iterator<std::_Vector_val<AttackAttribute,std::allocator<AttackAttribute> > >,AttackAttribute *>
_TEXT	ENDS
PUBLIC	??$_Val_type@PAUAttackAttribute@@@std@@YAPAUAttackAttribute@@PAU1@@Z ; std::_Val_type<AttackAttribute *>
; Function compile flags: /Ogsp
;	COMDAT ??$_Val_type@PAUAttackAttribute@@@std@@YAPAUAttackAttribute@@PAU1@@Z
_TEXT	SEGMENT
___formal$ = 8						; size = 4
??$_Val_type@PAUAttackAttribute@@@std@@YAPAUAttackAttribute@@PAU1@@Z PROC ; std::_Val_type<AttackAttribute *>, COMDAT

; 790  : 	return (0);

  00000	33 c0		 xor	 eax, eax

; 791  : 	}

  00002	c3		 ret	 0
??$_Val_type@PAUAttackAttribute@@@std@@YAPAUAttackAttribute@@PAU1@@Z ENDP ; std::_Val_type<AttackAttribute *>
_TEXT	ENDS
PUBLIC	??D?$_Vector_const_iterator@V?$_Vector_val@UAttackAttribute@@V?$allocator@UAttackAttribute@@@std@@@std@@@std@@QBEABUAttackAttribute@@XZ ; std::_Vector_const_iterator<std::_Vector_val<AttackAttribute,std::allocator<AttackAttribute> > >::operator*
; Function compile flags: /Ogsp
; File c:\program files (x86)\microsoft visual studio 10.0\vc\include\vector
;	COMDAT ??D?$_Vector_const_iterator@V?$_Vector_val@UAttackAttribute@@V?$allocator@UAttackAttribute@@@std@@@std@@@std@@QBEABUAttackAttribute@@XZ
_TEXT	SEGMENT
??D?$_Vector_const_iterator@V?$_Vector_val@UAttackAttribute@@V?$allocator@UAttackAttribute@@@std@@@std@@@std@@QBEABUAttackAttribute@@XZ PROC ; std::_Vector_const_iterator<std::_Vector_val<AttackAttribute,std::allocator<AttackAttribute> > >::operator*, COMDAT
; _this$ = ecx

; 64   :  #if _ITERATOR_DEBUG_LEVEL == 2
; 65   : 		if (this->_Getcont() == 0
; 66   : 			|| this->_Ptr == 0
; 67   : 			|| this->_Ptr < ((_Myvec *)this->_Getcont())->_Myfirst
; 68   : 			|| ((_Myvec *)this->_Getcont())->_Mylast <= this->_Ptr)
; 69   : 			{	// report error
; 70   : 			_DEBUG_ERROR("vector iterator not dereferencable");
; 71   : 			_SCL_SECURE_OUT_OF_RANGE;
; 72   : 			}
; 73   : 
; 74   :  #elif _ITERATOR_DEBUG_LEVEL == 1
; 75   : 		_SCL_SECURE_VALIDATE(this->_Getcont() != 0);
; 76   : 		_SCL_SECURE_VALIDATE_RANGE(
; 77   : 			this->_Ptr != 0
; 78   : 			&& ((_Myvec *)this->_Getcont())->_Myfirst <= this->_Ptr
; 79   : 			&& this->_Ptr < ((_Myvec *)this->_Getcont())->_Mylast);
; 80   :  #endif /* _ITERATOR_DEBUG_LEVEL */
; 81   : 
; 82   : 		__analysis_assume(this->_Ptr != 0);
; 83   : 
; 84   : 		return (*this->_Ptr);

  00000	8b 01		 mov	 eax, DWORD PTR [ecx]

; 85   : 		}

  00002	c3		 ret	 0
??D?$_Vector_const_iterator@V?$_Vector_val@UAttackAttribute@@V?$allocator@UAttackAttribute@@@std@@@std@@@std@@QBEABUAttackAttribute@@XZ ENDP ; std::_Vector_const_iterator<std::_Vector_val<AttackAttribute,std::allocator<AttackAttribute> > >::operator*
_TEXT	ENDS
PUBLIC	??E?$_Vector_const_iterator@V?$_Vector_val@UAttackAttribute@@V?$allocator@UAttackAttribute@@@std@@@std@@@std@@QAEAAV01@XZ ; std::_Vector_const_iterator<std::_Vector_val<AttackAttribute,std::allocator<AttackAttribute> > >::operator++
; Function compile flags: /Ogsp
;	COMDAT ??E?$_Vector_const_iterator@V?$_Vector_val@UAttackAttribute@@V?$allocator@UAttackAttribute@@@std@@@std@@@std@@QAEAAV01@XZ
_TEXT	SEGMENT
??E?$_Vector_const_iterator@V?$_Vector_val@UAttackAttribute@@V?$allocator@UAttackAttribute@@@std@@@std@@@std@@QAEAAV01@XZ PROC ; std::_Vector_const_iterator<std::_Vector_val<AttackAttribute,std::allocator<AttackAttribute> > >::operator++, COMDAT
; _this$ = ecx

; 93   : 		{	// preincrement

  00000	8b c1		 mov	 eax, ecx

; 94   :  #if _ITERATOR_DEBUG_LEVEL == 2
; 95   : 		if (this->_Getcont() == 0
; 96   : 			|| this->_Ptr == 0
; 97   : 			|| ((_Myvec *)this->_Getcont())->_Mylast <= this->_Ptr)
; 98   : 			{	// report error
; 99   : 			_DEBUG_ERROR("vector iterator not incrementable");
; 100  : 			_SCL_SECURE_OUT_OF_RANGE;
; 101  : 			}
; 102  : 
; 103  :  #elif _ITERATOR_DEBUG_LEVEL == 1
; 104  : 		_SCL_SECURE_VALIDATE(this->_Getcont() != 0);
; 105  : 		_SCL_SECURE_VALIDATE_RANGE(
; 106  : 			this->_Ptr != 0
; 107  : 			&& this->_Ptr < ((_Myvec *)this->_Getcont())->_Mylast);
; 108  :  #endif /* _ITERATOR_DEBUG_LEVEL */
; 109  : 
; 110  : 		++this->_Ptr;

  00002	83 00 50	 add	 DWORD PTR [eax], 80	; 00000050H

; 111  : 		return (*this);
; 112  : 		}

  00005	c3		 ret	 0
??E?$_Vector_const_iterator@V?$_Vector_val@UAttackAttribute@@V?$allocator@UAttackAttribute@@@std@@@std@@@std@@QAEAAV01@XZ ENDP ; std::_Vector_const_iterator<std::_Vector_val<AttackAttribute,std::allocator<AttackAttribute> > >::operator++
_TEXT	ENDS
PUBLIC	??D?$_Vector_const_iterator@V?$_Vector_val@UWeaponInfo@@V?$allocator@UWeaponInfo@@@std@@@std@@@std@@QBEABUWeaponInfo@@XZ ; std::_Vector_const_iterator<std::_Vector_val<WeaponInfo,std::allocator<WeaponInfo> > >::operator*
; Function compile flags: /Ogsp
;	COMDAT ??D?$_Vector_const_iterator@V?$_Vector_val@UWeaponInfo@@V?$allocator@UWeaponInfo@@@std@@@std@@@std@@QBEABUWeaponInfo@@XZ
_TEXT	SEGMENT
??D?$_Vector_const_iterator@V?$_Vector_val@UWeaponInfo@@V?$allocator@UWeaponInfo@@@std@@@std@@@std@@QBEABUWeaponInfo@@XZ PROC ; std::_Vector_const_iterator<std::_Vector_val<WeaponInfo,std::allocator<WeaponInfo> > >::operator*, COMDAT
; _this$ = ecx

; 64   :  #if _ITERATOR_DEBUG_LEVEL == 2
; 65   : 		if (this->_Getcont() == 0
; 66   : 			|| this->_Ptr == 0
; 67   : 			|| this->_Ptr < ((_Myvec *)this->_Getcont())->_Myfirst
; 68   : 			|| ((_Myvec *)this->_Getcont())->_Mylast <= this->_Ptr)
; 69   : 			{	// report error
; 70   : 			_DEBUG_ERROR("vector iterator not dereferencable");
; 71   : 			_SCL_SECURE_OUT_OF_RANGE;
; 72   : 			}
; 73   : 
; 74   :  #elif _ITERATOR_DEBUG_LEVEL == 1
; 75   : 		_SCL_SECURE_VALIDATE(this->_Getcont() != 0);
; 76   : 		_SCL_SECURE_VALIDATE_RANGE(
; 77   : 			this->_Ptr != 0
; 78   : 			&& ((_Myvec *)this->_Getcont())->_Myfirst <= this->_Ptr
; 79   : 			&& this->_Ptr < ((_Myvec *)this->_Getcont())->_Mylast);
; 80   :  #endif /* _ITERATOR_DEBUG_LEVEL */
; 81   : 
; 82   : 		__analysis_assume(this->_Ptr != 0);
; 83   : 
; 84   : 		return (*this->_Ptr);

  00000	8b 01		 mov	 eax, DWORD PTR [ecx]

; 85   : 		}

  00002	c3		 ret	 0
??D?$_Vector_const_iterator@V?$_Vector_val@UWeaponInfo@@V?$allocator@UWeaponInfo@@@std@@@std@@@std@@QBEABUWeaponInfo@@XZ ENDP ; std::_Vector_const_iterator<std::_Vector_val<WeaponInfo,std::allocator<WeaponInfo> > >::operator*
_TEXT	ENDS
PUBLIC	??E?$_Vector_const_iterator@V?$_Vector_val@UWeaponInfo@@V?$allocator@UWeaponInfo@@@std@@@std@@@std@@QAEAAV01@XZ ; std::_Vector_const_iterator<std::_Vector_val<WeaponInfo,std::allocator<WeaponInfo> > >::operator++
; Function compile flags: /Ogsp
;	COMDAT ??E?$_Vector_const_iterator@V?$_Vector_val@UWeaponInfo@@V?$allocator@UWeaponInfo@@@std@@@std@@@std@@QAEAAV01@XZ
_TEXT	SEGMENT
??E?$_Vector_const_iterator@V?$_Vector_val@UWeaponInfo@@V?$allocator@UWeaponInfo@@@std@@@std@@@std@@QAEAAV01@XZ PROC ; std::_Vector_const_iterator<std::_Vector_val<WeaponInfo,std::allocator<WeaponInfo> > >::operator++, COMDAT
; _this$ = ecx

; 93   : 		{	// preincrement

  00000	8b c1		 mov	 eax, ecx

; 94   :  #if _ITERATOR_DEBUG_LEVEL == 2
; 95   : 		if (this->_Getcont() == 0
; 96   : 			|| this->_Ptr == 0
; 97   : 			|| ((_Myvec *)this->_Getcont())->_Mylast <= this->_Ptr)
; 98   : 			{	// report error
; 99   : 			_DEBUG_ERROR("vector iterator not incrementable");
; 100  : 			_SCL_SECURE_OUT_OF_RANGE;
; 101  : 			}
; 102  : 
; 103  :  #elif _ITERATOR_DEBUG_LEVEL == 1
; 104  : 		_SCL_SECURE_VALIDATE(this->_Getcont() != 0);
; 105  : 		_SCL_SECURE_VALIDATE_RANGE(
; 106  : 			this->_Ptr != 0
; 107  : 			&& this->_Ptr < ((_Myvec *)this->_Getcont())->_Mylast);
; 108  :  #endif /* _ITERATOR_DEBUG_LEVEL */
; 109  : 
; 110  : 		++this->_Ptr;

  00002	83 00 28	 add	 DWORD PTR [eax], 40	; 00000028H

; 111  : 		return (*this);
; 112  : 		}

  00005	c3		 ret	 0
??E?$_Vector_const_iterator@V?$_Vector_val@UWeaponInfo@@V?$allocator@UWeaponInfo@@@std@@@std@@@std@@QAEAAV01@XZ ENDP ; std::_Vector_const_iterator<std::_Vector_val<WeaponInfo,std::allocator<WeaponInfo> > >::operator++
_TEXT	ENDS
PUBLIC	??D?$_Vector_const_iterator@V?$_Vector_val@UForceInfo@@V?$allocator@UForceInfo@@@std@@@std@@@std@@QBEABUForceInfo@@XZ ; std::_Vector_const_iterator<std::_Vector_val<ForceInfo,std::allocator<ForceInfo> > >::operator*
; Function compile flags: /Ogsp
;	COMDAT ??D?$_Vector_const_iterator@V?$_Vector_val@UForceInfo@@V?$allocator@UForceInfo@@@std@@@std@@@std@@QBEABUForceInfo@@XZ
_TEXT	SEGMENT
??D?$_Vector_const_iterator@V?$_Vector_val@UForceInfo@@V?$allocator@UForceInfo@@@std@@@std@@@std@@QBEABUForceInfo@@XZ PROC ; std::_Vector_const_iterator<std::_Vector_val<ForceInfo,std::allocator<ForceInfo> > >::operator*, COMDAT
; _this$ = ecx

; 64   :  #if _ITERATOR_DEBUG_LEVEL == 2
; 65   : 		if (this->_Getcont() == 0
; 66   : 			|| this->_Ptr == 0
; 67   : 			|| this->_Ptr < ((_Myvec *)this->_Getcont())->_Myfirst
; 68   : 			|| ((_Myvec *)this->_Getcont())->_Mylast <= this->_Ptr)
; 69   : 			{	// report error
; 70   : 			_DEBUG_ERROR("vector iterator not dereferencable");
; 71   : 			_SCL_SECURE_OUT_OF_RANGE;
; 72   : 			}
; 73   : 
; 74   :  #elif _ITERATOR_DEBUG_LEVEL == 1
; 75   : 		_SCL_SECURE_VALIDATE(this->_Getcont() != 0);
; 76   : 		_SCL_SECURE_VALIDATE_RANGE(
; 77   : 			this->_Ptr != 0
; 78   : 			&& ((_Myvec *)this->_Getcont())->_Myfirst <= this->_Ptr
; 79   : 			&& this->_Ptr < ((_Myvec *)this->_Getcont())->_Mylast);
; 80   :  #endif /* _ITERATOR_DEBUG_LEVEL */
; 81   : 
; 82   : 		__analysis_assume(this->_Ptr != 0);
; 83   : 
; 84   : 		return (*this->_Ptr);

  00000	8b 01		 mov	 eax, DWORD PTR [ecx]

; 85   : 		}

  00002	c3		 ret	 0
??D?$_Vector_const_iterator@V?$_Vector_val@UForceInfo@@V?$allocator@UForceInfo@@@std@@@std@@@std@@QBEABUForceInfo@@XZ ENDP ; std::_Vector_const_iterator<std::_Vector_val<ForceInfo,std::allocator<ForceInfo> > >::operator*
_TEXT	ENDS
PUBLIC	??E?$_Vector_const_iterator@V?$_Vector_val@UForceInfo@@V?$allocator@UForceInfo@@@std@@@std@@@std@@QAEAAV01@XZ ; std::_Vector_const_iterator<std::_Vector_val<ForceInfo,std::allocator<ForceInfo> > >::operator++
; Function compile flags: /Ogsp
;	COMDAT ??E?$_Vector_const_iterator@V?$_Vector_val@UForceInfo@@V?$allocator@UForceInfo@@@std@@@std@@@std@@QAEAAV01@XZ
_TEXT	SEGMENT
??E?$_Vector_const_iterator@V?$_Vector_val@UForceInfo@@V?$allocator@UForceInfo@@@std@@@std@@@std@@QAEAAV01@XZ PROC ; std::_Vector_const_iterator<std::_Vector_val<ForceInfo,std::allocator<ForceInfo> > >::operator++, COMDAT
; _this$ = ecx

; 93   : 		{	// preincrement

  00000	8b c1		 mov	 eax, ecx

; 94   :  #if _ITERATOR_DEBUG_LEVEL == 2
; 95   : 		if (this->_Getcont() == 0
; 96   : 			|| this->_Ptr == 0
; 97   : 			|| ((_Myvec *)this->_Getcont())->_Mylast <= this->_Ptr)
; 98   : 			{	// report error
; 99   : 			_DEBUG_ERROR("vector iterator not incrementable");
; 100  : 			_SCL_SECURE_OUT_OF_RANGE;
; 101  : 			}
; 102  : 
; 103  :  #elif _ITERATOR_DEBUG_LEVEL == 1
; 104  : 		_SCL_SECURE_VALIDATE(this->_Getcont() != 0);
; 105  : 		_SCL_SECURE_VALIDATE_RANGE(
; 106  : 			this->_Ptr != 0
; 107  : 			&& this->_Ptr < ((_Myvec *)this->_Getcont())->_Mylast);
; 108  :  #endif /* _ITERATOR_DEBUG_LEVEL */
; 109  : 
; 110  : 		++this->_Ptr;

  00002	83 00 0c	 add	 DWORD PTR [eax], 12	; 0000000cH

; 111  : 		return (*this);
; 112  : 		}

  00005	c3		 ret	 0
??E?$_Vector_const_iterator@V?$_Vector_val@UForceInfo@@V?$allocator@UForceInfo@@@std@@@std@@@std@@QAEAAV01@XZ ENDP ; std::_Vector_const_iterator<std::_Vector_val<ForceInfo,std::allocator<ForceInfo> > >::operator++
_TEXT	ENDS
PUBLIC	??$forward@VioHashString@@@std@@YA$$QAVioHashString@@AAV1@@Z ; std::forward<ioHashString>
; Function compile flags: /Ogsp
; File c:\program files (x86)\microsoft visual studio 10.0\vc\include\utility
;	COMDAT ??$forward@VioHashString@@@std@@YA$$QAVioHashString@@AAV1@@Z
_TEXT	SEGMENT
__Arg$ = 8						; size = 4
??$forward@VioHashString@@@std@@YA$$QAVioHashString@@AAV1@@Z PROC ; std::forward<ioHashString>, COMDAT

; 78   : 	{	// forward _Arg, given explicitly specified type parameter

  00000	55		 push	 ebp
  00001	8b ec		 mov	 ebp, esp

; 79   : 	return ((_Ty&&)_Arg);

  00003	8b 45 08	 mov	 eax, DWORD PTR __Arg$[ebp]

; 80   : 	}

  00006	5d		 pop	 ebp
  00007	c3		 ret	 0
??$forward@VioHashString@@@std@@YA$$QAVioHashString@@AAV1@@Z ENDP ; std::forward<ioHashString>
_TEXT	ENDS
PUBLIC	??$forward@ABUWeaponInfo@@@std@@YAABUWeaponInfo@@ABU1@@Z ; std::forward<WeaponInfo const &>
; Function compile flags: /Ogsp
;	COMDAT ??$forward@ABUWeaponInfo@@@std@@YAABUWeaponInfo@@ABU1@@Z
_TEXT	SEGMENT
__Arg$ = 8						; size = 4
??$forward@ABUWeaponInfo@@@std@@YAABUWeaponInfo@@ABU1@@Z PROC ; std::forward<WeaponInfo const &>, COMDAT

; 78   : 	{	// forward _Arg, given explicitly specified type parameter

  00000	55		 push	 ebp
  00001	8b ec		 mov	 ebp, esp

; 79   : 	return ((_Ty&&)_Arg);

  00003	8b 45 08	 mov	 eax, DWORD PTR __Arg$[ebp]

; 80   : 	}

  00006	5d		 pop	 ebp
  00007	c3		 ret	 0
??$forward@ABUWeaponInfo@@@std@@YAABUWeaponInfo@@ABU1@@Z ENDP ; std::forward<WeaponInfo const &>
_TEXT	ENDS
PUBLIC	??$forward@ABUForceInfo@@@std@@YAABUForceInfo@@ABU1@@Z ; std::forward<ForceInfo const &>
; Function compile flags: /Ogsp
;	COMDAT ??$forward@ABUForceInfo@@@std@@YAABUForceInfo@@ABU1@@Z
_TEXT	SEGMENT
__Arg$ = 8						; size = 4
??$forward@ABUForceInfo@@@std@@YAABUForceInfo@@ABU1@@Z PROC ; std::forward<ForceInfo const &>, COMDAT

; 78   : 	{	// forward _Arg, given explicitly specified type parameter

  00000	55		 push	 ebp
  00001	8b ec		 mov	 ebp, esp

; 79   : 	return ((_Ty&&)_Arg);

  00003	8b 45 08	 mov	 eax, DWORD PTR __Arg$[ebp]

; 80   : 	}

  00006	5d		 pop	 ebp
  00007	c3		 ret	 0
??$forward@ABUForceInfo@@@std@@YAABUForceInfo@@ABU1@@Z ENDP ; std::forward<ForceInfo const &>
_TEXT	ENDS
PUBLIC	??$forward@UAttackAttribute@@@std@@YA$$QAUAttackAttribute@@AAU1@@Z ; std::forward<AttackAttribute>
; Function compile flags: /Ogsp
;	COMDAT ??$forward@UAttackAttribute@@@std@@YA$$QAUAttackAttribute@@AAU1@@Z
_TEXT	SEGMENT
__Arg$ = 8						; size = 4
??$forward@UAttackAttribute@@@std@@YA$$QAUAttackAttribute@@AAU1@@Z PROC ; std::forward<AttackAttribute>, COMDAT

; 78   : 	{	// forward _Arg, given explicitly specified type parameter

  00000	55		 push	 ebp
  00001	8b ec		 mov	 ebp, esp

; 79   : 	return ((_Ty&&)_Arg);

  00003	8b 45 08	 mov	 eax, DWORD PTR __Arg$[ebp]

; 80   : 	}

  00006	5d		 pop	 ebp
  00007	c3		 ret	 0
??$forward@UAttackAttribute@@@std@@YA$$QAUAttackAttribute@@AAU1@@Z ENDP ; std::forward<AttackAttribute>
_TEXT	ENDS
PUBLIC	??$_Construct@UForceInfo@@ABU1@@std@@YAXPAUForceInfo@@ABU1@@Z ; std::_Construct<ForceInfo,ForceInfo const &>
; Function compile flags: /Ogsp
; File c:\program files (x86)\microsoft visual studio 10.0\vc\include\xmemory
;	COMDAT ??$_Construct@UForceInfo@@ABU1@@std@@YAXPAUForceInfo@@ABU1@@Z
_TEXT	SEGMENT
__Ptr$ = 8						; size = 4
__Val$ = 12						; size = 4
??$_Construct@UForceInfo@@ABU1@@std@@YAXPAUForceInfo@@ABU1@@Z PROC ; std::_Construct<ForceInfo,ForceInfo const &>, COMDAT

; 46   : 	{	// construct object at _Ptr with value _Val

  00000	55		 push	 ebp
  00001	8b ec		 mov	 ebp, esp
  00003	57		 push	 edi

; 47   : 	void _FARQ *_Vptr = _Ptr;
; 48   : 	::new (_Vptr) _Ty1(_STD forward<_Ty2>(_Val));

  00004	8b 7d 08	 mov	 edi, DWORD PTR __Ptr$[ebp]
  00007	85 ff		 test	 edi, edi
  00009	74 08		 je	 SHORT $LN3@Construct
  0000b	56		 push	 esi
  0000c	8b 75 0c	 mov	 esi, DWORD PTR __Val$[ebp]
  0000f	a5		 movsd
  00010	a5		 movsd
  00011	a5		 movsd
  00012	5e		 pop	 esi
$LN3@Construct:
  00013	5f		 pop	 edi

; 49   : 	}

  00014	5d		 pop	 ebp
  00015	c3		 ret	 0
??$_Construct@UForceInfo@@ABU1@@std@@YAXPAUForceInfo@@ABU1@@Z ENDP ; std::_Construct<ForceInfo,ForceInfo const &>
_TEXT	ENDS
PUBLIC	?_DECSTR@@YAXPADH@Z				; _DECSTR
; Function compile flags: /Ogsp
; File d:\lost saga for developer\youtube\tutorial\source\src\lsclient\stringprotect.h
;	COMDAT ?_DECSTR@@YAXPADH@Z
_TEXT	SEGMENT
_s$ = 8							; size = 4
_l$ = 12						; size = 4
?_DECSTR@@YAXPADH@Z PROC				; _DECSTR, COMDAT

; 40   : __forceinline void _DECSTR(char* s, int l){int i=0,l4=(l-1)/4,*p=(int*)s;s[l-1]=0;for(;i<l4;++i)*(p++)^=0xEAEBECED;for(i=l4*4;i<l-1;++i)s[i]^=0xED-i%4;}

  00000	55		 push	 ebp
  00001	8b ec		 mov	 ebp, esp
  00003	8b 4d 0c	 mov	 ecx, DWORD PTR _l$[ebp]
  00006	56		 push	 esi
  00007	8b 75 08	 mov	 esi, DWORD PTR _s$[ebp]
  0000a	57		 push	 edi
  0000b	8d 79 ff	 lea	 edi, DWORD PTR [ecx-1]
  0000e	8b c7		 mov	 eax, edi
  00010	99		 cdq
  00011	83 e2 03	 and	 edx, 3
  00014	03 c2		 add	 eax, edx
  00016	c1 f8 02	 sar	 eax, 2
  00019	8b d6		 mov	 edx, esi
  0001b	c6 44 0e ff 00	 mov	 BYTE PTR [esi+ecx-1], 0
  00020	85 c0		 test	 eax, eax
  00022	7e 0e		 jle	 SHORT $LN4@DECSTR
  00024	8b c8		 mov	 ecx, eax
$LL6@DECSTR:
  00026	81 32 ed ec eb
	ea		 xor	 DWORD PTR [edx], -353637139 ; eaebecedH
  0002c	83 c2 04	 add	 edx, 4
  0002f	49		 dec	 ecx
  00030	75 f4		 jne	 SHORT $LL6@DECSTR
$LN4@DECSTR:
  00032	c1 e0 02	 shl	 eax, 2
  00035	eb 17		 jmp	 SHORT $LN14@DECSTR
$LL3@DECSTR:
  00037	8b c8		 mov	 ecx, eax
  00039	81 e1 03 00 00
	80		 and	 ecx, -2147483645	; 80000003H
  0003f	79 05		 jns	 SHORT $LN13@DECSTR
  00041	49		 dec	 ecx
  00042	83 c9 fc	 or	 ecx, -4			; fffffffcH
  00045	41		 inc	 ecx
$LN13@DECSTR:
  00046	b2 ed		 mov	 dl, -19			; ffffffedH
  00048	2a d1		 sub	 dl, cl
  0004a	30 14 30	 xor	 BYTE PTR [eax+esi], dl
  0004d	40		 inc	 eax
$LN14@DECSTR:
  0004e	3b c7		 cmp	 eax, edi
  00050	7c e5		 jl	 SHORT $LL3@DECSTR
  00052	5f		 pop	 edi
  00053	5e		 pop	 esi
  00054	5d		 pop	 ebp
  00055	c3		 ret	 0
?_DECSTR@@YAXPADH@Z ENDP				; _DECSTR
_TEXT	ENDS
PUBLIC	?return57@@YAIXZ				; return57
; Function compile flags: /Ogsp
; File d:\lost saga for developer\youtube\tutorial\source\src\lsclient\veryoftenusedefine.h
;	COMDAT ?return57@@YAIXZ
_TEXT	SEGMENT
?return57@@YAIXZ PROC					; return57, COMDAT

; 15   : __forceinline unsigned int return57() { __asm mov eax, 57 };

  00000	b8 39 00 00 00	 mov	 eax, 57			; 00000039H
  00005	c3		 ret	 0
?return57@@YAIXZ ENDP					; return57
_TEXT	ENDS
PUBLIC	?GetGroup@ioGameEntity@@QBEPAVioEntityGroup@@XZ	; ioGameEntity::GetGroup
; Function compile flags: /Ogsp
; File d:\lost saga for developer\youtube\tutorial\source\src\lsclient\iogameentity.h
;	COMDAT ?GetGroup@ioGameEntity@@QBEPAVioEntityGroup@@XZ
_TEXT	SEGMENT
?GetGroup@ioGameEntity@@QBEPAVioEntityGroup@@XZ PROC	; ioGameEntity::GetGroup, COMDAT
; _this$ = ecx

; 166  : 	inline ioEntityGroup* GetGroup() const { return m_pGroup; }

  00000	8b 41 04	 mov	 eax, DWORD PTR [ecx+4]
  00003	c3		 ret	 0
?GetGroup@ioGameEntity@@QBEPAVioEntityGroup@@XZ ENDP	; ioGameEntity::GetGroup
_TEXT	ENDS
PUBLIC	??1WeaponInfo@@QAE@XZ				; WeaponInfo::~WeaponInfo
EXTRN	__imp_??1ioHashString@@QAE@XZ:PROC
; Function compile flags: /Ogsp
;	COMDAT ??1WeaponInfo@@QAE@XZ
_TEXT	SEGMENT
??1WeaponInfo@@QAE@XZ PROC				; WeaponInfo::~WeaponInfo, COMDAT
; _this$ = ecx
  00000	83 c1 08	 add	 ecx, 8
  00003	ff 25 00 00 00
	00		 jmp	 DWORD PTR __imp_??1ioHashString@@QAE@XZ
??1WeaponInfo@@QAE@XZ ENDP				; WeaponInfo::~WeaponInfo
_TEXT	ENDS
PUBLIC	?GetHP@ioPlayEntity@@QAEAAUStatusValue@@XZ	; ioPlayEntity::GetHP
; Function compile flags: /Ogsp
; File d:\lost saga for developer\youtube\tutorial\source\src\lsclient\ioplayentity.h
;	COMDAT ?GetHP@ioPlayEntity@@QAEAAUStatusValue@@XZ
_TEXT	SEGMENT
?GetHP@ioPlayEntity@@QAEAAUStatusValue@@XZ PROC		; ioPlayEntity::GetHP, COMDAT
; _this$ = ecx

; 96   : 	inline StatusValue& GetHP() { return m_HP; }

  00000	8d 81 c0 00 00
	00		 lea	 eax, DWORD PTR [ecx+192]
  00006	c3		 ret	 0
?GetHP@ioPlayEntity@@QAEAAUStatusValue@@XZ ENDP		; ioPlayEntity::GetHP
_TEXT	ENDS
PUBLIC	??_R0?AVioItem@@@8				; ioItem `RTTI Type Descriptor'
PUBLIC	??_R0?AVioWeaponItem@@@8			; ioWeaponItem `RTTI Type Descriptor'
PUBLIC	?ToWeaponItem@@YAPAVioWeaponItem@@PAVioItem@@@Z	; ToWeaponItem
EXTRN	___RTDynamicCast:PROC
;	COMDAT ??_R0?AVioItem@@@8
; File d:\lost saga for developer\youtube\tutorial\source\src\lsclient\ioweaponitem.h
_DATA	SEGMENT
??_R0?AVioItem@@@8 DD FLAT:??_7type_info@@6B@		; ioItem `RTTI Type Descriptor'
	DD	00H
	DB	'.?AVioItem@@', 00H
_DATA	ENDS
;	COMDAT ??_R0?AVioWeaponItem@@@8
_DATA	SEGMENT
??_R0?AVioWeaponItem@@@8 DD FLAT:??_7type_info@@6B@	; ioWeaponItem `RTTI Type Descriptor'
	DD	00H
	DB	'.?AVioWeaponItem@@', 00H
; Function compile flags: /Ogsp
_DATA	ENDS
;	COMDAT ?ToWeaponItem@@YAPAVioWeaponItem@@PAVioItem@@@Z
_TEXT	SEGMENT
_pItem$ = 8						; size = 4
?ToWeaponItem@@YAPAVioWeaponItem@@PAVioItem@@@Z PROC	; ToWeaponItem, COMDAT

; 303  : {

  00000	55		 push	 ebp
  00001	8b ec		 mov	 ebp, esp
  00003	56		 push	 esi

; 304  : 	if( !pItem || pItem->GetType() != ioItem::IT_WEAPON )

  00004	8b 75 08	 mov	 esi, DWORD PTR _pItem$[ebp]
  00007	85 f6		 test	 esi, esi
  00009	74 25		 je	 SHORT $LN1@ToWeaponIt
  0000b	8b 06		 mov	 eax, DWORD PTR [esi]
  0000d	8b ce		 mov	 ecx, esi
  0000f	ff 50 08	 call	 DWORD PTR [eax+8]
  00012	83 f8 01	 cmp	 eax, 1
  00015	75 19		 jne	 SHORT $LN1@ToWeaponIt

; 306  : 
; 307  : 	return dynamic_cast< ioWeaponItem* >( pItem );

  00017	6a 00		 push	 0
  00019	68 00 00 00 00	 push	 OFFSET ??_R0?AVioWeaponItem@@@8
  0001e	68 00 00 00 00	 push	 OFFSET ??_R0?AVioItem@@@8
  00023	6a 00		 push	 0
  00025	56		 push	 esi
  00026	e8 00 00 00 00	 call	 ___RTDynamicCast
  0002b	83 c4 14	 add	 esp, 20			; 00000014H
  0002e	eb 02		 jmp	 SHORT $LN3@ToWeaponIt
$LN1@ToWeaponIt:

; 305  : 		return NULL;

  00030	33 c0		 xor	 eax, eax
$LN3@ToWeaponIt:
  00032	5e		 pop	 esi

; 308  : }

  00033	5d		 pop	 ebp
  00034	c3		 ret	 0
?ToWeaponItem@@YAPAVioWeaponItem@@PAVioItem@@@Z ENDP	; ToWeaponItem
_TEXT	ENDS
PUBLIC	?size@?$vector@VioHashString@@V?$allocator@VioHashString@@@std@@@std@@QBEIXZ ; std::vector<ioHashString,std::allocator<ioHashString> >::size
; Function compile flags: /Ogsp
; File c:\program files (x86)\microsoft visual studio 10.0\vc\include\vector
;	COMDAT ?size@?$vector@VioHashString@@V?$allocator@VioHashString@@@std@@@std@@QBEIXZ
_TEXT	SEGMENT
?size@?$vector@VioHashString@@V?$allocator@VioHashString@@@std@@@std@@QBEIXZ PROC ; std::vector<ioHashString,std::allocator<ioHashString> >::size, COMDAT
; _this$ = ecx

; 879  : 		return (this->_Mylast - this->_Myfirst);

  00000	8b 41 04	 mov	 eax, DWORD PTR [ecx+4]
  00003	2b 01		 sub	 eax, DWORD PTR [ecx]
  00005	c1 f8 04	 sar	 eax, 4

; 880  : 		}

  00008	c3		 ret	 0
?size@?$vector@VioHashString@@V?$allocator@VioHashString@@@std@@@std@@QBEIXZ ENDP ; std::vector<ioHashString,std::allocator<ioHashString> >::size
_TEXT	ENDS
PUBLIC	??1?$_Vector_val@VioHashString@@V?$allocator@VioHashString@@@std@@@std@@QAE@XZ ; std::_Vector_val<ioHashString,std::allocator<ioHashString> >::~_Vector_val<ioHashString,std::allocator<ioHashString> >
; Function compile flags: /Ogsp
;	COMDAT ??1?$_Vector_val@VioHashString@@V?$allocator@VioHashString@@@std@@@std@@QAE@XZ
_TEXT	SEGMENT
??1?$_Vector_val@VioHashString@@V?$allocator@VioHashString@@@std@@@std@@QAE@XZ PROC ; std::_Vector_val<ioHashString,std::allocator<ioHashString> >::~_Vector_val<ioHashString,std::allocator<ioHashString> >, COMDAT
; _this$ = ecx

; 434  : 		}

  00000	c3		 ret	 0
??1?$_Vector_val@VioHashString@@V?$allocator@VioHashString@@@std@@@std@@QAE@XZ ENDP ; std::_Vector_val<ioHashString,std::allocator<ioHashString> >::~_Vector_val<ioHashString,std::allocator<ioHashString> >
_TEXT	ENDS
PUBLIC	??0?$allocator@VioHashString@@@std@@QAE@XZ	; std::allocator<ioHashString>::allocator<ioHashString>
; Function compile flags: /Ogsp
; File c:\program files (x86)\microsoft visual studio 10.0\vc\include\xmemory
;	COMDAT ??0?$allocator@VioHashString@@@std@@QAE@XZ
_TEXT	SEGMENT
??0?$allocator@VioHashString@@@std@@QAE@XZ PROC		; std::allocator<ioHashString>::allocator<ioHashString>, COMDAT
; _this$ = ecx

; 161  : 	_ALLOCATOR() _THROW0()

  00000	8b c1		 mov	 eax, ecx

; 162  : 		{	// construct default allocator (do nothing)
; 163  : 		}

  00002	c3		 ret	 0
??0?$allocator@VioHashString@@@std@@QAE@XZ ENDP		; std::allocator<ioHashString>::allocator<ioHashString>
_TEXT	ENDS
PUBLIC	??0?$allocator@VioHashString@@@std@@QAE@ABV01@@Z ; std::allocator<ioHashString>::allocator<ioHashString>
; Function compile flags: /Ogsp
;	COMDAT ??0?$allocator@VioHashString@@@std@@QAE@ABV01@@Z
_TEXT	SEGMENT
___formal$ = 8						; size = 4
??0?$allocator@VioHashString@@@std@@QAE@ABV01@@Z PROC	; std::allocator<ioHashString>::allocator<ioHashString>, COMDAT
; _this$ = ecx

; 165  : 	_ALLOCATOR(const _ALLOCATOR<_Ty>&) _THROW0()

  00000	8b c1		 mov	 eax, ecx

; 166  : 		{	// construct by copying (do nothing)
; 167  : 		}

  00002	c2 04 00	 ret	 4
??0?$allocator@VioHashString@@@std@@QAE@ABV01@@Z ENDP	; std::allocator<ioHashString>::allocator<ioHashString>
_TEXT	ENDS
PUBLIC	??1?$_Vector_val@UWeaponInfo@@V?$allocator@UWeaponInfo@@@std@@@std@@QAE@XZ ; std::_Vector_val<WeaponInfo,std::allocator<WeaponInfo> >::~_Vector_val<WeaponInfo,std::allocator<WeaponInfo> >
; Function compile flags: /Ogsp
; File c:\program files (x86)\microsoft visual studio 10.0\vc\include\vector
;	COMDAT ??1?$_Vector_val@UWeaponInfo@@V?$allocator@UWeaponInfo@@@std@@@std@@QAE@XZ
_TEXT	SEGMENT
??1?$_Vector_val@UWeaponInfo@@V?$allocator@UWeaponInfo@@@std@@@std@@QAE@XZ PROC ; std::_Vector_val<WeaponInfo,std::allocator<WeaponInfo> >::~_Vector_val<WeaponInfo,std::allocator<WeaponInfo> >, COMDAT
; _this$ = ecx

; 434  : 		}

  00000	c3		 ret	 0
??1?$_Vector_val@UWeaponInfo@@V?$allocator@UWeaponInfo@@@std@@@std@@QAE@XZ ENDP ; std::_Vector_val<WeaponInfo,std::allocator<WeaponInfo> >::~_Vector_val<WeaponInfo,std::allocator<WeaponInfo> >
_TEXT	ENDS
PUBLIC	??0?$allocator@UWeaponInfo@@@std@@QAE@XZ	; std::allocator<WeaponInfo>::allocator<WeaponInfo>
; Function compile flags: /Ogsp
; File c:\program files (x86)\microsoft visual studio 10.0\vc\include\xmemory
;	COMDAT ??0?$allocator@UWeaponInfo@@@std@@QAE@XZ
_TEXT	SEGMENT
??0?$allocator@UWeaponInfo@@@std@@QAE@XZ PROC		; std::allocator<WeaponInfo>::allocator<WeaponInfo>, COMDAT
; _this$ = ecx

; 161  : 	_ALLOCATOR() _THROW0()

  00000	8b c1		 mov	 eax, ecx

; 162  : 		{	// construct default allocator (do nothing)
; 163  : 		}

  00002	c3		 ret	 0
??0?$allocator@UWeaponInfo@@@std@@QAE@XZ ENDP		; std::allocator<WeaponInfo>::allocator<WeaponInfo>
_TEXT	ENDS
PUBLIC	??1?$_Vector_val@UForceInfo@@V?$allocator@UForceInfo@@@std@@@std@@QAE@XZ ; std::_Vector_val<ForceInfo,std::allocator<ForceInfo> >::~_Vector_val<ForceInfo,std::allocator<ForceInfo> >
; Function compile flags: /Ogsp
; File c:\program files (x86)\microsoft visual studio 10.0\vc\include\vector
;	COMDAT ??1?$_Vector_val@UForceInfo@@V?$allocator@UForceInfo@@@std@@@std@@QAE@XZ
_TEXT	SEGMENT
??1?$_Vector_val@UForceInfo@@V?$allocator@UForceInfo@@@std@@@std@@QAE@XZ PROC ; std::_Vector_val<ForceInfo,std::allocator<ForceInfo> >::~_Vector_val<ForceInfo,std::allocator<ForceInfo> >, COMDAT
; _this$ = ecx

; 434  : 		}

  00000	c3		 ret	 0
??1?$_Vector_val@UForceInfo@@V?$allocator@UForceInfo@@@std@@@std@@QAE@XZ ENDP ; std::_Vector_val<ForceInfo,std::allocator<ForceInfo> >::~_Vector_val<ForceInfo,std::allocator<ForceInfo> >
_TEXT	ENDS
PUBLIC	??0?$allocator@UForceInfo@@@std@@QAE@XZ		; std::allocator<ForceInfo>::allocator<ForceInfo>
; Function compile flags: /Ogsp
; File c:\program files (x86)\microsoft visual studio 10.0\vc\include\xmemory
;	COMDAT ??0?$allocator@UForceInfo@@@std@@QAE@XZ
_TEXT	SEGMENT
??0?$allocator@UForceInfo@@@std@@QAE@XZ PROC		; std::allocator<ForceInfo>::allocator<ForceInfo>, COMDAT
; _this$ = ecx

; 161  : 	_ALLOCATOR() _THROW0()

  00000	8b c1		 mov	 eax, ecx

; 162  : 		{	// construct default allocator (do nothing)
; 163  : 		}

  00002	c3		 ret	 0
??0?$allocator@UForceInfo@@@std@@QAE@XZ ENDP		; std::allocator<ForceInfo>::allocator<ForceInfo>
_TEXT	ENDS
PUBLIC	?EncryptValueToPool@?$CEncrypt@M@@AAEXPBD@Z	; CEncrypt<float>::EncryptValueToPool
EXTRN	?EncryptByte@ccddaabb@@QAEXPBDPADH@Z:PROC	; ccddaabb::EncryptByte
; Function compile flags: /Ogsp
; File d:\lost saga for developer\youtube\tutorial\source\src\lsclient\encryptvalue.h
;	COMDAT ?EncryptValueToPool@?$CEncrypt@M@@AAEXPBD@Z
_TEXT	SEGMENT
_value$ = 8						; size = 4
?EncryptValueToPool@?$CEncrypt@M@@AAEXPBD@Z PROC	; CEncrypt<float>::EncryptValueToPool, COMDAT
; _this$ = ecx

; 67   : 	{

  00000	55		 push	 ebp
  00001	8b ec		 mov	 ebp, esp

; 68   : 		m_RC5.EncryptByte( value, m_MemPool, max(m_ValueSize, DEFAULT_ENCRYPT) );

  00003	0f b7 41 06	 movzx	 eax, WORD PTR [ecx+6]
  00007	83 f8 04	 cmp	 eax, 4
  0000a	77 03		 ja	 SHORT $LN4@EncryptVal
  0000c	6a 04		 push	 4
  0000e	58		 pop	 eax
$LN4@EncryptVal:
  0000f	50		 push	 eax
  00010	8d 41 1c	 lea	 eax, DWORD PTR [ecx+28]
  00013	50		 push	 eax
  00014	ff 75 08	 push	 DWORD PTR _value$[ebp]
  00017	83 c1 0c	 add	 ecx, 12			; 0000000cH
  0001a	e8 00 00 00 00	 call	 ?EncryptByte@ccddaabb@@QAEXPBDPADH@Z ; ccddaabb::EncryptByte

; 69   : 		
; 70   : 	}

  0001f	5d		 pop	 ebp
  00020	c2 04 00	 ret	 4
?EncryptValueToPool@?$CEncrypt@M@@AAEXPBD@Z ENDP	; CEncrypt<float>::EncryptValueToPool
_TEXT	ENDS
PUBLIC	?DecryptValueToPool@?$CEncrypt@_N@@QAEXPA_N@Z	; CEncrypt<bool>::DecryptValueToPool
EXTRN	?DecryptByte@ccddaabb@@QBEXPBDPADH@Z:PROC	; ccddaabb::DecryptByte
; Function compile flags: /Ogsp
;	COMDAT ?DecryptValueToPool@?$CEncrypt@_N@@QAEXPA_N@Z
_TEXT	SEGMENT
_value$ = 8						; size = 4
?DecryptValueToPool@?$CEncrypt@_N@@QAEXPA_N@Z PROC	; CEncrypt<bool>::DecryptValueToPool, COMDAT
; _this$ = ecx

; 219  : 	{

  00000	55		 push	 ebp
  00001	8b ec		 mov	 ebp, esp
  00003	56		 push	 esi

; 220  : 		m_RC5.DecryptByte( m_MemPool, m_TempMem, 4 );

  00004	8d 71 28	 lea	 esi, DWORD PTR [ecx+40]
  00007	6a 04		 push	 4
  00009	8d 41 1c	 lea	 eax, DWORD PTR [ecx+28]
  0000c	56		 push	 esi
  0000d	50		 push	 eax
  0000e	83 c1 0c	 add	 ecx, 12			; 0000000cH
  00011	e8 00 00 00 00	 call	 ?DecryptByte@ccddaabb@@QBEXPBDPADH@Z ; ccddaabb::DecryptByte

; 221  : 		*value = *((bool*)m_TempMem);

  00016	8a 06		 mov	 al, BYTE PTR [esi]
  00018	8b 4d 08	 mov	 ecx, DWORD PTR _value$[ebp]
  0001b	88 01		 mov	 BYTE PTR [ecx], al
  0001d	5e		 pop	 esi

; 222  : 	}

  0001e	5d		 pop	 ebp
  0001f	c2 04 00	 ret	 4
?DecryptValueToPool@?$CEncrypt@_N@@QAEXPA_N@Z ENDP	; CEncrypt<bool>::DecryptValueToPool
_TEXT	ENDS
PUBLIC	??1?$_Vector_val@UAttackAttribute@@V?$allocator@UAttackAttribute@@@std@@@std@@QAE@XZ ; std::_Vector_val<AttackAttribute,std::allocator<AttackAttribute> >::~_Vector_val<AttackAttribute,std::allocator<AttackAttribute> >
; Function compile flags: /Ogsp
; File c:\program files (x86)\microsoft visual studio 10.0\vc\include\vector
;	COMDAT ??1?$_Vector_val@UAttackAttribute@@V?$allocator@UAttackAttribute@@@std@@@std@@QAE@XZ
_TEXT	SEGMENT
??1?$_Vector_val@UAttackAttribute@@V?$allocator@UAttackAttribute@@@std@@@std@@QAE@XZ PROC ; std::_Vector_val<AttackAttribute,std::allocator<AttackAttribute> >::~_Vector_val<AttackAttribute,std::allocator<AttackAttribute> >, COMDAT
; _this$ = ecx

; 434  : 		}

  00000	c3		 ret	 0
??1?$_Vector_val@UAttackAttribute@@V?$allocator@UAttackAttribute@@@std@@@std@@QAE@XZ ENDP ; std::_Vector_val<AttackAttribute,std::allocator<AttackAttribute> >::~_Vector_val<AttackAttribute,std::allocator<AttackAttribute> >
_TEXT	ENDS
PUBLIC	??0?$allocator@UAttackAttribute@@@std@@QAE@XZ	; std::allocator<AttackAttribute>::allocator<AttackAttribute>
; Function compile flags: /Ogsp
; File c:\program files (x86)\microsoft visual studio 10.0\vc\include\xmemory
;	COMDAT ??0?$allocator@UAttackAttribute@@@std@@QAE@XZ
_TEXT	SEGMENT
??0?$allocator@UAttackAttribute@@@std@@QAE@XZ PROC	; std::allocator<AttackAttribute>::allocator<AttackAttribute>, COMDAT
; _this$ = ecx

; 161  : 	_ALLOCATOR() _THROW0()

  00000	8b c1		 mov	 eax, ecx

; 162  : 		{	// construct default allocator (do nothing)
; 163  : 		}

  00002	c3		 ret	 0
??0?$allocator@UAttackAttribute@@@std@@QAE@XZ ENDP	; std::allocator<AttackAttribute>::allocator<AttackAttribute>
_TEXT	ENDS
PUBLIC	?_Xlen@?$vector@VioHashString@@V?$allocator@VioHashString@@@std@@@std@@IBEXXZ ; std::vector<ioHashString,std::allocator<ioHashString> >::_Xlen
; Function compile flags: /Ogsp
; File c:\program files (x86)\microsoft visual studio 10.0\vc\include\vector
;	COMDAT ?_Xlen@?$vector@VioHashString@@V?$allocator@VioHashString@@@std@@@std@@IBEXXZ
_TEXT	SEGMENT
?_Xlen@?$vector@VioHashString@@V?$allocator@VioHashString@@@std@@@std@@IBEXXZ PROC ; std::vector<ioHashString,std::allocator<ioHashString> >::_Xlen, COMDAT
; _this$ = ecx

; 1427 : 		_Xlength_error("vector<T> too long");

  00000	68 00 00 00 00	 push	 OFFSET ??_C@_0BD@OLBABOEK@vector?$DMT?$DO?5too?5long?$AA@
  00005	ff 15 00 00 00
	00		 call	 DWORD PTR __imp_?_Xlength_error@std@@YAXPBD@Z
$LN4@Xlen@2:
$LN3@Xlen@2:
  0000b	cc		 int	 3
?_Xlen@?$vector@VioHashString@@V?$allocator@VioHashString@@@std@@@std@@IBEXXZ ENDP ; std::vector<ioHashString,std::allocator<ioHashString> >::_Xlen
_TEXT	ENDS
PUBLIC	?deallocate@?$allocator@VioHashString@@@std@@QAEXPAVioHashString@@I@Z ; std::allocator<ioHashString>::deallocate
; Function compile flags: /Ogsp
; File c:\program files (x86)\microsoft visual studio 10.0\vc\include\xmemory
;	COMDAT ?deallocate@?$allocator@VioHashString@@@std@@QAEXPAVioHashString@@I@Z
_TEXT	SEGMENT
__Ptr$ = 8						; size = 4
___formal$ = 12						; size = 4
?deallocate@?$allocator@VioHashString@@@std@@QAEXPAVioHashString@@I@Z PROC ; std::allocator<ioHashString>::deallocate, COMDAT
; _this$ = ecx

; 181  : 		{	// deallocate object at _Ptr, ignore size

  00000	55		 push	 ebp
  00001	8b ec		 mov	 ebp, esp

; 182  : 		::operator delete(_Ptr);

  00003	ff 75 08	 push	 DWORD PTR __Ptr$[ebp]
  00006	e8 00 00 00 00	 call	 ??3@YAXPAX@Z		; operator delete
  0000b	59		 pop	 ecx

; 183  : 		}

  0000c	5d		 pop	 ebp
  0000d	c2 08 00	 ret	 8
?deallocate@?$allocator@VioHashString@@@std@@QAEXPAVioHashString@@I@Z ENDP ; std::allocator<ioHashString>::deallocate
_TEXT	ENDS
PUBLIC	??0?$allocator@UWeaponInfo@@@std@@QAE@ABV01@@Z	; std::allocator<WeaponInfo>::allocator<WeaponInfo>
; Function compile flags: /Ogsp
;	COMDAT ??0?$allocator@UWeaponInfo@@@std@@QAE@ABV01@@Z
_TEXT	SEGMENT
___formal$ = 8						; size = 4
??0?$allocator@UWeaponInfo@@@std@@QAE@ABV01@@Z PROC	; std::allocator<WeaponInfo>::allocator<WeaponInfo>, COMDAT
; _this$ = ecx

; 165  : 	_ALLOCATOR(const _ALLOCATOR<_Ty>&) _THROW0()

  00000	8b c1		 mov	 eax, ecx

; 166  : 		{	// construct by copying (do nothing)
; 167  : 		}

  00002	c2 04 00	 ret	 4
??0?$allocator@UWeaponInfo@@@std@@QAE@ABV01@@Z ENDP	; std::allocator<WeaponInfo>::allocator<WeaponInfo>
_TEXT	ENDS
PUBLIC	?deallocate@?$allocator@UWeaponInfo@@@std@@QAEXPAUWeaponInfo@@I@Z ; std::allocator<WeaponInfo>::deallocate
; Function compile flags: /Ogsp
;	COMDAT ?deallocate@?$allocator@UWeaponInfo@@@std@@QAEXPAUWeaponInfo@@I@Z
_TEXT	SEGMENT
__Ptr$ = 8						; size = 4
___formal$ = 12						; size = 4
?deallocate@?$allocator@UWeaponInfo@@@std@@QAEXPAUWeaponInfo@@I@Z PROC ; std::allocator<WeaponInfo>::deallocate, COMDAT
; _this$ = ecx

; 181  : 		{	// deallocate object at _Ptr, ignore size

  00000	55		 push	 ebp
  00001	8b ec		 mov	 ebp, esp

; 182  : 		::operator delete(_Ptr);

  00003	ff 75 08	 push	 DWORD PTR __Ptr$[ebp]
  00006	e8 00 00 00 00	 call	 ??3@YAXPAX@Z		; operator delete
  0000b	59		 pop	 ecx

; 183  : 		}

  0000c	5d		 pop	 ebp
  0000d	c2 08 00	 ret	 8
?deallocate@?$allocator@UWeaponInfo@@@std@@QAEXPAUWeaponInfo@@I@Z ENDP ; std::allocator<WeaponInfo>::deallocate
_TEXT	ENDS
PUBLIC	??0?$allocator@UForceInfo@@@std@@QAE@ABV01@@Z	; std::allocator<ForceInfo>::allocator<ForceInfo>
; Function compile flags: /Ogsp
;	COMDAT ??0?$allocator@UForceInfo@@@std@@QAE@ABV01@@Z
_TEXT	SEGMENT
___formal$ = 8						; size = 4
??0?$allocator@UForceInfo@@@std@@QAE@ABV01@@Z PROC	; std::allocator<ForceInfo>::allocator<ForceInfo>, COMDAT
; _this$ = ecx

; 165  : 	_ALLOCATOR(const _ALLOCATOR<_Ty>&) _THROW0()

  00000	8b c1		 mov	 eax, ecx

; 166  : 		{	// construct by copying (do nothing)
; 167  : 		}

  00002	c2 04 00	 ret	 4
??0?$allocator@UForceInfo@@@std@@QAE@ABV01@@Z ENDP	; std::allocator<ForceInfo>::allocator<ForceInfo>
_TEXT	ENDS
PUBLIC	?deallocate@?$allocator@UForceInfo@@@std@@QAEXPAUForceInfo@@I@Z ; std::allocator<ForceInfo>::deallocate
; Function compile flags: /Ogsp
;	COMDAT ?deallocate@?$allocator@UForceInfo@@@std@@QAEXPAUForceInfo@@I@Z
_TEXT	SEGMENT
__Ptr$ = 8						; size = 4
___formal$ = 12						; size = 4
?deallocate@?$allocator@UForceInfo@@@std@@QAEXPAUForceInfo@@I@Z PROC ; std::allocator<ForceInfo>::deallocate, COMDAT
; _this$ = ecx

; 181  : 		{	// deallocate object at _Ptr, ignore size

  00000	55		 push	 ebp
  00001	8b ec		 mov	 ebp, esp

; 182  : 		::operator delete(_Ptr);

  00003	ff 75 08	 push	 DWORD PTR __Ptr$[ebp]
  00006	e8 00 00 00 00	 call	 ??3@YAXPAX@Z		; operator delete
  0000b	59		 pop	 ecx

; 183  : 		}

  0000c	5d		 pop	 ebp
  0000d	c2 08 00	 ret	 8
?deallocate@?$allocator@UForceInfo@@@std@@QAEXPAUForceInfo@@I@Z ENDP ; std::allocator<ForceInfo>::deallocate
_TEXT	ENDS
PUBLIC	??0?$allocator@UAttackAttribute@@@std@@QAE@ABV01@@Z ; std::allocator<AttackAttribute>::allocator<AttackAttribute>
; Function compile flags: /Ogsp
;	COMDAT ??0?$allocator@UAttackAttribute@@@std@@QAE@ABV01@@Z
_TEXT	SEGMENT
___formal$ = 8						; size = 4
??0?$allocator@UAttackAttribute@@@std@@QAE@ABV01@@Z PROC ; std::allocator<AttackAttribute>::allocator<AttackAttribute>, COMDAT
; _this$ = ecx

; 165  : 	_ALLOCATOR(const _ALLOCATOR<_Ty>&) _THROW0()

  00000	8b c1		 mov	 eax, ecx

; 166  : 		{	// construct by copying (do nothing)
; 167  : 		}

  00002	c2 04 00	 ret	 4
??0?$allocator@UAttackAttribute@@@std@@QAE@ABV01@@Z ENDP ; std::allocator<AttackAttribute>::allocator<AttackAttribute>
_TEXT	ENDS
PUBLIC	?deallocate@?$allocator@UAttackAttribute@@@std@@QAEXPAUAttackAttribute@@I@Z ; std::allocator<AttackAttribute>::deallocate
; Function compile flags: /Ogsp
;	COMDAT ?deallocate@?$allocator@UAttackAttribute@@@std@@QAEXPAUAttackAttribute@@I@Z
_TEXT	SEGMENT
__Ptr$ = 8						; size = 4
___formal$ = 12						; size = 4
?deallocate@?$allocator@UAttackAttribute@@@std@@QAEXPAUAttackAttribute@@I@Z PROC ; std::allocator<AttackAttribute>::deallocate, COMDAT
; _this$ = ecx

; 181  : 		{	// deallocate object at _Ptr, ignore size

  00000	55		 push	 ebp
  00001	8b ec		 mov	 ebp, esp

; 182  : 		::operator delete(_Ptr);

  00003	ff 75 08	 push	 DWORD PTR __Ptr$[ebp]
  00006	e8 00 00 00 00	 call	 ??3@YAXPAX@Z		; operator delete
  0000b	59		 pop	 ecx

; 183  : 		}

  0000c	5d		 pop	 ebp
  0000d	c2 08 00	 ret	 8
?deallocate@?$allocator@UAttackAttribute@@@std@@QAEXPAUAttackAttribute@@I@Z ENDP ; std::allocator<AttackAttribute>::deallocate
_TEXT	ENDS
PUBLIC	??0?$_Vector_const_iterator@V?$_Vector_val@VioHashString@@V?$allocator@VioHashString@@@std@@@std@@@std@@QAE@PAVioHashString@@PBU_Container_base0@1@@Z ; std::_Vector_const_iterator<std::_Vector_val<ioHashString,std::allocator<ioHashString> > >::_Vector_const_iterator<std::_Vector_val<ioHashString,std::allocator<ioHashString> > >
; Function compile flags: /Ogsp
; File c:\program files (x86)\microsoft visual studio 10.0\vc\include\vector
;	COMDAT ??0?$_Vector_const_iterator@V?$_Vector_val@VioHashString@@V?$allocator@VioHashString@@@std@@@std@@@std@@QAE@PAVioHashString@@PBU_Container_base0@1@@Z
_TEXT	SEGMENT
__Parg$ = 8						; size = 4
__Pvector$ = 12						; size = 4
??0?$_Vector_const_iterator@V?$_Vector_val@VioHashString@@V?$allocator@VioHashString@@@std@@@std@@@std@@QAE@PAVioHashString@@PBU_Container_base0@1@@Z PROC ; std::_Vector_const_iterator<std::_Vector_val<ioHashString,std::allocator<ioHashString> > >::_Vector_const_iterator<std::_Vector_val<ioHashString,std::allocator<ioHashString> > >, COMDAT
; _this$ = ecx

; 45   : 		{	// construct with pointer _Parg

  00000	55		 push	 ebp
  00001	8b ec		 mov	 ebp, esp
  00003	8b c1		 mov	 eax, ecx
  00005	8b 4d 08	 mov	 ecx, DWORD PTR __Parg$[ebp]
  00008	89 08		 mov	 DWORD PTR [eax], ecx

; 46   : 		this->_Adopt(_Pvector);
; 47   : 		}

  0000a	5d		 pop	 ebp
  0000b	c2 08 00	 ret	 8
??0?$_Vector_const_iterator@V?$_Vector_val@VioHashString@@V?$allocator@VioHashString@@@std@@@std@@@std@@QAE@PAVioHashString@@PBU_Container_base0@1@@Z ENDP ; std::_Vector_const_iterator<std::_Vector_val<ioHashString,std::allocator<ioHashString> > >::_Vector_const_iterator<std::_Vector_val<ioHashString,std::allocator<ioHashString> > >
_TEXT	ENDS
PUBLIC	??0?$_Vector_iterator@V?$_Vector_val@VioHashString@@V?$allocator@VioHashString@@@std@@@std@@@std@@QAE@PAVioHashString@@PBU_Container_base0@1@@Z ; std::_Vector_iterator<std::_Vector_val<ioHashString,std::allocator<ioHashString> > >::_Vector_iterator<std::_Vector_val<ioHashString,std::allocator<ioHashString> > >
; Function compile flags: /Ogsp
;	COMDAT ??0?$_Vector_iterator@V?$_Vector_val@VioHashString@@V?$allocator@VioHashString@@@std@@@std@@@std@@QAE@PAVioHashString@@PBU_Container_base0@1@@Z
_TEXT	SEGMENT
__Parg$ = 8						; size = 4
__Pvector$ = 12						; size = 4
??0?$_Vector_iterator@V?$_Vector_val@VioHashString@@V?$allocator@VioHashString@@@std@@@std@@@std@@QAE@PAVioHashString@@PBU_Container_base0@1@@Z PROC ; std::_Vector_iterator<std::_Vector_val<ioHashString,std::allocator<ioHashString> > >::_Vector_iterator<std::_Vector_val<ioHashString,std::allocator<ioHashString> > >, COMDAT
; _this$ = ecx

; 304  : 		{	// construct with pointer _Parg

  00000	55		 push	 ebp
  00001	8b ec		 mov	 ebp, esp
  00003	8b c1		 mov	 eax, ecx
  00005	8b 4d 08	 mov	 ecx, DWORD PTR __Parg$[ebp]
  00008	89 08		 mov	 DWORD PTR [eax], ecx

; 305  : 		}

  0000a	5d		 pop	 ebp
  0000b	c2 08 00	 ret	 8
??0?$_Vector_iterator@V?$_Vector_val@VioHashString@@V?$allocator@VioHashString@@@std@@@std@@@std@@QAE@PAVioHashString@@PBU_Container_base0@1@@Z ENDP ; std::_Vector_iterator<std::_Vector_val<ioHashString,std::allocator<ioHashString> > >::_Vector_iterator<std::_Vector_val<ioHashString,std::allocator<ioHashString> > >
_TEXT	ENDS
PUBLIC	?max_size@?$allocator@VioHashString@@@std@@QBEIXZ ; std::allocator<ioHashString>::max_size
; Function compile flags: /Ogsp
; File c:\program files (x86)\microsoft visual studio 10.0\vc\include\xmemory
;	COMDAT ?max_size@?$allocator@VioHashString@@@std@@QBEIXZ
_TEXT	SEGMENT
?max_size@?$allocator@VioHashString@@@std@@QBEIXZ PROC	; std::allocator<ioHashString>::max_size, COMDAT
; _this$ = ecx

; 218  : 		_SIZT _Count = (_SIZT)(-1) / sizeof (_Ty);
; 219  : 		return (0 < _Count ? _Count : 1);

  00000	b8 ff ff ff 0f	 mov	 eax, 268435455		; 0fffffffH

; 220  : 		}

  00005	c3		 ret	 0
?max_size@?$allocator@VioHashString@@@std@@QBEIXZ ENDP	; std::allocator<ioHashString>::max_size
_TEXT	ENDS
PUBLIC	??0?$_Vector_const_iterator@V?$_Vector_val@UAttackAttribute@@V?$allocator@UAttackAttribute@@@std@@@std@@@std@@QAE@PAUAttackAttribute@@PBU_Container_base0@1@@Z ; std::_Vector_const_iterator<std::_Vector_val<AttackAttribute,std::allocator<AttackAttribute> > >::_Vector_const_iterator<std::_Vector_val<AttackAttribute,std::allocator<AttackAttribute> > >
; Function compile flags: /Ogsp
; File c:\program files (x86)\microsoft visual studio 10.0\vc\include\vector
;	COMDAT ??0?$_Vector_const_iterator@V?$_Vector_val@UAttackAttribute@@V?$allocator@UAttackAttribute@@@std@@@std@@@std@@QAE@PAUAttackAttribute@@PBU_Container_base0@1@@Z
_TEXT	SEGMENT
__Parg$ = 8						; size = 4
__Pvector$ = 12						; size = 4
??0?$_Vector_const_iterator@V?$_Vector_val@UAttackAttribute@@V?$allocator@UAttackAttribute@@@std@@@std@@@std@@QAE@PAUAttackAttribute@@PBU_Container_base0@1@@Z PROC ; std::_Vector_const_iterator<std::_Vector_val<AttackAttribute,std::allocator<AttackAttribute> > >::_Vector_const_iterator<std::_Vector_val<AttackAttribute,std::allocator<AttackAttribute> > >, COMDAT
; _this$ = ecx

; 45   : 		{	// construct with pointer _Parg

  00000	55		 push	 ebp
  00001	8b ec		 mov	 ebp, esp
  00003	8b c1		 mov	 eax, ecx
  00005	8b 4d 08	 mov	 ecx, DWORD PTR __Parg$[ebp]
  00008	89 08		 mov	 DWORD PTR [eax], ecx

; 46   : 		this->_Adopt(_Pvector);
; 47   : 		}

  0000a	5d		 pop	 ebp
  0000b	c2 08 00	 ret	 8
??0?$_Vector_const_iterator@V?$_Vector_val@UAttackAttribute@@V?$allocator@UAttackAttribute@@@std@@@std@@@std@@QAE@PAUAttackAttribute@@PBU_Container_base0@1@@Z ENDP ; std::_Vector_const_iterator<std::_Vector_val<AttackAttribute,std::allocator<AttackAttribute> > >::_Vector_const_iterator<std::_Vector_val<AttackAttribute,std::allocator<AttackAttribute> > >
_TEXT	ENDS
PUBLIC	?_Compat@?$_Vector_const_iterator@V?$_Vector_val@VioHashString@@V?$allocator@VioHashString@@@std@@@std@@@std@@QBEXABV12@@Z ; std::_Vector_const_iterator<std::_Vector_val<ioHashString,std::allocator<ioHashString> > >::_Compat
; Function compile flags: /Ogsp
;	COMDAT ?_Compat@?$_Vector_const_iterator@V?$_Vector_val@VioHashString@@V?$allocator@VioHashString@@@std@@@std@@@std@@QBEXABV12@@Z
_TEXT	SEGMENT
___formal$ = 8						; size = 4
?_Compat@?$_Vector_const_iterator@V?$_Vector_val@VioHashString@@V?$allocator@VioHashString@@@std@@@std@@@std@@QBEXABV12@@Z PROC ; std::_Vector_const_iterator<std::_Vector_val<ioHashString,std::allocator<ioHashString> > >::_Compat, COMDAT
; _this$ = ecx

; 253  : 		}

  00000	c2 04 00	 ret	 4
?_Compat@?$_Vector_const_iterator@V?$_Vector_val@VioHashString@@V?$allocator@VioHashString@@@std@@@std@@@std@@QBEXABV12@@Z ENDP ; std::_Vector_const_iterator<std::_Vector_val<ioHashString,std::allocator<ioHashString> > >::_Compat
_TEXT	ENDS
PUBLIC	?_Compat@?$_Vector_const_iterator@V?$_Vector_val@UAttackAttribute@@V?$allocator@UAttackAttribute@@@std@@@std@@@std@@QBEXABV12@@Z ; std::_Vector_const_iterator<std::_Vector_val<AttackAttribute,std::allocator<AttackAttribute> > >::_Compat
; Function compile flags: /Ogsp
;	COMDAT ?_Compat@?$_Vector_const_iterator@V?$_Vector_val@UAttackAttribute@@V?$allocator@UAttackAttribute@@@std@@@std@@@std@@QBEXABV12@@Z
_TEXT	SEGMENT
___formal$ = 8						; size = 4
?_Compat@?$_Vector_const_iterator@V?$_Vector_val@UAttackAttribute@@V?$allocator@UAttackAttribute@@@std@@@std@@@std@@QBEXABV12@@Z PROC ; std::_Vector_const_iterator<std::_Vector_val<AttackAttribute,std::allocator<AttackAttribute> > >::_Compat, COMDAT
; _this$ = ecx

; 253  : 		}

  00000	c2 04 00	 ret	 4
?_Compat@?$_Vector_const_iterator@V?$_Vector_val@UAttackAttribute@@V?$allocator@UAttackAttribute@@@std@@@std@@@std@@QBEXABV12@@Z ENDP ; std::_Vector_const_iterator<std::_Vector_val<AttackAttribute,std::allocator<AttackAttribute> > >::_Compat
_TEXT	ENDS
PUBLIC	??$_Allocate@VioHashString@@@std@@YAPAVioHashString@@IPAV1@@Z ; std::_Allocate<ioHashString>
; Function compile flags: /Ogsp
; File c:\program files (x86)\microsoft visual studio 10.0\vc\include\xmemory
;	COMDAT ??$_Allocate@VioHashString@@@std@@YAPAVioHashString@@IPAV1@@Z
_TEXT	SEGMENT
$T597100 = -12						; size = 12
$T597104 = 8						; size = 4
__Count$ = 8						; size = 4
___formal$ = 12						; size = 4
??$_Allocate@VioHashString@@@std@@YAPAVioHashString@@IPAV1@@Z PROC ; std::_Allocate<ioHashString>, COMDAT

; 30   : 	{	// allocate storage for _Count elements of type _Ty

  00000	55		 push	 ebp
  00001	8b ec		 mov	 ebp, esp

; 31   : 	void *_Ptr = 0;
; 32   : 
; 33   : 	if (_Count <= 0)

  00003	8b 4d 08	 mov	 ecx, DWORD PTR __Count$[ebp]
  00006	83 ec 0c	 sub	 esp, 12			; 0000000cH
  00009	33 c0		 xor	 eax, eax
  0000b	85 c9		 test	 ecx, ecx

; 34   : 		_Count = 0;
; 35   : 	else if (((_SIZT)(-1) / sizeof (_Ty) < _Count)

  0000d	74 3c		 je	 SHORT $LN5@Allocate@2

; 36   : 		|| (_Ptr = ::operator new(_Count * sizeof (_Ty))) == 0)

  0000f	81 f9 ff ff ff
	0f		 cmp	 ecx, 268435455		; 0fffffffH
  00015	77 0e		 ja	 SHORT $LN1@Allocate@2
  00017	c1 e1 04	 shl	 ecx, 4
  0001a	51		 push	 ecx
  0001b	e8 00 00 00 00	 call	 ??2@YAPAXI@Z		; operator new
  00020	59		 pop	 ecx
  00021	85 c0		 test	 eax, eax

; 38   : 
; 39   : 	return ((_Ty _FARQ *)_Ptr);

  00023	75 26		 jne	 SHORT $LN5@Allocate@2
$LN1@Allocate@2:

; 37   : 		_THROW_NCEE(bad_alloc, 0);

  00025	83 65 08 00	 and	 DWORD PTR $T597104[ebp], 0
  00029	8d 45 08	 lea	 eax, DWORD PTR $T597104[ebp]
  0002c	50		 push	 eax
  0002d	8d 4d f4	 lea	 ecx, DWORD PTR $T597100[ebp]
  00030	ff 15 00 00 00
	00		 call	 DWORD PTR __imp_??0exception@std@@QAE@ABQBD@Z
  00036	68 00 00 00 00	 push	 OFFSET __TI2?AVbad_alloc@std@@
  0003b	8d 45 f4	 lea	 eax, DWORD PTR $T597100[ebp]
  0003e	50		 push	 eax
  0003f	c7 45 f4 00 00
	00 00		 mov	 DWORD PTR $T597100[ebp], OFFSET ??_7bad_alloc@std@@6B@
  00046	e8 00 00 00 00	 call	 __CxxThrowException@8
$LN10@Allocate@2:
$LN5@Allocate@2:

; 40   : 	}

  0004b	c9		 leave
  0004c	c3		 ret	 0
$LN9@Allocate@2:
??$_Allocate@VioHashString@@@std@@YAPAVioHashString@@IPAV1@@Z ENDP ; std::_Allocate<ioHashString>
_TEXT	ENDS
EXTRN	__imp_??0exception@std@@QAE@ABV01@@Z:PROC
; Function compile flags: /Ogsp
;	COMDAT ??0bad_alloc@std@@QAE@ABV01@@Z
_TEXT	SEGMENT
___that$ = 8						; size = 4
??0bad_alloc@std@@QAE@ABV01@@Z PROC			; std::bad_alloc::bad_alloc, COMDAT
; _this$ = ecx
  00000	55		 push	 ebp
  00001	8b ec		 mov	 ebp, esp
  00003	56		 push	 esi
  00004	ff 75 08	 push	 DWORD PTR ___that$[ebp]
  00007	8b f1		 mov	 esi, ecx
  00009	ff 15 00 00 00
	00		 call	 DWORD PTR __imp_??0exception@std@@QAE@ABV01@@Z
  0000f	c7 06 00 00 00
	00		 mov	 DWORD PTR [esi], OFFSET ??_7bad_alloc@std@@6B@
  00015	8b c6		 mov	 eax, esi
  00017	5e		 pop	 esi
  00018	5d		 pop	 ebp
  00019	c2 04 00	 ret	 4
??0bad_alloc@std@@QAE@ABV01@@Z ENDP			; std::bad_alloc::bad_alloc
_TEXT	ENDS
PUBLIC	??$forward@ABVioHashString@@@std@@YAABVioHashString@@ABV1@@Z ; std::forward<ioHashString const &>
; Function compile flags: /Ogsp
; File c:\program files (x86)\microsoft visual studio 10.0\vc\include\utility
;	COMDAT ??$forward@ABVioHashString@@@std@@YAABVioHashString@@ABV1@@Z
_TEXT	SEGMENT
__Arg$ = 8						; size = 4
??$forward@ABVioHashString@@@std@@YAABVioHashString@@ABV1@@Z PROC ; std::forward<ioHashString const &>, COMDAT

; 78   : 	{	// forward _Arg, given explicitly specified type parameter

  00000	55		 push	 ebp
  00001	8b ec		 mov	 ebp, esp

; 79   : 	return ((_Ty&&)_Arg);

  00003	8b 45 08	 mov	 eax, DWORD PTR __Arg$[ebp]

; 80   : 	}

  00006	5d		 pop	 ebp
  00007	c3		 ret	 0
??$forward@ABVioHashString@@@std@@YAABVioHashString@@ABV1@@Z ENDP ; std::forward<ioHashString const &>
_TEXT	ENDS
PUBLIC	??$forward@AAVioHashString@@@std@@YAAAVioHashString@@AAV1@@Z ; std::forward<ioHashString &>
; Function compile flags: /Ogsp
;	COMDAT ??$forward@AAVioHashString@@@std@@YAAAVioHashString@@AAV1@@Z
_TEXT	SEGMENT
__Arg$ = 8						; size = 4
??$forward@AAVioHashString@@@std@@YAAAVioHashString@@AAV1@@Z PROC ; std::forward<ioHashString &>, COMDAT

; 78   : 	{	// forward _Arg, given explicitly specified type parameter

  00000	55		 push	 ebp
  00001	8b ec		 mov	 ebp, esp

; 79   : 	return ((_Ty&&)_Arg);

  00003	8b 45 08	 mov	 eax, DWORD PTR __Arg$[ebp]

; 80   : 	}

  00006	5d		 pop	 ebp
  00007	c3		 ret	 0
??$forward@AAVioHashString@@@std@@YAAAVioHashString@@AAV1@@Z ENDP ; std::forward<ioHashString &>
_TEXT	ENDS
PUBLIC	??$_Ptr_cat@VioHashString@@V1@@std@@YA?AU_Nonscalar_ptr_iterator_tag@0@PAVioHashString@@0@Z ; std::_Ptr_cat<ioHashString,ioHashString>
; Function compile flags: /Ogsp
; File c:\program files (x86)\microsoft visual studio 10.0\vc\include\xutility
;	COMDAT ??$_Ptr_cat@VioHashString@@V1@@std@@YA?AU_Nonscalar_ptr_iterator_tag@0@PAVioHashString@@0@Z
_TEXT	SEGMENT
__Cat$ = -1						; size = 1
___formal$ = 8						; size = 4
___formal$ = 12						; size = 4
??$_Ptr_cat@VioHashString@@V1@@std@@YA?AU_Nonscalar_ptr_iterator_tag@0@PAVioHashString@@0@Z PROC ; std::_Ptr_cat<ioHashString,ioHashString>, COMDAT

; 516  : 	{	// return pointer category from pointers

  00000	55		 push	 ebp
  00001	8b ec		 mov	 ebp, esp
  00003	51		 push	 ecx

; 517  : 	typename _Ptr_cat_helper<_Elem1, _Elem2>::_Type _Cat;
; 518  : 	return (_Cat);

  00004	8a 45 ff	 mov	 al, BYTE PTR __Cat$[ebp]

; 519  : 	}

  00007	c9		 leave
  00008	c3		 ret	 0
??$_Ptr_cat@VioHashString@@V1@@std@@YA?AU_Nonscalar_ptr_iterator_tag@0@PAVioHashString@@0@Z ENDP ; std::_Ptr_cat<ioHashString,ioHashString>
_TEXT	ENDS
PUBLIC	??$_Ptr_cat@UAttackAttribute@@U1@@std@@YA?AU_Nonscalar_ptr_iterator_tag@0@PAUAttackAttribute@@0@Z ; std::_Ptr_cat<AttackAttribute,AttackAttribute>
; Function compile flags: /Ogsp
;	COMDAT ??$_Ptr_cat@UAttackAttribute@@U1@@std@@YA?AU_Nonscalar_ptr_iterator_tag@0@PAUAttackAttribute@@0@Z
_TEXT	SEGMENT
__Cat$ = -1						; size = 1
___formal$ = 8						; size = 4
___formal$ = 12						; size = 4
??$_Ptr_cat@UAttackAttribute@@U1@@std@@YA?AU_Nonscalar_ptr_iterator_tag@0@PAUAttackAttribute@@0@Z PROC ; std::_Ptr_cat<AttackAttribute,AttackAttribute>, COMDAT

; 516  : 	{	// return pointer category from pointers

  00000	55		 push	 ebp
  00001	8b ec		 mov	 ebp, esp
  00003	51		 push	 ecx

; 517  : 	typename _Ptr_cat_helper<_Elem1, _Elem2>::_Type _Cat;
; 518  : 	return (_Cat);

  00004	8a 45 ff	 mov	 al, BYTE PTR __Cat$[ebp]

; 519  : 	}

  00007	c9		 leave
  00008	c3		 ret	 0
??$_Ptr_cat@UAttackAttribute@@U1@@std@@YA?AU_Nonscalar_ptr_iterator_tag@0@PAUAttackAttribute@@0@Z ENDP ; std::_Ptr_cat<AttackAttribute,AttackAttribute>
_TEXT	ENDS
PUBLIC	??$_Ptr_cat@UWeaponInfo@@U1@@std@@YA?AU_Nonscalar_ptr_iterator_tag@0@PAUWeaponInfo@@0@Z ; std::_Ptr_cat<WeaponInfo,WeaponInfo>
; Function compile flags: /Ogsp
;	COMDAT ??$_Ptr_cat@UWeaponInfo@@U1@@std@@YA?AU_Nonscalar_ptr_iterator_tag@0@PAUWeaponInfo@@0@Z
_TEXT	SEGMENT
__Cat$ = -1						; size = 1
___formal$ = 8						; size = 4
___formal$ = 12						; size = 4
??$_Ptr_cat@UWeaponInfo@@U1@@std@@YA?AU_Nonscalar_ptr_iterator_tag@0@PAUWeaponInfo@@0@Z PROC ; std::_Ptr_cat<WeaponInfo,WeaponInfo>, COMDAT

; 516  : 	{	// return pointer category from pointers

  00000	55		 push	 ebp
  00001	8b ec		 mov	 ebp, esp
  00003	51		 push	 ecx

; 517  : 	typename _Ptr_cat_helper<_Elem1, _Elem2>::_Type _Cat;
; 518  : 	return (_Cat);

  00004	8a 45 ff	 mov	 al, BYTE PTR __Cat$[ebp]

; 519  : 	}

  00007	c9		 leave
  00008	c3		 ret	 0
??$_Ptr_cat@UWeaponInfo@@U1@@std@@YA?AU_Nonscalar_ptr_iterator_tag@0@PAUWeaponInfo@@0@Z ENDP ; std::_Ptr_cat<WeaponInfo,WeaponInfo>
_TEXT	ENDS
PUBLIC	??$_Ptr_cat@UForceInfo@@U1@@std@@YA?AU_Nonscalar_ptr_iterator_tag@0@PAUForceInfo@@0@Z ; std::_Ptr_cat<ForceInfo,ForceInfo>
; Function compile flags: /Ogsp
;	COMDAT ??$_Ptr_cat@UForceInfo@@U1@@std@@YA?AU_Nonscalar_ptr_iterator_tag@0@PAUForceInfo@@0@Z
_TEXT	SEGMENT
__Cat$ = -1						; size = 1
___formal$ = 8						; size = 4
___formal$ = 12						; size = 4
??$_Ptr_cat@UForceInfo@@U1@@std@@YA?AU_Nonscalar_ptr_iterator_tag@0@PAUForceInfo@@0@Z PROC ; std::_Ptr_cat<ForceInfo,ForceInfo>, COMDAT

; 516  : 	{	// return pointer category from pointers

  00000	55		 push	 ebp
  00001	8b ec		 mov	 ebp, esp
  00003	51		 push	 ecx

; 517  : 	typename _Ptr_cat_helper<_Elem1, _Elem2>::_Type _Cat;
; 518  : 	return (_Cat);

  00004	8a 45 ff	 mov	 al, BYTE PTR __Cat$[ebp]

; 519  : 	}

  00007	c9		 leave
  00008	c3		 ret	 0
??$_Ptr_cat@UForceInfo@@U1@@std@@YA?AU_Nonscalar_ptr_iterator_tag@0@PAUForceInfo@@0@Z ENDP ; std::_Ptr_cat<ForceInfo,ForceInfo>
_TEXT	ENDS
PUBLIC	?capacity@?$vector@UWeaponInfo@@V?$allocator@UWeaponInfo@@@std@@@std@@QBEIXZ ; std::vector<WeaponInfo,std::allocator<WeaponInfo> >::capacity
; Function compile flags: /Ogsp
; File c:\program files (x86)\microsoft visual studio 10.0\vc\include\vector
;	COMDAT ?capacity@?$vector@UWeaponInfo@@V?$allocator@UWeaponInfo@@@std@@@std@@QBEIXZ
_TEXT	SEGMENT
?capacity@?$vector@UWeaponInfo@@V?$allocator@UWeaponInfo@@@std@@@std@@QBEIXZ PROC ; std::vector<WeaponInfo,std::allocator<WeaponInfo> >::capacity, COMDAT
; _this$ = ecx

; 777  : 		return (this->_Myend - this->_Myfirst);

  00000	8b 41 08	 mov	 eax, DWORD PTR [ecx+8]
  00003	2b 01		 sub	 eax, DWORD PTR [ecx]
  00005	6a 28		 push	 40			; 00000028H
  00007	99		 cdq
  00008	59		 pop	 ecx
  00009	f7 f9		 idiv	 ecx

; 778  : 		}

  0000b	c3		 ret	 0
?capacity@?$vector@UWeaponInfo@@V?$allocator@UWeaponInfo@@@std@@@std@@QBEIXZ ENDP ; std::vector<WeaponInfo,std::allocator<WeaponInfo> >::capacity
_TEXT	ENDS
PUBLIC	?size@?$vector@UWeaponInfo@@V?$allocator@UWeaponInfo@@@std@@@std@@QBEIXZ ; std::vector<WeaponInfo,std::allocator<WeaponInfo> >::size
; Function compile flags: /Ogsp
;	COMDAT ?size@?$vector@UWeaponInfo@@V?$allocator@UWeaponInfo@@@std@@@std@@QBEIXZ
_TEXT	SEGMENT
?size@?$vector@UWeaponInfo@@V?$allocator@UWeaponInfo@@@std@@@std@@QBEIXZ PROC ; std::vector<WeaponInfo,std::allocator<WeaponInfo> >::size, COMDAT
; _this$ = ecx

; 879  : 		return (this->_Mylast - this->_Myfirst);

  00000	8b 41 04	 mov	 eax, DWORD PTR [ecx+4]
  00003	2b 01		 sub	 eax, DWORD PTR [ecx]
  00005	6a 28		 push	 40			; 00000028H
  00007	99		 cdq
  00008	59		 pop	 ecx
  00009	f7 f9		 idiv	 ecx

; 880  : 		}

  0000b	c3		 ret	 0
?size@?$vector@UWeaponInfo@@V?$allocator@UWeaponInfo@@@std@@@std@@QBEIXZ ENDP ; std::vector<WeaponInfo,std::allocator<WeaponInfo> >::size
_TEXT	ENDS
PUBLIC	?capacity@?$vector@UForceInfo@@V?$allocator@UForceInfo@@@std@@@std@@QBEIXZ ; std::vector<ForceInfo,std::allocator<ForceInfo> >::capacity
; Function compile flags: /Ogsp
;	COMDAT ?capacity@?$vector@UForceInfo@@V?$allocator@UForceInfo@@@std@@@std@@QBEIXZ
_TEXT	SEGMENT
?capacity@?$vector@UForceInfo@@V?$allocator@UForceInfo@@@std@@@std@@QBEIXZ PROC ; std::vector<ForceInfo,std::allocator<ForceInfo> >::capacity, COMDAT
; _this$ = ecx

; 777  : 		return (this->_Myend - this->_Myfirst);

  00000	8b 41 08	 mov	 eax, DWORD PTR [ecx+8]
  00003	2b 01		 sub	 eax, DWORD PTR [ecx]
  00005	6a 0c		 push	 12			; 0000000cH
  00007	99		 cdq
  00008	59		 pop	 ecx
  00009	f7 f9		 idiv	 ecx

; 778  : 		}

  0000b	c3		 ret	 0
?capacity@?$vector@UForceInfo@@V?$allocator@UForceInfo@@@std@@@std@@QBEIXZ ENDP ; std::vector<ForceInfo,std::allocator<ForceInfo> >::capacity
_TEXT	ENDS
PUBLIC	?size@?$vector@UForceInfo@@V?$allocator@UForceInfo@@@std@@@std@@QBEIXZ ; std::vector<ForceInfo,std::allocator<ForceInfo> >::size
; Function compile flags: /Ogsp
;	COMDAT ?size@?$vector@UForceInfo@@V?$allocator@UForceInfo@@@std@@@std@@QBEIXZ
_TEXT	SEGMENT
?size@?$vector@UForceInfo@@V?$allocator@UForceInfo@@@std@@@std@@QBEIXZ PROC ; std::vector<ForceInfo,std::allocator<ForceInfo> >::size, COMDAT
; _this$ = ecx

; 879  : 		return (this->_Mylast - this->_Myfirst);

  00000	8b 41 04	 mov	 eax, DWORD PTR [ecx+4]
  00003	2b 01		 sub	 eax, DWORD PTR [ecx]
  00005	6a 0c		 push	 12			; 0000000cH
  00007	99		 cdq
  00008	59		 pop	 ecx
  00009	f7 f9		 idiv	 ecx

; 880  : 		}

  0000b	c3		 ret	 0
?size@?$vector@UForceInfo@@V?$allocator@UForceInfo@@@std@@@std@@QBEIXZ ENDP ; std::vector<ForceInfo,std::allocator<ForceInfo> >::size
_TEXT	ENDS
PUBLIC	?_Xlen@?$vector@UWeaponInfo@@V?$allocator@UWeaponInfo@@@std@@@std@@IBEXXZ ; std::vector<WeaponInfo,std::allocator<WeaponInfo> >::_Xlen
; Function compile flags: /Ogsp
;	COMDAT ?_Xlen@?$vector@UWeaponInfo@@V?$allocator@UWeaponInfo@@@std@@@std@@IBEXXZ
_TEXT	SEGMENT
?_Xlen@?$vector@UWeaponInfo@@V?$allocator@UWeaponInfo@@@std@@@std@@IBEXXZ PROC ; std::vector<WeaponInfo,std::allocator<WeaponInfo> >::_Xlen, COMDAT
; _this$ = ecx

; 1427 : 		_Xlength_error("vector<T> too long");

  00000	68 00 00 00 00	 push	 OFFSET ??_C@_0BD@OLBABOEK@vector?$DMT?$DO?5too?5long?$AA@
  00005	ff 15 00 00 00
	00		 call	 DWORD PTR __imp_?_Xlength_error@std@@YAXPBD@Z
$LN4@Xlen@3:
$LN3@Xlen@3:
  0000b	cc		 int	 3
?_Xlen@?$vector@UWeaponInfo@@V?$allocator@UWeaponInfo@@@std@@@std@@IBEXXZ ENDP ; std::vector<WeaponInfo,std::allocator<WeaponInfo> >::_Xlen
_TEXT	ENDS
PUBLIC	?_Xlen@?$vector@UForceInfo@@V?$allocator@UForceInfo@@@std@@@std@@IBEXXZ ; std::vector<ForceInfo,std::allocator<ForceInfo> >::_Xlen
; Function compile flags: /Ogsp
;	COMDAT ?_Xlen@?$vector@UForceInfo@@V?$allocator@UForceInfo@@@std@@@std@@IBEXXZ
_TEXT	SEGMENT
?_Xlen@?$vector@UForceInfo@@V?$allocator@UForceInfo@@@std@@@std@@IBEXXZ PROC ; std::vector<ForceInfo,std::allocator<ForceInfo> >::_Xlen, COMDAT
; _this$ = ecx

; 1427 : 		_Xlength_error("vector<T> too long");

  00000	68 00 00 00 00	 push	 OFFSET ??_C@_0BD@OLBABOEK@vector?$DMT?$DO?5too?5long?$AA@
  00005	ff 15 00 00 00
	00		 call	 DWORD PTR __imp_?_Xlength_error@std@@YAXPBD@Z
$LN4@Xlen@4:
$LN3@Xlen@4:
  0000b	cc		 int	 3
?_Xlen@?$vector@UForceInfo@@V?$allocator@UForceInfo@@@std@@@std@@IBEXXZ ENDP ; std::vector<ForceInfo,std::allocator<ForceInfo> >::_Xlen
_TEXT	ENDS
PUBLIC	?max_size@?$allocator@UWeaponInfo@@@std@@QBEIXZ	; std::allocator<WeaponInfo>::max_size
; Function compile flags: /Ogsp
; File c:\program files (x86)\microsoft visual studio 10.0\vc\include\xmemory
;	COMDAT ?max_size@?$allocator@UWeaponInfo@@@std@@QBEIXZ
_TEXT	SEGMENT
?max_size@?$allocator@UWeaponInfo@@@std@@QBEIXZ PROC	; std::allocator<WeaponInfo>::max_size, COMDAT
; _this$ = ecx

; 218  : 		_SIZT _Count = (_SIZT)(-1) / sizeof (_Ty);
; 219  : 		return (0 < _Count ? _Count : 1);

  00000	b8 66 66 66 06	 mov	 eax, 107374182		; 06666666H

; 220  : 		}

  00005	c3		 ret	 0
?max_size@?$allocator@UWeaponInfo@@@std@@QBEIXZ ENDP	; std::allocator<WeaponInfo>::max_size
_TEXT	ENDS
PUBLIC	?max_size@?$allocator@UForceInfo@@@std@@QBEIXZ	; std::allocator<ForceInfo>::max_size
; Function compile flags: /Ogsp
;	COMDAT ?max_size@?$allocator@UForceInfo@@@std@@QBEIXZ
_TEXT	SEGMENT
?max_size@?$allocator@UForceInfo@@@std@@QBEIXZ PROC	; std::allocator<ForceInfo>::max_size, COMDAT
; _this$ = ecx

; 218  : 		_SIZT _Count = (_SIZT)(-1) / sizeof (_Ty);
; 219  : 		return (0 < _Count ? _Count : 1);

  00000	b8 55 55 55 15	 mov	 eax, 357913941		; 15555555H

; 220  : 		}

  00005	c3		 ret	 0
?max_size@?$allocator@UForceInfo@@@std@@QBEIXZ ENDP	; std::allocator<ForceInfo>::max_size
_TEXT	ENDS
PUBLIC	??0?$_Vector_const_iterator@V?$_Vector_val@UWeaponInfo@@V?$allocator@UWeaponInfo@@@std@@@std@@@std@@QAE@PAUWeaponInfo@@PBU_Container_base0@1@@Z ; std::_Vector_const_iterator<std::_Vector_val<WeaponInfo,std::allocator<WeaponInfo> > >::_Vector_const_iterator<std::_Vector_val<WeaponInfo,std::allocator<WeaponInfo> > >
; Function compile flags: /Ogsp
; File c:\program files (x86)\microsoft visual studio 10.0\vc\include\vector
;	COMDAT ??0?$_Vector_const_iterator@V?$_Vector_val@UWeaponInfo@@V?$allocator@UWeaponInfo@@@std@@@std@@@std@@QAE@PAUWeaponInfo@@PBU_Container_base0@1@@Z
_TEXT	SEGMENT
__Parg$ = 8						; size = 4
__Pvector$ = 12						; size = 4
??0?$_Vector_const_iterator@V?$_Vector_val@UWeaponInfo@@V?$allocator@UWeaponInfo@@@std@@@std@@@std@@QAE@PAUWeaponInfo@@PBU_Container_base0@1@@Z PROC ; std::_Vector_const_iterator<std::_Vector_val<WeaponInfo,std::allocator<WeaponInfo> > >::_Vector_const_iterator<std::_Vector_val<WeaponInfo,std::allocator<WeaponInfo> > >, COMDAT
; _this$ = ecx

; 45   : 		{	// construct with pointer _Parg

  00000	55		 push	 ebp
  00001	8b ec		 mov	 ebp, esp
  00003	8b c1		 mov	 eax, ecx
  00005	8b 4d 08	 mov	 ecx, DWORD PTR __Parg$[ebp]
  00008	89 08		 mov	 DWORD PTR [eax], ecx

; 46   : 		this->_Adopt(_Pvector);
; 47   : 		}

  0000a	5d		 pop	 ebp
  0000b	c2 08 00	 ret	 8
??0?$_Vector_const_iterator@V?$_Vector_val@UWeaponInfo@@V?$allocator@UWeaponInfo@@@std@@@std@@@std@@QAE@PAUWeaponInfo@@PBU_Container_base0@1@@Z ENDP ; std::_Vector_const_iterator<std::_Vector_val<WeaponInfo,std::allocator<WeaponInfo> > >::_Vector_const_iterator<std::_Vector_val<WeaponInfo,std::allocator<WeaponInfo> > >
_TEXT	ENDS
PUBLIC	??0?$_Vector_const_iterator@V?$_Vector_val@UForceInfo@@V?$allocator@UForceInfo@@@std@@@std@@@std@@QAE@PAUForceInfo@@PBU_Container_base0@1@@Z ; std::_Vector_const_iterator<std::_Vector_val<ForceInfo,std::allocator<ForceInfo> > >::_Vector_const_iterator<std::_Vector_val<ForceInfo,std::allocator<ForceInfo> > >
; Function compile flags: /Ogsp
;	COMDAT ??0?$_Vector_const_iterator@V?$_Vector_val@UForceInfo@@V?$allocator@UForceInfo@@@std@@@std@@@std@@QAE@PAUForceInfo@@PBU_Container_base0@1@@Z
_TEXT	SEGMENT
__Parg$ = 8						; size = 4
__Pvector$ = 12						; size = 4
??0?$_Vector_const_iterator@V?$_Vector_val@UForceInfo@@V?$allocator@UForceInfo@@@std@@@std@@@std@@QAE@PAUForceInfo@@PBU_Container_base0@1@@Z PROC ; std::_Vector_const_iterator<std::_Vector_val<ForceInfo,std::allocator<ForceInfo> > >::_Vector_const_iterator<std::_Vector_val<ForceInfo,std::allocator<ForceInfo> > >, COMDAT
; _this$ = ecx

; 45   : 		{	// construct with pointer _Parg

  00000	55		 push	 ebp
  00001	8b ec		 mov	 ebp, esp
  00003	8b c1		 mov	 eax, ecx
  00005	8b 4d 08	 mov	 ecx, DWORD PTR __Parg$[ebp]
  00008	89 08		 mov	 DWORD PTR [eax], ecx

; 46   : 		this->_Adopt(_Pvector);
; 47   : 		}

  0000a	5d		 pop	 ebp
  0000b	c2 08 00	 ret	 8
??0?$_Vector_const_iterator@V?$_Vector_val@UForceInfo@@V?$allocator@UForceInfo@@@std@@@std@@@std@@QAE@PAUForceInfo@@PBU_Container_base0@1@@Z ENDP ; std::_Vector_const_iterator<std::_Vector_val<ForceInfo,std::allocator<ForceInfo> > >::_Vector_const_iterator<std::_Vector_val<ForceInfo,std::allocator<ForceInfo> > >
_TEXT	ENDS
PUBLIC	?_Compat@?$_Vector_const_iterator@V?$_Vector_val@UWeaponInfo@@V?$allocator@UWeaponInfo@@@std@@@std@@@std@@QBEXABV12@@Z ; std::_Vector_const_iterator<std::_Vector_val<WeaponInfo,std::allocator<WeaponInfo> > >::_Compat
; Function compile flags: /Ogsp
;	COMDAT ?_Compat@?$_Vector_const_iterator@V?$_Vector_val@UWeaponInfo@@V?$allocator@UWeaponInfo@@@std@@@std@@@std@@QBEXABV12@@Z
_TEXT	SEGMENT
___formal$ = 8						; size = 4
?_Compat@?$_Vector_const_iterator@V?$_Vector_val@UWeaponInfo@@V?$allocator@UWeaponInfo@@@std@@@std@@@std@@QBEXABV12@@Z PROC ; std::_Vector_const_iterator<std::_Vector_val<WeaponInfo,std::allocator<WeaponInfo> > >::_Compat, COMDAT
; _this$ = ecx

; 253  : 		}

  00000	c2 04 00	 ret	 4
?_Compat@?$_Vector_const_iterator@V?$_Vector_val@UWeaponInfo@@V?$allocator@UWeaponInfo@@@std@@@std@@@std@@QBEXABV12@@Z ENDP ; std::_Vector_const_iterator<std::_Vector_val<WeaponInfo,std::allocator<WeaponInfo> > >::_Compat
_TEXT	ENDS
PUBLIC	?_Compat@?$_Vector_const_iterator@V?$_Vector_val@UForceInfo@@V?$allocator@UForceInfo@@@std@@@std@@@std@@QBEXABV12@@Z ; std::_Vector_const_iterator<std::_Vector_val<ForceInfo,std::allocator<ForceInfo> > >::_Compat
; Function compile flags: /Ogsp
;	COMDAT ?_Compat@?$_Vector_const_iterator@V?$_Vector_val@UForceInfo@@V?$allocator@UForceInfo@@@std@@@std@@@std@@QBEXABV12@@Z
_TEXT	SEGMENT
___formal$ = 8						; size = 4
?_Compat@?$_Vector_const_iterator@V?$_Vector_val@UForceInfo@@V?$allocator@UForceInfo@@@std@@@std@@@std@@QBEXABV12@@Z PROC ; std::_Vector_const_iterator<std::_Vector_val<ForceInfo,std::allocator<ForceInfo> > >::_Compat, COMDAT
; _this$ = ecx

; 253  : 		}

  00000	c2 04 00	 ret	 4
?_Compat@?$_Vector_const_iterator@V?$_Vector_val@UForceInfo@@V?$allocator@UForceInfo@@@std@@@std@@@std@@QBEXABV12@@Z ENDP ; std::_Vector_const_iterator<std::_Vector_val<ForceInfo,std::allocator<ForceInfo> > >::_Compat
_TEXT	ENDS
PUBLIC	??$_Ptr_cat@V?$_Vector_const_iterator@V?$_Vector_val@VioHashString@@V?$allocator@VioHashString@@@std@@@std@@@std@@PAVioHashString@@@std@@YA?AU_Nonscalar_ptr_iterator_tag@0@AAV?$_Vector_const_iterator@V?$_Vector_val@VioHashString@@V?$allocator@VioHashString@@@std@@@std@@@0@AAPAVioHashString@@@Z ; std::_Ptr_cat<std::_Vector_const_iterator<std::_Vector_val<ioHashString,std::allocator<ioHashString> > >,ioHashString *>
; Function compile flags: /Ogsp
; File c:\program files (x86)\microsoft visual studio 10.0\vc\include\xutility
;	COMDAT ??$_Ptr_cat@V?$_Vector_const_iterator@V?$_Vector_val@VioHashString@@V?$allocator@VioHashString@@@std@@@std@@@std@@PAVioHashString@@@std@@YA?AU_Nonscalar_ptr_iterator_tag@0@AAV?$_Vector_const_iterator@V?$_Vector_val@VioHashString@@V?$allocator@VioHashString@@@std@@@std@@@0@AAPAVioHashString@@@Z
_TEXT	SEGMENT
__Cat$ = -1						; size = 1
___formal$ = 8						; size = 4
___formal$ = 12						; size = 4
??$_Ptr_cat@V?$_Vector_const_iterator@V?$_Vector_val@VioHashString@@V?$allocator@VioHashString@@@std@@@std@@@std@@PAVioHashString@@@std@@YA?AU_Nonscalar_ptr_iterator_tag@0@AAV?$_Vector_const_iterator@V?$_Vector_val@VioHashString@@V?$allocator@VioHashString@@@std@@@std@@@0@AAPAVioHashString@@@Z PROC ; std::_Ptr_cat<std::_Vector_const_iterator<std::_Vector_val<ioHashString,std::allocator<ioHashString> > >,ioHashString *>, COMDAT

; 485  : 	{	// return pointer category from arbitrary arguments

  00000	55		 push	 ebp
  00001	8b ec		 mov	 ebp, esp
  00003	51		 push	 ecx

; 486  : 	_Nonscalar_ptr_iterator_tag _Cat;
; 487  : 	return (_Cat);

  00004	8a 45 ff	 mov	 al, BYTE PTR __Cat$[ebp]

; 488  : 	}

  00007	c9		 leave
  00008	c3		 ret	 0
??$_Ptr_cat@V?$_Vector_const_iterator@V?$_Vector_val@VioHashString@@V?$allocator@VioHashString@@@std@@@std@@@std@@PAVioHashString@@@std@@YA?AU_Nonscalar_ptr_iterator_tag@0@AAV?$_Vector_const_iterator@V?$_Vector_val@VioHashString@@V?$allocator@VioHashString@@@std@@@std@@@0@AAPAVioHashString@@@Z ENDP ; std::_Ptr_cat<std::_Vector_const_iterator<std::_Vector_val<ioHashString,std::allocator<ioHashString> > >,ioHashString *>
_TEXT	ENDS
PUBLIC	??$move@AAVioHashString@@@std@@YA$$QAVioHashString@@AAV1@@Z ; std::move<ioHashString &>
; Function compile flags: /Ogsp
; File c:\program files (x86)\microsoft visual studio 10.0\vc\include\utility
;	COMDAT ??$move@AAVioHashString@@@std@@YA$$QAVioHashString@@AAV1@@Z
_TEXT	SEGMENT
__Arg$ = 8						; size = 4
??$move@AAVioHashString@@@std@@YA$$QAVioHashString@@AAV1@@Z PROC ; std::move<ioHashString &>, COMDAT

; 86   : 	{	// forward _Arg as movable

  00000	55		 push	 ebp
  00001	8b ec		 mov	 ebp, esp

; 87   : 	return ((typename tr1::_Remove_reference<_Ty>::_Type&&)_Arg);

  00003	8b 45 08	 mov	 eax, DWORD PTR __Arg$[ebp]

; 88   : 	}

  00006	5d		 pop	 ebp
  00007	c3		 ret	 0
??$move@AAVioHashString@@@std@@YA$$QAVioHashString@@AAV1@@Z ENDP ; std::move<ioHashString &>
_TEXT	ENDS
PUBLIC	??$move@AAUAttackAttribute@@@std@@YA$$QAUAttackAttribute@@AAU1@@Z ; std::move<AttackAttribute &>
; Function compile flags: /Ogsp
;	COMDAT ??$move@AAUAttackAttribute@@@std@@YA$$QAUAttackAttribute@@AAU1@@Z
_TEXT	SEGMENT
__Arg$ = 8						; size = 4
??$move@AAUAttackAttribute@@@std@@YA$$QAUAttackAttribute@@AAU1@@Z PROC ; std::move<AttackAttribute &>, COMDAT

; 86   : 	{	// forward _Arg as movable

  00000	55		 push	 ebp
  00001	8b ec		 mov	 ebp, esp

; 87   : 	return ((typename tr1::_Remove_reference<_Ty>::_Type&&)_Arg);

  00003	8b 45 08	 mov	 eax, DWORD PTR __Arg$[ebp]

; 88   : 	}

  00006	5d		 pop	 ebp
  00007	c3		 ret	 0
??$move@AAUAttackAttribute@@@std@@YA$$QAUAttackAttribute@@AAU1@@Z ENDP ; std::move<AttackAttribute &>
_TEXT	ENDS
PUBLIC	??$_Allocate@UWeaponInfo@@@std@@YAPAUWeaponInfo@@IPAU1@@Z ; std::_Allocate<WeaponInfo>
; Function compile flags: /Ogsp
; File c:\program files (x86)\microsoft visual studio 10.0\vc\include\xmemory
;	COMDAT ??$_Allocate@UWeaponInfo@@@std@@YAPAUWeaponInfo@@IPAU1@@Z
_TEXT	SEGMENT
$T597178 = -12						; size = 12
$T597182 = 8						; size = 4
__Count$ = 8						; size = 4
___formal$ = 12						; size = 4
??$_Allocate@UWeaponInfo@@@std@@YAPAUWeaponInfo@@IPAU1@@Z PROC ; std::_Allocate<WeaponInfo>, COMDAT

; 30   : 	{	// allocate storage for _Count elements of type _Ty

  00000	55		 push	 ebp
  00001	8b ec		 mov	 ebp, esp

; 31   : 	void *_Ptr = 0;
; 32   : 
; 33   : 	if (_Count <= 0)

  00003	8b 4d 08	 mov	 ecx, DWORD PTR __Count$[ebp]
  00006	83 ec 0c	 sub	 esp, 12			; 0000000cH
  00009	33 c0		 xor	 eax, eax
  0000b	85 c9		 test	 ecx, ecx

; 34   : 		_Count = 0;
; 35   : 	else if (((_SIZT)(-1) / sizeof (_Ty) < _Count)

  0000d	74 3c		 je	 SHORT $LN5@Allocate@3

; 36   : 		|| (_Ptr = ::operator new(_Count * sizeof (_Ty))) == 0)

  0000f	81 f9 66 66 66
	06		 cmp	 ecx, 107374182		; 06666666H
  00015	77 0e		 ja	 SHORT $LN1@Allocate@3
  00017	6b c9 28	 imul	 ecx, 40			; 00000028H
  0001a	51		 push	 ecx
  0001b	e8 00 00 00 00	 call	 ??2@YAPAXI@Z		; operator new
  00020	59		 pop	 ecx
  00021	85 c0		 test	 eax, eax

; 38   : 
; 39   : 	return ((_Ty _FARQ *)_Ptr);

  00023	75 26		 jne	 SHORT $LN5@Allocate@3
$LN1@Allocate@3:

; 37   : 		_THROW_NCEE(bad_alloc, 0);

  00025	83 65 08 00	 and	 DWORD PTR $T597182[ebp], 0
  00029	8d 45 08	 lea	 eax, DWORD PTR $T597182[ebp]
  0002c	50		 push	 eax
  0002d	8d 4d f4	 lea	 ecx, DWORD PTR $T597178[ebp]
  00030	ff 15 00 00 00
	00		 call	 DWORD PTR __imp_??0exception@std@@QAE@ABQBD@Z
  00036	68 00 00 00 00	 push	 OFFSET __TI2?AVbad_alloc@std@@
  0003b	8d 45 f4	 lea	 eax, DWORD PTR $T597178[ebp]
  0003e	50		 push	 eax
  0003f	c7 45 f4 00 00
	00 00		 mov	 DWORD PTR $T597178[ebp], OFFSET ??_7bad_alloc@std@@6B@
  00046	e8 00 00 00 00	 call	 __CxxThrowException@8
$LN10@Allocate@3:
$LN5@Allocate@3:

; 40   : 	}

  0004b	c9		 leave
  0004c	c3		 ret	 0
$LN9@Allocate@3:
??$_Allocate@UWeaponInfo@@@std@@YAPAUWeaponInfo@@IPAU1@@Z ENDP ; std::_Allocate<WeaponInfo>
_TEXT	ENDS
PUBLIC	??$_Allocate@UForceInfo@@@std@@YAPAUForceInfo@@IPAU1@@Z ; std::_Allocate<ForceInfo>
; Function compile flags: /Ogsp
;	COMDAT ??$_Allocate@UForceInfo@@@std@@YAPAUForceInfo@@IPAU1@@Z
_TEXT	SEGMENT
$T597187 = -12						; size = 12
$T597191 = 8						; size = 4
__Count$ = 8						; size = 4
___formal$ = 12						; size = 4
??$_Allocate@UForceInfo@@@std@@YAPAUForceInfo@@IPAU1@@Z PROC ; std::_Allocate<ForceInfo>, COMDAT

; 30   : 	{	// allocate storage for _Count elements of type _Ty

  00000	55		 push	 ebp
  00001	8b ec		 mov	 ebp, esp

; 31   : 	void *_Ptr = 0;
; 32   : 
; 33   : 	if (_Count <= 0)

  00003	8b 4d 08	 mov	 ecx, DWORD PTR __Count$[ebp]
  00006	83 ec 0c	 sub	 esp, 12			; 0000000cH
  00009	33 c0		 xor	 eax, eax
  0000b	85 c9		 test	 ecx, ecx

; 34   : 		_Count = 0;
; 35   : 	else if (((_SIZT)(-1) / sizeof (_Ty) < _Count)

  0000d	74 3c		 je	 SHORT $LN5@Allocate@4

; 36   : 		|| (_Ptr = ::operator new(_Count * sizeof (_Ty))) == 0)

  0000f	81 f9 55 55 55
	15		 cmp	 ecx, 357913941		; 15555555H
  00015	77 0e		 ja	 SHORT $LN1@Allocate@4
  00017	6b c9 0c	 imul	 ecx, 12			; 0000000cH
  0001a	51		 push	 ecx
  0001b	e8 00 00 00 00	 call	 ??2@YAPAXI@Z		; operator new
  00020	59		 pop	 ecx
  00021	85 c0		 test	 eax, eax

; 38   : 
; 39   : 	return ((_Ty _FARQ *)_Ptr);

  00023	75 26		 jne	 SHORT $LN5@Allocate@4
$LN1@Allocate@4:

; 37   : 		_THROW_NCEE(bad_alloc, 0);

  00025	83 65 08 00	 and	 DWORD PTR $T597191[ebp], 0
  00029	8d 45 08	 lea	 eax, DWORD PTR $T597191[ebp]
  0002c	50		 push	 eax
  0002d	8d 4d f4	 lea	 ecx, DWORD PTR $T597187[ebp]
  00030	ff 15 00 00 00
	00		 call	 DWORD PTR __imp_??0exception@std@@QAE@ABQBD@Z
  00036	68 00 00 00 00	 push	 OFFSET __TI2?AVbad_alloc@std@@
  0003b	8d 45 f4	 lea	 eax, DWORD PTR $T597187[ebp]
  0003e	50		 push	 eax
  0003f	c7 45 f4 00 00
	00 00		 mov	 DWORD PTR $T597187[ebp], OFFSET ??_7bad_alloc@std@@6B@
  00046	e8 00 00 00 00	 call	 __CxxThrowException@8
$LN10@Allocate@4:
$LN5@Allocate@4:

; 40   : 	}

  0004b	c9		 leave
  0004c	c3		 ret	 0
$LN9@Allocate@4:
??$_Allocate@UForceInfo@@@std@@YAPAUForceInfo@@IPAU1@@Z ENDP ; std::_Allocate<ForceInfo>
_TEXT	ENDS
PUBLIC	??D?$_Vector_const_iterator@V?$_Vector_val@VioHashString@@V?$allocator@VioHashString@@@std@@@std@@@std@@QBEABVioHashString@@XZ ; std::_Vector_const_iterator<std::_Vector_val<ioHashString,std::allocator<ioHashString> > >::operator*
; Function compile flags: /Ogsp
; File c:\program files (x86)\microsoft visual studio 10.0\vc\include\vector
;	COMDAT ??D?$_Vector_const_iterator@V?$_Vector_val@VioHashString@@V?$allocator@VioHashString@@@std@@@std@@@std@@QBEABVioHashString@@XZ
_TEXT	SEGMENT
??D?$_Vector_const_iterator@V?$_Vector_val@VioHashString@@V?$allocator@VioHashString@@@std@@@std@@@std@@QBEABVioHashString@@XZ PROC ; std::_Vector_const_iterator<std::_Vector_val<ioHashString,std::allocator<ioHashString> > >::operator*, COMDAT
; _this$ = ecx

; 64   :  #if _ITERATOR_DEBUG_LEVEL == 2
; 65   : 		if (this->_Getcont() == 0
; 66   : 			|| this->_Ptr == 0
; 67   : 			|| this->_Ptr < ((_Myvec *)this->_Getcont())->_Myfirst
; 68   : 			|| ((_Myvec *)this->_Getcont())->_Mylast <= this->_Ptr)
; 69   : 			{	// report error
; 70   : 			_DEBUG_ERROR("vector iterator not dereferencable");
; 71   : 			_SCL_SECURE_OUT_OF_RANGE;
; 72   : 			}
; 73   : 
; 74   :  #elif _ITERATOR_DEBUG_LEVEL == 1
; 75   : 		_SCL_SECURE_VALIDATE(this->_Getcont() != 0);
; 76   : 		_SCL_SECURE_VALIDATE_RANGE(
; 77   : 			this->_Ptr != 0
; 78   : 			&& ((_Myvec *)this->_Getcont())->_Myfirst <= this->_Ptr
; 79   : 			&& this->_Ptr < ((_Myvec *)this->_Getcont())->_Mylast);
; 80   :  #endif /* _ITERATOR_DEBUG_LEVEL */
; 81   : 
; 82   : 		__analysis_assume(this->_Ptr != 0);
; 83   : 
; 84   : 		return (*this->_Ptr);

  00000	8b 01		 mov	 eax, DWORD PTR [ecx]

; 85   : 		}

  00002	c3		 ret	 0
??D?$_Vector_const_iterator@V?$_Vector_val@VioHashString@@V?$allocator@VioHashString@@@std@@@std@@@std@@QBEABVioHashString@@XZ ENDP ; std::_Vector_const_iterator<std::_Vector_val<ioHashString,std::allocator<ioHashString> > >::operator*
_TEXT	ENDS
PUBLIC	??E?$_Vector_const_iterator@V?$_Vector_val@VioHashString@@V?$allocator@VioHashString@@@std@@@std@@@std@@QAEAAV01@XZ ; std::_Vector_const_iterator<std::_Vector_val<ioHashString,std::allocator<ioHashString> > >::operator++
; Function compile flags: /Ogsp
;	COMDAT ??E?$_Vector_const_iterator@V?$_Vector_val@VioHashString@@V?$allocator@VioHashString@@@std@@@std@@@std@@QAEAAV01@XZ
_TEXT	SEGMENT
??E?$_Vector_const_iterator@V?$_Vector_val@VioHashString@@V?$allocator@VioHashString@@@std@@@std@@@std@@QAEAAV01@XZ PROC ; std::_Vector_const_iterator<std::_Vector_val<ioHashString,std::allocator<ioHashString> > >::operator++, COMDAT
; _this$ = ecx

; 93   : 		{	// preincrement

  00000	8b c1		 mov	 eax, ecx

; 94   :  #if _ITERATOR_DEBUG_LEVEL == 2
; 95   : 		if (this->_Getcont() == 0
; 96   : 			|| this->_Ptr == 0
; 97   : 			|| ((_Myvec *)this->_Getcont())->_Mylast <= this->_Ptr)
; 98   : 			{	// report error
; 99   : 			_DEBUG_ERROR("vector iterator not incrementable");
; 100  : 			_SCL_SECURE_OUT_OF_RANGE;
; 101  : 			}
; 102  : 
; 103  :  #elif _ITERATOR_DEBUG_LEVEL == 1
; 104  : 		_SCL_SECURE_VALIDATE(this->_Getcont() != 0);
; 105  : 		_SCL_SECURE_VALIDATE_RANGE(
; 106  : 			this->_Ptr != 0
; 107  : 			&& this->_Ptr < ((_Myvec *)this->_Getcont())->_Mylast);
; 108  :  #endif /* _ITERATOR_DEBUG_LEVEL */
; 109  : 
; 110  : 		++this->_Ptr;

  00002	83 00 10	 add	 DWORD PTR [eax], 16	; 00000010H

; 111  : 		return (*this);
; 112  : 		}

  00005	c3		 ret	 0
??E?$_Vector_const_iterator@V?$_Vector_val@VioHashString@@V?$allocator@VioHashString@@@std@@@std@@@std@@QAEAAV01@XZ ENDP ; std::_Vector_const_iterator<std::_Vector_val<ioHashString,std::allocator<ioHashString> > >::operator++
_TEXT	ENDS
PUBLIC	??$_Copy_impl@PAUForceInfo@@PAU1@@std@@YAPAUForceInfo@@PAU1@00U_Nonscalar_ptr_iterator_tag@0@@Z ; std::_Copy_impl<ForceInfo *,ForceInfo *>
; Function compile flags: /Ogsp
; File c:\program files (x86)\microsoft visual studio 10.0\vc\include\xutility
;	COMDAT ??$_Copy_impl@PAUForceInfo@@PAU1@@std@@YAPAUForceInfo@@PAU1@00U_Nonscalar_ptr_iterator_tag@0@@Z
_TEXT	SEGMENT
__First$ = 8						; size = 4
__Last$ = 12						; size = 4
__Dest$ = 16						; size = 4
___formal$ = 20						; size = 1
??$_Copy_impl@PAUForceInfo@@PAU1@@std@@YAPAUForceInfo@@PAU1@00U_Nonscalar_ptr_iterator_tag@0@@Z PROC ; std::_Copy_impl<ForceInfo *,ForceInfo *>, COMDAT

; 2142 : 	{	// copy [_First, _Last) to [_Dest, ...), arbitrary iterators

  00000	55		 push	 ebp
  00001	8b ec		 mov	 ebp, esp

; 2143 : 	for (; _First != _Last; ++_Dest, ++_First)

  00003	8b 45 08	 mov	 eax, DWORD PTR __First$[ebp]
  00006	3b 45 0c	 cmp	 eax, DWORD PTR __Last$[ebp]
  00009	74 18		 je	 SHORT $LN8@Copy_impl
  0000b	56		 push	 esi
  0000c	57		 push	 edi
$LL3@Copy_impl:

; 2144 : 		*_Dest = *_First;

  0000d	8b 7d 10	 mov	 edi, DWORD PTR __Dest$[ebp]
  00010	83 45 10 0c	 add	 DWORD PTR __Dest$[ebp], 12 ; 0000000cH
  00014	8b f0		 mov	 esi, eax
  00016	a5		 movsd
  00017	a5		 movsd
  00018	83 c0 0c	 add	 eax, 12			; 0000000cH
  0001b	a5		 movsd
  0001c	3b 45 0c	 cmp	 eax, DWORD PTR __Last$[ebp]
  0001f	75 ec		 jne	 SHORT $LL3@Copy_impl
  00021	5f		 pop	 edi
  00022	5e		 pop	 esi
$LN8@Copy_impl:

; 2145 : 	return (_Dest);

  00023	8b 45 10	 mov	 eax, DWORD PTR __Dest$[ebp]

; 2146 : 	}

  00026	5d		 pop	 ebp
  00027	c3		 ret	 0
??$_Copy_impl@PAUForceInfo@@PAU1@@std@@YAPAUForceInfo@@PAU1@00U_Nonscalar_ptr_iterator_tag@0@@Z ENDP ; std::_Copy_impl<ForceInfo *,ForceInfo *>
_TEXT	ENDS
PUBLIC	??$_Destroy@UForceInfo@@@std@@YAXPAUForceInfo@@@Z ; std::_Destroy<ForceInfo>
; Function compile flags: /Ogsp
; File c:\program files (x86)\microsoft visual studio 10.0\vc\include\xmemory
;	COMDAT ??$_Destroy@UForceInfo@@@std@@YAXPAUForceInfo@@@Z
_TEXT	SEGMENT
__Ptr$ = 8						; size = 4
??$_Destroy@UForceInfo@@@std@@YAXPAUForceInfo@@@Z PROC	; std::_Destroy<ForceInfo>, COMDAT

; 63   : 	_Ptr->~_Ty();
; 64   : 	}

  00000	c3		 ret	 0
??$_Destroy@UForceInfo@@@std@@YAXPAUForceInfo@@@Z ENDP	; std::_Destroy<ForceInfo>
_TEXT	ENDS
PUBLIC	??4WeaponInfo@@QAEAAU0@ABU0@@Z			; WeaponInfo::operator=
EXTRN	__imp_??4ioHashString@@QAEAAV0@ABV0@@Z:PROC
; Function compile flags: /Ogsp
;	COMDAT ??4WeaponInfo@@QAEAAU0@ABU0@@Z
_TEXT	SEGMENT
___that$ = 8						; size = 4
??4WeaponInfo@@QAEAAU0@ABU0@@Z PROC			; WeaponInfo::operator=, COMDAT
; _this$ = ecx
  00000	55		 push	 ebp
  00001	8b ec		 mov	 ebp, esp
  00003	56		 push	 esi
  00004	57		 push	 edi
  00005	8b 7d 08	 mov	 edi, DWORD PTR ___that$[ebp]
  00008	8b 07		 mov	 eax, DWORD PTR [edi]
  0000a	8b f1		 mov	 esi, ecx
  0000c	89 06		 mov	 DWORD PTR [esi], eax
  0000e	8b 47 04	 mov	 eax, DWORD PTR [edi+4]
  00011	89 46 04	 mov	 DWORD PTR [esi+4], eax
  00014	8d 47 08	 lea	 eax, DWORD PTR [edi+8]
  00017	50		 push	 eax
  00018	8d 4e 08	 lea	 ecx, DWORD PTR [esi+8]
  0001b	ff 15 00 00 00
	00		 call	 DWORD PTR __imp_??4ioHashString@@QAEAAV0@ABV0@@Z
  00021	8b 47 18	 mov	 eax, DWORD PTR [edi+24]
  00024	89 46 18	 mov	 DWORD PTR [esi+24], eax
  00027	8b 47 1c	 mov	 eax, DWORD PTR [edi+28]
  0002a	89 46 1c	 mov	 DWORD PTR [esi+28], eax
  0002d	8a 47 20	 mov	 al, BYTE PTR [edi+32]
  00030	88 46 20	 mov	 BYTE PTR [esi+32], al
  00033	8b 47 24	 mov	 eax, DWORD PTR [edi+36]
  00036	89 46 24	 mov	 DWORD PTR [esi+36], eax
  00039	5f		 pop	 edi
  0003a	8b c6		 mov	 eax, esi
  0003c	5e		 pop	 esi
  0003d	5d		 pop	 ebp
  0003e	c2 04 00	 ret	 4
??4WeaponInfo@@QAEAAU0@ABU0@@Z ENDP			; WeaponInfo::operator=
_TEXT	ENDS
PUBLIC	??_GioHashString@@QAEPAXI@Z			; ioHashString::`scalar deleting destructor'
; Function compile flags: /Ogsp
;	COMDAT ??_GioHashString@@QAEPAXI@Z
_TEXT	SEGMENT
___flags$ = 8						; size = 4
??_GioHashString@@QAEPAXI@Z PROC			; ioHashString::`scalar deleting destructor', COMDAT
; _this$ = ecx
  00000	55		 push	 ebp
  00001	8b ec		 mov	 ebp, esp
  00003	56		 push	 esi
  00004	8b f1		 mov	 esi, ecx
  00006	ff 15 00 00 00
	00		 call	 DWORD PTR __imp_??1ioHashString@@QAE@XZ
  0000c	f6 45 08 01	 test	 BYTE PTR ___flags$[ebp], 1
  00010	74 07		 je	 SHORT $LN1@scalar@2
  00012	56		 push	 esi
  00013	e8 00 00 00 00	 call	 ??3@YAXPAX@Z		; operator delete
  00018	59		 pop	 ecx
$LN1@scalar@2:
  00019	8b c6		 mov	 eax, esi
  0001b	5e		 pop	 esi
  0001c	5d		 pop	 ebp
  0001d	c2 04 00	 ret	 4
??_GioHashString@@QAEPAXI@Z ENDP			; ioHashString::`scalar deleting destructor'
_TEXT	ENDS
PUBLIC	??_GWeaponInfo@@QAEPAXI@Z			; WeaponInfo::`scalar deleting destructor'
; Function compile flags: /Ogsp
;	COMDAT ??_GWeaponInfo@@QAEPAXI@Z
_TEXT	SEGMENT
___flags$ = 8						; size = 4
??_GWeaponInfo@@QAEPAXI@Z PROC				; WeaponInfo::`scalar deleting destructor', COMDAT
; _this$ = ecx
  00000	55		 push	 ebp
  00001	8b ec		 mov	 ebp, esp
  00003	56		 push	 esi
  00004	8b f1		 mov	 esi, ecx
  00006	8d 4e 08	 lea	 ecx, DWORD PTR [esi+8]
  00009	ff 15 00 00 00
	00		 call	 DWORD PTR __imp_??1ioHashString@@QAE@XZ
  0000f	f6 45 08 01	 test	 BYTE PTR ___flags$[ebp], 1
  00013	74 07		 je	 SHORT $LN1@scalar@3
  00015	56		 push	 esi
  00016	e8 00 00 00 00	 call	 ??3@YAXPAX@Z		; operator delete
  0001b	59		 pop	 ecx
$LN1@scalar@3:
  0001c	8b c6		 mov	 eax, esi
  0001e	5e		 pop	 esi
  0001f	5d		 pop	 ebp
  00020	c2 04 00	 ret	 4
??_GWeaponInfo@@QAEPAXI@Z ENDP				; WeaponInfo::`scalar deleting destructor'
_TEXT	ENDS
PUBLIC	??$move@AAUWeaponInfo@@@std@@YA$$QAUWeaponInfo@@AAU1@@Z ; std::move<WeaponInfo &>
; Function compile flags: /Ogsp
; File c:\program files (x86)\microsoft visual studio 10.0\vc\include\utility
;	COMDAT ??$move@AAUWeaponInfo@@@std@@YA$$QAUWeaponInfo@@AAU1@@Z
_TEXT	SEGMENT
__Arg$ = 8						; size = 4
??$move@AAUWeaponInfo@@@std@@YA$$QAUWeaponInfo@@AAU1@@Z PROC ; std::move<WeaponInfo &>, COMDAT

; 86   : 	{	// forward _Arg as movable

  00000	55		 push	 ebp
  00001	8b ec		 mov	 ebp, esp

; 87   : 	return ((typename tr1::_Remove_reference<_Ty>::_Type&&)_Arg);

  00003	8b 45 08	 mov	 eax, DWORD PTR __Arg$[ebp]

; 88   : 	}

  00006	5d		 pop	 ebp
  00007	c3		 ret	 0
??$move@AAUWeaponInfo@@@std@@YA$$QAUWeaponInfo@@AAU1@@Z ENDP ; std::move<WeaponInfo &>
_TEXT	ENDS
PUBLIC	??$move@AAUForceInfo@@@std@@YA$$QAUForceInfo@@AAU1@@Z ; std::move<ForceInfo &>
; Function compile flags: /Ogsp
;	COMDAT ??$move@AAUForceInfo@@@std@@YA$$QAUForceInfo@@AAU1@@Z
_TEXT	SEGMENT
__Arg$ = 8						; size = 4
??$move@AAUForceInfo@@@std@@YA$$QAUForceInfo@@AAU1@@Z PROC ; std::move<ForceInfo &>, COMDAT

; 86   : 	{	// forward _Arg as movable

  00000	55		 push	 ebp
  00001	8b ec		 mov	 ebp, esp

; 87   : 	return ((typename tr1::_Remove_reference<_Ty>::_Type&&)_Arg);

  00003	8b 45 08	 mov	 eax, DWORD PTR __Arg$[ebp]

; 88   : 	}

  00006	5d		 pop	 ebp
  00007	c3		 ret	 0
??$move@AAUForceInfo@@@std@@YA$$QAUForceInfo@@AAU1@@Z ENDP ; std::move<ForceInfo &>
_TEXT	ENDS
PUBLIC	??$_Construct@VioHashString@@ABV1@@std@@YAXPAVioHashString@@ABV1@@Z ; std::_Construct<ioHashString,ioHashString const &>
EXTRN	__imp_??0ioHashString@@QAE@ABV0@@Z:PROC
EXTRN	___CxxFrameHandler3:PROC
EXTRN	@__security_check_cookie@4:PROC
EXTRN	__EH_epilog3:PROC
EXTRN	__EH_prolog3:PROC
;	COMDAT xdata$x
xdata$x	SEGMENT
__unwindtable$??$_Construct@VioHashString@@ABV1@@std@@YAXPAVioHashString@@ABV1@@Z DD 0ffffffffH
	DD	FLAT:__unwindfunclet$??$_Construct@VioHashString@@ABV1@@std@@YAXPAVioHashString@@ABV1@@Z$0
__ehfuncinfo$??$_Construct@VioHashString@@ABV1@@std@@YAXPAVioHashString@@ABV1@@Z DD 019930522H
	DD	01H
	DD	FLAT:__unwindtable$??$_Construct@VioHashString@@ABV1@@std@@YAXPAVioHashString@@ABV1@@Z
	DD	2 DUP(00H)
	DD	2 DUP(00H)
	DD	00H
	DD	01H
; Function compile flags: /Ogsp
; File c:\program files (x86)\microsoft visual studio 10.0\vc\include\xmemory
xdata$x	ENDS
;	COMDAT ??$_Construct@VioHashString@@ABV1@@std@@YAXPAVioHashString@@ABV1@@Z
_TEXT	SEGMENT
$T597225 = -16						; size = 4
__$EHRec$ = -12						; size = 12
__Vptr$ = 8						; size = 4
__Ptr$ = 8						; size = 4
__Val$ = 12						; size = 4
??$_Construct@VioHashString@@ABV1@@std@@YAXPAVioHashString@@ABV1@@Z PROC ; std::_Construct<ioHashString,ioHashString const &>, COMDAT

; 46   : 	{	// construct object at _Ptr with value _Val

  00000	6a 04		 push	 4
  00002	b8 00 00 00 00	 mov	 eax, __ehhandler$??$_Construct@VioHashString@@ABV1@@std@@YAXPAVioHashString@@ABV1@@Z
  00007	e8 00 00 00 00	 call	 __EH_prolog3

; 47   : 	void _FARQ *_Vptr = _Ptr;

  0000c	8b 4d 08	 mov	 ecx, DWORD PTR __Ptr$[ebp]
  0000f	89 4d 08	 mov	 DWORD PTR __Vptr$[ebp], ecx

; 48   : 	::new (_Vptr) _Ty1(_STD forward<_Ty2>(_Val));

  00012	89 4d f0	 mov	 DWORD PTR $T597225[ebp], ecx
  00015	83 65 fc 00	 and	 DWORD PTR __$EHRec$[ebp+8], 0
  00019	85 c9		 test	 ecx, ecx
  0001b	74 09		 je	 SHORT $LN3@Construct@2
  0001d	ff 75 0c	 push	 DWORD PTR __Val$[ebp]
  00020	ff 15 00 00 00
	00		 call	 DWORD PTR __imp_??0ioHashString@@QAE@ABV0@@Z
$LN3@Construct@2:

; 49   : 	}

  00026	e8 00 00 00 00	 call	 __EH_epilog3
  0002b	c3		 ret	 0
_TEXT	ENDS
;	COMDAT text$x
text$x	SEGMENT
__unwindfunclet$??$_Construct@VioHashString@@ABV1@@std@@YAXPAVioHashString@@ABV1@@Z$0:
  00000	ff 75 08	 push	 DWORD PTR __Vptr$[ebp]
  00003	ff 75 f0	 push	 DWORD PTR $T597225[ebp]
  00006	e8 00 00 00 00	 call	 ??3@YAXPAX0@Z		; operator delete
  0000b	59		 pop	 ecx
  0000c	59		 pop	 ecx
  0000d	c3		 ret	 0
__ehhandler$??$_Construct@VioHashString@@ABV1@@std@@YAXPAVioHashString@@ABV1@@Z:
  0000e	8b 54 24 08	 mov	 edx, DWORD PTR [esp+8]
  00012	8d 42 0c	 lea	 eax, DWORD PTR [edx+12]
  00015	8b 4a ec	 mov	 ecx, DWORD PTR [edx-20]
  00018	33 c8		 xor	 ecx, eax
  0001a	e8 00 00 00 00	 call	 @__security_check_cookie@4
  0001f	b8 00 00 00 00	 mov	 eax, OFFSET __ehfuncinfo$??$_Construct@VioHashString@@ABV1@@std@@YAXPAVioHashString@@ABV1@@Z
  00024	e9 00 00 00 00	 jmp	 ___CxxFrameHandler3
text$x	ENDS
??$_Construct@VioHashString@@ABV1@@std@@YAXPAVioHashString@@ABV1@@Z ENDP ; std::_Construct<ioHashString,ioHashString const &>
PUBLIC	??$forward@AAUWeaponInfo@@@std@@YAAAUWeaponInfo@@AAU1@@Z ; std::forward<WeaponInfo &>
; Function compile flags: /Ogsp
; File c:\program files (x86)\microsoft visual studio 10.0\vc\include\utility
;	COMDAT ??$forward@AAUWeaponInfo@@@std@@YAAAUWeaponInfo@@AAU1@@Z
_TEXT	SEGMENT
__Arg$ = 8						; size = 4
??$forward@AAUWeaponInfo@@@std@@YAAAUWeaponInfo@@AAU1@@Z PROC ; std::forward<WeaponInfo &>, COMDAT

; 78   : 	{	// forward _Arg, given explicitly specified type parameter

  00000	55		 push	 ebp
  00001	8b ec		 mov	 ebp, esp

; 79   : 	return ((_Ty&&)_Arg);

  00003	8b 45 08	 mov	 eax, DWORD PTR __Arg$[ebp]

; 80   : 	}

  00006	5d		 pop	 ebp
  00007	c3		 ret	 0
??$forward@AAUWeaponInfo@@@std@@YAAAUWeaponInfo@@AAU1@@Z ENDP ; std::forward<WeaponInfo &>
_TEXT	ENDS
PUBLIC	??$forward@AAUForceInfo@@@std@@YAAAUForceInfo@@AAU1@@Z ; std::forward<ForceInfo &>
; Function compile flags: /Ogsp
;	COMDAT ??$forward@AAUForceInfo@@@std@@YAAAUForceInfo@@AAU1@@Z
_TEXT	SEGMENT
__Arg$ = 8						; size = 4
??$forward@AAUForceInfo@@@std@@YAAAUForceInfo@@AAU1@@Z PROC ; std::forward<ForceInfo &>, COMDAT

; 78   : 	{	// forward _Arg, given explicitly specified type parameter

  00000	55		 push	 ebp
  00001	8b ec		 mov	 ebp, esp

; 79   : 	return ((_Ty&&)_Arg);

  00003	8b 45 08	 mov	 eax, DWORD PTR __Arg$[ebp]

; 80   : 	}

  00006	5d		 pop	 ebp
  00007	c3		 ret	 0
??$forward@AAUForceInfo@@@std@@YAAAUForceInfo@@AAU1@@Z ENDP ; std::forward<ForceInfo &>
_TEXT	ENDS
PUBLIC	??$construct@AAUForceInfo@@@?$allocator@UForceInfo@@@std@@QAEXPAUForceInfo@@AAU2@@Z ; std::allocator<ForceInfo>::construct<ForceInfo &>
; Function compile flags: /Ogsp
; File c:\program files (x86)\microsoft visual studio 10.0\vc\include\xmemory
;	COMDAT ??$construct@AAUForceInfo@@@?$allocator@UForceInfo@@@std@@QAEXPAUForceInfo@@AAU2@@Z
_TEXT	SEGMENT
__Ptr$ = 8						; size = 4
__Val$ = 12						; size = 4
??$construct@AAUForceInfo@@@?$allocator@UForceInfo@@@std@@QAEXPAUForceInfo@@AAU2@@Z PROC ; std::allocator<ForceInfo>::construct<ForceInfo &>, COMDAT
; _this$ = ecx

; 206  : 		void construct(pointer _Ptr, _Other&& _Val)

  00000	55		 push	 ebp
  00001	8b ec		 mov	 ebp, esp
  00003	57		 push	 edi

; 207  : 		{	// construct object at _Ptr with value _Val
; 208  : 		::new ((void _FARQ *)_Ptr) _Ty(_STD forward<_Other>(_Val));

  00004	8b 7d 08	 mov	 edi, DWORD PTR __Ptr$[ebp]
  00007	85 ff		 test	 edi, edi
  00009	74 08		 je	 SHORT $LN3@construct
  0000b	56		 push	 esi
  0000c	8b 75 0c	 mov	 esi, DWORD PTR __Val$[ebp]
  0000f	a5		 movsd
  00010	a5		 movsd
  00011	a5		 movsd
  00012	5e		 pop	 esi
$LN3@construct:
  00013	5f		 pop	 edi

; 209  : 		}

  00014	5d		 pop	 ebp
  00015	c2 08 00	 ret	 8
??$construct@AAUForceInfo@@@?$allocator@UForceInfo@@@std@@QAEXPAUForceInfo@@AAU2@@Z ENDP ; std::allocator<ForceInfo>::construct<ForceInfo &>
_TEXT	ENDS
PUBLIC	??0WeaponInfo@@QAE@ABU0@@Z			; WeaponInfo::WeaponInfo
; Function compile flags: /Ogsp
;	COMDAT ??0WeaponInfo@@QAE@ABU0@@Z
_TEXT	SEGMENT
___that$ = 8						; size = 4
??0WeaponInfo@@QAE@ABU0@@Z PROC				; WeaponInfo::WeaponInfo, COMDAT
; _this$ = ecx
  00000	55		 push	 ebp
  00001	8b ec		 mov	 ebp, esp
  00003	56		 push	 esi
  00004	57		 push	 edi
  00005	8b 7d 08	 mov	 edi, DWORD PTR ___that$[ebp]
  00008	8b 07		 mov	 eax, DWORD PTR [edi]
  0000a	8b f1		 mov	 esi, ecx
  0000c	89 06		 mov	 DWORD PTR [esi], eax
  0000e	8b 47 04	 mov	 eax, DWORD PTR [edi+4]
  00011	89 46 04	 mov	 DWORD PTR [esi+4], eax
  00014	8d 47 08	 lea	 eax, DWORD PTR [edi+8]
  00017	50		 push	 eax
  00018	8d 4e 08	 lea	 ecx, DWORD PTR [esi+8]
  0001b	ff 15 00 00 00
	00		 call	 DWORD PTR __imp_??0ioHashString@@QAE@ABV0@@Z
  00021	8b 47 18	 mov	 eax, DWORD PTR [edi+24]
  00024	89 46 18	 mov	 DWORD PTR [esi+24], eax
  00027	8b 47 1c	 mov	 eax, DWORD PTR [edi+28]
  0002a	89 46 1c	 mov	 DWORD PTR [esi+28], eax
  0002d	8a 47 20	 mov	 al, BYTE PTR [edi+32]
  00030	88 46 20	 mov	 BYTE PTR [esi+32], al
  00033	8b 47 24	 mov	 eax, DWORD PTR [edi+36]
  00036	89 46 24	 mov	 DWORD PTR [esi+36], eax
  00039	5f		 pop	 edi
  0003a	8b c6		 mov	 eax, esi
  0003c	5e		 pop	 esi
  0003d	5d		 pop	 ebp
  0003e	c2 04 00	 ret	 4
??0WeaponInfo@@QAE@ABU0@@Z ENDP				; WeaponInfo::WeaponInfo
_TEXT	ENDS
PUBLIC	??_R0?AVioParkilpyoItem@@@8			; ioParkilpyoItem `RTTI Type Descriptor'
PUBLIC	?ToParkilpyoItem@@YAPAVioParkilpyoItem@@PAVioItem@@@Z ; ToParkilpyoItem
;	COMDAT ??_R0?AVioParkilpyoItem@@@8
; File d:\lost saga for developer\youtube\tutorial\source\src\lsclient\ioparkilpyoitem.h
_DATA	SEGMENT
??_R0?AVioParkilpyoItem@@@8 DD FLAT:??_7type_info@@6B@	; ioParkilpyoItem `RTTI Type Descriptor'
	DD	00H
	DB	'.?AVioParkilpyoItem@@', 00H
; Function compile flags: /Ogsp
_DATA	ENDS
;	COMDAT ?ToParkilpyoItem@@YAPAVioParkilpyoItem@@PAVioItem@@@Z
_TEXT	SEGMENT
_pItem$ = 8						; size = 4
?ToParkilpyoItem@@YAPAVioParkilpyoItem@@PAVioItem@@@Z PROC ; ToParkilpyoItem, COMDAT

; 169  : {

  00000	55		 push	 ebp
  00001	8b ec		 mov	 ebp, esp

; 170  : 	ioWeaponItem *pWeapon = ToWeaponItem( pItem );

  00003	ff 75 08	 push	 DWORD PTR _pItem$[ebp]
  00006	e8 00 00 00 00	 call	 ?ToWeaponItem@@YAPAVioWeaponItem@@PAVioItem@@@Z ; ToWeaponItem
  0000b	59		 pop	 ecx

; 171  : 	if( !pWeapon || pWeapon->GetSubType() != ioWeaponItem::WST_PARKILPYO_ITEM )

  0000c	85 c0		 test	 eax, eax
  0000e	74 2a		 je	 SHORT $LN1@ToParkilpy
  00010	8b 10		 mov	 edx, DWORD PTR [eax]
  00012	8b c8		 mov	 ecx, eax
  00014	ff 92 f0 02 00
	00		 call	 DWORD PTR [edx+752]
  0001a	83 f8 64	 cmp	 eax, 100		; 00000064H
  0001d	75 1b		 jne	 SHORT $LN1@ToParkilpy

; 173  : 
; 174  : 	return dynamic_cast< ioParkilpyoItem* >( pItem );

  0001f	6a 00		 push	 0
  00021	68 00 00 00 00	 push	 OFFSET ??_R0?AVioParkilpyoItem@@@8
  00026	68 00 00 00 00	 push	 OFFSET ??_R0?AVioItem@@@8
  0002b	6a 00		 push	 0
  0002d	ff 75 08	 push	 DWORD PTR _pItem$[ebp]
  00030	e8 00 00 00 00	 call	 ___RTDynamicCast
  00035	83 c4 14	 add	 esp, 20			; 00000014H

; 175  : }

  00038	5d		 pop	 ebp
  00039	c3		 ret	 0
$LN1@ToParkilpy:

; 172  : 		return NULL;

  0003a	33 c0		 xor	 eax, eax

; 175  : }

  0003c	5d		 pop	 ebp
  0003d	c3		 ret	 0
?ToParkilpyoItem@@YAPAVioParkilpyoItem@@PAVioItem@@@Z ENDP ; ToParkilpyoItem
_TEXT	ENDS
PUBLIC	?CheckComboJumpAttack@ioParkilpyoJump@@UAEXPAVioBaseChar@@@Z ; ioParkilpyoJump::CheckComboJumpAttack
EXTRN	?IsHasCrown@ioBaseChar@@QBE_NXZ:PROC		; ioBaseChar::IsHasCrown
; Function compile flags: /Ogsp
; File d:\lost saga for developer\youtube\tutorial\source\src\lsclient\ioparkilpyojump.cpp
;	COMDAT ?CheckComboJumpAttack@ioParkilpyoJump@@UAEXPAVioBaseChar@@@Z
_TEXT	SEGMENT
_pOwner$ = 8						; size = 4
?CheckComboJumpAttack@ioParkilpyoJump@@UAEXPAVioBaseChar@@@Z PROC ; ioParkilpyoJump::CheckComboJumpAttack, COMDAT
; _this$ = ecx

; 420  : {

  00000	55		 push	 ebp
  00001	8b ec		 mov	 ebp, esp
  00003	56		 push	 esi
  00004	8b f1		 mov	 esi, ecx

; 421  : 	switch( m_ChargeComboState )

  00006	8b 86 f0 01 00
	00		 mov	 eax, DWORD PTR [esi+496]
  0000c	85 c0		 test	 eax, eax
  0000e	0f 88 8e 00 00
	00		 js	 $LN5@CheckCombo
  00014	83 f8 01	 cmp	 eax, 1
  00017	7e 09		 jle	 SHORT $LN9@CheckCombo
  00019	83 f8 06	 cmp	 eax, 6
  0001c	0f 85 80 00 00
	00		 jne	 $LN5@CheckCombo
$LN9@CheckCombo:

; 422  : 	{
; 423  : 	case CCS_NONE:
; 424  : 	case CCS_NORMAL:
; 425  : 	case CCS_DOUBLE:
; 426  : 		break;
; 427  : 	default:
; 428  : 		return;
; 429  : 	}
; 430  : 
; 431  : 	if( m_bReserveJumpAttack )

  00022	80 be 08 02 00
	00 00		 cmp	 BYTE PTR [esi+520], 0
  00029	75 77		 jne	 SHORT $LN5@CheckCombo

; 435  : 	if( !COMPARE( m_nCurComboCnt, 0, iMaxCnt ) )

  0002b	57		 push	 edi
  0002c	8b be fc 01 00
	00		 mov	 edi, DWORD PTR [esi+508]
  00032	85 ff		 test	 edi, edi
  00034	78 6b		 js	 SHORT $LN18@CheckCombo

; 432  : 		return;
; 433  : 
; 434  : 	int iMaxCnt = m_ComboAttackList.size();

  00036	8b 86 50 01 00
	00		 mov	 eax, DWORD PTR [esi+336]
  0003c	2b 86 4c 01 00
	00		 sub	 eax, DWORD PTR [esi+332]
  00042	6a 50		 push	 80			; 00000050H
  00044	99		 cdq
  00045	59		 pop	 ecx
  00046	f7 f9		 idiv	 ecx

; 435  : 	if( !COMPARE( m_nCurComboCnt, 0, iMaxCnt ) )

  00048	3b f8		 cmp	 edi, eax
  0004a	7d 55		 jge	 SHORT $LN18@CheckCombo

; 436  : 	{
; 437  : 		return;
; 438  : 	}
; 439  : 
; 440  : 	DWORD dwCurTime = FRAMEGETTIME();

  0004c	ff 15 00 00 00
	00		 call	 DWORD PTR __imp_?GetSingleton@ioFrameTimer@@SAAAV1@XZ
  00052	8b c8		 mov	 ecx, eax
  00054	ff 15 00 00 00
	00		 call	 DWORD PTR __imp_?GetLoopSec@ioFrameTimer@@QBEKXZ

; 441  : 	DWORD dwLooseTime = 0;
; 442  : 
; 443  : 	if( pOwner )

  0005a	8b 4d 08	 mov	 ecx, DWORD PTR _pOwner$[ebp]
  0005d	33 d2		 xor	 edx, edx
  0005f	85 c9		 test	 ecx, ecx
  00061	74 06		 je	 SHORT $LN16@CheckCombo

; 444  : 		dwLooseTime = pOwner->GetActionStopTotalDelay();

  00063	8b 91 b8 15 00
	00		 mov	 edx, DWORD PTR [ecx+5560]
$LN16@CheckCombo:

; 445  : 
; 446  : 	if( m_nCurComboCnt > 0 && !COMPARE( dwCurTime, m_dwEnableComboTime_S+dwLooseTime, m_dwEnableComboTime_E+dwLooseTime ) )

  00069	8b be fc 01 00
	00		 mov	 edi, DWORD PTR [esi+508]
  0006f	53		 push	 ebx
  00070	85 ff		 test	 edi, edi
  00072	7e 25		 jle	 SHORT $LN1@CheckCombo
  00074	8b 9e 00 02 00
	00		 mov	 ebx, DWORD PTR [esi+512]
  0007a	03 da		 add	 ebx, edx
  0007c	3b c3		 cmp	 eax, ebx
  0007e	72 20		 jb	 SHORT $LN19@CheckCombo
  00080	8b 9e 04 02 00
	00		 mov	 ebx, DWORD PTR [esi+516]
  00086	03 da		 add	 ebx, edx
  00088	3b c3		 cmp	 eax, ebx

; 447  : 		return;

  0008a	73 14		 jae	 SHORT $LN19@CheckCombo

; 448  : 
; 449  : 	if( m_nCurComboCnt > 0 && pOwner->IsHasCrown() )

  0008c	85 ff		 test	 edi, edi
  0008e	7e 09		 jle	 SHORT $LN1@CheckCombo
  00090	e8 00 00 00 00	 call	 ?IsHasCrown@ioBaseChar@@QBE_NXZ ; ioBaseChar::IsHasCrown
  00095	84 c0		 test	 al, al
  00097	75 07		 jne	 SHORT $LN19@CheckCombo
$LN1@CheckCombo:

; 450  : 		return;
; 451  : 
; 452  : 	m_bReserveJumpAttack = true;

  00099	c6 86 08 02 00
	00 01		 mov	 BYTE PTR [esi+520], 1
$LN19@CheckCombo:
  000a0	5b		 pop	 ebx
$LN18@CheckCombo:
  000a1	5f		 pop	 edi
$LN5@CheckCombo:
  000a2	5e		 pop	 esi

; 453  : }

  000a3	5d		 pop	 ebp
  000a4	c2 04 00	 ret	 4
?CheckComboJumpAttack@ioParkilpyoJump@@UAEXPAVioBaseChar@@@Z ENDP ; ioParkilpyoJump::CheckComboJumpAttack
_TEXT	ENDS
PUBLIC	??_C@_00CNPNBAHC@?$AA@				; `string'
PUBLIC	__real@3ff0000000000000
PUBLIC	__real@3f800000
PUBLIC	__real@4f800000
PUBLIC	__real@42c80000
PUBLIC	_pOwner$GSCopy$
PUBLIC	__$ArrayPad$
PUBLIC	?SetChargingState@ioParkilpyoJump@@IAEXPAVioBaseChar@@@Z ; ioParkilpyoJump::SetChargingState
EXTRN	??1SP2Packet@@UAE@XZ:PROC			; SP2Packet::~SP2Packet
EXTRN	?SendToAllPlayingUser@P2PNetwork@@YAXAAVSP2Packet@@PAVioBaseChar@@@Z:PROC ; P2PNetwork::SendToAllPlayingUser
EXTRN	??6SP2Packet@@QAEAAV0@ABUD3DXQUATERNION@@@Z:PROC ; SP2Packet::operator<<
EXTRN	??6SP2Packet@@QAEAAV0@AAV?$CEncrypt@M@@@Z:PROC	; SP2Packet::operator<<
EXTRN	??6SP2Packet@@QAEAAV0@H@Z:PROC			; SP2Packet::operator<<
EXTRN	??6SP2Packet@@QAEAAV0@ABVioHashString@@@Z:PROC	; SP2Packet::operator<<
EXTRN	??0SP2Packet@@QAE@K@Z:PROC			; SP2Packet::SP2Packet
EXTRN	?SetJumpAttackState@ioBaseChar@@QAEXXZ:PROC	; ioBaseChar::SetJumpAttackState
EXTRN	?SetChangeJumpMotion@ioBaseChar@@QAEX_NABVioHashString@@11M@Z:PROC ; ioBaseChar::SetChangeJumpMotion
EXTRN	?SetEnableChangeTeam@ioBaseChar@@QAEX_N@Z:PROC	; ioBaseChar::SetEnableChangeTeam
EXTRN	?SetNoWoundState@ioBaseChar@@QAEX_N@Z:PROC	; ioBaseChar::SetNoWoundState
EXTRN	?SetEnableHide@ioBaseChar@@QAEX_NVioHashString@@1@Z:PROC ; ioBaseChar::SetEnableHide
EXTRN	__imp_??0ioHashString@@QAE@PBD@Z:PROC
EXTRN	__imp_?SetActionAni@ioEntityGroup@@QAE_NHMMMMMM_N0@Z:PROC
EXTRN	__imp_?GetAnimationFullTime@ioEntityGroup@@QAEMH@Z:PROC
EXTRN	__imp_?GetAnimationIdx@ioEntityGroup@@QAEHABVioHashString@@@Z:PROC
EXTRN	__imp_?ClearAllActionAni@ioEntityGroup@@QAEXM_N@Z:PROC
EXTRN	__imp_?ClearAllLoopAni@ioEntityGroup@@QAEXM_N@Z:PROC
EXTRN	?ClearSylphid@ioBaseChar@@QAEXXZ:PROC		; ioBaseChar::ClearSylphid
EXTRN	___security_cookie:DWORD
EXTRN	__chkstk:PROC
;	COMDAT ??_C@_00CNPNBAHC@?$AA@
; File d:\lost saga for developer\youtube\tutorial\source\src\lsclient\iobasechar.h
CONST	SEGMENT
??_C@_00CNPNBAHC@?$AA@ DB 00H				; `string'
CONST	ENDS
;	COMDAT __real@3ff0000000000000
CONST	SEGMENT
__real@3ff0000000000000 DQ 03ff0000000000000r	; 1
CONST	ENDS
;	COMDAT __real@3f800000
CONST	SEGMENT
__real@3f800000 DD 03f800000r			; 1
CONST	ENDS
;	COMDAT __real@4f800000
CONST	SEGMENT
__real@4f800000 DD 04f800000r			; 4.29497e+009
CONST	ENDS
;	COMDAT __real@42c80000
CONST	SEGMENT
__real@42c80000 DD 042c80000r			; 100
CONST	ENDS
;	COMDAT xdata$x
xdata$x	SEGMENT
__ehfuncinfo$?SetChargingState@ioParkilpyoJump@@IAEXPAVioBaseChar@@@Z DD 019930522H
	DD	05H
	DD	FLAT:__unwindtable$?SetChargingState@ioParkilpyoJump@@IAEXPAVioBaseChar@@@Z
	DD	2 DUP(00H)
	DD	2 DUP(00H)
	DD	00H
	DD	01H
__unwindtable$?SetChargingState@ioParkilpyoJump@@IAEXPAVioBaseChar@@@Z DD 0ffffffffH
	DD	FLAT:__unwindfunclet$?SetChargingState@ioParkilpyoJump@@IAEXPAVioBaseChar@@@Z$0
	DD	0ffffffffH
	DD	FLAT:__unwindfunclet$?SetChargingState@ioParkilpyoJump@@IAEXPAVioBaseChar@@@Z$2
	DD	01H
	DD	FLAT:__unwindfunclet$?SetChargingState@ioParkilpyoJump@@IAEXPAVioBaseChar@@@Z$3
	DD	02H
	DD	FLAT:__unwindfunclet$?SetChargingState@ioParkilpyoJump@@IAEXPAVioBaseChar@@@Z$4
	DD	0ffffffffH
	DD	FLAT:__unwindfunclet$?SetChargingState@ioParkilpyoJump@@IAEXPAVioBaseChar@@@Z$5
; Function compile flags: /Ogsp
; File d:\lost saga for developer\youtube\tutorial\source\src\lsclient\ioparkilpyojump.cpp
xdata$x	ENDS
;	COMDAT ?SetChargingState@ioParkilpyoJump@@IAEXPAVioBaseChar@@@Z
_TEXT	SEGMENT
$T597287 = -32868					; size = 16
$T597286 = -32852					; size = 16
_dwCurTime$ = -32836					; size = 4
$T597288 = -32832					; size = 16
tv93 = -32824						; size = 8
tv291 = -32820						; size = 4
tv284 = -32820						; size = 4
$T597285 = -32820					; size = 4
_fTimeRate$ = -32820					; size = 4
$T597284 = -32816					; size = 4
_iAniID$ = -32816					; size = 4
_pOwner$GSCopy$ = -32812				; size = 4
_kPacket$590811 = -32808				; size = 32792
__$ArrayPad$ = -16					; size = 4
__$EHRec$ = -12						; size = 12
_pOwner$ = 8						; size = 4
?SetChargingState@ioParkilpyoJump@@IAEXPAVioBaseChar@@@Z PROC ; ioParkilpyoJump::SetChargingState, COMDAT
; _this$ = ecx

; 593  : {

  00000	55		 push	 ebp
  00001	8b ec		 mov	 ebp, esp
  00003	6a ff		 push	 -1
  00005	68 00 00 00 00	 push	 __ehhandler$?SetChargingState@ioParkilpyoJump@@IAEXPAVioBaseChar@@@Z
  0000a	64 a1 00 00 00
	00		 mov	 eax, DWORD PTR fs:0
  00010	50		 push	 eax
  00011	b8 58 80 00 00	 mov	 eax, 32856		; 00008058H
  00016	e8 00 00 00 00	 call	 __chkstk
  0001b	a1 00 00 00 00	 mov	 eax, DWORD PTR ___security_cookie
  00020	33 c5		 xor	 eax, ebp
  00022	89 45 f0	 mov	 DWORD PTR __$ArrayPad$[ebp], eax
  00025	53		 push	 ebx
  00026	56		 push	 esi
  00027	57		 push	 edi
  00028	50		 push	 eax
  00029	8d 45 f4	 lea	 eax, DWORD PTR __$EHRec$[ebp]
  0002c	64 a3 00 00 00
	00		 mov	 DWORD PTR fs:0, eax
  00032	8b d9		 mov	 ebx, ecx
  00034	8b 4d 08	 mov	 ecx, DWORD PTR _pOwner$[ebp]

; 623  : 	{
; 624  : 		SP2Packet kPacket( CUPK_EXTEND_JUMP );

  00037	89 8d d4 7f ff
	ff		 mov	 DWORD PTR _pOwner$GSCopy$[ebp], ecx
  0003d	85 c9		 test	 ecx, ecx
  0003f	0f 84 92 02 00
	00		 je	 $LN1@SetChargin

; 594  : 	if( !pOwner ) return;
; 595  : 
; 596  : 	ioEntityGroup *pGrp = pOwner->GetGroup();
; 597  : 	if( !pGrp ) return;

  00045	8b 71 04	 mov	 esi, DWORD PTR [ecx+4]
  00048	85 f6		 test	 esi, esi
  0004a	0f 84 87 02 00
	00		 je	 $LN1@SetChargin

; 598  : 
; 599  : 	pOwner->ClearSylphid();

  00050	e8 00 00 00 00	 call	 ?ClearSylphid@ioBaseChar@@QAEXXZ ; ioBaseChar::ClearSylphid

; 600  : 
; 601  : 	DWORD dwCurTime = FRAMEGETTIME();

  00055	ff 15 00 00 00
	00		 call	 DWORD PTR __imp_?GetSingleton@ioFrameTimer@@SAAAV1@XZ
  0005b	8b c8		 mov	 ecx, eax
  0005d	ff 15 00 00 00
	00		 call	 DWORD PTR __imp_?GetLoopSec@ioFrameTimer@@QBEKXZ

; 602  : 
; 603  : 	pGrp->ClearAllLoopAni( 100.0f, true );

  00063	f3 0f 10 05 00
	00 00 00	 movss	 xmm0, DWORD PTR __real@42c80000
  0006b	33 ff		 xor	 edi, edi
  0006d	47		 inc	 edi
  0006e	57		 push	 edi
  0006f	51		 push	 ecx
  00070	8b ce		 mov	 ecx, esi
  00072	89 85 bc 7f ff
	ff		 mov	 DWORD PTR _dwCurTime$[ebp], eax
  00078	f3 0f 11 04 24	 movss	 DWORD PTR [esp], xmm0
  0007d	ff 15 00 00 00
	00		 call	 DWORD PTR __imp_?ClearAllLoopAni@ioEntityGroup@@QAEXM_N@Z

; 604  : 	pGrp->ClearAllActionAni( 100.0f, true );

  00083	f3 0f 10 05 00
	00 00 00	 movss	 xmm0, DWORD PTR __real@42c80000
  0008b	57		 push	 edi
  0008c	51		 push	 ecx
  0008d	8b ce		 mov	 ecx, esi
  0008f	f3 0f 11 04 24	 movss	 DWORD PTR [esp], xmm0
  00094	ff 15 00 00 00
	00		 call	 DWORD PTR __imp_?ClearAllActionAni@ioEntityGroup@@QAEXM_N@Z

; 605  : 
; 606  : 	int iAniID = pGrp->GetAnimationIdx( m_szChargingAni );

  0009a	8d 83 28 01 00
	00		 lea	 eax, DWORD PTR [ebx+296]
  000a0	50		 push	 eax
  000a1	8b ce		 mov	 ecx, esi
  000a3	ff 15 00 00 00
	00		 call	 DWORD PTR __imp_?GetAnimationIdx@ioEntityGroup@@QAEHABVioHashString@@@Z

; 607  : 	float fTimeRate = (float)m_dwChargingTime / pGrp->GetAnimationFullTime( iAniID );

  000a9	db 83 24 01 00
	00		 fild	 DWORD PTR [ebx+292]
  000af	8b 8b 24 01 00
	00		 mov	 ecx, DWORD PTR [ebx+292]
  000b5	89 85 d0 7f ff
	ff		 mov	 DWORD PTR _iAniID$[ebp], eax
  000bb	85 c9		 test	 ecx, ecx
  000bd	79 06		 jns	 SHORT $LN21@SetChargin
  000bf	d8 05 00 00 00
	00		 fadd	 DWORD PTR __real@4f800000
$LN21@SetChargin:
  000c5	50		 push	 eax
  000c6	dd 9d c8 7f ff
	ff		 fstp	 QWORD PTR tv93[ebp]
  000cc	8b ce		 mov	 ecx, esi
  000ce	ff 15 00 00 00
	00		 call	 DWORD PTR __imp_?GetAnimationFullTime@ioEntityGroup@@QAEMH@Z
  000d4	dc bd c8 7f ff
	ff		 fdivr	 QWORD PTR tv93[ebp]

; 608  : 	pGrp->SetActionAni( iAniID, 100.0f, 100.0f, 1.0f, 1.0f/fTimeRate, 0.0f, 0.0f, true );

  000da	0f 57 c0	 xorps	 xmm0, xmm0
  000dd	57		 push	 edi
  000de	57		 push	 edi
  000df	83 ec 18	 sub	 esp, 24			; 00000018H
  000e2	f3 0f 11 44 24
	14		 movss	 DWORD PTR [esp+20], xmm0
  000e8	f3 0f 11 44 24
	10		 movss	 DWORD PTR [esp+16], xmm0
  000ee	f3 0f 10 05 00
	00 00 00	 movss	 xmm0, DWORD PTR __real@3f800000
  000f6	8b ce		 mov	 ecx, esi
  000f8	d9 9d cc 7f ff
	ff		 fstp	 DWORD PTR _fTimeRate$[ebp]
  000fe	d9 85 cc 7f ff
	ff		 fld	 DWORD PTR _fTimeRate$[ebp]
  00104	d9 e8		 fld1
  00106	de f1		 fdivrp	 ST(1), ST(0)
  00108	d9 9d cc 7f ff
	ff		 fstp	 DWORD PTR tv284[ebp]
  0010e	d9 85 cc 7f ff
	ff		 fld	 DWORD PTR tv284[ebp]
  00114	d9 5c 24 0c	 fstp	 DWORD PTR [esp+12]
  00118	f3 0f 11 44 24
	08		 movss	 DWORD PTR [esp+8], xmm0
  0011e	f3 0f 10 05 00
	00 00 00	 movss	 xmm0, DWORD PTR __real@42c80000
  00126	f3 0f 11 44 24
	04		 movss	 DWORD PTR [esp+4], xmm0
  0012c	f3 0f 11 04 24	 movss	 DWORD PTR [esp], xmm0
  00131	ff b5 d0 7f ff
	ff		 push	 DWORD PTR _iAniID$[ebp]
  00137	ff 15 00 00 00
	00		 call	 DWORD PTR __imp_?SetActionAni@ioEntityGroup@@QAE_NHMMMMMM_N0@Z

; 609  : 
; 610  : 	m_bUseExtendJump = true;
; 611  : 
; 612  : 	pOwner->SetEnableHide( false );

  0013d	8b 35 00 00 00
	00		 mov	 esi, DWORD PTR __imp_??0ioHashString@@QAE@PBD@Z
  00143	83 ec 10	 sub	 esp, 16			; 00000010H
  00146	8b cc		 mov	 ecx, esp
  00148	89 a5 d0 7f ff
	ff		 mov	 DWORD PTR $T597284[ebp], esp
  0014e	bf 00 00 00 00	 mov	 edi, OFFSET ??_C@_00CNPNBAHC@?$AA@
  00153	57		 push	 edi
  00154	c6 43 10 01	 mov	 BYTE PTR [ebx+16], 1
  00158	ff d6		 call	 esi
  0015a	83 65 fc 00	 and	 DWORD PTR __$EHRec$[ebp+8], 0
  0015e	83 ec 10	 sub	 esp, 16			; 00000010H
  00161	8b cc		 mov	 ecx, esp
  00163	89 a5 cc 7f ff
	ff		 mov	 DWORD PTR $T597285[ebp], esp
  00169	57		 push	 edi
  0016a	ff d6		 call	 esi
  0016c	8b 8d d4 7f ff
	ff		 mov	 ecx, DWORD PTR _pOwner$GSCopy$[ebp]
  00172	83 4d fc ff	 or	 DWORD PTR __$EHRec$[ebp+8], -1
  00176	6a 00		 push	 0
  00178	e8 00 00 00 00	 call	 ?SetEnableHide@ioBaseChar@@QAEX_NVioHashString@@1@Z ; ioBaseChar::SetEnableHide

; 613  : 	pOwner->SetNoWoundState( false );

  0017d	8b 8d d4 7f ff
	ff		 mov	 ecx, DWORD PTR _pOwner$GSCopy$[ebp]
  00183	6a 00		 push	 0
  00185	e8 00 00 00 00	 call	 ?SetNoWoundState@ioBaseChar@@QAEX_N@Z ; ioBaseChar::SetNoWoundState

; 614  : 	pOwner->SetEnableChangeTeam( false );

  0018a	8b 8d d4 7f ff
	ff		 mov	 ecx, DWORD PTR _pOwner$GSCopy$[ebp]
  00190	6a 00		 push	 0
  00192	e8 00 00 00 00	 call	 ?SetEnableChangeTeam@ioBaseChar@@QAEX_N@Z ; ioBaseChar::SetEnableChangeTeam

; 615  : 
; 616  : 	pOwner->SetChangeJumpMotion( false, "", "", "", 0.0f );

  00197	57		 push	 edi
  00198	8d 8d ac 7f ff
	ff		 lea	 ecx, DWORD PTR $T597286[ebp]
  0019e	ff d6		 call	 esi
  001a0	57		 push	 edi
  001a1	8d 8d 9c 7f ff
	ff		 lea	 ecx, DWORD PTR $T597287[ebp]
  001a7	c7 45 fc 01 00
	00 00		 mov	 DWORD PTR __$EHRec$[ebp+8], 1
  001ae	ff d6		 call	 esi
  001b0	57		 push	 edi
  001b1	8d 8d c0 7f ff
	ff		 lea	 ecx, DWORD PTR $T597288[ebp]
  001b7	c6 45 fc 02	 mov	 BYTE PTR __$EHRec$[ebp+8], 2
  001bb	ff d6		 call	 esi
  001bd	0f 57 c0	 xorps	 xmm0, xmm0
  001c0	8b bd d4 7f ff
	ff		 mov	 edi, DWORD PTR _pOwner$GSCopy$[ebp]
  001c6	51		 push	 ecx
  001c7	f3 0f 11 04 24	 movss	 DWORD PTR [esp], xmm0
  001cc	8d 85 ac 7f ff
	ff		 lea	 eax, DWORD PTR $T597286[ebp]
  001d2	50		 push	 eax
  001d3	8d 85 9c 7f ff
	ff		 lea	 eax, DWORD PTR $T597287[ebp]
  001d9	50		 push	 eax
  001da	8d 85 c0 7f ff
	ff		 lea	 eax, DWORD PTR $T597288[ebp]
  001e0	50		 push	 eax
  001e1	6a 00		 push	 0
  001e3	8b cf		 mov	 ecx, edi
  001e5	c6 45 fc 03	 mov	 BYTE PTR __$EHRec$[ebp+8], 3
  001e9	e8 00 00 00 00	 call	 ?SetChangeJumpMotion@ioBaseChar@@QAEX_NABVioHashString@@11M@Z ; ioBaseChar::SetChangeJumpMotion
  001ee	c6 45 fc 02	 mov	 BYTE PTR __$EHRec$[ebp+8], 2
  001f2	8d 8d c0 7f ff
	ff		 lea	 ecx, DWORD PTR $T597288[ebp]
  001f8	8b 35 00 00 00
	00		 mov	 esi, DWORD PTR __imp_??1ioHashString@@QAE@XZ
  001fe	ff d6		 call	 esi
  00200	8d 8d 9c 7f ff
	ff		 lea	 ecx, DWORD PTR $T597287[ebp]
  00206	c6 45 fc 01	 mov	 BYTE PTR __$EHRec$[ebp+8], 1
  0020a	ff d6		 call	 esi
  0020c	83 4d fc ff	 or	 DWORD PTR __$EHRec$[ebp+8], -1
  00210	8d 8d ac 7f ff
	ff		 lea	 ecx, DWORD PTR $T597286[ebp]
  00216	ff d6		 call	 esi

; 617  : 	pOwner->SetJumpAttackState();

  00218	8b cf		 mov	 ecx, edi
  0021a	e8 00 00 00 00	 call	 ?SetJumpAttackState@ioBaseChar@@QAEXXZ ; ioBaseChar::SetJumpAttackState

; 618  : 
; 619  : 	m_ChargeComboState = CCS_CHARGE;
; 620  : 	m_dwChargingStartTime = dwCurTime;

  0021f	8b 85 bc 7f ff
	ff		 mov	 eax, DWORD PTR _dwCurTime$[ebp]
  00225	c7 83 f0 01 00
	00 02 00 00 00	 mov	 DWORD PTR [ebx+496], 2
  0022f	89 83 f4 01 00
	00		 mov	 DWORD PTR [ebx+500], eax

; 621  : 
; 622  : 	if( pOwner->IsNeedSendNetwork() )

  00235	8b 07		 mov	 eax, DWORD PTR [edi]
  00237	8b cf		 mov	 ecx, edi
  00239	ff 90 04 01 00
	00		 call	 DWORD PTR [eax+260]
  0023f	84 c0		 test	 al, al
  00241	0f 84 90 00 00
	00		 je	 $LN1@SetChargin

; 623  : 	{
; 624  : 		SP2Packet kPacket( CUPK_EXTEND_JUMP );

  00247	68 46 41 00 00	 push	 16710			; 00004146H
  0024c	8d 8d d8 7f ff
	ff		 lea	 ecx, DWORD PTR _kPacket$590811[ebp]
  00252	e8 00 00 00 00	 call	 ??0SP2Packet@@QAE@K@Z	; SP2Packet::SP2Packet

; 625  : 		kPacket << pOwner->GetCharName();

  00257	8d 87 d4 02 00
	00		 lea	 eax, DWORD PTR [edi+724]
  0025d	50		 push	 eax
  0025e	8d 8d d8 7f ff
	ff		 lea	 ecx, DWORD PTR _kPacket$590811[ebp]
  00264	c7 45 fc 04 00
	00 00		 mov	 DWORD PTR __$EHRec$[ebp+8], 4
  0026b	e8 00 00 00 00	 call	 ??6SP2Packet@@QAEAAV0@ABVioHashString@@@Z ; SP2Packet::operator<<

; 626  : 		kPacket << (int)GetType();

  00270	8b 03		 mov	 eax, DWORD PTR [ebx]
  00272	8b cb		 mov	 ecx, ebx
  00274	ff 50 08	 call	 DWORD PTR [eax+8]
  00277	50		 push	 eax
  00278	8d 8d d8 7f ff
	ff		 lea	 ecx, DWORD PTR _kPacket$590811[ebp]
  0027e	e8 00 00 00 00	 call	 ??6SP2Packet@@QAEAAV0@H@Z ; SP2Packet::operator<<

; 627  : 		kPacket << pOwner->GetHP().m_fCurValue;

  00283	8d 87 c0 00 00
	00		 lea	 eax, DWORD PTR [edi+192]
  00289	50		 push	 eax
  0028a	8d 8d d8 7f ff
	ff		 lea	 ecx, DWORD PTR _kPacket$590811[ebp]
  00290	e8 00 00 00 00	 call	 ??6SP2Packet@@QAEAAV0@AAV?$CEncrypt@M@@@Z ; SP2Packet::operator<<

; 628  : 		kPacket << m_ChargeComboState;

  00295	ff b3 f0 01 00
	00		 push	 DWORD PTR [ebx+496]
  0029b	8d 8d d8 7f ff
	ff		 lea	 ecx, DWORD PTR _kPacket$590811[ebp]
  002a1	e8 00 00 00 00	 call	 ??6SP2Packet@@QAEAAV0@H@Z ; SP2Packet::operator<<

; 629  : 		kPacket << pOwner->GetTargetRot();

  002a6	81 c7 a4 06 00
	00		 add	 edi, 1700		; 000006a4H
  002ac	57		 push	 edi
  002ad	8d 8d d8 7f ff
	ff		 lea	 ecx, DWORD PTR _kPacket$590811[ebp]
  002b3	e8 00 00 00 00	 call	 ??6SP2Packet@@QAEAAV0@ABUD3DXQUATERNION@@@Z ; SP2Packet::operator<<

; 630  : 		P2PNetwork::SendToAllPlayingUser( kPacket );

  002b8	8d 85 d8 7f ff
	ff		 lea	 eax, DWORD PTR _kPacket$590811[ebp]
  002be	6a 00		 push	 0
  002c0	50		 push	 eax
  002c1	e8 00 00 00 00	 call	 ?SendToAllPlayingUser@P2PNetwork@@YAXAAVSP2Packet@@PAVioBaseChar@@@Z ; P2PNetwork::SendToAllPlayingUser

; 631  : 	}

  002c6	83 4d fc ff	 or	 DWORD PTR __$EHRec$[ebp+8], -1
  002ca	59		 pop	 ecx
  002cb	59		 pop	 ecx
  002cc	8d 8d d8 7f ff
	ff		 lea	 ecx, DWORD PTR _kPacket$590811[ebp]
  002d2	e8 00 00 00 00	 call	 ??1SP2Packet@@UAE@XZ	; SP2Packet::~SP2Packet
$LN1@SetChargin:

; 632  : }

  002d7	8b 4d f4	 mov	 ecx, DWORD PTR __$EHRec$[ebp]
  002da	64 89 0d 00 00
	00 00		 mov	 DWORD PTR fs:0, ecx
  002e1	59		 pop	 ecx
  002e2	5f		 pop	 edi
  002e3	5e		 pop	 esi
  002e4	5b		 pop	 ebx
  002e5	8b 4d f0	 mov	 ecx, DWORD PTR __$ArrayPad$[ebp]
  002e8	33 cd		 xor	 ecx, ebp
  002ea	e8 00 00 00 00	 call	 @__security_check_cookie@4
  002ef	c9		 leave
  002f0	c2 04 00	 ret	 4
_TEXT	ENDS
;	COMDAT text$x
text$x	SEGMENT
__unwindfunclet$?SetChargingState@ioParkilpyoJump@@IAEXPAVioBaseChar@@@Z$0:
  00000	8b 8d d0 7f ff
	ff		 mov	 ecx, DWORD PTR $T597284[ebp]
  00006	ff 25 00 00 00
	00		 jmp	 DWORD PTR __imp_??1ioHashString@@QAE@XZ
__unwindfunclet$?SetChargingState@ioParkilpyoJump@@IAEXPAVioBaseChar@@@Z$2:
  0000c	8d 8d ac 7f ff
	ff		 lea	 ecx, DWORD PTR $T597286[ebp]
  00012	ff 25 00 00 00
	00		 jmp	 DWORD PTR __imp_??1ioHashString@@QAE@XZ
__unwindfunclet$?SetChargingState@ioParkilpyoJump@@IAEXPAVioBaseChar@@@Z$3:
  00018	8d 8d 9c 7f ff
	ff		 lea	 ecx, DWORD PTR $T597287[ebp]
  0001e	ff 25 00 00 00
	00		 jmp	 DWORD PTR __imp_??1ioHashString@@QAE@XZ
__unwindfunclet$?SetChargingState@ioParkilpyoJump@@IAEXPAVioBaseChar@@@Z$4:
  00024	8d 8d c0 7f ff
	ff		 lea	 ecx, DWORD PTR $T597288[ebp]
  0002a	ff 25 00 00 00
	00		 jmp	 DWORD PTR __imp_??1ioHashString@@QAE@XZ
__unwindfunclet$?SetChargingState@ioParkilpyoJump@@IAEXPAVioBaseChar@@@Z$5:
  00030	8d 8d d8 7f ff
	ff		 lea	 ecx, DWORD PTR _kPacket$590811[ebp]
  00036	e9 00 00 00 00	 jmp	 ??1SP2Packet@@UAE@XZ	; SP2Packet::~SP2Packet
__ehhandler$?SetChargingState@ioParkilpyoJump@@IAEXPAVioBaseChar@@@Z:
  0003b	8b 54 24 08	 mov	 edx, DWORD PTR [esp+8]
  0003f	8d 42 0c	 lea	 eax, DWORD PTR [edx+12]
  00042	8b 8a 98 7f ff
	ff		 mov	 ecx, DWORD PTR [edx-32872]
  00048	33 c8		 xor	 ecx, eax
  0004a	e8 00 00 00 00	 call	 @__security_check_cookie@4
  0004f	8b 4a fc	 mov	 ecx, DWORD PTR [edx-4]
  00052	33 c8		 xor	 ecx, eax
  00054	e8 00 00 00 00	 call	 @__security_check_cookie@4
  00059	b8 00 00 00 00	 mov	 eax, OFFSET __ehfuncinfo$?SetChargingState@ioParkilpyoJump@@IAEXPAVioBaseChar@@@Z
  0005e	e9 00 00 00 00	 jmp	 ___CxxFrameHandler3
text$x	ENDS
?SetChargingState@ioParkilpyoJump@@IAEXPAVioBaseChar@@@Z ENDP ; ioParkilpyoJump::SetChargingState
PUBLIC	__real@4066800000000000
PUBLIC	__real@4046800000000000
PUBLIC	_pOwner$GSCopy$
PUBLIC	__$ArrayPad$
PUBLIC	?ChangeToGathering@ioParkilpyoJump@@IAEXPAVioBaseChar@@@Z ; ioParkilpyoJump::ChangeToGathering
EXTRN	__imp_?SetLoopAni@ioEntityGroup@@QAE_NHMMMM@Z:PROC
EXTRN	?SetTargetRotToRotate@ioBaseChar@@QAEXABUD3DXQUATERNION@@_N1@Z:PROC ; ioBaseChar::SetTargetRotToRotate
EXTRN	_D3DXQuaternionRotationYawPitchRoll@16:PROC
EXTRN	__imp_?ArrangeHead@ioMath@@SAMM@Z:PROC
EXTRN	?CheckCurDirKey@ioBaseChar@@QAE?AW4DirKeyInput@ioUserKeyInput@@XZ:PROC ; ioBaseChar::CheckCurDirKey
EXTRN	?IsCanRotateJumpAttack@ioBaseChar@@QAE_NXZ:PROC	; ioBaseChar::IsCanRotateJumpAttack
;	COMDAT __real@4066800000000000
; File d:\lost saga for developer\youtube\tutorial\source\src\lsclient\iobasechar.h
CONST	SEGMENT
__real@4066800000000000 DQ 04066800000000000r	; 180
CONST	ENDS
;	COMDAT __real@4046800000000000
CONST	SEGMENT
__real@4046800000000000 DQ 04046800000000000r	; 45
CONST	ENDS
;	COMDAT xdata$x
xdata$x	SEGMENT
__ehfuncinfo$?ChangeToGathering@ioParkilpyoJump@@IAEXPAVioBaseChar@@@Z DD 019930522H
	DD	05H
	DD	FLAT:__unwindtable$?ChangeToGathering@ioParkilpyoJump@@IAEXPAVioBaseChar@@@Z
	DD	2 DUP(00H)
	DD	2 DUP(00H)
	DD	00H
	DD	01H
__unwindtable$?ChangeToGathering@ioParkilpyoJump@@IAEXPAVioBaseChar@@@Z DD 0ffffffffH
	DD	FLAT:__unwindfunclet$?ChangeToGathering@ioParkilpyoJump@@IAEXPAVioBaseChar@@@Z$0
	DD	0ffffffffH
	DD	FLAT:__unwindfunclet$?ChangeToGathering@ioParkilpyoJump@@IAEXPAVioBaseChar@@@Z$2
	DD	01H
	DD	FLAT:__unwindfunclet$?ChangeToGathering@ioParkilpyoJump@@IAEXPAVioBaseChar@@@Z$3
	DD	02H
	DD	FLAT:__unwindfunclet$?ChangeToGathering@ioParkilpyoJump@@IAEXPAVioBaseChar@@@Z$4
	DD	0ffffffffH
	DD	FLAT:__unwindfunclet$?ChangeToGathering@ioParkilpyoJump@@IAEXPAVioBaseChar@@@Z$5
; Function compile flags: /Ogsp
; File d:\lost saga for developer\youtube\tutorial\source\src\lsclient\ioparkilpyojump.cpp
xdata$x	ENDS
;	COMDAT ?ChangeToGathering@ioParkilpyoJump@@IAEXPAVioBaseChar@@@Z
_TEXT	SEGMENT
$T597334 = -32872					; size = 16
$T597335 = -32856					; size = 16
$T597332 = -32840					; size = 4
$T597333 = -32836					; size = 16
_qtRotate$590827 = -32836				; size = 16
_dwCurTime$ = -32820					; size = 4
$T597331 = -32816					; size = 4
_fYawD$590825 = -32816					; size = 4
_pOwner$GSCopy$ = -32812				; size = 4
_kPacket$590836 = -32808				; size = 32792
__$ArrayPad$ = -16					; size = 4
__$EHRec$ = -12						; size = 12
_pOwner$ = 8						; size = 4
?ChangeToGathering@ioParkilpyoJump@@IAEXPAVioBaseChar@@@Z PROC ; ioParkilpyoJump::ChangeToGathering, COMDAT
; _this$ = ecx

; 635  : {

  00000	55		 push	 ebp
  00001	8b ec		 mov	 ebp, esp
  00003	6a ff		 push	 -1
  00005	68 00 00 00 00	 push	 __ehhandler$?ChangeToGathering@ioParkilpyoJump@@IAEXPAVioBaseChar@@@Z
  0000a	64 a1 00 00 00
	00		 mov	 eax, DWORD PTR fs:0
  00010	50		 push	 eax
  00011	b8 5c 80 00 00	 mov	 eax, 32860		; 0000805cH
  00016	e8 00 00 00 00	 call	 __chkstk
  0001b	a1 00 00 00 00	 mov	 eax, DWORD PTR ___security_cookie
  00020	33 c5		 xor	 eax, ebp
  00022	89 45 f0	 mov	 DWORD PTR __$ArrayPad$[ebp], eax
  00025	53		 push	 ebx
  00026	56		 push	 esi
  00027	57		 push	 edi
  00028	50		 push	 eax
  00029	8d 45 f4	 lea	 eax, DWORD PTR __$EHRec$[ebp]
  0002c	64 a3 00 00 00
	00		 mov	 DWORD PTR fs:0, eax
  00032	8b 5d 08	 mov	 ebx, DWORD PTR _pOwner$[ebp]
  00035	8b f1		 mov	 esi, ecx

; 659  : 		}
; 660  : 	}
; 661  : 
; 662  : 	pGrp->ClearAllLoopAni( 100.0f, true );

  00037	89 9d d4 7f ff
	ff		 mov	 DWORD PTR _pOwner$GSCopy$[ebp], ebx
  0003d	85 db		 test	 ebx, ebx
  0003f	0f 84 fc 02 00
	00		 je	 $LN1@ChangeToGa

; 636  : 	if( !pOwner ) return;
; 637  : 
; 638  : 	ioEntityGroup *pGrp = pOwner->GetGroup();
; 639  : 	if( !pGrp ) return;

  00045	8b 7b 04	 mov	 edi, DWORD PTR [ebx+4]
  00048	85 ff		 test	 edi, edi
  0004a	0f 84 f1 02 00
	00		 je	 $LN1@ChangeToGa

; 640  : 
; 641  : 	pOwner->ClearSylphid();

  00050	8b cb		 mov	 ecx, ebx
  00052	e8 00 00 00 00	 call	 ?ClearSylphid@ioBaseChar@@QAEXXZ ; ioBaseChar::ClearSylphid

; 642  : 
; 643  : 	DWORD dwDelayTime = 0;
; 644  : 	DWORD dwCurTime = FRAMEGETTIME();

  00057	ff 15 00 00 00
	00		 call	 DWORD PTR __imp_?GetSingleton@ioFrameTimer@@SAAAV1@XZ
  0005d	8b c8		 mov	 ecx, eax
  0005f	ff 15 00 00 00
	00		 call	 DWORD PTR __imp_?GetLoopSec@ioFrameTimer@@QBEKXZ
  00065	89 85 cc 7f ff
	ff		 mov	 DWORD PTR _dwCurTime$[ebp], eax

; 645  : 
; 646  : 	if( pOwner->IsNeedProcess() && pOwner->IsCanRotateJumpAttack() )

  0006b	8b 03		 mov	 eax, DWORD PTR [ebx]
  0006d	8b cb		 mov	 ecx, ebx
  0006f	ff 90 00 01 00
	00		 call	 DWORD PTR [eax+256]
  00075	84 c0		 test	 al, al
  00077	0f 84 95 00 00
	00		 je	 $LN2@ChangeToGa
  0007d	8b cb		 mov	 ecx, ebx
  0007f	e8 00 00 00 00	 call	 ?IsCanRotateJumpAttack@ioBaseChar@@QAE_NXZ ; ioBaseChar::IsCanRotateJumpAttack
  00084	84 c0		 test	 al, al
  00086	0f 84 86 00 00
	00		 je	 $LN2@ChangeToGa

; 647  : 	{
; 648  : 		ioUserKeyInput::DirKeyInput eDir = pOwner->CheckCurDirKey();

  0008c	8b cb		 mov	 ecx, ebx
  0008e	e8 00 00 00 00	 call	 ?CheckCurDirKey@ioBaseChar@@QAE?AW4DirKeyInput@ioUserKeyInput@@XZ ; ioBaseChar::CheckCurDirKey

; 649  : 		if( eDir != ioUserKeyInput::DKI_NONE )

  00093	85 c0		 test	 eax, eax
  00095	74 7b		 je	 SHORT $LN2@ChangeToGa

; 650  : 		{
; 651  : 			float fYawD = 180.0f + 45.0f * ( eDir - ioUserKeyInput::DKI_UP );
; 652  : 			fYawD = ioMath::ArrangeHead( fYawD );

  00097	0f 57 c0	 xorps	 xmm0, xmm0
  0009a	48		 dec	 eax
  0009b	f3 0f 2a c0	 cvtsi2ss xmm0, eax
  0009f	0f 5a c0	 cvtps2pd xmm0, xmm0
  000a2	f2 0f 59 05 00
	00 00 00	 mulsd	 xmm0, QWORD PTR __real@4046800000000000
  000aa	f2 0f 58 05 00
	00 00 00	 addsd	 xmm0, QWORD PTR __real@4066800000000000
  000b2	51		 push	 ecx
  000b3	66 0f 5a c0	 cvtpd2ps xmm0, xmm0
  000b7	f3 0f 11 04 24	 movss	 DWORD PTR [esp], xmm0
  000bc	ff 15 00 00 00
	00		 call	 DWORD PTR __imp_?ArrangeHead@ioMath@@SAMM@Z
  000c2	d9 9d d0 7f ff
	ff		 fstp	 DWORD PTR _fYawD$590825[ebp]

; 653  : 
; 654  : 			float fYawR = DEGtoRAD( fYawD );

  000c8	f3 0f 10 85 d0
	7f ff ff	 movss	 xmm0, DWORD PTR _fYawD$590825[ebp]
  000d0	0f 5a c0	 cvtps2pd xmm0, xmm0
  000d3	f2 0f 59 05 00
	00 00 00	 mulsd	 xmm0, QWORD PTR __real@3f91df46a2526c7a
  000db	66 0f 5a c8	 cvtpd2ps xmm1, xmm0

; 655  : 			D3DXQUATERNION qtRotate;
; 656  : 			D3DXQuaternionRotationYawPitchRoll( &qtRotate, fYawR, 0.0f, 0.0f );

  000df	0f 57 c0	 xorps	 xmm0, xmm0
  000e2	f3 0f 11 04 24	 movss	 DWORD PTR [esp], xmm0
  000e7	51		 push	 ecx
  000e8	51		 push	 ecx
  000e9	f3 0f 11 44 24
	04		 movss	 DWORD PTR [esp+4], xmm0
  000ef	8d 85 bc 7f ff
	ff		 lea	 eax, DWORD PTR _qtRotate$590827[ebp]
  000f5	f3 0f 11 0c 24	 movss	 DWORD PTR [esp], xmm1
  000fa	50		 push	 eax
  000fb	e8 00 00 00 00	 call	 _D3DXQuaternionRotationYawPitchRoll@16

; 657  : 
; 658  : 			pOwner->SetTargetRotToRotate( qtRotate, true, false );

  00100	6a 00		 push	 0
  00102	6a 01		 push	 1
  00104	8d 85 bc 7f ff
	ff		 lea	 eax, DWORD PTR _qtRotate$590827[ebp]
  0010a	50		 push	 eax
  0010b	8b cb		 mov	 ecx, ebx
  0010d	e8 00 00 00 00	 call	 ?SetTargetRotToRotate@ioBaseChar@@QAEXABUD3DXQUATERNION@@_N1@Z ; ioBaseChar::SetTargetRotToRotate
$LN2@ChangeToGa:

; 659  : 		}
; 660  : 	}
; 661  : 
; 662  : 	pGrp->ClearAllLoopAni( 100.0f, true );

  00112	f3 0f 10 05 00
	00 00 00	 movss	 xmm0, DWORD PTR __real@42c80000
  0011a	6a 01		 push	 1
  0011c	51		 push	 ecx
  0011d	8b cf		 mov	 ecx, edi
  0011f	f3 0f 11 04 24	 movss	 DWORD PTR [esp], xmm0
  00124	ff 15 00 00 00
	00		 call	 DWORD PTR __imp_?ClearAllLoopAni@ioEntityGroup@@QAEXM_N@Z

; 663  : 	pGrp->ClearAllActionAni( 100.0f, true );

  0012a	f3 0f 10 05 00
	00 00 00	 movss	 xmm0, DWORD PTR __real@42c80000
  00132	6a 01		 push	 1
  00134	51		 push	 ecx
  00135	8b cf		 mov	 ecx, edi
  00137	f3 0f 11 04 24	 movss	 DWORD PTR [esp], xmm0
  0013c	ff 15 00 00 00
	00		 call	 DWORD PTR __imp_?ClearAllActionAni@ioEntityGroup@@QAEXM_N@Z

; 664  : 
; 665  : 	int iAniID = pGrp->GetAnimationIdx( m_szGatherAni );

  00142	8d 86 3c 01 00
	00		 lea	 eax, DWORD PTR [esi+316]
  00148	50		 push	 eax
  00149	8b cf		 mov	 ecx, edi
  0014b	ff 15 00 00 00
	00		 call	 DWORD PTR __imp_?GetAnimationIdx@ioEntityGroup@@QAEHABVioHashString@@@Z

; 666  : 	float fTimeRate = 1.0f;
; 667  : 	pGrp->SetLoopAni( iAniID, 100.0f, 1.0f, 1.0f/fTimeRate );

  00151	0f 57 c0	 xorps	 xmm0, xmm0
  00154	83 ec 10	 sub	 esp, 16			; 00000010H
  00157	f3 0f 11 44 24
	0c		 movss	 DWORD PTR [esp+12], xmm0
  0015d	f3 0f 10 05 00
	00 00 00	 movss	 xmm0, DWORD PTR __real@3f800000
  00165	f3 0f 11 44 24
	08		 movss	 DWORD PTR [esp+8], xmm0
  0016b	f3 0f 11 44 24
	04		 movss	 DWORD PTR [esp+4], xmm0
  00171	f3 0f 10 05 00
	00 00 00	 movss	 xmm0, DWORD PTR __real@42c80000
  00179	f3 0f 11 04 24	 movss	 DWORD PTR [esp], xmm0
  0017e	50		 push	 eax
  0017f	8b cf		 mov	 ecx, edi
  00181	ff 15 00 00 00
	00		 call	 DWORD PTR __imp_?SetLoopAni@ioEntityGroup@@QAE_NHMMMM@Z

; 668  : 
; 669  : 	m_nCurComboCnt = 0;
; 670  : 	m_dwEnableComboTime_S = 0;
; 671  : 	m_dwEnableComboTime_E = 0;
; 672  : 
; 673  : 	m_bReserveJumpAttack = false;
; 674  : 	m_bUseExtendJump = true;
; 675  : 	m_bUsedChargeAttack = false;
; 676  : 
; 677  : 	pOwner->SetEnableHide( false );

  00187	8b 3d 00 00 00
	00		 mov	 edi, DWORD PTR __imp_??0ioHashString@@QAE@PBD@Z
  0018d	33 c0		 xor	 eax, eax
  0018f	83 ec 10	 sub	 esp, 16			; 00000010H
  00192	8b cc		 mov	 ecx, esp
  00194	89 a5 d0 7f ff
	ff		 mov	 DWORD PTR $T597331[ebp], esp
  0019a	bb 00 00 00 00	 mov	 ebx, OFFSET ??_C@_00CNPNBAHC@?$AA@
  0019f	53		 push	 ebx
  001a0	89 86 fc 01 00
	00		 mov	 DWORD PTR [esi+508], eax
  001a6	89 86 00 02 00
	00		 mov	 DWORD PTR [esi+512], eax
  001ac	89 86 04 02 00
	00		 mov	 DWORD PTR [esi+516], eax
  001b2	88 86 08 02 00
	00		 mov	 BYTE PTR [esi+520], al
  001b8	c6 46 10 01	 mov	 BYTE PTR [esi+16], 1
  001bc	88 86 11 02 00
	00		 mov	 BYTE PTR [esi+529], al
  001c2	ff d7		 call	 edi
  001c4	83 65 fc 00	 and	 DWORD PTR __$EHRec$[ebp+8], 0
  001c8	83 ec 10	 sub	 esp, 16			; 00000010H
  001cb	8b cc		 mov	 ecx, esp
  001cd	89 a5 b8 7f ff
	ff		 mov	 DWORD PTR $T597332[ebp], esp
  001d3	53		 push	 ebx
  001d4	ff d7		 call	 edi
  001d6	8b 8d d4 7f ff
	ff		 mov	 ecx, DWORD PTR _pOwner$GSCopy$[ebp]
  001dc	83 4d fc ff	 or	 DWORD PTR __$EHRec$[ebp+8], -1
  001e0	6a 00		 push	 0
  001e2	e8 00 00 00 00	 call	 ?SetEnableHide@ioBaseChar@@QAEX_NVioHashString@@1@Z ; ioBaseChar::SetEnableHide

; 678  : 	pOwner->SetNoWoundState( false );

  001e7	8b 8d d4 7f ff
	ff		 mov	 ecx, DWORD PTR _pOwner$GSCopy$[ebp]
  001ed	6a 00		 push	 0
  001ef	e8 00 00 00 00	 call	 ?SetNoWoundState@ioBaseChar@@QAEX_N@Z ; ioBaseChar::SetNoWoundState

; 679  : 	pOwner->SetEnableChangeTeam( false );

  001f4	8b 8d d4 7f ff
	ff		 mov	 ecx, DWORD PTR _pOwner$GSCopy$[ebp]
  001fa	6a 00		 push	 0
  001fc	e8 00 00 00 00	 call	 ?SetEnableChangeTeam@ioBaseChar@@QAEX_N@Z ; ioBaseChar::SetEnableChangeTeam

; 680  : 
; 681  : 	pOwner->SetChangeJumpMotion( false, "", "", "", 0.0f );

  00201	53		 push	 ebx
  00202	8d 8d bc 7f ff
	ff		 lea	 ecx, DWORD PTR $T597333[ebp]
  00208	ff d7		 call	 edi
  0020a	53		 push	 ebx
  0020b	8d 8d 98 7f ff
	ff		 lea	 ecx, DWORD PTR $T597334[ebp]
  00211	c7 45 fc 01 00
	00 00		 mov	 DWORD PTR __$EHRec$[ebp+8], 1
  00218	ff d7		 call	 edi
  0021a	53		 push	 ebx
  0021b	8d 8d a8 7f ff
	ff		 lea	 ecx, DWORD PTR $T597335[ebp]
  00221	c6 45 fc 02	 mov	 BYTE PTR __$EHRec$[ebp+8], 2
  00225	ff d7		 call	 edi
  00227	0f 57 c0	 xorps	 xmm0, xmm0
  0022a	51		 push	 ecx
  0022b	8d 85 bc 7f ff
	ff		 lea	 eax, DWORD PTR $T597333[ebp]
  00231	f3 0f 11 04 24	 movss	 DWORD PTR [esp], xmm0
  00236	50		 push	 eax
  00237	8d 85 98 7f ff
	ff		 lea	 eax, DWORD PTR $T597334[ebp]
  0023d	50		 push	 eax
  0023e	c6 45 fc 03	 mov	 BYTE PTR __$EHRec$[ebp+8], 3
  00242	8d 85 a8 7f ff
	ff		 lea	 eax, DWORD PTR $T597335[ebp]
  00248	8b 9d d4 7f ff
	ff		 mov	 ebx, DWORD PTR _pOwner$GSCopy$[ebp]
  0024e	50		 push	 eax
  0024f	6a 00		 push	 0
  00251	8b cb		 mov	 ecx, ebx
  00253	e8 00 00 00 00	 call	 ?SetChangeJumpMotion@ioBaseChar@@QAEX_NABVioHashString@@11M@Z ; ioBaseChar::SetChangeJumpMotion
  00258	8b 3d 00 00 00
	00		 mov	 edi, DWORD PTR __imp_??1ioHashString@@QAE@XZ
  0025e	8d 8d a8 7f ff
	ff		 lea	 ecx, DWORD PTR $T597335[ebp]
  00264	c6 45 fc 02	 mov	 BYTE PTR __$EHRec$[ebp+8], 2
  00268	ff d7		 call	 edi
  0026a	8d 8d 98 7f ff
	ff		 lea	 ecx, DWORD PTR $T597334[ebp]
  00270	c6 45 fc 01	 mov	 BYTE PTR __$EHRec$[ebp+8], 1
  00274	ff d7		 call	 edi
  00276	83 4d fc ff	 or	 DWORD PTR __$EHRec$[ebp+8], -1
  0027a	8d 8d bc 7f ff
	ff		 lea	 ecx, DWORD PTR $T597333[ebp]
  00280	ff d7		 call	 edi

; 682  : 	pOwner->SetJumpAttackState();

  00282	8b cb		 mov	 ecx, ebx
  00284	e8 00 00 00 00	 call	 ?SetJumpAttackState@ioBaseChar@@QAEXXZ ; ioBaseChar::SetJumpAttackState

; 683  : 
; 684  : 	m_ChargeComboState = CCS_GATHER;
; 685  : 	m_dwGatherStartTime = dwCurTime;

  00289	8b 85 cc 7f ff
	ff		 mov	 eax, DWORD PTR _dwCurTime$[ebp]
  0028f	c7 86 f0 01 00
	00 03 00 00 00	 mov	 DWORD PTR [esi+496], 3
  00299	89 86 f8 01 00
	00		 mov	 DWORD PTR [esi+504], eax

; 686  : 
; 687  : 	if( pOwner->IsNeedSendNetwork() )

  0029f	8b 03		 mov	 eax, DWORD PTR [ebx]
  002a1	8b cb		 mov	 ecx, ebx
  002a3	ff 90 04 01 00
	00		 call	 DWORD PTR [eax+260]
  002a9	84 c0		 test	 al, al
  002ab	0f 84 90 00 00
	00		 je	 $LN1@ChangeToGa

; 688  : 	{
; 689  : 		SP2Packet kPacket( CUPK_EXTEND_JUMP );

  002b1	68 46 41 00 00	 push	 16710			; 00004146H
  002b6	8d 8d d8 7f ff
	ff		 lea	 ecx, DWORD PTR _kPacket$590836[ebp]
  002bc	e8 00 00 00 00	 call	 ??0SP2Packet@@QAE@K@Z	; SP2Packet::SP2Packet

; 690  : 		kPacket << pOwner->GetCharName();

  002c1	8d 83 d4 02 00
	00		 lea	 eax, DWORD PTR [ebx+724]
  002c7	50		 push	 eax
  002c8	8d 8d d8 7f ff
	ff		 lea	 ecx, DWORD PTR _kPacket$590836[ebp]
  002ce	c7 45 fc 04 00
	00 00		 mov	 DWORD PTR __$EHRec$[ebp+8], 4
  002d5	e8 00 00 00 00	 call	 ??6SP2Packet@@QAEAAV0@ABVioHashString@@@Z ; SP2Packet::operator<<

; 691  : 		kPacket << (int)GetType();

  002da	8b 06		 mov	 eax, DWORD PTR [esi]
  002dc	8b ce		 mov	 ecx, esi
  002de	ff 50 08	 call	 DWORD PTR [eax+8]
  002e1	50		 push	 eax
  002e2	8d 8d d8 7f ff
	ff		 lea	 ecx, DWORD PTR _kPacket$590836[ebp]
  002e8	e8 00 00 00 00	 call	 ??6SP2Packet@@QAEAAV0@H@Z ; SP2Packet::operator<<

; 692  : 		kPacket << pOwner->GetHP().m_fCurValue;

  002ed	8d 83 c0 00 00
	00		 lea	 eax, DWORD PTR [ebx+192]
  002f3	50		 push	 eax
  002f4	8d 8d d8 7f ff
	ff		 lea	 ecx, DWORD PTR _kPacket$590836[ebp]
  002fa	e8 00 00 00 00	 call	 ??6SP2Packet@@QAEAAV0@AAV?$CEncrypt@M@@@Z ; SP2Packet::operator<<

; 693  : 		kPacket << m_ChargeComboState;

  002ff	ff b6 f0 01 00
	00		 push	 DWORD PTR [esi+496]
  00305	8d 8d d8 7f ff
	ff		 lea	 ecx, DWORD PTR _kPacket$590836[ebp]
  0030b	e8 00 00 00 00	 call	 ??6SP2Packet@@QAEAAV0@H@Z ; SP2Packet::operator<<

; 694  : 		kPacket << pOwner->GetTargetRot();

  00310	81 c3 a4 06 00
	00		 add	 ebx, 1700		; 000006a4H
  00316	53		 push	 ebx
  00317	8d 8d d8 7f ff
	ff		 lea	 ecx, DWORD PTR _kPacket$590836[ebp]
  0031d	e8 00 00 00 00	 call	 ??6SP2Packet@@QAEAAV0@ABUD3DXQUATERNION@@@Z ; SP2Packet::operator<<

; 695  : 		P2PNetwork::SendToAllPlayingUser( kPacket );

  00322	8d 85 d8 7f ff
	ff		 lea	 eax, DWORD PTR _kPacket$590836[ebp]
  00328	6a 00		 push	 0
  0032a	50		 push	 eax
  0032b	e8 00 00 00 00	 call	 ?SendToAllPlayingUser@P2PNetwork@@YAXAAVSP2Packet@@PAVioBaseChar@@@Z ; P2PNetwork::SendToAllPlayingUser

; 696  : 	}

  00330	83 4d fc ff	 or	 DWORD PTR __$EHRec$[ebp+8], -1
  00334	59		 pop	 ecx
  00335	59		 pop	 ecx
  00336	8d 8d d8 7f ff
	ff		 lea	 ecx, DWORD PTR _kPacket$590836[ebp]
  0033c	e8 00 00 00 00	 call	 ??1SP2Packet@@UAE@XZ	; SP2Packet::~SP2Packet
$LN1@ChangeToGa:

; 697  : }

  00341	8b 4d f4	 mov	 ecx, DWORD PTR __$EHRec$[ebp]
  00344	64 89 0d 00 00
	00 00		 mov	 DWORD PTR fs:0, ecx
  0034b	59		 pop	 ecx
  0034c	5f		 pop	 edi
  0034d	5e		 pop	 esi
  0034e	5b		 pop	 ebx
  0034f	8b 4d f0	 mov	 ecx, DWORD PTR __$ArrayPad$[ebp]
  00352	33 cd		 xor	 ecx, ebp
  00354	e8 00 00 00 00	 call	 @__security_check_cookie@4
  00359	c9		 leave
  0035a	c2 04 00	 ret	 4
_TEXT	ENDS
;	COMDAT text$x
text$x	SEGMENT
__unwindfunclet$?ChangeToGathering@ioParkilpyoJump@@IAEXPAVioBaseChar@@@Z$0:
  00000	8b 8d d0 7f ff
	ff		 mov	 ecx, DWORD PTR $T597331[ebp]
  00006	ff 25 00 00 00
	00		 jmp	 DWORD PTR __imp_??1ioHashString@@QAE@XZ
__unwindfunclet$?ChangeToGathering@ioParkilpyoJump@@IAEXPAVioBaseChar@@@Z$2:
  0000c	8d 8d bc 7f ff
	ff		 lea	 ecx, DWORD PTR $T597333[ebp]
  00012	ff 25 00 00 00
	00		 jmp	 DWORD PTR __imp_??1ioHashString@@QAE@XZ
__unwindfunclet$?ChangeToGathering@ioParkilpyoJump@@IAEXPAVioBaseChar@@@Z$3:
  00018	8d 8d 98 7f ff
	ff		 lea	 ecx, DWORD PTR $T597334[ebp]
  0001e	ff 25 00 00 00
	00		 jmp	 DWORD PTR __imp_??1ioHashString@@QAE@XZ
__unwindfunclet$?ChangeToGathering@ioParkilpyoJump@@IAEXPAVioBaseChar@@@Z$4:
  00024	8d 8d a8 7f ff
	ff		 lea	 ecx, DWORD PTR $T597335[ebp]
  0002a	ff 25 00 00 00
	00		 jmp	 DWORD PTR __imp_??1ioHashString@@QAE@XZ
__unwindfunclet$?ChangeToGathering@ioParkilpyoJump@@IAEXPAVioBaseChar@@@Z$5:
  00030	8d 8d d8 7f ff
	ff		 lea	 ecx, DWORD PTR _kPacket$590836[ebp]
  00036	e9 00 00 00 00	 jmp	 ??1SP2Packet@@UAE@XZ	; SP2Packet::~SP2Packet
__ehhandler$?ChangeToGathering@ioParkilpyoJump@@IAEXPAVioBaseChar@@@Z:
  0003b	8b 54 24 08	 mov	 edx, DWORD PTR [esp+8]
  0003f	8d 42 0c	 lea	 eax, DWORD PTR [edx+12]
  00042	8b 8a 94 7f ff
	ff		 mov	 ecx, DWORD PTR [edx-32876]
  00048	33 c8		 xor	 ecx, eax
  0004a	e8 00 00 00 00	 call	 @__security_check_cookie@4
  0004f	8b 4a fc	 mov	 ecx, DWORD PTR [edx-4]
  00052	33 c8		 xor	 ecx, eax
  00054	e8 00 00 00 00	 call	 @__security_check_cookie@4
  00059	b8 00 00 00 00	 mov	 eax, OFFSET __ehfuncinfo$?ChangeToGathering@ioParkilpyoJump@@IAEXPAVioBaseChar@@@Z
  0005e	e9 00 00 00 00	 jmp	 ___CxxFrameHandler3
text$x	ENDS
?ChangeToGathering@ioParkilpyoJump@@IAEXPAVioBaseChar@@@Z ENDP ; ioParkilpyoJump::ChangeToGathering
PUBLIC	__$ArrayPad$
PUBLIC	?ChangeToEquipObject@ioParkilpyoJump@@IAEXPAVioBaseChar@@@Z ; ioParkilpyoJump::ChangeToEquipObject
EXTRN	?SetParkilpyoEquipObject@ioBaseChar@@QAEXH@Z:PROC ; ioBaseChar::SetParkilpyoEquipObject
;	COMDAT xdata$x
; File d:\lost saga for developer\youtube\tutorial\source\src\lsclient\iobasechar.h
xdata$x	SEGMENT
__unwindtable$?ChangeToEquipObject@ioParkilpyoJump@@IAEXPAVioBaseChar@@@Z DD 0ffffffffH
	DD	FLAT:__unwindfunclet$?ChangeToEquipObject@ioParkilpyoJump@@IAEXPAVioBaseChar@@@Z$0
__ehfuncinfo$?ChangeToEquipObject@ioParkilpyoJump@@IAEXPAVioBaseChar@@@Z DD 019930522H
	DD	01H
	DD	FLAT:__unwindtable$?ChangeToEquipObject@ioParkilpyoJump@@IAEXPAVioBaseChar@@@Z
	DD	2 DUP(00H)
	DD	2 DUP(00H)
	DD	00H
	DD	01H
; Function compile flags: /Ogsp
; File d:\lost saga for developer\youtube\tutorial\source\src\lsclient\ioparkilpyojump.cpp
xdata$x	ENDS
;	COMDAT ?ChangeToEquipObject@ioParkilpyoJump@@IAEXPAVioBaseChar@@@Z
_TEXT	SEGMENT
_kPacket$590862 = -32808				; size = 32792
__$ArrayPad$ = -16					; size = 4
__$EHRec$ = -12						; size = 12
_pOwner$ = 8						; size = 4
?ChangeToEquipObject@ioParkilpyoJump@@IAEXPAVioBaseChar@@@Z PROC ; ioParkilpyoJump::ChangeToEquipObject, COMDAT
; _this$ = ecx

; 757  : {

  00000	55		 push	 ebp
  00001	8b ec		 mov	 ebp, esp
  00003	6a ff		 push	 -1
  00005	68 00 00 00 00	 push	 __ehhandler$?ChangeToEquipObject@ioParkilpyoJump@@IAEXPAVioBaseChar@@@Z
  0000a	64 a1 00 00 00
	00		 mov	 eax, DWORD PTR fs:0
  00010	50		 push	 eax
  00011	b8 1c 80 00 00	 mov	 eax, 32796		; 0000801cH
  00016	e8 00 00 00 00	 call	 __chkstk
  0001b	a1 00 00 00 00	 mov	 eax, DWORD PTR ___security_cookie
  00020	33 c5		 xor	 eax, ebp
  00022	89 45 f0	 mov	 DWORD PTR __$ArrayPad$[ebp], eax
  00025	56		 push	 esi
  00026	57		 push	 edi
  00027	50		 push	 eax
  00028	8d 45 f4	 lea	 eax, DWORD PTR __$EHRec$[ebp]
  0002b	64 a3 00 00 00
	00		 mov	 DWORD PTR fs:0, eax
  00031	8b 75 08	 mov	 esi, DWORD PTR _pOwner$[ebp]
  00034	8b f9		 mov	 edi, ecx

; 758  : 	if( !pOwner ) 

  00036	85 f6		 test	 esi, esi
  00038	0f 84 b2 00 00
	00		 je	 $LN1@ChangeToEq

; 759  : 		return;
; 760  : 
; 761  : 	m_ChargeComboState = CCS_EQUIP_OBJECT;	
; 762  : 	pOwner->SetParkilpyoEquipObject( ioParkilpyoItem::EOS_JUMP );

  0003e	6a 02		 push	 2
  00040	8b ce		 mov	 ecx, esi
  00042	c7 87 f0 01 00
	00 05 00 00 00	 mov	 DWORD PTR [edi+496], 5
  0004c	e8 00 00 00 00	 call	 ?SetParkilpyoEquipObject@ioBaseChar@@QAEXH@Z ; ioBaseChar::SetParkilpyoEquipObject

; 763  : 
; 764  : 	if( pOwner->IsNeedSendNetwork() )

  00051	8b 06		 mov	 eax, DWORD PTR [esi]
  00053	8b ce		 mov	 ecx, esi
  00055	ff 90 04 01 00
	00		 call	 DWORD PTR [eax+260]
  0005b	84 c0		 test	 al, al
  0005d	0f 84 8d 00 00
	00		 je	 $LN1@ChangeToEq

; 765  : 	{
; 766  : 		SP2Packet kPacket( CUPK_EXTEND_JUMP );

  00063	68 46 41 00 00	 push	 16710			; 00004146H
  00068	8d 8d d8 7f ff
	ff		 lea	 ecx, DWORD PTR _kPacket$590862[ebp]
  0006e	e8 00 00 00 00	 call	 ??0SP2Packet@@QAE@K@Z	; SP2Packet::SP2Packet
  00073	83 65 fc 00	 and	 DWORD PTR __$EHRec$[ebp+8], 0

; 767  : 		kPacket << pOwner->GetCharName();

  00077	8d 86 d4 02 00
	00		 lea	 eax, DWORD PTR [esi+724]
  0007d	50		 push	 eax
  0007e	8d 8d d8 7f ff
	ff		 lea	 ecx, DWORD PTR _kPacket$590862[ebp]
  00084	e8 00 00 00 00	 call	 ??6SP2Packet@@QAEAAV0@ABVioHashString@@@Z ; SP2Packet::operator<<

; 768  : 		kPacket << (int)GetType();

  00089	8b 07		 mov	 eax, DWORD PTR [edi]
  0008b	8b cf		 mov	 ecx, edi
  0008d	ff 50 08	 call	 DWORD PTR [eax+8]
  00090	50		 push	 eax
  00091	8d 8d d8 7f ff
	ff		 lea	 ecx, DWORD PTR _kPacket$590862[ebp]
  00097	e8 00 00 00 00	 call	 ??6SP2Packet@@QAEAAV0@H@Z ; SP2Packet::operator<<

; 769  : 		kPacket << pOwner->GetHP().m_fCurValue;

  0009c	8d 86 c0 00 00
	00		 lea	 eax, DWORD PTR [esi+192]
  000a2	50		 push	 eax
  000a3	8d 8d d8 7f ff
	ff		 lea	 ecx, DWORD PTR _kPacket$590862[ebp]
  000a9	e8 00 00 00 00	 call	 ??6SP2Packet@@QAEAAV0@AAV?$CEncrypt@M@@@Z ; SP2Packet::operator<<

; 770  : 		kPacket << m_ChargeComboState;

  000ae	ff b7 f0 01 00
	00		 push	 DWORD PTR [edi+496]
  000b4	8d 8d d8 7f ff
	ff		 lea	 ecx, DWORD PTR _kPacket$590862[ebp]
  000ba	e8 00 00 00 00	 call	 ??6SP2Packet@@QAEAAV0@H@Z ; SP2Packet::operator<<

; 771  : 		kPacket << pOwner->GetTargetRot();

  000bf	81 c6 a4 06 00
	00		 add	 esi, 1700		; 000006a4H
  000c5	56		 push	 esi
  000c6	8d 8d d8 7f ff
	ff		 lea	 ecx, DWORD PTR _kPacket$590862[ebp]
  000cc	e8 00 00 00 00	 call	 ??6SP2Packet@@QAEAAV0@ABUD3DXQUATERNION@@@Z ; SP2Packet::operator<<

; 772  : 		P2PNetwork::SendToAllPlayingUser( kPacket );

  000d1	8d 85 d8 7f ff
	ff		 lea	 eax, DWORD PTR _kPacket$590862[ebp]
  000d7	6a 00		 push	 0
  000d9	50		 push	 eax
  000da	e8 00 00 00 00	 call	 ?SendToAllPlayingUser@P2PNetwork@@YAXAAVSP2Packet@@PAVioBaseChar@@@Z ; P2PNetwork::SendToAllPlayingUser

; 773  : 	}

  000df	83 4d fc ff	 or	 DWORD PTR __$EHRec$[ebp+8], -1
  000e3	59		 pop	 ecx
  000e4	59		 pop	 ecx
  000e5	8d 8d d8 7f ff
	ff		 lea	 ecx, DWORD PTR _kPacket$590862[ebp]
  000eb	e8 00 00 00 00	 call	 ??1SP2Packet@@UAE@XZ	; SP2Packet::~SP2Packet
$LN1@ChangeToEq:

; 774  : }

  000f0	8b 4d f4	 mov	 ecx, DWORD PTR __$EHRec$[ebp]
  000f3	64 89 0d 00 00
	00 00		 mov	 DWORD PTR fs:0, ecx
  000fa	59		 pop	 ecx
  000fb	5f		 pop	 edi
  000fc	5e		 pop	 esi
  000fd	8b 4d f0	 mov	 ecx, DWORD PTR __$ArrayPad$[ebp]
  00100	33 cd		 xor	 ecx, ebp
  00102	e8 00 00 00 00	 call	 @__security_check_cookie@4
  00107	c9		 leave
  00108	c2 04 00	 ret	 4
_TEXT	ENDS
;	COMDAT text$x
text$x	SEGMENT
__unwindfunclet$?ChangeToEquipObject@ioParkilpyoJump@@IAEXPAVioBaseChar@@@Z$0:
  00000	8d 8d d8 7f ff
	ff		 lea	 ecx, DWORD PTR _kPacket$590862[ebp]
  00006	e9 00 00 00 00	 jmp	 ??1SP2Packet@@UAE@XZ	; SP2Packet::~SP2Packet
__ehhandler$?ChangeToEquipObject@ioParkilpyoJump@@IAEXPAVioBaseChar@@@Z:
  0000b	8b 54 24 08	 mov	 edx, DWORD PTR [esp+8]
  0000f	8d 42 0c	 lea	 eax, DWORD PTR [edx+12]
  00012	8b 8a d8 7f ff
	ff		 mov	 ecx, DWORD PTR [edx-32808]
  00018	33 c8		 xor	 ecx, eax
  0001a	e8 00 00 00 00	 call	 @__security_check_cookie@4
  0001f	8b 4a fc	 mov	 ecx, DWORD PTR [edx-4]
  00022	33 c8		 xor	 ecx, eax
  00024	e8 00 00 00 00	 call	 @__security_check_cookie@4
  00029	b8 00 00 00 00	 mov	 eax, OFFSET __ehfuncinfo$?ChangeToEquipObject@ioParkilpyoJump@@IAEXPAVioBaseChar@@@Z
  0002e	e9 00 00 00 00	 jmp	 ___CxxFrameHandler3
text$x	ENDS
?ChangeToEquipObject@ioParkilpyoJump@@IAEXPAVioBaseChar@@@Z ENDP ; ioParkilpyoJump::ChangeToEquipObject
PUBLIC	?ProcessChargeAttack@ioParkilpyoJump@@IAEXPAVioBaseChar@@@Z ; ioParkilpyoJump::ProcessChargeAttack
EXTRN	?CheckCmdInputState@ioParkilpyoItem@@QAE_NPAVioBaseChar@@@Z:PROC ; ioParkilpyoItem::CheckCmdInputState
EXTRN	?GetWeapon@ioBaseChar@@QBEPAVioWeaponItem@@XZ:PROC ; ioBaseChar::GetWeapon
; Function compile flags: /Ogsp
;	COMDAT ?ProcessChargeAttack@ioParkilpyoJump@@IAEXPAVioBaseChar@@@Z
_TEXT	SEGMENT
_pOwner$ = 8						; size = 4
?ProcessChargeAttack@ioParkilpyoJump@@IAEXPAVioBaseChar@@@Z PROC ; ioParkilpyoJump::ProcessChargeAttack, COMDAT
; _this$ = ecx

; 807  : {

  00000	55		 push	 ebp
  00001	8b ec		 mov	 ebp, esp

; 808  : 	ProcessAirJump( pOwner );

  00003	ff 75 08	 push	 DWORD PTR _pOwner$[ebp]
  00006	e8 00 00 00 00	 call	 ?ProcessAirJump@ioParkilpyoJump@@IAEXPAVioBaseChar@@@Z ; ioParkilpyoJump::ProcessAirJump

; 809  : 
; 810  : 	ioParkilpyoItem *pParkilpyoItem = ToParkilpyoItem( pOwner->GetWeapon() );

  0000b	8b 4d 08	 mov	 ecx, DWORD PTR _pOwner$[ebp]
  0000e	e8 00 00 00 00	 call	 ?GetWeapon@ioBaseChar@@QBEPAVioWeaponItem@@XZ ; ioBaseChar::GetWeapon
  00013	50		 push	 eax
  00014	e8 00 00 00 00	 call	 ?ToParkilpyoItem@@YAPAVioParkilpyoItem@@PAVioItem@@@Z ; ToParkilpyoItem
  00019	59		 pop	 ecx

; 811  : 	if( pParkilpyoItem && pParkilpyoItem->CheckCmdInputState( pOwner ) )

  0001a	85 c0		 test	 eax, eax
  0001c	74 08		 je	 SHORT $LN1@ProcessCha
  0001e	8b c8		 mov	 ecx, eax

; 812  : 		return;
; 813  : }

  00020	5d		 pop	 ebp

; 811  : 	if( pParkilpyoItem && pParkilpyoItem->CheckCmdInputState( pOwner ) )

  00021	e9 00 00 00 00	 jmp	 ?CheckCmdInputState@ioParkilpyoItem@@QAE_NPAVioBaseChar@@@Z ; ioParkilpyoItem::CheckCmdInputState
$LN1@ProcessCha:

; 812  : 		return;
; 813  : }

  00026	5d		 pop	 ebp
  00027	c2 04 00	 ret	 4
?ProcessChargeAttack@ioParkilpyoJump@@IAEXPAVioBaseChar@@@Z ENDP ; ioParkilpyoJump::ProcessChargeAttack
_TEXT	ENDS
PUBLIC	?ProcessEquipObject@ioParkilpyoJump@@IAEXPAVioBaseChar@@@Z ; ioParkilpyoJump::ProcessEquipObject
; Function compile flags: /Ogsp
;	COMDAT ?ProcessEquipObject@ioParkilpyoJump@@IAEXPAVioBaseChar@@@Z
_TEXT	SEGMENT
_pOwner$ = 8						; size = 4
?ProcessEquipObject@ioParkilpyoJump@@IAEXPAVioBaseChar@@@Z PROC ; ioParkilpyoJump::ProcessEquipObject, COMDAT
; _this$ = ecx

; 816  : {

  00000	55		 push	 ebp
  00001	8b ec		 mov	 ebp, esp

; 818  : }

  00003	5d		 pop	 ebp

; 817  : 	ProcessAirJump( pOwner );

  00004	e9 00 00 00 00	 jmp	 ?ProcessAirJump@ioParkilpyoJump@@IAEXPAVioBaseChar@@@Z ; ioParkilpyoJump::ProcessAirJump
?ProcessEquipObject@ioParkilpyoJump@@IAEXPAVioBaseChar@@@Z ENDP ; ioParkilpyoJump::ProcessEquipObject
_TEXT	ENDS
PUBLIC	?begin@?$vector@UWeaponInfo@@V?$allocator@UWeaponInfo@@@std@@@std@@QBE?AV?$_Vector_const_iterator@V?$_Vector_val@UWeaponInfo@@V?$allocator@UWeaponInfo@@@std@@@std@@@2@XZ ; std::vector<WeaponInfo,std::allocator<WeaponInfo> >::begin
; Function compile flags: /Ogsp
; File c:\program files (x86)\microsoft visual studio 10.0\vc\include\vector
;	COMDAT ?begin@?$vector@UWeaponInfo@@V?$allocator@UWeaponInfo@@@std@@@std@@QBE?AV?$_Vector_const_iterator@V?$_Vector_val@UWeaponInfo@@V?$allocator@UWeaponInfo@@@std@@@std@@@2@XZ
_TEXT	SEGMENT
___$ReturnUdt$ = 8					; size = 4
?begin@?$vector@UWeaponInfo@@V?$allocator@UWeaponInfo@@@std@@@std@@QBE?AV?$_Vector_const_iterator@V?$_Vector_val@UWeaponInfo@@V?$allocator@UWeaponInfo@@@std@@@std@@@2@XZ PROC ; std::vector<WeaponInfo,std::allocator<WeaponInfo> >::begin, COMDAT
; _this$ = ecx

; 786  : 		{	// return iterator for beginning of nonmutable sequence

  00000	55		 push	 ebp
  00001	8b ec		 mov	 ebp, esp

; 787  : 		return (const_iterator(this->_Myfirst, this));

  00003	8b 09		 mov	 ecx, DWORD PTR [ecx]
  00005	8b 45 08	 mov	 eax, DWORD PTR ___$ReturnUdt$[ebp]
  00008	89 08		 mov	 DWORD PTR [eax], ecx

; 788  : 		}

  0000a	5d		 pop	 ebp
  0000b	c2 04 00	 ret	 4
?begin@?$vector@UWeaponInfo@@V?$allocator@UWeaponInfo@@@std@@@std@@QBE?AV?$_Vector_const_iterator@V?$_Vector_val@UWeaponInfo@@V?$allocator@UWeaponInfo@@@std@@@std@@@2@XZ ENDP ; std::vector<WeaponInfo,std::allocator<WeaponInfo> >::begin
_TEXT	ENDS
PUBLIC	?end@?$vector@UWeaponInfo@@V?$allocator@UWeaponInfo@@@std@@@std@@QBE?AV?$_Vector_const_iterator@V?$_Vector_val@UWeaponInfo@@V?$allocator@UWeaponInfo@@@std@@@std@@@2@XZ ; std::vector<WeaponInfo,std::allocator<WeaponInfo> >::end
; Function compile flags: /Ogsp
;	COMDAT ?end@?$vector@UWeaponInfo@@V?$allocator@UWeaponInfo@@@std@@@std@@QBE?AV?$_Vector_const_iterator@V?$_Vector_val@UWeaponInfo@@V?$allocator@UWeaponInfo@@@std@@@std@@@2@XZ
_TEXT	SEGMENT
___$ReturnUdt$ = 8					; size = 4
?end@?$vector@UWeaponInfo@@V?$allocator@UWeaponInfo@@@std@@@std@@QBE?AV?$_Vector_const_iterator@V?$_Vector_val@UWeaponInfo@@V?$allocator@UWeaponInfo@@@std@@@std@@@2@XZ PROC ; std::vector<WeaponInfo,std::allocator<WeaponInfo> >::end, COMDAT
; _this$ = ecx

; 796  : 		{	// return iterator for end of nonmutable sequence

  00000	55		 push	 ebp
  00001	8b ec		 mov	 ebp, esp

; 797  : 		return (const_iterator(this->_Mylast, this));

  00003	8b 49 04	 mov	 ecx, DWORD PTR [ecx+4]
  00006	8b 45 08	 mov	 eax, DWORD PTR ___$ReturnUdt$[ebp]
  00009	89 08		 mov	 DWORD PTR [eax], ecx

; 798  : 		}

  0000b	5d		 pop	 ebp
  0000c	c2 04 00	 ret	 4
?end@?$vector@UWeaponInfo@@V?$allocator@UWeaponInfo@@@std@@@std@@QBE?AV?$_Vector_const_iterator@V?$_Vector_val@UWeaponInfo@@V?$allocator@UWeaponInfo@@@std@@@std@@@2@XZ ENDP ; std::vector<WeaponInfo,std::allocator<WeaponInfo> >::end
_TEXT	ENDS
PUBLIC	?begin@?$vector@UForceInfo@@V?$allocator@UForceInfo@@@std@@@std@@QBE?AV?$_Vector_const_iterator@V?$_Vector_val@UForceInfo@@V?$allocator@UForceInfo@@@std@@@std@@@2@XZ ; std::vector<ForceInfo,std::allocator<ForceInfo> >::begin
; Function compile flags: /Ogsp
;	COMDAT ?begin@?$vector@UForceInfo@@V?$allocator@UForceInfo@@@std@@@std@@QBE?AV?$_Vector_const_iterator@V?$_Vector_val@UForceInfo@@V?$allocator@UForceInfo@@@std@@@std@@@2@XZ
_TEXT	SEGMENT
___$ReturnUdt$ = 8					; size = 4
?begin@?$vector@UForceInfo@@V?$allocator@UForceInfo@@@std@@@std@@QBE?AV?$_Vector_const_iterator@V?$_Vector_val@UForceInfo@@V?$allocator@UForceInfo@@@std@@@std@@@2@XZ PROC ; std::vector<ForceInfo,std::allocator<ForceInfo> >::begin, COMDAT
; _this$ = ecx

; 786  : 		{	// return iterator for beginning of nonmutable sequence

  00000	55		 push	 ebp
  00001	8b ec		 mov	 ebp, esp

; 787  : 		return (const_iterator(this->_Myfirst, this));

  00003	8b 09		 mov	 ecx, DWORD PTR [ecx]
  00005	8b 45 08	 mov	 eax, DWORD PTR ___$ReturnUdt$[ebp]
  00008	89 08		 mov	 DWORD PTR [eax], ecx

; 788  : 		}

  0000a	5d		 pop	 ebp
  0000b	c2 04 00	 ret	 4
?begin@?$vector@UForceInfo@@V?$allocator@UForceInfo@@@std@@@std@@QBE?AV?$_Vector_const_iterator@V?$_Vector_val@UForceInfo@@V?$allocator@UForceInfo@@@std@@@std@@@2@XZ ENDP ; std::vector<ForceInfo,std::allocator<ForceInfo> >::begin
_TEXT	ENDS
PUBLIC	?end@?$vector@UForceInfo@@V?$allocator@UForceInfo@@@std@@@std@@QBE?AV?$_Vector_const_iterator@V?$_Vector_val@UForceInfo@@V?$allocator@UForceInfo@@@std@@@std@@@2@XZ ; std::vector<ForceInfo,std::allocator<ForceInfo> >::end
; Function compile flags: /Ogsp
;	COMDAT ?end@?$vector@UForceInfo@@V?$allocator@UForceInfo@@@std@@@std@@QBE?AV?$_Vector_const_iterator@V?$_Vector_val@UForceInfo@@V?$allocator@UForceInfo@@@std@@@std@@@2@XZ
_TEXT	SEGMENT
___$ReturnUdt$ = 8					; size = 4
?end@?$vector@UForceInfo@@V?$allocator@UForceInfo@@@std@@@std@@QBE?AV?$_Vector_const_iterator@V?$_Vector_val@UForceInfo@@V?$allocator@UForceInfo@@@std@@@std@@@2@XZ PROC ; std::vector<ForceInfo,std::allocator<ForceInfo> >::end, COMDAT
; _this$ = ecx

; 796  : 		{	// return iterator for end of nonmutable sequence

  00000	55		 push	 ebp
  00001	8b ec		 mov	 ebp, esp

; 797  : 		return (const_iterator(this->_Mylast, this));

  00003	8b 49 04	 mov	 ecx, DWORD PTR [ecx+4]
  00006	8b 45 08	 mov	 eax, DWORD PTR ___$ReturnUdt$[ebp]
  00009	89 08		 mov	 DWORD PTR [eax], ecx

; 798  : 		}

  0000b	5d		 pop	 ebp
  0000c	c2 04 00	 ret	 4
?end@?$vector@UForceInfo@@V?$allocator@UForceInfo@@@std@@@std@@QBE?AV?$_Vector_const_iterator@V?$_Vector_val@UForceInfo@@V?$allocator@UForceInfo@@@std@@@std@@@2@XZ ENDP ; std::vector<ForceInfo,std::allocator<ForceInfo> >::end
_TEXT	ENDS
PUBLIC	?begin@?$vector@UAttackAttribute@@V?$allocator@UAttackAttribute@@@std@@@std@@QBE?AV?$_Vector_const_iterator@V?$_Vector_val@UAttackAttribute@@V?$allocator@UAttackAttribute@@@std@@@std@@@2@XZ ; std::vector<AttackAttribute,std::allocator<AttackAttribute> >::begin
; Function compile flags: /Ogsp
;	COMDAT ?begin@?$vector@UAttackAttribute@@V?$allocator@UAttackAttribute@@@std@@@std@@QBE?AV?$_Vector_const_iterator@V?$_Vector_val@UAttackAttribute@@V?$allocator@UAttackAttribute@@@std@@@std@@@2@XZ
_TEXT	SEGMENT
___$ReturnUdt$ = 8					; size = 4
?begin@?$vector@UAttackAttribute@@V?$allocator@UAttackAttribute@@@std@@@std@@QBE?AV?$_Vector_const_iterator@V?$_Vector_val@UAttackAttribute@@V?$allocator@UAttackAttribute@@@std@@@std@@@2@XZ PROC ; std::vector<AttackAttribute,std::allocator<AttackAttribute> >::begin, COMDAT
; _this$ = ecx

; 786  : 		{	// return iterator for beginning of nonmutable sequence

  00000	55		 push	 ebp
  00001	8b ec		 mov	 ebp, esp

; 787  : 		return (const_iterator(this->_Myfirst, this));

  00003	8b 09		 mov	 ecx, DWORD PTR [ecx]
  00005	8b 45 08	 mov	 eax, DWORD PTR ___$ReturnUdt$[ebp]
  00008	89 08		 mov	 DWORD PTR [eax], ecx

; 788  : 		}

  0000a	5d		 pop	 ebp
  0000b	c2 04 00	 ret	 4
?begin@?$vector@UAttackAttribute@@V?$allocator@UAttackAttribute@@@std@@@std@@QBE?AV?$_Vector_const_iterator@V?$_Vector_val@UAttackAttribute@@V?$allocator@UAttackAttribute@@@std@@@std@@@2@XZ ENDP ; std::vector<AttackAttribute,std::allocator<AttackAttribute> >::begin
_TEXT	ENDS
PUBLIC	?end@?$vector@UAttackAttribute@@V?$allocator@UAttackAttribute@@@std@@@std@@QBE?AV?$_Vector_const_iterator@V?$_Vector_val@UAttackAttribute@@V?$allocator@UAttackAttribute@@@std@@@std@@@2@XZ ; std::vector<AttackAttribute,std::allocator<AttackAttribute> >::end
; Function compile flags: /Ogsp
;	COMDAT ?end@?$vector@UAttackAttribute@@V?$allocator@UAttackAttribute@@@std@@@std@@QBE?AV?$_Vector_const_iterator@V?$_Vector_val@UAttackAttribute@@V?$allocator@UAttackAttribute@@@std@@@std@@@2@XZ
_TEXT	SEGMENT
___$ReturnUdt$ = 8					; size = 4
?end@?$vector@UAttackAttribute@@V?$allocator@UAttackAttribute@@@std@@@std@@QBE?AV?$_Vector_const_iterator@V?$_Vector_val@UAttackAttribute@@V?$allocator@UAttackAttribute@@@std@@@std@@@2@XZ PROC ; std::vector<AttackAttribute,std::allocator<AttackAttribute> >::end, COMDAT
; _this$ = ecx

; 796  : 		{	// return iterator for end of nonmutable sequence

  00000	55		 push	 ebp
  00001	8b ec		 mov	 ebp, esp

; 797  : 		return (const_iterator(this->_Mylast, this));

  00003	8b 49 04	 mov	 ecx, DWORD PTR [ecx+4]
  00006	8b 45 08	 mov	 eax, DWORD PTR ___$ReturnUdt$[ebp]
  00009	89 08		 mov	 DWORD PTR [eax], ecx

; 798  : 		}

  0000b	5d		 pop	 ebp
  0000c	c2 04 00	 ret	 4
?end@?$vector@UAttackAttribute@@V?$allocator@UAttackAttribute@@@std@@@std@@QBE?AV?$_Vector_const_iterator@V?$_Vector_val@UAttackAttribute@@V?$allocator@UAttackAttribute@@@std@@@std@@@2@XZ ENDP ; std::vector<AttackAttribute,std::allocator<AttackAttribute> >::end
_TEXT	ENDS
PUBLIC	?max_size@?$vector@UAttackAttribute@@V?$allocator@UAttackAttribute@@@std@@@std@@QBEIXZ ; std::vector<AttackAttribute,std::allocator<AttackAttribute> >::max_size
; Function compile flags: /Ogsp
;	COMDAT ?max_size@?$vector@UAttackAttribute@@V?$allocator@UAttackAttribute@@@std@@@std@@QBEIXZ
_TEXT	SEGMENT
?max_size@?$vector@UAttackAttribute@@V?$allocator@UAttackAttribute@@@std@@@std@@QBEIXZ PROC ; std::vector<AttackAttribute,std::allocator<AttackAttribute> >::max_size, COMDAT
; _this$ = ecx

; 884  : 		return (this->_Alval.max_size());

  00000	b8 33 33 33 03	 mov	 eax, 53687091		; 03333333H

; 885  : 		}

  00005	c3		 ret	 0
?max_size@?$vector@UAttackAttribute@@V?$allocator@UAttackAttribute@@@std@@@std@@QBEIXZ ENDP ; std::vector<AttackAttribute,std::allocator<AttackAttribute> >::max_size
_TEXT	ENDS
PUBLIC	?_Grow_to@?$vector@UAttackAttribute@@V?$allocator@UAttackAttribute@@@std@@@std@@IBEII@Z ; std::vector<AttackAttribute,std::allocator<AttackAttribute> >::_Grow_to
; Function compile flags: /Ogsp
;	COMDAT ?_Grow_to@?$vector@UAttackAttribute@@V?$allocator@UAttackAttribute@@@std@@@std@@IBEII@Z
_TEXT	SEGMENT
__Count$ = 8						; size = 4
?_Grow_to@?$vector@UAttackAttribute@@V?$allocator@UAttackAttribute@@@std@@@std@@IBEII@Z PROC ; std::vector<AttackAttribute,std::allocator<AttackAttribute> >::_Grow_to, COMDAT
; _this$ = ecx

; 1274 : 		{	// grow by 50% or at least to _Count

  00000	55		 push	 ebp
  00001	8b ec		 mov	 ebp, esp

; 1275 : 		size_type _Capacity = capacity();

  00003	8b 41 08	 mov	 eax, DWORD PTR [ecx+8]
  00006	2b 01		 sub	 eax, DWORD PTR [ecx]
  00008	6a 50		 push	 80			; 00000050H
  0000a	99		 cdq
  0000b	59		 pop	 ecx
  0000c	f7 f9		 idiv	 ecx

; 1276 : 
; 1277 : 		_Capacity = max_size() - _Capacity / 2 < _Capacity
; 1278 : 			? 0 : _Capacity + _Capacity / 2;	// try to grow by 50%

  0000e	ba 33 33 33 03	 mov	 edx, 53687091		; 03333333H
  00013	8b c8		 mov	 ecx, eax
  00015	d1 e9		 shr	 ecx, 1
  00017	2b d1		 sub	 edx, ecx
  00019	3b d0		 cmp	 edx, eax
  0001b	73 04		 jae	 SHORT $LN4@Grow_to
  0001d	33 c0		 xor	 eax, eax
  0001f	eb 02		 jmp	 SHORT $LN5@Grow_to
$LN4@Grow_to:
  00021	03 c1		 add	 eax, ecx
$LN5@Grow_to:

; 1279 : 		if (_Capacity < _Count)

  00023	3b 45 08	 cmp	 eax, DWORD PTR __Count$[ebp]

; 1280 : 			_Capacity = _Count;

  00026	0f 42 45 08	 cmovb	 eax, DWORD PTR __Count$[ebp]

; 1281 : 		return (_Capacity);
; 1282 : 		}

  0002a	5d		 pop	 ebp
  0002b	c2 04 00	 ret	 4
?_Grow_to@?$vector@UAttackAttribute@@V?$allocator@UAttackAttribute@@@std@@@std@@IBEII@Z ENDP ; std::vector<AttackAttribute,std::allocator<AttackAttribute> >::_Grow_to
_TEXT	ENDS
PUBLIC	?allocate@?$allocator@UAttackAttribute@@@std@@QAEPAUAttackAttribute@@I@Z ; std::allocator<AttackAttribute>::allocate
; Function compile flags: /Ogsp
; File c:\program files (x86)\microsoft visual studio 10.0\vc\include\xmemory
;	COMDAT ?allocate@?$allocator@UAttackAttribute@@@std@@QAEPAUAttackAttribute@@I@Z
_TEXT	SEGMENT
__Count$ = 8						; size = 4
?allocate@?$allocator@UAttackAttribute@@@std@@QAEPAUAttackAttribute@@I@Z PROC ; std::allocator<AttackAttribute>::allocate, COMDAT
; _this$ = ecx

; 186  : 		{	// allocate array of _Count elements

  00000	55		 push	 ebp
  00001	8b ec		 mov	 ebp, esp

; 187  : 		return (_Allocate(_Count, (pointer)0));

  00003	6a 00		 push	 0
  00005	ff 75 08	 push	 DWORD PTR __Count$[ebp]
  00008	e8 00 00 00 00	 call	 ??$_Allocate@UAttackAttribute@@@std@@YAPAUAttackAttribute@@IPAU1@@Z ; std::_Allocate<AttackAttribute>
  0000d	59		 pop	 ecx
  0000e	59		 pop	 ecx

; 188  : 		}

  0000f	5d		 pop	 ebp
  00010	c2 04 00	 ret	 4
?allocate@?$allocator@UAttackAttribute@@@std@@QAEPAUAttackAttribute@@I@Z ENDP ; std::allocator<AttackAttribute>::allocate
_TEXT	ENDS
PUBLIC	__$ArrayPad$
PUBLIC	??$LoadInt_e@$0O@@ioINILoader@@QAEHAAY0O@$$CBDH@Z ; ioINILoader::LoadInt_e<14>
EXTRN	__imp_?LoadInt@ioINILoader@@QAEHPBDH@Z:PROC
; Function compile flags: /Ogsp
; File d:\lost saga for developer\youtube\tutorial\source\src\io3dengine\ioiniloader.h
;	COMDAT ??$LoadInt_e@$0O@@ioINILoader@@QAEHAAY0O@$$CBDH@Z
_TEXT	SEGMENT
__k$ = -24						; size = 14
__$ArrayPad$ = -4					; size = 4
_k$ = 8							; size = 4
_i$ = 12						; size = 4
??$LoadInt_e@$0O@@ioINILoader@@QAEHAAY0O@$$CBDH@Z PROC	; ioINILoader::LoadInt_e<14>, COMDAT
; _this$ = ecx

; 118  : 	{

  00000	55		 push	 ebp
  00001	8b ec		 mov	 ebp, esp
  00003	83 ec 18	 sub	 esp, 24			; 00000018H
  00006	a1 00 00 00 00	 mov	 eax, DWORD PTR ___security_cookie
  0000b	33 c5		 xor	 eax, ebp
  0000d	89 45 fc	 mov	 DWORD PTR __$ArrayPad$[ebp], eax
  00010	8b 45 08	 mov	 eax, DWORD PTR _k$[ebp]

; 119  : 		_ENCSTR(k, _k);

  00013	8a 10		 mov	 dl, BYTE PTR [eax]
  00015	56		 push	 esi
  00016	8b f1		 mov	 esi, ecx
  00018	84 d2		 test	 dl, dl
  0001a	0f 84 64 01 00
	00		 je	 $LN96@LoadInt_e
  00020	80 f2 ed	 xor	 dl, -19			; ffffffedH
  00023	88 55 e8	 mov	 BYTE PTR __k$[ebp], dl
  00026	8a 50 01	 mov	 dl, BYTE PTR [eax+1]
  00029	84 d2		 test	 dl, dl
  0002b	0f 84 4d 01 00
	00		 je	 $LN95@LoadInt_e
  00031	80 f2 ec	 xor	 dl, -20			; ffffffecH
  00034	88 55 e9	 mov	 BYTE PTR __k$[ebp+1], dl
  00037	8a 50 02	 mov	 dl, BYTE PTR [eax+2]
  0003a	84 d2		 test	 dl, dl
  0003c	0f 84 36 01 00
	00		 je	 $LN94@LoadInt_e
  00042	b1 eb		 mov	 cl, -21			; ffffffebH
  00044	32 d1		 xor	 dl, cl
  00046	88 55 ea	 mov	 BYTE PTR __k$[ebp+2], dl
  00049	8a 50 03	 mov	 dl, BYTE PTR [eax+3]
  0004c	84 d2		 test	 dl, dl
  0004e	0f 84 1e 01 00
	00		 je	 $LN93@LoadInt_e
  00054	80 f2 ea	 xor	 dl, -22			; ffffffeaH
  00057	88 55 eb	 mov	 BYTE PTR __k$[ebp+3], dl
  0005a	8a 50 04	 mov	 dl, BYTE PTR [eax+4]
  0005d	84 d2		 test	 dl, dl
  0005f	0f 84 07 01 00
	00		 je	 $LN92@LoadInt_e
  00065	80 f2 ed	 xor	 dl, -19			; ffffffedH
  00068	88 55 ec	 mov	 BYTE PTR __k$[ebp+4], dl
  0006b	8a 50 05	 mov	 dl, BYTE PTR [eax+5]
  0006e	84 d2		 test	 dl, dl
  00070	0f 84 f0 00 00
	00		 je	 $LN91@LoadInt_e
  00076	80 f2 ec	 xor	 dl, -20			; ffffffecH
  00079	88 55 ed	 mov	 BYTE PTR __k$[ebp+5], dl
  0007c	8a 50 06	 mov	 dl, BYTE PTR [eax+6]
  0007f	84 d2		 test	 dl, dl
  00081	0f 84 da 00 00
	00		 je	 $LN90@LoadInt_e
  00087	32 d1		 xor	 dl, cl
  00089	88 55 ee	 mov	 BYTE PTR __k$[ebp+6], dl
  0008c	8a 50 07	 mov	 dl, BYTE PTR [eax+7]
  0008f	84 d2		 test	 dl, dl
  00091	0f 84 c4 00 00
	00		 je	 $LN89@LoadInt_e
  00097	80 f2 ea	 xor	 dl, -22			; ffffffeaH
  0009a	88 55 ef	 mov	 BYTE PTR __k$[ebp+7], dl
  0009d	8a 50 08	 mov	 dl, BYTE PTR [eax+8]
  000a0	84 d2		 test	 dl, dl
  000a2	0f 84 ad 00 00
	00		 je	 $LN88@LoadInt_e
  000a8	80 f2 ed	 xor	 dl, -19			; ffffffedH
  000ab	88 55 f0	 mov	 BYTE PTR __k$[ebp+8], dl
  000ae	8a 50 09	 mov	 dl, BYTE PTR [eax+9]
  000b1	84 d2		 test	 dl, dl
  000b3	0f 84 96 00 00
	00		 je	 $LN87@LoadInt_e
  000b9	80 f2 ec	 xor	 dl, -20			; ffffffecH
  000bc	88 55 f1	 mov	 BYTE PTR __k$[ebp+9], dl
  000bf	8a 50 0a	 mov	 dl, BYTE PTR [eax+10]
  000c2	84 d2		 test	 dl, dl
  000c4	0f 84 80 00 00
	00		 je	 $LN86@LoadInt_e
  000ca	32 d1		 xor	 dl, cl
  000cc	88 55 f2	 mov	 BYTE PTR __k$[ebp+10], dl
  000cf	8a 50 0b	 mov	 dl, BYTE PTR [eax+11]
  000d2	84 d2		 test	 dl, dl
  000d4	74 6e		 je	 SHORT $LN85@LoadInt_e
  000d6	80 f2 ea	 xor	 dl, -22			; ffffffeaH
  000d9	88 55 f3	 mov	 BYTE PTR __k$[ebp+11], dl
  000dc	8a 50 0c	 mov	 dl, BYTE PTR [eax+12]
  000df	84 d2		 test	 dl, dl
  000e1	74 5b		 je	 SHORT $LN84@LoadInt_e
  000e3	80 f2 ed	 xor	 dl, -19			; ffffffedH
  000e6	80 78 0d 00	 cmp	 BYTE PTR [eax+13], 0
  000ea	88 55 f4	 mov	 BYTE PTR __k$[ebp+12], dl
  000ed	0f 84 95 00 00
	00		 je	 $LN1@LoadInt_e
  000f3	8a 50 0e	 mov	 dl, BYTE PTR [eax+14]
  000f6	84 d2		 test	 dl, dl
  000f8	74 3f		 je	 SHORT $LN82@LoadInt_e
  000fa	32 d1		 xor	 dl, cl
  000fc	88 55 f6	 mov	 BYTE PTR __k$[ebp+14], dl
  000ff	8a 50 0f	 mov	 dl, BYTE PTR [eax+15]
  00102	84 d2		 test	 dl, dl
  00104	74 2d		 je	 SHORT $LN81@LoadInt_e
  00106	80 f2 ea	 xor	 dl, -22			; ffffffeaH
  00109	88 55 f7	 mov	 BYTE PTR __k$[ebp+15], dl
  0010c	8a 50 10	 mov	 dl, BYTE PTR [eax+16]
  0010f	84 d2		 test	 dl, dl
  00111	74 1a		 je	 SHORT $LN80@LoadInt_e
  00113	8a 40 11	 mov	 al, BYTE PTR [eax+17]
  00116	80 f2 ed	 xor	 dl, -19			; ffffffedH
  00119	88 55 f8	 mov	 BYTE PTR __k$[ebp+16], dl
  0011c	84 c0		 test	 al, al
  0011e	74 07		 je	 SHORT $LN79@LoadInt_e
  00120	34 ec		 xor	 al, -20			; ffffffecH
  00122	88 45 f9	 mov	 BYTE PTR __k$[ebp+17], al
  00125	eb 61		 jmp	 SHORT $LN1@LoadInt_e
$LN79@LoadInt_e:
  00127	c6 45 f9 ec	 mov	 BYTE PTR __k$[ebp+17], -20 ; ffffffecH
  0012b	eb 5b		 jmp	 SHORT $LN1@LoadInt_e
$LN80@LoadInt_e:
  0012d	c6 45 f8 ed	 mov	 BYTE PTR __k$[ebp+16], -19 ; ffffffedH
  00131	eb 55		 jmp	 SHORT $LN1@LoadInt_e
$LN81@LoadInt_e:
  00133	c6 45 f7 ea	 mov	 BYTE PTR __k$[ebp+15], -22 ; ffffffeaH
  00137	eb 4f		 jmp	 SHORT $LN1@LoadInt_e
$LN82@LoadInt_e:
  00139	88 4d f6	 mov	 BYTE PTR __k$[ebp+14], cl
  0013c	eb 4a		 jmp	 SHORT $LN1@LoadInt_e
$LN84@LoadInt_e:
  0013e	c6 45 f4 ed	 mov	 BYTE PTR __k$[ebp+12], -19 ; ffffffedH
  00142	eb 44		 jmp	 SHORT $LN1@LoadInt_e
$LN85@LoadInt_e:
  00144	c6 45 f3 ea	 mov	 BYTE PTR __k$[ebp+11], -22 ; ffffffeaH
  00148	eb 3e		 jmp	 SHORT $LN1@LoadInt_e
$LN86@LoadInt_e:
  0014a	88 4d f2	 mov	 BYTE PTR __k$[ebp+10], cl
  0014d	eb 39		 jmp	 SHORT $LN1@LoadInt_e
$LN87@LoadInt_e:
  0014f	c6 45 f1 ec	 mov	 BYTE PTR __k$[ebp+9], -20 ; ffffffecH
  00153	eb 33		 jmp	 SHORT $LN1@LoadInt_e
$LN88@LoadInt_e:
  00155	c6 45 f0 ed	 mov	 BYTE PTR __k$[ebp+8], -19 ; ffffffedH
  00159	eb 2d		 jmp	 SHORT $LN1@LoadInt_e
$LN89@LoadInt_e:
  0015b	c6 45 ef ea	 mov	 BYTE PTR __k$[ebp+7], -22 ; ffffffeaH
  0015f	eb 27		 jmp	 SHORT $LN1@LoadInt_e
$LN90@LoadInt_e:
  00161	88 4d ee	 mov	 BYTE PTR __k$[ebp+6], cl
  00164	eb 22		 jmp	 SHORT $LN1@LoadInt_e
$LN91@LoadInt_e:
  00166	c6 45 ed ec	 mov	 BYTE PTR __k$[ebp+5], -20 ; ffffffecH
  0016a	eb 1c		 jmp	 SHORT $LN1@LoadInt_e
$LN92@LoadInt_e:
  0016c	c6 45 ec ed	 mov	 BYTE PTR __k$[ebp+4], -19 ; ffffffedH
  00170	eb 16		 jmp	 SHORT $LN1@LoadInt_e
$LN93@LoadInt_e:
  00172	c6 45 eb ea	 mov	 BYTE PTR __k$[ebp+3], -22 ; ffffffeaH
  00176	eb 10		 jmp	 SHORT $LN1@LoadInt_e
$LN94@LoadInt_e:
  00178	c6 45 ea eb	 mov	 BYTE PTR __k$[ebp+2], -21 ; ffffffebH
  0017c	eb 0a		 jmp	 SHORT $LN1@LoadInt_e
$LN95@LoadInt_e:
  0017e	c6 45 e9 ec	 mov	 BYTE PTR __k$[ebp+1], -20 ; ffffffecH
  00182	eb 04		 jmp	 SHORT $LN1@LoadInt_e
$LN96@LoadInt_e:
  00184	c6 45 e8 ed	 mov	 BYTE PTR __k$[ebp], -19	; ffffffedH
$LN1@LoadInt_e:
  00188	6a 03		 push	 3
  0018a	8d 45 e8	 lea	 eax, DWORD PTR __k$[ebp]
  0018d	c6 45 f5 00	 mov	 BYTE PTR __k$[ebp+13], 0
  00191	5a		 pop	 edx
$LL104@LoadInt_e:
  00192	81 30 ed ec eb
	ea		 xor	 DWORD PTR [eax], -353637139 ; eaebecedH
  00198	83 c0 04	 add	 eax, 4
  0019b	4a		 dec	 edx
  0019c	75 f4		 jne	 SHORT $LL104@LoadInt_e

; 120  : 		return LoadInt(_k, i);

  0019e	ff 75 0c	 push	 DWORD PTR _i$[ebp]
  001a1	80 75 f4 ed	 xor	 BYTE PTR __k$[ebp+12], -19 ; ffffffedH
  001a5	8d 45 e8	 lea	 eax, DWORD PTR __k$[ebp]
  001a8	50		 push	 eax
  001a9	8b ce		 mov	 ecx, esi
  001ab	ff 15 00 00 00
	00		 call	 DWORD PTR __imp_?LoadInt@ioINILoader@@QAEHPBDH@Z

; 121  : 	}

  001b1	8b 4d fc	 mov	 ecx, DWORD PTR __$ArrayPad$[ebp]
  001b4	33 cd		 xor	 ecx, ebp
  001b6	5e		 pop	 esi
  001b7	e8 00 00 00 00	 call	 @__security_check_cookie@4
  001bc	c9		 leave
  001bd	c2 08 00	 ret	 8
??$LoadInt_e@$0O@@ioINILoader@@QAEHAAY0O@$$CBDH@Z ENDP	; ioINILoader::LoadInt_e<14>
_TEXT	ENDS
PUBLIC	_this$GSCopy$
PUBLIC	__$ArrayPad$
PUBLIC	??$LoadString_e@$0N@@ioINILoader@@QAEXAAY0N@$$CBDAAY00$$CBDPADH@Z ; ioINILoader::LoadString_e<13>
EXTRN	__imp_?LoadStringA@ioINILoader@@QAEXPBD0PADH@Z:PROC
; Function compile flags: /Ogsp
;	COMDAT ??$LoadString_e@$0N@@ioINILoader@@QAEXAAY0N@$$CBDAAY00$$CBDPADH@Z
_TEXT	SEGMENT
_this$GSCopy$ = -28					; size = 4
__k$ = -24						; size = 13
__$ArrayPad$ = -4					; size = 4
_k$ = 8							; size = 4
_d$ = 12						; size = 4
_b$ = 16						; size = 4
_i$ = 20						; size = 4
??$LoadString_e@$0N@@ioINILoader@@QAEXAAY0N@$$CBDAAY00$$CBDPADH@Z PROC ; ioINILoader::LoadString_e<13>, COMDAT
; _this$ = ecx

; 161  : 	{

  00000	55		 push	 ebp
  00001	8b ec		 mov	 ebp, esp
  00003	83 ec 1c	 sub	 esp, 28			; 0000001cH
  00006	a1 00 00 00 00	 mov	 eax, DWORD PTR ___security_cookie
  0000b	33 c5		 xor	 eax, ebp
  0000d	89 45 fc	 mov	 DWORD PTR __$ArrayPad$[ebp], eax
  00010	8b 45 08	 mov	 eax, DWORD PTR _k$[ebp]

; 162  : 		_ENCSTR(k, _k);

  00013	8a 10		 mov	 dl, BYTE PTR [eax]
  00015	56		 push	 esi
  00016	8b 75 0c	 mov	 esi, DWORD PTR _d$[ebp]
  00019	57		 push	 edi
  0001a	8b 7d 10	 mov	 edi, DWORD PTR _b$[ebp]
  0001d	89 4d e4	 mov	 DWORD PTR _this$GSCopy$[ebp], ecx
  00020	84 d2		 test	 dl, dl
  00022	0f 84 4d 01 00
	00		 je	 $LN96@LoadString
  00028	80 f2 ed	 xor	 dl, -19			; ffffffedH
  0002b	88 55 e8	 mov	 BYTE PTR __k$[ebp], dl
  0002e	8a 50 01	 mov	 dl, BYTE PTR [eax+1]
  00031	84 d2		 test	 dl, dl
  00033	0f 84 36 01 00
	00		 je	 $LN95@LoadString
  00039	b1 ec		 mov	 cl, -20			; ffffffecH
  0003b	32 d1		 xor	 dl, cl
  0003d	88 55 e9	 mov	 BYTE PTR __k$[ebp+1], dl
  00040	8a 50 02	 mov	 dl, BYTE PTR [eax+2]
  00043	84 d2		 test	 dl, dl
  00045	0f 84 1e 01 00
	00		 je	 $LN94@LoadString
  0004b	80 f2 eb	 xor	 dl, -21			; ffffffebH
  0004e	88 55 ea	 mov	 BYTE PTR __k$[ebp+2], dl
  00051	8a 50 03	 mov	 dl, BYTE PTR [eax+3]
  00054	84 d2		 test	 dl, dl
  00056	0f 84 07 01 00
	00		 je	 $LN93@LoadString
  0005c	80 f2 ea	 xor	 dl, -22			; ffffffeaH
  0005f	88 55 eb	 mov	 BYTE PTR __k$[ebp+3], dl
  00062	8a 50 04	 mov	 dl, BYTE PTR [eax+4]
  00065	84 d2		 test	 dl, dl
  00067	0f 84 f0 00 00
	00		 je	 $LN92@LoadString
  0006d	80 f2 ed	 xor	 dl, -19			; ffffffedH
  00070	88 55 ec	 mov	 BYTE PTR __k$[ebp+4], dl
  00073	8a 50 05	 mov	 dl, BYTE PTR [eax+5]
  00076	84 d2		 test	 dl, dl
  00078	0f 84 da 00 00
	00		 je	 $LN91@LoadString
  0007e	32 d1		 xor	 dl, cl
  00080	88 55 ed	 mov	 BYTE PTR __k$[ebp+5], dl
  00083	8a 50 06	 mov	 dl, BYTE PTR [eax+6]
  00086	84 d2		 test	 dl, dl
  00088	0f 84 c4 00 00
	00		 je	 $LN90@LoadString
  0008e	80 f2 eb	 xor	 dl, -21			; ffffffebH
  00091	88 55 ee	 mov	 BYTE PTR __k$[ebp+6], dl
  00094	8a 50 07	 mov	 dl, BYTE PTR [eax+7]
  00097	84 d2		 test	 dl, dl
  00099	0f 84 ad 00 00
	00		 je	 $LN89@LoadString
  0009f	80 f2 ea	 xor	 dl, -22			; ffffffeaH
  000a2	88 55 ef	 mov	 BYTE PTR __k$[ebp+7], dl
  000a5	8a 50 08	 mov	 dl, BYTE PTR [eax+8]
  000a8	84 d2		 test	 dl, dl
  000aa	0f 84 96 00 00
	00		 je	 $LN88@LoadString
  000b0	80 f2 ed	 xor	 dl, -19			; ffffffedH
  000b3	88 55 f0	 mov	 BYTE PTR __k$[ebp+8], dl
  000b6	8a 50 09	 mov	 dl, BYTE PTR [eax+9]
  000b9	84 d2		 test	 dl, dl
  000bb	0f 84 80 00 00
	00		 je	 $LN87@LoadString
  000c1	32 d1		 xor	 dl, cl
  000c3	88 55 f1	 mov	 BYTE PTR __k$[ebp+9], dl
  000c6	8a 50 0a	 mov	 dl, BYTE PTR [eax+10]
  000c9	84 d2		 test	 dl, dl
  000cb	74 6e		 je	 SHORT $LN86@LoadString
  000cd	80 f2 eb	 xor	 dl, -21			; ffffffebH
  000d0	88 55 f2	 mov	 BYTE PTR __k$[ebp+10], dl
  000d3	8a 50 0b	 mov	 dl, BYTE PTR [eax+11]
  000d6	84 d2		 test	 dl, dl
  000d8	74 5b		 je	 SHORT $LN85@LoadString
  000da	80 f2 ea	 xor	 dl, -22			; ffffffeaH
  000dd	80 78 0c 00	 cmp	 BYTE PTR [eax+12], 0
  000e1	88 55 f3	 mov	 BYTE PTR __k$[ebp+11], dl
  000e4	0f 84 8f 00 00
	00		 je	 $LN111@LoadString
  000ea	8a 50 0d	 mov	 dl, BYTE PTR [eax+13]
  000ed	84 d2		 test	 dl, dl
  000ef	74 3f		 je	 SHORT $LN83@LoadString
  000f1	32 d1		 xor	 dl, cl
  000f3	88 55 f5	 mov	 BYTE PTR __k$[ebp+13], dl
  000f6	8a 50 0e	 mov	 dl, BYTE PTR [eax+14]
  000f9	84 d2		 test	 dl, dl
  000fb	74 2d		 je	 SHORT $LN82@LoadString
  000fd	80 f2 eb	 xor	 dl, -21			; ffffffebH
  00100	88 55 f6	 mov	 BYTE PTR __k$[ebp+14], dl
  00103	8a 50 0f	 mov	 dl, BYTE PTR [eax+15]
  00106	84 d2		 test	 dl, dl
  00108	74 1a		 je	 SHORT $LN81@LoadString
  0010a	8a 40 10	 mov	 al, BYTE PTR [eax+16]
  0010d	80 f2 ea	 xor	 dl, -22			; ffffffeaH
  00110	88 55 f7	 mov	 BYTE PTR __k$[ebp+15], dl
  00113	84 c0		 test	 al, al
  00115	74 07		 je	 SHORT $LN80@LoadString
  00117	34 ed		 xor	 al, -19			; ffffffedH
  00119	88 45 f8	 mov	 BYTE PTR __k$[ebp+16], al
  0011c	eb 5b		 jmp	 SHORT $LN111@LoadString
$LN80@LoadString:
  0011e	c6 45 f8 ed	 mov	 BYTE PTR __k$[ebp+16], -19 ; ffffffedH
  00122	eb 55		 jmp	 SHORT $LN111@LoadString
$LN81@LoadString:
  00124	c6 45 f7 ea	 mov	 BYTE PTR __k$[ebp+15], -22 ; ffffffeaH
  00128	eb 4f		 jmp	 SHORT $LN111@LoadString
$LN82@LoadString:
  0012a	c6 45 f6 eb	 mov	 BYTE PTR __k$[ebp+14], -21 ; ffffffebH
  0012e	eb 49		 jmp	 SHORT $LN111@LoadString
$LN83@LoadString:
  00130	88 4d f5	 mov	 BYTE PTR __k$[ebp+13], cl
  00133	eb 44		 jmp	 SHORT $LN111@LoadString
$LN85@LoadString:
  00135	c6 45 f3 ea	 mov	 BYTE PTR __k$[ebp+11], -22 ; ffffffeaH
  00139	eb 3e		 jmp	 SHORT $LN111@LoadString
$LN86@LoadString:
  0013b	c6 45 f2 eb	 mov	 BYTE PTR __k$[ebp+10], -21 ; ffffffebH
  0013f	eb 38		 jmp	 SHORT $LN111@LoadString
$LN87@LoadString:
  00141	88 4d f1	 mov	 BYTE PTR __k$[ebp+9], cl
  00144	eb 33		 jmp	 SHORT $LN111@LoadString
$LN88@LoadString:
  00146	c6 45 f0 ed	 mov	 BYTE PTR __k$[ebp+8], -19 ; ffffffedH
  0014a	eb 2d		 jmp	 SHORT $LN111@LoadString
$LN89@LoadString:
  0014c	c6 45 ef ea	 mov	 BYTE PTR __k$[ebp+7], -22 ; ffffffeaH
  00150	eb 27		 jmp	 SHORT $LN111@LoadString
$LN90@LoadString:
  00152	c6 45 ee eb	 mov	 BYTE PTR __k$[ebp+6], -21 ; ffffffebH
  00156	eb 21		 jmp	 SHORT $LN111@LoadString
$LN91@LoadString:
  00158	88 4d ed	 mov	 BYTE PTR __k$[ebp+5], cl
  0015b	eb 1c		 jmp	 SHORT $LN111@LoadString
$LN92@LoadString:
  0015d	c6 45 ec ed	 mov	 BYTE PTR __k$[ebp+4], -19 ; ffffffedH
  00161	eb 16		 jmp	 SHORT $LN111@LoadString
$LN93@LoadString:
  00163	c6 45 eb ea	 mov	 BYTE PTR __k$[ebp+3], -22 ; ffffffeaH
  00167	eb 10		 jmp	 SHORT $LN111@LoadString
$LN94@LoadString:
  00169	c6 45 ea eb	 mov	 BYTE PTR __k$[ebp+2], -21 ; ffffffebH
  0016d	eb 0a		 jmp	 SHORT $LN111@LoadString
$LN95@LoadString:
  0016f	c6 45 e9 ec	 mov	 BYTE PTR __k$[ebp+1], -20 ; ffffffecH
  00173	eb 04		 jmp	 SHORT $LN111@LoadString
$LN96@LoadString:
  00175	c6 45 e8 ed	 mov	 BYTE PTR __k$[ebp], -19	; ffffffedH
$LN111@LoadString:
  00179	6a 03		 push	 3
  0017b	8d 45 e8	 lea	 eax, DWORD PTR __k$[ebp]
  0017e	c6 45 f4 00	 mov	 BYTE PTR __k$[ebp+12], 0
  00182	5a		 pop	 edx
$LL104@LoadString:
  00183	81 30 ed ec eb
	ea		 xor	 DWORD PTR [eax], -353637139 ; eaebecedH
  00189	83 c0 04	 add	 eax, 4
  0018c	4a		 dec	 edx
  0018d	75 f4		 jne	 SHORT $LL104@LoadString

; 163  : 		LoadString(_k, d, b, i);

  0018f	ff 75 14	 push	 DWORD PTR _i$[ebp]
  00192	8b 4d e4	 mov	 ecx, DWORD PTR _this$GSCopy$[ebp]
  00195	57		 push	 edi
  00196	56		 push	 esi
  00197	8d 45 e8	 lea	 eax, DWORD PTR __k$[ebp]
  0019a	50		 push	 eax
  0019b	ff 15 00 00 00
	00		 call	 DWORD PTR __imp_?LoadStringA@ioINILoader@@QAEXPBD0PADH@Z

; 164  : 	}

  001a1	8b 4d fc	 mov	 ecx, DWORD PTR __$ArrayPad$[ebp]
  001a4	5f		 pop	 edi
  001a5	33 cd		 xor	 ecx, ebp
  001a7	5e		 pop	 esi
  001a8	e8 00 00 00 00	 call	 @__security_check_cookie@4
  001ad	c9		 leave
  001ae	c2 10 00	 ret	 16			; 00000010H
??$LoadString_e@$0N@@ioINILoader@@QAEXAAY0N@$$CBDAAY00$$CBDPADH@Z ENDP ; ioINILoader::LoadString_e<13>
_TEXT	ENDS
PUBLIC	__$ArrayPad$
PUBLIC	??$LoadInt_e@$0M@@ioINILoader@@QAEHAAY0M@$$CBDH@Z ; ioINILoader::LoadInt_e<12>
; Function compile flags: /Ogsp
;	COMDAT ??$LoadInt_e@$0M@@ioINILoader@@QAEHAAY0M@$$CBDH@Z
_TEXT	SEGMENT
__k$ = -20						; size = 12
__$ArrayPad$ = -4					; size = 4
_k$ = 8							; size = 4
_i$ = 12						; size = 4
??$LoadInt_e@$0M@@ioINILoader@@QAEHAAY0M@$$CBDH@Z PROC	; ioINILoader::LoadInt_e<12>, COMDAT
; _this$ = ecx

; 118  : 	{

  00000	55		 push	 ebp
  00001	8b ec		 mov	 ebp, esp
  00003	83 ec 14	 sub	 esp, 20			; 00000014H
  00006	a1 00 00 00 00	 mov	 eax, DWORD PTR ___security_cookie
  0000b	33 c5		 xor	 eax, ebp
  0000d	89 45 fc	 mov	 DWORD PTR __$ArrayPad$[ebp], eax
  00010	8b 45 08	 mov	 eax, DWORD PTR _k$[ebp]

; 119  : 		_ENCSTR(k, _k);

  00013	8a 10		 mov	 dl, BYTE PTR [eax]
  00015	56		 push	 esi
  00016	8b f1		 mov	 esi, ecx
  00018	84 d2		 test	 dl, dl
  0001a	0f 84 32 01 00
	00		 je	 $LN96@LoadInt_e@2
  00020	80 f2 ed	 xor	 dl, -19			; ffffffedH
  00023	88 55 ec	 mov	 BYTE PTR __k$[ebp], dl
  00026	8a 50 01	 mov	 dl, BYTE PTR [eax+1]
  00029	84 d2		 test	 dl, dl
  0002b	0f 84 1b 01 00
	00		 je	 $LN95@LoadInt_e@2
  00031	80 f2 ec	 xor	 dl, -20			; ffffffecH
  00034	88 55 ed	 mov	 BYTE PTR __k$[ebp+1], dl
  00037	8a 50 02	 mov	 dl, BYTE PTR [eax+2]
  0003a	84 d2		 test	 dl, dl
  0003c	0f 84 04 01 00
	00		 je	 $LN94@LoadInt_e@2
  00042	b1 eb		 mov	 cl, -21			; ffffffebH
  00044	32 d1		 xor	 dl, cl
  00046	88 55 ee	 mov	 BYTE PTR __k$[ebp+2], dl
  00049	8a 50 03	 mov	 dl, BYTE PTR [eax+3]
  0004c	84 d2		 test	 dl, dl
  0004e	0f 84 ec 00 00
	00		 je	 $LN93@LoadInt_e@2
  00054	80 f2 ea	 xor	 dl, -22			; ffffffeaH
  00057	88 55 ef	 mov	 BYTE PTR __k$[ebp+3], dl
  0005a	8a 50 04	 mov	 dl, BYTE PTR [eax+4]
  0005d	84 d2		 test	 dl, dl
  0005f	0f 84 d5 00 00
	00		 je	 $LN92@LoadInt_e@2
  00065	80 f2 ed	 xor	 dl, -19			; ffffffedH
  00068	88 55 f0	 mov	 BYTE PTR __k$[ebp+4], dl
  0006b	8a 50 05	 mov	 dl, BYTE PTR [eax+5]
  0006e	84 d2		 test	 dl, dl
  00070	0f 84 be 00 00
	00		 je	 $LN91@LoadInt_e@2
  00076	80 f2 ec	 xor	 dl, -20			; ffffffecH
  00079	88 55 f1	 mov	 BYTE PTR __k$[ebp+5], dl
  0007c	8a 50 06	 mov	 dl, BYTE PTR [eax+6]
  0007f	84 d2		 test	 dl, dl
  00081	0f 84 a8 00 00
	00		 je	 $LN90@LoadInt_e@2
  00087	32 d1		 xor	 dl, cl
  00089	88 55 f2	 mov	 BYTE PTR __k$[ebp+6], dl
  0008c	8a 50 07	 mov	 dl, BYTE PTR [eax+7]
  0008f	84 d2		 test	 dl, dl
  00091	0f 84 92 00 00
	00		 je	 $LN89@LoadInt_e@2
  00097	80 f2 ea	 xor	 dl, -22			; ffffffeaH
  0009a	88 55 f3	 mov	 BYTE PTR __k$[ebp+7], dl
  0009d	8a 50 08	 mov	 dl, BYTE PTR [eax+8]
  000a0	84 d2		 test	 dl, dl
  000a2	74 7f		 je	 SHORT $LN88@LoadInt_e@2
  000a4	80 f2 ed	 xor	 dl, -19			; ffffffedH
  000a7	88 55 f4	 mov	 BYTE PTR __k$[ebp+8], dl
  000aa	8a 50 09	 mov	 dl, BYTE PTR [eax+9]
  000ad	84 d2		 test	 dl, dl
  000af	74 6c		 je	 SHORT $LN87@LoadInt_e@2
  000b1	80 f2 ec	 xor	 dl, -20			; ffffffecH
  000b4	88 55 f5	 mov	 BYTE PTR __k$[ebp+9], dl
  000b7	8a 50 0a	 mov	 dl, BYTE PTR [eax+10]
  000ba	84 d2		 test	 dl, dl
  000bc	74 5a		 je	 SHORT $LN86@LoadInt_e@2
  000be	32 d1		 xor	 dl, cl
  000c0	80 78 0b 00	 cmp	 BYTE PTR [eax+11], 0
  000c4	88 55 f6	 mov	 BYTE PTR __k$[ebp+10], dl
  000c7	0f 84 89 00 00
	00		 je	 $LN1@LoadInt_e@2
  000cd	8a 50 0c	 mov	 dl, BYTE PTR [eax+12]
  000d0	84 d2		 test	 dl, dl
  000d2	74 3e		 je	 SHORT $LN84@LoadInt_e@2
  000d4	80 f2 ed	 xor	 dl, -19			; ffffffedH
  000d7	88 55 f8	 mov	 BYTE PTR __k$[ebp+12], dl
  000da	8a 50 0d	 mov	 dl, BYTE PTR [eax+13]
  000dd	84 d2		 test	 dl, dl
  000df	74 2b		 je	 SHORT $LN83@LoadInt_e@2
  000e1	80 f2 ec	 xor	 dl, -20			; ffffffecH
  000e4	88 55 f9	 mov	 BYTE PTR __k$[ebp+13], dl
  000e7	8a 50 0e	 mov	 dl, BYTE PTR [eax+14]
  000ea	84 d2		 test	 dl, dl
  000ec	74 19		 je	 SHORT $LN82@LoadInt_e@2
  000ee	8a 40 0f	 mov	 al, BYTE PTR [eax+15]
  000f1	32 d1		 xor	 dl, cl
  000f3	88 55 fa	 mov	 BYTE PTR __k$[ebp+14], dl
  000f6	84 c0		 test	 al, al
  000f8	74 07		 je	 SHORT $LN81@LoadInt_e@2
  000fa	34 ea		 xor	 al, -22			; ffffffeaH
  000fc	88 45 fb	 mov	 BYTE PTR __k$[ebp+15], al
  000ff	eb 55		 jmp	 SHORT $LN1@LoadInt_e@2
$LN81@LoadInt_e@2:
  00101	c6 45 fb ea	 mov	 BYTE PTR __k$[ebp+15], -22 ; ffffffeaH
  00105	eb 4f		 jmp	 SHORT $LN1@LoadInt_e@2
$LN82@LoadInt_e@2:
  00107	88 4d fa	 mov	 BYTE PTR __k$[ebp+14], cl
  0010a	eb 4a		 jmp	 SHORT $LN1@LoadInt_e@2
$LN83@LoadInt_e@2:
  0010c	c6 45 f9 ec	 mov	 BYTE PTR __k$[ebp+13], -20 ; ffffffecH
  00110	eb 44		 jmp	 SHORT $LN1@LoadInt_e@2
$LN84@LoadInt_e@2:
  00112	c6 45 f8 ed	 mov	 BYTE PTR __k$[ebp+12], -19 ; ffffffedH
  00116	eb 3e		 jmp	 SHORT $LN1@LoadInt_e@2
$LN86@LoadInt_e@2:
  00118	88 4d f6	 mov	 BYTE PTR __k$[ebp+10], cl
  0011b	eb 39		 jmp	 SHORT $LN1@LoadInt_e@2
$LN87@LoadInt_e@2:
  0011d	c6 45 f5 ec	 mov	 BYTE PTR __k$[ebp+9], -20 ; ffffffecH
  00121	eb 33		 jmp	 SHORT $LN1@LoadInt_e@2
$LN88@LoadInt_e@2:
  00123	c6 45 f4 ed	 mov	 BYTE PTR __k$[ebp+8], -19 ; ffffffedH
  00127	eb 2d		 jmp	 SHORT $LN1@LoadInt_e@2
$LN89@LoadInt_e@2:
  00129	c6 45 f3 ea	 mov	 BYTE PTR __k$[ebp+7], -22 ; ffffffeaH
  0012d	eb 27		 jmp	 SHORT $LN1@LoadInt_e@2
$LN90@LoadInt_e@2:
  0012f	88 4d f2	 mov	 BYTE PTR __k$[ebp+6], cl
  00132	eb 22		 jmp	 SHORT $LN1@LoadInt_e@2
$LN91@LoadInt_e@2:
  00134	c6 45 f1 ec	 mov	 BYTE PTR __k$[ebp+5], -20 ; ffffffecH
  00138	eb 1c		 jmp	 SHORT $LN1@LoadInt_e@2
$LN92@LoadInt_e@2:
  0013a	c6 45 f0 ed	 mov	 BYTE PTR __k$[ebp+4], -19 ; ffffffedH
  0013e	eb 16		 jmp	 SHORT $LN1@LoadInt_e@2
$LN93@LoadInt_e@2:
  00140	c6 45 ef ea	 mov	 BYTE PTR __k$[ebp+3], -22 ; ffffffeaH
  00144	eb 10		 jmp	 SHORT $LN1@LoadInt_e@2
$LN94@LoadInt_e@2:
  00146	c6 45 ee eb	 mov	 BYTE PTR __k$[ebp+2], -21 ; ffffffebH
  0014a	eb 0a		 jmp	 SHORT $LN1@LoadInt_e@2
$LN95@LoadInt_e@2:
  0014c	c6 45 ed ec	 mov	 BYTE PTR __k$[ebp+1], -20 ; ffffffecH
  00150	eb 04		 jmp	 SHORT $LN1@LoadInt_e@2
$LN96@LoadInt_e@2:
  00152	c6 45 ec ed	 mov	 BYTE PTR __k$[ebp], -19	; ffffffedH
$LN1@LoadInt_e@2:
  00156	6a 02		 push	 2
  00158	8d 45 ec	 lea	 eax, DWORD PTR __k$[ebp]
  0015b	c6 45 f7 00	 mov	 BYTE PTR __k$[ebp+11], 0
  0015f	5a		 pop	 edx
$LL104@LoadInt_e@2:
  00160	81 30 ed ec eb
	ea		 xor	 DWORD PTR [eax], -353637139 ; eaebecedH
  00166	83 c0 04	 add	 eax, 4
  00169	4a		 dec	 edx
  0016a	75 f4		 jne	 SHORT $LL104@LoadInt_e@2
  0016c	6a 08		 push	 8
  0016e	58		 pop	 eax
$LL101@LoadInt_e@2:
  0016f	8b c8		 mov	 ecx, eax
  00171	81 e1 03 00 00
	80		 and	 ecx, -2147483645	; 80000003H
  00177	79 05		 jns	 SHORT $LN111@LoadInt_e@2
  00179	49		 dec	 ecx
  0017a	83 c9 fc	 or	 ecx, -4			; fffffffcH
  0017d	41		 inc	 ecx
$LN111@LoadInt_e@2:
  0017e	b2 ed		 mov	 dl, -19			; ffffffedH
  00180	2a d1		 sub	 dl, cl
  00182	30 54 05 ec	 xor	 BYTE PTR __k$[ebp+eax], dl
  00186	40		 inc	 eax
  00187	83 f8 0b	 cmp	 eax, 11			; 0000000bH
  0018a	7c e3		 jl	 SHORT $LL101@LoadInt_e@2

; 120  : 		return LoadInt(_k, i);

  0018c	ff 75 0c	 push	 DWORD PTR _i$[ebp]
  0018f	8d 45 ec	 lea	 eax, DWORD PTR __k$[ebp]
  00192	50		 push	 eax
  00193	8b ce		 mov	 ecx, esi
  00195	ff 15 00 00 00
	00		 call	 DWORD PTR __imp_?LoadInt@ioINILoader@@QAEHPBDH@Z

; 121  : 	}

  0019b	8b 4d fc	 mov	 ecx, DWORD PTR __$ArrayPad$[ebp]
  0019e	33 cd		 xor	 ecx, ebp
  001a0	5e		 pop	 esi
  001a1	e8 00 00 00 00	 call	 @__security_check_cookie@4
  001a6	c9		 leave
  001a7	c2 08 00	 ret	 8
??$LoadInt_e@$0M@@ioINILoader@@QAEHAAY0M@$$CBDH@Z ENDP	; ioINILoader::LoadInt_e<12>
_TEXT	ENDS
PUBLIC	__$ArrayPad$
PUBLIC	??$LoadString_e@$0L@@ioINILoader@@QAEXAAY0L@$$CBDAAY00$$CBDPADH@Z ; ioINILoader::LoadString_e<11>
; Function compile flags: /Ogsp
;	COMDAT ??$LoadString_e@$0L@@ioINILoader@@QAEXAAY0L@$$CBDAAY00$$CBDPADH@Z
_TEXT	SEGMENT
__k$ = -20						; size = 11
__$ArrayPad$ = -4					; size = 4
_k$ = 8							; size = 4
_d$ = 12						; size = 4
_b$ = 16						; size = 4
_i$ = 20						; size = 4
??$LoadString_e@$0L@@ioINILoader@@QAEXAAY0L@$$CBDAAY00$$CBDPADH@Z PROC ; ioINILoader::LoadString_e<11>, COMDAT
; _this$ = ecx

; 161  : 	{

  00000	55		 push	 ebp
  00001	8b ec		 mov	 ebp, esp
  00003	83 ec 14	 sub	 esp, 20			; 00000014H
  00006	a1 00 00 00 00	 mov	 eax, DWORD PTR ___security_cookie
  0000b	33 c5		 xor	 eax, ebp
  0000d	89 45 fc	 mov	 DWORD PTR __$ArrayPad$[ebp], eax
  00010	8b 45 08	 mov	 eax, DWORD PTR _k$[ebp]

; 162  : 		_ENCSTR(k, _k);

  00013	8a 10		 mov	 dl, BYTE PTR [eax]
  00015	53		 push	 ebx
  00016	56		 push	 esi
  00017	8b 75 0c	 mov	 esi, DWORD PTR _d$[ebp]
  0001a	57		 push	 edi
  0001b	8b 7d 10	 mov	 edi, DWORD PTR _b$[ebp]
  0001e	84 d2		 test	 dl, dl
  00020	0f 84 1b 01 00
	00		 je	 $LN96@LoadString@2
  00026	80 f2 ed	 xor	 dl, -19			; ffffffedH
  00029	88 55 ec	 mov	 BYTE PTR __k$[ebp], dl
  0002c	8a 50 01	 mov	 dl, BYTE PTR [eax+1]
  0002f	84 d2		 test	 dl, dl
  00031	0f 84 04 01 00
	00		 je	 $LN95@LoadString@2
  00037	b3 ec		 mov	 bl, -20			; ffffffecH
  00039	32 d3		 xor	 dl, bl
  0003b	88 55 ed	 mov	 BYTE PTR __k$[ebp+1], dl
  0003e	8a 50 02	 mov	 dl, BYTE PTR [eax+2]
  00041	84 d2		 test	 dl, dl
  00043	0f 84 ec 00 00
	00		 je	 $LN94@LoadString@2
  00049	80 f2 eb	 xor	 dl, -21			; ffffffebH
  0004c	88 55 ee	 mov	 BYTE PTR __k$[ebp+2], dl
  0004f	8a 50 03	 mov	 dl, BYTE PTR [eax+3]
  00052	84 d2		 test	 dl, dl
  00054	0f 84 d5 00 00
	00		 je	 $LN93@LoadString@2
  0005a	80 f2 ea	 xor	 dl, -22			; ffffffeaH
  0005d	88 55 ef	 mov	 BYTE PTR __k$[ebp+3], dl
  00060	8a 50 04	 mov	 dl, BYTE PTR [eax+4]
  00063	84 d2		 test	 dl, dl
  00065	0f 84 be 00 00
	00		 je	 $LN92@LoadString@2
  0006b	80 f2 ed	 xor	 dl, -19			; ffffffedH
  0006e	88 55 f0	 mov	 BYTE PTR __k$[ebp+4], dl
  00071	8a 50 05	 mov	 dl, BYTE PTR [eax+5]
  00074	84 d2		 test	 dl, dl
  00076	0f 84 a8 00 00
	00		 je	 $LN91@LoadString@2
  0007c	32 d3		 xor	 dl, bl
  0007e	88 55 f1	 mov	 BYTE PTR __k$[ebp+5], dl
  00081	8a 50 06	 mov	 dl, BYTE PTR [eax+6]
  00084	84 d2		 test	 dl, dl
  00086	0f 84 92 00 00
	00		 je	 $LN90@LoadString@2
  0008c	80 f2 eb	 xor	 dl, -21			; ffffffebH
  0008f	88 55 f2	 mov	 BYTE PTR __k$[ebp+6], dl
  00092	8a 50 07	 mov	 dl, BYTE PTR [eax+7]
  00095	84 d2		 test	 dl, dl
  00097	74 7f		 je	 SHORT $LN89@LoadString@2
  00099	80 f2 ea	 xor	 dl, -22			; ffffffeaH
  0009c	88 55 f3	 mov	 BYTE PTR __k$[ebp+7], dl
  0009f	8a 50 08	 mov	 dl, BYTE PTR [eax+8]
  000a2	84 d2		 test	 dl, dl
  000a4	74 6c		 je	 SHORT $LN88@LoadString@2
  000a6	80 f2 ed	 xor	 dl, -19			; ffffffedH
  000a9	88 55 f4	 mov	 BYTE PTR __k$[ebp+8], dl
  000ac	8a 50 09	 mov	 dl, BYTE PTR [eax+9]
  000af	84 d2		 test	 dl, dl
  000b1	74 5a		 je	 SHORT $LN87@LoadString@2
  000b3	32 d3		 xor	 dl, bl
  000b5	80 78 0a 00	 cmp	 BYTE PTR [eax+10], 0
  000b9	88 55 f5	 mov	 BYTE PTR __k$[ebp+9], dl
  000bc	0f 84 83 00 00
	00		 je	 $LN1@LoadString@2
  000c2	8a 50 0b	 mov	 dl, BYTE PTR [eax+11]
  000c5	84 d2		 test	 dl, dl
  000c7	74 3e		 je	 SHORT $LN85@LoadString@2
  000c9	80 f2 ea	 xor	 dl, -22			; ffffffeaH
  000cc	88 55 f7	 mov	 BYTE PTR __k$[ebp+11], dl
  000cf	8a 50 0c	 mov	 dl, BYTE PTR [eax+12]
  000d2	84 d2		 test	 dl, dl
  000d4	74 2b		 je	 SHORT $LN84@LoadString@2
  000d6	80 f2 ed	 xor	 dl, -19			; ffffffedH
  000d9	88 55 f8	 mov	 BYTE PTR __k$[ebp+12], dl
  000dc	8a 50 0d	 mov	 dl, BYTE PTR [eax+13]
  000df	84 d2		 test	 dl, dl
  000e1	74 19		 je	 SHORT $LN83@LoadString@2
  000e3	8a 40 0e	 mov	 al, BYTE PTR [eax+14]
  000e6	32 d3		 xor	 dl, bl
  000e8	88 55 f9	 mov	 BYTE PTR __k$[ebp+13], dl
  000eb	84 c0		 test	 al, al
  000ed	74 07		 je	 SHORT $LN82@LoadString@2
  000ef	34 eb		 xor	 al, -21			; ffffffebH
  000f1	88 45 fa	 mov	 BYTE PTR __k$[ebp+14], al
  000f4	eb 4f		 jmp	 SHORT $LN1@LoadString@2
$LN82@LoadString@2:
  000f6	c6 45 fa eb	 mov	 BYTE PTR __k$[ebp+14], -21 ; ffffffebH
  000fa	eb 49		 jmp	 SHORT $LN1@LoadString@2
$LN83@LoadString@2:
  000fc	88 5d f9	 mov	 BYTE PTR __k$[ebp+13], bl
  000ff	eb 44		 jmp	 SHORT $LN1@LoadString@2
$LN84@LoadString@2:
  00101	c6 45 f8 ed	 mov	 BYTE PTR __k$[ebp+12], -19 ; ffffffedH
  00105	eb 3e		 jmp	 SHORT $LN1@LoadString@2
$LN85@LoadString@2:
  00107	c6 45 f7 ea	 mov	 BYTE PTR __k$[ebp+11], -22 ; ffffffeaH
  0010b	eb 38		 jmp	 SHORT $LN1@LoadString@2
$LN87@LoadString@2:
  0010d	88 5d f5	 mov	 BYTE PTR __k$[ebp+9], bl
  00110	eb 33		 jmp	 SHORT $LN1@LoadString@2
$LN88@LoadString@2:
  00112	c6 45 f4 ed	 mov	 BYTE PTR __k$[ebp+8], -19 ; ffffffedH
  00116	eb 2d		 jmp	 SHORT $LN1@LoadString@2
$LN89@LoadString@2:
  00118	c6 45 f3 ea	 mov	 BYTE PTR __k$[ebp+7], -22 ; ffffffeaH
  0011c	eb 27		 jmp	 SHORT $LN1@LoadString@2
$LN90@LoadString@2:
  0011e	c6 45 f2 eb	 mov	 BYTE PTR __k$[ebp+6], -21 ; ffffffebH
  00122	eb 21		 jmp	 SHORT $LN1@LoadString@2
$LN91@LoadString@2:
  00124	88 5d f1	 mov	 BYTE PTR __k$[ebp+5], bl
  00127	eb 1c		 jmp	 SHORT $LN1@LoadString@2
$LN92@LoadString@2:
  00129	c6 45 f0 ed	 mov	 BYTE PTR __k$[ebp+4], -19 ; ffffffedH
  0012d	eb 16		 jmp	 SHORT $LN1@LoadString@2
$LN93@LoadString@2:
  0012f	c6 45 ef ea	 mov	 BYTE PTR __k$[ebp+3], -22 ; ffffffeaH
  00133	eb 10		 jmp	 SHORT $LN1@LoadString@2
$LN94@LoadString@2:
  00135	c6 45 ee eb	 mov	 BYTE PTR __k$[ebp+2], -21 ; ffffffebH
  00139	eb 0a		 jmp	 SHORT $LN1@LoadString@2
$LN95@LoadString@2:
  0013b	c6 45 ed ec	 mov	 BYTE PTR __k$[ebp+1], -20 ; ffffffecH
  0013f	eb 04		 jmp	 SHORT $LN1@LoadString@2
$LN96@LoadString@2:
  00141	c6 45 ec ed	 mov	 BYTE PTR __k$[ebp], -19	; ffffffedH
$LN1@LoadString@2:
  00145	6a 02		 push	 2
  00147	8d 45 ec	 lea	 eax, DWORD PTR __k$[ebp]
  0014a	c6 45 f6 00	 mov	 BYTE PTR __k$[ebp+10], 0
  0014e	5a		 pop	 edx
$LL104@LoadString@2:
  0014f	81 30 ed ec eb
	ea		 xor	 DWORD PTR [eax], -353637139 ; eaebecedH
  00155	83 c0 04	 add	 eax, 4
  00158	4a		 dec	 edx
  00159	75 f4		 jne	 SHORT $LL104@LoadString@2
  0015b	6a 08		 push	 8
  0015d	58		 pop	 eax
$LL101@LoadString@2:
  0015e	8b d0		 mov	 edx, eax
  00160	81 e2 03 00 00
	80		 and	 edx, -2147483645	; 80000003H
  00166	79 05		 jns	 SHORT $LN111@LoadString@2
  00168	4a		 dec	 edx
  00169	83 ca fc	 or	 edx, -4			; fffffffcH
  0016c	42		 inc	 edx
$LN111@LoadString@2:
  0016d	b3 ed		 mov	 bl, -19			; ffffffedH
  0016f	2a da		 sub	 bl, dl
  00171	30 5c 05 ec	 xor	 BYTE PTR __k$[ebp+eax], bl
  00175	40		 inc	 eax
  00176	83 f8 0a	 cmp	 eax, 10			; 0000000aH
  00179	7c e3		 jl	 SHORT $LL101@LoadString@2

; 163  : 		LoadString(_k, d, b, i);

  0017b	ff 75 14	 push	 DWORD PTR _i$[ebp]
  0017e	8d 45 ec	 lea	 eax, DWORD PTR __k$[ebp]
  00181	57		 push	 edi
  00182	56		 push	 esi
  00183	50		 push	 eax
  00184	ff 15 00 00 00
	00		 call	 DWORD PTR __imp_?LoadStringA@ioINILoader@@QAEXPBD0PADH@Z

; 164  : 	}

  0018a	8b 4d fc	 mov	 ecx, DWORD PTR __$ArrayPad$[ebp]
  0018d	5f		 pop	 edi
  0018e	5e		 pop	 esi
  0018f	33 cd		 xor	 ecx, ebp
  00191	5b		 pop	 ebx
  00192	e8 00 00 00 00	 call	 @__security_check_cookie@4
  00197	c9		 leave
  00198	c2 10 00	 ret	 16			; 00000010H
??$LoadString_e@$0L@@ioINILoader@@QAEXAAY0L@$$CBDAAY00$$CBDPADH@Z ENDP ; ioINILoader::LoadString_e<11>
_TEXT	ENDS
PUBLIC	__$ArrayPad$
PUBLIC	??$LoadFloat_e@$0BN@@ioINILoader@@QAEMAAY0BN@$$CBDM@Z ; ioINILoader::LoadFloat_e<29>
EXTRN	__imp_?LoadFloat@ioINILoader@@QAEMPBDM@Z:PROC
; Function compile flags: /Ogsp
;	COMDAT ??$LoadFloat_e@$0BN@@ioINILoader@@QAEMAAY0BN@$$CBDM@Z
_TEXT	SEGMENT
__k$ = -40						; size = 29
__$ArrayPad$ = -4					; size = 4
_k$ = 8							; size = 4
_f$ = 12						; size = 4
??$LoadFloat_e@$0BN@@ioINILoader@@QAEMAAY0BN@$$CBDM@Z PROC ; ioINILoader::LoadFloat_e<29>, COMDAT
; _this$ = ecx

; 135  : 	{

  00000	55		 push	 ebp
  00001	8b ec		 mov	 ebp, esp
  00003	83 ec 28	 sub	 esp, 40			; 00000028H
  00006	a1 00 00 00 00	 mov	 eax, DWORD PTR ___security_cookie
  0000b	33 c5		 xor	 eax, ebp
  0000d	89 45 fc	 mov	 DWORD PTR __$ArrayPad$[ebp], eax
  00010	8b 45 08	 mov	 eax, DWORD PTR _k$[ebp]

; 136  : 		_ENCSTR(k, _k);

  00013	8a 10		 mov	 dl, BYTE PTR [eax]
  00015	53		 push	 ebx
  00016	56		 push	 esi
  00017	8b f1		 mov	 esi, ecx
  00019	84 d2		 test	 dl, dl
  0001b	0f 84 c3 02 00
	00		 je	 $LN96@LoadFloat_
  00021	80 f2 ed	 xor	 dl, -19			; ffffffedH
  00024	88 55 d8	 mov	 BYTE PTR __k$[ebp], dl
  00027	8a 50 01	 mov	 dl, BYTE PTR [eax+1]
  0002a	84 d2		 test	 dl, dl
  0002c	0f 84 ac 02 00
	00		 je	 $LN95@LoadFloat_
  00032	b1 ec		 mov	 cl, -20			; ffffffecH
  00034	32 d1		 xor	 dl, cl
  00036	88 55 d9	 mov	 BYTE PTR __k$[ebp+1], dl
  00039	8a 50 02	 mov	 dl, BYTE PTR [eax+2]
  0003c	84 d2		 test	 dl, dl
  0003e	0f 84 94 02 00
	00		 je	 $LN94@LoadFloat_
  00044	b3 eb		 mov	 bl, -21			; ffffffebH
  00046	32 d3		 xor	 dl, bl
  00048	88 55 da	 mov	 BYTE PTR __k$[ebp+2], dl
  0004b	8a 50 03	 mov	 dl, BYTE PTR [eax+3]
  0004e	84 d2		 test	 dl, dl
  00050	0f 84 7c 02 00
	00		 je	 $LN93@LoadFloat_
  00056	80 f2 ea	 xor	 dl, -22			; ffffffeaH
  00059	88 55 db	 mov	 BYTE PTR __k$[ebp+3], dl
  0005c	8a 50 04	 mov	 dl, BYTE PTR [eax+4]
  0005f	84 d2		 test	 dl, dl
  00061	0f 84 65 02 00
	00		 je	 $LN92@LoadFloat_
  00067	80 f2 ed	 xor	 dl, -19			; ffffffedH
  0006a	88 55 dc	 mov	 BYTE PTR __k$[ebp+4], dl
  0006d	8a 50 05	 mov	 dl, BYTE PTR [eax+5]
  00070	84 d2		 test	 dl, dl
  00072	0f 84 4f 02 00
	00		 je	 $LN91@LoadFloat_
  00078	32 d1		 xor	 dl, cl
  0007a	88 55 dd	 mov	 BYTE PTR __k$[ebp+5], dl
  0007d	8a 50 06	 mov	 dl, BYTE PTR [eax+6]
  00080	84 d2		 test	 dl, dl
  00082	0f 84 3a 02 00
	00		 je	 $LN90@LoadFloat_
  00088	32 d3		 xor	 dl, bl
  0008a	88 55 de	 mov	 BYTE PTR __k$[ebp+6], dl
  0008d	8a 50 07	 mov	 dl, BYTE PTR [eax+7]
  00090	84 d2		 test	 dl, dl
  00092	0f 84 24 02 00
	00		 je	 $LN89@LoadFloat_
  00098	80 f2 ea	 xor	 dl, -22			; ffffffeaH
  0009b	88 55 df	 mov	 BYTE PTR __k$[ebp+7], dl
  0009e	8a 50 08	 mov	 dl, BYTE PTR [eax+8]
  000a1	84 d2		 test	 dl, dl
  000a3	0f 84 0d 02 00
	00		 je	 $LN88@LoadFloat_
  000a9	80 f2 ed	 xor	 dl, -19			; ffffffedH
  000ac	88 55 e0	 mov	 BYTE PTR __k$[ebp+8], dl
  000af	8a 50 09	 mov	 dl, BYTE PTR [eax+9]
  000b2	84 d2		 test	 dl, dl
  000b4	0f 84 f7 01 00
	00		 je	 $LN87@LoadFloat_
  000ba	32 d1		 xor	 dl, cl
  000bc	88 55 e1	 mov	 BYTE PTR __k$[ebp+9], dl
  000bf	8a 50 0a	 mov	 dl, BYTE PTR [eax+10]
  000c2	84 d2		 test	 dl, dl
  000c4	0f 84 e2 01 00
	00		 je	 $LN86@LoadFloat_
  000ca	32 d3		 xor	 dl, bl
  000cc	88 55 e2	 mov	 BYTE PTR __k$[ebp+10], dl
  000cf	8a 50 0b	 mov	 dl, BYTE PTR [eax+11]
  000d2	84 d2		 test	 dl, dl
  000d4	0f 84 cc 01 00
	00		 je	 $LN85@LoadFloat_
  000da	80 f2 ea	 xor	 dl, -22			; ffffffeaH
  000dd	88 55 e3	 mov	 BYTE PTR __k$[ebp+11], dl
  000e0	8a 50 0c	 mov	 dl, BYTE PTR [eax+12]
  000e3	84 d2		 test	 dl, dl
  000e5	0f 84 b5 01 00
	00		 je	 $LN84@LoadFloat_
  000eb	80 f2 ed	 xor	 dl, -19			; ffffffedH
  000ee	88 55 e4	 mov	 BYTE PTR __k$[ebp+12], dl
  000f1	8a 50 0d	 mov	 dl, BYTE PTR [eax+13]
  000f4	84 d2		 test	 dl, dl
  000f6	0f 84 9f 01 00
	00		 je	 $LN83@LoadFloat_
  000fc	32 d1		 xor	 dl, cl
  000fe	88 55 e5	 mov	 BYTE PTR __k$[ebp+13], dl
  00101	8a 50 0e	 mov	 dl, BYTE PTR [eax+14]
  00104	84 d2		 test	 dl, dl
  00106	0f 84 8a 01 00
	00		 je	 $LN82@LoadFloat_
  0010c	32 d3		 xor	 dl, bl
  0010e	88 55 e6	 mov	 BYTE PTR __k$[ebp+14], dl
  00111	8a 50 0f	 mov	 dl, BYTE PTR [eax+15]
  00114	84 d2		 test	 dl, dl
  00116	0f 84 74 01 00
	00		 je	 $LN81@LoadFloat_
  0011c	80 f2 ea	 xor	 dl, -22			; ffffffeaH
  0011f	88 55 e7	 mov	 BYTE PTR __k$[ebp+15], dl
  00122	8a 50 10	 mov	 dl, BYTE PTR [eax+16]
  00125	84 d2		 test	 dl, dl
  00127	0f 84 5d 01 00
	00		 je	 $LN80@LoadFloat_
  0012d	80 f2 ed	 xor	 dl, -19			; ffffffedH
  00130	88 55 e8	 mov	 BYTE PTR __k$[ebp+16], dl
  00133	8a 50 11	 mov	 dl, BYTE PTR [eax+17]
  00136	84 d2		 test	 dl, dl
  00138	0f 84 47 01 00
	00		 je	 $LN79@LoadFloat_
  0013e	32 d1		 xor	 dl, cl
  00140	88 55 e9	 mov	 BYTE PTR __k$[ebp+17], dl
  00143	8a 50 12	 mov	 dl, BYTE PTR [eax+18]
  00146	84 d2		 test	 dl, dl
  00148	0f 84 32 01 00
	00		 je	 $LN78@LoadFloat_
  0014e	32 d3		 xor	 dl, bl
  00150	88 55 ea	 mov	 BYTE PTR __k$[ebp+18], dl
  00153	8a 50 13	 mov	 dl, BYTE PTR [eax+19]
  00156	84 d2		 test	 dl, dl
  00158	0f 84 1c 01 00
	00		 je	 $LN77@LoadFloat_
  0015e	80 f2 ea	 xor	 dl, -22			; ffffffeaH
  00161	88 55 eb	 mov	 BYTE PTR __k$[ebp+19], dl
  00164	8a 50 14	 mov	 dl, BYTE PTR [eax+20]
  00167	84 d2		 test	 dl, dl
  00169	0f 84 05 01 00
	00		 je	 $LN76@LoadFloat_
  0016f	80 f2 ed	 xor	 dl, -19			; ffffffedH
  00172	88 55 ec	 mov	 BYTE PTR __k$[ebp+20], dl
  00175	8a 50 15	 mov	 dl, BYTE PTR [eax+21]
  00178	84 d2		 test	 dl, dl
  0017a	0f 84 ef 00 00
	00		 je	 $LN75@LoadFloat_
  00180	32 d1		 xor	 dl, cl
  00182	88 55 ed	 mov	 BYTE PTR __k$[ebp+21], dl
  00185	8a 50 16	 mov	 dl, BYTE PTR [eax+22]
  00188	84 d2		 test	 dl, dl
  0018a	0f 84 da 00 00
	00		 je	 $LN74@LoadFloat_
  00190	32 d3		 xor	 dl, bl
  00192	88 55 ee	 mov	 BYTE PTR __k$[ebp+22], dl
  00195	8a 50 17	 mov	 dl, BYTE PTR [eax+23]
  00198	84 d2		 test	 dl, dl
  0019a	0f 84 c4 00 00
	00		 je	 $LN73@LoadFloat_
  001a0	80 f2 ea	 xor	 dl, -22			; ffffffeaH
  001a3	88 55 ef	 mov	 BYTE PTR __k$[ebp+23], dl
  001a6	8a 50 18	 mov	 dl, BYTE PTR [eax+24]
  001a9	84 d2		 test	 dl, dl
  001ab	0f 84 aa 00 00
	00		 je	 $LN72@LoadFloat_
  001b1	80 f2 ed	 xor	 dl, -19			; ffffffedH
  001b4	88 55 f0	 mov	 BYTE PTR __k$[ebp+24], dl
  001b7	8a 50 19	 mov	 dl, BYTE PTR [eax+25]
  001ba	84 d2		 test	 dl, dl
  001bc	0f 84 91 00 00
	00		 je	 $LN71@LoadFloat_
  001c2	32 d1		 xor	 dl, cl
  001c4	88 55 f1	 mov	 BYTE PTR __k$[ebp+25], dl
  001c7	8a 50 1a	 mov	 dl, BYTE PTR [eax+26]
  001ca	84 d2		 test	 dl, dl
  001cc	74 7d		 je	 SHORT $LN70@LoadFloat_
  001ce	32 d3		 xor	 dl, bl
  001d0	88 55 f2	 mov	 BYTE PTR __k$[ebp+26], dl
  001d3	8a 50 1b	 mov	 dl, BYTE PTR [eax+27]
  001d6	84 d2		 test	 dl, dl
  001d8	74 68		 je	 SHORT $LN69@LoadFloat_
  001da	80 f2 ea	 xor	 dl, -22			; ffffffeaH
  001dd	80 78 1c 00	 cmp	 BYTE PTR [eax+28], 0
  001e1	88 55 f3	 mov	 BYTE PTR __k$[ebp+27], dl
  001e4	0f 84 fe 00 00
	00		 je	 $LN1@LoadFloat_
  001ea	8a 50 1d	 mov	 dl, BYTE PTR [eax+29]
  001ed	84 d2		 test	 dl, dl
  001ef	74 49		 je	 SHORT $LN67@LoadFloat_
  001f1	32 d1		 xor	 dl, cl
  001f3	88 55 f5	 mov	 BYTE PTR __k$[ebp+29], dl
  001f6	8a 50 1e	 mov	 dl, BYTE PTR [eax+30]
  001f9	84 d2		 test	 dl, dl
  001fb	74 35		 je	 SHORT $LN66@LoadFloat_
  001fd	32 d3		 xor	 dl, bl
  001ff	88 55 f6	 mov	 BYTE PTR __k$[ebp+30], dl
  00202	8a 50 1f	 mov	 dl, BYTE PTR [eax+31]
  00205	84 d2		 test	 dl, dl
  00207	74 20		 je	 SHORT $LN65@LoadFloat_
  00209	8a 40 20	 mov	 al, BYTE PTR [eax+32]
  0020c	80 f2 ea	 xor	 dl, -22			; ffffffeaH
  0020f	88 55 f7	 mov	 BYTE PTR __k$[ebp+31], dl
  00212	84 c0		 test	 al, al
  00214	74 0a		 je	 SHORT $LN64@LoadFloat_
  00216	34 ed		 xor	 al, -19			; ffffffedH
  00218	88 45 f8	 mov	 BYTE PTR __k$[ebp+32], al
  0021b	e9 c8 00 00 00	 jmp	 $LN1@LoadFloat_
$LN64@LoadFloat_:
  00220	c6 45 f8 ed	 mov	 BYTE PTR __k$[ebp+32], -19 ; ffffffedH
  00224	e9 bf 00 00 00	 jmp	 $LN1@LoadFloat_
$LN65@LoadFloat_:
  00229	c6 45 f7 ea	 mov	 BYTE PTR __k$[ebp+31], -22 ; ffffffeaH
  0022d	e9 b6 00 00 00	 jmp	 $LN1@LoadFloat_
$LN66@LoadFloat_:
  00232	88 5d f6	 mov	 BYTE PTR __k$[ebp+30], bl
  00235	e9 ae 00 00 00	 jmp	 $LN1@LoadFloat_
$LN67@LoadFloat_:
  0023a	88 4d f5	 mov	 BYTE PTR __k$[ebp+29], cl
  0023d	e9 a6 00 00 00	 jmp	 $LN1@LoadFloat_
$LN69@LoadFloat_:
  00242	c6 45 f3 ea	 mov	 BYTE PTR __k$[ebp+27], -22 ; ffffffeaH
  00246	e9 9d 00 00 00	 jmp	 $LN1@LoadFloat_
$LN70@LoadFloat_:
  0024b	88 5d f2	 mov	 BYTE PTR __k$[ebp+26], bl
  0024e	e9 95 00 00 00	 jmp	 $LN1@LoadFloat_
$LN71@LoadFloat_:
  00253	88 4d f1	 mov	 BYTE PTR __k$[ebp+25], cl
  00256	e9 8d 00 00 00	 jmp	 $LN1@LoadFloat_
$LN72@LoadFloat_:
  0025b	c6 45 f0 ed	 mov	 BYTE PTR __k$[ebp+24], -19 ; ffffffedH
  0025f	e9 84 00 00 00	 jmp	 $LN1@LoadFloat_
$LN73@LoadFloat_:
  00264	c6 45 ef ea	 mov	 BYTE PTR __k$[ebp+23], -22 ; ffffffeaH
  00268	eb 7e		 jmp	 SHORT $LN1@LoadFloat_
$LN74@LoadFloat_:
  0026a	88 5d ee	 mov	 BYTE PTR __k$[ebp+22], bl
  0026d	eb 79		 jmp	 SHORT $LN1@LoadFloat_
$LN75@LoadFloat_:
  0026f	88 4d ed	 mov	 BYTE PTR __k$[ebp+21], cl
  00272	eb 74		 jmp	 SHORT $LN1@LoadFloat_
$LN76@LoadFloat_:
  00274	c6 45 ec ed	 mov	 BYTE PTR __k$[ebp+20], -19 ; ffffffedH
  00278	eb 6e		 jmp	 SHORT $LN1@LoadFloat_
$LN77@LoadFloat_:
  0027a	c6 45 eb ea	 mov	 BYTE PTR __k$[ebp+19], -22 ; ffffffeaH
  0027e	eb 68		 jmp	 SHORT $LN1@LoadFloat_
$LN78@LoadFloat_:
  00280	88 5d ea	 mov	 BYTE PTR __k$[ebp+18], bl
  00283	eb 63		 jmp	 SHORT $LN1@LoadFloat_
$LN79@LoadFloat_:
  00285	88 4d e9	 mov	 BYTE PTR __k$[ebp+17], cl
  00288	eb 5e		 jmp	 SHORT $LN1@LoadFloat_
$LN80@LoadFloat_:
  0028a	c6 45 e8 ed	 mov	 BYTE PTR __k$[ebp+16], -19 ; ffffffedH
  0028e	eb 58		 jmp	 SHORT $LN1@LoadFloat_
$LN81@LoadFloat_:
  00290	c6 45 e7 ea	 mov	 BYTE PTR __k$[ebp+15], -22 ; ffffffeaH
  00294	eb 52		 jmp	 SHORT $LN1@LoadFloat_
$LN82@LoadFloat_:
  00296	88 5d e6	 mov	 BYTE PTR __k$[ebp+14], bl
  00299	eb 4d		 jmp	 SHORT $LN1@LoadFloat_
$LN83@LoadFloat_:
  0029b	88 4d e5	 mov	 BYTE PTR __k$[ebp+13], cl
  0029e	eb 48		 jmp	 SHORT $LN1@LoadFloat_
$LN84@LoadFloat_:
  002a0	c6 45 e4 ed	 mov	 BYTE PTR __k$[ebp+12], -19 ; ffffffedH
  002a4	eb 42		 jmp	 SHORT $LN1@LoadFloat_
$LN85@LoadFloat_:
  002a6	c6 45 e3 ea	 mov	 BYTE PTR __k$[ebp+11], -22 ; ffffffeaH
  002aa	eb 3c		 jmp	 SHORT $LN1@LoadFloat_
$LN86@LoadFloat_:
  002ac	88 5d e2	 mov	 BYTE PTR __k$[ebp+10], bl
  002af	eb 37		 jmp	 SHORT $LN1@LoadFloat_
$LN87@LoadFloat_:
  002b1	88 4d e1	 mov	 BYTE PTR __k$[ebp+9], cl
  002b4	eb 32		 jmp	 SHORT $LN1@LoadFloat_
$LN88@LoadFloat_:
  002b6	c6 45 e0 ed	 mov	 BYTE PTR __k$[ebp+8], -19 ; ffffffedH
  002ba	eb 2c		 jmp	 SHORT $LN1@LoadFloat_
$LN89@LoadFloat_:
  002bc	c6 45 df ea	 mov	 BYTE PTR __k$[ebp+7], -22 ; ffffffeaH
  002c0	eb 26		 jmp	 SHORT $LN1@LoadFloat_
$LN90@LoadFloat_:
  002c2	88 5d de	 mov	 BYTE PTR __k$[ebp+6], bl
  002c5	eb 21		 jmp	 SHORT $LN1@LoadFloat_
$LN91@LoadFloat_:
  002c7	88 4d dd	 mov	 BYTE PTR __k$[ebp+5], cl
  002ca	eb 1c		 jmp	 SHORT $LN1@LoadFloat_
$LN92@LoadFloat_:
  002cc	c6 45 dc ed	 mov	 BYTE PTR __k$[ebp+4], -19 ; ffffffedH
  002d0	eb 16		 jmp	 SHORT $LN1@LoadFloat_
$LN93@LoadFloat_:
  002d2	c6 45 db ea	 mov	 BYTE PTR __k$[ebp+3], -22 ; ffffffeaH
  002d6	eb 10		 jmp	 SHORT $LN1@LoadFloat_
$LN94@LoadFloat_:
  002d8	c6 45 da eb	 mov	 BYTE PTR __k$[ebp+2], -21 ; ffffffebH
  002dc	eb 0a		 jmp	 SHORT $LN1@LoadFloat_
$LN95@LoadFloat_:
  002de	c6 45 d9 ec	 mov	 BYTE PTR __k$[ebp+1], -20 ; ffffffecH
  002e2	eb 04		 jmp	 SHORT $LN1@LoadFloat_
$LN96@LoadFloat_:
  002e4	c6 45 d8 ed	 mov	 BYTE PTR __k$[ebp], -19	; ffffffedH
$LN1@LoadFloat_:
  002e8	6a 07		 push	 7
  002ea	8d 45 d8	 lea	 eax, DWORD PTR __k$[ebp]
  002ed	c6 45 f4 00	 mov	 BYTE PTR __k$[ebp+28], 0
  002f1	5a		 pop	 edx
$LL104@LoadFloat_:
  002f2	81 30 ed ec eb
	ea		 xor	 DWORD PTR [eax], -353637139 ; eaebecedH
  002f8	83 c0 04	 add	 eax, 4
  002fb	4a		 dec	 edx
  002fc	75 f4		 jne	 SHORT $LL104@LoadFloat_

; 137  : 		return LoadFloat(_k, f);

  002fe	f3 0f 10 45 0c	 movss	 xmm0, DWORD PTR _f$[ebp]
  00303	51		 push	 ecx
  00304	8d 45 d8	 lea	 eax, DWORD PTR __k$[ebp]
  00307	f3 0f 11 04 24	 movss	 DWORD PTR [esp], xmm0
  0030c	50		 push	 eax
  0030d	8b ce		 mov	 ecx, esi
  0030f	ff 15 00 00 00
	00		 call	 DWORD PTR __imp_?LoadFloat@ioINILoader@@QAEMPBDM@Z

; 138  : 	}

  00315	8b 4d fc	 mov	 ecx, DWORD PTR __$ArrayPad$[ebp]
  00318	5e		 pop	 esi
  00319	33 cd		 xor	 ecx, ebp
  0031b	5b		 pop	 ebx
  0031c	e8 00 00 00 00	 call	 @__security_check_cookie@4
  00321	c9		 leave
  00322	c2 08 00	 ret	 8
??$LoadFloat_e@$0BN@@ioINILoader@@QAEMAAY0BN@$$CBDM@Z ENDP ; ioINILoader::LoadFloat_e<29>
_TEXT	ENDS
PUBLIC	__$ArrayPad$
PUBLIC	??$LoadFloat_e@$0BM@@ioINILoader@@QAEMAAY0BM@$$CBDM@Z ; ioINILoader::LoadFloat_e<28>
; Function compile flags: /Ogsp
;	COMDAT ??$LoadFloat_e@$0BM@@ioINILoader@@QAEMAAY0BM@$$CBDM@Z
_TEXT	SEGMENT
__k$ = -36						; size = 28
__$ArrayPad$ = -4					; size = 4
_k$ = 8							; size = 4
_f$ = 12						; size = 4
??$LoadFloat_e@$0BM@@ioINILoader@@QAEMAAY0BM@$$CBDM@Z PROC ; ioINILoader::LoadFloat_e<28>, COMDAT
; _this$ = ecx

; 135  : 	{

  00000	55		 push	 ebp
  00001	8b ec		 mov	 ebp, esp
  00003	83 ec 24	 sub	 esp, 36			; 00000024H
  00006	a1 00 00 00 00	 mov	 eax, DWORD PTR ___security_cookie
  0000b	33 c5		 xor	 eax, ebp
  0000d	89 45 fc	 mov	 DWORD PTR __$ArrayPad$[ebp], eax
  00010	8b 45 08	 mov	 eax, DWORD PTR _k$[ebp]

; 136  : 		_ENCSTR(k, _k);

  00013	8a 10		 mov	 dl, BYTE PTR [eax]
  00015	53		 push	 ebx
  00016	56		 push	 esi
  00017	8b f1		 mov	 esi, ecx
  00019	84 d2		 test	 dl, dl
  0001b	0f 84 a9 02 00
	00		 je	 $LN96@LoadFloat_@2
  00021	80 f2 ed	 xor	 dl, -19			; ffffffedH
  00024	88 55 dc	 mov	 BYTE PTR __k$[ebp], dl
  00027	8a 50 01	 mov	 dl, BYTE PTR [eax+1]
  0002a	84 d2		 test	 dl, dl
  0002c	0f 84 92 02 00
	00		 je	 $LN95@LoadFloat_@2
  00032	b3 ec		 mov	 bl, -20			; ffffffecH
  00034	32 d3		 xor	 dl, bl
  00036	88 55 dd	 mov	 BYTE PTR __k$[ebp+1], dl
  00039	8a 50 02	 mov	 dl, BYTE PTR [eax+2]
  0003c	84 d2		 test	 dl, dl
  0003e	0f 84 7a 02 00
	00		 je	 $LN94@LoadFloat_@2
  00044	b1 eb		 mov	 cl, -21			; ffffffebH
  00046	32 d1		 xor	 dl, cl
  00048	88 55 de	 mov	 BYTE PTR __k$[ebp+2], dl
  0004b	8a 50 03	 mov	 dl, BYTE PTR [eax+3]
  0004e	84 d2		 test	 dl, dl
  00050	0f 84 62 02 00
	00		 je	 $LN93@LoadFloat_@2
  00056	80 f2 ea	 xor	 dl, -22			; ffffffeaH
  00059	88 55 df	 mov	 BYTE PTR __k$[ebp+3], dl
  0005c	8a 50 04	 mov	 dl, BYTE PTR [eax+4]
  0005f	84 d2		 test	 dl, dl
  00061	0f 84 4b 02 00
	00		 je	 $LN92@LoadFloat_@2
  00067	80 f2 ed	 xor	 dl, -19			; ffffffedH
  0006a	88 55 e0	 mov	 BYTE PTR __k$[ebp+4], dl
  0006d	8a 50 05	 mov	 dl, BYTE PTR [eax+5]
  00070	84 d2		 test	 dl, dl
  00072	0f 84 35 02 00
	00		 je	 $LN91@LoadFloat_@2
  00078	32 d3		 xor	 dl, bl
  0007a	88 55 e1	 mov	 BYTE PTR __k$[ebp+5], dl
  0007d	8a 50 06	 mov	 dl, BYTE PTR [eax+6]
  00080	84 d2		 test	 dl, dl
  00082	0f 84 20 02 00
	00		 je	 $LN90@LoadFloat_@2
  00088	32 d1		 xor	 dl, cl
  0008a	88 55 e2	 mov	 BYTE PTR __k$[ebp+6], dl
  0008d	8a 50 07	 mov	 dl, BYTE PTR [eax+7]
  00090	84 d2		 test	 dl, dl
  00092	0f 84 0a 02 00
	00		 je	 $LN89@LoadFloat_@2
  00098	80 f2 ea	 xor	 dl, -22			; ffffffeaH
  0009b	88 55 e3	 mov	 BYTE PTR __k$[ebp+7], dl
  0009e	8a 50 08	 mov	 dl, BYTE PTR [eax+8]
  000a1	84 d2		 test	 dl, dl
  000a3	0f 84 f3 01 00
	00		 je	 $LN88@LoadFloat_@2
  000a9	80 f2 ed	 xor	 dl, -19			; ffffffedH
  000ac	88 55 e4	 mov	 BYTE PTR __k$[ebp+8], dl
  000af	8a 50 09	 mov	 dl, BYTE PTR [eax+9]
  000b2	84 d2		 test	 dl, dl
  000b4	0f 84 dd 01 00
	00		 je	 $LN87@LoadFloat_@2
  000ba	32 d3		 xor	 dl, bl
  000bc	88 55 e5	 mov	 BYTE PTR __k$[ebp+9], dl
  000bf	8a 50 0a	 mov	 dl, BYTE PTR [eax+10]
  000c2	84 d2		 test	 dl, dl
  000c4	0f 84 c8 01 00
	00		 je	 $LN86@LoadFloat_@2
  000ca	32 d1		 xor	 dl, cl
  000cc	88 55 e6	 mov	 BYTE PTR __k$[ebp+10], dl
  000cf	8a 50 0b	 mov	 dl, BYTE PTR [eax+11]
  000d2	84 d2		 test	 dl, dl
  000d4	0f 84 b2 01 00
	00		 je	 $LN85@LoadFloat_@2
  000da	80 f2 ea	 xor	 dl, -22			; ffffffeaH
  000dd	88 55 e7	 mov	 BYTE PTR __k$[ebp+11], dl
  000e0	8a 50 0c	 mov	 dl, BYTE PTR [eax+12]
  000e3	84 d2		 test	 dl, dl
  000e5	0f 84 9b 01 00
	00		 je	 $LN84@LoadFloat_@2
  000eb	80 f2 ed	 xor	 dl, -19			; ffffffedH
  000ee	88 55 e8	 mov	 BYTE PTR __k$[ebp+12], dl
  000f1	8a 50 0d	 mov	 dl, BYTE PTR [eax+13]
  000f4	84 d2		 test	 dl, dl
  000f6	0f 84 85 01 00
	00		 je	 $LN83@LoadFloat_@2
  000fc	32 d3		 xor	 dl, bl
  000fe	88 55 e9	 mov	 BYTE PTR __k$[ebp+13], dl
  00101	8a 50 0e	 mov	 dl, BYTE PTR [eax+14]
  00104	84 d2		 test	 dl, dl
  00106	0f 84 70 01 00
	00		 je	 $LN82@LoadFloat_@2
  0010c	32 d1		 xor	 dl, cl
  0010e	88 55 ea	 mov	 BYTE PTR __k$[ebp+14], dl
  00111	8a 50 0f	 mov	 dl, BYTE PTR [eax+15]
  00114	84 d2		 test	 dl, dl
  00116	0f 84 5a 01 00
	00		 je	 $LN81@LoadFloat_@2
  0011c	80 f2 ea	 xor	 dl, -22			; ffffffeaH
  0011f	88 55 eb	 mov	 BYTE PTR __k$[ebp+15], dl
  00122	8a 50 10	 mov	 dl, BYTE PTR [eax+16]
  00125	84 d2		 test	 dl, dl
  00127	0f 84 43 01 00
	00		 je	 $LN80@LoadFloat_@2
  0012d	80 f2 ed	 xor	 dl, -19			; ffffffedH
  00130	88 55 ec	 mov	 BYTE PTR __k$[ebp+16], dl
  00133	8a 50 11	 mov	 dl, BYTE PTR [eax+17]
  00136	84 d2		 test	 dl, dl
  00138	0f 84 2d 01 00
	00		 je	 $LN79@LoadFloat_@2
  0013e	32 d3		 xor	 dl, bl
  00140	88 55 ed	 mov	 BYTE PTR __k$[ebp+17], dl
  00143	8a 50 12	 mov	 dl, BYTE PTR [eax+18]
  00146	84 d2		 test	 dl, dl
  00148	0f 84 18 01 00
	00		 je	 $LN78@LoadFloat_@2
  0014e	32 d1		 xor	 dl, cl
  00150	88 55 ee	 mov	 BYTE PTR __k$[ebp+18], dl
  00153	8a 50 13	 mov	 dl, BYTE PTR [eax+19]
  00156	84 d2		 test	 dl, dl
  00158	0f 84 02 01 00
	00		 je	 $LN77@LoadFloat_@2
  0015e	80 f2 ea	 xor	 dl, -22			; ffffffeaH
  00161	88 55 ef	 mov	 BYTE PTR __k$[ebp+19], dl
  00164	8a 50 14	 mov	 dl, BYTE PTR [eax+20]
  00167	84 d2		 test	 dl, dl
  00169	0f 84 eb 00 00
	00		 je	 $LN76@LoadFloat_@2
  0016f	80 f2 ed	 xor	 dl, -19			; ffffffedH
  00172	88 55 f0	 mov	 BYTE PTR __k$[ebp+20], dl
  00175	8a 50 15	 mov	 dl, BYTE PTR [eax+21]
  00178	84 d2		 test	 dl, dl
  0017a	0f 84 d5 00 00
	00		 je	 $LN75@LoadFloat_@2
  00180	32 d3		 xor	 dl, bl
  00182	88 55 f1	 mov	 BYTE PTR __k$[ebp+21], dl
  00185	8a 50 16	 mov	 dl, BYTE PTR [eax+22]
  00188	84 d2		 test	 dl, dl
  0018a	0f 84 c0 00 00
	00		 je	 $LN74@LoadFloat_@2
  00190	32 d1		 xor	 dl, cl
  00192	88 55 f2	 mov	 BYTE PTR __k$[ebp+22], dl
  00195	8a 50 17	 mov	 dl, BYTE PTR [eax+23]
  00198	84 d2		 test	 dl, dl
  0019a	0f 84 aa 00 00
	00		 je	 $LN73@LoadFloat_@2
  001a0	80 f2 ea	 xor	 dl, -22			; ffffffeaH
  001a3	88 55 f3	 mov	 BYTE PTR __k$[ebp+23], dl
  001a6	8a 50 18	 mov	 dl, BYTE PTR [eax+24]
  001a9	84 d2		 test	 dl, dl
  001ab	0f 84 90 00 00
	00		 je	 $LN72@LoadFloat_@2
  001b1	80 f2 ed	 xor	 dl, -19			; ffffffedH
  001b4	88 55 f4	 mov	 BYTE PTR __k$[ebp+24], dl
  001b7	8a 50 19	 mov	 dl, BYTE PTR [eax+25]
  001ba	84 d2		 test	 dl, dl
  001bc	74 7b		 je	 SHORT $LN71@LoadFloat_@2
  001be	32 d3		 xor	 dl, bl
  001c0	88 55 f5	 mov	 BYTE PTR __k$[ebp+25], dl
  001c3	8a 50 1a	 mov	 dl, BYTE PTR [eax+26]
  001c6	84 d2		 test	 dl, dl
  001c8	74 67		 je	 SHORT $LN70@LoadFloat_@2
  001ca	32 d1		 xor	 dl, cl
  001cc	80 78 1b 00	 cmp	 BYTE PTR [eax+27], 0
  001d0	88 55 f6	 mov	 BYTE PTR __k$[ebp+26], dl
  001d3	0f 84 f5 00 00
	00		 je	 $LN1@LoadFloat_@2
  001d9	8a 50 1c	 mov	 dl, BYTE PTR [eax+28]
  001dc	84 d2		 test	 dl, dl
  001de	74 48		 je	 SHORT $LN68@LoadFloat_@2
  001e0	80 f2 ed	 xor	 dl, -19			; ffffffedH
  001e3	88 55 f8	 mov	 BYTE PTR __k$[ebp+28], dl
  001e6	8a 50 1d	 mov	 dl, BYTE PTR [eax+29]
  001e9	84 d2		 test	 dl, dl
  001eb	74 33		 je	 SHORT $LN67@LoadFloat_@2
  001ed	32 d3		 xor	 dl, bl
  001ef	88 55 f9	 mov	 BYTE PTR __k$[ebp+29], dl
  001f2	8a 50 1e	 mov	 dl, BYTE PTR [eax+30]
  001f5	84 d2		 test	 dl, dl
  001f7	74 1f		 je	 SHORT $LN66@LoadFloat_@2
  001f9	8a 40 1f	 mov	 al, BYTE PTR [eax+31]
  001fc	32 d1		 xor	 dl, cl
  001fe	88 55 fa	 mov	 BYTE PTR __k$[ebp+30], dl
  00201	84 c0		 test	 al, al
  00203	74 0a		 je	 SHORT $LN65@LoadFloat_@2
  00205	34 ea		 xor	 al, -22			; ffffffeaH
  00207	88 45 fb	 mov	 BYTE PTR __k$[ebp+31], al
  0020a	e9 bf 00 00 00	 jmp	 $LN1@LoadFloat_@2
$LN65@LoadFloat_@2:
  0020f	c6 45 fb ea	 mov	 BYTE PTR __k$[ebp+31], -22 ; ffffffeaH
  00213	e9 b6 00 00 00	 jmp	 $LN1@LoadFloat_@2
$LN66@LoadFloat_@2:
  00218	88 4d fa	 mov	 BYTE PTR __k$[ebp+30], cl
  0021b	e9 ae 00 00 00	 jmp	 $LN1@LoadFloat_@2
$LN67@LoadFloat_@2:
  00220	88 5d f9	 mov	 BYTE PTR __k$[ebp+29], bl
  00223	e9 a6 00 00 00	 jmp	 $LN1@LoadFloat_@2
$LN68@LoadFloat_@2:
  00228	c6 45 f8 ed	 mov	 BYTE PTR __k$[ebp+28], -19 ; ffffffedH
  0022c	e9 9d 00 00 00	 jmp	 $LN1@LoadFloat_@2
$LN70@LoadFloat_@2:
  00231	88 4d f6	 mov	 BYTE PTR __k$[ebp+26], cl
  00234	e9 95 00 00 00	 jmp	 $LN1@LoadFloat_@2
$LN71@LoadFloat_@2:
  00239	88 5d f5	 mov	 BYTE PTR __k$[ebp+25], bl
  0023c	e9 8d 00 00 00	 jmp	 $LN1@LoadFloat_@2
$LN72@LoadFloat_@2:
  00241	c6 45 f4 ed	 mov	 BYTE PTR __k$[ebp+24], -19 ; ffffffedH
  00245	e9 84 00 00 00	 jmp	 $LN1@LoadFloat_@2
$LN73@LoadFloat_@2:
  0024a	c6 45 f3 ea	 mov	 BYTE PTR __k$[ebp+23], -22 ; ffffffeaH
  0024e	eb 7e		 jmp	 SHORT $LN1@LoadFloat_@2
$LN74@LoadFloat_@2:
  00250	88 4d f2	 mov	 BYTE PTR __k$[ebp+22], cl
  00253	eb 79		 jmp	 SHORT $LN1@LoadFloat_@2
$LN75@LoadFloat_@2:
  00255	88 5d f1	 mov	 BYTE PTR __k$[ebp+21], bl
  00258	eb 74		 jmp	 SHORT $LN1@LoadFloat_@2
$LN76@LoadFloat_@2:
  0025a	c6 45 f0 ed	 mov	 BYTE PTR __k$[ebp+20], -19 ; ffffffedH
  0025e	eb 6e		 jmp	 SHORT $LN1@LoadFloat_@2
$LN77@LoadFloat_@2:
  00260	c6 45 ef ea	 mov	 BYTE PTR __k$[ebp+19], -22 ; ffffffeaH
  00264	eb 68		 jmp	 SHORT $LN1@LoadFloat_@2
$LN78@LoadFloat_@2:
  00266	88 4d ee	 mov	 BYTE PTR __k$[ebp+18], cl
  00269	eb 63		 jmp	 SHORT $LN1@LoadFloat_@2
$LN79@LoadFloat_@2:
  0026b	88 5d ed	 mov	 BYTE PTR __k$[ebp+17], bl
  0026e	eb 5e		 jmp	 SHORT $LN1@LoadFloat_@2
$LN80@LoadFloat_@2:
  00270	c6 45 ec ed	 mov	 BYTE PTR __k$[ebp+16], -19 ; ffffffedH
  00274	eb 58		 jmp	 SHORT $LN1@LoadFloat_@2
$LN81@LoadFloat_@2:
  00276	c6 45 eb ea	 mov	 BYTE PTR __k$[ebp+15], -22 ; ffffffeaH
  0027a	eb 52		 jmp	 SHORT $LN1@LoadFloat_@2
$LN82@LoadFloat_@2:
  0027c	88 4d ea	 mov	 BYTE PTR __k$[ebp+14], cl
  0027f	eb 4d		 jmp	 SHORT $LN1@LoadFloat_@2
$LN83@LoadFloat_@2:
  00281	88 5d e9	 mov	 BYTE PTR __k$[ebp+13], bl
  00284	eb 48		 jmp	 SHORT $LN1@LoadFloat_@2
$LN84@LoadFloat_@2:
  00286	c6 45 e8 ed	 mov	 BYTE PTR __k$[ebp+12], -19 ; ffffffedH
  0028a	eb 42		 jmp	 SHORT $LN1@LoadFloat_@2
$LN85@LoadFloat_@2:
  0028c	c6 45 e7 ea	 mov	 BYTE PTR __k$[ebp+11], -22 ; ffffffeaH
  00290	eb 3c		 jmp	 SHORT $LN1@LoadFloat_@2
$LN86@LoadFloat_@2:
  00292	88 4d e6	 mov	 BYTE PTR __k$[ebp+10], cl
  00295	eb 37		 jmp	 SHORT $LN1@LoadFloat_@2
$LN87@LoadFloat_@2:
  00297	88 5d e5	 mov	 BYTE PTR __k$[ebp+9], bl
  0029a	eb 32		 jmp	 SHORT $LN1@LoadFloat_@2
$LN88@LoadFloat_@2:
  0029c	c6 45 e4 ed	 mov	 BYTE PTR __k$[ebp+8], -19 ; ffffffedH
  002a0	eb 2c		 jmp	 SHORT $LN1@LoadFloat_@2
$LN89@LoadFloat_@2:
  002a2	c6 45 e3 ea	 mov	 BYTE PTR __k$[ebp+7], -22 ; ffffffeaH
  002a6	eb 26		 jmp	 SHORT $LN1@LoadFloat_@2
$LN90@LoadFloat_@2:
  002a8	88 4d e2	 mov	 BYTE PTR __k$[ebp+6], cl
  002ab	eb 21		 jmp	 SHORT $LN1@LoadFloat_@2
$LN91@LoadFloat_@2:
  002ad	88 5d e1	 mov	 BYTE PTR __k$[ebp+5], bl
  002b0	eb 1c		 jmp	 SHORT $LN1@LoadFloat_@2
$LN92@LoadFloat_@2:
  002b2	c6 45 e0 ed	 mov	 BYTE PTR __k$[ebp+4], -19 ; ffffffedH
  002b6	eb 16		 jmp	 SHORT $LN1@LoadFloat_@2
$LN93@LoadFloat_@2:
  002b8	c6 45 df ea	 mov	 BYTE PTR __k$[ebp+3], -22 ; ffffffeaH
  002bc	eb 10		 jmp	 SHORT $LN1@LoadFloat_@2
$LN94@LoadFloat_@2:
  002be	c6 45 de eb	 mov	 BYTE PTR __k$[ebp+2], -21 ; ffffffebH
  002c2	eb 0a		 jmp	 SHORT $LN1@LoadFloat_@2
$LN95@LoadFloat_@2:
  002c4	c6 45 dd ec	 mov	 BYTE PTR __k$[ebp+1], -20 ; ffffffecH
  002c8	eb 04		 jmp	 SHORT $LN1@LoadFloat_@2
$LN96@LoadFloat_@2:
  002ca	c6 45 dc ed	 mov	 BYTE PTR __k$[ebp], -19	; ffffffedH
$LN1@LoadFloat_@2:
  002ce	6a 06		 push	 6
  002d0	8d 45 dc	 lea	 eax, DWORD PTR __k$[ebp]
  002d3	c6 45 f7 00	 mov	 BYTE PTR __k$[ebp+27], 0
  002d7	5a		 pop	 edx
$LL104@LoadFloat_@2:
  002d8	81 30 ed ec eb
	ea		 xor	 DWORD PTR [eax], -353637139 ; eaebecedH
  002de	83 c0 04	 add	 eax, 4
  002e1	4a		 dec	 edx
  002e2	75 f4		 jne	 SHORT $LL104@LoadFloat_@2
  002e4	6a 18		 push	 24			; 00000018H
  002e6	58		 pop	 eax
$LL101@LoadFloat_@2:
  002e7	8b c8		 mov	 ecx, eax
  002e9	81 e1 03 00 00
	80		 and	 ecx, -2147483645	; 80000003H
  002ef	79 05		 jns	 SHORT $LN111@LoadFloat_@2
  002f1	49		 dec	 ecx
  002f2	83 c9 fc	 or	 ecx, -4			; fffffffcH
  002f5	41		 inc	 ecx
$LN111@LoadFloat_@2:
  002f6	b2 ed		 mov	 dl, -19			; ffffffedH
  002f8	2a d1		 sub	 dl, cl
  002fa	30 54 05 dc	 xor	 BYTE PTR __k$[ebp+eax], dl
  002fe	40		 inc	 eax
  002ff	83 f8 1b	 cmp	 eax, 27			; 0000001bH
  00302	7c e3		 jl	 SHORT $LL101@LoadFloat_@2

; 137  : 		return LoadFloat(_k, f);

  00304	f3 0f 10 45 0c	 movss	 xmm0, DWORD PTR _f$[ebp]
  00309	51		 push	 ecx
  0030a	8d 45 dc	 lea	 eax, DWORD PTR __k$[ebp]
  0030d	f3 0f 11 04 24	 movss	 DWORD PTR [esp], xmm0
  00312	50		 push	 eax
  00313	8b ce		 mov	 ecx, esi
  00315	ff 15 00 00 00
	00		 call	 DWORD PTR __imp_?LoadFloat@ioINILoader@@QAEMPBDM@Z

; 138  : 	}

  0031b	8b 4d fc	 mov	 ecx, DWORD PTR __$ArrayPad$[ebp]
  0031e	5e		 pop	 esi
  0031f	33 cd		 xor	 ecx, ebp
  00321	5b		 pop	 ebx
  00322	e8 00 00 00 00	 call	 @__security_check_cookie@4
  00327	c9		 leave
  00328	c2 08 00	 ret	 8
??$LoadFloat_e@$0BM@@ioINILoader@@QAEMAAY0BM@$$CBDM@Z ENDP ; ioINILoader::LoadFloat_e<28>
_TEXT	ENDS
PUBLIC	__$ArrayPad$
PUBLIC	??$LoadInt_e@$0N@@ioINILoader@@QAEHAAY0N@$$CBDH@Z ; ioINILoader::LoadInt_e<13>
; Function compile flags: /Ogsp
;	COMDAT ??$LoadInt_e@$0N@@ioINILoader@@QAEHAAY0N@$$CBDH@Z
_TEXT	SEGMENT
__k$ = -24						; size = 13
__$ArrayPad$ = -4					; size = 4
_k$ = 8							; size = 4
_i$ = 12						; size = 4
??$LoadInt_e@$0N@@ioINILoader@@QAEHAAY0N@$$CBDH@Z PROC	; ioINILoader::LoadInt_e<13>, COMDAT
; _this$ = ecx

; 118  : 	{

  00000	55		 push	 ebp
  00001	8b ec		 mov	 ebp, esp
  00003	83 ec 18	 sub	 esp, 24			; 00000018H
  00006	a1 00 00 00 00	 mov	 eax, DWORD PTR ___security_cookie
  0000b	33 c5		 xor	 eax, ebp
  0000d	89 45 fc	 mov	 DWORD PTR __$ArrayPad$[ebp], eax
  00010	8b 45 08	 mov	 eax, DWORD PTR _k$[ebp]

; 119  : 		_ENCSTR(k, _k);

  00013	8a 10		 mov	 dl, BYTE PTR [eax]
  00015	56		 push	 esi
  00016	8b f1		 mov	 esi, ecx
  00018	84 d2		 test	 dl, dl
  0001a	0f 84 4d 01 00
	00		 je	 $LN96@LoadInt_e@3
  00020	80 f2 ed	 xor	 dl, -19			; ffffffedH
  00023	88 55 e8	 mov	 BYTE PTR __k$[ebp], dl
  00026	8a 50 01	 mov	 dl, BYTE PTR [eax+1]
  00029	84 d2		 test	 dl, dl
  0002b	0f 84 36 01 00
	00		 je	 $LN95@LoadInt_e@3
  00031	b1 ec		 mov	 cl, -20			; ffffffecH
  00033	32 d1		 xor	 dl, cl
  00035	88 55 e9	 mov	 BYTE PTR __k$[ebp+1], dl
  00038	8a 50 02	 mov	 dl, BYTE PTR [eax+2]
  0003b	84 d2		 test	 dl, dl
  0003d	0f 84 1e 01 00
	00		 je	 $LN94@LoadInt_e@3
  00043	80 f2 eb	 xor	 dl, -21			; ffffffebH
  00046	88 55 ea	 mov	 BYTE PTR __k$[ebp+2], dl
  00049	8a 50 03	 mov	 dl, BYTE PTR [eax+3]
  0004c	84 d2		 test	 dl, dl
  0004e	0f 84 07 01 00
	00		 je	 $LN93@LoadInt_e@3
  00054	80 f2 ea	 xor	 dl, -22			; ffffffeaH
  00057	88 55 eb	 mov	 BYTE PTR __k$[ebp+3], dl
  0005a	8a 50 04	 mov	 dl, BYTE PTR [eax+4]
  0005d	84 d2		 test	 dl, dl
  0005f	0f 84 f0 00 00
	00		 je	 $LN92@LoadInt_e@3
  00065	80 f2 ed	 xor	 dl, -19			; ffffffedH
  00068	88 55 ec	 mov	 BYTE PTR __k$[ebp+4], dl
  0006b	8a 50 05	 mov	 dl, BYTE PTR [eax+5]
  0006e	84 d2		 test	 dl, dl
  00070	0f 84 da 00 00
	00		 je	 $LN91@LoadInt_e@3
  00076	32 d1		 xor	 dl, cl
  00078	88 55 ed	 mov	 BYTE PTR __k$[ebp+5], dl
  0007b	8a 50 06	 mov	 dl, BYTE PTR [eax+6]
  0007e	84 d2		 test	 dl, dl
  00080	0f 84 c4 00 00
	00		 je	 $LN90@LoadInt_e@3
  00086	80 f2 eb	 xor	 dl, -21			; ffffffebH
  00089	88 55 ee	 mov	 BYTE PTR __k$[ebp+6], dl
  0008c	8a 50 07	 mov	 dl, BYTE PTR [eax+7]
  0008f	84 d2		 test	 dl, dl
  00091	0f 84 ad 00 00
	00		 je	 $LN89@LoadInt_e@3
  00097	80 f2 ea	 xor	 dl, -22			; ffffffeaH
  0009a	88 55 ef	 mov	 BYTE PTR __k$[ebp+7], dl
  0009d	8a 50 08	 mov	 dl, BYTE PTR [eax+8]
  000a0	84 d2		 test	 dl, dl
  000a2	0f 84 96 00 00
	00		 je	 $LN88@LoadInt_e@3
  000a8	80 f2 ed	 xor	 dl, -19			; ffffffedH
  000ab	88 55 f0	 mov	 BYTE PTR __k$[ebp+8], dl
  000ae	8a 50 09	 mov	 dl, BYTE PTR [eax+9]
  000b1	84 d2		 test	 dl, dl
  000b3	0f 84 80 00 00
	00		 je	 $LN87@LoadInt_e@3
  000b9	32 d1		 xor	 dl, cl
  000bb	88 55 f1	 mov	 BYTE PTR __k$[ebp+9], dl
  000be	8a 50 0a	 mov	 dl, BYTE PTR [eax+10]
  000c1	84 d2		 test	 dl, dl
  000c3	74 6e		 je	 SHORT $LN86@LoadInt_e@3
  000c5	80 f2 eb	 xor	 dl, -21			; ffffffebH
  000c8	88 55 f2	 mov	 BYTE PTR __k$[ebp+10], dl
  000cb	8a 50 0b	 mov	 dl, BYTE PTR [eax+11]
  000ce	84 d2		 test	 dl, dl
  000d0	74 5b		 je	 SHORT $LN85@LoadInt_e@3
  000d2	80 f2 ea	 xor	 dl, -22			; ffffffeaH
  000d5	80 78 0c 00	 cmp	 BYTE PTR [eax+12], 0
  000d9	88 55 f3	 mov	 BYTE PTR __k$[ebp+11], dl
  000dc	0f 84 8f 00 00
	00		 je	 $LN1@LoadInt_e@3
  000e2	8a 50 0d	 mov	 dl, BYTE PTR [eax+13]
  000e5	84 d2		 test	 dl, dl
  000e7	74 3f		 je	 SHORT $LN83@LoadInt_e@3
  000e9	32 d1		 xor	 dl, cl
  000eb	88 55 f5	 mov	 BYTE PTR __k$[ebp+13], dl
  000ee	8a 50 0e	 mov	 dl, BYTE PTR [eax+14]
  000f1	84 d2		 test	 dl, dl
  000f3	74 2d		 je	 SHORT $LN82@LoadInt_e@3
  000f5	80 f2 eb	 xor	 dl, -21			; ffffffebH
  000f8	88 55 f6	 mov	 BYTE PTR __k$[ebp+14], dl
  000fb	8a 50 0f	 mov	 dl, BYTE PTR [eax+15]
  000fe	84 d2		 test	 dl, dl
  00100	74 1a		 je	 SHORT $LN81@LoadInt_e@3
  00102	8a 40 10	 mov	 al, BYTE PTR [eax+16]
  00105	80 f2 ea	 xor	 dl, -22			; ffffffeaH
  00108	88 55 f7	 mov	 BYTE PTR __k$[ebp+15], dl
  0010b	84 c0		 test	 al, al
  0010d	74 07		 je	 SHORT $LN80@LoadInt_e@3
  0010f	34 ed		 xor	 al, -19			; ffffffedH
  00111	88 45 f8	 mov	 BYTE PTR __k$[ebp+16], al
  00114	eb 5b		 jmp	 SHORT $LN1@LoadInt_e@3
$LN80@LoadInt_e@3:
  00116	c6 45 f8 ed	 mov	 BYTE PTR __k$[ebp+16], -19 ; ffffffedH
  0011a	eb 55		 jmp	 SHORT $LN1@LoadInt_e@3
$LN81@LoadInt_e@3:
  0011c	c6 45 f7 ea	 mov	 BYTE PTR __k$[ebp+15], -22 ; ffffffeaH
  00120	eb 4f		 jmp	 SHORT $LN1@LoadInt_e@3
$LN82@LoadInt_e@3:
  00122	c6 45 f6 eb	 mov	 BYTE PTR __k$[ebp+14], -21 ; ffffffebH
  00126	eb 49		 jmp	 SHORT $LN1@LoadInt_e@3
$LN83@LoadInt_e@3:
  00128	88 4d f5	 mov	 BYTE PTR __k$[ebp+13], cl
  0012b	eb 44		 jmp	 SHORT $LN1@LoadInt_e@3
$LN85@LoadInt_e@3:
  0012d	c6 45 f3 ea	 mov	 BYTE PTR __k$[ebp+11], -22 ; ffffffeaH
  00131	eb 3e		 jmp	 SHORT $LN1@LoadInt_e@3
$LN86@LoadInt_e@3:
  00133	c6 45 f2 eb	 mov	 BYTE PTR __k$[ebp+10], -21 ; ffffffebH
  00137	eb 38		 jmp	 SHORT $LN1@LoadInt_e@3
$LN87@LoadInt_e@3:
  00139	88 4d f1	 mov	 BYTE PTR __k$[ebp+9], cl
  0013c	eb 33		 jmp	 SHORT $LN1@LoadInt_e@3
$LN88@LoadInt_e@3:
  0013e	c6 45 f0 ed	 mov	 BYTE PTR __k$[ebp+8], -19 ; ffffffedH
  00142	eb 2d		 jmp	 SHORT $LN1@LoadInt_e@3
$LN89@LoadInt_e@3:
  00144	c6 45 ef ea	 mov	 BYTE PTR __k$[ebp+7], -22 ; ffffffeaH
  00148	eb 27		 jmp	 SHORT $LN1@LoadInt_e@3
$LN90@LoadInt_e@3:
  0014a	c6 45 ee eb	 mov	 BYTE PTR __k$[ebp+6], -21 ; ffffffebH
  0014e	eb 21		 jmp	 SHORT $LN1@LoadInt_e@3
$LN91@LoadInt_e@3:
  00150	88 4d ed	 mov	 BYTE PTR __k$[ebp+5], cl
  00153	eb 1c		 jmp	 SHORT $LN1@LoadInt_e@3
$LN92@LoadInt_e@3:
  00155	c6 45 ec ed	 mov	 BYTE PTR __k$[ebp+4], -19 ; ffffffedH
  00159	eb 16		 jmp	 SHORT $LN1@LoadInt_e@3
$LN93@LoadInt_e@3:
  0015b	c6 45 eb ea	 mov	 BYTE PTR __k$[ebp+3], -22 ; ffffffeaH
  0015f	eb 10		 jmp	 SHORT $LN1@LoadInt_e@3
$LN94@LoadInt_e@3:
  00161	c6 45 ea eb	 mov	 BYTE PTR __k$[ebp+2], -21 ; ffffffebH
  00165	eb 0a		 jmp	 SHORT $LN1@LoadInt_e@3
$LN95@LoadInt_e@3:
  00167	c6 45 e9 ec	 mov	 BYTE PTR __k$[ebp+1], -20 ; ffffffecH
  0016b	eb 04		 jmp	 SHORT $LN1@LoadInt_e@3
$LN96@LoadInt_e@3:
  0016d	c6 45 e8 ed	 mov	 BYTE PTR __k$[ebp], -19	; ffffffedH
$LN1@LoadInt_e@3:
  00171	6a 03		 push	 3
  00173	8d 45 e8	 lea	 eax, DWORD PTR __k$[ebp]
  00176	c6 45 f4 00	 mov	 BYTE PTR __k$[ebp+12], 0
  0017a	5a		 pop	 edx
$LL104@LoadInt_e@3:
  0017b	81 30 ed ec eb
	ea		 xor	 DWORD PTR [eax], -353637139 ; eaebecedH
  00181	83 c0 04	 add	 eax, 4
  00184	4a		 dec	 edx
  00185	75 f4		 jne	 SHORT $LL104@LoadInt_e@3

; 120  : 		return LoadInt(_k, i);

  00187	ff 75 0c	 push	 DWORD PTR _i$[ebp]
  0018a	8d 45 e8	 lea	 eax, DWORD PTR __k$[ebp]
  0018d	50		 push	 eax
  0018e	8b ce		 mov	 ecx, esi
  00190	ff 15 00 00 00
	00		 call	 DWORD PTR __imp_?LoadInt@ioINILoader@@QAEHPBDH@Z

; 121  : 	}

  00196	8b 4d fc	 mov	 ecx, DWORD PTR __$ArrayPad$[ebp]
  00199	33 cd		 xor	 ecx, ebp
  0019b	5e		 pop	 esi
  0019c	e8 00 00 00 00	 call	 @__security_check_cookie@4
  001a1	c9		 leave
  001a2	c2 08 00	 ret	 8
??$LoadInt_e@$0N@@ioINILoader@@QAEHAAY0N@$$CBDH@Z ENDP	; ioINILoader::LoadInt_e<13>
_TEXT	ENDS
PUBLIC	__$ArrayPad$
PUBLIC	??$LoadFloat_e@$0BC@@ioINILoader@@QAEMAAY0BC@$$CBDM@Z ; ioINILoader::LoadFloat_e<18>
; Function compile flags: /Ogsp
;	COMDAT ??$LoadFloat_e@$0BC@@ioINILoader@@QAEMAAY0BC@$$CBDM@Z
_TEXT	SEGMENT
__k$ = -28						; size = 18
__$ArrayPad$ = -4					; size = 4
_k$ = 8							; size = 4
_f$ = 12						; size = 4
??$LoadFloat_e@$0BC@@ioINILoader@@QAEMAAY0BC@$$CBDM@Z PROC ; ioINILoader::LoadFloat_e<18>, COMDAT
; _this$ = ecx

; 135  : 	{

  00000	55		 push	 ebp
  00001	8b ec		 mov	 ebp, esp
  00003	83 ec 1c	 sub	 esp, 28			; 0000001cH
  00006	a1 00 00 00 00	 mov	 eax, DWORD PTR ___security_cookie
  0000b	33 c5		 xor	 eax, ebp
  0000d	89 45 fc	 mov	 DWORD PTR __$ArrayPad$[ebp], eax
  00010	8b 45 08	 mov	 eax, DWORD PTR _k$[ebp]

; 136  : 		_ENCSTR(k, _k);

  00013	8a 10		 mov	 dl, BYTE PTR [eax]
  00015	56		 push	 esi
  00016	8b f1		 mov	 esi, ecx
  00018	84 d2		 test	 dl, dl
  0001a	0f 84 be 01 00
	00		 je	 $LN96@LoadFloat_@3
  00020	80 f2 ed	 xor	 dl, -19			; ffffffedH
  00023	88 55 e4	 mov	 BYTE PTR __k$[ebp], dl
  00026	8a 50 01	 mov	 dl, BYTE PTR [eax+1]
  00029	84 d2		 test	 dl, dl
  0002b	0f 84 a7 01 00
	00		 je	 $LN95@LoadFloat_@3
  00031	80 f2 ec	 xor	 dl, -20			; ffffffecH
  00034	88 55 e5	 mov	 BYTE PTR __k$[ebp+1], dl
  00037	8a 50 02	 mov	 dl, BYTE PTR [eax+2]
  0003a	84 d2		 test	 dl, dl
  0003c	0f 84 90 01 00
	00		 je	 $LN94@LoadFloat_@3
  00042	b1 eb		 mov	 cl, -21			; ffffffebH
  00044	32 d1		 xor	 dl, cl
  00046	88 55 e6	 mov	 BYTE PTR __k$[ebp+2], dl
  00049	8a 50 03	 mov	 dl, BYTE PTR [eax+3]
  0004c	84 d2		 test	 dl, dl
  0004e	0f 84 78 01 00
	00		 je	 $LN93@LoadFloat_@3
  00054	80 f2 ea	 xor	 dl, -22			; ffffffeaH
  00057	88 55 e7	 mov	 BYTE PTR __k$[ebp+3], dl
  0005a	8a 50 04	 mov	 dl, BYTE PTR [eax+4]
  0005d	84 d2		 test	 dl, dl
  0005f	0f 84 61 01 00
	00		 je	 $LN92@LoadFloat_@3
  00065	80 f2 ed	 xor	 dl, -19			; ffffffedH
  00068	88 55 e8	 mov	 BYTE PTR __k$[ebp+4], dl
  0006b	8a 50 05	 mov	 dl, BYTE PTR [eax+5]
  0006e	84 d2		 test	 dl, dl
  00070	0f 84 4a 01 00
	00		 je	 $LN91@LoadFloat_@3
  00076	80 f2 ec	 xor	 dl, -20			; ffffffecH
  00079	88 55 e9	 mov	 BYTE PTR __k$[ebp+5], dl
  0007c	8a 50 06	 mov	 dl, BYTE PTR [eax+6]
  0007f	84 d2		 test	 dl, dl
  00081	0f 84 34 01 00
	00		 je	 $LN90@LoadFloat_@3
  00087	32 d1		 xor	 dl, cl
  00089	88 55 ea	 mov	 BYTE PTR __k$[ebp+6], dl
  0008c	8a 50 07	 mov	 dl, BYTE PTR [eax+7]
  0008f	84 d2		 test	 dl, dl
  00091	0f 84 1e 01 00
	00		 je	 $LN89@LoadFloat_@3
  00097	80 f2 ea	 xor	 dl, -22			; ffffffeaH
  0009a	88 55 eb	 mov	 BYTE PTR __k$[ebp+7], dl
  0009d	8a 50 08	 mov	 dl, BYTE PTR [eax+8]
  000a0	84 d2		 test	 dl, dl
  000a2	0f 84 07 01 00
	00		 je	 $LN88@LoadFloat_@3
  000a8	80 f2 ed	 xor	 dl, -19			; ffffffedH
  000ab	88 55 ec	 mov	 BYTE PTR __k$[ebp+8], dl
  000ae	8a 50 09	 mov	 dl, BYTE PTR [eax+9]
  000b1	84 d2		 test	 dl, dl
  000b3	0f 84 f0 00 00
	00		 je	 $LN87@LoadFloat_@3
  000b9	80 f2 ec	 xor	 dl, -20			; ffffffecH
  000bc	88 55 ed	 mov	 BYTE PTR __k$[ebp+9], dl
  000bf	8a 50 0a	 mov	 dl, BYTE PTR [eax+10]
  000c2	84 d2		 test	 dl, dl
  000c4	0f 84 da 00 00
	00		 je	 $LN86@LoadFloat_@3
  000ca	32 d1		 xor	 dl, cl
  000cc	88 55 ee	 mov	 BYTE PTR __k$[ebp+10], dl
  000cf	8a 50 0b	 mov	 dl, BYTE PTR [eax+11]
  000d2	84 d2		 test	 dl, dl
  000d4	0f 84 c4 00 00
	00		 je	 $LN85@LoadFloat_@3
  000da	80 f2 ea	 xor	 dl, -22			; ffffffeaH
  000dd	88 55 ef	 mov	 BYTE PTR __k$[ebp+11], dl
  000e0	8a 50 0c	 mov	 dl, BYTE PTR [eax+12]
  000e3	84 d2		 test	 dl, dl
  000e5	0f 84 ad 00 00
	00		 je	 $LN84@LoadFloat_@3
  000eb	80 f2 ed	 xor	 dl, -19			; ffffffedH
  000ee	88 55 f0	 mov	 BYTE PTR __k$[ebp+12], dl
  000f1	8a 50 0d	 mov	 dl, BYTE PTR [eax+13]
  000f4	84 d2		 test	 dl, dl
  000f6	0f 84 96 00 00
	00		 je	 $LN83@LoadFloat_@3
  000fc	80 f2 ec	 xor	 dl, -20			; ffffffecH
  000ff	88 55 f1	 mov	 BYTE PTR __k$[ebp+13], dl
  00102	8a 50 0e	 mov	 dl, BYTE PTR [eax+14]
  00105	84 d2		 test	 dl, dl
  00107	0f 84 80 00 00
	00		 je	 $LN82@LoadFloat_@3
  0010d	32 d1		 xor	 dl, cl
  0010f	88 55 f2	 mov	 BYTE PTR __k$[ebp+14], dl
  00112	8a 50 0f	 mov	 dl, BYTE PTR [eax+15]
  00115	84 d2		 test	 dl, dl
  00117	74 6e		 je	 SHORT $LN81@LoadFloat_@3
  00119	80 f2 ea	 xor	 dl, -22			; ffffffeaH
  0011c	88 55 f3	 mov	 BYTE PTR __k$[ebp+15], dl
  0011f	8a 50 10	 mov	 dl, BYTE PTR [eax+16]
  00122	84 d2		 test	 dl, dl
  00124	74 5b		 je	 SHORT $LN80@LoadFloat_@3
  00126	80 f2 ed	 xor	 dl, -19			; ffffffedH
  00129	80 78 11 00	 cmp	 BYTE PTR [eax+17], 0
  0012d	88 55 f4	 mov	 BYTE PTR __k$[ebp+16], dl
  00130	0f 84 ac 00 00
	00		 je	 $LN1@LoadFloat_@3
  00136	8a 50 12	 mov	 dl, BYTE PTR [eax+18]
  00139	84 d2		 test	 dl, dl
  0013b	74 3f		 je	 SHORT $LN78@LoadFloat_@3
  0013d	32 d1		 xor	 dl, cl
  0013f	88 55 f6	 mov	 BYTE PTR __k$[ebp+18], dl
  00142	8a 50 13	 mov	 dl, BYTE PTR [eax+19]
  00145	84 d2		 test	 dl, dl
  00147	74 2d		 je	 SHORT $LN77@LoadFloat_@3
  00149	80 f2 ea	 xor	 dl, -22			; ffffffeaH
  0014c	88 55 f7	 mov	 BYTE PTR __k$[ebp+19], dl
  0014f	8a 50 14	 mov	 dl, BYTE PTR [eax+20]
  00152	84 d2		 test	 dl, dl
  00154	74 1a		 je	 SHORT $LN76@LoadFloat_@3
  00156	8a 40 15	 mov	 al, BYTE PTR [eax+21]
  00159	80 f2 ed	 xor	 dl, -19			; ffffffedH
  0015c	88 55 f8	 mov	 BYTE PTR __k$[ebp+20], dl
  0015f	84 c0		 test	 al, al
  00161	74 07		 je	 SHORT $LN75@LoadFloat_@3
  00163	34 ec		 xor	 al, -20			; ffffffecH
  00165	88 45 f9	 mov	 BYTE PTR __k$[ebp+21], al
  00168	eb 78		 jmp	 SHORT $LN1@LoadFloat_@3
$LN75@LoadFloat_@3:
  0016a	c6 45 f9 ec	 mov	 BYTE PTR __k$[ebp+21], -20 ; ffffffecH
  0016e	eb 72		 jmp	 SHORT $LN1@LoadFloat_@3
$LN76@LoadFloat_@3:
  00170	c6 45 f8 ed	 mov	 BYTE PTR __k$[ebp+20], -19 ; ffffffedH
  00174	eb 6c		 jmp	 SHORT $LN1@LoadFloat_@3
$LN77@LoadFloat_@3:
  00176	c6 45 f7 ea	 mov	 BYTE PTR __k$[ebp+19], -22 ; ffffffeaH
  0017a	eb 66		 jmp	 SHORT $LN1@LoadFloat_@3
$LN78@LoadFloat_@3:
  0017c	88 4d f6	 mov	 BYTE PTR __k$[ebp+18], cl
  0017f	eb 61		 jmp	 SHORT $LN1@LoadFloat_@3
$LN80@LoadFloat_@3:
  00181	c6 45 f4 ed	 mov	 BYTE PTR __k$[ebp+16], -19 ; ffffffedH
  00185	eb 5b		 jmp	 SHORT $LN1@LoadFloat_@3
$LN81@LoadFloat_@3:
  00187	c6 45 f3 ea	 mov	 BYTE PTR __k$[ebp+15], -22 ; ffffffeaH
  0018b	eb 55		 jmp	 SHORT $LN1@LoadFloat_@3
$LN82@LoadFloat_@3:
  0018d	88 4d f2	 mov	 BYTE PTR __k$[ebp+14], cl
  00190	eb 50		 jmp	 SHORT $LN1@LoadFloat_@3
$LN83@LoadFloat_@3:
  00192	c6 45 f1 ec	 mov	 BYTE PTR __k$[ebp+13], -20 ; ffffffecH
  00196	eb 4a		 jmp	 SHORT $LN1@LoadFloat_@3
$LN84@LoadFloat_@3:
  00198	c6 45 f0 ed	 mov	 BYTE PTR __k$[ebp+12], -19 ; ffffffedH
  0019c	eb 44		 jmp	 SHORT $LN1@LoadFloat_@3
$LN85@LoadFloat_@3:
  0019e	c6 45 ef ea	 mov	 BYTE PTR __k$[ebp+11], -22 ; ffffffeaH
  001a2	eb 3e		 jmp	 SHORT $LN1@LoadFloat_@3
$LN86@LoadFloat_@3:
  001a4	88 4d ee	 mov	 BYTE PTR __k$[ebp+10], cl
  001a7	eb 39		 jmp	 SHORT $LN1@LoadFloat_@3
$LN87@LoadFloat_@3:
  001a9	c6 45 ed ec	 mov	 BYTE PTR __k$[ebp+9], -20 ; ffffffecH
  001ad	eb 33		 jmp	 SHORT $LN1@LoadFloat_@3
$LN88@LoadFloat_@3:
  001af	c6 45 ec ed	 mov	 BYTE PTR __k$[ebp+8], -19 ; ffffffedH
  001b3	eb 2d		 jmp	 SHORT $LN1@LoadFloat_@3
$LN89@LoadFloat_@3:
  001b5	c6 45 eb ea	 mov	 BYTE PTR __k$[ebp+7], -22 ; ffffffeaH
  001b9	eb 27		 jmp	 SHORT $LN1@LoadFloat_@3
$LN90@LoadFloat_@3:
  001bb	88 4d ea	 mov	 BYTE PTR __k$[ebp+6], cl
  001be	eb 22		 jmp	 SHORT $LN1@LoadFloat_@3
$LN91@LoadFloat_@3:
  001c0	c6 45 e9 ec	 mov	 BYTE PTR __k$[ebp+5], -20 ; ffffffecH
  001c4	eb 1c		 jmp	 SHORT $LN1@LoadFloat_@3
$LN92@LoadFloat_@3:
  001c6	c6 45 e8 ed	 mov	 BYTE PTR __k$[ebp+4], -19 ; ffffffedH
  001ca	eb 16		 jmp	 SHORT $LN1@LoadFloat_@3
$LN93@LoadFloat_@3:
  001cc	c6 45 e7 ea	 mov	 BYTE PTR __k$[ebp+3], -22 ; ffffffeaH
  001d0	eb 10		 jmp	 SHORT $LN1@LoadFloat_@3
$LN94@LoadFloat_@3:
  001d2	c6 45 e6 eb	 mov	 BYTE PTR __k$[ebp+2], -21 ; ffffffebH
  001d6	eb 0a		 jmp	 SHORT $LN1@LoadFloat_@3
$LN95@LoadFloat_@3:
  001d8	c6 45 e5 ec	 mov	 BYTE PTR __k$[ebp+1], -20 ; ffffffecH
  001dc	eb 04		 jmp	 SHORT $LN1@LoadFloat_@3
$LN96@LoadFloat_@3:
  001de	c6 45 e4 ed	 mov	 BYTE PTR __k$[ebp], -19	; ffffffedH
$LN1@LoadFloat_@3:
  001e2	6a 04		 push	 4
  001e4	8d 45 e4	 lea	 eax, DWORD PTR __k$[ebp]
  001e7	c6 45 f5 00	 mov	 BYTE PTR __k$[ebp+17], 0
  001eb	5a		 pop	 edx
$LL104@LoadFloat_@3:
  001ec	81 30 ed ec eb
	ea		 xor	 DWORD PTR [eax], -353637139 ; eaebecedH
  001f2	83 c0 04	 add	 eax, 4
  001f5	4a		 dec	 edx
  001f6	75 f4		 jne	 SHORT $LL104@LoadFloat_@3

; 137  : 		return LoadFloat(_k, f);

  001f8	f3 0f 10 45 0c	 movss	 xmm0, DWORD PTR _f$[ebp]
  001fd	80 75 f4 ed	 xor	 BYTE PTR __k$[ebp+16], -19 ; ffffffedH
  00201	51		 push	 ecx
  00202	8d 45 e4	 lea	 eax, DWORD PTR __k$[ebp]
  00205	f3 0f 11 04 24	 movss	 DWORD PTR [esp], xmm0
  0020a	50		 push	 eax
  0020b	8b ce		 mov	 ecx, esi
  0020d	ff 15 00 00 00
	00		 call	 DWORD PTR __imp_?LoadFloat@ioINILoader@@QAEMPBDM@Z

; 138  : 	}

  00213	8b 4d fc	 mov	 ecx, DWORD PTR __$ArrayPad$[ebp]
  00216	33 cd		 xor	 ecx, ebp
  00218	5e		 pop	 esi
  00219	e8 00 00 00 00	 call	 @__security_check_cookie@4
  0021e	c9		 leave
  0021f	c2 08 00	 ret	 8
??$LoadFloat_e@$0BC@@ioINILoader@@QAEMAAY0BC@$$CBDM@Z ENDP ; ioINILoader::LoadFloat_e<18>
_TEXT	ENDS
PUBLIC	__$ArrayPad$
PUBLIC	??$LoadInt_e@$0BI@@ioINILoader@@QAEHAAY0BI@$$CBDH@Z ; ioINILoader::LoadInt_e<24>
; Function compile flags: /Ogsp
;	COMDAT ??$LoadInt_e@$0BI@@ioINILoader@@QAEHAAY0BI@$$CBDH@Z
_TEXT	SEGMENT
__k$ = -32						; size = 24
__$ArrayPad$ = -4					; size = 4
_k$ = 8							; size = 4
_i$ = 12						; size = 4
??$LoadInt_e@$0BI@@ioINILoader@@QAEHAAY0BI@$$CBDH@Z PROC ; ioINILoader::LoadInt_e<24>, COMDAT
; _this$ = ecx

; 118  : 	{

  00000	55		 push	 ebp
  00001	8b ec		 mov	 ebp, esp
  00003	83 ec 20	 sub	 esp, 32			; 00000020H
  00006	a1 00 00 00 00	 mov	 eax, DWORD PTR ___security_cookie
  0000b	33 c5		 xor	 eax, ebp
  0000d	89 45 fc	 mov	 DWORD PTR __$ArrayPad$[ebp], eax
  00010	8b 45 08	 mov	 eax, DWORD PTR _k$[ebp]

; 119  : 		_ENCSTR(k, _k);

  00013	8a 10		 mov	 dl, BYTE PTR [eax]
  00015	53		 push	 ebx
  00016	56		 push	 esi
  00017	8b f1		 mov	 esi, ecx
  00019	84 d2		 test	 dl, dl
  0001b	0f 84 45 02 00
	00		 je	 $LN96@LoadInt_e@4
  00021	80 f2 ed	 xor	 dl, -19			; ffffffedH
  00024	88 55 e0	 mov	 BYTE PTR __k$[ebp], dl
  00027	8a 50 01	 mov	 dl, BYTE PTR [eax+1]
  0002a	84 d2		 test	 dl, dl
  0002c	0f 84 2e 02 00
	00		 je	 $LN95@LoadInt_e@4
  00032	b3 ec		 mov	 bl, -20			; ffffffecH
  00034	32 d3		 xor	 dl, bl
  00036	88 55 e1	 mov	 BYTE PTR __k$[ebp+1], dl
  00039	8a 50 02	 mov	 dl, BYTE PTR [eax+2]
  0003c	84 d2		 test	 dl, dl
  0003e	0f 84 16 02 00
	00		 je	 $LN94@LoadInt_e@4
  00044	b1 eb		 mov	 cl, -21			; ffffffebH
  00046	32 d1		 xor	 dl, cl
  00048	88 55 e2	 mov	 BYTE PTR __k$[ebp+2], dl
  0004b	8a 50 03	 mov	 dl, BYTE PTR [eax+3]
  0004e	84 d2		 test	 dl, dl
  00050	0f 84 fe 01 00
	00		 je	 $LN93@LoadInt_e@4
  00056	80 f2 ea	 xor	 dl, -22			; ffffffeaH
  00059	88 55 e3	 mov	 BYTE PTR __k$[ebp+3], dl
  0005c	8a 50 04	 mov	 dl, BYTE PTR [eax+4]
  0005f	84 d2		 test	 dl, dl
  00061	0f 84 e7 01 00
	00		 je	 $LN92@LoadInt_e@4
  00067	80 f2 ed	 xor	 dl, -19			; ffffffedH
  0006a	88 55 e4	 mov	 BYTE PTR __k$[ebp+4], dl
  0006d	8a 50 05	 mov	 dl, BYTE PTR [eax+5]
  00070	84 d2		 test	 dl, dl
  00072	0f 84 d1 01 00
	00		 je	 $LN91@LoadInt_e@4
  00078	32 d3		 xor	 dl, bl
  0007a	88 55 e5	 mov	 BYTE PTR __k$[ebp+5], dl
  0007d	8a 50 06	 mov	 dl, BYTE PTR [eax+6]
  00080	84 d2		 test	 dl, dl
  00082	0f 84 bc 01 00
	00		 je	 $LN90@LoadInt_e@4
  00088	32 d1		 xor	 dl, cl
  0008a	88 55 e6	 mov	 BYTE PTR __k$[ebp+6], dl
  0008d	8a 50 07	 mov	 dl, BYTE PTR [eax+7]
  00090	84 d2		 test	 dl, dl
  00092	0f 84 a6 01 00
	00		 je	 $LN89@LoadInt_e@4
  00098	80 f2 ea	 xor	 dl, -22			; ffffffeaH
  0009b	88 55 e7	 mov	 BYTE PTR __k$[ebp+7], dl
  0009e	8a 50 08	 mov	 dl, BYTE PTR [eax+8]
  000a1	84 d2		 test	 dl, dl
  000a3	0f 84 8f 01 00
	00		 je	 $LN88@LoadInt_e@4
  000a9	80 f2 ed	 xor	 dl, -19			; ffffffedH
  000ac	88 55 e8	 mov	 BYTE PTR __k$[ebp+8], dl
  000af	8a 50 09	 mov	 dl, BYTE PTR [eax+9]
  000b2	84 d2		 test	 dl, dl
  000b4	0f 84 79 01 00
	00		 je	 $LN87@LoadInt_e@4
  000ba	32 d3		 xor	 dl, bl
  000bc	88 55 e9	 mov	 BYTE PTR __k$[ebp+9], dl
  000bf	8a 50 0a	 mov	 dl, BYTE PTR [eax+10]
  000c2	84 d2		 test	 dl, dl
  000c4	0f 84 64 01 00
	00		 je	 $LN86@LoadInt_e@4
  000ca	32 d1		 xor	 dl, cl
  000cc	88 55 ea	 mov	 BYTE PTR __k$[ebp+10], dl
  000cf	8a 50 0b	 mov	 dl, BYTE PTR [eax+11]
  000d2	84 d2		 test	 dl, dl
  000d4	0f 84 4e 01 00
	00		 je	 $LN85@LoadInt_e@4
  000da	80 f2 ea	 xor	 dl, -22			; ffffffeaH
  000dd	88 55 eb	 mov	 BYTE PTR __k$[ebp+11], dl
  000e0	8a 50 0c	 mov	 dl, BYTE PTR [eax+12]
  000e3	84 d2		 test	 dl, dl
  000e5	0f 84 37 01 00
	00		 je	 $LN84@LoadInt_e@4
  000eb	80 f2 ed	 xor	 dl, -19			; ffffffedH
  000ee	88 55 ec	 mov	 BYTE PTR __k$[ebp+12], dl
  000f1	8a 50 0d	 mov	 dl, BYTE PTR [eax+13]
  000f4	84 d2		 test	 dl, dl
  000f6	0f 84 21 01 00
	00		 je	 $LN83@LoadInt_e@4
  000fc	32 d3		 xor	 dl, bl
  000fe	88 55 ed	 mov	 BYTE PTR __k$[ebp+13], dl
  00101	8a 50 0e	 mov	 dl, BYTE PTR [eax+14]
  00104	84 d2		 test	 dl, dl
  00106	0f 84 0c 01 00
	00		 je	 $LN82@LoadInt_e@4
  0010c	32 d1		 xor	 dl, cl
  0010e	88 55 ee	 mov	 BYTE PTR __k$[ebp+14], dl
  00111	8a 50 0f	 mov	 dl, BYTE PTR [eax+15]
  00114	84 d2		 test	 dl, dl
  00116	0f 84 f6 00 00
	00		 je	 $LN81@LoadInt_e@4
  0011c	80 f2 ea	 xor	 dl, -22			; ffffffeaH
  0011f	88 55 ef	 mov	 BYTE PTR __k$[ebp+15], dl
  00122	8a 50 10	 mov	 dl, BYTE PTR [eax+16]
  00125	84 d2		 test	 dl, dl
  00127	0f 84 df 00 00
	00		 je	 $LN80@LoadInt_e@4
  0012d	80 f2 ed	 xor	 dl, -19			; ffffffedH
  00130	88 55 f0	 mov	 BYTE PTR __k$[ebp+16], dl
  00133	8a 50 11	 mov	 dl, BYTE PTR [eax+17]
  00136	84 d2		 test	 dl, dl
  00138	0f 84 c9 00 00
	00		 je	 $LN79@LoadInt_e@4
  0013e	32 d3		 xor	 dl, bl
  00140	88 55 f1	 mov	 BYTE PTR __k$[ebp+17], dl
  00143	8a 50 12	 mov	 dl, BYTE PTR [eax+18]
  00146	84 d2		 test	 dl, dl
  00148	0f 84 b4 00 00
	00		 je	 $LN78@LoadInt_e@4
  0014e	32 d1		 xor	 dl, cl
  00150	88 55 f2	 mov	 BYTE PTR __k$[ebp+18], dl
  00153	8a 50 13	 mov	 dl, BYTE PTR [eax+19]
  00156	84 d2		 test	 dl, dl
  00158	0f 84 9e 00 00
	00		 je	 $LN77@LoadInt_e@4
  0015e	80 f2 ea	 xor	 dl, -22			; ffffffeaH
  00161	88 55 f3	 mov	 BYTE PTR __k$[ebp+19], dl
  00164	8a 50 14	 mov	 dl, BYTE PTR [eax+20]
  00167	84 d2		 test	 dl, dl
  00169	0f 84 87 00 00
	00		 je	 $LN76@LoadInt_e@4
  0016f	80 f2 ed	 xor	 dl, -19			; ffffffedH
  00172	88 55 f4	 mov	 BYTE PTR __k$[ebp+20], dl
  00175	8a 50 15	 mov	 dl, BYTE PTR [eax+21]
  00178	84 d2		 test	 dl, dl
  0017a	74 75		 je	 SHORT $LN75@LoadInt_e@4
  0017c	32 d3		 xor	 dl, bl
  0017e	88 55 f5	 mov	 BYTE PTR __k$[ebp+21], dl
  00181	8a 50 16	 mov	 dl, BYTE PTR [eax+22]
  00184	84 d2		 test	 dl, dl
  00186	74 64		 je	 SHORT $LN74@LoadInt_e@4
  00188	32 d1		 xor	 dl, cl
  0018a	80 78 17 00	 cmp	 BYTE PTR [eax+23], 0
  0018e	88 55 f6	 mov	 BYTE PTR __k$[ebp+22], dl
  00191	0f 84 d3 00 00
	00		 je	 $LN1@LoadInt_e@4
  00197	8a 50 18	 mov	 dl, BYTE PTR [eax+24]
  0019a	84 d2		 test	 dl, dl
  0019c	74 48		 je	 SHORT $LN72@LoadInt_e@4
  0019e	80 f2 ed	 xor	 dl, -19			; ffffffedH
  001a1	88 55 f8	 mov	 BYTE PTR __k$[ebp+24], dl
  001a4	8a 50 19	 mov	 dl, BYTE PTR [eax+25]
  001a7	84 d2		 test	 dl, dl
  001a9	74 33		 je	 SHORT $LN71@LoadInt_e@4
  001ab	32 d3		 xor	 dl, bl
  001ad	88 55 f9	 mov	 BYTE PTR __k$[ebp+25], dl
  001b0	8a 50 1a	 mov	 dl, BYTE PTR [eax+26]
  001b3	84 d2		 test	 dl, dl
  001b5	74 1f		 je	 SHORT $LN70@LoadInt_e@4
  001b7	8a 40 1b	 mov	 al, BYTE PTR [eax+27]
  001ba	32 d1		 xor	 dl, cl
  001bc	88 55 fa	 mov	 BYTE PTR __k$[ebp+26], dl
  001bf	84 c0		 test	 al, al
  001c1	74 0a		 je	 SHORT $LN69@LoadInt_e@4
  001c3	34 ea		 xor	 al, -22			; ffffffeaH
  001c5	88 45 fb	 mov	 BYTE PTR __k$[ebp+27], al
  001c8	e9 9d 00 00 00	 jmp	 $LN1@LoadInt_e@4
$LN69@LoadInt_e@4:
  001cd	c6 45 fb ea	 mov	 BYTE PTR __k$[ebp+27], -22 ; ffffffeaH
  001d1	e9 94 00 00 00	 jmp	 $LN1@LoadInt_e@4
$LN70@LoadInt_e@4:
  001d6	88 4d fa	 mov	 BYTE PTR __k$[ebp+26], cl
  001d9	e9 8c 00 00 00	 jmp	 $LN1@LoadInt_e@4
$LN71@LoadInt_e@4:
  001de	88 5d f9	 mov	 BYTE PTR __k$[ebp+25], bl
  001e1	e9 84 00 00 00	 jmp	 $LN1@LoadInt_e@4
$LN72@LoadInt_e@4:
  001e6	c6 45 f8 ed	 mov	 BYTE PTR __k$[ebp+24], -19 ; ffffffedH
  001ea	eb 7e		 jmp	 SHORT $LN1@LoadInt_e@4
$LN74@LoadInt_e@4:
  001ec	88 4d f6	 mov	 BYTE PTR __k$[ebp+22], cl
  001ef	eb 79		 jmp	 SHORT $LN1@LoadInt_e@4
$LN75@LoadInt_e@4:
  001f1	88 5d f5	 mov	 BYTE PTR __k$[ebp+21], bl
  001f4	eb 74		 jmp	 SHORT $LN1@LoadInt_e@4
$LN76@LoadInt_e@4:
  001f6	c6 45 f4 ed	 mov	 BYTE PTR __k$[ebp+20], -19 ; ffffffedH
  001fa	eb 6e		 jmp	 SHORT $LN1@LoadInt_e@4
$LN77@LoadInt_e@4:
  001fc	c6 45 f3 ea	 mov	 BYTE PTR __k$[ebp+19], -22 ; ffffffeaH
  00200	eb 68		 jmp	 SHORT $LN1@LoadInt_e@4
$LN78@LoadInt_e@4:
  00202	88 4d f2	 mov	 BYTE PTR __k$[ebp+18], cl
  00205	eb 63		 jmp	 SHORT $LN1@LoadInt_e@4
$LN79@LoadInt_e@4:
  00207	88 5d f1	 mov	 BYTE PTR __k$[ebp+17], bl
  0020a	eb 5e		 jmp	 SHORT $LN1@LoadInt_e@4
$LN80@LoadInt_e@4:
  0020c	c6 45 f0 ed	 mov	 BYTE PTR __k$[ebp+16], -19 ; ffffffedH
  00210	eb 58		 jmp	 SHORT $LN1@LoadInt_e@4
$LN81@LoadInt_e@4:
  00212	c6 45 ef ea	 mov	 BYTE PTR __k$[ebp+15], -22 ; ffffffeaH
  00216	eb 52		 jmp	 SHORT $LN1@LoadInt_e@4
$LN82@LoadInt_e@4:
  00218	88 4d ee	 mov	 BYTE PTR __k$[ebp+14], cl
  0021b	eb 4d		 jmp	 SHORT $LN1@LoadInt_e@4
$LN83@LoadInt_e@4:
  0021d	88 5d ed	 mov	 BYTE PTR __k$[ebp+13], bl
  00220	eb 48		 jmp	 SHORT $LN1@LoadInt_e@4
$LN84@LoadInt_e@4:
  00222	c6 45 ec ed	 mov	 BYTE PTR __k$[ebp+12], -19 ; ffffffedH
  00226	eb 42		 jmp	 SHORT $LN1@LoadInt_e@4
$LN85@LoadInt_e@4:
  00228	c6 45 eb ea	 mov	 BYTE PTR __k$[ebp+11], -22 ; ffffffeaH
  0022c	eb 3c		 jmp	 SHORT $LN1@LoadInt_e@4
$LN86@LoadInt_e@4:
  0022e	88 4d ea	 mov	 BYTE PTR __k$[ebp+10], cl
  00231	eb 37		 jmp	 SHORT $LN1@LoadInt_e@4
$LN87@LoadInt_e@4:
  00233	88 5d e9	 mov	 BYTE PTR __k$[ebp+9], bl
  00236	eb 32		 jmp	 SHORT $LN1@LoadInt_e@4
$LN88@LoadInt_e@4:
  00238	c6 45 e8 ed	 mov	 BYTE PTR __k$[ebp+8], -19 ; ffffffedH
  0023c	eb 2c		 jmp	 SHORT $LN1@LoadInt_e@4
$LN89@LoadInt_e@4:
  0023e	c6 45 e7 ea	 mov	 BYTE PTR __k$[ebp+7], -22 ; ffffffeaH
  00242	eb 26		 jmp	 SHORT $LN1@LoadInt_e@4
$LN90@LoadInt_e@4:
  00244	88 4d e6	 mov	 BYTE PTR __k$[ebp+6], cl
  00247	eb 21		 jmp	 SHORT $LN1@LoadInt_e@4
$LN91@LoadInt_e@4:
  00249	88 5d e5	 mov	 BYTE PTR __k$[ebp+5], bl
  0024c	eb 1c		 jmp	 SHORT $LN1@LoadInt_e@4
$LN92@LoadInt_e@4:
  0024e	c6 45 e4 ed	 mov	 BYTE PTR __k$[ebp+4], -19 ; ffffffedH
  00252	eb 16		 jmp	 SHORT $LN1@LoadInt_e@4
$LN93@LoadInt_e@4:
  00254	c6 45 e3 ea	 mov	 BYTE PTR __k$[ebp+3], -22 ; ffffffeaH
  00258	eb 10		 jmp	 SHORT $LN1@LoadInt_e@4
$LN94@LoadInt_e@4:
  0025a	c6 45 e2 eb	 mov	 BYTE PTR __k$[ebp+2], -21 ; ffffffebH
  0025e	eb 0a		 jmp	 SHORT $LN1@LoadInt_e@4
$LN95@LoadInt_e@4:
  00260	c6 45 e1 ec	 mov	 BYTE PTR __k$[ebp+1], -20 ; ffffffecH
  00264	eb 04		 jmp	 SHORT $LN1@LoadInt_e@4
$LN96@LoadInt_e@4:
  00266	c6 45 e0 ed	 mov	 BYTE PTR __k$[ebp], -19	; ffffffedH
$LN1@LoadInt_e@4:
  0026a	6a 05		 push	 5
  0026c	8d 45 e0	 lea	 eax, DWORD PTR __k$[ebp]
  0026f	c6 45 f7 00	 mov	 BYTE PTR __k$[ebp+23], 0
  00273	5a		 pop	 edx
$LL104@LoadInt_e@4:
  00274	81 30 ed ec eb
	ea		 xor	 DWORD PTR [eax], -353637139 ; eaebecedH
  0027a	83 c0 04	 add	 eax, 4
  0027d	4a		 dec	 edx
  0027e	75 f4		 jne	 SHORT $LL104@LoadInt_e@4
  00280	6a 14		 push	 20			; 00000014H
  00282	58		 pop	 eax
$LL101@LoadInt_e@4:
  00283	8b c8		 mov	 ecx, eax
  00285	81 e1 03 00 00
	80		 and	 ecx, -2147483645	; 80000003H
  0028b	79 05		 jns	 SHORT $LN111@LoadInt_e@4
  0028d	49		 dec	 ecx
  0028e	83 c9 fc	 or	 ecx, -4			; fffffffcH
  00291	41		 inc	 ecx
$LN111@LoadInt_e@4:
  00292	b2 ed		 mov	 dl, -19			; ffffffedH
  00294	2a d1		 sub	 dl, cl
  00296	30 54 05 e0	 xor	 BYTE PTR __k$[ebp+eax], dl
  0029a	40		 inc	 eax
  0029b	83 f8 17	 cmp	 eax, 23			; 00000017H
  0029e	7c e3		 jl	 SHORT $LL101@LoadInt_e@4

; 120  : 		return LoadInt(_k, i);

  002a0	ff 75 0c	 push	 DWORD PTR _i$[ebp]
  002a3	8d 45 e0	 lea	 eax, DWORD PTR __k$[ebp]
  002a6	50		 push	 eax
  002a7	8b ce		 mov	 ecx, esi
  002a9	ff 15 00 00 00
	00		 call	 DWORD PTR __imp_?LoadInt@ioINILoader@@QAEHPBDH@Z

; 121  : 	}

  002af	8b 4d fc	 mov	 ecx, DWORD PTR __$ArrayPad$[ebp]
  002b2	5e		 pop	 esi
  002b3	33 cd		 xor	 ecx, ebp
  002b5	5b		 pop	 ebx
  002b6	e8 00 00 00 00	 call	 @__security_check_cookie@4
  002bb	c9		 leave
  002bc	c2 08 00	 ret	 8
??$LoadInt_e@$0BI@@ioINILoader@@QAEHAAY0BI@$$CBDH@Z ENDP ; ioINILoader::LoadInt_e<24>
_TEXT	ENDS
PUBLIC	__$ArrayPad$
PUBLIC	??$LoadFloat_e@$0BK@@ioINILoader@@QAEMAAY0BK@$$CBDM@Z ; ioINILoader::LoadFloat_e<26>
; Function compile flags: /Ogsp
;	COMDAT ??$LoadFloat_e@$0BK@@ioINILoader@@QAEMAAY0BK@$$CBDM@Z
_TEXT	SEGMENT
__k$ = -36						; size = 26
__$ArrayPad$ = -4					; size = 4
_k$ = 8							; size = 4
_f$ = 12						; size = 4
??$LoadFloat_e@$0BK@@ioINILoader@@QAEMAAY0BK@$$CBDM@Z PROC ; ioINILoader::LoadFloat_e<26>, COMDAT
; _this$ = ecx

; 135  : 	{

  00000	55		 push	 ebp
  00001	8b ec		 mov	 ebp, esp
  00003	83 ec 24	 sub	 esp, 36			; 00000024H
  00006	a1 00 00 00 00	 mov	 eax, DWORD PTR ___security_cookie
  0000b	33 c5		 xor	 eax, ebp
  0000d	89 45 fc	 mov	 DWORD PTR __$ArrayPad$[ebp], eax
  00010	8b 45 08	 mov	 eax, DWORD PTR _k$[ebp]

; 136  : 		_ENCSTR(k, _k);

  00013	8a 10		 mov	 dl, BYTE PTR [eax]
  00015	53		 push	 ebx
  00016	56		 push	 esi
  00017	8b f1		 mov	 esi, ecx
  00019	84 d2		 test	 dl, dl
  0001b	0f 84 79 02 00
	00		 je	 $LN96@LoadFloat_@4
  00021	80 f2 ed	 xor	 dl, -19			; ffffffedH
  00024	88 55 dc	 mov	 BYTE PTR __k$[ebp], dl
  00027	8a 50 01	 mov	 dl, BYTE PTR [eax+1]
  0002a	84 d2		 test	 dl, dl
  0002c	0f 84 62 02 00
	00		 je	 $LN95@LoadFloat_@4
  00032	80 f2 ec	 xor	 dl, -20			; ffffffecH
  00035	88 55 dd	 mov	 BYTE PTR __k$[ebp+1], dl
  00038	8a 50 02	 mov	 dl, BYTE PTR [eax+2]
  0003b	84 d2		 test	 dl, dl
  0003d	0f 84 4b 02 00
	00		 je	 $LN94@LoadFloat_@4
  00043	b1 eb		 mov	 cl, -21			; ffffffebH
  00045	32 d1		 xor	 dl, cl
  00047	88 55 de	 mov	 BYTE PTR __k$[ebp+2], dl
  0004a	8a 50 03	 mov	 dl, BYTE PTR [eax+3]
  0004d	84 d2		 test	 dl, dl
  0004f	0f 84 33 02 00
	00		 je	 $LN93@LoadFloat_@4
  00055	b3 ea		 mov	 bl, -22			; ffffffeaH
  00057	32 d3		 xor	 dl, bl
  00059	88 55 df	 mov	 BYTE PTR __k$[ebp+3], dl
  0005c	8a 50 04	 mov	 dl, BYTE PTR [eax+4]
  0005f	84 d2		 test	 dl, dl
  00061	0f 84 1b 02 00
	00		 je	 $LN92@LoadFloat_@4
  00067	80 f2 ed	 xor	 dl, -19			; ffffffedH
  0006a	88 55 e0	 mov	 BYTE PTR __k$[ebp+4], dl
  0006d	8a 50 05	 mov	 dl, BYTE PTR [eax+5]
  00070	84 d2		 test	 dl, dl
  00072	0f 84 04 02 00
	00		 je	 $LN91@LoadFloat_@4
  00078	80 f2 ec	 xor	 dl, -20			; ffffffecH
  0007b	88 55 e1	 mov	 BYTE PTR __k$[ebp+5], dl
  0007e	8a 50 06	 mov	 dl, BYTE PTR [eax+6]
  00081	84 d2		 test	 dl, dl
  00083	0f 84 ee 01 00
	00		 je	 $LN90@LoadFloat_@4
  00089	32 d1		 xor	 dl, cl
  0008b	88 55 e2	 mov	 BYTE PTR __k$[ebp+6], dl
  0008e	8a 50 07	 mov	 dl, BYTE PTR [eax+7]
  00091	84 d2		 test	 dl, dl
  00093	0f 84 d9 01 00
	00		 je	 $LN89@LoadFloat_@4
  00099	32 d3		 xor	 dl, bl
  0009b	88 55 e3	 mov	 BYTE PTR __k$[ebp+7], dl
  0009e	8a 50 08	 mov	 dl, BYTE PTR [eax+8]
  000a1	84 d2		 test	 dl, dl
  000a3	0f 84 c3 01 00
	00		 je	 $LN88@LoadFloat_@4
  000a9	80 f2 ed	 xor	 dl, -19			; ffffffedH
  000ac	88 55 e4	 mov	 BYTE PTR __k$[ebp+8], dl
  000af	8a 50 09	 mov	 dl, BYTE PTR [eax+9]
  000b2	84 d2		 test	 dl, dl
  000b4	0f 84 ac 01 00
	00		 je	 $LN87@LoadFloat_@4
  000ba	80 f2 ec	 xor	 dl, -20			; ffffffecH
  000bd	88 55 e5	 mov	 BYTE PTR __k$[ebp+9], dl
  000c0	8a 50 0a	 mov	 dl, BYTE PTR [eax+10]
  000c3	84 d2		 test	 dl, dl
  000c5	0f 84 96 01 00
	00		 je	 $LN86@LoadFloat_@4
  000cb	32 d1		 xor	 dl, cl
  000cd	88 55 e6	 mov	 BYTE PTR __k$[ebp+10], dl
  000d0	8a 50 0b	 mov	 dl, BYTE PTR [eax+11]
  000d3	84 d2		 test	 dl, dl
  000d5	0f 84 81 01 00
	00		 je	 $LN85@LoadFloat_@4
  000db	32 d3		 xor	 dl, bl
  000dd	88 55 e7	 mov	 BYTE PTR __k$[ebp+11], dl
  000e0	8a 50 0c	 mov	 dl, BYTE PTR [eax+12]
  000e3	84 d2		 test	 dl, dl
  000e5	0f 84 6b 01 00
	00		 je	 $LN84@LoadFloat_@4
  000eb	80 f2 ed	 xor	 dl, -19			; ffffffedH
  000ee	88 55 e8	 mov	 BYTE PTR __k$[ebp+12], dl
  000f1	8a 50 0d	 mov	 dl, BYTE PTR [eax+13]
  000f4	84 d2		 test	 dl, dl
  000f6	0f 84 54 01 00
	00		 je	 $LN83@LoadFloat_@4
  000fc	80 f2 ec	 xor	 dl, -20			; ffffffecH
  000ff	88 55 e9	 mov	 BYTE PTR __k$[ebp+13], dl
  00102	8a 50 0e	 mov	 dl, BYTE PTR [eax+14]
  00105	84 d2		 test	 dl, dl
  00107	0f 84 3e 01 00
	00		 je	 $LN82@LoadFloat_@4
  0010d	32 d1		 xor	 dl, cl
  0010f	88 55 ea	 mov	 BYTE PTR __k$[ebp+14], dl
  00112	8a 50 0f	 mov	 dl, BYTE PTR [eax+15]
  00115	84 d2		 test	 dl, dl
  00117	0f 84 29 01 00
	00		 je	 $LN81@LoadFloat_@4
  0011d	32 d3		 xor	 dl, bl
  0011f	88 55 eb	 mov	 BYTE PTR __k$[ebp+15], dl
  00122	8a 50 10	 mov	 dl, BYTE PTR [eax+16]
  00125	84 d2		 test	 dl, dl
  00127	0f 84 13 01 00
	00		 je	 $LN80@LoadFloat_@4
  0012d	80 f2 ed	 xor	 dl, -19			; ffffffedH
  00130	88 55 ec	 mov	 BYTE PTR __k$[ebp+16], dl
  00133	8a 50 11	 mov	 dl, BYTE PTR [eax+17]
  00136	84 d2		 test	 dl, dl
  00138	0f 84 fc 00 00
	00		 je	 $LN79@LoadFloat_@4
  0013e	80 f2 ec	 xor	 dl, -20			; ffffffecH
  00141	88 55 ed	 mov	 BYTE PTR __k$[ebp+17], dl
  00144	8a 50 12	 mov	 dl, BYTE PTR [eax+18]
  00147	84 d2		 test	 dl, dl
  00149	0f 84 e6 00 00
	00		 je	 $LN78@LoadFloat_@4
  0014f	32 d1		 xor	 dl, cl
  00151	88 55 ee	 mov	 BYTE PTR __k$[ebp+18], dl
  00154	8a 50 13	 mov	 dl, BYTE PTR [eax+19]
  00157	84 d2		 test	 dl, dl
  00159	0f 84 d1 00 00
	00		 je	 $LN77@LoadFloat_@4
  0015f	32 d3		 xor	 dl, bl
  00161	88 55 ef	 mov	 BYTE PTR __k$[ebp+19], dl
  00164	8a 50 14	 mov	 dl, BYTE PTR [eax+20]
  00167	84 d2		 test	 dl, dl
  00169	0f 84 bb 00 00
	00		 je	 $LN76@LoadFloat_@4
  0016f	80 f2 ed	 xor	 dl, -19			; ffffffedH
  00172	88 55 f0	 mov	 BYTE PTR __k$[ebp+20], dl
  00175	8a 50 15	 mov	 dl, BYTE PTR [eax+21]
  00178	84 d2		 test	 dl, dl
  0017a	0f 84 a4 00 00
	00		 je	 $LN75@LoadFloat_@4
  00180	80 f2 ec	 xor	 dl, -20			; ffffffecH
  00183	88 55 f1	 mov	 BYTE PTR __k$[ebp+21], dl
  00186	8a 50 16	 mov	 dl, BYTE PTR [eax+22]
  00189	84 d2		 test	 dl, dl
  0018b	0f 84 8e 00 00
	00		 je	 $LN74@LoadFloat_@4
  00191	32 d1		 xor	 dl, cl
  00193	88 55 f2	 mov	 BYTE PTR __k$[ebp+22], dl
  00196	8a 50 17	 mov	 dl, BYTE PTR [eax+23]
  00199	84 d2		 test	 dl, dl
  0019b	74 7d		 je	 SHORT $LN73@LoadFloat_@4
  0019d	32 d3		 xor	 dl, bl
  0019f	88 55 f3	 mov	 BYTE PTR __k$[ebp+23], dl
  001a2	8a 50 18	 mov	 dl, BYTE PTR [eax+24]
  001a5	84 d2		 test	 dl, dl
  001a7	74 68		 je	 SHORT $LN72@LoadFloat_@4
  001a9	80 f2 ed	 xor	 dl, -19			; ffffffedH
  001ac	80 78 19 00	 cmp	 BYTE PTR [eax+25], 0
  001b0	88 55 f4	 mov	 BYTE PTR __k$[ebp+24], dl
  001b3	0f 84 e5 00 00
	00		 je	 $LN1@LoadFloat_@4
  001b9	8a 50 1a	 mov	 dl, BYTE PTR [eax+26]
  001bc	84 d2		 test	 dl, dl
  001be	74 49		 je	 SHORT $LN70@LoadFloat_@4
  001c0	32 d1		 xor	 dl, cl
  001c2	88 55 f6	 mov	 BYTE PTR __k$[ebp+26], dl
  001c5	8a 50 1b	 mov	 dl, BYTE PTR [eax+27]
  001c8	84 d2		 test	 dl, dl
  001ca	74 35		 je	 SHORT $LN69@LoadFloat_@4
  001cc	32 d3		 xor	 dl, bl
  001ce	88 55 f7	 mov	 BYTE PTR __k$[ebp+27], dl
  001d1	8a 50 1c	 mov	 dl, BYTE PTR [eax+28]
  001d4	84 d2		 test	 dl, dl
  001d6	74 20		 je	 SHORT $LN68@LoadFloat_@4
  001d8	8a 40 1d	 mov	 al, BYTE PTR [eax+29]
  001db	80 f2 ed	 xor	 dl, -19			; ffffffedH
  001de	88 55 f8	 mov	 BYTE PTR __k$[ebp+28], dl
  001e1	84 c0		 test	 al, al
  001e3	74 0a		 je	 SHORT $LN67@LoadFloat_@4
  001e5	34 ec		 xor	 al, -20			; ffffffecH
  001e7	88 45 f9	 mov	 BYTE PTR __k$[ebp+29], al
  001ea	e9 af 00 00 00	 jmp	 $LN1@LoadFloat_@4
$LN67@LoadFloat_@4:
  001ef	c6 45 f9 ec	 mov	 BYTE PTR __k$[ebp+29], -20 ; ffffffecH
  001f3	e9 a6 00 00 00	 jmp	 $LN1@LoadFloat_@4
$LN68@LoadFloat_@4:
  001f8	c6 45 f8 ed	 mov	 BYTE PTR __k$[ebp+28], -19 ; ffffffedH
  001fc	e9 9d 00 00 00	 jmp	 $LN1@LoadFloat_@4
$LN69@LoadFloat_@4:
  00201	88 5d f7	 mov	 BYTE PTR __k$[ebp+27], bl
  00204	e9 95 00 00 00	 jmp	 $LN1@LoadFloat_@4
$LN70@LoadFloat_@4:
  00209	88 4d f6	 mov	 BYTE PTR __k$[ebp+26], cl
  0020c	e9 8d 00 00 00	 jmp	 $LN1@LoadFloat_@4
$LN72@LoadFloat_@4:
  00211	c6 45 f4 ed	 mov	 BYTE PTR __k$[ebp+24], -19 ; ffffffedH
  00215	e9 84 00 00 00	 jmp	 $LN1@LoadFloat_@4
$LN73@LoadFloat_@4:
  0021a	88 5d f3	 mov	 BYTE PTR __k$[ebp+23], bl
  0021d	eb 7f		 jmp	 SHORT $LN1@LoadFloat_@4
$LN74@LoadFloat_@4:
  0021f	88 4d f2	 mov	 BYTE PTR __k$[ebp+22], cl
  00222	eb 7a		 jmp	 SHORT $LN1@LoadFloat_@4
$LN75@LoadFloat_@4:
  00224	c6 45 f1 ec	 mov	 BYTE PTR __k$[ebp+21], -20 ; ffffffecH
  00228	eb 74		 jmp	 SHORT $LN1@LoadFloat_@4
$LN76@LoadFloat_@4:
  0022a	c6 45 f0 ed	 mov	 BYTE PTR __k$[ebp+20], -19 ; ffffffedH
  0022e	eb 6e		 jmp	 SHORT $LN1@LoadFloat_@4
$LN77@LoadFloat_@4:
  00230	88 5d ef	 mov	 BYTE PTR __k$[ebp+19], bl
  00233	eb 69		 jmp	 SHORT $LN1@LoadFloat_@4
$LN78@LoadFloat_@4:
  00235	88 4d ee	 mov	 BYTE PTR __k$[ebp+18], cl
  00238	eb 64		 jmp	 SHORT $LN1@LoadFloat_@4
$LN79@LoadFloat_@4:
  0023a	c6 45 ed ec	 mov	 BYTE PTR __k$[ebp+17], -20 ; ffffffecH
  0023e	eb 5e		 jmp	 SHORT $LN1@LoadFloat_@4
$LN80@LoadFloat_@4:
  00240	c6 45 ec ed	 mov	 BYTE PTR __k$[ebp+16], -19 ; ffffffedH
  00244	eb 58		 jmp	 SHORT $LN1@LoadFloat_@4
$LN81@LoadFloat_@4:
  00246	88 5d eb	 mov	 BYTE PTR __k$[ebp+15], bl
  00249	eb 53		 jmp	 SHORT $LN1@LoadFloat_@4
$LN82@LoadFloat_@4:
  0024b	88 4d ea	 mov	 BYTE PTR __k$[ebp+14], cl
  0024e	eb 4e		 jmp	 SHORT $LN1@LoadFloat_@4
$LN83@LoadFloat_@4:
  00250	c6 45 e9 ec	 mov	 BYTE PTR __k$[ebp+13], -20 ; ffffffecH
  00254	eb 48		 jmp	 SHORT $LN1@LoadFloat_@4
$LN84@LoadFloat_@4:
  00256	c6 45 e8 ed	 mov	 BYTE PTR __k$[ebp+12], -19 ; ffffffedH
  0025a	eb 42		 jmp	 SHORT $LN1@LoadFloat_@4
$LN85@LoadFloat_@4:
  0025c	88 5d e7	 mov	 BYTE PTR __k$[ebp+11], bl
  0025f	eb 3d		 jmp	 SHORT $LN1@LoadFloat_@4
$LN86@LoadFloat_@4:
  00261	88 4d e6	 mov	 BYTE PTR __k$[ebp+10], cl
  00264	eb 38		 jmp	 SHORT $LN1@LoadFloat_@4
$LN87@LoadFloat_@4:
  00266	c6 45 e5 ec	 mov	 BYTE PTR __k$[ebp+9], -20 ; ffffffecH
  0026a	eb 32		 jmp	 SHORT $LN1@LoadFloat_@4
$LN88@LoadFloat_@4:
  0026c	c6 45 e4 ed	 mov	 BYTE PTR __k$[ebp+8], -19 ; ffffffedH
  00270	eb 2c		 jmp	 SHORT $LN1@LoadFloat_@4
$LN89@LoadFloat_@4:
  00272	88 5d e3	 mov	 BYTE PTR __k$[ebp+7], bl
  00275	eb 27		 jmp	 SHORT $LN1@LoadFloat_@4
$LN90@LoadFloat_@4:
  00277	88 4d e2	 mov	 BYTE PTR __k$[ebp+6], cl
  0027a	eb 22		 jmp	 SHORT $LN1@LoadFloat_@4
$LN91@LoadFloat_@4:
  0027c	c6 45 e1 ec	 mov	 BYTE PTR __k$[ebp+5], -20 ; ffffffecH
  00280	eb 1c		 jmp	 SHORT $LN1@LoadFloat_@4
$LN92@LoadFloat_@4:
  00282	c6 45 e0 ed	 mov	 BYTE PTR __k$[ebp+4], -19 ; ffffffedH
  00286	eb 16		 jmp	 SHORT $LN1@LoadFloat_@4
$LN93@LoadFloat_@4:
  00288	c6 45 df ea	 mov	 BYTE PTR __k$[ebp+3], -22 ; ffffffeaH
  0028c	eb 10		 jmp	 SHORT $LN1@LoadFloat_@4
$LN94@LoadFloat_@4:
  0028e	c6 45 de eb	 mov	 BYTE PTR __k$[ebp+2], -21 ; ffffffebH
  00292	eb 0a		 jmp	 SHORT $LN1@LoadFloat_@4
$LN95@LoadFloat_@4:
  00294	c6 45 dd ec	 mov	 BYTE PTR __k$[ebp+1], -20 ; ffffffecH
  00298	eb 04		 jmp	 SHORT $LN1@LoadFloat_@4
$LN96@LoadFloat_@4:
  0029a	c6 45 dc ed	 mov	 BYTE PTR __k$[ebp], -19	; ffffffedH
$LN1@LoadFloat_@4:
  0029e	6a 06		 push	 6
  002a0	8d 45 dc	 lea	 eax, DWORD PTR __k$[ebp]
  002a3	c6 45 f5 00	 mov	 BYTE PTR __k$[ebp+25], 0
  002a7	5a		 pop	 edx
$LL104@LoadFloat_@4:
  002a8	81 30 ed ec eb
	ea		 xor	 DWORD PTR [eax], -353637139 ; eaebecedH
  002ae	83 c0 04	 add	 eax, 4
  002b1	4a		 dec	 edx
  002b2	75 f4		 jne	 SHORT $LL104@LoadFloat_@4

; 137  : 		return LoadFloat(_k, f);

  002b4	f3 0f 10 45 0c	 movss	 xmm0, DWORD PTR _f$[ebp]
  002b9	80 75 f4 ed	 xor	 BYTE PTR __k$[ebp+24], -19 ; ffffffedH
  002bd	51		 push	 ecx
  002be	8d 45 dc	 lea	 eax, DWORD PTR __k$[ebp]
  002c1	f3 0f 11 04 24	 movss	 DWORD PTR [esp], xmm0
  002c6	50		 push	 eax
  002c7	8b ce		 mov	 ecx, esi
  002c9	ff 15 00 00 00
	00		 call	 DWORD PTR __imp_?LoadFloat@ioINILoader@@QAEMPBDM@Z

; 138  : 	}

  002cf	8b 4d fc	 mov	 ecx, DWORD PTR __$ArrayPad$[ebp]
  002d2	5e		 pop	 esi
  002d3	33 cd		 xor	 ecx, ebp
  002d5	5b		 pop	 ebx
  002d6	e8 00 00 00 00	 call	 @__security_check_cookie@4
  002db	c9		 leave
  002dc	c2 08 00	 ret	 8
??$LoadFloat_e@$0BK@@ioINILoader@@QAEMAAY0BK@$$CBDM@Z ENDP ; ioINILoader::LoadFloat_e<26>
_TEXT	ENDS
PUBLIC	__$ArrayPad$
PUBLIC	??$LoadFloat_e@$0BF@@ioINILoader@@QAEMAAY0BF@$$CBDM@Z ; ioINILoader::LoadFloat_e<21>
; Function compile flags: /Ogsp
;	COMDAT ??$LoadFloat_e@$0BF@@ioINILoader@@QAEMAAY0BF@$$CBDM@Z
_TEXT	SEGMENT
__k$ = -32						; size = 21
__$ArrayPad$ = -4					; size = 4
_k$ = 8							; size = 4
_f$ = 12						; size = 4
??$LoadFloat_e@$0BF@@ioINILoader@@QAEMAAY0BF@$$CBDM@Z PROC ; ioINILoader::LoadFloat_e<21>, COMDAT
; _this$ = ecx

; 135  : 	{

  00000	55		 push	 ebp
  00001	8b ec		 mov	 ebp, esp
  00003	83 ec 20	 sub	 esp, 32			; 00000020H
  00006	a1 00 00 00 00	 mov	 eax, DWORD PTR ___security_cookie
  0000b	33 c5		 xor	 eax, ebp
  0000d	89 45 fc	 mov	 DWORD PTR __$ArrayPad$[ebp], eax
  00010	8b 45 08	 mov	 eax, DWORD PTR _k$[ebp]

; 136  : 		_ENCSTR(k, _k);

  00013	8a 10		 mov	 dl, BYTE PTR [eax]
  00015	53		 push	 ebx
  00016	56		 push	 esi
  00017	8b f1		 mov	 esi, ecx
  00019	84 d2		 test	 dl, dl
  0001b	0f 84 f7 01 00
	00		 je	 $LN96@LoadFloat_@5
  00021	80 f2 ed	 xor	 dl, -19			; ffffffedH
  00024	88 55 e0	 mov	 BYTE PTR __k$[ebp], dl
  00027	8a 50 01	 mov	 dl, BYTE PTR [eax+1]
  0002a	84 d2		 test	 dl, dl
  0002c	0f 84 e0 01 00
	00		 je	 $LN95@LoadFloat_@5
  00032	b1 ec		 mov	 cl, -20			; ffffffecH
  00034	32 d1		 xor	 dl, cl
  00036	88 55 e1	 mov	 BYTE PTR __k$[ebp+1], dl
  00039	8a 50 02	 mov	 dl, BYTE PTR [eax+2]
  0003c	84 d2		 test	 dl, dl
  0003e	0f 84 c8 01 00
	00		 je	 $LN94@LoadFloat_@5
  00044	b3 eb		 mov	 bl, -21			; ffffffebH
  00046	32 d3		 xor	 dl, bl
  00048	88 55 e2	 mov	 BYTE PTR __k$[ebp+2], dl
  0004b	8a 50 03	 mov	 dl, BYTE PTR [eax+3]
  0004e	84 d2		 test	 dl, dl
  00050	0f 84 b0 01 00
	00		 je	 $LN93@LoadFloat_@5
  00056	80 f2 ea	 xor	 dl, -22			; ffffffeaH
  00059	88 55 e3	 mov	 BYTE PTR __k$[ebp+3], dl
  0005c	8a 50 04	 mov	 dl, BYTE PTR [eax+4]
  0005f	84 d2		 test	 dl, dl
  00061	0f 84 99 01 00
	00		 je	 $LN92@LoadFloat_@5
  00067	80 f2 ed	 xor	 dl, -19			; ffffffedH
  0006a	88 55 e4	 mov	 BYTE PTR __k$[ebp+4], dl
  0006d	8a 50 05	 mov	 dl, BYTE PTR [eax+5]
  00070	84 d2		 test	 dl, dl
  00072	0f 84 83 01 00
	00		 je	 $LN91@LoadFloat_@5
  00078	32 d1		 xor	 dl, cl
  0007a	88 55 e5	 mov	 BYTE PTR __k$[ebp+5], dl
  0007d	8a 50 06	 mov	 dl, BYTE PTR [eax+6]
  00080	84 d2		 test	 dl, dl
  00082	0f 84 6e 01 00
	00		 je	 $LN90@LoadFloat_@5
  00088	32 d3		 xor	 dl, bl
  0008a	88 55 e6	 mov	 BYTE PTR __k$[ebp+6], dl
  0008d	8a 50 07	 mov	 dl, BYTE PTR [eax+7]
  00090	84 d2		 test	 dl, dl
  00092	0f 84 58 01 00
	00		 je	 $LN89@LoadFloat_@5
  00098	80 f2 ea	 xor	 dl, -22			; ffffffeaH
  0009b	88 55 e7	 mov	 BYTE PTR __k$[ebp+7], dl
  0009e	8a 50 08	 mov	 dl, BYTE PTR [eax+8]
  000a1	84 d2		 test	 dl, dl
  000a3	0f 84 41 01 00
	00		 je	 $LN88@LoadFloat_@5
  000a9	80 f2 ed	 xor	 dl, -19			; ffffffedH
  000ac	88 55 e8	 mov	 BYTE PTR __k$[ebp+8], dl
  000af	8a 50 09	 mov	 dl, BYTE PTR [eax+9]
  000b2	84 d2		 test	 dl, dl
  000b4	0f 84 2b 01 00
	00		 je	 $LN87@LoadFloat_@5
  000ba	32 d1		 xor	 dl, cl
  000bc	88 55 e9	 mov	 BYTE PTR __k$[ebp+9], dl
  000bf	8a 50 0a	 mov	 dl, BYTE PTR [eax+10]
  000c2	84 d2		 test	 dl, dl
  000c4	0f 84 16 01 00
	00		 je	 $LN86@LoadFloat_@5
  000ca	32 d3		 xor	 dl, bl
  000cc	88 55 ea	 mov	 BYTE PTR __k$[ebp+10], dl
  000cf	8a 50 0b	 mov	 dl, BYTE PTR [eax+11]
  000d2	84 d2		 test	 dl, dl
  000d4	0f 84 00 01 00
	00		 je	 $LN85@LoadFloat_@5
  000da	80 f2 ea	 xor	 dl, -22			; ffffffeaH
  000dd	88 55 eb	 mov	 BYTE PTR __k$[ebp+11], dl
  000e0	8a 50 0c	 mov	 dl, BYTE PTR [eax+12]
  000e3	84 d2		 test	 dl, dl
  000e5	0f 84 e9 00 00
	00		 je	 $LN84@LoadFloat_@5
  000eb	80 f2 ed	 xor	 dl, -19			; ffffffedH
  000ee	88 55 ec	 mov	 BYTE PTR __k$[ebp+12], dl
  000f1	8a 50 0d	 mov	 dl, BYTE PTR [eax+13]
  000f4	84 d2		 test	 dl, dl
  000f6	0f 84 d3 00 00
	00		 je	 $LN83@LoadFloat_@5
  000fc	32 d1		 xor	 dl, cl
  000fe	88 55 ed	 mov	 BYTE PTR __k$[ebp+13], dl
  00101	8a 50 0e	 mov	 dl, BYTE PTR [eax+14]
  00104	84 d2		 test	 dl, dl
  00106	0f 84 be 00 00
	00		 je	 $LN82@LoadFloat_@5
  0010c	32 d3		 xor	 dl, bl
  0010e	88 55 ee	 mov	 BYTE PTR __k$[ebp+14], dl
  00111	8a 50 0f	 mov	 dl, BYTE PTR [eax+15]
  00114	84 d2		 test	 dl, dl
  00116	0f 84 a8 00 00
	00		 je	 $LN81@LoadFloat_@5
  0011c	80 f2 ea	 xor	 dl, -22			; ffffffeaH
  0011f	88 55 ef	 mov	 BYTE PTR __k$[ebp+15], dl
  00122	8a 50 10	 mov	 dl, BYTE PTR [eax+16]
  00125	84 d2		 test	 dl, dl
  00127	0f 84 91 00 00
	00		 je	 $LN80@LoadFloat_@5
  0012d	80 f2 ed	 xor	 dl, -19			; ffffffedH
  00130	88 55 f0	 mov	 BYTE PTR __k$[ebp+16], dl
  00133	8a 50 11	 mov	 dl, BYTE PTR [eax+17]
  00136	84 d2		 test	 dl, dl
  00138	74 7f		 je	 SHORT $LN79@LoadFloat_@5
  0013a	32 d1		 xor	 dl, cl
  0013c	88 55 f1	 mov	 BYTE PTR __k$[ebp+17], dl
  0013f	8a 50 12	 mov	 dl, BYTE PTR [eax+18]
  00142	84 d2		 test	 dl, dl
  00144	74 6e		 je	 SHORT $LN78@LoadFloat_@5
  00146	32 d3		 xor	 dl, bl
  00148	88 55 f2	 mov	 BYTE PTR __k$[ebp+18], dl
  0014b	8a 50 13	 mov	 dl, BYTE PTR [eax+19]
  0014e	84 d2		 test	 dl, dl
  00150	74 5c		 je	 SHORT $LN77@LoadFloat_@5
  00152	80 f2 ea	 xor	 dl, -22			; ffffffeaH
  00155	80 78 14 00	 cmp	 BYTE PTR [eax+20], 0
  00159	88 55 f3	 mov	 BYTE PTR __k$[ebp+19], dl
  0015c	0f 84 ba 00 00
	00		 je	 $LN1@LoadFloat_@5
  00162	8a 50 15	 mov	 dl, BYTE PTR [eax+21]
  00165	84 d2		 test	 dl, dl
  00167	74 40		 je	 SHORT $LN75@LoadFloat_@5
  00169	32 d1		 xor	 dl, cl
  0016b	88 55 f5	 mov	 BYTE PTR __k$[ebp+21], dl
  0016e	8a 50 16	 mov	 dl, BYTE PTR [eax+22]
  00171	84 d2		 test	 dl, dl
  00173	74 2f		 je	 SHORT $LN74@LoadFloat_@5
  00175	32 d3		 xor	 dl, bl
  00177	88 55 f6	 mov	 BYTE PTR __k$[ebp+22], dl
  0017a	8a 50 17	 mov	 dl, BYTE PTR [eax+23]
  0017d	84 d2		 test	 dl, dl
  0017f	74 1d		 je	 SHORT $LN73@LoadFloat_@5
  00181	8a 40 18	 mov	 al, BYTE PTR [eax+24]
  00184	80 f2 ea	 xor	 dl, -22			; ffffffeaH
  00187	88 55 f7	 mov	 BYTE PTR __k$[ebp+23], dl
  0018a	84 c0		 test	 al, al
  0018c	74 0a		 je	 SHORT $LN72@LoadFloat_@5
  0018e	34 ed		 xor	 al, -19			; ffffffedH
  00190	88 45 f8	 mov	 BYTE PTR __k$[ebp+24], al
  00193	e9 84 00 00 00	 jmp	 $LN1@LoadFloat_@5
$LN72@LoadFloat_@5:
  00198	c6 45 f8 ed	 mov	 BYTE PTR __k$[ebp+24], -19 ; ffffffedH
  0019c	eb 7e		 jmp	 SHORT $LN1@LoadFloat_@5
$LN73@LoadFloat_@5:
  0019e	c6 45 f7 ea	 mov	 BYTE PTR __k$[ebp+23], -22 ; ffffffeaH
  001a2	eb 78		 jmp	 SHORT $LN1@LoadFloat_@5
$LN74@LoadFloat_@5:
  001a4	88 5d f6	 mov	 BYTE PTR __k$[ebp+22], bl
  001a7	eb 73		 jmp	 SHORT $LN1@LoadFloat_@5
$LN75@LoadFloat_@5:
  001a9	88 4d f5	 mov	 BYTE PTR __k$[ebp+21], cl
  001ac	eb 6e		 jmp	 SHORT $LN1@LoadFloat_@5
$LN77@LoadFloat_@5:
  001ae	c6 45 f3 ea	 mov	 BYTE PTR __k$[ebp+19], -22 ; ffffffeaH
  001b2	eb 68		 jmp	 SHORT $LN1@LoadFloat_@5
$LN78@LoadFloat_@5:
  001b4	88 5d f2	 mov	 BYTE PTR __k$[ebp+18], bl
  001b7	eb 63		 jmp	 SHORT $LN1@LoadFloat_@5
$LN79@LoadFloat_@5:
  001b9	88 4d f1	 mov	 BYTE PTR __k$[ebp+17], cl
  001bc	eb 5e		 jmp	 SHORT $LN1@LoadFloat_@5
$LN80@LoadFloat_@5:
  001be	c6 45 f0 ed	 mov	 BYTE PTR __k$[ebp+16], -19 ; ffffffedH
  001c2	eb 58		 jmp	 SHORT $LN1@LoadFloat_@5
$LN81@LoadFloat_@5:
  001c4	c6 45 ef ea	 mov	 BYTE PTR __k$[ebp+15], -22 ; ffffffeaH
  001c8	eb 52		 jmp	 SHORT $LN1@LoadFloat_@5
$LN82@LoadFloat_@5:
  001ca	88 5d ee	 mov	 BYTE PTR __k$[ebp+14], bl
  001cd	eb 4d		 jmp	 SHORT $LN1@LoadFloat_@5
$LN83@LoadFloat_@5:
  001cf	88 4d ed	 mov	 BYTE PTR __k$[ebp+13], cl
  001d2	eb 48		 jmp	 SHORT $LN1@LoadFloat_@5
$LN84@LoadFloat_@5:
  001d4	c6 45 ec ed	 mov	 BYTE PTR __k$[ebp+12], -19 ; ffffffedH
  001d8	eb 42		 jmp	 SHORT $LN1@LoadFloat_@5
$LN85@LoadFloat_@5:
  001da	c6 45 eb ea	 mov	 BYTE PTR __k$[ebp+11], -22 ; ffffffeaH
  001de	eb 3c		 jmp	 SHORT $LN1@LoadFloat_@5
$LN86@LoadFloat_@5:
  001e0	88 5d ea	 mov	 BYTE PTR __k$[ebp+10], bl
  001e3	eb 37		 jmp	 SHORT $LN1@LoadFloat_@5
$LN87@LoadFloat_@5:
  001e5	88 4d e9	 mov	 BYTE PTR __k$[ebp+9], cl
  001e8	eb 32		 jmp	 SHORT $LN1@LoadFloat_@5
$LN88@LoadFloat_@5:
  001ea	c6 45 e8 ed	 mov	 BYTE PTR __k$[ebp+8], -19 ; ffffffedH
  001ee	eb 2c		 jmp	 SHORT $LN1@LoadFloat_@5
$LN89@LoadFloat_@5:
  001f0	c6 45 e7 ea	 mov	 BYTE PTR __k$[ebp+7], -22 ; ffffffeaH
  001f4	eb 26		 jmp	 SHORT $LN1@LoadFloat_@5
$LN90@LoadFloat_@5:
  001f6	88 5d e6	 mov	 BYTE PTR __k$[ebp+6], bl
  001f9	eb 21		 jmp	 SHORT $LN1@LoadFloat_@5
$LN91@LoadFloat_@5:
  001fb	88 4d e5	 mov	 BYTE PTR __k$[ebp+5], cl
  001fe	eb 1c		 jmp	 SHORT $LN1@LoadFloat_@5
$LN92@LoadFloat_@5:
  00200	c6 45 e4 ed	 mov	 BYTE PTR __k$[ebp+4], -19 ; ffffffedH
  00204	eb 16		 jmp	 SHORT $LN1@LoadFloat_@5
$LN93@LoadFloat_@5:
  00206	c6 45 e3 ea	 mov	 BYTE PTR __k$[ebp+3], -22 ; ffffffeaH
  0020a	eb 10		 jmp	 SHORT $LN1@LoadFloat_@5
$LN94@LoadFloat_@5:
  0020c	c6 45 e2 eb	 mov	 BYTE PTR __k$[ebp+2], -21 ; ffffffebH
  00210	eb 0a		 jmp	 SHORT $LN1@LoadFloat_@5
$LN95@LoadFloat_@5:
  00212	c6 45 e1 ec	 mov	 BYTE PTR __k$[ebp+1], -20 ; ffffffecH
  00216	eb 04		 jmp	 SHORT $LN1@LoadFloat_@5
$LN96@LoadFloat_@5:
  00218	c6 45 e0 ed	 mov	 BYTE PTR __k$[ebp], -19	; ffffffedH
$LN1@LoadFloat_@5:
  0021c	6a 05		 push	 5
  0021e	8d 45 e0	 lea	 eax, DWORD PTR __k$[ebp]
  00221	c6 45 f4 00	 mov	 BYTE PTR __k$[ebp+20], 0
  00225	5a		 pop	 edx
$LL104@LoadFloat_@5:
  00226	81 30 ed ec eb
	ea		 xor	 DWORD PTR [eax], -353637139 ; eaebecedH
  0022c	83 c0 04	 add	 eax, 4
  0022f	4a		 dec	 edx
  00230	75 f4		 jne	 SHORT $LL104@LoadFloat_@5

; 137  : 		return LoadFloat(_k, f);

  00232	f3 0f 10 45 0c	 movss	 xmm0, DWORD PTR _f$[ebp]
  00237	51		 push	 ecx
  00238	8d 45 e0	 lea	 eax, DWORD PTR __k$[ebp]
  0023b	f3 0f 11 04 24	 movss	 DWORD PTR [esp], xmm0
  00240	50		 push	 eax
  00241	8b ce		 mov	 ecx, esi
  00243	ff 15 00 00 00
	00		 call	 DWORD PTR __imp_?LoadFloat@ioINILoader@@QAEMPBDM@Z

; 138  : 	}

  00249	8b 4d fc	 mov	 ecx, DWORD PTR __$ArrayPad$[ebp]
  0024c	5e		 pop	 esi
  0024d	33 cd		 xor	 ecx, ebp
  0024f	5b		 pop	 ebx
  00250	e8 00 00 00 00	 call	 @__security_check_cookie@4
  00255	c9		 leave
  00256	c2 08 00	 ret	 8
??$LoadFloat_e@$0BF@@ioINILoader@@QAEMAAY0BF@$$CBDM@Z ENDP ; ioINILoader::LoadFloat_e<21>
_TEXT	ENDS
PUBLIC	_this$GSCopy$
PUBLIC	__$ArrayPad$
PUBLIC	??$LoadString_e@$0BM@@ioINILoader@@QAEXAAY0BM@$$CBDAAY00$$CBDPADH@Z ; ioINILoader::LoadString_e<28>
; Function compile flags: /Ogsp
;	COMDAT ??$LoadString_e@$0BM@@ioINILoader@@QAEXAAY0BM@$$CBDAAY00$$CBDPADH@Z
_TEXT	SEGMENT
_this$GSCopy$ = -40					; size = 4
__k$ = -36						; size = 28
__$ArrayPad$ = -4					; size = 4
_k$ = 8							; size = 4
_d$ = 12						; size = 4
_b$ = 16						; size = 4
_i$ = 20						; size = 4
??$LoadString_e@$0BM@@ioINILoader@@QAEXAAY0BM@$$CBDAAY00$$CBDPADH@Z PROC ; ioINILoader::LoadString_e<28>, COMDAT
; _this$ = ecx

; 161  : 	{

  00000	55		 push	 ebp
  00001	8b ec		 mov	 ebp, esp
  00003	83 ec 28	 sub	 esp, 40			; 00000028H
  00006	a1 00 00 00 00	 mov	 eax, DWORD PTR ___security_cookie
  0000b	33 c5		 xor	 eax, ebp
  0000d	89 45 fc	 mov	 DWORD PTR __$ArrayPad$[ebp], eax
  00010	8b 45 08	 mov	 eax, DWORD PTR _k$[ebp]

; 162  : 		_ENCSTR(k, _k);

  00013	8a 10		 mov	 dl, BYTE PTR [eax]
  00015	53		 push	 ebx
  00016	56		 push	 esi
  00017	8b 75 0c	 mov	 esi, DWORD PTR _d$[ebp]
  0001a	57		 push	 edi
  0001b	8b 7d 10	 mov	 edi, DWORD PTR _b$[ebp]
  0001e	89 4d d8	 mov	 DWORD PTR _this$GSCopy$[ebp], ecx
  00021	84 d2		 test	 dl, dl
  00023	0f 84 a9 02 00
	00		 je	 $LN96@LoadString@3
  00029	80 f2 ed	 xor	 dl, -19			; ffffffedH
  0002c	88 55 dc	 mov	 BYTE PTR __k$[ebp], dl
  0002f	8a 50 01	 mov	 dl, BYTE PTR [eax+1]
  00032	84 d2		 test	 dl, dl
  00034	0f 84 92 02 00
	00		 je	 $LN95@LoadString@3
  0003a	b3 ec		 mov	 bl, -20			; ffffffecH
  0003c	32 d3		 xor	 dl, bl
  0003e	88 55 dd	 mov	 BYTE PTR __k$[ebp+1], dl
  00041	8a 50 02	 mov	 dl, BYTE PTR [eax+2]
  00044	84 d2		 test	 dl, dl
  00046	0f 84 7a 02 00
	00		 je	 $LN94@LoadString@3
  0004c	b1 eb		 mov	 cl, -21			; ffffffebH
  0004e	32 d1		 xor	 dl, cl
  00050	88 55 de	 mov	 BYTE PTR __k$[ebp+2], dl
  00053	8a 50 03	 mov	 dl, BYTE PTR [eax+3]
  00056	84 d2		 test	 dl, dl
  00058	0f 84 62 02 00
	00		 je	 $LN93@LoadString@3
  0005e	80 f2 ea	 xor	 dl, -22			; ffffffeaH
  00061	88 55 df	 mov	 BYTE PTR __k$[ebp+3], dl
  00064	8a 50 04	 mov	 dl, BYTE PTR [eax+4]
  00067	84 d2		 test	 dl, dl
  00069	0f 84 4b 02 00
	00		 je	 $LN92@LoadString@3
  0006f	80 f2 ed	 xor	 dl, -19			; ffffffedH
  00072	88 55 e0	 mov	 BYTE PTR __k$[ebp+4], dl
  00075	8a 50 05	 mov	 dl, BYTE PTR [eax+5]
  00078	84 d2		 test	 dl, dl
  0007a	0f 84 35 02 00
	00		 je	 $LN91@LoadString@3
  00080	32 d3		 xor	 dl, bl
  00082	88 55 e1	 mov	 BYTE PTR __k$[ebp+5], dl
  00085	8a 50 06	 mov	 dl, BYTE PTR [eax+6]
  00088	84 d2		 test	 dl, dl
  0008a	0f 84 20 02 00
	00		 je	 $LN90@LoadString@3
  00090	32 d1		 xor	 dl, cl
  00092	88 55 e2	 mov	 BYTE PTR __k$[ebp+6], dl
  00095	8a 50 07	 mov	 dl, BYTE PTR [eax+7]
  00098	84 d2		 test	 dl, dl
  0009a	0f 84 0a 02 00
	00		 je	 $LN89@LoadString@3
  000a0	80 f2 ea	 xor	 dl, -22			; ffffffeaH
  000a3	88 55 e3	 mov	 BYTE PTR __k$[ebp+7], dl
  000a6	8a 50 08	 mov	 dl, BYTE PTR [eax+8]
  000a9	84 d2		 test	 dl, dl
  000ab	0f 84 f3 01 00
	00		 je	 $LN88@LoadString@3
  000b1	80 f2 ed	 xor	 dl, -19			; ffffffedH
  000b4	88 55 e4	 mov	 BYTE PTR __k$[ebp+8], dl
  000b7	8a 50 09	 mov	 dl, BYTE PTR [eax+9]
  000ba	84 d2		 test	 dl, dl
  000bc	0f 84 dd 01 00
	00		 je	 $LN87@LoadString@3
  000c2	32 d3		 xor	 dl, bl
  000c4	88 55 e5	 mov	 BYTE PTR __k$[ebp+9], dl
  000c7	8a 50 0a	 mov	 dl, BYTE PTR [eax+10]
  000ca	84 d2		 test	 dl, dl
  000cc	0f 84 c8 01 00
	00		 je	 $LN86@LoadString@3
  000d2	32 d1		 xor	 dl, cl
  000d4	88 55 e6	 mov	 BYTE PTR __k$[ebp+10], dl
  000d7	8a 50 0b	 mov	 dl, BYTE PTR [eax+11]
  000da	84 d2		 test	 dl, dl
  000dc	0f 84 b2 01 00
	00		 je	 $LN85@LoadString@3
  000e2	80 f2 ea	 xor	 dl, -22			; ffffffeaH
  000e5	88 55 e7	 mov	 BYTE PTR __k$[ebp+11], dl
  000e8	8a 50 0c	 mov	 dl, BYTE PTR [eax+12]
  000eb	84 d2		 test	 dl, dl
  000ed	0f 84 9b 01 00
	00		 je	 $LN84@LoadString@3
  000f3	80 f2 ed	 xor	 dl, -19			; ffffffedH
  000f6	88 55 e8	 mov	 BYTE PTR __k$[ebp+12], dl
  000f9	8a 50 0d	 mov	 dl, BYTE PTR [eax+13]
  000fc	84 d2		 test	 dl, dl
  000fe	0f 84 85 01 00
	00		 je	 $LN83@LoadString@3
  00104	32 d3		 xor	 dl, bl
  00106	88 55 e9	 mov	 BYTE PTR __k$[ebp+13], dl
  00109	8a 50 0e	 mov	 dl, BYTE PTR [eax+14]
  0010c	84 d2		 test	 dl, dl
  0010e	0f 84 70 01 00
	00		 je	 $LN82@LoadString@3
  00114	32 d1		 xor	 dl, cl
  00116	88 55 ea	 mov	 BYTE PTR __k$[ebp+14], dl
  00119	8a 50 0f	 mov	 dl, BYTE PTR [eax+15]
  0011c	84 d2		 test	 dl, dl
  0011e	0f 84 5a 01 00
	00		 je	 $LN81@LoadString@3
  00124	80 f2 ea	 xor	 dl, -22			; ffffffeaH
  00127	88 55 eb	 mov	 BYTE PTR __k$[ebp+15], dl
  0012a	8a 50 10	 mov	 dl, BYTE PTR [eax+16]
  0012d	84 d2		 test	 dl, dl
  0012f	0f 84 43 01 00
	00		 je	 $LN80@LoadString@3
  00135	80 f2 ed	 xor	 dl, -19			; ffffffedH
  00138	88 55 ec	 mov	 BYTE PTR __k$[ebp+16], dl
  0013b	8a 50 11	 mov	 dl, BYTE PTR [eax+17]
  0013e	84 d2		 test	 dl, dl
  00140	0f 84 2d 01 00
	00		 je	 $LN79@LoadString@3
  00146	32 d3		 xor	 dl, bl
  00148	88 55 ed	 mov	 BYTE PTR __k$[ebp+17], dl
  0014b	8a 50 12	 mov	 dl, BYTE PTR [eax+18]
  0014e	84 d2		 test	 dl, dl
  00150	0f 84 18 01 00
	00		 je	 $LN78@LoadString@3
  00156	32 d1		 xor	 dl, cl
  00158	88 55 ee	 mov	 BYTE PTR __k$[ebp+18], dl
  0015b	8a 50 13	 mov	 dl, BYTE PTR [eax+19]
  0015e	84 d2		 test	 dl, dl
  00160	0f 84 02 01 00
	00		 je	 $LN77@LoadString@3
  00166	80 f2 ea	 xor	 dl, -22			; ffffffeaH
  00169	88 55 ef	 mov	 BYTE PTR __k$[ebp+19], dl
  0016c	8a 50 14	 mov	 dl, BYTE PTR [eax+20]
  0016f	84 d2		 test	 dl, dl
  00171	0f 84 eb 00 00
	00		 je	 $LN76@LoadString@3
  00177	80 f2 ed	 xor	 dl, -19			; ffffffedH
  0017a	88 55 f0	 mov	 BYTE PTR __k$[ebp+20], dl
  0017d	8a 50 15	 mov	 dl, BYTE PTR [eax+21]
  00180	84 d2		 test	 dl, dl
  00182	0f 84 d5 00 00
	00		 je	 $LN75@LoadString@3
  00188	32 d3		 xor	 dl, bl
  0018a	88 55 f1	 mov	 BYTE PTR __k$[ebp+21], dl
  0018d	8a 50 16	 mov	 dl, BYTE PTR [eax+22]
  00190	84 d2		 test	 dl, dl
  00192	0f 84 c0 00 00
	00		 je	 $LN74@LoadString@3
  00198	32 d1		 xor	 dl, cl
  0019a	88 55 f2	 mov	 BYTE PTR __k$[ebp+22], dl
  0019d	8a 50 17	 mov	 dl, BYTE PTR [eax+23]
  001a0	84 d2		 test	 dl, dl
  001a2	0f 84 aa 00 00
	00		 je	 $LN73@LoadString@3
  001a8	80 f2 ea	 xor	 dl, -22			; ffffffeaH
  001ab	88 55 f3	 mov	 BYTE PTR __k$[ebp+23], dl
  001ae	8a 50 18	 mov	 dl, BYTE PTR [eax+24]
  001b1	84 d2		 test	 dl, dl
  001b3	0f 84 90 00 00
	00		 je	 $LN72@LoadString@3
  001b9	80 f2 ed	 xor	 dl, -19			; ffffffedH
  001bc	88 55 f4	 mov	 BYTE PTR __k$[ebp+24], dl
  001bf	8a 50 19	 mov	 dl, BYTE PTR [eax+25]
  001c2	84 d2		 test	 dl, dl
  001c4	74 7b		 je	 SHORT $LN71@LoadString@3
  001c6	32 d3		 xor	 dl, bl
  001c8	88 55 f5	 mov	 BYTE PTR __k$[ebp+25], dl
  001cb	8a 50 1a	 mov	 dl, BYTE PTR [eax+26]
  001ce	84 d2		 test	 dl, dl
  001d0	74 67		 je	 SHORT $LN70@LoadString@3
  001d2	32 d1		 xor	 dl, cl
  001d4	80 78 1b 00	 cmp	 BYTE PTR [eax+27], 0
  001d8	88 55 f6	 mov	 BYTE PTR __k$[ebp+26], dl
  001db	0f 84 f5 00 00
	00		 je	 $LN111@LoadString@3
  001e1	8a 50 1c	 mov	 dl, BYTE PTR [eax+28]
  001e4	84 d2		 test	 dl, dl
  001e6	74 48		 je	 SHORT $LN68@LoadString@3
  001e8	80 f2 ed	 xor	 dl, -19			; ffffffedH
  001eb	88 55 f8	 mov	 BYTE PTR __k$[ebp+28], dl
  001ee	8a 50 1d	 mov	 dl, BYTE PTR [eax+29]
  001f1	84 d2		 test	 dl, dl
  001f3	74 33		 je	 SHORT $LN67@LoadString@3
  001f5	32 d3		 xor	 dl, bl
  001f7	88 55 f9	 mov	 BYTE PTR __k$[ebp+29], dl
  001fa	8a 50 1e	 mov	 dl, BYTE PTR [eax+30]
  001fd	84 d2		 test	 dl, dl
  001ff	74 1f		 je	 SHORT $LN66@LoadString@3
  00201	8a 40 1f	 mov	 al, BYTE PTR [eax+31]
  00204	32 d1		 xor	 dl, cl
  00206	88 55 fa	 mov	 BYTE PTR __k$[ebp+30], dl
  00209	84 c0		 test	 al, al
  0020b	74 0a		 je	 SHORT $LN65@LoadString@3
  0020d	34 ea		 xor	 al, -22			; ffffffeaH
  0020f	88 45 fb	 mov	 BYTE PTR __k$[ebp+31], al
  00212	e9 bf 00 00 00	 jmp	 $LN111@LoadString@3
$LN65@LoadString@3:
  00217	c6 45 fb ea	 mov	 BYTE PTR __k$[ebp+31], -22 ; ffffffeaH
  0021b	e9 b6 00 00 00	 jmp	 $LN111@LoadString@3
$LN66@LoadString@3:
  00220	88 4d fa	 mov	 BYTE PTR __k$[ebp+30], cl
  00223	e9 ae 00 00 00	 jmp	 $LN111@LoadString@3
$LN67@LoadString@3:
  00228	88 5d f9	 mov	 BYTE PTR __k$[ebp+29], bl
  0022b	e9 a6 00 00 00	 jmp	 $LN111@LoadString@3
$LN68@LoadString@3:
  00230	c6 45 f8 ed	 mov	 BYTE PTR __k$[ebp+28], -19 ; ffffffedH
  00234	e9 9d 00 00 00	 jmp	 $LN111@LoadString@3
$LN70@LoadString@3:
  00239	88 4d f6	 mov	 BYTE PTR __k$[ebp+26], cl
  0023c	e9 95 00 00 00	 jmp	 $LN111@LoadString@3
$LN71@LoadString@3:
  00241	88 5d f5	 mov	 BYTE PTR __k$[ebp+25], bl
  00244	e9 8d 00 00 00	 jmp	 $LN111@LoadString@3
$LN72@LoadString@3:
  00249	c6 45 f4 ed	 mov	 BYTE PTR __k$[ebp+24], -19 ; ffffffedH
  0024d	e9 84 00 00 00	 jmp	 $LN111@LoadString@3
$LN73@LoadString@3:
  00252	c6 45 f3 ea	 mov	 BYTE PTR __k$[ebp+23], -22 ; ffffffeaH
  00256	eb 7e		 jmp	 SHORT $LN111@LoadString@3
$LN74@LoadString@3:
  00258	88 4d f2	 mov	 BYTE PTR __k$[ebp+22], cl
  0025b	eb 79		 jmp	 SHORT $LN111@LoadString@3
$LN75@LoadString@3:
  0025d	88 5d f1	 mov	 BYTE PTR __k$[ebp+21], bl
  00260	eb 74		 jmp	 SHORT $LN111@LoadString@3
$LN76@LoadString@3:
  00262	c6 45 f0 ed	 mov	 BYTE PTR __k$[ebp+20], -19 ; ffffffedH
  00266	eb 6e		 jmp	 SHORT $LN111@LoadString@3
$LN77@LoadString@3:
  00268	c6 45 ef ea	 mov	 BYTE PTR __k$[ebp+19], -22 ; ffffffeaH
  0026c	eb 68		 jmp	 SHORT $LN111@LoadString@3
$LN78@LoadString@3:
  0026e	88 4d ee	 mov	 BYTE PTR __k$[ebp+18], cl
  00271	eb 63		 jmp	 SHORT $LN111@LoadString@3
$LN79@LoadString@3:
  00273	88 5d ed	 mov	 BYTE PTR __k$[ebp+17], bl
  00276	eb 5e		 jmp	 SHORT $LN111@LoadString@3
$LN80@LoadString@3:
  00278	c6 45 ec ed	 mov	 BYTE PTR __k$[ebp+16], -19 ; ffffffedH
  0027c	eb 58		 jmp	 SHORT $LN111@LoadString@3
$LN81@LoadString@3:
  0027e	c6 45 eb ea	 mov	 BYTE PTR __k$[ebp+15], -22 ; ffffffeaH
  00282	eb 52		 jmp	 SHORT $LN111@LoadString@3
$LN82@LoadString@3:
  00284	88 4d ea	 mov	 BYTE PTR __k$[ebp+14], cl
  00287	eb 4d		 jmp	 SHORT $LN111@LoadString@3
$LN83@LoadString@3:
  00289	88 5d e9	 mov	 BYTE PTR __k$[ebp+13], bl
  0028c	eb 48		 jmp	 SHORT $LN111@LoadString@3
$LN84@LoadString@3:
  0028e	c6 45 e8 ed	 mov	 BYTE PTR __k$[ebp+12], -19 ; ffffffedH
  00292	eb 42		 jmp	 SHORT $LN111@LoadString@3
$LN85@LoadString@3:
  00294	c6 45 e7 ea	 mov	 BYTE PTR __k$[ebp+11], -22 ; ffffffeaH
  00298	eb 3c		 jmp	 SHORT $LN111@LoadString@3
$LN86@LoadString@3:
  0029a	88 4d e6	 mov	 BYTE PTR __k$[ebp+10], cl
  0029d	eb 37		 jmp	 SHORT $LN111@LoadString@3
$LN87@LoadString@3:
  0029f	88 5d e5	 mov	 BYTE PTR __k$[ebp+9], bl
  002a2	eb 32		 jmp	 SHORT $LN111@LoadString@3
$LN88@LoadString@3:
  002a4	c6 45 e4 ed	 mov	 BYTE PTR __k$[ebp+8], -19 ; ffffffedH
  002a8	eb 2c		 jmp	 SHORT $LN111@LoadString@3
$LN89@LoadString@3:
  002aa	c6 45 e3 ea	 mov	 BYTE PTR __k$[ebp+7], -22 ; ffffffeaH
  002ae	eb 26		 jmp	 SHORT $LN111@LoadString@3
$LN90@LoadString@3:
  002b0	88 4d e2	 mov	 BYTE PTR __k$[ebp+6], cl
  002b3	eb 21		 jmp	 SHORT $LN111@LoadString@3
$LN91@LoadString@3:
  002b5	88 5d e1	 mov	 BYTE PTR __k$[ebp+5], bl
  002b8	eb 1c		 jmp	 SHORT $LN111@LoadString@3
$LN92@LoadString@3:
  002ba	c6 45 e0 ed	 mov	 BYTE PTR __k$[ebp+4], -19 ; ffffffedH
  002be	eb 16		 jmp	 SHORT $LN111@LoadString@3
$LN93@LoadString@3:
  002c0	c6 45 df ea	 mov	 BYTE PTR __k$[ebp+3], -22 ; ffffffeaH
  002c4	eb 10		 jmp	 SHORT $LN111@LoadString@3
$LN94@LoadString@3:
  002c6	c6 45 de eb	 mov	 BYTE PTR __k$[ebp+2], -21 ; ffffffebH
  002ca	eb 0a		 jmp	 SHORT $LN111@LoadString@3
$LN95@LoadString@3:
  002cc	c6 45 dd ec	 mov	 BYTE PTR __k$[ebp+1], -20 ; ffffffecH
  002d0	eb 04		 jmp	 SHORT $LN111@LoadString@3
$LN96@LoadString@3:
  002d2	c6 45 dc ed	 mov	 BYTE PTR __k$[ebp], -19	; ffffffedH
$LN111@LoadString@3:
  002d6	6a 06		 push	 6
  002d8	8d 45 dc	 lea	 eax, DWORD PTR __k$[ebp]
  002db	c6 45 f7 00	 mov	 BYTE PTR __k$[ebp+27], 0
  002df	5a		 pop	 edx
$LL104@LoadString@3:
  002e0	81 30 ed ec eb
	ea		 xor	 DWORD PTR [eax], -353637139 ; eaebecedH
  002e6	83 c0 04	 add	 eax, 4
  002e9	4a		 dec	 edx
  002ea	75 f4		 jne	 SHORT $LL104@LoadString@3
  002ec	6a 18		 push	 24			; 00000018H
  002ee	58		 pop	 eax
$LL101@LoadString@3:
  002ef	8b c8		 mov	 ecx, eax
  002f1	81 e1 03 00 00
	80		 and	 ecx, -2147483645	; 80000003H
  002f7	79 05		 jns	 SHORT $LN112@LoadString@3
  002f9	49		 dec	 ecx
  002fa	83 c9 fc	 or	 ecx, -4			; fffffffcH
  002fd	41		 inc	 ecx
$LN112@LoadString@3:
  002fe	b2 ed		 mov	 dl, -19			; ffffffedH
  00300	2a d1		 sub	 dl, cl
  00302	30 54 05 dc	 xor	 BYTE PTR __k$[ebp+eax], dl
  00306	40		 inc	 eax
  00307	83 f8 1b	 cmp	 eax, 27			; 0000001bH
  0030a	7c e3		 jl	 SHORT $LL101@LoadString@3

; 163  : 		LoadString(_k, d, b, i);

  0030c	ff 75 14	 push	 DWORD PTR _i$[ebp]
  0030f	8b 4d d8	 mov	 ecx, DWORD PTR _this$GSCopy$[ebp]
  00312	57		 push	 edi
  00313	56		 push	 esi
  00314	8d 45 dc	 lea	 eax, DWORD PTR __k$[ebp]
  00317	50		 push	 eax
  00318	ff 15 00 00 00
	00		 call	 DWORD PTR __imp_?LoadStringA@ioINILoader@@QAEXPBD0PADH@Z

; 164  : 	}

  0031e	8b 4d fc	 mov	 ecx, DWORD PTR __$ArrayPad$[ebp]
  00321	5f		 pop	 edi
  00322	5e		 pop	 esi
  00323	33 cd		 xor	 ecx, ebp
  00325	5b		 pop	 ebx
  00326	e8 00 00 00 00	 call	 @__security_check_cookie@4
  0032b	c9		 leave
  0032c	c2 10 00	 ret	 16			; 00000010H
??$LoadString_e@$0BM@@ioINILoader@@QAEXAAY0BM@$$CBDAAY00$$CBDPADH@Z ENDP ; ioINILoader::LoadString_e<28>
_TEXT	ENDS
PUBLIC	_this$GSCopy$
PUBLIC	__$ArrayPad$
PUBLIC	??$LoadString_e@$0BL@@ioINILoader@@QAEXAAY0BL@$$CBDAAY00$$CBDPADH@Z ; ioINILoader::LoadString_e<27>
; Function compile flags: /Ogsp
;	COMDAT ??$LoadString_e@$0BL@@ioINILoader@@QAEXAAY0BL@$$CBDAAY00$$CBDPADH@Z
_TEXT	SEGMENT
_this$GSCopy$ = -40					; size = 4
__k$ = -36						; size = 27
__$ArrayPad$ = -4					; size = 4
_k$ = 8							; size = 4
_d$ = 12						; size = 4
_b$ = 16						; size = 4
_i$ = 20						; size = 4
??$LoadString_e@$0BL@@ioINILoader@@QAEXAAY0BL@$$CBDAAY00$$CBDPADH@Z PROC ; ioINILoader::LoadString_e<27>, COMDAT
; _this$ = ecx

; 161  : 	{

  00000	55		 push	 ebp
  00001	8b ec		 mov	 ebp, esp
  00003	83 ec 28	 sub	 esp, 40			; 00000028H
  00006	a1 00 00 00 00	 mov	 eax, DWORD PTR ___security_cookie
  0000b	33 c5		 xor	 eax, ebp
  0000d	89 45 fc	 mov	 DWORD PTR __$ArrayPad$[ebp], eax
  00010	8b 45 08	 mov	 eax, DWORD PTR _k$[ebp]

; 162  : 		_ENCSTR(k, _k);

  00013	8a 10		 mov	 dl, BYTE PTR [eax]
  00015	53		 push	 ebx
  00016	56		 push	 esi
  00017	8b 75 0c	 mov	 esi, DWORD PTR _d$[ebp]
  0001a	57		 push	 edi
  0001b	8b 7d 10	 mov	 edi, DWORD PTR _b$[ebp]
  0001e	89 4d d8	 mov	 DWORD PTR _this$GSCopy$[ebp], ecx
  00021	84 d2		 test	 dl, dl
  00023	0f 84 91 02 00
	00		 je	 $LN96@LoadString@4
  00029	80 f2 ed	 xor	 dl, -19			; ffffffedH
  0002c	88 55 dc	 mov	 BYTE PTR __k$[ebp], dl
  0002f	8a 50 01	 mov	 dl, BYTE PTR [eax+1]
  00032	84 d2		 test	 dl, dl
  00034	0f 84 7a 02 00
	00		 je	 $LN95@LoadString@4
  0003a	b1 ec		 mov	 cl, -20			; ffffffecH
  0003c	32 d1		 xor	 dl, cl
  0003e	88 55 dd	 mov	 BYTE PTR __k$[ebp+1], dl
  00041	8a 50 02	 mov	 dl, BYTE PTR [eax+2]
  00044	84 d2		 test	 dl, dl
  00046	0f 84 62 02 00
	00		 je	 $LN94@LoadString@4
  0004c	80 f2 eb	 xor	 dl, -21			; ffffffebH
  0004f	88 55 de	 mov	 BYTE PTR __k$[ebp+2], dl
  00052	8a 50 03	 mov	 dl, BYTE PTR [eax+3]
  00055	84 d2		 test	 dl, dl
  00057	0f 84 4b 02 00
	00		 je	 $LN93@LoadString@4
  0005d	b3 ea		 mov	 bl, -22			; ffffffeaH
  0005f	32 d3		 xor	 dl, bl
  00061	88 55 df	 mov	 BYTE PTR __k$[ebp+3], dl
  00064	8a 50 04	 mov	 dl, BYTE PTR [eax+4]
  00067	84 d2		 test	 dl, dl
  00069	0f 84 33 02 00
	00		 je	 $LN92@LoadString@4
  0006f	80 f2 ed	 xor	 dl, -19			; ffffffedH
  00072	88 55 e0	 mov	 BYTE PTR __k$[ebp+4], dl
  00075	8a 50 05	 mov	 dl, BYTE PTR [eax+5]
  00078	84 d2		 test	 dl, dl
  0007a	0f 84 1d 02 00
	00		 je	 $LN91@LoadString@4
  00080	32 d1		 xor	 dl, cl
  00082	88 55 e1	 mov	 BYTE PTR __k$[ebp+5], dl
  00085	8a 50 06	 mov	 dl, BYTE PTR [eax+6]
  00088	84 d2		 test	 dl, dl
  0008a	0f 84 07 02 00
	00		 je	 $LN90@LoadString@4
  00090	80 f2 eb	 xor	 dl, -21			; ffffffebH
  00093	88 55 e2	 mov	 BYTE PTR __k$[ebp+6], dl
  00096	8a 50 07	 mov	 dl, BYTE PTR [eax+7]
  00099	84 d2		 test	 dl, dl
  0009b	0f 84 f1 01 00
	00		 je	 $LN89@LoadString@4
  000a1	32 d3		 xor	 dl, bl
  000a3	88 55 e3	 mov	 BYTE PTR __k$[ebp+7], dl
  000a6	8a 50 08	 mov	 dl, BYTE PTR [eax+8]
  000a9	84 d2		 test	 dl, dl
  000ab	0f 84 db 01 00
	00		 je	 $LN88@LoadString@4
  000b1	80 f2 ed	 xor	 dl, -19			; ffffffedH
  000b4	88 55 e4	 mov	 BYTE PTR __k$[ebp+8], dl
  000b7	8a 50 09	 mov	 dl, BYTE PTR [eax+9]
  000ba	84 d2		 test	 dl, dl
  000bc	0f 84 c5 01 00
	00		 je	 $LN87@LoadString@4
  000c2	32 d1		 xor	 dl, cl
  000c4	88 55 e5	 mov	 BYTE PTR __k$[ebp+9], dl
  000c7	8a 50 0a	 mov	 dl, BYTE PTR [eax+10]
  000ca	84 d2		 test	 dl, dl
  000cc	0f 84 af 01 00
	00		 je	 $LN86@LoadString@4
  000d2	80 f2 eb	 xor	 dl, -21			; ffffffebH
  000d5	88 55 e6	 mov	 BYTE PTR __k$[ebp+10], dl
  000d8	8a 50 0b	 mov	 dl, BYTE PTR [eax+11]
  000db	84 d2		 test	 dl, dl
  000dd	0f 84 99 01 00
	00		 je	 $LN85@LoadString@4
  000e3	32 d3		 xor	 dl, bl
  000e5	88 55 e7	 mov	 BYTE PTR __k$[ebp+11], dl
  000e8	8a 50 0c	 mov	 dl, BYTE PTR [eax+12]
  000eb	84 d2		 test	 dl, dl
  000ed	0f 84 83 01 00
	00		 je	 $LN84@LoadString@4
  000f3	80 f2 ed	 xor	 dl, -19			; ffffffedH
  000f6	88 55 e8	 mov	 BYTE PTR __k$[ebp+12], dl
  000f9	8a 50 0d	 mov	 dl, BYTE PTR [eax+13]
  000fc	84 d2		 test	 dl, dl
  000fe	0f 84 6d 01 00
	00		 je	 $LN83@LoadString@4
  00104	32 d1		 xor	 dl, cl
  00106	88 55 e9	 mov	 BYTE PTR __k$[ebp+13], dl
  00109	8a 50 0e	 mov	 dl, BYTE PTR [eax+14]
  0010c	84 d2		 test	 dl, dl
  0010e	0f 84 57 01 00
	00		 je	 $LN82@LoadString@4
  00114	80 f2 eb	 xor	 dl, -21			; ffffffebH
  00117	88 55 ea	 mov	 BYTE PTR __k$[ebp+14], dl
  0011a	8a 50 0f	 mov	 dl, BYTE PTR [eax+15]
  0011d	84 d2		 test	 dl, dl
  0011f	0f 84 41 01 00
	00		 je	 $LN81@LoadString@4
  00125	32 d3		 xor	 dl, bl
  00127	88 55 eb	 mov	 BYTE PTR __k$[ebp+15], dl
  0012a	8a 50 10	 mov	 dl, BYTE PTR [eax+16]
  0012d	84 d2		 test	 dl, dl
  0012f	0f 84 2b 01 00
	00		 je	 $LN80@LoadString@4
  00135	80 f2 ed	 xor	 dl, -19			; ffffffedH
  00138	88 55 ec	 mov	 BYTE PTR __k$[ebp+16], dl
  0013b	8a 50 11	 mov	 dl, BYTE PTR [eax+17]
  0013e	84 d2		 test	 dl, dl
  00140	0f 84 15 01 00
	00		 je	 $LN79@LoadString@4
  00146	32 d1		 xor	 dl, cl
  00148	88 55 ed	 mov	 BYTE PTR __k$[ebp+17], dl
  0014b	8a 50 12	 mov	 dl, BYTE PTR [eax+18]
  0014e	84 d2		 test	 dl, dl
  00150	0f 84 ff 00 00
	00		 je	 $LN78@LoadString@4
  00156	80 f2 eb	 xor	 dl, -21			; ffffffebH
  00159	88 55 ee	 mov	 BYTE PTR __k$[ebp+18], dl
  0015c	8a 50 13	 mov	 dl, BYTE PTR [eax+19]
  0015f	84 d2		 test	 dl, dl
  00161	0f 84 e9 00 00
	00		 je	 $LN77@LoadString@4
  00167	32 d3		 xor	 dl, bl
  00169	88 55 ef	 mov	 BYTE PTR __k$[ebp+19], dl
  0016c	8a 50 14	 mov	 dl, BYTE PTR [eax+20]
  0016f	84 d2		 test	 dl, dl
  00171	0f 84 d3 00 00
	00		 je	 $LN76@LoadString@4
  00177	80 f2 ed	 xor	 dl, -19			; ffffffedH
  0017a	88 55 f0	 mov	 BYTE PTR __k$[ebp+20], dl
  0017d	8a 50 15	 mov	 dl, BYTE PTR [eax+21]
  00180	84 d2		 test	 dl, dl
  00182	0f 84 bd 00 00
	00		 je	 $LN75@LoadString@4
  00188	32 d1		 xor	 dl, cl
  0018a	88 55 f1	 mov	 BYTE PTR __k$[ebp+21], dl
  0018d	8a 50 16	 mov	 dl, BYTE PTR [eax+22]
  00190	84 d2		 test	 dl, dl
  00192	0f 84 a7 00 00
	00		 je	 $LN74@LoadString@4
  00198	80 f2 eb	 xor	 dl, -21			; ffffffebH
  0019b	88 55 f2	 mov	 BYTE PTR __k$[ebp+22], dl
  0019e	8a 50 17	 mov	 dl, BYTE PTR [eax+23]
  001a1	84 d2		 test	 dl, dl
  001a3	0f 84 91 00 00
	00		 je	 $LN73@LoadString@4
  001a9	32 d3		 xor	 dl, bl
  001ab	88 55 f3	 mov	 BYTE PTR __k$[ebp+23], dl
  001ae	8a 50 18	 mov	 dl, BYTE PTR [eax+24]
  001b1	84 d2		 test	 dl, dl
  001b3	74 7c		 je	 SHORT $LN72@LoadString@4
  001b5	80 f2 ed	 xor	 dl, -19			; ffffffedH
  001b8	88 55 f4	 mov	 BYTE PTR __k$[ebp+24], dl
  001bb	8a 50 19	 mov	 dl, BYTE PTR [eax+25]
  001be	84 d2		 test	 dl, dl
  001c0	74 67		 je	 SHORT $LN71@LoadString@4
  001c2	32 d1		 xor	 dl, cl
  001c4	80 78 1a 00	 cmp	 BYTE PTR [eax+26], 0
  001c8	88 55 f5	 mov	 BYTE PTR __k$[ebp+25], dl
  001cb	0f 84 ed 00 00
	00		 je	 $LN111@LoadString@4
  001d1	8a 50 1b	 mov	 dl, BYTE PTR [eax+27]
  001d4	84 d2		 test	 dl, dl
  001d6	74 49		 je	 SHORT $LN69@LoadString@4
  001d8	32 d3		 xor	 dl, bl
  001da	88 55 f7	 mov	 BYTE PTR __k$[ebp+27], dl
  001dd	8a 50 1c	 mov	 dl, BYTE PTR [eax+28]
  001e0	84 d2		 test	 dl, dl
  001e2	74 34		 je	 SHORT $LN68@LoadString@4
  001e4	80 f2 ed	 xor	 dl, -19			; ffffffedH
  001e7	88 55 f8	 mov	 BYTE PTR __k$[ebp+28], dl
  001ea	8a 50 1d	 mov	 dl, BYTE PTR [eax+29]
  001ed	84 d2		 test	 dl, dl
  001ef	74 1f		 je	 SHORT $LN67@LoadString@4
  001f1	8a 40 1e	 mov	 al, BYTE PTR [eax+30]
  001f4	32 d1		 xor	 dl, cl
  001f6	88 55 f9	 mov	 BYTE PTR __k$[ebp+29], dl
  001f9	84 c0		 test	 al, al
  001fb	74 0a		 je	 SHORT $LN66@LoadString@4
  001fd	34 eb		 xor	 al, -21			; ffffffebH
  001ff	88 45 fa	 mov	 BYTE PTR __k$[ebp+30], al
  00202	e9 b7 00 00 00	 jmp	 $LN111@LoadString@4
$LN66@LoadString@4:
  00207	c6 45 fa eb	 mov	 BYTE PTR __k$[ebp+30], -21 ; ffffffebH
  0020b	e9 ae 00 00 00	 jmp	 $LN111@LoadString@4
$LN67@LoadString@4:
  00210	88 4d f9	 mov	 BYTE PTR __k$[ebp+29], cl
  00213	e9 a6 00 00 00	 jmp	 $LN111@LoadString@4
$LN68@LoadString@4:
  00218	c6 45 f8 ed	 mov	 BYTE PTR __k$[ebp+28], -19 ; ffffffedH
  0021c	e9 9d 00 00 00	 jmp	 $LN111@LoadString@4
$LN69@LoadString@4:
  00221	88 5d f7	 mov	 BYTE PTR __k$[ebp+27], bl
  00224	e9 95 00 00 00	 jmp	 $LN111@LoadString@4
$LN71@LoadString@4:
  00229	88 4d f5	 mov	 BYTE PTR __k$[ebp+25], cl
  0022c	e9 8d 00 00 00	 jmp	 $LN111@LoadString@4
$LN72@LoadString@4:
  00231	c6 45 f4 ed	 mov	 BYTE PTR __k$[ebp+24], -19 ; ffffffedH
  00235	e9 84 00 00 00	 jmp	 $LN111@LoadString@4
$LN73@LoadString@4:
  0023a	88 5d f3	 mov	 BYTE PTR __k$[ebp+23], bl
  0023d	eb 7f		 jmp	 SHORT $LN111@LoadString@4
$LN74@LoadString@4:
  0023f	c6 45 f2 eb	 mov	 BYTE PTR __k$[ebp+22], -21 ; ffffffebH
  00243	eb 79		 jmp	 SHORT $LN111@LoadString@4
$LN75@LoadString@4:
  00245	88 4d f1	 mov	 BYTE PTR __k$[ebp+21], cl
  00248	eb 74		 jmp	 SHORT $LN111@LoadString@4
$LN76@LoadString@4:
  0024a	c6 45 f0 ed	 mov	 BYTE PTR __k$[ebp+20], -19 ; ffffffedH
  0024e	eb 6e		 jmp	 SHORT $LN111@LoadString@4
$LN77@LoadString@4:
  00250	88 5d ef	 mov	 BYTE PTR __k$[ebp+19], bl
  00253	eb 69		 jmp	 SHORT $LN111@LoadString@4
$LN78@LoadString@4:
  00255	c6 45 ee eb	 mov	 BYTE PTR __k$[ebp+18], -21 ; ffffffebH
  00259	eb 63		 jmp	 SHORT $LN111@LoadString@4
$LN79@LoadString@4:
  0025b	88 4d ed	 mov	 BYTE PTR __k$[ebp+17], cl
  0025e	eb 5e		 jmp	 SHORT $LN111@LoadString@4
$LN80@LoadString@4:
  00260	c6 45 ec ed	 mov	 BYTE PTR __k$[ebp+16], -19 ; ffffffedH
  00264	eb 58		 jmp	 SHORT $LN111@LoadString@4
$LN81@LoadString@4:
  00266	88 5d eb	 mov	 BYTE PTR __k$[ebp+15], bl
  00269	eb 53		 jmp	 SHORT $LN111@LoadString@4
$LN82@LoadString@4:
  0026b	c6 45 ea eb	 mov	 BYTE PTR __k$[ebp+14], -21 ; ffffffebH
  0026f	eb 4d		 jmp	 SHORT $LN111@LoadString@4
$LN83@LoadString@4:
  00271	88 4d e9	 mov	 BYTE PTR __k$[ebp+13], cl
  00274	eb 48		 jmp	 SHORT $LN111@LoadString@4
$LN84@LoadString@4:
  00276	c6 45 e8 ed	 mov	 BYTE PTR __k$[ebp+12], -19 ; ffffffedH
  0027a	eb 42		 jmp	 SHORT $LN111@LoadString@4
$LN85@LoadString@4:
  0027c	88 5d e7	 mov	 BYTE PTR __k$[ebp+11], bl
  0027f	eb 3d		 jmp	 SHORT $LN111@LoadString@4
$LN86@LoadString@4:
  00281	c6 45 e6 eb	 mov	 BYTE PTR __k$[ebp+10], -21 ; ffffffebH
  00285	eb 37		 jmp	 SHORT $LN111@LoadString@4
$LN87@LoadString@4:
  00287	88 4d e5	 mov	 BYTE PTR __k$[ebp+9], cl
  0028a	eb 32		 jmp	 SHORT $LN111@LoadString@4
$LN88@LoadString@4:
  0028c	c6 45 e4 ed	 mov	 BYTE PTR __k$[ebp+8], -19 ; ffffffedH
  00290	eb 2c		 jmp	 SHORT $LN111@LoadString@4
$LN89@LoadString@4:
  00292	88 5d e3	 mov	 BYTE PTR __k$[ebp+7], bl
  00295	eb 27		 jmp	 SHORT $LN111@LoadString@4
$LN90@LoadString@4:
  00297	c6 45 e2 eb	 mov	 BYTE PTR __k$[ebp+6], -21 ; ffffffebH
  0029b	eb 21		 jmp	 SHORT $LN111@LoadString@4
$LN91@LoadString@4:
  0029d	88 4d e1	 mov	 BYTE PTR __k$[ebp+5], cl
  002a0	eb 1c		 jmp	 SHORT $LN111@LoadString@4
$LN92@LoadString@4:
  002a2	c6 45 e0 ed	 mov	 BYTE PTR __k$[ebp+4], -19 ; ffffffedH
  002a6	eb 16		 jmp	 SHORT $LN111@LoadString@4
$LN93@LoadString@4:
  002a8	c6 45 df ea	 mov	 BYTE PTR __k$[ebp+3], -22 ; ffffffeaH
  002ac	eb 10		 jmp	 SHORT $LN111@LoadString@4
$LN94@LoadString@4:
  002ae	c6 45 de eb	 mov	 BYTE PTR __k$[ebp+2], -21 ; ffffffebH
  002b2	eb 0a		 jmp	 SHORT $LN111@LoadString@4
$LN95@LoadString@4:
  002b4	c6 45 dd ec	 mov	 BYTE PTR __k$[ebp+1], -20 ; ffffffecH
  002b8	eb 04		 jmp	 SHORT $LN111@LoadString@4
$LN96@LoadString@4:
  002ba	c6 45 dc ed	 mov	 BYTE PTR __k$[ebp], -19	; ffffffedH
$LN111@LoadString@4:
  002be	6a 06		 push	 6
  002c0	8d 45 dc	 lea	 eax, DWORD PTR __k$[ebp]
  002c3	c6 45 f6 00	 mov	 BYTE PTR __k$[ebp+26], 0
  002c7	5a		 pop	 edx
$LL104@LoadString@4:
  002c8	81 30 ed ec eb
	ea		 xor	 DWORD PTR [eax], -353637139 ; eaebecedH
  002ce	83 c0 04	 add	 eax, 4
  002d1	4a		 dec	 edx
  002d2	75 f4		 jne	 SHORT $LL104@LoadString@4
  002d4	6a 18		 push	 24			; 00000018H
  002d6	58		 pop	 eax
$LL101@LoadString@4:
  002d7	8b c8		 mov	 ecx, eax
  002d9	81 e1 03 00 00
	80		 and	 ecx, -2147483645	; 80000003H
  002df	79 05		 jns	 SHORT $LN112@LoadString@4
  002e1	49		 dec	 ecx
  002e2	83 c9 fc	 or	 ecx, -4			; fffffffcH
  002e5	41		 inc	 ecx
$LN112@LoadString@4:
  002e6	b2 ed		 mov	 dl, -19			; ffffffedH
  002e8	2a d1		 sub	 dl, cl
  002ea	30 54 05 dc	 xor	 BYTE PTR __k$[ebp+eax], dl
  002ee	40		 inc	 eax
  002ef	83 f8 1a	 cmp	 eax, 26			; 0000001aH
  002f2	7c e3		 jl	 SHORT $LL101@LoadString@4

; 163  : 		LoadString(_k, d, b, i);

  002f4	ff 75 14	 push	 DWORD PTR _i$[ebp]
  002f7	8b 4d d8	 mov	 ecx, DWORD PTR _this$GSCopy$[ebp]
  002fa	57		 push	 edi
  002fb	56		 push	 esi
  002fc	8d 45 dc	 lea	 eax, DWORD PTR __k$[ebp]
  002ff	50		 push	 eax
  00300	ff 15 00 00 00
	00		 call	 DWORD PTR __imp_?LoadStringA@ioINILoader@@QAEXPBD0PADH@Z

; 164  : 	}

  00306	8b 4d fc	 mov	 ecx, DWORD PTR __$ArrayPad$[ebp]
  00309	5f		 pop	 edi
  0030a	5e		 pop	 esi
  0030b	33 cd		 xor	 ecx, ebp
  0030d	5b		 pop	 ebx
  0030e	e8 00 00 00 00	 call	 @__security_check_cookie@4
  00313	c9		 leave
  00314	c2 10 00	 ret	 16			; 00000010H
??$LoadString_e@$0BL@@ioINILoader@@QAEXAAY0BL@$$CBDAAY00$$CBDPADH@Z ENDP ; ioINILoader::LoadString_e<27>
_TEXT	ENDS
PUBLIC	__$ArrayPad$
PUBLIC	??$LoadAttackAttribute_e@$0BB@@@YAXAAY0BB@$$CBDAAUAttackAttribute@@AAVioINILoader@@@Z ; LoadAttackAttribute_e<17>
EXTRN	?LoadAttackAttribute@@YAXPBDAAUAttackAttribute@@AAVioINILoader@@@Z:PROC ; LoadAttackAttribute
; Function compile flags: /Ogsp
; File d:\lost saga for developer\youtube\tutorial\source\src\lsclient\ioattackattribute.h
;	COMDAT ??$LoadAttackAttribute_e@$0BB@@@YAXAAY0BB@$$CBDAAUAttackAttribute@@AAVioINILoader@@@Z
_TEXT	SEGMENT
_szEncAttack$ = -28					; size = 17
__$ArrayPad$ = -4					; size = 4
_szAttack$ = 8						; size = 4
_rkAttribute$ = 12					; size = 4
_rkLoader$ = 16						; size = 4
??$LoadAttackAttribute_e@$0BB@@@YAXAAY0BB@$$CBDAAUAttackAttribute@@AAVioINILoader@@@Z PROC ; LoadAttackAttribute_e<17>, COMDAT

; 131  : {

  00000	55		 push	 ebp
  00001	8b ec		 mov	 ebp, esp
  00003	83 ec 1c	 sub	 esp, 28			; 0000001cH
  00006	a1 00 00 00 00	 mov	 eax, DWORD PTR ___security_cookie
  0000b	33 c5		 xor	 eax, ebp
  0000d	89 45 fc	 mov	 DWORD PTR __$ArrayPad$[ebp], eax
  00010	8b 45 08	 mov	 eax, DWORD PTR _szAttack$[ebp]

; 132  : 	_ENCSTR(szAttack, szEncAttack);

  00013	8a 08		 mov	 cl, BYTE PTR [eax]
  00015	56		 push	 esi
  00016	8b 75 0c	 mov	 esi, DWORD PTR _rkAttribute$[ebp]
  00019	57		 push	 edi
  0001a	8b 7d 10	 mov	 edi, DWORD PTR _rkLoader$[ebp]
  0001d	84 c9		 test	 cl, cl
  0001f	0f 84 a3 01 00
	00		 je	 $LN96@LoadAttack
  00025	80 f1 ed	 xor	 cl, -19			; ffffffedH
  00028	88 4d e4	 mov	 BYTE PTR _szEncAttack$[ebp], cl
  0002b	8a 48 01	 mov	 cl, BYTE PTR [eax+1]
  0002e	84 c9		 test	 cl, cl
  00030	0f 84 8c 01 00
	00		 je	 $LN95@LoadAttack
  00036	80 f1 ec	 xor	 cl, -20			; ffffffecH
  00039	88 4d e5	 mov	 BYTE PTR _szEncAttack$[ebp+1], cl
  0003c	8a 48 02	 mov	 cl, BYTE PTR [eax+2]
  0003f	84 c9		 test	 cl, cl
  00041	0f 84 75 01 00
	00		 je	 $LN94@LoadAttack
  00047	b2 eb		 mov	 dl, -21			; ffffffebH
  00049	32 ca		 xor	 cl, dl
  0004b	88 4d e6	 mov	 BYTE PTR _szEncAttack$[ebp+2], cl
  0004e	8a 48 03	 mov	 cl, BYTE PTR [eax+3]
  00051	84 c9		 test	 cl, cl
  00053	0f 84 5d 01 00
	00		 je	 $LN93@LoadAttack
  00059	80 f1 ea	 xor	 cl, -22			; ffffffeaH
  0005c	88 4d e7	 mov	 BYTE PTR _szEncAttack$[ebp+3], cl
  0005f	8a 48 04	 mov	 cl, BYTE PTR [eax+4]
  00062	84 c9		 test	 cl, cl
  00064	0f 84 46 01 00
	00		 je	 $LN92@LoadAttack
  0006a	80 f1 ed	 xor	 cl, -19			; ffffffedH
  0006d	88 4d e8	 mov	 BYTE PTR _szEncAttack$[ebp+4], cl
  00070	8a 48 05	 mov	 cl, BYTE PTR [eax+5]
  00073	84 c9		 test	 cl, cl
  00075	0f 84 2f 01 00
	00		 je	 $LN91@LoadAttack
  0007b	80 f1 ec	 xor	 cl, -20			; ffffffecH
  0007e	88 4d e9	 mov	 BYTE PTR _szEncAttack$[ebp+5], cl
  00081	8a 48 06	 mov	 cl, BYTE PTR [eax+6]
  00084	84 c9		 test	 cl, cl
  00086	0f 84 19 01 00
	00		 je	 $LN90@LoadAttack
  0008c	32 ca		 xor	 cl, dl
  0008e	88 4d ea	 mov	 BYTE PTR _szEncAttack$[ebp+6], cl
  00091	8a 48 07	 mov	 cl, BYTE PTR [eax+7]
  00094	84 c9		 test	 cl, cl
  00096	0f 84 03 01 00
	00		 je	 $LN89@LoadAttack
  0009c	80 f1 ea	 xor	 cl, -22			; ffffffeaH
  0009f	88 4d eb	 mov	 BYTE PTR _szEncAttack$[ebp+7], cl
  000a2	8a 48 08	 mov	 cl, BYTE PTR [eax+8]
  000a5	84 c9		 test	 cl, cl
  000a7	0f 84 ec 00 00
	00		 je	 $LN88@LoadAttack
  000ad	80 f1 ed	 xor	 cl, -19			; ffffffedH
  000b0	88 4d ec	 mov	 BYTE PTR _szEncAttack$[ebp+8], cl
  000b3	8a 48 09	 mov	 cl, BYTE PTR [eax+9]
  000b6	84 c9		 test	 cl, cl
  000b8	0f 84 d5 00 00
	00		 je	 $LN87@LoadAttack
  000be	80 f1 ec	 xor	 cl, -20			; ffffffecH
  000c1	88 4d ed	 mov	 BYTE PTR _szEncAttack$[ebp+9], cl
  000c4	8a 48 0a	 mov	 cl, BYTE PTR [eax+10]
  000c7	84 c9		 test	 cl, cl
  000c9	0f 84 bf 00 00
	00		 je	 $LN86@LoadAttack
  000cf	32 ca		 xor	 cl, dl
  000d1	88 4d ee	 mov	 BYTE PTR _szEncAttack$[ebp+10], cl
  000d4	8a 48 0b	 mov	 cl, BYTE PTR [eax+11]
  000d7	84 c9		 test	 cl, cl
  000d9	0f 84 a9 00 00
	00		 je	 $LN85@LoadAttack
  000df	80 f1 ea	 xor	 cl, -22			; ffffffeaH
  000e2	88 4d ef	 mov	 BYTE PTR _szEncAttack$[ebp+11], cl
  000e5	8a 48 0c	 mov	 cl, BYTE PTR [eax+12]
  000e8	84 c9		 test	 cl, cl
  000ea	0f 84 92 00 00
	00		 je	 $LN84@LoadAttack
  000f0	80 f1 ed	 xor	 cl, -19			; ffffffedH
  000f3	88 4d f0	 mov	 BYTE PTR _szEncAttack$[ebp+12], cl
  000f6	8a 48 0d	 mov	 cl, BYTE PTR [eax+13]
  000f9	84 c9		 test	 cl, cl
  000fb	74 7f		 je	 SHORT $LN83@LoadAttack
  000fd	80 f1 ec	 xor	 cl, -20			; ffffffecH
  00100	88 4d f1	 mov	 BYTE PTR _szEncAttack$[ebp+13], cl
  00103	8a 48 0e	 mov	 cl, BYTE PTR [eax+14]
  00106	84 c9		 test	 cl, cl
  00108	74 6d		 je	 SHORT $LN82@LoadAttack
  0010a	32 ca		 xor	 cl, dl
  0010c	88 4d f2	 mov	 BYTE PTR _szEncAttack$[ebp+14], cl
  0010f	8a 48 0f	 mov	 cl, BYTE PTR [eax+15]
  00112	84 c9		 test	 cl, cl
  00114	74 5b		 je	 SHORT $LN81@LoadAttack
  00116	80 f1 ea	 xor	 cl, -22			; ffffffeaH
  00119	80 78 10 00	 cmp	 BYTE PTR [eax+16], 0
  0011d	88 4d f3	 mov	 BYTE PTR _szEncAttack$[ebp+15], cl
  00120	0f 84 a6 00 00
	00		 je	 $LN1@LoadAttack
  00126	8a 48 11	 mov	 cl, BYTE PTR [eax+17]
  00129	84 c9		 test	 cl, cl
  0012b	74 3e		 je	 SHORT $LN79@LoadAttack
  0012d	80 f1 ec	 xor	 cl, -20			; ffffffecH
  00130	88 4d f5	 mov	 BYTE PTR _szEncAttack$[ebp+17], cl
  00133	8a 48 12	 mov	 cl, BYTE PTR [eax+18]
  00136	84 c9		 test	 cl, cl
  00138	74 2c		 je	 SHORT $LN78@LoadAttack
  0013a	32 ca		 xor	 cl, dl
  0013c	88 4d f6	 mov	 BYTE PTR _szEncAttack$[ebp+18], cl
  0013f	8a 48 13	 mov	 cl, BYTE PTR [eax+19]
  00142	84 c9		 test	 cl, cl
  00144	74 1a		 je	 SHORT $LN77@LoadAttack
  00146	8a 40 14	 mov	 al, BYTE PTR [eax+20]
  00149	80 f1 ea	 xor	 cl, -22			; ffffffeaH
  0014c	88 4d f7	 mov	 BYTE PTR _szEncAttack$[ebp+19], cl
  0014f	84 c0		 test	 al, al
  00151	74 07		 je	 SHORT $LN76@LoadAttack
  00153	34 ed		 xor	 al, -19			; ffffffedH
  00155	88 45 f8	 mov	 BYTE PTR _szEncAttack$[ebp+20], al
  00158	eb 72		 jmp	 SHORT $LN1@LoadAttack
$LN76@LoadAttack:
  0015a	c6 45 f8 ed	 mov	 BYTE PTR _szEncAttack$[ebp+20], -19 ; ffffffedH
  0015e	eb 6c		 jmp	 SHORT $LN1@LoadAttack
$LN77@LoadAttack:
  00160	c6 45 f7 ea	 mov	 BYTE PTR _szEncAttack$[ebp+19], -22 ; ffffffeaH
  00164	eb 66		 jmp	 SHORT $LN1@LoadAttack
$LN78@LoadAttack:
  00166	88 55 f6	 mov	 BYTE PTR _szEncAttack$[ebp+18], dl
  00169	eb 61		 jmp	 SHORT $LN1@LoadAttack
$LN79@LoadAttack:
  0016b	c6 45 f5 ec	 mov	 BYTE PTR _szEncAttack$[ebp+17], -20 ; ffffffecH
  0016f	eb 5b		 jmp	 SHORT $LN1@LoadAttack
$LN81@LoadAttack:
  00171	c6 45 f3 ea	 mov	 BYTE PTR _szEncAttack$[ebp+15], -22 ; ffffffeaH
  00175	eb 55		 jmp	 SHORT $LN1@LoadAttack
$LN82@LoadAttack:
  00177	88 55 f2	 mov	 BYTE PTR _szEncAttack$[ebp+14], dl
  0017a	eb 50		 jmp	 SHORT $LN1@LoadAttack
$LN83@LoadAttack:
  0017c	c6 45 f1 ec	 mov	 BYTE PTR _szEncAttack$[ebp+13], -20 ; ffffffecH
  00180	eb 4a		 jmp	 SHORT $LN1@LoadAttack
$LN84@LoadAttack:
  00182	c6 45 f0 ed	 mov	 BYTE PTR _szEncAttack$[ebp+12], -19 ; ffffffedH
  00186	eb 44		 jmp	 SHORT $LN1@LoadAttack
$LN85@LoadAttack:
  00188	c6 45 ef ea	 mov	 BYTE PTR _szEncAttack$[ebp+11], -22 ; ffffffeaH
  0018c	eb 3e		 jmp	 SHORT $LN1@LoadAttack
$LN86@LoadAttack:
  0018e	88 55 ee	 mov	 BYTE PTR _szEncAttack$[ebp+10], dl
  00191	eb 39		 jmp	 SHORT $LN1@LoadAttack
$LN87@LoadAttack:
  00193	c6 45 ed ec	 mov	 BYTE PTR _szEncAttack$[ebp+9], -20 ; ffffffecH
  00197	eb 33		 jmp	 SHORT $LN1@LoadAttack
$LN88@LoadAttack:
  00199	c6 45 ec ed	 mov	 BYTE PTR _szEncAttack$[ebp+8], -19 ; ffffffedH
  0019d	eb 2d		 jmp	 SHORT $LN1@LoadAttack
$LN89@LoadAttack:
  0019f	c6 45 eb ea	 mov	 BYTE PTR _szEncAttack$[ebp+7], -22 ; ffffffeaH
  001a3	eb 27		 jmp	 SHORT $LN1@LoadAttack
$LN90@LoadAttack:
  001a5	88 55 ea	 mov	 BYTE PTR _szEncAttack$[ebp+6], dl
  001a8	eb 22		 jmp	 SHORT $LN1@LoadAttack
$LN91@LoadAttack:
  001aa	c6 45 e9 ec	 mov	 BYTE PTR _szEncAttack$[ebp+5], -20 ; ffffffecH
  001ae	eb 1c		 jmp	 SHORT $LN1@LoadAttack
$LN92@LoadAttack:
  001b0	c6 45 e8 ed	 mov	 BYTE PTR _szEncAttack$[ebp+4], -19 ; ffffffedH
  001b4	eb 16		 jmp	 SHORT $LN1@LoadAttack
$LN93@LoadAttack:
  001b6	c6 45 e7 ea	 mov	 BYTE PTR _szEncAttack$[ebp+3], -22 ; ffffffeaH
  001ba	eb 10		 jmp	 SHORT $LN1@LoadAttack
$LN94@LoadAttack:
  001bc	c6 45 e6 eb	 mov	 BYTE PTR _szEncAttack$[ebp+2], -21 ; ffffffebH
  001c0	eb 0a		 jmp	 SHORT $LN1@LoadAttack
$LN95@LoadAttack:
  001c2	c6 45 e5 ec	 mov	 BYTE PTR _szEncAttack$[ebp+1], -20 ; ffffffecH
  001c6	eb 04		 jmp	 SHORT $LN1@LoadAttack
$LN96@LoadAttack:
  001c8	c6 45 e4 ed	 mov	 BYTE PTR _szEncAttack$[ebp], -19 ; ffffffedH
$LN1@LoadAttack:
  001cc	6a 04		 push	 4
  001ce	8d 45 e4	 lea	 eax, DWORD PTR _szEncAttack$[ebp]
  001d1	c6 45 f4 00	 mov	 BYTE PTR _szEncAttack$[ebp+16], 0
  001d5	59		 pop	 ecx
$LL104@LoadAttack:
  001d6	81 30 ed ec eb
	ea		 xor	 DWORD PTR [eax], -353637139 ; eaebecedH
  001dc	83 c0 04	 add	 eax, 4
  001df	49		 dec	 ecx
  001e0	75 f4		 jne	 SHORT $LL104@LoadAttack

; 133  : 	LoadAttackAttribute(szEncAttack, rkAttribute, rkLoader);

  001e2	57		 push	 edi
  001e3	8d 45 e4	 lea	 eax, DWORD PTR _szEncAttack$[ebp]
  001e6	56		 push	 esi
  001e7	50		 push	 eax
  001e8	e8 00 00 00 00	 call	 ?LoadAttackAttribute@@YAXPBDAAUAttackAttribute@@AAVioINILoader@@@Z ; LoadAttackAttribute

; 134  : }

  001ed	8b 4d fc	 mov	 ecx, DWORD PTR __$ArrayPad$[ebp]
  001f0	83 c4 0c	 add	 esp, 12			; 0000000cH
  001f3	5f		 pop	 edi
  001f4	33 cd		 xor	 ecx, ebp
  001f6	5e		 pop	 esi
  001f7	e8 00 00 00 00	 call	 @__security_check_cookie@4
  001fc	c9		 leave
  001fd	c3		 ret	 0
??$LoadAttackAttribute_e@$0BB@@@YAXAAY0BB@$$CBDAAUAttackAttribute@@AAVioINILoader@@@Z ENDP ; LoadAttackAttribute_e<17>
_TEXT	ENDS
PUBLIC	__$ArrayPad$
PUBLIC	??$LoadBool_e@$0O@@ioINILoader@@QAE_NAAY0O@$$CBD_N@Z ; ioINILoader::LoadBool_e<14>
EXTRN	__imp_?LoadBool@ioINILoader@@QAE_NPBD_N@Z:PROC
; Function compile flags: /Ogsp
; File d:\lost saga for developer\youtube\tutorial\source\src\io3dengine\ioiniloader.h
;	COMDAT ??$LoadBool_e@$0O@@ioINILoader@@QAE_NAAY0O@$$CBD_N@Z
_TEXT	SEGMENT
__k$ = -24						; size = 14
__$ArrayPad$ = -4					; size = 4
_k$ = 8							; size = 4
_b$ = 12						; size = 1
??$LoadBool_e@$0O@@ioINILoader@@QAE_NAAY0O@$$CBD_N@Z PROC ; ioINILoader::LoadBool_e<14>, COMDAT
; _this$ = ecx

; 101  : 	{

  00000	55		 push	 ebp
  00001	8b ec		 mov	 ebp, esp
  00003	83 ec 18	 sub	 esp, 24			; 00000018H
  00006	a1 00 00 00 00	 mov	 eax, DWORD PTR ___security_cookie
  0000b	33 c5		 xor	 eax, ebp
  0000d	89 45 fc	 mov	 DWORD PTR __$ArrayPad$[ebp], eax
  00010	8b 45 08	 mov	 eax, DWORD PTR _k$[ebp]

; 102  : 		_ENCSTR(k, _k);

  00013	8a 10		 mov	 dl, BYTE PTR [eax]
  00015	56		 push	 esi
  00016	8b f1		 mov	 esi, ecx
  00018	84 d2		 test	 dl, dl
  0001a	0f 84 64 01 00
	00		 je	 $LN96@LoadBool_e
  00020	80 f2 ed	 xor	 dl, -19			; ffffffedH
  00023	88 55 e8	 mov	 BYTE PTR __k$[ebp], dl
  00026	8a 50 01	 mov	 dl, BYTE PTR [eax+1]
  00029	84 d2		 test	 dl, dl
  0002b	0f 84 4d 01 00
	00		 je	 $LN95@LoadBool_e
  00031	80 f2 ec	 xor	 dl, -20			; ffffffecH
  00034	88 55 e9	 mov	 BYTE PTR __k$[ebp+1], dl
  00037	8a 50 02	 mov	 dl, BYTE PTR [eax+2]
  0003a	84 d2		 test	 dl, dl
  0003c	0f 84 36 01 00
	00		 je	 $LN94@LoadBool_e
  00042	b1 eb		 mov	 cl, -21			; ffffffebH
  00044	32 d1		 xor	 dl, cl
  00046	88 55 ea	 mov	 BYTE PTR __k$[ebp+2], dl
  00049	8a 50 03	 mov	 dl, BYTE PTR [eax+3]
  0004c	84 d2		 test	 dl, dl
  0004e	0f 84 1e 01 00
	00		 je	 $LN93@LoadBool_e
  00054	80 f2 ea	 xor	 dl, -22			; ffffffeaH
  00057	88 55 eb	 mov	 BYTE PTR __k$[ebp+3], dl
  0005a	8a 50 04	 mov	 dl, BYTE PTR [eax+4]
  0005d	84 d2		 test	 dl, dl
  0005f	0f 84 07 01 00
	00		 je	 $LN92@LoadBool_e
  00065	80 f2 ed	 xor	 dl, -19			; ffffffedH
  00068	88 55 ec	 mov	 BYTE PTR __k$[ebp+4], dl
  0006b	8a 50 05	 mov	 dl, BYTE PTR [eax+5]
  0006e	84 d2		 test	 dl, dl
  00070	0f 84 f0 00 00
	00		 je	 $LN91@LoadBool_e
  00076	80 f2 ec	 xor	 dl, -20			; ffffffecH
  00079	88 55 ed	 mov	 BYTE PTR __k$[ebp+5], dl
  0007c	8a 50 06	 mov	 dl, BYTE PTR [eax+6]
  0007f	84 d2		 test	 dl, dl
  00081	0f 84 da 00 00
	00		 je	 $LN90@LoadBool_e
  00087	32 d1		 xor	 dl, cl
  00089	88 55 ee	 mov	 BYTE PTR __k$[ebp+6], dl
  0008c	8a 50 07	 mov	 dl, BYTE PTR [eax+7]
  0008f	84 d2		 test	 dl, dl
  00091	0f 84 c4 00 00
	00		 je	 $LN89@LoadBool_e
  00097	80 f2 ea	 xor	 dl, -22			; ffffffeaH
  0009a	88 55 ef	 mov	 BYTE PTR __k$[ebp+7], dl
  0009d	8a 50 08	 mov	 dl, BYTE PTR [eax+8]
  000a0	84 d2		 test	 dl, dl
  000a2	0f 84 ad 00 00
	00		 je	 $LN88@LoadBool_e
  000a8	80 f2 ed	 xor	 dl, -19			; ffffffedH
  000ab	88 55 f0	 mov	 BYTE PTR __k$[ebp+8], dl
  000ae	8a 50 09	 mov	 dl, BYTE PTR [eax+9]
  000b1	84 d2		 test	 dl, dl
  000b3	0f 84 96 00 00
	00		 je	 $LN87@LoadBool_e
  000b9	80 f2 ec	 xor	 dl, -20			; ffffffecH
  000bc	88 55 f1	 mov	 BYTE PTR __k$[ebp+9], dl
  000bf	8a 50 0a	 mov	 dl, BYTE PTR [eax+10]
  000c2	84 d2		 test	 dl, dl
  000c4	0f 84 80 00 00
	00		 je	 $LN86@LoadBool_e
  000ca	32 d1		 xor	 dl, cl
  000cc	88 55 f2	 mov	 BYTE PTR __k$[ebp+10], dl
  000cf	8a 50 0b	 mov	 dl, BYTE PTR [eax+11]
  000d2	84 d2		 test	 dl, dl
  000d4	74 6e		 je	 SHORT $LN85@LoadBool_e
  000d6	80 f2 ea	 xor	 dl, -22			; ffffffeaH
  000d9	88 55 f3	 mov	 BYTE PTR __k$[ebp+11], dl
  000dc	8a 50 0c	 mov	 dl, BYTE PTR [eax+12]
  000df	84 d2		 test	 dl, dl
  000e1	74 5b		 je	 SHORT $LN84@LoadBool_e
  000e3	80 f2 ed	 xor	 dl, -19			; ffffffedH
  000e6	80 78 0d 00	 cmp	 BYTE PTR [eax+13], 0
  000ea	88 55 f4	 mov	 BYTE PTR __k$[ebp+12], dl
  000ed	0f 84 95 00 00
	00		 je	 $LN1@LoadBool_e
  000f3	8a 50 0e	 mov	 dl, BYTE PTR [eax+14]
  000f6	84 d2		 test	 dl, dl
  000f8	74 3f		 je	 SHORT $LN82@LoadBool_e
  000fa	32 d1		 xor	 dl, cl
  000fc	88 55 f6	 mov	 BYTE PTR __k$[ebp+14], dl
  000ff	8a 50 0f	 mov	 dl, BYTE PTR [eax+15]
  00102	84 d2		 test	 dl, dl
  00104	74 2d		 je	 SHORT $LN81@LoadBool_e
  00106	80 f2 ea	 xor	 dl, -22			; ffffffeaH
  00109	88 55 f7	 mov	 BYTE PTR __k$[ebp+15], dl
  0010c	8a 50 10	 mov	 dl, BYTE PTR [eax+16]
  0010f	84 d2		 test	 dl, dl
  00111	74 1a		 je	 SHORT $LN80@LoadBool_e
  00113	8a 40 11	 mov	 al, BYTE PTR [eax+17]
  00116	80 f2 ed	 xor	 dl, -19			; ffffffedH
  00119	88 55 f8	 mov	 BYTE PTR __k$[ebp+16], dl
  0011c	84 c0		 test	 al, al
  0011e	74 07		 je	 SHORT $LN79@LoadBool_e
  00120	34 ec		 xor	 al, -20			; ffffffecH
  00122	88 45 f9	 mov	 BYTE PTR __k$[ebp+17], al
  00125	eb 61		 jmp	 SHORT $LN1@LoadBool_e
$LN79@LoadBool_e:
  00127	c6 45 f9 ec	 mov	 BYTE PTR __k$[ebp+17], -20 ; ffffffecH
  0012b	eb 5b		 jmp	 SHORT $LN1@LoadBool_e
$LN80@LoadBool_e:
  0012d	c6 45 f8 ed	 mov	 BYTE PTR __k$[ebp+16], -19 ; ffffffedH
  00131	eb 55		 jmp	 SHORT $LN1@LoadBool_e
$LN81@LoadBool_e:
  00133	c6 45 f7 ea	 mov	 BYTE PTR __k$[ebp+15], -22 ; ffffffeaH
  00137	eb 4f		 jmp	 SHORT $LN1@LoadBool_e
$LN82@LoadBool_e:
  00139	88 4d f6	 mov	 BYTE PTR __k$[ebp+14], cl
  0013c	eb 4a		 jmp	 SHORT $LN1@LoadBool_e
$LN84@LoadBool_e:
  0013e	c6 45 f4 ed	 mov	 BYTE PTR __k$[ebp+12], -19 ; ffffffedH
  00142	eb 44		 jmp	 SHORT $LN1@LoadBool_e
$LN85@LoadBool_e:
  00144	c6 45 f3 ea	 mov	 BYTE PTR __k$[ebp+11], -22 ; ffffffeaH
  00148	eb 3e		 jmp	 SHORT $LN1@LoadBool_e
$LN86@LoadBool_e:
  0014a	88 4d f2	 mov	 BYTE PTR __k$[ebp+10], cl
  0014d	eb 39		 jmp	 SHORT $LN1@LoadBool_e
$LN87@LoadBool_e:
  0014f	c6 45 f1 ec	 mov	 BYTE PTR __k$[ebp+9], -20 ; ffffffecH
  00153	eb 33		 jmp	 SHORT $LN1@LoadBool_e
$LN88@LoadBool_e:
  00155	c6 45 f0 ed	 mov	 BYTE PTR __k$[ebp+8], -19 ; ffffffedH
  00159	eb 2d		 jmp	 SHORT $LN1@LoadBool_e
$LN89@LoadBool_e:
  0015b	c6 45 ef ea	 mov	 BYTE PTR __k$[ebp+7], -22 ; ffffffeaH
  0015f	eb 27		 jmp	 SHORT $LN1@LoadBool_e
$LN90@LoadBool_e:
  00161	88 4d ee	 mov	 BYTE PTR __k$[ebp+6], cl
  00164	eb 22		 jmp	 SHORT $LN1@LoadBool_e
$LN91@LoadBool_e:
  00166	c6 45 ed ec	 mov	 BYTE PTR __k$[ebp+5], -20 ; ffffffecH
  0016a	eb 1c		 jmp	 SHORT $LN1@LoadBool_e
$LN92@LoadBool_e:
  0016c	c6 45 ec ed	 mov	 BYTE PTR __k$[ebp+4], -19 ; ffffffedH
  00170	eb 16		 jmp	 SHORT $LN1@LoadBool_e
$LN93@LoadBool_e:
  00172	c6 45 eb ea	 mov	 BYTE PTR __k$[ebp+3], -22 ; ffffffeaH
  00176	eb 10		 jmp	 SHORT $LN1@LoadBool_e
$LN94@LoadBool_e:
  00178	c6 45 ea eb	 mov	 BYTE PTR __k$[ebp+2], -21 ; ffffffebH
  0017c	eb 0a		 jmp	 SHORT $LN1@LoadBool_e
$LN95@LoadBool_e:
  0017e	c6 45 e9 ec	 mov	 BYTE PTR __k$[ebp+1], -20 ; ffffffecH
  00182	eb 04		 jmp	 SHORT $LN1@LoadBool_e
$LN96@LoadBool_e:
  00184	c6 45 e8 ed	 mov	 BYTE PTR __k$[ebp], -19	; ffffffedH
$LN1@LoadBool_e:
  00188	6a 03		 push	 3
  0018a	8d 45 e8	 lea	 eax, DWORD PTR __k$[ebp]
  0018d	c6 45 f5 00	 mov	 BYTE PTR __k$[ebp+13], 0
  00191	5a		 pop	 edx
$LL104@LoadBool_e:
  00192	81 30 ed ec eb
	ea		 xor	 DWORD PTR [eax], -353637139 ; eaebecedH
  00198	83 c0 04	 add	 eax, 4
  0019b	4a		 dec	 edx
  0019c	75 f4		 jne	 SHORT $LL104@LoadBool_e

; 103  : 		return LoadBool(_k, b);

  0019e	ff 75 0c	 push	 DWORD PTR _b$[ebp]
  001a1	80 75 f4 ed	 xor	 BYTE PTR __k$[ebp+12], -19 ; ffffffedH
  001a5	8d 45 e8	 lea	 eax, DWORD PTR __k$[ebp]
  001a8	50		 push	 eax
  001a9	8b ce		 mov	 ecx, esi
  001ab	ff 15 00 00 00
	00		 call	 DWORD PTR __imp_?LoadBool@ioINILoader@@QAE_NPBD_N@Z

; 104  : 	}

  001b1	8b 4d fc	 mov	 ecx, DWORD PTR __$ArrayPad$[ebp]
  001b4	33 cd		 xor	 ecx, ebp
  001b6	5e		 pop	 esi
  001b7	e8 00 00 00 00	 call	 @__security_check_cookie@4
  001bc	c9		 leave
  001bd	c2 08 00	 ret	 8
??$LoadBool_e@$0O@@ioINILoader@@QAE_NAAY0O@$$CBD_N@Z ENDP ; ioINILoader::LoadBool_e<14>
_TEXT	ENDS
PUBLIC	__real@3fd2ee0d320154cb
PUBLIC	__real@41f0000000000000
PUBLIC	??$RADtoDEG@M@@YAMM@Z				; RADtoDEG<float>
;	COMDAT __real@3fd2ee0d320154cb
; File d:\lost saga for developer\youtube\tutorial\source\src\lsclient\veryoftenusedefine.h
CONST	SEGMENT
__real@3fd2ee0d320154cb DQ 03fd2ee0d320154cbr	; 0.29578
CONST	ENDS
;	COMDAT __real@41f0000000000000
CONST	SEGMENT
__real@41f0000000000000 DQ 041f0000000000000r	; 4.29497e+009
; Function compile flags: /Ogsp
CONST	ENDS
;	COMDAT ??$RADtoDEG@M@@YAMM@Z
_TEXT	SEGMENT
tv130 = -4						; size = 4
tv75 = 8						; size = 4
_val$ = 8						; size = 4
??$RADtoDEG@M@@YAMM@Z PROC				; RADtoDEG<float>, COMDAT

; 18   : type  RADtoDEG (type val) {return (type) (val * (return57() + 0.2957795132)); }

  00000	55		 push	 ebp
  00001	8b ec		 mov	 ebp, esp
  00003	51		 push	 ecx
  00004	b8 39 00 00 00	 mov	 eax, 57			; 00000039H
  00009	89 45 fc	 mov	 DWORD PTR tv130[ebp], eax
  0000c	db 45 fc	 fild	 DWORD PTR tv130[ebp]
  0000f	85 c0		 test	 eax, eax
  00011	79 06		 jns	 SHORT $LN5@RADtoDEG
  00013	dc 05 00 00 00
	00		 fadd	 QWORD PTR __real@41f0000000000000
$LN5@RADtoDEG:
  00019	dc 05 00 00 00
	00		 fadd	 QWORD PTR __real@3fd2ee0d320154cb
  0001f	d8 4d 08	 fmul	 DWORD PTR _val$[ebp]
  00022	d9 5d 08	 fstp	 DWORD PTR tv75[ebp]
  00025	d9 45 08	 fld	 DWORD PTR tv75[ebp]
  00028	c9		 leave
  00029	c3		 ret	 0
??$RADtoDEG@M@@YAMM@Z ENDP				; RADtoDEG<float>
_TEXT	ENDS
PUBLIC	__$ArrayPad$
PUBLIC	??$LoadInt_e@$0P@@ioINILoader@@QAEHAAY0P@$$CBDH@Z ; ioINILoader::LoadInt_e<15>
; Function compile flags: /Ogsp
; File d:\lost saga for developer\youtube\tutorial\source\src\io3dengine\ioiniloader.h
;	COMDAT ??$LoadInt_e@$0P@@ioINILoader@@QAEHAAY0P@$$CBDH@Z
_TEXT	SEGMENT
__k$ = -24						; size = 15
__$ArrayPad$ = -4					; size = 4
_k$ = 8							; size = 4
_i$ = 12						; size = 4
??$LoadInt_e@$0P@@ioINILoader@@QAEHAAY0P@$$CBDH@Z PROC	; ioINILoader::LoadInt_e<15>, COMDAT
; _this$ = ecx

; 118  : 	{

  00000	55		 push	 ebp
  00001	8b ec		 mov	 ebp, esp
  00003	83 ec 18	 sub	 esp, 24			; 00000018H
  00006	a1 00 00 00 00	 mov	 eax, DWORD PTR ___security_cookie
  0000b	33 c5		 xor	 eax, ebp
  0000d	89 45 fc	 mov	 DWORD PTR __$ArrayPad$[ebp], eax
  00010	8b 45 08	 mov	 eax, DWORD PTR _k$[ebp]

; 119  : 		_ENCSTR(k, _k);

  00013	8a 10		 mov	 dl, BYTE PTR [eax]
  00015	56		 push	 esi
  00016	8b f1		 mov	 esi, ecx
  00018	84 d2		 test	 dl, dl
  0001a	0f 84 75 01 00
	00		 je	 $LN96@LoadInt_e@5
  00020	80 f2 ed	 xor	 dl, -19			; ffffffedH
  00023	88 55 e8	 mov	 BYTE PTR __k$[ebp], dl
  00026	8a 50 01	 mov	 dl, BYTE PTR [eax+1]
  00029	84 d2		 test	 dl, dl
  0002b	0f 84 5e 01 00
	00		 je	 $LN95@LoadInt_e@5
  00031	b1 ec		 mov	 cl, -20			; ffffffecH
  00033	32 d1		 xor	 dl, cl
  00035	88 55 e9	 mov	 BYTE PTR __k$[ebp+1], dl
  00038	8a 50 02	 mov	 dl, BYTE PTR [eax+2]
  0003b	84 d2		 test	 dl, dl
  0003d	0f 84 46 01 00
	00		 je	 $LN94@LoadInt_e@5
  00043	80 f2 eb	 xor	 dl, -21			; ffffffebH
  00046	88 55 ea	 mov	 BYTE PTR __k$[ebp+2], dl
  00049	8a 50 03	 mov	 dl, BYTE PTR [eax+3]
  0004c	84 d2		 test	 dl, dl
  0004e	0f 84 2f 01 00
	00		 je	 $LN93@LoadInt_e@5
  00054	80 f2 ea	 xor	 dl, -22			; ffffffeaH
  00057	88 55 eb	 mov	 BYTE PTR __k$[ebp+3], dl
  0005a	8a 50 04	 mov	 dl, BYTE PTR [eax+4]
  0005d	84 d2		 test	 dl, dl
  0005f	0f 84 18 01 00
	00		 je	 $LN92@LoadInt_e@5
  00065	80 f2 ed	 xor	 dl, -19			; ffffffedH
  00068	88 55 ec	 mov	 BYTE PTR __k$[ebp+4], dl
  0006b	8a 50 05	 mov	 dl, BYTE PTR [eax+5]
  0006e	84 d2		 test	 dl, dl
  00070	0f 84 02 01 00
	00		 je	 $LN91@LoadInt_e@5
  00076	32 d1		 xor	 dl, cl
  00078	88 55 ed	 mov	 BYTE PTR __k$[ebp+5], dl
  0007b	8a 50 06	 mov	 dl, BYTE PTR [eax+6]
  0007e	84 d2		 test	 dl, dl
  00080	0f 84 ec 00 00
	00		 je	 $LN90@LoadInt_e@5
  00086	80 f2 eb	 xor	 dl, -21			; ffffffebH
  00089	88 55 ee	 mov	 BYTE PTR __k$[ebp+6], dl
  0008c	8a 50 07	 mov	 dl, BYTE PTR [eax+7]
  0008f	84 d2		 test	 dl, dl
  00091	0f 84 d5 00 00
	00		 je	 $LN89@LoadInt_e@5
  00097	80 f2 ea	 xor	 dl, -22			; ffffffeaH
  0009a	88 55 ef	 mov	 BYTE PTR __k$[ebp+7], dl
  0009d	8a 50 08	 mov	 dl, BYTE PTR [eax+8]
  000a0	84 d2		 test	 dl, dl
  000a2	0f 84 be 00 00
	00		 je	 $LN88@LoadInt_e@5
  000a8	80 f2 ed	 xor	 dl, -19			; ffffffedH
  000ab	88 55 f0	 mov	 BYTE PTR __k$[ebp+8], dl
  000ae	8a 50 09	 mov	 dl, BYTE PTR [eax+9]
  000b1	84 d2		 test	 dl, dl
  000b3	0f 84 a8 00 00
	00		 je	 $LN87@LoadInt_e@5
  000b9	32 d1		 xor	 dl, cl
  000bb	88 55 f1	 mov	 BYTE PTR __k$[ebp+9], dl
  000be	8a 50 0a	 mov	 dl, BYTE PTR [eax+10]
  000c1	84 d2		 test	 dl, dl
  000c3	0f 84 92 00 00
	00		 je	 $LN86@LoadInt_e@5
  000c9	80 f2 eb	 xor	 dl, -21			; ffffffebH
  000cc	88 55 f2	 mov	 BYTE PTR __k$[ebp+10], dl
  000cf	8a 50 0b	 mov	 dl, BYTE PTR [eax+11]
  000d2	84 d2		 test	 dl, dl
  000d4	74 7f		 je	 SHORT $LN85@LoadInt_e@5
  000d6	80 f2 ea	 xor	 dl, -22			; ffffffeaH
  000d9	88 55 f3	 mov	 BYTE PTR __k$[ebp+11], dl
  000dc	8a 50 0c	 mov	 dl, BYTE PTR [eax+12]
  000df	84 d2		 test	 dl, dl
  000e1	74 6c		 je	 SHORT $LN84@LoadInt_e@5
  000e3	80 f2 ed	 xor	 dl, -19			; ffffffedH
  000e6	88 55 f4	 mov	 BYTE PTR __k$[ebp+12], dl
  000e9	8a 50 0d	 mov	 dl, BYTE PTR [eax+13]
  000ec	84 d2		 test	 dl, dl
  000ee	74 5a		 je	 SHORT $LN83@LoadInt_e@5
  000f0	32 d1		 xor	 dl, cl
  000f2	80 78 0e 00	 cmp	 BYTE PTR [eax+14], 0
  000f6	88 55 f5	 mov	 BYTE PTR __k$[ebp+13], dl
  000f9	0f 84 9a 00 00
	00		 je	 $LN1@LoadInt_e@5
  000ff	8a 50 0f	 mov	 dl, BYTE PTR [eax+15]
  00102	84 d2		 test	 dl, dl
  00104	74 3e		 je	 SHORT $LN81@LoadInt_e@5
  00106	80 f2 ea	 xor	 dl, -22			; ffffffeaH
  00109	88 55 f7	 mov	 BYTE PTR __k$[ebp+15], dl
  0010c	8a 50 10	 mov	 dl, BYTE PTR [eax+16]
  0010f	84 d2		 test	 dl, dl
  00111	74 2b		 je	 SHORT $LN80@LoadInt_e@5
  00113	80 f2 ed	 xor	 dl, -19			; ffffffedH
  00116	88 55 f8	 mov	 BYTE PTR __k$[ebp+16], dl
  00119	8a 50 11	 mov	 dl, BYTE PTR [eax+17]
  0011c	84 d2		 test	 dl, dl
  0011e	74 19		 je	 SHORT $LN79@LoadInt_e@5
  00120	8a 40 12	 mov	 al, BYTE PTR [eax+18]
  00123	32 d1		 xor	 dl, cl
  00125	88 55 f9	 mov	 BYTE PTR __k$[ebp+17], dl
  00128	84 c0		 test	 al, al
  0012a	74 07		 je	 SHORT $LN78@LoadInt_e@5
  0012c	34 eb		 xor	 al, -21			; ffffffebH
  0012e	88 45 fa	 mov	 BYTE PTR __k$[ebp+18], al
  00131	eb 66		 jmp	 SHORT $LN1@LoadInt_e@5
$LN78@LoadInt_e@5:
  00133	c6 45 fa eb	 mov	 BYTE PTR __k$[ebp+18], -21 ; ffffffebH
  00137	eb 60		 jmp	 SHORT $LN1@LoadInt_e@5
$LN79@LoadInt_e@5:
  00139	88 4d f9	 mov	 BYTE PTR __k$[ebp+17], cl
  0013c	eb 5b		 jmp	 SHORT $LN1@LoadInt_e@5
$LN80@LoadInt_e@5:
  0013e	c6 45 f8 ed	 mov	 BYTE PTR __k$[ebp+16], -19 ; ffffffedH
  00142	eb 55		 jmp	 SHORT $LN1@LoadInt_e@5
$LN81@LoadInt_e@5:
  00144	c6 45 f7 ea	 mov	 BYTE PTR __k$[ebp+15], -22 ; ffffffeaH
  00148	eb 4f		 jmp	 SHORT $LN1@LoadInt_e@5
$LN83@LoadInt_e@5:
  0014a	88 4d f5	 mov	 BYTE PTR __k$[ebp+13], cl
  0014d	eb 4a		 jmp	 SHORT $LN1@LoadInt_e@5
$LN84@LoadInt_e@5:
  0014f	c6 45 f4 ed	 mov	 BYTE PTR __k$[ebp+12], -19 ; ffffffedH
  00153	eb 44		 jmp	 SHORT $LN1@LoadInt_e@5
$LN85@LoadInt_e@5:
  00155	c6 45 f3 ea	 mov	 BYTE PTR __k$[ebp+11], -22 ; ffffffeaH
  00159	eb 3e		 jmp	 SHORT $LN1@LoadInt_e@5
$LN86@LoadInt_e@5:
  0015b	c6 45 f2 eb	 mov	 BYTE PTR __k$[ebp+10], -21 ; ffffffebH
  0015f	eb 38		 jmp	 SHORT $LN1@LoadInt_e@5
$LN87@LoadInt_e@5:
  00161	88 4d f1	 mov	 BYTE PTR __k$[ebp+9], cl
  00164	eb 33		 jmp	 SHORT $LN1@LoadInt_e@5
$LN88@LoadInt_e@5:
  00166	c6 45 f0 ed	 mov	 BYTE PTR __k$[ebp+8], -19 ; ffffffedH
  0016a	eb 2d		 jmp	 SHORT $LN1@LoadInt_e@5
$LN89@LoadInt_e@5:
  0016c	c6 45 ef ea	 mov	 BYTE PTR __k$[ebp+7], -22 ; ffffffeaH
  00170	eb 27		 jmp	 SHORT $LN1@LoadInt_e@5
$LN90@LoadInt_e@5:
  00172	c6 45 ee eb	 mov	 BYTE PTR __k$[ebp+6], -21 ; ffffffebH
  00176	eb 21		 jmp	 SHORT $LN1@LoadInt_e@5
$LN91@LoadInt_e@5:
  00178	88 4d ed	 mov	 BYTE PTR __k$[ebp+5], cl
  0017b	eb 1c		 jmp	 SHORT $LN1@LoadInt_e@5
$LN92@LoadInt_e@5:
  0017d	c6 45 ec ed	 mov	 BYTE PTR __k$[ebp+4], -19 ; ffffffedH
  00181	eb 16		 jmp	 SHORT $LN1@LoadInt_e@5
$LN93@LoadInt_e@5:
  00183	c6 45 eb ea	 mov	 BYTE PTR __k$[ebp+3], -22 ; ffffffeaH
  00187	eb 10		 jmp	 SHORT $LN1@LoadInt_e@5
$LN94@LoadInt_e@5:
  00189	c6 45 ea eb	 mov	 BYTE PTR __k$[ebp+2], -21 ; ffffffebH
  0018d	eb 0a		 jmp	 SHORT $LN1@LoadInt_e@5
$LN95@LoadInt_e@5:
  0018f	c6 45 e9 ec	 mov	 BYTE PTR __k$[ebp+1], -20 ; ffffffecH
  00193	eb 04		 jmp	 SHORT $LN1@LoadInt_e@5
$LN96@LoadInt_e@5:
  00195	c6 45 e8 ed	 mov	 BYTE PTR __k$[ebp], -19	; ffffffedH
$LN1@LoadInt_e@5:
  00199	6a 03		 push	 3
  0019b	8d 45 e8	 lea	 eax, DWORD PTR __k$[ebp]
  0019e	c6 45 f6 00	 mov	 BYTE PTR __k$[ebp+14], 0
  001a2	5a		 pop	 edx
$LL104@LoadInt_e@5:
  001a3	81 30 ed ec eb
	ea		 xor	 DWORD PTR [eax], -353637139 ; eaebecedH
  001a9	83 c0 04	 add	 eax, 4
  001ac	4a		 dec	 edx
  001ad	75 f4		 jne	 SHORT $LL104@LoadInt_e@5
  001af	6a 0c		 push	 12			; 0000000cH
  001b1	58		 pop	 eax
$LL101@LoadInt_e@5:
  001b2	8b c8		 mov	 ecx, eax
  001b4	81 e1 03 00 00
	80		 and	 ecx, -2147483645	; 80000003H
  001ba	79 05		 jns	 SHORT $LN111@LoadInt_e@5
  001bc	49		 dec	 ecx
  001bd	83 c9 fc	 or	 ecx, -4			; fffffffcH
  001c0	41		 inc	 ecx
$LN111@LoadInt_e@5:
  001c1	b2 ed		 mov	 dl, -19			; ffffffedH
  001c3	2a d1		 sub	 dl, cl
  001c5	30 54 05 e8	 xor	 BYTE PTR __k$[ebp+eax], dl
  001c9	40		 inc	 eax
  001ca	83 f8 0e	 cmp	 eax, 14			; 0000000eH
  001cd	7c e3		 jl	 SHORT $LL101@LoadInt_e@5

; 120  : 		return LoadInt(_k, i);

  001cf	ff 75 0c	 push	 DWORD PTR _i$[ebp]
  001d2	8d 45 e8	 lea	 eax, DWORD PTR __k$[ebp]
  001d5	50		 push	 eax
  001d6	8b ce		 mov	 ecx, esi
  001d8	ff 15 00 00 00
	00		 call	 DWORD PTR __imp_?LoadInt@ioINILoader@@QAEHPBDH@Z

; 121  : 	}

  001de	8b 4d fc	 mov	 ecx, DWORD PTR __$ArrayPad$[ebp]
  001e1	33 cd		 xor	 ecx, ebp
  001e3	5e		 pop	 esi
  001e4	e8 00 00 00 00	 call	 @__security_check_cookie@4
  001e9	c9		 leave
  001ea	c2 08 00	 ret	 8
??$LoadInt_e@$0P@@ioINILoader@@QAEHAAY0P@$$CBDH@Z ENDP	; ioINILoader::LoadInt_e<15>
_TEXT	ENDS
PUBLIC	??$GetAnimationEventTime_e@$0L@@ioEntityGroup@@QAEMHAAY0L@$$CBD@Z ; ioEntityGroup::GetAnimationEventTime_e<11>
EXTRN	__imp_?GetAnimationEventTime@ioEntityGroup@@QAEMHABVioHashString@@@Z:PROC
EXTRN	__EH_epilog3_GS:PROC
EXTRN	__EH_prolog3_GS:PROC
;	COMDAT xdata$x
; File d:\lost saga for developer\youtube\tutorial\source\src\lsclient\stringprotect.h
xdata$x	SEGMENT
__unwindtable$??$GetAnimationEventTime_e@$0L@@ioEntityGroup@@QAEMHAAY0L@$$CBD@Z DD 0ffffffffH
	DD	FLAT:__unwindfunclet$??$GetAnimationEventTime_e@$0L@@ioEntityGroup@@QAEMHAAY0L@$$CBD@Z$0
__ehfuncinfo$??$GetAnimationEventTime_e@$0L@@ioEntityGroup@@QAEMHAAY0L@$$CBD@Z DD 019930522H
	DD	01H
	DD	FLAT:__unwindtable$??$GetAnimationEventTime_e@$0L@@ioEntityGroup@@QAEMHAAY0L@$$CBD@Z
	DD	2 DUP(00H)
	DD	2 DUP(00H)
	DD	00H
	DD	01H
; Function compile flags: /Ogsp
; File d:\lost saga for developer\youtube\tutorial\source\src\io3dengine\ioentitygroup.h
xdata$x	ENDS
;	COMDAT ??$GetAnimationEventTime_e@$0L@@ioEntityGroup@@QAEMHAAY0L@$$CBD@Z
_TEXT	SEGMENT
$T597874 = -52						; size = 16
$T597873 = -36						; size = 4
_szEncEventType$ = -32					; size = 11
__$EHRec$ = -12						; size = 12
_id$ = 8						; size = 4
_szEventType$ = 12					; size = 4
??$GetAnimationEventTime_e@$0L@@ioEntityGroup@@QAEMHAAY0L@$$CBD@Z PROC ; ioEntityGroup::GetAnimationEventTime_e<11>, COMDAT
; _this$ = ecx

; 414  : 	{

  00000	6a 28		 push	 40			; 00000028H
  00002	b8 00 00 00 00	 mov	 eax, __ehhandler$??$GetAnimationEventTime_e@$0L@@ioEntityGroup@@QAEMHAAY0L@$$CBD@Z
  00007	e8 00 00 00 00	 call	 __EH_prolog3_GS
  0000c	8b 45 0c	 mov	 eax, DWORD PTR _szEventType$[ebp]
  0000f	8b f1		 mov	 esi, ecx

; 415  : 		_ENCSTR(szEventType, szEncEventType);

  00011	8a 08		 mov	 cl, BYTE PTR [eax]
  00013	84 c9		 test	 cl, cl
  00015	0f 84 1b 01 00
	00		 je	 $LN96@GetAnimati
  0001b	b2 ed		 mov	 dl, -19			; ffffffedH
  0001d	32 ca		 xor	 cl, dl
  0001f	88 4d e0	 mov	 BYTE PTR _szEncEventType$[ebp], cl
  00022	8a 48 01	 mov	 cl, BYTE PTR [eax+1]
  00025	84 c9		 test	 cl, cl
  00027	0f 84 03 01 00
	00		 je	 $LN95@GetAnimati
  0002d	80 f1 ec	 xor	 cl, -20			; ffffffecH
  00030	88 4d e1	 mov	 BYTE PTR _szEncEventType$[ebp+1], cl
  00033	8a 48 02	 mov	 cl, BYTE PTR [eax+2]
  00036	84 c9		 test	 cl, cl
  00038	0f 84 ec 00 00
	00		 je	 $LN94@GetAnimati
  0003e	80 f1 eb	 xor	 cl, -21			; ffffffebH
  00041	88 4d e2	 mov	 BYTE PTR _szEncEventType$[ebp+2], cl
  00044	8a 48 03	 mov	 cl, BYTE PTR [eax+3]
  00047	84 c9		 test	 cl, cl
  00049	0f 84 d5 00 00
	00		 je	 $LN93@GetAnimati
  0004f	80 f1 ea	 xor	 cl, -22			; ffffffeaH
  00052	88 4d e3	 mov	 BYTE PTR _szEncEventType$[ebp+3], cl
  00055	8a 48 04	 mov	 cl, BYTE PTR [eax+4]
  00058	84 c9		 test	 cl, cl
  0005a	0f 84 bf 00 00
	00		 je	 $LN92@GetAnimati
  00060	32 ca		 xor	 cl, dl
  00062	88 4d e4	 mov	 BYTE PTR _szEncEventType$[ebp+4], cl
  00065	8a 48 05	 mov	 cl, BYTE PTR [eax+5]
  00068	84 c9		 test	 cl, cl
  0006a	0f 84 a9 00 00
	00		 je	 $LN91@GetAnimati
  00070	80 f1 ec	 xor	 cl, -20			; ffffffecH
  00073	88 4d e5	 mov	 BYTE PTR _szEncEventType$[ebp+5], cl
  00076	8a 48 06	 mov	 cl, BYTE PTR [eax+6]
  00079	84 c9		 test	 cl, cl
  0007b	0f 84 92 00 00
	00		 je	 $LN90@GetAnimati
  00081	80 f1 eb	 xor	 cl, -21			; ffffffebH
  00084	88 4d e6	 mov	 BYTE PTR _szEncEventType$[ebp+6], cl
  00087	8a 48 07	 mov	 cl, BYTE PTR [eax+7]
  0008a	84 c9		 test	 cl, cl
  0008c	74 7f		 je	 SHORT $LN89@GetAnimati
  0008e	80 f1 ea	 xor	 cl, -22			; ffffffeaH
  00091	88 4d e7	 mov	 BYTE PTR _szEncEventType$[ebp+7], cl
  00094	8a 48 08	 mov	 cl, BYTE PTR [eax+8]
  00097	84 c9		 test	 cl, cl
  00099	74 6d		 je	 SHORT $LN88@GetAnimati
  0009b	32 ca		 xor	 cl, dl
  0009d	88 4d e8	 mov	 BYTE PTR _szEncEventType$[ebp+8], cl
  000a0	8a 48 09	 mov	 cl, BYTE PTR [eax+9]
  000a3	84 c9		 test	 cl, cl
  000a5	74 5b		 je	 SHORT $LN87@GetAnimati
  000a7	80 f1 ec	 xor	 cl, -20			; ffffffecH
  000aa	80 78 0a 00	 cmp	 BYTE PTR [eax+10], 0
  000ae	88 4d e9	 mov	 BYTE PTR _szEncEventType$[ebp+9], cl
  000b1	0f 84 83 00 00
	00		 je	 $LN1@GetAnimati
  000b7	8a 48 0b	 mov	 cl, BYTE PTR [eax+11]
  000ba	84 c9		 test	 cl, cl
  000bc	74 3e		 je	 SHORT $LN85@GetAnimati
  000be	80 f1 ea	 xor	 cl, -22			; ffffffeaH
  000c1	88 4d eb	 mov	 BYTE PTR _szEncEventType$[ebp+11], cl
  000c4	8a 48 0c	 mov	 cl, BYTE PTR [eax+12]
  000c7	84 c9		 test	 cl, cl
  000c9	74 2c		 je	 SHORT $LN84@GetAnimati
  000cb	32 ca		 xor	 cl, dl
  000cd	88 4d ec	 mov	 BYTE PTR _szEncEventType$[ebp+12], cl
  000d0	8a 48 0d	 mov	 cl, BYTE PTR [eax+13]
  000d3	84 c9		 test	 cl, cl
  000d5	74 1a		 je	 SHORT $LN83@GetAnimati
  000d7	8a 40 0e	 mov	 al, BYTE PTR [eax+14]
  000da	80 f1 ec	 xor	 cl, -20			; ffffffecH
  000dd	88 4d ed	 mov	 BYTE PTR _szEncEventType$[ebp+13], cl
  000e0	84 c0		 test	 al, al
  000e2	74 07		 je	 SHORT $LN82@GetAnimati
  000e4	34 eb		 xor	 al, -21			; ffffffebH
  000e6	88 45 ee	 mov	 BYTE PTR _szEncEventType$[ebp+14], al
  000e9	eb 4f		 jmp	 SHORT $LN1@GetAnimati
$LN82@GetAnimati:
  000eb	c6 45 ee eb	 mov	 BYTE PTR _szEncEventType$[ebp+14], -21 ; ffffffebH
  000ef	eb 49		 jmp	 SHORT $LN1@GetAnimati
$LN83@GetAnimati:
  000f1	c6 45 ed ec	 mov	 BYTE PTR _szEncEventType$[ebp+13], -20 ; ffffffecH
  000f5	eb 43		 jmp	 SHORT $LN1@GetAnimati
$LN84@GetAnimati:
  000f7	88 55 ec	 mov	 BYTE PTR _szEncEventType$[ebp+12], dl
  000fa	eb 3e		 jmp	 SHORT $LN1@GetAnimati
$LN85@GetAnimati:
  000fc	c6 45 eb ea	 mov	 BYTE PTR _szEncEventType$[ebp+11], -22 ; ffffffeaH
  00100	eb 38		 jmp	 SHORT $LN1@GetAnimati
$LN87@GetAnimati:
  00102	c6 45 e9 ec	 mov	 BYTE PTR _szEncEventType$[ebp+9], -20 ; ffffffecH
  00106	eb 32		 jmp	 SHORT $LN1@GetAnimati
$LN88@GetAnimati:
  00108	88 55 e8	 mov	 BYTE PTR _szEncEventType$[ebp+8], dl
  0010b	eb 2d		 jmp	 SHORT $LN1@GetAnimati
$LN89@GetAnimati:
  0010d	c6 45 e7 ea	 mov	 BYTE PTR _szEncEventType$[ebp+7], -22 ; ffffffeaH
  00111	eb 27		 jmp	 SHORT $LN1@GetAnimati
$LN90@GetAnimati:
  00113	c6 45 e6 eb	 mov	 BYTE PTR _szEncEventType$[ebp+6], -21 ; ffffffebH
  00117	eb 21		 jmp	 SHORT $LN1@GetAnimati
$LN91@GetAnimati:
  00119	c6 45 e5 ec	 mov	 BYTE PTR _szEncEventType$[ebp+5], -20 ; ffffffecH
  0011d	eb 1b		 jmp	 SHORT $LN1@GetAnimati
$LN92@GetAnimati:
  0011f	88 55 e4	 mov	 BYTE PTR _szEncEventType$[ebp+4], dl
  00122	eb 16		 jmp	 SHORT $LN1@GetAnimati
$LN93@GetAnimati:
  00124	c6 45 e3 ea	 mov	 BYTE PTR _szEncEventType$[ebp+3], -22 ; ffffffeaH
  00128	eb 10		 jmp	 SHORT $LN1@GetAnimati
$LN94@GetAnimati:
  0012a	c6 45 e2 eb	 mov	 BYTE PTR _szEncEventType$[ebp+2], -21 ; ffffffebH
  0012e	eb 0a		 jmp	 SHORT $LN1@GetAnimati
$LN95@GetAnimati:
  00130	c6 45 e1 ec	 mov	 BYTE PTR _szEncEventType$[ebp+1], -20 ; ffffffecH
  00134	eb 04		 jmp	 SHORT $LN1@GetAnimati
$LN96@GetAnimati:
  00136	c6 45 e0 ed	 mov	 BYTE PTR _szEncEventType$[ebp], -19 ; ffffffedH
$LN1@GetAnimati:
  0013a	6a 02		 push	 2
  0013c	8d 45 e0	 lea	 eax, DWORD PTR _szEncEventType$[ebp]
  0013f	c6 45 ea 00	 mov	 BYTE PTR _szEncEventType$[ebp+10], 0
  00143	59		 pop	 ecx
$LL105@GetAnimati:
  00144	81 30 ed ec eb
	ea		 xor	 DWORD PTR [eax], -353637139 ; eaebecedH
  0014a	83 c0 04	 add	 eax, 4
  0014d	49		 dec	 ecx
  0014e	75 f4		 jne	 SHORT $LL105@GetAnimati
  00150	6a 08		 push	 8
  00152	58		 pop	 eax
$LL102@GetAnimati:
  00153	8b c8		 mov	 ecx, eax
  00155	81 e1 03 00 00
	80		 and	 ecx, -2147483645	; 80000003H
  0015b	79 05		 jns	 SHORT $LN113@GetAnimati
  0015d	49		 dec	 ecx
  0015e	83 c9 fc	 or	 ecx, -4			; fffffffcH
  00161	41		 inc	 ecx
$LN113@GetAnimati:
  00162	b2 ed		 mov	 dl, -19			; ffffffedH
  00164	2a d1		 sub	 dl, cl
  00166	30 54 05 e0	 xor	 BYTE PTR _szEncEventType$[ebp+eax], dl
  0016a	40		 inc	 eax
  0016b	83 f8 0a	 cmp	 eax, 10			; 0000000aH
  0016e	7c e3		 jl	 SHORT $LL102@GetAnimati

; 416  : 		return GetAnimationEventTime(id, szEncEventType);

  00170	8d 45 e0	 lea	 eax, DWORD PTR _szEncEventType$[ebp]
  00173	50		 push	 eax
  00174	8d 4d cc	 lea	 ecx, DWORD PTR $T597874[ebp]
  00177	ff 15 00 00 00
	00		 call	 DWORD PTR __imp_??0ioHashString@@QAE@PBD@Z
  0017d	83 65 fc 00	 and	 DWORD PTR __$EHRec$[ebp+8], 0
  00181	8d 45 cc	 lea	 eax, DWORD PTR $T597874[ebp]
  00184	50		 push	 eax
  00185	ff 75 08	 push	 DWORD PTR _id$[ebp]
  00188	8b ce		 mov	 ecx, esi
  0018a	ff 15 00 00 00
	00		 call	 DWORD PTR __imp_?GetAnimationEventTime@ioEntityGroup@@QAEMHABVioHashString@@@Z
  00190	d9 5d dc	 fstp	 DWORD PTR $T597873[ebp]
  00193	83 4d fc ff	 or	 DWORD PTR __$EHRec$[ebp+8], -1
  00197	8d 4d cc	 lea	 ecx, DWORD PTR $T597874[ebp]
  0019a	ff 15 00 00 00
	00		 call	 DWORD PTR __imp_??1ioHashString@@QAE@XZ
  001a0	d9 45 dc	 fld	 DWORD PTR $T597873[ebp]

; 417  : 	}

  001a3	e8 00 00 00 00	 call	 __EH_epilog3_GS
  001a8	c2 08 00	 ret	 8
_TEXT	ENDS
;	COMDAT text$x
text$x	SEGMENT
__unwindfunclet$??$GetAnimationEventTime_e@$0L@@ioEntityGroup@@QAEMHAAY0L@$$CBD@Z$0:
  00000	8d 4d cc	 lea	 ecx, DWORD PTR $T597874[ebp]
  00003	ff 25 00 00 00
	00		 jmp	 DWORD PTR __imp_??1ioHashString@@QAE@XZ
__ehhandler$??$GetAnimationEventTime_e@$0L@@ioEntityGroup@@QAEMHAAY0L@$$CBD@Z:
  00009	8b 54 24 08	 mov	 edx, DWORD PTR [esp+8]
  0000d	8d 42 0c	 lea	 eax, DWORD PTR [edx+12]
  00010	8b 4a c8	 mov	 ecx, DWORD PTR [edx-56]
  00013	33 c8		 xor	 ecx, eax
  00015	e8 00 00 00 00	 call	 @__security_check_cookie@4
  0001a	8b 4a fc	 mov	 ecx, DWORD PTR [edx-4]
  0001d	33 c8		 xor	 ecx, eax
  0001f	e8 00 00 00 00	 call	 @__security_check_cookie@4
  00024	b8 00 00 00 00	 mov	 eax, OFFSET __ehfuncinfo$??$GetAnimationEventTime_e@$0L@@ioEntityGroup@@QAEMHAAY0L@$$CBD@Z
  00029	e9 00 00 00 00	 jmp	 ___CxxFrameHandler3
text$x	ENDS
??$GetAnimationEventTime_e@$0L@@ioEntityGroup@@QAEMHAAY0L@$$CBD@Z ENDP ; ioEntityGroup::GetAnimationEventTime_e<11>
PUBLIC	??$GetAnimationEventTime_e@$0M@@ioEntityGroup@@QAEMHAAY0M@$$CBD@Z ; ioEntityGroup::GetAnimationEventTime_e<12>
;	COMDAT xdata$x
; File d:\lost saga for developer\youtube\tutorial\source\src\lsclient\stringprotect.h
xdata$x	SEGMENT
__unwindtable$??$GetAnimationEventTime_e@$0M@@ioEntityGroup@@QAEMHAAY0M@$$CBD@Z DD 0ffffffffH
	DD	FLAT:__unwindfunclet$??$GetAnimationEventTime_e@$0M@@ioEntityGroup@@QAEMHAAY0M@$$CBD@Z$0
__ehfuncinfo$??$GetAnimationEventTime_e@$0M@@ioEntityGroup@@QAEMHAAY0M@$$CBD@Z DD 019930522H
	DD	01H
	DD	FLAT:__unwindtable$??$GetAnimationEventTime_e@$0M@@ioEntityGroup@@QAEMHAAY0M@$$CBD@Z
	DD	2 DUP(00H)
	DD	2 DUP(00H)
	DD	00H
	DD	01H
; Function compile flags: /Ogsp
; File d:\lost saga for developer\youtube\tutorial\source\src\io3dengine\ioentitygroup.h
xdata$x	ENDS
;	COMDAT ??$GetAnimationEventTime_e@$0M@@ioEntityGroup@@QAEMHAAY0M@$$CBD@Z
_TEXT	SEGMENT
$T597907 = -52						; size = 16
$T597906 = -36						; size = 4
_szEncEventType$ = -32					; size = 12
__$EHRec$ = -12						; size = 12
_id$ = 8						; size = 4
_szEventType$ = 12					; size = 4
??$GetAnimationEventTime_e@$0M@@ioEntityGroup@@QAEMHAAY0M@$$CBD@Z PROC ; ioEntityGroup::GetAnimationEventTime_e<12>, COMDAT
; _this$ = ecx

; 414  : 	{

  00000	6a 28		 push	 40			; 00000028H
  00002	b8 00 00 00 00	 mov	 eax, __ehhandler$??$GetAnimationEventTime_e@$0M@@ioEntityGroup@@QAEMHAAY0M@$$CBD@Z
  00007	e8 00 00 00 00	 call	 __EH_prolog3_GS
  0000c	8b 45 0c	 mov	 eax, DWORD PTR _szEventType$[ebp]
  0000f	8b f1		 mov	 esi, ecx

; 415  : 		_ENCSTR(szEventType, szEncEventType);

  00011	8a 08		 mov	 cl, BYTE PTR [eax]
  00013	84 c9		 test	 cl, cl
  00015	0f 84 36 01 00
	00		 je	 $LN96@GetAnimati@2
  0001b	b2 ed		 mov	 dl, -19			; ffffffedH
  0001d	32 ca		 xor	 cl, dl
  0001f	88 4d e0	 mov	 BYTE PTR _szEncEventType$[ebp], cl
  00022	8a 48 01	 mov	 cl, BYTE PTR [eax+1]
  00025	84 c9		 test	 cl, cl
  00027	0f 84 1e 01 00
	00		 je	 $LN95@GetAnimati@2
  0002d	80 f1 ec	 xor	 cl, -20			; ffffffecH
  00030	88 4d e1	 mov	 BYTE PTR _szEncEventType$[ebp+1], cl
  00033	8a 48 02	 mov	 cl, BYTE PTR [eax+2]
  00036	84 c9		 test	 cl, cl
  00038	0f 84 07 01 00
	00		 je	 $LN94@GetAnimati@2
  0003e	80 f1 eb	 xor	 cl, -21			; ffffffebH
  00041	88 4d e2	 mov	 BYTE PTR _szEncEventType$[ebp+2], cl
  00044	8a 48 03	 mov	 cl, BYTE PTR [eax+3]
  00047	84 c9		 test	 cl, cl
  00049	0f 84 f0 00 00
	00		 je	 $LN93@GetAnimati@2
  0004f	80 f1 ea	 xor	 cl, -22			; ffffffeaH
  00052	88 4d e3	 mov	 BYTE PTR _szEncEventType$[ebp+3], cl
  00055	8a 48 04	 mov	 cl, BYTE PTR [eax+4]
  00058	84 c9		 test	 cl, cl
  0005a	0f 84 da 00 00
	00		 je	 $LN92@GetAnimati@2
  00060	32 ca		 xor	 cl, dl
  00062	88 4d e4	 mov	 BYTE PTR _szEncEventType$[ebp+4], cl
  00065	8a 48 05	 mov	 cl, BYTE PTR [eax+5]
  00068	84 c9		 test	 cl, cl
  0006a	0f 84 c4 00 00
	00		 je	 $LN91@GetAnimati@2
  00070	80 f1 ec	 xor	 cl, -20			; ffffffecH
  00073	88 4d e5	 mov	 BYTE PTR _szEncEventType$[ebp+5], cl
  00076	8a 48 06	 mov	 cl, BYTE PTR [eax+6]
  00079	84 c9		 test	 cl, cl
  0007b	0f 84 ad 00 00
	00		 je	 $LN90@GetAnimati@2
  00081	80 f1 eb	 xor	 cl, -21			; ffffffebH
  00084	88 4d e6	 mov	 BYTE PTR _szEncEventType$[ebp+6], cl
  00087	8a 48 07	 mov	 cl, BYTE PTR [eax+7]
  0008a	84 c9		 test	 cl, cl
  0008c	0f 84 96 00 00
	00		 je	 $LN89@GetAnimati@2
  00092	80 f1 ea	 xor	 cl, -22			; ffffffeaH
  00095	88 4d e7	 mov	 BYTE PTR _szEncEventType$[ebp+7], cl
  00098	8a 48 08	 mov	 cl, BYTE PTR [eax+8]
  0009b	84 c9		 test	 cl, cl
  0009d	0f 84 80 00 00
	00		 je	 $LN88@GetAnimati@2
  000a3	32 ca		 xor	 cl, dl
  000a5	88 4d e8	 mov	 BYTE PTR _szEncEventType$[ebp+8], cl
  000a8	8a 48 09	 mov	 cl, BYTE PTR [eax+9]
  000ab	84 c9		 test	 cl, cl
  000ad	74 6e		 je	 SHORT $LN87@GetAnimati@2
  000af	80 f1 ec	 xor	 cl, -20			; ffffffecH
  000b2	88 4d e9	 mov	 BYTE PTR _szEncEventType$[ebp+9], cl
  000b5	8a 48 0a	 mov	 cl, BYTE PTR [eax+10]
  000b8	84 c9		 test	 cl, cl
  000ba	74 5b		 je	 SHORT $LN86@GetAnimati@2
  000bc	80 f1 eb	 xor	 cl, -21			; ffffffebH
  000bf	80 78 0b 00	 cmp	 BYTE PTR [eax+11], 0
  000c3	88 4d ea	 mov	 BYTE PTR _szEncEventType$[ebp+10], cl
  000c6	0f 84 89 00 00
	00		 je	 $LN1@GetAnimati@2
  000cc	8a 48 0c	 mov	 cl, BYTE PTR [eax+12]
  000cf	84 c9		 test	 cl, cl
  000d1	74 3f		 je	 SHORT $LN84@GetAnimati@2
  000d3	32 ca		 xor	 cl, dl
  000d5	88 4d ec	 mov	 BYTE PTR _szEncEventType$[ebp+12], cl
  000d8	8a 48 0d	 mov	 cl, BYTE PTR [eax+13]
  000db	84 c9		 test	 cl, cl
  000dd	74 2d		 je	 SHORT $LN83@GetAnimati@2
  000df	80 f1 ec	 xor	 cl, -20			; ffffffecH
  000e2	88 4d ed	 mov	 BYTE PTR _szEncEventType$[ebp+13], cl
  000e5	8a 48 0e	 mov	 cl, BYTE PTR [eax+14]
  000e8	84 c9		 test	 cl, cl
  000ea	74 1a		 je	 SHORT $LN82@GetAnimati@2
  000ec	8a 40 0f	 mov	 al, BYTE PTR [eax+15]
  000ef	80 f1 eb	 xor	 cl, -21			; ffffffebH
  000f2	88 4d ee	 mov	 BYTE PTR _szEncEventType$[ebp+14], cl
  000f5	84 c0		 test	 al, al
  000f7	74 07		 je	 SHORT $LN81@GetAnimati@2
  000f9	34 ea		 xor	 al, -22			; ffffffeaH
  000fb	88 45 ef	 mov	 BYTE PTR _szEncEventType$[ebp+15], al
  000fe	eb 55		 jmp	 SHORT $LN1@GetAnimati@2
$LN81@GetAnimati@2:
  00100	c6 45 ef ea	 mov	 BYTE PTR _szEncEventType$[ebp+15], -22 ; ffffffeaH
  00104	eb 4f		 jmp	 SHORT $LN1@GetAnimati@2
$LN82@GetAnimati@2:
  00106	c6 45 ee eb	 mov	 BYTE PTR _szEncEventType$[ebp+14], -21 ; ffffffebH
  0010a	eb 49		 jmp	 SHORT $LN1@GetAnimati@2
$LN83@GetAnimati@2:
  0010c	c6 45 ed ec	 mov	 BYTE PTR _szEncEventType$[ebp+13], -20 ; ffffffecH
  00110	eb 43		 jmp	 SHORT $LN1@GetAnimati@2
$LN84@GetAnimati@2:
  00112	88 55 ec	 mov	 BYTE PTR _szEncEventType$[ebp+12], dl
  00115	eb 3e		 jmp	 SHORT $LN1@GetAnimati@2
$LN86@GetAnimati@2:
  00117	c6 45 ea eb	 mov	 BYTE PTR _szEncEventType$[ebp+10], -21 ; ffffffebH
  0011b	eb 38		 jmp	 SHORT $LN1@GetAnimati@2
$LN87@GetAnimati@2:
  0011d	c6 45 e9 ec	 mov	 BYTE PTR _szEncEventType$[ebp+9], -20 ; ffffffecH
  00121	eb 32		 jmp	 SHORT $LN1@GetAnimati@2
$LN88@GetAnimati@2:
  00123	88 55 e8	 mov	 BYTE PTR _szEncEventType$[ebp+8], dl
  00126	eb 2d		 jmp	 SHORT $LN1@GetAnimati@2
$LN89@GetAnimati@2:
  00128	c6 45 e7 ea	 mov	 BYTE PTR _szEncEventType$[ebp+7], -22 ; ffffffeaH
  0012c	eb 27		 jmp	 SHORT $LN1@GetAnimati@2
$LN90@GetAnimati@2:
  0012e	c6 45 e6 eb	 mov	 BYTE PTR _szEncEventType$[ebp+6], -21 ; ffffffebH
  00132	eb 21		 jmp	 SHORT $LN1@GetAnimati@2
$LN91@GetAnimati@2:
  00134	c6 45 e5 ec	 mov	 BYTE PTR _szEncEventType$[ebp+5], -20 ; ffffffecH
  00138	eb 1b		 jmp	 SHORT $LN1@GetAnimati@2
$LN92@GetAnimati@2:
  0013a	88 55 e4	 mov	 BYTE PTR _szEncEventType$[ebp+4], dl
  0013d	eb 16		 jmp	 SHORT $LN1@GetAnimati@2
$LN93@GetAnimati@2:
  0013f	c6 45 e3 ea	 mov	 BYTE PTR _szEncEventType$[ebp+3], -22 ; ffffffeaH
  00143	eb 10		 jmp	 SHORT $LN1@GetAnimati@2
$LN94@GetAnimati@2:
  00145	c6 45 e2 eb	 mov	 BYTE PTR _szEncEventType$[ebp+2], -21 ; ffffffebH
  00149	eb 0a		 jmp	 SHORT $LN1@GetAnimati@2
$LN95@GetAnimati@2:
  0014b	c6 45 e1 ec	 mov	 BYTE PTR _szEncEventType$[ebp+1], -20 ; ffffffecH
  0014f	eb 04		 jmp	 SHORT $LN1@GetAnimati@2
$LN96@GetAnimati@2:
  00151	c6 45 e0 ed	 mov	 BYTE PTR _szEncEventType$[ebp], -19 ; ffffffedH
$LN1@GetAnimati@2:
  00155	6a 02		 push	 2
  00157	8d 45 e0	 lea	 eax, DWORD PTR _szEncEventType$[ebp]
  0015a	c6 45 eb 00	 mov	 BYTE PTR _szEncEventType$[ebp+11], 0
  0015e	59		 pop	 ecx
$LL105@GetAnimati@2:
  0015f	81 30 ed ec eb
	ea		 xor	 DWORD PTR [eax], -353637139 ; eaebecedH
  00165	83 c0 04	 add	 eax, 4
  00168	49		 dec	 ecx
  00169	75 f4		 jne	 SHORT $LL105@GetAnimati@2
  0016b	6a 08		 push	 8
  0016d	58		 pop	 eax
$LL102@GetAnimati@2:
  0016e	8b c8		 mov	 ecx, eax
  00170	81 e1 03 00 00
	80		 and	 ecx, -2147483645	; 80000003H
  00176	79 05		 jns	 SHORT $LN113@GetAnimati@2
  00178	49		 dec	 ecx
  00179	83 c9 fc	 or	 ecx, -4			; fffffffcH
  0017c	41		 inc	 ecx
$LN113@GetAnimati@2:
  0017d	b2 ed		 mov	 dl, -19			; ffffffedH
  0017f	2a d1		 sub	 dl, cl
  00181	30 54 05 e0	 xor	 BYTE PTR _szEncEventType$[ebp+eax], dl
  00185	40		 inc	 eax
  00186	83 f8 0b	 cmp	 eax, 11			; 0000000bH
  00189	7c e3		 jl	 SHORT $LL102@GetAnimati@2

; 416  : 		return GetAnimationEventTime(id, szEncEventType);

  0018b	8d 45 e0	 lea	 eax, DWORD PTR _szEncEventType$[ebp]
  0018e	50		 push	 eax
  0018f	8d 4d cc	 lea	 ecx, DWORD PTR $T597907[ebp]
  00192	ff 15 00 00 00
	00		 call	 DWORD PTR __imp_??0ioHashString@@QAE@PBD@Z
  00198	83 65 fc 00	 and	 DWORD PTR __$EHRec$[ebp+8], 0
  0019c	8d 45 cc	 lea	 eax, DWORD PTR $T597907[ebp]
  0019f	50		 push	 eax
  001a0	ff 75 08	 push	 DWORD PTR _id$[ebp]
  001a3	8b ce		 mov	 ecx, esi
  001a5	ff 15 00 00 00
	00		 call	 DWORD PTR __imp_?GetAnimationEventTime@ioEntityGroup@@QAEMHABVioHashString@@@Z
  001ab	d9 5d dc	 fstp	 DWORD PTR $T597906[ebp]
  001ae	83 4d fc ff	 or	 DWORD PTR __$EHRec$[ebp+8], -1
  001b2	8d 4d cc	 lea	 ecx, DWORD PTR $T597907[ebp]
  001b5	ff 15 00 00 00
	00		 call	 DWORD PTR __imp_??1ioHashString@@QAE@XZ
  001bb	d9 45 dc	 fld	 DWORD PTR $T597906[ebp]

; 417  : 	}

  001be	e8 00 00 00 00	 call	 __EH_epilog3_GS
  001c3	c2 08 00	 ret	 8
_TEXT	ENDS
;	COMDAT text$x
text$x	SEGMENT
__unwindfunclet$??$GetAnimationEventTime_e@$0M@@ioEntityGroup@@QAEMHAAY0M@$$CBD@Z$0:
  00000	8d 4d cc	 lea	 ecx, DWORD PTR $T597907[ebp]
  00003	ff 25 00 00 00
	00		 jmp	 DWORD PTR __imp_??1ioHashString@@QAE@XZ
__ehhandler$??$GetAnimationEventTime_e@$0M@@ioEntityGroup@@QAEMHAAY0M@$$CBD@Z:
  00009	8b 54 24 08	 mov	 edx, DWORD PTR [esp+8]
  0000d	8d 42 0c	 lea	 eax, DWORD PTR [edx+12]
  00010	8b 4a c8	 mov	 ecx, DWORD PTR [edx-56]
  00013	33 c8		 xor	 ecx, eax
  00015	e8 00 00 00 00	 call	 @__security_check_cookie@4
  0001a	8b 4a fc	 mov	 ecx, DWORD PTR [edx-4]
  0001d	33 c8		 xor	 ecx, eax
  0001f	e8 00 00 00 00	 call	 @__security_check_cookie@4
  00024	b8 00 00 00 00	 mov	 eax, OFFSET __ehfuncinfo$??$GetAnimationEventTime_e@$0M@@ioEntityGroup@@QAEMHAAY0M@$$CBD@Z
  00029	e9 00 00 00 00	 jmp	 ___CxxFrameHandler3
text$x	ENDS
??$GetAnimationEventTime_e@$0M@@ioEntityGroup@@QAEMHAAY0M@$$CBD@Z ENDP ; ioEntityGroup::GetAnimationEventTime_e<12>
PUBLIC	??$construct@AAVioHashString@@@?$allocator@VioHashString@@@std@@QAEXPAVioHashString@@AAV2@@Z ; std::allocator<ioHashString>::construct<ioHashString &>
;	COMDAT xdata$x
; File c:\program files (x86)\microsoft visual studio 10.0\vc\include\utility
xdata$x	SEGMENT
__unwindtable$??$construct@AAVioHashString@@@?$allocator@VioHashString@@@std@@QAEXPAVioHashString@@AAV2@@Z DD 0ffffffffH
	DD	FLAT:__unwindfunclet$??$construct@AAVioHashString@@@?$allocator@VioHashString@@@std@@QAEXPAVioHashString@@AAV2@@Z$0
__ehfuncinfo$??$construct@AAVioHashString@@@?$allocator@VioHashString@@@std@@QAEXPAVioHashString@@AAV2@@Z DD 019930522H
	DD	01H
	DD	FLAT:__unwindtable$??$construct@AAVioHashString@@@?$allocator@VioHashString@@@std@@QAEXPAVioHashString@@AAV2@@Z
	DD	2 DUP(00H)
	DD	2 DUP(00H)
	DD	00H
	DD	01H
; Function compile flags: /Ogsp
; File c:\program files (x86)\microsoft visual studio 10.0\vc\include\xmemory
xdata$x	ENDS
;	COMDAT ??$construct@AAVioHashString@@@?$allocator@VioHashString@@@std@@QAEXPAVioHashString@@AAV2@@Z
_TEXT	SEGMENT
$T597937 = -16						; size = 4
__$EHRec$ = -12						; size = 12
__Ptr$ = 8						; size = 4
__Val$ = 12						; size = 4
??$construct@AAVioHashString@@@?$allocator@VioHashString@@@std@@QAEXPAVioHashString@@AAV2@@Z PROC ; std::allocator<ioHashString>::construct<ioHashString &>, COMDAT
; _this$ = ecx

; 206  : 		void construct(pointer _Ptr, _Other&& _Val)

  00000	6a 04		 push	 4
  00002	b8 00 00 00 00	 mov	 eax, __ehhandler$??$construct@AAVioHashString@@@?$allocator@VioHashString@@@std@@QAEXPAVioHashString@@AAV2@@Z
  00007	e8 00 00 00 00	 call	 __EH_prolog3

; 207  : 		{	// construct object at _Ptr with value _Val
; 208  : 		::new ((void _FARQ *)_Ptr) _Ty(_STD forward<_Other>(_Val));

  0000c	8b 4d 08	 mov	 ecx, DWORD PTR __Ptr$[ebp]
  0000f	89 4d f0	 mov	 DWORD PTR $T597937[ebp], ecx
  00012	83 65 fc 00	 and	 DWORD PTR __$EHRec$[ebp+8], 0
  00016	85 c9		 test	 ecx, ecx
  00018	74 09		 je	 SHORT $LN3@construct@2
  0001a	ff 75 0c	 push	 DWORD PTR __Val$[ebp]
  0001d	ff 15 00 00 00
	00		 call	 DWORD PTR __imp_??0ioHashString@@QAE@ABV0@@Z
$LN3@construct@2:

; 209  : 		}

  00023	e8 00 00 00 00	 call	 __EH_epilog3
  00028	c2 08 00	 ret	 8
_TEXT	ENDS
;	COMDAT text$x
text$x	SEGMENT
__unwindfunclet$??$construct@AAVioHashString@@@?$allocator@VioHashString@@@std@@QAEXPAVioHashString@@AAV2@@Z$0:
  00000	ff 75 08	 push	 DWORD PTR __Ptr$[ebp]
  00003	ff 75 f0	 push	 DWORD PTR $T597937[ebp]
  00006	e8 00 00 00 00	 call	 ??3@YAXPAX0@Z		; operator delete
  0000b	59		 pop	 ecx
  0000c	59		 pop	 ecx
  0000d	c3		 ret	 0
__ehhandler$??$construct@AAVioHashString@@@?$allocator@VioHashString@@@std@@QAEXPAVioHashString@@AAV2@@Z:
  0000e	8b 54 24 08	 mov	 edx, DWORD PTR [esp+8]
  00012	8d 42 0c	 lea	 eax, DWORD PTR [edx+12]
  00015	8b 4a ec	 mov	 ecx, DWORD PTR [edx-20]
  00018	33 c8		 xor	 ecx, eax
  0001a	e8 00 00 00 00	 call	 @__security_check_cookie@4
  0001f	b8 00 00 00 00	 mov	 eax, OFFSET __ehfuncinfo$??$construct@AAVioHashString@@@?$allocator@VioHashString@@@std@@QAEXPAVioHashString@@AAV2@@Z
  00024	e9 00 00 00 00	 jmp	 ___CxxFrameHandler3
text$x	ENDS
??$construct@AAVioHashString@@@?$allocator@VioHashString@@@std@@QAEXPAVioHashString@@AAV2@@Z ENDP ; std::allocator<ioHashString>::construct<ioHashString &>
PUBLIC	?construct@?$allocator@VioHashString@@@std@@QAEXPAVioHashString@@$$QAV3@@Z ; std::allocator<ioHashString>::construct
;	COMDAT xdata$x
; File c:\program files (x86)\microsoft visual studio 10.0\vc\include\utility
xdata$x	SEGMENT
__unwindtable$?construct@?$allocator@VioHashString@@@std@@QAEXPAVioHashString@@$$QAV3@@Z DD 0ffffffffH
	DD	FLAT:__unwindfunclet$?construct@?$allocator@VioHashString@@@std@@QAEXPAVioHashString@@$$QAV3@@Z$0
__ehfuncinfo$?construct@?$allocator@VioHashString@@@std@@QAEXPAVioHashString@@$$QAV3@@Z DD 019930522H
	DD	01H
	DD	FLAT:__unwindtable$?construct@?$allocator@VioHashString@@@std@@QAEXPAVioHashString@@$$QAV3@@Z
	DD	2 DUP(00H)
	DD	2 DUP(00H)
	DD	00H
	DD	01H
; Function compile flags: /Ogsp
; File c:\program files (x86)\microsoft visual studio 10.0\vc\include\xmemory
xdata$x	ENDS
;	COMDAT ?construct@?$allocator@VioHashString@@@std@@QAEXPAVioHashString@@$$QAV3@@Z
_TEXT	SEGMENT
$T597956 = -16						; size = 4
__$EHRec$ = -12						; size = 12
__Ptr$ = 8						; size = 4
__Val$ = 12						; size = 4
?construct@?$allocator@VioHashString@@@std@@QAEXPAVioHashString@@$$QAV3@@Z PROC ; std::allocator<ioHashString>::construct, COMDAT
; _this$ = ecx

; 201  : 		{	// construct object at _Ptr with value _Val

  00000	6a 04		 push	 4
  00002	b8 00 00 00 00	 mov	 eax, __ehhandler$?construct@?$allocator@VioHashString@@@std@@QAEXPAVioHashString@@$$QAV3@@Z
  00007	e8 00 00 00 00	 call	 __EH_prolog3

; 202  : 		::new ((void _FARQ *)_Ptr) _Ty(_STD forward<_Ty>(_Val));

  0000c	8b 4d 08	 mov	 ecx, DWORD PTR __Ptr$[ebp]
  0000f	89 4d f0	 mov	 DWORD PTR $T597956[ebp], ecx
  00012	83 65 fc 00	 and	 DWORD PTR __$EHRec$[ebp+8], 0
  00016	85 c9		 test	 ecx, ecx
  00018	74 09		 je	 SHORT $LN3@construct@3
  0001a	ff 75 0c	 push	 DWORD PTR __Val$[ebp]
  0001d	ff 15 00 00 00
	00		 call	 DWORD PTR __imp_??0ioHashString@@QAE@ABV0@@Z
$LN3@construct@3:

; 203  : 		}

  00023	e8 00 00 00 00	 call	 __EH_epilog3
  00028	c2 08 00	 ret	 8
_TEXT	ENDS
;	COMDAT text$x
text$x	SEGMENT
__unwindfunclet$?construct@?$allocator@VioHashString@@@std@@QAEXPAVioHashString@@$$QAV3@@Z$0:
  00000	ff 75 08	 push	 DWORD PTR __Ptr$[ebp]
  00003	ff 75 f0	 push	 DWORD PTR $T597956[ebp]
  00006	e8 00 00 00 00	 call	 ??3@YAXPAX0@Z		; operator delete
  0000b	59		 pop	 ecx
  0000c	59		 pop	 ecx
  0000d	c3		 ret	 0
__ehhandler$?construct@?$allocator@VioHashString@@@std@@QAEXPAVioHashString@@$$QAV3@@Z:
  0000e	8b 54 24 08	 mov	 edx, DWORD PTR [esp+8]
  00012	8d 42 0c	 lea	 eax, DWORD PTR [edx+12]
  00015	8b 4a ec	 mov	 ecx, DWORD PTR [edx-20]
  00018	33 c8		 xor	 ecx, eax
  0001a	e8 00 00 00 00	 call	 @__security_check_cookie@4
  0001f	b8 00 00 00 00	 mov	 eax, OFFSET __ehfuncinfo$?construct@?$allocator@VioHashString@@@std@@QAEXPAVioHashString@@$$QAV3@@Z
  00024	e9 00 00 00 00	 jmp	 ___CxxFrameHandler3
text$x	ENDS
?construct@?$allocator@VioHashString@@@std@@QAEXPAVioHashString@@$$QAV3@@Z ENDP ; std::allocator<ioHashString>::construct
PUBLIC	?construct@?$allocator@UForceInfo@@@std@@QAEXPAUForceInfo@@ABU3@@Z ; std::allocator<ForceInfo>::construct
; Function compile flags: /Ogsp
;	COMDAT ?construct@?$allocator@UForceInfo@@@std@@QAEXPAUForceInfo@@ABU3@@Z
_TEXT	SEGMENT
__Ptr$ = 8						; size = 4
__Val$ = 12						; size = 4
?construct@?$allocator@UForceInfo@@@std@@QAEXPAUForceInfo@@ABU3@@Z PROC ; std::allocator<ForceInfo>::construct, COMDAT
; _this$ = ecx

; 196  : 		{	// construct object at _Ptr with value _Val

  00000	55		 push	 ebp
  00001	8b ec		 mov	 ebp, esp
  00003	57		 push	 edi

; 197  : 		_Construct(_Ptr, _Val);

  00004	8b 7d 08	 mov	 edi, DWORD PTR __Ptr$[ebp]
  00007	85 ff		 test	 edi, edi
  00009	74 08		 je	 SHORT $LN5@construct@4
  0000b	56		 push	 esi
  0000c	8b 75 0c	 mov	 esi, DWORD PTR __Val$[ebp]
  0000f	a5		 movsd
  00010	a5		 movsd
  00011	a5		 movsd
  00012	5e		 pop	 esi
$LN5@construct@4:
  00013	5f		 pop	 edi

; 198  : 		}

  00014	5d		 pop	 ebp
  00015	c2 08 00	 ret	 8
?construct@?$allocator@UForceInfo@@@std@@QAEXPAUForceInfo@@ABU3@@Z ENDP ; std::allocator<ForceInfo>::construct
_TEXT	ENDS
PUBLIC	??$_Construct@UWeaponInfo@@ABU1@@std@@YAXPAUWeaponInfo@@ABU1@@Z ; std::_Construct<WeaponInfo,WeaponInfo const &>
;	COMDAT xdata$x
; File c:\program files (x86)\microsoft visual studio 10.0\vc\include\utility
xdata$x	SEGMENT
__unwindtable$??$_Construct@UWeaponInfo@@ABU1@@std@@YAXPAUWeaponInfo@@ABU1@@Z DD 0ffffffffH
	DD	FLAT:__unwindfunclet$??$_Construct@UWeaponInfo@@ABU1@@std@@YAXPAUWeaponInfo@@ABU1@@Z$0
__ehfuncinfo$??$_Construct@UWeaponInfo@@ABU1@@std@@YAXPAUWeaponInfo@@ABU1@@Z DD 019930522H
	DD	01H
	DD	FLAT:__unwindtable$??$_Construct@UWeaponInfo@@ABU1@@std@@YAXPAUWeaponInfo@@ABU1@@Z
	DD	2 DUP(00H)
	DD	2 DUP(00H)
	DD	00H
	DD	01H
; Function compile flags: /Ogsp
; File c:\program files (x86)\microsoft visual studio 10.0\vc\include\xmemory
xdata$x	ENDS
;	COMDAT ??$_Construct@UWeaponInfo@@ABU1@@std@@YAXPAUWeaponInfo@@ABU1@@Z
_TEXT	SEGMENT
$T597999 = -16						; size = 4
__$EHRec$ = -12						; size = 12
__Vptr$ = 8						; size = 4
__Ptr$ = 8						; size = 4
__Val$ = 12						; size = 4
??$_Construct@UWeaponInfo@@ABU1@@std@@YAXPAUWeaponInfo@@ABU1@@Z PROC ; std::_Construct<WeaponInfo,WeaponInfo const &>, COMDAT

; 46   : 	{	// construct object at _Ptr with value _Val

  00000	6a 04		 push	 4
  00002	b8 00 00 00 00	 mov	 eax, __ehhandler$??$_Construct@UWeaponInfo@@ABU1@@std@@YAXPAUWeaponInfo@@ABU1@@Z
  00007	e8 00 00 00 00	 call	 __EH_prolog3

; 47   : 	void _FARQ *_Vptr = _Ptr;

  0000c	8b 4d 08	 mov	 ecx, DWORD PTR __Ptr$[ebp]
  0000f	89 4d 08	 mov	 DWORD PTR __Vptr$[ebp], ecx

; 48   : 	::new (_Vptr) _Ty1(_STD forward<_Ty2>(_Val));

  00012	89 4d f0	 mov	 DWORD PTR $T597999[ebp], ecx
  00015	83 65 fc 00	 and	 DWORD PTR __$EHRec$[ebp+8], 0
  00019	85 c9		 test	 ecx, ecx
  0001b	74 08		 je	 SHORT $LN3@Construct@3
  0001d	ff 75 0c	 push	 DWORD PTR __Val$[ebp]
  00020	e8 00 00 00 00	 call	 ??0WeaponInfo@@QAE@ABU0@@Z
$LN3@Construct@3:

; 49   : 	}

  00025	e8 00 00 00 00	 call	 __EH_epilog3
  0002a	c3		 ret	 0
_TEXT	ENDS
;	COMDAT text$x
text$x	SEGMENT
__unwindfunclet$??$_Construct@UWeaponInfo@@ABU1@@std@@YAXPAUWeaponInfo@@ABU1@@Z$0:
  00000	ff 75 08	 push	 DWORD PTR __Vptr$[ebp]
  00003	ff 75 f0	 push	 DWORD PTR $T597999[ebp]
  00006	e8 00 00 00 00	 call	 ??3@YAXPAX0@Z		; operator delete
  0000b	59		 pop	 ecx
  0000c	59		 pop	 ecx
  0000d	c3		 ret	 0
__ehhandler$??$_Construct@UWeaponInfo@@ABU1@@std@@YAXPAUWeaponInfo@@ABU1@@Z:
  0000e	8b 54 24 08	 mov	 edx, DWORD PTR [esp+8]
  00012	8d 42 0c	 lea	 eax, DWORD PTR [edx+12]
  00015	8b 4a ec	 mov	 ecx, DWORD PTR [edx-20]
  00018	33 c8		 xor	 ecx, eax
  0001a	e8 00 00 00 00	 call	 @__security_check_cookie@4
  0001f	b8 00 00 00 00	 mov	 eax, OFFSET __ehfuncinfo$??$_Construct@UWeaponInfo@@ABU1@@std@@YAXPAUWeaponInfo@@ABU1@@Z
  00024	e9 00 00 00 00	 jmp	 ___CxxFrameHandler3
text$x	ENDS
??$_Construct@UWeaponInfo@@ABU1@@std@@YAXPAUWeaponInfo@@ABU1@@Z ENDP ; std::_Construct<WeaponInfo,WeaponInfo const &>
PUBLIC	??4?$CEncrypt@M@@QAEMM@Z			; CEncrypt<float>::operator=
; Function compile flags: /Ogsp
; File d:\lost saga for developer\youtube\tutorial\source\src\lsclient\encryptvalue.h
;	COMDAT ??4?$CEncrypt@M@@QAEMM@Z
_TEXT	SEGMENT
_value$ = 8						; size = 4
_inValue$ = 8						; size = 4
??4?$CEncrypt@M@@QAEMM@Z PROC				; CEncrypt<float>::operator=, COMDAT
; _this$ = ecx

; 1654 : 	{	

  00000	55		 push	 ebp
  00001	8b ec		 mov	 ebp, esp

; 1655 : 		type value = inValue;

  00003	d9 45 08	 fld	 DWORD PTR _inValue$[ebp]

; 1656 : 		EncryptValueToPool((char*)&value);

  00006	8d 45 08	 lea	 eax, DWORD PTR _value$[ebp]
  00009	50		 push	 eax
  0000a	d9 5d 08	 fstp	 DWORD PTR _value$[ebp]
  0000d	e8 00 00 00 00	 call	 ?EncryptValueToPool@?$CEncrypt@M@@AAEXPBD@Z ; CEncrypt<float>::EncryptValueToPool

; 1657 : #ifdef _NOTUSE
; 1658 : 		m_value = inValue;
; 1659 : 		Debug();
; 1660 : #endif
; 1661 : 		return value;

  00012	d9 45 08	 fld	 DWORD PTR _value$[ebp]

; 1662 : 	}

  00015	5d		 pop	 ebp
  00016	c2 04 00	 ret	 4
??4?$CEncrypt@M@@QAEMM@Z ENDP				; CEncrypt<float>::operator=
_TEXT	ENDS
PUBLIC	??B?$CEncrypt@_N@@QBE_NXZ			; CEncrypt<bool>::operator bool
; Function compile flags: /Ogsp
;	COMDAT ??B?$CEncrypt@_N@@QBE_NXZ
_TEXT	SEGMENT
_value$ = -1						; size = 1
??B?$CEncrypt@_N@@QBE_NXZ PROC				; CEncrypt<bool>::operator bool, COMDAT
; _this$ = ecx

; 145  : 	{

  00000	55		 push	 ebp
  00001	8b ec		 mov	 ebp, esp
  00003	51		 push	 ecx

; 146  : 		//UJ 130829, const    --start
; 147  : 		type value;
; 148  : 		CEncrypt<type>* pThis = const_cast<CEncrypt<type>*>(this);
; 149  : 		pThis->DecryptValueToPool(&value);

  00004	8d 45 ff	 lea	 eax, DWORD PTR _value$[ebp]
  00007	50		 push	 eax
  00008	e8 00 00 00 00	 call	 ?DecryptValueToPool@?$CEncrypt@_N@@QAEXPA_N@Z ; CEncrypt<bool>::DecryptValueToPool

; 150  : 		//// const DecryptValueToPool     .
; 151  :  		//type value;
; 152  : 		//char szTempMem[MAX_ENCRYPT];
; 153  : 		//m_RC5.DecryptByte( m_MemPool, szTempMem, max(m_ValueSize, DEFAULT_ENCRYPT) );
; 154  : 		//memcpy( &value, szTempMem, m_ValueSize );
; 155  : 		//UJ --end
; 156  : 
; 157  : #ifdef _NOTUSE
; 158  : 		Debug();
; 159  : #endif
; 160  : 		return value;

  0000d	8a 45 ff	 mov	 al, BYTE PTR _value$[ebp]

; 161  : 	}

  00010	c9		 leave
  00011	c3		 ret	 0
??B?$CEncrypt@_N@@QBE_NXZ ENDP				; CEncrypt<bool>::operator bool
_TEXT	ENDS
PUBLIC	?begin@?$vector@VioHashString@@V?$allocator@VioHashString@@@std@@@std@@QAE?AV?$_Vector_iterator@V?$_Vector_val@VioHashString@@V?$allocator@VioHashString@@@std@@@std@@@2@XZ ; std::vector<ioHashString,std::allocator<ioHashString> >::begin
; Function compile flags: /Ogsp
; File c:\program files (x86)\microsoft visual studio 10.0\vc\include\vector
;	COMDAT ?begin@?$vector@VioHashString@@V?$allocator@VioHashString@@@std@@@std@@QAE?AV?$_Vector_iterator@V?$_Vector_val@VioHashString@@V?$allocator@VioHashString@@@std@@@std@@@2@XZ
_TEXT	SEGMENT
___$ReturnUdt$ = 8					; size = 4
?begin@?$vector@VioHashString@@V?$allocator@VioHashString@@@std@@@std@@QAE?AV?$_Vector_iterator@V?$_Vector_val@VioHashString@@V?$allocator@VioHashString@@@std@@@std@@@2@XZ PROC ; std::vector<ioHashString,std::allocator<ioHashString> >::begin, COMDAT
; _this$ = ecx

; 781  : 		{	// return iterator for beginning of mutable sequence

  00000	55		 push	 ebp
  00001	8b ec		 mov	 ebp, esp

; 782  : 		return (iterator(this->_Myfirst, this));

  00003	8b 09		 mov	 ecx, DWORD PTR [ecx]
  00005	8b 45 08	 mov	 eax, DWORD PTR ___$ReturnUdt$[ebp]
  00008	89 08		 mov	 DWORD PTR [eax], ecx

; 783  : 		}

  0000a	5d		 pop	 ebp
  0000b	c2 04 00	 ret	 4
?begin@?$vector@VioHashString@@V?$allocator@VioHashString@@@std@@@std@@QAE?AV?$_Vector_iterator@V?$_Vector_val@VioHashString@@V?$allocator@VioHashString@@@std@@@std@@@2@XZ ENDP ; std::vector<ioHashString,std::allocator<ioHashString> >::begin
_TEXT	ENDS
PUBLIC	?begin@?$vector@VioHashString@@V?$allocator@VioHashString@@@std@@@std@@QBE?AV?$_Vector_const_iterator@V?$_Vector_val@VioHashString@@V?$allocator@VioHashString@@@std@@@std@@@2@XZ ; std::vector<ioHashString,std::allocator<ioHashString> >::begin
; Function compile flags: /Ogsp
;	COMDAT ?begin@?$vector@VioHashString@@V?$allocator@VioHashString@@@std@@@std@@QBE?AV?$_Vector_const_iterator@V?$_Vector_val@VioHashString@@V?$allocator@VioHashString@@@std@@@std@@@2@XZ
_TEXT	SEGMENT
___$ReturnUdt$ = 8					; size = 4
?begin@?$vector@VioHashString@@V?$allocator@VioHashString@@@std@@@std@@QBE?AV?$_Vector_const_iterator@V?$_Vector_val@VioHashString@@V?$allocator@VioHashString@@@std@@@std@@@2@XZ PROC ; std::vector<ioHashString,std::allocator<ioHashString> >::begin, COMDAT
; _this$ = ecx

; 786  : 		{	// return iterator for beginning of nonmutable sequence

  00000	55		 push	 ebp
  00001	8b ec		 mov	 ebp, esp

; 787  : 		return (const_iterator(this->_Myfirst, this));

  00003	8b 09		 mov	 ecx, DWORD PTR [ecx]
  00005	8b 45 08	 mov	 eax, DWORD PTR ___$ReturnUdt$[ebp]
  00008	89 08		 mov	 DWORD PTR [eax], ecx

; 788  : 		}

  0000a	5d		 pop	 ebp
  0000b	c2 04 00	 ret	 4
?begin@?$vector@VioHashString@@V?$allocator@VioHashString@@@std@@@std@@QBE?AV?$_Vector_const_iterator@V?$_Vector_val@VioHashString@@V?$allocator@VioHashString@@@std@@@std@@@2@XZ ENDP ; std::vector<ioHashString,std::allocator<ioHashString> >::begin
_TEXT	ENDS
PUBLIC	?end@?$vector@VioHashString@@V?$allocator@VioHashString@@@std@@@std@@QAE?AV?$_Vector_iterator@V?$_Vector_val@VioHashString@@V?$allocator@VioHashString@@@std@@@std@@@2@XZ ; std::vector<ioHashString,std::allocator<ioHashString> >::end
; Function compile flags: /Ogsp
;	COMDAT ?end@?$vector@VioHashString@@V?$allocator@VioHashString@@@std@@@std@@QAE?AV?$_Vector_iterator@V?$_Vector_val@VioHashString@@V?$allocator@VioHashString@@@std@@@std@@@2@XZ
_TEXT	SEGMENT
___$ReturnUdt$ = 8					; size = 4
?end@?$vector@VioHashString@@V?$allocator@VioHashString@@@std@@@std@@QAE?AV?$_Vector_iterator@V?$_Vector_val@VioHashString@@V?$allocator@VioHashString@@@std@@@std@@@2@XZ PROC ; std::vector<ioHashString,std::allocator<ioHashString> >::end, COMDAT
; _this$ = ecx

; 791  : 		{	// return iterator for end of mutable sequence

  00000	55		 push	 ebp
  00001	8b ec		 mov	 ebp, esp

; 792  : 		return (iterator(this->_Mylast, this));

  00003	8b 49 04	 mov	 ecx, DWORD PTR [ecx+4]
  00006	8b 45 08	 mov	 eax, DWORD PTR ___$ReturnUdt$[ebp]
  00009	89 08		 mov	 DWORD PTR [eax], ecx

; 793  : 		}

  0000b	5d		 pop	 ebp
  0000c	c2 04 00	 ret	 4
?end@?$vector@VioHashString@@V?$allocator@VioHashString@@@std@@@std@@QAE?AV?$_Vector_iterator@V?$_Vector_val@VioHashString@@V?$allocator@VioHashString@@@std@@@std@@@2@XZ ENDP ; std::vector<ioHashString,std::allocator<ioHashString> >::end
_TEXT	ENDS
PUBLIC	?end@?$vector@VioHashString@@V?$allocator@VioHashString@@@std@@@std@@QBE?AV?$_Vector_const_iterator@V?$_Vector_val@VioHashString@@V?$allocator@VioHashString@@@std@@@std@@@2@XZ ; std::vector<ioHashString,std::allocator<ioHashString> >::end
; Function compile flags: /Ogsp
;	COMDAT ?end@?$vector@VioHashString@@V?$allocator@VioHashString@@@std@@@std@@QBE?AV?$_Vector_const_iterator@V?$_Vector_val@VioHashString@@V?$allocator@VioHashString@@@std@@@std@@@2@XZ
_TEXT	SEGMENT
___$ReturnUdt$ = 8					; size = 4
?end@?$vector@VioHashString@@V?$allocator@VioHashString@@@std@@@std@@QBE?AV?$_Vector_const_iterator@V?$_Vector_val@VioHashString@@V?$allocator@VioHashString@@@std@@@std@@@2@XZ PROC ; std::vector<ioHashString,std::allocator<ioHashString> >::end, COMDAT
; _this$ = ecx

; 796  : 		{	// return iterator for end of nonmutable sequence

  00000	55		 push	 ebp
  00001	8b ec		 mov	 ebp, esp

; 797  : 		return (const_iterator(this->_Mylast, this));

  00003	8b 49 04	 mov	 ecx, DWORD PTR [ecx+4]
  00006	8b 45 08	 mov	 eax, DWORD PTR ___$ReturnUdt$[ebp]
  00009	89 08		 mov	 DWORD PTR [eax], ecx

; 798  : 		}

  0000b	5d		 pop	 ebp
  0000c	c2 04 00	 ret	 4
?end@?$vector@VioHashString@@V?$allocator@VioHashString@@@std@@@std@@QBE?AV?$_Vector_const_iterator@V?$_Vector_val@VioHashString@@V?$allocator@VioHashString@@@std@@@std@@@2@XZ ENDP ; std::vector<ioHashString,std::allocator<ioHashString> >::end
_TEXT	ENDS
PUBLIC	??0?$_Vector_val@VioHashString@@V?$allocator@VioHashString@@@std@@@std@@QAE@V?$allocator@VioHashString@@@1@@Z ; std::_Vector_val<ioHashString,std::allocator<ioHashString> >::_Vector_val<ioHashString,std::allocator<ioHashString> >
; Function compile flags: /Ogsp
;	COMDAT ??0?$_Vector_val@VioHashString@@V?$allocator@VioHashString@@@std@@@std@@QAE@V?$allocator@VioHashString@@@1@@Z
_TEXT	SEGMENT
__Al$ = 8						; size = 1
??0?$_Vector_val@VioHashString@@V?$allocator@VioHashString@@@std@@@std@@QAE@V?$allocator@VioHashString@@@1@@Z PROC ; std::_Vector_val<ioHashString,std::allocator<ioHashString> >::_Vector_val<ioHashString,std::allocator<ioHashString> >, COMDAT
; _this$ = ecx

; 426  : 		{	// construct allocator from _Al

  00000	8b c1		 mov	 eax, ecx

; 427  : 		_Myfirst = 0;

  00002	33 c9		 xor	 ecx, ecx
  00004	89 08		 mov	 DWORD PTR [eax], ecx

; 428  : 		_Mylast = 0;

  00006	89 48 04	 mov	 DWORD PTR [eax+4], ecx

; 429  : 		_Myend = 0;

  00009	89 48 08	 mov	 DWORD PTR [eax+8], ecx

; 430  : 		}

  0000c	c2 04 00	 ret	 4
??0?$_Vector_val@VioHashString@@V?$allocator@VioHashString@@@std@@@std@@QAE@V?$allocator@VioHashString@@@1@@Z ENDP ; std::_Vector_val<ioHashString,std::allocator<ioHashString> >::_Vector_val<ioHashString,std::allocator<ioHashString> >
_TEXT	ENDS
PUBLIC	??0?$_Vector_val@UWeaponInfo@@V?$allocator@UWeaponInfo@@@std@@@std@@QAE@V?$allocator@UWeaponInfo@@@1@@Z ; std::_Vector_val<WeaponInfo,std::allocator<WeaponInfo> >::_Vector_val<WeaponInfo,std::allocator<WeaponInfo> >
; Function compile flags: /Ogsp
;	COMDAT ??0?$_Vector_val@UWeaponInfo@@V?$allocator@UWeaponInfo@@@std@@@std@@QAE@V?$allocator@UWeaponInfo@@@1@@Z
_TEXT	SEGMENT
__Al$ = 8						; size = 1
??0?$_Vector_val@UWeaponInfo@@V?$allocator@UWeaponInfo@@@std@@@std@@QAE@V?$allocator@UWeaponInfo@@@1@@Z PROC ; std::_Vector_val<WeaponInfo,std::allocator<WeaponInfo> >::_Vector_val<WeaponInfo,std::allocator<WeaponInfo> >, COMDAT
; _this$ = ecx

; 426  : 		{	// construct allocator from _Al

  00000	8b c1		 mov	 eax, ecx

; 427  : 		_Myfirst = 0;

  00002	33 c9		 xor	 ecx, ecx
  00004	89 08		 mov	 DWORD PTR [eax], ecx

; 428  : 		_Mylast = 0;

  00006	89 48 04	 mov	 DWORD PTR [eax+4], ecx

; 429  : 		_Myend = 0;

  00009	89 48 08	 mov	 DWORD PTR [eax+8], ecx

; 430  : 		}

  0000c	c2 04 00	 ret	 4
??0?$_Vector_val@UWeaponInfo@@V?$allocator@UWeaponInfo@@@std@@@std@@QAE@V?$allocator@UWeaponInfo@@@1@@Z ENDP ; std::_Vector_val<WeaponInfo,std::allocator<WeaponInfo> >::_Vector_val<WeaponInfo,std::allocator<WeaponInfo> >
_TEXT	ENDS
PUBLIC	??0?$_Vector_val@UForceInfo@@V?$allocator@UForceInfo@@@std@@@std@@QAE@V?$allocator@UForceInfo@@@1@@Z ; std::_Vector_val<ForceInfo,std::allocator<ForceInfo> >::_Vector_val<ForceInfo,std::allocator<ForceInfo> >
; Function compile flags: /Ogsp
;	COMDAT ??0?$_Vector_val@UForceInfo@@V?$allocator@UForceInfo@@@std@@@std@@QAE@V?$allocator@UForceInfo@@@1@@Z
_TEXT	SEGMENT
__Al$ = 8						; size = 1
??0?$_Vector_val@UForceInfo@@V?$allocator@UForceInfo@@@std@@@std@@QAE@V?$allocator@UForceInfo@@@1@@Z PROC ; std::_Vector_val<ForceInfo,std::allocator<ForceInfo> >::_Vector_val<ForceInfo,std::allocator<ForceInfo> >, COMDAT
; _this$ = ecx

; 426  : 		{	// construct allocator from _Al

  00000	8b c1		 mov	 eax, ecx

; 427  : 		_Myfirst = 0;

  00002	33 c9		 xor	 ecx, ecx
  00004	89 08		 mov	 DWORD PTR [eax], ecx

; 428  : 		_Mylast = 0;

  00006	89 48 04	 mov	 DWORD PTR [eax+4], ecx

; 429  : 		_Myend = 0;

  00009	89 48 08	 mov	 DWORD PTR [eax+8], ecx

; 430  : 		}

  0000c	c2 04 00	 ret	 4
??0?$_Vector_val@UForceInfo@@V?$allocator@UForceInfo@@@std@@@std@@QAE@V?$allocator@UForceInfo@@@1@@Z ENDP ; std::_Vector_val<ForceInfo,std::allocator<ForceInfo> >::_Vector_val<ForceInfo,std::allocator<ForceInfo> >
_TEXT	ENDS
PUBLIC	??0?$_Vector_val@UAttackAttribute@@V?$allocator@UAttackAttribute@@@std@@@std@@QAE@V?$allocator@UAttackAttribute@@@1@@Z ; std::_Vector_val<AttackAttribute,std::allocator<AttackAttribute> >::_Vector_val<AttackAttribute,std::allocator<AttackAttribute> >
; Function compile flags: /Ogsp
;	COMDAT ??0?$_Vector_val@UAttackAttribute@@V?$allocator@UAttackAttribute@@@std@@@std@@QAE@V?$allocator@UAttackAttribute@@@1@@Z
_TEXT	SEGMENT
__Al$ = 8						; size = 1
??0?$_Vector_val@UAttackAttribute@@V?$allocator@UAttackAttribute@@@std@@@std@@QAE@V?$allocator@UAttackAttribute@@@1@@Z PROC ; std::_Vector_val<AttackAttribute,std::allocator<AttackAttribute> >::_Vector_val<AttackAttribute,std::allocator<AttackAttribute> >, COMDAT
; _this$ = ecx

; 426  : 		{	// construct allocator from _Al

  00000	8b c1		 mov	 eax, ecx

; 427  : 		_Myfirst = 0;

  00002	33 c9		 xor	 ecx, ecx
  00004	89 08		 mov	 DWORD PTR [eax], ecx

; 428  : 		_Mylast = 0;

  00006	89 48 04	 mov	 DWORD PTR [eax+4], ecx

; 429  : 		_Myend = 0;

  00009	89 48 08	 mov	 DWORD PTR [eax+8], ecx

; 430  : 		}

  0000c	c2 04 00	 ret	 4
??0?$_Vector_val@UAttackAttribute@@V?$allocator@UAttackAttribute@@@std@@@std@@QAE@V?$allocator@UAttackAttribute@@@1@@Z ENDP ; std::_Vector_val<AttackAttribute,std::allocator<AttackAttribute> >::_Vector_val<AttackAttribute,std::allocator<AttackAttribute> >
_TEXT	ENDS
PUBLIC	?_Make_iter@?$vector@VioHashString@@V?$allocator@VioHashString@@@std@@@std@@QBE?AV?$_Vector_iterator@V?$_Vector_val@VioHashString@@V?$allocator@VioHashString@@@std@@@std@@@2@V?$_Vector_const_iterator@V?$_Vector_val@VioHashString@@V?$allocator@VioHashString@@@std@@@std@@@2@@Z ; std::vector<ioHashString,std::allocator<ioHashString> >::_Make_iter
; Function compile flags: /Ogsp
;	COMDAT ?_Make_iter@?$vector@VioHashString@@V?$allocator@VioHashString@@@std@@@std@@QBE?AV?$_Vector_iterator@V?$_Vector_val@VioHashString@@V?$allocator@VioHashString@@@std@@@std@@@2@V?$_Vector_const_iterator@V?$_Vector_val@VioHashString@@V?$allocator@VioHashString@@@std@@@std@@@2@@Z
_TEXT	SEGMENT
___$ReturnUdt$ = 8					; size = 4
__Where$ = 12						; size = 4
?_Make_iter@?$vector@VioHashString@@V?$allocator@VioHashString@@@std@@@std@@QBE?AV?$_Vector_iterator@V?$_Vector_val@VioHashString@@V?$allocator@VioHashString@@@std@@@std@@@2@V?$_Vector_const_iterator@V?$_Vector_val@VioHashString@@V?$allocator@VioHashString@@@std@@@std@@@2@@Z PROC ; std::vector<ioHashString,std::allocator<ioHashString> >::_Make_iter, COMDAT
; _this$ = ecx

; 801  : 		{	// make iterator from const_iterator

  00000	55		 push	 ebp
  00001	8b ec		 mov	 ebp, esp

; 802  : 		return (iterator(_Where._Ptr, this));

  00003	8b 45 08	 mov	 eax, DWORD PTR ___$ReturnUdt$[ebp]
  00006	8b 4d 0c	 mov	 ecx, DWORD PTR __Where$[ebp]
  00009	89 08		 mov	 DWORD PTR [eax], ecx

; 803  : 		}

  0000b	5d		 pop	 ebp
  0000c	c2 08 00	 ret	 8
?_Make_iter@?$vector@VioHashString@@V?$allocator@VioHashString@@@std@@@std@@QBE?AV?$_Vector_iterator@V?$_Vector_val@VioHashString@@V?$allocator@VioHashString@@@std@@@std@@@2@V?$_Vector_const_iterator@V?$_Vector_val@VioHashString@@V?$allocator@VioHashString@@@std@@@std@@@2@@Z ENDP ; std::vector<ioHashString,std::allocator<ioHashString> >::_Make_iter
_TEXT	ENDS
PUBLIC	?max_size@?$vector@VioHashString@@V?$allocator@VioHashString@@@std@@@std@@QBEIXZ ; std::vector<ioHashString,std::allocator<ioHashString> >::max_size
; Function compile flags: /Ogsp
;	COMDAT ?max_size@?$vector@VioHashString@@V?$allocator@VioHashString@@@std@@@std@@QBEIXZ
_TEXT	SEGMENT
?max_size@?$vector@VioHashString@@V?$allocator@VioHashString@@@std@@@std@@QBEIXZ PROC ; std::vector<ioHashString,std::allocator<ioHashString> >::max_size, COMDAT
; _this$ = ecx

; 884  : 		return (this->_Alval.max_size());

  00000	b8 ff ff ff 0f	 mov	 eax, 268435455		; 0fffffffH

; 885  : 		}

  00005	c3		 ret	 0
?max_size@?$vector@VioHashString@@V?$allocator@VioHashString@@@std@@@std@@QBEIXZ ENDP ; std::vector<ioHashString,std::allocator<ioHashString> >::max_size
_TEXT	ENDS
PUBLIC	?allocate@?$allocator@VioHashString@@@std@@QAEPAVioHashString@@I@Z ; std::allocator<ioHashString>::allocate
; Function compile flags: /Ogsp
; File c:\program files (x86)\microsoft visual studio 10.0\vc\include\xmemory
;	COMDAT ?allocate@?$allocator@VioHashString@@@std@@QAEPAVioHashString@@I@Z
_TEXT	SEGMENT
__Count$ = 8						; size = 4
?allocate@?$allocator@VioHashString@@@std@@QAEPAVioHashString@@I@Z PROC ; std::allocator<ioHashString>::allocate, COMDAT
; _this$ = ecx

; 186  : 		{	// allocate array of _Count elements

  00000	55		 push	 ebp
  00001	8b ec		 mov	 ebp, esp

; 187  : 		return (_Allocate(_Count, (pointer)0));

  00003	6a 00		 push	 0
  00005	ff 75 08	 push	 DWORD PTR __Count$[ebp]
  00008	e8 00 00 00 00	 call	 ??$_Allocate@VioHashString@@@std@@YAPAVioHashString@@IPAV1@@Z ; std::_Allocate<ioHashString>
  0000d	59		 pop	 ecx
  0000e	59		 pop	 ecx

; 188  : 		}

  0000f	5d		 pop	 ebp
  00010	c2 04 00	 ret	 4
?allocate@?$allocator@VioHashString@@@std@@QAEPAVioHashString@@I@Z ENDP ; std::allocator<ioHashString>::allocate
_TEXT	ENDS
PUBLIC	??0?$_Vector_iterator@V?$_Vector_val@UAttackAttribute@@V?$allocator@UAttackAttribute@@@std@@@std@@@std@@QAE@PAUAttackAttribute@@PBU_Container_base0@1@@Z ; std::_Vector_iterator<std::_Vector_val<AttackAttribute,std::allocator<AttackAttribute> > >::_Vector_iterator<std::_Vector_val<AttackAttribute,std::allocator<AttackAttribute> > >
; Function compile flags: /Ogsp
; File c:\program files (x86)\microsoft visual studio 10.0\vc\include\vector
;	COMDAT ??0?$_Vector_iterator@V?$_Vector_val@UAttackAttribute@@V?$allocator@UAttackAttribute@@@std@@@std@@@std@@QAE@PAUAttackAttribute@@PBU_Container_base0@1@@Z
_TEXT	SEGMENT
__Parg$ = 8						; size = 4
__Pvector$ = 12						; size = 4
??0?$_Vector_iterator@V?$_Vector_val@UAttackAttribute@@V?$allocator@UAttackAttribute@@@std@@@std@@@std@@QAE@PAUAttackAttribute@@PBU_Container_base0@1@@Z PROC ; std::_Vector_iterator<std::_Vector_val<AttackAttribute,std::allocator<AttackAttribute> > >::_Vector_iterator<std::_Vector_val<AttackAttribute,std::allocator<AttackAttribute> > >, COMDAT
; _this$ = ecx

; 304  : 		{	// construct with pointer _Parg

  00000	55		 push	 ebp
  00001	8b ec		 mov	 ebp, esp
  00003	8b c1		 mov	 eax, ecx
  00005	8b 4d 08	 mov	 ecx, DWORD PTR __Parg$[ebp]
  00008	89 08		 mov	 DWORD PTR [eax], ecx

; 305  : 		}

  0000a	5d		 pop	 ebp
  0000b	c2 08 00	 ret	 8
??0?$_Vector_iterator@V?$_Vector_val@UAttackAttribute@@V?$allocator@UAttackAttribute@@@std@@@std@@@std@@QAE@PAUAttackAttribute@@PBU_Container_base0@1@@Z ENDP ; std::_Vector_iterator<std::_Vector_val<AttackAttribute,std::allocator<AttackAttribute> > >::_Vector_iterator<std::_Vector_val<AttackAttribute,std::allocator<AttackAttribute> > >
_TEXT	ENDS
PUBLIC	??8?$_Vector_const_iterator@V?$_Vector_val@VioHashString@@V?$allocator@VioHashString@@@std@@@std@@@std@@QBE_NABV01@@Z ; std::_Vector_const_iterator<std::_Vector_val<ioHashString,std::allocator<ioHashString> > >::operator==
; Function compile flags: /Ogsp
;	COMDAT ??8?$_Vector_const_iterator@V?$_Vector_val@VioHashString@@V?$allocator@VioHashString@@@std@@@std@@@std@@QBE_NABV01@@Z
_TEXT	SEGMENT
__Right$ = 8						; size = 4
??8?$_Vector_const_iterator@V?$_Vector_val@VioHashString@@V?$allocator@VioHashString@@@std@@@std@@@std@@QBE_NABV01@@Z PROC ; std::_Vector_const_iterator<std::_Vector_val<ioHashString,std::allocator<ioHashString> > >::operator==, COMDAT
; _this$ = ecx

; 201  : 		{	// test for iterator equality

  00000	55		 push	 ebp
  00001	8b ec		 mov	 ebp, esp

; 202  : 		_Compat(_Right);
; 203  : 		return (this->_Ptr == _Right._Ptr);

  00003	8b 01		 mov	 eax, DWORD PTR [ecx]
  00005	8b 4d 08	 mov	 ecx, DWORD PTR __Right$[ebp]
  00008	2b 01		 sub	 eax, DWORD PTR [ecx]
  0000a	f7 d8		 neg	 eax
  0000c	1b c0		 sbb	 eax, eax
  0000e	40		 inc	 eax

; 204  : 		}

  0000f	5d		 pop	 ebp
  00010	c2 04 00	 ret	 4
??8?$_Vector_const_iterator@V?$_Vector_val@VioHashString@@V?$allocator@VioHashString@@@std@@@std@@@std@@QBE_NABV01@@Z ENDP ; std::_Vector_const_iterator<std::_Vector_val<ioHashString,std::allocator<ioHashString> > >::operator==
_TEXT	ENDS
PUBLIC	??8?$_Vector_const_iterator@V?$_Vector_val@UAttackAttribute@@V?$allocator@UAttackAttribute@@@std@@@std@@@std@@QBE_NABV01@@Z ; std::_Vector_const_iterator<std::_Vector_val<AttackAttribute,std::allocator<AttackAttribute> > >::operator==
; Function compile flags: /Ogsp
;	COMDAT ??8?$_Vector_const_iterator@V?$_Vector_val@UAttackAttribute@@V?$allocator@UAttackAttribute@@@std@@@std@@@std@@QBE_NABV01@@Z
_TEXT	SEGMENT
__Right$ = 8						; size = 4
??8?$_Vector_const_iterator@V?$_Vector_val@UAttackAttribute@@V?$allocator@UAttackAttribute@@@std@@@std@@@std@@QBE_NABV01@@Z PROC ; std::_Vector_const_iterator<std::_Vector_val<AttackAttribute,std::allocator<AttackAttribute> > >::operator==, COMDAT
; _this$ = ecx

; 201  : 		{	// test for iterator equality

  00000	55		 push	 ebp
  00001	8b ec		 mov	 ebp, esp

; 202  : 		_Compat(_Right);
; 203  : 		return (this->_Ptr == _Right._Ptr);

  00003	8b 01		 mov	 eax, DWORD PTR [ecx]
  00005	8b 4d 08	 mov	 ecx, DWORD PTR __Right$[ebp]
  00008	2b 01		 sub	 eax, DWORD PTR [ecx]
  0000a	f7 d8		 neg	 eax
  0000c	1b c0		 sbb	 eax, eax
  0000e	40		 inc	 eax

; 204  : 		}

  0000f	5d		 pop	 ebp
  00010	c2 04 00	 ret	 4
??8?$_Vector_const_iterator@V?$_Vector_val@UAttackAttribute@@V?$allocator@UAttackAttribute@@@std@@@std@@@std@@QBE_NABV01@@Z ENDP ; std::_Vector_const_iterator<std::_Vector_val<AttackAttribute,std::allocator<AttackAttribute> > >::operator==
_TEXT	ENDS
PUBLIC	??$_Move@PAVioHashString@@PAV1@@std@@YAPAVioHashString@@PAV1@00U_Nonscalar_ptr_iterator_tag@0@@Z ; std::_Move<ioHashString *,ioHashString *>
; Function compile flags: /Ogsp
; File c:\program files (x86)\microsoft visual studio 10.0\vc\include\xutility
;	COMDAT ??$_Move@PAVioHashString@@PAV1@@std@@YAPAVioHashString@@PAV1@00U_Nonscalar_ptr_iterator_tag@0@@Z
_TEXT	SEGMENT
__First$ = 8						; size = 4
__Last$ = 12						; size = 4
__Dest$ = 16						; size = 4
___formal$ = 20						; size = 1
??$_Move@PAVioHashString@@PAV1@@std@@YAPAVioHashString@@PAV1@00U_Nonscalar_ptr_iterator_tag@0@@Z PROC ; std::_Move<ioHashString *,ioHashString *>, COMDAT

; 2512 : 	{	// move [_First, _Last) to [_Dest, ...), arbitrary iterators

  00000	55		 push	 ebp
  00001	8b ec		 mov	 ebp, esp
  00003	56		 push	 esi

; 2513 : 	for (; _First != _Last; ++_Dest, ++_First)

  00004	8b 75 08	 mov	 esi, DWORD PTR __First$[ebp]
  00007	eb 11		 jmp	 SHORT $LN11@Move
$LL3@Move:

; 2514 : 		*_Dest = _STD move(*_First);

  00009	8b 4d 10	 mov	 ecx, DWORD PTR __Dest$[ebp]
  0000c	56		 push	 esi
  0000d	ff 15 00 00 00
	00		 call	 DWORD PTR __imp_??4ioHashString@@QAEAAV0@ABV0@@Z
  00013	83 45 10 10	 add	 DWORD PTR __Dest$[ebp], 16 ; 00000010H
  00017	83 c6 10	 add	 esi, 16			; 00000010H
$LN11@Move:

; 2513 : 	for (; _First != _Last; ++_Dest, ++_First)

  0001a	3b 75 0c	 cmp	 esi, DWORD PTR __Last$[ebp]
  0001d	75 ea		 jne	 SHORT $LL3@Move

; 2515 : 	return (_Dest);

  0001f	8b 45 10	 mov	 eax, DWORD PTR __Dest$[ebp]
  00022	5e		 pop	 esi

; 2516 : 	}

  00023	5d		 pop	 ebp
  00024	c3		 ret	 0
??$_Move@PAVioHashString@@PAV1@@std@@YAPAVioHashString@@PAV1@00U_Nonscalar_ptr_iterator_tag@0@@Z ENDP ; std::_Move<ioHashString *,ioHashString *>
_TEXT	ENDS
PUBLIC	?max_size@?$vector@UWeaponInfo@@V?$allocator@UWeaponInfo@@@std@@@std@@QBEIXZ ; std::vector<WeaponInfo,std::allocator<WeaponInfo> >::max_size
; Function compile flags: /Ogsp
; File c:\program files (x86)\microsoft visual studio 10.0\vc\include\vector
;	COMDAT ?max_size@?$vector@UWeaponInfo@@V?$allocator@UWeaponInfo@@@std@@@std@@QBEIXZ
_TEXT	SEGMENT
?max_size@?$vector@UWeaponInfo@@V?$allocator@UWeaponInfo@@@std@@@std@@QBEIXZ PROC ; std::vector<WeaponInfo,std::allocator<WeaponInfo> >::max_size, COMDAT
; _this$ = ecx

; 884  : 		return (this->_Alval.max_size());

  00000	b8 66 66 66 06	 mov	 eax, 107374182		; 06666666H

; 885  : 		}

  00005	c3		 ret	 0
?max_size@?$vector@UWeaponInfo@@V?$allocator@UWeaponInfo@@@std@@@std@@QBEIXZ ENDP ; std::vector<WeaponInfo,std::allocator<WeaponInfo> >::max_size
_TEXT	ENDS
PUBLIC	?allocate@?$allocator@UWeaponInfo@@@std@@QAEPAUWeaponInfo@@I@Z ; std::allocator<WeaponInfo>::allocate
; Function compile flags: /Ogsp
; File c:\program files (x86)\microsoft visual studio 10.0\vc\include\xmemory
;	COMDAT ?allocate@?$allocator@UWeaponInfo@@@std@@QAEPAUWeaponInfo@@I@Z
_TEXT	SEGMENT
__Count$ = 8						; size = 4
?allocate@?$allocator@UWeaponInfo@@@std@@QAEPAUWeaponInfo@@I@Z PROC ; std::allocator<WeaponInfo>::allocate, COMDAT
; _this$ = ecx

; 186  : 		{	// allocate array of _Count elements

  00000	55		 push	 ebp
  00001	8b ec		 mov	 ebp, esp

; 187  : 		return (_Allocate(_Count, (pointer)0));

  00003	6a 00		 push	 0
  00005	ff 75 08	 push	 DWORD PTR __Count$[ebp]
  00008	e8 00 00 00 00	 call	 ??$_Allocate@UWeaponInfo@@@std@@YAPAUWeaponInfo@@IPAU1@@Z ; std::_Allocate<WeaponInfo>
  0000d	59		 pop	 ecx
  0000e	59		 pop	 ecx

; 188  : 		}

  0000f	5d		 pop	 ebp
  00010	c2 04 00	 ret	 4
?allocate@?$allocator@UWeaponInfo@@@std@@QAEPAUWeaponInfo@@I@Z ENDP ; std::allocator<WeaponInfo>::allocate
_TEXT	ENDS
PUBLIC	?max_size@?$vector@UForceInfo@@V?$allocator@UForceInfo@@@std@@@std@@QBEIXZ ; std::vector<ForceInfo,std::allocator<ForceInfo> >::max_size
; Function compile flags: /Ogsp
; File c:\program files (x86)\microsoft visual studio 10.0\vc\include\vector
;	COMDAT ?max_size@?$vector@UForceInfo@@V?$allocator@UForceInfo@@@std@@@std@@QBEIXZ
_TEXT	SEGMENT
?max_size@?$vector@UForceInfo@@V?$allocator@UForceInfo@@@std@@@std@@QBEIXZ PROC ; std::vector<ForceInfo,std::allocator<ForceInfo> >::max_size, COMDAT
; _this$ = ecx

; 884  : 		return (this->_Alval.max_size());

  00000	b8 55 55 55 15	 mov	 eax, 357913941		; 15555555H

; 885  : 		}

  00005	c3		 ret	 0
?max_size@?$vector@UForceInfo@@V?$allocator@UForceInfo@@@std@@@std@@QBEIXZ ENDP ; std::vector<ForceInfo,std::allocator<ForceInfo> >::max_size
_TEXT	ENDS
PUBLIC	?allocate@?$allocator@UForceInfo@@@std@@QAEPAUForceInfo@@I@Z ; std::allocator<ForceInfo>::allocate
; Function compile flags: /Ogsp
; File c:\program files (x86)\microsoft visual studio 10.0\vc\include\xmemory
;	COMDAT ?allocate@?$allocator@UForceInfo@@@std@@QAEPAUForceInfo@@I@Z
_TEXT	SEGMENT
__Count$ = 8						; size = 4
?allocate@?$allocator@UForceInfo@@@std@@QAEPAUForceInfo@@I@Z PROC ; std::allocator<ForceInfo>::allocate, COMDAT
; _this$ = ecx

; 186  : 		{	// allocate array of _Count elements

  00000	55		 push	 ebp
  00001	8b ec		 mov	 ebp, esp

; 187  : 		return (_Allocate(_Count, (pointer)0));

  00003	6a 00		 push	 0
  00005	ff 75 08	 push	 DWORD PTR __Count$[ebp]
  00008	e8 00 00 00 00	 call	 ??$_Allocate@UForceInfo@@@std@@YAPAUForceInfo@@IPAU1@@Z ; std::_Allocate<ForceInfo>
  0000d	59		 pop	 ecx
  0000e	59		 pop	 ecx

; 188  : 		}

  0000f	5d		 pop	 ebp
  00010	c2 04 00	 ret	 4
?allocate@?$allocator@UForceInfo@@@std@@QAEPAUForceInfo@@I@Z ENDP ; std::allocator<ForceInfo>::allocate
_TEXT	ENDS
PUBLIC	??0?$_Vector_iterator@V?$_Vector_val@UWeaponInfo@@V?$allocator@UWeaponInfo@@@std@@@std@@@std@@QAE@PAUWeaponInfo@@PBU_Container_base0@1@@Z ; std::_Vector_iterator<std::_Vector_val<WeaponInfo,std::allocator<WeaponInfo> > >::_Vector_iterator<std::_Vector_val<WeaponInfo,std::allocator<WeaponInfo> > >
; Function compile flags: /Ogsp
; File c:\program files (x86)\microsoft visual studio 10.0\vc\include\vector
;	COMDAT ??0?$_Vector_iterator@V?$_Vector_val@UWeaponInfo@@V?$allocator@UWeaponInfo@@@std@@@std@@@std@@QAE@PAUWeaponInfo@@PBU_Container_base0@1@@Z
_TEXT	SEGMENT
__Parg$ = 8						; size = 4
__Pvector$ = 12						; size = 4
??0?$_Vector_iterator@V?$_Vector_val@UWeaponInfo@@V?$allocator@UWeaponInfo@@@std@@@std@@@std@@QAE@PAUWeaponInfo@@PBU_Container_base0@1@@Z PROC ; std::_Vector_iterator<std::_Vector_val<WeaponInfo,std::allocator<WeaponInfo> > >::_Vector_iterator<std::_Vector_val<WeaponInfo,std::allocator<WeaponInfo> > >, COMDAT
; _this$ = ecx

; 304  : 		{	// construct with pointer _Parg

  00000	55		 push	 ebp
  00001	8b ec		 mov	 ebp, esp
  00003	8b c1		 mov	 eax, ecx
  00005	8b 4d 08	 mov	 ecx, DWORD PTR __Parg$[ebp]
  00008	89 08		 mov	 DWORD PTR [eax], ecx

; 305  : 		}

  0000a	5d		 pop	 ebp
  0000b	c2 08 00	 ret	 8
??0?$_Vector_iterator@V?$_Vector_val@UWeaponInfo@@V?$allocator@UWeaponInfo@@@std@@@std@@@std@@QAE@PAUWeaponInfo@@PBU_Container_base0@1@@Z ENDP ; std::_Vector_iterator<std::_Vector_val<WeaponInfo,std::allocator<WeaponInfo> > >::_Vector_iterator<std::_Vector_val<WeaponInfo,std::allocator<WeaponInfo> > >
_TEXT	ENDS
PUBLIC	??0?$_Vector_iterator@V?$_Vector_val@UForceInfo@@V?$allocator@UForceInfo@@@std@@@std@@@std@@QAE@PAUForceInfo@@PBU_Container_base0@1@@Z ; std::_Vector_iterator<std::_Vector_val<ForceInfo,std::allocator<ForceInfo> > >::_Vector_iterator<std::_Vector_val<ForceInfo,std::allocator<ForceInfo> > >
; Function compile flags: /Ogsp
;	COMDAT ??0?$_Vector_iterator@V?$_Vector_val@UForceInfo@@V?$allocator@UForceInfo@@@std@@@std@@@std@@QAE@PAUForceInfo@@PBU_Container_base0@1@@Z
_TEXT	SEGMENT
__Parg$ = 8						; size = 4
__Pvector$ = 12						; size = 4
??0?$_Vector_iterator@V?$_Vector_val@UForceInfo@@V?$allocator@UForceInfo@@@std@@@std@@@std@@QAE@PAUForceInfo@@PBU_Container_base0@1@@Z PROC ; std::_Vector_iterator<std::_Vector_val<ForceInfo,std::allocator<ForceInfo> > >::_Vector_iterator<std::_Vector_val<ForceInfo,std::allocator<ForceInfo> > >, COMDAT
; _this$ = ecx

; 304  : 		{	// construct with pointer _Parg

  00000	55		 push	 ebp
  00001	8b ec		 mov	 ebp, esp
  00003	8b c1		 mov	 eax, ecx
  00005	8b 4d 08	 mov	 ecx, DWORD PTR __Parg$[ebp]
  00008	89 08		 mov	 DWORD PTR [eax], ecx

; 305  : 		}

  0000a	5d		 pop	 ebp
  0000b	c2 08 00	 ret	 8
??0?$_Vector_iterator@V?$_Vector_val@UForceInfo@@V?$allocator@UForceInfo@@@std@@@std@@@std@@QAE@PAUForceInfo@@PBU_Container_base0@1@@Z ENDP ; std::_Vector_iterator<std::_Vector_val<ForceInfo,std::allocator<ForceInfo> > >::_Vector_iterator<std::_Vector_val<ForceInfo,std::allocator<ForceInfo> > >
_TEXT	ENDS
PUBLIC	??8?$_Vector_const_iterator@V?$_Vector_val@UWeaponInfo@@V?$allocator@UWeaponInfo@@@std@@@std@@@std@@QBE_NABV01@@Z ; std::_Vector_const_iterator<std::_Vector_val<WeaponInfo,std::allocator<WeaponInfo> > >::operator==
; Function compile flags: /Ogsp
;	COMDAT ??8?$_Vector_const_iterator@V?$_Vector_val@UWeaponInfo@@V?$allocator@UWeaponInfo@@@std@@@std@@@std@@QBE_NABV01@@Z
_TEXT	SEGMENT
__Right$ = 8						; size = 4
??8?$_Vector_const_iterator@V?$_Vector_val@UWeaponInfo@@V?$allocator@UWeaponInfo@@@std@@@std@@@std@@QBE_NABV01@@Z PROC ; std::_Vector_const_iterator<std::_Vector_val<WeaponInfo,std::allocator<WeaponInfo> > >::operator==, COMDAT
; _this$ = ecx

; 201  : 		{	// test for iterator equality

  00000	55		 push	 ebp
  00001	8b ec		 mov	 ebp, esp

; 202  : 		_Compat(_Right);
; 203  : 		return (this->_Ptr == _Right._Ptr);

  00003	8b 01		 mov	 eax, DWORD PTR [ecx]
  00005	8b 4d 08	 mov	 ecx, DWORD PTR __Right$[ebp]
  00008	2b 01		 sub	 eax, DWORD PTR [ecx]
  0000a	f7 d8		 neg	 eax
  0000c	1b c0		 sbb	 eax, eax
  0000e	40		 inc	 eax

; 204  : 		}

  0000f	5d		 pop	 ebp
  00010	c2 04 00	 ret	 4
??8?$_Vector_const_iterator@V?$_Vector_val@UWeaponInfo@@V?$allocator@UWeaponInfo@@@std@@@std@@@std@@QBE_NABV01@@Z ENDP ; std::_Vector_const_iterator<std::_Vector_val<WeaponInfo,std::allocator<WeaponInfo> > >::operator==
_TEXT	ENDS
PUBLIC	??8?$_Vector_const_iterator@V?$_Vector_val@UForceInfo@@V?$allocator@UForceInfo@@@std@@@std@@@std@@QBE_NABV01@@Z ; std::_Vector_const_iterator<std::_Vector_val<ForceInfo,std::allocator<ForceInfo> > >::operator==
; Function compile flags: /Ogsp
;	COMDAT ??8?$_Vector_const_iterator@V?$_Vector_val@UForceInfo@@V?$allocator@UForceInfo@@@std@@@std@@@std@@QBE_NABV01@@Z
_TEXT	SEGMENT
__Right$ = 8						; size = 4
??8?$_Vector_const_iterator@V?$_Vector_val@UForceInfo@@V?$allocator@UForceInfo@@@std@@@std@@@std@@QBE_NABV01@@Z PROC ; std::_Vector_const_iterator<std::_Vector_val<ForceInfo,std::allocator<ForceInfo> > >::operator==, COMDAT
; _this$ = ecx

; 201  : 		{	// test for iterator equality

  00000	55		 push	 ebp
  00001	8b ec		 mov	 ebp, esp

; 202  : 		_Compat(_Right);
; 203  : 		return (this->_Ptr == _Right._Ptr);

  00003	8b 01		 mov	 eax, DWORD PTR [ecx]
  00005	8b 4d 08	 mov	 ecx, DWORD PTR __Right$[ebp]
  00008	2b 01		 sub	 eax, DWORD PTR [ecx]
  0000a	f7 d8		 neg	 eax
  0000c	1b c0		 sbb	 eax, eax
  0000e	40		 inc	 eax

; 204  : 		}

  0000f	5d		 pop	 ebp
  00010	c2 04 00	 ret	 4
??8?$_Vector_const_iterator@V?$_Vector_val@UForceInfo@@V?$allocator@UForceInfo@@@std@@@std@@@std@@QBE_NABV01@@Z ENDP ; std::_Vector_const_iterator<std::_Vector_val<ForceInfo,std::allocator<ForceInfo> > >::operator==
_TEXT	ENDS
PUBLIC	??$_Copy_impl@PAUForceInfo@@PAU1@@std@@YAPAUForceInfo@@PAU1@00@Z ; std::_Copy_impl<ForceInfo *,ForceInfo *>
; Function compile flags: /Ogsp
; File c:\program files (x86)\microsoft visual studio 10.0\vc\include\xutility
;	COMDAT ??$_Copy_impl@PAUForceInfo@@PAU1@@std@@YAPAUForceInfo@@PAU1@00@Z
_TEXT	SEGMENT
__Cat$598222 = -4					; size = 1
__First$ = 8						; size = 4
__Last$ = 12						; size = 4
__Dest$ = 16						; size = 4
??$_Copy_impl@PAUForceInfo@@PAU1@@std@@YAPAUForceInfo@@PAU1@00@Z PROC ; std::_Copy_impl<ForceInfo *,ForceInfo *>, COMDAT

; 2163 : 	{	// copy [_First, _Last) to [_Dest, ...)

  00000	55		 push	 ebp
  00001	8b ec		 mov	 ebp, esp
  00003	51		 push	 ecx

; 2164 : 	return (_Copy_impl(_First, _Last,
; 2165 : 		_Dest, _Ptr_cat(_First, _Dest)));

  00004	ff 75 fc	 push	 DWORD PTR __Cat$598222[ebp]
  00007	ff 75 10	 push	 DWORD PTR __Dest$[ebp]
  0000a	ff 75 0c	 push	 DWORD PTR __Last$[ebp]
  0000d	ff 75 08	 push	 DWORD PTR __First$[ebp]
  00010	e8 00 00 00 00	 call	 ??$_Copy_impl@PAUForceInfo@@PAU1@@std@@YAPAUForceInfo@@PAU1@00U_Nonscalar_ptr_iterator_tag@0@@Z ; std::_Copy_impl<ForceInfo *,ForceInfo *>
  00015	83 c4 10	 add	 esp, 16			; 00000010H

; 2166 : 	}

  00018	c9		 leave
  00019	c3		 ret	 0
??$_Copy_impl@PAUForceInfo@@PAU1@@std@@YAPAUForceInfo@@PAU1@00@Z ENDP ; std::_Copy_impl<ForceInfo *,ForceInfo *>
_TEXT	ENDS
PUBLIC	?destroy@?$allocator@UForceInfo@@@std@@QAEXPAUForceInfo@@@Z ; std::allocator<ForceInfo>::destroy
; Function compile flags: /Ogsp
; File c:\program files (x86)\microsoft visual studio 10.0\vc\include\xmemory
;	COMDAT ?destroy@?$allocator@UForceInfo@@@std@@QAEXPAUForceInfo@@@Z
_TEXT	SEGMENT
__Ptr$ = 8						; size = 4
?destroy@?$allocator@UForceInfo@@@std@@QAEXPAUForceInfo@@@Z PROC ; std::allocator<ForceInfo>::destroy, COMDAT
; _this$ = ecx

; 213  : 		_Destroy(_Ptr);
; 214  : 		}

  00000	c2 04 00	 ret	 4
?destroy@?$allocator@UForceInfo@@@std@@QAEXPAUForceInfo@@@Z ENDP ; std::allocator<ForceInfo>::destroy
_TEXT	ENDS
PUBLIC	??$_Copy_impl@PAUWeaponInfo@@PAU1@@std@@YAPAUWeaponInfo@@PAU1@00U_Nonscalar_ptr_iterator_tag@0@@Z ; std::_Copy_impl<WeaponInfo *,WeaponInfo *>
; Function compile flags: /Ogsp
; File c:\program files (x86)\microsoft visual studio 10.0\vc\include\xutility
;	COMDAT ??$_Copy_impl@PAUWeaponInfo@@PAU1@@std@@YAPAUWeaponInfo@@PAU1@00U_Nonscalar_ptr_iterator_tag@0@@Z
_TEXT	SEGMENT
__First$ = 8						; size = 4
__Last$ = 12						; size = 4
__Dest$ = 16						; size = 4
___formal$ = 20						; size = 1
??$_Copy_impl@PAUWeaponInfo@@PAU1@@std@@YAPAUWeaponInfo@@PAU1@00U_Nonscalar_ptr_iterator_tag@0@@Z PROC ; std::_Copy_impl<WeaponInfo *,WeaponInfo *>, COMDAT

; 2142 : 	{	// copy [_First, _Last) to [_Dest, ...), arbitrary iterators

  00000	55		 push	 ebp
  00001	8b ec		 mov	 ebp, esp
  00003	56		 push	 esi

; 2143 : 	for (; _First != _Last; ++_Dest, ++_First)

  00004	8b 75 08	 mov	 esi, DWORD PTR __First$[ebp]
  00007	eb 10		 jmp	 SHORT $LN9@Copy_impl@2
$LL3@Copy_impl@2:

; 2144 : 		*_Dest = *_First;

  00009	8b 4d 10	 mov	 ecx, DWORD PTR __Dest$[ebp]
  0000c	56		 push	 esi
  0000d	e8 00 00 00 00	 call	 ??4WeaponInfo@@QAEAAU0@ABU0@@Z
  00012	83 45 10 28	 add	 DWORD PTR __Dest$[ebp], 40 ; 00000028H
  00016	83 c6 28	 add	 esi, 40			; 00000028H
$LN9@Copy_impl@2:

; 2143 : 	for (; _First != _Last; ++_Dest, ++_First)

  00019	3b 75 0c	 cmp	 esi, DWORD PTR __Last$[ebp]
  0001c	75 eb		 jne	 SHORT $LL3@Copy_impl@2

; 2145 : 	return (_Dest);

  0001e	8b 45 10	 mov	 eax, DWORD PTR __Dest$[ebp]
  00021	5e		 pop	 esi

; 2146 : 	}

  00022	5d		 pop	 ebp
  00023	c3		 ret	 0
??$_Copy_impl@PAUWeaponInfo@@PAU1@@std@@YAPAUWeaponInfo@@PAU1@00U_Nonscalar_ptr_iterator_tag@0@@Z ENDP ; std::_Copy_impl<WeaponInfo *,WeaponInfo *>
_TEXT	ENDS
PUBLIC	??$_Move@PAUWeaponInfo@@PAU1@@std@@YAPAUWeaponInfo@@PAU1@00U_Nonscalar_ptr_iterator_tag@0@@Z ; std::_Move<WeaponInfo *,WeaponInfo *>
; Function compile flags: /Ogsp
;	COMDAT ??$_Move@PAUWeaponInfo@@PAU1@@std@@YAPAUWeaponInfo@@PAU1@00U_Nonscalar_ptr_iterator_tag@0@@Z
_TEXT	SEGMENT
__First$ = 8						; size = 4
__Last$ = 12						; size = 4
__Dest$ = 16						; size = 4
___formal$ = 20						; size = 1
??$_Move@PAUWeaponInfo@@PAU1@@std@@YAPAUWeaponInfo@@PAU1@00U_Nonscalar_ptr_iterator_tag@0@@Z PROC ; std::_Move<WeaponInfo *,WeaponInfo *>, COMDAT

; 2512 : 	{	// move [_First, _Last) to [_Dest, ...), arbitrary iterators

  00000	55		 push	 ebp
  00001	8b ec		 mov	 ebp, esp
  00003	56		 push	 esi

; 2513 : 	for (; _First != _Last; ++_Dest, ++_First)

  00004	8b 75 08	 mov	 esi, DWORD PTR __First$[ebp]
  00007	eb 10		 jmp	 SHORT $LN11@Move@2
$LL3@Move@2:

; 2514 : 		*_Dest = _STD move(*_First);

  00009	8b 4d 10	 mov	 ecx, DWORD PTR __Dest$[ebp]
  0000c	56		 push	 esi
  0000d	e8 00 00 00 00	 call	 ??4WeaponInfo@@QAEAAU0@ABU0@@Z
  00012	83 45 10 28	 add	 DWORD PTR __Dest$[ebp], 40 ; 00000028H
  00016	83 c6 28	 add	 esi, 40			; 00000028H
$LN11@Move@2:

; 2513 : 	for (; _First != _Last; ++_Dest, ++_First)

  00019	3b 75 0c	 cmp	 esi, DWORD PTR __Last$[ebp]
  0001c	75 eb		 jne	 SHORT $LL3@Move@2

; 2515 : 	return (_Dest);

  0001e	8b 45 10	 mov	 eax, DWORD PTR __Dest$[ebp]
  00021	5e		 pop	 esi

; 2516 : 	}

  00022	5d		 pop	 ebp
  00023	c3		 ret	 0
??$_Move@PAUWeaponInfo@@PAU1@@std@@YAPAUWeaponInfo@@PAU1@00U_Nonscalar_ptr_iterator_tag@0@@Z ENDP ; std::_Move<WeaponInfo *,WeaponInfo *>
_TEXT	ENDS
PUBLIC	??$_Move@PAUForceInfo@@PAU1@@std@@YAPAUForceInfo@@PAU1@00U_Nonscalar_ptr_iterator_tag@0@@Z ; std::_Move<ForceInfo *,ForceInfo *>
; Function compile flags: /Ogsp
;	COMDAT ??$_Move@PAUForceInfo@@PAU1@@std@@YAPAUForceInfo@@PAU1@00U_Nonscalar_ptr_iterator_tag@0@@Z
_TEXT	SEGMENT
__First$ = 8						; size = 4
__Last$ = 12						; size = 4
__Dest$ = 16						; size = 4
___formal$ = 20						; size = 1
??$_Move@PAUForceInfo@@PAU1@@std@@YAPAUForceInfo@@PAU1@00U_Nonscalar_ptr_iterator_tag@0@@Z PROC ; std::_Move<ForceInfo *,ForceInfo *>, COMDAT

; 2512 : 	{	// move [_First, _Last) to [_Dest, ...), arbitrary iterators

  00000	55		 push	 ebp
  00001	8b ec		 mov	 ebp, esp

; 2513 : 	for (; _First != _Last; ++_Dest, ++_First)

  00003	8b 45 08	 mov	 eax, DWORD PTR __First$[ebp]
  00006	3b 45 0c	 cmp	 eax, DWORD PTR __Last$[ebp]
  00009	74 18		 je	 SHORT $LN10@Move@3
  0000b	56		 push	 esi
  0000c	57		 push	 edi
$LL3@Move@3:

; 2514 : 		*_Dest = _STD move(*_First);

  0000d	8b 7d 10	 mov	 edi, DWORD PTR __Dest$[ebp]
  00010	83 45 10 0c	 add	 DWORD PTR __Dest$[ebp], 12 ; 0000000cH
  00014	8b f0		 mov	 esi, eax
  00016	a5		 movsd
  00017	a5		 movsd
  00018	83 c0 0c	 add	 eax, 12			; 0000000cH
  0001b	a5		 movsd
  0001c	3b 45 0c	 cmp	 eax, DWORD PTR __Last$[ebp]
  0001f	75 ec		 jne	 SHORT $LL3@Move@3
  00021	5f		 pop	 edi
  00022	5e		 pop	 esi
$LN10@Move@3:

; 2515 : 	return (_Dest);

  00023	8b 45 10	 mov	 eax, DWORD PTR __Dest$[ebp]

; 2516 : 	}

  00026	5d		 pop	 ebp
  00027	c3		 ret	 0
??$_Move@PAUForceInfo@@PAU1@@std@@YAPAUForceInfo@@PAU1@00U_Nonscalar_ptr_iterator_tag@0@@Z ENDP ; std::_Move<ForceInfo *,ForceInfo *>
_TEXT	ENDS
PUBLIC	??$_Destroy@VioHashString@@@std@@YAXPAVioHashString@@@Z ; std::_Destroy<ioHashString>
; Function compile flags: /Ogsp
; File c:\program files (x86)\microsoft visual studio 10.0\vc\include\xmemory
;	COMDAT ??$_Destroy@VioHashString@@@std@@YAXPAVioHashString@@@Z
_TEXT	SEGMENT
__Ptr$ = 8						; size = 4
??$_Destroy@VioHashString@@@std@@YAXPAVioHashString@@@Z PROC ; std::_Destroy<ioHashString>, COMDAT

; 62   : 	{	// destroy object at _Ptr

  00000	55		 push	 ebp
  00001	8b ec		 mov	 ebp, esp

; 63   : 	_Ptr->~_Ty();

  00003	8b 4d 08	 mov	 ecx, DWORD PTR __Ptr$[ebp]

; 64   : 	}

  00006	5d		 pop	 ebp

; 63   : 	_Ptr->~_Ty();

  00007	ff 25 00 00 00
	00		 jmp	 DWORD PTR __imp_??1ioHashString@@QAE@XZ
??$_Destroy@VioHashString@@@std@@YAXPAVioHashString@@@Z ENDP ; std::_Destroy<ioHashString>
_TEXT	ENDS
PUBLIC	??$_Destroy@UWeaponInfo@@@std@@YAXPAUWeaponInfo@@@Z ; std::_Destroy<WeaponInfo>
; Function compile flags: /Ogsp
;	COMDAT ??$_Destroy@UWeaponInfo@@@std@@YAXPAUWeaponInfo@@@Z
_TEXT	SEGMENT
__Ptr$ = 8						; size = 4
??$_Destroy@UWeaponInfo@@@std@@YAXPAUWeaponInfo@@@Z PROC ; std::_Destroy<WeaponInfo>, COMDAT

; 62   : 	{	// destroy object at _Ptr

  00000	55		 push	 ebp
  00001	8b ec		 mov	 ebp, esp

; 63   : 	_Ptr->~_Ty();

  00003	8b 4d 08	 mov	 ecx, DWORD PTR __Ptr$[ebp]
  00006	83 c1 08	 add	 ecx, 8

; 64   : 	}

  00009	5d		 pop	 ebp

; 63   : 	_Ptr->~_Ty();

  0000a	ff 25 00 00 00
	00		 jmp	 DWORD PTR __imp_??1ioHashString@@QAE@XZ
??$_Destroy@UWeaponInfo@@@std@@YAXPAUWeaponInfo@@@Z ENDP ; std::_Destroy<WeaponInfo>
_TEXT	ENDS
PUBLIC	?construct@?$allocator@VioHashString@@@std@@QAEXPAVioHashString@@ABV3@@Z ; std::allocator<ioHashString>::construct
; Function compile flags: /Ogsp
;	COMDAT ?construct@?$allocator@VioHashString@@@std@@QAEXPAVioHashString@@ABV3@@Z
_TEXT	SEGMENT
__Ptr$ = 8						; size = 4
__Val$ = 12						; size = 4
?construct@?$allocator@VioHashString@@@std@@QAEXPAVioHashString@@ABV3@@Z PROC ; std::allocator<ioHashString>::construct, COMDAT
; _this$ = ecx

; 196  : 		{	// construct object at _Ptr with value _Val

  00000	55		 push	 ebp
  00001	8b ec		 mov	 ebp, esp

; 197  : 		_Construct(_Ptr, _Val);

  00003	ff 75 0c	 push	 DWORD PTR __Val$[ebp]
  00006	ff 75 08	 push	 DWORD PTR __Ptr$[ebp]
  00009	e8 00 00 00 00	 call	 ??$_Construct@VioHashString@@ABV1@@std@@YAXPAVioHashString@@ABV1@@Z ; std::_Construct<ioHashString,ioHashString const &>
  0000e	59		 pop	 ecx
  0000f	59		 pop	 ecx

; 198  : 		}

  00010	5d		 pop	 ebp
  00011	c2 08 00	 ret	 8
?construct@?$allocator@VioHashString@@@std@@QAEXPAVioHashString@@ABV3@@Z ENDP ; std::allocator<ioHashString>::construct
_TEXT	ENDS
PUBLIC	??$_Cons_val@V?$allocator@UForceInfo@@@std@@UForceInfo@@AAU3@@std@@YAXAAV?$allocator@UForceInfo@@@0@PAUForceInfo@@AAU2@@Z ; std::_Cons_val<std::allocator<ForceInfo>,ForceInfo,ForceInfo &>
; Function compile flags: /Ogsp
;	COMDAT ??$_Cons_val@V?$allocator@UForceInfo@@@std@@UForceInfo@@AAU3@@std@@YAXAAV?$allocator@UForceInfo@@@0@PAUForceInfo@@AAU2@@Z
_TEXT	SEGMENT
__Alval$ = 8						; size = 4
__Pdest$ = 12						; size = 4
__Src$ = 16						; size = 4
??$_Cons_val@V?$allocator@UForceInfo@@@std@@UForceInfo@@AAU3@@std@@YAXAAV?$allocator@UForceInfo@@@0@PAUForceInfo@@AAU2@@Z PROC ; std::_Cons_val<std::allocator<ForceInfo>,ForceInfo,ForceInfo &>, COMDAT

; 279  : 	{	// construct using allocator

  00000	55		 push	 ebp
  00001	8b ec		 mov	 ebp, esp
  00003	57		 push	 edi

; 280  : 	_Alval.construct(_Pdest, _STD forward<_Ty2>(_Src));

  00004	8b 7d 0c	 mov	 edi, DWORD PTR __Pdest$[ebp]
  00007	85 ff		 test	 edi, edi
  00009	74 08		 je	 SHORT $LN7@Cons_val
  0000b	56		 push	 esi
  0000c	8b 75 10	 mov	 esi, DWORD PTR __Src$[ebp]
  0000f	a5		 movsd
  00010	a5		 movsd
  00011	a5		 movsd
  00012	5e		 pop	 esi
$LN7@Cons_val:
  00013	5f		 pop	 edi

; 281  : 	}

  00014	5d		 pop	 ebp
  00015	c3		 ret	 0
??$_Cons_val@V?$allocator@UForceInfo@@@std@@UForceInfo@@AAU3@@std@@YAXAAV?$allocator@UForceInfo@@@0@PAUForceInfo@@AAU2@@Z ENDP ; std::_Cons_val<std::allocator<ForceInfo>,ForceInfo,ForceInfo &>
_TEXT	ENDS
PUBLIC	??$construct@AAUWeaponInfo@@@?$allocator@UWeaponInfo@@@std@@QAEXPAUWeaponInfo@@AAU2@@Z ; std::allocator<WeaponInfo>::construct<WeaponInfo &>
;	COMDAT xdata$x
; File c:\program files (x86)\microsoft visual studio 10.0\vc\include\utility
xdata$x	SEGMENT
__unwindtable$??$construct@AAUWeaponInfo@@@?$allocator@UWeaponInfo@@@std@@QAEXPAUWeaponInfo@@AAU2@@Z DD 0ffffffffH
	DD	FLAT:__unwindfunclet$??$construct@AAUWeaponInfo@@@?$allocator@UWeaponInfo@@@std@@QAEXPAUWeaponInfo@@AAU2@@Z$0
__ehfuncinfo$??$construct@AAUWeaponInfo@@@?$allocator@UWeaponInfo@@@std@@QAEXPAUWeaponInfo@@AAU2@@Z DD 019930522H
	DD	01H
	DD	FLAT:__unwindtable$??$construct@AAUWeaponInfo@@@?$allocator@UWeaponInfo@@@std@@QAEXPAUWeaponInfo@@AAU2@@Z
	DD	2 DUP(00H)
	DD	2 DUP(00H)
	DD	00H
	DD	01H
; Function compile flags: /Ogsp
; File c:\program files (x86)\microsoft visual studio 10.0\vc\include\xmemory
xdata$x	ENDS
;	COMDAT ??$construct@AAUWeaponInfo@@@?$allocator@UWeaponInfo@@@std@@QAEXPAUWeaponInfo@@AAU2@@Z
_TEXT	SEGMENT
$T598303 = -16						; size = 4
__$EHRec$ = -12						; size = 12
__Ptr$ = 8						; size = 4
__Val$ = 12						; size = 4
??$construct@AAUWeaponInfo@@@?$allocator@UWeaponInfo@@@std@@QAEXPAUWeaponInfo@@AAU2@@Z PROC ; std::allocator<WeaponInfo>::construct<WeaponInfo &>, COMDAT
; _this$ = ecx

; 206  : 		void construct(pointer _Ptr, _Other&& _Val)

  00000	6a 04		 push	 4
  00002	b8 00 00 00 00	 mov	 eax, __ehhandler$??$construct@AAUWeaponInfo@@@?$allocator@UWeaponInfo@@@std@@QAEXPAUWeaponInfo@@AAU2@@Z
  00007	e8 00 00 00 00	 call	 __EH_prolog3

; 207  : 		{	// construct object at _Ptr with value _Val
; 208  : 		::new ((void _FARQ *)_Ptr) _Ty(_STD forward<_Other>(_Val));

  0000c	8b 4d 08	 mov	 ecx, DWORD PTR __Ptr$[ebp]
  0000f	89 4d f0	 mov	 DWORD PTR $T598303[ebp], ecx
  00012	83 65 fc 00	 and	 DWORD PTR __$EHRec$[ebp+8], 0
  00016	85 c9		 test	 ecx, ecx
  00018	74 08		 je	 SHORT $LN3@construct@5
  0001a	ff 75 0c	 push	 DWORD PTR __Val$[ebp]
  0001d	e8 00 00 00 00	 call	 ??0WeaponInfo@@QAE@ABU0@@Z
$LN3@construct@5:

; 209  : 		}

  00022	e8 00 00 00 00	 call	 __EH_epilog3
  00027	c2 08 00	 ret	 8
_TEXT	ENDS
;	COMDAT text$x
text$x	SEGMENT
__unwindfunclet$??$construct@AAUWeaponInfo@@@?$allocator@UWeaponInfo@@@std@@QAEXPAUWeaponInfo@@AAU2@@Z$0:
  00000	ff 75 08	 push	 DWORD PTR __Ptr$[ebp]
  00003	ff 75 f0	 push	 DWORD PTR $T598303[ebp]
  00006	e8 00 00 00 00	 call	 ??3@YAXPAX0@Z		; operator delete
  0000b	59		 pop	 ecx
  0000c	59		 pop	 ecx
  0000d	c3		 ret	 0
__ehhandler$??$construct@AAUWeaponInfo@@@?$allocator@UWeaponInfo@@@std@@QAEXPAUWeaponInfo@@AAU2@@Z:
  0000e	8b 54 24 08	 mov	 edx, DWORD PTR [esp+8]
  00012	8d 42 0c	 lea	 eax, DWORD PTR [edx+12]
  00015	8b 4a ec	 mov	 ecx, DWORD PTR [edx-20]
  00018	33 c8		 xor	 ecx, eax
  0001a	e8 00 00 00 00	 call	 @__security_check_cookie@4
  0001f	b8 00 00 00 00	 mov	 eax, OFFSET __ehfuncinfo$??$construct@AAUWeaponInfo@@@?$allocator@UWeaponInfo@@@std@@QAEXPAUWeaponInfo@@AAU2@@Z
  00024	e9 00 00 00 00	 jmp	 ___CxxFrameHandler3
text$x	ENDS
??$construct@AAUWeaponInfo@@@?$allocator@UWeaponInfo@@@std@@QAEXPAUWeaponInfo@@AAU2@@Z ENDP ; std::allocator<WeaponInfo>::construct<WeaponInfo &>
PUBLIC	?IsPrisonerMode@ioBaseChar@@QBE_NXZ		; ioBaseChar::IsPrisonerMode
; Function compile flags: /Ogsp
; File d:\lost saga for developer\youtube\tutorial\source\src\lsclient\iobasechar.h
;	COMDAT ?IsPrisonerMode@ioBaseChar@@QBE_NXZ
_TEXT	SEGMENT
_value$598324 = -1					; size = 1
?IsPrisonerMode@ioBaseChar@@QBE_NXZ PROC		; ioBaseChar::IsPrisonerMode, COMDAT
; _this$ = ecx

; 2130 : 	inline bool IsPrisonerMode() const { return m_bPrisonerMode; }

  00000	55		 push	 ebp
  00001	8b ec		 mov	 ebp, esp
  00003	51		 push	 ecx
  00004	8d 45 ff	 lea	 eax, DWORD PTR _value$598324[ebp]
  00007	50		 push	 eax
  00008	81 c1 cc 14 00
	00		 add	 ecx, 5324		; 000014ccH
  0000e	e8 00 00 00 00	 call	 ?DecryptValueToPool@?$CEncrypt@_N@@QAEXPA_N@Z ; CEncrypt<bool>::DecryptValueToPool
  00013	8a 45 ff	 mov	 al, BYTE PTR _value$598324[ebp]
  00016	c9		 leave
  00017	c3		 ret	 0
?IsPrisonerMode@ioBaseChar@@QBE_NXZ ENDP		; ioBaseChar::IsPrisonerMode
_TEXT	ENDS
PUBLIC	?SetGravityAmt@ioBaseChar@@QAEXM@Z		; ioBaseChar::SetGravityAmt
; Function compile flags: /Ogsp
;	COMDAT ?SetGravityAmt@ioBaseChar@@QAEXM@Z
_TEXT	SEGMENT
_value$598331 = 8					; size = 4
_fAmt$ = 8						; size = 4
?SetGravityAmt@ioBaseChar@@QAEXM@Z PROC			; ioBaseChar::SetGravityAmt, COMDAT
; _this$ = ecx

; 2631 : 	inline void SetGravityAmt( float fAmt ) { m_fGravityAmt = fAmt; }

  00000	55		 push	 ebp
  00001	8b ec		 mov	 ebp, esp
  00003	f3 0f 10 45 08	 movss	 xmm0, DWORD PTR _fAmt$[ebp]
  00008	8d 45 08	 lea	 eax, DWORD PTR _value$598331[ebp]
  0000b	50		 push	 eax
  0000c	81 c1 e8 0b 00
	00		 add	 ecx, 3048		; 00000be8H
  00012	f3 0f 11 45 08	 movss	 DWORD PTR _value$598331[ebp], xmm0
  00017	e8 00 00 00 00	 call	 ?EncryptValueToPool@?$CEncrypt@M@@AAEXPBD@Z ; CEncrypt<float>::EncryptValueToPool
  0001c	5d		 pop	 ebp
  0001d	c2 04 00	 ret	 4
?SetGravityAmt@ioBaseChar@@QAEXM@Z ENDP			; ioBaseChar::SetGravityAmt
_TEXT	ENDS
PUBLIC	?SetForcePowerAmt@ioBaseChar@@QAEXM@Z		; ioBaseChar::SetForcePowerAmt
; Function compile flags: /Ogsp
;	COMDAT ?SetForcePowerAmt@ioBaseChar@@QAEXM@Z
_TEXT	SEGMENT
_value$598337 = 8					; size = 4
_fAmt$ = 8						; size = 4
?SetForcePowerAmt@ioBaseChar@@QAEXM@Z PROC		; ioBaseChar::SetForcePowerAmt, COMDAT
; _this$ = ecx

; 2641 : 	inline void SetForcePowerAmt( float fAmt ) { m_fForceAmt = fAmt; }

  00000	55		 push	 ebp
  00001	8b ec		 mov	 ebp, esp
  00003	f3 0f 10 45 08	 movss	 xmm0, DWORD PTR _fAmt$[ebp]
  00008	8d 45 08	 lea	 eax, DWORD PTR _value$598337[ebp]
  0000b	50		 push	 eax
  0000c	81 c1 88 0b 00
	00		 add	 ecx, 2952		; 00000b88H
  00012	f3 0f 11 45 08	 movss	 DWORD PTR _value$598337[ebp], xmm0
  00017	e8 00 00 00 00	 call	 ?EncryptValueToPool@?$CEncrypt@M@@AAEXPBD@Z ; CEncrypt<float>::EncryptValueToPool
  0001c	5d		 pop	 ebp
  0001d	c2 04 00	 ret	 4
?SetForcePowerAmt@ioBaseChar@@QAEXM@Z ENDP		; ioBaseChar::SetForcePowerAmt
_TEXT	ENDS
PUBLIC	__real@4076800000000000
PUBLIC	_qtRot$GSCopy$
PUBLIC	__$ArrayPad$
PUBLIC	?GetExtraJumpSpeedRate@ioParkilpyoJump@@UBEMABUD3DXVECTOR3@@ABUD3DXQUATERNION@@@Z ; ioParkilpyoJump::GetExtraJumpSpeedRate
EXTRN	__imp_?AngleGap@ioMath@@SAMMM@Z:PROC
EXTRN	__imp_?QuaterToYaw@ioMath@@SAMABUD3DXQUATERNION@@@Z:PROC
EXTRN	__imp_?CalcDirectionQuaternion@ioMath@@SAXAAUD3DXQUATERNION@@ABUD3DXVECTOR3@@@Z:PROC
EXTRN	_D3DXVec3Normalize@8:PROC
EXTRN	__ftol2_sse:PROC
;	COMDAT __real@4076800000000000
; File c:\program files (x86)\microsoft directx sdk (june 2010)\include\d3dx9math.inl
CONST	SEGMENT
__real@4076800000000000 DQ 04076800000000000r	; 360
; Function compile flags: /Ogsp
; File d:\lost saga for developer\youtube\tutorial\source\src\lsclient\ioparkilpyojump.cpp
CONST	ENDS
;	COMDAT ?GetExtraJumpSpeedRate@ioParkilpyoJump@@UBEMABUD3DXVECTOR3@@ABUD3DXQUATERNION@@@Z
_TEXT	SEGMENT
_qtTargetRot$ = -52					; size = 16
_fTargetYaw$ = -36					; size = 4
tv245 = -32						; size = 4
_qtRot$GSCopy$ = -32					; size = 4
_fCurYaw$ = -32						; size = 4
$T590513 = -28						; size = 12
_vCurDir$ = -28						; size = 12
_vXZDir$ = -16						; size = 12
__$ArrayPad$ = -4					; size = 4
_vDir$ = 8						; size = 4
_qtRot$ = 12						; size = 4
?GetExtraJumpSpeedRate@ioParkilpyoJump@@UBEMABUD3DXVECTOR3@@ABUD3DXQUATERNION@@@Z PROC ; ioParkilpyoJump::GetExtraJumpSpeedRate, COMDAT
; _this$ = ecx

; 345  : {

  00000	55		 push	 ebp
  00001	8b ec		 mov	 ebp, esp
  00003	83 ec 34	 sub	 esp, 52			; 00000034H
  00006	a1 00 00 00 00	 mov	 eax, DWORD PTR ___security_cookie
  0000b	33 c5		 xor	 eax, ebp
  0000d	89 45 fc	 mov	 DWORD PTR __$ArrayPad$[ebp], eax
  00010	8b 45 0c	 mov	 eax, DWORD PTR _qtRot$[ebp]
  00013	53		 push	 ebx
  00014	56		 push	 esi
  00015	8b 75 08	 mov	 esi, DWORD PTR _vDir$[ebp]
  00018	57		 push	 edi

; 346  : 	D3DXVECTOR3 vCurDir = vDir;

  00019	8d 7d e4	 lea	 edi, DWORD PTR _vCurDir$[ebp]
  0001c	a5		 movsd
  0001d	a5		 movsd
  0001e	a5		 movsd

; 347  : 
; 348  : 	D3DXVECTOR3 vXZDir( vCurDir.x, 0.0f, vCurDir.z );

  0001f	f3 0f 10 45 e4	 movss	 xmm0, DWORD PTR _vCurDir$[ebp]

; 398  : 		}
; 399  : 	}
; 400  : 
; 401  : 	return m_fJumpSpeedRate;

  00024	89 45 e0	 mov	 DWORD PTR _qtRot$GSCopy$[ebp], eax
  00027	8d 45 f0	 lea	 eax, DWORD PTR _vXZDir$[ebp]
  0002a	f3 0f 11 45 f0	 movss	 DWORD PTR _vXZDir$[ebp], xmm0
  0002f	0f 57 c0	 xorps	 xmm0, xmm0
  00032	50		 push	 eax
  00033	f3 0f 11 45 f4	 movss	 DWORD PTR _vXZDir$[ebp+4], xmm0
  00038	f3 0f 10 45 ec	 movss	 xmm0, DWORD PTR _vCurDir$[ebp+8]
  0003d	50		 push	 eax
  0003e	8b d9		 mov	 ebx, ecx
  00040	f3 0f 11 45 f8	 movss	 DWORD PTR _vXZDir$[ebp+8], xmm0
  00045	e8 00 00 00 00	 call	 _D3DXVec3Normalize@8
  0004a	f3 0f 10 05 00
	00 00 00	 movss	 xmm0, DWORD PTR __mask@@NegFloat@
  00052	f3 0f 10 4d f0	 movss	 xmm1, DWORD PTR _vXZDir$[ebp]
  00057	0f 57 c8	 xorps	 xmm1, xmm0
  0005a	f3 0f 11 4d e4	 movss	 DWORD PTR $T590513[ebp], xmm1
  0005f	f3 0f 10 4d f4	 movss	 xmm1, DWORD PTR _vXZDir$[ebp+4]
  00064	0f 57 c8	 xorps	 xmm1, xmm0
  00067	8d 45 e4	 lea	 eax, DWORD PTR $T590513[ebp]
  0006a	50		 push	 eax
  0006b	f3 0f 11 4d e8	 movss	 DWORD PTR $T590513[ebp+4], xmm1
  00070	f3 0f 10 4d f8	 movss	 xmm1, DWORD PTR _vXZDir$[ebp+8]
  00075	8d 45 cc	 lea	 eax, DWORD PTR _qtTargetRot$[ebp]
  00078	0f 57 c8	 xorps	 xmm1, xmm0
  0007b	50		 push	 eax
  0007c	f3 0f 11 4d ec	 movss	 DWORD PTR $T590513[ebp+8], xmm1
  00081	ff 15 00 00 00
	00		 call	 DWORD PTR __imp_?CalcDirectionQuaternion@ioMath@@SAXAAUD3DXQUATERNION@@ABUD3DXVECTOR3@@@Z
  00087	8d 45 cc	 lea	 eax, DWORD PTR _qtTargetRot$[ebp]
  0008a	50		 push	 eax
  0008b	ff 15 00 00 00
	00		 call	 DWORD PTR __imp_?QuaterToYaw@ioMath@@SAMABUD3DXQUATERNION@@@Z
  00091	59		 pop	 ecx
  00092	59		 pop	 ecx
  00093	d9 1c 24	 fstp	 DWORD PTR [esp]
  00096	e8 00 00 00 00	 call	 ??$RADtoDEG@M@@YAMM@Z	; RADtoDEG<float>
  0009b	d9 5d dc	 fstp	 DWORD PTR _fTargetYaw$[ebp]
  0009e	f3 0f 10 45 dc	 movss	 xmm0, DWORD PTR _fTargetYaw$[ebp]
  000a3	f3 0f 11 04 24	 movss	 DWORD PTR [esp], xmm0
  000a8	ff 15 00 00 00
	00		 call	 DWORD PTR __imp_?ArrangeHead@ioMath@@SAMM@Z
  000ae	d9 5d dc	 fstp	 DWORD PTR _fTargetYaw$[ebp]
  000b1	ff 75 e0	 push	 DWORD PTR _qtRot$GSCopy$[ebp]
  000b4	ff 15 00 00 00
	00		 call	 DWORD PTR __imp_?QuaterToYaw@ioMath@@SAMABUD3DXQUATERNION@@@Z
  000ba	59		 pop	 ecx
  000bb	d9 1c 24	 fstp	 DWORD PTR [esp]
  000be	e8 00 00 00 00	 call	 ??$RADtoDEG@M@@YAMM@Z	; RADtoDEG<float>
  000c3	d9 5d e0	 fstp	 DWORD PTR _fCurYaw$[ebp]
  000c6	f3 0f 10 45 e0	 movss	 xmm0, DWORD PTR _fCurYaw$[ebp]
  000cb	f3 0f 11 04 24	 movss	 DWORD PTR [esp], xmm0
  000d0	ff 15 00 00 00
	00		 call	 DWORD PTR __imp_?ArrangeHead@ioMath@@SAMM@Z
  000d6	d9 5d e0	 fstp	 DWORD PTR _fCurYaw$[ebp]
  000d9	f3 0f 10 45 dc	 movss	 xmm0, DWORD PTR _fTargetYaw$[ebp]
  000de	f3 0f 11 04 24	 movss	 DWORD PTR [esp], xmm0
  000e3	f3 0f 10 45 e0	 movss	 xmm0, DWORD PTR _fCurYaw$[ebp]
  000e8	51		 push	 ecx
  000e9	f3 0f 11 04 24	 movss	 DWORD PTR [esp], xmm0
  000ee	ff 15 00 00 00
	00		 call	 DWORD PTR __imp_?AngleGap@ioMath@@SAMMM@Z
  000f4	dc 05 00 00 00
	00		 fadd	 QWORD PTR __real@4076800000000000
  000fa	59		 pop	 ecx
  000fb	59		 pop	 ecx
  000fc	d9 5d e0	 fstp	 DWORD PTR tv245[ebp]
  000ff	d9 45 e0	 fld	 DWORD PTR tv245[ebp]
  00102	e8 00 00 00 00	 call	 __ftol2_sse
  00107	99		 cdq
  00108	b9 68 01 00 00	 mov	 ecx, 360		; 00000168H
  0010d	f7 f9		 idiv	 ecx
  0010f	6a 2d		 push	 45			; 0000002dH
  00111	59		 pop	 ecx
  00112	8b c2		 mov	 eax, edx
  00114	99		 cdq
  00115	f7 f9		 idiv	 ecx
  00117	83 bb f0 01 00
	00 06		 cmp	 DWORD PTR [ebx+496], 6
  0011e	75 2b		 jne	 SHORT $LN13@GetExtraJu

; 349  : 	D3DXVec3Normalize( &vXZDir, &vXZDir );
; 350  : 
; 351  : 	D3DXQUATERNION qtTargetRot;
; 352  : 	ioMath::CalcDirectionQuaternion( qtTargetRot, -vXZDir );
; 353  : 
; 354  : 	float fCurYaw, fTargetYaw;
; 355  : 	fTargetYaw = RADtoDEG( ioMath::QuaterToYaw( qtTargetRot ) );
; 356  : 	fTargetYaw = ioMath::ArrangeHead( fTargetYaw );
; 357  : 	fCurYaw = RADtoDEG( ioMath::QuaterToYaw( qtRot ) );
; 358  : 	fCurYaw = ioMath::ArrangeHead( fCurYaw );
; 359  : 
; 360  : 	float fAngleGap = ioMath::AngleGap( fCurYaw, fTargetYaw );
; 361  : 	fAngleGap += 360.0f;
; 362  : 
; 363  : 	int iTest = (int)fAngleGap % 360;
; 364  : 	iTest /= 45;
; 365  : 
; 366  : 	if( m_ChargeComboState == CCS_DOUBLE )
; 367  : 	{
; 368  : 		switch( iTest )

  00120	83 f8 07	 cmp	 eax, 7
  00123	77 57		 ja	 SHORT $LN4@GetExtraJu
  00125	0f b6 80 00 00
	00 00		 movzx	 eax, BYTE PTR $LN24@GetExtraJu[eax]
  0012c	ff 24 85 00 00
	00 00		 jmp	 DWORD PTR $LN26@GetExtraJu[eax*4]
$LN10@GetExtraJu:

; 369  : 		{
; 370  : 		case 0:
; 371  : 		case 7:
; 372  : 			return m_fDoubleJumpSpeedRateFR;

  00133	d9 83 90 01 00
	00		 fld	 DWORD PTR [ebx+400]
  00139	eb 44		 jmp	 SHORT $LN14@GetExtraJu
$LN9@GetExtraJu:

; 373  : 		case 1:
; 374  : 		case 2:
; 375  : 		case 5:
; 376  : 		case 6:
; 377  : 			return m_fDoubleJumpSpeedRateSI;

  0013b	d9 83 94 01 00
	00		 fld	 DWORD PTR [ebx+404]
  00141	eb 3c		 jmp	 SHORT $LN14@GetExtraJu
$LN8@GetExtraJu:

; 378  : 		case 3:
; 379  : 		case 4:
; 380  : 			return m_fDoubleJumpSpeedRateBG;

  00143	d9 83 98 01 00
	00		 fld	 DWORD PTR [ebx+408]
  00149	eb 34		 jmp	 SHORT $LN14@GetExtraJu
$LN13@GetExtraJu:

; 381  : 		}
; 382  : 	}
; 383  : 	else if( m_bUseExtendJump )

  0014b	80 7b 10 00	 cmp	 BYTE PTR [ebx+16], 0
  0014f	74 2b		 je	 SHORT $LN4@GetExtraJu

; 384  : 	{
; 385  : 		switch( iTest )

  00151	83 f8 07	 cmp	 eax, 7
  00154	77 26		 ja	 SHORT $LN4@GetExtraJu
  00156	0f b6 80 00 00
	00 00		 movzx	 eax, BYTE PTR $LN25@GetExtraJu[eax]
  0015d	ff 24 85 00 00
	00 00		 jmp	 DWORD PTR $LN27@GetExtraJu[eax*4]
$LN3@GetExtraJu:

; 386  : 		{
; 387  : 		case 0:
; 388  : 		case 7:
; 389  : 			return m_fJumpSpeedRateFR;

  00164	d9 83 5c 01 00
	00		 fld	 DWORD PTR [ebx+348]
  0016a	eb 13		 jmp	 SHORT $LN14@GetExtraJu
$LN2@GetExtraJu:

; 390  : 		case 1:
; 391  : 		case 2:
; 392  : 		case 5:
; 393  : 		case 6:
; 394  : 			return m_fJumpSpeedRateSI;

  0016c	d9 83 60 01 00
	00		 fld	 DWORD PTR [ebx+352]
  00172	eb 0b		 jmp	 SHORT $LN14@GetExtraJu
$LN1@GetExtraJu:

; 395  : 		case 3:
; 396  : 		case 4:
; 397  : 			return m_fJumpSpeedRateBG;

  00174	d9 83 64 01 00
	00		 fld	 DWORD PTR [ebx+356]
  0017a	eb 03		 jmp	 SHORT $LN14@GetExtraJu
$LN4@GetExtraJu:

; 398  : 		}
; 399  : 	}
; 400  : 
; 401  : 	return m_fJumpSpeedRate;

  0017c	d9 43 0c	 fld	 DWORD PTR [ebx+12]
$LN14@GetExtraJu:

; 402  : }

  0017f	8b 4d fc	 mov	 ecx, DWORD PTR __$ArrayPad$[ebp]
  00182	5f		 pop	 edi
  00183	5e		 pop	 esi
  00184	33 cd		 xor	 ecx, ebp
  00186	5b		 pop	 ebx
  00187	e8 00 00 00 00	 call	 @__security_check_cookie@4
  0018c	c9		 leave
  0018d	c2 08 00	 ret	 8
$LN26@GetExtraJu:
  00190	00 00 00 00	 DD	 $LN10@GetExtraJu
  00194	00 00 00 00	 DD	 $LN9@GetExtraJu
  00198	00 00 00 00	 DD	 $LN8@GetExtraJu
$LN24@GetExtraJu:
  0019c	00		 DB	 0
  0019d	01		 DB	 1
  0019e	01		 DB	 1
  0019f	02		 DB	 2
  001a0	02		 DB	 2
  001a1	01		 DB	 1
  001a2	01		 DB	 1
  001a3	00		 DB	 0
$LN27@GetExtraJu:
  001a4	00 00 00 00	 DD	 $LN3@GetExtraJu
  001a8	00 00 00 00	 DD	 $LN2@GetExtraJu
  001ac	00 00 00 00	 DD	 $LN1@GetExtraJu
$LN25@GetExtraJu:
  001b0	00		 DB	 0
  001b1	01		 DB	 1
  001b2	01		 DB	 1
  001b3	02		 DB	 2
  001b4	02		 DB	 2
  001b5	01		 DB	 1
  001b6	01		 DB	 1
  001b7	00		 DB	 0
?GetExtraJumpSpeedRate@ioParkilpyoJump@@UBEMABUD3DXVECTOR3@@ABUD3DXQUATERNION@@@Z ENDP ; ioParkilpyoJump::GetExtraJumpSpeedRate
_TEXT	ENDS
PUBLIC	__$ArrayPad$
PUBLIC	?SetComboJumpAttack@ioParkilpyoJump@@IAEXPAVioBaseChar@@@Z ; ioParkilpyoJump::SetComboJumpAttack
EXTRN	?FillAutoTargetInfo@ioBaseChar@@QAEXAAVSP2Packet@@@Z:PROC ; ioBaseChar::FillAutoTargetInfo
EXTRN	??6SP2Packet@@QAEAAV0@ABUD3DXVECTOR3@@@Z:PROC	; SP2Packet::operator<<
EXTRN	?SetAutoTargetTrackingEndTime@ioBaseChar@@QAEXK@Z:PROC ; ioBaseChar::SetAutoTargetTrackingEndTime
EXTRN	?IncreaseWeaponIndexBase@ioBaseChar@@QAEKXZ:PROC ; ioBaseChar::IncreaseWeaponIndexBase
EXTRN	?RefreshFireTimeList@ioBaseChar@@QAEXHABV?$vector@UWeaponInfo@@V?$allocator@UWeaponInfo@@@std@@@std@@W4FireTimeType@@MK_N@Z:PROC ; ioBaseChar::RefreshFireTimeList
EXTRN	?SetAutoTarget@ioBaseChar@@QAEXW4AutoTargetType@@@Z:PROC ; ioBaseChar::SetAutoTarget
EXTRN	?InitActionStopDelay@ioBaseChar@@QAEX_N@Z:PROC	; ioBaseChar::InitActionStopDelay
EXTRN	?IsActionStop@ioBaseChar@@QBE_NXZ:PROC		; ioBaseChar::IsActionStop
EXTRN	?SetInputDirection@ioBaseChar@@QAEXABUD3DXVECTOR3@@@Z:PROC ; ioBaseChar::SetInputDirection
EXTRN	__ftol2:PROC
;	COMDAT xdata$x
; File d:\lost saga for developer\youtube\tutorial\source\src\lsclient\iobasechar.h
xdata$x	SEGMENT
__ehfuncinfo$?SetComboJumpAttack@ioParkilpyoJump@@IAEXPAVioBaseChar@@@Z DD 019930522H
	DD	07H
	DD	FLAT:__unwindtable$?SetComboJumpAttack@ioParkilpyoJump@@IAEXPAVioBaseChar@@@Z
	DD	2 DUP(00H)
	DD	2 DUP(00H)
	DD	00H
	DD	01H
__unwindtable$?SetComboJumpAttack@ioParkilpyoJump@@IAEXPAVioBaseChar@@@Z DD 0ffffffffH
	DD	FLAT:__unwindfunclet$?SetComboJumpAttack@ioParkilpyoJump@@IAEXPAVioBaseChar@@@Z$6
	DD	0ffffffffH
	DD	FLAT:__unwindfunclet$?SetComboJumpAttack@ioParkilpyoJump@@IAEXPAVioBaseChar@@@Z$7
	DD	0ffffffffH
	DD	FLAT:__unwindfunclet$?SetComboJumpAttack@ioParkilpyoJump@@IAEXPAVioBaseChar@@@Z$0
	DD	0ffffffffH
	DD	FLAT:__unwindfunclet$?SetComboJumpAttack@ioParkilpyoJump@@IAEXPAVioBaseChar@@@Z$1
	DD	0ffffffffH
	DD	FLAT:__unwindfunclet$?SetComboJumpAttack@ioParkilpyoJump@@IAEXPAVioBaseChar@@@Z$3
	DD	04H
	DD	FLAT:__unwindfunclet$?SetComboJumpAttack@ioParkilpyoJump@@IAEXPAVioBaseChar@@@Z$4
	DD	05H
	DD	FLAT:__unwindfunclet$?SetComboJumpAttack@ioParkilpyoJump@@IAEXPAVioBaseChar@@@Z$5
; Function compile flags: /Ogsp
; File d:\lost saga for developer\youtube\tutorial\source\src\lsclient\ioparkilpyojump.cpp
xdata$x	ENDS
;	COMDAT ?SetComboJumpAttack@ioParkilpyoJump@@IAEXPAVioBaseChar@@@Z
_TEXT	SEGMENT
$T598373 = -32912					; size = 16
$T598372 = -32896					; size = 16
$T598374 = -32880					; size = 16
$T598658 = -32864					; size = 16
$T598528 = -32864					; size = 16
_qtRotate$590756 = -32864				; size = 16
tv1941 = -32848						; size = 4
_fYawD$590750 = -32848					; size = 4
_pGrp$ = -32844						; size = 4
tv2262 = -32840						; size = 4
$T598657 = -32840					; size = 4
$T598370 = -32840					; size = 4
_dwStartTime$ = -32840					; size = 4
_iAniID$ = -32836					; size = 4
_fTimeRate$ = -32832					; size = 4
tv2296 = -32828						; size = 4
tv2286 = -32828						; size = 4
$T598527 = -32828					; size = 4
$T598371 = -32828					; size = 4
_dwTrackingTime$ = -32828				; size = 4
_dwCurTime$ = -32828					; size = 4
_kPacket$590776 = -32824				; size = 32792
_szEncEventType$598558 = -32				; size = 12
_szEncEventType$598428 = -32				; size = 11
__$ArrayPad$ = -16					; size = 4
__$EHRec$ = -12						; size = 12
_pOwner$ = 8						; size = 4
?SetComboJumpAttack@ioParkilpyoJump@@IAEXPAVioBaseChar@@@Z PROC ; ioParkilpyoJump::SetComboJumpAttack, COMDAT
; _this$ = ecx

; 474  : {

  00000	55		 push	 ebp
  00001	8b ec		 mov	 ebp, esp
  00003	6a ff		 push	 -1
  00005	68 00 00 00 00	 push	 __ehhandler$?SetComboJumpAttack@ioParkilpyoJump@@IAEXPAVioBaseChar@@@Z
  0000a	64 a1 00 00 00
	00		 mov	 eax, DWORD PTR fs:0
  00010	50		 push	 eax
  00011	b8 84 80 00 00	 mov	 eax, 32900		; 00008084H
  00016	e8 00 00 00 00	 call	 __chkstk
  0001b	a1 00 00 00 00	 mov	 eax, DWORD PTR ___security_cookie
  00020	33 c5		 xor	 eax, ebp
  00022	89 45 f0	 mov	 DWORD PTR __$ArrayPad$[ebp], eax
  00025	53		 push	 ebx
  00026	56		 push	 esi
  00027	57		 push	 edi
  00028	50		 push	 eax
  00029	8d 45 f4	 lea	 eax, DWORD PTR __$EHRec$[ebp]
  0002c	64 a3 00 00 00
	00		 mov	 DWORD PTR fs:0, eax
  00032	8b 5d 08	 mov	 ebx, DWORD PTR _pOwner$[ebp]
  00035	8b f1		 mov	 esi, ecx

; 475  : 	if( !pOwner ) return;

  00037	85 db		 test	 ebx, ebx
  00039	0f 84 05 06 00
	00		 je	 $LN6@SetComboJu

; 476  : 
; 477  : 	int iMaxCnt = m_ComboAttackList.size();

  0003f	8b 86 50 01 00
	00		 mov	 eax, DWORD PTR [esi+336]
  00045	2b 86 4c 01 00
	00		 sub	 eax, DWORD PTR [esi+332]
  0004b	6a 50		 push	 80			; 00000050H
  0004d	99		 cdq
  0004e	59		 pop	 ecx
  0004f	f7 f9		 idiv	 ecx

; 478  : 	if( !COMPARE( m_nCurComboCnt, 0, iMaxCnt ) )

  00051	8b 8e fc 01 00
	00		 mov	 ecx, DWORD PTR [esi+508]
  00057	85 c9		 test	 ecx, ecx
  00059	0f 88 e5 05 00
	00		 js	 $LN6@SetComboJu
  0005f	3b c8		 cmp	 ecx, eax
  00061	0f 8d dd 05 00
	00		 jge	 $LN6@SetComboJu

; 479  : 		return;
; 480  : 
; 481  : 	pOwner->ClearSylphid();

  00067	8b cb		 mov	 ecx, ebx
  00069	e8 00 00 00 00	 call	 ?ClearSylphid@ioBaseChar@@QAEXXZ ; ioBaseChar::ClearSylphid

; 482  : 
; 483  : 	DWORD dwCurTime = FRAMEGETTIME();

  0006e	ff 15 00 00 00
	00		 call	 DWORD PTR __imp_?GetSingleton@ioFrameTimer@@SAAAV1@XZ
  00074	8b c8		 mov	 ecx, eax
  00076	ff 15 00 00 00
	00		 call	 DWORD PTR __imp_?GetLoopSec@ioFrameTimer@@QBEKXZ
  0007c	89 85 c4 7f ff
	ff		 mov	 DWORD PTR _dwCurTime$[ebp], eax

; 484  : 	m_ChargeComboState = CCS_NORMAL;

  00082	c7 86 f0 01 00
	00 01 00 00 00	 mov	 DWORD PTR [esi+496], 1

; 485  : 
; 486  : 	if( pOwner->IsNeedProcess() && pOwner->IsCanRotateJumpAttack() )

  0008c	8b 03		 mov	 eax, DWORD PTR [ebx]
  0008e	8b cb		 mov	 ecx, ebx
  00090	ff 90 00 01 00
	00		 call	 DWORD PTR [eax+256]
  00096	84 c0		 test	 al, al
  00098	0f 84 a7 00 00
	00		 je	 $LN4@SetComboJu
  0009e	8b cb		 mov	 ecx, ebx
  000a0	e8 00 00 00 00	 call	 ?IsCanRotateJumpAttack@ioBaseChar@@QAE_NXZ ; ioBaseChar::IsCanRotateJumpAttack
  000a5	84 c0		 test	 al, al
  000a7	0f 84 98 00 00
	00		 je	 $LN4@SetComboJu

; 487  : 	{
; 488  : 		ioUserKeyInput::DirKeyInput eDir = pOwner->CheckCurDirKey();

  000ad	8b cb		 mov	 ecx, ebx
  000af	e8 00 00 00 00	 call	 ?CheckCurDirKey@ioBaseChar@@QAE?AW4DirKeyInput@ioUserKeyInput@@XZ ; ioBaseChar::CheckCurDirKey

; 489  : 		if( eDir != ioUserKeyInput::DKI_NONE )

  000b4	85 c0		 test	 eax, eax
  000b6	0f 84 89 00 00
	00		 je	 $LN4@SetComboJu

; 490  : 		{
; 491  : 			float fYawD = 180.0f + 45.0f * ( eDir - ioUserKeyInput::DKI_UP );
; 492  : 			fYawD = ioMath::ArrangeHead( fYawD );

  000bc	0f 57 c0	 xorps	 xmm0, xmm0
  000bf	48		 dec	 eax
  000c0	f3 0f 2a c0	 cvtsi2ss xmm0, eax
  000c4	0f 5a c0	 cvtps2pd xmm0, xmm0
  000c7	f2 0f 59 05 00
	00 00 00	 mulsd	 xmm0, QWORD PTR __real@4046800000000000
  000cf	f2 0f 58 05 00
	00 00 00	 addsd	 xmm0, QWORD PTR __real@4066800000000000
  000d7	51		 push	 ecx
  000d8	66 0f 5a c0	 cvtpd2ps xmm0, xmm0
  000dc	f3 0f 11 04 24	 movss	 DWORD PTR [esp], xmm0
  000e1	ff 15 00 00 00
	00		 call	 DWORD PTR __imp_?ArrangeHead@ioMath@@SAMM@Z
  000e7	d9 9d b0 7f ff
	ff		 fstp	 DWORD PTR _fYawD$590750[ebp]

; 493  : 
; 494  : 			float fYawR = DEGtoRAD( fYawD );

  000ed	f3 0f 10 85 b0
	7f ff ff	 movss	 xmm0, DWORD PTR _fYawD$590750[ebp]
  000f5	0f 5a c0	 cvtps2pd xmm0, xmm0
  000f8	f2 0f 59 05 00
	00 00 00	 mulsd	 xmm0, QWORD PTR __real@3f91df46a2526c7a
  00100	66 0f 5a c8	 cvtpd2ps xmm1, xmm0

; 495  : 			D3DXQUATERNION qtRotate;
; 496  : 			D3DXQuaternionRotationYawPitchRoll( &qtRotate, fYawR, 0.0f, 0.0f );

  00104	0f 57 c0	 xorps	 xmm0, xmm0
  00107	f3 0f 11 04 24	 movss	 DWORD PTR [esp], xmm0
  0010c	51		 push	 ecx
  0010d	51		 push	 ecx
  0010e	f3 0f 11 44 24
	04		 movss	 DWORD PTR [esp+4], xmm0
  00114	8d 85 a0 7f ff
	ff		 lea	 eax, DWORD PTR _qtRotate$590756[ebp]
  0011a	f3 0f 11 0c 24	 movss	 DWORD PTR [esp], xmm1
  0011f	50		 push	 eax
  00120	e8 00 00 00 00	 call	 _D3DXQuaternionRotationYawPitchRoll@16

; 497  : 
; 498  : 			pOwner->SetTargetRotToRotate( qtRotate, false, false );

  00125	6a 00		 push	 0
  00127	6a 00		 push	 0
  00129	8d 85 a0 7f ff
	ff		 lea	 eax, DWORD PTR _qtRotate$590756[ebp]
  0012f	50		 push	 eax
  00130	8b cb		 mov	 ecx, ebx
  00132	e8 00 00 00 00	 call	 ?SetTargetRotToRotate@ioBaseChar@@QAEXABUD3DXQUATERNION@@_N1@Z ; ioBaseChar::SetTargetRotToRotate

; 499  : 			pOwner->SetInputDirection( pOwner->GetMoveDir() );

  00137	8d 83 b4 06 00
	00		 lea	 eax, DWORD PTR [ebx+1716]
  0013d	50		 push	 eax
  0013e	8b cb		 mov	 ecx, ebx
  00140	e8 00 00 00 00	 call	 ?SetInputDirection@ioBaseChar@@QAEXABUD3DXVECTOR3@@@Z ; ioBaseChar::SetInputDirection
$LN4@SetComboJu:

; 500  : 		}
; 501  : 	}
; 502  : 
; 503  : 	ioEntityGroup *pGrp = pOwner->GetGroup();

  00145	8b 7b 04	 mov	 edi, DWORD PTR [ebx+4]

; 504  : 	pGrp->ClearAllActionAni( 100.0f, true );

  00148	f3 0f 10 05 00
	00 00 00	 movss	 xmm0, DWORD PTR __real@42c80000
  00150	6a 01		 push	 1
  00152	51		 push	 ecx
  00153	8b cf		 mov	 ecx, edi
  00155	89 bd b4 7f ff
	ff		 mov	 DWORD PTR _pGrp$[ebp], edi
  0015b	f3 0f 11 04 24	 movss	 DWORD PTR [esp], xmm0
  00160	ff 15 00 00 00
	00		 call	 DWORD PTR __imp_?ClearAllActionAni@ioEntityGroup@@QAEXM_N@Z

; 505  : 	pGrp->ClearAllLoopAni( 100.0f, true );

  00166	f3 0f 10 05 00
	00 00 00	 movss	 xmm0, DWORD PTR __real@42c80000
  0016e	6a 01		 push	 1
  00170	51		 push	 ecx
  00171	8b cf		 mov	 ecx, edi
  00173	f3 0f 11 04 24	 movss	 DWORD PTR [esp], xmm0
  00178	ff 15 00 00 00
	00		 call	 DWORD PTR __imp_?ClearAllLoopAni@ioEntityGroup@@QAEXM_N@Z

; 506  : 
; 507  : 	if( pOwner && !pOwner->IsActionStop() )

  0017e	8b cb		 mov	 ecx, ebx
  00180	e8 00 00 00 00	 call	 ?IsActionStop@ioBaseChar@@QBE_NXZ ; ioBaseChar::IsActionStop

; 508  : 		pOwner->InitActionStopDelay( true );

  00185	8b cb		 mov	 ecx, ebx
  00187	84 c0		 test	 al, al
  00189	75 04		 jne	 SHORT $LN3@SetComboJu
  0018b	6a 01		 push	 1

; 509  : 	else

  0018d	eb 02		 jmp	 SHORT $LN273@SetComboJu
$LN3@SetComboJu:

; 510  : 		pOwner->InitActionStopDelay( false );

  0018f	6a 00		 push	 0
$LN273@SetComboJu:
  00191	e8 00 00 00 00	 call	 ?InitActionStopDelay@ioBaseChar@@QAEX_N@Z ; ioBaseChar::InitActionStopDelay

; 511  : 
; 512  : 	int iAniID = pGrp->GetAnimationIdx( m_ComboAttackList[m_nCurComboCnt].m_AttackAnimation );

  00196	8b 86 fc 01 00
	00		 mov	 eax, DWORD PTR [esi+508]
  0019c	6b c0 50	 imul	 eax, 80			; 00000050H
  0019f	03 86 4c 01 00
	00		 add	 eax, DWORD PTR [esi+332]
  001a5	8b cf		 mov	 ecx, edi
  001a7	50		 push	 eax
  001a8	ff 15 00 00 00
	00		 call	 DWORD PTR __imp_?GetAnimationIdx@ioEntityGroup@@QAEHABVioHashString@@@Z

; 513  : 	float fTimeRate = m_ComboAttackList[m_nCurComboCnt].m_fAttackAniRate;

  001ae	8b 8e 4c 01 00
	00		 mov	 ecx, DWORD PTR [esi+332]
  001b4	89 85 bc 7f ff
	ff		 mov	 DWORD PTR _iAniID$[ebp], eax
  001ba	8b 86 fc 01 00
	00		 mov	 eax, DWORD PTR [esi+508]
  001c0	6b c0 50	 imul	 eax, 80			; 00000050H
  001c3	f3 0f 10 44 08
	10		 movss	 xmm0, DWORD PTR [eax+ecx+16]

; 514  : 	DWORD dwPreDelay = m_ComboAttackList[m_nCurComboCnt].m_dwPreDelay;

  001c9	8b 7c 08 48	 mov	 edi, DWORD PTR [eax+ecx+72]

; 515  : 
; 516  : 	DWORD dwStartTime = dwCurTime + dwPreDelay;

  001cd	8b 85 c4 7f ff
	ff		 mov	 eax, DWORD PTR _dwCurTime$[ebp]
  001d3	03 c7		 add	 eax, edi

; 517  : 	m_dwEnableComboTime_E = dwStartTime + pGrp->GetAnimationFullTime( iAniID ) * fTimeRate;

  001d5	89 85 c4 7f ff
	ff		 mov	 DWORD PTR tv2296[ebp], eax
  001db	f3 0f 11 85 c0
	7f ff ff	 movss	 DWORD PTR _fTimeRate$[ebp], xmm0
  001e3	db 85 c4 7f ff
	ff		 fild	 DWORD PTR tv2296[ebp]
  001e9	89 85 b8 7f ff
	ff		 mov	 DWORD PTR _dwStartTime$[ebp], eax
  001ef	79 06		 jns	 SHORT $LN268@SetComboJu
  001f1	d8 05 00 00 00
	00		 fadd	 DWORD PTR __real@4f800000
$LN268@SetComboJu:
  001f7	ff b5 bc 7f ff
	ff		 push	 DWORD PTR _iAniID$[ebp]
  001fd	d9 9d b0 7f ff
	ff		 fstp	 DWORD PTR tv1941[ebp]
  00203	8b 8d b4 7f ff
	ff		 mov	 ecx, DWORD PTR _pGrp$[ebp]
  00209	ff 15 00 00 00
	00		 call	 DWORD PTR __imp_?GetAnimationFullTime@ioEntityGroup@@QAEMH@Z
  0020f	d8 8d c0 7f ff
	ff		 fmul	 DWORD PTR _fTimeRate$[ebp]
  00215	d8 85 b0 7f ff
	ff		 fadd	 DWORD PTR tv1941[ebp]
  0021b	e8 00 00 00 00	 call	 __ftol2

; 518  : 
; 519  : 	pOwner->SetAutoTarget( ATT_JUMP );

  00220	6a 03		 push	 3
  00222	8b cb		 mov	 ecx, ebx
  00224	89 86 04 02 00
	00		 mov	 DWORD PTR [esi+516], eax
  0022a	e8 00 00 00 00	 call	 ?SetAutoTarget@ioBaseChar@@QAEXW4AutoTargetType@@@Z ; ioBaseChar::SetAutoTarget

; 520  : 
; 521  : 	pGrp->SetActionAni( iAniID, 100.0f, 100.0f, 1.0f, 1.0f/fTimeRate, 0.0f, dwPreDelay, true );		

  0022f	8b c7		 mov	 eax, edi
  00231	6a 01		 push	 1
  00233	89 85 c4 7f ff
	ff		 mov	 DWORD PTR tv2286[ebp], eax
  00239	db 85 c4 7f ff
	ff		 fild	 DWORD PTR tv2286[ebp]
  0023f	6a 01		 push	 1
  00241	85 c0		 test	 eax, eax
  00243	79 06		 jns	 SHORT $LN269@SetComboJu
  00245	d8 05 00 00 00
	00		 fadd	 DWORD PTR __real@4f800000
$LN269@SetComboJu:
  0024b	0f 57 c0	 xorps	 xmm0, xmm0
  0024e	f2 0f 10 0d 00
	00 00 00	 movsd	 xmm1, QWORD PTR __real@3ff0000000000000
  00256	8b 8d b4 7f ff
	ff		 mov	 ecx, DWORD PTR _pGrp$[ebp]
  0025c	83 ec 18	 sub	 esp, 24			; 00000018H
  0025f	d9 5c 24 14	 fstp	 DWORD PTR [esp+20]
  00263	f3 0f 11 44 24
	10		 movss	 DWORD PTR [esp+16], xmm0
  00269	f3 0f 10 85 c0
	7f ff ff	 movss	 xmm0, DWORD PTR _fTimeRate$[ebp]
  00271	0f 5a c0	 cvtps2pd xmm0, xmm0
  00274	f2 0f 5e c8	 divsd	 xmm1, xmm0
  00278	66 0f 5a c1	 cvtpd2ps xmm0, xmm1
  0027c	f3 0f 11 44 24
	0c		 movss	 DWORD PTR [esp+12], xmm0
  00282	f3 0f 10 05 00
	00 00 00	 movss	 xmm0, DWORD PTR __real@3f800000
  0028a	f3 0f 11 44 24
	08		 movss	 DWORD PTR [esp+8], xmm0
  00290	f3 0f 10 05 00
	00 00 00	 movss	 xmm0, DWORD PTR __real@42c80000
  00298	f3 0f 11 44 24
	04		 movss	 DWORD PTR [esp+4], xmm0
  0029e	f3 0f 11 04 24	 movss	 DWORD PTR [esp], xmm0
  002a3	ff b5 bc 7f ff
	ff		 push	 DWORD PTR _iAniID$[ebp]
  002a9	ff 15 00 00 00
	00		 call	 DWORD PTR __imp_?SetActionAni@ioEntityGroup@@QAE_NHMMMMMM_N0@Z

; 522  : 	pOwner->RefreshFireTimeList( iAniID, m_ComboAttackList[m_nCurComboCnt].m_vWeaponInfoList,
; 523  : 								 FTT_JUMP_ATTACK,
; 524  : 								 fTimeRate,
; 525  : 								 dwPreDelay );

  002af	8b 86 fc 01 00
	00		 mov	 eax, DWORD PTR [esi+508]
  002b5	f3 0f 10 85 c0
	7f ff ff	 movss	 xmm0, DWORD PTR _fTimeRate$[ebp]
  002bd	6b c0 50	 imul	 eax, 80			; 00000050H
  002c0	6a 00		 push	 0
  002c2	57		 push	 edi
  002c3	51		 push	 ecx
  002c4	8b 8e 4c 01 00
	00		 mov	 ecx, DWORD PTR [esi+332]
  002ca	f3 0f 11 04 24	 movss	 DWORD PTR [esp], xmm0
  002cf	6a 03		 push	 3
  002d1	8d 44 08 28	 lea	 eax, DWORD PTR [eax+ecx+40]
  002d5	50		 push	 eax
  002d6	ff b5 bc 7f ff
	ff		 push	 DWORD PTR _iAniID$[ebp]
  002dc	8b cb		 mov	 ecx, ebx
  002de	e8 00 00 00 00	 call	 ?RefreshFireTimeList@ioBaseChar@@QAEXHABV?$vector@UWeaponInfo@@V?$allocator@UWeaponInfo@@@std@@@std@@W4FireTimeType@@MK_N@Z ; ioBaseChar::RefreshFireTimeList

; 526  : 
; 527  : 	pOwner->IncreaseWeaponIndexBase();

  002e3	8b cb		 mov	 ecx, ebx
  002e5	e8 00 00 00 00	 call	 ?IncreaseWeaponIndexBase@ioBaseChar@@QAEKXZ ; ioBaseChar::IncreaseWeaponIndexBase
  002ea	6a 02		 push	 2

; 528  : 
; 529  : 	DWORD dwTrackingTime = dwStartTime;
; 530  : 	dwTrackingTime += pGrp->GetAnimationEventTime_e( iAniID, "tracking_e" ) * fTimeRate;

  002ec	c7 45 e0 99 9e
	8a 89		 mov	 DWORD PTR _szEncEventType$598428[ebp], -1987404135 ; 898a9e99H
  002f3	c7 45 e4 86 85
	85 8d		 mov	 DWORD PTR _szEncEventType$598428[ebp+4], -1920629370 ; 8d858586H
  002fa	66 c7 45 e8 b2
	89		 mov	 WORD PTR _szEncEventType$598428[ebp+8], 35250 ; 000089b2H
  00300	8d 45 e0	 lea	 eax, DWORD PTR _szEncEventType$598428[ebp]
  00303	c6 45 ea 00	 mov	 BYTE PTR _szEncEventType$598428[ebp+10], 0
  00307	59		 pop	 ecx
$LL139@SetComboJu:
  00308	81 30 ed ec eb
	ea		 xor	 DWORD PTR [eax], -353637139 ; eaebecedH
  0030e	83 c0 04	 add	 eax, 4
  00311	49		 dec	 ecx
  00312	75 f4		 jne	 SHORT $LL139@SetComboJu
  00314	6a 08		 push	 8
  00316	5f		 pop	 edi
$LL136@SetComboJu:
  00317	8b c7		 mov	 eax, edi
  00319	25 03 00 00 80	 and	 eax, -2147483645	; 80000003H
  0031e	79 05		 jns	 SHORT $LN270@SetComboJu
  00320	48		 dec	 eax
  00321	83 c8 fc	 or	 eax, -4			; fffffffcH
  00324	40		 inc	 eax
$LN270@SetComboJu:
  00325	b1 ed		 mov	 cl, -19			; ffffffedH
  00327	2a c8		 sub	 cl, al
  00329	30 4c 3d e0	 xor	 BYTE PTR _szEncEventType$598428[ebp+edi], cl
  0032d	47		 inc	 edi
  0032e	83 ff 0a	 cmp	 edi, 10			; 0000000aH
  00331	7c e4		 jl	 SHORT $LL136@SetComboJu
  00333	8b 3d 00 00 00
	00		 mov	 edi, DWORD PTR __imp_??0ioHashString@@QAE@PBD@Z
  00339	8d 45 e0	 lea	 eax, DWORD PTR _szEncEventType$598428[ebp]
  0033c	50		 push	 eax
  0033d	8d 8d a0 7f ff
	ff		 lea	 ecx, DWORD PTR $T598528[ebp]
  00343	ff d7		 call	 edi
  00345	8b 8d b4 7f ff
	ff		 mov	 ecx, DWORD PTR _pGrp$[ebp]
  0034b	83 65 fc 00	 and	 DWORD PTR __$EHRec$[ebp+8], 0
  0034f	8d 85 a0 7f ff
	ff		 lea	 eax, DWORD PTR $T598528[ebp]
  00355	50		 push	 eax
  00356	ff b5 bc 7f ff
	ff		 push	 DWORD PTR _iAniID$[ebp]
  0035c	ff 15 00 00 00
	00		 call	 DWORD PTR __imp_?GetAnimationEventTime@ioEntityGroup@@QAEMHABVioHashString@@@Z
  00362	d9 9d c4 7f ff
	ff		 fstp	 DWORD PTR $T598527[ebp]
  00368	83 4d fc ff	 or	 DWORD PTR __$EHRec$[ebp+8], -1
  0036c	8d 8d a0 7f ff
	ff		 lea	 ecx, DWORD PTR $T598528[ebp]
  00372	ff 15 00 00 00
	00		 call	 DWORD PTR __imp_??1ioHashString@@QAE@XZ
  00378	d9 85 c4 7f ff
	ff		 fld	 DWORD PTR $T598527[ebp]
  0037e	8b 85 b8 7f ff
	ff		 mov	 eax, DWORD PTR _dwStartTime$[ebp]
  00384	d8 8d c0 7f ff
	ff		 fmul	 DWORD PTR _fTimeRate$[ebp]
  0038a	db 85 b8 7f ff
	ff		 fild	 DWORD PTR _dwStartTime$[ebp]
  00390	85 c0		 test	 eax, eax
  00392	79 06		 jns	 SHORT $LN271@SetComboJu
  00394	dc 05 00 00 00
	00		 fadd	 QWORD PTR __real@41f0000000000000
$LN271@SetComboJu:
  0039a	de c1		 faddp	 ST(1), ST(0)
  0039c	e8 00 00 00 00	 call	 __ftol2
  003a1	6a 02		 push	 2
  003a3	89 85 c4 7f ff
	ff		 mov	 DWORD PTR _dwTrackingTime$[ebp], eax

; 531  : 
; 532  : 	m_dwEnableComboTime_S = dwStartTime + pGrp->GetAnimationEventTime_e( iAniID, "key_reserve" ) * fTimeRate;

  003a9	c7 45 e0 86 89
	92 b5		 mov	 DWORD PTR _szEncEventType$598558[ebp], -1248687738 ; b5928986H
  003b0	c7 45 e4 9f 89
	98 8f		 mov	 DWORD PTR _szEncEventType$598558[ebp+4], -1885828705 ; 8f98899fH
  003b7	8d 45 e0	 lea	 eax, DWORD PTR _szEncEventType$598558[ebp]
  003ba	c7 45 e8 9f 9a
	8e 00		 mov	 DWORD PTR _szEncEventType$598558[ebp+8], 9345695 ; 008e9a9fH
  003c1	59		 pop	 ecx
$LL246@SetComboJu:
  003c2	81 30 ed ec eb
	ea		 xor	 DWORD PTR [eax], -353637139 ; eaebecedH
  003c8	83 c0 04	 add	 eax, 4
  003cb	49		 dec	 ecx
  003cc	75 f4		 jne	 SHORT $LL246@SetComboJu
  003ce	6a 08		 push	 8
  003d0	58		 pop	 eax
$LL243@SetComboJu:
  003d1	8b c8		 mov	 ecx, eax
  003d3	81 e1 03 00 00
	80		 and	 ecx, -2147483645	; 80000003H
  003d9	79 05		 jns	 SHORT $LN272@SetComboJu
  003db	49		 dec	 ecx
  003dc	83 c9 fc	 or	 ecx, -4			; fffffffcH
  003df	41		 inc	 ecx
$LN272@SetComboJu:
  003e0	b2 ed		 mov	 dl, -19			; ffffffedH
  003e2	2a d1		 sub	 dl, cl
  003e4	30 54 05 e0	 xor	 BYTE PTR _szEncEventType$598558[ebp+eax], dl
  003e8	40		 inc	 eax
  003e9	83 f8 0b	 cmp	 eax, 11			; 0000000bH
  003ec	7c e3		 jl	 SHORT $LL243@SetComboJu
  003ee	8d 45 e0	 lea	 eax, DWORD PTR _szEncEventType$598558[ebp]
  003f1	50		 push	 eax
  003f2	8d 8d a0 7f ff
	ff		 lea	 ecx, DWORD PTR $T598658[ebp]
  003f8	ff d7		 call	 edi
  003fa	8b 8d b4 7f ff
	ff		 mov	 ecx, DWORD PTR _pGrp$[ebp]
  00400	8d 85 a0 7f ff
	ff		 lea	 eax, DWORD PTR $T598658[ebp]
  00406	50		 push	 eax
  00407	ff b5 bc 7f ff
	ff		 push	 DWORD PTR _iAniID$[ebp]
  0040d	c7 45 fc 01 00
	00 00		 mov	 DWORD PTR __$EHRec$[ebp+8], 1
  00414	ff 15 00 00 00
	00		 call	 DWORD PTR __imp_?GetAnimationEventTime@ioEntityGroup@@QAEMHABVioHashString@@@Z
  0041a	d9 9d b8 7f ff
	ff		 fstp	 DWORD PTR $T598657[ebp]
  00420	83 4d fc ff	 or	 DWORD PTR __$EHRec$[ebp+8], -1
  00424	8d 8d a0 7f ff
	ff		 lea	 ecx, DWORD PTR $T598658[ebp]
  0042a	ff 15 00 00 00
	00		 call	 DWORD PTR __imp_??1ioHashString@@QAE@XZ
  00430	d9 85 b8 7f ff
	ff		 fld	 DWORD PTR $T598657[ebp]
  00436	d8 8d c0 7f ff
	ff		 fmul	 DWORD PTR _fTimeRate$[ebp]
  0043c	d8 85 b0 7f ff
	ff		 fadd	 DWORD PTR tv1941[ebp]
  00442	e8 00 00 00 00	 call	 __ftol2

; 533  : 
; 534  : 	pOwner->SetAutoTargetTrackingEndTime( dwTrackingTime );

  00447	ff b5 c4 7f ff
	ff		 push	 DWORD PTR _dwTrackingTime$[ebp]
  0044d	8b cb		 mov	 ecx, ebx
  0044f	89 86 00 02 00
	00		 mov	 DWORD PTR [esi+512], eax
  00455	e8 00 00 00 00	 call	 ?SetAutoTargetTrackingEndTime@ioBaseChar@@QAEXK@Z ; ioBaseChar::SetAutoTargetTrackingEndTime

; 535  : 
; 536  : 	// For AirJumpPower
; 537  : 	SetAirJump( pOwner, iAniID, fTimeRate );

  0045a	f3 0f 10 85 c0
	7f ff ff	 movss	 xmm0, DWORD PTR _fTimeRate$[ebp]
  00462	8b 06		 mov	 eax, DWORD PTR [esi]
  00464	51		 push	 ecx
  00465	f3 0f 11 04 24	 movss	 DWORD PTR [esp], xmm0
  0046a	ff b5 bc 7f ff
	ff		 push	 DWORD PTR _iAniID$[ebp]
  00470	8b ce		 mov	 ecx, esi
  00472	53		 push	 ebx
  00473	ff 50 78	 call	 DWORD PTR [eax+120]

; 538  : 
; 539  : 	if( pOwner->IsNeedSendNetwork() )

  00476	8b 03		 mov	 eax, DWORD PTR [ebx]
  00478	8b cb		 mov	 ecx, ebx
  0047a	ff 90 04 01 00
	00		 call	 DWORD PTR [eax+260]
  00480	84 c0		 test	 al, al
  00482	0f 84 d3 00 00
	00		 je	 $LN1@SetComboJu

; 540  : 	{
; 541  : 		SP2Packet kPacket( CUPK_EXTEND_JUMP );

  00488	68 46 41 00 00	 push	 16710			; 00004146H
  0048d	8d 8d c8 7f ff
	ff		 lea	 ecx, DWORD PTR _kPacket$590776[ebp]
  00493	e8 00 00 00 00	 call	 ??0SP2Packet@@QAE@K@Z	; SP2Packet::SP2Packet

; 542  : 		kPacket << pOwner->GetCharName();

  00498	8d 83 d4 02 00
	00		 lea	 eax, DWORD PTR [ebx+724]
  0049e	50		 push	 eax
  0049f	8d 8d c8 7f ff
	ff		 lea	 ecx, DWORD PTR _kPacket$590776[ebp]
  004a5	c7 45 fc 02 00
	00 00		 mov	 DWORD PTR __$EHRec$[ebp+8], 2
  004ac	e8 00 00 00 00	 call	 ??6SP2Packet@@QAEAAV0@ABVioHashString@@@Z ; SP2Packet::operator<<

; 543  : 		kPacket << (int)GetType();

  004b1	8b 06		 mov	 eax, DWORD PTR [esi]
  004b3	8b ce		 mov	 ecx, esi
  004b5	ff 50 08	 call	 DWORD PTR [eax+8]
  004b8	50		 push	 eax
  004b9	8d 8d c8 7f ff
	ff		 lea	 ecx, DWORD PTR _kPacket$590776[ebp]
  004bf	e8 00 00 00 00	 call	 ??6SP2Packet@@QAEAAV0@H@Z ; SP2Packet::operator<<

; 544  : 		kPacket << pOwner->GetHP().m_fCurValue;

  004c4	8d 83 c0 00 00
	00		 lea	 eax, DWORD PTR [ebx+192]
  004ca	50		 push	 eax
  004cb	8d 8d c8 7f ff
	ff		 lea	 ecx, DWORD PTR _kPacket$590776[ebp]
  004d1	e8 00 00 00 00	 call	 ??6SP2Packet@@QAEAAV0@AAV?$CEncrypt@M@@@Z ; SP2Packet::operator<<

; 545  : 		kPacket << m_ChargeComboState;

  004d6	ff b6 f0 01 00
	00		 push	 DWORD PTR [esi+496]
  004dc	8d 8d c8 7f ff
	ff		 lea	 ecx, DWORD PTR _kPacket$590776[ebp]
  004e2	e8 00 00 00 00	 call	 ??6SP2Packet@@QAEAAV0@H@Z ; SP2Packet::operator<<

; 546  : 		kPacket << m_nCurComboCnt;

  004e7	ff b6 fc 01 00
	00		 push	 DWORD PTR [esi+508]
  004ed	8d 8d c8 7f ff
	ff		 lea	 ecx, DWORD PTR _kPacket$590776[ebp]
  004f3	e8 00 00 00 00	 call	 ??6SP2Packet@@QAEAAV0@H@Z ; SP2Packet::operator<<

; 547  : 		kPacket << pOwner->GetTargetRot();

  004f8	8d 83 a4 06 00
	00		 lea	 eax, DWORD PTR [ebx+1700]
  004fe	50		 push	 eax
  004ff	8d 8d c8 7f ff
	ff		 lea	 ecx, DWORD PTR _kPacket$590776[ebp]
  00505	e8 00 00 00 00	 call	 ??6SP2Packet@@QAEAAV0@ABUD3DXQUATERNION@@@Z ; SP2Packet::operator<<

; 548  : 		kPacket << pOwner->GetMoveDir();

  0050a	8d 83 b4 06 00
	00		 lea	 eax, DWORD PTR [ebx+1716]
  00510	50		 push	 eax
  00511	8d 8d c8 7f ff
	ff		 lea	 ecx, DWORD PTR _kPacket$590776[ebp]
  00517	e8 00 00 00 00	 call	 ??6SP2Packet@@QAEAAV0@ABUD3DXVECTOR3@@@Z ; SP2Packet::operator<<

; 549  : 		kPacket << pOwner->GetInputDir();

  0051c	8d 83 c0 06 00
	00		 lea	 eax, DWORD PTR [ebx+1728]
  00522	50		 push	 eax
  00523	8d 8d c8 7f ff
	ff		 lea	 ecx, DWORD PTR _kPacket$590776[ebp]
  00529	e8 00 00 00 00	 call	 ??6SP2Packet@@QAEAAV0@ABUD3DXVECTOR3@@@Z ; SP2Packet::operator<<

; 550  : 		pOwner->FillAutoTargetInfo( kPacket );

  0052e	8d 85 c8 7f ff
	ff		 lea	 eax, DWORD PTR _kPacket$590776[ebp]
  00534	50		 push	 eax
  00535	8b cb		 mov	 ecx, ebx
  00537	e8 00 00 00 00	 call	 ?FillAutoTargetInfo@ioBaseChar@@QAEXAAVSP2Packet@@@Z ; ioBaseChar::FillAutoTargetInfo

; 551  : 		P2PNetwork::SendToAllPlayingUser( kPacket );

  0053c	8d 85 c8 7f ff
	ff		 lea	 eax, DWORD PTR _kPacket$590776[ebp]
  00542	6a 00		 push	 0
  00544	50		 push	 eax
  00545	e8 00 00 00 00	 call	 ?SendToAllPlayingUser@P2PNetwork@@YAXAAVSP2Packet@@PAVioBaseChar@@@Z ; P2PNetwork::SendToAllPlayingUser

; 552  : 	}

  0054a	83 4d fc ff	 or	 DWORD PTR __$EHRec$[ebp+8], -1
  0054e	59		 pop	 ecx
  0054f	59		 pop	 ecx
  00550	8d 8d c8 7f ff
	ff		 lea	 ecx, DWORD PTR _kPacket$590776[ebp]
  00556	e8 00 00 00 00	 call	 ??1SP2Packet@@UAE@XZ	; SP2Packet::~SP2Packet
$LN1@SetComboJu:

; 553  : 
; 554  : 	m_bReserveJumpAttack = false;
; 555  : 	m_bUseExtendJump = true;
; 556  : 	pOwner->SetEnableHide( false );

  0055b	83 ec 10	 sub	 esp, 16			; 00000010H
  0055e	8b cc		 mov	 ecx, esp
  00560	89 a5 b8 7f ff
	ff		 mov	 DWORD PTR $T598370[ebp], esp
  00566	68 00 00 00 00	 push	 OFFSET ??_C@_00CNPNBAHC@?$AA@
  0056b	c6 86 08 02 00
	00 00		 mov	 BYTE PTR [esi+520], 0
  00572	c6 46 10 01	 mov	 BYTE PTR [esi+16], 1
  00576	ff d7		 call	 edi
  00578	83 ec 10	 sub	 esp, 16			; 00000010H
  0057b	8b cc		 mov	 ecx, esp
  0057d	89 a5 c4 7f ff
	ff		 mov	 DWORD PTR $T598371[ebp], esp
  00583	68 00 00 00 00	 push	 OFFSET ??_C@_00CNPNBAHC@?$AA@
  00588	c7 45 fc 03 00
	00 00		 mov	 DWORD PTR __$EHRec$[ebp+8], 3
  0058f	ff d7		 call	 edi
  00591	83 4d fc ff	 or	 DWORD PTR __$EHRec$[ebp+8], -1
  00595	6a 00		 push	 0
  00597	8b cb		 mov	 ecx, ebx
  00599	e8 00 00 00 00	 call	 ?SetEnableHide@ioBaseChar@@QAEX_NVioHashString@@1@Z ; ioBaseChar::SetEnableHide

; 557  : 	pOwner->SetNoWoundState( false );

  0059e	6a 00		 push	 0
  005a0	8b cb		 mov	 ecx, ebx
  005a2	e8 00 00 00 00	 call	 ?SetNoWoundState@ioBaseChar@@QAEX_N@Z ; ioBaseChar::SetNoWoundState

; 558  : 	pOwner->SetEnableChangeTeam( false );

  005a7	6a 00		 push	 0
  005a9	8b cb		 mov	 ecx, ebx
  005ab	e8 00 00 00 00	 call	 ?SetEnableChangeTeam@ioBaseChar@@QAEX_N@Z ; ioBaseChar::SetEnableChangeTeam

; 559  : 
; 560  : 	pOwner->SetChangeJumpMotion( false, "", "", "", 0.0f );

  005b0	68 00 00 00 00	 push	 OFFSET ??_C@_00CNPNBAHC@?$AA@
  005b5	8d 8d 80 7f ff
	ff		 lea	 ecx, DWORD PTR $T598372[ebp]
  005bb	ff d7		 call	 edi
  005bd	68 00 00 00 00	 push	 OFFSET ??_C@_00CNPNBAHC@?$AA@
  005c2	8d 8d 70 7f ff
	ff		 lea	 ecx, DWORD PTR $T598373[ebp]
  005c8	c7 45 fc 04 00
	00 00		 mov	 DWORD PTR __$EHRec$[ebp+8], 4
  005cf	ff d7		 call	 edi
  005d1	68 00 00 00 00	 push	 OFFSET ??_C@_00CNPNBAHC@?$AA@
  005d6	8d 8d 90 7f ff
	ff		 lea	 ecx, DWORD PTR $T598374[ebp]
  005dc	c6 45 fc 05	 mov	 BYTE PTR __$EHRec$[ebp+8], 5
  005e0	ff d7		 call	 edi
  005e2	0f 57 c0	 xorps	 xmm0, xmm0
  005e5	51		 push	 ecx
  005e6	f3 0f 11 04 24	 movss	 DWORD PTR [esp], xmm0
  005eb	8d 85 80 7f ff
	ff		 lea	 eax, DWORD PTR $T598372[ebp]
  005f1	50		 push	 eax
  005f2	8d 85 70 7f ff
	ff		 lea	 eax, DWORD PTR $T598373[ebp]
  005f8	50		 push	 eax
  005f9	8d 85 90 7f ff
	ff		 lea	 eax, DWORD PTR $T598374[ebp]
  005ff	50		 push	 eax
  00600	6a 00		 push	 0
  00602	8b cb		 mov	 ecx, ebx
  00604	c6 45 fc 06	 mov	 BYTE PTR __$EHRec$[ebp+8], 6
  00608	e8 00 00 00 00	 call	 ?SetChangeJumpMotion@ioBaseChar@@QAEX_NABVioHashString@@11M@Z ; ioBaseChar::SetChangeJumpMotion
  0060d	8b 3d 00 00 00
	00		 mov	 edi, DWORD PTR __imp_??1ioHashString@@QAE@XZ
  00613	8d 8d 90 7f ff
	ff		 lea	 ecx, DWORD PTR $T598374[ebp]
  00619	c6 45 fc 05	 mov	 BYTE PTR __$EHRec$[ebp+8], 5
  0061d	ff d7		 call	 edi
  0061f	8d 8d 70 7f ff
	ff		 lea	 ecx, DWORD PTR $T598373[ebp]
  00625	c6 45 fc 04	 mov	 BYTE PTR __$EHRec$[ebp+8], 4
  00629	ff d7		 call	 edi
  0062b	83 4d fc ff	 or	 DWORD PTR __$EHRec$[ebp+8], -1
  0062f	8d 8d 80 7f ff
	ff		 lea	 ecx, DWORD PTR $T598372[ebp]
  00635	ff d7		 call	 edi

; 561  : 
; 562  : 	m_nCurComboCnt++;

  00637	ff 86 fc 01 00
	00		 inc	 DWORD PTR [esi+508]

; 563  : 	pOwner->SetJumpAttackState();

  0063d	8b cb		 mov	 ecx, ebx
  0063f	e8 00 00 00 00	 call	 ?SetJumpAttackState@ioBaseChar@@QAEXXZ ; ioBaseChar::SetJumpAttackState
$LN6@SetComboJu:

; 564  : }

  00644	8b 4d f4	 mov	 ecx, DWORD PTR __$EHRec$[ebp]
  00647	64 89 0d 00 00
	00 00		 mov	 DWORD PTR fs:0, ecx
  0064e	59		 pop	 ecx
  0064f	5f		 pop	 edi
  00650	5e		 pop	 esi
  00651	5b		 pop	 ebx
  00652	8b 4d f0	 mov	 ecx, DWORD PTR __$ArrayPad$[ebp]
  00655	33 cd		 xor	 ecx, ebp
  00657	e8 00 00 00 00	 call	 @__security_check_cookie@4
  0065c	c9		 leave
  0065d	c2 04 00	 ret	 4
_TEXT	ENDS
;	COMDAT text$x
text$x	SEGMENT
__unwindfunclet$?SetComboJumpAttack@ioParkilpyoJump@@IAEXPAVioBaseChar@@@Z$6:
  00000	8d 8d a0 7f ff
	ff		 lea	 ecx, DWORD PTR $T598528[ebp]
  00006	ff 25 00 00 00
	00		 jmp	 DWORD PTR __imp_??1ioHashString@@QAE@XZ
__unwindfunclet$?SetComboJumpAttack@ioParkilpyoJump@@IAEXPAVioBaseChar@@@Z$7:
  0000c	8d 8d a0 7f ff
	ff		 lea	 ecx, DWORD PTR $T598658[ebp]
  00012	ff 25 00 00 00
	00		 jmp	 DWORD PTR __imp_??1ioHashString@@QAE@XZ
__unwindfunclet$?SetComboJumpAttack@ioParkilpyoJump@@IAEXPAVioBaseChar@@@Z$0:
  00018	8d 8d c8 7f ff
	ff		 lea	 ecx, DWORD PTR _kPacket$590776[ebp]
  0001e	e9 00 00 00 00	 jmp	 ??1SP2Packet@@UAE@XZ	; SP2Packet::~SP2Packet
__unwindfunclet$?SetComboJumpAttack@ioParkilpyoJump@@IAEXPAVioBaseChar@@@Z$1:
  00023	8b 8d b8 7f ff
	ff		 mov	 ecx, DWORD PTR $T598370[ebp]
  00029	ff 25 00 00 00
	00		 jmp	 DWORD PTR __imp_??1ioHashString@@QAE@XZ
__unwindfunclet$?SetComboJumpAttack@ioParkilpyoJump@@IAEXPAVioBaseChar@@@Z$3:
  0002f	8d 8d 80 7f ff
	ff		 lea	 ecx, DWORD PTR $T598372[ebp]
  00035	ff 25 00 00 00
	00		 jmp	 DWORD PTR __imp_??1ioHashString@@QAE@XZ
__unwindfunclet$?SetComboJumpAttack@ioParkilpyoJump@@IAEXPAVioBaseChar@@@Z$4:
  0003b	8d 8d 70 7f ff
	ff		 lea	 ecx, DWORD PTR $T598373[ebp]
  00041	ff 25 00 00 00
	00		 jmp	 DWORD PTR __imp_??1ioHashString@@QAE@XZ
__unwindfunclet$?SetComboJumpAttack@ioParkilpyoJump@@IAEXPAVioBaseChar@@@Z$5:
  00047	8d 8d 90 7f ff
	ff		 lea	 ecx, DWORD PTR $T598374[ebp]
  0004d	ff 25 00 00 00
	00		 jmp	 DWORD PTR __imp_??1ioHashString@@QAE@XZ
__ehhandler$?SetComboJumpAttack@ioParkilpyoJump@@IAEXPAVioBaseChar@@@Z:
  00053	8b 54 24 08	 mov	 edx, DWORD PTR [esp+8]
  00057	8d 42 0c	 lea	 eax, DWORD PTR [edx+12]
  0005a	8b 8a 6c 7f ff
	ff		 mov	 ecx, DWORD PTR [edx-32916]
  00060	33 c8		 xor	 ecx, eax
  00062	e8 00 00 00 00	 call	 @__security_check_cookie@4
  00067	8b 4a fc	 mov	 ecx, DWORD PTR [edx-4]
  0006a	33 c8		 xor	 ecx, eax
  0006c	e8 00 00 00 00	 call	 @__security_check_cookie@4
  00071	b8 00 00 00 00	 mov	 eax, OFFSET __ehfuncinfo$?SetComboJumpAttack@ioParkilpyoJump@@IAEXPAVioBaseChar@@@Z
  00076	e9 00 00 00 00	 jmp	 ___CxxFrameHandler3
text$x	ENDS
?SetComboJumpAttack@ioParkilpyoJump@@IAEXPAVioBaseChar@@@Z ENDP ; ioParkilpyoJump::SetComboJumpAttack
PUBLIC	?ProcessComboJumpAttack@ioParkilpyoJump@@IAEXPAVioBaseChar@@@Z ; ioParkilpyoJump::ProcessComboJumpAttack
; Function compile flags: /Ogsp
;	COMDAT ?ProcessComboJumpAttack@ioParkilpyoJump@@IAEXPAVioBaseChar@@@Z
_TEXT	SEGMENT
_pOwner$ = 8						; size = 4
?ProcessComboJumpAttack@ioParkilpyoJump@@IAEXPAVioBaseChar@@@Z PROC ; ioParkilpyoJump::ProcessComboJumpAttack, COMDAT
; _this$ = ecx

; 567  : {

  00000	55		 push	 ebp
  00001	8b ec		 mov	 ebp, esp
  00003	53		 push	 ebx
  00004	56		 push	 esi
  00005	57		 push	 edi
  00006	8b f1		 mov	 esi, ecx

; 568  : 	DWORD dwCurTime = FRAMEGETTIME();

  00008	ff 15 00 00 00
	00		 call	 DWORD PTR __imp_?GetSingleton@ioFrameTimer@@SAAAV1@XZ
  0000e	8b c8		 mov	 ecx, eax
  00010	ff 15 00 00 00
	00		 call	 DWORD PTR __imp_?GetLoopSec@ioFrameTimer@@QBEKXZ

; 569  : 
; 570  : 	ProcessAirJump( pOwner );

  00016	8b 7d 08	 mov	 edi, DWORD PTR _pOwner$[ebp]
  00019	57		 push	 edi
  0001a	8b ce		 mov	 ecx, esi
  0001c	8b d8		 mov	 ebx, eax
  0001e	e8 00 00 00 00	 call	 ?ProcessAirJump@ioParkilpyoJump@@IAEXPAVioBaseChar@@@Z ; ioParkilpyoJump::ProcessAirJump

; 571  : 
; 572  : 	ioParkilpyoItem *pParkilpyoItem = ToParkilpyoItem( pOwner->GetWeapon() );

  00023	8b cf		 mov	 ecx, edi
  00025	e8 00 00 00 00	 call	 ?GetWeapon@ioBaseChar@@QBEPAVioWeaponItem@@XZ ; ioBaseChar::GetWeapon
  0002a	50		 push	 eax
  0002b	e8 00 00 00 00	 call	 ?ToParkilpyoItem@@YAPAVioParkilpyoItem@@PAVioItem@@@Z ; ToParkilpyoItem
  00030	59		 pop	 ecx

; 573  : 	if( pParkilpyoItem && pParkilpyoItem->CheckCmdInputState( pOwner ) )

  00031	85 c0		 test	 eax, eax
  00033	74 0c		 je	 SHORT $LN4@ProcessCom
  00035	57		 push	 edi
  00036	8b c8		 mov	 ecx, eax
  00038	e8 00 00 00 00	 call	 ?CheckCmdInputState@ioParkilpyoItem@@QAE_NPAVioBaseChar@@@Z ; ioParkilpyoItem::CheckCmdInputState
  0003d	84 c0		 test	 al, al
  0003f	75 29		 jne	 SHORT $LN1@ProcessCom
$LN4@ProcessCom:

; 574  : 		return;
; 575  : 
; 576  : 	if( m_bReserveJumpAttack )

  00041	80 be 08 02 00
	00 00		 cmp	 BYTE PTR [esi+520], 0
  00048	74 20		 je	 SHORT $LN1@ProcessCom

; 577  : 	{
; 578  : 		DWORD dwLooseTime = 0;

  0004a	33 c0		 xor	 eax, eax

; 579  : 
; 580  : 		if( pOwner )

  0004c	85 ff		 test	 edi, edi
  0004e	74 06		 je	 SHORT $LN7@ProcessCom

; 581  : 			dwLooseTime = pOwner->GetActionStopTotalDelay();

  00050	8b 87 b8 15 00
	00		 mov	 eax, DWORD PTR [edi+5560]
$LN7@ProcessCom:

; 582  : 
; 583  : 		if( dwCurTime >= m_dwEnableComboTime_S+dwLooseTime )

  00056	8b 8e 00 02 00
	00		 mov	 ecx, DWORD PTR [esi+512]
  0005c	03 c8		 add	 ecx, eax
  0005e	3b d9		 cmp	 ebx, ecx
  00060	72 08		 jb	 SHORT $LN1@ProcessCom

; 584  : 		{
; 585  : 			SetChargingState( pOwner );

  00062	57		 push	 edi
  00063	8b ce		 mov	 ecx, esi
  00065	e8 00 00 00 00	 call	 ?SetChargingState@ioParkilpyoJump@@IAEXPAVioBaseChar@@@Z ; ioParkilpyoJump::SetChargingState
$LN1@ProcessCom:
  0006a	5f		 pop	 edi
  0006b	5e		 pop	 esi
  0006c	5b		 pop	 ebx

; 586  : 		}
; 587  : 	}
; 588  : }

  0006d	5d		 pop	 ebp
  0006e	c2 04 00	 ret	 4
?ProcessComboJumpAttack@ioParkilpyoJump@@IAEXPAVioBaseChar@@@Z ENDP ; ioParkilpyoJump::ProcessComboJumpAttack
_TEXT	ENDS
PUBLIC	__$ArrayPad$
PUBLIC	?ChangeToChargeAttack@ioParkilpyoJump@@IAEXPAVioBaseChar@@@Z ; ioParkilpyoJump::ChangeToChargeAttack
EXTRN	?SetReservedSliding@ioBaseChar@@QAEXABV?$vector@UForceInfo@@V?$allocator@UForceInfo@@@std@@@std@@HMKM_N@Z:PROC ; ioBaseChar::SetReservedSliding
EXTRN	?CheckCharColSkipTime@ioBaseChar@@QAEXHMK@Z:PROC ; ioBaseChar::CheckCharColSkipTime
EXTRN	?GetAttackAttribute@ioBaseChar@@QBEPBUAttackAttribute@@W4AttackType@@H@Z:PROC ; ioBaseChar::GetAttackAttribute
;	COMDAT xdata$x
; File d:\lost saga for developer\youtube\tutorial\source\src\lsclient\iobasechar.h
xdata$x	SEGMENT
__unwindtable$?ChangeToChargeAttack@ioParkilpyoJump@@IAEXPAVioBaseChar@@@Z DD 0ffffffffH
	DD	FLAT:__unwindfunclet$?ChangeToChargeAttack@ioParkilpyoJump@@IAEXPAVioBaseChar@@@Z$1
	DD	0ffffffffH
	DD	FLAT:__unwindfunclet$?ChangeToChargeAttack@ioParkilpyoJump@@IAEXPAVioBaseChar@@@Z$0
__ehfuncinfo$?ChangeToChargeAttack@ioParkilpyoJump@@IAEXPAVioBaseChar@@@Z DD 019930522H
	DD	02H
	DD	FLAT:__unwindtable$?ChangeToChargeAttack@ioParkilpyoJump@@IAEXPAVioBaseChar@@@Z
	DD	2 DUP(00H)
	DD	2 DUP(00H)
	DD	00H
	DD	01H
; Function compile flags: /Ogsp
; File d:\lost saga for developer\youtube\tutorial\source\src\lsclient\ioparkilpyojump.cpp
xdata$x	ENDS
;	COMDAT ?ChangeToChargeAttack@ioParkilpyoJump@@IAEXPAVioBaseChar@@@Z
_TEXT	SEGMENT
$T598838 = -32864					; size = 16
tv1164 = -32848						; size = 4
tv1133 = -32848						; size = 4
_dwCurTime$ = -32844					; size = 4
_pGrp$ = -32840						; size = 4
_iAniID$ = -32836					; size = 4
$T598837 = -32832					; size = 4
_dwPreDelay$ = -32832					; size = 4
_fTimeRate$ = -32828					; size = 4
_kPacket$590854 = -32824				; size = 32792
_szEncEventType$598738 = -32				; size = 11
__$ArrayPad$ = -16					; size = 4
__$EHRec$ = -12						; size = 12
_pOwner$ = 8						; size = 4
?ChangeToChargeAttack@ioParkilpyoJump@@IAEXPAVioBaseChar@@@Z PROC ; ioParkilpyoJump::ChangeToChargeAttack, COMDAT
; _this$ = ecx

; 700  : {

  00000	55		 push	 ebp
  00001	8b ec		 mov	 ebp, esp
  00003	6a ff		 push	 -1
  00005	68 00 00 00 00	 push	 __ehhandler$?ChangeToChargeAttack@ioParkilpyoJump@@IAEXPAVioBaseChar@@@Z
  0000a	64 a1 00 00 00
	00		 mov	 eax, DWORD PTR fs:0
  00010	50		 push	 eax
  00011	b8 54 80 00 00	 mov	 eax, 32852		; 00008054H
  00016	e8 00 00 00 00	 call	 __chkstk
  0001b	a1 00 00 00 00	 mov	 eax, DWORD PTR ___security_cookie
  00020	33 c5		 xor	 eax, ebp
  00022	89 45 f0	 mov	 DWORD PTR __$ArrayPad$[ebp], eax
  00025	53		 push	 ebx
  00026	56		 push	 esi
  00027	57		 push	 edi
  00028	50		 push	 eax
  00029	8d 45 f4	 lea	 eax, DWORD PTR __$EHRec$[ebp]
  0002c	64 a3 00 00 00
	00		 mov	 DWORD PTR fs:0, eax
  00032	8b 75 08	 mov	 esi, DWORD PTR _pOwner$[ebp]

; 701  : 	ioEntityGroup *pGrp = pOwner->GetGroup();

  00035	8b 46 04	 mov	 eax, DWORD PTR [esi+4]
  00038	8b f9		 mov	 edi, ecx
  0003a	89 85 b8 7f ff
	ff		 mov	 DWORD PTR _pGrp$[ebp], eax

; 702  : 	if( !pGrp ) return;

  00040	85 c0		 test	 eax, eax
  00042	0f 84 4f 03 00
	00		 je	 $LN1@ChangeToCh

; 703  : 
; 704  : 	const AttackAttribute *pAttr = pOwner->GetAttackAttribute( AT_EXTEND_JUMP_ATTACK );

  00048	6a 00		 push	 0
  0004a	6a 04		 push	 4
  0004c	8b ce		 mov	 ecx, esi
  0004e	e8 00 00 00 00	 call	 ?GetAttackAttribute@ioBaseChar@@QBEPBUAttackAttribute@@W4AttackType@@H@Z ; ioBaseChar::GetAttackAttribute
  00053	8b d8		 mov	 ebx, eax

; 705  : 	if( !pAttr ) return;

  00055	85 db		 test	 ebx, ebx
  00057	0f 84 3a 03 00
	00		 je	 $LN1@ChangeToCh

; 706  : 
; 707  : 	pOwner->ClearSylphid();

  0005d	8b ce		 mov	 ecx, esi
  0005f	e8 00 00 00 00	 call	 ?ClearSylphid@ioBaseChar@@QAEXXZ ; ioBaseChar::ClearSylphid

; 708  : 
; 709  : 	DWORD dwCurTime = FRAMEGETTIME();

  00064	ff 15 00 00 00
	00		 call	 DWORD PTR __imp_?GetSingleton@ioFrameTimer@@SAAAV1@XZ
  0006a	8b c8		 mov	 ecx, eax
  0006c	ff 15 00 00 00
	00		 call	 DWORD PTR __imp_?GetLoopSec@ioFrameTimer@@QBEKXZ

; 710  : 
; 711  : 	int iAniID = pGrp->GetAnimationIdx( pAttr->m_AttackAnimation );

  00072	8b 8d b8 7f ff
	ff		 mov	 ecx, DWORD PTR _pGrp$[ebp]
  00078	53		 push	 ebx
  00079	89 85 b4 7f ff
	ff		 mov	 DWORD PTR _dwCurTime$[ebp], eax
  0007f	ff 15 00 00 00
	00		 call	 DWORD PTR __imp_?GetAnimationIdx@ioEntityGroup@@QAEHABVioHashString@@@Z

; 712  : 	float fTimeRate = pAttr->m_fAttackAniRate;

  00085	f3 0f 10 43 10	 movss	 xmm0, DWORD PTR [ebx+16]

; 713  : 	DWORD dwPreDelay = pAttr->m_dwPreDelay;
; 714  : 
; 715  : 	if( fTimeRate <= 0.0f )

  0008a	0f 57 c9	 xorps	 xmm1, xmm1
  0008d	0f 2f c8	 comiss	 xmm1, xmm0
  00090	89 85 bc 7f ff
	ff		 mov	 DWORD PTR _iAniID$[ebp], eax
  00096	8b 43 48	 mov	 eax, DWORD PTR [ebx+72]
  00099	f3 0f 11 85 c4
	7f ff ff	 movss	 DWORD PTR _fTimeRate$[ebp], xmm0
  000a1	89 85 c0 7f ff
	ff		 mov	 DWORD PTR _dwPreDelay$[ebp], eax
  000a7	72 10		 jb	 SHORT $LN2@ChangeToCh

; 716  : 		fTimeRate = 1.0f;

  000a9	f3 0f 10 05 00
	00 00 00	 movss	 xmm0, DWORD PTR __real@3f800000
  000b1	f3 0f 11 85 c4
	7f ff ff	 movss	 DWORD PTR _fTimeRate$[ebp], xmm0
$LN2@ChangeToCh:

; 717  : 
; 718  : 	pOwner->SetAutoTarget( ATT_JUMP );

  000b9	6a 03		 push	 3
  000bb	8b ce		 mov	 ecx, esi
  000bd	e8 00 00 00 00	 call	 ?SetAutoTarget@ioBaseChar@@QAEXW4AutoTargetType@@@Z ; ioBaseChar::SetAutoTarget

; 719  : 
; 720  : 	pGrp->ClearAllActionAni( 100.0f, true );

  000c2	f3 0f 10 05 00
	00 00 00	 movss	 xmm0, DWORD PTR __real@42c80000
  000ca	6a 01		 push	 1
  000cc	51		 push	 ecx
  000cd	8b 8d b8 7f ff
	ff		 mov	 ecx, DWORD PTR _pGrp$[ebp]
  000d3	f3 0f 11 04 24	 movss	 DWORD PTR [esp], xmm0
  000d8	ff 15 00 00 00
	00		 call	 DWORD PTR __imp_?ClearAllActionAni@ioEntityGroup@@QAEXM_N@Z

; 721  : 	pGrp->ClearAllLoopAni( 100.0f, true );

  000de	f3 0f 10 05 00
	00 00 00	 movss	 xmm0, DWORD PTR __real@42c80000
  000e6	6a 01		 push	 1
  000e8	51		 push	 ecx
  000e9	8b 8d b8 7f ff
	ff		 mov	 ecx, DWORD PTR _pGrp$[ebp]
  000ef	f3 0f 11 04 24	 movss	 DWORD PTR [esp], xmm0
  000f4	ff 15 00 00 00
	00		 call	 DWORD PTR __imp_?ClearAllLoopAni@ioEntityGroup@@QAEXM_N@Z

; 722  : 
; 723  : 	pGrp->SetActionAni( iAniID, 100.0f, 100.0f, 1.0f, 1.0f/fTimeRate, 0.0f, dwPreDelay, true );

  000fa	db 85 c0 7f ff
	ff		 fild	 DWORD PTR _dwPreDelay$[ebp]
  00100	8b 85 c0 7f ff
	ff		 mov	 eax, DWORD PTR _dwPreDelay$[ebp]
  00106	6a 01		 push	 1
  00108	6a 01		 push	 1
  0010a	85 c0		 test	 eax, eax
  0010c	79 06		 jns	 SHORT $LN128@ChangeToCh
  0010e	d8 05 00 00 00
	00		 fadd	 DWORD PTR __real@4f800000
$LN128@ChangeToCh:
  00114	0f 57 c0	 xorps	 xmm0, xmm0
  00117	f2 0f 10 0d 00
	00 00 00	 movsd	 xmm1, QWORD PTR __real@3ff0000000000000
  0011f	8b 8d b8 7f ff
	ff		 mov	 ecx, DWORD PTR _pGrp$[ebp]
  00125	83 ec 18	 sub	 esp, 24			; 00000018H
  00128	d9 5c 24 14	 fstp	 DWORD PTR [esp+20]
  0012c	f3 0f 11 44 24
	10		 movss	 DWORD PTR [esp+16], xmm0
  00132	f3 0f 10 85 c4
	7f ff ff	 movss	 xmm0, DWORD PTR _fTimeRate$[ebp]
  0013a	0f 5a c0	 cvtps2pd xmm0, xmm0
  0013d	f2 0f 5e c8	 divsd	 xmm1, xmm0
  00141	66 0f 5a c1	 cvtpd2ps xmm0, xmm1
  00145	f3 0f 11 44 24
	0c		 movss	 DWORD PTR [esp+12], xmm0
  0014b	f3 0f 10 05 00
	00 00 00	 movss	 xmm0, DWORD PTR __real@3f800000
  00153	f3 0f 11 44 24
	08		 movss	 DWORD PTR [esp+8], xmm0
  00159	f3 0f 10 05 00
	00 00 00	 movss	 xmm0, DWORD PTR __real@42c80000
  00161	f3 0f 11 44 24
	04		 movss	 DWORD PTR [esp+4], xmm0
  00167	f3 0f 11 04 24	 movss	 DWORD PTR [esp], xmm0
  0016c	ff b5 bc 7f ff
	ff		 push	 DWORD PTR _iAniID$[ebp]
  00172	ff 15 00 00 00
	00		 call	 DWORD PTR __imp_?SetActionAni@ioEntityGroup@@QAE_NHMMMMMM_N0@Z

; 724  : 	pOwner->RefreshFireTimeList( iAniID, pAttr->m_vWeaponInfoList, FTT_JUMP_ATTACK, fTimeRate, dwPreDelay );

  00178	f3 0f 10 85 c4
	7f ff ff	 movss	 xmm0, DWORD PTR _fTimeRate$[ebp]
  00180	6a 00		 push	 0
  00182	ff b5 c0 7f ff
	ff		 push	 DWORD PTR _dwPreDelay$[ebp]
  00188	8d 43 28	 lea	 eax, DWORD PTR [ebx+40]
  0018b	51		 push	 ecx
  0018c	f3 0f 11 04 24	 movss	 DWORD PTR [esp], xmm0
  00191	6a 03		 push	 3
  00193	50		 push	 eax
  00194	ff b5 bc 7f ff
	ff		 push	 DWORD PTR _iAniID$[ebp]
  0019a	8b ce		 mov	 ecx, esi
  0019c	e8 00 00 00 00	 call	 ?RefreshFireTimeList@ioBaseChar@@QAEXHABV?$vector@UWeaponInfo@@V?$allocator@UWeaponInfo@@@std@@@std@@W4FireTimeType@@MK_N@Z ; ioBaseChar::RefreshFireTimeList

; 725  : 	pOwner->IncreaseWeaponIndexBase();

  001a1	8b ce		 mov	 ecx, esi
  001a3	e8 00 00 00 00	 call	 ?IncreaseWeaponIndexBase@ioBaseChar@@QAEKXZ ; ioBaseChar::IncreaseWeaponIndexBase

; 726  : 
; 727  : 	pOwner->CheckCharColSkipTime( iAniID, fTimeRate, dwPreDelay );

  001a8	ff b5 c0 7f ff
	ff		 push	 DWORD PTR _dwPreDelay$[ebp]
  001ae	f3 0f 10 85 c4
	7f ff ff	 movss	 xmm0, DWORD PTR _fTimeRate$[ebp]
  001b6	51		 push	 ecx
  001b7	f3 0f 11 04 24	 movss	 DWORD PTR [esp], xmm0
  001bc	ff b5 bc 7f ff
	ff		 push	 DWORD PTR _iAniID$[ebp]
  001c2	8b ce		 mov	 ecx, esi
  001c4	e8 00 00 00 00	 call	 ?CheckCharColSkipTime@ioBaseChar@@QAEXHMK@Z ; ioBaseChar::CheckCharColSkipTime

; 728  : 	pOwner->SetReservedSliding( pAttr->m_vForceInfoList, iAniID, fTimeRate, dwPreDelay );

  001c9	f3 0f 10 05 00
	00 00 00	 movss	 xmm0, DWORD PTR __real@3f800000
  001d1	6a 01		 push	 1
  001d3	51		 push	 ecx
  001d4	f3 0f 11 04 24	 movss	 DWORD PTR [esp], xmm0
  001d9	ff b5 c0 7f ff
	ff		 push	 DWORD PTR _dwPreDelay$[ebp]
  001df	f3 0f 10 85 c4
	7f ff ff	 movss	 xmm0, DWORD PTR _fTimeRate$[ebp]
  001e7	51		 push	 ecx
  001e8	f3 0f 11 04 24	 movss	 DWORD PTR [esp], xmm0
  001ed	ff b5 bc 7f ff
	ff		 push	 DWORD PTR _iAniID$[ebp]
  001f3	83 c3 38	 add	 ebx, 56			; 00000038H
  001f6	53		 push	 ebx
  001f7	8b ce		 mov	 ecx, esi
  001f9	e8 00 00 00 00	 call	 ?SetReservedSliding@ioBaseChar@@QAEXABV?$vector@UForceInfo@@V?$allocator@UForceInfo@@@std@@@std@@HMKM_N@Z ; ioBaseChar::SetReservedSliding

; 729  : 
; 730  : 	m_ChargeComboState = CCS_CHARGE_ATTACK;
; 731  : 	m_bUsedChargeAttack = true;
; 732  : 
; 733  : 	// For AirJumpPower
; 734  : 	DWORD dwStartTime = dwCurTime + dwPreDelay;
; 735  : 
; 736  : 	SetAirJump( pOwner, iAniID, fTimeRate );

  001fe	f3 0f 10 85 c4
	7f ff ff	 movss	 xmm0, DWORD PTR _fTimeRate$[ebp]
  00206	8b 07		 mov	 eax, DWORD PTR [edi]
  00208	6a 04		 push	 4
  0020a	5b		 pop	 ebx
  0020b	51		 push	 ecx
  0020c	f3 0f 11 04 24	 movss	 DWORD PTR [esp], xmm0
  00211	ff b5 bc 7f ff
	ff		 push	 DWORD PTR _iAniID$[ebp]
  00217	8b cf		 mov	 ecx, edi
  00219	56		 push	 esi
  0021a	89 9f f0 01 00
	00		 mov	 DWORD PTR [edi+496], ebx
  00220	c6 87 11 02 00
	00 01		 mov	 BYTE PTR [edi+529], 1
  00227	ff 50 78	 call	 DWORD PTR [eax+120]
  0022a	6a 02		 push	 2

; 737  : 
; 738  : 	DWORD dwTrackingTime = dwCurTime;
; 739  : 	dwTrackingTime += pGrp->GetAnimationEventTime_e( iAniID, "tracking_e" ) * fTimeRate;

  0022c	c7 45 e0 99 9e
	8a 89		 mov	 DWORD PTR _szEncEventType$598738[ebp], -1987404135 ; 898a9e99H
  00233	c7 45 e4 86 85
	85 8d		 mov	 DWORD PTR _szEncEventType$598738[ebp+4], -1920629370 ; 8d858586H
  0023a	66 c7 45 e8 b2
	89		 mov	 WORD PTR _szEncEventType$598738[ebp+8], 35250 ; 000089b2H
  00240	8d 45 e0	 lea	 eax, DWORD PTR _szEncEventType$598738[ebp]
  00243	c6 45 ea 00	 mov	 BYTE PTR _szEncEventType$598738[ebp+10], 0
  00247	59		 pop	 ecx
$LL114@ChangeToCh:
  00248	81 30 ed ec eb
	ea		 xor	 DWORD PTR [eax], -353637139 ; eaebecedH
  0024e	03 c3		 add	 eax, ebx
  00250	49		 dec	 ecx
  00251	75 f5		 jne	 SHORT $LL114@ChangeToCh
  00253	6a 08		 push	 8
  00255	58		 pop	 eax
$LL111@ChangeToCh:
  00256	8b c8		 mov	 ecx, eax
  00258	81 e1 03 00 00
	80		 and	 ecx, -2147483645	; 80000003H
  0025e	79 05		 jns	 SHORT $LN129@ChangeToCh
  00260	49		 dec	 ecx
  00261	83 c9 fc	 or	 ecx, -4			; fffffffcH
  00264	41		 inc	 ecx
$LN129@ChangeToCh:
  00265	b2 ed		 mov	 dl, -19			; ffffffedH
  00267	2a d1		 sub	 dl, cl
  00269	30 54 05 e0	 xor	 BYTE PTR _szEncEventType$598738[ebp+eax], dl
  0026d	40		 inc	 eax
  0026e	83 f8 0a	 cmp	 eax, 10			; 0000000aH
  00271	7c e3		 jl	 SHORT $LL111@ChangeToCh
  00273	8d 45 e0	 lea	 eax, DWORD PTR _szEncEventType$598738[ebp]
  00276	50		 push	 eax
  00277	8d 8d a0 7f ff
	ff		 lea	 ecx, DWORD PTR $T598838[ebp]
  0027d	ff 15 00 00 00
	00		 call	 DWORD PTR __imp_??0ioHashString@@QAE@PBD@Z
  00283	8b 8d b8 7f ff
	ff		 mov	 ecx, DWORD PTR _pGrp$[ebp]
  00289	83 65 fc 00	 and	 DWORD PTR __$EHRec$[ebp+8], 0
  0028d	8d 85 a0 7f ff
	ff		 lea	 eax, DWORD PTR $T598838[ebp]
  00293	50		 push	 eax
  00294	ff b5 bc 7f ff
	ff		 push	 DWORD PTR _iAniID$[ebp]
  0029a	ff 15 00 00 00
	00		 call	 DWORD PTR __imp_?GetAnimationEventTime@ioEntityGroup@@QAEMHABVioHashString@@@Z
  002a0	d9 9d c0 7f ff
	ff		 fstp	 DWORD PTR $T598837[ebp]
  002a6	83 4d fc ff	 or	 DWORD PTR __$EHRec$[ebp+8], -1
  002aa	8d 8d a0 7f ff
	ff		 lea	 ecx, DWORD PTR $T598838[ebp]
  002b0	ff 15 00 00 00
	00		 call	 DWORD PTR __imp_??1ioHashString@@QAE@XZ
  002b6	d9 85 c0 7f ff
	ff		 fld	 DWORD PTR $T598837[ebp]
  002bc	8b 85 b4 7f ff
	ff		 mov	 eax, DWORD PTR _dwCurTime$[ebp]
  002c2	d8 8d c4 7f ff
	ff		 fmul	 DWORD PTR _fTimeRate$[ebp]
  002c8	db 85 b4 7f ff
	ff		 fild	 DWORD PTR _dwCurTime$[ebp]
  002ce	85 c0		 test	 eax, eax
  002d0	79 06		 jns	 SHORT $LN130@ChangeToCh
  002d2	dc 05 00 00 00
	00		 fadd	 QWORD PTR __real@41f0000000000000
$LN130@ChangeToCh:
  002d8	de c1		 faddp	 ST(1), ST(0)
  002da	e8 00 00 00 00	 call	 __ftol2

; 740  : 
; 741  : 	pOwner->SetAutoTargetTrackingEndTime( dwTrackingTime );

  002df	50		 push	 eax
  002e0	8b ce		 mov	 ecx, esi
  002e2	e8 00 00 00 00	 call	 ?SetAutoTargetTrackingEndTime@ioBaseChar@@QAEXK@Z ; ioBaseChar::SetAutoTargetTrackingEndTime

; 742  : 
; 743  : 	if( pOwner->IsNeedSendNetwork() )

  002e7	8b 06		 mov	 eax, DWORD PTR [esi]
  002e9	8b ce		 mov	 ecx, esi
  002eb	ff 90 04 01 00
	00		 call	 DWORD PTR [eax+260]
  002f1	84 c0		 test	 al, al
  002f3	0f 84 9e 00 00
	00		 je	 $LN1@ChangeToCh

; 744  : 	{
; 745  : 		SP2Packet kPacket( CUPK_EXTEND_JUMP );

  002f9	68 46 41 00 00	 push	 16710			; 00004146H
  002fe	8d 8d c8 7f ff
	ff		 lea	 ecx, DWORD PTR _kPacket$590854[ebp]
  00304	e8 00 00 00 00	 call	 ??0SP2Packet@@QAE@K@Z	; SP2Packet::SP2Packet

; 746  : 		kPacket << pOwner->GetCharName();

  00309	8d 86 d4 02 00
	00		 lea	 eax, DWORD PTR [esi+724]
  0030f	50		 push	 eax
  00310	8d 8d c8 7f ff
	ff		 lea	 ecx, DWORD PTR _kPacket$590854[ebp]
  00316	c7 45 fc 01 00
	00 00		 mov	 DWORD PTR __$EHRec$[ebp+8], 1
  0031d	e8 00 00 00 00	 call	 ??6SP2Packet@@QAEAAV0@ABVioHashString@@@Z ; SP2Packet::operator<<

; 747  : 		kPacket << (int)GetType();

  00322	8b 07		 mov	 eax, DWORD PTR [edi]
  00324	8b cf		 mov	 ecx, edi
  00326	ff 50 08	 call	 DWORD PTR [eax+8]
  00329	50		 push	 eax
  0032a	8d 8d c8 7f ff
	ff		 lea	 ecx, DWORD PTR _kPacket$590854[ebp]
  00330	e8 00 00 00 00	 call	 ??6SP2Packet@@QAEAAV0@H@Z ; SP2Packet::operator<<

; 748  : 		kPacket << pOwner->GetHP().m_fCurValue;

  00335	8d 86 c0 00 00
	00		 lea	 eax, DWORD PTR [esi+192]
  0033b	50		 push	 eax
  0033c	8d 8d c8 7f ff
	ff		 lea	 ecx, DWORD PTR _kPacket$590854[ebp]
  00342	e8 00 00 00 00	 call	 ??6SP2Packet@@QAEAAV0@AAV?$CEncrypt@M@@@Z ; SP2Packet::operator<<

; 749  : 		kPacket << m_ChargeComboState;

  00347	ff b7 f0 01 00
	00		 push	 DWORD PTR [edi+496]
  0034d	8d 8d c8 7f ff
	ff		 lea	 ecx, DWORD PTR _kPacket$590854[ebp]
  00353	e8 00 00 00 00	 call	 ??6SP2Packet@@QAEAAV0@H@Z ; SP2Packet::operator<<

; 750  : 		kPacket << pOwner->GetTargetRot();

  00358	8d 86 a4 06 00
	00		 lea	 eax, DWORD PTR [esi+1700]
  0035e	50		 push	 eax
  0035f	8d 8d c8 7f ff
	ff		 lea	 ecx, DWORD PTR _kPacket$590854[ebp]
  00365	e8 00 00 00 00	 call	 ??6SP2Packet@@QAEAAV0@ABUD3DXQUATERNION@@@Z ; SP2Packet::operator<<

; 751  : 		pOwner->FillAutoTargetInfo( kPacket );

  0036a	8d 85 c8 7f ff
	ff		 lea	 eax, DWORD PTR _kPacket$590854[ebp]
  00370	50		 push	 eax
  00371	8b ce		 mov	 ecx, esi
  00373	e8 00 00 00 00	 call	 ?FillAutoTargetInfo@ioBaseChar@@QAEXAAVSP2Packet@@@Z ; ioBaseChar::FillAutoTargetInfo

; 752  : 		P2PNetwork::SendToAllPlayingUser( kPacket );

  00378	8d 85 c8 7f ff
	ff		 lea	 eax, DWORD PTR _kPacket$590854[ebp]
  0037e	6a 00		 push	 0
  00380	50		 push	 eax
  00381	e8 00 00 00 00	 call	 ?SendToAllPlayingUser@P2PNetwork@@YAXAAVSP2Packet@@PAVioBaseChar@@@Z ; P2PNetwork::SendToAllPlayingUser

; 753  : 	}

  00386	83 4d fc ff	 or	 DWORD PTR __$EHRec$[ebp+8], -1
  0038a	59		 pop	 ecx
  0038b	59		 pop	 ecx
  0038c	8d 8d c8 7f ff
	ff		 lea	 ecx, DWORD PTR _kPacket$590854[ebp]
  00392	e8 00 00 00 00	 call	 ??1SP2Packet@@UAE@XZ	; SP2Packet::~SP2Packet
$LN1@ChangeToCh:

; 754  : }

  00397	8b 4d f4	 mov	 ecx, DWORD PTR __$EHRec$[ebp]
  0039a	64 89 0d 00 00
	00 00		 mov	 DWORD PTR fs:0, ecx
  003a1	59		 pop	 ecx
  003a2	5f		 pop	 edi
  003a3	5e		 pop	 esi
  003a4	5b		 pop	 ebx
  003a5	8b 4d f0	 mov	 ecx, DWORD PTR __$ArrayPad$[ebp]
  003a8	33 cd		 xor	 ecx, ebp
  003aa	e8 00 00 00 00	 call	 @__security_check_cookie@4
  003af	c9		 leave
  003b0	c2 04 00	 ret	 4
_TEXT	ENDS
;	COMDAT text$x
text$x	SEGMENT
__unwindfunclet$?ChangeToChargeAttack@ioParkilpyoJump@@IAEXPAVioBaseChar@@@Z$1:
  00000	8d 8d a0 7f ff
	ff		 lea	 ecx, DWORD PTR $T598838[ebp]
  00006	ff 25 00 00 00
	00		 jmp	 DWORD PTR __imp_??1ioHashString@@QAE@XZ
__unwindfunclet$?ChangeToChargeAttack@ioParkilpyoJump@@IAEXPAVioBaseChar@@@Z$0:
  0000c	8d 8d c8 7f ff
	ff		 lea	 ecx, DWORD PTR _kPacket$590854[ebp]
  00012	e9 00 00 00 00	 jmp	 ??1SP2Packet@@UAE@XZ	; SP2Packet::~SP2Packet
__ehhandler$?ChangeToChargeAttack@ioParkilpyoJump@@IAEXPAVioBaseChar@@@Z:
  00017	8b 54 24 08	 mov	 edx, DWORD PTR [esp+8]
  0001b	8d 42 0c	 lea	 eax, DWORD PTR [edx+12]
  0001e	8b 8a 9c 7f ff
	ff		 mov	 ecx, DWORD PTR [edx-32868]
  00024	33 c8		 xor	 ecx, eax
  00026	e8 00 00 00 00	 call	 @__security_check_cookie@4
  0002b	8b 4a fc	 mov	 ecx, DWORD PTR [edx-4]
  0002e	33 c8		 xor	 ecx, eax
  00030	e8 00 00 00 00	 call	 @__security_check_cookie@4
  00035	b8 00 00 00 00	 mov	 eax, OFFSET __ehfuncinfo$?ChangeToChargeAttack@ioParkilpyoJump@@IAEXPAVioBaseChar@@@Z
  0003a	e9 00 00 00 00	 jmp	 ___CxxFrameHandler3
text$x	ENDS
?ChangeToChargeAttack@ioParkilpyoJump@@IAEXPAVioBaseChar@@@Z ENDP ; ioParkilpyoJump::ChangeToChargeAttack
PUBLIC	?ProcessCharging@ioParkilpyoJump@@IAEXPAVioBaseChar@@@Z ; ioParkilpyoJump::ProcessCharging
EXTRN	?IsAttackKeyDown@ioBaseChar@@QBE_NXZ:PROC	; ioBaseChar::IsAttackKeyDown
; Function compile flags: /Ogsp
;	COMDAT ?ProcessCharging@ioParkilpyoJump@@IAEXPAVioBaseChar@@@Z
_TEXT	SEGMENT
_pOwner$ = 8						; size = 4
?ProcessCharging@ioParkilpyoJump@@IAEXPAVioBaseChar@@@Z PROC ; ioParkilpyoJump::ProcessCharging, COMDAT
; _this$ = ecx

; 777  : {

  00000	55		 push	 ebp
  00001	8b ec		 mov	 ebp, esp
  00003	56		 push	 esi
  00004	57		 push	 edi

; 778  : 	if( !pOwner || !pOwner->IsNeedProcess() ) 

  00005	8b 7d 08	 mov	 edi, DWORD PTR _pOwner$[ebp]
  00008	8b f1		 mov	 esi, ecx
  0000a	85 ff		 test	 edi, edi
  0000c	74 58		 je	 SHORT $LN4@ProcessCha@2
  0000e	8b 07		 mov	 eax, DWORD PTR [edi]
  00010	8b cf		 mov	 ecx, edi
  00012	ff 90 00 01 00
	00		 call	 DWORD PTR [eax+256]
  00018	84 c0		 test	 al, al
  0001a	74 4a		 je	 SHORT $LN4@ProcessCha@2

; 779  : 		return;
; 780  : 
; 781  : 	DWORD dwCurTime = FRAMEGETTIME();

  0001c	53		 push	 ebx
  0001d	ff 15 00 00 00
	00		 call	 DWORD PTR __imp_?GetSingleton@ioFrameTimer@@SAAAV1@XZ
  00023	8b c8		 mov	 ecx, eax
  00025	ff 15 00 00 00
	00		 call	 DWORD PTR __imp_?GetLoopSec@ioFrameTimer@@QBEKXZ

; 782  : 	if( pOwner->IsAttackKeyDown() && !pOwner->IsHasCrown() )

  0002b	8b cf		 mov	 ecx, edi
  0002d	8b d8		 mov	 ebx, eax
  0002f	e8 00 00 00 00	 call	 ?IsAttackKeyDown@ioBaseChar@@QBE_NXZ ; ioBaseChar::IsAttackKeyDown
  00034	84 c0		 test	 al, al
  00036	74 25		 je	 SHORT $LN3@ProcessCha@2
  00038	8b cf		 mov	 ecx, edi
  0003a	e8 00 00 00 00	 call	 ?IsHasCrown@ioBaseChar@@QBE_NXZ ; ioBaseChar::IsHasCrown
  0003f	84 c0		 test	 al, al
  00041	75 1a		 jne	 SHORT $LN3@ProcessCha@2

; 783  : 	{
; 784  : 		if( m_dwChargingStartTime+m_dwChargingTime < dwCurTime )

  00043	8b 86 f4 01 00
	00		 mov	 eax, DWORD PTR [esi+500]
  00049	03 86 24 01 00
	00		 add	 eax, DWORD PTR [esi+292]
  0004f	3b c3		 cmp	 eax, ebx
  00051	73 12		 jae	 SHORT $LN8@ProcessCha@2

; 785  : 			ChangeToGathering( pOwner );

  00053	57		 push	 edi
  00054	8b ce		 mov	 ecx, esi
  00056	e8 00 00 00 00	 call	 ?ChangeToGathering@ioParkilpyoJump@@IAEXPAVioBaseChar@@@Z ; ioParkilpyoJump::ChangeToGathering

; 786  : 	}
; 787  : 	else

  0005b	eb 08		 jmp	 SHORT $LN8@ProcessCha@2
$LN3@ProcessCha@2:

; 788  : 		SetComboJumpAttack( pOwner );

  0005d	57		 push	 edi
  0005e	8b ce		 mov	 ecx, esi
  00060	e8 00 00 00 00	 call	 ?SetComboJumpAttack@ioParkilpyoJump@@IAEXPAVioBaseChar@@@Z ; ioParkilpyoJump::SetComboJumpAttack
$LN8@ProcessCha@2:
  00065	5b		 pop	 ebx
$LN4@ProcessCha@2:
  00066	5f		 pop	 edi
  00067	5e		 pop	 esi

; 789  : }

  00068	5d		 pop	 ebp
  00069	c2 04 00	 ret	 4
?ProcessCharging@ioParkilpyoJump@@IAEXPAVioBaseChar@@@Z ENDP ; ioParkilpyoJump::ProcessCharging
_TEXT	ENDS
PUBLIC	?ProcessGathering@ioParkilpyoJump@@IAEXPAVioBaseChar@@@Z ; ioParkilpyoJump::ProcessGathering
EXTRN	?IsEnableParkilpyoEquipObject@ioBaseChar@@QAE_NXZ:PROC ; ioBaseChar::IsEnableParkilpyoEquipObject
; Function compile flags: /Ogsp
;	COMDAT ?ProcessGathering@ioParkilpyoJump@@IAEXPAVioBaseChar@@@Z
_TEXT	SEGMENT
_pOwner$ = 8						; size = 4
?ProcessGathering@ioParkilpyoJump@@IAEXPAVioBaseChar@@@Z PROC ; ioParkilpyoJump::ProcessGathering, COMDAT
; _this$ = ecx

; 792  : {

  00000	55		 push	 ebp
  00001	8b ec		 mov	 ebp, esp
  00003	56		 push	 esi
  00004	57		 push	 edi

; 793  : 	if( !pOwner || !pOwner->IsNeedProcess() ) 

  00005	8b 7d 08	 mov	 edi, DWORD PTR _pOwner$[ebp]
  00008	8b f1		 mov	 esi, ecx
  0000a	85 ff		 test	 edi, edi
  0000c	74 63		 je	 SHORT $LN4@ProcessGat
  0000e	8b 07		 mov	 eax, DWORD PTR [edi]
  00010	8b cf		 mov	 ecx, edi
  00012	ff 90 00 01 00
	00		 call	 DWORD PTR [eax+256]
  00018	84 c0		 test	 al, al
  0001a	74 55		 je	 SHORT $LN4@ProcessGat

; 794  : 		return;
; 795  : 
; 796  : 	DWORD dwCurTime = FRAMEGETTIME();

  0001c	53		 push	 ebx
  0001d	ff 15 00 00 00
	00		 call	 DWORD PTR __imp_?GetSingleton@ioFrameTimer@@SAAAV1@XZ
  00023	8b c8		 mov	 ecx, eax
  00025	ff 15 00 00 00
	00		 call	 DWORD PTR __imp_?GetLoopSec@ioFrameTimer@@QBEKXZ

; 797  : 	if( pOwner->IsEnableParkilpyoEquipObject() && pOwner->IsAttackKeyDown() && !pOwner->IsHasCrown() )

  0002b	8b cf		 mov	 ecx, edi
  0002d	8b d8		 mov	 ebx, eax
  0002f	e8 00 00 00 00	 call	 ?IsEnableParkilpyoEquipObject@ioBaseChar@@QAE_NXZ ; ioBaseChar::IsEnableParkilpyoEquipObject
  00034	84 c0		 test	 al, al
  00036	74 30		 je	 SHORT $LN3@ProcessGat
  00038	8b cf		 mov	 ecx, edi
  0003a	e8 00 00 00 00	 call	 ?IsAttackKeyDown@ioBaseChar@@QBE_NXZ ; ioBaseChar::IsAttackKeyDown
  0003f	84 c0		 test	 al, al
  00041	74 25		 je	 SHORT $LN3@ProcessGat
  00043	8b cf		 mov	 ecx, edi
  00045	e8 00 00 00 00	 call	 ?IsHasCrown@ioBaseChar@@QBE_NXZ ; ioBaseChar::IsHasCrown
  0004a	84 c0		 test	 al, al
  0004c	75 1a		 jne	 SHORT $LN3@ProcessGat

; 798  : 	{
; 799  : 		if( m_dwGatherStartTime+m_dwGatherTime < dwCurTime )

  0004e	8b 86 f8 01 00
	00		 mov	 eax, DWORD PTR [esi+504]
  00054	03 86 38 01 00
	00		 add	 eax, DWORD PTR [esi+312]
  0005a	3b c3		 cmp	 eax, ebx
  0005c	73 12		 jae	 SHORT $LN8@ProcessGat

; 800  : 			ChangeToEquipObject( pOwner );

  0005e	57		 push	 edi
  0005f	8b ce		 mov	 ecx, esi
  00061	e8 00 00 00 00	 call	 ?ChangeToEquipObject@ioParkilpyoJump@@IAEXPAVioBaseChar@@@Z ; ioParkilpyoJump::ChangeToEquipObject

; 801  : 	}
; 802  : 	else

  00066	eb 08		 jmp	 SHORT $LN8@ProcessGat
$LN3@ProcessGat:

; 803  : 		ChangeToChargeAttack( pOwner );

  00068	57		 push	 edi
  00069	8b ce		 mov	 ecx, esi
  0006b	e8 00 00 00 00	 call	 ?ChangeToChargeAttack@ioParkilpyoJump@@IAEXPAVioBaseChar@@@Z ; ioParkilpyoJump::ChangeToChargeAttack
$LN8@ProcessGat:
  00070	5b		 pop	 ebx
$LN4@ProcessGat:
  00071	5f		 pop	 edi
  00072	5e		 pop	 esi

; 804  : }

  00073	5d		 pop	 ebp
  00074	c2 04 00	 ret	 4
?ProcessGathering@ioParkilpyoJump@@IAEXPAVioBaseChar@@@Z ENDP ; ioParkilpyoJump::ProcessGathering
_TEXT	ENDS
PUBLIC	?IsCanDoubleJump@ioParkilpyoJump@@IAE_NPAVioBaseChar@@M@Z ; ioParkilpyoJump::IsCanDoubleJump
EXTRN	?IsBuffLimitExtendJump@ioBaseChar@@QBE_NXZ:PROC	; ioBaseChar::IsBuffLimitExtendJump
EXTRN	?HasBuff@ioBaseChar@@QBE_NH@Z:PROC		; ioBaseChar::HasBuff
EXTRN	?IsJumpKeyPress@ioBaseChar@@QBE_NXZ:PROC	; ioBaseChar::IsJumpKeyPress
; Function compile flags: /Ogsp
;	COMDAT ?IsCanDoubleJump@ioParkilpyoJump@@IAE_NPAVioBaseChar@@M@Z
_TEXT	SEGMENT
_pOwner$ = 8						; size = 4
_value$598895 = 11					; size = 1
_fHeightGap$ = 12					; size = 4
?IsCanDoubleJump@ioParkilpyoJump@@IAE_NPAVioBaseChar@@M@Z PROC ; ioParkilpyoJump::IsCanDoubleJump, COMDAT
; _this$ = ecx

; 879  : {

  00000	55		 push	 ebp
  00001	8b ec		 mov	 ebp, esp
  00003	53		 push	 ebx
  00004	56		 push	 esi

; 880  : 	if( !pOwner || !pOwner->IsNeedProcess() ) 

  00005	8b 75 08	 mov	 esi, DWORD PTR _pOwner$[ebp]
  00008	33 db		 xor	 ebx, ebx
  0000a	57		 push	 edi
  0000b	8b f9		 mov	 edi, ecx
  0000d	3b f3		 cmp	 esi, ebx
  0000f	0f 84 fc 00 00
	00		 je	 $LN14@IsCanDoubl
  00015	8b 06		 mov	 eax, DWORD PTR [esi]
  00017	8b ce		 mov	 ecx, esi
  00019	ff 90 00 01 00
	00		 call	 DWORD PTR [eax+256]
  0001f	84 c0		 test	 al, al
  00021	0f 84 ea 00 00
	00		 je	 $LN14@IsCanDoubl

; 882  : 	
; 883  : 	if( !pOwner->IsJumpKeyPress() ||
; 884  : 		pOwner->IsHasCrown() ||
; 885  : 		pOwner->IsCatchMode() ||
; 886  : 		pOwner->IsPrisonerMode() ||
; 887  : 		(pOwner->GetUsedBuffJump() != BJUT_NONE) ||
; 888  : 		(pOwner->GetUsedBuffMultiFlyJump() != BJUT_NONE) ||
; 889  : 		(pOwner->GetUsedBuffFlyJump() != BJUT_NONE) )

  00027	8b ce		 mov	 ecx, esi
  00029	e8 00 00 00 00	 call	 ?IsJumpKeyPress@ioBaseChar@@QBE_NXZ ; ioBaseChar::IsJumpKeyPress
  0002e	84 c0		 test	 al, al
  00030	0f 84 db 00 00
	00		 je	 $LN14@IsCanDoubl
  00036	8b ce		 mov	 ecx, esi
  00038	e8 00 00 00 00	 call	 ?IsHasCrown@ioBaseChar@@QBE_NXZ ; ioBaseChar::IsHasCrown
  0003d	84 c0		 test	 al, al
  0003f	0f 85 cc 00 00
	00		 jne	 $LN14@IsCanDoubl
  00045	38 9e 78 23 00
	00		 cmp	 BYTE PTR [esi+9080], bl
  0004b	0f 85 c0 00 00
	00		 jne	 $LN14@IsCanDoubl
  00051	8d 45 0b	 lea	 eax, DWORD PTR _value$598895[ebp]
  00054	50		 push	 eax
  00055	8d 8e cc 14 00
	00		 lea	 ecx, DWORD PTR [esi+5324]
  0005b	e8 00 00 00 00	 call	 ?DecryptValueToPool@?$CEncrypt@_N@@QAEXPA_N@Z ; CEncrypt<bool>::DecryptValueToPool
  00060	38 5d 0b	 cmp	 BYTE PTR _value$598895[ebp], bl
  00063	0f 85 a8 00 00
	00		 jne	 $LN14@IsCanDoubl
  00069	39 9e ac 0e 00
	00		 cmp	 DWORD PTR [esi+3756], ebx
  0006f	0f 85 9c 00 00
	00		 jne	 $LN14@IsCanDoubl
  00075	39 9e b4 0e 00
	00		 cmp	 DWORD PTR [esi+3764], ebx
  0007b	0f 85 90 00 00
	00		 jne	 $LN14@IsCanDoubl
  00081	39 9e b0 0e 00
	00		 cmp	 DWORD PTR [esi+3760], ebx
  00087	0f 85 84 00 00
	00		 jne	 $LN14@IsCanDoubl

; 890  : 		return false;
; 891  : 
; 892  : 	if( pOwner->HasBuff( BT_BUFF_FLY_JUMP ) || pOwner->HasBuff( BT_BUFF_FLY_JUMP2 ) )

  0008d	6a 3b		 push	 59			; 0000003bH
  0008f	8b ce		 mov	 ecx, esi
  00091	e8 00 00 00 00	 call	 ?HasBuff@ioBaseChar@@QBE_NH@Z ; ioBaseChar::HasBuff
  00096	84 c0		 test	 al, al
  00098	75 77		 jne	 SHORT $LN14@IsCanDoubl
  0009a	68 98 00 00 00	 push	 152			; 00000098H
  0009f	8b ce		 mov	 ecx, esi
  000a1	e8 00 00 00 00	 call	 ?HasBuff@ioBaseChar@@QBE_NH@Z ; ioBaseChar::HasBuff
  000a6	84 c0		 test	 al, al
  000a8	75 67		 jne	 SHORT $LN14@IsCanDoubl

; 894  : 
; 895  : 	if( pOwner->IsBuffLimitExtendJump() )

  000aa	8b ce		 mov	 ecx, esi
  000ac	e8 00 00 00 00	 call	 ?IsBuffLimitExtendJump@ioBaseChar@@QBE_NXZ ; ioBaseChar::IsBuffLimitExtendJump
  000b1	84 c0		 test	 al, al

; 896  : 		return false;

  000b3	75 5c		 jne	 SHORT $LN14@IsCanDoubl

; 897  : 
; 898  : 	if( m_nCurJumpCnt >= m_nMaxJumpCnt )

  000b5	8b 87 0c 02 00
	00		 mov	 eax, DWORD PTR [edi+524]
  000bb	3b 87 68 01 00
	00		 cmp	 eax, DWORD PTR [edi+360]

; 899  : 		return false;

  000c1	7d 4e		 jge	 SHORT $LN14@IsCanDoubl

; 900  : 
; 901  : 	switch( m_ChargeComboState )

  000c3	8b 87 f0 01 00
	00		 mov	 eax, DWORD PTR [edi+496]
  000c9	3b c3		 cmp	 eax, ebx
  000cb	74 05		 je	 SHORT $LN5@IsCanDoubl
  000cd	83 f8 06	 cmp	 eax, 6

; 902  : 	{
; 903  : 	case CCS_NONE:
; 904  : 	case CCS_DOUBLE:
; 905  : 		break;
; 906  : 	default:
; 907  : 		return false;

  000d0	75 3f		 jne	 SHORT $LN14@IsCanDoubl
$LN5@IsCanDoubl:

; 908  : 	}
; 909  : 
; 910  : 	DWORD dwMoveStartTime = pOwner->GetJumpMoveStartTime();

  000d2	8b b6 80 0e 00
	00		 mov	 esi, DWORD PTR [esi+3712]

; 911  : 	if( dwMoveStartTime == 0 ) 

  000d8	3b f3		 cmp	 esi, ebx

; 912  : 		return false;

  000da	74 35		 je	 SHORT $LN14@IsCanDoubl

; 913  : 
; 914  : 	if( FRAMEGETTIME() - dwMoveStartTime < m_dwDoubleJumpEnableTime )

  000dc	ff 15 00 00 00
	00		 call	 DWORD PTR __imp_?GetSingleton@ioFrameTimer@@SAAAV1@XZ
  000e2	8b c8		 mov	 ecx, eax
  000e4	ff 15 00 00 00
	00		 call	 DWORD PTR __imp_?GetLoopSec@ioFrameTimer@@QBEKXZ
  000ea	2b c6		 sub	 eax, esi
  000ec	3b 87 78 01 00
	00		 cmp	 eax, DWORD PTR [edi+376]

; 915  : 		return false;

  000f2	72 1d		 jb	 SHORT $LN14@IsCanDoubl

; 916  : 
; 917  : 	if( fHeightGap < m_fDoubleJumpEnableHeight )

  000f4	f3 0f 10 45 0c	 movss	 xmm0, DWORD PTR _fHeightGap$[ebp]
  000f9	f3 0f 10 8f 74
	01 00 00	 movss	 xmm1, DWORD PTR [edi+372]
  00101	0f 5a c0	 cvtps2pd xmm0, xmm0
  00104	0f 5a c9	 cvtps2pd xmm1, xmm1
  00107	66 0f 2f c8	 comisd	 xmm1, xmm0

; 918  : 		return false;

  0010b	77 04		 ja	 SHORT $LN14@IsCanDoubl

; 919  : 
; 920  : 	return true;

  0010d	b0 01		 mov	 al, 1

; 893  : 		return false;

  0010f	eb 02		 jmp	 SHORT $LN16@IsCanDoubl
$LN14@IsCanDoubl:

; 881  : 		return false;

  00111	32 c0		 xor	 al, al
$LN16@IsCanDoubl:
  00113	5f		 pop	 edi
  00114	5e		 pop	 esi
  00115	5b		 pop	 ebx

; 921  : }

  00116	5d		 pop	 ebp
  00117	c2 08 00	 ret	 8
?IsCanDoubleJump@ioParkilpyoJump@@IAE_NPAVioBaseChar@@M@Z ENDP ; ioParkilpyoJump::IsCanDoubleJump
_TEXT	ENDS
PUBLIC	__real@3f000000
PUBLIC	__real@4056800000000000
PUBLIC	_pOwner$GSCopy$
PUBLIC	__$ArrayPad$
PUBLIC	?SetDoubleJumpAni@ioParkilpyoJump@@IAEXPAVioBaseChar@@@Z ; ioParkilpyoJump::SetDoubleJumpAni
EXTRN	__imp_?SetActionAni@ioEntityGroup@@QAE_NABVioHashString@@MMMMMM_N1@Z:PROC
EXTRN	__imp_?IsEmpty@ioHashString@@QBE_NXZ:PROC
;	COMDAT __real@3f000000
; File c:\program files (x86)\microsoft visual studio 10.0\vc\include\vector
CONST	SEGMENT
__real@3f000000 DD 03f000000r			; 0.5
CONST	ENDS
;	COMDAT __real@4056800000000000
CONST	SEGMENT
__real@4056800000000000 DQ 04056800000000000r	; 90
; Function compile flags: /Ogsp
; File d:\lost saga for developer\youtube\tutorial\source\src\lsclient\ioparkilpyojump.cpp
CONST	ENDS
;	COMDAT ?SetDoubleJumpAni@ioParkilpyoJump@@IAEXPAVioBaseChar@@@Z
_TEXT	SEGMENT
_qtTargetRot$ = -60					; size = 16
_fRate$ = -44						; size = 4
_pGrp$ = -40						; size = 4
tv578 = -36						; size = 4
tv510 = -36						; size = 4
_fTargetYaw$ = -36					; size = 4
tv575 = -32						; size = 4
_pOwner$GSCopy$ = -32					; size = 4
_iIndex2$ = -32						; size = 4
_fCurYaw$ = -32						; size = 4
$T590950 = -28						; size = 12
_vSightDir$ = -28					; size = 12
_vXZDir$ = -16						; size = 12
__$ArrayPad$ = -4					; size = 4
_pOwner$ = 8						; size = 4
?SetDoubleJumpAni@ioParkilpyoJump@@IAEXPAVioBaseChar@@@Z PROC ; ioParkilpyoJump::SetDoubleJumpAni, COMDAT
; _this$ = ecx

; 924  : {

  00000	55		 push	 ebp
  00001	8b ec		 mov	 ebp, esp
  00003	83 ec 3c	 sub	 esp, 60			; 0000003cH
  00006	a1 00 00 00 00	 mov	 eax, DWORD PTR ___security_cookie
  0000b	33 c5		 xor	 eax, ebp
  0000d	89 45 fc	 mov	 DWORD PTR __$ArrayPad$[ebp], eax
  00010	8b 45 08	 mov	 eax, DWORD PTR _pOwner$[ebp]
  00013	53		 push	 ebx
  00014	8b d9		 mov	 ebx, ecx

; 978  : 		{
; 979  : 			int iAniID = pOwner->GetJumppingAnimationIdx();
; 980  : 			pGrp->SetActionAni( iAniID, 100.0f, 100.0f, 1.0f, 1.0f/m_fDoubleJumpAniRate, 0.0f, 0, true );
; 981  : 		}
; 982  : 	}
; 983  : 	else
; 984  : 	{
; 985  : 		int iAniID = pOwner->GetJumppingAnimationIdx();

  00016	89 45 e0	 mov	 DWORD PTR _pOwner$GSCopy$[ebp], eax
  00019	85 c0		 test	 eax, eax
  0001b	0f 84 92 03 00
	00		 je	 $LN1@SetDoubleJ

; 925  : 	if( !pOwner ) 
; 926  : 		return;
; 927  : 
; 928  : 	ioEntityGroup *pGrp = pOwner->GetGroup();
; 929  : 	D3DXVECTOR3 vSightDir = pOwner->GetMoveDir();

  00021	8b 48 04	 mov	 ecx, DWORD PTR [eax+4]
  00024	56		 push	 esi
  00025	57		 push	 edi
  00026	8d b0 b4 06 00
	00		 lea	 esi, DWORD PTR [eax+1716]
  0002c	8d 7d e4	 lea	 edi, DWORD PTR _vSightDir$[ebp]
  0002f	a5		 movsd
  00030	a5		 movsd
  00031	a5		 movsd

; 930  : 
; 931  : 	D3DXVECTOR3 vXZDir( vSightDir.x, 0.0f, vSightDir.z );

  00032	f3 0f 10 45 e4	 movss	 xmm0, DWORD PTR _vSightDir$[ebp]

; 932  : 	D3DXVec3Normalize( &vXZDir, &vXZDir );

  00037	8d 45 f0	 lea	 eax, DWORD PTR _vXZDir$[ebp]
  0003a	f3 0f 11 45 f0	 movss	 DWORD PTR _vXZDir$[ebp], xmm0
  0003f	0f 57 c0	 xorps	 xmm0, xmm0
  00042	50		 push	 eax
  00043	f3 0f 11 45 f4	 movss	 DWORD PTR _vXZDir$[ebp+4], xmm0
  00048	f3 0f 10 45 ec	 movss	 xmm0, DWORD PTR _vSightDir$[ebp+8]
  0004d	50		 push	 eax
  0004e	89 4d d8	 mov	 DWORD PTR _pGrp$[ebp], ecx
  00051	f3 0f 11 45 f8	 movss	 DWORD PTR _vXZDir$[ebp+8], xmm0
  00056	e8 00 00 00 00	 call	 _D3DXVec3Normalize@8

; 933  : 
; 934  : 	D3DXQUATERNION qtTargetRot;
; 935  : 	ioMath::CalcDirectionQuaternion( qtTargetRot, -vXZDir );

  0005b	f3 0f 10 05 00
	00 00 00	 movss	 xmm0, DWORD PTR __mask@@NegFloat@
  00063	f3 0f 10 4d f0	 movss	 xmm1, DWORD PTR _vXZDir$[ebp]
  00068	0f 57 c8	 xorps	 xmm1, xmm0
  0006b	f3 0f 11 4d e4	 movss	 DWORD PTR $T590950[ebp], xmm1
  00070	f3 0f 10 4d f4	 movss	 xmm1, DWORD PTR _vXZDir$[ebp+4]
  00075	0f 57 c8	 xorps	 xmm1, xmm0
  00078	8d 45 e4	 lea	 eax, DWORD PTR $T590950[ebp]
  0007b	50		 push	 eax
  0007c	f3 0f 11 4d e8	 movss	 DWORD PTR $T590950[ebp+4], xmm1
  00081	f3 0f 10 4d f8	 movss	 xmm1, DWORD PTR _vXZDir$[ebp+8]
  00086	8d 45 c4	 lea	 eax, DWORD PTR _qtTargetRot$[ebp]
  00089	0f 57 c8	 xorps	 xmm1, xmm0
  0008c	50		 push	 eax
  0008d	f3 0f 11 4d ec	 movss	 DWORD PTR $T590950[ebp+8], xmm1
  00092	ff 15 00 00 00
	00		 call	 DWORD PTR __imp_?CalcDirectionQuaternion@ioMath@@SAXAAUD3DXQUATERNION@@ABUD3DXVECTOR3@@@Z

; 936  : 
; 937  : 	float fCurYaw, fTargetYaw;
; 938  : 	fTargetYaw = RADtoDEG( ioMath::QuaterToYaw( qtTargetRot ) );

  00098	8d 45 c4	 lea	 eax, DWORD PTR _qtTargetRot$[ebp]
  0009b	50		 push	 eax
  0009c	ff 15 00 00 00
	00		 call	 DWORD PTR __imp_?QuaterToYaw@ioMath@@SAMABUD3DXQUATERNION@@@Z
  000a2	59		 pop	 ecx
  000a3	59		 pop	 ecx
  000a4	d9 1c 24	 fstp	 DWORD PTR [esp]
  000a7	e8 00 00 00 00	 call	 ??$RADtoDEG@M@@YAMM@Z	; RADtoDEG<float>
  000ac	d9 5d dc	 fstp	 DWORD PTR _fTargetYaw$[ebp]

; 939  : 	fTargetYaw = ioMath::ArrangeHead( fTargetYaw );

  000af	f3 0f 10 45 dc	 movss	 xmm0, DWORD PTR _fTargetYaw$[ebp]
  000b4	f3 0f 11 04 24	 movss	 DWORD PTR [esp], xmm0
  000b9	ff 15 00 00 00
	00		 call	 DWORD PTR __imp_?ArrangeHead@ioMath@@SAMM@Z
  000bf	d9 5d dc	 fstp	 DWORD PTR _fTargetYaw$[ebp]

; 940  : 	fCurYaw = RADtoDEG( ioMath::QuaterToYaw( pOwner->GetTargetRot() ) );

  000c2	8b 7d e0	 mov	 edi, DWORD PTR _pOwner$GSCopy$[ebp]
  000c5	8d 87 a4 06 00
	00		 lea	 eax, DWORD PTR [edi+1700]
  000cb	50		 push	 eax
  000cc	ff 15 00 00 00
	00		 call	 DWORD PTR __imp_?QuaterToYaw@ioMath@@SAMABUD3DXQUATERNION@@@Z
  000d2	59		 pop	 ecx
  000d3	d9 1c 24	 fstp	 DWORD PTR [esp]
  000d6	e8 00 00 00 00	 call	 ??$RADtoDEG@M@@YAMM@Z	; RADtoDEG<float>
  000db	d9 5d e0	 fstp	 DWORD PTR _fCurYaw$[ebp]

; 941  : 	fCurYaw = ioMath::ArrangeHead( fCurYaw );

  000de	f3 0f 10 45 e0	 movss	 xmm0, DWORD PTR _fCurYaw$[ebp]
  000e3	f3 0f 11 04 24	 movss	 DWORD PTR [esp], xmm0
  000e8	ff 15 00 00 00
	00		 call	 DWORD PTR __imp_?ArrangeHead@ioMath@@SAMM@Z
  000ee	d9 5d e0	 fstp	 DWORD PTR _fCurYaw$[ebp]

; 942  : 
; 943  : 	float fAngleGap = ioMath::AngleGap( fCurYaw, fTargetYaw );

  000f1	f3 0f 10 45 dc	 movss	 xmm0, DWORD PTR _fTargetYaw$[ebp]
  000f6	f3 0f 11 04 24	 movss	 DWORD PTR [esp], xmm0
  000fb	f3 0f 10 45 e0	 movss	 xmm0, DWORD PTR _fCurYaw$[ebp]
  00100	51		 push	 ecx
  00101	f3 0f 11 04 24	 movss	 DWORD PTR [esp], xmm0
  00106	ff 15 00 00 00
	00		 call	 DWORD PTR __imp_?AngleGap@ioMath@@SAMMM@Z

; 944  : 	fAngleGap += 360.0f;

  0010c	dc 05 00 00 00
	00		 fadd	 QWORD PTR __real@4076800000000000
  00112	59		 pop	 ecx
  00113	59		 pop	 ecx

; 945  : 	int iTest = (int)fAngleGap % 360;

  00114	d9 5d e0	 fstp	 DWORD PTR tv575[ebp]
  00117	d9 45 e0	 fld	 DWORD PTR tv575[ebp]
  0011a	e8 00 00 00 00	 call	 __ftol2_sse
  0011f	99		 cdq
  00120	b9 68 01 00 00	 mov	 ecx, 360		; 00000168H
  00125	f7 f9		 idiv	 ecx

; 946  : 
; 947  : 	pGrp->ClearAllActionAni( 100.0f, true );

  00127	f3 0f 10 05 00
	00 00 00	 movss	 xmm0, DWORD PTR __real@42c80000
  0012f	6a 01		 push	 1
  00131	51		 push	 ecx
  00132	8b 4d d8	 mov	 ecx, DWORD PTR _pGrp$[ebp]
  00135	f3 0f 11 04 24	 movss	 DWORD PTR [esp], xmm0
  0013a	8b f2		 mov	 esi, edx
  0013c	ff 15 00 00 00
	00		 call	 DWORD PTR __imp_?ClearAllActionAni@ioEntityGroup@@QAEXM_N@Z

; 948  : 	pGrp->ClearAllLoopAni( 100.0f, true );

  00142	6a 01		 push	 1
  00144	f3 0f 10 05 00
	00 00 00	 movss	 xmm0, DWORD PTR __real@42c80000
  0014c	51		 push	 ecx
  0014d	8b 4d d8	 mov	 ecx, DWORD PTR _pGrp$[ebp]
  00150	f3 0f 11 04 24	 movss	 DWORD PTR [esp], xmm0
  00155	ff 15 00 00 00
	00		 call	 DWORD PTR __imp_?ClearAllLoopAni@ioEntityGroup@@QAEXM_N@Z

; 949  : 
; 950  : 	float fRate = 0.0f;
; 951  : 	int iIndex = -1;
; 952  : 	int iIndex2 = -1;
; 953  : 	iIndex = iTest / 90;

  0015b	8b c6		 mov	 eax, esi
  0015d	6a 5a		 push	 90			; 0000005aH
  0015f	99		 cdq
  00160	59		 pop	 ecx
  00161	f7 f9		 idiv	 ecx

; 954  : 	iTest = iTest % 90;
; 955  : 
; 956  : 	int iCnt = m_vDoubleJumpAniList.size();

  00163	8b b3 7c 01 00
	00		 mov	 esi, DWORD PTR [ebx+380]
  00169	8b 8b 80 01 00
	00		 mov	 ecx, DWORD PTR [ebx+384]
  0016f	2b ce		 sub	 ecx, esi
  00171	c1 f9 04	 sar	 ecx, 4
  00174	89 45 dc	 mov	 DWORD PTR tv510[ebp], eax

; 957  : 	if( COMPARE( iIndex, 0, iCnt ) )

  00177	85 c0		 test	 eax, eax
  00179	0f 88 c4 01 00
	00		 js	 $LN10@SetDoubleJ
  0017f	3b c1		 cmp	 eax, ecx
  00181	0f 8d bc 01 00
	00		 jge	 $LN10@SetDoubleJ

; 958  : 	{
; 959  : 		fRate = (float)iTest / 90.0f;

  00187	0f 57 c0	 xorps	 xmm0, xmm0
  0018a	f3 0f 2a c2	 cvtsi2ss xmm0, edx

; 960  : 		iIndex2 = (iIndex+1) % iCnt;

  0018e	40		 inc	 eax
  0018f	99		 cdq
  00190	f7 f9		 idiv	 ecx

; 961  : 
; 962  : 		if( !m_vDoubleJumpAniList[iIndex].IsEmpty() && !m_vDoubleJumpAniList[iIndex2].IsEmpty() )

  00192	8b 45 dc	 mov	 eax, DWORD PTR tv510[ebp]
  00195	0f 5a c0	 cvtps2pd xmm0, xmm0
  00198	f2 0f 5e 05 00
	00 00 00	 divsd	 xmm0, QWORD PTR __real@4056800000000000
  001a0	c1 e0 04	 shl	 eax, 4
  001a3	66 0f 5a c0	 cvtpd2ps xmm0, xmm0
  001a7	8d 0c 06	 lea	 ecx, DWORD PTR [esi+eax]
  001aa	f3 0f 11 45 d4	 movss	 DWORD PTR _fRate$[ebp], xmm0
  001af	89 45 dc	 mov	 DWORD PTR tv578[ebp], eax
  001b2	89 55 e0	 mov	 DWORD PTR _iIndex2$[ebp], edx
  001b5	ff 15 00 00 00
	00		 call	 DWORD PTR __imp_?IsEmpty@ioHashString@@QBE_NXZ
  001bb	84 c0		 test	 al, al
  001bd	0f 85 ae 00 00
	00		 jne	 $LN50@SetDoubleJ
  001c3	8b 75 e0	 mov	 esi, DWORD PTR _iIndex2$[ebp]
  001c6	8b 8b 7c 01 00
	00		 mov	 ecx, DWORD PTR [ebx+380]
  001cc	c1 e6 04	 shl	 esi, 4
  001cf	03 ce		 add	 ecx, esi
  001d1	ff 15 00 00 00
	00		 call	 DWORD PTR __imp_?IsEmpty@ioHashString@@QBE_NXZ
  001d7	84 c0		 test	 al, al
  001d9	0f 85 92 00 00
	00		 jne	 $LN50@SetDoubleJ

; 963  : 		{
; 964  : 			if( fRate <= 0.5f )

  001df	f3 0f 10 05 00
	00 00 00	 movss	 xmm0, DWORD PTR __real@3f000000
  001e7	f3 0f 10 4d d4	 movss	 xmm1, DWORD PTR _fRate$[ebp]

; 965  : 				pGrp->SetActionAni( m_vDoubleJumpAniList[iIndex], 100.0f, 100.0f, (1.0f - fRate), 1.0f/m_fDoubleJumpAniRate, 0.0f, 0, true );

  001ec	8b 83 7c 01 00
	00		 mov	 eax, DWORD PTR [ebx+380]
  001f2	8b 4d d8	 mov	 ecx, DWORD PTR _pGrp$[ebp]
  001f5	6a 01		 push	 1
  001f7	6a 01		 push	 1
  001f9	83 ec 18	 sub	 esp, 24			; 00000018H
  001fc	0f 2f c1	 comiss	 xmm0, xmm1
  001ff	0f 57 c0	 xorps	 xmm0, xmm0
  00202	f3 0f 11 44 24
	14		 movss	 DWORD PTR [esp+20], xmm0
  00208	f3 0f 11 44 24
	10		 movss	 DWORD PTR [esp+16], xmm0
  0020e	f3 0f 10 83 8c
	01 00 00	 movss	 xmm0, DWORD PTR [ebx+396]
  00216	72 33		 jb	 SHORT $LN8@SetDoubleJ
  00218	03 45 dc	 add	 eax, DWORD PTR tv578[ebp]
  0021b	0f 5a d0	 cvtps2pd xmm2, xmm0
  0021e	f2 0f 10 05 00
	00 00 00	 movsd	 xmm0, QWORD PTR __real@3ff0000000000000
  00226	66 0f 28 d8	 movapd	 xmm3, xmm0
  0022a	f2 0f 5e da	 divsd	 xmm3, xmm2
  0022e	0f 57 d2	 xorps	 xmm2, xmm2
  00231	0f 5a c9	 cvtps2pd xmm1, xmm1
  00234	f2 0f 5a d3	 cvtsd2ss xmm2, xmm3
  00238	f2 0f 5c c1	 subsd	 xmm0, xmm1
  0023c	f3 0f 11 54 24
	0c		 movss	 DWORD PTR [esp+12], xmm2
  00242	66 0f 5a c0	 cvtpd2ps xmm0, xmm0

; 966  : 			else

  00246	e9 d6 00 00 00	 jmp	 $LN58@SetDoubleJ
$LN8@SetDoubleJ:

; 967  : 				pGrp->SetActionAni( m_vDoubleJumpAniList[iIndex2], 100.0f, 100.0f, fRate, 1.0f/m_fDoubleJumpAniRate, 0.0f, 0, true );

  0024b	f2 0f 10 15 00
	00 00 00	 movsd	 xmm2, QWORD PTR __real@3ff0000000000000
  00253	0f 5a c0	 cvtps2pd xmm0, xmm0
  00256	f2 0f 5e d0	 divsd	 xmm2, xmm0
  0025a	03 c6		 add	 eax, esi
  0025c	66 0f 5a c2	 cvtpd2ps xmm0, xmm2
  00260	f3 0f 11 44 24
	0c		 movss	 DWORD PTR [esp+12], xmm0
  00266	f3 0f 11 4c 24
	08		 movss	 DWORD PTR [esp+8], xmm1
  0026c	e9 b6 00 00 00	 jmp	 $LN59@SetDoubleJ
$LN50@SetDoubleJ:

; 968  : 		}
; 969  : 		else if( !m_vDoubleJumpAniList[iIndex].IsEmpty() && m_vDoubleJumpAniList[iIndex2].IsEmpty() )

  00271	8b 8b 7c 01 00
	00		 mov	 ecx, DWORD PTR [ebx+380]
  00277	03 4d dc	 add	 ecx, DWORD PTR tv578[ebp]
  0027a	ff 15 00 00 00
	00		 call	 DWORD PTR __imp_?IsEmpty@ioHashString@@QBE_NXZ
  00280	84 c0		 test	 al, al
  00282	75 28		 jne	 SHORT $LN51@SetDoubleJ
  00284	8b 4d e0	 mov	 ecx, DWORD PTR _iIndex2$[ebp]
  00287	c1 e1 04	 shl	 ecx, 4
  0028a	03 8b 7c 01 00
	00		 add	 ecx, DWORD PTR [ebx+380]
  00290	ff 15 00 00 00
	00		 call	 DWORD PTR __imp_?IsEmpty@ioHashString@@QBE_NXZ
  00296	84 c0		 test	 al, al
  00298	74 12		 je	 SHORT $LN51@SetDoubleJ

; 970  : 		{
; 971  : 			pGrp->SetActionAni( m_vDoubleJumpAniList[iIndex], 100.0f, 100.0f, 1.0f, 1.0f/m_fDoubleJumpAniRate, 0.0f, 0, true );

  0029a	8b 83 7c 01 00
	00		 mov	 eax, DWORD PTR [ebx+380]
  002a0	6a 01		 push	 1
  002a2	6a 01		 push	 1
  002a4	83 ec 18	 sub	 esp, 24			; 00000018H
  002a7	03 45 dc	 add	 eax, DWORD PTR tv578[ebp]
  002aa	eb 3a		 jmp	 SHORT $LN57@SetDoubleJ
$LN51@SetDoubleJ:

; 972  : 		}
; 973  : 		else if( !m_vDoubleJumpAniList[iIndex2].IsEmpty() && m_vDoubleJumpAniList[iIndex].IsEmpty() )

  002ac	8b 75 e0	 mov	 esi, DWORD PTR _iIndex2$[ebp]
  002af	8b 8b 7c 01 00
	00		 mov	 ecx, DWORD PTR [ebx+380]
  002b5	c1 e6 04	 shl	 esi, 4
  002b8	03 ce		 add	 ecx, esi
  002ba	ff 15 00 00 00
	00		 call	 DWORD PTR __imp_?IsEmpty@ioHashString@@QBE_NXZ
  002c0	84 c0		 test	 al, al
  002c2	75 7f		 jne	 SHORT $LN10@SetDoubleJ
  002c4	8b 8b 7c 01 00
	00		 mov	 ecx, DWORD PTR [ebx+380]
  002ca	03 4d dc	 add	 ecx, DWORD PTR tv578[ebp]
  002cd	ff 15 00 00 00
	00		 call	 DWORD PTR __imp_?IsEmpty@ioHashString@@QBE_NXZ
  002d3	84 c0		 test	 al, al
  002d5	74 6c		 je	 SHORT $LN10@SetDoubleJ

; 974  : 		{
; 975  : 			pGrp->SetActionAni( m_vDoubleJumpAniList[iIndex2], 100.0f, 100.0f, 1.0f, 1.0f/m_fDoubleJumpAniRate, 0.0f, 0, true );

  002d7	8b 83 7c 01 00
	00		 mov	 eax, DWORD PTR [ebx+380]
  002dd	6a 01		 push	 1
  002df	6a 01		 push	 1
  002e1	83 ec 18	 sub	 esp, 24			; 00000018H
  002e4	03 c6		 add	 eax, esi
$LN57@SetDoubleJ:
  002e6	0f 57 c0	 xorps	 xmm0, xmm0
  002e9	f2 0f 10 0d 00
	00 00 00	 movsd	 xmm1, QWORD PTR __real@3ff0000000000000
  002f1	8b 4d d8	 mov	 ecx, DWORD PTR _pGrp$[ebp]
  002f4	f3 0f 11 44 24
	14		 movss	 DWORD PTR [esp+20], xmm0
  002fa	f3 0f 11 44 24
	10		 movss	 DWORD PTR [esp+16], xmm0
  00300	f3 0f 10 83 8c
	01 00 00	 movss	 xmm0, DWORD PTR [ebx+396]
  00308	0f 5a c0	 cvtps2pd xmm0, xmm0
  0030b	f2 0f 5e c8	 divsd	 xmm1, xmm0
  0030f	66 0f 5a c1	 cvtpd2ps xmm0, xmm1
  00313	f3 0f 11 44 24
	0c		 movss	 DWORD PTR [esp+12], xmm0
  00319	f3 0f 10 05 00
	00 00 00	 movss	 xmm0, DWORD PTR __real@3f800000
$LN58@SetDoubleJ:
  00321	f3 0f 11 44 24
	08		 movss	 DWORD PTR [esp+8], xmm0
$LN59@SetDoubleJ:
  00327	f3 0f 10 05 00
	00 00 00	 movss	 xmm0, DWORD PTR __real@42c80000
  0032f	f3 0f 11 44 24
	04		 movss	 DWORD PTR [esp+4], xmm0
  00335	f3 0f 11 04 24	 movss	 DWORD PTR [esp], xmm0
  0033a	50		 push	 eax
  0033b	ff 15 00 00 00
	00		 call	 DWORD PTR __imp_?SetActionAni@ioEntityGroup@@QAE_NABVioHashString@@MMMMMM_N1@Z

; 976  : 		}
; 977  : 		else

  00341	eb 6e		 jmp	 SHORT $LN52@SetDoubleJ
$LN10@SetDoubleJ:

; 978  : 		{
; 979  : 			int iAniID = pOwner->GetJumppingAnimationIdx();
; 980  : 			pGrp->SetActionAni( iAniID, 100.0f, 100.0f, 1.0f, 1.0f/m_fDoubleJumpAniRate, 0.0f, 0, true );
; 981  : 		}
; 982  : 	}
; 983  : 	else
; 984  : 	{
; 985  : 		int iAniID = pOwner->GetJumppingAnimationIdx();

  00343	8b 07		 mov	 eax, DWORD PTR [edi]
  00345	6a 00		 push	 0
  00347	8b cf		 mov	 ecx, edi
  00349	ff 90 6c 01 00
	00		 call	 DWORD PTR [eax+364]

; 986  : 		pGrp->SetActionAni( iAniID, 100.0f, 100.0f, 1.0f, 1.0f/m_fDoubleJumpAniRate, 0.0f, 0, true );

  0034f	0f 57 c0	 xorps	 xmm0, xmm0
  00352	f2 0f 10 0d 00
	00 00 00	 movsd	 xmm1, QWORD PTR __real@3ff0000000000000
  0035a	8b 4d d8	 mov	 ecx, DWORD PTR _pGrp$[ebp]
  0035d	6a 01		 push	 1
  0035f	6a 01		 push	 1
  00361	83 ec 18	 sub	 esp, 24			; 00000018H
  00364	f3 0f 11 44 24
	14		 movss	 DWORD PTR [esp+20], xmm0
  0036a	f3 0f 11 44 24
	10		 movss	 DWORD PTR [esp+16], xmm0
  00370	f3 0f 10 83 8c
	01 00 00	 movss	 xmm0, DWORD PTR [ebx+396]
  00378	0f 5a c0	 cvtps2pd xmm0, xmm0
  0037b	f2 0f 5e c8	 divsd	 xmm1, xmm0
  0037f	66 0f 5a c1	 cvtpd2ps xmm0, xmm1
  00383	f3 0f 11 44 24
	0c		 movss	 DWORD PTR [esp+12], xmm0
  00389	f3 0f 10 05 00
	00 00 00	 movss	 xmm0, DWORD PTR __real@3f800000
  00391	f3 0f 11 44 24
	08		 movss	 DWORD PTR [esp+8], xmm0
  00397	f3 0f 10 05 00
	00 00 00	 movss	 xmm0, DWORD PTR __real@42c80000
  0039f	f3 0f 11 44 24
	04		 movss	 DWORD PTR [esp+4], xmm0
  003a5	f3 0f 11 04 24	 movss	 DWORD PTR [esp], xmm0
  003aa	50		 push	 eax
  003ab	ff 15 00 00 00
	00		 call	 DWORD PTR __imp_?SetActionAni@ioEntityGroup@@QAE_NHMMMMMM_N0@Z
$LN52@SetDoubleJ:
  003b1	5f		 pop	 edi
  003b2	5e		 pop	 esi
$LN1@SetDoubleJ:

; 987  : 	}
; 988  : }

  003b3	8b 4d fc	 mov	 ecx, DWORD PTR __$ArrayPad$[ebp]
  003b6	33 cd		 xor	 ecx, ebp
  003b8	5b		 pop	 ebx
  003b9	e8 00 00 00 00	 call	 @__security_check_cookie@4
  003be	c9		 leave
  003bf	c2 04 00	 ret	 4
?SetDoubleJumpAni@ioParkilpyoJump@@IAEXPAVioBaseChar@@@Z ENDP ; ioParkilpyoJump::SetDoubleJumpAni
_TEXT	ENDS
PUBLIC	?_Buy@?$vector@UAttackAttribute@@V?$allocator@UAttackAttribute@@@std@@@std@@IAE_NI@Z ; std::vector<AttackAttribute,std::allocator<AttackAttribute> >::_Buy
; Function compile flags: /Ogsp
; File c:\program files (x86)\microsoft visual studio 10.0\vc\include\vector
;	COMDAT ?_Buy@?$vector@UAttackAttribute@@V?$allocator@UAttackAttribute@@@std@@@std@@IAE_NI@Z
_TEXT	SEGMENT
__Capacity$ = 8						; size = 4
?_Buy@?$vector@UAttackAttribute@@V?$allocator@UAttackAttribute@@@std@@@std@@IAE_NI@Z PROC ; std::vector<AttackAttribute,std::allocator<AttackAttribute> >::_Buy, COMDAT
; _this$ = ecx

; 1250 : 		{	// allocate array with _Capacity elements

  00000	55		 push	 ebp
  00001	8b ec		 mov	 ebp, esp
  00003	56		 push	 esi

; 1251 : 		this->_Myfirst = 0;

  00004	33 c0		 xor	 eax, eax
  00006	57		 push	 edi

; 1252 : 		this->_Mylast = 0;
; 1253 : 		this->_Myend = 0;
; 1254 : 
; 1255 : 		if (_Capacity == 0)

  00007	8b 7d 08	 mov	 edi, DWORD PTR __Capacity$[ebp]
  0000a	8b f1		 mov	 esi, ecx
  0000c	89 06		 mov	 DWORD PTR [esi], eax
  0000e	89 46 04	 mov	 DWORD PTR [esi+4], eax
  00011	89 46 08	 mov	 DWORD PTR [esi+8], eax
  00014	3b f8		 cmp	 edi, eax
  00016	75 04		 jne	 SHORT $LN4@Buy

; 1256 : 			return (false);

  00018	32 c0		 xor	 al, al
  0001a	eb 2b		 jmp	 SHORT $LN5@Buy
$LN4@Buy:

; 1257 : 		else if (max_size() < _Capacity)

  0001c	81 ff 33 33 33
	03		 cmp	 edi, 53687091		; 03333333H
  00022	76 0b		 jbe	 SHORT $LN2@Buy

; 1258 : 			_Xlen();	// result too long

  00024	68 00 00 00 00	 push	 OFFSET ??_C@_0BD@OLBABOEK@vector?$DMT?$DO?5too?5long?$AA@
  00029	ff 15 00 00 00
	00		 call	 DWORD PTR __imp_?_Xlength_error@std@@YAXPBD@Z
$LN19@Buy:
$LN2@Buy:

; 1259 : 		else
; 1260 : 			{	// nonempty array, allocate storage
; 1261 : 			this->_Myfirst = this->_Alval.allocate(_Capacity);

  0002f	50		 push	 eax
  00030	57		 push	 edi
  00031	e8 00 00 00 00	 call	 ??$_Allocate@UAttackAttribute@@@std@@YAPAUAttackAttribute@@IPAU1@@Z ; std::_Allocate<AttackAttribute>

; 1262 : 			this->_Mylast = this->_Myfirst;
; 1263 : 			this->_Myend = this->_Myfirst + _Capacity;

  00036	6b ff 50	 imul	 edi, 80			; 00000050H
  00039	03 f8		 add	 edi, eax
  0003b	59		 pop	 ecx
  0003c	89 06		 mov	 DWORD PTR [esi], eax
  0003e	89 46 04	 mov	 DWORD PTR [esi+4], eax
  00041	59		 pop	 ecx
  00042	89 7e 08	 mov	 DWORD PTR [esi+8], edi

; 1264 : 			}
; 1265 : 		return (true);

  00045	b0 01		 mov	 al, 1
$LN5@Buy:
  00047	5f		 pop	 edi
  00048	5e		 pop	 esi

; 1266 : 		}

  00049	5d		 pop	 ebp
  0004a	c2 04 00	 ret	 4
$LN18@Buy:
?_Buy@?$vector@UAttackAttribute@@V?$allocator@UAttackAttribute@@@std@@@std@@IAE_NI@Z ENDP ; std::vector<AttackAttribute,std::allocator<AttackAttribute> >::_Buy
_TEXT	ENDS
PUBLIC	?_Grow_to@?$vector@VioHashString@@V?$allocator@VioHashString@@@std@@@std@@IBEII@Z ; std::vector<ioHashString,std::allocator<ioHashString> >::_Grow_to
; Function compile flags: /Ogsp
;	COMDAT ?_Grow_to@?$vector@VioHashString@@V?$allocator@VioHashString@@@std@@@std@@IBEII@Z
_TEXT	SEGMENT
__Count$ = 8						; size = 4
?_Grow_to@?$vector@VioHashString@@V?$allocator@VioHashString@@@std@@@std@@IBEII@Z PROC ; std::vector<ioHashString,std::allocator<ioHashString> >::_Grow_to, COMDAT
; _this$ = ecx

; 1274 : 		{	// grow by 50% or at least to _Count

  00000	55		 push	 ebp
  00001	8b ec		 mov	 ebp, esp

; 1275 : 		size_type _Capacity = capacity();

  00003	8b 41 08	 mov	 eax, DWORD PTR [ecx+8]
  00006	2b 01		 sub	 eax, DWORD PTR [ecx]

; 1276 : 
; 1277 : 		_Capacity = max_size() - _Capacity / 2 < _Capacity
; 1278 : 			? 0 : _Capacity + _Capacity / 2;	// try to grow by 50%

  00008	ba ff ff ff 0f	 mov	 edx, 268435455		; 0fffffffH
  0000d	c1 f8 04	 sar	 eax, 4
  00010	8b c8		 mov	 ecx, eax
  00012	d1 e9		 shr	 ecx, 1
  00014	2b d1		 sub	 edx, ecx
  00016	3b d0		 cmp	 edx, eax
  00018	73 04		 jae	 SHORT $LN4@Grow_to@2
  0001a	33 c0		 xor	 eax, eax
  0001c	eb 02		 jmp	 SHORT $LN5@Grow_to@2
$LN4@Grow_to@2:
  0001e	03 c1		 add	 eax, ecx
$LN5@Grow_to@2:

; 1279 : 		if (_Capacity < _Count)

  00020	3b 45 08	 cmp	 eax, DWORD PTR __Count$[ebp]

; 1280 : 			_Capacity = _Count;

  00023	0f 42 45 08	 cmovb	 eax, DWORD PTR __Count$[ebp]

; 1281 : 		return (_Capacity);
; 1282 : 		}

  00027	5d		 pop	 ebp
  00028	c2 04 00	 ret	 4
?_Grow_to@?$vector@VioHashString@@V?$allocator@VioHashString@@@std@@@std@@IBEII@Z ENDP ; std::vector<ioHashString,std::allocator<ioHashString> >::_Grow_to
_TEXT	ENDS
PUBLIC	??$_Cons_val@V?$allocator@VioHashString@@@std@@VioHashString@@AAV3@@std@@YAXAAV?$allocator@VioHashString@@@0@PAVioHashString@@AAV2@@Z ; std::_Cons_val<std::allocator<ioHashString>,ioHashString,ioHashString &>
; Function compile flags: /Ogsp
; File c:\program files (x86)\microsoft visual studio 10.0\vc\include\xmemory
;	COMDAT ??$_Cons_val@V?$allocator@VioHashString@@@std@@VioHashString@@AAV3@@std@@YAXAAV?$allocator@VioHashString@@@0@PAVioHashString@@AAV2@@Z
_TEXT	SEGMENT
__Alval$ = 8						; size = 4
__Pdest$ = 12						; size = 4
__Src$ = 16						; size = 4
??$_Cons_val@V?$allocator@VioHashString@@@std@@VioHashString@@AAV3@@std@@YAXAAV?$allocator@VioHashString@@@0@PAVioHashString@@AAV2@@Z PROC ; std::_Cons_val<std::allocator<ioHashString>,ioHashString,ioHashString &>, COMDAT

; 279  : 	{	// construct using allocator

  00000	55		 push	 ebp
  00001	8b ec		 mov	 ebp, esp

; 280  : 	_Alval.construct(_Pdest, _STD forward<_Ty2>(_Src));

  00003	ff 75 10	 push	 DWORD PTR __Src$[ebp]
  00006	8b 4d 08	 mov	 ecx, DWORD PTR __Alval$[ebp]
  00009	ff 75 0c	 push	 DWORD PTR __Pdest$[ebp]
  0000c	e8 00 00 00 00	 call	 ??$construct@AAVioHashString@@@?$allocator@VioHashString@@@std@@QAEXPAVioHashString@@AAV2@@Z ; std::allocator<ioHashString>::construct<ioHashString &>

; 281  : 	}

  00011	5d		 pop	 ebp
  00012	c3		 ret	 0
??$_Cons_val@V?$allocator@VioHashString@@@std@@VioHashString@@AAV3@@std@@YAXAAV?$allocator@VioHashString@@@0@PAVioHashString@@AAV2@@Z ENDP ; std::_Cons_val<std::allocator<ioHashString>,ioHashString,ioHashString &>
_TEXT	ENDS
PUBLIC	??$_Cons_val@V?$allocator@VioHashString@@@std@@VioHashString@@V3@@std@@YAXAAV?$allocator@VioHashString@@@0@PAVioHashString@@$$QAV2@@Z ; std::_Cons_val<std::allocator<ioHashString>,ioHashString,ioHashString>
; Function compile flags: /Ogsp
;	COMDAT ??$_Cons_val@V?$allocator@VioHashString@@@std@@VioHashString@@V3@@std@@YAXAAV?$allocator@VioHashString@@@0@PAVioHashString@@$$QAV2@@Z
_TEXT	SEGMENT
__Alval$ = 8						; size = 4
__Pdest$ = 12						; size = 4
__Src$ = 16						; size = 4
??$_Cons_val@V?$allocator@VioHashString@@@std@@VioHashString@@V3@@std@@YAXAAV?$allocator@VioHashString@@@0@PAVioHashString@@$$QAV2@@Z PROC ; std::_Cons_val<std::allocator<ioHashString>,ioHashString,ioHashString>, COMDAT

; 279  : 	{	// construct using allocator

  00000	55		 push	 ebp
  00001	8b ec		 mov	 ebp, esp

; 280  : 	_Alval.construct(_Pdest, _STD forward<_Ty2>(_Src));

  00003	ff 75 10	 push	 DWORD PTR __Src$[ebp]
  00006	8b 4d 08	 mov	 ecx, DWORD PTR __Alval$[ebp]
  00009	ff 75 0c	 push	 DWORD PTR __Pdest$[ebp]
  0000c	e8 00 00 00 00	 call	 ?construct@?$allocator@VioHashString@@@std@@QAEXPAVioHashString@@$$QAV3@@Z ; std::allocator<ioHashString>::construct

; 281  : 	}

  00011	5d		 pop	 ebp
  00012	c3		 ret	 0
??$_Cons_val@V?$allocator@VioHashString@@@std@@VioHashString@@V3@@std@@YAXAAV?$allocator@VioHashString@@@0@PAVioHashString@@$$QAV2@@Z ENDP ; std::_Cons_val<std::allocator<ioHashString>,ioHashString,ioHashString>
_TEXT	ENDS
PUBLIC	??$_Cons_val@V?$allocator@UForceInfo@@@std@@UForceInfo@@ABU3@@std@@YAXAAV?$allocator@UForceInfo@@@0@PAUForceInfo@@ABU2@@Z ; std::_Cons_val<std::allocator<ForceInfo>,ForceInfo,ForceInfo const &>
; Function compile flags: /Ogsp
;	COMDAT ??$_Cons_val@V?$allocator@UForceInfo@@@std@@UForceInfo@@ABU3@@std@@YAXAAV?$allocator@UForceInfo@@@0@PAUForceInfo@@ABU2@@Z
_TEXT	SEGMENT
__Alval$ = 8						; size = 4
__Pdest$ = 12						; size = 4
__Src$ = 16						; size = 4
??$_Cons_val@V?$allocator@UForceInfo@@@std@@UForceInfo@@ABU3@@std@@YAXAAV?$allocator@UForceInfo@@@0@PAUForceInfo@@ABU2@@Z PROC ; std::_Cons_val<std::allocator<ForceInfo>,ForceInfo,ForceInfo const &>, COMDAT

; 279  : 	{	// construct using allocator

  00000	55		 push	 ebp
  00001	8b ec		 mov	 ebp, esp
  00003	57		 push	 edi

; 280  : 	_Alval.construct(_Pdest, _STD forward<_Ty2>(_Src));

  00004	8b 7d 0c	 mov	 edi, DWORD PTR __Pdest$[ebp]
  00007	85 ff		 test	 edi, edi
  00009	74 08		 je	 SHORT $LN9@Cons_val@2
  0000b	56		 push	 esi
  0000c	8b 75 10	 mov	 esi, DWORD PTR __Src$[ebp]
  0000f	a5		 movsd
  00010	a5		 movsd
  00011	a5		 movsd
  00012	5e		 pop	 esi
$LN9@Cons_val@2:
  00013	5f		 pop	 edi

; 281  : 	}

  00014	5d		 pop	 ebp
  00015	c3		 ret	 0
??$_Cons_val@V?$allocator@UForceInfo@@@std@@UForceInfo@@ABU3@@std@@YAXAAV?$allocator@UForceInfo@@@0@PAUForceInfo@@ABU2@@Z ENDP ; std::_Cons_val<std::allocator<ForceInfo>,ForceInfo,ForceInfo const &>
_TEXT	ENDS
PUBLIC	?construct@?$allocator@UWeaponInfo@@@std@@QAEXPAUWeaponInfo@@ABU3@@Z ; std::allocator<WeaponInfo>::construct
; Function compile flags: /Ogsp
;	COMDAT ?construct@?$allocator@UWeaponInfo@@@std@@QAEXPAUWeaponInfo@@ABU3@@Z
_TEXT	SEGMENT
__Ptr$ = 8						; size = 4
__Val$ = 12						; size = 4
?construct@?$allocator@UWeaponInfo@@@std@@QAEXPAUWeaponInfo@@ABU3@@Z PROC ; std::allocator<WeaponInfo>::construct, COMDAT
; _this$ = ecx

; 196  : 		{	// construct object at _Ptr with value _Val

  00000	55		 push	 ebp
  00001	8b ec		 mov	 ebp, esp

; 197  : 		_Construct(_Ptr, _Val);

  00003	ff 75 0c	 push	 DWORD PTR __Val$[ebp]
  00006	ff 75 08	 push	 DWORD PTR __Ptr$[ebp]
  00009	e8 00 00 00 00	 call	 ??$_Construct@UWeaponInfo@@ABU1@@std@@YAXPAUWeaponInfo@@ABU1@@Z ; std::_Construct<WeaponInfo,WeaponInfo const &>
  0000e	59		 pop	 ecx
  0000f	59		 pop	 ecx

; 198  : 		}

  00010	5d		 pop	 ebp
  00011	c2 08 00	 ret	 8
?construct@?$allocator@UWeaponInfo@@@std@@QAEXPAUWeaponInfo@@ABU3@@Z ENDP ; std::allocator<WeaponInfo>::construct
_TEXT	ENDS
PUBLIC	??0?$vector@VioHashString@@V?$allocator@VioHashString@@@std@@@std@@QAE@XZ ; std::vector<ioHashString,std::allocator<ioHashString> >::vector<ioHashString,std::allocator<ioHashString> >
; Function compile flags: /Ogsp
; File c:\program files (x86)\microsoft visual studio 10.0\vc\include\vector
;	COMDAT ??0?$vector@VioHashString@@V?$allocator@VioHashString@@@std@@@std@@QAE@XZ
_TEXT	SEGMENT
??0?$vector@VioHashString@@V?$allocator@VioHashString@@@std@@@std@@QAE@XZ PROC ; std::vector<ioHashString,std::allocator<ioHashString> >::vector<ioHashString,std::allocator<ioHashString> >, COMDAT
; _this$ = ecx

; 507  : 		{	// construct empty vector

  00000	8b c1		 mov	 eax, ecx
  00002	33 c9		 xor	 ecx, ecx
  00004	89 08		 mov	 DWORD PTR [eax], ecx
  00006	89 48 04	 mov	 DWORD PTR [eax+4], ecx
  00009	89 48 08	 mov	 DWORD PTR [eax+8], ecx

; 508  : 		}

  0000c	c3		 ret	 0
??0?$vector@VioHashString@@V?$allocator@VioHashString@@@std@@@std@@QAE@XZ ENDP ; std::vector<ioHashString,std::allocator<ioHashString> >::vector<ioHashString,std::allocator<ioHashString> >
_TEXT	ENDS
PUBLIC	??0?$vector@UWeaponInfo@@V?$allocator@UWeaponInfo@@@std@@@std@@QAE@XZ ; std::vector<WeaponInfo,std::allocator<WeaponInfo> >::vector<WeaponInfo,std::allocator<WeaponInfo> >
; Function compile flags: /Ogsp
;	COMDAT ??0?$vector@UWeaponInfo@@V?$allocator@UWeaponInfo@@@std@@@std@@QAE@XZ
_TEXT	SEGMENT
??0?$vector@UWeaponInfo@@V?$allocator@UWeaponInfo@@@std@@@std@@QAE@XZ PROC ; std::vector<WeaponInfo,std::allocator<WeaponInfo> >::vector<WeaponInfo,std::allocator<WeaponInfo> >, COMDAT
; _this$ = ecx

; 507  : 		{	// construct empty vector

  00000	8b c1		 mov	 eax, ecx
  00002	33 c9		 xor	 ecx, ecx
  00004	89 08		 mov	 DWORD PTR [eax], ecx
  00006	89 48 04	 mov	 DWORD PTR [eax+4], ecx
  00009	89 48 08	 mov	 DWORD PTR [eax+8], ecx

; 508  : 		}

  0000c	c3		 ret	 0
??0?$vector@UWeaponInfo@@V?$allocator@UWeaponInfo@@@std@@@std@@QAE@XZ ENDP ; std::vector<WeaponInfo,std::allocator<WeaponInfo> >::vector<WeaponInfo,std::allocator<WeaponInfo> >
_TEXT	ENDS
PUBLIC	??0?$vector@UForceInfo@@V?$allocator@UForceInfo@@@std@@@std@@QAE@XZ ; std::vector<ForceInfo,std::allocator<ForceInfo> >::vector<ForceInfo,std::allocator<ForceInfo> >
; Function compile flags: /Ogsp
;	COMDAT ??0?$vector@UForceInfo@@V?$allocator@UForceInfo@@@std@@@std@@QAE@XZ
_TEXT	SEGMENT
??0?$vector@UForceInfo@@V?$allocator@UForceInfo@@@std@@@std@@QAE@XZ PROC ; std::vector<ForceInfo,std::allocator<ForceInfo> >::vector<ForceInfo,std::allocator<ForceInfo> >, COMDAT
; _this$ = ecx

; 507  : 		{	// construct empty vector

  00000	8b c1		 mov	 eax, ecx
  00002	33 c9		 xor	 ecx, ecx
  00004	89 08		 mov	 DWORD PTR [eax], ecx
  00006	89 48 04	 mov	 DWORD PTR [eax+4], ecx
  00009	89 48 08	 mov	 DWORD PTR [eax+8], ecx

; 508  : 		}

  0000c	c3		 ret	 0
??0?$vector@UForceInfo@@V?$allocator@UForceInfo@@@std@@@std@@QAE@XZ ENDP ; std::vector<ForceInfo,std::allocator<ForceInfo> >::vector<ForceInfo,std::allocator<ForceInfo> >
_TEXT	ENDS
PUBLIC	??0?$vector@UAttackAttribute@@V?$allocator@UAttackAttribute@@@std@@@std@@QAE@XZ ; std::vector<AttackAttribute,std::allocator<AttackAttribute> >::vector<AttackAttribute,std::allocator<AttackAttribute> >
; Function compile flags: /Ogsp
;	COMDAT ??0?$vector@UAttackAttribute@@V?$allocator@UAttackAttribute@@@std@@@std@@QAE@XZ
_TEXT	SEGMENT
??0?$vector@UAttackAttribute@@V?$allocator@UAttackAttribute@@@std@@@std@@QAE@XZ PROC ; std::vector<AttackAttribute,std::allocator<AttackAttribute> >::vector<AttackAttribute,std::allocator<AttackAttribute> >, COMDAT
; _this$ = ecx

; 507  : 		{	// construct empty vector

  00000	8b c1		 mov	 eax, ecx
  00002	33 c9		 xor	 ecx, ecx
  00004	89 08		 mov	 DWORD PTR [eax], ecx
  00006	89 48 04	 mov	 DWORD PTR [eax+4], ecx
  00009	89 48 08	 mov	 DWORD PTR [eax+8], ecx

; 508  : 		}

  0000c	c3		 ret	 0
??0?$vector@UAttackAttribute@@V?$allocator@UAttackAttribute@@@std@@@std@@QAE@XZ ENDP ; std::vector<AttackAttribute,std::allocator<AttackAttribute> >::vector<AttackAttribute,std::allocator<AttackAttribute> >
_TEXT	ENDS
PUBLIC	?_Buy@?$vector@VioHashString@@V?$allocator@VioHashString@@@std@@@std@@IAE_NI@Z ; std::vector<ioHashString,std::allocator<ioHashString> >::_Buy
; Function compile flags: /Ogsp
;	COMDAT ?_Buy@?$vector@VioHashString@@V?$allocator@VioHashString@@@std@@@std@@IAE_NI@Z
_TEXT	SEGMENT
__Capacity$ = 8						; size = 4
?_Buy@?$vector@VioHashString@@V?$allocator@VioHashString@@@std@@@std@@IAE_NI@Z PROC ; std::vector<ioHashString,std::allocator<ioHashString> >::_Buy, COMDAT
; _this$ = ecx

; 1250 : 		{	// allocate array with _Capacity elements

  00000	55		 push	 ebp
  00001	8b ec		 mov	 ebp, esp
  00003	56		 push	 esi

; 1251 : 		this->_Myfirst = 0;

  00004	33 c0		 xor	 eax, eax
  00006	57		 push	 edi

; 1252 : 		this->_Mylast = 0;
; 1253 : 		this->_Myend = 0;
; 1254 : 
; 1255 : 		if (_Capacity == 0)

  00007	8b 7d 08	 mov	 edi, DWORD PTR __Capacity$[ebp]
  0000a	8b f1		 mov	 esi, ecx
  0000c	89 06		 mov	 DWORD PTR [esi], eax
  0000e	89 46 04	 mov	 DWORD PTR [esi+4], eax
  00011	89 46 08	 mov	 DWORD PTR [esi+8], eax
  00014	3b f8		 cmp	 edi, eax
  00016	75 04		 jne	 SHORT $LN4@Buy@2

; 1256 : 			return (false);

  00018	32 c0		 xor	 al, al
  0001a	eb 2b		 jmp	 SHORT $LN5@Buy@2
$LN4@Buy@2:

; 1257 : 		else if (max_size() < _Capacity)

  0001c	81 ff ff ff ff
	0f		 cmp	 edi, 268435455		; 0fffffffH
  00022	76 0b		 jbe	 SHORT $LN2@Buy@2

; 1258 : 			_Xlen();	// result too long

  00024	68 00 00 00 00	 push	 OFFSET ??_C@_0BD@OLBABOEK@vector?$DMT?$DO?5too?5long?$AA@
  00029	ff 15 00 00 00
	00		 call	 DWORD PTR __imp_?_Xlength_error@std@@YAXPBD@Z
$LN19@Buy@2:
$LN2@Buy@2:

; 1259 : 		else
; 1260 : 			{	// nonempty array, allocate storage
; 1261 : 			this->_Myfirst = this->_Alval.allocate(_Capacity);

  0002f	50		 push	 eax
  00030	57		 push	 edi
  00031	e8 00 00 00 00	 call	 ??$_Allocate@VioHashString@@@std@@YAPAVioHashString@@IPAV1@@Z ; std::_Allocate<ioHashString>

; 1262 : 			this->_Mylast = this->_Myfirst;
; 1263 : 			this->_Myend = this->_Myfirst + _Capacity;

  00036	c1 e7 04	 shl	 edi, 4
  00039	03 f8		 add	 edi, eax
  0003b	59		 pop	 ecx
  0003c	89 06		 mov	 DWORD PTR [esi], eax
  0003e	89 46 04	 mov	 DWORD PTR [esi+4], eax
  00041	59		 pop	 ecx
  00042	89 7e 08	 mov	 DWORD PTR [esi+8], edi

; 1264 : 			}
; 1265 : 		return (true);

  00045	b0 01		 mov	 al, 1
$LN5@Buy@2:
  00047	5f		 pop	 edi
  00048	5e		 pop	 esi

; 1266 : 		}

  00049	5d		 pop	 ebp
  0004a	c2 04 00	 ret	 4
$LN18@Buy@2:
?_Buy@?$vector@VioHashString@@V?$allocator@VioHashString@@@std@@@std@@IAE_NI@Z ENDP ; std::vector<ioHashString,std::allocator<ioHashString> >::_Buy
_TEXT	ENDS
PUBLIC	?begin@?$vector@UAttackAttribute@@V?$allocator@UAttackAttribute@@@std@@@std@@QAE?AV?$_Vector_iterator@V?$_Vector_val@UAttackAttribute@@V?$allocator@UAttackAttribute@@@std@@@std@@@2@XZ ; std::vector<AttackAttribute,std::allocator<AttackAttribute> >::begin
; Function compile flags: /Ogsp
;	COMDAT ?begin@?$vector@UAttackAttribute@@V?$allocator@UAttackAttribute@@@std@@@std@@QAE?AV?$_Vector_iterator@V?$_Vector_val@UAttackAttribute@@V?$allocator@UAttackAttribute@@@std@@@std@@@2@XZ
_TEXT	SEGMENT
___$ReturnUdt$ = 8					; size = 4
?begin@?$vector@UAttackAttribute@@V?$allocator@UAttackAttribute@@@std@@@std@@QAE?AV?$_Vector_iterator@V?$_Vector_val@UAttackAttribute@@V?$allocator@UAttackAttribute@@@std@@@std@@@2@XZ PROC ; std::vector<AttackAttribute,std::allocator<AttackAttribute> >::begin, COMDAT
; _this$ = ecx

; 781  : 		{	// return iterator for beginning of mutable sequence

  00000	55		 push	 ebp
  00001	8b ec		 mov	 ebp, esp

; 782  : 		return (iterator(this->_Myfirst, this));

  00003	8b 09		 mov	 ecx, DWORD PTR [ecx]
  00005	8b 45 08	 mov	 eax, DWORD PTR ___$ReturnUdt$[ebp]
  00008	89 08		 mov	 DWORD PTR [eax], ecx

; 783  : 		}

  0000a	5d		 pop	 ebp
  0000b	c2 04 00	 ret	 4
?begin@?$vector@UAttackAttribute@@V?$allocator@UAttackAttribute@@@std@@@std@@QAE?AV?$_Vector_iterator@V?$_Vector_val@UAttackAttribute@@V?$allocator@UAttackAttribute@@@std@@@std@@@2@XZ ENDP ; std::vector<AttackAttribute,std::allocator<AttackAttribute> >::begin
_TEXT	ENDS
PUBLIC	?end@?$vector@UAttackAttribute@@V?$allocator@UAttackAttribute@@@std@@@std@@QAE?AV?$_Vector_iterator@V?$_Vector_val@UAttackAttribute@@V?$allocator@UAttackAttribute@@@std@@@std@@@2@XZ ; std::vector<AttackAttribute,std::allocator<AttackAttribute> >::end
; Function compile flags: /Ogsp
;	COMDAT ?end@?$vector@UAttackAttribute@@V?$allocator@UAttackAttribute@@@std@@@std@@QAE?AV?$_Vector_iterator@V?$_Vector_val@UAttackAttribute@@V?$allocator@UAttackAttribute@@@std@@@std@@@2@XZ
_TEXT	SEGMENT
___$ReturnUdt$ = 8					; size = 4
?end@?$vector@UAttackAttribute@@V?$allocator@UAttackAttribute@@@std@@@std@@QAE?AV?$_Vector_iterator@V?$_Vector_val@UAttackAttribute@@V?$allocator@UAttackAttribute@@@std@@@std@@@2@XZ PROC ; std::vector<AttackAttribute,std::allocator<AttackAttribute> >::end, COMDAT
; _this$ = ecx

; 791  : 		{	// return iterator for end of mutable sequence

  00000	55		 push	 ebp
  00001	8b ec		 mov	 ebp, esp

; 792  : 		return (iterator(this->_Mylast, this));

  00003	8b 49 04	 mov	 ecx, DWORD PTR [ecx+4]
  00006	8b 45 08	 mov	 eax, DWORD PTR ___$ReturnUdt$[ebp]
  00009	89 08		 mov	 DWORD PTR [eax], ecx

; 793  : 		}

  0000b	5d		 pop	 ebp
  0000c	c2 04 00	 ret	 4
?end@?$vector@UAttackAttribute@@V?$allocator@UAttackAttribute@@@std@@@std@@QAE?AV?$_Vector_iterator@V?$_Vector_val@UAttackAttribute@@V?$allocator@UAttackAttribute@@@std@@@std@@@2@XZ ENDP ; std::vector<AttackAttribute,std::allocator<AttackAttribute> >::end
_TEXT	ENDS
PUBLIC	?_Make_iter@?$vector@UAttackAttribute@@V?$allocator@UAttackAttribute@@@std@@@std@@QBE?AV?$_Vector_iterator@V?$_Vector_val@UAttackAttribute@@V?$allocator@UAttackAttribute@@@std@@@std@@@2@V?$_Vector_const_iterator@V?$_Vector_val@UAttackAttribute@@V?$allocator@UAttackAttribute@@@std@@@std@@@2@@Z ; std::vector<AttackAttribute,std::allocator<AttackAttribute> >::_Make_iter
; Function compile flags: /Ogsp
;	COMDAT ?_Make_iter@?$vector@UAttackAttribute@@V?$allocator@UAttackAttribute@@@std@@@std@@QBE?AV?$_Vector_iterator@V?$_Vector_val@UAttackAttribute@@V?$allocator@UAttackAttribute@@@std@@@std@@@2@V?$_Vector_const_iterator@V?$_Vector_val@UAttackAttribute@@V?$allocator@UAttackAttribute@@@std@@@std@@@2@@Z
_TEXT	SEGMENT
___$ReturnUdt$ = 8					; size = 4
__Where$ = 12						; size = 4
?_Make_iter@?$vector@UAttackAttribute@@V?$allocator@UAttackAttribute@@@std@@@std@@QBE?AV?$_Vector_iterator@V?$_Vector_val@UAttackAttribute@@V?$allocator@UAttackAttribute@@@std@@@std@@@2@V?$_Vector_const_iterator@V?$_Vector_val@UAttackAttribute@@V?$allocator@UAttackAttribute@@@std@@@std@@@2@@Z PROC ; std::vector<AttackAttribute,std::allocator<AttackAttribute> >::_Make_iter, COMDAT
; _this$ = ecx

; 801  : 		{	// make iterator from const_iterator

  00000	55		 push	 ebp
  00001	8b ec		 mov	 ebp, esp

; 802  : 		return (iterator(_Where._Ptr, this));

  00003	8b 45 08	 mov	 eax, DWORD PTR ___$ReturnUdt$[ebp]
  00006	8b 4d 0c	 mov	 ecx, DWORD PTR __Where$[ebp]
  00009	89 08		 mov	 DWORD PTR [eax], ecx

; 803  : 		}

  0000b	5d		 pop	 ebp
  0000c	c2 08 00	 ret	 8
?_Make_iter@?$vector@UAttackAttribute@@V?$allocator@UAttackAttribute@@@std@@@std@@QBE?AV?$_Vector_iterator@V?$_Vector_val@UAttackAttribute@@V?$allocator@UAttackAttribute@@@std@@@std@@@2@V?$_Vector_const_iterator@V?$_Vector_val@UAttackAttribute@@V?$allocator@UAttackAttribute@@@std@@@std@@@2@@Z ENDP ; std::vector<AttackAttribute,std::allocator<AttackAttribute> >::_Make_iter
_TEXT	ENDS
PUBLIC	??9?$_Vector_const_iterator@V?$_Vector_val@VioHashString@@V?$allocator@VioHashString@@@std@@@std@@@std@@QBE_NABV01@@Z ; std::_Vector_const_iterator<std::_Vector_val<ioHashString,std::allocator<ioHashString> > >::operator!=
; Function compile flags: /Ogsp
;	COMDAT ??9?$_Vector_const_iterator@V?$_Vector_val@VioHashString@@V?$allocator@VioHashString@@@std@@@std@@@std@@QBE_NABV01@@Z
_TEXT	SEGMENT
__Right$ = 8						; size = 4
??9?$_Vector_const_iterator@V?$_Vector_val@VioHashString@@V?$allocator@VioHashString@@@std@@@std@@@std@@QBE_NABV01@@Z PROC ; std::_Vector_const_iterator<std::_Vector_val<ioHashString,std::allocator<ioHashString> > >::operator!=, COMDAT
; _this$ = ecx

; 207  : 		{	// test for iterator inequality

  00000	55		 push	 ebp
  00001	8b ec		 mov	 ebp, esp

; 208  : 		return (!(*this == _Right));

  00003	8b 01		 mov	 eax, DWORD PTR [ecx]
  00005	8b 55 08	 mov	 edx, DWORD PTR __Right$[ebp]
  00008	33 c9		 xor	 ecx, ecx
  0000a	3b 02		 cmp	 eax, DWORD PTR [edx]
  0000c	0f 95 c0	 setne	 al

; 209  : 		}

  0000f	5d		 pop	 ebp
  00010	c2 04 00	 ret	 4
??9?$_Vector_const_iterator@V?$_Vector_val@VioHashString@@V?$allocator@VioHashString@@@std@@@std@@@std@@QBE_NABV01@@Z ENDP ; std::_Vector_const_iterator<std::_Vector_val<ioHashString,std::allocator<ioHashString> > >::operator!=
_TEXT	ENDS
PUBLIC	??9?$_Vector_const_iterator@V?$_Vector_val@UAttackAttribute@@V?$allocator@UAttackAttribute@@@std@@@std@@@std@@QBE_NABV01@@Z ; std::_Vector_const_iterator<std::_Vector_val<AttackAttribute,std::allocator<AttackAttribute> > >::operator!=
; Function compile flags: /Ogsp
;	COMDAT ??9?$_Vector_const_iterator@V?$_Vector_val@UAttackAttribute@@V?$allocator@UAttackAttribute@@@std@@@std@@@std@@QBE_NABV01@@Z
_TEXT	SEGMENT
__Right$ = 8						; size = 4
??9?$_Vector_const_iterator@V?$_Vector_val@UAttackAttribute@@V?$allocator@UAttackAttribute@@@std@@@std@@@std@@QBE_NABV01@@Z PROC ; std::_Vector_const_iterator<std::_Vector_val<AttackAttribute,std::allocator<AttackAttribute> > >::operator!=, COMDAT
; _this$ = ecx

; 207  : 		{	// test for iterator inequality

  00000	55		 push	 ebp
  00001	8b ec		 mov	 ebp, esp

; 208  : 		return (!(*this == _Right));

  00003	8b 01		 mov	 eax, DWORD PTR [ecx]
  00005	8b 55 08	 mov	 edx, DWORD PTR __Right$[ebp]
  00008	33 c9		 xor	 ecx, ecx
  0000a	3b 02		 cmp	 eax, DWORD PTR [edx]
  0000c	0f 95 c0	 setne	 al

; 209  : 		}

  0000f	5d		 pop	 ebp
  00010	c2 04 00	 ret	 4
??9?$_Vector_const_iterator@V?$_Vector_val@UAttackAttribute@@V?$allocator@UAttackAttribute@@@std@@@std@@@std@@QBE_NABV01@@Z ENDP ; std::_Vector_const_iterator<std::_Vector_val<AttackAttribute,std::allocator<AttackAttribute> > >::operator!=
_TEXT	ENDS
PUBLIC	??$_Move@PAVioHashString@@PAV1@@std@@YAPAVioHashString@@PAV1@00@Z ; std::_Move<ioHashString *,ioHashString *>
; Function compile flags: /Ogsp
; File c:\program files (x86)\microsoft visual studio 10.0\vc\include\xutility
;	COMDAT ??$_Move@PAVioHashString@@PAV1@@std@@YAPAVioHashString@@PAV1@00@Z
_TEXT	SEGMENT
__Cat$599276 = -4					; size = 1
__First$ = 8						; size = 4
__Last$ = 12						; size = 4
__Dest$ = 16						; size = 4
??$_Move@PAVioHashString@@PAV1@@std@@YAPAVioHashString@@PAV1@00@Z PROC ; std::_Move<ioHashString *,ioHashString *>, COMDAT

; 2533 : 	{	// move [_First, _Last) to [_Dest, ...), unchecked

  00000	55		 push	 ebp
  00001	8b ec		 mov	 ebp, esp
  00003	51		 push	 ecx

; 2534 : 	return (_Move(_First, _Last,
; 2535 : 		_Dest, _Ptr_cat(_First, _Dest)));

  00004	ff 75 fc	 push	 DWORD PTR __Cat$599276[ebp]
  00007	ff 75 10	 push	 DWORD PTR __Dest$[ebp]
  0000a	ff 75 0c	 push	 DWORD PTR __Last$[ebp]
  0000d	ff 75 08	 push	 DWORD PTR __First$[ebp]
  00010	e8 00 00 00 00	 call	 ??$_Move@PAVioHashString@@PAV1@@std@@YAPAVioHashString@@PAV1@00U_Nonscalar_ptr_iterator_tag@0@@Z ; std::_Move<ioHashString *,ioHashString *>
  00015	83 c4 10	 add	 esp, 16			; 00000010H

; 2536 : 	}

  00018	c9		 leave
  00019	c3		 ret	 0
??$_Move@PAVioHashString@@PAV1@@std@@YAPAVioHashString@@PAV1@00@Z ENDP ; std::_Move<ioHashString *,ioHashString *>
_TEXT	ENDS
PUBLIC	?_Buy@?$vector@UWeaponInfo@@V?$allocator@UWeaponInfo@@@std@@@std@@IAE_NI@Z ; std::vector<WeaponInfo,std::allocator<WeaponInfo> >::_Buy
; Function compile flags: /Ogsp
; File c:\program files (x86)\microsoft visual studio 10.0\vc\include\vector
;	COMDAT ?_Buy@?$vector@UWeaponInfo@@V?$allocator@UWeaponInfo@@@std@@@std@@IAE_NI@Z
_TEXT	SEGMENT
__Capacity$ = 8						; size = 4
?_Buy@?$vector@UWeaponInfo@@V?$allocator@UWeaponInfo@@@std@@@std@@IAE_NI@Z PROC ; std::vector<WeaponInfo,std::allocator<WeaponInfo> >::_Buy, COMDAT
; _this$ = ecx

; 1250 : 		{	// allocate array with _Capacity elements

  00000	55		 push	 ebp
  00001	8b ec		 mov	 ebp, esp
  00003	56		 push	 esi

; 1251 : 		this->_Myfirst = 0;

  00004	33 c0		 xor	 eax, eax
  00006	57		 push	 edi

; 1252 : 		this->_Mylast = 0;
; 1253 : 		this->_Myend = 0;
; 1254 : 
; 1255 : 		if (_Capacity == 0)

  00007	8b 7d 08	 mov	 edi, DWORD PTR __Capacity$[ebp]
  0000a	8b f1		 mov	 esi, ecx
  0000c	89 06		 mov	 DWORD PTR [esi], eax
  0000e	89 46 04	 mov	 DWORD PTR [esi+4], eax
  00011	89 46 08	 mov	 DWORD PTR [esi+8], eax
  00014	3b f8		 cmp	 edi, eax
  00016	75 04		 jne	 SHORT $LN4@Buy@3

; 1256 : 			return (false);

  00018	32 c0		 xor	 al, al
  0001a	eb 2b		 jmp	 SHORT $LN5@Buy@3
$LN4@Buy@3:

; 1257 : 		else if (max_size() < _Capacity)

  0001c	81 ff 66 66 66
	06		 cmp	 edi, 107374182		; 06666666H
  00022	76 0b		 jbe	 SHORT $LN2@Buy@3

; 1258 : 			_Xlen();	// result too long

  00024	68 00 00 00 00	 push	 OFFSET ??_C@_0BD@OLBABOEK@vector?$DMT?$DO?5too?5long?$AA@
  00029	ff 15 00 00 00
	00		 call	 DWORD PTR __imp_?_Xlength_error@std@@YAXPBD@Z
$LN19@Buy@3:
$LN2@Buy@3:

; 1259 : 		else
; 1260 : 			{	// nonempty array, allocate storage
; 1261 : 			this->_Myfirst = this->_Alval.allocate(_Capacity);

  0002f	50		 push	 eax
  00030	57		 push	 edi
  00031	e8 00 00 00 00	 call	 ??$_Allocate@UWeaponInfo@@@std@@YAPAUWeaponInfo@@IPAU1@@Z ; std::_Allocate<WeaponInfo>

; 1262 : 			this->_Mylast = this->_Myfirst;
; 1263 : 			this->_Myend = this->_Myfirst + _Capacity;

  00036	6b ff 28	 imul	 edi, 40			; 00000028H
  00039	03 f8		 add	 edi, eax
  0003b	59		 pop	 ecx
  0003c	89 06		 mov	 DWORD PTR [esi], eax
  0003e	89 46 04	 mov	 DWORD PTR [esi+4], eax
  00041	59		 pop	 ecx
  00042	89 7e 08	 mov	 DWORD PTR [esi+8], edi

; 1264 : 			}
; 1265 : 		return (true);

  00045	b0 01		 mov	 al, 1
$LN5@Buy@3:
  00047	5f		 pop	 edi
  00048	5e		 pop	 esi

; 1266 : 		}

  00049	5d		 pop	 ebp
  0004a	c2 04 00	 ret	 4
$LN18@Buy@3:
?_Buy@?$vector@UWeaponInfo@@V?$allocator@UWeaponInfo@@@std@@@std@@IAE_NI@Z ENDP ; std::vector<WeaponInfo,std::allocator<WeaponInfo> >::_Buy
_TEXT	ENDS
PUBLIC	?_Buy@?$vector@UForceInfo@@V?$allocator@UForceInfo@@@std@@@std@@IAE_NI@Z ; std::vector<ForceInfo,std::allocator<ForceInfo> >::_Buy
; Function compile flags: /Ogsp
;	COMDAT ?_Buy@?$vector@UForceInfo@@V?$allocator@UForceInfo@@@std@@@std@@IAE_NI@Z
_TEXT	SEGMENT
__Capacity$ = 8						; size = 4
?_Buy@?$vector@UForceInfo@@V?$allocator@UForceInfo@@@std@@@std@@IAE_NI@Z PROC ; std::vector<ForceInfo,std::allocator<ForceInfo> >::_Buy, COMDAT
; _this$ = ecx

; 1250 : 		{	// allocate array with _Capacity elements

  00000	55		 push	 ebp
  00001	8b ec		 mov	 ebp, esp
  00003	56		 push	 esi

; 1251 : 		this->_Myfirst = 0;

  00004	33 c0		 xor	 eax, eax
  00006	57		 push	 edi

; 1252 : 		this->_Mylast = 0;
; 1253 : 		this->_Myend = 0;
; 1254 : 
; 1255 : 		if (_Capacity == 0)

  00007	8b 7d 08	 mov	 edi, DWORD PTR __Capacity$[ebp]
  0000a	8b f1		 mov	 esi, ecx
  0000c	89 06		 mov	 DWORD PTR [esi], eax
  0000e	89 46 04	 mov	 DWORD PTR [esi+4], eax
  00011	89 46 08	 mov	 DWORD PTR [esi+8], eax
  00014	3b f8		 cmp	 edi, eax
  00016	75 04		 jne	 SHORT $LN4@Buy@4

; 1256 : 			return (false);

  00018	32 c0		 xor	 al, al
  0001a	eb 2b		 jmp	 SHORT $LN5@Buy@4
$LN4@Buy@4:

; 1257 : 		else if (max_size() < _Capacity)

  0001c	81 ff 55 55 55
	15		 cmp	 edi, 357913941		; 15555555H
  00022	76 0b		 jbe	 SHORT $LN2@Buy@4

; 1258 : 			_Xlen();	// result too long

  00024	68 00 00 00 00	 push	 OFFSET ??_C@_0BD@OLBABOEK@vector?$DMT?$DO?5too?5long?$AA@
  00029	ff 15 00 00 00
	00		 call	 DWORD PTR __imp_?_Xlength_error@std@@YAXPBD@Z
$LN19@Buy@4:
$LN2@Buy@4:

; 1259 : 		else
; 1260 : 			{	// nonempty array, allocate storage
; 1261 : 			this->_Myfirst = this->_Alval.allocate(_Capacity);

  0002f	50		 push	 eax
  00030	57		 push	 edi
  00031	e8 00 00 00 00	 call	 ??$_Allocate@UForceInfo@@@std@@YAPAUForceInfo@@IPAU1@@Z ; std::_Allocate<ForceInfo>

; 1262 : 			this->_Mylast = this->_Myfirst;
; 1263 : 			this->_Myend = this->_Myfirst + _Capacity;

  00036	6b ff 0c	 imul	 edi, 12			; 0000000cH
  00039	03 f8		 add	 edi, eax
  0003b	59		 pop	 ecx
  0003c	89 06		 mov	 DWORD PTR [esi], eax
  0003e	89 46 04	 mov	 DWORD PTR [esi+4], eax
  00041	59		 pop	 ecx
  00042	89 7e 08	 mov	 DWORD PTR [esi+8], edi

; 1264 : 			}
; 1265 : 		return (true);

  00045	b0 01		 mov	 al, 1
$LN5@Buy@4:
  00047	5f		 pop	 edi
  00048	5e		 pop	 esi

; 1266 : 		}

  00049	5d		 pop	 ebp
  0004a	c2 04 00	 ret	 4
$LN18@Buy@4:
?_Buy@?$vector@UForceInfo@@V?$allocator@UForceInfo@@@std@@@std@@IAE_NI@Z ENDP ; std::vector<ForceInfo,std::allocator<ForceInfo> >::_Buy
_TEXT	ENDS
PUBLIC	?begin@?$vector@UWeaponInfo@@V?$allocator@UWeaponInfo@@@std@@@std@@QAE?AV?$_Vector_iterator@V?$_Vector_val@UWeaponInfo@@V?$allocator@UWeaponInfo@@@std@@@std@@@2@XZ ; std::vector<WeaponInfo,std::allocator<WeaponInfo> >::begin
; Function compile flags: /Ogsp
;	COMDAT ?begin@?$vector@UWeaponInfo@@V?$allocator@UWeaponInfo@@@std@@@std@@QAE?AV?$_Vector_iterator@V?$_Vector_val@UWeaponInfo@@V?$allocator@UWeaponInfo@@@std@@@std@@@2@XZ
_TEXT	SEGMENT
___$ReturnUdt$ = 8					; size = 4
?begin@?$vector@UWeaponInfo@@V?$allocator@UWeaponInfo@@@std@@@std@@QAE?AV?$_Vector_iterator@V?$_Vector_val@UWeaponInfo@@V?$allocator@UWeaponInfo@@@std@@@std@@@2@XZ PROC ; std::vector<WeaponInfo,std::allocator<WeaponInfo> >::begin, COMDAT
; _this$ = ecx

; 781  : 		{	// return iterator for beginning of mutable sequence

  00000	55		 push	 ebp
  00001	8b ec		 mov	 ebp, esp

; 782  : 		return (iterator(this->_Myfirst, this));

  00003	8b 09		 mov	 ecx, DWORD PTR [ecx]
  00005	8b 45 08	 mov	 eax, DWORD PTR ___$ReturnUdt$[ebp]
  00008	89 08		 mov	 DWORD PTR [eax], ecx

; 783  : 		}

  0000a	5d		 pop	 ebp
  0000b	c2 04 00	 ret	 4
?begin@?$vector@UWeaponInfo@@V?$allocator@UWeaponInfo@@@std@@@std@@QAE?AV?$_Vector_iterator@V?$_Vector_val@UWeaponInfo@@V?$allocator@UWeaponInfo@@@std@@@std@@@2@XZ ENDP ; std::vector<WeaponInfo,std::allocator<WeaponInfo> >::begin
_TEXT	ENDS
PUBLIC	?end@?$vector@UWeaponInfo@@V?$allocator@UWeaponInfo@@@std@@@std@@QAE?AV?$_Vector_iterator@V?$_Vector_val@UWeaponInfo@@V?$allocator@UWeaponInfo@@@std@@@std@@@2@XZ ; std::vector<WeaponInfo,std::allocator<WeaponInfo> >::end
; Function compile flags: /Ogsp
;	COMDAT ?end@?$vector@UWeaponInfo@@V?$allocator@UWeaponInfo@@@std@@@std@@QAE?AV?$_Vector_iterator@V?$_Vector_val@UWeaponInfo@@V?$allocator@UWeaponInfo@@@std@@@std@@@2@XZ
_TEXT	SEGMENT
___$ReturnUdt$ = 8					; size = 4
?end@?$vector@UWeaponInfo@@V?$allocator@UWeaponInfo@@@std@@@std@@QAE?AV?$_Vector_iterator@V?$_Vector_val@UWeaponInfo@@V?$allocator@UWeaponInfo@@@std@@@std@@@2@XZ PROC ; std::vector<WeaponInfo,std::allocator<WeaponInfo> >::end, COMDAT
; _this$ = ecx

; 791  : 		{	// return iterator for end of mutable sequence

  00000	55		 push	 ebp
  00001	8b ec		 mov	 ebp, esp

; 792  : 		return (iterator(this->_Mylast, this));

  00003	8b 49 04	 mov	 ecx, DWORD PTR [ecx+4]
  00006	8b 45 08	 mov	 eax, DWORD PTR ___$ReturnUdt$[ebp]
  00009	89 08		 mov	 DWORD PTR [eax], ecx

; 793  : 		}

  0000b	5d		 pop	 ebp
  0000c	c2 04 00	 ret	 4
?end@?$vector@UWeaponInfo@@V?$allocator@UWeaponInfo@@@std@@@std@@QAE?AV?$_Vector_iterator@V?$_Vector_val@UWeaponInfo@@V?$allocator@UWeaponInfo@@@std@@@std@@@2@XZ ENDP ; std::vector<WeaponInfo,std::allocator<WeaponInfo> >::end
_TEXT	ENDS
PUBLIC	?begin@?$vector@UForceInfo@@V?$allocator@UForceInfo@@@std@@@std@@QAE?AV?$_Vector_iterator@V?$_Vector_val@UForceInfo@@V?$allocator@UForceInfo@@@std@@@std@@@2@XZ ; std::vector<ForceInfo,std::allocator<ForceInfo> >::begin
; Function compile flags: /Ogsp
;	COMDAT ?begin@?$vector@UForceInfo@@V?$allocator@UForceInfo@@@std@@@std@@QAE?AV?$_Vector_iterator@V?$_Vector_val@UForceInfo@@V?$allocator@UForceInfo@@@std@@@std@@@2@XZ
_TEXT	SEGMENT
___$ReturnUdt$ = 8					; size = 4
?begin@?$vector@UForceInfo@@V?$allocator@UForceInfo@@@std@@@std@@QAE?AV?$_Vector_iterator@V?$_Vector_val@UForceInfo@@V?$allocator@UForceInfo@@@std@@@std@@@2@XZ PROC ; std::vector<ForceInfo,std::allocator<ForceInfo> >::begin, COMDAT
; _this$ = ecx

; 781  : 		{	// return iterator for beginning of mutable sequence

  00000	55		 push	 ebp
  00001	8b ec		 mov	 ebp, esp

; 782  : 		return (iterator(this->_Myfirst, this));

  00003	8b 09		 mov	 ecx, DWORD PTR [ecx]
  00005	8b 45 08	 mov	 eax, DWORD PTR ___$ReturnUdt$[ebp]
  00008	89 08		 mov	 DWORD PTR [eax], ecx

; 783  : 		}

  0000a	5d		 pop	 ebp
  0000b	c2 04 00	 ret	 4
?begin@?$vector@UForceInfo@@V?$allocator@UForceInfo@@@std@@@std@@QAE?AV?$_Vector_iterator@V?$_Vector_val@UForceInfo@@V?$allocator@UForceInfo@@@std@@@std@@@2@XZ ENDP ; std::vector<ForceInfo,std::allocator<ForceInfo> >::begin
_TEXT	ENDS
PUBLIC	?end@?$vector@UForceInfo@@V?$allocator@UForceInfo@@@std@@@std@@QAE?AV?$_Vector_iterator@V?$_Vector_val@UForceInfo@@V?$allocator@UForceInfo@@@std@@@std@@@2@XZ ; std::vector<ForceInfo,std::allocator<ForceInfo> >::end
; Function compile flags: /Ogsp
;	COMDAT ?end@?$vector@UForceInfo@@V?$allocator@UForceInfo@@@std@@@std@@QAE?AV?$_Vector_iterator@V?$_Vector_val@UForceInfo@@V?$allocator@UForceInfo@@@std@@@std@@@2@XZ
_TEXT	SEGMENT
___$ReturnUdt$ = 8					; size = 4
?end@?$vector@UForceInfo@@V?$allocator@UForceInfo@@@std@@@std@@QAE?AV?$_Vector_iterator@V?$_Vector_val@UForceInfo@@V?$allocator@UForceInfo@@@std@@@std@@@2@XZ PROC ; std::vector<ForceInfo,std::allocator<ForceInfo> >::end, COMDAT
; _this$ = ecx

; 791  : 		{	// return iterator for end of mutable sequence

  00000	55		 push	 ebp
  00001	8b ec		 mov	 ebp, esp

; 792  : 		return (iterator(this->_Mylast, this));

  00003	8b 49 04	 mov	 ecx, DWORD PTR [ecx+4]
  00006	8b 45 08	 mov	 eax, DWORD PTR ___$ReturnUdt$[ebp]
  00009	89 08		 mov	 DWORD PTR [eax], ecx

; 793  : 		}

  0000b	5d		 pop	 ebp
  0000c	c2 04 00	 ret	 4
?end@?$vector@UForceInfo@@V?$allocator@UForceInfo@@@std@@@std@@QAE?AV?$_Vector_iterator@V?$_Vector_val@UForceInfo@@V?$allocator@UForceInfo@@@std@@@std@@@2@XZ ENDP ; std::vector<ForceInfo,std::allocator<ForceInfo> >::end
_TEXT	ENDS
PUBLIC	?_Make_iter@?$vector@UWeaponInfo@@V?$allocator@UWeaponInfo@@@std@@@std@@QBE?AV?$_Vector_iterator@V?$_Vector_val@UWeaponInfo@@V?$allocator@UWeaponInfo@@@std@@@std@@@2@V?$_Vector_const_iterator@V?$_Vector_val@UWeaponInfo@@V?$allocator@UWeaponInfo@@@std@@@std@@@2@@Z ; std::vector<WeaponInfo,std::allocator<WeaponInfo> >::_Make_iter
; Function compile flags: /Ogsp
;	COMDAT ?_Make_iter@?$vector@UWeaponInfo@@V?$allocator@UWeaponInfo@@@std@@@std@@QBE?AV?$_Vector_iterator@V?$_Vector_val@UWeaponInfo@@V?$allocator@UWeaponInfo@@@std@@@std@@@2@V?$_Vector_const_iterator@V?$_Vector_val@UWeaponInfo@@V?$allocator@UWeaponInfo@@@std@@@std@@@2@@Z
_TEXT	SEGMENT
___$ReturnUdt$ = 8					; size = 4
__Where$ = 12						; size = 4
?_Make_iter@?$vector@UWeaponInfo@@V?$allocator@UWeaponInfo@@@std@@@std@@QBE?AV?$_Vector_iterator@V?$_Vector_val@UWeaponInfo@@V?$allocator@UWeaponInfo@@@std@@@std@@@2@V?$_Vector_const_iterator@V?$_Vector_val@UWeaponInfo@@V?$allocator@UWeaponInfo@@@std@@@std@@@2@@Z PROC ; std::vector<WeaponInfo,std::allocator<WeaponInfo> >::_Make_iter, COMDAT
; _this$ = ecx

; 801  : 		{	// make iterator from const_iterator

  00000	55		 push	 ebp
  00001	8b ec		 mov	 ebp, esp

; 802  : 		return (iterator(_Where._Ptr, this));

  00003	8b 45 08	 mov	 eax, DWORD PTR ___$ReturnUdt$[ebp]
  00006	8b 4d 0c	 mov	 ecx, DWORD PTR __Where$[ebp]
  00009	89 08		 mov	 DWORD PTR [eax], ecx

; 803  : 		}

  0000b	5d		 pop	 ebp
  0000c	c2 08 00	 ret	 8
?_Make_iter@?$vector@UWeaponInfo@@V?$allocator@UWeaponInfo@@@std@@@std@@QBE?AV?$_Vector_iterator@V?$_Vector_val@UWeaponInfo@@V?$allocator@UWeaponInfo@@@std@@@std@@@2@V?$_Vector_const_iterator@V?$_Vector_val@UWeaponInfo@@V?$allocator@UWeaponInfo@@@std@@@std@@@2@@Z ENDP ; std::vector<WeaponInfo,std::allocator<WeaponInfo> >::_Make_iter
_TEXT	ENDS
PUBLIC	?_Make_iter@?$vector@UForceInfo@@V?$allocator@UForceInfo@@@std@@@std@@QBE?AV?$_Vector_iterator@V?$_Vector_val@UForceInfo@@V?$allocator@UForceInfo@@@std@@@std@@@2@V?$_Vector_const_iterator@V?$_Vector_val@UForceInfo@@V?$allocator@UForceInfo@@@std@@@std@@@2@@Z ; std::vector<ForceInfo,std::allocator<ForceInfo> >::_Make_iter
; Function compile flags: /Ogsp
;	COMDAT ?_Make_iter@?$vector@UForceInfo@@V?$allocator@UForceInfo@@@std@@@std@@QBE?AV?$_Vector_iterator@V?$_Vector_val@UForceInfo@@V?$allocator@UForceInfo@@@std@@@std@@@2@V?$_Vector_const_iterator@V?$_Vector_val@UForceInfo@@V?$allocator@UForceInfo@@@std@@@std@@@2@@Z
_TEXT	SEGMENT
___$ReturnUdt$ = 8					; size = 4
__Where$ = 12						; size = 4
?_Make_iter@?$vector@UForceInfo@@V?$allocator@UForceInfo@@@std@@@std@@QBE?AV?$_Vector_iterator@V?$_Vector_val@UForceInfo@@V?$allocator@UForceInfo@@@std@@@std@@@2@V?$_Vector_const_iterator@V?$_Vector_val@UForceInfo@@V?$allocator@UForceInfo@@@std@@@std@@@2@@Z PROC ; std::vector<ForceInfo,std::allocator<ForceInfo> >::_Make_iter, COMDAT
; _this$ = ecx

; 801  : 		{	// make iterator from const_iterator

  00000	55		 push	 ebp
  00001	8b ec		 mov	 ebp, esp

; 802  : 		return (iterator(_Where._Ptr, this));

  00003	8b 45 08	 mov	 eax, DWORD PTR ___$ReturnUdt$[ebp]
  00006	8b 4d 0c	 mov	 ecx, DWORD PTR __Where$[ebp]
  00009	89 08		 mov	 DWORD PTR [eax], ecx

; 803  : 		}

  0000b	5d		 pop	 ebp
  0000c	c2 08 00	 ret	 8
?_Make_iter@?$vector@UForceInfo@@V?$allocator@UForceInfo@@@std@@@std@@QBE?AV?$_Vector_iterator@V?$_Vector_val@UForceInfo@@V?$allocator@UForceInfo@@@std@@@std@@@2@V?$_Vector_const_iterator@V?$_Vector_val@UForceInfo@@V?$allocator@UForceInfo@@@std@@@std@@@2@@Z ENDP ; std::vector<ForceInfo,std::allocator<ForceInfo> >::_Make_iter
_TEXT	ENDS
PUBLIC	??9?$_Vector_const_iterator@V?$_Vector_val@UWeaponInfo@@V?$allocator@UWeaponInfo@@@std@@@std@@@std@@QBE_NABV01@@Z ; std::_Vector_const_iterator<std::_Vector_val<WeaponInfo,std::allocator<WeaponInfo> > >::operator!=
; Function compile flags: /Ogsp
;	COMDAT ??9?$_Vector_const_iterator@V?$_Vector_val@UWeaponInfo@@V?$allocator@UWeaponInfo@@@std@@@std@@@std@@QBE_NABV01@@Z
_TEXT	SEGMENT
__Right$ = 8						; size = 4
??9?$_Vector_const_iterator@V?$_Vector_val@UWeaponInfo@@V?$allocator@UWeaponInfo@@@std@@@std@@@std@@QBE_NABV01@@Z PROC ; std::_Vector_const_iterator<std::_Vector_val<WeaponInfo,std::allocator<WeaponInfo> > >::operator!=, COMDAT
; _this$ = ecx

; 207  : 		{	// test for iterator inequality

  00000	55		 push	 ebp
  00001	8b ec		 mov	 ebp, esp

; 208  : 		return (!(*this == _Right));

  00003	8b 01		 mov	 eax, DWORD PTR [ecx]
  00005	8b 55 08	 mov	 edx, DWORD PTR __Right$[ebp]
  00008	33 c9		 xor	 ecx, ecx
  0000a	3b 02		 cmp	 eax, DWORD PTR [edx]
  0000c	0f 95 c0	 setne	 al

; 209  : 		}

  0000f	5d		 pop	 ebp
  00010	c2 04 00	 ret	 4
??9?$_Vector_const_iterator@V?$_Vector_val@UWeaponInfo@@V?$allocator@UWeaponInfo@@@std@@@std@@@std@@QBE_NABV01@@Z ENDP ; std::_Vector_const_iterator<std::_Vector_val<WeaponInfo,std::allocator<WeaponInfo> > >::operator!=
_TEXT	ENDS
PUBLIC	??9?$_Vector_const_iterator@V?$_Vector_val@UForceInfo@@V?$allocator@UForceInfo@@@std@@@std@@@std@@QBE_NABV01@@Z ; std::_Vector_const_iterator<std::_Vector_val<ForceInfo,std::allocator<ForceInfo> > >::operator!=
; Function compile flags: /Ogsp
;	COMDAT ??9?$_Vector_const_iterator@V?$_Vector_val@UForceInfo@@V?$allocator@UForceInfo@@@std@@@std@@@std@@QBE_NABV01@@Z
_TEXT	SEGMENT
__Right$ = 8						; size = 4
??9?$_Vector_const_iterator@V?$_Vector_val@UForceInfo@@V?$allocator@UForceInfo@@@std@@@std@@@std@@QBE_NABV01@@Z PROC ; std::_Vector_const_iterator<std::_Vector_val<ForceInfo,std::allocator<ForceInfo> > >::operator!=, COMDAT
; _this$ = ecx

; 207  : 		{	// test for iterator inequality

  00000	55		 push	 ebp
  00001	8b ec		 mov	 ebp, esp

; 208  : 		return (!(*this == _Right));

  00003	8b 01		 mov	 eax, DWORD PTR [ecx]
  00005	8b 55 08	 mov	 edx, DWORD PTR __Right$[ebp]
  00008	33 c9		 xor	 ecx, ecx
  0000a	3b 02		 cmp	 eax, DWORD PTR [edx]
  0000c	0f 95 c0	 setne	 al

; 209  : 		}

  0000f	5d		 pop	 ebp
  00010	c2 04 00	 ret	 4
??9?$_Vector_const_iterator@V?$_Vector_val@UForceInfo@@V?$allocator@UForceInfo@@@std@@@std@@@std@@QBE_NABV01@@Z ENDP ; std::_Vector_const_iterator<std::_Vector_val<ForceInfo,std::allocator<ForceInfo> > >::operator!=
_TEXT	ENDS
PUBLIC	??$_Dest_val@V?$allocator@UForceInfo@@@std@@UForceInfo@@@std@@YAXAAV?$allocator@UForceInfo@@@0@PAUForceInfo@@@Z ; std::_Dest_val<std::allocator<ForceInfo>,ForceInfo>
; Function compile flags: /Ogsp
; File c:\program files (x86)\microsoft visual studio 10.0\vc\include\xmemory
;	COMDAT ??$_Dest_val@V?$allocator@UForceInfo@@@std@@UForceInfo@@@std@@YAXAAV?$allocator@UForceInfo@@@0@PAUForceInfo@@@Z
_TEXT	SEGMENT
__Alval$ = 8						; size = 4
__Pdest$ = 12						; size = 4
??$_Dest_val@V?$allocator@UForceInfo@@@std@@UForceInfo@@@std@@YAXAAV?$allocator@UForceInfo@@@0@PAUForceInfo@@@Z PROC ; std::_Dest_val<std::allocator<ForceInfo>,ForceInfo>, COMDAT

; 287  : 	_Alval.destroy(_Pdest);
; 288  : 	}

  00000	c3		 ret	 0
??$_Dest_val@V?$allocator@UForceInfo@@@std@@UForceInfo@@@std@@YAXAAV?$allocator@UForceInfo@@@0@PAUForceInfo@@@Z ENDP ; std::_Dest_val<std::allocator<ForceInfo>,ForceInfo>
_TEXT	ENDS
PUBLIC	??$_Copy_impl@PAUWeaponInfo@@PAU1@@std@@YAPAUWeaponInfo@@PAU1@00@Z ; std::_Copy_impl<WeaponInfo *,WeaponInfo *>
; Function compile flags: /Ogsp
; File c:\program files (x86)\microsoft visual studio 10.0\vc\include\xutility
;	COMDAT ??$_Copy_impl@PAUWeaponInfo@@PAU1@@std@@YAPAUWeaponInfo@@PAU1@00@Z
_TEXT	SEGMENT
__Cat$599474 = -4					; size = 1
__First$ = 8						; size = 4
__Last$ = 12						; size = 4
__Dest$ = 16						; size = 4
??$_Copy_impl@PAUWeaponInfo@@PAU1@@std@@YAPAUWeaponInfo@@PAU1@00@Z PROC ; std::_Copy_impl<WeaponInfo *,WeaponInfo *>, COMDAT

; 2163 : 	{	// copy [_First, _Last) to [_Dest, ...)

  00000	55		 push	 ebp
  00001	8b ec		 mov	 ebp, esp
  00003	51		 push	 ecx

; 2164 : 	return (_Copy_impl(_First, _Last,
; 2165 : 		_Dest, _Ptr_cat(_First, _Dest)));

  00004	ff 75 fc	 push	 DWORD PTR __Cat$599474[ebp]
  00007	ff 75 10	 push	 DWORD PTR __Dest$[ebp]
  0000a	ff 75 0c	 push	 DWORD PTR __Last$[ebp]
  0000d	ff 75 08	 push	 DWORD PTR __First$[ebp]
  00010	e8 00 00 00 00	 call	 ??$_Copy_impl@PAUWeaponInfo@@PAU1@@std@@YAPAUWeaponInfo@@PAU1@00U_Nonscalar_ptr_iterator_tag@0@@Z ; std::_Copy_impl<WeaponInfo *,WeaponInfo *>
  00015	83 c4 10	 add	 esp, 16			; 00000010H

; 2166 : 	}

  00018	c9		 leave
  00019	c3		 ret	 0
??$_Copy_impl@PAUWeaponInfo@@PAU1@@std@@YAPAUWeaponInfo@@PAU1@00@Z ENDP ; std::_Copy_impl<WeaponInfo *,WeaponInfo *>
_TEXT	ENDS
PUBLIC	??$_Move@PAUWeaponInfo@@PAU1@@std@@YAPAUWeaponInfo@@PAU1@00@Z ; std::_Move<WeaponInfo *,WeaponInfo *>
; Function compile flags: /Ogsp
;	COMDAT ??$_Move@PAUWeaponInfo@@PAU1@@std@@YAPAUWeaponInfo@@PAU1@00@Z
_TEXT	SEGMENT
__Cat$599481 = -4					; size = 1
__First$ = 8						; size = 4
__Last$ = 12						; size = 4
__Dest$ = 16						; size = 4
??$_Move@PAUWeaponInfo@@PAU1@@std@@YAPAUWeaponInfo@@PAU1@00@Z PROC ; std::_Move<WeaponInfo *,WeaponInfo *>, COMDAT

; 2533 : 	{	// move [_First, _Last) to [_Dest, ...), unchecked

  00000	55		 push	 ebp
  00001	8b ec		 mov	 ebp, esp
  00003	51		 push	 ecx

; 2534 : 	return (_Move(_First, _Last,
; 2535 : 		_Dest, _Ptr_cat(_First, _Dest)));

  00004	ff 75 fc	 push	 DWORD PTR __Cat$599481[ebp]
  00007	ff 75 10	 push	 DWORD PTR __Dest$[ebp]
  0000a	ff 75 0c	 push	 DWORD PTR __Last$[ebp]
  0000d	ff 75 08	 push	 DWORD PTR __First$[ebp]
  00010	e8 00 00 00 00	 call	 ??$_Move@PAUWeaponInfo@@PAU1@@std@@YAPAUWeaponInfo@@PAU1@00U_Nonscalar_ptr_iterator_tag@0@@Z ; std::_Move<WeaponInfo *,WeaponInfo *>
  00015	83 c4 10	 add	 esp, 16			; 00000010H

; 2536 : 	}

  00018	c9		 leave
  00019	c3		 ret	 0
??$_Move@PAUWeaponInfo@@PAU1@@std@@YAPAUWeaponInfo@@PAU1@00@Z ENDP ; std::_Move<WeaponInfo *,WeaponInfo *>
_TEXT	ENDS
PUBLIC	??$_Move@PAUForceInfo@@PAU1@@std@@YAPAUForceInfo@@PAU1@00@Z ; std::_Move<ForceInfo *,ForceInfo *>
; Function compile flags: /Ogsp
;	COMDAT ??$_Move@PAUForceInfo@@PAU1@@std@@YAPAUForceInfo@@PAU1@00@Z
_TEXT	SEGMENT
__Cat$599488 = -4					; size = 1
__First$ = 8						; size = 4
__Last$ = 12						; size = 4
__Dest$ = 16						; size = 4
??$_Move@PAUForceInfo@@PAU1@@std@@YAPAUForceInfo@@PAU1@00@Z PROC ; std::_Move<ForceInfo *,ForceInfo *>, COMDAT

; 2533 : 	{	// move [_First, _Last) to [_Dest, ...), unchecked

  00000	55		 push	 ebp
  00001	8b ec		 mov	 ebp, esp
  00003	51		 push	 ecx

; 2534 : 	return (_Move(_First, _Last,
; 2535 : 		_Dest, _Ptr_cat(_First, _Dest)));

  00004	ff 75 fc	 push	 DWORD PTR __Cat$599488[ebp]
  00007	ff 75 10	 push	 DWORD PTR __Dest$[ebp]
  0000a	ff 75 0c	 push	 DWORD PTR __Last$[ebp]
  0000d	ff 75 08	 push	 DWORD PTR __First$[ebp]
  00010	e8 00 00 00 00	 call	 ??$_Move@PAUForceInfo@@PAU1@@std@@YAPAUForceInfo@@PAU1@00U_Nonscalar_ptr_iterator_tag@0@@Z ; std::_Move<ForceInfo *,ForceInfo *>
  00015	83 c4 10	 add	 esp, 16			; 00000010H

; 2536 : 	}

  00018	c9		 leave
  00019	c3		 ret	 0
??$_Move@PAUForceInfo@@PAU1@@std@@YAPAUForceInfo@@PAU1@00@Z ENDP ; std::_Move<ForceInfo *,ForceInfo *>
_TEXT	ENDS
PUBLIC	?destroy@?$allocator@VioHashString@@@std@@QAEXPAVioHashString@@@Z ; std::allocator<ioHashString>::destroy
; Function compile flags: /Ogsp
; File c:\program files (x86)\microsoft visual studio 10.0\vc\include\xmemory
;	COMDAT ?destroy@?$allocator@VioHashString@@@std@@QAEXPAVioHashString@@@Z
_TEXT	SEGMENT
__Ptr$ = 8						; size = 4
?destroy@?$allocator@VioHashString@@@std@@QAEXPAVioHashString@@@Z PROC ; std::allocator<ioHashString>::destroy, COMDAT
; _this$ = ecx

; 212  : 		{	// destroy object at _Ptr

  00000	55		 push	 ebp
  00001	8b ec		 mov	 ebp, esp

; 213  : 		_Destroy(_Ptr);

  00003	8b 4d 08	 mov	 ecx, DWORD PTR __Ptr$[ebp]
  00006	ff 15 00 00 00
	00		 call	 DWORD PTR __imp_??1ioHashString@@QAE@XZ

; 214  : 		}

  0000c	5d		 pop	 ebp
  0000d	c2 04 00	 ret	 4
?destroy@?$allocator@VioHashString@@@std@@QAEXPAVioHashString@@@Z ENDP ; std::allocator<ioHashString>::destroy
_TEXT	ENDS
PUBLIC	?destroy@?$allocator@UWeaponInfo@@@std@@QAEXPAUWeaponInfo@@@Z ; std::allocator<WeaponInfo>::destroy
; Function compile flags: /Ogsp
;	COMDAT ?destroy@?$allocator@UWeaponInfo@@@std@@QAEXPAUWeaponInfo@@@Z
_TEXT	SEGMENT
__Ptr$ = 8						; size = 4
?destroy@?$allocator@UWeaponInfo@@@std@@QAEXPAUWeaponInfo@@@Z PROC ; std::allocator<WeaponInfo>::destroy, COMDAT
; _this$ = ecx

; 212  : 		{	// destroy object at _Ptr

  00000	55		 push	 ebp
  00001	8b ec		 mov	 ebp, esp

; 213  : 		_Destroy(_Ptr);

  00003	8b 4d 08	 mov	 ecx, DWORD PTR __Ptr$[ebp]
  00006	83 c1 08	 add	 ecx, 8
  00009	ff 15 00 00 00
	00		 call	 DWORD PTR __imp_??1ioHashString@@QAE@XZ

; 214  : 		}

  0000f	5d		 pop	 ebp
  00010	c2 04 00	 ret	 4
?destroy@?$allocator@UWeaponInfo@@@std@@QAEXPAUWeaponInfo@@@Z ENDP ; std::allocator<WeaponInfo>::destroy
_TEXT	ENDS
PUBLIC	??$_Cons_val@V?$allocator@VioHashString@@@std@@VioHashString@@ABV3@@std@@YAXAAV?$allocator@VioHashString@@@0@PAVioHashString@@ABV2@@Z ; std::_Cons_val<std::allocator<ioHashString>,ioHashString,ioHashString const &>
; Function compile flags: /Ogsp
;	COMDAT ??$_Cons_val@V?$allocator@VioHashString@@@std@@VioHashString@@ABV3@@std@@YAXAAV?$allocator@VioHashString@@@0@PAVioHashString@@ABV2@@Z
_TEXT	SEGMENT
__Alval$ = 8						; size = 4
__Pdest$ = 12						; size = 4
__Src$ = 16						; size = 4
??$_Cons_val@V?$allocator@VioHashString@@@std@@VioHashString@@ABV3@@std@@YAXAAV?$allocator@VioHashString@@@0@PAVioHashString@@ABV2@@Z PROC ; std::_Cons_val<std::allocator<ioHashString>,ioHashString,ioHashString const &>, COMDAT

; 279  : 	{	// construct using allocator

  00000	55		 push	 ebp
  00001	8b ec		 mov	 ebp, esp

; 280  : 	_Alval.construct(_Pdest, _STD forward<_Ty2>(_Src));

  00003	ff 75 10	 push	 DWORD PTR __Src$[ebp]
  00006	ff 75 0c	 push	 DWORD PTR __Pdest$[ebp]
  00009	e8 00 00 00 00	 call	 ??$_Construct@VioHashString@@ABV1@@std@@YAXPAVioHashString@@ABV1@@Z ; std::_Construct<ioHashString,ioHashString const &>
  0000e	59		 pop	 ecx
  0000f	59		 pop	 ecx

; 281  : 	}

  00010	5d		 pop	 ebp
  00011	c3		 ret	 0
??$_Cons_val@V?$allocator@VioHashString@@@std@@VioHashString@@ABV3@@std@@YAXAAV?$allocator@VioHashString@@@0@PAVioHashString@@ABV2@@Z ENDP ; std::_Cons_val<std::allocator<ioHashString>,ioHashString,ioHashString const &>
_TEXT	ENDS
PUBLIC	??$_Uninit_copy@PAUForceInfo@@PAU1@V?$allocator@UForceInfo@@@std@@@std@@YAPAUForceInfo@@PAU1@00AAV?$allocator@UForceInfo@@@0@U_Nonscalar_ptr_iterator_tag@0@@Z ; std::_Uninit_copy<ForceInfo *,ForceInfo *,std::allocator<ForceInfo> >
; Function compile flags: /Ogsp
; File c:\program files (x86)\microsoft visual studio 10.0\vc\include\memory
;	COMDAT ??$_Uninit_copy@PAUForceInfo@@PAU1@V?$allocator@UForceInfo@@@std@@@std@@YAPAUForceInfo@@PAU1@00AAV?$allocator@UForceInfo@@@0@U_Nonscalar_ptr_iterator_tag@0@@Z
_TEXT	SEGMENT
__First$ = 8						; size = 4
__Last$ = 12						; size = 4
__Dest$ = 16						; size = 4
__Al$ = 20						; size = 4
___formal$ = 24						; size = 1
??$_Uninit_copy@PAUForceInfo@@PAU1@V?$allocator@UForceInfo@@@std@@@std@@YAPAUForceInfo@@PAU1@00AAV?$allocator@UForceInfo@@@0@U_Nonscalar_ptr_iterator_tag@0@@Z PROC ; std::_Uninit_copy<ForceInfo *,ForceInfo *,std::allocator<ForceInfo> >, COMDAT

; 369  : 	{	// copy [_First, _Last) to raw _Dest, using _Al, arbitrary type

  00000	55		 push	 ebp
  00001	8b ec		 mov	 ebp, esp
  00003	56		 push	 esi

; 370  : 	_DEBUG_RANGE(_First, _Last);
; 371  : 	_DEBUG_POINTER(_Dest);
; 372  : 	_FwdIt _Next = _Dest;
; 373  : 
; 374  : 	_TRY_BEGIN
; 375  : 	for (; _First != _Last; ++_Dest, ++_First)

  00004	8b 75 08	 mov	 esi, DWORD PTR __First$[ebp]
  00007	eb 16		 jmp	 SHORT $LN24@Uninit_cop
$LL6@Uninit_cop:

; 376  : 		_Cons_val(_Al, _Dest, *_First);

  00009	56		 push	 esi
  0000a	ff 75 10	 push	 DWORD PTR __Dest$[ebp]
  0000d	ff 75 14	 push	 DWORD PTR __Al$[ebp]
  00010	e8 00 00 00 00	 call	 ??$_Cons_val@V?$allocator@UForceInfo@@@std@@UForceInfo@@AAU3@@std@@YAXAAV?$allocator@UForceInfo@@@0@PAUForceInfo@@AAU2@@Z ; std::_Cons_val<std::allocator<ForceInfo>,ForceInfo,ForceInfo &>
  00015	83 45 10 0c	 add	 DWORD PTR __Dest$[ebp], 12 ; 0000000cH
  00019	83 c4 0c	 add	 esp, 12			; 0000000cH
  0001c	83 c6 0c	 add	 esi, 12			; 0000000cH
$LN24@Uninit_cop:

; 370  : 	_DEBUG_RANGE(_First, _Last);
; 371  : 	_DEBUG_POINTER(_Dest);
; 372  : 	_FwdIt _Next = _Dest;
; 373  : 
; 374  : 	_TRY_BEGIN
; 375  : 	for (; _First != _Last; ++_Dest, ++_First)

  0001f	3b 75 0c	 cmp	 esi, DWORD PTR __Last$[ebp]
  00022	75 e5		 jne	 SHORT $LL6@Uninit_cop

; 377  : 	_CATCH_ALL
; 378  : 	for (; _Next != _Dest; ++_Next)
; 379  : 		_Dest_val(_Al, _Next);
; 380  : 	_RERAISE;
; 381  : 	_CATCH_END
; 382  : 	return (_Dest);

  00024	8b 45 10	 mov	 eax, DWORD PTR __Dest$[ebp]
  00027	5e		 pop	 esi

; 383  : 	}

  00028	5d		 pop	 ebp
  00029	c3		 ret	 0
??$_Uninit_copy@PAUForceInfo@@PAU1@V?$allocator@UForceInfo@@@std@@@std@@YAPAUForceInfo@@PAU1@00AAV?$allocator@UForceInfo@@@0@U_Nonscalar_ptr_iterator_tag@0@@Z ENDP ; std::_Uninit_copy<ForceInfo *,ForceInfo *,std::allocator<ForceInfo> >
_TEXT	ENDS
PUBLIC	??$_Cons_val@V?$allocator@UWeaponInfo@@@std@@UWeaponInfo@@AAU3@@std@@YAXAAV?$allocator@UWeaponInfo@@@0@PAUWeaponInfo@@AAU2@@Z ; std::_Cons_val<std::allocator<WeaponInfo>,WeaponInfo,WeaponInfo &>
;	COMDAT xdata$x
; File c:\program files (x86)\microsoft visual studio 10.0\vc\include\utility
xdata$x	SEGMENT
__unwindtable$??$_Cons_val@V?$allocator@UWeaponInfo@@@std@@UWeaponInfo@@AAU3@@std@@YAXAAV?$allocator@UWeaponInfo@@@0@PAUWeaponInfo@@AAU2@@Z DD 0ffffffffH
	DD	FLAT:__unwindfunclet$??$_Cons_val@V?$allocator@UWeaponInfo@@@std@@UWeaponInfo@@AAU3@@std@@YAXAAV?$allocator@UWeaponInfo@@@0@PAUWeaponInfo@@AAU2@@Z$0
__ehfuncinfo$??$_Cons_val@V?$allocator@UWeaponInfo@@@std@@UWeaponInfo@@AAU3@@std@@YAXAAV?$allocator@UWeaponInfo@@@0@PAUWeaponInfo@@AAU2@@Z DD 019930522H
	DD	01H
	DD	FLAT:__unwindtable$??$_Cons_val@V?$allocator@UWeaponInfo@@@std@@UWeaponInfo@@AAU3@@std@@YAXAAV?$allocator@UWeaponInfo@@@0@PAUWeaponInfo@@AAU2@@Z
	DD	2 DUP(00H)
	DD	2 DUP(00H)
	DD	00H
	DD	01H
; Function compile flags: /Ogsp
; File c:\program files (x86)\microsoft visual studio 10.0\vc\include\xmemory
xdata$x	ENDS
;	COMDAT ??$_Cons_val@V?$allocator@UWeaponInfo@@@std@@UWeaponInfo@@AAU3@@std@@YAXAAV?$allocator@UWeaponInfo@@@0@PAUWeaponInfo@@AAU2@@Z
_TEXT	SEGMENT
$T599577 = -16						; size = 4
__$EHRec$ = -12						; size = 12
__Alval$ = 8						; size = 4
__Pdest$ = 12						; size = 4
__Src$ = 16						; size = 4
??$_Cons_val@V?$allocator@UWeaponInfo@@@std@@UWeaponInfo@@AAU3@@std@@YAXAAV?$allocator@UWeaponInfo@@@0@PAUWeaponInfo@@AAU2@@Z PROC ; std::_Cons_val<std::allocator<WeaponInfo>,WeaponInfo,WeaponInfo &>, COMDAT

; 279  : 	{	// construct using allocator

  00000	6a 04		 push	 4
  00002	b8 00 00 00 00	 mov	 eax, __ehhandler$??$_Cons_val@V?$allocator@UWeaponInfo@@@std@@UWeaponInfo@@AAU3@@std@@YAXAAV?$allocator@UWeaponInfo@@@0@PAUWeaponInfo@@AAU2@@Z
  00007	e8 00 00 00 00	 call	 __EH_prolog3

; 280  : 	_Alval.construct(_Pdest, _STD forward<_Ty2>(_Src));

  0000c	8b 4d 0c	 mov	 ecx, DWORD PTR __Pdest$[ebp]
  0000f	89 4d f0	 mov	 DWORD PTR $T599577[ebp], ecx
  00012	83 65 fc 00	 and	 DWORD PTR __$EHRec$[ebp+8], 0
  00016	85 c9		 test	 ecx, ecx
  00018	74 08		 je	 SHORT $LN7@Cons_val@3
  0001a	ff 75 10	 push	 DWORD PTR __Src$[ebp]
  0001d	e8 00 00 00 00	 call	 ??0WeaponInfo@@QAE@ABU0@@Z
$LN7@Cons_val@3:

; 281  : 	}

  00022	e8 00 00 00 00	 call	 __EH_epilog3
  00027	c3		 ret	 0
_TEXT	ENDS
;	COMDAT text$x
text$x	SEGMENT
__unwindfunclet$??$_Cons_val@V?$allocator@UWeaponInfo@@@std@@UWeaponInfo@@AAU3@@std@@YAXAAV?$allocator@UWeaponInfo@@@0@PAUWeaponInfo@@AAU2@@Z$0:
  00000	ff 75 0c	 push	 DWORD PTR __Pdest$[ebp]
  00003	ff 75 f0	 push	 DWORD PTR $T599577[ebp]
  00006	e8 00 00 00 00	 call	 ??3@YAXPAX0@Z		; operator delete
  0000b	59		 pop	 ecx
  0000c	59		 pop	 ecx
  0000d	c3		 ret	 0
__ehhandler$??$_Cons_val@V?$allocator@UWeaponInfo@@@std@@UWeaponInfo@@AAU3@@std@@YAXAAV?$allocator@UWeaponInfo@@@0@PAUWeaponInfo@@AAU2@@Z:
  0000e	8b 54 24 08	 mov	 edx, DWORD PTR [esp+8]
  00012	8d 42 0c	 lea	 eax, DWORD PTR [edx+12]
  00015	8b 4a ec	 mov	 ecx, DWORD PTR [edx-20]
  00018	33 c8		 xor	 ecx, eax
  0001a	e8 00 00 00 00	 call	 @__security_check_cookie@4
  0001f	b8 00 00 00 00	 mov	 eax, OFFSET __ehfuncinfo$??$_Cons_val@V?$allocator@UWeaponInfo@@@std@@UWeaponInfo@@AAU3@@std@@YAXAAV?$allocator@UWeaponInfo@@@0@PAUWeaponInfo@@AAU2@@Z
  00024	e9 00 00 00 00	 jmp	 ___CxxFrameHandler3
text$x	ENDS
??$_Cons_val@V?$allocator@UWeaponInfo@@@std@@UWeaponInfo@@AAU3@@std@@YAXAAV?$allocator@UWeaponInfo@@@0@PAUWeaponInfo@@AAU2@@Z ENDP ; std::_Cons_val<std::allocator<WeaponInfo>,WeaponInfo,WeaponInfo &>
PUBLIC	?ProcessJumpAttack@ioParkilpyoJump@@UAEXPAVioBaseChar@@M@Z ; ioParkilpyoJump::ProcessJumpAttack
; Function compile flags: /Ogsp
; File d:\lost saga for developer\youtube\tutorial\source\src\lsclient\ioparkilpyojump.cpp
;	COMDAT ?ProcessJumpAttack@ioParkilpyoJump@@UAEXPAVioBaseChar@@M@Z
_TEXT	SEGMENT
_pOwner$ = 8						; size = 4
_fHeightGap$ = 12					; size = 4
?ProcessJumpAttack@ioParkilpyoJump@@UAEXPAVioBaseChar@@M@Z PROC ; ioParkilpyoJump::ProcessJumpAttack, COMDAT
; _this$ = ecx

; 197  : {

  00000	55		 push	 ebp
  00001	8b ec		 mov	 ebp, esp

; 198  : 	switch( m_ChargeComboState )

  00003	8b 81 f0 01 00
	00		 mov	 eax, DWORD PTR [ecx+496]
  00009	48		 dec	 eax
  0000a	74 34		 je	 SHORT $LN5@ProcessJum
  0000c	48		 dec	 eax
  0000d	74 27		 je	 SHORT $LN4@ProcessJum
  0000f	48		 dec	 eax
  00010	74 1a		 je	 SHORT $LN3@ProcessJum
  00012	48		 dec	 eax
  00013	74 0d		 je	 SHORT $LN2@ProcessJum
  00015	48		 dec	 eax
  00016	75 30		 jne	 SHORT $LN6@ProcessJum

; 212  : 	case CCS_EQUIP_OBJECT:
; 213  : 		ProcessEquipObject( pOwner );

  00018	ff 75 08	 push	 DWORD PTR _pOwner$[ebp]
  0001b	e8 00 00 00 00	 call	 ?ProcessAirJump@ioParkilpyoJump@@IAEXPAVioBaseChar@@@Z ; ioParkilpyoJump::ProcessAirJump

; 214  : 		break;

  00020	eb 26		 jmp	 SHORT $LN6@ProcessJum
$LN2@ProcessJum:

; 209  : 	case CCS_CHARGE_ATTACK:
; 210  : 		ProcessChargeAttack( pOwner );

  00022	ff 75 08	 push	 DWORD PTR _pOwner$[ebp]
  00025	e8 00 00 00 00	 call	 ?ProcessChargeAttack@ioParkilpyoJump@@IAEXPAVioBaseChar@@@Z ; ioParkilpyoJump::ProcessChargeAttack

; 211  : 		break;

  0002a	eb 1c		 jmp	 SHORT $LN6@ProcessJum
$LN3@ProcessJum:

; 206  : 	case CCS_GATHER:
; 207  : 		ProcessGathering( pOwner );

  0002c	ff 75 08	 push	 DWORD PTR _pOwner$[ebp]
  0002f	e8 00 00 00 00	 call	 ?ProcessGathering@ioParkilpyoJump@@IAEXPAVioBaseChar@@@Z ; ioParkilpyoJump::ProcessGathering

; 208  : 		break;

  00034	eb 12		 jmp	 SHORT $LN6@ProcessJum
$LN4@ProcessJum:

; 202  : 		break;
; 203  : 	case CCS_CHARGE:
; 204  : 		ProcessCharging( pOwner );

  00036	ff 75 08	 push	 DWORD PTR _pOwner$[ebp]
  00039	e8 00 00 00 00	 call	 ?ProcessCharging@ioParkilpyoJump@@IAEXPAVioBaseChar@@@Z ; ioParkilpyoJump::ProcessCharging

; 205  : 		break;

  0003e	eb 08		 jmp	 SHORT $LN6@ProcessJum
$LN5@ProcessJum:

; 199  : 	{
; 200  : 	case CCS_NORMAL:
; 201  : 		ProcessComboJumpAttack( pOwner );

  00040	ff 75 08	 push	 DWORD PTR _pOwner$[ebp]
  00043	e8 00 00 00 00	 call	 ?ProcessComboJumpAttack@ioParkilpyoJump@@IAEXPAVioBaseChar@@@Z ; ioParkilpyoJump::ProcessComboJumpAttack
$LN6@ProcessJum:

; 215  : 	}
; 216  : }

  00048	5d		 pop	 ebp
  00049	c2 08 00	 ret	 8
?ProcessJumpAttack@ioParkilpyoJump@@UAEXPAVioBaseChar@@M@Z ENDP ; ioParkilpyoJump::ProcessJumpAttack
_TEXT	ENDS
PUBLIC	__mask@@AbsDouble@
PUBLIC	__real@00000000
PUBLIC	_this$GSCopy$
PUBLIC	__$ArrayPad$
PUBLIC	?ApplyJump@ioParkilpyoJump@@UAEXPAVioBaseChar@@AAVSP2Packet@@@Z ; ioParkilpyoJump::ApplyJump
EXTRN	?ApplyAutoTargetInfo@ioBaseChar@@QAEXAAVSP2Packet@@@Z:PROC ; ioBaseChar::ApplyAutoTargetInfo
EXTRN	?SetJumpAttckTargetRot@ioBaseChar@@QAEXABUD3DXQUATERNION@@ABUD3DXVECTOR3@@1@Z:PROC ; ioBaseChar::SetJumpAttckTargetRot
EXTRN	??5SP2Packet@@QAEAAV0@AAUD3DXVECTOR3@@@Z:PROC	; SP2Packet::operator>>
EXTRN	?SetTargetRotAndMoveDirChange@ioBaseChar@@QAEXABUD3DXQUATERNION@@_N@Z:PROC ; ioBaseChar::SetTargetRotAndMoveDirChange
EXTRN	?SetForcePower@ioBaseChar@@QAEXABUD3DXVECTOR3@@MM_N@Z:PROC ; ioBaseChar::SetForcePower
EXTRN	?SetJumpPower@ioBaseChar@@QAEXM@Z:PROC		; ioBaseChar::SetJumpPower
EXTRN	?SetTargetRot@ioBaseChar@@QAEXABUD3DXQUATERNION@@@Z:PROC ; ioBaseChar::SetTargetRot
EXTRN	??5SP2Packet@@QAEAAV0@AAUD3DXQUATERNION@@@Z:PROC ; SP2Packet::operator>>
EXTRN	??5SP2Packet@@QAEAAV0@AAM@Z:PROC		; SP2Packet::operator>>
EXTRN	??5SP2Packet@@QAEAAV0@AAH@Z:PROC		; SP2Packet::operator>>
;	COMDAT __mask@@AbsDouble@
; File c:\program files (x86)\microsoft directx sdk (june 2010)\include\d3dx9math.inl
CONST	SEGMENT
__mask@@AbsDouble@ DB 0ffH, 0ffH, 0ffH, 0ffH, 0ffH, 0ffH, 0ffH, 07fH, 0ffH
	DB	0ffH, 0ffH, 0ffH, 0ffH, 0ffH, 0ffH, 07fH
CONST	ENDS
;	COMDAT __real@00000000
CONST	SEGMENT
__real@00000000 DD 000000000r			; 0
; Function compile flags: /Ogsp
; File d:\lost saga for developer\youtube\tutorial\source\src\lsclient\ioparkilpyojump.cpp
CONST	ENDS
;	COMDAT ?ApplyJump@ioParkilpyoJump@@UAEXPAVioBaseChar@@AAVSP2Packet@@@Z
_TEXT	SEGMENT
_qtRot$590481 = -80					; size = 16
_fJumpForce$590494 = -64				; size = 4
_iType$ = -60						; size = 4
_this$GSCopy$ = -56					; size = 4
_fJumpPower$590493 = -52				; size = 4
_value$599646 = -48					; size = 4
_value$599636 = -48					; size = 4
$T590500 = -44						; size = 12
_vJumpDir$590497 = -32					; size = 12
_vInputDir$590483 = -32					; size = 12
_qtRotate$590495 = -20					; size = 16
_qtRot$590491 = -20					; size = 16
_qtRot$590489 = -20					; size = 16
_qtRot$590487 = -20					; size = 16
_qtRot$590485 = -20					; size = 16
_vMoveDir$590482 = -16					; size = 12
__$ArrayPad$ = -4					; size = 4
_pOwner$ = 8						; size = 4
_rkPacket$ = 12						; size = 4
?ApplyJump@ioParkilpyoJump@@UAEXPAVioBaseChar@@AAVSP2Packet@@@Z PROC ; ioParkilpyoJump::ApplyJump, COMDAT
; _this$ = ecx

; 219  : {

  00000	55		 push	 ebp
  00001	8b ec		 mov	 ebp, esp
  00003	83 ec 50	 sub	 esp, 80			; 00000050H
  00006	a1 00 00 00 00	 mov	 eax, DWORD PTR ___security_cookie
  0000b	33 c5		 xor	 eax, ebp
  0000d	89 45 fc	 mov	 DWORD PTR __$ArrayPad$[ebp], eax
  00010	53		 push	 ebx
  00011	8b 5d 08	 mov	 ebx, DWORD PTR _pOwner$[ebp]
  00014	56		 push	 esi
  00015	8b f1		 mov	 esi, ecx
  00017	57		 push	 edi
  00018	8b 7d 0c	 mov	 edi, DWORD PTR _rkPacket$[ebp]

; 232  : 	{
; 233  : 	case CCS_NORMAL:
; 234  : 		{
; 235  : 			rkPacket >> m_nCurComboCnt;

  0001b	89 75 c8	 mov	 DWORD PTR _this$GSCopy$[ebp], esi
  0001e	85 db		 test	 ebx, ebx
  00020	0f 84 66 02 00
	00		 je	 $LN10@ApplyJump

; 220  : 	if( !pOwner ) return;
; 221  : 
; 222  : 	ioEntityGroup *pGrp = pOwner->GetGroup();
; 223  : 	if( !pGrp ) return;

  00026	83 7b 04 00	 cmp	 DWORD PTR [ebx+4], 0
  0002a	0f 84 5c 02 00
	00		 je	 $LN10@ApplyJump

; 224  : 
; 225  : 	DWORD dwDelayTime = 0;
; 226  : 	DWORD dwCurTime = FRAMEGETTIME();

  00030	ff 15 00 00 00
	00		 call	 DWORD PTR __imp_?GetSingleton@ioFrameTimer@@SAAAV1@XZ
  00036	8b c8		 mov	 ecx, eax
  00038	ff 15 00 00 00
	00		 call	 DWORD PTR __imp_?GetLoopSec@ioFrameTimer@@QBEKXZ

; 227  : 
; 228  : 	int iType;
; 229  : 	rkPacket >> iType;

  0003e	8d 45 c4	 lea	 eax, DWORD PTR _iType$[ebp]
  00041	50		 push	 eax
  00042	8b cf		 mov	 ecx, edi
  00044	e8 00 00 00 00	 call	 ??5SP2Packet@@QAEAAV0@AAH@Z ; SP2Packet::operator>>

; 230  : 
; 231  : 	switch( iType )

  00049	8b 45 c4	 mov	 eax, DWORD PTR _iType$[ebp]
  0004c	48		 dec	 eax
  0004d	0f 84 e7 01 00
	00		 je	 $LN9@ApplyJump
  00053	48		 dec	 eax
  00054	0f 84 be 01 00
	00		 je	 $LN8@ApplyJump
  0005a	48		 dec	 eax
  0005b	0f 84 93 01 00
	00		 je	 $LN7@ApplyJump
  00061	48		 dec	 eax
  00062	0f 84 67 01 00
	00		 je	 $LN6@ApplyJump
  00068	48		 dec	 eax
  00069	0f 84 3b 01 00
	00		 je	 $LN5@ApplyJump
  0006f	48		 dec	 eax
  00070	0f 85 16 02 00
	00		 jne	 $LN10@ApplyJump

; 292  : 	case CCS_DOUBLE:
; 293  : 		{
; 294  : 			float fJumpPower, fJumpForce;
; 295  : 			D3DXQUATERNION qtRotate;
; 296  : 
; 297  : 			rkPacket >> fJumpPower >> fJumpForce;

  00076	8d 45 c0	 lea	 eax, DWORD PTR _fJumpForce$590494[ebp]
  00079	50		 push	 eax
  0007a	8d 45 cc	 lea	 eax, DWORD PTR _fJumpPower$590493[ebp]
  0007d	50		 push	 eax
  0007e	8b cf		 mov	 ecx, edi
  00080	e8 00 00 00 00	 call	 ??5SP2Packet@@QAEAAV0@AAM@Z ; SP2Packet::operator>>
  00085	8b c8		 mov	 ecx, eax
  00087	e8 00 00 00 00	 call	 ??5SP2Packet@@QAEAAV0@AAM@Z ; SP2Packet::operator>>

; 298  : 			rkPacket >> qtRotate;

  0008c	8d 45 ec	 lea	 eax, DWORD PTR _qtRotate$590495[ebp]
  0008f	50		 push	 eax
  00090	8b cf		 mov	 ecx, edi
  00092	e8 00 00 00 00	 call	 ??5SP2Packet@@QAEAAV0@AAUD3DXQUATERNION@@@Z ; SP2Packet::operator>>

; 299  : 
; 300  : 			if( fJumpPower >= 0.0f )

  00097	f3 0f 10 45 cc	 movss	 xmm0, DWORD PTR _fJumpPower$590493[ebp]
  0009c	0f 2f 05 00 00
	00 00		 comiss	 xmm0, DWORD PTR __real@00000000
  000a3	0f 82 e3 01 00
	00		 jb	 $LN10@ApplyJump

; 301  : 			{
; 302  : 				pOwner->ClearSylphid();

  000a9	8b cb		 mov	 ecx, ebx
  000ab	e8 00 00 00 00	 call	 ?ClearSylphid@ioBaseChar@@QAEXXZ ; ioBaseChar::ClearSylphid

; 303  : 				m_ChargeComboState = CCS_DOUBLE;
; 304  : 
; 305  : 				m_bUsedDoubleJump = true;
; 306  : 				m_bUseExtendJump = true;
; 307  : 
; 308  : 				pOwner->SetCurJumpPowerAmt( 0.0f );

  000b0	0f 57 c0	 xorps	 xmm0, xmm0

; 309  : 				pOwner->SetForcePowerAmt( 0.0f );

  000b3	8d 45 d0	 lea	 eax, DWORD PTR _value$599636[ebp]
  000b6	c7 86 f0 01 00
	00 06 00 00 00	 mov	 DWORD PTR [esi+496], 6
  000c0	c6 86 10 02 00
	00 01		 mov	 BYTE PTR [esi+528], 1
  000c7	c6 46 10 01	 mov	 BYTE PTR [esi+16], 1
  000cb	50		 push	 eax
  000cc	8d 8b 88 0b 00
	00		 lea	 ecx, DWORD PTR [ebx+2952]
  000d2	f3 0f 11 83 90
	0e 00 00	 movss	 DWORD PTR [ebx+3728], xmm0
  000da	f3 0f 11 45 d0	 movss	 DWORD PTR _value$599636[ebp], xmm0
  000df	e8 00 00 00 00	 call	 ?EncryptValueToPool@?$CEncrypt@M@@AAEXPBD@Z ; CEncrypt<float>::EncryptValueToPool

; 310  : 				pOwner->SetGravityAmt( 0.0f );

  000e4	0f 57 c0	 xorps	 xmm0, xmm0
  000e7	8d 45 d0	 lea	 eax, DWORD PTR _value$599646[ebp]
  000ea	50		 push	 eax
  000eb	8d 8b e8 0b 00
	00		 lea	 ecx, DWORD PTR [ebx+3048]
  000f1	f3 0f 11 45 d0	 movss	 DWORD PTR _value$599646[ebp], xmm0
  000f6	e8 00 00 00 00	 call	 ?EncryptValueToPool@?$CEncrypt@M@@AAEXPBD@Z ; CEncrypt<float>::EncryptValueToPool

; 311  : 
; 312  : 				pOwner->SetTargetRot( qtRotate );

  000fb	8d 45 ec	 lea	 eax, DWORD PTR _qtRotate$590495[ebp]
  000fe	50		 push	 eax
  000ff	8b cb		 mov	 ecx, ebx
  00101	e8 00 00 00 00	 call	 ?SetTargetRot@ioBaseChar@@QAEXABUD3DXQUATERNION@@@Z ; ioBaseChar::SetTargetRot

; 313  : 				pOwner->SetJumpPower( fJumpPower );

  00106	f3 0f 10 45 cc	 movss	 xmm0, DWORD PTR _fJumpPower$590493[ebp]
  0010b	51		 push	 ecx
  0010c	8b cb		 mov	 ecx, ebx
  0010e	f3 0f 11 04 24	 movss	 DWORD PTR [esp], xmm0
  00113	e8 00 00 00 00	 call	 ?SetJumpPower@ioBaseChar@@QAEXM@Z ; ioBaseChar::SetJumpPower

; 314  : 
; 315  : 				D3DXVECTOR3 vJumpDir = pOwner->GetMoveDir();

  00118	8d b3 b4 06 00
	00		 lea	 esi, DWORD PTR [ebx+1716]
  0011e	8d 7d e0	 lea	 edi, DWORD PTR _vJumpDir$590497[ebp]
  00121	a5		 movsd
  00122	a5		 movsd

; 316  : 				if( m_fDoubleJumpForce > 0.0f )
; 317  : 					pOwner->SetForcePower( vJumpDir, fabs(m_fDoubleJumpForce), 1.0f, true );

  00123	6a 01		 push	 1
  00125	a5		 movsd
  00126	8b 75 c8	 mov	 esi, DWORD PTR _this$GSCopy$[ebp]
  00129	f3 0f 10 8e 70
	01 00 00	 movss	 xmm1, DWORD PTR [esi+368]
  00131	0f 2f 0d 00 00
	00 00		 comiss	 xmm1, DWORD PTR __real@00000000
  00138	51		 push	 ecx
  00139	51		 push	 ecx
  0013a	8b cb		 mov	 ecx, ebx
  0013c	76 05		 jbe	 SHORT $LN2@ApplyJump
  0013e	8d 45 e0	 lea	 eax, DWORD PTR _vJumpDir$590497[ebp]

; 318  : 				else

  00141	eb 32		 jmp	 SHORT $LN58@ApplyJump
$LN2@ApplyJump:

; 319  : 					pOwner->SetForcePower( -vJumpDir, fabs(m_fDoubleJumpForce), 1.0f, true );

  00143	f3 0f 10 05 00
	00 00 00	 movss	 xmm0, DWORD PTR __mask@@NegFloat@
  0014b	f3 0f 10 55 e0	 movss	 xmm2, DWORD PTR _vJumpDir$590497[ebp]
  00150	0f 57 d0	 xorps	 xmm2, xmm0
  00153	f3 0f 11 55 d4	 movss	 DWORD PTR $T590500[ebp], xmm2
  00158	f3 0f 10 55 e4	 movss	 xmm2, DWORD PTR _vJumpDir$590497[ebp+4]
  0015d	0f 57 d0	 xorps	 xmm2, xmm0
  00160	f3 0f 11 55 d8	 movss	 DWORD PTR $T590500[ebp+4], xmm2
  00165	f3 0f 10 55 e8	 movss	 xmm2, DWORD PTR _vJumpDir$590497[ebp+8]
  0016a	0f 57 d0	 xorps	 xmm2, xmm0
  0016d	f3 0f 11 55 dc	 movss	 DWORD PTR $T590500[ebp+8], xmm2
  00172	8d 45 d4	 lea	 eax, DWORD PTR $T590500[ebp]
$LN58@ApplyJump:
  00175	f3 0f 10 05 00
	00 00 00	 movss	 xmm0, DWORD PTR __real@3f800000
  0017d	f3 0f 11 44 24
	04		 movss	 DWORD PTR [esp+4], xmm0
  00183	0f 5a c1	 cvtps2pd xmm0, xmm1
  00186	66 0f 54 05 00
	00 00 00	 andpd	 xmm0, QWORD PTR __mask@@AbsDouble@
  0018e	f2 0f 5a c0	 cvtsd2ss xmm0, xmm0
  00192	f3 0f 11 04 24	 movss	 DWORD PTR [esp], xmm0
  00197	50		 push	 eax
  00198	e8 00 00 00 00	 call	 ?SetForcePower@ioBaseChar@@QAEXABUD3DXVECTOR3@@MM_N@Z ; ioBaseChar::SetForcePower

; 320  : 
; 321  : 				SetDoubleJumpAni( pOwner );

  0019d	53		 push	 ebx
  0019e	8b ce		 mov	 ecx, esi
  001a0	e8 00 00 00 00	 call	 ?SetDoubleJumpAni@ioParkilpyoJump@@IAEXPAVioBaseChar@@@Z ; ioParkilpyoJump::SetDoubleJumpAni

; 322  : 			}
; 323  : 		}
; 324  : 		break;

  001a5	e9 e2 00 00 00	 jmp	 $LN10@ApplyJump
$LN5@ApplyJump:

; 282  : 	case CCS_EQUIP_OBJECT:
; 283  : 		{
; 284  : 			D3DXQUATERNION qtRot;
; 285  : 			rkPacket >> qtRot;

  001aa	8d 45 ec	 lea	 eax, DWORD PTR _qtRot$590491[ebp]
  001ad	50		 push	 eax
  001ae	8b cf		 mov	 ecx, edi
  001b0	e8 00 00 00 00	 call	 ??5SP2Packet@@QAEAAV0@AAUD3DXQUATERNION@@@Z ; SP2Packet::operator>>

; 286  : 
; 287  : 			pOwner->SetTargetRotAndMoveDirChange( qtRot );

  001b5	6a 00		 push	 0
  001b7	8d 45 ec	 lea	 eax, DWORD PTR _qtRot$590491[ebp]
  001ba	50		 push	 eax
  001bb	8b cb		 mov	 ecx, ebx
  001bd	e8 00 00 00 00	 call	 ?SetTargetRotAndMoveDirChange@ioBaseChar@@QAEXABUD3DXQUATERNION@@_N@Z ; ioBaseChar::SetTargetRotAndMoveDirChange

; 288  : 
; 289  : 			ChangeToEquipObject( pOwner );

  001c2	53		 push	 ebx
  001c3	8b ce		 mov	 ecx, esi
  001c5	e8 00 00 00 00	 call	 ?ChangeToEquipObject@ioParkilpyoJump@@IAEXPAVioBaseChar@@@Z ; ioParkilpyoJump::ChangeToEquipObject

; 290  : 		}
; 291  : 		break;

  001ca	e9 bd 00 00 00	 jmp	 $LN10@ApplyJump
$LN6@ApplyJump:

; 270  : 	case CCS_CHARGE_ATTACK:
; 271  : 		{
; 272  : 			D3DXQUATERNION qtRot;
; 273  : 			rkPacket >> qtRot;

  001cf	8d 45 ec	 lea	 eax, DWORD PTR _qtRot$590489[ebp]
  001d2	50		 push	 eax
  001d3	8b cf		 mov	 ecx, edi
  001d5	e8 00 00 00 00	 call	 ??5SP2Packet@@QAEAAV0@AAUD3DXQUATERNION@@@Z ; SP2Packet::operator>>

; 274  : 
; 275  : 			pOwner->SetTargetRotAndMoveDirChange( qtRot );

  001da	6a 00		 push	 0
  001dc	8d 45 ec	 lea	 eax, DWORD PTR _qtRot$590489[ebp]
  001df	50		 push	 eax
  001e0	8b cb		 mov	 ecx, ebx
  001e2	e8 00 00 00 00	 call	 ?SetTargetRotAndMoveDirChange@ioBaseChar@@QAEXABUD3DXQUATERNION@@_N@Z ; ioBaseChar::SetTargetRotAndMoveDirChange

; 276  : 
; 277  : 			ChangeToChargeAttack( pOwner );

  001e7	53		 push	 ebx
  001e8	8b ce		 mov	 ecx, esi
  001ea	e8 00 00 00 00	 call	 ?ChangeToChargeAttack@ioParkilpyoJump@@IAEXPAVioBaseChar@@@Z ; ioParkilpyoJump::ChangeToChargeAttack

; 278  : 
; 279  : 			pOwner->ApplyAutoTargetInfo( rkPacket );
; 280  : 		}
; 281  : 		break;

  001ef	e9 90 00 00 00	 jmp	 $LN59@ApplyJump
$LN7@ApplyJump:

; 260  : 	case CCS_GATHER:
; 261  : 		{
; 262  : 			D3DXQUATERNION qtRot;
; 263  : 			rkPacket >> qtRot;

  001f4	8d 45 ec	 lea	 eax, DWORD PTR _qtRot$590487[ebp]
  001f7	50		 push	 eax
  001f8	8b cf		 mov	 ecx, edi
  001fa	e8 00 00 00 00	 call	 ??5SP2Packet@@QAEAAV0@AAUD3DXQUATERNION@@@Z ; SP2Packet::operator>>

; 264  : 
; 265  : 			pOwner->SetTargetRotToRotate( qtRot, true, false );

  001ff	6a 00		 push	 0
  00201	6a 01		 push	 1
  00203	8d 45 ec	 lea	 eax, DWORD PTR _qtRot$590487[ebp]
  00206	50		 push	 eax
  00207	8b cb		 mov	 ecx, ebx
  00209	e8 00 00 00 00	 call	 ?SetTargetRotToRotate@ioBaseChar@@QAEXABUD3DXQUATERNION@@_N1@Z ; ioBaseChar::SetTargetRotToRotate

; 266  : 
; 267  : 			ChangeToGathering( pOwner );

  0020e	53		 push	 ebx
  0020f	8b ce		 mov	 ecx, esi
  00211	e8 00 00 00 00	 call	 ?ChangeToGathering@ioParkilpyoJump@@IAEXPAVioBaseChar@@@Z ; ioParkilpyoJump::ChangeToGathering

; 268  : 		}
; 269  : 		break;

  00216	eb 74		 jmp	 SHORT $LN10@ApplyJump
$LN8@ApplyJump:

; 248  : 		}
; 249  : 		break;
; 250  : 	case CCS_CHARGE:
; 251  : 		{
; 252  : 			D3DXQUATERNION qtRot;
; 253  : 			rkPacket >> qtRot;

  00218	8d 45 ec	 lea	 eax, DWORD PTR _qtRot$590485[ebp]
  0021b	50		 push	 eax
  0021c	8b cf		 mov	 ecx, edi
  0021e	e8 00 00 00 00	 call	 ??5SP2Packet@@QAEAAV0@AAUD3DXQUATERNION@@@Z ; SP2Packet::operator>>

; 254  : 
; 255  : 			pOwner->SetTargetRotAndMoveDirChange( qtRot );

  00223	6a 00		 push	 0
  00225	8d 45 ec	 lea	 eax, DWORD PTR _qtRot$590485[ebp]
  00228	50		 push	 eax
  00229	8b cb		 mov	 ecx, ebx
  0022b	e8 00 00 00 00	 call	 ?SetTargetRotAndMoveDirChange@ioBaseChar@@QAEXABUD3DXQUATERNION@@_N@Z ; ioBaseChar::SetTargetRotAndMoveDirChange

; 256  : 
; 257  : 			SetChargingState( pOwner );

  00230	53		 push	 ebx
  00231	8b ce		 mov	 ecx, esi
  00233	e8 00 00 00 00	 call	 ?SetChargingState@ioParkilpyoJump@@IAEXPAVioBaseChar@@@Z ; ioParkilpyoJump::SetChargingState

; 258  : 		}
; 259  : 		break;

  00238	eb 52		 jmp	 SHORT $LN10@ApplyJump
$LN9@ApplyJump:

; 232  : 	{
; 233  : 	case CCS_NORMAL:
; 234  : 		{
; 235  : 			rkPacket >> m_nCurComboCnt;

  0023a	8d 86 fc 01 00
	00		 lea	 eax, DWORD PTR [esi+508]
  00240	50		 push	 eax
  00241	8b cf		 mov	 ecx, edi
  00243	e8 00 00 00 00	 call	 ??5SP2Packet@@QAEAAV0@AAH@Z ; SP2Packet::operator>>

; 236  : 
; 237  : 			D3DXQUATERNION qtRot;
; 238  : 			rkPacket >> qtRot;

  00248	8d 45 b0	 lea	 eax, DWORD PTR _qtRot$590481[ebp]
  0024b	50		 push	 eax
  0024c	8b cf		 mov	 ecx, edi
  0024e	e8 00 00 00 00	 call	 ??5SP2Packet@@QAEAAV0@AAUD3DXQUATERNION@@@Z ; SP2Packet::operator>>

; 239  : 
; 240  : 			D3DXVECTOR3 vMoveDir, vInputDir;
; 241  : 			rkPacket >> vMoveDir >> vInputDir;

  00253	8d 45 e0	 lea	 eax, DWORD PTR _vInputDir$590483[ebp]
  00256	50		 push	 eax
  00257	8d 45 f0	 lea	 eax, DWORD PTR _vMoveDir$590482[ebp]
  0025a	50		 push	 eax
  0025b	8b cf		 mov	 ecx, edi
  0025d	e8 00 00 00 00	 call	 ??5SP2Packet@@QAEAAV0@AAUD3DXVECTOR3@@@Z ; SP2Packet::operator>>
  00262	8b c8		 mov	 ecx, eax
  00264	e8 00 00 00 00	 call	 ??5SP2Packet@@QAEAAV0@AAUD3DXVECTOR3@@@Z ; SP2Packet::operator>>

; 242  : 
; 243  : 			pOwner->SetJumpAttckTargetRot( qtRot, vMoveDir, vInputDir );

  00269	8d 45 e0	 lea	 eax, DWORD PTR _vInputDir$590483[ebp]
  0026c	50		 push	 eax
  0026d	8d 45 f0	 lea	 eax, DWORD PTR _vMoveDir$590482[ebp]
  00270	50		 push	 eax
  00271	8d 45 b0	 lea	 eax, DWORD PTR _qtRot$590481[ebp]
  00274	50		 push	 eax
  00275	8b cb		 mov	 ecx, ebx
  00277	e8 00 00 00 00	 call	 ?SetJumpAttckTargetRot@ioBaseChar@@QAEXABUD3DXQUATERNION@@ABUD3DXVECTOR3@@1@Z ; ioBaseChar::SetJumpAttckTargetRot

; 244  : 
; 245  : 			SetComboJumpAttack( pOwner );

  0027c	53		 push	 ebx
  0027d	8b ce		 mov	 ecx, esi
  0027f	e8 00 00 00 00	 call	 ?SetComboJumpAttack@ioParkilpyoJump@@IAEXPAVioBaseChar@@@Z ; ioParkilpyoJump::SetComboJumpAttack
$LN59@ApplyJump:

; 246  : 
; 247  : 			pOwner->ApplyAutoTargetInfo( rkPacket );

  00284	57		 push	 edi
  00285	8b cb		 mov	 ecx, ebx
  00287	e8 00 00 00 00	 call	 ?ApplyAutoTargetInfo@ioBaseChar@@QAEXAAVSP2Packet@@@Z ; ioBaseChar::ApplyAutoTargetInfo
$LN10@ApplyJump:

; 325  : 	}
; 326  : }

  0028c	8b 4d fc	 mov	 ecx, DWORD PTR __$ArrayPad$[ebp]
  0028f	5f		 pop	 edi
  00290	5e		 pop	 esi
  00291	33 cd		 xor	 ecx, ebp
  00293	5b		 pop	 ebx
  00294	e8 00 00 00 00	 call	 @__security_check_cookie@4
  00299	c9		 leave
  0029a	c2 08 00	 ret	 8
?ApplyJump@ioParkilpyoJump@@UAEXPAVioBaseChar@@AAVSP2Packet@@@Z ENDP ; ioParkilpyoJump::ApplyJump
_TEXT	ENDS
PUBLIC	_this$GSCopy$
PUBLIC	__$ArrayPad$
PUBLIC	?SetDoubleJump@ioParkilpyoJump@@IAEXPAVioBaseChar@@@Z ; ioParkilpyoJump::SetDoubleJump
EXTRN	??6SP2Packet@@QAEAAV0@M@Z:PROC			; SP2Packet::operator<<
EXTRN	?ActionDoubleJump@ioTutorialManager@@QAEXXZ:PROC ; ioTutorialManager::ActionDoubleJump
EXTRN	?GetSingleton@ioTutorialManager@@SAAAV1@XZ:PROC	; ioTutorialManager::GetSingleton
;	COMDAT xdata$x
; File d:\lost saga for developer\youtube\tutorial\source\src\lsclient\iobasechar.h
xdata$x	SEGMENT
__ehfuncinfo$?SetDoubleJump@ioParkilpyoJump@@IAEXPAVioBaseChar@@@Z DD 019930522H
	DD	05H
	DD	FLAT:__unwindtable$?SetDoubleJump@ioParkilpyoJump@@IAEXPAVioBaseChar@@@Z
	DD	2 DUP(00H)
	DD	2 DUP(00H)
	DD	00H
	DD	01H
__unwindtable$?SetDoubleJump@ioParkilpyoJump@@IAEXPAVioBaseChar@@@Z DD 0ffffffffH
	DD	FLAT:__unwindfunclet$?SetDoubleJump@ioParkilpyoJump@@IAEXPAVioBaseChar@@@Z$0
	DD	0ffffffffH
	DD	FLAT:__unwindfunclet$?SetDoubleJump@ioParkilpyoJump@@IAEXPAVioBaseChar@@@Z$2
	DD	01H
	DD	FLAT:__unwindfunclet$?SetDoubleJump@ioParkilpyoJump@@IAEXPAVioBaseChar@@@Z$3
	DD	02H
	DD	FLAT:__unwindfunclet$?SetDoubleJump@ioParkilpyoJump@@IAEXPAVioBaseChar@@@Z$4
	DD	0ffffffffH
	DD	FLAT:__unwindfunclet$?SetDoubleJump@ioParkilpyoJump@@IAEXPAVioBaseChar@@@Z$5
; Function compile flags: /Ogsp
; File d:\lost saga for developer\youtube\tutorial\source\src\lsclient\ioparkilpyojump.cpp
xdata$x	ENDS
;	COMDAT ?SetDoubleJump@ioParkilpyoJump@@IAEXPAVioBaseChar@@@Z
_TEXT	SEGMENT
$T599694 = -32880					; size = 16
$T599695 = -32864					; size = 16
$T599693 = -32848					; size = 4
_this$GSCopy$ = -32844					; size = 4
_value$599724 = -32840					; size = 4
_value$599714 = -32840					; size = 4
$T599692 = -32840					; size = 4
_kPacket$590916 = -32836				; size = 32792
$T599696 = -44						; size = 16
$T590909 = -40						; size = 12
_vJumpDir$ = -28					; size = 12
__$ArrayPad$ = -16					; size = 4
__$EHRec$ = -12						; size = 12
_pOwner$ = 8						; size = 4
?SetDoubleJump@ioParkilpyoJump@@IAEXPAVioBaseChar@@@Z PROC ; ioParkilpyoJump::SetDoubleJump, COMDAT
; _this$ = ecx

; 833  : {

  00000	55		 push	 ebp
  00001	8b ec		 mov	 ebp, esp
  00003	6a ff		 push	 -1
  00005	68 00 00 00 00	 push	 __ehhandler$?SetDoubleJump@ioParkilpyoJump@@IAEXPAVioBaseChar@@@Z
  0000a	64 a1 00 00 00
	00		 mov	 eax, DWORD PTR fs:0
  00010	50		 push	 eax
  00011	b8 64 80 00 00	 mov	 eax, 32868		; 00008064H
  00016	e8 00 00 00 00	 call	 __chkstk
  0001b	a1 00 00 00 00	 mov	 eax, DWORD PTR ___security_cookie
  00020	33 c5		 xor	 eax, ebp
  00022	89 45 f0	 mov	 DWORD PTR __$ArrayPad$[ebp], eax
  00025	53		 push	 ebx
  00026	56		 push	 esi
  00027	57		 push	 edi
  00028	50		 push	 eax
  00029	8d 45 f4	 lea	 eax, DWORD PTR __$EHRec$[ebp]
  0002c	64 a3 00 00 00
	00		 mov	 DWORD PTR fs:0, eax
  00032	8b 5d 08	 mov	 ebx, DWORD PTR _pOwner$[ebp]
  00035	8b f1		 mov	 esi, ecx

; 865  : 	{
; 866  : 		SP2Packet kPacket( CUPK_DOUBLE_JUMP );

  00037	89 b5 b4 7f ff
	ff		 mov	 DWORD PTR _this$GSCopy$[ebp], esi
  0003d	85 db		 test	 ebx, ebx
  0003f	0f 84 b9 02 00
	00		 je	 $LN1@SetDoubleJ@2

; 834  : 	if( !pOwner ) 
; 835  : 		return;
; 836  : 
; 837  : 	pOwner->ClearSylphid();

  00045	8b cb		 mov	 ecx, ebx
  00047	e8 00 00 00 00	 call	 ?ClearSylphid@ioBaseChar@@QAEXXZ ; ioBaseChar::ClearSylphid

; 838  : 
; 839  : 	m_ChargeComboState = CCS_DOUBLE;
; 840  : 
; 841  : 	m_bUsedDoubleJump = true;
; 842  : 	m_bUseExtendJump = true;
; 843  : 	m_nCurJumpCnt++;
; 844  : 
; 845  : 	pOwner->SetCurJumpPowerAmt( 0.0f );

  0004c	0f 57 c0	 xorps	 xmm0, xmm0
  0004f	ff 86 0c 02 00
	00		 inc	 DWORD PTR [esi+524]

; 846  : 	pOwner->SetForcePowerAmt( 0.0f );

  00055	8d 85 b8 7f ff
	ff		 lea	 eax, DWORD PTR _value$599714[ebp]
  0005b	c7 86 f0 01 00
	00 06 00 00 00	 mov	 DWORD PTR [esi+496], 6
  00065	c6 86 10 02 00
	00 01		 mov	 BYTE PTR [esi+528], 1
  0006c	c6 46 10 01	 mov	 BYTE PTR [esi+16], 1
  00070	50		 push	 eax
  00071	8d 8b 88 0b 00
	00		 lea	 ecx, DWORD PTR [ebx+2952]
  00077	f3 0f 11 83 90
	0e 00 00	 movss	 DWORD PTR [ebx+3728], xmm0
  0007f	f3 0f 11 85 b8
	7f ff ff	 movss	 DWORD PTR _value$599714[ebp], xmm0
  00087	e8 00 00 00 00	 call	 ?EncryptValueToPool@?$CEncrypt@M@@AAEXPBD@Z ; CEncrypt<float>::EncryptValueToPool

; 847  : 	pOwner->SetGravityAmt( 0.0f );

  0008c	0f 57 c0	 xorps	 xmm0, xmm0
  0008f	8d 85 b8 7f ff
	ff		 lea	 eax, DWORD PTR _value$599724[ebp]
  00095	50		 push	 eax
  00096	8d 8b e8 0b 00
	00		 lea	 ecx, DWORD PTR [ebx+3048]
  0009c	f3 0f 11 85 b8
	7f ff ff	 movss	 DWORD PTR _value$599724[ebp], xmm0
  000a4	e8 00 00 00 00	 call	 ?EncryptValueToPool@?$CEncrypt@M@@AAEXPBD@Z ; CEncrypt<float>::EncryptValueToPool

; 848  : 	pOwner->SetJumpPower( m_fDoubleJumpPower );

  000a9	f3 0f 10 86 6c
	01 00 00	 movss	 xmm0, DWORD PTR [esi+364]
  000b1	51		 push	 ecx
  000b2	8b cb		 mov	 ecx, ebx
  000b4	f3 0f 11 04 24	 movss	 DWORD PTR [esp], xmm0
  000b9	e8 00 00 00 00	 call	 ?SetJumpPower@ioBaseChar@@QAEXM@Z ; ioBaseChar::SetJumpPower

; 849  : 
; 850  : 	D3DXVECTOR3 vJumpDir = pOwner->GetMoveDir();
; 851  : 	if( m_fDoubleJumpForce > 0.0f )

  000be	8b 85 b4 7f ff
	ff		 mov	 eax, DWORD PTR _this$GSCopy$[ebp]
  000c4	f3 0f 10 80 70
	01 00 00	 movss	 xmm0, DWORD PTR [eax+368]
  000cc	0f 2f 05 00 00
	00 00		 comiss	 xmm0, DWORD PTR __real@00000000
  000d3	8d b3 b4 06 00
	00		 lea	 esi, DWORD PTR [ebx+1716]
  000d9	8d 7d e4	 lea	 edi, DWORD PTR _vJumpDir$[ebp]
  000dc	a5		 movsd

; 852  : 		pOwner->SetForcePower( vJumpDir, fabs(m_fDoubleJumpForce), 1.0f, true );

  000dd	6a 01		 push	 1
  000df	a5		 movsd
  000e0	51		 push	 ecx
  000e1	51		 push	 ecx
  000e2	0f 5a c0	 cvtps2pd xmm0, xmm0
  000e5	66 0f 54 05 00
	00 00 00	 andpd	 xmm0, QWORD PTR __mask@@AbsDouble@
  000ed	a5		 movsd
  000ee	8b cb		 mov	 ecx, ebx
  000f0	76 1c		 jbe	 SHORT $LN3@SetDoubleJ@2
  000f2	f3 0f 10 0d 00
	00 00 00	 movss	 xmm1, DWORD PTR __real@3f800000
  000fa	f3 0f 11 4c 24
	04		 movss	 DWORD PTR [esp+4], xmm1
  00100	f2 0f 5a c0	 cvtsd2ss xmm0, xmm0
  00104	f3 0f 11 04 24	 movss	 DWORD PTR [esp], xmm0
  00109	8d 45 e4	 lea	 eax, DWORD PTR _vJumpDir$[ebp]

; 853  : 	else

  0010c	eb 4c		 jmp	 SHORT $LN42@SetDoubleJ@2
$LN3@SetDoubleJ@2:

; 854  : 		pOwner->SetForcePower( -vJumpDir, fabs(m_fDoubleJumpForce), 1.0f, true );

  0010e	f3 0f 10 4d e4	 movss	 xmm1, DWORD PTR _vJumpDir$[ebp]
  00113	f3 0f 10 55 e8	 movss	 xmm2, DWORD PTR _vJumpDir$[ebp+4]
  00118	f3 0f 10 5d ec	 movss	 xmm3, DWORD PTR _vJumpDir$[ebp+8]
  0011d	0f 57 e4	 xorps	 xmm4, xmm4
  00120	f2 0f 5a e0	 cvtsd2ss xmm4, xmm0
  00124	f3 0f 10 05 00
	00 00 00	 movss	 xmm0, DWORD PTR __mask@@NegFloat@
  0012c	0f 57 c8	 xorps	 xmm1, xmm0
  0012f	0f 57 d0	 xorps	 xmm2, xmm0
  00132	0f 57 d8	 xorps	 xmm3, xmm0
  00135	f3 0f 10 05 00
	00 00 00	 movss	 xmm0, DWORD PTR __real@3f800000
  0013d	f3 0f 11 44 24
	04		 movss	 DWORD PTR [esp+4], xmm0
  00143	f3 0f 11 4d d8	 movss	 DWORD PTR $T590909[ebp], xmm1
  00148	f3 0f 11 55 dc	 movss	 DWORD PTR $T590909[ebp+4], xmm2
  0014d	f3 0f 11 5d e0	 movss	 DWORD PTR $T590909[ebp+8], xmm3
  00152	f3 0f 11 24 24	 movss	 DWORD PTR [esp], xmm4
  00157	8d 45 d8	 lea	 eax, DWORD PTR $T590909[ebp]
$LN42@SetDoubleJ@2:
  0015a	50		 push	 eax
  0015b	e8 00 00 00 00	 call	 ?SetForcePower@ioBaseChar@@QAEXABUD3DXVECTOR3@@MM_N@Z ; ioBaseChar::SetForcePower

; 855  : 
; 856  : 	pOwner->SetEnableHide( false );

  00160	8b 35 00 00 00
	00		 mov	 esi, DWORD PTR __imp_??0ioHashString@@QAE@PBD@Z
  00166	83 ec 10	 sub	 esp, 16			; 00000010H
  00169	8b cc		 mov	 ecx, esp
  0016b	89 a5 b8 7f ff
	ff		 mov	 DWORD PTR $T599692[ebp], esp
  00171	bf 00 00 00 00	 mov	 edi, OFFSET ??_C@_00CNPNBAHC@?$AA@
  00176	57		 push	 edi
  00177	ff d6		 call	 esi
  00179	83 65 fc 00	 and	 DWORD PTR __$EHRec$[ebp+8], 0
  0017d	83 ec 10	 sub	 esp, 16			; 00000010H
  00180	8b cc		 mov	 ecx, esp
  00182	89 a5 b0 7f ff
	ff		 mov	 DWORD PTR $T599693[ebp], esp
  00188	57		 push	 edi
  00189	ff d6		 call	 esi
  0018b	83 4d fc ff	 or	 DWORD PTR __$EHRec$[ebp+8], -1
  0018f	6a 00		 push	 0
  00191	8b cb		 mov	 ecx, ebx
  00193	e8 00 00 00 00	 call	 ?SetEnableHide@ioBaseChar@@QAEX_NVioHashString@@1@Z ; ioBaseChar::SetEnableHide

; 857  : 	pOwner->SetEnableChangeTeam( false );

  00198	6a 00		 push	 0
  0019a	8b cb		 mov	 ecx, ebx
  0019c	e8 00 00 00 00	 call	 ?SetEnableChangeTeam@ioBaseChar@@QAEX_N@Z ; ioBaseChar::SetEnableChangeTeam

; 858  : 	pOwner->SetChangeJumpMotion( false, "", "", "", 0.0f );

  001a1	57		 push	 edi
  001a2	8d 8d 90 7f ff
	ff		 lea	 ecx, DWORD PTR $T599694[ebp]
  001a8	ff d6		 call	 esi
  001aa	57		 push	 edi
  001ab	8d 8d a0 7f ff
	ff		 lea	 ecx, DWORD PTR $T599695[ebp]
  001b1	c7 45 fc 01 00
	00 00		 mov	 DWORD PTR __$EHRec$[ebp+8], 1
  001b8	ff d6		 call	 esi
  001ba	57		 push	 edi
  001bb	8d 4d d4	 lea	 ecx, DWORD PTR $T599696[ebp]
  001be	c6 45 fc 02	 mov	 BYTE PTR __$EHRec$[ebp+8], 2
  001c2	ff d6		 call	 esi
  001c4	0f 57 c0	 xorps	 xmm0, xmm0
  001c7	51		 push	 ecx
  001c8	f3 0f 11 04 24	 movss	 DWORD PTR [esp], xmm0
  001cd	8d 85 90 7f ff
	ff		 lea	 eax, DWORD PTR $T599694[ebp]
  001d3	50		 push	 eax
  001d4	8d 85 a0 7f ff
	ff		 lea	 eax, DWORD PTR $T599695[ebp]
  001da	50		 push	 eax
  001db	8d 45 d4	 lea	 eax, DWORD PTR $T599696[ebp]
  001de	50		 push	 eax
  001df	6a 00		 push	 0
  001e1	8b cb		 mov	 ecx, ebx
  001e3	c6 45 fc 03	 mov	 BYTE PTR __$EHRec$[ebp+8], 3
  001e7	e8 00 00 00 00	 call	 ?SetChangeJumpMotion@ioBaseChar@@QAEX_NABVioHashString@@11M@Z ; ioBaseChar::SetChangeJumpMotion
  001ec	8b 35 00 00 00
	00		 mov	 esi, DWORD PTR __imp_??1ioHashString@@QAE@XZ
  001f2	8d 4d d4	 lea	 ecx, DWORD PTR $T599696[ebp]
  001f5	c6 45 fc 02	 mov	 BYTE PTR __$EHRec$[ebp+8], 2
  001f9	ff d6		 call	 esi
  001fb	8d 8d a0 7f ff
	ff		 lea	 ecx, DWORD PTR $T599695[ebp]
  00201	c6 45 fc 01	 mov	 BYTE PTR __$EHRec$[ebp+8], 1
  00205	ff d6		 call	 esi
  00207	83 4d fc ff	 or	 DWORD PTR __$EHRec$[ebp+8], -1
  0020b	8d 8d 90 7f ff
	ff		 lea	 ecx, DWORD PTR $T599694[ebp]
  00211	ff d6		 call	 esi

; 859  : 
; 860  : 	g_TutorialMgr.ActionDoubleJump();

  00213	e8 00 00 00 00	 call	 ?GetSingleton@ioTutorialManager@@SAAAV1@XZ ; ioTutorialManager::GetSingleton
  00218	8b c8		 mov	 ecx, eax
  0021a	e8 00 00 00 00	 call	 ?ActionDoubleJump@ioTutorialManager@@QAEXXZ ; ioTutorialManager::ActionDoubleJump

; 861  : 
; 862  : 	SetDoubleJumpAni( pOwner );

  0021f	8b b5 b4 7f ff
	ff		 mov	 esi, DWORD PTR _this$GSCopy$[ebp]
  00225	53		 push	 ebx
  00226	8b ce		 mov	 ecx, esi
  00228	e8 00 00 00 00	 call	 ?SetDoubleJumpAni@ioParkilpyoJump@@IAEXPAVioBaseChar@@@Z ; ioParkilpyoJump::SetDoubleJumpAni

; 863  : 
; 864  : 	if( pOwner->IsNeedSendNetwork() )

  0022d	8b 03		 mov	 eax, DWORD PTR [ebx]
  0022f	8b cb		 mov	 ecx, ebx
  00231	ff 90 04 01 00
	00		 call	 DWORD PTR [eax+260]
  00237	84 c0		 test	 al, al
  00239	0f 84 bf 00 00
	00		 je	 $LN1@SetDoubleJ@2

; 865  : 	{
; 866  : 		SP2Packet kPacket( CUPK_DOUBLE_JUMP );

  0023f	68 37 41 00 00	 push	 16695			; 00004137H
  00244	8d 8d bc 7f ff
	ff		 lea	 ecx, DWORD PTR _kPacket$590916[ebp]
  0024a	e8 00 00 00 00	 call	 ??0SP2Packet@@QAE@K@Z	; SP2Packet::SP2Packet

; 867  : 		kPacket << pOwner->GetCharName();

  0024f	8d 83 d4 02 00
	00		 lea	 eax, DWORD PTR [ebx+724]
  00255	50		 push	 eax
  00256	8d 8d bc 7f ff
	ff		 lea	 ecx, DWORD PTR _kPacket$590916[ebp]
  0025c	c7 45 fc 04 00
	00 00		 mov	 DWORD PTR __$EHRec$[ebp+8], 4
  00263	e8 00 00 00 00	 call	 ??6SP2Packet@@QAEAAV0@ABVioHashString@@@Z ; SP2Packet::operator<<

; 868  : 		kPacket << (int)GetType();

  00268	8b 06		 mov	 eax, DWORD PTR [esi]
  0026a	8b ce		 mov	 ecx, esi
  0026c	ff 50 08	 call	 DWORD PTR [eax+8]
  0026f	50		 push	 eax
  00270	8d 8d bc 7f ff
	ff		 lea	 ecx, DWORD PTR _kPacket$590916[ebp]
  00276	e8 00 00 00 00	 call	 ??6SP2Packet@@QAEAAV0@H@Z ; SP2Packet::operator<<

; 869  : 		kPacket << vJumpDir;

  0027b	8d 45 e4	 lea	 eax, DWORD PTR _vJumpDir$[ebp]
  0027e	50		 push	 eax
  0027f	8d 8d bc 7f ff
	ff		 lea	 ecx, DWORD PTR _kPacket$590916[ebp]
  00285	e8 00 00 00 00	 call	 ??6SP2Packet@@QAEAAV0@ABUD3DXVECTOR3@@@Z ; SP2Packet::operator<<

; 870  : 		kPacket << m_ChargeComboState;

  0028a	ff b6 f0 01 00
	00		 push	 DWORD PTR [esi+496]
  00290	8d 8d bc 7f ff
	ff		 lea	 ecx, DWORD PTR _kPacket$590916[ebp]
  00296	e8 00 00 00 00	 call	 ??6SP2Packet@@QAEAAV0@H@Z ; SP2Packet::operator<<

; 871  : 		kPacket << m_fDoubleJumpPower;

  0029b	f3 0f 10 86 6c
	01 00 00	 movss	 xmm0, DWORD PTR [esi+364]
  002a3	51		 push	 ecx
  002a4	8d 8d bc 7f ff
	ff		 lea	 ecx, DWORD PTR _kPacket$590916[ebp]
  002aa	f3 0f 11 04 24	 movss	 DWORD PTR [esp], xmm0
  002af	e8 00 00 00 00	 call	 ??6SP2Packet@@QAEAAV0@M@Z ; SP2Packet::operator<<

; 872  : 		kPacket << m_fDoubleJumpForce;

  002b4	f3 0f 10 86 70
	01 00 00	 movss	 xmm0, DWORD PTR [esi+368]
  002bc	51		 push	 ecx
  002bd	8d 8d bc 7f ff
	ff		 lea	 ecx, DWORD PTR _kPacket$590916[ebp]
  002c3	f3 0f 11 04 24	 movss	 DWORD PTR [esp], xmm0
  002c8	e8 00 00 00 00	 call	 ??6SP2Packet@@QAEAAV0@M@Z ; SP2Packet::operator<<

; 873  : 		kPacket << pOwner->GetTargetRot();

  002cd	81 c3 a4 06 00
	00		 add	 ebx, 1700		; 000006a4H
  002d3	53		 push	 ebx
  002d4	8d 8d bc 7f ff
	ff		 lea	 ecx, DWORD PTR _kPacket$590916[ebp]
  002da	e8 00 00 00 00	 call	 ??6SP2Packet@@QAEAAV0@ABUD3DXQUATERNION@@@Z ; SP2Packet::operator<<

; 874  : 		P2PNetwork::SendToAllPlayingUser( kPacket );

  002df	8d 85 bc 7f ff
	ff		 lea	 eax, DWORD PTR _kPacket$590916[ebp]
  002e5	6a 00		 push	 0
  002e7	50		 push	 eax
  002e8	e8 00 00 00 00	 call	 ?SendToAllPlayingUser@P2PNetwork@@YAXAAVSP2Packet@@PAVioBaseChar@@@Z ; P2PNetwork::SendToAllPlayingUser

; 875  : 	}

  002ed	83 4d fc ff	 or	 DWORD PTR __$EHRec$[ebp+8], -1
  002f1	59		 pop	 ecx
  002f2	59		 pop	 ecx
  002f3	8d 8d bc 7f ff
	ff		 lea	 ecx, DWORD PTR _kPacket$590916[ebp]
  002f9	e8 00 00 00 00	 call	 ??1SP2Packet@@UAE@XZ	; SP2Packet::~SP2Packet
$LN1@SetDoubleJ@2:

; 876  : }

  002fe	8b 4d f4	 mov	 ecx, DWORD PTR __$EHRec$[ebp]
  00301	64 89 0d 00 00
	00 00		 mov	 DWORD PTR fs:0, ecx
  00308	59		 pop	 ecx
  00309	5f		 pop	 edi
  0030a	5e		 pop	 esi
  0030b	5b		 pop	 ebx
  0030c	8b 4d f0	 mov	 ecx, DWORD PTR __$ArrayPad$[ebp]
  0030f	33 cd		 xor	 ecx, ebp
  00311	e8 00 00 00 00	 call	 @__security_check_cookie@4
  00316	c9		 leave
  00317	c2 04 00	 ret	 4
_TEXT	ENDS
;	COMDAT text$x
text$x	SEGMENT
__unwindfunclet$?SetDoubleJump@ioParkilpyoJump@@IAEXPAVioBaseChar@@@Z$0:
  00000	8b 8d b8 7f ff
	ff		 mov	 ecx, DWORD PTR $T599692[ebp]
  00006	ff 25 00 00 00
	00		 jmp	 DWORD PTR __imp_??1ioHashString@@QAE@XZ
__unwindfunclet$?SetDoubleJump@ioParkilpyoJump@@IAEXPAVioBaseChar@@@Z$2:
  0000c	8d 8d 90 7f ff
	ff		 lea	 ecx, DWORD PTR $T599694[ebp]
  00012	ff 25 00 00 00
	00		 jmp	 DWORD PTR __imp_??1ioHashString@@QAE@XZ
__unwindfunclet$?SetDoubleJump@ioParkilpyoJump@@IAEXPAVioBaseChar@@@Z$3:
  00018	8d 8d a0 7f ff
	ff		 lea	 ecx, DWORD PTR $T599695[ebp]
  0001e	ff 25 00 00 00
	00		 jmp	 DWORD PTR __imp_??1ioHashString@@QAE@XZ
__unwindfunclet$?SetDoubleJump@ioParkilpyoJump@@IAEXPAVioBaseChar@@@Z$4:
  00024	8d 4d d4	 lea	 ecx, DWORD PTR $T599696[ebp]
  00027	ff 25 00 00 00
	00		 jmp	 DWORD PTR __imp_??1ioHashString@@QAE@XZ
__unwindfunclet$?SetDoubleJump@ioParkilpyoJump@@IAEXPAVioBaseChar@@@Z$5:
  0002d	8d 8d bc 7f ff
	ff		 lea	 ecx, DWORD PTR _kPacket$590916[ebp]
  00033	e9 00 00 00 00	 jmp	 ??1SP2Packet@@UAE@XZ	; SP2Packet::~SP2Packet
__ehhandler$?SetDoubleJump@ioParkilpyoJump@@IAEXPAVioBaseChar@@@Z:
  00038	8b 54 24 08	 mov	 edx, DWORD PTR [esp+8]
  0003c	8d 42 0c	 lea	 eax, DWORD PTR [edx+12]
  0003f	8b 8a 8c 7f ff
	ff		 mov	 ecx, DWORD PTR [edx-32884]
  00045	33 c8		 xor	 ecx, eax
  00047	e8 00 00 00 00	 call	 @__security_check_cookie@4
  0004c	8b 4a fc	 mov	 ecx, DWORD PTR [edx-4]
  0004f	33 c8		 xor	 ecx, eax
  00051	e8 00 00 00 00	 call	 @__security_check_cookie@4
  00056	b8 00 00 00 00	 mov	 eax, OFFSET __ehfuncinfo$?SetDoubleJump@ioParkilpyoJump@@IAEXPAVioBaseChar@@@Z
  0005b	e9 00 00 00 00	 jmp	 ___CxxFrameHandler3
text$x	ENDS
?SetDoubleJump@ioParkilpyoJump@@IAEXPAVioBaseChar@@@Z ENDP ; ioParkilpyoJump::SetDoubleJump
PUBLIC	??$_Uninit_copy@V?$_Vector_const_iterator@V?$_Vector_val@UForceInfo@@V?$allocator@UForceInfo@@@std@@@std@@@std@@PAUForceInfo@@V?$allocator@UForceInfo@@@2@@std@@YAPAUForceInfo@@V?$_Vector_const_iterator@V?$_Vector_val@UForceInfo@@V?$allocator@UForceInfo@@@std@@@std@@@0@0PAU1@AAV?$allocator@UForceInfo@@@0@U_Nonscalar_ptr_iterator_tag@0@@Z ; std::_Uninit_copy<std::_Vector_const_iterator<std::_Vector_val<ForceInfo,std::allocator<ForceInfo> > >,ForceInfo *,std::allocator<ForceInfo> >
; Function compile flags: /Ogsp
; File c:\program files (x86)\microsoft visual studio 10.0\vc\include\memory
;	COMDAT ??$_Uninit_copy@V?$_Vector_const_iterator@V?$_Vector_val@UForceInfo@@V?$allocator@UForceInfo@@@std@@@std@@@std@@PAUForceInfo@@V?$allocator@UForceInfo@@@2@@std@@YAPAUForceInfo@@V?$_Vector_const_iterator@V?$_Vector_val@UForceInfo@@V?$allocator@UForceInfo@@@std@@@std@@@0@0PAU1@AAV?$allocator@UForceInfo@@@0@U_Nonscalar_ptr_iterator_tag@0@@Z
_TEXT	SEGMENT
__First$ = 8						; size = 4
__Last$ = 12						; size = 4
__Dest$ = 16						; size = 4
__Al$ = 20						; size = 4
___formal$ = 24						; size = 1
??$_Uninit_copy@V?$_Vector_const_iterator@V?$_Vector_val@UForceInfo@@V?$allocator@UForceInfo@@@std@@@std@@@std@@PAUForceInfo@@V?$allocator@UForceInfo@@@2@@std@@YAPAUForceInfo@@V?$_Vector_const_iterator@V?$_Vector_val@UForceInfo@@V?$allocator@UForceInfo@@@std@@@std@@@0@0PAU1@AAV?$allocator@UForceInfo@@@0@U_Nonscalar_ptr_iterator_tag@0@@Z PROC ; std::_Uninit_copy<std::_Vector_const_iterator<std::_Vector_val<ForceInfo,std::allocator<ForceInfo> > >,ForceInfo *,std::allocator<ForceInfo> >, COMDAT

; 369  : 	{	// copy [_First, _Last) to raw _Dest, using _Al, arbitrary type

  00000	55		 push	 ebp
  00001	8b ec		 mov	 ebp, esp

; 370  : 	_DEBUG_RANGE(_First, _Last);
; 371  : 	_DEBUG_POINTER(_Dest);
; 372  : 	_FwdIt _Next = _Dest;
; 373  : 
; 374  : 	_TRY_BEGIN
; 375  : 	for (; _First != _Last; ++_Dest, ++_First)

  00003	eb 19		 jmp	 SHORT $LN35@Uninit_cop@2
$LL14@Uninit_cop@2:

; 376  : 		_Cons_val(_Al, _Dest, *_First);

  00005	ff 75 08	 push	 DWORD PTR __First$[ebp]
  00008	ff 75 10	 push	 DWORD PTR __Dest$[ebp]
  0000b	ff 75 14	 push	 DWORD PTR __Al$[ebp]
  0000e	e8 00 00 00 00	 call	 ??$_Cons_val@V?$allocator@UForceInfo@@@std@@UForceInfo@@ABU3@@std@@YAXAAV?$allocator@UForceInfo@@@0@PAUForceInfo@@ABU2@@Z ; std::_Cons_val<std::allocator<ForceInfo>,ForceInfo,ForceInfo const &>
  00013	83 45 10 0c	 add	 DWORD PTR __Dest$[ebp], 12 ; 0000000cH
  00017	83 c4 0c	 add	 esp, 12			; 0000000cH
  0001a	83 45 08 0c	 add	 DWORD PTR __First$[ebp], 12 ; 0000000cH
$LN35@Uninit_cop@2:

; 370  : 	_DEBUG_RANGE(_First, _Last);
; 371  : 	_DEBUG_POINTER(_Dest);
; 372  : 	_FwdIt _Next = _Dest;
; 373  : 
; 374  : 	_TRY_BEGIN
; 375  : 	for (; _First != _Last; ++_Dest, ++_First)

  0001e	8b 45 08	 mov	 eax, DWORD PTR __First$[ebp]
  00021	3b 45 0c	 cmp	 eax, DWORD PTR __Last$[ebp]
  00024	75 df		 jne	 SHORT $LL14@Uninit_cop@2

; 377  : 	_CATCH_ALL
; 378  : 	for (; _Next != _Dest; ++_Next)
; 379  : 		_Dest_val(_Al, _Next);
; 380  : 	_RERAISE;
; 381  : 	_CATCH_END
; 382  : 	return (_Dest);

  00026	8b 45 10	 mov	 eax, DWORD PTR __Dest$[ebp]

; 383  : 	}

  00029	5d		 pop	 ebp
  0002a	c3		 ret	 0
??$_Uninit_copy@V?$_Vector_const_iterator@V?$_Vector_val@UForceInfo@@V?$allocator@UForceInfo@@@std@@@std@@@std@@PAUForceInfo@@V?$allocator@UForceInfo@@@2@@std@@YAPAUForceInfo@@V?$_Vector_const_iterator@V?$_Vector_val@UForceInfo@@V?$allocator@UForceInfo@@@std@@@std@@@0@0PAU1@AAV?$allocator@UForceInfo@@@0@U_Nonscalar_ptr_iterator_tag@0@@Z ENDP ; std::_Uninit_copy<std::_Vector_const_iterator<std::_Vector_val<ForceInfo,std::allocator<ForceInfo> > >,ForceInfo *,std::allocator<ForceInfo> >
_TEXT	ENDS
PUBLIC	??$_Cons_val@V?$allocator@UWeaponInfo@@@std@@UWeaponInfo@@ABU3@@std@@YAXAAV?$allocator@UWeaponInfo@@@0@PAUWeaponInfo@@ABU2@@Z ; std::_Cons_val<std::allocator<WeaponInfo>,WeaponInfo,WeaponInfo const &>
; Function compile flags: /Ogsp
; File c:\program files (x86)\microsoft visual studio 10.0\vc\include\xmemory
;	COMDAT ??$_Cons_val@V?$allocator@UWeaponInfo@@@std@@UWeaponInfo@@ABU3@@std@@YAXAAV?$allocator@UWeaponInfo@@@0@PAUWeaponInfo@@ABU2@@Z
_TEXT	SEGMENT
__Alval$ = 8						; size = 4
__Pdest$ = 12						; size = 4
__Src$ = 16						; size = 4
??$_Cons_val@V?$allocator@UWeaponInfo@@@std@@UWeaponInfo@@ABU3@@std@@YAXAAV?$allocator@UWeaponInfo@@@0@PAUWeaponInfo@@ABU2@@Z PROC ; std::_Cons_val<std::allocator<WeaponInfo>,WeaponInfo,WeaponInfo const &>, COMDAT

; 279  : 	{	// construct using allocator

  00000	55		 push	 ebp
  00001	8b ec		 mov	 ebp, esp

; 280  : 	_Alval.construct(_Pdest, _STD forward<_Ty2>(_Src));

  00003	ff 75 10	 push	 DWORD PTR __Src$[ebp]
  00006	ff 75 0c	 push	 DWORD PTR __Pdest$[ebp]
  00009	e8 00 00 00 00	 call	 ??$_Construct@UWeaponInfo@@ABU1@@std@@YAXPAUWeaponInfo@@ABU1@@Z ; std::_Construct<WeaponInfo,WeaponInfo const &>
  0000e	59		 pop	 ecx
  0000f	59		 pop	 ecx

; 281  : 	}

  00010	5d		 pop	 ebp
  00011	c3		 ret	 0
??$_Cons_val@V?$allocator@UWeaponInfo@@@std@@UWeaponInfo@@ABU3@@std@@YAXAAV?$allocator@UWeaponInfo@@@0@PAUWeaponInfo@@ABU2@@Z ENDP ; std::_Cons_val<std::allocator<WeaponInfo>,WeaponInfo,WeaponInfo const &>
_TEXT	ENDS
PUBLIC	??$_Destroy_range@V?$allocator@UForceInfo@@@std@@@std@@YAXPAUForceInfo@@0AAV?$allocator@UForceInfo@@@0@U_Nonscalar_ptr_iterator_tag@0@@Z ; std::_Destroy_range<std::allocator<ForceInfo> >
; Function compile flags: /Ogsp
;	COMDAT ??$_Destroy_range@V?$allocator@UForceInfo@@@std@@@std@@YAXPAUForceInfo@@0AAV?$allocator@UForceInfo@@@0@U_Nonscalar_ptr_iterator_tag@0@@Z
_TEXT	SEGMENT
__First$ = 8						; size = 4
__Last$ = 12						; size = 4
__Al$ = 16						; size = 4
___formal$ = 20						; size = 1
??$_Destroy_range@V?$allocator@UForceInfo@@@std@@@std@@YAXPAUForceInfo@@0AAV?$allocator@UForceInfo@@@0@U_Nonscalar_ptr_iterator_tag@0@@Z PROC ; std::_Destroy_range<std::allocator<ForceInfo> >, COMDAT

; 96   : 	for (; _First != _Last; ++_First)
; 97   : 		_Dest_val(_Al, _First);
; 98   : 	}

  00000	c3		 ret	 0
??$_Destroy_range@V?$allocator@UForceInfo@@@std@@@std@@YAXPAUForceInfo@@0AAV?$allocator@UForceInfo@@@0@U_Nonscalar_ptr_iterator_tag@0@@Z ENDP ; std::_Destroy_range<std::allocator<ForceInfo> >
_TEXT	ENDS
PUBLIC	??$_Dest_val@V?$allocator@VioHashString@@@std@@VioHashString@@@std@@YAXAAV?$allocator@VioHashString@@@0@PAVioHashString@@@Z ; std::_Dest_val<std::allocator<ioHashString>,ioHashString>
; Function compile flags: /Ogsp
;	COMDAT ??$_Dest_val@V?$allocator@VioHashString@@@std@@VioHashString@@@std@@YAXAAV?$allocator@VioHashString@@@0@PAVioHashString@@@Z
_TEXT	SEGMENT
__Alval$ = 8						; size = 4
__Pdest$ = 12						; size = 4
??$_Dest_val@V?$allocator@VioHashString@@@std@@VioHashString@@@std@@YAXAAV?$allocator@VioHashString@@@0@PAVioHashString@@@Z PROC ; std::_Dest_val<std::allocator<ioHashString>,ioHashString>, COMDAT

; 286  : 	{	// destroy using allocator

  00000	55		 push	 ebp
  00001	8b ec		 mov	 ebp, esp

; 287  : 	_Alval.destroy(_Pdest);

  00003	8b 4d 0c	 mov	 ecx, DWORD PTR __Pdest$[ebp]

; 288  : 	}

  00006	5d		 pop	 ebp

; 287  : 	_Alval.destroy(_Pdest);

  00007	ff 25 00 00 00
	00		 jmp	 DWORD PTR __imp_??1ioHashString@@QAE@XZ
??$_Dest_val@V?$allocator@VioHashString@@@std@@VioHashString@@@std@@YAXAAV?$allocator@VioHashString@@@0@PAVioHashString@@@Z ENDP ; std::_Dest_val<std::allocator<ioHashString>,ioHashString>
_TEXT	ENDS
PUBLIC	??$_Dest_val@V?$allocator@UWeaponInfo@@@std@@UWeaponInfo@@@std@@YAXAAV?$allocator@UWeaponInfo@@@0@PAUWeaponInfo@@@Z ; std::_Dest_val<std::allocator<WeaponInfo>,WeaponInfo>
; Function compile flags: /Ogsp
;	COMDAT ??$_Dest_val@V?$allocator@UWeaponInfo@@@std@@UWeaponInfo@@@std@@YAXAAV?$allocator@UWeaponInfo@@@0@PAUWeaponInfo@@@Z
_TEXT	SEGMENT
__Alval$ = 8						; size = 4
__Pdest$ = 12						; size = 4
??$_Dest_val@V?$allocator@UWeaponInfo@@@std@@UWeaponInfo@@@std@@YAXAAV?$allocator@UWeaponInfo@@@0@PAUWeaponInfo@@@Z PROC ; std::_Dest_val<std::allocator<WeaponInfo>,WeaponInfo>, COMDAT

; 286  : 	{	// destroy using allocator

  00000	55		 push	 ebp
  00001	8b ec		 mov	 ebp, esp

; 287  : 	_Alval.destroy(_Pdest);

  00003	8b 4d 0c	 mov	 ecx, DWORD PTR __Pdest$[ebp]
  00006	83 c1 08	 add	 ecx, 8

; 288  : 	}

  00009	5d		 pop	 ebp

; 287  : 	_Alval.destroy(_Pdest);

  0000a	ff 25 00 00 00
	00		 jmp	 DWORD PTR __imp_??1ioHashString@@QAE@XZ
??$_Dest_val@V?$allocator@UWeaponInfo@@@std@@UWeaponInfo@@@std@@YAXAAV?$allocator@UWeaponInfo@@@0@PAUWeaponInfo@@@Z ENDP ; std::_Dest_val<std::allocator<WeaponInfo>,WeaponInfo>
_TEXT	ENDS
PUBLIC	??$_Uninitialized_copy@PAUForceInfo@@PAU1@V?$allocator@UForceInfo@@@std@@@std@@YAPAUForceInfo@@PAU1@00AAV?$allocator@UForceInfo@@@0@@Z ; std::_Uninitialized_copy<ForceInfo *,ForceInfo *,std::allocator<ForceInfo> >
; Function compile flags: /Ogsp
; File c:\program files (x86)\microsoft visual studio 10.0\vc\include\memory
;	COMDAT ??$_Uninitialized_copy@PAUForceInfo@@PAU1@V?$allocator@UForceInfo@@@std@@@std@@YAPAUForceInfo@@PAU1@00AAV?$allocator@UForceInfo@@@0@@Z
_TEXT	SEGMENT
__Cat$599909 = -4					; size = 1
__First$ = 8						; size = 4
__Last$ = 12						; size = 4
__Dest$ = 16						; size = 4
__Al$ = 20						; size = 4
??$_Uninitialized_copy@PAUForceInfo@@PAU1@V?$allocator@UForceInfo@@@std@@@std@@YAPAUForceInfo@@PAU1@00AAV?$allocator@UForceInfo@@@0@@Z PROC ; std::_Uninitialized_copy<ForceInfo *,ForceInfo *,std::allocator<ForceInfo> >, COMDAT

; 412  : 	{	// copy [_First, _Last) to raw _Dest, using _Al

  00000	55		 push	 ebp
  00001	8b ec		 mov	 ebp, esp
  00003	51		 push	 ecx

; 413  : 	return (_Uninit_copy(_First, _Last, _Dest, _Al,
; 414  : 		_Ptr_cat(_First, _Dest)));

  00004	ff 75 fc	 push	 DWORD PTR __Cat$599909[ebp]
  00007	ff 75 14	 push	 DWORD PTR __Al$[ebp]
  0000a	ff 75 10	 push	 DWORD PTR __Dest$[ebp]
  0000d	ff 75 0c	 push	 DWORD PTR __Last$[ebp]
  00010	ff 75 08	 push	 DWORD PTR __First$[ebp]
  00013	e8 00 00 00 00	 call	 ??$_Uninit_copy@PAUForceInfo@@PAU1@V?$allocator@UForceInfo@@@std@@@std@@YAPAUForceInfo@@PAU1@00AAV?$allocator@UForceInfo@@@0@U_Nonscalar_ptr_iterator_tag@0@@Z ; std::_Uninit_copy<ForceInfo *,ForceInfo *,std::allocator<ForceInfo> >
  00018	83 c4 14	 add	 esp, 20			; 00000014H

; 415  : 	}

  0001b	c9		 leave
  0001c	c3		 ret	 0
??$_Uninitialized_copy@PAUForceInfo@@PAU1@V?$allocator@UForceInfo@@@std@@@std@@YAPAUForceInfo@@PAU1@00AAV?$allocator@UForceInfo@@@0@@Z ENDP ; std::_Uninitialized_copy<ForceInfo *,ForceInfo *,std::allocator<ForceInfo> >
_TEXT	ENDS
PUBLIC	??$_Uninit_copy@PAUWeaponInfo@@PAU1@V?$allocator@UWeaponInfo@@@std@@@std@@YAPAUWeaponInfo@@PAU1@00AAV?$allocator@UWeaponInfo@@@0@U_Nonscalar_ptr_iterator_tag@0@@Z ; std::_Uninit_copy<WeaponInfo *,WeaponInfo *,std::allocator<WeaponInfo> >
EXTRN	__EH_prolog3_catch:PROC
;	COMDAT xdata$x
; File d:\lost saga for developer\youtube\tutorial\source\src\lsclient\playentityhelpstruct.h
xdata$x	SEGMENT
__catchsym$??$_Uninit_copy@PAUWeaponInfo@@PAU1@V?$allocator@UWeaponInfo@@@std@@@std@@YAPAUWeaponInfo@@PAU1@00AAV?$allocator@UWeaponInfo@@@0@U_Nonscalar_ptr_iterator_tag@0@@Z$3 DD 040H
	DD	00H
	DD	00H
	DD	FLAT:__catch$??$_Uninit_copy@PAUWeaponInfo@@PAU1@V?$allocator@UWeaponInfo@@@std@@@std@@YAPAUWeaponInfo@@PAU1@00AAV?$allocator@UWeaponInfo@@@0@U_Nonscalar_ptr_iterator_tag@0@@Z$0
__unwindtable$??$_Uninit_copy@PAUWeaponInfo@@PAU1@V?$allocator@UWeaponInfo@@@std@@@std@@YAPAUWeaponInfo@@PAU1@00AAV?$allocator@UWeaponInfo@@@0@U_Nonscalar_ptr_iterator_tag@0@@Z DD 0ffffffffH
	DD	00H
	DD	0ffffffffH
	DD	00H
__tryblocktable$??$_Uninit_copy@PAUWeaponInfo@@PAU1@V?$allocator@UWeaponInfo@@@std@@@std@@YAPAUWeaponInfo@@PAU1@00AAV?$allocator@UWeaponInfo@@@0@U_Nonscalar_ptr_iterator_tag@0@@Z DD 00H
	DD	00H
	DD	01H
	DD	01H
	DD	FLAT:__catchsym$??$_Uninit_copy@PAUWeaponInfo@@PAU1@V?$allocator@UWeaponInfo@@@std@@@std@@YAPAUWeaponInfo@@PAU1@00AAV?$allocator@UWeaponInfo@@@0@U_Nonscalar_ptr_iterator_tag@0@@Z$3
__ehfuncinfo$??$_Uninit_copy@PAUWeaponInfo@@PAU1@V?$allocator@UWeaponInfo@@@std@@@std@@YAPAUWeaponInfo@@PAU1@00AAV?$allocator@UWeaponInfo@@@0@U_Nonscalar_ptr_iterator_tag@0@@Z DD 019930522H
	DD	02H
	DD	FLAT:__unwindtable$??$_Uninit_copy@PAUWeaponInfo@@PAU1@V?$allocator@UWeaponInfo@@@std@@@std@@YAPAUWeaponInfo@@PAU1@00AAV?$allocator@UWeaponInfo@@@0@U_Nonscalar_ptr_iterator_tag@0@@Z
	DD	01H
	DD	FLAT:__tryblocktable$??$_Uninit_copy@PAUWeaponInfo@@PAU1@V?$allocator@UWeaponInfo@@@std@@@std@@YAPAUWeaponInfo@@PAU1@00AAV?$allocator@UWeaponInfo@@@0@U_Nonscalar_ptr_iterator_tag@0@@Z
	DD	2 DUP(00H)
	DD	00H
	DD	01H
; Function compile flags: /Ogsp
; File c:\program files (x86)\microsoft visual studio 10.0\vc\include\memory
xdata$x	ENDS
;	COMDAT ??$_Uninit_copy@PAUWeaponInfo@@PAU1@V?$allocator@UWeaponInfo@@@std@@@std@@YAPAUWeaponInfo@@PAU1@00AAV?$allocator@UWeaponInfo@@@0@U_Nonscalar_ptr_iterator_tag@0@@Z
_TEXT	SEGMENT
__Next$ = -20						; size = 4
__$EHRec$ = -16						; size = 16
__First$ = 8						; size = 4
__Last$ = 12						; size = 4
__Dest$ = 16						; size = 4
__Al$ = 20						; size = 4
___formal$ = 24						; size = 1
??$_Uninit_copy@PAUWeaponInfo@@PAU1@V?$allocator@UWeaponInfo@@@std@@@std@@YAPAUWeaponInfo@@PAU1@00AAV?$allocator@UWeaponInfo@@@0@U_Nonscalar_ptr_iterator_tag@0@@Z PROC ; std::_Uninit_copy<WeaponInfo *,WeaponInfo *,std::allocator<WeaponInfo> >, COMDAT

; 369  : 	{	// copy [_First, _Last) to raw _Dest, using _Al, arbitrary type

  00000	6a 08		 push	 8
  00002	b8 00 00 00 00	 mov	 eax, __ehhandler$??$_Uninit_copy@PAUWeaponInfo@@PAU1@V?$allocator@UWeaponInfo@@@std@@@std@@YAPAUWeaponInfo@@PAU1@00AAV?$allocator@UWeaponInfo@@@0@U_Nonscalar_ptr_iterator_tag@0@@Z
  00007	e8 00 00 00 00	 call	 __EH_prolog3_catch

; 370  : 	_DEBUG_RANGE(_First, _Last);
; 371  : 	_DEBUG_POINTER(_Dest);
; 372  : 	_FwdIt _Next = _Dest;

  0000c	8b 45 10	 mov	 eax, DWORD PTR __Dest$[ebp]

; 373  : 
; 374  : 	_TRY_BEGIN

  0000f	83 65 fc 00	 and	 DWORD PTR __$EHRec$[ebp+12], 0
  00013	8b 75 08	 mov	 esi, DWORD PTR __First$[ebp]
  00016	89 45 ec	 mov	 DWORD PTR __Next$[ebp], eax
$LL6@Uninit_cop@3:

; 375  : 	for (; _First != _Last; ++_Dest, ++_First)

  00019	3b 75 0c	 cmp	 esi, DWORD PTR __Last$[ebp]
  0001c	74 37		 je	 SHORT $LN4@Uninit_cop@3

; 376  : 		_Cons_val(_Al, _Dest, *_First);

  0001e	56		 push	 esi
  0001f	ff 75 10	 push	 DWORD PTR __Dest$[ebp]
  00022	ff 75 14	 push	 DWORD PTR __Al$[ebp]
  00025	e8 00 00 00 00	 call	 ??$_Cons_val@V?$allocator@UWeaponInfo@@@std@@UWeaponInfo@@AAU3@@std@@YAXAAV?$allocator@UWeaponInfo@@@0@PAUWeaponInfo@@AAU2@@Z ; std::_Cons_val<std::allocator<WeaponInfo>,WeaponInfo,WeaponInfo &>
  0002a	83 45 10 28	 add	 DWORD PTR __Dest$[ebp], 40 ; 00000028H
  0002e	83 c4 0c	 add	 esp, 12			; 0000000cH
  00031	83 c6 28	 add	 esi, 40			; 00000028H
  00034	eb e3		 jmp	 SHORT $LL6@Uninit_cop@3
__catch$??$_Uninit_copy@PAUWeaponInfo@@PAU1@V?$allocator@UWeaponInfo@@@std@@@std@@YAPAUWeaponInfo@@PAU1@00AAV?$allocator@UWeaponInfo@@@0@U_Nonscalar_ptr_iterator_tag@0@@Z$0:

; 377  : 	_CATCH_ALL
; 378  : 	for (; _Next != _Dest; ++_Next)

  00036	8b 75 ec	 mov	 esi, DWORD PTR __Next$[ebp]
  00039	eb 0c		 jmp	 SHORT $LN32@Uninit_cop@3
$LL3@Uninit_cop@3:

; 379  : 		_Dest_val(_Al, _Next);

  0003b	8d 4e 08	 lea	 ecx, DWORD PTR [esi+8]
  0003e	ff 15 00 00 00
	00		 call	 DWORD PTR __imp_??1ioHashString@@QAE@XZ
  00044	83 c6 28	 add	 esi, 40			; 00000028H
$LN32@Uninit_cop@3:

; 377  : 	_CATCH_ALL
; 378  : 	for (; _Next != _Dest; ++_Next)

  00047	3b 75 10	 cmp	 esi, DWORD PTR __Dest$[ebp]
  0004a	75 ef		 jne	 SHORT $LL3@Uninit_cop@3

; 380  : 	_RERAISE;

  0004c	6a 00		 push	 0
  0004e	6a 00		 push	 0
  00050	e8 00 00 00 00	 call	 __CxxThrowException@8
$LN33@Uninit_cop@3:
$LN4@Uninit_cop@3:

; 381  : 	_CATCH_END
; 382  : 	return (_Dest);

  00055	8b 45 10	 mov	 eax, DWORD PTR __Dest$[ebp]

; 383  : 	}

  00058	e8 00 00 00 00	 call	 __EH_epilog3
  0005d	c3		 ret	 0
$LN31@Uninit_cop@3:
_TEXT	ENDS
;	COMDAT text$x
text$x	SEGMENT
__ehhandler$??$_Uninit_copy@PAUWeaponInfo@@PAU1@V?$allocator@UWeaponInfo@@@std@@@std@@YAPAUWeaponInfo@@PAU1@00AAV?$allocator@UWeaponInfo@@@0@U_Nonscalar_ptr_iterator_tag@0@@Z:
  00000	8b 54 24 08	 mov	 edx, DWORD PTR [esp+8]
  00004	8d 42 0c	 lea	 eax, DWORD PTR [edx+12]
  00007	8b 4a e8	 mov	 ecx, DWORD PTR [edx-24]
  0000a	33 c8		 xor	 ecx, eax
  0000c	e8 00 00 00 00	 call	 @__security_check_cookie@4
  00011	b8 00 00 00 00	 mov	 eax, OFFSET __ehfuncinfo$??$_Uninit_copy@PAUWeaponInfo@@PAU1@V?$allocator@UWeaponInfo@@@std@@@std@@YAPAUWeaponInfo@@PAU1@00AAV?$allocator@UWeaponInfo@@@0@U_Nonscalar_ptr_iterator_tag@0@@Z
  00016	e9 00 00 00 00	 jmp	 ___CxxFrameHandler3
text$x	ENDS
??$_Uninit_copy@PAUWeaponInfo@@PAU1@V?$allocator@UWeaponInfo@@@std@@@std@@YAPAUWeaponInfo@@PAU1@00AAV?$allocator@UWeaponInfo@@@0@U_Nonscalar_ptr_iterator_tag@0@@Z ENDP ; std::_Uninit_copy<WeaponInfo *,WeaponInfo *,std::allocator<WeaponInfo> >
PUBLIC	?ProcessJumpping@ioParkilpyoJump@@UAEXPAVioBaseChar@@MM@Z ; ioParkilpyoJump::ProcessJumpping
; Function compile flags: /Ogsp
; File d:\lost saga for developer\youtube\tutorial\source\src\lsclient\ioparkilpyojump.cpp
;	COMDAT ?ProcessJumpping@ioParkilpyoJump@@UAEXPAVioBaseChar@@MM@Z
_TEXT	SEGMENT
_pOwner$ = 8						; size = 4
_fHeightGap$ = 12					; size = 4
_fNeedGauge$ = 16					; size = 4
?ProcessJumpping@ioParkilpyoJump@@UAEXPAVioBaseChar@@MM@Z PROC ; ioParkilpyoJump::ProcessJumpping, COMDAT
; _this$ = ecx

; 171  : {

  00000	55		 push	 ebp
  00001	8b ec		 mov	 ebp, esp
  00003	56		 push	 esi
  00004	57		 push	 edi

; 172  : 	if( !pOwner )

  00005	8b 7d 08	 mov	 edi, DWORD PTR _pOwner$[ebp]
  00008	8b f1		 mov	 esi, ecx
  0000a	85 ff		 test	 edi, edi
  0000c	74 51		 je	 SHORT $LN1@ProcessJum@2

; 173  : 		return;
; 174  : 
; 175  : 	//   !!
; 176  : 	DWORD dwCurTime = FRAMEGETTIME();

  0000e	ff 15 00 00 00
	00		 call	 DWORD PTR __imp_?GetSingleton@ioFrameTimer@@SAAAV1@XZ
  00014	8b c8		 mov	 ecx, eax
  00016	ff 15 00 00 00
	00		 call	 DWORD PTR __imp_?GetLoopSec@ioFrameTimer@@QBEKXZ

; 177  : 
; 178  : 	// combo
; 179  : 	if( m_bReserveJumpAttack )

  0001c	80 be 08 02 00
	00 00		 cmp	 BYTE PTR [esi+520], 0
  00023	74 0a		 je	 SHORT $LN3@ProcessJum@2

; 180  : 	{
; 181  : 		SetChargingState( pOwner );

  00025	57		 push	 edi
  00026	8b ce		 mov	 ecx, esi
  00028	e8 00 00 00 00	 call	 ?SetChargingState@ioParkilpyoJump@@IAEXPAVioBaseChar@@@Z ; ioParkilpyoJump::SetChargingState

; 182  : 		return;

  0002d	eb 30		 jmp	 SHORT $LN1@ProcessJum@2
$LN3@ProcessJum@2:

; 183  : 	}
; 184  : 
; 185  : 	// Double
; 186  : 	if( IsCanDoubleJump( pOwner, fHeightGap ) )

  0002f	f3 0f 10 45 0c	 movss	 xmm0, DWORD PTR _fHeightGap$[ebp]
  00034	51		 push	 ecx
  00035	f3 0f 11 04 24	 movss	 DWORD PTR [esp], xmm0
  0003a	57		 push	 edi
  0003b	8b ce		 mov	 ecx, esi
  0003d	e8 00 00 00 00	 call	 ?IsCanDoubleJump@ioParkilpyoJump@@IAE_NPAVioBaseChar@@M@Z ; ioParkilpyoJump::IsCanDoubleJump
  00042	84 c0		 test	 al, al
  00044	74 19		 je	 SHORT $LN1@ProcessJum@2

; 187  : 	{
; 188  : 		if( m_fDoubleJumpPower >= 0.0f )

  00046	f3 0f 10 86 6c
	01 00 00	 movss	 xmm0, DWORD PTR [esi+364]
  0004e	0f 2f 05 00 00
	00 00		 comiss	 xmm0, DWORD PTR __real@00000000
  00055	72 08		 jb	 SHORT $LN1@ProcessJum@2

; 189  : 		{
; 190  : 			SetDoubleJump( pOwner );

  00057	57		 push	 edi
  00058	8b ce		 mov	 ecx, esi
  0005a	e8 00 00 00 00	 call	 ?SetDoubleJump@ioParkilpyoJump@@IAEXPAVioBaseChar@@@Z ; ioParkilpyoJump::SetDoubleJump
$LN1@ProcessJum@2:
  0005f	5f		 pop	 edi
  00060	5e		 pop	 esi

; 191  : 			return;
; 192  : 		}
; 193  : 	}
; 194  : }

  00061	5d		 pop	 ebp
  00062	c2 0c 00	 ret	 12			; 0000000cH
?ProcessJumpping@ioParkilpyoJump@@UAEXPAVioBaseChar@@MM@Z ENDP ; ioParkilpyoJump::ProcessJumpping
_TEXT	ENDS
PUBLIC	??$_Uninitialized_copy@V?$_Vector_const_iterator@V?$_Vector_val@UForceInfo@@V?$allocator@UForceInfo@@@std@@@std@@@std@@PAUForceInfo@@V?$allocator@UForceInfo@@@2@@std@@YAPAUForceInfo@@V?$_Vector_const_iterator@V?$_Vector_val@UForceInfo@@V?$allocator@UForceInfo@@@std@@@std@@@0@0PAU1@AAV?$allocator@UForceInfo@@@0@@Z ; std::_Uninitialized_copy<std::_Vector_const_iterator<std::_Vector_val<ForceInfo,std::allocator<ForceInfo> > >,ForceInfo *,std::allocator<ForceInfo> >
; Function compile flags: /Ogsp
; File c:\program files (x86)\microsoft visual studio 10.0\vc\include\memory
;	COMDAT ??$_Uninitialized_copy@V?$_Vector_const_iterator@V?$_Vector_val@UForceInfo@@V?$allocator@UForceInfo@@@std@@@std@@@std@@PAUForceInfo@@V?$allocator@UForceInfo@@@2@@std@@YAPAUForceInfo@@V?$_Vector_const_iterator@V?$_Vector_val@UForceInfo@@V?$allocator@UForceInfo@@@std@@@std@@@0@0PAU1@AAV?$allocator@UForceInfo@@@0@@Z
_TEXT	SEGMENT
__Cat$599980 = -4					; size = 1
__First$ = 8						; size = 4
__Last$ = 12						; size = 4
__Dest$ = 16						; size = 4
__Al$ = 20						; size = 4
??$_Uninitialized_copy@V?$_Vector_const_iterator@V?$_Vector_val@UForceInfo@@V?$allocator@UForceInfo@@@std@@@std@@@std@@PAUForceInfo@@V?$allocator@UForceInfo@@@2@@std@@YAPAUForceInfo@@V?$_Vector_const_iterator@V?$_Vector_val@UForceInfo@@V?$allocator@UForceInfo@@@std@@@std@@@0@0PAU1@AAV?$allocator@UForceInfo@@@0@@Z PROC ; std::_Uninitialized_copy<std::_Vector_const_iterator<std::_Vector_val<ForceInfo,std::allocator<ForceInfo> > >,ForceInfo *,std::allocator<ForceInfo> >, COMDAT

; 412  : 	{	// copy [_First, _Last) to raw _Dest, using _Al

  00000	55		 push	 ebp
  00001	8b ec		 mov	 ebp, esp
  00003	51		 push	 ecx

; 413  : 	return (_Uninit_copy(_First, _Last, _Dest, _Al,
; 414  : 		_Ptr_cat(_First, _Dest)));

  00004	ff 75 fc	 push	 DWORD PTR __Cat$599980[ebp]
  00007	ff 75 14	 push	 DWORD PTR __Al$[ebp]
  0000a	ff 75 10	 push	 DWORD PTR __Dest$[ebp]
  0000d	ff 75 0c	 push	 DWORD PTR __Last$[ebp]
  00010	ff 75 08	 push	 DWORD PTR __First$[ebp]
  00013	e8 00 00 00 00	 call	 ??$_Uninit_copy@V?$_Vector_const_iterator@V?$_Vector_val@UForceInfo@@V?$allocator@UForceInfo@@@std@@@std@@@std@@PAUForceInfo@@V?$allocator@UForceInfo@@@2@@std@@YAPAUForceInfo@@V?$_Vector_const_iterator@V?$_Vector_val@UForceInfo@@V?$allocator@UForceInfo@@@std@@@std@@@0@0PAU1@AAV?$allocator@UForceInfo@@@0@U_Nonscalar_ptr_iterator_tag@0@@Z ; std::_Uninit_copy<std::_Vector_const_iterator<std::_Vector_val<ForceInfo,std::allocator<ForceInfo> > >,ForceInfo *,std::allocator<ForceInfo> >
  00018	83 c4 14	 add	 esp, 20			; 00000014H

; 415  : 	}

  0001b	c9		 leave
  0001c	c3		 ret	 0
??$_Uninitialized_copy@V?$_Vector_const_iterator@V?$_Vector_val@UForceInfo@@V?$allocator@UForceInfo@@@std@@@std@@@std@@PAUForceInfo@@V?$allocator@UForceInfo@@@2@@std@@YAPAUForceInfo@@V?$_Vector_const_iterator@V?$_Vector_val@UForceInfo@@V?$allocator@UForceInfo@@@std@@@std@@@0@0PAU1@AAV?$allocator@UForceInfo@@@0@@Z ENDP ; std::_Uninitialized_copy<std::_Vector_const_iterator<std::_Vector_val<ForceInfo,std::allocator<ForceInfo> > >,ForceInfo *,std::allocator<ForceInfo> >
_TEXT	ENDS
PUBLIC	??$_Uninit_move@PAVioHashString@@PAV1@V?$allocator@VioHashString@@@std@@V1@@std@@YAPAVioHashString@@PAV1@00AAV?$allocator@VioHashString@@@0@0U_Nonscalar_ptr_iterator_tag@0@@Z ; std::_Uninit_move<ioHashString *,ioHashString *,std::allocator<ioHashString>,ioHashString>
;	COMDAT xdata$x
; File c:\program files (x86)\microsoft visual studio 10.0\vc\include\vector
xdata$x	SEGMENT
__catchsym$??$_Uninit_move@PAVioHashString@@PAV1@V?$allocator@VioHashString@@@std@@V1@@std@@YAPAVioHashString@@PAV1@00AAV?$allocator@VioHashString@@@0@0U_Nonscalar_ptr_iterator_tag@0@@Z$2 DD 040H
	DD	00H
	DD	00H
	DD	FLAT:__catch$??$_Uninit_move@PAVioHashString@@PAV1@V?$allocator@VioHashString@@@std@@V1@@std@@YAPAVioHashString@@PAV1@00AAV?$allocator@VioHashString@@@0@0U_Nonscalar_ptr_iterator_tag@0@@Z$0
__unwindtable$??$_Uninit_move@PAVioHashString@@PAV1@V?$allocator@VioHashString@@@std@@V1@@std@@YAPAVioHashString@@PAV1@00AAV?$allocator@VioHashString@@@0@0U_Nonscalar_ptr_iterator_tag@0@@Z DD 0ffffffffH
	DD	00H
	DD	0ffffffffH
	DD	00H
__tryblocktable$??$_Uninit_move@PAVioHashString@@PAV1@V?$allocator@VioHashString@@@std@@V1@@std@@YAPAVioHashString@@PAV1@00AAV?$allocator@VioHashString@@@0@0U_Nonscalar_ptr_iterator_tag@0@@Z DD 00H
	DD	00H
	DD	01H
	DD	01H
	DD	FLAT:__catchsym$??$_Uninit_move@PAVioHashString@@PAV1@V?$allocator@VioHashString@@@std@@V1@@std@@YAPAVioHashString@@PAV1@00AAV?$allocator@VioHashString@@@0@0U_Nonscalar_ptr_iterator_tag@0@@Z$2
__ehfuncinfo$??$_Uninit_move@PAVioHashString@@PAV1@V?$allocator@VioHashString@@@std@@V1@@std@@YAPAVioHashString@@PAV1@00AAV?$allocator@VioHashString@@@0@0U_Nonscalar_ptr_iterator_tag@0@@Z DD 019930522H
	DD	02H
	DD	FLAT:__unwindtable$??$_Uninit_move@PAVioHashString@@PAV1@V?$allocator@VioHashString@@@std@@V1@@std@@YAPAVioHashString@@PAV1@00AAV?$allocator@VioHashString@@@0@0U_Nonscalar_ptr_iterator_tag@0@@Z
	DD	01H
	DD	FLAT:__tryblocktable$??$_Uninit_move@PAVioHashString@@PAV1@V?$allocator@VioHashString@@@std@@V1@@std@@YAPAVioHashString@@PAV1@00AAV?$allocator@VioHashString@@@0@0U_Nonscalar_ptr_iterator_tag@0@@Z
	DD	2 DUP(00H)
	DD	00H
	DD	01H
; Function compile flags: /Ogsp
; File c:\program files (x86)\microsoft visual studio 10.0\vc\include\memory
xdata$x	ENDS
;	COMDAT ??$_Uninit_move@PAVioHashString@@PAV1@V?$allocator@VioHashString@@@std@@V1@@std@@YAPAVioHashString@@PAV1@00AAV?$allocator@VioHashString@@@0@0U_Nonscalar_ptr_iterator_tag@0@@Z
_TEXT	SEGMENT
__Next$ = -20						; size = 4
__$EHRec$ = -16						; size = 16
__First$ = 8						; size = 4
__Last$ = 12						; size = 4
__Dest$ = 16						; size = 4
__Al$ = 20						; size = 4
___formal$ = 24						; size = 4
___formal$ = 28						; size = 1
??$_Uninit_move@PAVioHashString@@PAV1@V?$allocator@VioHashString@@@std@@V1@@std@@YAPAVioHashString@@PAV1@00AAV?$allocator@VioHashString@@@0@0U_Nonscalar_ptr_iterator_tag@0@@Z PROC ; std::_Uninit_move<ioHashString *,ioHashString *,std::allocator<ioHashString>,ioHashString>, COMDAT

; 424  : 	{	// move [_First, _Last) to raw _Dest, using _Al, arbitrary type

  00000	6a 08		 push	 8
  00002	b8 00 00 00 00	 mov	 eax, __ehhandler$??$_Uninit_move@PAVioHashString@@PAV1@V?$allocator@VioHashString@@@std@@V1@@std@@YAPAVioHashString@@PAV1@00AAV?$allocator@VioHashString@@@0@0U_Nonscalar_ptr_iterator_tag@0@@Z
  00007	e8 00 00 00 00	 call	 __EH_prolog3_catch

; 425  : 	_DEBUG_RANGE(_First, _Last);
; 426  : 	_DEBUG_POINTER(_Dest);
; 427  : 	_FwdIt _Next = _Dest;

  0000c	8b 45 10	 mov	 eax, DWORD PTR __Dest$[ebp]

; 428  : 
; 429  : 	_TRY_BEGIN

  0000f	83 65 fc 00	 and	 DWORD PTR __$EHRec$[ebp+12], 0
  00013	8b 75 08	 mov	 esi, DWORD PTR __First$[ebp]
  00016	89 45 ec	 mov	 DWORD PTR __Next$[ebp], eax
$LL6@Uninit_mov:

; 430  : 	for (; _First != _Last; ++_Dest, ++_First)

  00019	3b 75 0c	 cmp	 esi, DWORD PTR __Last$[ebp]
  0001c	74 33		 je	 SHORT $LN4@Uninit_mov

; 431  : 		_Cons_val(_Al, _Dest, (_Valty &&)*_First);

  0001e	8b 4d 14	 mov	 ecx, DWORD PTR __Al$[ebp]
  00021	56		 push	 esi
  00022	ff 75 10	 push	 DWORD PTR __Dest$[ebp]
  00025	e8 00 00 00 00	 call	 ?construct@?$allocator@VioHashString@@@std@@QAEXPAVioHashString@@$$QAV3@@Z ; std::allocator<ioHashString>::construct
  0002a	83 45 10 10	 add	 DWORD PTR __Dest$[ebp], 16 ; 00000010H
  0002e	83 c6 10	 add	 esi, 16			; 00000010H
  00031	eb e6		 jmp	 SHORT $LL6@Uninit_mov
__catch$??$_Uninit_move@PAVioHashString@@PAV1@V?$allocator@VioHashString@@@std@@V1@@std@@YAPAVioHashString@@PAV1@00AAV?$allocator@VioHashString@@@0@0U_Nonscalar_ptr_iterator_tag@0@@Z$0:

; 432  : 	_CATCH_ALL
; 433  : 	for (; _Next != _Dest; ++_Next)

  00033	8b 75 ec	 mov	 esi, DWORD PTR __Next$[ebp]
  00036	eb 0b		 jmp	 SHORT $LN33@Uninit_mov
$LL3@Uninit_mov:

; 434  : 		_Dest_val(_Al, _Next);

  00038	8b ce		 mov	 ecx, esi
  0003a	ff 15 00 00 00
	00		 call	 DWORD PTR __imp_??1ioHashString@@QAE@XZ
  00040	83 c6 10	 add	 esi, 16			; 00000010H
$LN33@Uninit_mov:

; 432  : 	_CATCH_ALL
; 433  : 	for (; _Next != _Dest; ++_Next)

  00043	3b 75 10	 cmp	 esi, DWORD PTR __Dest$[ebp]
  00046	75 f0		 jne	 SHORT $LL3@Uninit_mov

; 435  : 	_RERAISE;

  00048	6a 00		 push	 0
  0004a	6a 00		 push	 0
  0004c	e8 00 00 00 00	 call	 __CxxThrowException@8
$LN34@Uninit_mov:
$LN4@Uninit_mov:

; 436  : 	_CATCH_END
; 437  : 	return (_Dest);

  00051	8b 45 10	 mov	 eax, DWORD PTR __Dest$[ebp]

; 438  : 	}

  00054	e8 00 00 00 00	 call	 __EH_epilog3
  00059	c3		 ret	 0
$LN32@Uninit_mov:
_TEXT	ENDS
;	COMDAT text$x
text$x	SEGMENT
__ehhandler$??$_Uninit_move@PAVioHashString@@PAV1@V?$allocator@VioHashString@@@std@@V1@@std@@YAPAVioHashString@@PAV1@00AAV?$allocator@VioHashString@@@0@0U_Nonscalar_ptr_iterator_tag@0@@Z:
  00000	8b 54 24 08	 mov	 edx, DWORD PTR [esp+8]
  00004	8d 42 0c	 lea	 eax, DWORD PTR [edx+12]
  00007	8b 4a e8	 mov	 ecx, DWORD PTR [edx-24]
  0000a	33 c8		 xor	 ecx, eax
  0000c	e8 00 00 00 00	 call	 @__security_check_cookie@4
  00011	b8 00 00 00 00	 mov	 eax, OFFSET __ehfuncinfo$??$_Uninit_move@PAVioHashString@@PAV1@V?$allocator@VioHashString@@@std@@V1@@std@@YAPAVioHashString@@PAV1@00AAV?$allocator@VioHashString@@@0@0U_Nonscalar_ptr_iterator_tag@0@@Z
  00016	e9 00 00 00 00	 jmp	 ___CxxFrameHandler3
text$x	ENDS
??$_Uninit_move@PAVioHashString@@PAV1@V?$allocator@VioHashString@@@std@@V1@@std@@YAPAVioHashString@@PAV1@00AAV?$allocator@VioHashString@@@0@0U_Nonscalar_ptr_iterator_tag@0@@Z ENDP ; std::_Uninit_move<ioHashString *,ioHashString *,std::allocator<ioHashString>,ioHashString>
PUBLIC	??$_Uninit_copy@V?$_Vector_const_iterator@V?$_Vector_val@UWeaponInfo@@V?$allocator@UWeaponInfo@@@std@@@std@@@std@@PAUWeaponInfo@@V?$allocator@UWeaponInfo@@@2@@std@@YAPAUWeaponInfo@@V?$_Vector_const_iterator@V?$_Vector_val@UWeaponInfo@@V?$allocator@UWeaponInfo@@@std@@@std@@@0@0PAU1@AAV?$allocator@UWeaponInfo@@@0@U_Nonscalar_ptr_iterator_tag@0@@Z ; std::_Uninit_copy<std::_Vector_const_iterator<std::_Vector_val<WeaponInfo,std::allocator<WeaponInfo> > >,WeaponInfo *,std::allocator<WeaponInfo> >
;	COMDAT xdata$x
; File d:\lost saga for developer\youtube\tutorial\source\src\lsclient\playentityhelpstruct.h
xdata$x	SEGMENT
__catchsym$??$_Uninit_copy@V?$_Vector_const_iterator@V?$_Vector_val@UWeaponInfo@@V?$allocator@UWeaponInfo@@@std@@@std@@@std@@PAUWeaponInfo@@V?$allocator@UWeaponInfo@@@2@@std@@YAPAUWeaponInfo@@V?$_Vector_const_iterator@V?$_Vector_val@UWeaponInfo@@V?$allocator@UWeaponInfo@@@std@@@std@@@0@0PAU1@AAV?$allocator@UWeaponInfo@@@0@U_Nonscalar_ptr_iterator_tag@0@@Z$3 DD 040H
	DD	00H
	DD	00H
	DD	FLAT:__catch$??$_Uninit_copy@V?$_Vector_const_iterator@V?$_Vector_val@UWeaponInfo@@V?$allocator@UWeaponInfo@@@std@@@std@@@std@@PAUWeaponInfo@@V?$allocator@UWeaponInfo@@@2@@std@@YAPAUWeaponInfo@@V?$_Vector_const_iterator@V?$_Vector_val@UWeaponInfo@@V?$allocator@UWeaponInfo@@@std@@@std@@@0@0PAU1@AAV?$allocator@UWeaponInfo@@@0@U_Nonscalar_ptr_iterator_tag@0@@Z$0
__unwindtable$??$_Uninit_copy@V?$_Vector_const_iterator@V?$_Vector_val@UWeaponInfo@@V?$allocator@UWeaponInfo@@@std@@@std@@@std@@PAUWeaponInfo@@V?$allocator@UWeaponInfo@@@2@@std@@YAPAUWeaponInfo@@V?$_Vector_const_iterator@V?$_Vector_val@UWeaponInfo@@V?$allocator@UWeaponInfo@@@std@@@std@@@0@0PAU1@AAV?$allocator@UWeaponInfo@@@0@U_Nonscalar_ptr_iterator_tag@0@@Z DD 0ffffffffH
	DD	00H
	DD	0ffffffffH
	DD	00H
__tryblocktable$??$_Uninit_copy@V?$_Vector_const_iterator@V?$_Vector_val@UWeaponInfo@@V?$allocator@UWeaponInfo@@@std@@@std@@@std@@PAUWeaponInfo@@V?$allocator@UWeaponInfo@@@2@@std@@YAPAUWeaponInfo@@V?$_Vector_const_iterator@V?$_Vector_val@UWeaponInfo@@V?$allocator@UWeaponInfo@@@std@@@std@@@0@0PAU1@AAV?$allocator@UWeaponInfo@@@0@U_Nonscalar_ptr_iterator_tag@0@@Z DD 00H
	DD	00H
	DD	01H
	DD	01H
	DD	FLAT:__catchsym$??$_Uninit_copy@V?$_Vector_const_iterator@V?$_Vector_val@UWeaponInfo@@V?$allocator@UWeaponInfo@@@std@@@std@@@std@@PAUWeaponInfo@@V?$allocator@UWeaponInfo@@@2@@std@@YAPAUWeaponInfo@@V?$_Vector_const_iterator@V?$_Vector_val@UWeaponInfo@@V?$allocator@UWeaponInfo@@@std@@@std@@@0@0PAU1@AAV?$allocator@UWeaponInfo@@@0@U_Nonscalar_ptr_iterator_tag@0@@Z$3
__ehfuncinfo$??$_Uninit_copy@V?$_Vector_const_iterator@V?$_Vector_val@UWeaponInfo@@V?$allocator@UWeaponInfo@@@std@@@std@@@std@@PAUWeaponInfo@@V?$allocator@UWeaponInfo@@@2@@std@@YAPAUWeaponInfo@@V?$_Vector_const_iterator@V?$_Vector_val@UWeaponInfo@@V?$allocator@UWeaponInfo@@@std@@@std@@@0@0PAU1@AAV?$allocator@UWeaponInfo@@@0@U_Nonscalar_ptr_iterator_tag@0@@Z DD 019930522H
	DD	02H
	DD	FLAT:__unwindtable$??$_Uninit_copy@V?$_Vector_const_iterator@V?$_Vector_val@UWeaponInfo@@V?$allocator@UWeaponInfo@@@std@@@std@@@std@@PAUWeaponInfo@@V?$allocator@UWeaponInfo@@@2@@std@@YAPAUWeaponInfo@@V?$_Vector_const_iterator@V?$_Vector_val@UWeaponInfo@@V?$allocator@UWeaponInfo@@@std@@@std@@@0@0PAU1@AAV?$allocator@UWeaponInfo@@@0@U_Nonscalar_ptr_iterator_tag@0@@Z
	DD	01H
	DD	FLAT:__tryblocktable$??$_Uninit_copy@V?$_Vector_const_iterator@V?$_Vector_val@UWeaponInfo@@V?$allocator@UWeaponInfo@@@std@@@std@@@std@@PAUWeaponInfo@@V?$allocator@UWeaponInfo@@@2@@std@@YAPAUWeaponInfo@@V?$_Vector_const_iterator@V?$_Vector_val@UWeaponInfo@@V?$allocator@UWeaponInfo@@@std@@@std@@@0@0PAU1@AAV?$allocator@UWeaponInfo@@@0@U_Nonscalar_ptr_iterator_tag@0@@Z
	DD	2 DUP(00H)
	DD	00H
	DD	01H
; Function compile flags: /Ogsp
; File c:\program files (x86)\microsoft visual studio 10.0\vc\include\memory
xdata$x	ENDS
;	COMDAT ??$_Uninit_copy@V?$_Vector_const_iterator@V?$_Vector_val@UWeaponInfo@@V?$allocator@UWeaponInfo@@@std@@@std@@@std@@PAUWeaponInfo@@V?$allocator@UWeaponInfo@@@2@@std@@YAPAUWeaponInfo@@V?$_Vector_const_iterator@V?$_Vector_val@UWeaponInfo@@V?$allocator@UWeaponInfo@@@std@@@std@@@0@0PAU1@AAV?$allocator@UWeaponInfo@@@0@U_Nonscalar_ptr_iterator_tag@0@@Z
_TEXT	SEGMENT
__Next$ = -20						; size = 4
__$EHRec$ = -16						; size = 16
__First$ = 8						; size = 4
__Last$ = 12						; size = 4
__Dest$ = 16						; size = 4
__Al$ = 20						; size = 4
___formal$ = 24						; size = 1
??$_Uninit_copy@V?$_Vector_const_iterator@V?$_Vector_val@UWeaponInfo@@V?$allocator@UWeaponInfo@@@std@@@std@@@std@@PAUWeaponInfo@@V?$allocator@UWeaponInfo@@@2@@std@@YAPAUWeaponInfo@@V?$_Vector_const_iterator@V?$_Vector_val@UWeaponInfo@@V?$allocator@UWeaponInfo@@@std@@@std@@@0@0PAU1@AAV?$allocator@UWeaponInfo@@@0@U_Nonscalar_ptr_iterator_tag@0@@Z PROC ; std::_Uninit_copy<std::_Vector_const_iterator<std::_Vector_val<WeaponInfo,std::allocator<WeaponInfo> > >,WeaponInfo *,std::allocator<WeaponInfo> >, COMDAT

; 369  : 	{	// copy [_First, _Last) to raw _Dest, using _Al, arbitrary type

  00000	6a 08		 push	 8
  00002	b8 00 00 00 00	 mov	 eax, __ehhandler$??$_Uninit_copy@V?$_Vector_const_iterator@V?$_Vector_val@UWeaponInfo@@V?$allocator@UWeaponInfo@@@std@@@std@@@std@@PAUWeaponInfo@@V?$allocator@UWeaponInfo@@@2@@std@@YAPAUWeaponInfo@@V?$_Vector_const_iterator@V?$_Vector_val@UWeaponInfo@@V?$allocator@UWeaponInfo@@@std@@@std@@@0@0PAU1@AAV?$allocator@UWeaponInfo@@@0@U_Nonscalar_ptr_iterator_tag@0@@Z
  00007	e8 00 00 00 00	 call	 __EH_prolog3_catch

; 370  : 	_DEBUG_RANGE(_First, _Last);
; 371  : 	_DEBUG_POINTER(_Dest);
; 372  : 	_FwdIt _Next = _Dest;

  0000c	8b 45 10	 mov	 eax, DWORD PTR __Dest$[ebp]

; 373  : 
; 374  : 	_TRY_BEGIN

  0000f	83 65 fc 00	 and	 DWORD PTR __$EHRec$[ebp+12], 0
  00013	89 45 ec	 mov	 DWORD PTR __Next$[ebp], eax

; 375  : 	for (; _First != _Last; ++_Dest, ++_First)

$LL14@Uninit_cop@4:
  00016	8b 45 08	 mov	 eax, DWORD PTR __First$[ebp]
  00019	3b 45 0c	 cmp	 eax, DWORD PTR __Last$[ebp]
  0001c	74 34		 je	 SHORT $LN4@Uninit_cop@4

; 376  : 		_Cons_val(_Al, _Dest, *_First);

  0001e	50		 push	 eax
  0001f	ff 75 10	 push	 DWORD PTR __Dest$[ebp]
  00022	e8 00 00 00 00	 call	 ??$_Construct@UWeaponInfo@@ABU1@@std@@YAXPAUWeaponInfo@@ABU1@@Z ; std::_Construct<WeaponInfo,WeaponInfo const &>
  00027	83 45 10 28	 add	 DWORD PTR __Dest$[ebp], 40 ; 00000028H
  0002b	83 45 08 28	 add	 DWORD PTR __First$[ebp], 40 ; 00000028H
  0002f	59		 pop	 ecx
  00030	59		 pop	 ecx
  00031	eb e3		 jmp	 SHORT $LL14@Uninit_cop@4
__catch$??$_Uninit_copy@V?$_Vector_const_iterator@V?$_Vector_val@UWeaponInfo@@V?$allocator@UWeaponInfo@@@std@@@std@@@std@@PAUWeaponInfo@@V?$allocator@UWeaponInfo@@@2@@std@@YAPAUWeaponInfo@@V?$_Vector_const_iterator@V?$_Vector_val@UWeaponInfo@@V?$allocator@UWeaponInfo@@@std@@@std@@@0@0PAU1@AAV?$allocator@UWeaponInfo@@@0@U_Nonscalar_ptr_iterator_tag@0@@Z$0:

; 377  : 	_CATCH_ALL
; 378  : 	for (; _Next != _Dest; ++_Next)

  00033	8b 75 ec	 mov	 esi, DWORD PTR __Next$[ebp]
  00036	eb 0c		 jmp	 SHORT $LN48@Uninit_cop@4
$LL3@Uninit_cop@4:

; 379  : 		_Dest_val(_Al, _Next);

  00038	8d 4e 08	 lea	 ecx, DWORD PTR [esi+8]
  0003b	ff 15 00 00 00
	00		 call	 DWORD PTR __imp_??1ioHashString@@QAE@XZ
  00041	83 c6 28	 add	 esi, 40			; 00000028H
$LN48@Uninit_cop@4:

; 377  : 	_CATCH_ALL
; 378  : 	for (; _Next != _Dest; ++_Next)

  00044	3b 75 10	 cmp	 esi, DWORD PTR __Dest$[ebp]
  00047	75 ef		 jne	 SHORT $LL3@Uninit_cop@4

; 380  : 	_RERAISE;

  00049	6a 00		 push	 0
  0004b	6a 00		 push	 0
  0004d	e8 00 00 00 00	 call	 __CxxThrowException@8
$LN49@Uninit_cop@4:
$LN4@Uninit_cop@4:

; 381  : 	_CATCH_END
; 382  : 	return (_Dest);

  00052	8b 45 10	 mov	 eax, DWORD PTR __Dest$[ebp]

; 383  : 	}

  00055	e8 00 00 00 00	 call	 __EH_epilog3
  0005a	c3		 ret	 0
$LN47@Uninit_cop@4:
_TEXT	ENDS
;	COMDAT text$x
text$x	SEGMENT
__ehhandler$??$_Uninit_copy@V?$_Vector_const_iterator@V?$_Vector_val@UWeaponInfo@@V?$allocator@UWeaponInfo@@@std@@@std@@@std@@PAUWeaponInfo@@V?$allocator@UWeaponInfo@@@2@@std@@YAPAUWeaponInfo@@V?$_Vector_const_iterator@V?$_Vector_val@UWeaponInfo@@V?$allocator@UWeaponInfo@@@std@@@std@@@0@0PAU1@AAV?$allocator@UWeaponInfo@@@0@U_Nonscalar_ptr_iterator_tag@0@@Z:
  00000	8b 54 24 08	 mov	 edx, DWORD PTR [esp+8]
  00004	8d 42 0c	 lea	 eax, DWORD PTR [edx+12]
  00007	8b 4a e8	 mov	 ecx, DWORD PTR [edx-24]
  0000a	33 c8		 xor	 ecx, eax
  0000c	e8 00 00 00 00	 call	 @__security_check_cookie@4
  00011	b8 00 00 00 00	 mov	 eax, OFFSET __ehfuncinfo$??$_Uninit_copy@V?$_Vector_const_iterator@V?$_Vector_val@UWeaponInfo@@V?$allocator@UWeaponInfo@@@std@@@std@@@std@@PAUWeaponInfo@@V?$allocator@UWeaponInfo@@@2@@std@@YAPAUWeaponInfo@@V?$_Vector_const_iterator@V?$_Vector_val@UWeaponInfo@@V?$allocator@UWeaponInfo@@@std@@@std@@@0@0PAU1@AAV?$allocator@UWeaponInfo@@@0@U_Nonscalar_ptr_iterator_tag@0@@Z
  00016	e9 00 00 00 00	 jmp	 ___CxxFrameHandler3
text$x	ENDS
??$_Uninit_copy@V?$_Vector_const_iterator@V?$_Vector_val@UWeaponInfo@@V?$allocator@UWeaponInfo@@@std@@@std@@@std@@PAUWeaponInfo@@V?$allocator@UWeaponInfo@@@2@@std@@YAPAUWeaponInfo@@V?$_Vector_const_iterator@V?$_Vector_val@UWeaponInfo@@V?$allocator@UWeaponInfo@@@std@@@std@@@0@0PAU1@AAV?$allocator@UWeaponInfo@@@0@U_Nonscalar_ptr_iterator_tag@0@@Z ENDP ; std::_Uninit_copy<std::_Vector_const_iterator<std::_Vector_val<WeaponInfo,std::allocator<WeaponInfo> > >,WeaponInfo *,std::allocator<WeaponInfo> >
PUBLIC	??$_Destroy_range@V?$allocator@UForceInfo@@@std@@@std@@YAXPAUForceInfo@@0AAV?$allocator@UForceInfo@@@0@@Z ; std::_Destroy_range<std::allocator<ForceInfo> >
; Function compile flags: /Ogsp
; File c:\program files (x86)\microsoft visual studio 10.0\vc\include\xmemory
;	COMDAT ??$_Destroy_range@V?$allocator@UForceInfo@@@std@@@std@@YAXPAUForceInfo@@0AAV?$allocator@UForceInfo@@@0@@Z
_TEXT	SEGMENT
__First$ = 8						; size = 4
__Last$ = 12						; size = 4
__Al$ = 16						; size = 4
??$_Destroy_range@V?$allocator@UForceInfo@@@std@@@std@@YAXPAUForceInfo@@0AAV?$allocator@UForceInfo@@@0@@Z PROC ; std::_Destroy_range<std::allocator<ForceInfo> >, COMDAT

; 88   : 	_Destroy_range(_First, _Last, _Al, _Ptr_cat(_First, _Last));
; 89   : 	}

  00000	c3		 ret	 0
??$_Destroy_range@V?$allocator@UForceInfo@@@std@@@std@@YAXPAUForceInfo@@0AAV?$allocator@UForceInfo@@@0@@Z ENDP ; std::_Destroy_range<std::allocator<ForceInfo> >
_TEXT	ENDS
PUBLIC	??$_Destroy_range@V?$allocator@VioHashString@@@std@@@std@@YAXPAVioHashString@@0AAV?$allocator@VioHashString@@@0@U_Nonscalar_ptr_iterator_tag@0@@Z ; std::_Destroy_range<std::allocator<ioHashString> >
; Function compile flags: /Ogsp
;	COMDAT ??$_Destroy_range@V?$allocator@VioHashString@@@std@@@std@@YAXPAVioHashString@@0AAV?$allocator@VioHashString@@@0@U_Nonscalar_ptr_iterator_tag@0@@Z
_TEXT	SEGMENT
__First$ = 8						; size = 4
__Last$ = 12						; size = 4
__Al$ = 16						; size = 4
___formal$ = 20						; size = 1
??$_Destroy_range@V?$allocator@VioHashString@@@std@@@std@@YAXPAVioHashString@@0AAV?$allocator@VioHashString@@@0@U_Nonscalar_ptr_iterator_tag@0@@Z PROC ; std::_Destroy_range<std::allocator<ioHashString> >, COMDAT

; 95   : 	{	// destroy [_First, _Last), arbitrary type

  00000	55		 push	 ebp
  00001	8b ec		 mov	 ebp, esp
  00003	56		 push	 esi

; 96   : 	for (; _First != _Last; ++_First)

  00004	8b 75 08	 mov	 esi, DWORD PTR __First$[ebp]
  00007	eb 0b		 jmp	 SHORT $LN17@Destroy_ra
$LL3@Destroy_ra:

; 97   : 		_Dest_val(_Al, _First);

  00009	8b ce		 mov	 ecx, esi
  0000b	ff 15 00 00 00
	00		 call	 DWORD PTR __imp_??1ioHashString@@QAE@XZ
  00011	83 c6 10	 add	 esi, 16			; 00000010H
$LN17@Destroy_ra:

; 96   : 	for (; _First != _Last; ++_First)

  00014	3b 75 0c	 cmp	 esi, DWORD PTR __Last$[ebp]
  00017	75 f0		 jne	 SHORT $LL3@Destroy_ra
  00019	5e		 pop	 esi

; 98   : 	}

  0001a	5d		 pop	 ebp
  0001b	c3		 ret	 0
??$_Destroy_range@V?$allocator@VioHashString@@@std@@@std@@YAXPAVioHashString@@0AAV?$allocator@VioHashString@@@0@U_Nonscalar_ptr_iterator_tag@0@@Z ENDP ; std::_Destroy_range<std::allocator<ioHashString> >
_TEXT	ENDS
PUBLIC	??$_Destroy_range@V?$allocator@UWeaponInfo@@@std@@@std@@YAXPAUWeaponInfo@@0AAV?$allocator@UWeaponInfo@@@0@U_Nonscalar_ptr_iterator_tag@0@@Z ; std::_Destroy_range<std::allocator<WeaponInfo> >
; Function compile flags: /Ogsp
;	COMDAT ??$_Destroy_range@V?$allocator@UWeaponInfo@@@std@@@std@@YAXPAUWeaponInfo@@0AAV?$allocator@UWeaponInfo@@@0@U_Nonscalar_ptr_iterator_tag@0@@Z
_TEXT	SEGMENT
__First$ = 8						; size = 4
__Last$ = 12						; size = 4
__Al$ = 16						; size = 4
___formal$ = 20						; size = 1
??$_Destroy_range@V?$allocator@UWeaponInfo@@@std@@@std@@YAXPAUWeaponInfo@@0AAV?$allocator@UWeaponInfo@@@0@U_Nonscalar_ptr_iterator_tag@0@@Z PROC ; std::_Destroy_range<std::allocator<WeaponInfo> >, COMDAT

; 95   : 	{	// destroy [_First, _Last), arbitrary type

  00000	55		 push	 ebp
  00001	8b ec		 mov	 ebp, esp
  00003	56		 push	 esi

; 96   : 	for (; _First != _Last; ++_First)

  00004	8b 75 08	 mov	 esi, DWORD PTR __First$[ebp]
  00007	eb 0c		 jmp	 SHORT $LN20@Destroy_ra@2
$LL3@Destroy_ra@2:

; 97   : 		_Dest_val(_Al, _First);

  00009	8d 4e 08	 lea	 ecx, DWORD PTR [esi+8]
  0000c	ff 15 00 00 00
	00		 call	 DWORD PTR __imp_??1ioHashString@@QAE@XZ
  00012	83 c6 28	 add	 esi, 40			; 00000028H
$LN20@Destroy_ra@2:

; 96   : 	for (; _First != _Last; ++_First)

  00015	3b 75 0c	 cmp	 esi, DWORD PTR __Last$[ebp]
  00018	75 ef		 jne	 SHORT $LL3@Destroy_ra@2
  0001a	5e		 pop	 esi

; 98   : 	}

  0001b	5d		 pop	 ebp
  0001c	c3		 ret	 0
??$_Destroy_range@V?$allocator@UWeaponInfo@@@std@@@std@@YAXPAUWeaponInfo@@0AAV?$allocator@UWeaponInfo@@@0@U_Nonscalar_ptr_iterator_tag@0@@Z ENDP ; std::_Destroy_range<std::allocator<WeaponInfo> >
_TEXT	ENDS
PUBLIC	??$_Uninit_copy@V?$_Vector_const_iterator@V?$_Vector_val@VioHashString@@V?$allocator@VioHashString@@@std@@@std@@@std@@PAVioHashString@@V?$allocator@VioHashString@@@2@@std@@YAPAVioHashString@@V?$_Vector_const_iterator@V?$_Vector_val@VioHashString@@V?$allocator@VioHashString@@@std@@@std@@@0@0PAV1@AAV?$allocator@VioHashString@@@0@U_Nonscalar_ptr_iterator_tag@0@@Z ; std::_Uninit_copy<std::_Vector_const_iterator<std::_Vector_val<ioHashString,std::allocator<ioHashString> > >,ioHashString *,std::allocator<ioHashString> >
;	COMDAT xdata$x
; File c:\program files (x86)\microsoft visual studio 10.0\vc\include\vector
xdata$x	SEGMENT
__catchsym$??$_Uninit_copy@V?$_Vector_const_iterator@V?$_Vector_val@VioHashString@@V?$allocator@VioHashString@@@std@@@std@@@std@@PAVioHashString@@V?$allocator@VioHashString@@@2@@std@@YAPAVioHashString@@V?$_Vector_const_iterator@V?$_Vector_val@VioHashString@@V?$allocator@VioHashString@@@std@@@std@@@0@0PAV1@AAV?$allocator@VioHashString@@@0@U_Nonscalar_ptr_iterator_tag@0@@Z$2 DD 040H
	DD	00H
	DD	00H
	DD	FLAT:__catch$??$_Uninit_copy@V?$_Vector_const_iterator@V?$_Vector_val@VioHashString@@V?$allocator@VioHashString@@@std@@@std@@@std@@PAVioHashString@@V?$allocator@VioHashString@@@2@@std@@YAPAVioHashString@@V?$_Vector_const_iterator@V?$_Vector_val@VioHashString@@V?$allocator@VioHashString@@@std@@@std@@@0@0PAV1@AAV?$allocator@VioHashString@@@0@U_Nonscalar_ptr_iterator_tag@0@@Z$0
__unwindtable$??$_Uninit_copy@V?$_Vector_const_iterator@V?$_Vector_val@VioHashString@@V?$allocator@VioHashString@@@std@@@std@@@std@@PAVioHashString@@V?$allocator@VioHashString@@@2@@std@@YAPAVioHashString@@V?$_Vector_const_iterator@V?$_Vector_val@VioHashString@@V?$allocator@VioHashString@@@std@@@std@@@0@0PAV1@AAV?$allocator@VioHashString@@@0@U_Nonscalar_ptr_iterator_tag@0@@Z DD 0ffffffffH
	DD	00H
	DD	0ffffffffH
	DD	00H
__tryblocktable$??$_Uninit_copy@V?$_Vector_const_iterator@V?$_Vector_val@VioHashString@@V?$allocator@VioHashString@@@std@@@std@@@std@@PAVioHashString@@V?$allocator@VioHashString@@@2@@std@@YAPAVioHashString@@V?$_Vector_const_iterator@V?$_Vector_val@VioHashString@@V?$allocator@VioHashString@@@std@@@std@@@0@0PAV1@AAV?$allocator@VioHashString@@@0@U_Nonscalar_ptr_iterator_tag@0@@Z DD 00H
	DD	00H
	DD	01H
	DD	01H
	DD	FLAT:__catchsym$??$_Uninit_copy@V?$_Vector_const_iterator@V?$_Vector_val@VioHashString@@V?$allocator@VioHashString@@@std@@@std@@@std@@PAVioHashString@@V?$allocator@VioHashString@@@2@@std@@YAPAVioHashString@@V?$_Vector_const_iterator@V?$_Vector_val@VioHashString@@V?$allocator@VioHashString@@@std@@@std@@@0@0PAV1@AAV?$allocator@VioHashString@@@0@U_Nonscalar_ptr_iterator_tag@0@@Z$2
__ehfuncinfo$??$_Uninit_copy@V?$_Vector_const_iterator@V?$_Vector_val@VioHashString@@V?$allocator@VioHashString@@@std@@@std@@@std@@PAVioHashString@@V?$allocator@VioHashString@@@2@@std@@YAPAVioHashString@@V?$_Vector_const_iterator@V?$_Vector_val@VioHashString@@V?$allocator@VioHashString@@@std@@@std@@@0@0PAV1@AAV?$allocator@VioHashString@@@0@U_Nonscalar_ptr_iterator_tag@0@@Z DD 019930522H
	DD	02H
	DD	FLAT:__unwindtable$??$_Uninit_copy@V?$_Vector_const_iterator@V?$_Vector_val@VioHashString@@V?$allocator@VioHashString@@@std@@@std@@@std@@PAVioHashString@@V?$allocator@VioHashString@@@2@@std@@YAPAVioHashString@@V?$_Vector_const_iterator@V?$_Vector_val@VioHashString@@V?$allocator@VioHashString@@@std@@@std@@@0@0PAV1@AAV?$allocator@VioHashString@@@0@U_Nonscalar_ptr_iterator_tag@0@@Z
	DD	01H
	DD	FLAT:__tryblocktable$??$_Uninit_copy@V?$_Vector_const_iterator@V?$_Vector_val@VioHashString@@V?$allocator@VioHashString@@@std@@@std@@@std@@PAVioHashString@@V?$allocator@VioHashString@@@2@@std@@YAPAVioHashString@@V?$_Vector_const_iterator@V?$_Vector_val@VioHashString@@V?$allocator@VioHashString@@@std@@@std@@@0@0PAV1@AAV?$allocator@VioHashString@@@0@U_Nonscalar_ptr_iterator_tag@0@@Z
	DD	2 DUP(00H)
	DD	00H
	DD	01H
; Function compile flags: /Ogsp
; File c:\program files (x86)\microsoft visual studio 10.0\vc\include\memory
xdata$x	ENDS
;	COMDAT ??$_Uninit_copy@V?$_Vector_const_iterator@V?$_Vector_val@VioHashString@@V?$allocator@VioHashString@@@std@@@std@@@std@@PAVioHashString@@V?$allocator@VioHashString@@@2@@std@@YAPAVioHashString@@V?$_Vector_const_iterator@V?$_Vector_val@VioHashString@@V?$allocator@VioHashString@@@std@@@std@@@0@0PAV1@AAV?$allocator@VioHashString@@@0@U_Nonscalar_ptr_iterator_tag@0@@Z
_TEXT	SEGMENT
__Next$ = -20						; size = 4
__$EHRec$ = -16						; size = 16
__First$ = 8						; size = 4
__Last$ = 12						; size = 4
__Dest$ = 16						; size = 4
__Al$ = 20						; size = 4
___formal$ = 24						; size = 1
??$_Uninit_copy@V?$_Vector_const_iterator@V?$_Vector_val@VioHashString@@V?$allocator@VioHashString@@@std@@@std@@@std@@PAVioHashString@@V?$allocator@VioHashString@@@2@@std@@YAPAVioHashString@@V?$_Vector_const_iterator@V?$_Vector_val@VioHashString@@V?$allocator@VioHashString@@@std@@@std@@@0@0PAV1@AAV?$allocator@VioHashString@@@0@U_Nonscalar_ptr_iterator_tag@0@@Z PROC ; std::_Uninit_copy<std::_Vector_const_iterator<std::_Vector_val<ioHashString,std::allocator<ioHashString> > >,ioHashString *,std::allocator<ioHashString> >, COMDAT

; 369  : 	{	// copy [_First, _Last) to raw _Dest, using _Al, arbitrary type

  00000	6a 08		 push	 8
  00002	b8 00 00 00 00	 mov	 eax, __ehhandler$??$_Uninit_copy@V?$_Vector_const_iterator@V?$_Vector_val@VioHashString@@V?$allocator@VioHashString@@@std@@@std@@@std@@PAVioHashString@@V?$allocator@VioHashString@@@2@@std@@YAPAVioHashString@@V?$_Vector_const_iterator@V?$_Vector_val@VioHashString@@V?$allocator@VioHashString@@@std@@@std@@@0@0PAV1@AAV?$allocator@VioHashString@@@0@U_Nonscalar_ptr_iterator_tag@0@@Z
  00007	e8 00 00 00 00	 call	 __EH_prolog3_catch

; 370  : 	_DEBUG_RANGE(_First, _Last);
; 371  : 	_DEBUG_POINTER(_Dest);
; 372  : 	_FwdIt _Next = _Dest;

  0000c	8b 45 10	 mov	 eax, DWORD PTR __Dest$[ebp]

; 373  : 
; 374  : 	_TRY_BEGIN

  0000f	83 65 fc 00	 and	 DWORD PTR __$EHRec$[ebp+12], 0
  00013	89 45 ec	 mov	 DWORD PTR __Next$[ebp], eax

; 375  : 	for (; _First != _Last; ++_Dest, ++_First)

$LL14@Uninit_cop@5:
  00016	8b 45 08	 mov	 eax, DWORD PTR __First$[ebp]
  00019	3b 45 0c	 cmp	 eax, DWORD PTR __Last$[ebp]
  0001c	74 33		 je	 SHORT $LN4@Uninit_cop@5

; 376  : 		_Cons_val(_Al, _Dest, *_First);

  0001e	50		 push	 eax
  0001f	ff 75 10	 push	 DWORD PTR __Dest$[ebp]
  00022	e8 00 00 00 00	 call	 ??$_Construct@VioHashString@@ABV1@@std@@YAXPAVioHashString@@ABV1@@Z ; std::_Construct<ioHashString,ioHashString const &>
  00027	83 45 10 10	 add	 DWORD PTR __Dest$[ebp], 16 ; 00000010H
  0002b	83 45 08 10	 add	 DWORD PTR __First$[ebp], 16 ; 00000010H
  0002f	59		 pop	 ecx
  00030	59		 pop	 ecx
  00031	eb e3		 jmp	 SHORT $LL14@Uninit_cop@5
__catch$??$_Uninit_copy@V?$_Vector_const_iterator@V?$_Vector_val@VioHashString@@V?$allocator@VioHashString@@@std@@@std@@@std@@PAVioHashString@@V?$allocator@VioHashString@@@2@@std@@YAPAVioHashString@@V?$_Vector_const_iterator@V?$_Vector_val@VioHashString@@V?$allocator@VioHashString@@@std@@@std@@@0@0PAV1@AAV?$allocator@VioHashString@@@0@U_Nonscalar_ptr_iterator_tag@0@@Z$0:

; 377  : 	_CATCH_ALL
; 378  : 	for (; _Next != _Dest; ++_Next)

  00033	8b 75 ec	 mov	 esi, DWORD PTR __Next$[ebp]
  00036	eb 0b		 jmp	 SHORT $LN45@Uninit_cop@5
$LL3@Uninit_cop@5:

; 379  : 		_Dest_val(_Al, _Next);

  00038	8b ce		 mov	 ecx, esi
  0003a	ff 15 00 00 00
	00		 call	 DWORD PTR __imp_??1ioHashString@@QAE@XZ
  00040	83 c6 10	 add	 esi, 16			; 00000010H
$LN45@Uninit_cop@5:

; 377  : 	_CATCH_ALL
; 378  : 	for (; _Next != _Dest; ++_Next)

  00043	3b 75 10	 cmp	 esi, DWORD PTR __Dest$[ebp]
  00046	75 f0		 jne	 SHORT $LL3@Uninit_cop@5

; 380  : 	_RERAISE;

  00048	6a 00		 push	 0
  0004a	6a 00		 push	 0
  0004c	e8 00 00 00 00	 call	 __CxxThrowException@8
$LN46@Uninit_cop@5:
$LN4@Uninit_cop@5:

; 381  : 	_CATCH_END
; 382  : 	return (_Dest);

  00051	8b 45 10	 mov	 eax, DWORD PTR __Dest$[ebp]

; 383  : 	}

  00054	e8 00 00 00 00	 call	 __EH_epilog3
  00059	c3		 ret	 0
$LN44@Uninit_cop@5:
_TEXT	ENDS
;	COMDAT text$x
text$x	SEGMENT
__ehhandler$??$_Uninit_copy@V?$_Vector_const_iterator@V?$_Vector_val@VioHashString@@V?$allocator@VioHashString@@@std@@@std@@@std@@PAVioHashString@@V?$allocator@VioHashString@@@2@@std@@YAPAVioHashString@@V?$_Vector_const_iterator@V?$_Vector_val@VioHashString@@V?$allocator@VioHashString@@@std@@@std@@@0@0PAV1@AAV?$allocator@VioHashString@@@0@U_Nonscalar_ptr_iterator_tag@0@@Z:
  00000	8b 54 24 08	 mov	 edx, DWORD PTR [esp+8]
  00004	8d 42 0c	 lea	 eax, DWORD PTR [edx+12]
  00007	8b 4a e8	 mov	 ecx, DWORD PTR [edx-24]
  0000a	33 c8		 xor	 ecx, eax
  0000c	e8 00 00 00 00	 call	 @__security_check_cookie@4
  00011	b8 00 00 00 00	 mov	 eax, OFFSET __ehfuncinfo$??$_Uninit_copy@V?$_Vector_const_iterator@V?$_Vector_val@VioHashString@@V?$allocator@VioHashString@@@std@@@std@@@std@@PAVioHashString@@V?$allocator@VioHashString@@@2@@std@@YAPAVioHashString@@V?$_Vector_const_iterator@V?$_Vector_val@VioHashString@@V?$allocator@VioHashString@@@std@@@std@@@0@0PAV1@AAV?$allocator@VioHashString@@@0@U_Nonscalar_ptr_iterator_tag@0@@Z
  00016	e9 00 00 00 00	 jmp	 ___CxxFrameHandler3
text$x	ENDS
??$_Uninit_copy@V?$_Vector_const_iterator@V?$_Vector_val@VioHashString@@V?$allocator@VioHashString@@@std@@@std@@@std@@PAVioHashString@@V?$allocator@VioHashString@@@2@@std@@YAPAVioHashString@@V?$_Vector_const_iterator@V?$_Vector_val@VioHashString@@V?$allocator@VioHashString@@@std@@@std@@@0@0PAV1@AAV?$allocator@VioHashString@@@0@U_Nonscalar_ptr_iterator_tag@0@@Z ENDP ; std::_Uninit_copy<std::_Vector_const_iterator<std::_Vector_val<ioHashString,std::allocator<ioHashString> > >,ioHashString *,std::allocator<ioHashString> >
PUBLIC	??$_Ucopy@PAUForceInfo@@@?$vector@UForceInfo@@V?$allocator@UForceInfo@@@std@@@std@@IAEPAUForceInfo@@PAU2@00@Z ; std::vector<ForceInfo,std::allocator<ForceInfo> >::_Ucopy<ForceInfo *>
; Function compile flags: /Ogsp
; File c:\program files (x86)\microsoft visual studio 10.0\vc\include\vector
;	COMDAT ??$_Ucopy@PAUForceInfo@@@?$vector@UForceInfo@@V?$allocator@UForceInfo@@@std@@@std@@IAEPAUForceInfo@@PAU2@00@Z
_TEXT	SEGMENT
__First$ = 8						; size = 4
__Last$ = 12						; size = 4
__Cat$600347 = 16					; size = 1
__Ptr$ = 16						; size = 4
??$_Ucopy@PAUForceInfo@@@?$vector@UForceInfo@@V?$allocator@UForceInfo@@@std@@@std@@IAEPAUForceInfo@@PAU2@00@Z PROC ; std::vector<ForceInfo,std::allocator<ForceInfo> >::_Ucopy<ForceInfo *>, COMDAT
; _this$ = ecx

; 1315 : 		pointer _Ucopy(_Iter _First, _Iter _Last, pointer _Ptr)

  00000	55		 push	 ebp
  00001	8b ec		 mov	 ebp, esp

; 1316 : 		{	// copy initializing [_First, _Last), using allocator
; 1317 : 		return (_Uninitialized_copy(_First, _Last,
; 1318 : 			_Ptr, this->_Alval));

  00003	ff 75 10	 push	 DWORD PTR __Cat$600347[ebp]
  00006	83 c1 0c	 add	 ecx, 12			; 0000000cH
  00009	51		 push	 ecx
  0000a	ff 75 10	 push	 DWORD PTR __Ptr$[ebp]
  0000d	ff 75 0c	 push	 DWORD PTR __Last$[ebp]
  00010	ff 75 08	 push	 DWORD PTR __First$[ebp]
  00013	e8 00 00 00 00	 call	 ??$_Uninit_copy@PAUForceInfo@@PAU1@V?$allocator@UForceInfo@@@std@@@std@@YAPAUForceInfo@@PAU1@00AAV?$allocator@UForceInfo@@@0@U_Nonscalar_ptr_iterator_tag@0@@Z ; std::_Uninit_copy<ForceInfo *,ForceInfo *,std::allocator<ForceInfo> >
  00018	83 c4 14	 add	 esp, 20			; 00000014H

; 1319 : 		}

  0001b	5d		 pop	 ebp
  0001c	c2 0c 00	 ret	 12			; 0000000cH
??$_Ucopy@PAUForceInfo@@@?$vector@UForceInfo@@V?$allocator@UForceInfo@@@std@@@std@@IAEPAUForceInfo@@PAU2@00@Z ENDP ; std::vector<ForceInfo,std::allocator<ForceInfo> >::_Ucopy<ForceInfo *>
_TEXT	ENDS
PUBLIC	??$_Uninitialized_copy@PAUWeaponInfo@@PAU1@V?$allocator@UWeaponInfo@@@std@@@std@@YAPAUWeaponInfo@@PAU1@00AAV?$allocator@UWeaponInfo@@@0@@Z ; std::_Uninitialized_copy<WeaponInfo *,WeaponInfo *,std::allocator<WeaponInfo> >
; Function compile flags: /Ogsp
; File c:\program files (x86)\microsoft visual studio 10.0\vc\include\memory
;	COMDAT ??$_Uninitialized_copy@PAUWeaponInfo@@PAU1@V?$allocator@UWeaponInfo@@@std@@@std@@YAPAUWeaponInfo@@PAU1@00AAV?$allocator@UWeaponInfo@@@0@@Z
_TEXT	SEGMENT
__Cat$600355 = -4					; size = 1
__First$ = 8						; size = 4
__Last$ = 12						; size = 4
__Dest$ = 16						; size = 4
__Al$ = 20						; size = 4
??$_Uninitialized_copy@PAUWeaponInfo@@PAU1@V?$allocator@UWeaponInfo@@@std@@@std@@YAPAUWeaponInfo@@PAU1@00AAV?$allocator@UWeaponInfo@@@0@@Z PROC ; std::_Uninitialized_copy<WeaponInfo *,WeaponInfo *,std::allocator<WeaponInfo> >, COMDAT

; 412  : 	{	// copy [_First, _Last) to raw _Dest, using _Al

  00000	55		 push	 ebp
  00001	8b ec		 mov	 ebp, esp
  00003	51		 push	 ecx

; 413  : 	return (_Uninit_copy(_First, _Last, _Dest, _Al,
; 414  : 		_Ptr_cat(_First, _Dest)));

  00004	ff 75 fc	 push	 DWORD PTR __Cat$600355[ebp]
  00007	ff 75 14	 push	 DWORD PTR __Al$[ebp]
  0000a	ff 75 10	 push	 DWORD PTR __Dest$[ebp]
  0000d	ff 75 0c	 push	 DWORD PTR __Last$[ebp]
  00010	ff 75 08	 push	 DWORD PTR __First$[ebp]
  00013	e8 00 00 00 00	 call	 ??$_Uninit_copy@PAUWeaponInfo@@PAU1@V?$allocator@UWeaponInfo@@@std@@@std@@YAPAUWeaponInfo@@PAU1@00AAV?$allocator@UWeaponInfo@@@0@U_Nonscalar_ptr_iterator_tag@0@@Z ; std::_Uninit_copy<WeaponInfo *,WeaponInfo *,std::allocator<WeaponInfo> >
  00018	83 c4 14	 add	 esp, 20			; 00000014H

; 415  : 	}

  0001b	c9		 leave
  0001c	c3		 ret	 0
??$_Uninitialized_copy@PAUWeaponInfo@@PAU1@V?$allocator@UWeaponInfo@@@std@@@std@@YAPAUWeaponInfo@@PAU1@00AAV?$allocator@UWeaponInfo@@@0@@Z ENDP ; std::_Uninitialized_copy<WeaponInfo *,WeaponInfo *,std::allocator<WeaponInfo> >
_TEXT	ENDS
PUBLIC	??$_Ucopy@V?$_Vector_const_iterator@V?$_Vector_val@UForceInfo@@V?$allocator@UForceInfo@@@std@@@std@@@std@@@?$vector@UForceInfo@@V?$allocator@UForceInfo@@@std@@@std@@IAEPAUForceInfo@@V?$_Vector_const_iterator@V?$_Vector_val@UForceInfo@@V?$allocator@UForceInfo@@@std@@@std@@@1@0PAU2@@Z ; std::vector<ForceInfo,std::allocator<ForceInfo> >::_Ucopy<std::_Vector_const_iterator<std::_Vector_val<ForceInfo,std::allocator<ForceInfo> > > >
; Function compile flags: /Ogsp
; File c:\program files (x86)\microsoft visual studio 10.0\vc\include\vector
;	COMDAT ??$_Ucopy@V?$_Vector_const_iterator@V?$_Vector_val@UForceInfo@@V?$allocator@UForceInfo@@@std@@@std@@@std@@@?$vector@UForceInfo@@V?$allocator@UForceInfo@@@std@@@std@@IAEPAUForceInfo@@V?$_Vector_const_iterator@V?$_Vector_val@UForceInfo@@V?$allocator@UForceInfo@@@std@@@std@@@1@0PAU2@@Z
_TEXT	SEGMENT
__First$ = 8						; size = 4
__Last$ = 12						; size = 4
__Cat$600369 = 16					; size = 1
__Ptr$ = 16						; size = 4
??$_Ucopy@V?$_Vector_const_iterator@V?$_Vector_val@UForceInfo@@V?$allocator@UForceInfo@@@std@@@std@@@std@@@?$vector@UForceInfo@@V?$allocator@UForceInfo@@@std@@@std@@IAEPAUForceInfo@@V?$_Vector_const_iterator@V?$_Vector_val@UForceInfo@@V?$allocator@UForceInfo@@@std@@@std@@@1@0PAU2@@Z PROC ; std::vector<ForceInfo,std::allocator<ForceInfo> >::_Ucopy<std::_Vector_const_iterator<std::_Vector_val<ForceInfo,std::allocator<ForceInfo> > > >, COMDAT
; _this$ = ecx

; 1315 : 		pointer _Ucopy(_Iter _First, _Iter _Last, pointer _Ptr)

  00000	55		 push	 ebp
  00001	8b ec		 mov	 ebp, esp

; 1316 : 		{	// copy initializing [_First, _Last), using allocator
; 1317 : 		return (_Uninitialized_copy(_First, _Last,
; 1318 : 			_Ptr, this->_Alval));

  00003	ff 75 10	 push	 DWORD PTR __Cat$600369[ebp]
  00006	83 c1 0c	 add	 ecx, 12			; 0000000cH
  00009	51		 push	 ecx
  0000a	ff 75 10	 push	 DWORD PTR __Ptr$[ebp]
  0000d	ff 75 0c	 push	 DWORD PTR __Last$[ebp]
  00010	ff 75 08	 push	 DWORD PTR __First$[ebp]
  00013	e8 00 00 00 00	 call	 ??$_Uninit_copy@V?$_Vector_const_iterator@V?$_Vector_val@UForceInfo@@V?$allocator@UForceInfo@@@std@@@std@@@std@@PAUForceInfo@@V?$allocator@UForceInfo@@@2@@std@@YAPAUForceInfo@@V?$_Vector_const_iterator@V?$_Vector_val@UForceInfo@@V?$allocator@UForceInfo@@@std@@@std@@@0@0PAU1@AAV?$allocator@UForceInfo@@@0@U_Nonscalar_ptr_iterator_tag@0@@Z ; std::_Uninit_copy<std::_Vector_const_iterator<std::_Vector_val<ForceInfo,std::allocator<ForceInfo> > >,ForceInfo *,std::allocator<ForceInfo> >
  00018	83 c4 14	 add	 esp, 20			; 00000014H

; 1319 : 		}

  0001b	5d		 pop	 ebp
  0001c	c2 0c 00	 ret	 12			; 0000000cH
??$_Ucopy@V?$_Vector_const_iterator@V?$_Vector_val@UForceInfo@@V?$allocator@UForceInfo@@@std@@@std@@@std@@@?$vector@UForceInfo@@V?$allocator@UForceInfo@@@std@@@std@@IAEPAUForceInfo@@V?$_Vector_const_iterator@V?$_Vector_val@UForceInfo@@V?$allocator@UForceInfo@@@std@@@std@@@1@0PAU2@@Z ENDP ; std::vector<ForceInfo,std::allocator<ForceInfo> >::_Ucopy<std::_Vector_const_iterator<std::_Vector_val<ForceInfo,std::allocator<ForceInfo> > > >
_TEXT	ENDS
PUBLIC	??$_Uninitialized_move@PAVioHashString@@PAV1@V?$allocator@VioHashString@@@std@@@std@@YAPAVioHashString@@PAV1@00AAV?$allocator@VioHashString@@@0@@Z ; std::_Uninitialized_move<ioHashString *,ioHashString *,std::allocator<ioHashString> >
; Function compile flags: /Ogsp
; File c:\program files (x86)\microsoft visual studio 10.0\vc\include\memory
;	COMDAT ??$_Uninitialized_move@PAVioHashString@@PAV1@V?$allocator@VioHashString@@@std@@@std@@YAPAVioHashString@@PAV1@00AAV?$allocator@VioHashString@@@0@@Z
_TEXT	SEGMENT
__Cat$600378 = -4					; size = 1
__First$ = 8						; size = 4
__Last$ = 12						; size = 4
__Dest$ = 16						; size = 4
__Al$ = 20						; size = 4
??$_Uninitialized_move@PAVioHashString@@PAV1@V?$allocator@VioHashString@@@std@@@std@@YAPAVioHashString@@PAV1@00AAV?$allocator@VioHashString@@@0@@Z PROC ; std::_Uninitialized_move<ioHashString *,ioHashString *,std::allocator<ioHashString> >, COMDAT

; 469  : 	{	// move [_First, _Last) to raw _Dest, using _Al

  00000	55		 push	 ebp
  00001	8b ec		 mov	 ebp, esp
  00003	51		 push	 ecx

; 470  : 	return (_Uninit_move(_First, _Last, _Dest, _Al,
; 471  : 		_Val_type(_First), _Ptr_cat(_First, _Dest)));

  00004	ff 75 fc	 push	 DWORD PTR __Cat$600378[ebp]
  00007	6a 00		 push	 0
  00009	ff 75 14	 push	 DWORD PTR __Al$[ebp]
  0000c	ff 75 10	 push	 DWORD PTR __Dest$[ebp]
  0000f	ff 75 0c	 push	 DWORD PTR __Last$[ebp]
  00012	ff 75 08	 push	 DWORD PTR __First$[ebp]
  00015	e8 00 00 00 00	 call	 ??$_Uninit_move@PAVioHashString@@PAV1@V?$allocator@VioHashString@@@std@@V1@@std@@YAPAVioHashString@@PAV1@00AAV?$allocator@VioHashString@@@0@0U_Nonscalar_ptr_iterator_tag@0@@Z ; std::_Uninit_move<ioHashString *,ioHashString *,std::allocator<ioHashString>,ioHashString>
  0001a	83 c4 18	 add	 esp, 24			; 00000018H

; 472  : 	}

  0001d	c9		 leave
  0001e	c3		 ret	 0
??$_Uninitialized_move@PAVioHashString@@PAV1@V?$allocator@VioHashString@@@std@@@std@@YAPAVioHashString@@PAV1@00AAV?$allocator@VioHashString@@@0@@Z ENDP ; std::_Uninitialized_move<ioHashString *,ioHashString *,std::allocator<ioHashString> >
_TEXT	ENDS
PUBLIC	??$_Uninitialized_copy@V?$_Vector_const_iterator@V?$_Vector_val@UWeaponInfo@@V?$allocator@UWeaponInfo@@@std@@@std@@@std@@PAUWeaponInfo@@V?$allocator@UWeaponInfo@@@2@@std@@YAPAUWeaponInfo@@V?$_Vector_const_iterator@V?$_Vector_val@UWeaponInfo@@V?$allocator@UWeaponInfo@@@std@@@std@@@0@0PAU1@AAV?$allocator@UWeaponInfo@@@0@@Z ; std::_Uninitialized_copy<std::_Vector_const_iterator<std::_Vector_val<WeaponInfo,std::allocator<WeaponInfo> > >,WeaponInfo *,std::allocator<WeaponInfo> >
; Function compile flags: /Ogsp
;	COMDAT ??$_Uninitialized_copy@V?$_Vector_const_iterator@V?$_Vector_val@UWeaponInfo@@V?$allocator@UWeaponInfo@@@std@@@std@@@std@@PAUWeaponInfo@@V?$allocator@UWeaponInfo@@@2@@std@@YAPAUWeaponInfo@@V?$_Vector_const_iterator@V?$_Vector_val@UWeaponInfo@@V?$allocator@UWeaponInfo@@@std@@@std@@@0@0PAU1@AAV?$allocator@UWeaponInfo@@@0@@Z
_TEXT	SEGMENT
__Cat$600388 = -4					; size = 1
__First$ = 8						; size = 4
__Last$ = 12						; size = 4
__Dest$ = 16						; size = 4
__Al$ = 20						; size = 4
??$_Uninitialized_copy@V?$_Vector_const_iterator@V?$_Vector_val@UWeaponInfo@@V?$allocator@UWeaponInfo@@@std@@@std@@@std@@PAUWeaponInfo@@V?$allocator@UWeaponInfo@@@2@@std@@YAPAUWeaponInfo@@V?$_Vector_const_iterator@V?$_Vector_val@UWeaponInfo@@V?$allocator@UWeaponInfo@@@std@@@std@@@0@0PAU1@AAV?$allocator@UWeaponInfo@@@0@@Z PROC ; std::_Uninitialized_copy<std::_Vector_const_iterator<std::_Vector_val<WeaponInfo,std::allocator<WeaponInfo> > >,WeaponInfo *,std::allocator<WeaponInfo> >, COMDAT

; 412  : 	{	// copy [_First, _Last) to raw _Dest, using _Al

  00000	55		 push	 ebp
  00001	8b ec		 mov	 ebp, esp
  00003	51		 push	 ecx

; 413  : 	return (_Uninit_copy(_First, _Last, _Dest, _Al,
; 414  : 		_Ptr_cat(_First, _Dest)));

  00004	ff 75 fc	 push	 DWORD PTR __Cat$600388[ebp]
  00007	ff 75 14	 push	 DWORD PTR __Al$[ebp]
  0000a	ff 75 10	 push	 DWORD PTR __Dest$[ebp]
  0000d	ff 75 0c	 push	 DWORD PTR __Last$[ebp]
  00010	ff 75 08	 push	 DWORD PTR __First$[ebp]
  00013	e8 00 00 00 00	 call	 ??$_Uninit_copy@V?$_Vector_const_iterator@V?$_Vector_val@UWeaponInfo@@V?$allocator@UWeaponInfo@@@std@@@std@@@std@@PAUWeaponInfo@@V?$allocator@UWeaponInfo@@@2@@std@@YAPAUWeaponInfo@@V?$_Vector_const_iterator@V?$_Vector_val@UWeaponInfo@@V?$allocator@UWeaponInfo@@@std@@@std@@@0@0PAU1@AAV?$allocator@UWeaponInfo@@@0@U_Nonscalar_ptr_iterator_tag@0@@Z ; std::_Uninit_copy<std::_Vector_const_iterator<std::_Vector_val<WeaponInfo,std::allocator<WeaponInfo> > >,WeaponInfo *,std::allocator<WeaponInfo> >
  00018	83 c4 14	 add	 esp, 20			; 00000014H

; 415  : 	}

  0001b	c9		 leave
  0001c	c3		 ret	 0
??$_Uninitialized_copy@V?$_Vector_const_iterator@V?$_Vector_val@UWeaponInfo@@V?$allocator@UWeaponInfo@@@std@@@std@@@std@@PAUWeaponInfo@@V?$allocator@UWeaponInfo@@@2@@std@@YAPAUWeaponInfo@@V?$_Vector_const_iterator@V?$_Vector_val@UWeaponInfo@@V?$allocator@UWeaponInfo@@@std@@@std@@@0@0PAU1@AAV?$allocator@UWeaponInfo@@@0@@Z ENDP ; std::_Uninitialized_copy<std::_Vector_const_iterator<std::_Vector_val<WeaponInfo,std::allocator<WeaponInfo> > >,WeaponInfo *,std::allocator<WeaponInfo> >
_TEXT	ENDS
PUBLIC	?_Destroy@?$vector@UForceInfo@@V?$allocator@UForceInfo@@@std@@@std@@IAEXPAUForceInfo@@0@Z ; std::vector<ForceInfo,std::allocator<ForceInfo> >::_Destroy
; Function compile flags: /Ogsp
; File c:\program files (x86)\microsoft visual studio 10.0\vc\include\vector
;	COMDAT ?_Destroy@?$vector@UForceInfo@@V?$allocator@UForceInfo@@@std@@@std@@IAEXPAUForceInfo@@0@Z
_TEXT	SEGMENT
__First$ = 8						; size = 4
__Last$ = 12						; size = 4
?_Destroy@?$vector@UForceInfo@@V?$allocator@UForceInfo@@@std@@@std@@IAEXPAUForceInfo@@0@Z PROC ; std::vector<ForceInfo,std::allocator<ForceInfo> >::_Destroy, COMDAT
; _this$ = ecx

; 1270 : 		_Destroy_range(_First, _Last, this->_Alval);
; 1271 : 		}

  00000	c2 08 00	 ret	 8
?_Destroy@?$vector@UForceInfo@@V?$allocator@UForceInfo@@@std@@@std@@IAEXPAUForceInfo@@0@Z ENDP ; std::vector<ForceInfo,std::allocator<ForceInfo> >::_Destroy
_TEXT	ENDS
PUBLIC	??$_Destroy_range@V?$allocator@VioHashString@@@std@@@std@@YAXPAVioHashString@@0AAV?$allocator@VioHashString@@@0@@Z ; std::_Destroy_range<std::allocator<ioHashString> >
; Function compile flags: /Ogsp
; File c:\program files (x86)\microsoft visual studio 10.0\vc\include\xmemory
;	COMDAT ??$_Destroy_range@V?$allocator@VioHashString@@@std@@@std@@YAXPAVioHashString@@0AAV?$allocator@VioHashString@@@0@@Z
_TEXT	SEGMENT
__First$ = 8						; size = 4
__Last$ = 12						; size = 4
__Al$ = 16						; size = 4
??$_Destroy_range@V?$allocator@VioHashString@@@std@@@std@@YAXPAVioHashString@@0AAV?$allocator@VioHashString@@@0@@Z PROC ; std::_Destroy_range<std::allocator<ioHashString> >, COMDAT

; 87   : 	{	// destroy [_First, _Last)

  00000	55		 push	 ebp
  00001	8b ec		 mov	 ebp, esp
  00003	56		 push	 esi

; 88   : 	_Destroy_range(_First, _Last, _Al, _Ptr_cat(_First, _Last));

  00004	8b 75 08	 mov	 esi, DWORD PTR __First$[ebp]
  00007	eb 0b		 jmp	 SHORT $LN21@Destroy_ra@3
$LL7@Destroy_ra@3:
  00009	8b ce		 mov	 ecx, esi
  0000b	ff 15 00 00 00
	00		 call	 DWORD PTR __imp_??1ioHashString@@QAE@XZ
  00011	83 c6 10	 add	 esi, 16			; 00000010H
$LN21@Destroy_ra@3:
  00014	3b 75 0c	 cmp	 esi, DWORD PTR __Last$[ebp]
  00017	75 f0		 jne	 SHORT $LL7@Destroy_ra@3
  00019	5e		 pop	 esi

; 89   : 	}

  0001a	5d		 pop	 ebp
  0001b	c3		 ret	 0
??$_Destroy_range@V?$allocator@VioHashString@@@std@@@std@@YAXPAVioHashString@@0AAV?$allocator@VioHashString@@@0@@Z ENDP ; std::_Destroy_range<std::allocator<ioHashString> >
_TEXT	ENDS
PUBLIC	??$_Destroy_range@V?$allocator@UWeaponInfo@@@std@@@std@@YAXPAUWeaponInfo@@0AAV?$allocator@UWeaponInfo@@@0@@Z ; std::_Destroy_range<std::allocator<WeaponInfo> >
; Function compile flags: /Ogsp
;	COMDAT ??$_Destroy_range@V?$allocator@UWeaponInfo@@@std@@@std@@YAXPAUWeaponInfo@@0AAV?$allocator@UWeaponInfo@@@0@@Z
_TEXT	SEGMENT
__First$ = 8						; size = 4
__Last$ = 12						; size = 4
__Al$ = 16						; size = 4
??$_Destroy_range@V?$allocator@UWeaponInfo@@@std@@@std@@YAXPAUWeaponInfo@@0AAV?$allocator@UWeaponInfo@@@0@@Z PROC ; std::_Destroy_range<std::allocator<WeaponInfo> >, COMDAT

; 87   : 	{	// destroy [_First, _Last)

  00000	55		 push	 ebp
  00001	8b ec		 mov	 ebp, esp
  00003	56		 push	 esi

; 88   : 	_Destroy_range(_First, _Last, _Al, _Ptr_cat(_First, _Last));

  00004	8b 75 08	 mov	 esi, DWORD PTR __First$[ebp]
  00007	eb 0c		 jmp	 SHORT $LN24@Destroy_ra@4
$LL7@Destroy_ra@4:
  00009	8d 4e 08	 lea	 ecx, DWORD PTR [esi+8]
  0000c	ff 15 00 00 00
	00		 call	 DWORD PTR __imp_??1ioHashString@@QAE@XZ
  00012	83 c6 28	 add	 esi, 40			; 00000028H
$LN24@Destroy_ra@4:
  00015	3b 75 0c	 cmp	 esi, DWORD PTR __Last$[ebp]
  00018	75 ef		 jne	 SHORT $LL7@Destroy_ra@4
  0001a	5e		 pop	 esi

; 89   : 	}

  0001b	5d		 pop	 ebp
  0001c	c3		 ret	 0
??$_Destroy_range@V?$allocator@UWeaponInfo@@@std@@@std@@YAXPAUWeaponInfo@@0AAV?$allocator@UWeaponInfo@@@0@@Z ENDP ; std::_Destroy_range<std::allocator<WeaponInfo> >
_TEXT	ENDS
PUBLIC	??$_Uninitialized_copy@V?$_Vector_const_iterator@V?$_Vector_val@VioHashString@@V?$allocator@VioHashString@@@std@@@std@@@std@@PAVioHashString@@V?$allocator@VioHashString@@@2@@std@@YAPAVioHashString@@V?$_Vector_const_iterator@V?$_Vector_val@VioHashString@@V?$allocator@VioHashString@@@std@@@std@@@0@0PAV1@AAV?$allocator@VioHashString@@@0@@Z ; std::_Uninitialized_copy<std::_Vector_const_iterator<std::_Vector_val<ioHashString,std::allocator<ioHashString> > >,ioHashString *,std::allocator<ioHashString> >
; Function compile flags: /Ogsp
; File c:\program files (x86)\microsoft visual studio 10.0\vc\include\memory
;	COMDAT ??$_Uninitialized_copy@V?$_Vector_const_iterator@V?$_Vector_val@VioHashString@@V?$allocator@VioHashString@@@std@@@std@@@std@@PAVioHashString@@V?$allocator@VioHashString@@@2@@std@@YAPAVioHashString@@V?$_Vector_const_iterator@V?$_Vector_val@VioHashString@@V?$allocator@VioHashString@@@std@@@std@@@0@0PAV1@AAV?$allocator@VioHashString@@@0@@Z
_TEXT	SEGMENT
__Cat$600572 = -4					; size = 1
__First$ = 8						; size = 4
__Last$ = 12						; size = 4
__Dest$ = 16						; size = 4
__Al$ = 20						; size = 4
??$_Uninitialized_copy@V?$_Vector_const_iterator@V?$_Vector_val@VioHashString@@V?$allocator@VioHashString@@@std@@@std@@@std@@PAVioHashString@@V?$allocator@VioHashString@@@2@@std@@YAPAVioHashString@@V?$_Vector_const_iterator@V?$_Vector_val@VioHashString@@V?$allocator@VioHashString@@@std@@@std@@@0@0PAV1@AAV?$allocator@VioHashString@@@0@@Z PROC ; std::_Uninitialized_copy<std::_Vector_const_iterator<std::_Vector_val<ioHashString,std::allocator<ioHashString> > >,ioHashString *,std::allocator<ioHashString> >, COMDAT

; 412  : 	{	// copy [_First, _Last) to raw _Dest, using _Al

  00000	55		 push	 ebp
  00001	8b ec		 mov	 ebp, esp
  00003	51		 push	 ecx

; 413  : 	return (_Uninit_copy(_First, _Last, _Dest, _Al,
; 414  : 		_Ptr_cat(_First, _Dest)));

  00004	ff 75 fc	 push	 DWORD PTR __Cat$600572[ebp]
  00007	ff 75 14	 push	 DWORD PTR __Al$[ebp]
  0000a	ff 75 10	 push	 DWORD PTR __Dest$[ebp]
  0000d	ff 75 0c	 push	 DWORD PTR __Last$[ebp]
  00010	ff 75 08	 push	 DWORD PTR __First$[ebp]
  00013	e8 00 00 00 00	 call	 ??$_Uninit_copy@V?$_Vector_const_iterator@V?$_Vector_val@VioHashString@@V?$allocator@VioHashString@@@std@@@std@@@std@@PAVioHashString@@V?$allocator@VioHashString@@@2@@std@@YAPAVioHashString@@V?$_Vector_const_iterator@V?$_Vector_val@VioHashString@@V?$allocator@VioHashString@@@std@@@std@@@0@0PAV1@AAV?$allocator@VioHashString@@@0@U_Nonscalar_ptr_iterator_tag@0@@Z ; std::_Uninit_copy<std::_Vector_const_iterator<std::_Vector_val<ioHashString,std::allocator<ioHashString> > >,ioHashString *,std::allocator<ioHashString> >
  00018	83 c4 14	 add	 esp, 20			; 00000014H

; 415  : 	}

  0001b	c9		 leave
  0001c	c3		 ret	 0
??$_Uninitialized_copy@V?$_Vector_const_iterator@V?$_Vector_val@VioHashString@@V?$allocator@VioHashString@@@std@@@std@@@std@@PAVioHashString@@V?$allocator@VioHashString@@@2@@std@@YAPAVioHashString@@V?$_Vector_const_iterator@V?$_Vector_val@VioHashString@@V?$allocator@VioHashString@@@std@@@std@@@0@0PAV1@AAV?$allocator@VioHashString@@@0@@Z ENDP ; std::_Uninitialized_copy<std::_Vector_const_iterator<std::_Vector_val<ioHashString,std::allocator<ioHashString> > >,ioHashString *,std::allocator<ioHashString> >
_TEXT	ENDS
PUBLIC	?erase@?$vector@UForceInfo@@V?$allocator@UForceInfo@@@std@@@std@@QAE?AV?$_Vector_iterator@V?$_Vector_val@UForceInfo@@V?$allocator@UForceInfo@@@std@@@std@@@2@V?$_Vector_const_iterator@V?$_Vector_val@UForceInfo@@V?$allocator@UForceInfo@@@std@@@std@@@2@0@Z ; std::vector<ForceInfo,std::allocator<ForceInfo> >::erase
; Function compile flags: /Ogsp
; File c:\program files (x86)\microsoft visual studio 10.0\vc\include\vector
;	COMDAT ?erase@?$vector@UForceInfo@@V?$allocator@UForceInfo@@@std@@@std@@QAE?AV?$_Vector_iterator@V?$_Vector_val@UForceInfo@@V?$allocator@UForceInfo@@@std@@@std@@@2@V?$_Vector_const_iterator@V?$_Vector_val@UForceInfo@@V?$allocator@UForceInfo@@@std@@@std@@@2@0@Z
_TEXT	SEGMENT
___$ReturnUdt$ = 8					; size = 4
__First_arg$ = 12					; size = 4
__Cat$600650 = 16					; size = 1
__Last_arg$ = 16					; size = 4
?erase@?$vector@UForceInfo@@V?$allocator@UForceInfo@@@std@@@std@@QAE?AV?$_Vector_iterator@V?$_Vector_val@UForceInfo@@V?$allocator@UForceInfo@@@std@@@std@@@2@V?$_Vector_const_iterator@V?$_Vector_val@UForceInfo@@V?$allocator@UForceInfo@@@std@@@std@@@2@0@Z PROC ; std::vector<ForceInfo,std::allocator<ForceInfo> >::erase, COMDAT
; _this$ = ecx

; 1190 : 		{	// erase [_First, _Last)

  00000	55		 push	 ebp
  00001	8b ec		 mov	 ebp, esp

; 1191 : 		iterator _First = _Make_iter(_First_arg);

  00003	8b 45 0c	 mov	 eax, DWORD PTR __First_arg$[ebp]
  00006	56		 push	 esi
  00007	57		 push	 edi
  00008	8b 7d 08	 mov	 edi, DWORD PTR ___$ReturnUdt$[ebp]
  0000b	8b f1		 mov	 esi, ecx
  0000d	89 07		 mov	 DWORD PTR [edi], eax

; 1192 : 		iterator _Last = _Make_iter(_Last_arg);
; 1193 : 
; 1194 : 		if (_First != _Last)

  0000f	3b 45 10	 cmp	 eax, DWORD PTR __Last_arg$[ebp]
  00012	74 16		 je	 SHORT $LN1@erase

; 1195 : 			{	// worth doing, copy down over hole
; 1196 :  #if _ITERATOR_DEBUG_LEVEL == 2
; 1197 : 			if (_Last < _First || _VICONT(_First) != this
; 1198 : 				|| _VIPTR(_First) < this->_Myfirst
; 1199 : 				|| this->_Mylast < _VIPTR(_Last))
; 1200 : 				_DEBUG_ERROR("vector erase iterator outside range");
; 1201 : 			pointer _Ptr = _Move(_VIPTR(_Last), this->_Mylast,
; 1202 : 				_VIPTR(_First));
; 1203 : 			_Orphan_range(_VIPTR(_First), this->_Mylast);
; 1204 : 
; 1205 :  #else /* _ITERATOR_DEBUG_LEVEL == 2 */
; 1206 : 			pointer _Ptr = _Move(_VIPTR(_Last), this->_Mylast,
; 1207 : 				_VIPTR(_First));

  00014	ff 75 10	 push	 DWORD PTR __Cat$600650[ebp]
  00017	8b 4e 04	 mov	 ecx, DWORD PTR [esi+4]
  0001a	50		 push	 eax
  0001b	51		 push	 ecx
  0001c	ff 75 10	 push	 DWORD PTR __Last_arg$[ebp]
  0001f	e8 00 00 00 00	 call	 ??$_Move@PAUForceInfo@@PAU1@@std@@YAPAUForceInfo@@PAU1@00U_Nonscalar_ptr_iterator_tag@0@@Z ; std::_Move<ForceInfo *,ForceInfo *>
  00024	83 c4 10	 add	 esp, 16			; 00000010H

; 1208 :  #endif /* _ITERATOR_DEBUG_LEVEL == 2 */
; 1209 : 
; 1210 : 			_Destroy(_Ptr, this->_Mylast);
; 1211 : 			this->_Mylast = _Ptr;

  00027	89 46 04	 mov	 DWORD PTR [esi+4], eax
$LN1@erase:

; 1212 : 			}
; 1213 : 		return (_First);

  0002a	8b c7		 mov	 eax, edi
  0002c	5f		 pop	 edi
  0002d	5e		 pop	 esi

; 1214 : 		}

  0002e	5d		 pop	 ebp
  0002f	c2 0c 00	 ret	 12			; 0000000cH
?erase@?$vector@UForceInfo@@V?$allocator@UForceInfo@@@std@@@std@@QAE?AV?$_Vector_iterator@V?$_Vector_val@UForceInfo@@V?$allocator@UForceInfo@@@std@@@std@@@2@V?$_Vector_const_iterator@V?$_Vector_val@UForceInfo@@V?$allocator@UForceInfo@@@std@@@std@@@2@0@Z ENDP ; std::vector<ForceInfo,std::allocator<ForceInfo> >::erase
_TEXT	ENDS
PUBLIC	??$_Ucopy@PAUWeaponInfo@@@?$vector@UWeaponInfo@@V?$allocator@UWeaponInfo@@@std@@@std@@IAEPAUWeaponInfo@@PAU2@00@Z ; std::vector<WeaponInfo,std::allocator<WeaponInfo> >::_Ucopy<WeaponInfo *>
; Function compile flags: /Ogsp
;	COMDAT ??$_Ucopy@PAUWeaponInfo@@@?$vector@UWeaponInfo@@V?$allocator@UWeaponInfo@@@std@@@std@@IAEPAUWeaponInfo@@PAU2@00@Z
_TEXT	SEGMENT
__First$ = 8						; size = 4
__Last$ = 12						; size = 4
__Cat$600739 = 16					; size = 1
__Ptr$ = 16						; size = 4
??$_Ucopy@PAUWeaponInfo@@@?$vector@UWeaponInfo@@V?$allocator@UWeaponInfo@@@std@@@std@@IAEPAUWeaponInfo@@PAU2@00@Z PROC ; std::vector<WeaponInfo,std::allocator<WeaponInfo> >::_Ucopy<WeaponInfo *>, COMDAT
; _this$ = ecx

; 1315 : 		pointer _Ucopy(_Iter _First, _Iter _Last, pointer _Ptr)

  00000	55		 push	 ebp
  00001	8b ec		 mov	 ebp, esp

; 1316 : 		{	// copy initializing [_First, _Last), using allocator
; 1317 : 		return (_Uninitialized_copy(_First, _Last,
; 1318 : 			_Ptr, this->_Alval));

  00003	ff 75 10	 push	 DWORD PTR __Cat$600739[ebp]
  00006	83 c1 0c	 add	 ecx, 12			; 0000000cH
  00009	51		 push	 ecx
  0000a	ff 75 10	 push	 DWORD PTR __Ptr$[ebp]
  0000d	ff 75 0c	 push	 DWORD PTR __Last$[ebp]
  00010	ff 75 08	 push	 DWORD PTR __First$[ebp]
  00013	e8 00 00 00 00	 call	 ??$_Uninit_copy@PAUWeaponInfo@@PAU1@V?$allocator@UWeaponInfo@@@std@@@std@@YAPAUWeaponInfo@@PAU1@00AAV?$allocator@UWeaponInfo@@@0@U_Nonscalar_ptr_iterator_tag@0@@Z ; std::_Uninit_copy<WeaponInfo *,WeaponInfo *,std::allocator<WeaponInfo> >
  00018	83 c4 14	 add	 esp, 20			; 00000014H

; 1319 : 		}

  0001b	5d		 pop	 ebp
  0001c	c2 0c 00	 ret	 12			; 0000000cH
??$_Ucopy@PAUWeaponInfo@@@?$vector@UWeaponInfo@@V?$allocator@UWeaponInfo@@@std@@@std@@IAEPAUWeaponInfo@@PAU2@00@Z ENDP ; std::vector<WeaponInfo,std::allocator<WeaponInfo> >::_Ucopy<WeaponInfo *>
_TEXT	ENDS
PUBLIC	??$_Umove@PAVioHashString@@@?$vector@VioHashString@@V?$allocator@VioHashString@@@std@@@std@@IAEPAVioHashString@@PAV2@00@Z ; std::vector<ioHashString,std::allocator<ioHashString> >::_Umove<ioHashString *>
; Function compile flags: /Ogsp
;	COMDAT ??$_Umove@PAVioHashString@@@?$vector@VioHashString@@V?$allocator@VioHashString@@@std@@@std@@IAEPAVioHashString@@PAV2@00@Z
_TEXT	SEGMENT
__First$ = 8						; size = 4
__Last$ = 12						; size = 4
__Ptr$ = 16						; size = 4
??$_Umove@PAVioHashString@@@?$vector@VioHashString@@V?$allocator@VioHashString@@@std@@@std@@IAEPAVioHashString@@PAV2@00@Z PROC ; std::vector<ioHashString,std::allocator<ioHashString> >::_Umove<ioHashString *>, COMDAT
; _this$ = ecx

; 1322 : 		pointer _Umove(_Iter _First, _Iter _Last, pointer _Ptr)

  00000	55		 push	 ebp
  00001	8b ec		 mov	 ebp, esp

; 1323 : 		{	// move initializing [_First, _Last), using allocator
; 1324 : 		return (_Uninitialized_move(_First, _Last,
; 1325 : 			_Ptr, this->_Alval));

  00003	83 c1 0c	 add	 ecx, 12			; 0000000cH
  00006	51		 push	 ecx
  00007	ff 75 10	 push	 DWORD PTR __Ptr$[ebp]
  0000a	ff 75 0c	 push	 DWORD PTR __Last$[ebp]
  0000d	ff 75 08	 push	 DWORD PTR __First$[ebp]
  00010	e8 00 00 00 00	 call	 ??$_Uninitialized_move@PAVioHashString@@PAV1@V?$allocator@VioHashString@@@std@@@std@@YAPAVioHashString@@PAV1@00AAV?$allocator@VioHashString@@@0@@Z ; std::_Uninitialized_move<ioHashString *,ioHashString *,std::allocator<ioHashString> >
  00015	83 c4 10	 add	 esp, 16			; 00000010H

; 1326 : 		}

  00018	5d		 pop	 ebp
  00019	c2 0c 00	 ret	 12			; 0000000cH
??$_Umove@PAVioHashString@@@?$vector@VioHashString@@V?$allocator@VioHashString@@@std@@@std@@IAEPAVioHashString@@PAV2@00@Z ENDP ; std::vector<ioHashString,std::allocator<ioHashString> >::_Umove<ioHashString *>
_TEXT	ENDS
PUBLIC	??$_Ucopy@V?$_Vector_const_iterator@V?$_Vector_val@UWeaponInfo@@V?$allocator@UWeaponInfo@@@std@@@std@@@std@@@?$vector@UWeaponInfo@@V?$allocator@UWeaponInfo@@@std@@@std@@IAEPAUWeaponInfo@@V?$_Vector_const_iterator@V?$_Vector_val@UWeaponInfo@@V?$allocator@UWeaponInfo@@@std@@@std@@@1@0PAU2@@Z ; std::vector<WeaponInfo,std::allocator<WeaponInfo> >::_Ucopy<std::_Vector_const_iterator<std::_Vector_val<WeaponInfo,std::allocator<WeaponInfo> > > >
; Function compile flags: /Ogsp
;	COMDAT ??$_Ucopy@V?$_Vector_const_iterator@V?$_Vector_val@UWeaponInfo@@V?$allocator@UWeaponInfo@@@std@@@std@@@std@@@?$vector@UWeaponInfo@@V?$allocator@UWeaponInfo@@@std@@@std@@IAEPAUWeaponInfo@@V?$_Vector_const_iterator@V?$_Vector_val@UWeaponInfo@@V?$allocator@UWeaponInfo@@@std@@@std@@@1@0PAU2@@Z
_TEXT	SEGMENT
__First$ = 8						; size = 4
__Last$ = 12						; size = 4
__Cat$600755 = 16					; size = 1
__Ptr$ = 16						; size = 4
??$_Ucopy@V?$_Vector_const_iterator@V?$_Vector_val@UWeaponInfo@@V?$allocator@UWeaponInfo@@@std@@@std@@@std@@@?$vector@UWeaponInfo@@V?$allocator@UWeaponInfo@@@std@@@std@@IAEPAUWeaponInfo@@V?$_Vector_const_iterator@V?$_Vector_val@UWeaponInfo@@V?$allocator@UWeaponInfo@@@std@@@std@@@1@0PAU2@@Z PROC ; std::vector<WeaponInfo,std::allocator<WeaponInfo> >::_Ucopy<std::_Vector_const_iterator<std::_Vector_val<WeaponInfo,std::allocator<WeaponInfo> > > >, COMDAT
; _this$ = ecx

; 1315 : 		pointer _Ucopy(_Iter _First, _Iter _Last, pointer _Ptr)

  00000	55		 push	 ebp
  00001	8b ec		 mov	 ebp, esp

; 1316 : 		{	// copy initializing [_First, _Last), using allocator
; 1317 : 		return (_Uninitialized_copy(_First, _Last,
; 1318 : 			_Ptr, this->_Alval));

  00003	ff 75 10	 push	 DWORD PTR __Cat$600755[ebp]
  00006	83 c1 0c	 add	 ecx, 12			; 0000000cH
  00009	51		 push	 ecx
  0000a	ff 75 10	 push	 DWORD PTR __Ptr$[ebp]
  0000d	ff 75 0c	 push	 DWORD PTR __Last$[ebp]
  00010	ff 75 08	 push	 DWORD PTR __First$[ebp]
  00013	e8 00 00 00 00	 call	 ??$_Uninit_copy@V?$_Vector_const_iterator@V?$_Vector_val@UWeaponInfo@@V?$allocator@UWeaponInfo@@@std@@@std@@@std@@PAUWeaponInfo@@V?$allocator@UWeaponInfo@@@2@@std@@YAPAUWeaponInfo@@V?$_Vector_const_iterator@V?$_Vector_val@UWeaponInfo@@V?$allocator@UWeaponInfo@@@std@@@std@@@0@0PAU1@AAV?$allocator@UWeaponInfo@@@0@U_Nonscalar_ptr_iterator_tag@0@@Z ; std::_Uninit_copy<std::_Vector_const_iterator<std::_Vector_val<WeaponInfo,std::allocator<WeaponInfo> > >,WeaponInfo *,std::allocator<WeaponInfo> >
  00018	83 c4 14	 add	 esp, 20			; 00000014H

; 1319 : 		}

  0001b	5d		 pop	 ebp
  0001c	c2 0c 00	 ret	 12			; 0000000cH
??$_Ucopy@V?$_Vector_const_iterator@V?$_Vector_val@UWeaponInfo@@V?$allocator@UWeaponInfo@@@std@@@std@@@std@@@?$vector@UWeaponInfo@@V?$allocator@UWeaponInfo@@@std@@@std@@IAEPAUWeaponInfo@@V?$_Vector_const_iterator@V?$_Vector_val@UWeaponInfo@@V?$allocator@UWeaponInfo@@@std@@@std@@@1@0PAU2@@Z ENDP ; std::vector<WeaponInfo,std::allocator<WeaponInfo> >::_Ucopy<std::_Vector_const_iterator<std::_Vector_val<WeaponInfo,std::allocator<WeaponInfo> > > >
_TEXT	ENDS
PUBLIC	?_Tidy@?$vector@UForceInfo@@V?$allocator@UForceInfo@@@std@@@std@@IAEXXZ ; std::vector<ForceInfo,std::allocator<ForceInfo> >::_Tidy
EXTRN	__imp_?_Orphan_all@_Container_base0@std@@QAEXXZ:PROC
; Function compile flags: /Ogsp
;	COMDAT ?_Tidy@?$vector@UForceInfo@@V?$allocator@UForceInfo@@@std@@@std@@IAEXXZ
_TEXT	SEGMENT
?_Tidy@?$vector@UForceInfo@@V?$allocator@UForceInfo@@@std@@@std@@IAEXXZ PROC ; std::vector<ForceInfo,std::allocator<ForceInfo> >::_Tidy, COMDAT
; _this$ = ecx

; 1301 : 		{	// free all storage

  00000	56		 push	 esi
  00001	8b f1		 mov	 esi, ecx

; 1302 : 		if (this->_Myfirst != 0)

  00003	83 3e 00	 cmp	 DWORD PTR [esi], 0
  00006	74 0e		 je	 SHORT $LN21@Tidy

; 1303 : 			{	// something to free, destroy and deallocate it
; 1304 : 			this->_Orphan_all();

  00008	ff 15 00 00 00
	00		 call	 DWORD PTR __imp_?_Orphan_all@_Container_base0@std@@QAEXXZ

; 1305 : 			_Destroy(this->_Myfirst, this->_Mylast);
; 1306 : 			this->_Alval.deallocate(this->_Myfirst,
; 1307 : 				this->_Myend - this->_Myfirst);

  0000e	ff 36		 push	 DWORD PTR [esi]
  00010	e8 00 00 00 00	 call	 ??3@YAXPAX@Z		; operator delete
  00015	59		 pop	 ecx
$LN21@Tidy:

; 1308 : 			}
; 1309 : 		this->_Myfirst = 0;

  00016	83 26 00	 and	 DWORD PTR [esi], 0

; 1310 : 		this->_Mylast = 0;

  00019	83 66 04 00	 and	 DWORD PTR [esi+4], 0

; 1311 : 		this->_Myend = 0;

  0001d	83 66 08 00	 and	 DWORD PTR [esi+8], 0
  00021	5e		 pop	 esi

; 1312 : 		}

  00022	c3		 ret	 0
?_Tidy@?$vector@UForceInfo@@V?$allocator@UForceInfo@@@std@@@std@@IAEXXZ ENDP ; std::vector<ForceInfo,std::allocator<ForceInfo> >::_Tidy
_TEXT	ENDS
PUBLIC	?_Destroy@?$vector@VioHashString@@V?$allocator@VioHashString@@@std@@@std@@IAEXPAVioHashString@@0@Z ; std::vector<ioHashString,std::allocator<ioHashString> >::_Destroy
; Function compile flags: /Ogsp
;	COMDAT ?_Destroy@?$vector@VioHashString@@V?$allocator@VioHashString@@@std@@@std@@IAEXPAVioHashString@@0@Z
_TEXT	SEGMENT
__First$ = 8						; size = 4
__Last$ = 12						; size = 4
?_Destroy@?$vector@VioHashString@@V?$allocator@VioHashString@@@std@@@std@@IAEXPAVioHashString@@0@Z PROC ; std::vector<ioHashString,std::allocator<ioHashString> >::_Destroy, COMDAT
; _this$ = ecx

; 1269 : 		{	// destroy [_First, _Last) using allocator

  00000	55		 push	 ebp
  00001	8b ec		 mov	 ebp, esp
  00003	56		 push	 esi

; 1270 : 		_Destroy_range(_First, _Last, this->_Alval);

  00004	8b 75 08	 mov	 esi, DWORD PTR __First$[ebp]
  00007	eb 0b		 jmp	 SHORT $LN23@Destroy
$LL9@Destroy:
  00009	8b ce		 mov	 ecx, esi
  0000b	ff 15 00 00 00
	00		 call	 DWORD PTR __imp_??1ioHashString@@QAE@XZ
  00011	83 c6 10	 add	 esi, 16			; 00000010H
$LN23@Destroy:
  00014	3b 75 0c	 cmp	 esi, DWORD PTR __Last$[ebp]
  00017	75 f0		 jne	 SHORT $LL9@Destroy
  00019	5e		 pop	 esi

; 1271 : 		}

  0001a	5d		 pop	 ebp
  0001b	c2 08 00	 ret	 8
?_Destroy@?$vector@VioHashString@@V?$allocator@VioHashString@@@std@@@std@@IAEXPAVioHashString@@0@Z ENDP ; std::vector<ioHashString,std::allocator<ioHashString> >::_Destroy
_TEXT	ENDS
PUBLIC	?_Destroy@?$vector@UWeaponInfo@@V?$allocator@UWeaponInfo@@@std@@@std@@IAEXPAUWeaponInfo@@0@Z ; std::vector<WeaponInfo,std::allocator<WeaponInfo> >::_Destroy
; Function compile flags: /Ogsp
;	COMDAT ?_Destroy@?$vector@UWeaponInfo@@V?$allocator@UWeaponInfo@@@std@@@std@@IAEXPAUWeaponInfo@@0@Z
_TEXT	SEGMENT
__First$ = 8						; size = 4
__Last$ = 12						; size = 4
?_Destroy@?$vector@UWeaponInfo@@V?$allocator@UWeaponInfo@@@std@@@std@@IAEXPAUWeaponInfo@@0@Z PROC ; std::vector<WeaponInfo,std::allocator<WeaponInfo> >::_Destroy, COMDAT
; _this$ = ecx

; 1269 : 		{	// destroy [_First, _Last) using allocator

  00000	55		 push	 ebp
  00001	8b ec		 mov	 ebp, esp

; 1270 : 		_Destroy_range(_First, _Last, this->_Alval);

  00003	83 c1 0c	 add	 ecx, 12			; 0000000cH
  00006	51		 push	 ecx
  00007	ff 75 0c	 push	 DWORD PTR __Last$[ebp]
  0000a	ff 75 08	 push	 DWORD PTR __First$[ebp]
  0000d	e8 00 00 00 00	 call	 ??$_Destroy_range@V?$allocator@UWeaponInfo@@@std@@@std@@YAXPAUWeaponInfo@@0AAV?$allocator@UWeaponInfo@@@0@@Z ; std::_Destroy_range<std::allocator<WeaponInfo> >
  00012	83 c4 0c	 add	 esp, 12			; 0000000cH

; 1271 : 		}

  00015	5d		 pop	 ebp
  00016	c2 08 00	 ret	 8
?_Destroy@?$vector@UWeaponInfo@@V?$allocator@UWeaponInfo@@@std@@@std@@IAEXPAUWeaponInfo@@0@Z ENDP ; std::vector<WeaponInfo,std::allocator<WeaponInfo> >::_Destroy
_TEXT	ENDS
PUBLIC	??$_Ucopy@V?$_Vector_const_iterator@V?$_Vector_val@VioHashString@@V?$allocator@VioHashString@@@std@@@std@@@std@@@?$vector@VioHashString@@V?$allocator@VioHashString@@@std@@@std@@IAEPAVioHashString@@V?$_Vector_const_iterator@V?$_Vector_val@VioHashString@@V?$allocator@VioHashString@@@std@@@std@@@1@0PAV2@@Z ; std::vector<ioHashString,std::allocator<ioHashString> >::_Ucopy<std::_Vector_const_iterator<std::_Vector_val<ioHashString,std::allocator<ioHashString> > > >
; Function compile flags: /Ogsp
;	COMDAT ??$_Ucopy@V?$_Vector_const_iterator@V?$_Vector_val@VioHashString@@V?$allocator@VioHashString@@@std@@@std@@@std@@@?$vector@VioHashString@@V?$allocator@VioHashString@@@std@@@std@@IAEPAVioHashString@@V?$_Vector_const_iterator@V?$_Vector_val@VioHashString@@V?$allocator@VioHashString@@@std@@@std@@@1@0PAV2@@Z
_TEXT	SEGMENT
__First$ = 8						; size = 4
__Last$ = 12						; size = 4
__Cat$600929 = 16					; size = 1
__Ptr$ = 16						; size = 4
??$_Ucopy@V?$_Vector_const_iterator@V?$_Vector_val@VioHashString@@V?$allocator@VioHashString@@@std@@@std@@@std@@@?$vector@VioHashString@@V?$allocator@VioHashString@@@std@@@std@@IAEPAVioHashString@@V?$_Vector_const_iterator@V?$_Vector_val@VioHashString@@V?$allocator@VioHashString@@@std@@@std@@@1@0PAV2@@Z PROC ; std::vector<ioHashString,std::allocator<ioHashString> >::_Ucopy<std::_Vector_const_iterator<std::_Vector_val<ioHashString,std::allocator<ioHashString> > > >, COMDAT
; _this$ = ecx

; 1315 : 		pointer _Ucopy(_Iter _First, _Iter _Last, pointer _Ptr)

  00000	55		 push	 ebp
  00001	8b ec		 mov	 ebp, esp

; 1316 : 		{	// copy initializing [_First, _Last), using allocator
; 1317 : 		return (_Uninitialized_copy(_First, _Last,
; 1318 : 			_Ptr, this->_Alval));

  00003	ff 75 10	 push	 DWORD PTR __Cat$600929[ebp]
  00006	83 c1 0c	 add	 ecx, 12			; 0000000cH
  00009	51		 push	 ecx
  0000a	ff 75 10	 push	 DWORD PTR __Ptr$[ebp]
  0000d	ff 75 0c	 push	 DWORD PTR __Last$[ebp]
  00010	ff 75 08	 push	 DWORD PTR __First$[ebp]
  00013	e8 00 00 00 00	 call	 ??$_Uninit_copy@V?$_Vector_const_iterator@V?$_Vector_val@VioHashString@@V?$allocator@VioHashString@@@std@@@std@@@std@@PAVioHashString@@V?$allocator@VioHashString@@@2@@std@@YAPAVioHashString@@V?$_Vector_const_iterator@V?$_Vector_val@VioHashString@@V?$allocator@VioHashString@@@std@@@std@@@0@0PAV1@AAV?$allocator@VioHashString@@@0@U_Nonscalar_ptr_iterator_tag@0@@Z ; std::_Uninit_copy<std::_Vector_const_iterator<std::_Vector_val<ioHashString,std::allocator<ioHashString> > >,ioHashString *,std::allocator<ioHashString> >
  00018	83 c4 14	 add	 esp, 20			; 00000014H

; 1319 : 		}

  0001b	5d		 pop	 ebp
  0001c	c2 0c 00	 ret	 12			; 0000000cH
??$_Ucopy@V?$_Vector_const_iterator@V?$_Vector_val@VioHashString@@V?$allocator@VioHashString@@@std@@@std@@@std@@@?$vector@VioHashString@@V?$allocator@VioHashString@@@std@@@std@@IAEPAVioHashString@@V?$_Vector_const_iterator@V?$_Vector_val@VioHashString@@V?$allocator@VioHashString@@@std@@@std@@@1@0PAV2@@Z ENDP ; std::vector<ioHashString,std::allocator<ioHashString> >::_Ucopy<std::_Vector_const_iterator<std::_Vector_val<ioHashString,std::allocator<ioHashString> > > >
_TEXT	ENDS
PUBLIC	?clear@?$vector@UForceInfo@@V?$allocator@UForceInfo@@@std@@@std@@QAEXXZ ; std::vector<ForceInfo,std::allocator<ForceInfo> >::clear
; Function compile flags: /Ogsp
;	COMDAT ?clear@?$vector@UForceInfo@@V?$allocator@UForceInfo@@@std@@@std@@QAEXXZ
_TEXT	SEGMENT
$T600939 = -4						; size = 4
?clear@?$vector@UForceInfo@@V?$allocator@UForceInfo@@@std@@@std@@QAEXXZ PROC ; std::vector<ForceInfo,std::allocator<ForceInfo> >::clear, COMDAT
; _this$ = ecx

; 1217 : 		{	// erase all

  00000	55		 push	 ebp
  00001	8b ec		 mov	 ebp, esp
  00003	51		 push	 ecx

; 1218 : 		erase(begin(), end());

  00004	8b 41 04	 mov	 eax, DWORD PTR [ecx+4]
  00007	8b 11		 mov	 edx, DWORD PTR [ecx]
  00009	50		 push	 eax
  0000a	52		 push	 edx
  0000b	8d 45 fc	 lea	 eax, DWORD PTR $T600939[ebp]
  0000e	50		 push	 eax
  0000f	e8 00 00 00 00	 call	 ?erase@?$vector@UForceInfo@@V?$allocator@UForceInfo@@@std@@@std@@QAE?AV?$_Vector_iterator@V?$_Vector_val@UForceInfo@@V?$allocator@UForceInfo@@@std@@@std@@@2@V?$_Vector_const_iterator@V?$_Vector_val@UForceInfo@@V?$allocator@UForceInfo@@@std@@@std@@@2@0@Z ; std::vector<ForceInfo,std::allocator<ForceInfo> >::erase

; 1219 : 		}

  00014	c9		 leave
  00015	c3		 ret	 0
?clear@?$vector@UForceInfo@@V?$allocator@UForceInfo@@@std@@@std@@QAEXXZ ENDP ; std::vector<ForceInfo,std::allocator<ForceInfo> >::clear
_TEXT	ENDS
PUBLIC	?erase@?$vector@UWeaponInfo@@V?$allocator@UWeaponInfo@@@std@@@std@@QAE?AV?$_Vector_iterator@V?$_Vector_val@UWeaponInfo@@V?$allocator@UWeaponInfo@@@std@@@std@@@2@V?$_Vector_const_iterator@V?$_Vector_val@UWeaponInfo@@V?$allocator@UWeaponInfo@@@std@@@std@@@2@0@Z ; std::vector<WeaponInfo,std::allocator<WeaponInfo> >::erase
; Function compile flags: /Ogsp
;	COMDAT ?erase@?$vector@UWeaponInfo@@V?$allocator@UWeaponInfo@@@std@@@std@@QAE?AV?$_Vector_iterator@V?$_Vector_val@UWeaponInfo@@V?$allocator@UWeaponInfo@@@std@@@std@@@2@V?$_Vector_const_iterator@V?$_Vector_val@UWeaponInfo@@V?$allocator@UWeaponInfo@@@std@@@std@@@2@0@Z
_TEXT	SEGMENT
___$ReturnUdt$ = 8					; size = 4
__First_arg$ = 12					; size = 4
__Cat$601065 = 16					; size = 1
__Last_arg$ = 16					; size = 4
?erase@?$vector@UWeaponInfo@@V?$allocator@UWeaponInfo@@@std@@@std@@QAE?AV?$_Vector_iterator@V?$_Vector_val@UWeaponInfo@@V?$allocator@UWeaponInfo@@@std@@@std@@@2@V?$_Vector_const_iterator@V?$_Vector_val@UWeaponInfo@@V?$allocator@UWeaponInfo@@@std@@@std@@@2@0@Z PROC ; std::vector<WeaponInfo,std::allocator<WeaponInfo> >::erase, COMDAT
; _this$ = ecx

; 1190 : 		{	// erase [_First, _Last)

  00000	55		 push	 ebp
  00001	8b ec		 mov	 ebp, esp

; 1191 : 		iterator _First = _Make_iter(_First_arg);

  00003	8b 45 0c	 mov	 eax, DWORD PTR __First_arg$[ebp]
  00006	53		 push	 ebx
  00007	8b 5d 08	 mov	 ebx, DWORD PTR ___$ReturnUdt$[ebp]
  0000a	56		 push	 esi
  0000b	8b f1		 mov	 esi, ecx
  0000d	89 03		 mov	 DWORD PTR [ebx], eax

; 1192 : 		iterator _Last = _Make_iter(_Last_arg);
; 1193 : 
; 1194 : 		if (_First != _Last)

  0000f	3b 45 10	 cmp	 eax, DWORD PTR __Last_arg$[ebp]
  00012	74 27		 je	 SHORT $LN1@erase@2

; 1195 : 			{	// worth doing, copy down over hole
; 1196 :  #if _ITERATOR_DEBUG_LEVEL == 2
; 1197 : 			if (_Last < _First || _VICONT(_First) != this
; 1198 : 				|| _VIPTR(_First) < this->_Myfirst
; 1199 : 				|| this->_Mylast < _VIPTR(_Last))
; 1200 : 				_DEBUG_ERROR("vector erase iterator outside range");
; 1201 : 			pointer _Ptr = _Move(_VIPTR(_Last), this->_Mylast,
; 1202 : 				_VIPTR(_First));
; 1203 : 			_Orphan_range(_VIPTR(_First), this->_Mylast);
; 1204 : 
; 1205 :  #else /* _ITERATOR_DEBUG_LEVEL == 2 */
; 1206 : 			pointer _Ptr = _Move(_VIPTR(_Last), this->_Mylast,
; 1207 : 				_VIPTR(_First));

  00014	8b 4e 04	 mov	 ecx, DWORD PTR [esi+4]
  00017	57		 push	 edi
  00018	ff 75 10	 push	 DWORD PTR __Cat$601065[ebp]
  0001b	50		 push	 eax
  0001c	51		 push	 ecx
  0001d	ff 75 10	 push	 DWORD PTR __Last_arg$[ebp]
  00020	e8 00 00 00 00	 call	 ??$_Move@PAUWeaponInfo@@PAU1@@std@@YAPAUWeaponInfo@@PAU1@00U_Nonscalar_ptr_iterator_tag@0@@Z ; std::_Move<WeaponInfo *,WeaponInfo *>
  00025	8b f8		 mov	 edi, eax

; 1208 :  #endif /* _ITERATOR_DEBUG_LEVEL == 2 */
; 1209 : 
; 1210 : 			_Destroy(_Ptr, this->_Mylast);

  00027	8d 46 0c	 lea	 eax, DWORD PTR [esi+12]
  0002a	50		 push	 eax
  0002b	ff 76 04	 push	 DWORD PTR [esi+4]
  0002e	57		 push	 edi
  0002f	e8 00 00 00 00	 call	 ??$_Destroy_range@V?$allocator@UWeaponInfo@@@std@@@std@@YAXPAUWeaponInfo@@0AAV?$allocator@UWeaponInfo@@@0@@Z ; std::_Destroy_range<std::allocator<WeaponInfo> >
  00034	83 c4 1c	 add	 esp, 28			; 0000001cH

; 1211 : 			this->_Mylast = _Ptr;

  00037	89 7e 04	 mov	 DWORD PTR [esi+4], edi
  0003a	5f		 pop	 edi
$LN1@erase@2:

; 1212 : 			}
; 1213 : 		return (_First);

  0003b	5e		 pop	 esi
  0003c	8b c3		 mov	 eax, ebx
  0003e	5b		 pop	 ebx

; 1214 : 		}

  0003f	5d		 pop	 ebp
  00040	c2 0c 00	 ret	 12			; 0000000cH
?erase@?$vector@UWeaponInfo@@V?$allocator@UWeaponInfo@@@std@@@std@@QAE?AV?$_Vector_iterator@V?$_Vector_val@UWeaponInfo@@V?$allocator@UWeaponInfo@@@std@@@std@@@2@V?$_Vector_const_iterator@V?$_Vector_val@UWeaponInfo@@V?$allocator@UWeaponInfo@@@std@@@std@@@2@0@Z ENDP ; std::vector<WeaponInfo,std::allocator<WeaponInfo> >::erase
_TEXT	ENDS
PUBLIC	?reserve@?$vector@VioHashString@@V?$allocator@VioHashString@@@std@@@std@@QAEXI@Z ; std::vector<ioHashString,std::allocator<ioHashString> >::reserve
;	COMDAT xdata$x
; File c:\program files (x86)\microsoft visual studio 10.0\vc\include\xmemory
xdata$x	SEGMENT
__catchsym$?reserve@?$vector@VioHashString@@V?$allocator@VioHashString@@@std@@@std@@QAEXI@Z$2 DD 040H
	DD	00H
	DD	00H
	DD	FLAT:__catch$?reserve@?$vector@VioHashString@@V?$allocator@VioHashString@@@std@@@std@@QAEXI@Z$0
__unwindtable$?reserve@?$vector@VioHashString@@V?$allocator@VioHashString@@@std@@@std@@QAEXI@Z DD 0ffffffffH
	DD	00H
	DD	0ffffffffH
	DD	00H
__tryblocktable$?reserve@?$vector@VioHashString@@V?$allocator@VioHashString@@@std@@@std@@QAEXI@Z DD 00H
	DD	00H
	DD	01H
	DD	01H
	DD	FLAT:__catchsym$?reserve@?$vector@VioHashString@@V?$allocator@VioHashString@@@std@@@std@@QAEXI@Z$2
__ehfuncinfo$?reserve@?$vector@VioHashString@@V?$allocator@VioHashString@@@std@@@std@@QAEXI@Z DD 019930522H
	DD	02H
	DD	FLAT:__unwindtable$?reserve@?$vector@VioHashString@@V?$allocator@VioHashString@@@std@@@std@@QAEXI@Z
	DD	01H
	DD	FLAT:__tryblocktable$?reserve@?$vector@VioHashString@@V?$allocator@VioHashString@@@std@@@std@@QAEXI@Z
	DD	2 DUP(00H)
	DD	00H
	DD	01H
; Function compile flags: /Ogsp
; File c:\program files (x86)\microsoft visual studio 10.0\vc\include\vector
xdata$x	ENDS
;	COMDAT ?reserve@?$vector@VioHashString@@V?$allocator@VioHashString@@@std@@@std@@QAEXI@Z
_TEXT	SEGMENT
tv300 = -24						; size = 4
__Ptr$590981 = -20					; size = 4
__$EHRec$ = -16						; size = 16
$T601167 = 8						; size = 4
__Count$ = 8						; size = 4
?reserve@?$vector@VioHashString@@V?$allocator@VioHashString@@@std@@@std@@QAEXI@Z PROC ; std::vector<ioHashString,std::allocator<ioHashString> >::reserve, COMDAT
; _this$ = ecx

; 746  : 		{	// determine new minimum length of allocated storage

  00000	6a 0c		 push	 12			; 0000000cH
  00002	b8 00 00 00 00	 mov	 eax, __ehhandler$?reserve@?$vector@VioHashString@@V?$allocator@VioHashString@@@std@@@std@@QAEXI@Z
  00007	e8 00 00 00 00	 call	 __EH_prolog3_catch
  0000c	8b f1		 mov	 esi, ecx

; 747  : 		if (max_size() < _Count)

  0000e	8b 5d 08	 mov	 ebx, DWORD PTR __Count$[ebp]
  00011	81 fb ff ff ff
	0f		 cmp	 ebx, 268435455		; 0fffffffH
  00017	76 0b		 jbe	 SHORT $LN5@reserve

; 748  : 			_Xlen();	// result too long

  00019	68 00 00 00 00	 push	 OFFSET ??_C@_0BD@OLBABOEK@vector?$DMT?$DO?5too?5long?$AA@
  0001e	ff 15 00 00 00
	00		 call	 DWORD PTR __imp_?_Xlength_error@std@@YAXPBD@Z
$LN59@reserve:
$LN5@reserve:

; 749  : 		else if (capacity() < _Count)

  00024	8b 46 08	 mov	 eax, DWORD PTR [esi+8]
  00027	2b 06		 sub	 eax, DWORD PTR [esi]
  00029	c1 f8 04	 sar	 eax, 4
  0002c	3b c3		 cmp	 eax, ebx
  0002e	73 7a		 jae	 SHORT $LN3@reserve

; 750  : 			{	// not enough room, reallocate
; 751  : 			pointer _Ptr = this->_Alval.allocate(_Count);

  00030	6a 00		 push	 0
  00032	53		 push	 ebx
  00033	e8 00 00 00 00	 call	 ??$_Allocate@VioHashString@@@std@@YAPAVioHashString@@IPAV1@@Z ; std::_Allocate<ioHashString>

; 752  : 
; 753  : 			_TRY_BEGIN
; 754  : 			_Umove(this->_Myfirst, this->_Mylast, _Ptr);

  00038	8b 0e		 mov	 ecx, DWORD PTR [esi]
  0003a	83 65 fc 00	 and	 DWORD PTR __$EHRec$[ebp+12], 0
  0003e	8d 56 0c	 lea	 edx, DWORD PTR [esi+12]
  00041	52		 push	 edx
  00042	89 45 ec	 mov	 DWORD PTR __Ptr$590981[ebp], eax
  00045	ff 75 ec	 push	 DWORD PTR __Ptr$590981[ebp]
  00048	8b 46 04	 mov	 eax, DWORD PTR [esi+4]
  0004b	50		 push	 eax
  0004c	51		 push	 ecx
  0004d	e8 00 00 00 00	 call	 ??$_Uninitialized_move@PAVioHashString@@PAV1@V?$allocator@VioHashString@@@std@@@std@@YAPAVioHashString@@PAV1@00AAV?$allocator@VioHashString@@@0@@Z ; std::_Uninitialized_move<ioHashString *,ioHashString *,std::allocator<ioHashString> >

; 758  : 			_CATCH_END
; 759  : 
; 760  : 			size_type _Size = size();

  00052	8b 4e 04	 mov	 ecx, DWORD PTR [esi+4]
  00055	8b 06		 mov	 eax, DWORD PTR [esi]
  00057	83 4d fc ff	 or	 DWORD PTR __$EHRec$[ebp+12], -1
  0005b	8b f9		 mov	 edi, ecx
  0005d	83 c4 18	 add	 esp, 24			; 00000018H
  00060	2b f8		 sub	 edi, eax
  00062	89 4d e8	 mov	 DWORD PTR tv300[ebp], ecx
  00065	85 c0		 test	 eax, eax
  00067	74 24		 je	 SHORT $LN51@reserve

; 761  : 			if (this->_Myfirst != 0)
; 762  : 				{	// destroy and deallocate old array
; 763  : 				_Destroy(this->_Myfirst, this->_Mylast);

  00069	89 45 08	 mov	 DWORD PTR $T601167[ebp], eax
  0006c	3b c1		 cmp	 eax, ecx
  0006e	74 15		 je	 SHORT $LN37@reserve
$LN39@reserve:
  00070	8b 4d 08	 mov	 ecx, DWORD PTR $T601167[ebp]
  00073	ff 15 00 00 00
	00		 call	 DWORD PTR __imp_??1ioHashString@@QAE@XZ
  00079	83 45 08 10	 add	 DWORD PTR $T601167[ebp], 16 ; 00000010H
  0007d	8b 45 08	 mov	 eax, DWORD PTR $T601167[ebp]
  00080	3b 45 e8	 cmp	 eax, DWORD PTR tv300[ebp]
  00083	75 eb		 jne	 SHORT $LN39@reserve
$LN37@reserve:

; 764  : 				this->_Alval.deallocate(this->_Myfirst,
; 765  : 					this->_Myend - this->_Myfirst);

  00085	ff 36		 push	 DWORD PTR [esi]
  00087	e8 00 00 00 00	 call	 ??3@YAXPAX@Z		; operator delete
  0008c	59		 pop	 ecx
$LN51@reserve:

; 766  : 				}
; 767  : 
; 768  : 			this->_Orphan_all();

  0008d	8b ce		 mov	 ecx, esi
  0008f	ff 15 00 00 00
	00		 call	 DWORD PTR __imp_?_Orphan_all@_Container_base0@std@@QAEXXZ

; 769  : 			this->_Myend = _Ptr + _Count;

  00095	8b 45 ec	 mov	 eax, DWORD PTR __Ptr$590981[ebp]
  00098	c1 e3 04	 shl	 ebx, 4
  0009b	03 d8		 add	 ebx, eax

; 770  : 			this->_Mylast = _Ptr + _Size;

  0009d	83 e7 f0	 and	 edi, -16		; fffffff0H
  000a0	03 f8		 add	 edi, eax
  000a2	89 5e 08	 mov	 DWORD PTR [esi+8], ebx
  000a5	89 7e 04	 mov	 DWORD PTR [esi+4], edi

; 771  : 			this->_Myfirst = _Ptr;

  000a8	89 06		 mov	 DWORD PTR [esi], eax
$LN3@reserve:

; 772  : 			}
; 773  : 		}

  000aa	e8 00 00 00 00	 call	 __EH_epilog3
  000af	c2 04 00	 ret	 4
__catch$?reserve@?$vector@VioHashString@@V?$allocator@VioHashString@@@std@@@std@@QAEXI@Z$0:

; 755  : 			_CATCH_ALL
; 756  : 			this->_Alval.deallocate(_Ptr, _Count);

  000b2	ff 75 ec	 push	 DWORD PTR __Ptr$590981[ebp]
  000b5	e8 00 00 00 00	 call	 ??3@YAXPAX@Z		; operator delete
  000ba	59		 pop	 ecx

; 757  : 			_RERAISE;

  000bb	6a 00		 push	 0
  000bd	6a 00		 push	 0
  000bf	e8 00 00 00 00	 call	 __CxxThrowException@8
$LN60@reserve:
$LN58@reserve:
  000c4	cc		 int	 3
_TEXT	ENDS
;	COMDAT text$x
text$x	SEGMENT
__ehhandler$?reserve@?$vector@VioHashString@@V?$allocator@VioHashString@@@std@@@std@@QAEXI@Z:
  00000	8b 54 24 08	 mov	 edx, DWORD PTR [esp+8]
  00004	8d 42 0c	 lea	 eax, DWORD PTR [edx+12]
  00007	8b 4a e4	 mov	 ecx, DWORD PTR [edx-28]
  0000a	33 c8		 xor	 ecx, eax
  0000c	e8 00 00 00 00	 call	 @__security_check_cookie@4
  00011	b8 00 00 00 00	 mov	 eax, OFFSET __ehfuncinfo$?reserve@?$vector@VioHashString@@V?$allocator@VioHashString@@@std@@@std@@QAEXI@Z
  00016	e9 00 00 00 00	 jmp	 ___CxxFrameHandler3
text$x	ENDS
?reserve@?$vector@VioHashString@@V?$allocator@VioHashString@@@std@@@std@@QAEXI@Z ENDP ; std::vector<ioHashString,std::allocator<ioHashString> >::reserve
PUBLIC	??0?$vector@UForceInfo@@V?$allocator@UForceInfo@@@std@@@std@@QAE@ABV01@@Z ; std::vector<ForceInfo,std::allocator<ForceInfo> >::vector<ForceInfo,std::allocator<ForceInfo> >
;	COMDAT xdata$x
; File c:\program files (x86)\microsoft visual studio 10.0\vc\include\xutility
xdata$x	SEGMENT
__catchsym$??0?$vector@UForceInfo@@V?$allocator@UForceInfo@@@std@@@std@@QAE@ABV01@@Z$2 DD 040H
	DD	00H
	DD	00H
	DD	FLAT:__catch$??0?$vector@UForceInfo@@V?$allocator@UForceInfo@@@std@@@std@@QAE@ABV01@@Z$0
__unwindtable$??0?$vector@UForceInfo@@V?$allocator@UForceInfo@@@std@@@std@@QAE@ABV01@@Z DD 0ffffffffH
	DD	00H
	DD	0ffffffffH
	DD	00H
__tryblocktable$??0?$vector@UForceInfo@@V?$allocator@UForceInfo@@@std@@@std@@QAE@ABV01@@Z DD 00H
	DD	00H
	DD	01H
	DD	01H
	DD	FLAT:__catchsym$??0?$vector@UForceInfo@@V?$allocator@UForceInfo@@@std@@@std@@QAE@ABV01@@Z$2
__ehfuncinfo$??0?$vector@UForceInfo@@V?$allocator@UForceInfo@@@std@@@std@@QAE@ABV01@@Z DD 019930522H
	DD	02H
	DD	FLAT:__unwindtable$??0?$vector@UForceInfo@@V?$allocator@UForceInfo@@@std@@@std@@QAE@ABV01@@Z
	DD	01H
	DD	FLAT:__tryblocktable$??0?$vector@UForceInfo@@V?$allocator@UForceInfo@@@std@@@std@@QAE@ABV01@@Z
	DD	2 DUP(00H)
	DD	00H
	DD	01H
; Function compile flags: /Ogsp
; File c:\program files (x86)\microsoft visual studio 10.0\vc\include\vector
xdata$x	ENDS
;	COMDAT ??0?$vector@UForceInfo@@V?$allocator@UForceInfo@@@std@@@std@@QAE@ABV01@@Z
_TEXT	SEGMENT
_this$ = -20						; size = 4
__$EHRec$ = -16						; size = 16
__Cat$601310 = 8					; size = 1
__Right$ = 8						; size = 4
??0?$vector@UForceInfo@@V?$allocator@UForceInfo@@@std@@@std@@QAE@ABV01@@Z PROC ; std::vector<ForceInfo,std::allocator<ForceInfo> >::vector<ForceInfo,std::allocator<ForceInfo> >, COMDAT
; _this$ = ecx

; 535  : 		{	// construct by copying _Right

  00000	6a 08		 push	 8
  00002	b8 00 00 00 00	 mov	 eax, __ehhandler$??0?$vector@UForceInfo@@V?$allocator@UForceInfo@@@std@@@std@@QAE@ABV01@@Z
  00007	e8 00 00 00 00	 call	 __EH_prolog3_catch
  0000c	8b f1		 mov	 esi, ecx
  0000e	89 75 ec	 mov	 DWORD PTR _this$[ebp], esi

; 536  : 		if (_Buy(_Right.size()))

  00011	8b 7d 08	 mov	 edi, DWORD PTR __Right$[ebp]
  00014	33 db		 xor	 ebx, ebx
  00016	89 1e		 mov	 DWORD PTR [esi], ebx
  00018	89 5e 04	 mov	 DWORD PTR [esi+4], ebx
  0001b	89 5e 08	 mov	 DWORD PTR [esi+8], ebx
  0001e	8b 47 04	 mov	 eax, DWORD PTR [edi+4]
  00021	2b 07		 sub	 eax, DWORD PTR [edi]
  00023	6a 0c		 push	 12			; 0000000cH
  00025	59		 pop	 ecx
  00026	99		 cdq
  00027	f7 f9		 idiv	 ecx
  00029	8b ce		 mov	 ecx, esi
  0002b	50		 push	 eax
  0002c	e8 00 00 00 00	 call	 ?_Buy@?$vector@UForceInfo@@V?$allocator@UForceInfo@@@std@@@std@@IAE_NI@Z ; std::vector<ForceInfo,std::allocator<ForceInfo> >::_Buy
  00031	84 c0		 test	 al, al
  00033	74 1f		 je	 SHORT $LN7@vector

; 537  : 			_TRY_BEGIN
; 538  : 			this->_Mylast = _Ucopy(_Right.begin(), _Right.end(),
; 539  : 				this->_Myfirst);

  00035	ff 75 08	 push	 DWORD PTR __Cat$601310[ebp]
  00038	8b 0e		 mov	 ecx, DWORD PTR [esi]
  0003a	8b 47 04	 mov	 eax, DWORD PTR [edi+4]
  0003d	8b 3f		 mov	 edi, DWORD PTR [edi]
  0003f	8d 56 0c	 lea	 edx, DWORD PTR [esi+12]
  00042	52		 push	 edx
  00043	51		 push	 ecx
  00044	50		 push	 eax
  00045	57		 push	 edi
  00046	89 5d fc	 mov	 DWORD PTR __$EHRec$[ebp+12], ebx
  00049	e8 00 00 00 00	 call	 ??$_Uninit_copy@V?$_Vector_const_iterator@V?$_Vector_val@UForceInfo@@V?$allocator@UForceInfo@@@std@@@std@@@std@@PAUForceInfo@@V?$allocator@UForceInfo@@@2@@std@@YAPAUForceInfo@@V?$_Vector_const_iterator@V?$_Vector_val@UForceInfo@@V?$allocator@UForceInfo@@@std@@@std@@@0@0PAU1@AAV?$allocator@UForceInfo@@@0@U_Nonscalar_ptr_iterator_tag@0@@Z ; std::_Uninit_copy<std::_Vector_const_iterator<std::_Vector_val<ForceInfo,std::allocator<ForceInfo> > >,ForceInfo *,std::allocator<ForceInfo> >
  0004e	83 c4 14	 add	 esp, 20			; 00000014H
  00051	89 46 04	 mov	 DWORD PTR [esi+4], eax
$LN7@vector:

; 543  : 			_CATCH_END
; 544  : 		}

  00054	8b c6		 mov	 eax, esi
  00056	e8 00 00 00 00	 call	 __EH_epilog3
  0005b	c2 04 00	 ret	 4
__catch$??0?$vector@UForceInfo@@V?$allocator@UForceInfo@@@std@@@std@@QAE@ABV01@@Z$0:

; 540  : 			_CATCH_ALL
; 541  : 			_Tidy();

  0005e	8b 4d ec	 mov	 ecx, DWORD PTR _this$[ebp]
  00061	e8 00 00 00 00	 call	 ?_Tidy@?$vector@UForceInfo@@V?$allocator@UForceInfo@@@std@@@std@@IAEXXZ ; std::vector<ForceInfo,std::allocator<ForceInfo> >::_Tidy

; 542  : 			_RERAISE;

  00066	33 db		 xor	 ebx, ebx
  00068	53		 push	 ebx
  00069	53		 push	 ebx
  0006a	e8 00 00 00 00	 call	 __CxxThrowException@8
$LN38@vector:
$LN37@vector:
  0006f	cc		 int	 3
_TEXT	ENDS
;	COMDAT text$x
text$x	SEGMENT
__ehhandler$??0?$vector@UForceInfo@@V?$allocator@UForceInfo@@@std@@@std@@QAE@ABV01@@Z:
  00000	8b 54 24 08	 mov	 edx, DWORD PTR [esp+8]
  00004	8d 42 0c	 lea	 eax, DWORD PTR [edx+12]
  00007	8b 4a e8	 mov	 ecx, DWORD PTR [edx-24]
  0000a	33 c8		 xor	 ecx, eax
  0000c	e8 00 00 00 00	 call	 @__security_check_cookie@4
  00011	b8 00 00 00 00	 mov	 eax, OFFSET __ehfuncinfo$??0?$vector@UForceInfo@@V?$allocator@UForceInfo@@@std@@@std@@QAE@ABV01@@Z
  00016	e9 00 00 00 00	 jmp	 ___CxxFrameHandler3
text$x	ENDS
??0?$vector@UForceInfo@@V?$allocator@UForceInfo@@@std@@@std@@QAE@ABV01@@Z ENDP ; std::vector<ForceInfo,std::allocator<ForceInfo> >::vector<ForceInfo,std::allocator<ForceInfo> >
PUBLIC	?_Reserve@?$vector@VioHashString@@V?$allocator@VioHashString@@@std@@@std@@IAEXI@Z ; std::vector<ioHashString,std::allocator<ioHashString> >::_Reserve
; Function compile flags: /Ogsp
;	COMDAT ?_Reserve@?$vector@VioHashString@@V?$allocator@VioHashString@@@std@@@std@@IAEXI@Z
_TEXT	SEGMENT
__Count$ = 8						; size = 4
?_Reserve@?$vector@VioHashString@@V?$allocator@VioHashString@@@std@@@std@@IAEXI@Z PROC ; std::vector<ioHashString,std::allocator<ioHashString> >::_Reserve, COMDAT
; _this$ = ecx

; 1290 : 		{	// ensure room for _Count new elements, grow exponentially

  00000	55		 push	 ebp
  00001	8b ec		 mov	 ebp, esp
  00003	56		 push	 esi
  00004	8b f1		 mov	 esi, ecx

; 1291 : 		size_type _Size = size();

  00006	8b 0e		 mov	 ecx, DWORD PTR [esi]
  00008	8b 46 04	 mov	 eax, DWORD PTR [esi+4]
  0000b	2b c1		 sub	 eax, ecx

; 1292 : 		if (max_size() - _Count < _Size)

  0000d	ba ff ff ff 0f	 mov	 edx, 268435455		; 0fffffffH
  00012	2b 55 08	 sub	 edx, DWORD PTR __Count$[ebp]
  00015	c1 f8 04	 sar	 eax, 4
  00018	3b d0		 cmp	 edx, eax
  0001a	73 0b		 jae	 SHORT $LN4@Reserve

; 1293 : 			_Xlen();

  0001c	68 00 00 00 00	 push	 OFFSET ??_C@_0BD@OLBABOEK@vector?$DMT?$DO?5too?5long?$AA@
  00021	ff 15 00 00 00
	00		 call	 DWORD PTR __imp_?_Xlength_error@std@@YAXPBD@Z
$LN21@Reserve:
$LN4@Reserve:

; 1294 : 		else if ((_Size += _Count) <= capacity())

  00027	8b 56 08	 mov	 edx, DWORD PTR [esi+8]
  0002a	03 45 08	 add	 eax, DWORD PTR __Count$[ebp]
  0002d	2b d1		 sub	 edx, ecx
  0002f	c1 fa 04	 sar	 edx, 4
  00032	3b c2		 cmp	 eax, edx
  00034	76 10		 jbe	 SHORT $LN1@Reserve

; 1295 : 			;
; 1296 : 		else
; 1297 : 			reserve(_Grow_to(_Size));

  00036	50		 push	 eax
  00037	8b ce		 mov	 ecx, esi
  00039	e8 00 00 00 00	 call	 ?_Grow_to@?$vector@VioHashString@@V?$allocator@VioHashString@@@std@@@std@@IBEII@Z ; std::vector<ioHashString,std::allocator<ioHashString> >::_Grow_to
  0003e	50		 push	 eax
  0003f	8b ce		 mov	 ecx, esi
  00041	e8 00 00 00 00	 call	 ?reserve@?$vector@VioHashString@@V?$allocator@VioHashString@@@std@@@std@@QAEXI@Z ; std::vector<ioHashString,std::allocator<ioHashString> >::reserve
$LN1@Reserve:
  00046	5e		 pop	 esi

; 1298 : 		}

  00047	5d		 pop	 ebp
  00048	c2 04 00	 ret	 4
$LN20@Reserve:
?_Reserve@?$vector@VioHashString@@V?$allocator@VioHashString@@@std@@@std@@IAEXI@Z ENDP ; std::vector<ioHashString,std::allocator<ioHashString> >::_Reserve
_TEXT	ENDS
PUBLIC	??1?$vector@UForceInfo@@V?$allocator@UForceInfo@@@std@@@std@@QAE@XZ ; std::vector<ForceInfo,std::allocator<ForceInfo> >::~vector<ForceInfo,std::allocator<ForceInfo> >
; Function compile flags: /Ogsp
;	COMDAT ??1?$vector@UForceInfo@@V?$allocator@UForceInfo@@@std@@@std@@QAE@XZ
_TEXT	SEGMENT
??1?$vector@UForceInfo@@V?$allocator@UForceInfo@@@std@@@std@@QAE@XZ PROC ; std::vector<ForceInfo,std::allocator<ForceInfo> >::~vector<ForceInfo,std::allocator<ForceInfo> >, COMDAT
; _this$ = ecx

; 705  : 		_Tidy();

  00000	e9 00 00 00 00	 jmp	 ?_Tidy@?$vector@UForceInfo@@V?$allocator@UForceInfo@@@std@@@std@@IAEXXZ ; std::vector<ForceInfo,std::allocator<ForceInfo> >::_Tidy
??1?$vector@UForceInfo@@V?$allocator@UForceInfo@@@std@@@std@@QAE@XZ ENDP ; std::vector<ForceInfo,std::allocator<ForceInfo> >::~vector<ForceInfo,std::allocator<ForceInfo> >
_TEXT	ENDS
PUBLIC	?erase@?$vector@VioHashString@@V?$allocator@VioHashString@@@std@@@std@@QAE?AV?$_Vector_iterator@V?$_Vector_val@VioHashString@@V?$allocator@VioHashString@@@std@@@std@@@2@V?$_Vector_const_iterator@V?$_Vector_val@VioHashString@@V?$allocator@VioHashString@@@std@@@std@@@2@0@Z ; std::vector<ioHashString,std::allocator<ioHashString> >::erase
; Function compile flags: /Ogsp
;	COMDAT ?erase@?$vector@VioHashString@@V?$allocator@VioHashString@@@std@@@std@@QAE?AV?$_Vector_iterator@V?$_Vector_val@VioHashString@@V?$allocator@VioHashString@@@std@@@std@@@2@V?$_Vector_const_iterator@V?$_Vector_val@VioHashString@@V?$allocator@VioHashString@@@std@@@std@@@2@0@Z
_TEXT	SEGMENT
$T601494 = -4						; size = 4
___$ReturnUdt$ = 8					; size = 4
__First_arg$ = 12					; size = 4
__Cat$601439 = 16					; size = 1
__Last_arg$ = 16					; size = 4
?erase@?$vector@VioHashString@@V?$allocator@VioHashString@@@std@@@std@@QAE?AV?$_Vector_iterator@V?$_Vector_val@VioHashString@@V?$allocator@VioHashString@@@std@@@std@@@2@V?$_Vector_const_iterator@V?$_Vector_val@VioHashString@@V?$allocator@VioHashString@@@std@@@std@@@2@0@Z PROC ; std::vector<ioHashString,std::allocator<ioHashString> >::erase, COMDAT
; _this$ = ecx

; 1190 : 		{	// erase [_First, _Last)

  00000	55		 push	 ebp
  00001	8b ec		 mov	 ebp, esp
  00003	51		 push	 ecx

; 1191 : 		iterator _First = _Make_iter(_First_arg);

  00004	8b 45 08	 mov	 eax, DWORD PTR ___$ReturnUdt$[ebp]
  00007	56		 push	 esi
  00008	8b f1		 mov	 esi, ecx
  0000a	8b 4d 0c	 mov	 ecx, DWORD PTR __First_arg$[ebp]
  0000d	89 08		 mov	 DWORD PTR [eax], ecx

; 1192 : 		iterator _Last = _Make_iter(_Last_arg);
; 1193 : 
; 1194 : 		if (_First != _Last)

  0000f	3b 4d 10	 cmp	 ecx, DWORD PTR __Last_arg$[ebp]
  00012	74 38		 je	 SHORT $LN1@erase@3

; 1195 : 			{	// worth doing, copy down over hole
; 1196 :  #if _ITERATOR_DEBUG_LEVEL == 2
; 1197 : 			if (_Last < _First || _VICONT(_First) != this
; 1198 : 				|| _VIPTR(_First) < this->_Myfirst
; 1199 : 				|| this->_Mylast < _VIPTR(_Last))
; 1200 : 				_DEBUG_ERROR("vector erase iterator outside range");
; 1201 : 			pointer _Ptr = _Move(_VIPTR(_Last), this->_Mylast,
; 1202 : 				_VIPTR(_First));
; 1203 : 			_Orphan_range(_VIPTR(_First), this->_Mylast);
; 1204 : 
; 1205 :  #else /* _ITERATOR_DEBUG_LEVEL == 2 */
; 1206 : 			pointer _Ptr = _Move(_VIPTR(_Last), this->_Mylast,
; 1207 : 				_VIPTR(_First));

  00014	8b 46 04	 mov	 eax, DWORD PTR [esi+4]
  00017	53		 push	 ebx
  00018	57		 push	 edi
  00019	ff 75 10	 push	 DWORD PTR __Cat$601439[ebp]
  0001c	51		 push	 ecx
  0001d	50		 push	 eax
  0001e	ff 75 10	 push	 DWORD PTR __Last_arg$[ebp]
  00021	e8 00 00 00 00	 call	 ??$_Move@PAVioHashString@@PAV1@@std@@YAPAVioHashString@@PAV1@00U_Nonscalar_ptr_iterator_tag@0@@Z ; std::_Move<ioHashString *,ioHashString *>

; 1208 :  #endif /* _ITERATOR_DEBUG_LEVEL == 2 */
; 1209 : 
; 1210 : 			_Destroy(_Ptr, this->_Mylast);

  00026	8b 7e 04	 mov	 edi, DWORD PTR [esi+4]
  00029	8b d8		 mov	 ebx, eax
  0002b	83 c4 10	 add	 esp, 16			; 00000010H
  0002e	89 5d fc	 mov	 DWORD PTR $T601494[ebp], ebx
  00031	3b df		 cmp	 ebx, edi
  00033	74 12		 je	 SHORT $LN36@erase@3
$LL52@erase@3:
  00035	8b 4d fc	 mov	 ecx, DWORD PTR $T601494[ebp]
  00038	ff 15 00 00 00
	00		 call	 DWORD PTR __imp_??1ioHashString@@QAE@XZ
  0003e	83 45 fc 10	 add	 DWORD PTR $T601494[ebp], 16 ; 00000010H
  00042	39 7d fc	 cmp	 DWORD PTR $T601494[ebp], edi
  00045	75 ee		 jne	 SHORT $LL52@erase@3
$LN36@erase@3:

; 1211 : 			this->_Mylast = _Ptr;

  00047	5f		 pop	 edi
  00048	89 5e 04	 mov	 DWORD PTR [esi+4], ebx
  0004b	5b		 pop	 ebx
$LN1@erase@3:

; 1212 : 			}
; 1213 : 		return (_First);

  0004c	8b 45 08	 mov	 eax, DWORD PTR ___$ReturnUdt$[ebp]
  0004f	5e		 pop	 esi

; 1214 : 		}

  00050	c9		 leave
  00051	c2 0c 00	 ret	 12			; 0000000cH
?erase@?$vector@VioHashString@@V?$allocator@VioHashString@@@std@@@std@@QAE?AV?$_Vector_iterator@V?$_Vector_val@VioHashString@@V?$allocator@VioHashString@@@std@@@std@@@2@V?$_Vector_const_iterator@V?$_Vector_val@VioHashString@@V?$allocator@VioHashString@@@std@@@std@@@2@0@Z ENDP ; std::vector<ioHashString,std::allocator<ioHashString> >::erase
_TEXT	ENDS
PUBLIC	?_Tidy@?$vector@VioHashString@@V?$allocator@VioHashString@@@std@@@std@@IAEXXZ ; std::vector<ioHashString,std::allocator<ioHashString> >::_Tidy
; Function compile flags: /Ogsp
;	COMDAT ?_Tidy@?$vector@VioHashString@@V?$allocator@VioHashString@@@std@@@std@@IAEXXZ
_TEXT	SEGMENT
?_Tidy@?$vector@VioHashString@@V?$allocator@VioHashString@@@std@@@std@@IAEXXZ PROC ; std::vector<ioHashString,std::allocator<ioHashString> >::_Tidy, COMDAT
; _this$ = ecx

; 1301 : 		{	// free all storage

  00000	56		 push	 esi
  00001	8b f1		 mov	 esi, ecx

; 1302 : 		if (this->_Myfirst != 0)

  00003	83 3e 00	 cmp	 DWORD PTR [esi], 0
  00006	74 28		 je	 SHORT $LN24@Tidy@2

; 1303 : 			{	// something to free, destroy and deallocate it
; 1304 : 			this->_Orphan_all();

  00008	53		 push	 ebx
  00009	57		 push	 edi
  0000a	ff 15 00 00 00
	00		 call	 DWORD PTR __imp_?_Orphan_all@_Container_base0@std@@QAEXXZ

; 1305 : 			_Destroy(this->_Myfirst, this->_Mylast);

  00010	8b 5e 04	 mov	 ebx, DWORD PTR [esi+4]
  00013	8b 3e		 mov	 edi, DWORD PTR [esi]
  00015	eb 0b		 jmp	 SHORT $LN28@Tidy@2
$LL12@Tidy@2:
  00017	8b cf		 mov	 ecx, edi
  00019	ff 15 00 00 00
	00		 call	 DWORD PTR __imp_??1ioHashString@@QAE@XZ
  0001f	83 c7 10	 add	 edi, 16			; 00000010H
$LN28@Tidy@2:
  00022	3b fb		 cmp	 edi, ebx
  00024	75 f1		 jne	 SHORT $LL12@Tidy@2

; 1306 : 			this->_Alval.deallocate(this->_Myfirst,
; 1307 : 				this->_Myend - this->_Myfirst);

  00026	ff 36		 push	 DWORD PTR [esi]
  00028	e8 00 00 00 00	 call	 ??3@YAXPAX@Z		; operator delete
  0002d	59		 pop	 ecx
  0002e	5f		 pop	 edi
  0002f	5b		 pop	 ebx
$LN24@Tidy@2:

; 1308 : 			}
; 1309 : 		this->_Myfirst = 0;

  00030	33 c0		 xor	 eax, eax
  00032	89 06		 mov	 DWORD PTR [esi], eax

; 1310 : 		this->_Mylast = 0;

  00034	89 46 04	 mov	 DWORD PTR [esi+4], eax

; 1311 : 		this->_Myend = 0;

  00037	89 46 08	 mov	 DWORD PTR [esi+8], eax
  0003a	5e		 pop	 esi

; 1312 : 		}

  0003b	c3		 ret	 0
?_Tidy@?$vector@VioHashString@@V?$allocator@VioHashString@@@std@@@std@@IAEXXZ ENDP ; std::vector<ioHashString,std::allocator<ioHashString> >::_Tidy
_TEXT	ENDS
PUBLIC	?_Tidy@?$vector@UWeaponInfo@@V?$allocator@UWeaponInfo@@@std@@@std@@IAEXXZ ; std::vector<WeaponInfo,std::allocator<WeaponInfo> >::_Tidy
; Function compile flags: /Ogsp
;	COMDAT ?_Tidy@?$vector@UWeaponInfo@@V?$allocator@UWeaponInfo@@@std@@@std@@IAEXXZ
_TEXT	SEGMENT
?_Tidy@?$vector@UWeaponInfo@@V?$allocator@UWeaponInfo@@@std@@@std@@IAEXXZ PROC ; std::vector<WeaponInfo,std::allocator<WeaponInfo> >::_Tidy, COMDAT
; _this$ = ecx

; 1301 : 		{	// free all storage

  00000	56		 push	 esi
  00001	8b f1		 mov	 esi, ecx

; 1302 : 		if (this->_Myfirst != 0)

  00003	83 3e 00	 cmp	 DWORD PTR [esi], 0
  00006	74 1e		 je	 SHORT $LN6@Tidy@3

; 1303 : 			{	// something to free, destroy and deallocate it
; 1304 : 			this->_Orphan_all();

  00008	ff 15 00 00 00
	00		 call	 DWORD PTR __imp_?_Orphan_all@_Container_base0@std@@QAEXXZ

; 1305 : 			_Destroy(this->_Myfirst, this->_Mylast);

  0000e	8d 46 0c	 lea	 eax, DWORD PTR [esi+12]
  00011	50		 push	 eax
  00012	ff 76 04	 push	 DWORD PTR [esi+4]
  00015	ff 36		 push	 DWORD PTR [esi]
  00017	e8 00 00 00 00	 call	 ??$_Destroy_range@V?$allocator@UWeaponInfo@@@std@@@std@@YAXPAUWeaponInfo@@0AAV?$allocator@UWeaponInfo@@@0@@Z ; std::_Destroy_range<std::allocator<WeaponInfo> >

; 1306 : 			this->_Alval.deallocate(this->_Myfirst,
; 1307 : 				this->_Myend - this->_Myfirst);

  0001c	ff 36		 push	 DWORD PTR [esi]
  0001e	e8 00 00 00 00	 call	 ??3@YAXPAX@Z		; operator delete
  00023	83 c4 10	 add	 esp, 16			; 00000010H
$LN6@Tidy@3:

; 1308 : 			}
; 1309 : 		this->_Myfirst = 0;

  00026	83 26 00	 and	 DWORD PTR [esi], 0

; 1310 : 		this->_Mylast = 0;

  00029	83 66 04 00	 and	 DWORD PTR [esi+4], 0

; 1311 : 		this->_Myend = 0;

  0002d	83 66 08 00	 and	 DWORD PTR [esi+8], 0
  00031	5e		 pop	 esi

; 1312 : 		}

  00032	c3		 ret	 0
?_Tidy@?$vector@UWeaponInfo@@V?$allocator@UWeaponInfo@@@std@@@std@@IAEXXZ ENDP ; std::vector<WeaponInfo,std::allocator<WeaponInfo> >::_Tidy
_TEXT	ENDS
PUBLIC	??4?$vector@UForceInfo@@V?$allocator@UForceInfo@@@std@@@std@@QAEAAV01@ABV01@@Z ; std::vector<ForceInfo,std::allocator<ForceInfo> >::operator=
; Function compile flags: /Ogsp
;	COMDAT ??4?$vector@UForceInfo@@V?$allocator@UForceInfo@@@std@@@std@@QAEAAV01@ABV01@@Z
_TEXT	SEGMENT
tv551 = 8						; size = 4
__Cat$601983 = 8					; size = 1
__Cat$601881 = 8					; size = 1
__Cat$601859 = 8					; size = 1
__Cat$601761 = 8					; size = 1
$T601726 = 8						; size = 4
__Right$ = 8						; size = 4
??4?$vector@UForceInfo@@V?$allocator@UForceInfo@@@std@@@std@@QAEAAV01@ABV01@@Z PROC ; std::vector<ForceInfo,std::allocator<ForceInfo> >::operator=, COMDAT
; _this$ = ecx

; 709  : 		{	// assign _Right

  00000	55		 push	 ebp
  00001	8b ec		 mov	 ebp, esp
  00003	56		 push	 esi
  00004	57		 push	 edi

; 710  : 		if (this != &_Right)

  00005	8b 7d 08	 mov	 edi, DWORD PTR __Right$[ebp]
  00008	8b f1		 mov	 esi, ecx
  0000a	3b f7		 cmp	 esi, edi
  0000c	0f 84 e2 00 00
	00		 je	 $LN1@operator

; 711  : 			{	// worth doing
; 712  : 			this->_Orphan_all();

  00012	53		 push	 ebx
  00013	ff 15 00 00 00
	00		 call	 DWORD PTR __imp_?_Orphan_all@_Container_base0@std@@QAEXXZ

; 713  : 
; 714  : 			if (_Right.size() == 0)

  00019	8b 5f 04	 mov	 ebx, DWORD PTR [edi+4]
  0001c	8b c3		 mov	 eax, ebx
  0001e	2b 07		 sub	 eax, DWORD PTR [edi]
  00020	6a 0c		 push	 12			; 0000000cH
  00022	99		 cdq
  00023	59		 pop	 ecx
  00024	f7 f9		 idiv	 ecx
  00026	89 45 08	 mov	 DWORD PTR tv551[ebp], eax
  00029	85 c0		 test	 eax, eax

; 715  : 				clear();	// new sequence empty, erase existing sequence

  0002b	8b 46 04	 mov	 eax, DWORD PTR [esi+4]
  0002e	75 14		 jne	 SHORT $LN8@operator
  00030	8b 0e		 mov	 ecx, DWORD PTR [esi]
  00032	50		 push	 eax
  00033	51		 push	 ecx
  00034	8d 45 08	 lea	 eax, DWORD PTR $T601726[ebp]
  00037	50		 push	 eax
  00038	8b ce		 mov	 ecx, esi
  0003a	e8 00 00 00 00	 call	 ?erase@?$vector@UForceInfo@@V?$allocator@UForceInfo@@@std@@@std@@QAE?AV?$_Vector_iterator@V?$_Vector_val@UForceInfo@@V?$allocator@UForceInfo@@@std@@@std@@@2@V?$_Vector_const_iterator@V?$_Vector_val@UForceInfo@@V?$allocator@UForceInfo@@@std@@@std@@@2@0@Z ; std::vector<ForceInfo,std::allocator<ForceInfo> >::erase

; 716  : 			else if (_Right.size() <= size())

  0003f	e9 af 00 00 00	 jmp	 $LN106@operator
$LN8@operator:
  00044	2b 06		 sub	 eax, DWORD PTR [esi]
  00046	6a 0c		 push	 12			; 0000000cH
  00048	99		 cdq
  00049	59		 pop	 ecx
  0004a	f7 f9		 idiv	 ecx
  0004c	8b c8		 mov	 ecx, eax
  0004e	39 4d 08	 cmp	 DWORD PTR tv551[ebp], ecx
  00051	77 22		 ja	 SHORT $LN6@operator

; 717  : 				{	// enough elements, copy new and destroy old
; 718  : 				pointer _Ptr = _STD _Copy_impl(_Right._Myfirst, _Right._Mylast,
; 719  : 					this->_Myfirst);	// copy new

  00053	ff 75 08	 push	 DWORD PTR __Cat$601761[ebp]
  00056	ff 36		 push	 DWORD PTR [esi]
  00058	53		 push	 ebx
  00059	ff 37		 push	 DWORD PTR [edi]
  0005b	e8 00 00 00 00	 call	 ??$_Copy_impl@PAUForceInfo@@PAU1@@std@@YAPAUForceInfo@@PAU1@00U_Nonscalar_ptr_iterator_tag@0@@Z ; std::_Copy_impl<ForceInfo *,ForceInfo *>

; 720  : 				_Destroy(_Ptr, this->_Mylast);	// destroy old
; 721  : 				this->_Mylast = this->_Myfirst + _Right.size();

  00060	8b 47 04	 mov	 eax, DWORD PTR [edi+4]
  00063	2b 07		 sub	 eax, DWORD PTR [edi]
  00065	83 c4 10	 add	 esp, 16			; 00000010H
  00068	99		 cdq
  00069	6a 0c		 push	 12			; 0000000cH
  0006b	59		 pop	 ecx
  0006c	f7 f9		 idiv	 ecx
  0006e	6b c0 0c	 imul	 eax, 12			; 0000000cH
  00071	03 06		 add	 eax, DWORD PTR [esi]

; 722  : 				}
; 723  : 			else if (_Right.size() <= capacity())

  00073	eb 7b		 jmp	 SHORT $LN107@operator
$LN6@operator:
  00075	8b 46 08	 mov	 eax, DWORD PTR [esi+8]
  00078	2b 06		 sub	 eax, DWORD PTR [esi]
  0007a	6a 0c		 push	 12			; 0000000cH
  0007c	99		 cdq
  0007d	5b		 pop	 ebx
  0007e	f7 fb		 idiv	 ebx
  00080	39 45 08	 cmp	 DWORD PTR tv551[ebp], eax
  00083	77 2e		 ja	 SHORT $LN4@operator

; 724  : 				{	// enough room, copy and construct new
; 725  : 				pointer _Ptr = _Right._Myfirst + size();
; 726  : 				_STD _Copy_impl(_Right._Myfirst, _Ptr, this->_Myfirst);

  00085	ff 75 08	 push	 DWORD PTR __Cat$601859[ebp]
  00088	6b c9 0c	 imul	 ecx, 12			; 0000000cH
  0008b	8b 07		 mov	 eax, DWORD PTR [edi]
  0008d	ff 36		 push	 DWORD PTR [esi]
  0008f	8d 1c 08	 lea	 ebx, DWORD PTR [eax+ecx]
  00092	53		 push	 ebx
  00093	50		 push	 eax
  00094	e8 00 00 00 00	 call	 ??$_Copy_impl@PAUForceInfo@@PAU1@@std@@YAPAUForceInfo@@PAU1@00U_Nonscalar_ptr_iterator_tag@0@@Z ; std::_Copy_impl<ForceInfo *,ForceInfo *>

; 727  : 				this->_Mylast = _Ucopy(_Ptr, _Right._Mylast, this->_Mylast);

  00099	ff 75 08	 push	 DWORD PTR __Cat$601881[ebp]
  0009c	8b 46 04	 mov	 eax, DWORD PTR [esi+4]
  0009f	8b 7f 04	 mov	 edi, DWORD PTR [edi+4]
  000a2	8d 4e 0c	 lea	 ecx, DWORD PTR [esi+12]
  000a5	51		 push	 ecx
  000a6	50		 push	 eax
  000a7	57		 push	 edi
  000a8	53		 push	 ebx
  000a9	e8 00 00 00 00	 call	 ??$_Uninit_copy@PAUForceInfo@@PAU1@V?$allocator@UForceInfo@@@std@@@std@@YAPAUForceInfo@@PAU1@00AAV?$allocator@UForceInfo@@@0@U_Nonscalar_ptr_iterator_tag@0@@Z ; std::_Uninit_copy<ForceInfo *,ForceInfo *,std::allocator<ForceInfo> >
  000ae	83 c4 24	 add	 esp, 36			; 00000024H

; 728  : 				}
; 729  : 			else

  000b1	eb 3d		 jmp	 SHORT $LN107@operator
$LN4@operator:

; 730  : 				{	// not enough room, allocate new array and construct new
; 731  : 				if (this->_Myfirst != 0)

  000b3	8b 06		 mov	 eax, DWORD PTR [esi]
  000b5	85 c0		 test	 eax, eax
  000b7	74 07		 je	 SHORT $LN92@operator

; 732  : 					{	// discard old array
; 733  : 					_Destroy(this->_Myfirst, this->_Mylast);
; 734  : 					this->_Alval.deallocate(this->_Myfirst,
; 735  : 						this->_Myend - this->_Myfirst);

  000b9	50		 push	 eax
  000ba	e8 00 00 00 00	 call	 ??3@YAXPAX@Z		; operator delete
  000bf	59		 pop	 ecx
$LN92@operator:

; 736  : 					}
; 737  : 				if (_Buy(_Right.size()))

  000c0	8b 47 04	 mov	 eax, DWORD PTR [edi+4]
  000c3	2b 07		 sub	 eax, DWORD PTR [edi]
  000c5	6a 0c		 push	 12			; 0000000cH
  000c7	59		 pop	 ecx
  000c8	99		 cdq
  000c9	f7 f9		 idiv	 ecx
  000cb	8b ce		 mov	 ecx, esi
  000cd	50		 push	 eax
  000ce	e8 00 00 00 00	 call	 ?_Buy@?$vector@UForceInfo@@V?$allocator@UForceInfo@@@std@@@std@@IAE_NI@Z ; std::vector<ForceInfo,std::allocator<ForceInfo> >::_Buy
  000d3	84 c0		 test	 al, al
  000d5	74 1c		 je	 SHORT $LN106@operator

; 738  : 					this->_Mylast = _Ucopy(_Right._Myfirst, _Right._Mylast,
; 739  : 						this->_Myfirst);

  000d7	ff 75 08	 push	 DWORD PTR __Cat$601983[ebp]
  000da	8b 06		 mov	 eax, DWORD PTR [esi]
  000dc	8b 4f 04	 mov	 ecx, DWORD PTR [edi+4]
  000df	8b 3f		 mov	 edi, DWORD PTR [edi]
  000e1	8d 56 0c	 lea	 edx, DWORD PTR [esi+12]
  000e4	52		 push	 edx
  000e5	50		 push	 eax
  000e6	51		 push	 ecx
  000e7	57		 push	 edi
  000e8	e8 00 00 00 00	 call	 ??$_Uninit_copy@PAUForceInfo@@PAU1@V?$allocator@UForceInfo@@@std@@@std@@YAPAUForceInfo@@PAU1@00AAV?$allocator@UForceInfo@@@0@U_Nonscalar_ptr_iterator_tag@0@@Z ; std::_Uninit_copy<ForceInfo *,ForceInfo *,std::allocator<ForceInfo> >
  000ed	83 c4 14	 add	 esp, 20			; 00000014H
$LN107@operator:
  000f0	89 46 04	 mov	 DWORD PTR [esi+4], eax
$LN106@operator:
  000f3	5b		 pop	 ebx
$LN1@operator:
  000f4	5f		 pop	 edi

; 740  : 				}
; 741  : 			}
; 742  : 		return (*this);

  000f5	8b c6		 mov	 eax, esi
  000f7	5e		 pop	 esi

; 743  : 		}

  000f8	5d		 pop	 ebp
  000f9	c2 04 00	 ret	 4
??4?$vector@UForceInfo@@V?$allocator@UForceInfo@@@std@@@std@@QAEAAV01@ABV01@@Z ENDP ; std::vector<ForceInfo,std::allocator<ForceInfo> >::operator=
_TEXT	ENDS
PUBLIC	?clear@?$vector@UWeaponInfo@@V?$allocator@UWeaponInfo@@@std@@@std@@QAEXXZ ; std::vector<WeaponInfo,std::allocator<WeaponInfo> >::clear
; Function compile flags: /Ogsp
;	COMDAT ?clear@?$vector@UWeaponInfo@@V?$allocator@UWeaponInfo@@@std@@@std@@QAEXXZ
_TEXT	SEGMENT
$T602001 = -4						; size = 4
?clear@?$vector@UWeaponInfo@@V?$allocator@UWeaponInfo@@@std@@@std@@QAEXXZ PROC ; std::vector<WeaponInfo,std::allocator<WeaponInfo> >::clear, COMDAT
; _this$ = ecx

; 1217 : 		{	// erase all

  00000	55		 push	 ebp
  00001	8b ec		 mov	 ebp, esp
  00003	51		 push	 ecx

; 1218 : 		erase(begin(), end());

  00004	8b 41 04	 mov	 eax, DWORD PTR [ecx+4]
  00007	8b 11		 mov	 edx, DWORD PTR [ecx]
  00009	50		 push	 eax
  0000a	52		 push	 edx
  0000b	8d 45 fc	 lea	 eax, DWORD PTR $T602001[ebp]
  0000e	50		 push	 eax
  0000f	e8 00 00 00 00	 call	 ?erase@?$vector@UWeaponInfo@@V?$allocator@UWeaponInfo@@@std@@@std@@QAE?AV?$_Vector_iterator@V?$_Vector_val@UWeaponInfo@@V?$allocator@UWeaponInfo@@@std@@@std@@@2@V?$_Vector_const_iterator@V?$_Vector_val@UWeaponInfo@@V?$allocator@UWeaponInfo@@@std@@@std@@@2@0@Z ; std::vector<WeaponInfo,std::allocator<WeaponInfo> >::erase

; 1219 : 		}

  00014	c9		 leave
  00015	c3		 ret	 0
?clear@?$vector@UWeaponInfo@@V?$allocator@UWeaponInfo@@@std@@@std@@QAEXXZ ENDP ; std::vector<WeaponInfo,std::allocator<WeaponInfo> >::clear
_TEXT	ENDS
PUBLIC	?push_back@?$vector@VioHashString@@V?$allocator@VioHashString@@@std@@@std@@QAEXABVioHashString@@@Z ; std::vector<ioHashString,std::allocator<ioHashString> >::push_back
; Function compile flags: /Ogsp
;	COMDAT ?push_back@?$vector@VioHashString@@V?$allocator@VioHashString@@@std@@@std@@QAEXABVioHashString@@@Z
_TEXT	SEGMENT
__Val$ = 8						; size = 4
?push_back@?$vector@VioHashString@@V?$allocator@VioHashString@@@std@@@std@@QAEXABVioHashString@@@Z PROC ; std::vector<ioHashString,std::allocator<ioHashString> >::push_back, COMDAT
; _this$ = ecx

; 976  : 		{	// insert element at end

  00000	55		 push	 ebp
  00001	8b ec		 mov	 ebp, esp
  00003	56		 push	 esi
  00004	8b f1		 mov	 esi, ecx

; 977  : 		if (_Inside(_STD addressof(_Val)))

  00006	8b 46 04	 mov	 eax, DWORD PTR [esi+4]
  00009	57		 push	 edi
  0000a	8b 7d 08	 mov	 edi, DWORD PTR __Val$[ebp]
  0000d	3b f8		 cmp	 edi, eax
  0000f	73 29		 jae	 SHORT $LN4@push_back
  00011	8b 0e		 mov	 ecx, DWORD PTR [esi]
  00013	3b cf		 cmp	 ecx, edi
  00015	77 23		 ja	 SHORT $LN4@push_back

; 978  : 			{	// push back an element
; 979  : 			size_type _Idx = _STD addressof(_Val) - this->_Myfirst;

  00017	2b f9		 sub	 edi, ecx

; 980  : 			if (this->_Mylast == this->_Myend)

  00019	3b 46 08	 cmp	 eax, DWORD PTR [esi+8]
  0001c	75 09		 jne	 SHORT $LN3@push_back

; 981  : 				_Reserve(1);

  0001e	6a 01		 push	 1
  00020	8b ce		 mov	 ecx, esi
  00022	e8 00 00 00 00	 call	 ?_Reserve@?$vector@VioHashString@@V?$allocator@VioHashString@@@std@@@std@@IAEXI@Z ; std::vector<ioHashString,std::allocator<ioHashString> >::_Reserve
$LN3@push_back:

; 982  : 			_Orphan_range(this->_Mylast, this->_Mylast);
; 983  : 			_Cons_val(this->_Alval,
; 984  : 				this->_Mylast,
; 985  : 				this->_Myfirst[_Idx]);

  00027	83 e7 f0	 and	 edi, -16		; fffffff0H
  0002a	03 3e		 add	 edi, DWORD PTR [esi]
  0002c	8d 4e 0c	 lea	 ecx, DWORD PTR [esi+12]
  0002f	57		 push	 edi
  00030	ff 76 04	 push	 DWORD PTR [esi+4]
  00033	e8 00 00 00 00	 call	 ??$construct@AAVioHashString@@@?$allocator@VioHashString@@@std@@QAEXPAVioHashString@@AAV2@@Z ; std::allocator<ioHashString>::construct<ioHashString &>

; 986  : 			++this->_Mylast;
; 987  : 			}
; 988  : 		else

  00038	eb 19		 jmp	 SHORT $LN30@push_back
$LN4@push_back:

; 989  : 			{	// push back a non-element
; 990  : 			if (this->_Mylast == this->_Myend)

  0003a	3b 46 08	 cmp	 eax, DWORD PTR [esi+8]
  0003d	75 09		 jne	 SHORT $LN1@push_back

; 991  : 				_Reserve(1);

  0003f	6a 01		 push	 1
  00041	8b ce		 mov	 ecx, esi
  00043	e8 00 00 00 00	 call	 ?_Reserve@?$vector@VioHashString@@V?$allocator@VioHashString@@@std@@@std@@IAEXI@Z ; std::vector<ioHashString,std::allocator<ioHashString> >::_Reserve
$LN1@push_back:

; 992  : 			_Orphan_range(this->_Mylast, this->_Mylast);
; 993  : 			_Cons_val(this->_Alval,
; 994  : 				this->_Mylast,
; 995  : 				_Val);

  00048	57		 push	 edi
  00049	ff 76 04	 push	 DWORD PTR [esi+4]
  0004c	e8 00 00 00 00	 call	 ??$_Construct@VioHashString@@ABV1@@std@@YAXPAVioHashString@@ABV1@@Z ; std::_Construct<ioHashString,ioHashString const &>
  00051	59		 pop	 ecx
  00052	59		 pop	 ecx
$LN30@push_back:

; 996  : 			++this->_Mylast;

  00053	83 46 04 10	 add	 DWORD PTR [esi+4], 16	; 00000010H
  00057	5f		 pop	 edi
  00058	5e		 pop	 esi

; 997  : 			}
; 998  : 		}

  00059	5d		 pop	 ebp
  0005a	c2 04 00	 ret	 4
?push_back@?$vector@VioHashString@@V?$allocator@VioHashString@@@std@@@std@@QAEXABVioHashString@@@Z ENDP ; std::vector<ioHashString,std::allocator<ioHashString> >::push_back
_TEXT	ENDS
PUBLIC	??0?$vector@UWeaponInfo@@V?$allocator@UWeaponInfo@@@std@@@std@@QAE@ABV01@@Z ; std::vector<WeaponInfo,std::allocator<WeaponInfo> >::vector<WeaponInfo,std::allocator<WeaponInfo> >
;	COMDAT xdata$x
; File c:\program files (x86)\microsoft visual studio 10.0\vc\include\xutility
xdata$x	SEGMENT
__catchsym$??0?$vector@UWeaponInfo@@V?$allocator@UWeaponInfo@@@std@@@std@@QAE@ABV01@@Z$2 DD 040H
	DD	00H
	DD	00H
	DD	FLAT:__catch$??0?$vector@UWeaponInfo@@V?$allocator@UWeaponInfo@@@std@@@std@@QAE@ABV01@@Z$0
__unwindtable$??0?$vector@UWeaponInfo@@V?$allocator@UWeaponInfo@@@std@@@std@@QAE@ABV01@@Z DD 0ffffffffH
	DD	00H
	DD	0ffffffffH
	DD	00H
__tryblocktable$??0?$vector@UWeaponInfo@@V?$allocator@UWeaponInfo@@@std@@@std@@QAE@ABV01@@Z DD 00H
	DD	00H
	DD	01H
	DD	01H
	DD	FLAT:__catchsym$??0?$vector@UWeaponInfo@@V?$allocator@UWeaponInfo@@@std@@@std@@QAE@ABV01@@Z$2
__ehfuncinfo$??0?$vector@UWeaponInfo@@V?$allocator@UWeaponInfo@@@std@@@std@@QAE@ABV01@@Z DD 019930522H
	DD	02H
	DD	FLAT:__unwindtable$??0?$vector@UWeaponInfo@@V?$allocator@UWeaponInfo@@@std@@@std@@QAE@ABV01@@Z
	DD	01H
	DD	FLAT:__tryblocktable$??0?$vector@UWeaponInfo@@V?$allocator@UWeaponInfo@@@std@@@std@@QAE@ABV01@@Z
	DD	2 DUP(00H)
	DD	00H
	DD	01H
; Function compile flags: /Ogsp
; File c:\program files (x86)\microsoft visual studio 10.0\vc\include\vector
xdata$x	ENDS
;	COMDAT ??0?$vector@UWeaponInfo@@V?$allocator@UWeaponInfo@@@std@@@std@@QAE@ABV01@@Z
_TEXT	SEGMENT
_this$ = -20						; size = 4
__$EHRec$ = -16						; size = 16
__Cat$602177 = 8					; size = 1
__Right$ = 8						; size = 4
??0?$vector@UWeaponInfo@@V?$allocator@UWeaponInfo@@@std@@@std@@QAE@ABV01@@Z PROC ; std::vector<WeaponInfo,std::allocator<WeaponInfo> >::vector<WeaponInfo,std::allocator<WeaponInfo> >, COMDAT
; _this$ = ecx

; 535  : 		{	// construct by copying _Right

  00000	6a 08		 push	 8
  00002	b8 00 00 00 00	 mov	 eax, __ehhandler$??0?$vector@UWeaponInfo@@V?$allocator@UWeaponInfo@@@std@@@std@@QAE@ABV01@@Z
  00007	e8 00 00 00 00	 call	 __EH_prolog3_catch
  0000c	8b f1		 mov	 esi, ecx
  0000e	89 75 ec	 mov	 DWORD PTR _this$[ebp], esi

; 536  : 		if (_Buy(_Right.size()))

  00011	8b 7d 08	 mov	 edi, DWORD PTR __Right$[ebp]
  00014	33 db		 xor	 ebx, ebx
  00016	89 1e		 mov	 DWORD PTR [esi], ebx
  00018	89 5e 04	 mov	 DWORD PTR [esi+4], ebx
  0001b	89 5e 08	 mov	 DWORD PTR [esi+8], ebx
  0001e	8b 47 04	 mov	 eax, DWORD PTR [edi+4]
  00021	2b 07		 sub	 eax, DWORD PTR [edi]
  00023	6a 28		 push	 40			; 00000028H
  00025	59		 pop	 ecx
  00026	99		 cdq
  00027	f7 f9		 idiv	 ecx
  00029	8b ce		 mov	 ecx, esi
  0002b	50		 push	 eax
  0002c	e8 00 00 00 00	 call	 ?_Buy@?$vector@UWeaponInfo@@V?$allocator@UWeaponInfo@@@std@@@std@@IAE_NI@Z ; std::vector<WeaponInfo,std::allocator<WeaponInfo> >::_Buy
  00031	84 c0		 test	 al, al
  00033	74 1f		 je	 SHORT $LN7@vector@2

; 537  : 			_TRY_BEGIN
; 538  : 			this->_Mylast = _Ucopy(_Right.begin(), _Right.end(),
; 539  : 				this->_Myfirst);

  00035	ff 75 08	 push	 DWORD PTR __Cat$602177[ebp]
  00038	8b 0e		 mov	 ecx, DWORD PTR [esi]
  0003a	8b 47 04	 mov	 eax, DWORD PTR [edi+4]
  0003d	8b 3f		 mov	 edi, DWORD PTR [edi]
  0003f	8d 56 0c	 lea	 edx, DWORD PTR [esi+12]
  00042	52		 push	 edx
  00043	51		 push	 ecx
  00044	50		 push	 eax
  00045	57		 push	 edi
  00046	89 5d fc	 mov	 DWORD PTR __$EHRec$[ebp+12], ebx
  00049	e8 00 00 00 00	 call	 ??$_Uninit_copy@V?$_Vector_const_iterator@V?$_Vector_val@UWeaponInfo@@V?$allocator@UWeaponInfo@@@std@@@std@@@std@@PAUWeaponInfo@@V?$allocator@UWeaponInfo@@@2@@std@@YAPAUWeaponInfo@@V?$_Vector_const_iterator@V?$_Vector_val@UWeaponInfo@@V?$allocator@UWeaponInfo@@@std@@@std@@@0@0PAU1@AAV?$allocator@UWeaponInfo@@@0@U_Nonscalar_ptr_iterator_tag@0@@Z ; std::_Uninit_copy<std::_Vector_const_iterator<std::_Vector_val<WeaponInfo,std::allocator<WeaponInfo> > >,WeaponInfo *,std::allocator<WeaponInfo> >
  0004e	83 c4 14	 add	 esp, 20			; 00000014H
  00051	89 46 04	 mov	 DWORD PTR [esi+4], eax
$LN7@vector@2:

; 543  : 			_CATCH_END
; 544  : 		}

  00054	8b c6		 mov	 eax, esi
  00056	e8 00 00 00 00	 call	 __EH_epilog3
  0005b	c2 04 00	 ret	 4
__catch$??0?$vector@UWeaponInfo@@V?$allocator@UWeaponInfo@@@std@@@std@@QAE@ABV01@@Z$0:

; 540  : 			_CATCH_ALL
; 541  : 			_Tidy();

  0005e	8b 4d ec	 mov	 ecx, DWORD PTR _this$[ebp]
  00061	e8 00 00 00 00	 call	 ?_Tidy@?$vector@UWeaponInfo@@V?$allocator@UWeaponInfo@@@std@@@std@@IAEXXZ ; std::vector<WeaponInfo,std::allocator<WeaponInfo> >::_Tidy

; 542  : 			_RERAISE;

  00066	33 db		 xor	 ebx, ebx
  00068	53		 push	 ebx
  00069	53		 push	 ebx
  0006a	e8 00 00 00 00	 call	 __CxxThrowException@8
$LN38@vector@2:
$LN37@vector@2:
  0006f	cc		 int	 3
_TEXT	ENDS
;	COMDAT text$x
text$x	SEGMENT
__ehhandler$??0?$vector@UWeaponInfo@@V?$allocator@UWeaponInfo@@@std@@@std@@QAE@ABV01@@Z:
  00000	8b 54 24 08	 mov	 edx, DWORD PTR [esp+8]
  00004	8d 42 0c	 lea	 eax, DWORD PTR [edx+12]
  00007	8b 4a e8	 mov	 ecx, DWORD PTR [edx-24]
  0000a	33 c8		 xor	 ecx, eax
  0000c	e8 00 00 00 00	 call	 @__security_check_cookie@4
  00011	b8 00 00 00 00	 mov	 eax, OFFSET __ehfuncinfo$??0?$vector@UWeaponInfo@@V?$allocator@UWeaponInfo@@@std@@@std@@QAE@ABV01@@Z
  00016	e9 00 00 00 00	 jmp	 ___CxxFrameHandler3
text$x	ENDS
??0?$vector@UWeaponInfo@@V?$allocator@UWeaponInfo@@@std@@@std@@QAE@ABV01@@Z ENDP ; std::vector<WeaponInfo,std::allocator<WeaponInfo> >::vector<WeaponInfo,std::allocator<WeaponInfo> >
PUBLIC	??0?$vector@VioHashString@@V?$allocator@VioHashString@@@std@@@std@@QAE@ABV01@@Z ; std::vector<ioHashString,std::allocator<ioHashString> >::vector<ioHashString,std::allocator<ioHashString> >
;	COMDAT xdata$x
; File c:\program files (x86)\microsoft visual studio 10.0\vc\include\xutility
xdata$x	SEGMENT
__catchsym$??0?$vector@VioHashString@@V?$allocator@VioHashString@@@std@@@std@@QAE@ABV01@@Z$2 DD 040H
	DD	00H
	DD	00H
	DD	FLAT:__catch$??0?$vector@VioHashString@@V?$allocator@VioHashString@@@std@@@std@@QAE@ABV01@@Z$0
__unwindtable$??0?$vector@VioHashString@@V?$allocator@VioHashString@@@std@@@std@@QAE@ABV01@@Z DD 0ffffffffH
	DD	00H
	DD	0ffffffffH
	DD	00H
__tryblocktable$??0?$vector@VioHashString@@V?$allocator@VioHashString@@@std@@@std@@QAE@ABV01@@Z DD 00H
	DD	00H
	DD	01H
	DD	01H
	DD	FLAT:__catchsym$??0?$vector@VioHashString@@V?$allocator@VioHashString@@@std@@@std@@QAE@ABV01@@Z$2
__ehfuncinfo$??0?$vector@VioHashString@@V?$allocator@VioHashString@@@std@@@std@@QAE@ABV01@@Z DD 019930522H
	DD	02H
	DD	FLAT:__unwindtable$??0?$vector@VioHashString@@V?$allocator@VioHashString@@@std@@@std@@QAE@ABV01@@Z
	DD	01H
	DD	FLAT:__tryblocktable$??0?$vector@VioHashString@@V?$allocator@VioHashString@@@std@@@std@@QAE@ABV01@@Z
	DD	2 DUP(00H)
	DD	00H
	DD	01H
; Function compile flags: /Ogsp
; File c:\program files (x86)\microsoft visual studio 10.0\vc\include\vector
xdata$x	ENDS
;	COMDAT ??0?$vector@VioHashString@@V?$allocator@VioHashString@@@std@@@std@@QAE@ABV01@@Z
_TEXT	SEGMENT
_this$ = -20						; size = 4
__$EHRec$ = -16						; size = 16
__Cat$602271 = 8					; size = 1
__Right$ = 8						; size = 4
??0?$vector@VioHashString@@V?$allocator@VioHashString@@@std@@@std@@QAE@ABV01@@Z PROC ; std::vector<ioHashString,std::allocator<ioHashString> >::vector<ioHashString,std::allocator<ioHashString> >, COMDAT
; _this$ = ecx

; 535  : 		{	// construct by copying _Right

  00000	6a 08		 push	 8
  00002	b8 00 00 00 00	 mov	 eax, __ehhandler$??0?$vector@VioHashString@@V?$allocator@VioHashString@@@std@@@std@@QAE@ABV01@@Z
  00007	e8 00 00 00 00	 call	 __EH_prolog3_catch
  0000c	8b f1		 mov	 esi, ecx
  0000e	89 75 ec	 mov	 DWORD PTR _this$[ebp], esi

; 536  : 		if (_Buy(_Right.size()))

  00011	8b 7d 08	 mov	 edi, DWORD PTR __Right$[ebp]
  00014	33 db		 xor	 ebx, ebx
  00016	89 1e		 mov	 DWORD PTR [esi], ebx
  00018	89 5e 04	 mov	 DWORD PTR [esi+4], ebx
  0001b	89 5e 08	 mov	 DWORD PTR [esi+8], ebx
  0001e	8b 47 04	 mov	 eax, DWORD PTR [edi+4]
  00021	2b 07		 sub	 eax, DWORD PTR [edi]
  00023	c1 f8 04	 sar	 eax, 4
  00026	50		 push	 eax
  00027	e8 00 00 00 00	 call	 ?_Buy@?$vector@VioHashString@@V?$allocator@VioHashString@@@std@@@std@@IAE_NI@Z ; std::vector<ioHashString,std::allocator<ioHashString> >::_Buy
  0002c	84 c0		 test	 al, al
  0002e	74 1f		 je	 SHORT $LN7@vector@3

; 537  : 			_TRY_BEGIN
; 538  : 			this->_Mylast = _Ucopy(_Right.begin(), _Right.end(),
; 539  : 				this->_Myfirst);

  00030	ff 75 08	 push	 DWORD PTR __Cat$602271[ebp]
  00033	8b 0e		 mov	 ecx, DWORD PTR [esi]
  00035	8b 47 04	 mov	 eax, DWORD PTR [edi+4]
  00038	8b 3f		 mov	 edi, DWORD PTR [edi]
  0003a	8d 56 0c	 lea	 edx, DWORD PTR [esi+12]
  0003d	52		 push	 edx
  0003e	51		 push	 ecx
  0003f	50		 push	 eax
  00040	57		 push	 edi
  00041	89 5d fc	 mov	 DWORD PTR __$EHRec$[ebp+12], ebx
  00044	e8 00 00 00 00	 call	 ??$_Uninit_copy@V?$_Vector_const_iterator@V?$_Vector_val@VioHashString@@V?$allocator@VioHashString@@@std@@@std@@@std@@PAVioHashString@@V?$allocator@VioHashString@@@2@@std@@YAPAVioHashString@@V?$_Vector_const_iterator@V?$_Vector_val@VioHashString@@V?$allocator@VioHashString@@@std@@@std@@@0@0PAV1@AAV?$allocator@VioHashString@@@0@U_Nonscalar_ptr_iterator_tag@0@@Z ; std::_Uninit_copy<std::_Vector_const_iterator<std::_Vector_val<ioHashString,std::allocator<ioHashString> > >,ioHashString *,std::allocator<ioHashString> >
  00049	83 c4 14	 add	 esp, 20			; 00000014H
  0004c	89 46 04	 mov	 DWORD PTR [esi+4], eax
$LN7@vector@3:

; 543  : 			_CATCH_END
; 544  : 		}

  0004f	8b c6		 mov	 eax, esi
  00051	e8 00 00 00 00	 call	 __EH_epilog3
  00056	c2 04 00	 ret	 4
__catch$??0?$vector@VioHashString@@V?$allocator@VioHashString@@@std@@@std@@QAE@ABV01@@Z$0:

; 540  : 			_CATCH_ALL
; 541  : 			_Tidy();

  00059	8b 4d ec	 mov	 ecx, DWORD PTR _this$[ebp]
  0005c	e8 00 00 00 00	 call	 ?_Tidy@?$vector@VioHashString@@V?$allocator@VioHashString@@@std@@@std@@IAEXXZ ; std::vector<ioHashString,std::allocator<ioHashString> >::_Tidy

; 542  : 			_RERAISE;

  00061	33 db		 xor	 ebx, ebx
  00063	53		 push	 ebx
  00064	53		 push	 ebx
  00065	e8 00 00 00 00	 call	 __CxxThrowException@8
$LN38@vector@3:
$LN37@vector@3:
  0006a	cc		 int	 3
_TEXT	ENDS
;	COMDAT text$x
text$x	SEGMENT
__ehhandler$??0?$vector@VioHashString@@V?$allocator@VioHashString@@@std@@@std@@QAE@ABV01@@Z:
  00000	8b 54 24 08	 mov	 edx, DWORD PTR [esp+8]
  00004	8d 42 0c	 lea	 eax, DWORD PTR [edx+12]
  00007	8b 4a e8	 mov	 ecx, DWORD PTR [edx-24]
  0000a	33 c8		 xor	 ecx, eax
  0000c	e8 00 00 00 00	 call	 @__security_check_cookie@4
  00011	b8 00 00 00 00	 mov	 eax, OFFSET __ehfuncinfo$??0?$vector@VioHashString@@V?$allocator@VioHashString@@@std@@@std@@QAE@ABV01@@Z
  00016	e9 00 00 00 00	 jmp	 ___CxxFrameHandler3
text$x	ENDS
??0?$vector@VioHashString@@V?$allocator@VioHashString@@@std@@@std@@QAE@ABV01@@Z ENDP ; std::vector<ioHashString,std::allocator<ioHashString> >::vector<ioHashString,std::allocator<ioHashString> >
PUBLIC	??1?$vector@VioHashString@@V?$allocator@VioHashString@@@std@@@std@@QAE@XZ ; std::vector<ioHashString,std::allocator<ioHashString> >::~vector<ioHashString,std::allocator<ioHashString> >
; Function compile flags: /Ogsp
;	COMDAT ??1?$vector@VioHashString@@V?$allocator@VioHashString@@@std@@@std@@QAE@XZ
_TEXT	SEGMENT
??1?$vector@VioHashString@@V?$allocator@VioHashString@@@std@@@std@@QAE@XZ PROC ; std::vector<ioHashString,std::allocator<ioHashString> >::~vector<ioHashString,std::allocator<ioHashString> >, COMDAT
; _this$ = ecx

; 705  : 		_Tidy();

  00000	e9 00 00 00 00	 jmp	 ?_Tidy@?$vector@VioHashString@@V?$allocator@VioHashString@@@std@@@std@@IAEXXZ ; std::vector<ioHashString,std::allocator<ioHashString> >::_Tidy
??1?$vector@VioHashString@@V?$allocator@VioHashString@@@std@@@std@@QAE@XZ ENDP ; std::vector<ioHashString,std::allocator<ioHashString> >::~vector<ioHashString,std::allocator<ioHashString> >
_TEXT	ENDS
PUBLIC	?clear@?$vector@VioHashString@@V?$allocator@VioHashString@@@std@@@std@@QAEXXZ ; std::vector<ioHashString,std::allocator<ioHashString> >::clear
; Function compile flags: /Ogsp
;	COMDAT ?clear@?$vector@VioHashString@@V?$allocator@VioHashString@@@std@@@std@@QAEXXZ
_TEXT	SEGMENT
$T602302 = -4						; size = 4
?clear@?$vector@VioHashString@@V?$allocator@VioHashString@@@std@@@std@@QAEXXZ PROC ; std::vector<ioHashString,std::allocator<ioHashString> >::clear, COMDAT
; _this$ = ecx

; 1217 : 		{	// erase all

  00000	55		 push	 ebp
  00001	8b ec		 mov	 ebp, esp
  00003	51		 push	 ecx

; 1218 : 		erase(begin(), end());

  00004	8b 41 04	 mov	 eax, DWORD PTR [ecx+4]
  00007	8b 11		 mov	 edx, DWORD PTR [ecx]
  00009	50		 push	 eax
  0000a	52		 push	 edx
  0000b	8d 45 fc	 lea	 eax, DWORD PTR $T602302[ebp]
  0000e	50		 push	 eax
  0000f	e8 00 00 00 00	 call	 ?erase@?$vector@VioHashString@@V?$allocator@VioHashString@@@std@@@std@@QAE?AV?$_Vector_iterator@V?$_Vector_val@VioHashString@@V?$allocator@VioHashString@@@std@@@std@@@2@V?$_Vector_const_iterator@V?$_Vector_val@VioHashString@@V?$allocator@VioHashString@@@std@@@std@@@2@0@Z ; std::vector<ioHashString,std::allocator<ioHashString> >::erase

; 1219 : 		}

  00014	c9		 leave
  00015	c3		 ret	 0
?clear@?$vector@VioHashString@@V?$allocator@VioHashString@@@std@@@std@@QAEXXZ ENDP ; std::vector<ioHashString,std::allocator<ioHashString> >::clear
_TEXT	ENDS
PUBLIC	??1?$vector@UWeaponInfo@@V?$allocator@UWeaponInfo@@@std@@@std@@QAE@XZ ; std::vector<WeaponInfo,std::allocator<WeaponInfo> >::~vector<WeaponInfo,std::allocator<WeaponInfo> >
; Function compile flags: /Ogsp
;	COMDAT ??1?$vector@UWeaponInfo@@V?$allocator@UWeaponInfo@@@std@@@std@@QAE@XZ
_TEXT	SEGMENT
??1?$vector@UWeaponInfo@@V?$allocator@UWeaponInfo@@@std@@@std@@QAE@XZ PROC ; std::vector<WeaponInfo,std::allocator<WeaponInfo> >::~vector<WeaponInfo,std::allocator<WeaponInfo> >, COMDAT
; _this$ = ecx

; 705  : 		_Tidy();

  00000	e9 00 00 00 00	 jmp	 ?_Tidy@?$vector@UWeaponInfo@@V?$allocator@UWeaponInfo@@@std@@@std@@IAEXXZ ; std::vector<WeaponInfo,std::allocator<WeaponInfo> >::_Tidy
??1?$vector@UWeaponInfo@@V?$allocator@UWeaponInfo@@@std@@@std@@QAE@XZ ENDP ; std::vector<WeaponInfo,std::allocator<WeaponInfo> >::~vector<WeaponInfo,std::allocator<WeaponInfo> >
_TEXT	ENDS
PUBLIC	??4?$vector@UWeaponInfo@@V?$allocator@UWeaponInfo@@@std@@@std@@QAEAAV01@ABV01@@Z ; std::vector<WeaponInfo,std::allocator<WeaponInfo> >::operator=
; Function compile flags: /Ogsp
;	COMDAT ??4?$vector@UWeaponInfo@@V?$allocator@UWeaponInfo@@@std@@@std@@QAEAAV01@ABV01@@Z
_TEXT	SEGMENT
tv551 = 8						; size = 4
__Cat$602551 = 8					; size = 1
__Cat$602514 = 8					; size = 1
__Cat$602492 = 8					; size = 1
__Cat$602460 = 8					; size = 1
$T602426 = 8						; size = 4
__Right$ = 8						; size = 4
??4?$vector@UWeaponInfo@@V?$allocator@UWeaponInfo@@@std@@@std@@QAEAAV01@ABV01@@Z PROC ; std::vector<WeaponInfo,std::allocator<WeaponInfo> >::operator=, COMDAT
; _this$ = ecx

; 709  : 		{	// assign _Right

  00000	55		 push	 ebp
  00001	8b ec		 mov	 ebp, esp
  00003	56		 push	 esi
  00004	57		 push	 edi

; 710  : 		if (this != &_Right)

  00005	8b 7d 08	 mov	 edi, DWORD PTR __Right$[ebp]
  00008	8b f1		 mov	 esi, ecx
  0000a	3b f7		 cmp	 esi, edi
  0000c	0f 84 03 01 00
	00		 je	 $LN1@operator@2

; 711  : 			{	// worth doing
; 712  : 			this->_Orphan_all();

  00012	ff 15 00 00 00
	00		 call	 DWORD PTR __imp_?_Orphan_all@_Container_base0@std@@QAEXXZ

; 713  : 
; 714  : 			if (_Right.size() == 0)

  00018	8b 47 04	 mov	 eax, DWORD PTR [edi+4]
  0001b	2b 07		 sub	 eax, DWORD PTR [edi]
  0001d	6a 28		 push	 40			; 00000028H
  0001f	99		 cdq
  00020	59		 pop	 ecx
  00021	f7 f9		 idiv	 ecx
  00023	89 45 08	 mov	 DWORD PTR tv551[ebp], eax
  00026	85 c0		 test	 eax, eax

; 715  : 				clear();	// new sequence empty, erase existing sequence

  00028	8b 46 04	 mov	 eax, DWORD PTR [esi+4]
  0002b	75 14		 jne	 SHORT $LN8@operator@2
  0002d	8b 0e		 mov	 ecx, DWORD PTR [esi]
  0002f	50		 push	 eax
  00030	51		 push	 ecx
  00031	8d 45 08	 lea	 eax, DWORD PTR $T602426[ebp]
  00034	50		 push	 eax
  00035	8b ce		 mov	 ecx, esi
  00037	e8 00 00 00 00	 call	 ?erase@?$vector@UWeaponInfo@@V?$allocator@UWeaponInfo@@@std@@@std@@QAE?AV?$_Vector_iterator@V?$_Vector_val@UWeaponInfo@@V?$allocator@UWeaponInfo@@@std@@@std@@@2@V?$_Vector_const_iterator@V?$_Vector_val@UWeaponInfo@@V?$allocator@UWeaponInfo@@@std@@@std@@@2@0@Z ; std::vector<WeaponInfo,std::allocator<WeaponInfo> >::erase

; 716  : 			else if (_Right.size() <= size())

  0003c	e9 d4 00 00 00	 jmp	 $LN1@operator@2
$LN8@operator@2:
  00041	53		 push	 ebx
  00042	8b 1e		 mov	 ebx, DWORD PTR [esi]
  00044	2b c3		 sub	 eax, ebx
  00046	6a 28		 push	 40			; 00000028H
  00048	99		 cdq
  00049	59		 pop	 ecx
  0004a	f7 f9		 idiv	 ecx
  0004c	8b c8		 mov	 ecx, eax
  0004e	39 4d 08	 cmp	 DWORD PTR tv551[ebp], ecx
  00051	77 33		 ja	 SHORT $LN6@operator@2

; 717  : 				{	// enough elements, copy new and destroy old
; 718  : 				pointer _Ptr = _STD _Copy_impl(_Right._Myfirst, _Right._Mylast,
; 719  : 					this->_Myfirst);	// copy new

  00053	ff 75 08	 push	 DWORD PTR __Cat$602460[ebp]
  00056	53		 push	 ebx
  00057	ff 77 04	 push	 DWORD PTR [edi+4]
  0005a	ff 37		 push	 DWORD PTR [edi]
  0005c	e8 00 00 00 00	 call	 ??$_Copy_impl@PAUWeaponInfo@@PAU1@@std@@YAPAUWeaponInfo@@PAU1@00U_Nonscalar_ptr_iterator_tag@0@@Z ; std::_Copy_impl<WeaponInfo *,WeaponInfo *>

; 720  : 				_Destroy(_Ptr, this->_Mylast);	// destroy old

  00061	8d 4e 0c	 lea	 ecx, DWORD PTR [esi+12]
  00064	51		 push	 ecx
  00065	ff 76 04	 push	 DWORD PTR [esi+4]
  00068	50		 push	 eax
  00069	e8 00 00 00 00	 call	 ??$_Destroy_range@V?$allocator@UWeaponInfo@@@std@@@std@@YAXPAUWeaponInfo@@0AAV?$allocator@UWeaponInfo@@@0@@Z ; std::_Destroy_range<std::allocator<WeaponInfo> >

; 721  : 				this->_Mylast = this->_Myfirst + _Right.size();

  0006e	8b 47 04	 mov	 eax, DWORD PTR [edi+4]
  00071	2b 07		 sub	 eax, DWORD PTR [edi]
  00073	83 c4 1c	 add	 esp, 28			; 0000001cH
  00076	99		 cdq
  00077	6a 28		 push	 40			; 00000028H
  00079	59		 pop	 ecx
  0007a	f7 f9		 idiv	 ecx
  0007c	6b c0 28	 imul	 eax, 40			; 00000028H
  0007f	03 06		 add	 eax, DWORD PTR [esi]

; 722  : 				}
; 723  : 			else if (_Right.size() <= capacity())

  00081	e9 8b 00 00 00	 jmp	 $LN73@operator@2
$LN6@operator@2:
  00086	8b 46 08	 mov	 eax, DWORD PTR [esi+8]
  00089	2b c3		 sub	 eax, ebx
  0008b	6a 28		 push	 40			; 00000028H
  0008d	99		 cdq
  0008e	5b		 pop	 ebx
  0008f	f7 fb		 idiv	 ebx
  00091	39 45 08	 cmp	 DWORD PTR tv551[ebp], eax
  00094	77 2e		 ja	 SHORT $LN4@operator@2

; 724  : 				{	// enough room, copy and construct new
; 725  : 				pointer _Ptr = _Right._Myfirst + size();
; 726  : 				_STD _Copy_impl(_Right._Myfirst, _Ptr, this->_Myfirst);

  00096	ff 75 08	 push	 DWORD PTR __Cat$602492[ebp]
  00099	6b c9 28	 imul	 ecx, 40			; 00000028H
  0009c	8b 07		 mov	 eax, DWORD PTR [edi]
  0009e	ff 36		 push	 DWORD PTR [esi]
  000a0	8d 1c 08	 lea	 ebx, DWORD PTR [eax+ecx]
  000a3	53		 push	 ebx
  000a4	50		 push	 eax
  000a5	e8 00 00 00 00	 call	 ??$_Copy_impl@PAUWeaponInfo@@PAU1@@std@@YAPAUWeaponInfo@@PAU1@00U_Nonscalar_ptr_iterator_tag@0@@Z ; std::_Copy_impl<WeaponInfo *,WeaponInfo *>

; 727  : 				this->_Mylast = _Ucopy(_Ptr, _Right._Mylast, this->_Mylast);

  000aa	ff 75 08	 push	 DWORD PTR __Cat$602514[ebp]
  000ad	8b 46 04	 mov	 eax, DWORD PTR [esi+4]
  000b0	8b 7f 04	 mov	 edi, DWORD PTR [edi+4]
  000b3	8d 4e 0c	 lea	 ecx, DWORD PTR [esi+12]
  000b6	51		 push	 ecx
  000b7	50		 push	 eax
  000b8	57		 push	 edi
  000b9	53		 push	 ebx
  000ba	e8 00 00 00 00	 call	 ??$_Uninit_copy@PAUWeaponInfo@@PAU1@V?$allocator@UWeaponInfo@@@std@@@std@@YAPAUWeaponInfo@@PAU1@00AAV?$allocator@UWeaponInfo@@@0@U_Nonscalar_ptr_iterator_tag@0@@Z ; std::_Uninit_copy<WeaponInfo *,WeaponInfo *,std::allocator<WeaponInfo> >
  000bf	83 c4 24	 add	 esp, 36			; 00000024H

; 728  : 				}
; 729  : 			else

  000c2	eb 4d		 jmp	 SHORT $LN73@operator@2
$LN4@operator@2:

; 730  : 				{	// not enough room, allocate new array and construct new
; 731  : 				if (this->_Myfirst != 0)

  000c4	8b 06		 mov	 eax, DWORD PTR [esi]
  000c6	85 c0		 test	 eax, eax
  000c8	74 17		 je	 SHORT $LN62@operator@2

; 732  : 					{	// discard old array
; 733  : 					_Destroy(this->_Myfirst, this->_Mylast);

  000ca	8d 4e 0c	 lea	 ecx, DWORD PTR [esi+12]
  000cd	51		 push	 ecx
  000ce	ff 76 04	 push	 DWORD PTR [esi+4]
  000d1	50		 push	 eax
  000d2	e8 00 00 00 00	 call	 ??$_Destroy_range@V?$allocator@UWeaponInfo@@@std@@@std@@YAXPAUWeaponInfo@@0AAV?$allocator@UWeaponInfo@@@0@@Z ; std::_Destroy_range<std::allocator<WeaponInfo> >

; 734  : 					this->_Alval.deallocate(this->_Myfirst,
; 735  : 						this->_Myend - this->_Myfirst);

  000d7	ff 36		 push	 DWORD PTR [esi]
  000d9	e8 00 00 00 00	 call	 ??3@YAXPAX@Z		; operator delete
  000de	83 c4 10	 add	 esp, 16			; 00000010H
$LN62@operator@2:

; 736  : 					}
; 737  : 				if (_Buy(_Right.size()))

  000e1	8b 47 04	 mov	 eax, DWORD PTR [edi+4]
  000e4	2b 07		 sub	 eax, DWORD PTR [edi]
  000e6	6a 28		 push	 40			; 00000028H
  000e8	59		 pop	 ecx
  000e9	99		 cdq
  000ea	f7 f9		 idiv	 ecx
  000ec	8b ce		 mov	 ecx, esi
  000ee	50		 push	 eax
  000ef	e8 00 00 00 00	 call	 ?_Buy@?$vector@UWeaponInfo@@V?$allocator@UWeaponInfo@@@std@@@std@@IAE_NI@Z ; std::vector<WeaponInfo,std::allocator<WeaponInfo> >::_Buy
  000f4	84 c0		 test	 al, al
  000f6	74 1c		 je	 SHORT $LN72@operator@2

; 738  : 					this->_Mylast = _Ucopy(_Right._Myfirst, _Right._Mylast,
; 739  : 						this->_Myfirst);

  000f8	ff 75 08	 push	 DWORD PTR __Cat$602551[ebp]
  000fb	8b 06		 mov	 eax, DWORD PTR [esi]
  000fd	8b 4f 04	 mov	 ecx, DWORD PTR [edi+4]
  00100	8b 3f		 mov	 edi, DWORD PTR [edi]
  00102	8d 56 0c	 lea	 edx, DWORD PTR [esi+12]
  00105	52		 push	 edx
  00106	50		 push	 eax
  00107	51		 push	 ecx
  00108	57		 push	 edi
  00109	e8 00 00 00 00	 call	 ??$_Uninit_copy@PAUWeaponInfo@@PAU1@V?$allocator@UWeaponInfo@@@std@@@std@@YAPAUWeaponInfo@@PAU1@00AAV?$allocator@UWeaponInfo@@@0@U_Nonscalar_ptr_iterator_tag@0@@Z ; std::_Uninit_copy<WeaponInfo *,WeaponInfo *,std::allocator<WeaponInfo> >
  0010e	83 c4 14	 add	 esp, 20			; 00000014H
$LN73@operator@2:
  00111	89 46 04	 mov	 DWORD PTR [esi+4], eax
$LN72@operator@2:
  00114	5b		 pop	 ebx
$LN1@operator@2:
  00115	5f		 pop	 edi

; 740  : 				}
; 741  : 			}
; 742  : 		return (*this);

  00116	8b c6		 mov	 eax, esi
  00118	5e		 pop	 esi

; 743  : 		}

  00119	5d		 pop	 ebp
  0011a	c2 04 00	 ret	 4
??4?$vector@UWeaponInfo@@V?$allocator@UWeaponInfo@@@std@@@std@@QAEAAV01@ABV01@@Z ENDP ; std::vector<WeaponInfo,std::allocator<WeaponInfo> >::operator=
_TEXT	ENDS
PUBLIC	??0AttackAttribute@@QAE@ABU0@@Z			; AttackAttribute::AttackAttribute
;	COMDAT xdata$x
xdata$x	SEGMENT
__unwindtable$??0AttackAttribute@@QAE@ABU0@@Z DD 0ffffffffH
	DD	FLAT:__unwindfunclet$??0AttackAttribute@@QAE@ABU0@@Z$0
	DD	00H
	DD	FLAT:__unwindfunclet$??0AttackAttribute@@QAE@ABU0@@Z$1
	DD	01H
	DD	FLAT:__unwindfunclet$??0AttackAttribute@@QAE@ABU0@@Z$2
__ehfuncinfo$??0AttackAttribute@@QAE@ABU0@@Z DD 019930522H
	DD	03H
	DD	FLAT:__unwindtable$??0AttackAttribute@@QAE@ABU0@@Z
	DD	2 DUP(00H)
	DD	2 DUP(00H)
	DD	00H
	DD	01H
; Function compile flags: /Ogsp
xdata$x	ENDS
;	COMDAT ??0AttackAttribute@@QAE@ABU0@@Z
_TEXT	SEGMENT
_this$ = -16						; size = 4
__$EHRec$ = -12						; size = 12
___that$ = 8						; size = 4
??0AttackAttribute@@QAE@ABU0@@Z PROC			; AttackAttribute::AttackAttribute, COMDAT
; _this$ = ecx
  00000	6a 04		 push	 4
  00002	b8 00 00 00 00	 mov	 eax, __ehhandler$??0AttackAttribute@@QAE@ABU0@@Z
  00007	e8 00 00 00 00	 call	 __EH_prolog3
  0000c	8b f1		 mov	 esi, ecx
  0000e	89 75 f0	 mov	 DWORD PTR _this$[ebp], esi
  00011	8b 7d 08	 mov	 edi, DWORD PTR ___that$[ebp]
  00014	8b 1d 00 00 00
	00		 mov	 ebx, DWORD PTR __imp_??0ioHashString@@QAE@ABV0@@Z
  0001a	57		 push	 edi
  0001b	ff d3		 call	 ebx
  0001d	d9 47 10	 fld	 DWORD PTR [edi+16]
  00020	83 65 fc 00	 and	 DWORD PTR __$EHRec$[ebp+8], 0
  00024	d9 5e 10	 fstp	 DWORD PTR [esi+16]
  00027	8d 47 14	 lea	 eax, DWORD PTR [edi+20]
  0002a	50		 push	 eax
  0002b	8d 4e 14	 lea	 ecx, DWORD PTR [esi+20]
  0002e	ff d3		 call	 ebx
  00030	d9 47 24	 fld	 DWORD PTR [edi+36]
  00033	8d 47 28	 lea	 eax, DWORD PTR [edi+40]
  00036	d9 5e 24	 fstp	 DWORD PTR [esi+36]
  00039	50		 push	 eax
  0003a	8d 4e 28	 lea	 ecx, DWORD PTR [esi+40]
  0003d	c6 45 fc 01	 mov	 BYTE PTR __$EHRec$[ebp+8], 1
  00041	e8 00 00 00 00	 call	 ??0?$vector@UWeaponInfo@@V?$allocator@UWeaponInfo@@@std@@@std@@QAE@ABV01@@Z ; std::vector<WeaponInfo,std::allocator<WeaponInfo> >::vector<WeaponInfo,std::allocator<WeaponInfo> >
  00046	8d 47 38	 lea	 eax, DWORD PTR [edi+56]
  00049	50		 push	 eax
  0004a	8d 4e 38	 lea	 ecx, DWORD PTR [esi+56]
  0004d	c6 45 fc 02	 mov	 BYTE PTR __$EHRec$[ebp+8], 2
  00051	e8 00 00 00 00	 call	 ??0?$vector@UForceInfo@@V?$allocator@UForceInfo@@@std@@@std@@QAE@ABV01@@Z ; std::vector<ForceInfo,std::allocator<ForceInfo> >::vector<ForceInfo,std::allocator<ForceInfo> >
  00056	8b 47 48	 mov	 eax, DWORD PTR [edi+72]
  00059	89 46 48	 mov	 DWORD PTR [esi+72], eax
  0005c	8b 47 4c	 mov	 eax, DWORD PTR [edi+76]
  0005f	89 46 4c	 mov	 DWORD PTR [esi+76], eax
  00062	8b c6		 mov	 eax, esi
  00064	e8 00 00 00 00	 call	 __EH_epilog3
  00069	c2 04 00	 ret	 4
_TEXT	ENDS
;	COMDAT text$x
text$x	SEGMENT
__unwindfunclet$??0AttackAttribute@@QAE@ABU0@@Z$0:
  00000	8b 4d f0	 mov	 ecx, DWORD PTR _this$[ebp]
  00003	ff 25 00 00 00
	00		 jmp	 DWORD PTR __imp_??1ioHashString@@QAE@XZ
__unwindfunclet$??0AttackAttribute@@QAE@ABU0@@Z$1:
  00009	8b 4d f0	 mov	 ecx, DWORD PTR _this$[ebp]
  0000c	83 c1 14	 add	 ecx, 20			; 00000014H
  0000f	ff 25 00 00 00
	00		 jmp	 DWORD PTR __imp_??1ioHashString@@QAE@XZ
__unwindfunclet$??0AttackAttribute@@QAE@ABU0@@Z$2:
  00015	8b 4d f0	 mov	 ecx, DWORD PTR _this$[ebp]
  00018	83 c1 28	 add	 ecx, 40			; 00000028H
  0001b	e9 00 00 00 00	 jmp	 ??1?$vector@UWeaponInfo@@V?$allocator@UWeaponInfo@@@std@@@std@@QAE@XZ ; std::vector<WeaponInfo,std::allocator<WeaponInfo> >::~vector<WeaponInfo,std::allocator<WeaponInfo> >
__ehhandler$??0AttackAttribute@@QAE@ABU0@@Z:
  00020	8b 54 24 08	 mov	 edx, DWORD PTR [esp+8]
  00024	8d 42 0c	 lea	 eax, DWORD PTR [edx+12]
  00027	8b 4a ec	 mov	 ecx, DWORD PTR [edx-20]
  0002a	33 c8		 xor	 ecx, eax
  0002c	e8 00 00 00 00	 call	 @__security_check_cookie@4
  00031	b8 00 00 00 00	 mov	 eax, OFFSET __ehfuncinfo$??0AttackAttribute@@QAE@ABU0@@Z
  00036	e9 00 00 00 00	 jmp	 ___CxxFrameHandler3
text$x	ENDS
??0AttackAttribute@@QAE@ABU0@@Z ENDP			; AttackAttribute::AttackAttribute
PUBLIC	??$construct@AAUAttackAttribute@@@?$allocator@UAttackAttribute@@@std@@QAEXPAUAttackAttribute@@AAU2@@Z ; std::allocator<AttackAttribute>::construct<AttackAttribute &>
;	COMDAT xdata$x
; File c:\program files (x86)\microsoft visual studio 10.0\vc\include\utility
xdata$x	SEGMENT
__unwindtable$??$construct@AAUAttackAttribute@@@?$allocator@UAttackAttribute@@@std@@QAEXPAUAttackAttribute@@AAU2@@Z DD 0ffffffffH
	DD	FLAT:__unwindfunclet$??$construct@AAUAttackAttribute@@@?$allocator@UAttackAttribute@@@std@@QAEXPAUAttackAttribute@@AAU2@@Z$0
__ehfuncinfo$??$construct@AAUAttackAttribute@@@?$allocator@UAttackAttribute@@@std@@QAEXPAUAttackAttribute@@AAU2@@Z DD 019930522H
	DD	01H
	DD	FLAT:__unwindtable$??$construct@AAUAttackAttribute@@@?$allocator@UAttackAttribute@@@std@@QAEXPAUAttackAttribute@@AAU2@@Z
	DD	2 DUP(00H)
	DD	2 DUP(00H)
	DD	00H
	DD	01H
; Function compile flags: /Ogsp
; File c:\program files (x86)\microsoft visual studio 10.0\vc\include\xmemory
xdata$x	ENDS
;	COMDAT ??$construct@AAUAttackAttribute@@@?$allocator@UAttackAttribute@@@std@@QAEXPAUAttackAttribute@@AAU2@@Z
_TEXT	SEGMENT
$T602573 = -16						; size = 4
__$EHRec$ = -12						; size = 12
__Ptr$ = 8						; size = 4
__Val$ = 12						; size = 4
??$construct@AAUAttackAttribute@@@?$allocator@UAttackAttribute@@@std@@QAEXPAUAttackAttribute@@AAU2@@Z PROC ; std::allocator<AttackAttribute>::construct<AttackAttribute &>, COMDAT
; _this$ = ecx

; 206  : 		void construct(pointer _Ptr, _Other&& _Val)

  00000	6a 04		 push	 4
  00002	b8 00 00 00 00	 mov	 eax, __ehhandler$??$construct@AAUAttackAttribute@@@?$allocator@UAttackAttribute@@@std@@QAEXPAUAttackAttribute@@AAU2@@Z
  00007	e8 00 00 00 00	 call	 __EH_prolog3

; 207  : 		{	// construct object at _Ptr with value _Val
; 208  : 		::new ((void _FARQ *)_Ptr) _Ty(_STD forward<_Other>(_Val));

  0000c	8b 4d 08	 mov	 ecx, DWORD PTR __Ptr$[ebp]
  0000f	89 4d f0	 mov	 DWORD PTR $T602573[ebp], ecx
  00012	83 65 fc 00	 and	 DWORD PTR __$EHRec$[ebp+8], 0
  00016	85 c9		 test	 ecx, ecx
  00018	74 08		 je	 SHORT $LN3@construct@6
  0001a	ff 75 0c	 push	 DWORD PTR __Val$[ebp]
  0001d	e8 00 00 00 00	 call	 ??0AttackAttribute@@QAE@ABU0@@Z
$LN3@construct@6:

; 209  : 		}

  00022	e8 00 00 00 00	 call	 __EH_epilog3
  00027	c2 08 00	 ret	 8
_TEXT	ENDS
;	COMDAT text$x
text$x	SEGMENT
__unwindfunclet$??$construct@AAUAttackAttribute@@@?$allocator@UAttackAttribute@@@std@@QAEXPAUAttackAttribute@@AAU2@@Z$0:
  00000	ff 75 08	 push	 DWORD PTR __Ptr$[ebp]
  00003	ff 75 f0	 push	 DWORD PTR $T602573[ebp]
  00006	e8 00 00 00 00	 call	 ??3@YAXPAX0@Z		; operator delete
  0000b	59		 pop	 ecx
  0000c	59		 pop	 ecx
  0000d	c3		 ret	 0
__ehhandler$??$construct@AAUAttackAttribute@@@?$allocator@UAttackAttribute@@@std@@QAEXPAUAttackAttribute@@AAU2@@Z:
  0000e	8b 54 24 08	 mov	 edx, DWORD PTR [esp+8]
  00012	8d 42 0c	 lea	 eax, DWORD PTR [edx+12]
  00015	8b 4a ec	 mov	 ecx, DWORD PTR [edx-20]
  00018	33 c8		 xor	 ecx, eax
  0001a	e8 00 00 00 00	 call	 @__security_check_cookie@4
  0001f	b8 00 00 00 00	 mov	 eax, OFFSET __ehfuncinfo$??$construct@AAUAttackAttribute@@@?$allocator@UAttackAttribute@@@std@@QAEXPAUAttackAttribute@@AAU2@@Z
  00024	e9 00 00 00 00	 jmp	 ___CxxFrameHandler3
text$x	ENDS
??$construct@AAUAttackAttribute@@@?$allocator@UAttackAttribute@@@std@@QAEXPAUAttackAttribute@@AAU2@@Z ENDP ; std::allocator<AttackAttribute>::construct<AttackAttribute &>
PUBLIC	??$_Construct@UAttackAttribute@@ABU1@@std@@YAXPAUAttackAttribute@@ABU1@@Z ; std::_Construct<AttackAttribute,AttackAttribute const &>
;	COMDAT xdata$x
; File c:\program files (x86)\microsoft visual studio 10.0\vc\include\utility
xdata$x	SEGMENT
__unwindtable$??$_Construct@UAttackAttribute@@ABU1@@std@@YAXPAUAttackAttribute@@ABU1@@Z DD 0ffffffffH
	DD	FLAT:__unwindfunclet$??$_Construct@UAttackAttribute@@ABU1@@std@@YAXPAUAttackAttribute@@ABU1@@Z$0
__ehfuncinfo$??$_Construct@UAttackAttribute@@ABU1@@std@@YAXPAUAttackAttribute@@ABU1@@Z DD 019930522H
	DD	01H
	DD	FLAT:__unwindtable$??$_Construct@UAttackAttribute@@ABU1@@std@@YAXPAUAttackAttribute@@ABU1@@Z
	DD	2 DUP(00H)
	DD	2 DUP(00H)
	DD	00H
	DD	01H
; Function compile flags: /Ogsp
; File c:\program files (x86)\microsoft visual studio 10.0\vc\include\xmemory
xdata$x	ENDS
;	COMDAT ??$_Construct@UAttackAttribute@@ABU1@@std@@YAXPAUAttackAttribute@@ABU1@@Z
_TEXT	SEGMENT
$T602592 = -16						; size = 4
__$EHRec$ = -12						; size = 12
__Vptr$ = 8						; size = 4
__Ptr$ = 8						; size = 4
__Val$ = 12						; size = 4
??$_Construct@UAttackAttribute@@ABU1@@std@@YAXPAUAttackAttribute@@ABU1@@Z PROC ; std::_Construct<AttackAttribute,AttackAttribute const &>, COMDAT

; 46   : 	{	// construct object at _Ptr with value _Val

  00000	6a 04		 push	 4
  00002	b8 00 00 00 00	 mov	 eax, __ehhandler$??$_Construct@UAttackAttribute@@ABU1@@std@@YAXPAUAttackAttribute@@ABU1@@Z
  00007	e8 00 00 00 00	 call	 __EH_prolog3

; 47   : 	void _FARQ *_Vptr = _Ptr;

  0000c	8b 4d 08	 mov	 ecx, DWORD PTR __Ptr$[ebp]
  0000f	89 4d 08	 mov	 DWORD PTR __Vptr$[ebp], ecx

; 48   : 	::new (_Vptr) _Ty1(_STD forward<_Ty2>(_Val));

  00012	89 4d f0	 mov	 DWORD PTR $T602592[ebp], ecx
  00015	83 65 fc 00	 and	 DWORD PTR __$EHRec$[ebp+8], 0
  00019	85 c9		 test	 ecx, ecx
  0001b	74 08		 je	 SHORT $LN3@Construct@4
  0001d	ff 75 0c	 push	 DWORD PTR __Val$[ebp]
  00020	e8 00 00 00 00	 call	 ??0AttackAttribute@@QAE@ABU0@@Z
$LN3@Construct@4:

; 49   : 	}

  00025	e8 00 00 00 00	 call	 __EH_epilog3
  0002a	c3		 ret	 0
_TEXT	ENDS
;	COMDAT text$x
text$x	SEGMENT
__unwindfunclet$??$_Construct@UAttackAttribute@@ABU1@@std@@YAXPAUAttackAttribute@@ABU1@@Z$0:
  00000	ff 75 08	 push	 DWORD PTR __Vptr$[ebp]
  00003	ff 75 f0	 push	 DWORD PTR $T602592[ebp]
  00006	e8 00 00 00 00	 call	 ??3@YAXPAX0@Z		; operator delete
  0000b	59		 pop	 ecx
  0000c	59		 pop	 ecx
  0000d	c3		 ret	 0
__ehhandler$??$_Construct@UAttackAttribute@@ABU1@@std@@YAXPAUAttackAttribute@@ABU1@@Z:
  0000e	8b 54 24 08	 mov	 edx, DWORD PTR [esp+8]
  00012	8d 42 0c	 lea	 eax, DWORD PTR [edx+12]
  00015	8b 4a ec	 mov	 ecx, DWORD PTR [edx-20]
  00018	33 c8		 xor	 ecx, eax
  0001a	e8 00 00 00 00	 call	 @__security_check_cookie@4
  0001f	b8 00 00 00 00	 mov	 eax, OFFSET __ehfuncinfo$??$_Construct@UAttackAttribute@@ABU1@@std@@YAXPAUAttackAttribute@@ABU1@@Z
  00024	e9 00 00 00 00	 jmp	 ___CxxFrameHandler3
text$x	ENDS
??$_Construct@UAttackAttribute@@ABU1@@std@@YAXPAUAttackAttribute@@ABU1@@Z ENDP ; std::_Construct<AttackAttribute,AttackAttribute const &>
PUBLIC	?construct@?$allocator@UAttackAttribute@@@std@@QAEXPAUAttackAttribute@@$$QAU3@@Z ; std::allocator<AttackAttribute>::construct
;	COMDAT xdata$x
; File c:\program files (x86)\microsoft visual studio 10.0\vc\include\utility
xdata$x	SEGMENT
__unwindtable$?construct@?$allocator@UAttackAttribute@@@std@@QAEXPAUAttackAttribute@@$$QAU3@@Z DD 0ffffffffH
	DD	FLAT:__unwindfunclet$?construct@?$allocator@UAttackAttribute@@@std@@QAEXPAUAttackAttribute@@$$QAU3@@Z$0
__ehfuncinfo$?construct@?$allocator@UAttackAttribute@@@std@@QAEXPAUAttackAttribute@@$$QAU3@@Z DD 019930522H
	DD	01H
	DD	FLAT:__unwindtable$?construct@?$allocator@UAttackAttribute@@@std@@QAEXPAUAttackAttribute@@$$QAU3@@Z
	DD	2 DUP(00H)
	DD	2 DUP(00H)
	DD	00H
	DD	01H
; Function compile flags: /Ogsp
; File c:\program files (x86)\microsoft visual studio 10.0\vc\include\xmemory
xdata$x	ENDS
;	COMDAT ?construct@?$allocator@UAttackAttribute@@@std@@QAEXPAUAttackAttribute@@$$QAU3@@Z
_TEXT	SEGMENT
$T602611 = -16						; size = 4
__$EHRec$ = -12						; size = 12
__Ptr$ = 8						; size = 4
__Val$ = 12						; size = 4
?construct@?$allocator@UAttackAttribute@@@std@@QAEXPAUAttackAttribute@@$$QAU3@@Z PROC ; std::allocator<AttackAttribute>::construct, COMDAT
; _this$ = ecx

; 201  : 		{	// construct object at _Ptr with value _Val

  00000	6a 04		 push	 4
  00002	b8 00 00 00 00	 mov	 eax, __ehhandler$?construct@?$allocator@UAttackAttribute@@@std@@QAEXPAUAttackAttribute@@$$QAU3@@Z
  00007	e8 00 00 00 00	 call	 __EH_prolog3

; 202  : 		::new ((void _FARQ *)_Ptr) _Ty(_STD forward<_Ty>(_Val));

  0000c	8b 4d 08	 mov	 ecx, DWORD PTR __Ptr$[ebp]
  0000f	89 4d f0	 mov	 DWORD PTR $T602611[ebp], ecx
  00012	83 65 fc 00	 and	 DWORD PTR __$EHRec$[ebp+8], 0
  00016	85 c9		 test	 ecx, ecx
  00018	74 08		 je	 SHORT $LN3@construct@7
  0001a	ff 75 0c	 push	 DWORD PTR __Val$[ebp]
  0001d	e8 00 00 00 00	 call	 ??0AttackAttribute@@QAE@ABU0@@Z
$LN3@construct@7:

; 203  : 		}

  00022	e8 00 00 00 00	 call	 __EH_epilog3
  00027	c2 08 00	 ret	 8
_TEXT	ENDS
;	COMDAT text$x
text$x	SEGMENT
__unwindfunclet$?construct@?$allocator@UAttackAttribute@@@std@@QAEXPAUAttackAttribute@@$$QAU3@@Z$0:
  00000	ff 75 08	 push	 DWORD PTR __Ptr$[ebp]
  00003	ff 75 f0	 push	 DWORD PTR $T602611[ebp]
  00006	e8 00 00 00 00	 call	 ??3@YAXPAX0@Z		; operator delete
  0000b	59		 pop	 ecx
  0000c	59		 pop	 ecx
  0000d	c3		 ret	 0
__ehhandler$?construct@?$allocator@UAttackAttribute@@@std@@QAEXPAUAttackAttribute@@$$QAU3@@Z:
  0000e	8b 54 24 08	 mov	 edx, DWORD PTR [esp+8]
  00012	8d 42 0c	 lea	 eax, DWORD PTR [edx+12]
  00015	8b 4a ec	 mov	 ecx, DWORD PTR [edx-20]
  00018	33 c8		 xor	 ecx, eax
  0001a	e8 00 00 00 00	 call	 @__security_check_cookie@4
  0001f	b8 00 00 00 00	 mov	 eax, OFFSET __ehfuncinfo$?construct@?$allocator@UAttackAttribute@@@std@@QAEXPAUAttackAttribute@@$$QAU3@@Z
  00024	e9 00 00 00 00	 jmp	 ___CxxFrameHandler3
text$x	ENDS
?construct@?$allocator@UAttackAttribute@@@std@@QAEXPAUAttackAttribute@@$$QAU3@@Z ENDP ; std::allocator<AttackAttribute>::construct
PUBLIC	??0AttackAttribute@@QAE@XZ			; AttackAttribute::AttackAttribute
EXTRN	?Init@AttackAttribute@@QAEXXZ:PROC		; AttackAttribute::Init
EXTRN	__imp_??0ioHashString@@QAE@XZ:PROC
;	COMDAT xdata$x
xdata$x	SEGMENT
__unwindtable$??0AttackAttribute@@QAE@XZ DD 0ffffffffH
	DD	FLAT:__unwindfunclet$??0AttackAttribute@@QAE@XZ$0
	DD	00H
	DD	FLAT:__unwindfunclet$??0AttackAttribute@@QAE@XZ$1
	DD	01H
	DD	FLAT:__unwindfunclet$??0AttackAttribute@@QAE@XZ$2
	DD	02H
	DD	FLAT:__unwindfunclet$??0AttackAttribute@@QAE@XZ$3
__ehfuncinfo$??0AttackAttribute@@QAE@XZ DD 019930522H
	DD	04H
	DD	FLAT:__unwindtable$??0AttackAttribute@@QAE@XZ
	DD	2 DUP(00H)
	DD	2 DUP(00H)
	DD	00H
	DD	01H
; Function compile flags: /Ogsp
; File d:\lost saga for developer\youtube\tutorial\source\src\lsclient\ioattackattribute.h
xdata$x	ENDS
;	COMDAT ??0AttackAttribute@@QAE@XZ
_TEXT	SEGMENT
_this$ = -16						; size = 4
__$EHRec$ = -12						; size = 12
??0AttackAttribute@@QAE@XZ PROC				; AttackAttribute::AttackAttribute, COMDAT
; _this$ = ecx

; 107  : 	AttackAttribute()

  00000	6a 04		 push	 4
  00002	b8 00 00 00 00	 mov	 eax, __ehhandler$??0AttackAttribute@@QAE@XZ
  00007	e8 00 00 00 00	 call	 __EH_prolog3
  0000c	8b f1		 mov	 esi, ecx
  0000e	89 75 f0	 mov	 DWORD PTR _this$[ebp], esi
  00011	8b 3d 00 00 00
	00		 mov	 edi, DWORD PTR __imp_??0ioHashString@@QAE@XZ
  00017	ff d7		 call	 edi
  00019	33 db		 xor	 ebx, ebx
  0001b	8d 4e 14	 lea	 ecx, DWORD PTR [esi+20]
  0001e	89 5d fc	 mov	 DWORD PTR __$EHRec$[ebp+8], ebx
  00021	ff d7		 call	 edi
  00023	89 5e 28	 mov	 DWORD PTR [esi+40], ebx
  00026	89 5e 2c	 mov	 DWORD PTR [esi+44], ebx
  00029	89 5e 30	 mov	 DWORD PTR [esi+48], ebx
  0002c	89 5e 38	 mov	 DWORD PTR [esi+56], ebx
  0002f	89 5e 3c	 mov	 DWORD PTR [esi+60], ebx
  00032	89 5e 40	 mov	 DWORD PTR [esi+64], ebx

; 108  : 	{
; 109  : 		Init();

  00035	8b ce		 mov	 ecx, esi
  00037	c6 45 fc 03	 mov	 BYTE PTR __$EHRec$[ebp+8], 3
  0003b	e8 00 00 00 00	 call	 ?Init@AttackAttribute@@QAEXXZ ; AttackAttribute::Init

; 110  : 	}

  00040	8b c6		 mov	 eax, esi
  00042	e8 00 00 00 00	 call	 __EH_epilog3
  00047	c3		 ret	 0
_TEXT	ENDS
;	COMDAT text$x
text$x	SEGMENT
__unwindfunclet$??0AttackAttribute@@QAE@XZ$0:
  00000	8b 4d f0	 mov	 ecx, DWORD PTR _this$[ebp]
  00003	ff 25 00 00 00
	00		 jmp	 DWORD PTR __imp_??1ioHashString@@QAE@XZ
__unwindfunclet$??0AttackAttribute@@QAE@XZ$1:
  00009	8b 4d f0	 mov	 ecx, DWORD PTR _this$[ebp]
  0000c	83 c1 14	 add	 ecx, 20			; 00000014H
  0000f	ff 25 00 00 00
	00		 jmp	 DWORD PTR __imp_??1ioHashString@@QAE@XZ
__unwindfunclet$??0AttackAttribute@@QAE@XZ$2:
  00015	8b 4d f0	 mov	 ecx, DWORD PTR _this$[ebp]
  00018	83 c1 28	 add	 ecx, 40			; 00000028H
  0001b	e9 00 00 00 00	 jmp	 ??1?$vector@UWeaponInfo@@V?$allocator@UWeaponInfo@@@std@@@std@@QAE@XZ ; std::vector<WeaponInfo,std::allocator<WeaponInfo> >::~vector<WeaponInfo,std::allocator<WeaponInfo> >
__unwindfunclet$??0AttackAttribute@@QAE@XZ$3:
  00020	8b 4d f0	 mov	 ecx, DWORD PTR _this$[ebp]
  00023	83 c1 38	 add	 ecx, 56			; 00000038H
  00026	e9 00 00 00 00	 jmp	 ??1?$vector@UForceInfo@@V?$allocator@UForceInfo@@@std@@@std@@QAE@XZ ; std::vector<ForceInfo,std::allocator<ForceInfo> >::~vector<ForceInfo,std::allocator<ForceInfo> >
__ehhandler$??0AttackAttribute@@QAE@XZ:
  0002b	8b 54 24 08	 mov	 edx, DWORD PTR [esp+8]
  0002f	8d 42 0c	 lea	 eax, DWORD PTR [edx+12]
  00032	8b 4a ec	 mov	 ecx, DWORD PTR [edx-20]
  00035	33 c8		 xor	 ecx, eax
  00037	e8 00 00 00 00	 call	 @__security_check_cookie@4
  0003c	b8 00 00 00 00	 mov	 eax, OFFSET __ehfuncinfo$??0AttackAttribute@@QAE@XZ
  00041	e9 00 00 00 00	 jmp	 ___CxxFrameHandler3
text$x	ENDS
??0AttackAttribute@@QAE@XZ ENDP				; AttackAttribute::AttackAttribute
PUBLIC	??1AttackAttribute@@QAE@XZ			; AttackAttribute::~AttackAttribute
;	COMDAT xdata$x
xdata$x	SEGMENT
__unwindtable$??1AttackAttribute@@QAE@XZ DD 0ffffffffH
	DD	FLAT:__unwindfunclet$??1AttackAttribute@@QAE@XZ$0
	DD	00H
	DD	FLAT:__unwindfunclet$??1AttackAttribute@@QAE@XZ$1
	DD	01H
	DD	FLAT:__unwindfunclet$??1AttackAttribute@@QAE@XZ$2
__ehfuncinfo$??1AttackAttribute@@QAE@XZ DD 019930522H
	DD	03H
	DD	FLAT:__unwindtable$??1AttackAttribute@@QAE@XZ
	DD	2 DUP(00H)
	DD	2 DUP(00H)
	DD	00H
	DD	01H
; Function compile flags: /Ogsp
xdata$x	ENDS
;	COMDAT ??1AttackAttribute@@QAE@XZ
_TEXT	SEGMENT
_this$ = -16						; size = 4
__$EHRec$ = -12						; size = 12
??1AttackAttribute@@QAE@XZ PROC				; AttackAttribute::~AttackAttribute, COMDAT
; _this$ = ecx
  00000	6a 04		 push	 4
  00002	b8 00 00 00 00	 mov	 eax, __ehhandler$??1AttackAttribute@@QAE@XZ
  00007	e8 00 00 00 00	 call	 __EH_prolog3
  0000c	8b f1		 mov	 esi, ecx
  0000e	89 75 f0	 mov	 DWORD PTR _this$[ebp], esi
  00011	8d 4e 38	 lea	 ecx, DWORD PTR [esi+56]
  00014	c7 45 fc 02 00
	00 00		 mov	 DWORD PTR __$EHRec$[ebp+8], 2
  0001b	e8 00 00 00 00	 call	 ?_Tidy@?$vector@UForceInfo@@V?$allocator@UForceInfo@@@std@@@std@@IAEXXZ ; std::vector<ForceInfo,std::allocator<ForceInfo> >::_Tidy
  00020	8d 4e 28	 lea	 ecx, DWORD PTR [esi+40]
  00023	c6 45 fc 01	 mov	 BYTE PTR __$EHRec$[ebp+8], 1
  00027	e8 00 00 00 00	 call	 ?_Tidy@?$vector@UWeaponInfo@@V?$allocator@UWeaponInfo@@@std@@@std@@IAEXXZ ; std::vector<WeaponInfo,std::allocator<WeaponInfo> >::_Tidy
  0002c	8b 3d 00 00 00
	00		 mov	 edi, DWORD PTR __imp_??1ioHashString@@QAE@XZ
  00032	8d 4e 14	 lea	 ecx, DWORD PTR [esi+20]
  00035	c6 45 fc 00	 mov	 BYTE PTR __$EHRec$[ebp+8], 0
  00039	ff d7		 call	 edi
  0003b	83 4d fc ff	 or	 DWORD PTR __$EHRec$[ebp+8], -1
  0003f	8b ce		 mov	 ecx, esi
  00041	ff d7		 call	 edi
  00043	e8 00 00 00 00	 call	 __EH_epilog3
  00048	c3		 ret	 0
_TEXT	ENDS
;	COMDAT text$x
text$x	SEGMENT
__unwindfunclet$??1AttackAttribute@@QAE@XZ$0:
  00000	8b 4d f0	 mov	 ecx, DWORD PTR _this$[ebp]
  00003	ff 25 00 00 00
	00		 jmp	 DWORD PTR __imp_??1ioHashString@@QAE@XZ
__unwindfunclet$??1AttackAttribute@@QAE@XZ$1:
  00009	8b 4d f0	 mov	 ecx, DWORD PTR _this$[ebp]
  0000c	83 c1 14	 add	 ecx, 20			; 00000014H
  0000f	ff 25 00 00 00
	00		 jmp	 DWORD PTR __imp_??1ioHashString@@QAE@XZ
__unwindfunclet$??1AttackAttribute@@QAE@XZ$2:
  00015	8b 4d f0	 mov	 ecx, DWORD PTR _this$[ebp]
  00018	83 c1 28	 add	 ecx, 40			; 00000028H
  0001b	e9 00 00 00 00	 jmp	 ??1?$vector@UWeaponInfo@@V?$allocator@UWeaponInfo@@@std@@@std@@QAE@XZ ; std::vector<WeaponInfo,std::allocator<WeaponInfo> >::~vector<WeaponInfo,std::allocator<WeaponInfo> >
__ehhandler$??1AttackAttribute@@QAE@XZ:
  00020	8b 54 24 08	 mov	 edx, DWORD PTR [esp+8]
  00024	8d 42 0c	 lea	 eax, DWORD PTR [edx+12]
  00027	8b 4a ec	 mov	 ecx, DWORD PTR [edx-20]
  0002a	33 c8		 xor	 ecx, eax
  0002c	e8 00 00 00 00	 call	 @__security_check_cookie@4
  00031	b8 00 00 00 00	 mov	 eax, OFFSET __ehfuncinfo$??1AttackAttribute@@QAE@XZ
  00036	e9 00 00 00 00	 jmp	 ___CxxFrameHandler3
text$x	ENDS
??1AttackAttribute@@QAE@XZ ENDP				; AttackAttribute::~AttackAttribute
PUBLIC	??4AttackAttribute@@QAEAAU0@ABU0@@Z		; AttackAttribute::operator=
; Function compile flags: /Ogsp
;	COMDAT ??4AttackAttribute@@QAEAAU0@ABU0@@Z
_TEXT	SEGMENT
___that$ = 8						; size = 4
??4AttackAttribute@@QAEAAU0@ABU0@@Z PROC		; AttackAttribute::operator=, COMDAT
; _this$ = ecx
  00000	55		 push	 ebp
  00001	8b ec		 mov	 ebp, esp
  00003	53		 push	 ebx
  00004	8b 1d 00 00 00
	00		 mov	 ebx, DWORD PTR __imp_??4ioHashString@@QAEAAV0@ABV0@@Z
  0000a	56		 push	 esi
  0000b	57		 push	 edi
  0000c	8b 7d 08	 mov	 edi, DWORD PTR ___that$[ebp]
  0000f	57		 push	 edi
  00010	8b f1		 mov	 esi, ecx
  00012	ff d3		 call	 ebx
  00014	d9 47 10	 fld	 DWORD PTR [edi+16]
  00017	8d 47 14	 lea	 eax, DWORD PTR [edi+20]
  0001a	d9 5e 10	 fstp	 DWORD PTR [esi+16]
  0001d	50		 push	 eax
  0001e	8d 4e 14	 lea	 ecx, DWORD PTR [esi+20]
  00021	ff d3		 call	 ebx
  00023	d9 47 24	 fld	 DWORD PTR [edi+36]
  00026	8d 47 28	 lea	 eax, DWORD PTR [edi+40]
  00029	d9 5e 24	 fstp	 DWORD PTR [esi+36]
  0002c	50		 push	 eax
  0002d	8d 4e 28	 lea	 ecx, DWORD PTR [esi+40]
  00030	e8 00 00 00 00	 call	 ??4?$vector@UWeaponInfo@@V?$allocator@UWeaponInfo@@@std@@@std@@QAEAAV01@ABV01@@Z ; std::vector<WeaponInfo,std::allocator<WeaponInfo> >::operator=
  00035	8d 47 38	 lea	 eax, DWORD PTR [edi+56]
  00038	50		 push	 eax
  00039	8d 4e 38	 lea	 ecx, DWORD PTR [esi+56]
  0003c	e8 00 00 00 00	 call	 ??4?$vector@UForceInfo@@V?$allocator@UForceInfo@@@std@@@std@@QAEAAV01@ABV01@@Z ; std::vector<ForceInfo,std::allocator<ForceInfo> >::operator=
  00041	8b 47 48	 mov	 eax, DWORD PTR [edi+72]
  00044	89 46 48	 mov	 DWORD PTR [esi+72], eax
  00047	8b 47 4c	 mov	 eax, DWORD PTR [edi+76]
  0004a	89 46 4c	 mov	 DWORD PTR [esi+76], eax
  0004d	5f		 pop	 edi
  0004e	8b c6		 mov	 eax, esi
  00050	5e		 pop	 esi
  00051	5b		 pop	 ebx
  00052	5d		 pop	 ebp
  00053	c2 04 00	 ret	 4
??4AttackAttribute@@QAEAAU0@ABU0@@Z ENDP		; AttackAttribute::operator=
_TEXT	ENDS
PUBLIC	??_GAttackAttribute@@QAEPAXI@Z			; AttackAttribute::`scalar deleting destructor'
; Function compile flags: /Ogsp
;	COMDAT ??_GAttackAttribute@@QAEPAXI@Z
_TEXT	SEGMENT
___flags$ = 8						; size = 4
??_GAttackAttribute@@QAEPAXI@Z PROC			; AttackAttribute::`scalar deleting destructor', COMDAT
; _this$ = ecx
  00000	55		 push	 ebp
  00001	8b ec		 mov	 ebp, esp
  00003	56		 push	 esi
  00004	8b f1		 mov	 esi, ecx
  00006	e8 00 00 00 00	 call	 ??1AttackAttribute@@QAE@XZ
  0000b	f6 45 08 01	 test	 BYTE PTR ___flags$[ebp], 1
  0000f	74 07		 je	 SHORT $LN1@scalar@4
  00011	56		 push	 esi
  00012	e8 00 00 00 00	 call	 ??3@YAXPAX@Z		; operator delete
  00017	59		 pop	 ecx
$LN1@scalar@4:
  00018	8b c6		 mov	 eax, esi
  0001a	5e		 pop	 esi
  0001b	5d		 pop	 ebp
  0001c	c2 04 00	 ret	 4
??_GAttackAttribute@@QAEPAXI@Z ENDP			; AttackAttribute::`scalar deleting destructor'
_TEXT	ENDS
PUBLIC	??$_Cons_val@V?$allocator@UAttackAttribute@@@std@@UAttackAttribute@@AAU3@@std@@YAXAAV?$allocator@UAttackAttribute@@@0@PAUAttackAttribute@@AAU2@@Z ; std::_Cons_val<std::allocator<AttackAttribute>,AttackAttribute,AttackAttribute &>
;	COMDAT xdata$x
; File c:\program files (x86)\microsoft visual studio 10.0\vc\include\utility
xdata$x	SEGMENT
__unwindtable$??$_Cons_val@V?$allocator@UAttackAttribute@@@std@@UAttackAttribute@@AAU3@@std@@YAXAAV?$allocator@UAttackAttribute@@@0@PAUAttackAttribute@@AAU2@@Z DD 0ffffffffH
	DD	FLAT:__unwindfunclet$??$_Cons_val@V?$allocator@UAttackAttribute@@@std@@UAttackAttribute@@AAU3@@std@@YAXAAV?$allocator@UAttackAttribute@@@0@PAUAttackAttribute@@AAU2@@Z$0
__ehfuncinfo$??$_Cons_val@V?$allocator@UAttackAttribute@@@std@@UAttackAttribute@@AAU3@@std@@YAXAAV?$allocator@UAttackAttribute@@@0@PAUAttackAttribute@@AAU2@@Z DD 019930522H
	DD	01H
	DD	FLAT:__unwindtable$??$_Cons_val@V?$allocator@UAttackAttribute@@@std@@UAttackAttribute@@AAU3@@std@@YAXAAV?$allocator@UAttackAttribute@@@0@PAUAttackAttribute@@AAU2@@Z
	DD	2 DUP(00H)
	DD	2 DUP(00H)
	DD	00H
	DD	01H
; Function compile flags: /Ogsp
; File c:\program files (x86)\microsoft visual studio 10.0\vc\include\xmemory
xdata$x	ENDS
;	COMDAT ??$_Cons_val@V?$allocator@UAttackAttribute@@@std@@UAttackAttribute@@AAU3@@std@@YAXAAV?$allocator@UAttackAttribute@@@0@PAUAttackAttribute@@AAU2@@Z
_TEXT	SEGMENT
$T602741 = -16						; size = 4
__$EHRec$ = -12						; size = 12
__Alval$ = 8						; size = 4
__Pdest$ = 12						; size = 4
__Src$ = 16						; size = 4
??$_Cons_val@V?$allocator@UAttackAttribute@@@std@@UAttackAttribute@@AAU3@@std@@YAXAAV?$allocator@UAttackAttribute@@@0@PAUAttackAttribute@@AAU2@@Z PROC ; std::_Cons_val<std::allocator<AttackAttribute>,AttackAttribute,AttackAttribute &>, COMDAT

; 279  : 	{	// construct using allocator

  00000	6a 04		 push	 4
  00002	b8 00 00 00 00	 mov	 eax, __ehhandler$??$_Cons_val@V?$allocator@UAttackAttribute@@@std@@UAttackAttribute@@AAU3@@std@@YAXAAV?$allocator@UAttackAttribute@@@0@PAUAttackAttribute@@AAU2@@Z
  00007	e8 00 00 00 00	 call	 __EH_prolog3

; 280  : 	_Alval.construct(_Pdest, _STD forward<_Ty2>(_Src));

  0000c	8b 4d 0c	 mov	 ecx, DWORD PTR __Pdest$[ebp]
  0000f	89 4d f0	 mov	 DWORD PTR $T602741[ebp], ecx
  00012	83 65 fc 00	 and	 DWORD PTR __$EHRec$[ebp+8], 0
  00016	85 c9		 test	 ecx, ecx
  00018	74 08		 je	 SHORT $LN7@Cons_val@4
  0001a	ff 75 10	 push	 DWORD PTR __Src$[ebp]
  0001d	e8 00 00 00 00	 call	 ??0AttackAttribute@@QAE@ABU0@@Z
$LN7@Cons_val@4:

; 281  : 	}

  00022	e8 00 00 00 00	 call	 __EH_epilog3
  00027	c3		 ret	 0
_TEXT	ENDS
;	COMDAT text$x
text$x	SEGMENT
__unwindfunclet$??$_Cons_val@V?$allocator@UAttackAttribute@@@std@@UAttackAttribute@@AAU3@@std@@YAXAAV?$allocator@UAttackAttribute@@@0@PAUAttackAttribute@@AAU2@@Z$0:
  00000	ff 75 0c	 push	 DWORD PTR __Pdest$[ebp]
  00003	ff 75 f0	 push	 DWORD PTR $T602741[ebp]
  00006	e8 00 00 00 00	 call	 ??3@YAXPAX0@Z		; operator delete
  0000b	59		 pop	 ecx
  0000c	59		 pop	 ecx
  0000d	c3		 ret	 0
__ehhandler$??$_Cons_val@V?$allocator@UAttackAttribute@@@std@@UAttackAttribute@@AAU3@@std@@YAXAAV?$allocator@UAttackAttribute@@@0@PAUAttackAttribute@@AAU2@@Z:
  0000e	8b 54 24 08	 mov	 edx, DWORD PTR [esp+8]
  00012	8d 42 0c	 lea	 eax, DWORD PTR [edx+12]
  00015	8b 4a ec	 mov	 ecx, DWORD PTR [edx-20]
  00018	33 c8		 xor	 ecx, eax
  0001a	e8 00 00 00 00	 call	 @__security_check_cookie@4
  0001f	b8 00 00 00 00	 mov	 eax, OFFSET __ehfuncinfo$??$_Cons_val@V?$allocator@UAttackAttribute@@@std@@UAttackAttribute@@AAU3@@std@@YAXAAV?$allocator@UAttackAttribute@@@0@PAUAttackAttribute@@AAU2@@Z
  00024	e9 00 00 00 00	 jmp	 ___CxxFrameHandler3
text$x	ENDS
??$_Cons_val@V?$allocator@UAttackAttribute@@@std@@UAttackAttribute@@AAU3@@std@@YAXAAV?$allocator@UAttackAttribute@@@0@PAUAttackAttribute@@AAU2@@Z ENDP ; std::_Cons_val<std::allocator<AttackAttribute>,AttackAttribute,AttackAttribute &>
PUBLIC	?construct@?$allocator@UAttackAttribute@@@std@@QAEXPAUAttackAttribute@@ABU3@@Z ; std::allocator<AttackAttribute>::construct
; Function compile flags: /Ogsp
;	COMDAT ?construct@?$allocator@UAttackAttribute@@@std@@QAEXPAUAttackAttribute@@ABU3@@Z
_TEXT	SEGMENT
__Ptr$ = 8						; size = 4
__Val$ = 12						; size = 4
?construct@?$allocator@UAttackAttribute@@@std@@QAEXPAUAttackAttribute@@ABU3@@Z PROC ; std::allocator<AttackAttribute>::construct, COMDAT
; _this$ = ecx

; 196  : 		{	// construct object at _Ptr with value _Val

  00000	55		 push	 ebp
  00001	8b ec		 mov	 ebp, esp

; 197  : 		_Construct(_Ptr, _Val);

  00003	ff 75 0c	 push	 DWORD PTR __Val$[ebp]
  00006	ff 75 08	 push	 DWORD PTR __Ptr$[ebp]
  00009	e8 00 00 00 00	 call	 ??$_Construct@UAttackAttribute@@ABU1@@std@@YAXPAUAttackAttribute@@ABU1@@Z ; std::_Construct<AttackAttribute,AttackAttribute const &>
  0000e	59		 pop	 ecx
  0000f	59		 pop	 ecx

; 198  : 		}

  00010	5d		 pop	 ebp
  00011	c2 08 00	 ret	 8
?construct@?$allocator@UAttackAttribute@@@std@@QAEXPAUAttackAttribute@@ABU3@@Z ENDP ; std::allocator<AttackAttribute>::construct
_TEXT	ENDS
PUBLIC	??$_Cons_val@V?$allocator@UAttackAttribute@@@std@@UAttackAttribute@@U3@@std@@YAXAAV?$allocator@UAttackAttribute@@@0@PAUAttackAttribute@@$$QAU2@@Z ; std::_Cons_val<std::allocator<AttackAttribute>,AttackAttribute,AttackAttribute>
;	COMDAT xdata$x
; File c:\program files (x86)\microsoft visual studio 10.0\vc\include\utility
xdata$x	SEGMENT
__unwindtable$??$_Cons_val@V?$allocator@UAttackAttribute@@@std@@UAttackAttribute@@U3@@std@@YAXAAV?$allocator@UAttackAttribute@@@0@PAUAttackAttribute@@$$QAU2@@Z DD 0ffffffffH
	DD	FLAT:__unwindfunclet$??$_Cons_val@V?$allocator@UAttackAttribute@@@std@@UAttackAttribute@@U3@@std@@YAXAAV?$allocator@UAttackAttribute@@@0@PAUAttackAttribute@@$$QAU2@@Z$0
__ehfuncinfo$??$_Cons_val@V?$allocator@UAttackAttribute@@@std@@UAttackAttribute@@U3@@std@@YAXAAV?$allocator@UAttackAttribute@@@0@PAUAttackAttribute@@$$QAU2@@Z DD 019930522H
	DD	01H
	DD	FLAT:__unwindtable$??$_Cons_val@V?$allocator@UAttackAttribute@@@std@@UAttackAttribute@@U3@@std@@YAXAAV?$allocator@UAttackAttribute@@@0@PAUAttackAttribute@@$$QAU2@@Z
	DD	2 DUP(00H)
	DD	2 DUP(00H)
	DD	00H
	DD	01H
; Function compile flags: /Ogsp
; File c:\program files (x86)\microsoft visual studio 10.0\vc\include\xmemory
xdata$x	ENDS
;	COMDAT ??$_Cons_val@V?$allocator@UAttackAttribute@@@std@@UAttackAttribute@@U3@@std@@YAXAAV?$allocator@UAttackAttribute@@@0@PAUAttackAttribute@@$$QAU2@@Z
_TEXT	SEGMENT
$T602775 = -16						; size = 4
__$EHRec$ = -12						; size = 12
__Alval$ = 8						; size = 4
__Pdest$ = 12						; size = 4
__Src$ = 16						; size = 4
??$_Cons_val@V?$allocator@UAttackAttribute@@@std@@UAttackAttribute@@U3@@std@@YAXAAV?$allocator@UAttackAttribute@@@0@PAUAttackAttribute@@$$QAU2@@Z PROC ; std::_Cons_val<std::allocator<AttackAttribute>,AttackAttribute,AttackAttribute>, COMDAT

; 279  : 	{	// construct using allocator

  00000	6a 04		 push	 4
  00002	b8 00 00 00 00	 mov	 eax, __ehhandler$??$_Cons_val@V?$allocator@UAttackAttribute@@@std@@UAttackAttribute@@U3@@std@@YAXAAV?$allocator@UAttackAttribute@@@0@PAUAttackAttribute@@$$QAU2@@Z
  00007	e8 00 00 00 00	 call	 __EH_prolog3

; 280  : 	_Alval.construct(_Pdest, _STD forward<_Ty2>(_Src));

  0000c	8b 4d 0c	 mov	 ecx, DWORD PTR __Pdest$[ebp]
  0000f	89 4d f0	 mov	 DWORD PTR $T602775[ebp], ecx
  00012	83 65 fc 00	 and	 DWORD PTR __$EHRec$[ebp+8], 0
  00016	85 c9		 test	 ecx, ecx
  00018	74 08		 je	 SHORT $LN7@Cons_val@5
  0001a	ff 75 10	 push	 DWORD PTR __Src$[ebp]
  0001d	e8 00 00 00 00	 call	 ??0AttackAttribute@@QAE@ABU0@@Z
$LN7@Cons_val@5:

; 281  : 	}

  00022	e8 00 00 00 00	 call	 __EH_epilog3
  00027	c3		 ret	 0
_TEXT	ENDS
;	COMDAT text$x
text$x	SEGMENT
__unwindfunclet$??$_Cons_val@V?$allocator@UAttackAttribute@@@std@@UAttackAttribute@@U3@@std@@YAXAAV?$allocator@UAttackAttribute@@@0@PAUAttackAttribute@@$$QAU2@@Z$0:
  00000	ff 75 0c	 push	 DWORD PTR __Pdest$[ebp]
  00003	ff 75 f0	 push	 DWORD PTR $T602775[ebp]
  00006	e8 00 00 00 00	 call	 ??3@YAXPAX0@Z		; operator delete
  0000b	59		 pop	 ecx
  0000c	59		 pop	 ecx
  0000d	c3		 ret	 0
__ehhandler$??$_Cons_val@V?$allocator@UAttackAttribute@@@std@@UAttackAttribute@@U3@@std@@YAXAAV?$allocator@UAttackAttribute@@@0@PAUAttackAttribute@@$$QAU2@@Z:
  0000e	8b 54 24 08	 mov	 edx, DWORD PTR [esp+8]
  00012	8d 42 0c	 lea	 eax, DWORD PTR [edx+12]
  00015	8b 4a ec	 mov	 ecx, DWORD PTR [edx-20]
  00018	33 c8		 xor	 ecx, eax
  0001a	e8 00 00 00 00	 call	 @__security_check_cookie@4
  0001f	b8 00 00 00 00	 mov	 eax, OFFSET __ehfuncinfo$??$_Cons_val@V?$allocator@UAttackAttribute@@@std@@UAttackAttribute@@U3@@std@@YAXAAV?$allocator@UAttackAttribute@@@0@PAUAttackAttribute@@$$QAU2@@Z
  00024	e9 00 00 00 00	 jmp	 ___CxxFrameHandler3
text$x	ENDS
??$_Cons_val@V?$allocator@UAttackAttribute@@@std@@UAttackAttribute@@U3@@std@@YAXAAV?$allocator@UAttackAttribute@@@0@PAUAttackAttribute@@$$QAU2@@Z ENDP ; std::_Cons_val<std::allocator<AttackAttribute>,AttackAttribute,AttackAttribute>
PUBLIC	??$_Move@PAUAttackAttribute@@PAU1@@std@@YAPAUAttackAttribute@@PAU1@00U_Nonscalar_ptr_iterator_tag@0@@Z ; std::_Move<AttackAttribute *,AttackAttribute *>
; Function compile flags: /Ogsp
; File c:\program files (x86)\microsoft visual studio 10.0\vc\include\xutility
;	COMDAT ??$_Move@PAUAttackAttribute@@PAU1@@std@@YAPAUAttackAttribute@@PAU1@00U_Nonscalar_ptr_iterator_tag@0@@Z
_TEXT	SEGMENT
__First$ = 8						; size = 4
__Last$ = 12						; size = 4
__Dest$ = 16						; size = 4
___formal$ = 20						; size = 1
??$_Move@PAUAttackAttribute@@PAU1@@std@@YAPAUAttackAttribute@@PAU1@00U_Nonscalar_ptr_iterator_tag@0@@Z PROC ; std::_Move<AttackAttribute *,AttackAttribute *>, COMDAT

; 2512 : 	{	// move [_First, _Last) to [_Dest, ...), arbitrary iterators

  00000	55		 push	 ebp
  00001	8b ec		 mov	 ebp, esp
  00003	56		 push	 esi

; 2513 : 	for (; _First != _Last; ++_Dest, ++_First)

  00004	8b 75 08	 mov	 esi, DWORD PTR __First$[ebp]
  00007	eb 10		 jmp	 SHORT $LN11@Move@4
$LL3@Move@4:

; 2514 : 		*_Dest = _STD move(*_First);

  00009	8b 4d 10	 mov	 ecx, DWORD PTR __Dest$[ebp]
  0000c	56		 push	 esi
  0000d	e8 00 00 00 00	 call	 ??4AttackAttribute@@QAEAAU0@ABU0@@Z
  00012	83 45 10 50	 add	 DWORD PTR __Dest$[ebp], 80 ; 00000050H
  00016	83 c6 50	 add	 esi, 80			; 00000050H
$LN11@Move@4:

; 2513 : 	for (; _First != _Last; ++_Dest, ++_First)

  00019	3b 75 0c	 cmp	 esi, DWORD PTR __Last$[ebp]
  0001c	75 eb		 jne	 SHORT $LL3@Move@4

; 2515 : 	return (_Dest);

  0001e	8b 45 10	 mov	 eax, DWORD PTR __Dest$[ebp]
  00021	5e		 pop	 esi

; 2516 : 	}

  00022	5d		 pop	 ebp
  00023	c3		 ret	 0
??$_Move@PAUAttackAttribute@@PAU1@@std@@YAPAUAttackAttribute@@PAU1@00U_Nonscalar_ptr_iterator_tag@0@@Z ENDP ; std::_Move<AttackAttribute *,AttackAttribute *>
_TEXT	ENDS
PUBLIC	??$_Destroy@UAttackAttribute@@@std@@YAXPAUAttackAttribute@@@Z ; std::_Destroy<AttackAttribute>
; Function compile flags: /Ogsp
; File c:\program files (x86)\microsoft visual studio 10.0\vc\include\xmemory
;	COMDAT ??$_Destroy@UAttackAttribute@@@std@@YAXPAUAttackAttribute@@@Z
_TEXT	SEGMENT
__Ptr$ = 8						; size = 4
??$_Destroy@UAttackAttribute@@@std@@YAXPAUAttackAttribute@@@Z PROC ; std::_Destroy<AttackAttribute>, COMDAT

; 62   : 	{	// destroy object at _Ptr

  00000	55		 push	 ebp
  00001	8b ec		 mov	 ebp, esp

; 63   : 	_Ptr->~_Ty();

  00003	8b 4d 08	 mov	 ecx, DWORD PTR __Ptr$[ebp]

; 64   : 	}

  00006	5d		 pop	 ebp

; 63   : 	_Ptr->~_Ty();

  00007	e9 00 00 00 00	 jmp	 ??1AttackAttribute@@QAE@XZ
??$_Destroy@UAttackAttribute@@@std@@YAXPAUAttackAttribute@@@Z ENDP ; std::_Destroy<AttackAttribute>
_TEXT	ENDS
PUBLIC	??$_Cons_val@V?$allocator@UAttackAttribute@@@std@@UAttackAttribute@@ABU3@@std@@YAXAAV?$allocator@UAttackAttribute@@@0@PAUAttackAttribute@@ABU2@@Z ; std::_Cons_val<std::allocator<AttackAttribute>,AttackAttribute,AttackAttribute const &>
; Function compile flags: /Ogsp
;	COMDAT ??$_Cons_val@V?$allocator@UAttackAttribute@@@std@@UAttackAttribute@@ABU3@@std@@YAXAAV?$allocator@UAttackAttribute@@@0@PAUAttackAttribute@@ABU2@@Z
_TEXT	SEGMENT
__Alval$ = 8						; size = 4
__Pdest$ = 12						; size = 4
__Src$ = 16						; size = 4
??$_Cons_val@V?$allocator@UAttackAttribute@@@std@@UAttackAttribute@@ABU3@@std@@YAXAAV?$allocator@UAttackAttribute@@@0@PAUAttackAttribute@@ABU2@@Z PROC ; std::_Cons_val<std::allocator<AttackAttribute>,AttackAttribute,AttackAttribute const &>, COMDAT

; 279  : 	{	// construct using allocator

  00000	55		 push	 ebp
  00001	8b ec		 mov	 ebp, esp

; 280  : 	_Alval.construct(_Pdest, _STD forward<_Ty2>(_Src));

  00003	ff 75 10	 push	 DWORD PTR __Src$[ebp]
  00006	ff 75 0c	 push	 DWORD PTR __Pdest$[ebp]
  00009	e8 00 00 00 00	 call	 ??$_Construct@UAttackAttribute@@ABU1@@std@@YAXPAUAttackAttribute@@ABU1@@Z ; std::_Construct<AttackAttribute,AttackAttribute const &>
  0000e	59		 pop	 ecx
  0000f	59		 pop	 ecx

; 281  : 	}

  00010	5d		 pop	 ebp
  00011	c3		 ret	 0
??$_Cons_val@V?$allocator@UAttackAttribute@@@std@@UAttackAttribute@@ABU3@@std@@YAXAAV?$allocator@UAttackAttribute@@@0@PAUAttackAttribute@@ABU2@@Z ENDP ; std::_Cons_val<std::allocator<AttackAttribute>,AttackAttribute,AttackAttribute const &>
_TEXT	ENDS
PUBLIC	??$_Move@PAUAttackAttribute@@PAU1@@std@@YAPAUAttackAttribute@@PAU1@00@Z ; std::_Move<AttackAttribute *,AttackAttribute *>
; Function compile flags: /Ogsp
; File c:\program files (x86)\microsoft visual studio 10.0\vc\include\xutility
;	COMDAT ??$_Move@PAUAttackAttribute@@PAU1@@std@@YAPAUAttackAttribute@@PAU1@00@Z
_TEXT	SEGMENT
__Cat$602819 = -4					; size = 1
__First$ = 8						; size = 4
__Last$ = 12						; size = 4
__Dest$ = 16						; size = 4
??$_Move@PAUAttackAttribute@@PAU1@@std@@YAPAUAttackAttribute@@PAU1@00@Z PROC ; std::_Move<AttackAttribute *,AttackAttribute *>, COMDAT

; 2533 : 	{	// move [_First, _Last) to [_Dest, ...), unchecked

  00000	55		 push	 ebp
  00001	8b ec		 mov	 ebp, esp
  00003	51		 push	 ecx

; 2534 : 	return (_Move(_First, _Last,
; 2535 : 		_Dest, _Ptr_cat(_First, _Dest)));

  00004	ff 75 fc	 push	 DWORD PTR __Cat$602819[ebp]
  00007	ff 75 10	 push	 DWORD PTR __Dest$[ebp]
  0000a	ff 75 0c	 push	 DWORD PTR __Last$[ebp]
  0000d	ff 75 08	 push	 DWORD PTR __First$[ebp]
  00010	e8 00 00 00 00	 call	 ??$_Move@PAUAttackAttribute@@PAU1@@std@@YAPAUAttackAttribute@@PAU1@00U_Nonscalar_ptr_iterator_tag@0@@Z ; std::_Move<AttackAttribute *,AttackAttribute *>
  00015	83 c4 10	 add	 esp, 16			; 00000010H

; 2536 : 	}

  00018	c9		 leave
  00019	c3		 ret	 0
??$_Move@PAUAttackAttribute@@PAU1@@std@@YAPAUAttackAttribute@@PAU1@00@Z ENDP ; std::_Move<AttackAttribute *,AttackAttribute *>
_TEXT	ENDS
PUBLIC	?destroy@?$allocator@UAttackAttribute@@@std@@QAEXPAUAttackAttribute@@@Z ; std::allocator<AttackAttribute>::destroy
; Function compile flags: /Ogsp
; File c:\program files (x86)\microsoft visual studio 10.0\vc\include\xmemory
;	COMDAT ?destroy@?$allocator@UAttackAttribute@@@std@@QAEXPAUAttackAttribute@@@Z
_TEXT	SEGMENT
__Ptr$ = 8						; size = 4
?destroy@?$allocator@UAttackAttribute@@@std@@QAEXPAUAttackAttribute@@@Z PROC ; std::allocator<AttackAttribute>::destroy, COMDAT
; _this$ = ecx

; 212  : 		{	// destroy object at _Ptr

  00000	55		 push	 ebp
  00001	8b ec		 mov	 ebp, esp

; 213  : 		_Destroy(_Ptr);

  00003	8b 4d 08	 mov	 ecx, DWORD PTR __Ptr$[ebp]
  00006	e8 00 00 00 00	 call	 ??1AttackAttribute@@QAE@XZ

; 214  : 		}

  0000b	5d		 pop	 ebp
  0000c	c2 04 00	 ret	 4
?destroy@?$allocator@UAttackAttribute@@@std@@QAEXPAUAttackAttribute@@@Z ENDP ; std::allocator<AttackAttribute>::destroy
_TEXT	ENDS
PUBLIC	??$_Dest_val@V?$allocator@UAttackAttribute@@@std@@UAttackAttribute@@@std@@YAXAAV?$allocator@UAttackAttribute@@@0@PAUAttackAttribute@@@Z ; std::_Dest_val<std::allocator<AttackAttribute>,AttackAttribute>
; Function compile flags: /Ogsp
;	COMDAT ??$_Dest_val@V?$allocator@UAttackAttribute@@@std@@UAttackAttribute@@@std@@YAXAAV?$allocator@UAttackAttribute@@@0@PAUAttackAttribute@@@Z
_TEXT	SEGMENT
__Alval$ = 8						; size = 4
__Pdest$ = 12						; size = 4
??$_Dest_val@V?$allocator@UAttackAttribute@@@std@@UAttackAttribute@@@std@@YAXAAV?$allocator@UAttackAttribute@@@0@PAUAttackAttribute@@@Z PROC ; std::_Dest_val<std::allocator<AttackAttribute>,AttackAttribute>, COMDAT

; 286  : 	{	// destroy using allocator

  00000	55		 push	 ebp
  00001	8b ec		 mov	 ebp, esp

; 287  : 	_Alval.destroy(_Pdest);

  00003	8b 4d 0c	 mov	 ecx, DWORD PTR __Pdest$[ebp]

; 288  : 	}

  00006	5d		 pop	 ebp

; 287  : 	_Alval.destroy(_Pdest);

  00007	e9 00 00 00 00	 jmp	 ??1AttackAttribute@@QAE@XZ
??$_Dest_val@V?$allocator@UAttackAttribute@@@std@@UAttackAttribute@@@std@@YAXAAV?$allocator@UAttackAttribute@@@0@PAUAttackAttribute@@@Z ENDP ; std::_Dest_val<std::allocator<AttackAttribute>,AttackAttribute>
_TEXT	ENDS
PUBLIC	??$_Uninit_copy@V?$_Vector_const_iterator@V?$_Vector_val@UAttackAttribute@@V?$allocator@UAttackAttribute@@@std@@@std@@@std@@PAUAttackAttribute@@V?$allocator@UAttackAttribute@@@2@@std@@YAPAUAttackAttribute@@V?$_Vector_const_iterator@V?$_Vector_val@UAttackAttribute@@V?$allocator@UAttackAttribute@@@std@@@std@@@0@0PAU1@AAV?$allocator@UAttackAttribute@@@0@U_Nonscalar_ptr_iterator_tag@0@@Z ; std::_Uninit_copy<std::_Vector_const_iterator<std::_Vector_val<AttackAttribute,std::allocator<AttackAttribute> > >,AttackAttribute *,std::allocator<AttackAttribute> >
;	COMDAT xdata$x
; File c:\program files (x86)\microsoft visual studio 10.0\vc\include\vector
xdata$x	SEGMENT
__catchsym$??$_Uninit_copy@V?$_Vector_const_iterator@V?$_Vector_val@UAttackAttribute@@V?$allocator@UAttackAttribute@@@std@@@std@@@std@@PAUAttackAttribute@@V?$allocator@UAttackAttribute@@@2@@std@@YAPAUAttackAttribute@@V?$_Vector_const_iterator@V?$_Vector_val@UAttackAttribute@@V?$allocator@UAttackAttribute@@@std@@@std@@@0@0PAU1@AAV?$allocator@UAttackAttribute@@@0@U_Nonscalar_ptr_iterator_tag@0@@Z$2 DD 040H
	DD	00H
	DD	00H
	DD	FLAT:__catch$??$_Uninit_copy@V?$_Vector_const_iterator@V?$_Vector_val@UAttackAttribute@@V?$allocator@UAttackAttribute@@@std@@@std@@@std@@PAUAttackAttribute@@V?$allocator@UAttackAttribute@@@2@@std@@YAPAUAttackAttribute@@V?$_Vector_const_iterator@V?$_Vector_val@UAttackAttribute@@V?$allocator@UAttackAttribute@@@std@@@std@@@0@0PAU1@AAV?$allocator@UAttackAttribute@@@0@U_Nonscalar_ptr_iterator_tag@0@@Z$0
__unwindtable$??$_Uninit_copy@V?$_Vector_const_iterator@V?$_Vector_val@UAttackAttribute@@V?$allocator@UAttackAttribute@@@std@@@std@@@std@@PAUAttackAttribute@@V?$allocator@UAttackAttribute@@@2@@std@@YAPAUAttackAttribute@@V?$_Vector_const_iterator@V?$_Vector_val@UAttackAttribute@@V?$allocator@UAttackAttribute@@@std@@@std@@@0@0PAU1@AAV?$allocator@UAttackAttribute@@@0@U_Nonscalar_ptr_iterator_tag@0@@Z DD 0ffffffffH
	DD	00H
	DD	0ffffffffH
	DD	00H
__tryblocktable$??$_Uninit_copy@V?$_Vector_const_iterator@V?$_Vector_val@UAttackAttribute@@V?$allocator@UAttackAttribute@@@std@@@std@@@std@@PAUAttackAttribute@@V?$allocator@UAttackAttribute@@@2@@std@@YAPAUAttackAttribute@@V?$_Vector_const_iterator@V?$_Vector_val@UAttackAttribute@@V?$allocator@UAttackAttribute@@@std@@@std@@@0@0PAU1@AAV?$allocator@UAttackAttribute@@@0@U_Nonscalar_ptr_iterator_tag@0@@Z DD 00H
	DD	00H
	DD	01H
	DD	01H
	DD	FLAT:__catchsym$??$_Uninit_copy@V?$_Vector_const_iterator@V?$_Vector_val@UAttackAttribute@@V?$allocator@UAttackAttribute@@@std@@@std@@@std@@PAUAttackAttribute@@V?$allocator@UAttackAttribute@@@2@@std@@YAPAUAttackAttribute@@V?$_Vector_const_iterator@V?$_Vector_val@UAttackAttribute@@V?$allocator@UAttackAttribute@@@std@@@std@@@0@0PAU1@AAV?$allocator@UAttackAttribute@@@0@U_Nonscalar_ptr_iterator_tag@0@@Z$2
__ehfuncinfo$??$_Uninit_copy@V?$_Vector_const_iterator@V?$_Vector_val@UAttackAttribute@@V?$allocator@UAttackAttribute@@@std@@@std@@@std@@PAUAttackAttribute@@V?$allocator@UAttackAttribute@@@2@@std@@YAPAUAttackAttribute@@V?$_Vector_const_iterator@V?$_Vector_val@UAttackAttribute@@V?$allocator@UAttackAttribute@@@std@@@std@@@0@0PAU1@AAV?$allocator@UAttackAttribute@@@0@U_Nonscalar_ptr_iterator_tag@0@@Z DD 019930522H
	DD	02H
	DD	FLAT:__unwindtable$??$_Uninit_copy@V?$_Vector_const_iterator@V?$_Vector_val@UAttackAttribute@@V?$allocator@UAttackAttribute@@@std@@@std@@@std@@PAUAttackAttribute@@V?$allocator@UAttackAttribute@@@2@@std@@YAPAUAttackAttribute@@V?$_Vector_const_iterator@V?$_Vector_val@UAttackAttribute@@V?$allocator@UAttackAttribute@@@std@@@std@@@0@0PAU1@AAV?$allocator@UAttackAttribute@@@0@U_Nonscalar_ptr_iterator_tag@0@@Z
	DD	01H
	DD	FLAT:__tryblocktable$??$_Uninit_copy@V?$_Vector_const_iterator@V?$_Vector_val@UAttackAttribute@@V?$allocator@UAttackAttribute@@@std@@@std@@@std@@PAUAttackAttribute@@V?$allocator@UAttackAttribute@@@2@@std@@YAPAUAttackAttribute@@V?$_Vector_const_iterator@V?$_Vector_val@UAttackAttribute@@V?$allocator@UAttackAttribute@@@std@@@std@@@0@0PAU1@AAV?$allocator@UAttackAttribute@@@0@U_Nonscalar_ptr_iterator_tag@0@@Z
	DD	2 DUP(00H)
	DD	00H
	DD	01H
; Function compile flags: /Ogsp
; File c:\program files (x86)\microsoft visual studio 10.0\vc\include\memory
xdata$x	ENDS
;	COMDAT ??$_Uninit_copy@V?$_Vector_const_iterator@V?$_Vector_val@UAttackAttribute@@V?$allocator@UAttackAttribute@@@std@@@std@@@std@@PAUAttackAttribute@@V?$allocator@UAttackAttribute@@@2@@std@@YAPAUAttackAttribute@@V?$_Vector_const_iterator@V?$_Vector_val@UAttackAttribute@@V?$allocator@UAttackAttribute@@@std@@@std@@@0@0PAU1@AAV?$allocator@UAttackAttribute@@@0@U_Nonscalar_ptr_iterator_tag@0@@Z
_TEXT	SEGMENT
__Next$ = -20						; size = 4
__$EHRec$ = -16						; size = 16
__First$ = 8						; size = 4
__Last$ = 12						; size = 4
__Dest$ = 16						; size = 4
__Al$ = 20						; size = 4
___formal$ = 24						; size = 1
??$_Uninit_copy@V?$_Vector_const_iterator@V?$_Vector_val@UAttackAttribute@@V?$allocator@UAttackAttribute@@@std@@@std@@@std@@PAUAttackAttribute@@V?$allocator@UAttackAttribute@@@2@@std@@YAPAUAttackAttribute@@V?$_Vector_const_iterator@V?$_Vector_val@UAttackAttribute@@V?$allocator@UAttackAttribute@@@std@@@std@@@0@0PAU1@AAV?$allocator@UAttackAttribute@@@0@U_Nonscalar_ptr_iterator_tag@0@@Z PROC ; std::_Uninit_copy<std::_Vector_const_iterator<std::_Vector_val<AttackAttribute,std::allocator<AttackAttribute> > >,AttackAttribute *,std::allocator<AttackAttribute> >, COMDAT

; 369  : 	{	// copy [_First, _Last) to raw _Dest, using _Al, arbitrary type

  00000	6a 08		 push	 8
  00002	b8 00 00 00 00	 mov	 eax, __ehhandler$??$_Uninit_copy@V?$_Vector_const_iterator@V?$_Vector_val@UAttackAttribute@@V?$allocator@UAttackAttribute@@@std@@@std@@@std@@PAUAttackAttribute@@V?$allocator@UAttackAttribute@@@2@@std@@YAPAUAttackAttribute@@V?$_Vector_const_iterator@V?$_Vector_val@UAttackAttribute@@V?$allocator@UAttackAttribute@@@std@@@std@@@0@0PAU1@AAV?$allocator@UAttackAttribute@@@0@U_Nonscalar_ptr_iterator_tag@0@@Z
  00007	e8 00 00 00 00	 call	 __EH_prolog3_catch

; 370  : 	_DEBUG_RANGE(_First, _Last);
; 371  : 	_DEBUG_POINTER(_Dest);
; 372  : 	_FwdIt _Next = _Dest;

  0000c	8b 45 10	 mov	 eax, DWORD PTR __Dest$[ebp]

; 373  : 
; 374  : 	_TRY_BEGIN

  0000f	83 65 fc 00	 and	 DWORD PTR __$EHRec$[ebp+12], 0
  00013	89 45 ec	 mov	 DWORD PTR __Next$[ebp], eax

; 375  : 	for (; _First != _Last; ++_Dest, ++_First)

$LL14@Uninit_cop@6:
  00016	8b 45 08	 mov	 eax, DWORD PTR __First$[ebp]
  00019	3b 45 0c	 cmp	 eax, DWORD PTR __Last$[ebp]
  0001c	74 32		 je	 SHORT $LN4@Uninit_cop@6

; 376  : 		_Cons_val(_Al, _Dest, *_First);

  0001e	50		 push	 eax
  0001f	ff 75 10	 push	 DWORD PTR __Dest$[ebp]
  00022	e8 00 00 00 00	 call	 ??$_Construct@UAttackAttribute@@ABU1@@std@@YAXPAUAttackAttribute@@ABU1@@Z ; std::_Construct<AttackAttribute,AttackAttribute const &>
  00027	83 45 10 50	 add	 DWORD PTR __Dest$[ebp], 80 ; 00000050H
  0002b	83 45 08 50	 add	 DWORD PTR __First$[ebp], 80 ; 00000050H
  0002f	59		 pop	 ecx
  00030	59		 pop	 ecx
  00031	eb e3		 jmp	 SHORT $LL14@Uninit_cop@6
__catch$??$_Uninit_copy@V?$_Vector_const_iterator@V?$_Vector_val@UAttackAttribute@@V?$allocator@UAttackAttribute@@@std@@@std@@@std@@PAUAttackAttribute@@V?$allocator@UAttackAttribute@@@2@@std@@YAPAUAttackAttribute@@V?$_Vector_const_iterator@V?$_Vector_val@UAttackAttribute@@V?$allocator@UAttackAttribute@@@std@@@std@@@0@0PAU1@AAV?$allocator@UAttackAttribute@@@0@U_Nonscalar_ptr_iterator_tag@0@@Z$0:

; 377  : 	_CATCH_ALL
; 378  : 	for (; _Next != _Dest; ++_Next)

  00033	8b 75 ec	 mov	 esi, DWORD PTR __Next$[ebp]
  00036	eb 0a		 jmp	 SHORT $LN45@Uninit_cop@6
$LL3@Uninit_cop@6:

; 379  : 		_Dest_val(_Al, _Next);

  00038	8b ce		 mov	 ecx, esi
  0003a	e8 00 00 00 00	 call	 ??1AttackAttribute@@QAE@XZ
  0003f	83 c6 50	 add	 esi, 80			; 00000050H
$LN45@Uninit_cop@6:

; 377  : 	_CATCH_ALL
; 378  : 	for (; _Next != _Dest; ++_Next)

  00042	3b 75 10	 cmp	 esi, DWORD PTR __Dest$[ebp]
  00045	75 f1		 jne	 SHORT $LL3@Uninit_cop@6

; 380  : 	_RERAISE;

  00047	6a 00		 push	 0
  00049	6a 00		 push	 0
  0004b	e8 00 00 00 00	 call	 __CxxThrowException@8
$LN46@Uninit_cop@6:
$LN4@Uninit_cop@6:

; 381  : 	_CATCH_END
; 382  : 	return (_Dest);

  00050	8b 45 10	 mov	 eax, DWORD PTR __Dest$[ebp]

; 383  : 	}

  00053	e8 00 00 00 00	 call	 __EH_epilog3
  00058	c3		 ret	 0
$LN44@Uninit_cop@6:
_TEXT	ENDS
;	COMDAT text$x
text$x	SEGMENT
__ehhandler$??$_Uninit_copy@V?$_Vector_const_iterator@V?$_Vector_val@UAttackAttribute@@V?$allocator@UAttackAttribute@@@std@@@std@@@std@@PAUAttackAttribute@@V?$allocator@UAttackAttribute@@@2@@std@@YAPAUAttackAttribute@@V?$_Vector_const_iterator@V?$_Vector_val@UAttackAttribute@@V?$allocator@UAttackAttribute@@@std@@@std@@@0@0PAU1@AAV?$allocator@UAttackAttribute@@@0@U_Nonscalar_ptr_iterator_tag@0@@Z:
  00000	8b 54 24 08	 mov	 edx, DWORD PTR [esp+8]
  00004	8d 42 0c	 lea	 eax, DWORD PTR [edx+12]
  00007	8b 4a e8	 mov	 ecx, DWORD PTR [edx-24]
  0000a	33 c8		 xor	 ecx, eax
  0000c	e8 00 00 00 00	 call	 @__security_check_cookie@4
  00011	b8 00 00 00 00	 mov	 eax, OFFSET __ehfuncinfo$??$_Uninit_copy@V?$_Vector_const_iterator@V?$_Vector_val@UAttackAttribute@@V?$allocator@UAttackAttribute@@@std@@@std@@@std@@PAUAttackAttribute@@V?$allocator@UAttackAttribute@@@2@@std@@YAPAUAttackAttribute@@V?$_Vector_const_iterator@V?$_Vector_val@UAttackAttribute@@V?$allocator@UAttackAttribute@@@std@@@std@@@0@0PAU1@AAV?$allocator@UAttackAttribute@@@0@U_Nonscalar_ptr_iterator_tag@0@@Z
  00016	e9 00 00 00 00	 jmp	 ___CxxFrameHandler3
text$x	ENDS
??$_Uninit_copy@V?$_Vector_const_iterator@V?$_Vector_val@UAttackAttribute@@V?$allocator@UAttackAttribute@@@std@@@std@@@std@@PAUAttackAttribute@@V?$allocator@UAttackAttribute@@@2@@std@@YAPAUAttackAttribute@@V?$_Vector_const_iterator@V?$_Vector_val@UAttackAttribute@@V?$allocator@UAttackAttribute@@@std@@@std@@@0@0PAU1@AAV?$allocator@UAttackAttribute@@@0@U_Nonscalar_ptr_iterator_tag@0@@Z ENDP ; std::_Uninit_copy<std::_Vector_const_iterator<std::_Vector_val<AttackAttribute,std::allocator<AttackAttribute> > >,AttackAttribute *,std::allocator<AttackAttribute> >
PUBLIC	??$_Uninit_move@PAUAttackAttribute@@PAU1@V?$allocator@UAttackAttribute@@@std@@U1@@std@@YAPAUAttackAttribute@@PAU1@00AAV?$allocator@UAttackAttribute@@@0@0U_Nonscalar_ptr_iterator_tag@0@@Z ; std::_Uninit_move<AttackAttribute *,AttackAttribute *,std::allocator<AttackAttribute>,AttackAttribute>
;	COMDAT xdata$x
; File c:\program files (x86)\microsoft visual studio 10.0\vc\include\vector
xdata$x	SEGMENT
__catchsym$??$_Uninit_move@PAUAttackAttribute@@PAU1@V?$allocator@UAttackAttribute@@@std@@U1@@std@@YAPAUAttackAttribute@@PAU1@00AAV?$allocator@UAttackAttribute@@@0@0U_Nonscalar_ptr_iterator_tag@0@@Z$2 DD 040H
	DD	00H
	DD	00H
	DD	FLAT:__catch$??$_Uninit_move@PAUAttackAttribute@@PAU1@V?$allocator@UAttackAttribute@@@std@@U1@@std@@YAPAUAttackAttribute@@PAU1@00AAV?$allocator@UAttackAttribute@@@0@0U_Nonscalar_ptr_iterator_tag@0@@Z$0
__unwindtable$??$_Uninit_move@PAUAttackAttribute@@PAU1@V?$allocator@UAttackAttribute@@@std@@U1@@std@@YAPAUAttackAttribute@@PAU1@00AAV?$allocator@UAttackAttribute@@@0@0U_Nonscalar_ptr_iterator_tag@0@@Z DD 0ffffffffH
	DD	00H
	DD	0ffffffffH
	DD	00H
__tryblocktable$??$_Uninit_move@PAUAttackAttribute@@PAU1@V?$allocator@UAttackAttribute@@@std@@U1@@std@@YAPAUAttackAttribute@@PAU1@00AAV?$allocator@UAttackAttribute@@@0@0U_Nonscalar_ptr_iterator_tag@0@@Z DD 00H
	DD	00H
	DD	01H
	DD	01H
	DD	FLAT:__catchsym$??$_Uninit_move@PAUAttackAttribute@@PAU1@V?$allocator@UAttackAttribute@@@std@@U1@@std@@YAPAUAttackAttribute@@PAU1@00AAV?$allocator@UAttackAttribute@@@0@0U_Nonscalar_ptr_iterator_tag@0@@Z$2
__ehfuncinfo$??$_Uninit_move@PAUAttackAttribute@@PAU1@V?$allocator@UAttackAttribute@@@std@@U1@@std@@YAPAUAttackAttribute@@PAU1@00AAV?$allocator@UAttackAttribute@@@0@0U_Nonscalar_ptr_iterator_tag@0@@Z DD 019930522H
	DD	02H
	DD	FLAT:__unwindtable$??$_Uninit_move@PAUAttackAttribute@@PAU1@V?$allocator@UAttackAttribute@@@std@@U1@@std@@YAPAUAttackAttribute@@PAU1@00AAV?$allocator@UAttackAttribute@@@0@0U_Nonscalar_ptr_iterator_tag@0@@Z
	DD	01H
	DD	FLAT:__tryblocktable$??$_Uninit_move@PAUAttackAttribute@@PAU1@V?$allocator@UAttackAttribute@@@std@@U1@@std@@YAPAUAttackAttribute@@PAU1@00AAV?$allocator@UAttackAttribute@@@0@0U_Nonscalar_ptr_iterator_tag@0@@Z
	DD	2 DUP(00H)
	DD	00H
	DD	01H
; Function compile flags: /Ogsp
; File c:\program files (x86)\microsoft visual studio 10.0\vc\include\memory
xdata$x	ENDS
;	COMDAT ??$_Uninit_move@PAUAttackAttribute@@PAU1@V?$allocator@UAttackAttribute@@@std@@U1@@std@@YAPAUAttackAttribute@@PAU1@00AAV?$allocator@UAttackAttribute@@@0@0U_Nonscalar_ptr_iterator_tag@0@@Z
_TEXT	SEGMENT
__Next$ = -20						; size = 4
__$EHRec$ = -16						; size = 16
__First$ = 8						; size = 4
__Last$ = 12						; size = 4
__Dest$ = 16						; size = 4
__Al$ = 20						; size = 4
___formal$ = 24						; size = 4
___formal$ = 28						; size = 1
??$_Uninit_move@PAUAttackAttribute@@PAU1@V?$allocator@UAttackAttribute@@@std@@U1@@std@@YAPAUAttackAttribute@@PAU1@00AAV?$allocator@UAttackAttribute@@@0@0U_Nonscalar_ptr_iterator_tag@0@@Z PROC ; std::_Uninit_move<AttackAttribute *,AttackAttribute *,std::allocator<AttackAttribute>,AttackAttribute>, COMDAT

; 424  : 	{	// move [_First, _Last) to raw _Dest, using _Al, arbitrary type

  00000	6a 08		 push	 8
  00002	b8 00 00 00 00	 mov	 eax, __ehhandler$??$_Uninit_move@PAUAttackAttribute@@PAU1@V?$allocator@UAttackAttribute@@@std@@U1@@std@@YAPAUAttackAttribute@@PAU1@00AAV?$allocator@UAttackAttribute@@@0@0U_Nonscalar_ptr_iterator_tag@0@@Z
  00007	e8 00 00 00 00	 call	 __EH_prolog3_catch

; 425  : 	_DEBUG_RANGE(_First, _Last);
; 426  : 	_DEBUG_POINTER(_Dest);
; 427  : 	_FwdIt _Next = _Dest;

  0000c	8b 45 10	 mov	 eax, DWORD PTR __Dest$[ebp]

; 428  : 
; 429  : 	_TRY_BEGIN

  0000f	83 65 fc 00	 and	 DWORD PTR __$EHRec$[ebp+12], 0
  00013	8b 75 08	 mov	 esi, DWORD PTR __First$[ebp]
  00016	89 45 ec	 mov	 DWORD PTR __Next$[ebp], eax
$LL6@Uninit_mov@2:

; 430  : 	for (; _First != _Last; ++_Dest, ++_First)

  00019	3b 75 0c	 cmp	 esi, DWORD PTR __Last$[ebp]
  0001c	74 35		 je	 SHORT $LN4@Uninit_mov@2

; 431  : 		_Cons_val(_Al, _Dest, (_Valty &&)*_First);

  0001e	56		 push	 esi
  0001f	ff 75 10	 push	 DWORD PTR __Dest$[ebp]
  00022	ff 75 14	 push	 DWORD PTR __Al$[ebp]
  00025	e8 00 00 00 00	 call	 ??$_Cons_val@V?$allocator@UAttackAttribute@@@std@@UAttackAttribute@@U3@@std@@YAXAAV?$allocator@UAttackAttribute@@@0@PAUAttackAttribute@@$$QAU2@@Z ; std::_Cons_val<std::allocator<AttackAttribute>,AttackAttribute,AttackAttribute>
  0002a	83 45 10 50	 add	 DWORD PTR __Dest$[ebp], 80 ; 00000050H
  0002e	83 c4 0c	 add	 esp, 12			; 0000000cH
  00031	83 c6 50	 add	 esi, 80			; 00000050H
  00034	eb e3		 jmp	 SHORT $LL6@Uninit_mov@2
__catch$??$_Uninit_move@PAUAttackAttribute@@PAU1@V?$allocator@UAttackAttribute@@@std@@U1@@std@@YAPAUAttackAttribute@@PAU1@00AAV?$allocator@UAttackAttribute@@@0@0U_Nonscalar_ptr_iterator_tag@0@@Z$0:

; 432  : 	_CATCH_ALL
; 433  : 	for (; _Next != _Dest; ++_Next)

  00036	8b 75 ec	 mov	 esi, DWORD PTR __Next$[ebp]
  00039	eb 0a		 jmp	 SHORT $LN29@Uninit_mov@2
$LL3@Uninit_mov@2:

; 434  : 		_Dest_val(_Al, _Next);

  0003b	8b ce		 mov	 ecx, esi
  0003d	e8 00 00 00 00	 call	 ??1AttackAttribute@@QAE@XZ
  00042	83 c6 50	 add	 esi, 80			; 00000050H
$LN29@Uninit_mov@2:

; 432  : 	_CATCH_ALL
; 433  : 	for (; _Next != _Dest; ++_Next)

  00045	3b 75 10	 cmp	 esi, DWORD PTR __Dest$[ebp]
  00048	75 f1		 jne	 SHORT $LL3@Uninit_mov@2

; 435  : 	_RERAISE;

  0004a	6a 00		 push	 0
  0004c	6a 00		 push	 0
  0004e	e8 00 00 00 00	 call	 __CxxThrowException@8
$LN30@Uninit_mov@2:
$LN4@Uninit_mov@2:

; 436  : 	_CATCH_END
; 437  : 	return (_Dest);

  00053	8b 45 10	 mov	 eax, DWORD PTR __Dest$[ebp]

; 438  : 	}

  00056	e8 00 00 00 00	 call	 __EH_epilog3
  0005b	c3		 ret	 0
$LN28@Uninit_mov@2:
_TEXT	ENDS
;	COMDAT text$x
text$x	SEGMENT
__ehhandler$??$_Uninit_move@PAUAttackAttribute@@PAU1@V?$allocator@UAttackAttribute@@@std@@U1@@std@@YAPAUAttackAttribute@@PAU1@00AAV?$allocator@UAttackAttribute@@@0@0U_Nonscalar_ptr_iterator_tag@0@@Z:
  00000	8b 54 24 08	 mov	 edx, DWORD PTR [esp+8]
  00004	8d 42 0c	 lea	 eax, DWORD PTR [edx+12]
  00007	8b 4a e8	 mov	 ecx, DWORD PTR [edx-24]
  0000a	33 c8		 xor	 ecx, eax
  0000c	e8 00 00 00 00	 call	 @__security_check_cookie@4
  00011	b8 00 00 00 00	 mov	 eax, OFFSET __ehfuncinfo$??$_Uninit_move@PAUAttackAttribute@@PAU1@V?$allocator@UAttackAttribute@@@std@@U1@@std@@YAPAUAttackAttribute@@PAU1@00AAV?$allocator@UAttackAttribute@@@0@0U_Nonscalar_ptr_iterator_tag@0@@Z
  00016	e9 00 00 00 00	 jmp	 ___CxxFrameHandler3
text$x	ENDS
??$_Uninit_move@PAUAttackAttribute@@PAU1@V?$allocator@UAttackAttribute@@@std@@U1@@std@@YAPAUAttackAttribute@@PAU1@00AAV?$allocator@UAttackAttribute@@@0@0U_Nonscalar_ptr_iterator_tag@0@@Z ENDP ; std::_Uninit_move<AttackAttribute *,AttackAttribute *,std::allocator<AttackAttribute>,AttackAttribute>
PUBLIC	??$_Destroy_range@V?$allocator@UAttackAttribute@@@std@@@std@@YAXPAUAttackAttribute@@0AAV?$allocator@UAttackAttribute@@@0@U_Nonscalar_ptr_iterator_tag@0@@Z ; std::_Destroy_range<std::allocator<AttackAttribute> >
; Function compile flags: /Ogsp
; File c:\program files (x86)\microsoft visual studio 10.0\vc\include\xmemory
;	COMDAT ??$_Destroy_range@V?$allocator@UAttackAttribute@@@std@@@std@@YAXPAUAttackAttribute@@0AAV?$allocator@UAttackAttribute@@@0@U_Nonscalar_ptr_iterator_tag@0@@Z
_TEXT	SEGMENT
__First$ = 8						; size = 4
__Last$ = 12						; size = 4
__Al$ = 16						; size = 4
___formal$ = 20						; size = 1
??$_Destroy_range@V?$allocator@UAttackAttribute@@@std@@@std@@YAXPAUAttackAttribute@@0AAV?$allocator@UAttackAttribute@@@0@U_Nonscalar_ptr_iterator_tag@0@@Z PROC ; std::_Destroy_range<std::allocator<AttackAttribute> >, COMDAT

; 95   : 	{	// destroy [_First, _Last), arbitrary type

  00000	55		 push	 ebp
  00001	8b ec		 mov	 ebp, esp
  00003	56		 push	 esi

; 96   : 	for (; _First != _Last; ++_First)

  00004	8b 75 08	 mov	 esi, DWORD PTR __First$[ebp]
  00007	eb 0a		 jmp	 SHORT $LN17@Destroy_ra@5
$LL3@Destroy_ra@5:

; 97   : 		_Dest_val(_Al, _First);

  00009	8b ce		 mov	 ecx, esi
  0000b	e8 00 00 00 00	 call	 ??1AttackAttribute@@QAE@XZ
  00010	83 c6 50	 add	 esi, 80			; 00000050H
$LN17@Destroy_ra@5:

; 96   : 	for (; _First != _Last; ++_First)

  00013	3b 75 0c	 cmp	 esi, DWORD PTR __Last$[ebp]
  00016	75 f1		 jne	 SHORT $LL3@Destroy_ra@5
  00018	5e		 pop	 esi

; 98   : 	}

  00019	5d		 pop	 ebp
  0001a	c3		 ret	 0
??$_Destroy_range@V?$allocator@UAttackAttribute@@@std@@@std@@YAXPAUAttackAttribute@@0AAV?$allocator@UAttackAttribute@@@0@U_Nonscalar_ptr_iterator_tag@0@@Z ENDP ; std::_Destroy_range<std::allocator<AttackAttribute> >
_TEXT	ENDS
PUBLIC	??$_Uninitialized_copy@V?$_Vector_const_iterator@V?$_Vector_val@UAttackAttribute@@V?$allocator@UAttackAttribute@@@std@@@std@@@std@@PAUAttackAttribute@@V?$allocator@UAttackAttribute@@@2@@std@@YAPAUAttackAttribute@@V?$_Vector_const_iterator@V?$_Vector_val@UAttackAttribute@@V?$allocator@UAttackAttribute@@@std@@@std@@@0@0PAU1@AAV?$allocator@UAttackAttribute@@@0@@Z ; std::_Uninitialized_copy<std::_Vector_const_iterator<std::_Vector_val<AttackAttribute,std::allocator<AttackAttribute> > >,AttackAttribute *,std::allocator<AttackAttribute> >
; Function compile flags: /Ogsp
; File c:\program files (x86)\microsoft visual studio 10.0\vc\include\memory
;	COMDAT ??$_Uninitialized_copy@V?$_Vector_const_iterator@V?$_Vector_val@UAttackAttribute@@V?$allocator@UAttackAttribute@@@std@@@std@@@std@@PAUAttackAttribute@@V?$allocator@UAttackAttribute@@@2@@std@@YAPAUAttackAttribute@@V?$_Vector_const_iterator@V?$_Vector_val@UAttackAttribute@@V?$allocator@UAttackAttribute@@@std@@@std@@@0@0PAU1@AAV?$allocator@UAttackAttribute@@@0@@Z
_TEXT	SEGMENT
__Cat$603026 = -4					; size = 1
__First$ = 8						; size = 4
__Last$ = 12						; size = 4
__Dest$ = 16						; size = 4
__Al$ = 20						; size = 4
??$_Uninitialized_copy@V?$_Vector_const_iterator@V?$_Vector_val@UAttackAttribute@@V?$allocator@UAttackAttribute@@@std@@@std@@@std@@PAUAttackAttribute@@V?$allocator@UAttackAttribute@@@2@@std@@YAPAUAttackAttribute@@V?$_Vector_const_iterator@V?$_Vector_val@UAttackAttribute@@V?$allocator@UAttackAttribute@@@std@@@std@@@0@0PAU1@AAV?$allocator@UAttackAttribute@@@0@@Z PROC ; std::_Uninitialized_copy<std::_Vector_const_iterator<std::_Vector_val<AttackAttribute,std::allocator<AttackAttribute> > >,AttackAttribute *,std::allocator<AttackAttribute> >, COMDAT

; 412  : 	{	// copy [_First, _Last) to raw _Dest, using _Al

  00000	55		 push	 ebp
  00001	8b ec		 mov	 ebp, esp
  00003	51		 push	 ecx

; 413  : 	return (_Uninit_copy(_First, _Last, _Dest, _Al,
; 414  : 		_Ptr_cat(_First, _Dest)));

  00004	ff 75 fc	 push	 DWORD PTR __Cat$603026[ebp]
  00007	ff 75 14	 push	 DWORD PTR __Al$[ebp]
  0000a	ff 75 10	 push	 DWORD PTR __Dest$[ebp]
  0000d	ff 75 0c	 push	 DWORD PTR __Last$[ebp]
  00010	ff 75 08	 push	 DWORD PTR __First$[ebp]
  00013	e8 00 00 00 00	 call	 ??$_Uninit_copy@V?$_Vector_const_iterator@V?$_Vector_val@UAttackAttribute@@V?$allocator@UAttackAttribute@@@std@@@std@@@std@@PAUAttackAttribute@@V?$allocator@UAttackAttribute@@@2@@std@@YAPAUAttackAttribute@@V?$_Vector_const_iterator@V?$_Vector_val@UAttackAttribute@@V?$allocator@UAttackAttribute@@@std@@@std@@@0@0PAU1@AAV?$allocator@UAttackAttribute@@@0@U_Nonscalar_ptr_iterator_tag@0@@Z ; std::_Uninit_copy<std::_Vector_const_iterator<std::_Vector_val<AttackAttribute,std::allocator<AttackAttribute> > >,AttackAttribute *,std::allocator<AttackAttribute> >
  00018	83 c4 14	 add	 esp, 20			; 00000014H

; 415  : 	}

  0001b	c9		 leave
  0001c	c3		 ret	 0
??$_Uninitialized_copy@V?$_Vector_const_iterator@V?$_Vector_val@UAttackAttribute@@V?$allocator@UAttackAttribute@@@std@@@std@@@std@@PAUAttackAttribute@@V?$allocator@UAttackAttribute@@@2@@std@@YAPAUAttackAttribute@@V?$_Vector_const_iterator@V?$_Vector_val@UAttackAttribute@@V?$allocator@UAttackAttribute@@@std@@@std@@@0@0PAU1@AAV?$allocator@UAttackAttribute@@@0@@Z ENDP ; std::_Uninitialized_copy<std::_Vector_const_iterator<std::_Vector_val<AttackAttribute,std::allocator<AttackAttribute> > >,AttackAttribute *,std::allocator<AttackAttribute> >
_TEXT	ENDS
PUBLIC	??$_Uninitialized_move@PAUAttackAttribute@@PAU1@V?$allocator@UAttackAttribute@@@std@@@std@@YAPAUAttackAttribute@@PAU1@00AAV?$allocator@UAttackAttribute@@@0@@Z ; std::_Uninitialized_move<AttackAttribute *,AttackAttribute *,std::allocator<AttackAttribute> >
; Function compile flags: /Ogsp
;	COMDAT ??$_Uninitialized_move@PAUAttackAttribute@@PAU1@V?$allocator@UAttackAttribute@@@std@@@std@@YAPAUAttackAttribute@@PAU1@00AAV?$allocator@UAttackAttribute@@@0@@Z
_TEXT	SEGMENT
__Cat$603033 = -4					; size = 1
__First$ = 8						; size = 4
__Last$ = 12						; size = 4
__Dest$ = 16						; size = 4
__Al$ = 20						; size = 4
??$_Uninitialized_move@PAUAttackAttribute@@PAU1@V?$allocator@UAttackAttribute@@@std@@@std@@YAPAUAttackAttribute@@PAU1@00AAV?$allocator@UAttackAttribute@@@0@@Z PROC ; std::_Uninitialized_move<AttackAttribute *,AttackAttribute *,std::allocator<AttackAttribute> >, COMDAT

; 469  : 	{	// move [_First, _Last) to raw _Dest, using _Al

  00000	55		 push	 ebp
  00001	8b ec		 mov	 ebp, esp
  00003	51		 push	 ecx

; 470  : 	return (_Uninit_move(_First, _Last, _Dest, _Al,
; 471  : 		_Val_type(_First), _Ptr_cat(_First, _Dest)));

  00004	ff 75 fc	 push	 DWORD PTR __Cat$603033[ebp]
  00007	6a 00		 push	 0
  00009	ff 75 14	 push	 DWORD PTR __Al$[ebp]
  0000c	ff 75 10	 push	 DWORD PTR __Dest$[ebp]
  0000f	ff 75 0c	 push	 DWORD PTR __Last$[ebp]
  00012	ff 75 08	 push	 DWORD PTR __First$[ebp]
  00015	e8 00 00 00 00	 call	 ??$_Uninit_move@PAUAttackAttribute@@PAU1@V?$allocator@UAttackAttribute@@@std@@U1@@std@@YAPAUAttackAttribute@@PAU1@00AAV?$allocator@UAttackAttribute@@@0@0U_Nonscalar_ptr_iterator_tag@0@@Z ; std::_Uninit_move<AttackAttribute *,AttackAttribute *,std::allocator<AttackAttribute>,AttackAttribute>
  0001a	83 c4 18	 add	 esp, 24			; 00000018H

; 472  : 	}

  0001d	c9		 leave
  0001e	c3		 ret	 0
??$_Uninitialized_move@PAUAttackAttribute@@PAU1@V?$allocator@UAttackAttribute@@@std@@@std@@YAPAUAttackAttribute@@PAU1@00AAV?$allocator@UAttackAttribute@@@0@@Z ENDP ; std::_Uninitialized_move<AttackAttribute *,AttackAttribute *,std::allocator<AttackAttribute> >
_TEXT	ENDS
PUBLIC	??$_Destroy_range@V?$allocator@UAttackAttribute@@@std@@@std@@YAXPAUAttackAttribute@@0AAV?$allocator@UAttackAttribute@@@0@@Z ; std::_Destroy_range<std::allocator<AttackAttribute> >
; Function compile flags: /Ogsp
; File c:\program files (x86)\microsoft visual studio 10.0\vc\include\xmemory
;	COMDAT ??$_Destroy_range@V?$allocator@UAttackAttribute@@@std@@@std@@YAXPAUAttackAttribute@@0AAV?$allocator@UAttackAttribute@@@0@@Z
_TEXT	SEGMENT
__First$ = 8						; size = 4
__Last$ = 12						; size = 4
__Al$ = 16						; size = 4
??$_Destroy_range@V?$allocator@UAttackAttribute@@@std@@@std@@YAXPAUAttackAttribute@@0AAV?$allocator@UAttackAttribute@@@0@@Z PROC ; std::_Destroy_range<std::allocator<AttackAttribute> >, COMDAT

; 87   : 	{	// destroy [_First, _Last)

  00000	55		 push	 ebp
  00001	8b ec		 mov	 ebp, esp
  00003	56		 push	 esi

; 88   : 	_Destroy_range(_First, _Last, _Al, _Ptr_cat(_First, _Last));

  00004	8b 75 08	 mov	 esi, DWORD PTR __First$[ebp]
  00007	eb 0a		 jmp	 SHORT $LN21@Destroy_ra@6
$LL7@Destroy_ra@6:
  00009	8b ce		 mov	 ecx, esi
  0000b	e8 00 00 00 00	 call	 ??1AttackAttribute@@QAE@XZ
  00010	83 c6 50	 add	 esi, 80			; 00000050H
$LN21@Destroy_ra@6:
  00013	3b 75 0c	 cmp	 esi, DWORD PTR __Last$[ebp]
  00016	75 f1		 jne	 SHORT $LL7@Destroy_ra@6
  00018	5e		 pop	 esi

; 89   : 	}

  00019	5d		 pop	 ebp
  0001a	c3		 ret	 0
??$_Destroy_range@V?$allocator@UAttackAttribute@@@std@@@std@@YAXPAUAttackAttribute@@0AAV?$allocator@UAttackAttribute@@@0@@Z ENDP ; std::_Destroy_range<std::allocator<AttackAttribute> >
_TEXT	ENDS
PUBLIC	??$_Ucopy@V?$_Vector_const_iterator@V?$_Vector_val@UAttackAttribute@@V?$allocator@UAttackAttribute@@@std@@@std@@@std@@@?$vector@UAttackAttribute@@V?$allocator@UAttackAttribute@@@std@@@std@@IAEPAUAttackAttribute@@V?$_Vector_const_iterator@V?$_Vector_val@UAttackAttribute@@V?$allocator@UAttackAttribute@@@std@@@std@@@1@0PAU2@@Z ; std::vector<AttackAttribute,std::allocator<AttackAttribute> >::_Ucopy<std::_Vector_const_iterator<std::_Vector_val<AttackAttribute,std::allocator<AttackAttribute> > > >
; Function compile flags: /Ogsp
; File c:\program files (x86)\microsoft visual studio 10.0\vc\include\vector
;	COMDAT ??$_Ucopy@V?$_Vector_const_iterator@V?$_Vector_val@UAttackAttribute@@V?$allocator@UAttackAttribute@@@std@@@std@@@std@@@?$vector@UAttackAttribute@@V?$allocator@UAttackAttribute@@@std@@@std@@IAEPAUAttackAttribute@@V?$_Vector_const_iterator@V?$_Vector_val@UAttackAttribute@@V?$allocator@UAttackAttribute@@@std@@@std@@@1@0PAU2@@Z
_TEXT	SEGMENT
__First$ = 8						; size = 4
__Last$ = 12						; size = 4
__Cat$603104 = 16					; size = 1
__Ptr$ = 16						; size = 4
??$_Ucopy@V?$_Vector_const_iterator@V?$_Vector_val@UAttackAttribute@@V?$allocator@UAttackAttribute@@@std@@@std@@@std@@@?$vector@UAttackAttribute@@V?$allocator@UAttackAttribute@@@std@@@std@@IAEPAUAttackAttribute@@V?$_Vector_const_iterator@V?$_Vector_val@UAttackAttribute@@V?$allocator@UAttackAttribute@@@std@@@std@@@1@0PAU2@@Z PROC ; std::vector<AttackAttribute,std::allocator<AttackAttribute> >::_Ucopy<std::_Vector_const_iterator<std::_Vector_val<AttackAttribute,std::allocator<AttackAttribute> > > >, COMDAT
; _this$ = ecx

; 1315 : 		pointer _Ucopy(_Iter _First, _Iter _Last, pointer _Ptr)

  00000	55		 push	 ebp
  00001	8b ec		 mov	 ebp, esp

; 1316 : 		{	// copy initializing [_First, _Last), using allocator
; 1317 : 		return (_Uninitialized_copy(_First, _Last,
; 1318 : 			_Ptr, this->_Alval));

  00003	ff 75 10	 push	 DWORD PTR __Cat$603104[ebp]
  00006	83 c1 0c	 add	 ecx, 12			; 0000000cH
  00009	51		 push	 ecx
  0000a	ff 75 10	 push	 DWORD PTR __Ptr$[ebp]
  0000d	ff 75 0c	 push	 DWORD PTR __Last$[ebp]
  00010	ff 75 08	 push	 DWORD PTR __First$[ebp]
  00013	e8 00 00 00 00	 call	 ??$_Uninit_copy@V?$_Vector_const_iterator@V?$_Vector_val@UAttackAttribute@@V?$allocator@UAttackAttribute@@@std@@@std@@@std@@PAUAttackAttribute@@V?$allocator@UAttackAttribute@@@2@@std@@YAPAUAttackAttribute@@V?$_Vector_const_iterator@V?$_Vector_val@UAttackAttribute@@V?$allocator@UAttackAttribute@@@std@@@std@@@0@0PAU1@AAV?$allocator@UAttackAttribute@@@0@U_Nonscalar_ptr_iterator_tag@0@@Z ; std::_Uninit_copy<std::_Vector_const_iterator<std::_Vector_val<AttackAttribute,std::allocator<AttackAttribute> > >,AttackAttribute *,std::allocator<AttackAttribute> >
  00018	83 c4 14	 add	 esp, 20			; 00000014H

; 1319 : 		}

  0001b	5d		 pop	 ebp
  0001c	c2 0c 00	 ret	 12			; 0000000cH
??$_Ucopy@V?$_Vector_const_iterator@V?$_Vector_val@UAttackAttribute@@V?$allocator@UAttackAttribute@@@std@@@std@@@std@@@?$vector@UAttackAttribute@@V?$allocator@UAttackAttribute@@@std@@@std@@IAEPAUAttackAttribute@@V?$_Vector_const_iterator@V?$_Vector_val@UAttackAttribute@@V?$allocator@UAttackAttribute@@@std@@@std@@@1@0PAU2@@Z ENDP ; std::vector<AttackAttribute,std::allocator<AttackAttribute> >::_Ucopy<std::_Vector_const_iterator<std::_Vector_val<AttackAttribute,std::allocator<AttackAttribute> > > >
_TEXT	ENDS
PUBLIC	??$_Umove@PAUAttackAttribute@@@?$vector@UAttackAttribute@@V?$allocator@UAttackAttribute@@@std@@@std@@IAEPAUAttackAttribute@@PAU2@00@Z ; std::vector<AttackAttribute,std::allocator<AttackAttribute> >::_Umove<AttackAttribute *>
; Function compile flags: /Ogsp
;	COMDAT ??$_Umove@PAUAttackAttribute@@@?$vector@UAttackAttribute@@V?$allocator@UAttackAttribute@@@std@@@std@@IAEPAUAttackAttribute@@PAU2@00@Z
_TEXT	SEGMENT
__First$ = 8						; size = 4
__Last$ = 12						; size = 4
__Ptr$ = 16						; size = 4
??$_Umove@PAUAttackAttribute@@@?$vector@UAttackAttribute@@V?$allocator@UAttackAttribute@@@std@@@std@@IAEPAUAttackAttribute@@PAU2@00@Z PROC ; std::vector<AttackAttribute,std::allocator<AttackAttribute> >::_Umove<AttackAttribute *>, COMDAT
; _this$ = ecx

; 1322 : 		pointer _Umove(_Iter _First, _Iter _Last, pointer _Ptr)

  00000	55		 push	 ebp
  00001	8b ec		 mov	 ebp, esp

; 1323 : 		{	// move initializing [_First, _Last), using allocator
; 1324 : 		return (_Uninitialized_move(_First, _Last,
; 1325 : 			_Ptr, this->_Alval));

  00003	83 c1 0c	 add	 ecx, 12			; 0000000cH
  00006	51		 push	 ecx
  00007	ff 75 10	 push	 DWORD PTR __Ptr$[ebp]
  0000a	ff 75 0c	 push	 DWORD PTR __Last$[ebp]
  0000d	ff 75 08	 push	 DWORD PTR __First$[ebp]
  00010	e8 00 00 00 00	 call	 ??$_Uninitialized_move@PAUAttackAttribute@@PAU1@V?$allocator@UAttackAttribute@@@std@@@std@@YAPAUAttackAttribute@@PAU1@00AAV?$allocator@UAttackAttribute@@@0@@Z ; std::_Uninitialized_move<AttackAttribute *,AttackAttribute *,std::allocator<AttackAttribute> >
  00015	83 c4 10	 add	 esp, 16			; 00000010H

; 1326 : 		}

  00018	5d		 pop	 ebp
  00019	c2 0c 00	 ret	 12			; 0000000cH
??$_Umove@PAUAttackAttribute@@@?$vector@UAttackAttribute@@V?$allocator@UAttackAttribute@@@std@@@std@@IAEPAUAttackAttribute@@PAU2@00@Z ENDP ; std::vector<AttackAttribute,std::allocator<AttackAttribute> >::_Umove<AttackAttribute *>
_TEXT	ENDS
PUBLIC	?_Destroy@?$vector@UAttackAttribute@@V?$allocator@UAttackAttribute@@@std@@@std@@IAEXPAUAttackAttribute@@0@Z ; std::vector<AttackAttribute,std::allocator<AttackAttribute> >::_Destroy
; Function compile flags: /Ogsp
;	COMDAT ?_Destroy@?$vector@UAttackAttribute@@V?$allocator@UAttackAttribute@@@std@@@std@@IAEXPAUAttackAttribute@@0@Z
_TEXT	SEGMENT
__First$ = 8						; size = 4
__Last$ = 12						; size = 4
?_Destroy@?$vector@UAttackAttribute@@V?$allocator@UAttackAttribute@@@std@@@std@@IAEXPAUAttackAttribute@@0@Z PROC ; std::vector<AttackAttribute,std::allocator<AttackAttribute> >::_Destroy, COMDAT
; _this$ = ecx

; 1269 : 		{	// destroy [_First, _Last) using allocator

  00000	55		 push	 ebp
  00001	8b ec		 mov	 ebp, esp
  00003	56		 push	 esi

; 1270 : 		_Destroy_range(_First, _Last, this->_Alval);

  00004	8b 75 08	 mov	 esi, DWORD PTR __First$[ebp]
  00007	eb 0a		 jmp	 SHORT $LN23@Destroy@2
$LL9@Destroy@2:
  00009	8b ce		 mov	 ecx, esi
  0000b	e8 00 00 00 00	 call	 ??1AttackAttribute@@QAE@XZ
  00010	83 c6 50	 add	 esi, 80			; 00000050H
$LN23@Destroy@2:
  00013	3b 75 0c	 cmp	 esi, DWORD PTR __Last$[ebp]
  00016	75 f1		 jne	 SHORT $LL9@Destroy@2
  00018	5e		 pop	 esi

; 1271 : 		}

  00019	5d		 pop	 ebp
  0001a	c2 08 00	 ret	 8
?_Destroy@?$vector@UAttackAttribute@@V?$allocator@UAttackAttribute@@@std@@@std@@IAEXPAUAttackAttribute@@0@Z ENDP ; std::vector<AttackAttribute,std::allocator<AttackAttribute> >::_Destroy
_TEXT	ENDS
PUBLIC	?reserve@?$vector@UAttackAttribute@@V?$allocator@UAttackAttribute@@@std@@@std@@QAEXI@Z ; std::vector<AttackAttribute,std::allocator<AttackAttribute> >::reserve
;	COMDAT xdata$x
; File c:\program files (x86)\microsoft visual studio 10.0\vc\include\xmemory
xdata$x	SEGMENT
__catchsym$?reserve@?$vector@UAttackAttribute@@V?$allocator@UAttackAttribute@@@std@@@std@@QAEXI@Z$2 DD 040H
	DD	00H
	DD	00H
	DD	FLAT:__catch$?reserve@?$vector@UAttackAttribute@@V?$allocator@UAttackAttribute@@@std@@@std@@QAEXI@Z$0
__unwindtable$?reserve@?$vector@UAttackAttribute@@V?$allocator@UAttackAttribute@@@std@@@std@@QAEXI@Z DD 0ffffffffH
	DD	00H
	DD	0ffffffffH
	DD	00H
__tryblocktable$?reserve@?$vector@UAttackAttribute@@V?$allocator@UAttackAttribute@@@std@@@std@@QAEXI@Z DD 00H
	DD	00H
	DD	01H
	DD	01H
	DD	FLAT:__catchsym$?reserve@?$vector@UAttackAttribute@@V?$allocator@UAttackAttribute@@@std@@@std@@QAEXI@Z$2
__ehfuncinfo$?reserve@?$vector@UAttackAttribute@@V?$allocator@UAttackAttribute@@@std@@@std@@QAEXI@Z DD 019930522H
	DD	02H
	DD	FLAT:__unwindtable$?reserve@?$vector@UAttackAttribute@@V?$allocator@UAttackAttribute@@@std@@@std@@QAEXI@Z
	DD	01H
	DD	FLAT:__tryblocktable$?reserve@?$vector@UAttackAttribute@@V?$allocator@UAttackAttribute@@@std@@@std@@QAEXI@Z
	DD	2 DUP(00H)
	DD	00H
	DD	01H
; Function compile flags: /Ogsp
; File c:\program files (x86)\microsoft visual studio 10.0\vc\include\vector
xdata$x	ENDS
;	COMDAT ?reserve@?$vector@UAttackAttribute@@V?$allocator@UAttackAttribute@@@std@@@std@@QAEXI@Z
_TEXT	SEGMENT
__Ptr$591493 = -24					; size = 4
$T603278 = -20						; size = 4
__$EHRec$ = -16						; size = 16
__Count$ = 8						; size = 4
?reserve@?$vector@UAttackAttribute@@V?$allocator@UAttackAttribute@@@std@@@std@@QAEXI@Z PROC ; std::vector<AttackAttribute,std::allocator<AttackAttribute> >::reserve, COMDAT
; _this$ = ecx

; 746  : 		{	// determine new minimum length of allocated storage

  00000	6a 0c		 push	 12			; 0000000cH
  00002	b8 00 00 00 00	 mov	 eax, __ehhandler$?reserve@?$vector@UAttackAttribute@@V?$allocator@UAttackAttribute@@@std@@@std@@QAEXI@Z
  00007	e8 00 00 00 00	 call	 __EH_prolog3_catch
  0000c	8b f1		 mov	 esi, ecx

; 747  : 		if (max_size() < _Count)

  0000e	81 7d 08 33 33
	33 03		 cmp	 DWORD PTR __Count$[ebp], 53687091 ; 03333333H
  00015	76 0b		 jbe	 SHORT $LN5@reserve@2

; 748  : 			_Xlen();	// result too long

  00017	68 00 00 00 00	 push	 OFFSET ??_C@_0BD@OLBABOEK@vector?$DMT?$DO?5too?5long?$AA@
  0001c	ff 15 00 00 00
	00		 call	 DWORD PTR __imp_?_Xlength_error@std@@YAXPBD@Z
$LN59@reserve@2:
$LN5@reserve@2:

; 749  : 		else if (capacity() < _Count)

  00022	8b 46 08	 mov	 eax, DWORD PTR [esi+8]
  00025	2b 06		 sub	 eax, DWORD PTR [esi]
  00027	6a 50		 push	 80			; 00000050H
  00029	99		 cdq
  0002a	59		 pop	 ecx
  0002b	f7 f9		 idiv	 ecx
  0002d	3b 45 08	 cmp	 eax, DWORD PTR __Count$[ebp]
  00030	0f 83 80 00 00
	00		 jae	 $LN3@reserve@2

; 750  : 			{	// not enough room, reallocate
; 751  : 			pointer _Ptr = this->_Alval.allocate(_Count);

  00036	6a 00		 push	 0
  00038	ff 75 08	 push	 DWORD PTR __Count$[ebp]
  0003b	e8 00 00 00 00	 call	 ??$_Allocate@UAttackAttribute@@@std@@YAPAUAttackAttribute@@IPAU1@@Z ; std::_Allocate<AttackAttribute>

; 752  : 
; 753  : 			_TRY_BEGIN
; 754  : 			_Umove(this->_Myfirst, this->_Mylast, _Ptr);

  00040	8b 0e		 mov	 ecx, DWORD PTR [esi]
  00042	83 65 fc 00	 and	 DWORD PTR __$EHRec$[ebp+12], 0
  00046	8d 56 0c	 lea	 edx, DWORD PTR [esi+12]
  00049	52		 push	 edx
  0004a	89 45 e8	 mov	 DWORD PTR __Ptr$591493[ebp], eax
  0004d	ff 75 e8	 push	 DWORD PTR __Ptr$591493[ebp]
  00050	8b 46 04	 mov	 eax, DWORD PTR [esi+4]
  00053	50		 push	 eax
  00054	51		 push	 ecx
  00055	e8 00 00 00 00	 call	 ??$_Uninitialized_move@PAUAttackAttribute@@PAU1@V?$allocator@UAttackAttribute@@@std@@@std@@YAPAUAttackAttribute@@PAU1@00AAV?$allocator@UAttackAttribute@@@0@@Z ; std::_Uninitialized_move<AttackAttribute *,AttackAttribute *,std::allocator<AttackAttribute> >

; 758  : 			_CATCH_END
; 759  : 
; 760  : 			size_type _Size = size();

  0005a	8b 5e 04	 mov	 ebx, DWORD PTR [esi+4]
  0005d	8b 0e		 mov	 ecx, DWORD PTR [esi]
  0005f	83 c4 18	 add	 esp, 24			; 00000018H
  00062	8b c3		 mov	 eax, ebx
  00064	2b c1		 sub	 eax, ecx
  00066	6a 50		 push	 80			; 00000050H
  00068	99		 cdq
  00069	5f		 pop	 edi
  0006a	f7 ff		 idiv	 edi
  0006c	83 4d fc ff	 or	 DWORD PTR __$EHRec$[ebp+12], -1
  00070	8b f8		 mov	 edi, eax
  00072	85 c9		 test	 ecx, ecx
  00074	74 20		 je	 SHORT $LN51@reserve@2

; 761  : 			if (this->_Myfirst != 0)
; 762  : 				{	// destroy and deallocate old array
; 763  : 				_Destroy(this->_Myfirst, this->_Mylast);

  00076	89 4d ec	 mov	 DWORD PTR $T603278[ebp], ecx
  00079	3b cb		 cmp	 ecx, ebx
  0007b	74 11		 je	 SHORT $LN37@reserve@2
$LN39@reserve@2:
  0007d	8b 4d ec	 mov	 ecx, DWORD PTR $T603278[ebp]
  00080	e8 00 00 00 00	 call	 ??1AttackAttribute@@QAE@XZ
  00085	83 45 ec 50	 add	 DWORD PTR $T603278[ebp], 80 ; 00000050H
  00089	39 5d ec	 cmp	 DWORD PTR $T603278[ebp], ebx
  0008c	75 ef		 jne	 SHORT $LN39@reserve@2
$LN37@reserve@2:

; 764  : 				this->_Alval.deallocate(this->_Myfirst,
; 765  : 					this->_Myend - this->_Myfirst);

  0008e	ff 36		 push	 DWORD PTR [esi]
  00090	e8 00 00 00 00	 call	 ??3@YAXPAX@Z		; operator delete
  00095	59		 pop	 ecx
$LN51@reserve@2:

; 766  : 				}
; 767  : 
; 768  : 			this->_Orphan_all();

  00096	8b ce		 mov	 ecx, esi
  00098	ff 15 00 00 00
	00		 call	 DWORD PTR __imp_?_Orphan_all@_Container_base0@std@@QAEXXZ

; 769  : 			this->_Myend = _Ptr + _Count;
; 770  : 			this->_Mylast = _Ptr + _Size;

  0009e	6b ff 50	 imul	 edi, 80			; 00000050H
  000a1	8b 45 08	 mov	 eax, DWORD PTR __Count$[ebp]
  000a4	8b 4d e8	 mov	 ecx, DWORD PTR __Ptr$591493[ebp]
  000a7	6b c0 50	 imul	 eax, 80			; 00000050H
  000aa	03 c1		 add	 eax, ecx
  000ac	03 f9		 add	 edi, ecx
  000ae	89 46 08	 mov	 DWORD PTR [esi+8], eax
  000b1	89 7e 04	 mov	 DWORD PTR [esi+4], edi

; 771  : 			this->_Myfirst = _Ptr;

  000b4	89 0e		 mov	 DWORD PTR [esi], ecx
$LN3@reserve@2:

; 772  : 			}
; 773  : 		}

  000b6	e8 00 00 00 00	 call	 __EH_epilog3
  000bb	c2 04 00	 ret	 4
__catch$?reserve@?$vector@UAttackAttribute@@V?$allocator@UAttackAttribute@@@std@@@std@@QAEXI@Z$0:

; 755  : 			_CATCH_ALL
; 756  : 			this->_Alval.deallocate(_Ptr, _Count);

  000be	ff 75 e8	 push	 DWORD PTR __Ptr$591493[ebp]
  000c1	e8 00 00 00 00	 call	 ??3@YAXPAX@Z		; operator delete
  000c6	59		 pop	 ecx

; 757  : 			_RERAISE;

  000c7	6a 00		 push	 0
  000c9	6a 00		 push	 0
  000cb	e8 00 00 00 00	 call	 __CxxThrowException@8
$LN60@reserve@2:
$LN58@reserve@2:
  000d0	cc		 int	 3
_TEXT	ENDS
;	COMDAT text$x
text$x	SEGMENT
__ehhandler$?reserve@?$vector@UAttackAttribute@@V?$allocator@UAttackAttribute@@@std@@@std@@QAEXI@Z:
  00000	8b 54 24 08	 mov	 edx, DWORD PTR [esp+8]
  00004	8d 42 0c	 lea	 eax, DWORD PTR [edx+12]
  00007	8b 4a e4	 mov	 ecx, DWORD PTR [edx-28]
  0000a	33 c8		 xor	 ecx, eax
  0000c	e8 00 00 00 00	 call	 @__security_check_cookie@4
  00011	b8 00 00 00 00	 mov	 eax, OFFSET __ehfuncinfo$?reserve@?$vector@UAttackAttribute@@V?$allocator@UAttackAttribute@@@std@@@std@@QAEXI@Z
  00016	e9 00 00 00 00	 jmp	 ___CxxFrameHandler3
text$x	ENDS
?reserve@?$vector@UAttackAttribute@@V?$allocator@UAttackAttribute@@@std@@@std@@QAEXI@Z ENDP ; std::vector<AttackAttribute,std::allocator<AttackAttribute> >::reserve
PUBLIC	?erase@?$vector@UAttackAttribute@@V?$allocator@UAttackAttribute@@@std@@@std@@QAE?AV?$_Vector_iterator@V?$_Vector_val@UAttackAttribute@@V?$allocator@UAttackAttribute@@@std@@@std@@@2@V?$_Vector_const_iterator@V?$_Vector_val@UAttackAttribute@@V?$allocator@UAttackAttribute@@@std@@@std@@@2@0@Z ; std::vector<AttackAttribute,std::allocator<AttackAttribute> >::erase
; Function compile flags: /Ogsp
;	COMDAT ?erase@?$vector@UAttackAttribute@@V?$allocator@UAttackAttribute@@@std@@@std@@QAE?AV?$_Vector_iterator@V?$_Vector_val@UAttackAttribute@@V?$allocator@UAttackAttribute@@@std@@@std@@@2@V?$_Vector_const_iterator@V?$_Vector_val@UAttackAttribute@@V?$allocator@UAttackAttribute@@@std@@@std@@@2@0@Z
_TEXT	SEGMENT
$T603473 = -4						; size = 4
___$ReturnUdt$ = 8					; size = 4
__First_arg$ = 12					; size = 4
__Cat$603418 = 16					; size = 1
__Last_arg$ = 16					; size = 4
?erase@?$vector@UAttackAttribute@@V?$allocator@UAttackAttribute@@@std@@@std@@QAE?AV?$_Vector_iterator@V?$_Vector_val@UAttackAttribute@@V?$allocator@UAttackAttribute@@@std@@@std@@@2@V?$_Vector_const_iterator@V?$_Vector_val@UAttackAttribute@@V?$allocator@UAttackAttribute@@@std@@@std@@@2@0@Z PROC ; std::vector<AttackAttribute,std::allocator<AttackAttribute> >::erase, COMDAT
; _this$ = ecx

; 1190 : 		{	// erase [_First, _Last)

  00000	55		 push	 ebp
  00001	8b ec		 mov	 ebp, esp
  00003	51		 push	 ecx

; 1191 : 		iterator _First = _Make_iter(_First_arg);

  00004	8b 45 08	 mov	 eax, DWORD PTR ___$ReturnUdt$[ebp]
  00007	56		 push	 esi
  00008	8b f1		 mov	 esi, ecx
  0000a	8b 4d 0c	 mov	 ecx, DWORD PTR __First_arg$[ebp]
  0000d	89 08		 mov	 DWORD PTR [eax], ecx

; 1192 : 		iterator _Last = _Make_iter(_Last_arg);
; 1193 : 
; 1194 : 		if (_First != _Last)

  0000f	3b 4d 10	 cmp	 ecx, DWORD PTR __Last_arg$[ebp]
  00012	74 37		 je	 SHORT $LN1@erase@4

; 1195 : 			{	// worth doing, copy down over hole
; 1196 :  #if _ITERATOR_DEBUG_LEVEL == 2
; 1197 : 			if (_Last < _First || _VICONT(_First) != this
; 1198 : 				|| _VIPTR(_First) < this->_Myfirst
; 1199 : 				|| this->_Mylast < _VIPTR(_Last))
; 1200 : 				_DEBUG_ERROR("vector erase iterator outside range");
; 1201 : 			pointer _Ptr = _Move(_VIPTR(_Last), this->_Mylast,
; 1202 : 				_VIPTR(_First));
; 1203 : 			_Orphan_range(_VIPTR(_First), this->_Mylast);
; 1204 : 
; 1205 :  #else /* _ITERATOR_DEBUG_LEVEL == 2 */
; 1206 : 			pointer _Ptr = _Move(_VIPTR(_Last), this->_Mylast,
; 1207 : 				_VIPTR(_First));

  00014	8b 46 04	 mov	 eax, DWORD PTR [esi+4]
  00017	53		 push	 ebx
  00018	57		 push	 edi
  00019	ff 75 10	 push	 DWORD PTR __Cat$603418[ebp]
  0001c	51		 push	 ecx
  0001d	50		 push	 eax
  0001e	ff 75 10	 push	 DWORD PTR __Last_arg$[ebp]
  00021	e8 00 00 00 00	 call	 ??$_Move@PAUAttackAttribute@@PAU1@@std@@YAPAUAttackAttribute@@PAU1@00U_Nonscalar_ptr_iterator_tag@0@@Z ; std::_Move<AttackAttribute *,AttackAttribute *>

; 1208 :  #endif /* _ITERATOR_DEBUG_LEVEL == 2 */
; 1209 : 
; 1210 : 			_Destroy(_Ptr, this->_Mylast);

  00026	8b 7e 04	 mov	 edi, DWORD PTR [esi+4]
  00029	8b d8		 mov	 ebx, eax
  0002b	83 c4 10	 add	 esp, 16			; 00000010H
  0002e	89 5d fc	 mov	 DWORD PTR $T603473[ebp], ebx
  00031	3b df		 cmp	 ebx, edi
  00033	74 11		 je	 SHORT $LN36@erase@4
$LL52@erase@4:
  00035	8b 4d fc	 mov	 ecx, DWORD PTR $T603473[ebp]
  00038	e8 00 00 00 00	 call	 ??1AttackAttribute@@QAE@XZ
  0003d	83 45 fc 50	 add	 DWORD PTR $T603473[ebp], 80 ; 00000050H
  00041	39 7d fc	 cmp	 DWORD PTR $T603473[ebp], edi
  00044	75 ef		 jne	 SHORT $LL52@erase@4
$LN36@erase@4:

; 1211 : 			this->_Mylast = _Ptr;

  00046	5f		 pop	 edi
  00047	89 5e 04	 mov	 DWORD PTR [esi+4], ebx
  0004a	5b		 pop	 ebx
$LN1@erase@4:

; 1212 : 			}
; 1213 : 		return (_First);

  0004b	8b 45 08	 mov	 eax, DWORD PTR ___$ReturnUdt$[ebp]
  0004e	5e		 pop	 esi

; 1214 : 		}

  0004f	c9		 leave
  00050	c2 0c 00	 ret	 12			; 0000000cH
?erase@?$vector@UAttackAttribute@@V?$allocator@UAttackAttribute@@@std@@@std@@QAE?AV?$_Vector_iterator@V?$_Vector_val@UAttackAttribute@@V?$allocator@UAttackAttribute@@@std@@@std@@@2@V?$_Vector_const_iterator@V?$_Vector_val@UAttackAttribute@@V?$allocator@UAttackAttribute@@@std@@@std@@@2@0@Z ENDP ; std::vector<AttackAttribute,std::allocator<AttackAttribute> >::erase
_TEXT	ENDS
PUBLIC	?_Tidy@?$vector@UAttackAttribute@@V?$allocator@UAttackAttribute@@@std@@@std@@IAEXXZ ; std::vector<AttackAttribute,std::allocator<AttackAttribute> >::_Tidy
; Function compile flags: /Ogsp
;	COMDAT ?_Tidy@?$vector@UAttackAttribute@@V?$allocator@UAttackAttribute@@@std@@@std@@IAEXXZ
_TEXT	SEGMENT
?_Tidy@?$vector@UAttackAttribute@@V?$allocator@UAttackAttribute@@@std@@@std@@IAEXXZ PROC ; std::vector<AttackAttribute,std::allocator<AttackAttribute> >::_Tidy, COMDAT
; _this$ = ecx

; 1301 : 		{	// free all storage

  00000	56		 push	 esi
  00001	8b f1		 mov	 esi, ecx

; 1302 : 		if (this->_Myfirst != 0)

  00003	83 3e 00	 cmp	 DWORD PTR [esi], 0
  00006	74 27		 je	 SHORT $LN24@Tidy@4

; 1303 : 			{	// something to free, destroy and deallocate it
; 1304 : 			this->_Orphan_all();

  00008	53		 push	 ebx
  00009	57		 push	 edi
  0000a	ff 15 00 00 00
	00		 call	 DWORD PTR __imp_?_Orphan_all@_Container_base0@std@@QAEXXZ

; 1305 : 			_Destroy(this->_Myfirst, this->_Mylast);

  00010	8b 5e 04	 mov	 ebx, DWORD PTR [esi+4]
  00013	8b 3e		 mov	 edi, DWORD PTR [esi]
  00015	eb 0a		 jmp	 SHORT $LN28@Tidy@4
$LL12@Tidy@4:
  00017	8b cf		 mov	 ecx, edi
  00019	e8 00 00 00 00	 call	 ??1AttackAttribute@@QAE@XZ
  0001e	83 c7 50	 add	 edi, 80			; 00000050H
$LN28@Tidy@4:
  00021	3b fb		 cmp	 edi, ebx
  00023	75 f2		 jne	 SHORT $LL12@Tidy@4

; 1306 : 			this->_Alval.deallocate(this->_Myfirst,
; 1307 : 				this->_Myend - this->_Myfirst);

  00025	ff 36		 push	 DWORD PTR [esi]
  00027	e8 00 00 00 00	 call	 ??3@YAXPAX@Z		; operator delete
  0002c	59		 pop	 ecx
  0002d	5f		 pop	 edi
  0002e	5b		 pop	 ebx
$LN24@Tidy@4:

; 1308 : 			}
; 1309 : 		this->_Myfirst = 0;

  0002f	33 c0		 xor	 eax, eax
  00031	89 06		 mov	 DWORD PTR [esi], eax

; 1310 : 		this->_Mylast = 0;

  00033	89 46 04	 mov	 DWORD PTR [esi+4], eax

; 1311 : 		this->_Myend = 0;

  00036	89 46 08	 mov	 DWORD PTR [esi+8], eax
  00039	5e		 pop	 esi

; 1312 : 		}

  0003a	c3		 ret	 0
?_Tidy@?$vector@UAttackAttribute@@V?$allocator@UAttackAttribute@@@std@@@std@@IAEXXZ ENDP ; std::vector<AttackAttribute,std::allocator<AttackAttribute> >::_Tidy
_TEXT	ENDS
PUBLIC	??0?$vector@UAttackAttribute@@V?$allocator@UAttackAttribute@@@std@@@std@@QAE@ABV01@@Z ; std::vector<AttackAttribute,std::allocator<AttackAttribute> >::vector<AttackAttribute,std::allocator<AttackAttribute> >
;	COMDAT xdata$x
; File c:\program files (x86)\microsoft visual studio 10.0\vc\include\xutility
xdata$x	SEGMENT
__catchsym$??0?$vector@UAttackAttribute@@V?$allocator@UAttackAttribute@@@std@@@std@@QAE@ABV01@@Z$2 DD 040H
	DD	00H
	DD	00H
	DD	FLAT:__catch$??0?$vector@UAttackAttribute@@V?$allocator@UAttackAttribute@@@std@@@std@@QAE@ABV01@@Z$0
__unwindtable$??0?$vector@UAttackAttribute@@V?$allocator@UAttackAttribute@@@std@@@std@@QAE@ABV01@@Z DD 0ffffffffH
	DD	00H
	DD	0ffffffffH
	DD	00H
__tryblocktable$??0?$vector@UAttackAttribute@@V?$allocator@UAttackAttribute@@@std@@@std@@QAE@ABV01@@Z DD 00H
	DD	00H
	DD	01H
	DD	01H
	DD	FLAT:__catchsym$??0?$vector@UAttackAttribute@@V?$allocator@UAttackAttribute@@@std@@@std@@QAE@ABV01@@Z$2
__ehfuncinfo$??0?$vector@UAttackAttribute@@V?$allocator@UAttackAttribute@@@std@@@std@@QAE@ABV01@@Z DD 019930522H
	DD	02H
	DD	FLAT:__unwindtable$??0?$vector@UAttackAttribute@@V?$allocator@UAttackAttribute@@@std@@@std@@QAE@ABV01@@Z
	DD	01H
	DD	FLAT:__tryblocktable$??0?$vector@UAttackAttribute@@V?$allocator@UAttackAttribute@@@std@@@std@@QAE@ABV01@@Z
	DD	2 DUP(00H)
	DD	00H
	DD	01H
; Function compile flags: /Ogsp
; File c:\program files (x86)\microsoft visual studio 10.0\vc\include\vector
xdata$x	ENDS
;	COMDAT ??0?$vector@UAttackAttribute@@V?$allocator@UAttackAttribute@@@std@@@std@@QAE@ABV01@@Z
_TEXT	SEGMENT
_this$ = -20						; size = 4
__$EHRec$ = -16						; size = 16
__Cat$603705 = 8					; size = 1
__Right$ = 8						; size = 4
??0?$vector@UAttackAttribute@@V?$allocator@UAttackAttribute@@@std@@@std@@QAE@ABV01@@Z PROC ; std::vector<AttackAttribute,std::allocator<AttackAttribute> >::vector<AttackAttribute,std::allocator<AttackAttribute> >, COMDAT
; _this$ = ecx

; 535  : 		{	// construct by copying _Right

  00000	6a 08		 push	 8
  00002	b8 00 00 00 00	 mov	 eax, __ehhandler$??0?$vector@UAttackAttribute@@V?$allocator@UAttackAttribute@@@std@@@std@@QAE@ABV01@@Z
  00007	e8 00 00 00 00	 call	 __EH_prolog3_catch
  0000c	8b f1		 mov	 esi, ecx
  0000e	89 75 ec	 mov	 DWORD PTR _this$[ebp], esi

; 536  : 		if (_Buy(_Right.size()))

  00011	8b 7d 08	 mov	 edi, DWORD PTR __Right$[ebp]
  00014	33 db		 xor	 ebx, ebx
  00016	89 1e		 mov	 DWORD PTR [esi], ebx
  00018	89 5e 04	 mov	 DWORD PTR [esi+4], ebx
  0001b	89 5e 08	 mov	 DWORD PTR [esi+8], ebx
  0001e	8b 47 04	 mov	 eax, DWORD PTR [edi+4]
  00021	2b 07		 sub	 eax, DWORD PTR [edi]
  00023	6a 50		 push	 80			; 00000050H
  00025	59		 pop	 ecx
  00026	99		 cdq
  00027	f7 f9		 idiv	 ecx
  00029	8b ce		 mov	 ecx, esi
  0002b	50		 push	 eax
  0002c	e8 00 00 00 00	 call	 ?_Buy@?$vector@UAttackAttribute@@V?$allocator@UAttackAttribute@@@std@@@std@@IAE_NI@Z ; std::vector<AttackAttribute,std::allocator<AttackAttribute> >::_Buy
  00031	84 c0		 test	 al, al
  00033	74 1f		 je	 SHORT $LN7@vector@4

; 537  : 			_TRY_BEGIN
; 538  : 			this->_Mylast = _Ucopy(_Right.begin(), _Right.end(),
; 539  : 				this->_Myfirst);

  00035	ff 75 08	 push	 DWORD PTR __Cat$603705[ebp]
  00038	8b 0e		 mov	 ecx, DWORD PTR [esi]
  0003a	8b 47 04	 mov	 eax, DWORD PTR [edi+4]
  0003d	8b 3f		 mov	 edi, DWORD PTR [edi]
  0003f	8d 56 0c	 lea	 edx, DWORD PTR [esi+12]
  00042	52		 push	 edx
  00043	51		 push	 ecx
  00044	50		 push	 eax
  00045	57		 push	 edi
  00046	89 5d fc	 mov	 DWORD PTR __$EHRec$[ebp+12], ebx
  00049	e8 00 00 00 00	 call	 ??$_Uninit_copy@V?$_Vector_const_iterator@V?$_Vector_val@UAttackAttribute@@V?$allocator@UAttackAttribute@@@std@@@std@@@std@@PAUAttackAttribute@@V?$allocator@UAttackAttribute@@@2@@std@@YAPAUAttackAttribute@@V?$_Vector_const_iterator@V?$_Vector_val@UAttackAttribute@@V?$allocator@UAttackAttribute@@@std@@@std@@@0@0PAU1@AAV?$allocator@UAttackAttribute@@@0@U_Nonscalar_ptr_iterator_tag@0@@Z ; std::_Uninit_copy<std::_Vector_const_iterator<std::_Vector_val<AttackAttribute,std::allocator<AttackAttribute> > >,AttackAttribute *,std::allocator<AttackAttribute> >
  0004e	83 c4 14	 add	 esp, 20			; 00000014H
  00051	89 46 04	 mov	 DWORD PTR [esi+4], eax
$LN7@vector@4:

; 543  : 			_CATCH_END
; 544  : 		}

  00054	8b c6		 mov	 eax, esi
  00056	e8 00 00 00 00	 call	 __EH_epilog3
  0005b	c2 04 00	 ret	 4
__catch$??0?$vector@UAttackAttribute@@V?$allocator@UAttackAttribute@@@std@@@std@@QAE@ABV01@@Z$0:

; 540  : 			_CATCH_ALL
; 541  : 			_Tidy();

  0005e	8b 4d ec	 mov	 ecx, DWORD PTR _this$[ebp]
  00061	e8 00 00 00 00	 call	 ?_Tidy@?$vector@UAttackAttribute@@V?$allocator@UAttackAttribute@@@std@@@std@@IAEXXZ ; std::vector<AttackAttribute,std::allocator<AttackAttribute> >::_Tidy

; 542  : 			_RERAISE;

  00066	33 db		 xor	 ebx, ebx
  00068	53		 push	 ebx
  00069	53		 push	 ebx
  0006a	e8 00 00 00 00	 call	 __CxxThrowException@8
$LN38@vector@4:
$LN37@vector@4:
  0006f	cc		 int	 3
_TEXT	ENDS
;	COMDAT text$x
text$x	SEGMENT
__ehhandler$??0?$vector@UAttackAttribute@@V?$allocator@UAttackAttribute@@@std@@@std@@QAE@ABV01@@Z:
  00000	8b 54 24 08	 mov	 edx, DWORD PTR [esp+8]
  00004	8d 42 0c	 lea	 eax, DWORD PTR [edx+12]
  00007	8b 4a e8	 mov	 ecx, DWORD PTR [edx-24]
  0000a	33 c8		 xor	 ecx, eax
  0000c	e8 00 00 00 00	 call	 @__security_check_cookie@4
  00011	b8 00 00 00 00	 mov	 eax, OFFSET __ehfuncinfo$??0?$vector@UAttackAttribute@@V?$allocator@UAttackAttribute@@@std@@@std@@QAE@ABV01@@Z
  00016	e9 00 00 00 00	 jmp	 ___CxxFrameHandler3
text$x	ENDS
??0?$vector@UAttackAttribute@@V?$allocator@UAttackAttribute@@@std@@@std@@QAE@ABV01@@Z ENDP ; std::vector<AttackAttribute,std::allocator<AttackAttribute> >::vector<AttackAttribute,std::allocator<AttackAttribute> >
PUBLIC	?_Reserve@?$vector@UAttackAttribute@@V?$allocator@UAttackAttribute@@@std@@@std@@IAEXI@Z ; std::vector<AttackAttribute,std::allocator<AttackAttribute> >::_Reserve
; Function compile flags: /Ogsp
;	COMDAT ?_Reserve@?$vector@UAttackAttribute@@V?$allocator@UAttackAttribute@@@std@@@std@@IAEXI@Z
_TEXT	SEGMENT
__Count$ = 8						; size = 4
?_Reserve@?$vector@UAttackAttribute@@V?$allocator@UAttackAttribute@@@std@@@std@@IAEXI@Z PROC ; std::vector<AttackAttribute,std::allocator<AttackAttribute> >::_Reserve, COMDAT
; _this$ = ecx

; 1290 : 		{	// ensure room for _Count new elements, grow exponentially

  00000	55		 push	 ebp
  00001	8b ec		 mov	 ebp, esp
  00003	56		 push	 esi
  00004	8b f1		 mov	 esi, ecx

; 1291 : 		size_type _Size = size();

  00006	8b 0e		 mov	 ecx, DWORD PTR [esi]
  00008	8b 46 04	 mov	 eax, DWORD PTR [esi+4]
  0000b	2b c1		 sub	 eax, ecx
  0000d	57		 push	 edi
  0000e	99		 cdq
  0000f	6a 50		 push	 80			; 00000050H
  00011	5f		 pop	 edi
  00012	f7 ff		 idiv	 edi
  00014	8b f8		 mov	 edi, eax

; 1292 : 		if (max_size() - _Count < _Size)

  00016	b8 33 33 33 03	 mov	 eax, 53687091		; 03333333H
  0001b	2b 45 08	 sub	 eax, DWORD PTR __Count$[ebp]
  0001e	3b c7		 cmp	 eax, edi
  00020	73 0b		 jae	 SHORT $LN4@Reserve@2

; 1293 : 			_Xlen();

  00022	68 00 00 00 00	 push	 OFFSET ??_C@_0BD@OLBABOEK@vector?$DMT?$DO?5too?5long?$AA@
  00027	ff 15 00 00 00
	00		 call	 DWORD PTR __imp_?_Xlength_error@std@@YAXPBD@Z
$LN21@Reserve@2:
$LN4@Reserve@2:

; 1294 : 		else if ((_Size += _Count) <= capacity())

  0002d	8b 46 08	 mov	 eax, DWORD PTR [esi+8]
  00030	2b c1		 sub	 eax, ecx
  00032	6a 50		 push	 80			; 00000050H
  00034	99		 cdq
  00035	59		 pop	 ecx
  00036	f7 f9		 idiv	 ecx
  00038	03 7d 08	 add	 edi, DWORD PTR __Count$[ebp]
  0003b	3b f8		 cmp	 edi, eax
  0003d	76 10		 jbe	 SHORT $LN1@Reserve@2

; 1295 : 			;
; 1296 : 		else
; 1297 : 			reserve(_Grow_to(_Size));

  0003f	57		 push	 edi
  00040	8b ce		 mov	 ecx, esi
  00042	e8 00 00 00 00	 call	 ?_Grow_to@?$vector@UAttackAttribute@@V?$allocator@UAttackAttribute@@@std@@@std@@IBEII@Z ; std::vector<AttackAttribute,std::allocator<AttackAttribute> >::_Grow_to
  00047	50		 push	 eax
  00048	8b ce		 mov	 ecx, esi
  0004a	e8 00 00 00 00	 call	 ?reserve@?$vector@UAttackAttribute@@V?$allocator@UAttackAttribute@@@std@@@std@@QAEXI@Z ; std::vector<AttackAttribute,std::allocator<AttackAttribute> >::reserve
$LN1@Reserve@2:
  0004f	5f		 pop	 edi
  00050	5e		 pop	 esi

; 1298 : 		}

  00051	5d		 pop	 ebp
  00052	c2 04 00	 ret	 4
$LN20@Reserve@2:
?_Reserve@?$vector@UAttackAttribute@@V?$allocator@UAttackAttribute@@@std@@@std@@IAEXI@Z ENDP ; std::vector<AttackAttribute,std::allocator<AttackAttribute> >::_Reserve
_TEXT	ENDS
PUBLIC	??1?$vector@UAttackAttribute@@V?$allocator@UAttackAttribute@@@std@@@std@@QAE@XZ ; std::vector<AttackAttribute,std::allocator<AttackAttribute> >::~vector<AttackAttribute,std::allocator<AttackAttribute> >
; Function compile flags: /Ogsp
;	COMDAT ??1?$vector@UAttackAttribute@@V?$allocator@UAttackAttribute@@@std@@@std@@QAE@XZ
_TEXT	SEGMENT
??1?$vector@UAttackAttribute@@V?$allocator@UAttackAttribute@@@std@@@std@@QAE@XZ PROC ; std::vector<AttackAttribute,std::allocator<AttackAttribute> >::~vector<AttackAttribute,std::allocator<AttackAttribute> >, COMDAT
; _this$ = ecx

; 705  : 		_Tidy();

  00000	e9 00 00 00 00	 jmp	 ?_Tidy@?$vector@UAttackAttribute@@V?$allocator@UAttackAttribute@@@std@@@std@@IAEXXZ ; std::vector<AttackAttribute,std::allocator<AttackAttribute> >::_Tidy
??1?$vector@UAttackAttribute@@V?$allocator@UAttackAttribute@@@std@@@std@@QAE@XZ ENDP ; std::vector<AttackAttribute,std::allocator<AttackAttribute> >::~vector<AttackAttribute,std::allocator<AttackAttribute> >
_TEXT	ENDS
PUBLIC	?clear@?$vector@UAttackAttribute@@V?$allocator@UAttackAttribute@@@std@@@std@@QAEXXZ ; std::vector<AttackAttribute,std::allocator<AttackAttribute> >::clear
; Function compile flags: /Ogsp
;	COMDAT ?clear@?$vector@UAttackAttribute@@V?$allocator@UAttackAttribute@@@std@@@std@@QAEXXZ
_TEXT	SEGMENT
$T603764 = -4						; size = 4
?clear@?$vector@UAttackAttribute@@V?$allocator@UAttackAttribute@@@std@@@std@@QAEXXZ PROC ; std::vector<AttackAttribute,std::allocator<AttackAttribute> >::clear, COMDAT
; _this$ = ecx

; 1217 : 		{	// erase all

  00000	55		 push	 ebp
  00001	8b ec		 mov	 ebp, esp
  00003	51		 push	 ecx

; 1218 : 		erase(begin(), end());

  00004	8b 41 04	 mov	 eax, DWORD PTR [ecx+4]
  00007	8b 11		 mov	 edx, DWORD PTR [ecx]
  00009	50		 push	 eax
  0000a	52		 push	 edx
  0000b	8d 45 fc	 lea	 eax, DWORD PTR $T603764[ebp]
  0000e	50		 push	 eax
  0000f	e8 00 00 00 00	 call	 ?erase@?$vector@UAttackAttribute@@V?$allocator@UAttackAttribute@@@std@@@std@@QAE?AV?$_Vector_iterator@V?$_Vector_val@UAttackAttribute@@V?$allocator@UAttackAttribute@@@std@@@std@@@2@V?$_Vector_const_iterator@V?$_Vector_val@UAttackAttribute@@V?$allocator@UAttackAttribute@@@std@@@std@@@2@0@Z ; std::vector<AttackAttribute,std::allocator<AttackAttribute> >::erase

; 1219 : 		}

  00014	c9		 leave
  00015	c3		 ret	 0
?clear@?$vector@UAttackAttribute@@V?$allocator@UAttackAttribute@@@std@@@std@@QAEXXZ ENDP ; std::vector<AttackAttribute,std::allocator<AttackAttribute> >::clear
_TEXT	ENDS
PUBLIC	??_7ioParkilpyoJump@@6B@			; ioParkilpyoJump::`vftable'
PUBLIC	??0ioParkilpyoJump@@QAE@XZ			; ioParkilpyoJump::ioParkilpyoJump
PUBLIC	??_R4ioParkilpyoJump@@6B@			; ioParkilpyoJump::`RTTI Complete Object Locator'
PUBLIC	??_R0?AVioParkilpyoJump@@@8			; ioParkilpyoJump `RTTI Type Descriptor'
PUBLIC	??_R3ioParkilpyoJump@@8				; ioParkilpyoJump::`RTTI Class Hierarchy Descriptor'
PUBLIC	??_R2ioParkilpyoJump@@8				; ioParkilpyoJump::`RTTI Base Class Array'
PUBLIC	??_R1A@?0A@EA@ioParkilpyoJump@@8		; ioParkilpyoJump::`RTTI Base Class Descriptor at (0,-1,0,64)'
PUBLIC	??_R1A@?0A@EA@ioExtendJump@@8			; ioExtendJump::`RTTI Base Class Descriptor at (0,-1,0,64)'
PUBLIC	??_R0?AVioExtendJump@@@8			; ioExtendJump `RTTI Type Descriptor'
PUBLIC	??_R3ioExtendJump@@8				; ioExtendJump::`RTTI Class Hierarchy Descriptor'
PUBLIC	??_R2ioExtendJump@@8				; ioExtendJump::`RTTI Base Class Array'
PUBLIC	?LoadProperty@ioParkilpyoJump@@UAEXAAVioINILoader@@@Z ; ioParkilpyoJump::LoadProperty
PUBLIC	?Clone@ioParkilpyoJump@@UAEPAVioExtendJump@@XZ	; ioParkilpyoJump::Clone
EXTRN	??1ioExtendJump@@UAE@XZ:PROC			; ioExtendJump::~ioExtendJump
EXTRN	??0ioExtendJump@@QAE@XZ:PROC			; ioExtendJump::ioExtendJump
EXTRN	?SetJumpState@ioExtendJump@@UAEXXZ:PROC		; ioExtendJump::SetJumpState
EXTRN	?ProcessJumpReady@ioExtendJump@@UAEXPAVioBaseChar@@@Z:PROC ; ioExtendJump::ProcessJumpReady
EXTRN	?SetJumpAttack@ioExtendJump@@UAEXPAVioBaseChar@@HM@Z:PROC ; ioExtendJump::SetJumpAttack
EXTRN	?ProcessLanding@ioExtendJump@@UAEXPAVioBaseChar@@@Z:PROC ; ioExtendJump::ProcessLanding
EXTRN	?ProcessAimJump@ioExtendJump@@UAE_NPAVioBaseChar@@M@Z:PROC ; ioExtendJump::ProcessAimJump
EXTRN	?OnEndExtendJump@ioExtendJump@@UAEXPAVioBaseChar@@@Z:PROC ; ioExtendJump::OnEndExtendJump
EXTRN	?GetChargingTime@ioExtendJump@@UAEKPAVioBaseChar@@@Z:PROC ; ioExtendJump::GetChargingTime
EXTRN	?GetJumpAniDefenseWounded@ioExtendJump@@UAE?AVioHashString@@XZ:PROC ; ioExtendJump::GetJumpAniDefenseWounded
EXTRN	?GetJumpAniDefenseCriticalWounded@ioExtendJump@@UAE?AVioHashString@@XZ:PROC ; ioExtendJump::GetJumpAniDefenseCriticalWounded
EXTRN	?IsCanJumpingSkill@ioExtendJump@@UAE_NPAVioBaseChar@@@Z:PROC ; ioExtendJump::IsCanJumpingSkill
EXTRN	?IsCanJumpAttack@ioExtendJump@@UAE_NPAVioBaseChar@@@Z:PROC ; ioExtendJump::IsCanJumpAttack
EXTRN	?IsEnableLandAfterState@ioExtendJump@@UAE_NXZ:PROC ; ioExtendJump::IsEnableLandAfterState
EXTRN	?IsEnableJumpLandEndDash@ioExtendJump@@UAE_NXZ:PROC ; ioExtendJump::IsEnableJumpLandEndDash
EXTRN	?IsEnableJumpDash@ioExtendJump@@UAE_NPAVioBaseChar@@@Z:PROC ; ioExtendJump::IsEnableJumpDash
EXTRN	?GetLandAfterAni@ioExtendJump@@UAEABVioHashString@@_N@Z:PROC ; ioExtendJump::GetLandAfterAni
EXTRN	?GetLandAfterAniRate@ioExtendJump@@UAEM_N@Z:PROC ; ioExtendJump::GetLandAfterAniRate
EXTRN	?SetNextJumpItemState@ioExtendJump@@UAEXPAVioBaseChar@@0_NW4ChangeNextItemType@@PAVioWeapon@@M@Z:PROC ; ioExtendJump::SetNextJumpItemState
EXTRN	?SetExtraJump@ioExtendJump@@UAEXPAVioBaseChar@@@Z:PROC ; ioExtendJump::SetExtraJump
EXTRN	?ProcessExtraJump@ioExtendJump@@UAEXPAVioBaseChar@@@Z:PROC ; ioExtendJump::ProcessExtraJump
EXTRN	?ClearAirJump@ioExtendJump@@MAEXXZ:PROC		; ioExtendJump::ClearAirJump
EXTRN	?SetAirJump@ioExtendJump@@MAEXPAVioBaseChar@@HM@Z:PROC ; ioExtendJump::SetAirJump
EXTRN	?CheckAirJump@ioExtendJump@@MAEXPAVioBaseChar@@@Z:PROC ; ioExtendJump::CheckAirJump
EXTRN	?CheckCanUseBuffAirDash@ioExtendJump@@UAE_NXZ:PROC ; ioExtendJump::CheckCanUseBuffAirDash
EXTRN	?CheckKeyReserveTime@ioExtendJump@@MAEMPAVioBaseChar@@HMK@Z:PROC ; ioExtendJump::CheckKeyReserveTime
EXTRN	?CheckKeyReserve@ioExtendJump@@MAEXPAVioBaseChar@@@Z:PROC ; ioExtendJump::CheckKeyReserve
EXTRN	?CheckUseExtendJump@ioExtendJump@@UAE_NPAVioBaseChar@@@Z:PROC ; ioExtendJump::CheckUseExtendJump
EXTRN	?IsBuffFlyChange@ioExtendJump@@UAE_NPAVioBaseChar@@@Z:PROC ; ioExtendJump::IsBuffFlyChange
EXTRN	?IsNoProcessMove@ioExtendJump@@UAE_NXZ:PROC	; ioExtendJump::IsNoProcessMove
EXTRN	??_EioParkilpyoJump@@UAEPAXI@Z:PROC		; ioParkilpyoJump::`vector deleting destructor'
;	COMDAT ??_R2ioExtendJump@@8
; File c:\program files (x86)\microsoft visual studio 10.0\vc\include\xmemory
rdata$r	SEGMENT
??_R2ioExtendJump@@8 DD FLAT:??_R1A@?0A@EA@ioExtendJump@@8 ; ioExtendJump::`RTTI Base Class Array'
rdata$r	ENDS
;	COMDAT ??_R3ioExtendJump@@8
rdata$r	SEGMENT
??_R3ioExtendJump@@8 DD 00H				; ioExtendJump::`RTTI Class Hierarchy Descriptor'
	DD	00H
	DD	01H
	DD	FLAT:??_R2ioExtendJump@@8
rdata$r	ENDS
;	COMDAT ??_R0?AVioExtendJump@@@8
_DATA	SEGMENT
??_R0?AVioExtendJump@@@8 DD FLAT:??_7type_info@@6B@	; ioExtendJump `RTTI Type Descriptor'
	DD	00H
	DB	'.?AVioExtendJump@@', 00H
_DATA	ENDS
;	COMDAT ??_R1A@?0A@EA@ioExtendJump@@8
rdata$r	SEGMENT
??_R1A@?0A@EA@ioExtendJump@@8 DD FLAT:??_R0?AVioExtendJump@@@8 ; ioExtendJump::`RTTI Base Class Descriptor at (0,-1,0,64)'
	DD	00H
	DD	00H
	DD	0ffffffffH
	DD	00H
	DD	040H
	DD	FLAT:??_R3ioExtendJump@@8
rdata$r	ENDS
;	COMDAT ??_R1A@?0A@EA@ioParkilpyoJump@@8
rdata$r	SEGMENT
??_R1A@?0A@EA@ioParkilpyoJump@@8 DD FLAT:??_R0?AVioParkilpyoJump@@@8 ; ioParkilpyoJump::`RTTI Base Class Descriptor at (0,-1,0,64)'
	DD	01H
	DD	00H
	DD	0ffffffffH
	DD	00H
	DD	040H
	DD	FLAT:??_R3ioParkilpyoJump@@8
rdata$r	ENDS
;	COMDAT ??_R2ioParkilpyoJump@@8
rdata$r	SEGMENT
??_R2ioParkilpyoJump@@8 DD FLAT:??_R1A@?0A@EA@ioParkilpyoJump@@8 ; ioParkilpyoJump::`RTTI Base Class Array'
	DD	FLAT:??_R1A@?0A@EA@ioExtendJump@@8
rdata$r	ENDS
;	COMDAT ??_R3ioParkilpyoJump@@8
rdata$r	SEGMENT
??_R3ioParkilpyoJump@@8 DD 00H				; ioParkilpyoJump::`RTTI Class Hierarchy Descriptor'
	DD	00H
	DD	02H
	DD	FLAT:??_R2ioParkilpyoJump@@8
rdata$r	ENDS
;	COMDAT ??_R0?AVioParkilpyoJump@@@8
_DATA	SEGMENT
??_R0?AVioParkilpyoJump@@@8 DD FLAT:??_7type_info@@6B@	; ioParkilpyoJump `RTTI Type Descriptor'
	DD	00H
	DB	'.?AVioParkilpyoJump@@', 00H
_DATA	ENDS
;	COMDAT ??_R4ioParkilpyoJump@@6B@
rdata$r	SEGMENT
??_R4ioParkilpyoJump@@6B@ DD 00H			; ioParkilpyoJump::`RTTI Complete Object Locator'
	DD	00H
	DD	00H
	DD	FLAT:??_R0?AVioParkilpyoJump@@@8
	DD	FLAT:??_R3ioParkilpyoJump@@8
rdata$r	ENDS
;	COMDAT ??_7ioParkilpyoJump@@6B@
CONST	SEGMENT
??_7ioParkilpyoJump@@6B@ DD FLAT:??_R4ioParkilpyoJump@@6B@ ; ioParkilpyoJump::`vftable'
	DD	FLAT:?LoadProperty@ioParkilpyoJump@@UAEXAAVioINILoader@@@Z
	DD	FLAT:?Clone@ioParkilpyoJump@@UAEPAVioExtendJump@@XZ
	DD	FLAT:?GetType@ioParkilpyoJump@@UBE?AW4JumpType@@XZ
	DD	FLAT:?SetJumpState@ioExtendJump@@UAEXXZ
	DD	FLAT:?ProcessJumpReady@ioExtendJump@@UAEXPAVioBaseChar@@@Z
	DD	FLAT:?SetJumpping@ioParkilpyoJump@@UAEXPAVioBaseChar@@_N@Z
	DD	FLAT:?SetJumpAttack@ioExtendJump@@UAEXPAVioBaseChar@@HM@Z
	DD	FLAT:?ProcessJumpping@ioParkilpyoJump@@UAEXPAVioBaseChar@@MM@Z
	DD	FLAT:?ProcessLanding@ioExtendJump@@UAEXPAVioBaseChar@@@Z
	DD	FLAT:?ProcessJumpAttack@ioParkilpyoJump@@UAEXPAVioBaseChar@@M@Z
	DD	FLAT:?ProcessAimJump@ioExtendJump@@UAE_NPAVioBaseChar@@M@Z
	DD	FLAT:?ApplyJump@ioParkilpyoJump@@UAEXPAVioBaseChar@@AAVSP2Packet@@@Z
	DD	FLAT:?OnEndExtendJump@ioExtendJump@@UAEXPAVioBaseChar@@@Z
	DD	FLAT:?CheckComboJumpAttack@ioParkilpyoJump@@UAEXPAVioBaseChar@@@Z
	DD	FLAT:?GetChargingTime@ioExtendJump@@UAEKPAVioBaseChar@@@Z
	DD	FLAT:?GetJumpAniDefenseWounded@ioExtendJump@@UAE?AVioHashString@@XZ
	DD	FLAT:?GetJumpAniDefenseCriticalWounded@ioExtendJump@@UAE?AVioHashString@@XZ
	DD	FLAT:?IsCanJumpingSkill@ioExtendJump@@UAE_NPAVioBaseChar@@@Z
	DD	FLAT:?GetExtraJumpSpeedRate@ioParkilpyoJump@@UBEMABUD3DXVECTOR3@@ABUD3DXQUATERNION@@@Z
	DD	FLAT:?SetLandingState@ioParkilpyoJump@@UAEXPAVioBaseChar@@@Z
	DD	FLAT:?IsCanJumpAttack@ioExtendJump@@UAE_NPAVioBaseChar@@@Z
	DD	FLAT:?IsEnableLandAfterState@ioExtendJump@@UAE_NXZ
	DD	FLAT:?IsEnableJumpLandEndDash@ioExtendJump@@UAE_NXZ
	DD	FLAT:?IsEnableJumpDash@ioExtendJump@@UAE_NPAVioBaseChar@@@Z
	DD	FLAT:?GetLandAfterAni@ioExtendJump@@UAEABVioHashString@@_N@Z
	DD	FLAT:?GetLandAfterAniRate@ioExtendJump@@UAEM_N@Z
	DD	FLAT:?SetNextJumpItemState@ioExtendJump@@UAEXPAVioBaseChar@@0_NW4ChangeNextItemType@@PAVioWeapon@@M@Z
	DD	FLAT:?SetExtraJump@ioExtendJump@@UAEXPAVioBaseChar@@@Z
	DD	FLAT:?ProcessExtraJump@ioExtendJump@@UAEXPAVioBaseChar@@@Z
	DD	FLAT:?ClearAirJump@ioExtendJump@@MAEXXZ
	DD	FLAT:?SetAirJump@ioExtendJump@@MAEXPAVioBaseChar@@HM@Z
	DD	FLAT:?CheckAirJump@ioExtendJump@@MAEXPAVioBaseChar@@@Z
	DD	FLAT:?CheckCanUseBuffAirDash@ioExtendJump@@UAE_NXZ
	DD	FLAT:?CheckKeyReserveTime@ioExtendJump@@MAEMPAVioBaseChar@@HMK@Z
	DD	FLAT:?CheckKeyReserve@ioExtendJump@@MAEXPAVioBaseChar@@@Z
	DD	FLAT:?CheckUseExtendJump@ioExtendJump@@UAE_NPAVioBaseChar@@@Z
	DD	FLAT:?IsBuffFlyChange@ioExtendJump@@UAE_NPAVioBaseChar@@@Z
	DD	FLAT:?IsNoProcessMove@ioExtendJump@@UAE_NXZ
	DD	FLAT:??_EioParkilpyoJump@@UAEPAXI@Z
CONST	ENDS
;	COMDAT xdata$x
xdata$x	SEGMENT
__ehfuncinfo$??0ioParkilpyoJump@@QAE@XZ DD 019930522H
	DD	05H
	DD	FLAT:__unwindtable$??0ioParkilpyoJump@@QAE@XZ
	DD	2 DUP(00H)
	DD	2 DUP(00H)
	DD	00H
	DD	01H
__unwindtable$??0ioParkilpyoJump@@QAE@XZ DD 0ffffffffH
	DD	FLAT:__unwindfunclet$??0ioParkilpyoJump@@QAE@XZ$0
	DD	00H
	DD	FLAT:__unwindfunclet$??0ioParkilpyoJump@@QAE@XZ$1
	DD	01H
	DD	FLAT:__unwindfunclet$??0ioParkilpyoJump@@QAE@XZ$2
	DD	02H
	DD	FLAT:__unwindfunclet$??0ioParkilpyoJump@@QAE@XZ$3
	DD	03H
	DD	FLAT:__unwindfunclet$??0ioParkilpyoJump@@QAE@XZ$4
; Function compile flags: /Ogsp
; File d:\lost saga for developer\youtube\tutorial\source\src\lsclient\ioparkilpyojump.cpp
xdata$x	ENDS
;	COMDAT ??0ioParkilpyoJump@@QAE@XZ
_TEXT	SEGMENT
_this$ = -16						; size = 4
__$EHRec$ = -12						; size = 12
??0ioParkilpyoJump@@QAE@XZ PROC				; ioParkilpyoJump::ioParkilpyoJump, COMDAT
; _this$ = ecx

; 12   : {

  00000	6a 04		 push	 4
  00002	b8 00 00 00 00	 mov	 eax, __ehhandler$??0ioParkilpyoJump@@QAE@XZ
  00007	e8 00 00 00 00	 call	 __EH_prolog3
  0000c	8b f1		 mov	 esi, ecx
  0000e	89 75 f0	 mov	 DWORD PTR _this$[ebp], esi
  00011	e8 00 00 00 00	 call	 ??0ioExtendJump@@QAE@XZ	; ioExtendJump::ioExtendJump
  00016	8b 3d 00 00 00
	00		 mov	 edi, DWORD PTR __imp_??0ioHashString@@QAE@XZ
  0001c	33 db		 xor	 ebx, ebx
  0001e	8d 8e 28 01 00
	00		 lea	 ecx, DWORD PTR [esi+296]
  00024	89 5d fc	 mov	 DWORD PTR __$EHRec$[ebp+8], ebx
  00027	c7 06 00 00 00
	00		 mov	 DWORD PTR [esi], OFFSET ??_7ioParkilpyoJump@@6B@
  0002d	ff d7		 call	 edi
  0002f	8d 8e 3c 01 00
	00		 lea	 ecx, DWORD PTR [esi+316]
  00035	c6 45 fc 01	 mov	 BYTE PTR __$EHRec$[ebp+8], 1
  00039	ff d7		 call	 edi
  0003b	89 9e 4c 01 00
	00		 mov	 DWORD PTR [esi+332], ebx
  00041	89 9e 50 01 00
	00		 mov	 DWORD PTR [esi+336], ebx
  00047	89 9e 54 01 00
	00		 mov	 DWORD PTR [esi+340], ebx
  0004d	89 9e 7c 01 00
	00		 mov	 DWORD PTR [esi+380], ebx
  00053	89 9e 80 01 00
	00		 mov	 DWORD PTR [esi+384], ebx
  00059	89 9e 84 01 00
	00		 mov	 DWORD PTR [esi+388], ebx
  0005f	8d 8e 9c 01 00
	00		 lea	 ecx, DWORD PTR [esi+412]
  00065	c6 45 fc 04	 mov	 BYTE PTR __$EHRec$[ebp+8], 4
  00069	e8 00 00 00 00	 call	 ??0AttackAttribute@@QAE@XZ ; AttackAttribute::AttackAttribute

; 13   : 	m_ChargeComboState = CCS_NONE;

  0006e	89 9e f0 01 00
	00		 mov	 DWORD PTR [esi+496], ebx

; 14   : 
; 15   : 	m_bUseExtendJump = false;

  00074	88 5e 10	 mov	 BYTE PTR [esi+16], bl

; 16   : 	m_bUsedDoubleJump = false;

  00077	66 89 9e 10 02
	00 00		 mov	 WORD PTR [esi+528], bx

; 17   : 	m_bUsedChargeAttack = false;
; 18   : 
; 19   : 	// combo
; 20   : 	m_nCurComboCnt = 0;

  0007e	89 9e fc 01 00
	00		 mov	 DWORD PTR [esi+508], ebx

; 21   : 	m_dwEnableComboTime_S = 0;

  00084	89 9e 00 02 00
	00		 mov	 DWORD PTR [esi+512], ebx

; 22   : 	m_dwEnableComboTime_E = 0;

  0008a	89 9e 04 02 00
	00		 mov	 DWORD PTR [esi+516], ebx

; 23   : 
; 24   : 	m_bReserveJumpAttack = false;

  00090	88 9e 08 02 00
	00		 mov	 BYTE PTR [esi+520], bl

; 25   : 
; 26   : 	// gather
; 27   : 	m_dwChargingStartTime = 0;

  00096	89 9e f4 01 00
	00		 mov	 DWORD PTR [esi+500], ebx

; 28   : 	m_dwGatherStartTime = 0;

  0009c	89 9e f8 01 00
	00		 mov	 DWORD PTR [esi+504], ebx

; 29   : 
; 30   : 	m_dwReserveEnableTime = 0;

  000a2	89 9e e8 00 00
	00		 mov	 DWORD PTR [esi+232], ebx

; 31   : 	m_nCurJumpCnt = 1;

  000a8	c7 86 0c 02 00
	00 01 00 00 00	 mov	 DWORD PTR [esi+524], 1

; 32   : }

  000b2	8b c6		 mov	 eax, esi
  000b4	e8 00 00 00 00	 call	 __EH_epilog3
  000b9	c3		 ret	 0
_TEXT	ENDS
;	COMDAT text$x
text$x	SEGMENT
__unwindfunclet$??0ioParkilpyoJump@@QAE@XZ$0:
  00000	8b 4d f0	 mov	 ecx, DWORD PTR _this$[ebp]
  00003	e9 00 00 00 00	 jmp	 ??1ioExtendJump@@UAE@XZ	; ioExtendJump::~ioExtendJump
__unwindfunclet$??0ioParkilpyoJump@@QAE@XZ$1:
  00008	8b 4d f0	 mov	 ecx, DWORD PTR _this$[ebp]
  0000b	81 c1 28 01 00
	00		 add	 ecx, 296		; 00000128H
  00011	ff 25 00 00 00
	00		 jmp	 DWORD PTR __imp_??1ioHashString@@QAE@XZ
__unwindfunclet$??0ioParkilpyoJump@@QAE@XZ$2:
  00017	8b 4d f0	 mov	 ecx, DWORD PTR _this$[ebp]
  0001a	81 c1 3c 01 00
	00		 add	 ecx, 316		; 0000013cH
  00020	ff 25 00 00 00
	00		 jmp	 DWORD PTR __imp_??1ioHashString@@QAE@XZ
__unwindfunclet$??0ioParkilpyoJump@@QAE@XZ$3:
  00026	8b 4d f0	 mov	 ecx, DWORD PTR _this$[ebp]
  00029	81 c1 4c 01 00
	00		 add	 ecx, 332		; 0000014cH
  0002f	e9 00 00 00 00	 jmp	 ??1?$vector@UAttackAttribute@@V?$allocator@UAttackAttribute@@@std@@@std@@QAE@XZ ; std::vector<AttackAttribute,std::allocator<AttackAttribute> >::~vector<AttackAttribute,std::allocator<AttackAttribute> >
__unwindfunclet$??0ioParkilpyoJump@@QAE@XZ$4:
  00034	8b 4d f0	 mov	 ecx, DWORD PTR _this$[ebp]
  00037	81 c1 7c 01 00
	00		 add	 ecx, 380		; 0000017cH
  0003d	e9 00 00 00 00	 jmp	 ??1?$vector@VioHashString@@V?$allocator@VioHashString@@@std@@@std@@QAE@XZ ; std::vector<ioHashString,std::allocator<ioHashString> >::~vector<ioHashString,std::allocator<ioHashString> >
__ehhandler$??0ioParkilpyoJump@@QAE@XZ:
  00042	8b 54 24 08	 mov	 edx, DWORD PTR [esp+8]
  00046	8d 42 0c	 lea	 eax, DWORD PTR [edx+12]
  00049	8b 4a ec	 mov	 ecx, DWORD PTR [edx-20]
  0004c	33 c8		 xor	 ecx, eax
  0004e	e8 00 00 00 00	 call	 @__security_check_cookie@4
  00053	b8 00 00 00 00	 mov	 eax, OFFSET __ehfuncinfo$??0ioParkilpyoJump@@QAE@XZ
  00058	e9 00 00 00 00	 jmp	 ___CxxFrameHandler3
text$x	ENDS
??0ioParkilpyoJump@@QAE@XZ ENDP				; ioParkilpyoJump::ioParkilpyoJump
PUBLIC	??0ioParkilpyoJump@@QAE@ABV0@@Z			; ioParkilpyoJump::ioParkilpyoJump
EXTRN	??0ioExtendJump@@QAE@ABV0@@Z:PROC		; ioExtendJump::ioExtendJump
;	COMDAT xdata$x
xdata$x	SEGMENT
__ehfuncinfo$??0ioParkilpyoJump@@QAE@ABV0@@Z DD 019930522H
	DD	05H
	DD	FLAT:__unwindtable$??0ioParkilpyoJump@@QAE@ABV0@@Z
	DD	2 DUP(00H)
	DD	2 DUP(00H)
	DD	00H
	DD	01H
__unwindtable$??0ioParkilpyoJump@@QAE@ABV0@@Z DD 0ffffffffH
	DD	FLAT:__unwindfunclet$??0ioParkilpyoJump@@QAE@ABV0@@Z$0
	DD	00H
	DD	FLAT:__unwindfunclet$??0ioParkilpyoJump@@QAE@ABV0@@Z$1
	DD	01H
	DD	FLAT:__unwindfunclet$??0ioParkilpyoJump@@QAE@ABV0@@Z$2
	DD	02H
	DD	FLAT:__unwindfunclet$??0ioParkilpyoJump@@QAE@ABV0@@Z$3
	DD	03H
	DD	FLAT:__unwindfunclet$??0ioParkilpyoJump@@QAE@ABV0@@Z$4
; Function compile flags: /Ogsp
xdata$x	ENDS
;	COMDAT ??0ioParkilpyoJump@@QAE@ABV0@@Z
_TEXT	SEGMENT
_this$ = -16						; size = 4
__$EHRec$ = -12						; size = 12
_rhs$ = 8						; size = 4
??0ioParkilpyoJump@@QAE@ABV0@@Z PROC			; ioParkilpyoJump::ioParkilpyoJump, COMDAT
; _this$ = ecx

; 56   : {

  00000	6a 04		 push	 4
  00002	b8 00 00 00 00	 mov	 eax, __ehhandler$??0ioParkilpyoJump@@QAE@ABV0@@Z
  00007	e8 00 00 00 00	 call	 __EH_prolog3
  0000c	8b f1		 mov	 esi, ecx
  0000e	89 75 f0	 mov	 DWORD PTR _this$[ebp], esi
  00011	8b 7d 08	 mov	 edi, DWORD PTR _rhs$[ebp]
  00014	57		 push	 edi
  00015	e8 00 00 00 00	 call	 ??0ioExtendJump@@QAE@ABV0@@Z ; ioExtendJump::ioExtendJump
  0001a	c7 06 00 00 00
	00		 mov	 DWORD PTR [esi], OFFSET ??_7ioParkilpyoJump@@6B@
  00020	8b 87 24 01 00
	00		 mov	 eax, DWORD PTR [edi+292]
  00026	89 86 24 01 00
	00		 mov	 DWORD PTR [esi+292], eax
  0002c	8d 87 28 01 00
	00		 lea	 eax, DWORD PTR [edi+296]
  00032	33 db		 xor	 ebx, ebx
  00034	50		 push	 eax
  00035	8d 8e 28 01 00
	00		 lea	 ecx, DWORD PTR [esi+296]
  0003b	89 5d fc	 mov	 DWORD PTR __$EHRec$[ebp+8], ebx
  0003e	ff 15 00 00 00
	00		 call	 DWORD PTR __imp_??0ioHashString@@QAE@ABV0@@Z
  00044	8b 87 38 01 00
	00		 mov	 eax, DWORD PTR [edi+312]
  0004a	89 86 38 01 00
	00		 mov	 DWORD PTR [esi+312], eax
  00050	8d 87 3c 01 00
	00		 lea	 eax, DWORD PTR [edi+316]
  00056	50		 push	 eax
  00057	8d 8e 3c 01 00
	00		 lea	 ecx, DWORD PTR [esi+316]
  0005d	c6 45 fc 01	 mov	 BYTE PTR __$EHRec$[ebp+8], 1
  00061	ff 15 00 00 00
	00		 call	 DWORD PTR __imp_??0ioHashString@@QAE@ABV0@@Z
  00067	8d 87 4c 01 00
	00		 lea	 eax, DWORD PTR [edi+332]
  0006d	50		 push	 eax
  0006e	8d 8e 4c 01 00
	00		 lea	 ecx, DWORD PTR [esi+332]
  00074	c6 45 fc 02	 mov	 BYTE PTR __$EHRec$[ebp+8], 2
  00078	e8 00 00 00 00	 call	 ??0?$vector@UAttackAttribute@@V?$allocator@UAttackAttribute@@@std@@@std@@QAE@ABV01@@Z ; std::vector<AttackAttribute,std::allocator<AttackAttribute> >::vector<AttackAttribute,std::allocator<AttackAttribute> >
  0007d	d9 87 5c 01 00
	00		 fld	 DWORD PTR [edi+348]
  00083	d9 9e 5c 01 00
	00		 fstp	 DWORD PTR [esi+348]
  00089	8d 8e 7c 01 00
	00		 lea	 ecx, DWORD PTR [esi+380]
  0008f	d9 87 60 01 00
	00		 fld	 DWORD PTR [edi+352]
  00095	c6 45 fc 03	 mov	 BYTE PTR __$EHRec$[ebp+8], 3
  00099	d9 9e 60 01 00
	00		 fstp	 DWORD PTR [esi+352]
  0009f	d9 87 64 01 00
	00		 fld	 DWORD PTR [edi+356]
  000a5	d9 9e 64 01 00
	00		 fstp	 DWORD PTR [esi+356]
  000ab	8b 87 68 01 00
	00		 mov	 eax, DWORD PTR [edi+360]
  000b1	89 86 68 01 00
	00		 mov	 DWORD PTR [esi+360], eax
  000b7	d9 87 6c 01 00
	00		 fld	 DWORD PTR [edi+364]
  000bd	d9 9e 6c 01 00
	00		 fstp	 DWORD PTR [esi+364]
  000c3	d9 87 70 01 00
	00		 fld	 DWORD PTR [edi+368]
  000c9	d9 9e 70 01 00
	00		 fstp	 DWORD PTR [esi+368]
  000cf	d9 87 74 01 00
	00		 fld	 DWORD PTR [edi+372]
  000d5	d9 9e 74 01 00
	00		 fstp	 DWORD PTR [esi+372]
  000db	8b 87 78 01 00
	00		 mov	 eax, DWORD PTR [edi+376]
  000e1	89 86 78 01 00
	00		 mov	 DWORD PTR [esi+376], eax
  000e7	8d 87 7c 01 00
	00		 lea	 eax, DWORD PTR [edi+380]
  000ed	50		 push	 eax
  000ee	e8 00 00 00 00	 call	 ??0?$vector@VioHashString@@V?$allocator@VioHashString@@@std@@@std@@QAE@ABV01@@Z ; std::vector<ioHashString,std::allocator<ioHashString> >::vector<ioHashString,std::allocator<ioHashString> >
  000f3	d9 87 8c 01 00
	00		 fld	 DWORD PTR [edi+396]
  000f9	d9 9e 8c 01 00
	00		 fstp	 DWORD PTR [esi+396]
  000ff	8d 87 9c 01 00
	00		 lea	 eax, DWORD PTR [edi+412]
  00105	d9 87 90 01 00
	00		 fld	 DWORD PTR [edi+400]
  0010b	50		 push	 eax
  0010c	d9 9e 90 01 00
	00		 fstp	 DWORD PTR [esi+400]
  00112	8d 8e 9c 01 00
	00		 lea	 ecx, DWORD PTR [esi+412]
  00118	d9 87 94 01 00
	00		 fld	 DWORD PTR [edi+404]
  0011e	c6 45 fc 04	 mov	 BYTE PTR __$EHRec$[ebp+8], 4
  00122	d9 9e 94 01 00
	00		 fstp	 DWORD PTR [esi+404]
  00128	d9 87 98 01 00
	00		 fld	 DWORD PTR [edi+408]
  0012e	d9 9e 98 01 00
	00		 fstp	 DWORD PTR [esi+408]
  00134	e8 00 00 00 00	 call	 ??0AttackAttribute@@QAE@ABU0@@Z
  00139	8a 87 ec 01 00
	00		 mov	 al, BYTE PTR [edi+492]
  0013f	88 86 ec 01 00
	00		 mov	 BYTE PTR [esi+492], al

; 57   : 	m_ChargeComboState = CCS_NONE;

  00145	89 9e f0 01 00
	00		 mov	 DWORD PTR [esi+496], ebx

; 58   : 
; 59   : 	m_bUseExtendJump = false;

  0014b	88 5e 10	 mov	 BYTE PTR [esi+16], bl

; 60   : 	m_bUsedDoubleJump = false;

  0014e	66 89 9e 10 02
	00 00		 mov	 WORD PTR [esi+528], bx

; 61   : 	m_bUsedChargeAttack = false;
; 62   : 
; 63   : 	// combo
; 64   : 	m_nCurComboCnt = 0;

  00155	89 9e fc 01 00
	00		 mov	 DWORD PTR [esi+508], ebx

; 65   : 	m_dwEnableComboTime_S = 0;

  0015b	89 9e 00 02 00
	00		 mov	 DWORD PTR [esi+512], ebx

; 66   : 	m_dwEnableComboTime_E = 0;

  00161	89 9e 04 02 00
	00		 mov	 DWORD PTR [esi+516], ebx

; 67   : 
; 68   : 	m_bReserveJumpAttack = false;

  00167	88 9e 08 02 00
	00		 mov	 BYTE PTR [esi+520], bl

; 69   : 
; 70   : 	// gather
; 71   : 	m_dwChargingStartTime = 0;

  0016d	89 9e f4 01 00
	00		 mov	 DWORD PTR [esi+500], ebx

; 72   : 	m_dwGatherStartTime = 0;

  00173	89 9e f8 01 00
	00		 mov	 DWORD PTR [esi+504], ebx

; 73   : 
; 74   : 	m_dwReserveEnableTime = 0;

  00179	89 9e e8 00 00
	00		 mov	 DWORD PTR [esi+232], ebx

; 75   : 
; 76   : 	m_nCurJumpCnt = 1;

  0017f	c7 86 0c 02 00
	00 01 00 00 00	 mov	 DWORD PTR [esi+524], 1

; 77   : }

  00189	8b c6		 mov	 eax, esi
  0018b	e8 00 00 00 00	 call	 __EH_epilog3
  00190	c2 04 00	 ret	 4
_TEXT	ENDS
;	COMDAT text$x
text$x	SEGMENT
__unwindfunclet$??0ioParkilpyoJump@@QAE@ABV0@@Z$0:
  00000	8b 4d f0	 mov	 ecx, DWORD PTR _this$[ebp]
  00003	e9 00 00 00 00	 jmp	 ??1ioExtendJump@@UAE@XZ	; ioExtendJump::~ioExtendJump
__unwindfunclet$??0ioParkilpyoJump@@QAE@ABV0@@Z$1:
  00008	8b 4d f0	 mov	 ecx, DWORD PTR _this$[ebp]
  0000b	81 c1 28 01 00
	00		 add	 ecx, 296		; 00000128H
  00011	ff 25 00 00 00
	00		 jmp	 DWORD PTR __imp_??1ioHashString@@QAE@XZ
__unwindfunclet$??0ioParkilpyoJump@@QAE@ABV0@@Z$2:
  00017	8b 4d f0	 mov	 ecx, DWORD PTR _this$[ebp]
  0001a	81 c1 3c 01 00
	00		 add	 ecx, 316		; 0000013cH
  00020	ff 25 00 00 00
	00		 jmp	 DWORD PTR __imp_??1ioHashString@@QAE@XZ
__unwindfunclet$??0ioParkilpyoJump@@QAE@ABV0@@Z$3:
  00026	8b 4d f0	 mov	 ecx, DWORD PTR _this$[ebp]
  00029	81 c1 4c 01 00
	00		 add	 ecx, 332		; 0000014cH
  0002f	e9 00 00 00 00	 jmp	 ??1?$vector@UAttackAttribute@@V?$allocator@UAttackAttribute@@@std@@@std@@QAE@XZ ; std::vector<AttackAttribute,std::allocator<AttackAttribute> >::~vector<AttackAttribute,std::allocator<AttackAttribute> >
__unwindfunclet$??0ioParkilpyoJump@@QAE@ABV0@@Z$4:
  00034	8b 4d f0	 mov	 ecx, DWORD PTR _this$[ebp]
  00037	81 c1 7c 01 00
	00		 add	 ecx, 380		; 0000017cH
  0003d	e9 00 00 00 00	 jmp	 ??1?$vector@VioHashString@@V?$allocator@VioHashString@@@std@@@std@@QAE@XZ ; std::vector<ioHashString,std::allocator<ioHashString> >::~vector<ioHashString,std::allocator<ioHashString> >
__ehhandler$??0ioParkilpyoJump@@QAE@ABV0@@Z:
  00042	8b 54 24 08	 mov	 edx, DWORD PTR [esp+8]
  00046	8d 42 0c	 lea	 eax, DWORD PTR [edx+12]
  00049	8b 4a ec	 mov	 ecx, DWORD PTR [edx-20]
  0004c	33 c8		 xor	 ecx, eax
  0004e	e8 00 00 00 00	 call	 @__security_check_cookie@4
  00053	b8 00 00 00 00	 mov	 eax, OFFSET __ehfuncinfo$??0ioParkilpyoJump@@QAE@ABV0@@Z
  00058	e9 00 00 00 00	 jmp	 ___CxxFrameHandler3
text$x	ENDS
??0ioParkilpyoJump@@QAE@ABV0@@Z ENDP			; ioParkilpyoJump::ioParkilpyoJump
PUBLIC	??1ioParkilpyoJump@@UAE@XZ			; ioParkilpyoJump::~ioParkilpyoJump
;	COMDAT xdata$x
; File c:\program files (x86)\microsoft visual studio 10.0\vc\include\vector
xdata$x	SEGMENT
__ehfuncinfo$??1ioParkilpyoJump@@UAE@XZ DD 019930522H
	DD	05H
	DD	FLAT:__unwindtable$??1ioParkilpyoJump@@UAE@XZ
	DD	2 DUP(00H)
	DD	2 DUP(00H)
	DD	00H
	DD	01H
__unwindtable$??1ioParkilpyoJump@@UAE@XZ DD 0ffffffffH
	DD	FLAT:__unwindfunclet$??1ioParkilpyoJump@@UAE@XZ$0
	DD	00H
	DD	FLAT:__unwindfunclet$??1ioParkilpyoJump@@UAE@XZ$1
	DD	01H
	DD	FLAT:__unwindfunclet$??1ioParkilpyoJump@@UAE@XZ$2
	DD	02H
	DD	FLAT:__unwindfunclet$??1ioParkilpyoJump@@UAE@XZ$3
	DD	03H
	DD	FLAT:__unwindfunclet$??1ioParkilpyoJump@@UAE@XZ$4
; Function compile flags: /Ogsp
; File d:\lost saga for developer\youtube\tutorial\source\src\lsclient\ioparkilpyojump.cpp
xdata$x	ENDS
;	COMDAT ??1ioParkilpyoJump@@UAE@XZ
_TEXT	SEGMENT
_this$ = -16						; size = 4
__$EHRec$ = -12						; size = 12
??1ioParkilpyoJump@@UAE@XZ PROC				; ioParkilpyoJump::~ioParkilpyoJump, COMDAT
; _this$ = ecx

; 80   : {

  00000	6a 04		 push	 4
  00002	b8 00 00 00 00	 mov	 eax, __ehhandler$??1ioParkilpyoJump@@UAE@XZ
  00007	e8 00 00 00 00	 call	 __EH_prolog3
  0000c	8b f1		 mov	 esi, ecx
  0000e	89 75 f0	 mov	 DWORD PTR _this$[ebp], esi
  00011	c7 06 00 00 00
	00		 mov	 DWORD PTR [esi], OFFSET ??_7ioParkilpyoJump@@6B@

; 81   : }

  00017	8d 8e 9c 01 00
	00		 lea	 ecx, DWORD PTR [esi+412]
  0001d	c7 45 fc 04 00
	00 00		 mov	 DWORD PTR __$EHRec$[ebp+8], 4
  00024	e8 00 00 00 00	 call	 ??1AttackAttribute@@QAE@XZ
  00029	8d 8e 7c 01 00
	00		 lea	 ecx, DWORD PTR [esi+380]
  0002f	c6 45 fc 03	 mov	 BYTE PTR __$EHRec$[ebp+8], 3
  00033	e8 00 00 00 00	 call	 ?_Tidy@?$vector@VioHashString@@V?$allocator@VioHashString@@@std@@@std@@IAEXXZ ; std::vector<ioHashString,std::allocator<ioHashString> >::_Tidy
  00038	8d 8e 4c 01 00
	00		 lea	 ecx, DWORD PTR [esi+332]
  0003e	c6 45 fc 02	 mov	 BYTE PTR __$EHRec$[ebp+8], 2
  00042	e8 00 00 00 00	 call	 ?_Tidy@?$vector@UAttackAttribute@@V?$allocator@UAttackAttribute@@@std@@@std@@IAEXXZ ; std::vector<AttackAttribute,std::allocator<AttackAttribute> >::_Tidy
  00047	8b 3d 00 00 00
	00		 mov	 edi, DWORD PTR __imp_??1ioHashString@@QAE@XZ
  0004d	8d 8e 3c 01 00
	00		 lea	 ecx, DWORD PTR [esi+316]
  00053	c6 45 fc 01	 mov	 BYTE PTR __$EHRec$[ebp+8], 1
  00057	ff d7		 call	 edi
  00059	8d 8e 28 01 00
	00		 lea	 ecx, DWORD PTR [esi+296]
  0005f	c6 45 fc 00	 mov	 BYTE PTR __$EHRec$[ebp+8], 0
  00063	ff d7		 call	 edi
  00065	83 4d fc ff	 or	 DWORD PTR __$EHRec$[ebp+8], -1
  00069	8b ce		 mov	 ecx, esi
  0006b	e8 00 00 00 00	 call	 ??1ioExtendJump@@UAE@XZ	; ioExtendJump::~ioExtendJump
  00070	e8 00 00 00 00	 call	 __EH_epilog3
  00075	c3		 ret	 0
_TEXT	ENDS
;	COMDAT text$x
text$x	SEGMENT
__unwindfunclet$??1ioParkilpyoJump@@UAE@XZ$0:
  00000	8b 4d f0	 mov	 ecx, DWORD PTR _this$[ebp]
  00003	e9 00 00 00 00	 jmp	 ??1ioExtendJump@@UAE@XZ	; ioExtendJump::~ioExtendJump
__unwindfunclet$??1ioParkilpyoJump@@UAE@XZ$1:
  00008	8b 4d f0	 mov	 ecx, DWORD PTR _this$[ebp]
  0000b	81 c1 28 01 00
	00		 add	 ecx, 296		; 00000128H
  00011	ff 25 00 00 00
	00		 jmp	 DWORD PTR __imp_??1ioHashString@@QAE@XZ
__unwindfunclet$??1ioParkilpyoJump@@UAE@XZ$2:
  00017	8b 4d f0	 mov	 ecx, DWORD PTR _this$[ebp]
  0001a	81 c1 3c 01 00
	00		 add	 ecx, 316		; 0000013cH
  00020	ff 25 00 00 00
	00		 jmp	 DWORD PTR __imp_??1ioHashString@@QAE@XZ
__unwindfunclet$??1ioParkilpyoJump@@UAE@XZ$3:
  00026	8b 4d f0	 mov	 ecx, DWORD PTR _this$[ebp]
  00029	81 c1 4c 01 00
	00		 add	 ecx, 332		; 0000014cH
  0002f	e9 00 00 00 00	 jmp	 ??1?$vector@UAttackAttribute@@V?$allocator@UAttackAttribute@@@std@@@std@@QAE@XZ ; std::vector<AttackAttribute,std::allocator<AttackAttribute> >::~vector<AttackAttribute,std::allocator<AttackAttribute> >
__unwindfunclet$??1ioParkilpyoJump@@UAE@XZ$4:
  00034	8b 4d f0	 mov	 ecx, DWORD PTR _this$[ebp]
  00037	81 c1 7c 01 00
	00		 add	 ecx, 380		; 0000017cH
  0003d	e9 00 00 00 00	 jmp	 ??1?$vector@VioHashString@@V?$allocator@VioHashString@@@std@@@std@@QAE@XZ ; std::vector<ioHashString,std::allocator<ioHashString> >::~vector<ioHashString,std::allocator<ioHashString> >
__ehhandler$??1ioParkilpyoJump@@UAE@XZ:
  00042	8b 54 24 08	 mov	 edx, DWORD PTR [esp+8]
  00046	8d 42 0c	 lea	 eax, DWORD PTR [edx+12]
  00049	8b 4a ec	 mov	 ecx, DWORD PTR [edx-20]
  0004c	33 c8		 xor	 ecx, eax
  0004e	e8 00 00 00 00	 call	 @__security_check_cookie@4
  00053	b8 00 00 00 00	 mov	 eax, OFFSET __ehfuncinfo$??1ioParkilpyoJump@@UAE@XZ
  00058	e9 00 00 00 00	 jmp	 ___CxxFrameHandler3
text$x	ENDS
??1ioParkilpyoJump@@UAE@XZ ENDP				; ioParkilpyoJump::~ioParkilpyoJump
;	COMDAT xdata$x
xdata$x	SEGMENT
__unwindtable$?Clone@ioParkilpyoJump@@UAEPAVioExtendJump@@XZ DD 0ffffffffH
	DD	FLAT:__unwindfunclet$?Clone@ioParkilpyoJump@@UAEPAVioExtendJump@@XZ$0
__ehfuncinfo$?Clone@ioParkilpyoJump@@UAEPAVioExtendJump@@XZ DD 019930522H
	DD	01H
	DD	FLAT:__unwindtable$?Clone@ioParkilpyoJump@@UAEPAVioExtendJump@@XZ
	DD	2 DUP(00H)
	DD	2 DUP(00H)
	DD	00H
	DD	01H
; Function compile flags: /Ogsp
xdata$x	ENDS
;	COMDAT ?Clone@ioParkilpyoJump@@UAEPAVioExtendJump@@XZ
_TEXT	SEGMENT
$T603926 = -16						; size = 4
__$EHRec$ = -12						; size = 12
?Clone@ioParkilpyoJump@@UAEPAVioExtendJump@@XZ PROC	; ioParkilpyoJump::Clone, COMDAT
; _this$ = ecx

; 84   : {

  00000	6a 04		 push	 4
  00002	b8 00 00 00 00	 mov	 eax, __ehhandler$?Clone@ioParkilpyoJump@@UAEPAVioExtendJump@@XZ
  00007	e8 00 00 00 00	 call	 __EH_prolog3
  0000c	8b f1		 mov	 esi, ecx

; 85   : 	return new ioParkilpyoJump( *this );

  0000e	68 14 02 00 00	 push	 532			; 00000214H
  00013	e8 00 00 00 00	 call	 ??2@YAPAXI@Z		; operator new
  00018	59		 pop	 ecx
  00019	8b c8		 mov	 ecx, eax
  0001b	89 4d f0	 mov	 DWORD PTR $T603926[ebp], ecx
  0001e	33 c0		 xor	 eax, eax
  00020	89 45 fc	 mov	 DWORD PTR __$EHRec$[ebp+8], eax
  00023	3b c8		 cmp	 ecx, eax
  00025	74 06		 je	 SHORT $LN3@Clone
  00027	56		 push	 esi
  00028	e8 00 00 00 00	 call	 ??0ioParkilpyoJump@@QAE@ABV0@@Z ; ioParkilpyoJump::ioParkilpyoJump
$LN3@Clone:

; 86   : }

  0002d	e8 00 00 00 00	 call	 __EH_epilog3
  00032	c3		 ret	 0
_TEXT	ENDS
;	COMDAT text$x
text$x	SEGMENT
__unwindfunclet$?Clone@ioParkilpyoJump@@UAEPAVioExtendJump@@XZ$0:
  00000	ff 75 f0	 push	 DWORD PTR $T603926[ebp]
  00003	e8 00 00 00 00	 call	 ??3@YAXPAX@Z		; operator delete
  00008	59		 pop	 ecx
  00009	c3		 ret	 0
__ehhandler$?Clone@ioParkilpyoJump@@UAEPAVioExtendJump@@XZ:
  0000a	8b 54 24 08	 mov	 edx, DWORD PTR [esp+8]
  0000e	8d 42 0c	 lea	 eax, DWORD PTR [edx+12]
  00011	8b 4a ec	 mov	 ecx, DWORD PTR [edx-20]
  00014	33 c8		 xor	 ecx, eax
  00016	e8 00 00 00 00	 call	 @__security_check_cookie@4
  0001b	b8 00 00 00 00	 mov	 eax, OFFSET __ehfuncinfo$?Clone@ioParkilpyoJump@@UAEPAVioExtendJump@@XZ
  00020	e9 00 00 00 00	 jmp	 ___CxxFrameHandler3
text$x	ENDS
?Clone@ioParkilpyoJump@@UAEPAVioExtendJump@@XZ ENDP	; ioParkilpyoJump::Clone
PUBLIC	?push_back@?$vector@UAttackAttribute@@V?$allocator@UAttackAttribute@@@std@@@std@@QAEXABUAttackAttribute@@@Z ; std::vector<AttackAttribute,std::allocator<AttackAttribute> >::push_back
; Function compile flags: /Ogsp
; File c:\program files (x86)\microsoft visual studio 10.0\vc\include\vector
;	COMDAT ?push_back@?$vector@UAttackAttribute@@V?$allocator@UAttackAttribute@@@std@@@std@@QAEXABUAttackAttribute@@@Z
_TEXT	SEGMENT
__Val$ = 8						; size = 4
?push_back@?$vector@UAttackAttribute@@V?$allocator@UAttackAttribute@@@std@@@std@@QAEXABUAttackAttribute@@@Z PROC ; std::vector<AttackAttribute,std::allocator<AttackAttribute> >::push_back, COMDAT
; _this$ = ecx

; 976  : 		{	// insert element at end

  00000	55		 push	 ebp
  00001	8b ec		 mov	 ebp, esp
  00003	56		 push	 esi
  00004	8b f1		 mov	 esi, ecx

; 977  : 		if (_Inside(_STD addressof(_Val)))

  00006	8b 4e 04	 mov	 ecx, DWORD PTR [esi+4]
  00009	57		 push	 edi
  0000a	8b 7d 08	 mov	 edi, DWORD PTR __Val$[ebp]
  0000d	3b f9		 cmp	 edi, ecx
  0000f	73 37		 jae	 SHORT $LN4@push_back@2
  00011	8b 16		 mov	 edx, DWORD PTR [esi]
  00013	3b d7		 cmp	 edx, edi
  00015	77 31		 ja	 SHORT $LN4@push_back@2

; 978  : 			{	// push back an element
; 979  : 			size_type _Idx = _STD addressof(_Val) - this->_Myfirst;

  00017	8b c7		 mov	 eax, edi
  00019	2b c2		 sub	 eax, edx
  0001b	6a 50		 push	 80			; 00000050H
  0001d	99		 cdq
  0001e	5f		 pop	 edi
  0001f	f7 ff		 idiv	 edi
  00021	8b f8		 mov	 edi, eax

; 980  : 			if (this->_Mylast == this->_Myend)

  00023	3b 4e 08	 cmp	 ecx, DWORD PTR [esi+8]
  00026	75 09		 jne	 SHORT $LN3@push_back@2

; 981  : 				_Reserve(1);

  00028	6a 01		 push	 1
  0002a	8b ce		 mov	 ecx, esi
  0002c	e8 00 00 00 00	 call	 ?_Reserve@?$vector@UAttackAttribute@@V?$allocator@UAttackAttribute@@@std@@@std@@IAEXI@Z ; std::vector<AttackAttribute,std::allocator<AttackAttribute> >::_Reserve
$LN3@push_back@2:

; 982  : 			_Orphan_range(this->_Mylast, this->_Mylast);
; 983  : 			_Cons_val(this->_Alval,
; 984  : 				this->_Mylast,
; 985  : 				this->_Myfirst[_Idx]);

  00031	6b ff 50	 imul	 edi, 80			; 00000050H
  00034	03 3e		 add	 edi, DWORD PTR [esi]
  00036	8d 46 0c	 lea	 eax, DWORD PTR [esi+12]
  00039	57		 push	 edi
  0003a	ff 76 04	 push	 DWORD PTR [esi+4]
  0003d	50		 push	 eax
  0003e	e8 00 00 00 00	 call	 ??$_Cons_val@V?$allocator@UAttackAttribute@@@std@@UAttackAttribute@@AAU3@@std@@YAXAAV?$allocator@UAttackAttribute@@@0@PAUAttackAttribute@@AAU2@@Z ; std::_Cons_val<std::allocator<AttackAttribute>,AttackAttribute,AttackAttribute &>
  00043	83 c4 0c	 add	 esp, 12			; 0000000cH

; 986  : 			++this->_Mylast;
; 987  : 			}
; 988  : 		else

  00046	eb 19		 jmp	 SHORT $LN26@push_back@2
$LN4@push_back@2:

; 989  : 			{	// push back a non-element
; 990  : 			if (this->_Mylast == this->_Myend)

  00048	3b 4e 08	 cmp	 ecx, DWORD PTR [esi+8]
  0004b	75 09		 jne	 SHORT $LN1@push_back@2

; 991  : 				_Reserve(1);

  0004d	6a 01		 push	 1
  0004f	8b ce		 mov	 ecx, esi
  00051	e8 00 00 00 00	 call	 ?_Reserve@?$vector@UAttackAttribute@@V?$allocator@UAttackAttribute@@@std@@@std@@IAEXI@Z ; std::vector<AttackAttribute,std::allocator<AttackAttribute> >::_Reserve
$LN1@push_back@2:

; 992  : 			_Orphan_range(this->_Mylast, this->_Mylast);
; 993  : 			_Cons_val(this->_Alval,
; 994  : 				this->_Mylast,
; 995  : 				_Val);

  00056	57		 push	 edi
  00057	ff 76 04	 push	 DWORD PTR [esi+4]
  0005a	e8 00 00 00 00	 call	 ??$_Construct@UAttackAttribute@@ABU1@@std@@YAXPAUAttackAttribute@@ABU1@@Z ; std::_Construct<AttackAttribute,AttackAttribute const &>
  0005f	59		 pop	 ecx
  00060	59		 pop	 ecx
$LN26@push_back@2:

; 996  : 			++this->_Mylast;

  00061	83 46 04 50	 add	 DWORD PTR [esi+4], 80	; 00000050H
  00065	5f		 pop	 edi
  00066	5e		 pop	 esi

; 997  : 			}
; 998  : 		}

  00067	5d		 pop	 ebp
  00068	c2 04 00	 ret	 4
?push_back@?$vector@UAttackAttribute@@V?$allocator@UAttackAttribute@@@std@@@std@@QAEXABUAttackAttribute@@@Z ENDP ; std::vector<AttackAttribute,std::allocator<AttackAttribute> >::push_back
; Function compile flags: /Ogsp
_TEXT	ENDS
;	COMDAT ??_GioParkilpyoJump@@UAEPAXI@Z
_TEXT	SEGMENT
___flags$ = 8						; size = 4
??_GioParkilpyoJump@@UAEPAXI@Z PROC			; ioParkilpyoJump::`scalar deleting destructor', COMDAT
; _this$ = ecx
  00000	55		 push	 ebp
  00001	8b ec		 mov	 ebp, esp
  00003	56		 push	 esi
  00004	8b f1		 mov	 esi, ecx
  00006	e8 00 00 00 00	 call	 ??1ioParkilpyoJump@@UAE@XZ ; ioParkilpyoJump::~ioParkilpyoJump
  0000b	f6 45 08 01	 test	 BYTE PTR ___flags$[ebp], 1
  0000f	74 07		 je	 SHORT $LN1@scalar@5
  00011	56		 push	 esi
  00012	e8 00 00 00 00	 call	 ??3@YAXPAX@Z		; operator delete
  00017	59		 pop	 ecx
$LN1@scalar@5:
  00018	8b c6		 mov	 eax, esi
  0001a	5e		 pop	 esi
  0001b	5d		 pop	 ebp
  0001c	c2 04 00	 ret	 4
??_GioParkilpyoJump@@UAEPAXI@Z ENDP			; ioParkilpyoJump::`scalar deleting destructor'
_TEXT	ENDS
PUBLIC	?LoadComboList@ioParkilpyoJump@@IAEXAAVioINILoader@@@Z ; ioParkilpyoJump::LoadComboList
EXTRN	__imp__wsprintfA:PROC
;	COMDAT xdata$x
; File d:\lost saga for developer\youtube\tutorial\source\src\lsclient\stringprotect.h
xdata$x	SEGMENT
__unwindtable$?LoadComboList@ioParkilpyoJump@@IAEXAAVioINILoader@@@Z DD 0ffffffffH
	DD	FLAT:__unwindfunclet$?LoadComboList@ioParkilpyoJump@@IAEXAAVioINILoader@@@Z$0
__ehfuncinfo$?LoadComboList@ioParkilpyoJump@@IAEXAAVioINILoader@@@Z DD 019930522H
	DD	01H
	DD	FLAT:__unwindtable$?LoadComboList@ioParkilpyoJump@@IAEXAAVioINILoader@@@Z
	DD	2 DUP(00H)
	DD	2 DUP(00H)
	DD	00H
	DD	01H
; Function compile flags: /Ogsp
; File d:\lost saga for developer\youtube\tutorial\source\src\lsclient\ioparkilpyojump.cpp
xdata$x	ENDS
;	COMDAT ?LoadComboList@ioParkilpyoJump@@IAEXAAVioINILoader@@@Z
_TEXT	SEGMENT
_kAttribute$590584 = -404				; size = 80
$T604166 = -324						; size = 4
_iMaxCombo$ = -320					; size = 4
_szBuf$ = -316						; size = 260
__k$604043 = -56					; size = 15
___encStr$590588 = -36					; size = 14
__$EHRec$ = -12						; size = 12
_rkLoader$ = 8						; size = 4
?LoadComboList@ioParkilpyoJump@@IAEXAAVioINILoader@@@Z PROC ; ioParkilpyoJump::LoadComboList, COMDAT
; _this$ = ecx

; 458  : {

  00000	68 88 01 00 00	 push	 392			; 00000188H
  00005	b8 00 00 00 00	 mov	 eax, __ehhandler$?LoadComboList@ioParkilpyoJump@@IAEXAAVioINILoader@@@Z
  0000a	e8 00 00 00 00	 call	 __EH_prolog3_GS
  0000f	8b 5d 08	 mov	 ebx, DWORD PTR _rkLoader$[ebp]

; 459  : 	char szBuf[MAX_PATH];
; 460  : 	int iMaxCombo = rkLoader.LoadInt_e( "jump_max_combo", 0 );

  00012	6a 03		 push	 3
  00014	8b f1		 mov	 esi, ecx
  00016	c7 45 c8 87 99
	86 9a		 mov	 DWORD PTR __k$604043[ebp], -1702454905 ; 9a869987H
  0001d	c7 45 cc b2 81
	8a 92		 mov	 DWORD PTR __k$604043[ebp+4], -1836416590 ; 928a81b2H
  00024	c7 45 d0 b2 8f
	84 87		 mov	 DWORD PTR __k$604043[ebp+8], -2021355598 ; 87848fb2H
  0002b	66 c7 45 d4 8f
	83		 mov	 WORD PTR __k$604043[ebp+12], 33679 ; 0000838fH
  00031	8d 45 c8	 lea	 eax, DWORD PTR __k$604043[ebp]
  00034	c6 45 d6 00	 mov	 BYTE PTR __k$604043[ebp+14], 0
  00038	59		 pop	 ecx
$LL209@LoadComboL:
  00039	81 30 ed ec eb
	ea		 xor	 DWORD PTR [eax], -353637139 ; eaebecedH
  0003f	83 c0 04	 add	 eax, 4
  00042	49		 dec	 ecx
  00043	75 f4		 jne	 SHORT $LL209@LoadComboL
  00045	6a 0c		 push	 12			; 0000000cH
  00047	5f		 pop	 edi
$LL206@LoadComboL:
  00048	8b c7		 mov	 eax, edi
  0004a	25 03 00 00 80	 and	 eax, -2147483645	; 80000003H
  0004f	79 05		 jns	 SHORT $LN249@LoadComboL
  00051	48		 dec	 eax
  00052	83 c8 fc	 or	 eax, -4			; fffffffcH
  00055	40		 inc	 eax
$LN249@LoadComboL:
  00056	b1 ed		 mov	 cl, -19			; ffffffedH
  00058	2a c8		 sub	 cl, al
  0005a	30 4c 3d c8	 xor	 BYTE PTR __k$604043[ebp+edi], cl
  0005e	47		 inc	 edi
  0005f	83 ff 0e	 cmp	 edi, 14			; 0000000eH
  00062	7c e4		 jl	 SHORT $LL206@LoadComboL
  00064	33 ff		 xor	 edi, edi
  00066	57		 push	 edi
  00067	8d 45 c8	 lea	 eax, DWORD PTR __k$604043[ebp]
  0006a	50		 push	 eax
  0006b	8b cb		 mov	 ecx, ebx
  0006d	ff 15 00 00 00
	00		 call	 DWORD PTR __imp_?LoadInt@ioINILoader@@QAEHPBDH@Z

; 461  : 
; 462  : 	m_ComboAttackList.clear();

  00073	8b 8e 4c 01 00
	00		 mov	 ecx, DWORD PTR [esi+332]
  00079	89 85 c0 fe ff
	ff		 mov	 DWORD PTR _iMaxCombo$[ebp], eax
  0007f	8b 86 50 01 00
	00		 mov	 eax, DWORD PTR [esi+336]
  00085	50		 push	 eax
  00086	51		 push	 ecx
  00087	8d 85 bc fe ff
	ff		 lea	 eax, DWORD PTR $T604166[ebp]
  0008d	50		 push	 eax
  0008e	8d 8e 4c 01 00
	00		 lea	 ecx, DWORD PTR [esi+332]
  00094	e8 00 00 00 00	 call	 ?erase@?$vector@UAttackAttribute@@V?$allocator@UAttackAttribute@@@std@@@std@@QAE?AV?$_Vector_iterator@V?$_Vector_val@UAttackAttribute@@V?$allocator@UAttackAttribute@@@std@@@std@@@2@V?$_Vector_const_iterator@V?$_Vector_val@UAttackAttribute@@V?$allocator@UAttackAttribute@@@std@@@std@@@2@0@Z ; std::vector<AttackAttribute,std::allocator<AttackAttribute> >::erase

; 463  : 	for( int i=0 ; i<iMaxCombo ; i++ )

  00099	39 bd c0 fe ff
	ff		 cmp	 DWORD PTR _iMaxCombo$[ebp], edi
  0009f	0f 8e 97 00 00
	00		 jle	 $LN100@LoadComboL
$LL102@LoadComboL:

; 464  : 	{
; 465  : 		AttackAttribute kAttribute;

  000a5	8d 8d 6c fe ff
	ff		 lea	 ecx, DWORD PTR _kAttribute$590584[ebp]
  000ab	e8 00 00 00 00	 call	 ??0AttackAttribute@@QAE@XZ ; AttackAttribute::AttackAttribute
  000b0	83 65 fc 00	 and	 DWORD PTR __$EHRec$[ebp+8], 0
  000b4	6a 03		 push	 3

; 466  : 
; 467  : 		wsprintf_e( szBuf, "jump_attack%d", i+1 );

  000b6	c7 45 dc 87 99
	86 9a		 mov	 DWORD PTR ___encStr$590588[ebp], -1702454905 ; 9a869987H
  000bd	c7 45 e0 b2 8d
	9f 9e		 mov	 DWORD PTR ___encStr$590588[ebp+4], -1633710670 ; 9e9f8db2H
  000c4	c7 45 e4 8c 8f
	80 cf		 mov	 DWORD PTR ___encStr$590588[ebp+8], -813658228 ; cf808f8cH
  000cb	8d 45 dc	 lea	 eax, DWORD PTR ___encStr$590588[ebp]
  000ce	66 c7 45 e8 89
	00		 mov	 WORD PTR ___encStr$590588[ebp+12], 137 ; 00000089H
  000d4	59		 pop	 ecx
$LL235@LoadComboL:
  000d5	81 30 ed ec eb
	ea		 xor	 DWORD PTR [eax], -353637139 ; eaebecedH
  000db	83 c0 04	 add	 eax, 4
  000de	49		 dec	 ecx
  000df	75 f4		 jne	 SHORT $LL235@LoadComboL
  000e1	80 75 e8 ed	 xor	 BYTE PTR ___encStr$590588[ebp+12], -19 ; ffffffedH
  000e5	47		 inc	 edi
  000e6	57		 push	 edi
  000e7	8d 45 dc	 lea	 eax, DWORD PTR ___encStr$590588[ebp]
  000ea	50		 push	 eax
  000eb	8d 85 c4 fe ff
	ff		 lea	 eax, DWORD PTR _szBuf$[ebp]
  000f1	50		 push	 eax
  000f2	ff 15 00 00 00
	00		 call	 DWORD PTR __imp__wsprintfA

; 468  : 		LoadAttackAttribute( szBuf, kAttribute, rkLoader );

  000f8	53		 push	 ebx
  000f9	8d 85 6c fe ff
	ff		 lea	 eax, DWORD PTR _kAttribute$590584[ebp]
  000ff	50		 push	 eax
  00100	8d 85 c4 fe ff
	ff		 lea	 eax, DWORD PTR _szBuf$[ebp]
  00106	50		 push	 eax
  00107	e8 00 00 00 00	 call	 ?LoadAttackAttribute@@YAXPBDAAUAttackAttribute@@AAVioINILoader@@@Z ; LoadAttackAttribute
  0010c	83 c4 18	 add	 esp, 24			; 00000018H

; 469  : 		m_ComboAttackList.push_back( kAttribute );

  0010f	8d 85 6c fe ff
	ff		 lea	 eax, DWORD PTR _kAttribute$590584[ebp]
  00115	50		 push	 eax
  00116	8d 8e 4c 01 00
	00		 lea	 ecx, DWORD PTR [esi+332]
  0011c	e8 00 00 00 00	 call	 ?push_back@?$vector@UAttackAttribute@@V?$allocator@UAttackAttribute@@@std@@@std@@QAEXABUAttackAttribute@@@Z ; std::vector<AttackAttribute,std::allocator<AttackAttribute> >::push_back

; 470  : 	}

  00121	83 4d fc ff	 or	 DWORD PTR __$EHRec$[ebp+8], -1
  00125	8d 8d 6c fe ff
	ff		 lea	 ecx, DWORD PTR _kAttribute$590584[ebp]
  0012b	e8 00 00 00 00	 call	 ??1AttackAttribute@@QAE@XZ
  00130	3b bd c0 fe ff
	ff		 cmp	 edi, DWORD PTR _iMaxCombo$[ebp]
  00136	0f 8c 69 ff ff
	ff		 jl	 $LL102@LoadComboL
$LN100@LoadComboL:

; 471  : }

  0013c	e8 00 00 00 00	 call	 __EH_epilog3_GS
  00141	c2 04 00	 ret	 4
_TEXT	ENDS
;	COMDAT text$x
text$x	SEGMENT
__unwindfunclet$?LoadComboList@ioParkilpyoJump@@IAEXAAVioINILoader@@@Z$0:
  00000	8d 8d 6c fe ff
	ff		 lea	 ecx, DWORD PTR _kAttribute$590584[ebp]
  00006	e9 00 00 00 00	 jmp	 ??1AttackAttribute@@QAE@XZ
__ehhandler$?LoadComboList@ioParkilpyoJump@@IAEXAAVioINILoader@@@Z:
  0000b	8b 54 24 08	 mov	 edx, DWORD PTR [esp+8]
  0000f	8d 42 0c	 lea	 eax, DWORD PTR [edx+12]
  00012	8b 8a 68 fe ff
	ff		 mov	 ecx, DWORD PTR [edx-408]
  00018	33 c8		 xor	 ecx, eax
  0001a	e8 00 00 00 00	 call	 @__security_check_cookie@4
  0001f	8b 4a fc	 mov	 ecx, DWORD PTR [edx-4]
  00022	33 c8		 xor	 ecx, eax
  00024	e8 00 00 00 00	 call	 @__security_check_cookie@4
  00029	b8 00 00 00 00	 mov	 eax, OFFSET __ehfuncinfo$?LoadComboList@ioParkilpyoJump@@IAEXAAVioINILoader@@@Z
  0002e	e9 00 00 00 00	 jmp	 ___CxxFrameHandler3
text$x	ENDS
?LoadComboList@ioParkilpyoJump@@IAEXAAVioINILoader@@@Z ENDP ; ioParkilpyoJump::LoadComboList
PUBLIC	_rkLoader$GSCopy$
EXTRN	__imp_??4ioHashString@@QAEAAV0@PBD@Z:PROC
EXTRN	?LoadProperty@ioExtendJump@@UAEXAAVioINILoader@@@Z:PROC ; ioExtendJump::LoadProperty
EXTRN	_memset:PROC
;	COMDAT xdata$x
; File d:\lost saga for developer\youtube\tutorial\source\src\lsclient\stringprotect.h
xdata$x	SEGMENT
__unwindtable$?LoadProperty@ioParkilpyoJump@@UAEXAAVioINILoader@@@Z DD 0ffffffffH
	DD	FLAT:__unwindfunclet$?LoadProperty@ioParkilpyoJump@@UAEXAAVioINILoader@@@Z$0
	DD	0ffffffffH
	DD	FLAT:__unwindfunclet$?LoadProperty@ioParkilpyoJump@@UAEXAAVioINILoader@@@Z$1
	DD	0ffffffffH
	DD	FLAT:__unwindfunclet$?LoadProperty@ioParkilpyoJump@@UAEXAAVioINILoader@@@Z$2
	DD	0ffffffffH
	DD	FLAT:__unwindfunclet$?LoadProperty@ioParkilpyoJump@@UAEXAAVioINILoader@@@Z$3
__ehfuncinfo$?LoadProperty@ioParkilpyoJump@@UAEXAAVioINILoader@@@Z DD 019930522H
	DD	04H
	DD	FLAT:__unwindtable$?LoadProperty@ioParkilpyoJump@@UAEXAAVioINILoader@@@Z
	DD	2 DUP(00H)
	DD	2 DUP(00H)
	DD	00H
	DD	01H
; Function compile flags: /Ogsp
; File d:\lost saga for developer\youtube\tutorial\source\src\lsclient\ioparkilpyojump.cpp
xdata$x	ENDS
;	COMDAT ?LoadProperty@ioParkilpyoJump@@UAEXAAVioINILoader@@@Z
_TEXT	SEGMENT
$T604221 = -948						; size = 16
$T604222 = -932						; size = 16
$T604220 = -916						; size = 16
$T604223 = -900						; size = 16
$T605915 = -884						; size = 4
_rkLoader$GSCopy$ = -880				; size = 4
_szBuf$ = -876						; size = 260
__k$605118 = -616					; size = 13
__k$604390 = -596					; size = 13
_szEncAttack$606836 = -576				; size = 17
__k$605743 = -552					; size = 21
__k$604743 = -524					; size = 29
__k$606461 = -488					; size = 29
__k$606586 = -452					; size = 28
__k$606698 = -420					; size = 28
__k$606073 = -388					; size = 28
__k$605256 = -356					; size = 18
__k$605948 = -332					; size = 28
__k$604493 = -300					; size = 12
__k$604993 = -284					; size = 28
__k$606961 = -252					; size = 14
__k$604868 = -232					; size = 28
__k$604256 = -200					; size = 14
__k$606336 = -180					; size = 27
__k$606198 = -148					; size = 27
__k$604618 = -116					; size = 11
__k$605618 = -100					; size = 26
__k$605528 = -68					; size = 24
__k$605381 = -40					; size = 18
__$EHRec$ = -12						; size = 12
_rkLoader$ = 8						; size = 4
?LoadProperty@ioParkilpyoJump@@UAEXAAVioINILoader@@@Z PROC ; ioParkilpyoJump::LoadProperty, COMDAT
; _this$ = ecx

; 94   : {

  00000	68 a8 03 00 00	 push	 936			; 000003a8H
  00005	b8 00 00 00 00	 mov	 eax, __ehhandler$?LoadProperty@ioParkilpyoJump@@UAEXAAVioINILoader@@@Z
  0000a	e8 00 00 00 00	 call	 __EH_prolog3_GS
  0000f	8b 7d 08	 mov	 edi, DWORD PTR _rkLoader$[ebp]

; 95   : 	ioExtendJump::LoadProperty( rkLoader );

  00012	57		 push	 edi
  00013	8b f1		 mov	 esi, ecx

; 132  : 	rkLoader.LoadString_e( "double_jump_animation_left", "", szBuf, MAX_PATH );

  00015	89 bd 90 fc ff
	ff		 mov	 DWORD PTR _rkLoader$GSCopy$[ebp], edi
  0001b	e8 00 00 00 00	 call	 ?LoadProperty@ioExtendJump@@UAEXAAVioINILoader@@@Z ; ioExtendJump::LoadProperty
  00020	33 db		 xor	 ebx, ebx
  00022	68 03 01 00 00	 push	 259			; 00000103H
  00027	8d 85 95 fc ff
	ff		 lea	 eax, DWORD PTR _szBuf$[ebp+1]
  0002d	53		 push	 ebx
  0002e	50		 push	 eax
  0002f	88 9d 94 fc ff
	ff		 mov	 BYTE PTR _szBuf$[ebp], bl
  00035	e8 00 00 00 00	 call	 _memset
  0003a	83 c4 0c	 add	 esp, 12			; 0000000cH
  0003d	6a 03		 push	 3
  0003f	c7 85 38 ff ff
	ff 8e 84 8a 98	 mov	 DWORD PTR __k$604256[ebp], -1735752562 ; 988a848eH
  00049	c7 85 3c ff ff
	ff 8a 85 85 8d	 mov	 DWORD PTR __k$604256[ebp+4], -1920629366 ; 8d85858aH
  00053	c7 85 40 ff ff
	ff b2 98 82 87	 mov	 DWORD PTR __k$604256[ebp+8], -2021484366 ; 878298b2H
  0005d	8d 85 38 ff ff
	ff		 lea	 eax, DWORD PTR __k$604256[ebp]
  00063	66 c7 85 44 ff
	ff ff 88 00	 mov	 WORD PTR __k$604256[ebp+12], 136 ; 00000088H
  0006c	59		 pop	 ecx
$LL112@LoadProper:

; 96   : 	
; 97   : 	char szBuf[MAX_PATH] = "";
; 98   : 	// gather
; 99   : 	m_dwChargingTime = (DWORD)rkLoader.LoadInt_e( "charging_time", 0 );

  0006d	81 30 ed ec eb
	ea		 xor	 DWORD PTR [eax], -353637139 ; eaebecedH
  00073	83 c0 04	 add	 eax, 4
  00076	49		 dec	 ecx
  00077	75 f4		 jne	 SHORT $LL112@LoadProper
  00079	80 b5 44 ff ff
	ff ed		 xor	 BYTE PTR __k$604256[ebp+12], -19 ; ffffffedH
  00080	53		 push	 ebx
  00081	8d 85 38 ff ff
	ff		 lea	 eax, DWORD PTR __k$604256[ebp]
  00087	50		 push	 eax
  00088	8b cf		 mov	 ecx, edi
  0008a	ff 15 00 00 00
	00		 call	 DWORD PTR __imp_?LoadInt@ioINILoader@@QAEHPBDH@Z
  00090	89 86 24 01 00
	00		 mov	 DWORD PTR [esi+292], eax
  00096	6a 03		 push	 3

; 100  : 	rkLoader.LoadString_e( "charging_ani", "", szBuf, MAX_PATH );

  00098	c7 85 ac fd ff
	ff 8e 84 8a 98	 mov	 DWORD PTR __k$604390[ebp], -1735752562 ; 988a848eH
  000a2	c7 85 b0 fd ff
	ff 8a 85 85 8d	 mov	 DWORD PTR __k$604390[ebp+4], -1920629366 ; 8d85858aH
  000ac	c7 85 b4 fd ff
	ff b2 8d 85 83	 mov	 DWORD PTR __k$604390[ebp+8], -2088399438 ; 83858db2H
  000b6	8d 85 ac fd ff
	ff		 lea	 eax, DWORD PTR __k$604390[ebp]
  000bc	88 9d b8 fd ff
	ff		 mov	 BYTE PTR __k$604390[ebp+12], bl
  000c2	59		 pop	 ecx
$LL218@LoadProper:
  000c3	81 30 ed ec eb
	ea		 xor	 DWORD PTR [eax], -353637139 ; eaebecedH
  000c9	83 c0 04	 add	 eax, 4
  000cc	49		 dec	 ecx
  000cd	75 f4		 jne	 SHORT $LL218@LoadProper
  000cf	68 04 01 00 00	 push	 260			; 00000104H
  000d4	8d 85 94 fc ff
	ff		 lea	 eax, DWORD PTR _szBuf$[ebp]
  000da	50		 push	 eax
  000db	68 00 00 00 00	 push	 OFFSET ??_C@_00CNPNBAHC@?$AA@
  000e0	8d 85 ac fd ff
	ff		 lea	 eax, DWORD PTR __k$604390[ebp]
  000e6	50		 push	 eax
  000e7	8b cf		 mov	 ecx, edi
  000e9	ff 15 00 00 00
	00		 call	 DWORD PTR __imp_?LoadStringA@ioINILoader@@QAEXPBD0PADH@Z

; 101  : 	m_szChargingAni = szBuf;

  000ef	8b 3d 00 00 00
	00		 mov	 edi, DWORD PTR __imp_??4ioHashString@@QAEAAV0@PBD@Z
  000f5	8d 85 94 fc ff
	ff		 lea	 eax, DWORD PTR _szBuf$[ebp]
  000fb	50		 push	 eax
  000fc	8d 8e 28 01 00
	00		 lea	 ecx, DWORD PTR [esi+296]
  00102	ff d7		 call	 edi
  00104	6a 02		 push	 2

; 102  : 
; 103  : 	m_dwGatherTime = (DWORD)rkLoader.LoadInt_e( "gather_time", 0 );

  00106	c7 85 d4 fe ff
	ff 8a 8d 9f 82	 mov	 DWORD PTR __k$604493[ebp], -2103472758 ; 829f8d8aH
  00110	c7 85 d8 fe ff
	ff 88 9e b4 9e	 mov	 DWORD PTR __k$604493[ebp+4], -1632330104 ; 9eb49e88H
  0011a	8d 85 d4 fe ff
	ff		 lea	 eax, DWORD PTR __k$604493[ebp]
  00120	c7 85 dc fe ff
	ff 84 81 8e 00	 mov	 DWORD PTR __k$604493[ebp+8], 9339268 ; 008e8184H
  0012a	59		 pop	 ecx
$LL324@LoadProper:
  0012b	81 30 ed ec eb
	ea		 xor	 DWORD PTR [eax], -353637139 ; eaebecedH
  00131	83 c0 04	 add	 eax, 4
  00134	49		 dec	 ecx
  00135	75 f4		 jne	 SHORT $LL324@LoadProper
  00137	6a 08		 push	 8
  00139	58		 pop	 eax
$LL321@LoadProper:
  0013a	8b c8		 mov	 ecx, eax
  0013c	81 e1 03 00 00
	80		 and	 ecx, -2147483645	; 80000003H
  00142	79 05		 jns	 SHORT $LN2448@LoadProper
  00144	49		 dec	 ecx
  00145	83 c9 fc	 or	 ecx, -4			; fffffffcH
  00148	41		 inc	 ecx
$LN2448@LoadProper:
  00149	b2 ed		 mov	 dl, -19			; ffffffedH
  0014b	2a d1		 sub	 dl, cl
  0014d	30 94 05 d4 fe
	ff ff		 xor	 BYTE PTR __k$604493[ebp+eax], dl
  00154	40		 inc	 eax
  00155	83 f8 0b	 cmp	 eax, 11			; 0000000bH
  00158	7c e0		 jl	 SHORT $LL321@LoadProper
  0015a	8b 8d 90 fc ff
	ff		 mov	 ecx, DWORD PTR _rkLoader$GSCopy$[ebp]
  00160	53		 push	 ebx
  00161	8d 85 d4 fe ff
	ff		 lea	 eax, DWORD PTR __k$604493[ebp]
  00167	50		 push	 eax
  00168	ff 15 00 00 00
	00		 call	 DWORD PTR __imp_?LoadInt@ioINILoader@@QAEHPBDH@Z
  0016e	89 86 38 01 00
	00		 mov	 DWORD PTR [esi+312], eax
  00174	6a 02		 push	 2

; 104  : 	rkLoader.LoadString_e( "gather_ani", "", szBuf, MAX_PATH );

  00176	c7 45 8c 8a 8d
	9f 82		 mov	 DWORD PTR __k$604618[ebp], -2103472758 ; 829f8d8aH
  0017d	c7 45 90 88 9e
	b4 8b		 mov	 DWORD PTR __k$604618[ebp+4], -1951097208 ; 8bb49e88H
  00184	66 c7 45 94 83
	85		 mov	 WORD PTR __k$604618[ebp+8], 34179 ; 00008583H
  0018a	8d 45 8c	 lea	 eax, DWORD PTR __k$604618[ebp]
  0018d	88 5d 96	 mov	 BYTE PTR __k$604618[ebp+10], bl
  00190	59		 pop	 ecx
$LL430@LoadProper:
  00191	81 30 ed ec eb
	ea		 xor	 DWORD PTR [eax], -353637139 ; eaebecedH
  00197	83 c0 04	 add	 eax, 4
  0019a	49		 dec	 ecx
  0019b	75 f4		 jne	 SHORT $LL430@LoadProper
  0019d	6a 08		 push	 8
  0019f	58		 pop	 eax
$LL427@LoadProper:
  001a0	8b c8		 mov	 ecx, eax
  001a2	81 e1 03 00 00
	80		 and	 ecx, -2147483645	; 80000003H
  001a8	79 05		 jns	 SHORT $LN2449@LoadProper
  001aa	49		 dec	 ecx
  001ab	83 c9 fc	 or	 ecx, -4			; fffffffcH
  001ae	41		 inc	 ecx
$LN2449@LoadProper:
  001af	b2 ed		 mov	 dl, -19			; ffffffedH
  001b1	2a d1		 sub	 dl, cl
  001b3	30 54 05 8c	 xor	 BYTE PTR __k$604618[ebp+eax], dl
  001b7	40		 inc	 eax
  001b8	83 f8 0a	 cmp	 eax, 10			; 0000000aH
  001bb	7c e3		 jl	 SHORT $LL427@LoadProper
  001bd	8b 8d 90 fc ff
	ff		 mov	 ecx, DWORD PTR _rkLoader$GSCopy$[ebp]
  001c3	68 04 01 00 00	 push	 260			; 00000104H
  001c8	8d 85 94 fc ff
	ff		 lea	 eax, DWORD PTR _szBuf$[ebp]
  001ce	50		 push	 eax
  001cf	68 00 00 00 00	 push	 OFFSET ??_C@_00CNPNBAHC@?$AA@
  001d4	8d 45 8c	 lea	 eax, DWORD PTR __k$604618[ebp]
  001d7	50		 push	 eax
  001d8	ff 15 00 00 00
	00		 call	 DWORD PTR __imp_?LoadStringA@ioINILoader@@QAEXPBD0PADH@Z

; 105  : 	m_szGatherAni = szBuf;	

  001de	8d 85 94 fc ff
	ff		 lea	 eax, DWORD PTR _szBuf$[ebp]
  001e4	50		 push	 eax
  001e5	8d 8e 3c 01 00
	00		 lea	 ecx, DWORD PTR [esi+316]
  001eb	ff d7		 call	 edi

; 106  : 
; 107  : 	LoadComboList( rkLoader );

  001ed	ff b5 90 fc ff
	ff		 push	 DWORD PTR _rkLoader$GSCopy$[ebp]
  001f3	8b ce		 mov	 ecx, esi
  001f5	e8 00 00 00 00	 call	 ?LoadComboList@ioParkilpyoJump@@IAEXAAVioINILoader@@@Z ; ioParkilpyoJump::LoadComboList
  001fa	6a 07		 push	 7

; 108  : 
; 109  : 	m_fJumpSpeedRateFR = rkLoader.LoadFloat_e( "extend_jump_speed_rate_front", 1.0f );

  001fc	c7 85 f4 fd ff
	ff 88 94 9f 8f	 mov	 DWORD PTR __k$604743[ebp], -1885367160 ; 8f9f9488H
  00206	c7 85 f8 fd ff
	ff 83 88 b4 80	 mov	 DWORD PTR __k$604743[ebp+4], -2135652221 ; 80b48883H
  00210	c7 85 fc fd ff
	ff 98 81 9b b5	 mov	 DWORD PTR __k$604743[ebp+8], -1248099944 ; b59b8198H
  0021a	c7 85 00 fe ff
	ff 9e 9c 8e 8f	 mov	 DWORD PTR __k$604743[ebp+12], -1886479202 ; 8f8e9c9eH
  00224	c7 85 04 fe ff
	ff 89 b3 99 8b	 mov	 DWORD PTR __k$604743[ebp+16], -1952861303 ; 8b99b389H
  0022e	c7 85 08 fe ff
	ff 99 89 b4 8c	 mov	 DWORD PTR __k$604743[ebp+20], -1934325351 ; 8cb48999H
  00238	c7 85 0c fe ff
	ff 9f 83 85 9e	 mov	 DWORD PTR __k$604743[ebp+24], -1635417185 ; 9e85839fH
  00242	8d 85 f4 fd ff
	ff		 lea	 eax, DWORD PTR __k$604743[ebp]
  00248	88 9d 10 fe ff
	ff		 mov	 BYTE PTR __k$604743[ebp+28], bl
  0024e	59		 pop	 ecx
  0024f	bf ed ec eb ea	 mov	 edi, -353637139		; eaebecedH
$LL536@LoadProper:
  00254	31 38		 xor	 DWORD PTR [eax], edi
  00256	83 c0 04	 add	 eax, 4
  00259	49		 dec	 ecx
  0025a	75 f8		 jne	 SHORT $LL536@LoadProper
  0025c	f3 0f 10 05 00
	00 00 00	 movss	 xmm0, DWORD PTR __real@3f800000
  00264	51		 push	 ecx
  00265	8b 8d 90 fc ff
	ff		 mov	 ecx, DWORD PTR _rkLoader$GSCopy$[ebp]
  0026b	8d 85 f4 fd ff
	ff		 lea	 eax, DWORD PTR __k$604743[ebp]
  00271	f3 0f 11 04 24	 movss	 DWORD PTR [esp], xmm0
  00276	50		 push	 eax
  00277	ff 15 00 00 00
	00		 call	 DWORD PTR __imp_?LoadFloat@ioINILoader@@QAEMPBDM@Z
  0027d	d9 9e 5c 01 00
	00		 fstp	 DWORD PTR [esi+348]
  00283	6a 06		 push	 6

; 110  : 	m_fJumpSpeedRateSI = rkLoader.LoadFloat_e( "extend_jump_speed_rate_side", 1.0f );

  00285	c7 85 18 ff ff
	ff 88 94 9f 8f	 mov	 DWORD PTR __k$604868[ebp], -1885367160 ; 8f9f9488H
  0028f	c7 85 1c ff ff
	ff 83 88 b4 80	 mov	 DWORD PTR __k$604868[ebp+4], -2135652221 ; 80b48883H
  00299	c7 85 20 ff ff
	ff 98 81 9b b5	 mov	 DWORD PTR __k$604868[ebp+8], -1248099944 ; b59b8198H
  002a3	c7 85 24 ff ff
	ff 9e 9c 8e 8f	 mov	 DWORD PTR __k$604868[ebp+12], -1886479202 ; 8f8e9c9eH
  002ad	c7 85 28 ff ff
	ff 89 b3 99 8b	 mov	 DWORD PTR __k$604868[ebp+16], -1952861303 ; 8b99b389H
  002b7	c7 85 2c ff ff
	ff 99 89 b4 99	 mov	 DWORD PTR __k$604868[ebp+20], -1716221543 ; 99b48999H
  002c1	8d 85 18 ff ff
	ff		 lea	 eax, DWORD PTR __k$604868[ebp]
  002c7	c7 85 30 ff ff
	ff 84 88 8e 00	 mov	 DWORD PTR __k$604868[ebp+24], 9341060 ; 008e8884H
  002d1	59		 pop	 ecx
$LL642@LoadProper:
  002d2	31 38		 xor	 DWORD PTR [eax], edi
  002d4	83 c0 04	 add	 eax, 4
  002d7	49		 dec	 ecx
  002d8	75 f8		 jne	 SHORT $LL642@LoadProper
  002da	6a 18		 push	 24			; 00000018H
  002dc	58		 pop	 eax
$LL639@LoadProper:
  002dd	8b c8		 mov	 ecx, eax
  002df	81 e1 03 00 00
	80		 and	 ecx, -2147483645	; 80000003H
  002e5	79 05		 jns	 SHORT $LN2450@LoadProper
  002e7	49		 dec	 ecx
  002e8	83 c9 fc	 or	 ecx, -4			; fffffffcH
  002eb	41		 inc	 ecx
$LN2450@LoadProper:
  002ec	b2 ed		 mov	 dl, -19			; ffffffedH
  002ee	2a d1		 sub	 dl, cl
  002f0	30 94 05 18 ff
	ff ff		 xor	 BYTE PTR __k$604868[ebp+eax], dl
  002f7	40		 inc	 eax
  002f8	83 f8 1b	 cmp	 eax, 27			; 0000001bH
  002fb	7c e0		 jl	 SHORT $LL639@LoadProper
  002fd	f3 0f 10 05 00
	00 00 00	 movss	 xmm0, DWORD PTR __real@3f800000
  00305	51		 push	 ecx
  00306	8b 8d 90 fc ff
	ff		 mov	 ecx, DWORD PTR _rkLoader$GSCopy$[ebp]
  0030c	8d 85 18 ff ff
	ff		 lea	 eax, DWORD PTR __k$604868[ebp]
  00312	f3 0f 11 04 24	 movss	 DWORD PTR [esp], xmm0
  00317	50		 push	 eax
  00318	ff 15 00 00 00
	00		 call	 DWORD PTR __imp_?LoadFloat@ioINILoader@@QAEMPBDM@Z
  0031e	d9 9e 60 01 00
	00		 fstp	 DWORD PTR [esi+352]
  00324	6a 06		 push	 6

; 111  : 	m_fJumpSpeedRateBG = rkLoader.LoadFloat_e( "extend_jump_speed_rate_back", 1.0f );

  00326	c7 85 e4 fe ff
	ff 88 94 9f 8f	 mov	 DWORD PTR __k$604993[ebp], -1885367160 ; 8f9f9488H
  00330	c7 85 e8 fe ff
	ff 83 88 b4 80	 mov	 DWORD PTR __k$604993[ebp+4], -2135652221 ; 80b48883H
  0033a	c7 85 ec fe ff
	ff 98 81 9b b5	 mov	 DWORD PTR __k$604993[ebp+8], -1248099944 ; b59b8198H
  00344	c7 85 f0 fe ff
	ff 9e 9c 8e 8f	 mov	 DWORD PTR __k$604993[ebp+12], -1886479202 ; 8f8e9c9eH
  0034e	c7 85 f4 fe ff
	ff 89 b3 99 8b	 mov	 DWORD PTR __k$604993[ebp+16], -1952861303 ; 8b99b389H
  00358	c7 85 f8 fe ff
	ff 99 89 b4 88	 mov	 DWORD PTR __k$604993[ebp+20], -2001434215 ; 88b48999H
  00362	8d 85 e4 fe ff
	ff		 lea	 eax, DWORD PTR __k$604993[ebp]
  00368	c7 85 fc fe ff
	ff 8c 8f 80 00	 mov	 DWORD PTR __k$604993[ebp+24], 8425356 ; 00808f8cH
  00372	59		 pop	 ecx
$LL748@LoadProper:
  00373	31 38		 xor	 DWORD PTR [eax], edi
  00375	83 c0 04	 add	 eax, 4
  00378	49		 dec	 ecx
  00379	75 f8		 jne	 SHORT $LL748@LoadProper
  0037b	6a 18		 push	 24			; 00000018H
  0037d	58		 pop	 eax
$LL745@LoadProper:
  0037e	8b c8		 mov	 ecx, eax
  00380	81 e1 03 00 00
	80		 and	 ecx, -2147483645	; 80000003H
  00386	79 05		 jns	 SHORT $LN2451@LoadProper
  00388	49		 dec	 ecx
  00389	83 c9 fc	 or	 ecx, -4			; fffffffcH
  0038c	41		 inc	 ecx
$LN2451@LoadProper:
  0038d	b2 ed		 mov	 dl, -19			; ffffffedH
  0038f	2a d1		 sub	 dl, cl
  00391	30 94 05 e4 fe
	ff ff		 xor	 BYTE PTR __k$604993[ebp+eax], dl
  00398	40		 inc	 eax
  00399	83 f8 1b	 cmp	 eax, 27			; 0000001bH
  0039c	7c e0		 jl	 SHORT $LL745@LoadProper
  0039e	f3 0f 10 05 00
	00 00 00	 movss	 xmm0, DWORD PTR __real@3f800000
  003a6	51		 push	 ecx
  003a7	8b 8d 90 fc ff
	ff		 mov	 ecx, DWORD PTR _rkLoader$GSCopy$[ebp]
  003ad	8d 85 e4 fe ff
	ff		 lea	 eax, DWORD PTR __k$604993[ebp]
  003b3	f3 0f 11 04 24	 movss	 DWORD PTR [esp], xmm0
  003b8	50		 push	 eax
  003b9	ff 15 00 00 00
	00		 call	 DWORD PTR __imp_?LoadFloat@ioINILoader@@QAEMPBDM@Z
  003bf	d9 9e 64 01 00
	00		 fstp	 DWORD PTR [esi+356]
  003c5	6a 03		 push	 3

; 112  : 
; 113  : 	m_nMaxJumpCnt = rkLoader.LoadInt_e( "max_jump_cnt", 0 );

  003c7	c7 85 98 fd ff
	ff 80 8d 93 b5	 mov	 DWORD PTR __k$605118[ebp], -1248621184 ; b5938d80H
  003d1	c7 85 9c fd ff
	ff 87 99 86 9a	 mov	 DWORD PTR __k$605118[ebp+4], -1702454905 ; 9a869987H
  003db	c7 85 a0 fd ff
	ff b2 8f 85 9e	 mov	 DWORD PTR __k$605118[ebp+8], -1635414094 ; 9e858fb2H
  003e5	8d 85 98 fd ff
	ff		 lea	 eax, DWORD PTR __k$605118[ebp]
  003eb	88 9d a4 fd ff
	ff		 mov	 BYTE PTR __k$605118[ebp+12], bl
  003f1	59		 pop	 ecx
$LL854@LoadProper:
  003f2	31 38		 xor	 DWORD PTR [eax], edi
  003f4	83 c0 04	 add	 eax, 4
  003f7	49		 dec	 ecx
  003f8	75 f8		 jne	 SHORT $LL854@LoadProper
  003fa	8b 8d 90 fc ff
	ff		 mov	 ecx, DWORD PTR _rkLoader$GSCopy$[ebp]
  00400	53		 push	 ebx
  00401	8d 85 98 fd ff
	ff		 lea	 eax, DWORD PTR __k$605118[ebp]
  00407	50		 push	 eax
  00408	ff 15 00 00 00
	00		 call	 DWORD PTR __imp_?LoadInt@ioINILoader@@QAEHPBDH@Z
  0040e	89 86 68 01 00
	00		 mov	 DWORD PTR [esi+360], eax

; 114  : 	m_nMaxJumpCnt = max( 1, m_nMaxJumpCnt );

  00414	83 f8 01	 cmp	 eax, 1
  00417	7d 03		 jge	 SHORT $LN3@LoadProper
  00419	33 c0		 xor	 eax, eax
  0041b	40		 inc	 eax
$LN3@LoadProper:
  0041c	89 86 68 01 00
	00		 mov	 DWORD PTR [esi+360], eax
  00422	6a 04		 push	 4

; 115  : 
; 116  : 	m_fDoubleJumpPower = rkLoader.LoadFloat_e( "double_jump_power", 0.0f );

  00424	c7 85 9c fe ff
	ff 89 83 9e 88	 mov	 DWORD PTR __k$605256[ebp], -2002877559 ; 889e8389H
  0042e	c7 85 a0 fe ff
	ff 81 89 b4 80	 mov	 DWORD PTR __k$605256[ebp+4], -2135651967 ; 80b48981H
  00438	c7 85 a4 fe ff
	ff 98 81 9b b5	 mov	 DWORD PTR __k$605256[ebp+8], -1248099944 ; b59b8198H
  00442	c7 85 a8 fe ff
	ff 9d 83 9c 8f	 mov	 DWORD PTR __k$605256[ebp+12], -1885568099 ; 8f9c839dH
  0044c	8d 85 9c fe ff
	ff		 lea	 eax, DWORD PTR __k$605256[ebp]
  00452	66 c7 85 ac fe
	ff ff 9f 00	 mov	 WORD PTR __k$605256[ebp+16], 159 ; 0000009fH
  0045b	59		 pop	 ecx
$LL960@LoadProper:
  0045c	31 38		 xor	 DWORD PTR [eax], edi
  0045e	83 c0 04	 add	 eax, 4
  00461	49		 dec	 ecx
  00462	75 f8		 jne	 SHORT $LL960@LoadProper
  00464	0f 57 c0	 xorps	 xmm0, xmm0
  00467	80 b5 ac fe ff
	ff ed		 xor	 BYTE PTR __k$605256[ebp+16], -19 ; ffffffedH
  0046e	51		 push	 ecx
  0046f	8b 8d 90 fc ff
	ff		 mov	 ecx, DWORD PTR _rkLoader$GSCopy$[ebp]
  00475	8d 85 9c fe ff
	ff		 lea	 eax, DWORD PTR __k$605256[ebp]
  0047b	f3 0f 11 04 24	 movss	 DWORD PTR [esp], xmm0
  00480	50		 push	 eax
  00481	ff 15 00 00 00
	00		 call	 DWORD PTR __imp_?LoadFloat@ioINILoader@@QAEMPBDM@Z
  00487	d9 9e 6c 01 00
	00		 fstp	 DWORD PTR [esi+364]
  0048d	6a 04		 push	 4

; 117  : 	m_fDoubleJumpForce = rkLoader.LoadFloat_e( "double_jump_force", 0.0f );

  0048f	c7 45 d8 89 83
	9e 88		 mov	 DWORD PTR __k$605381[ebp], -2002877559 ; 889e8389H
  00496	c7 45 dc 81 89
	b4 80		 mov	 DWORD PTR __k$605381[ebp+4], -2135651967 ; 80b48981H
  0049d	c7 45 e0 98 81
	9b b5		 mov	 DWORD PTR __k$605381[ebp+8], -1248099944 ; b59b8198H
  004a4	c7 45 e4 8b 83
	99 89		 mov	 DWORD PTR __k$605381[ebp+12], -1986428021 ; 8999838bH
  004ab	8d 45 d8	 lea	 eax, DWORD PTR __k$605381[ebp]
  004ae	66 c7 45 e8 88
	00		 mov	 WORD PTR __k$605381[ebp+16], 136 ; 00000088H
  004b4	59		 pop	 ecx
$LL1066@LoadProper:
  004b5	31 38		 xor	 DWORD PTR [eax], edi
  004b7	83 c0 04	 add	 eax, 4
  004ba	49		 dec	 ecx
  004bb	75 f8		 jne	 SHORT $LL1066@LoadProper
  004bd	0f 57 c0	 xorps	 xmm0, xmm0
  004c0	80 75 e8 ed	 xor	 BYTE PTR __k$605381[ebp+16], -19 ; ffffffedH
  004c4	51		 push	 ecx
  004c5	8b 8d 90 fc ff
	ff		 mov	 ecx, DWORD PTR _rkLoader$GSCopy$[ebp]
  004cb	8d 45 d8	 lea	 eax, DWORD PTR __k$605381[ebp]
  004ce	f3 0f 11 04 24	 movss	 DWORD PTR [esp], xmm0
  004d3	50		 push	 eax
  004d4	ff 15 00 00 00
	00		 call	 DWORD PTR __imp_?LoadFloat@ioINILoader@@QAEMPBDM@Z
  004da	d9 9e 70 01 00
	00		 fstp	 DWORD PTR [esi+368]
  004e0	6a 05		 push	 5

; 118  : 	m_dwDoubleJumpEnableTime = rkLoader.LoadInt_e( "double_jump_enable_time", 0 );

  004e2	c7 45 bc 89 83
	9e 88		 mov	 DWORD PTR __k$605528[ebp], -2002877559 ; 889e8389H
  004e9	c7 45 c0 81 89
	b4 80		 mov	 DWORD PTR __k$605528[ebp+4], -2135651967 ; 80b48981H
  004f0	c7 45 c4 98 81
	9b b5		 mov	 DWORD PTR __k$605528[ebp+8], -1248099944 ; b59b8198H
  004f7	c7 45 c8 88 82
	8a 88		 mov	 DWORD PTR __k$605528[ebp+12], -2004188536 ; 888a8288H
  004fe	c7 45 cc 81 89
	b4 9e		 mov	 DWORD PTR __k$605528[ebp+16], -1632335487 ; 9eb48981H
  00505	8d 45 bc	 lea	 eax, DWORD PTR __k$605528[ebp]
  00508	c7 45 d0 84 81
	8e 00		 mov	 DWORD PTR __k$605528[ebp+20], 9339268 ; 008e8184H
  0050f	59		 pop	 ecx
$LL1172@LoadProper:
  00510	31 38		 xor	 DWORD PTR [eax], edi
  00512	83 c0 04	 add	 eax, 4
  00515	49		 dec	 ecx
  00516	75 f8		 jne	 SHORT $LL1172@LoadProper
  00518	6a 14		 push	 20			; 00000014H
  0051a	58		 pop	 eax
$LL1169@LoadProper:
  0051b	8b c8		 mov	 ecx, eax
  0051d	81 e1 03 00 00
	80		 and	 ecx, -2147483645	; 80000003H
  00523	79 05		 jns	 SHORT $LN2452@LoadProper
  00525	49		 dec	 ecx
  00526	83 c9 fc	 or	 ecx, -4			; fffffffcH
  00529	41		 inc	 ecx
$LN2452@LoadProper:
  0052a	b2 ed		 mov	 dl, -19			; ffffffedH
  0052c	2a d1		 sub	 dl, cl
  0052e	30 54 05 bc	 xor	 BYTE PTR __k$605528[ebp+eax], dl
  00532	40		 inc	 eax
  00533	83 f8 17	 cmp	 eax, 23			; 00000017H
  00536	7c e3		 jl	 SHORT $LL1169@LoadProper
  00538	8b 8d 90 fc ff
	ff		 mov	 ecx, DWORD PTR _rkLoader$GSCopy$[ebp]
  0053e	53		 push	 ebx
  0053f	8d 45 bc	 lea	 eax, DWORD PTR __k$605528[ebp]
  00542	50		 push	 eax
  00543	ff 15 00 00 00
	00		 call	 DWORD PTR __imp_?LoadInt@ioINILoader@@QAEHPBDH@Z
  00549	89 86 78 01 00
	00		 mov	 DWORD PTR [esi+376], eax
  0054f	6a 06		 push	 6

; 119  : 	m_fDoubleJumpEnableHeight = rkLoader.LoadFloat_e( "double_jump_enable_height", 0.0f );

  00551	c7 45 9c 89 83
	9e 88		 mov	 DWORD PTR __k$605618[ebp], -2002877559 ; 889e8389H
  00558	c7 45 a0 81 89
	b4 80		 mov	 DWORD PTR __k$605618[ebp+4], -2135651967 ; 80b48981H
  0055f	c7 45 a4 98 81
	9b b5		 mov	 DWORD PTR __k$605618[ebp+8], -1248099944 ; b59b8198H
  00566	c7 45 a8 88 82
	8a 88		 mov	 DWORD PTR __k$605618[ebp+12], -2004188536 ; 888a8288H
  0056d	c7 45 ac 81 89
	b4 82		 mov	 DWORD PTR __k$605618[ebp+16], -2102097535 ; 82b48981H
  00574	c7 45 b0 88 85
	8c 82		 mov	 DWORD PTR __k$605618[ebp+20], -2104719992 ; 828c8588H
  0057b	8d 45 9c	 lea	 eax, DWORD PTR __k$605618[ebp]
  0057e	66 c7 45 b4 99
	00		 mov	 WORD PTR __k$605618[ebp+24], 153 ; 00000099H
  00584	59		 pop	 ecx
$LL1278@LoadProper:
  00585	31 38		 xor	 DWORD PTR [eax], edi
  00587	83 c0 04	 add	 eax, 4
  0058a	49		 dec	 ecx
  0058b	75 f8		 jne	 SHORT $LL1278@LoadProper
  0058d	0f 57 c0	 xorps	 xmm0, xmm0
  00590	80 75 b4 ed	 xor	 BYTE PTR __k$605618[ebp+24], -19 ; ffffffedH
  00594	51		 push	 ecx
  00595	8b 8d 90 fc ff
	ff		 mov	 ecx, DWORD PTR _rkLoader$GSCopy$[ebp]
  0059b	8d 45 9c	 lea	 eax, DWORD PTR __k$605618[ebp]
  0059e	f3 0f 11 04 24	 movss	 DWORD PTR [esp], xmm0
  005a3	50		 push	 eax
  005a4	ff 15 00 00 00
	00		 call	 DWORD PTR __imp_?LoadFloat@ioINILoader@@QAEMPBDM@Z
  005aa	d9 9e 74 01 00
	00		 fstp	 DWORD PTR [esi+372]
  005b0	6a 05		 push	 5

; 120  : 
; 121  : 	m_fDoubleJumpAniRate = rkLoader.LoadFloat_e( "double_jump_ani_rate", 1.0f );

  005b2	c7 85 d8 fd ff
	ff 89 83 9e 88	 mov	 DWORD PTR __k$605743[ebp], -2002877559 ; 889e8389H
  005bc	c7 85 dc fd ff
	ff 81 89 b4 80	 mov	 DWORD PTR __k$605743[ebp+4], -2135651967 ; 80b48981H
  005c6	c7 85 e0 fd ff
	ff 98 81 9b b5	 mov	 DWORD PTR __k$605743[ebp+8], -1248099944 ; b59b8198H
  005d0	c7 85 e4 fd ff
	ff 8c 82 82 b5	 mov	 DWORD PTR __k$605743[ebp+12], -1249738100 ; b582828cH
  005da	c7 85 e8 fd ff
	ff 9f 8d 9f 8f	 mov	 DWORD PTR __k$605743[ebp+16], -1885368929 ; 8f9f8d9fH
  005e4	8d 85 d8 fd ff
	ff		 lea	 eax, DWORD PTR __k$605743[ebp]
  005ea	88 9d ec fd ff
	ff		 mov	 BYTE PTR __k$605743[ebp+20], bl
  005f0	59		 pop	 ecx
$LL1384@LoadProper:
  005f1	31 38		 xor	 DWORD PTR [eax], edi
  005f3	83 c0 04	 add	 eax, 4
  005f6	49		 dec	 ecx
  005f7	75 f8		 jne	 SHORT $LL1384@LoadProper
  005f9	f3 0f 10 05 00
	00 00 00	 movss	 xmm0, DWORD PTR __real@3f800000
  00601	51		 push	 ecx
  00602	8b 8d 90 fc ff
	ff		 mov	 ecx, DWORD PTR _rkLoader$GSCopy$[ebp]
  00608	8d 85 d8 fd ff
	ff		 lea	 eax, DWORD PTR __k$605743[ebp]
  0060e	f3 0f 11 04 24	 movss	 DWORD PTR [esp], xmm0
  00613	50		 push	 eax
  00614	ff 15 00 00 00
	00		 call	 DWORD PTR __imp_?LoadFloat@ioINILoader@@QAEMPBDM@Z
  0061a	d9 9e 8c 01 00
	00		 fstp	 DWORD PTR [esi+396]

; 122  : 
; 123  : 	m_vDoubleJumpAniList.clear();

  00620	8b 86 80 01 00
	00		 mov	 eax, DWORD PTR [esi+384]
  00626	8b 8e 7c 01 00
	00		 mov	 ecx, DWORD PTR [esi+380]
  0062c	50		 push	 eax
  0062d	51		 push	 ecx
  0062e	8d 85 8c fc ff
	ff		 lea	 eax, DWORD PTR $T605915[ebp]
  00634	50		 push	 eax
  00635	8d 8e 7c 01 00
	00		 lea	 ecx, DWORD PTR [esi+380]
  0063b	e8 00 00 00 00	 call	 ?erase@?$vector@VioHashString@@V?$allocator@VioHashString@@@std@@@std@@QAE?AV?$_Vector_iterator@V?$_Vector_val@VioHashString@@V?$allocator@VioHashString@@@std@@@std@@@2@V?$_Vector_const_iterator@V?$_Vector_val@VioHashString@@V?$allocator@VioHashString@@@std@@@std@@@2@0@Z ; std::vector<ioHashString,std::allocator<ioHashString> >::erase

; 124  : 	m_vDoubleJumpAniList.reserve( 4 );

  00640	6a 04		 push	 4
  00642	8d 8e 7c 01 00
	00		 lea	 ecx, DWORD PTR [esi+380]
  00648	e8 00 00 00 00	 call	 ?reserve@?$vector@VioHashString@@V?$allocator@VioHashString@@@std@@@std@@QAEXI@Z ; std::vector<ioHashString,std::allocator<ioHashString> >::reserve
  0064d	6a 06		 push	 6

; 125  : 
; 126  : 	rkLoader.LoadString_e( "double_jump_animation_front", "", szBuf, MAX_PATH );

  0064f	c7 85 b4 fe ff
	ff 89 83 9e 88	 mov	 DWORD PTR __k$605948[ebp], -2002877559 ; 889e8389H
  00659	c7 85 b8 fe ff
	ff 81 89 b4 80	 mov	 DWORD PTR __k$605948[ebp+4], -2135651967 ; 80b48981H
  00663	c7 85 bc fe ff
	ff 98 81 9b b5	 mov	 DWORD PTR __k$605948[ebp+8], -1248099944 ; b59b8198H
  0066d	c7 85 c0 fe ff
	ff 8c 82 82 87	 mov	 DWORD PTR __k$605948[ebp+12], -2021490036 ; 8782828cH
  00677	c7 85 c4 fe ff
	ff 8c 98 82 85	 mov	 DWORD PTR __k$605948[ebp+16], -2055038836 ; 8582988cH
  00681	c7 85 c8 fe ff
	ff 83 b3 8d 98	 mov	 DWORD PTR __k$605948[ebp+20], -1735543933 ; 988db383H
  0068b	8d 85 b4 fe ff
	ff		 lea	 eax, DWORD PTR __k$605948[ebp]
  00691	c7 85 cc fe ff
	ff 82 82 9f 00	 mov	 DWORD PTR __k$605948[ebp+24], 10453634 ; 009f8282H
  0069b	59		 pop	 ecx
$LL1508@LoadProper:
  0069c	31 38		 xor	 DWORD PTR [eax], edi
  0069e	83 c0 04	 add	 eax, 4
  006a1	49		 dec	 ecx
  006a2	75 f8		 jne	 SHORT $LL1508@LoadProper
  006a4	6a 18		 push	 24			; 00000018H
  006a6	5f		 pop	 edi
$LL1505@LoadProper:
  006a7	8b c7		 mov	 eax, edi
  006a9	25 03 00 00 80	 and	 eax, -2147483645	; 80000003H
  006ae	79 05		 jns	 SHORT $LN2453@LoadProper
  006b0	48		 dec	 eax
  006b1	83 c8 fc	 or	 eax, -4			; fffffffcH
  006b4	40		 inc	 eax
$LN2453@LoadProper:
  006b5	b1 ed		 mov	 cl, -19			; ffffffedH
  006b7	2a c8		 sub	 cl, al
  006b9	30 8c 3d b4 fe
	ff ff		 xor	 BYTE PTR __k$605948[ebp+edi], cl
  006c0	47		 inc	 edi
  006c1	83 ff 1b	 cmp	 edi, 27			; 0000001bH
  006c4	7c e1		 jl	 SHORT $LL1505@LoadProper
  006c6	8b 8d 90 fc ff
	ff		 mov	 ecx, DWORD PTR _rkLoader$GSCopy$[ebp]
  006cc	68 04 01 00 00	 push	 260			; 00000104H
  006d1	8d 85 94 fc ff
	ff		 lea	 eax, DWORD PTR _szBuf$[ebp]
  006d7	50		 push	 eax
  006d8	68 00 00 00 00	 push	 OFFSET ??_C@_00CNPNBAHC@?$AA@
  006dd	8d 85 b4 fe ff
	ff		 lea	 eax, DWORD PTR __k$605948[ebp]
  006e3	50		 push	 eax
  006e4	ff 15 00 00 00
	00		 call	 DWORD PTR __imp_?LoadStringA@ioINILoader@@QAEXPBD0PADH@Z

; 127  : 	m_vDoubleJumpAniList.push_back( szBuf );

  006ea	8b 3d 00 00 00
	00		 mov	 edi, DWORD PTR __imp_??0ioHashString@@QAE@PBD@Z
  006f0	8d 85 94 fc ff
	ff		 lea	 eax, DWORD PTR _szBuf$[ebp]
  006f6	50		 push	 eax
  006f7	8d 8d 6c fc ff
	ff		 lea	 ecx, DWORD PTR $T604220[ebp]
  006fd	ff d7		 call	 edi
  006ff	8d 85 6c fc ff
	ff		 lea	 eax, DWORD PTR $T604220[ebp]
  00705	50		 push	 eax
  00706	8d 8e 7c 01 00
	00		 lea	 ecx, DWORD PTR [esi+380]
  0070c	89 5d fc	 mov	 DWORD PTR __$EHRec$[ebp+8], ebx
  0070f	e8 00 00 00 00	 call	 ?push_back@?$vector@VioHashString@@V?$allocator@VioHashString@@@std@@@std@@QAEXABVioHashString@@@Z ; std::vector<ioHashString,std::allocator<ioHashString> >::push_back
  00714	83 4d fc ff	 or	 DWORD PTR __$EHRec$[ebp+8], -1
  00718	8d 8d 6c fc ff
	ff		 lea	 ecx, DWORD PTR $T604220[ebp]
  0071e	ff 15 00 00 00
	00		 call	 DWORD PTR __imp_??1ioHashString@@QAE@XZ
  00724	6a 06		 push	 6

; 128  : 	rkLoader.LoadString_e( "double_jump_animation_right", "", szBuf, MAX_PATH );

  00726	c7 85 7c fe ff
	ff 89 83 9e 88	 mov	 DWORD PTR __k$606073[ebp], -2002877559 ; 889e8389H
  00730	c7 85 80 fe ff
	ff 81 89 b4 80	 mov	 DWORD PTR __k$606073[ebp+4], -2135651967 ; 80b48981H
  0073a	c7 85 84 fe ff
	ff 98 81 9b b5	 mov	 DWORD PTR __k$606073[ebp+8], -1248099944 ; b59b8198H
  00744	c7 85 88 fe ff
	ff 8c 82 82 87	 mov	 DWORD PTR __k$606073[ebp+12], -2021490036 ; 8782828cH
  0074e	c7 85 8c fe ff
	ff 8c 98 82 85	 mov	 DWORD PTR __k$606073[ebp+16], -2055038836 ; 8582988cH
  00758	c7 85 90 fe ff
	ff 83 b3 99 83	 mov	 DWORD PTR __k$606073[ebp+20], -2087079037 ; 8399b383H
  00762	8d 85 7c fe ff
	ff		 lea	 eax, DWORD PTR __k$606073[ebp]
  00768	c7 85 94 fe ff
	ff 8a 84 9f 00	 mov	 DWORD PTR __k$606073[ebp+24], 10454154 ; 009f848aH
  00772	59		 pop	 ecx
$LL1614@LoadProper:
  00773	81 30 ed ec eb
	ea		 xor	 DWORD PTR [eax], -353637139 ; eaebecedH
  00779	83 c0 04	 add	 eax, 4
  0077c	49		 dec	 ecx
  0077d	75 f4		 jne	 SHORT $LL1614@LoadProper
  0077f	6a 18		 push	 24			; 00000018H
  00781	58		 pop	 eax
$LL1611@LoadProper:
  00782	8b c8		 mov	 ecx, eax
  00784	81 e1 03 00 00
	80		 and	 ecx, -2147483645	; 80000003H
  0078a	79 05		 jns	 SHORT $LN2454@LoadProper
  0078c	49		 dec	 ecx
  0078d	83 c9 fc	 or	 ecx, -4			; fffffffcH
  00790	41		 inc	 ecx
$LN2454@LoadProper:
  00791	b2 ed		 mov	 dl, -19			; ffffffedH
  00793	2a d1		 sub	 dl, cl
  00795	30 94 05 7c fe
	ff ff		 xor	 BYTE PTR __k$606073[ebp+eax], dl
  0079c	40		 inc	 eax
  0079d	83 f8 1b	 cmp	 eax, 27			; 0000001bH
  007a0	7c e0		 jl	 SHORT $LL1611@LoadProper
  007a2	8b 8d 90 fc ff
	ff		 mov	 ecx, DWORD PTR _rkLoader$GSCopy$[ebp]
  007a8	68 04 01 00 00	 push	 260			; 00000104H
  007ad	8d 85 94 fc ff
	ff		 lea	 eax, DWORD PTR _szBuf$[ebp]
  007b3	50		 push	 eax
  007b4	68 00 00 00 00	 push	 OFFSET ??_C@_00CNPNBAHC@?$AA@
  007b9	8d 85 7c fe ff
	ff		 lea	 eax, DWORD PTR __k$606073[ebp]
  007bf	50		 push	 eax
  007c0	ff 15 00 00 00
	00		 call	 DWORD PTR __imp_?LoadStringA@ioINILoader@@QAEXPBD0PADH@Z

; 129  : 	m_vDoubleJumpAniList.push_back( szBuf );

  007c6	8d 85 94 fc ff
	ff		 lea	 eax, DWORD PTR _szBuf$[ebp]
  007cc	50		 push	 eax
  007cd	8d 8d 4c fc ff
	ff		 lea	 ecx, DWORD PTR $T604221[ebp]
  007d3	ff d7		 call	 edi
  007d5	8d 85 4c fc ff
	ff		 lea	 eax, DWORD PTR $T604221[ebp]
  007db	50		 push	 eax
  007dc	8d 8e 7c 01 00
	00		 lea	 ecx, DWORD PTR [esi+380]
  007e2	c7 45 fc 01 00
	00 00		 mov	 DWORD PTR __$EHRec$[ebp+8], 1
  007e9	e8 00 00 00 00	 call	 ?push_back@?$vector@VioHashString@@V?$allocator@VioHashString@@@std@@@std@@QAEXABVioHashString@@@Z ; std::vector<ioHashString,std::allocator<ioHashString> >::push_back
  007ee	83 4d fc ff	 or	 DWORD PTR __$EHRec$[ebp+8], -1
  007f2	8d 8d 4c fc ff
	ff		 lea	 ecx, DWORD PTR $T604221[ebp]
  007f8	ff 15 00 00 00
	00		 call	 DWORD PTR __imp_??1ioHashString@@QAE@XZ
  007fe	6a 06		 push	 6

; 130  : 	rkLoader.LoadString_e( "double_jump_animation_back", "", szBuf, MAX_PATH );

  00800	c7 85 6c ff ff
	ff 89 83 9e 88	 mov	 DWORD PTR __k$606198[ebp], -2002877559 ; 889e8389H
  0080a	c7 85 70 ff ff
	ff 81 89 b4 80	 mov	 DWORD PTR __k$606198[ebp+4], -2135651967 ; 80b48981H
  00814	c7 85 74 ff ff
	ff 98 81 9b b5	 mov	 DWORD PTR __k$606198[ebp+8], -1248099944 ; b59b8198H
  0081e	c7 85 78 ff ff
	ff 8c 82 82 87	 mov	 DWORD PTR __k$606198[ebp+12], -2021490036 ; 8782828cH
  00828	c7 85 7c ff ff
	ff 8c 98 82 85	 mov	 DWORD PTR __k$606198[ebp+16], -2055038836 ; 8582988cH
  00832	c7 45 80 83 b3
	89 8b		 mov	 DWORD PTR __k$606198[ebp+20], -1953909885 ; 8b89b383H
  00839	66 c7 45 84 8e
	87		 mov	 WORD PTR __k$606198[ebp+24], 34702 ; 0000878eH
  0083f	8d 85 6c ff ff
	ff		 lea	 eax, DWORD PTR __k$606198[ebp]
  00845	88 5d 86	 mov	 BYTE PTR __k$606198[ebp+26], bl
  00848	59		 pop	 ecx
$LL1720@LoadProper:
  00849	81 30 ed ec eb
	ea		 xor	 DWORD PTR [eax], -353637139 ; eaebecedH
  0084f	83 c0 04	 add	 eax, 4
  00852	49		 dec	 ecx
  00853	75 f4		 jne	 SHORT $LL1720@LoadProper
  00855	6a 18		 push	 24			; 00000018H
  00857	58		 pop	 eax
$LL1717@LoadProper:
  00858	8b c8		 mov	 ecx, eax
  0085a	81 e1 03 00 00
	80		 and	 ecx, -2147483645	; 80000003H
  00860	79 05		 jns	 SHORT $LN2455@LoadProper
  00862	49		 dec	 ecx
  00863	83 c9 fc	 or	 ecx, -4			; fffffffcH
  00866	41		 inc	 ecx
$LN2455@LoadProper:
  00867	b2 ed		 mov	 dl, -19			; ffffffedH
  00869	2a d1		 sub	 dl, cl
  0086b	30 94 05 6c ff
	ff ff		 xor	 BYTE PTR __k$606198[ebp+eax], dl
  00872	40		 inc	 eax
  00873	83 f8 1a	 cmp	 eax, 26			; 0000001aH
  00876	7c e0		 jl	 SHORT $LL1717@LoadProper
  00878	8b 8d 90 fc ff
	ff		 mov	 ecx, DWORD PTR _rkLoader$GSCopy$[ebp]
  0087e	68 04 01 00 00	 push	 260			; 00000104H
  00883	8d 85 94 fc ff
	ff		 lea	 eax, DWORD PTR _szBuf$[ebp]
  00889	50		 push	 eax
  0088a	68 00 00 00 00	 push	 OFFSET ??_C@_00CNPNBAHC@?$AA@
  0088f	8d 85 6c ff ff
	ff		 lea	 eax, DWORD PTR __k$606198[ebp]
  00895	50		 push	 eax
  00896	ff 15 00 00 00
	00		 call	 DWORD PTR __imp_?LoadStringA@ioINILoader@@QAEXPBD0PADH@Z

; 131  : 	m_vDoubleJumpAniList.push_back( szBuf );

  0089c	8d 85 94 fc ff
	ff		 lea	 eax, DWORD PTR _szBuf$[ebp]
  008a2	50		 push	 eax
  008a3	8d 8d 5c fc ff
	ff		 lea	 ecx, DWORD PTR $T604222[ebp]
  008a9	ff d7		 call	 edi
  008ab	8d 85 5c fc ff
	ff		 lea	 eax, DWORD PTR $T604222[ebp]
  008b1	50		 push	 eax
  008b2	8d 8e 7c 01 00
	00		 lea	 ecx, DWORD PTR [esi+380]
  008b8	c7 45 fc 02 00
	00 00		 mov	 DWORD PTR __$EHRec$[ebp+8], 2
  008bf	e8 00 00 00 00	 call	 ?push_back@?$vector@VioHashString@@V?$allocator@VioHashString@@@std@@@std@@QAEXABVioHashString@@@Z ; std::vector<ioHashString,std::allocator<ioHashString> >::push_back
  008c4	83 4d fc ff	 or	 DWORD PTR __$EHRec$[ebp+8], -1
  008c8	8d 8d 5c fc ff
	ff		 lea	 ecx, DWORD PTR $T604222[ebp]
  008ce	ff 15 00 00 00
	00		 call	 DWORD PTR __imp_??1ioHashString@@QAE@XZ
  008d4	6a 06		 push	 6

; 132  : 	rkLoader.LoadString_e( "double_jump_animation_left", "", szBuf, MAX_PATH );

  008d6	c7 85 4c ff ff
	ff 89 83 9e 88	 mov	 DWORD PTR __k$606336[ebp], -2002877559 ; 889e8389H
  008e0	c7 85 50 ff ff
	ff 81 89 b4 80	 mov	 DWORD PTR __k$606336[ebp+4], -2135651967 ; 80b48981H
  008ea	c7 85 54 ff ff
	ff 98 81 9b b5	 mov	 DWORD PTR __k$606336[ebp+8], -1248099944 ; b59b8198H
  008f4	c7 85 58 ff ff
	ff 8c 82 82 87	 mov	 DWORD PTR __k$606336[ebp+12], -2021490036 ; 8782828cH
  008fe	c7 85 5c ff ff
	ff 8c 98 82 85	 mov	 DWORD PTR __k$606336[ebp+16], -2055038836 ; 8582988cH
  00908	c7 85 60 ff ff
	ff 83 b3 87 8f	 mov	 DWORD PTR __k$606336[ebp+20], -1886932093 ; 8f87b383H
  00912	66 c7 85 64 ff
	ff ff 8b 98	 mov	 WORD PTR __k$606336[ebp+24], 39051 ; 0000988bH
  0091b	8d 85 4c ff ff
	ff		 lea	 eax, DWORD PTR __k$606336[ebp]
  00921	88 9d 66 ff ff
	ff		 mov	 BYTE PTR __k$606336[ebp+26], bl
  00927	59		 pop	 ecx
$LL1826@LoadProper:
  00928	81 30 ed ec eb
	ea		 xor	 DWORD PTR [eax], -353637139 ; eaebecedH
  0092e	83 c0 04	 add	 eax, 4
  00931	49		 dec	 ecx
  00932	75 f4		 jne	 SHORT $LL1826@LoadProper
  00934	6a 18		 push	 24			; 00000018H
  00936	58		 pop	 eax
$LL1823@LoadProper:
  00937	8b c8		 mov	 ecx, eax
  00939	81 e1 03 00 00
	80		 and	 ecx, -2147483645	; 80000003H
  0093f	79 05		 jns	 SHORT $LN2456@LoadProper
  00941	49		 dec	 ecx
  00942	83 c9 fc	 or	 ecx, -4			; fffffffcH
  00945	41		 inc	 ecx
$LN2456@LoadProper:
  00946	b2 ed		 mov	 dl, -19			; ffffffedH
  00948	2a d1		 sub	 dl, cl
  0094a	30 94 05 4c ff
	ff ff		 xor	 BYTE PTR __k$606336[ebp+eax], dl
  00951	40		 inc	 eax
  00952	83 f8 1a	 cmp	 eax, 26			; 0000001aH
  00955	7c e0		 jl	 SHORT $LL1823@LoadProper
  00957	8b 8d 90 fc ff
	ff		 mov	 ecx, DWORD PTR _rkLoader$GSCopy$[ebp]
  0095d	68 04 01 00 00	 push	 260			; 00000104H
  00962	8d 85 94 fc ff
	ff		 lea	 eax, DWORD PTR _szBuf$[ebp]
  00968	50		 push	 eax
  00969	68 00 00 00 00	 push	 OFFSET ??_C@_00CNPNBAHC@?$AA@
  0096e	8d 85 4c ff ff
	ff		 lea	 eax, DWORD PTR __k$606336[ebp]
  00974	50		 push	 eax
  00975	ff 15 00 00 00
	00		 call	 DWORD PTR __imp_?LoadStringA@ioINILoader@@QAEXPBD0PADH@Z

; 133  : 	m_vDoubleJumpAniList.push_back( szBuf );

  0097b	8d 85 94 fc ff
	ff		 lea	 eax, DWORD PTR _szBuf$[ebp]
  00981	50		 push	 eax
  00982	8d 8d 7c fc ff
	ff		 lea	 ecx, DWORD PTR $T604223[ebp]
  00988	ff d7		 call	 edi
  0098a	8d 85 7c fc ff
	ff		 lea	 eax, DWORD PTR $T604223[ebp]
  00990	50		 push	 eax
  00991	8d 8e 7c 01 00
	00		 lea	 ecx, DWORD PTR [esi+380]
  00997	c7 45 fc 03 00
	00 00		 mov	 DWORD PTR __$EHRec$[ebp+8], 3
  0099e	e8 00 00 00 00	 call	 ?push_back@?$vector@VioHashString@@V?$allocator@VioHashString@@@std@@@std@@QAEXABVioHashString@@@Z ; std::vector<ioHashString,std::allocator<ioHashString> >::push_back
  009a3	83 4d fc ff	 or	 DWORD PTR __$EHRec$[ebp+8], -1
  009a7	8d 8d 7c fc ff
	ff		 lea	 ecx, DWORD PTR $T604223[ebp]
  009ad	ff 15 00 00 00
	00		 call	 DWORD PTR __imp_??1ioHashString@@QAE@XZ
  009b3	6a 07		 push	 7

; 134  : 
; 135  : 	m_fDoubleJumpSpeedRateFR = rkLoader.LoadFloat_e( "double_jump_speed_rate_front", 1.0f );

  009b5	c7 85 18 fe ff
	ff 89 83 9e 88	 mov	 DWORD PTR __k$606461[ebp], -2002877559 ; 889e8389H
  009bf	c7 85 1c fe ff
	ff 81 89 b4 80	 mov	 DWORD PTR __k$606461[ebp+4], -2135651967 ; 80b48981H
  009c9	c7 85 20 fe ff
	ff 98 81 9b b5	 mov	 DWORD PTR __k$606461[ebp+8], -1248099944 ; b59b8198H
  009d3	c7 85 24 fe ff
	ff 9e 9c 8e 8f	 mov	 DWORD PTR __k$606461[ebp+12], -1886479202 ; 8f8e9c9eH
  009dd	c7 85 28 fe ff
	ff 89 b3 99 8b	 mov	 DWORD PTR __k$606461[ebp+16], -1952861303 ; 8b99b389H
  009e7	c7 85 2c fe ff
	ff 99 89 b4 8c	 mov	 DWORD PTR __k$606461[ebp+20], -1934325351 ; 8cb48999H
  009f1	c7 85 30 fe ff
	ff 9f 83 85 9e	 mov	 DWORD PTR __k$606461[ebp+24], -1635417185 ; 9e85839fH
  009fb	8d 85 18 fe ff
	ff		 lea	 eax, DWORD PTR __k$606461[ebp]
  00a01	88 9d 34 fe ff
	ff		 mov	 BYTE PTR __k$606461[ebp+28], bl
  00a07	59		 pop	 ecx
  00a08	bf ed ec eb ea	 mov	 edi, -353637139		; eaebecedH
$LL1932@LoadProper:
  00a0d	31 38		 xor	 DWORD PTR [eax], edi
  00a0f	83 c0 04	 add	 eax, 4
  00a12	49		 dec	 ecx
  00a13	75 f8		 jne	 SHORT $LL1932@LoadProper
  00a15	f3 0f 10 05 00
	00 00 00	 movss	 xmm0, DWORD PTR __real@3f800000
  00a1d	51		 push	 ecx
  00a1e	8b 8d 90 fc ff
	ff		 mov	 ecx, DWORD PTR _rkLoader$GSCopy$[ebp]
  00a24	8d 85 18 fe ff
	ff		 lea	 eax, DWORD PTR __k$606461[ebp]
  00a2a	f3 0f 11 04 24	 movss	 DWORD PTR [esp], xmm0
  00a2f	50		 push	 eax
  00a30	ff 15 00 00 00
	00		 call	 DWORD PTR __imp_?LoadFloat@ioINILoader@@QAEMPBDM@Z
  00a36	d9 9e 90 01 00
	00		 fstp	 DWORD PTR [esi+400]
  00a3c	6a 06		 push	 6

; 136  : 	m_fDoubleJumpSpeedRateSI = rkLoader.LoadFloat_e( "double_jump_speed_rate_side", 1.0f );

  00a3e	c7 85 3c fe ff
	ff 89 83 9e 88	 mov	 DWORD PTR __k$606586[ebp], -2002877559 ; 889e8389H
  00a48	c7 85 40 fe ff
	ff 81 89 b4 80	 mov	 DWORD PTR __k$606586[ebp+4], -2135651967 ; 80b48981H
  00a52	c7 85 44 fe ff
	ff 98 81 9b b5	 mov	 DWORD PTR __k$606586[ebp+8], -1248099944 ; b59b8198H
  00a5c	c7 85 48 fe ff
	ff 9e 9c 8e 8f	 mov	 DWORD PTR __k$606586[ebp+12], -1886479202 ; 8f8e9c9eH
  00a66	c7 85 4c fe ff
	ff 89 b3 99 8b	 mov	 DWORD PTR __k$606586[ebp+16], -1952861303 ; 8b99b389H
  00a70	c7 85 50 fe ff
	ff 99 89 b4 99	 mov	 DWORD PTR __k$606586[ebp+20], -1716221543 ; 99b48999H
  00a7a	8d 85 3c fe ff
	ff		 lea	 eax, DWORD PTR __k$606586[ebp]
  00a80	c7 85 54 fe ff
	ff 84 88 8e 00	 mov	 DWORD PTR __k$606586[ebp+24], 9341060 ; 008e8884H
  00a8a	59		 pop	 ecx
$LL2038@LoadProper:
  00a8b	31 38		 xor	 DWORD PTR [eax], edi
  00a8d	83 c0 04	 add	 eax, 4
  00a90	49		 dec	 ecx
  00a91	75 f8		 jne	 SHORT $LL2038@LoadProper
  00a93	6a 18		 push	 24			; 00000018H
  00a95	58		 pop	 eax
$LL2035@LoadProper:
  00a96	8b c8		 mov	 ecx, eax
  00a98	81 e1 03 00 00
	80		 and	 ecx, -2147483645	; 80000003H
  00a9e	79 05		 jns	 SHORT $LN2457@LoadProper
  00aa0	49		 dec	 ecx
  00aa1	83 c9 fc	 or	 ecx, -4			; fffffffcH
  00aa4	41		 inc	 ecx
$LN2457@LoadProper:
  00aa5	b2 ed		 mov	 dl, -19			; ffffffedH
  00aa7	2a d1		 sub	 dl, cl
  00aa9	30 94 05 3c fe
	ff ff		 xor	 BYTE PTR __k$606586[ebp+eax], dl
  00ab0	40		 inc	 eax
  00ab1	83 f8 1b	 cmp	 eax, 27			; 0000001bH
  00ab4	7c e0		 jl	 SHORT $LL2035@LoadProper
  00ab6	f3 0f 10 05 00
	00 00 00	 movss	 xmm0, DWORD PTR __real@3f800000
  00abe	51		 push	 ecx
  00abf	8b 8d 90 fc ff
	ff		 mov	 ecx, DWORD PTR _rkLoader$GSCopy$[ebp]
  00ac5	8d 85 3c fe ff
	ff		 lea	 eax, DWORD PTR __k$606586[ebp]
  00acb	f3 0f 11 04 24	 movss	 DWORD PTR [esp], xmm0
  00ad0	50		 push	 eax
  00ad1	ff 15 00 00 00
	00		 call	 DWORD PTR __imp_?LoadFloat@ioINILoader@@QAEMPBDM@Z
  00ad7	d9 9e 94 01 00
	00		 fstp	 DWORD PTR [esi+404]
  00add	6a 06		 push	 6

; 137  : 	m_fDoubleJumpSpeedRateBG = rkLoader.LoadFloat_e( "double_jump_speed_rate_back", 1.0f );

  00adf	c7 85 5c fe ff
	ff 89 83 9e 88	 mov	 DWORD PTR __k$606698[ebp], -2002877559 ; 889e8389H
  00ae9	c7 85 60 fe ff
	ff 81 89 b4 80	 mov	 DWORD PTR __k$606698[ebp+4], -2135651967 ; 80b48981H
  00af3	c7 85 64 fe ff
	ff 98 81 9b b5	 mov	 DWORD PTR __k$606698[ebp+8], -1248099944 ; b59b8198H
  00afd	c7 85 68 fe ff
	ff 9e 9c 8e 8f	 mov	 DWORD PTR __k$606698[ebp+12], -1886479202 ; 8f8e9c9eH
  00b07	c7 85 6c fe ff
	ff 89 b3 99 8b	 mov	 DWORD PTR __k$606698[ebp+16], -1952861303 ; 8b99b389H
  00b11	c7 85 70 fe ff
	ff 99 89 b4 88	 mov	 DWORD PTR __k$606698[ebp+20], -2001434215 ; 88b48999H
  00b1b	8d 85 5c fe ff
	ff		 lea	 eax, DWORD PTR __k$606698[ebp]
  00b21	c7 85 74 fe ff
	ff 8c 8f 80 00	 mov	 DWORD PTR __k$606698[ebp+24], 8425356 ; 00808f8cH
  00b2b	59		 pop	 ecx
$LL2144@LoadProper:
  00b2c	31 38		 xor	 DWORD PTR [eax], edi
  00b2e	83 c0 04	 add	 eax, 4
  00b31	49		 dec	 ecx
  00b32	75 f8		 jne	 SHORT $LL2144@LoadProper
  00b34	6a 18		 push	 24			; 00000018H
  00b36	58		 pop	 eax
$LL2141@LoadProper:
  00b37	8b c8		 mov	 ecx, eax
  00b39	81 e1 03 00 00
	80		 and	 ecx, -2147483645	; 80000003H
  00b3f	79 05		 jns	 SHORT $LN2458@LoadProper
  00b41	49		 dec	 ecx
  00b42	83 c9 fc	 or	 ecx, -4			; fffffffcH
  00b45	41		 inc	 ecx
$LN2458@LoadProper:
  00b46	b2 ed		 mov	 dl, -19			; ffffffedH
  00b48	2a d1		 sub	 dl, cl
  00b4a	30 94 05 5c fe
	ff ff		 xor	 BYTE PTR __k$606698[ebp+eax], dl
  00b51	40		 inc	 eax
  00b52	83 f8 1b	 cmp	 eax, 27			; 0000001bH
  00b55	7c e0		 jl	 SHORT $LL2141@LoadProper
  00b57	f3 0f 10 05 00
	00 00 00	 movss	 xmm0, DWORD PTR __real@3f800000
  00b5f	51		 push	 ecx
  00b60	8b 8d 90 fc ff
	ff		 mov	 ecx, DWORD PTR _rkLoader$GSCopy$[ebp]
  00b66	8d 85 5c fe ff
	ff		 lea	 eax, DWORD PTR __k$606698[ebp]
  00b6c	f3 0f 11 04 24	 movss	 DWORD PTR [esp], xmm0
  00b71	50		 push	 eax
  00b72	ff 15 00 00 00
	00		 call	 DWORD PTR __imp_?LoadFloat@ioINILoader@@QAEMPBDM@Z
  00b78	d9 9e 98 01 00
	00		 fstp	 DWORD PTR [esi+408]
  00b7e	6a 04		 push	 4

; 138  : 
; 139  : 	LoadAttackAttribute_e( "jump_charge_land", m_ExtendLandAttack, rkLoader );

  00b80	c7 85 c0 fd ff
	ff 87 99 86 9a	 mov	 DWORD PTR _szEncAttack$606836[ebp], -1702454905 ; 9a869987H
  00b8a	c7 85 c4 fd ff
	ff b2 8f 83 8b	 mov	 DWORD PTR _szEncAttack$606836[ebp+4], -1954312270 ; 8b838fb2H
  00b94	c7 85 c8 fd ff
	ff 9f 8b 8e b5	 mov	 DWORD PTR _szEncAttack$606836[ebp+8], -1248949345 ; b58e8b9fH
  00b9e	c7 85 cc fd ff
	ff 81 8d 85 8e	 mov	 DWORD PTR _szEncAttack$606836[ebp+12], -1903850111 ; 8e858d81H
  00ba8	8d 85 c0 fd ff
	ff		 lea	 eax, DWORD PTR _szEncAttack$606836[ebp]
  00bae	88 9d d0 fd ff
	ff		 mov	 BYTE PTR _szEncAttack$606836[ebp+16], bl
  00bb4	59		 pop	 ecx
$LL2250@LoadProper:
  00bb5	31 38		 xor	 DWORD PTR [eax], edi
  00bb7	83 c0 04	 add	 eax, 4
  00bba	49		 dec	 ecx
  00bbb	75 f8		 jne	 SHORT $LL2250@LoadProper
  00bbd	ff b5 90 fc ff
	ff		 push	 DWORD PTR _rkLoader$GSCopy$[ebp]
  00bc3	8d 86 9c 01 00
	00		 lea	 eax, DWORD PTR [esi+412]
  00bc9	50		 push	 eax
  00bca	8d 85 c0 fd ff
	ff		 lea	 eax, DWORD PTR _szEncAttack$606836[ebp]
  00bd0	50		 push	 eax
  00bd1	e8 00 00 00 00	 call	 ?LoadAttackAttribute@@YAXPBDAAUAttackAttribute@@AAVioINILoader@@@Z ; LoadAttackAttribute
  00bd6	83 c4 0c	 add	 esp, 12			; 0000000cH
  00bd9	6a 03		 push	 3

; 140  : 
; 141  : 	m_bApplyGravity = rkLoader.LoadBool_e( "apply_gravity", false );

  00bdb	c7 85 04 ff ff
	ff 8c 9c 9b 86	 mov	 DWORD PTR __k$606961[ebp], -2036622196 ; 869b9c8cH
  00be5	c7 85 08 ff ff
	ff 94 b3 8c 98	 mov	 DWORD PTR __k$606961[ebp+4], -1735609452 ; 988cb394H
  00bef	c7 85 0c ff ff
	ff 8c 9a 82 9e	 mov	 DWORD PTR __k$606961[ebp+8], -1635607924 ; 9e829a8cH
  00bf9	8d 85 04 ff ff
	ff		 lea	 eax, DWORD PTR __k$606961[ebp]
  00bff	66 c7 85 10 ff
	ff ff 94 00	 mov	 WORD PTR __k$606961[ebp+12], 148 ; 00000094H
  00c08	59		 pop	 ecx
$LL2356@LoadProper:
  00c09	31 38		 xor	 DWORD PTR [eax], edi
  00c0b	83 c0 04	 add	 eax, 4
  00c0e	49		 dec	 ecx
  00c0f	75 f8		 jne	 SHORT $LL2356@LoadProper
  00c11	8b 8d 90 fc ff
	ff		 mov	 ecx, DWORD PTR _rkLoader$GSCopy$[ebp]
  00c17	80 b5 10 ff ff
	ff ed		 xor	 BYTE PTR __k$606961[ebp+12], -19 ; ffffffedH
  00c1e	53		 push	 ebx
  00c1f	8d 85 04 ff ff
	ff		 lea	 eax, DWORD PTR __k$606961[ebp]
  00c25	50		 push	 eax
  00c26	ff 15 00 00 00
	00		 call	 DWORD PTR __imp_?LoadBool@ioINILoader@@QAE_NPBD_N@Z
  00c2c	88 86 ec 01 00
	00		 mov	 BYTE PTR [esi+492], al

; 142  : }

  00c32	e8 00 00 00 00	 call	 __EH_epilog3_GS
  00c37	c2 04 00	 ret	 4
_TEXT	ENDS
;	COMDAT text$x
text$x	SEGMENT
__unwindfunclet$?LoadProperty@ioParkilpyoJump@@UAEXAAVioINILoader@@@Z$0:
  00000	8d 8d 6c fc ff
	ff		 lea	 ecx, DWORD PTR $T604220[ebp]
  00006	ff 25 00 00 00
	00		 jmp	 DWORD PTR __imp_??1ioHashString@@QAE@XZ
__unwindfunclet$?LoadProperty@ioParkilpyoJump@@UAEXAAVioINILoader@@@Z$1:
  0000c	8d 8d 4c fc ff
	ff		 lea	 ecx, DWORD PTR $T604221[ebp]
  00012	ff 25 00 00 00
	00		 jmp	 DWORD PTR __imp_??1ioHashString@@QAE@XZ
__unwindfunclet$?LoadProperty@ioParkilpyoJump@@UAEXAAVioINILoader@@@Z$2:
  00018	8d 8d 5c fc ff
	ff		 lea	 ecx, DWORD PTR $T604222[ebp]
  0001e	ff 25 00 00 00
	00		 jmp	 DWORD PTR __imp_??1ioHashString@@QAE@XZ
__unwindfunclet$?LoadProperty@ioParkilpyoJump@@UAEXAAVioINILoader@@@Z$3:
  00024	8d 8d 7c fc ff
	ff		 lea	 ecx, DWORD PTR $T604223[ebp]
  0002a	ff 25 00 00 00
	00		 jmp	 DWORD PTR __imp_??1ioHashString@@QAE@XZ
__ehhandler$?LoadProperty@ioParkilpyoJump@@UAEXAAVioINILoader@@@Z:
  00030	8b 54 24 08	 mov	 edx, DWORD PTR [esp+8]
  00034	8d 42 0c	 lea	 eax, DWORD PTR [edx+12]
  00037	8b 8a 48 fc ff
	ff		 mov	 ecx, DWORD PTR [edx-952]
  0003d	33 c8		 xor	 ecx, eax
  0003f	e8 00 00 00 00	 call	 @__security_check_cookie@4
  00044	8b 4a fc	 mov	 ecx, DWORD PTR [edx-4]
  00047	33 c8		 xor	 ecx, eax
  00049	e8 00 00 00 00	 call	 @__security_check_cookie@4
  0004e	b8 00 00 00 00	 mov	 eax, OFFSET __ehfuncinfo$?LoadProperty@ioParkilpyoJump@@UAEXAAVioINILoader@@@Z
  00053	e9 00 00 00 00	 jmp	 ___CxxFrameHandler3
text$x	ENDS
?LoadProperty@ioParkilpyoJump@@UAEXAAVioINILoader@@@Z ENDP ; ioParkilpyoJump::LoadProperty
END
