; Listing generated by Microsoft (R) Optimizing Compiler Version 16.00.30319.01 

	TITLE	D:\Lost Saga For Developer\Youtube\Tutorial\Source\src\LSClient\ioPetInfoManager.cpp
	.686P
	.XMM
	include listing.inc
	.model	flat

INCLUDELIB MSVCRT
INCLUDELIB OLDNAMES

PUBLIC	?ms_Singleton@?$Singleton@VioPetInfoManager@@@@1PAVioPetInfoManager@@A ; Singleton<ioPetInfoManager>::ms_Singleton
;	COMDAT ?ms_Singleton@?$Singleton@VioPetInfoManager@@@@1PAVioPetInfoManager@@A
_BSS	SEGMENT
?ms_Singleton@?$Singleton@VioPetInfoManager@@@@1PAVioPetInfoManager@@A DD 01H DUP (?) ; Singleton<ioPetInfoManager>::ms_Singleton
_BSS	ENDS
PUBLIC	?return1@@YAIXZ					; return1
; Function compile flags: /Ogsp
; File d:\lost saga for developer\youtube\tutorial\source\src\lsclient\stdafx.h
;	COMDAT ?return1@@YAIXZ
_TEXT	SEGMENT
?return1@@YAIXZ PROC					; return1, COMDAT

; 17   : 	__forceinline unsigned int return1() { __asm mov eax, 1 };

  00000	b8 01 00 00 00	 mov	 eax, 1
  00005	c3		 ret	 0
?return1@@YAIXZ ENDP					; return1
_TEXT	ENDS
PUBLIC	??1ioINILoader_e@@QAE@XZ			; ioINILoader_e::~ioINILoader_e
EXTRN	__imp_??1ioINILoader@@QAE@XZ:PROC
; Function compile flags: /Ogsp
;	COMDAT ??1ioINILoader_e@@QAE@XZ
_TEXT	SEGMENT
??1ioINILoader_e@@QAE@XZ PROC				; ioINILoader_e::~ioINILoader_e, COMDAT
; _this$ = ecx
  00000	ff 25 00 00 00
	00		 jmp	 DWORD PTR __imp_??1ioINILoader@@QAE@XZ
??1ioINILoader_e@@QAE@XZ ENDP				; ioINILoader_e::~ioINILoader_e
_TEXT	ENDS
PUBLIC	??_7bad_alloc@std@@6B@				; std::bad_alloc::`vftable'
PUBLIC	??0bad_alloc@std@@QAE@PBD@Z			; std::bad_alloc::bad_alloc
PUBLIC	??_R4bad_alloc@std@@6B@				; std::bad_alloc::`RTTI Complete Object Locator'
PUBLIC	??_R0?AVbad_alloc@std@@@8			; std::bad_alloc `RTTI Type Descriptor'
PUBLIC	??_R3bad_alloc@std@@8				; std::bad_alloc::`RTTI Class Hierarchy Descriptor'
PUBLIC	??_R2bad_alloc@std@@8				; std::bad_alloc::`RTTI Base Class Array'
PUBLIC	??_R1A@?0A@EA@bad_alloc@std@@8			; std::bad_alloc::`RTTI Base Class Descriptor at (0,-1,0,64)'
PUBLIC	??_R1A@?0A@EA@exception@std@@8			; std::exception::`RTTI Base Class Descriptor at (0,-1,0,64)'
PUBLIC	??_R0?AVexception@std@@@8			; std::exception `RTTI Type Descriptor'
PUBLIC	??_R3exception@std@@8				; std::exception::`RTTI Class Hierarchy Descriptor'
PUBLIC	??_R2exception@std@@8				; std::exception::`RTTI Base Class Array'
EXTRN	__imp_??0exception@std@@QAE@ABQBD@Z:PROC
EXTRN	??_7type_info@@6B@:QWORD			; type_info::`vftable'
EXTRN	??_Ebad_alloc@std@@UAEPAXI@Z:PROC		; std::bad_alloc::`vector deleting destructor'
EXTRN	?what@exception@std@@UBEPBDXZ:PROC		; std::exception::what
;	COMDAT ??_R2exception@std@@8
; File c:\program files (x86)\microsoft visual studio 10.0\vc\include\exception
rdata$r	SEGMENT
??_R2exception@std@@8 DD FLAT:??_R1A@?0A@EA@exception@std@@8 ; std::exception::`RTTI Base Class Array'
rdata$r	ENDS
;	COMDAT ??_R3exception@std@@8
rdata$r	SEGMENT
??_R3exception@std@@8 DD 00H				; std::exception::`RTTI Class Hierarchy Descriptor'
	DD	00H
	DD	01H
	DD	FLAT:??_R2exception@std@@8
rdata$r	ENDS
;	COMDAT ??_R0?AVexception@std@@@8
_DATA	SEGMENT
??_R0?AVexception@std@@@8 DD FLAT:??_7type_info@@6B@	; std::exception `RTTI Type Descriptor'
	DD	00H
	DB	'.?AVexception@std@@', 00H
_DATA	ENDS
;	COMDAT ??_R1A@?0A@EA@exception@std@@8
rdata$r	SEGMENT
??_R1A@?0A@EA@exception@std@@8 DD FLAT:??_R0?AVexception@std@@@8 ; std::exception::`RTTI Base Class Descriptor at (0,-1,0,64)'
	DD	00H
	DD	00H
	DD	0ffffffffH
	DD	00H
	DD	040H
	DD	FLAT:??_R3exception@std@@8
rdata$r	ENDS
;	COMDAT ??_R1A@?0A@EA@bad_alloc@std@@8
rdata$r	SEGMENT
??_R1A@?0A@EA@bad_alloc@std@@8 DD FLAT:??_R0?AVbad_alloc@std@@@8 ; std::bad_alloc::`RTTI Base Class Descriptor at (0,-1,0,64)'
	DD	01H
	DD	00H
	DD	0ffffffffH
	DD	00H
	DD	040H
	DD	FLAT:??_R3bad_alloc@std@@8
rdata$r	ENDS
;	COMDAT ??_R2bad_alloc@std@@8
rdata$r	SEGMENT
??_R2bad_alloc@std@@8 DD FLAT:??_R1A@?0A@EA@bad_alloc@std@@8 ; std::bad_alloc::`RTTI Base Class Array'
	DD	FLAT:??_R1A@?0A@EA@exception@std@@8
rdata$r	ENDS
;	COMDAT ??_R3bad_alloc@std@@8
rdata$r	SEGMENT
??_R3bad_alloc@std@@8 DD 00H				; std::bad_alloc::`RTTI Class Hierarchy Descriptor'
	DD	00H
	DD	02H
	DD	FLAT:??_R2bad_alloc@std@@8
rdata$r	ENDS
;	COMDAT ??_R0?AVbad_alloc@std@@@8
_DATA	SEGMENT
??_R0?AVbad_alloc@std@@@8 DD FLAT:??_7type_info@@6B@	; std::bad_alloc `RTTI Type Descriptor'
	DD	00H
	DB	'.?AVbad_alloc@std@@', 00H
_DATA	ENDS
;	COMDAT ??_R4bad_alloc@std@@6B@
rdata$r	SEGMENT
??_R4bad_alloc@std@@6B@ DD 00H				; std::bad_alloc::`RTTI Complete Object Locator'
	DD	00H
	DD	00H
	DD	FLAT:??_R0?AVbad_alloc@std@@@8
	DD	FLAT:??_R3bad_alloc@std@@8
rdata$r	ENDS
;	COMDAT ??_7bad_alloc@std@@6B@
CONST	SEGMENT
??_7bad_alloc@std@@6B@ DD FLAT:??_R4bad_alloc@std@@6B@	; std::bad_alloc::`vftable'
	DD	FLAT:??_Ebad_alloc@std@@UAEPAXI@Z
	DD	FLAT:?what@exception@std@@UBEPBDXZ
; Function compile flags: /Ogsp
CONST	ENDS
;	COMDAT ??0bad_alloc@std@@QAE@PBD@Z
_TEXT	SEGMENT
__Message$ = 8						; size = 4
??0bad_alloc@std@@QAE@PBD@Z PROC			; std::bad_alloc::bad_alloc, COMDAT
; _this$ = ecx

; 345  : 		{	// construct from message string

  00000	55		 push	 ebp
  00001	8b ec		 mov	 ebp, esp
  00003	56		 push	 esi
  00004	8d 45 08	 lea	 eax, DWORD PTR __Message$[ebp]
  00007	50		 push	 eax
  00008	8b f1		 mov	 esi, ecx
  0000a	ff 15 00 00 00
	00		 call	 DWORD PTR __imp_??0exception@std@@QAE@ABQBD@Z
  00010	c7 06 00 00 00
	00		 mov	 DWORD PTR [esi], OFFSET ??_7bad_alloc@std@@6B@

; 346  : 		}

  00016	8b c6		 mov	 eax, esi
  00018	5e		 pop	 esi
  00019	5d		 pop	 ebp
  0001a	c2 04 00	 ret	 4
??0bad_alloc@std@@QAE@PBD@Z ENDP			; std::bad_alloc::bad_alloc
_TEXT	ENDS
PUBLIC	??1bad_alloc@std@@UAE@XZ			; std::bad_alloc::~bad_alloc
EXTRN	__imp_??1exception@std@@UAE@XZ:PROC
; Function compile flags: /Ogsp
;	COMDAT ??1bad_alloc@std@@UAE@XZ
_TEXT	SEGMENT
??1bad_alloc@std@@UAE@XZ PROC				; std::bad_alloc::~bad_alloc, COMDAT
; _this$ = ecx

; 354  : 		{	// destroy the object

  00000	c7 01 00 00 00
	00		 mov	 DWORD PTR [ecx], OFFSET ??_7bad_alloc@std@@6B@

; 355  : 		}

  00006	ff 25 00 00 00
	00		 jmp	 DWORD PTR __imp_??1exception@std@@UAE@XZ
??1bad_alloc@std@@UAE@XZ ENDP				; std::bad_alloc::~bad_alloc
_TEXT	ENDS
EXTRN	??3@YAXPAX@Z:PROC				; operator delete
; Function compile flags: /Ogsp
;	COMDAT ??_Gbad_alloc@std@@UAEPAXI@Z
_TEXT	SEGMENT
___flags$ = 8						; size = 4
??_Gbad_alloc@std@@UAEPAXI@Z PROC			; std::bad_alloc::`scalar deleting destructor', COMDAT
; _this$ = ecx
  00000	55		 push	 ebp
  00001	8b ec		 mov	 ebp, esp
  00003	56		 push	 esi
  00004	8b f1		 mov	 esi, ecx
  00006	c7 06 00 00 00
	00		 mov	 DWORD PTR [esi], OFFSET ??_7bad_alloc@std@@6B@
  0000c	ff 15 00 00 00
	00		 call	 DWORD PTR __imp_??1exception@std@@UAE@XZ
  00012	f6 45 08 01	 test	 BYTE PTR ___flags$[ebp], 1
  00016	74 07		 je	 SHORT $LN1@scalar
  00018	56		 push	 esi
  00019	e8 00 00 00 00	 call	 ??3@YAXPAX@Z		; operator delete
  0001e	59		 pop	 ecx
$LN1@scalar:
  0001f	8b c6		 mov	 eax, esi
  00021	5e		 pop	 esi
  00022	5d		 pop	 ebp
  00023	c2 04 00	 ret	 4
??_Gbad_alloc@std@@UAEPAXI@Z ENDP			; std::bad_alloc::`scalar deleting destructor'
_TEXT	ENDS
PUBLIC	??2@YAPAXIPAX@Z					; operator new
; Function compile flags: /Ogsp
; File c:\program files (x86)\microsoft visual studio 10.0\vc\include\new
;	COMDAT ??2@YAPAXIPAX@Z
_TEXT	SEGMENT
___formal$ = 8						; size = 4
__Where$ = 12						; size = 4
??2@YAPAXIPAX@Z PROC					; operator new, COMDAT

; 56   : 	{	// construct array with placement at _Where

  00000	55		 push	 ebp
  00001	8b ec		 mov	 ebp, esp

; 57   : 	return (_Where);

  00003	8b 45 0c	 mov	 eax, DWORD PTR __Where$[ebp]

; 58   : 	}

  00006	5d		 pop	 ebp
  00007	c3		 ret	 0
??2@YAPAXIPAX@Z ENDP					; operator new
_TEXT	ENDS
PUBLIC	??3@YAXPAX0@Z					; operator delete
; Function compile flags: /Ogsp
;	COMDAT ??3@YAXPAX0@Z
_TEXT	SEGMENT
___formal$ = 8						; size = 4
___formal$ = 12						; size = 4
??3@YAXPAX0@Z PROC					; operator delete, COMDAT

; 62   : 	}

  00000	c3		 ret	 0
??3@YAXPAX0@Z ENDP					; operator delete
_TEXT	ENDS
PUBLIC	?_Adopt@_Iterator_base0@std@@QAEXPBX@Z		; std::_Iterator_base0::_Adopt
; Function compile flags: /Ogsp
; File c:\program files (x86)\microsoft visual studio 10.0\vc\include\xutility
;	COMDAT ?_Adopt@_Iterator_base0@std@@QAEXPBX@Z
_TEXT	SEGMENT
___formal$ = 8						; size = 4
?_Adopt@_Iterator_base0@std@@QAEXPBX@Z PROC		; std::_Iterator_base0::_Adopt, COMDAT
; _this$ = ecx

; 49   : 		}

  00000	c2 04 00	 ret	 4
?_Adopt@_Iterator_base0@std@@QAEXPBX@Z ENDP		; std::_Iterator_base0::_Adopt
_TEXT	ENDS
PUBLIC	??0tagPetViewInfo@@QAE@ABU0@@Z			; tagPetViewInfo::tagPetViewInfo
EXTRN	__imp_??1ioHashString@@QAE@XZ:PROC
EXTRN	__imp_??0ioHashString@@QAE@ABV0@@Z:PROC
EXTRN	___CxxFrameHandler3:PROC
EXTRN	@__security_check_cookie@4:PROC
EXTRN	__EH_epilog3:PROC
EXTRN	__EH_prolog3:PROC
;	COMDAT xdata$x
xdata$x	SEGMENT
__unwindtable$??0tagPetViewInfo@@QAE@ABU0@@Z DD 0ffffffffH
	DD	FLAT:__unwindfunclet$??0tagPetViewInfo@@QAE@ABU0@@Z$0
	DD	00H
	DD	FLAT:__unwindfunclet$??0tagPetViewInfo@@QAE@ABU0@@Z$1
	DD	01H
	DD	FLAT:__unwindfunclet$??0tagPetViewInfo@@QAE@ABU0@@Z$2
__ehfuncinfo$??0tagPetViewInfo@@QAE@ABU0@@Z DD 019930522H
	DD	03H
	DD	FLAT:__unwindtable$??0tagPetViewInfo@@QAE@ABU0@@Z
	DD	2 DUP(00H)
	DD	2 DUP(00H)
	DD	00H
	DD	01H
; Function compile flags: /Ogsp
xdata$x	ENDS
;	COMDAT ??0tagPetViewInfo@@QAE@ABU0@@Z
_TEXT	SEGMENT
_this$ = -16						; size = 4
__$EHRec$ = -12						; size = 12
___that$ = 8						; size = 4
??0tagPetViewInfo@@QAE@ABU0@@Z PROC			; tagPetViewInfo::tagPetViewInfo, COMDAT
; _this$ = ecx
  00000	6a 04		 push	 4
  00002	b8 00 00 00 00	 mov	 eax, __ehhandler$??0tagPetViewInfo@@QAE@ABU0@@Z
  00007	e8 00 00 00 00	 call	 __EH_prolog3
  0000c	8b d9		 mov	 ebx, ecx
  0000e	89 5d f0	 mov	 DWORD PTR _this$[ebp], ebx
  00011	8b 75 08	 mov	 esi, DWORD PTR ___that$[ebp]
  00014	8b 06		 mov	 eax, DWORD PTR [esi]
  00016	8b 3d 00 00 00
	00		 mov	 edi, DWORD PTR __imp_??0ioHashString@@QAE@ABV0@@Z
  0001c	89 03		 mov	 DWORD PTR [ebx], eax
  0001e	8d 46 04	 lea	 eax, DWORD PTR [esi+4]
  00021	50		 push	 eax
  00022	8d 4b 04	 lea	 ecx, DWORD PTR [ebx+4]
  00025	ff d7		 call	 edi
  00027	83 65 fc 00	 and	 DWORD PTR __$EHRec$[ebp+8], 0
  0002b	8d 46 14	 lea	 eax, DWORD PTR [esi+20]
  0002e	50		 push	 eax
  0002f	8d 4b 14	 lea	 ecx, DWORD PTR [ebx+20]
  00032	ff d7		 call	 edi
  00034	8d 46 24	 lea	 eax, DWORD PTR [esi+36]
  00037	50		 push	 eax
  00038	8d 4b 24	 lea	 ecx, DWORD PTR [ebx+36]
  0003b	c6 45 fc 01	 mov	 BYTE PTR __$EHRec$[ebp+8], 1
  0003f	ff d7		 call	 edi
  00041	8d 46 34	 lea	 eax, DWORD PTR [esi+52]
  00044	50		 push	 eax
  00045	8d 4b 34	 lea	 ecx, DWORD PTR [ebx+52]
  00048	c6 45 fc 02	 mov	 BYTE PTR __$EHRec$[ebp+8], 2
  0004c	ff d7		 call	 edi
  0004e	83 c6 44	 add	 esi, 68			; 00000044H
  00051	8d 7b 44	 lea	 edi, DWORD PTR [ebx+68]
  00054	a5		 movsd
  00055	a5		 movsd
  00056	a5		 movsd
  00057	8b c3		 mov	 eax, ebx
  00059	e8 00 00 00 00	 call	 __EH_epilog3
  0005e	c2 04 00	 ret	 4
_TEXT	ENDS
;	COMDAT text$x
text$x	SEGMENT
__unwindfunclet$??0tagPetViewInfo@@QAE@ABU0@@Z$0:
  00000	8b 4d f0	 mov	 ecx, DWORD PTR _this$[ebp]
  00003	83 c1 04	 add	 ecx, 4
  00006	ff 25 00 00 00
	00		 jmp	 DWORD PTR __imp_??1ioHashString@@QAE@XZ
__unwindfunclet$??0tagPetViewInfo@@QAE@ABU0@@Z$1:
  0000c	8b 4d f0	 mov	 ecx, DWORD PTR _this$[ebp]
  0000f	83 c1 14	 add	 ecx, 20			; 00000014H
  00012	ff 25 00 00 00
	00		 jmp	 DWORD PTR __imp_??1ioHashString@@QAE@XZ
__unwindfunclet$??0tagPetViewInfo@@QAE@ABU0@@Z$2:
  00018	8b 4d f0	 mov	 ecx, DWORD PTR _this$[ebp]
  0001b	83 c1 24	 add	 ecx, 36			; 00000024H
  0001e	ff 25 00 00 00
	00		 jmp	 DWORD PTR __imp_??1ioHashString@@QAE@XZ
__ehhandler$??0tagPetViewInfo@@QAE@ABU0@@Z:
  00024	8b 54 24 08	 mov	 edx, DWORD PTR [esp+8]
  00028	8d 42 0c	 lea	 eax, DWORD PTR [edx+12]
  0002b	8b 4a ec	 mov	 ecx, DWORD PTR [edx-20]
  0002e	33 c8		 xor	 ecx, eax
  00030	e8 00 00 00 00	 call	 @__security_check_cookie@4
  00035	b8 00 00 00 00	 mov	 eax, OFFSET __ehfuncinfo$??0tagPetViewInfo@@QAE@ABU0@@Z
  0003a	e9 00 00 00 00	 jmp	 ___CxxFrameHandler3
text$x	ENDS
??0tagPetViewInfo@@QAE@ABU0@@Z ENDP			; tagPetViewInfo::tagPetViewInfo
PUBLIC	??_C@_05NAOIJFC@Error?$AA@			; `string'
PUBLIC	??_C@_01CKDDGHAB@D?$AA@				; `string'
PUBLIC	??_C@_01GFHCPBMG@C?$AA@				; `string'
PUBLIC	??_C@_01HMGJMAIH@B?$AA@				; `string'
PUBLIC	??_C@_01FHEEJDEE@A?$AA@				; `string'
PUBLIC	??_C@_01CPLAODJH@S?$AA@				; `string'
PUBLIC	___$ReturnUdt$GSCopy$
PUBLIC	?GetRankName@ioPetInfoManager@@QAE?AVioHashString@@H@Z ; ioPetInfoManager::GetRankName
EXTRN	__imp_??4ioHashString@@QAEAAV0@PBD@Z:PROC
EXTRN	__imp_?SafeSprintf@@YAXPADHPBDZZ:PROC
EXTRN	__imp_??0ioHashString@@QAE@XZ:PROC
EXTRN	__EH_epilog3_GS:PROC
EXTRN	__EH_prolog3_GS:PROC
;	COMDAT ??_C@_05NAOIJFC@Error?$AA@
; File d:\lost saga for developer\youtube\tutorial\source\src\lsclient\iopetinfomanager.cpp
CONST	SEGMENT
??_C@_05NAOIJFC@Error?$AA@ DB 'Error', 00H		; `string'
CONST	ENDS
;	COMDAT ??_C@_01CKDDGHAB@D?$AA@
CONST	SEGMENT
??_C@_01CKDDGHAB@D?$AA@ DB 'D', 00H			; `string'
CONST	ENDS
;	COMDAT ??_C@_01GFHCPBMG@C?$AA@
CONST	SEGMENT
??_C@_01GFHCPBMG@C?$AA@ DB 'C', 00H			; `string'
CONST	ENDS
;	COMDAT ??_C@_01HMGJMAIH@B?$AA@
CONST	SEGMENT
??_C@_01HMGJMAIH@B?$AA@ DB 'B', 00H			; `string'
CONST	ENDS
;	COMDAT ??_C@_01FHEEJDEE@A?$AA@
CONST	SEGMENT
??_C@_01FHEEJDEE@A?$AA@ DB 'A', 00H			; `string'
CONST	ENDS
;	COMDAT ??_C@_01CPLAODJH@S?$AA@
CONST	SEGMENT
??_C@_01CPLAODJH@S?$AA@ DB 'S', 00H			; `string'
CONST	ENDS
;	COMDAT xdata$x
xdata$x	SEGMENT
__unwindtable$?GetRankName@ioPetInfoManager@@QAE?AVioHashString@@H@Z DD 0ffffffffH
	DD	FLAT:__unwindfunclet$?GetRankName@ioPetInfoManager@@QAE?AVioHashString@@H@Z$0
__ehfuncinfo$?GetRankName@ioPetInfoManager@@QAE?AVioHashString@@H@Z DD 019930522H
	DD	01H
	DD	FLAT:__unwindtable$?GetRankName@ioPetInfoManager@@QAE?AVioHashString@@H@Z
	DD	2 DUP(00H)
	DD	2 DUP(00H)
	DD	00H
	DD	01H
; Function compile flags: /Ogsp
xdata$x	ENDS
;	COMDAT ?GetRankName@ioPetInfoManager@@QAE?AVioHashString@@H@Z
_TEXT	SEGMENT
___$ReturnUdt$GSCopy$ = -284				; size = 4
$T514880 = -280						; size = 4
_szTemp$ = -276						; size = 260
__$EHRec$ = -12						; size = 12
___$ReturnUdt$ = 8					; size = 4
_nRank$ = 12						; size = 4
?GetRankName@ioPetInfoManager@@QAE?AVioHashString@@H@Z PROC ; ioPetInfoManager::GetRankName, COMDAT
; _this$ = ecx

; 440  : {

  00000	68 10 01 00 00	 push	 272			; 00000110H
  00005	b8 00 00 00 00	 mov	 eax, __ehhandler$?GetRankName@ioPetInfoManager@@QAE?AVioHashString@@H@Z
  0000a	e8 00 00 00 00	 call	 __EH_prolog3_GS
  0000f	8b 7d 08	 mov	 edi, DWORD PTR ___$ReturnUdt$[ebp]
  00012	83 65 fc 00	 and	 DWORD PTR __$EHRec$[ebp+8], 0
  00016	83 a5 e8 fe ff
	ff 00		 and	 DWORD PTR $T514880[ebp], 0

; 441  : 	//Æê ·©Å© ¼³Á¤
; 442  : 	ioHashString szRank;

  0001d	8b cf		 mov	 ecx, edi
  0001f	89 bd e4 fe ff
	ff		 mov	 DWORD PTR ___$ReturnUdt$GSCopy$[ebp], edi
  00025	ff 15 00 00 00
	00		 call	 DWORD PTR __imp_??0ioHashString@@QAE@XZ

; 467  : 
; 468  : 	return szRank;

  0002b	8b 45 0c	 mov	 eax, DWORD PTR _nRank$[ebp]
  0002e	83 65 fc 00	 and	 DWORD PTR __$EHRec$[ebp+8], 0
  00032	83 e8 00	 sub	 eax, 0
  00035	c7 85 e8 fe ff
	ff 01 00 00 00	 mov	 DWORD PTR $T514880[ebp], 1
  0003f	74 32		 je	 SHORT $LN6@GetRankNam

; 443  : 	char szTemp[MAX_PATH];
; 444  : 
; 445  : 	switch( (PetRankType)nRank )

  00041	48		 dec	 eax
  00042	74 28		 je	 SHORT $LN5@GetRankNam
  00044	48		 dec	 eax
  00045	74 1e		 je	 SHORT $LN4@GetRankNam
  00047	48		 dec	 eax
  00048	74 14		 je	 SHORT $LN3@GetRankNam
  0004a	48		 dec	 eax
  0004b	74 0a		 je	 SHORT $LN2@GetRankNam
  0004d	48		 dec	 eax
  0004e	75 3d		 jne	 SHORT $LN7@GetRankNam

; 462  : 	case PRT_S:
; 463  : 		SafeSprintf( szTemp, sizeof( szTemp ), "S" );

  00050	68 00 00 00 00	 push	 OFFSET ??_C@_01CPLAODJH@S?$AA@

; 464  : 		break;

  00055	eb 21		 jmp	 SHORT $LN14@GetRankNam
$LN2@GetRankNam:

; 459  : 	case PRT_A:
; 460  : 		SafeSprintf( szTemp, sizeof( szTemp ), "A" );

  00057	68 00 00 00 00	 push	 OFFSET ??_C@_01FHEEJDEE@A?$AA@

; 461  : 		break;

  0005c	eb 1a		 jmp	 SHORT $LN14@GetRankNam
$LN3@GetRankNam:

; 456  : 	case PRT_B:
; 457  : 		SafeSprintf( szTemp, sizeof( szTemp ), "B" );

  0005e	68 00 00 00 00	 push	 OFFSET ??_C@_01HMGJMAIH@B?$AA@

; 458  : 		break;

  00063	eb 13		 jmp	 SHORT $LN14@GetRankNam
$LN4@GetRankNam:

; 453  : 	case PRT_C:
; 454  : 		SafeSprintf( szTemp, sizeof( szTemp ), "C" );

  00065	68 00 00 00 00	 push	 OFFSET ??_C@_01GFHCPBMG@C?$AA@

; 455  : 		break;

  0006a	eb 0c		 jmp	 SHORT $LN14@GetRankNam
$LN5@GetRankNam:

; 449  : 		break;
; 450  : 	case PRT_D:
; 451  : 		SafeSprintf( szTemp, sizeof( szTemp ), "D" );

  0006c	68 00 00 00 00	 push	 OFFSET ??_C@_01CKDDGHAB@D?$AA@

; 452  : 		break;

  00071	eb 05		 jmp	 SHORT $LN14@GetRankNam
$LN6@GetRankNam:

; 446  : 	{
; 447  : 	case PRT_NONE:
; 448  : 		SafeSprintf( szTemp, sizeof( szTemp ), "Error" );

  00073	68 00 00 00 00	 push	 OFFSET ??_C@_05NAOIJFC@Error?$AA@
$LN14@GetRankNam:
  00078	8d 85 ec fe ff
	ff		 lea	 eax, DWORD PTR _szTemp$[ebp]
  0007e	68 04 01 00 00	 push	 260			; 00000104H
  00083	50		 push	 eax
  00084	ff 15 00 00 00
	00		 call	 DWORD PTR __imp_?SafeSprintf@@YAXPADHPBDZZ
  0008a	83 c4 0c	 add	 esp, 12			; 0000000cH
$LN7@GetRankNam:

; 465  : 	}
; 466  : 	szRank = szTemp;

  0008d	8d 85 ec fe ff
	ff		 lea	 eax, DWORD PTR _szTemp$[ebp]
  00093	50		 push	 eax
  00094	8b cf		 mov	 ecx, edi
  00096	ff 15 00 00 00
	00		 call	 DWORD PTR __imp_??4ioHashString@@QAEAAV0@PBD@Z

; 467  : 
; 468  : 	return szRank;

  0009c	8b c7		 mov	 eax, edi

; 469  : }

  0009e	e8 00 00 00 00	 call	 __EH_epilog3_GS
  000a3	c2 08 00	 ret	 8
_TEXT	ENDS
;	COMDAT text$x
text$x	SEGMENT
__unwindfunclet$?GetRankName@ioPetInfoManager@@QAE?AVioHashString@@H@Z$0:
  00000	8b 85 e8 fe ff
	ff		 mov	 eax, DWORD PTR $T514880[ebp]
  00006	83 e0 01	 and	 eax, 1
  00009	0f 84 13 00 00
	00		 je	 $LN12@GetRankNam
  0000f	83 a5 e8 fe ff
	ff fe		 and	 DWORD PTR $T514880[ebp], -2 ; fffffffeH
  00016	8b 8d e4 fe ff
	ff		 mov	 ecx, DWORD PTR ___$ReturnUdt$GSCopy$[ebp]
  0001c	ff 25 00 00 00
	00		 jmp	 DWORD PTR __imp_??1ioHashString@@QAE@XZ
$LN12@GetRankNam:
  00022	c3		 ret	 0
__ehhandler$?GetRankName@ioPetInfoManager@@QAE?AVioHashString@@H@Z:
  00023	8b 54 24 08	 mov	 edx, DWORD PTR [esp+8]
  00027	8d 42 0c	 lea	 eax, DWORD PTR [edx+12]
  0002a	8b 8a e0 fe ff
	ff		 mov	 ecx, DWORD PTR [edx-288]
  00030	33 c8		 xor	 ecx, eax
  00032	e8 00 00 00 00	 call	 @__security_check_cookie@4
  00037	8b 4a fc	 mov	 ecx, DWORD PTR [edx-4]
  0003a	33 c8		 xor	 ecx, eax
  0003c	e8 00 00 00 00	 call	 @__security_check_cookie@4
  00041	b8 00 00 00 00	 mov	 eax, OFFSET __ehfuncinfo$?GetRankName@ioPetInfoManager@@QAE?AVioHashString@@H@Z
  00046	e9 00 00 00 00	 jmp	 ___CxxFrameHandler3
text$x	ENDS
?GetRankName@ioPetInfoManager@@QAE?AVioHashString@@H@Z ENDP ; ioPetInfoManager::GetRankName
PUBLIC	?GetResellPeso@ioPetInfoManager@@QAEHXZ		; ioPetInfoManager::GetResellPeso
; Function compile flags: /Ogsp
;	COMDAT ?GetResellPeso@ioPetInfoManager@@QAEHXZ
_TEXT	SEGMENT
?GetResellPeso@ioPetInfoManager@@QAEHXZ PROC		; ioPetInfoManager::GetResellPeso, COMDAT
; _this$ = ecx

; 474  : 	return m_nResellPeso;

  00000	8b 41 38	 mov	 eax, DWORD PTR [ecx+56]

; 475  : }

  00003	c3		 ret	 0
?GetResellPeso@ioPetInfoManager@@QAEHXZ ENDP		; ioPetInfoManager::GetResellPeso
_TEXT	ENDS
PUBLIC	?size@?$vector@UtagPetViewInfo@@V?$allocator@UtagPetViewInfo@@@std@@@std@@QBEIXZ ; std::vector<tagPetViewInfo,std::allocator<tagPetViewInfo> >::size
; Function compile flags: /Ogsp
; File c:\program files (x86)\microsoft visual studio 10.0\vc\include\vector
;	COMDAT ?size@?$vector@UtagPetViewInfo@@V?$allocator@UtagPetViewInfo@@@std@@@std@@QBEIXZ
_TEXT	SEGMENT
?size@?$vector@UtagPetViewInfo@@V?$allocator@UtagPetViewInfo@@@std@@@std@@QBEIXZ PROC ; std::vector<tagPetViewInfo,std::allocator<tagPetViewInfo> >::size, COMDAT
; _this$ = ecx

; 879  : 		return (this->_Mylast - this->_Myfirst);

  00000	8b 41 04	 mov	 eax, DWORD PTR [ecx+4]
  00003	2b 01		 sub	 eax, DWORD PTR [ecx]
  00005	6a 50		 push	 80			; 00000050H
  00007	99		 cdq
  00008	59		 pop	 ecx
  00009	f7 f9		 idiv	 ecx

; 880  : 		}

  0000b	c3		 ret	 0
?size@?$vector@UtagPetViewInfo@@V?$allocator@UtagPetViewInfo@@@std@@@std@@QBEIXZ ENDP ; std::vector<tagPetViewInfo,std::allocator<tagPetViewInfo> >::size
_TEXT	ENDS
PUBLIC	??A?$vector@UtagPetViewInfo@@V?$allocator@UtagPetViewInfo@@@std@@@std@@QAEAAUtagPetViewInfo@@I@Z ; std::vector<tagPetViewInfo,std::allocator<tagPetViewInfo> >::operator[]
; Function compile flags: /Ogsp
;	COMDAT ??A?$vector@UtagPetViewInfo@@V?$allocator@UtagPetViewInfo@@@std@@@std@@QAEAAUtagPetViewInfo@@I@Z
_TEXT	SEGMENT
__Pos$ = 8						; size = 4
??A?$vector@UtagPetViewInfo@@V?$allocator@UtagPetViewInfo@@@std@@@std@@QAEAAUtagPetViewInfo@@I@Z PROC ; std::vector<tagPetViewInfo,std::allocator<tagPetViewInfo> >::operator[], COMDAT
; _this$ = ecx

; 928  : 		{	// subscript mutable sequence

  00000	55		 push	 ebp
  00001	8b ec		 mov	 ebp, esp

; 929  :  #if _ITERATOR_DEBUG_LEVEL == 2
; 930  : 		if (size() <= _Pos)
; 931  : 			{	// report error
; 932  : 			_DEBUG_ERROR("vector subscript out of range");
; 933  : 			_SCL_SECURE_OUT_OF_RANGE;
; 934  : 			}
; 935  : 
; 936  :  #elif _ITERATOR_DEBUG_LEVEL == 1
; 937  : 		_SCL_SECURE_VALIDATE_RANGE(_Pos < size());
; 938  :  #endif /* _ITERATOR_DEBUG_LEVEL */
; 939  : 
; 940  : 		return (*(this->_Myfirst + _Pos));

  00003	8b 45 08	 mov	 eax, DWORD PTR __Pos$[ebp]
  00006	6b c0 50	 imul	 eax, 80			; 00000050H
  00009	03 01		 add	 eax, DWORD PTR [ecx]

; 941  : 		}

  0000b	5d		 pop	 ebp
  0000c	c2 04 00	 ret	 4
??A?$vector@UtagPetViewInfo@@V?$allocator@UtagPetViewInfo@@@std@@@std@@QAEAAUtagPetViewInfo@@I@Z ENDP ; std::vector<tagPetViewInfo,std::allocator<tagPetViewInfo> >::operator[]
_TEXT	ENDS
PUBLIC	??0?$Singleton@VioPetInfoManager@@@@QAE@XZ	; Singleton<ioPetInfoManager>::Singleton<ioPetInfoManager>
; Function compile flags: /Ogsp
; File d:\lost saga for developer\youtube\tutorial\source\src\io3dengine\iosingleton.h
;	COMDAT ??0?$Singleton@VioPetInfoManager@@@@QAE@XZ
_TEXT	SEGMENT
??0?$Singleton@VioPetInfoManager@@@@QAE@XZ PROC		; Singleton<ioPetInfoManager>::Singleton<ioPetInfoManager>, COMDAT
; _this$ = ecx

; 27   : 	Singleton()

  00000	8b c1		 mov	 eax, ecx

; 28   : 	{
; 29   : 		assert( !ms_Singleton );
; 30   : 		int offset = (int)(T*)1 - (int)(Singleton <T>*)(T*)1;
; 31   : 		ms_Singleton = (T*)((int)this + offset);

  00002	8d 48 fc	 lea	 ecx, DWORD PTR [eax-4]
  00005	89 0d 00 00 00
	00		 mov	 DWORD PTR ?ms_Singleton@?$Singleton@VioPetInfoManager@@@@1PAVioPetInfoManager@@A, ecx ; Singleton<ioPetInfoManager>::ms_Singleton

; 32   : 	}

  0000b	c3		 ret	 0
??0?$Singleton@VioPetInfoManager@@@@QAE@XZ ENDP		; Singleton<ioPetInfoManager>::Singleton<ioPetInfoManager>
_TEXT	ENDS
PUBLIC	??1?$Singleton@VioPetInfoManager@@@@QAE@XZ	; Singleton<ioPetInfoManager>::~Singleton<ioPetInfoManager>
; Function compile flags: /Ogsp
;	COMDAT ??1?$Singleton@VioPetInfoManager@@@@QAE@XZ
_TEXT	SEGMENT
??1?$Singleton@VioPetInfoManager@@@@QAE@XZ PROC		; Singleton<ioPetInfoManager>::~Singleton<ioPetInfoManager>, COMDAT
; _this$ = ecx

; 36   : 		assert( ms_Singleton );
; 37   : 		ms_Singleton = 0;

  00000	83 25 00 00 00
	00 00		 and	 DWORD PTR ?ms_Singleton@?$Singleton@VioPetInfoManager@@@@1PAVioPetInfoManager@@A, 0 ; Singleton<ioPetInfoManager>::ms_Singleton

; 38   : 	}

  00007	c3		 ret	 0
??1?$Singleton@VioPetInfoManager@@@@QAE@XZ ENDP		; Singleton<ioPetInfoManager>::~Singleton<ioPetInfoManager>
_TEXT	ENDS
PUBLIC	?GetSingleton@?$Singleton@VioPetInfoManager@@@@SAAAVioPetInfoManager@@XZ ; Singleton<ioPetInfoManager>::GetSingleton
; Function compile flags: /Ogsp
;	COMDAT ?GetSingleton@?$Singleton@VioPetInfoManager@@@@SAAAVioPetInfoManager@@XZ
_TEXT	SEGMENT
?GetSingleton@?$Singleton@VioPetInfoManager@@@@SAAAVioPetInfoManager@@XZ PROC ; Singleton<ioPetInfoManager>::GetSingleton, COMDAT

; 42   : 		assert( ms_Singleton );
; 43   : 		return (*ms_Singleton);

  00000	a1 00 00 00 00	 mov	 eax, DWORD PTR ?ms_Singleton@?$Singleton@VioPetInfoManager@@@@1PAVioPetInfoManager@@A ; Singleton<ioPetInfoManager>::ms_Singleton

; 44   : 	}

  00005	c3		 ret	 0
?GetSingleton@?$Singleton@VioPetInfoManager@@@@SAAAVioPetInfoManager@@XZ ENDP ; Singleton<ioPetInfoManager>::GetSingleton
_TEXT	ENDS
PUBLIC	?size@?$vector@UtagPetRankInfo@@V?$allocator@UtagPetRankInfo@@@std@@@std@@QBEIXZ ; std::vector<tagPetRankInfo,std::allocator<tagPetRankInfo> >::size
; Function compile flags: /Ogsp
; File c:\program files (x86)\microsoft visual studio 10.0\vc\include\vector
;	COMDAT ?size@?$vector@UtagPetRankInfo@@V?$allocator@UtagPetRankInfo@@@std@@@std@@QBEIXZ
_TEXT	SEGMENT
?size@?$vector@UtagPetRankInfo@@V?$allocator@UtagPetRankInfo@@@std@@@std@@QBEIXZ PROC ; std::vector<tagPetRankInfo,std::allocator<tagPetRankInfo> >::size, COMDAT
; _this$ = ecx

; 879  : 		return (this->_Mylast - this->_Myfirst);

  00000	8b 41 04	 mov	 eax, DWORD PTR [ecx+4]
  00003	2b 01		 sub	 eax, DWORD PTR [ecx]
  00005	6a 0c		 push	 12			; 0000000cH
  00007	99		 cdq
  00008	59		 pop	 ecx
  00009	f7 f9		 idiv	 ecx

; 880  : 		}

  0000b	c3		 ret	 0
?size@?$vector@UtagPetRankInfo@@V?$allocator@UtagPetRankInfo@@@std@@@std@@QBEIXZ ENDP ; std::vector<tagPetRankInfo,std::allocator<tagPetRankInfo> >::size
_TEXT	ENDS
PUBLIC	??A?$vector@UtagPetRankInfo@@V?$allocator@UtagPetRankInfo@@@std@@@std@@QAEAAUtagPetRankInfo@@I@Z ; std::vector<tagPetRankInfo,std::allocator<tagPetRankInfo> >::operator[]
; Function compile flags: /Ogsp
;	COMDAT ??A?$vector@UtagPetRankInfo@@V?$allocator@UtagPetRankInfo@@@std@@@std@@QAEAAUtagPetRankInfo@@I@Z
_TEXT	SEGMENT
__Pos$ = 8						; size = 4
??A?$vector@UtagPetRankInfo@@V?$allocator@UtagPetRankInfo@@@std@@@std@@QAEAAUtagPetRankInfo@@I@Z PROC ; std::vector<tagPetRankInfo,std::allocator<tagPetRankInfo> >::operator[], COMDAT
; _this$ = ecx

; 928  : 		{	// subscript mutable sequence

  00000	55		 push	 ebp
  00001	8b ec		 mov	 ebp, esp

; 929  :  #if _ITERATOR_DEBUG_LEVEL == 2
; 930  : 		if (size() <= _Pos)
; 931  : 			{	// report error
; 932  : 			_DEBUG_ERROR("vector subscript out of range");
; 933  : 			_SCL_SECURE_OUT_OF_RANGE;
; 934  : 			}
; 935  : 
; 936  :  #elif _ITERATOR_DEBUG_LEVEL == 1
; 937  : 		_SCL_SECURE_VALIDATE_RANGE(_Pos < size());
; 938  :  #endif /* _ITERATOR_DEBUG_LEVEL */
; 939  : 
; 940  : 		return (*(this->_Myfirst + _Pos));

  00003	8b 45 08	 mov	 eax, DWORD PTR __Pos$[ebp]
  00006	6b c0 0c	 imul	 eax, 12			; 0000000cH
  00009	03 01		 add	 eax, DWORD PTR [ecx]

; 941  : 		}

  0000b	5d		 pop	 ebp
  0000c	c2 04 00	 ret	 4
??A?$vector@UtagPetRankInfo@@V?$allocator@UtagPetRankInfo@@@std@@@std@@QAEAAUtagPetRankInfo@@I@Z ENDP ; std::vector<tagPetRankInfo,std::allocator<tagPetRankInfo> >::operator[]
_TEXT	ENDS
PUBLIC	??R?$less@H@std@@QBE_NABH0@Z			; std::less<int>::operator()
; Function compile flags: /Ogsp
; File c:\program files (x86)\microsoft visual studio 10.0\vc\include\xfunctional
;	COMDAT ??R?$less@H@std@@QBE_NABH0@Z
_TEXT	SEGMENT
__Left$ = 8						; size = 4
__Right$ = 12						; size = 4
??R?$less@H@std@@QBE_NABH0@Z PROC			; std::less<int>::operator(), COMDAT
; _this$ = ecx

; 124  : 		{	// apply operator< to operands

  00000	55		 push	 ebp
  00001	8b ec		 mov	 ebp, esp

; 125  : 		return (_Left < _Right);

  00003	8b 45 08	 mov	 eax, DWORD PTR __Left$[ebp]
  00006	8b 00		 mov	 eax, DWORD PTR [eax]
  00008	8b 55 0c	 mov	 edx, DWORD PTR __Right$[ebp]
  0000b	33 c9		 xor	 ecx, ecx
  0000d	3b 02		 cmp	 eax, DWORD PTR [edx]
  0000f	0f 9c c0	 setl	 al

; 126  : 		}

  00012	5d		 pop	 ebp
  00013	c2 08 00	 ret	 8
??R?$less@H@std@@QBE_NABH0@Z ENDP			; std::less<int>::operator()
_TEXT	ENDS
PUBLIC	?_Inside@?$vector@HV?$allocator@H@std@@@std@@IBE_NPBH@Z ; std::vector<int,std::allocator<int> >::_Inside
; Function compile flags: /Ogsp
; File c:\program files (x86)\microsoft visual studio 10.0\vc\include\vector
;	COMDAT ?_Inside@?$vector@HV?$allocator@H@std@@@std@@IBE_NPBH@Z
_TEXT	SEGMENT
__Ptr$ = 8						; size = 4
?_Inside@?$vector@HV?$allocator@H@std@@@std@@IBE_NPBH@Z PROC ; std::vector<int,std::allocator<int> >::_Inside, COMDAT
; _this$ = ecx

; 1285 : 		{	// test if _Ptr points inside vector

  00000	55		 push	 ebp
  00001	8b ec		 mov	 ebp, esp

; 1286 : 		return (_Ptr < this->_Mylast && this->_Myfirst <= _Ptr);

  00003	8b 45 08	 mov	 eax, DWORD PTR __Ptr$[ebp]
  00006	3b 41 04	 cmp	 eax, DWORD PTR [ecx+4]
  00009	73 09		 jae	 SHORT $LN3@Inside
  0000b	39 01		 cmp	 DWORD PTR [ecx], eax
  0000d	77 05		 ja	 SHORT $LN3@Inside
  0000f	33 c0		 xor	 eax, eax
  00011	40		 inc	 eax
  00012	eb 02		 jmp	 SHORT $LN4@Inside
$LN3@Inside:
  00014	33 c0		 xor	 eax, eax
$LN4@Inside:

; 1287 : 		}

  00016	5d		 pop	 ebp
  00017	c2 04 00	 ret	 4
?_Inside@?$vector@HV?$allocator@H@std@@@std@@IBE_NPBH@Z ENDP ; std::vector<int,std::allocator<int> >::_Inside
_TEXT	ENDS
PUBLIC	?_Orphan_range@?$vector@HV?$allocator@H@std@@@std@@IBEXPAH0@Z ; std::vector<int,std::allocator<int> >::_Orphan_range
; Function compile flags: /Ogsp
;	COMDAT ?_Orphan_range@?$vector@HV?$allocator@H@std@@@std@@IBEXPAH0@Z
_TEXT	SEGMENT
___formal$ = 8						; size = 4
___formal$ = 12						; size = 4
?_Orphan_range@?$vector@HV?$allocator@H@std@@@std@@IBEXPAH0@Z PROC ; std::vector<int,std::allocator<int> >::_Orphan_range, COMDAT
; _this$ = ecx

; 1454 : 		}

  00000	c2 08 00	 ret	 8
?_Orphan_range@?$vector@HV?$allocator@H@std@@@std@@IBEXPAH0@Z ENDP ; std::vector<int,std::allocator<int> >::_Orphan_range
_TEXT	ENDS
PUBLIC	?_Inside@?$vector@UtagPetViewInfo@@V?$allocator@UtagPetViewInfo@@@std@@@std@@IBE_NPBUtagPetViewInfo@@@Z ; std::vector<tagPetViewInfo,std::allocator<tagPetViewInfo> >::_Inside
; Function compile flags: /Ogsp
;	COMDAT ?_Inside@?$vector@UtagPetViewInfo@@V?$allocator@UtagPetViewInfo@@@std@@@std@@IBE_NPBUtagPetViewInfo@@@Z
_TEXT	SEGMENT
__Ptr$ = 8						; size = 4
?_Inside@?$vector@UtagPetViewInfo@@V?$allocator@UtagPetViewInfo@@@std@@@std@@IBE_NPBUtagPetViewInfo@@@Z PROC ; std::vector<tagPetViewInfo,std::allocator<tagPetViewInfo> >::_Inside, COMDAT
; _this$ = ecx

; 1285 : 		{	// test if _Ptr points inside vector

  00000	55		 push	 ebp
  00001	8b ec		 mov	 ebp, esp

; 1286 : 		return (_Ptr < this->_Mylast && this->_Myfirst <= _Ptr);

  00003	8b 45 08	 mov	 eax, DWORD PTR __Ptr$[ebp]
  00006	3b 41 04	 cmp	 eax, DWORD PTR [ecx+4]
  00009	73 09		 jae	 SHORT $LN3@Inside@2
  0000b	39 01		 cmp	 DWORD PTR [ecx], eax
  0000d	77 05		 ja	 SHORT $LN3@Inside@2
  0000f	33 c0		 xor	 eax, eax
  00011	40		 inc	 eax
  00012	eb 02		 jmp	 SHORT $LN4@Inside@2
$LN3@Inside@2:
  00014	33 c0		 xor	 eax, eax
$LN4@Inside@2:

; 1287 : 		}

  00016	5d		 pop	 ebp
  00017	c2 04 00	 ret	 4
?_Inside@?$vector@UtagPetViewInfo@@V?$allocator@UtagPetViewInfo@@@std@@@std@@IBE_NPBUtagPetViewInfo@@@Z ENDP ; std::vector<tagPetViewInfo,std::allocator<tagPetViewInfo> >::_Inside
_TEXT	ENDS
PUBLIC	?_Orphan_range@?$vector@UtagPetViewInfo@@V?$allocator@UtagPetViewInfo@@@std@@@std@@IBEXPAUtagPetViewInfo@@0@Z ; std::vector<tagPetViewInfo,std::allocator<tagPetViewInfo> >::_Orphan_range
; Function compile flags: /Ogsp
;	COMDAT ?_Orphan_range@?$vector@UtagPetViewInfo@@V?$allocator@UtagPetViewInfo@@@std@@@std@@IBEXPAUtagPetViewInfo@@0@Z
_TEXT	SEGMENT
___formal$ = 8						; size = 4
___formal$ = 12						; size = 4
?_Orphan_range@?$vector@UtagPetViewInfo@@V?$allocator@UtagPetViewInfo@@@std@@@std@@IBEXPAUtagPetViewInfo@@0@Z PROC ; std::vector<tagPetViewInfo,std::allocator<tagPetViewInfo> >::_Orphan_range, COMDAT
; _this$ = ecx

; 1454 : 		}

  00000	c2 08 00	 ret	 8
?_Orphan_range@?$vector@UtagPetViewInfo@@V?$allocator@UtagPetViewInfo@@@std@@@std@@IBEXPAUtagPetViewInfo@@0@Z ENDP ; std::vector<tagPetViewInfo,std::allocator<tagPetViewInfo> >::_Orphan_range
_TEXT	ENDS
PUBLIC	?capacity@?$vector@UtagPetRankInfo@@V?$allocator@UtagPetRankInfo@@@std@@@std@@QBEIXZ ; std::vector<tagPetRankInfo,std::allocator<tagPetRankInfo> >::capacity
; Function compile flags: /Ogsp
;	COMDAT ?capacity@?$vector@UtagPetRankInfo@@V?$allocator@UtagPetRankInfo@@@std@@@std@@QBEIXZ
_TEXT	SEGMENT
?capacity@?$vector@UtagPetRankInfo@@V?$allocator@UtagPetRankInfo@@@std@@@std@@QBEIXZ PROC ; std::vector<tagPetRankInfo,std::allocator<tagPetRankInfo> >::capacity, COMDAT
; _this$ = ecx

; 777  : 		return (this->_Myend - this->_Myfirst);

  00000	8b 41 08	 mov	 eax, DWORD PTR [ecx+8]
  00003	2b 01		 sub	 eax, DWORD PTR [ecx]
  00005	6a 0c		 push	 12			; 0000000cH
  00007	99		 cdq
  00008	59		 pop	 ecx
  00009	f7 f9		 idiv	 ecx

; 778  : 		}

  0000b	c3		 ret	 0
?capacity@?$vector@UtagPetRankInfo@@V?$allocator@UtagPetRankInfo@@@std@@@std@@QBEIXZ ENDP ; std::vector<tagPetRankInfo,std::allocator<tagPetRankInfo> >::capacity
_TEXT	ENDS
PUBLIC	?_Inside@?$vector@UtagPetRankInfo@@V?$allocator@UtagPetRankInfo@@@std@@@std@@IBE_NPBUtagPetRankInfo@@@Z ; std::vector<tagPetRankInfo,std::allocator<tagPetRankInfo> >::_Inside
; Function compile flags: /Ogsp
;	COMDAT ?_Inside@?$vector@UtagPetRankInfo@@V?$allocator@UtagPetRankInfo@@@std@@@std@@IBE_NPBUtagPetRankInfo@@@Z
_TEXT	SEGMENT
__Ptr$ = 8						; size = 4
?_Inside@?$vector@UtagPetRankInfo@@V?$allocator@UtagPetRankInfo@@@std@@@std@@IBE_NPBUtagPetRankInfo@@@Z PROC ; std::vector<tagPetRankInfo,std::allocator<tagPetRankInfo> >::_Inside, COMDAT
; _this$ = ecx

; 1285 : 		{	// test if _Ptr points inside vector

  00000	55		 push	 ebp
  00001	8b ec		 mov	 ebp, esp

; 1286 : 		return (_Ptr < this->_Mylast && this->_Myfirst <= _Ptr);

  00003	8b 45 08	 mov	 eax, DWORD PTR __Ptr$[ebp]
  00006	3b 41 04	 cmp	 eax, DWORD PTR [ecx+4]
  00009	73 09		 jae	 SHORT $LN3@Inside@3
  0000b	39 01		 cmp	 DWORD PTR [ecx], eax
  0000d	77 05		 ja	 SHORT $LN3@Inside@3
  0000f	33 c0		 xor	 eax, eax
  00011	40		 inc	 eax
  00012	eb 02		 jmp	 SHORT $LN4@Inside@3
$LN3@Inside@3:
  00014	33 c0		 xor	 eax, eax
$LN4@Inside@3:

; 1287 : 		}

  00016	5d		 pop	 ebp
  00017	c2 04 00	 ret	 4
?_Inside@?$vector@UtagPetRankInfo@@V?$allocator@UtagPetRankInfo@@@std@@@std@@IBE_NPBUtagPetRankInfo@@@Z ENDP ; std::vector<tagPetRankInfo,std::allocator<tagPetRankInfo> >::_Inside
_TEXT	ENDS
PUBLIC	??_C@_0BD@OLBABOEK@vector?$DMT?$DO?5too?5long?$AA@ ; `string'
PUBLIC	?_Xlen@?$vector@UtagPetRankInfo@@V?$allocator@UtagPetRankInfo@@@std@@@std@@IBEXXZ ; std::vector<tagPetRankInfo,std::allocator<tagPetRankInfo> >::_Xlen
EXTRN	__imp_?_Xlength_error@std@@YAXPBD@Z:PROC
;	COMDAT ??_C@_0BD@OLBABOEK@vector?$DMT?$DO?5too?5long?$AA@
CONST	SEGMENT
??_C@_0BD@OLBABOEK@vector?$DMT?$DO?5too?5long?$AA@ DB 'vector<T> too long'
	DB	00H						; `string'
; Function compile flags: /Ogsp
CONST	ENDS
;	COMDAT ?_Xlen@?$vector@UtagPetRankInfo@@V?$allocator@UtagPetRankInfo@@@std@@@std@@IBEXXZ
_TEXT	SEGMENT
?_Xlen@?$vector@UtagPetRankInfo@@V?$allocator@UtagPetRankInfo@@@std@@@std@@IBEXXZ PROC ; std::vector<tagPetRankInfo,std::allocator<tagPetRankInfo> >::_Xlen, COMDAT
; _this$ = ecx

; 1427 : 		_Xlength_error("vector<T> too long");

  00000	68 00 00 00 00	 push	 OFFSET ??_C@_0BD@OLBABOEK@vector?$DMT?$DO?5too?5long?$AA@
  00005	ff 15 00 00 00
	00		 call	 DWORD PTR __imp_?_Xlength_error@std@@YAXPBD@Z
$LN4@Xlen:
$LN3@Xlen:
  0000b	cc		 int	 3
?_Xlen@?$vector@UtagPetRankInfo@@V?$allocator@UtagPetRankInfo@@@std@@@std@@IBEXXZ ENDP ; std::vector<tagPetRankInfo,std::allocator<tagPetRankInfo> >::_Xlen
_TEXT	ENDS
PUBLIC	?_Orphan_range@?$vector@UtagPetRankInfo@@V?$allocator@UtagPetRankInfo@@@std@@@std@@IBEXPAUtagPetRankInfo@@0@Z ; std::vector<tagPetRankInfo,std::allocator<tagPetRankInfo> >::_Orphan_range
; Function compile flags: /Ogsp
;	COMDAT ?_Orphan_range@?$vector@UtagPetRankInfo@@V?$allocator@UtagPetRankInfo@@@std@@@std@@IBEXPAUtagPetRankInfo@@0@Z
_TEXT	SEGMENT
___formal$ = 8						; size = 4
___formal$ = 12						; size = 4
?_Orphan_range@?$vector@UtagPetRankInfo@@V?$allocator@UtagPetRankInfo@@@std@@@std@@IBEXPAUtagPetRankInfo@@0@Z PROC ; std::vector<tagPetRankInfo,std::allocator<tagPetRankInfo> >::_Orphan_range, COMDAT
; _this$ = ecx

; 1454 : 		}

  00000	c2 08 00	 ret	 8
?_Orphan_range@?$vector@UtagPetRankInfo@@V?$allocator@UtagPetRankInfo@@@std@@@std@@IBEXPAUtagPetRankInfo@@0@Z ENDP ; std::vector<tagPetRankInfo,std::allocator<tagPetRankInfo> >::_Orphan_range
_TEXT	ENDS
PUBLIC	??1?$_Vector_val@UtagPetRankInfo@@V?$allocator@UtagPetRankInfo@@@std@@@std@@QAE@XZ ; std::_Vector_val<tagPetRankInfo,std::allocator<tagPetRankInfo> >::~_Vector_val<tagPetRankInfo,std::allocator<tagPetRankInfo> >
; Function compile flags: /Ogsp
;	COMDAT ??1?$_Vector_val@UtagPetRankInfo@@V?$allocator@UtagPetRankInfo@@@std@@@std@@QAE@XZ
_TEXT	SEGMENT
??1?$_Vector_val@UtagPetRankInfo@@V?$allocator@UtagPetRankInfo@@@std@@@std@@QAE@XZ PROC ; std::_Vector_val<tagPetRankInfo,std::allocator<tagPetRankInfo> >::~_Vector_val<tagPetRankInfo,std::allocator<tagPetRankInfo> >, COMDAT
; _this$ = ecx

; 434  : 		}

  00000	c3		 ret	 0
??1?$_Vector_val@UtagPetRankInfo@@V?$allocator@UtagPetRankInfo@@@std@@@std@@QAE@XZ ENDP ; std::_Vector_val<tagPetRankInfo,std::allocator<tagPetRankInfo> >::~_Vector_val<tagPetRankInfo,std::allocator<tagPetRankInfo> >
_TEXT	ENDS
PUBLIC	??0?$allocator@UtagPetRankInfo@@@std@@QAE@XZ	; std::allocator<tagPetRankInfo>::allocator<tagPetRankInfo>
; Function compile flags: /Ogsp
; File c:\program files (x86)\microsoft visual studio 10.0\vc\include\xmemory
;	COMDAT ??0?$allocator@UtagPetRankInfo@@@std@@QAE@XZ
_TEXT	SEGMENT
??0?$allocator@UtagPetRankInfo@@@std@@QAE@XZ PROC	; std::allocator<tagPetRankInfo>::allocator<tagPetRankInfo>, COMDAT
; _this$ = ecx

; 161  : 	_ALLOCATOR() _THROW0()

  00000	8b c1		 mov	 eax, ecx

; 162  : 		{	// construct default allocator (do nothing)
; 163  : 		}

  00002	c3		 ret	 0
??0?$allocator@UtagPetRankInfo@@@std@@QAE@XZ ENDP	; std::allocator<tagPetRankInfo>::allocator<tagPetRankInfo>
_TEXT	ENDS
PUBLIC	?deallocate@?$allocator@UtagPetRankInfo@@@std@@QAEXPAUtagPetRankInfo@@I@Z ; std::allocator<tagPetRankInfo>::deallocate
; Function compile flags: /Ogsp
;	COMDAT ?deallocate@?$allocator@UtagPetRankInfo@@@std@@QAEXPAUtagPetRankInfo@@I@Z
_TEXT	SEGMENT
__Ptr$ = 8						; size = 4
___formal$ = 12						; size = 4
?deallocate@?$allocator@UtagPetRankInfo@@@std@@QAEXPAUtagPetRankInfo@@I@Z PROC ; std::allocator<tagPetRankInfo>::deallocate, COMDAT
; _this$ = ecx

; 181  : 		{	// deallocate object at _Ptr, ignore size

  00000	55		 push	 ebp
  00001	8b ec		 mov	 ebp, esp

; 182  : 		::operator delete(_Ptr);

  00003	ff 75 08	 push	 DWORD PTR __Ptr$[ebp]
  00006	e8 00 00 00 00	 call	 ??3@YAXPAX@Z		; operator delete
  0000b	59		 pop	 ecx

; 183  : 		}

  0000c	5d		 pop	 ebp
  0000d	c2 08 00	 ret	 8
?deallocate@?$allocator@UtagPetRankInfo@@@std@@QAEXPAUtagPetRankInfo@@I@Z ENDP ; std::allocator<tagPetRankInfo>::deallocate
_TEXT	ENDS
PUBLIC	??0?$allocator@U?$pair@$$CBHUtagPetAddStatInfo@@@std@@@std@@QAE@XZ ; std::allocator<std::pair<int const ,tagPetAddStatInfo> >::allocator<std::pair<int const ,tagPetAddStatInfo> >
; Function compile flags: /Ogsp
;	COMDAT ??0?$allocator@U?$pair@$$CBHUtagPetAddStatInfo@@@std@@@std@@QAE@XZ
_TEXT	SEGMENT
??0?$allocator@U?$pair@$$CBHUtagPetAddStatInfo@@@std@@@std@@QAE@XZ PROC ; std::allocator<std::pair<int const ,tagPetAddStatInfo> >::allocator<std::pair<int const ,tagPetAddStatInfo> >, COMDAT
; _this$ = ecx

; 161  : 	_ALLOCATOR() _THROW0()

  00000	8b c1		 mov	 eax, ecx

; 162  : 		{	// construct default allocator (do nothing)
; 163  : 		}

  00002	c3		 ret	 0
??0?$allocator@U?$pair@$$CBHUtagPetAddStatInfo@@@std@@@std@@QAE@XZ ENDP ; std::allocator<std::pair<int const ,tagPetAddStatInfo> >::allocator<std::pair<int const ,tagPetAddStatInfo> >
_TEXT	ENDS
PUBLIC	??0?$allocator@U?$pair@$$CBHUtagPetStatBaseInfo@@@std@@@std@@QAE@XZ ; std::allocator<std::pair<int const ,tagPetStatBaseInfo> >::allocator<std::pair<int const ,tagPetStatBaseInfo> >
; Function compile flags: /Ogsp
;	COMDAT ??0?$allocator@U?$pair@$$CBHUtagPetStatBaseInfo@@@std@@@std@@QAE@XZ
_TEXT	SEGMENT
??0?$allocator@U?$pair@$$CBHUtagPetStatBaseInfo@@@std@@@std@@QAE@XZ PROC ; std::allocator<std::pair<int const ,tagPetStatBaseInfo> >::allocator<std::pair<int const ,tagPetStatBaseInfo> >, COMDAT
; _this$ = ecx

; 161  : 	_ALLOCATOR() _THROW0()

  00000	8b c1		 mov	 eax, ecx

; 162  : 		{	// construct default allocator (do nothing)
; 163  : 		}

  00002	c3		 ret	 0
??0?$allocator@U?$pair@$$CBHUtagPetStatBaseInfo@@@std@@@std@@QAE@XZ ENDP ; std::allocator<std::pair<int const ,tagPetStatBaseInfo> >::allocator<std::pair<int const ,tagPetStatBaseInfo> >
_TEXT	ENDS
PUBLIC	??8?$_Tree_const_iterator@V?$_Tree_val@V?$_Tmap_traits@HUtagPetStatBaseInfo@@U?$less@H@std@@V?$allocator@U?$pair@$$CBHUtagPetStatBaseInfo@@@std@@@3@$0A@@std@@@std@@@std@@QBE_NABV01@@Z ; std::_Tree_const_iterator<std::_Tree_val<std::_Tmap_traits<int,tagPetStatBaseInfo,std::less<int>,std::allocator<std::pair<int const ,tagPetStatBaseInfo> >,0> > >::operator==
; Function compile flags: /Ogsp
; File c:\program files (x86)\microsoft visual studio 10.0\vc\include\xtree
;	COMDAT ??8?$_Tree_const_iterator@V?$_Tree_val@V?$_Tmap_traits@HUtagPetStatBaseInfo@@U?$less@H@std@@V?$allocator@U?$pair@$$CBHUtagPetStatBaseInfo@@@std@@@3@$0A@@std@@@std@@@std@@QBE_NABV01@@Z
_TEXT	SEGMENT
__Right$ = 8						; size = 4
??8?$_Tree_const_iterator@V?$_Tree_val@V?$_Tmap_traits@HUtagPetStatBaseInfo@@U?$less@H@std@@V?$allocator@U?$pair@$$CBHUtagPetStatBaseInfo@@@std@@@3@$0A@@std@@@std@@@std@@QBE_NABV01@@Z PROC ; std::_Tree_const_iterator<std::_Tree_val<std::_Tmap_traits<int,tagPetStatBaseInfo,std::less<int>,std::allocator<std::pair<int const ,tagPetStatBaseInfo> >,0> > >::operator==, COMDAT
; _this$ = ecx

; 316  : 		{	// test for iterator equality

  00000	55		 push	 ebp
  00001	8b ec		 mov	 ebp, esp

; 317  :  #if _ITERATOR_DEBUG_LEVEL == 2
; 318  : 		if (this->_Getcont() == 0
; 319  : 			|| this->_Getcont() != _Right._Getcont())
; 320  : 			{	// report error
; 321  : 			_DEBUG_ERROR("map/set iterators incompatible");
; 322  : 			_SCL_SECURE_INVALID_ARGUMENT;
; 323  : 			}
; 324  : 
; 325  :  #elif _ITERATOR_DEBUG_LEVEL == 1
; 326  : 		_SCL_SECURE_VALIDATE(this->_Getcont() != 0
; 327  : 			&& this->_Getcont() == _Right._Getcont());
; 328  :  #endif /* _ITERATOR_DEBUG_LEVEL */
; 329  : 
; 330  : 		return (this->_Ptr == _Right._Ptr);

  00003	8b 01		 mov	 eax, DWORD PTR [ecx]
  00005	8b 4d 08	 mov	 ecx, DWORD PTR __Right$[ebp]
  00008	2b 01		 sub	 eax, DWORD PTR [ecx]
  0000a	f7 d8		 neg	 eax
  0000c	1b c0		 sbb	 eax, eax
  0000e	40		 inc	 eax

; 331  : 		}

  0000f	5d		 pop	 ebp
  00010	c2 04 00	 ret	 4
??8?$_Tree_const_iterator@V?$_Tree_val@V?$_Tmap_traits@HUtagPetStatBaseInfo@@U?$less@H@std@@V?$allocator@U?$pair@$$CBHUtagPetStatBaseInfo@@@std@@@3@$0A@@std@@@std@@@std@@QBE_NABV01@@Z ENDP ; std::_Tree_const_iterator<std::_Tree_val<std::_Tmap_traits<int,tagPetStatBaseInfo,std::less<int>,std::allocator<std::pair<int const ,tagPetStatBaseInfo> >,0> > >::operator==
_TEXT	ENDS
PUBLIC	?_Mynode@?$_Tree_unchecked_const_iterator@V?$_Tree_val@V?$_Tmap_traits@HUtagPetStatBaseInfo@@U?$less@H@std@@V?$allocator@U?$pair@$$CBHUtagPetStatBaseInfo@@@std@@@3@$0A@@std@@@std@@U_Iterator_base0@2@@std@@QBEPAU_Node@?$_Tree_nod@V?$_Tmap_traits@HUtagPetStatBaseInfo@@U?$less@H@std@@V?$allocator@U?$pair@$$CBHUtagPetStatBaseInfo@@@std@@@3@$0A@@std@@@2@XZ ; std::_Tree_unchecked_const_iterator<std::_Tree_val<std::_Tmap_traits<int,tagPetStatBaseInfo,std::less<int>,std::allocator<std::pair<int const ,tagPetStatBaseInfo> >,0> >,std::_Iterator_base0>::_Mynode
; Function compile flags: /Ogsp
;	COMDAT ?_Mynode@?$_Tree_unchecked_const_iterator@V?$_Tree_val@V?$_Tmap_traits@HUtagPetStatBaseInfo@@U?$less@H@std@@V?$allocator@U?$pair@$$CBHUtagPetStatBaseInfo@@@std@@@3@$0A@@std@@@std@@U_Iterator_base0@2@@std@@QBEPAU_Node@?$_Tree_nod@V?$_Tmap_traits@HUtagPetStatBaseInfo@@U?$less@H@std@@V?$allocator@U?$pair@$$CBHUtagPetStatBaseInfo@@@std@@@3@$0A@@std@@@2@XZ
_TEXT	SEGMENT
?_Mynode@?$_Tree_unchecked_const_iterator@V?$_Tree_val@V?$_Tmap_traits@HUtagPetStatBaseInfo@@U?$less@H@std@@V?$allocator@U?$pair@$$CBHUtagPetStatBaseInfo@@@std@@@3@$0A@@std@@@std@@U_Iterator_base0@2@@std@@QBEPAU_Node@?$_Tree_nod@V?$_Tmap_traits@HUtagPetStatBaseInfo@@U?$less@H@std@@V?$allocator@U?$pair@$$CBHUtagPetStatBaseInfo@@@std@@@3@$0A@@std@@@2@XZ PROC ; std::_Tree_unchecked_const_iterator<std::_Tree_val<std::_Tmap_traits<int,tagPetStatBaseInfo,std::less<int>,std::allocator<std::pair<int const ,tagPetStatBaseInfo> >,0> >,std::_Iterator_base0>::_Mynode, COMDAT
; _this$ = ecx

; 122  : 		return (_Ptr);

  00000	8b 01		 mov	 eax, DWORD PTR [ecx]

; 123  : 		}

  00002	c3		 ret	 0
?_Mynode@?$_Tree_unchecked_const_iterator@V?$_Tree_val@V?$_Tmap_traits@HUtagPetStatBaseInfo@@U?$less@H@std@@V?$allocator@U?$pair@$$CBHUtagPetStatBaseInfo@@@std@@@3@$0A@@std@@@std@@U_Iterator_base0@2@@std@@QBEPAU_Node@?$_Tree_nod@V?$_Tmap_traits@HUtagPetStatBaseInfo@@U?$less@H@std@@V?$allocator@U?$pair@$$CBHUtagPetStatBaseInfo@@@std@@@3@$0A@@std@@@2@XZ ENDP ; std::_Tree_unchecked_const_iterator<std::_Tree_val<std::_Tmap_traits<int,tagPetStatBaseInfo,std::less<int>,std::allocator<std::pair<int const ,tagPetStatBaseInfo> >,0> >,std::_Iterator_base0>::_Mynode
_TEXT	ENDS
PUBLIC	??8?$_Tree_const_iterator@V?$_Tree_val@V?$_Tmap_traits@HUtagPetAddStatInfo@@U?$less@H@std@@V?$allocator@U?$pair@$$CBHUtagPetAddStatInfo@@@std@@@3@$0A@@std@@@std@@@std@@QBE_NABV01@@Z ; std::_Tree_const_iterator<std::_Tree_val<std::_Tmap_traits<int,tagPetAddStatInfo,std::less<int>,std::allocator<std::pair<int const ,tagPetAddStatInfo> >,0> > >::operator==
; Function compile flags: /Ogsp
;	COMDAT ??8?$_Tree_const_iterator@V?$_Tree_val@V?$_Tmap_traits@HUtagPetAddStatInfo@@U?$less@H@std@@V?$allocator@U?$pair@$$CBHUtagPetAddStatInfo@@@std@@@3@$0A@@std@@@std@@@std@@QBE_NABV01@@Z
_TEXT	SEGMENT
__Right$ = 8						; size = 4
??8?$_Tree_const_iterator@V?$_Tree_val@V?$_Tmap_traits@HUtagPetAddStatInfo@@U?$less@H@std@@V?$allocator@U?$pair@$$CBHUtagPetAddStatInfo@@@std@@@3@$0A@@std@@@std@@@std@@QBE_NABV01@@Z PROC ; std::_Tree_const_iterator<std::_Tree_val<std::_Tmap_traits<int,tagPetAddStatInfo,std::less<int>,std::allocator<std::pair<int const ,tagPetAddStatInfo> >,0> > >::operator==, COMDAT
; _this$ = ecx

; 316  : 		{	// test for iterator equality

  00000	55		 push	 ebp
  00001	8b ec		 mov	 ebp, esp

; 317  :  #if _ITERATOR_DEBUG_LEVEL == 2
; 318  : 		if (this->_Getcont() == 0
; 319  : 			|| this->_Getcont() != _Right._Getcont())
; 320  : 			{	// report error
; 321  : 			_DEBUG_ERROR("map/set iterators incompatible");
; 322  : 			_SCL_SECURE_INVALID_ARGUMENT;
; 323  : 			}
; 324  : 
; 325  :  #elif _ITERATOR_DEBUG_LEVEL == 1
; 326  : 		_SCL_SECURE_VALIDATE(this->_Getcont() != 0
; 327  : 			&& this->_Getcont() == _Right._Getcont());
; 328  :  #endif /* _ITERATOR_DEBUG_LEVEL */
; 329  : 
; 330  : 		return (this->_Ptr == _Right._Ptr);

  00003	8b 01		 mov	 eax, DWORD PTR [ecx]
  00005	8b 4d 08	 mov	 ecx, DWORD PTR __Right$[ebp]
  00008	2b 01		 sub	 eax, DWORD PTR [ecx]
  0000a	f7 d8		 neg	 eax
  0000c	1b c0		 sbb	 eax, eax
  0000e	40		 inc	 eax

; 331  : 		}

  0000f	5d		 pop	 ebp
  00010	c2 04 00	 ret	 4
??8?$_Tree_const_iterator@V?$_Tree_val@V?$_Tmap_traits@HUtagPetAddStatInfo@@U?$less@H@std@@V?$allocator@U?$pair@$$CBHUtagPetAddStatInfo@@@std@@@3@$0A@@std@@@std@@@std@@QBE_NABV01@@Z ENDP ; std::_Tree_const_iterator<std::_Tree_val<std::_Tmap_traits<int,tagPetAddStatInfo,std::less<int>,std::allocator<std::pair<int const ,tagPetAddStatInfo> >,0> > >::operator==
_TEXT	ENDS
PUBLIC	?_Mynode@?$_Tree_unchecked_const_iterator@V?$_Tree_val@V?$_Tmap_traits@HUtagPetAddStatInfo@@U?$less@H@std@@V?$allocator@U?$pair@$$CBHUtagPetAddStatInfo@@@std@@@3@$0A@@std@@@std@@U_Iterator_base0@2@@std@@QBEPAU_Node@?$_Tree_nod@V?$_Tmap_traits@HUtagPetAddStatInfo@@U?$less@H@std@@V?$allocator@U?$pair@$$CBHUtagPetAddStatInfo@@@std@@@3@$0A@@std@@@2@XZ ; std::_Tree_unchecked_const_iterator<std::_Tree_val<std::_Tmap_traits<int,tagPetAddStatInfo,std::less<int>,std::allocator<std::pair<int const ,tagPetAddStatInfo> >,0> >,std::_Iterator_base0>::_Mynode
; Function compile flags: /Ogsp
;	COMDAT ?_Mynode@?$_Tree_unchecked_const_iterator@V?$_Tree_val@V?$_Tmap_traits@HUtagPetAddStatInfo@@U?$less@H@std@@V?$allocator@U?$pair@$$CBHUtagPetAddStatInfo@@@std@@@3@$0A@@std@@@std@@U_Iterator_base0@2@@std@@QBEPAU_Node@?$_Tree_nod@V?$_Tmap_traits@HUtagPetAddStatInfo@@U?$less@H@std@@V?$allocator@U?$pair@$$CBHUtagPetAddStatInfo@@@std@@@3@$0A@@std@@@2@XZ
_TEXT	SEGMENT
?_Mynode@?$_Tree_unchecked_const_iterator@V?$_Tree_val@V?$_Tmap_traits@HUtagPetAddStatInfo@@U?$less@H@std@@V?$allocator@U?$pair@$$CBHUtagPetAddStatInfo@@@std@@@3@$0A@@std@@@std@@U_Iterator_base0@2@@std@@QBEPAU_Node@?$_Tree_nod@V?$_Tmap_traits@HUtagPetAddStatInfo@@U?$less@H@std@@V?$allocator@U?$pair@$$CBHUtagPetAddStatInfo@@@std@@@3@$0A@@std@@@2@XZ PROC ; std::_Tree_unchecked_const_iterator<std::_Tree_val<std::_Tmap_traits<int,tagPetAddStatInfo,std::less<int>,std::allocator<std::pair<int const ,tagPetAddStatInfo> >,0> >,std::_Iterator_base0>::_Mynode, COMDAT
; _this$ = ecx

; 122  : 		return (_Ptr);

  00000	8b 01		 mov	 eax, DWORD PTR [ecx]

; 123  : 		}

  00002	c3		 ret	 0
?_Mynode@?$_Tree_unchecked_const_iterator@V?$_Tree_val@V?$_Tmap_traits@HUtagPetAddStatInfo@@U?$less@H@std@@V?$allocator@U?$pair@$$CBHUtagPetAddStatInfo@@@std@@@3@$0A@@std@@@std@@U_Iterator_base0@2@@std@@QBEPAU_Node@?$_Tree_nod@V?$_Tmap_traits@HUtagPetAddStatInfo@@U?$less@H@std@@V?$allocator@U?$pair@$$CBHUtagPetAddStatInfo@@@std@@@3@$0A@@std@@@2@XZ ENDP ; std::_Tree_unchecked_const_iterator<std::_Tree_val<std::_Tmap_traits<int,tagPetAddStatInfo,std::less<int>,std::allocator<std::pair<int const ,tagPetAddStatInfo> >,0> >,std::_Iterator_base0>::_Mynode
_TEXT	ENDS
PUBLIC	?capacity@?$vector@UtagPetViewInfo@@V?$allocator@UtagPetViewInfo@@@std@@@std@@QBEIXZ ; std::vector<tagPetViewInfo,std::allocator<tagPetViewInfo> >::capacity
; Function compile flags: /Ogsp
; File c:\program files (x86)\microsoft visual studio 10.0\vc\include\vector
;	COMDAT ?capacity@?$vector@UtagPetViewInfo@@V?$allocator@UtagPetViewInfo@@@std@@@std@@QBEIXZ
_TEXT	SEGMENT
?capacity@?$vector@UtagPetViewInfo@@V?$allocator@UtagPetViewInfo@@@std@@@std@@QBEIXZ PROC ; std::vector<tagPetViewInfo,std::allocator<tagPetViewInfo> >::capacity, COMDAT
; _this$ = ecx

; 777  : 		return (this->_Myend - this->_Myfirst);

  00000	8b 41 08	 mov	 eax, DWORD PTR [ecx+8]
  00003	2b 01		 sub	 eax, DWORD PTR [ecx]
  00005	6a 50		 push	 80			; 00000050H
  00007	99		 cdq
  00008	59		 pop	 ecx
  00009	f7 f9		 idiv	 ecx

; 778  : 		}

  0000b	c3		 ret	 0
?capacity@?$vector@UtagPetViewInfo@@V?$allocator@UtagPetViewInfo@@@std@@@std@@QBEIXZ ENDP ; std::vector<tagPetViewInfo,std::allocator<tagPetViewInfo> >::capacity
_TEXT	ENDS
PUBLIC	?_Xlen@?$vector@UtagPetViewInfo@@V?$allocator@UtagPetViewInfo@@@std@@@std@@IBEXXZ ; std::vector<tagPetViewInfo,std::allocator<tagPetViewInfo> >::_Xlen
; Function compile flags: /Ogsp
;	COMDAT ?_Xlen@?$vector@UtagPetViewInfo@@V?$allocator@UtagPetViewInfo@@@std@@@std@@IBEXXZ
_TEXT	SEGMENT
?_Xlen@?$vector@UtagPetViewInfo@@V?$allocator@UtagPetViewInfo@@@std@@@std@@IBEXXZ PROC ; std::vector<tagPetViewInfo,std::allocator<tagPetViewInfo> >::_Xlen, COMDAT
; _this$ = ecx

; 1427 : 		_Xlength_error("vector<T> too long");

  00000	68 00 00 00 00	 push	 OFFSET ??_C@_0BD@OLBABOEK@vector?$DMT?$DO?5too?5long?$AA@
  00005	ff 15 00 00 00
	00		 call	 DWORD PTR __imp_?_Xlength_error@std@@YAXPBD@Z
$LN4@Xlen@2:
$LN3@Xlen@2:
  0000b	cc		 int	 3
?_Xlen@?$vector@UtagPetViewInfo@@V?$allocator@UtagPetViewInfo@@@std@@@std@@IBEXXZ ENDP ; std::vector<tagPetViewInfo,std::allocator<tagPetViewInfo> >::_Xlen
_TEXT	ENDS
PUBLIC	??0?$allocator@UtagPetRankInfo@@@std@@QAE@ABV01@@Z ; std::allocator<tagPetRankInfo>::allocator<tagPetRankInfo>
; Function compile flags: /Ogsp
; File c:\program files (x86)\microsoft visual studio 10.0\vc\include\xmemory
;	COMDAT ??0?$allocator@UtagPetRankInfo@@@std@@QAE@ABV01@@Z
_TEXT	SEGMENT
___formal$ = 8						; size = 4
??0?$allocator@UtagPetRankInfo@@@std@@QAE@ABV01@@Z PROC	; std::allocator<tagPetRankInfo>::allocator<tagPetRankInfo>, COMDAT
; _this$ = ecx

; 165  : 	_ALLOCATOR(const _ALLOCATOR<_Ty>&) _THROW0()

  00000	8b c1		 mov	 eax, ecx

; 166  : 		{	// construct by copying (do nothing)
; 167  : 		}

  00002	c2 04 00	 ret	 4
??0?$allocator@UtagPetRankInfo@@@std@@QAE@ABV01@@Z ENDP	; std::allocator<tagPetRankInfo>::allocator<tagPetRankInfo>
_TEXT	ENDS
PUBLIC	?max_size@?$allocator@UtagPetRankInfo@@@std@@QBEIXZ ; std::allocator<tagPetRankInfo>::max_size
; Function compile flags: /Ogsp
;	COMDAT ?max_size@?$allocator@UtagPetRankInfo@@@std@@QBEIXZ
_TEXT	SEGMENT
?max_size@?$allocator@UtagPetRankInfo@@@std@@QBEIXZ PROC ; std::allocator<tagPetRankInfo>::max_size, COMDAT
; _this$ = ecx

; 218  : 		_SIZT _Count = (_SIZT)(-1) / sizeof (_Ty);
; 219  : 		return (0 < _Count ? _Count : 1);

  00000	b8 55 55 55 15	 mov	 eax, 357913941		; 15555555H

; 220  : 		}

  00005	c3		 ret	 0
?max_size@?$allocator@UtagPetRankInfo@@@std@@QBEIXZ ENDP ; std::allocator<tagPetRankInfo>::max_size
_TEXT	ENDS
PUBLIC	?_Isnil@?$_Tree_val@V?$_Tmap_traits@HUtagPetAddStatInfo@@U?$less@H@std@@V?$allocator@U?$pair@$$CBHUtagPetAddStatInfo@@@std@@@3@$0A@@std@@@std@@SAAADPAU_Node@?$_Tree_nod@V?$_Tmap_traits@HUtagPetAddStatInfo@@U?$less@H@std@@V?$allocator@U?$pair@$$CBHUtagPetAddStatInfo@@@std@@@3@$0A@@std@@@2@@Z ; std::_Tree_val<std::_Tmap_traits<int,tagPetAddStatInfo,std::less<int>,std::allocator<std::pair<int const ,tagPetAddStatInfo> >,0> >::_Isnil
; Function compile flags: /Ogsp
; File c:\program files (x86)\microsoft visual studio 10.0\vc\include\xtree
;	COMDAT ?_Isnil@?$_Tree_val@V?$_Tmap_traits@HUtagPetAddStatInfo@@U?$less@H@std@@V?$allocator@U?$pair@$$CBHUtagPetAddStatInfo@@@std@@@3@$0A@@std@@@std@@SAAADPAU_Node@?$_Tree_nod@V?$_Tmap_traits@HUtagPetAddStatInfo@@U?$less@H@std@@V?$allocator@U?$pair@$$CBHUtagPetAddStatInfo@@@std@@@3@$0A@@std@@@2@@Z
_TEXT	SEGMENT
__Pnode$ = 8						; size = 4
?_Isnil@?$_Tree_val@V?$_Tmap_traits@HUtagPetAddStatInfo@@U?$less@H@std@@V?$allocator@U?$pair@$$CBHUtagPetAddStatInfo@@@std@@@3@$0A@@std@@@std@@SAAADPAU_Node@?$_Tree_nod@V?$_Tmap_traits@HUtagPetAddStatInfo@@U?$less@H@std@@V?$allocator@U?$pair@$$CBHUtagPetAddStatInfo@@@std@@@3@$0A@@std@@@2@@Z PROC ; std::_Tree_val<std::_Tmap_traits<int,tagPetAddStatInfo,std::less<int>,std::allocator<std::pair<int const ,tagPetAddStatInfo> >,0> >::_Isnil, COMDAT

; 611  : 		{	// return reference to nil flag in node

  00000	55		 push	 ebp
  00001	8b ec		 mov	 ebp, esp

; 612  : 		return ((char&)(*_Pnode)._Isnil);

  00003	8b 45 08	 mov	 eax, DWORD PTR __Pnode$[ebp]
  00006	83 c0 19	 add	 eax, 25			; 00000019H

; 613  : 		}

  00009	5d		 pop	 ebp
  0000a	c3		 ret	 0
?_Isnil@?$_Tree_val@V?$_Tmap_traits@HUtagPetAddStatInfo@@U?$less@H@std@@V?$allocator@U?$pair@$$CBHUtagPetAddStatInfo@@@std@@@3@$0A@@std@@@std@@SAAADPAU_Node@?$_Tree_nod@V?$_Tmap_traits@HUtagPetAddStatInfo@@U?$less@H@std@@V?$allocator@U?$pair@$$CBHUtagPetAddStatInfo@@@std@@@3@$0A@@std@@@2@@Z ENDP ; std::_Tree_val<std::_Tmap_traits<int,tagPetAddStatInfo,std::less<int>,std::allocator<std::pair<int const ,tagPetAddStatInfo> >,0> >::_Isnil
_TEXT	ENDS
PUBLIC	?_Left@?$_Tree_val@V?$_Tmap_traits@HUtagPetAddStatInfo@@U?$less@H@std@@V?$allocator@U?$pair@$$CBHUtagPetAddStatInfo@@@std@@@3@$0A@@std@@@std@@SAAAPAU_Node@?$_Tree_nod@V?$_Tmap_traits@HUtagPetAddStatInfo@@U?$less@H@std@@V?$allocator@U?$pair@$$CBHUtagPetAddStatInfo@@@std@@@3@$0A@@std@@@2@PAU342@@Z ; std::_Tree_val<std::_Tmap_traits<int,tagPetAddStatInfo,std::less<int>,std::allocator<std::pair<int const ,tagPetAddStatInfo> >,0> >::_Left
; Function compile flags: /Ogsp
;	COMDAT ?_Left@?$_Tree_val@V?$_Tmap_traits@HUtagPetAddStatInfo@@U?$less@H@std@@V?$allocator@U?$pair@$$CBHUtagPetAddStatInfo@@@std@@@3@$0A@@std@@@std@@SAAAPAU_Node@?$_Tree_nod@V?$_Tmap_traits@HUtagPetAddStatInfo@@U?$less@H@std@@V?$allocator@U?$pair@$$CBHUtagPetAddStatInfo@@@std@@@3@$0A@@std@@@2@PAU342@@Z
_TEXT	SEGMENT
__Pnode$ = 8						; size = 4
?_Left@?$_Tree_val@V?$_Tmap_traits@HUtagPetAddStatInfo@@U?$less@H@std@@V?$allocator@U?$pair@$$CBHUtagPetAddStatInfo@@@std@@@3@$0A@@std@@@std@@SAAAPAU_Node@?$_Tree_nod@V?$_Tmap_traits@HUtagPetAddStatInfo@@U?$less@H@std@@V?$allocator@U?$pair@$$CBHUtagPetAddStatInfo@@@std@@@3@$0A@@std@@@2@PAU342@@Z PROC ; std::_Tree_val<std::_Tmap_traits<int,tagPetAddStatInfo,std::less<int>,std::allocator<std::pair<int const ,tagPetAddStatInfo> >,0> >::_Left, COMDAT

; 621  : 		{	// return reference to left pointer in node

  00000	55		 push	 ebp
  00001	8b ec		 mov	 ebp, esp

; 622  : 		return ((_Nodepref)(*_Pnode)._Left);

  00003	8b 45 08	 mov	 eax, DWORD PTR __Pnode$[ebp]

; 623  : 		}

  00006	5d		 pop	 ebp
  00007	c3		 ret	 0
?_Left@?$_Tree_val@V?$_Tmap_traits@HUtagPetAddStatInfo@@U?$less@H@std@@V?$allocator@U?$pair@$$CBHUtagPetAddStatInfo@@@std@@@3@$0A@@std@@@std@@SAAAPAU_Node@?$_Tree_nod@V?$_Tmap_traits@HUtagPetAddStatInfo@@U?$less@H@std@@V?$allocator@U?$pair@$$CBHUtagPetAddStatInfo@@@std@@@3@$0A@@std@@@2@PAU342@@Z ENDP ; std::_Tree_val<std::_Tmap_traits<int,tagPetAddStatInfo,std::less<int>,std::allocator<std::pair<int const ,tagPetAddStatInfo> >,0> >::_Left
_TEXT	ENDS
PUBLIC	?_Parent@?$_Tree_val@V?$_Tmap_traits@HUtagPetAddStatInfo@@U?$less@H@std@@V?$allocator@U?$pair@$$CBHUtagPetAddStatInfo@@@std@@@3@$0A@@std@@@std@@SAAAPAU_Node@?$_Tree_nod@V?$_Tmap_traits@HUtagPetAddStatInfo@@U?$less@H@std@@V?$allocator@U?$pair@$$CBHUtagPetAddStatInfo@@@std@@@3@$0A@@std@@@2@PAU342@@Z ; std::_Tree_val<std::_Tmap_traits<int,tagPetAddStatInfo,std::less<int>,std::allocator<std::pair<int const ,tagPetAddStatInfo> >,0> >::_Parent
; Function compile flags: /Ogsp
;	COMDAT ?_Parent@?$_Tree_val@V?$_Tmap_traits@HUtagPetAddStatInfo@@U?$less@H@std@@V?$allocator@U?$pair@$$CBHUtagPetAddStatInfo@@@std@@@3@$0A@@std@@@std@@SAAAPAU_Node@?$_Tree_nod@V?$_Tmap_traits@HUtagPetAddStatInfo@@U?$less@H@std@@V?$allocator@U?$pair@$$CBHUtagPetAddStatInfo@@@std@@@3@$0A@@std@@@2@PAU342@@Z
_TEXT	SEGMENT
__Pnode$ = 8						; size = 4
?_Parent@?$_Tree_val@V?$_Tmap_traits@HUtagPetAddStatInfo@@U?$less@H@std@@V?$allocator@U?$pair@$$CBHUtagPetAddStatInfo@@@std@@@3@$0A@@std@@@std@@SAAAPAU_Node@?$_Tree_nod@V?$_Tmap_traits@HUtagPetAddStatInfo@@U?$less@H@std@@V?$allocator@U?$pair@$$CBHUtagPetAddStatInfo@@@std@@@3@$0A@@std@@@2@PAU342@@Z PROC ; std::_Tree_val<std::_Tmap_traits<int,tagPetAddStatInfo,std::less<int>,std::allocator<std::pair<int const ,tagPetAddStatInfo> >,0> >::_Parent, COMDAT

; 626  : 		{	// return reference to parent pointer in node

  00000	55		 push	 ebp
  00001	8b ec		 mov	 ebp, esp

; 627  : 		return ((_Nodepref)(*_Pnode)._Parent);

  00003	8b 45 08	 mov	 eax, DWORD PTR __Pnode$[ebp]
  00006	83 c0 04	 add	 eax, 4

; 628  : 		}

  00009	5d		 pop	 ebp
  0000a	c3		 ret	 0
?_Parent@?$_Tree_val@V?$_Tmap_traits@HUtagPetAddStatInfo@@U?$less@H@std@@V?$allocator@U?$pair@$$CBHUtagPetAddStatInfo@@@std@@@3@$0A@@std@@@std@@SAAAPAU_Node@?$_Tree_nod@V?$_Tmap_traits@HUtagPetAddStatInfo@@U?$less@H@std@@V?$allocator@U?$pair@$$CBHUtagPetAddStatInfo@@@std@@@3@$0A@@std@@@2@PAU342@@Z ENDP ; std::_Tree_val<std::_Tmap_traits<int,tagPetAddStatInfo,std::less<int>,std::allocator<std::pair<int const ,tagPetAddStatInfo> >,0> >::_Parent
_TEXT	ENDS
PUBLIC	?_Right@?$_Tree_val@V?$_Tmap_traits@HUtagPetAddStatInfo@@U?$less@H@std@@V?$allocator@U?$pair@$$CBHUtagPetAddStatInfo@@@std@@@3@$0A@@std@@@std@@SAAAPAU_Node@?$_Tree_nod@V?$_Tmap_traits@HUtagPetAddStatInfo@@U?$less@H@std@@V?$allocator@U?$pair@$$CBHUtagPetAddStatInfo@@@std@@@3@$0A@@std@@@2@PAU342@@Z ; std::_Tree_val<std::_Tmap_traits<int,tagPetAddStatInfo,std::less<int>,std::allocator<std::pair<int const ,tagPetAddStatInfo> >,0> >::_Right
; Function compile flags: /Ogsp
;	COMDAT ?_Right@?$_Tree_val@V?$_Tmap_traits@HUtagPetAddStatInfo@@U?$less@H@std@@V?$allocator@U?$pair@$$CBHUtagPetAddStatInfo@@@std@@@3@$0A@@std@@@std@@SAAAPAU_Node@?$_Tree_nod@V?$_Tmap_traits@HUtagPetAddStatInfo@@U?$less@H@std@@V?$allocator@U?$pair@$$CBHUtagPetAddStatInfo@@@std@@@3@$0A@@std@@@2@PAU342@@Z
_TEXT	SEGMENT
__Pnode$ = 8						; size = 4
?_Right@?$_Tree_val@V?$_Tmap_traits@HUtagPetAddStatInfo@@U?$less@H@std@@V?$allocator@U?$pair@$$CBHUtagPetAddStatInfo@@@std@@@3@$0A@@std@@@std@@SAAAPAU_Node@?$_Tree_nod@V?$_Tmap_traits@HUtagPetAddStatInfo@@U?$less@H@std@@V?$allocator@U?$pair@$$CBHUtagPetAddStatInfo@@@std@@@3@$0A@@std@@@2@PAU342@@Z PROC ; std::_Tree_val<std::_Tmap_traits<int,tagPetAddStatInfo,std::less<int>,std::allocator<std::pair<int const ,tagPetAddStatInfo> >,0> >::_Right, COMDAT

; 631  : 		{	// return reference to right pointer in node

  00000	55		 push	 ebp
  00001	8b ec		 mov	 ebp, esp

; 632  : 		return ((_Nodepref)(*_Pnode)._Right);

  00003	8b 45 08	 mov	 eax, DWORD PTR __Pnode$[ebp]
  00006	83 c0 08	 add	 eax, 8

; 633  : 		}

  00009	5d		 pop	 ebp
  0000a	c3		 ret	 0
?_Right@?$_Tree_val@V?$_Tmap_traits@HUtagPetAddStatInfo@@U?$less@H@std@@V?$allocator@U?$pair@$$CBHUtagPetAddStatInfo@@@std@@@3@$0A@@std@@@std@@SAAAPAU_Node@?$_Tree_nod@V?$_Tmap_traits@HUtagPetAddStatInfo@@U?$less@H@std@@V?$allocator@U?$pair@$$CBHUtagPetAddStatInfo@@@std@@@3@$0A@@std@@@2@PAU342@@Z ENDP ; std::_Tree_val<std::_Tmap_traits<int,tagPetAddStatInfo,std::less<int>,std::allocator<std::pair<int const ,tagPetAddStatInfo> >,0> >::_Right
_TEXT	ENDS
PUBLIC	?_Myval@?$_Tree_val@V?$_Tmap_traits@HUtagPetAddStatInfo@@U?$less@H@std@@V?$allocator@U?$pair@$$CBHUtagPetAddStatInfo@@@std@@@3@$0A@@std@@@std@@SAAAU?$pair@$$CBHUtagPetAddStatInfo@@@2@PAU_Node@?$_Tree_nod@V?$_Tmap_traits@HUtagPetAddStatInfo@@U?$less@H@std@@V?$allocator@U?$pair@$$CBHUtagPetAddStatInfo@@@std@@@3@$0A@@std@@@2@@Z ; std::_Tree_val<std::_Tmap_traits<int,tagPetAddStatInfo,std::less<int>,std::allocator<std::pair<int const ,tagPetAddStatInfo> >,0> >::_Myval
; Function compile flags: /Ogsp
;	COMDAT ?_Myval@?$_Tree_val@V?$_Tmap_traits@HUtagPetAddStatInfo@@U?$less@H@std@@V?$allocator@U?$pair@$$CBHUtagPetAddStatInfo@@@std@@@3@$0A@@std@@@std@@SAAAU?$pair@$$CBHUtagPetAddStatInfo@@@2@PAU_Node@?$_Tree_nod@V?$_Tmap_traits@HUtagPetAddStatInfo@@U?$less@H@std@@V?$allocator@U?$pair@$$CBHUtagPetAddStatInfo@@@std@@@3@$0A@@std@@@2@@Z
_TEXT	SEGMENT
__Pnode$ = 8						; size = 4
?_Myval@?$_Tree_val@V?$_Tmap_traits@HUtagPetAddStatInfo@@U?$less@H@std@@V?$allocator@U?$pair@$$CBHUtagPetAddStatInfo@@@std@@@3@$0A@@std@@@std@@SAAAU?$pair@$$CBHUtagPetAddStatInfo@@@2@PAU_Node@?$_Tree_nod@V?$_Tmap_traits@HUtagPetAddStatInfo@@U?$less@H@std@@V?$allocator@U?$pair@$$CBHUtagPetAddStatInfo@@@std@@@3@$0A@@std@@@2@@Z PROC ; std::_Tree_val<std::_Tmap_traits<int,tagPetAddStatInfo,std::less<int>,std::allocator<std::pair<int const ,tagPetAddStatInfo> >,0> >::_Myval, COMDAT

; 636  : 		{	// return reference to value in node

  00000	55		 push	 ebp
  00001	8b ec		 mov	 ebp, esp

; 637  : 		return ((reference)(*_Pnode)._Myval);

  00003	8b 45 08	 mov	 eax, DWORD PTR __Pnode$[ebp]
  00006	83 c0 0c	 add	 eax, 12			; 0000000cH

; 638  : 		}

  00009	5d		 pop	 ebp
  0000a	c3		 ret	 0
?_Myval@?$_Tree_val@V?$_Tmap_traits@HUtagPetAddStatInfo@@U?$less@H@std@@V?$allocator@U?$pair@$$CBHUtagPetAddStatInfo@@@std@@@3@$0A@@std@@@std@@SAAAU?$pair@$$CBHUtagPetAddStatInfo@@@2@PAU_Node@?$_Tree_nod@V?$_Tmap_traits@HUtagPetAddStatInfo@@U?$less@H@std@@V?$allocator@U?$pair@$$CBHUtagPetAddStatInfo@@@std@@@3@$0A@@std@@@2@@Z ENDP ; std::_Tree_val<std::_Tmap_traits<int,tagPetAddStatInfo,std::less<int>,std::allocator<std::pair<int const ,tagPetAddStatInfo> >,0> >::_Myval
_TEXT	ENDS
PUBLIC	??0?$allocator@U?$pair@$$CBHUtagPetAddStatInfo@@@std@@@std@@QAE@ABV01@@Z ; std::allocator<std::pair<int const ,tagPetAddStatInfo> >::allocator<std::pair<int const ,tagPetAddStatInfo> >
; Function compile flags: /Ogsp
; File c:\program files (x86)\microsoft visual studio 10.0\vc\include\xmemory
;	COMDAT ??0?$allocator@U?$pair@$$CBHUtagPetAddStatInfo@@@std@@@std@@QAE@ABV01@@Z
_TEXT	SEGMENT
___formal$ = 8						; size = 4
??0?$allocator@U?$pair@$$CBHUtagPetAddStatInfo@@@std@@@std@@QAE@ABV01@@Z PROC ; std::allocator<std::pair<int const ,tagPetAddStatInfo> >::allocator<std::pair<int const ,tagPetAddStatInfo> >, COMDAT
; _this$ = ecx

; 165  : 	_ALLOCATOR(const _ALLOCATOR<_Ty>&) _THROW0()

  00000	8b c1		 mov	 eax, ecx

; 166  : 		{	// construct by copying (do nothing)
; 167  : 		}

  00002	c2 04 00	 ret	 4
??0?$allocator@U?$pair@$$CBHUtagPetAddStatInfo@@@std@@@std@@QAE@ABV01@@Z ENDP ; std::allocator<std::pair<int const ,tagPetAddStatInfo> >::allocator<std::pair<int const ,tagPetAddStatInfo> >
_TEXT	ENDS
PUBLIC	?deallocate@?$allocator@U_Node@?$_Tree_nod@V?$_Tmap_traits@HUtagPetAddStatInfo@@U?$less@H@std@@V?$allocator@U?$pair@$$CBHUtagPetAddStatInfo@@@std@@@3@$0A@@std@@@std@@@std@@QAEXPAU_Node@?$_Tree_nod@V?$_Tmap_traits@HUtagPetAddStatInfo@@U?$less@H@std@@V?$allocator@U?$pair@$$CBHUtagPetAddStatInfo@@@std@@@3@$0A@@std@@@2@I@Z ; std::allocator<std::_Tree_nod<std::_Tmap_traits<int,tagPetAddStatInfo,std::less<int>,std::allocator<std::pair<int const ,tagPetAddStatInfo> >,0> >::_Node>::deallocate
; Function compile flags: /Ogsp
;	COMDAT ?deallocate@?$allocator@U_Node@?$_Tree_nod@V?$_Tmap_traits@HUtagPetAddStatInfo@@U?$less@H@std@@V?$allocator@U?$pair@$$CBHUtagPetAddStatInfo@@@std@@@3@$0A@@std@@@std@@@std@@QAEXPAU_Node@?$_Tree_nod@V?$_Tmap_traits@HUtagPetAddStatInfo@@U?$less@H@std@@V?$allocator@U?$pair@$$CBHUtagPetAddStatInfo@@@std@@@3@$0A@@std@@@2@I@Z
_TEXT	SEGMENT
__Ptr$ = 8						; size = 4
___formal$ = 12						; size = 4
?deallocate@?$allocator@U_Node@?$_Tree_nod@V?$_Tmap_traits@HUtagPetAddStatInfo@@U?$less@H@std@@V?$allocator@U?$pair@$$CBHUtagPetAddStatInfo@@@std@@@3@$0A@@std@@@std@@@std@@QAEXPAU_Node@?$_Tree_nod@V?$_Tmap_traits@HUtagPetAddStatInfo@@U?$less@H@std@@V?$allocator@U?$pair@$$CBHUtagPetAddStatInfo@@@std@@@3@$0A@@std@@@2@I@Z PROC ; std::allocator<std::_Tree_nod<std::_Tmap_traits<int,tagPetAddStatInfo,std::less<int>,std::allocator<std::pair<int const ,tagPetAddStatInfo> >,0> >::_Node>::deallocate, COMDAT
; _this$ = ecx

; 181  : 		{	// deallocate object at _Ptr, ignore size

  00000	55		 push	 ebp
  00001	8b ec		 mov	 ebp, esp

; 182  : 		::operator delete(_Ptr);

  00003	ff 75 08	 push	 DWORD PTR __Ptr$[ebp]
  00006	e8 00 00 00 00	 call	 ??3@YAXPAX@Z		; operator delete
  0000b	59		 pop	 ecx

; 183  : 		}

  0000c	5d		 pop	 ebp
  0000d	c2 08 00	 ret	 8
?deallocate@?$allocator@U_Node@?$_Tree_nod@V?$_Tmap_traits@HUtagPetAddStatInfo@@U?$less@H@std@@V?$allocator@U?$pair@$$CBHUtagPetAddStatInfo@@@std@@@3@$0A@@std@@@std@@@std@@QAEXPAU_Node@?$_Tree_nod@V?$_Tmap_traits@HUtagPetAddStatInfo@@U?$less@H@std@@V?$allocator@U?$pair@$$CBHUtagPetAddStatInfo@@@std@@@3@$0A@@std@@@2@I@Z ENDP ; std::allocator<std::_Tree_nod<std::_Tmap_traits<int,tagPetAddStatInfo,std::less<int>,std::allocator<std::pair<int const ,tagPetAddStatInfo> >,0> >::_Node>::deallocate
_TEXT	ENDS
PUBLIC	?_Isnil@?$_Tree_val@V?$_Tmap_traits@HUtagPetStatBaseInfo@@U?$less@H@std@@V?$allocator@U?$pair@$$CBHUtagPetStatBaseInfo@@@std@@@3@$0A@@std@@@std@@SAAADPAU_Node@?$_Tree_nod@V?$_Tmap_traits@HUtagPetStatBaseInfo@@U?$less@H@std@@V?$allocator@U?$pair@$$CBHUtagPetStatBaseInfo@@@std@@@3@$0A@@std@@@2@@Z ; std::_Tree_val<std::_Tmap_traits<int,tagPetStatBaseInfo,std::less<int>,std::allocator<std::pair<int const ,tagPetStatBaseInfo> >,0> >::_Isnil
; Function compile flags: /Ogsp
; File c:\program files (x86)\microsoft visual studio 10.0\vc\include\xtree
;	COMDAT ?_Isnil@?$_Tree_val@V?$_Tmap_traits@HUtagPetStatBaseInfo@@U?$less@H@std@@V?$allocator@U?$pair@$$CBHUtagPetStatBaseInfo@@@std@@@3@$0A@@std@@@std@@SAAADPAU_Node@?$_Tree_nod@V?$_Tmap_traits@HUtagPetStatBaseInfo@@U?$less@H@std@@V?$allocator@U?$pair@$$CBHUtagPetStatBaseInfo@@@std@@@3@$0A@@std@@@2@@Z
_TEXT	SEGMENT
__Pnode$ = 8						; size = 4
?_Isnil@?$_Tree_val@V?$_Tmap_traits@HUtagPetStatBaseInfo@@U?$less@H@std@@V?$allocator@U?$pair@$$CBHUtagPetStatBaseInfo@@@std@@@3@$0A@@std@@@std@@SAAADPAU_Node@?$_Tree_nod@V?$_Tmap_traits@HUtagPetStatBaseInfo@@U?$less@H@std@@V?$allocator@U?$pair@$$CBHUtagPetStatBaseInfo@@@std@@@3@$0A@@std@@@2@@Z PROC ; std::_Tree_val<std::_Tmap_traits<int,tagPetStatBaseInfo,std::less<int>,std::allocator<std::pair<int const ,tagPetStatBaseInfo> >,0> >::_Isnil, COMDAT

; 611  : 		{	// return reference to nil flag in node

  00000	55		 push	 ebp
  00001	8b ec		 mov	 ebp, esp

; 612  : 		return ((char&)(*_Pnode)._Isnil);

  00003	8b 45 08	 mov	 eax, DWORD PTR __Pnode$[ebp]
  00006	83 c0 51	 add	 eax, 81			; 00000051H

; 613  : 		}

  00009	5d		 pop	 ebp
  0000a	c3		 ret	 0
?_Isnil@?$_Tree_val@V?$_Tmap_traits@HUtagPetStatBaseInfo@@U?$less@H@std@@V?$allocator@U?$pair@$$CBHUtagPetStatBaseInfo@@@std@@@3@$0A@@std@@@std@@SAAADPAU_Node@?$_Tree_nod@V?$_Tmap_traits@HUtagPetStatBaseInfo@@U?$less@H@std@@V?$allocator@U?$pair@$$CBHUtagPetStatBaseInfo@@@std@@@3@$0A@@std@@@2@@Z ENDP ; std::_Tree_val<std::_Tmap_traits<int,tagPetStatBaseInfo,std::less<int>,std::allocator<std::pair<int const ,tagPetStatBaseInfo> >,0> >::_Isnil
_TEXT	ENDS
PUBLIC	?_Left@?$_Tree_val@V?$_Tmap_traits@HUtagPetStatBaseInfo@@U?$less@H@std@@V?$allocator@U?$pair@$$CBHUtagPetStatBaseInfo@@@std@@@3@$0A@@std@@@std@@SAAAPAU_Node@?$_Tree_nod@V?$_Tmap_traits@HUtagPetStatBaseInfo@@U?$less@H@std@@V?$allocator@U?$pair@$$CBHUtagPetStatBaseInfo@@@std@@@3@$0A@@std@@@2@PAU342@@Z ; std::_Tree_val<std::_Tmap_traits<int,tagPetStatBaseInfo,std::less<int>,std::allocator<std::pair<int const ,tagPetStatBaseInfo> >,0> >::_Left
; Function compile flags: /Ogsp
;	COMDAT ?_Left@?$_Tree_val@V?$_Tmap_traits@HUtagPetStatBaseInfo@@U?$less@H@std@@V?$allocator@U?$pair@$$CBHUtagPetStatBaseInfo@@@std@@@3@$0A@@std@@@std@@SAAAPAU_Node@?$_Tree_nod@V?$_Tmap_traits@HUtagPetStatBaseInfo@@U?$less@H@std@@V?$allocator@U?$pair@$$CBHUtagPetStatBaseInfo@@@std@@@3@$0A@@std@@@2@PAU342@@Z
_TEXT	SEGMENT
__Pnode$ = 8						; size = 4
?_Left@?$_Tree_val@V?$_Tmap_traits@HUtagPetStatBaseInfo@@U?$less@H@std@@V?$allocator@U?$pair@$$CBHUtagPetStatBaseInfo@@@std@@@3@$0A@@std@@@std@@SAAAPAU_Node@?$_Tree_nod@V?$_Tmap_traits@HUtagPetStatBaseInfo@@U?$less@H@std@@V?$allocator@U?$pair@$$CBHUtagPetStatBaseInfo@@@std@@@3@$0A@@std@@@2@PAU342@@Z PROC ; std::_Tree_val<std::_Tmap_traits<int,tagPetStatBaseInfo,std::less<int>,std::allocator<std::pair<int const ,tagPetStatBaseInfo> >,0> >::_Left, COMDAT

; 621  : 		{	// return reference to left pointer in node

  00000	55		 push	 ebp
  00001	8b ec		 mov	 ebp, esp

; 622  : 		return ((_Nodepref)(*_Pnode)._Left);

  00003	8b 45 08	 mov	 eax, DWORD PTR __Pnode$[ebp]

; 623  : 		}

  00006	5d		 pop	 ebp
  00007	c3		 ret	 0
?_Left@?$_Tree_val@V?$_Tmap_traits@HUtagPetStatBaseInfo@@U?$less@H@std@@V?$allocator@U?$pair@$$CBHUtagPetStatBaseInfo@@@std@@@3@$0A@@std@@@std@@SAAAPAU_Node@?$_Tree_nod@V?$_Tmap_traits@HUtagPetStatBaseInfo@@U?$less@H@std@@V?$allocator@U?$pair@$$CBHUtagPetStatBaseInfo@@@std@@@3@$0A@@std@@@2@PAU342@@Z ENDP ; std::_Tree_val<std::_Tmap_traits<int,tagPetStatBaseInfo,std::less<int>,std::allocator<std::pair<int const ,tagPetStatBaseInfo> >,0> >::_Left
_TEXT	ENDS
PUBLIC	?_Parent@?$_Tree_val@V?$_Tmap_traits@HUtagPetStatBaseInfo@@U?$less@H@std@@V?$allocator@U?$pair@$$CBHUtagPetStatBaseInfo@@@std@@@3@$0A@@std@@@std@@SAAAPAU_Node@?$_Tree_nod@V?$_Tmap_traits@HUtagPetStatBaseInfo@@U?$less@H@std@@V?$allocator@U?$pair@$$CBHUtagPetStatBaseInfo@@@std@@@3@$0A@@std@@@2@PAU342@@Z ; std::_Tree_val<std::_Tmap_traits<int,tagPetStatBaseInfo,std::less<int>,std::allocator<std::pair<int const ,tagPetStatBaseInfo> >,0> >::_Parent
; Function compile flags: /Ogsp
;	COMDAT ?_Parent@?$_Tree_val@V?$_Tmap_traits@HUtagPetStatBaseInfo@@U?$less@H@std@@V?$allocator@U?$pair@$$CBHUtagPetStatBaseInfo@@@std@@@3@$0A@@std@@@std@@SAAAPAU_Node@?$_Tree_nod@V?$_Tmap_traits@HUtagPetStatBaseInfo@@U?$less@H@std@@V?$allocator@U?$pair@$$CBHUtagPetStatBaseInfo@@@std@@@3@$0A@@std@@@2@PAU342@@Z
_TEXT	SEGMENT
__Pnode$ = 8						; size = 4
?_Parent@?$_Tree_val@V?$_Tmap_traits@HUtagPetStatBaseInfo@@U?$less@H@std@@V?$allocator@U?$pair@$$CBHUtagPetStatBaseInfo@@@std@@@3@$0A@@std@@@std@@SAAAPAU_Node@?$_Tree_nod@V?$_Tmap_traits@HUtagPetStatBaseInfo@@U?$less@H@std@@V?$allocator@U?$pair@$$CBHUtagPetStatBaseInfo@@@std@@@3@$0A@@std@@@2@PAU342@@Z PROC ; std::_Tree_val<std::_Tmap_traits<int,tagPetStatBaseInfo,std::less<int>,std::allocator<std::pair<int const ,tagPetStatBaseInfo> >,0> >::_Parent, COMDAT

; 626  : 		{	// return reference to parent pointer in node

  00000	55		 push	 ebp
  00001	8b ec		 mov	 ebp, esp

; 627  : 		return ((_Nodepref)(*_Pnode)._Parent);

  00003	8b 45 08	 mov	 eax, DWORD PTR __Pnode$[ebp]
  00006	83 c0 04	 add	 eax, 4

; 628  : 		}

  00009	5d		 pop	 ebp
  0000a	c3		 ret	 0
?_Parent@?$_Tree_val@V?$_Tmap_traits@HUtagPetStatBaseInfo@@U?$less@H@std@@V?$allocator@U?$pair@$$CBHUtagPetStatBaseInfo@@@std@@@3@$0A@@std@@@std@@SAAAPAU_Node@?$_Tree_nod@V?$_Tmap_traits@HUtagPetStatBaseInfo@@U?$less@H@std@@V?$allocator@U?$pair@$$CBHUtagPetStatBaseInfo@@@std@@@3@$0A@@std@@@2@PAU342@@Z ENDP ; std::_Tree_val<std::_Tmap_traits<int,tagPetStatBaseInfo,std::less<int>,std::allocator<std::pair<int const ,tagPetStatBaseInfo> >,0> >::_Parent
_TEXT	ENDS
PUBLIC	?_Right@?$_Tree_val@V?$_Tmap_traits@HUtagPetStatBaseInfo@@U?$less@H@std@@V?$allocator@U?$pair@$$CBHUtagPetStatBaseInfo@@@std@@@3@$0A@@std@@@std@@SAAAPAU_Node@?$_Tree_nod@V?$_Tmap_traits@HUtagPetStatBaseInfo@@U?$less@H@std@@V?$allocator@U?$pair@$$CBHUtagPetStatBaseInfo@@@std@@@3@$0A@@std@@@2@PAU342@@Z ; std::_Tree_val<std::_Tmap_traits<int,tagPetStatBaseInfo,std::less<int>,std::allocator<std::pair<int const ,tagPetStatBaseInfo> >,0> >::_Right
; Function compile flags: /Ogsp
;	COMDAT ?_Right@?$_Tree_val@V?$_Tmap_traits@HUtagPetStatBaseInfo@@U?$less@H@std@@V?$allocator@U?$pair@$$CBHUtagPetStatBaseInfo@@@std@@@3@$0A@@std@@@std@@SAAAPAU_Node@?$_Tree_nod@V?$_Tmap_traits@HUtagPetStatBaseInfo@@U?$less@H@std@@V?$allocator@U?$pair@$$CBHUtagPetStatBaseInfo@@@std@@@3@$0A@@std@@@2@PAU342@@Z
_TEXT	SEGMENT
__Pnode$ = 8						; size = 4
?_Right@?$_Tree_val@V?$_Tmap_traits@HUtagPetStatBaseInfo@@U?$less@H@std@@V?$allocator@U?$pair@$$CBHUtagPetStatBaseInfo@@@std@@@3@$0A@@std@@@std@@SAAAPAU_Node@?$_Tree_nod@V?$_Tmap_traits@HUtagPetStatBaseInfo@@U?$less@H@std@@V?$allocator@U?$pair@$$CBHUtagPetStatBaseInfo@@@std@@@3@$0A@@std@@@2@PAU342@@Z PROC ; std::_Tree_val<std::_Tmap_traits<int,tagPetStatBaseInfo,std::less<int>,std::allocator<std::pair<int const ,tagPetStatBaseInfo> >,0> >::_Right, COMDAT

; 631  : 		{	// return reference to right pointer in node

  00000	55		 push	 ebp
  00001	8b ec		 mov	 ebp, esp

; 632  : 		return ((_Nodepref)(*_Pnode)._Right);

  00003	8b 45 08	 mov	 eax, DWORD PTR __Pnode$[ebp]
  00006	83 c0 08	 add	 eax, 8

; 633  : 		}

  00009	5d		 pop	 ebp
  0000a	c3		 ret	 0
?_Right@?$_Tree_val@V?$_Tmap_traits@HUtagPetStatBaseInfo@@U?$less@H@std@@V?$allocator@U?$pair@$$CBHUtagPetStatBaseInfo@@@std@@@3@$0A@@std@@@std@@SAAAPAU_Node@?$_Tree_nod@V?$_Tmap_traits@HUtagPetStatBaseInfo@@U?$less@H@std@@V?$allocator@U?$pair@$$CBHUtagPetStatBaseInfo@@@std@@@3@$0A@@std@@@2@PAU342@@Z ENDP ; std::_Tree_val<std::_Tmap_traits<int,tagPetStatBaseInfo,std::less<int>,std::allocator<std::pair<int const ,tagPetStatBaseInfo> >,0> >::_Right
_TEXT	ENDS
PUBLIC	?_Myval@?$_Tree_val@V?$_Tmap_traits@HUtagPetStatBaseInfo@@U?$less@H@std@@V?$allocator@U?$pair@$$CBHUtagPetStatBaseInfo@@@std@@@3@$0A@@std@@@std@@SAAAU?$pair@$$CBHUtagPetStatBaseInfo@@@2@PAU_Node@?$_Tree_nod@V?$_Tmap_traits@HUtagPetStatBaseInfo@@U?$less@H@std@@V?$allocator@U?$pair@$$CBHUtagPetStatBaseInfo@@@std@@@3@$0A@@std@@@2@@Z ; std::_Tree_val<std::_Tmap_traits<int,tagPetStatBaseInfo,std::less<int>,std::allocator<std::pair<int const ,tagPetStatBaseInfo> >,0> >::_Myval
; Function compile flags: /Ogsp
;	COMDAT ?_Myval@?$_Tree_val@V?$_Tmap_traits@HUtagPetStatBaseInfo@@U?$less@H@std@@V?$allocator@U?$pair@$$CBHUtagPetStatBaseInfo@@@std@@@3@$0A@@std@@@std@@SAAAU?$pair@$$CBHUtagPetStatBaseInfo@@@2@PAU_Node@?$_Tree_nod@V?$_Tmap_traits@HUtagPetStatBaseInfo@@U?$less@H@std@@V?$allocator@U?$pair@$$CBHUtagPetStatBaseInfo@@@std@@@3@$0A@@std@@@2@@Z
_TEXT	SEGMENT
__Pnode$ = 8						; size = 4
?_Myval@?$_Tree_val@V?$_Tmap_traits@HUtagPetStatBaseInfo@@U?$less@H@std@@V?$allocator@U?$pair@$$CBHUtagPetStatBaseInfo@@@std@@@3@$0A@@std@@@std@@SAAAU?$pair@$$CBHUtagPetStatBaseInfo@@@2@PAU_Node@?$_Tree_nod@V?$_Tmap_traits@HUtagPetStatBaseInfo@@U?$less@H@std@@V?$allocator@U?$pair@$$CBHUtagPetStatBaseInfo@@@std@@@3@$0A@@std@@@2@@Z PROC ; std::_Tree_val<std::_Tmap_traits<int,tagPetStatBaseInfo,std::less<int>,std::allocator<std::pair<int const ,tagPetStatBaseInfo> >,0> >::_Myval, COMDAT

; 636  : 		{	// return reference to value in node

  00000	55		 push	 ebp
  00001	8b ec		 mov	 ebp, esp

; 637  : 		return ((reference)(*_Pnode)._Myval);

  00003	8b 45 08	 mov	 eax, DWORD PTR __Pnode$[ebp]
  00006	83 c0 0c	 add	 eax, 12			; 0000000cH

; 638  : 		}

  00009	5d		 pop	 ebp
  0000a	c3		 ret	 0
?_Myval@?$_Tree_val@V?$_Tmap_traits@HUtagPetStatBaseInfo@@U?$less@H@std@@V?$allocator@U?$pair@$$CBHUtagPetStatBaseInfo@@@std@@@3@$0A@@std@@@std@@SAAAU?$pair@$$CBHUtagPetStatBaseInfo@@@2@PAU_Node@?$_Tree_nod@V?$_Tmap_traits@HUtagPetStatBaseInfo@@U?$less@H@std@@V?$allocator@U?$pair@$$CBHUtagPetStatBaseInfo@@@std@@@3@$0A@@std@@@2@@Z ENDP ; std::_Tree_val<std::_Tmap_traits<int,tagPetStatBaseInfo,std::less<int>,std::allocator<std::pair<int const ,tagPetStatBaseInfo> >,0> >::_Myval
_TEXT	ENDS
PUBLIC	??0?$allocator@U?$pair@$$CBHUtagPetStatBaseInfo@@@std@@@std@@QAE@ABV01@@Z ; std::allocator<std::pair<int const ,tagPetStatBaseInfo> >::allocator<std::pair<int const ,tagPetStatBaseInfo> >
; Function compile flags: /Ogsp
; File c:\program files (x86)\microsoft visual studio 10.0\vc\include\xmemory
;	COMDAT ??0?$allocator@U?$pair@$$CBHUtagPetStatBaseInfo@@@std@@@std@@QAE@ABV01@@Z
_TEXT	SEGMENT
___formal$ = 8						; size = 4
??0?$allocator@U?$pair@$$CBHUtagPetStatBaseInfo@@@std@@@std@@QAE@ABV01@@Z PROC ; std::allocator<std::pair<int const ,tagPetStatBaseInfo> >::allocator<std::pair<int const ,tagPetStatBaseInfo> >, COMDAT
; _this$ = ecx

; 165  : 	_ALLOCATOR(const _ALLOCATOR<_Ty>&) _THROW0()

  00000	8b c1		 mov	 eax, ecx

; 166  : 		{	// construct by copying (do nothing)
; 167  : 		}

  00002	c2 04 00	 ret	 4
??0?$allocator@U?$pair@$$CBHUtagPetStatBaseInfo@@@std@@@std@@QAE@ABV01@@Z ENDP ; std::allocator<std::pair<int const ,tagPetStatBaseInfo> >::allocator<std::pair<int const ,tagPetStatBaseInfo> >
_TEXT	ENDS
PUBLIC	?deallocate@?$allocator@U_Node@?$_Tree_nod@V?$_Tmap_traits@HUtagPetStatBaseInfo@@U?$less@H@std@@V?$allocator@U?$pair@$$CBHUtagPetStatBaseInfo@@@std@@@3@$0A@@std@@@std@@@std@@QAEXPAU_Node@?$_Tree_nod@V?$_Tmap_traits@HUtagPetStatBaseInfo@@U?$less@H@std@@V?$allocator@U?$pair@$$CBHUtagPetStatBaseInfo@@@std@@@3@$0A@@std@@@2@I@Z ; std::allocator<std::_Tree_nod<std::_Tmap_traits<int,tagPetStatBaseInfo,std::less<int>,std::allocator<std::pair<int const ,tagPetStatBaseInfo> >,0> >::_Node>::deallocate
; Function compile flags: /Ogsp
;	COMDAT ?deallocate@?$allocator@U_Node@?$_Tree_nod@V?$_Tmap_traits@HUtagPetStatBaseInfo@@U?$less@H@std@@V?$allocator@U?$pair@$$CBHUtagPetStatBaseInfo@@@std@@@3@$0A@@std@@@std@@@std@@QAEXPAU_Node@?$_Tree_nod@V?$_Tmap_traits@HUtagPetStatBaseInfo@@U?$less@H@std@@V?$allocator@U?$pair@$$CBHUtagPetStatBaseInfo@@@std@@@3@$0A@@std@@@2@I@Z
_TEXT	SEGMENT
__Ptr$ = 8						; size = 4
___formal$ = 12						; size = 4
?deallocate@?$allocator@U_Node@?$_Tree_nod@V?$_Tmap_traits@HUtagPetStatBaseInfo@@U?$less@H@std@@V?$allocator@U?$pair@$$CBHUtagPetStatBaseInfo@@@std@@@3@$0A@@std@@@std@@@std@@QAEXPAU_Node@?$_Tree_nod@V?$_Tmap_traits@HUtagPetStatBaseInfo@@U?$less@H@std@@V?$allocator@U?$pair@$$CBHUtagPetStatBaseInfo@@@std@@@3@$0A@@std@@@2@I@Z PROC ; std::allocator<std::_Tree_nod<std::_Tmap_traits<int,tagPetStatBaseInfo,std::less<int>,std::allocator<std::pair<int const ,tagPetStatBaseInfo> >,0> >::_Node>::deallocate, COMDAT
; _this$ = ecx

; 181  : 		{	// deallocate object at _Ptr, ignore size

  00000	55		 push	 ebp
  00001	8b ec		 mov	 ebp, esp

; 182  : 		::operator delete(_Ptr);

  00003	ff 75 08	 push	 DWORD PTR __Ptr$[ebp]
  00006	e8 00 00 00 00	 call	 ??3@YAXPAX@Z		; operator delete
  0000b	59		 pop	 ecx

; 183  : 		}

  0000c	5d		 pop	 ebp
  0000d	c2 08 00	 ret	 8
?deallocate@?$allocator@U_Node@?$_Tree_nod@V?$_Tmap_traits@HUtagPetStatBaseInfo@@U?$less@H@std@@V?$allocator@U?$pair@$$CBHUtagPetStatBaseInfo@@@std@@@3@$0A@@std@@@std@@@std@@QAEXPAU_Node@?$_Tree_nod@V?$_Tmap_traits@HUtagPetStatBaseInfo@@U?$less@H@std@@V?$allocator@U?$pair@$$CBHUtagPetStatBaseInfo@@@std@@@3@$0A@@std@@@2@I@Z ENDP ; std::allocator<std::_Tree_nod<std::_Tmap_traits<int,tagPetStatBaseInfo,std::less<int>,std::allocator<std::pair<int const ,tagPetStatBaseInfo> >,0> >::_Node>::deallocate
_TEXT	ENDS
PUBLIC	??D?$_Tree_const_iterator@V?$_Tree_val@V?$_Tmap_traits@HUtagPetStatBaseInfo@@U?$less@H@std@@V?$allocator@U?$pair@$$CBHUtagPetStatBaseInfo@@@std@@@3@$0A@@std@@@std@@@std@@QBEABU?$pair@$$CBHUtagPetStatBaseInfo@@@1@XZ ; std::_Tree_const_iterator<std::_Tree_val<std::_Tmap_traits<int,tagPetStatBaseInfo,std::less<int>,std::allocator<std::pair<int const ,tagPetStatBaseInfo> >,0> > >::operator*
; Function compile flags: /Ogsp
; File c:\program files (x86)\microsoft visual studio 10.0\vc\include\xtree
;	COMDAT ??D?$_Tree_const_iterator@V?$_Tree_val@V?$_Tmap_traits@HUtagPetStatBaseInfo@@U?$less@H@std@@V?$allocator@U?$pair@$$CBHUtagPetStatBaseInfo@@@std@@@3@$0A@@std@@@std@@@std@@QBEABU?$pair@$$CBHUtagPetStatBaseInfo@@@1@XZ
_TEXT	SEGMENT
??D?$_Tree_const_iterator@V?$_Tree_val@V?$_Tmap_traits@HUtagPetStatBaseInfo@@U?$less@H@std@@V?$allocator@U?$pair@$$CBHUtagPetStatBaseInfo@@@std@@@3@$0A@@std@@@std@@@std@@QBEABU?$pair@$$CBHUtagPetStatBaseInfo@@@1@XZ PROC ; std::_Tree_const_iterator<std::_Tree_val<std::_Tmap_traits<int,tagPetStatBaseInfo,std::less<int>,std::allocator<std::pair<int const ,tagPetStatBaseInfo> >,0> > >::operator*, COMDAT
; _this$ = ecx

; 231  :  #if _ITERATOR_DEBUG_LEVEL == 2
; 232  : 		if (this->_Getcont() == 0
; 233  : 			|| this->_Ptr == 0
; 234  : 			|| this->_Ptr == ((_Mytree *)this->_Getcont())->_Myhead)
; 235  : 			{	// report error
; 236  : 			_DEBUG_ERROR("map/set iterator not dereferencable");
; 237  : 			_SCL_SECURE_OUT_OF_RANGE;
; 238  : 			}
; 239  : 
; 240  :  #elif _ITERATOR_DEBUG_LEVEL == 1
; 241  : 		_SCL_SECURE_VALIDATE(this->_Getcont() != 0 && this->_Ptr != 0);
; 242  : 		_SCL_SECURE_VALIDATE_RANGE(this->_Ptr !=
; 243  : 			((_Mytree *)this->_Getcont())->_Myhead);
; 244  :  #endif /* _ITERATOR_DEBUG_LEVEL */
; 245  : 
; 246  : 		return (_Mytree::_Myval(this->_Ptr));

  00000	8b 01		 mov	 eax, DWORD PTR [ecx]
  00002	83 c0 0c	 add	 eax, 12			; 0000000cH

; 247  : 		}

  00005	c3		 ret	 0
??D?$_Tree_const_iterator@V?$_Tree_val@V?$_Tmap_traits@HUtagPetStatBaseInfo@@U?$less@H@std@@V?$allocator@U?$pair@$$CBHUtagPetStatBaseInfo@@@std@@@3@$0A@@std@@@std@@@std@@QBEABU?$pair@$$CBHUtagPetStatBaseInfo@@@1@XZ ENDP ; std::_Tree_const_iterator<std::_Tree_val<std::_Tmap_traits<int,tagPetStatBaseInfo,std::less<int>,std::allocator<std::pair<int const ,tagPetStatBaseInfo> >,0> > >::operator*
_TEXT	ENDS
PUBLIC	??D?$_Tree_const_iterator@V?$_Tree_val@V?$_Tmap_traits@HUtagPetAddStatInfo@@U?$less@H@std@@V?$allocator@U?$pair@$$CBHUtagPetAddStatInfo@@@std@@@3@$0A@@std@@@std@@@std@@QBEABU?$pair@$$CBHUtagPetAddStatInfo@@@1@XZ ; std::_Tree_const_iterator<std::_Tree_val<std::_Tmap_traits<int,tagPetAddStatInfo,std::less<int>,std::allocator<std::pair<int const ,tagPetAddStatInfo> >,0> > >::operator*
; Function compile flags: /Ogsp
;	COMDAT ??D?$_Tree_const_iterator@V?$_Tree_val@V?$_Tmap_traits@HUtagPetAddStatInfo@@U?$less@H@std@@V?$allocator@U?$pair@$$CBHUtagPetAddStatInfo@@@std@@@3@$0A@@std@@@std@@@std@@QBEABU?$pair@$$CBHUtagPetAddStatInfo@@@1@XZ
_TEXT	SEGMENT
??D?$_Tree_const_iterator@V?$_Tree_val@V?$_Tmap_traits@HUtagPetAddStatInfo@@U?$less@H@std@@V?$allocator@U?$pair@$$CBHUtagPetAddStatInfo@@@std@@@3@$0A@@std@@@std@@@std@@QBEABU?$pair@$$CBHUtagPetAddStatInfo@@@1@XZ PROC ; std::_Tree_const_iterator<std::_Tree_val<std::_Tmap_traits<int,tagPetAddStatInfo,std::less<int>,std::allocator<std::pair<int const ,tagPetAddStatInfo> >,0> > >::operator*, COMDAT
; _this$ = ecx

; 231  :  #if _ITERATOR_DEBUG_LEVEL == 2
; 232  : 		if (this->_Getcont() == 0
; 233  : 			|| this->_Ptr == 0
; 234  : 			|| this->_Ptr == ((_Mytree *)this->_Getcont())->_Myhead)
; 235  : 			{	// report error
; 236  : 			_DEBUG_ERROR("map/set iterator not dereferencable");
; 237  : 			_SCL_SECURE_OUT_OF_RANGE;
; 238  : 			}
; 239  : 
; 240  :  #elif _ITERATOR_DEBUG_LEVEL == 1
; 241  : 		_SCL_SECURE_VALIDATE(this->_Getcont() != 0 && this->_Ptr != 0);
; 242  : 		_SCL_SECURE_VALIDATE_RANGE(this->_Ptr !=
; 243  : 			((_Mytree *)this->_Getcont())->_Myhead);
; 244  :  #endif /* _ITERATOR_DEBUG_LEVEL */
; 245  : 
; 246  : 		return (_Mytree::_Myval(this->_Ptr));

  00000	8b 01		 mov	 eax, DWORD PTR [ecx]
  00002	83 c0 0c	 add	 eax, 12			; 0000000cH

; 247  : 		}

  00005	c3		 ret	 0
??D?$_Tree_const_iterator@V?$_Tree_val@V?$_Tmap_traits@HUtagPetAddStatInfo@@U?$less@H@std@@V?$allocator@U?$pair@$$CBHUtagPetAddStatInfo@@@std@@@3@$0A@@std@@@std@@@std@@QBEABU?$pair@$$CBHUtagPetAddStatInfo@@@1@XZ ENDP ; std::_Tree_const_iterator<std::_Tree_val<std::_Tmap_traits<int,tagPetAddStatInfo,std::less<int>,std::allocator<std::pair<int const ,tagPetAddStatInfo> >,0> > >::operator*
_TEXT	ENDS
PUBLIC	?max_size@?$allocator@UtagPetViewInfo@@@std@@QBEIXZ ; std::allocator<tagPetViewInfo>::max_size
; Function compile flags: /Ogsp
; File c:\program files (x86)\microsoft visual studio 10.0\vc\include\xmemory
;	COMDAT ?max_size@?$allocator@UtagPetViewInfo@@@std@@QBEIXZ
_TEXT	SEGMENT
?max_size@?$allocator@UtagPetViewInfo@@@std@@QBEIXZ PROC ; std::allocator<tagPetViewInfo>::max_size, COMDAT
; _this$ = ecx

; 218  : 		_SIZT _Count = (_SIZT)(-1) / sizeof (_Ty);
; 219  : 		return (0 < _Count ? _Count : 1);

  00000	b8 33 33 33 03	 mov	 eax, 53687091		; 03333333H

; 220  : 		}

  00005	c3		 ret	 0
?max_size@?$allocator@UtagPetViewInfo@@@std@@QBEIXZ ENDP ; std::allocator<tagPetViewInfo>::max_size
_TEXT	ENDS
PUBLIC	?_Color@?$_Tree_val@V?$_Tmap_traits@HUtagPetAddStatInfo@@U?$less@H@std@@V?$allocator@U?$pair@$$CBHUtagPetAddStatInfo@@@std@@@3@$0A@@std@@@std@@SAAADPAU_Node@?$_Tree_nod@V?$_Tmap_traits@HUtagPetAddStatInfo@@U?$less@H@std@@V?$allocator@U?$pair@$$CBHUtagPetAddStatInfo@@@std@@@3@$0A@@std@@@2@@Z ; std::_Tree_val<std::_Tmap_traits<int,tagPetAddStatInfo,std::less<int>,std::allocator<std::pair<int const ,tagPetAddStatInfo> >,0> >::_Color
; Function compile flags: /Ogsp
; File c:\program files (x86)\microsoft visual studio 10.0\vc\include\xtree
;	COMDAT ?_Color@?$_Tree_val@V?$_Tmap_traits@HUtagPetAddStatInfo@@U?$less@H@std@@V?$allocator@U?$pair@$$CBHUtagPetAddStatInfo@@@std@@@3@$0A@@std@@@std@@SAAADPAU_Node@?$_Tree_nod@V?$_Tmap_traits@HUtagPetAddStatInfo@@U?$less@H@std@@V?$allocator@U?$pair@$$CBHUtagPetAddStatInfo@@@std@@@3@$0A@@std@@@2@@Z
_TEXT	SEGMENT
__Pnode$ = 8						; size = 4
?_Color@?$_Tree_val@V?$_Tmap_traits@HUtagPetAddStatInfo@@U?$less@H@std@@V?$allocator@U?$pair@$$CBHUtagPetAddStatInfo@@@std@@@3@$0A@@std@@@std@@SAAADPAU_Node@?$_Tree_nod@V?$_Tmap_traits@HUtagPetAddStatInfo@@U?$less@H@std@@V?$allocator@U?$pair@$$CBHUtagPetAddStatInfo@@@std@@@3@$0A@@std@@@2@@Z PROC ; std::_Tree_val<std::_Tmap_traits<int,tagPetAddStatInfo,std::less<int>,std::allocator<std::pair<int const ,tagPetAddStatInfo> >,0> >::_Color, COMDAT

; 606  : 		{	// return reference to color in node

  00000	55		 push	 ebp
  00001	8b ec		 mov	 ebp, esp

; 607  : 		return ((char&)(*_Pnode)._Color);

  00003	8b 45 08	 mov	 eax, DWORD PTR __Pnode$[ebp]
  00006	83 c0 18	 add	 eax, 24			; 00000018H

; 608  : 		}

  00009	5d		 pop	 ebp
  0000a	c3		 ret	 0
?_Color@?$_Tree_val@V?$_Tmap_traits@HUtagPetAddStatInfo@@U?$less@H@std@@V?$allocator@U?$pair@$$CBHUtagPetAddStatInfo@@@std@@@3@$0A@@std@@@std@@SAAADPAU_Node@?$_Tree_nod@V?$_Tmap_traits@HUtagPetAddStatInfo@@U?$less@H@std@@V?$allocator@U?$pair@$$CBHUtagPetAddStatInfo@@@std@@@3@$0A@@std@@@2@@Z ENDP ; std::_Tree_val<std::_Tmap_traits<int,tagPetAddStatInfo,std::less<int>,std::allocator<std::pair<int const ,tagPetAddStatInfo> >,0> >::_Color
_TEXT	ENDS
PUBLIC	?_Color@?$_Tree_val@V?$_Tmap_traits@HUtagPetStatBaseInfo@@U?$less@H@std@@V?$allocator@U?$pair@$$CBHUtagPetStatBaseInfo@@@std@@@3@$0A@@std@@@std@@SAAADPAU_Node@?$_Tree_nod@V?$_Tmap_traits@HUtagPetStatBaseInfo@@U?$less@H@std@@V?$allocator@U?$pair@$$CBHUtagPetStatBaseInfo@@@std@@@3@$0A@@std@@@2@@Z ; std::_Tree_val<std::_Tmap_traits<int,tagPetStatBaseInfo,std::less<int>,std::allocator<std::pair<int const ,tagPetStatBaseInfo> >,0> >::_Color
; Function compile flags: /Ogsp
;	COMDAT ?_Color@?$_Tree_val@V?$_Tmap_traits@HUtagPetStatBaseInfo@@U?$less@H@std@@V?$allocator@U?$pair@$$CBHUtagPetStatBaseInfo@@@std@@@3@$0A@@std@@@std@@SAAADPAU_Node@?$_Tree_nod@V?$_Tmap_traits@HUtagPetStatBaseInfo@@U?$less@H@std@@V?$allocator@U?$pair@$$CBHUtagPetStatBaseInfo@@@std@@@3@$0A@@std@@@2@@Z
_TEXT	SEGMENT
__Pnode$ = 8						; size = 4
?_Color@?$_Tree_val@V?$_Tmap_traits@HUtagPetStatBaseInfo@@U?$less@H@std@@V?$allocator@U?$pair@$$CBHUtagPetStatBaseInfo@@@std@@@3@$0A@@std@@@std@@SAAADPAU_Node@?$_Tree_nod@V?$_Tmap_traits@HUtagPetStatBaseInfo@@U?$less@H@std@@V?$allocator@U?$pair@$$CBHUtagPetStatBaseInfo@@@std@@@3@$0A@@std@@@2@@Z PROC ; std::_Tree_val<std::_Tmap_traits<int,tagPetStatBaseInfo,std::less<int>,std::allocator<std::pair<int const ,tagPetStatBaseInfo> >,0> >::_Color, COMDAT

; 606  : 		{	// return reference to color in node

  00000	55		 push	 ebp
  00001	8b ec		 mov	 ebp, esp

; 607  : 		return ((char&)(*_Pnode)._Color);

  00003	8b 45 08	 mov	 eax, DWORD PTR __Pnode$[ebp]
  00006	83 c0 50	 add	 eax, 80			; 00000050H

; 608  : 		}

  00009	5d		 pop	 ebp
  0000a	c3		 ret	 0
?_Color@?$_Tree_val@V?$_Tmap_traits@HUtagPetStatBaseInfo@@U?$less@H@std@@V?$allocator@U?$pair@$$CBHUtagPetStatBaseInfo@@@std@@@3@$0A@@std@@@std@@SAAADPAU_Node@?$_Tree_nod@V?$_Tmap_traits@HUtagPetStatBaseInfo@@U?$less@H@std@@V?$allocator@U?$pair@$$CBHUtagPetStatBaseInfo@@@std@@@3@$0A@@std@@@2@@Z ENDP ; std::_Tree_val<std::_Tmap_traits<int,tagPetStatBaseInfo,std::less<int>,std::allocator<std::pair<int const ,tagPetStatBaseInfo> >,0> >::_Color
_TEXT	ENDS
PUBLIC	?_Min@?$_Tree_val@V?$_Tmap_traits@HUtagPetStatBaseInfo@@U?$less@H@std@@V?$allocator@U?$pair@$$CBHUtagPetStatBaseInfo@@@std@@@3@$0A@@std@@@std@@SAPAU_Node@?$_Tree_nod@V?$_Tmap_traits@HUtagPetStatBaseInfo@@U?$less@H@std@@V?$allocator@U?$pair@$$CBHUtagPetStatBaseInfo@@@std@@@3@$0A@@std@@@2@PAU342@@Z ; std::_Tree_val<std::_Tmap_traits<int,tagPetStatBaseInfo,std::less<int>,std::allocator<std::pair<int const ,tagPetStatBaseInfo> >,0> >::_Min
; Function compile flags: /Ogsp
;	COMDAT ?_Min@?$_Tree_val@V?$_Tmap_traits@HUtagPetStatBaseInfo@@U?$less@H@std@@V?$allocator@U?$pair@$$CBHUtagPetStatBaseInfo@@@std@@@3@$0A@@std@@@std@@SAPAU_Node@?$_Tree_nod@V?$_Tmap_traits@HUtagPetStatBaseInfo@@U?$less@H@std@@V?$allocator@U?$pair@$$CBHUtagPetStatBaseInfo@@@std@@@3@$0A@@std@@@2@PAU342@@Z
_TEXT	SEGMENT
__Pnode$ = 8						; size = 4
?_Min@?$_Tree_val@V?$_Tmap_traits@HUtagPetStatBaseInfo@@U?$less@H@std@@V?$allocator@U?$pair@$$CBHUtagPetStatBaseInfo@@@std@@@3@$0A@@std@@@std@@SAPAU_Node@?$_Tree_nod@V?$_Tmap_traits@HUtagPetStatBaseInfo@@U?$less@H@std@@V?$allocator@U?$pair@$$CBHUtagPetStatBaseInfo@@@std@@@3@$0A@@std@@@2@PAU342@@Z PROC ; std::_Tree_val<std::_Tmap_traits<int,tagPetStatBaseInfo,std::less<int>,std::allocator<std::pair<int const ,tagPetStatBaseInfo> >,0> >::_Min, COMDAT

; 648  : 		{	// return leftmost node in subtree at _Pnode

  00000	55		 push	 ebp
  00001	8b ec		 mov	 ebp, esp

; 649  : 		while (!_Isnil(_Left(_Pnode)))

  00003	8b 45 08	 mov	 eax, DWORD PTR __Pnode$[ebp]
  00006	eb 02		 jmp	 SHORT $LN14@Min
$LL2@Min:

; 650  : 			_Pnode = _Left(_Pnode);

  00008	8b c1		 mov	 eax, ecx
$LN14@Min:

; 649  : 		while (!_Isnil(_Left(_Pnode)))

  0000a	8b 08		 mov	 ecx, DWORD PTR [eax]
  0000c	80 79 51 00	 cmp	 BYTE PTR [ecx+81], 0
  00010	74 f6		 je	 SHORT $LL2@Min

; 651  : 		return (_Pnode);
; 652  : 		}

  00012	5d		 pop	 ebp
  00013	c3		 ret	 0
?_Min@?$_Tree_val@V?$_Tmap_traits@HUtagPetStatBaseInfo@@U?$less@H@std@@V?$allocator@U?$pair@$$CBHUtagPetStatBaseInfo@@@std@@@3@$0A@@std@@@std@@SAPAU_Node@?$_Tree_nod@V?$_Tmap_traits@HUtagPetStatBaseInfo@@U?$less@H@std@@V?$allocator@U?$pair@$$CBHUtagPetStatBaseInfo@@@std@@@3@$0A@@std@@@2@PAU342@@Z ENDP ; std::_Tree_val<std::_Tmap_traits<int,tagPetStatBaseInfo,std::less<int>,std::allocator<std::pair<int const ,tagPetStatBaseInfo> >,0> >::_Min
_TEXT	ENDS
PUBLIC	??0?$_Tree_unchecked_const_iterator@V?$_Tree_val@V?$_Tmap_traits@HUtagPetStatBaseInfo@@U?$less@H@std@@V?$allocator@U?$pair@$$CBHUtagPetStatBaseInfo@@@std@@@3@$0A@@std@@@std@@U_Iterator_base0@2@@std@@QAE@PAU_Node@?$_Tree_nod@V?$_Tmap_traits@HUtagPetStatBaseInfo@@U?$less@H@std@@V?$allocator@U?$pair@$$CBHUtagPetStatBaseInfo@@@std@@@3@$0A@@std@@@1@PBV?$_Tree_val@V?$_Tmap_traits@HUtagPetStatBaseInfo@@U?$less@H@std@@V?$allocator@U?$pair@$$CBHUtagPetStatBaseInfo@@@std@@@3@$0A@@std@@@1@@Z ; std::_Tree_unchecked_const_iterator<std::_Tree_val<std::_Tmap_traits<int,tagPetStatBaseInfo,std::less<int>,std::allocator<std::pair<int const ,tagPetStatBaseInfo> >,0> >,std::_Iterator_base0>::_Tree_unchecked_const_iterator<std::_Tree_val<std::_Tmap_traits<int,tagPetStatBaseInfo,std::less<int>,std::allocator<std::pair<int const ,tagPetStatBaseInfo> >,0> >,std::_Iterator_base0>
; Function compile flags: /Ogsp
;	COMDAT ??0?$_Tree_unchecked_const_iterator@V?$_Tree_val@V?$_Tmap_traits@HUtagPetStatBaseInfo@@U?$less@H@std@@V?$allocator@U?$pair@$$CBHUtagPetStatBaseInfo@@@std@@@3@$0A@@std@@@std@@U_Iterator_base0@2@@std@@QAE@PAU_Node@?$_Tree_nod@V?$_Tmap_traits@HUtagPetStatBaseInfo@@U?$less@H@std@@V?$allocator@U?$pair@$$CBHUtagPetStatBaseInfo@@@std@@@3@$0A@@std@@@1@PBV?$_Tree_val@V?$_Tmap_traits@HUtagPetStatBaseInfo@@U?$less@H@std@@V?$allocator@U?$pair@$$CBHUtagPetStatBaseInfo@@@std@@@3@$0A@@std@@@1@@Z
_TEXT	SEGMENT
__Pnode$ = 8						; size = 4
__Plist$ = 12						; size = 4
??0?$_Tree_unchecked_const_iterator@V?$_Tree_val@V?$_Tmap_traits@HUtagPetStatBaseInfo@@U?$less@H@std@@V?$allocator@U?$pair@$$CBHUtagPetStatBaseInfo@@@std@@@3@$0A@@std@@@std@@U_Iterator_base0@2@@std@@QAE@PAU_Node@?$_Tree_nod@V?$_Tmap_traits@HUtagPetStatBaseInfo@@U?$less@H@std@@V?$allocator@U?$pair@$$CBHUtagPetStatBaseInfo@@@std@@@3@$0A@@std@@@1@PBV?$_Tree_val@V?$_Tmap_traits@HUtagPetStatBaseInfo@@U?$less@H@std@@V?$allocator@U?$pair@$$CBHUtagPetStatBaseInfo@@@std@@@3@$0A@@std@@@1@@Z PROC ; std::_Tree_unchecked_const_iterator<std::_Tree_val<std::_Tmap_traits<int,tagPetStatBaseInfo,std::less<int>,std::allocator<std::pair<int const ,tagPetStatBaseInfo> >,0> >,std::_Iterator_base0>::_Tree_unchecked_const_iterator<std::_Tree_val<std::_Tmap_traits<int,tagPetStatBaseInfo,std::less<int>,std::allocator<std::pair<int const ,tagPetStatBaseInfo> >,0> >,std::_Iterator_base0>, COMDAT
; _this$ = ecx

; 43   : 		{	// construct with node pointer _Pnode

  00000	55		 push	 ebp
  00001	8b ec		 mov	 ebp, esp
  00003	8b c1		 mov	 eax, ecx
  00005	8b 4d 08	 mov	 ecx, DWORD PTR __Pnode$[ebp]
  00008	89 08		 mov	 DWORD PTR [eax], ecx

; 44   : 		this->_Adopt(_Plist);
; 45   : 		}

  0000a	5d		 pop	 ebp
  0000b	c2 08 00	 ret	 8
??0?$_Tree_unchecked_const_iterator@V?$_Tree_val@V?$_Tmap_traits@HUtagPetStatBaseInfo@@U?$less@H@std@@V?$allocator@U?$pair@$$CBHUtagPetStatBaseInfo@@@std@@@3@$0A@@std@@@std@@U_Iterator_base0@2@@std@@QAE@PAU_Node@?$_Tree_nod@V?$_Tmap_traits@HUtagPetStatBaseInfo@@U?$less@H@std@@V?$allocator@U?$pair@$$CBHUtagPetStatBaseInfo@@@std@@@3@$0A@@std@@@1@PBV?$_Tree_val@V?$_Tmap_traits@HUtagPetStatBaseInfo@@U?$less@H@std@@V?$allocator@U?$pair@$$CBHUtagPetStatBaseInfo@@@std@@@3@$0A@@std@@@1@@Z ENDP ; std::_Tree_unchecked_const_iterator<std::_Tree_val<std::_Tmap_traits<int,tagPetStatBaseInfo,std::less<int>,std::allocator<std::pair<int const ,tagPetStatBaseInfo> >,0> >,std::_Iterator_base0>::_Tree_unchecked_const_iterator<std::_Tree_val<std::_Tmap_traits<int,tagPetStatBaseInfo,std::less<int>,std::allocator<std::pair<int const ,tagPetStatBaseInfo> >,0> >,std::_Iterator_base0>
_TEXT	ENDS
PUBLIC	??0?$_Tree_unchecked_const_iterator@V?$_Tree_val@V?$_Tmap_traits@HUtagPetAddStatInfo@@U?$less@H@std@@V?$allocator@U?$pair@$$CBHUtagPetAddStatInfo@@@std@@@3@$0A@@std@@@std@@U_Iterator_base0@2@@std@@QAE@PAU_Node@?$_Tree_nod@V?$_Tmap_traits@HUtagPetAddStatInfo@@U?$less@H@std@@V?$allocator@U?$pair@$$CBHUtagPetAddStatInfo@@@std@@@3@$0A@@std@@@1@PBV?$_Tree_val@V?$_Tmap_traits@HUtagPetAddStatInfo@@U?$less@H@std@@V?$allocator@U?$pair@$$CBHUtagPetAddStatInfo@@@std@@@3@$0A@@std@@@1@@Z ; std::_Tree_unchecked_const_iterator<std::_Tree_val<std::_Tmap_traits<int,tagPetAddStatInfo,std::less<int>,std::allocator<std::pair<int const ,tagPetAddStatInfo> >,0> >,std::_Iterator_base0>::_Tree_unchecked_const_iterator<std::_Tree_val<std::_Tmap_traits<int,tagPetAddStatInfo,std::less<int>,std::allocator<std::pair<int const ,tagPetAddStatInfo> >,0> >,std::_Iterator_base0>
; Function compile flags: /Ogsp
;	COMDAT ??0?$_Tree_unchecked_const_iterator@V?$_Tree_val@V?$_Tmap_traits@HUtagPetAddStatInfo@@U?$less@H@std@@V?$allocator@U?$pair@$$CBHUtagPetAddStatInfo@@@std@@@3@$0A@@std@@@std@@U_Iterator_base0@2@@std@@QAE@PAU_Node@?$_Tree_nod@V?$_Tmap_traits@HUtagPetAddStatInfo@@U?$less@H@std@@V?$allocator@U?$pair@$$CBHUtagPetAddStatInfo@@@std@@@3@$0A@@std@@@1@PBV?$_Tree_val@V?$_Tmap_traits@HUtagPetAddStatInfo@@U?$less@H@std@@V?$allocator@U?$pair@$$CBHUtagPetAddStatInfo@@@std@@@3@$0A@@std@@@1@@Z
_TEXT	SEGMENT
__Pnode$ = 8						; size = 4
__Plist$ = 12						; size = 4
??0?$_Tree_unchecked_const_iterator@V?$_Tree_val@V?$_Tmap_traits@HUtagPetAddStatInfo@@U?$less@H@std@@V?$allocator@U?$pair@$$CBHUtagPetAddStatInfo@@@std@@@3@$0A@@std@@@std@@U_Iterator_base0@2@@std@@QAE@PAU_Node@?$_Tree_nod@V?$_Tmap_traits@HUtagPetAddStatInfo@@U?$less@H@std@@V?$allocator@U?$pair@$$CBHUtagPetAddStatInfo@@@std@@@3@$0A@@std@@@1@PBV?$_Tree_val@V?$_Tmap_traits@HUtagPetAddStatInfo@@U?$less@H@std@@V?$allocator@U?$pair@$$CBHUtagPetAddStatInfo@@@std@@@3@$0A@@std@@@1@@Z PROC ; std::_Tree_unchecked_const_iterator<std::_Tree_val<std::_Tmap_traits<int,tagPetAddStatInfo,std::less<int>,std::allocator<std::pair<int const ,tagPetAddStatInfo> >,0> >,std::_Iterator_base0>::_Tree_unchecked_const_iterator<std::_Tree_val<std::_Tmap_traits<int,tagPetAddStatInfo,std::less<int>,std::allocator<std::pair<int const ,tagPetAddStatInfo> >,0> >,std::_Iterator_base0>, COMDAT
; _this$ = ecx

; 43   : 		{	// construct with node pointer _Pnode

  00000	55		 push	 ebp
  00001	8b ec		 mov	 ebp, esp
  00003	8b c1		 mov	 eax, ecx
  00005	8b 4d 08	 mov	 ecx, DWORD PTR __Pnode$[ebp]
  00008	89 08		 mov	 DWORD PTR [eax], ecx

; 44   : 		this->_Adopt(_Plist);
; 45   : 		}

  0000a	5d		 pop	 ebp
  0000b	c2 08 00	 ret	 8
??0?$_Tree_unchecked_const_iterator@V?$_Tree_val@V?$_Tmap_traits@HUtagPetAddStatInfo@@U?$less@H@std@@V?$allocator@U?$pair@$$CBHUtagPetAddStatInfo@@@std@@@3@$0A@@std@@@std@@U_Iterator_base0@2@@std@@QAE@PAU_Node@?$_Tree_nod@V?$_Tmap_traits@HUtagPetAddStatInfo@@U?$less@H@std@@V?$allocator@U?$pair@$$CBHUtagPetAddStatInfo@@@std@@@3@$0A@@std@@@1@PBV?$_Tree_val@V?$_Tmap_traits@HUtagPetAddStatInfo@@U?$less@H@std@@V?$allocator@U?$pair@$$CBHUtagPetAddStatInfo@@@std@@@3@$0A@@std@@@1@@Z ENDP ; std::_Tree_unchecked_const_iterator<std::_Tree_val<std::_Tmap_traits<int,tagPetAddStatInfo,std::less<int>,std::allocator<std::pair<int const ,tagPetAddStatInfo> >,0> >,std::_Iterator_base0>::_Tree_unchecked_const_iterator<std::_Tree_val<std::_Tmap_traits<int,tagPetAddStatInfo,std::less<int>,std::allocator<std::pair<int const ,tagPetAddStatInfo> >,0> >,std::_Iterator_base0>
_TEXT	ENDS
PUBLIC	??0?$_Vector_const_iterator@V?$_Vector_val@UtagPetRankInfo@@V?$allocator@UtagPetRankInfo@@@std@@@std@@@std@@QAE@PAUtagPetRankInfo@@PBU_Container_base0@1@@Z ; std::_Vector_const_iterator<std::_Vector_val<tagPetRankInfo,std::allocator<tagPetRankInfo> > >::_Vector_const_iterator<std::_Vector_val<tagPetRankInfo,std::allocator<tagPetRankInfo> > >
; Function compile flags: /Ogsp
; File c:\program files (x86)\microsoft visual studio 10.0\vc\include\vector
;	COMDAT ??0?$_Vector_const_iterator@V?$_Vector_val@UtagPetRankInfo@@V?$allocator@UtagPetRankInfo@@@std@@@std@@@std@@QAE@PAUtagPetRankInfo@@PBU_Container_base0@1@@Z
_TEXT	SEGMENT
__Parg$ = 8						; size = 4
__Pvector$ = 12						; size = 4
??0?$_Vector_const_iterator@V?$_Vector_val@UtagPetRankInfo@@V?$allocator@UtagPetRankInfo@@@std@@@std@@@std@@QAE@PAUtagPetRankInfo@@PBU_Container_base0@1@@Z PROC ; std::_Vector_const_iterator<std::_Vector_val<tagPetRankInfo,std::allocator<tagPetRankInfo> > >::_Vector_const_iterator<std::_Vector_val<tagPetRankInfo,std::allocator<tagPetRankInfo> > >, COMDAT
; _this$ = ecx

; 45   : 		{	// construct with pointer _Parg

  00000	55		 push	 ebp
  00001	8b ec		 mov	 ebp, esp
  00003	8b c1		 mov	 eax, ecx
  00005	8b 4d 08	 mov	 ecx, DWORD PTR __Parg$[ebp]
  00008	89 08		 mov	 DWORD PTR [eax], ecx

; 46   : 		this->_Adopt(_Pvector);
; 47   : 		}

  0000a	5d		 pop	 ebp
  0000b	c2 08 00	 ret	 8
??0?$_Vector_const_iterator@V?$_Vector_val@UtagPetRankInfo@@V?$allocator@UtagPetRankInfo@@@std@@@std@@@std@@QAE@PAUtagPetRankInfo@@PBU_Container_base0@1@@Z ENDP ; std::_Vector_const_iterator<std::_Vector_val<tagPetRankInfo,std::allocator<tagPetRankInfo> > >::_Vector_const_iterator<std::_Vector_val<tagPetRankInfo,std::allocator<tagPetRankInfo> > >
_TEXT	ENDS
PUBLIC	??0D3DXVECTOR3@@QAE@XZ				; D3DXVECTOR3::D3DXVECTOR3
; Function compile flags: /Ogsp
; File c:\program files (x86)\microsoft directx sdk (june 2010)\include\d3dx9math.h
;	COMDAT ??0D3DXVECTOR3@@QAE@XZ
_TEXT	SEGMENT
??0D3DXVECTOR3@@QAE@XZ PROC				; D3DXVECTOR3::D3DXVECTOR3, COMDAT
; _this$ = ecx

; 165  :     D3DXVECTOR3() {};

  00000	8b c1		 mov	 eax, ecx
  00002	c3		 ret	 0
??0D3DXVECTOR3@@QAE@XZ ENDP				; D3DXVECTOR3::D3DXVECTOR3
_TEXT	ENDS
PUBLIC	?_Max@?$_Tree_val@V?$_Tmap_traits@HUtagPetAddStatInfo@@U?$less@H@std@@V?$allocator@U?$pair@$$CBHUtagPetAddStatInfo@@@std@@@3@$0A@@std@@@std@@SAPAU_Node@?$_Tree_nod@V?$_Tmap_traits@HUtagPetAddStatInfo@@U?$less@H@std@@V?$allocator@U?$pair@$$CBHUtagPetAddStatInfo@@@std@@@3@$0A@@std@@@2@PAU342@@Z ; std::_Tree_val<std::_Tmap_traits<int,tagPetAddStatInfo,std::less<int>,std::allocator<std::pair<int const ,tagPetAddStatInfo> >,0> >::_Max
; Function compile flags: /Ogsp
; File c:\program files (x86)\microsoft visual studio 10.0\vc\include\xtree
;	COMDAT ?_Max@?$_Tree_val@V?$_Tmap_traits@HUtagPetAddStatInfo@@U?$less@H@std@@V?$allocator@U?$pair@$$CBHUtagPetAddStatInfo@@@std@@@3@$0A@@std@@@std@@SAPAU_Node@?$_Tree_nod@V?$_Tmap_traits@HUtagPetAddStatInfo@@U?$less@H@std@@V?$allocator@U?$pair@$$CBHUtagPetAddStatInfo@@@std@@@3@$0A@@std@@@2@PAU342@@Z
_TEXT	SEGMENT
__Pnode$ = 8						; size = 4
?_Max@?$_Tree_val@V?$_Tmap_traits@HUtagPetAddStatInfo@@U?$less@H@std@@V?$allocator@U?$pair@$$CBHUtagPetAddStatInfo@@@std@@@3@$0A@@std@@@std@@SAPAU_Node@?$_Tree_nod@V?$_Tmap_traits@HUtagPetAddStatInfo@@U?$less@H@std@@V?$allocator@U?$pair@$$CBHUtagPetAddStatInfo@@@std@@@3@$0A@@std@@@2@PAU342@@Z PROC ; std::_Tree_val<std::_Tmap_traits<int,tagPetAddStatInfo,std::less<int>,std::allocator<std::pair<int const ,tagPetAddStatInfo> >,0> >::_Max, COMDAT

; 641  : 		{	// return rightmost node in subtree at _Pnode

  00000	55		 push	 ebp
  00001	8b ec		 mov	 ebp, esp

; 642  : 		while (!_Isnil(_Right(_Pnode)))

  00003	8b 45 08	 mov	 eax, DWORD PTR __Pnode$[ebp]
  00006	eb 02		 jmp	 SHORT $LN14@Max
$LL2@Max:

; 643  : 			_Pnode = _Right(_Pnode);

  00008	8b c1		 mov	 eax, ecx
$LN14@Max:

; 642  : 		while (!_Isnil(_Right(_Pnode)))

  0000a	8b 48 08	 mov	 ecx, DWORD PTR [eax+8]
  0000d	80 79 19 00	 cmp	 BYTE PTR [ecx+25], 0
  00011	74 f5		 je	 SHORT $LL2@Max

; 644  : 		return (_Pnode);
; 645  : 		}

  00013	5d		 pop	 ebp
  00014	c3		 ret	 0
?_Max@?$_Tree_val@V?$_Tmap_traits@HUtagPetAddStatInfo@@U?$less@H@std@@V?$allocator@U?$pair@$$CBHUtagPetAddStatInfo@@@std@@@3@$0A@@std@@@std@@SAPAU_Node@?$_Tree_nod@V?$_Tmap_traits@HUtagPetAddStatInfo@@U?$less@H@std@@V?$allocator@U?$pair@$$CBHUtagPetAddStatInfo@@@std@@@3@$0A@@std@@@2@PAU342@@Z ENDP ; std::_Tree_val<std::_Tmap_traits<int,tagPetAddStatInfo,std::less<int>,std::allocator<std::pair<int const ,tagPetAddStatInfo> >,0> >::_Max
_TEXT	ENDS
PUBLIC	?_Min@?$_Tree_val@V?$_Tmap_traits@HUtagPetAddStatInfo@@U?$less@H@std@@V?$allocator@U?$pair@$$CBHUtagPetAddStatInfo@@@std@@@3@$0A@@std@@@std@@SAPAU_Node@?$_Tree_nod@V?$_Tmap_traits@HUtagPetAddStatInfo@@U?$less@H@std@@V?$allocator@U?$pair@$$CBHUtagPetAddStatInfo@@@std@@@3@$0A@@std@@@2@PAU342@@Z ; std::_Tree_val<std::_Tmap_traits<int,tagPetAddStatInfo,std::less<int>,std::allocator<std::pair<int const ,tagPetAddStatInfo> >,0> >::_Min
; Function compile flags: /Ogsp
;	COMDAT ?_Min@?$_Tree_val@V?$_Tmap_traits@HUtagPetAddStatInfo@@U?$less@H@std@@V?$allocator@U?$pair@$$CBHUtagPetAddStatInfo@@@std@@@3@$0A@@std@@@std@@SAPAU_Node@?$_Tree_nod@V?$_Tmap_traits@HUtagPetAddStatInfo@@U?$less@H@std@@V?$allocator@U?$pair@$$CBHUtagPetAddStatInfo@@@std@@@3@$0A@@std@@@2@PAU342@@Z
_TEXT	SEGMENT
__Pnode$ = 8						; size = 4
?_Min@?$_Tree_val@V?$_Tmap_traits@HUtagPetAddStatInfo@@U?$less@H@std@@V?$allocator@U?$pair@$$CBHUtagPetAddStatInfo@@@std@@@3@$0A@@std@@@std@@SAPAU_Node@?$_Tree_nod@V?$_Tmap_traits@HUtagPetAddStatInfo@@U?$less@H@std@@V?$allocator@U?$pair@$$CBHUtagPetAddStatInfo@@@std@@@3@$0A@@std@@@2@PAU342@@Z PROC ; std::_Tree_val<std::_Tmap_traits<int,tagPetAddStatInfo,std::less<int>,std::allocator<std::pair<int const ,tagPetAddStatInfo> >,0> >::_Min, COMDAT

; 648  : 		{	// return leftmost node in subtree at _Pnode

  00000	55		 push	 ebp
  00001	8b ec		 mov	 ebp, esp

; 649  : 		while (!_Isnil(_Left(_Pnode)))

  00003	8b 45 08	 mov	 eax, DWORD PTR __Pnode$[ebp]
  00006	eb 02		 jmp	 SHORT $LN14@Min@2
$LL2@Min@2:

; 650  : 			_Pnode = _Left(_Pnode);

  00008	8b c1		 mov	 eax, ecx
$LN14@Min@2:

; 649  : 		while (!_Isnil(_Left(_Pnode)))

  0000a	8b 08		 mov	 ecx, DWORD PTR [eax]
  0000c	80 79 19 00	 cmp	 BYTE PTR [ecx+25], 0
  00010	74 f6		 je	 SHORT $LL2@Min@2

; 651  : 		return (_Pnode);
; 652  : 		}

  00012	5d		 pop	 ebp
  00013	c3		 ret	 0
?_Min@?$_Tree_val@V?$_Tmap_traits@HUtagPetAddStatInfo@@U?$less@H@std@@V?$allocator@U?$pair@$$CBHUtagPetAddStatInfo@@@std@@@3@$0A@@std@@@std@@SAPAU_Node@?$_Tree_nod@V?$_Tmap_traits@HUtagPetAddStatInfo@@U?$less@H@std@@V?$allocator@U?$pair@$$CBHUtagPetAddStatInfo@@@std@@@3@$0A@@std@@@2@PAU342@@Z ENDP ; std::_Tree_val<std::_Tmap_traits<int,tagPetAddStatInfo,std::less<int>,std::allocator<std::pair<int const ,tagPetAddStatInfo> >,0> >::_Min
_TEXT	ENDS
PUBLIC	??0?$_Tmap_traits@HUtagPetAddStatInfo@@U?$less@H@std@@V?$allocator@U?$pair@$$CBHUtagPetAddStatInfo@@@std@@@3@$0A@@std@@QAE@U?$less@H@1@@Z ; std::_Tmap_traits<int,tagPetAddStatInfo,std::less<int>,std::allocator<std::pair<int const ,tagPetAddStatInfo> >,0>::_Tmap_traits<int,tagPetAddStatInfo,std::less<int>,std::allocator<std::pair<int const ,tagPetAddStatInfo> >,0>
; Function compile flags: /Ogsp
; File c:\program files (x86)\microsoft visual studio 10.0\vc\include\map
;	COMDAT ??0?$_Tmap_traits@HUtagPetAddStatInfo@@U?$less@H@std@@V?$allocator@U?$pair@$$CBHUtagPetAddStatInfo@@@std@@@3@$0A@@std@@QAE@U?$less@H@1@@Z
_TEXT	SEGMENT
__Parg$ = 8						; size = 1
??0?$_Tmap_traits@HUtagPetAddStatInfo@@U?$less@H@std@@V?$allocator@U?$pair@$$CBHUtagPetAddStatInfo@@@std@@@3@$0A@@std@@QAE@U?$less@H@1@@Z PROC ; std::_Tmap_traits<int,tagPetAddStatInfo,std::less<int>,std::allocator<std::pair<int const ,tagPetAddStatInfo> >,0>::_Tmap_traits<int,tagPetAddStatInfo,std::less<int>,std::allocator<std::pair<int const ,tagPetAddStatInfo> >,0>, COMDAT
; _this$ = ecx

; 40   : 		{	// construct with specified comparator

  00000	8b c1		 mov	 eax, ecx

; 41   : 		}

  00002	c2 04 00	 ret	 4
??0?$_Tmap_traits@HUtagPetAddStatInfo@@U?$less@H@std@@V?$allocator@U?$pair@$$CBHUtagPetAddStatInfo@@@std@@@3@$0A@@std@@QAE@U?$less@H@1@@Z ENDP ; std::_Tmap_traits<int,tagPetAddStatInfo,std::less<int>,std::allocator<std::pair<int const ,tagPetAddStatInfo> >,0>::_Tmap_traits<int,tagPetAddStatInfo,std::less<int>,std::allocator<std::pair<int const ,tagPetAddStatInfo> >,0>
_TEXT	ENDS
PUBLIC	?_Max@?$_Tree_val@V?$_Tmap_traits@HUtagPetStatBaseInfo@@U?$less@H@std@@V?$allocator@U?$pair@$$CBHUtagPetStatBaseInfo@@@std@@@3@$0A@@std@@@std@@SAPAU_Node@?$_Tree_nod@V?$_Tmap_traits@HUtagPetStatBaseInfo@@U?$less@H@std@@V?$allocator@U?$pair@$$CBHUtagPetStatBaseInfo@@@std@@@3@$0A@@std@@@2@PAU342@@Z ; std::_Tree_val<std::_Tmap_traits<int,tagPetStatBaseInfo,std::less<int>,std::allocator<std::pair<int const ,tagPetStatBaseInfo> >,0> >::_Max
; Function compile flags: /Ogsp
; File c:\program files (x86)\microsoft visual studio 10.0\vc\include\xtree
;	COMDAT ?_Max@?$_Tree_val@V?$_Tmap_traits@HUtagPetStatBaseInfo@@U?$less@H@std@@V?$allocator@U?$pair@$$CBHUtagPetStatBaseInfo@@@std@@@3@$0A@@std@@@std@@SAPAU_Node@?$_Tree_nod@V?$_Tmap_traits@HUtagPetStatBaseInfo@@U?$less@H@std@@V?$allocator@U?$pair@$$CBHUtagPetStatBaseInfo@@@std@@@3@$0A@@std@@@2@PAU342@@Z
_TEXT	SEGMENT
__Pnode$ = 8						; size = 4
?_Max@?$_Tree_val@V?$_Tmap_traits@HUtagPetStatBaseInfo@@U?$less@H@std@@V?$allocator@U?$pair@$$CBHUtagPetStatBaseInfo@@@std@@@3@$0A@@std@@@std@@SAPAU_Node@?$_Tree_nod@V?$_Tmap_traits@HUtagPetStatBaseInfo@@U?$less@H@std@@V?$allocator@U?$pair@$$CBHUtagPetStatBaseInfo@@@std@@@3@$0A@@std@@@2@PAU342@@Z PROC ; std::_Tree_val<std::_Tmap_traits<int,tagPetStatBaseInfo,std::less<int>,std::allocator<std::pair<int const ,tagPetStatBaseInfo> >,0> >::_Max, COMDAT

; 641  : 		{	// return rightmost node in subtree at _Pnode

  00000	55		 push	 ebp
  00001	8b ec		 mov	 ebp, esp

; 642  : 		while (!_Isnil(_Right(_Pnode)))

  00003	8b 45 08	 mov	 eax, DWORD PTR __Pnode$[ebp]
  00006	eb 02		 jmp	 SHORT $LN14@Max@2
$LL2@Max@2:

; 643  : 			_Pnode = _Right(_Pnode);

  00008	8b c1		 mov	 eax, ecx
$LN14@Max@2:

; 642  : 		while (!_Isnil(_Right(_Pnode)))

  0000a	8b 48 08	 mov	 ecx, DWORD PTR [eax+8]
  0000d	80 79 51 00	 cmp	 BYTE PTR [ecx+81], 0
  00011	74 f5		 je	 SHORT $LL2@Max@2

; 644  : 		return (_Pnode);
; 645  : 		}

  00013	5d		 pop	 ebp
  00014	c3		 ret	 0
?_Max@?$_Tree_val@V?$_Tmap_traits@HUtagPetStatBaseInfo@@U?$less@H@std@@V?$allocator@U?$pair@$$CBHUtagPetStatBaseInfo@@@std@@@3@$0A@@std@@@std@@SAPAU_Node@?$_Tree_nod@V?$_Tmap_traits@HUtagPetStatBaseInfo@@U?$less@H@std@@V?$allocator@U?$pair@$$CBHUtagPetStatBaseInfo@@@std@@@3@$0A@@std@@@2@PAU342@@Z ENDP ; std::_Tree_val<std::_Tmap_traits<int,tagPetStatBaseInfo,std::less<int>,std::allocator<std::pair<int const ,tagPetStatBaseInfo> >,0> >::_Max
_TEXT	ENDS
PUBLIC	??0?$_Tmap_traits@HUtagPetStatBaseInfo@@U?$less@H@std@@V?$allocator@U?$pair@$$CBHUtagPetStatBaseInfo@@@std@@@3@$0A@@std@@QAE@U?$less@H@1@@Z ; std::_Tmap_traits<int,tagPetStatBaseInfo,std::less<int>,std::allocator<std::pair<int const ,tagPetStatBaseInfo> >,0>::_Tmap_traits<int,tagPetStatBaseInfo,std::less<int>,std::allocator<std::pair<int const ,tagPetStatBaseInfo> >,0>
; Function compile flags: /Ogsp
; File c:\program files (x86)\microsoft visual studio 10.0\vc\include\map
;	COMDAT ??0?$_Tmap_traits@HUtagPetStatBaseInfo@@U?$less@H@std@@V?$allocator@U?$pair@$$CBHUtagPetStatBaseInfo@@@std@@@3@$0A@@std@@QAE@U?$less@H@1@@Z
_TEXT	SEGMENT
__Parg$ = 8						; size = 1
??0?$_Tmap_traits@HUtagPetStatBaseInfo@@U?$less@H@std@@V?$allocator@U?$pair@$$CBHUtagPetStatBaseInfo@@@std@@@3@$0A@@std@@QAE@U?$less@H@1@@Z PROC ; std::_Tmap_traits<int,tagPetStatBaseInfo,std::less<int>,std::allocator<std::pair<int const ,tagPetStatBaseInfo> >,0>::_Tmap_traits<int,tagPetStatBaseInfo,std::less<int>,std::allocator<std::pair<int const ,tagPetStatBaseInfo> >,0>, COMDAT
; _this$ = ecx

; 40   : 		{	// construct with specified comparator

  00000	8b c1		 mov	 eax, ecx

; 41   : 		}

  00002	c2 04 00	 ret	 4
??0?$_Tmap_traits@HUtagPetStatBaseInfo@@U?$less@H@std@@V?$allocator@U?$pair@$$CBHUtagPetStatBaseInfo@@@std@@@3@$0A@@std@@QAE@U?$less@H@1@@Z ENDP ; std::_Tmap_traits<int,tagPetStatBaseInfo,std::less<int>,std::allocator<std::pair<int const ,tagPetStatBaseInfo> >,0>::_Tmap_traits<int,tagPetStatBaseInfo,std::less<int>,std::allocator<std::pair<int const ,tagPetStatBaseInfo> >,0>
_TEXT	ENDS
PUBLIC	?_Compat@?$_Vector_const_iterator@V?$_Vector_val@UtagPetRankInfo@@V?$allocator@UtagPetRankInfo@@@std@@@std@@@std@@QBEXABV12@@Z ; std::_Vector_const_iterator<std::_Vector_val<tagPetRankInfo,std::allocator<tagPetRankInfo> > >::_Compat
; Function compile flags: /Ogsp
; File c:\program files (x86)\microsoft visual studio 10.0\vc\include\vector
;	COMDAT ?_Compat@?$_Vector_const_iterator@V?$_Vector_val@UtagPetRankInfo@@V?$allocator@UtagPetRankInfo@@@std@@@std@@@std@@QBEXABV12@@Z
_TEXT	SEGMENT
___formal$ = 8						; size = 4
?_Compat@?$_Vector_const_iterator@V?$_Vector_val@UtagPetRankInfo@@V?$allocator@UtagPetRankInfo@@@std@@@std@@@std@@QBEXABV12@@Z PROC ; std::_Vector_const_iterator<std::_Vector_val<tagPetRankInfo,std::allocator<tagPetRankInfo> > >::_Compat, COMDAT
; _this$ = ecx

; 253  : 		}

  00000	c2 04 00	 ret	 4
?_Compat@?$_Vector_const_iterator@V?$_Vector_val@UtagPetRankInfo@@V?$allocator@UtagPetRankInfo@@@std@@@std@@@std@@QBEXABV12@@Z ENDP ; std::_Vector_const_iterator<std::_Vector_val<tagPetRankInfo,std::allocator<tagPetRankInfo> > >::_Compat
_TEXT	ENDS
PUBLIC	??E?$_Tree_unchecked_const_iterator@V?$_Tree_val@V?$_Tmap_traits@HUtagPetAddStatInfo@@U?$less@H@std@@V?$allocator@U?$pair@$$CBHUtagPetAddStatInfo@@@std@@@3@$0A@@std@@@std@@U_Iterator_base0@2@@std@@QAEAAV01@XZ ; std::_Tree_unchecked_const_iterator<std::_Tree_val<std::_Tmap_traits<int,tagPetAddStatInfo,std::less<int>,std::allocator<std::pair<int const ,tagPetAddStatInfo> >,0> >,std::_Iterator_base0>::operator++
; Function compile flags: /Ogsp
; File c:\program files (x86)\microsoft visual studio 10.0\vc\include\xtree
;	COMDAT ??E?$_Tree_unchecked_const_iterator@V?$_Tree_val@V?$_Tmap_traits@HUtagPetAddStatInfo@@U?$less@H@std@@V?$allocator@U?$pair@$$CBHUtagPetAddStatInfo@@@std@@@3@$0A@@std@@@std@@U_Iterator_base0@2@@std@@QAEAAV01@XZ
_TEXT	SEGMENT
??E?$_Tree_unchecked_const_iterator@V?$_Tree_val@V?$_Tmap_traits@HUtagPetAddStatInfo@@U?$less@H@std@@V?$allocator@U?$pair@$$CBHUtagPetAddStatInfo@@@std@@@3@$0A@@std@@@std@@U_Iterator_base0@2@@std@@QAEAAV01@XZ PROC ; std::_Tree_unchecked_const_iterator<std::_Tree_val<std::_Tmap_traits<int,tagPetAddStatInfo,std::less<int>,std::allocator<std::pair<int const ,tagPetAddStatInfo> >,0> >,std::_Iterator_base0>::operator++, COMDAT
; _this$ = ecx

; 58   : 		{	// preincrement

  00000	8b c1		 mov	 eax, ecx

; 59   : 		if (_Mytree::_Isnil(_Ptr))

  00002	8b 08		 mov	 ecx, DWORD PTR [eax]
  00004	53		 push	 ebx
  00005	32 db		 xor	 bl, bl
  00007	38 59 19	 cmp	 BYTE PTR [ecx+25], bl
  0000a	75 2d		 jne	 SHORT $LN3@operator

; 60   : 			;	// end() shouldn't be incremented, don't move
; 61   : 		else if (!_Mytree::_Isnil(_Mytree::_Right(_Ptr)))

  0000c	8b 51 08	 mov	 edx, DWORD PTR [ecx+8]
  0000f	38 5a 19	 cmp	 BYTE PTR [edx+25], bl
  00012	75 0d		 jne	 SHORT $LN34@operator

; 62   : 			_Ptr = _Mytree::_Min(
; 63   : 				_Mytree::_Right(_Ptr));	// ==> smallest of right subtree

$LL18@operator:
  00014	8b ca		 mov	 ecx, edx
  00016	8b 11		 mov	 edx, DWORD PTR [ecx]
  00018	38 5a 19	 cmp	 BYTE PTR [edx+25], bl
  0001b	74 f7		 je	 SHORT $LL18@operator
  0001d	89 08		 mov	 DWORD PTR [eax], ecx
  0001f	5b		 pop	 ebx

; 71   : 			}
; 72   : 		return (*this);
; 73   : 		}

  00020	c3		 ret	 0
$LN34@operator:

; 64   : 		else
; 65   : 			{	// climb looking for right subtree
; 66   : 			_Nodeptr _Pnode;
; 67   : 			while (!_Mytree::_Isnil(_Pnode = _Mytree::_Parent(_Ptr))
; 68   : 				&& _Ptr == _Mytree::_Right(_Pnode))

  00021	8b 51 04	 mov	 edx, DWORD PTR [ecx+4]
  00024	eb 0c		 jmp	 SHORT $LN38@operator
$LL2@operator:
  00026	8b 08		 mov	 ecx, DWORD PTR [eax]
  00028	3b 4a 08	 cmp	 ecx, DWORD PTR [edx+8]
  0002b	75 0a		 jne	 SHORT $LN1@operator

; 69   : 				_Ptr = _Pnode;	// ==> parent while right subtree

  0002d	89 10		 mov	 DWORD PTR [eax], edx
  0002f	8b 52 04	 mov	 edx, DWORD PTR [edx+4]
$LN38@operator:

; 64   : 		else
; 65   : 			{	// climb looking for right subtree
; 66   : 			_Nodeptr _Pnode;
; 67   : 			while (!_Mytree::_Isnil(_Pnode = _Mytree::_Parent(_Ptr))
; 68   : 				&& _Ptr == _Mytree::_Right(_Pnode))

  00032	38 5a 19	 cmp	 BYTE PTR [edx+25], bl
  00035	74 ef		 je	 SHORT $LL2@operator
$LN1@operator:

; 70   : 			_Ptr = _Pnode;	// ==> parent (head if end())

  00037	89 10		 mov	 DWORD PTR [eax], edx
$LN3@operator:
  00039	5b		 pop	 ebx

; 71   : 			}
; 72   : 		return (*this);
; 73   : 		}

  0003a	c3		 ret	 0
??E?$_Tree_unchecked_const_iterator@V?$_Tree_val@V?$_Tmap_traits@HUtagPetAddStatInfo@@U?$less@H@std@@V?$allocator@U?$pair@$$CBHUtagPetAddStatInfo@@@std@@@3@$0A@@std@@@std@@U_Iterator_base0@2@@std@@QAEAAV01@XZ ENDP ; std::_Tree_unchecked_const_iterator<std::_Tree_val<std::_Tmap_traits<int,tagPetAddStatInfo,std::less<int>,std::allocator<std::pair<int const ,tagPetAddStatInfo> >,0> >,std::_Iterator_base0>::operator++
_TEXT	ENDS
PUBLIC	??0D3DXVECTOR3@@QAE@MMM@Z			; D3DXVECTOR3::D3DXVECTOR3
EXTRN	__fltused:DWORD
; Function compile flags: /Ogsp
; File c:\program files (x86)\microsoft directx sdk (june 2010)\include\d3dx9math.inl
;	COMDAT ??0D3DXVECTOR3@@QAE@MMM@Z
_TEXT	SEGMENT
_fx$ = 8						; size = 4
_fy$ = 12						; size = 4
_fz$ = 16						; size = 4
??0D3DXVECTOR3@@QAE@MMM@Z PROC				; D3DXVECTOR3::D3DXVECTOR3, COMDAT
; _this$ = ecx

; 303  : {

  00000	55		 push	 ebp
  00001	8b ec		 mov	 ebp, esp

; 304  :     x = fx;

  00003	f3 0f 10 45 08	 movss	 xmm0, DWORD PTR _fx$[ebp]
  00008	8b c1		 mov	 eax, ecx
  0000a	f3 0f 11 00	 movss	 DWORD PTR [eax], xmm0

; 305  :     y = fy;

  0000e	f3 0f 10 45 0c	 movss	 xmm0, DWORD PTR _fy$[ebp]
  00013	f3 0f 11 40 04	 movss	 DWORD PTR [eax+4], xmm0

; 306  :     z = fz;

  00018	f3 0f 10 45 10	 movss	 xmm0, DWORD PTR _fz$[ebp]
  0001d	f3 0f 11 40 08	 movss	 DWORD PTR [eax+8], xmm0

; 307  : }

  00022	5d		 pop	 ebp
  00023	c2 0c 00	 ret	 12			; 0000000cH
??0D3DXVECTOR3@@QAE@MMM@Z ENDP				; D3DXVECTOR3::D3DXVECTOR3
_TEXT	ENDS
PUBLIC	??$addressof@$$CBH@std@@YAPBHABH@Z		; std::addressof<int const >
; Function compile flags: /Ogsp
; File c:\program files (x86)\microsoft visual studio 10.0\vc\include\xmemory
;	COMDAT ??$addressof@$$CBH@std@@YAPBHABH@Z
_TEXT	SEGMENT
__Val$ = 8						; size = 4
??$addressof@$$CBH@std@@YAPBHABH@Z PROC			; std::addressof<int const >, COMDAT

; 110  : 	{	// return address of _Val

  00000	55		 push	 ebp
  00001	8b ec		 mov	 ebp, esp

; 111  : 	return ((_Ty *) &(char&)_Val);

  00003	8b 45 08	 mov	 eax, DWORD PTR __Val$[ebp]

; 112  : 	}

  00006	5d		 pop	 ebp
  00007	c3		 ret	 0
??$addressof@$$CBH@std@@YAPBHABH@Z ENDP			; std::addressof<int const >
_TEXT	ENDS
PUBLIC	??$addressof@$$CBUtagPetViewInfo@@@std@@YAPBUtagPetViewInfo@@ABU1@@Z ; std::addressof<tagPetViewInfo const >
; Function compile flags: /Ogsp
;	COMDAT ??$addressof@$$CBUtagPetViewInfo@@@std@@YAPBUtagPetViewInfo@@ABU1@@Z
_TEXT	SEGMENT
__Val$ = 8						; size = 4
??$addressof@$$CBUtagPetViewInfo@@@std@@YAPBUtagPetViewInfo@@ABU1@@Z PROC ; std::addressof<tagPetViewInfo const >, COMDAT

; 110  : 	{	// return address of _Val

  00000	55		 push	 ebp
  00001	8b ec		 mov	 ebp, esp

; 111  : 	return ((_Ty *) &(char&)_Val);

  00003	8b 45 08	 mov	 eax, DWORD PTR __Val$[ebp]

; 112  : 	}

  00006	5d		 pop	 ebp
  00007	c3		 ret	 0
??$addressof@$$CBUtagPetViewInfo@@@std@@YAPBUtagPetViewInfo@@ABU1@@Z ENDP ; std::addressof<tagPetViewInfo const >
_TEXT	ENDS
PUBLIC	??$addressof@$$CBUtagPetRankInfo@@@std@@YAPBUtagPetRankInfo@@ABU1@@Z ; std::addressof<tagPetRankInfo const >
; Function compile flags: /Ogsp
;	COMDAT ??$addressof@$$CBUtagPetRankInfo@@@std@@YAPBUtagPetRankInfo@@ABU1@@Z
_TEXT	SEGMENT
__Val$ = 8						; size = 4
??$addressof@$$CBUtagPetRankInfo@@@std@@YAPBUtagPetRankInfo@@ABU1@@Z PROC ; std::addressof<tagPetRankInfo const >, COMDAT

; 110  : 	{	// return address of _Val

  00000	55		 push	 ebp
  00001	8b ec		 mov	 ebp, esp

; 111  : 	return ((_Ty *) &(char&)_Val);

  00003	8b 45 08	 mov	 eax, DWORD PTR __Val$[ebp]

; 112  : 	}

  00006	5d		 pop	 ebp
  00007	c3		 ret	 0
??$addressof@$$CBUtagPetRankInfo@@@std@@YAPBUtagPetRankInfo@@ABU1@@Z ENDP ; std::addressof<tagPetRankInfo const >
_TEXT	ENDS
PUBLIC	__TI2?AVbad_alloc@std@@
PUBLIC	??$_Allocate@UtagPetRankInfo@@@std@@YAPAUtagPetRankInfo@@IPAU1@@Z ; std::_Allocate<tagPetRankInfo>
PUBLIC	__CTA2?AVbad_alloc@std@@
PUBLIC	__CT??_R0?AVbad_alloc@std@@@8??0bad_alloc@std@@QAE@ABV01@@Z12
PUBLIC	??0bad_alloc@std@@QAE@ABV01@@Z			; std::bad_alloc::bad_alloc
PUBLIC	__CT??_R0?AVexception@std@@@8??0exception@std@@QAE@ABV01@@Z12
EXTRN	??2@YAPAXI@Z:PROC				; operator new
EXTRN	__CxxThrowException@8:PROC
EXTRN	??0exception@std@@QAE@ABV01@@Z:PROC		; std::exception::exception
;	COMDAT __CT??_R0?AVexception@std@@@8??0exception@std@@QAE@ABV01@@Z12
; File c:\program files (x86)\microsoft visual studio 10.0\vc\include\exception
xdata$x	SEGMENT
__CT??_R0?AVexception@std@@@8??0exception@std@@QAE@ABV01@@Z12 DD 00H
	DD	FLAT:??_R0?AVexception@std@@@8
	DD	00H
	DD	0ffffffffH
	ORG $+4
	DD	0cH
	DD	FLAT:??0exception@std@@QAE@ABV01@@Z
xdata$x	ENDS
;	COMDAT __CT??_R0?AVbad_alloc@std@@@8??0bad_alloc@std@@QAE@ABV01@@Z12
xdata$x	SEGMENT
__CT??_R0?AVbad_alloc@std@@@8??0bad_alloc@std@@QAE@ABV01@@Z12 DD 00H
	DD	FLAT:??_R0?AVbad_alloc@std@@@8
	DD	00H
	DD	0ffffffffH
	ORG $+4
	DD	0cH
	DD	FLAT:??0bad_alloc@std@@QAE@ABV01@@Z
xdata$x	ENDS
;	COMDAT __CTA2?AVbad_alloc@std@@
xdata$x	SEGMENT
__CTA2?AVbad_alloc@std@@ DD 02H
	DD	FLAT:__CT??_R0?AVbad_alloc@std@@@8??0bad_alloc@std@@QAE@ABV01@@Z12
	DD	FLAT:__CT??_R0?AVexception@std@@@8??0exception@std@@QAE@ABV01@@Z12
xdata$x	ENDS
;	COMDAT __TI2?AVbad_alloc@std@@
xdata$x	SEGMENT
__TI2?AVbad_alloc@std@@ DD 00H
	DD	FLAT:??1bad_alloc@std@@UAE@XZ
	DD	00H
	DD	FLAT:__CTA2?AVbad_alloc@std@@
; Function compile flags: /Ogsp
; File c:\program files (x86)\microsoft visual studio 10.0\vc\include\xmemory
xdata$x	ENDS
;	COMDAT ??$_Allocate@UtagPetRankInfo@@@std@@YAPAUtagPetRankInfo@@IPAU1@@Z
_TEXT	SEGMENT
$T515187 = -12						; size = 12
$T515192 = 8						; size = 4
__Count$ = 8						; size = 4
___formal$ = 12						; size = 4
??$_Allocate@UtagPetRankInfo@@@std@@YAPAUtagPetRankInfo@@IPAU1@@Z PROC ; std::_Allocate<tagPetRankInfo>, COMDAT

; 30   : 	{	// allocate storage for _Count elements of type _Ty

  00000	55		 push	 ebp
  00001	8b ec		 mov	 ebp, esp

; 31   : 	void *_Ptr = 0;
; 32   : 
; 33   : 	if (_Count <= 0)

  00003	8b 4d 08	 mov	 ecx, DWORD PTR __Count$[ebp]
  00006	83 ec 0c	 sub	 esp, 12			; 0000000cH
  00009	33 c0		 xor	 eax, eax
  0000b	85 c9		 test	 ecx, ecx

; 34   : 		_Count = 0;
; 35   : 	else if (((_SIZT)(-1) / sizeof (_Ty) < _Count)

  0000d	74 3c		 je	 SHORT $LN5@Allocate

; 36   : 		|| (_Ptr = ::operator new(_Count * sizeof (_Ty))) == 0)

  0000f	81 f9 55 55 55
	15		 cmp	 ecx, 357913941		; 15555555H
  00015	77 0e		 ja	 SHORT $LN1@Allocate
  00017	6b c9 0c	 imul	 ecx, 12			; 0000000cH
  0001a	51		 push	 ecx
  0001b	e8 00 00 00 00	 call	 ??2@YAPAXI@Z		; operator new
  00020	59		 pop	 ecx
  00021	85 c0		 test	 eax, eax

; 38   : 
; 39   : 	return ((_Ty _FARQ *)_Ptr);

  00023	75 26		 jne	 SHORT $LN5@Allocate
$LN1@Allocate:

; 37   : 		_THROW_NCEE(bad_alloc, 0);

  00025	83 65 08 00	 and	 DWORD PTR $T515192[ebp], 0
  00029	8d 45 08	 lea	 eax, DWORD PTR $T515192[ebp]
  0002c	50		 push	 eax
  0002d	8d 4d f4	 lea	 ecx, DWORD PTR $T515187[ebp]
  00030	ff 15 00 00 00
	00		 call	 DWORD PTR __imp_??0exception@std@@QAE@ABQBD@Z
  00036	68 00 00 00 00	 push	 OFFSET __TI2?AVbad_alloc@std@@
  0003b	8d 45 f4	 lea	 eax, DWORD PTR $T515187[ebp]
  0003e	50		 push	 eax
  0003f	c7 45 f4 00 00
	00 00		 mov	 DWORD PTR $T515187[ebp], OFFSET ??_7bad_alloc@std@@6B@
  00046	e8 00 00 00 00	 call	 __CxxThrowException@8
$LN10@Allocate:
$LN5@Allocate:

; 40   : 	}

  0004b	c9		 leave
  0004c	c3		 ret	 0
$LN9@Allocate:
??$_Allocate@UtagPetRankInfo@@@std@@YAPAUtagPetRankInfo@@IPAU1@@Z ENDP ; std::_Allocate<tagPetRankInfo>
_TEXT	ENDS
PUBLIC	??$addressof@U?$pair@$$CBHUtagPetAddStatInfo@@@std@@@std@@YAPAU?$pair@$$CBHUtagPetAddStatInfo@@@0@AAU10@@Z ; std::addressof<std::pair<int const ,tagPetAddStatInfo> >
; Function compile flags: /Ogsp
;	COMDAT ??$addressof@U?$pair@$$CBHUtagPetAddStatInfo@@@std@@@std@@YAPAU?$pair@$$CBHUtagPetAddStatInfo@@@0@AAU10@@Z
_TEXT	SEGMENT
__Val$ = 8						; size = 4
??$addressof@U?$pair@$$CBHUtagPetAddStatInfo@@@std@@@std@@YAPAU?$pair@$$CBHUtagPetAddStatInfo@@@0@AAU10@@Z PROC ; std::addressof<std::pair<int const ,tagPetAddStatInfo> >, COMDAT

; 110  : 	{	// return address of _Val

  00000	55		 push	 ebp
  00001	8b ec		 mov	 ebp, esp

; 111  : 	return ((_Ty *) &(char&)_Val);

  00003	8b 45 08	 mov	 eax, DWORD PTR __Val$[ebp]

; 112  : 	}

  00006	5d		 pop	 ebp
  00007	c3		 ret	 0
??$addressof@U?$pair@$$CBHUtagPetAddStatInfo@@@std@@@std@@YAPAU?$pair@$$CBHUtagPetAddStatInfo@@@0@AAU10@@Z ENDP ; std::addressof<std::pair<int const ,tagPetAddStatInfo> >
_TEXT	ENDS
PUBLIC	??$_Kfn@$$CBHUtagPetAddStatInfo@@@?$_Tmap_traits@HUtagPetAddStatInfo@@U?$less@H@std@@V?$allocator@U?$pair@$$CBHUtagPetAddStatInfo@@@std@@@3@$0A@@std@@SAABHABU?$pair@$$CBHUtagPetAddStatInfo@@@1@@Z ; std::_Tmap_traits<int,tagPetAddStatInfo,std::less<int>,std::allocator<std::pair<int const ,tagPetAddStatInfo> >,0>::_Kfn<int const ,tagPetAddStatInfo>
; Function compile flags: /Ogsp
; File c:\program files (x86)\microsoft visual studio 10.0\vc\include\map
;	COMDAT ??$_Kfn@$$CBHUtagPetAddStatInfo@@@?$_Tmap_traits@HUtagPetAddStatInfo@@U?$less@H@std@@V?$allocator@U?$pair@$$CBHUtagPetAddStatInfo@@@std@@@3@$0A@@std@@SAABHABU?$pair@$$CBHUtagPetAddStatInfo@@@1@@Z
_TEXT	SEGMENT
__Val$ = 8						; size = 4
??$_Kfn@$$CBHUtagPetAddStatInfo@@@?$_Tmap_traits@HUtagPetAddStatInfo@@U?$less@H@std@@V?$allocator@U?$pair@$$CBHUtagPetAddStatInfo@@@std@@@3@$0A@@std@@SAABHABU?$pair@$$CBHUtagPetAddStatInfo@@@1@@Z PROC ; std::_Tmap_traits<int,tagPetAddStatInfo,std::less<int>,std::allocator<std::pair<int const ,tagPetAddStatInfo> >,0>::_Kfn<int const ,tagPetAddStatInfo>, COMDAT

; 66   : 		static const _Kty& _Kfn(const _STD pair<_Ty1, _Ty2>& _Val)

  00000	55		 push	 ebp
  00001	8b ec		 mov	 ebp, esp

; 67   : 		{	// extract key from element value
; 68   : 		return (_Val.first);

  00003	8b 45 08	 mov	 eax, DWORD PTR __Val$[ebp]

; 69   : 		}

  00006	5d		 pop	 ebp
  00007	c3		 ret	 0
??$_Kfn@$$CBHUtagPetAddStatInfo@@@?$_Tmap_traits@HUtagPetAddStatInfo@@U?$less@H@std@@V?$allocator@U?$pair@$$CBHUtagPetAddStatInfo@@@std@@@3@$0A@@std@@SAABHABU?$pair@$$CBHUtagPetAddStatInfo@@@1@@Z ENDP ; std::_Tmap_traits<int,tagPetAddStatInfo,std::less<int>,std::allocator<std::pair<int const ,tagPetAddStatInfo> >,0>::_Kfn<int const ,tagPetAddStatInfo>
_TEXT	ENDS
PUBLIC	??$addressof@U?$pair@$$CBHUtagPetStatBaseInfo@@@std@@@std@@YAPAU?$pair@$$CBHUtagPetStatBaseInfo@@@0@AAU10@@Z ; std::addressof<std::pair<int const ,tagPetStatBaseInfo> >
; Function compile flags: /Ogsp
; File c:\program files (x86)\microsoft visual studio 10.0\vc\include\xmemory
;	COMDAT ??$addressof@U?$pair@$$CBHUtagPetStatBaseInfo@@@std@@@std@@YAPAU?$pair@$$CBHUtagPetStatBaseInfo@@@0@AAU10@@Z
_TEXT	SEGMENT
__Val$ = 8						; size = 4
??$addressof@U?$pair@$$CBHUtagPetStatBaseInfo@@@std@@@std@@YAPAU?$pair@$$CBHUtagPetStatBaseInfo@@@0@AAU10@@Z PROC ; std::addressof<std::pair<int const ,tagPetStatBaseInfo> >, COMDAT

; 110  : 	{	// return address of _Val

  00000	55		 push	 ebp
  00001	8b ec		 mov	 ebp, esp

; 111  : 	return ((_Ty *) &(char&)_Val);

  00003	8b 45 08	 mov	 eax, DWORD PTR __Val$[ebp]

; 112  : 	}

  00006	5d		 pop	 ebp
  00007	c3		 ret	 0
??$addressof@U?$pair@$$CBHUtagPetStatBaseInfo@@@std@@@std@@YAPAU?$pair@$$CBHUtagPetStatBaseInfo@@@0@AAU10@@Z ENDP ; std::addressof<std::pair<int const ,tagPetStatBaseInfo> >
_TEXT	ENDS
PUBLIC	??$_Kfn@$$CBHUtagPetStatBaseInfo@@@?$_Tmap_traits@HUtagPetStatBaseInfo@@U?$less@H@std@@V?$allocator@U?$pair@$$CBHUtagPetStatBaseInfo@@@std@@@3@$0A@@std@@SAABHABU?$pair@$$CBHUtagPetStatBaseInfo@@@1@@Z ; std::_Tmap_traits<int,tagPetStatBaseInfo,std::less<int>,std::allocator<std::pair<int const ,tagPetStatBaseInfo> >,0>::_Kfn<int const ,tagPetStatBaseInfo>
; Function compile flags: /Ogsp
; File c:\program files (x86)\microsoft visual studio 10.0\vc\include\map
;	COMDAT ??$_Kfn@$$CBHUtagPetStatBaseInfo@@@?$_Tmap_traits@HUtagPetStatBaseInfo@@U?$less@H@std@@V?$allocator@U?$pair@$$CBHUtagPetStatBaseInfo@@@std@@@3@$0A@@std@@SAABHABU?$pair@$$CBHUtagPetStatBaseInfo@@@1@@Z
_TEXT	SEGMENT
__Val$ = 8						; size = 4
??$_Kfn@$$CBHUtagPetStatBaseInfo@@@?$_Tmap_traits@HUtagPetStatBaseInfo@@U?$less@H@std@@V?$allocator@U?$pair@$$CBHUtagPetStatBaseInfo@@@std@@@3@$0A@@std@@SAABHABU?$pair@$$CBHUtagPetStatBaseInfo@@@1@@Z PROC ; std::_Tmap_traits<int,tagPetStatBaseInfo,std::less<int>,std::allocator<std::pair<int const ,tagPetStatBaseInfo> >,0>::_Kfn<int const ,tagPetStatBaseInfo>, COMDAT

; 66   : 		static const _Kty& _Kfn(const _STD pair<_Ty1, _Ty2>& _Val)

  00000	55		 push	 ebp
  00001	8b ec		 mov	 ebp, esp

; 67   : 		{	// extract key from element value
; 68   : 		return (_Val.first);

  00003	8b 45 08	 mov	 eax, DWORD PTR __Val$[ebp]

; 69   : 		}

  00006	5d		 pop	 ebp
  00007	c3		 ret	 0
??$_Kfn@$$CBHUtagPetStatBaseInfo@@@?$_Tmap_traits@HUtagPetStatBaseInfo@@U?$less@H@std@@V?$allocator@U?$pair@$$CBHUtagPetStatBaseInfo@@@std@@@3@$0A@@std@@SAABHABU?$pair@$$CBHUtagPetStatBaseInfo@@@1@@Z ENDP ; std::_Tmap_traits<int,tagPetStatBaseInfo,std::less<int>,std::allocator<std::pair<int const ,tagPetStatBaseInfo> >,0>::_Kfn<int const ,tagPetStatBaseInfo>
_TEXT	ENDS
PUBLIC	??$_Allocate@UtagPetViewInfo@@@std@@YAPAUtagPetViewInfo@@IPAU1@@Z ; std::_Allocate<tagPetViewInfo>
; Function compile flags: /Ogsp
; File c:\program files (x86)\microsoft visual studio 10.0\vc\include\xmemory
;	COMDAT ??$_Allocate@UtagPetViewInfo@@@std@@YAPAUtagPetViewInfo@@IPAU1@@Z
_TEXT	SEGMENT
$T515205 = -12						; size = 12
$T515209 = 8						; size = 4
__Count$ = 8						; size = 4
___formal$ = 12						; size = 4
??$_Allocate@UtagPetViewInfo@@@std@@YAPAUtagPetViewInfo@@IPAU1@@Z PROC ; std::_Allocate<tagPetViewInfo>, COMDAT

; 30   : 	{	// allocate storage for _Count elements of type _Ty

  00000	55		 push	 ebp
  00001	8b ec		 mov	 ebp, esp

; 31   : 	void *_Ptr = 0;
; 32   : 
; 33   : 	if (_Count <= 0)

  00003	8b 4d 08	 mov	 ecx, DWORD PTR __Count$[ebp]
  00006	83 ec 0c	 sub	 esp, 12			; 0000000cH
  00009	33 c0		 xor	 eax, eax
  0000b	85 c9		 test	 ecx, ecx

; 34   : 		_Count = 0;
; 35   : 	else if (((_SIZT)(-1) / sizeof (_Ty) < _Count)

  0000d	74 3c		 je	 SHORT $LN5@Allocate@2

; 36   : 		|| (_Ptr = ::operator new(_Count * sizeof (_Ty))) == 0)

  0000f	81 f9 33 33 33
	03		 cmp	 ecx, 53687091		; 03333333H
  00015	77 0e		 ja	 SHORT $LN1@Allocate@2
  00017	6b c9 50	 imul	 ecx, 80			; 00000050H
  0001a	51		 push	 ecx
  0001b	e8 00 00 00 00	 call	 ??2@YAPAXI@Z		; operator new
  00020	59		 pop	 ecx
  00021	85 c0		 test	 eax, eax

; 38   : 
; 39   : 	return ((_Ty _FARQ *)_Ptr);

  00023	75 26		 jne	 SHORT $LN5@Allocate@2
$LN1@Allocate@2:

; 37   : 		_THROW_NCEE(bad_alloc, 0);

  00025	83 65 08 00	 and	 DWORD PTR $T515209[ebp], 0
  00029	8d 45 08	 lea	 eax, DWORD PTR $T515209[ebp]
  0002c	50		 push	 eax
  0002d	8d 4d f4	 lea	 ecx, DWORD PTR $T515205[ebp]
  00030	ff 15 00 00 00
	00		 call	 DWORD PTR __imp_??0exception@std@@QAE@ABQBD@Z
  00036	68 00 00 00 00	 push	 OFFSET __TI2?AVbad_alloc@std@@
  0003b	8d 45 f4	 lea	 eax, DWORD PTR $T515205[ebp]
  0003e	50		 push	 eax
  0003f	c7 45 f4 00 00
	00 00		 mov	 DWORD PTR $T515205[ebp], OFFSET ??_7bad_alloc@std@@6B@
  00046	e8 00 00 00 00	 call	 __CxxThrowException@8
$LN10@Allocate@2:
$LN5@Allocate@2:

; 40   : 	}

  0004b	c9		 leave
  0004c	c3		 ret	 0
$LN9@Allocate@2:
??$_Allocate@UtagPetViewInfo@@@std@@YAPAUtagPetViewInfo@@IPAU1@@Z ENDP ; std::_Allocate<tagPetViewInfo>
_TEXT	ENDS
PUBLIC	??$?0U?$pair@$$CBHUtagPetAddStatInfo@@@std@@@?$allocator@U_Node@?$_Tree_nod@V?$_Tmap_traits@HUtagPetAddStatInfo@@U?$less@H@std@@V?$allocator@U?$pair@$$CBHUtagPetAddStatInfo@@@std@@@3@$0A@@std@@@std@@@std@@QAE@ABV?$allocator@U?$pair@$$CBHUtagPetAddStatInfo@@@std@@@1@@Z ; std::allocator<std::_Tree_nod<std::_Tmap_traits<int,tagPetAddStatInfo,std::less<int>,std::allocator<std::pair<int const ,tagPetAddStatInfo> >,0> >::_Node>::allocator<std::_Tree_nod<std::_Tmap_traits<int,tagPetAddStatInfo,std::less<int>,std::allocator<std::pair<int const ,tagPetAddStatInfo> >,0> >::_Node><std::pair<int const ,tagPetAddStatInfo> >
; Function compile flags: /Ogsp
;	COMDAT ??$?0U?$pair@$$CBHUtagPetAddStatInfo@@@std@@@?$allocator@U_Node@?$_Tree_nod@V?$_Tmap_traits@HUtagPetAddStatInfo@@U?$less@H@std@@V?$allocator@U?$pair@$$CBHUtagPetAddStatInfo@@@std@@@3@$0A@@std@@@std@@@std@@QAE@ABV?$allocator@U?$pair@$$CBHUtagPetAddStatInfo@@@std@@@1@@Z
_TEXT	SEGMENT
___formal$ = 8						; size = 4
??$?0U?$pair@$$CBHUtagPetAddStatInfo@@@std@@@?$allocator@U_Node@?$_Tree_nod@V?$_Tmap_traits@HUtagPetAddStatInfo@@U?$less@H@std@@V?$allocator@U?$pair@$$CBHUtagPetAddStatInfo@@@std@@@3@$0A@@std@@@std@@@std@@QAE@ABV?$allocator@U?$pair@$$CBHUtagPetAddStatInfo@@@std@@@1@@Z PROC ; std::allocator<std::_Tree_nod<std::_Tmap_traits<int,tagPetAddStatInfo,std::less<int>,std::allocator<std::pair<int const ,tagPetAddStatInfo> >,0> >::_Node>::allocator<std::_Tree_nod<std::_Tmap_traits<int,tagPetAddStatInfo,std::less<int>,std::allocator<std::pair<int const ,tagPetAddStatInfo> >,0> >::_Node><std::pair<int const ,tagPetAddStatInfo> >, COMDAT
; _this$ = ecx

; 170  : 		_ALLOCATOR(const _ALLOCATOR<_Other>&) _THROW0()

  00000	8b c1		 mov	 eax, ecx

; 171  : 		{	// construct from a related allocator (do nothing)
; 172  : 		}

  00002	c2 04 00	 ret	 4
??$?0U?$pair@$$CBHUtagPetAddStatInfo@@@std@@@?$allocator@U_Node@?$_Tree_nod@V?$_Tmap_traits@HUtagPetAddStatInfo@@U?$less@H@std@@V?$allocator@U?$pair@$$CBHUtagPetAddStatInfo@@@std@@@3@$0A@@std@@@std@@@std@@QAE@ABV?$allocator@U?$pair@$$CBHUtagPetAddStatInfo@@@std@@@1@@Z ENDP ; std::allocator<std::_Tree_nod<std::_Tmap_traits<int,tagPetAddStatInfo,std::less<int>,std::allocator<std::pair<int const ,tagPetAddStatInfo> >,0> >::_Node>::allocator<std::_Tree_nod<std::_Tmap_traits<int,tagPetAddStatInfo,std::less<int>,std::allocator<std::pair<int const ,tagPetAddStatInfo> >,0> >::_Node><std::pair<int const ,tagPetAddStatInfo> >
_TEXT	ENDS
PUBLIC	??$_Allocate@U_Node@?$_Tree_nod@V?$_Tmap_traits@HUtagPetAddStatInfo@@U?$less@H@std@@V?$allocator@U?$pair@$$CBHUtagPetAddStatInfo@@@std@@@3@$0A@@std@@@std@@@std@@YAPAU_Node@?$_Tree_nod@V?$_Tmap_traits@HUtagPetAddStatInfo@@U?$less@H@std@@V?$allocator@U?$pair@$$CBHUtagPetAddStatInfo@@@std@@@3@$0A@@std@@@0@IPAU120@@Z ; std::_Allocate<std::_Tree_nod<std::_Tmap_traits<int,tagPetAddStatInfo,std::less<int>,std::allocator<std::pair<int const ,tagPetAddStatInfo> >,0> >::_Node>
; Function compile flags: /Ogsp
;	COMDAT ??$_Allocate@U_Node@?$_Tree_nod@V?$_Tmap_traits@HUtagPetAddStatInfo@@U?$less@H@std@@V?$allocator@U?$pair@$$CBHUtagPetAddStatInfo@@@std@@@3@$0A@@std@@@std@@@std@@YAPAU_Node@?$_Tree_nod@V?$_Tmap_traits@HUtagPetAddStatInfo@@U?$less@H@std@@V?$allocator@U?$pair@$$CBHUtagPetAddStatInfo@@@std@@@3@$0A@@std@@@0@IPAU120@@Z
_TEXT	SEGMENT
$T515217 = -12						; size = 12
$T515221 = 8						; size = 4
__Count$ = 8						; size = 4
___formal$ = 12						; size = 4
??$_Allocate@U_Node@?$_Tree_nod@V?$_Tmap_traits@HUtagPetAddStatInfo@@U?$less@H@std@@V?$allocator@U?$pair@$$CBHUtagPetAddStatInfo@@@std@@@3@$0A@@std@@@std@@@std@@YAPAU_Node@?$_Tree_nod@V?$_Tmap_traits@HUtagPetAddStatInfo@@U?$less@H@std@@V?$allocator@U?$pair@$$CBHUtagPetAddStatInfo@@@std@@@3@$0A@@std@@@0@IPAU120@@Z PROC ; std::_Allocate<std::_Tree_nod<std::_Tmap_traits<int,tagPetAddStatInfo,std::less<int>,std::allocator<std::pair<int const ,tagPetAddStatInfo> >,0> >::_Node>, COMDAT

; 30   : 	{	// allocate storage for _Count elements of type _Ty

  00000	55		 push	 ebp
  00001	8b ec		 mov	 ebp, esp

; 31   : 	void *_Ptr = 0;
; 32   : 
; 33   : 	if (_Count <= 0)

  00003	8b 4d 08	 mov	 ecx, DWORD PTR __Count$[ebp]
  00006	83 ec 0c	 sub	 esp, 12			; 0000000cH
  00009	33 c0		 xor	 eax, eax
  0000b	85 c9		 test	 ecx, ecx

; 34   : 		_Count = 0;
; 35   : 	else if (((_SIZT)(-1) / sizeof (_Ty) < _Count)

  0000d	74 3c		 je	 SHORT $LN5@Allocate@3

; 36   : 		|| (_Ptr = ::operator new(_Count * sizeof (_Ty))) == 0)

  0000f	81 f9 49 92 24
	09		 cmp	 ecx, 153391689		; 09249249H
  00015	77 0e		 ja	 SHORT $LN1@Allocate@3
  00017	6b c9 1c	 imul	 ecx, 28			; 0000001cH
  0001a	51		 push	 ecx
  0001b	e8 00 00 00 00	 call	 ??2@YAPAXI@Z		; operator new
  00020	59		 pop	 ecx
  00021	85 c0		 test	 eax, eax

; 38   : 
; 39   : 	return ((_Ty _FARQ *)_Ptr);

  00023	75 26		 jne	 SHORT $LN5@Allocate@3
$LN1@Allocate@3:

; 37   : 		_THROW_NCEE(bad_alloc, 0);

  00025	83 65 08 00	 and	 DWORD PTR $T515221[ebp], 0
  00029	8d 45 08	 lea	 eax, DWORD PTR $T515221[ebp]
  0002c	50		 push	 eax
  0002d	8d 4d f4	 lea	 ecx, DWORD PTR $T515217[ebp]
  00030	ff 15 00 00 00
	00		 call	 DWORD PTR __imp_??0exception@std@@QAE@ABQBD@Z
  00036	68 00 00 00 00	 push	 OFFSET __TI2?AVbad_alloc@std@@
  0003b	8d 45 f4	 lea	 eax, DWORD PTR $T515217[ebp]
  0003e	50		 push	 eax
  0003f	c7 45 f4 00 00
	00 00		 mov	 DWORD PTR $T515217[ebp], OFFSET ??_7bad_alloc@std@@6B@
  00046	e8 00 00 00 00	 call	 __CxxThrowException@8
$LN10@Allocate@3:
$LN5@Allocate@3:

; 40   : 	}

  0004b	c9		 leave
  0004c	c3		 ret	 0
$LN9@Allocate@3:
??$_Allocate@U_Node@?$_Tree_nod@V?$_Tmap_traits@HUtagPetAddStatInfo@@U?$less@H@std@@V?$allocator@U?$pair@$$CBHUtagPetAddStatInfo@@@std@@@3@$0A@@std@@@std@@@std@@YAPAU_Node@?$_Tree_nod@V?$_Tmap_traits@HUtagPetAddStatInfo@@U?$less@H@std@@V?$allocator@U?$pair@$$CBHUtagPetAddStatInfo@@@std@@@3@$0A@@std@@@0@IPAU120@@Z ENDP ; std::_Allocate<std::_Tree_nod<std::_Tmap_traits<int,tagPetAddStatInfo,std::less<int>,std::allocator<std::pair<int const ,tagPetAddStatInfo> >,0> >::_Node>
_TEXT	ENDS
PUBLIC	??$?0U?$pair@$$CBHUtagPetStatBaseInfo@@@std@@@?$allocator@U_Node@?$_Tree_nod@V?$_Tmap_traits@HUtagPetStatBaseInfo@@U?$less@H@std@@V?$allocator@U?$pair@$$CBHUtagPetStatBaseInfo@@@std@@@3@$0A@@std@@@std@@@std@@QAE@ABV?$allocator@U?$pair@$$CBHUtagPetStatBaseInfo@@@std@@@1@@Z ; std::allocator<std::_Tree_nod<std::_Tmap_traits<int,tagPetStatBaseInfo,std::less<int>,std::allocator<std::pair<int const ,tagPetStatBaseInfo> >,0> >::_Node>::allocator<std::_Tree_nod<std::_Tmap_traits<int,tagPetStatBaseInfo,std::less<int>,std::allocator<std::pair<int const ,tagPetStatBaseInfo> >,0> >::_Node><std::pair<int const ,tagPetStatBaseInfo> >
; Function compile flags: /Ogsp
;	COMDAT ??$?0U?$pair@$$CBHUtagPetStatBaseInfo@@@std@@@?$allocator@U_Node@?$_Tree_nod@V?$_Tmap_traits@HUtagPetStatBaseInfo@@U?$less@H@std@@V?$allocator@U?$pair@$$CBHUtagPetStatBaseInfo@@@std@@@3@$0A@@std@@@std@@@std@@QAE@ABV?$allocator@U?$pair@$$CBHUtagPetStatBaseInfo@@@std@@@1@@Z
_TEXT	SEGMENT
___formal$ = 8						; size = 4
??$?0U?$pair@$$CBHUtagPetStatBaseInfo@@@std@@@?$allocator@U_Node@?$_Tree_nod@V?$_Tmap_traits@HUtagPetStatBaseInfo@@U?$less@H@std@@V?$allocator@U?$pair@$$CBHUtagPetStatBaseInfo@@@std@@@3@$0A@@std@@@std@@@std@@QAE@ABV?$allocator@U?$pair@$$CBHUtagPetStatBaseInfo@@@std@@@1@@Z PROC ; std::allocator<std::_Tree_nod<std::_Tmap_traits<int,tagPetStatBaseInfo,std::less<int>,std::allocator<std::pair<int const ,tagPetStatBaseInfo> >,0> >::_Node>::allocator<std::_Tree_nod<std::_Tmap_traits<int,tagPetStatBaseInfo,std::less<int>,std::allocator<std::pair<int const ,tagPetStatBaseInfo> >,0> >::_Node><std::pair<int const ,tagPetStatBaseInfo> >, COMDAT
; _this$ = ecx

; 170  : 		_ALLOCATOR(const _ALLOCATOR<_Other>&) _THROW0()

  00000	8b c1		 mov	 eax, ecx

; 171  : 		{	// construct from a related allocator (do nothing)
; 172  : 		}

  00002	c2 04 00	 ret	 4
??$?0U?$pair@$$CBHUtagPetStatBaseInfo@@@std@@@?$allocator@U_Node@?$_Tree_nod@V?$_Tmap_traits@HUtagPetStatBaseInfo@@U?$less@H@std@@V?$allocator@U?$pair@$$CBHUtagPetStatBaseInfo@@@std@@@3@$0A@@std@@@std@@@std@@QAE@ABV?$allocator@U?$pair@$$CBHUtagPetStatBaseInfo@@@std@@@1@@Z ENDP ; std::allocator<std::_Tree_nod<std::_Tmap_traits<int,tagPetStatBaseInfo,std::less<int>,std::allocator<std::pair<int const ,tagPetStatBaseInfo> >,0> >::_Node>::allocator<std::_Tree_nod<std::_Tmap_traits<int,tagPetStatBaseInfo,std::less<int>,std::allocator<std::pair<int const ,tagPetStatBaseInfo> >,0> >::_Node><std::pair<int const ,tagPetStatBaseInfo> >
_TEXT	ENDS
PUBLIC	??$_Allocate@U_Node@?$_Tree_nod@V?$_Tmap_traits@HUtagPetStatBaseInfo@@U?$less@H@std@@V?$allocator@U?$pair@$$CBHUtagPetStatBaseInfo@@@std@@@3@$0A@@std@@@std@@@std@@YAPAU_Node@?$_Tree_nod@V?$_Tmap_traits@HUtagPetStatBaseInfo@@U?$less@H@std@@V?$allocator@U?$pair@$$CBHUtagPetStatBaseInfo@@@std@@@3@$0A@@std@@@0@IPAU120@@Z ; std::_Allocate<std::_Tree_nod<std::_Tmap_traits<int,tagPetStatBaseInfo,std::less<int>,std::allocator<std::pair<int const ,tagPetStatBaseInfo> >,0> >::_Node>
; Function compile flags: /Ogsp
;	COMDAT ??$_Allocate@U_Node@?$_Tree_nod@V?$_Tmap_traits@HUtagPetStatBaseInfo@@U?$less@H@std@@V?$allocator@U?$pair@$$CBHUtagPetStatBaseInfo@@@std@@@3@$0A@@std@@@std@@@std@@YAPAU_Node@?$_Tree_nod@V?$_Tmap_traits@HUtagPetStatBaseInfo@@U?$less@H@std@@V?$allocator@U?$pair@$$CBHUtagPetStatBaseInfo@@@std@@@3@$0A@@std@@@0@IPAU120@@Z
_TEXT	SEGMENT
$T515229 = -12						; size = 12
$T515233 = 8						; size = 4
__Count$ = 8						; size = 4
___formal$ = 12						; size = 4
??$_Allocate@U_Node@?$_Tree_nod@V?$_Tmap_traits@HUtagPetStatBaseInfo@@U?$less@H@std@@V?$allocator@U?$pair@$$CBHUtagPetStatBaseInfo@@@std@@@3@$0A@@std@@@std@@@std@@YAPAU_Node@?$_Tree_nod@V?$_Tmap_traits@HUtagPetStatBaseInfo@@U?$less@H@std@@V?$allocator@U?$pair@$$CBHUtagPetStatBaseInfo@@@std@@@3@$0A@@std@@@0@IPAU120@@Z PROC ; std::_Allocate<std::_Tree_nod<std::_Tmap_traits<int,tagPetStatBaseInfo,std::less<int>,std::allocator<std::pair<int const ,tagPetStatBaseInfo> >,0> >::_Node>, COMDAT

; 30   : 	{	// allocate storage for _Count elements of type _Ty

  00000	55		 push	 ebp
  00001	8b ec		 mov	 ebp, esp

; 31   : 	void *_Ptr = 0;
; 32   : 
; 33   : 	if (_Count <= 0)

  00003	8b 4d 08	 mov	 ecx, DWORD PTR __Count$[ebp]
  00006	83 ec 0c	 sub	 esp, 12			; 0000000cH
  00009	33 c0		 xor	 eax, eax
  0000b	85 c9		 test	 ecx, ecx

; 34   : 		_Count = 0;
; 35   : 	else if (((_SIZT)(-1) / sizeof (_Ty) < _Count)

  0000d	74 3c		 je	 SHORT $LN5@Allocate@4

; 36   : 		|| (_Ptr = ::operator new(_Count * sizeof (_Ty))) == 0)

  0000f	81 f9 c3 30 0c
	03		 cmp	 ecx, 51130563		; 030c30c3H
  00015	77 0e		 ja	 SHORT $LN1@Allocate@4
  00017	6b c9 54	 imul	 ecx, 84			; 00000054H
  0001a	51		 push	 ecx
  0001b	e8 00 00 00 00	 call	 ??2@YAPAXI@Z		; operator new
  00020	59		 pop	 ecx
  00021	85 c0		 test	 eax, eax

; 38   : 
; 39   : 	return ((_Ty _FARQ *)_Ptr);

  00023	75 26		 jne	 SHORT $LN5@Allocate@4
$LN1@Allocate@4:

; 37   : 		_THROW_NCEE(bad_alloc, 0);

  00025	83 65 08 00	 and	 DWORD PTR $T515233[ebp], 0
  00029	8d 45 08	 lea	 eax, DWORD PTR $T515233[ebp]
  0002c	50		 push	 eax
  0002d	8d 4d f4	 lea	 ecx, DWORD PTR $T515229[ebp]
  00030	ff 15 00 00 00
	00		 call	 DWORD PTR __imp_??0exception@std@@QAE@ABQBD@Z
  00036	68 00 00 00 00	 push	 OFFSET __TI2?AVbad_alloc@std@@
  0003b	8d 45 f4	 lea	 eax, DWORD PTR $T515229[ebp]
  0003e	50		 push	 eax
  0003f	c7 45 f4 00 00
	00 00		 mov	 DWORD PTR $T515229[ebp], OFFSET ??_7bad_alloc@std@@6B@
  00046	e8 00 00 00 00	 call	 __CxxThrowException@8
$LN10@Allocate@4:
$LN5@Allocate@4:

; 40   : 	}

  0004b	c9		 leave
  0004c	c3		 ret	 0
$LN9@Allocate@4:
??$_Allocate@U_Node@?$_Tree_nod@V?$_Tmap_traits@HUtagPetStatBaseInfo@@U?$less@H@std@@V?$allocator@U?$pair@$$CBHUtagPetStatBaseInfo@@@std@@@3@$0A@@std@@@std@@@std@@YAPAU_Node@?$_Tree_nod@V?$_Tmap_traits@HUtagPetStatBaseInfo@@U?$less@H@std@@V?$allocator@U?$pair@$$CBHUtagPetStatBaseInfo@@@std@@@3@$0A@@std@@@0@IPAU120@@Z ENDP ; std::_Allocate<std::_Tree_nod<std::_Tmap_traits<int,tagPetStatBaseInfo,std::less<int>,std::allocator<std::pair<int const ,tagPetStatBaseInfo> >,0> >::_Node>
_TEXT	ENDS
PUBLIC	?max_size@?$allocator@U?$pair@$$CBHUtagPetAddStatInfo@@@std@@@std@@QBEIXZ ; std::allocator<std::pair<int const ,tagPetAddStatInfo> >::max_size
; Function compile flags: /Ogsp
;	COMDAT ?max_size@?$allocator@U?$pair@$$CBHUtagPetAddStatInfo@@@std@@@std@@QBEIXZ
_TEXT	SEGMENT
?max_size@?$allocator@U?$pair@$$CBHUtagPetAddStatInfo@@@std@@@std@@QBEIXZ PROC ; std::allocator<std::pair<int const ,tagPetAddStatInfo> >::max_size, COMDAT
; _this$ = ecx

; 218  : 		_SIZT _Count = (_SIZT)(-1) / sizeof (_Ty);
; 219  : 		return (0 < _Count ? _Count : 1);

  00000	b8 55 55 55 15	 mov	 eax, 357913941		; 15555555H

; 220  : 		}

  00005	c3		 ret	 0
?max_size@?$allocator@U?$pair@$$CBHUtagPetAddStatInfo@@@std@@@std@@QBEIXZ ENDP ; std::allocator<std::pair<int const ,tagPetAddStatInfo> >::max_size
_TEXT	ENDS
PUBLIC	?max_size@?$allocator@U?$pair@$$CBHUtagPetStatBaseInfo@@@std@@@std@@QBEIXZ ; std::allocator<std::pair<int const ,tagPetStatBaseInfo> >::max_size
; Function compile flags: /Ogsp
;	COMDAT ?max_size@?$allocator@U?$pair@$$CBHUtagPetStatBaseInfo@@@std@@@std@@QBEIXZ
_TEXT	SEGMENT
?max_size@?$allocator@U?$pair@$$CBHUtagPetStatBaseInfo@@@std@@@std@@QBEIXZ PROC ; std::allocator<std::pair<int const ,tagPetStatBaseInfo> >::max_size, COMDAT
; _this$ = ecx

; 218  : 		_SIZT _Count = (_SIZT)(-1) / sizeof (_Ty);
; 219  : 		return (0 < _Count ? _Count : 1);

  00000	b8 c3 c3 c3 03	 mov	 eax, 63161283		; 03c3c3c3H

; 220  : 		}

  00005	c3		 ret	 0
?max_size@?$allocator@U?$pair@$$CBHUtagPetStatBaseInfo@@@std@@@std@@QBEIXZ ENDP ; std::allocator<std::pair<int const ,tagPetStatBaseInfo> >::max_size
_TEXT	ENDS
PUBLIC	??F?$_Tree_unchecked_const_iterator@V?$_Tree_val@V?$_Tmap_traits@HUtagPetStatBaseInfo@@U?$less@H@std@@V?$allocator@U?$pair@$$CBHUtagPetStatBaseInfo@@@std@@@3@$0A@@std@@@std@@U_Iterator_base0@2@@std@@QAEAAV01@XZ ; std::_Tree_unchecked_const_iterator<std::_Tree_val<std::_Tmap_traits<int,tagPetStatBaseInfo,std::less<int>,std::allocator<std::pair<int const ,tagPetStatBaseInfo> >,0> >,std::_Iterator_base0>::operator--
; Function compile flags: /Ogsp
; File c:\program files (x86)\microsoft visual studio 10.0\vc\include\xtree
;	COMDAT ??F?$_Tree_unchecked_const_iterator@V?$_Tree_val@V?$_Tmap_traits@HUtagPetStatBaseInfo@@U?$less@H@std@@V?$allocator@U?$pair@$$CBHUtagPetStatBaseInfo@@@std@@@3@$0A@@std@@@std@@U_Iterator_base0@2@@std@@QAEAAV01@XZ
_TEXT	SEGMENT
??F?$_Tree_unchecked_const_iterator@V?$_Tree_val@V?$_Tmap_traits@HUtagPetStatBaseInfo@@U?$less@H@std@@V?$allocator@U?$pair@$$CBHUtagPetStatBaseInfo@@@std@@@3@$0A@@std@@@std@@U_Iterator_base0@2@@std@@QAEAAV01@XZ PROC ; std::_Tree_unchecked_const_iterator<std::_Tree_val<std::_Tmap_traits<int,tagPetStatBaseInfo,std::less<int>,std::allocator<std::pair<int const ,tagPetStatBaseInfo> >,0> >,std::_Iterator_base0>::operator--, COMDAT
; _this$ = ecx

; 83   : 		{	// predecrement

  00000	8b c1		 mov	 eax, ecx

; 84   : 		if (_Mytree::_Isnil(_Ptr))

  00002	8b 08		 mov	 ecx, DWORD PTR [eax]
  00004	53		 push	 ebx
  00005	32 db		 xor	 bl, bl
  00007	38 59 51	 cmp	 BYTE PTR [ecx+81], bl
  0000a	74 07		 je	 SHORT $LN8@operator@2

; 85   : 			_Ptr = _Mytree::_Right(_Ptr);	// end() ==> rightmost

  0000c	8b 49 08	 mov	 ecx, DWORD PTR [ecx+8]
  0000f	89 08		 mov	 DWORD PTR [eax], ecx
  00011	5b		 pop	 ebx

; 99   : 			}
; 100  : 		return (*this);
; 101  : 		}

  00012	c3		 ret	 0
$LN8@operator@2:

; 86   : 		else if (!_Mytree::_Isnil(_Mytree::_Left(_Ptr)))

  00013	8b 11		 mov	 edx, DWORD PTR [ecx]
  00015	38 5a 51	 cmp	 BYTE PTR [edx+81], bl
  00018	74 07		 je	 SHORT $LN44@operator@2

; 90   : 			{	// climb looking for left subtree
; 91   : 			_Nodeptr _Pnode;
; 92   : 			while (!_Mytree::_Isnil(_Pnode = _Mytree::_Parent(_Ptr))
; 93   : 				&& _Ptr == _Mytree::_Left(_Pnode))

  0001a	8b 51 04	 mov	 edx, DWORD PTR [ecx+4]
  0001d	eb 17		 jmp	 SHORT $LN46@operator@2

; 87   : 			_Ptr = _Mytree::_Max(
; 88   : 				_Mytree::_Left(_Ptr));	// ==> largest of left subtree

$LL22@operator@2:
  0001f	8b d1		 mov	 edx, ecx
$LN44@operator@2:
  00021	8b 4a 08	 mov	 ecx, DWORD PTR [edx+8]
  00024	38 59 51	 cmp	 BYTE PTR [ecx+81], bl
  00027	74 f6		 je	 SHORT $LL22@operator@2

; 89   : 		else

  00029	eb 17		 jmp	 SHORT $LN45@operator@2
$LL4@operator@2:

; 90   : 			{	// climb looking for left subtree
; 91   : 			_Nodeptr _Pnode;
; 92   : 			while (!_Mytree::_Isnil(_Pnode = _Mytree::_Parent(_Ptr))
; 93   : 				&& _Ptr == _Mytree::_Left(_Pnode))

  0002b	8b 08		 mov	 ecx, DWORD PTR [eax]
  0002d	3b 0a		 cmp	 ecx, DWORD PTR [edx]
  0002f	75 0a		 jne	 SHORT $LN3@operator@2

; 94   : 				_Ptr = _Pnode;	// ==> parent while left subtree

  00031	89 10		 mov	 DWORD PTR [eax], edx
  00033	8b 52 04	 mov	 edx, DWORD PTR [edx+4]
$LN46@operator@2:

; 90   : 			{	// climb looking for left subtree
; 91   : 			_Nodeptr _Pnode;
; 92   : 			while (!_Mytree::_Isnil(_Pnode = _Mytree::_Parent(_Ptr))
; 93   : 				&& _Ptr == _Mytree::_Left(_Pnode))

  00036	38 5a 51	 cmp	 BYTE PTR [edx+81], bl
  00039	74 f0		 je	 SHORT $LL4@operator@2
$LN3@operator@2:

; 95   : 			if (_Mytree::_Isnil(_Ptr))

  0003b	8b 08		 mov	 ecx, DWORD PTR [eax]
  0003d	38 59 51	 cmp	 BYTE PTR [ecx+81], bl
  00040	75 02		 jne	 SHORT $LN1@operator@2
$LN45@operator@2:

; 96   : 				;	// begin() shouldn't be decremented, don't move
; 97   : 			else
; 98   : 				_Ptr = _Pnode;	// ==> parent if not head

  00042	89 10		 mov	 DWORD PTR [eax], edx
$LN1@operator@2:
  00044	5b		 pop	 ebx

; 99   : 			}
; 100  : 		return (*this);
; 101  : 		}

  00045	c3		 ret	 0
??F?$_Tree_unchecked_const_iterator@V?$_Tree_val@V?$_Tmap_traits@HUtagPetStatBaseInfo@@U?$less@H@std@@V?$allocator@U?$pair@$$CBHUtagPetStatBaseInfo@@@std@@@3@$0A@@std@@@std@@U_Iterator_base0@2@@std@@QAEAAV01@XZ ENDP ; std::_Tree_unchecked_const_iterator<std::_Tree_val<std::_Tmap_traits<int,tagPetStatBaseInfo,std::less<int>,std::allocator<std::pair<int const ,tagPetStatBaseInfo> >,0> >,std::_Iterator_base0>::operator--
_TEXT	ENDS
PUBLIC	??F?$_Tree_unchecked_const_iterator@V?$_Tree_val@V?$_Tmap_traits@HUtagPetAddStatInfo@@U?$less@H@std@@V?$allocator@U?$pair@$$CBHUtagPetAddStatInfo@@@std@@@3@$0A@@std@@@std@@U_Iterator_base0@2@@std@@QAEAAV01@XZ ; std::_Tree_unchecked_const_iterator<std::_Tree_val<std::_Tmap_traits<int,tagPetAddStatInfo,std::less<int>,std::allocator<std::pair<int const ,tagPetAddStatInfo> >,0> >,std::_Iterator_base0>::operator--
; Function compile flags: /Ogsp
;	COMDAT ??F?$_Tree_unchecked_const_iterator@V?$_Tree_val@V?$_Tmap_traits@HUtagPetAddStatInfo@@U?$less@H@std@@V?$allocator@U?$pair@$$CBHUtagPetAddStatInfo@@@std@@@3@$0A@@std@@@std@@U_Iterator_base0@2@@std@@QAEAAV01@XZ
_TEXT	SEGMENT
??F?$_Tree_unchecked_const_iterator@V?$_Tree_val@V?$_Tmap_traits@HUtagPetAddStatInfo@@U?$less@H@std@@V?$allocator@U?$pair@$$CBHUtagPetAddStatInfo@@@std@@@3@$0A@@std@@@std@@U_Iterator_base0@2@@std@@QAEAAV01@XZ PROC ; std::_Tree_unchecked_const_iterator<std::_Tree_val<std::_Tmap_traits<int,tagPetAddStatInfo,std::less<int>,std::allocator<std::pair<int const ,tagPetAddStatInfo> >,0> >,std::_Iterator_base0>::operator--, COMDAT
; _this$ = ecx

; 83   : 		{	// predecrement

  00000	8b c1		 mov	 eax, ecx

; 84   : 		if (_Mytree::_Isnil(_Ptr))

  00002	8b 08		 mov	 ecx, DWORD PTR [eax]
  00004	53		 push	 ebx
  00005	32 db		 xor	 bl, bl
  00007	38 59 19	 cmp	 BYTE PTR [ecx+25], bl
  0000a	74 07		 je	 SHORT $LN8@operator@3

; 85   : 			_Ptr = _Mytree::_Right(_Ptr);	// end() ==> rightmost

  0000c	8b 49 08	 mov	 ecx, DWORD PTR [ecx+8]
  0000f	89 08		 mov	 DWORD PTR [eax], ecx
  00011	5b		 pop	 ebx

; 99   : 			}
; 100  : 		return (*this);
; 101  : 		}

  00012	c3		 ret	 0
$LN8@operator@3:

; 86   : 		else if (!_Mytree::_Isnil(_Mytree::_Left(_Ptr)))

  00013	8b 11		 mov	 edx, DWORD PTR [ecx]
  00015	38 5a 19	 cmp	 BYTE PTR [edx+25], bl
  00018	74 07		 je	 SHORT $LN44@operator@3

; 90   : 			{	// climb looking for left subtree
; 91   : 			_Nodeptr _Pnode;
; 92   : 			while (!_Mytree::_Isnil(_Pnode = _Mytree::_Parent(_Ptr))
; 93   : 				&& _Ptr == _Mytree::_Left(_Pnode))

  0001a	8b 51 04	 mov	 edx, DWORD PTR [ecx+4]
  0001d	eb 17		 jmp	 SHORT $LN46@operator@3

; 87   : 			_Ptr = _Mytree::_Max(
; 88   : 				_Mytree::_Left(_Ptr));	// ==> largest of left subtree

$LL22@operator@3:
  0001f	8b d1		 mov	 edx, ecx
$LN44@operator@3:
  00021	8b 4a 08	 mov	 ecx, DWORD PTR [edx+8]
  00024	38 59 19	 cmp	 BYTE PTR [ecx+25], bl
  00027	74 f6		 je	 SHORT $LL22@operator@3

; 89   : 		else

  00029	eb 17		 jmp	 SHORT $LN45@operator@3
$LL4@operator@3:

; 90   : 			{	// climb looking for left subtree
; 91   : 			_Nodeptr _Pnode;
; 92   : 			while (!_Mytree::_Isnil(_Pnode = _Mytree::_Parent(_Ptr))
; 93   : 				&& _Ptr == _Mytree::_Left(_Pnode))

  0002b	8b 08		 mov	 ecx, DWORD PTR [eax]
  0002d	3b 0a		 cmp	 ecx, DWORD PTR [edx]
  0002f	75 0a		 jne	 SHORT $LN3@operator@3

; 94   : 				_Ptr = _Pnode;	// ==> parent while left subtree

  00031	89 10		 mov	 DWORD PTR [eax], edx
  00033	8b 52 04	 mov	 edx, DWORD PTR [edx+4]
$LN46@operator@3:

; 90   : 			{	// climb looking for left subtree
; 91   : 			_Nodeptr _Pnode;
; 92   : 			while (!_Mytree::_Isnil(_Pnode = _Mytree::_Parent(_Ptr))
; 93   : 				&& _Ptr == _Mytree::_Left(_Pnode))

  00036	38 5a 19	 cmp	 BYTE PTR [edx+25], bl
  00039	74 f0		 je	 SHORT $LL4@operator@3
$LN3@operator@3:

; 95   : 			if (_Mytree::_Isnil(_Ptr))

  0003b	8b 08		 mov	 ecx, DWORD PTR [eax]
  0003d	38 59 19	 cmp	 BYTE PTR [ecx+25], bl
  00040	75 02		 jne	 SHORT $LN1@operator@3
$LN45@operator@3:

; 96   : 				;	// begin() shouldn't be decremented, don't move
; 97   : 			else
; 98   : 				_Ptr = _Pnode;	// ==> parent if not head

  00042	89 10		 mov	 DWORD PTR [eax], edx
$LN1@operator@3:
  00044	5b		 pop	 ebx

; 99   : 			}
; 100  : 		return (*this);
; 101  : 		}

  00045	c3		 ret	 0
??F?$_Tree_unchecked_const_iterator@V?$_Tree_val@V?$_Tmap_traits@HUtagPetAddStatInfo@@U?$less@H@std@@V?$allocator@U?$pair@$$CBHUtagPetAddStatInfo@@@std@@@3@$0A@@std@@@std@@U_Iterator_base0@2@@std@@QAEAAV01@XZ ENDP ; std::_Tree_unchecked_const_iterator<std::_Tree_val<std::_Tmap_traits<int,tagPetAddStatInfo,std::less<int>,std::allocator<std::pair<int const ,tagPetAddStatInfo> >,0> >,std::_Iterator_base0>::operator--
_TEXT	ENDS
PUBLIC	??$forward@AAUtagPetAddStatInfo@@@std@@YAAAUtagPetAddStatInfo@@AAU1@@Z ; std::forward<tagPetAddStatInfo &>
; Function compile flags: /Ogsp
; File c:\program files (x86)\microsoft visual studio 10.0\vc\include\utility
;	COMDAT ??$forward@AAUtagPetAddStatInfo@@@std@@YAAAUtagPetAddStatInfo@@AAU1@@Z
_TEXT	SEGMENT
__Arg$ = 8						; size = 4
??$forward@AAUtagPetAddStatInfo@@@std@@YAAAUtagPetAddStatInfo@@AAU1@@Z PROC ; std::forward<tagPetAddStatInfo &>, COMDAT

; 78   : 	{	// forward _Arg, given explicitly specified type parameter

  00000	55		 push	 ebp
  00001	8b ec		 mov	 ebp, esp

; 79   : 	return ((_Ty&&)_Arg);

  00003	8b 45 08	 mov	 eax, DWORD PTR __Arg$[ebp]

; 80   : 	}

  00006	5d		 pop	 ebp
  00007	c3		 ret	 0
??$forward@AAUtagPetAddStatInfo@@@std@@YAAAUtagPetAddStatInfo@@AAU1@@Z ENDP ; std::forward<tagPetAddStatInfo &>
_TEXT	ENDS
PUBLIC	??$forward@U?$pair@HUtagPetAddStatInfo@@@std@@@std@@YA$$QAU?$pair@HUtagPetAddStatInfo@@@0@AAU10@@Z ; std::forward<std::pair<int,tagPetAddStatInfo> >
; Function compile flags: /Ogsp
;	COMDAT ??$forward@U?$pair@HUtagPetAddStatInfo@@@std@@@std@@YA$$QAU?$pair@HUtagPetAddStatInfo@@@0@AAU10@@Z
_TEXT	SEGMENT
__Arg$ = 8						; size = 4
??$forward@U?$pair@HUtagPetAddStatInfo@@@std@@@std@@YA$$QAU?$pair@HUtagPetAddStatInfo@@@0@AAU10@@Z PROC ; std::forward<std::pair<int,tagPetAddStatInfo> >, COMDAT

; 78   : 	{	// forward _Arg, given explicitly specified type parameter

  00000	55		 push	 ebp
  00001	8b ec		 mov	 ebp, esp

; 79   : 	return ((_Ty&&)_Arg);

  00003	8b 45 08	 mov	 eax, DWORD PTR __Arg$[ebp]

; 80   : 	}

  00006	5d		 pop	 ebp
  00007	c3		 ret	 0
??$forward@U?$pair@HUtagPetAddStatInfo@@@std@@@std@@YA$$QAU?$pair@HUtagPetAddStatInfo@@@0@AAU10@@Z ENDP ; std::forward<std::pair<int,tagPetAddStatInfo> >
_TEXT	ENDS
PUBLIC	??$forward@AAUtagPetStatBaseInfo@@@std@@YAAAUtagPetStatBaseInfo@@AAU1@@Z ; std::forward<tagPetStatBaseInfo &>
; Function compile flags: /Ogsp
;	COMDAT ??$forward@AAUtagPetStatBaseInfo@@@std@@YAAAUtagPetStatBaseInfo@@AAU1@@Z
_TEXT	SEGMENT
__Arg$ = 8						; size = 4
??$forward@AAUtagPetStatBaseInfo@@@std@@YAAAUtagPetStatBaseInfo@@AAU1@@Z PROC ; std::forward<tagPetStatBaseInfo &>, COMDAT

; 78   : 	{	// forward _Arg, given explicitly specified type parameter

  00000	55		 push	 ebp
  00001	8b ec		 mov	 ebp, esp

; 79   : 	return ((_Ty&&)_Arg);

  00003	8b 45 08	 mov	 eax, DWORD PTR __Arg$[ebp]

; 80   : 	}

  00006	5d		 pop	 ebp
  00007	c3		 ret	 0
??$forward@AAUtagPetStatBaseInfo@@@std@@YAAAUtagPetStatBaseInfo@@AAU1@@Z ENDP ; std::forward<tagPetStatBaseInfo &>
_TEXT	ENDS
PUBLIC	??$forward@U?$pair@HUtagPetStatBaseInfo@@@std@@@std@@YA$$QAU?$pair@HUtagPetStatBaseInfo@@@0@AAU10@@Z ; std::forward<std::pair<int,tagPetStatBaseInfo> >
; Function compile flags: /Ogsp
;	COMDAT ??$forward@U?$pair@HUtagPetStatBaseInfo@@@std@@@std@@YA$$QAU?$pair@HUtagPetStatBaseInfo@@@0@AAU10@@Z
_TEXT	SEGMENT
__Arg$ = 8						; size = 4
??$forward@U?$pair@HUtagPetStatBaseInfo@@@std@@@std@@YA$$QAU?$pair@HUtagPetStatBaseInfo@@@0@AAU10@@Z PROC ; std::forward<std::pair<int,tagPetStatBaseInfo> >, COMDAT

; 78   : 	{	// forward _Arg, given explicitly specified type parameter

  00000	55		 push	 ebp
  00001	8b ec		 mov	 ebp, esp

; 79   : 	return ((_Ty&&)_Arg);

  00003	8b 45 08	 mov	 eax, DWORD PTR __Arg$[ebp]

; 80   : 	}

  00006	5d		 pop	 ebp
  00007	c3		 ret	 0
??$forward@U?$pair@HUtagPetStatBaseInfo@@@std@@@std@@YA$$QAU?$pair@HUtagPetStatBaseInfo@@@0@AAU10@@Z ENDP ; std::forward<std::pair<int,tagPetStatBaseInfo> >
_TEXT	ENDS
PUBLIC	??$forward@ABH@std@@YAABHABH@Z			; std::forward<int const &>
; Function compile flags: /Ogsp
;	COMDAT ??$forward@ABH@std@@YAABHABH@Z
_TEXT	SEGMENT
__Arg$ = 8						; size = 4
??$forward@ABH@std@@YAABHABH@Z PROC			; std::forward<int const &>, COMDAT

; 78   : 	{	// forward _Arg, given explicitly specified type parameter

  00000	55		 push	 ebp
  00001	8b ec		 mov	 ebp, esp

; 79   : 	return ((_Ty&&)_Arg);

  00003	8b 45 08	 mov	 eax, DWORD PTR __Arg$[ebp]

; 80   : 	}

  00006	5d		 pop	 ebp
  00007	c3		 ret	 0
??$forward@ABH@std@@YAABHABH@Z ENDP			; std::forward<int const &>
_TEXT	ENDS
PUBLIC	??$forward@AAUtagPetViewInfo@@@std@@YAAAUtagPetViewInfo@@AAU1@@Z ; std::forward<tagPetViewInfo &>
; Function compile flags: /Ogsp
;	COMDAT ??$forward@AAUtagPetViewInfo@@@std@@YAAAUtagPetViewInfo@@AAU1@@Z
_TEXT	SEGMENT
__Arg$ = 8						; size = 4
??$forward@AAUtagPetViewInfo@@@std@@YAAAUtagPetViewInfo@@AAU1@@Z PROC ; std::forward<tagPetViewInfo &>, COMDAT

; 78   : 	{	// forward _Arg, given explicitly specified type parameter

  00000	55		 push	 ebp
  00001	8b ec		 mov	 ebp, esp

; 79   : 	return ((_Ty&&)_Arg);

  00003	8b 45 08	 mov	 eax, DWORD PTR __Arg$[ebp]

; 80   : 	}

  00006	5d		 pop	 ebp
  00007	c3		 ret	 0
??$forward@AAUtagPetViewInfo@@@std@@YAAAUtagPetViewInfo@@AAU1@@Z ENDP ; std::forward<tagPetViewInfo &>
_TEXT	ENDS
PUBLIC	??$construct@AAUtagPetViewInfo@@@?$allocator@UtagPetViewInfo@@@std@@QAEXPAUtagPetViewInfo@@AAU2@@Z ; std::allocator<tagPetViewInfo>::construct<tagPetViewInfo &>
;	COMDAT xdata$x
xdata$x	SEGMENT
__unwindtable$??$construct@AAUtagPetViewInfo@@@?$allocator@UtagPetViewInfo@@@std@@QAEXPAUtagPetViewInfo@@AAU2@@Z DD 0ffffffffH
	DD	FLAT:__unwindfunclet$??$construct@AAUtagPetViewInfo@@@?$allocator@UtagPetViewInfo@@@std@@QAEXPAUtagPetViewInfo@@AAU2@@Z$0
__ehfuncinfo$??$construct@AAUtagPetViewInfo@@@?$allocator@UtagPetViewInfo@@@std@@QAEXPAUtagPetViewInfo@@AAU2@@Z DD 019930522H
	DD	01H
	DD	FLAT:__unwindtable$??$construct@AAUtagPetViewInfo@@@?$allocator@UtagPetViewInfo@@@std@@QAEXPAUtagPetViewInfo@@AAU2@@Z
	DD	2 DUP(00H)
	DD	2 DUP(00H)
	DD	00H
	DD	01H
; Function compile flags: /Ogsp
; File c:\program files (x86)\microsoft visual studio 10.0\vc\include\xmemory
xdata$x	ENDS
;	COMDAT ??$construct@AAUtagPetViewInfo@@@?$allocator@UtagPetViewInfo@@@std@@QAEXPAUtagPetViewInfo@@AAU2@@Z
_TEXT	SEGMENT
$T515383 = -16						; size = 4
__$EHRec$ = -12						; size = 12
__Ptr$ = 8						; size = 4
__Val$ = 12						; size = 4
??$construct@AAUtagPetViewInfo@@@?$allocator@UtagPetViewInfo@@@std@@QAEXPAUtagPetViewInfo@@AAU2@@Z PROC ; std::allocator<tagPetViewInfo>::construct<tagPetViewInfo &>, COMDAT
; _this$ = ecx

; 206  : 		void construct(pointer _Ptr, _Other&& _Val)

  00000	6a 04		 push	 4
  00002	b8 00 00 00 00	 mov	 eax, __ehhandler$??$construct@AAUtagPetViewInfo@@@?$allocator@UtagPetViewInfo@@@std@@QAEXPAUtagPetViewInfo@@AAU2@@Z
  00007	e8 00 00 00 00	 call	 __EH_prolog3

; 207  : 		{	// construct object at _Ptr with value _Val
; 208  : 		::new ((void _FARQ *)_Ptr) _Ty(_STD forward<_Other>(_Val));

  0000c	8b 4d 08	 mov	 ecx, DWORD PTR __Ptr$[ebp]
  0000f	89 4d f0	 mov	 DWORD PTR $T515383[ebp], ecx
  00012	83 65 fc 00	 and	 DWORD PTR __$EHRec$[ebp+8], 0
  00016	85 c9		 test	 ecx, ecx
  00018	74 08		 je	 SHORT $LN3@construct
  0001a	ff 75 0c	 push	 DWORD PTR __Val$[ebp]
  0001d	e8 00 00 00 00	 call	 ??0tagPetViewInfo@@QAE@ABU0@@Z
$LN3@construct:

; 209  : 		}

  00022	e8 00 00 00 00	 call	 __EH_epilog3
  00027	c2 08 00	 ret	 8
_TEXT	ENDS
;	COMDAT text$x
text$x	SEGMENT
__unwindfunclet$??$construct@AAUtagPetViewInfo@@@?$allocator@UtagPetViewInfo@@@std@@QAEXPAUtagPetViewInfo@@AAU2@@Z$0:
  00000	ff 75 08	 push	 DWORD PTR __Ptr$[ebp]
  00003	ff 75 f0	 push	 DWORD PTR $T515383[ebp]
  00006	e8 00 00 00 00	 call	 ??3@YAXPAX0@Z		; operator delete
  0000b	59		 pop	 ecx
  0000c	59		 pop	 ecx
  0000d	c3		 ret	 0
__ehhandler$??$construct@AAUtagPetViewInfo@@@?$allocator@UtagPetViewInfo@@@std@@QAEXPAUtagPetViewInfo@@AAU2@@Z:
  0000e	8b 54 24 08	 mov	 edx, DWORD PTR [esp+8]
  00012	8d 42 0c	 lea	 eax, DWORD PTR [edx+12]
  00015	8b 4a ec	 mov	 ecx, DWORD PTR [edx-20]
  00018	33 c8		 xor	 ecx, eax
  0001a	e8 00 00 00 00	 call	 @__security_check_cookie@4
  0001f	b8 00 00 00 00	 mov	 eax, OFFSET __ehfuncinfo$??$construct@AAUtagPetViewInfo@@@?$allocator@UtagPetViewInfo@@@std@@QAEXPAUtagPetViewInfo@@AAU2@@Z
  00024	e9 00 00 00 00	 jmp	 ___CxxFrameHandler3
text$x	ENDS
??$construct@AAUtagPetViewInfo@@@?$allocator@UtagPetViewInfo@@@std@@QAEXPAUtagPetViewInfo@@AAU2@@Z ENDP ; std::allocator<tagPetViewInfo>::construct<tagPetViewInfo &>
PUBLIC	??$forward@ABUtagPetViewInfo@@@std@@YAABUtagPetViewInfo@@ABU1@@Z ; std::forward<tagPetViewInfo const &>
; Function compile flags: /Ogsp
; File c:\program files (x86)\microsoft visual studio 10.0\vc\include\utility
;	COMDAT ??$forward@ABUtagPetViewInfo@@@std@@YAABUtagPetViewInfo@@ABU1@@Z
_TEXT	SEGMENT
__Arg$ = 8						; size = 4
??$forward@ABUtagPetViewInfo@@@std@@YAABUtagPetViewInfo@@ABU1@@Z PROC ; std::forward<tagPetViewInfo const &>, COMDAT

; 78   : 	{	// forward _Arg, given explicitly specified type parameter

  00000	55		 push	 ebp
  00001	8b ec		 mov	 ebp, esp

; 79   : 	return ((_Ty&&)_Arg);

  00003	8b 45 08	 mov	 eax, DWORD PTR __Arg$[ebp]

; 80   : 	}

  00006	5d		 pop	 ebp
  00007	c3		 ret	 0
??$forward@ABUtagPetViewInfo@@@std@@YAABUtagPetViewInfo@@ABU1@@Z ENDP ; std::forward<tagPetViewInfo const &>
_TEXT	ENDS
PUBLIC	??$forward@AAUtagPetRankInfo@@@std@@YAAAUtagPetRankInfo@@AAU1@@Z ; std::forward<tagPetRankInfo &>
; Function compile flags: /Ogsp
;	COMDAT ??$forward@AAUtagPetRankInfo@@@std@@YAAAUtagPetRankInfo@@AAU1@@Z
_TEXT	SEGMENT
__Arg$ = 8						; size = 4
??$forward@AAUtagPetRankInfo@@@std@@YAAAUtagPetRankInfo@@AAU1@@Z PROC ; std::forward<tagPetRankInfo &>, COMDAT

; 78   : 	{	// forward _Arg, given explicitly specified type parameter

  00000	55		 push	 ebp
  00001	8b ec		 mov	 ebp, esp

; 79   : 	return ((_Ty&&)_Arg);

  00003	8b 45 08	 mov	 eax, DWORD PTR __Arg$[ebp]

; 80   : 	}

  00006	5d		 pop	 ebp
  00007	c3		 ret	 0
??$forward@AAUtagPetRankInfo@@@std@@YAAAUtagPetRankInfo@@AAU1@@Z ENDP ; std::forward<tagPetRankInfo &>
_TEXT	ENDS
PUBLIC	??$construct@AAUtagPetRankInfo@@@?$allocator@UtagPetRankInfo@@@std@@QAEXPAUtagPetRankInfo@@AAU2@@Z ; std::allocator<tagPetRankInfo>::construct<tagPetRankInfo &>
; Function compile flags: /Ogsp
; File c:\program files (x86)\microsoft visual studio 10.0\vc\include\xmemory
;	COMDAT ??$construct@AAUtagPetRankInfo@@@?$allocator@UtagPetRankInfo@@@std@@QAEXPAUtagPetRankInfo@@AAU2@@Z
_TEXT	SEGMENT
__Ptr$ = 8						; size = 4
__Val$ = 12						; size = 4
??$construct@AAUtagPetRankInfo@@@?$allocator@UtagPetRankInfo@@@std@@QAEXPAUtagPetRankInfo@@AAU2@@Z PROC ; std::allocator<tagPetRankInfo>::construct<tagPetRankInfo &>, COMDAT
; _this$ = ecx

; 206  : 		void construct(pointer _Ptr, _Other&& _Val)

  00000	55		 push	 ebp
  00001	8b ec		 mov	 ebp, esp
  00003	57		 push	 edi

; 207  : 		{	// construct object at _Ptr with value _Val
; 208  : 		::new ((void _FARQ *)_Ptr) _Ty(_STD forward<_Other>(_Val));

  00004	8b 7d 08	 mov	 edi, DWORD PTR __Ptr$[ebp]
  00007	85 ff		 test	 edi, edi
  00009	74 08		 je	 SHORT $LN3@construct@2
  0000b	56		 push	 esi
  0000c	8b 75 0c	 mov	 esi, DWORD PTR __Val$[ebp]
  0000f	a5		 movsd
  00010	a5		 movsd
  00011	a5		 movsd
  00012	5e		 pop	 esi
$LN3@construct@2:
  00013	5f		 pop	 edi

; 209  : 		}

  00014	5d		 pop	 ebp
  00015	c2 08 00	 ret	 8
??$construct@AAUtagPetRankInfo@@@?$allocator@UtagPetRankInfo@@@std@@QAEXPAUtagPetRankInfo@@AAU2@@Z ENDP ; std::allocator<tagPetRankInfo>::construct<tagPetRankInfo &>
_TEXT	ENDS
PUBLIC	??$forward@ABUtagPetRankInfo@@@std@@YAABUtagPetRankInfo@@ABU1@@Z ; std::forward<tagPetRankInfo const &>
; Function compile flags: /Ogsp
; File c:\program files (x86)\microsoft visual studio 10.0\vc\include\utility
;	COMDAT ??$forward@ABUtagPetRankInfo@@@std@@YAABUtagPetRankInfo@@ABU1@@Z
_TEXT	SEGMENT
__Arg$ = 8						; size = 4
??$forward@ABUtagPetRankInfo@@@std@@YAABUtagPetRankInfo@@ABU1@@Z PROC ; std::forward<tagPetRankInfo const &>, COMDAT

; 78   : 	{	// forward _Arg, given explicitly specified type parameter

  00000	55		 push	 ebp
  00001	8b ec		 mov	 ebp, esp

; 79   : 	return ((_Ty&&)_Arg);

  00003	8b 45 08	 mov	 eax, DWORD PTR __Arg$[ebp]

; 80   : 	}

  00006	5d		 pop	 ebp
  00007	c3		 ret	 0
??$forward@ABUtagPetRankInfo@@@std@@YAABUtagPetRankInfo@@ABU1@@Z ENDP ; std::forward<tagPetRankInfo const &>
_TEXT	ENDS
PUBLIC	??$_Ptr_cat@UtagPetRankInfo@@U1@@std@@YA?AU_Nonscalar_ptr_iterator_tag@0@PAUtagPetRankInfo@@0@Z ; std::_Ptr_cat<tagPetRankInfo,tagPetRankInfo>
; Function compile flags: /Ogsp
; File c:\program files (x86)\microsoft visual studio 10.0\vc\include\xutility
;	COMDAT ??$_Ptr_cat@UtagPetRankInfo@@U1@@std@@YA?AU_Nonscalar_ptr_iterator_tag@0@PAUtagPetRankInfo@@0@Z
_TEXT	SEGMENT
__Cat$ = -1						; size = 1
___formal$ = 8						; size = 4
___formal$ = 12						; size = 4
??$_Ptr_cat@UtagPetRankInfo@@U1@@std@@YA?AU_Nonscalar_ptr_iterator_tag@0@PAUtagPetRankInfo@@0@Z PROC ; std::_Ptr_cat<tagPetRankInfo,tagPetRankInfo>, COMDAT

; 516  : 	{	// return pointer category from pointers

  00000	55		 push	 ebp
  00001	8b ec		 mov	 ebp, esp
  00003	51		 push	 ecx

; 517  : 	typename _Ptr_cat_helper<_Elem1, _Elem2>::_Type _Cat;
; 518  : 	return (_Cat);

  00004	8a 45 ff	 mov	 al, BYTE PTR __Cat$[ebp]

; 519  : 	}

  00007	c9		 leave
  00008	c3		 ret	 0
??$_Ptr_cat@UtagPetRankInfo@@U1@@std@@YA?AU_Nonscalar_ptr_iterator_tag@0@PAUtagPetRankInfo@@0@Z ENDP ; std::_Ptr_cat<tagPetRankInfo,tagPetRankInfo>
_TEXT	ENDS
PUBLIC	??$_Construct@HABH@std@@YAXPAHABH@Z		; std::_Construct<int,int const &>
; Function compile flags: /Ogsp
; File c:\program files (x86)\microsoft visual studio 10.0\vc\include\xmemory
;	COMDAT ??$_Construct@HABH@std@@YAXPAHABH@Z
_TEXT	SEGMENT
__Ptr$ = 8						; size = 4
__Val$ = 12						; size = 4
??$_Construct@HABH@std@@YAXPAHABH@Z PROC		; std::_Construct<int,int const &>, COMDAT

; 46   : 	{	// construct object at _Ptr with value _Val

  00000	55		 push	 ebp
  00001	8b ec		 mov	 ebp, esp

; 47   : 	void _FARQ *_Vptr = _Ptr;
; 48   : 	::new (_Vptr) _Ty1(_STD forward<_Ty2>(_Val));

  00003	8b 45 08	 mov	 eax, DWORD PTR __Ptr$[ebp]
  00006	85 c0		 test	 eax, eax
  00008	74 07		 je	 SHORT $LN3@Construct
  0000a	8b 4d 0c	 mov	 ecx, DWORD PTR __Val$[ebp]
  0000d	8b 09		 mov	 ecx, DWORD PTR [ecx]
  0000f	89 08		 mov	 DWORD PTR [eax], ecx
$LN3@Construct:

; 49   : 	}

  00011	5d		 pop	 ebp
  00012	c3		 ret	 0
??$_Construct@HABH@std@@YAXPAHABH@Z ENDP		; std::_Construct<int,int const &>
_TEXT	ENDS
PUBLIC	??$_Construct@UtagPetViewInfo@@ABU1@@std@@YAXPAUtagPetViewInfo@@ABU1@@Z ; std::_Construct<tagPetViewInfo,tagPetViewInfo const &>
;	COMDAT xdata$x
; File c:\program files (x86)\microsoft visual studio 10.0\vc\include\utility
xdata$x	SEGMENT
__unwindtable$??$_Construct@UtagPetViewInfo@@ABU1@@std@@YAXPAUtagPetViewInfo@@ABU1@@Z DD 0ffffffffH
	DD	FLAT:__unwindfunclet$??$_Construct@UtagPetViewInfo@@ABU1@@std@@YAXPAUtagPetViewInfo@@ABU1@@Z$0
__ehfuncinfo$??$_Construct@UtagPetViewInfo@@ABU1@@std@@YAXPAUtagPetViewInfo@@ABU1@@Z DD 019930522H
	DD	01H
	DD	FLAT:__unwindtable$??$_Construct@UtagPetViewInfo@@ABU1@@std@@YAXPAUtagPetViewInfo@@ABU1@@Z
	DD	2 DUP(00H)
	DD	2 DUP(00H)
	DD	00H
	DD	01H
; Function compile flags: /Ogsp
; File c:\program files (x86)\microsoft visual studio 10.0\vc\include\xmemory
xdata$x	ENDS
;	COMDAT ??$_Construct@UtagPetViewInfo@@ABU1@@std@@YAXPAUtagPetViewInfo@@ABU1@@Z
_TEXT	SEGMENT
$T515436 = -16						; size = 4
__$EHRec$ = -12						; size = 12
__Vptr$ = 8						; size = 4
__Ptr$ = 8						; size = 4
__Val$ = 12						; size = 4
??$_Construct@UtagPetViewInfo@@ABU1@@std@@YAXPAUtagPetViewInfo@@ABU1@@Z PROC ; std::_Construct<tagPetViewInfo,tagPetViewInfo const &>, COMDAT

; 46   : 	{	// construct object at _Ptr with value _Val

  00000	6a 04		 push	 4
  00002	b8 00 00 00 00	 mov	 eax, __ehhandler$??$_Construct@UtagPetViewInfo@@ABU1@@std@@YAXPAUtagPetViewInfo@@ABU1@@Z
  00007	e8 00 00 00 00	 call	 __EH_prolog3

; 47   : 	void _FARQ *_Vptr = _Ptr;

  0000c	8b 4d 08	 mov	 ecx, DWORD PTR __Ptr$[ebp]
  0000f	89 4d 08	 mov	 DWORD PTR __Vptr$[ebp], ecx

; 48   : 	::new (_Vptr) _Ty1(_STD forward<_Ty2>(_Val));

  00012	89 4d f0	 mov	 DWORD PTR $T515436[ebp], ecx
  00015	83 65 fc 00	 and	 DWORD PTR __$EHRec$[ebp+8], 0
  00019	85 c9		 test	 ecx, ecx
  0001b	74 08		 je	 SHORT $LN3@Construct@2
  0001d	ff 75 0c	 push	 DWORD PTR __Val$[ebp]
  00020	e8 00 00 00 00	 call	 ??0tagPetViewInfo@@QAE@ABU0@@Z
$LN3@Construct@2:

; 49   : 	}

  00025	e8 00 00 00 00	 call	 __EH_epilog3
  0002a	c3		 ret	 0
_TEXT	ENDS
;	COMDAT text$x
text$x	SEGMENT
__unwindfunclet$??$_Construct@UtagPetViewInfo@@ABU1@@std@@YAXPAUtagPetViewInfo@@ABU1@@Z$0:
  00000	ff 75 08	 push	 DWORD PTR __Vptr$[ebp]
  00003	ff 75 f0	 push	 DWORD PTR $T515436[ebp]
  00006	e8 00 00 00 00	 call	 ??3@YAXPAX0@Z		; operator delete
  0000b	59		 pop	 ecx
  0000c	59		 pop	 ecx
  0000d	c3		 ret	 0
__ehhandler$??$_Construct@UtagPetViewInfo@@ABU1@@std@@YAXPAUtagPetViewInfo@@ABU1@@Z:
  0000e	8b 54 24 08	 mov	 edx, DWORD PTR [esp+8]
  00012	8d 42 0c	 lea	 eax, DWORD PTR [edx+12]
  00015	8b 4a ec	 mov	 ecx, DWORD PTR [edx-20]
  00018	33 c8		 xor	 ecx, eax
  0001a	e8 00 00 00 00	 call	 @__security_check_cookie@4
  0001f	b8 00 00 00 00	 mov	 eax, OFFSET __ehfuncinfo$??$_Construct@UtagPetViewInfo@@ABU1@@std@@YAXPAUtagPetViewInfo@@ABU1@@Z
  00024	e9 00 00 00 00	 jmp	 ___CxxFrameHandler3
text$x	ENDS
??$_Construct@UtagPetViewInfo@@ABU1@@std@@YAXPAUtagPetViewInfo@@ABU1@@Z ENDP ; std::_Construct<tagPetViewInfo,tagPetViewInfo const &>
PUBLIC	??$_Construct@UtagPetRankInfo@@ABU1@@std@@YAXPAUtagPetRankInfo@@ABU1@@Z ; std::_Construct<tagPetRankInfo,tagPetRankInfo const &>
; Function compile flags: /Ogsp
;	COMDAT ??$_Construct@UtagPetRankInfo@@ABU1@@std@@YAXPAUtagPetRankInfo@@ABU1@@Z
_TEXT	SEGMENT
__Ptr$ = 8						; size = 4
__Val$ = 12						; size = 4
??$_Construct@UtagPetRankInfo@@ABU1@@std@@YAXPAUtagPetRankInfo@@ABU1@@Z PROC ; std::_Construct<tagPetRankInfo,tagPetRankInfo const &>, COMDAT

; 46   : 	{	// construct object at _Ptr with value _Val

  00000	55		 push	 ebp
  00001	8b ec		 mov	 ebp, esp
  00003	57		 push	 edi

; 47   : 	void _FARQ *_Vptr = _Ptr;
; 48   : 	::new (_Vptr) _Ty1(_STD forward<_Ty2>(_Val));

  00004	8b 7d 08	 mov	 edi, DWORD PTR __Ptr$[ebp]
  00007	85 ff		 test	 edi, edi
  00009	74 08		 je	 SHORT $LN3@Construct@3
  0000b	56		 push	 esi
  0000c	8b 75 0c	 mov	 esi, DWORD PTR __Val$[ebp]
  0000f	a5		 movsd
  00010	a5		 movsd
  00011	a5		 movsd
  00012	5e		 pop	 esi
$LN3@Construct@3:
  00013	5f		 pop	 edi

; 49   : 	}

  00014	5d		 pop	 ebp
  00015	c3		 ret	 0
??$_Construct@UtagPetRankInfo@@ABU1@@std@@YAXPAUtagPetRankInfo@@ABU1@@Z ENDP ; std::_Construct<tagPetRankInfo,tagPetRankInfo const &>
_TEXT	ENDS
PUBLIC	??$_Destroy@U?$pair@$$CBHUtagPetAddStatInfo@@@std@@@std@@YAXPAU?$pair@$$CBHUtagPetAddStatInfo@@@0@@Z ; std::_Destroy<std::pair<int const ,tagPetAddStatInfo> >
; Function compile flags: /Ogsp
;	COMDAT ??$_Destroy@U?$pair@$$CBHUtagPetAddStatInfo@@@std@@@std@@YAXPAU?$pair@$$CBHUtagPetAddStatInfo@@@0@@Z
_TEXT	SEGMENT
__Ptr$ = 8						; size = 4
??$_Destroy@U?$pair@$$CBHUtagPetAddStatInfo@@@std@@@std@@YAXPAU?$pair@$$CBHUtagPetAddStatInfo@@@0@@Z PROC ; std::_Destroy<std::pair<int const ,tagPetAddStatInfo> >, COMDAT

; 63   : 	_Ptr->~_Ty();
; 64   : 	}

  00000	c3		 ret	 0
??$_Destroy@U?$pair@$$CBHUtagPetAddStatInfo@@@std@@@std@@YAXPAU?$pair@$$CBHUtagPetAddStatInfo@@@0@@Z ENDP ; std::_Destroy<std::pair<int const ,tagPetAddStatInfo> >
_TEXT	ENDS
PUBLIC	??$move@AAV?$_Tree_iterator@V?$_Tree_val@V?$_Tmap_traits@HUtagPetAddStatInfo@@U?$less@H@std@@V?$allocator@U?$pair@$$CBHUtagPetAddStatInfo@@@std@@@3@$0A@@std@@@std@@@std@@@std@@YA$$QAV?$_Tree_iterator@V?$_Tree_val@V?$_Tmap_traits@HUtagPetAddStatInfo@@U?$less@H@std@@V?$allocator@U?$pair@$$CBHUtagPetAddStatInfo@@@std@@@3@$0A@@std@@@std@@@0@AAV10@@Z ; std::move<std::_Tree_iterator<std::_Tree_val<std::_Tmap_traits<int,tagPetAddStatInfo,std::less<int>,std::allocator<std::pair<int const ,tagPetAddStatInfo> >,0> > > &>
; Function compile flags: /Ogsp
; File c:\program files (x86)\microsoft visual studio 10.0\vc\include\utility
;	COMDAT ??$move@AAV?$_Tree_iterator@V?$_Tree_val@V?$_Tmap_traits@HUtagPetAddStatInfo@@U?$less@H@std@@V?$allocator@U?$pair@$$CBHUtagPetAddStatInfo@@@std@@@3@$0A@@std@@@std@@@std@@@std@@YA$$QAV?$_Tree_iterator@V?$_Tree_val@V?$_Tmap_traits@HUtagPetAddStatInfo@@U?$less@H@std@@V?$allocator@U?$pair@$$CBHUtagPetAddStatInfo@@@std@@@3@$0A@@std@@@std@@@0@AAV10@@Z
_TEXT	SEGMENT
__Arg$ = 8						; size = 4
??$move@AAV?$_Tree_iterator@V?$_Tree_val@V?$_Tmap_traits@HUtagPetAddStatInfo@@U?$less@H@std@@V?$allocator@U?$pair@$$CBHUtagPetAddStatInfo@@@std@@@3@$0A@@std@@@std@@@std@@@std@@YA$$QAV?$_Tree_iterator@V?$_Tree_val@V?$_Tmap_traits@HUtagPetAddStatInfo@@U?$less@H@std@@V?$allocator@U?$pair@$$CBHUtagPetAddStatInfo@@@std@@@3@$0A@@std@@@std@@@0@AAV10@@Z PROC ; std::move<std::_Tree_iterator<std::_Tree_val<std::_Tmap_traits<int,tagPetAddStatInfo,std::less<int>,std::allocator<std::pair<int const ,tagPetAddStatInfo> >,0> > > &>, COMDAT

; 86   : 	{	// forward _Arg as movable

  00000	55		 push	 ebp
  00001	8b ec		 mov	 ebp, esp

; 87   : 	return ((typename tr1::_Remove_reference<_Ty>::_Type&&)_Arg);

  00003	8b 45 08	 mov	 eax, DWORD PTR __Arg$[ebp]

; 88   : 	}

  00006	5d		 pop	 ebp
  00007	c3		 ret	 0
??$move@AAV?$_Tree_iterator@V?$_Tree_val@V?$_Tmap_traits@HUtagPetAddStatInfo@@U?$less@H@std@@V?$allocator@U?$pair@$$CBHUtagPetAddStatInfo@@@std@@@3@$0A@@std@@@std@@@std@@@std@@YA$$QAV?$_Tree_iterator@V?$_Tree_val@V?$_Tmap_traits@HUtagPetAddStatInfo@@U?$less@H@std@@V?$allocator@U?$pair@$$CBHUtagPetAddStatInfo@@@std@@@3@$0A@@std@@@std@@@0@AAV10@@Z ENDP ; std::move<std::_Tree_iterator<std::_Tree_val<std::_Tmap_traits<int,tagPetAddStatInfo,std::less<int>,std::allocator<std::pair<int const ,tagPetAddStatInfo> >,0> > > &>
_TEXT	ENDS
PUBLIC	??$move@AAV?$_Tree_iterator@V?$_Tree_val@V?$_Tmap_traits@HUtagPetStatBaseInfo@@U?$less@H@std@@V?$allocator@U?$pair@$$CBHUtagPetStatBaseInfo@@@std@@@3@$0A@@std@@@std@@@std@@@std@@YA$$QAV?$_Tree_iterator@V?$_Tree_val@V?$_Tmap_traits@HUtagPetStatBaseInfo@@U?$less@H@std@@V?$allocator@U?$pair@$$CBHUtagPetStatBaseInfo@@@std@@@3@$0A@@std@@@std@@@0@AAV10@@Z ; std::move<std::_Tree_iterator<std::_Tree_val<std::_Tmap_traits<int,tagPetStatBaseInfo,std::less<int>,std::allocator<std::pair<int const ,tagPetStatBaseInfo> >,0> > > &>
; Function compile flags: /Ogsp
;	COMDAT ??$move@AAV?$_Tree_iterator@V?$_Tree_val@V?$_Tmap_traits@HUtagPetStatBaseInfo@@U?$less@H@std@@V?$allocator@U?$pair@$$CBHUtagPetStatBaseInfo@@@std@@@3@$0A@@std@@@std@@@std@@@std@@YA$$QAV?$_Tree_iterator@V?$_Tree_val@V?$_Tmap_traits@HUtagPetStatBaseInfo@@U?$less@H@std@@V?$allocator@U?$pair@$$CBHUtagPetStatBaseInfo@@@std@@@3@$0A@@std@@@std@@@0@AAV10@@Z
_TEXT	SEGMENT
__Arg$ = 8						; size = 4
??$move@AAV?$_Tree_iterator@V?$_Tree_val@V?$_Tmap_traits@HUtagPetStatBaseInfo@@U?$less@H@std@@V?$allocator@U?$pair@$$CBHUtagPetStatBaseInfo@@@std@@@3@$0A@@std@@@std@@@std@@@std@@YA$$QAV?$_Tree_iterator@V?$_Tree_val@V?$_Tmap_traits@HUtagPetStatBaseInfo@@U?$less@H@std@@V?$allocator@U?$pair@$$CBHUtagPetStatBaseInfo@@@std@@@3@$0A@@std@@@std@@@0@AAV10@@Z PROC ; std::move<std::_Tree_iterator<std::_Tree_val<std::_Tmap_traits<int,tagPetStatBaseInfo,std::less<int>,std::allocator<std::pair<int const ,tagPetStatBaseInfo> >,0> > > &>, COMDAT

; 86   : 	{	// forward _Arg as movable

  00000	55		 push	 ebp
  00001	8b ec		 mov	 ebp, esp

; 87   : 	return ((typename tr1::_Remove_reference<_Ty>::_Type&&)_Arg);

  00003	8b 45 08	 mov	 eax, DWORD PTR __Arg$[ebp]

; 88   : 	}

  00006	5d		 pop	 ebp
  00007	c3		 ret	 0
??$move@AAV?$_Tree_iterator@V?$_Tree_val@V?$_Tmap_traits@HUtagPetStatBaseInfo@@U?$less@H@std@@V?$allocator@U?$pair@$$CBHUtagPetStatBaseInfo@@@std@@@3@$0A@@std@@@std@@@std@@@std@@YA$$QAV?$_Tree_iterator@V?$_Tree_val@V?$_Tmap_traits@HUtagPetStatBaseInfo@@U?$less@H@std@@V?$allocator@U?$pair@$$CBHUtagPetStatBaseInfo@@@std@@@3@$0A@@std@@@std@@@0@AAV10@@Z ENDP ; std::move<std::_Tree_iterator<std::_Tree_val<std::_Tmap_traits<int,tagPetStatBaseInfo,std::less<int>,std::allocator<std::pair<int const ,tagPetStatBaseInfo> >,0> > > &>
_TEXT	ENDS
PUBLIC	??$_Ptr_cat@V?$_Vector_const_iterator@V?$_Vector_val@HV?$allocator@H@std@@@std@@@std@@PAH@std@@YA?AU_Nonscalar_ptr_iterator_tag@0@AAV?$_Vector_const_iterator@V?$_Vector_val@HV?$allocator@H@std@@@std@@@0@AAPAH@Z ; std::_Ptr_cat<std::_Vector_const_iterator<std::_Vector_val<int,std::allocator<int> > >,int *>
; Function compile flags: /Ogsp
; File c:\program files (x86)\microsoft visual studio 10.0\vc\include\xutility
;	COMDAT ??$_Ptr_cat@V?$_Vector_const_iterator@V?$_Vector_val@HV?$allocator@H@std@@@std@@@std@@PAH@std@@YA?AU_Nonscalar_ptr_iterator_tag@0@AAV?$_Vector_const_iterator@V?$_Vector_val@HV?$allocator@H@std@@@std@@@0@AAPAH@Z
_TEXT	SEGMENT
__Cat$ = -1						; size = 1
___formal$ = 8						; size = 4
___formal$ = 12						; size = 4
??$_Ptr_cat@V?$_Vector_const_iterator@V?$_Vector_val@HV?$allocator@H@std@@@std@@@std@@PAH@std@@YA?AU_Nonscalar_ptr_iterator_tag@0@AAV?$_Vector_const_iterator@V?$_Vector_val@HV?$allocator@H@std@@@std@@@0@AAPAH@Z PROC ; std::_Ptr_cat<std::_Vector_const_iterator<std::_Vector_val<int,std::allocator<int> > >,int *>, COMDAT

; 485  : 	{	// return pointer category from arbitrary arguments

  00000	55		 push	 ebp
  00001	8b ec		 mov	 ebp, esp
  00003	51		 push	 ecx

; 486  : 	_Nonscalar_ptr_iterator_tag _Cat;
; 487  : 	return (_Cat);

  00004	8a 45 ff	 mov	 al, BYTE PTR __Cat$[ebp]

; 488  : 	}

  00007	c9		 leave
  00008	c3		 ret	 0
??$_Ptr_cat@V?$_Vector_const_iterator@V?$_Vector_val@HV?$allocator@H@std@@@std@@@std@@PAH@std@@YA?AU_Nonscalar_ptr_iterator_tag@0@AAV?$_Vector_const_iterator@V?$_Vector_val@HV?$allocator@H@std@@@std@@@0@AAPAH@Z ENDP ; std::_Ptr_cat<std::_Vector_const_iterator<std::_Vector_val<int,std::allocator<int> > >,int *>
_TEXT	ENDS
PUBLIC	??$_Ptr_cat@V?$_Vector_const_iterator@V?$_Vector_val@UtagPetViewInfo@@V?$allocator@UtagPetViewInfo@@@std@@@std@@@std@@PAUtagPetViewInfo@@@std@@YA?AU_Nonscalar_ptr_iterator_tag@0@AAV?$_Vector_const_iterator@V?$_Vector_val@UtagPetViewInfo@@V?$allocator@UtagPetViewInfo@@@std@@@std@@@0@AAPAUtagPetViewInfo@@@Z ; std::_Ptr_cat<std::_Vector_const_iterator<std::_Vector_val<tagPetViewInfo,std::allocator<tagPetViewInfo> > >,tagPetViewInfo *>
; Function compile flags: /Ogsp
;	COMDAT ??$_Ptr_cat@V?$_Vector_const_iterator@V?$_Vector_val@UtagPetViewInfo@@V?$allocator@UtagPetViewInfo@@@std@@@std@@@std@@PAUtagPetViewInfo@@@std@@YA?AU_Nonscalar_ptr_iterator_tag@0@AAV?$_Vector_const_iterator@V?$_Vector_val@UtagPetViewInfo@@V?$allocator@UtagPetViewInfo@@@std@@@std@@@0@AAPAUtagPetViewInfo@@@Z
_TEXT	SEGMENT
__Cat$ = -1						; size = 1
___formal$ = 8						; size = 4
___formal$ = 12						; size = 4
??$_Ptr_cat@V?$_Vector_const_iterator@V?$_Vector_val@UtagPetViewInfo@@V?$allocator@UtagPetViewInfo@@@std@@@std@@@std@@PAUtagPetViewInfo@@@std@@YA?AU_Nonscalar_ptr_iterator_tag@0@AAV?$_Vector_const_iterator@V?$_Vector_val@UtagPetViewInfo@@V?$allocator@UtagPetViewInfo@@@std@@@std@@@0@AAPAUtagPetViewInfo@@@Z PROC ; std::_Ptr_cat<std::_Vector_const_iterator<std::_Vector_val<tagPetViewInfo,std::allocator<tagPetViewInfo> > >,tagPetViewInfo *>, COMDAT

; 485  : 	{	// return pointer category from arbitrary arguments

  00000	55		 push	 ebp
  00001	8b ec		 mov	 ebp, esp
  00003	51		 push	 ecx

; 486  : 	_Nonscalar_ptr_iterator_tag _Cat;
; 487  : 	return (_Cat);

  00004	8a 45 ff	 mov	 al, BYTE PTR __Cat$[ebp]

; 488  : 	}

  00007	c9		 leave
  00008	c3		 ret	 0
??$_Ptr_cat@V?$_Vector_const_iterator@V?$_Vector_val@UtagPetViewInfo@@V?$allocator@UtagPetViewInfo@@@std@@@std@@@std@@PAUtagPetViewInfo@@@std@@YA?AU_Nonscalar_ptr_iterator_tag@0@AAV?$_Vector_const_iterator@V?$_Vector_val@UtagPetViewInfo@@V?$allocator@UtagPetViewInfo@@@std@@@std@@@0@AAPAUtagPetViewInfo@@@Z ENDP ; std::_Ptr_cat<std::_Vector_const_iterator<std::_Vector_val<tagPetViewInfo,std::allocator<tagPetViewInfo> > >,tagPetViewInfo *>
_TEXT	ENDS
PUBLIC	??$_Val_type@PAUtagPetRankInfo@@@std@@YAPAUtagPetRankInfo@@PAU1@@Z ; std::_Val_type<tagPetRankInfo *>
; Function compile flags: /Ogsp
;	COMDAT ??$_Val_type@PAUtagPetRankInfo@@@std@@YAPAUtagPetRankInfo@@PAU1@@Z
_TEXT	SEGMENT
___formal$ = 8						; size = 4
??$_Val_type@PAUtagPetRankInfo@@@std@@YAPAUtagPetRankInfo@@PAU1@@Z PROC ; std::_Val_type<tagPetRankInfo *>, COMDAT

; 790  : 	return (0);

  00000	33 c0		 xor	 eax, eax

; 791  : 	}

  00002	c3		 ret	 0
??$_Val_type@PAUtagPetRankInfo@@@std@@YAPAUtagPetRankInfo@@PAU1@@Z ENDP ; std::_Val_type<tagPetRankInfo *>
_TEXT	ENDS
PUBLIC	??$move@AAUtagPetRankInfo@@@std@@YA$$QAUtagPetRankInfo@@AAU1@@Z ; std::move<tagPetRankInfo &>
; Function compile flags: /Ogsp
; File c:\program files (x86)\microsoft visual studio 10.0\vc\include\utility
;	COMDAT ??$move@AAUtagPetRankInfo@@@std@@YA$$QAUtagPetRankInfo@@AAU1@@Z
_TEXT	SEGMENT
__Arg$ = 8						; size = 4
??$move@AAUtagPetRankInfo@@@std@@YA$$QAUtagPetRankInfo@@AAU1@@Z PROC ; std::move<tagPetRankInfo &>, COMDAT

; 86   : 	{	// forward _Arg as movable

  00000	55		 push	 ebp
  00001	8b ec		 mov	 ebp, esp

; 87   : 	return ((typename tr1::_Remove_reference<_Ty>::_Type&&)_Arg);

  00003	8b 45 08	 mov	 eax, DWORD PTR __Arg$[ebp]

; 88   : 	}

  00006	5d		 pop	 ebp
  00007	c3		 ret	 0
??$move@AAUtagPetRankInfo@@@std@@YA$$QAUtagPetRankInfo@@AAU1@@Z ENDP ; std::move<tagPetRankInfo &>
_TEXT	ENDS
PUBLIC	??$_Val_type@PAUtagPetViewInfo@@@std@@YAPAUtagPetViewInfo@@PAU1@@Z ; std::_Val_type<tagPetViewInfo *>
; Function compile flags: /Ogsp
; File c:\program files (x86)\microsoft visual studio 10.0\vc\include\xutility
;	COMDAT ??$_Val_type@PAUtagPetViewInfo@@@std@@YAPAUtagPetViewInfo@@PAU1@@Z
_TEXT	SEGMENT
___formal$ = 8						; size = 4
??$_Val_type@PAUtagPetViewInfo@@@std@@YAPAUtagPetViewInfo@@PAU1@@Z PROC ; std::_Val_type<tagPetViewInfo *>, COMDAT

; 790  : 	return (0);

  00000	33 c0		 xor	 eax, eax

; 791  : 	}

  00002	c3		 ret	 0
??$_Val_type@PAUtagPetViewInfo@@@std@@YAPAUtagPetViewInfo@@PAU1@@Z ENDP ; std::_Val_type<tagPetViewInfo *>
_TEXT	ENDS
PUBLIC	??$forward@AAV?$_Tree_iterator@V?$_Tree_val@V?$_Tmap_traits@HUtagPetAddStatInfo@@U?$less@H@std@@V?$allocator@U?$pair@$$CBHUtagPetAddStatInfo@@@std@@@3@$0A@@std@@@std@@@std@@@std@@YAAAV?$_Tree_iterator@V?$_Tree_val@V?$_Tmap_traits@HUtagPetAddStatInfo@@U?$less@H@std@@V?$allocator@U?$pair@$$CBHUtagPetAddStatInfo@@@std@@@3@$0A@@std@@@std@@@0@AAV10@@Z ; std::forward<std::_Tree_iterator<std::_Tree_val<std::_Tmap_traits<int,tagPetAddStatInfo,std::less<int>,std::allocator<std::pair<int const ,tagPetAddStatInfo> >,0> > > &>
; Function compile flags: /Ogsp
; File c:\program files (x86)\microsoft visual studio 10.0\vc\include\utility
;	COMDAT ??$forward@AAV?$_Tree_iterator@V?$_Tree_val@V?$_Tmap_traits@HUtagPetAddStatInfo@@U?$less@H@std@@V?$allocator@U?$pair@$$CBHUtagPetAddStatInfo@@@std@@@3@$0A@@std@@@std@@@std@@@std@@YAAAV?$_Tree_iterator@V?$_Tree_val@V?$_Tmap_traits@HUtagPetAddStatInfo@@U?$less@H@std@@V?$allocator@U?$pair@$$CBHUtagPetAddStatInfo@@@std@@@3@$0A@@std@@@std@@@0@AAV10@@Z
_TEXT	SEGMENT
__Arg$ = 8						; size = 4
??$forward@AAV?$_Tree_iterator@V?$_Tree_val@V?$_Tmap_traits@HUtagPetAddStatInfo@@U?$less@H@std@@V?$allocator@U?$pair@$$CBHUtagPetAddStatInfo@@@std@@@3@$0A@@std@@@std@@@std@@@std@@YAAAV?$_Tree_iterator@V?$_Tree_val@V?$_Tmap_traits@HUtagPetAddStatInfo@@U?$less@H@std@@V?$allocator@U?$pair@$$CBHUtagPetAddStatInfo@@@std@@@3@$0A@@std@@@std@@@0@AAV10@@Z PROC ; std::forward<std::_Tree_iterator<std::_Tree_val<std::_Tmap_traits<int,tagPetAddStatInfo,std::less<int>,std::allocator<std::pair<int const ,tagPetAddStatInfo> >,0> > > &>, COMDAT

; 78   : 	{	// forward _Arg, given explicitly specified type parameter

  00000	55		 push	 ebp
  00001	8b ec		 mov	 ebp, esp

; 79   : 	return ((_Ty&&)_Arg);

  00003	8b 45 08	 mov	 eax, DWORD PTR __Arg$[ebp]

; 80   : 	}

  00006	5d		 pop	 ebp
  00007	c3		 ret	 0
??$forward@AAV?$_Tree_iterator@V?$_Tree_val@V?$_Tmap_traits@HUtagPetAddStatInfo@@U?$less@H@std@@V?$allocator@U?$pair@$$CBHUtagPetAddStatInfo@@@std@@@3@$0A@@std@@@std@@@std@@@std@@YAAAV?$_Tree_iterator@V?$_Tree_val@V?$_Tmap_traits@HUtagPetAddStatInfo@@U?$less@H@std@@V?$allocator@U?$pair@$$CBHUtagPetAddStatInfo@@@std@@@3@$0A@@std@@@std@@@0@AAV10@@Z ENDP ; std::forward<std::_Tree_iterator<std::_Tree_val<std::_Tmap_traits<int,tagPetAddStatInfo,std::less<int>,std::allocator<std::pair<int const ,tagPetAddStatInfo> >,0> > > &>
_TEXT	ENDS
PUBLIC	??$forward@AAV?$_Tree_iterator@V?$_Tree_val@V?$_Tmap_traits@HUtagPetStatBaseInfo@@U?$less@H@std@@V?$allocator@U?$pair@$$CBHUtagPetStatBaseInfo@@@std@@@3@$0A@@std@@@std@@@std@@@std@@YAAAV?$_Tree_iterator@V?$_Tree_val@V?$_Tmap_traits@HUtagPetStatBaseInfo@@U?$less@H@std@@V?$allocator@U?$pair@$$CBHUtagPetStatBaseInfo@@@std@@@3@$0A@@std@@@std@@@0@AAV10@@Z ; std::forward<std::_Tree_iterator<std::_Tree_val<std::_Tmap_traits<int,tagPetStatBaseInfo,std::less<int>,std::allocator<std::pair<int const ,tagPetStatBaseInfo> >,0> > > &>
; Function compile flags: /Ogsp
;	COMDAT ??$forward@AAV?$_Tree_iterator@V?$_Tree_val@V?$_Tmap_traits@HUtagPetStatBaseInfo@@U?$less@H@std@@V?$allocator@U?$pair@$$CBHUtagPetStatBaseInfo@@@std@@@3@$0A@@std@@@std@@@std@@@std@@YAAAV?$_Tree_iterator@V?$_Tree_val@V?$_Tmap_traits@HUtagPetStatBaseInfo@@U?$less@H@std@@V?$allocator@U?$pair@$$CBHUtagPetStatBaseInfo@@@std@@@3@$0A@@std@@@std@@@0@AAV10@@Z
_TEXT	SEGMENT
__Arg$ = 8						; size = 4
??$forward@AAV?$_Tree_iterator@V?$_Tree_val@V?$_Tmap_traits@HUtagPetStatBaseInfo@@U?$less@H@std@@V?$allocator@U?$pair@$$CBHUtagPetStatBaseInfo@@@std@@@3@$0A@@std@@@std@@@std@@@std@@YAAAV?$_Tree_iterator@V?$_Tree_val@V?$_Tmap_traits@HUtagPetStatBaseInfo@@U?$less@H@std@@V?$allocator@U?$pair@$$CBHUtagPetStatBaseInfo@@@std@@@3@$0A@@std@@@std@@@0@AAV10@@Z PROC ; std::forward<std::_Tree_iterator<std::_Tree_val<std::_Tmap_traits<int,tagPetStatBaseInfo,std::less<int>,std::allocator<std::pair<int const ,tagPetStatBaseInfo> >,0> > > &>, COMDAT

; 78   : 	{	// forward _Arg, given explicitly specified type parameter

  00000	55		 push	 ebp
  00001	8b ec		 mov	 ebp, esp

; 79   : 	return ((_Ty&&)_Arg);

  00003	8b 45 08	 mov	 eax, DWORD PTR __Arg$[ebp]

; 80   : 	}

  00006	5d		 pop	 ebp
  00007	c3		 ret	 0
??$forward@AAV?$_Tree_iterator@V?$_Tree_val@V?$_Tmap_traits@HUtagPetStatBaseInfo@@U?$less@H@std@@V?$allocator@U?$pair@$$CBHUtagPetStatBaseInfo@@@std@@@3@$0A@@std@@@std@@@std@@@std@@YAAAV?$_Tree_iterator@V?$_Tree_val@V?$_Tmap_traits@HUtagPetStatBaseInfo@@U?$less@H@std@@V?$allocator@U?$pair@$$CBHUtagPetStatBaseInfo@@@std@@@3@$0A@@std@@@std@@@0@AAV10@@Z ENDP ; std::forward<std::_Tree_iterator<std::_Tree_val<std::_Tmap_traits<int,tagPetStatBaseInfo,std::less<int>,std::allocator<std::pair<int const ,tagPetStatBaseInfo> >,0> > > &>
_TEXT	ENDS
PUBLIC	??D?$_Vector_const_iterator@V?$_Vector_val@HV?$allocator@H@std@@@std@@@std@@QBEABHXZ ; std::_Vector_const_iterator<std::_Vector_val<int,std::allocator<int> > >::operator*
; Function compile flags: /Ogsp
; File c:\program files (x86)\microsoft visual studio 10.0\vc\include\vector
;	COMDAT ??D?$_Vector_const_iterator@V?$_Vector_val@HV?$allocator@H@std@@@std@@@std@@QBEABHXZ
_TEXT	SEGMENT
??D?$_Vector_const_iterator@V?$_Vector_val@HV?$allocator@H@std@@@std@@@std@@QBEABHXZ PROC ; std::_Vector_const_iterator<std::_Vector_val<int,std::allocator<int> > >::operator*, COMDAT
; _this$ = ecx

; 64   :  #if _ITERATOR_DEBUG_LEVEL == 2
; 65   : 		if (this->_Getcont() == 0
; 66   : 			|| this->_Ptr == 0
; 67   : 			|| this->_Ptr < ((_Myvec *)this->_Getcont())->_Myfirst
; 68   : 			|| ((_Myvec *)this->_Getcont())->_Mylast <= this->_Ptr)
; 69   : 			{	// report error
; 70   : 			_DEBUG_ERROR("vector iterator not dereferencable");
; 71   : 			_SCL_SECURE_OUT_OF_RANGE;
; 72   : 			}
; 73   : 
; 74   :  #elif _ITERATOR_DEBUG_LEVEL == 1
; 75   : 		_SCL_SECURE_VALIDATE(this->_Getcont() != 0);
; 76   : 		_SCL_SECURE_VALIDATE_RANGE(
; 77   : 			this->_Ptr != 0
; 78   : 			&& ((_Myvec *)this->_Getcont())->_Myfirst <= this->_Ptr
; 79   : 			&& this->_Ptr < ((_Myvec *)this->_Getcont())->_Mylast);
; 80   :  #endif /* _ITERATOR_DEBUG_LEVEL */
; 81   : 
; 82   : 		__analysis_assume(this->_Ptr != 0);
; 83   : 
; 84   : 		return (*this->_Ptr);

  00000	8b 01		 mov	 eax, DWORD PTR [ecx]

; 85   : 		}

  00002	c3		 ret	 0
??D?$_Vector_const_iterator@V?$_Vector_val@HV?$allocator@H@std@@@std@@@std@@QBEABHXZ ENDP ; std::_Vector_const_iterator<std::_Vector_val<int,std::allocator<int> > >::operator*
_TEXT	ENDS
PUBLIC	??E?$_Vector_const_iterator@V?$_Vector_val@HV?$allocator@H@std@@@std@@@std@@QAEAAV01@XZ ; std::_Vector_const_iterator<std::_Vector_val<int,std::allocator<int> > >::operator++
; Function compile flags: /Ogsp
;	COMDAT ??E?$_Vector_const_iterator@V?$_Vector_val@HV?$allocator@H@std@@@std@@@std@@QAEAAV01@XZ
_TEXT	SEGMENT
??E?$_Vector_const_iterator@V?$_Vector_val@HV?$allocator@H@std@@@std@@@std@@QAEAAV01@XZ PROC ; std::_Vector_const_iterator<std::_Vector_val<int,std::allocator<int> > >::operator++, COMDAT
; _this$ = ecx

; 93   : 		{	// preincrement

  00000	8b c1		 mov	 eax, ecx

; 94   :  #if _ITERATOR_DEBUG_LEVEL == 2
; 95   : 		if (this->_Getcont() == 0
; 96   : 			|| this->_Ptr == 0
; 97   : 			|| ((_Myvec *)this->_Getcont())->_Mylast <= this->_Ptr)
; 98   : 			{	// report error
; 99   : 			_DEBUG_ERROR("vector iterator not incrementable");
; 100  : 			_SCL_SECURE_OUT_OF_RANGE;
; 101  : 			}
; 102  : 
; 103  :  #elif _ITERATOR_DEBUG_LEVEL == 1
; 104  : 		_SCL_SECURE_VALIDATE(this->_Getcont() != 0);
; 105  : 		_SCL_SECURE_VALIDATE_RANGE(
; 106  : 			this->_Ptr != 0
; 107  : 			&& this->_Ptr < ((_Myvec *)this->_Getcont())->_Mylast);
; 108  :  #endif /* _ITERATOR_DEBUG_LEVEL */
; 109  : 
; 110  : 		++this->_Ptr;

  00002	83 00 04	 add	 DWORD PTR [eax], 4

; 111  : 		return (*this);
; 112  : 		}

  00005	c3		 ret	 0
??E?$_Vector_const_iterator@V?$_Vector_val@HV?$allocator@H@std@@@std@@@std@@QAEAAV01@XZ ENDP ; std::_Vector_const_iterator<std::_Vector_val<int,std::allocator<int> > >::operator++
_TEXT	ENDS
PUBLIC	??D?$_Vector_const_iterator@V?$_Vector_val@UtagPetViewInfo@@V?$allocator@UtagPetViewInfo@@@std@@@std@@@std@@QBEABUtagPetViewInfo@@XZ ; std::_Vector_const_iterator<std::_Vector_val<tagPetViewInfo,std::allocator<tagPetViewInfo> > >::operator*
; Function compile flags: /Ogsp
;	COMDAT ??D?$_Vector_const_iterator@V?$_Vector_val@UtagPetViewInfo@@V?$allocator@UtagPetViewInfo@@@std@@@std@@@std@@QBEABUtagPetViewInfo@@XZ
_TEXT	SEGMENT
??D?$_Vector_const_iterator@V?$_Vector_val@UtagPetViewInfo@@V?$allocator@UtagPetViewInfo@@@std@@@std@@@std@@QBEABUtagPetViewInfo@@XZ PROC ; std::_Vector_const_iterator<std::_Vector_val<tagPetViewInfo,std::allocator<tagPetViewInfo> > >::operator*, COMDAT
; _this$ = ecx

; 64   :  #if _ITERATOR_DEBUG_LEVEL == 2
; 65   : 		if (this->_Getcont() == 0
; 66   : 			|| this->_Ptr == 0
; 67   : 			|| this->_Ptr < ((_Myvec *)this->_Getcont())->_Myfirst
; 68   : 			|| ((_Myvec *)this->_Getcont())->_Mylast <= this->_Ptr)
; 69   : 			{	// report error
; 70   : 			_DEBUG_ERROR("vector iterator not dereferencable");
; 71   : 			_SCL_SECURE_OUT_OF_RANGE;
; 72   : 			}
; 73   : 
; 74   :  #elif _ITERATOR_DEBUG_LEVEL == 1
; 75   : 		_SCL_SECURE_VALIDATE(this->_Getcont() != 0);
; 76   : 		_SCL_SECURE_VALIDATE_RANGE(
; 77   : 			this->_Ptr != 0
; 78   : 			&& ((_Myvec *)this->_Getcont())->_Myfirst <= this->_Ptr
; 79   : 			&& this->_Ptr < ((_Myvec *)this->_Getcont())->_Mylast);
; 80   :  #endif /* _ITERATOR_DEBUG_LEVEL */
; 81   : 
; 82   : 		__analysis_assume(this->_Ptr != 0);
; 83   : 
; 84   : 		return (*this->_Ptr);

  00000	8b 01		 mov	 eax, DWORD PTR [ecx]

; 85   : 		}

  00002	c3		 ret	 0
??D?$_Vector_const_iterator@V?$_Vector_val@UtagPetViewInfo@@V?$allocator@UtagPetViewInfo@@@std@@@std@@@std@@QBEABUtagPetViewInfo@@XZ ENDP ; std::_Vector_const_iterator<std::_Vector_val<tagPetViewInfo,std::allocator<tagPetViewInfo> > >::operator*
_TEXT	ENDS
PUBLIC	??E?$_Vector_const_iterator@V?$_Vector_val@UtagPetViewInfo@@V?$allocator@UtagPetViewInfo@@@std@@@std@@@std@@QAEAAV01@XZ ; std::_Vector_const_iterator<std::_Vector_val<tagPetViewInfo,std::allocator<tagPetViewInfo> > >::operator++
; Function compile flags: /Ogsp
;	COMDAT ??E?$_Vector_const_iterator@V?$_Vector_val@UtagPetViewInfo@@V?$allocator@UtagPetViewInfo@@@std@@@std@@@std@@QAEAAV01@XZ
_TEXT	SEGMENT
??E?$_Vector_const_iterator@V?$_Vector_val@UtagPetViewInfo@@V?$allocator@UtagPetViewInfo@@@std@@@std@@@std@@QAEAAV01@XZ PROC ; std::_Vector_const_iterator<std::_Vector_val<tagPetViewInfo,std::allocator<tagPetViewInfo> > >::operator++, COMDAT
; _this$ = ecx

; 93   : 		{	// preincrement

  00000	8b c1		 mov	 eax, ecx

; 94   :  #if _ITERATOR_DEBUG_LEVEL == 2
; 95   : 		if (this->_Getcont() == 0
; 96   : 			|| this->_Ptr == 0
; 97   : 			|| ((_Myvec *)this->_Getcont())->_Mylast <= this->_Ptr)
; 98   : 			{	// report error
; 99   : 			_DEBUG_ERROR("vector iterator not incrementable");
; 100  : 			_SCL_SECURE_OUT_OF_RANGE;
; 101  : 			}
; 102  : 
; 103  :  #elif _ITERATOR_DEBUG_LEVEL == 1
; 104  : 		_SCL_SECURE_VALIDATE(this->_Getcont() != 0);
; 105  : 		_SCL_SECURE_VALIDATE_RANGE(
; 106  : 			this->_Ptr != 0
; 107  : 			&& this->_Ptr < ((_Myvec *)this->_Getcont())->_Mylast);
; 108  :  #endif /* _ITERATOR_DEBUG_LEVEL */
; 109  : 
; 110  : 		++this->_Ptr;

  00002	83 00 50	 add	 DWORD PTR [eax], 80	; 00000050H

; 111  : 		return (*this);
; 112  : 		}

  00005	c3		 ret	 0
??E?$_Vector_const_iterator@V?$_Vector_val@UtagPetViewInfo@@V?$allocator@UtagPetViewInfo@@@std@@@std@@@std@@QAEAAV01@XZ ENDP ; std::_Vector_const_iterator<std::_Vector_val<tagPetViewInfo,std::allocator<tagPetViewInfo> > >::operator++
_TEXT	ENDS
PUBLIC	??$_Destroy@UtagPetRankInfo@@@std@@YAXPAUtagPetRankInfo@@@Z ; std::_Destroy<tagPetRankInfo>
; Function compile flags: /Ogsp
; File c:\program files (x86)\microsoft visual studio 10.0\vc\include\xmemory
;	COMDAT ??$_Destroy@UtagPetRankInfo@@@std@@YAXPAUtagPetRankInfo@@@Z
_TEXT	SEGMENT
__Ptr$ = 8						; size = 4
??$_Destroy@UtagPetRankInfo@@@std@@YAXPAUtagPetRankInfo@@@Z PROC ; std::_Destroy<tagPetRankInfo>, COMDAT

; 63   : 	_Ptr->~_Ty();
; 64   : 	}

  00000	c3		 ret	 0
??$_Destroy@UtagPetRankInfo@@@std@@YAXPAUtagPetRankInfo@@@Z ENDP ; std::_Destroy<tagPetRankInfo>
_TEXT	ENDS
PUBLIC	??$forward@UtagPetRankInfo@@@std@@YA$$QAUtagPetRankInfo@@AAU1@@Z ; std::forward<tagPetRankInfo>
; Function compile flags: /Ogsp
; File c:\program files (x86)\microsoft visual studio 10.0\vc\include\utility
;	COMDAT ??$forward@UtagPetRankInfo@@@std@@YA$$QAUtagPetRankInfo@@AAU1@@Z
_TEXT	SEGMENT
__Arg$ = 8						; size = 4
??$forward@UtagPetRankInfo@@@std@@YA$$QAUtagPetRankInfo@@AAU1@@Z PROC ; std::forward<tagPetRankInfo>, COMDAT

; 78   : 	{	// forward _Arg, given explicitly specified type parameter

  00000	55		 push	 ebp
  00001	8b ec		 mov	 ebp, esp

; 79   : 	return ((_Ty&&)_Arg);

  00003	8b 45 08	 mov	 eax, DWORD PTR __Arg$[ebp]

; 80   : 	}

  00006	5d		 pop	 ebp
  00007	c3		 ret	 0
??$forward@UtagPetRankInfo@@@std@@YA$$QAUtagPetRankInfo@@AAU1@@Z ENDP ; std::forward<tagPetRankInfo>
_TEXT	ENDS
PUBLIC	??$forward@UtagPetViewInfo@@@std@@YA$$QAUtagPetViewInfo@@AAU1@@Z ; std::forward<tagPetViewInfo>
; Function compile flags: /Ogsp
;	COMDAT ??$forward@UtagPetViewInfo@@@std@@YA$$QAUtagPetViewInfo@@AAU1@@Z
_TEXT	SEGMENT
__Arg$ = 8						; size = 4
??$forward@UtagPetViewInfo@@@std@@YA$$QAUtagPetViewInfo@@AAU1@@Z PROC ; std::forward<tagPetViewInfo>, COMDAT

; 78   : 	{	// forward _Arg, given explicitly specified type parameter

  00000	55		 push	 ebp
  00001	8b ec		 mov	 ebp, esp

; 79   : 	return ((_Ty&&)_Arg);

  00003	8b 45 08	 mov	 eax, DWORD PTR __Arg$[ebp]

; 80   : 	}

  00006	5d		 pop	 ebp
  00007	c3		 ret	 0
??$forward@UtagPetViewInfo@@@std@@YA$$QAUtagPetViewInfo@@AAU1@@Z ENDP ; std::forward<tagPetViewInfo>
_TEXT	ENDS
PUBLIC	??$_Destroy@H@std@@YAXPAH@Z			; std::_Destroy<int>
; Function compile flags: /Ogsp
; File c:\program files (x86)\microsoft visual studio 10.0\vc\include\xmemory
;	COMDAT ??$_Destroy@H@std@@YAXPAH@Z
_TEXT	SEGMENT
__Ptr$ = 8						; size = 4
??$_Destroy@H@std@@YAXPAH@Z PROC			; std::_Destroy<int>, COMDAT

; 63   : 	_Ptr->~_Ty();
; 64   : 	}

  00000	c3		 ret	 0
??$_Destroy@H@std@@YAXPAH@Z ENDP			; std::_Destroy<int>
_TEXT	ENDS
PUBLIC	??$forward@UtagPetAddStatInfo@@@std@@YA$$QAUtagPetAddStatInfo@@AAU1@@Z ; std::forward<tagPetAddStatInfo>
; Function compile flags: /Ogsp
; File c:\program files (x86)\microsoft visual studio 10.0\vc\include\utility
;	COMDAT ??$forward@UtagPetAddStatInfo@@@std@@YA$$QAUtagPetAddStatInfo@@AAU1@@Z
_TEXT	SEGMENT
__Arg$ = 8						; size = 4
??$forward@UtagPetAddStatInfo@@@std@@YA$$QAUtagPetAddStatInfo@@AAU1@@Z PROC ; std::forward<tagPetAddStatInfo>, COMDAT

; 78   : 	{	// forward _Arg, given explicitly specified type parameter

  00000	55		 push	 ebp
  00001	8b ec		 mov	 ebp, esp

; 79   : 	return ((_Ty&&)_Arg);

  00003	8b 45 08	 mov	 eax, DWORD PTR __Arg$[ebp]

; 80   : 	}

  00006	5d		 pop	 ebp
  00007	c3		 ret	 0
??$forward@UtagPetAddStatInfo@@@std@@YA$$QAUtagPetAddStatInfo@@AAU1@@Z ENDP ; std::forward<tagPetAddStatInfo>
_TEXT	ENDS
PUBLIC	??$forward@UtagPetStatBaseInfo@@@std@@YA$$QAUtagPetStatBaseInfo@@AAU1@@Z ; std::forward<tagPetStatBaseInfo>
; Function compile flags: /Ogsp
;	COMDAT ??$forward@UtagPetStatBaseInfo@@@std@@YA$$QAUtagPetStatBaseInfo@@AAU1@@Z
_TEXT	SEGMENT
__Arg$ = 8						; size = 4
??$forward@UtagPetStatBaseInfo@@@std@@YA$$QAUtagPetStatBaseInfo@@AAU1@@Z PROC ; std::forward<tagPetStatBaseInfo>, COMDAT

; 78   : 	{	// forward _Arg, given explicitly specified type parameter

  00000	55		 push	 ebp
  00001	8b ec		 mov	 ebp, esp

; 79   : 	return ((_Ty&&)_Arg);

  00003	8b 45 08	 mov	 eax, DWORD PTR __Arg$[ebp]

; 80   : 	}

  00006	5d		 pop	 ebp
  00007	c3		 ret	 0
??$forward@UtagPetStatBaseInfo@@@std@@YA$$QAUtagPetStatBaseInfo@@AAU1@@Z ENDP ; std::forward<tagPetStatBaseInfo>
_TEXT	ENDS
PUBLIC	?_DECSTR@@YAXPADH@Z				; _DECSTR
; Function compile flags: /Ogsp
; File d:\lost saga for developer\youtube\tutorial\source\src\lsclient\stringprotect.h
;	COMDAT ?_DECSTR@@YAXPADH@Z
_TEXT	SEGMENT
_s$ = 8							; size = 4
_l$ = 12						; size = 4
?_DECSTR@@YAXPADH@Z PROC				; _DECSTR, COMDAT

; 40   : __forceinline void _DECSTR(char* s, int l){int i=0,l4=(l-1)/4,*p=(int*)s;s[l-1]=0;for(;i<l4;++i)*(p++)^=0xEAEBECED;for(i=l4*4;i<l-1;++i)s[i]^=0xED-i%4;}

  00000	55		 push	 ebp
  00001	8b ec		 mov	 ebp, esp
  00003	8b 4d 0c	 mov	 ecx, DWORD PTR _l$[ebp]
  00006	56		 push	 esi
  00007	8b 75 08	 mov	 esi, DWORD PTR _s$[ebp]
  0000a	57		 push	 edi
  0000b	8d 79 ff	 lea	 edi, DWORD PTR [ecx-1]
  0000e	8b c7		 mov	 eax, edi
  00010	99		 cdq
  00011	83 e2 03	 and	 edx, 3
  00014	03 c2		 add	 eax, edx
  00016	c1 f8 02	 sar	 eax, 2
  00019	8b d6		 mov	 edx, esi
  0001b	c6 44 0e ff 00	 mov	 BYTE PTR [esi+ecx-1], 0
  00020	85 c0		 test	 eax, eax
  00022	7e 0e		 jle	 SHORT $LN4@DECSTR
  00024	8b c8		 mov	 ecx, eax
$LL6@DECSTR:
  00026	81 32 ed ec eb
	ea		 xor	 DWORD PTR [edx], -353637139 ; eaebecedH
  0002c	83 c2 04	 add	 edx, 4
  0002f	49		 dec	 ecx
  00030	75 f4		 jne	 SHORT $LL6@DECSTR
$LN4@DECSTR:
  00032	c1 e0 02	 shl	 eax, 2
  00035	eb 17		 jmp	 SHORT $LN14@DECSTR
$LL3@DECSTR:
  00037	8b c8		 mov	 ecx, eax
  00039	81 e1 03 00 00
	80		 and	 ecx, -2147483645	; 80000003H
  0003f	79 05		 jns	 SHORT $LN13@DECSTR
  00041	49		 dec	 ecx
  00042	83 c9 fc	 or	 ecx, -4			; fffffffcH
  00045	41		 inc	 ecx
$LN13@DECSTR:
  00046	b2 ed		 mov	 dl, -19			; ffffffedH
  00048	2a d1		 sub	 dl, cl
  0004a	30 14 30	 xor	 BYTE PTR [eax+esi], dl
  0004d	40		 inc	 eax
$LN14@DECSTR:
  0004e	3b c7		 cmp	 eax, edi
  00050	7c e5		 jl	 SHORT $LL3@DECSTR
  00052	5f		 pop	 edi
  00053	5e		 pop	 esi
  00054	5d		 pop	 ebp
  00055	c3		 ret	 0
?_DECSTR@@YAXPADH@Z ENDP				; _DECSTR
_TEXT	ENDS
PUBLIC	??0tagPetRankInfo@@QAE@XZ			; tagPetRankInfo::tagPetRankInfo
; Function compile flags: /Ogsp
; File d:\lost saga for developer\youtube\tutorial\source\src\lsclient\petenumtype.h
;	COMDAT ??0tagPetRankInfo@@QAE@XZ
_TEXT	SEGMENT
??0tagPetRankInfo@@QAE@XZ PROC				; tagPetRankInfo::tagPetRankInfo, COMDAT
; _this$ = ecx

; 39   : 	{
; 40   : 		m_RankType = PRT_NONE;
; 41   : 		m_nMaxLevel = 0;
; 42   : 		m_fRankValue = 0.0f;

  00000	0f 57 c0	 xorps	 xmm0, xmm0
  00003	8b c1		 mov	 eax, ecx
  00005	83 20 00	 and	 DWORD PTR [eax], 0
  00008	83 60 04 00	 and	 DWORD PTR [eax+4], 0
  0000c	f3 0f 11 40 08	 movss	 DWORD PTR [eax+8], xmm0

; 43   : 	}

  00011	c3		 ret	 0
??0tagPetRankInfo@@QAE@XZ ENDP				; tagPetRankInfo::tagPetRankInfo
_TEXT	ENDS
PUBLIC	??0tagPetAddStatInfo@@QAE@XZ			; tagPetAddStatInfo::tagPetAddStatInfo
; Function compile flags: /Ogsp
;	COMDAT ??0tagPetAddStatInfo@@QAE@XZ
_TEXT	SEGMENT
??0tagPetAddStatInfo@@QAE@XZ PROC			; tagPetAddStatInfo::tagPetAddStatInfo, COMDAT
; _this$ = ecx

; 57   : 	tagPetAddStatInfo()

  00000	8b c1		 mov	 eax, ecx

; 58   : 	{
; 59   : 		//ÇöÀç ·¹º§ * 1/m_nPerLevel 
; 60   : 		m_nPerLevel = 1;
; 61   : 		m_nAddStat = 0;

  00002	83 60 04 00	 and	 DWORD PTR [eax+4], 0
  00006	c7 00 01 00 00
	00		 mov	 DWORD PTR [eax], 1

; 62   : 	}

  0000c	c3		 ret	 0
??0tagPetAddStatInfo@@QAE@XZ ENDP			; tagPetAddStatInfo::tagPetAddStatInfo
_TEXT	ENDS
PUBLIC	??0tagPetViewInfo@@QAE@XZ			; tagPetViewInfo::tagPetViewInfo
EXTRN	__imp_?Clear@ioHashString@@QAEXXZ:PROC
;	COMDAT xdata$x
; File c:\program files (x86)\microsoft directx sdk (june 2010)\include\d3dx9math.h
xdata$x	SEGMENT
__unwindtable$??0tagPetViewInfo@@QAE@XZ DD 0ffffffffH
	DD	FLAT:__unwindfunclet$??0tagPetViewInfo@@QAE@XZ$0
	DD	00H
	DD	FLAT:__unwindfunclet$??0tagPetViewInfo@@QAE@XZ$1
	DD	01H
	DD	FLAT:__unwindfunclet$??0tagPetViewInfo@@QAE@XZ$2
	DD	02H
	DD	FLAT:__unwindfunclet$??0tagPetViewInfo@@QAE@XZ$3
__ehfuncinfo$??0tagPetViewInfo@@QAE@XZ DD 019930522H
	DD	04H
	DD	FLAT:__unwindtable$??0tagPetViewInfo@@QAE@XZ
	DD	2 DUP(00H)
	DD	2 DUP(00H)
	DD	00H
	DD	01H
; Function compile flags: /Ogsp
; File d:\lost saga for developer\youtube\tutorial\source\src\lsclient\petenumtype.h
xdata$x	ENDS
;	COMDAT ??0tagPetViewInfo@@QAE@XZ
_TEXT	SEGMENT
_this$ = -16						; size = 4
__$EHRec$ = -12						; size = 12
??0tagPetViewInfo@@QAE@XZ PROC				; tagPetViewInfo::tagPetViewInfo, COMDAT
; _this$ = ecx

; 92   : 	tagPetViewInfo()

  00000	6a 04		 push	 4
  00002	b8 00 00 00 00	 mov	 eax, __ehhandler$??0tagPetViewInfo@@QAE@XZ
  00007	e8 00 00 00 00	 call	 __EH_prolog3
  0000c	8b f1		 mov	 esi, ecx
  0000e	89 75 f0	 mov	 DWORD PTR _this$[ebp], esi
  00011	8b 3d 00 00 00
	00		 mov	 edi, DWORD PTR __imp_??0ioHashString@@QAE@XZ
  00017	8d 4e 04	 lea	 ecx, DWORD PTR [esi+4]
  0001a	ff d7		 call	 edi
  0001c	83 65 fc 00	 and	 DWORD PTR __$EHRec$[ebp+8], 0
  00020	8d 4e 14	 lea	 ecx, DWORD PTR [esi+20]
  00023	ff d7		 call	 edi
  00025	8d 4e 24	 lea	 ecx, DWORD PTR [esi+36]
  00028	c6 45 fc 01	 mov	 BYTE PTR __$EHRec$[ebp+8], 1
  0002c	ff d7		 call	 edi
  0002e	8d 4e 34	 lea	 ecx, DWORD PTR [esi+52]
  00031	c6 45 fc 02	 mov	 BYTE PTR __$EHRec$[ebp+8], 2
  00035	ff d7		 call	 edi

; 93   : 	{
; 94   : 		m_PetRank = PRT_NONE;
; 95   : 		m_szPetName.Clear();

  00037	8b 3d 00 00 00
	00		 mov	 edi, DWORD PTR __imp_?Clear@ioHashString@@QAEXXZ
  0003d	83 26 00	 and	 DWORD PTR [esi], 0
  00040	8d 4e 04	 lea	 ecx, DWORD PTR [esi+4]
  00043	c6 45 fc 03	 mov	 BYTE PTR __$EHRec$[ebp+8], 3
  00047	ff d7		 call	 edi

; 96   : 		m_szPetIcon.Clear();

  00049	8d 4e 14	 lea	 ecx, DWORD PTR [esi+20]
  0004c	ff d7		 call	 edi

; 97   : 		m_szPetModel.Clear();

  0004e	8d 4e 24	 lea	 ecx, DWORD PTR [esi+36]
  00051	ff d7		 call	 edi

; 98   : 		m_szPetAni.Clear();

  00053	8d 4e 34	 lea	 ecx, DWORD PTR [esi+52]
  00056	ff d7		 call	 edi

; 99   : 	}

  00058	8b c6		 mov	 eax, esi
  0005a	e8 00 00 00 00	 call	 __EH_epilog3
  0005f	c3		 ret	 0
_TEXT	ENDS
;	COMDAT text$x
text$x	SEGMENT
__unwindfunclet$??0tagPetViewInfo@@QAE@XZ$0:
  00000	8b 4d f0	 mov	 ecx, DWORD PTR _this$[ebp]
  00003	83 c1 04	 add	 ecx, 4
  00006	ff 25 00 00 00
	00		 jmp	 DWORD PTR __imp_??1ioHashString@@QAE@XZ
__unwindfunclet$??0tagPetViewInfo@@QAE@XZ$1:
  0000c	8b 4d f0	 mov	 ecx, DWORD PTR _this$[ebp]
  0000f	83 c1 14	 add	 ecx, 20			; 00000014H
  00012	ff 25 00 00 00
	00		 jmp	 DWORD PTR __imp_??1ioHashString@@QAE@XZ
__unwindfunclet$??0tagPetViewInfo@@QAE@XZ$2:
  00018	8b 4d f0	 mov	 ecx, DWORD PTR _this$[ebp]
  0001b	83 c1 24	 add	 ecx, 36			; 00000024H
  0001e	ff 25 00 00 00
	00		 jmp	 DWORD PTR __imp_??1ioHashString@@QAE@XZ
__unwindfunclet$??0tagPetViewInfo@@QAE@XZ$3:
  00024	8b 4d f0	 mov	 ecx, DWORD PTR _this$[ebp]
  00027	83 c1 34	 add	 ecx, 52			; 00000034H
  0002a	ff 25 00 00 00
	00		 jmp	 DWORD PTR __imp_??1ioHashString@@QAE@XZ
__ehhandler$??0tagPetViewInfo@@QAE@XZ:
  00030	8b 54 24 08	 mov	 edx, DWORD PTR [esp+8]
  00034	8d 42 0c	 lea	 eax, DWORD PTR [edx+12]
  00037	8b 4a ec	 mov	 ecx, DWORD PTR [edx-20]
  0003a	33 c8		 xor	 ecx, eax
  0003c	e8 00 00 00 00	 call	 @__security_check_cookie@4
  00041	b8 00 00 00 00	 mov	 eax, OFFSET __ehfuncinfo$??0tagPetViewInfo@@QAE@XZ
  00046	e9 00 00 00 00	 jmp	 ___CxxFrameHandler3
text$x	ENDS
??0tagPetViewInfo@@QAE@XZ ENDP				; tagPetViewInfo::tagPetViewInfo
PUBLIC	?size@?$vector@HV?$allocator@H@std@@@std@@QBEIXZ ; std::vector<int,std::allocator<int> >::size
; Function compile flags: /Ogsp
; File c:\program files (x86)\microsoft visual studio 10.0\vc\include\vector
;	COMDAT ?size@?$vector@HV?$allocator@H@std@@@std@@QBEIXZ
_TEXT	SEGMENT
?size@?$vector@HV?$allocator@H@std@@@std@@QBEIXZ PROC	; std::vector<int,std::allocator<int> >::size, COMDAT
; _this$ = ecx

; 879  : 		return (this->_Mylast - this->_Myfirst);

  00000	8b 41 04	 mov	 eax, DWORD PTR [ecx+4]
  00003	2b 01		 sub	 eax, DWORD PTR [ecx]
  00005	c1 f8 02	 sar	 eax, 2

; 880  : 		}

  00008	c3		 ret	 0
?size@?$vector@HV?$allocator@H@std@@@std@@QBEIXZ ENDP	; std::vector<int,std::allocator<int> >::size
_TEXT	ENDS
PUBLIC	??A?$vector@HV?$allocator@H@std@@@std@@QAEAAHI@Z ; std::vector<int,std::allocator<int> >::operator[]
; Function compile flags: /Ogsp
;	COMDAT ??A?$vector@HV?$allocator@H@std@@@std@@QAEAAHI@Z
_TEXT	SEGMENT
__Pos$ = 8						; size = 4
??A?$vector@HV?$allocator@H@std@@@std@@QAEAAHI@Z PROC	; std::vector<int,std::allocator<int> >::operator[], COMDAT
; _this$ = ecx

; 928  : 		{	// subscript mutable sequence

  00000	55		 push	 ebp
  00001	8b ec		 mov	 ebp, esp

; 929  :  #if _ITERATOR_DEBUG_LEVEL == 2
; 930  : 		if (size() <= _Pos)
; 931  : 			{	// report error
; 932  : 			_DEBUG_ERROR("vector subscript out of range");
; 933  : 			_SCL_SECURE_OUT_OF_RANGE;
; 934  : 			}
; 935  : 
; 936  :  #elif _ITERATOR_DEBUG_LEVEL == 1
; 937  : 		_SCL_SECURE_VALIDATE_RANGE(_Pos < size());
; 938  :  #endif /* _ITERATOR_DEBUG_LEVEL */
; 939  : 
; 940  : 		return (*(this->_Myfirst + _Pos));

  00003	8b 01		 mov	 eax, DWORD PTR [ecx]
  00005	8b 4d 08	 mov	 ecx, DWORD PTR __Pos$[ebp]
  00008	8d 04 88	 lea	 eax, DWORD PTR [eax+ecx*4]

; 941  : 		}

  0000b	5d		 pop	 ebp
  0000c	c2 04 00	 ret	 4
??A?$vector@HV?$allocator@H@std@@@std@@QAEAAHI@Z ENDP	; std::vector<int,std::allocator<int> >::operator[]
_TEXT	ENDS
PUBLIC	??0?$allocator@H@std@@QAE@XZ			; std::allocator<int>::allocator<int>
; Function compile flags: /Ogsp
; File c:\program files (x86)\microsoft visual studio 10.0\vc\include\xmemory
;	COMDAT ??0?$allocator@H@std@@QAE@XZ
_TEXT	SEGMENT
??0?$allocator@H@std@@QAE@XZ PROC			; std::allocator<int>::allocator<int>, COMDAT
; _this$ = ecx

; 161  : 	_ALLOCATOR() _THROW0()

  00000	8b c1		 mov	 eax, ecx

; 162  : 		{	// construct default allocator (do nothing)
; 163  : 		}

  00002	c3		 ret	 0
??0?$allocator@H@std@@QAE@XZ ENDP			; std::allocator<int>::allocator<int>
_TEXT	ENDS
PUBLIC	??1?$_Vector_val@HV?$allocator@H@std@@@std@@QAE@XZ ; std::_Vector_val<int,std::allocator<int> >::~_Vector_val<int,std::allocator<int> >
; Function compile flags: /Ogsp
; File c:\program files (x86)\microsoft visual studio 10.0\vc\include\vector
;	COMDAT ??1?$_Vector_val@HV?$allocator@H@std@@@std@@QAE@XZ
_TEXT	SEGMENT
??1?$_Vector_val@HV?$allocator@H@std@@@std@@QAE@XZ PROC	; std::_Vector_val<int,std::allocator<int> >::~_Vector_val<int,std::allocator<int> >, COMDAT
; _this$ = ecx

; 434  : 		}

  00000	c3		 ret	 0
??1?$_Vector_val@HV?$allocator@H@std@@@std@@QAE@XZ ENDP	; std::_Vector_val<int,std::allocator<int> >::~_Vector_val<int,std::allocator<int> >
_TEXT	ENDS
PUBLIC	??1?$_Vector_val@UtagPetViewInfo@@V?$allocator@UtagPetViewInfo@@@std@@@std@@QAE@XZ ; std::_Vector_val<tagPetViewInfo,std::allocator<tagPetViewInfo> >::~_Vector_val<tagPetViewInfo,std::allocator<tagPetViewInfo> >
; Function compile flags: /Ogsp
;	COMDAT ??1?$_Vector_val@UtagPetViewInfo@@V?$allocator@UtagPetViewInfo@@@std@@@std@@QAE@XZ
_TEXT	SEGMENT
??1?$_Vector_val@UtagPetViewInfo@@V?$allocator@UtagPetViewInfo@@@std@@@std@@QAE@XZ PROC ; std::_Vector_val<tagPetViewInfo,std::allocator<tagPetViewInfo> >::~_Vector_val<tagPetViewInfo,std::allocator<tagPetViewInfo> >, COMDAT
; _this$ = ecx

; 434  : 		}

  00000	c3		 ret	 0
??1?$_Vector_val@UtagPetViewInfo@@V?$allocator@UtagPetViewInfo@@@std@@@std@@QAE@XZ ENDP ; std::_Vector_val<tagPetViewInfo,std::allocator<tagPetViewInfo> >::~_Vector_val<tagPetViewInfo,std::allocator<tagPetViewInfo> >
_TEXT	ENDS
PUBLIC	??0?$allocator@UtagPetViewInfo@@@std@@QAE@XZ	; std::allocator<tagPetViewInfo>::allocator<tagPetViewInfo>
; Function compile flags: /Ogsp
; File c:\program files (x86)\microsoft visual studio 10.0\vc\include\xmemory
;	COMDAT ??0?$allocator@UtagPetViewInfo@@@std@@QAE@XZ
_TEXT	SEGMENT
??0?$allocator@UtagPetViewInfo@@@std@@QAE@XZ PROC	; std::allocator<tagPetViewInfo>::allocator<tagPetViewInfo>, COMDAT
; _this$ = ecx

; 161  : 	_ALLOCATOR() _THROW0()

  00000	8b c1		 mov	 eax, ecx

; 162  : 		{	// construct default allocator (do nothing)
; 163  : 		}

  00002	c3		 ret	 0
??0?$allocator@UtagPetViewInfo@@@std@@QAE@XZ ENDP	; std::allocator<tagPetViewInfo>::allocator<tagPetViewInfo>
_TEXT	ENDS
PUBLIC	??0?$_Vector_const_iterator@V?$_Vector_val@HV?$allocator@H@std@@@std@@@std@@QAE@PAHPBU_Container_base0@1@@Z ; std::_Vector_const_iterator<std::_Vector_val<int,std::allocator<int> > >::_Vector_const_iterator<std::_Vector_val<int,std::allocator<int> > >
; Function compile flags: /Ogsp
; File c:\program files (x86)\microsoft visual studio 10.0\vc\include\vector
;	COMDAT ??0?$_Vector_const_iterator@V?$_Vector_val@HV?$allocator@H@std@@@std@@@std@@QAE@PAHPBU_Container_base0@1@@Z
_TEXT	SEGMENT
__Parg$ = 8						; size = 4
__Pvector$ = 12						; size = 4
??0?$_Vector_const_iterator@V?$_Vector_val@HV?$allocator@H@std@@@std@@@std@@QAE@PAHPBU_Container_base0@1@@Z PROC ; std::_Vector_const_iterator<std::_Vector_val<int,std::allocator<int> > >::_Vector_const_iterator<std::_Vector_val<int,std::allocator<int> > >, COMDAT
; _this$ = ecx

; 45   : 		{	// construct with pointer _Parg

  00000	55		 push	 ebp
  00001	8b ec		 mov	 ebp, esp
  00003	8b c1		 mov	 eax, ecx
  00005	8b 4d 08	 mov	 ecx, DWORD PTR __Parg$[ebp]
  00008	89 08		 mov	 DWORD PTR [eax], ecx

; 46   : 		this->_Adopt(_Pvector);
; 47   : 		}

  0000a	5d		 pop	 ebp
  0000b	c2 08 00	 ret	 8
??0?$_Vector_const_iterator@V?$_Vector_val@HV?$allocator@H@std@@@std@@@std@@QAE@PAHPBU_Container_base0@1@@Z ENDP ; std::_Vector_const_iterator<std::_Vector_val<int,std::allocator<int> > >::_Vector_const_iterator<std::_Vector_val<int,std::allocator<int> > >
_TEXT	ENDS
PUBLIC	??0?$_Vector_iterator@V?$_Vector_val@HV?$allocator@H@std@@@std@@@std@@QAE@PAHPBU_Container_base0@1@@Z ; std::_Vector_iterator<std::_Vector_val<int,std::allocator<int> > >::_Vector_iterator<std::_Vector_val<int,std::allocator<int> > >
; Function compile flags: /Ogsp
;	COMDAT ??0?$_Vector_iterator@V?$_Vector_val@HV?$allocator@H@std@@@std@@@std@@QAE@PAHPBU_Container_base0@1@@Z
_TEXT	SEGMENT
__Parg$ = 8						; size = 4
__Pvector$ = 12						; size = 4
??0?$_Vector_iterator@V?$_Vector_val@HV?$allocator@H@std@@@std@@@std@@QAE@PAHPBU_Container_base0@1@@Z PROC ; std::_Vector_iterator<std::_Vector_val<int,std::allocator<int> > >::_Vector_iterator<std::_Vector_val<int,std::allocator<int> > >, COMDAT
; _this$ = ecx

; 304  : 		{	// construct with pointer _Parg

  00000	55		 push	 ebp
  00001	8b ec		 mov	 ebp, esp
  00003	8b c1		 mov	 eax, ecx
  00005	8b 4d 08	 mov	 ecx, DWORD PTR __Parg$[ebp]
  00008	89 08		 mov	 DWORD PTR [eax], ecx

; 305  : 		}

  0000a	5d		 pop	 ebp
  0000b	c2 08 00	 ret	 8
??0?$_Vector_iterator@V?$_Vector_val@HV?$allocator@H@std@@@std@@@std@@QAE@PAHPBU_Container_base0@1@@Z ENDP ; std::_Vector_iterator<std::_Vector_val<int,std::allocator<int> > >::_Vector_iterator<std::_Vector_val<int,std::allocator<int> > >
_TEXT	ENDS
PUBLIC	??0?$allocator@H@std@@QAE@ABV01@@Z		; std::allocator<int>::allocator<int>
; Function compile flags: /Ogsp
; File c:\program files (x86)\microsoft visual studio 10.0\vc\include\xmemory
;	COMDAT ??0?$allocator@H@std@@QAE@ABV01@@Z
_TEXT	SEGMENT
___formal$ = 8						; size = 4
??0?$allocator@H@std@@QAE@ABV01@@Z PROC			; std::allocator<int>::allocator<int>, COMDAT
; _this$ = ecx

; 165  : 	_ALLOCATOR(const _ALLOCATOR<_Ty>&) _THROW0()

  00000	8b c1		 mov	 eax, ecx

; 166  : 		{	// construct by copying (do nothing)
; 167  : 		}

  00002	c2 04 00	 ret	 4
??0?$allocator@H@std@@QAE@ABV01@@Z ENDP			; std::allocator<int>::allocator<int>
_TEXT	ENDS
PUBLIC	?deallocate@?$allocator@H@std@@QAEXPAHI@Z	; std::allocator<int>::deallocate
; Function compile flags: /Ogsp
;	COMDAT ?deallocate@?$allocator@H@std@@QAEXPAHI@Z
_TEXT	SEGMENT
__Ptr$ = 8						; size = 4
___formal$ = 12						; size = 4
?deallocate@?$allocator@H@std@@QAEXPAHI@Z PROC		; std::allocator<int>::deallocate, COMDAT
; _this$ = ecx

; 181  : 		{	// deallocate object at _Ptr, ignore size

  00000	55		 push	 ebp
  00001	8b ec		 mov	 ebp, esp

; 182  : 		::operator delete(_Ptr);

  00003	ff 75 08	 push	 DWORD PTR __Ptr$[ebp]
  00006	e8 00 00 00 00	 call	 ??3@YAXPAX@Z		; operator delete
  0000b	59		 pop	 ecx

; 183  : 		}

  0000c	5d		 pop	 ebp
  0000d	c2 08 00	 ret	 8
?deallocate@?$allocator@H@std@@QAEXPAHI@Z ENDP		; std::allocator<int>::deallocate
_TEXT	ENDS
PUBLIC	?capacity@?$vector@HV?$allocator@H@std@@@std@@QBEIXZ ; std::vector<int,std::allocator<int> >::capacity
; Function compile flags: /Ogsp
; File c:\program files (x86)\microsoft visual studio 10.0\vc\include\vector
;	COMDAT ?capacity@?$vector@HV?$allocator@H@std@@@std@@QBEIXZ
_TEXT	SEGMENT
?capacity@?$vector@HV?$allocator@H@std@@@std@@QBEIXZ PROC ; std::vector<int,std::allocator<int> >::capacity, COMDAT
; _this$ = ecx

; 777  : 		return (this->_Myend - this->_Myfirst);

  00000	8b 41 08	 mov	 eax, DWORD PTR [ecx+8]
  00003	2b 01		 sub	 eax, DWORD PTR [ecx]
  00005	c1 f8 02	 sar	 eax, 2

; 778  : 		}

  00008	c3		 ret	 0
?capacity@?$vector@HV?$allocator@H@std@@@std@@QBEIXZ ENDP ; std::vector<int,std::allocator<int> >::capacity
_TEXT	ENDS
PUBLIC	?_Make_iter@?$vector@HV?$allocator@H@std@@@std@@QBE?AV?$_Vector_iterator@V?$_Vector_val@HV?$allocator@H@std@@@std@@@2@V?$_Vector_const_iterator@V?$_Vector_val@HV?$allocator@H@std@@@std@@@2@@Z ; std::vector<int,std::allocator<int> >::_Make_iter
; Function compile flags: /Ogsp
;	COMDAT ?_Make_iter@?$vector@HV?$allocator@H@std@@@std@@QBE?AV?$_Vector_iterator@V?$_Vector_val@HV?$allocator@H@std@@@std@@@2@V?$_Vector_const_iterator@V?$_Vector_val@HV?$allocator@H@std@@@std@@@2@@Z
_TEXT	SEGMENT
___$ReturnUdt$ = 8					; size = 4
__Where$ = 12						; size = 4
?_Make_iter@?$vector@HV?$allocator@H@std@@@std@@QBE?AV?$_Vector_iterator@V?$_Vector_val@HV?$allocator@H@std@@@std@@@2@V?$_Vector_const_iterator@V?$_Vector_val@HV?$allocator@H@std@@@std@@@2@@Z PROC ; std::vector<int,std::allocator<int> >::_Make_iter, COMDAT
; _this$ = ecx

; 801  : 		{	// make iterator from const_iterator

  00000	55		 push	 ebp
  00001	8b ec		 mov	 ebp, esp

; 802  : 		return (iterator(_Where._Ptr, this));

  00003	8b 45 08	 mov	 eax, DWORD PTR ___$ReturnUdt$[ebp]
  00006	8b 4d 0c	 mov	 ecx, DWORD PTR __Where$[ebp]
  00009	89 08		 mov	 DWORD PTR [eax], ecx

; 803  : 		}

  0000b	5d		 pop	 ebp
  0000c	c2 08 00	 ret	 8
?_Make_iter@?$vector@HV?$allocator@H@std@@@std@@QBE?AV?$_Vector_iterator@V?$_Vector_val@HV?$allocator@H@std@@@std@@@2@V?$_Vector_const_iterator@V?$_Vector_val@HV?$allocator@H@std@@@std@@@2@@Z ENDP ; std::vector<int,std::allocator<int> >::_Make_iter
_TEXT	ENDS
PUBLIC	?_Xlen@?$vector@HV?$allocator@H@std@@@std@@IBEXXZ ; std::vector<int,std::allocator<int> >::_Xlen
; Function compile flags: /Ogsp
;	COMDAT ?_Xlen@?$vector@HV?$allocator@H@std@@@std@@IBEXXZ
_TEXT	SEGMENT
?_Xlen@?$vector@HV?$allocator@H@std@@@std@@IBEXXZ PROC	; std::vector<int,std::allocator<int> >::_Xlen, COMDAT
; _this$ = ecx

; 1427 : 		_Xlength_error("vector<T> too long");

  00000	68 00 00 00 00	 push	 OFFSET ??_C@_0BD@OLBABOEK@vector?$DMT?$DO?5too?5long?$AA@
  00005	ff 15 00 00 00
	00		 call	 DWORD PTR __imp_?_Xlength_error@std@@YAXPBD@Z
$LN4@Xlen@3:
$LN3@Xlen@3:
  0000b	cc		 int	 3
?_Xlen@?$vector@HV?$allocator@H@std@@@std@@IBEXXZ ENDP	; std::vector<int,std::allocator<int> >::_Xlen
_TEXT	ENDS
PUBLIC	??0?$allocator@UtagPetViewInfo@@@std@@QAE@ABV01@@Z ; std::allocator<tagPetViewInfo>::allocator<tagPetViewInfo>
; Function compile flags: /Ogsp
; File c:\program files (x86)\microsoft visual studio 10.0\vc\include\xmemory
;	COMDAT ??0?$allocator@UtagPetViewInfo@@@std@@QAE@ABV01@@Z
_TEXT	SEGMENT
___formal$ = 8						; size = 4
??0?$allocator@UtagPetViewInfo@@@std@@QAE@ABV01@@Z PROC	; std::allocator<tagPetViewInfo>::allocator<tagPetViewInfo>, COMDAT
; _this$ = ecx

; 165  : 	_ALLOCATOR(const _ALLOCATOR<_Ty>&) _THROW0()

  00000	8b c1		 mov	 eax, ecx

; 166  : 		{	// construct by copying (do nothing)
; 167  : 		}

  00002	c2 04 00	 ret	 4
??0?$allocator@UtagPetViewInfo@@@std@@QAE@ABV01@@Z ENDP	; std::allocator<tagPetViewInfo>::allocator<tagPetViewInfo>
_TEXT	ENDS
PUBLIC	?deallocate@?$allocator@UtagPetViewInfo@@@std@@QAEXPAUtagPetViewInfo@@I@Z ; std::allocator<tagPetViewInfo>::deallocate
; Function compile flags: /Ogsp
;	COMDAT ?deallocate@?$allocator@UtagPetViewInfo@@@std@@QAEXPAUtagPetViewInfo@@I@Z
_TEXT	SEGMENT
__Ptr$ = 8						; size = 4
___formal$ = 12						; size = 4
?deallocate@?$allocator@UtagPetViewInfo@@@std@@QAEXPAUtagPetViewInfo@@I@Z PROC ; std::allocator<tagPetViewInfo>::deallocate, COMDAT
; _this$ = ecx

; 181  : 		{	// deallocate object at _Ptr, ignore size

  00000	55		 push	 ebp
  00001	8b ec		 mov	 ebp, esp

; 182  : 		::operator delete(_Ptr);

  00003	ff 75 08	 push	 DWORD PTR __Ptr$[ebp]
  00006	e8 00 00 00 00	 call	 ??3@YAXPAX@Z		; operator delete
  0000b	59		 pop	 ecx

; 183  : 		}

  0000c	5d		 pop	 ebp
  0000d	c2 08 00	 ret	 8
?deallocate@?$allocator@UtagPetViewInfo@@@std@@QAEXPAUtagPetViewInfo@@I@Z ENDP ; std::allocator<tagPetViewInfo>::deallocate
_TEXT	ENDS
PUBLIC	?max_size@?$allocator@H@std@@QBEIXZ		; std::allocator<int>::max_size
; Function compile flags: /Ogsp
;	COMDAT ?max_size@?$allocator@H@std@@QBEIXZ
_TEXT	SEGMENT
?max_size@?$allocator@H@std@@QBEIXZ PROC		; std::allocator<int>::max_size, COMDAT
; _this$ = ecx

; 218  : 		_SIZT _Count = (_SIZT)(-1) / sizeof (_Ty);
; 219  : 		return (0 < _Count ? _Count : 1);

  00000	b8 ff ff ff 3f	 mov	 eax, 1073741823		; 3fffffffH

; 220  : 		}

  00005	c3		 ret	 0
?max_size@?$allocator@H@std@@QBEIXZ ENDP		; std::allocator<int>::max_size
_TEXT	ENDS
PUBLIC	??0?$_Vector_const_iterator@V?$_Vector_val@UtagPetViewInfo@@V?$allocator@UtagPetViewInfo@@@std@@@std@@@std@@QAE@PAUtagPetViewInfo@@PBU_Container_base0@1@@Z ; std::_Vector_const_iterator<std::_Vector_val<tagPetViewInfo,std::allocator<tagPetViewInfo> > >::_Vector_const_iterator<std::_Vector_val<tagPetViewInfo,std::allocator<tagPetViewInfo> > >
; Function compile flags: /Ogsp
; File c:\program files (x86)\microsoft visual studio 10.0\vc\include\vector
;	COMDAT ??0?$_Vector_const_iterator@V?$_Vector_val@UtagPetViewInfo@@V?$allocator@UtagPetViewInfo@@@std@@@std@@@std@@QAE@PAUtagPetViewInfo@@PBU_Container_base0@1@@Z
_TEXT	SEGMENT
__Parg$ = 8						; size = 4
__Pvector$ = 12						; size = 4
??0?$_Vector_const_iterator@V?$_Vector_val@UtagPetViewInfo@@V?$allocator@UtagPetViewInfo@@@std@@@std@@@std@@QAE@PAUtagPetViewInfo@@PBU_Container_base0@1@@Z PROC ; std::_Vector_const_iterator<std::_Vector_val<tagPetViewInfo,std::allocator<tagPetViewInfo> > >::_Vector_const_iterator<std::_Vector_val<tagPetViewInfo,std::allocator<tagPetViewInfo> > >, COMDAT
; _this$ = ecx

; 45   : 		{	// construct with pointer _Parg

  00000	55		 push	 ebp
  00001	8b ec		 mov	 ebp, esp
  00003	8b c1		 mov	 eax, ecx
  00005	8b 4d 08	 mov	 ecx, DWORD PTR __Parg$[ebp]
  00008	89 08		 mov	 DWORD PTR [eax], ecx

; 46   : 		this->_Adopt(_Pvector);
; 47   : 		}

  0000a	5d		 pop	 ebp
  0000b	c2 08 00	 ret	 8
??0?$_Vector_const_iterator@V?$_Vector_val@UtagPetViewInfo@@V?$allocator@UtagPetViewInfo@@@std@@@std@@@std@@QAE@PAUtagPetViewInfo@@PBU_Container_base0@1@@Z ENDP ; std::_Vector_const_iterator<std::_Vector_val<tagPetViewInfo,std::allocator<tagPetViewInfo> > >::_Vector_const_iterator<std::_Vector_val<tagPetViewInfo,std::allocator<tagPetViewInfo> > >
_TEXT	ENDS
PUBLIC	?_Compat@?$_Vector_const_iterator@V?$_Vector_val@HV?$allocator@H@std@@@std@@@std@@QBEXABV12@@Z ; std::_Vector_const_iterator<std::_Vector_val<int,std::allocator<int> > >::_Compat
; Function compile flags: /Ogsp
;	COMDAT ?_Compat@?$_Vector_const_iterator@V?$_Vector_val@HV?$allocator@H@std@@@std@@@std@@QBEXABV12@@Z
_TEXT	SEGMENT
___formal$ = 8						; size = 4
?_Compat@?$_Vector_const_iterator@V?$_Vector_val@HV?$allocator@H@std@@@std@@@std@@QBEXABV12@@Z PROC ; std::_Vector_const_iterator<std::_Vector_val<int,std::allocator<int> > >::_Compat, COMDAT
; _this$ = ecx

; 253  : 		}

  00000	c2 04 00	 ret	 4
?_Compat@?$_Vector_const_iterator@V?$_Vector_val@HV?$allocator@H@std@@@std@@@std@@QBEXABV12@@Z ENDP ; std::_Vector_const_iterator<std::_Vector_val<int,std::allocator<int> > >::_Compat
_TEXT	ENDS
PUBLIC	?_Compat@?$_Vector_const_iterator@V?$_Vector_val@UtagPetViewInfo@@V?$allocator@UtagPetViewInfo@@@std@@@std@@@std@@QBEXABV12@@Z ; std::_Vector_const_iterator<std::_Vector_val<tagPetViewInfo,std::allocator<tagPetViewInfo> > >::_Compat
; Function compile flags: /Ogsp
;	COMDAT ?_Compat@?$_Vector_const_iterator@V?$_Vector_val@UtagPetViewInfo@@V?$allocator@UtagPetViewInfo@@@std@@@std@@@std@@QBEXABV12@@Z
_TEXT	SEGMENT
___formal$ = 8						; size = 4
?_Compat@?$_Vector_const_iterator@V?$_Vector_val@UtagPetViewInfo@@V?$allocator@UtagPetViewInfo@@@std@@@std@@@std@@QBEXABV12@@Z PROC ; std::_Vector_const_iterator<std::_Vector_val<tagPetViewInfo,std::allocator<tagPetViewInfo> > >::_Compat, COMDAT
; _this$ = ecx

; 253  : 		}

  00000	c2 04 00	 ret	 4
?_Compat@?$_Vector_const_iterator@V?$_Vector_val@UtagPetViewInfo@@V?$allocator@UtagPetViewInfo@@@std@@@std@@@std@@QBEXABV12@@Z ENDP ; std::_Vector_const_iterator<std::_Vector_val<tagPetViewInfo,std::allocator<tagPetViewInfo> > >::_Compat
_TEXT	ENDS
PUBLIC	??$_Allocate@H@std@@YAPAHIPAH@Z			; std::_Allocate<int>
; Function compile flags: /Ogsp
; File c:\program files (x86)\microsoft visual studio 10.0\vc\include\xmemory
;	COMDAT ??$_Allocate@H@std@@YAPAHIPAH@Z
_TEXT	SEGMENT
$T515630 = -12						; size = 12
$T515634 = 8						; size = 4
__Count$ = 8						; size = 4
___formal$ = 12						; size = 4
??$_Allocate@H@std@@YAPAHIPAH@Z PROC			; std::_Allocate<int>, COMDAT

; 30   : 	{	// allocate storage for _Count elements of type _Ty

  00000	55		 push	 ebp
  00001	8b ec		 mov	 ebp, esp

; 31   : 	void *_Ptr = 0;
; 32   : 
; 33   : 	if (_Count <= 0)

  00003	8b 4d 08	 mov	 ecx, DWORD PTR __Count$[ebp]
  00006	83 ec 0c	 sub	 esp, 12			; 0000000cH
  00009	33 c0		 xor	 eax, eax
  0000b	85 c9		 test	 ecx, ecx

; 34   : 		_Count = 0;
; 35   : 	else if (((_SIZT)(-1) / sizeof (_Ty) < _Count)

  0000d	74 3e		 je	 SHORT $LN5@Allocate@5

; 36   : 		|| (_Ptr = ::operator new(_Count * sizeof (_Ty))) == 0)

  0000f	81 f9 ff ff ff
	3f		 cmp	 ecx, 1073741823		; 3fffffffH
  00015	77 10		 ja	 SHORT $LN1@Allocate@5
  00017	8b c1		 mov	 eax, ecx
  00019	c1 e0 02	 shl	 eax, 2
  0001c	50		 push	 eax
  0001d	e8 00 00 00 00	 call	 ??2@YAPAXI@Z		; operator new
  00022	59		 pop	 ecx
  00023	85 c0		 test	 eax, eax

; 38   : 
; 39   : 	return ((_Ty _FARQ *)_Ptr);

  00025	75 26		 jne	 SHORT $LN5@Allocate@5
$LN1@Allocate@5:

; 37   : 		_THROW_NCEE(bad_alloc, 0);

  00027	83 65 08 00	 and	 DWORD PTR $T515634[ebp], 0
  0002b	8d 45 08	 lea	 eax, DWORD PTR $T515634[ebp]
  0002e	50		 push	 eax
  0002f	8d 4d f4	 lea	 ecx, DWORD PTR $T515630[ebp]
  00032	ff 15 00 00 00
	00		 call	 DWORD PTR __imp_??0exception@std@@QAE@ABQBD@Z
  00038	68 00 00 00 00	 push	 OFFSET __TI2?AVbad_alloc@std@@
  0003d	8d 45 f4	 lea	 eax, DWORD PTR $T515630[ebp]
  00040	50		 push	 eax
  00041	c7 45 f4 00 00
	00 00		 mov	 DWORD PTR $T515630[ebp], OFFSET ??_7bad_alloc@std@@6B@
  00048	e8 00 00 00 00	 call	 __CxxThrowException@8
$LN10@Allocate@5:
$LN5@Allocate@5:

; 40   : 	}

  0004d	c9		 leave
  0004e	c3		 ret	 0
$LN9@Allocate@5:
??$_Allocate@H@std@@YAPAHIPAH@Z ENDP			; std::_Allocate<int>
_TEXT	ENDS
EXTRN	__imp_??0exception@std@@QAE@ABV01@@Z:PROC
; Function compile flags: /Ogsp
;	COMDAT ??0bad_alloc@std@@QAE@ABV01@@Z
_TEXT	SEGMENT
___that$ = 8						; size = 4
??0bad_alloc@std@@QAE@ABV01@@Z PROC			; std::bad_alloc::bad_alloc, COMDAT
; _this$ = ecx
  00000	55		 push	 ebp
  00001	8b ec		 mov	 ebp, esp
  00003	56		 push	 esi
  00004	ff 75 08	 push	 DWORD PTR ___that$[ebp]
  00007	8b f1		 mov	 esi, ecx
  00009	ff 15 00 00 00
	00		 call	 DWORD PTR __imp_??0exception@std@@QAE@ABV01@@Z
  0000f	c7 06 00 00 00
	00		 mov	 DWORD PTR [esi], OFFSET ??_7bad_alloc@std@@6B@
  00015	8b c6		 mov	 eax, esi
  00017	5e		 pop	 esi
  00018	5d		 pop	 ebp
  00019	c2 04 00	 ret	 4
??0bad_alloc@std@@QAE@ABV01@@Z ENDP			; std::bad_alloc::bad_alloc
_TEXT	ENDS
PUBLIC	??$forward@AAH@std@@YAAAHAAH@Z			; std::forward<int &>
; Function compile flags: /Ogsp
; File c:\program files (x86)\microsoft visual studio 10.0\vc\include\utility
;	COMDAT ??$forward@AAH@std@@YAAAHAAH@Z
_TEXT	SEGMENT
__Arg$ = 8						; size = 4
??$forward@AAH@std@@YAAAHAAH@Z PROC			; std::forward<int &>, COMDAT

; 78   : 	{	// forward _Arg, given explicitly specified type parameter

  00000	55		 push	 ebp
  00001	8b ec		 mov	 ebp, esp

; 79   : 	return ((_Ty&&)_Arg);

  00003	8b 45 08	 mov	 eax, DWORD PTR __Arg$[ebp]

; 80   : 	}

  00006	5d		 pop	 ebp
  00007	c3		 ret	 0
??$forward@AAH@std@@YAAAHAAH@Z ENDP			; std::forward<int &>
_TEXT	ENDS
PUBLIC	??$_Val_type@PAH@std@@YAPAHPAH@Z		; std::_Val_type<int *>
; Function compile flags: /Ogsp
; File c:\program files (x86)\microsoft visual studio 10.0\vc\include\xutility
;	COMDAT ??$_Val_type@PAH@std@@YAPAHPAH@Z
_TEXT	SEGMENT
___formal$ = 8						; size = 4
??$_Val_type@PAH@std@@YAPAHPAH@Z PROC			; std::_Val_type<int *>, COMDAT

; 790  : 	return (0);

  00000	33 c0		 xor	 eax, eax

; 791  : 	}

  00002	c3		 ret	 0
??$_Val_type@PAH@std@@YAPAHPAH@Z ENDP			; std::_Val_type<int *>
_TEXT	ENDS
PUBLIC	??$_Ptr_cat@HH@std@@YA?AU_Scalar_ptr_iterator_tag@0@PAH0@Z ; std::_Ptr_cat<int,int>
; Function compile flags: /Ogsp
;	COMDAT ??$_Ptr_cat@HH@std@@YA?AU_Scalar_ptr_iterator_tag@0@PAH0@Z
_TEXT	SEGMENT
__Cat$ = -1						; size = 1
___formal$ = 8						; size = 4
___formal$ = 12						; size = 4
??$_Ptr_cat@HH@std@@YA?AU_Scalar_ptr_iterator_tag@0@PAH0@Z PROC ; std::_Ptr_cat<int,int>, COMDAT

; 516  : 	{	// return pointer category from pointers

  00000	55		 push	 ebp
  00001	8b ec		 mov	 ebp, esp
  00003	51		 push	 ecx

; 517  : 	typename _Ptr_cat_helper<_Elem1, _Elem2>::_Type _Cat;
; 518  : 	return (_Cat);

  00004	8a 45 ff	 mov	 al, BYTE PTR __Cat$[ebp]

; 519  : 	}

  00007	c9		 leave
  00008	c3		 ret	 0
??$_Ptr_cat@HH@std@@YA?AU_Scalar_ptr_iterator_tag@0@PAH0@Z ENDP ; std::_Ptr_cat<int,int>
_TEXT	ENDS
PUBLIC	??$_Move@PAHPAH@std@@YAPAHPAH00U_Scalar_ptr_iterator_tag@0@@Z ; std::_Move<int *,int *>
EXTRN	__imp__memmove:PROC
; Function compile flags: /Ogsp
;	COMDAT ??$_Move@PAHPAH@std@@YAPAHPAH00U_Scalar_ptr_iterator_tag@0@@Z
_TEXT	SEGMENT
__First$ = 8						; size = 4
__Last$ = 12						; size = 4
__Dest$ = 16						; size = 4
___formal$ = 20						; size = 1
??$_Move@PAHPAH@std@@YAPAHPAH00U_Scalar_ptr_iterator_tag@0@@Z PROC ; std::_Move<int *,int *>, COMDAT

; 2522 : 	{	// move [_First, _Last) to [_Dest, ...), pointers to scalars

  00000	55		 push	 ebp
  00001	8b ec		 mov	 ebp, esp
  00003	56		 push	 esi

; 2523 : 	ptrdiff_t _Count = _Last - _First;

  00004	8b 75 0c	 mov	 esi, DWORD PTR __Last$[ebp]
  00007	2b 75 08	 sub	 esi, DWORD PTR __First$[ebp]
  0000a	57		 push	 edi

; 2524 : 	_CSTD memmove(&*_Dest, &*_First,
; 2525 : 		_Count * sizeof (*_First));

  0000b	8b 7d 10	 mov	 edi, DWORD PTR __Dest$[ebp]
  0000e	c1 fe 02	 sar	 esi, 2
  00011	c1 e6 02	 shl	 esi, 2
  00014	56		 push	 esi
  00015	ff 75 08	 push	 DWORD PTR __First$[ebp]
  00018	57		 push	 edi
  00019	ff 15 00 00 00
	00		 call	 DWORD PTR __imp__memmove
  0001f	83 c4 0c	 add	 esp, 12			; 0000000cH

; 2526 : 	return (_Dest + _Count);

  00022	8d 04 3e	 lea	 eax, DWORD PTR [esi+edi]
  00025	5f		 pop	 edi
  00026	5e		 pop	 esi

; 2527 : 	}

  00027	5d		 pop	 ebp
  00028	c3		 ret	 0
??$_Move@PAHPAH@std@@YAPAHPAH00U_Scalar_ptr_iterator_tag@0@@Z ENDP ; std::_Move<int *,int *>
_TEXT	ENDS
PUBLIC	??$_Ptr_cat@UtagPetViewInfo@@U1@@std@@YA?AU_Nonscalar_ptr_iterator_tag@0@PAUtagPetViewInfo@@0@Z ; std::_Ptr_cat<tagPetViewInfo,tagPetViewInfo>
; Function compile flags: /Ogsp
;	COMDAT ??$_Ptr_cat@UtagPetViewInfo@@U1@@std@@YA?AU_Nonscalar_ptr_iterator_tag@0@PAUtagPetViewInfo@@0@Z
_TEXT	SEGMENT
__Cat$ = -1						; size = 1
___formal$ = 8						; size = 4
___formal$ = 12						; size = 4
??$_Ptr_cat@UtagPetViewInfo@@U1@@std@@YA?AU_Nonscalar_ptr_iterator_tag@0@PAUtagPetViewInfo@@0@Z PROC ; std::_Ptr_cat<tagPetViewInfo,tagPetViewInfo>, COMDAT

; 516  : 	{	// return pointer category from pointers

  00000	55		 push	 ebp
  00001	8b ec		 mov	 ebp, esp
  00003	51		 push	 ecx

; 517  : 	typename _Ptr_cat_helper<_Elem1, _Elem2>::_Type _Cat;
; 518  : 	return (_Cat);

  00004	8a 45 ff	 mov	 al, BYTE PTR __Cat$[ebp]

; 519  : 	}

  00007	c9		 leave
  00008	c3		 ret	 0
??$_Ptr_cat@UtagPetViewInfo@@U1@@std@@YA?AU_Nonscalar_ptr_iterator_tag@0@PAUtagPetViewInfo@@0@Z ENDP ; std::_Ptr_cat<tagPetViewInfo,tagPetViewInfo>
_TEXT	ENDS
PUBLIC	??$_Destroy_range@V?$allocator@H@std@@@std@@YAXPAH0AAV?$allocator@H@0@U_Scalar_ptr_iterator_tag@0@@Z ; std::_Destroy_range<std::allocator<int> >
; Function compile flags: /Ogsp
; File c:\program files (x86)\microsoft visual studio 10.0\vc\include\xmemory
;	COMDAT ??$_Destroy_range@V?$allocator@H@std@@@std@@YAXPAH0AAV?$allocator@H@0@U_Scalar_ptr_iterator_tag@0@@Z
_TEXT	SEGMENT
__First$ = 8						; size = 4
__Last$ = 12						; size = 4
__Al$ = 16						; size = 4
___formal$ = 20						; size = 1
??$_Destroy_range@V?$allocator@H@std@@@std@@YAXPAH0AAV?$allocator@H@0@U_Scalar_ptr_iterator_tag@0@@Z PROC ; std::_Destroy_range<std::allocator<int> >, COMDAT

; 105  : 	}

  00000	c3		 ret	 0
??$_Destroy_range@V?$allocator@H@std@@@std@@YAXPAH0AAV?$allocator@H@0@U_Scalar_ptr_iterator_tag@0@@Z ENDP ; std::_Destroy_range<std::allocator<int> >
_TEXT	ENDS
PUBLIC	??$_Move@AAD@std@@YA$$QADAAD@Z			; std::_Move<char &>
; Function compile flags: /Ogsp
; File c:\program files (x86)\microsoft visual studio 10.0\vc\include\utility
;	COMDAT ??$_Move@AAD@std@@YA$$QADAAD@Z
_TEXT	SEGMENT
__Arg$ = 8						; size = 4
??$_Move@AAD@std@@YA$$QADAAD@Z PROC			; std::_Move<char &>, COMDAT

; 94   : 	{	// forward _Arg as movable

  00000	55		 push	 ebp
  00001	8b ec		 mov	 ebp, esp

; 95   : 	return ((typename tr1::_Remove_reference<_Ty>::_Type&&)_Arg);

  00003	8b 45 08	 mov	 eax, DWORD PTR __Arg$[ebp]

; 96   : 	}

  00006	5d		 pop	 ebp
  00007	c3		 ret	 0
??$_Move@AAD@std@@YA$$QADAAD@Z ENDP			; std::_Move<char &>
_TEXT	ENDS
PUBLIC	??$move@AA_N@std@@YA$$QA_NAA_N@Z		; std::move<bool &>
; Function compile flags: /Ogsp
;	COMDAT ??$move@AA_N@std@@YA$$QA_NAA_N@Z
_TEXT	SEGMENT
__Arg$ = 8						; size = 4
??$move@AA_N@std@@YA$$QA_NAA_N@Z PROC			; std::move<bool &>, COMDAT

; 86   : 	{	// forward _Arg as movable

  00000	55		 push	 ebp
  00001	8b ec		 mov	 ebp, esp

; 87   : 	return ((typename tr1::_Remove_reference<_Ty>::_Type&&)_Arg);

  00003	8b 45 08	 mov	 eax, DWORD PTR __Arg$[ebp]

; 88   : 	}

  00006	5d		 pop	 ebp
  00007	c3		 ret	 0
??$move@AA_N@std@@YA$$QA_NAA_N@Z ENDP			; std::move<bool &>
_TEXT	ENDS
PUBLIC	??4tagPetViewInfo@@QAEAAU0@ABU0@@Z		; tagPetViewInfo::operator=
EXTRN	__imp_??4ioHashString@@QAEAAV0@ABV0@@Z:PROC
; Function compile flags: /Ogsp
;	COMDAT ??4tagPetViewInfo@@QAEAAU0@ABU0@@Z
_TEXT	SEGMENT
___that$ = 8						; size = 4
??4tagPetViewInfo@@QAEAAU0@ABU0@@Z PROC			; tagPetViewInfo::operator=, COMDAT
; _this$ = ecx
  00000	55		 push	 ebp
  00001	8b ec		 mov	 ebp, esp
  00003	53		 push	 ebx
  00004	56		 push	 esi
  00005	8b 75 08	 mov	 esi, DWORD PTR ___that$[ebp]
  00008	8b 06		 mov	 eax, DWORD PTR [esi]
  0000a	8b d9		 mov	 ebx, ecx
  0000c	57		 push	 edi
  0000d	8b 3d 00 00 00
	00		 mov	 edi, DWORD PTR __imp_??4ioHashString@@QAEAAV0@ABV0@@Z
  00013	89 03		 mov	 DWORD PTR [ebx], eax
  00015	8d 46 04	 lea	 eax, DWORD PTR [esi+4]
  00018	50		 push	 eax
  00019	8d 4b 04	 lea	 ecx, DWORD PTR [ebx+4]
  0001c	ff d7		 call	 edi
  0001e	8d 46 14	 lea	 eax, DWORD PTR [esi+20]
  00021	50		 push	 eax
  00022	8d 4b 14	 lea	 ecx, DWORD PTR [ebx+20]
  00025	ff d7		 call	 edi
  00027	8d 46 24	 lea	 eax, DWORD PTR [esi+36]
  0002a	50		 push	 eax
  0002b	8d 4b 24	 lea	 ecx, DWORD PTR [ebx+36]
  0002e	ff d7		 call	 edi
  00030	8d 46 34	 lea	 eax, DWORD PTR [esi+52]
  00033	50		 push	 eax
  00034	8d 4b 34	 lea	 ecx, DWORD PTR [ebx+52]
  00037	ff d7		 call	 edi
  00039	83 c6 44	 add	 esi, 68			; 00000044H
  0003c	8d 7b 44	 lea	 edi, DWORD PTR [ebx+68]
  0003f	a5		 movsd
  00040	a5		 movsd
  00041	a5		 movsd
  00042	5f		 pop	 edi
  00043	5e		 pop	 esi
  00044	8b c3		 mov	 eax, ebx
  00046	5b		 pop	 ebx
  00047	5d		 pop	 ebp
  00048	c2 04 00	 ret	 4
??4tagPetViewInfo@@QAEAAU0@ABU0@@Z ENDP			; tagPetViewInfo::operator=
_TEXT	ENDS
PUBLIC	??$move@AAUtagPetViewInfo@@@std@@YA$$QAUtagPetViewInfo@@AAU1@@Z ; std::move<tagPetViewInfo &>
; Function compile flags: /Ogsp
;	COMDAT ??$move@AAUtagPetViewInfo@@@std@@YA$$QAUtagPetViewInfo@@AAU1@@Z
_TEXT	SEGMENT
__Arg$ = 8						; size = 4
??$move@AAUtagPetViewInfo@@@std@@YA$$QAUtagPetViewInfo@@AAU1@@Z PROC ; std::move<tagPetViewInfo &>, COMDAT

; 86   : 	{	// forward _Arg as movable

  00000	55		 push	 ebp
  00001	8b ec		 mov	 ebp, esp

; 87   : 	return ((typename tr1::_Remove_reference<_Ty>::_Type&&)_Arg);

  00003	8b 45 08	 mov	 eax, DWORD PTR __Arg$[ebp]

; 88   : 	}

  00006	5d		 pop	 ebp
  00007	c3		 ret	 0
??$move@AAUtagPetViewInfo@@@std@@YA$$QAUtagPetViewInfo@@AAU1@@Z ENDP ; std::move<tagPetViewInfo &>
_TEXT	ENDS
PUBLIC	??$_Uninit_move@HHH@std@@YAPAHPAH00AAV?$allocator@H@0@0U_Scalar_ptr_iterator_tag@0@@Z ; std::_Uninit_move<int,int,int>
; Function compile flags: /Ogsp
; File c:\program files (x86)\microsoft visual studio 10.0\vc\include\memory
;	COMDAT ??$_Uninit_move@HHH@std@@YAPAHPAH00AAV?$allocator@H@0@0U_Scalar_ptr_iterator_tag@0@@Z
_TEXT	SEGMENT
__First$ = 8						; size = 4
__Last$ = 12						; size = 4
__Dest$ = 16						; size = 4
___formal$ = 20						; size = 4
___formal$ = 24						; size = 4
___formal$ = 28						; size = 1
??$_Uninit_move@HHH@std@@YAPAHPAH00AAV?$allocator@H@0@0U_Scalar_ptr_iterator_tag@0@@Z PROC ; std::_Uninit_move<int,int,int>, COMDAT

; 456  : 	{	// move [_First, _Last) to raw _Dest, scalar type

  00000	55		 push	 ebp
  00001	8b ec		 mov	 ebp, esp
  00003	56		 push	 esi

; 457  : 	_DEBUG_RANGE(_First, _Last);
; 458  : 	_DEBUG_POINTER(_Dest);
; 459  : 	size_t _Count = (size_t)(_Last - _First);

  00004	8b 75 0c	 mov	 esi, DWORD PTR __Last$[ebp]
  00007	2b 75 08	 sub	 esi, DWORD PTR __First$[ebp]
  0000a	c1 fe 02	 sar	 esi, 2

; 460  : 	return ((_Ty2 *)_CSTD memmove(&*_Dest, &*_First,
; 461  : 		_Count * sizeof (*_First)) + _Count);	// NB: non-overlapping move

  0000d	c1 e6 02	 shl	 esi, 2
  00010	56		 push	 esi
  00011	ff 75 08	 push	 DWORD PTR __First$[ebp]
  00014	ff 75 10	 push	 DWORD PTR __Dest$[ebp]
  00017	ff 15 00 00 00
	00		 call	 DWORD PTR __imp__memmove
  0001d	83 c4 0c	 add	 esp, 12			; 0000000cH
  00020	03 c6		 add	 eax, esi
  00022	5e		 pop	 esi

; 462  : 	}

  00023	5d		 pop	 ebp
  00024	c3		 ret	 0
??$_Uninit_move@HHH@std@@YAPAHPAH00AAV?$allocator@H@0@0U_Scalar_ptr_iterator_tag@0@@Z ENDP ; std::_Uninit_move<int,int,int>
_TEXT	ENDS
PUBLIC	??$forward@_N@std@@YA$$QA_NAA_N@Z		; std::forward<bool>
; Function compile flags: /Ogsp
; File c:\program files (x86)\microsoft visual studio 10.0\vc\include\utility
;	COMDAT ??$forward@_N@std@@YA$$QA_NAA_N@Z
_TEXT	SEGMENT
__Arg$ = 8						; size = 4
??$forward@_N@std@@YA$$QA_NAA_N@Z PROC			; std::forward<bool>, COMDAT

; 78   : 	{	// forward _Arg, given explicitly specified type parameter

  00000	55		 push	 ebp
  00001	8b ec		 mov	 ebp, esp

; 79   : 	return ((_Ty&&)_Arg);

  00003	8b 45 08	 mov	 eax, DWORD PTR __Arg$[ebp]

; 80   : 	}

  00006	5d		 pop	 ebp
  00007	c3		 ret	 0
??$forward@_N@std@@YA$$QA_NAA_N@Z ENDP			; std::forward<bool>
_TEXT	ENDS
PUBLIC	??1tagPetViewInfo@@QAE@XZ			; tagPetViewInfo::~tagPetViewInfo
;	COMDAT xdata$x
xdata$x	SEGMENT
__unwindtable$??1tagPetViewInfo@@QAE@XZ DD 0ffffffffH
	DD	FLAT:__unwindfunclet$??1tagPetViewInfo@@QAE@XZ$0
	DD	00H
	DD	FLAT:__unwindfunclet$??1tagPetViewInfo@@QAE@XZ$1
	DD	01H
	DD	FLAT:__unwindfunclet$??1tagPetViewInfo@@QAE@XZ$2
__ehfuncinfo$??1tagPetViewInfo@@QAE@XZ DD 019930522H
	DD	03H
	DD	FLAT:__unwindtable$??1tagPetViewInfo@@QAE@XZ
	DD	2 DUP(00H)
	DD	2 DUP(00H)
	DD	00H
	DD	01H
; Function compile flags: /Ogsp
xdata$x	ENDS
;	COMDAT ??1tagPetViewInfo@@QAE@XZ
_TEXT	SEGMENT
_this$ = -16						; size = 4
__$EHRec$ = -12						; size = 12
??1tagPetViewInfo@@QAE@XZ PROC				; tagPetViewInfo::~tagPetViewInfo, COMDAT
; _this$ = ecx
  00000	6a 04		 push	 4
  00002	b8 00 00 00 00	 mov	 eax, __ehhandler$??1tagPetViewInfo@@QAE@XZ
  00007	e8 00 00 00 00	 call	 __EH_prolog3
  0000c	8b f9		 mov	 edi, ecx
  0000e	89 7d f0	 mov	 DWORD PTR _this$[ebp], edi
  00011	8b 35 00 00 00
	00		 mov	 esi, DWORD PTR __imp_??1ioHashString@@QAE@XZ
  00017	8d 4f 34	 lea	 ecx, DWORD PTR [edi+52]
  0001a	c7 45 fc 02 00
	00 00		 mov	 DWORD PTR __$EHRec$[ebp+8], 2
  00021	ff d6		 call	 esi
  00023	8d 4f 24	 lea	 ecx, DWORD PTR [edi+36]
  00026	c6 45 fc 01	 mov	 BYTE PTR __$EHRec$[ebp+8], 1
  0002a	ff d6		 call	 esi
  0002c	8d 4f 14	 lea	 ecx, DWORD PTR [edi+20]
  0002f	c6 45 fc 00	 mov	 BYTE PTR __$EHRec$[ebp+8], 0
  00033	ff d6		 call	 esi
  00035	83 4d fc ff	 or	 DWORD PTR __$EHRec$[ebp+8], -1
  00039	8d 4f 04	 lea	 ecx, DWORD PTR [edi+4]
  0003c	ff d6		 call	 esi
  0003e	e8 00 00 00 00	 call	 __EH_epilog3
  00043	c3		 ret	 0
_TEXT	ENDS
;	COMDAT text$x
text$x	SEGMENT
__unwindfunclet$??1tagPetViewInfo@@QAE@XZ$0:
  00000	8b 4d f0	 mov	 ecx, DWORD PTR _this$[ebp]
  00003	83 c1 04	 add	 ecx, 4
  00006	ff 25 00 00 00
	00		 jmp	 DWORD PTR __imp_??1ioHashString@@QAE@XZ
__unwindfunclet$??1tagPetViewInfo@@QAE@XZ$1:
  0000c	8b 4d f0	 mov	 ecx, DWORD PTR _this$[ebp]
  0000f	83 c1 14	 add	 ecx, 20			; 00000014H
  00012	ff 25 00 00 00
	00		 jmp	 DWORD PTR __imp_??1ioHashString@@QAE@XZ
__unwindfunclet$??1tagPetViewInfo@@QAE@XZ$2:
  00018	8b 4d f0	 mov	 ecx, DWORD PTR _this$[ebp]
  0001b	83 c1 24	 add	 ecx, 36			; 00000024H
  0001e	ff 25 00 00 00
	00		 jmp	 DWORD PTR __imp_??1ioHashString@@QAE@XZ
__ehhandler$??1tagPetViewInfo@@QAE@XZ:
  00024	8b 54 24 08	 mov	 edx, DWORD PTR [esp+8]
  00028	8d 42 0c	 lea	 eax, DWORD PTR [edx+12]
  0002b	8b 4a ec	 mov	 ecx, DWORD PTR [edx-20]
  0002e	33 c8		 xor	 ecx, eax
  00030	e8 00 00 00 00	 call	 @__security_check_cookie@4
  00035	b8 00 00 00 00	 mov	 eax, OFFSET __ehfuncinfo$??1tagPetViewInfo@@QAE@XZ
  0003a	e9 00 00 00 00	 jmp	 ___CxxFrameHandler3
text$x	ENDS
??1tagPetViewInfo@@QAE@XZ ENDP				; tagPetViewInfo::~tagPetViewInfo
PUBLIC	??$forward@H@std@@YA$$QAHAAH@Z			; std::forward<int>
; Function compile flags: /Ogsp
;	COMDAT ??$forward@H@std@@YA$$QAHAAH@Z
_TEXT	SEGMENT
__Arg$ = 8						; size = 4
??$forward@H@std@@YA$$QAHAAH@Z PROC			; std::forward<int>, COMDAT

; 78   : 	{	// forward _Arg, given explicitly specified type parameter

  00000	55		 push	 ebp
  00001	8b ec		 mov	 ebp, esp

; 79   : 	return ((_Ty&&)_Arg);

  00003	8b 45 08	 mov	 eax, DWORD PTR __Arg$[ebp]

; 80   : 	}

  00006	5d		 pop	 ebp
  00007	c3		 ret	 0
??$forward@H@std@@YA$$QAHAAH@Z ENDP			; std::forward<int>
_TEXT	ENDS
PUBLIC	?GetSingleton@ioPetInfoManager@@SAAAV1@XZ	; ioPetInfoManager::GetSingleton
; Function compile flags: /Ogsp
; File d:\lost saga for developer\youtube\tutorial\source\src\lsclient\iopetinfomanager.cpp
;	COMDAT ?GetSingleton@ioPetInfoManager@@SAAAV1@XZ
_TEXT	SEGMENT
?GetSingleton@ioPetInfoManager@@SAAAV1@XZ PROC		; ioPetInfoManager::GetSingleton, COMDAT

; 20   : 	return Singleton< ioPetInfoManager >::GetSingleton();

  00000	a1 00 00 00 00	 mov	 eax, DWORD PTR ?ms_Singleton@?$Singleton@VioPetInfoManager@@@@1PAVioPetInfoManager@@A ; Singleton<ioPetInfoManager>::ms_Singleton

; 21   : }

  00005	c3		 ret	 0
?GetSingleton@ioPetInfoManager@@SAAAV1@XZ ENDP		; ioPetInfoManager::GetSingleton
_TEXT	ENDS
PUBLIC	?GetMaxExp@ioPetInfoManager@@QAEHHW4PetRankType@@@Z ; ioPetInfoManager::GetMaxExp
; Function compile flags: /Ogsp
;	COMDAT ?GetMaxExp@ioPetInfoManager@@QAEHHW4PetRankType@@@Z
_TEXT	SEGMENT
_nCurLevel$ = 8						; size = 4
_eRankType$ = 12					; size = 4
?GetMaxExp@ioPetInfoManager@@QAEHHW4PetRankType@@@Z PROC ; ioPetInfoManager::GetMaxExp, COMDAT
; _this$ = ecx

; 222  : {

  00000	55		 push	 ebp
  00001	8b ec		 mov	 ebp, esp
  00003	53		 push	 ebx

; 223  : 	if ( !COMPARE( eRankType, PRT_NONE+1, PRT_MAX ) )

  00004	8b 5d 0c	 mov	 ebx, DWORD PTR _eRankType$[ebp]
  00007	8d 43 ff	 lea	 eax, DWORD PTR [ebx-1]
  0000a	56		 push	 esi
  0000b	57		 push	 edi
  0000c	83 f8 04	 cmp	 eax, 4
  0000f	77 22		 ja	 SHORT $LN5@GetMaxExp

; 225  : 
; 226  : 	int nMaxInfo = (int)m_PetRankInfoList.size();

  00011	8b 71 04	 mov	 esi, DWORD PTR [ecx+4]
  00014	8b 41 08	 mov	 eax, DWORD PTR [ecx+8]
  00017	2b c6		 sub	 eax, esi
  00019	6a 0c		 push	 12			; 0000000cH
  0001b	99		 cdq
  0001c	5f		 pop	 edi
  0001d	f7 ff		 idiv	 edi

; 227  : 	for ( int i=0; i<nMaxInfo; ++i )

  0001f	33 d2		 xor	 edx, edx
  00021	85 c0		 test	 eax, eax
  00023	7e 0e		 jle	 SHORT $LN5@GetMaxExp

; 225  : 
; 226  : 	int nMaxInfo = (int)m_PetRankInfoList.size();

  00025	8b fe		 mov	 edi, esi
$LL4@GetMaxExp:

; 228  : 	{
; 229  : 		//ÇØ´ç ·©Å©ÀÏ¶§ ·©Å©ÀÇ »ó¼ö °ªÀ¸·Î °è»ê
; 230  : 		if ( m_PetRankInfoList[i].m_RankType == eRankType )

  00027	39 1f		 cmp	 DWORD PTR [edi], ebx
  00029	74 11		 je	 SHORT $LN16@GetMaxExp

; 227  : 	for ( int i=0; i<nMaxInfo; ++i )

  0002b	42		 inc	 edx
  0002c	83 c7 0c	 add	 edi, 12			; 0000000cH
  0002f	3b d0		 cmp	 edx, eax
  00031	7c f4		 jl	 SHORT $LL4@GetMaxExp
$LN5@GetMaxExp:

; 224  : 		return 0;

  00033	33 c0		 xor	 eax, eax
$LN7@GetMaxExp:
  00035	5f		 pop	 edi
  00036	5e		 pop	 esi
  00037	5b		 pop	 ebx

; 232  : 	}
; 233  : 	return 0;
; 234  : }

  00038	5d		 pop	 ebp
  00039	c2 08 00	 ret	 8
$LN16@GetMaxExp:

; 231  : 			return (nCurLevel + 1) * m_fMaxExpConst * m_PetRankInfoList[i].m_fRankValue;

  0003c	8b 45 08	 mov	 eax, DWORD PTR _nCurLevel$[ebp]
  0003f	f3 0f 10 49 34	 movss	 xmm1, DWORD PTR [ecx+52]
  00044	40		 inc	 eax
  00045	6b d2 0c	 imul	 edx, 12			; 0000000cH
  00048	0f 57 c0	 xorps	 xmm0, xmm0
  0004b	f3 0f 2a c0	 cvtsi2ss xmm0, eax
  0004f	0f 5a c9	 cvtps2pd xmm1, xmm1
  00052	0f 5a c0	 cvtps2pd xmm0, xmm0
  00055	f2 0f 59 c1	 mulsd	 xmm0, xmm1
  00059	f3 0f 10 4c 32
	08		 movss	 xmm1, DWORD PTR [edx+esi+8]
  0005f	0f 5a c9	 cvtps2pd xmm1, xmm1
  00062	f2 0f 59 c1	 mulsd	 xmm0, xmm1
  00066	f2 0f 2c c0	 cvttsd2si eax, xmm0
  0006a	eb c9		 jmp	 SHORT $LN7@GetMaxExp
?GetMaxExp@ioPetInfoManager@@QAEHHW4PetRankType@@@Z ENDP ; ioPetInfoManager::GetMaxExp
_TEXT	ENDS
PUBLIC	?GetMaxLevel@ioPetInfoManager@@QAEHW4PetRankType@@@Z ; ioPetInfoManager::GetMaxLevel
; Function compile flags: /Ogsp
;	COMDAT ?GetMaxLevel@ioPetInfoManager@@QAEHW4PetRankType@@@Z
_TEXT	SEGMENT
_eRankType$ = 8						; size = 4
?GetMaxLevel@ioPetInfoManager@@QAEHW4PetRankType@@@Z PROC ; ioPetInfoManager::GetMaxLevel, COMDAT
; _this$ = ecx

; 238  : {

  00000	55		 push	 ebp
  00001	8b ec		 mov	 ebp, esp
  00003	56		 push	 esi
  00004	57		 push	 edi

; 239  : 	if ( !COMPARE( eRankType, PRT_NONE+1, PRT_MAX ) )

  00005	8b 7d 08	 mov	 edi, DWORD PTR _eRankType$[ebp]
  00008	8d 47 ff	 lea	 eax, DWORD PTR [edi-1]
  0000b	83 f8 04	 cmp	 eax, 4
  0000e	77 23		 ja	 SHORT $LN5@GetMaxLeve

; 241  : 	
; 242  : 	int nMaxInfo = (int)m_PetRankInfoList.size();

  00010	8b 41 08	 mov	 eax, DWORD PTR [ecx+8]
  00013	2b 41 04	 sub	 eax, DWORD PTR [ecx+4]
  00016	6a 0c		 push	 12			; 0000000cH
  00018	99		 cdq
  00019	5e		 pop	 esi
  0001a	f7 fe		 idiv	 esi

; 243  : 	for ( int i=0; i<nMaxInfo; ++i )

  0001c	33 d2		 xor	 edx, edx
  0001e	85 c0		 test	 eax, eax
  00020	7e 11		 jle	 SHORT $LN5@GetMaxLeve

; 241  : 	
; 242  : 	int nMaxInfo = (int)m_PetRankInfoList.size();

  00022	8b 49 04	 mov	 ecx, DWORD PTR [ecx+4]
  00025	8b f1		 mov	 esi, ecx
$LL4@GetMaxLeve:

; 244  : 	{
; 245  : 		//ÇØ´ç ·©Å©ÀÏ¶§ ÃÖ´ë ·¹º§ ¹ÝÈ¯
; 246  : 		if ( m_PetRankInfoList[i].m_RankType == eRankType )

  00027	39 3e		 cmp	 DWORD PTR [esi], edi
  00029	74 10		 je	 SHORT $LN16@GetMaxLeve

; 243  : 	for ( int i=0; i<nMaxInfo; ++i )

  0002b	42		 inc	 edx
  0002c	83 c6 0c	 add	 esi, 12			; 0000000cH
  0002f	3b d0		 cmp	 edx, eax
  00031	7c f4		 jl	 SHORT $LL4@GetMaxLeve
$LN5@GetMaxLeve:

; 240  : 		return 0;

  00033	33 c0		 xor	 eax, eax
$LN7@GetMaxLeve:
  00035	5f		 pop	 edi
  00036	5e		 pop	 esi

; 248  : 	}
; 249  : 	return 0;
; 250  : }

  00037	5d		 pop	 ebp
  00038	c2 04 00	 ret	 4
$LN16@GetMaxLeve:

; 247  : 			return m_PetRankInfoList[i].m_nMaxLevel;

  0003b	6b d2 0c	 imul	 edx, 12			; 0000000cH
  0003e	8b 44 0a 04	 mov	 eax, DWORD PTR [edx+ecx+4]
  00042	eb f1		 jmp	 SHORT $LN7@GetMaxLeve
?GetMaxLevel@ioPetInfoManager@@QAEHW4PetRankType@@@Z ENDP ; ioPetInfoManager::GetMaxLevel
_TEXT	ENDS
PUBLIC	??9?$_Tree_const_iterator@V?$_Tree_val@V?$_Tmap_traits@HUtagPetStatBaseInfo@@U?$less@H@std@@V?$allocator@U?$pair@$$CBHUtagPetStatBaseInfo@@@std@@@3@$0A@@std@@@std@@@std@@QBE_NABV01@@Z ; std::_Tree_const_iterator<std::_Tree_val<std::_Tmap_traits<int,tagPetStatBaseInfo,std::less<int>,std::allocator<std::pair<int const ,tagPetStatBaseInfo> >,0> > >::operator!=
; Function compile flags: /Ogsp
; File c:\program files (x86)\microsoft visual studio 10.0\vc\include\xtree
;	COMDAT ??9?$_Tree_const_iterator@V?$_Tree_val@V?$_Tmap_traits@HUtagPetStatBaseInfo@@U?$less@H@std@@V?$allocator@U?$pair@$$CBHUtagPetStatBaseInfo@@@std@@@3@$0A@@std@@@std@@@std@@QBE_NABV01@@Z
_TEXT	SEGMENT
__Right$ = 8						; size = 4
??9?$_Tree_const_iterator@V?$_Tree_val@V?$_Tmap_traits@HUtagPetStatBaseInfo@@U?$less@H@std@@V?$allocator@U?$pair@$$CBHUtagPetStatBaseInfo@@@std@@@3@$0A@@std@@@std@@@std@@QBE_NABV01@@Z PROC ; std::_Tree_const_iterator<std::_Tree_val<std::_Tmap_traits<int,tagPetStatBaseInfo,std::less<int>,std::allocator<std::pair<int const ,tagPetStatBaseInfo> >,0> > >::operator!=, COMDAT
; _this$ = ecx

; 334  : 		{	// test for iterator inequality

  00000	55		 push	 ebp
  00001	8b ec		 mov	 ebp, esp

; 335  : 		return (!(*this == _Right));

  00003	8b 01		 mov	 eax, DWORD PTR [ecx]
  00005	8b 55 08	 mov	 edx, DWORD PTR __Right$[ebp]
  00008	33 c9		 xor	 ecx, ecx
  0000a	3b 02		 cmp	 eax, DWORD PTR [edx]
  0000c	0f 95 c0	 setne	 al

; 336  : 		}

  0000f	5d		 pop	 ebp
  00010	c2 04 00	 ret	 4
??9?$_Tree_const_iterator@V?$_Tree_val@V?$_Tmap_traits@HUtagPetStatBaseInfo@@U?$less@H@std@@V?$allocator@U?$pair@$$CBHUtagPetStatBaseInfo@@@std@@@3@$0A@@std@@@std@@@std@@QBE_NABV01@@Z ENDP ; std::_Tree_const_iterator<std::_Tree_val<std::_Tmap_traits<int,tagPetStatBaseInfo,std::less<int>,std::allocator<std::pair<int const ,tagPetStatBaseInfo> >,0> > >::operator!=
_TEXT	ENDS
PUBLIC	??9?$_Tree_const_iterator@V?$_Tree_val@V?$_Tmap_traits@HUtagPetAddStatInfo@@U?$less@H@std@@V?$allocator@U?$pair@$$CBHUtagPetAddStatInfo@@@std@@@3@$0A@@std@@@std@@@std@@QBE_NABV01@@Z ; std::_Tree_const_iterator<std::_Tree_val<std::_Tmap_traits<int,tagPetAddStatInfo,std::less<int>,std::allocator<std::pair<int const ,tagPetAddStatInfo> >,0> > >::operator!=
; Function compile flags: /Ogsp
;	COMDAT ??9?$_Tree_const_iterator@V?$_Tree_val@V?$_Tmap_traits@HUtagPetAddStatInfo@@U?$less@H@std@@V?$allocator@U?$pair@$$CBHUtagPetAddStatInfo@@@std@@@3@$0A@@std@@@std@@@std@@QBE_NABV01@@Z
_TEXT	SEGMENT
__Right$ = 8						; size = 4
??9?$_Tree_const_iterator@V?$_Tree_val@V?$_Tmap_traits@HUtagPetAddStatInfo@@U?$less@H@std@@V?$allocator@U?$pair@$$CBHUtagPetAddStatInfo@@@std@@@3@$0A@@std@@@std@@@std@@QBE_NABV01@@Z PROC ; std::_Tree_const_iterator<std::_Tree_val<std::_Tmap_traits<int,tagPetAddStatInfo,std::less<int>,std::allocator<std::pair<int const ,tagPetAddStatInfo> >,0> > >::operator!=, COMDAT
; _this$ = ecx

; 334  : 		{	// test for iterator inequality

  00000	55		 push	 ebp
  00001	8b ec		 mov	 ebp, esp

; 335  : 		return (!(*this == _Right));

  00003	8b 01		 mov	 eax, DWORD PTR [ecx]
  00005	8b 55 08	 mov	 edx, DWORD PTR __Right$[ebp]
