; Listing generated by Microsoft (R) Optimizing Compiler Version 16.00.30319.01 

	TITLE	D:\Lost Saga For Developer\Youtube\Tutorial\Source\src\LSClient\ioPowerChargeJump.cpp
	.686P
	.XMM
	include listing.inc
	.model	flat

INCLUDELIB MSVCRT
INCLUDELIB OLDNAMES

PUBLIC	?return1@@YAIXZ					; return1
; Function compile flags: /Ogsp
; File d:\lost saga for developer\youtube\tutorial\source\src\lsclient\stdafx.h
;	COMDAT ?return1@@YAIXZ
_TEXT	SEGMENT
?return1@@YAIXZ PROC					; return1, COMDAT

; 17   : 	__forceinline unsigned int return1() { __asm mov eax, 1 };

  00000	b8 01 00 00 00	 mov	 eax, 1
  00005	c3		 ret	 0
?return1@@YAIXZ ENDP					; return1
_TEXT	ENDS
PUBLIC	?return100@@YAIXZ				; return100
; Function compile flags: /Ogsp
;	COMDAT ?return100@@YAIXZ
_TEXT	SEGMENT
?return100@@YAIXZ PROC					; return100, COMDAT

; 25   : 	__forceinline unsigned int return100() { __asm mov eax, 100 };

  00000	b8 64 00 00 00	 mov	 eax, 100		; 00000064H
  00005	c3		 ret	 0
?return100@@YAIXZ ENDP					; return100
_TEXT	ENDS
PUBLIC	?IsCatchMode@ioBaseChar@@QBE_NXZ		; ioBaseChar::IsCatchMode
; Function compile flags: /Ogsp
; File d:\lost saga for developer\youtube\tutorial\source\src\lsclient\iobasechar.h
;	COMDAT ?IsCatchMode@ioBaseChar@@QBE_NXZ
_TEXT	SEGMENT
?IsCatchMode@ioBaseChar@@QBE_NXZ PROC			; ioBaseChar::IsCatchMode, COMDAT
; _this$ = ecx

; 2131 : 	inline bool IsCatchMode() const { return m_bCatchState; }

  00000	8a 81 78 23 00
	00		 mov	 al, BYTE PTR [ecx+9080]
  00006	c3		 ret	 0
?IsCatchMode@ioBaseChar@@QBE_NXZ ENDP			; ioBaseChar::IsCatchMode
_TEXT	ENDS
PUBLIC	?GetCharName@ioBaseChar@@QBEABVioHashString@@XZ	; ioBaseChar::GetCharName
; Function compile flags: /Ogsp
;	COMDAT ?GetCharName@ioBaseChar@@QBEABVioHashString@@XZ
_TEXT	SEGMENT
?GetCharName@ioBaseChar@@QBEABVioHashString@@XZ PROC	; ioBaseChar::GetCharName, COMDAT
; _this$ = ecx

; 2594 : 	inline const ioHashString& GetCharName() const { return m_Name; }

  00000	8d 81 d4 02 00
	00		 lea	 eax, DWORD PTR [ecx+724]
  00006	c3		 ret	 0
?GetCharName@ioBaseChar@@QBEABVioHashString@@XZ ENDP	; ioBaseChar::GetCharName
_TEXT	ENDS
PUBLIC	?GetMoveDir@ioBaseChar@@QBEABUD3DXVECTOR3@@XZ	; ioBaseChar::GetMoveDir
; Function compile flags: /Ogsp
;	COMDAT ?GetMoveDir@ioBaseChar@@QBEABUD3DXVECTOR3@@XZ
_TEXT	SEGMENT
?GetMoveDir@ioBaseChar@@QBEABUD3DXVECTOR3@@XZ PROC	; ioBaseChar::GetMoveDir, COMDAT
; _this$ = ecx

; 2596 : 	inline const D3DXVECTOR3& GetMoveDir() const { return m_vMoveDir; }

  00000	8d 81 b4 06 00
	00		 lea	 eax, DWORD PTR [ecx+1716]
  00006	c3		 ret	 0
?GetMoveDir@ioBaseChar@@QBEABUD3DXVECTOR3@@XZ ENDP	; ioBaseChar::GetMoveDir
_TEXT	ENDS
PUBLIC	?GetInputDir@ioBaseChar@@QBEABUD3DXVECTOR3@@XZ	; ioBaseChar::GetInputDir
; Function compile flags: /Ogsp
;	COMDAT ?GetInputDir@ioBaseChar@@QBEABUD3DXVECTOR3@@XZ
_TEXT	SEGMENT
?GetInputDir@ioBaseChar@@QBEABUD3DXVECTOR3@@XZ PROC	; ioBaseChar::GetInputDir, COMDAT
; _this$ = ecx

; 2597 : 	inline const D3DXVECTOR3& GetInputDir() const { return m_vInputDir; }

  00000	8d 81 c0 06 00
	00		 lea	 eax, DWORD PTR [ecx+1728]
  00006	c3		 ret	 0
?GetInputDir@ioBaseChar@@QBEABUD3DXVECTOR3@@XZ ENDP	; ioBaseChar::GetInputDir
_TEXT	ENDS
PUBLIC	?GetTargetRot@ioBaseChar@@QBEABUD3DXQUATERNION@@XZ ; ioBaseChar::GetTargetRot
; Function compile flags: /Ogsp
;	COMDAT ?GetTargetRot@ioBaseChar@@QBEABUD3DXQUATERNION@@XZ
_TEXT	SEGMENT
?GetTargetRot@ioBaseChar@@QBEABUD3DXQUATERNION@@XZ PROC	; ioBaseChar::GetTargetRot, COMDAT
; _this$ = ecx

; 2599 : 	inline const D3DXQUATERNION& GetTargetRot() const { return m_qtTargetRot; }

  00000	8d 81 a4 06 00
	00		 lea	 eax, DWORD PTR [ecx+1700]
  00006	c3		 ret	 0
?GetTargetRot@ioBaseChar@@QBEABUD3DXQUATERNION@@XZ ENDP	; ioBaseChar::GetTargetRot
_TEXT	ENDS
PUBLIC	?GetUsedBuffJump@ioBaseChar@@QBEHXZ		; ioBaseChar::GetUsedBuffJump
; Function compile flags: /Ogsp
;	COMDAT ?GetUsedBuffJump@ioBaseChar@@QBEHXZ
_TEXT	SEGMENT
?GetUsedBuffJump@ioBaseChar@@QBEHXZ PROC		; ioBaseChar::GetUsedBuffJump, COMDAT
; _this$ = ecx

; 2622 : 	inline int GetUsedBuffJump() const { return m_UsedBuffJump; }

  00000	8b 81 ac 0e 00
	00		 mov	 eax, DWORD PTR [ecx+3756]
  00006	c3		 ret	 0
?GetUsedBuffJump@ioBaseChar@@QBEHXZ ENDP		; ioBaseChar::GetUsedBuffJump
_TEXT	ENDS
PUBLIC	?GetUsedBuffFlyJump@ioBaseChar@@QBEHXZ		; ioBaseChar::GetUsedBuffFlyJump
; Function compile flags: /Ogsp
;	COMDAT ?GetUsedBuffFlyJump@ioBaseChar@@QBEHXZ
_TEXT	SEGMENT
?GetUsedBuffFlyJump@ioBaseChar@@QBEHXZ PROC		; ioBaseChar::GetUsedBuffFlyJump, COMDAT
; _this$ = ecx

; 2623 : 	inline int GetUsedBuffFlyJump() const { return m_UsedBuffFlyJump; }

  00000	8b 81 b0 0e 00
	00		 mov	 eax, DWORD PTR [ecx+3760]
  00006	c3		 ret	 0
?GetUsedBuffFlyJump@ioBaseChar@@QBEHXZ ENDP		; ioBaseChar::GetUsedBuffFlyJump
_TEXT	ENDS
PUBLIC	?GetUsedBuffMultiFlyJump@ioBaseChar@@QBEHXZ	; ioBaseChar::GetUsedBuffMultiFlyJump
; Function compile flags: /Ogsp
;	COMDAT ?GetUsedBuffMultiFlyJump@ioBaseChar@@QBEHXZ
_TEXT	SEGMENT
?GetUsedBuffMultiFlyJump@ioBaseChar@@QBEHXZ PROC	; ioBaseChar::GetUsedBuffMultiFlyJump, COMDAT
; _this$ = ecx

; 2624 : 	inline int GetUsedBuffMultiFlyJump() const { return m_UsedBuffMultiFlyJump; }

  00000	8b 81 b4 0e 00
	00		 mov	 eax, DWORD PTR [ecx+3764]
  00006	c3		 ret	 0
?GetUsedBuffMultiFlyJump@ioBaseChar@@QBEHXZ ENDP	; ioBaseChar::GetUsedBuffMultiFlyJump
_TEXT	ENDS
PUBLIC	?GetJumpMoveStartTime@ioBaseChar@@QAEKXZ	; ioBaseChar::GetJumpMoveStartTime
; Function compile flags: /Ogsp
;	COMDAT ?GetJumpMoveStartTime@ioBaseChar@@QAEKXZ
_TEXT	SEGMENT
?GetJumpMoveStartTime@ioBaseChar@@QAEKXZ PROC		; ioBaseChar::GetJumpMoveStartTime, COMDAT
; _this$ = ecx

; 2625 : 	inline DWORD GetJumpMoveStartTime() { return m_dwJumpMoveStartTime; }

  00000	8b 81 80 0e 00
	00		 mov	 eax, DWORD PTR [ecx+3712]
  00006	c3		 ret	 0
?GetJumpMoveStartTime@ioBaseChar@@QAEKXZ ENDP		; ioBaseChar::GetJumpMoveStartTime
_TEXT	ENDS
PUBLIC	?SetCurJumpPowerAmt@ioBaseChar@@QAEXM@Z		; ioBaseChar::SetCurJumpPowerAmt
EXTRN	__fltused:DWORD
; Function compile flags: /Ogsp
;	COMDAT ?SetCurJumpPowerAmt@ioBaseChar@@QAEXM@Z
_TEXT	SEGMENT
_fAmt$ = 8						; size = 4
?SetCurJumpPowerAmt@ioBaseChar@@QAEXM@Z PROC		; ioBaseChar::SetCurJumpPowerAmt, COMDAT
; _this$ = ecx

; 2628 : 	inline void SetCurJumpPowerAmt( float fAmt ) { m_fCurJumpPowerAmt = fAmt; }

  00000	55		 push	 ebp
  00001	8b ec		 mov	 ebp, esp
  00003	f3 0f 10 45 08	 movss	 xmm0, DWORD PTR _fAmt$[ebp]
  00008	f3 0f 11 81 90
	0e 00 00	 movss	 DWORD PTR [ecx+3728], xmm0
  00010	5d		 pop	 ebp
  00011	c2 04 00	 ret	 4
?SetCurJumpPowerAmt@ioBaseChar@@QAEXM@Z ENDP		; ioBaseChar::SetCurJumpPowerAmt
_TEXT	ENDS
PUBLIC	??_7bad_alloc@std@@6B@				; std::bad_alloc::`vftable'
PUBLIC	??0bad_alloc@std@@QAE@PBD@Z			; std::bad_alloc::bad_alloc
PUBLIC	??_R4bad_alloc@std@@6B@				; std::bad_alloc::`RTTI Complete Object Locator'
PUBLIC	??_R0?AVbad_alloc@std@@@8			; std::bad_alloc `RTTI Type Descriptor'
PUBLIC	??_R3bad_alloc@std@@8				; std::bad_alloc::`RTTI Class Hierarchy Descriptor'
PUBLIC	??_R2bad_alloc@std@@8				; std::bad_alloc::`RTTI Base Class Array'
PUBLIC	??_R1A@?0A@EA@bad_alloc@std@@8			; std::bad_alloc::`RTTI Base Class Descriptor at (0,-1,0,64)'
PUBLIC	??_R1A@?0A@EA@exception@std@@8			; std::exception::`RTTI Base Class Descriptor at (0,-1,0,64)'
PUBLIC	??_R0?AVexception@std@@@8			; std::exception `RTTI Type Descriptor'
PUBLIC	??_R3exception@std@@8				; std::exception::`RTTI Class Hierarchy Descriptor'
PUBLIC	??_R2exception@std@@8				; std::exception::`RTTI Base Class Array'
EXTRN	__imp_??0exception@std@@QAE@ABQBD@Z:PROC
EXTRN	??_7type_info@@6B@:QWORD			; type_info::`vftable'
EXTRN	??_Ebad_alloc@std@@UAEPAXI@Z:PROC		; std::bad_alloc::`vector deleting destructor'
EXTRN	?what@exception@std@@UBEPBDXZ:PROC		; std::exception::what
;	COMDAT ??_R2exception@std@@8
; File c:\program files (x86)\microsoft visual studio 10.0\vc\include\exception
rdata$r	SEGMENT
??_R2exception@std@@8 DD FLAT:??_R1A@?0A@EA@exception@std@@8 ; std::exception::`RTTI Base Class Array'
rdata$r	ENDS
;	COMDAT ??_R3exception@std@@8
rdata$r	SEGMENT
??_R3exception@std@@8 DD 00H				; std::exception::`RTTI Class Hierarchy Descriptor'
	DD	00H
	DD	01H
	DD	FLAT:??_R2exception@std@@8
rdata$r	ENDS
;	COMDAT ??_R0?AVexception@std@@@8
_DATA	SEGMENT
??_R0?AVexception@std@@@8 DD FLAT:??_7type_info@@6B@	; std::exception `RTTI Type Descriptor'
	DD	00H
	DB	'.?AVexception@std@@', 00H
_DATA	ENDS
;	COMDAT ??_R1A@?0A@EA@exception@std@@8
rdata$r	SEGMENT
??_R1A@?0A@EA@exception@std@@8 DD FLAT:??_R0?AVexception@std@@@8 ; std::exception::`RTTI Base Class Descriptor at (0,-1,0,64)'
	DD	00H
	DD	00H
	DD	0ffffffffH
	DD	00H
	DD	040H
	DD	FLAT:??_R3exception@std@@8
rdata$r	ENDS
;	COMDAT ??_R1A@?0A@EA@bad_alloc@std@@8
rdata$r	SEGMENT
??_R1A@?0A@EA@bad_alloc@std@@8 DD FLAT:??_R0?AVbad_alloc@std@@@8 ; std::bad_alloc::`RTTI Base Class Descriptor at (0,-1,0,64)'
	DD	01H
	DD	00H
	DD	0ffffffffH
	DD	00H
	DD	040H
	DD	FLAT:??_R3bad_alloc@std@@8
rdata$r	ENDS
;	COMDAT ??_R2bad_alloc@std@@8
rdata$r	SEGMENT
??_R2bad_alloc@std@@8 DD FLAT:??_R1A@?0A@EA@bad_alloc@std@@8 ; std::bad_alloc::`RTTI Base Class Array'
	DD	FLAT:??_R1A@?0A@EA@exception@std@@8
rdata$r	ENDS
;	COMDAT ??_R3bad_alloc@std@@8
rdata$r	SEGMENT
??_R3bad_alloc@std@@8 DD 00H				; std::bad_alloc::`RTTI Class Hierarchy Descriptor'
	DD	00H
	DD	02H
	DD	FLAT:??_R2bad_alloc@std@@8
rdata$r	ENDS
;	COMDAT ??_R0?AVbad_alloc@std@@@8
_DATA	SEGMENT
??_R0?AVbad_alloc@std@@@8 DD FLAT:??_7type_info@@6B@	; std::bad_alloc `RTTI Type Descriptor'
	DD	00H
	DB	'.?AVbad_alloc@std@@', 00H
_DATA	ENDS
;	COMDAT ??_R4bad_alloc@std@@6B@
rdata$r	SEGMENT
??_R4bad_alloc@std@@6B@ DD 00H				; std::bad_alloc::`RTTI Complete Object Locator'
	DD	00H
	DD	00H
	DD	FLAT:??_R0?AVbad_alloc@std@@@8
	DD	FLAT:??_R3bad_alloc@std@@8
rdata$r	ENDS
;	COMDAT ??_7bad_alloc@std@@6B@
CONST	SEGMENT
??_7bad_alloc@std@@6B@ DD FLAT:??_R4bad_alloc@std@@6B@	; std::bad_alloc::`vftable'
	DD	FLAT:??_Ebad_alloc@std@@UAEPAXI@Z
	DD	FLAT:?what@exception@std@@UBEPBDXZ
; Function compile flags: /Ogsp
CONST	ENDS
;	COMDAT ??0bad_alloc@std@@QAE@PBD@Z
_TEXT	SEGMENT
__Message$ = 8						; size = 4
??0bad_alloc@std@@QAE@PBD@Z PROC			; std::bad_alloc::bad_alloc, COMDAT
; _this$ = ecx

; 345  : 		{	// construct from message string

  00000	55		 push	 ebp
  00001	8b ec		 mov	 ebp, esp
  00003	56		 push	 esi
  00004	8d 45 08	 lea	 eax, DWORD PTR __Message$[ebp]
  00007	50		 push	 eax
  00008	8b f1		 mov	 esi, ecx
  0000a	ff 15 00 00 00
	00		 call	 DWORD PTR __imp_??0exception@std@@QAE@ABQBD@Z
  00010	c7 06 00 00 00
	00		 mov	 DWORD PTR [esi], OFFSET ??_7bad_alloc@std@@6B@

; 346  : 		}

  00016	8b c6		 mov	 eax, esi
  00018	5e		 pop	 esi
  00019	5d		 pop	 ebp
  0001a	c2 04 00	 ret	 4
??0bad_alloc@std@@QAE@PBD@Z ENDP			; std::bad_alloc::bad_alloc
_TEXT	ENDS
PUBLIC	?IsDirKeyDoubleClick@ioBaseChar@@QBE_NXZ	; ioBaseChar::IsDirKeyDoubleClick
EXTRN	?IsDirDoubleClick@ioUserKeyInput@@QBE_NXZ:PROC	; ioUserKeyInput::IsDirDoubleClick
; Function compile flags: /Ogsp
; File d:\lost saga for developer\youtube\tutorial\source\src\lsclient\iobasechar.h
;	COMDAT ?IsDirKeyDoubleClick@ioBaseChar@@QBE_NXZ
_TEXT	SEGMENT
?IsDirKeyDoubleClick@ioBaseChar@@QBE_NXZ PROC		; ioBaseChar::IsDirKeyDoubleClick, COMDAT
; _this$ = ecx

; 3398 : 	bool IsDirKeyDoubleClick() const { return m_KeyInput.IsDirDoubleClick(); }

  00000	81 c1 80 0c 00
	00		 add	 ecx, 3200		; 00000c80H
  00006	e9 00 00 00 00	 jmp	 ?IsDirDoubleClick@ioUserKeyInput@@QBE_NXZ ; ioUserKeyInput::IsDirDoubleClick
?IsDirKeyDoubleClick@ioBaseChar@@QBE_NXZ ENDP		; ioBaseChar::IsDirKeyDoubleClick
_TEXT	ENDS
PUBLIC	??1bad_alloc@std@@UAE@XZ			; std::bad_alloc::~bad_alloc
EXTRN	__imp_??1exception@std@@UAE@XZ:PROC
; Function compile flags: /Ogsp
; File c:\program files (x86)\microsoft visual studio 10.0\vc\include\exception
;	COMDAT ??1bad_alloc@std@@UAE@XZ
_TEXT	SEGMENT
??1bad_alloc@std@@UAE@XZ PROC				; std::bad_alloc::~bad_alloc, COMDAT
; _this$ = ecx

; 354  : 		{	// destroy the object

  00000	c7 01 00 00 00
	00		 mov	 DWORD PTR [ecx], OFFSET ??_7bad_alloc@std@@6B@

; 355  : 		}

  00006	ff 25 00 00 00
	00		 jmp	 DWORD PTR __imp_??1exception@std@@UAE@XZ
??1bad_alloc@std@@UAE@XZ ENDP				; std::bad_alloc::~bad_alloc
_TEXT	ENDS
EXTRN	??3@YAXPAX@Z:PROC				; operator delete
; Function compile flags: /Ogsp
;	COMDAT ??_Gbad_alloc@std@@UAEPAXI@Z
_TEXT	SEGMENT
___flags$ = 8						; size = 4
??_Gbad_alloc@std@@UAEPAXI@Z PROC			; std::bad_alloc::`scalar deleting destructor', COMDAT
; _this$ = ecx
  00000	55		 push	 ebp
  00001	8b ec		 mov	 ebp, esp
  00003	56		 push	 esi
  00004	8b f1		 mov	 esi, ecx
  00006	c7 06 00 00 00
	00		 mov	 DWORD PTR [esi], OFFSET ??_7bad_alloc@std@@6B@
  0000c	ff 15 00 00 00
	00		 call	 DWORD PTR __imp_??1exception@std@@UAE@XZ
  00012	f6 45 08 01	 test	 BYTE PTR ___flags$[ebp], 1
  00016	74 07		 je	 SHORT $LN1@scalar
  00018	56		 push	 esi
  00019	e8 00 00 00 00	 call	 ??3@YAXPAX@Z		; operator delete
  0001e	59		 pop	 ecx
$LN1@scalar:
  0001f	8b c6		 mov	 eax, esi
  00021	5e		 pop	 esi
  00022	5d		 pop	 ebp
  00023	c2 04 00	 ret	 4
??_Gbad_alloc@std@@UAEPAXI@Z ENDP			; std::bad_alloc::`scalar deleting destructor'
_TEXT	ENDS
PUBLIC	??2@YAPAXIPAX@Z					; operator new
; Function compile flags: /Ogsp
; File c:\program files (x86)\microsoft visual studio 10.0\vc\include\new
;	COMDAT ??2@YAPAXIPAX@Z
_TEXT	SEGMENT
___formal$ = 8						; size = 4
__Where$ = 12						; size = 4
??2@YAPAXIPAX@Z PROC					; operator new, COMDAT

; 56   : 	{	// construct array with placement at _Where

  00000	55		 push	 ebp
  00001	8b ec		 mov	 ebp, esp

; 57   : 	return (_Where);

  00003	8b 45 0c	 mov	 eax, DWORD PTR __Where$[ebp]

; 58   : 	}

  00006	5d		 pop	 ebp
  00007	c3		 ret	 0
??2@YAPAXIPAX@Z ENDP					; operator new
_TEXT	ENDS
PUBLIC	??3@YAXPAX0@Z					; operator delete
; Function compile flags: /Ogsp
;	COMDAT ??3@YAXPAX0@Z
_TEXT	SEGMENT
___formal$ = 8						; size = 4
___formal$ = 12						; size = 4
??3@YAXPAX0@Z PROC					; operator delete, COMDAT

; 62   : 	}

  00000	c3		 ret	 0
??3@YAXPAX0@Z ENDP					; operator delete
_TEXT	ENDS
PUBLIC	?GetType@ioPowerChargeJump@@UBE?AW4JumpType@@XZ	; ioPowerChargeJump::GetType
; Function compile flags: /Ogsp
; File d:\lost saga for developer\youtube\tutorial\source\src\lsclient\iopowerchargejump.cpp
;	COMDAT ?GetType@ioPowerChargeJump@@UBE?AW4JumpType@@XZ
_TEXT	SEGMENT
?GetType@ioPowerChargeJump@@UBE?AW4JumpType@@XZ PROC	; ioPowerChargeJump::GetType, COMDAT
; _this$ = ecx

; 60   : 	return JT_POWER_CHARGE_JUMP;

  00000	6a 0e		 push	 14			; 0000000eH
  00002	58		 pop	 eax

; 61   : }

  00003	c3		 ret	 0
?GetType@ioPowerChargeJump@@UBE?AW4JumpType@@XZ ENDP	; ioPowerChargeJump::GetType
_TEXT	ENDS
PUBLIC	??_C@_00CNPNBAHC@?$AA@				; `string'
PUBLIC	?SetJumpping@ioPowerChargeJump@@UAEXPAVioBaseChar@@_N@Z ; ioPowerChargeJump::SetJumpping
EXTRN	__imp_??1ioHashString@@QAE@XZ:PROC
EXTRN	?SetChangeJumpMotion@ioBaseChar@@QAEX_NABVioHashString@@11M@Z:PROC ; ioBaseChar::SetChangeJumpMotion
EXTRN	?SetEnableChangeTeam@ioBaseChar@@QAEX_N@Z:PROC	; ioBaseChar::SetEnableChangeTeam
EXTRN	?SetEnableHide@ioBaseChar@@QAEX_NVioHashString@@1@Z:PROC ; ioBaseChar::SetEnableHide
EXTRN	__imp_??0ioHashString@@QAE@PBD@Z:PROC
EXTRN	?SetJumpPower@ioBaseChar@@QAEXM@Z:PROC		; ioBaseChar::SetJumpPower
EXTRN	?GetJumpPower@ioBaseChar@@QBEMXZ:PROC		; ioBaseChar::GetJumpPower
EXTRN	___CxxFrameHandler3:PROC
EXTRN	@__security_check_cookie@4:PROC
EXTRN	__EH_epilog3:PROC
EXTRN	__EH_prolog3:PROC
;	COMDAT ??_C@_00CNPNBAHC@?$AA@
CONST	SEGMENT
??_C@_00CNPNBAHC@?$AA@ DB 00H				; `string'
CONST	ENDS
;	COMDAT xdata$x
xdata$x	SEGMENT
__unwindtable$?SetJumpping@ioPowerChargeJump@@UAEXPAVioBaseChar@@_N@Z DD 0ffffffffH
	DD	FLAT:__unwindfunclet$?SetJumpping@ioPowerChargeJump@@UAEXPAVioBaseChar@@_N@Z$0
	DD	0ffffffffH
	DD	FLAT:__unwindfunclet$?SetJumpping@ioPowerChargeJump@@UAEXPAVioBaseChar@@_N@Z$2
	DD	01H
	DD	FLAT:__unwindfunclet$?SetJumpping@ioPowerChargeJump@@UAEXPAVioBaseChar@@_N@Z$3
	DD	02H
	DD	FLAT:__unwindfunclet$?SetJumpping@ioPowerChargeJump@@UAEXPAVioBaseChar@@_N@Z$4
__ehfuncinfo$?SetJumpping@ioPowerChargeJump@@UAEXPAVioBaseChar@@_N@Z DD 019930522H
	DD	04H
	DD	FLAT:__unwindtable$?SetJumpping@ioPowerChargeJump@@UAEXPAVioBaseChar@@_N@Z
	DD	2 DUP(00H)
	DD	2 DUP(00H)
	DD	00H
	DD	01H
; Function compile flags: /Ogsp
xdata$x	ENDS
;	COMDAT ?SetJumpping@ioPowerChargeJump@@UAEXPAVioBaseChar@@_N@Z
_TEXT	SEGMENT
$T527509 = -64						; size = 16
$T527510 = -48						; size = 16
$T527511 = -32						; size = 16
$T527508 = -16						; size = 4
__$EHRec$ = -12						; size = 12
_pOwner$ = 8						; size = 4
$T527507 = 12						; size = 4
_fJumpPower$523970 = 12					; size = 4
_bFullTime$ = 12					; size = 1
?SetJumpping@ioPowerChargeJump@@UAEXPAVioBaseChar@@_N@Z PROC ; ioPowerChargeJump::SetJumpping, COMDAT
; _this$ = ecx

; 111  : {

  00000	6a 34		 push	 52			; 00000034H
  00002	b8 00 00 00 00	 mov	 eax, __ehhandler$?SetJumpping@ioPowerChargeJump@@UAEXPAVioBaseChar@@_N@Z
  00007	e8 00 00 00 00	 call	 __EH_prolog3
  0000c	8b f1		 mov	 esi, ecx

; 112  : 	m_JumpState = PJS_NONE;

  0000e	33 db		 xor	 ebx, ebx
  00010	89 9e 24 01 00
	00		 mov	 DWORD PTR [esi+292], ebx

; 113  : 	m_dwChargingStartTime = 0;

  00016	89 9e 1c 02 00
	00		 mov	 DWORD PTR [esi+540], ebx

; 114  : 
; 115  : 	m_bUseExtendJump = false;

  0001c	88 5e 10	 mov	 BYTE PTR [esi+16], bl

; 116  : 	m_bUseExtendJumpAttack = false;

  0001f	88 9e 19 02 00
	00		 mov	 BYTE PTR [esi+537], bl

; 117  : 
; 118  : 	m_dwNormalAttackEndTime = 0;

  00025	89 9e 74 02 00
	00		 mov	 DWORD PTR [esi+628], ebx

; 119  : 
; 120  : 	m_dwDashStartTime = 0;

  0002b	89 9e dc 02 00
	00		 mov	 DWORD PTR [esi+732], ebx

; 121  : 	m_dwDashEndTime = 0;

  00031	89 9e e0 02 00
	00		 mov	 DWORD PTR [esi+736], ebx

; 122  : 
; 123  : 	if( bFullTime && m_dwJumpChargeTime > 0 )

  00037	38 5d 0c	 cmp	 BYTE PTR _bFullTime$[ebp], bl
  0003a	0f 84 de 00 00
	00		 je	 $LN1@SetJumppin
  00040	39 9e 7c 02 00
	00		 cmp	 DWORD PTR [esi+636], ebx
  00046	0f 86 d2 00 00
	00		 jbe	 $LN1@SetJumppin

; 124  : 	{
; 125  : 		m_bUseExtendJump = true;
; 126  : 		float fJumpPower = pOwner->GetJumpPower();

  0004c	8b 4d 08	 mov	 ecx, DWORD PTR _pOwner$[ebp]
  0004f	c6 46 10 01	 mov	 BYTE PTR [esi+16], 1
  00053	e8 00 00 00 00	 call	 ?GetJumpPower@ioBaseChar@@QBEMXZ ; ioBaseChar::GetJumpPower
  00058	d9 5d 0c	 fstp	 DWORD PTR _fJumpPower$523970[ebp]

; 127  : 		fJumpPower *= m_fExtraJumpPowerRate;

  0005b	f3 0f 10 86 78
	02 00 00	 movss	 xmm0, DWORD PTR [esi+632]
  00063	f3 0f 10 4d 0c	 movss	 xmm1, DWORD PTR _fJumpPower$523970[ebp]
  00068	0f 5a c0	 cvtps2pd xmm0, xmm0
  0006b	0f 5a c9	 cvtps2pd xmm1, xmm1

; 128  : 		pOwner->SetJumpPower( fJumpPower );

  0006e	51		 push	 ecx
  0006f	8b 4d 08	 mov	 ecx, DWORD PTR _pOwner$[ebp]
  00072	f2 0f 59 c1	 mulsd	 xmm0, xmm1
  00076	66 0f 5a c0	 cvtpd2ps xmm0, xmm0
  0007a	f3 0f 11 04 24	 movss	 DWORD PTR [esp], xmm0
  0007f	e8 00 00 00 00	 call	 ?SetJumpPower@ioBaseChar@@QAEXM@Z ; ioBaseChar::SetJumpPower

; 129  : 
; 130  : 		pOwner->SetEnableHide( false );

  00084	8b 35 00 00 00
	00		 mov	 esi, DWORD PTR __imp_??0ioHashString@@QAE@PBD@Z
  0008a	83 ec 10	 sub	 esp, 16			; 00000010H
  0008d	8b cc		 mov	 ecx, esp
  0008f	89 65 0c	 mov	 DWORD PTR $T527507[ebp], esp
  00092	bf 00 00 00 00	 mov	 edi, OFFSET ??_C@_00CNPNBAHC@?$AA@
  00097	57		 push	 edi
  00098	ff d6		 call	 esi
  0009a	83 ec 10	 sub	 esp, 16			; 00000010H
  0009d	8b cc		 mov	 ecx, esp
  0009f	89 65 f0	 mov	 DWORD PTR $T527508[ebp], esp
  000a2	57		 push	 edi
  000a3	89 5d fc	 mov	 DWORD PTR __$EHRec$[ebp+8], ebx
  000a6	ff d6		 call	 esi
  000a8	8b 4d 08	 mov	 ecx, DWORD PTR _pOwner$[ebp]
  000ab	83 4d fc ff	 or	 DWORD PTR __$EHRec$[ebp+8], -1
  000af	53		 push	 ebx
  000b0	e8 00 00 00 00	 call	 ?SetEnableHide@ioBaseChar@@QAEX_NVioHashString@@1@Z ; ioBaseChar::SetEnableHide

; 131  : 		pOwner->SetEnableChangeTeam( false );

  000b5	8b 4d 08	 mov	 ecx, DWORD PTR _pOwner$[ebp]
  000b8	53		 push	 ebx
  000b9	e8 00 00 00 00	 call	 ?SetEnableChangeTeam@ioBaseChar@@QAEX_N@Z ; ioBaseChar::SetEnableChangeTeam

; 132  : 		pOwner->SetChangeJumpMotion( false, "", "", "", 0.0f );

  000be	57		 push	 edi
  000bf	8d 4d c0	 lea	 ecx, DWORD PTR $T527509[ebp]
  000c2	ff d6		 call	 esi
  000c4	57		 push	 edi
  000c5	8d 4d d0	 lea	 ecx, DWORD PTR $T527510[ebp]
  000c8	c7 45 fc 01 00
	00 00		 mov	 DWORD PTR __$EHRec$[ebp+8], 1
  000cf	ff d6		 call	 esi
  000d1	57		 push	 edi
  000d2	8d 4d e0	 lea	 ecx, DWORD PTR $T527511[ebp]
  000d5	c6 45 fc 02	 mov	 BYTE PTR __$EHRec$[ebp+8], 2
  000d9	ff d6		 call	 esi
  000db	0f 57 c0	 xorps	 xmm0, xmm0
  000de	51		 push	 ecx
  000df	8b 4d 08	 mov	 ecx, DWORD PTR _pOwner$[ebp]
  000e2	f3 0f 11 04 24	 movss	 DWORD PTR [esp], xmm0
  000e7	8d 45 c0	 lea	 eax, DWORD PTR $T527509[ebp]
  000ea	50		 push	 eax
  000eb	8d 45 d0	 lea	 eax, DWORD PTR $T527510[ebp]
  000ee	50		 push	 eax
  000ef	8d 45 e0	 lea	 eax, DWORD PTR $T527511[ebp]
  000f2	50		 push	 eax
  000f3	53		 push	 ebx
  000f4	c6 45 fc 03	 mov	 BYTE PTR __$EHRec$[ebp+8], 3
  000f8	e8 00 00 00 00	 call	 ?SetChangeJumpMotion@ioBaseChar@@QAEX_NABVioHashString@@11M@Z ; ioBaseChar::SetChangeJumpMotion
  000fd	8b 35 00 00 00
	00		 mov	 esi, DWORD PTR __imp_??1ioHashString@@QAE@XZ
  00103	8d 4d e0	 lea	 ecx, DWORD PTR $T527511[ebp]
  00106	c6 45 fc 02	 mov	 BYTE PTR __$EHRec$[ebp+8], 2
  0010a	ff d6		 call	 esi
  0010c	8d 4d d0	 lea	 ecx, DWORD PTR $T527510[ebp]
  0010f	c6 45 fc 01	 mov	 BYTE PTR __$EHRec$[ebp+8], 1
  00113	ff d6		 call	 esi
  00115	83 4d fc ff	 or	 DWORD PTR __$EHRec$[ebp+8], -1
  00119	8d 4d c0	 lea	 ecx, DWORD PTR $T527509[ebp]
  0011c	ff d6		 call	 esi
$LN1@SetJumppin:

; 133  : 	}
; 134  : }

  0011e	e8 00 00 00 00	 call	 __EH_epilog3
  00123	c2 08 00	 ret	 8
_TEXT	ENDS
;	COMDAT text$x
text$x	SEGMENT
__unwindfunclet$?SetJumpping@ioPowerChargeJump@@UAEXPAVioBaseChar@@_N@Z$0:
  00000	8b 4d 0c	 mov	 ecx, DWORD PTR $T527507[ebp]
  00003	ff 25 00 00 00
	00		 jmp	 DWORD PTR __imp_??1ioHashString@@QAE@XZ
__unwindfunclet$?SetJumpping@ioPowerChargeJump@@UAEXPAVioBaseChar@@_N@Z$2:
  00009	8d 4d c0	 lea	 ecx, DWORD PTR $T527509[ebp]
  0000c	ff 25 00 00 00
	00		 jmp	 DWORD PTR __imp_??1ioHashString@@QAE@XZ
__unwindfunclet$?SetJumpping@ioPowerChargeJump@@UAEXPAVioBaseChar@@_N@Z$3:
  00012	8d 4d d0	 lea	 ecx, DWORD PTR $T527510[ebp]
  00015	ff 25 00 00 00
	00		 jmp	 DWORD PTR __imp_??1ioHashString@@QAE@XZ
__unwindfunclet$?SetJumpping@ioPowerChargeJump@@UAEXPAVioBaseChar@@_N@Z$4:
  0001b	8d 4d e0	 lea	 ecx, DWORD PTR $T527511[ebp]
  0001e	ff 25 00 00 00
	00		 jmp	 DWORD PTR __imp_??1ioHashString@@QAE@XZ
__ehhandler$?SetJumpping@ioPowerChargeJump@@UAEXPAVioBaseChar@@_N@Z:
  00024	8b 54 24 08	 mov	 edx, DWORD PTR [esp+8]
  00028	8d 42 0c	 lea	 eax, DWORD PTR [edx+12]
  0002b	8b 4a bc	 mov	 ecx, DWORD PTR [edx-68]
  0002e	33 c8		 xor	 ecx, eax
  00030	e8 00 00 00 00	 call	 @__security_check_cookie@4
  00035	b8 00 00 00 00	 mov	 eax, OFFSET __ehfuncinfo$?SetJumpping@ioPowerChargeJump@@UAEXPAVioBaseChar@@_N@Z
  0003a	e9 00 00 00 00	 jmp	 ___CxxFrameHandler3
text$x	ENDS
?SetJumpping@ioPowerChargeJump@@UAEXPAVioBaseChar@@_N@Z ENDP ; ioPowerChargeJump::SetJumpping
PUBLIC	?_Adopt@_Iterator_base0@std@@QAEXPBX@Z		; std::_Iterator_base0::_Adopt
; Function compile flags: /Ogsp
; File c:\program files (x86)\microsoft visual studio 10.0\vc\include\xutility
;	COMDAT ?_Adopt@_Iterator_base0@std@@QAEXPBX@Z
_TEXT	SEGMENT
___formal$ = 8						; size = 4
?_Adopt@_Iterator_base0@std@@QAEXPBX@Z PROC		; std::_Iterator_base0::_Adopt, COMDAT
; _this$ = ecx

; 49   : 		}

  00000	c2 04 00	 ret	 4
?_Adopt@_Iterator_base0@std@@QAEXPBX@Z ENDP		; std::_Iterator_base0::_Adopt
_TEXT	ENDS
PUBLIC	?SetLandingState@ioPowerChargeJump@@UAEXPAVioBaseChar@@@Z ; ioPowerChargeJump::SetLandingState
; Function compile flags: /Ogsp
; File d:\lost saga for developer\youtube\tutorial\source\src\lsclient\iopowerchargejump.cpp
;	COMDAT ?SetLandingState@ioPowerChargeJump@@UAEXPAVioBaseChar@@@Z
_TEXT	SEGMENT
_pOwner$ = 8						; size = 4
?SetLandingState@ioPowerChargeJump@@UAEXPAVioBaseChar@@@Z PROC ; ioPowerChargeJump::SetLandingState, COMDAT
; _this$ = ecx

; 539  : 	m_bUseExtendJump = false;

  00000	33 c0		 xor	 eax, eax
  00002	88 41 10	 mov	 BYTE PTR [ecx+16], al

; 540  : 	m_bUseExtendJumpAttack = false;

  00005	88 81 19 02 00
	00		 mov	 BYTE PTR [ecx+537], al

; 541  : 
; 542  : 	m_dwDashStartTime = 0;

  0000b	89 81 dc 02 00
	00		 mov	 DWORD PTR [ecx+732], eax

; 543  : 	m_dwDashEndTime = 0;

  00011	89 81 e0 02 00
	00		 mov	 DWORD PTR [ecx+736], eax

; 544  : 
; 545  : 	m_dwNormalAttackEndTime = 0;

  00017	89 81 74 02 00
	00		 mov	 DWORD PTR [ecx+628], eax

; 546  : 
; 547  : 	m_JumpState = PJS_NONE;

  0001d	89 81 24 01 00
	00		 mov	 DWORD PTR [ecx+292], eax

; 548  : }

  00023	c2 04 00	 ret	 4
?SetLandingState@ioPowerChargeJump@@UAEXPAVioBaseChar@@@Z ENDP ; ioPowerChargeJump::SetLandingState
_TEXT	ENDS
PUBLIC	?IsUseLandJumpAttack@ioPowerChargeJump@@QAE_NXZ	; ioPowerChargeJump::IsUseLandJumpAttack
; Function compile flags: /Ogsp
;	COMDAT ?IsUseLandJumpAttack@ioPowerChargeJump@@QAE_NXZ
_TEXT	SEGMENT
?IsUseLandJumpAttack@ioPowerChargeJump@@QAE_NXZ PROC	; ioPowerChargeJump::IsUseLandJumpAttack, COMDAT
; _this$ = ecx

; 552  : 	if( m_bUseLandJumpAttack && m_bUseExtendJumpAttack )

  00000	80 b9 18 02 00
	00 00		 cmp	 BYTE PTR [ecx+536], 0
  00007	74 0c		 je	 SHORT $LN1@IsUseLandJ
  00009	80 b9 19 02 00
	00 00		 cmp	 BYTE PTR [ecx+537], 0
  00010	74 03		 je	 SHORT $LN1@IsUseLandJ

; 553  : 		return true;

  00012	b0 01		 mov	 al, 1

; 556  : }

  00014	c3		 ret	 0
$LN1@IsUseLandJ:

; 554  : 
; 555  : 	return false;

  00015	32 c0		 xor	 al, al

; 556  : }

  00017	c3		 ret	 0
?IsUseLandJumpAttack@ioPowerChargeJump@@QAE_NXZ ENDP	; ioPowerChargeJump::IsUseLandJumpAttack
_TEXT	ENDS
PUBLIC	?IsUseExtendJumpAttack@ioPowerChargeJump@@QAE_NXZ ; ioPowerChargeJump::IsUseExtendJumpAttack
; Function compile flags: /Ogsp
;	COMDAT ?IsUseExtendJumpAttack@ioPowerChargeJump@@QAE_NXZ
_TEXT	SEGMENT
?IsUseExtendJumpAttack@ioPowerChargeJump@@QAE_NXZ PROC	; ioPowerChargeJump::IsUseExtendJumpAttack, COMDAT
; _this$ = ecx

; 560  : 	return m_bUseExtendJumpAttack;

  00000	8a 81 19 02 00
	00		 mov	 al, BYTE PTR [ecx+537]

; 561  : }

  00006	c3		 ret	 0
?IsUseExtendJumpAttack@ioPowerChargeJump@@QAE_NXZ ENDP	; ioPowerChargeJump::IsUseExtendJumpAttack
_TEXT	ENDS
PUBLIC	?SetNewJumpTypeDashAttack@ioPowerChargeJump@@IAEXPAVioBaseChar@@KK@Z ; ioPowerChargeJump::SetNewJumpTypeDashAttack
EXTRN	?SetNewJumpAttackStateInfo@ioBaseChar@@QAEXKKM_N@Z:PROC ; ioBaseChar::SetNewJumpAttackStateInfo
; Function compile flags: /Ogsp
;	COMDAT ?SetNewJumpTypeDashAttack@ioPowerChargeJump@@IAEXPAVioBaseChar@@KK@Z
_TEXT	SEGMENT
_pOwner$ = 8						; size = 4
_dwEndTime$ = 12					; size = 4
_dwReserveTime$ = 16					; size = 4
?SetNewJumpTypeDashAttack@ioPowerChargeJump@@IAEXPAVioBaseChar@@KK@Z PROC ; ioPowerChargeJump::SetNewJumpTypeDashAttack, COMDAT
; _this$ = ecx

; 694  : {

  00000	55		 push	 ebp
  00001	8b ec		 mov	 ebp, esp

; 695  : 	if( !pOwner ) return;

  00003	33 c0		 xor	 eax, eax
  00005	39 45 08	 cmp	 DWORD PTR _pOwner$[ebp], eax
  00008	74 2a		 je	 SHORT $LN2@SetNewJump

; 696  : 
; 697  : 	m_bUseExtendJump = false;
; 698  : 	m_JumpState = PJS_NEW_JUMP;
; 699  : 
; 700  : 	pOwner->SetNewJumpAttackStateInfo( dwEndTime, dwReserveTime, m_fDashGravityAmt );

  0000a	f3 0f 10 81 d8
	02 00 00	 movss	 xmm0, DWORD PTR [ecx+728]
  00012	50		 push	 eax
  00013	51		 push	 ecx
  00014	f3 0f 11 04 24	 movss	 DWORD PTR [esp], xmm0
  00019	ff 75 10	 push	 DWORD PTR _dwReserveTime$[ebp]
  0001c	88 41 10	 mov	 BYTE PTR [ecx+16], al
  0001f	ff 75 0c	 push	 DWORD PTR _dwEndTime$[ebp]
  00022	c7 81 24 01 00
	00 07 00 00 00	 mov	 DWORD PTR [ecx+292], 7
  0002c	8b 4d 08	 mov	 ecx, DWORD PTR _pOwner$[ebp]
  0002f	e8 00 00 00 00	 call	 ?SetNewJumpAttackStateInfo@ioBaseChar@@QAEXKKM_N@Z ; ioBaseChar::SetNewJumpAttackStateInfo
$LN2@SetNewJump:

; 701  : }

  00034	5d		 pop	 ebp
  00035	c2 0c 00	 ret	 12			; 0000000cH
?SetNewJumpTypeDashAttack@ioPowerChargeJump@@IAEXPAVioBaseChar@@KK@Z ENDP ; ioPowerChargeJump::SetNewJumpTypeDashAttack
_TEXT	ENDS
PUBLIC	?IsEnableJumpLandEndDash@ioPowerChargeJump@@UAE_NXZ ; ioPowerChargeJump::IsEnableJumpLandEndDash
; Function compile flags: /Ogsp
;	COMDAT ?IsEnableJumpLandEndDash@ioPowerChargeJump@@UAE_NXZ
_TEXT	SEGMENT
?IsEnableJumpLandEndDash@ioPowerChargeJump@@UAE_NXZ PROC ; ioPowerChargeJump::IsEnableJumpLandEndDash, COMDAT
; _this$ = ecx

; 705  : 	if( m_JumpState == PJS_DASH || m_JumpState == PJS_DASH_END )

  00000	8b 81 24 01 00
	00		 mov	 eax, DWORD PTR [ecx+292]
  00006	83 f8 05	 cmp	 eax, 5
  00009	74 08		 je	 SHORT $LN1@IsEnableJu
  0000b	83 f8 06	 cmp	 eax, 6
  0000e	74 03		 je	 SHORT $LN1@IsEnableJu

; 707  : 
; 708  : 	return false;

  00010	32 c0		 xor	 al, al

; 709  : }

  00012	c3		 ret	 0
$LN1@IsEnableJu:

; 706  : 		return true;

  00013	b0 01		 mov	 al, 1

; 709  : }

  00015	c3		 ret	 0
?IsEnableJumpLandEndDash@ioPowerChargeJump@@UAE_NXZ ENDP ; ioPowerChargeJump::IsEnableJumpLandEndDash
_TEXT	ENDS
PUBLIC	?IsDashState@ioPowerChargeJump@@QAE_NXZ		; ioPowerChargeJump::IsDashState
; Function compile flags: /Ogsp
;	COMDAT ?IsDashState@ioPowerChargeJump@@QAE_NXZ
_TEXT	SEGMENT
?IsDashState@ioPowerChargeJump@@QAE_NXZ PROC		; ioPowerChargeJump::IsDashState, COMDAT
; _this$ = ecx

; 713  : 	switch( m_JumpState )

  00000	8b 81 24 01 00
	00		 mov	 eax, DWORD PTR [ecx+292]
  00006	33 c9		 xor	 ecx, ecx
  00008	83 c0 fb	 add	 eax, -5			; fffffffbH
  0000b	41		 inc	 ecx
  0000c	3b c8		 cmp	 ecx, eax
  0000e	1a c0		 sbb	 al, al
  00010	fe c0		 inc	 al

; 714  : 	{
; 715  : 	case PJS_DASH:
; 716  : 	case PJS_DASH_END:
; 717  : 		return true;
; 718  : 	}
; 719  : 
; 720  : 	return false;
; 721  : }

  00012	c3		 ret	 0
?IsDashState@ioPowerChargeJump@@QAE_NXZ ENDP		; ioPowerChargeJump::IsDashState
_TEXT	ENDS
PUBLIC	?IsEnableJumpDash@ioPowerChargeJump@@UAE_NPAVioBaseChar@@@Z ; ioPowerChargeJump::IsEnableJumpDash
; Function compile flags: /Ogsp
;	COMDAT ?IsEnableJumpDash@ioPowerChargeJump@@UAE_NPAVioBaseChar@@@Z
_TEXT	SEGMENT
_pOwner$ = 8						; size = 4
?IsEnableJumpDash@ioPowerChargeJump@@UAE_NPAVioBaseChar@@@Z PROC ; ioPowerChargeJump::IsEnableJumpDash, COMDAT
; _this$ = ecx

; 766  : 	return m_bEnableJumpDash;

  00000	8a 81 80 02 00
	00		 mov	 al, BYTE PTR [ecx+640]

; 767  : }

  00006	c2 04 00	 ret	 4
?IsEnableJumpDash@ioPowerChargeJump@@UAE_NPAVioBaseChar@@@Z ENDP ; ioPowerChargeJump::IsEnableJumpDash
_TEXT	ENDS
PUBLIC	?GetChargingTime@ioPowerChargeJump@@UAEKPAVioBaseChar@@@Z ; ioPowerChargeJump::GetChargingTime
EXTRN	?IsBuffLimitExtendJump@ioBaseChar@@QBE_NXZ:PROC	; ioBaseChar::IsBuffLimitExtendJump
; Function compile flags: /Ogsp
;	COMDAT ?GetChargingTime@ioPowerChargeJump@@UAEKPAVioBaseChar@@@Z
_TEXT	SEGMENT
_pChar$ = 8						; size = 4
?GetChargingTime@ioPowerChargeJump@@UAEKPAVioBaseChar@@@Z PROC ; ioPowerChargeJump::GetChargingTime, COMDAT
; _this$ = ecx

; 770  : {

  00000	55		 push	 ebp
  00001	8b ec		 mov	 ebp, esp
  00003	56		 push	 esi
  00004	8b f1		 mov	 esi, ecx

; 771  : 	if( pChar && pChar->IsBuffLimitExtendJump() )

  00006	8b 4d 08	 mov	 ecx, DWORD PTR _pChar$[ebp]
  00009	85 c9		 test	 ecx, ecx
  0000b	74 0d		 je	 SHORT $LN1@GetChargin
  0000d	e8 00 00 00 00	 call	 ?IsBuffLimitExtendJump@ioBaseChar@@QBE_NXZ ; ioBaseChar::IsBuffLimitExtendJump
  00012	84 c0		 test	 al, al
  00014	74 04		 je	 SHORT $LN1@GetChargin

; 772  : 		return 0;

  00016	33 c0		 xor	 eax, eax
  00018	eb 06		 jmp	 SHORT $LN2@GetChargin
$LN1@GetChargin:

; 773  : 
; 774  : 	return m_dwJumpChargeTime;

  0001a	8b 86 7c 02 00
	00		 mov	 eax, DWORD PTR [esi+636]
$LN2@GetChargin:
  00020	5e		 pop	 esi

; 775  : }

  00021	5d		 pop	 ebp
  00022	c2 04 00	 ret	 4
?GetChargingTime@ioPowerChargeJump@@UAEKPAVioBaseChar@@@Z ENDP ; ioPowerChargeJump::GetChargingTime
_TEXT	ENDS
PUBLIC	__real@3f91df46a2526c7a
PUBLIC	??$DEGtoRAD@M@@YAMM@Z				; DEGtoRAD<float>
;	COMDAT __real@3f91df46a2526c7a
; File d:\lost saga for developer\youtube\tutorial\source\src\lsclient\veryoftenusedefine.h
CONST	SEGMENT
__real@3f91df46a2526c7a DQ 03f91df46a2526c7ar	; 0.0174533
; Function compile flags: /Ogsp
CONST	ENDS
;	COMDAT ??$DEGtoRAD@M@@YAMM@Z
_TEXT	SEGMENT
tv129 = 8						; size = 4
_val$ = 8						; size = 4
??$DEGtoRAD@M@@YAMM@Z PROC				; DEGtoRAD<float>, COMDAT

; 20   : type  DEGtoRAD (type val) {return (type) (val * 0.0174532925199);}

  00000	55		 push	 ebp
  00001	8b ec		 mov	 ebp, esp
  00003	d9 45 08	 fld	 DWORD PTR _val$[ebp]
  00006	dc 0d 00 00 00
	00		 fmul	 QWORD PTR __real@3f91df46a2526c7a
  0000c	d9 5d 08	 fstp	 DWORD PTR tv129[ebp]
  0000f	d9 45 08	 fld	 DWORD PTR tv129[ebp]
  00012	5d		 pop	 ebp
  00013	c3		 ret	 0
??$DEGtoRAD@M@@YAMM@Z ENDP				; DEGtoRAD<float>
_TEXT	ENDS
PUBLIC	??$_Ptr_cat@V?$_Vector_const_iterator@V?$_Vector_val@UWeaponInfo@@V?$allocator@UWeaponInfo@@@std@@@std@@@std@@PAUWeaponInfo@@@std@@YA?AU_Nonscalar_ptr_iterator_tag@0@AAV?$_Vector_const_iterator@V?$_Vector_val@UWeaponInfo@@V?$allocator@UWeaponInfo@@@std@@@std@@@0@AAPAUWeaponInfo@@@Z ; std::_Ptr_cat<std::_Vector_const_iterator<std::_Vector_val<WeaponInfo,std::allocator<WeaponInfo> > >,WeaponInfo *>
; Function compile flags: /Ogsp
; File c:\program files (x86)\microsoft visual studio 10.0\vc\include\xutility
;	COMDAT ??$_Ptr_cat@V?$_Vector_const_iterator@V?$_Vector_val@UWeaponInfo@@V?$allocator@UWeaponInfo@@@std@@@std@@@std@@PAUWeaponInfo@@@std@@YA?AU_Nonscalar_ptr_iterator_tag@0@AAV?$_Vector_const_iterator@V?$_Vector_val@UWeaponInfo@@V?$allocator@UWeaponInfo@@@std@@@std@@@0@AAPAUWeaponInfo@@@Z
_TEXT	SEGMENT
__Cat$ = -1						; size = 1
___formal$ = 8						; size = 4
___formal$ = 12						; size = 4
??$_Ptr_cat@V?$_Vector_const_iterator@V?$_Vector_val@UWeaponInfo@@V?$allocator@UWeaponInfo@@@std@@@std@@@std@@PAUWeaponInfo@@@std@@YA?AU_Nonscalar_ptr_iterator_tag@0@AAV?$_Vector_const_iterator@V?$_Vector_val@UWeaponInfo@@V?$allocator@UWeaponInfo@@@std@@@std@@@0@AAPAUWeaponInfo@@@Z PROC ; std::_Ptr_cat<std::_Vector_const_iterator<std::_Vector_val<WeaponInfo,std::allocator<WeaponInfo> > >,WeaponInfo *>, COMDAT

; 485  : 	{	// return pointer category from arbitrary arguments

  00000	55		 push	 ebp
  00001	8b ec		 mov	 ebp, esp
  00003	51		 push	 ecx

; 486  : 	_Nonscalar_ptr_iterator_tag _Cat;
; 487  : 	return (_Cat);

  00004	8a 45 ff	 mov	 al, BYTE PTR __Cat$[ebp]

; 488  : 	}

  00007	c9		 leave
  00008	c3		 ret	 0
??$_Ptr_cat@V?$_Vector_const_iterator@V?$_Vector_val@UWeaponInfo@@V?$allocator@UWeaponInfo@@@std@@@std@@@std@@PAUWeaponInfo@@@std@@YA?AU_Nonscalar_ptr_iterator_tag@0@AAV?$_Vector_const_iterator@V?$_Vector_val@UWeaponInfo@@V?$allocator@UWeaponInfo@@@std@@@std@@@0@AAPAUWeaponInfo@@@Z ENDP ; std::_Ptr_cat<std::_Vector_const_iterator<std::_Vector_val<WeaponInfo,std::allocator<WeaponInfo> > >,WeaponInfo *>
_TEXT	ENDS
PUBLIC	??$_Ptr_cat@V?$_Vector_const_iterator@V?$_Vector_val@UForceInfo@@V?$allocator@UForceInfo@@@std@@@std@@@std@@PAUForceInfo@@@std@@YA?AU_Nonscalar_ptr_iterator_tag@0@AAV?$_Vector_const_iterator@V?$_Vector_val@UForceInfo@@V?$allocator@UForceInfo@@@std@@@std@@@0@AAPAUForceInfo@@@Z ; std::_Ptr_cat<std::_Vector_const_iterator<std::_Vector_val<ForceInfo,std::allocator<ForceInfo> > >,ForceInfo *>
; Function compile flags: /Ogsp
;	COMDAT ??$_Ptr_cat@V?$_Vector_const_iterator@V?$_Vector_val@UForceInfo@@V?$allocator@UForceInfo@@@std@@@std@@@std@@PAUForceInfo@@@std@@YA?AU_Nonscalar_ptr_iterator_tag@0@AAV?$_Vector_const_iterator@V?$_Vector_val@UForceInfo@@V?$allocator@UForceInfo@@@std@@@std@@@0@AAPAUForceInfo@@@Z
_TEXT	SEGMENT
__Cat$ = -1						; size = 1
___formal$ = 8						; size = 4
___formal$ = 12						; size = 4
??$_Ptr_cat@V?$_Vector_const_iterator@V?$_Vector_val@UForceInfo@@V?$allocator@UForceInfo@@@std@@@std@@@std@@PAUForceInfo@@@std@@YA?AU_Nonscalar_ptr_iterator_tag@0@AAV?$_Vector_const_iterator@V?$_Vector_val@UForceInfo@@V?$allocator@UForceInfo@@@std@@@std@@@0@AAPAUForceInfo@@@Z PROC ; std::_Ptr_cat<std::_Vector_const_iterator<std::_Vector_val<ForceInfo,std::allocator<ForceInfo> > >,ForceInfo *>, COMDAT

; 485  : 	{	// return pointer category from arbitrary arguments

  00000	55		 push	 ebp
  00001	8b ec		 mov	 ebp, esp
  00003	51		 push	 ecx

; 486  : 	_Nonscalar_ptr_iterator_tag _Cat;
; 487  : 	return (_Cat);

  00004	8a 45 ff	 mov	 al, BYTE PTR __Cat$[ebp]

; 488  : 	}

  00007	c9		 leave
  00008	c3		 ret	 0
??$_Ptr_cat@V?$_Vector_const_iterator@V?$_Vector_val@UForceInfo@@V?$allocator@UForceInfo@@@std@@@std@@@std@@PAUForceInfo@@@std@@YA?AU_Nonscalar_ptr_iterator_tag@0@AAV?$_Vector_const_iterator@V?$_Vector_val@UForceInfo@@V?$allocator@UForceInfo@@@std@@@std@@@0@AAPAUForceInfo@@@Z ENDP ; std::_Ptr_cat<std::_Vector_const_iterator<std::_Vector_val<ForceInfo,std::allocator<ForceInfo> > >,ForceInfo *>
_TEXT	ENDS
PUBLIC	??D?$_Vector_const_iterator@V?$_Vector_val@UWeaponInfo@@V?$allocator@UWeaponInfo@@@std@@@std@@@std@@QBEABUWeaponInfo@@XZ ; std::_Vector_const_iterator<std::_Vector_val<WeaponInfo,std::allocator<WeaponInfo> > >::operator*
; Function compile flags: /Ogsp
; File c:\program files (x86)\microsoft visual studio 10.0\vc\include\vector
;	COMDAT ??D?$_Vector_const_iterator@V?$_Vector_val@UWeaponInfo@@V?$allocator@UWeaponInfo@@@std@@@std@@@std@@QBEABUWeaponInfo@@XZ
_TEXT	SEGMENT
??D?$_Vector_const_iterator@V?$_Vector_val@UWeaponInfo@@V?$allocator@UWeaponInfo@@@std@@@std@@@std@@QBEABUWeaponInfo@@XZ PROC ; std::_Vector_const_iterator<std::_Vector_val<WeaponInfo,std::allocator<WeaponInfo> > >::operator*, COMDAT
; _this$ = ecx

; 64   :  #if _ITERATOR_DEBUG_LEVEL == 2
; 65   : 		if (this->_Getcont() == 0
; 66   : 			|| this->_Ptr == 0
; 67   : 			|| this->_Ptr < ((_Myvec *)this->_Getcont())->_Myfirst
; 68   : 			|| ((_Myvec *)this->_Getcont())->_Mylast <= this->_Ptr)
; 69   : 			{	// report error
; 70   : 			_DEBUG_ERROR("vector iterator not dereferencable");
; 71   : 			_SCL_SECURE_OUT_OF_RANGE;
; 72   : 			}
; 73   : 
; 74   :  #elif _ITERATOR_DEBUG_LEVEL == 1
; 75   : 		_SCL_SECURE_VALIDATE(this->_Getcont() != 0);
; 76   : 		_SCL_SECURE_VALIDATE_RANGE(
; 77   : 			this->_Ptr != 0
; 78   : 			&& ((_Myvec *)this->_Getcont())->_Myfirst <= this->_Ptr
; 79   : 			&& this->_Ptr < ((_Myvec *)this->_Getcont())->_Mylast);
; 80   :  #endif /* _ITERATOR_DEBUG_LEVEL */
; 81   : 
; 82   : 		__analysis_assume(this->_Ptr != 0);
; 83   : 
; 84   : 		return (*this->_Ptr);

  00000	8b 01		 mov	 eax, DWORD PTR [ecx]

; 85   : 		}

  00002	c3		 ret	 0
??D?$_Vector_const_iterator@V?$_Vector_val@UWeaponInfo@@V?$allocator@UWeaponInfo@@@std@@@std@@@std@@QBEABUWeaponInfo@@XZ ENDP ; std::_Vector_const_iterator<std::_Vector_val<WeaponInfo,std::allocator<WeaponInfo> > >::operator*
_TEXT	ENDS
PUBLIC	??E?$_Vector_const_iterator@V?$_Vector_val@UWeaponInfo@@V?$allocator@UWeaponInfo@@@std@@@std@@@std@@QAEAAV01@XZ ; std::_Vector_const_iterator<std::_Vector_val<WeaponInfo,std::allocator<WeaponInfo> > >::operator++
; Function compile flags: /Ogsp
;	COMDAT ??E?$_Vector_const_iterator@V?$_Vector_val@UWeaponInfo@@V?$allocator@UWeaponInfo@@@std@@@std@@@std@@QAEAAV01@XZ
_TEXT	SEGMENT
??E?$_Vector_const_iterator@V?$_Vector_val@UWeaponInfo@@V?$allocator@UWeaponInfo@@@std@@@std@@@std@@QAEAAV01@XZ PROC ; std::_Vector_const_iterator<std::_Vector_val<WeaponInfo,std::allocator<WeaponInfo> > >::operator++, COMDAT
; _this$ = ecx

; 93   : 		{	// preincrement

  00000	8b c1		 mov	 eax, ecx

; 94   :  #if _ITERATOR_DEBUG_LEVEL == 2
; 95   : 		if (this->_Getcont() == 0
; 96   : 			|| this->_Ptr == 0
; 97   : 			|| ((_Myvec *)this->_Getcont())->_Mylast <= this->_Ptr)
; 98   : 			{	// report error
; 99   : 			_DEBUG_ERROR("vector iterator not incrementable");
; 100  : 			_SCL_SECURE_OUT_OF_RANGE;
; 101  : 			}
; 102  : 
; 103  :  #elif _ITERATOR_DEBUG_LEVEL == 1
; 104  : 		_SCL_SECURE_VALIDATE(this->_Getcont() != 0);
; 105  : 		_SCL_SECURE_VALIDATE_RANGE(
; 106  : 			this->_Ptr != 0
; 107  : 			&& this->_Ptr < ((_Myvec *)this->_Getcont())->_Mylast);
; 108  :  #endif /* _ITERATOR_DEBUG_LEVEL */
; 109  : 
; 110  : 		++this->_Ptr;

  00002	83 00 28	 add	 DWORD PTR [eax], 40	; 00000028H

; 111  : 		return (*this);
; 112  : 		}

  00005	c3		 ret	 0
??E?$_Vector_const_iterator@V?$_Vector_val@UWeaponInfo@@V?$allocator@UWeaponInfo@@@std@@@std@@@std@@QAEAAV01@XZ ENDP ; std::_Vector_const_iterator<std::_Vector_val<WeaponInfo,std::allocator<WeaponInfo> > >::operator++
_TEXT	ENDS
PUBLIC	??D?$_Vector_const_iterator@V?$_Vector_val@UForceInfo@@V?$allocator@UForceInfo@@@std@@@std@@@std@@QBEABUForceInfo@@XZ ; std::_Vector_const_iterator<std::_Vector_val<ForceInfo,std::allocator<ForceInfo> > >::operator*
; Function compile flags: /Ogsp
;	COMDAT ??D?$_Vector_const_iterator@V?$_Vector_val@UForceInfo@@V?$allocator@UForceInfo@@@std@@@std@@@std@@QBEABUForceInfo@@XZ
_TEXT	SEGMENT
??D?$_Vector_const_iterator@V?$_Vector_val@UForceInfo@@V?$allocator@UForceInfo@@@std@@@std@@@std@@QBEABUForceInfo@@XZ PROC ; std::_Vector_const_iterator<std::_Vector_val<ForceInfo,std::allocator<ForceInfo> > >::operator*, COMDAT
; _this$ = ecx

; 64   :  #if _ITERATOR_DEBUG_LEVEL == 2
; 65   : 		if (this->_Getcont() == 0
; 66   : 			|| this->_Ptr == 0
; 67   : 			|| this->_Ptr < ((_Myvec *)this->_Getcont())->_Myfirst
; 68   : 			|| ((_Myvec *)this->_Getcont())->_Mylast <= this->_Ptr)
; 69   : 			{	// report error
; 70   : 			_DEBUG_ERROR("vector iterator not dereferencable");
; 71   : 			_SCL_SECURE_OUT_OF_RANGE;
; 72   : 			}
; 73   : 
; 74   :  #elif _ITERATOR_DEBUG_LEVEL == 1
; 75   : 		_SCL_SECURE_VALIDATE(this->_Getcont() != 0);
; 76   : 		_SCL_SECURE_VALIDATE_RANGE(
; 77   : 			this->_Ptr != 0
; 78   : 			&& ((_Myvec *)this->_Getcont())->_Myfirst <= this->_Ptr
; 79   : 			&& this->_Ptr < ((_Myvec *)this->_Getcont())->_Mylast);
; 80   :  #endif /* _ITERATOR_DEBUG_LEVEL */
; 81   : 
; 82   : 		__analysis_assume(this->_Ptr != 0);
; 83   : 
; 84   : 		return (*this->_Ptr);

  00000	8b 01		 mov	 eax, DWORD PTR [ecx]

; 85   : 		}

  00002	c3		 ret	 0
??D?$_Vector_const_iterator@V?$_Vector_val@UForceInfo@@V?$allocator@UForceInfo@@@std@@@std@@@std@@QBEABUForceInfo@@XZ ENDP ; std::_Vector_const_iterator<std::_Vector_val<ForceInfo,std::allocator<ForceInfo> > >::operator*
_TEXT	ENDS
PUBLIC	??E?$_Vector_const_iterator@V?$_Vector_val@UForceInfo@@V?$allocator@UForceInfo@@@std@@@std@@@std@@QAEAAV01@XZ ; std::_Vector_const_iterator<std::_Vector_val<ForceInfo,std::allocator<ForceInfo> > >::operator++
; Function compile flags: /Ogsp
;	COMDAT ??E?$_Vector_const_iterator@V?$_Vector_val@UForceInfo@@V?$allocator@UForceInfo@@@std@@@std@@@std@@QAEAAV01@XZ
_TEXT	SEGMENT
??E?$_Vector_const_iterator@V?$_Vector_val@UForceInfo@@V?$allocator@UForceInfo@@@std@@@std@@@std@@QAEAAV01@XZ PROC ; std::_Vector_const_iterator<std::_Vector_val<ForceInfo,std::allocator<ForceInfo> > >::operator++, COMDAT
; _this$ = ecx

; 93   : 		{	// preincrement

  00000	8b c1		 mov	 eax, ecx

; 94   :  #if _ITERATOR_DEBUG_LEVEL == 2
; 95   : 		if (this->_Getcont() == 0
; 96   : 			|| this->_Ptr == 0
; 97   : 			|| ((_Myvec *)this->_Getcont())->_Mylast <= this->_Ptr)
; 98   : 			{	// report error
; 99   : 			_DEBUG_ERROR("vector iterator not incrementable");
; 100  : 			_SCL_SECURE_OUT_OF_RANGE;
; 101  : 			}
; 102  : 
; 103  :  #elif _ITERATOR_DEBUG_LEVEL == 1
; 104  : 		_SCL_SECURE_VALIDATE(this->_Getcont() != 0);
; 105  : 		_SCL_SECURE_VALIDATE_RANGE(
; 106  : 			this->_Ptr != 0
; 107  : 			&& this->_Ptr < ((_Myvec *)this->_Getcont())->_Mylast);
; 108  :  #endif /* _ITERATOR_DEBUG_LEVEL */
; 109  : 
; 110  : 		++this->_Ptr;

  00002	83 00 0c	 add	 DWORD PTR [eax], 12	; 0000000cH

; 111  : 		return (*this);
; 112  : 		}

  00005	c3		 ret	 0
??E?$_Vector_const_iterator@V?$_Vector_val@UForceInfo@@V?$allocator@UForceInfo@@@std@@@std@@@std@@QAEAAV01@XZ ENDP ; std::_Vector_const_iterator<std::_Vector_val<ForceInfo,std::allocator<ForceInfo> > >::operator++
_TEXT	ENDS
PUBLIC	??$forward@ABUWeaponInfo@@@std@@YAABUWeaponInfo@@ABU1@@Z ; std::forward<WeaponInfo const &>
; Function compile flags: /Ogsp
; File c:\program files (x86)\microsoft visual studio 10.0\vc\include\utility
;	COMDAT ??$forward@ABUWeaponInfo@@@std@@YAABUWeaponInfo@@ABU1@@Z
_TEXT	SEGMENT
__Arg$ = 8						; size = 4
??$forward@ABUWeaponInfo@@@std@@YAABUWeaponInfo@@ABU1@@Z PROC ; std::forward<WeaponInfo const &>, COMDAT

; 78   : 	{	// forward _Arg, given explicitly specified type parameter

  00000	55		 push	 ebp
  00001	8b ec		 mov	 ebp, esp

; 79   : 	return ((_Ty&&)_Arg);

  00003	8b 45 08	 mov	 eax, DWORD PTR __Arg$[ebp]

; 80   : 	}

  00006	5d		 pop	 ebp
  00007	c3		 ret	 0
??$forward@ABUWeaponInfo@@@std@@YAABUWeaponInfo@@ABU1@@Z ENDP ; std::forward<WeaponInfo const &>
_TEXT	ENDS
PUBLIC	??$forward@ABUForceInfo@@@std@@YAABUForceInfo@@ABU1@@Z ; std::forward<ForceInfo const &>
; Function compile flags: /Ogsp
;	COMDAT ??$forward@ABUForceInfo@@@std@@YAABUForceInfo@@ABU1@@Z
_TEXT	SEGMENT
__Arg$ = 8						; size = 4
??$forward@ABUForceInfo@@@std@@YAABUForceInfo@@ABU1@@Z PROC ; std::forward<ForceInfo const &>, COMDAT

; 78   : 	{	// forward _Arg, given explicitly specified type parameter

  00000	55		 push	 ebp
  00001	8b ec		 mov	 ebp, esp

; 79   : 	return ((_Ty&&)_Arg);

  00003	8b 45 08	 mov	 eax, DWORD PTR __Arg$[ebp]

; 80   : 	}

  00006	5d		 pop	 ebp
  00007	c3		 ret	 0
??$forward@ABUForceInfo@@@std@@YAABUForceInfo@@ABU1@@Z ENDP ; std::forward<ForceInfo const &>
_TEXT	ENDS
PUBLIC	??$_Construct@UForceInfo@@ABU1@@std@@YAXPAUForceInfo@@ABU1@@Z ; std::_Construct<ForceInfo,ForceInfo const &>
; Function compile flags: /Ogsp
; File c:\program files (x86)\microsoft visual studio 10.0\vc\include\xmemory
;	COMDAT ??$_Construct@UForceInfo@@ABU1@@std@@YAXPAUForceInfo@@ABU1@@Z
_TEXT	SEGMENT
__Ptr$ = 8						; size = 4
__Val$ = 12						; size = 4
??$_Construct@UForceInfo@@ABU1@@std@@YAXPAUForceInfo@@ABU1@@Z PROC ; std::_Construct<ForceInfo,ForceInfo const &>, COMDAT

; 46   : 	{	// construct object at _Ptr with value _Val

  00000	55		 push	 ebp
  00001	8b ec		 mov	 ebp, esp
  00003	57		 push	 edi

; 47   : 	void _FARQ *_Vptr = _Ptr;
; 48   : 	::new (_Vptr) _Ty1(_STD forward<_Ty2>(_Val));

  00004	8b 7d 08	 mov	 edi, DWORD PTR __Ptr$[ebp]
  00007	85 ff		 test	 edi, edi
  00009	74 08		 je	 SHORT $LN3@Construct
  0000b	56		 push	 esi
  0000c	8b 75 0c	 mov	 esi, DWORD PTR __Val$[ebp]
  0000f	a5		 movsd
  00010	a5		 movsd
  00011	a5		 movsd
  00012	5e		 pop	 esi
$LN3@Construct:
  00013	5f		 pop	 edi

; 49   : 	}

  00014	5d		 pop	 ebp
  00015	c3		 ret	 0
??$_Construct@UForceInfo@@ABU1@@std@@YAXPAUForceInfo@@ABU1@@Z ENDP ; std::_Construct<ForceInfo,ForceInfo const &>
_TEXT	ENDS
PUBLIC	??0D3DXVECTOR3@@QAE@XZ				; D3DXVECTOR3::D3DXVECTOR3
; Function compile flags: /Ogsp
; File c:\program files (x86)\microsoft directx sdk (june 2010)\include\d3dx9math.h
;	COMDAT ??0D3DXVECTOR3@@QAE@XZ
_TEXT	SEGMENT
??0D3DXVECTOR3@@QAE@XZ PROC				; D3DXVECTOR3::D3DXVECTOR3, COMDAT
; _this$ = ecx

; 165  :     D3DXVECTOR3() {};

  00000	8b c1		 mov	 eax, ecx
  00002	c3		 ret	 0
??0D3DXVECTOR3@@QAE@XZ ENDP				; D3DXVECTOR3::D3DXVECTOR3
_TEXT	ENDS
PUBLIC	??0D3DXQUATERNION@@QAE@XZ			; D3DXQUATERNION::D3DXQUATERNION
; Function compile flags: /Ogsp
;	COMDAT ??0D3DXQUATERNION@@QAE@XZ
_TEXT	SEGMENT
??0D3DXQUATERNION@@QAE@XZ PROC				; D3DXQUATERNION::D3DXQUATERNION, COMDAT
; _this$ = ecx

; 429  :     D3DXQUATERNION() {}

  00000	8b c1		 mov	 eax, ecx
  00002	c3		 ret	 0
??0D3DXQUATERNION@@QAE@XZ ENDP				; D3DXQUATERNION::D3DXQUATERNION
_TEXT	ENDS
PUBLIC	?_DECSTR@@YAXPADH@Z				; _DECSTR
; Function compile flags: /Ogsp
; File d:\lost saga for developer\youtube\tutorial\source\src\lsclient\stringprotect.h
;	COMDAT ?_DECSTR@@YAXPADH@Z
_TEXT	SEGMENT
_s$ = 8							; size = 4
_l$ = 12						; size = 4
?_DECSTR@@YAXPADH@Z PROC				; _DECSTR, COMDAT

; 40   : __forceinline void _DECSTR(char* s, int l){int i=0,l4=(l-1)/4,*p=(int*)s;s[l-1]=0;for(;i<l4;++i)*(p++)^=0xEAEBECED;for(i=l4*4;i<l-1;++i)s[i]^=0xED-i%4;}

  00000	55		 push	 ebp
  00001	8b ec		 mov	 ebp, esp
  00003	8b 4d 0c	 mov	 ecx, DWORD PTR _l$[ebp]
  00006	56		 push	 esi
  00007	8b 75 08	 mov	 esi, DWORD PTR _s$[ebp]
  0000a	57		 push	 edi
  0000b	8d 79 ff	 lea	 edi, DWORD PTR [ecx-1]
  0000e	8b c7		 mov	 eax, edi
  00010	99		 cdq
  00011	83 e2 03	 and	 edx, 3
  00014	03 c2		 add	 eax, edx
  00016	c1 f8 02	 sar	 eax, 2
  00019	8b d6		 mov	 edx, esi
  0001b	c6 44 0e ff 00	 mov	 BYTE PTR [esi+ecx-1], 0
  00020	85 c0		 test	 eax, eax
  00022	7e 0e		 jle	 SHORT $LN4@DECSTR
  00024	8b c8		 mov	 ecx, eax
$LL6@DECSTR:
  00026	81 32 ed ec eb
	ea		 xor	 DWORD PTR [edx], -353637139 ; eaebecedH
  0002c	83 c2 04	 add	 edx, 4
  0002f	49		 dec	 ecx
  00030	75 f4		 jne	 SHORT $LL6@DECSTR
$LN4@DECSTR:
  00032	c1 e0 02	 shl	 eax, 2
  00035	eb 17		 jmp	 SHORT $LN14@DECSTR
$LL3@DECSTR:
  00037	8b c8		 mov	 ecx, eax
  00039	81 e1 03 00 00
	80		 and	 ecx, -2147483645	; 80000003H
  0003f	79 05		 jns	 SHORT $LN13@DECSTR
  00041	49		 dec	 ecx
  00042	83 c9 fc	 or	 ecx, -4			; fffffffcH
  00045	41		 inc	 ecx
$LN13@DECSTR:
  00046	b2 ed		 mov	 dl, -19			; ffffffedH
  00048	2a d1		 sub	 dl, cl
  0004a	30 14 30	 xor	 BYTE PTR [eax+esi], dl
  0004d	40		 inc	 eax
$LN14@DECSTR:
  0004e	3b c7		 cmp	 eax, edi
  00050	7c e5		 jl	 SHORT $LL3@DECSTR
  00052	5f		 pop	 edi
  00053	5e		 pop	 esi
  00054	5d		 pop	 ebp
  00055	c3		 ret	 0
?_DECSTR@@YAXPADH@Z ENDP				; _DECSTR
_TEXT	ENDS
PUBLIC	?GetGroup@ioGameEntity@@QBEPAVioEntityGroup@@XZ	; ioGameEntity::GetGroup
; Function compile flags: /Ogsp
; File d:\lost saga for developer\youtube\tutorial\source\src\lsclient\iogameentity.h
;	COMDAT ?GetGroup@ioGameEntity@@QBEPAVioEntityGroup@@XZ
_TEXT	SEGMENT
?GetGroup@ioGameEntity@@QBEPAVioEntityGroup@@XZ PROC	; ioGameEntity::GetGroup, COMDAT
; _this$ = ecx

; 166  : 	inline ioEntityGroup* GetGroup() const { return m_pGroup; }

  00000	8b 41 04	 mov	 eax, DWORD PTR [ecx+4]
  00003	c3		 ret	 0
?GetGroup@ioGameEntity@@QBEPAVioEntityGroup@@XZ ENDP	; ioGameEntity::GetGroup
_TEXT	ENDS
PUBLIC	??1WeaponInfo@@QAE@XZ				; WeaponInfo::~WeaponInfo
; Function compile flags: /Ogsp
;	COMDAT ??1WeaponInfo@@QAE@XZ
_TEXT	SEGMENT
??1WeaponInfo@@QAE@XZ PROC				; WeaponInfo::~WeaponInfo, COMDAT
; _this$ = ecx
  00000	83 c1 08	 add	 ecx, 8
  00003	ff 25 00 00 00
	00		 jmp	 DWORD PTR __imp_??1ioHashString@@QAE@XZ
??1WeaponInfo@@QAE@XZ ENDP				; WeaponInfo::~WeaponInfo
_TEXT	ENDS
PUBLIC	?GetHP@ioPlayEntity@@QAEAAUStatusValue@@XZ	; ioPlayEntity::GetHP
; Function compile flags: /Ogsp
; File d:\lost saga for developer\youtube\tutorial\source\src\lsclient\ioplayentity.h
;	COMDAT ?GetHP@ioPlayEntity@@QAEAAUStatusValue@@XZ
_TEXT	SEGMENT
?GetHP@ioPlayEntity@@QAEAAUStatusValue@@XZ PROC		; ioPlayEntity::GetHP, COMDAT
; _this$ = ecx

; 96   : 	inline StatusValue& GetHP() { return m_HP; }

  00000	8d 81 c0 00 00
	00		 lea	 eax, DWORD PTR [ecx+192]
  00006	c3		 ret	 0
?GetHP@ioPlayEntity@@QAEAAUStatusValue@@XZ ENDP		; ioPlayEntity::GetHP
_TEXT	ENDS
PUBLIC	??_7?$CEncrypt@M@@6B@				; CEncrypt<float>::`vftable'
PUBLIC	??1?$CEncrypt@M@@UAE@XZ				; CEncrypt<float>::~CEncrypt<float>
PUBLIC	??_R4?$CEncrypt@M@@6B@				; CEncrypt<float>::`RTTI Complete Object Locator'
PUBLIC	??_R0?AV?$CEncrypt@M@@@8			; CEncrypt<float> `RTTI Type Descriptor'
PUBLIC	??_R3?$CEncrypt@M@@8				; CEncrypt<float>::`RTTI Class Hierarchy Descriptor'
PUBLIC	??_R2?$CEncrypt@M@@8				; CEncrypt<float>::`RTTI Base Class Array'
PUBLIC	??_R1A@?0A@EA@?$CEncrypt@M@@8			; CEncrypt<float>::`RTTI Base Class Descriptor at (0,-1,0,64)'
EXTRN	??1ccddaabb@@UAE@XZ:PROC			; ccddaabb::~ccddaabb
EXTRN	??_E?$CEncrypt@M@@UAEPAXI@Z:PROC		; CEncrypt<float>::`vector deleting destructor'
;	COMDAT ??_R1A@?0A@EA@?$CEncrypt@M@@8
; File d:\lost saga for developer\youtube\tutorial\source\src\lsclient\encryptvalue.h
rdata$r	SEGMENT
??_R1A@?0A@EA@?$CEncrypt@M@@8 DD FLAT:??_R0?AV?$CEncrypt@M@@@8 ; CEncrypt<float>::`RTTI Base Class Descriptor at (0,-1,0,64)'
	DD	00H
	DD	00H
	DD	0ffffffffH
	DD	00H
	DD	040H
	DD	FLAT:??_R3?$CEncrypt@M@@8
rdata$r	ENDS
;	COMDAT ??_R2?$CEncrypt@M@@8
rdata$r	SEGMENT
??_R2?$CEncrypt@M@@8 DD FLAT:??_R1A@?0A@EA@?$CEncrypt@M@@8 ; CEncrypt<float>::`RTTI Base Class Array'
rdata$r	ENDS
;	COMDAT ??_R3?$CEncrypt@M@@8
rdata$r	SEGMENT
??_R3?$CEncrypt@M@@8 DD 00H				; CEncrypt<float>::`RTTI Class Hierarchy Descriptor'
	DD	00H
	DD	01H
	DD	FLAT:??_R2?$CEncrypt@M@@8
rdata$r	ENDS
;	COMDAT ??_R0?AV?$CEncrypt@M@@@8
_DATA	SEGMENT
??_R0?AV?$CEncrypt@M@@@8 DD FLAT:??_7type_info@@6B@	; CEncrypt<float> `RTTI Type Descriptor'
	DD	00H
	DB	'.?AV?$CEncrypt@M@@', 00H
_DATA	ENDS
;	COMDAT ??_R4?$CEncrypt@M@@6B@
rdata$r	SEGMENT
??_R4?$CEncrypt@M@@6B@ DD 00H				; CEncrypt<float>::`RTTI Complete Object Locator'
	DD	00H
	DD	00H
	DD	FLAT:??_R0?AV?$CEncrypt@M@@@8
	DD	FLAT:??_R3?$CEncrypt@M@@8
rdata$r	ENDS
;	COMDAT ??_7?$CEncrypt@M@@6B@
CONST	SEGMENT
??_7?$CEncrypt@M@@6B@ DD FLAT:??_R4?$CEncrypt@M@@6B@	; CEncrypt<float>::`vftable'
	DD	FLAT:??_E?$CEncrypt@M@@UAEPAXI@Z
; Function compile flags: /Ogsp
CONST	ENDS
;	COMDAT ??1?$CEncrypt@M@@UAE@XZ
_TEXT	SEGMENT
??1?$CEncrypt@M@@UAE@XZ PROC				; CEncrypt<float>::~CEncrypt<float>, COMDAT
; _this$ = ecx

; 127  : 	{

  00000	c7 01 00 00 00
	00		 mov	 DWORD PTR [ecx], OFFSET ??_7?$CEncrypt@M@@6B@

; 128  : 	}

  00006	83 c1 0c	 add	 ecx, 12			; 0000000cH
  00009	e9 00 00 00 00	 jmp	 ??1ccddaabb@@UAE@XZ	; ccddaabb::~ccddaabb
??1?$CEncrypt@M@@UAE@XZ ENDP				; CEncrypt<float>::~CEncrypt<float>
; Function compile flags: /Ogsp
_TEXT	ENDS
;	COMDAT ??_G?$CEncrypt@M@@UAEPAXI@Z
_TEXT	SEGMENT
___flags$ = 8						; size = 4
??_G?$CEncrypt@M@@UAEPAXI@Z PROC			; CEncrypt<float>::`scalar deleting destructor', COMDAT
; _this$ = ecx
  00000	55		 push	 ebp
  00001	8b ec		 mov	 ebp, esp
  00003	56		 push	 esi
  00004	8b f1		 mov	 esi, ecx
  00006	8d 4e 0c	 lea	 ecx, DWORD PTR [esi+12]
  00009	c7 06 00 00 00
	00		 mov	 DWORD PTR [esi], OFFSET ??_7?$CEncrypt@M@@6B@
  0000f	e8 00 00 00 00	 call	 ??1ccddaabb@@UAE@XZ	; ccddaabb::~ccddaabb
  00014	f6 45 08 01	 test	 BYTE PTR ___flags$[ebp], 1
  00018	74 07		 je	 SHORT $LN1@scalar@2
  0001a	56		 push	 esi
  0001b	e8 00 00 00 00	 call	 ??3@YAXPAX@Z		; operator delete
  00020	59		 pop	 ecx
$LN1@scalar@2:
  00021	8b c6		 mov	 eax, esi
  00023	5e		 pop	 esi
  00024	5d		 pop	 ebp
  00025	c2 04 00	 ret	 4
??_G?$CEncrypt@M@@UAEPAXI@Z ENDP			; CEncrypt<float>::`scalar deleting destructor'
_TEXT	ENDS
PUBLIC	??1?$_Vector_val@UWeaponInfo@@V?$allocator@UWeaponInfo@@@std@@@std@@QAE@XZ ; std::_Vector_val<WeaponInfo,std::allocator<WeaponInfo> >::~_Vector_val<WeaponInfo,std::allocator<WeaponInfo> >
; Function compile flags: /Ogsp
; File c:\program files (x86)\microsoft visual studio 10.0\vc\include\vector
;	COMDAT ??1?$_Vector_val@UWeaponInfo@@V?$allocator@UWeaponInfo@@@std@@@std@@QAE@XZ
_TEXT	SEGMENT
??1?$_Vector_val@UWeaponInfo@@V?$allocator@UWeaponInfo@@@std@@@std@@QAE@XZ PROC ; std::_Vector_val<WeaponInfo,std::allocator<WeaponInfo> >::~_Vector_val<WeaponInfo,std::allocator<WeaponInfo> >, COMDAT
; _this$ = ecx

; 434  : 		}

  00000	c3		 ret	 0
??1?$_Vector_val@UWeaponInfo@@V?$allocator@UWeaponInfo@@@std@@@std@@QAE@XZ ENDP ; std::_Vector_val<WeaponInfo,std::allocator<WeaponInfo> >::~_Vector_val<WeaponInfo,std::allocator<WeaponInfo> >
_TEXT	ENDS
PUBLIC	??0?$allocator@UWeaponInfo@@@std@@QAE@XZ	; std::allocator<WeaponInfo>::allocator<WeaponInfo>
; Function compile flags: /Ogsp
; File c:\program files (x86)\microsoft visual studio 10.0\vc\include\xmemory
;	COMDAT ??0?$allocator@UWeaponInfo@@@std@@QAE@XZ
_TEXT	SEGMENT
??0?$allocator@UWeaponInfo@@@std@@QAE@XZ PROC		; std::allocator<WeaponInfo>::allocator<WeaponInfo>, COMDAT
; _this$ = ecx

; 161  : 	_ALLOCATOR() _THROW0()

  00000	8b c1		 mov	 eax, ecx

; 162  : 		{	// construct default allocator (do nothing)
; 163  : 		}

  00002	c3		 ret	 0
??0?$allocator@UWeaponInfo@@@std@@QAE@XZ ENDP		; std::allocator<WeaponInfo>::allocator<WeaponInfo>
_TEXT	ENDS
PUBLIC	??1?$_Vector_val@UForceInfo@@V?$allocator@UForceInfo@@@std@@@std@@QAE@XZ ; std::_Vector_val<ForceInfo,std::allocator<ForceInfo> >::~_Vector_val<ForceInfo,std::allocator<ForceInfo> >
; Function compile flags: /Ogsp
; File c:\program files (x86)\microsoft visual studio 10.0\vc\include\vector
;	COMDAT ??1?$_Vector_val@UForceInfo@@V?$allocator@UForceInfo@@@std@@@std@@QAE@XZ
_TEXT	SEGMENT
??1?$_Vector_val@UForceInfo@@V?$allocator@UForceInfo@@@std@@@std@@QAE@XZ PROC ; std::_Vector_val<ForceInfo,std::allocator<ForceInfo> >::~_Vector_val<ForceInfo,std::allocator<ForceInfo> >, COMDAT
; _this$ = ecx

; 434  : 		}

  00000	c3		 ret	 0
??1?$_Vector_val@UForceInfo@@V?$allocator@UForceInfo@@@std@@@std@@QAE@XZ ENDP ; std::_Vector_val<ForceInfo,std::allocator<ForceInfo> >::~_Vector_val<ForceInfo,std::allocator<ForceInfo> >
_TEXT	ENDS
PUBLIC	??0?$allocator@UForceInfo@@@std@@QAE@XZ		; std::allocator<ForceInfo>::allocator<ForceInfo>
; Function compile flags: /Ogsp
; File c:\program files (x86)\microsoft visual studio 10.0\vc\include\xmemory
;	COMDAT ??0?$allocator@UForceInfo@@@std@@QAE@XZ
_TEXT	SEGMENT
??0?$allocator@UForceInfo@@@std@@QAE@XZ PROC		; std::allocator<ForceInfo>::allocator<ForceInfo>, COMDAT
; _this$ = ecx

; 161  : 	_ALLOCATOR() _THROW0()

  00000	8b c1		 mov	 eax, ecx

; 162  : 		{	// construct default allocator (do nothing)
; 163  : 		}

  00002	c3		 ret	 0
??0?$allocator@UForceInfo@@@std@@QAE@XZ ENDP		; std::allocator<ForceInfo>::allocator<ForceInfo>
_TEXT	ENDS
PUBLIC	?EncryptValueToPool@?$CEncrypt@M@@AAEXPBD@Z	; CEncrypt<float>::EncryptValueToPool
EXTRN	?EncryptByte@ccddaabb@@QAEXPBDPADH@Z:PROC	; ccddaabb::EncryptByte
; Function compile flags: /Ogsp
; File d:\lost saga for developer\youtube\tutorial\source\src\lsclient\encryptvalue.h
;	COMDAT ?EncryptValueToPool@?$CEncrypt@M@@AAEXPBD@Z
_TEXT	SEGMENT
_value$ = 8						; size = 4
?EncryptValueToPool@?$CEncrypt@M@@AAEXPBD@Z PROC	; CEncrypt<float>::EncryptValueToPool, COMDAT
; _this$ = ecx

; 67   : 	{

  00000	55		 push	 ebp
  00001	8b ec		 mov	 ebp, esp

; 68   : 		m_RC5.EncryptByte( value, m_MemPool, max(m_ValueSize, DEFAULT_ENCRYPT) );

  00003	0f b7 41 06	 movzx	 eax, WORD PTR [ecx+6]
  00007	83 f8 04	 cmp	 eax, 4
  0000a	77 03		 ja	 SHORT $LN4@EncryptVal
  0000c	6a 04		 push	 4
  0000e	58		 pop	 eax
$LN4@EncryptVal:
  0000f	50		 push	 eax
  00010	8d 41 1c	 lea	 eax, DWORD PTR [ecx+28]
  00013	50		 push	 eax
  00014	ff 75 08	 push	 DWORD PTR _value$[ebp]
  00017	83 c1 0c	 add	 ecx, 12			; 0000000cH
  0001a	e8 00 00 00 00	 call	 ?EncryptByte@ccddaabb@@QAEXPBDPADH@Z ; ccddaabb::EncryptByte

; 69   : 		
; 70   : 	}

  0001f	5d		 pop	 ebp
  00020	c2 04 00	 ret	 4
?EncryptValueToPool@?$CEncrypt@M@@AAEXPBD@Z ENDP	; CEncrypt<float>::EncryptValueToPool
_TEXT	ENDS
PUBLIC	?Init@?$CEncrypt@M@@AAEXXZ			; CEncrypt<float>::Init
EXTRN	?Setup@ccddaabb@@QAEXPBDHH@Z:PROC		; ccddaabb::Setup
EXTRN	__imp__rand:PROC
EXTRN	__imp__timeGetTime@0:PROC
EXTRN	__imp__GetCurrentProcessId@0:PROC
; Function compile flags: /Ogsp
;	COMDAT ?Init@?$CEncrypt@M@@AAEXXZ
_TEXT	SEGMENT
_pid$ = -8						; size = 4
_tick$ = -4						; size = 4
?Init@?$CEncrypt@M@@AAEXXZ PROC				; CEncrypt<float>::Init, COMDAT
; _this$ = ecx

; 73   : 	{

  00000	55		 push	 ebp
  00001	8b ec		 mov	 ebp, esp
  00003	51		 push	 ecx
  00004	51		 push	 ecx
  00005	53		 push	 ebx
  00006	56		 push	 esi
  00007	57		 push	 edi
  00008	8b f1		 mov	 esi, ecx

; 74   : 		DWORD pid = GetCurrentProcessId();

  0000a	ff 15 00 00 00
	00		 call	 DWORD PTR __imp__GetCurrentProcessId@0
  00010	89 45 f8	 mov	 DWORD PTR _pid$[ebp], eax

; 75   : 		DWORD tick = timeGetTime();

  00013	ff 15 00 00 00
	00		 call	 DWORD PTR __imp__timeGetTime@0

; 76   : 		m_ValueSize    = sizeof(type);
; 77   : 		m_MemPoolPos   = (unsigned short)( rand()+pid+tick )%(MAX_MEM_POOL-m_ValueSize);

  00019	8b 3d 00 00 00
	00		 mov	 edi, DWORD PTR __imp__rand
  0001f	89 45 fc	 mov	 DWORD PTR _tick$[ebp], eax
  00022	6a 04		 push	 4
  00024	58		 pop	 eax
  00025	66 89 46 06	 mov	 WORD PTR [esi+6], ax
  00029	ff d7		 call	 edi
  0002b	03 45 f8	 add	 eax, DWORD PTR _pid$[ebp]
  0002e	0f b7 4e 06	 movzx	 ecx, WORD PTR [esi+6]
  00032	03 45 fc	 add	 eax, DWORD PTR _tick$[ebp]
  00035	6a 0c		 push	 12			; 0000000cH
  00037	0f b7 c0	 movzx	 eax, ax
  0003a	5b		 pop	 ebx
  0003b	99		 cdq
  0003c	2b d9		 sub	 ebx, ecx
  0003e	f7 fb		 idiv	 ebx
  00040	66 89 56 04	 mov	 WORD PTR [esi+4], dx

; 78   : 		m_EncryptSeed  = (char)( rand()+pid+tick )%256;

  00044	ff d7		 call	 edi
  00046	02 45 f8	 add	 al, BYTE PTR _pid$[ebp]
  00049	02 45 fc	 add	 al, BYTE PTR _tick$[ebp]
  0004c	0f be c0	 movsx	 eax, al
  0004f	25 ff 00 00 80	 and	 eax, -2147483393	; 800000ffH
  00054	79 07		 jns	 SHORT $LN8@Init
  00056	48		 dec	 eax
  00057	0d 00 ff ff ff	 or	 eax, -256		; ffffff00H
  0005c	40		 inc	 eax
$LN8@Init:
  0005d	88 46 08	 mov	 BYTE PTR [esi+8], al

; 79   : 
; 80   : 		for (int i = 0; i < MAX_MEM_POOL ; i++)

  00060	33 db		 xor	 ebx, ebx
$LL3@Init:

; 81   : 			m_MemPool[i] = (char)( rand()+pid+tick )%256; // 

  00062	ff d7		 call	 edi
  00064	02 45 f8	 add	 al, BYTE PTR _pid$[ebp]
  00067	02 45 fc	 add	 al, BYTE PTR _tick$[ebp]
  0006a	0f be c0	 movsx	 eax, al
  0006d	25 ff 00 00 80	 and	 eax, -2147483393	; 800000ffH
  00072	79 07		 jns	 SHORT $LN9@Init
  00074	48		 dec	 eax
  00075	0d 00 ff ff ff	 or	 eax, -256		; ffffff00H
  0007a	40		 inc	 eax
$LN9@Init:
  0007b	88 44 1e 1c	 mov	 BYTE PTR [esi+ebx+28], al
  0007f	43		 inc	 ebx
  00080	83 fb 0c	 cmp	 ebx, 12			; 0000000cH
  00083	7c dd		 jl	 SHORT $LL3@Init

; 82   : 
; 83   : 		//UJ 130913, : szKey  
; 84   : 		//char szKey[ccddaabb::KEY_SIZE];//="";
; 85   : 		//for (int i = 0; i < ccddaabb::KEY_SIZE  ; i++)
; 86   : 		//	szKey[i] = (char)( rand()+pid+tick )%256; // 
; 87   : 		m_RC5.Setup( NULL, pid, tick );

  00085	ff 75 fc	 push	 DWORD PTR _tick$[ebp]
  00088	8d 4e 0c	 lea	 ecx, DWORD PTR [esi+12]
  0008b	ff 75 f8	 push	 DWORD PTR _pid$[ebp]
  0008e	6a 00		 push	 0
  00090	e8 00 00 00 00	 call	 ?Setup@ccddaabb@@QAEXPBDHH@Z ; ccddaabb::Setup
  00095	5f		 pop	 edi
  00096	5e		 pop	 esi
  00097	5b		 pop	 ebx

; 88   : 
; 89   : #ifdef _NOTUSE
; 90   : 		m_value        = 0;
; 91   : 		EncryptValueToPool((char*)&m_value);
; 92   : 		Debug();
; 93   : #endif
; 94   : 	}

  00098	c9		 leave
  00099	c3		 ret	 0
?Init@?$CEncrypt@M@@AAEXXZ ENDP				; CEncrypt<float>::Init
_TEXT	ENDS
PUBLIC	?DecryptValueToPool@?$CEncrypt@M@@QAEXPAM@Z	; CEncrypt<float>::DecryptValueToPool
EXTRN	?DecryptByte@ccddaabb@@QBEXPBDPADH@Z:PROC	; ccddaabb::DecryptByte
; Function compile flags: /Ogsp
;	COMDAT ?DecryptValueToPool@?$CEncrypt@M@@QAEXPAM@Z
_TEXT	SEGMENT
_value$ = 8						; size = 4
?DecryptValueToPool@?$CEncrypt@M@@QAEXPAM@Z PROC	; CEncrypt<float>::DecryptValueToPool, COMDAT
; _this$ = ecx

; 1648 : 	{

  00000	55		 push	 ebp
  00001	8b ec		 mov	 ebp, esp
  00003	56		 push	 esi

; 1649 : 		m_RC5.DecryptByte( m_MemPool, m_TempMem, 4 );

  00004	8d 71 28	 lea	 esi, DWORD PTR [ecx+40]
  00007	6a 04		 push	 4
  00009	8d 41 1c	 lea	 eax, DWORD PTR [ecx+28]
  0000c	56		 push	 esi
  0000d	50		 push	 eax
  0000e	83 c1 0c	 add	 ecx, 12			; 0000000cH
  00011	e8 00 00 00 00	 call	 ?DecryptByte@ccddaabb@@QBEXPBDPADH@Z ; ccddaabb::DecryptByte

; 1650 : 		*value = *((float*)m_TempMem);

  00016	d9 06		 fld	 DWORD PTR [esi]
  00018	8b 45 08	 mov	 eax, DWORD PTR _value$[ebp]
  0001b	d9 18		 fstp	 DWORD PTR [eax]
  0001d	5e		 pop	 esi

; 1651 : 	}

  0001e	5d		 pop	 ebp
  0001f	c2 04 00	 ret	 4
?DecryptValueToPool@?$CEncrypt@M@@QAEXPAM@Z ENDP	; CEncrypt<float>::DecryptValueToPool
_TEXT	ENDS
PUBLIC	?DecryptValueToPool@?$CEncrypt@_N@@QAEXPA_N@Z	; CEncrypt<bool>::DecryptValueToPool
; Function compile flags: /Ogsp
;	COMDAT ?DecryptValueToPool@?$CEncrypt@_N@@QAEXPA_N@Z
_TEXT	SEGMENT
_value$ = 8						; size = 4
?DecryptValueToPool@?$CEncrypt@_N@@QAEXPA_N@Z PROC	; CEncrypt<bool>::DecryptValueToPool, COMDAT
; _this$ = ecx

; 219  : 	{

  00000	55		 push	 ebp
  00001	8b ec		 mov	 ebp, esp
  00003	56		 push	 esi

; 220  : 		m_RC5.DecryptByte( m_MemPool, m_TempMem, 4 );

  00004	8d 71 28	 lea	 esi, DWORD PTR [ecx+40]
  00007	6a 04		 push	 4
  00009	8d 41 1c	 lea	 eax, DWORD PTR [ecx+28]
  0000c	56		 push	 esi
  0000d	50		 push	 eax
  0000e	83 c1 0c	 add	 ecx, 12			; 0000000cH
  00011	e8 00 00 00 00	 call	 ?DecryptByte@ccddaabb@@QBEXPBDPADH@Z ; ccddaabb::DecryptByte

; 221  : 		*value = *((bool*)m_TempMem);

  00016	8a 06		 mov	 al, BYTE PTR [esi]
  00018	8b 4d 08	 mov	 ecx, DWORD PTR _value$[ebp]
  0001b	88 01		 mov	 BYTE PTR [ecx], al
  0001d	5e		 pop	 esi

; 222  : 	}

  0001e	5d		 pop	 ebp
  0001f	c2 04 00	 ret	 4
?DecryptValueToPool@?$CEncrypt@_N@@QAEXPA_N@Z ENDP	; CEncrypt<bool>::DecryptValueToPool
_TEXT	ENDS
PUBLIC	??0?$allocator@UWeaponInfo@@@std@@QAE@ABV01@@Z	; std::allocator<WeaponInfo>::allocator<WeaponInfo>
; Function compile flags: /Ogsp
; File c:\program files (x86)\microsoft visual studio 10.0\vc\include\xmemory
;	COMDAT ??0?$allocator@UWeaponInfo@@@std@@QAE@ABV01@@Z
_TEXT	SEGMENT
___formal$ = 8						; size = 4
??0?$allocator@UWeaponInfo@@@std@@QAE@ABV01@@Z PROC	; std::allocator<WeaponInfo>::allocator<WeaponInfo>, COMDAT
; _this$ = ecx

; 165  : 	_ALLOCATOR(const _ALLOCATOR<_Ty>&) _THROW0()

  00000	8b c1		 mov	 eax, ecx

; 166  : 		{	// construct by copying (do nothing)
; 167  : 		}

  00002	c2 04 00	 ret	 4
??0?$allocator@UWeaponInfo@@@std@@QAE@ABV01@@Z ENDP	; std::allocator<WeaponInfo>::allocator<WeaponInfo>
_TEXT	ENDS
PUBLIC	?deallocate@?$allocator@UWeaponInfo@@@std@@QAEXPAUWeaponInfo@@I@Z ; std::allocator<WeaponInfo>::deallocate
; Function compile flags: /Ogsp
;	COMDAT ?deallocate@?$allocator@UWeaponInfo@@@std@@QAEXPAUWeaponInfo@@I@Z
_TEXT	SEGMENT
__Ptr$ = 8						; size = 4
___formal$ = 12						; size = 4
?deallocate@?$allocator@UWeaponInfo@@@std@@QAEXPAUWeaponInfo@@I@Z PROC ; std::allocator<WeaponInfo>::deallocate, COMDAT
; _this$ = ecx

; 181  : 		{	// deallocate object at _Ptr, ignore size

  00000	55		 push	 ebp
  00001	8b ec		 mov	 ebp, esp

; 182  : 		::operator delete(_Ptr);

  00003	ff 75 08	 push	 DWORD PTR __Ptr$[ebp]
  00006	e8 00 00 00 00	 call	 ??3@YAXPAX@Z		; operator delete
  0000b	59		 pop	 ecx

; 183  : 		}

  0000c	5d		 pop	 ebp
  0000d	c2 08 00	 ret	 8
?deallocate@?$allocator@UWeaponInfo@@@std@@QAEXPAUWeaponInfo@@I@Z ENDP ; std::allocator<WeaponInfo>::deallocate
_TEXT	ENDS
PUBLIC	??0?$allocator@UForceInfo@@@std@@QAE@ABV01@@Z	; std::allocator<ForceInfo>::allocator<ForceInfo>
; Function compile flags: /Ogsp
;	COMDAT ??0?$allocator@UForceInfo@@@std@@QAE@ABV01@@Z
_TEXT	SEGMENT
___formal$ = 8						; size = 4
??0?$allocator@UForceInfo@@@std@@QAE@ABV01@@Z PROC	; std::allocator<ForceInfo>::allocator<ForceInfo>, COMDAT
; _this$ = ecx

; 165  : 	_ALLOCATOR(const _ALLOCATOR<_Ty>&) _THROW0()

  00000	8b c1		 mov	 eax, ecx

; 166  : 		{	// construct by copying (do nothing)
; 167  : 		}

  00002	c2 04 00	 ret	 4
??0?$allocator@UForceInfo@@@std@@QAE@ABV01@@Z ENDP	; std::allocator<ForceInfo>::allocator<ForceInfo>
_TEXT	ENDS
PUBLIC	?deallocate@?$allocator@UForceInfo@@@std@@QAEXPAUForceInfo@@I@Z ; std::allocator<ForceInfo>::deallocate
; Function compile flags: /Ogsp
;	COMDAT ?deallocate@?$allocator@UForceInfo@@@std@@QAEXPAUForceInfo@@I@Z
_TEXT	SEGMENT
__Ptr$ = 8						; size = 4
___formal$ = 12						; size = 4
?deallocate@?$allocator@UForceInfo@@@std@@QAEXPAUForceInfo@@I@Z PROC ; std::allocator<ForceInfo>::deallocate, COMDAT
; _this$ = ecx

; 181  : 		{	// deallocate object at _Ptr, ignore size

  00000	55		 push	 ebp
  00001	8b ec		 mov	 ebp, esp

; 182  : 		::operator delete(_Ptr);

  00003	ff 75 08	 push	 DWORD PTR __Ptr$[ebp]
  00006	e8 00 00 00 00	 call	 ??3@YAXPAX@Z		; operator delete
  0000b	59		 pop	 ecx

; 183  : 		}

  0000c	5d		 pop	 ebp
  0000d	c2 08 00	 ret	 8
?deallocate@?$allocator@UForceInfo@@@std@@QAEXPAUForceInfo@@I@Z ENDP ; std::allocator<ForceInfo>::deallocate
_TEXT	ENDS
PUBLIC	??$_Ptr_cat@UWeaponInfo@@U1@@std@@YA?AU_Nonscalar_ptr_iterator_tag@0@PAUWeaponInfo@@0@Z ; std::_Ptr_cat<WeaponInfo,WeaponInfo>
; Function compile flags: /Ogsp
; File c:\program files (x86)\microsoft visual studio 10.0\vc\include\xutility
;	COMDAT ??$_Ptr_cat@UWeaponInfo@@U1@@std@@YA?AU_Nonscalar_ptr_iterator_tag@0@PAUWeaponInfo@@0@Z
_TEXT	SEGMENT
__Cat$ = -1						; size = 1
___formal$ = 8						; size = 4
___formal$ = 12						; size = 4
??$_Ptr_cat@UWeaponInfo@@U1@@std@@YA?AU_Nonscalar_ptr_iterator_tag@0@PAUWeaponInfo@@0@Z PROC ; std::_Ptr_cat<WeaponInfo,WeaponInfo>, COMDAT

; 516  : 	{	// return pointer category from pointers

  00000	55		 push	 ebp
  00001	8b ec		 mov	 ebp, esp
  00003	51		 push	 ecx

; 517  : 	typename _Ptr_cat_helper<_Elem1, _Elem2>::_Type _Cat;
; 518  : 	return (_Cat);

  00004	8a 45 ff	 mov	 al, BYTE PTR __Cat$[ebp]

; 519  : 	}

  00007	c9		 leave
  00008	c3		 ret	 0
??$_Ptr_cat@UWeaponInfo@@U1@@std@@YA?AU_Nonscalar_ptr_iterator_tag@0@PAUWeaponInfo@@0@Z ENDP ; std::_Ptr_cat<WeaponInfo,WeaponInfo>
_TEXT	ENDS
PUBLIC	??$_Ptr_cat@UForceInfo@@U1@@std@@YA?AU_Nonscalar_ptr_iterator_tag@0@PAUForceInfo@@0@Z ; std::_Ptr_cat<ForceInfo,ForceInfo>
; Function compile flags: /Ogsp
;	COMDAT ??$_Ptr_cat@UForceInfo@@U1@@std@@YA?AU_Nonscalar_ptr_iterator_tag@0@PAUForceInfo@@0@Z
_TEXT	SEGMENT
__Cat$ = -1						; size = 1
___formal$ = 8						; size = 4
___formal$ = 12						; size = 4
??$_Ptr_cat@UForceInfo@@U1@@std@@YA?AU_Nonscalar_ptr_iterator_tag@0@PAUForceInfo@@0@Z PROC ; std::_Ptr_cat<ForceInfo,ForceInfo>, COMDAT

; 516  : 	{	// return pointer category from pointers

  00000	55		 push	 ebp
  00001	8b ec		 mov	 ebp, esp
  00003	51		 push	 ecx

; 517  : 	typename _Ptr_cat_helper<_Elem1, _Elem2>::_Type _Cat;
; 518  : 	return (_Cat);

  00004	8a 45 ff	 mov	 al, BYTE PTR __Cat$[ebp]

; 519  : 	}

  00007	c9		 leave
  00008	c3		 ret	 0
??$_Ptr_cat@UForceInfo@@U1@@std@@YA?AU_Nonscalar_ptr_iterator_tag@0@PAUForceInfo@@0@Z ENDP ; std::_Ptr_cat<ForceInfo,ForceInfo>
_TEXT	ENDS
PUBLIC	?size@?$vector@UWeaponInfo@@V?$allocator@UWeaponInfo@@@std@@@std@@QBEIXZ ; std::vector<WeaponInfo,std::allocator<WeaponInfo> >::size
; Function compile flags: /Ogsp
; File c:\program files (x86)\microsoft visual studio 10.0\vc\include\vector
;	COMDAT ?size@?$vector@UWeaponInfo@@V?$allocator@UWeaponInfo@@@std@@@std@@QBEIXZ
_TEXT	SEGMENT
?size@?$vector@UWeaponInfo@@V?$allocator@UWeaponInfo@@@std@@@std@@QBEIXZ PROC ; std::vector<WeaponInfo,std::allocator<WeaponInfo> >::size, COMDAT
; _this$ = ecx

; 879  : 		return (this->_Mylast - this->_Myfirst);

  00000	8b 41 04	 mov	 eax, DWORD PTR [ecx+4]
  00003	2b 01		 sub	 eax, DWORD PTR [ecx]
  00005	6a 28		 push	 40			; 00000028H
  00007	99		 cdq
  00008	59		 pop	 ecx
  00009	f7 f9		 idiv	 ecx

; 880  : 		}

  0000b	c3		 ret	 0
?size@?$vector@UWeaponInfo@@V?$allocator@UWeaponInfo@@@std@@@std@@QBEIXZ ENDP ; std::vector<WeaponInfo,std::allocator<WeaponInfo> >::size
_TEXT	ENDS
PUBLIC	?size@?$vector@UForceInfo@@V?$allocator@UForceInfo@@@std@@@std@@QBEIXZ ; std::vector<ForceInfo,std::allocator<ForceInfo> >::size
; Function compile flags: /Ogsp
;	COMDAT ?size@?$vector@UForceInfo@@V?$allocator@UForceInfo@@@std@@@std@@QBEIXZ
_TEXT	SEGMENT
?size@?$vector@UForceInfo@@V?$allocator@UForceInfo@@@std@@@std@@QBEIXZ PROC ; std::vector<ForceInfo,std::allocator<ForceInfo> >::size, COMDAT
; _this$ = ecx

; 879  : 		return (this->_Mylast - this->_Myfirst);

  00000	8b 41 04	 mov	 eax, DWORD PTR [ecx+4]
  00003	2b 01		 sub	 eax, DWORD PTR [ecx]
  00005	6a 0c		 push	 12			; 0000000cH
  00007	99		 cdq
  00008	59		 pop	 ecx
  00009	f7 f9		 idiv	 ecx

; 880  : 		}

  0000b	c3		 ret	 0
?size@?$vector@UForceInfo@@V?$allocator@UForceInfo@@@std@@@std@@QBEIXZ ENDP ; std::vector<ForceInfo,std::allocator<ForceInfo> >::size
_TEXT	ENDS
PUBLIC	??_C@_0BD@OLBABOEK@vector?$DMT?$DO?5too?5long?$AA@ ; `string'
PUBLIC	?_Xlen@?$vector@UWeaponInfo@@V?$allocator@UWeaponInfo@@@std@@@std@@IBEXXZ ; std::vector<WeaponInfo,std::allocator<WeaponInfo> >::_Xlen
EXTRN	__imp_?_Xlength_error@std@@YAXPBD@Z:PROC
;	COMDAT ??_C@_0BD@OLBABOEK@vector?$DMT?$DO?5too?5long?$AA@
CONST	SEGMENT
??_C@_0BD@OLBABOEK@vector?$DMT?$DO?5too?5long?$AA@ DB 'vector<T> too long'
	DB	00H						; `string'
; Function compile flags: /Ogsp
CONST	ENDS
;	COMDAT ?_Xlen@?$vector@UWeaponInfo@@V?$allocator@UWeaponInfo@@@std@@@std@@IBEXXZ
_TEXT	SEGMENT
?_Xlen@?$vector@UWeaponInfo@@V?$allocator@UWeaponInfo@@@std@@@std@@IBEXXZ PROC ; std::vector<WeaponInfo,std::allocator<WeaponInfo> >::_Xlen, COMDAT
; _this$ = ecx

; 1427 : 		_Xlength_error("vector<T> too long");

  00000	68 00 00 00 00	 push	 OFFSET ??_C@_0BD@OLBABOEK@vector?$DMT?$DO?5too?5long?$AA@
  00005	ff 15 00 00 00
	00		 call	 DWORD PTR __imp_?_Xlength_error@std@@YAXPBD@Z
$LN4@Xlen:
$LN3@Xlen:
  0000b	cc		 int	 3
?_Xlen@?$vector@UWeaponInfo@@V?$allocator@UWeaponInfo@@@std@@@std@@IBEXXZ ENDP ; std::vector<WeaponInfo,std::allocator<WeaponInfo> >::_Xlen
_TEXT	ENDS
PUBLIC	?_Xlen@?$vector@UForceInfo@@V?$allocator@UForceInfo@@@std@@@std@@IBEXXZ ; std::vector<ForceInfo,std::allocator<ForceInfo> >::_Xlen
; Function compile flags: /Ogsp
;	COMDAT ?_Xlen@?$vector@UForceInfo@@V?$allocator@UForceInfo@@@std@@@std@@IBEXXZ
_TEXT	SEGMENT
?_Xlen@?$vector@UForceInfo@@V?$allocator@UForceInfo@@@std@@@std@@IBEXXZ PROC ; std::vector<ForceInfo,std::allocator<ForceInfo> >::_Xlen, COMDAT
; _this$ = ecx

; 1427 : 		_Xlength_error("vector<T> too long");

  00000	68 00 00 00 00	 push	 OFFSET ??_C@_0BD@OLBABOEK@vector?$DMT?$DO?5too?5long?$AA@
  00005	ff 15 00 00 00
	00		 call	 DWORD PTR __imp_?_Xlength_error@std@@YAXPBD@Z
$LN4@Xlen@2:
$LN3@Xlen@2:
  0000b	cc		 int	 3
?_Xlen@?$vector@UForceInfo@@V?$allocator@UForceInfo@@@std@@@std@@IBEXXZ ENDP ; std::vector<ForceInfo,std::allocator<ForceInfo> >::_Xlen
_TEXT	ENDS
PUBLIC	?max_size@?$allocator@UWeaponInfo@@@std@@QBEIXZ	; std::allocator<WeaponInfo>::max_size
; Function compile flags: /Ogsp
; File c:\program files (x86)\microsoft visual studio 10.0\vc\include\xmemory
;	COMDAT ?max_size@?$allocator@UWeaponInfo@@@std@@QBEIXZ
_TEXT	SEGMENT
?max_size@?$allocator@UWeaponInfo@@@std@@QBEIXZ PROC	; std::allocator<WeaponInfo>::max_size, COMDAT
; _this$ = ecx

; 218  : 		_SIZT _Count = (_SIZT)(-1) / sizeof (_Ty);
; 219  : 		return (0 < _Count ? _Count : 1);

  00000	b8 66 66 66 06	 mov	 eax, 107374182		; 06666666H

; 220  : 		}

  00005	c3		 ret	 0
?max_size@?$allocator@UWeaponInfo@@@std@@QBEIXZ ENDP	; std::allocator<WeaponInfo>::max_size
_TEXT	ENDS
PUBLIC	?max_size@?$allocator@UForceInfo@@@std@@QBEIXZ	; std::allocator<ForceInfo>::max_size
; Function compile flags: /Ogsp
;	COMDAT ?max_size@?$allocator@UForceInfo@@@std@@QBEIXZ
_TEXT	SEGMENT
?max_size@?$allocator@UForceInfo@@@std@@QBEIXZ PROC	; std::allocator<ForceInfo>::max_size, COMDAT
; _this$ = ecx

; 218  : 		_SIZT _Count = (_SIZT)(-1) / sizeof (_Ty);
; 219  : 		return (0 < _Count ? _Count : 1);

  00000	b8 55 55 55 15	 mov	 eax, 357913941		; 15555555H

; 220  : 		}

  00005	c3		 ret	 0
?max_size@?$allocator@UForceInfo@@@std@@QBEIXZ ENDP	; std::allocator<ForceInfo>::max_size
_TEXT	ENDS
PUBLIC	??0?$_Vector_const_iterator@V?$_Vector_val@UWeaponInfo@@V?$allocator@UWeaponInfo@@@std@@@std@@@std@@QAE@PAUWeaponInfo@@PBU_Container_base0@1@@Z ; std::_Vector_const_iterator<std::_Vector_val<WeaponInfo,std::allocator<WeaponInfo> > >::_Vector_const_iterator<std::_Vector_val<WeaponInfo,std::allocator<WeaponInfo> > >
; Function compile flags: /Ogsp
; File c:\program files (x86)\microsoft visual studio 10.0\vc\include\vector
;	COMDAT ??0?$_Vector_const_iterator@V?$_Vector_val@UWeaponInfo@@V?$allocator@UWeaponInfo@@@std@@@std@@@std@@QAE@PAUWeaponInfo@@PBU_Container_base0@1@@Z
_TEXT	SEGMENT
__Parg$ = 8						; size = 4
__Pvector$ = 12						; size = 4
??0?$_Vector_const_iterator@V?$_Vector_val@UWeaponInfo@@V?$allocator@UWeaponInfo@@@std@@@std@@@std@@QAE@PAUWeaponInfo@@PBU_Container_base0@1@@Z PROC ; std::_Vector_const_iterator<std::_Vector_val<WeaponInfo,std::allocator<WeaponInfo> > >::_Vector_const_iterator<std::_Vector_val<WeaponInfo,std::allocator<WeaponInfo> > >, COMDAT
; _this$ = ecx

; 45   : 		{	// construct with pointer _Parg

  00000	55		 push	 ebp
  00001	8b ec		 mov	 ebp, esp
  00003	8b c1		 mov	 eax, ecx
  00005	8b 4d 08	 mov	 ecx, DWORD PTR __Parg$[ebp]
  00008	89 08		 mov	 DWORD PTR [eax], ecx

; 46   : 		this->_Adopt(_Pvector);
; 47   : 		}

  0000a	5d		 pop	 ebp
  0000b	c2 08 00	 ret	 8
??0?$_Vector_const_iterator@V?$_Vector_val@UWeaponInfo@@V?$allocator@UWeaponInfo@@@std@@@std@@@std@@QAE@PAUWeaponInfo@@PBU_Container_base0@1@@Z ENDP ; std::_Vector_const_iterator<std::_Vector_val<WeaponInfo,std::allocator<WeaponInfo> > >::_Vector_const_iterator<std::_Vector_val<WeaponInfo,std::allocator<WeaponInfo> > >
_TEXT	ENDS
PUBLIC	??0?$_Vector_const_iterator@V?$_Vector_val@UForceInfo@@V?$allocator@UForceInfo@@@std@@@std@@@std@@QAE@PAUForceInfo@@PBU_Container_base0@1@@Z ; std::_Vector_const_iterator<std::_Vector_val<ForceInfo,std::allocator<ForceInfo> > >::_Vector_const_iterator<std::_Vector_val<ForceInfo,std::allocator<ForceInfo> > >
; Function compile flags: /Ogsp
;	COMDAT ??0?$_Vector_const_iterator@V?$_Vector_val@UForceInfo@@V?$allocator@UForceInfo@@@std@@@std@@@std@@QAE@PAUForceInfo@@PBU_Container_base0@1@@Z
_TEXT	SEGMENT
__Parg$ = 8						; size = 4
__Pvector$ = 12						; size = 4
??0?$_Vector_const_iterator@V?$_Vector_val@UForceInfo@@V?$allocator@UForceInfo@@@std@@@std@@@std@@QAE@PAUForceInfo@@PBU_Container_base0@1@@Z PROC ; std::_Vector_const_iterator<std::_Vector_val<ForceInfo,std::allocator<ForceInfo> > >::_Vector_const_iterator<std::_Vector_val<ForceInfo,std::allocator<ForceInfo> > >, COMDAT
; _this$ = ecx

; 45   : 		{	// construct with pointer _Parg

  00000	55		 push	 ebp
  00001	8b ec		 mov	 ebp, esp
  00003	8b c1		 mov	 eax, ecx
  00005	8b 4d 08	 mov	 ecx, DWORD PTR __Parg$[ebp]
  00008	89 08		 mov	 DWORD PTR [eax], ecx

; 46   : 		this->_Adopt(_Pvector);
; 47   : 		}

  0000a	5d		 pop	 ebp
  0000b	c2 08 00	 ret	 8
??0?$_Vector_const_iterator@V?$_Vector_val@UForceInfo@@V?$allocator@UForceInfo@@@std@@@std@@@std@@QAE@PAUForceInfo@@PBU_Container_base0@1@@Z ENDP ; std::_Vector_const_iterator<std::_Vector_val<ForceInfo,std::allocator<ForceInfo> > >::_Vector_const_iterator<std::_Vector_val<ForceInfo,std::allocator<ForceInfo> > >
_TEXT	ENDS
PUBLIC	?_Compat@?$_Vector_const_iterator@V?$_Vector_val@UWeaponInfo@@V?$allocator@UWeaponInfo@@@std@@@std@@@std@@QBEXABV12@@Z ; std::_Vector_const_iterator<std::_Vector_val<WeaponInfo,std::allocator<WeaponInfo> > >::_Compat
; Function compile flags: /Ogsp
;	COMDAT ?_Compat@?$_Vector_const_iterator@V?$_Vector_val@UWeaponInfo@@V?$allocator@UWeaponInfo@@@std@@@std@@@std@@QBEXABV12@@Z
_TEXT	SEGMENT
___formal$ = 8						; size = 4
?_Compat@?$_Vector_const_iterator@V?$_Vector_val@UWeaponInfo@@V?$allocator@UWeaponInfo@@@std@@@std@@@std@@QBEXABV12@@Z PROC ; std::_Vector_const_iterator<std::_Vector_val<WeaponInfo,std::allocator<WeaponInfo> > >::_Compat, COMDAT
; _this$ = ecx

; 253  : 		}

  00000	c2 04 00	 ret	 4
?_Compat@?$_Vector_const_iterator@V?$_Vector_val@UWeaponInfo@@V?$allocator@UWeaponInfo@@@std@@@std@@@std@@QBEXABV12@@Z ENDP ; std::_Vector_const_iterator<std::_Vector_val<WeaponInfo,std::allocator<WeaponInfo> > >::_Compat
_TEXT	ENDS
PUBLIC	?_Compat@?$_Vector_const_iterator@V?$_Vector_val@UForceInfo@@V?$allocator@UForceInfo@@@std@@@std@@@std@@QBEXABV12@@Z ; std::_Vector_const_iterator<std::_Vector_val<ForceInfo,std::allocator<ForceInfo> > >::_Compat
; Function compile flags: /Ogsp
;	COMDAT ?_Compat@?$_Vector_const_iterator@V?$_Vector_val@UForceInfo@@V?$allocator@UForceInfo@@@std@@@std@@@std@@QBEXABV12@@Z
_TEXT	SEGMENT
___formal$ = 8						; size = 4
?_Compat@?$_Vector_const_iterator@V?$_Vector_val@UForceInfo@@V?$allocator@UForceInfo@@@std@@@std@@@std@@QBEXABV12@@Z PROC ; std::_Vector_const_iterator<std::_Vector_val<ForceInfo,std::allocator<ForceInfo> > >::_Compat, COMDAT
; _this$ = ecx

; 253  : 		}

  00000	c2 04 00	 ret	 4
?_Compat@?$_Vector_const_iterator@V?$_Vector_val@UForceInfo@@V?$allocator@UForceInfo@@@std@@@std@@@std@@QBEXABV12@@Z ENDP ; std::_Vector_const_iterator<std::_Vector_val<ForceInfo,std::allocator<ForceInfo> > >::_Compat
_TEXT	ENDS
PUBLIC	__TI2?AVbad_alloc@std@@
PUBLIC	??$_Allocate@UWeaponInfo@@@std@@YAPAUWeaponInfo@@IPAU1@@Z ; std::_Allocate<WeaponInfo>
PUBLIC	__CTA2?AVbad_alloc@std@@
PUBLIC	__CT??_R0?AVbad_alloc@std@@@8??0bad_alloc@std@@QAE@ABV01@@Z12
PUBLIC	??0bad_alloc@std@@QAE@ABV01@@Z			; std::bad_alloc::bad_alloc
PUBLIC	__CT??_R0?AVexception@std@@@8??0exception@std@@QAE@ABV01@@Z12
EXTRN	??2@YAPAXI@Z:PROC				; operator new
EXTRN	__CxxThrowException@8:PROC
EXTRN	??0exception@std@@QAE@ABV01@@Z:PROC		; std::exception::exception
;	COMDAT __CT??_R0?AVexception@std@@@8??0exception@std@@QAE@ABV01@@Z12
; File c:\program files (x86)\microsoft visual studio 10.0\vc\include\exception
xdata$x	SEGMENT
__CT??_R0?AVexception@std@@@8??0exception@std@@QAE@ABV01@@Z12 DD 00H
	DD	FLAT:??_R0?AVexception@std@@@8
	DD	00H
	DD	0ffffffffH
	ORG $+4
	DD	0cH
	DD	FLAT:??0exception@std@@QAE@ABV01@@Z
xdata$x	ENDS
;	COMDAT __CT??_R0?AVbad_alloc@std@@@8??0bad_alloc@std@@QAE@ABV01@@Z12
xdata$x	SEGMENT
__CT??_R0?AVbad_alloc@std@@@8??0bad_alloc@std@@QAE@ABV01@@Z12 DD 00H
	DD	FLAT:??_R0?AVbad_alloc@std@@@8
	DD	00H
	DD	0ffffffffH
	ORG $+4
	DD	0cH
	DD	FLAT:??0bad_alloc@std@@QAE@ABV01@@Z
xdata$x	ENDS
;	COMDAT __CTA2?AVbad_alloc@std@@
xdata$x	SEGMENT
__CTA2?AVbad_alloc@std@@ DD 02H
	DD	FLAT:__CT??_R0?AVbad_alloc@std@@@8??0bad_alloc@std@@QAE@ABV01@@Z12
	DD	FLAT:__CT??_R0?AVexception@std@@@8??0exception@std@@QAE@ABV01@@Z12
xdata$x	ENDS
;	COMDAT __TI2?AVbad_alloc@std@@
xdata$x	SEGMENT
__TI2?AVbad_alloc@std@@ DD 00H
	DD	FLAT:??1bad_alloc@std@@UAE@XZ
	DD	00H
	DD	FLAT:__CTA2?AVbad_alloc@std@@
; Function compile flags: /Ogsp
; File c:\program files (x86)\microsoft visual studio 10.0\vc\include\xmemory
xdata$x	ENDS
;	COMDAT ??$_Allocate@UWeaponInfo@@@std@@YAPAUWeaponInfo@@IPAU1@@Z
_TEXT	SEGMENT
$T527712 = -12						; size = 12
$T527717 = 8						; size = 4
__Count$ = 8						; size = 4
___formal$ = 12						; size = 4
??$_Allocate@UWeaponInfo@@@std@@YAPAUWeaponInfo@@IPAU1@@Z PROC ; std::_Allocate<WeaponInfo>, COMDAT

; 30   : 	{	// allocate storage for _Count elements of type _Ty

  00000	55		 push	 ebp
  00001	8b ec		 mov	 ebp, esp

; 31   : 	void *_Ptr = 0;
; 32   : 
; 33   : 	if (_Count <= 0)

  00003	8b 4d 08	 mov	 ecx, DWORD PTR __Count$[ebp]
  00006	83 ec 0c	 sub	 esp, 12			; 0000000cH
  00009	33 c0		 xor	 eax, eax
  0000b	85 c9		 test	 ecx, ecx

; 34   : 		_Count = 0;
; 35   : 	else if (((_SIZT)(-1) / sizeof (_Ty) < _Count)

  0000d	74 3c		 je	 SHORT $LN5@Allocate

; 36   : 		|| (_Ptr = ::operator new(_Count * sizeof (_Ty))) == 0)

  0000f	81 f9 66 66 66
	06		 cmp	 ecx, 107374182		; 06666666H
  00015	77 0e		 ja	 SHORT $LN1@Allocate
  00017	6b c9 28	 imul	 ecx, 40			; 00000028H
  0001a	51		 push	 ecx
  0001b	e8 00 00 00 00	 call	 ??2@YAPAXI@Z		; operator new
  00020	59		 pop	 ecx
  00021	85 c0		 test	 eax, eax

; 38   : 
; 39   : 	return ((_Ty _FARQ *)_Ptr);

  00023	75 26		 jne	 SHORT $LN5@Allocate
$LN1@Allocate:

; 37   : 		_THROW_NCEE(bad_alloc, 0);

  00025	83 65 08 00	 and	 DWORD PTR $T527717[ebp], 0
  00029	8d 45 08	 lea	 eax, DWORD PTR $T527717[ebp]
  0002c	50		 push	 eax
  0002d	8d 4d f4	 lea	 ecx, DWORD PTR $T527712[ebp]
  00030	ff 15 00 00 00
	00		 call	 DWORD PTR __imp_??0exception@std@@QAE@ABQBD@Z
  00036	68 00 00 00 00	 push	 OFFSET __TI2?AVbad_alloc@std@@
  0003b	8d 45 f4	 lea	 eax, DWORD PTR $T527712[ebp]
  0003e	50		 push	 eax
  0003f	c7 45 f4 00 00
	00 00		 mov	 DWORD PTR $T527712[ebp], OFFSET ??_7bad_alloc@std@@6B@
  00046	e8 00 00 00 00	 call	 __CxxThrowException@8
$LN10@Allocate:
$LN5@Allocate:

; 40   : 	}

  0004b	c9		 leave
  0004c	c3		 ret	 0
$LN9@Allocate:
??$_Allocate@UWeaponInfo@@@std@@YAPAUWeaponInfo@@IPAU1@@Z ENDP ; std::_Allocate<WeaponInfo>
_TEXT	ENDS
EXTRN	__imp_??0exception@std@@QAE@ABV01@@Z:PROC
; Function compile flags: /Ogsp
;	COMDAT ??0bad_alloc@std@@QAE@ABV01@@Z
_TEXT	SEGMENT
___that$ = 8						; size = 4
??0bad_alloc@std@@QAE@ABV01@@Z PROC			; std::bad_alloc::bad_alloc, COMDAT
; _this$ = ecx
  00000	55		 push	 ebp
  00001	8b ec		 mov	 ebp, esp
  00003	56		 push	 esi
  00004	ff 75 08	 push	 DWORD PTR ___that$[ebp]
  00007	8b f1		 mov	 esi, ecx
  00009	ff 15 00 00 00
	00		 call	 DWORD PTR __imp_??0exception@std@@QAE@ABV01@@Z
  0000f	c7 06 00 00 00
	00		 mov	 DWORD PTR [esi], OFFSET ??_7bad_alloc@std@@6B@
  00015	8b c6		 mov	 eax, esi
  00017	5e		 pop	 esi
  00018	5d		 pop	 ebp
  00019	c2 04 00	 ret	 4
??0bad_alloc@std@@QAE@ABV01@@Z ENDP			; std::bad_alloc::bad_alloc
_TEXT	ENDS
PUBLIC	??$_Allocate@UForceInfo@@@std@@YAPAUForceInfo@@IPAU1@@Z ; std::_Allocate<ForceInfo>
; Function compile flags: /Ogsp
;	COMDAT ??$_Allocate@UForceInfo@@@std@@YAPAUForceInfo@@IPAU1@@Z
_TEXT	SEGMENT
$T527725 = -12						; size = 12
$T527729 = 8						; size = 4
__Count$ = 8						; size = 4
___formal$ = 12						; size = 4
??$_Allocate@UForceInfo@@@std@@YAPAUForceInfo@@IPAU1@@Z PROC ; std::_Allocate<ForceInfo>, COMDAT

; 30   : 	{	// allocate storage for _Count elements of type _Ty

  00000	55		 push	 ebp
  00001	8b ec		 mov	 ebp, esp

; 31   : 	void *_Ptr = 0;
; 32   : 
; 33   : 	if (_Count <= 0)

  00003	8b 4d 08	 mov	 ecx, DWORD PTR __Count$[ebp]
  00006	83 ec 0c	 sub	 esp, 12			; 0000000cH
  00009	33 c0		 xor	 eax, eax
  0000b	85 c9		 test	 ecx, ecx

; 34   : 		_Count = 0;
; 35   : 	else if (((_SIZT)(-1) / sizeof (_Ty) < _Count)

  0000d	74 3c		 je	 SHORT $LN5@Allocate@2

; 36   : 		|| (_Ptr = ::operator new(_Count * sizeof (_Ty))) == 0)

  0000f	81 f9 55 55 55
	15		 cmp	 ecx, 357913941		; 15555555H
  00015	77 0e		 ja	 SHORT $LN1@Allocate@2
  00017	6b c9 0c	 imul	 ecx, 12			; 0000000cH
  0001a	51		 push	 ecx
  0001b	e8 00 00 00 00	 call	 ??2@YAPAXI@Z		; operator new
  00020	59		 pop	 ecx
  00021	85 c0		 test	 eax, eax

; 38   : 
; 39   : 	return ((_Ty _FARQ *)_Ptr);

  00023	75 26		 jne	 SHORT $LN5@Allocate@2
$LN1@Allocate@2:

; 37   : 		_THROW_NCEE(bad_alloc, 0);

  00025	83 65 08 00	 and	 DWORD PTR $T527729[ebp], 0
  00029	8d 45 08	 lea	 eax, DWORD PTR $T527729[ebp]
  0002c	50		 push	 eax
  0002d	8d 4d f4	 lea	 ecx, DWORD PTR $T527725[ebp]
  00030	ff 15 00 00 00
	00		 call	 DWORD PTR __imp_??0exception@std@@QAE@ABQBD@Z
  00036	68 00 00 00 00	 push	 OFFSET __TI2?AVbad_alloc@std@@
  0003b	8d 45 f4	 lea	 eax, DWORD PTR $T527725[ebp]
  0003e	50		 push	 eax
  0003f	c7 45 f4 00 00
	00 00		 mov	 DWORD PTR $T527725[ebp], OFFSET ??_7bad_alloc@std@@6B@
  00046	e8 00 00 00 00	 call	 __CxxThrowException@8
$LN10@Allocate@2:
$LN5@Allocate@2:

; 40   : 	}

  0004b	c9		 leave
  0004c	c3		 ret	 0
$LN9@Allocate@2:
??$_Allocate@UForceInfo@@@std@@YAPAUForceInfo@@IPAU1@@Z ENDP ; std::_Allocate<ForceInfo>
_TEXT	ENDS
PUBLIC	??$_Destroy@UForceInfo@@@std@@YAXPAUForceInfo@@@Z ; std::_Destroy<ForceInfo>
; Function compile flags: /Ogsp
;	COMDAT ??$_Destroy@UForceInfo@@@std@@YAXPAUForceInfo@@@Z
_TEXT	SEGMENT
__Ptr$ = 8						; size = 4
??$_Destroy@UForceInfo@@@std@@YAXPAUForceInfo@@@Z PROC	; std::_Destroy<ForceInfo>, COMDAT

; 63   : 	_Ptr->~_Ty();
; 64   : 	}

  00000	c3		 ret	 0
??$_Destroy@UForceInfo@@@std@@YAXPAUForceInfo@@@Z ENDP	; std::_Destroy<ForceInfo>
_TEXT	ENDS
PUBLIC	??_GWeaponInfo@@QAEPAXI@Z			; WeaponInfo::`scalar deleting destructor'
; Function compile flags: /Ogsp
;	COMDAT ??_GWeaponInfo@@QAEPAXI@Z
_TEXT	SEGMENT
___flags$ = 8						; size = 4
??_GWeaponInfo@@QAEPAXI@Z PROC				; WeaponInfo::`scalar deleting destructor', COMDAT
; _this$ = ecx
  00000	55		 push	 ebp
  00001	8b ec		 mov	 ebp, esp
  00003	56		 push	 esi
  00004	8b f1		 mov	 esi, ecx
  00006	8d 4e 08	 lea	 ecx, DWORD PTR [esi+8]
  00009	ff 15 00 00 00
	00		 call	 DWORD PTR __imp_??1ioHashString@@QAE@XZ
  0000f	f6 45 08 01	 test	 BYTE PTR ___flags$[ebp], 1
  00013	74 07		 je	 SHORT $LN1@scalar@3
  00015	56		 push	 esi
  00016	e8 00 00 00 00	 call	 ??3@YAXPAX@Z		; operator delete
  0001b	59		 pop	 ecx
$LN1@scalar@3:
  0001c	8b c6		 mov	 eax, esi
  0001e	5e		 pop	 esi
  0001f	5d		 pop	 ebp
  00020	c2 04 00	 ret	 4
??_GWeaponInfo@@QAEPAXI@Z ENDP				; WeaponInfo::`scalar deleting destructor'
_TEXT	ENDS
PUBLIC	??0WeaponInfo@@QAE@ABU0@@Z			; WeaponInfo::WeaponInfo
EXTRN	__imp_??0ioHashString@@QAE@ABV0@@Z:PROC
; Function compile flags: /Ogsp
;	COMDAT ??0WeaponInfo@@QAE@ABU0@@Z
_TEXT	SEGMENT
___that$ = 8						; size = 4
??0WeaponInfo@@QAE@ABU0@@Z PROC				; WeaponInfo::WeaponInfo, COMDAT
; _this$ = ecx
  00000	55		 push	 ebp
  00001	8b ec		 mov	 ebp, esp
  00003	56		 push	 esi
  00004	57		 push	 edi
  00005	8b 7d 08	 mov	 edi, DWORD PTR ___that$[ebp]
  00008	8b 07		 mov	 eax, DWORD PTR [edi]
  0000a	8b f1		 mov	 esi, ecx
  0000c	89 06		 mov	 DWORD PTR [esi], eax
  0000e	8b 47 04	 mov	 eax, DWORD PTR [edi+4]
  00011	89 46 04	 mov	 DWORD PTR [esi+4], eax
  00014	8d 47 08	 lea	 eax, DWORD PTR [edi+8]
  00017	50		 push	 eax
  00018	8d 4e 08	 lea	 ecx, DWORD PTR [esi+8]
  0001b	ff 15 00 00 00
	00		 call	 DWORD PTR __imp_??0ioHashString@@QAE@ABV0@@Z
  00021	8b 47 18	 mov	 eax, DWORD PTR [edi+24]
  00024	89 46 18	 mov	 DWORD PTR [esi+24], eax
  00027	8b 47 1c	 mov	 eax, DWORD PTR [edi+28]
  0002a	89 46 1c	 mov	 DWORD PTR [esi+28], eax
  0002d	8a 47 20	 mov	 al, BYTE PTR [edi+32]
  00030	88 46 20	 mov	 BYTE PTR [esi+32], al
  00033	8b 47 24	 mov	 eax, DWORD PTR [edi+36]
  00036	89 46 24	 mov	 DWORD PTR [esi+36], eax
  00039	5f		 pop	 edi
  0003a	8b c6		 mov	 eax, esi
  0003c	5e		 pop	 esi
  0003d	5d		 pop	 ebp
  0003e	c2 04 00	 ret	 4
??0WeaponInfo@@QAE@ABU0@@Z ENDP				; WeaponInfo::WeaponInfo
_TEXT	ENDS
PUBLIC	__real@4f800000
PUBLIC	_pOwner$GSCopy$
PUBLIC	__$ArrayPad$
PUBLIC	?SetPowerChargeJumpAttack@ioPowerChargeJump@@QAE_NPAVioBaseChar@@@Z ; ioPowerChargeJump::SetPowerChargeJumpAttack
EXTRN	??1SP2Packet@@UAE@XZ:PROC			; SP2Packet::~SP2Packet
EXTRN	?SendToAllPlayingUser@P2PNetwork@@YAXAAVSP2Packet@@PAVioBaseChar@@@Z:PROC ; P2PNetwork::SendToAllPlayingUser
EXTRN	?FillAutoTargetInfo@ioBaseChar@@QAEXAAVSP2Packet@@@Z:PROC ; ioBaseChar::FillAutoTargetInfo
EXTRN	??6SP2Packet@@QAEAAV0@ABUD3DXQUATERNION@@@Z:PROC ; SP2Packet::operator<<
EXTRN	??6SP2Packet@@QAEAAV0@AAV?$CEncrypt@M@@@Z:PROC	; SP2Packet::operator<<
EXTRN	??6SP2Packet@@QAEAAV0@H@Z:PROC			; SP2Packet::operator<<
EXTRN	??6SP2Packet@@QAEAAV0@ABVioHashString@@@Z:PROC	; SP2Packet::operator<<
EXTRN	??0SP2Packet@@QAE@K@Z:PROC			; SP2Packet::SP2Packet
EXTRN	?SetJumpAttackState@ioBaseChar@@QAEXXZ:PROC	; ioBaseChar::SetJumpAttackState
EXTRN	?SetNoWoundState@ioBaseChar@@QAEX_N@Z:PROC	; ioBaseChar::SetNoWoundState
EXTRN	?SetAutoTargetTrackingEndTime@ioBaseChar@@QAEXK@Z:PROC ; ioBaseChar::SetAutoTargetTrackingEndTime
EXTRN	__imp_?SetActionAni@ioEntityGroup@@QAE_NHMMMMMM_N0@Z:PROC
EXTRN	__imp_?GetAnimationFullTime@ioEntityGroup@@QAEMH@Z:PROC
EXTRN	__imp_?GetAnimationIdx@ioEntityGroup@@QAEHABVioHashString@@@Z:PROC
EXTRN	?SetAutoTarget@ioBaseChar@@QAEXW4AutoTargetType@@@Z:PROC ; ioBaseChar::SetAutoTarget
EXTRN	__imp_?ClearAllActionAni@ioEntityGroup@@QAEXM_N@Z:PROC
EXTRN	__imp_?ClearAllLoopAni@ioEntityGroup@@QAEXM_N@Z:PROC
EXTRN	__imp_?GetLoopSec@ioFrameTimer@@QBEKXZ:PROC
EXTRN	__imp_?GetSingleton@ioFrameTimer@@SAAAV1@XZ:PROC
EXTRN	___security_cookie:DWORD
EXTRN	__chkstk:PROC
;	COMDAT __real@4f800000
; File d:\lost saga for developer\youtube\tutorial\source\src\lsclient\iobasechar.h
CONST	SEGMENT
__real@4f800000 DD 04f800000r			; 4.29497e+009
CONST	ENDS
;	COMDAT xdata$x
xdata$x	SEGMENT
__ehfuncinfo$?SetPowerChargeJumpAttack@ioPowerChargeJump@@QAE_NPAVioBaseChar@@@Z DD 019930522H
	DD	05H
	DD	FLAT:__unwindtable$?SetPowerChargeJumpAttack@ioPowerChargeJump@@QAE_NPAVioBaseChar@@@Z
	DD	2 DUP(00H)
	DD	2 DUP(00H)
	DD	00H
	DD	01H
__unwindtable$?SetPowerChargeJumpAttack@ioPowerChargeJump@@QAE_NPAVioBaseChar@@@Z DD 0ffffffffH
	DD	FLAT:__unwindfunclet$?SetPowerChargeJumpAttack@ioPowerChargeJump@@QAE_NPAVioBaseChar@@@Z$0
	DD	0ffffffffH
	DD	FLAT:__unwindfunclet$?SetPowerChargeJumpAttack@ioPowerChargeJump@@QAE_NPAVioBaseChar@@@Z$2
	DD	01H
	DD	FLAT:__unwindfunclet$?SetPowerChargeJumpAttack@ioPowerChargeJump@@QAE_NPAVioBaseChar@@@Z$3
	DD	02H
	DD	FLAT:__unwindfunclet$?SetPowerChargeJumpAttack@ioPowerChargeJump@@QAE_NPAVioBaseChar@@@Z$4
	DD	0ffffffffH
	DD	FLAT:__unwindfunclet$?SetPowerChargeJumpAttack@ioPowerChargeJump@@QAE_NPAVioBaseChar@@@Z$5
; Function compile flags: /Ogsp
; File d:\lost saga for developer\youtube\tutorial\source\src\lsclient\iopowerchargejump.cpp
xdata$x	ENDS
;	COMDAT ?SetPowerChargeJumpAttack@ioPowerChargeJump@@QAE_NPAVioBaseChar@@@Z
_TEXT	SEGMENT
$T527750 = -32876					; size = 16
$T527749 = -32860					; size = 16
$T527751 = -32844					; size = 16
tv132 = -32836						; size = 8
tv309 = -32832						; size = 4
tv304 = -32832						; size = 4
tv302 = -32832						; size = 4
tv300 = -32832						; size = 4
$T527747 = -32832					; size = 4
tv321 = -32828						; size = 4
$T527780 = -32828					; size = 4
_dwCurTime$ = -32824					; size = 4
tv306 = -32820						; size = 4
_fTimeRate$ = -32820					; size = 4
tv331 = -32816						; size = 4
tv326 = -32816						; size = 4
$T527748 = -32816					; size = 4
_iAniID$ = -32816					; size = 4
_pOwner$GSCopy$ = -32812				; size = 4
_kPacket$524000 = -32808				; size = 32792
__$ArrayPad$ = -16					; size = 4
__$EHRec$ = -12						; size = 12
_pOwner$ = 8						; size = 4
?SetPowerChargeJumpAttack@ioPowerChargeJump@@QAE_NPAVioBaseChar@@@Z PROC ; ioPowerChargeJump::SetPowerChargeJumpAttack, COMDAT
; _this$ = ecx

; 137  : {

  00000	55		 push	 ebp
  00001	8b ec		 mov	 ebp, esp
  00003	6a ff		 push	 -1
  00005	68 00 00 00 00	 push	 __ehhandler$?SetPowerChargeJumpAttack@ioPowerChargeJump@@QAE_NPAVioBaseChar@@@Z
  0000a	64 a1 00 00 00
	00		 mov	 eax, DWORD PTR fs:0
  00010	50		 push	 eax
  00011	b8 60 80 00 00	 mov	 eax, 32864		; 00008060H
  00016	e8 00 00 00 00	 call	 __chkstk
  0001b	a1 00 00 00 00	 mov	 eax, DWORD PTR ___security_cookie
  00020	33 c5		 xor	 eax, ebp
  00022	89 45 f0	 mov	 DWORD PTR __$ArrayPad$[ebp], eax
  00025	53		 push	 ebx
  00026	56		 push	 esi
  00027	57		 push	 edi
  00028	50		 push	 eax
  00029	8d 45 f4	 lea	 eax, DWORD PTR __$EHRec$[ebp]
  0002c	64 a3 00 00 00
	00		 mov	 DWORD PTR fs:0, eax
  00032	8b 45 08	 mov	 eax, DWORD PTR _pOwner$[ebp]
  00035	8b d9		 mov	 ebx, ecx

; 171  : 	{
; 172  : 		SP2Packet kPacket( CUPK_EXTEND_JUMP );

  00037	89 85 d4 7f ff
	ff		 mov	 DWORD PTR _pOwner$GSCopy$[ebp], eax
  0003d	85 c0		 test	 eax, eax
  0003f	75 07		 jne	 SHORT $LN3@SetPowerCh
$LN40@SetPowerCh:

; 138  : 	if( !pOwner ) return false;

  00041	32 c0		 xor	 al, al
  00043	e9 3c 03 00 00	 jmp	 $LN4@SetPowerCh
$LN3@SetPowerCh:

; 139  : 
; 140  : 	ioEntityGroup *pGrp = pOwner->GetGroup();

  00048	8b 70 04	 mov	 esi, DWORD PTR [eax+4]

; 141  : 	if( !pGrp ) return false;

  0004b	85 f6		 test	 esi, esi
  0004d	74 f2		 je	 SHORT $LN40@SetPowerCh

; 142  : 
; 143  : 	DWORD dwDelayTime = 0;
; 144  : 	DWORD dwCurTime = FRAMEGETTIME();

  0004f	ff 15 00 00 00
	00		 call	 DWORD PTR __imp_?GetSingleton@ioFrameTimer@@SAAAV1@XZ
  00055	8b c8		 mov	 ecx, eax
  00057	ff 15 00 00 00
	00		 call	 DWORD PTR __imp_?GetLoopSec@ioFrameTimer@@QBEKXZ
  0005d	89 85 c8 7f ff
	ff		 mov	 DWORD PTR _dwCurTime$[ebp], eax

; 145  : 
; 146  : 	pGrp->ClearAllLoopAni( FLOAT100, true );

  00063	b8 64 00 00 00	 mov	 eax, 100		; 00000064H
  00068	33 ff		 xor	 edi, edi
  0006a	47		 inc	 edi
  0006b	89 85 d0 7f ff
	ff		 mov	 DWORD PTR tv331[ebp], eax
  00071	db 85 d0 7f ff
	ff		 fild	 DWORD PTR tv331[ebp]
  00077	57		 push	 edi
  00078	85 c0		 test	 eax, eax
  0007a	79 06		 jns	 SHORT $LN33@SetPowerCh
  0007c	d8 05 00 00 00
	00		 fadd	 DWORD PTR __real@4f800000
$LN33@SetPowerCh:
  00082	51		 push	 ecx
  00083	8b ce		 mov	 ecx, esi
  00085	d9 1c 24	 fstp	 DWORD PTR [esp]
  00088	ff 15 00 00 00
	00		 call	 DWORD PTR __imp_?ClearAllLoopAni@ioEntityGroup@@QAEXM_N@Z

; 147  : 	pGrp->ClearAllActionAni( FLOAT100, true );

  0008e	b8 64 00 00 00	 mov	 eax, 100		; 00000064H
  00093	89 85 d0 7f ff
	ff		 mov	 DWORD PTR tv326[ebp], eax
  00099	db 85 d0 7f ff
	ff		 fild	 DWORD PTR tv326[ebp]
  0009f	57		 push	 edi
  000a0	85 c0		 test	 eax, eax
  000a2	79 06		 jns	 SHORT $LN34@SetPowerCh
  000a4	d8 05 00 00 00
	00		 fadd	 DWORD PTR __real@4f800000
$LN34@SetPowerCh:
  000aa	51		 push	 ecx
  000ab	8b ce		 mov	 ecx, esi
  000ad	d9 1c 24	 fstp	 DWORD PTR [esp]
  000b0	ff 15 00 00 00
	00		 call	 DWORD PTR __imp_?ClearAllActionAni@ioEntityGroup@@QAEXM_N@Z

; 148  : 
; 149  : 	pOwner->SetAutoTarget( ATT_JUMP );

  000b6	8b 8d d4 7f ff
	ff		 mov	 ecx, DWORD PTR _pOwner$GSCopy$[ebp]
  000bc	6a 03		 push	 3
  000be	e8 00 00 00 00	 call	 ?SetAutoTarget@ioBaseChar@@QAEXW4AutoTargetType@@@Z ; ioBaseChar::SetAutoTarget

; 150  : 
; 151  : 	int iAniID = pGrp->GetAnimationIdx( m_szChargingAni );

  000c3	8d 83 24 02 00
	00		 lea	 eax, DWORD PTR [ebx+548]
  000c9	50		 push	 eax
  000ca	8b ce		 mov	 ecx, esi
  000cc	ff 15 00 00 00
	00		 call	 DWORD PTR __imp_?GetAnimationIdx@ioEntityGroup@@QAEHABVioHashString@@@Z

; 152  : 	float fTimeRate = (float)m_dwChargingTime / pGrp->GetAnimationFullTime( iAniID );

  000d2	db 83 20 02 00
	00		 fild	 DWORD PTR [ebx+544]
  000d8	8b 8b 20 02 00
	00		 mov	 ecx, DWORD PTR [ebx+544]
  000de	89 85 d0 7f ff
	ff		 mov	 DWORD PTR _iAniID$[ebp], eax
  000e4	85 c9		 test	 ecx, ecx
  000e6	79 06		 jns	 SHORT $LN35@SetPowerCh
  000e8	d8 05 00 00 00
	00		 fadd	 DWORD PTR __real@4f800000
$LN35@SetPowerCh:
  000ee	50		 push	 eax
  000ef	dd 9d bc 7f ff
	ff		 fstp	 QWORD PTR tv132[ebp]
  000f5	8b ce		 mov	 ecx, esi
  000f7	ff 15 00 00 00
	00		 call	 DWORD PTR __imp_?GetAnimationFullTime@ioEntityGroup@@QAEMH@Z
  000fd	dc bd bc 7f ff
	ff		 fdivr	 QWORD PTR tv132[ebp]
  00103	d9 9d cc 7f ff
	ff		 fstp	 DWORD PTR _fTimeRate$[ebp]

; 153  : 	pGrp->SetActionAni( iAniID, FLOAT100, FLOAT100, FLOAT1, FLOAT1/fTimeRate, 0.0f, 0.0f, true );

  00109	b8 01 00 00 00	 mov	 eax, 1
  0010e	8b c8		 mov	 ecx, eax
  00110	b8 01 00 00 00	 mov	 eax, 1
  00115	8b d0		 mov	 edx, eax
  00117	b8 64 00 00 00	 mov	 eax, 100		; 00000064H
  0011c	89 85 c4 7f ff
	ff		 mov	 DWORD PTR $T527780[ebp], eax
  00122	b8 64 00 00 00	 mov	 eax, 100		; 00000064H
  00127	0f 57 c0	 xorps	 xmm0, xmm0
  0012a	57		 push	 edi
  0012b	57		 push	 edi
  0012c	83 ec 18	 sub	 esp, 24			; 00000018H
  0012f	f3 0f 11 44 24
	14		 movss	 DWORD PTR [esp+20], xmm0
  00135	89 8d c0 7f ff
	ff		 mov	 DWORD PTR tv309[ebp], ecx
  0013b	db 85 c0 7f ff
	ff		 fild	 DWORD PTR tv309[ebp]
  00141	f3 0f 11 44 24
	10		 movss	 DWORD PTR [esp+16], xmm0
  00147	85 c9		 test	 ecx, ecx
  00149	79 06		 jns	 SHORT $LN36@SetPowerCh
  0014b	d8 05 00 00 00
	00		 fadd	 DWORD PTR __real@4f800000
$LN36@SetPowerCh:
  00151	d8 b5 cc 7f ff
	ff		 fdiv	 DWORD PTR _fTimeRate$[ebp]
  00157	89 95 c0 7f ff
	ff		 mov	 DWORD PTR tv304[ebp], edx
  0015d	d9 9d cc 7f ff
	ff		 fstp	 DWORD PTR tv306[ebp]
  00163	d9 85 cc 7f ff
	ff		 fld	 DWORD PTR tv306[ebp]
  00169	d9 5c 24 0c	 fstp	 DWORD PTR [esp+12]
  0016d	db 85 c0 7f ff
	ff		 fild	 DWORD PTR tv304[ebp]
  00173	85 d2		 test	 edx, edx
  00175	79 06		 jns	 SHORT $LN37@SetPowerCh
  00177	d8 05 00 00 00
	00		 fadd	 DWORD PTR __real@4f800000
$LN37@SetPowerCh:
  0017d	8b 8d c4 7f ff
	ff		 mov	 ecx, DWORD PTR $T527780[ebp]
  00183	d9 5c 24 08	 fstp	 DWORD PTR [esp+8]
  00187	db 85 c4 7f ff
	ff		 fild	 DWORD PTR $T527780[ebp]
  0018d	85 c9		 test	 ecx, ecx
  0018f	79 06		 jns	 SHORT $LN38@SetPowerCh
  00191	d8 05 00 00 00
	00		 fadd	 DWORD PTR __real@4f800000
$LN38@SetPowerCh:
  00197	d9 5c 24 04	 fstp	 DWORD PTR [esp+4]
  0019b	89 85 c0 7f ff
	ff		 mov	 DWORD PTR tv300[ebp], eax
  001a1	db 85 c0 7f ff
	ff		 fild	 DWORD PTR tv300[ebp]
  001a7	85 c0		 test	 eax, eax
  001a9	79 06		 jns	 SHORT $LN39@SetPowerCh
  001ab	d8 05 00 00 00
	00		 fadd	 DWORD PTR __real@4f800000
$LN39@SetPowerCh:
  001b1	d9 1c 24	 fstp	 DWORD PTR [esp]
  001b4	ff b5 d0 7f ff
	ff		 push	 DWORD PTR _iAniID$[ebp]
  001ba	8b ce		 mov	 ecx, esi
  001bc	ff 15 00 00 00
	00		 call	 DWORD PTR __imp_?SetActionAni@ioEntityGroup@@QAE_NHMMMMMM_N0@Z

; 154  : 
; 155  : 	pOwner->SetAutoTargetTrackingEndTime( dwCurTime );

  001c2	ff b5 c8 7f ff
	ff		 push	 DWORD PTR _dwCurTime$[ebp]
  001c8	8b 8d d4 7f ff
	ff		 mov	 ecx, DWORD PTR _pOwner$GSCopy$[ebp]
  001ce	e8 00 00 00 00	 call	 ?SetAutoTargetTrackingEndTime@ioBaseChar@@QAEXK@Z ; ioBaseChar::SetAutoTargetTrackingEndTime

; 156  : 
; 157  : 	m_bUseExtendJump = true;
; 158  : 	m_bUseExtendJumpAttack = false;
; 159  : 
; 160  : 	pOwner->SetEnableHide( false );

  001d3	8b 35 00 00 00
	00		 mov	 esi, DWORD PTR __imp_??0ioHashString@@QAE@PBD@Z
  001d9	83 ec 10	 sub	 esp, 16			; 00000010H
  001dc	8b cc		 mov	 ecx, esp
  001de	89 a5 c0 7f ff
	ff		 mov	 DWORD PTR $T527747[ebp], esp
  001e4	bf 00 00 00 00	 mov	 edi, OFFSET ??_C@_00CNPNBAHC@?$AA@
  001e9	57		 push	 edi
  001ea	c6 43 10 01	 mov	 BYTE PTR [ebx+16], 1
  001ee	c6 83 19 02 00
	00 00		 mov	 BYTE PTR [ebx+537], 0
  001f5	ff d6		 call	 esi
  001f7	83 65 fc 00	 and	 DWORD PTR __$EHRec$[ebp+8], 0
  001fb	83 ec 10	 sub	 esp, 16			; 00000010H
  001fe	8b cc		 mov	 ecx, esp
  00200	89 a5 d0 7f ff
	ff		 mov	 DWORD PTR $T527748[ebp], esp
  00206	57		 push	 edi
  00207	ff d6		 call	 esi
  00209	8b 8d d4 7f ff
	ff		 mov	 ecx, DWORD PTR _pOwner$GSCopy$[ebp]
  0020f	83 4d fc ff	 or	 DWORD PTR __$EHRec$[ebp+8], -1
  00213	6a 00		 push	 0
  00215	e8 00 00 00 00	 call	 ?SetEnableHide@ioBaseChar@@QAEX_NVioHashString@@1@Z ; ioBaseChar::SetEnableHide

; 161  : 	pOwner->SetNoWoundState( false );

  0021a	8b 8d d4 7f ff
	ff		 mov	 ecx, DWORD PTR _pOwner$GSCopy$[ebp]
  00220	6a 00		 push	 0
  00222	e8 00 00 00 00	 call	 ?SetNoWoundState@ioBaseChar@@QAEX_N@Z ; ioBaseChar::SetNoWoundState

; 162  : 	pOwner->SetEnableChangeTeam( false );

  00227	8b 8d d4 7f ff
	ff		 mov	 ecx, DWORD PTR _pOwner$GSCopy$[ebp]
  0022d	6a 00		 push	 0
  0022f	e8 00 00 00 00	 call	 ?SetEnableChangeTeam@ioBaseChar@@QAEX_N@Z ; ioBaseChar::SetEnableChangeTeam

; 163  : 
; 164  : 	pOwner->SetChangeJumpMotion( false, "", "", "", 0.0f );

  00234	57		 push	 edi
  00235	8d 8d a4 7f ff
	ff		 lea	 ecx, DWORD PTR $T527749[ebp]
  0023b	ff d6		 call	 esi
  0023d	57		 push	 edi
  0023e	8d 8d 94 7f ff
	ff		 lea	 ecx, DWORD PTR $T527750[ebp]
  00244	c7 45 fc 01 00
	00 00		 mov	 DWORD PTR __$EHRec$[ebp+8], 1
  0024b	ff d6		 call	 esi
  0024d	57		 push	 edi
  0024e	8d 8d b4 7f ff
	ff		 lea	 ecx, DWORD PTR $T527751[ebp]
  00254	c6 45 fc 02	 mov	 BYTE PTR __$EHRec$[ebp+8], 2
  00258	ff d6		 call	 esi
  0025a	0f 57 c0	 xorps	 xmm0, xmm0
  0025d	8b bd d4 7f ff
	ff		 mov	 edi, DWORD PTR _pOwner$GSCopy$[ebp]
  00263	51		 push	 ecx
  00264	f3 0f 11 04 24	 movss	 DWORD PTR [esp], xmm0
  00269	8d 85 a4 7f ff
	ff		 lea	 eax, DWORD PTR $T527749[ebp]
  0026f	50		 push	 eax
  00270	8d 85 94 7f ff
	ff		 lea	 eax, DWORD PTR $T527750[ebp]
  00276	50		 push	 eax
  00277	8d 85 b4 7f ff
	ff		 lea	 eax, DWORD PTR $T527751[ebp]
  0027d	50		 push	 eax
  0027e	6a 00		 push	 0
  00280	8b cf		 mov	 ecx, edi
  00282	c6 45 fc 03	 mov	 BYTE PTR __$EHRec$[ebp+8], 3
  00286	e8 00 00 00 00	 call	 ?SetChangeJumpMotion@ioBaseChar@@QAEX_NABVioHashString@@11M@Z ; ioBaseChar::SetChangeJumpMotion
  0028b	8b 35 00 00 00
	00		 mov	 esi, DWORD PTR __imp_??1ioHashString@@QAE@XZ
  00291	8d 8d b4 7f ff
	ff		 lea	 ecx, DWORD PTR $T527751[ebp]
  00297	c6 45 fc 02	 mov	 BYTE PTR __$EHRec$[ebp+8], 2
  0029b	ff d6		 call	 esi
  0029d	8d 8d 94 7f ff
	ff		 lea	 ecx, DWORD PTR $T527750[ebp]
  002a3	c6 45 fc 01	 mov	 BYTE PTR __$EHRec$[ebp+8], 1
  002a7	ff d6		 call	 esi
  002a9	83 4d fc ff	 or	 DWORD PTR __$EHRec$[ebp+8], -1
  002ad	8d 8d a4 7f ff
	ff		 lea	 ecx, DWORD PTR $T527749[ebp]
  002b3	ff d6		 call	 esi

; 165  : 	pOwner->SetJumpAttackState();

  002b5	8b cf		 mov	 ecx, edi
  002b7	e8 00 00 00 00	 call	 ?SetJumpAttackState@ioBaseChar@@QAEXXZ ; ioBaseChar::SetJumpAttackState

; 166  : 
; 167  : 	m_JumpState = PJS_CHARGING;
; 168  : 	m_dwChargingStartTime = dwCurTime;

  002bc	8b 85 c8 7f ff
	ff		 mov	 eax, DWORD PTR _dwCurTime$[ebp]
  002c2	c7 83 24 01 00
	00 01 00 00 00	 mov	 DWORD PTR [ebx+292], 1
  002cc	89 83 1c 02 00
	00		 mov	 DWORD PTR [ebx+540], eax

; 169  : 
; 170  : 	if( pOwner->IsNeedSendNetwork() )

  002d2	8b 07		 mov	 eax, DWORD PTR [edi]
  002d4	8b cf		 mov	 ecx, edi
  002d6	ff 90 04 01 00
	00		 call	 DWORD PTR [eax+260]
  002dc	84 c0		 test	 al, al
  002de	0f 84 9e 00 00
	00		 je	 $LN1@SetPowerCh

; 171  : 	{
; 172  : 		SP2Packet kPacket( CUPK_EXTEND_JUMP );

  002e4	68 46 41 00 00	 push	 16710			; 00004146H
  002e9	8d 8d d8 7f ff
	ff		 lea	 ecx, DWORD PTR _kPacket$524000[ebp]
  002ef	e8 00 00 00 00	 call	 ??0SP2Packet@@QAE@K@Z	; SP2Packet::SP2Packet

; 173  : 		kPacket << pOwner->GetCharName();

  002f4	8d 87 d4 02 00
	00		 lea	 eax, DWORD PTR [edi+724]
  002fa	50		 push	 eax
  002fb	8d 8d d8 7f ff
	ff		 lea	 ecx, DWORD PTR _kPacket$524000[ebp]
  00301	c7 45 fc 04 00
	00 00		 mov	 DWORD PTR __$EHRec$[ebp+8], 4
  00308	e8 00 00 00 00	 call	 ??6SP2Packet@@QAEAAV0@ABVioHashString@@@Z ; SP2Packet::operator<<

; 174  : 		kPacket << (int)GetType();

  0030d	8b 03		 mov	 eax, DWORD PTR [ebx]
  0030f	8b cb		 mov	 ecx, ebx
  00311	ff 50 08	 call	 DWORD PTR [eax+8]
  00314	50		 push	 eax
  00315	8d 8d d8 7f ff
	ff		 lea	 ecx, DWORD PTR _kPacket$524000[ebp]
  0031b	e8 00 00 00 00	 call	 ??6SP2Packet@@QAEAAV0@H@Z ; SP2Packet::operator<<

; 175  : 		kPacket << pOwner->GetHP().m_fCurValue;

  00320	8d 87 c0 00 00
	00		 lea	 eax, DWORD PTR [edi+192]
  00326	50		 push	 eax
  00327	8d 8d d8 7f ff
	ff		 lea	 ecx, DWORD PTR _kPacket$524000[ebp]
  0032d	e8 00 00 00 00	 call	 ??6SP2Packet@@QAEAAV0@AAV?$CEncrypt@M@@@Z ; SP2Packet::operator<<

; 176  : 		kPacket << (int)m_JumpState;

  00332	ff b3 24 01 00
	00		 push	 DWORD PTR [ebx+292]
  00338	8d 8d d8 7f ff
	ff		 lea	 ecx, DWORD PTR _kPacket$524000[ebp]
  0033e	e8 00 00 00 00	 call	 ??6SP2Packet@@QAEAAV0@H@Z ; SP2Packet::operator<<

; 177  : 		kPacket << pOwner->GetTargetRot();

  00343	8d 87 a4 06 00
	00		 lea	 eax, DWORD PTR [edi+1700]
  00349	50		 push	 eax
  0034a	8d 8d d8 7f ff
	ff		 lea	 ecx, DWORD PTR _kPacket$524000[ebp]
  00350	e8 00 00 00 00	 call	 ??6SP2Packet@@QAEAAV0@ABUD3DXQUATERNION@@@Z ; SP2Packet::operator<<

; 178  : 		pOwner->FillAutoTargetInfo( kPacket );

  00355	8d 85 d8 7f ff
	ff		 lea	 eax, DWORD PTR _kPacket$524000[ebp]
  0035b	50		 push	 eax
  0035c	8b cf		 mov	 ecx, edi
  0035e	e8 00 00 00 00	 call	 ?FillAutoTargetInfo@ioBaseChar@@QAEXAAVSP2Packet@@@Z ; ioBaseChar::FillAutoTargetInfo

; 179  : 		P2PNetwork::SendToAllPlayingUser( kPacket );

  00363	8d 85 d8 7f ff
	ff		 lea	 eax, DWORD PTR _kPacket$524000[ebp]
  00369	6a 00		 push	 0
  0036b	50		 push	 eax
  0036c	e8 00 00 00 00	 call	 ?SendToAllPlayingUser@P2PNetwork@@YAXAAVSP2Packet@@PAVioBaseChar@@@Z ; P2PNetwork::SendToAllPlayingUser

; 180  : 	}

  00371	83 4d fc ff	 or	 DWORD PTR __$EHRec$[ebp+8], -1
  00375	59		 pop	 ecx
  00376	59		 pop	 ecx
  00377	8d 8d d8 7f ff
	ff		 lea	 ecx, DWORD PTR _kPacket$524000[ebp]
  0037d	e8 00 00 00 00	 call	 ??1SP2Packet@@UAE@XZ	; SP2Packet::~SP2Packet
$LN1@SetPowerCh:

; 181  : 
; 182  : 	return true;

  00382	b0 01		 mov	 al, 1
$LN4@SetPowerCh:

; 183  : }

  00384	8b 4d f4	 mov	 ecx, DWORD PTR __$EHRec$[ebp]
  00387	64 89 0d 00 00
	00 00		 mov	 DWORD PTR fs:0, ecx
  0038e	59		 pop	 ecx
  0038f	5f		 pop	 edi
  00390	5e		 pop	 esi
  00391	5b		 pop	 ebx
  00392	8b 4d f0	 mov	 ecx, DWORD PTR __$ArrayPad$[ebp]
  00395	33 cd		 xor	 ecx, ebp
  00397	e8 00 00 00 00	 call	 @__security_check_cookie@4
  0039c	c9		 leave
  0039d	c2 04 00	 ret	 4
_TEXT	ENDS
;	COMDAT text$x
text$x	SEGMENT
__unwindfunclet$?SetPowerChargeJumpAttack@ioPowerChargeJump@@QAE_NPAVioBaseChar@@@Z$0:
  00000	8b 8d c0 7f ff
	ff		 mov	 ecx, DWORD PTR $T527747[ebp]
  00006	ff 25 00 00 00
	00		 jmp	 DWORD PTR __imp_??1ioHashString@@QAE@XZ
__unwindfunclet$?SetPowerChargeJumpAttack@ioPowerChargeJump@@QAE_NPAVioBaseChar@@@Z$2:
  0000c	8d 8d a4 7f ff
	ff		 lea	 ecx, DWORD PTR $T527749[ebp]
  00012	ff 25 00 00 00
	00		 jmp	 DWORD PTR __imp_??1ioHashString@@QAE@XZ
__unwindfunclet$?SetPowerChargeJumpAttack@ioPowerChargeJump@@QAE_NPAVioBaseChar@@@Z$3:
  00018	8d 8d 94 7f ff
	ff		 lea	 ecx, DWORD PTR $T527750[ebp]
  0001e	ff 25 00 00 00
	00		 jmp	 DWORD PTR __imp_??1ioHashString@@QAE@XZ
__unwindfunclet$?SetPowerChargeJumpAttack@ioPowerChargeJump@@QAE_NPAVioBaseChar@@@Z$4:
  00024	8d 8d b4 7f ff
	ff		 lea	 ecx, DWORD PTR $T527751[ebp]
  0002a	ff 25 00 00 00
	00		 jmp	 DWORD PTR __imp_??1ioHashString@@QAE@XZ
__unwindfunclet$?SetPowerChargeJumpAttack@ioPowerChargeJump@@QAE_NPAVioBaseChar@@@Z$5:
  00030	8d 8d d8 7f ff
	ff		 lea	 ecx, DWORD PTR _kPacket$524000[ebp]
  00036	e9 00 00 00 00	 jmp	 ??1SP2Packet@@UAE@XZ	; SP2Packet::~SP2Packet
__ehhandler$?SetPowerChargeJumpAttack@ioPowerChargeJump@@QAE_NPAVioBaseChar@@@Z:
  0003b	8b 54 24 08	 mov	 edx, DWORD PTR [esp+8]
  0003f	8d 42 0c	 lea	 eax, DWORD PTR [edx+12]
  00042	8b 8a 90 7f ff
	ff		 mov	 ecx, DWORD PTR [edx-32880]
  00048	33 c8		 xor	 ecx, eax
  0004a	e8 00 00 00 00	 call	 @__security_check_cookie@4
  0004f	8b 4a fc	 mov	 ecx, DWORD PTR [edx-4]
  00052	33 c8		 xor	 ecx, eax
  00054	e8 00 00 00 00	 call	 @__security_check_cookie@4
  00059	b8 00 00 00 00	 mov	 eax, OFFSET __ehfuncinfo$?SetPowerChargeJumpAttack@ioPowerChargeJump@@QAE_NPAVioBaseChar@@@Z
  0005e	e9 00 00 00 00	 jmp	 ___CxxFrameHandler3
text$x	ENDS
?SetPowerChargeJumpAttack@ioPowerChargeJump@@QAE_NPAVioBaseChar@@@Z ENDP ; ioPowerChargeJump::SetPowerChargeJumpAttack
PUBLIC	__real@3f800000
PUBLIC	__$ArrayPad$
PUBLIC	?ChangeToGathering@ioPowerChargeJump@@IAEXPAVioBaseChar@@@Z ; ioPowerChargeJump::ChangeToGathering
EXTRN	__imp_?SetLoopAni@ioEntityGroup@@QAE_NHMMMM@Z:PROC
;	COMDAT __real@3f800000
; File d:\lost saga for developer\youtube\tutorial\source\src\lsclient\ioplayentity.h
CONST	SEGMENT
__real@3f800000 DD 03f800000r			; 1
CONST	ENDS
;	COMDAT xdata$x
xdata$x	SEGMENT
__unwindtable$?ChangeToGathering@ioPowerChargeJump@@IAEXPAVioBaseChar@@@Z DD 0ffffffffH
	DD	FLAT:__unwindfunclet$?ChangeToGathering@ioPowerChargeJump@@IAEXPAVioBaseChar@@@Z$0
__ehfuncinfo$?ChangeToGathering@ioPowerChargeJump@@IAEXPAVioBaseChar@@@Z DD 019930522H
	DD	01H
	DD	FLAT:__unwindtable$?ChangeToGathering@ioPowerChargeJump@@IAEXPAVioBaseChar@@@Z
	DD	2 DUP(00H)
	DD	2 DUP(00H)
	DD	00H
	DD	01H
; Function compile flags: /Ogsp
; File d:\lost saga for developer\youtube\tutorial\source\src\lsclient\iopowerchargejump.cpp
xdata$x	ENDS
;	COMDAT ?ChangeToGathering@ioPowerChargeJump@@IAEXPAVioBaseChar@@@Z
_TEXT	SEGMENT
_iAniID$ = -32816					; size = 4
tv215 = -32812						; size = 4
tv210 = -32812						; size = 4
tv205 = -32812						; size = 4
_kPacket$524046 = -32808				; size = 32792
__$ArrayPad$ = -16					; size = 4
__$EHRec$ = -12						; size = 12
_pOwner$ = 8						; size = 4
?ChangeToGathering@ioPowerChargeJump@@IAEXPAVioBaseChar@@@Z PROC ; ioPowerChargeJump::ChangeToGathering, COMDAT
; _this$ = ecx

; 243  : {

  00000	55		 push	 ebp
  00001	8b ec		 mov	 ebp, esp
  00003	6a ff		 push	 -1
  00005	68 00 00 00 00	 push	 __ehhandler$?ChangeToGathering@ioPowerChargeJump@@IAEXPAVioBaseChar@@@Z
  0000a	64 a1 00 00 00
	00		 mov	 eax, DWORD PTR fs:0
  00010	50		 push	 eax
  00011	b8 24 80 00 00	 mov	 eax, 32804		; 00008024H
  00016	e8 00 00 00 00	 call	 __chkstk
  0001b	a1 00 00 00 00	 mov	 eax, DWORD PTR ___security_cookie
  00020	33 c5		 xor	 eax, ebp
  00022	89 45 f0	 mov	 DWORD PTR __$ArrayPad$[ebp], eax
  00025	53		 push	 ebx
  00026	56		 push	 esi
  00027	57		 push	 edi
  00028	50		 push	 eax
  00029	8d 45 f4	 lea	 eax, DWORD PTR __$EHRec$[ebp]
  0002c	64 a3 00 00 00
	00		 mov	 DWORD PTR fs:0, eax
  00032	8b 75 08	 mov	 esi, DWORD PTR _pOwner$[ebp]

; 244  : 	ioEntityGroup *pGrp = pOwner->GetGroup();

  00035	8b 5e 04	 mov	 ebx, DWORD PTR [esi+4]
  00038	8b f9		 mov	 edi, ecx

; 245  : 	if( !pGrp ) return;

  0003a	85 db		 test	 ebx, ebx
  0003c	0f 84 46 01 00
	00		 je	 $LN1@ChangeToGa

; 246  : 
; 247  : 	int iAniID = pGrp->GetAnimationIdx( m_szGahteringAni );

  00042	8d 87 34 02 00
	00		 lea	 eax, DWORD PTR [edi+564]
  00048	50		 push	 eax
  00049	8b cb		 mov	 ecx, ebx
  0004b	ff 15 00 00 00
	00		 call	 DWORD PTR __imp_?GetAnimationIdx@ioEntityGroup@@QAEHABVioHashString@@@Z
  00051	89 85 d0 7f ff
	ff		 mov	 DWORD PTR _iAniID$[ebp], eax

; 248  : 
; 249  : 	pGrp->ClearAllActionAni( FLOAT100, true );

  00057	b8 64 00 00 00	 mov	 eax, 100		; 00000064H
  0005c	89 85 d4 7f ff
	ff		 mov	 DWORD PTR tv215[ebp], eax
  00062	db 85 d4 7f ff
	ff		 fild	 DWORD PTR tv215[ebp]
  00068	6a 01		 push	 1
  0006a	85 c0		 test	 eax, eax
  0006c	79 06		 jns	 SHORT $LN19@ChangeToGa
  0006e	d8 05 00 00 00
	00		 fadd	 DWORD PTR __real@4f800000
$LN19@ChangeToGa:
  00074	51		 push	 ecx
  00075	8b cb		 mov	 ecx, ebx
  00077	d9 1c 24	 fstp	 DWORD PTR [esp]
  0007a	ff 15 00 00 00
	00		 call	 DWORD PTR __imp_?ClearAllActionAni@ioEntityGroup@@QAEXM_N@Z

; 250  : 	pGrp->ClearAllLoopAni( FLOAT100, true );

  00080	b8 64 00 00 00	 mov	 eax, 100		; 00000064H
  00085	89 85 d4 7f ff
	ff		 mov	 DWORD PTR tv210[ebp], eax
  0008b	db 85 d4 7f ff
	ff		 fild	 DWORD PTR tv210[ebp]
  00091	6a 01		 push	 1
  00093	85 c0		 test	 eax, eax
  00095	79 06		 jns	 SHORT $LN20@ChangeToGa
  00097	d8 05 00 00 00
	00		 fadd	 DWORD PTR __real@4f800000
$LN20@ChangeToGa:
  0009d	51		 push	 ecx
  0009e	8b cb		 mov	 ecx, ebx
  000a0	d9 1c 24	 fstp	 DWORD PTR [esp]
  000a3	ff 15 00 00 00
	00		 call	 DWORD PTR __imp_?ClearAllLoopAni@ioEntityGroup@@QAEXM_N@Z

; 251  : 
; 252  : 	pGrp->SetLoopAni( iAniID, FLOAT100 );

  000a9	b8 64 00 00 00	 mov	 eax, 100		; 00000064H
  000ae	0f 57 c0	 xorps	 xmm0, xmm0
  000b1	83 ec 10	 sub	 esp, 16			; 00000010H
  000b4	f3 0f 11 44 24
	0c		 movss	 DWORD PTR [esp+12], xmm0
  000ba	f3 0f 10 05 00
	00 00 00	 movss	 xmm0, DWORD PTR __real@3f800000
  000c2	89 85 d4 7f ff
	ff		 mov	 DWORD PTR tv205[ebp], eax
  000c8	db 85 d4 7f ff
	ff		 fild	 DWORD PTR tv205[ebp]
  000ce	f3 0f 11 44 24
	08		 movss	 DWORD PTR [esp+8], xmm0
  000d4	f3 0f 11 44 24
	04		 movss	 DWORD PTR [esp+4], xmm0
  000da	85 c0		 test	 eax, eax
  000dc	79 06		 jns	 SHORT $LN21@ChangeToGa
  000de	d8 05 00 00 00
	00		 fadd	 DWORD PTR __real@4f800000
$LN21@ChangeToGa:
  000e4	d9 1c 24	 fstp	 DWORD PTR [esp]
  000e7	ff b5 d0 7f ff
	ff		 push	 DWORD PTR _iAniID$[ebp]
  000ed	8b cb		 mov	 ecx, ebx
  000ef	ff 15 00 00 00
	00		 call	 DWORD PTR __imp_?SetLoopAni@ioEntityGroup@@QAE_NHMMMM@Z

; 253  : 
; 254  : 	m_JumpState = PJS_GATHERING;

  000f5	c7 87 24 01 00
	00 02 00 00 00	 mov	 DWORD PTR [edi+292], 2

; 255  : 
; 256  : 	if( pOwner->IsNeedSendNetwork() )

  000ff	8b 06		 mov	 eax, DWORD PTR [esi]
  00101	8b ce		 mov	 ecx, esi
  00103	ff 90 04 01 00
	00		 call	 DWORD PTR [eax+260]
  00109	84 c0		 test	 al, al
  0010b	74 7b		 je	 SHORT $LN1@ChangeToGa

; 257  : 	{
; 258  : 		SP2Packet kPacket( CUPK_EXTEND_JUMP );

  0010d	68 46 41 00 00	 push	 16710			; 00004146H
  00112	8d 8d d8 7f ff
	ff		 lea	 ecx, DWORD PTR _kPacket$524046[ebp]
  00118	e8 00 00 00 00	 call	 ??0SP2Packet@@QAE@K@Z	; SP2Packet::SP2Packet
  0011d	83 65 fc 00	 and	 DWORD PTR __$EHRec$[ebp+8], 0

; 259  : 		kPacket << pOwner->GetCharName();

  00121	8d 86 d4 02 00
	00		 lea	 eax, DWORD PTR [esi+724]
  00127	50		 push	 eax
  00128	8d 8d d8 7f ff
	ff		 lea	 ecx, DWORD PTR _kPacket$524046[ebp]
  0012e	e8 00 00 00 00	 call	 ??6SP2Packet@@QAEAAV0@ABVioHashString@@@Z ; SP2Packet::operator<<

; 260  : 		kPacket << (int)GetType();

  00133	8b 07		 mov	 eax, DWORD PTR [edi]
  00135	8b cf		 mov	 ecx, edi
  00137	ff 50 08	 call	 DWORD PTR [eax+8]
  0013a	50		 push	 eax
  0013b	8d 8d d8 7f ff
	ff		 lea	 ecx, DWORD PTR _kPacket$524046[ebp]
  00141	e8 00 00 00 00	 call	 ??6SP2Packet@@QAEAAV0@H@Z ; SP2Packet::operator<<

; 261  : 		kPacket << pOwner->GetHP().m_fCurValue;

  00146	81 c6 c0 00 00
	00		 add	 esi, 192		; 000000c0H
  0014c	56		 push	 esi
  0014d	8d 8d d8 7f ff
	ff		 lea	 ecx, DWORD PTR _kPacket$524046[ebp]
  00153	e8 00 00 00 00	 call	 ??6SP2Packet@@QAEAAV0@AAV?$CEncrypt@M@@@Z ; SP2Packet::operator<<

; 262  : 		kPacket << (int)m_JumpState;

  00158	ff b7 24 01 00
	00		 push	 DWORD PTR [edi+292]
  0015e	8d 8d d8 7f ff
	ff		 lea	 ecx, DWORD PTR _kPacket$524046[ebp]
  00164	e8 00 00 00 00	 call	 ??6SP2Packet@@QAEAAV0@H@Z ; SP2Packet::operator<<

; 263  : 		P2PNetwork::SendToAllPlayingUser( kPacket );

  00169	8d 85 d8 7f ff
	ff		 lea	 eax, DWORD PTR _kPacket$524046[ebp]
  0016f	6a 00		 push	 0
  00171	50		 push	 eax
  00172	e8 00 00 00 00	 call	 ?SendToAllPlayingUser@P2PNetwork@@YAXAAVSP2Packet@@PAVioBaseChar@@@Z ; P2PNetwork::SendToAllPlayingUser

; 264  : 	}

  00177	83 4d fc ff	 or	 DWORD PTR __$EHRec$[ebp+8], -1
  0017b	59		 pop	 ecx
  0017c	59		 pop	 ecx
  0017d	8d 8d d8 7f ff
	ff		 lea	 ecx, DWORD PTR _kPacket$524046[ebp]
  00183	e8 00 00 00 00	 call	 ??1SP2Packet@@UAE@XZ	; SP2Packet::~SP2Packet
$LN1@ChangeToGa:

; 265  : }

  00188	8b 4d f4	 mov	 ecx, DWORD PTR __$EHRec$[ebp]
  0018b	64 89 0d 00 00
	00 00		 mov	 DWORD PTR fs:0, ecx
  00192	59		 pop	 ecx
  00193	5f		 pop	 edi
  00194	5e		 pop	 esi
  00195	5b		 pop	 ebx
  00196	8b 4d f0	 mov	 ecx, DWORD PTR __$ArrayPad$[ebp]
  00199	33 cd		 xor	 ecx, ebp
  0019b	e8 00 00 00 00	 call	 @__security_check_cookie@4
  001a0	c9		 leave
  001a1	c2 04 00	 ret	 4
_TEXT	ENDS
;	COMDAT text$x
text$x	SEGMENT
__unwindfunclet$?ChangeToGathering@ioPowerChargeJump@@IAEXPAVioBaseChar@@@Z$0:
  00000	8d 8d d8 7f ff
	ff		 lea	 ecx, DWORD PTR _kPacket$524046[ebp]
  00006	e9 00 00 00 00	 jmp	 ??1SP2Packet@@UAE@XZ	; SP2Packet::~SP2Packet
__ehhandler$?ChangeToGathering@ioPowerChargeJump@@IAEXPAVioBaseChar@@@Z:
  0000b	8b 54 24 08	 mov	 edx, DWORD PTR [esp+8]
  0000f	8d 42 0c	 lea	 eax, DWORD PTR [edx+12]
  00012	8b 8a cc 7f ff
	ff		 mov	 ecx, DWORD PTR [edx-32820]
  00018	33 c8		 xor	 ecx, eax
  0001a	e8 00 00 00 00	 call	 @__security_check_cookie@4
  0001f	8b 4a fc	 mov	 ecx, DWORD PTR [edx-4]
  00022	33 c8		 xor	 ecx, eax
  00024	e8 00 00 00 00	 call	 @__security_check_cookie@4
  00029	b8 00 00 00 00	 mov	 eax, OFFSET __ehfuncinfo$?ChangeToGathering@ioPowerChargeJump@@IAEXPAVioBaseChar@@@Z
  0002e	e9 00 00 00 00	 jmp	 ___CxxFrameHandler3
text$x	ENDS
?ChangeToGathering@ioPowerChargeJump@@IAEXPAVioBaseChar@@@Z ENDP ; ioPowerChargeJump::ChangeToGathering
PUBLIC	__real@4066800000000000
PUBLIC	__real@4046800000000000
PUBLIC	__$ArrayPad$
PUBLIC	?ChangeToNormalJumpAttack@ioPowerChargeJump@@IAEXPAVioBaseChar@@@Z ; ioPowerChargeJump::ChangeToNormalJumpAttack
EXTRN	??6SP2Packet@@QAEAAV0@ABUD3DXVECTOR3@@@Z:PROC	; SP2Packet::operator<<
EXTRN	?IncreaseWeaponIndexBase@ioBaseChar@@QAEKXZ:PROC ; ioBaseChar::IncreaseWeaponIndexBase
EXTRN	?RefreshFireTimeList@ioBaseChar@@QAEXHABV?$vector@UWeaponInfo@@V?$allocator@UWeaponInfo@@@std@@@std@@W4FireTimeType@@MK_N@Z:PROC ; ioBaseChar::RefreshFireTimeList
EXTRN	?SetInputDirection@ioBaseChar@@QAEXABUD3DXVECTOR3@@@Z:PROC ; ioBaseChar::SetInputDirection
EXTRN	?SetTargetRotToRotate@ioBaseChar@@QAEXABUD3DXQUATERNION@@_N1@Z:PROC ; ioBaseChar::SetTargetRotToRotate
EXTRN	_D3DXQuaternionRotationYawPitchRoll@16:PROC
EXTRN	__imp_?ArrangeHead@ioMath@@SAMM@Z:PROC
EXTRN	?CheckCurDirKey@ioBaseChar@@QAE?AW4DirKeyInput@ioUserKeyInput@@XZ:PROC ; ioBaseChar::CheckCurDirKey
EXTRN	?IsCanRotateJumpAttack@ioBaseChar@@QAE_NXZ:PROC	; ioBaseChar::IsCanRotateJumpAttack
EXTRN	__ftol2:PROC
;	COMDAT __real@4066800000000000
; File d:\lost saga for developer\youtube\tutorial\source\src\lsclient\iobasechar.h
CONST	SEGMENT
__real@4066800000000000 DQ 04066800000000000r	; 180
CONST	ENDS
;	COMDAT __real@4046800000000000
CONST	SEGMENT
__real@4046800000000000 DQ 04046800000000000r	; 45
CONST	ENDS
;	COMDAT xdata$x
xdata$x	SEGMENT
__unwindtable$?ChangeToNormalJumpAttack@ioPowerChargeJump@@IAEXPAVioBaseChar@@@Z DD 0ffffffffH
	DD	FLAT:__unwindfunclet$?ChangeToNormalJumpAttack@ioPowerChargeJump@@IAEXPAVioBaseChar@@@Z$0
__ehfuncinfo$?ChangeToNormalJumpAttack@ioPowerChargeJump@@IAEXPAVioBaseChar@@@Z DD 019930522H
	DD	01H
	DD	FLAT:__unwindtable$?ChangeToNormalJumpAttack@ioPowerChargeJump@@IAEXPAVioBaseChar@@@Z
	DD	2 DUP(00H)
	DD	2 DUP(00H)
	DD	00H
	DD	01H
; Function compile flags: /Ogsp
; File d:\lost saga for developer\youtube\tutorial\source\src\lsclient\iopowerchargejump.cpp
xdata$x	ENDS
;	COMDAT ?ChangeToNormalJumpAttack@ioPowerChargeJump@@IAEXPAVioBaseChar@@@Z
_TEXT	SEGMENT
_qtRotate$524069 = -32852				; size = 16
tv287 = -32836						; size = 4
_pGrp$ = -32836						; size = 4
tv342 = -32832						; size = 4
$T527891 = -32832					; size = 4
_dwPreDelay$ = -32828					; size = 4
_iAniID$ = -32824					; size = 4
_fTimeRate$ = -32820					; size = 4
tv384 = -32816						; size = 4
tv364 = -32816						; size = 4
tv359 = -32816						; size = 4
tv340 = -32816						; size = 4
$T527895 = -32816					; size = 4
tv351 = -32812						; size = 4
tv349 = -32812						; size = 4
tv346 = -32812						; size = 4
tv344 = -32812						; size = 4
_fYawD$524063 = -32812					; size = 4
_kPacket$524078 = -32808				; size = 32792
__$ArrayPad$ = -16					; size = 4
__$EHRec$ = -12						; size = 12
_pOwner$ = 8						; size = 4
?ChangeToNormalJumpAttack@ioPowerChargeJump@@IAEXPAVioBaseChar@@@Z PROC ; ioPowerChargeJump::ChangeToNormalJumpAttack, COMDAT
; _this$ = ecx

; 268  : {

  00000	55		 push	 ebp
  00001	8b ec		 mov	 ebp, esp
  00003	6a ff		 push	 -1
  00005	68 00 00 00 00	 push	 __ehhandler$?ChangeToNormalJumpAttack@ioPowerChargeJump@@IAEXPAVioBaseChar@@@Z
  0000a	64 a1 00 00 00
	00		 mov	 eax, DWORD PTR fs:0
  00010	50		 push	 eax
  00011	b8 48 80 00 00	 mov	 eax, 32840		; 00008048H
  00016	e8 00 00 00 00	 call	 __chkstk
  0001b	a1 00 00 00 00	 mov	 eax, DWORD PTR ___security_cookie
  00020	33 c5		 xor	 eax, ebp
  00022	89 45 f0	 mov	 DWORD PTR __$ArrayPad$[ebp], eax
  00025	53		 push	 ebx
  00026	56		 push	 esi
  00027	57		 push	 edi
  00028	50		 push	 eax
  00029	8d 45 f4	 lea	 eax, DWORD PTR __$EHRec$[ebp]
  0002c	64 a3 00 00 00
	00		 mov	 DWORD PTR fs:0, eax
  00032	8b 7d 08	 mov	 edi, DWORD PTR _pOwner$[ebp]

; 269  : 	ioEntityGroup *pGrp = pOwner->GetGroup();

  00035	8b 5f 04	 mov	 ebx, DWORD PTR [edi+4]
  00038	8b f1		 mov	 esi, ecx
  0003a	89 9d bc 7f ff
	ff		 mov	 DWORD PTR _pGrp$[ebp], ebx

; 270  : 	if( !pGrp ) return;

  00040	85 db		 test	 ebx, ebx
  00042	0f 84 ac 03 00
	00		 je	 $LN1@ChangeToNo

; 271  : 
; 272  : 	int iAniID = pGrp->GetAnimationIdx( m_JumpAttack.m_AttackAnimation );

  00048	8d 86 28 01 00
	00		 lea	 eax, DWORD PTR [esi+296]
  0004e	50		 push	 eax
  0004f	8b cb		 mov	 ecx, ebx
  00051	ff 15 00 00 00
	00		 call	 DWORD PTR __imp_?GetAnimationIdx@ioEntityGroup@@QAEHABVioHashString@@@Z

; 273  : 	float fTimeRate = m_JumpAttack.m_fAttackAniRate;

  00057	f3 0f 10 86 38
	01 00 00	 movss	 xmm0, DWORD PTR [esi+312]

; 274  : 	DWORD dwPreDelay = m_JumpAttack.m_dwPreDelay;
; 275  : 
; 276  : 	if( fTimeRate <= 0.0f )

  0005f	0f 57 c9	 xorps	 xmm1, xmm1
  00062	0f 2f c8	 comiss	 xmm1, xmm0
  00065	89 85 c8 7f ff
	ff		 mov	 DWORD PTR _iAniID$[ebp], eax
  0006b	8b 86 70 01 00
	00		 mov	 eax, DWORD PTR [esi+368]
  00071	f3 0f 11 85 cc
	7f ff ff	 movss	 DWORD PTR _fTimeRate$[ebp], xmm0
  00079	89 85 c4 7f ff
	ff		 mov	 DWORD PTR _dwPreDelay$[ebp], eax
  0007f	72 21		 jb	 SHORT $LN4@ChangeToNo

; 277  : 		fTimeRate = FLOAT1;

  00081	b8 01 00 00 00	 mov	 eax, 1
  00086	89 85 d0 7f ff
	ff		 mov	 DWORD PTR tv384[ebp], eax
  0008c	db 85 d0 7f ff
	ff		 fild	 DWORD PTR tv384[ebp]
  00092	85 c0		 test	 eax, eax
  00094	79 06		 jns	 SHORT $LN42@ChangeToNo
  00096	d8 05 00 00 00
	00		 fadd	 DWORD PTR __real@4f800000
$LN42@ChangeToNo:
  0009c	d9 9d cc 7f ff
	ff		 fstp	 DWORD PTR _fTimeRate$[ebp]
$LN4@ChangeToNo:

; 278  : 
; 279  : 	if( pOwner->IsNeedProcess() && pOwner->IsCanRotateJumpAttack() )

  000a2	8b 07		 mov	 eax, DWORD PTR [edi]
  000a4	8b cf		 mov	 ecx, edi
  000a6	ff 90 00 01 00
	00		 call	 DWORD PTR [eax+256]
  000ac	84 c0		 test	 al, al
  000ae	0f 84 a7 00 00
	00		 je	 $LN2@ChangeToNo
  000b4	8b cf		 mov	 ecx, edi
  000b6	e8 00 00 00 00	 call	 ?IsCanRotateJumpAttack@ioBaseChar@@QAE_NXZ ; ioBaseChar::IsCanRotateJumpAttack
  000bb	84 c0		 test	 al, al
  000bd	0f 84 98 00 00
	00		 je	 $LN2@ChangeToNo

; 280  : 	{
; 281  : 		ioUserKeyInput::DirKeyInput eDir = pOwner->CheckCurDirKey();

  000c3	8b cf		 mov	 ecx, edi
  000c5	e8 00 00 00 00	 call	 ?CheckCurDirKey@ioBaseChar@@QAE?AW4DirKeyInput@ioUserKeyInput@@XZ ; ioBaseChar::CheckCurDirKey

; 282  : 		if( eDir != ioUserKeyInput::DKI_NONE )

  000ca	85 c0		 test	 eax, eax
  000cc	0f 84 89 00 00
	00		 je	 $LN2@ChangeToNo

; 283  : 		{
; 284  : 			float fYawD = 180.0f + 45.0f * ( eDir - ioUserKeyInput::DKI_UP );
; 285  : 			fYawD = ioMath::ArrangeHead( fYawD );

  000d2	0f 57 c0	 xorps	 xmm0, xmm0
  000d5	48		 dec	 eax
  000d6	f3 0f 2a c0	 cvtsi2ss xmm0, eax
  000da	0f 5a c0	 cvtps2pd xmm0, xmm0
  000dd	f2 0f 59 05 00
	00 00 00	 mulsd	 xmm0, QWORD PTR __real@4046800000000000
  000e5	f2 0f 58 05 00
	00 00 00	 addsd	 xmm0, QWORD PTR __real@4066800000000000
  000ed	51		 push	 ecx
  000ee	66 0f 5a c0	 cvtpd2ps xmm0, xmm0
  000f2	f3 0f 11 04 24	 movss	 DWORD PTR [esp], xmm0
  000f7	ff 15 00 00 00
	00		 call	 DWORD PTR __imp_?ArrangeHead@ioMath@@SAMM@Z
  000fd	d9 9d d4 7f ff
	ff		 fstp	 DWORD PTR _fYawD$524063[ebp]

; 286  : 
; 287  : 			float fYawR = DEGtoRAD( fYawD );

  00103	f3 0f 10 85 d4
	7f ff ff	 movss	 xmm0, DWORD PTR _fYawD$524063[ebp]
  0010b	0f 5a c0	 cvtps2pd xmm0, xmm0
  0010e	f2 0f 59 05 00
	00 00 00	 mulsd	 xmm0, QWORD PTR __real@3f91df46a2526c7a
  00116	66 0f 5a c8	 cvtpd2ps xmm1, xmm0

; 288  : 			D3DXQUATERNION qtRotate;
; 289  : 			D3DXQuaternionRotationYawPitchRoll( &qtRotate, fYawR, 0.0f, 0.0f );

  0011a	0f 57 c0	 xorps	 xmm0, xmm0
  0011d	f3 0f 11 04 24	 movss	 DWORD PTR [esp], xmm0
  00122	51		 push	 ecx
  00123	51		 push	 ecx
  00124	f3 0f 11 44 24
	04		 movss	 DWORD PTR [esp+4], xmm0
  0012a	8d 85 ac 7f ff
	ff		 lea	 eax, DWORD PTR _qtRotate$524069[ebp]
  00130	f3 0f 11 0c 24	 movss	 DWORD PTR [esp], xmm1
  00135	50		 push	 eax
  00136	e8 00 00 00 00	 call	 _D3DXQuaternionRotationYawPitchRoll@16

; 290  : 
; 291  : 			pOwner->SetTargetRotToRotate( qtRotate, false, false );

  0013b	6a 00		 push	 0
  0013d	6a 00		 push	 0
  0013f	8d 85 ac 7f ff
	ff		 lea	 eax, DWORD PTR _qtRotate$524069[ebp]
  00145	50		 push	 eax
  00146	8b cf		 mov	 ecx, edi
  00148	e8 00 00 00 00	 call	 ?SetTargetRotToRotate@ioBaseChar@@QAEXABUD3DXQUATERNION@@_N1@Z ; ioBaseChar::SetTargetRotToRotate

; 292  : 			pOwner->SetInputDirection( pOwner->GetMoveDir() );

  0014d	8d 87 b4 06 00
	00		 lea	 eax, DWORD PTR [edi+1716]
  00153	50		 push	 eax
  00154	8b cf		 mov	 ecx, edi
  00156	e8 00 00 00 00	 call	 ?SetInputDirection@ioBaseChar@@QAEXABUD3DXVECTOR3@@@Z ; ioBaseChar::SetInputDirection
$LN2@ChangeToNo:

; 293  : 		}
; 294  : 	}
; 295  : 
; 296  : 	pGrp->ClearAllActionAni( FLOAT100, true );

  0015b	b8 64 00 00 00	 mov	 eax, 100		; 00000064H
  00160	89 85 d0 7f ff
	ff		 mov	 DWORD PTR tv364[ebp], eax
  00166	db 85 d0 7f ff
	ff		 fild	 DWORD PTR tv364[ebp]
  0016c	6a 01		 push	 1
  0016e	85 c0		 test	 eax, eax
  00170	79 06		 jns	 SHORT $LN43@ChangeToNo
  00172	d8 05 00 00 00
	00		 fadd	 DWORD PTR __real@4f800000
$LN43@ChangeToNo:
  00178	51		 push	 ecx
  00179	8b cb		 mov	 ecx, ebx
  0017b	d9 1c 24	 fstp	 DWORD PTR [esp]
  0017e	ff 15 00 00 00
	00		 call	 DWORD PTR __imp_?ClearAllActionAni@ioEntityGroup@@QAEXM_N@Z

; 297  : 	pGrp->ClearAllLoopAni( FLOAT100, true );

  00184	b8 64 00 00 00	 mov	 eax, 100		; 00000064H
  00189	89 85 d0 7f ff
	ff		 mov	 DWORD PTR tv359[ebp], eax
  0018f	db 85 d0 7f ff
	ff		 fild	 DWORD PTR tv359[ebp]
  00195	6a 01		 push	 1
  00197	85 c0		 test	 eax, eax
  00199	79 06		 jns	 SHORT $LN44@ChangeToNo
  0019b	d8 05 00 00 00
	00		 fadd	 DWORD PTR __real@4f800000
$LN44@ChangeToNo:
  001a1	51		 push	 ecx
  001a2	8b cb		 mov	 ecx, ebx
  001a4	d9 1c 24	 fstp	 DWORD PTR [esp]
  001a7	ff 15 00 00 00
	00		 call	 DWORD PTR __imp_?ClearAllLoopAni@ioEntityGroup@@QAEXM_N@Z

; 298  : 
; 299  : 	pGrp->SetActionAni( iAniID, FLOAT100, FLOAT100, FLOAT1, FLOAT1/fTimeRate, 0.0f, dwPreDelay, true );		

  001ad	b8 01 00 00 00	 mov	 eax, 1
  001b2	8b c8		 mov	 ecx, eax
  001b4	b8 01 00 00 00	 mov	 eax, 1
  001b9	8b d0		 mov	 edx, eax
  001bb	b8 64 00 00 00	 mov	 eax, 100		; 00000064H
  001c0	89 85 c0 7f ff
	ff		 mov	 DWORD PTR $T527891[ebp], eax
  001c6	b8 64 00 00 00	 mov	 eax, 100		; 00000064H
  001cb	db 85 c4 7f ff
	ff		 fild	 DWORD PTR _dwPreDelay$[ebp]
  001d1	89 85 d0 7f ff
	ff		 mov	 DWORD PTR $T527895[ebp], eax
  001d7	8b 85 c4 7f ff
	ff		 mov	 eax, DWORD PTR _dwPreDelay$[ebp]
  001dd	6a 01		 push	 1
  001df	6a 01		 push	 1
  001e1	85 c0		 test	 eax, eax
  001e3	79 06		 jns	 SHORT $LN45@ChangeToNo
  001e5	d8 05 00 00 00
	00		 fadd	 DWORD PTR __real@4f800000
$LN45@ChangeToNo:
  001eb	0f 57 c0	 xorps	 xmm0, xmm0
  001ee	83 ec 18	 sub	 esp, 24			; 00000018H
  001f1	d9 5c 24 14	 fstp	 DWORD PTR [esp+20]
  001f5	89 8d d4 7f ff
	ff		 mov	 DWORD PTR tv349[ebp], ecx
  001fb	db 85 d4 7f ff
	ff		 fild	 DWORD PTR tv349[ebp]
  00201	f3 0f 11 44 24
	10		 movss	 DWORD PTR [esp+16], xmm0
  00207	85 c9		 test	 ecx, ecx
  00209	79 06		 jns	 SHORT $LN46@ChangeToNo
  0020b	d8 05 00 00 00
	00		 fadd	 DWORD PTR __real@4f800000
$LN46@ChangeToNo:
  00211	d8 b5 cc 7f ff
	ff		 fdiv	 DWORD PTR _fTimeRate$[ebp]
  00217	d9 9d d4 7f ff
	ff		 fstp	 DWORD PTR tv346[ebp]
  0021d	d9 85 d4 7f ff
	ff		 fld	 DWORD PTR tv346[ebp]
  00223	d9 5c 24 0c	 fstp	 DWORD PTR [esp+12]
  00227	89 95 d4 7f ff
	ff		 mov	 DWORD PTR tv344[ebp], edx
  0022d	db 85 d4 7f ff
	ff		 fild	 DWORD PTR tv344[ebp]
  00233	85 d2		 test	 edx, edx
  00235	79 06		 jns	 SHORT $LN47@ChangeToNo
  00237	d8 05 00 00 00
	00		 fadd	 DWORD PTR __real@4f800000
$LN47@ChangeToNo:
  0023d	8b 85 c0 7f ff
	ff		 mov	 eax, DWORD PTR $T527891[ebp]
  00243	d9 5c 24 08	 fstp	 DWORD PTR [esp+8]
  00247	db 85 c0 7f ff
	ff		 fild	 DWORD PTR $T527891[ebp]
  0024d	85 c0		 test	 eax, eax
  0024f	79 06		 jns	 SHORT $LN48@ChangeToNo
  00251	d8 05 00 00 00
	00		 fadd	 DWORD PTR __real@4f800000
$LN48@ChangeToNo:
  00257	8b 85 d0 7f ff
	ff		 mov	 eax, DWORD PTR $T527895[ebp]
  0025d	d9 5c 24 04	 fstp	 DWORD PTR [esp+4]
  00261	db 85 d0 7f ff
	ff		 fild	 DWORD PTR $T527895[ebp]
  00267	85 c0		 test	 eax, eax
  00269	79 06		 jns	 SHORT $LN49@ChangeToNo
  0026b	d8 05 00 00 00
	00		 fadd	 DWORD PTR __real@4f800000
$LN49@ChangeToNo:
  00271	d9 1c 24	 fstp	 DWORD PTR [esp]
  00274	ff b5 c8 7f ff
	ff		 push	 DWORD PTR _iAniID$[ebp]
  0027a	8b cb		 mov	 ecx, ebx
  0027c	ff 15 00 00 00
	00		 call	 DWORD PTR __imp_?SetActionAni@ioEntityGroup@@QAE_NHMMMMMM_N0@Z

; 300  : 	pOwner->RefreshFireTimeList( iAniID, m_JumpAttack.m_vWeaponInfoList, FTT_JUMP_ATTACK, fTimeRate, dwPreDelay );

  00282	f3 0f 10 85 cc
	7f ff ff	 movss	 xmm0, DWORD PTR _fTimeRate$[ebp]
  0028a	6a 00		 push	 0
  0028c	ff b5 c4 7f ff
	ff		 push	 DWORD PTR _dwPreDelay$[ebp]
  00292	8d 86 50 01 00
	00		 lea	 eax, DWORD PTR [esi+336]
  00298	51		 push	 ecx
  00299	f3 0f 11 04 24	 movss	 DWORD PTR [esp], xmm0
  0029e	6a 03		 push	 3
  002a0	5b		 pop	 ebx
  002a1	53		 push	 ebx
  002a2	50		 push	 eax
  002a3	ff b5 c8 7f ff
	ff		 push	 DWORD PTR _iAniID$[ebp]
  002a9	8b cf		 mov	 ecx, edi
  002ab	e8 00 00 00 00	 call	 ?RefreshFireTimeList@ioBaseChar@@QAEXHABV?$vector@UWeaponInfo@@V?$allocator@UWeaponInfo@@@std@@@std@@W4FireTimeType@@MK_N@Z ; ioBaseChar::RefreshFireTimeList

; 301  : 	pOwner->IncreaseWeaponIndexBase();

  002b0	8b cf		 mov	 ecx, edi
  002b2	e8 00 00 00 00	 call	 ?IncreaseWeaponIndexBase@ioBaseChar@@QAEKXZ ; ioBaseChar::IncreaseWeaponIndexBase

; 302  : 
; 303  : 	m_JumpState = PJS_NORMAL_ATTACK;

  002b7	89 9e 24 01 00
	00		 mov	 DWORD PTR [esi+292], ebx

; 304  : 	m_bUseExtendJumpAttack = false;

  002bd	c6 86 19 02 00
	00 00		 mov	 BYTE PTR [esi+537], 0

; 305  : 
; 306  : 	// For AirJumpPower
; 307  : 	DWORD dwStartTime = FRAMEGETTIME() + dwPreDelay;

  002c4	ff 15 00 00 00
	00		 call	 DWORD PTR __imp_?GetSingleton@ioFrameTimer@@SAAAV1@XZ
  002ca	8b c8		 mov	 ecx, eax
  002cc	ff 15 00 00 00
	00		 call	 DWORD PTR __imp_?GetLoopSec@ioFrameTimer@@QBEKXZ

; 308  : 	m_dwNormalAttackEndTime = dwStartTime + pGrp->GetAnimationFullTime( iAniID ) * fTimeRate;

  002d2	ff b5 c8 7f ff
	ff		 push	 DWORD PTR _iAniID$[ebp]
  002d8	8b 8d bc 7f ff
	ff		 mov	 ecx, DWORD PTR _pGrp$[ebp]
  002de	8b d8		 mov	 ebx, eax
  002e0	03 9d c4 7f ff
	ff		 add	 ebx, DWORD PTR _dwPreDelay$[ebp]
  002e6	ff 15 00 00 00
	00		 call	 DWORD PTR __imp_?GetAnimationFullTime@ioEntityGroup@@QAEMH@Z
  002ec	d8 8d cc 7f ff
	ff		 fmul	 DWORD PTR _fTimeRate$[ebp]
  002f2	89 9d bc 7f ff
	ff		 mov	 DWORD PTR tv287[ebp], ebx
  002f8	db 85 bc 7f ff
	ff		 fild	 DWORD PTR tv287[ebp]
  002fe	85 db		 test	 ebx, ebx
  00300	79 06		 jns	 SHORT $LN50@ChangeToNo
  00302	d8 05 00 00 00
	00		 fadd	 DWORD PTR __real@4f800000
$LN50@ChangeToNo:
  00308	de c1		 faddp	 ST(1), ST(0)
  0030a	e8 00 00 00 00	 call	 __ftol2

; 309  : 
; 310  : 	SetAirJump( pOwner, iAniID, fTimeRate );

  0030f	f3 0f 10 85 cc
	7f ff ff	 movss	 xmm0, DWORD PTR _fTimeRate$[ebp]
  00317	51		 push	 ecx
  00318	f3 0f 11 04 24	 movss	 DWORD PTR [esp], xmm0
  0031d	ff b5 c8 7f ff
	ff		 push	 DWORD PTR _iAniID$[ebp]
  00323	89 86 74 02 00
	00		 mov	 DWORD PTR [esi+628], eax
  00329	8b 06		 mov	 eax, DWORD PTR [esi]
  0032b	57		 push	 edi
  0032c	8b ce		 mov	 ecx, esi
  0032e	ff 50 78	 call	 DWORD PTR [eax+120]

; 311  : 
; 312  : 	if( pOwner->IsNeedSendNetwork() )

  00331	8b 07		 mov	 eax, DWORD PTR [edi]
  00333	8b cf		 mov	 ecx, edi
  00335	ff 90 04 01 00
	00		 call	 DWORD PTR [eax+260]
  0033b	84 c0		 test	 al, al
  0033d	0f 84 b1 00 00
	00		 je	 $LN1@ChangeToNo

; 313  : 	{
; 314  : 		SP2Packet kPacket( CUPK_EXTEND_JUMP );

  00343	68 46 41 00 00	 push	 16710			; 00004146H
  00348	8d 8d d8 7f ff
	ff		 lea	 ecx, DWORD PTR _kPacket$524078[ebp]
  0034e	e8 00 00 00 00	 call	 ??0SP2Packet@@QAE@K@Z	; SP2Packet::SP2Packet
  00353	83 65 fc 00	 and	 DWORD PTR __$EHRec$[ebp+8], 0

; 315  : 		kPacket << pOwner->GetCharName();

  00357	8d 87 d4 02 00
	00		 lea	 eax, DWORD PTR [edi+724]
  0035d	50		 push	 eax
  0035e	8d 8d d8 7f ff
	ff		 lea	 ecx, DWORD PTR _kPacket$524078[ebp]
  00364	e8 00 00 00 00	 call	 ??6SP2Packet@@QAEAAV0@ABVioHashString@@@Z ; SP2Packet::operator<<

; 316  : 		kPacket << (int)GetType();

  00369	8b 06		 mov	 eax, DWORD PTR [esi]
  0036b	8b ce		 mov	 ecx, esi
  0036d	ff 50 08	 call	 DWORD PTR [eax+8]
  00370	50		 push	 eax
  00371	8d 8d d8 7f ff
	ff		 lea	 ecx, DWORD PTR _kPacket$524078[ebp]
  00377	e8 00 00 00 00	 call	 ??6SP2Packet@@QAEAAV0@H@Z ; SP2Packet::operator<<

; 317  : 		kPacket << pOwner->GetHP().m_fCurValue;

  0037c	8d 87 c0 00 00
	00		 lea	 eax, DWORD PTR [edi+192]
  00382	50		 push	 eax
  00383	8d 8d d8 7f ff
	ff		 lea	 ecx, DWORD PTR _kPacket$524078[ebp]
  00389	e8 00 00 00 00	 call	 ??6SP2Packet@@QAEAAV0@AAV?$CEncrypt@M@@@Z ; SP2Packet::operator<<

; 318  : 		kPacket << (int)m_JumpState;

  0038e	ff b6 24 01 00
	00		 push	 DWORD PTR [esi+292]
  00394	8d 8d d8 7f ff
	ff		 lea	 ecx, DWORD PTR _kPacket$524078[ebp]
  0039a	e8 00 00 00 00	 call	 ??6SP2Packet@@QAEAAV0@H@Z ; SP2Packet::operator<<

; 319  : 		kPacket << pOwner->GetTargetRot();

  0039f	8d 87 a4 06 00
	00		 lea	 eax, DWORD PTR [edi+1700]
  003a5	50		 push	 eax
  003a6	8d 8d d8 7f ff
	ff		 lea	 ecx, DWORD PTR _kPacket$524078[ebp]
  003ac	e8 00 00 00 00	 call	 ??6SP2Packet@@QAEAAV0@ABUD3DXQUATERNION@@@Z ; SP2Packet::operator<<

; 320  : 		kPacket << pOwner->GetMoveDir();

  003b1	8d 87 b4 06 00
	00		 lea	 eax, DWORD PTR [edi+1716]
  003b7	50		 push	 eax
  003b8	8d 8d d8 7f ff
	ff		 lea	 ecx, DWORD PTR _kPacket$524078[ebp]
  003be	e8 00 00 00 00	 call	 ??6SP2Packet@@QAEAAV0@ABUD3DXVECTOR3@@@Z ; SP2Packet::operator<<

; 321  : 		kPacket << pOwner->GetInputDir();

  003c3	81 c7 c0 06 00
	00		 add	 edi, 1728		; 000006c0H
  003c9	57		 push	 edi
  003ca	8d 8d d8 7f ff
	ff		 lea	 ecx, DWORD PTR _kPacket$524078[ebp]
  003d0	e8 00 00 00 00	 call	 ??6SP2Packet@@QAEAAV0@ABUD3DXVECTOR3@@@Z ; SP2Packet::operator<<

; 322  : 		P2PNetwork::SendToAllPlayingUser( kPacket );

  003d5	8d 85 d8 7f ff
	ff		 lea	 eax, DWORD PTR _kPacket$524078[ebp]
  003db	6a 00		 push	 0
  003dd	50		 push	 eax
  003de	e8 00 00 00 00	 call	 ?SendToAllPlayingUser@P2PNetwork@@YAXAAVSP2Packet@@PAVioBaseChar@@@Z ; P2PNetwork::SendToAllPlayingUser

; 323  : 	}

  003e3	83 4d fc ff	 or	 DWORD PTR __$EHRec$[ebp+8], -1
  003e7	59		 pop	 ecx
  003e8	59		 pop	 ecx
  003e9	8d 8d d8 7f ff
	ff		 lea	 ecx, DWORD PTR _kPacket$524078[ebp]
  003ef	e8 00 00 00 00	 call	 ??1SP2Packet@@UAE@XZ	; SP2Packet::~SP2Packet
$LN1@ChangeToNo:

; 324  : }

  003f4	8b 4d f4	 mov	 ecx, DWORD PTR __$EHRec$[ebp]
  003f7	64 89 0d 00 00
	00 00		 mov	 DWORD PTR fs:0, ecx
  003fe	59		 pop	 ecx
  003ff	5f		 pop	 edi
  00400	5e		 pop	 esi
  00401	5b		 pop	 ebx
  00402	8b 4d f0	 mov	 ecx, DWORD PTR __$ArrayPad$[ebp]
  00405	33 cd		 xor	 ecx, ebp
  00407	e8 00 00 00 00	 call	 @__security_check_cookie@4
  0040c	c9		 leave
  0040d	c2 04 00	 ret	 4
_TEXT	ENDS
;	COMDAT text$x
text$x	SEGMENT
__unwindfunclet$?ChangeToNormalJumpAttack@ioPowerChargeJump@@IAEXPAVioBaseChar@@@Z$0:
  00000	8d 8d d8 7f ff
	ff		 lea	 ecx, DWORD PTR _kPacket$524078[ebp]
  00006	e9 00 00 00 00	 jmp	 ??1SP2Packet@@UAE@XZ	; SP2Packet::~SP2Packet
__ehhandler$?ChangeToNormalJumpAttack@ioPowerChargeJump@@IAEXPAVioBaseChar@@@Z:
  0000b	8b 54 24 08	 mov	 edx, DWORD PTR [esp+8]
  0000f	8d 42 0c	 lea	 eax, DWORD PTR [edx+12]
  00012	8b 8a a8 7f ff
	ff		 mov	 ecx, DWORD PTR [edx-32856]
  00018	33 c8		 xor	 ecx, eax
  0001a	e8 00 00 00 00	 call	 @__security_check_cookie@4
  0001f	8b 4a fc	 mov	 ecx, DWORD PTR [edx-4]
  00022	33 c8		 xor	 ecx, eax
  00024	e8 00 00 00 00	 call	 @__security_check_cookie@4
  00029	b8 00 00 00 00	 mov	 eax, OFFSET __ehfuncinfo$?ChangeToNormalJumpAttack@ioPowerChargeJump@@IAEXPAVioBaseChar@@@Z
  0002e	e9 00 00 00 00	 jmp	 ___CxxFrameHandler3
text$x	ENDS
?ChangeToNormalJumpAttack@ioPowerChargeJump@@IAEXPAVioBaseChar@@@Z ENDP ; ioPowerChargeJump::ChangeToNormalJumpAttack
PUBLIC	__$ArrayPad$
PUBLIC	?ChangeToPowerChargeJumpAttack@ioPowerChargeJump@@IAEXPAVioBaseChar@@@Z ; ioPowerChargeJump::ChangeToPowerChargeJumpAttack
;	COMDAT xdata$x
; File d:\lost saga for developer\youtube\tutorial\source\src\lsclient\iobasechar.h
xdata$x	SEGMENT
__unwindtable$?ChangeToPowerChargeJumpAttack@ioPowerChargeJump@@IAEXPAVioBaseChar@@@Z DD 0ffffffffH
	DD	FLAT:__unwindfunclet$?ChangeToPowerChargeJumpAttack@ioPowerChargeJump@@IAEXPAVioBaseChar@@@Z$0
__ehfuncinfo$?ChangeToPowerChargeJumpAttack@ioPowerChargeJump@@IAEXPAVioBaseChar@@@Z DD 019930522H
	DD	01H
	DD	FLAT:__unwindtable$?ChangeToPowerChargeJumpAttack@ioPowerChargeJump@@IAEXPAVioBaseChar@@@Z
	DD	2 DUP(00H)
	DD	2 DUP(00H)
	DD	00H
	DD	01H
; Function compile flags: /Ogsp
; File d:\lost saga for developer\youtube\tutorial\source\src\lsclient\iopowerchargejump.cpp
xdata$x	ENDS
;	COMDAT ?ChangeToPowerChargeJumpAttack@ioPowerChargeJump@@IAEXPAVioBaseChar@@@Z
_TEXT	SEGMENT
_qtRotate$524097 = -32848				; size = 16
_dwPreDelay$ = -32832					; size = 4
tv342 = -32828						; size = 4
$T527972 = -32828					; size = 4
_iAniID$ = -32824					; size = 4
_fTimeRate$ = -32820					; size = 4
tv384 = -32816						; size = 4
tv364 = -32816						; size = 4
tv359 = -32816						; size = 4
tv340 = -32816						; size = 4
$T527976 = -32816					; size = 4
tv351 = -32812						; size = 4
tv349 = -32812						; size = 4
tv346 = -32812						; size = 4
tv344 = -32812						; size = 4
_fYawD$524095 = -32812					; size = 4
_kPacket$524107 = -32808				; size = 32792
__$ArrayPad$ = -16					; size = 4
__$EHRec$ = -12						; size = 12
_pOwner$ = 8						; size = 4
?ChangeToPowerChargeJumpAttack@ioPowerChargeJump@@IAEXPAVioBaseChar@@@Z PROC ; ioPowerChargeJump::ChangeToPowerChargeJumpAttack, COMDAT
; _this$ = ecx

; 327  : {

  00000	55		 push	 ebp
  00001	8b ec		 mov	 ebp, esp
  00003	6a ff		 push	 -1
  00005	68 00 00 00 00	 push	 __ehhandler$?ChangeToPowerChargeJumpAttack@ioPowerChargeJump@@IAEXPAVioBaseChar@@@Z
  0000a	64 a1 00 00 00
	00		 mov	 eax, DWORD PTR fs:0
  00010	50		 push	 eax
  00011	b8 44 80 00 00	 mov	 eax, 32836		; 00008044H
  00016	e8 00 00 00 00	 call	 __chkstk
  0001b	a1 00 00 00 00	 mov	 eax, DWORD PTR ___security_cookie
  00020	33 c5		 xor	 eax, ebp
  00022	89 45 f0	 mov	 DWORD PTR __$ArrayPad$[ebp], eax
  00025	53		 push	 ebx
  00026	56		 push	 esi
  00027	57		 push	 edi
  00028	50		 push	 eax
  00029	8d 45 f4	 lea	 eax, DWORD PTR __$EHRec$[ebp]
  0002c	64 a3 00 00 00
	00		 mov	 DWORD PTR fs:0, eax
  00032	8b 7d 08	 mov	 edi, DWORD PTR _pOwner$[ebp]

; 328  : 	ioEntityGroup *pGrp = pOwner->GetGroup();

  00035	8b 5f 04	 mov	 ebx, DWORD PTR [edi+4]
  00038	8b f1		 mov	 esi, ecx

; 329  : 	if( !pGrp ) return;

  0003a	85 db		 test	 ebx, ebx
  0003c	0f 84 74 03 00
	00		 je	 $LN1@ChangeToPo

; 330  : 
; 331  : 	int iAniID = pGrp->GetAnimationIdx( m_ExtendJumpAttack.m_AttackAnimation );

  00042	8d 86 78 01 00
	00		 lea	 eax, DWORD PTR [esi+376]
  00048	50		 push	 eax
  00049	8b cb		 mov	 ecx, ebx
  0004b	ff 15 00 00 00
	00		 call	 DWORD PTR __imp_?GetAnimationIdx@ioEntityGroup@@QAEHABVioHashString@@@Z

; 332  : 	float fTimeRate = m_ExtendJumpAttack.m_fAttackAniRate;

  00051	f3 0f 10 86 88
	01 00 00	 movss	 xmm0, DWORD PTR [esi+392]

; 333  : 	DWORD dwPreDelay = m_ExtendJumpAttack.m_dwPreDelay;
; 334  : 
; 335  : 	if( fTimeRate <= 0.0f )

  00059	0f 57 c9	 xorps	 xmm1, xmm1
  0005c	0f 2f c8	 comiss	 xmm1, xmm0
  0005f	89 85 c8 7f ff
	ff		 mov	 DWORD PTR _iAniID$[ebp], eax
  00065	8b 86 c0 01 00
	00		 mov	 eax, DWORD PTR [esi+448]
  0006b	f3 0f 11 85 cc
	7f ff ff	 movss	 DWORD PTR _fTimeRate$[ebp], xmm0
  00073	89 85 c0 7f ff
	ff		 mov	 DWORD PTR _dwPreDelay$[ebp], eax
  00079	72 21		 jb	 SHORT $LN5@ChangeToPo

; 336  : 		fTimeRate = FLOAT1;

  0007b	b8 01 00 00 00	 mov	 eax, 1
  00080	89 85 d0 7f ff
	ff		 mov	 DWORD PTR tv384[ebp], eax
  00086	db 85 d0 7f ff
	ff		 fild	 DWORD PTR tv384[ebp]
  0008c	85 c0		 test	 eax, eax
  0008e	79 06		 jns	 SHORT $LN44@ChangeToPo
  00090	d8 05 00 00 00
	00		 fadd	 DWORD PTR __real@4f800000
$LN44@ChangeToPo:
  00096	d9 9d cc 7f ff
	ff		 fstp	 DWORD PTR _fTimeRate$[ebp]
$LN5@ChangeToPo:

; 337  : 
; 338  : 	if( pOwner->IsNeedProcess() && pOwner->IsCanRotateJumpAttack() )

  0009c	8b 07		 mov	 eax, DWORD PTR [edi]
  0009e	8b cf		 mov	 ecx, edi
  000a0	ff 90 00 01 00
	00		 call	 DWORD PTR [eax+256]
  000a6	84 c0		 test	 al, al
  000a8	0f 84 a7 00 00
	00		 je	 $LN3@ChangeToPo
  000ae	8b cf		 mov	 ecx, edi
  000b0	e8 00 00 00 00	 call	 ?IsCanRotateJumpAttack@ioBaseChar@@QAE_NXZ ; ioBaseChar::IsCanRotateJumpAttack
  000b5	84 c0		 test	 al, al
  000b7	0f 84 98 00 00
	00		 je	 $LN3@ChangeToPo

; 339  : 	{
; 340  : 		ioUserKeyInput::DirKeyInput eDir = pOwner->CheckCurDirKey();

  000bd	8b cf		 mov	 ecx, edi
  000bf	e8 00 00 00 00	 call	 ?CheckCurDirKey@ioBaseChar@@QAE?AW4DirKeyInput@ioUserKeyInput@@XZ ; ioBaseChar::CheckCurDirKey

; 341  : 		if( eDir != ioUserKeyInput::DKI_NONE )

  000c4	85 c0		 test	 eax, eax
  000c6	0f 84 89 00 00
	00		 je	 $LN3@ChangeToPo

; 342  : 		{
; 343  : 			float fYawD = 180.0f + 45.0f * ( eDir - ioUserKeyInput::DKI_UP );
; 344  : 			fYawD = ioMath::ArrangeHead( fYawD );

  000cc	0f 57 c0	 xorps	 xmm0, xmm0
  000cf	48		 dec	 eax
  000d0	f3 0f 2a c0	 cvtsi2ss xmm0, eax
  000d4	0f 5a c0	 cvtps2pd xmm0, xmm0
  000d7	f2 0f 59 05 00
	00 00 00	 mulsd	 xmm0, QWORD PTR __real@4046800000000000
  000df	f2 0f 58 05 00
	00 00 00	 addsd	 xmm0, QWORD PTR __real@4066800000000000
  000e7	51		 push	 ecx
  000e8	66 0f 5a c0	 cvtpd2ps xmm0, xmm0
  000ec	f3 0f 11 04 24	 movss	 DWORD PTR [esp], xmm0
  000f1	ff 15 00 00 00
	00		 call	 DWORD PTR __imp_?ArrangeHead@ioMath@@SAMM@Z
  000f7	d9 9d d4 7f ff
	ff		 fstp	 DWORD PTR _fYawD$524095[ebp]

; 345  : 
; 346  : 			float fYawR = DEGtoRAD( fYawD );

  000fd	f3 0f 10 85 d4
	7f ff ff	 movss	 xmm0, DWORD PTR _fYawD$524095[ebp]
  00105	0f 5a c0	 cvtps2pd xmm0, xmm0
  00108	f2 0f 59 05 00
	00 00 00	 mulsd	 xmm0, QWORD PTR __real@3f91df46a2526c7a
  00110	66 0f 5a c8	 cvtpd2ps xmm1, xmm0

; 347  : 			D3DXQUATERNION qtRotate;
; 348  : 			D3DXQuaternionRotationYawPitchRoll( &qtRotate, fYawR, 0.0f, 0.0f );

  00114	0f 57 c0	 xorps	 xmm0, xmm0
  00117	f3 0f 11 04 24	 movss	 DWORD PTR [esp], xmm0
  0011c	51		 push	 ecx
  0011d	51		 push	 ecx
  0011e	f3 0f 11 44 24
	04		 movss	 DWORD PTR [esp+4], xmm0
  00124	8d 85 b0 7f ff
	ff		 lea	 eax, DWORD PTR _qtRotate$524097[ebp]
  0012a	f3 0f 11 0c 24	 movss	 DWORD PTR [esp], xmm1
  0012f	50		 push	 eax
  00130	e8 00 00 00 00	 call	 _D3DXQuaternionRotationYawPitchRoll@16

; 349  : 
; 350  : 			pOwner->SetTargetRotToRotate( qtRotate, false, false );

  00135	6a 00		 push	 0
  00137	6a 00		 push	 0
  00139	8d 85 b0 7f ff
	ff		 lea	 eax, DWORD PTR _qtRotate$524097[ebp]
  0013f	50		 push	 eax
  00140	8b cf		 mov	 ecx, edi
  00142	e8 00 00 00 00	 call	 ?SetTargetRotToRotate@ioBaseChar@@QAEXABUD3DXQUATERNION@@_N1@Z ; ioBaseChar::SetTargetRotToRotate

; 351  : 			pOwner->SetInputDirection( pOwner->GetMoveDir() );

  00147	8d 87 b4 06 00
	00		 lea	 eax, DWORD PTR [edi+1716]
  0014d	50		 push	 eax
  0014e	8b cf		 mov	 ecx, edi
  00150	e8 00 00 00 00	 call	 ?SetInputDirection@ioBaseChar@@QAEXABUD3DXVECTOR3@@@Z ; ioBaseChar::SetInputDirection
$LN3@ChangeToPo:

; 352  : 		}
; 353  : 	}
; 354  : 
; 355  : 	pGrp->ClearAllActionAni( FLOAT100, true );

  00155	b8 64 00 00 00	 mov	 eax, 100		; 00000064H
  0015a	89 85 d0 7f ff
	ff		 mov	 DWORD PTR tv364[ebp], eax
  00160	db 85 d0 7f ff
	ff		 fild	 DWORD PTR tv364[ebp]
  00166	6a 01		 push	 1
  00168	85 c0		 test	 eax, eax
  0016a	79 06		 jns	 SHORT $LN45@ChangeToPo
  0016c	d8 05 00 00 00
	00		 fadd	 DWORD PTR __real@4f800000
$LN45@ChangeToPo:
  00172	51		 push	 ecx
  00173	8b cb		 mov	 ecx, ebx
  00175	d9 1c 24	 fstp	 DWORD PTR [esp]
  00178	ff 15 00 00 00
	00		 call	 DWORD PTR __imp_?ClearAllActionAni@ioEntityGroup@@QAEXM_N@Z

; 356  : 	pGrp->ClearAllLoopAni( FLOAT100, true );

  0017e	b8 64 00 00 00	 mov	 eax, 100		; 00000064H
  00183	89 85 d0 7f ff
	ff		 mov	 DWORD PTR tv359[ebp], eax
  00189	db 85 d0 7f ff
	ff		 fild	 DWORD PTR tv359[ebp]
  0018f	6a 01		 push	 1
  00191	85 c0		 test	 eax, eax
  00193	79 06		 jns	 SHORT $LN46@ChangeToPo
  00195	d8 05 00 00 00
	00		 fadd	 DWORD PTR __real@4f800000
$LN46@ChangeToPo:
  0019b	51		 push	 ecx
  0019c	8b cb		 mov	 ecx, ebx
  0019e	d9 1c 24	 fstp	 DWORD PTR [esp]
  001a1	ff 15 00 00 00
	00		 call	 DWORD PTR __imp_?ClearAllLoopAni@ioEntityGroup@@QAEXM_N@Z

; 357  : 
; 358  : 	pGrp->SetActionAni( iAniID, FLOAT100, FLOAT100, FLOAT1, FLOAT1/fTimeRate, 0.0f, dwPreDelay, true );

  001a7	b8 01 00 00 00	 mov	 eax, 1
  001ac	8b c8		 mov	 ecx, eax
  001ae	b8 01 00 00 00	 mov	 eax, 1
  001b3	8b d0		 mov	 edx, eax
  001b5	b8 64 00 00 00	 mov	 eax, 100		; 00000064H
  001ba	89 85 c4 7f ff
	ff		 mov	 DWORD PTR $T527972[ebp], eax
  001c0	b8 64 00 00 00	 mov	 eax, 100		; 00000064H
  001c5	db 85 c0 7f ff
	ff		 fild	 DWORD PTR _dwPreDelay$[ebp]
  001cb	89 85 d0 7f ff
	ff		 mov	 DWORD PTR $T527976[ebp], eax
  001d1	8b 85 c0 7f ff
	ff		 mov	 eax, DWORD PTR _dwPreDelay$[ebp]
  001d7	6a 01		 push	 1
  001d9	6a 01		 push	 1
  001db	85 c0		 test	 eax, eax
  001dd	79 06		 jns	 SHORT $LN47@ChangeToPo
  001df	d8 05 00 00 00
	00		 fadd	 DWORD PTR __real@4f800000
$LN47@ChangeToPo:
  001e5	0f 57 c0	 xorps	 xmm0, xmm0
  001e8	83 ec 18	 sub	 esp, 24			; 00000018H
  001eb	d9 5c 24 14	 fstp	 DWORD PTR [esp+20]
  001ef	89 8d d4 7f ff
	ff		 mov	 DWORD PTR tv349[ebp], ecx
  001f5	db 85 d4 7f ff
	ff		 fild	 DWORD PTR tv349[ebp]
  001fb	f3 0f 11 44 24
	10		 movss	 DWORD PTR [esp+16], xmm0
  00201	85 c9		 test	 ecx, ecx
  00203	79 06		 jns	 SHORT $LN48@ChangeToPo
  00205	d8 05 00 00 00
	00		 fadd	 DWORD PTR __real@4f800000
$LN48@ChangeToPo:
  0020b	d8 b5 cc 7f ff
	ff		 fdiv	 DWORD PTR _fTimeRate$[ebp]
  00211	d9 9d d4 7f ff
	ff		 fstp	 DWORD PTR tv346[ebp]
  00217	d9 85 d4 7f ff
	ff		 fld	 DWORD PTR tv346[ebp]
  0021d	d9 5c 24 0c	 fstp	 DWORD PTR [esp+12]
  00221	89 95 d4 7f ff
	ff		 mov	 DWORD PTR tv344[ebp], edx
  00227	db 85 d4 7f ff
	ff		 fild	 DWORD PTR tv344[ebp]
  0022d	85 d2		 test	 edx, edx
  0022f	79 06		 jns	 SHORT $LN49@ChangeToPo
  00231	d8 05 00 00 00
	00		 fadd	 DWORD PTR __real@4f800000
$LN49@ChangeToPo:
  00237	8b 85 c4 7f ff
	ff		 mov	 eax, DWORD PTR $T527972[ebp]
  0023d	d9 5c 24 08	 fstp	 DWORD PTR [esp+8]
  00241	db 85 c4 7f ff
	ff		 fild	 DWORD PTR $T527972[ebp]
  00247	85 c0		 test	 eax, eax
  00249	79 06		 jns	 SHORT $LN50@ChangeToPo
  0024b	d8 05 00 00 00
	00		 fadd	 DWORD PTR __real@4f800000
$LN50@ChangeToPo:
  00251	8b 85 d0 7f ff
	ff		 mov	 eax, DWORD PTR $T527976[ebp]
  00257	d9 5c 24 04	 fstp	 DWORD PTR [esp+4]
  0025b	db 85 d0 7f ff
	ff		 fild	 DWORD PTR $T527976[ebp]
  00261	85 c0		 test	 eax, eax
  00263	79 06		 jns	 SHORT $LN51@ChangeToPo
  00265	d8 05 00 00 00
	00		 fadd	 DWORD PTR __real@4f800000
$LN51@ChangeToPo:
  0026b	d9 1c 24	 fstp	 DWORD PTR [esp]
  0026e	ff b5 c8 7f ff
	ff		 push	 DWORD PTR _iAniID$[ebp]
  00274	8b cb		 mov	 ecx, ebx
  00276	ff 15 00 00 00
	00		 call	 DWORD PTR __imp_?SetActionAni@ioEntityGroup@@QAE_NHMMMMMM_N0@Z

; 359  : 
; 360  : 	if( !m_bUseLandJumpAttack )

  0027c	80 be 18 02 00
	00 00		 cmp	 BYTE PTR [esi+536], 0
  00283	75 33		 jne	 SHORT $LN2@ChangeToPo

; 361  : 	{
; 362  : 		pOwner->RefreshFireTimeList( iAniID, m_ExtendJumpAttack.m_vWeaponInfoList, FTT_JUMP_ATTACK, fTimeRate, dwPreDelay );

  00285	f3 0f 10 85 cc
	7f ff ff	 movss	 xmm0, DWORD PTR _fTimeRate$[ebp]
  0028d	6a 00		 push	 0
  0028f	ff b5 c0 7f ff
	ff		 push	 DWORD PTR _dwPreDelay$[ebp]
  00295	8d 86 a0 01 00
	00		 lea	 eax, DWORD PTR [esi+416]
  0029b	51		 push	 ecx
  0029c	f3 0f 11 04 24	 movss	 DWORD PTR [esp], xmm0
  002a1	6a 03		 push	 3
  002a3	50		 push	 eax
  002a4	ff b5 c8 7f ff
	ff		 push	 DWORD PTR _iAniID$[ebp]
  002aa	8b cf		 mov	 ecx, edi
  002ac	e8 00 00 00 00	 call	 ?RefreshFireTimeList@ioBaseChar@@QAEXHABV?$vector@UWeaponInfo@@V?$allocator@UWeaponInfo@@@std@@@std@@W4FireTimeType@@MK_N@Z ; ioBaseChar::RefreshFireTimeList

; 363  : 		pOwner->IncreaseWeaponIndexBase();

  002b1	8b cf		 mov	 ecx, edi
  002b3	e8 00 00 00 00	 call	 ?IncreaseWeaponIndexBase@ioBaseChar@@QAEKXZ ; ioBaseChar::IncreaseWeaponIndexBase
$LN2@ChangeToPo:

; 364  : 	}
; 365  : 
; 366  : 	m_JumpState = PJS_EXTEND_ATTACK;

  002b8	c7 86 24 01 00
	00 04 00 00 00	 mov	 DWORD PTR [esi+292], 4

; 367  : 	m_bUseExtendJumpAttack = true;

  002c2	c6 86 19 02 00
	00 01		 mov	 BYTE PTR [esi+537], 1

; 368  : 
; 369  : 	// For AirJumpPower
; 370  : 	DWORD dwStartTime = FRAMEGETTIME() + dwPreDelay;

  002c9	ff 15 00 00 00
	00		 call	 DWORD PTR __imp_?GetSingleton@ioFrameTimer@@SAAAV1@XZ
  002cf	8b c8		 mov	 ecx, eax
  002d1	ff 15 00 00 00
	00		 call	 DWORD PTR __imp_?GetLoopSec@ioFrameTimer@@QBEKXZ

; 371  : 
; 372  : 	SetAirJump( pOwner, iAniID, fTimeRate );

  002d7	f3 0f 10 85 cc
	7f ff ff	 movss	 xmm0, DWORD PTR _fTimeRate$[ebp]
  002df	8b 06		 mov	 eax, DWORD PTR [esi]
  002e1	51		 push	 ecx
  002e2	f3 0f 11 04 24	 movss	 DWORD PTR [esp], xmm0
  002e7	ff b5 c8 7f ff
	ff		 push	 DWORD PTR _iAniID$[ebp]
  002ed	8b ce		 mov	 ecx, esi
  002ef	57		 push	 edi
  002f0	ff 50 78	 call	 DWORD PTR [eax+120]

; 373  : 
; 374  : 	if( pOwner->IsNeedSendNetwork() )

  002f3	8b 07		 mov	 eax, DWORD PTR [edi]
  002f5	8b cf		 mov	 ecx, edi
  002f7	ff 90 04 01 00
	00		 call	 DWORD PTR [eax+260]
  002fd	84 c0		 test	 al, al
  002ff	0f 84 b1 00 00
	00		 je	 $LN1@ChangeToPo

; 375  : 	{
; 376  : 		SP2Packet kPacket( CUPK_EXTEND_JUMP );

  00305	68 46 41 00 00	 push	 16710			; 00004146H
  0030a	8d 8d d8 7f ff
	ff		 lea	 ecx, DWORD PTR _kPacket$524107[ebp]
  00310	e8 00 00 00 00	 call	 ??0SP2Packet@@QAE@K@Z	; SP2Packet::SP2Packet
  00315	83 65 fc 00	 and	 DWORD PTR __$EHRec$[ebp+8], 0

; 377  : 		kPacket << pOwner->GetCharName();

  00319	8d 87 d4 02 00
	00		 lea	 eax, DWORD PTR [edi+724]
  0031f	50		 push	 eax
  00320	8d 8d d8 7f ff
	ff		 lea	 ecx, DWORD PTR _kPacket$524107[ebp]
  00326	e8 00 00 00 00	 call	 ??6SP2Packet@@QAEAAV0@ABVioHashString@@@Z ; SP2Packet::operator<<

; 378  : 		kPacket << (int)GetType();

  0032b	8b 06		 mov	 eax, DWORD PTR [esi]
  0032d	8b ce		 mov	 ecx, esi
  0032f	ff 50 08	 call	 DWORD PTR [eax+8]
  00332	50		 push	 eax
  00333	8d 8d d8 7f ff
	ff		 lea	 ecx, DWORD PTR _kPacket$524107[ebp]
  00339	e8 00 00 00 00	 call	 ??6SP2Packet@@QAEAAV0@H@Z ; SP2Packet::operator<<

; 379  : 		kPacket << pOwner->GetHP().m_fCurValue;

  0033e	8d 87 c0 00 00
	00		 lea	 eax, DWORD PTR [edi+192]
  00344	50		 push	 eax
  00345	8d 8d d8 7f ff
	ff		 lea	 ecx, DWORD PTR _kPacket$524107[ebp]
  0034b	e8 00 00 00 00	 call	 ??6SP2Packet@@QAEAAV0@AAV?$CEncrypt@M@@@Z ; SP2Packet::operator<<

; 380  : 		kPacket << (int)m_JumpState;

  00350	ff b6 24 01 00
	00		 push	 DWORD PTR [esi+292]
  00356	8d 8d d8 7f ff
	ff		 lea	 ecx, DWORD PTR _kPacket$524107[ebp]
  0035c	e8 00 00 00 00	 call	 ??6SP2Packet@@QAEAAV0@H@Z ; SP2Packet::operator<<

; 381  : 		kPacket << pOwner->GetTargetRot();

  00361	8d 87 a4 06 00
	00		 lea	 eax, DWORD PTR [edi+1700]
  00367	50		 push	 eax
  00368	8d 8d d8 7f ff
	ff		 lea	 ecx, DWORD PTR _kPacket$524107[ebp]
  0036e	e8 00 00 00 00	 call	 ??6SP2Packet@@QAEAAV0@ABUD3DXQUATERNION@@@Z ; SP2Packet::operator<<

; 382  : 		kPacket << pOwner->GetMoveDir();

  00373	8d 87 b4 06 00
	00		 lea	 eax, DWORD PTR [edi+1716]
  00379	50		 push	 eax
  0037a	8d 8d d8 7f ff
	ff		 lea	 ecx, DWORD PTR _kPacket$524107[ebp]
  00380	e8 00 00 00 00	 call	 ??6SP2Packet@@QAEAAV0@ABUD3DXVECTOR3@@@Z ; SP2Packet::operator<<

; 383  : 		kPacket << pOwner->GetInputDir();

  00385	81 c7 c0 06 00
	00		 add	 edi, 1728		; 000006c0H
  0038b	57		 push	 edi
  0038c	8d 8d d8 7f ff
	ff		 lea	 ecx, DWORD PTR _kPacket$524107[ebp]
  00392	e8 00 00 00 00	 call	 ??6SP2Packet@@QAEAAV0@ABUD3DXVECTOR3@@@Z ; SP2Packet::operator<<

; 384  : 		P2PNetwork::SendToAllPlayingUser( kPacket );

  00397	8d 85 d8 7f ff
	ff		 lea	 eax, DWORD PTR _kPacket$524107[ebp]
  0039d	6a 00		 push	 0
  0039f	50		 push	 eax
  003a0	e8 00 00 00 00	 call	 ?SendToAllPlayingUser@P2PNetwork@@YAXAAVSP2Packet@@PAVioBaseChar@@@Z ; P2PNetwork::SendToAllPlayingUser

; 385  : 	}

  003a5	83 4d fc ff	 or	 DWORD PTR __$EHRec$[ebp+8], -1
  003a9	59		 pop	 ecx
  003aa	59		 pop	 ecx
  003ab	8d 8d d8 7f ff
	ff		 lea	 ecx, DWORD PTR _kPacket$524107[ebp]
  003b1	e8 00 00 00 00	 call	 ??1SP2Packet@@UAE@XZ	; SP2Packet::~SP2Packet
$LN1@ChangeToPo:

; 386  : }

  003b6	8b 4d f4	 mov	 ecx, DWORD PTR __$EHRec$[ebp]
  003b9	64 89 0d 00 00
	00 00		 mov	 DWORD PTR fs:0, ecx
  003c0	59		 pop	 ecx
  003c1	5f		 pop	 edi
  003c2	5e		 pop	 esi
  003c3	5b		 pop	 ebx
  003c4	8b 4d f0	 mov	 ecx, DWORD PTR __$ArrayPad$[ebp]
  003c7	33 cd		 xor	 ecx, ebp
  003c9	e8 00 00 00 00	 call	 @__security_check_cookie@4
  003ce	c9		 leave
  003cf	c2 04 00	 ret	 4
_TEXT	ENDS
;	COMDAT text$x
text$x	SEGMENT
__unwindfunclet$?ChangeToPowerChargeJumpAttack@ioPowerChargeJump@@IAEXPAVioBaseChar@@@Z$0:
  00000	8d 8d d8 7f ff
	ff		 lea	 ecx, DWORD PTR _kPacket$524107[ebp]
  00006	e9 00 00 00 00	 jmp	 ??1SP2Packet@@UAE@XZ	; SP2Packet::~SP2Packet
__ehhandler$?ChangeToPowerChargeJumpAttack@ioPowerChargeJump@@IAEXPAVioBaseChar@@@Z:
  0000b	8b 54 24 08	 mov	 edx, DWORD PTR [esp+8]
  0000f	8d 42 0c	 lea	 eax, DWORD PTR [edx+12]
  00012	8b 8a ac 7f ff
	ff		 mov	 ecx, DWORD PTR [edx-32852]
  00018	33 c8		 xor	 ecx, eax
  0001a	e8 00 00 00 00	 call	 @__security_check_cookie@4
  0001f	8b 4a fc	 mov	 ecx, DWORD PTR [edx-4]
  00022	33 c8		 xor	 ecx, eax
  00024	e8 00 00 00 00	 call	 @__security_check_cookie@4
  00029	b8 00 00 00 00	 mov	 eax, OFFSET __ehfuncinfo$?ChangeToPowerChargeJumpAttack@ioPowerChargeJump@@IAEXPAVioBaseChar@@@Z
  0002e	e9 00 00 00 00	 jmp	 ___CxxFrameHandler3
text$x	ENDS
?ChangeToPowerChargeJumpAttack@ioPowerChargeJump@@IAEXPAVioBaseChar@@@Z ENDP ; ioPowerChargeJump::ChangeToPowerChargeJumpAttack
PUBLIC	?ProcessDash@ioPowerChargeJump@@QAEXPAVioBaseChar@@@Z ; ioPowerChargeJump::ProcessDash
; Function compile flags: /Ogsp
;	COMDAT ?ProcessDash@ioPowerChargeJump@@QAEXPAVioBaseChar@@@Z
_TEXT	SEGMENT
tv195 = 8						; size = 4
tv190 = 8						; size = 4
tv184 = 8						; size = 4
tv182 = 8						; size = 4
_pOwner$ = 8						; size = 4
?ProcessDash@ioPowerChargeJump@@QAEXPAVioBaseChar@@@Z PROC ; ioPowerChargeJump::ProcessDash, COMDAT
; _this$ = ecx

; 724  : {

  00000	55		 push	 ebp
  00001	8b ec		 mov	 ebp, esp
  00003	56		 push	 esi

; 725  : 	if( !pOwner ) return;

  00004	8b 75 08	 mov	 esi, DWORD PTR _pOwner$[ebp]
  00007	57		 push	 edi
  00008	8b f9		 mov	 edi, ecx
  0000a	85 f6		 test	 esi, esi
  0000c	0f 84 09 01 00
	00		 je	 $LN2@ProcessDas

; 726  : 
; 727  : 	if( m_DashType != LDT_NO_GRAVITY )

  00012	83 bf 84 02 00
	00 02		 cmp	 DWORD PTR [edi+644], 2
  00019	0f 85 fc 00 00
	00		 jne	 $LN2@ProcessDas

; 728  : 		return;
; 729  : 
; 730  : 	DWORD dwCurTime = FRAMEGETTIME();

  0001f	ff 15 00 00 00
	00		 call	 DWORD PTR __imp_?GetSingleton@ioFrameTimer@@SAAAV1@XZ
  00025	8b c8		 mov	 ecx, eax
  00027	ff 15 00 00 00
	00		 call	 DWORD PTR __imp_?GetLoopSec@ioFrameTimer@@QBEKXZ

; 731  : 
; 732  : 	switch( m_JumpState )

  0002d	8d 97 24 01 00
	00		 lea	 edx, DWORD PTR [edi+292]
  00033	83 3a 05	 cmp	 DWORD PTR [edx], 5
  00036	0f 85 df 00 00
	00		 jne	 $LN2@ProcessDas

; 733  : 	{
; 734  : 	case PJS_DASH:
; 735  : 		if( m_dwDashEndTime > 0 && m_dwDashEndTime < dwCurTime )

  0003c	8d 8f e0 02 00
	00		 lea	 ecx, DWORD PTR [edi+736]
  00042	8b 39		 mov	 edi, DWORD PTR [ecx]
  00044	85 ff		 test	 edi, edi
  00046	0f 84 cf 00 00
	00		 je	 $LN2@ProcessDas
  0004c	3b f8		 cmp	 edi, eax
  0004e	0f 83 c7 00 00
	00		 jae	 $LN2@ProcessDas

; 736  : 		{
; 737  : 			m_dwDashEndTime = 0;

  00054	83 21 00	 and	 DWORD PTR [ecx], 0
  00057	53		 push	 ebx

; 738  : 			m_JumpState = PJS_DASH_END;

  00058	c7 02 06 00 00
	00		 mov	 DWORD PTR [edx], 6

; 739  : 
; 740  : 			int iAniID = pOwner->GetJumppingAnimationIdx();

  0005e	8b 06		 mov	 eax, DWORD PTR [esi]
  00060	6a 00		 push	 0
  00062	8b ce		 mov	 ecx, esi
  00064	ff 90 6c 01 00
	00		 call	 DWORD PTR [eax+364]

; 741  : 			ioEntityGroup *pGrp = pOwner->GetGroup();

  0006a	8b 76 04	 mov	 esi, DWORD PTR [esi+4]
  0006d	8b d8		 mov	 ebx, eax

; 742  : 			if( pGrp )

  0006f	85 f6		 test	 esi, esi
  00071	0f 84 a3 00 00
	00		 je	 $LN21@ProcessDas

; 743  : 			{
; 744  : 				pGrp->ClearAllActionAni( FLOAT100, true );

  00077	b8 64 00 00 00	 mov	 eax, 100		; 00000064H
  0007c	33 ff		 xor	 edi, edi
  0007e	47		 inc	 edi
  0007f	89 45 08	 mov	 DWORD PTR tv195[ebp], eax
  00082	db 45 08	 fild	 DWORD PTR tv195[ebp]
  00085	57		 push	 edi
  00086	85 c0		 test	 eax, eax
  00088	79 06		 jns	 SHORT $LN22@ProcessDas
  0008a	d8 05 00 00 00
	00		 fadd	 DWORD PTR __real@4f800000
$LN22@ProcessDas:
  00090	51		 push	 ecx
  00091	8b ce		 mov	 ecx, esi
  00093	d9 1c 24	 fstp	 DWORD PTR [esp]
  00096	ff 15 00 00 00
	00		 call	 DWORD PTR __imp_?ClearAllActionAni@ioEntityGroup@@QAEXM_N@Z

; 745  : 				pGrp->ClearAllLoopAni( FLOAT100, true );

  0009c	b8 64 00 00 00	 mov	 eax, 100		; 00000064H
  000a1	89 45 08	 mov	 DWORD PTR tv190[ebp], eax
  000a4	db 45 08	 fild	 DWORD PTR tv190[ebp]
  000a7	57		 push	 edi
  000a8	85 c0		 test	 eax, eax
  000aa	79 06		 jns	 SHORT $LN23@ProcessDas
  000ac	d8 05 00 00 00
	00		 fadd	 DWORD PTR __real@4f800000
$LN23@ProcessDas:
  000b2	51		 push	 ecx
  000b3	8b ce		 mov	 ecx, esi
  000b5	d9 1c 24	 fstp	 DWORD PTR [esp]
  000b8	ff 15 00 00 00
	00		 call	 DWORD PTR __imp_?ClearAllLoopAni@ioEntityGroup@@QAEXM_N@Z

; 746  : 				pGrp->SetActionAni( iAniID,	0.0f, 0.0f, FLOAT1, FLOAT1,	0.0f, 0.0f,	true );

  000be	b8 01 00 00 00	 mov	 eax, 1
  000c3	8b c8		 mov	 ecx, eax
  000c5	b8 01 00 00 00	 mov	 eax, 1
  000ca	0f 57 c0	 xorps	 xmm0, xmm0
  000cd	57		 push	 edi
  000ce	57		 push	 edi
  000cf	83 ec 18	 sub	 esp, 24			; 00000018H
  000d2	89 4d 08	 mov	 DWORD PTR tv184[ebp], ecx
  000d5	db 45 08	 fild	 DWORD PTR tv184[ebp]
  000d8	f3 0f 11 44 24
	14		 movss	 DWORD PTR [esp+20], xmm0
  000de	f3 0f 11 44 24
	10		 movss	 DWORD PTR [esp+16], xmm0
  000e4	85 c9		 test	 ecx, ecx
  000e6	79 06		 jns	 SHORT $LN24@ProcessDas
  000e8	d8 05 00 00 00
	00		 fadd	 DWORD PTR __real@4f800000
$LN24@ProcessDas:
  000ee	89 45 08	 mov	 DWORD PTR tv182[ebp], eax
  000f1	d9 5c 24 0c	 fstp	 DWORD PTR [esp+12]
  000f5	db 45 08	 fild	 DWORD PTR tv182[ebp]
  000f8	85 c0		 test	 eax, eax
  000fa	79 06		 jns	 SHORT $LN25@ProcessDas
  000fc	d8 05 00 00 00
	00		 fadd	 DWORD PTR __real@4f800000
$LN25@ProcessDas:
  00102	d9 5c 24 08	 fstp	 DWORD PTR [esp+8]
  00106	f3 0f 11 44 24
	04		 movss	 DWORD PTR [esp+4], xmm0
  0010c	f3 0f 11 04 24	 movss	 DWORD PTR [esp], xmm0
  00111	53		 push	 ebx
  00112	8b ce		 mov	 ecx, esi
  00114	ff 15 00 00 00
	00		 call	 DWORD PTR __imp_?SetActionAni@ioEntityGroup@@QAE_NHMMMMMM_N0@Z
$LN21@ProcessDas:
  0011a	5b		 pop	 ebx
$LN2@ProcessDas:
  0011b	5f		 pop	 edi
  0011c	5e		 pop	 esi

; 747  : 			}
; 748  : 		}
; 749  : 		break;
; 750  : 	case PJS_DASH_END:
; 751  : 		break;
; 752  : 	}
; 753  : }

  0011d	5d		 pop	 ebp
  0011e	c2 04 00	 ret	 4
?ProcessDash@ioPowerChargeJump@@QAEXPAVioBaseChar@@@Z ENDP ; ioPowerChargeJump::ProcessDash
_TEXT	ENDS
PUBLIC	?begin@?$vector@UWeaponInfo@@V?$allocator@UWeaponInfo@@@std@@@std@@QBE?AV?$_Vector_const_iterator@V?$_Vector_val@UWeaponInfo@@V?$allocator@UWeaponInfo@@@std@@@std@@@2@XZ ; std::vector<WeaponInfo,std::allocator<WeaponInfo> >::begin
; Function compile flags: /Ogsp
; File c:\program files (x86)\microsoft visual studio 10.0\vc\include\vector
;	COMDAT ?begin@?$vector@UWeaponInfo@@V?$allocator@UWeaponInfo@@@std@@@std@@QBE?AV?$_Vector_const_iterator@V?$_Vector_val@UWeaponInfo@@V?$allocator@UWeaponInfo@@@std@@@std@@@2@XZ
_TEXT	SEGMENT
___$ReturnUdt$ = 8					; size = 4
?begin@?$vector@UWeaponInfo@@V?$allocator@UWeaponInfo@@@std@@@std@@QBE?AV?$_Vector_const_iterator@V?$_Vector_val@UWeaponInfo@@V?$allocator@UWeaponInfo@@@std@@@std@@@2@XZ PROC ; std::vector<WeaponInfo,std::allocator<WeaponInfo> >::begin, COMDAT
; _this$ = ecx

; 786  : 		{	// return iterator for beginning of nonmutable sequence

  00000	55		 push	 ebp
  00001	8b ec		 mov	 ebp, esp

; 787  : 		return (const_iterator(this->_Myfirst, this));

  00003	8b 09		 mov	 ecx, DWORD PTR [ecx]
  00005	8b 45 08	 mov	 eax, DWORD PTR ___$ReturnUdt$[ebp]
  00008	89 08		 mov	 DWORD PTR [eax], ecx

; 788  : 		}

  0000a	5d		 pop	 ebp
  0000b	c2 04 00	 ret	 4
?begin@?$vector@UWeaponInfo@@V?$allocator@UWeaponInfo@@@std@@@std@@QBE?AV?$_Vector_const_iterator@V?$_Vector_val@UWeaponInfo@@V?$allocator@UWeaponInfo@@@std@@@std@@@2@XZ ENDP ; std::vector<WeaponInfo,std::allocator<WeaponInfo> >::begin
_TEXT	ENDS
PUBLIC	?end@?$vector@UWeaponInfo@@V?$allocator@UWeaponInfo@@@std@@@std@@QBE?AV?$_Vector_const_iterator@V?$_Vector_val@UWeaponInfo@@V?$allocator@UWeaponInfo@@@std@@@std@@@2@XZ ; std::vector<WeaponInfo,std::allocator<WeaponInfo> >::end
; Function compile flags: /Ogsp
;	COMDAT ?end@?$vector@UWeaponInfo@@V?$allocator@UWeaponInfo@@@std@@@std@@QBE?AV?$_Vector_const_iterator@V?$_Vector_val@UWeaponInfo@@V?$allocator@UWeaponInfo@@@std@@@std@@@2@XZ
_TEXT	SEGMENT
___$ReturnUdt$ = 8					; size = 4
?end@?$vector@UWeaponInfo@@V?$allocator@UWeaponInfo@@@std@@@std@@QBE?AV?$_Vector_const_iterator@V?$_Vector_val@UWeaponInfo@@V?$allocator@UWeaponInfo@@@std@@@std@@@2@XZ PROC ; std::vector<WeaponInfo,std::allocator<WeaponInfo> >::end, COMDAT
; _this$ = ecx

; 796  : 		{	// return iterator for end of nonmutable sequence

  00000	55		 push	 ebp
  00001	8b ec		 mov	 ebp, esp

; 797  : 		return (const_iterator(this->_Mylast, this));

  00003	8b 49 04	 mov	 ecx, DWORD PTR [ecx+4]
  00006	8b 45 08	 mov	 eax, DWORD PTR ___$ReturnUdt$[ebp]
  00009	89 08		 mov	 DWORD PTR [eax], ecx

; 798  : 		}

  0000b	5d		 pop	 ebp
  0000c	c2 04 00	 ret	 4
?end@?$vector@UWeaponInfo@@V?$allocator@UWeaponInfo@@@std@@@std@@QBE?AV?$_Vector_const_iterator@V?$_Vector_val@UWeaponInfo@@V?$allocator@UWeaponInfo@@@std@@@std@@@2@XZ ENDP ; std::vector<WeaponInfo,std::allocator<WeaponInfo> >::end
_TEXT	ENDS
PUBLIC	?begin@?$vector@UForceInfo@@V?$allocator@UForceInfo@@@std@@@std@@QBE?AV?$_Vector_const_iterator@V?$_Vector_val@UForceInfo@@V?$allocator@UForceInfo@@@std@@@std@@@2@XZ ; std::vector<ForceInfo,std::allocator<ForceInfo> >::begin
; Function compile flags: /Ogsp
;	COMDAT ?begin@?$vector@UForceInfo@@V?$allocator@UForceInfo@@@std@@@std@@QBE?AV?$_Vector_const_iterator@V?$_Vector_val@UForceInfo@@V?$allocator@UForceInfo@@@std@@@std@@@2@XZ
_TEXT	SEGMENT
___$ReturnUdt$ = 8					; size = 4
?begin@?$vector@UForceInfo@@V?$allocator@UForceInfo@@@std@@@std@@QBE?AV?$_Vector_const_iterator@V?$_Vector_val@UForceInfo@@V?$allocator@UForceInfo@@@std@@@std@@@2@XZ PROC ; std::vector<ForceInfo,std::allocator<ForceInfo> >::begin, COMDAT
; _this$ = ecx

; 786  : 		{	// return iterator for beginning of nonmutable sequence

  00000	55		 push	 ebp
  00001	8b ec		 mov	 ebp, esp

; 787  : 		return (const_iterator(this->_Myfirst, this));

  00003	8b 09		 mov	 ecx, DWORD PTR [ecx]
  00005	8b 45 08	 mov	 eax, DWORD PTR ___$ReturnUdt$[ebp]
  00008	89 08		 mov	 DWORD PTR [eax], ecx

; 788  : 		}

  0000a	5d		 pop	 ebp
  0000b	c2 04 00	 ret	 4
?begin@?$vector@UForceInfo@@V?$allocator@UForceInfo@@@std@@@std@@QBE?AV?$_Vector_const_iterator@V?$_Vector_val@UForceInfo@@V?$allocator@UForceInfo@@@std@@@std@@@2@XZ ENDP ; std::vector<ForceInfo,std::allocator<ForceInfo> >::begin
_TEXT	ENDS
PUBLIC	?end@?$vector@UForceInfo@@V?$allocator@UForceInfo@@@std@@@std@@QBE?AV?$_Vector_const_iterator@V?$_Vector_val@UForceInfo@@V?$allocator@UForceInfo@@@std@@@std@@@2@XZ ; std::vector<ForceInfo,std::allocator<ForceInfo> >::end
; Function compile flags: /Ogsp
;	COMDAT ?end@?$vector@UForceInfo@@V?$allocator@UForceInfo@@@std@@@std@@QBE?AV?$_Vector_const_iterator@V?$_Vector_val@UForceInfo@@V?$allocator@UForceInfo@@@std@@@std@@@2@XZ
_TEXT	SEGMENT
___$ReturnUdt$ = 8					; size = 4
?end@?$vector@UForceInfo@@V?$allocator@UForceInfo@@@std@@@std@@QBE?AV?$_Vector_const_iterator@V?$_Vector_val@UForceInfo@@V?$allocator@UForceInfo@@@std@@@std@@@2@XZ PROC ; std::vector<ForceInfo,std::allocator<ForceInfo> >::end, COMDAT
; _this$ = ecx

; 796  : 		{	// return iterator for end of nonmutable sequence

  00000	55		 push	 ebp
  00001	8b ec		 mov	 ebp, esp

; 797  : 		return (const_iterator(this->_Mylast, this));

  00003	8b 49 04	 mov	 ecx, DWORD PTR [ecx+4]
  00006	8b 45 08	 mov	 eax, DWORD PTR ___$ReturnUdt$[ebp]
  00009	89 08		 mov	 DWORD PTR [eax], ecx

; 798  : 		}

  0000b	5d		 pop	 ebp
  0000c	c2 04 00	 ret	 4
?end@?$vector@UForceInfo@@V?$allocator@UForceInfo@@@std@@@std@@QBE?AV?$_Vector_const_iterator@V?$_Vector_val@UForceInfo@@V?$allocator@UForceInfo@@@std@@@std@@@2@XZ ENDP ; std::vector<ForceInfo,std::allocator<ForceInfo> >::end
_TEXT	ENDS
PUBLIC	__$ArrayPad$
PUBLIC	??$LoadFloat_e@$0BG@@ioINILoader@@QAEMAAY0BG@$$CBDM@Z ; ioINILoader::LoadFloat_e<22>
EXTRN	__imp_?LoadFloat@ioINILoader@@QAEMPBDM@Z:PROC
; Function compile flags: /Ogsp
; File d:\lost saga for developer\youtube\tutorial\source\src\io3dengine\ioiniloader.h
;	COMDAT ??$LoadFloat_e@$0BG@@ioINILoader@@QAEMAAY0BG@$$CBDM@Z
_TEXT	SEGMENT
__k$ = -32						; size = 22
__$ArrayPad$ = -4					; size = 4
_k$ = 8							; size = 4
_f$ = 12						; size = 4
??$LoadFloat_e@$0BG@@ioINILoader@@QAEMAAY0BG@$$CBDM@Z PROC ; ioINILoader::LoadFloat_e<22>, COMDAT
; _this$ = ecx

; 135  : 	{

  00000	55		 push	 ebp
  00001	8b ec		 mov	 ebp, esp
  00003	83 ec 20	 sub	 esp, 32			; 00000020H
  00006	a1 00 00 00 00	 mov	 eax, DWORD PTR ___security_cookie
  0000b	33 c5		 xor	 eax, ebp
  0000d	89 45 fc	 mov	 DWORD PTR __$ArrayPad$[ebp], eax
  00010	8b 45 08	 mov	 eax, DWORD PTR _k$[ebp]

; 136  : 		_ENCSTR(k, _k);

  00013	8a 10		 mov	 dl, BYTE PTR [eax]
  00015	53		 push	 ebx
  00016	56		 push	 esi
  00017	8b f1		 mov	 esi, ecx
  00019	84 d2		 test	 dl, dl
  0001b	0f 84 15 02 00
	00		 je	 $LN96@LoadFloat_
  00021	80 f2 ed	 xor	 dl, -19			; ffffffedH
  00024	88 55 e0	 mov	 BYTE PTR __k$[ebp], dl
  00027	8a 50 01	 mov	 dl, BYTE PTR [eax+1]
  0002a	84 d2		 test	 dl, dl
  0002c	0f 84 fe 01 00
	00		 je	 $LN95@LoadFloat_
  00032	80 f2 ec	 xor	 dl, -20			; ffffffecH
  00035	88 55 e1	 mov	 BYTE PTR __k$[ebp+1], dl
  00038	8a 50 02	 mov	 dl, BYTE PTR [eax+2]
  0003b	84 d2		 test	 dl, dl
  0003d	0f 84 e7 01 00
	00		 je	 $LN94@LoadFloat_
  00043	b1 eb		 mov	 cl, -21			; ffffffebH
  00045	32 d1		 xor	 dl, cl
  00047	88 55 e2	 mov	 BYTE PTR __k$[ebp+2], dl
  0004a	8a 50 03	 mov	 dl, BYTE PTR [eax+3]
  0004d	84 d2		 test	 dl, dl
  0004f	0f 84 cf 01 00
	00		 je	 $LN93@LoadFloat_
  00055	b3 ea		 mov	 bl, -22			; ffffffeaH
  00057	32 d3		 xor	 dl, bl
  00059	88 55 e3	 mov	 BYTE PTR __k$[ebp+3], dl
  0005c	8a 50 04	 mov	 dl, BYTE PTR [eax+4]
  0005f	84 d2		 test	 dl, dl
  00061	0f 84 b7 01 00
	00		 je	 $LN92@LoadFloat_
  00067	80 f2 ed	 xor	 dl, -19			; ffffffedH
  0006a	88 55 e4	 mov	 BYTE PTR __k$[ebp+4], dl
  0006d	8a 50 05	 mov	 dl, BYTE PTR [eax+5]
  00070	84 d2		 test	 dl, dl
  00072	0f 84 a0 01 00
	00		 je	 $LN91@LoadFloat_
  00078	80 f2 ec	 xor	 dl, -20			; ffffffecH
  0007b	88 55 e5	 mov	 BYTE PTR __k$[ebp+5], dl
  0007e	8a 50 06	 mov	 dl, BYTE PTR [eax+6]
  00081	84 d2		 test	 dl, dl
  00083	0f 84 8a 01 00
	00		 je	 $LN90@LoadFloat_
  00089	32 d1		 xor	 dl, cl
  0008b	88 55 e6	 mov	 BYTE PTR __k$[ebp+6], dl
  0008e	8a 50 07	 mov	 dl, BYTE PTR [eax+7]
  00091	84 d2		 test	 dl, dl
  00093	0f 84 75 01 00
	00		 je	 $LN89@LoadFloat_
  00099	32 d3		 xor	 dl, bl
  0009b	88 55 e7	 mov	 BYTE PTR __k$[ebp+7], dl
  0009e	8a 50 08	 mov	 dl, BYTE PTR [eax+8]
  000a1	84 d2		 test	 dl, dl
  000a3	0f 84 5f 01 00
	00		 je	 $LN88@LoadFloat_
  000a9	80 f2 ed	 xor	 dl, -19			; ffffffedH
  000ac	88 55 e8	 mov	 BYTE PTR __k$[ebp+8], dl
  000af	8a 50 09	 mov	 dl, BYTE PTR [eax+9]
  000b2	84 d2		 test	 dl, dl
  000b4	0f 84 48 01 00
	00		 je	 $LN87@LoadFloat_
  000ba	80 f2 ec	 xor	 dl, -20			; ffffffecH
  000bd	88 55 e9	 mov	 BYTE PTR __k$[ebp+9], dl
  000c0	8a 50 0a	 mov	 dl, BYTE PTR [eax+10]
  000c3	84 d2		 test	 dl, dl
  000c5	0f 84 32 01 00
	00		 je	 $LN86@LoadFloat_
  000cb	32 d1		 xor	 dl, cl
  000cd	88 55 ea	 mov	 BYTE PTR __k$[ebp+10], dl
  000d0	8a 50 0b	 mov	 dl, BYTE PTR [eax+11]
  000d3	84 d2		 test	 dl, dl
  000d5	0f 84 1d 01 00
	00		 je	 $LN85@LoadFloat_
  000db	32 d3		 xor	 dl, bl
  000dd	88 55 eb	 mov	 BYTE PTR __k$[ebp+11], dl
  000e0	8a 50 0c	 mov	 dl, BYTE PTR [eax+12]
  000e3	84 d2		 test	 dl, dl
  000e5	0f 84 07 01 00
	00		 je	 $LN84@LoadFloat_
  000eb	80 f2 ed	 xor	 dl, -19			; ffffffedH
  000ee	88 55 ec	 mov	 BYTE PTR __k$[ebp+12], dl
  000f1	8a 50 0d	 mov	 dl, BYTE PTR [eax+13]
  000f4	84 d2		 test	 dl, dl
  000f6	0f 84 f0 00 00
	00		 je	 $LN83@LoadFloat_
  000fc	80 f2 ec	 xor	 dl, -20			; ffffffecH
  000ff	88 55 ed	 mov	 BYTE PTR __k$[ebp+13], dl
  00102	8a 50 0e	 mov	 dl, BYTE PTR [eax+14]
  00105	84 d2		 test	 dl, dl
  00107	0f 84 da 00 00
	00		 je	 $LN82@LoadFloat_
  0010d	32 d1		 xor	 dl, cl
  0010f	88 55 ee	 mov	 BYTE PTR __k$[ebp+14], dl
  00112	8a 50 0f	 mov	 dl, BYTE PTR [eax+15]
  00115	84 d2		 test	 dl, dl
  00117	0f 84 c5 00 00
	00		 je	 $LN81@LoadFloat_
  0011d	32 d3		 xor	 dl, bl
  0011f	88 55 ef	 mov	 BYTE PTR __k$[ebp+15], dl
  00122	8a 50 10	 mov	 dl, BYTE PTR [eax+16]
  00125	84 d2		 test	 dl, dl
  00127	0f 84 af 00 00
	00		 je	 $LN80@LoadFloat_
  0012d	80 f2 ed	 xor	 dl, -19			; ffffffedH
  00130	88 55 f0	 mov	 BYTE PTR __k$[ebp+16], dl
  00133	8a 50 11	 mov	 dl, BYTE PTR [eax+17]
  00136	84 d2		 test	 dl, dl
  00138	0f 84 98 00 00
	00		 je	 $LN79@LoadFloat_
  0013e	80 f2 ec	 xor	 dl, -20			; ffffffecH
  00141	88 55 f1	 mov	 BYTE PTR __k$[ebp+17], dl
  00144	8a 50 12	 mov	 dl, BYTE PTR [eax+18]
  00147	84 d2		 test	 dl, dl
  00149	0f 84 82 00 00
	00		 je	 $LN78@LoadFloat_
  0014f	32 d1		 xor	 dl, cl
  00151	88 55 f2	 mov	 BYTE PTR __k$[ebp+18], dl
  00154	8a 50 13	 mov	 dl, BYTE PTR [eax+19]
  00157	84 d2		 test	 dl, dl
  00159	74 71		 je	 SHORT $LN77@LoadFloat_
  0015b	32 d3		 xor	 dl, bl
  0015d	88 55 f3	 mov	 BYTE PTR __k$[ebp+19], dl
  00160	8a 50 14	 mov	 dl, BYTE PTR [eax+20]
  00163	84 d2		 test	 dl, dl
  00165	74 5f		 je	 SHORT $LN76@LoadFloat_
  00167	80 f2 ed	 xor	 dl, -19			; ffffffedH
  0016a	80 78 15 00	 cmp	 BYTE PTR [eax+21], 0
  0016e	88 55 f4	 mov	 BYTE PTR __k$[ebp+20], dl
  00171	0f 84 c3 00 00
	00		 je	 $LN1@LoadFloat_
  00177	8a 50 16	 mov	 dl, BYTE PTR [eax+22]
  0017a	84 d2		 test	 dl, dl
  0017c	74 43		 je	 SHORT $LN74@LoadFloat_
  0017e	32 d1		 xor	 dl, cl
  00180	88 55 f6	 mov	 BYTE PTR __k$[ebp+22], dl
  00183	8a 50 17	 mov	 dl, BYTE PTR [eax+23]
  00186	84 d2		 test	 dl, dl
  00188	74 32		 je	 SHORT $LN73@LoadFloat_
  0018a	32 d3		 xor	 dl, bl
  0018c	88 55 f7	 mov	 BYTE PTR __k$[ebp+23], dl
  0018f	8a 50 18	 mov	 dl, BYTE PTR [eax+24]
  00192	84 d2		 test	 dl, dl
  00194	74 20		 je	 SHORT $LN72@LoadFloat_
  00196	8a 40 19	 mov	 al, BYTE PTR [eax+25]
  00199	80 f2 ed	 xor	 dl, -19			; ffffffedH
  0019c	88 55 f8	 mov	 BYTE PTR __k$[ebp+24], dl
  0019f	84 c0		 test	 al, al
  001a1	74 0a		 je	 SHORT $LN71@LoadFloat_
  001a3	34 ec		 xor	 al, -20			; ffffffecH
  001a5	88 45 f9	 mov	 BYTE PTR __k$[ebp+25], al
  001a8	e9 8d 00 00 00	 jmp	 $LN1@LoadFloat_
$LN71@LoadFloat_:
  001ad	c6 45 f9 ec	 mov	 BYTE PTR __k$[ebp+25], -20 ; ffffffecH
  001b1	e9 84 00 00 00	 jmp	 $LN1@LoadFloat_
$LN72@LoadFloat_:
  001b6	c6 45 f8 ed	 mov	 BYTE PTR __k$[ebp+24], -19 ; ffffffedH
  001ba	eb 7e		 jmp	 SHORT $LN1@LoadFloat_
$LN73@LoadFloat_:
  001bc	88 5d f7	 mov	 BYTE PTR __k$[ebp+23], bl
  001bf	eb 79		 jmp	 SHORT $LN1@LoadFloat_
$LN74@LoadFloat_:
  001c1	88 4d f6	 mov	 BYTE PTR __k$[ebp+22], cl
  001c4	eb 74		 jmp	 SHORT $LN1@LoadFloat_
$LN76@LoadFloat_:
  001c6	c6 45 f4 ed	 mov	 BYTE PTR __k$[ebp+20], -19 ; ffffffedH
  001ca	eb 6e		 jmp	 SHORT $LN1@LoadFloat_
$LN77@LoadFloat_:
  001cc	88 5d f3	 mov	 BYTE PTR __k$[ebp+19], bl
  001cf	eb 69		 jmp	 SHORT $LN1@LoadFloat_
$LN78@LoadFloat_:
  001d1	88 4d f2	 mov	 BYTE PTR __k$[ebp+18], cl
  001d4	eb 64		 jmp	 SHORT $LN1@LoadFloat_
$LN79@LoadFloat_:
  001d6	c6 45 f1 ec	 mov	 BYTE PTR __k$[ebp+17], -20 ; ffffffecH
  001da	eb 5e		 jmp	 SHORT $LN1@LoadFloat_
$LN80@LoadFloat_:
  001dc	c6 45 f0 ed	 mov	 BYTE PTR __k$[ebp+16], -19 ; ffffffedH
  001e0	eb 58		 jmp	 SHORT $LN1@LoadFloat_
$LN81@LoadFloat_:
  001e2	88 5d ef	 mov	 BYTE PTR __k$[ebp+15], bl
  001e5	eb 53		 jmp	 SHORT $LN1@LoadFloat_
$LN82@LoadFloat_:
  001e7	88 4d ee	 mov	 BYTE PTR __k$[ebp+14], cl
  001ea	eb 4e		 jmp	 SHORT $LN1@LoadFloat_
$LN83@LoadFloat_:
  001ec	c6 45 ed ec	 mov	 BYTE PTR __k$[ebp+13], -20 ; ffffffecH
  001f0	eb 48		 jmp	 SHORT $LN1@LoadFloat_
$LN84@LoadFloat_:
  001f2	c6 45 ec ed	 mov	 BYTE PTR __k$[ebp+12], -19 ; ffffffedH
  001f6	eb 42		 jmp	 SHORT $LN1@LoadFloat_
$LN85@LoadFloat_:
  001f8	88 5d eb	 mov	 BYTE PTR __k$[ebp+11], bl
  001fb	eb 3d		 jmp	 SHORT $LN1@LoadFloat_
$LN86@LoadFloat_:
  001fd	88 4d ea	 mov	 BYTE PTR __k$[ebp+10], cl
  00200	eb 38		 jmp	 SHORT $LN1@LoadFloat_
$LN87@LoadFloat_:
  00202	c6 45 e9 ec	 mov	 BYTE PTR __k$[ebp+9], -20 ; ffffffecH
  00206	eb 32		 jmp	 SHORT $LN1@LoadFloat_
$LN88@LoadFloat_:
  00208	c6 45 e8 ed	 mov	 BYTE PTR __k$[ebp+8], -19 ; ffffffedH
  0020c	eb 2c		 jmp	 SHORT $LN1@LoadFloat_
$LN89@LoadFloat_:
  0020e	88 5d e7	 mov	 BYTE PTR __k$[ebp+7], bl
  00211	eb 27		 jmp	 SHORT $LN1@LoadFloat_
$LN90@LoadFloat_:
  00213	88 4d e6	 mov	 BYTE PTR __k$[ebp+6], cl
  00216	eb 22		 jmp	 SHORT $LN1@LoadFloat_
$LN91@LoadFloat_:
  00218	c6 45 e5 ec	 mov	 BYTE PTR __k$[ebp+5], -20 ; ffffffecH
  0021c	eb 1c		 jmp	 SHORT $LN1@LoadFloat_
$LN92@LoadFloat_:
  0021e	c6 45 e4 ed	 mov	 BYTE PTR __k$[ebp+4], -19 ; ffffffedH
  00222	eb 16		 jmp	 SHORT $LN1@LoadFloat_
$LN93@LoadFloat_:
  00224	c6 45 e3 ea	 mov	 BYTE PTR __k$[ebp+3], -22 ; ffffffeaH
  00228	eb 10		 jmp	 SHORT $LN1@LoadFloat_
$LN94@LoadFloat_:
  0022a	c6 45 e2 eb	 mov	 BYTE PTR __k$[ebp+2], -21 ; ffffffebH
  0022e	eb 0a		 jmp	 SHORT $LN1@LoadFloat_
$LN95@LoadFloat_:
  00230	c6 45 e1 ec	 mov	 BYTE PTR __k$[ebp+1], -20 ; ffffffecH
  00234	eb 04		 jmp	 SHORT $LN1@LoadFloat_
$LN96@LoadFloat_:
  00236	c6 45 e0 ed	 mov	 BYTE PTR __k$[ebp], -19	; ffffffedH
$LN1@LoadFloat_:
  0023a	6a 05		 push	 5
  0023c	8d 45 e0	 lea	 eax, DWORD PTR __k$[ebp]
  0023f	c6 45 f5 00	 mov	 BYTE PTR __k$[ebp+21], 0
  00243	5a		 pop	 edx
$LL104@LoadFloat_:
  00244	81 30 ed ec eb
	ea		 xor	 DWORD PTR [eax], -353637139 ; eaebecedH
  0024a	83 c0 04	 add	 eax, 4
  0024d	4a		 dec	 edx
  0024e	75 f4		 jne	 SHORT $LL104@LoadFloat_

; 137  : 		return LoadFloat(_k, f);

  00250	f3 0f 10 45 0c	 movss	 xmm0, DWORD PTR _f$[ebp]
  00255	80 75 f4 ed	 xor	 BYTE PTR __k$[ebp+20], -19 ; ffffffedH
  00259	51		 push	 ecx
  0025a	8d 45 e0	 lea	 eax, DWORD PTR __k$[ebp]
  0025d	f3 0f 11 04 24	 movss	 DWORD PTR [esp], xmm0
  00262	50		 push	 eax
  00263	8b ce		 mov	 ecx, esi
  00265	ff 15 00 00 00
	00		 call	 DWORD PTR __imp_?LoadFloat@ioINILoader@@QAEMPBDM@Z

; 138  : 	}

  0026b	8b 4d fc	 mov	 ecx, DWORD PTR __$ArrayPad$[ebp]
  0026e	5e		 pop	 esi
  0026f	33 cd		 xor	 ecx, ebp
  00271	5b		 pop	 ebx
  00272	e8 00 00 00 00	 call	 @__security_check_cookie@4
  00277	c9		 leave
  00278	c2 08 00	 ret	 8
??$LoadFloat_e@$0BG@@ioINILoader@@QAEMAAY0BG@$$CBDM@Z ENDP ; ioINILoader::LoadFloat_e<22>
_TEXT	ENDS
PUBLIC	__$ArrayPad$
PUBLIC	??$LoadInt_e@$0BB@@ioINILoader@@QAEHAAY0BB@$$CBDH@Z ; ioINILoader::LoadInt_e<17>
EXTRN	__imp_?LoadInt@ioINILoader@@QAEHPBDH@Z:PROC
; Function compile flags: /Ogsp
;	COMDAT ??$LoadInt_e@$0BB@@ioINILoader@@QAEHAAY0BB@$$CBDH@Z
_TEXT	SEGMENT
__k$ = -28						; size = 17
__$ArrayPad$ = -4					; size = 4
_k$ = 8							; size = 4
_i$ = 12						; size = 4
??$LoadInt_e@$0BB@@ioINILoader@@QAEHAAY0BB@$$CBDH@Z PROC ; ioINILoader::LoadInt_e<17>, COMDAT
; _this$ = ecx

; 118  : 	{

  00000	55		 push	 ebp
  00001	8b ec		 mov	 ebp, esp
  00003	83 ec 1c	 sub	 esp, 28			; 0000001cH
  00006	a1 00 00 00 00	 mov	 eax, DWORD PTR ___security_cookie
  0000b	33 c5		 xor	 eax, ebp
  0000d	89 45 fc	 mov	 DWORD PTR __$ArrayPad$[ebp], eax
  00010	8b 45 08	 mov	 eax, DWORD PTR _k$[ebp]

; 119  : 		_ENCSTR(k, _k);

  00013	8a 10		 mov	 dl, BYTE PTR [eax]
  00015	56		 push	 esi
  00016	8b f1		 mov	 esi, ecx
  00018	84 d2		 test	 dl, dl
  0001a	0f 84 a7 01 00
	00		 je	 $LN96@LoadInt_e
  00020	80 f2 ed	 xor	 dl, -19			; ffffffedH
  00023	88 55 e4	 mov	 BYTE PTR __k$[ebp], dl
  00026	8a 50 01	 mov	 dl, BYTE PTR [eax+1]
  00029	84 d2		 test	 dl, dl
  0002b	0f 84 90 01 00
	00		 je	 $LN95@LoadInt_e
  00031	b1 ec		 mov	 cl, -20			; ffffffecH
  00033	32 d1		 xor	 dl, cl
  00035	88 55 e5	 mov	 BYTE PTR __k$[ebp+1], dl
  00038	8a 50 02	 mov	 dl, BYTE PTR [eax+2]
  0003b	84 d2		 test	 dl, dl
  0003d	0f 84 78 01 00
	00		 je	 $LN94@LoadInt_e
  00043	80 f2 eb	 xor	 dl, -21			; ffffffebH
  00046	88 55 e6	 mov	 BYTE PTR __k$[ebp+2], dl
  00049	8a 50 03	 mov	 dl, BYTE PTR [eax+3]
  0004c	84 d2		 test	 dl, dl
  0004e	0f 84 61 01 00
	00		 je	 $LN93@LoadInt_e
  00054	80 f2 ea	 xor	 dl, -22			; ffffffeaH
  00057	88 55 e7	 mov	 BYTE PTR __k$[ebp+3], dl
  0005a	8a 50 04	 mov	 dl, BYTE PTR [eax+4]
  0005d	84 d2		 test	 dl, dl
  0005f	0f 84 4a 01 00
	00		 je	 $LN92@LoadInt_e
  00065	80 f2 ed	 xor	 dl, -19			; ffffffedH
  00068	88 55 e8	 mov	 BYTE PTR __k$[ebp+4], dl
  0006b	8a 50 05	 mov	 dl, BYTE PTR [eax+5]
  0006e	84 d2		 test	 dl, dl
  00070	0f 84 34 01 00
	00		 je	 $LN91@LoadInt_e
  00076	32 d1		 xor	 dl, cl
  00078	88 55 e9	 mov	 BYTE PTR __k$[ebp+5], dl
  0007b	8a 50 06	 mov	 dl, BYTE PTR [eax+6]
  0007e	84 d2		 test	 dl, dl
  00080	0f 84 1e 01 00
	00		 je	 $LN90@LoadInt_e
  00086	80 f2 eb	 xor	 dl, -21			; ffffffebH
  00089	88 55 ea	 mov	 BYTE PTR __k$[ebp+6], dl
  0008c	8a 50 07	 mov	 dl, BYTE PTR [eax+7]
  0008f	84 d2		 test	 dl, dl
  00091	0f 84 07 01 00
	00		 je	 $LN89@LoadInt_e
  00097	80 f2 ea	 xor	 dl, -22			; ffffffeaH
  0009a	88 55 eb	 mov	 BYTE PTR __k$[ebp+7], dl
  0009d	8a 50 08	 mov	 dl, BYTE PTR [eax+8]
  000a0	84 d2		 test	 dl, dl
  000a2	0f 84 f0 00 00
	00		 je	 $LN88@LoadInt_e
  000a8	80 f2 ed	 xor	 dl, -19			; ffffffedH
  000ab	88 55 ec	 mov	 BYTE PTR __k$[ebp+8], dl
  000ae	8a 50 09	 mov	 dl, BYTE PTR [eax+9]
  000b1	84 d2		 test	 dl, dl
  000b3	0f 84 da 00 00
	00		 je	 $LN87@LoadInt_e
  000b9	32 d1		 xor	 dl, cl
  000bb	88 55 ed	 mov	 BYTE PTR __k$[ebp+9], dl
  000be	8a 50 0a	 mov	 dl, BYTE PTR [eax+10]
  000c1	84 d2		 test	 dl, dl
  000c3	0f 84 c4 00 00
	00		 je	 $LN86@LoadInt_e
  000c9	80 f2 eb	 xor	 dl, -21			; ffffffebH
  000cc	88 55 ee	 mov	 BYTE PTR __k$[ebp+10], dl
  000cf	8a 50 0b	 mov	 dl, BYTE PTR [eax+11]
  000d2	84 d2		 test	 dl, dl
  000d4	0f 84 ad 00 00
	00		 je	 $LN85@LoadInt_e
  000da	80 f2 ea	 xor	 dl, -22			; ffffffeaH
  000dd	88 55 ef	 mov	 BYTE PTR __k$[ebp+11], dl
  000e0	8a 50 0c	 mov	 dl, BYTE PTR [eax+12]
  000e3	84 d2		 test	 dl, dl
  000e5	0f 84 96 00 00
	00		 je	 $LN84@LoadInt_e
  000eb	80 f2 ed	 xor	 dl, -19			; ffffffedH
  000ee	88 55 f0	 mov	 BYTE PTR __k$[ebp+12], dl
  000f1	8a 50 0d	 mov	 dl, BYTE PTR [eax+13]
  000f4	84 d2		 test	 dl, dl
  000f6	0f 84 80 00 00
	00		 je	 $LN83@LoadInt_e
  000fc	32 d1		 xor	 dl, cl
  000fe	88 55 f1	 mov	 BYTE PTR __k$[ebp+13], dl
  00101	8a 50 0e	 mov	 dl, BYTE PTR [eax+14]
  00104	84 d2		 test	 dl, dl
  00106	74 6e		 je	 SHORT $LN82@LoadInt_e
  00108	80 f2 eb	 xor	 dl, -21			; ffffffebH
  0010b	88 55 f2	 mov	 BYTE PTR __k$[ebp+14], dl
  0010e	8a 50 0f	 mov	 dl, BYTE PTR [eax+15]
  00111	84 d2		 test	 dl, dl
  00113	74 5b		 je	 SHORT $LN81@LoadInt_e
  00115	80 f2 ea	 xor	 dl, -22			; ffffffeaH
  00118	80 78 10 00	 cmp	 BYTE PTR [eax+16], 0
  0011c	88 55 f3	 mov	 BYTE PTR __k$[ebp+15], dl
  0011f	0f 84 a6 00 00
	00		 je	 $LN1@LoadInt_e
  00125	8a 50 11	 mov	 dl, BYTE PTR [eax+17]
  00128	84 d2		 test	 dl, dl
  0012a	74 3f		 je	 SHORT $LN79@LoadInt_e
  0012c	32 d1		 xor	 dl, cl
  0012e	88 55 f5	 mov	 BYTE PTR __k$[ebp+17], dl
  00131	8a 50 12	 mov	 dl, BYTE PTR [eax+18]
  00134	84 d2		 test	 dl, dl
  00136	74 2d		 je	 SHORT $LN78@LoadInt_e
  00138	80 f2 eb	 xor	 dl, -21			; ffffffebH
  0013b	88 55 f6	 mov	 BYTE PTR __k$[ebp+18], dl
  0013e	8a 50 13	 mov	 dl, BYTE PTR [eax+19]
  00141	84 d2		 test	 dl, dl
  00143	74 1a		 je	 SHORT $LN77@LoadInt_e
  00145	8a 40 14	 mov	 al, BYTE PTR [eax+20]
  00148	80 f2 ea	 xor	 dl, -22			; ffffffeaH
  0014b	88 55 f7	 mov	 BYTE PTR __k$[ebp+19], dl
  0014e	84 c0		 test	 al, al
  00150	74 07		 je	 SHORT $LN76@LoadInt_e
  00152	34 ed		 xor	 al, -19			; ffffffedH
  00154	88 45 f8	 mov	 BYTE PTR __k$[ebp+20], al
  00157	eb 72		 jmp	 SHORT $LN1@LoadInt_e
$LN76@LoadInt_e:
  00159	c6 45 f8 ed	 mov	 BYTE PTR __k$[ebp+20], -19 ; ffffffedH
  0015d	eb 6c		 jmp	 SHORT $LN1@LoadInt_e
$LN77@LoadInt_e:
  0015f	c6 45 f7 ea	 mov	 BYTE PTR __k$[ebp+19], -22 ; ffffffeaH
  00163	eb 66		 jmp	 SHORT $LN1@LoadInt_e
$LN78@LoadInt_e:
  00165	c6 45 f6 eb	 mov	 BYTE PTR __k$[ebp+18], -21 ; ffffffebH
  00169	eb 60		 jmp	 SHORT $LN1@LoadInt_e
$LN79@LoadInt_e:
  0016b	88 4d f5	 mov	 BYTE PTR __k$[ebp+17], cl
  0016e	eb 5b		 jmp	 SHORT $LN1@LoadInt_e
$LN81@LoadInt_e:
  00170	c6 45 f3 ea	 mov	 BYTE PTR __k$[ebp+15], -22 ; ffffffeaH
  00174	eb 55		 jmp	 SHORT $LN1@LoadInt_e
$LN82@LoadInt_e:
  00176	c6 45 f2 eb	 mov	 BYTE PTR __k$[ebp+14], -21 ; ffffffebH
  0017a	eb 4f		 jmp	 SHORT $LN1@LoadInt_e
$LN83@LoadInt_e:
  0017c	88 4d f1	 mov	 BYTE PTR __k$[ebp+13], cl
  0017f	eb 4a		 jmp	 SHORT $LN1@LoadInt_e
$LN84@LoadInt_e:
  00181	c6 45 f0 ed	 mov	 BYTE PTR __k$[ebp+12], -19 ; ffffffedH
  00185	eb 44		 jmp	 SHORT $LN1@LoadInt_e
$LN85@LoadInt_e:
  00187	c6 45 ef ea	 mov	 BYTE PTR __k$[ebp+11], -22 ; ffffffeaH
  0018b	eb 3e		 jmp	 SHORT $LN1@LoadInt_e
$LN86@LoadInt_e:
  0018d	c6 45 ee eb	 mov	 BYTE PTR __k$[ebp+10], -21 ; ffffffebH
  00191	eb 38		 jmp	 SHORT $LN1@LoadInt_e
$LN87@LoadInt_e:
  00193	88 4d ed	 mov	 BYTE PTR __k$[ebp+9], cl
  00196	eb 33		 jmp	 SHORT $LN1@LoadInt_e
$LN88@LoadInt_e:
  00198	c6 45 ec ed	 mov	 BYTE PTR __k$[ebp+8], -19 ; ffffffedH
  0019c	eb 2d		 jmp	 SHORT $LN1@LoadInt_e
$LN89@LoadInt_e:
  0019e	c6 45 eb ea	 mov	 BYTE PTR __k$[ebp+7], -22 ; ffffffeaH
  001a2	eb 27		 jmp	 SHORT $LN1@LoadInt_e
$LN90@LoadInt_e:
  001a4	c6 45 ea eb	 mov	 BYTE PTR __k$[ebp+6], -21 ; ffffffebH
  001a8	eb 21		 jmp	 SHORT $LN1@LoadInt_e
$LN91@LoadInt_e:
  001aa	88 4d e9	 mov	 BYTE PTR __k$[ebp+5], cl
  001ad	eb 1c		 jmp	 SHORT $LN1@LoadInt_e
$LN92@LoadInt_e:
  001af	c6 45 e8 ed	 mov	 BYTE PTR __k$[ebp+4], -19 ; ffffffedH
  001b3	eb 16		 jmp	 SHORT $LN1@LoadInt_e
$LN93@LoadInt_e:
  001b5	c6 45 e7 ea	 mov	 BYTE PTR __k$[ebp+3], -22 ; ffffffeaH
  001b9	eb 10		 jmp	 SHORT $LN1@LoadInt_e
$LN94@LoadInt_e:
  001bb	c6 45 e6 eb	 mov	 BYTE PTR __k$[ebp+2], -21 ; ffffffebH
  001bf	eb 0a		 jmp	 SHORT $LN1@LoadInt_e
$LN95@LoadInt_e:
  001c1	c6 45 e5 ec	 mov	 BYTE PTR __k$[ebp+1], -20 ; ffffffecH
  001c5	eb 04		 jmp	 SHORT $LN1@LoadInt_e
$LN96@LoadInt_e:
  001c7	c6 45 e4 ed	 mov	 BYTE PTR __k$[ebp], -19	; ffffffedH
$LN1@LoadInt_e:
  001cb	6a 04		 push	 4
  001cd	8d 45 e4	 lea	 eax, DWORD PTR __k$[ebp]
  001d0	c6 45 f4 00	 mov	 BYTE PTR __k$[ebp+16], 0
  001d4	5a		 pop	 edx
$LL104@LoadInt_e:
  001d5	81 30 ed ec eb
	ea		 xor	 DWORD PTR [eax], -353637139 ; eaebecedH
  001db	83 c0 04	 add	 eax, 4
  001de	4a		 dec	 edx
  001df	75 f4		 jne	 SHORT $LL104@LoadInt_e

; 120  : 		return LoadInt(_k, i);

  001e1	ff 75 0c	 push	 DWORD PTR _i$[ebp]
  001e4	8d 45 e4	 lea	 eax, DWORD PTR __k$[ebp]
  001e7	50		 push	 eax
  001e8	8b ce		 mov	 ecx, esi
  001ea	ff 15 00 00 00
	00		 call	 DWORD PTR __imp_?LoadInt@ioINILoader@@QAEHPBDH@Z

; 121  : 	}

  001f0	8b 4d fc	 mov	 ecx, DWORD PTR __$ArrayPad$[ebp]
  001f3	33 cd		 xor	 ecx, ebp
  001f5	5e		 pop	 esi
  001f6	e8 00 00 00 00	 call	 @__security_check_cookie@4
  001fb	c9		 leave
  001fc	c2 08 00	 ret	 8
??$LoadInt_e@$0BB@@ioINILoader@@QAEHAAY0BB@$$CBDH@Z ENDP ; ioINILoader::LoadInt_e<17>
_TEXT	ENDS
PUBLIC	__$ArrayPad$
PUBLIC	??$LoadInt_e@$0BD@@ioINILoader@@QAEHAAY0BD@$$CBDH@Z ; ioINILoader::LoadInt_e<19>
; Function compile flags: /Ogsp
;	COMDAT ??$LoadInt_e@$0BD@@ioINILoader@@QAEHAAY0BD@$$CBDH@Z
_TEXT	SEGMENT
__k$ = -28						; size = 19
__$ArrayPad$ = -4					; size = 4
_k$ = 8							; size = 4
_i$ = 12						; size = 4
??$LoadInt_e@$0BD@@ioINILoader@@QAEHAAY0BD@$$CBDH@Z PROC ; ioINILoader::LoadInt_e<19>, COMDAT
; _this$ = ecx

; 118  : 	{

  00000	55		 push	 ebp
  00001	8b ec		 mov	 ebp, esp
  00003	83 ec 1c	 sub	 esp, 28			; 0000001cH
  00006	a1 00 00 00 00	 mov	 eax, DWORD PTR ___security_cookie
  0000b	33 c5		 xor	 eax, ebp
  0000d	89 45 fc	 mov	 DWORD PTR __$ArrayPad$[ebp], eax
  00010	8b 45 08	 mov	 eax, DWORD PTR _k$[ebp]

; 119  : 		_ENCSTR(k, _k);

  00013	8a 10		 mov	 dl, BYTE PTR [eax]
  00015	56		 push	 esi
  00016	8b f1		 mov	 esi, ecx
  00018	84 d2		 test	 dl, dl
  0001a	0f 84 cf 01 00
	00		 je	 $LN96@LoadInt_e@2
  00020	80 f2 ed	 xor	 dl, -19			; ffffffedH
  00023	88 55 e4	 mov	 BYTE PTR __k$[ebp], dl
  00026	8a 50 01	 mov	 dl, BYTE PTR [eax+1]
  00029	84 d2		 test	 dl, dl
  0002b	0f 84 b8 01 00
	00		 je	 $LN95@LoadInt_e@2
  00031	b1 ec		 mov	 cl, -20			; ffffffecH
  00033	32 d1		 xor	 dl, cl
  00035	88 55 e5	 mov	 BYTE PTR __k$[ebp+1], dl
  00038	8a 50 02	 mov	 dl, BYTE PTR [eax+2]
  0003b	84 d2		 test	 dl, dl
  0003d	0f 84 a0 01 00
	00		 je	 $LN94@LoadInt_e@2
  00043	80 f2 eb	 xor	 dl, -21			; ffffffebH
  00046	88 55 e6	 mov	 BYTE PTR __k$[ebp+2], dl
  00049	8a 50 03	 mov	 dl, BYTE PTR [eax+3]
  0004c	84 d2		 test	 dl, dl
  0004e	0f 84 89 01 00
	00		 je	 $LN93@LoadInt_e@2
  00054	80 f2 ea	 xor	 dl, -22			; ffffffeaH
  00057	88 55 e7	 mov	 BYTE PTR __k$[ebp+3], dl
  0005a	8a 50 04	 mov	 dl, BYTE PTR [eax+4]
  0005d	84 d2		 test	 dl, dl
  0005f	0f 84 72 01 00
	00		 je	 $LN92@LoadInt_e@2
  00065	80 f2 ed	 xor	 dl, -19			; ffffffedH
  00068	88 55 e8	 mov	 BYTE PTR __k$[ebp+4], dl
  0006b	8a 50 05	 mov	 dl, BYTE PTR [eax+5]
  0006e	84 d2		 test	 dl, dl
  00070	0f 84 5c 01 00
	00		 je	 $LN91@LoadInt_e@2
  00076	32 d1		 xor	 dl, cl
  00078	88 55 e9	 mov	 BYTE PTR __k$[ebp+5], dl
  0007b	8a 50 06	 mov	 dl, BYTE PTR [eax+6]
  0007e	84 d2		 test	 dl, dl
  00080	0f 84 46 01 00
	00		 je	 $LN90@LoadInt_e@2
  00086	80 f2 eb	 xor	 dl, -21			; ffffffebH
  00089	88 55 ea	 mov	 BYTE PTR __k$[ebp+6], dl
  0008c	8a 50 07	 mov	 dl, BYTE PTR [eax+7]
  0008f	84 d2		 test	 dl, dl
  00091	0f 84 2f 01 00
	00		 je	 $LN89@LoadInt_e@2
  00097	80 f2 ea	 xor	 dl, -22			; ffffffeaH
  0009a	88 55 eb	 mov	 BYTE PTR __k$[ebp+7], dl
  0009d	8a 50 08	 mov	 dl, BYTE PTR [eax+8]
  000a0	84 d2		 test	 dl, dl
  000a2	0f 84 18 01 00
	00		 je	 $LN88@LoadInt_e@2
  000a8	80 f2 ed	 xor	 dl, -19			; ffffffedH
  000ab	88 55 ec	 mov	 BYTE PTR __k$[ebp+8], dl
  000ae	8a 50 09	 mov	 dl, BYTE PTR [eax+9]
  000b1	84 d2		 test	 dl, dl
  000b3	0f 84 02 01 00
	00		 je	 $LN87@LoadInt_e@2
  000b9	32 d1		 xor	 dl, cl
  000bb	88 55 ed	 mov	 BYTE PTR __k$[ebp+9], dl
  000be	8a 50 0a	 mov	 dl, BYTE PTR [eax+10]
  000c1	84 d2		 test	 dl, dl
  000c3	0f 84 ec 00 00
	00		 je	 $LN86@LoadInt_e@2
  000c9	80 f2 eb	 xor	 dl, -21			; ffffffebH
  000cc	88 55 ee	 mov	 BYTE PTR __k$[ebp+10], dl
  000cf	8a 50 0b	 mov	 dl, BYTE PTR [eax+11]
  000d2	84 d2		 test	 dl, dl
  000d4	0f 84 d5 00 00
	00		 je	 $LN85@LoadInt_e@2
  000da	80 f2 ea	 xor	 dl, -22			; ffffffeaH
  000dd	88 55 ef	 mov	 BYTE PTR __k$[ebp+11], dl
  000e0	8a 50 0c	 mov	 dl, BYTE PTR [eax+12]
  000e3	84 d2		 test	 dl, dl
  000e5	0f 84 be 00 00
	00		 je	 $LN84@LoadInt_e@2
  000eb	80 f2 ed	 xor	 dl, -19			; ffffffedH
  000ee	88 55 f0	 mov	 BYTE PTR __k$[ebp+12], dl
  000f1	8a 50 0d	 mov	 dl, BYTE PTR [eax+13]
  000f4	84 d2		 test	 dl, dl
  000f6	0f 84 a8 00 00
	00		 je	 $LN83@LoadInt_e@2
  000fc	32 d1		 xor	 dl, cl
  000fe	88 55 f1	 mov	 BYTE PTR __k$[ebp+13], dl
  00101	8a 50 0e	 mov	 dl, BYTE PTR [eax+14]
  00104	84 d2		 test	 dl, dl
  00106	0f 84 92 00 00
	00		 je	 $LN82@LoadInt_e@2
  0010c	80 f2 eb	 xor	 dl, -21			; ffffffebH
  0010f	88 55 f2	 mov	 BYTE PTR __k$[ebp+14], dl
  00112	8a 50 0f	 mov	 dl, BYTE PTR [eax+15]
  00115	84 d2		 test	 dl, dl
  00117	74 7f		 je	 SHORT $LN81@LoadInt_e@2
  00119	80 f2 ea	 xor	 dl, -22			; ffffffeaH
  0011c	88 55 f3	 mov	 BYTE PTR __k$[ebp+15], dl
  0011f	8a 50 10	 mov	 dl, BYTE PTR [eax+16]
  00122	84 d2		 test	 dl, dl
  00124	74 6c		 je	 SHORT $LN80@LoadInt_e@2
  00126	80 f2 ed	 xor	 dl, -19			; ffffffedH
  00129	88 55 f4	 mov	 BYTE PTR __k$[ebp+16], dl
  0012c	8a 50 11	 mov	 dl, BYTE PTR [eax+17]
  0012f	84 d2		 test	 dl, dl
  00131	74 5a		 je	 SHORT $LN79@LoadInt_e@2
  00133	32 d1		 xor	 dl, cl
  00135	80 78 12 00	 cmp	 BYTE PTR [eax+18], 0
  00139	88 55 f5	 mov	 BYTE PTR __k$[ebp+17], dl
  0013c	0f 84 b1 00 00
	00		 je	 $LN1@LoadInt_e@2
  00142	8a 50 13	 mov	 dl, BYTE PTR [eax+19]
  00145	84 d2		 test	 dl, dl
  00147	74 3e		 je	 SHORT $LN77@LoadInt_e@2
  00149	80 f2 ea	 xor	 dl, -22			; ffffffeaH
  0014c	88 55 f7	 mov	 BYTE PTR __k$[ebp+19], dl
  0014f	8a 50 14	 mov	 dl, BYTE PTR [eax+20]
  00152	84 d2		 test	 dl, dl
  00154	74 2b		 je	 SHORT $LN76@LoadInt_e@2
  00156	80 f2 ed	 xor	 dl, -19			; ffffffedH
  00159	88 55 f8	 mov	 BYTE PTR __k$[ebp+20], dl
  0015c	8a 50 15	 mov	 dl, BYTE PTR [eax+21]
  0015f	84 d2		 test	 dl, dl
  00161	74 19		 je	 SHORT $LN75@LoadInt_e@2
  00163	8a 40 16	 mov	 al, BYTE PTR [eax+22]
  00166	32 d1		 xor	 dl, cl
  00168	88 55 f9	 mov	 BYTE PTR __k$[ebp+21], dl
  0016b	84 c0		 test	 al, al
  0016d	74 07		 je	 SHORT $LN74@LoadInt_e@2
  0016f	34 eb		 xor	 al, -21			; ffffffebH
  00171	88 45 fa	 mov	 BYTE PTR __k$[ebp+22], al
  00174	eb 7d		 jmp	 SHORT $LN1@LoadInt_e@2
$LN74@LoadInt_e@2:
  00176	c6 45 fa eb	 mov	 BYTE PTR __k$[ebp+22], -21 ; ffffffebH
  0017a	eb 77		 jmp	 SHORT $LN1@LoadInt_e@2
$LN75@LoadInt_e@2:
  0017c	88 4d f9	 mov	 BYTE PTR __k$[ebp+21], cl
  0017f	eb 72		 jmp	 SHORT $LN1@LoadInt_e@2
$LN76@LoadInt_e@2:
  00181	c6 45 f8 ed	 mov	 BYTE PTR __k$[ebp+20], -19 ; ffffffedH
  00185	eb 6c		 jmp	 SHORT $LN1@LoadInt_e@2
$LN77@LoadInt_e@2:
  00187	c6 45 f7 ea	 mov	 BYTE PTR __k$[ebp+19], -22 ; ffffffeaH
  0018b	eb 66		 jmp	 SHORT $LN1@LoadInt_e@2
$LN79@LoadInt_e@2:
  0018d	88 4d f5	 mov	 BYTE PTR __k$[ebp+17], cl
  00190	eb 61		 jmp	 SHORT $LN1@LoadInt_e@2
$LN80@LoadInt_e@2:
  00192	c6 45 f4 ed	 mov	 BYTE PTR __k$[ebp+16], -19 ; ffffffedH
  00196	eb 5b		 jmp	 SHORT $LN1@LoadInt_e@2
$LN81@LoadInt_e@2:
  00198	c6 45 f3 ea	 mov	 BYTE PTR __k$[ebp+15], -22 ; ffffffeaH
  0019c	eb 55		 jmp	 SHORT $LN1@LoadInt_e@2
$LN82@LoadInt_e@2:
  0019e	c6 45 f2 eb	 mov	 BYTE PTR __k$[ebp+14], -21 ; ffffffebH
  001a2	eb 4f		 jmp	 SHORT $LN1@LoadInt_e@2
$LN83@LoadInt_e@2:
  001a4	88 4d f1	 mov	 BYTE PTR __k$[ebp+13], cl
  001a7	eb 4a		 jmp	 SHORT $LN1@LoadInt_e@2
$LN84@LoadInt_e@2:
  001a9	c6 45 f0 ed	 mov	 BYTE PTR __k$[ebp+12], -19 ; ffffffedH
  001ad	eb 44		 jmp	 SHORT $LN1@LoadInt_e@2
$LN85@LoadInt_e@2:
  001af	c6 45 ef ea	 mov	 BYTE PTR __k$[ebp+11], -22 ; ffffffeaH
  001b3	eb 3e		 jmp	 SHORT $LN1@LoadInt_e@2
$LN86@LoadInt_e@2:
  001b5	c6 45 ee eb	 mov	 BYTE PTR __k$[ebp+10], -21 ; ffffffebH
  001b9	eb 38		 jmp	 SHORT $LN1@LoadInt_e@2
$LN87@LoadInt_e@2:
  001bb	88 4d ed	 mov	 BYTE PTR __k$[ebp+9], cl
  001be	eb 33		 jmp	 SHORT $LN1@LoadInt_e@2
$LN88@LoadInt_e@2:
  001c0	c6 45 ec ed	 mov	 BYTE PTR __k$[ebp+8], -19 ; ffffffedH
  001c4	eb 2d		 jmp	 SHORT $LN1@LoadInt_e@2
$LN89@LoadInt_e@2:
  001c6	c6 45 eb ea	 mov	 BYTE PTR __k$[ebp+7], -22 ; ffffffeaH
  001ca	eb 27		 jmp	 SHORT $LN1@LoadInt_e@2
$LN90@LoadInt_e@2:
  001cc	c6 45 ea eb	 mov	 BYTE PTR __k$[ebp+6], -21 ; ffffffebH
  001d0	eb 21		 jmp	 SHORT $LN1@LoadInt_e@2
$LN91@LoadInt_e@2:
  001d2	88 4d e9	 mov	 BYTE PTR __k$[ebp+5], cl
  001d5	eb 1c		 jmp	 SHORT $LN1@LoadInt_e@2
$LN92@LoadInt_e@2:
  001d7	c6 45 e8 ed	 mov	 BYTE PTR __k$[ebp+4], -19 ; ffffffedH
  001db	eb 16		 jmp	 SHORT $LN1@LoadInt_e@2
$LN93@LoadInt_e@2:
  001dd	c6 45 e7 ea	 mov	 BYTE PTR __k$[ebp+3], -22 ; ffffffeaH
  001e1	eb 10		 jmp	 SHORT $LN1@LoadInt_e@2
$LN94@LoadInt_e@2:
  001e3	c6 45 e6 eb	 mov	 BYTE PTR __k$[ebp+2], -21 ; ffffffebH
  001e7	eb 0a		 jmp	 SHORT $LN1@LoadInt_e@2
$LN95@LoadInt_e@2:
  001e9	c6 45 e5 ec	 mov	 BYTE PTR __k$[ebp+1], -20 ; ffffffecH
  001ed	eb 04		 jmp	 SHORT $LN1@LoadInt_e@2
$LN96@LoadInt_e@2:
  001ef	c6 45 e4 ed	 mov	 BYTE PTR __k$[ebp], -19	; ffffffedH
$LN1@LoadInt_e@2:
  001f3	6a 04		 push	 4
  001f5	8d 45 e4	 lea	 eax, DWORD PTR __k$[ebp]
  001f8	c6 45 f6 00	 mov	 BYTE PTR __k$[ebp+18], 0
  001fc	5a		 pop	 edx
$LL104@LoadInt_e@2:
  001fd	81 30 ed ec eb
	ea		 xor	 DWORD PTR [eax], -353637139 ; eaebecedH
  00203	83 c0 04	 add	 eax, 4
  00206	4a		 dec	 edx
  00207	75 f4		 jne	 SHORT $LL104@LoadInt_e@2
  00209	6a 10		 push	 16			; 00000010H
  0020b	58		 pop	 eax
$LL101@LoadInt_e@2:
  0020c	8b c8		 mov	 ecx, eax
  0020e	81 e1 03 00 00
	80		 and	 ecx, -2147483645	; 80000003H
  00214	79 05		 jns	 SHORT $LN111@LoadInt_e@2
  00216	49		 dec	 ecx
  00217	83 c9 fc	 or	 ecx, -4			; fffffffcH
  0021a	41		 inc	 ecx
$LN111@LoadInt_e@2:
  0021b	b2 ed		 mov	 dl, -19			; ffffffedH
  0021d	2a d1		 sub	 dl, cl
  0021f	30 54 05 e4	 xor	 BYTE PTR __k$[ebp+eax], dl
  00223	40		 inc	 eax
  00224	83 f8 12	 cmp	 eax, 18			; 00000012H
  00227	7c e3		 jl	 SHORT $LL101@LoadInt_e@2

; 120  : 		return LoadInt(_k, i);

  00229	ff 75 0c	 push	 DWORD PTR _i$[ebp]
  0022c	8d 45 e4	 lea	 eax, DWORD PTR __k$[ebp]
  0022f	50		 push	 eax
  00230	8b ce		 mov	 ecx, esi
  00232	ff 15 00 00 00
	00		 call	 DWORD PTR __imp_?LoadInt@ioINILoader@@QAEHPBDH@Z

; 121  : 	}

  00238	8b 4d fc	 mov	 ecx, DWORD PTR __$ArrayPad$[ebp]
  0023b	33 cd		 xor	 ecx, ebp
  0023d	5e		 pop	 esi
  0023e	e8 00 00 00 00	 call	 @__security_check_cookie@4
  00243	c9		 leave
  00244	c2 08 00	 ret	 8
??$LoadInt_e@$0BD@@ioINILoader@@QAEHAAY0BD@$$CBDH@Z ENDP ; ioINILoader::LoadInt_e<19>
_TEXT	ENDS
PUBLIC	_this$GSCopy$
PUBLIC	__$ArrayPad$
PUBLIC	??$LoadString_e@$0BM@@ioINILoader@@QAEXAAY0BM@$$CBDAAY00$$CBDPADH@Z ; ioINILoader::LoadString_e<28>
EXTRN	__imp_?LoadStringA@ioINILoader@@QAEXPBD0PADH@Z:PROC
; Function compile flags: /Ogsp
;	COMDAT ??$LoadString_e@$0BM@@ioINILoader@@QAEXAAY0BM@$$CBDAAY00$$CBDPADH@Z
_TEXT	SEGMENT
_this$GSCopy$ = -40					; size = 4
__k$ = -36						; size = 28
__$ArrayPad$ = -4					; size = 4
_k$ = 8							; size = 4
_d$ = 12						; size = 4
_b$ = 16						; size = 4
_i$ = 20						; size = 4
??$LoadString_e@$0BM@@ioINILoader@@QAEXAAY0BM@$$CBDAAY00$$CBDPADH@Z PROC ; ioINILoader::LoadString_e<28>, COMDAT
; _this$ = ecx

; 161  : 	{

  00000	55		 push	 ebp
  00001	8b ec		 mov	 ebp, esp
  00003	83 ec 28	 sub	 esp, 40			; 00000028H
  00006	a1 00 00 00 00	 mov	 eax, DWORD PTR ___security_cookie
  0000b	33 c5		 xor	 eax, ebp
  0000d	89 45 fc	 mov	 DWORD PTR __$ArrayPad$[ebp], eax
  00010	8b 45 08	 mov	 eax, DWORD PTR _k$[ebp]

; 162  : 		_ENCSTR(k, _k);

  00013	8a 10		 mov	 dl, BYTE PTR [eax]
  00015	53		 push	 ebx
  00016	56		 push	 esi
  00017	8b 75 0c	 mov	 esi, DWORD PTR _d$[ebp]
  0001a	57		 push	 edi
  0001b	8b 7d 10	 mov	 edi, DWORD PTR _b$[ebp]
  0001e	89 4d d8	 mov	 DWORD PTR _this$GSCopy$[ebp], ecx
  00021	84 d2		 test	 dl, dl
  00023	0f 84 a9 02 00
	00		 je	 $LN96@LoadString
  00029	80 f2 ed	 xor	 dl, -19			; ffffffedH
  0002c	88 55 dc	 mov	 BYTE PTR __k$[ebp], dl
  0002f	8a 50 01	 mov	 dl, BYTE PTR [eax+1]
  00032	84 d2		 test	 dl, dl
  00034	0f 84 92 02 00
	00		 je	 $LN95@LoadString
  0003a	b3 ec		 mov	 bl, -20			; ffffffecH
  0003c	32 d3		 xor	 dl, bl
  0003e	88 55 dd	 mov	 BYTE PTR __k$[ebp+1], dl
  00041	8a 50 02	 mov	 dl, BYTE PTR [eax+2]
  00044	84 d2		 test	 dl, dl
  00046	0f 84 7a 02 00
	00		 je	 $LN94@LoadString
  0004c	b1 eb		 mov	 cl, -21			; ffffffebH
  0004e	32 d1		 xor	 dl, cl
  00050	88 55 de	 mov	 BYTE PTR __k$[ebp+2], dl
  00053	8a 50 03	 mov	 dl, BYTE PTR [eax+3]
  00056	84 d2		 test	 dl, dl
  00058	0f 84 62 02 00
	00		 je	 $LN93@LoadString
  0005e	80 f2 ea	 xor	 dl, -22			; ffffffeaH
  00061	88 55 df	 mov	 BYTE PTR __k$[ebp+3], dl
  00064	8a 50 04	 mov	 dl, BYTE PTR [eax+4]
  00067	84 d2		 test	 dl, dl
  00069	0f 84 4b 02 00
	00		 je	 $LN92@LoadString
  0006f	80 f2 ed	 xor	 dl, -19			; ffffffedH
  00072	88 55 e0	 mov	 BYTE PTR __k$[ebp+4], dl
  00075	8a 50 05	 mov	 dl, BYTE PTR [eax+5]
  00078	84 d2		 test	 dl, dl
  0007a	0f 84 35 02 00
	00		 je	 $LN91@LoadString
  00080	32 d3		 xor	 dl, bl
  00082	88 55 e1	 mov	 BYTE PTR __k$[ebp+5], dl
  00085	8a 50 06	 mov	 dl, BYTE PTR [eax+6]
  00088	84 d2		 test	 dl, dl
  0008a	0f 84 20 02 00
	00		 je	 $LN90@LoadString
  00090	32 d1		 xor	 dl, cl
  00092	88 55 e2	 mov	 BYTE PTR __k$[ebp+6], dl
  00095	8a 50 07	 mov	 dl, BYTE PTR [eax+7]
  00098	84 d2		 test	 dl, dl
  0009a	0f 84 0a 02 00
	00		 je	 $LN89@LoadString
  000a0	80 f2 ea	 xor	 dl, -22			; ffffffeaH
  000a3	88 55 e3	 mov	 BYTE PTR __k$[ebp+7], dl
  000a6	8a 50 08	 mov	 dl, BYTE PTR [eax+8]
  000a9	84 d2		 test	 dl, dl
  000ab	0f 84 f3 01 00
	00		 je	 $LN88@LoadString
  000b1	80 f2 ed	 xor	 dl, -19			; ffffffedH
  000b4	88 55 e4	 mov	 BYTE PTR __k$[ebp+8], dl
  000b7	8a 50 09	 mov	 dl, BYTE PTR [eax+9]
  000ba	84 d2		 test	 dl, dl
  000bc	0f 84 dd 01 00
	00		 je	 $LN87@LoadString
  000c2	32 d3		 xor	 dl, bl
  000c4	88 55 e5	 mov	 BYTE PTR __k$[ebp+9], dl
  000c7	8a 50 0a	 mov	 dl, BYTE PTR [eax+10]
  000ca	84 d2		 test	 dl, dl
  000cc	0f 84 c8 01 00
	00		 je	 $LN86@LoadString
  000d2	32 d1		 xor	 dl, cl
  000d4	88 55 e6	 mov	 BYTE PTR __k$[ebp+10], dl
  000d7	8a 50 0b	 mov	 dl, BYTE PTR [eax+11]
  000da	84 d2		 test	 dl, dl
  000dc	0f 84 b2 01 00
	00		 je	 $LN85@LoadString
  000e2	80 f2 ea	 xor	 dl, -22			; ffffffeaH
  000e5	88 55 e7	 mov	 BYTE PTR __k$[ebp+11], dl
  000e8	8a 50 0c	 mov	 dl, BYTE PTR [eax+12]
  000eb	84 d2		 test	 dl, dl
  000ed	0f 84 9b 01 00
	00		 je	 $LN84@LoadString
  000f3	80 f2 ed	 xor	 dl, -19			; ffffffedH
  000f6	88 55 e8	 mov	 BYTE PTR __k$[ebp+12], dl
  000f9	8a 50 0d	 mov	 dl, BYTE PTR [eax+13]
  000fc	84 d2		 test	 dl, dl
  000fe	0f 84 85 01 00
	00		 je	 $LN83@LoadString
  00104	32 d3		 xor	 dl, bl
  00106	88 55 e9	 mov	 BYTE PTR __k$[ebp+13], dl
  00109	8a 50 0e	 mov	 dl, BYTE PTR [eax+14]
  0010c	84 d2		 test	 dl, dl
  0010e	0f 84 70 01 00
	00		 je	 $LN82@LoadString
  00114	32 d1		 xor	 dl, cl
  00116	88 55 ea	 mov	 BYTE PTR __k$[ebp+14], dl
  00119	8a 50 0f	 mov	 dl, BYTE PTR [eax+15]
  0011c	84 d2		 test	 dl, dl
  0011e	0f 84 5a 01 00
	00		 je	 $LN81@LoadString
  00124	80 f2 ea	 xor	 dl, -22			; ffffffeaH
  00127	88 55 eb	 mov	 BYTE PTR __k$[ebp+15], dl
  0012a	8a 50 10	 mov	 dl, BYTE PTR [eax+16]
  0012d	84 d2		 test	 dl, dl
  0012f	0f 84 43 01 00
	00		 je	 $LN80@LoadString
  00135	80 f2 ed	 xor	 dl, -19			; ffffffedH
  00138	88 55 ec	 mov	 BYTE PTR __k$[ebp+16], dl
  0013b	8a 50 11	 mov	 dl, BYTE PTR [eax+17]
  0013e	84 d2		 test	 dl, dl
  00140	0f 84 2d 01 00
	00		 je	 $LN79@LoadString
  00146	32 d3		 xor	 dl, bl
  00148	88 55 ed	 mov	 BYTE PTR __k$[ebp+17], dl
  0014b	8a 50 12	 mov	 dl, BYTE PTR [eax+18]
  0014e	84 d2		 test	 dl, dl
  00150	0f 84 18 01 00
	00		 je	 $LN78@LoadString
  00156	32 d1		 xor	 dl, cl
  00158	88 55 ee	 mov	 BYTE PTR __k$[ebp+18], dl
  0015b	8a 50 13	 mov	 dl, BYTE PTR [eax+19]
  0015e	84 d2		 test	 dl, dl
  00160	0f 84 02 01 00
	00		 je	 $LN77@LoadString
  00166	80 f2 ea	 xor	 dl, -22			; ffffffeaH
  00169	88 55 ef	 mov	 BYTE PTR __k$[ebp+19], dl
  0016c	8a 50 14	 mov	 dl, BYTE PTR [eax+20]
  0016f	84 d2		 test	 dl, dl
  00171	0f 84 eb 00 00
	00		 je	 $LN76@LoadString
  00177	80 f2 ed	 xor	 dl, -19			; ffffffedH
  0017a	88 55 f0	 mov	 BYTE PTR __k$[ebp+20], dl
  0017d	8a 50 15	 mov	 dl, BYTE PTR [eax+21]
  00180	84 d2		 test	 dl, dl
  00182	0f 84 d5 00 00
	00		 je	 $LN75@LoadString
  00188	32 d3		 xor	 dl, bl
  0018a	88 55 f1	 mov	 BYTE PTR __k$[ebp+21], dl
  0018d	8a 50 16	 mov	 dl, BYTE PTR [eax+22]
  00190	84 d2		 test	 dl, dl
  00192	0f 84 c0 00 00
	00		 je	 $LN74@LoadString
  00198	32 d1		 xor	 dl, cl
  0019a	88 55 f2	 mov	 BYTE PTR __k$[ebp+22], dl
  0019d	8a 50 17	 mov	 dl, BYTE PTR [eax+23]
  001a0	84 d2		 test	 dl, dl
  001a2	0f 84 aa 00 00
	00		 je	 $LN73@LoadString
  001a8	80 f2 ea	 xor	 dl, -22			; ffffffeaH
  001ab	88 55 f3	 mov	 BYTE PTR __k$[ebp+23], dl
  001ae	8a 50 18	 mov	 dl, BYTE PTR [eax+24]
  001b1	84 d2		 test	 dl, dl
  001b3	0f 84 90 00 00
	00		 je	 $LN72@LoadString
  001b9	80 f2 ed	 xor	 dl, -19			; ffffffedH
  001bc	88 55 f4	 mov	 BYTE PTR __k$[ebp+24], dl
  001bf	8a 50 19	 mov	 dl, BYTE PTR [eax+25]
  001c2	84 d2		 test	 dl, dl
  001c4	74 7b		 je	 SHORT $LN71@LoadString
  001c6	32 d3		 xor	 dl, bl
  001c8	88 55 f5	 mov	 BYTE PTR __k$[ebp+25], dl
  001cb	8a 50 1a	 mov	 dl, BYTE PTR [eax+26]
  001ce	84 d2		 test	 dl, dl
  001d0	74 67		 je	 SHORT $LN70@LoadString
  001d2	32 d1		 xor	 dl, cl
  001d4	80 78 1b 00	 cmp	 BYTE PTR [eax+27], 0
  001d8	88 55 f6	 mov	 BYTE PTR __k$[ebp+26], dl
  001db	0f 84 f5 00 00
	00		 je	 $LN111@LoadString
  001e1	8a 50 1c	 mov	 dl, BYTE PTR [eax+28]
  001e4	84 d2		 test	 dl, dl
  001e6	74 48		 je	 SHORT $LN68@LoadString
  001e8	80 f2 ed	 xor	 dl, -19			; ffffffedH
  001eb	88 55 f8	 mov	 BYTE PTR __k$[ebp+28], dl
  001ee	8a 50 1d	 mov	 dl, BYTE PTR [eax+29]
  001f1	84 d2		 test	 dl, dl
  001f3	74 33		 je	 SHORT $LN67@LoadString
  001f5	32 d3		 xor	 dl, bl
  001f7	88 55 f9	 mov	 BYTE PTR __k$[ebp+29], dl
  001fa	8a 50 1e	 mov	 dl, BYTE PTR [eax+30]
  001fd	84 d2		 test	 dl, dl
  001ff	74 1f		 je	 SHORT $LN66@LoadString
  00201	8a 40 1f	 mov	 al, BYTE PTR [eax+31]
  00204	32 d1		 xor	 dl, cl
  00206	88 55 fa	 mov	 BYTE PTR __k$[ebp+30], dl
  00209	84 c0		 test	 al, al
  0020b	74 0a		 je	 SHORT $LN65@LoadString
  0020d	34 ea		 xor	 al, -22			; ffffffeaH
  0020f	88 45 fb	 mov	 BYTE PTR __k$[ebp+31], al
  00212	e9 bf 00 00 00	 jmp	 $LN111@LoadString
$LN65@LoadString:
  00217	c6 45 fb ea	 mov	 BYTE PTR __k$[ebp+31], -22 ; ffffffeaH
  0021b	e9 b6 00 00 00	 jmp	 $LN111@LoadString
$LN66@LoadString:
  00220	88 4d fa	 mov	 BYTE PTR __k$[ebp+30], cl
  00223	e9 ae 00 00 00	 jmp	 $LN111@LoadString
$LN67@LoadString:
  00228	88 5d f9	 mov	 BYTE PTR __k$[ebp+29], bl
  0022b	e9 a6 00 00 00	 jmp	 $LN111@LoadString
$LN68@LoadString:
  00230	c6 45 f8 ed	 mov	 BYTE PTR __k$[ebp+28], -19 ; ffffffedH
  00234	e9 9d 00 00 00	 jmp	 $LN111@LoadString
$LN70@LoadString:
  00239	88 4d f6	 mov	 BYTE PTR __k$[ebp+26], cl
  0023c	e9 95 00 00 00	 jmp	 $LN111@LoadString
$LN71@LoadString:
  00241	88 5d f5	 mov	 BYTE PTR __k$[ebp+25], bl
  00244	e9 8d 00 00 00	 jmp	 $LN111@LoadString
$LN72@LoadString:
  00249	c6 45 f4 ed	 mov	 BYTE PTR __k$[ebp+24], -19 ; ffffffedH
  0024d	e9 84 00 00 00	 jmp	 $LN111@LoadString
$LN73@LoadString:
  00252	c6 45 f3 ea	 mov	 BYTE PTR __k$[ebp+23], -22 ; ffffffeaH
  00256	eb 7e		 jmp	 SHORT $LN111@LoadString
$LN74@LoadString:
  00258	88 4d f2	 mov	 BYTE PTR __k$[ebp+22], cl
  0025b	eb 79		 jmp	 SHORT $LN111@LoadString
$LN75@LoadString:
  0025d	88 5d f1	 mov	 BYTE PTR __k$[ebp+21], bl
  00260	eb 74		 jmp	 SHORT $LN111@LoadString
$LN76@LoadString:
  00262	c6 45 f0 ed	 mov	 BYTE PTR __k$[ebp+20], -19 ; ffffffedH
  00266	eb 6e		 jmp	 SHORT $LN111@LoadString
$LN77@LoadString:
  00268	c6 45 ef ea	 mov	 BYTE PTR __k$[ebp+19], -22 ; ffffffeaH
  0026c	eb 68		 jmp	 SHORT $LN111@LoadString
$LN78@LoadString:
  0026e	88 4d ee	 mov	 BYTE PTR __k$[ebp+18], cl
  00271	eb 63		 jmp	 SHORT $LN111@LoadString
$LN79@LoadString:
  00273	88 5d ed	 mov	 BYTE PTR __k$[ebp+17], bl
  00276	eb 5e		 jmp	 SHORT $LN111@LoadString
$LN80@LoadString:
  00278	c6 45 ec ed	 mov	 BYTE PTR __k$[ebp+16], -19 ; ffffffedH
  0027c	eb 58		 jmp	 SHORT $LN111@LoadString
$LN81@LoadString:
  0027e	c6 45 eb ea	 mov	 BYTE PTR __k$[ebp+15], -22 ; ffffffeaH
  00282	eb 52		 jmp	 SHORT $LN111@LoadString
$LN82@LoadString:
  00284	88 4d ea	 mov	 BYTE PTR __k$[ebp+14], cl
  00287	eb 4d		 jmp	 SHORT $LN111@LoadString
$LN83@LoadString:
  00289	88 5d e9	 mov	 BYTE PTR __k$[ebp+13], bl
  0028c	eb 48		 jmp	 SHORT $LN111@LoadString
$LN84@LoadString:
  0028e	c6 45 e8 ed	 mov	 BYTE PTR __k$[ebp+12], -19 ; ffffffedH
  00292	eb 42		 jmp	 SHORT $LN111@LoadString
$LN85@LoadString:
  00294	c6 45 e7 ea	 mov	 BYTE PTR __k$[ebp+11], -22 ; ffffffeaH
  00298	eb 3c		 jmp	 SHORT $LN111@LoadString
$LN86@LoadString:
  0029a	88 4d e6	 mov	 BYTE PTR __k$[ebp+10], cl
  0029d	eb 37		 jmp	 SHORT $LN111@LoadString
$LN87@LoadString:
  0029f	88 5d e5	 mov	 BYTE PTR __k$[ebp+9], bl
  002a2	eb 32		 jmp	 SHORT $LN111@LoadString
$LN88@LoadString:
  002a4	c6 45 e4 ed	 mov	 BYTE PTR __k$[ebp+8], -19 ; ffffffedH
  002a8	eb 2c		 jmp	 SHORT $LN111@LoadString
$LN89@LoadString:
  002aa	c6 45 e3 ea	 mov	 BYTE PTR __k$[ebp+7], -22 ; ffffffeaH
  002ae	eb 26		 jmp	 SHORT $LN111@LoadString
$LN90@LoadString:
  002b0	88 4d e2	 mov	 BYTE PTR __k$[ebp+6], cl
  002b3	eb 21		 jmp	 SHORT $LN111@LoadString
$LN91@LoadString:
  002b5	88 5d e1	 mov	 BYTE PTR __k$[ebp+5], bl
  002b8	eb 1c		 jmp	 SHORT $LN111@LoadString
$LN92@LoadString:
  002ba	c6 45 e0 ed	 mov	 BYTE PTR __k$[ebp+4], -19 ; ffffffedH
  002be	eb 16		 jmp	 SHORT $LN111@LoadString
$LN93@LoadString:
  002c0	c6 45 df ea	 mov	 BYTE PTR __k$[ebp+3], -22 ; ffffffeaH
  002c4	eb 10		 jmp	 SHORT $LN111@LoadString
$LN94@LoadString:
  002c6	c6 45 de eb	 mov	 BYTE PTR __k$[ebp+2], -21 ; ffffffebH
  002ca	eb 0a		 jmp	 SHORT $LN111@LoadString
$LN95@LoadString:
  002cc	c6 45 dd ec	 mov	 BYTE PTR __k$[ebp+1], -20 ; ffffffecH
  002d0	eb 04		 jmp	 SHORT $LN111@LoadString
$LN96@LoadString:
  002d2	c6 45 dc ed	 mov	 BYTE PTR __k$[ebp], -19	; ffffffedH
$LN111@LoadString:
  002d6	6a 06		 push	 6
  002d8	8d 45 dc	 lea	 eax, DWORD PTR __k$[ebp]
  002db	c6 45 f7 00	 mov	 BYTE PTR __k$[ebp+27], 0
  002df	5a		 pop	 edx
$LL104@LoadString:
  002e0	81 30 ed ec eb
	ea		 xor	 DWORD PTR [eax], -353637139 ; eaebecedH
  002e6	83 c0 04	 add	 eax, 4
  002e9	4a		 dec	 edx
  002ea	75 f4		 jne	 SHORT $LL104@LoadString
  002ec	6a 18		 push	 24			; 00000018H
  002ee	58		 pop	 eax
$LL101@LoadString:
  002ef	8b c8		 mov	 ecx, eax
  002f1	81 e1 03 00 00
	80		 and	 ecx, -2147483645	; 80000003H
  002f7	79 05		 jns	 SHORT $LN112@LoadString
  002f9	49		 dec	 ecx
  002fa	83 c9 fc	 or	 ecx, -4			; fffffffcH
  002fd	41		 inc	 ecx
$LN112@LoadString:
  002fe	b2 ed		 mov	 dl, -19			; ffffffedH
  00300	2a d1		 sub	 dl, cl
  00302	30 54 05 dc	 xor	 BYTE PTR __k$[ebp+eax], dl
  00306	40		 inc	 eax
  00307	83 f8 1b	 cmp	 eax, 27			; 0000001bH
  0030a	7c e3		 jl	 SHORT $LL101@LoadString

; 163  : 		LoadString(_k, d, b, i);

  0030c	ff 75 14	 push	 DWORD PTR _i$[ebp]
  0030f	8b 4d d8	 mov	 ecx, DWORD PTR _this$GSCopy$[ebp]
  00312	57		 push	 edi
  00313	56		 push	 esi
  00314	8d 45 dc	 lea	 eax, DWORD PTR __k$[ebp]
  00317	50		 push	 eax
  00318	ff 15 00 00 00
	00		 call	 DWORD PTR __imp_?LoadStringA@ioINILoader@@QAEXPBD0PADH@Z

; 164  : 	}

  0031e	8b 4d fc	 mov	 ecx, DWORD PTR __$ArrayPad$[ebp]
  00321	5f		 pop	 edi
  00322	5e		 pop	 esi
  00323	33 cd		 xor	 ecx, ebp
  00325	5b		 pop	 ebx
  00326	e8 00 00 00 00	 call	 @__security_check_cookie@4
  0032b	c9		 leave
  0032c	c2 10 00	 ret	 16			; 00000010H
??$LoadString_e@$0BM@@ioINILoader@@QAEXAAY0BM@$$CBDAAY00$$CBDPADH@Z ENDP ; ioINILoader::LoadString_e<28>
_TEXT	ENDS
PUBLIC	_this$GSCopy$
PUBLIC	__$ArrayPad$
PUBLIC	??$LoadString_e@$0BJ@@ioINILoader@@QAEXAAY0BJ@$$CBDAAY00$$CBDPADH@Z ; ioINILoader::LoadString_e<25>
; Function compile flags: /Ogsp
;	COMDAT ??$LoadString_e@$0BJ@@ioINILoader@@QAEXAAY0BJ@$$CBDAAY00$$CBDPADH@Z
_TEXT	SEGMENT
_this$GSCopy$ = -40					; size = 4
__k$ = -36						; size = 25
__$ArrayPad$ = -4					; size = 4
_k$ = 8							; size = 4
_d$ = 12						; size = 4
_b$ = 16						; size = 4
_i$ = 20						; size = 4
??$LoadString_e@$0BJ@@ioINILoader@@QAEXAAY0BJ@$$CBDAAY00$$CBDPADH@Z PROC ; ioINILoader::LoadString_e<25>, COMDAT
; _this$ = ecx

; 161  : 	{

  00000	55		 push	 ebp
  00001	8b ec		 mov	 ebp, esp
  00003	83 ec 28	 sub	 esp, 40			; 00000028H
  00006	a1 00 00 00 00	 mov	 eax, DWORD PTR ___security_cookie
  0000b	33 c5		 xor	 eax, ebp
  0000d	89 45 fc	 mov	 DWORD PTR __$ArrayPad$[ebp], eax
  00010	8b 45 08	 mov	 eax, DWORD PTR _k$[ebp]

; 162  : 		_ENCSTR(k, _k);

  00013	8a 10		 mov	 dl, BYTE PTR [eax]
  00015	53		 push	 ebx
  00016	56		 push	 esi
  00017	8b 75 0c	 mov	 esi, DWORD PTR _d$[ebp]
  0001a	57		 push	 edi
  0001b	8b 7d 10	 mov	 edi, DWORD PTR _b$[ebp]
  0001e	89 4d d8	 mov	 DWORD PTR _this$GSCopy$[ebp], ecx
  00021	84 d2		 test	 dl, dl
  00023	0f 84 5f 02 00
	00		 je	 $LN96@LoadString@2
  00029	80 f2 ed	 xor	 dl, -19			; ffffffedH
  0002c	88 55 dc	 mov	 BYTE PTR __k$[ebp], dl
  0002f	8a 50 01	 mov	 dl, BYTE PTR [eax+1]
  00032	84 d2		 test	 dl, dl
  00034	0f 84 48 02 00
	00		 je	 $LN95@LoadString@2
  0003a	b1 ec		 mov	 cl, -20			; ffffffecH
  0003c	32 d1		 xor	 dl, cl
  0003e	88 55 dd	 mov	 BYTE PTR __k$[ebp+1], dl
  00041	8a 50 02	 mov	 dl, BYTE PTR [eax+2]
  00044	84 d2		 test	 dl, dl
  00046	0f 84 30 02 00
	00		 je	 $LN94@LoadString@2
  0004c	b3 eb		 mov	 bl, -21			; ffffffebH
  0004e	32 d3		 xor	 dl, bl
  00050	88 55 de	 mov	 BYTE PTR __k$[ebp+2], dl
  00053	8a 50 03	 mov	 dl, BYTE PTR [eax+3]
  00056	84 d2		 test	 dl, dl
  00058	0f 84 18 02 00
	00		 je	 $LN93@LoadString@2
  0005e	80 f2 ea	 xor	 dl, -22			; ffffffeaH
  00061	88 55 df	 mov	 BYTE PTR __k$[ebp+3], dl
  00064	8a 50 04	 mov	 dl, BYTE PTR [eax+4]
  00067	84 d2		 test	 dl, dl
  00069	0f 84 01 02 00
	00		 je	 $LN92@LoadString@2
  0006f	80 f2 ed	 xor	 dl, -19			; ffffffedH
  00072	88 55 e0	 mov	 BYTE PTR __k$[ebp+4], dl
  00075	8a 50 05	 mov	 dl, BYTE PTR [eax+5]
  00078	84 d2		 test	 dl, dl
  0007a	0f 84 eb 01 00
	00		 je	 $LN91@LoadString@2
  00080	32 d1		 xor	 dl, cl
  00082	88 55 e1	 mov	 BYTE PTR __k$[ebp+5], dl
  00085	8a 50 06	 mov	 dl, BYTE PTR [eax+6]
  00088	84 d2		 test	 dl, dl
  0008a	0f 84 d6 01 00
	00		 je	 $LN90@LoadString@2
  00090	32 d3		 xor	 dl, bl
  00092	88 55 e2	 mov	 BYTE PTR __k$[ebp+6], dl
  00095	8a 50 07	 mov	 dl, BYTE PTR [eax+7]
  00098	84 d2		 test	 dl, dl
  0009a	0f 84 c0 01 00
	00		 je	 $LN89@LoadString@2
  000a0	80 f2 ea	 xor	 dl, -22			; ffffffeaH
  000a3	88 55 e3	 mov	 BYTE PTR __k$[ebp+7], dl
  000a6	8a 50 08	 mov	 dl, BYTE PTR [eax+8]
  000a9	84 d2		 test	 dl, dl
  000ab	0f 84 a9 01 00
	00		 je	 $LN88@LoadString@2
  000b1	80 f2 ed	 xor	 dl, -19			; ffffffedH
  000b4	88 55 e4	 mov	 BYTE PTR __k$[ebp+8], dl
  000b7	8a 50 09	 mov	 dl, BYTE PTR [eax+9]
  000ba	84 d2		 test	 dl, dl
  000bc	0f 84 93 01 00
	00		 je	 $LN87@LoadString@2
  000c2	32 d1		 xor	 dl, cl
  000c4	88 55 e5	 mov	 BYTE PTR __k$[ebp+9], dl
  000c7	8a 50 0a	 mov	 dl, BYTE PTR [eax+10]
  000ca	84 d2		 test	 dl, dl
  000cc	0f 84 7e 01 00
	00		 je	 $LN86@LoadString@2
  000d2	32 d3		 xor	 dl, bl
  000d4	88 55 e6	 mov	 BYTE PTR __k$[ebp+10], dl
  000d7	8a 50 0b	 mov	 dl, BYTE PTR [eax+11]
  000da	84 d2		 test	 dl, dl
  000dc	0f 84 68 01 00
	00		 je	 $LN85@LoadString@2
  000e2	80 f2 ea	 xor	 dl, -22			; ffffffeaH
  000e5	88 55 e7	 mov	 BYTE PTR __k$[ebp+11], dl
  000e8	8a 50 0c	 mov	 dl, BYTE PTR [eax+12]
  000eb	84 d2		 test	 dl, dl
  000ed	0f 84 51 01 00
	00		 je	 $LN84@LoadString@2
  000f3	80 f2 ed	 xor	 dl, -19			; ffffffedH
  000f6	88 55 e8	 mov	 BYTE PTR __k$[ebp+12], dl
  000f9	8a 50 0d	 mov	 dl, BYTE PTR [eax+13]
  000fc	84 d2		 test	 dl, dl
  000fe	0f 84 3b 01 00
	00		 je	 $LN83@LoadString@2
  00104	32 d1		 xor	 dl, cl
  00106	88 55 e9	 mov	 BYTE PTR __k$[ebp+13], dl
  00109	8a 50 0e	 mov	 dl, BYTE PTR [eax+14]
  0010c	84 d2		 test	 dl, dl
  0010e	0f 84 26 01 00
	00		 je	 $LN82@LoadString@2
  00114	32 d3		 xor	 dl, bl
  00116	88 55 ea	 mov	 BYTE PTR __k$[ebp+14], dl
  00119	8a 50 0f	 mov	 dl, BYTE PTR [eax+15]
  0011c	84 d2		 test	 dl, dl
  0011e	0f 84 10 01 00
	00		 je	 $LN81@LoadString@2
  00124	80 f2 ea	 xor	 dl, -22			; ffffffeaH
  00127	88 55 eb	 mov	 BYTE PTR __k$[ebp+15], dl
  0012a	8a 50 10	 mov	 dl, BYTE PTR [eax+16]
  0012d	84 d2		 test	 dl, dl
  0012f	0f 84 f9 00 00
	00		 je	 $LN80@LoadString@2
  00135	80 f2 ed	 xor	 dl, -19			; ffffffedH
  00138	88 55 ec	 mov	 BYTE PTR __k$[ebp+16], dl
  0013b	8a 50 11	 mov	 dl, BYTE PTR [eax+17]
  0013e	84 d2		 test	 dl, dl
  00140	0f 84 e3 00 00
	00		 je	 $LN79@LoadString@2
  00146	32 d1		 xor	 dl, cl
  00148	88 55 ed	 mov	 BYTE PTR __k$[ebp+17], dl
  0014b	8a 50 12	 mov	 dl, BYTE PTR [eax+18]
  0014e	84 d2		 test	 dl, dl
  00150	0f 84 ce 00 00
	00		 je	 $LN78@LoadString@2
  00156	32 d3		 xor	 dl, bl
  00158	88 55 ee	 mov	 BYTE PTR __k$[ebp+18], dl
  0015b	8a 50 13	 mov	 dl, BYTE PTR [eax+19]
  0015e	84 d2		 test	 dl, dl
  00160	0f 84 b8 00 00
	00		 je	 $LN77@LoadString@2
  00166	80 f2 ea	 xor	 dl, -22			; ffffffeaH
  00169	88 55 ef	 mov	 BYTE PTR __k$[ebp+19], dl
  0016c	8a 50 14	 mov	 dl, BYTE PTR [eax+20]
  0016f	84 d2		 test	 dl, dl
  00171	0f 84 a1 00 00
	00		 je	 $LN76@LoadString@2
  00177	80 f2 ed	 xor	 dl, -19			; ffffffedH
  0017a	88 55 f0	 mov	 BYTE PTR __k$[ebp+20], dl
  0017d	8a 50 15	 mov	 dl, BYTE PTR [eax+21]
  00180	84 d2		 test	 dl, dl
  00182	0f 84 8b 00 00
	00		 je	 $LN75@LoadString@2
  00188	32 d1		 xor	 dl, cl
  0018a	88 55 f1	 mov	 BYTE PTR __k$[ebp+21], dl
  0018d	8a 50 16	 mov	 dl, BYTE PTR [eax+22]
  00190	84 d2		 test	 dl, dl
  00192	74 7a		 je	 SHORT $LN74@LoadString@2
  00194	32 d3		 xor	 dl, bl
  00196	88 55 f2	 mov	 BYTE PTR __k$[ebp+22], dl
  00199	8a 50 17	 mov	 dl, BYTE PTR [eax+23]
  0019c	84 d2		 test	 dl, dl
  0019e	74 68		 je	 SHORT $LN73@LoadString@2
  001a0	80 f2 ea	 xor	 dl, -22			; ffffffeaH
  001a3	80 78 18 00	 cmp	 BYTE PTR [eax+24], 0
  001a7	88 55 f3	 mov	 BYTE PTR __k$[ebp+23], dl
  001aa	0f 84 dc 00 00
	00		 je	 $LN111@LoadString@2
  001b0	8a 50 19	 mov	 dl, BYTE PTR [eax+25]
  001b3	84 d2		 test	 dl, dl
  001b5	74 49		 je	 SHORT $LN71@LoadString@2
  001b7	32 d1		 xor	 dl, cl
  001b9	88 55 f5	 mov	 BYTE PTR __k$[ebp+25], dl
  001bc	8a 50 1a	 mov	 dl, BYTE PTR [eax+26]
  001bf	84 d2		 test	 dl, dl
  001c1	74 35		 je	 SHORT $LN70@LoadString@2
  001c3	32 d3		 xor	 dl, bl
  001c5	88 55 f6	 mov	 BYTE PTR __k$[ebp+26], dl
  001c8	8a 50 1b	 mov	 dl, BYTE PTR [eax+27]
  001cb	84 d2		 test	 dl, dl
  001cd	74 20		 je	 SHORT $LN69@LoadString@2
  001cf	8a 40 1c	 mov	 al, BYTE PTR [eax+28]
  001d2	80 f2 ea	 xor	 dl, -22			; ffffffeaH
  001d5	88 55 f7	 mov	 BYTE PTR __k$[ebp+27], dl
  001d8	84 c0		 test	 al, al
  001da	74 0a		 je	 SHORT $LN68@LoadString@2
  001dc	34 ed		 xor	 al, -19			; ffffffedH
  001de	88 45 f8	 mov	 BYTE PTR __k$[ebp+28], al
  001e1	e9 a6 00 00 00	 jmp	 $LN111@LoadString@2
$LN68@LoadString@2:
  001e6	c6 45 f8 ed	 mov	 BYTE PTR __k$[ebp+28], -19 ; ffffffedH
  001ea	e9 9d 00 00 00	 jmp	 $LN111@LoadString@2
$LN69@LoadString@2:
  001ef	c6 45 f7 ea	 mov	 BYTE PTR __k$[ebp+27], -22 ; ffffffeaH
  001f3	e9 94 00 00 00	 jmp	 $LN111@LoadString@2
$LN70@LoadString@2:
  001f8	88 5d f6	 mov	 BYTE PTR __k$[ebp+26], bl
  001fb	e9 8c 00 00 00	 jmp	 $LN111@LoadString@2
$LN71@LoadString@2:
  00200	88 4d f5	 mov	 BYTE PTR __k$[ebp+25], cl
  00203	e9 84 00 00 00	 jmp	 $LN111@LoadString@2
$LN73@LoadString@2:
  00208	c6 45 f3 ea	 mov	 BYTE PTR __k$[ebp+23], -22 ; ffffffeaH
  0020c	eb 7e		 jmp	 SHORT $LN111@LoadString@2
$LN74@LoadString@2:
  0020e	88 5d f2	 mov	 BYTE PTR __k$[ebp+22], bl
  00211	eb 79		 jmp	 SHORT $LN111@LoadString@2
$LN75@LoadString@2:
  00213	88 4d f1	 mov	 BYTE PTR __k$[ebp+21], cl
  00216	eb 74		 jmp	 SHORT $LN111@LoadString@2
$LN76@LoadString@2:
  00218	c6 45 f0 ed	 mov	 BYTE PTR __k$[ebp+20], -19 ; ffffffedH
  0021c	eb 6e		 jmp	 SHORT $LN111@LoadString@2
$LN77@LoadString@2:
  0021e	c6 45 ef ea	 mov	 BYTE PTR __k$[ebp+19], -22 ; ffffffeaH
  00222	eb 68		 jmp	 SHORT $LN111@LoadString@2
$LN78@LoadString@2:
  00224	88 5d ee	 mov	 BYTE PTR __k$[ebp+18], bl
  00227	eb 63		 jmp	 SHORT $LN111@LoadString@2
$LN79@LoadString@2:
  00229	88 4d ed	 mov	 BYTE PTR __k$[ebp+17], cl
  0022c	eb 5e		 jmp	 SHORT $LN111@LoadString@2
$LN80@LoadString@2:
  0022e	c6 45 ec ed	 mov	 BYTE PTR __k$[ebp+16], -19 ; ffffffedH
  00232	eb 58		 jmp	 SHORT $LN111@LoadString@2
$LN81@LoadString@2:
  00234	c6 45 eb ea	 mov	 BYTE PTR __k$[ebp+15], -22 ; ffffffeaH
  00238	eb 52		 jmp	 SHORT $LN111@LoadString@2
$LN82@LoadString@2:
  0023a	88 5d ea	 mov	 BYTE PTR __k$[ebp+14], bl
  0023d	eb 4d		 jmp	 SHORT $LN111@LoadString@2
$LN83@LoadString@2:
  0023f	88 4d e9	 mov	 BYTE PTR __k$[ebp+13], cl
  00242	eb 48		 jmp	 SHORT $LN111@LoadString@2
$LN84@LoadString@2:
  00244	c6 45 e8 ed	 mov	 BYTE PTR __k$[ebp+12], -19 ; ffffffedH
  00248	eb 42		 jmp	 SHORT $LN111@LoadString@2
$LN85@LoadString@2:
  0024a	c6 45 e7 ea	 mov	 BYTE PTR __k$[ebp+11], -22 ; ffffffeaH
  0024e	eb 3c		 jmp	 SHORT $LN111@LoadString@2
$LN86@LoadString@2:
  00250	88 5d e6	 mov	 BYTE PTR __k$[ebp+10], bl
  00253	eb 37		 jmp	 SHORT $LN111@LoadString@2
$LN87@LoadString@2:
  00255	88 4d e5	 mov	 BYTE PTR __k$[ebp+9], cl
  00258	eb 32		 jmp	 SHORT $LN111@LoadString@2
$LN88@LoadString@2:
  0025a	c6 45 e4 ed	 mov	 BYTE PTR __k$[ebp+8], -19 ; ffffffedH
  0025e	eb 2c		 jmp	 SHORT $LN111@LoadString@2
$LN89@LoadString@2:
  00260	c6 45 e3 ea	 mov	 BYTE PTR __k$[ebp+7], -22 ; ffffffeaH
  00264	eb 26		 jmp	 SHORT $LN111@LoadString@2
$LN90@LoadString@2:
  00266	88 5d e2	 mov	 BYTE PTR __k$[ebp+6], bl
  00269	eb 21		 jmp	 SHORT $LN111@LoadString@2
$LN91@LoadString@2:
  0026b	88 4d e1	 mov	 BYTE PTR __k$[ebp+5], cl
  0026e	eb 1c		 jmp	 SHORT $LN111@LoadString@2
$LN92@LoadString@2:
  00270	c6 45 e0 ed	 mov	 BYTE PTR __k$[ebp+4], -19 ; ffffffedH
  00274	eb 16		 jmp	 SHORT $LN111@LoadString@2
$LN93@LoadString@2:
  00276	c6 45 df ea	 mov	 BYTE PTR __k$[ebp+3], -22 ; ffffffeaH
  0027a	eb 10		 jmp	 SHORT $LN111@LoadString@2
$LN94@LoadString@2:
  0027c	c6 45 de eb	 mov	 BYTE PTR __k$[ebp+2], -21 ; ffffffebH
  00280	eb 0a		 jmp	 SHORT $LN111@LoadString@2
$LN95@LoadString@2:
  00282	c6 45 dd ec	 mov	 BYTE PTR __k$[ebp+1], -20 ; ffffffecH
  00286	eb 04		 jmp	 SHORT $LN111@LoadString@2
$LN96@LoadString@2:
  00288	c6 45 dc ed	 mov	 BYTE PTR __k$[ebp], -19	; ffffffedH
$LN111@LoadString@2:
  0028c	6a 06		 push	 6
  0028e	8d 45 dc	 lea	 eax, DWORD PTR __k$[ebp]
  00291	c6 45 f4 00	 mov	 BYTE PTR __k$[ebp+24], 0
  00295	5a		 pop	 edx
$LL104@LoadString@2:
  00296	81 30 ed ec eb
	ea		 xor	 DWORD PTR [eax], -353637139 ; eaebecedH
  0029c	83 c0 04	 add	 eax, 4
  0029f	4a		 dec	 edx
  002a0	75 f4		 jne	 SHORT $LL104@LoadString@2

; 163  : 		LoadString(_k, d, b, i);

  002a2	ff 75 14	 push	 DWORD PTR _i$[ebp]
  002a5	8b 4d d8	 mov	 ecx, DWORD PTR _this$GSCopy$[ebp]
  002a8	57		 push	 edi
  002a9	56		 push	 esi
  002aa	8d 45 dc	 lea	 eax, DWORD PTR __k$[ebp]
  002ad	50		 push	 eax
  002ae	ff 15 00 00 00
	00		 call	 DWORD PTR __imp_?LoadStringA@ioINILoader@@QAEXPBD0PADH@Z

; 164  : 	}

  002b4	8b 4d fc	 mov	 ecx, DWORD PTR __$ArrayPad$[ebp]
  002b7	5f		 pop	 edi
  002b8	5e		 pop	 esi
  002b9	33 cd		 xor	 ecx, ebp
  002bb	5b		 pop	 ebx
  002bc	e8 00 00 00 00	 call	 @__security_check_cookie@4
  002c1	c9		 leave
  002c2	c2 10 00	 ret	 16			; 00000010H
??$LoadString_e@$0BJ@@ioINILoader@@QAEXAAY0BJ@$$CBDAAY00$$CBDPADH@Z ENDP ; ioINILoader::LoadString_e<25>
_TEXT	ENDS
PUBLIC	__$ArrayPad$
PUBLIC	??$LoadBool_e@$0BF@@ioINILoader@@QAE_NAAY0BF@$$CBD_N@Z ; ioINILoader::LoadBool_e<21>
EXTRN	__imp_?LoadBool@ioINILoader@@QAE_NPBD_N@Z:PROC
; Function compile flags: /Ogsp
;	COMDAT ??$LoadBool_e@$0BF@@ioINILoader@@QAE_NAAY0BF@$$CBD_N@Z
_TEXT	SEGMENT
__k$ = -32						; size = 21
__$ArrayPad$ = -4					; size = 4
_k$ = 8							; size = 4
_b$ = 12						; size = 1
??$LoadBool_e@$0BF@@ioINILoader@@QAE_NAAY0BF@$$CBD_N@Z PROC ; ioINILoader::LoadBool_e<21>, COMDAT
; _this$ = ecx

; 101  : 	{

  00000	55		 push	 ebp
  00001	8b ec		 mov	 ebp, esp
  00003	83 ec 20	 sub	 esp, 32			; 00000020H
  00006	a1 00 00 00 00	 mov	 eax, DWORD PTR ___security_cookie
  0000b	33 c5		 xor	 eax, ebp
  0000d	89 45 fc	 mov	 DWORD PTR __$ArrayPad$[ebp], eax
  00010	8b 45 08	 mov	 eax, DWORD PTR _k$[ebp]

; 102  : 		_ENCSTR(k, _k);

  00013	8a 10		 mov	 dl, BYTE PTR [eax]
  00015	53		 push	 ebx
  00016	56		 push	 esi
  00017	8b f1		 mov	 esi, ecx
  00019	84 d2		 test	 dl, dl
  0001b	0f 84 f7 01 00
	00		 je	 $LN96@LoadBool_e
  00021	80 f2 ed	 xor	 dl, -19			; ffffffedH
  00024	88 55 e0	 mov	 BYTE PTR __k$[ebp], dl
  00027	8a 50 01	 mov	 dl, BYTE PTR [eax+1]
  0002a	84 d2		 test	 dl, dl
  0002c	0f 84 e0 01 00
	00		 je	 $LN95@LoadBool_e
  00032	b1 ec		 mov	 cl, -20			; ffffffecH
  00034	32 d1		 xor	 dl, cl
  00036	88 55 e1	 mov	 BYTE PTR __k$[ebp+1], dl
  00039	8a 50 02	 mov	 dl, BYTE PTR [eax+2]
  0003c	84 d2		 test	 dl, dl
  0003e	0f 84 c8 01 00
	00		 je	 $LN94@LoadBool_e
  00044	b3 eb		 mov	 bl, -21			; ffffffebH
  00046	32 d3		 xor	 dl, bl
  00048	88 55 e2	 mov	 BYTE PTR __k$[ebp+2], dl
  0004b	8a 50 03	 mov	 dl, BYTE PTR [eax+3]
  0004e	84 d2		 test	 dl, dl
  00050	0f 84 b0 01 00
	00		 je	 $LN93@LoadBool_e
  00056	80 f2 ea	 xor	 dl, -22			; ffffffeaH
  00059	88 55 e3	 mov	 BYTE PTR __k$[ebp+3], dl
  0005c	8a 50 04	 mov	 dl, BYTE PTR [eax+4]
  0005f	84 d2		 test	 dl, dl
  00061	0f 84 99 01 00
	00		 je	 $LN92@LoadBool_e
  00067	80 f2 ed	 xor	 dl, -19			; ffffffedH
  0006a	88 55 e4	 mov	 BYTE PTR __k$[ebp+4], dl
  0006d	8a 50 05	 mov	 dl, BYTE PTR [eax+5]
  00070	84 d2		 test	 dl, dl
  00072	0f 84 83 01 00
	00		 je	 $LN91@LoadBool_e
  00078	32 d1		 xor	 dl, cl
  0007a	88 55 e5	 mov	 BYTE PTR __k$[ebp+5], dl
  0007d	8a 50 06	 mov	 dl, BYTE PTR [eax+6]
  00080	84 d2		 test	 dl, dl
  00082	0f 84 6e 01 00
	00		 je	 $LN90@LoadBool_e
  00088	32 d3		 xor	 dl, bl
  0008a	88 55 e6	 mov	 BYTE PTR __k$[ebp+6], dl
  0008d	8a 50 07	 mov	 dl, BYTE PTR [eax+7]
  00090	84 d2		 test	 dl, dl
  00092	0f 84 58 01 00
	00		 je	 $LN89@LoadBool_e
  00098	80 f2 ea	 xor	 dl, -22			; ffffffeaH
  0009b	88 55 e7	 mov	 BYTE PTR __k$[ebp+7], dl
  0009e	8a 50 08	 mov	 dl, BYTE PTR [eax+8]
  000a1	84 d2		 test	 dl, dl
  000a3	0f 84 41 01 00
	00		 je	 $LN88@LoadBool_e
  000a9	80 f2 ed	 xor	 dl, -19			; ffffffedH
  000ac	88 55 e8	 mov	 BYTE PTR __k$[ebp+8], dl
  000af	8a 50 09	 mov	 dl, BYTE PTR [eax+9]
  000b2	84 d2		 test	 dl, dl
  000b4	0f 84 2b 01 00
	00		 je	 $LN87@LoadBool_e
  000ba	32 d1		 xor	 dl, cl
  000bc	88 55 e9	 mov	 BYTE PTR __k$[ebp+9], dl
  000bf	8a 50 0a	 mov	 dl, BYTE PTR [eax+10]
  000c2	84 d2		 test	 dl, dl
  000c4	0f 84 16 01 00
	00		 je	 $LN86@LoadBool_e
  000ca	32 d3		 xor	 dl, bl
  000cc	88 55 ea	 mov	 BYTE PTR __k$[ebp+10], dl
  000cf	8a 50 0b	 mov	 dl, BYTE PTR [eax+11]
  000d2	84 d2		 test	 dl, dl
  000d4	0f 84 00 01 00
	00		 je	 $LN85@LoadBool_e
  000da	80 f2 ea	 xor	 dl, -22			; ffffffeaH
  000dd	88 55 eb	 mov	 BYTE PTR __k$[ebp+11], dl
  000e0	8a 50 0c	 mov	 dl, BYTE PTR [eax+12]
  000e3	84 d2		 test	 dl, dl
  000e5	0f 84 e9 00 00
	00		 je	 $LN84@LoadBool_e
  000eb	80 f2 ed	 xor	 dl, -19			; ffffffedH
  000ee	88 55 ec	 mov	 BYTE PTR __k$[ebp+12], dl
  000f1	8a 50 0d	 mov	 dl, BYTE PTR [eax+13]
  000f4	84 d2		 test	 dl, dl
  000f6	0f 84 d3 00 00
	00		 je	 $LN83@LoadBool_e
  000fc	32 d1		 xor	 dl, cl
  000fe	88 55 ed	 mov	 BYTE PTR __k$[ebp+13], dl
  00101	8a 50 0e	 mov	 dl, BYTE PTR [eax+14]
  00104	84 d2		 test	 dl, dl
  00106	0f 84 be 00 00
	00		 je	 $LN82@LoadBool_e
  0010c	32 d3		 xor	 dl, bl
  0010e	88 55 ee	 mov	 BYTE PTR __k$[ebp+14], dl
  00111	8a 50 0f	 mov	 dl, BYTE PTR [eax+15]
  00114	84 d2		 test	 dl, dl
  00116	0f 84 a8 00 00
	00		 je	 $LN81@LoadBool_e
  0011c	80 f2 ea	 xor	 dl, -22			; ffffffeaH
  0011f	88 55 ef	 mov	 BYTE PTR __k$[ebp+15], dl
  00122	8a 50 10	 mov	 dl, BYTE PTR [eax+16]
  00125	84 d2		 test	 dl, dl
  00127	0f 84 91 00 00
	00		 je	 $LN80@LoadBool_e
  0012d	80 f2 ed	 xor	 dl, -19			; ffffffedH
  00130	88 55 f0	 mov	 BYTE PTR __k$[ebp+16], dl
  00133	8a 50 11	 mov	 dl, BYTE PTR [eax+17]
  00136	84 d2		 test	 dl, dl
  00138	74 7f		 je	 SHORT $LN79@LoadBool_e
  0013a	32 d1		 xor	 dl, cl
  0013c	88 55 f1	 mov	 BYTE PTR __k$[ebp+17], dl
  0013f	8a 50 12	 mov	 dl, BYTE PTR [eax+18]
  00142	84 d2		 test	 dl, dl
  00144	74 6e		 je	 SHORT $LN78@LoadBool_e
  00146	32 d3		 xor	 dl, bl
  00148	88 55 f2	 mov	 BYTE PTR __k$[ebp+18], dl
  0014b	8a 50 13	 mov	 dl, BYTE PTR [eax+19]
  0014e	84 d2		 test	 dl, dl
  00150	74 5c		 je	 SHORT $LN77@LoadBool_e
  00152	80 f2 ea	 xor	 dl, -22			; ffffffeaH
  00155	80 78 14 00	 cmp	 BYTE PTR [eax+20], 0
  00159	88 55 f3	 mov	 BYTE PTR __k$[ebp+19], dl
  0015c	0f 84 ba 00 00
	00		 je	 $LN1@LoadBool_e
  00162	8a 50 15	 mov	 dl, BYTE PTR [eax+21]
  00165	84 d2		 test	 dl, dl
  00167	74 40		 je	 SHORT $LN75@LoadBool_e
  00169	32 d1		 xor	 dl, cl
  0016b	88 55 f5	 mov	 BYTE PTR __k$[ebp+21], dl
  0016e	8a 50 16	 mov	 dl, BYTE PTR [eax+22]
  00171	84 d2		 test	 dl, dl
  00173	74 2f		 je	 SHORT $LN74@LoadBool_e
  00175	32 d3		 xor	 dl, bl
  00177	88 55 f6	 mov	 BYTE PTR __k$[ebp+22], dl
  0017a	8a 50 17	 mov	 dl, BYTE PTR [eax+23]
  0017d	84 d2		 test	 dl, dl
  0017f	74 1d		 je	 SHORT $LN73@LoadBool_e
  00181	8a 40 18	 mov	 al, BYTE PTR [eax+24]
  00184	80 f2 ea	 xor	 dl, -22			; ffffffeaH
  00187	88 55 f7	 mov	 BYTE PTR __k$[ebp+23], dl
  0018a	84 c0		 test	 al, al
  0018c	74 0a		 je	 SHORT $LN72@LoadBool_e
  0018e	34 ed		 xor	 al, -19			; ffffffedH
  00190	88 45 f8	 mov	 BYTE PTR __k$[ebp+24], al
  00193	e9 84 00 00 00	 jmp	 $LN1@LoadBool_e
$LN72@LoadBool_e:
  00198	c6 45 f8 ed	 mov	 BYTE PTR __k$[ebp+24], -19 ; ffffffedH
  0019c	eb 7e		 jmp	 SHORT $LN1@LoadBool_e
$LN73@LoadBool_e:
  0019e	c6 45 f7 ea	 mov	 BYTE PTR __k$[ebp+23], -22 ; ffffffeaH
  001a2	eb 78		 jmp	 SHORT $LN1@LoadBool_e
$LN74@LoadBool_e:
  001a4	88 5d f6	 mov	 BYTE PTR __k$[ebp+22], bl
  001a7	eb 73		 jmp	 SHORT $LN1@LoadBool_e
$LN75@LoadBool_e:
  001a9	88 4d f5	 mov	 BYTE PTR __k$[ebp+21], cl
  001ac	eb 6e		 jmp	 SHORT $LN1@LoadBool_e
$LN77@LoadBool_e:
  001ae	c6 45 f3 ea	 mov	 BYTE PTR __k$[ebp+19], -22 ; ffffffeaH
  001b2	eb 68		 jmp	 SHORT $LN1@LoadBool_e
$LN78@LoadBool_e:
  001b4	88 5d f2	 mov	 BYTE PTR __k$[ebp+18], bl
  001b7	eb 63		 jmp	 SHORT $LN1@LoadBool_e
$LN79@LoadBool_e:
  001b9	88 4d f1	 mov	 BYTE PTR __k$[ebp+17], cl
  001bc	eb 5e		 jmp	 SHORT $LN1@LoadBool_e
$LN80@LoadBool_e:
  001be	c6 45 f0 ed	 mov	 BYTE PTR __k$[ebp+16], -19 ; ffffffedH
  001c2	eb 58		 jmp	 SHORT $LN1@LoadBool_e
$LN81@LoadBool_e:
  001c4	c6 45 ef ea	 mov	 BYTE PTR __k$[ebp+15], -22 ; ffffffeaH
  001c8	eb 52		 jmp	 SHORT $LN1@LoadBool_e
$LN82@LoadBool_e:
  001ca	88 5d ee	 mov	 BYTE PTR __k$[ebp+14], bl
  001cd	eb 4d		 jmp	 SHORT $LN1@LoadBool_e
$LN83@LoadBool_e:
  001cf	88 4d ed	 mov	 BYTE PTR __k$[ebp+13], cl
  001d2	eb 48		 jmp	 SHORT $LN1@LoadBool_e
$LN84@LoadBool_e:
  001d4	c6 45 ec ed	 mov	 BYTE PTR __k$[ebp+12], -19 ; ffffffedH
  001d8	eb 42		 jmp	 SHORT $LN1@LoadBool_e
$LN85@LoadBool_e:
  001da	c6 45 eb ea	 mov	 BYTE PTR __k$[ebp+11], -22 ; ffffffeaH
  001de	eb 3c		 jmp	 SHORT $LN1@LoadBool_e
$LN86@LoadBool_e:
  001e0	88 5d ea	 mov	 BYTE PTR __k$[ebp+10], bl
  001e3	eb 37		 jmp	 SHORT $LN1@LoadBool_e
$LN87@LoadBool_e:
  001e5	88 4d e9	 mov	 BYTE PTR __k$[ebp+9], cl
  001e8	eb 32		 jmp	 SHORT $LN1@LoadBool_e
$LN88@LoadBool_e:
  001ea	c6 45 e8 ed	 mov	 BYTE PTR __k$[ebp+8], -19 ; ffffffedH
  001ee	eb 2c		 jmp	 SHORT $LN1@LoadBool_e
$LN89@LoadBool_e:
  001f0	c6 45 e7 ea	 mov	 BYTE PTR __k$[ebp+7], -22 ; ffffffeaH
  001f4	eb 26		 jmp	 SHORT $LN1@LoadBool_e
$LN90@LoadBool_e:
  001f6	88 5d e6	 mov	 BYTE PTR __k$[ebp+6], bl
  001f9	eb 21		 jmp	 SHORT $LN1@LoadBool_e
$LN91@LoadBool_e:
  001fb	88 4d e5	 mov	 BYTE PTR __k$[ebp+5], cl
  001fe	eb 1c		 jmp	 SHORT $LN1@LoadBool_e
$LN92@LoadBool_e:
  00200	c6 45 e4 ed	 mov	 BYTE PTR __k$[ebp+4], -19 ; ffffffedH
  00204	eb 16		 jmp	 SHORT $LN1@LoadBool_e
$LN93@LoadBool_e:
  00206	c6 45 e3 ea	 mov	 BYTE PTR __k$[ebp+3], -22 ; ffffffeaH
  0020a	eb 10		 jmp	 SHORT $LN1@LoadBool_e
$LN94@LoadBool_e:
  0020c	c6 45 e2 eb	 mov	 BYTE PTR __k$[ebp+2], -21 ; ffffffebH
  00210	eb 0a		 jmp	 SHORT $LN1@LoadBool_e
$LN95@LoadBool_e:
  00212	c6 45 e1 ec	 mov	 BYTE PTR __k$[ebp+1], -20 ; ffffffecH
  00216	eb 04		 jmp	 SHORT $LN1@LoadBool_e
$LN96@LoadBool_e:
  00218	c6 45 e0 ed	 mov	 BYTE PTR __k$[ebp], -19	; ffffffedH
$LN1@LoadBool_e:
  0021c	6a 05		 push	 5
  0021e	8d 45 e0	 lea	 eax, DWORD PTR __k$[ebp]
  00221	c6 45 f4 00	 mov	 BYTE PTR __k$[ebp+20], 0
  00225	5a		 pop	 edx
$LL104@LoadBool_e:
  00226	81 30 ed ec eb
	ea		 xor	 DWORD PTR [eax], -353637139 ; eaebecedH
  0022c	83 c0 04	 add	 eax, 4
  0022f	4a		 dec	 edx
  00230	75 f4		 jne	 SHORT $LL104@LoadBool_e

; 103  : 		return LoadBool(_k, b);

  00232	ff 75 0c	 push	 DWORD PTR _b$[ebp]
  00235	8d 45 e0	 lea	 eax, DWORD PTR __k$[ebp]
  00238	50		 push	 eax
  00239	8b ce		 mov	 ecx, esi
  0023b	ff 15 00 00 00
	00		 call	 DWORD PTR __imp_?LoadBool@ioINILoader@@QAE_NPBD_N@Z

; 104  : 	}

  00241	8b 4d fc	 mov	 ecx, DWORD PTR __$ArrayPad$[ebp]
  00244	5e		 pop	 esi
  00245	33 cd		 xor	 ecx, ebp
  00247	5b		 pop	 ebx
  00248	e8 00 00 00 00	 call	 @__security_check_cookie@4
  0024d	c9		 leave
  0024e	c2 08 00	 ret	 8
??$LoadBool_e@$0BF@@ioINILoader@@QAE_NAAY0BF@$$CBD_N@Z ENDP ; ioINILoader::LoadBool_e<21>
_TEXT	ENDS
PUBLIC	__$ArrayPad$
PUBLIC	??$LoadFloat_e@$0BJ@@ioINILoader@@QAEMAAY0BJ@$$CBDM@Z ; ioINILoader::LoadFloat_e<25>
; Function compile flags: /Ogsp
;	COMDAT ??$LoadFloat_e@$0BJ@@ioINILoader@@QAEMAAY0BJ@$$CBDM@Z
_TEXT	SEGMENT
__k$ = -36						; size = 25
__$ArrayPad$ = -4					; size = 4
_k$ = 8							; size = 4
_f$ = 12						; size = 4
??$LoadFloat_e@$0BJ@@ioINILoader@@QAEMAAY0BJ@$$CBDM@Z PROC ; ioINILoader::LoadFloat_e<25>, COMDAT
; _this$ = ecx

; 135  : 	{

  00000	55		 push	 ebp
  00001	8b ec		 mov	 ebp, esp
  00003	83 ec 24	 sub	 esp, 36			; 00000024H
  00006	a1 00 00 00 00	 mov	 eax, DWORD PTR ___security_cookie
  0000b	33 c5		 xor	 eax, ebp
  0000d	89 45 fc	 mov	 DWORD PTR __$ArrayPad$[ebp], eax
  00010	8b 45 08	 mov	 eax, DWORD PTR _k$[ebp]

; 136  : 		_ENCSTR(k, _k);

  00013	8a 10		 mov	 dl, BYTE PTR [eax]
  00015	53		 push	 ebx
  00016	56		 push	 esi
  00017	8b f1		 mov	 esi, ecx
  00019	84 d2		 test	 dl, dl
  0001b	0f 84 5f 02 00
	00		 je	 $LN96@LoadFloat_@2
  00021	80 f2 ed	 xor	 dl, -19			; ffffffedH
  00024	88 55 dc	 mov	 BYTE PTR __k$[ebp], dl
  00027	8a 50 01	 mov	 dl, BYTE PTR [eax+1]
  0002a	84 d2		 test	 dl, dl
  0002c	0f 84 48 02 00
	00		 je	 $LN95@LoadFloat_@2
  00032	b1 ec		 mov	 cl, -20			; ffffffecH
  00034	32 d1		 xor	 dl, cl
  00036	88 55 dd	 mov	 BYTE PTR __k$[ebp+1], dl
  00039	8a 50 02	 mov	 dl, BYTE PTR [eax+2]
  0003c	84 d2		 test	 dl, dl
  0003e	0f 84 30 02 00
	00		 je	 $LN94@LoadFloat_@2
  00044	b3 eb		 mov	 bl, -21			; ffffffebH
  00046	32 d3		 xor	 dl, bl
  00048	88 55 de	 mov	 BYTE PTR __k$[ebp+2], dl
  0004b	8a 50 03	 mov	 dl, BYTE PTR [eax+3]
  0004e	84 d2		 test	 dl, dl
  00050	0f 84 18 02 00
	00		 je	 $LN93@LoadFloat_@2
  00056	80 f2 ea	 xor	 dl, -22			; ffffffeaH
  00059	88 55 df	 mov	 BYTE PTR __k$[ebp+3], dl
  0005c	8a 50 04	 mov	 dl, BYTE PTR [eax+4]
  0005f	84 d2		 test	 dl, dl
  00061	0f 84 01 02 00
	00		 je	 $LN92@LoadFloat_@2
  00067	80 f2 ed	 xor	 dl, -19			; ffffffedH
  0006a	88 55 e0	 mov	 BYTE PTR __k$[ebp+4], dl
  0006d	8a 50 05	 mov	 dl, BYTE PTR [eax+5]
  00070	84 d2		 test	 dl, dl
  00072	0f 84 eb 01 00
	00		 je	 $LN91@LoadFloat_@2
  00078	32 d1		 xor	 dl, cl
  0007a	88 55 e1	 mov	 BYTE PTR __k$[ebp+5], dl
  0007d	8a 50 06	 mov	 dl, BYTE PTR [eax+6]
  00080	84 d2		 test	 dl, dl
  00082	0f 84 d6 01 00
	00		 je	 $LN90@LoadFloat_@2
  00088	32 d3		 xor	 dl, bl
  0008a	88 55 e2	 mov	 BYTE PTR __k$[ebp+6], dl
  0008d	8a 50 07	 mov	 dl, BYTE PTR [eax+7]
  00090	84 d2		 test	 dl, dl
  00092	0f 84 c0 01 00
	00		 je	 $LN89@LoadFloat_@2
  00098	80 f2 ea	 xor	 dl, -22			; ffffffeaH
  0009b	88 55 e3	 mov	 BYTE PTR __k$[ebp+7], dl
  0009e	8a 50 08	 mov	 dl, BYTE PTR [eax+8]
  000a1	84 d2		 test	 dl, dl
  000a3	0f 84 a9 01 00
	00		 je	 $LN88@LoadFloat_@2
  000a9	80 f2 ed	 xor	 dl, -19			; ffffffedH
  000ac	88 55 e4	 mov	 BYTE PTR __k$[ebp+8], dl
  000af	8a 50 09	 mov	 dl, BYTE PTR [eax+9]
  000b2	84 d2		 test	 dl, dl
  000b4	0f 84 93 01 00
	00		 je	 $LN87@LoadFloat_@2
  000ba	32 d1		 xor	 dl, cl
  000bc	88 55 e5	 mov	 BYTE PTR __k$[ebp+9], dl
  000bf	8a 50 0a	 mov	 dl, BYTE PTR [eax+10]
  000c2	84 d2		 test	 dl, dl
  000c4	0f 84 7e 01 00
	00		 je	 $LN86@LoadFloat_@2
  000ca	32 d3		 xor	 dl, bl
  000cc	88 55 e6	 mov	 BYTE PTR __k$[ebp+10], dl
  000cf	8a 50 0b	 mov	 dl, BYTE PTR [eax+11]
  000d2	84 d2		 test	 dl, dl
  000d4	0f 84 68 01 00
	00		 je	 $LN85@LoadFloat_@2
  000da	80 f2 ea	 xor	 dl, -22			; ffffffeaH
  000dd	88 55 e7	 mov	 BYTE PTR __k$[ebp+11], dl
  000e0	8a 50 0c	 mov	 dl, BYTE PTR [eax+12]
  000e3	84 d2		 test	 dl, dl
  000e5	0f 84 51 01 00
	00		 je	 $LN84@LoadFloat_@2
  000eb	80 f2 ed	 xor	 dl, -19			; ffffffedH
  000ee	88 55 e8	 mov	 BYTE PTR __k$[ebp+12], dl
  000f1	8a 50 0d	 mov	 dl, BYTE PTR [eax+13]
  000f4	84 d2		 test	 dl, dl
  000f6	0f 84 3b 01 00
	00		 je	 $LN83@LoadFloat_@2
  000fc	32 d1		 xor	 dl, cl
  000fe	88 55 e9	 mov	 BYTE PTR __k$[ebp+13], dl
  00101	8a 50 0e	 mov	 dl, BYTE PTR [eax+14]
  00104	84 d2		 test	 dl, dl
  00106	0f 84 26 01 00
	00		 je	 $LN82@LoadFloat_@2
  0010c	32 d3		 xor	 dl, bl
  0010e	88 55 ea	 mov	 BYTE PTR __k$[ebp+14], dl
  00111	8a 50 0f	 mov	 dl, BYTE PTR [eax+15]
  00114	84 d2		 test	 dl, dl
  00116	0f 84 10 01 00
	00		 je	 $LN81@LoadFloat_@2
  0011c	80 f2 ea	 xor	 dl, -22			; ffffffeaH
  0011f	88 55 eb	 mov	 BYTE PTR __k$[ebp+15], dl
  00122	8a 50 10	 mov	 dl, BYTE PTR [eax+16]
  00125	84 d2		 test	 dl, dl
  00127	0f 84 f9 00 00
	00		 je	 $LN80@LoadFloat_@2
  0012d	80 f2 ed	 xor	 dl, -19			; ffffffedH
  00130	88 55 ec	 mov	 BYTE PTR __k$[ebp+16], dl
  00133	8a 50 11	 mov	 dl, BYTE PTR [eax+17]
  00136	84 d2		 test	 dl, dl
  00138	0f 84 e3 00 00
	00		 je	 $LN79@LoadFloat_@2
  0013e	32 d1		 xor	 dl, cl
  00140	88 55 ed	 mov	 BYTE PTR __k$[ebp+17], dl
  00143	8a 50 12	 mov	 dl, BYTE PTR [eax+18]
  00146	84 d2		 test	 dl, dl
  00148	0f 84 ce 00 00
	00		 je	 $LN78@LoadFloat_@2
  0014e	32 d3		 xor	 dl, bl
  00150	88 55 ee	 mov	 BYTE PTR __k$[ebp+18], dl
  00153	8a 50 13	 mov	 dl, BYTE PTR [eax+19]
  00156	84 d2		 test	 dl, dl
  00158	0f 84 b8 00 00
	00		 je	 $LN77@LoadFloat_@2
  0015e	80 f2 ea	 xor	 dl, -22			; ffffffeaH
  00161	88 55 ef	 mov	 BYTE PTR __k$[ebp+19], dl
  00164	8a 50 14	 mov	 dl, BYTE PTR [eax+20]
  00167	84 d2		 test	 dl, dl
  00169	0f 84 a1 00 00
	00		 je	 $LN76@LoadFloat_@2
  0016f	80 f2 ed	 xor	 dl, -19			; ffffffedH
  00172	88 55 f0	 mov	 BYTE PTR __k$[ebp+20], dl
  00175	8a 50 15	 mov	 dl, BYTE PTR [eax+21]
  00178	84 d2		 test	 dl, dl
  0017a	0f 84 8b 00 00
	00		 je	 $LN75@LoadFloat_@2
  00180	32 d1		 xor	 dl, cl
  00182	88 55 f1	 mov	 BYTE PTR __k$[ebp+21], dl
  00185	8a 50 16	 mov	 dl, BYTE PTR [eax+22]
  00188	84 d2		 test	 dl, dl
  0018a	74 7a		 je	 SHORT $LN74@LoadFloat_@2
  0018c	32 d3		 xor	 dl, bl
  0018e	88 55 f2	 mov	 BYTE PTR __k$[ebp+22], dl
  00191	8a 50 17	 mov	 dl, BYTE PTR [eax+23]
  00194	84 d2		 test	 dl, dl
  00196	74 68		 je	 SHORT $LN73@LoadFloat_@2
  00198	80 f2 ea	 xor	 dl, -22			; ffffffeaH
  0019b	80 78 18 00	 cmp	 BYTE PTR [eax+24], 0
  0019f	88 55 f3	 mov	 BYTE PTR __k$[ebp+23], dl
  001a2	0f 84 dc 00 00
	00		 je	 $LN1@LoadFloat_@2
  001a8	8a 50 19	 mov	 dl, BYTE PTR [eax+25]
  001ab	84 d2		 test	 dl, dl
  001ad	74 49		 je	 SHORT $LN71@LoadFloat_@2
  001af	32 d1		 xor	 dl, cl
  001b1	88 55 f5	 mov	 BYTE PTR __k$[ebp+25], dl
  001b4	8a 50 1a	 mov	 dl, BYTE PTR [eax+26]
  001b7	84 d2		 test	 dl, dl
  001b9	74 35		 je	 SHORT $LN70@LoadFloat_@2
  001bb	32 d3		 xor	 dl, bl
  001bd	88 55 f6	 mov	 BYTE PTR __k$[ebp+26], dl
  001c0	8a 50 1b	 mov	 dl, BYTE PTR [eax+27]
  001c3	84 d2		 test	 dl, dl
  001c5	74 20		 je	 SHORT $LN69@LoadFloat_@2
  001c7	8a 40 1c	 mov	 al, BYTE PTR [eax+28]
  001ca	80 f2 ea	 xor	 dl, -22			; ffffffeaH
  001cd	88 55 f7	 mov	 BYTE PTR __k$[ebp+27], dl
  001d0	84 c0		 test	 al, al
  001d2	74 0a		 je	 SHORT $LN68@LoadFloat_@2
  001d4	34 ed		 xor	 al, -19			; ffffffedH
  001d6	88 45 f8	 mov	 BYTE PTR __k$[ebp+28], al
  001d9	e9 a6 00 00 00	 jmp	 $LN1@LoadFloat_@2
$LN68@LoadFloat_@2:
  001de	c6 45 f8 ed	 mov	 BYTE PTR __k$[ebp+28], -19 ; ffffffedH
  001e2	e9 9d 00 00 00	 jmp	 $LN1@LoadFloat_@2
$LN69@LoadFloat_@2:
  001e7	c6 45 f7 ea	 mov	 BYTE PTR __k$[ebp+27], -22 ; ffffffeaH
  001eb	e9 94 00 00 00	 jmp	 $LN1@LoadFloat_@2
$LN70@LoadFloat_@2:
  001f0	88 5d f6	 mov	 BYTE PTR __k$[ebp+26], bl
  001f3	e9 8c 00 00 00	 jmp	 $LN1@LoadFloat_@2
$LN71@LoadFloat_@2:
  001f8	88 4d f5	 mov	 BYTE PTR __k$[ebp+25], cl
  001fb	e9 84 00 00 00	 jmp	 $LN1@LoadFloat_@2
$LN73@LoadFloat_@2:
  00200	c6 45 f3 ea	 mov	 BYTE PTR __k$[ebp+23], -22 ; ffffffeaH
  00204	eb 7e		 jmp	 SHORT $LN1@LoadFloat_@2
$LN74@LoadFloat_@2:
  00206	88 5d f2	 mov	 BYTE PTR __k$[ebp+22], bl
  00209	eb 79		 jmp	 SHORT $LN1@LoadFloat_@2
$LN75@LoadFloat_@2:
  0020b	88 4d f1	 mov	 BYTE PTR __k$[ebp+21], cl
  0020e	eb 74		 jmp	 SHORT $LN1@LoadFloat_@2
$LN76@LoadFloat_@2:
  00210	c6 45 f0 ed	 mov	 BYTE PTR __k$[ebp+20], -19 ; ffffffedH
  00214	eb 6e		 jmp	 SHORT $LN1@LoadFloat_@2
$LN77@LoadFloat_@2:
  00216	c6 45 ef ea	 mov	 BYTE PTR __k$[ebp+19], -22 ; ffffffeaH
  0021a	eb 68		 jmp	 SHORT $LN1@LoadFloat_@2
$LN78@LoadFloat_@2:
  0021c	88 5d ee	 mov	 BYTE PTR __k$[ebp+18], bl
  0021f	eb 63		 jmp	 SHORT $LN1@LoadFloat_@2
$LN79@LoadFloat_@2:
  00221	88 4d ed	 mov	 BYTE PTR __k$[ebp+17], cl
  00224	eb 5e		 jmp	 SHORT $LN1@LoadFloat_@2
$LN80@LoadFloat_@2:
  00226	c6 45 ec ed	 mov	 BYTE PTR __k$[ebp+16], -19 ; ffffffedH
  0022a	eb 58		 jmp	 SHORT $LN1@LoadFloat_@2
$LN81@LoadFloat_@2:
  0022c	c6 45 eb ea	 mov	 BYTE PTR __k$[ebp+15], -22 ; ffffffeaH
  00230	eb 52		 jmp	 SHORT $LN1@LoadFloat_@2
$LN82@LoadFloat_@2:
  00232	88 5d ea	 mov	 BYTE PTR __k$[ebp+14], bl
  00235	eb 4d		 jmp	 SHORT $LN1@LoadFloat_@2
$LN83@LoadFloat_@2:
  00237	88 4d e9	 mov	 BYTE PTR __k$[ebp+13], cl
  0023a	eb 48		 jmp	 SHORT $LN1@LoadFloat_@2
$LN84@LoadFloat_@2:
  0023c	c6 45 e8 ed	 mov	 BYTE PTR __k$[ebp+12], -19 ; ffffffedH
  00240	eb 42		 jmp	 SHORT $LN1@LoadFloat_@2
$LN85@LoadFloat_@2:
  00242	c6 45 e7 ea	 mov	 BYTE PTR __k$[ebp+11], -22 ; ffffffeaH
  00246	eb 3c		 jmp	 SHORT $LN1@LoadFloat_@2
$LN86@LoadFloat_@2:
  00248	88 5d e6	 mov	 BYTE PTR __k$[ebp+10], bl
  0024b	eb 37		 jmp	 SHORT $LN1@LoadFloat_@2
$LN87@LoadFloat_@2:
  0024d	88 4d e5	 mov	 BYTE PTR __k$[ebp+9], cl
  00250	eb 32		 jmp	 SHORT $LN1@LoadFloat_@2
$LN88@LoadFloat_@2:
  00252	c6 45 e4 ed	 mov	 BYTE PTR __k$[ebp+8], -19 ; ffffffedH
  00256	eb 2c		 jmp	 SHORT $LN1@LoadFloat_@2
$LN89@LoadFloat_@2:
  00258	c6 45 e3 ea	 mov	 BYTE PTR __k$[ebp+7], -22 ; ffffffeaH
  0025c	eb 26		 jmp	 SHORT $LN1@LoadFloat_@2
$LN90@LoadFloat_@2:
  0025e	88 5d e2	 mov	 BYTE PTR __k$[ebp+6], bl
  00261	eb 21		 jmp	 SHORT $LN1@LoadFloat_@2
$LN91@LoadFloat_@2:
  00263	88 4d e1	 mov	 BYTE PTR __k$[ebp+5], cl
  00266	eb 1c		 jmp	 SHORT $LN1@LoadFloat_@2
$LN92@LoadFloat_@2:
  00268	c6 45 e0 ed	 mov	 BYTE PTR __k$[ebp+4], -19 ; ffffffedH
  0026c	eb 16		 jmp	 SHORT $LN1@LoadFloat_@2
$LN93@LoadFloat_@2:
  0026e	c6 45 df ea	 mov	 BYTE PTR __k$[ebp+3], -22 ; ffffffeaH
  00272	eb 10		 jmp	 SHORT $LN1@LoadFloat_@2
$LN94@LoadFloat_@2:
  00274	c6 45 de eb	 mov	 BYTE PTR __k$[ebp+2], -21 ; ffffffebH
  00278	eb 0a		 jmp	 SHORT $LN1@LoadFloat_@2
$LN95@LoadFloat_@2:
  0027a	c6 45 dd ec	 mov	 BYTE PTR __k$[ebp+1], -20 ; ffffffecH
  0027e	eb 04		 jmp	 SHORT $LN1@LoadFloat_@2
$LN96@LoadFloat_@2:
  00280	c6 45 dc ed	 mov	 BYTE PTR __k$[ebp], -19	; ffffffedH
$LN1@LoadFloat_@2:
  00284	6a 06		 push	 6
  00286	8d 45 dc	 lea	 eax, DWORD PTR __k$[ebp]
  00289	c6 45 f4 00	 mov	 BYTE PTR __k$[ebp+24], 0
  0028d	5a		 pop	 edx
$LL104@LoadFloat_@2:
  0028e	81 30 ed ec eb
	ea		 xor	 DWORD PTR [eax], -353637139 ; eaebecedH
  00294	83 c0 04	 add	 eax, 4
  00297	4a		 dec	 edx
  00298	75 f4		 jne	 SHORT $LL104@LoadFloat_@2

; 137  : 		return LoadFloat(_k, f);

  0029a	f3 0f 10 45 0c	 movss	 xmm0, DWORD PTR _f$[ebp]
  0029f	51		 push	 ecx
  002a0	8d 45 dc	 lea	 eax, DWORD PTR __k$[ebp]
  002a3	f3 0f 11 04 24	 movss	 DWORD PTR [esp], xmm0
  002a8	50		 push	 eax
  002a9	8b ce		 mov	 ecx, esi
  002ab	ff 15 00 00 00
	00		 call	 DWORD PTR __imp_?LoadFloat@ioINILoader@@QAEMPBDM@Z

; 138  : 	}

  002b1	8b 4d fc	 mov	 ecx, DWORD PTR __$ArrayPad$[ebp]
  002b4	5e		 pop	 esi
  002b5	33 cd		 xor	 ecx, ebp
  002b7	5b		 pop	 ebx
  002b8	e8 00 00 00 00	 call	 @__security_check_cookie@4
  002bd	c9		 leave
  002be	c2 08 00	 ret	 8
??$LoadFloat_e@$0BJ@@ioINILoader@@QAEMAAY0BJ@$$CBDM@Z ENDP ; ioINILoader::LoadFloat_e<25>
_TEXT	ENDS
PUBLIC	__$ArrayPad$
PUBLIC	??$LoadAttackAttribute_e@$0M@@@YAXAAY0M@$$CBDAAUAttackAttribute@@AAVioINILoader@@@Z ; LoadAttackAttribute_e<12>
EXTRN	?LoadAttackAttribute@@YAXPBDAAUAttackAttribute@@AAVioINILoader@@@Z:PROC ; LoadAttackAttribute
; Function compile flags: /Ogsp
; File d:\lost saga for developer\youtube\tutorial\source\src\lsclient\ioattackattribute.h
;	COMDAT ??$LoadAttackAttribute_e@$0M@@@YAXAAY0M@$$CBDAAUAttackAttribute@@AAVioINILoader@@@Z
_TEXT	SEGMENT
_szEncAttack$ = -20					; size = 12
__$ArrayPad$ = -4					; size = 4
_szAttack$ = 8						; size = 4
_rkAttribute$ = 12					; size = 4
_rkLoader$ = 16						; size = 4
??$LoadAttackAttribute_e@$0M@@@YAXAAY0M@$$CBDAAUAttackAttribute@@AAVioINILoader@@@Z PROC ; LoadAttackAttribute_e<12>, COMDAT

; 131  : {

  00000	55		 push	 ebp
  00001	8b ec		 mov	 ebp, esp
  00003	83 ec 14	 sub	 esp, 20			; 00000014H
  00006	a1 00 00 00 00	 mov	 eax, DWORD PTR ___security_cookie
  0000b	33 c5		 xor	 eax, ebp
  0000d	89 45 fc	 mov	 DWORD PTR __$ArrayPad$[ebp], eax
  00010	8b 45 08	 mov	 eax, DWORD PTR _szAttack$[ebp]

; 132  : 	_ENCSTR(szAttack, szEncAttack);

  00013	8a 08		 mov	 cl, BYTE PTR [eax]
  00015	56		 push	 esi
  00016	8b 75 0c	 mov	 esi, DWORD PTR _rkAttribute$[ebp]
  00019	57		 push	 edi
  0001a	8b 7d 10	 mov	 edi, DWORD PTR _rkLoader$[ebp]
  0001d	84 c9		 test	 cl, cl
  0001f	0f 84 32 01 00
	00		 je	 $LN96@LoadAttack
  00025	80 f1 ed	 xor	 cl, -19			; ffffffedH
  00028	88 4d ec	 mov	 BYTE PTR _szEncAttack$[ebp], cl
  0002b	8a 48 01	 mov	 cl, BYTE PTR [eax+1]
  0002e	84 c9		 test	 cl, cl
  00030	0f 84 1b 01 00
	00		 je	 $LN95@LoadAttack
  00036	b2 ec		 mov	 dl, -20			; ffffffecH
  00038	32 ca		 xor	 cl, dl
  0003a	88 4d ed	 mov	 BYTE PTR _szEncAttack$[ebp+1], cl
  0003d	8a 48 02	 mov	 cl, BYTE PTR [eax+2]
  00040	84 c9		 test	 cl, cl
  00042	0f 84 03 01 00
	00		 je	 $LN94@LoadAttack
  00048	80 f1 eb	 xor	 cl, -21			; ffffffebH
  0004b	88 4d ee	 mov	 BYTE PTR _szEncAttack$[ebp+2], cl
  0004e	8a 48 03	 mov	 cl, BYTE PTR [eax+3]
  00051	84 c9		 test	 cl, cl
  00053	0f 84 ec 00 00
	00		 je	 $LN93@LoadAttack
  00059	80 f1 ea	 xor	 cl, -22			; ffffffeaH
  0005c	88 4d ef	 mov	 BYTE PTR _szEncAttack$[ebp+3], cl
  0005f	8a 48 04	 mov	 cl, BYTE PTR [eax+4]
  00062	84 c9		 test	 cl, cl
  00064	0f 84 d5 00 00
	00		 je	 $LN92@LoadAttack
  0006a	80 f1 ed	 xor	 cl, -19			; ffffffedH
  0006d	88 4d f0	 mov	 BYTE PTR _szEncAttack$[ebp+4], cl
  00070	8a 48 05	 mov	 cl, BYTE PTR [eax+5]
  00073	84 c9		 test	 cl, cl
  00075	0f 84 bf 00 00
	00		 je	 $LN91@LoadAttack
  0007b	32 ca		 xor	 cl, dl
  0007d	88 4d f1	 mov	 BYTE PTR _szEncAttack$[ebp+5], cl
  00080	8a 48 06	 mov	 cl, BYTE PTR [eax+6]
  00083	84 c9		 test	 cl, cl
  00085	0f 84 a9 00 00
	00		 je	 $LN90@LoadAttack
  0008b	80 f1 eb	 xor	 cl, -21			; ffffffebH
  0008e	88 4d f2	 mov	 BYTE PTR _szEncAttack$[ebp+6], cl
  00091	8a 48 07	 mov	 cl, BYTE PTR [eax+7]
  00094	84 c9		 test	 cl, cl
  00096	0f 84 92 00 00
	00		 je	 $LN89@LoadAttack
  0009c	80 f1 ea	 xor	 cl, -22			; ffffffeaH
  0009f	88 4d f3	 mov	 BYTE PTR _szEncAttack$[ebp+7], cl
  000a2	8a 48 08	 mov	 cl, BYTE PTR [eax+8]
  000a5	84 c9		 test	 cl, cl
  000a7	74 7f		 je	 SHORT $LN88@LoadAttack
  000a9	80 f1 ed	 xor	 cl, -19			; ffffffedH
  000ac	88 4d f4	 mov	 BYTE PTR _szEncAttack$[ebp+8], cl
  000af	8a 48 09	 mov	 cl, BYTE PTR [eax+9]
  000b2	84 c9		 test	 cl, cl
  000b4	74 6d		 je	 SHORT $LN87@LoadAttack
  000b6	32 ca		 xor	 cl, dl
  000b8	88 4d f5	 mov	 BYTE PTR _szEncAttack$[ebp+9], cl
  000bb	8a 48 0a	 mov	 cl, BYTE PTR [eax+10]
  000be	84 c9		 test	 cl, cl
  000c0	74 5b		 je	 SHORT $LN86@LoadAttack
  000c2	80 f1 eb	 xor	 cl, -21			; ffffffebH
  000c5	80 78 0b 00	 cmp	 BYTE PTR [eax+11], 0
  000c9	88 4d f6	 mov	 BYTE PTR _szEncAttack$[ebp+10], cl
  000cc	0f 84 89 00 00
	00		 je	 $LN1@LoadAttack
  000d2	8a 48 0c	 mov	 cl, BYTE PTR [eax+12]
  000d5	84 c9		 test	 cl, cl
  000d7	74 3e		 je	 SHORT $LN84@LoadAttack
  000d9	80 f1 ed	 xor	 cl, -19			; ffffffedH
  000dc	88 4d f8	 mov	 BYTE PTR _szEncAttack$[ebp+12], cl
  000df	8a 48 0d	 mov	 cl, BYTE PTR [eax+13]
  000e2	84 c9		 test	 cl, cl
  000e4	74 2c		 je	 SHORT $LN83@LoadAttack
  000e6	32 ca		 xor	 cl, dl
  000e8	88 4d f9	 mov	 BYTE PTR _szEncAttack$[ebp+13], cl
  000eb	8a 48 0e	 mov	 cl, BYTE PTR [eax+14]
  000ee	84 c9		 test	 cl, cl
  000f0	74 1a		 je	 SHORT $LN82@LoadAttack
  000f2	8a 40 0f	 mov	 al, BYTE PTR [eax+15]
  000f5	80 f1 eb	 xor	 cl, -21			; ffffffebH
  000f8	88 4d fa	 mov	 BYTE PTR _szEncAttack$[ebp+14], cl
  000fb	84 c0		 test	 al, al
  000fd	74 07		 je	 SHORT $LN81@LoadAttack
  000ff	34 ea		 xor	 al, -22			; ffffffeaH
  00101	88 45 fb	 mov	 BYTE PTR _szEncAttack$[ebp+15], al
  00104	eb 55		 jmp	 SHORT $LN1@LoadAttack
$LN81@LoadAttack:
  00106	c6 45 fb ea	 mov	 BYTE PTR _szEncAttack$[ebp+15], -22 ; ffffffeaH
  0010a	eb 4f		 jmp	 SHORT $LN1@LoadAttack
$LN82@LoadAttack:
  0010c	c6 45 fa eb	 mov	 BYTE PTR _szEncAttack$[ebp+14], -21 ; ffffffebH
  00110	eb 49		 jmp	 SHORT $LN1@LoadAttack
$LN83@LoadAttack:
  00112	88 55 f9	 mov	 BYTE PTR _szEncAttack$[ebp+13], dl
  00115	eb 44		 jmp	 SHORT $LN1@LoadAttack
$LN84@LoadAttack:
  00117	c6 45 f8 ed	 mov	 BYTE PTR _szEncAttack$[ebp+12], -19 ; ffffffedH
  0011b	eb 3e		 jmp	 SHORT $LN1@LoadAttack
$LN86@LoadAttack:
  0011d	c6 45 f6 eb	 mov	 BYTE PTR _szEncAttack$[ebp+10], -21 ; ffffffebH
  00121	eb 38		 jmp	 SHORT $LN1@LoadAttack
$LN87@LoadAttack:
  00123	88 55 f5	 mov	 BYTE PTR _szEncAttack$[ebp+9], dl
  00126	eb 33		 jmp	 SHORT $LN1@LoadAttack
$LN88@LoadAttack:
  00128	c6 45 f4 ed	 mov	 BYTE PTR _szEncAttack$[ebp+8], -19 ; ffffffedH
  0012c	eb 2d		 jmp	 SHORT $LN1@LoadAttack
$LN89@LoadAttack:
  0012e	c6 45 f3 ea	 mov	 BYTE PTR _szEncAttack$[ebp+7], -22 ; ffffffeaH
  00132	eb 27		 jmp	 SHORT $LN1@LoadAttack
$LN90@LoadAttack:
  00134	c6 45 f2 eb	 mov	 BYTE PTR _szEncAttack$[ebp+6], -21 ; ffffffebH
  00138	eb 21		 jmp	 SHORT $LN1@LoadAttack
$LN91@LoadAttack:
  0013a	88 55 f1	 mov	 BYTE PTR _szEncAttack$[ebp+5], dl
  0013d	eb 1c		 jmp	 SHORT $LN1@LoadAttack
$LN92@LoadAttack:
  0013f	c6 45 f0 ed	 mov	 BYTE PTR _szEncAttack$[ebp+4], -19 ; ffffffedH
  00143	eb 16		 jmp	 SHORT $LN1@LoadAttack
$LN93@LoadAttack:
  00145	c6 45 ef ea	 mov	 BYTE PTR _szEncAttack$[ebp+3], -22 ; ffffffeaH
  00149	eb 10		 jmp	 SHORT $LN1@LoadAttack
$LN94@LoadAttack:
  0014b	c6 45 ee eb	 mov	 BYTE PTR _szEncAttack$[ebp+2], -21 ; ffffffebH
  0014f	eb 0a		 jmp	 SHORT $LN1@LoadAttack
$LN95@LoadAttack:
  00151	c6 45 ed ec	 mov	 BYTE PTR _szEncAttack$[ebp+1], -20 ; ffffffecH
  00155	eb 04		 jmp	 SHORT $LN1@LoadAttack
$LN96@LoadAttack:
  00157	c6 45 ec ed	 mov	 BYTE PTR _szEncAttack$[ebp], -19 ; ffffffedH
$LN1@LoadAttack:
  0015b	6a 02		 push	 2
  0015d	8d 45 ec	 lea	 eax, DWORD PTR _szEncAttack$[ebp]
  00160	c6 45 f7 00	 mov	 BYTE PTR _szEncAttack$[ebp+11], 0
  00164	59		 pop	 ecx
$LL104@LoadAttack:
  00165	81 30 ed ec eb
	ea		 xor	 DWORD PTR [eax], -353637139 ; eaebecedH
  0016b	83 c0 04	 add	 eax, 4
  0016e	49		 dec	 ecx
  0016f	75 f4		 jne	 SHORT $LL104@LoadAttack
  00171	6a 08		 push	 8
  00173	58		 pop	 eax
$LL101@LoadAttack:
  00174	8b c8		 mov	 ecx, eax
  00176	81 e1 03 00 00
	80		 and	 ecx, -2147483645	; 80000003H
  0017c	79 05		 jns	 SHORT $LN111@LoadAttack
  0017e	49		 dec	 ecx
  0017f	83 c9 fc	 or	 ecx, -4			; fffffffcH
  00182	41		 inc	 ecx
$LN111@LoadAttack:
  00183	b2 ed		 mov	 dl, -19			; ffffffedH
  00185	2a d1		 sub	 dl, cl
  00187	30 54 05 ec	 xor	 BYTE PTR _szEncAttack$[ebp+eax], dl
  0018b	40		 inc	 eax
  0018c	83 f8 0b	 cmp	 eax, 11			; 0000000bH
  0018f	7c e3		 jl	 SHORT $LL101@LoadAttack

; 133  : 	LoadAttackAttribute(szEncAttack, rkAttribute, rkLoader);

  00191	57		 push	 edi
  00192	8d 45 ec	 lea	 eax, DWORD PTR _szEncAttack$[ebp]
  00195	56		 push	 esi
  00196	50		 push	 eax
  00197	e8 00 00 00 00	 call	 ?LoadAttackAttribute@@YAXPBDAAUAttackAttribute@@AAVioINILoader@@@Z ; LoadAttackAttribute

; 134  : }

  0019c	8b 4d fc	 mov	 ecx, DWORD PTR __$ArrayPad$[ebp]
  0019f	83 c4 0c	 add	 esp, 12			; 0000000cH
  001a2	5f		 pop	 edi
  001a3	33 cd		 xor	 ecx, ebp
  001a5	5e		 pop	 esi
  001a6	e8 00 00 00 00	 call	 @__security_check_cookie@4
  001ab	c9		 leave
  001ac	c3		 ret	 0
??$LoadAttackAttribute_e@$0M@@@YAXAAY0M@$$CBDAAUAttackAttribute@@AAVioINILoader@@@Z ENDP ; LoadAttackAttribute_e<12>
_TEXT	ENDS
PUBLIC	__$ArrayPad$
PUBLIC	??$LoadAttackAttribute_e@$0BD@@@YAXAAY0BD@$$CBDAAUAttackAttribute@@AAVioINILoader@@@Z ; LoadAttackAttribute_e<19>
; Function compile flags: /Ogsp
;	COMDAT ??$LoadAttackAttribute_e@$0BD@@@YAXAAY0BD@$$CBDAAUAttackAttribute@@AAVioINILoader@@@Z
_TEXT	SEGMENT
_szEncAttack$ = -28					; size = 19
__$ArrayPad$ = -4					; size = 4
_szAttack$ = 8						; size = 4
_rkAttribute$ = 12					; size = 4
_rkLoader$ = 16						; size = 4
??$LoadAttackAttribute_e@$0BD@@@YAXAAY0BD@$$CBDAAUAttackAttribute@@AAVioINILoader@@@Z PROC ; LoadAttackAttribute_e<19>, COMDAT

; 131  : {

  00000	55		 push	 ebp
  00001	8b ec		 mov	 ebp, esp
  00003	83 ec 1c	 sub	 esp, 28			; 0000001cH
  00006	a1 00 00 00 00	 mov	 eax, DWORD PTR ___security_cookie
  0000b	33 c5		 xor	 eax, ebp
  0000d	89 45 fc	 mov	 DWORD PTR __$ArrayPad$[ebp], eax
  00010	8b 45 08	 mov	 eax, DWORD PTR _szAttack$[ebp]

; 132  : 	_ENCSTR(szAttack, szEncAttack);

  00013	8a 08		 mov	 cl, BYTE PTR [eax]
  00015	53		 push	 ebx
  00016	56		 push	 esi
  00017	8b 75 0c	 mov	 esi, DWORD PTR _rkAttribute$[ebp]
  0001a	57		 push	 edi
  0001b	8b 7d 10	 mov	 edi, DWORD PTR _rkLoader$[ebp]
  0001e	84 c9		 test	 cl, cl
  00020	0f 84 c8 01 00
	00		 je	 $LN96@LoadAttack@2
  00026	80 f1 ed	 xor	 cl, -19			; ffffffedH
  00029	88 4d e4	 mov	 BYTE PTR _szEncAttack$[ebp], cl
  0002c	8a 48 01	 mov	 cl, BYTE PTR [eax+1]
  0002f	84 c9		 test	 cl, cl
  00031	0f 84 b1 01 00
	00		 je	 $LN95@LoadAttack@2
  00037	b3 ec		 mov	 bl, -20			; ffffffecH
  00039	32 cb		 xor	 cl, bl
  0003b	88 4d e5	 mov	 BYTE PTR _szEncAttack$[ebp+1], cl
  0003e	8a 48 02	 mov	 cl, BYTE PTR [eax+2]
  00041	84 c9		 test	 cl, cl
  00043	0f 84 99 01 00
	00		 je	 $LN94@LoadAttack@2
  00049	80 f1 eb	 xor	 cl, -21			; ffffffebH
  0004c	88 4d e6	 mov	 BYTE PTR _szEncAttack$[ebp+2], cl
  0004f	8a 48 03	 mov	 cl, BYTE PTR [eax+3]
  00052	84 c9		 test	 cl, cl
  00054	0f 84 82 01 00
	00		 je	 $LN93@LoadAttack@2
  0005a	b2 ea		 mov	 dl, -22			; ffffffeaH
  0005c	32 ca		 xor	 cl, dl
  0005e	88 4d e7	 mov	 BYTE PTR _szEncAttack$[ebp+3], cl
  00061	8a 48 04	 mov	 cl, BYTE PTR [eax+4]
  00064	84 c9		 test	 cl, cl
  00066	0f 84 6a 01 00
	00		 je	 $LN92@LoadAttack@2
  0006c	80 f1 ed	 xor	 cl, -19			; ffffffedH
  0006f	88 4d e8	 mov	 BYTE PTR _szEncAttack$[ebp+4], cl
  00072	8a 48 05	 mov	 cl, BYTE PTR [eax+5]
  00075	84 c9		 test	 cl, cl
  00077	0f 84 54 01 00
	00		 je	 $LN91@LoadAttack@2
  0007d	32 cb		 xor	 cl, bl
  0007f	88 4d e9	 mov	 BYTE PTR _szEncAttack$[ebp+5], cl
  00082	8a 48 06	 mov	 cl, BYTE PTR [eax+6]
  00085	84 c9		 test	 cl, cl
  00087	0f 84 3e 01 00
	00		 je	 $LN90@LoadAttack@2
  0008d	80 f1 eb	 xor	 cl, -21			; ffffffebH
  00090	88 4d ea	 mov	 BYTE PTR _szEncAttack$[ebp+6], cl
  00093	8a 48 07	 mov	 cl, BYTE PTR [eax+7]
  00096	84 c9		 test	 cl, cl
  00098	0f 84 28 01 00
	00		 je	 $LN89@LoadAttack@2
  0009e	32 ca		 xor	 cl, dl
  000a0	88 4d eb	 mov	 BYTE PTR _szEncAttack$[ebp+7], cl
  000a3	8a 48 08	 mov	 cl, BYTE PTR [eax+8]
  000a6	84 c9		 test	 cl, cl
  000a8	0f 84 12 01 00
	00		 je	 $LN88@LoadAttack@2
  000ae	80 f1 ed	 xor	 cl, -19			; ffffffedH
  000b1	88 4d ec	 mov	 BYTE PTR _szEncAttack$[ebp+8], cl
  000b4	8a 48 09	 mov	 cl, BYTE PTR [eax+9]
  000b7	84 c9		 test	 cl, cl
  000b9	0f 84 fc 00 00
	00		 je	 $LN87@LoadAttack@2
  000bf	32 cb		 xor	 cl, bl
  000c1	88 4d ed	 mov	 BYTE PTR _szEncAttack$[ebp+9], cl
  000c4	8a 48 0a	 mov	 cl, BYTE PTR [eax+10]
  000c7	84 c9		 test	 cl, cl
  000c9	0f 84 e6 00 00
	00		 je	 $LN86@LoadAttack@2
  000cf	80 f1 eb	 xor	 cl, -21			; ffffffebH
  000d2	88 4d ee	 mov	 BYTE PTR _szEncAttack$[ebp+10], cl
  000d5	8a 48 0b	 mov	 cl, BYTE PTR [eax+11]
  000d8	84 c9		 test	 cl, cl
  000da	0f 84 d0 00 00
	00		 je	 $LN85@LoadAttack@2
  000e0	32 ca		 xor	 cl, dl
  000e2	88 4d ef	 mov	 BYTE PTR _szEncAttack$[ebp+11], cl
  000e5	8a 48 0c	 mov	 cl, BYTE PTR [eax+12]
  000e8	84 c9		 test	 cl, cl
  000ea	0f 84 ba 00 00
	00		 je	 $LN84@LoadAttack@2
  000f0	80 f1 ed	 xor	 cl, -19			; ffffffedH
  000f3	88 4d f0	 mov	 BYTE PTR _szEncAttack$[ebp+12], cl
  000f6	8a 48 0d	 mov	 cl, BYTE PTR [eax+13]
  000f9	84 c9		 test	 cl, cl
  000fb	0f 84 a4 00 00
	00		 je	 $LN83@LoadAttack@2
  00101	32 cb		 xor	 cl, bl
  00103	88 4d f1	 mov	 BYTE PTR _szEncAttack$[ebp+13], cl
  00106	8a 48 0e	 mov	 cl, BYTE PTR [eax+14]
  00109	84 c9		 test	 cl, cl
  0010b	0f 84 8e 00 00
	00		 je	 $LN82@LoadAttack@2
  00111	80 f1 eb	 xor	 cl, -21			; ffffffebH
  00114	88 4d f2	 mov	 BYTE PTR _szEncAttack$[ebp+14], cl
  00117	8a 48 0f	 mov	 cl, BYTE PTR [eax+15]
  0011a	84 c9		 test	 cl, cl
  0011c	74 7c		 je	 SHORT $LN81@LoadAttack@2
  0011e	32 ca		 xor	 cl, dl
  00120	88 4d f3	 mov	 BYTE PTR _szEncAttack$[ebp+15], cl
  00123	8a 48 10	 mov	 cl, BYTE PTR [eax+16]
  00126	84 c9		 test	 cl, cl
  00128	74 6a		 je	 SHORT $LN80@LoadAttack@2
  0012a	80 f1 ed	 xor	 cl, -19			; ffffffedH
  0012d	88 4d f4	 mov	 BYTE PTR _szEncAttack$[ebp+16], cl
  00130	8a 48 11	 mov	 cl, BYTE PTR [eax+17]
  00133	84 c9		 test	 cl, cl
  00135	74 58		 je	 SHORT $LN79@LoadAttack@2
  00137	32 cb		 xor	 cl, bl
  00139	80 78 12 00	 cmp	 BYTE PTR [eax+18], 0
  0013d	88 4d f5	 mov	 BYTE PTR _szEncAttack$[ebp+17], cl
  00140	0f 84 ac 00 00
	00		 je	 $LN1@LoadAttack@2
  00146	8a 48 13	 mov	 cl, BYTE PTR [eax+19]
  00149	84 c9		 test	 cl, cl
  0014b	74 3d		 je	 SHORT $LN77@LoadAttack@2
  0014d	32 ca		 xor	 cl, dl
  0014f	88 4d f7	 mov	 BYTE PTR _szEncAttack$[ebp+19], cl
  00152	8a 48 14	 mov	 cl, BYTE PTR [eax+20]
  00155	84 c9		 test	 cl, cl
  00157	74 2b		 je	 SHORT $LN76@LoadAttack@2
  00159	80 f1 ed	 xor	 cl, -19			; ffffffedH
  0015c	88 4d f8	 mov	 BYTE PTR _szEncAttack$[ebp+20], cl
  0015f	8a 48 15	 mov	 cl, BYTE PTR [eax+21]
  00162	84 c9		 test	 cl, cl
  00164	74 19		 je	 SHORT $LN75@LoadAttack@2
  00166	8a 40 16	 mov	 al, BYTE PTR [eax+22]
  00169	32 cb		 xor	 cl, bl
  0016b	88 4d f9	 mov	 BYTE PTR _szEncAttack$[ebp+21], cl
  0016e	84 c0		 test	 al, al
  00170	74 07		 je	 SHORT $LN74@LoadAttack@2
  00172	34 eb		 xor	 al, -21			; ffffffebH
  00174	88 45 fa	 mov	 BYTE PTR _szEncAttack$[ebp+22], al
  00177	eb 79		 jmp	 SHORT $LN1@LoadAttack@2
$LN74@LoadAttack@2:
  00179	c6 45 fa eb	 mov	 BYTE PTR _szEncAttack$[ebp+22], -21 ; ffffffebH
  0017d	eb 73		 jmp	 SHORT $LN1@LoadAttack@2
$LN75@LoadAttack@2:
  0017f	88 5d f9	 mov	 BYTE PTR _szEncAttack$[ebp+21], bl
  00182	eb 6e		 jmp	 SHORT $LN1@LoadAttack@2
$LN76@LoadAttack@2:
  00184	c6 45 f8 ed	 mov	 BYTE PTR _szEncAttack$[ebp+20], -19 ; ffffffedH
  00188	eb 68		 jmp	 SHORT $LN1@LoadAttack@2
$LN77@LoadAttack@2:
  0018a	88 55 f7	 mov	 BYTE PTR _szEncAttack$[ebp+19], dl
  0018d	eb 63		 jmp	 SHORT $LN1@LoadAttack@2
$LN79@LoadAttack@2:
  0018f	88 5d f5	 mov	 BYTE PTR _szEncAttack$[ebp+17], bl
  00192	eb 5e		 jmp	 SHORT $LN1@LoadAttack@2
$LN80@LoadAttack@2:
  00194	c6 45 f4 ed	 mov	 BYTE PTR _szEncAttack$[ebp+16], -19 ; ffffffedH
  00198	eb 58		 jmp	 SHORT $LN1@LoadAttack@2
$LN81@LoadAttack@2:
  0019a	88 55 f3	 mov	 BYTE PTR _szEncAttack$[ebp+15], dl
  0019d	eb 53		 jmp	 SHORT $LN1@LoadAttack@2
$LN82@LoadAttack@2:
  0019f	c6 45 f2 eb	 mov	 BYTE PTR _szEncAttack$[ebp+14], -21 ; ffffffebH
  001a3	eb 4d		 jmp	 SHORT $LN1@LoadAttack@2
$LN83@LoadAttack@2:
  001a5	88 5d f1	 mov	 BYTE PTR _szEncAttack$[ebp+13], bl
  001a8	eb 48		 jmp	 SHORT $LN1@LoadAttack@2
$LN84@LoadAttack@2:
  001aa	c6 45 f0 ed	 mov	 BYTE PTR _szEncAttack$[ebp+12], -19 ; ffffffedH
  001ae	eb 42		 jmp	 SHORT $LN1@LoadAttack@2
$LN85@LoadAttack@2:
  001b0	88 55 ef	 mov	 BYTE PTR _szEncAttack$[ebp+11], dl
  001b3	eb 3d		 jmp	 SHORT $LN1@LoadAttack@2
$LN86@LoadAttack@2:
  001b5	c6 45 ee eb	 mov	 BYTE PTR _szEncAttack$[ebp+10], -21 ; ffffffebH
  001b9	eb 37		 jmp	 SHORT $LN1@LoadAttack@2
$LN87@LoadAttack@2:
  001bb	88 5d ed	 mov	 BYTE PTR _szEncAttack$[ebp+9], bl
  001be	eb 32		 jmp	 SHORT $LN1@LoadAttack@2
$LN88@LoadAttack@2:
  001c0	c6 45 ec ed	 mov	 BYTE PTR _szEncAttack$[ebp+8], -19 ; ffffffedH
  001c4	eb 2c		 jmp	 SHORT $LN1@LoadAttack@2
$LN89@LoadAttack@2:
  001c6	88 55 eb	 mov	 BYTE PTR _szEncAttack$[ebp+7], dl
  001c9	eb 27		 jmp	 SHORT $LN1@LoadAttack@2
$LN90@LoadAttack@2:
  001cb	c6 45 ea eb	 mov	 BYTE PTR _szEncAttack$[ebp+6], -21 ; ffffffebH
  001cf	eb 21		 jmp	 SHORT $LN1@LoadAttack@2
$LN91@LoadAttack@2:
  001d1	88 5d e9	 mov	 BYTE PTR _szEncAttack$[ebp+5], bl
  001d4	eb 1c		 jmp	 SHORT $LN1@LoadAttack@2
$LN92@LoadAttack@2:
  001d6	c6 45 e8 ed	 mov	 BYTE PTR _szEncAttack$[ebp+4], -19 ; ffffffedH
  001da	eb 16		 jmp	 SHORT $LN1@LoadAttack@2
$LN93@LoadAttack@2:
  001dc	c6 45 e7 ea	 mov	 BYTE PTR _szEncAttack$[ebp+3], -22 ; ffffffeaH
  001e0	eb 10		 jmp	 SHORT $LN1@LoadAttack@2
$LN94@LoadAttack@2:
  001e2	c6 45 e6 eb	 mov	 BYTE PTR _szEncAttack$[ebp+2], -21 ; ffffffebH
  001e6	eb 0a		 jmp	 SHORT $LN1@LoadAttack@2
$LN95@LoadAttack@2:
  001e8	c6 45 e5 ec	 mov	 BYTE PTR _szEncAttack$[ebp+1], -20 ; ffffffecH
  001ec	eb 04		 jmp	 SHORT $LN1@LoadAttack@2
$LN96@LoadAttack@2:
  001ee	c6 45 e4 ed	 mov	 BYTE PTR _szEncAttack$[ebp], -19 ; ffffffedH
$LN1@LoadAttack@2:
  001f2	6a 04		 push	 4
  001f4	8d 45 e4	 lea	 eax, DWORD PTR _szEncAttack$[ebp]
  001f7	c6 45 f6 00	 mov	 BYTE PTR _szEncAttack$[ebp+18], 0
  001fb	59		 pop	 ecx
$LL104@LoadAttack@2:
  001fc	81 30 ed ec eb
	ea		 xor	 DWORD PTR [eax], -353637139 ; eaebecedH
  00202	83 c0 04	 add	 eax, 4
  00205	49		 dec	 ecx
  00206	75 f4		 jne	 SHORT $LL104@LoadAttack@2
  00208	6a 10		 push	 16			; 00000010H
  0020a	58		 pop	 eax
$LL101@LoadAttack@2:
  0020b	8b c8		 mov	 ecx, eax
  0020d	81 e1 03 00 00
	80		 and	 ecx, -2147483645	; 80000003H
  00213	79 05		 jns	 SHORT $LN111@LoadAttack@2
  00215	49		 dec	 ecx
  00216	83 c9 fc	 or	 ecx, -4			; fffffffcH
  00219	41		 inc	 ecx
$LN111@LoadAttack@2:
  0021a	b2 ed		 mov	 dl, -19			; ffffffedH
  0021c	2a d1		 sub	 dl, cl
  0021e	30 54 05 e4	 xor	 BYTE PTR _szEncAttack$[ebp+eax], dl
  00222	40		 inc	 eax
  00223	83 f8 12	 cmp	 eax, 18			; 00000012H
  00226	7c e3		 jl	 SHORT $LL101@LoadAttack@2

; 133  : 	LoadAttackAttribute(szEncAttack, rkAttribute, rkLoader);

  00228	57		 push	 edi
  00229	8d 45 e4	 lea	 eax, DWORD PTR _szEncAttack$[ebp]
  0022c	56		 push	 esi
  0022d	50		 push	 eax
  0022e	e8 00 00 00 00	 call	 ?LoadAttackAttribute@@YAXPBDAAUAttackAttribute@@AAVioINILoader@@@Z ; LoadAttackAttribute

; 134  : }

  00233	8b 4d fc	 mov	 ecx, DWORD PTR __$ArrayPad$[ebp]
  00236	83 c4 0c	 add	 esp, 12			; 0000000cH
  00239	5f		 pop	 edi
  0023a	5e		 pop	 esi
  0023b	33 cd		 xor	 ecx, ebp
  0023d	5b		 pop	 ebx
  0023e	e8 00 00 00 00	 call	 @__security_check_cookie@4
  00243	c9		 leave
  00244	c3		 ret	 0
??$LoadAttackAttribute_e@$0BD@@@YAXAAY0BD@$$CBDAAUAttackAttribute@@AAVioINILoader@@@Z ENDP ; LoadAttackAttribute_e<19>
_TEXT	ENDS
PUBLIC	__$ArrayPad$
PUBLIC	??$LoadBool_e@$0BB@@ioINILoader@@QAE_NAAY0BB@$$CBD_N@Z ; ioINILoader::LoadBool_e<17>
; Function compile flags: /Ogsp
; File d:\lost saga for developer\youtube\tutorial\source\src\io3dengine\ioiniloader.h
;	COMDAT ??$LoadBool_e@$0BB@@ioINILoader@@QAE_NAAY0BB@$$CBD_N@Z
_TEXT	SEGMENT
__k$ = -28						; size = 17
__$ArrayPad$ = -4					; size = 4
_k$ = 8							; size = 4
_b$ = 12						; size = 1
??$LoadBool_e@$0BB@@ioINILoader@@QAE_NAAY0BB@$$CBD_N@Z PROC ; ioINILoader::LoadBool_e<17>, COMDAT
; _this$ = ecx

; 101  : 	{

  00000	55		 push	 ebp
  00001	8b ec		 mov	 ebp, esp
  00003	83 ec 1c	 sub	 esp, 28			; 0000001cH
  00006	a1 00 00 00 00	 mov	 eax, DWORD PTR ___security_cookie
  0000b	33 c5		 xor	 eax, ebp
  0000d	89 45 fc	 mov	 DWORD PTR __$ArrayPad$[ebp], eax
  00010	8b 45 08	 mov	 eax, DWORD PTR _k$[ebp]

; 102  : 		_ENCSTR(k, _k);

  00013	8a 10		 mov	 dl, BYTE PTR [eax]
  00015	56		 push	 esi
  00016	8b f1		 mov	 esi, ecx
  00018	84 d2		 test	 dl, dl
  0001a	0f 84 a7 01 00
	00		 je	 $LN96@LoadBool_e@2
  00020	80 f2 ed	 xor	 dl, -19			; ffffffedH
  00023	88 55 e4	 mov	 BYTE PTR __k$[ebp], dl
  00026	8a 50 01	 mov	 dl, BYTE PTR [eax+1]
  00029	84 d2		 test	 dl, dl
  0002b	0f 84 90 01 00
	00		 je	 $LN95@LoadBool_e@2
  00031	b1 ec		 mov	 cl, -20			; ffffffecH
  00033	32 d1		 xor	 dl, cl
  00035	88 55 e5	 mov	 BYTE PTR __k$[ebp+1], dl
  00038	8a 50 02	 mov	 dl, BYTE PTR [eax+2]
  0003b	84 d2		 test	 dl, dl
  0003d	0f 84 78 01 00
	00		 je	 $LN94@LoadBool_e@2
  00043	80 f2 eb	 xor	 dl, -21			; ffffffebH
  00046	88 55 e6	 mov	 BYTE PTR __k$[ebp+2], dl
  00049	8a 50 03	 mov	 dl, BYTE PTR [eax+3]
  0004c	84 d2		 test	 dl, dl
  0004e	0f 84 61 01 00
	00		 je	 $LN93@LoadBool_e@2
  00054	80 f2 ea	 xor	 dl, -22			; ffffffeaH
  00057	88 55 e7	 mov	 BYTE PTR __k$[ebp+3], dl
  0005a	8a 50 04	 mov	 dl, BYTE PTR [eax+4]
  0005d	84 d2		 test	 dl, dl
  0005f	0f 84 4a 01 00
	00		 je	 $LN92@LoadBool_e@2
  00065	80 f2 ed	 xor	 dl, -19			; ffffffedH
  00068	88 55 e8	 mov	 BYTE PTR __k$[ebp+4], dl
  0006b	8a 50 05	 mov	 dl, BYTE PTR [eax+5]
  0006e	84 d2		 test	 dl, dl
  00070	0f 84 34 01 00
	00		 je	 $LN91@LoadBool_e@2
  00076	32 d1		 xor	 dl, cl
  00078	88 55 e9	 mov	 BYTE PTR __k$[ebp+5], dl
  0007b	8a 50 06	 mov	 dl, BYTE PTR [eax+6]
  0007e	84 d2		 test	 dl, dl
  00080	0f 84 1e 01 00
	00		 je	 $LN90@LoadBool_e@2
  00086	80 f2 eb	 xor	 dl, -21			; ffffffebH
  00089	88 55 ea	 mov	 BYTE PTR __k$[ebp+6], dl
  0008c	8a 50 07	 mov	 dl, BYTE PTR [eax+7]
  0008f	84 d2		 test	 dl, dl
  00091	0f 84 07 01 00
	00		 je	 $LN89@LoadBool_e@2
  00097	80 f2 ea	 xor	 dl, -22			; ffffffeaH
  0009a	88 55 eb	 mov	 BYTE PTR __k$[ebp+7], dl
  0009d	8a 50 08	 mov	 dl, BYTE PTR [eax+8]
  000a0	84 d2		 test	 dl, dl
  000a2	0f 84 f0 00 00
	00		 je	 $LN88@LoadBool_e@2
  000a8	80 f2 ed	 xor	 dl, -19			; ffffffedH
  000ab	88 55 ec	 mov	 BYTE PTR __k$[ebp+8], dl
  000ae	8a 50 09	 mov	 dl, BYTE PTR [eax+9]
  000b1	84 d2		 test	 dl, dl
  000b3	0f 84 da 00 00
	00		 je	 $LN87@LoadBool_e@2
  000b9	32 d1		 xor	 dl, cl
  000bb	88 55 ed	 mov	 BYTE PTR __k$[ebp+9], dl
  000be	8a 50 0a	 mov	 dl, BYTE PTR [eax+10]
  000c1	84 d2		 test	 dl, dl
  000c3	0f 84 c4 00 00
	00		 je	 $LN86@LoadBool_e@2
  000c9	80 f2 eb	 xor	 dl, -21			; ffffffebH
  000cc	88 55 ee	 mov	 BYTE PTR __k$[ebp+10], dl
  000cf	8a 50 0b	 mov	 dl, BYTE PTR [eax+11]
  000d2	84 d2		 test	 dl, dl
  000d4	0f 84 ad 00 00
	00		 je	 $LN85@LoadBool_e@2
  000da	80 f2 ea	 xor	 dl, -22			; ffffffeaH
  000dd	88 55 ef	 mov	 BYTE PTR __k$[ebp+11], dl
  000e0	8a 50 0c	 mov	 dl, BYTE PTR [eax+12]
  000e3	84 d2		 test	 dl, dl
  000e5	0f 84 96 00 00
	00		 je	 $LN84@LoadBool_e@2
  000eb	80 f2 ed	 xor	 dl, -19			; ffffffedH
  000ee	88 55 f0	 mov	 BYTE PTR __k$[ebp+12], dl
  000f1	8a 50 0d	 mov	 dl, BYTE PTR [eax+13]
  000f4	84 d2		 test	 dl, dl
  000f6	0f 84 80 00 00
	00		 je	 $LN83@LoadBool_e@2
  000fc	32 d1		 xor	 dl, cl
  000fe	88 55 f1	 mov	 BYTE PTR __k$[ebp+13], dl
  00101	8a 50 0e	 mov	 dl, BYTE PTR [eax+14]
  00104	84 d2		 test	 dl, dl
  00106	74 6e		 je	 SHORT $LN82@LoadBool_e@2
  00108	80 f2 eb	 xor	 dl, -21			; ffffffebH
  0010b	88 55 f2	 mov	 BYTE PTR __k$[ebp+14], dl
  0010e	8a 50 0f	 mov	 dl, BYTE PTR [eax+15]
  00111	84 d2		 test	 dl, dl
  00113	74 5b		 je	 SHORT $LN81@LoadBool_e@2
  00115	80 f2 ea	 xor	 dl, -22			; ffffffeaH
  00118	80 78 10 00	 cmp	 BYTE PTR [eax+16], 0
  0011c	88 55 f3	 mov	 BYTE PTR __k$[ebp+15], dl
  0011f	0f 84 a6 00 00
	00		 je	 $LN1@LoadBool_e@2
  00125	8a 50 11	 mov	 dl, BYTE PTR [eax+17]
  00128	84 d2		 test	 dl, dl
  0012a	74 3f		 je	 SHORT $LN79@LoadBool_e@2
  0012c	32 d1		 xor	 dl, cl
  0012e	88 55 f5	 mov	 BYTE PTR __k$[ebp+17], dl
  00131	8a 50 12	 mov	 dl, BYTE PTR [eax+18]
  00134	84 d2		 test	 dl, dl
  00136	74 2d		 je	 SHORT $LN78@LoadBool_e@2
  00138	80 f2 eb	 xor	 dl, -21			; ffffffebH
  0013b	88 55 f6	 mov	 BYTE PTR __k$[ebp+18], dl
  0013e	8a 50 13	 mov	 dl, BYTE PTR [eax+19]
  00141	84 d2		 test	 dl, dl
  00143	74 1a		 je	 SHORT $LN77@LoadBool_e@2
  00145	8a 40 14	 mov	 al, BYTE PTR [eax+20]
  00148	80 f2 ea	 xor	 dl, -22			; ffffffeaH
  0014b	88 55 f7	 mov	 BYTE PTR __k$[ebp+19], dl
  0014e	84 c0		 test	 al, al
  00150	74 07		 je	 SHORT $LN76@LoadBool_e@2
  00152	34 ed		 xor	 al, -19			; ffffffedH
  00154	88 45 f8	 mov	 BYTE PTR __k$[ebp+20], al
  00157	eb 72		 jmp	 SHORT $LN1@LoadBool_e@2
$LN76@LoadBool_e@2:
  00159	c6 45 f8 ed	 mov	 BYTE PTR __k$[ebp+20], -19 ; ffffffedH
  0015d	eb 6c		 jmp	 SHORT $LN1@LoadBool_e@2
$LN77@LoadBool_e@2:
  0015f	c6 45 f7 ea	 mov	 BYTE PTR __k$[ebp+19], -22 ; ffffffeaH
  00163	eb 66		 jmp	 SHORT $LN1@LoadBool_e@2
$LN78@LoadBool_e@2:
  00165	c6 45 f6 eb	 mov	 BYTE PTR __k$[ebp+18], -21 ; ffffffebH
  00169	eb 60		 jmp	 SHORT $LN1@LoadBool_e@2
$LN79@LoadBool_e@2:
  0016b	88 4d f5	 mov	 BYTE PTR __k$[ebp+17], cl
  0016e	eb 5b		 jmp	 SHORT $LN1@LoadBool_e@2
$LN81@LoadBool_e@2:
  00170	c6 45 f3 ea	 mov	 BYTE PTR __k$[ebp+15], -22 ; ffffffeaH
  00174	eb 55		 jmp	 SHORT $LN1@LoadBool_e@2
$LN82@LoadBool_e@2:
  00176	c6 45 f2 eb	 mov	 BYTE PTR __k$[ebp+14], -21 ; ffffffebH
  0017a	eb 4f		 jmp	 SHORT $LN1@LoadBool_e@2
$LN83@LoadBool_e@2:
  0017c	88 4d f1	 mov	 BYTE PTR __k$[ebp+13], cl
  0017f	eb 4a		 jmp	 SHORT $LN1@LoadBool_e@2
$LN84@LoadBool_e@2:
  00181	c6 45 f0 ed	 mov	 BYTE PTR __k$[ebp+12], -19 ; ffffffedH
  00185	eb 44		 jmp	 SHORT $LN1@LoadBool_e@2
$LN85@LoadBool_e@2:
  00187	c6 45 ef ea	 mov	 BYTE PTR __k$[ebp+11], -22 ; ffffffeaH
  0018b	eb 3e		 jmp	 SHORT $LN1@LoadBool_e@2
$LN86@LoadBool_e@2:
  0018d	c6 45 ee eb	 mov	 BYTE PTR __k$[ebp+10], -21 ; ffffffebH
  00191	eb 38		 jmp	 SHORT $LN1@LoadBool_e@2
$LN87@LoadBool_e@2:
  00193	88 4d ed	 mov	 BYTE PTR __k$[ebp+9], cl
  00196	eb 33		 jmp	 SHORT $LN1@LoadBool_e@2
$LN88@LoadBool_e@2:
  00198	c6 45 ec ed	 mov	 BYTE PTR __k$[ebp+8], -19 ; ffffffedH
  0019c	eb 2d		 jmp	 SHORT $LN1@LoadBool_e@2
$LN89@LoadBool_e@2:
  0019e	c6 45 eb ea	 mov	 BYTE PTR __k$[ebp+7], -22 ; ffffffeaH
  001a2	eb 27		 jmp	 SHORT $LN1@LoadBool_e@2
$LN90@LoadBool_e@2:
  001a4	c6 45 ea eb	 mov	 BYTE PTR __k$[ebp+6], -21 ; ffffffebH
  001a8	eb 21		 jmp	 SHORT $LN1@LoadBool_e@2
$LN91@LoadBool_e@2:
  001aa	88 4d e9	 mov	 BYTE PTR __k$[ebp+5], cl
  001ad	eb 1c		 jmp	 SHORT $LN1@LoadBool_e@2
$LN92@LoadBool_e@2:
  001af	c6 45 e8 ed	 mov	 BYTE PTR __k$[ebp+4], -19 ; ffffffedH
  001b3	eb 16		 jmp	 SHORT $LN1@LoadBool_e@2
$LN93@LoadBool_e@2:
  001b5	c6 45 e7 ea	 mov	 BYTE PTR __k$[ebp+3], -22 ; ffffffeaH
  001b9	eb 10		 jmp	 SHORT $LN1@LoadBool_e@2
$LN94@LoadBool_e@2:
  001bb	c6 45 e6 eb	 mov	 BYTE PTR __k$[ebp+2], -21 ; ffffffebH
  001bf	eb 0a		 jmp	 SHORT $LN1@LoadBool_e@2
$LN95@LoadBool_e@2:
  001c1	c6 45 e5 ec	 mov	 BYTE PTR __k$[ebp+1], -20 ; ffffffecH
  001c5	eb 04		 jmp	 SHORT $LN1@LoadBool_e@2
$LN96@LoadBool_e@2:
  001c7	c6 45 e4 ed	 mov	 BYTE PTR __k$[ebp], -19	; ffffffedH
$LN1@LoadBool_e@2:
  001cb	6a 04		 push	 4
  001cd	8d 45 e4	 lea	 eax, DWORD PTR __k$[ebp]
  001d0	c6 45 f4 00	 mov	 BYTE PTR __k$[ebp+16], 0
  001d4	5a		 pop	 edx
$LL104@LoadBool_e@2:
  001d5	81 30 ed ec eb
	ea		 xor	 DWORD PTR [eax], -353637139 ; eaebecedH
  001db	83 c0 04	 add	 eax, 4
  001de	4a		 dec	 edx
  001df	75 f4		 jne	 SHORT $LL104@LoadBool_e@2

; 103  : 		return LoadBool(_k, b);

  001e1	ff 75 0c	 push	 DWORD PTR _b$[ebp]
  001e4	8d 45 e4	 lea	 eax, DWORD PTR __k$[ebp]
  001e7	50		 push	 eax
  001e8	8b ce		 mov	 ecx, esi
  001ea	ff 15 00 00 00
	00		 call	 DWORD PTR __imp_?LoadBool@ioINILoader@@QAE_NPBD_N@Z

; 104  : 	}

  001f0	8b 4d fc	 mov	 ecx, DWORD PTR __$ArrayPad$[ebp]
  001f3	33 cd		 xor	 ecx, ebp
  001f5	5e		 pop	 esi
  001f6	e8 00 00 00 00	 call	 @__security_check_cookie@4
  001fb	c9		 leave
  001fc	c2 08 00	 ret	 8
??$LoadBool_e@$0BB@@ioINILoader@@QAE_NAAY0BB@$$CBD_N@Z ENDP ; ioINILoader::LoadBool_e<17>
_TEXT	ENDS
PUBLIC	__$ArrayPad$
PUBLIC	??$LoadInt_e@$0P@@ioINILoader@@QAEHAAY0P@$$CBDH@Z ; ioINILoader::LoadInt_e<15>
; Function compile flags: /Ogsp
;	COMDAT ??$LoadInt_e@$0P@@ioINILoader@@QAEHAAY0P@$$CBDH@Z
_TEXT	SEGMENT
__k$ = -24						; size = 15
__$ArrayPad$ = -4					; size = 4
_k$ = 8							; size = 4
_i$ = 12						; size = 4
??$LoadInt_e@$0P@@ioINILoader@@QAEHAAY0P@$$CBDH@Z PROC	; ioINILoader::LoadInt_e<15>, COMDAT
; _this$ = ecx

; 118  : 	{

  00000	55		 push	 ebp
  00001	8b ec		 mov	 ebp, esp
  00003	83 ec 18	 sub	 esp, 24			; 00000018H
  00006	a1 00 00 00 00	 mov	 eax, DWORD PTR ___security_cookie
  0000b	33 c5		 xor	 eax, ebp
  0000d	89 45 fc	 mov	 DWORD PTR __$ArrayPad$[ebp], eax
  00010	8b 45 08	 mov	 eax, DWORD PTR _k$[ebp]

; 119  : 		_ENCSTR(k, _k);

  00013	8a 10		 mov	 dl, BYTE PTR [eax]
  00015	56		 push	 esi
  00016	8b f1		 mov	 esi, ecx
  00018	84 d2		 test	 dl, dl
  0001a	0f 84 75 01 00
	00		 je	 $LN96@LoadInt_e@3
  00020	80 f2 ed	 xor	 dl, -19			; ffffffedH
  00023	88 55 e8	 mov	 BYTE PTR __k$[ebp], dl
  00026	8a 50 01	 mov	 dl, BYTE PTR [eax+1]
  00029	84 d2		 test	 dl, dl
  0002b	0f 84 5e 01 00
	00		 je	 $LN95@LoadInt_e@3
  00031	b1 ec		 mov	 cl, -20			; ffffffecH
  00033	32 d1		 xor	 dl, cl
  00035	88 55 e9	 mov	 BYTE PTR __k$[ebp+1], dl
  00038	8a 50 02	 mov	 dl, BYTE PTR [eax+2]
  0003b	84 d2		 test	 dl, dl
  0003d	0f 84 46 01 00
	00		 je	 $LN94@LoadInt_e@3
  00043	80 f2 eb	 xor	 dl, -21			; ffffffebH
  00046	88 55 ea	 mov	 BYTE PTR __k$[ebp+2], dl
  00049	8a 50 03	 mov	 dl, BYTE PTR [eax+3]
  0004c	84 d2		 test	 dl, dl
  0004e	0f 84 2f 01 00
	00		 je	 $LN93@LoadInt_e@3
  00054	80 f2 ea	 xor	 dl, -22			; ffffffeaH
  00057	88 55 eb	 mov	 BYTE PTR __k$[ebp+3], dl
  0005a	8a 50 04	 mov	 dl, BYTE PTR [eax+4]
  0005d	84 d2		 test	 dl, dl
  0005f	0f 84 18 01 00
	00		 je	 $LN92@LoadInt_e@3
  00065	80 f2 ed	 xor	 dl, -19			; ffffffedH
  00068	88 55 ec	 mov	 BYTE PTR __k$[ebp+4], dl
  0006b	8a 50 05	 mov	 dl, BYTE PTR [eax+5]
  0006e	84 d2		 test	 dl, dl
  00070	0f 84 02 01 00
	00		 je	 $LN91@LoadInt_e@3
  00076	32 d1		 xor	 dl, cl
  00078	88 55 ed	 mov	 BYTE PTR __k$[ebp+5], dl
  0007b	8a 50 06	 mov	 dl, BYTE PTR [eax+6]
  0007e	84 d2		 test	 dl, dl
  00080	0f 84 ec 00 00
	00		 je	 $LN90@LoadInt_e@3
  00086	80 f2 eb	 xor	 dl, -21			; ffffffebH
  00089	88 55 ee	 mov	 BYTE PTR __k$[ebp+6], dl
  0008c	8a 50 07	 mov	 dl, BYTE PTR [eax+7]
  0008f	84 d2		 test	 dl, dl
  00091	0f 84 d5 00 00
	00		 je	 $LN89@LoadInt_e@3
  00097	80 f2 ea	 xor	 dl, -22			; ffffffeaH
  0009a	88 55 ef	 mov	 BYTE PTR __k$[ebp+7], dl
  0009d	8a 50 08	 mov	 dl, BYTE PTR [eax+8]
  000a0	84 d2		 test	 dl, dl
  000a2	0f 84 be 00 00
	00		 je	 $LN88@LoadInt_e@3
  000a8	80 f2 ed	 xor	 dl, -19			; ffffffedH
  000ab	88 55 f0	 mov	 BYTE PTR __k$[ebp+8], dl
  000ae	8a 50 09	 mov	 dl, BYTE PTR [eax+9]
  000b1	84 d2		 test	 dl, dl
  000b3	0f 84 a8 00 00
	00		 je	 $LN87@LoadInt_e@3
  000b9	32 d1		 xor	 dl, cl
  000bb	88 55 f1	 mov	 BYTE PTR __k$[ebp+9], dl
  000be	8a 50 0a	 mov	 dl, BYTE PTR [eax+10]
  000c1	84 d2		 test	 dl, dl
  000c3	0f 84 92 00 00
	00		 je	 $LN86@LoadInt_e@3
  000c9	80 f2 eb	 xor	 dl, -21			; ffffffebH
  000cc	88 55 f2	 mov	 BYTE PTR __k$[ebp+10], dl
  000cf	8a 50 0b	 mov	 dl, BYTE PTR [eax+11]
  000d2	84 d2		 test	 dl, dl
  000d4	74 7f		 je	 SHORT $LN85@LoadInt_e@3
  000d6	80 f2 ea	 xor	 dl, -22			; ffffffeaH
  000d9	88 55 f3	 mov	 BYTE PTR __k$[ebp+11], dl
  000dc	8a 50 0c	 mov	 dl, BYTE PTR [eax+12]
  000df	84 d2		 test	 dl, dl
  000e1	74 6c		 je	 SHORT $LN84@LoadInt_e@3
  000e3	80 f2 ed	 xor	 dl, -19			; ffffffedH
  000e6	88 55 f4	 mov	 BYTE PTR __k$[ebp+12], dl
  000e9	8a 50 0d	 mov	 dl, BYTE PTR [eax+13]
  000ec	84 d2		 test	 dl, dl
  000ee	74 5a		 je	 SHORT $LN83@LoadInt_e@3
  000f0	32 d1		 xor	 dl, cl
  000f2	80 78 0e 00	 cmp	 BYTE PTR [eax+14], 0
  000f6	88 55 f5	 mov	 BYTE PTR __k$[ebp+13], dl
  000f9	0f 84 9a 00 00
	00		 je	 $LN1@LoadInt_e@3
  000ff	8a 50 0f	 mov	 dl, BYTE PTR [eax+15]
  00102	84 d2		 test	 dl, dl
  00104	74 3e		 je	 SHORT $LN81@LoadInt_e@3
  00106	80 f2 ea	 xor	 dl, -22			; ffffffeaH
  00109	88 55 f7	 mov	 BYTE PTR __k$[ebp+15], dl
  0010c	8a 50 10	 mov	 dl, BYTE PTR [eax+16]
  0010f	84 d2		 test	 dl, dl
  00111	74 2b		 je	 SHORT $LN80@LoadInt_e@3
  00113	80 f2 ed	 xor	 dl, -19			; ffffffedH
  00116	88 55 f8	 mov	 BYTE PTR __k$[ebp+16], dl
  00119	8a 50 11	 mov	 dl, BYTE PTR [eax+17]
  0011c	84 d2		 test	 dl, dl
  0011e	74 19		 je	 SHORT $LN79@LoadInt_e@3
  00120	8a 40 12	 mov	 al, BYTE PTR [eax+18]
  00123	32 d1		 xor	 dl, cl
  00125	88 55 f9	 mov	 BYTE PTR __k$[ebp+17], dl
  00128	84 c0		 test	 al, al
  0012a	74 07		 je	 SHORT $LN78@LoadInt_e@3
  0012c	34 eb		 xor	 al, -21			; ffffffebH
  0012e	88 45 fa	 mov	 BYTE PTR __k$[ebp+18], al
  00131	eb 66		 jmp	 SHORT $LN1@LoadInt_e@3
$LN78@LoadInt_e@3:
  00133	c6 45 fa eb	 mov	 BYTE PTR __k$[ebp+18], -21 ; ffffffebH
  00137	eb 60		 jmp	 SHORT $LN1@LoadInt_e@3
$LN79@LoadInt_e@3:
  00139	88 4d f9	 mov	 BYTE PTR __k$[ebp+17], cl
  0013c	eb 5b		 jmp	 SHORT $LN1@LoadInt_e@3
$LN80@LoadInt_e@3:
  0013e	c6 45 f8 ed	 mov	 BYTE PTR __k$[ebp+16], -19 ; ffffffedH
  00142	eb 55		 jmp	 SHORT $LN1@LoadInt_e@3
$LN81@LoadInt_e@3:
  00144	c6 45 f7 ea	 mov	 BYTE PTR __k$[ebp+15], -22 ; ffffffeaH
  00148	eb 4f		 jmp	 SHORT $LN1@LoadInt_e@3
$LN83@LoadInt_e@3:
  0014a	88 4d f5	 mov	 BYTE PTR __k$[ebp+13], cl
  0014d	eb 4a		 jmp	 SHORT $LN1@LoadInt_e@3
$LN84@LoadInt_e@3:
  0014f	c6 45 f4 ed	 mov	 BYTE PTR __k$[ebp+12], -19 ; ffffffedH
  00153	eb 44		 jmp	 SHORT $LN1@LoadInt_e@3
$LN85@LoadInt_e@3:
  00155	c6 45 f3 ea	 mov	 BYTE PTR __k$[ebp+11], -22 ; ffffffeaH
  00159	eb 3e		 jmp	 SHORT $LN1@LoadInt_e@3
$LN86@LoadInt_e@3:
  0015b	c6 45 f2 eb	 mov	 BYTE PTR __k$[ebp+10], -21 ; ffffffebH
  0015f	eb 38		 jmp	 SHORT $LN1@LoadInt_e@3
$LN87@LoadInt_e@3:
  00161	88 4d f1	 mov	 BYTE PTR __k$[ebp+9], cl
  00164	eb 33		 jmp	 SHORT $LN1@LoadInt_e@3
$LN88@LoadInt_e@3:
  00166	c6 45 f0 ed	 mov	 BYTE PTR __k$[ebp+8], -19 ; ffffffedH
  0016a	eb 2d		 jmp	 SHORT $LN1@LoadInt_e@3
$LN89@LoadInt_e@3:
  0016c	c6 45 ef ea	 mov	 BYTE PTR __k$[ebp+7], -22 ; ffffffeaH
  00170	eb 27		 jmp	 SHORT $LN1@LoadInt_e@3
$LN90@LoadInt_e@3:
  00172	c6 45 ee eb	 mov	 BYTE PTR __k$[ebp+6], -21 ; ffffffebH
  00176	eb 21		 jmp	 SHORT $LN1@LoadInt_e@3
$LN91@LoadInt_e@3:
  00178	88 4d ed	 mov	 BYTE PTR __k$[ebp+5], cl
  0017b	eb 1c		 jmp	 SHORT $LN1@LoadInt_e@3
$LN92@LoadInt_e@3:
  0017d	c6 45 ec ed	 mov	 BYTE PTR __k$[ebp+4], -19 ; ffffffedH
  00181	eb 16		 jmp	 SHORT $LN1@LoadInt_e@3
$LN93@LoadInt_e@3:
  00183	c6 45 eb ea	 mov	 BYTE PTR __k$[ebp+3], -22 ; ffffffeaH
  00187	eb 10		 jmp	 SHORT $LN1@LoadInt_e@3
$LN94@LoadInt_e@3:
  00189	c6 45 ea eb	 mov	 BYTE PTR __k$[ebp+2], -21 ; ffffffebH
  0018d	eb 0a		 jmp	 SHORT $LN1@LoadInt_e@3
$LN95@LoadInt_e@3:
  0018f	c6 45 e9 ec	 mov	 BYTE PTR __k$[ebp+1], -20 ; ffffffecH
  00193	eb 04		 jmp	 SHORT $LN1@LoadInt_e@3
$LN96@LoadInt_e@3:
  00195	c6 45 e8 ed	 mov	 BYTE PTR __k$[ebp], -19	; ffffffedH
$LN1@LoadInt_e@3:
  00199	6a 03		 push	 3
  0019b	8d 45 e8	 lea	 eax, DWORD PTR __k$[ebp]
  0019e	c6 45 f6 00	 mov	 BYTE PTR __k$[ebp+14], 0
  001a2	5a		 pop	 edx
$LL104@LoadInt_e@3:
  001a3	81 30 ed ec eb
	ea		 xor	 DWORD PTR [eax], -353637139 ; eaebecedH
  001a9	83 c0 04	 add	 eax, 4
  001ac	4a		 dec	 edx
  001ad	75 f4		 jne	 SHORT $LL104@LoadInt_e@3
  001af	6a 0c		 push	 12			; 0000000cH
  001b1	58		 pop	 eax
$LL101@LoadInt_e@3:
  001b2	8b c8		 mov	 ecx, eax
  001b4	81 e1 03 00 00
	80		 and	 ecx, -2147483645	; 80000003H
  001ba	79 05		 jns	 SHORT $LN111@LoadInt_e@3
  001bc	49		 dec	 ecx
  001bd	83 c9 fc	 or	 ecx, -4			; fffffffcH
  001c0	41		 inc	 ecx
$LN111@LoadInt_e@3:
  001c1	b2 ed		 mov	 dl, -19			; ffffffedH
  001c3	2a d1		 sub	 dl, cl
  001c5	30 54 05 e8	 xor	 BYTE PTR __k$[ebp+eax], dl
  001c9	40		 inc	 eax
  001ca	83 f8 0e	 cmp	 eax, 14			; 0000000eH
  001cd	7c e3		 jl	 SHORT $LL101@LoadInt_e@3

; 120  : 		return LoadInt(_k, i);

  001cf	ff 75 0c	 push	 DWORD PTR _i$[ebp]
  001d2	8d 45 e8	 lea	 eax, DWORD PTR __k$[ebp]
  001d5	50		 push	 eax
  001d6	8b ce		 mov	 ecx, esi
  001d8	ff 15 00 00 00
	00		 call	 DWORD PTR __imp_?LoadInt@ioINILoader@@QAEHPBDH@Z

; 121  : 	}

  001de	8b 4d fc	 mov	 ecx, DWORD PTR __$ArrayPad$[ebp]
  001e1	33 cd		 xor	 ecx, ebp
  001e3	5e		 pop	 esi
  001e4	e8 00 00 00 00	 call	 @__security_check_cookie@4
  001e9	c9		 leave
  001ea	c2 08 00	 ret	 8
??$LoadInt_e@$0P@@ioINILoader@@QAEHAAY0P@$$CBDH@Z ENDP	; ioINILoader::LoadInt_e<15>
_TEXT	ENDS
PUBLIC	__$ArrayPad$
PUBLIC	??$LoadAttackAttribute_e@$0BB@@@YAXAAY0BB@$$CBDAAUAttackAttribute@@AAVioINILoader@@@Z ; LoadAttackAttribute_e<17>
; Function compile flags: /Ogsp
; File d:\lost saga for developer\youtube\tutorial\source\src\lsclient\ioattackattribute.h
;	COMDAT ??$LoadAttackAttribute_e@$0BB@@@YAXAAY0BB@$$CBDAAUAttackAttribute@@AAVioINILoader@@@Z
_TEXT	SEGMENT
_szEncAttack$ = -28					; size = 17
__$ArrayPad$ = -4					; size = 4
_szAttack$ = 8						; size = 4
_rkAttribute$ = 12					; size = 4
_rkLoader$ = 16						; size = 4
??$LoadAttackAttribute_e@$0BB@@@YAXAAY0BB@$$CBDAAUAttackAttribute@@AAVioINILoader@@@Z PROC ; LoadAttackAttribute_e<17>, COMDAT

; 131  : {

  00000	55		 push	 ebp
  00001	8b ec		 mov	 ebp, esp
  00003	83 ec 1c	 sub	 esp, 28			; 0000001cH
  00006	a1 00 00 00 00	 mov	 eax, DWORD PTR ___security_cookie
  0000b	33 c5		 xor	 eax, ebp
  0000d	89 45 fc	 mov	 DWORD PTR __$ArrayPad$[ebp], eax
  00010	8b 45 08	 mov	 eax, DWORD PTR _szAttack$[ebp]

; 132  : 	_ENCSTR(szAttack, szEncAttack);

  00013	8a 08		 mov	 cl, BYTE PTR [eax]
  00015	56		 push	 esi
  00016	8b 75 0c	 mov	 esi, DWORD PTR _rkAttribute$[ebp]
  00019	57		 push	 edi
  0001a	8b 7d 10	 mov	 edi, DWORD PTR _rkLoader$[ebp]
  0001d	84 c9		 test	 cl, cl
  0001f	0f 84 a3 01 00
	00		 je	 $LN96@LoadAttack@3
  00025	80 f1 ed	 xor	 cl, -19			; ffffffedH
  00028	88 4d e4	 mov	 BYTE PTR _szEncAttack$[ebp], cl
  0002b	8a 48 01	 mov	 cl, BYTE PTR [eax+1]
  0002e	84 c9		 test	 cl, cl
  00030	0f 84 8c 01 00
	00		 je	 $LN95@LoadAttack@3
  00036	80 f1 ec	 xor	 cl, -20			; ffffffecH
  00039	88 4d e5	 mov	 BYTE PTR _szEncAttack$[ebp+1], cl
  0003c	8a 48 02	 mov	 cl, BYTE PTR [eax+2]
  0003f	84 c9		 test	 cl, cl
  00041	0f 84 75 01 00
	00		 je	 $LN94@LoadAttack@3
  00047	b2 eb		 mov	 dl, -21			; ffffffebH
  00049	32 ca		 xor	 cl, dl
  0004b	88 4d e6	 mov	 BYTE PTR _szEncAttack$[ebp+2], cl
  0004e	8a 48 03	 mov	 cl, BYTE PTR [eax+3]
  00051	84 c9		 test	 cl, cl
  00053	0f 84 5d 01 00
	00		 je	 $LN93@LoadAttack@3
  00059	80 f1 ea	 xor	 cl, -22			; ffffffeaH
  0005c	88 4d e7	 mov	 BYTE PTR _szEncAttack$[ebp+3], cl
  0005f	8a 48 04	 mov	 cl, BYTE PTR [eax+4]
  00062	84 c9		 test	 cl, cl
  00064	0f 84 46 01 00
	00		 je	 $LN92@LoadAttack@3
  0006a	80 f1 ed	 xor	 cl, -19			; ffffffedH
  0006d	88 4d e8	 mov	 BYTE PTR _szEncAttack$[ebp+4], cl
  00070	8a 48 05	 mov	 cl, BYTE PTR [eax+5]
  00073	84 c9		 test	 cl, cl
  00075	0f 84 2f 01 00
	00		 je	 $LN91@LoadAttack@3
  0007b	80 f1 ec	 xor	 cl, -20			; ffffffecH
  0007e	88 4d e9	 mov	 BYTE PTR _szEncAttack$[ebp+5], cl
  00081	8a 48 06	 mov	 cl, BYTE PTR [eax+6]
  00084	84 c9		 test	 cl, cl
  00086	0f 84 19 01 00
	00		 je	 $LN90@LoadAttack@3
  0008c	32 ca		 xor	 cl, dl
  0008e	88 4d ea	 mov	 BYTE PTR _szEncAttack$[ebp+6], cl
  00091	8a 48 07	 mov	 cl, BYTE PTR [eax+7]
  00094	84 c9		 test	 cl, cl
  00096	0f 84 03 01 00
	00		 je	 $LN89@LoadAttack@3
  0009c	80 f1 ea	 xor	 cl, -22			; ffffffeaH
  0009f	88 4d eb	 mov	 BYTE PTR _szEncAttack$[ebp+7], cl
  000a2	8a 48 08	 mov	 cl, BYTE PTR [eax+8]
  000a5	84 c9		 test	 cl, cl
  000a7	0f 84 ec 00 00
	00		 je	 $LN88@LoadAttack@3
  000ad	80 f1 ed	 xor	 cl, -19			; ffffffedH
  000b0	88 4d ec	 mov	 BYTE PTR _szEncAttack$[ebp+8], cl
  000b3	8a 48 09	 mov	 cl, BYTE PTR [eax+9]
  000b6	84 c9		 test	 cl, cl
  000b8	0f 84 d5 00 00
	00		 je	 $LN87@LoadAttack@3
  000be	80 f1 ec	 xor	 cl, -20			; ffffffecH
  000c1	88 4d ed	 mov	 BYTE PTR _szEncAttack$[ebp+9], cl
  000c4	8a 48 0a	 mov	 cl, BYTE PTR [eax+10]
  000c7	84 c9		 test	 cl, cl
  000c9	0f 84 bf 00 00
	00		 je	 $LN86@LoadAttack@3
  000cf	32 ca		 xor	 cl, dl
  000d1	88 4d ee	 mov	 BYTE PTR _szEncAttack$[ebp+10], cl
  000d4	8a 48 0b	 mov	 cl, BYTE PTR [eax+11]
  000d7	84 c9		 test	 cl, cl
  000d9	0f 84 a9 00 00
	00		 je	 $LN85@LoadAttack@3
  000df	80 f1 ea	 xor	 cl, -22			; ffffffeaH
  000e2	88 4d ef	 mov	 BYTE PTR _szEncAttack$[ebp+11], cl
  000e5	8a 48 0c	 mov	 cl, BYTE PTR [eax+12]
  000e8	84 c9		 test	 cl, cl
  000ea	0f 84 92 00 00
	00		 je	 $LN84@LoadAttack@3
  000f0	80 f1 ed	 xor	 cl, -19			; ffffffedH
  000f3	88 4d f0	 mov	 BYTE PTR _szEncAttack$[ebp+12], cl
  000f6	8a 48 0d	 mov	 cl, BYTE PTR [eax+13]
  000f9	84 c9		 test	 cl, cl
  000fb	74 7f		 je	 SHORT $LN83@LoadAttack@3
  000fd	80 f1 ec	 xor	 cl, -20			; ffffffecH
  00100	88 4d f1	 mov	 BYTE PTR _szEncAttack$[ebp+13], cl
  00103	8a 48 0e	 mov	 cl, BYTE PTR [eax+14]
  00106	84 c9		 test	 cl, cl
  00108	74 6d		 je	 SHORT $LN82@LoadAttack@3
  0010a	32 ca		 xor	 cl, dl
  0010c	88 4d f2	 mov	 BYTE PTR _szEncAttack$[ebp+14], cl
  0010f	8a 48 0f	 mov	 cl, BYTE PTR [eax+15]
  00112	84 c9		 test	 cl, cl
  00114	74 5b		 je	 SHORT $LN81@LoadAttack@3
  00116	80 f1 ea	 xor	 cl, -22			; ffffffeaH
  00119	80 78 10 00	 cmp	 BYTE PTR [eax+16], 0
  0011d	88 4d f3	 mov	 BYTE PTR _szEncAttack$[ebp+15], cl
  00120	0f 84 a6 00 00
	00		 je	 $LN1@LoadAttack@3
  00126	8a 48 11	 mov	 cl, BYTE PTR [eax+17]
  00129	84 c9		 test	 cl, cl
  0012b	74 3e		 je	 SHORT $LN79@LoadAttack@3
  0012d	80 f1 ec	 xor	 cl, -20			; ffffffecH
  00130	88 4d f5	 mov	 BYTE PTR _szEncAttack$[ebp+17], cl
  00133	8a 48 12	 mov	 cl, BYTE PTR [eax+18]
  00136	84 c9		 test	 cl, cl
  00138	74 2c		 je	 SHORT $LN78@LoadAttack@3
  0013a	32 ca		 xor	 cl, dl
  0013c	88 4d f6	 mov	 BYTE PTR _szEncAttack$[ebp+18], cl
  0013f	8a 48 13	 mov	 cl, BYTE PTR [eax+19]
  00142	84 c9		 test	 cl, cl
  00144	74 1a		 je	 SHORT $LN77@LoadAttack@3
  00146	8a 40 14	 mov	 al, BYTE PTR [eax+20]
  00149	80 f1 ea	 xor	 cl, -22			; ffffffeaH
  0014c	88 4d f7	 mov	 BYTE PTR _szEncAttack$[ebp+19], cl
  0014f	84 c0		 test	 al, al
  00151	74 07		 je	 SHORT $LN76@LoadAttack@3
  00153	34 ed		 xor	 al, -19			; ffffffedH
  00155	88 45 f8	 mov	 BYTE PTR _szEncAttack$[ebp+20], al
  00158	eb 72		 jmp	 SHORT $LN1@LoadAttack@3
$LN76@LoadAttack@3:
  0015a	c6 45 f8 ed	 mov	 BYTE PTR _szEncAttack$[ebp+20], -19 ; ffffffedH
  0015e	eb 6c		 jmp	 SHORT $LN1@LoadAttack@3
$LN77@LoadAttack@3:
  00160	c6 45 f7 ea	 mov	 BYTE PTR _szEncAttack$[ebp+19], -22 ; ffffffeaH
  00164	eb 66		 jmp	 SHORT $LN1@LoadAttack@3
$LN78@LoadAttack@3:
  00166	88 55 f6	 mov	 BYTE PTR _szEncAttack$[ebp+18], dl
  00169	eb 61		 jmp	 SHORT $LN1@LoadAttack@3
$LN79@LoadAttack@3:
  0016b	c6 45 f5 ec	 mov	 BYTE PTR _szEncAttack$[ebp+17], -20 ; ffffffecH
  0016f	eb 5b		 jmp	 SHORT $LN1@LoadAttack@3
$LN81@LoadAttack@3:
  00171	c6 45 f3 ea	 mov	 BYTE PTR _szEncAttack$[ebp+15], -22 ; ffffffeaH
  00175	eb 55		 jmp	 SHORT $LN1@LoadAttack@3
$LN82@LoadAttack@3:
  00177	88 55 f2	 mov	 BYTE PTR _szEncAttack$[ebp+14], dl
  0017a	eb 50		 jmp	 SHORT $LN1@LoadAttack@3
$LN83@LoadAttack@3:
  0017c	c6 45 f1 ec	 mov	 BYTE PTR _szEncAttack$[ebp+13], -20 ; ffffffecH
  00180	eb 4a		 jmp	 SHORT $LN1@LoadAttack@3
$LN84@LoadAttack@3:
  00182	c6 45 f0 ed	 mov	 BYTE PTR _szEncAttack$[ebp+12], -19 ; ffffffedH
  00186	eb 44		 jmp	 SHORT $LN1@LoadAttack@3
$LN85@LoadAttack@3:
  00188	c6 45 ef ea	 mov	 BYTE PTR _szEncAttack$[ebp+11], -22 ; ffffffeaH
  0018c	eb 3e		 jmp	 SHORT $LN1@LoadAttack@3
$LN86@LoadAttack@3:
  0018e	88 55 ee	 mov	 BYTE PTR _szEncAttack$[ebp+10], dl
  00191	eb 39		 jmp	 SHORT $LN1@LoadAttack@3
$LN87@LoadAttack@3:
  00193	c6 45 ed ec	 mov	 BYTE PTR _szEncAttack$[ebp+9], -20 ; ffffffecH
  00197	eb 33		 jmp	 SHORT $LN1@LoadAttack@3
$LN88@LoadAttack@3:
  00199	c6 45 ec ed	 mov	 BYTE PTR _szEncAttack$[ebp+8], -19 ; ffffffedH
  0019d	eb 2d		 jmp	 SHORT $LN1@LoadAttack@3
$LN89@LoadAttack@3:
  0019f	c6 45 eb ea	 mov	 BYTE PTR _szEncAttack$[ebp+7], -22 ; ffffffeaH
  001a3	eb 27		 jmp	 SHORT $LN1@LoadAttack@3
$LN90@LoadAttack@3:
  001a5	88 55 ea	 mov	 BYTE PTR _szEncAttack$[ebp+6], dl
  001a8	eb 22		 jmp	 SHORT $LN1@LoadAttack@3
$LN91@LoadAttack@3:
  001aa	c6 45 e9 ec	 mov	 BYTE PTR _szEncAttack$[ebp+5], -20 ; ffffffecH
  001ae	eb 1c		 jmp	 SHORT $LN1@LoadAttack@3
$LN92@LoadAttack@3:
  001b0	c6 45 e8 ed	 mov	 BYTE PTR _szEncAttack$[ebp+4], -19 ; ffffffedH
  001b4	eb 16		 jmp	 SHORT $LN1@LoadAttack@3
$LN93@LoadAttack@3:
  001b6	c6 45 e7 ea	 mov	 BYTE PTR _szEncAttack$[ebp+3], -22 ; ffffffeaH
  001ba	eb 10		 jmp	 SHORT $LN1@LoadAttack@3
$LN94@LoadAttack@3:
  001bc	c6 45 e6 eb	 mov	 BYTE PTR _szEncAttack$[ebp+2], -21 ; ffffffebH
  001c0	eb 0a		 jmp	 SHORT $LN1@LoadAttack@3
$LN95@LoadAttack@3:
  001c2	c6 45 e5 ec	 mov	 BYTE PTR _szEncAttack$[ebp+1], -20 ; ffffffecH
  001c6	eb 04		 jmp	 SHORT $LN1@LoadAttack@3
$LN96@LoadAttack@3:
  001c8	c6 45 e4 ed	 mov	 BYTE PTR _szEncAttack$[ebp], -19 ; ffffffedH
$LN1@LoadAttack@3:
  001cc	6a 04		 push	 4
  001ce	8d 45 e4	 lea	 eax, DWORD PTR _szEncAttack$[ebp]
  001d1	c6 45 f4 00	 mov	 BYTE PTR _szEncAttack$[ebp+16], 0
  001d5	59		 pop	 ecx
$LL104@LoadAttack@3:
  001d6	81 30 ed ec eb
	ea		 xor	 DWORD PTR [eax], -353637139 ; eaebecedH
  001dc	83 c0 04	 add	 eax, 4
  001df	49		 dec	 ecx
  001e0	75 f4		 jne	 SHORT $LL104@LoadAttack@3

; 133  : 	LoadAttackAttribute(szEncAttack, rkAttribute, rkLoader);

  001e2	57		 push	 edi
  001e3	8d 45 e4	 lea	 eax, DWORD PTR _szEncAttack$[ebp]
  001e6	56		 push	 esi
  001e7	50		 push	 eax
  001e8	e8 00 00 00 00	 call	 ?LoadAttackAttribute@@YAXPBDAAUAttackAttribute@@AAVioINILoader@@@Z ; LoadAttackAttribute

; 134  : }

  001ed	8b 4d fc	 mov	 ecx, DWORD PTR __$ArrayPad$[ebp]
  001f0	83 c4 0c	 add	 esp, 12			; 0000000cH
  001f3	5f		 pop	 edi
  001f4	33 cd		 xor	 ecx, ebp
  001f6	5e		 pop	 esi
  001f7	e8 00 00 00 00	 call	 @__security_check_cookie@4
  001fc	c9		 leave
  001fd	c3		 ret	 0
??$LoadAttackAttribute_e@$0BB@@@YAXAAY0BB@$$CBDAAUAttackAttribute@@AAVioINILoader@@@Z ENDP ; LoadAttackAttribute_e<17>
_TEXT	ENDS
PUBLIC	_this$GSCopy$
PUBLIC	__$ArrayPad$
PUBLIC	??$LoadString_e@$0BD@@ioINILoader@@QAEXAAY0BD@$$CBDAAY00$$CBDPADH@Z ; ioINILoader::LoadString_e<19>
; Function compile flags: /Ogsp
; File d:\lost saga for developer\youtube\tutorial\source\src\io3dengine\ioiniloader.h
;	COMDAT ??$LoadString_e@$0BD@@ioINILoader@@QAEXAAY0BD@$$CBDAAY00$$CBDPADH@Z
_TEXT	SEGMENT
_this$GSCopy$ = -32					; size = 4
__k$ = -28						; size = 19
__$ArrayPad$ = -4					; size = 4
_k$ = 8							; size = 4
_d$ = 12						; size = 4
_b$ = 16						; size = 4
_i$ = 20						; size = 4
??$LoadString_e@$0BD@@ioINILoader@@QAEXAAY0BD@$$CBDAAY00$$CBDPADH@Z PROC ; ioINILoader::LoadString_e<19>, COMDAT
; _this$ = ecx

; 161  : 	{

  00000	55		 push	 ebp
  00001	8b ec		 mov	 ebp, esp
  00003	83 ec 20	 sub	 esp, 32			; 00000020H
  00006	a1 00 00 00 00	 mov	 eax, DWORD PTR ___security_cookie
  0000b	33 c5		 xor	 eax, ebp
  0000d	89 45 fc	 mov	 DWORD PTR __$ArrayPad$[ebp], eax
  00010	8b 45 08	 mov	 eax, DWORD PTR _k$[ebp]

; 162  : 		_ENCSTR(k, _k);

  00013	8a 10		 mov	 dl, BYTE PTR [eax]
  00015	56		 push	 esi
  00016	8b 75 0c	 mov	 esi, DWORD PTR _d$[ebp]
  00019	57		 push	 edi
  0001a	8b 7d 10	 mov	 edi, DWORD PTR _b$[ebp]
  0001d	89 4d e0	 mov	 DWORD PTR _this$GSCopy$[ebp], ecx
  00020	84 d2		 test	 dl, dl
  00022	0f 84 cf 01 00
	00		 je	 $LN96@LoadString@3
  00028	80 f2 ed	 xor	 dl, -19			; ffffffedH
  0002b	88 55 e4	 mov	 BYTE PTR __k$[ebp], dl
  0002e	8a 50 01	 mov	 dl, BYTE PTR [eax+1]
  00031	84 d2		 test	 dl, dl
  00033	0f 84 b8 01 00
	00		 je	 $LN95@LoadString@3
  00039	b1 ec		 mov	 cl, -20			; ffffffecH
  0003b	32 d1		 xor	 dl, cl
  0003d	88 55 e5	 mov	 BYTE PTR __k$[ebp+1], dl
  00040	8a 50 02	 mov	 dl, BYTE PTR [eax+2]
  00043	84 d2		 test	 dl, dl
  00045	0f 84 a0 01 00
	00		 je	 $LN94@LoadString@3
  0004b	80 f2 eb	 xor	 dl, -21			; ffffffebH
  0004e	88 55 e6	 mov	 BYTE PTR __k$[ebp+2], dl
  00051	8a 50 03	 mov	 dl, BYTE PTR [eax+3]
  00054	84 d2		 test	 dl, dl
  00056	0f 84 89 01 00
	00		 je	 $LN93@LoadString@3
  0005c	80 f2 ea	 xor	 dl, -22			; ffffffeaH
  0005f	88 55 e7	 mov	 BYTE PTR __k$[ebp+3], dl
  00062	8a 50 04	 mov	 dl, BYTE PTR [eax+4]
  00065	84 d2		 test	 dl, dl
  00067	0f 84 72 01 00
	00		 je	 $LN92@LoadString@3
  0006d	80 f2 ed	 xor	 dl, -19			; ffffffedH
  00070	88 55 e8	 mov	 BYTE PTR __k$[ebp+4], dl
  00073	8a 50 05	 mov	 dl, BYTE PTR [eax+5]
  00076	84 d2		 test	 dl, dl
  00078	0f 84 5c 01 00
	00		 je	 $LN91@LoadString@3
  0007e	32 d1		 xor	 dl, cl
  00080	88 55 e9	 mov	 BYTE PTR __k$[ebp+5], dl
  00083	8a 50 06	 mov	 dl, BYTE PTR [eax+6]
  00086	84 d2		 test	 dl, dl
  00088	0f 84 46 01 00
	00		 je	 $LN90@LoadString@3
  0008e	80 f2 eb	 xor	 dl, -21			; ffffffebH
  00091	88 55 ea	 mov	 BYTE PTR __k$[ebp+6], dl
  00094	8a 50 07	 mov	 dl, BYTE PTR [eax+7]
  00097	84 d2		 test	 dl, dl
  00099	0f 84 2f 01 00
	00		 je	 $LN89@LoadString@3
  0009f	80 f2 ea	 xor	 dl, -22			; ffffffeaH
  000a2	88 55 eb	 mov	 BYTE PTR __k$[ebp+7], dl
  000a5	8a 50 08	 mov	 dl, BYTE PTR [eax+8]
  000a8	84 d2		 test	 dl, dl
  000aa	0f 84 18 01 00
	00		 je	 $LN88@LoadString@3
  000b0	80 f2 ed	 xor	 dl, -19			; ffffffedH
  000b3	88 55 ec	 mov	 BYTE PTR __k$[ebp+8], dl
  000b6	8a 50 09	 mov	 dl, BYTE PTR [eax+9]
  000b9	84 d2		 test	 dl, dl
  000bb	0f 84 02 01 00
	00		 je	 $LN87@LoadString@3
  000c1	32 d1		 xor	 dl, cl
  000c3	88 55 ed	 mov	 BYTE PTR __k$[ebp+9], dl
  000c6	8a 50 0a	 mov	 dl, BYTE PTR [eax+10]
  000c9	84 d2		 test	 dl, dl
  000cb	0f 84 ec 00 00
	00		 je	 $LN86@LoadString@3
  000d1	80 f2 eb	 xor	 dl, -21			; ffffffebH
  000d4	88 55 ee	 mov	 BYTE PTR __k$[ebp+10], dl
  000d7	8a 50 0b	 mov	 dl, BYTE PTR [eax+11]
  000da	84 d2		 test	 dl, dl
  000dc	0f 84 d5 00 00
	00		 je	 $LN85@LoadString@3
  000e2	80 f2 ea	 xor	 dl, -22			; ffffffeaH
  000e5	88 55 ef	 mov	 BYTE PTR __k$[ebp+11], dl
  000e8	8a 50 0c	 mov	 dl, BYTE PTR [eax+12]
  000eb	84 d2		 test	 dl, dl
  000ed	0f 84 be 00 00
	00		 je	 $LN84@LoadString@3
  000f3	80 f2 ed	 xor	 dl, -19			; ffffffedH
  000f6	88 55 f0	 mov	 BYTE PTR __k$[ebp+12], dl
  000f9	8a 50 0d	 mov	 dl, BYTE PTR [eax+13]
  000fc	84 d2		 test	 dl, dl
  000fe	0f 84 a8 00 00
	00		 je	 $LN83@LoadString@3
  00104	32 d1		 xor	 dl, cl
  00106	88 55 f1	 mov	 BYTE PTR __k$[ebp+13], dl
  00109	8a 50 0e	 mov	 dl, BYTE PTR [eax+14]
  0010c	84 d2		 test	 dl, dl
  0010e	0f 84 92 00 00
	00		 je	 $LN82@LoadString@3
  00114	80 f2 eb	 xor	 dl, -21			; ffffffebH
  00117	88 55 f2	 mov	 BYTE PTR __k$[ebp+14], dl
  0011a	8a 50 0f	 mov	 dl, BYTE PTR [eax+15]
  0011d	84 d2		 test	 dl, dl
  0011f	74 7f		 je	 SHORT $LN81@LoadString@3
  00121	80 f2 ea	 xor	 dl, -22			; ffffffeaH
  00124	88 55 f3	 mov	 BYTE PTR __k$[ebp+15], dl
  00127	8a 50 10	 mov	 dl, BYTE PTR [eax+16]
  0012a	84 d2		 test	 dl, dl
  0012c	74 6c		 je	 SHORT $LN80@LoadString@3
  0012e	80 f2 ed	 xor	 dl, -19			; ffffffedH
  00131	88 55 f4	 mov	 BYTE PTR __k$[ebp+16], dl
  00134	8a 50 11	 mov	 dl, BYTE PTR [eax+17]
  00137	84 d2		 test	 dl, dl
  00139	74 5a		 je	 SHORT $LN79@LoadString@3
  0013b	32 d1		 xor	 dl, cl
  0013d	80 78 12 00	 cmp	 BYTE PTR [eax+18], 0
  00141	88 55 f5	 mov	 BYTE PTR __k$[ebp+17], dl
  00144	0f 84 b1 00 00
	00		 je	 $LN111@LoadString@3
  0014a	8a 50 13	 mov	 dl, BYTE PTR [eax+19]
  0014d	84 d2		 test	 dl, dl
  0014f	74 3e		 je	 SHORT $LN77@LoadString@3
  00151	80 f2 ea	 xor	 dl, -22			; ffffffeaH
  00154	88 55 f7	 mov	 BYTE PTR __k$[ebp+19], dl
  00157	8a 50 14	 mov	 dl, BYTE PTR [eax+20]
  0015a	84 d2		 test	 dl, dl
  0015c	74 2b		 je	 SHORT $LN76@LoadString@3
  0015e	80 f2 ed	 xor	 dl, -19			; ffffffedH
  00161	88 55 f8	 mov	 BYTE PTR __k$[ebp+20], dl
  00164	8a 50 15	 mov	 dl, BYTE PTR [eax+21]
  00167	84 d2		 test	 dl, dl
  00169	74 19		 je	 SHORT $LN75@LoadString@3
  0016b	8a 40 16	 mov	 al, BYTE PTR [eax+22]
  0016e	32 d1		 xor	 dl, cl
  00170	88 55 f9	 mov	 BYTE PTR __k$[ebp+21], dl
  00173	84 c0		 test	 al, al
  00175	74 07		 je	 SHORT $LN74@LoadString@3
  00177	34 eb		 xor	 al, -21			; ffffffebH
  00179	88 45 fa	 mov	 BYTE PTR __k$[ebp+22], al
  0017c	eb 7d		 jmp	 SHORT $LN111@LoadString@3
$LN74@LoadString@3:
  0017e	c6 45 fa eb	 mov	 BYTE PTR __k$[ebp+22], -21 ; ffffffebH
  00182	eb 77		 jmp	 SHORT $LN111@LoadString@3
$LN75@LoadString@3:
  00184	88 4d f9	 mov	 BYTE PTR __k$[ebp+21], cl
  00187	eb 72		 jmp	 SHORT $LN111@LoadString@3
$LN76@LoadString@3:
  00189	c6 45 f8 ed	 mov	 BYTE PTR __k$[ebp+20], -19 ; ffffffedH
  0018d	eb 6c		 jmp	 SHORT $LN111@LoadString@3
$LN77@LoadString@3:
  0018f	c6 45 f7 ea	 mov	 BYTE PTR __k$[ebp+19], -22 ; ffffffeaH
  00193	eb 66		 jmp	 SHORT $LN111@LoadString@3
$LN79@LoadString@3:
  00195	88 4d f5	 mov	 BYTE PTR __k$[ebp+17], cl
  00198	eb 61		 jmp	 SHORT $LN111@LoadString@3
$LN80@LoadString@3:
  0019a	c6 45 f4 ed	 mov	 BYTE PTR __k$[ebp+16], -19 ; ffffffedH
  0019e	eb 5b		 jmp	 SHORT $LN111@LoadString@3
$LN81@LoadString@3:
  001a0	c6 45 f3 ea	 mov	 BYTE PTR __k$[ebp+15], -22 ; ffffffeaH
  001a4	eb 55		 jmp	 SHORT $LN111@LoadString@3
$LN82@LoadString@3:
  001a6	c6 45 f2 eb	 mov	 BYTE PTR __k$[ebp+14], -21 ; ffffffebH
  001aa	eb 4f		 jmp	 SHORT $LN111@LoadString@3
$LN83@LoadString@3:
  001ac	88 4d f1	 mov	 BYTE PTR __k$[ebp+13], cl
  001af	eb 4a		 jmp	 SHORT $LN111@LoadString@3
$LN84@LoadString@3:
  001b1	c6 45 f0 ed	 mov	 BYTE PTR __k$[ebp+12], -19 ; ffffffedH
  001b5	eb 44		 jmp	 SHORT $LN111@LoadString@3
$LN85@LoadString@3:
  001b7	c6 45 ef ea	 mov	 BYTE PTR __k$[ebp+11], -22 ; ffffffeaH
  001bb	eb 3e		 jmp	 SHORT $LN111@LoadString@3
$LN86@LoadString@3:
  001bd	c6 45 ee eb	 mov	 BYTE PTR __k$[ebp+10], -21 ; ffffffebH
  001c1	eb 38		 jmp	 SHORT $LN111@LoadString@3
$LN87@LoadString@3:
  001c3	88 4d ed	 mov	 BYTE PTR __k$[ebp+9], cl
  001c6	eb 33		 jmp	 SHORT $LN111@LoadString@3
$LN88@LoadString@3:
  001c8	c6 45 ec ed	 mov	 BYTE PTR __k$[ebp+8], -19 ; ffffffedH
  001cc	eb 2d		 jmp	 SHORT $LN111@LoadString@3
$LN89@LoadString@3:
  001ce	c6 45 eb ea	 mov	 BYTE PTR __k$[ebp+7], -22 ; ffffffeaH
  001d2	eb 27		 jmp	 SHORT $LN111@LoadString@3
$LN90@LoadString@3:
  001d4	c6 45 ea eb	 mov	 BYTE PTR __k$[ebp+6], -21 ; ffffffebH
  001d8	eb 21		 jmp	 SHORT $LN111@LoadString@3
$LN91@LoadString@3:
  001da	88 4d e9	 mov	 BYTE PTR __k$[ebp+5], cl
  001dd	eb 1c		 jmp	 SHORT $LN111@LoadString@3
$LN92@LoadString@3:
  001df	c6 45 e8 ed	 mov	 BYTE PTR __k$[ebp+4], -19 ; ffffffedH
  001e3	eb 16		 jmp	 SHORT $LN111@LoadString@3
$LN93@LoadString@3:
  001e5	c6 45 e7 ea	 mov	 BYTE PTR __k$[ebp+3], -22 ; ffffffeaH
  001e9	eb 10		 jmp	 SHORT $LN111@LoadString@3
$LN94@LoadString@3:
  001eb	c6 45 e6 eb	 mov	 BYTE PTR __k$[ebp+2], -21 ; ffffffebH
  001ef	eb 0a		 jmp	 SHORT $LN111@LoadString@3
$LN95@LoadString@3:
  001f1	c6 45 e5 ec	 mov	 BYTE PTR __k$[ebp+1], -20 ; ffffffecH
  001f5	eb 04		 jmp	 SHORT $LN111@LoadString@3
$LN96@LoadString@3:
  001f7	c6 45 e4 ed	 mov	 BYTE PTR __k$[ebp], -19	; ffffffedH
$LN111@LoadString@3:
  001fb	6a 04		 push	 4
  001fd	8d 45 e4	 lea	 eax, DWORD PTR __k$[ebp]
  00200	c6 45 f6 00	 mov	 BYTE PTR __k$[ebp+18], 0
  00204	5a		 pop	 edx
$LL104@LoadString@3:
  00205	81 30 ed ec eb
	ea		 xor	 DWORD PTR [eax], -353637139 ; eaebecedH
  0020b	83 c0 04	 add	 eax, 4
  0020e	4a		 dec	 edx
  0020f	75 f4		 jne	 SHORT $LL104@LoadString@3
  00211	6a 10		 push	 16			; 00000010H
  00213	58		 pop	 eax
$LL101@LoadString@3:
  00214	8b c8		 mov	 ecx, eax
  00216	81 e1 03 00 00
	80		 and	 ecx, -2147483645	; 80000003H
  0021c	79 05		 jns	 SHORT $LN112@LoadString@3
  0021e	49		 dec	 ecx
  0021f	83 c9 fc	 or	 ecx, -4			; fffffffcH
  00222	41		 inc	 ecx
$LN112@LoadString@3:
  00223	b2 ed		 mov	 dl, -19			; ffffffedH
  00225	2a d1		 sub	 dl, cl
  00227	30 54 05 e4	 xor	 BYTE PTR __k$[ebp+eax], dl
  0022b	40		 inc	 eax
  0022c	83 f8 12	 cmp	 eax, 18			; 00000012H
  0022f	7c e3		 jl	 SHORT $LL101@LoadString@3

; 163  : 		LoadString(_k, d, b, i);

  00231	ff 75 14	 push	 DWORD PTR _i$[ebp]
  00234	8b 4d e0	 mov	 ecx, DWORD PTR _this$GSCopy$[ebp]
  00237	57		 push	 edi
  00238	56		 push	 esi
  00239	8d 45 e4	 lea	 eax, DWORD PTR __k$[ebp]
  0023c	50		 push	 eax
  0023d	ff 15 00 00 00
	00		 call	 DWORD PTR __imp_?LoadStringA@ioINILoader@@QAEXPBD0PADH@Z

; 164  : 	}

  00243	8b 4d fc	 mov	 ecx, DWORD PTR __$ArrayPad$[ebp]
  00246	5f		 pop	 edi
  00247	33 cd		 xor	 ecx, ebp
  00249	5e		 pop	 esi
  0024a	e8 00 00 00 00	 call	 @__security_check_cookie@4
  0024f	c9		 leave
  00250	c2 10 00	 ret	 16			; 00000010H
??$LoadString_e@$0BD@@ioINILoader@@QAEXAAY0BD@$$CBDAAY00$$CBDPADH@Z ENDP ; ioINILoader::LoadString_e<19>
_TEXT	ENDS
PUBLIC	__$ArrayPad$
PUBLIC	??$LoadFloat_e@$0BI@@ioINILoader@@QAEMAAY0BI@$$CBDM@Z ; ioINILoader::LoadFloat_e<24>
; Function compile flags: /Ogsp
;	COMDAT ??$LoadFloat_e@$0BI@@ioINILoader@@QAEMAAY0BI@$$CBDM@Z
_TEXT	SEGMENT
__k$ = -32						; size = 24
__$ArrayPad$ = -4					; size = 4
_k$ = 8							; size = 4
_f$ = 12						; size = 4
??$LoadFloat_e@$0BI@@ioINILoader@@QAEMAAY0BI@$$CBDM@Z PROC ; ioINILoader::LoadFloat_e<24>, COMDAT
; _this$ = ecx

; 135  : 	{

  00000	55		 push	 ebp
  00001	8b ec		 mov	 ebp, esp
  00003	83 ec 20	 sub	 esp, 32			; 00000020H
  00006	a1 00 00 00 00	 mov	 eax, DWORD PTR ___security_cookie
  0000b	33 c5		 xor	 eax, ebp
  0000d	89 45 fc	 mov	 DWORD PTR __$ArrayPad$[ebp], eax
  00010	8b 45 08	 mov	 eax, DWORD PTR _k$[ebp]

; 136  : 		_ENCSTR(k, _k);

  00013	8a 10		 mov	 dl, BYTE PTR [eax]
  00015	53		 push	 ebx
  00016	56		 push	 esi
  00017	8b f1		 mov	 esi, ecx
  00019	84 d2		 test	 dl, dl
  0001b	0f 84 45 02 00
	00		 je	 $LN96@LoadFloat_@3
  00021	80 f2 ed	 xor	 dl, -19			; ffffffedH
  00024	88 55 e0	 mov	 BYTE PTR __k$[ebp], dl
  00027	8a 50 01	 mov	 dl, BYTE PTR [eax+1]
  0002a	84 d2		 test	 dl, dl
  0002c	0f 84 2e 02 00
	00		 je	 $LN95@LoadFloat_@3
  00032	b3 ec		 mov	 bl, -20			; ffffffecH
  00034	32 d3		 xor	 dl, bl
  00036	88 55 e1	 mov	 BYTE PTR __k$[ebp+1], dl
  00039	8a 50 02	 mov	 dl, BYTE PTR [eax+2]
  0003c	84 d2		 test	 dl, dl
  0003e	0f 84 16 02 00
	00		 je	 $LN94@LoadFloat_@3
  00044	b1 eb		 mov	 cl, -21			; ffffffebH
  00046	32 d1		 xor	 dl, cl
  00048	88 55 e2	 mov	 BYTE PTR __k$[ebp+2], dl
  0004b	8a 50 03	 mov	 dl, BYTE PTR [eax+3]
  0004e	84 d2		 test	 dl, dl
  00050	0f 84 fe 01 00
	00		 je	 $LN93@LoadFloat_@3
  00056	80 f2 ea	 xor	 dl, -22			; ffffffeaH
  00059	88 55 e3	 mov	 BYTE PTR __k$[ebp+3], dl
  0005c	8a 50 04	 mov	 dl, BYTE PTR [eax+4]
  0005f	84 d2		 test	 dl, dl
  00061	0f 84 e7 01 00
	00		 je	 $LN92@LoadFloat_@3
  00067	80 f2 ed	 xor	 dl, -19			; ffffffedH
  0006a	88 55 e4	 mov	 BYTE PTR __k$[ebp+4], dl
  0006d	8a 50 05	 mov	 dl, BYTE PTR [eax+5]
  00070	84 d2		 test	 dl, dl
  00072	0f 84 d1 01 00
	00		 je	 $LN91@LoadFloat_@3
  00078	32 d3		 xor	 dl, bl
  0007a	88 55 e5	 mov	 BYTE PTR __k$[ebp+5], dl
  0007d	8a 50 06	 mov	 dl, BYTE PTR [eax+6]
  00080	84 d2		 test	 dl, dl
  00082	0f 84 bc 01 00
	00		 je	 $LN90@LoadFloat_@3
  00088	32 d1		 xor	 dl, cl
  0008a	88 55 e6	 mov	 BYTE PTR __k$[ebp+6], dl
  0008d	8a 50 07	 mov	 dl, BYTE PTR [eax+7]
  00090	84 d2		 test	 dl, dl
  00092	0f 84 a6 01 00
	00		 je	 $LN89@LoadFloat_@3
  00098	80 f2 ea	 xor	 dl, -22			; ffffffeaH
  0009b	88 55 e7	 mov	 BYTE PTR __k$[ebp+7], dl
  0009e	8a 50 08	 mov	 dl, BYTE PTR [eax+8]
  000a1	84 d2		 test	 dl, dl
  000a3	0f 84 8f 01 00
	00		 je	 $LN88@LoadFloat_@3
  000a9	80 f2 ed	 xor	 dl, -19			; ffffffedH
  000ac	88 55 e8	 mov	 BYTE PTR __k$[ebp+8], dl
  000af	8a 50 09	 mov	 dl, BYTE PTR [eax+9]
  000b2	84 d2		 test	 dl, dl
  000b4	0f 84 79 01 00
	00		 je	 $LN87@LoadFloat_@3
  000ba	32 d3		 xor	 dl, bl
  000bc	88 55 e9	 mov	 BYTE PTR __k$[ebp+9], dl
  000bf	8a 50 0a	 mov	 dl, BYTE PTR [eax+10]
  000c2	84 d2		 test	 dl, dl
  000c4	0f 84 64 01 00
	00		 je	 $LN86@LoadFloat_@3
  000ca	32 d1		 xor	 dl, cl
  000cc	88 55 ea	 mov	 BYTE PTR __k$[ebp+10], dl
  000cf	8a 50 0b	 mov	 dl, BYTE PTR [eax+11]
  000d2	84 d2		 test	 dl, dl
  000d4	0f 84 4e 01 00
	00		 je	 $LN85@LoadFloat_@3
  000da	80 f2 ea	 xor	 dl, -22			; ffffffeaH
  000dd	88 55 eb	 mov	 BYTE PTR __k$[ebp+11], dl
  000e0	8a 50 0c	 mov	 dl, BYTE PTR [eax+12]
  000e3	84 d2		 test	 dl, dl
  000e5	0f 84 37 01 00
	00		 je	 $LN84@LoadFloat_@3
  000eb	80 f2 ed	 xor	 dl, -19			; ffffffedH
  000ee	88 55 ec	 mov	 BYTE PTR __k$[ebp+12], dl
  000f1	8a 50 0d	 mov	 dl, BYTE PTR [eax+13]
  000f4	84 d2		 test	 dl, dl
  000f6	0f 84 21 01 00
	00		 je	 $LN83@LoadFloat_@3
  000fc	32 d3		 xor	 dl, bl
  000fe	88 55 ed	 mov	 BYTE PTR __k$[ebp+13], dl
  00101	8a 50 0e	 mov	 dl, BYTE PTR [eax+14]
  00104	84 d2		 test	 dl, dl
  00106	0f 84 0c 01 00
	00		 je	 $LN82@LoadFloat_@3
  0010c	32 d1		 xor	 dl, cl
  0010e	88 55 ee	 mov	 BYTE PTR __k$[ebp+14], dl
  00111	8a 50 0f	 mov	 dl, BYTE PTR [eax+15]
  00114	84 d2		 test	 dl, dl
  00116	0f 84 f6 00 00
	00		 je	 $LN81@LoadFloat_@3
  0011c	80 f2 ea	 xor	 dl, -22			; ffffffeaH
  0011f	88 55 ef	 mov	 BYTE PTR __k$[ebp+15], dl
  00122	8a 50 10	 mov	 dl, BYTE PTR [eax+16]
  00125	84 d2		 test	 dl, dl
  00127	0f 84 df 00 00
	00		 je	 $LN80@LoadFloat_@3
  0012d	80 f2 ed	 xor	 dl, -19			; ffffffedH
  00130	88 55 f0	 mov	 BYTE PTR __k$[ebp+16], dl
  00133	8a 50 11	 mov	 dl, BYTE PTR [eax+17]
  00136	84 d2		 test	 dl, dl
  00138	0f 84 c9 00 00
	00		 je	 $LN79@LoadFloat_@3
  0013e	32 d3		 xor	 dl, bl
  00140	88 55 f1	 mov	 BYTE PTR __k$[ebp+17], dl
  00143	8a 50 12	 mov	 dl, BYTE PTR [eax+18]
  00146	84 d2		 test	 dl, dl
  00148	0f 84 b4 00 00
	00		 je	 $LN78@LoadFloat_@3
  0014e	32 d1		 xor	 dl, cl
  00150	88 55 f2	 mov	 BYTE PTR __k$[ebp+18], dl
  00153	8a 50 13	 mov	 dl, BYTE PTR [eax+19]
  00156	84 d2		 test	 dl, dl
  00158	0f 84 9e 00 00
	00		 je	 $LN77@LoadFloat_@3
  0015e	80 f2 ea	 xor	 dl, -22			; ffffffeaH
  00161	88 55 f3	 mov	 BYTE PTR __k$[ebp+19], dl
  00164	8a 50 14	 mov	 dl, BYTE PTR [eax+20]
  00167	84 d2		 test	 dl, dl
  00169	0f 84 87 00 00
	00		 je	 $LN76@LoadFloat_@3
  0016f	80 f2 ed	 xor	 dl, -19			; ffffffedH
  00172	88 55 f4	 mov	 BYTE PTR __k$[ebp+20], dl
  00175	8a 50 15	 mov	 dl, BYTE PTR [eax+21]
  00178	84 d2		 test	 dl, dl
  0017a	74 75		 je	 SHORT $LN75@LoadFloat_@3
  0017c	32 d3		 xor	 dl, bl
  0017e	88 55 f5	 mov	 BYTE PTR __k$[ebp+21], dl
  00181	8a 50 16	 mov	 dl, BYTE PTR [eax+22]
  00184	84 d2		 test	 dl, dl
  00186	74 64		 je	 SHORT $LN74@LoadFloat_@3
  00188	32 d1		 xor	 dl, cl
  0018a	80 78 17 00	 cmp	 BYTE PTR [eax+23], 0
  0018e	88 55 f6	 mov	 BYTE PTR __k$[ebp+22], dl
  00191	0f 84 d3 00 00
	00		 je	 $LN1@LoadFloat_@3
  00197	8a 50 18	 mov	 dl, BYTE PTR [eax+24]
  0019a	84 d2		 test	 dl, dl
  0019c	74 48		 je	 SHORT $LN72@LoadFloat_@3
  0019e	80 f2 ed	 xor	 dl, -19			; ffffffedH
  001a1	88 55 f8	 mov	 BYTE PTR __k$[ebp+24], dl
  001a4	8a 50 19	 mov	 dl, BYTE PTR [eax+25]
  001a7	84 d2		 test	 dl, dl
  001a9	74 33		 je	 SHORT $LN71@LoadFloat_@3
  001ab	32 d3		 xor	 dl, bl
  001ad	88 55 f9	 mov	 BYTE PTR __k$[ebp+25], dl
  001b0	8a 50 1a	 mov	 dl, BYTE PTR [eax+26]
  001b3	84 d2		 test	 dl, dl
  001b5	74 1f		 je	 SHORT $LN70@LoadFloat_@3
  001b7	8a 40 1b	 mov	 al, BYTE PTR [eax+27]
  001ba	32 d1		 xor	 dl, cl
  001bc	88 55 fa	 mov	 BYTE PTR __k$[ebp+26], dl
  001bf	84 c0		 test	 al, al
  001c1	74 0a		 je	 SHORT $LN69@LoadFloat_@3
  001c3	34 ea		 xor	 al, -22			; ffffffeaH
  001c5	88 45 fb	 mov	 BYTE PTR __k$[ebp+27], al
  001c8	e9 9d 00 00 00	 jmp	 $LN1@LoadFloat_@3
$LN69@LoadFloat_@3:
  001cd	c6 45 fb ea	 mov	 BYTE PTR __k$[ebp+27], -22 ; ffffffeaH
  001d1	e9 94 00 00 00	 jmp	 $LN1@LoadFloat_@3
$LN70@LoadFloat_@3:
  001d6	88 4d fa	 mov	 BYTE PTR __k$[ebp+26], cl
  001d9	e9 8c 00 00 00	 jmp	 $LN1@LoadFloat_@3
$LN71@LoadFloat_@3:
  001de	88 5d f9	 mov	 BYTE PTR __k$[ebp+25], bl
  001e1	e9 84 00 00 00	 jmp	 $LN1@LoadFloat_@3
$LN72@LoadFloat_@3:
  001e6	c6 45 f8 ed	 mov	 BYTE PTR __k$[ebp+24], -19 ; ffffffedH
  001ea	eb 7e		 jmp	 SHORT $LN1@LoadFloat_@3
$LN74@LoadFloat_@3:
  001ec	88 4d f6	 mov	 BYTE PTR __k$[ebp+22], cl
  001ef	eb 79		 jmp	 SHORT $LN1@LoadFloat_@3
$LN75@LoadFloat_@3:
  001f1	88 5d f5	 mov	 BYTE PTR __k$[ebp+21], bl
  001f4	eb 74		 jmp	 SHORT $LN1@LoadFloat_@3
$LN76@LoadFloat_@3:
  001f6	c6 45 f4 ed	 mov	 BYTE PTR __k$[ebp+20], -19 ; ffffffedH
  001fa	eb 6e		 jmp	 SHORT $LN1@LoadFloat_@3
$LN77@LoadFloat_@3:
  001fc	c6 45 f3 ea	 mov	 BYTE PTR __k$[ebp+19], -22 ; ffffffeaH
  00200	eb 68		 jmp	 SHORT $LN1@LoadFloat_@3
$LN78@LoadFloat_@3:
  00202	88 4d f2	 mov	 BYTE PTR __k$[ebp+18], cl
  00205	eb 63		 jmp	 SHORT $LN1@LoadFloat_@3
$LN79@LoadFloat_@3:
  00207	88 5d f1	 mov	 BYTE PTR __k$[ebp+17], bl
  0020a	eb 5e		 jmp	 SHORT $LN1@LoadFloat_@3
$LN80@LoadFloat_@3:
  0020c	c6 45 f0 ed	 mov	 BYTE PTR __k$[ebp+16], -19 ; ffffffedH
  00210	eb 58		 jmp	 SHORT $LN1@LoadFloat_@3
$LN81@LoadFloat_@3:
  00212	c6 45 ef ea	 mov	 BYTE PTR __k$[ebp+15], -22 ; ffffffeaH
  00216	eb 52		 jmp	 SHORT $LN1@LoadFloat_@3
$LN82@LoadFloat_@3:
  00218	88 4d ee	 mov	 BYTE PTR __k$[ebp+14], cl
  0021b	eb 4d		 jmp	 SHORT $LN1@LoadFloat_@3
$LN83@LoadFloat_@3:
  0021d	88 5d ed	 mov	 BYTE PTR __k$[ebp+13], bl
  00220	eb 48		 jmp	 SHORT $LN1@LoadFloat_@3
$LN84@LoadFloat_@3:
  00222	c6 45 ec ed	 mov	 BYTE PTR __k$[ebp+12], -19 ; ffffffedH
  00226	eb 42		 jmp	 SHORT $LN1@LoadFloat_@3
$LN85@LoadFloat_@3:
  00228	c6 45 eb ea	 mov	 BYTE PTR __k$[ebp+11], -22 ; ffffffeaH
  0022c	eb 3c		 jmp	 SHORT $LN1@LoadFloat_@3
$LN86@LoadFloat_@3:
  0022e	88 4d ea	 mov	 BYTE PTR __k$[ebp+10], cl
  00231	eb 37		 jmp	 SHORT $LN1@LoadFloat_@3
$LN87@LoadFloat_@3:
  00233	88 5d e9	 mov	 BYTE PTR __k$[ebp+9], bl
  00236	eb 32		 jmp	 SHORT $LN1@LoadFloat_@3
$LN88@LoadFloat_@3:
  00238	c6 45 e8 ed	 mov	 BYTE PTR __k$[ebp+8], -19 ; ffffffedH
  0023c	eb 2c		 jmp	 SHORT $LN1@LoadFloat_@3
$LN89@LoadFloat_@3:
  0023e	c6 45 e7 ea	 mov	 BYTE PTR __k$[ebp+7], -22 ; ffffffeaH
  00242	eb 26		 jmp	 SHORT $LN1@LoadFloat_@3
$LN90@LoadFloat_@3:
  00244	88 4d e6	 mov	 BYTE PTR __k$[ebp+6], cl
  00247	eb 21		 jmp	 SHORT $LN1@LoadFloat_@3
$LN91@LoadFloat_@3:
  00249	88 5d e5	 mov	 BYTE PTR __k$[ebp+5], bl
  0024c	eb 1c		 jmp	 SHORT $LN1@LoadFloat_@3
$LN92@LoadFloat_@3:
  0024e	c6 45 e4 ed	 mov	 BYTE PTR __k$[ebp+4], -19 ; ffffffedH
  00252	eb 16		 jmp	 SHORT $LN1@LoadFloat_@3
$LN93@LoadFloat_@3:
  00254	c6 45 e3 ea	 mov	 BYTE PTR __k$[ebp+3], -22 ; ffffffeaH
  00258	eb 10		 jmp	 SHORT $LN1@LoadFloat_@3
$LN94@LoadFloat_@3:
  0025a	c6 45 e2 eb	 mov	 BYTE PTR __k$[ebp+2], -21 ; ffffffebH
  0025e	eb 0a		 jmp	 SHORT $LN1@LoadFloat_@3
$LN95@LoadFloat_@3:
  00260	c6 45 e1 ec	 mov	 BYTE PTR __k$[ebp+1], -20 ; ffffffecH
  00264	eb 04		 jmp	 SHORT $LN1@LoadFloat_@3
$LN96@LoadFloat_@3:
  00266	c6 45 e0 ed	 mov	 BYTE PTR __k$[ebp], -19	; ffffffedH
$LN1@LoadFloat_@3:
  0026a	6a 05		 push	 5
  0026c	8d 45 e0	 lea	 eax, DWORD PTR __k$[ebp]
  0026f	c6 45 f7 00	 mov	 BYTE PTR __k$[ebp+23], 0
  00273	5a		 pop	 edx
$LL104@LoadFloat_@3:
  00274	81 30 ed ec eb
	ea		 xor	 DWORD PTR [eax], -353637139 ; eaebecedH
  0027a	83 c0 04	 add	 eax, 4
  0027d	4a		 dec	 edx
  0027e	75 f4		 jne	 SHORT $LL104@LoadFloat_@3
  00280	6a 14		 push	 20			; 00000014H
  00282	58		 pop	 eax
$LL101@LoadFloat_@3:
  00283	8b c8		 mov	 ecx, eax
  00285	81 e1 03 00 00
	80		 and	 ecx, -2147483645	; 80000003H
  0028b	79 05		 jns	 SHORT $LN111@LoadFloat_@3
  0028d	49		 dec	 ecx
  0028e	83 c9 fc	 or	 ecx, -4			; fffffffcH
  00291	41		 inc	 ecx
$LN111@LoadFloat_@3:
  00292	b2 ed		 mov	 dl, -19			; ffffffedH
  00294	2a d1		 sub	 dl, cl
  00296	30 54 05 e0	 xor	 BYTE PTR __k$[ebp+eax], dl
  0029a	40		 inc	 eax
  0029b	83 f8 17	 cmp	 eax, 23			; 00000017H
  0029e	7c e3		 jl	 SHORT $LL101@LoadFloat_@3

; 137  : 		return LoadFloat(_k, f);

  002a0	f3 0f 10 45 0c	 movss	 xmm0, DWORD PTR _f$[ebp]
  002a5	51		 push	 ecx
  002a6	8d 45 e0	 lea	 eax, DWORD PTR __k$[ebp]
  002a9	f3 0f 11 04 24	 movss	 DWORD PTR [esp], xmm0
  002ae	50		 push	 eax
  002af	8b ce		 mov	 ecx, esi
  002b1	ff 15 00 00 00
	00		 call	 DWORD PTR __imp_?LoadFloat@ioINILoader@@QAEMPBDM@Z

; 138  : 	}

  002b7	8b 4d fc	 mov	 ecx, DWORD PTR __$ArrayPad$[ebp]
  002ba	5e		 pop	 esi
  002bb	33 cd		 xor	 ecx, ebp
  002bd	5b		 pop	 ebx
  002be	e8 00 00 00 00	 call	 @__security_check_cookie@4
  002c3	c9		 leave
  002c4	c2 08 00	 ret	 8
??$LoadFloat_e@$0BI@@ioINILoader@@QAEMAAY0BI@$$CBDM@Z ENDP ; ioINILoader::LoadFloat_e<24>
_TEXT	ENDS
PUBLIC	__$ArrayPad$
PUBLIC	??$LoadBool_e@$0BH@@ioINILoader@@QAE_NAAY0BH@$$CBD_N@Z ; ioINILoader::LoadBool_e<23>
; Function compile flags: /Ogsp
;	COMDAT ??$LoadBool_e@$0BH@@ioINILoader@@QAE_NAAY0BH@$$CBD_N@Z
_TEXT	SEGMENT
__k$ = -32						; size = 23
__$ArrayPad$ = -4					; size = 4
_k$ = 8							; size = 4
_b$ = 12						; size = 1
??$LoadBool_e@$0BH@@ioINILoader@@QAE_NAAY0BH@$$CBD_N@Z PROC ; ioINILoader::LoadBool_e<23>, COMDAT
; _this$ = ecx

; 101  : 	{

  00000	55		 push	 ebp
  00001	8b ec		 mov	 ebp, esp
  00003	83 ec 20	 sub	 esp, 32			; 00000020H
  00006	a1 00 00 00 00	 mov	 eax, DWORD PTR ___security_cookie
  0000b	33 c5		 xor	 eax, ebp
  0000d	89 45 fc	 mov	 DWORD PTR __$ArrayPad$[ebp], eax
  00010	8b 45 08	 mov	 eax, DWORD PTR _k$[ebp]

; 102  : 		_ENCSTR(k, _k);

  00013	8a 10		 mov	 dl, BYTE PTR [eax]
  00015	53		 push	 ebx
  00016	56		 push	 esi
  00017	8b f1		 mov	 esi, ecx
  00019	84 d2		 test	 dl, dl
  0001b	0f 84 2d 02 00
	00		 je	 $LN96@LoadBool_e@3
  00021	80 f2 ed	 xor	 dl, -19			; ffffffedH
  00024	88 55 e0	 mov	 BYTE PTR __k$[ebp], dl
  00027	8a 50 01	 mov	 dl, BYTE PTR [eax+1]
  0002a	84 d2		 test	 dl, dl
  0002c	0f 84 16 02 00
	00		 je	 $LN95@LoadBool_e@3
  00032	b1 ec		 mov	 cl, -20			; ffffffecH
  00034	32 d1		 xor	 dl, cl
  00036	88 55 e1	 mov	 BYTE PTR __k$[ebp+1], dl
  00039	8a 50 02	 mov	 dl, BYTE PTR [eax+2]
  0003c	84 d2		 test	 dl, dl
  0003e	0f 84 fe 01 00
	00		 je	 $LN94@LoadBool_e@3
  00044	80 f2 eb	 xor	 dl, -21			; ffffffebH
  00047	88 55 e2	 mov	 BYTE PTR __k$[ebp+2], dl
  0004a	8a 50 03	 mov	 dl, BYTE PTR [eax+3]
  0004d	84 d2		 test	 dl, dl
  0004f	0f 84 e7 01 00
	00		 je	 $LN93@LoadBool_e@3
  00055	b3 ea		 mov	 bl, -22			; ffffffeaH
  00057	32 d3		 xor	 dl, bl
  00059	88 55 e3	 mov	 BYTE PTR __k$[ebp+3], dl
  0005c	8a 50 04	 mov	 dl, BYTE PTR [eax+4]
  0005f	84 d2		 test	 dl, dl
  00061	0f 84 cf 01 00
	00		 je	 $LN92@LoadBool_e@3
  00067	80 f2 ed	 xor	 dl, -19			; ffffffedH
  0006a	88 55 e4	 mov	 BYTE PTR __k$[ebp+4], dl
  0006d	8a 50 05	 mov	 dl, BYTE PTR [eax+5]
  00070	84 d2		 test	 dl, dl
  00072	0f 84 b9 01 00
	00		 je	 $LN91@LoadBool_e@3
  00078	32 d1		 xor	 dl, cl
  0007a	88 55 e5	 mov	 BYTE PTR __k$[ebp+5], dl
  0007d	8a 50 06	 mov	 dl, BYTE PTR [eax+6]
  00080	84 d2		 test	 dl, dl
  00082	0f 84 a3 01 00
	00		 je	 $LN90@LoadBool_e@3
  00088	80 f2 eb	 xor	 dl, -21			; ffffffebH
  0008b	88 55 e6	 mov	 BYTE PTR __k$[ebp+6], dl
  0008e	8a 50 07	 mov	 dl, BYTE PTR [eax+7]
  00091	84 d2		 test	 dl, dl
  00093	0f 84 8d 01 00
	00		 je	 $LN89@LoadBool_e@3
  00099	32 d3		 xor	 dl, bl
  0009b	88 55 e7	 mov	 BYTE PTR __k$[ebp+7], dl
  0009e	8a 50 08	 mov	 dl, BYTE PTR [eax+8]
  000a1	84 d2		 test	 dl, dl
  000a3	0f 84 77 01 00
	00		 je	 $LN88@LoadBool_e@3
  000a9	80 f2 ed	 xor	 dl, -19			; ffffffedH
  000ac	88 55 e8	 mov	 BYTE PTR __k$[ebp+8], dl
  000af	8a 50 09	 mov	 dl, BYTE PTR [eax+9]
  000b2	84 d2		 test	 dl, dl
  000b4	0f 84 61 01 00
	00		 je	 $LN87@LoadBool_e@3
  000ba	32 d1		 xor	 dl, cl
  000bc	88 55 e9	 mov	 BYTE PTR __k$[ebp+9], dl
  000bf	8a 50 0a	 mov	 dl, BYTE PTR [eax+10]
  000c2	84 d2		 test	 dl, dl
  000c4	0f 84 4b 01 00
	00		 je	 $LN86@LoadBool_e@3
  000ca	80 f2 eb	 xor	 dl, -21			; ffffffebH
  000cd	88 55 ea	 mov	 BYTE PTR __k$[ebp+10], dl
  000d0	8a 50 0b	 mov	 dl, BYTE PTR [eax+11]
  000d3	84 d2		 test	 dl, dl
  000d5	0f 84 35 01 00
	00		 je	 $LN85@LoadBool_e@3
  000db	32 d3		 xor	 dl, bl
  000dd	88 55 eb	 mov	 BYTE PTR __k$[ebp+11], dl
  000e0	8a 50 0c	 mov	 dl, BYTE PTR [eax+12]
  000e3	84 d2		 test	 dl, dl
  000e5	0f 84 1f 01 00
	00		 je	 $LN84@LoadBool_e@3
  000eb	80 f2 ed	 xor	 dl, -19			; ffffffedH
  000ee	88 55 ec	 mov	 BYTE PTR __k$[ebp+12], dl
  000f1	8a 50 0d	 mov	 dl, BYTE PTR [eax+13]
  000f4	84 d2		 test	 dl, dl
  000f6	0f 84 09 01 00
	00		 je	 $LN83@LoadBool_e@3
  000fc	32 d1		 xor	 dl, cl
  000fe	88 55 ed	 mov	 BYTE PTR __k$[ebp+13], dl
  00101	8a 50 0e	 mov	 dl, BYTE PTR [eax+14]
  00104	84 d2		 test	 dl, dl
  00106	0f 84 f3 00 00
	00		 je	 $LN82@LoadBool_e@3
  0010c	80 f2 eb	 xor	 dl, -21			; ffffffebH
  0010f	88 55 ee	 mov	 BYTE PTR __k$[ebp+14], dl
  00112	8a 50 0f	 mov	 dl, BYTE PTR [eax+15]
  00115	84 d2		 test	 dl, dl
  00117	0f 84 dd 00 00
	00		 je	 $LN81@LoadBool_e@3
  0011d	32 d3		 xor	 dl, bl
  0011f	88 55 ef	 mov	 BYTE PTR __k$[ebp+15], dl
  00122	8a 50 10	 mov	 dl, BYTE PTR [eax+16]
  00125	84 d2		 test	 dl, dl
  00127	0f 84 c7 00 00
	00		 je	 $LN80@LoadBool_e@3
  0012d	80 f2 ed	 xor	 dl, -19			; ffffffedH
  00130	88 55 f0	 mov	 BYTE PTR __k$[ebp+16], dl
  00133	8a 50 11	 mov	 dl, BYTE PTR [eax+17]
  00136	84 d2		 test	 dl, dl
  00138	0f 84 b1 00 00
	00		 je	 $LN79@LoadBool_e@3
  0013e	32 d1		 xor	 dl, cl
  00140	88 55 f1	 mov	 BYTE PTR __k$[ebp+17], dl
  00143	8a 50 12	 mov	 dl, BYTE PTR [eax+18]
  00146	84 d2		 test	 dl, dl
  00148	0f 84 9b 00 00
	00		 je	 $LN78@LoadBool_e@3
  0014e	80 f2 eb	 xor	 dl, -21			; ffffffebH
  00151	88 55 f2	 mov	 BYTE PTR __k$[ebp+18], dl
  00154	8a 50 13	 mov	 dl, BYTE PTR [eax+19]
  00157	84 d2		 test	 dl, dl
  00159	0f 84 85 00 00
	00		 je	 $LN77@LoadBool_e@3
  0015f	32 d3		 xor	 dl, bl
  00161	88 55 f3	 mov	 BYTE PTR __k$[ebp+19], dl
  00164	8a 50 14	 mov	 dl, BYTE PTR [eax+20]
  00167	84 d2		 test	 dl, dl
  00169	74 73		 je	 SHORT $LN76@LoadBool_e@3
  0016b	80 f2 ed	 xor	 dl, -19			; ffffffedH
  0016e	88 55 f4	 mov	 BYTE PTR __k$[ebp+20], dl
  00171	8a 50 15	 mov	 dl, BYTE PTR [eax+21]
  00174	84 d2		 test	 dl, dl
  00176	74 61		 je	 SHORT $LN75@LoadBool_e@3
  00178	32 d1		 xor	 dl, cl
  0017a	80 78 16 00	 cmp	 BYTE PTR [eax+22], 0
  0017e	88 55 f5	 mov	 BYTE PTR __k$[ebp+21], dl
  00181	0f 84 cb 00 00
	00		 je	 $LN1@LoadBool_e@3
  00187	8a 50 17	 mov	 dl, BYTE PTR [eax+23]
  0018a	84 d2		 test	 dl, dl
  0018c	74 46		 je	 SHORT $LN73@LoadBool_e@3
  0018e	32 d3		 xor	 dl, bl
  00190	88 55 f7	 mov	 BYTE PTR __k$[ebp+23], dl
  00193	8a 50 18	 mov	 dl, BYTE PTR [eax+24]
  00196	84 d2		 test	 dl, dl
  00198	74 34		 je	 SHORT $LN72@LoadBool_e@3
  0019a	80 f2 ed	 xor	 dl, -19			; ffffffedH
  0019d	88 55 f8	 mov	 BYTE PTR __k$[ebp+24], dl
  001a0	8a 50 19	 mov	 dl, BYTE PTR [eax+25]
  001a3	84 d2		 test	 dl, dl
  001a5	74 1f		 je	 SHORT $LN71@LoadBool_e@3
  001a7	8a 40 1a	 mov	 al, BYTE PTR [eax+26]
  001aa	32 d1		 xor	 dl, cl
  001ac	88 55 f9	 mov	 BYTE PTR __k$[ebp+25], dl
  001af	84 c0		 test	 al, al
  001b1	74 0a		 je	 SHORT $LN70@LoadBool_e@3
  001b3	34 eb		 xor	 al, -21			; ffffffebH
  001b5	88 45 fa	 mov	 BYTE PTR __k$[ebp+26], al
  001b8	e9 95 00 00 00	 jmp	 $LN1@LoadBool_e@3
$LN70@LoadBool_e@3:
  001bd	c6 45 fa eb	 mov	 BYTE PTR __k$[ebp+26], -21 ; ffffffebH
  001c1	e9 8c 00 00 00	 jmp	 $LN1@LoadBool_e@3
$LN71@LoadBool_e@3:
  001c6	88 4d f9	 mov	 BYTE PTR __k$[ebp+25], cl
  001c9	e9 84 00 00 00	 jmp	 $LN1@LoadBool_e@3
$LN72@LoadBool_e@3:
  001ce	c6 45 f8 ed	 mov	 BYTE PTR __k$[ebp+24], -19 ; ffffffedH
  001d2	eb 7e		 jmp	 SHORT $LN1@LoadBool_e@3
$LN73@LoadBool_e@3:
  001d4	88 5d f7	 mov	 BYTE PTR __k$[ebp+23], bl
  001d7	eb 79		 jmp	 SHORT $LN1@LoadBool_e@3
$LN75@LoadBool_e@3:
  001d9	88 4d f5	 mov	 BYTE PTR __k$[ebp+21], cl
  001dc	eb 74		 jmp	 SHORT $LN1@LoadBool_e@3
$LN76@LoadBool_e@3:
  001de	c6 45 f4 ed	 mov	 BYTE PTR __k$[ebp+20], -19 ; ffffffedH
  001e2	eb 6e		 jmp	 SHORT $LN1@LoadBool_e@3
$LN77@LoadBool_e@3:
  001e4	88 5d f3	 mov	 BYTE PTR __k$[ebp+19], bl
  001e7	eb 69		 jmp	 SHORT $LN1@LoadBool_e@3
$LN78@LoadBool_e@3:
  001e9	c6 45 f2 eb	 mov	 BYTE PTR __k$[ebp+18], -21 ; ffffffebH
  001ed	eb 63		 jmp	 SHORT $LN1@LoadBool_e@3
$LN79@LoadBool_e@3:
  001ef	88 4d f1	 mov	 BYTE PTR __k$[ebp+17], cl
  001f2	eb 5e		 jmp	 SHORT $LN1@LoadBool_e@3
$LN80@LoadBool_e@3:
  001f4	c6 45 f0 ed	 mov	 BYTE PTR __k$[ebp+16], -19 ; ffffffedH
  001f8	eb 58		 jmp	 SHORT $LN1@LoadBool_e@3
$LN81@LoadBool_e@3:
  001fa	88 5d ef	 mov	 BYTE PTR __k$[ebp+15], bl
  001fd	eb 53		 jmp	 SHORT $LN1@LoadBool_e@3
$LN82@LoadBool_e@3:
  001ff	c6 45 ee eb	 mov	 BYTE PTR __k$[ebp+14], -21 ; ffffffebH
  00203	eb 4d		 jmp	 SHORT $LN1@LoadBool_e@3
$LN83@LoadBool_e@3:
  00205	88 4d ed	 mov	 BYTE PTR __k$[ebp+13], cl
  00208	eb 48		 jmp	 SHORT $LN1@LoadBool_e@3
$LN84@LoadBool_e@3:
  0020a	c6 45 ec ed	 mov	 BYTE PTR __k$[ebp+12], -19 ; ffffffedH
  0020e	eb 42		 jmp	 SHORT $LN1@LoadBool_e@3
$LN85@LoadBool_e@3:
  00210	88 5d eb	 mov	 BYTE PTR __k$[ebp+11], bl
  00213	eb 3d		 jmp	 SHORT $LN1@LoadBool_e@3
$LN86@LoadBool_e@3:
  00215	c6 45 ea eb	 mov	 BYTE PTR __k$[ebp+10], -21 ; ffffffebH
  00219	eb 37		 jmp	 SHORT $LN1@LoadBool_e@3
$LN87@LoadBool_e@3:
  0021b	88 4d e9	 mov	 BYTE PTR __k$[ebp+9], cl
  0021e	eb 32		 jmp	 SHORT $LN1@LoadBool_e@3
$LN88@LoadBool_e@3:
  00220	c6 45 e8 ed	 mov	 BYTE PTR __k$[ebp+8], -19 ; ffffffedH
  00224	eb 2c		 jmp	 SHORT $LN1@LoadBool_e@3
$LN89@LoadBool_e@3:
  00226	88 5d e7	 mov	 BYTE PTR __k$[ebp+7], bl
  00229	eb 27		 jmp	 SHORT $LN1@LoadBool_e@3
$LN90@LoadBool_e@3:
  0022b	c6 45 e6 eb	 mov	 BYTE PTR __k$[ebp+6], -21 ; ffffffebH
  0022f	eb 21		 jmp	 SHORT $LN1@LoadBool_e@3
$LN91@LoadBool_e@3:
  00231	88 4d e5	 mov	 BYTE PTR __k$[ebp+5], cl
  00234	eb 1c		 jmp	 SHORT $LN1@LoadBool_e@3
$LN92@LoadBool_e@3:
  00236	c6 45 e4 ed	 mov	 BYTE PTR __k$[ebp+4], -19 ; ffffffedH
  0023a	eb 16		 jmp	 SHORT $LN1@LoadBool_e@3
$LN93@LoadBool_e@3:
  0023c	c6 45 e3 ea	 mov	 BYTE PTR __k$[ebp+3], -22 ; ffffffeaH
  00240	eb 10		 jmp	 SHORT $LN1@LoadBool_e@3
$LN94@LoadBool_e@3:
  00242	c6 45 e2 eb	 mov	 BYTE PTR __k$[ebp+2], -21 ; ffffffebH
  00246	eb 0a		 jmp	 SHORT $LN1@LoadBool_e@3
$LN95@LoadBool_e@3:
  00248	c6 45 e1 ec	 mov	 BYTE PTR __k$[ebp+1], -20 ; ffffffecH
  0024c	eb 04		 jmp	 SHORT $LN1@LoadBool_e@3
$LN96@LoadBool_e@3:
  0024e	c6 45 e0 ed	 mov	 BYTE PTR __k$[ebp], -19	; ffffffedH
$LN1@LoadBool_e@3:
  00252	6a 05		 push	 5
  00254	8d 45 e0	 lea	 eax, DWORD PTR __k$[ebp]
  00257	c6 45 f6 00	 mov	 BYTE PTR __k$[ebp+22], 0
  0025b	5a		 pop	 edx
$LL104@LoadBool_e@3:
  0025c	81 30 ed ec eb
	ea		 xor	 DWORD PTR [eax], -353637139 ; eaebecedH
  00262	83 c0 04	 add	 eax, 4
  00265	4a		 dec	 edx
  00266	75 f4		 jne	 SHORT $LL104@LoadBool_e@3
  00268	6a 14		 push	 20			; 00000014H
  0026a	58		 pop	 eax
$LL101@LoadBool_e@3:
  0026b	8b c8		 mov	 ecx, eax
  0026d	81 e1 03 00 00
	80		 and	 ecx, -2147483645	; 80000003H
  00273	79 05		 jns	 SHORT $LN111@LoadBool_e@3
  00275	49		 dec	 ecx
  00276	83 c9 fc	 or	 ecx, -4			; fffffffcH
  00279	41		 inc	 ecx
$LN111@LoadBool_e@3:
  0027a	b2 ed		 mov	 dl, -19			; ffffffedH
  0027c	2a d1		 sub	 dl, cl
  0027e	30 54 05 e0	 xor	 BYTE PTR __k$[ebp+eax], dl
  00282	40		 inc	 eax
  00283	83 f8 16	 cmp	 eax, 22			; 00000016H
  00286	7c e3		 jl	 SHORT $LL101@LoadBool_e@3

; 103  : 		return LoadBool(_k, b);

  00288	ff 75 0c	 push	 DWORD PTR _b$[ebp]
  0028b	8d 45 e0	 lea	 eax, DWORD PTR __k$[ebp]
  0028e	50		 push	 eax
  0028f	8b ce		 mov	 ecx, esi
  00291	ff 15 00 00 00
	00		 call	 DWORD PTR __imp_?LoadBool@ioINILoader@@QAE_NPBD_N@Z

; 104  : 	}

  00297	8b 4d fc	 mov	 ecx, DWORD PTR __$ArrayPad$[ebp]
  0029a	5e		 pop	 esi
  0029b	33 cd		 xor	 ecx, ebp
  0029d	5b		 pop	 ebx
  0029e	e8 00 00 00 00	 call	 @__security_check_cookie@4
  002a3	c9		 leave
  002a4	c2 08 00	 ret	 8
??$LoadBool_e@$0BH@@ioINILoader@@QAE_NAAY0BH@$$CBD_N@Z ENDP ; ioINILoader::LoadBool_e<23>
_TEXT	ENDS
PUBLIC	??$GetAnimationEventTime_e@$0L@@ioEntityGroup@@QAEMHAAY0L@$$CBD@Z ; ioEntityGroup::GetAnimationEventTime_e<11>
EXTRN	__imp_?GetAnimationEventTime@ioEntityGroup@@QAEMHABVioHashString@@@Z:PROC
EXTRN	__EH_epilog3_GS:PROC
EXTRN	__EH_prolog3_GS:PROC
;	COMDAT xdata$x
; File d:\lost saga for developer\youtube\tutorial\source\src\lsclient\stringprotect.h
xdata$x	SEGMENT
__unwindtable$??$GetAnimationEventTime_e@$0L@@ioEntityGroup@@QAEMHAAY0L@$$CBD@Z DD 0ffffffffH
	DD	FLAT:__unwindfunclet$??$GetAnimationEventTime_e@$0L@@ioEntityGroup@@QAEMHAAY0L@$$CBD@Z$0
__ehfuncinfo$??$GetAnimationEventTime_e@$0L@@ioEntityGroup@@QAEMHAAY0L@$$CBD@Z DD 019930522H
	DD	01H
	DD	FLAT:__unwindtable$??$GetAnimationEventTime_e@$0L@@ioEntityGroup@@QAEMHAAY0L@$$CBD@Z
	DD	2 DUP(00H)
	DD	2 DUP(00H)
	DD	00H
	DD	01H
; Function compile flags: /Ogsp
; File d:\lost saga for developer\youtube\tutorial\source\src\io3dengine\ioentitygroup.h
xdata$x	ENDS
;	COMDAT ??$GetAnimationEventTime_e@$0L@@ioEntityGroup@@QAEMHAAY0L@$$CBD@Z
_TEXT	SEGMENT
$T528418 = -52						; size = 16
$T528417 = -36						; size = 4
_szEncEventType$ = -32					; size = 11
__$EHRec$ = -12						; size = 12
_id$ = 8						; size = 4
_szEventType$ = 12					; size = 4
??$GetAnimationEventTime_e@$0L@@ioEntityGroup@@QAEMHAAY0L@$$CBD@Z PROC ; ioEntityGroup::GetAnimationEventTime_e<11>, COMDAT
; _this$ = ecx

; 414  : 	{

  00000	6a 28		 push	 40			; 00000028H
  00002	b8 00 00 00 00	 mov	 eax, __ehhandler$??$GetAnimationEventTime_e@$0L@@ioEntityGroup@@QAEMHAAY0L@$$CBD@Z
  00007	e8 00 00 00 00	 call	 __EH_prolog3_GS
  0000c	8b 45 0c	 mov	 eax, DWORD PTR _szEventType$[ebp]
  0000f	8b f1		 mov	 esi, ecx

; 415  : 		_ENCSTR(szEventType, szEncEventType);

  00011	8a 08		 mov	 cl, BYTE PTR [eax]
  00013	84 c9		 test	 cl, cl
  00015	0f 84 1b 01 00
	00		 je	 $LN96@GetAnimati
  0001b	b2 ed		 mov	 dl, -19			; ffffffedH
  0001d	32 ca		 xor	 cl, dl
  0001f	88 4d e0	 mov	 BYTE PTR _szEncEventType$[ebp], cl
  00022	8a 48 01	 mov	 cl, BYTE PTR [eax+1]
  00025	84 c9		 test	 cl, cl
  00027	0f 84 03 01 00
	00		 je	 $LN95@GetAnimati
  0002d	80 f1 ec	 xor	 cl, -20			; ffffffecH
  00030	88 4d e1	 mov	 BYTE PTR _szEncEventType$[ebp+1], cl
  00033	8a 48 02	 mov	 cl, BYTE PTR [eax+2]
  00036	84 c9		 test	 cl, cl
  00038	0f 84 ec 00 00
	00		 je	 $LN94@GetAnimati
  0003e	80 f1 eb	 xor	 cl, -21			; ffffffebH
  00041	88 4d e2	 mov	 BYTE PTR _szEncEventType$[ebp+2], cl
  00044	8a 48 03	 mov	 cl, BYTE PTR [eax+3]
  00047	84 c9		 test	 cl, cl
  00049	0f 84 d5 00 00
	00		 je	 $LN93@GetAnimati
  0004f	80 f1 ea	 xor	 cl, -22			; ffffffeaH
  00052	88 4d e3	 mov	 BYTE PTR _szEncEventType$[ebp+3], cl
  00055	8a 48 04	 mov	 cl, BYTE PTR [eax+4]
  00058	84 c9		 test	 cl, cl
  0005a	0f 84 bf 00 00
	00		 je	 $LN92@GetAnimati
  00060	32 ca		 xor	 cl, dl
  00062	88 4d e4	 mov	 BYTE PTR _szEncEventType$[ebp+4], cl
  00065	8a 48 05	 mov	 cl, BYTE PTR [eax+5]
  00068	84 c9		 test	 cl, cl
  0006a	0f 84 a9 00 00
	00		 je	 $LN91@GetAnimati
  00070	80 f1 ec	 xor	 cl, -20			; ffffffecH
  00073	88 4d e5	 mov	 BYTE PTR _szEncEventType$[ebp+5], cl
  00076	8a 48 06	 mov	 cl, BYTE PTR [eax+6]
  00079	84 c9		 test	 cl, cl
  0007b	0f 84 92 00 00
	00		 je	 $LN90@GetAnimati
  00081	80 f1 eb	 xor	 cl, -21			; ffffffebH
  00084	88 4d e6	 mov	 BYTE PTR _szEncEventType$[ebp+6], cl
  00087	8a 48 07	 mov	 cl, BYTE PTR [eax+7]
  0008a	84 c9		 test	 cl, cl
  0008c	74 7f		 je	 SHORT $LN89@GetAnimati
  0008e	80 f1 ea	 xor	 cl, -22			; ffffffeaH
  00091	88 4d e7	 mov	 BYTE PTR _szEncEventType$[ebp+7], cl
  00094	8a 48 08	 mov	 cl, BYTE PTR [eax+8]
  00097	84 c9		 test	 cl, cl
  00099	74 6d		 je	 SHORT $LN88@GetAnimati
  0009b	32 ca		 xor	 cl, dl
  0009d	88 4d e8	 mov	 BYTE PTR _szEncEventType$[ebp+8], cl
  000a0	8a 48 09	 mov	 cl, BYTE PTR [eax+9]
  000a3	84 c9		 test	 cl, cl
  000a5	74 5b		 je	 SHORT $LN87@GetAnimati
  000a7	80 f1 ec	 xor	 cl, -20			; ffffffecH
  000aa	80 78 0a 00	 cmp	 BYTE PTR [eax+10], 0
  000ae	88 4d e9	 mov	 BYTE PTR _szEncEventType$[ebp+9], cl
  000b1	0f 84 83 00 00
	00		 je	 $LN1@GetAnimati
  000b7	8a 48 0b	 mov	 cl, BYTE PTR [eax+11]
  000ba	84 c9		 test	 cl, cl
  000bc	74 3e		 je	 SHORT $LN85@GetAnimati
  000be	80 f1 ea	 xor	 cl, -22			; ffffffeaH
  000c1	88 4d eb	 mov	 BYTE PTR _szEncEventType$[ebp+11], cl
  000c4	8a 48 0c	 mov	 cl, BYTE PTR [eax+12]
  000c7	84 c9		 test	 cl, cl
  000c9	74 2c		 je	 SHORT $LN84@GetAnimati
  000cb	32 ca		 xor	 cl, dl
  000cd	88 4d ec	 mov	 BYTE PTR _szEncEventType$[ebp+12], cl
  000d0	8a 48 0d	 mov	 cl, BYTE PTR [eax+13]
  000d3	84 c9		 test	 cl, cl
  000d5	74 1a		 je	 SHORT $LN83@GetAnimati
  000d7	8a 40 0e	 mov	 al, BYTE PTR [eax+14]
  000da	80 f1 ec	 xor	 cl, -20			; ffffffecH
  000dd	88 4d ed	 mov	 BYTE PTR _szEncEventType$[ebp+13], cl
  000e0	84 c0		 test	 al, al
  000e2	74 07		 je	 SHORT $LN82@GetAnimati
  000e4	34 eb		 xor	 al, -21			; ffffffebH
  000e6	88 45 ee	 mov	 BYTE PTR _szEncEventType$[ebp+14], al
  000e9	eb 4f		 jmp	 SHORT $LN1@GetAnimati
$LN82@GetAnimati:
  000eb	c6 45 ee eb	 mov	 BYTE PTR _szEncEventType$[ebp+14], -21 ; ffffffebH
  000ef	eb 49		 jmp	 SHORT $LN1@GetAnimati
$LN83@GetAnimati:
  000f1	c6 45 ed ec	 mov	 BYTE PTR _szEncEventType$[ebp+13], -20 ; ffffffecH
  000f5	eb 43		 jmp	 SHORT $LN1@GetAnimati
$LN84@GetAnimati:
  000f7	88 55 ec	 mov	 BYTE PTR _szEncEventType$[ebp+12], dl
  000fa	eb 3e		 jmp	 SHORT $LN1@GetAnimati
$LN85@GetAnimati:
  000fc	c6 45 eb ea	 mov	 BYTE PTR _szEncEventType$[ebp+11], -22 ; ffffffeaH
  00100	eb 38		 jmp	 SHORT $LN1@GetAnimati
$LN87@GetAnimati:
  00102	c6 45 e9 ec	 mov	 BYTE PTR _szEncEventType$[ebp+9], -20 ; ffffffecH
  00106	eb 32		 jmp	 SHORT $LN1@GetAnimati
$LN88@GetAnimati:
  00108	88 55 e8	 mov	 BYTE PTR _szEncEventType$[ebp+8], dl
  0010b	eb 2d		 jmp	 SHORT $LN1@GetAnimati
$LN89@GetAnimati:
  0010d	c6 45 e7 ea	 mov	 BYTE PTR _szEncEventType$[ebp+7], -22 ; ffffffeaH
  00111	eb 27		 jmp	 SHORT $LN1@GetAnimati
$LN90@GetAnimati:
  00113	c6 45 e6 eb	 mov	 BYTE PTR _szEncEventType$[ebp+6], -21 ; ffffffebH
  00117	eb 21		 jmp	 SHORT $LN1@GetAnimati
$LN91@GetAnimati:
  00119	c6 45 e5 ec	 mov	 BYTE PTR _szEncEventType$[ebp+5], -20 ; ffffffecH
  0011d	eb 1b		 jmp	 SHORT $LN1@GetAnimati
$LN92@GetAnimati:
  0011f	88 55 e4	 mov	 BYTE PTR _szEncEventType$[ebp+4], dl
  00122	eb 16		 jmp	 SHORT $LN1@GetAnimati
$LN93@GetAnimati:
  00124	c6 45 e3 ea	 mov	 BYTE PTR _szEncEventType$[ebp+3], -22 ; ffffffeaH
  00128	eb 10		 jmp	 SHORT $LN1@GetAnimati
$LN94@GetAnimati:
  0012a	c6 45 e2 eb	 mov	 BYTE PTR _szEncEventType$[ebp+2], -21 ; ffffffebH
  0012e	eb 0a		 jmp	 SHORT $LN1@GetAnimati
$LN95@GetAnimati:
  00130	c6 45 e1 ec	 mov	 BYTE PTR _szEncEventType$[ebp+1], -20 ; ffffffecH
  00134	eb 04		 jmp	 SHORT $LN1@GetAnimati
$LN96@GetAnimati:
  00136	c6 45 e0 ed	 mov	 BYTE PTR _szEncEventType$[ebp], -19 ; ffffffedH
$LN1@GetAnimati:
  0013a	6a 02		 push	 2
  0013c	8d 45 e0	 lea	 eax, DWORD PTR _szEncEventType$[ebp]
  0013f	c6 45 ea 00	 mov	 BYTE PTR _szEncEventType$[ebp+10], 0
  00143	59		 pop	 ecx
$LL105@GetAnimati:
  00144	81 30 ed ec eb
	ea		 xor	 DWORD PTR [eax], -353637139 ; eaebecedH
  0014a	83 c0 04	 add	 eax, 4
  0014d	49		 dec	 ecx
  0014e	75 f4		 jne	 SHORT $LL105@GetAnimati
  00150	6a 08		 push	 8
  00152	58		 pop	 eax
$LL102@GetAnimati:
  00153	8b c8		 mov	 ecx, eax
  00155	81 e1 03 00 00
	80		 and	 ecx, -2147483645	; 80000003H
  0015b	79 05		 jns	 SHORT $LN113@GetAnimati
  0015d	49		 dec	 ecx
  0015e	83 c9 fc	 or	 ecx, -4			; fffffffcH
  00161	41		 inc	 ecx
$LN113@GetAnimati:
  00162	b2 ed		 mov	 dl, -19			; ffffffedH
  00164	2a d1		 sub	 dl, cl
  00166	30 54 05 e0	 xor	 BYTE PTR _szEncEventType$[ebp+eax], dl
  0016a	40		 inc	 eax
  0016b	83 f8 0a	 cmp	 eax, 10			; 0000000aH
  0016e	7c e3		 jl	 SHORT $LL102@GetAnimati

; 416  : 		return GetAnimationEventTime(id, szEncEventType);

  00170	8d 45 e0	 lea	 eax, DWORD PTR _szEncEventType$[ebp]
  00173	50		 push	 eax
  00174	8d 4d cc	 lea	 ecx, DWORD PTR $T528418[ebp]
  00177	ff 15 00 00 00
	00		 call	 DWORD PTR __imp_??0ioHashString@@QAE@PBD@Z
  0017d	83 65 fc 00	 and	 DWORD PTR __$EHRec$[ebp+8], 0
  00181	8d 45 cc	 lea	 eax, DWORD PTR $T528418[ebp]
  00184	50		 push	 eax
  00185	ff 75 08	 push	 DWORD PTR _id$[ebp]
  00188	8b ce		 mov	 ecx, esi
  0018a	ff 15 00 00 00
	00		 call	 DWORD PTR __imp_?GetAnimationEventTime@ioEntityGroup@@QAEMHABVioHashString@@@Z
  00190	d9 5d dc	 fstp	 DWORD PTR $T528417[ebp]
  00193	83 4d fc ff	 or	 DWORD PTR __$EHRec$[ebp+8], -1
  00197	8d 4d cc	 lea	 ecx, DWORD PTR $T528418[ebp]
  0019a	ff 15 00 00 00
	00		 call	 DWORD PTR __imp_??1ioHashString@@QAE@XZ
  001a0	d9 45 dc	 fld	 DWORD PTR $T528417[ebp]

; 417  : 	}

  001a3	e8 00 00 00 00	 call	 __EH_epilog3_GS
  001a8	c2 08 00	 ret	 8
_TEXT	ENDS
;	COMDAT text$x
text$x	SEGMENT
__unwindfunclet$??$GetAnimationEventTime_e@$0L@@ioEntityGroup@@QAEMHAAY0L@$$CBD@Z$0:
  00000	8d 4d cc	 lea	 ecx, DWORD PTR $T528418[ebp]
  00003	ff 25 00 00 00
	00		 jmp	 DWORD PTR __imp_??1ioHashString@@QAE@XZ
__ehhandler$??$GetAnimationEventTime_e@$0L@@ioEntityGroup@@QAEMHAAY0L@$$CBD@Z:
  00009	8b 54 24 08	 mov	 edx, DWORD PTR [esp+8]
  0000d	8d 42 0c	 lea	 eax, DWORD PTR [edx+12]
  00010	8b 4a c8	 mov	 ecx, DWORD PTR [edx-56]
  00013	33 c8		 xor	 ecx, eax
  00015	e8 00 00 00 00	 call	 @__security_check_cookie@4
  0001a	8b 4a fc	 mov	 ecx, DWORD PTR [edx-4]
  0001d	33 c8		 xor	 ecx, eax
  0001f	e8 00 00 00 00	 call	 @__security_check_cookie@4
  00024	b8 00 00 00 00	 mov	 eax, OFFSET __ehfuncinfo$??$GetAnimationEventTime_e@$0L@@ioEntityGroup@@QAEMHAAY0L@$$CBD@Z
  00029	e9 00 00 00 00	 jmp	 ___CxxFrameHandler3
text$x	ENDS
??$GetAnimationEventTime_e@$0L@@ioEntityGroup@@QAEMHAAY0L@$$CBD@Z ENDP ; ioEntityGroup::GetAnimationEventTime_e<11>
PUBLIC	?construct@?$allocator@UForceInfo@@@std@@QAEXPAUForceInfo@@ABU3@@Z ; std::allocator<ForceInfo>::construct
; Function compile flags: /Ogsp
; File c:\program files (x86)\microsoft visual studio 10.0\vc\include\xmemory
;	COMDAT ?construct@?$allocator@UForceInfo@@@std@@QAEXPAUForceInfo@@ABU3@@Z
_TEXT	SEGMENT
__Ptr$ = 8						; size = 4
__Val$ = 12						; size = 4
?construct@?$allocator@UForceInfo@@@std@@QAEXPAUForceInfo@@ABU3@@Z PROC ; std::allocator<ForceInfo>::construct, COMDAT
; _this$ = ecx

; 196  : 		{	// construct object at _Ptr with value _Val

  00000	55		 push	 ebp
  00001	8b ec		 mov	 ebp, esp
  00003	57		 push	 edi

; 197  : 		_Construct(_Ptr, _Val);

  00004	8b 7d 08	 mov	 edi, DWORD PTR __Ptr$[ebp]
  00007	85 ff		 test	 edi, edi
  00009	74 08		 je	 SHORT $LN5@construct
  0000b	56		 push	 esi
  0000c	8b 75 0c	 mov	 esi, DWORD PTR __Val$[ebp]
  0000f	a5		 movsd
  00010	a5		 movsd
  00011	a5		 movsd
  00012	5e		 pop	 esi
$LN5@construct:
  00013	5f		 pop	 edi

; 198  : 		}

  00014	5d		 pop	 ebp
  00015	c2 08 00	 ret	 8
?construct@?$allocator@UForceInfo@@@std@@QAEXPAUForceInfo@@ABU3@@Z ENDP ; std::allocator<ForceInfo>::construct
_TEXT	ENDS
PUBLIC	??$_Construct@UWeaponInfo@@ABU1@@std@@YAXPAUWeaponInfo@@ABU1@@Z ; std::_Construct<WeaponInfo,WeaponInfo const &>
;	COMDAT xdata$x
; File c:\program files (x86)\microsoft visual studio 10.0\vc\include\utility
xdata$x	SEGMENT
__unwindtable$??$_Construct@UWeaponInfo@@ABU1@@std@@YAXPAUWeaponInfo@@ABU1@@Z DD 0ffffffffH
	DD	FLAT:__unwindfunclet$??$_Construct@UWeaponInfo@@ABU1@@std@@YAXPAUWeaponInfo@@ABU1@@Z$0
__ehfuncinfo$??$_Construct@UWeaponInfo@@ABU1@@std@@YAXPAUWeaponInfo@@ABU1@@Z DD 019930522H
	DD	01H
	DD	FLAT:__unwindtable$??$_Construct@UWeaponInfo@@ABU1@@std@@YAXPAUWeaponInfo@@ABU1@@Z
	DD	2 DUP(00H)
	DD	2 DUP(00H)
	DD	00H
	DD	01H
; Function compile flags: /Ogsp
; File c:\program files (x86)\microsoft visual studio 10.0\vc\include\xmemory
xdata$x	ENDS
;	COMDAT ??$_Construct@UWeaponInfo@@ABU1@@std@@YAXPAUWeaponInfo@@ABU1@@Z
_TEXT	SEGMENT
$T528474 = -16						; size = 4
__$EHRec$ = -12						; size = 12
__Vptr$ = 8						; size = 4
__Ptr$ = 8						; size = 4
__Val$ = 12						; size = 4
??$_Construct@UWeaponInfo@@ABU1@@std@@YAXPAUWeaponInfo@@ABU1@@Z PROC ; std::_Construct<WeaponInfo,WeaponInfo const &>, COMDAT

; 46   : 	{	// construct object at _Ptr with value _Val

  00000	6a 04		 push	 4
  00002	b8 00 00 00 00	 mov	 eax, __ehhandler$??$_Construct@UWeaponInfo@@ABU1@@std@@YAXPAUWeaponInfo@@ABU1@@Z
  00007	e8 00 00 00 00	 call	 __EH_prolog3

; 47   : 	void _FARQ *_Vptr = _Ptr;

  0000c	8b 4d 08	 mov	 ecx, DWORD PTR __Ptr$[ebp]
  0000f	89 4d 08	 mov	 DWORD PTR __Vptr$[ebp], ecx

; 48   : 	::new (_Vptr) _Ty1(_STD forward<_Ty2>(_Val));

  00012	89 4d f0	 mov	 DWORD PTR $T528474[ebp], ecx
  00015	83 65 fc 00	 and	 DWORD PTR __$EHRec$[ebp+8], 0
  00019	85 c9		 test	 ecx, ecx
  0001b	74 08		 je	 SHORT $LN3@Construct@2
  0001d	ff 75 0c	 push	 DWORD PTR __Val$[ebp]
  00020	e8 00 00 00 00	 call	 ??0WeaponInfo@@QAE@ABU0@@Z
$LN3@Construct@2:

; 49   : 	}

  00025	e8 00 00 00 00	 call	 __EH_epilog3
  0002a	c3		 ret	 0
_TEXT	ENDS
;	COMDAT text$x
text$x	SEGMENT
__unwindfunclet$??$_Construct@UWeaponInfo@@ABU1@@std@@YAXPAUWeaponInfo@@ABU1@@Z$0:
  00000	ff 75 08	 push	 DWORD PTR __Vptr$[ebp]
  00003	ff 75 f0	 push	 DWORD PTR $T528474[ebp]
  00006	e8 00 00 00 00	 call	 ??3@YAXPAX0@Z		; operator delete
  0000b	59		 pop	 ecx
  0000c	59		 pop	 ecx
  0000d	c3		 ret	 0
__ehhandler$??$_Construct@UWeaponInfo@@ABU1@@std@@YAXPAUWeaponInfo@@ABU1@@Z:
  0000e	8b 54 24 08	 mov	 edx, DWORD PTR [esp+8]
  00012	8d 42 0c	 lea	 eax, DWORD PTR [edx+12]
  00015	8b 4a ec	 mov	 ecx, DWORD PTR [edx-20]
  00018	33 c8		 xor	 ecx, eax
  0001a	e8 00 00 00 00	 call	 @__security_check_cookie@4
  0001f	b8 00 00 00 00	 mov	 eax, OFFSET __ehfuncinfo$??$_Construct@UWeaponInfo@@ABU1@@std@@YAXPAUWeaponInfo@@ABU1@@Z
  00024	e9 00 00 00 00	 jmp	 ___CxxFrameHandler3
text$x	ENDS
??$_Construct@UWeaponInfo@@ABU1@@std@@YAXPAUWeaponInfo@@ABU1@@Z ENDP ; std::_Construct<WeaponInfo,WeaponInfo const &>
PUBLIC	??0?$CEncrypt@M@@QAE@XZ				; CEncrypt<float>::CEncrypt<float>
EXTRN	??0ccddaabb@@QAE@XZ:PROC			; ccddaabb::ccddaabb
;	COMDAT xdata$x
; File d:\lost saga for developer\youtube\tutorial\source\src\lsclient\encryptvalue.h
xdata$x	SEGMENT
__unwindtable$??0?$CEncrypt@M@@QAE@XZ DD 0ffffffffH
	DD	FLAT:__unwindfunclet$??0?$CEncrypt@M@@QAE@XZ$0
__ehfuncinfo$??0?$CEncrypt@M@@QAE@XZ DD 019930522H
	DD	01H
	DD	FLAT:__unwindtable$??0?$CEncrypt@M@@QAE@XZ
	DD	2 DUP(00H)
	DD	2 DUP(00H)
	DD	00H
	DD	01H
; Function compile flags: /Ogsp
xdata$x	ENDS
;	COMDAT ??0?$CEncrypt@M@@QAE@XZ
_TEXT	SEGMENT
_this$ = -16						; size = 4
__$EHRec$ = -12						; size = 12
??0?$CEncrypt@M@@QAE@XZ PROC				; CEncrypt<float>::CEncrypt<float>, COMDAT
; _this$ = ecx

; 109  : 	CEncrypt()

  00000	6a 04		 push	 4
  00002	b8 00 00 00 00	 mov	 eax, __ehhandler$??0?$CEncrypt@M@@QAE@XZ
  00007	e8 00 00 00 00	 call	 __EH_prolog3
  0000c	8b f1		 mov	 esi, ecx
  0000e	89 75 f0	 mov	 DWORD PTR _this$[ebp], esi
  00011	8d 4e 0c	 lea	 ecx, DWORD PTR [esi+12]
  00014	c7 06 00 00 00
	00		 mov	 DWORD PTR [esi], OFFSET ??_7?$CEncrypt@M@@6B@
  0001a	e8 00 00 00 00	 call	 ??0ccddaabb@@QAE@XZ	; ccddaabb::ccddaabb
  0001f	83 65 fc 00	 and	 DWORD PTR __$EHRec$[ebp+8], 0

; 110  : 	{
; 111  : 		Init();

  00023	8b ce		 mov	 ecx, esi
  00025	e8 00 00 00 00	 call	 ?Init@?$CEncrypt@M@@AAEXXZ ; CEncrypt<float>::Init

; 112  : 	}

  0002a	8b c6		 mov	 eax, esi
  0002c	e8 00 00 00 00	 call	 __EH_epilog3
  00031	c3		 ret	 0
_TEXT	ENDS
;	COMDAT text$x
text$x	SEGMENT
__unwindfunclet$??0?$CEncrypt@M@@QAE@XZ$0:
  00000	8b 4d f0	 mov	 ecx, DWORD PTR _this$[ebp]
  00003	83 c1 0c	 add	 ecx, 12			; 0000000cH
  00006	e9 00 00 00 00	 jmp	 ??1ccddaabb@@UAE@XZ	; ccddaabb::~ccddaabb
__ehhandler$??0?$CEncrypt@M@@QAE@XZ:
  0000b	8b 54 24 08	 mov	 edx, DWORD PTR [esp+8]
  0000f	8d 42 0c	 lea	 eax, DWORD PTR [edx+12]
  00012	8b 4a ec	 mov	 ecx, DWORD PTR [edx-20]
  00015	33 c8		 xor	 ecx, eax
  00017	e8 00 00 00 00	 call	 @__security_check_cookie@4
  0001c	b8 00 00 00 00	 mov	 eax, OFFSET __ehfuncinfo$??0?$CEncrypt@M@@QAE@XZ
  00021	e9 00 00 00 00	 jmp	 ___CxxFrameHandler3
text$x	ENDS
??0?$CEncrypt@M@@QAE@XZ ENDP				; CEncrypt<float>::CEncrypt<float>
PUBLIC	??B?$CEncrypt@M@@QAEMXZ				; CEncrypt<float>::operator float
; Function compile flags: /Ogsp
;	COMDAT ??B?$CEncrypt@M@@QAEMXZ
_TEXT	SEGMENT
_value$ = -4						; size = 4
??B?$CEncrypt@M@@QAEMXZ PROC				; CEncrypt<float>::operator float, COMDAT
; _this$ = ecx

; 134  : 	{

  00000	55		 push	 ebp
  00001	8b ec		 mov	 ebp, esp
  00003	51		 push	 ecx

; 135  : 		type value;
; 136  : 		DecryptValueToPool(&value);

  00004	8d 45 fc	 lea	 eax, DWORD PTR _value$[ebp]
  00007	50		 push	 eax
  00008	e8 00 00 00 00	 call	 ?DecryptValueToPool@?$CEncrypt@M@@QAEXPAM@Z ; CEncrypt<float>::DecryptValueToPool

; 137  : 
; 138  : #ifdef _NOTUSE
; 139  : 		Debug();
; 140  : #endif
; 141  : 		return value;

  0000d	d9 45 fc	 fld	 DWORD PTR _value$[ebp]

; 142  : 	}

  00010	c9		 leave
  00011	c3		 ret	 0
??B?$CEncrypt@M@@QAEMXZ ENDP				; CEncrypt<float>::operator float
_TEXT	ENDS
PUBLIC	??B?$CEncrypt@M@@QBEMXZ				; CEncrypt<float>::operator float
; Function compile flags: /Ogsp
;	COMDAT ??B?$CEncrypt@M@@QBEMXZ
_TEXT	SEGMENT
_value$ = -4						; size = 4
??B?$CEncrypt@M@@QBEMXZ PROC				; CEncrypt<float>::operator float, COMDAT
; _this$ = ecx

; 145  : 	{

  00000	55		 push	 ebp
  00001	8b ec		 mov	 ebp, esp
  00003	51		 push	 ecx

; 146  : 		//UJ 130829, const    --start
; 147  : 		type value;
; 148  : 		CEncrypt<type>* pThis = const_cast<CEncrypt<type>*>(this);
; 149  : 		pThis->DecryptValueToPool(&value);

  00004	8d 45 fc	 lea	 eax, DWORD PTR _value$[ebp]
  00007	50		 push	 eax
  00008	e8 00 00 00 00	 call	 ?DecryptValueToPool@?$CEncrypt@M@@QAEXPAM@Z ; CEncrypt<float>::DecryptValueToPool

; 150  : 		//// const DecryptValueToPool     .
; 151  :  		//type value;
; 152  : 		//char szTempMem[MAX_ENCRYPT];
; 153  : 		//m_RC5.DecryptByte( m_MemPool, szTempMem, max(m_ValueSize, DEFAULT_ENCRYPT) );
; 154  : 		//memcpy( &value, szTempMem, m_ValueSize );
; 155  : 		//UJ --end
; 156  : 
; 157  : #ifdef _NOTUSE
; 158  : 		Debug();
; 159  : #endif
; 160  : 		return value;

  0000d	d9 45 fc	 fld	 DWORD PTR _value$[ebp]

; 161  : 	}

  00010	c9		 leave
  00011	c3		 ret	 0
??B?$CEncrypt@M@@QBEMXZ ENDP				; CEncrypt<float>::operator float
_TEXT	ENDS
PUBLIC	??4?$CEncrypt@M@@QAEMM@Z			; CEncrypt<float>::operator=
; Function compile flags: /Ogsp
;	COMDAT ??4?$CEncrypt@M@@QAEMM@Z
_TEXT	SEGMENT
_value$ = 8						; size = 4
_inValue$ = 8						; size = 4
??4?$CEncrypt@M@@QAEMM@Z PROC				; CEncrypt<float>::operator=, COMDAT
; _this$ = ecx

; 1654 : 	{	

  00000	55		 push	 ebp
  00001	8b ec		 mov	 ebp, esp

; 1655 : 		type value = inValue;

  00003	d9 45 08	 fld	 DWORD PTR _inValue$[ebp]

; 1656 : 		EncryptValueToPool((char*)&value);

  00006	8d 45 08	 lea	 eax, DWORD PTR _value$[ebp]
  00009	50		 push	 eax
  0000a	d9 5d 08	 fstp	 DWORD PTR _value$[ebp]
  0000d	e8 00 00 00 00	 call	 ?EncryptValueToPool@?$CEncrypt@M@@AAEXPBD@Z ; CEncrypt<float>::EncryptValueToPool

; 1657 : #ifdef _NOTUSE
; 1658 : 		m_value = inValue;
; 1659 : 		Debug();
; 1660 : #endif
; 1661 : 		return value;

  00012	d9 45 08	 fld	 DWORD PTR _value$[ebp]

; 1662 : 	}

  00015	5d		 pop	 ebp
  00016	c2 04 00	 ret	 4
??4?$CEncrypt@M@@QAEMM@Z ENDP				; CEncrypt<float>::operator=
_TEXT	ENDS
PUBLIC	??B?$CEncrypt@_N@@QBE_NXZ			; CEncrypt<bool>::operator bool
; Function compile flags: /Ogsp
;	COMDAT ??B?$CEncrypt@_N@@QBE_NXZ
_TEXT	SEGMENT
_value$ = -1						; size = 1
??B?$CEncrypt@_N@@QBE_NXZ PROC				; CEncrypt<bool>::operator bool, COMDAT
; _this$ = ecx

; 145  : 	{

  00000	55		 push	 ebp
  00001	8b ec		 mov	 ebp, esp
  00003	51		 push	 ecx

; 146  : 		//UJ 130829, const    --start
; 147  : 		type value;
; 148  : 		CEncrypt<type>* pThis = const_cast<CEncrypt<type>*>(this);
; 149  : 		pThis->DecryptValueToPool(&value);

  00004	8d 45 ff	 lea	 eax, DWORD PTR _value$[ebp]
  00007	50		 push	 eax
  00008	e8 00 00 00 00	 call	 ?DecryptValueToPool@?$CEncrypt@_N@@QAEXPA_N@Z ; CEncrypt<bool>::DecryptValueToPool

; 150  : 		//// const DecryptValueToPool     .
; 151  :  		//type value;
; 152  : 		//char szTempMem[MAX_ENCRYPT];
; 153  : 		//m_RC5.DecryptByte( m_MemPool, szTempMem, max(m_ValueSize, DEFAULT_ENCRYPT) );
; 154  : 		//memcpy( &value, szTempMem, m_ValueSize );
; 155  : 		//UJ --end
; 156  : 
; 157  : #ifdef _NOTUSE
; 158  : 		Debug();
; 159  : #endif
; 160  : 		return value;

  0000d	8a 45 ff	 mov	 al, BYTE PTR _value$[ebp]

; 161  : 	}

  00010	c9		 leave
  00011	c3		 ret	 0
??B?$CEncrypt@_N@@QBE_NXZ ENDP				; CEncrypt<bool>::operator bool
_TEXT	ENDS
PUBLIC	??0?$_Vector_val@UWeaponInfo@@V?$allocator@UWeaponInfo@@@std@@@std@@QAE@V?$allocator@UWeaponInfo@@@1@@Z ; std::_Vector_val<WeaponInfo,std::allocator<WeaponInfo> >::_Vector_val<WeaponInfo,std::allocator<WeaponInfo> >
; Function compile flags: /Ogsp
; File c:\program files (x86)\microsoft visual studio 10.0\vc\include\vector
;	COMDAT ??0?$_Vector_val@UWeaponInfo@@V?$allocator@UWeaponInfo@@@std@@@std@@QAE@V?$allocator@UWeaponInfo@@@1@@Z
_TEXT	SEGMENT
__Al$ = 8						; size = 1
??0?$_Vector_val@UWeaponInfo@@V?$allocator@UWeaponInfo@@@std@@@std@@QAE@V?$allocator@UWeaponInfo@@@1@@Z PROC ; std::_Vector_val<WeaponInfo,std::allocator<WeaponInfo> >::_Vector_val<WeaponInfo,std::allocator<WeaponInfo> >, COMDAT
; _this$ = ecx

; 426  : 		{	// construct allocator from _Al

  00000	8b c1		 mov	 eax, ecx

; 427  : 		_Myfirst = 0;

  00002	33 c9		 xor	 ecx, ecx
  00004	89 08		 mov	 DWORD PTR [eax], ecx

; 428  : 		_Mylast = 0;

  00006	89 48 04	 mov	 DWORD PTR [eax+4], ecx

; 429  : 		_Myend = 0;

  00009	89 48 08	 mov	 DWORD PTR [eax+8], ecx

; 430  : 		}

  0000c	c2 04 00	 ret	 4
??0?$_Vector_val@UWeaponInfo@@V?$allocator@UWeaponInfo@@@std@@@std@@QAE@V?$allocator@UWeaponInfo@@@1@@Z ENDP ; std::_Vector_val<WeaponInfo,std::allocator<WeaponInfo> >::_Vector_val<WeaponInfo,std::allocator<WeaponInfo> >
_TEXT	ENDS
PUBLIC	??0?$_Vector_val@UForceInfo@@V?$allocator@UForceInfo@@@std@@@std@@QAE@V?$allocator@UForceInfo@@@1@@Z ; std::_Vector_val<ForceInfo,std::allocator<ForceInfo> >::_Vector_val<ForceInfo,std::allocator<ForceInfo> >
; Function compile flags: /Ogsp
;	COMDAT ??0?$_Vector_val@UForceInfo@@V?$allocator@UForceInfo@@@std@@@std@@QAE@V?$allocator@UForceInfo@@@1@@Z
_TEXT	SEGMENT
__Al$ = 8						; size = 1
??0?$_Vector_val@UForceInfo@@V?$allocator@UForceInfo@@@std@@@std@@QAE@V?$allocator@UForceInfo@@@1@@Z PROC ; std::_Vector_val<ForceInfo,std::allocator<ForceInfo> >::_Vector_val<ForceInfo,std::allocator<ForceInfo> >, COMDAT
; _this$ = ecx

; 426  : 		{	// construct allocator from _Al

  00000	8b c1		 mov	 eax, ecx

; 427  : 		_Myfirst = 0;

  00002	33 c9		 xor	 ecx, ecx
  00004	89 08		 mov	 DWORD PTR [eax], ecx

; 428  : 		_Mylast = 0;

  00006	89 48 04	 mov	 DWORD PTR [eax+4], ecx

; 429  : 		_Myend = 0;

  00009	89 48 08	 mov	 DWORD PTR [eax+8], ecx

; 430  : 		}

  0000c	c2 04 00	 ret	 4
??0?$_Vector_val@UForceInfo@@V?$allocator@UForceInfo@@@std@@@std@@QAE@V?$allocator@UForceInfo@@@1@@Z ENDP ; std::_Vector_val<ForceInfo,std::allocator<ForceInfo> >::_Vector_val<ForceInfo,std::allocator<ForceInfo> >
_TEXT	ENDS
PUBLIC	?max_size@?$vector@UWeaponInfo@@V?$allocator@UWeaponInfo@@@std@@@std@@QBEIXZ ; std::vector<WeaponInfo,std::allocator<WeaponInfo> >::max_size
; Function compile flags: /Ogsp
;	COMDAT ?max_size@?$vector@UWeaponInfo@@V?$allocator@UWeaponInfo@@@std@@@std@@QBEIXZ
_TEXT	SEGMENT
?max_size@?$vector@UWeaponInfo@@V?$allocator@UWeaponInfo@@@std@@@std@@QBEIXZ PROC ; std::vector<WeaponInfo,std::allocator<WeaponInfo> >::max_size, COMDAT
; _this$ = ecx

; 884  : 		return (this->_Alval.max_size());

  00000	b8 66 66 66 06	 mov	 eax, 107374182		; 06666666H

; 885  : 		}

  00005	c3		 ret	 0
?max_size@?$vector@UWeaponInfo@@V?$allocator@UWeaponInfo@@@std@@@std@@QBEIXZ ENDP ; std::vector<WeaponInfo,std::allocator<WeaponInfo> >::max_size
_TEXT	ENDS
PUBLIC	?allocate@?$allocator@UWeaponInfo@@@std@@QAEPAUWeaponInfo@@I@Z ; std::allocator<WeaponInfo>::allocate
; Function compile flags: /Ogsp
; File c:\program files (x86)\microsoft visual studio 10.0\vc\include\xmemory
;	COMDAT ?allocate@?$allocator@UWeaponInfo@@@std@@QAEPAUWeaponInfo@@I@Z
_TEXT	SEGMENT
__Count$ = 8						; size = 4
?allocate@?$allocator@UWeaponInfo@@@std@@QAEPAUWeaponInfo@@I@Z PROC ; std::allocator<WeaponInfo>::allocate, COMDAT
; _this$ = ecx

; 186  : 		{	// allocate array of _Count elements

  00000	55		 push	 ebp
  00001	8b ec		 mov	 ebp, esp

; 187  : 		return (_Allocate(_Count, (pointer)0));

  00003	6a 00		 push	 0
  00005	ff 75 08	 push	 DWORD PTR __Count$[ebp]
  00008	e8 00 00 00 00	 call	 ??$_Allocate@UWeaponInfo@@@std@@YAPAUWeaponInfo@@IPAU1@@Z ; std::_Allocate<WeaponInfo>
  0000d	59		 pop	 ecx
  0000e	59		 pop	 ecx

; 188  : 		}

  0000f	5d		 pop	 ebp
  00010	c2 04 00	 ret	 4
?allocate@?$allocator@UWeaponInfo@@@std@@QAEPAUWeaponInfo@@I@Z ENDP ; std::allocator<WeaponInfo>::allocate
_TEXT	ENDS
PUBLIC	?max_size@?$vector@UForceInfo@@V?$allocator@UForceInfo@@@std@@@std@@QBEIXZ ; std::vector<ForceInfo,std::allocator<ForceInfo> >::max_size
; Function compile flags: /Ogsp
; File c:\program files (x86)\microsoft visual studio 10.0\vc\include\vector
;	COMDAT ?max_size@?$vector@UForceInfo@@V?$allocator@UForceInfo@@@std@@@std@@QBEIXZ
_TEXT	SEGMENT
?max_size@?$vector@UForceInfo@@V?$allocator@UForceInfo@@@std@@@std@@QBEIXZ PROC ; std::vector<ForceInfo,std::allocator<ForceInfo> >::max_size, COMDAT
; _this$ = ecx

; 884  : 		return (this->_Alval.max_size());

  00000	b8 55 55 55 15	 mov	 eax, 357913941		; 15555555H

; 885  : 		}

  00005	c3		 ret	 0
?max_size@?$vector@UForceInfo@@V?$allocator@UForceInfo@@@std@@@std@@QBEIXZ ENDP ; std::vector<ForceInfo,std::allocator<ForceInfo> >::max_size
_TEXT	ENDS
PUBLIC	?allocate@?$allocator@UForceInfo@@@std@@QAEPAUForceInfo@@I@Z ; std::allocator<ForceInfo>::allocate
; Function compile flags: /Ogsp
; File c:\program files (x86)\microsoft visual studio 10.0\vc\include\xmemory
;	COMDAT ?allocate@?$allocator@UForceInfo@@@std@@QAEPAUForceInfo@@I@Z
_TEXT	SEGMENT
__Count$ = 8						; size = 4
?allocate@?$allocator@UForceInfo@@@std@@QAEPAUForceInfo@@I@Z PROC ; std::allocator<ForceInfo>::allocate, COMDAT
; _this$ = ecx

; 186  : 		{	// allocate array of _Count elements

  00000	55		 push	 ebp
  00001	8b ec		 mov	 ebp, esp

; 187  : 		return (_Allocate(_Count, (pointer)0));

  00003	6a 00		 push	 0
  00005	ff 75 08	 push	 DWORD PTR __Count$[ebp]
  00008	e8 00 00 00 00	 call	 ??$_Allocate@UForceInfo@@@std@@YAPAUForceInfo@@IPAU1@@Z ; std::_Allocate<ForceInfo>
  0000d	59		 pop	 ecx
  0000e	59		 pop	 ecx

; 188  : 		}

  0000f	5d		 pop	 ebp
  00010	c2 04 00	 ret	 4
?allocate@?$allocator@UForceInfo@@@std@@QAEPAUForceInfo@@I@Z ENDP ; std::allocator<ForceInfo>::allocate
_TEXT	ENDS
PUBLIC	??8?$_Vector_const_iterator@V?$_Vector_val@UWeaponInfo@@V?$allocator@UWeaponInfo@@@std@@@std@@@std@@QBE_NABV01@@Z ; std::_Vector_const_iterator<std::_Vector_val<WeaponInfo,std::allocator<WeaponInfo> > >::operator==
; Function compile flags: /Ogsp
; File c:\program files (x86)\microsoft visual studio 10.0\vc\include\vector
;	COMDAT ??8?$_Vector_const_iterator@V?$_Vector_val@UWeaponInfo@@V?$allocator@UWeaponInfo@@@std@@@std@@@std@@QBE_NABV01@@Z
_TEXT	SEGMENT
__Right$ = 8						; size = 4
??8?$_Vector_const_iterator@V?$_Vector_val@UWeaponInfo@@V?$allocator@UWeaponInfo@@@std@@@std@@@std@@QBE_NABV01@@Z PROC ; std::_Vector_const_iterator<std::_Vector_val<WeaponInfo,std::allocator<WeaponInfo> > >::operator==, COMDAT
; _this$ = ecx

; 201  : 		{	// test for iterator equality

  00000	55		 push	 ebp
  00001	8b ec		 mov	 ebp, esp

; 202  : 		_Compat(_Right);
; 203  : 		return (this->_Ptr == _Right._Ptr);

  00003	8b 01		 mov	 eax, DWORD PTR [ecx]
  00005	8b 4d 08	 mov	 ecx, DWORD PTR __Right$[ebp]
  00008	2b 01		 sub	 eax, DWORD PTR [ecx]
  0000a	f7 d8		 neg	 eax
  0000c	1b c0		 sbb	 eax, eax
  0000e	40		 inc	 eax

; 204  : 		}

  0000f	5d		 pop	 ebp
  00010	c2 04 00	 ret	 4
??8?$_Vector_const_iterator@V?$_Vector_val@UWeaponInfo@@V?$allocator@UWeaponInfo@@@std@@@std@@@std@@QBE_NABV01@@Z ENDP ; std::_Vector_const_iterator<std::_Vector_val<WeaponInfo,std::allocator<WeaponInfo> > >::operator==
_TEXT	ENDS
PUBLIC	??8?$_Vector_const_iterator@V?$_Vector_val@UForceInfo@@V?$allocator@UForceInfo@@@std@@@std@@@std@@QBE_NABV01@@Z ; std::_Vector_const_iterator<std::_Vector_val<ForceInfo,std::allocator<ForceInfo> > >::operator==
; Function compile flags: /Ogsp
;	COMDAT ??8?$_Vector_const_iterator@V?$_Vector_val@UForceInfo@@V?$allocator@UForceInfo@@@std@@@std@@@std@@QBE_NABV01@@Z
_TEXT	SEGMENT
__Right$ = 8						; size = 4
??8?$_Vector_const_iterator@V?$_Vector_val@UForceInfo@@V?$allocator@UForceInfo@@@std@@@std@@@std@@QBE_NABV01@@Z PROC ; std::_Vector_const_iterator<std::_Vector_val<ForceInfo,std::allocator<ForceInfo> > >::operator==, COMDAT
; _this$ = ecx

; 201  : 		{	// test for iterator equality

  00000	55		 push	 ebp
  00001	8b ec		 mov	 ebp, esp

; 202  : 		_Compat(_Right);
; 203  : 		return (this->_Ptr == _Right._Ptr);

  00003	8b 01		 mov	 eax, DWORD PTR [ecx]
  00005	8b 4d 08	 mov	 ecx, DWORD PTR __Right$[ebp]
  00008	2b 01		 sub	 eax, DWORD PTR [ecx]
  0000a	f7 d8		 neg	 eax
  0000c	1b c0		 sbb	 eax, eax
  0000e	40		 inc	 eax

; 204  : 		}

  0000f	5d		 pop	 ebp
  00010	c2 04 00	 ret	 4
??8?$_Vector_const_iterator@V?$_Vector_val@UForceInfo@@V?$allocator@UForceInfo@@@std@@@std@@@std@@QBE_NABV01@@Z ENDP ; std::_Vector_const_iterator<std::_Vector_val<ForceInfo,std::allocator<ForceInfo> > >::operator==
_TEXT	ENDS
PUBLIC	?destroy@?$allocator@UForceInfo@@@std@@QAEXPAUForceInfo@@@Z ; std::allocator<ForceInfo>::destroy
; Function compile flags: /Ogsp
; File c:\program files (x86)\microsoft visual studio 10.0\vc\include\xmemory
;	COMDAT ?destroy@?$allocator@UForceInfo@@@std@@QAEXPAUForceInfo@@@Z
_TEXT	SEGMENT
__Ptr$ = 8						; size = 4
?destroy@?$allocator@UForceInfo@@@std@@QAEXPAUForceInfo@@@Z PROC ; std::allocator<ForceInfo>::destroy, COMDAT
; _this$ = ecx

; 213  : 		_Destroy(_Ptr);
; 214  : 		}

  00000	c2 04 00	 ret	 4
?destroy@?$allocator@UForceInfo@@@std@@QAEXPAUForceInfo@@@Z ENDP ; std::allocator<ForceInfo>::destroy
_TEXT	ENDS
PUBLIC	??$_Destroy@UWeaponInfo@@@std@@YAXPAUWeaponInfo@@@Z ; std::_Destroy<WeaponInfo>
; Function compile flags: /Ogsp
;	COMDAT ??$_Destroy@UWeaponInfo@@@std@@YAXPAUWeaponInfo@@@Z
_TEXT	SEGMENT
__Ptr$ = 8						; size = 4
??$_Destroy@UWeaponInfo@@@std@@YAXPAUWeaponInfo@@@Z PROC ; std::_Destroy<WeaponInfo>, COMDAT

; 62   : 	{	// destroy object at _Ptr

  00000	55		 push	 ebp
  00001	8b ec		 mov	 ebp, esp

; 63   : 	_Ptr->~_Ty();

  00003	8b 4d 08	 mov	 ecx, DWORD PTR __Ptr$[ebp]
  00006	83 c1 08	 add	 ecx, 8

; 64   : 	}

  00009	5d		 pop	 ebp

; 63   : 	_Ptr->~_Ty();

  0000a	ff 25 00 00 00
	00		 jmp	 DWORD PTR __imp_??1ioHashString@@QAE@XZ
??$_Destroy@UWeaponInfo@@@std@@YAXPAUWeaponInfo@@@Z ENDP ; std::_Destroy<WeaponInfo>
_TEXT	ENDS
PUBLIC	?IsPrisonerMode@ioBaseChar@@QBE_NXZ		; ioBaseChar::IsPrisonerMode
; Function compile flags: /Ogsp
; File d:\lost saga for developer\youtube\tutorial\source\src\lsclient\iobasechar.h
;	COMDAT ?IsPrisonerMode@ioBaseChar@@QBE_NXZ
_TEXT	SEGMENT
_value$528579 = -1					; size = 1
?IsPrisonerMode@ioBaseChar@@QBE_NXZ PROC		; ioBaseChar::IsPrisonerMode, COMDAT
; _this$ = ecx

; 2130 : 	inline bool IsPrisonerMode() const { return m_bPrisonerMode; }

  00000	55		 push	 ebp
  00001	8b ec		 mov	 ebp, esp
  00003	51		 push	 ecx
  00004	8d 45 ff	 lea	 eax, DWORD PTR _value$528579[ebp]
  00007	50		 push	 eax
  00008	81 c1 cc 14 00
	00		 add	 ecx, 5324		; 000014ccH
  0000e	e8 00 00 00 00	 call	 ?DecryptValueToPool@?$CEncrypt@_N@@QAEXPA_N@Z ; CEncrypt<bool>::DecryptValueToPool
  00013	8a 45 ff	 mov	 al, BYTE PTR _value$528579[ebp]
  00016	c9		 leave
  00017	c3		 ret	 0
?IsPrisonerMode@ioBaseChar@@QBE_NXZ ENDP		; ioBaseChar::IsPrisonerMode
_TEXT	ENDS
PUBLIC	?SetGravityAmt@ioBaseChar@@QAEXM@Z		; ioBaseChar::SetGravityAmt
; Function compile flags: /Ogsp
;	COMDAT ?SetGravityAmt@ioBaseChar@@QAEXM@Z
_TEXT	SEGMENT
_value$528586 = 8					; size = 4
_fAmt$ = 8						; size = 4
?SetGravityAmt@ioBaseChar@@QAEXM@Z PROC			; ioBaseChar::SetGravityAmt, COMDAT
; _this$ = ecx

; 2631 : 	inline void SetGravityAmt( float fAmt ) { m_fGravityAmt = fAmt; }

  00000	55		 push	 ebp
  00001	8b ec		 mov	 ebp, esp
  00003	f3 0f 10 45 08	 movss	 xmm0, DWORD PTR _fAmt$[ebp]
  00008	8d 45 08	 lea	 eax, DWORD PTR _value$528586[ebp]
  0000b	50		 push	 eax
  0000c	81 c1 e8 0b 00
	00		 add	 ecx, 3048		; 00000be8H
  00012	f3 0f 11 45 08	 movss	 DWORD PTR _value$528586[ebp], xmm0
  00017	e8 00 00 00 00	 call	 ?EncryptValueToPool@?$CEncrypt@M@@AAEXPBD@Z ; CEncrypt<float>::EncryptValueToPool
  0001c	5d		 pop	 ebp
  0001d	c2 04 00	 ret	 4
?SetGravityAmt@ioBaseChar@@QAEXM@Z ENDP			; ioBaseChar::SetGravityAmt
_TEXT	ENDS
PUBLIC	?SetForcePowerAmt@ioBaseChar@@QAEXM@Z		; ioBaseChar::SetForcePowerAmt
; Function compile flags: /Ogsp
;	COMDAT ?SetForcePowerAmt@ioBaseChar@@QAEXM@Z
_TEXT	SEGMENT
_value$528592 = 8					; size = 4
_fAmt$ = 8						; size = 4
?SetForcePowerAmt@ioBaseChar@@QAEXM@Z PROC		; ioBaseChar::SetForcePowerAmt, COMDAT
; _this$ = ecx

; 2641 : 	inline void SetForcePowerAmt( float fAmt ) { m_fForceAmt = fAmt; }

  00000	55		 push	 ebp
  00001	8b ec		 mov	 ebp, esp
  00003	f3 0f 10 45 08	 movss	 xmm0, DWORD PTR _fAmt$[ebp]
  00008	8d 45 08	 lea	 eax, DWORD PTR _value$528592[ebp]
  0000b	50		 push	 eax
  0000c	81 c1 88 0b 00
	00		 add	 ecx, 2952		; 00000b88H
  00012	f3 0f 11 45 08	 movss	 DWORD PTR _value$528592[ebp], xmm0
  00017	e8 00 00 00 00	 call	 ?EncryptValueToPool@?$CEncrypt@M@@AAEXPBD@Z ; CEncrypt<float>::EncryptValueToPool
  0001c	5d		 pop	 ebp
  0001d	c2 04 00	 ret	 4
?SetForcePowerAmt@ioBaseChar@@QAEXM@Z ENDP		; ioBaseChar::SetForcePowerAmt
_TEXT	ENDS
PUBLIC	__$ArrayPad$
PUBLIC	?LoadProperty@ioPowerChargeJump@@UAEXAAVioINILoader@@@Z ; ioPowerChargeJump::LoadProperty
EXTRN	?Init@AttackAttribute@@QAEXXZ:PROC		; AttackAttribute::Init
EXTRN	__imp_??4ioHashString@@QAEAAV0@PBD@Z:PROC
EXTRN	?LoadProperty@ioExtendJump@@UAEXAAVioINILoader@@@Z:PROC ; ioExtendJump::LoadProperty
EXTRN	_memset:PROC
; Function compile flags: /Ogsp
; File d:\lost saga for developer\youtube\tutorial\source\src\lsclient\iopowerchargejump.cpp
;	COMDAT ?LoadProperty@ioPowerChargeJump@@UAEXAAVioINILoader@@@Z
_TEXT	SEGMENT
tv15128 = -300						; size = 4
tv15078 = -300						; size = 4
_i$530349 = -300					; size = 4
_value$529478 = -300					; size = 4
_szBuf$ = -296						; size = 260
__k$529365 = -36					; size = 25
__k$529128 = -36					; size = 25
__k$529003 = -36					; size = 28
__k$530512 = -32					; size = 23
__k$530374 = -32					; size = 22
__k$530249 = -32					; size = 24
__k$529267 = -32					; size = 21
__k$528615 = -32					; size = 22
__k$530158 = -28					; size = 19
_szEncAttack$530008 = -28				; size = 17
__k$529758 = -28					; size = 17
_szEncAttack$529633 = -28				; size = 19
__k$528865 = -28					; size = 19
__k$528740 = -28					; size = 17
__k$529883 = -24					; size = 15
_szEncAttack$529508 = -20				; size = 12
__$ArrayPad$ = -4					; size = 4
_rkLoader$ = 8						; size = 4
?LoadProperty@ioPowerChargeJump@@UAEXAAVioINILoader@@@Z PROC ; ioPowerChargeJump::LoadProperty, COMDAT
; _this$ = ecx

; 64   : {

  00000	55		 push	 ebp
  00001	8b ec		 mov	 ebp, esp
  00003	81 ec 2c 01 00
	00		 sub	 esp, 300		; 0000012cH
  00009	a1 00 00 00 00	 mov	 eax, DWORD PTR ___security_cookie
  0000e	33 c5		 xor	 eax, ebp
  00010	89 45 fc	 mov	 DWORD PTR __$ArrayPad$[ebp], eax
  00013	53		 push	 ebx
  00014	56		 push	 esi
  00015	57		 push	 edi
  00016	8b 7d 08	 mov	 edi, DWORD PTR _rkLoader$[ebp]

; 65   : 	ioExtendJump::LoadProperty( rkLoader );

  00019	57		 push	 edi
  0001a	8b f1		 mov	 esi, ecx
  0001c	e8 00 00 00 00	 call	 ?LoadProperty@ioExtendJump@@UAEXAAVioINILoader@@@Z ; ioExtendJump::LoadProperty

; 66   : 
; 67   : 	char szBuf[MAX_PATH] = "";

  00021	33 db		 xor	 ebx, ebx
  00023	68 03 01 00 00	 push	 259			; 00000103H
  00028	8d 85 d9 fe ff
	ff		 lea	 eax, DWORD PTR _szBuf$[ebp+1]
  0002e	53		 push	 ebx
  0002f	50		 push	 eax
  00030	88 9d d8 fe ff
	ff		 mov	 BYTE PTR _szBuf$[ebp], bl
  00036	e8 00 00 00 00	 call	 _memset
  0003b	83 c4 0c	 add	 esp, 12			; 0000000cH

; 68   : 	char szKey[MAX_PATH] = "";
; 69   : 
; 70   : 	//
; 71   : 	m_fExtraJumpPowerRate = rkLoader.LoadFloat_e( "jump_extra_power_rate", FLOAT1 );

  0003e	b8 01 00 00 00	 mov	 eax, 1
  00043	6a 05		 push	 5
  00045	c7 45 e0 87 99
	86 9a		 mov	 DWORD PTR __k$528615[ebp], -1702454905 ; 9a869987H
  0004c	c7 45 e4 b2 89
	93 9e		 mov	 DWORD PTR __k$528615[ebp+4], -1634498126 ; 9e9389b2H
  00053	c7 45 e8 9f 8d
	b4 9a		 mov	 DWORD PTR __k$528615[ebp+8], -1699443297 ; 9ab48d9fH
  0005a	c7 45 ec 82 9b
	8e 98		 mov	 DWORD PTR __k$528615[ebp+12], -1735484542 ; 988e9b82H
  00061	c7 45 f0 b2 9e
	8a 9e		 mov	 DWORD PTR __k$528615[ebp+16], -1635082574 ; 9e8a9eb2H
  00068	8d 4d e0	 lea	 ecx, DWORD PTR __k$528615[ebp]
  0006b	66 c7 45 f4 88
	00		 mov	 WORD PTR __k$528615[ebp+20], 136 ; 00000088H
  00071	5a		 pop	 edx
$LL108@LoadProper:
  00072	81 31 ed ec eb
	ea		 xor	 DWORD PTR [ecx], -353637139 ; eaebecedH
  00078	83 c1 04	 add	 ecx, 4
  0007b	4a		 dec	 edx
  0007c	75 f4		 jne	 SHORT $LL108@LoadProper
  0007e	80 75 f4 ed	 xor	 BYTE PTR __k$528615[ebp+20], -19 ; ffffffedH
  00082	89 85 d4 fe ff
	ff		 mov	 DWORD PTR tv15128[ebp], eax
  00088	db 85 d4 fe ff
	ff		 fild	 DWORD PTR tv15128[ebp]
  0008e	85 c0		 test	 eax, eax
  00090	79 06		 jns	 SHORT $LN1769@LoadProper
  00092	d8 05 00 00 00
	00		 fadd	 DWORD PTR __real@4f800000
$LN1769@LoadProper:
  00098	51		 push	 ecx
  00099	8d 45 e0	 lea	 eax, DWORD PTR __k$528615[ebp]
  0009c	d9 1c 24	 fstp	 DWORD PTR [esp]
  0009f	50		 push	 eax
  000a0	8b cf		 mov	 ecx, edi
  000a2	ff 15 00 00 00
	00		 call	 DWORD PTR __imp_?LoadFloat@ioINILoader@@QAEMPBDM@Z
  000a8	d9 9e 78 02 00
	00		 fstp	 DWORD PTR [esi+632]
  000ae	6a 04		 push	 4

; 72   : 	m_dwJumpChargeTime = rkLoader.LoadInt_e( "jump_charge_time", 0 );

  000b0	c7 45 e4 87 99
	86 9a		 mov	 DWORD PTR __k$528740[ebp], -1702454905 ; 9a869987H
  000b7	c7 45 e8 b2 8f
	83 8b		 mov	 DWORD PTR __k$528740[ebp+4], -1954312270 ; 8b838fb2H
  000be	c7 45 ec 9f 8b
	8e b5		 mov	 DWORD PTR __k$528740[ebp+8], -1248949345 ; b58e8b9fH
  000c5	c7 45 f0 99 85
	86 8f		 mov	 DWORD PTR __k$528740[ebp+12], -1887009383 ; 8f868599H
  000cc	8d 45 e4	 lea	 eax, DWORD PTR __k$528740[ebp]
  000cf	88 5d f4	 mov	 BYTE PTR __k$528740[ebp+16], bl
  000d2	59		 pop	 ecx
$LL214@LoadProper:
  000d3	81 30 ed ec eb
	ea		 xor	 DWORD PTR [eax], -353637139 ; eaebecedH
  000d9	83 c0 04	 add	 eax, 4
  000dc	49		 dec	 ecx
  000dd	75 f4		 jne	 SHORT $LL214@LoadProper
  000df	53		 push	 ebx
  000e0	8d 45 e4	 lea	 eax, DWORD PTR __k$528740[ebp]
  000e3	50		 push	 eax
  000e4	8b cf		 mov	 ecx, edi
  000e6	ff 15 00 00 00
	00		 call	 DWORD PTR __imp_?LoadInt@ioINILoader@@QAEHPBDH@Z
  000ec	6a 04		 push	 4
  000ee	89 86 7c 02 00
	00		 mov	 DWORD PTR [esi+636], eax

; 73   : 
; 74   : 	// charging
; 75   : 	m_dwChargingTime = rkLoader.LoadInt_e( "jump_charging_time", 0 );

  000f4	c7 45 e4 87 99
	86 9a		 mov	 DWORD PTR __k$528865[ebp], -1702454905 ; 9a869987H
  000fb	c7 45 e8 b2 8f
	83 8b		 mov	 DWORD PTR __k$528865[ebp+4], -1954312270 ; 8b838fb2H
  00102	c7 45 ec 9f 8b
	82 84		 mov	 DWORD PTR __k$528865[ebp+8], -2071819361 ; 84828b9fH
  00109	c7 45 f0 8a b3
	9f 83		 mov	 DWORD PTR __k$528865[ebp+12], -2086685814 ; 839fb38aH
  00110	66 c7 45 f4 80
	89		 mov	 WORD PTR __k$528865[ebp+16], 35200 ; 00008980H
  00116	8d 45 e4	 lea	 eax, DWORD PTR __k$528865[ebp]
  00119	88 5d f6	 mov	 BYTE PTR __k$528865[ebp+18], bl
  0011c	59		 pop	 ecx
$LL320@LoadProper:
  0011d	81 30 ed ec eb
	ea		 xor	 DWORD PTR [eax], -353637139 ; eaebecedH
  00123	83 c0 04	 add	 eax, 4
  00126	49		 dec	 ecx
  00127	75 f4		 jne	 SHORT $LL320@LoadProper
  00129	6a 10		 push	 16			; 00000010H
  0012b	58		 pop	 eax
$LL317@LoadProper:
  0012c	8b c8		 mov	 ecx, eax
  0012e	81 e1 03 00 00
	80		 and	 ecx, -2147483645	; 80000003H
  00134	79 05		 jns	 SHORT $LN1770@LoadProper
  00136	49		 dec	 ecx
  00137	83 c9 fc	 or	 ecx, -4			; fffffffcH
  0013a	41		 inc	 ecx
$LN1770@LoadProper:
  0013b	b2 ed		 mov	 dl, -19			; ffffffedH
  0013d	2a d1		 sub	 dl, cl
  0013f	30 54 05 e4	 xor	 BYTE PTR __k$528865[ebp+eax], dl
  00143	40		 inc	 eax
  00144	83 f8 12	 cmp	 eax, 18			; 00000012H
  00147	7c e3		 jl	 SHORT $LL317@LoadProper
  00149	53		 push	 ebx
  0014a	8d 45 e4	 lea	 eax, DWORD PTR __k$528865[ebp]
  0014d	50		 push	 eax
  0014e	8b cf		 mov	 ecx, edi
  00150	ff 15 00 00 00
	00		 call	 DWORD PTR __imp_?LoadInt@ioINILoader@@QAEHPBDH@Z
  00156	6a 06		 push	 6
  00158	89 86 20 02 00
	00		 mov	 DWORD PTR [esi+544], eax

; 76   : 	rkLoader.LoadString_e( "jump_attack_ready_animation", "", szBuf, MAX_PATH );

  0015e	c7 45 dc 87 99
	86 9a		 mov	 DWORD PTR __k$529003[ebp], -1702454905 ; 9a869987H
  00165	c7 45 e0 b2 8d
	9f 9e		 mov	 DWORD PTR __k$529003[ebp+4], -1633710670 ; 9e9f8db2H
  0016c	c7 45 e4 8c 8f
	80 b5		 mov	 DWORD PTR __k$529003[ebp+8], -1249865844 ; b5808f8cH
  00173	c7 45 e8 9f 89
	8a 8e		 mov	 DWORD PTR __k$529003[ebp+12], -1903523425 ; 8e8a899fH
  0017a	c7 45 ec 94 b3
	8a 84		 mov	 DWORD PTR __k$529003[ebp+16], -2071284844 ; 848ab394H
  00181	c7 45 f0 84 81
	8a 9e		 mov	 DWORD PTR __k$529003[ebp+20], -1635090044 ; 9e8a8184H
  00188	8d 45 dc	 lea	 eax, DWORD PTR __k$529003[ebp]
  0018b	c7 45 f4 84 83
	85 00		 mov	 DWORD PTR __k$529003[ebp+24], 8749956 ; 00858384H
  00192	59		 pop	 ecx
$LL426@LoadProper:
  00193	81 30 ed ec eb
	ea		 xor	 DWORD PTR [eax], -353637139 ; eaebecedH
  00199	83 c0 04	 add	 eax, 4
  0019c	49		 dec	 ecx
  0019d	75 f4		 jne	 SHORT $LL426@LoadProper
  0019f	6a 18		 push	 24			; 00000018H
  001a1	58		 pop	 eax
$LL423@LoadProper:
  001a2	8b c8		 mov	 ecx, eax
  001a4	81 e1 03 00 00
	80		 and	 ecx, -2147483645	; 80000003H
  001aa	79 05		 jns	 SHORT $LN1771@LoadProper
  001ac	49		 dec	 ecx
  001ad	83 c9 fc	 or	 ecx, -4			; fffffffcH
  001b0	41		 inc	 ecx
$LN1771@LoadProper:
  001b1	b2 ed		 mov	 dl, -19			; ffffffedH
  001b3	2a d1		 sub	 dl, cl
  001b5	30 54 05 dc	 xor	 BYTE PTR __k$529003[ebp+eax], dl
  001b9	40		 inc	 eax
  001ba	83 f8 1b	 cmp	 eax, 27			; 0000001bH
  001bd	7c e3		 jl	 SHORT $LL423@LoadProper
  001bf	68 04 01 00 00	 push	 260			; 00000104H
  001c4	8d 85 d8 fe ff
	ff		 lea	 eax, DWORD PTR _szBuf$[ebp]
  001ca	50		 push	 eax
  001cb	68 00 00 00 00	 push	 OFFSET ??_C@_00CNPNBAHC@?$AA@
  001d0	8d 45 dc	 lea	 eax, DWORD PTR __k$529003[ebp]
  001d3	50		 push	 eax
  001d4	8b cf		 mov	 ecx, edi
  001d6	ff 15 00 00 00
	00		 call	 DWORD PTR __imp_?LoadStringA@ioINILoader@@QAEXPBD0PADH@Z

; 77   : 	m_szChargingAni = szBuf;

  001dc	8d 85 d8 fe ff
	ff		 lea	 eax, DWORD PTR _szBuf$[ebp]
  001e2	50		 push	 eax
  001e3	8d 8e 24 02 00
	00		 lea	 ecx, DWORD PTR [esi+548]
  001e9	ff 15 00 00 00
	00		 call	 DWORD PTR __imp_??4ioHashString@@QAEAAV0@PBD@Z
  001ef	6a 06		 push	 6

; 78   : 
; 79   : 	// gathering
; 80   : 	rkLoader.LoadString_e( "jump_gathering_animation", "", szBuf, MAX_PATH );

  001f1	c7 45 dc 87 99
	86 9a		 mov	 DWORD PTR __k$529128[ebp], -1702454905 ; 9a869987H
  001f8	c7 45 e0 b2 8b
	8a 9e		 mov	 DWORD PTR __k$529128[ebp+4], -1635087438 ; 9e8a8bb2H
  001ff	c7 45 e4 85 89
	99 83		 mov	 DWORD PTR __k$529128[ebp+8], -2087089787 ; 83998985H
  00206	c7 45 e8 83 8b
	b4 8b		 mov	 DWORD PTR __k$529128[ebp+12], -1951102077 ; 8bb48b83H
  0020d	c7 45 ec 83 85
	86 8b		 mov	 DWORD PTR __k$529128[ebp+16], -1954118269 ; 8b868583H
  00214	c7 45 f0 99 85
	84 84		 mov	 DWORD PTR __k$529128[ebp+20], -2071689831 ; 84848599H
  0021b	8d 45 dc	 lea	 eax, DWORD PTR __k$529128[ebp]
  0021e	88 5d f4	 mov	 BYTE PTR __k$529128[ebp+24], bl
  00221	59		 pop	 ecx
$LL532@LoadProper:
  00222	81 30 ed ec eb
	ea		 xor	 DWORD PTR [eax], -353637139 ; eaebecedH
  00228	83 c0 04	 add	 eax, 4
  0022b	49		 dec	 ecx
  0022c	75 f4		 jne	 SHORT $LL532@LoadProper
  0022e	68 04 01 00 00	 push	 260			; 00000104H
  00233	8d 85 d8 fe ff
	ff		 lea	 eax, DWORD PTR _szBuf$[ebp]
  00239	50		 push	 eax
  0023a	68 00 00 00 00	 push	 OFFSET ??_C@_00CNPNBAHC@?$AA@
  0023f	8d 45 dc	 lea	 eax, DWORD PTR __k$529128[ebp]
  00242	50		 push	 eax
  00243	8b cf		 mov	 ecx, edi
  00245	ff 15 00 00 00
	00		 call	 DWORD PTR __imp_?LoadStringA@ioINILoader@@QAEXPBD0PADH@Z

; 81   : 	m_szGahteringAni = szBuf;

  0024b	8d 85 d8 fe ff
	ff		 lea	 eax, DWORD PTR _szBuf$[ebp]
  00251	50		 push	 eax
  00252	8d 8e 34 02 00
	00		 lea	 ecx, DWORD PTR [esi+564]
  00258	ff 15 00 00 00
	00		 call	 DWORD PTR __imp_??4ioHashString@@QAEAAV0@PBD@Z
  0025e	6a 05		 push	 5

; 82   : 
; 83   : 	// JumpAttack
; 84   : 	m_bUseLandJumpAttack = rkLoader.LoadBool_e( "use_land_jump_attack", false );

  00260	c7 45 e0 98 9f
	8e b5		 mov	 DWORD PTR __k$529267[ebp], -1248944232 ; b58e9f98H
  00267	c7 45 e4 81 8d
	85 8e		 mov	 DWORD PTR __k$529267[ebp+4], -1903850111 ; 8e858d81H
  0026e	c7 45 e8 b2 86
	9e 87		 mov	 DWORD PTR __k$529267[ebp+8], -2019653966 ; 879e86b2H
  00275	c7 45 ec 9d b3
	8a 9e		 mov	 DWORD PTR __k$529267[ebp+12], -1635077219 ; 9e8ab39dH
  0027c	c7 45 f0 99 8d
	88 81		 mov	 DWORD PTR __k$529267[ebp+16], -2121757287 ; 81888d99H
  00283	8d 45 e0	 lea	 eax, DWORD PTR __k$529267[ebp]
  00286	88 5d f4	 mov	 BYTE PTR __k$529267[ebp+20], bl
  00289	59		 pop	 ecx
$LL638@LoadProper:
  0028a	81 30 ed ec eb
	ea		 xor	 DWORD PTR [eax], -353637139 ; eaebecedH
  00290	83 c0 04	 add	 eax, 4
  00293	49		 dec	 ecx
  00294	75 f4		 jne	 SHORT $LL638@LoadProper
  00296	53		 push	 ebx
  00297	8d 45 e0	 lea	 eax, DWORD PTR __k$529267[ebp]
  0029a	50		 push	 eax
  0029b	8b cf		 mov	 ecx, edi
  0029d	ff 15 00 00 00
	00		 call	 DWORD PTR __imp_?LoadBool@ioINILoader@@QAE_NPBD_N@Z
  002a3	6a 06		 push	 6
  002a5	88 86 18 02 00
	00		 mov	 BYTE PTR [esi+536], al

; 85   : 
; 86   : 	m_fGravityAmt = rkLoader.LoadFloat_e( "land_jump_attack_gravity", 0.0f );

  002ab	c7 45 dc 81 8d
	85 8e		 mov	 DWORD PTR __k$529365[ebp], -1903850111 ; 8e858d81H
  002b2	c7 45 e0 b2 86
	9e 87		 mov	 DWORD PTR __k$529365[ebp+4], -2019653966 ; 879e86b2H
  002b9	c7 45 e4 9d b3
	8a 9e		 mov	 DWORD PTR __k$529365[ebp+8], -1635077219 ; 9e8ab39dH
  002c0	c7 45 e8 99 8d
	88 81		 mov	 DWORD PTR __k$529365[ebp+12], -2121757287 ; 81888d99H
  002c7	c7 45 ec b2 8b
	99 8b		 mov	 DWORD PTR __k$529365[ebp+16], -1952871502 ; 8b998bb2H
  002ce	c7 45 f0 9b 85
	9f 93		 mov	 DWORD PTR __k$529365[ebp+20], -1818262117 ; 939f859bH
  002d5	8d 45 dc	 lea	 eax, DWORD PTR __k$529365[ebp]
  002d8	88 5d f4	 mov	 BYTE PTR __k$529365[ebp+24], bl
  002db	59		 pop	 ecx
$LL744@LoadProper:
  002dc	81 30 ed ec eb
	ea		 xor	 DWORD PTR [eax], -353637139 ; eaebecedH
  002e2	83 c0 04	 add	 eax, 4
  002e5	49		 dec	 ecx
  002e6	75 f4		 jne	 SHORT $LL744@LoadProper
  002e8	0f 57 c0	 xorps	 xmm0, xmm0
  002eb	51		 push	 ecx
  002ec	8d 45 dc	 lea	 eax, DWORD PTR __k$529365[ebp]
  002ef	f3 0f 11 04 24	 movss	 DWORD PTR [esp], xmm0
  002f4	50		 push	 eax
  002f5	8b cf		 mov	 ecx, edi
  002f7	ff 15 00 00 00
	00		 call	 DWORD PTR __imp_?LoadFloat@ioINILoader@@QAEMPBDM@Z
  002fd	d9 9d d4 fe ff
	ff		 fstp	 DWORD PTR _value$529478[ebp]
  00303	8d 85 d4 fe ff
	ff		 lea	 eax, DWORD PTR _value$529478[ebp]
  00309	50		 push	 eax
  0030a	8d 8e 44 02 00
	00		 lea	 ecx, DWORD PTR [esi+580]
  00310	e8 00 00 00 00	 call	 ?EncryptValueToPool@?$CEncrypt@M@@AAEXPBD@Z ; CEncrypt<float>::EncryptValueToPool

; 87   : 
; 88   : 	m_JumpAttack.Init();

  00315	8d 8e 28 01 00
	00		 lea	 ecx, DWORD PTR [esi+296]
  0031b	e8 00 00 00 00	 call	 ?Init@AttackAttribute@@QAEXXZ ; AttackAttribute::Init
  00320	6a 02		 push	 2

; 89   : 	LoadAttackAttribute_e( "jump_attack", m_JumpAttack, rkLoader );

  00322	c7 45 ec 87 99
	86 9a		 mov	 DWORD PTR _szEncAttack$529508[ebp], -1702454905 ; 9a869987H
  00329	c7 45 f0 b2 8d
	9f 9e		 mov	 DWORD PTR _szEncAttack$529508[ebp+4], -1633710670 ; 9e9f8db2H
  00330	8d 45 ec	 lea	 eax, DWORD PTR _szEncAttack$529508[ebp]
  00333	c7 45 f4 8c 8f
	80 00		 mov	 DWORD PTR _szEncAttack$529508[ebp+8], 8425356 ; 00808f8cH
  0033a	59		 pop	 ecx
$LL852@LoadProper:
  0033b	81 30 ed ec eb
	ea		 xor	 DWORD PTR [eax], -353637139 ; eaebecedH
  00341	83 c0 04	 add	 eax, 4
  00344	49		 dec	 ecx
  00345	75 f4		 jne	 SHORT $LL852@LoadProper
  00347	6a 08		 push	 8
  00349	58		 pop	 eax
$LL849@LoadProper:
  0034a	8b c8		 mov	 ecx, eax
  0034c	81 e1 03 00 00
	80		 and	 ecx, -2147483645	; 80000003H
  00352	79 05		 jns	 SHORT $LN1772@LoadProper
  00354	49		 dec	 ecx
  00355	83 c9 fc	 or	 ecx, -4			; fffffffcH
  00358	41		 inc	 ecx
$LN1772@LoadProper:
  00359	b2 ed		 mov	 dl, -19			; ffffffedH
  0035b	2a d1		 sub	 dl, cl
  0035d	30 54 05 ec	 xor	 BYTE PTR _szEncAttack$529508[ebp+eax], dl
  00361	40		 inc	 eax
  00362	83 f8 0b	 cmp	 eax, 11			; 0000000bH
  00365	7c e3		 jl	 SHORT $LL849@LoadProper
  00367	57		 push	 edi
  00368	8d 86 28 01 00
	00		 lea	 eax, DWORD PTR [esi+296]
  0036e	50		 push	 eax
  0036f	8d 45 ec	 lea	 eax, DWORD PTR _szEncAttack$529508[ebp]
  00372	50		 push	 eax
  00373	e8 00 00 00 00	 call	 ?LoadAttackAttribute@@YAXPBDAAUAttackAttribute@@AAVioINILoader@@@Z ; LoadAttackAttribute
  00378	83 c4 0c	 add	 esp, 12			; 0000000cH

; 90   : 
; 91   : 	m_ExtendJumpAttack.Init();

  0037b	8d 8e 78 01 00
	00		 lea	 ecx, DWORD PTR [esi+376]
  00381	e8 00 00 00 00	 call	 ?Init@AttackAttribute@@QAEXXZ ; AttackAttribute::Init
  00386	6a 04		 push	 4

; 92   : 	LoadAttackAttribute_e( "extend_jump_attack", m_ExtendJumpAttack, rkLoader );

  00388	c7 45 e4 88 94
	9f 8f		 mov	 DWORD PTR _szEncAttack$529633[ebp], -1885367160 ; 8f9f9488H
  0038f	c7 45 e8 83 88
	b4 80		 mov	 DWORD PTR _szEncAttack$529633[ebp+4], -2135652221 ; 80b48883H
  00396	c7 45 ec 98 81
	9b b5		 mov	 DWORD PTR _szEncAttack$529633[ebp+8], -1248099944 ; b59b8198H
  0039d	c7 45 f0 8c 98
	9f 8b		 mov	 DWORD PTR _szEncAttack$529633[ebp+12], -1952474996 ; 8b9f988cH
  003a4	66 c7 45 f4 8e
	87		 mov	 WORD PTR _szEncAttack$529633[ebp+16], 34702 ; 0000878eH
  003aa	8d 45 e4	 lea	 eax, DWORD PTR _szEncAttack$529633[ebp]
  003ad	88 5d f6	 mov	 BYTE PTR _szEncAttack$529633[ebp+18], bl
  003b0	59		 pop	 ecx
$LL958@LoadProper:
  003b1	81 30 ed ec eb
	ea		 xor	 DWORD PTR [eax], -353637139 ; eaebecedH
  003b7	83 c0 04	 add	 eax, 4
  003ba	49		 dec	 ecx
  003bb	75 f4		 jne	 SHORT $LL958@LoadProper
  003bd	6a 10		 push	 16			; 00000010H
  003bf	58		 pop	 eax
$LL955@LoadProper:
  003c0	8b c8		 mov	 ecx, eax
  003c2	81 e1 03 00 00
	80		 and	 ecx, -2147483645	; 80000003H
  003c8	79 05		 jns	 SHORT $LN1773@LoadProper
  003ca	49		 dec	 ecx
  003cb	83 c9 fc	 or	 ecx, -4			; fffffffcH
  003ce	41		 inc	 ecx
$LN1773@LoadProper:
  003cf	b2 ed		 mov	 dl, -19			; ffffffedH
  003d1	2a d1		 sub	 dl, cl
  003d3	30 54 05 e4	 xor	 BYTE PTR _szEncAttack$529633[ebp+eax], dl
  003d7	40		 inc	 eax
  003d8	83 f8 12	 cmp	 eax, 18			; 00000012H
  003db	7c e3		 jl	 SHORT $LL955@LoadProper
  003dd	57		 push	 edi
  003de	8d 86 78 01 00
	00		 lea	 eax, DWORD PTR [esi+376]
  003e4	50		 push	 eax
  003e5	8d 45 e4	 lea	 eax, DWORD PTR _szEncAttack$529633[ebp]
  003e8	50		 push	 eax
  003e9	e8 00 00 00 00	 call	 ?LoadAttackAttribute@@YAXPBDAAUAttackAttribute@@AAVioINILoader@@@Z ; LoadAttackAttribute
  003ee	83 c4 0c	 add	 esp, 12			; 0000000cH
  003f1	6a 04		 push	 4

; 93   : 
; 94   : 	// Dash JumpAttack
; 95   : 	m_bEnableJumpDash = rkLoader.LoadBool_e( "enable_jump_dash", false );

  003f3	c7 45 e4 88 82
	8a 88		 mov	 DWORD PTR __k$529758[ebp], -2004188536 ; 888a8288H
  003fa	c7 45 e8 81 89
	b4 80		 mov	 DWORD PTR __k$529758[ebp+4], -2135651967 ; 80b48981H
  00401	c7 45 ec 98 81
	9b b5		 mov	 DWORD PTR __k$529758[ebp+8], -1248099944 ; b59b8198H
  00408	c7 45 f0 89 8d
	98 82		 mov	 DWORD PTR __k$529758[ebp+12], -2103931511 ; 82988d89H
  0040f	8d 45 e4	 lea	 eax, DWORD PTR __k$529758[ebp]
  00412	88 5d f4	 mov	 BYTE PTR __k$529758[ebp+16], bl
  00415	59		 pop	 ecx
$LL1064@LoadProper:
  00416	81 30 ed ec eb
	ea		 xor	 DWORD PTR [eax], -353637139 ; eaebecedH
  0041c	83 c0 04	 add	 eax, 4
  0041f	49		 dec	 ecx
  00420	75 f4		 jne	 SHORT $LL1064@LoadProper
  00422	53		 push	 ebx
  00423	8d 45 e4	 lea	 eax, DWORD PTR __k$529758[ebp]
  00426	50		 push	 eax
  00427	8b cf		 mov	 ecx, edi
  00429	ff 15 00 00 00
	00		 call	 DWORD PTR __imp_?LoadBool@ioINILoader@@QAE_NPBD_N@Z
  0042f	6a 03		 push	 3
  00431	88 86 80 02 00
	00		 mov	 BYTE PTR [esi+640], al

; 96   : 	m_DashType = (LocalDashType)rkLoader.LoadInt_e( "jump_dash_type", LDT_GRAVITY );

  00437	c7 45 e8 87 99
	86 9a		 mov	 DWORD PTR __k$529883[ebp], -1702454905 ; 9a869987H
  0043e	c7 45 ec b2 88
	8a 99		 mov	 DWORD PTR __k$529883[ebp+4], -1718974286 ; 998a88b2H
  00445	c7 45 f0 85 b3
	9f 93		 mov	 DWORD PTR __k$529883[ebp+8], -1818250363 ; 939fb385H
  0044c	66 c7 45 f4 9d
	89		 mov	 WORD PTR __k$529883[ebp+12], 35229 ; 0000899dH
  00452	8d 45 e8	 lea	 eax, DWORD PTR __k$529883[ebp]
  00455	88 5d f6	 mov	 BYTE PTR __k$529883[ebp+14], bl
  00458	59		 pop	 ecx
$LL1170@LoadProper:
  00459	81 30 ed ec eb
	ea		 xor	 DWORD PTR [eax], -353637139 ; eaebecedH
  0045f	83 c0 04	 add	 eax, 4
  00462	49		 dec	 ecx
  00463	75 f4		 jne	 SHORT $LL1170@LoadProper
  00465	6a 0c		 push	 12			; 0000000cH
  00467	58		 pop	 eax
$LL1167@LoadProper:
  00468	8b c8		 mov	 ecx, eax
  0046a	81 e1 03 00 00
	80		 and	 ecx, -2147483645	; 80000003H
  00470	79 05		 jns	 SHORT $LN1774@LoadProper
  00472	49		 dec	 ecx
  00473	83 c9 fc	 or	 ecx, -4			; fffffffcH
  00476	41		 inc	 ecx
$LN1774@LoadProper:
  00477	b2 ed		 mov	 dl, -19			; ffffffedH
  00479	2a d1		 sub	 dl, cl
  0047b	30 54 05 e8	 xor	 BYTE PTR __k$529883[ebp+eax], dl
  0047f	40		 inc	 eax
  00480	83 f8 0e	 cmp	 eax, 14			; 0000000eH
  00483	7c e3		 jl	 SHORT $LL1167@LoadProper
  00485	6a 01		 push	 1
  00487	8d 45 e8	 lea	 eax, DWORD PTR __k$529883[ebp]
  0048a	50		 push	 eax
  0048b	8b cf		 mov	 ecx, edi
  0048d	ff 15 00 00 00
	00		 call	 DWORD PTR __imp_?LoadInt@ioINILoader@@QAEHPBDH@Z

; 97   : 
; 98   : 	m_DashJumpAttack.Init();

  00493	8d 8e 88 02 00
	00		 lea	 ecx, DWORD PTR [esi+648]
  00499	89 86 84 02 00
	00		 mov	 DWORD PTR [esi+644], eax
  0049f	e8 00 00 00 00	 call	 ?Init@AttackAttribute@@QAEXXZ ; AttackAttribute::Init
  004a4	6a 04		 push	 4

; 99   : 	LoadAttackAttribute_e( "dash_jump_attack", m_DashJumpAttack, rkLoader );

  004a6	c7 45 e4 89 8d
	98 82		 mov	 DWORD PTR _szEncAttack$530008[ebp], -2103931511 ; 82988d89H
  004ad	c7 45 e8 b2 86
	9e 87		 mov	 DWORD PTR _szEncAttack$530008[ebp+4], -2019653966 ; 879e86b2H
  004b4	c7 45 ec 9d b3
	8a 9e		 mov	 DWORD PTR _szEncAttack$530008[ebp+8], -1635077219 ; 9e8ab39dH
  004bb	c7 45 f0 99 8d
	88 81		 mov	 DWORD PTR _szEncAttack$530008[ebp+12], -2121757287 ; 81888d99H
  004c2	8d 45 e4	 lea	 eax, DWORD PTR _szEncAttack$530008[ebp]
  004c5	88 5d f4	 mov	 BYTE PTR _szEncAttack$530008[ebp+16], bl
  004c8	59		 pop	 ecx
$LL1276@LoadProper:
  004c9	81 30 ed ec eb
	ea		 xor	 DWORD PTR [eax], -353637139 ; eaebecedH
  004cf	83 c0 04	 add	 eax, 4
  004d2	49		 dec	 ecx
  004d3	75 f4		 jne	 SHORT $LL1276@LoadProper
  004d5	57		 push	 edi
  004d6	8d 86 88 02 00
	00		 lea	 eax, DWORD PTR [esi+648]
  004dc	50		 push	 eax
  004dd	8d 45 e4	 lea	 eax, DWORD PTR _szEncAttack$530008[ebp]
  004e0	50		 push	 eax
  004e1	e8 00 00 00 00	 call	 ?LoadAttackAttribute@@YAXPBDAAUAttackAttribute@@AAVioINILoader@@@Z ; LoadAttackAttribute
  004e6	83 c4 0c	 add	 esp, 12			; 0000000cH
  004e9	6a 04		 push	 4

; 100  : 
; 101  : 	rkLoader.LoadString_e( "jump_dash_land_ani", "", szBuf, MAX_PATH );

  004eb	c7 45 e4 87 99
	86 9a		 mov	 DWORD PTR __k$530158[ebp], -1702454905 ; 9a869987H
  004f2	c7 45 e8 b2 88
	8a 99		 mov	 DWORD PTR __k$530158[ebp+4], -1718974286 ; 998a88b2H
  004f9	c7 45 ec 85 b3
	87 8b		 mov	 DWORD PTR __k$530158[ebp+8], -1954040955 ; 8b87b385H
  00500	c7 45 f0 83 88
	b4 8b		 mov	 DWORD PTR __k$530158[ebp+12], -1951102845 ; 8bb48883H
  00507	66 c7 45 f4 83
	85		 mov	 WORD PTR __k$530158[ebp+16], 34179 ; 00008583H
  0050d	8d 45 e4	 lea	 eax, DWORD PTR __k$530158[ebp]
  00510	88 5d f6	 mov	 BYTE PTR __k$530158[ebp+18], bl
  00513	59		 pop	 ecx
$LL1382@LoadProper:
  00514	81 30 ed ec eb
	ea		 xor	 DWORD PTR [eax], -353637139 ; eaebecedH
  0051a	83 c0 04	 add	 eax, 4
  0051d	49		 dec	 ecx
  0051e	75 f4		 jne	 SHORT $LL1382@LoadProper
  00520	6a 10		 push	 16			; 00000010H
  00522	58		 pop	 eax
$LL1379@LoadProper:
  00523	8b c8		 mov	 ecx, eax
  00525	81 e1 03 00 00
	80		 and	 ecx, -2147483645	; 80000003H
  0052b	79 05		 jns	 SHORT $LN1775@LoadProper
  0052d	49		 dec	 ecx
  0052e	83 c9 fc	 or	 ecx, -4			; fffffffcH
  00531	41		 inc	 ecx
$LN1775@LoadProper:
  00532	b2 ed		 mov	 dl, -19			; ffffffedH
  00534	2a d1		 sub	 dl, cl
  00536	30 54 05 e4	 xor	 BYTE PTR __k$530158[ebp+eax], dl
  0053a	40		 inc	 eax
  0053b	83 f8 12	 cmp	 eax, 18			; 00000012H
  0053e	7c e3		 jl	 SHORT $LL1379@LoadProper
  00540	68 04 01 00 00	 push	 260			; 00000104H
  00545	8d 85 d8 fe ff
	ff		 lea	 eax, DWORD PTR _szBuf$[ebp]
  0054b	50		 push	 eax
  0054c	68 00 00 00 00	 push	 OFFSET ??_C@_00CNPNBAHC@?$AA@
  00551	8d 45 e4	 lea	 eax, DWORD PTR __k$530158[ebp]
  00554	50		 push	 eax
  00555	8b cf		 mov	 ecx, edi
  00557	ff 15 00 00 00
	00		 call	 DWORD PTR __imp_?LoadStringA@ioINILoader@@QAEXPBD0PADH@Z

; 102  : 	m_DashLandAni = szBuf;

  0055d	8d 85 d8 fe ff
	ff		 lea	 eax, DWORD PTR _szBuf$[ebp]
  00563	50		 push	 eax
  00564	8d 8e e4 02 00
	00		 lea	 ecx, DWORD PTR [esi+740]
  0056a	ff 15 00 00 00
	00		 call	 DWORD PTR __imp_??4ioHashString@@QAEAAV0@PBD@Z

; 103  : 	m_fDashLandAniRate = rkLoader.LoadFloat_e( "jump_dash_land_ani_rate", FLOAT1 );

  00570	b8 01 00 00 00	 mov	 eax, 1
  00575	6a 05		 push	 5
  00577	c7 45 e0 87 99
	86 9a		 mov	 DWORD PTR __k$530249[ebp], -1702454905 ; 9a869987H
  0057e	c7 45 e4 b2 88
	8a 99		 mov	 DWORD PTR __k$530249[ebp+4], -1718974286 ; 998a88b2H
  00585	c7 45 e8 85 b3
	87 8b		 mov	 DWORD PTR __k$530249[ebp+8], -1954040955 ; 8b87b385H
  0058c	c7 45 ec 83 88
	b4 8b		 mov	 DWORD PTR __k$530249[ebp+12], -1951102845 ; 8bb48883H
  00593	c7 45 f0 83 85
	b4 98		 mov	 DWORD PTR __k$530249[ebp+16], -1732999805 ; 98b48583H
  0059a	8d 4d e0	 lea	 ecx, DWORD PTR __k$530249[ebp]
  0059d	c7 45 f4 8c 98
	8e 00		 mov	 DWORD PTR __k$530249[ebp+20], 9345164 ; 008e988cH
  005a4	5a		 pop	 edx
$LL1490@LoadProper:
  005a5	81 31 ed ec eb
	ea		 xor	 DWORD PTR [ecx], -353637139 ; eaebecedH
  005ab	83 c1 04	 add	 ecx, 4
  005ae	4a		 dec	 edx
  005af	75 f4		 jne	 SHORT $LL1490@LoadProper
  005b1	c7 85 d4 fe ff
	ff 14 00 00 00	 mov	 DWORD PTR _i$530349[ebp], 20 ; 00000014H
$LL1487@LoadProper:
  005bb	8b 8d d4 fe ff
	ff		 mov	 ecx, DWORD PTR _i$530349[ebp]
  005c1	81 e1 03 00 00
	80		 and	 ecx, -2147483645	; 80000003H
  005c7	79 05		 jns	 SHORT $LN1776@LoadProper
  005c9	49		 dec	 ecx
  005ca	83 c9 fc	 or	 ecx, -4			; fffffffcH
  005cd	41		 inc	 ecx
$LN1776@LoadProper:
  005ce	b2 ed		 mov	 dl, -19			; ffffffedH
  005d0	2a d1		 sub	 dl, cl
  005d2	8b 8d d4 fe ff
	ff		 mov	 ecx, DWORD PTR _i$530349[ebp]
  005d8	30 54 0d e0	 xor	 BYTE PTR __k$530249[ebp+ecx], dl
  005dc	ff 85 d4 fe ff
	ff		 inc	 DWORD PTR _i$530349[ebp]
  005e2	83 bd d4 fe ff
	ff 17		 cmp	 DWORD PTR _i$530349[ebp], 23 ; 00000017H
  005e9	7c d0		 jl	 SHORT $LL1487@LoadProper
  005eb	89 85 d4 fe ff
	ff		 mov	 DWORD PTR tv15078[ebp], eax
  005f1	db 85 d4 fe ff
	ff		 fild	 DWORD PTR tv15078[ebp]
  005f7	85 c0		 test	 eax, eax
  005f9	79 06		 jns	 SHORT $LN1777@LoadProper
  005fb	d8 05 00 00 00
	00		 fadd	 DWORD PTR __real@4f800000
$LN1777@LoadProper:
  00601	51		 push	 ecx
  00602	8d 45 e0	 lea	 eax, DWORD PTR __k$530249[ebp]
  00605	d9 1c 24	 fstp	 DWORD PTR [esp]
  00608	50		 push	 eax
  00609	8b cf		 mov	 ecx, edi
  0060b	ff 15 00 00 00
	00		 call	 DWORD PTR __imp_?LoadFloat@ioINILoader@@QAEMPBDM@Z
  00611	d9 9e f4 02 00
	00		 fstp	 DWORD PTR [esi+756]
  00617	6a 05		 push	 5

; 104  : 
; 105  : 	m_fDashGravityAmt = rkLoader.LoadFloat_e( "jump_dash_gravity_amt", 0.0f );

  00619	c7 45 e0 87 99
	86 9a		 mov	 DWORD PTR __k$530374[ebp], -1702454905 ; 9a869987H
  00620	c7 45 e4 b2 88
	8a 99		 mov	 DWORD PTR __k$530374[ebp+4], -1718974286 ; 998a88b2H
  00627	c7 45 e8 85 b3
	8c 98		 mov	 DWORD PTR __k$530374[ebp+8], -1735609467 ; 988cb385H
  0062e	c7 45 ec 8c 9a
	82 9e		 mov	 DWORD PTR __k$530374[ebp+12], -1635607924 ; 9e829a8cH
  00635	c7 45 f0 94 b3
	8a 87		 mov	 DWORD PTR __k$530374[ebp+16], -2020953196 ; 878ab394H
  0063c	8d 45 e0	 lea	 eax, DWORD PTR __k$530374[ebp]
  0063f	66 c7 45 f4 99
	00		 mov	 WORD PTR __k$530374[ebp+20], 153 ; 00000099H
  00645	59		 pop	 ecx
$LL1596@LoadProper:
  00646	81 30 ed ec eb
	ea		 xor	 DWORD PTR [eax], -353637139 ; eaebecedH
  0064c	83 c0 04	 add	 eax, 4
  0064f	49		 dec	 ecx
  00650	75 f4		 jne	 SHORT $LL1596@LoadProper
  00652	0f 57 c0	 xorps	 xmm0, xmm0
  00655	80 75 f4 ed	 xor	 BYTE PTR __k$530374[ebp+20], -19 ; ffffffedH
  00659	51		 push	 ecx
  0065a	8d 45 e0	 lea	 eax, DWORD PTR __k$530374[ebp]
  0065d	f3 0f 11 04 24	 movss	 DWORD PTR [esp], xmm0
  00662	50		 push	 eax
  00663	8b cf		 mov	 ecx, edi
  00665	ff 15 00 00 00
	00		 call	 DWORD PTR __imp_?LoadFloat@ioINILoader@@QAEMPBDM@Z
  0066b	d9 9e d8 02 00
	00		 fstp	 DWORD PTR [esi+728]
  00671	6a 05		 push	 5

; 106  : 
; 107  : 	m_bUseNewJumpTypeDash = rkLoader.LoadBool_e( "use_new_jump_type_dash", false );

  00673	c7 45 e0 98 9f
	8e b5		 mov	 DWORD PTR __k$530512[ebp], -1248944232 ; b58e9f98H
  0067a	c7 45 e4 83 89
	9c b5		 mov	 DWORD PTR __k$530512[ebp+4], -1248032381 ; b59c8983H
  00681	c7 45 e8 87 99
	86 9a		 mov	 DWORD PTR __k$530512[ebp+8], -1702454905 ; 9a869987H
  00688	c7 45 ec b2 98
	92 9a		 mov	 DWORD PTR __k$530512[ebp+12], -1701668686 ; 9a9298b2H
  0068f	c7 45 f0 88 b3
	8f 8b		 mov	 DWORD PTR __k$530512[ebp+16], -1953516664 ; 8b8fb388H
  00696	66 c7 45 f4 9e
	84		 mov	 WORD PTR __k$530512[ebp+20], 33950 ; 0000849eH
  0069c	8d 45 e0	 lea	 eax, DWORD PTR __k$530512[ebp]
  0069f	88 5d f6	 mov	 BYTE PTR __k$530512[ebp+22], bl
  006a2	59		 pop	 ecx
$LL1702@LoadProper:
  006a3	81 30 ed ec eb
	ea		 xor	 DWORD PTR [eax], -353637139 ; eaebecedH
  006a9	83 c0 04	 add	 eax, 4
  006ac	49		 dec	 ecx
  006ad	75 f4		 jne	 SHORT $LL1702@LoadProper
  006af	6a 14		 push	 20			; 00000014H
  006b1	58		 pop	 eax
$LL1699@LoadProper:
  006b2	8b c8		 mov	 ecx, eax
  006b4	81 e1 03 00 00
	80		 and	 ecx, -2147483645	; 80000003H
  006ba	79 05		 jns	 SHORT $LN1778@LoadProper
  006bc	49		 dec	 ecx
  006bd	83 c9 fc	 or	 ecx, -4			; fffffffcH
  006c0	41		 inc	 ecx
$LN1778@LoadProper:
  006c1	b2 ed		 mov	 dl, -19			; ffffffedH
  006c3	2a d1		 sub	 dl, cl
  006c5	30 54 05 e0	 xor	 BYTE PTR __k$530512[ebp+eax], dl
  006c9	40		 inc	 eax
  006ca	83 f8 16	 cmp	 eax, 22			; 00000016H
  006cd	7c e3		 jl	 SHORT $LL1699@LoadProper
  006cf	53		 push	 ebx
  006d0	8d 45 e0	 lea	 eax, DWORD PTR __k$530512[ebp]
  006d3	50		 push	 eax
  006d4	8b cf		 mov	 ecx, edi
  006d6	ff 15 00 00 00
	00		 call	 DWORD PTR __imp_?LoadBool@ioINILoader@@QAE_NPBD_N@Z

; 108  : }

  006dc	8b 4d fc	 mov	 ecx, DWORD PTR __$ArrayPad$[ebp]
  006df	5f		 pop	 edi
  006e0	88 86 f8 02 00
	00		 mov	 BYTE PTR [esi+760], al
  006e6	5e		 pop	 esi
  006e7	33 cd		 xor	 ecx, ebp
  006e9	5b		 pop	 ebx
  006ea	e8 00 00 00 00	 call	 @__security_check_cookie@4
  006ef	c9		 leave
  006f0	c2 04 00	 ret	 4
?LoadProperty@ioPowerChargeJump@@UAEXAAVioINILoader@@@Z ENDP ; ioPowerChargeJump::LoadProperty
_TEXT	ENDS
PUBLIC	?ProcessCharging@ioPowerChargeJump@@IAEXPAVioBaseChar@@@Z ; ioPowerChargeJump::ProcessCharging
EXTRN	?IsAttackKeyDown@ioBaseChar@@QBE_NXZ:PROC	; ioBaseChar::IsAttackKeyDown
; Function compile flags: /Ogsp
;	COMDAT ?ProcessCharging@ioPowerChargeJump@@IAEXPAVioBaseChar@@@Z
_TEXT	SEGMENT
_pOwner$ = 8						; size = 4
?ProcessCharging@ioPowerChargeJump@@IAEXPAVioBaseChar@@@Z PROC ; ioPowerChargeJump::ProcessCharging, COMDAT
; _this$ = ecx

; 207  : {

  00000	55		 push	 ebp
  00001	8b ec		 mov	 ebp, esp
  00003	56		 push	 esi

; 208  : 	if( !pOwner ) return;

  00004	8b 75 08	 mov	 esi, DWORD PTR _pOwner$[ebp]
  00007	57		 push	 edi
  00008	8b f9		 mov	 edi, ecx
  0000a	85 f6		 test	 esi, esi
  0000c	74 53		 je	 SHORT $LN1@ProcessCha

; 209  : 	if( !pOwner->IsNeedProcess() )

  0000e	8b 06		 mov	 eax, DWORD PTR [esi]
  00010	8b ce		 mov	 ecx, esi
  00012	ff 90 00 01 00
	00		 call	 DWORD PTR [eax+256]
  00018	84 c0		 test	 al, al
  0001a	74 45		 je	 SHORT $LN1@ProcessCha

; 210  : 		return;
; 211  : 
; 212  : 	ioEntityGroup *pGrp = pOwner->GetGroup();
; 213  : 	if( !pGrp ) return;

  0001c	83 7e 04 00	 cmp	 DWORD PTR [esi+4], 0
  00020	74 3f		 je	 SHORT $LN1@ProcessCha

; 214  : 
; 215  : 	DWORD dwCurTime = FRAMEGETTIME();

  00022	53		 push	 ebx
  00023	ff 15 00 00 00
	00		 call	 DWORD PTR __imp_?GetSingleton@ioFrameTimer@@SAAAV1@XZ
  00029	8b c8		 mov	 ecx, eax
  0002b	ff 15 00 00 00
	00		 call	 DWORD PTR __imp_?GetLoopSec@ioFrameTimer@@QBEKXZ

; 216  : 	if( pOwner->IsAttackKeyDown() )

  00031	8b ce		 mov	 ecx, esi
  00033	8b d8		 mov	 ebx, eax
  00035	e8 00 00 00 00	 call	 ?IsAttackKeyDown@ioBaseChar@@QBE_NXZ ; ioBaseChar::IsAttackKeyDown
  0003a	84 c0		 test	 al, al
  0003c	74 1a		 je	 SHORT $LN3@ProcessCha

; 217  : 	{
; 218  : 		if( m_dwChargingStartTime+m_dwChargingTime < dwCurTime )

  0003e	8b 87 20 02 00
	00		 mov	 eax, DWORD PTR [edi+544]
  00044	03 87 1c 02 00
	00		 add	 eax, DWORD PTR [edi+540]
  0004a	3b c3		 cmp	 eax, ebx
  0004c	73 12		 jae	 SHORT $LN11@ProcessCha

; 219  : 		{
; 220  : 			//ChangeToGathering( pOwner );
; 221  : 			ChangeToPowerChargeJumpAttack( pOwner );

  0004e	56		 push	 esi
  0004f	8b cf		 mov	 ecx, edi
  00051	e8 00 00 00 00	 call	 ?ChangeToPowerChargeJumpAttack@ioPowerChargeJump@@IAEXPAVioBaseChar@@@Z ; ioPowerChargeJump::ChangeToPowerChargeJumpAttack

; 222  : 			return;

  00056	eb 08		 jmp	 SHORT $LN11@ProcessCha
$LN3@ProcessCha:

; 223  : 		}
; 224  : 	}
; 225  : 	else
; 226  : 	{
; 227  : 		ChangeToNormalJumpAttack( pOwner );

  00058	56		 push	 esi
  00059	8b cf		 mov	 ecx, edi
  0005b	e8 00 00 00 00	 call	 ?ChangeToNormalJumpAttack@ioPowerChargeJump@@IAEXPAVioBaseChar@@@Z ; ioPowerChargeJump::ChangeToNormalJumpAttack
$LN11@ProcessCha:
  00060	5b		 pop	 ebx
$LN1@ProcessCha:
  00061	5f		 pop	 edi
  00062	5e		 pop	 esi

; 228  : 		return;
; 229  : 	}
; 230  : }

  00063	5d		 pop	 ebp
  00064	c2 04 00	 ret	 4
?ProcessCharging@ioPowerChargeJump@@IAEXPAVioBaseChar@@@Z ENDP ; ioPowerChargeJump::ProcessCharging
_TEXT	ENDS
PUBLIC	?ProcessGathering@ioPowerChargeJump@@IAEXPAVioBaseChar@@@Z ; ioPowerChargeJump::ProcessGathering
; Function compile flags: /Ogsp
;	COMDAT ?ProcessGathering@ioPowerChargeJump@@IAEXPAVioBaseChar@@@Z
_TEXT	SEGMENT
_pOwner$ = 8						; size = 4
?ProcessGathering@ioPowerChargeJump@@IAEXPAVioBaseChar@@@Z PROC ; ioPowerChargeJump::ProcessGathering, COMDAT
; _this$ = ecx

; 233  : {

  00000	55		 push	 ebp
  00001	8b ec		 mov	 ebp, esp
  00003	56		 push	 esi

; 234  : 	if( !pOwner || !pOwner->IsNeedProcess() )	return;

  00004	8b 75 08	 mov	 esi, DWORD PTR _pOwner$[ebp]
  00007	57		 push	 edi
  00008	8b f9		 mov	 edi, ecx
  0000a	85 f6		 test	 esi, esi
  0000c	74 21		 je	 SHORT $LN2@ProcessGat
  0000e	8b 06		 mov	 eax, DWORD PTR [esi]
  00010	8b ce		 mov	 ecx, esi
  00012	ff 90 00 01 00
	00		 call	 DWORD PTR [eax+256]
  00018	84 c0		 test	 al, al
  0001a	74 13		 je	 SHORT $LN2@ProcessGat

; 235  : 
; 236  : 	if( !pOwner->IsAttackKeyDown() )

  0001c	8b ce		 mov	 ecx, esi
  0001e	e8 00 00 00 00	 call	 ?IsAttackKeyDown@ioBaseChar@@QBE_NXZ ; ioBaseChar::IsAttackKeyDown
  00023	84 c0		 test	 al, al
  00025	75 08		 jne	 SHORT $LN2@ProcessGat

; 237  : 	{
; 238  : 		ChangeToPowerChargeJumpAttack( pOwner );

  00027	56		 push	 esi
  00028	8b cf		 mov	 ecx, edi
  0002a	e8 00 00 00 00	 call	 ?ChangeToPowerChargeJumpAttack@ioPowerChargeJump@@IAEXPAVioBaseChar@@@Z ; ioPowerChargeJump::ChangeToPowerChargeJumpAttack
$LN2@ProcessGat:
  0002f	5f		 pop	 edi
  00030	5e		 pop	 esi

; 239  : 	}
; 240  : }

  00031	5d		 pop	 ebp
  00032	c2 04 00	 ret	 4
?ProcessGathering@ioPowerChargeJump@@IAEXPAVioBaseChar@@@Z ENDP ; ioPowerChargeJump::ProcessGathering
_TEXT	ENDS
PUBLIC	__real@41f0000000000000
PUBLIC	_rkPacket$GSCopy$
PUBLIC	?ApplyJump@ioPowerChargeJump@@UAEXPAVioBaseChar@@AAVSP2Packet@@@Z ; ioPowerChargeJump::ApplyJump
EXTRN	?SetTargetRot@ioBaseChar@@QAEXABUD3DXQUATERNION@@@Z:PROC ; ioBaseChar::SetTargetRot
EXTRN	?SetJumpAttckTargetRot@ioBaseChar@@QAEXABUD3DXQUATERNION@@ABUD3DXVECTOR3@@1@Z:PROC ; ioBaseChar::SetJumpAttckTargetRot
EXTRN	?ApplyAutoTargetInfo@ioBaseChar@@QAEXAAVSP2Packet@@@Z:PROC ; ioBaseChar::ApplyAutoTargetInfo
EXTRN	?SetComboDashState@ioBaseChar@@QAEXXZ:PROC	; ioBaseChar::SetComboDashState
EXTRN	?SetReservedSliding@ioBaseChar@@QAEXABV?$vector@UForceInfo@@V?$allocator@UForceInfo@@@std@@@std@@HMKM_N@Z:PROC ; ioBaseChar::SetReservedSliding
EXTRN	?CheckCharColSkipTime@ioBaseChar@@QAEXHMK@Z:PROC ; ioBaseChar::CheckCharColSkipTime
EXTRN	?SetTargetRotAndMoveDirChange@ioBaseChar@@QAEXABUD3DXQUATERNION@@_N@Z:PROC ; ioBaseChar::SetTargetRotAndMoveDirChange
EXTRN	??5SP2Packet@@QAEAAV0@AAUD3DXQUATERNION@@@Z:PROC ; SP2Packet::operator>>
EXTRN	?SetMoveDirection@ioBaseChar@@QAEXABUD3DXVECTOR3@@@Z:PROC ; ioBaseChar::SetMoveDirection
EXTRN	??5SP2Packet@@QAEAAV0@AAUD3DXVECTOR3@@@Z:PROC	; SP2Packet::operator>>
EXTRN	??5SP2Packet@@QAEAAV0@AAH@Z:PROC		; SP2Packet::operator>>
;	COMDAT __real@41f0000000000000
; File d:\lost saga for developer\youtube\tutorial\source\src\lsclient\iobasechar.h
CONST	SEGMENT
__real@41f0000000000000 DQ 041f0000000000000r	; 4.29497e+009
CONST	ENDS
;	COMDAT xdata$x
xdata$x	SEGMENT
__ehfuncinfo$?ApplyJump@ioPowerChargeJump@@UAEXPAVioBaseChar@@AAVSP2Packet@@@Z DD 019930522H
	DD	09H
	DD	FLAT:__unwindtable$?ApplyJump@ioPowerChargeJump@@UAEXPAVioBaseChar@@AAVSP2Packet@@@Z
	DD	2 DUP(00H)
	DD	2 DUP(00H)
	DD	00H
	DD	01H
__unwindtable$?ApplyJump@ioPowerChargeJump@@UAEXPAVioBaseChar@@AAVSP2Packet@@@Z DD 0ffffffffH
	DD	FLAT:__unwindfunclet$?ApplyJump@ioPowerChargeJump@@UAEXPAVioBaseChar@@AAVSP2Packet@@@Z$0
	DD	0ffffffffH
	DD	FLAT:__unwindfunclet$?ApplyJump@ioPowerChargeJump@@UAEXPAVioBaseChar@@AAVSP2Packet@@@Z$2
	DD	01H
	DD	FLAT:__unwindfunclet$?ApplyJump@ioPowerChargeJump@@UAEXPAVioBaseChar@@AAVSP2Packet@@@Z$3
	DD	02H
	DD	FLAT:__unwindfunclet$?ApplyJump@ioPowerChargeJump@@UAEXPAVioBaseChar@@AAVSP2Packet@@@Z$4
	DD	0ffffffffH
	DD	FLAT:__unwindfunclet$?ApplyJump@ioPowerChargeJump@@UAEXPAVioBaseChar@@AAVSP2Packet@@@Z$10
	DD	0ffffffffH
	DD	FLAT:__unwindfunclet$?ApplyJump@ioPowerChargeJump@@UAEXPAVioBaseChar@@AAVSP2Packet@@@Z$5
	DD	0ffffffffH
	DD	FLAT:__unwindfunclet$?ApplyJump@ioPowerChargeJump@@UAEXPAVioBaseChar@@AAVSP2Packet@@@Z$7
	DD	06H
	DD	FLAT:__unwindfunclet$?ApplyJump@ioPowerChargeJump@@UAEXPAVioBaseChar@@AAVSP2Packet@@@Z$8
	DD	07H
	DD	FLAT:__unwindfunclet$?ApplyJump@ioPowerChargeJump@@UAEXPAVioBaseChar@@AAVSP2Packet@@@Z$9
; Function compile flags: /Ogsp
; File d:\lost saga for developer\youtube\tutorial\source\src\lsclient\iopowerchargejump.cpp
xdata$x	ENDS
;	COMDAT ?ApplyJump@ioPowerChargeJump@@UAEXPAVioBaseChar@@AAVSP2Packet@@@Z
_TEXT	SEGMENT
$T530830 = -224						; size = 16
_qtRot$524147 = -224					; size = 16
_qtRot$524143 = -224					; size = 16
tv1433 = -208						; size = 4
_value$530947 = -208					; size = 4
_qtRotate$524152 = -204					; size = 16
_pGrp$524153 = -188					; size = 4
tv1470 = -184						; size = 4
$T530793 = -184						; size = 4
$T530703 = -184						; size = 4
_iAniID$524129 = -184					; size = 4
tv1479 = -180						; size = 4
tv1477 = -180						; size = 4
tv1474 = -180						; size = 4
tv1472 = -180						; size = 4
tv1365 = -180						; size = 4
$T530700 = -176						; size = 16
$T530705 = -160						; size = 16
$T530701 = -144						; size = 16
$T530699 = -128						; size = 16
$T530704 = -112						; size = 16
$T530706 = -96						; size = 16
_dwCurTime$ = -80					; size = 4
_iAniID$524154 = -76					; size = 4
_fTimeRate$524155 = -72					; size = 4
tv1492 = -68						; size = 4
tv1487 = -68						; size = 4
tv1468 = -68						; size = 4
$T530797 = -68						; size = 4
$T530742 = -68						; size = 4
_dwKeyReserveTime$524164 = -68				; size = 4
$T530698 = -68						; size = 4
_rkPacket$GSCopy$ = -64					; size = 4
_iType$ = -60						; size = 4
_vDir$524151 = -56					; size = 12
_vInputDir$524149 = -44					; size = 12
_vMoveDir$524144 = -44					; size = 12
tv564 = -40						; size = 8
tv1450 = -36						; size = 4
tv1421 = -36						; size = 4
tv1387 = -36						; size = 4
tv1382 = -36						; size = 4
tv1377 = -36						; size = 4
tv1362 = -36						; size = 4
tv1360 = -36						; size = 4
tv1358 = -36						; size = 4
tv1356 = -36						; size = 4
_value$530937 = -36					; size = 4
$T530828 = -36						; size = 4
$T530702 = -36						; size = 4
_dwEndDelay$524157 = -36				; size = 4
$T530697 = -36						; size = 4
_fTimeRate$524130 = -36					; size = 4
_szEncEventType$530816 = -32				; size = 11
_qtRot$524126 = -32					; size = 16
_vMoveDir$524148 = -28					; size = 12
_vInputDir$524145 = -28					; size = 12
__$EHRec$ = -12						; size = 12
_pOwner$ = 8						; size = 4
_rkPacket$ = 12						; size = 4
?ApplyJump@ioPowerChargeJump@@UAEXPAVioBaseChar@@AAVSP2Packet@@@Z PROC ; ioPowerChargeJump::ApplyJump, COMDAT
; _this$ = ecx

; 389  : {

  00000	68 d4 00 00 00	 push	 212			; 000000d4H
  00005	b8 00 00 00 00	 mov	 eax, __ehhandler$?ApplyJump@ioPowerChargeJump@@UAEXPAVioBaseChar@@AAVSP2Packet@@@Z
  0000a	e8 00 00 00 00	 call	 __EH_prolog3_GS
  0000f	8b 5d 08	 mov	 ebx, DWORD PTR _pOwner$[ebp]

; 394  : 
; 395  : 	DWORD dwDelayTime = 0;
; 396  : 	DWORD dwCurTime = FRAMEGETTIME();

  00012	8b 45 0c	 mov	 eax, DWORD PTR _rkPacket$[ebp]
  00015	8b f1		 mov	 esi, ecx
  00017	89 45 c0	 mov	 DWORD PTR _rkPacket$GSCopy$[ebp], eax
  0001a	85 db		 test	 ebx, ebx
  0001c	0f 84 81 07 00
	00		 je	 $LN7@ApplyJump

; 390  : 	if( !pOwner ) return;
; 391  : 
; 392  : 	ioEntityGroup *pGrp = pOwner->GetGroup();
; 393  : 	if( !pGrp ) return;

  00022	8b 7b 04	 mov	 edi, DWORD PTR [ebx+4]
  00025	85 ff		 test	 edi, edi
  00027	0f 84 76 07 00
	00		 je	 $LN7@ApplyJump

; 394  : 
; 395  : 	DWORD dwDelayTime = 0;
; 396  : 	DWORD dwCurTime = FRAMEGETTIME();

  0002d	ff 15 00 00 00
	00		 call	 DWORD PTR __imp_?GetSingleton@ioFrameTimer@@SAAAV1@XZ
  00033	8b c8		 mov	 ecx, eax
  00035	ff 15 00 00 00
	00		 call	 DWORD PTR __imp_?GetLoopSec@ioFrameTimer@@QBEKXZ

; 397  : 
; 398  : 	int iType;
; 399  : 	rkPacket >> iType;

  0003b	8b 4d c0	 mov	 ecx, DWORD PTR _rkPacket$GSCopy$[ebp]
  0003e	89 45 b0	 mov	 DWORD PTR _dwCurTime$[ebp], eax
  00041	8d 45 c4	 lea	 eax, DWORD PTR _iType$[ebp]
  00044	50		 push	 eax
  00045	e8 00 00 00 00	 call	 ??5SP2Packet@@QAEAAV0@AAH@Z ; SP2Packet::operator>>

; 400  : 
; 401  : 	switch( iType )

  0004a	8b 45 c4	 mov	 eax, DWORD PTR _iType$[ebp]
  0004d	48		 dec	 eax
  0004e	0f 84 12 05 00
	00		 je	 $LN6@ApplyJump
  00054	48		 dec	 eax
  00055	0f 84 fe 04 00
	00		 je	 $LN5@ApplyJump
  0005b	48		 dec	 eax
  0005c	0f 84 ae 04 00
	00		 je	 $LN4@ApplyJump
  00062	48		 dec	 eax
  00063	0f 84 5e 04 00
	00		 je	 $LN3@ApplyJump
  00069	48		 dec	 eax
  0006a	0f 85 33 07 00
	00		 jne	 $LN7@ApplyJump

; 466  : 	case PJS_DASH:
; 467  : 		{
; 468  : 			D3DXVECTOR3 vDir;
; 469  : 			rkPacket >> vDir;

  00070	8b 4d c0	 mov	 ecx, DWORD PTR _rkPacket$GSCopy$[ebp]
  00073	8d 45 c8	 lea	 eax, DWORD PTR _vDir$524151[ebp]
  00076	50		 push	 eax
  00077	e8 00 00 00 00	 call	 ??5SP2Packet@@QAEAAV0@AAUD3DXVECTOR3@@@Z ; SP2Packet::operator>>

; 470  : 
; 471  : 			pOwner->SetMoveDirection( vDir );

  0007c	8d 45 c8	 lea	 eax, DWORD PTR _vDir$524151[ebp]
  0007f	50		 push	 eax
  00080	8b cb		 mov	 ecx, ebx
  00082	e8 00 00 00 00	 call	 ?SetMoveDirection@ioBaseChar@@QAEXABUD3DXVECTOR3@@@Z ; ioBaseChar::SetMoveDirection

; 472  : 
; 473  : 			D3DXQUATERNION qtRotate;
; 474  : 			rkPacket >> qtRotate;

  00087	8b 4d c0	 mov	 ecx, DWORD PTR _rkPacket$GSCopy$[ebp]
  0008a	8d 85 34 ff ff
	ff		 lea	 eax, DWORD PTR _qtRotate$524152[ebp]
  00090	50		 push	 eax
  00091	e8 00 00 00 00	 call	 ??5SP2Packet@@QAEAAV0@AAUD3DXQUATERNION@@@Z ; SP2Packet::operator>>

; 475  : 
; 476  : 			pOwner->SetTargetRotAndMoveDirChange( qtRotate );

  00096	6a 00		 push	 0
  00098	8d 85 34 ff ff
	ff		 lea	 eax, DWORD PTR _qtRotate$524152[ebp]
  0009e	50		 push	 eax
  0009f	8b cb		 mov	 ecx, ebx
  000a1	e8 00 00 00 00	 call	 ?SetTargetRotAndMoveDirChange@ioBaseChar@@QAEXABUD3DXQUATERNION@@_N@Z ; ioBaseChar::SetTargetRotAndMoveDirChange

; 477  : 
; 478  : 			ioEntityGroup *pGrp = pOwner->GetGroup();

  000a6	8b 4b 04	 mov	 ecx, DWORD PTR [ebx+4]

; 479  : 			int iAniID = pGrp->GetAnimationIdx( m_DashJumpAttack.m_AttackAnimation );

  000a9	8d 86 88 02 00
	00		 lea	 eax, DWORD PTR [esi+648]
  000af	50		 push	 eax
  000b0	89 8d 44 ff ff
	ff		 mov	 DWORD PTR _pGrp$524153[ebp], ecx
  000b6	ff 15 00 00 00
	00		 call	 DWORD PTR __imp_?GetAnimationIdx@ioEntityGroup@@QAEHABVioHashString@@@Z

; 480  : 			float fTimeRate = m_DashJumpAttack.m_fAttackAniRate;

  000bc	d9 86 98 02 00
	00		 fld	 DWORD PTR [esi+664]

; 481  : 			DWORD dwPreDelay = m_DashJumpAttack.m_dwPreDelay;

  000c2	8b be d0 02 00
	00		 mov	 edi, DWORD PTR [esi+720]
  000c8	d9 5d b8	 fstp	 DWORD PTR _fTimeRate$524155[ebp]
  000cb	89 45 b4	 mov	 DWORD PTR _iAniID$524154[ebp], eax

; 482  : 			DWORD dwEndDelay = m_DashJumpAttack.m_dwEndDelay;

  000ce	8b 86 d4 02 00
	00		 mov	 eax, DWORD PTR [esi+724]
  000d4	89 45 dc	 mov	 DWORD PTR _dwEndDelay$524157[ebp], eax

; 483  : 
; 484  : 			pGrp->ClearAllActionAni( FLOAT100, true );

  000d7	b8 64 00 00 00	 mov	 eax, 100		; 00000064H
  000dc	89 45 bc	 mov	 DWORD PTR tv1492[ebp], eax
  000df	db 45 bc	 fild	 DWORD PTR tv1492[ebp]
  000e2	6a 01		 push	 1
  000e4	85 c0		 test	 eax, eax
  000e6	79 06		 jns	 SHORT $LN191@ApplyJump
  000e8	d8 05 00 00 00
	00		 fadd	 DWORD PTR __real@4f800000
$LN191@ApplyJump:
  000ee	51		 push	 ecx
  000ef	8b 8d 44 ff ff
	ff		 mov	 ecx, DWORD PTR _pGrp$524153[ebp]
  000f5	d9 1c 24	 fstp	 DWORD PTR [esp]
  000f8	ff 15 00 00 00
	00		 call	 DWORD PTR __imp_?ClearAllActionAni@ioEntityGroup@@QAEXM_N@Z

; 485  : 			pGrp->ClearAllLoopAni( FLOAT100, true );

  000fe	b8 64 00 00 00	 mov	 eax, 100		; 00000064H
  00103	89 45 bc	 mov	 DWORD PTR tv1487[ebp], eax
  00106	db 45 bc	 fild	 DWORD PTR tv1487[ebp]
  00109	6a 01		 push	 1
  0010b	85 c0		 test	 eax, eax
  0010d	79 06		 jns	 SHORT $LN192@ApplyJump
  0010f	d8 05 00 00 00
	00		 fadd	 DWORD PTR __real@4f800000
$LN192@ApplyJump:
  00115	51		 push	 ecx
  00116	8b 8d 44 ff ff
	ff		 mov	 ecx, DWORD PTR _pGrp$524153[ebp]
  0011c	d9 1c 24	 fstp	 DWORD PTR [esp]
  0011f	ff 15 00 00 00
	00		 call	 DWORD PTR __imp_?ClearAllLoopAni@ioEntityGroup@@QAEXM_N@Z

; 486  : 
; 487  : 			pOwner->SetAutoTarget( ATT_JUMP );

  00125	6a 03		 push	 3
  00127	8b cb		 mov	 ecx, ebx
  00129	e8 00 00 00 00	 call	 ?SetAutoTarget@ioBaseChar@@QAEXW4AutoTargetType@@@Z ; ioBaseChar::SetAutoTarget

; 488  : 
; 489  : 			pGrp->SetActionAni( iAniID, FLOAT100, FLOAT100, FLOAT1, FLOAT1/fTimeRate, 0.0f, dwPreDelay, true );		

  0012e	b8 01 00 00 00	 mov	 eax, 1
  00133	8b c8		 mov	 ecx, eax
  00135	b8 01 00 00 00	 mov	 eax, 1
  0013a	8b d0		 mov	 edx, eax
  0013c	b8 64 00 00 00	 mov	 eax, 100		; 00000064H
  00141	89 85 48 ff ff
	ff		 mov	 DWORD PTR $T530793[ebp], eax
  00147	b8 64 00 00 00	 mov	 eax, 100		; 00000064H
  0014c	89 45 bc	 mov	 DWORD PTR $T530797[ebp], eax
  0014f	8b c7		 mov	 eax, edi
  00151	6a 01		 push	 1
  00153	89 85 4c ff ff
	ff		 mov	 DWORD PTR tv1479[ebp], eax
  00159	db 85 4c ff ff
	ff		 fild	 DWORD PTR tv1479[ebp]
  0015f	6a 01		 push	 1
  00161	85 c0		 test	 eax, eax
  00163	79 06		 jns	 SHORT $LN193@ApplyJump
  00165	d8 05 00 00 00
	00		 fadd	 DWORD PTR __real@4f800000
$LN193@ApplyJump:
  0016b	0f 57 c0	 xorps	 xmm0, xmm0
  0016e	83 ec 18	 sub	 esp, 24			; 00000018H
  00171	d9 5c 24 14	 fstp	 DWORD PTR [esp+20]
  00175	89 8d 4c ff ff
	ff		 mov	 DWORD PTR tv1477[ebp], ecx
  0017b	db 85 4c ff ff
	ff		 fild	 DWORD PTR tv1477[ebp]
  00181	f3 0f 11 44 24
	10		 movss	 DWORD PTR [esp+16], xmm0
  00187	85 c9		 test	 ecx, ecx
  00189	79 06		 jns	 SHORT $LN194@ApplyJump
  0018b	d8 05 00 00 00
	00		 fadd	 DWORD PTR __real@4f800000
$LN194@ApplyJump:
  00191	d8 75 b8	 fdiv	 DWORD PTR _fTimeRate$524155[ebp]
  00194	d9 9d 4c ff ff
	ff		 fstp	 DWORD PTR tv1474[ebp]
  0019a	d9 85 4c ff ff
	ff		 fld	 DWORD PTR tv1474[ebp]
  001a0	d9 5c 24 0c	 fstp	 DWORD PTR [esp+12]
  001a4	89 95 4c ff ff
	ff		 mov	 DWORD PTR tv1472[ebp], edx
  001aa	db 85 4c ff ff
	ff		 fild	 DWORD PTR tv1472[ebp]
  001b0	85 d2		 test	 edx, edx
  001b2	79 06		 jns	 SHORT $LN195@ApplyJump
  001b4	d8 05 00 00 00
	00		 fadd	 DWORD PTR __real@4f800000
$LN195@ApplyJump:
  001ba	8b 85 48 ff ff
	ff		 mov	 eax, DWORD PTR $T530793[ebp]
  001c0	d9 5c 24 08	 fstp	 DWORD PTR [esp+8]
  001c4	db 85 48 ff ff
	ff		 fild	 DWORD PTR $T530793[ebp]
  001ca	85 c0		 test	 eax, eax
  001cc	79 06		 jns	 SHORT $LN196@ApplyJump
  001ce	d8 05 00 00 00
	00		 fadd	 DWORD PTR __real@4f800000
$LN196@ApplyJump:
  001d4	8b 45 bc	 mov	 eax, DWORD PTR $T530797[ebp]
  001d7	d9 5c 24 04	 fstp	 DWORD PTR [esp+4]
  001db	db 45 bc	 fild	 DWORD PTR $T530797[ebp]
  001de	85 c0		 test	 eax, eax
  001e0	79 06		 jns	 SHORT $LN197@ApplyJump
  001e2	d8 05 00 00 00
	00		 fadd	 DWORD PTR __real@4f800000
$LN197@ApplyJump:
  001e8	8b 8d 44 ff ff
	ff		 mov	 ecx, DWORD PTR _pGrp$524153[ebp]
  001ee	d9 1c 24	 fstp	 DWORD PTR [esp]
  001f1	ff 75 b4	 push	 DWORD PTR _iAniID$524154[ebp]
  001f4	ff 15 00 00 00
	00		 call	 DWORD PTR __imp_?SetActionAni@ioEntityGroup@@QAE_NHMMMMMM_N0@Z

; 490  : 
; 491  : 			pOwner->RefreshFireTimeList( iAniID,
; 492  : 										 m_DashJumpAttack.m_vWeaponInfoList,
; 493  : 										 FTT_JUMP_ATTACK,
; 494  : 										 fTimeRate,
; 495  : 										 dwPreDelay );

  001fa	f3 0f 10 45 b8	 movss	 xmm0, DWORD PTR _fTimeRate$524155[ebp]
  001ff	6a 00		 push	 0
  00201	57		 push	 edi
  00202	51		 push	 ecx
  00203	f3 0f 11 04 24	 movss	 DWORD PTR [esp], xmm0
  00208	6a 03		 push	 3
  0020a	8d 86 b0 02 00
	00		 lea	 eax, DWORD PTR [esi+688]
  00210	50		 push	 eax
  00211	ff 75 b4	 push	 DWORD PTR _iAniID$524154[ebp]
  00214	8b cb		 mov	 ecx, ebx
  00216	e8 00 00 00 00	 call	 ?RefreshFireTimeList@ioBaseChar@@QAEXHABV?$vector@UWeaponInfo@@V?$allocator@UWeaponInfo@@@std@@@std@@W4FireTimeType@@MK_N@Z ; ioBaseChar::RefreshFireTimeList

; 496  : 			pOwner->IncreaseWeaponIndexBase();

  0021b	8b cb		 mov	 ecx, ebx
  0021d	e8 00 00 00 00	 call	 ?IncreaseWeaponIndexBase@ioBaseChar@@QAEKXZ ; ioBaseChar::IncreaseWeaponIndexBase

; 497  : 			//
; 498  : 			m_dwDashStartTime = dwCurTime;

  00222	8b 45 b0	 mov	 eax, DWORD PTR _dwCurTime$[ebp]

; 499  : 			m_dwDashEndTime = dwCurTime + dwPreDelay + dwEndDelay + pGrp->GetAnimationFullTime( iAniID ) * fTimeRate;

  00225	ff 75 b4	 push	 DWORD PTR _iAniID$524154[ebp]
  00228	8b 8d 44 ff ff
	ff		 mov	 ecx, DWORD PTR _pGrp$524153[ebp]
  0022e	89 86 dc 02 00
	00		 mov	 DWORD PTR [esi+732], eax
  00234	ff 15 00 00 00
	00		 call	 DWORD PTR __imp_?GetAnimationFullTime@ioEntityGroup@@QAEMH@Z
  0023a	d8 4d b8	 fmul	 DWORD PTR _fTimeRate$524155[ebp]
  0023d	8b 45 dc	 mov	 eax, DWORD PTR _dwEndDelay$524157[ebp]
  00240	03 c7		 add	 eax, edi
  00242	03 45 b0	 add	 eax, DWORD PTR _dwCurTime$[ebp]
  00245	89 45 dc	 mov	 DWORD PTR tv1450[ebp], eax
  00248	db 45 dc	 fild	 DWORD PTR tv1450[ebp]
  0024b	79 06		 jns	 SHORT $LN198@ApplyJump
  0024d	d8 05 00 00 00
	00		 fadd	 DWORD PTR __real@4f800000
$LN198@ApplyJump:
  00253	de c1		 faddp	 ST(1), ST(0)
  00255	e8 00 00 00 00	 call	 __ftol2

; 500  : 
; 501  : 			pOwner->CheckCharColSkipTime( iAniID, fTimeRate, dwPreDelay );

  0025a	f3 0f 10 45 b8	 movss	 xmm0, DWORD PTR _fTimeRate$524155[ebp]
  0025f	57		 push	 edi
  00260	51		 push	 ecx
  00261	f3 0f 11 04 24	 movss	 DWORD PTR [esp], xmm0
  00266	ff 75 b4	 push	 DWORD PTR _iAniID$524154[ebp]
  00269	8b cb		 mov	 ecx, ebx
  0026b	89 86 e0 02 00
	00		 mov	 DWORD PTR [esi+736], eax
  00271	e8 00 00 00 00	 call	 ?CheckCharColSkipTime@ioBaseChar@@QAEXHMK@Z ; ioBaseChar::CheckCharColSkipTime

; 502  : 
; 503  : 			pOwner->SetReservedSliding( m_DashJumpAttack.m_vForceInfoList, iAniID, fTimeRate, dwPreDelay );

  00276	f3 0f 10 05 00
	00 00 00	 movss	 xmm0, DWORD PTR __real@3f800000
  0027e	6a 01		 push	 1
  00280	51		 push	 ecx
  00281	f3 0f 11 04 24	 movss	 DWORD PTR [esp], xmm0
  00286	f3 0f 10 45 b8	 movss	 xmm0, DWORD PTR _fTimeRate$524155[ebp]
  0028b	57		 push	 edi
  0028c	51		 push	 ecx
  0028d	f3 0f 11 04 24	 movss	 DWORD PTR [esp], xmm0
  00292	ff 75 b4	 push	 DWORD PTR _iAniID$524154[ebp]
  00295	8d 86 c0 02 00
	00		 lea	 eax, DWORD PTR [esi+704]
  0029b	50		 push	 eax
  0029c	8b cb		 mov	 ecx, ebx
  0029e	e8 00 00 00 00	 call	 ?SetReservedSliding@ioBaseChar@@QAEXABV?$vector@UForceInfo@@V?$allocator@UForceInfo@@@std@@@std@@HMKM_N@Z ; ioBaseChar::SetReservedSliding

; 504  : 
; 505  : 			DWORD dwKeyReserveTime = dwCurTime + CheckKeyReserveTime( pOwner, iAniID, fTimeRate );

  002a3	f3 0f 10 45 b8	 movss	 xmm0, DWORD PTR _fTimeRate$524155[ebp]
  002a8	8b 06		 mov	 eax, DWORD PTR [esi]
  002aa	6a 00		 push	 0
  002ac	51		 push	 ecx
  002ad	f3 0f 11 04 24	 movss	 DWORD PTR [esp], xmm0
  002b2	ff 75 b4	 push	 DWORD PTR _iAniID$524154[ebp]
  002b5	8b ce		 mov	 ecx, esi
  002b7	53		 push	 ebx
  002b8	ff 90 84 00 00
	00		 call	 DWORD PTR [eax+132]
  002be	db 45 b0	 fild	 DWORD PTR _dwCurTime$[ebp]
  002c1	8b 45 b0	 mov	 eax, DWORD PTR _dwCurTime$[ebp]
  002c4	85 c0		 test	 eax, eax
  002c6	79 06		 jns	 SHORT $LN199@ApplyJump
  002c8	d8 05 00 00 00
	00		 fadd	 DWORD PTR __real@4f800000
$LN199@ApplyJump:
  002ce	de c1		 faddp	 ST(1), ST(0)
  002d0	e8 00 00 00 00	 call	 __ftol2
  002d5	6a 02		 push	 2
  002d7	59		 pop	 ecx
  002d8	6a 04		 push	 4
  002da	89 45 bc	 mov	 DWORD PTR _dwKeyReserveTime$524164[ebp], eax

; 506  : 
; 507  : 			DWORD dwTrackingTime = dwCurTime;
; 508  : 			dwTrackingTime += pGrp->GetAnimationEventTime_e( iAniID, "tracking_e" ) * fTimeRate;

  002dd	c7 45 e0 99 9e
	8a 89		 mov	 DWORD PTR _szEncEventType$530816[ebp], -1987404135 ; 898a9e99H
  002e4	c7 45 e4 86 85
	85 8d		 mov	 DWORD PTR _szEncEventType$530816[ebp+4], -1920629370 ; 8d858586H
  002eb	66 c7 45 e8 b2
	89		 mov	 WORD PTR _szEncEventType$530816[ebp+8], 35250 ; 000089b2H
  002f1	8d 45 e0	 lea	 eax, DWORD PTR _szEncEventType$530816[ebp]
  002f4	c6 45 ea 00	 mov	 BYTE PTR _szEncEventType$530816[ebp+10], 0
  002f8	5f		 pop	 edi
$LL173@ApplyJump:
  002f9	81 30 ed ec eb
	ea		 xor	 DWORD PTR [eax], -353637139 ; eaebecedH
  002ff	03 c7		 add	 eax, edi
  00301	49		 dec	 ecx
  00302	75 f5		 jne	 SHORT $LL173@ApplyJump
  00304	6a 08		 push	 8
  00306	58		 pop	 eax
$LL170@ApplyJump:
  00307	8b c8		 mov	 ecx, eax
  00309	81 e1 03 00 00
	80		 and	 ecx, -2147483645	; 80000003H
  0030f	79 05		 jns	 SHORT $LN200@ApplyJump
  00311	49		 dec	 ecx
  00312	83 c9 fc	 or	 ecx, -4			; fffffffcH
  00315	41		 inc	 ecx
$LN200@ApplyJump:
  00316	b2 ed		 mov	 dl, -19			; ffffffedH
  00318	2a d1		 sub	 dl, cl
  0031a	30 54 05 e0	 xor	 BYTE PTR _szEncEventType$530816[ebp+eax], dl
  0031e	40		 inc	 eax
  0031f	83 f8 0a	 cmp	 eax, 10			; 0000000aH
  00322	7c e3		 jl	 SHORT $LL170@ApplyJump
  00324	8d 45 e0	 lea	 eax, DWORD PTR _szEncEventType$530816[ebp]
  00327	50		 push	 eax
  00328	8d 8d 20 ff ff
	ff		 lea	 ecx, DWORD PTR $T530830[ebp]
  0032e	ff 15 00 00 00
	00		 call	 DWORD PTR __imp_??0ioHashString@@QAE@PBD@Z
  00334	8b 8d 44 ff ff
	ff		 mov	 ecx, DWORD PTR _pGrp$524153[ebp]
  0033a	8d 85 20 ff ff
	ff		 lea	 eax, DWORD PTR $T530830[ebp]
  00340	50		 push	 eax
  00341	ff 75 b4	 push	 DWORD PTR _iAniID$524154[ebp]
  00344	89 7d fc	 mov	 DWORD PTR __$EHRec$[ebp+8], edi
  00347	ff 15 00 00 00
	00		 call	 DWORD PTR __imp_?GetAnimationEventTime@ioEntityGroup@@QAEMHABVioHashString@@@Z
  0034d	d9 5d dc	 fstp	 DWORD PTR $T530828[ebp]
  00350	83 4d fc ff	 or	 DWORD PTR __$EHRec$[ebp+8], -1
  00354	8d 8d 20 ff ff
	ff		 lea	 ecx, DWORD PTR $T530830[ebp]
  0035a	ff 15 00 00 00
	00		 call	 DWORD PTR __imp_??1ioHashString@@QAE@XZ
  00360	d9 45 dc	 fld	 DWORD PTR $T530828[ebp]
  00363	8b 45 b0	 mov	 eax, DWORD PTR _dwCurTime$[ebp]
  00366	d8 4d b8	 fmul	 DWORD PTR _fTimeRate$524155[ebp]
  00369	db 45 b0	 fild	 DWORD PTR _dwCurTime$[ebp]
  0036c	85 c0		 test	 eax, eax
  0036e	79 06		 jns	 SHORT $LN201@ApplyJump
  00370	dc 05 00 00 00
	00		 fadd	 QWORD PTR __real@41f0000000000000
$LN201@ApplyJump:
  00376	de c1		 faddp	 ST(1), ST(0)
  00378	e8 00 00 00 00	 call	 __ftol2

; 509  : 			pOwner->SetAutoTargetTrackingEndTime( dwTrackingTime );

  0037d	50		 push	 eax
  0037e	8b cb		 mov	 ecx, ebx
  00380	e8 00 00 00 00	 call	 ?SetAutoTargetTrackingEndTime@ioBaseChar@@QAEXK@Z ; ioBaseChar::SetAutoTargetTrackingEndTime

; 510  : 
; 511  : 			m_bUseExtendJump = true;
; 512  : 
; 513  : 			pOwner->SetEnableHide( false );

  00385	83 ec 10	 sub	 esp, 16			; 00000010H
  00388	8b cc		 mov	 ecx, esp
  0038a	89 65 dc	 mov	 DWORD PTR $T530702[ebp], esp
  0038d	bf 00 00 00 00	 mov	 edi, OFFSET ??_C@_00CNPNBAHC@?$AA@
  00392	57		 push	 edi
  00393	c6 46 10 01	 mov	 BYTE PTR [esi+16], 1
  00397	ff 15 00 00 00
	00		 call	 DWORD PTR __imp_??0ioHashString@@QAE@PBD@Z
  0039d	83 ec 10	 sub	 esp, 16			; 00000010H
  003a0	8b cc		 mov	 ecx, esp
  003a2	89 a5 48 ff ff
	ff		 mov	 DWORD PTR $T530703[ebp], esp
  003a8	57		 push	 edi
  003a9	c7 45 fc 05 00
	00 00		 mov	 DWORD PTR __$EHRec$[ebp+8], 5
  003b0	ff 15 00 00 00
	00		 call	 DWORD PTR __imp_??0ioHashString@@QAE@PBD@Z
  003b6	83 4d fc ff	 or	 DWORD PTR __$EHRec$[ebp+8], -1
  003ba	6a 00		 push	 0
  003bc	8b cb		 mov	 ecx, ebx
  003be	e8 00 00 00 00	 call	 ?SetEnableHide@ioBaseChar@@QAEX_NVioHashString@@1@Z ; ioBaseChar::SetEnableHide

; 514  : 			pOwner->SetNoWoundState( false );

  003c3	6a 00		 push	 0
  003c5	8b cb		 mov	 ecx, ebx
  003c7	e8 00 00 00 00	 call	 ?SetNoWoundState@ioBaseChar@@QAEX_N@Z ; ioBaseChar::SetNoWoundState

; 515  : 			pOwner->SetEnableChangeTeam( false );

  003cc	6a 00		 push	 0
  003ce	8b cb		 mov	 ecx, ebx
  003d0	e8 00 00 00 00	 call	 ?SetEnableChangeTeam@ioBaseChar@@QAEX_N@Z ; ioBaseChar::SetEnableChangeTeam

; 516  : 
; 517  : 			pOwner->SetChangeJumpMotion( false, "", "", "", 0.0f );

  003d5	57		 push	 edi
  003d6	8d 4d 90	 lea	 ecx, DWORD PTR $T530704[ebp]
  003d9	ff 15 00 00 00
	00		 call	 DWORD PTR __imp_??0ioHashString@@QAE@PBD@Z
  003df	57		 push	 edi
  003e0	8d 8d 60 ff ff
	ff		 lea	 ecx, DWORD PTR $T530705[ebp]
  003e6	c7 45 fc 06 00
	00 00		 mov	 DWORD PTR __$EHRec$[ebp+8], 6
  003ed	ff 15 00 00 00
	00		 call	 DWORD PTR __imp_??0ioHashString@@QAE@PBD@Z
  003f3	57		 push	 edi
  003f4	8d 4d a0	 lea	 ecx, DWORD PTR $T530706[ebp]
  003f7	c6 45 fc 07	 mov	 BYTE PTR __$EHRec$[ebp+8], 7
  003fb	ff 15 00 00 00
	00		 call	 DWORD PTR __imp_??0ioHashString@@QAE@PBD@Z
  00401	0f 57 c0	 xorps	 xmm0, xmm0
  00404	51		 push	 ecx
  00405	f3 0f 11 04 24	 movss	 DWORD PTR [esp], xmm0
  0040a	8d 45 90	 lea	 eax, DWORD PTR $T530704[ebp]
  0040d	50		 push	 eax
  0040e	8d 85 60 ff ff
	ff		 lea	 eax, DWORD PTR $T530705[ebp]
  00414	50		 push	 eax
  00415	8d 45 a0	 lea	 eax, DWORD PTR $T530706[ebp]
  00418	50		 push	 eax
  00419	6a 00		 push	 0
  0041b	8b cb		 mov	 ecx, ebx
  0041d	c6 45 fc 08	 mov	 BYTE PTR __$EHRec$[ebp+8], 8
  00421	e8 00 00 00 00	 call	 ?SetChangeJumpMotion@ioBaseChar@@QAEX_NABVioHashString@@11M@Z ; ioBaseChar::SetChangeJumpMotion
  00426	8b 3d 00 00 00
	00		 mov	 edi, DWORD PTR __imp_??1ioHashString@@QAE@XZ
  0042c	8d 4d a0	 lea	 ecx, DWORD PTR $T530706[ebp]
  0042f	c6 45 fc 07	 mov	 BYTE PTR __$EHRec$[ebp+8], 7
  00433	ff d7		 call	 edi
  00435	8d 8d 60 ff ff
	ff		 lea	 ecx, DWORD PTR $T530705[ebp]
  0043b	c6 45 fc 06	 mov	 BYTE PTR __$EHRec$[ebp+8], 6
  0043f	ff d7		 call	 edi
  00441	83 4d fc ff	 or	 DWORD PTR __$EHRec$[ebp+8], -1
  00445	8d 4d 90	 lea	 ecx, DWORD PTR $T530704[ebp]
  00448	ff d7		 call	 edi

; 518  : 
; 519  : 			pOwner->SetGravityAmt( 0.0f );

  0044a	0f 57 c0	 xorps	 xmm0, xmm0
  0044d	8d 45 dc	 lea	 eax, DWORD PTR _value$530937[ebp]
  00450	50		 push	 eax
  00451	8d 8b e8 0b 00
	00		 lea	 ecx, DWORD PTR [ebx+3048]
  00457	f3 0f 11 45 dc	 movss	 DWORD PTR _value$530937[ebp], xmm0
  0045c	e8 00 00 00 00	 call	 ?EncryptValueToPool@?$CEncrypt@M@@AAEXPBD@Z ; CEncrypt<float>::EncryptValueToPool

; 520  : 			pOwner->SetForcePowerAmt( 0.0f );

  00461	0f 57 c0	 xorps	 xmm0, xmm0
  00464	8d 85 30 ff ff
	ff		 lea	 eax, DWORD PTR _value$530947[ebp]
  0046a	50		 push	 eax
  0046b	8d 8b 88 0b 00
	00		 lea	 ecx, DWORD PTR [ebx+2952]
  00471	f3 0f 11 85 30
	ff ff ff	 movss	 DWORD PTR _value$530947[ebp], xmm0
  00479	e8 00 00 00 00	 call	 ?EncryptValueToPool@?$CEncrypt@M@@AAEXPBD@Z ; CEncrypt<float>::EncryptValueToPool

; 521  : 			pOwner->SetCurJumpPowerAmt( 0.0f );

  0047e	0f 57 c0	 xorps	 xmm0, xmm0
  00481	f3 0f 11 83 90
	0e 00 00	 movss	 DWORD PTR [ebx+3728], xmm0

; 522  : 
; 523  : 			m_JumpState = PJS_DASH;

  00489	c7 86 24 01 00
	00 05 00 00 00	 mov	 DWORD PTR [esi+292], 5

; 524  : 			pOwner->SetComboDashState();

  00493	8b cb		 mov	 ecx, ebx
  00495	e8 00 00 00 00	 call	 ?SetComboDashState@ioBaseChar@@QAEXXZ ; ioBaseChar::SetComboDashState

; 525  : 
; 526  : 			pOwner->ApplyAutoTargetInfo( rkPacket );

  0049a	ff 75 c0	 push	 DWORD PTR _rkPacket$GSCopy$[ebp]
  0049d	8b cb		 mov	 ecx, ebx
  0049f	e8 00 00 00 00	 call	 ?ApplyAutoTargetInfo@ioBaseChar@@QAEXAAVSP2Packet@@@Z ; ioBaseChar::ApplyAutoTargetInfo

; 527  : 
; 528  : 			if( m_bUseNewJumpTypeDash )

  004a4	80 be f8 02 00
	00 00		 cmp	 BYTE PTR [esi+760], 0
  004ab	0f 84 f2 02 00
	00		 je	 $LN7@ApplyJump

; 529  : 			{
; 530  : 				SetNewJumpTypeDashAttack( pOwner, m_dwDashEndTime, dwKeyReserveTime );

  004b1	ff 75 bc	 push	 DWORD PTR _dwKeyReserveTime$524164[ebp]
  004b4	8b ce		 mov	 ecx, esi
  004b6	ff b6 e0 02 00
	00		 push	 DWORD PTR [esi+736]
  004bc	53		 push	 ebx
  004bd	e8 00 00 00 00	 call	 ?SetNewJumpTypeDashAttack@ioPowerChargeJump@@IAEXPAVioBaseChar@@KK@Z ; ioPowerChargeJump::SetNewJumpTypeDashAttack

; 531  : 			}
; 532  : 		}
; 533  : 		break;

  004c2	e9 dc 02 00 00	 jmp	 $LN7@ApplyJump
$LN3@ApplyJump:

; 453  : 	case PJS_EXTEND_ATTACK:
; 454  : 		{
; 455  : 			D3DXQUATERNION qtRot;
; 456  : 			rkPacket >> qtRot;

  004c7	8b 4d c0	 mov	 ecx, DWORD PTR _rkPacket$GSCopy$[ebp]
  004ca	8d 85 20 ff ff
	ff		 lea	 eax, DWORD PTR _qtRot$524147[ebp]
  004d0	50		 push	 eax
  004d1	e8 00 00 00 00	 call	 ??5SP2Packet@@QAEAAV0@AAUD3DXQUATERNION@@@Z ; SP2Packet::operator>>

; 457  : 
; 458  : 			D3DXVECTOR3 vMoveDir, vInputDir;
; 459  : 			rkPacket >> vMoveDir >> vInputDir;

  004d6	8b 4d c0	 mov	 ecx, DWORD PTR _rkPacket$GSCopy$[ebp]
  004d9	8d 45 d4	 lea	 eax, DWORD PTR _vInputDir$524149[ebp]
  004dc	50		 push	 eax
  004dd	8d 45 e4	 lea	 eax, DWORD PTR _vMoveDir$524148[ebp]
  004e0	50		 push	 eax
  004e1	e8 00 00 00 00	 call	 ??5SP2Packet@@QAEAAV0@AAUD3DXVECTOR3@@@Z ; SP2Packet::operator>>
  004e6	8b c8		 mov	 ecx, eax
  004e8	e8 00 00 00 00	 call	 ??5SP2Packet@@QAEAAV0@AAUD3DXVECTOR3@@@Z ; SP2Packet::operator>>

; 460  : 
; 461  : 			pOwner->SetJumpAttckTargetRot( qtRot, vMoveDir, vInputDir );

  004ed	8d 45 d4	 lea	 eax, DWORD PTR _vInputDir$524149[ebp]
  004f0	50		 push	 eax
  004f1	8d 45 e4	 lea	 eax, DWORD PTR _vMoveDir$524148[ebp]
  004f4	50		 push	 eax
  004f5	8d 85 20 ff ff
	ff		 lea	 eax, DWORD PTR _qtRot$524147[ebp]
  004fb	50		 push	 eax
  004fc	8b cb		 mov	 ecx, ebx
  004fe	e8 00 00 00 00	 call	 ?SetJumpAttckTargetRot@ioBaseChar@@QAEXABUD3DXQUATERNION@@ABUD3DXVECTOR3@@1@Z ; ioBaseChar::SetJumpAttckTargetRot

; 462  : 
; 463  : 			ChangeToPowerChargeJumpAttack( pOwner );

  00503	53		 push	 ebx
  00504	8b ce		 mov	 ecx, esi
  00506	e8 00 00 00 00	 call	 ?ChangeToPowerChargeJumpAttack@ioPowerChargeJump@@IAEXPAVioBaseChar@@@Z ; ioPowerChargeJump::ChangeToPowerChargeJumpAttack

; 464  : 		}
; 465  : 		break;

  0050b	e9 93 02 00 00	 jmp	 $LN7@ApplyJump
$LN4@ApplyJump:

; 440  : 	case PJS_NORMAL_ATTACK:
; 441  : 		{
; 442  : 			D3DXQUATERNION qtRot;
; 443  : 			rkPacket >> qtRot;

  00510	8b 4d c0	 mov	 ecx, DWORD PTR _rkPacket$GSCopy$[ebp]
  00513	8d 85 20 ff ff
	ff		 lea	 eax, DWORD PTR _qtRot$524143[ebp]
  00519	50		 push	 eax
  0051a	e8 00 00 00 00	 call	 ??5SP2Packet@@QAEAAV0@AAUD3DXQUATERNION@@@Z ; SP2Packet::operator>>

; 444  : 
; 445  : 			D3DXVECTOR3 vMoveDir, vInputDir;
; 446  : 			rkPacket >> vMoveDir >> vInputDir;

  0051f	8b 4d c0	 mov	 ecx, DWORD PTR _rkPacket$GSCopy$[ebp]
  00522	8d 45 e4	 lea	 eax, DWORD PTR _vInputDir$524145[ebp]
  00525	50		 push	 eax
  00526	8d 45 d4	 lea	 eax, DWORD PTR _vMoveDir$524144[ebp]
  00529	50		 push	 eax
  0052a	e8 00 00 00 00	 call	 ??5SP2Packet@@QAEAAV0@AAUD3DXVECTOR3@@@Z ; SP2Packet::operator>>
  0052f	8b c8		 mov	 ecx, eax
  00531	e8 00 00 00 00	 call	 ??5SP2Packet@@QAEAAV0@AAUD3DXVECTOR3@@@Z ; SP2Packet::operator>>

; 447  : 
; 448  : 			pOwner->SetJumpAttckTargetRot( qtRot, vMoveDir, vInputDir );

  00536	8d 45 e4	 lea	 eax, DWORD PTR _vInputDir$524145[ebp]
  00539	50		 push	 eax
  0053a	8d 45 d4	 lea	 eax, DWORD PTR _vMoveDir$524144[ebp]
  0053d	50		 push	 eax
  0053e	8d 85 20 ff ff
	ff		 lea	 eax, DWORD PTR _qtRot$524143[ebp]
  00544	50		 push	 eax
  00545	8b cb		 mov	 ecx, ebx
  00547	e8 00 00 00 00	 call	 ?SetJumpAttckTargetRot@ioBaseChar@@QAEXABUD3DXQUATERNION@@ABUD3DXVECTOR3@@1@Z ; ioBaseChar::SetJumpAttckTargetRot

; 449  : 
; 450  : 			ChangeToNormalJumpAttack( pOwner );

  0054c	53		 push	 ebx
  0054d	8b ce		 mov	 ecx, esi
  0054f	e8 00 00 00 00	 call	 ?ChangeToNormalJumpAttack@ioPowerChargeJump@@IAEXPAVioBaseChar@@@Z ; ioPowerChargeJump::ChangeToNormalJumpAttack

; 451  : 		}
; 452  : 		break;

  00554	e9 4a 02 00 00	 jmp	 $LN7@ApplyJump
$LN5@ApplyJump:

; 434  : 
; 435  : 		}
; 436  : 		break;
; 437  : 	case PJS_GATHERING:
; 438  : 		ChangeToGathering( pOwner );

  00559	53		 push	 ebx
  0055a	8b ce		 mov	 ecx, esi
  0055c	e8 00 00 00 00	 call	 ?ChangeToGathering@ioPowerChargeJump@@IAEXPAVioBaseChar@@@Z ; ioPowerChargeJump::ChangeToGathering

; 439  : 		break;

  00561	e9 3d 02 00 00	 jmp	 $LN7@ApplyJump
$LN6@ApplyJump:

; 402  : 	{
; 403  : 	case PJS_CHARGING:
; 404  : 		{
; 405  : 			D3DXQUATERNION qtRot;
; 406  : 			rkPacket >> qtRot;

  00566	8b 4d c0	 mov	 ecx, DWORD PTR _rkPacket$GSCopy$[ebp]
  00569	8d 45 e0	 lea	 eax, DWORD PTR _qtRot$524126[ebp]
  0056c	50		 push	 eax
  0056d	e8 00 00 00 00	 call	 ??5SP2Packet@@QAEAAV0@AAUD3DXQUATERNION@@@Z ; SP2Packet::operator>>

; 407  : 			pOwner->SetTargetRot( qtRot );

  00572	8d 45 e0	 lea	 eax, DWORD PTR _qtRot$524126[ebp]
  00575	50		 push	 eax
  00576	8b cb		 mov	 ecx, ebx
  00578	e8 00 00 00 00	 call	 ?SetTargetRot@ioBaseChar@@QAEXABUD3DXQUATERNION@@@Z ; ioBaseChar::SetTargetRot

; 408  : 			
; 409  : 			pGrp->ClearAllLoopAni( FLOAT100, true );

  0057d	b8 64 00 00 00	 mov	 eax, 100		; 00000064H
  00582	89 45 dc	 mov	 DWORD PTR tv1387[ebp], eax
  00585	db 45 dc	 fild	 DWORD PTR tv1387[ebp]
  00588	6a 01		 push	 1
  0058a	85 c0		 test	 eax, eax
  0058c	79 06		 jns	 SHORT $LN202@ApplyJump
  0058e	d8 05 00 00 00
	00		 fadd	 DWORD PTR __real@4f800000
$LN202@ApplyJump:
  00594	51		 push	 ecx
  00595	8b cf		 mov	 ecx, edi
  00597	d9 1c 24	 fstp	 DWORD PTR [esp]
  0059a	ff 15 00 00 00
	00		 call	 DWORD PTR __imp_?ClearAllLoopAni@ioEntityGroup@@QAEXM_N@Z

; 410  : 			pGrp->ClearAllActionAni( FLOAT100, true );

  005a0	b8 64 00 00 00	 mov	 eax, 100		; 00000064H
  005a5	89 45 dc	 mov	 DWORD PTR tv1382[ebp], eax
  005a8	db 45 dc	 fild	 DWORD PTR tv1382[ebp]
  005ab	6a 01		 push	 1
  005ad	85 c0		 test	 eax, eax
  005af	79 06		 jns	 SHORT $LN203@ApplyJump
  005b1	d8 05 00 00 00
	00		 fadd	 DWORD PTR __real@4f800000
$LN203@ApplyJump:
  005b7	51		 push	 ecx
  005b8	8b cf		 mov	 ecx, edi
  005ba	d9 1c 24	 fstp	 DWORD PTR [esp]
  005bd	ff 15 00 00 00
	00		 call	 DWORD PTR __imp_?ClearAllActionAni@ioEntityGroup@@QAEXM_N@Z

; 411  : 
; 412  : 			pOwner->SetAutoTarget( ATT_JUMP );

  005c3	6a 03		 push	 3
  005c5	8b cb		 mov	 ecx, ebx
  005c7	e8 00 00 00 00	 call	 ?SetAutoTarget@ioBaseChar@@QAEXW4AutoTargetType@@@Z ; ioBaseChar::SetAutoTarget

; 413  : 
; 414  : 			int iAniID = pGrp->GetAnimationIdx( m_szChargingAni );

  005cc	8d 86 24 02 00
	00		 lea	 eax, DWORD PTR [esi+548]
  005d2	50		 push	 eax
  005d3	8b cf		 mov	 ecx, edi
  005d5	ff 15 00 00 00
	00		 call	 DWORD PTR __imp_?GetAnimationIdx@ioEntityGroup@@QAEHABVioHashString@@@Z

; 415  : 			float fTimeRate = (float)m_dwChargingTime / pGrp->GetAnimationFullTime( iAniID );

  005db	db 86 20 02 00
	00		 fild	 DWORD PTR [esi+544]
  005e1	8b 8e 20 02 00
	00		 mov	 ecx, DWORD PTR [esi+544]
  005e7	89 85 48 ff ff
	ff		 mov	 DWORD PTR _iAniID$524129[ebp], eax
  005ed	85 c9		 test	 ecx, ecx
  005ef	79 06		 jns	 SHORT $LN204@ApplyJump
  005f1	d8 05 00 00 00
	00		 fadd	 DWORD PTR __real@4f800000
$LN204@ApplyJump:
  005f7	50		 push	 eax
  005f8	dd 5d d8	 fstp	 QWORD PTR tv564[ebp]
  005fb	8b cf		 mov	 ecx, edi
  005fd	ff 15 00 00 00
	00		 call	 DWORD PTR __imp_?GetAnimationFullTime@ioEntityGroup@@QAEMH@Z
  00603	dc 7d d8	 fdivr	 QWORD PTR tv564[ebp]
  00606	d9 5d dc	 fstp	 DWORD PTR _fTimeRate$524130[ebp]

; 416  : 			pGrp->SetActionAni( iAniID, FLOAT100, FLOAT100, FLOAT1, FLOAT1/fTimeRate, 0.0f, 0.0f, true );

  00609	b8 01 00 00 00	 mov	 eax, 1
  0060e	8b c8		 mov	 ecx, eax
  00610	b8 01 00 00 00	 mov	 eax, 1
  00615	8b d0		 mov	 edx, eax
  00617	b8 64 00 00 00	 mov	 eax, 100		; 00000064H
  0061c	89 45 bc	 mov	 DWORD PTR $T530742[ebp], eax
  0061f	b8 64 00 00 00	 mov	 eax, 100		; 00000064H
  00624	0f 57 c0	 xorps	 xmm0, xmm0
  00627	6a 01		 push	 1
  00629	6a 01		 push	 1
  0062b	83 ec 18	 sub	 esp, 24			; 00000018H
  0062e	89 8d 4c ff ff
	ff		 mov	 DWORD PTR tv1365[ebp], ecx
  00634	db 85 4c ff ff
	ff		 fild	 DWORD PTR tv1365[ebp]
  0063a	f3 0f 11 44 24
	14		 movss	 DWORD PTR [esp+20], xmm0
  00640	f3 0f 11 44 24
	10		 movss	 DWORD PTR [esp+16], xmm0
  00646	85 c9		 test	 ecx, ecx
  00648	79 06		 jns	 SHORT $LN205@ApplyJump
  0064a	d8 05 00 00 00
	00		 fadd	 DWORD PTR __real@4f800000
$LN205@ApplyJump:
  00650	d8 75 dc	 fdiv	 DWORD PTR _fTimeRate$524130[ebp]
  00653	d9 5d dc	 fstp	 DWORD PTR tv1362[ebp]
  00656	d9 45 dc	 fld	 DWORD PTR tv1362[ebp]
  00659	d9 5c 24 0c	 fstp	 DWORD PTR [esp+12]
  0065d	89 55 dc	 mov	 DWORD PTR tv1360[ebp], edx
  00660	db 45 dc	 fild	 DWORD PTR tv1360[ebp]
  00663	85 d2		 test	 edx, edx
  00665	79 06		 jns	 SHORT $LN206@ApplyJump
  00667	d8 05 00 00 00
	00		 fadd	 DWORD PTR __real@4f800000
$LN206@ApplyJump:
  0066d	8b 4d bc	 mov	 ecx, DWORD PTR $T530742[ebp]
  00670	d9 5c 24 08	 fstp	 DWORD PTR [esp+8]
  00674	db 45 bc	 fild	 DWORD PTR $T530742[ebp]
  00677	85 c9		 test	 ecx, ecx
  00679	79 06		 jns	 SHORT $LN207@ApplyJump
  0067b	d8 05 00 00 00
	00		 fadd	 DWORD PTR __real@4f800000
$LN207@ApplyJump:
  00681	d9 5c 24 04	 fstp	 DWORD PTR [esp+4]
  00685	89 45 dc	 mov	 DWORD PTR tv1356[ebp], eax
  00688	db 45 dc	 fild	 DWORD PTR tv1356[ebp]
  0068b	85 c0		 test	 eax, eax
  0068d	79 06		 jns	 SHORT $LN208@ApplyJump
  0068f	d8 05 00 00 00
	00		 fadd	 DWORD PTR __real@4f800000
$LN208@ApplyJump:
  00695	d9 1c 24	 fstp	 DWORD PTR [esp]
  00698	ff b5 48 ff ff
	ff		 push	 DWORD PTR _iAniID$524129[ebp]
  0069e	8b cf		 mov	 ecx, edi
  006a0	ff 15 00 00 00
	00		 call	 DWORD PTR __imp_?SetActionAni@ioEntityGroup@@QAE_NHMMMMMM_N0@Z

; 417  : 
; 418  : 			pOwner->SetAutoTargetTrackingEndTime( dwCurTime );

  006a6	ff 75 b0	 push	 DWORD PTR _dwCurTime$[ebp]
  006a9	8b cb		 mov	 ecx, ebx
  006ab	e8 00 00 00 00	 call	 ?SetAutoTargetTrackingEndTime@ioBaseChar@@QAEXK@Z ; ioBaseChar::SetAutoTargetTrackingEndTime

; 419  : 
; 420  : 			m_bUseExtendJump = true;
; 421  : 			m_bUseExtendJumpAttack = false;
; 422  : 
; 423  : 			pOwner->SetEnableHide( false );

  006b0	83 ec 10	 sub	 esp, 16			; 00000010H
  006b3	8b cc		 mov	 ecx, esp
  006b5	89 65 dc	 mov	 DWORD PTR $T530697[ebp], esp
  006b8	bf 00 00 00 00	 mov	 edi, OFFSET ??_C@_00CNPNBAHC@?$AA@
  006bd	57		 push	 edi
  006be	c6 46 10 01	 mov	 BYTE PTR [esi+16], 1
  006c2	c6 86 19 02 00
	00 00		 mov	 BYTE PTR [esi+537], 0
  006c9	ff 15 00 00 00
	00		 call	 DWORD PTR __imp_??0ioHashString@@QAE@PBD@Z
  006cf	83 65 fc 00	 and	 DWORD PTR __$EHRec$[ebp+8], 0
  006d3	83 ec 10	 sub	 esp, 16			; 00000010H
  006d6	8b cc		 mov	 ecx, esp
  006d8	89 65 bc	 mov	 DWORD PTR $T530698[ebp], esp
  006db	57		 push	 edi
  006dc	ff 15 00 00 00
	00		 call	 DWORD PTR __imp_??0ioHashString@@QAE@PBD@Z
  006e2	83 4d fc ff	 or	 DWORD PTR __$EHRec$[ebp+8], -1
  006e6	6a 00		 push	 0
  006e8	8b cb		 mov	 ecx, ebx
  006ea	e8 00 00 00 00	 call	 ?SetEnableHide@ioBaseChar@@QAEX_NVioHashString@@1@Z ; ioBaseChar::SetEnableHide

; 424  : 			pOwner->SetNoWoundState( false );

  006ef	6a 00		 push	 0
  006f1	8b cb		 mov	 ecx, ebx
  006f3	e8 00 00 00 00	 call	 ?SetNoWoundState@ioBaseChar@@QAEX_N@Z ; ioBaseChar::SetNoWoundState

; 425  : 			pOwner->SetEnableChangeTeam( false );

  006f8	6a 00		 push	 0
  006fa	8b cb		 mov	 ecx, ebx
  006fc	e8 00 00 00 00	 call	 ?SetEnableChangeTeam@ioBaseChar@@QAEX_N@Z ; ioBaseChar::SetEnableChangeTeam

; 426  : 
; 427  : 			pOwner->SetChangeJumpMotion( false, "", "", "", 0.0f );

  00701	57		 push	 edi
  00702	8d 4d 80	 lea	 ecx, DWORD PTR $T530699[ebp]
  00705	ff 15 00 00 00
	00		 call	 DWORD PTR __imp_??0ioHashString@@QAE@PBD@Z
  0070b	57		 push	 edi
  0070c	8d 8d 50 ff ff
	ff		 lea	 ecx, DWORD PTR $T530700[ebp]
  00712	c7 45 fc 01 00
	00 00		 mov	 DWORD PTR __$EHRec$[ebp+8], 1
  00719	ff 15 00 00 00
	00		 call	 DWORD PTR __imp_??0ioHashString@@QAE@PBD@Z
  0071f	57		 push	 edi
  00720	8d 8d 70 ff ff
	ff		 lea	 ecx, DWORD PTR $T530701[ebp]
  00726	c6 45 fc 02	 mov	 BYTE PTR __$EHRec$[ebp+8], 2
  0072a	ff 15 00 00 00
	00		 call	 DWORD PTR __imp_??0ioHashString@@QAE@PBD@Z
  00730	0f 57 c0	 xorps	 xmm0, xmm0
  00733	51		 push	 ecx
  00734	f3 0f 11 04 24	 movss	 DWORD PTR [esp], xmm0
  00739	8d 45 80	 lea	 eax, DWORD PTR $T530699[ebp]
  0073c	50		 push	 eax
  0073d	8d 85 50 ff ff
	ff		 lea	 eax, DWORD PTR $T530700[ebp]
  00743	50		 push	 eax
  00744	8d 85 70 ff ff
	ff		 lea	 eax, DWORD PTR $T530701[ebp]
  0074a	50		 push	 eax
  0074b	6a 00		 push	 0
  0074d	8b cb		 mov	 ecx, ebx
  0074f	c6 45 fc 03	 mov	 BYTE PTR __$EHRec$[ebp+8], 3
  00753	e8 00 00 00 00	 call	 ?SetChangeJumpMotion@ioBaseChar@@QAEX_NABVioHashString@@11M@Z ; ioBaseChar::SetChangeJumpMotion
  00758	8b 3d 00 00 00
	00		 mov	 edi, DWORD PTR __imp_??1ioHashString@@QAE@XZ
  0075e	8d 8d 70 ff ff
	ff		 lea	 ecx, DWORD PTR $T530701[ebp]
  00764	c6 45 fc 02	 mov	 BYTE PTR __$EHRec$[ebp+8], 2
  00768	ff d7		 call	 edi
  0076a	8d 8d 50 ff ff
	ff		 lea	 ecx, DWORD PTR $T530700[ebp]
  00770	c6 45 fc 01	 mov	 BYTE PTR __$EHRec$[ebp+8], 1
  00774	ff d7		 call	 edi
  00776	83 4d fc ff	 or	 DWORD PTR __$EHRec$[ebp+8], -1
  0077a	8d 4d 80	 lea	 ecx, DWORD PTR $T530699[ebp]
  0077d	ff d7		 call	 edi

; 428  : 			pOwner->SetJumpAttackState();

  0077f	8b cb		 mov	 ecx, ebx
  00781	e8 00 00 00 00	 call	 ?SetJumpAttackState@ioBaseChar@@QAEXXZ ; ioBaseChar::SetJumpAttackState

; 429  : 
; 430  : 			m_JumpState = PJS_CHARGING;
; 431  : 			m_dwChargingStartTime = dwCurTime;

  00786	8b 45 b0	 mov	 eax, DWORD PTR _dwCurTime$[ebp]

; 432  : 
; 433  : 			pOwner->ApplyAutoTargetInfo( rkPacket );

  00789	ff 75 c0	 push	 DWORD PTR _rkPacket$GSCopy$[ebp]
  0078c	8b cb		 mov	 ecx, ebx
  0078e	c7 86 24 01 00
	00 01 00 00 00	 mov	 DWORD PTR [esi+292], 1
  00798	89 86 1c 02 00
	00		 mov	 DWORD PTR [esi+540], eax
  0079e	e8 00 00 00 00	 call	 ?ApplyAutoTargetInfo@ioBaseChar@@QAEXAAVSP2Packet@@@Z ; ioBaseChar::ApplyAutoTargetInfo
$LN7@ApplyJump:

; 534  : 	}
; 535  : }

  007a3	e8 00 00 00 00	 call	 __EH_epilog3_GS
  007a8	c2 08 00	 ret	 8
_TEXT	ENDS
;	COMDAT text$x
text$x	SEGMENT
__unwindfunclet$?ApplyJump@ioPowerChargeJump@@UAEXPAVioBaseChar@@AAVSP2Packet@@@Z$10:
  00000	8d 8d 20 ff ff
	ff		 lea	 ecx, DWORD PTR $T530830[ebp]
  00006	ff 25 00 00 00
	00		 jmp	 DWORD PTR __imp_??1ioHashString@@QAE@XZ
__unwindfunclet$?ApplyJump@ioPowerChargeJump@@UAEXPAVioBaseChar@@AAVSP2Packet@@@Z$5:
  0000c	8b 4d dc	 mov	 ecx, DWORD PTR $T530702[ebp]
  0000f	ff 25 00 00 00
	00		 jmp	 DWORD PTR __imp_??1ioHashString@@QAE@XZ
__unwindfunclet$?ApplyJump@ioPowerChargeJump@@UAEXPAVioBaseChar@@AAVSP2Packet@@@Z$7:
  00015	8d 4d 90	 lea	 ecx, DWORD PTR $T530704[ebp]
  00018	ff 25 00 00 00
	00		 jmp	 DWORD PTR __imp_??1ioHashString@@QAE@XZ
__unwindfunclet$?ApplyJump@ioPowerChargeJump@@UAEXPAVioBaseChar@@AAVSP2Packet@@@Z$8:
  0001e	8d 8d 60 ff ff
	ff		 lea	 ecx, DWORD PTR $T530705[ebp]
  00024	ff 25 00 00 00
	00		 jmp	 DWORD PTR __imp_??1ioHashString@@QAE@XZ
__unwindfunclet$?ApplyJump@ioPowerChargeJump@@UAEXPAVioBaseChar@@AAVSP2Packet@@@Z$9:
  0002a	8d 4d a0	 lea	 ecx, DWORD PTR $T530706[ebp]
  0002d	ff 25 00 00 00
	00		 jmp	 DWORD PTR __imp_??1ioHashString@@QAE@XZ
__unwindfunclet$?ApplyJump@ioPowerChargeJump@@UAEXPAVioBaseChar@@AAVSP2Packet@@@Z$0:
  00033	8b 4d dc	 mov	 ecx, DWORD PTR $T530697[ebp]
  00036	ff 25 00 00 00
	00		 jmp	 DWORD PTR __imp_??1ioHashString@@QAE@XZ
__unwindfunclet$?ApplyJump@ioPowerChargeJump@@UAEXPAVioBaseChar@@AAVSP2Packet@@@Z$2:
  0003c	8d 4d 80	 lea	 ecx, DWORD PTR $T530699[ebp]
  0003f	ff 25 00 00 00
	00		 jmp	 DWORD PTR __imp_??1ioHashString@@QAE@XZ
__unwindfunclet$?ApplyJump@ioPowerChargeJump@@UAEXPAVioBaseChar@@AAVSP2Packet@@@Z$3:
  00045	8d 8d 50 ff ff
	ff		 lea	 ecx, DWORD PTR $T530700[ebp]
  0004b	ff 25 00 00 00
	00		 jmp	 DWORD PTR __imp_??1ioHashString@@QAE@XZ
__unwindfunclet$?ApplyJump@ioPowerChargeJump@@UAEXPAVioBaseChar@@AAVSP2Packet@@@Z$4:
  00051	8d 8d 70 ff ff
	ff		 lea	 ecx, DWORD PTR $T530701[ebp]
  00057	ff 25 00 00 00
	00		 jmp	 DWORD PTR __imp_??1ioHashString@@QAE@XZ
__ehhandler$?ApplyJump@ioPowerChargeJump@@UAEXPAVioBaseChar@@AAVSP2Packet@@@Z:
  0005d	8b 54 24 08	 mov	 edx, DWORD PTR [esp+8]
  00061	8d 42 0c	 lea	 eax, DWORD PTR [edx+12]
  00064	8b 8a 1c ff ff
	ff		 mov	 ecx, DWORD PTR [edx-228]
  0006a	33 c8		 xor	 ecx, eax
  0006c	e8 00 00 00 00	 call	 @__security_check_cookie@4
  00071	8b 4a fc	 mov	 ecx, DWORD PTR [edx-4]
  00074	33 c8		 xor	 ecx, eax
  00076	e8 00 00 00 00	 call	 @__security_check_cookie@4
  0007b	b8 00 00 00 00	 mov	 eax, OFFSET __ehfuncinfo$?ApplyJump@ioPowerChargeJump@@UAEXPAVioBaseChar@@AAVSP2Packet@@@Z
  00080	e9 00 00 00 00	 jmp	 ___CxxFrameHandler3
text$x	ENDS
?ApplyJump@ioPowerChargeJump@@UAEXPAVioBaseChar@@AAVSP2Packet@@@Z ENDP ; ioPowerChargeJump::ApplyJump
PUBLIC	__real@00000000
PUBLIC	?GetCurGravityAmt@ioPowerChargeJump@@QAEMXZ	; ioPowerChargeJump::GetCurGravityAmt
;	COMDAT __real@00000000
; File d:\lost saga for developer\youtube\tutorial\source\src\lsclient\stdafx.h
CONST	SEGMENT
__real@00000000 DD 000000000r			; 0
; Function compile flags: /Ogsp
; File d:\lost saga for developer\youtube\tutorial\source\src\lsclient\iopowerchargejump.cpp
CONST	ENDS
;	COMDAT ?GetCurGravityAmt@ioPowerChargeJump@@QAEMXZ
_TEXT	SEGMENT
tv153 = -4						; size = 4
_value$530989 = -4					; size = 4
?GetCurGravityAmt@ioPowerChargeJump@@QAEMXZ PROC	; ioPowerChargeJump::GetCurGravityAmt, COMDAT
; _this$ = ecx

; 564  : {

  00000	55		 push	 ebp
  00001	8b ec		 mov	 ebp, esp
  00003	51		 push	 ecx

; 565  : 	if( m_JumpState == PJS_EXTEND_ATTACK )

  00004	8b 81 24 01 00
	00		 mov	 eax, DWORD PTR [ecx+292]
  0000a	83 f8 04	 cmp	 eax, 4
  0000d	75 1d		 jne	 SHORT $LN7@GetCurGrav

; 566  : 	{
; 567  : 		if( m_bUseLandJumpAttack )

  0000f	80 b9 18 02 00
	00 00		 cmp	 BYTE PTR [ecx+536], 0
  00016	74 4a		 je	 SHORT $LN1@GetCurGrav

; 568  : 			return m_fGravityAmt;

  00018	8d 45 fc	 lea	 eax, DWORD PTR _value$530989[ebp]
  0001b	50		 push	 eax
  0001c	81 c1 44 02 00
	00		 add	 ecx, 580		; 00000244H
  00022	e8 00 00 00 00	 call	 ?DecryptValueToPool@?$CEncrypt@M@@QAEXPAM@Z ; CEncrypt<float>::DecryptValueToPool
  00027	d9 45 fc	 fld	 DWORD PTR _value$530989[ebp]

; 579  : }

  0002a	c9		 leave
  0002b	c3		 ret	 0
$LN7@GetCurGrav:

; 569  : 	}
; 570  : 	else if( m_JumpState == PJS_DASH )

  0002c	83 f8 05	 cmp	 eax, 5
  0002f	75 31		 jne	 SHORT $LN1@GetCurGrav

; 571  : 	{
; 572  : 		if( m_DashType == LDT_GRAVITY )

  00031	8b 81 84 02 00
	00		 mov	 eax, DWORD PTR [ecx+644]
  00037	83 f8 01	 cmp	 eax, 1
  0003a	75 08		 jne	 SHORT $LN3@GetCurGrav

; 573  : 			return m_fDashGravityAmt;

  0003c	d9 81 d8 02 00
	00		 fld	 DWORD PTR [ecx+728]

; 579  : }

  00042	c9		 leave
  00043	c3		 ret	 0
$LN3@GetCurGrav:

; 574  : 		else if( m_DashType == LDT_NO_GRAVITY )

  00044	83 f8 02	 cmp	 eax, 2
  00047	75 19		 jne	 SHORT $LN1@GetCurGrav

; 575  : 			return -FLOAT1;

  00049	b8 01 00 00 00	 mov	 eax, 1
  0004e	89 45 fc	 mov	 DWORD PTR tv153[ebp], eax
  00051	db 45 fc	 fild	 DWORD PTR tv153[ebp]
  00054	85 c0		 test	 eax, eax
  00056	79 06		 jns	 SHORT $LN14@GetCurGrav
  00058	d8 05 00 00 00
	00		 fadd	 DWORD PTR __real@4f800000
$LN14@GetCurGrav:
  0005e	d9 e0		 fchs

; 579  : }

  00060	c9		 leave
  00061	c3		 ret	 0
$LN1@GetCurGrav:

; 576  : 	}
; 577  : 
; 578  : 	return 0.0f;

  00062	d9 ee		 fldz

; 579  : }

  00064	c9		 leave
  00065	c3		 ret	 0
?GetCurGravityAmt@ioPowerChargeJump@@QAEMXZ ENDP	; ioPowerChargeJump::GetCurGravityAmt
_TEXT	ENDS
PUBLIC	?IsCanDash@ioPowerChargeJump@@IAE_NPAVioBaseChar@@M@Z ; ioPowerChargeJump::IsCanDash
EXTRN	?IsCanJumpAttackEnableTime@ioBaseChar@@QAE_NXZ:PROC ; ioBaseChar::IsCanJumpAttackEnableTime
EXTRN	?HasBuff@ioBaseChar@@QBE_NH@Z:PROC		; ioBaseChar::HasBuff
EXTRN	?IsChatModeState@ioBaseChar@@QBE_N_N@Z:PROC	; ioBaseChar::IsChatModeState
EXTRN	?IsHasCrown@ioBaseChar@@QBE_NXZ:PROC		; ioBaseChar::IsHasCrown
; Function compile flags: /Ogsp
;	COMDAT ?IsCanDash@ioPowerChargeJump@@IAE_NPAVioBaseChar@@M@Z
_TEXT	SEGMENT
_pOwner$ = 8						; size = 4
_value$531011 = 11					; size = 1
_fHeightGap$ = 12					; size = 4
?IsCanDash@ioPowerChargeJump@@IAE_NPAVioBaseChar@@M@Z PROC ; ioPowerChargeJump::IsCanDash, COMDAT
; _this$ = ecx

; 582  : {

  00000	55		 push	 ebp
  00001	8b ec		 mov	 ebp, esp
  00003	53		 push	 ebx
  00004	56		 push	 esi

; 583  : 	if( !pOwner ) return false;

  00005	8b 75 08	 mov	 esi, DWORD PTR _pOwner$[ebp]
  00008	33 db		 xor	 ebx, ebx
  0000a	57		 push	 edi
  0000b	8b f9		 mov	 edi, ecx
  0000d	3b f3		 cmp	 esi, ebx
  0000f	0f 84 a7 00 00
	00		 je	 $LN8@IsCanDash

; 584  : 	if( !pOwner->IsNeedProcess() ) return false;

  00015	8b 06		 mov	 eax, DWORD PTR [esi]
  00017	8b ce		 mov	 ecx, esi
  00019	ff 90 00 01 00
	00		 call	 DWORD PTR [eax+256]
  0001f	84 c0		 test	 al, al
  00021	0f 84 95 00 00
	00		 je	 $LN8@IsCanDash

; 585  : 
; 586  : 	if( pOwner->IsHasCrown() ||
; 587  : 		pOwner->IsCatchMode() ||
; 588  : 		pOwner->IsPrisonerMode() ||
; 589  : 		(pOwner->GetUsedBuffJump() != BJUT_NONE) ||
; 590  : 		(pOwner->GetUsedBuffMultiFlyJump() != BJUT_NONE) ||
; 591  : 		(pOwner->GetUsedBuffFlyJump() != BJUT_NONE) )

  00027	8b ce		 mov	 ecx, esi
  00029	e8 00 00 00 00	 call	 ?IsHasCrown@ioBaseChar@@QBE_NXZ ; ioBaseChar::IsHasCrown
  0002e	84 c0		 test	 al, al
  00030	0f 85 86 00 00
	00		 jne	 $LN8@IsCanDash
  00036	38 9e 78 23 00
	00		 cmp	 BYTE PTR [esi+9080], bl
  0003c	75 7e		 jne	 SHORT $LN8@IsCanDash
  0003e	8d 45 0b	 lea	 eax, DWORD PTR _value$531011[ebp]
  00041	50		 push	 eax
  00042	8d 8e cc 14 00
	00		 lea	 ecx, DWORD PTR [esi+5324]
  00048	e8 00 00 00 00	 call	 ?DecryptValueToPool@?$CEncrypt@_N@@QAEXPA_N@Z ; CEncrypt<bool>::DecryptValueToPool
  0004d	38 5d 0b	 cmp	 BYTE PTR _value$531011[ebp], bl
  00050	75 6a		 jne	 SHORT $LN8@IsCanDash
  00052	39 9e ac 0e 00
	00		 cmp	 DWORD PTR [esi+3756], ebx
  00058	75 62		 jne	 SHORT $LN8@IsCanDash
  0005a	39 9e b4 0e 00
	00		 cmp	 DWORD PTR [esi+3764], ebx
  00060	75 5a		 jne	 SHORT $LN8@IsCanDash
  00062	39 9e b0 0e 00
	00		 cmp	 DWORD PTR [esi+3760], ebx
  00068	75 52		 jne	 SHORT $LN8@IsCanDash

; 593  : 
; 594  : 	if( pOwner->IsChatModeState( true ) )

  0006a	6a 01		 push	 1
  0006c	8b ce		 mov	 ecx, esi
  0006e	e8 00 00 00 00	 call	 ?IsChatModeState@ioBaseChar@@QBE_N_N@Z ; ioBaseChar::IsChatModeState
  00073	84 c0		 test	 al, al

; 595  : 		return false;

  00075	75 45		 jne	 SHORT $LN8@IsCanDash

; 596  : 
; 597  : 	if( pOwner->IsBuffLimitExtendJump() )

  00077	8b ce		 mov	 ecx, esi
  00079	e8 00 00 00 00	 call	 ?IsBuffLimitExtendJump@ioBaseChar@@QBE_NXZ ; ioBaseChar::IsBuffLimitExtendJump
  0007e	84 c0		 test	 al, al

; 598  : 		return false;

  00080	75 3a		 jne	 SHORT $LN8@IsCanDash

; 599  : 
; 600  : 	if( pOwner->HasBuff(BT_AIR_ATTACK) )

  00082	6a 46		 push	 70			; 00000046H
  00084	8b ce		 mov	 ecx, esi
  00086	e8 00 00 00 00	 call	 ?HasBuff@ioBaseChar@@QBE_NH@Z ; ioBaseChar::HasBuff
  0008b	84 c0		 test	 al, al

; 601  : 		return false;

  0008d	75 2d		 jne	 SHORT $LN8@IsCanDash

; 602  : 
; 603  : 	if( m_JumpState != PJS_NONE )

  0008f	39 9f 24 01 00
	00		 cmp	 DWORD PTR [edi+292], ebx

; 604  : 		return false;

  00095	75 25		 jne	 SHORT $LN8@IsCanDash

; 605  : 
; 606  : 	if( !pOwner->IsCanJumpAttackEnableTime() )

  00097	8b ce		 mov	 ecx, esi
  00099	e8 00 00 00 00	 call	 ?IsCanJumpAttackEnableTime@ioBaseChar@@QAE_NXZ ; ioBaseChar::IsCanJumpAttackEnableTime
  0009e	84 c0		 test	 al, al

; 607  : 		return false;

  000a0	74 1a		 je	 SHORT $LN8@IsCanDash

; 608  : 
; 609  : 	DWORD dwMoveStartTime = pOwner->GetJumpMoveStartTime();
; 610  : 	if( dwMoveStartTime == 0 ) return false;

  000a2	39 9e 80 0e 00
	00		 cmp	 DWORD PTR [esi+3712], ebx
  000a8	74 12		 je	 SHORT $LN8@IsCanDash

; 611  : 
; 612  : 	if( !pOwner->IsDirKeyDoubleClick() )

  000aa	8d 8e 80 0c 00
	00		 lea	 ecx, DWORD PTR [esi+3200]
  000b0	e8 00 00 00 00	 call	 ?IsDirDoubleClick@ioUserKeyInput@@QBE_NXZ ; ioUserKeyInput::IsDirDoubleClick
  000b5	84 c0		 test	 al, al
  000b7	0f 95 c0	 setne	 al

; 613  : 		return false;
; 614  : 
; 615  : 	return true;

  000ba	eb 02		 jmp	 SHORT $LN12@IsCanDash
$LN8@IsCanDash:

; 592  : 		return false;

  000bc	32 c0		 xor	 al, al
$LN12@IsCanDash:
  000be	5f		 pop	 edi
  000bf	5e		 pop	 esi
  000c0	5b		 pop	 ebx

; 616  : }

  000c1	5d		 pop	 ebp
  000c2	c2 08 00	 ret	 8
?IsCanDash@ioPowerChargeJump@@IAE_NPAVioBaseChar@@M@Z ENDP ; ioPowerChargeJump::IsCanDash
_TEXT	ENDS
PUBLIC	_pOwner$GSCopy$
PUBLIC	__$ArrayPad$
PUBLIC	?SetDash@ioPowerChargeJump@@IAEXPAVioBaseChar@@M@Z ; ioPowerChargeJump::SetDash
EXTRN	?ChangeDirectionByInputDir@ioBaseChar@@QAE_N_N0@Z:PROC ; ioBaseChar::ChangeDirectionByInputDir
;	COMDAT xdata$x
; File d:\lost saga for developer\youtube\tutorial\source\src\lsclient\iobasechar.h
xdata$x	SEGMENT
__ehfuncinfo$?SetDash@ioPowerChargeJump@@IAEXPAVioBaseChar@@M@Z DD 019930522H
	DD	06H
	DD	FLAT:__unwindtable$?SetDash@ioPowerChargeJump@@IAEXPAVioBaseChar@@M@Z
	DD	2 DUP(00H)
	DD	2 DUP(00H)
	DD	00H
	DD	01H
__unwindtable$?SetDash@ioPowerChargeJump@@IAEXPAVioBaseChar@@M@Z DD 0ffffffffH
	DD	FLAT:__unwindfunclet$?SetDash@ioPowerChargeJump@@IAEXPAVioBaseChar@@M@Z$0
	DD	0ffffffffH
	DD	FLAT:__unwindfunclet$?SetDash@ioPowerChargeJump@@IAEXPAVioBaseChar@@M@Z$2
	DD	01H
	DD	FLAT:__unwindfunclet$?SetDash@ioPowerChargeJump@@IAEXPAVioBaseChar@@M@Z$3
	DD	02H
	DD	FLAT:__unwindfunclet$?SetDash@ioPowerChargeJump@@IAEXPAVioBaseChar@@M@Z$4
	DD	0ffffffffH
	DD	FLAT:__unwindfunclet$?SetDash@ioPowerChargeJump@@IAEXPAVioBaseChar@@M@Z$6
	DD	0ffffffffH
	DD	FLAT:__unwindfunclet$?SetDash@ioPowerChargeJump@@IAEXPAVioBaseChar@@M@Z$5
; Function compile flags: /Ogsp
; File d:\lost saga for developer\youtube\tutorial\source\src\lsclient\iopowerchargejump.cpp
xdata$x	ENDS
;	COMDAT ?SetDash@ioPowerChargeJump@@IAEXPAVioBaseChar@@M@Z
_TEXT	SEGMENT
$T531037 = -32904					; size = 16
$T531216 = -32888					; size = 16
$T531036 = -32888					; size = 16
tv1283 = -32872						; size = 4
$T531093 = -32872					; size = 4
$T531035 = -32872					; size = 4
_dwCurTime$ = -32868					; size = 4
_dwPreDelay$ = -32864					; size = 4
tv1263 = -32860						; size = 4
tv1246 = -32860						; size = 4
tv1234 = -32860						; size = 4
$T531215 = -32860					; size = 4
_dwEndDelay$ = -32860					; size = 4
_pGrp$ = -32856						; size = 4
_iAniID$ = -32852					; size = 4
_fTimeRate$ = -32848					; size = 4
tv1305 = -32844						; size = 4
tv1300 = -32844						; size = 4
tv1281 = -32844						; size = 4
$T531097 = -32844					; size = 4
_dwKeyReserveTime$ = -32844				; size = 4
$T531034 = -32844					; size = 4
tv1292 = -32840						; size = 4
tv1290 = -32840						; size = 4
tv1287 = -32840						; size = 4
tv1285 = -32840						; size = 4
_pOwner$GSCopy$ = -32840				; size = 4
_value$531073 = -32840					; size = 4
_value$531063 = -32840					; size = 4
_kPacket$524242 = -32836				; size = 32792
_vMoveDir$ = -44					; size = 12
_szEncEventType$531116 = -32				; size = 11
$T531038 = -32						; size = 16
__$ArrayPad$ = -16					; size = 4
__$EHRec$ = -12						; size = 12
_pOwner$ = 8						; size = 4
_fHeightGap$ = 12					; size = 4
?SetDash@ioPowerChargeJump@@IAEXPAVioBaseChar@@M@Z PROC	; ioPowerChargeJump::SetDash, COMDAT
; _this$ = ecx

; 619  : {

  00000	55		 push	 ebp
  00001	8b ec		 mov	 ebp, esp
  00003	6a ff		 push	 -1
  00005	68 00 00 00 00	 push	 __ehhandler$?SetDash@ioPowerChargeJump@@IAEXPAVioBaseChar@@M@Z
  0000a	64 a1 00 00 00
	00		 mov	 eax, DWORD PTR fs:0
  00010	50		 push	 eax
  00011	b8 7c 80 00 00	 mov	 eax, 32892		; 0000807cH
  00016	e8 00 00 00 00	 call	 __chkstk
  0001b	a1 00 00 00 00	 mov	 eax, DWORD PTR ___security_cookie
  00020	33 c5		 xor	 eax, ebp
  00022	89 45 f0	 mov	 DWORD PTR __$ArrayPad$[ebp], eax
  00025	53		 push	 ebx
  00026	56		 push	 esi
  00027	57		 push	 edi
  00028	50		 push	 eax
  00029	8d 45 f4	 lea	 eax, DWORD PTR __$EHRec$[ebp]
  0002c	64 a3 00 00 00
	00		 mov	 DWORD PTR fs:0, eax
  00032	8b 75 08	 mov	 esi, DWORD PTR _pOwner$[ebp]

; 620  : 	ioEntityGroup *pGrp = pOwner->GetGroup();

  00035	8b 46 04	 mov	 eax, DWORD PTR [esi+4]
  00038	8b d9		 mov	 ebx, ecx
  0003a	89 b5 b8 7f ff
	ff		 mov	 DWORD PTR _pOwner$GSCopy$[ebp], esi
  00040	89 85 a8 7f ff
	ff		 mov	 DWORD PTR _pGrp$[ebp], eax

; 621  : 
; 622  : 	DWORD dwCurTime = FRAMEGETTIME();

  00046	ff 15 00 00 00
	00		 call	 DWORD PTR __imp_?GetSingleton@ioFrameTimer@@SAAAV1@XZ
  0004c	8b c8		 mov	 ecx, eax
  0004e	ff 15 00 00 00
	00		 call	 DWORD PTR __imp_?GetLoopSec@ioFrameTimer@@QBEKXZ

; 623  : 	D3DXVECTOR3 vMoveDir = pOwner->GetMoveDir();
; 624  : 
; 625  : 	int iAniID = pGrp->GetAnimationIdx( m_DashJumpAttack.m_AttackAnimation );

  00054	8b 8d a8 7f ff
	ff		 mov	 ecx, DWORD PTR _pGrp$[ebp]
  0005a	81 c6 b4 06 00
	00		 add	 esi, 1716		; 000006b4H
  00060	8d 7d d4	 lea	 edi, DWORD PTR _vMoveDir$[ebp]
  00063	a5		 movsd
  00064	a5		 movsd
  00065	89 85 9c 7f ff
	ff		 mov	 DWORD PTR _dwCurTime$[ebp], eax
  0006b	8d 83 88 02 00
	00		 lea	 eax, DWORD PTR [ebx+648]
  00071	50		 push	 eax
  00072	a5		 movsd
  00073	ff 15 00 00 00
	00		 call	 DWORD PTR __imp_?GetAnimationIdx@ioEntityGroup@@QAEHABVioHashString@@@Z

; 626  : 	float fTimeRate = m_DashJumpAttack.m_fAttackAniRate;

  00079	f3 0f 10 83 98
	02 00 00	 movss	 xmm0, DWORD PTR [ebx+664]

; 627  : 	DWORD dwPreDelay = m_DashJumpAttack.m_dwPreDelay;
; 628  : 	DWORD dwEndDelay = m_DashJumpAttack.m_dwEndDelay;
; 629  : 
; 630  : 	m_bUseExtendJump = true;
; 631  : 
; 632  : 	pOwner->SetCurJumpPowerAmt( 0.0f );

  00081	8b b5 b8 7f ff
	ff		 mov	 esi, DWORD PTR _pOwner$GSCopy$[ebp]
  00087	89 85 ac 7f ff
	ff		 mov	 DWORD PTR _iAniID$[ebp], eax
  0008d	8b 83 d0 02 00
	00		 mov	 eax, DWORD PTR [ebx+720]
  00093	89 85 a0 7f ff
	ff		 mov	 DWORD PTR _dwPreDelay$[ebp], eax
  00099	8b 83 d4 02 00
	00		 mov	 eax, DWORD PTR [ebx+724]
  0009f	89 85 a4 7f ff
	ff		 mov	 DWORD PTR _dwEndDelay$[ebp], eax

; 633  : 	pOwner->SetForcePowerAmt( 0.0f );

  000a5	8d 85 b8 7f ff
	ff		 lea	 eax, DWORD PTR _value$531063[ebp]
  000ab	f3 0f 11 85 b0
	7f ff ff	 movss	 DWORD PTR _fTimeRate$[ebp], xmm0
  000b3	0f 57 c0	 xorps	 xmm0, xmm0
  000b6	c6 43 10 01	 mov	 BYTE PTR [ebx+16], 1
  000ba	50		 push	 eax
  000bb	8d 8e 88 0b 00
	00		 lea	 ecx, DWORD PTR [esi+2952]
  000c1	f3 0f 11 86 90
	0e 00 00	 movss	 DWORD PTR [esi+3728], xmm0
  000c9	f3 0f 11 85 b8
	7f ff ff	 movss	 DWORD PTR _value$531063[ebp], xmm0
  000d1	e8 00 00 00 00	 call	 ?EncryptValueToPool@?$CEncrypt@M@@AAEXPBD@Z ; CEncrypt<float>::EncryptValueToPool

; 634  : 	pOwner->SetGravityAmt( 0.0f );

  000d6	0f 57 c0	 xorps	 xmm0, xmm0
  000d9	8d 85 b8 7f ff
	ff		 lea	 eax, DWORD PTR _value$531073[ebp]
  000df	50		 push	 eax
  000e0	8d 8e e8 0b 00
	00		 lea	 ecx, DWORD PTR [esi+3048]
  000e6	f3 0f 11 85 b8
	7f ff ff	 movss	 DWORD PTR _value$531073[ebp], xmm0
  000ee	e8 00 00 00 00	 call	 ?EncryptValueToPool@?$CEncrypt@M@@AAEXPBD@Z ; CEncrypt<float>::EncryptValueToPool

; 635  : 
; 636  : 	pOwner->SetEnableHide( false );

  000f3	8b 3d 00 00 00
	00		 mov	 edi, DWORD PTR __imp_??0ioHashString@@QAE@PBD@Z
  000f9	83 ec 10	 sub	 esp, 16			; 00000010H
  000fc	8b cc		 mov	 ecx, esp
  000fe	89 a5 b4 7f ff
	ff		 mov	 DWORD PTR $T531034[ebp], esp
  00104	68 00 00 00 00	 push	 OFFSET ??_C@_00CNPNBAHC@?$AA@
  00109	ff d7		 call	 edi
  0010b	83 65 fc 00	 and	 DWORD PTR __$EHRec$[ebp+8], 0
  0010f	83 ec 10	 sub	 esp, 16			; 00000010H
  00112	8b cc		 mov	 ecx, esp
  00114	89 a5 98 7f ff
	ff		 mov	 DWORD PTR $T531035[ebp], esp
  0011a	68 00 00 00 00	 push	 OFFSET ??_C@_00CNPNBAHC@?$AA@
  0011f	ff d7		 call	 edi
  00121	83 4d fc ff	 or	 DWORD PTR __$EHRec$[ebp+8], -1
  00125	6a 00		 push	 0
  00127	8b ce		 mov	 ecx, esi
  00129	e8 00 00 00 00	 call	 ?SetEnableHide@ioBaseChar@@QAEX_NVioHashString@@1@Z ; ioBaseChar::SetEnableHide

; 637  : 	pOwner->SetEnableChangeTeam( false );

  0012e	6a 00		 push	 0
  00130	8b ce		 mov	 ecx, esi
  00132	e8 00 00 00 00	 call	 ?SetEnableChangeTeam@ioBaseChar@@QAEX_N@Z ; ioBaseChar::SetEnableChangeTeam

; 638  : 	pOwner->SetChangeJumpMotion( false, "", "", "", 0.0f );

  00137	68 00 00 00 00	 push	 OFFSET ??_C@_00CNPNBAHC@?$AA@
  0013c	8d 8d 88 7f ff
	ff		 lea	 ecx, DWORD PTR $T531036[ebp]
  00142	ff d7		 call	 edi
  00144	68 00 00 00 00	 push	 OFFSET ??_C@_00CNPNBAHC@?$AA@
  00149	8d 8d 78 7f ff
	ff		 lea	 ecx, DWORD PTR $T531037[ebp]
  0014f	c7 45 fc 01 00
	00 00		 mov	 DWORD PTR __$EHRec$[ebp+8], 1
  00156	ff d7		 call	 edi
  00158	68 00 00 00 00	 push	 OFFSET ??_C@_00CNPNBAHC@?$AA@
  0015d	8d 4d e0	 lea	 ecx, DWORD PTR $T531038[ebp]
  00160	c6 45 fc 02	 mov	 BYTE PTR __$EHRec$[ebp+8], 2
  00164	ff d7		 call	 edi
  00166	0f 57 c0	 xorps	 xmm0, xmm0
  00169	51		 push	 ecx
  0016a	8d 85 88 7f ff
	ff		 lea	 eax, DWORD PTR $T531036[ebp]
  00170	f3 0f 11 04 24	 movss	 DWORD PTR [esp], xmm0
  00175	50		 push	 eax
  00176	c6 45 fc 03	 mov	 BYTE PTR __$EHRec$[ebp+8], 3
  0017a	8d 85 78 7f ff
	ff		 lea	 eax, DWORD PTR $T531037[ebp]
  00180	50		 push	 eax
  00181	8d 45 e0	 lea	 eax, DWORD PTR $T531038[ebp]
  00184	50		 push	 eax
  00185	6a 00		 push	 0
  00187	8b ce		 mov	 ecx, esi
  00189	e8 00 00 00 00	 call	 ?SetChangeJumpMotion@ioBaseChar@@QAEX_NABVioHashString@@11M@Z ; ioBaseChar::SetChangeJumpMotion
  0018e	8d 4d e0	 lea	 ecx, DWORD PTR $T531038[ebp]
  00191	c6 45 fc 02	 mov	 BYTE PTR __$EHRec$[ebp+8], 2
  00195	ff 15 00 00 00
	00		 call	 DWORD PTR __imp_??1ioHashString@@QAE@XZ
  0019b	8d 8d 78 7f ff
	ff		 lea	 ecx, DWORD PTR $T531037[ebp]
  001a1	c6 45 fc 01	 mov	 BYTE PTR __$EHRec$[ebp+8], 1
  001a5	ff 15 00 00 00
	00		 call	 DWORD PTR __imp_??1ioHashString@@QAE@XZ
  001ab	83 4d fc ff	 or	 DWORD PTR __$EHRec$[ebp+8], -1
  001af	8d 8d 88 7f ff
	ff		 lea	 ecx, DWORD PTR $T531036[ebp]
  001b5	ff 15 00 00 00
	00		 call	 DWORD PTR __imp_??1ioHashString@@QAE@XZ

; 639  : 
; 640  : 	pOwner->ChangeDirectionByInputDir( false );

  001bb	6a 01		 push	 1
  001bd	6a 00		 push	 0
  001bf	8b ce		 mov	 ecx, esi
  001c1	e8 00 00 00 00	 call	 ?ChangeDirectionByInputDir@ioBaseChar@@QAE_N_N0@Z ; ioBaseChar::ChangeDirectionByInputDir

; 641  : 
; 642  : 	pGrp->ClearAllActionAni( FLOAT100, true );

  001c6	b8 64 00 00 00	 mov	 eax, 100		; 00000064H
  001cb	89 85 b4 7f ff
	ff		 mov	 DWORD PTR tv1305[ebp], eax
  001d1	db 85 b4 7f ff
	ff		 fild	 DWORD PTR tv1305[ebp]
  001d7	6a 01		 push	 1
  001d9	85 c0		 test	 eax, eax
  001db	79 06		 jns	 SHORT $LN155@SetDash
  001dd	d8 05 00 00 00
	00		 fadd	 DWORD PTR __real@4f800000
$LN155@SetDash:
  001e3	51		 push	 ecx
  001e4	8b 8d a8 7f ff
	ff		 mov	 ecx, DWORD PTR _pGrp$[ebp]
  001ea	d9 1c 24	 fstp	 DWORD PTR [esp]
  001ed	ff 15 00 00 00
	00		 call	 DWORD PTR __imp_?ClearAllActionAni@ioEntityGroup@@QAEXM_N@Z

; 643  : 	pGrp->ClearAllLoopAni( FLOAT100, true );

  001f3	b8 64 00 00 00	 mov	 eax, 100		; 00000064H
  001f8	89 85 b4 7f ff
	ff		 mov	 DWORD PTR tv1300[ebp], eax
  001fe	db 85 b4 7f ff
	ff		 fild	 DWORD PTR tv1300[ebp]
  00204	6a 01		 push	 1
  00206	85 c0		 test	 eax, eax
  00208	79 06		 jns	 SHORT $LN156@SetDash
  0020a	d8 05 00 00 00
	00		 fadd	 DWORD PTR __real@4f800000
$LN156@SetDash:
  00210	51		 push	 ecx
  00211	8b 8d a8 7f ff
	ff		 mov	 ecx, DWORD PTR _pGrp$[ebp]
  00217	d9 1c 24	 fstp	 DWORD PTR [esp]
  0021a	ff 15 00 00 00
	00		 call	 DWORD PTR __imp_?ClearAllLoopAni@ioEntityGroup@@QAEXM_N@Z

; 644  : 
; 645  : 	pOwner->SetAutoTarget( ATT_JUMP );

  00220	6a 03		 push	 3
  00222	8b ce		 mov	 ecx, esi
  00224	e8 00 00 00 00	 call	 ?SetAutoTarget@ioBaseChar@@QAEXW4AutoTargetType@@@Z ; ioBaseChar::SetAutoTarget

; 646  : 	pGrp->SetActionAni( iAniID, FLOAT100, FLOAT100, FLOAT1, FLOAT1/fTimeRate, 0.0f, dwPreDelay, true );

  00229	b8 01 00 00 00	 mov	 eax, 1
  0022e	8b c8		 mov	 ecx, eax
  00230	b8 01 00 00 00	 mov	 eax, 1
  00235	8b d0		 mov	 edx, eax
  00237	b8 64 00 00 00	 mov	 eax, 100		; 00000064H
  0023c	89 85 98 7f ff
	ff		 mov	 DWORD PTR $T531093[ebp], eax
  00242	b8 64 00 00 00	 mov	 eax, 100		; 00000064H
  00247	db 85 a0 7f ff
	ff		 fild	 DWORD PTR _dwPreDelay$[ebp]
  0024d	89 85 b4 7f ff
	ff		 mov	 DWORD PTR $T531097[ebp], eax
  00253	8b 85 a0 7f ff
	ff		 mov	 eax, DWORD PTR _dwPreDelay$[ebp]
  00259	6a 01		 push	 1
  0025b	6a 01		 push	 1
  0025d	85 c0		 test	 eax, eax
  0025f	79 06		 jns	 SHORT $LN157@SetDash
  00261	d8 05 00 00 00
	00		 fadd	 DWORD PTR __real@4f800000
$LN157@SetDash:
  00267	0f 57 c0	 xorps	 xmm0, xmm0
  0026a	83 ec 18	 sub	 esp, 24			; 00000018H
  0026d	d9 5c 24 14	 fstp	 DWORD PTR [esp+20]
  00271	89 8d b8 7f ff
	ff		 mov	 DWORD PTR tv1290[ebp], ecx
  00277	db 85 b8 7f ff
	ff		 fild	 DWORD PTR tv1290[ebp]
  0027d	f3 0f 11 44 24
	10		 movss	 DWORD PTR [esp+16], xmm0
  00283	85 c9		 test	 ecx, ecx
  00285	79 06		 jns	 SHORT $LN158@SetDash
  00287	d8 05 00 00 00
	00		 fadd	 DWORD PTR __real@4f800000
$LN158@SetDash:
  0028d	d8 b5 b0 7f ff
	ff		 fdiv	 DWORD PTR _fTimeRate$[ebp]
  00293	d9 9d b8 7f ff
	ff		 fstp	 DWORD PTR tv1287[ebp]
  00299	d9 85 b8 7f ff
	ff		 fld	 DWORD PTR tv1287[ebp]
  0029f	d9 5c 24 0c	 fstp	 DWORD PTR [esp+12]
  002a3	89 95 b8 7f ff
	ff		 mov	 DWORD PTR tv1285[ebp], edx
  002a9	db 85 b8 7f ff
	ff		 fild	 DWORD PTR tv1285[ebp]
  002af	85 d2		 test	 edx, edx
  002b1	79 06		 jns	 SHORT $LN159@SetDash
  002b3	d8 05 00 00 00
	00		 fadd	 DWORD PTR __real@4f800000
$LN159@SetDash:
  002b9	8b 85 98 7f ff
	ff		 mov	 eax, DWORD PTR $T531093[ebp]
  002bf	d9 5c 24 08	 fstp	 DWORD PTR [esp+8]
  002c3	db 85 98 7f ff
	ff		 fild	 DWORD PTR $T531093[ebp]
  002c9	85 c0		 test	 eax, eax
  002cb	79 06		 jns	 SHORT $LN160@SetDash
  002cd	d8 05 00 00 00
	00		 fadd	 DWORD PTR __real@4f800000
$LN160@SetDash:
  002d3	8b 85 b4 7f ff
	ff		 mov	 eax, DWORD PTR $T531097[ebp]
  002d9	d9 5c 24 04	 fstp	 DWORD PTR [esp+4]
  002dd	db 85 b4 7f ff
	ff		 fild	 DWORD PTR $T531097[ebp]
  002e3	85 c0		 test	 eax, eax
  002e5	79 06		 jns	 SHORT $LN161@SetDash
  002e7	d8 05 00 00 00
	00		 fadd	 DWORD PTR __real@4f800000
$LN161@SetDash:
  002ed	8b 8d a8 7f ff
	ff		 mov	 ecx, DWORD PTR _pGrp$[ebp]
  002f3	d9 1c 24	 fstp	 DWORD PTR [esp]
  002f6	ff b5 ac 7f ff
	ff		 push	 DWORD PTR _iAniID$[ebp]
  002fc	ff 15 00 00 00
	00		 call	 DWORD PTR __imp_?SetActionAni@ioEntityGroup@@QAE_NHMMMMMM_N0@Z

; 647  : 
; 648  : 	pOwner->RefreshFireTimeList( iAniID,
; 649  : 								 m_DashJumpAttack.m_vWeaponInfoList,
; 650  : 								 FTT_JUMP_ATTACK,
; 651  : 								 fTimeRate,
; 652  : 								 dwPreDelay );

  00302	f3 0f 10 85 b0
	7f ff ff	 movss	 xmm0, DWORD PTR _fTimeRate$[ebp]
  0030a	6a 00		 push	 0
  0030c	ff b5 a0 7f ff
	ff		 push	 DWORD PTR _dwPreDelay$[ebp]
  00312	8d 83 b0 02 00
	00		 lea	 eax, DWORD PTR [ebx+688]
  00318	51		 push	 ecx
  00319	f3 0f 11 04 24	 movss	 DWORD PTR [esp], xmm0
  0031e	6a 03		 push	 3
  00320	50		 push	 eax
  00321	ff b5 ac 7f ff
	ff		 push	 DWORD PTR _iAniID$[ebp]
  00327	8b ce		 mov	 ecx, esi
  00329	e8 00 00 00 00	 call	 ?RefreshFireTimeList@ioBaseChar@@QAEXHABV?$vector@UWeaponInfo@@V?$allocator@UWeaponInfo@@@std@@@std@@W4FireTimeType@@MK_N@Z ; ioBaseChar::RefreshFireTimeList

; 653  : 
; 654  : 	pOwner->IncreaseWeaponIndexBase();

  0032e	8b ce		 mov	 ecx, esi
  00330	e8 00 00 00 00	 call	 ?IncreaseWeaponIndexBase@ioBaseChar@@QAEKXZ ; ioBaseChar::IncreaseWeaponIndexBase

; 655  : 	//
; 656  : 	m_dwDashStartTime = dwCurTime;

  00335	8b 85 9c 7f ff
	ff		 mov	 eax, DWORD PTR _dwCurTime$[ebp]

; 657  : 	m_dwDashEndTime = dwCurTime + dwPreDelay + dwEndDelay + pGrp->GetAnimationFullTime( iAniID ) * fTimeRate;

  0033b	ff b5 ac 7f ff
	ff		 push	 DWORD PTR _iAniID$[ebp]
  00341	8b 8d a8 7f ff
	ff		 mov	 ecx, DWORD PTR _pGrp$[ebp]
  00347	89 83 dc 02 00
	00		 mov	 DWORD PTR [ebx+732], eax
  0034d	ff 15 00 00 00
	00		 call	 DWORD PTR __imp_?GetAnimationFullTime@ioEntityGroup@@QAEMH@Z
  00353	d8 8d b0 7f ff
	ff		 fmul	 DWORD PTR _fTimeRate$[ebp]
  00359	8b 85 a4 7f ff
	ff		 mov	 eax, DWORD PTR _dwEndDelay$[ebp]
  0035f	8b 8d a0 7f ff
	ff		 mov	 ecx, DWORD PTR _dwPreDelay$[ebp]
  00365	03 c1		 add	 eax, ecx
  00367	03 85 9c 7f ff
	ff		 add	 eax, DWORD PTR _dwCurTime$[ebp]
  0036d	89 85 a4 7f ff
	ff		 mov	 DWORD PTR tv1263[ebp], eax
  00373	db 85 a4 7f ff
	ff		 fild	 DWORD PTR tv1263[ebp]
  00379	79 06		 jns	 SHORT $LN162@SetDash
  0037b	d8 05 00 00 00
	00		 fadd	 DWORD PTR __real@4f800000
$LN162@SetDash:
  00381	de c1		 faddp	 ST(1), ST(0)
  00383	e8 00 00 00 00	 call	 __ftol2

; 658  : 
; 659  : 	pOwner->CheckCharColSkipTime( iAniID, fTimeRate, dwPreDelay );

  00388	ff b5 a0 7f ff
	ff		 push	 DWORD PTR _dwPreDelay$[ebp]
  0038e	f3 0f 10 85 b0
	7f ff ff	 movss	 xmm0, DWORD PTR _fTimeRate$[ebp]
  00396	51		 push	 ecx
  00397	f3 0f 11 04 24	 movss	 DWORD PTR [esp], xmm0
  0039c	ff b5 ac 7f ff
	ff		 push	 DWORD PTR _iAniID$[ebp]
  003a2	8b ce		 mov	 ecx, esi
  003a4	89 83 e0 02 00
	00		 mov	 DWORD PTR [ebx+736], eax
  003aa	e8 00 00 00 00	 call	 ?CheckCharColSkipTime@ioBaseChar@@QAEXHMK@Z ; ioBaseChar::CheckCharColSkipTime

; 660  : 
; 661  : 	pOwner->SetReservedSliding( m_DashJumpAttack.m_vForceInfoList, iAniID, fTimeRate, dwPreDelay );

  003af	f3 0f 10 05 00
	00 00 00	 movss	 xmm0, DWORD PTR __real@3f800000
  003b7	6a 01		 push	 1
  003b9	51		 push	 ecx
  003ba	f3 0f 11 04 24	 movss	 DWORD PTR [esp], xmm0
  003bf	ff b5 a0 7f ff
	ff		 push	 DWORD PTR _dwPreDelay$[ebp]
  003c5	f3 0f 10 85 b0
	7f ff ff	 movss	 xmm0, DWORD PTR _fTimeRate$[ebp]
  003cd	51		 push	 ecx
  003ce	f3 0f 11 04 24	 movss	 DWORD PTR [esp], xmm0
  003d3	ff b5 ac 7f ff
	ff		 push	 DWORD PTR _iAniID$[ebp]
  003d9	8d 83 c0 02 00
	00		 lea	 eax, DWORD PTR [ebx+704]
  003df	50		 push	 eax
  003e0	8b ce		 mov	 ecx, esi
  003e2	e8 00 00 00 00	 call	 ?SetReservedSliding@ioBaseChar@@QAEXABV?$vector@UForceInfo@@V?$allocator@UForceInfo@@@std@@@std@@HMKM_N@Z ; ioBaseChar::SetReservedSliding

; 662  : 
; 663  : 	DWORD dwKeyReserveTime = dwCurTime + CheckKeyReserveTime( pOwner, iAniID, fTimeRate );

  003e7	f3 0f 10 85 b0
	7f ff ff	 movss	 xmm0, DWORD PTR _fTimeRate$[ebp]
  003ef	8b 03		 mov	 eax, DWORD PTR [ebx]
  003f1	6a 00		 push	 0
  003f3	51		 push	 ecx
  003f4	f3 0f 11 04 24	 movss	 DWORD PTR [esp], xmm0
  003f9	ff b5 ac 7f ff
	ff		 push	 DWORD PTR _iAniID$[ebp]
  003ff	8b cb		 mov	 ecx, ebx
  00401	56		 push	 esi
  00402	ff 90 84 00 00
	00		 call	 DWORD PTR [eax+132]
  00408	db 85 9c 7f ff
	ff		 fild	 DWORD PTR _dwCurTime$[ebp]
  0040e	8b 85 9c 7f ff
	ff		 mov	 eax, DWORD PTR _dwCurTime$[ebp]
  00414	85 c0		 test	 eax, eax
  00416	79 06		 jns	 SHORT $LN163@SetDash
  00418	d8 05 00 00 00
	00		 fadd	 DWORD PTR __real@4f800000
$LN163@SetDash:
  0041e	de c1		 faddp	 ST(1), ST(0)
  00420	e8 00 00 00 00	 call	 __ftol2

; 664  : 
; 665  : 	DWORD dwTrackingTime = dwCurTime;
; 666  : 	dwTrackingTime += pGrp->GetAnimationEventTime_e( iAniID, "tracking_e" ) * fTimeRate;

  00425	6a 02		 push	 2
  00427	89 85 b4 7f ff
	ff		 mov	 DWORD PTR _dwKeyReserveTime$[ebp], eax
  0042d	c7 45 e0 99 9e
	8a 89		 mov	 DWORD PTR _szEncEventType$531116[ebp], -1987404135 ; 898a9e99H
  00434	c7 45 e4 86 85
	85 8d		 mov	 DWORD PTR _szEncEventType$531116[ebp+4], -1920629370 ; 8d858586H
  0043b	66 c7 45 e8 b2
	89		 mov	 WORD PTR _szEncEventType$531116[ebp+8], 35250 ; 000089b2H
  00441	8d 45 e0	 lea	 eax, DWORD PTR _szEncEventType$531116[ebp]
  00444	c6 45 ea 00	 mov	 BYTE PTR _szEncEventType$531116[ebp+10], 0
  00448	59		 pop	 ecx
$LL141@SetDash:
  00449	81 30 ed ec eb
	ea		 xor	 DWORD PTR [eax], -353637139 ; eaebecedH
  0044f	83 c0 04	 add	 eax, 4
  00452	49		 dec	 ecx
  00453	75 f4		 jne	 SHORT $LL141@SetDash
  00455	6a 08		 push	 8
  00457	58		 pop	 eax
$LL138@SetDash:
  00458	8b c8		 mov	 ecx, eax
  0045a	81 e1 03 00 00
	80		 and	 ecx, -2147483645	; 80000003H
  00460	79 05		 jns	 SHORT $LN164@SetDash
  00462	49		 dec	 ecx
  00463	83 c9 fc	 or	 ecx, -4			; fffffffcH
  00466	41		 inc	 ecx
$LN164@SetDash:
  00467	b2 ed		 mov	 dl, -19			; ffffffedH
  00469	2a d1		 sub	 dl, cl
  0046b	30 54 05 e0	 xor	 BYTE PTR _szEncEventType$531116[ebp+eax], dl
  0046f	40		 inc	 eax
  00470	83 f8 0a	 cmp	 eax, 10			; 0000000aH
  00473	7c e3		 jl	 SHORT $LL138@SetDash
  00475	8d 45 e0	 lea	 eax, DWORD PTR _szEncEventType$531116[ebp]
  00478	50		 push	 eax
  00479	8d 8d 88 7f ff
	ff		 lea	 ecx, DWORD PTR $T531216[ebp]
  0047f	ff d7		 call	 edi
  00481	8b 8d a8 7f ff
	ff		 mov	 ecx, DWORD PTR _pGrp$[ebp]
  00487	8d 85 88 7f ff
	ff		 lea	 eax, DWORD PTR $T531216[ebp]
  0048d	50		 push	 eax
  0048e	ff b5 ac 7f ff
	ff		 push	 DWORD PTR _iAniID$[ebp]
  00494	c7 45 fc 04 00
	00 00		 mov	 DWORD PTR __$EHRec$[ebp+8], 4
  0049b	ff 15 00 00 00
	00		 call	 DWORD PTR __imp_?GetAnimationEventTime@ioEntityGroup@@QAEMHABVioHashString@@@Z
  004a1	d9 9d a4 7f ff
	ff		 fstp	 DWORD PTR $T531215[ebp]
  004a7	83 4d fc ff	 or	 DWORD PTR __$EHRec$[ebp+8], -1
  004ab	8d 8d 88 7f ff
	ff		 lea	 ecx, DWORD PTR $T531216[ebp]
  004b1	ff 15 00 00 00
	00		 call	 DWORD PTR __imp_??1ioHashString@@QAE@XZ
  004b7	d9 85 a4 7f ff
	ff		 fld	 DWORD PTR $T531215[ebp]
  004bd	8b 85 9c 7f ff
	ff		 mov	 eax, DWORD PTR _dwCurTime$[ebp]
  004c3	d8 8d b0 7f ff
	ff		 fmul	 DWORD PTR _fTimeRate$[ebp]
  004c9	db 85 9c 7f ff
	ff		 fild	 DWORD PTR _dwCurTime$[ebp]
  004cf	85 c0		 test	 eax, eax
  004d1	79 06		 jns	 SHORT $LN165@SetDash
  004d3	dc 05 00 00 00
	00		 fadd	 QWORD PTR __real@41f0000000000000
$LN165@SetDash:
  004d9	de c1		 faddp	 ST(1), ST(0)
  004db	e8 00 00 00 00	 call	 __ftol2

; 667  : 	pOwner->SetAutoTargetTrackingEndTime( dwTrackingTime );

  004e0	50		 push	 eax
  004e1	8b ce		 mov	 ecx, esi
  004e3	e8 00 00 00 00	 call	 ?SetAutoTargetTrackingEndTime@ioBaseChar@@QAEXK@Z ; ioBaseChar::SetAutoTargetTrackingEndTime

; 668  : 
; 669  : 	m_JumpState = PJS_DASH;

  004e8	6a 05		 push	 5
  004ea	5f		 pop	 edi

; 670  : 	pOwner->SetComboDashState();

  004eb	8b ce		 mov	 ecx, esi
  004ed	89 bb 24 01 00
	00		 mov	 DWORD PTR [ebx+292], edi
  004f3	e8 00 00 00 00	 call	 ?SetComboDashState@ioBaseChar@@QAEXXZ ; ioBaseChar::SetComboDashState

; 671  : 
; 672  : 	if( pOwner->IsNeedSendNetwork() )

  004f8	8b 06		 mov	 eax, DWORD PTR [esi]
  004fa	8b ce		 mov	 ecx, esi
  004fc	ff 90 04 01 00
	00		 call	 DWORD PTR [eax+260]
  00502	84 c0		 test	 al, al
  00504	0f 84 a9 00 00
	00		 je	 $LN2@SetDash

; 673  : 	{
; 674  : 		SP2Packet kPacket( CUPK_EXTEND_JUMP );

  0050a	68 46 41 00 00	 push	 16710			; 00004146H
  0050f	8d 8d bc 7f ff
	ff		 lea	 ecx, DWORD PTR _kPacket$524242[ebp]
  00515	e8 00 00 00 00	 call	 ??0SP2Packet@@QAE@K@Z	; SP2Packet::SP2Packet

; 675  : 		kPacket << pOwner->GetCharName();

  0051a	8d 86 d4 02 00
	00		 lea	 eax, DWORD PTR [esi+724]
  00520	50		 push	 eax
  00521	8d 8d bc 7f ff
	ff		 lea	 ecx, DWORD PTR _kPacket$524242[ebp]
  00527	89 7d fc	 mov	 DWORD PTR __$EHRec$[ebp+8], edi
  0052a	e8 00 00 00 00	 call	 ??6SP2Packet@@QAEAAV0@ABVioHashString@@@Z ; SP2Packet::operator<<

; 676  : 		kPacket << (int)GetType();

  0052f	8b 03		 mov	 eax, DWORD PTR [ebx]
  00531	8b cb		 mov	 ecx, ebx
  00533	ff 50 08	 call	 DWORD PTR [eax+8]
  00536	50		 push	 eax
  00537	8d 8d bc 7f ff
	ff		 lea	 ecx, DWORD PTR _kPacket$524242[ebp]
  0053d	e8 00 00 00 00	 call	 ??6SP2Packet@@QAEAAV0@H@Z ; SP2Packet::operator<<

; 677  : 		kPacket << pOwner->GetHP().m_fCurValue;

  00542	8d 86 c0 00 00
	00		 lea	 eax, DWORD PTR [esi+192]
  00548	50		 push	 eax
  00549	8d 8d bc 7f ff
	ff		 lea	 ecx, DWORD PTR _kPacket$524242[ebp]
  0054f	e8 00 00 00 00	 call	 ??6SP2Packet@@QAEAAV0@AAV?$CEncrypt@M@@@Z ; SP2Packet::operator<<

; 678  : 		kPacket << m_JumpState;

  00554	ff b3 24 01 00
	00		 push	 DWORD PTR [ebx+292]
  0055a	8d 8d bc 7f ff
	ff		 lea	 ecx, DWORD PTR _kPacket$524242[ebp]
  00560	e8 00 00 00 00	 call	 ??6SP2Packet@@QAEAAV0@H@Z ; SP2Packet::operator<<

; 679  : 
; 680  : 		kPacket << vMoveDir;

  00565	8d 45 d4	 lea	 eax, DWORD PTR _vMoveDir$[ebp]
  00568	50		 push	 eax
  00569	8d 8d bc 7f ff
	ff		 lea	 ecx, DWORD PTR _kPacket$524242[ebp]
  0056f	e8 00 00 00 00	 call	 ??6SP2Packet@@QAEAAV0@ABUD3DXVECTOR3@@@Z ; SP2Packet::operator<<

; 681  : 		kPacket << pOwner->GetTargetRot();

  00574	8d 86 a4 06 00
	00		 lea	 eax, DWORD PTR [esi+1700]
  0057a	50		 push	 eax
  0057b	8d 8d bc 7f ff
	ff		 lea	 ecx, DWORD PTR _kPacket$524242[ebp]
  00581	e8 00 00 00 00	 call	 ??6SP2Packet@@QAEAAV0@ABUD3DXQUATERNION@@@Z ; SP2Packet::operator<<

; 682  : 		pOwner->FillAutoTargetInfo( kPacket );

  00586	8d 85 bc 7f ff
	ff		 lea	 eax, DWORD PTR _kPacket$524242[ebp]
  0058c	50		 push	 eax
  0058d	8b ce		 mov	 ecx, esi
  0058f	e8 00 00 00 00	 call	 ?FillAutoTargetInfo@ioBaseChar@@QAEXAAVSP2Packet@@@Z ; ioBaseChar::FillAutoTargetInfo

; 683  : 		P2PNetwork::SendToAllPlayingUser( kPacket );

  00594	8d 85 bc 7f ff
	ff		 lea	 eax, DWORD PTR _kPacket$524242[ebp]
  0059a	6a 00		 push	 0
  0059c	50		 push	 eax
  0059d	e8 00 00 00 00	 call	 ?SendToAllPlayingUser@P2PNetwork@@YAXAAVSP2Packet@@PAVioBaseChar@@@Z ; P2PNetwork::SendToAllPlayingUser

; 684  : 	}

  005a2	83 4d fc ff	 or	 DWORD PTR __$EHRec$[ebp+8], -1
  005a6	59		 pop	 ecx
  005a7	59		 pop	 ecx
  005a8	8d 8d bc 7f ff
	ff		 lea	 ecx, DWORD PTR _kPacket$524242[ebp]
  005ae	e8 00 00 00 00	 call	 ??1SP2Packet@@UAE@XZ	; SP2Packet::~SP2Packet
$LN2@SetDash:

; 685  : 
; 686  : 	if( m_bUseNewJumpTypeDash )

  005b3	80 bb f8 02 00
	00 00		 cmp	 BYTE PTR [ebx+760], 0
  005ba	74 14		 je	 SHORT $LN1@SetDash

; 687  : 	{
; 688  : 		SetNewJumpTypeDashAttack( pOwner, m_dwDashEndTime, dwKeyReserveTime );

  005bc	ff b5 b4 7f ff
	ff		 push	 DWORD PTR _dwKeyReserveTime$[ebp]
  005c2	8b cb		 mov	 ecx, ebx
  005c4	ff b3 e0 02 00
	00		 push	 DWORD PTR [ebx+736]
  005ca	56		 push	 esi
  005cb	e8 00 00 00 00	 call	 ?SetNewJumpTypeDashAttack@ioPowerChargeJump@@IAEXPAVioBaseChar@@KK@Z ; ioPowerChargeJump::SetNewJumpTypeDashAttack
$LN1@SetDash:

; 689  : 		return;
; 690  : 	}
; 691  : }

  005d0	8b 4d f4	 mov	 ecx, DWORD PTR __$EHRec$[ebp]
  005d3	64 89 0d 00 00
	00 00		 mov	 DWORD PTR fs:0, ecx
  005da	59		 pop	 ecx
  005db	5f		 pop	 edi
  005dc	5e		 pop	 esi
  005dd	5b		 pop	 ebx
  005de	8b 4d f0	 mov	 ecx, DWORD PTR __$ArrayPad$[ebp]
  005e1	33 cd		 xor	 ecx, ebp
  005e3	e8 00 00 00 00	 call	 @__security_check_cookie@4
  005e8	c9		 leave
  005e9	c2 08 00	 ret	 8
_TEXT	ENDS
;	COMDAT text$x
text$x	SEGMENT
__unwindfunclet$?SetDash@ioPowerChargeJump@@IAEXPAVioBaseChar@@M@Z$0:
  00000	8b 8d b4 7f ff
	ff		 mov	 ecx, DWORD PTR $T531034[ebp]
  00006	ff 25 00 00 00
	00		 jmp	 DWORD PTR __imp_??1ioHashString@@QAE@XZ
__unwindfunclet$?SetDash@ioPowerChargeJump@@IAEXPAVioBaseChar@@M@Z$2:
  0000c	8d 8d 88 7f ff
	ff		 lea	 ecx, DWORD PTR $T531036[ebp]
  00012	ff 25 00 00 00
	00		 jmp	 DWORD PTR __imp_??1ioHashString@@QAE@XZ
__unwindfunclet$?SetDash@ioPowerChargeJump@@IAEXPAVioBaseChar@@M@Z$3:
  00018	8d 8d 78 7f ff
	ff		 lea	 ecx, DWORD PTR $T531037[ebp]
  0001e	ff 25 00 00 00
	00		 jmp	 DWORD PTR __imp_??1ioHashString@@QAE@XZ
__unwindfunclet$?SetDash@ioPowerChargeJump@@IAEXPAVioBaseChar@@M@Z$4:
  00024	8d 4d e0	 lea	 ecx, DWORD PTR $T531038[ebp]
  00027	ff 25 00 00 00
	00		 jmp	 DWORD PTR __imp_??1ioHashString@@QAE@XZ
__unwindfunclet$?SetDash@ioPowerChargeJump@@IAEXPAVioBaseChar@@M@Z$6:
  0002d	8d 8d 88 7f ff
	ff		 lea	 ecx, DWORD PTR $T531216[ebp]
  00033	ff 25 00 00 00
	00		 jmp	 DWORD PTR __imp_??1ioHashString@@QAE@XZ
__unwindfunclet$?SetDash@ioPowerChargeJump@@IAEXPAVioBaseChar@@M@Z$5:
  00039	8d 8d bc 7f ff
	ff		 lea	 ecx, DWORD PTR _kPacket$524242[ebp]
  0003f	e9 00 00 00 00	 jmp	 ??1SP2Packet@@UAE@XZ	; SP2Packet::~SP2Packet
__ehhandler$?SetDash@ioPowerChargeJump@@IAEXPAVioBaseChar@@M@Z:
  00044	8b 54 24 08	 mov	 edx, DWORD PTR [esp+8]
  00048	8d 42 0c	 lea	 eax, DWORD PTR [edx+12]
  0004b	8b 8a 74 7f ff
	ff		 mov	 ecx, DWORD PTR [edx-32908]
  00051	33 c8		 xor	 ecx, eax
  00053	e8 00 00 00 00	 call	 @__security_check_cookie@4
  00058	8b 4a fc	 mov	 ecx, DWORD PTR [edx-4]
  0005b	33 c8		 xor	 ecx, eax
  0005d	e8 00 00 00 00	 call	 @__security_check_cookie@4
  00062	b8 00 00 00 00	 mov	 eax, OFFSET __ehfuncinfo$?SetDash@ioPowerChargeJump@@IAEXPAVioBaseChar@@M@Z
  00067	e9 00 00 00 00	 jmp	 ___CxxFrameHandler3
text$x	ENDS
?SetDash@ioPowerChargeJump@@IAEXPAVioBaseChar@@M@Z ENDP	; ioPowerChargeJump::SetDash
PUBLIC	?ProcessJumpping@ioPowerChargeJump@@UAEXPAVioBaseChar@@MM@Z ; ioPowerChargeJump::ProcessJumpping
; Function compile flags: /Ogsp
;	COMDAT ?ProcessJumpping@ioPowerChargeJump@@UAEXPAVioBaseChar@@MM@Z
_TEXT	SEGMENT
_pOwner$ = 8						; size = 4
_fHeightGap$ = 12					; size = 4
_fNeedGauge$ = 16					; size = 4
?ProcessJumpping@ioPowerChargeJump@@UAEXPAVioBaseChar@@MM@Z PROC ; ioPowerChargeJump::ProcessJumpping, COMDAT
; _this$ = ecx

; 756  : {

  00000	55		 push	 ebp
  00001	8b ec		 mov	 ebp, esp
  00003	56		 push	 esi
  00004	8b f1		 mov	 esi, ecx

; 757  : 	if( m_bEnableJumpDash && IsCanDash( pOwner, fHeightGap ) )

  00006	80 be 80 02 00
	00 00		 cmp	 BYTE PTR [esi+640], 0
  0000d	74 2c		 je	 SHORT $LN1@ProcessJum
  0000f	f3 0f 10 45 0c	 movss	 xmm0, DWORD PTR _fHeightGap$[ebp]
  00014	51		 push	 ecx
  00015	f3 0f 11 04 24	 movss	 DWORD PTR [esp], xmm0
  0001a	ff 75 08	 push	 DWORD PTR _pOwner$[ebp]
  0001d	e8 00 00 00 00	 call	 ?IsCanDash@ioPowerChargeJump@@IAE_NPAVioBaseChar@@M@Z ; ioPowerChargeJump::IsCanDash
  00022	84 c0		 test	 al, al
  00024	74 15		 je	 SHORT $LN1@ProcessJum

; 758  : 	{
; 759  : 		SetDash( pOwner, fHeightGap );

  00026	f3 0f 10 45 0c	 movss	 xmm0, DWORD PTR _fHeightGap$[ebp]
  0002b	51		 push	 ecx
  0002c	f3 0f 11 04 24	 movss	 DWORD PTR [esp], xmm0
  00031	ff 75 08	 push	 DWORD PTR _pOwner$[ebp]
  00034	8b ce		 mov	 ecx, esi
  00036	e8 00 00 00 00	 call	 ?SetDash@ioPowerChargeJump@@IAEXPAVioBaseChar@@M@Z ; ioPowerChargeJump::SetDash
$LN1@ProcessJum:
  0003b	5e		 pop	 esi

; 760  : 		return;
; 761  : 	}
; 762  : }

  0003c	5d		 pop	 ebp
  0003d	c2 0c 00	 ret	 12			; 0000000cH
?ProcessJumpping@ioPowerChargeJump@@UAEXPAVioBaseChar@@MM@Z ENDP ; ioPowerChargeJump::ProcessJumpping
_TEXT	ENDS
PUBLIC	??$_Cons_val@V?$allocator@UForceInfo@@@std@@UForceInfo@@ABU3@@std@@YAXAAV?$allocator@UForceInfo@@@0@PAUForceInfo@@ABU2@@Z ; std::_Cons_val<std::allocator<ForceInfo>,ForceInfo,ForceInfo const &>
; Function compile flags: /Ogsp
; File c:\program files (x86)\microsoft visual studio 10.0\vc\include\xmemory
;	COMDAT ??$_Cons_val@V?$allocator@UForceInfo@@@std@@UForceInfo@@ABU3@@std@@YAXAAV?$allocator@UForceInfo@@@0@PAUForceInfo@@ABU2@@Z
_TEXT	SEGMENT
__Alval$ = 8						; size = 4
__Pdest$ = 12						; size = 4
__Src$ = 16						; size = 4
??$_Cons_val@V?$allocator@UForceInfo@@@std@@UForceInfo@@ABU3@@std@@YAXAAV?$allocator@UForceInfo@@@0@PAUForceInfo@@ABU2@@Z PROC ; std::_Cons_val<std::allocator<ForceInfo>,ForceInfo,ForceInfo const &>, COMDAT

; 279  : 	{	// construct using allocator

  00000	55		 push	 ebp
  00001	8b ec		 mov	 ebp, esp
  00003	57		 push	 edi

; 280  : 	_Alval.construct(_Pdest, _STD forward<_Ty2>(_Src));

  00004	8b 7d 0c	 mov	 edi, DWORD PTR __Pdest$[ebp]
  00007	85 ff		 test	 edi, edi
  00009	74 08		 je	 SHORT $LN9@Cons_val
  0000b	56		 push	 esi
  0000c	8b 75 10	 mov	 esi, DWORD PTR __Src$[ebp]
  0000f	a5		 movsd
  00010	a5		 movsd
  00011	a5		 movsd
  00012	5e		 pop	 esi
$LN9@Cons_val:
  00013	5f		 pop	 edi

; 281  : 	}

  00014	5d		 pop	 ebp
  00015	c3		 ret	 0
??$_Cons_val@V?$allocator@UForceInfo@@@std@@UForceInfo@@ABU3@@std@@YAXAAV?$allocator@UForceInfo@@@0@PAUForceInfo@@ABU2@@Z ENDP ; std::_Cons_val<std::allocator<ForceInfo>,ForceInfo,ForceInfo const &>
_TEXT	ENDS
PUBLIC	?construct@?$allocator@UWeaponInfo@@@std@@QAEXPAUWeaponInfo@@ABU3@@Z ; std::allocator<WeaponInfo>::construct
; Function compile flags: /Ogsp
;	COMDAT ?construct@?$allocator@UWeaponInfo@@@std@@QAEXPAUWeaponInfo@@ABU3@@Z
_TEXT	SEGMENT
__Ptr$ = 8						; size = 4
__Val$ = 12						; size = 4
?construct@?$allocator@UWeaponInfo@@@std@@QAEXPAUWeaponInfo@@ABU3@@Z PROC ; std::allocator<WeaponInfo>::construct, COMDAT
; _this$ = ecx

; 196  : 		{	// construct object at _Ptr with value _Val

  00000	55		 push	 ebp
  00001	8b ec		 mov	 ebp, esp

; 197  : 		_Construct(_Ptr, _Val);

  00003	ff 75 0c	 push	 DWORD PTR __Val$[ebp]
  00006	ff 75 08	 push	 DWORD PTR __Ptr$[ebp]
  00009	e8 00 00 00 00	 call	 ??$_Construct@UWeaponInfo@@ABU1@@std@@YAXPAUWeaponInfo@@ABU1@@Z ; std::_Construct<WeaponInfo,WeaponInfo const &>
  0000e	59		 pop	 ecx
  0000f	59		 pop	 ecx

; 198  : 		}

  00010	5d		 pop	 ebp
  00011	c2 08 00	 ret	 8
?construct@?$allocator@UWeaponInfo@@@std@@QAEXPAUWeaponInfo@@ABU3@@Z ENDP ; std::allocator<WeaponInfo>::construct
_TEXT	ENDS
PUBLIC	??0?$vector@UWeaponInfo@@V?$allocator@UWeaponInfo@@@std@@@std@@QAE@XZ ; std::vector<WeaponInfo,std::allocator<WeaponInfo> >::vector<WeaponInfo,std::allocator<WeaponInfo> >
; Function compile flags: /Ogsp
; File c:\program files (x86)\microsoft visual studio 10.0\vc\include\vector
;	COMDAT ??0?$vector@UWeaponInfo@@V?$allocator@UWeaponInfo@@@std@@@std@@QAE@XZ
_TEXT	SEGMENT
??0?$vector@UWeaponInfo@@V?$allocator@UWeaponInfo@@@std@@@std@@QAE@XZ PROC ; std::vector<WeaponInfo,std::allocator<WeaponInfo> >::vector<WeaponInfo,std::allocator<WeaponInfo> >, COMDAT
; _this$ = ecx

; 507  : 		{	// construct empty vector

  00000	8b c1		 mov	 eax, ecx
  00002	33 c9		 xor	 ecx, ecx
  00004	89 08		 mov	 DWORD PTR [eax], ecx
  00006	89 48 04	 mov	 DWORD PTR [eax+4], ecx
  00009	89 48 08	 mov	 DWORD PTR [eax+8], ecx

; 508  : 		}

  0000c	c3		 ret	 0
??0?$vector@UWeaponInfo@@V?$allocator@UWeaponInfo@@@std@@@std@@QAE@XZ ENDP ; std::vector<WeaponInfo,std::allocator<WeaponInfo> >::vector<WeaponInfo,std::allocator<WeaponInfo> >
_TEXT	ENDS
PUBLIC	??0?$vector@UForceInfo@@V?$allocator@UForceInfo@@@std@@@std@@QAE@XZ ; std::vector<ForceInfo,std::allocator<ForceInfo> >::vector<ForceInfo,std::allocator<ForceInfo> >
; Function compile flags: /Ogsp
;	COMDAT ??0?$vector@UForceInfo@@V?$allocator@UForceInfo@@@std@@@std@@QAE@XZ
_TEXT	SEGMENT
??0?$vector@UForceInfo@@V?$allocator@UForceInfo@@@std@@@std@@QAE@XZ PROC ; std::vector<ForceInfo,std::allocator<ForceInfo> >::vector<ForceInfo,std::allocator<ForceInfo> >, COMDAT
; _this$ = ecx

; 507  : 		{	// construct empty vector

  00000	8b c1		 mov	 eax, ecx
  00002	33 c9		 xor	 ecx, ecx
  00004	89 08		 mov	 DWORD PTR [eax], ecx
  00006	89 48 04	 mov	 DWORD PTR [eax+4], ecx
  00009	89 48 08	 mov	 DWORD PTR [eax+8], ecx

; 508  : 		}

  0000c	c3		 ret	 0
??0?$vector@UForceInfo@@V?$allocator@UForceInfo@@@std@@@std@@QAE@XZ ENDP ; std::vector<ForceInfo,std::allocator<ForceInfo> >::vector<ForceInfo,std::allocator<ForceInfo> >
_TEXT	ENDS
PUBLIC	??0?$CEncrypt@M@@QAE@ABV0@@Z			; CEncrypt<float>::CEncrypt<float>
;	COMDAT xdata$x
; File d:\lost saga for developer\youtube\tutorial\source\src\lsclient\encryptvalue.h
xdata$x	SEGMENT
__unwindtable$??0?$CEncrypt@M@@QAE@ABV0@@Z DD 0ffffffffH
	DD	FLAT:__unwindfunclet$??0?$CEncrypt@M@@QAE@ABV0@@Z$0
__ehfuncinfo$??0?$CEncrypt@M@@QAE@ABV0@@Z DD 019930522H
	DD	01H
	DD	FLAT:__unwindtable$??0?$CEncrypt@M@@QAE@ABV0@@Z
	DD	2 DUP(00H)
	DD	2 DUP(00H)
	DD	00H
	DD	01H
; Function compile flags: /Ogsp
xdata$x	ENDS
;	COMDAT ??0?$CEncrypt@M@@QAE@ABV0@@Z
_TEXT	SEGMENT
_this$ = -16						; size = 4
__$EHRec$ = -12						; size = 12
_value$531349 = 8					; size = 4
_value$531344 = 8					; size = 4
_inValue$ = 8						; size = 4
??0?$CEncrypt@M@@QAE@ABV0@@Z PROC			; CEncrypt<float>::CEncrypt<float>, COMDAT
; _this$ = ecx

; 120  : 	CEncrypt( const CEncrypt<type> &inValue )   //     

  00000	6a 04		 push	 4
  00002	b8 00 00 00 00	 mov	 eax, __ehhandler$??0?$CEncrypt@M@@QAE@ABV0@@Z
  00007	e8 00 00 00 00	 call	 __EH_prolog3
  0000c	8b f1		 mov	 esi, ecx
  0000e	89 75 f0	 mov	 DWORD PTR _this$[ebp], esi
  00011	8d 4e 0c	 lea	 ecx, DWORD PTR [esi+12]
  00014	c7 06 00 00 00
	00		 mov	 DWORD PTR [esi], OFFSET ??_7?$CEncrypt@M@@6B@
  0001a	e8 00 00 00 00	 call	 ??0ccddaabb@@QAE@XZ	; ccddaabb::ccddaabb
  0001f	83 65 fc 00	 and	 DWORD PTR __$EHRec$[ebp+8], 0

; 121  : 	{
; 122  : 		Init();

  00023	8b ce		 mov	 ecx, esi
  00025	e8 00 00 00 00	 call	 ?Init@?$CEncrypt@M@@AAEXXZ ; CEncrypt<float>::Init

; 123  : 		*this = inValue;

  0002a	8b 4d 08	 mov	 ecx, DWORD PTR _inValue$[ebp]
  0002d	8d 45 08	 lea	 eax, DWORD PTR _value$531344[ebp]
  00030	50		 push	 eax
  00031	e8 00 00 00 00	 call	 ?DecryptValueToPool@?$CEncrypt@M@@QAEXPAM@Z ; CEncrypt<float>::DecryptValueToPool
  00036	f3 0f 10 45 08	 movss	 xmm0, DWORD PTR _value$531344[ebp]
  0003b	8d 45 08	 lea	 eax, DWORD PTR _value$531349[ebp]
  0003e	50		 push	 eax
  0003f	8b ce		 mov	 ecx, esi
  00041	f3 0f 11 45 08	 movss	 DWORD PTR _value$531349[ebp], xmm0
  00046	e8 00 00 00 00	 call	 ?EncryptValueToPool@?$CEncrypt@M@@AAEXPBD@Z ; CEncrypt<float>::EncryptValueToPool

; 124  : 	}

  0004b	8b c6		 mov	 eax, esi
  0004d	e8 00 00 00 00	 call	 __EH_epilog3
  00052	c2 04 00	 ret	 4
_TEXT	ENDS
;	COMDAT text$x
text$x	SEGMENT
__unwindfunclet$??0?$CEncrypt@M@@QAE@ABV0@@Z$0:
  00000	8b 4d f0	 mov	 ecx, DWORD PTR _this$[ebp]
  00003	83 c1 0c	 add	 ecx, 12			; 0000000cH
  00006	e9 00 00 00 00	 jmp	 ??1ccddaabb@@UAE@XZ	; ccddaabb::~ccddaabb
__ehhandler$??0?$CEncrypt@M@@QAE@ABV0@@Z:
  0000b	8b 54 24 08	 mov	 edx, DWORD PTR [esp+8]
  0000f	8d 42 0c	 lea	 eax, DWORD PTR [edx+12]
  00012	8b 4a ec	 mov	 ecx, DWORD PTR [edx-20]
  00015	33 c8		 xor	 ecx, eax
  00017	e8 00 00 00 00	 call	 @__security_check_cookie@4
  0001c	b8 00 00 00 00	 mov	 eax, OFFSET __ehfuncinfo$??0?$CEncrypt@M@@QAE@ABV0@@Z
  00021	e9 00 00 00 00	 jmp	 ___CxxFrameHandler3
text$x	ENDS
??0?$CEncrypt@M@@QAE@ABV0@@Z ENDP			; CEncrypt<float>::CEncrypt<float>
PUBLIC	?_Buy@?$vector@UWeaponInfo@@V?$allocator@UWeaponInfo@@@std@@@std@@IAE_NI@Z ; std::vector<WeaponInfo,std::allocator<WeaponInfo> >::_Buy
; Function compile flags: /Ogsp
; File c:\program files (x86)\microsoft visual studio 10.0\vc\include\vector
;	COMDAT ?_Buy@?$vector@UWeaponInfo@@V?$allocator@UWeaponInfo@@@std@@@std@@IAE_NI@Z
_TEXT	SEGMENT
__Capacity$ = 8						; size = 4
?_Buy@?$vector@UWeaponInfo@@V?$allocator@UWeaponInfo@@@std@@@std@@IAE_NI@Z PROC ; std::vector<WeaponInfo,std::allocator<WeaponInfo> >::_Buy, COMDAT
; _this$ = ecx

; 1250 : 		{	// allocate array with _Capacity elements

  00000	55		 push	 ebp
  00001	8b ec		 mov	 ebp, esp
  00003	56		 push	 esi

; 1251 : 		this->_Myfirst = 0;

  00004	33 c0		 xor	 eax, eax
  00006	57		 push	 edi

; 1252 : 		this->_Mylast = 0;
; 1253 : 		this->_Myend = 0;
; 1254 : 
; 1255 : 		if (_Capacity == 0)

  00007	8b 7d 08	 mov	 edi, DWORD PTR __Capacity$[ebp]
  0000a	8b f1		 mov	 esi, ecx
  0000c	89 06		 mov	 DWORD PTR [esi], eax
  0000e	89 46 04	 mov	 DWORD PTR [esi+4], eax
  00011	89 46 08	 mov	 DWORD PTR [esi+8], eax
  00014	3b f8		 cmp	 edi, eax
  00016	75 04		 jne	 SHORT $LN4@Buy

; 1256 : 			return (false);

  00018	32 c0		 xor	 al, al
  0001a	eb 2b		 jmp	 SHORT $LN5@Buy
$LN4@Buy:

; 1257 : 		else if (max_size() < _Capacity)

  0001c	81 ff 66 66 66
	06		 cmp	 edi, 107374182		; 06666666H
  00022	76 0b		 jbe	 SHORT $LN2@Buy

; 1258 : 			_Xlen();	// result too long

  00024	68 00 00 00 00	 push	 OFFSET ??_C@_0BD@OLBABOEK@vector?$DMT?$DO?5too?5long?$AA@
  00029	ff 15 00 00 00
	00		 call	 DWORD PTR __imp_?_Xlength_error@std@@YAXPBD@Z
$LN19@Buy:
$LN2@Buy:

; 1259 : 		else
; 1260 : 			{	// nonempty array, allocate storage
; 1261 : 			this->_Myfirst = this->_Alval.allocate(_Capacity);

  0002f	50		 push	 eax
  00030	57		 push	 edi
  00031	e8 00 00 00 00	 call	 ??$_Allocate@UWeaponInfo@@@std@@YAPAUWeaponInfo@@IPAU1@@Z ; std::_Allocate<WeaponInfo>

; 1262 : 			this->_Mylast = this->_Myfirst;
; 1263 : 			this->_Myend = this->_Myfirst + _Capacity;

  00036	6b ff 28	 imul	 edi, 40			; 00000028H
  00039	03 f8		 add	 edi, eax
  0003b	59		 pop	 ecx
  0003c	89 06		 mov	 DWORD PTR [esi], eax
  0003e	89 46 04	 mov	 DWORD PTR [esi+4], eax
  00041	59		 pop	 ecx
  00042	89 7e 08	 mov	 DWORD PTR [esi+8], edi

; 1264 : 			}
; 1265 : 		return (true);

  00045	b0 01		 mov	 al, 1
$LN5@Buy:
  00047	5f		 pop	 edi
  00048	5e		 pop	 esi

; 1266 : 		}

  00049	5d		 pop	 ebp
  0004a	c2 04 00	 ret	 4
$LN18@Buy:
?_Buy@?$vector@UWeaponInfo@@V?$allocator@UWeaponInfo@@@std@@@std@@IAE_NI@Z ENDP ; std::vector<WeaponInfo,std::allocator<WeaponInfo> >::_Buy
_TEXT	ENDS
PUBLIC	?_Buy@?$vector@UForceInfo@@V?$allocator@UForceInfo@@@std@@@std@@IAE_NI@Z ; std::vector<ForceInfo,std::allocator<ForceInfo> >::_Buy
; Function compile flags: /Ogsp
;	COMDAT ?_Buy@?$vector@UForceInfo@@V?$allocator@UForceInfo@@@std@@@std@@IAE_NI@Z
_TEXT	SEGMENT
__Capacity$ = 8						; size = 4
?_Buy@?$vector@UForceInfo@@V?$allocator@UForceInfo@@@std@@@std@@IAE_NI@Z PROC ; std::vector<ForceInfo,std::allocator<ForceInfo> >::_Buy, COMDAT
; _this$ = ecx

; 1250 : 		{	// allocate array with _Capacity elements

  00000	55		 push	 ebp
  00001	8b ec		 mov	 ebp, esp
  00003	56		 push	 esi

; 1251 : 		this->_Myfirst = 0;

  00004	33 c0		 xor	 eax, eax
  00006	57		 push	 edi

; 1252 : 		this->_Mylast = 0;
; 1253 : 		this->_Myend = 0;
; 1254 : 
; 1255 : 		if (_Capacity == 0)

  00007	8b 7d 08	 mov	 edi, DWORD PTR __Capacity$[ebp]
  0000a	8b f1		 mov	 esi, ecx
  0000c	89 06		 mov	 DWORD PTR [esi], eax
  0000e	89 46 04	 mov	 DWORD PTR [esi+4], eax
  00011	89 46 08	 mov	 DWORD PTR [esi+8], eax
  00014	3b f8		 cmp	 edi, eax
  00016	75 04		 jne	 SHORT $LN4@Buy@2

; 1256 : 			return (false);

  00018	32 c0		 xor	 al, al
  0001a	eb 2b		 jmp	 SHORT $LN5@Buy@2
$LN4@Buy@2:

; 1257 : 		else if (max_size() < _Capacity)

  0001c	81 ff 55 55 55
	15		 cmp	 edi, 357913941		; 15555555H
  00022	76 0b		 jbe	 SHORT $LN2@Buy@2

; 1258 : 			_Xlen();	// result too long

  00024	68 00 00 00 00	 push	 OFFSET ??_C@_0BD@OLBABOEK@vector?$DMT?$DO?5too?5long?$AA@
  00029	ff 15 00 00 00
	00		 call	 DWORD PTR __imp_?_Xlength_error@std@@YAXPBD@Z
$LN19@Buy@2:
$LN2@Buy@2:

; 1259 : 		else
; 1260 : 			{	// nonempty array, allocate storage
; 1261 : 			this->_Myfirst = this->_Alval.allocate(_Capacity);

  0002f	50		 push	 eax
  00030	57		 push	 edi
  00031	e8 00 00 00 00	 call	 ??$_Allocate@UForceInfo@@@std@@YAPAUForceInfo@@IPAU1@@Z ; std::_Allocate<ForceInfo>

; 1262 : 			this->_Mylast = this->_Myfirst;
; 1263 : 			this->_Myend = this->_Myfirst + _Capacity;

  00036	6b ff 0c	 imul	 edi, 12			; 0000000cH
  00039	03 f8		 add	 edi, eax
  0003b	59		 pop	 ecx
  0003c	89 06		 mov	 DWORD PTR [esi], eax
  0003e	89 46 04	 mov	 DWORD PTR [esi+4], eax
  00041	59		 pop	 ecx
  00042	89 7e 08	 mov	 DWORD PTR [esi+8], edi

; 1264 : 			}
; 1265 : 		return (true);

  00045	b0 01		 mov	 al, 1
$LN5@Buy@2:
  00047	5f		 pop	 edi
  00048	5e		 pop	 esi

; 1266 : 		}

  00049	5d		 pop	 ebp
  0004a	c2 04 00	 ret	 4
$LN18@Buy@2:
?_Buy@?$vector@UForceInfo@@V?$allocator@UForceInfo@@@std@@@std@@IAE_NI@Z ENDP ; std::vector<ForceInfo,std::allocator<ForceInfo> >::_Buy
_TEXT	ENDS
PUBLIC	??9?$_Vector_const_iterator@V?$_Vector_val@UWeaponInfo@@V?$allocator@UWeaponInfo@@@std@@@std@@@std@@QBE_NABV01@@Z ; std::_Vector_const_iterator<std::_Vector_val<WeaponInfo,std::allocator<WeaponInfo> > >::operator!=
; Function compile flags: /Ogsp
;	COMDAT ??9?$_Vector_const_iterator@V?$_Vector_val@UWeaponInfo@@V?$allocator@UWeaponInfo@@@std@@@std@@@std@@QBE_NABV01@@Z
_TEXT	SEGMENT
__Right$ = 8						; size = 4
??9?$_Vector_const_iterator@V?$_Vector_val@UWeaponInfo@@V?$allocator@UWeaponInfo@@@std@@@std@@@std@@QBE_NABV01@@Z PROC ; std::_Vector_const_iterator<std::_Vector_val<WeaponInfo,std::allocator<WeaponInfo> > >::operator!=, COMDAT
; _this$ = ecx

; 207  : 		{	// test for iterator inequality

  00000	55		 push	 ebp
  00001	8b ec		 mov	 ebp, esp

; 208  : 		return (!(*this == _Right));

  00003	8b 01		 mov	 eax, DWORD PTR [ecx]
  00005	8b 55 08	 mov	 edx, DWORD PTR __Right$[ebp]
  00008	33 c9		 xor	 ecx, ecx
  0000a	3b 02		 cmp	 eax, DWORD PTR [edx]
  0000c	0f 95 c0	 setne	 al

; 209  : 		}

  0000f	5d		 pop	 ebp
  00010	c2 04 00	 ret	 4
??9?$_Vector_const_iterator@V?$_Vector_val@UWeaponInfo@@V?$allocator@UWeaponInfo@@@std@@@std@@@std@@QBE_NABV01@@Z ENDP ; std::_Vector_const_iterator<std::_Vector_val<WeaponInfo,std::allocator<WeaponInfo> > >::operator!=
_TEXT	ENDS
PUBLIC	??9?$_Vector_const_iterator@V?$_Vector_val@UForceInfo@@V?$allocator@UForceInfo@@@std@@@std@@@std@@QBE_NABV01@@Z ; std::_Vector_const_iterator<std::_Vector_val<ForceInfo,std::allocator<ForceInfo> > >::operator!=
; Function compile flags: /Ogsp
;	COMDAT ??9?$_Vector_const_iterator@V?$_Vector_val@UForceInfo@@V?$allocator@UForceInfo@@@std@@@std@@@std@@QBE_NABV01@@Z
_TEXT	SEGMENT
__Right$ = 8						; size = 4
??9?$_Vector_const_iterator@V?$_Vector_val@UForceInfo@@V?$allocator@UForceInfo@@@std@@@std@@@std@@QBE_NABV01@@Z PROC ; std::_Vector_const_iterator<std::_Vector_val<ForceInfo,std::allocator<ForceInfo> > >::operator!=, COMDAT
; _this$ = ecx

; 207  : 		{	// test for iterator inequality

  00000	55		 push	 ebp
  00001	8b ec		 mov	 ebp, esp

; 208  : 		return (!(*this == _Right));

  00003	8b 01		 mov	 eax, DWORD PTR [ecx]
  00005	8b 55 08	 mov	 edx, DWORD PTR __Right$[ebp]
  00008	33 c9		 xor	 ecx, ecx
  0000a	3b 02		 cmp	 eax, DWORD PTR [edx]
  0000c	0f 95 c0	 setne	 al

; 209  : 		}

  0000f	5d		 pop	 ebp
  00010	c2 04 00	 ret	 4
??9?$_Vector_const_iterator@V?$_Vector_val@UForceInfo@@V?$allocator@UForceInfo@@@std@@@std@@@std@@QBE_NABV01@@Z ENDP ; std::_Vector_const_iterator<std::_Vector_val<ForceInfo,std::allocator<ForceInfo> > >::operator!=
_TEXT	ENDS
PUBLIC	??$_Dest_val@V?$allocator@UForceInfo@@@std@@UForceInfo@@@std@@YAXAAV?$allocator@UForceInfo@@@0@PAUForceInfo@@@Z ; std::_Dest_val<std::allocator<ForceInfo>,ForceInfo>
; Function compile flags: /Ogsp
; File c:\program files (x86)\microsoft visual studio 10.0\vc\include\xmemory
;	COMDAT ??$_Dest_val@V?$allocator@UForceInfo@@@std@@UForceInfo@@@std@@YAXAAV?$allocator@UForceInfo@@@0@PAUForceInfo@@@Z
_TEXT	SEGMENT
__Alval$ = 8						; size = 4
__Pdest$ = 12						; size = 4
??$_Dest_val@V?$allocator@UForceInfo@@@std@@UForceInfo@@@std@@YAXAAV?$allocator@UForceInfo@@@0@PAUForceInfo@@@Z PROC ; std::_Dest_val<std::allocator<ForceInfo>,ForceInfo>, COMDAT

; 287  : 	_Alval.destroy(_Pdest);
; 288  : 	}

  00000	c3		 ret	 0
??$_Dest_val@V?$allocator@UForceInfo@@@std@@UForceInfo@@@std@@YAXAAV?$allocator@UForceInfo@@@0@PAUForceInfo@@@Z ENDP ; std::_Dest_val<std::allocator<ForceInfo>,ForceInfo>
_TEXT	ENDS
PUBLIC	?destroy@?$allocator@UWeaponInfo@@@std@@QAEXPAUWeaponInfo@@@Z ; std::allocator<WeaponInfo>::destroy
; Function compile flags: /Ogsp
;	COMDAT ?destroy@?$allocator@UWeaponInfo@@@std@@QAEXPAUWeaponInfo@@@Z
_TEXT	SEGMENT
__Ptr$ = 8						; size = 4
?destroy@?$allocator@UWeaponInfo@@@std@@QAEXPAUWeaponInfo@@@Z PROC ; std::allocator<WeaponInfo>::destroy, COMDAT
; _this$ = ecx

; 212  : 		{	// destroy object at _Ptr

  00000	55		 push	 ebp
  00001	8b ec		 mov	 ebp, esp

; 213  : 		_Destroy(_Ptr);

  00003	8b 4d 08	 mov	 ecx, DWORD PTR __Ptr$[ebp]
  00006	83 c1 08	 add	 ecx, 8
  00009	ff 15 00 00 00
	00		 call	 DWORD PTR __imp_??1ioHashString@@QAE@XZ

; 214  : 		}

  0000f	5d		 pop	 ebp
  00010	c2 04 00	 ret	 4
?destroy@?$allocator@UWeaponInfo@@@std@@QAEXPAUWeaponInfo@@@Z ENDP ; std::allocator<WeaponInfo>::destroy
_TEXT	ENDS
PUBLIC	?ProcessJumpAttack@ioPowerChargeJump@@UAEXPAVioBaseChar@@M@Z ; ioPowerChargeJump::ProcessJumpAttack
; Function compile flags: /Ogsp
; File d:\lost saga for developer\youtube\tutorial\source\src\lsclient\iopowerchargejump.cpp
;	COMDAT ?ProcessJumpAttack@ioPowerChargeJump@@UAEXPAVioBaseChar@@M@Z
_TEXT	SEGMENT
_pOwner$ = 8						; size = 4
_fHeightGap$ = 12					; size = 4
?ProcessJumpAttack@ioPowerChargeJump@@UAEXPAVioBaseChar@@M@Z PROC ; ioPowerChargeJump::ProcessJumpAttack, COMDAT
; _this$ = ecx

; 186  : {

  00000	55		 push	 ebp
  00001	8b ec		 mov	 ebp, esp
  00003	56		 push	 esi
  00004	8b f1		 mov	 esi, ecx

; 187  : 	DWORD dwCurTime = FRAMEGETTIME();

  00006	ff 15 00 00 00
	00		 call	 DWORD PTR __imp_?GetSingleton@ioFrameTimer@@SAAAV1@XZ
  0000c	8b c8		 mov	 ecx, eax
  0000e	ff 15 00 00 00
	00		 call	 DWORD PTR __imp_?GetLoopSec@ioFrameTimer@@QBEKXZ

; 188  : 
; 189  : 	switch( m_JumpState )

  00014	8b 86 24 01 00
	00		 mov	 eax, DWORD PTR [esi+292]
  0001a	83 f8 01	 cmp	 eax, 1
  0001d	74 25		 je	 SHORT $LN3@ProcessJum@2
  0001f	83 f8 02	 cmp	 eax, 2
  00022	74 14		 je	 SHORT $LN2@ProcessJum@2
  00024	83 c0 fd	 add	 eax, -3			; fffffffdH
  00027	83 f8 01	 cmp	 eax, 1
  0002a	77 22		 ja	 SHORT $LN4@ProcessJum@2

; 197  : 	case PJS_NORMAL_ATTACK:
; 198  : 	case PJS_EXTEND_ATTACK:
; 199  : 		{
; 200  : 			CheckAirJump( pOwner );

  0002c	ff 75 08	 push	 DWORD PTR _pOwner$[ebp]
  0002f	8b 06		 mov	 eax, DWORD PTR [esi]
  00031	8b ce		 mov	 ecx, esi
  00033	ff 50 7c	 call	 DWORD PTR [eax+124]

; 201  : 		}
; 202  : 		break;

  00036	eb 16		 jmp	 SHORT $LN4@ProcessJum@2
$LN2@ProcessJum@2:

; 193  : 		break;
; 194  : 	case PJS_GATHERING:
; 195  : 		ProcessGathering( pOwner );

  00038	ff 75 08	 push	 DWORD PTR _pOwner$[ebp]
  0003b	8b ce		 mov	 ecx, esi
  0003d	e8 00 00 00 00	 call	 ?ProcessGathering@ioPowerChargeJump@@IAEXPAVioBaseChar@@@Z ; ioPowerChargeJump::ProcessGathering

; 196  : 		break;

  00042	eb 0a		 jmp	 SHORT $LN4@ProcessJum@2
$LN3@ProcessJum@2:

; 190  : 	{
; 191  : 	case PJS_CHARGING:
; 192  : 		ProcessCharging( pOwner );

  00044	ff 75 08	 push	 DWORD PTR _pOwner$[ebp]
  00047	8b ce		 mov	 ecx, esi
  00049	e8 00 00 00 00	 call	 ?ProcessCharging@ioPowerChargeJump@@IAEXPAVioBaseChar@@@Z ; ioPowerChargeJump::ProcessCharging
$LN4@ProcessJum@2:
  0004e	5e		 pop	 esi

; 203  : 	}
; 204  : }

  0004f	5d		 pop	 ebp
  00050	c2 08 00	 ret	 8
?ProcessJumpAttack@ioPowerChargeJump@@UAEXPAVioBaseChar@@M@Z ENDP ; ioPowerChargeJump::ProcessJumpAttack
_TEXT	ENDS
PUBLIC	??$_Uninit_copy@V?$_Vector_const_iterator@V?$_Vector_val@UForceInfo@@V?$allocator@UForceInfo@@@std@@@std@@@std@@PAUForceInfo@@V?$allocator@UForceInfo@@@2@@std@@YAPAUForceInfo@@V?$_Vector_const_iterator@V?$_Vector_val@UForceInfo@@V?$allocator@UForceInfo@@@std@@@std@@@0@0PAU1@AAV?$allocator@UForceInfo@@@0@U_Nonscalar_ptr_iterator_tag@0@@Z ; std::_Uninit_copy<std::_Vector_const_iterator<std::_Vector_val<ForceInfo,std::allocator<ForceInfo> > >,ForceInfo *,std::allocator<ForceInfo> >
; Function compile flags: /Ogsp
; File c:\program files (x86)\microsoft visual studio 10.0\vc\include\memory
;	COMDAT ??$_Uninit_copy@V?$_Vector_const_iterator@V?$_Vector_val@UForceInfo@@V?$allocator@UForceInfo@@@std@@@std@@@std@@PAUForceInfo@@V?$allocator@UForceInfo@@@2@@std@@YAPAUForceInfo@@V?$_Vector_const_iterator@V?$_Vector_val@UForceInfo@@V?$allocator@UForceInfo@@@std@@@std@@@0@0PAU1@AAV?$allocator@UForceInfo@@@0@U_Nonscalar_ptr_iterator_tag@0@@Z
_TEXT	SEGMENT
__First$ = 8						; size = 4
__Last$ = 12						; size = 4
__Dest$ = 16						; size = 4
__Al$ = 20						; size = 4
___formal$ = 24						; size = 1
??$_Uninit_copy@V?$_Vector_const_iterator@V?$_Vector_val@UForceInfo@@V?$allocator@UForceInfo@@@std@@@std@@@std@@PAUForceInfo@@V?$allocator@UForceInfo@@@2@@std@@YAPAUForceInfo@@V?$_Vector_const_iterator@V?$_Vector_val@UForceInfo@@V?$allocator@UForceInfo@@@std@@@std@@@0@0PAU1@AAV?$allocator@UForceInfo@@@0@U_Nonscalar_ptr_iterator_tag@0@@Z PROC ; std::_Uninit_copy<std::_Vector_const_iterator<std::_Vector_val<ForceInfo,std::allocator<ForceInfo> > >,ForceInfo *,std::allocator<ForceInfo> >, COMDAT

; 369  : 	{	// copy [_First, _Last) to raw _Dest, using _Al, arbitrary type

  00000	55		 push	 ebp
  00001	8b ec		 mov	 ebp, esp

; 370  : 	_DEBUG_RANGE(_First, _Last);
; 371  : 	_DEBUG_POINTER(_Dest);
; 372  : 	_FwdIt _Next = _Dest;
; 373  : 
; 374  : 	_TRY_BEGIN
; 375  : 	for (; _First != _Last; ++_Dest, ++_First)

  00003	eb 19		 jmp	 SHORT $LN35@Uninit_cop
$LL14@Uninit_cop:

; 376  : 		_Cons_val(_Al, _Dest, *_First);

  00005	ff 75 08	 push	 DWORD PTR __First$[ebp]
  00008	ff 75 10	 push	 DWORD PTR __Dest$[ebp]
  0000b	ff 75 14	 push	 DWORD PTR __Al$[ebp]
  0000e	e8 00 00 00 00	 call	 ??$_Cons_val@V?$allocator@UForceInfo@@@std@@UForceInfo@@ABU3@@std@@YAXAAV?$allocator@UForceInfo@@@0@PAUForceInfo@@ABU2@@Z ; std::_Cons_val<std::allocator<ForceInfo>,ForceInfo,ForceInfo const &>
  00013	83 45 10 0c	 add	 DWORD PTR __Dest$[ebp], 12 ; 0000000cH
  00017	83 c4 0c	 add	 esp, 12			; 0000000cH
  0001a	83 45 08 0c	 add	 DWORD PTR __First$[ebp], 12 ; 0000000cH
$LN35@Uninit_cop:

; 370  : 	_DEBUG_RANGE(_First, _Last);
; 371  : 	_DEBUG_POINTER(_Dest);
; 372  : 	_FwdIt _Next = _Dest;
; 373  : 
; 374  : 	_TRY_BEGIN
; 375  : 	for (; _First != _Last; ++_Dest, ++_First)

  0001e	8b 45 08	 mov	 eax, DWORD PTR __First$[ebp]
  00021	3b 45 0c	 cmp	 eax, DWORD PTR __Last$[ebp]
  00024	75 df		 jne	 SHORT $LL14@Uninit_cop

; 377  : 	_CATCH_ALL
; 378  : 	for (; _Next != _Dest; ++_Next)
; 379  : 		_Dest_val(_Al, _Next);
; 380  : 	_RERAISE;
; 381  : 	_CATCH_END
; 382  : 	return (_Dest);

  00026	8b 45 10	 mov	 eax, DWORD PTR __Dest$[ebp]

; 383  : 	}

  00029	5d		 pop	 ebp
  0002a	c3		 ret	 0
??$_Uninit_copy@V?$_Vector_const_iterator@V?$_Vector_val@UForceInfo@@V?$allocator@UForceInfo@@@std@@@std@@@std@@PAUForceInfo@@V?$allocator@UForceInfo@@@2@@std@@YAPAUForceInfo@@V?$_Vector_const_iterator@V?$_Vector_val@UForceInfo@@V?$allocator@UForceInfo@@@std@@@std@@@0@0PAU1@AAV?$allocator@UForceInfo@@@0@U_Nonscalar_ptr_iterator_tag@0@@Z ENDP ; std::_Uninit_copy<std::_Vector_const_iterator<std::_Vector_val<ForceInfo,std::allocator<ForceInfo> > >,ForceInfo *,std::allocator<ForceInfo> >
_TEXT	ENDS
PUBLIC	??$_Cons_val@V?$allocator@UWeaponInfo@@@std@@UWeaponInfo@@ABU3@@std@@YAXAAV?$allocator@UWeaponInfo@@@0@PAUWeaponInfo@@ABU2@@Z ; std::_Cons_val<std::allocator<WeaponInfo>,WeaponInfo,WeaponInfo const &>
; Function compile flags: /Ogsp
; File c:\program files (x86)\microsoft visual studio 10.0\vc\include\xmemory
;	COMDAT ??$_Cons_val@V?$allocator@UWeaponInfo@@@std@@UWeaponInfo@@ABU3@@std@@YAXAAV?$allocator@UWeaponInfo@@@0@PAUWeaponInfo@@ABU2@@Z
_TEXT	SEGMENT
__Alval$ = 8						; size = 4
__Pdest$ = 12						; size = 4
__Src$ = 16						; size = 4
??$_Cons_val@V?$allocator@UWeaponInfo@@@std@@UWeaponInfo@@ABU3@@std@@YAXAAV?$allocator@UWeaponInfo@@@0@PAUWeaponInfo@@ABU2@@Z PROC ; std::_Cons_val<std::allocator<WeaponInfo>,WeaponInfo,WeaponInfo const &>, COMDAT

; 279  : 	{	// construct using allocator

  00000	55		 push	 ebp
  00001	8b ec		 mov	 ebp, esp

; 280  : 	_Alval.construct(_Pdest, _STD forward<_Ty2>(_Src));

  00003	ff 75 10	 push	 DWORD PTR __Src$[ebp]
  00006	ff 75 0c	 push	 DWORD PTR __Pdest$[ebp]
  00009	e8 00 00 00 00	 call	 ??$_Construct@UWeaponInfo@@ABU1@@std@@YAXPAUWeaponInfo@@ABU1@@Z ; std::_Construct<WeaponInfo,WeaponInfo const &>
  0000e	59		 pop	 ecx
  0000f	59		 pop	 ecx

; 281  : 	}

  00010	5d		 pop	 ebp
  00011	c3		 ret	 0
??$_Cons_val@V?$allocator@UWeaponInfo@@@std@@UWeaponInfo@@ABU3@@std@@YAXAAV?$allocator@UWeaponInfo@@@0@PAUWeaponInfo@@ABU2@@Z ENDP ; std::_Cons_val<std::allocator<WeaponInfo>,WeaponInfo,WeaponInfo const &>
_TEXT	ENDS
PUBLIC	??$_Destroy_range@V?$allocator@UForceInfo@@@std@@@std@@YAXPAUForceInfo@@0AAV?$allocator@UForceInfo@@@0@U_Nonscalar_ptr_iterator_tag@0@@Z ; std::_Destroy_range<std::allocator<ForceInfo> >
; Function compile flags: /Ogsp
;	COMDAT ??$_Destroy_range@V?$allocator@UForceInfo@@@std@@@std@@YAXPAUForceInfo@@0AAV?$allocator@UForceInfo@@@0@U_Nonscalar_ptr_iterator_tag@0@@Z
_TEXT	SEGMENT
__First$ = 8						; size = 4
__Last$ = 12						; size = 4
__Al$ = 16						; size = 4
___formal$ = 20						; size = 1
??$_Destroy_range@V?$allocator@UForceInfo@@@std@@@std@@YAXPAUForceInfo@@0AAV?$allocator@UForceInfo@@@0@U_Nonscalar_ptr_iterator_tag@0@@Z PROC ; std::_Destroy_range<std::allocator<ForceInfo> >, COMDAT

; 96   : 	for (; _First != _Last; ++_First)
; 97   : 		_Dest_val(_Al, _First);
; 98   : 	}

  00000	c3		 ret	 0
??$_Destroy_range@V?$allocator@UForceInfo@@@std@@@std@@YAXPAUForceInfo@@0AAV?$allocator@UForceInfo@@@0@U_Nonscalar_ptr_iterator_tag@0@@Z ENDP ; std::_Destroy_range<std::allocator<ForceInfo> >
_TEXT	ENDS
PUBLIC	??$_Dest_val@V?$allocator@UWeaponInfo@@@std@@UWeaponInfo@@@std@@YAXAAV?$allocator@UWeaponInfo@@@0@PAUWeaponInfo@@@Z ; std::_Dest_val<std::allocator<WeaponInfo>,WeaponInfo>
; Function compile flags: /Ogsp
;	COMDAT ??$_Dest_val@V?$allocator@UWeaponInfo@@@std@@UWeaponInfo@@@std@@YAXAAV?$allocator@UWeaponInfo@@@0@PAUWeaponInfo@@@Z
_TEXT	SEGMENT
__Alval$ = 8						; size = 4
__Pdest$ = 12						; size = 4
??$_Dest_val@V?$allocator@UWeaponInfo@@@std@@UWeaponInfo@@@std@@YAXAAV?$allocator@UWeaponInfo@@@0@PAUWeaponInfo@@@Z PROC ; std::_Dest_val<std::allocator<WeaponInfo>,WeaponInfo>, COMDAT

; 286  : 	{	// destroy using allocator

  00000	55		 push	 ebp
  00001	8b ec		 mov	 ebp, esp

; 287  : 	_Alval.destroy(_Pdest);

  00003	8b 4d 0c	 mov	 ecx, DWORD PTR __Pdest$[ebp]
  00006	83 c1 08	 add	 ecx, 8

; 288  : 	}

  00009	5d		 pop	 ebp

; 287  : 	_Alval.destroy(_Pdest);

  0000a	ff 25 00 00 00
	00		 jmp	 DWORD PTR __imp_??1ioHashString@@QAE@XZ
??$_Dest_val@V?$allocator@UWeaponInfo@@@std@@UWeaponInfo@@@std@@YAXAAV?$allocator@UWeaponInfo@@@0@PAUWeaponInfo@@@Z ENDP ; std::_Dest_val<std::allocator<WeaponInfo>,WeaponInfo>
_TEXT	ENDS
PUBLIC	??$_Uninitialized_copy@V?$_Vector_const_iterator@V?$_Vector_val@UForceInfo@@V?$allocator@UForceInfo@@@std@@@std@@@std@@PAUForceInfo@@V?$allocator@UForceInfo@@@2@@std@@YAPAUForceInfo@@V?$_Vector_const_iterator@V?$_Vector_val@UForceInfo@@V?$allocator@UForceInfo@@@std@@@std@@@0@0PAU1@AAV?$allocator@UForceInfo@@@0@@Z ; std::_Uninitialized_copy<std::_Vector_const_iterator<std::_Vector_val<ForceInfo,std::allocator<ForceInfo> > >,ForceInfo *,std::allocator<ForceInfo> >
; Function compile flags: /Ogsp
; File c:\program files (x86)\microsoft visual studio 10.0\vc\include\memory
;	COMDAT ??$_Uninitialized_copy@V?$_Vector_const_iterator@V?$_Vector_val@UForceInfo@@V?$allocator@UForceInfo@@@std@@@std@@@std@@PAUForceInfo@@V?$allocator@UForceInfo@@@2@@std@@YAPAUForceInfo@@V?$_Vector_const_iterator@V?$_Vector_val@UForceInfo@@V?$allocator@UForceInfo@@@std@@@std@@@0@0PAU1@AAV?$allocator@UForceInfo@@@0@@Z
_TEXT	SEGMENT
__Cat$531580 = -4					; size = 1
__First$ = 8						; size = 4
__Last$ = 12						; size = 4
__Dest$ = 16						; size = 4
__Al$ = 20						; size = 4
??$_Uninitialized_copy@V?$_Vector_const_iterator@V?$_Vector_val@UForceInfo@@V?$allocator@UForceInfo@@@std@@@std@@@std@@PAUForceInfo@@V?$allocator@UForceInfo@@@2@@std@@YAPAUForceInfo@@V?$_Vector_const_iterator@V?$_Vector_val@UForceInfo@@V?$allocator@UForceInfo@@@std@@@std@@@0@0PAU1@AAV?$allocator@UForceInfo@@@0@@Z PROC ; std::_Uninitialized_copy<std::_Vector_const_iterator<std::_Vector_val<ForceInfo,std::allocator<ForceInfo> > >,ForceInfo *,std::allocator<ForceInfo> >, COMDAT

; 412  : 	{	// copy [_First, _Last) to raw _Dest, using _Al

  00000	55		 push	 ebp
  00001	8b ec		 mov	 ebp, esp
  00003	51		 push	 ecx

; 413  : 	return (_Uninit_copy(_First, _Last, _Dest, _Al,
; 414  : 		_Ptr_cat(_First, _Dest)));

  00004	ff 75 fc	 push	 DWORD PTR __Cat$531580[ebp]
  00007	ff 75 14	 push	 DWORD PTR __Al$[ebp]
  0000a	ff 75 10	 push	 DWORD PTR __Dest$[ebp]
  0000d	ff 75 0c	 push	 DWORD PTR __Last$[ebp]
  00010	ff 75 08	 push	 DWORD PTR __First$[ebp]
  00013	e8 00 00 00 00	 call	 ??$_Uninit_copy@V?$_Vector_const_iterator@V?$_Vector_val@UForceInfo@@V?$allocator@UForceInfo@@@std@@@std@@@std@@PAUForceInfo@@V?$allocator@UForceInfo@@@2@@std@@YAPAUForceInfo@@V?$_Vector_const_iterator@V?$_Vector_val@UForceInfo@@V?$allocator@UForceInfo@@@std@@@std@@@0@0PAU1@AAV?$allocator@UForceInfo@@@0@U_Nonscalar_ptr_iterator_tag@0@@Z ; std::_Uninit_copy<std::_Vector_const_iterator<std::_Vector_val<ForceInfo,std::allocator<ForceInfo> > >,ForceInfo *,std::allocator<ForceInfo> >
  00018	83 c4 14	 add	 esp, 20			; 00000014H

; 415  : 	}

  0001b	c9		 leave
  0001c	c3		 ret	 0
??$_Uninitialized_copy@V?$_Vector_const_iterator@V?$_Vector_val@UForceInfo@@V?$allocator@UForceInfo@@@std@@@std@@@std@@PAUForceInfo@@V?$allocator@UForceInfo@@@2@@std@@YAPAUForceInfo@@V?$_Vector_const_iterator@V?$_Vector_val@UForceInfo@@V?$allocator@UForceInfo@@@std@@@std@@@0@0PAU1@AAV?$allocator@UForceInfo@@@0@@Z ENDP ; std::_Uninitialized_copy<std::_Vector_const_iterator<std::_Vector_val<ForceInfo,std::allocator<ForceInfo> > >,ForceInfo *,std::allocator<ForceInfo> >
_TEXT	ENDS
PUBLIC	??$_Uninit_copy@V?$_Vector_const_iterator@V?$_Vector_val@UWeaponInfo@@V?$allocator@UWeaponInfo@@@std@@@std@@@std@@PAUWeaponInfo@@V?$allocator@UWeaponInfo@@@2@@std@@YAPAUWeaponInfo@@V?$_Vector_const_iterator@V?$_Vector_val@UWeaponInfo@@V?$allocator@UWeaponInfo@@@std@@@std@@@0@0PAU1@AAV?$allocator@UWeaponInfo@@@0@U_Nonscalar_ptr_iterator_tag@0@@Z ; std::_Uninit_copy<std::_Vector_const_iterator<std::_Vector_val<WeaponInfo,std::allocator<WeaponInfo> > >,WeaponInfo *,std::allocator<WeaponInfo> >
EXTRN	__EH_prolog3_catch:PROC
;	COMDAT xdata$x
; File d:\lost saga for developer\youtube\tutorial\source\src\lsclient\playentityhelpstruct.h
xdata$x	SEGMENT
__catchsym$??$_Uninit_copy@V?$_Vector_const_iterator@V?$_Vector_val@UWeaponInfo@@V?$allocator@UWeaponInfo@@@std@@@std@@@std@@PAUWeaponInfo@@V?$allocator@UWeaponInfo@@@2@@std@@YAPAUWeaponInfo@@V?$_Vector_const_iterator@V?$_Vector_val@UWeaponInfo@@V?$allocator@UWeaponInfo@@@std@@@std@@@0@0PAU1@AAV?$allocator@UWeaponInfo@@@0@U_Nonscalar_ptr_iterator_tag@0@@Z$3 DD 040H
	DD	00H
	DD	00H
	DD	FLAT:__catch$??$_Uninit_copy@V?$_Vector_const_iterator@V?$_Vector_val@UWeaponInfo@@V?$allocator@UWeaponInfo@@@std@@@std@@@std@@PAUWeaponInfo@@V?$allocator@UWeaponInfo@@@2@@std@@YAPAUWeaponInfo@@V?$_Vector_const_iterator@V?$_Vector_val@UWeaponInfo@@V?$allocator@UWeaponInfo@@@std@@@std@@@0@0PAU1@AAV?$allocator@UWeaponInfo@@@0@U_Nonscalar_ptr_iterator_tag@0@@Z$0
__unwindtable$??$_Uninit_copy@V?$_Vector_const_iterator@V?$_Vector_val@UWeaponInfo@@V?$allocator@UWeaponInfo@@@std@@@std@@@std@@PAUWeaponInfo@@V?$allocator@UWeaponInfo@@@2@@std@@YAPAUWeaponInfo@@V?$_Vector_const_iterator@V?$_Vector_val@UWeaponInfo@@V?$allocator@UWeaponInfo@@@std@@@std@@@0@0PAU1@AAV?$allocator@UWeaponInfo@@@0@U_Nonscalar_ptr_iterator_tag@0@@Z DD 0ffffffffH
	DD	00H
	DD	0ffffffffH
	DD	00H
__tryblocktable$??$_Uninit_copy@V?$_Vector_const_iterator@V?$_Vector_val@UWeaponInfo@@V?$allocator@UWeaponInfo@@@std@@@std@@@std@@PAUWeaponInfo@@V?$allocator@UWeaponInfo@@@2@@std@@YAPAUWeaponInfo@@V?$_Vector_const_iterator@V?$_Vector_val@UWeaponInfo@@V?$allocator@UWeaponInfo@@@std@@@std@@@0@0PAU1@AAV?$allocator@UWeaponInfo@@@0@U_Nonscalar_ptr_iterator_tag@0@@Z DD 00H
	DD	00H
	DD	01H
	DD	01H
	DD	FLAT:__catchsym$??$_Uninit_copy@V?$_Vector_const_iterator@V?$_Vector_val@UWeaponInfo@@V?$allocator@UWeaponInfo@@@std@@@std@@@std@@PAUWeaponInfo@@V?$allocator@UWeaponInfo@@@2@@std@@YAPAUWeaponInfo@@V?$_Vector_const_iterator@V?$_Vector_val@UWeaponInfo@@V?$allocator@UWeaponInfo@@@std@@@std@@@0@0PAU1@AAV?$allocator@UWeaponInfo@@@0@U_Nonscalar_ptr_iterator_tag@0@@Z$3
__ehfuncinfo$??$_Uninit_copy@V?$_Vector_const_iterator@V?$_Vector_val@UWeaponInfo@@V?$allocator@UWeaponInfo@@@std@@@std@@@std@@PAUWeaponInfo@@V?$allocator@UWeaponInfo@@@2@@std@@YAPAUWeaponInfo@@V?$_Vector_const_iterator@V?$_Vector_val@UWeaponInfo@@V?$allocator@UWeaponInfo@@@std@@@std@@@0@0PAU1@AAV?$allocator@UWeaponInfo@@@0@U_Nonscalar_ptr_iterator_tag@0@@Z DD 019930522H
	DD	02H
	DD	FLAT:__unwindtable$??$_Uninit_copy@V?$_Vector_const_iterator@V?$_Vector_val@UWeaponInfo@@V?$allocator@UWeaponInfo@@@std@@@std@@@std@@PAUWeaponInfo@@V?$allocator@UWeaponInfo@@@2@@std@@YAPAUWeaponInfo@@V?$_Vector_const_iterator@V?$_Vector_val@UWeaponInfo@@V?$allocator@UWeaponInfo@@@std@@@std@@@0@0PAU1@AAV?$allocator@UWeaponInfo@@@0@U_Nonscalar_ptr_iterator_tag@0@@Z
	DD	01H
	DD	FLAT:__tryblocktable$??$_Uninit_copy@V?$_Vector_const_iterator@V?$_Vector_val@UWeaponInfo@@V?$allocator@UWeaponInfo@@@std@@@std@@@std@@PAUWeaponInfo@@V?$allocator@UWeaponInfo@@@2@@std@@YAPAUWeaponInfo@@V?$_Vector_const_iterator@V?$_Vector_val@UWeaponInfo@@V?$allocator@UWeaponInfo@@@std@@@std@@@0@0PAU1@AAV?$allocator@UWeaponInfo@@@0@U_Nonscalar_ptr_iterator_tag@0@@Z
	DD	2 DUP(00H)
	DD	00H
	DD	01H
; Function compile flags: /Ogsp
; File c:\program files (x86)\microsoft visual studio 10.0\vc\include\memory
xdata$x	ENDS
;	COMDAT ??$_Uninit_copy@V?$_Vector_const_iterator@V?$_Vector_val@UWeaponInfo@@V?$allocator@UWeaponInfo@@@std@@@std@@@std@@PAUWeaponInfo@@V?$allocator@UWeaponInfo@@@2@@std@@YAPAUWeaponInfo@@V?$_Vector_const_iterator@V?$_Vector_val@UWeaponInfo@@V?$allocator@UWeaponInfo@@@std@@@std@@@0@0PAU1@AAV?$allocator@UWeaponInfo@@@0@U_Nonscalar_ptr_iterator_tag@0@@Z
_TEXT	SEGMENT
__Next$ = -20						; size = 4
__$EHRec$ = -16						; size = 16
__First$ = 8						; size = 4
__Last$ = 12						; size = 4
__Dest$ = 16						; size = 4
__Al$ = 20						; size = 4
___formal$ = 24						; size = 1
??$_Uninit_copy@V?$_Vector_const_iterator@V?$_Vector_val@UWeaponInfo@@V?$allocator@UWeaponInfo@@@std@@@std@@@std@@PAUWeaponInfo@@V?$allocator@UWeaponInfo@@@2@@std@@YAPAUWeaponInfo@@V?$_Vector_const_iterator@V?$_Vector_val@UWeaponInfo@@V?$allocator@UWeaponInfo@@@std@@@std@@@0@0PAU1@AAV?$allocator@UWeaponInfo@@@0@U_Nonscalar_ptr_iterator_tag@0@@Z PROC ; std::_Uninit_copy<std::_Vector_const_iterator<std::_Vector_val<WeaponInfo,std::allocator<WeaponInfo> > >,WeaponInfo *,std::allocator<WeaponInfo> >, COMDAT

; 369  : 	{	// copy [_First, _Last) to raw _Dest, using _Al, arbitrary type

  00000	6a 08		 push	 8
  00002	b8 00 00 00 00	 mov	 eax, __ehhandler$??$_Uninit_copy@V?$_Vector_const_iterator@V?$_Vector_val@UWeaponInfo@@V?$allocator@UWeaponInfo@@@std@@@std@@@std@@PAUWeaponInfo@@V?$allocator@UWeaponInfo@@@2@@std@@YAPAUWeaponInfo@@V?$_Vector_const_iterator@V?$_Vector_val@UWeaponInfo@@V?$allocator@UWeaponInfo@@@std@@@std@@@0@0PAU1@AAV?$allocator@UWeaponInfo@@@0@U_Nonscalar_ptr_iterator_tag@0@@Z
  00007	e8 00 00 00 00	 call	 __EH_prolog3_catch

; 370  : 	_DEBUG_RANGE(_First, _Last);
; 371  : 	_DEBUG_POINTER(_Dest);
; 372  : 	_FwdIt _Next = _Dest;

  0000c	8b 45 10	 mov	 eax, DWORD PTR __Dest$[ebp]

; 373  : 
; 374  : 	_TRY_BEGIN

  0000f	83 65 fc 00	 and	 DWORD PTR __$EHRec$[ebp+12], 0
  00013	89 45 ec	 mov	 DWORD PTR __Next$[ebp], eax

; 375  : 	for (; _First != _Last; ++_Dest, ++_First)

$LL14@Uninit_cop@2:
  00016	8b 45 08	 mov	 eax, DWORD PTR __First$[ebp]
  00019	3b 45 0c	 cmp	 eax, DWORD PTR __Last$[ebp]
  0001c	74 34		 je	 SHORT $LN4@Uninit_cop@2

; 376  : 		_Cons_val(_Al, _Dest, *_First);

  0001e	50		 push	 eax
  0001f	ff 75 10	 push	 DWORD PTR __Dest$[ebp]
  00022	e8 00 00 00 00	 call	 ??$_Construct@UWeaponInfo@@ABU1@@std@@YAXPAUWeaponInfo@@ABU1@@Z ; std::_Construct<WeaponInfo,WeaponInfo const &>
  00027	83 45 10 28	 add	 DWORD PTR __Dest$[ebp], 40 ; 00000028H
  0002b	83 45 08 28	 add	 DWORD PTR __First$[ebp], 40 ; 00000028H
  0002f	59		 pop	 ecx
  00030	59		 pop	 ecx
  00031	eb e3		 jmp	 SHORT $LL14@Uninit_cop@2
__catch$??$_Uninit_copy@V?$_Vector_const_iterator@V?$_Vector_val@UWeaponInfo@@V?$allocator@UWeaponInfo@@@std@@@std@@@std@@PAUWeaponInfo@@V?$allocator@UWeaponInfo@@@2@@std@@YAPAUWeaponInfo@@V?$_Vector_const_iterator@V?$_Vector_val@UWeaponInfo@@V?$allocator@UWeaponInfo@@@std@@@std@@@0@0PAU1@AAV?$allocator@UWeaponInfo@@@0@U_Nonscalar_ptr_iterator_tag@0@@Z$0:

; 377  : 	_CATCH_ALL
; 378  : 	for (; _Next != _Dest; ++_Next)

  00033	8b 75 ec	 mov	 esi, DWORD PTR __Next$[ebp]
  00036	eb 0c		 jmp	 SHORT $LN48@Uninit_cop@2
$LL3@Uninit_cop@2:

; 379  : 		_Dest_val(_Al, _Next);

  00038	8d 4e 08	 lea	 ecx, DWORD PTR [esi+8]
  0003b	ff 15 00 00 00
	00		 call	 DWORD PTR __imp_??1ioHashString@@QAE@XZ
  00041	83 c6 28	 add	 esi, 40			; 00000028H
$LN48@Uninit_cop@2:

; 377  : 	_CATCH_ALL
; 378  : 	for (; _Next != _Dest; ++_Next)

  00044	3b 75 10	 cmp	 esi, DWORD PTR __Dest$[ebp]
  00047	75 ef		 jne	 SHORT $LL3@Uninit_cop@2

; 380  : 	_RERAISE;

  00049	6a 00		 push	 0
  0004b	6a 00		 push	 0
  0004d	e8 00 00 00 00	 call	 __CxxThrowException@8
$LN49@Uninit_cop@2:
$LN4@Uninit_cop@2:

; 381  : 	_CATCH_END
; 382  : 	return (_Dest);

  00052	8b 45 10	 mov	 eax, DWORD PTR __Dest$[ebp]

; 383  : 	}

  00055	e8 00 00 00 00	 call	 __EH_epilog3
  0005a	c3		 ret	 0
$LN47@Uninit_cop@2:
_TEXT	ENDS
;	COMDAT text$x
text$x	SEGMENT
__ehhandler$??$_Uninit_copy@V?$_Vector_const_iterator@V?$_Vector_val@UWeaponInfo@@V?$allocator@UWeaponInfo@@@std@@@std@@@std@@PAUWeaponInfo@@V?$allocator@UWeaponInfo@@@2@@std@@YAPAUWeaponInfo@@V?$_Vector_const_iterator@V?$_Vector_val@UWeaponInfo@@V?$allocator@UWeaponInfo@@@std@@@std@@@0@0PAU1@AAV?$allocator@UWeaponInfo@@@0@U_Nonscalar_ptr_iterator_tag@0@@Z:
  00000	8b 54 24 08	 mov	 edx, DWORD PTR [esp+8]
  00004	8d 42 0c	 lea	 eax, DWORD PTR [edx+12]
  00007	8b 4a e8	 mov	 ecx, DWORD PTR [edx-24]
  0000a	33 c8		 xor	 ecx, eax
  0000c	e8 00 00 00 00	 call	 @__security_check_cookie@4
  00011	b8 00 00 00 00	 mov	 eax, OFFSET __ehfuncinfo$??$_Uninit_copy@V?$_Vector_const_iterator@V?$_Vector_val@UWeaponInfo@@V?$allocator@UWeaponInfo@@@std@@@std@@@std@@PAUWeaponInfo@@V?$allocator@UWeaponInfo@@@2@@std@@YAPAUWeaponInfo@@V?$_Vector_const_iterator@V?$_Vector_val@UWeaponInfo@@V?$allocator@UWeaponInfo@@@std@@@std@@@0@0PAU1@AAV?$allocator@UWeaponInfo@@@0@U_Nonscalar_ptr_iterator_tag@0@@Z
  00016	e9 00 00 00 00	 jmp	 ___CxxFrameHandler3
text$x	ENDS
??$_Uninit_copy@V?$_Vector_const_iterator@V?$_Vector_val@UWeaponInfo@@V?$allocator@UWeaponInfo@@@std@@@std@@@std@@PAUWeaponInfo@@V?$allocator@UWeaponInfo@@@2@@std@@YAPAUWeaponInfo@@V?$_Vector_const_iterator@V?$_Vector_val@UWeaponInfo@@V?$allocator@UWeaponInfo@@@std@@@std@@@0@0PAU1@AAV?$allocator@UWeaponInfo@@@0@U_Nonscalar_ptr_iterator_tag@0@@Z ENDP ; std::_Uninit_copy<std::_Vector_const_iterator<std::_Vector_val<WeaponInfo,std::allocator<WeaponInfo> > >,WeaponInfo *,std::allocator<WeaponInfo> >
PUBLIC	??$_Destroy_range@V?$allocator@UForceInfo@@@std@@@std@@YAXPAUForceInfo@@0AAV?$allocator@UForceInfo@@@0@@Z ; std::_Destroy_range<std::allocator<ForceInfo> >
; Function compile flags: /Ogsp
; File c:\program files (x86)\microsoft visual studio 10.0\vc\include\xmemory
;	COMDAT ??$_Destroy_range@V?$allocator@UForceInfo@@@std@@@std@@YAXPAUForceInfo@@0AAV?$allocator@UForceInfo@@@0@@Z
_TEXT	SEGMENT
__First$ = 8						; size = 4
__Last$ = 12						; size = 4
__Al$ = 16						; size = 4
??$_Destroy_range@V?$allocator@UForceInfo@@@std@@@std@@YAXPAUForceInfo@@0AAV?$allocator@UForceInfo@@@0@@Z PROC ; std::_Destroy_range<std::allocator<ForceInfo> >, COMDAT

; 88   : 	_Destroy_range(_First, _Last, _Al, _Ptr_cat(_First, _Last));
; 89   : 	}

  00000	c3		 ret	 0
??$_Destroy_range@V?$allocator@UForceInfo@@@std@@@std@@YAXPAUForceInfo@@0AAV?$allocator@UForceInfo@@@0@@Z ENDP ; std::_Destroy_range<std::allocator<ForceInfo> >
_TEXT	ENDS
PUBLIC	??$_Destroy_range@V?$allocator@UWeaponInfo@@@std@@@std@@YAXPAUWeaponInfo@@0AAV?$allocator@UWeaponInfo@@@0@U_Nonscalar_ptr_iterator_tag@0@@Z ; std::_Destroy_range<std::allocator<WeaponInfo> >
; Function compile flags: /Ogsp
;	COMDAT ??$_Destroy_range@V?$allocator@UWeaponInfo@@@std@@@std@@YAXPAUWeaponInfo@@0AAV?$allocator@UWeaponInfo@@@0@U_Nonscalar_ptr_iterator_tag@0@@Z
_TEXT	SEGMENT
__First$ = 8						; size = 4
__Last$ = 12						; size = 4
__Al$ = 16						; size = 4
___formal$ = 20						; size = 1
??$_Destroy_range@V?$allocator@UWeaponInfo@@@std@@@std@@YAXPAUWeaponInfo@@0AAV?$allocator@UWeaponInfo@@@0@U_Nonscalar_ptr_iterator_tag@0@@Z PROC ; std::_Destroy_range<std::allocator<WeaponInfo> >, COMDAT

; 95   : 	{	// destroy [_First, _Last), arbitrary type

  00000	55		 push	 ebp
  00001	8b ec		 mov	 ebp, esp
  00003	56		 push	 esi

; 96   : 	for (; _First != _Last; ++_First)

  00004	8b 75 08	 mov	 esi, DWORD PTR __First$[ebp]
  00007	eb 0c		 jmp	 SHORT $LN20@Destroy_ra
$LL3@Destroy_ra:

; 97   : 		_Dest_val(_Al, _First);

  00009	8d 4e 08	 lea	 ecx, DWORD PTR [esi+8]
  0000c	ff 15 00 00 00
	00		 call	 DWORD PTR __imp_??1ioHashString@@QAE@XZ
  00012	83 c6 28	 add	 esi, 40			; 00000028H
$LN20@Destroy_ra:

; 96   : 	for (; _First != _Last; ++_First)

  00015	3b 75 0c	 cmp	 esi, DWORD PTR __Last$[ebp]
  00018	75 ef		 jne	 SHORT $LL3@Destroy_ra
  0001a	5e		 pop	 esi

; 98   : 	}

  0001b	5d		 pop	 ebp
  0001c	c3		 ret	 0
??$_Destroy_range@V?$allocator@UWeaponInfo@@@std@@@std@@YAXPAUWeaponInfo@@0AAV?$allocator@UWeaponInfo@@@0@U_Nonscalar_ptr_iterator_tag@0@@Z ENDP ; std::_Destroy_range<std::allocator<WeaponInfo> >
_TEXT	ENDS
PUBLIC	??$_Ucopy@V?$_Vector_const_iterator@V?$_Vector_val@UForceInfo@@V?$allocator@UForceInfo@@@std@@@std@@@std@@@?$vector@UForceInfo@@V?$allocator@UForceInfo@@@std@@@std@@IAEPAUForceInfo@@V?$_Vector_const_iterator@V?$_Vector_val@UForceInfo@@V?$allocator@UForceInfo@@@std@@@std@@@1@0PAU2@@Z ; std::vector<ForceInfo,std::allocator<ForceInfo> >::_Ucopy<std::_Vector_const_iterator<std::_Vector_val<ForceInfo,std::allocator<ForceInfo> > > >
; Function compile flags: /Ogsp
; File c:\program files (x86)\microsoft visual studio 10.0\vc\include\vector
;	COMDAT ??$_Ucopy@V?$_Vector_const_iterator@V?$_Vector_val@UForceInfo@@V?$allocator@UForceInfo@@@std@@@std@@@std@@@?$vector@UForceInfo@@V?$allocator@UForceInfo@@@std@@@std@@IAEPAUForceInfo@@V?$_Vector_const_iterator@V?$_Vector_val@UForceInfo@@V?$allocator@UForceInfo@@@std@@@std@@@1@0PAU2@@Z
_TEXT	SEGMENT
__First$ = 8						; size = 4
__Last$ = 12						; size = 4
__Cat$531773 = 16					; size = 1
__Ptr$ = 16						; size = 4
??$_Ucopy@V?$_Vector_const_iterator@V?$_Vector_val@UForceInfo@@V?$allocator@UForceInfo@@@std@@@std@@@std@@@?$vector@UForceInfo@@V?$allocator@UForceInfo@@@std@@@std@@IAEPAUForceInfo@@V?$_Vector_const_iterator@V?$_Vector_val@UForceInfo@@V?$allocator@UForceInfo@@@std@@@std@@@1@0PAU2@@Z PROC ; std::vector<ForceInfo,std::allocator<ForceInfo> >::_Ucopy<std::_Vector_const_iterator<std::_Vector_val<ForceInfo,std::allocator<ForceInfo> > > >, COMDAT
; _this$ = ecx

; 1315 : 		pointer _Ucopy(_Iter _First, _Iter _Last, pointer _Ptr)

  00000	55		 push	 ebp
  00001	8b ec		 mov	 ebp, esp

; 1316 : 		{	// copy initializing [_First, _Last), using allocator
; 1317 : 		return (_Uninitialized_copy(_First, _Last,
; 1318 : 			_Ptr, this->_Alval));

  00003	ff 75 10	 push	 DWORD PTR __Cat$531773[ebp]
  00006	83 c1 0c	 add	 ecx, 12			; 0000000cH
  00009	51		 push	 ecx
  0000a	ff 75 10	 push	 DWORD PTR __Ptr$[ebp]
  0000d	ff 75 0c	 push	 DWORD PTR __Last$[ebp]
  00010	ff 75 08	 push	 DWORD PTR __First$[ebp]
  00013	e8 00 00 00 00	 call	 ??$_Uninit_copy@V?$_Vector_const_iterator@V?$_Vector_val@UForceInfo@@V?$allocator@UForceInfo@@@std@@@std@@@std@@PAUForceInfo@@V?$allocator@UForceInfo@@@2@@std@@YAPAUForceInfo@@V?$_Vector_const_iterator@V?$_Vector_val@UForceInfo@@V?$allocator@UForceInfo@@@std@@@std@@@0@0PAU1@AAV?$allocator@UForceInfo@@@0@U_Nonscalar_ptr_iterator_tag@0@@Z ; std::_Uninit_copy<std::_Vector_const_iterator<std::_Vector_val<ForceInfo,std::allocator<ForceInfo> > >,ForceInfo *,std::allocator<ForceInfo> >
  00018	83 c4 14	 add	 esp, 20			; 00000014H

; 1319 : 		}

  0001b	5d		 pop	 ebp
  0001c	c2 0c 00	 ret	 12			; 0000000cH
??$_Ucopy@V?$_Vector_const_iterator@V?$_Vector_val@UForceInfo@@V?$allocator@UForceInfo@@@std@@@std@@@std@@@?$vector@UForceInfo@@V?$allocator@UForceInfo@@@std@@@std@@IAEPAUForceInfo@@V?$_Vector_const_iterator@V?$_Vector_val@UForceInfo@@V?$allocator@UForceInfo@@@std@@@std@@@1@0PAU2@@Z ENDP ; std::vector<ForceInfo,std::allocator<ForceInfo> >::_Ucopy<std::_Vector_const_iterator<std::_Vector_val<ForceInfo,std::allocator<ForceInfo> > > >
_TEXT	ENDS
PUBLIC	??$_Uninitialized_copy@V?$_Vector_const_iterator@V?$_Vector_val@UWeaponInfo@@V?$allocator@UWeaponInfo@@@std@@@std@@@std@@PAUWeaponInfo@@V?$allocator@UWeaponInfo@@@2@@std@@YAPAUWeaponInfo@@V?$_Vector_const_iterator@V?$_Vector_val@UWeaponInfo@@V?$allocator@UWeaponInfo@@@std@@@std@@@0@0PAU1@AAV?$allocator@UWeaponInfo@@@0@@Z ; std::_Uninitialized_copy<std::_Vector_const_iterator<std::_Vector_val<WeaponInfo,std::allocator<WeaponInfo> > >,WeaponInfo *,std::allocator<WeaponInfo> >
; Function compile flags: /Ogsp
; File c:\program files (x86)\microsoft visual studio 10.0\vc\include\memory
;	COMDAT ??$_Uninitialized_copy@V?$_Vector_const_iterator@V?$_Vector_val@UWeaponInfo@@V?$allocator@UWeaponInfo@@@std@@@std@@@std@@PAUWeaponInfo@@V?$allocator@UWeaponInfo@@@2@@std@@YAPAUWeaponInfo@@V?$_Vector_const_iterator@V?$_Vector_val@UWeaponInfo@@V?$allocator@UWeaponInfo@@@std@@@std@@@0@0PAU1@AAV?$allocator@UWeaponInfo@@@0@@Z
_TEXT	SEGMENT
__Cat$531783 = -4					; size = 1
__First$ = 8						; size = 4
__Last$ = 12						; size = 4
__Dest$ = 16						; size = 4
__Al$ = 20						; size = 4
??$_Uninitialized_copy@V?$_Vector_const_iterator@V?$_Vector_val@UWeaponInfo@@V?$allocator@UWeaponInfo@@@std@@@std@@@std@@PAUWeaponInfo@@V?$allocator@UWeaponInfo@@@2@@std@@YAPAUWeaponInfo@@V?$_Vector_const_iterator@V?$_Vector_val@UWeaponInfo@@V?$allocator@UWeaponInfo@@@std@@@std@@@0@0PAU1@AAV?$allocator@UWeaponInfo@@@0@@Z PROC ; std::_Uninitialized_copy<std::_Vector_const_iterator<std::_Vector_val<WeaponInfo,std::allocator<WeaponInfo> > >,WeaponInfo *,std::allocator<WeaponInfo> >, COMDAT

; 412  : 	{	// copy [_First, _Last) to raw _Dest, using _Al

  00000	55		 push	 ebp
  00001	8b ec		 mov	 ebp, esp
  00003	51		 push	 ecx

; 413  : 	return (_Uninit_copy(_First, _Last, _Dest, _Al,
; 414  : 		_Ptr_cat(_First, _Dest)));

  00004	ff 75 fc	 push	 DWORD PTR __Cat$531783[ebp]
  00007	ff 75 14	 push	 DWORD PTR __Al$[ebp]
  0000a	ff 75 10	 push	 DWORD PTR __Dest$[ebp]
  0000d	ff 75 0c	 push	 DWORD PTR __Last$[ebp]
  00010	ff 75 08	 push	 DWORD PTR __First$[ebp]
  00013	e8 00 00 00 00	 call	 ??$_Uninit_copy@V?$_Vector_const_iterator@V?$_Vector_val@UWeaponInfo@@V?$allocator@UWeaponInfo@@@std@@@std@@@std@@PAUWeaponInfo@@V?$allocator@UWeaponInfo@@@2@@std@@YAPAUWeaponInfo@@V?$_Vector_const_iterator@V?$_Vector_val@UWeaponInfo@@V?$allocator@UWeaponInfo@@@std@@@std@@@0@0PAU1@AAV?$allocator@UWeaponInfo@@@0@U_Nonscalar_ptr_iterator_tag@0@@Z ; std::_Uninit_copy<std::_Vector_const_iterator<std::_Vector_val<WeaponInfo,std::allocator<WeaponInfo> > >,WeaponInfo *,std::allocator<WeaponInfo> >
  00018	83 c4 14	 add	 esp, 20			; 00000014H

; 415  : 	}

  0001b	c9		 leave
  0001c	c3		 ret	 0
??$_Uninitialized_copy@V?$_Vector_const_iterator@V?$_Vector_val@UWeaponInfo@@V?$allocator@UWeaponInfo@@@std@@@std@@@std@@PAUWeaponInfo@@V?$allocator@UWeaponInfo@@@2@@std@@YAPAUWeaponInfo@@V?$_Vector_const_iterator@V?$_Vector_val@UWeaponInfo@@V?$allocator@UWeaponInfo@@@std@@@std@@@0@0PAU1@AAV?$allocator@UWeaponInfo@@@0@@Z ENDP ; std::_Uninitialized_copy<std::_Vector_const_iterator<std::_Vector_val<WeaponInfo,std::allocator<WeaponInfo> > >,WeaponInfo *,std::allocator<WeaponInfo> >
_TEXT	ENDS
PUBLIC	?_Destroy@?$vector@UForceInfo@@V?$allocator@UForceInfo@@@std@@@std@@IAEXPAUForceInfo@@0@Z ; std::vector<ForceInfo,std::allocator<ForceInfo> >::_Destroy
; Function compile flags: /Ogsp
; File c:\program files (x86)\microsoft visual studio 10.0\vc\include\vector
;	COMDAT ?_Destroy@?$vector@UForceInfo@@V?$allocator@UForceInfo@@@std@@@std@@IAEXPAUForceInfo@@0@Z
_TEXT	SEGMENT
__First$ = 8						; size = 4
__Last$ = 12						; size = 4
?_Destroy@?$vector@UForceInfo@@V?$allocator@UForceInfo@@@std@@@std@@IAEXPAUForceInfo@@0@Z PROC ; std::vector<ForceInfo,std::allocator<ForceInfo> >::_Destroy, COMDAT
; _this$ = ecx

; 1270 : 		_Destroy_range(_First, _Last, this->_Alval);
; 1271 : 		}

  00000	c2 08 00	 ret	 8
?_Destroy@?$vector@UForceInfo@@V?$allocator@UForceInfo@@@std@@@std@@IAEXPAUForceInfo@@0@Z ENDP ; std::vector<ForceInfo,std::allocator<ForceInfo> >::_Destroy
_TEXT	ENDS
PUBLIC	??$_Destroy_range@V?$allocator@UWeaponInfo@@@std@@@std@@YAXPAUWeaponInfo@@0AAV?$allocator@UWeaponInfo@@@0@@Z ; std::_Destroy_range<std::allocator<WeaponInfo> >
; Function compile flags: /Ogsp
; File c:\program files (x86)\microsoft visual studio 10.0\vc\include\xmemory
;	COMDAT ??$_Destroy_range@V?$allocator@UWeaponInfo@@@std@@@std@@YAXPAUWeaponInfo@@0AAV?$allocator@UWeaponInfo@@@0@@Z
_TEXT	SEGMENT
__First$ = 8						; size = 4
__Last$ = 12						; size = 4
__Al$ = 16						; size = 4
??$_Destroy_range@V?$allocator@UWeaponInfo@@@std@@@std@@YAXPAUWeaponInfo@@0AAV?$allocator@UWeaponInfo@@@0@@Z PROC ; std::_Destroy_range<std::allocator<WeaponInfo> >, COMDAT

; 87   : 	{	// destroy [_First, _Last)

  00000	55		 push	 ebp
  00001	8b ec		 mov	 ebp, esp
  00003	56		 push	 esi

; 88   : 	_Destroy_range(_First, _Last, _Al, _Ptr_cat(_First, _Last));

  00004	8b 75 08	 mov	 esi, DWORD PTR __First$[ebp]
  00007	eb 0c		 jmp	 SHORT $LN24@Destroy_ra@2
$LL7@Destroy_ra@2:
  00009	8d 4e 08	 lea	 ecx, DWORD PTR [esi+8]
  0000c	ff 15 00 00 00
	00		 call	 DWORD PTR __imp_??1ioHashString@@QAE@XZ
  00012	83 c6 28	 add	 esi, 40			; 00000028H
$LN24@Destroy_ra@2:
  00015	3b 75 0c	 cmp	 esi, DWORD PTR __Last$[ebp]
  00018	75 ef		 jne	 SHORT $LL7@Destroy_ra@2
  0001a	5e		 pop	 esi

; 89   : 	}

  0001b	5d		 pop	 ebp
  0001c	c3		 ret	 0
??$_Destroy_range@V?$allocator@UWeaponInfo@@@std@@@std@@YAXPAUWeaponInfo@@0AAV?$allocator@UWeaponInfo@@@0@@Z ENDP ; std::_Destroy_range<std::allocator<WeaponInfo> >
_TEXT	ENDS
PUBLIC	??$_Ucopy@V?$_Vector_const_iterator@V?$_Vector_val@UWeaponInfo@@V?$allocator@UWeaponInfo@@@std@@@std@@@std@@@?$vector@UWeaponInfo@@V?$allocator@UWeaponInfo@@@std@@@std@@IAEPAUWeaponInfo@@V?$_Vector_const_iterator@V?$_Vector_val@UWeaponInfo@@V?$allocator@UWeaponInfo@@@std@@@std@@@1@0PAU2@@Z ; std::vector<WeaponInfo,std::allocator<WeaponInfo> >::_Ucopy<std::_Vector_const_iterator<std::_Vector_val<WeaponInfo,std::allocator<WeaponInfo> > > >
; Function compile flags: /Ogsp
; File c:\program files (x86)\microsoft visual studio 10.0\vc\include\vector
;	COMDAT ??$_Ucopy@V?$_Vector_const_iterator@V?$_Vector_val@UWeaponInfo@@V?$allocator@UWeaponInfo@@@std@@@std@@@std@@@?$vector@UWeaponInfo@@V?$allocator@UWeaponInfo@@@std@@@std@@IAEPAUWeaponInfo@@V?$_Vector_const_iterator@V?$_Vector_val@UWeaponInfo@@V?$allocator@UWeaponInfo@@@std@@@std@@@1@0PAU2@@Z
_TEXT	SEGMENT
__First$ = 8						; size = 4
__Last$ = 12						; size = 4
__Cat$531920 = 16					; size = 1
__Ptr$ = 16						; size = 4
??$_Ucopy@V?$_Vector_const_iterator@V?$_Vector_val@UWeaponInfo@@V?$allocator@UWeaponInfo@@@std@@@std@@@std@@@?$vector@UWeaponInfo@@V?$allocator@UWeaponInfo@@@std@@@std@@IAEPAUWeaponInfo@@V?$_Vector_const_iterator@V?$_Vector_val@UWeaponInfo@@V?$allocator@UWeaponInfo@@@std@@@std@@@1@0PAU2@@Z PROC ; std::vector<WeaponInfo,std::allocator<WeaponInfo> >::_Ucopy<std::_Vector_const_iterator<std::_Vector_val<WeaponInfo,std::allocator<WeaponInfo> > > >, COMDAT
; _this$ = ecx

; 1315 : 		pointer _Ucopy(_Iter _First, _Iter _Last, pointer _Ptr)

  00000	55		 push	 ebp
  00001	8b ec		 mov	 ebp, esp

; 1316 : 		{	// copy initializing [_First, _Last), using allocator
; 1317 : 		return (_Uninitialized_copy(_First, _Last,
; 1318 : 			_Ptr, this->_Alval));

  00003	ff 75 10	 push	 DWORD PTR __Cat$531920[ebp]
  00006	83 c1 0c	 add	 ecx, 12			; 0000000cH
  00009	51		 push	 ecx
  0000a	ff 75 10	 push	 DWORD PTR __Ptr$[ebp]
  0000d	ff 75 0c	 push	 DWORD PTR __Last$[ebp]
  00010	ff 75 08	 push	 DWORD PTR __First$[ebp]
  00013	e8 00 00 00 00	 call	 ??$_Uninit_copy@V?$_Vector_const_iterator@V?$_Vector_val@UWeaponInfo@@V?$allocator@UWeaponInfo@@@std@@@std@@@std@@PAUWeaponInfo@@V?$allocator@UWeaponInfo@@@2@@std@@YAPAUWeaponInfo@@V?$_Vector_const_iterator@V?$_Vector_val@UWeaponInfo@@V?$allocator@UWeaponInfo@@@std@@@std@@@0@0PAU1@AAV?$allocator@UWeaponInfo@@@0@U_Nonscalar_ptr_iterator_tag@0@@Z ; std::_Uninit_copy<std::_Vector_const_iterator<std::_Vector_val<WeaponInfo,std::allocator<WeaponInfo> > >,WeaponInfo *,std::allocator<WeaponInfo> >
  00018	83 c4 14	 add	 esp, 20			; 00000014H

; 1319 : 		}

  0001b	5d		 pop	 ebp
  0001c	c2 0c 00	 ret	 12			; 0000000cH
??$_Ucopy@V?$_Vector_const_iterator@V?$_Vector_val@UWeaponInfo@@V?$allocator@UWeaponInfo@@@std@@@std@@@std@@@?$vector@UWeaponInfo@@V?$allocator@UWeaponInfo@@@std@@@std@@IAEPAUWeaponInfo@@V?$_Vector_const_iterator@V?$_Vector_val@UWeaponInfo@@V?$allocator@UWeaponInfo@@@std@@@std@@@1@0PAU2@@Z ENDP ; std::vector<WeaponInfo,std::allocator<WeaponInfo> >::_Ucopy<std::_Vector_const_iterator<std::_Vector_val<WeaponInfo,std::allocator<WeaponInfo> > > >
_TEXT	ENDS
PUBLIC	?_Tidy@?$vector@UForceInfo@@V?$allocator@UForceInfo@@@std@@@std@@IAEXXZ ; std::vector<ForceInfo,std::allocator<ForceInfo> >::_Tidy
EXTRN	__imp_?_Orphan_all@_Container_base0@std@@QAEXXZ:PROC
; Function compile flags: /Ogsp
;	COMDAT ?_Tidy@?$vector@UForceInfo@@V?$allocator@UForceInfo@@@std@@@std@@IAEXXZ
_TEXT	SEGMENT
?_Tidy@?$vector@UForceInfo@@V?$allocator@UForceInfo@@@std@@@std@@IAEXXZ PROC ; std::vector<ForceInfo,std::allocator<ForceInfo> >::_Tidy, COMDAT
; _this$ = ecx

; 1301 : 		{	// free all storage

  00000	56		 push	 esi
  00001	8b f1		 mov	 esi, ecx

; 1302 : 		if (this->_Myfirst != 0)

  00003	83 3e 00	 cmp	 DWORD PTR [esi], 0
  00006	74 0e		 je	 SHORT $LN21@Tidy

; 1303 : 			{	// something to free, destroy and deallocate it
; 1304 : 			this->_Orphan_all();

  00008	ff 15 00 00 00
	00		 call	 DWORD PTR __imp_?_Orphan_all@_Container_base0@std@@QAEXXZ

; 1305 : 			_Destroy(this->_Myfirst, this->_Mylast);
; 1306 : 			this->_Alval.deallocate(this->_Myfirst,
; 1307 : 				this->_Myend - this->_Myfirst);

  0000e	ff 36		 push	 DWORD PTR [esi]
  00010	e8 00 00 00 00	 call	 ??3@YAXPAX@Z		; operator delete
  00015	59		 pop	 ecx
$LN21@Tidy:

; 1308 : 			}
; 1309 : 		this->_Myfirst = 0;

  00016	83 26 00	 and	 DWORD PTR [esi], 0

; 1310 : 		this->_Mylast = 0;

  00019	83 66 04 00	 and	 DWORD PTR [esi+4], 0

; 1311 : 		this->_Myend = 0;

  0001d	83 66 08 00	 and	 DWORD PTR [esi+8], 0
  00021	5e		 pop	 esi

; 1312 : 		}

  00022	c3		 ret	 0
?_Tidy@?$vector@UForceInfo@@V?$allocator@UForceInfo@@@std@@@std@@IAEXXZ ENDP ; std::vector<ForceInfo,std::allocator<ForceInfo> >::_Tidy
_TEXT	ENDS
PUBLIC	?_Destroy@?$vector@UWeaponInfo@@V?$allocator@UWeaponInfo@@@std@@@std@@IAEXPAUWeaponInfo@@0@Z ; std::vector<WeaponInfo,std::allocator<WeaponInfo> >::_Destroy
; Function compile flags: /Ogsp
;	COMDAT ?_Destroy@?$vector@UWeaponInfo@@V?$allocator@UWeaponInfo@@@std@@@std@@IAEXPAUWeaponInfo@@0@Z
_TEXT	SEGMENT
__First$ = 8						; size = 4
__Last$ = 12						; size = 4
?_Destroy@?$vector@UWeaponInfo@@V?$allocator@UWeaponInfo@@@std@@@std@@IAEXPAUWeaponInfo@@0@Z PROC ; std::vector<WeaponInfo,std::allocator<WeaponInfo> >::_Destroy, COMDAT
; _this$ = ecx

; 1269 : 		{	// destroy [_First, _Last) using allocator

  00000	55		 push	 ebp
  00001	8b ec		 mov	 ebp, esp

; 1270 : 		_Destroy_range(_First, _Last, this->_Alval);

  00003	83 c1 0c	 add	 ecx, 12			; 0000000cH
  00006	51		 push	 ecx
  00007	ff 75 0c	 push	 DWORD PTR __Last$[ebp]
  0000a	ff 75 08	 push	 DWORD PTR __First$[ebp]
  0000d	e8 00 00 00 00	 call	 ??$_Destroy_range@V?$allocator@UWeaponInfo@@@std@@@std@@YAXPAUWeaponInfo@@0AAV?$allocator@UWeaponInfo@@@0@@Z ; std::_Destroy_range<std::allocator<WeaponInfo> >
  00012	83 c4 0c	 add	 esp, 12			; 0000000cH

; 1271 : 		}

  00015	5d		 pop	 ebp
  00016	c2 08 00	 ret	 8
?_Destroy@?$vector@UWeaponInfo@@V?$allocator@UWeaponInfo@@@std@@@std@@IAEXPAUWeaponInfo@@0@Z ENDP ; std::vector<WeaponInfo,std::allocator<WeaponInfo> >::_Destroy
_TEXT	ENDS
PUBLIC	??0?$vector@UForceInfo@@V?$allocator@UForceInfo@@@std@@@std@@QAE@ABV01@@Z ; std::vector<ForceInfo,std::allocator<ForceInfo> >::vector<ForceInfo,std::allocator<ForceInfo> >
;	COMDAT xdata$x
; File c:\program files (x86)\microsoft visual studio 10.0\vc\include\xutility
xdata$x	SEGMENT
__catchsym$??0?$vector@UForceInfo@@V?$allocator@UForceInfo@@@std@@@std@@QAE@ABV01@@Z$2 DD 040H
	DD	00H
	DD	00H
	DD	FLAT:__catch$??0?$vector@UForceInfo@@V?$allocator@UForceInfo@@@std@@@std@@QAE@ABV01@@Z$0
__unwindtable$??0?$vector@UForceInfo@@V?$allocator@UForceInfo@@@std@@@std@@QAE@ABV01@@Z DD 0ffffffffH
	DD	00H
	DD	0ffffffffH
	DD	00H
__tryblocktable$??0?$vector@UForceInfo@@V?$allocator@UForceInfo@@@std@@@std@@QAE@ABV01@@Z DD 00H
	DD	00H
	DD	01H
	DD	01H
	DD	FLAT:__catchsym$??0?$vector@UForceInfo@@V?$allocator@UForceInfo@@@std@@@std@@QAE@ABV01@@Z$2
__ehfuncinfo$??0?$vector@UForceInfo@@V?$allocator@UForceInfo@@@std@@@std@@QAE@ABV01@@Z DD 019930522H
	DD	02H
	DD	FLAT:__unwindtable$??0?$vector@UForceInfo@@V?$allocator@UForceInfo@@@std@@@std@@QAE@ABV01@@Z
	DD	01H
	DD	FLAT:__tryblocktable$??0?$vector@UForceInfo@@V?$allocator@UForceInfo@@@std@@@std@@QAE@ABV01@@Z
	DD	2 DUP(00H)
	DD	00H
	DD	01H
; Function compile flags: /Ogsp
; File c:\program files (x86)\microsoft visual studio 10.0\vc\include\vector
xdata$x	ENDS
;	COMDAT ??0?$vector@UForceInfo@@V?$allocator@UForceInfo@@@std@@@std@@QAE@ABV01@@Z
_TEXT	SEGMENT
_this$ = -20						; size = 4
__$EHRec$ = -16						; size = 16
__Cat$532086 = 8					; size = 1
__Right$ = 8						; size = 4
??0?$vector@UForceInfo@@V?$allocator@UForceInfo@@@std@@@std@@QAE@ABV01@@Z PROC ; std::vector<ForceInfo,std::allocator<ForceInfo> >::vector<ForceInfo,std::allocator<ForceInfo> >, COMDAT
; _this$ = ecx

; 535  : 		{	// construct by copying _Right

  00000	6a 08		 push	 8
  00002	b8 00 00 00 00	 mov	 eax, __ehhandler$??0?$vector@UForceInfo@@V?$allocator@UForceInfo@@@std@@@std@@QAE@ABV01@@Z
  00007	e8 00 00 00 00	 call	 __EH_prolog3_catch
  0000c	8b f1		 mov	 esi, ecx
  0000e	89 75 ec	 mov	 DWORD PTR _this$[ebp], esi

; 536  : 		if (_Buy(_Right.size()))

  00011	8b 7d 08	 mov	 edi, DWORD PTR __Right$[ebp]
  00014	33 db		 xor	 ebx, ebx
  00016	89 1e		 mov	 DWORD PTR [esi], ebx
  00018	89 5e 04	 mov	 DWORD PTR [esi+4], ebx
  0001b	89 5e 08	 mov	 DWORD PTR [esi+8], ebx
  0001e	8b 47 04	 mov	 eax, DWORD PTR [edi+4]
  00021	2b 07		 sub	 eax, DWORD PTR [edi]
  00023	6a 0c		 push	 12			; 0000000cH
  00025	59		 pop	 ecx
  00026	99		 cdq
  00027	f7 f9		 idiv	 ecx
  00029	8b ce		 mov	 ecx, esi
  0002b	50		 push	 eax
  0002c	e8 00 00 00 00	 call	 ?_Buy@?$vector@UForceInfo@@V?$allocator@UForceInfo@@@std@@@std@@IAE_NI@Z ; std::vector<ForceInfo,std::allocator<ForceInfo> >::_Buy
  00031	84 c0		 test	 al, al
  00033	74 1f		 je	 SHORT $LN7@vector

; 537  : 			_TRY_BEGIN
; 538  : 			this->_Mylast = _Ucopy(_Right.begin(), _Right.end(),
; 539  : 				this->_Myfirst);

  00035	ff 75 08	 push	 DWORD PTR __Cat$532086[ebp]
  00038	8b 0e		 mov	 ecx, DWORD PTR [esi]
  0003a	8b 47 04	 mov	 eax, DWORD PTR [edi+4]
  0003d	8b 3f		 mov	 edi, DWORD PTR [edi]
  0003f	8d 56 0c	 lea	 edx, DWORD PTR [esi+12]
  00042	52		 push	 edx
  00043	51		 push	 ecx
  00044	50		 push	 eax
  00045	57		 push	 edi
  00046	89 5d fc	 mov	 DWORD PTR __$EHRec$[ebp+12], ebx
  00049	e8 00 00 00 00	 call	 ??$_Uninit_copy@V?$_Vector_const_iterator@V?$_Vector_val@UForceInfo@@V?$allocator@UForceInfo@@@std@@@std@@@std@@PAUForceInfo@@V?$allocator@UForceInfo@@@2@@std@@YAPAUForceInfo@@V?$_Vector_const_iterator@V?$_Vector_val@UForceInfo@@V?$allocator@UForceInfo@@@std@@@std@@@0@0PAU1@AAV?$allocator@UForceInfo@@@0@U_Nonscalar_ptr_iterator_tag@0@@Z ; std::_Uninit_copy<std::_Vector_const_iterator<std::_Vector_val<ForceInfo,std::allocator<ForceInfo> > >,ForceInfo *,std::allocator<ForceInfo> >
  0004e	83 c4 14	 add	 esp, 20			; 00000014H
  00051	89 46 04	 mov	 DWORD PTR [esi+4], eax
$LN7@vector:

; 543  : 			_CATCH_END
; 544  : 		}

  00054	8b c6		 mov	 eax, esi
  00056	e8 00 00 00 00	 call	 __EH_epilog3
  0005b	c2 04 00	 ret	 4
__catch$??0?$vector@UForceInfo@@V?$allocator@UForceInfo@@@std@@@std@@QAE@ABV01@@Z$0:

; 540  : 			_CATCH_ALL
; 541  : 			_Tidy();

  0005e	8b 4d ec	 mov	 ecx, DWORD PTR _this$[ebp]
  00061	e8 00 00 00 00	 call	 ?_Tidy@?$vector@UForceInfo@@V?$allocator@UForceInfo@@@std@@@std@@IAEXXZ ; std::vector<ForceInfo,std::allocator<ForceInfo> >::_Tidy

; 542  : 			_RERAISE;

  00066	33 db		 xor	 ebx, ebx
  00068	53		 push	 ebx
  00069	53		 push	 ebx
  0006a	e8 00 00 00 00	 call	 __CxxThrowException@8
$LN38@vector:
$LN37@vector:
  0006f	cc		 int	 3
_TEXT	ENDS
;	COMDAT text$x
text$x	SEGMENT
__ehhandler$??0?$vector@UForceInfo@@V?$allocator@UForceInfo@@@std@@@std@@QAE@ABV01@@Z:
  00000	8b 54 24 08	 mov	 edx, DWORD PTR [esp+8]
  00004	8d 42 0c	 lea	 eax, DWORD PTR [edx+12]
  00007	8b 4a e8	 mov	 ecx, DWORD PTR [edx-24]
  0000a	33 c8		 xor	 ecx, eax
  0000c	e8 00 00 00 00	 call	 @__security_check_cookie@4
  00011	b8 00 00 00 00	 mov	 eax, OFFSET __ehfuncinfo$??0?$vector@UForceInfo@@V?$allocator@UForceInfo@@@std@@@std@@QAE@ABV01@@Z
  00016	e9 00 00 00 00	 jmp	 ___CxxFrameHandler3
text$x	ENDS
??0?$vector@UForceInfo@@V?$allocator@UForceInfo@@@std@@@std@@QAE@ABV01@@Z ENDP ; std::vector<ForceInfo,std::allocator<ForceInfo> >::vector<ForceInfo,std::allocator<ForceInfo> >
PUBLIC	??1?$vector@UForceInfo@@V?$allocator@UForceInfo@@@std@@@std@@QAE@XZ ; std::vector<ForceInfo,std::allocator<ForceInfo> >::~vector<ForceInfo,std::allocator<ForceInfo> >
; Function compile flags: /Ogsp
;	COMDAT ??1?$vector@UForceInfo@@V?$allocator@UForceInfo@@@std@@@std@@QAE@XZ
_TEXT	SEGMENT
??1?$vector@UForceInfo@@V?$allocator@UForceInfo@@@std@@@std@@QAE@XZ PROC ; std::vector<ForceInfo,std::allocator<ForceInfo> >::~vector<ForceInfo,std::allocator<ForceInfo> >, COMDAT
; _this$ = ecx

; 705  : 		_Tidy();

  00000	e9 00 00 00 00	 jmp	 ?_Tidy@?$vector@UForceInfo@@V?$allocator@UForceInfo@@@std@@@std@@IAEXXZ ; std::vector<ForceInfo,std::allocator<ForceInfo> >::_Tidy
??1?$vector@UForceInfo@@V?$allocator@UForceInfo@@@std@@@std@@QAE@XZ ENDP ; std::vector<ForceInfo,std::allocator<ForceInfo> >::~vector<ForceInfo,std::allocator<ForceInfo> >
_TEXT	ENDS
PUBLIC	?_Tidy@?$vector@UWeaponInfo@@V?$allocator@UWeaponInfo@@@std@@@std@@IAEXXZ ; std::vector<WeaponInfo,std::allocator<WeaponInfo> >::_Tidy
; Function compile flags: /Ogsp
;	COMDAT ?_Tidy@?$vector@UWeaponInfo@@V?$allocator@UWeaponInfo@@@std@@@std@@IAEXXZ
_TEXT	SEGMENT
?_Tidy@?$vector@UWeaponInfo@@V?$allocator@UWeaponInfo@@@std@@@std@@IAEXXZ PROC ; std::vector<WeaponInfo,std::allocator<WeaponInfo> >::_Tidy, COMDAT
; _this$ = ecx

; 1301 : 		{	// free all storage

  00000	56		 push	 esi
  00001	8b f1		 mov	 esi, ecx

; 1302 : 		if (this->_Myfirst != 0)

  00003	83 3e 00	 cmp	 DWORD PTR [esi], 0
  00006	74 1e		 je	 SHORT $LN6@Tidy@2

; 1303 : 			{	// something to free, destroy and deallocate it
; 1304 : 			this->_Orphan_all();

  00008	ff 15 00 00 00
	00		 call	 DWORD PTR __imp_?_Orphan_all@_Container_base0@std@@QAEXXZ

; 1305 : 			_Destroy(this->_Myfirst, this->_Mylast);

  0000e	8d 46 0c	 lea	 eax, DWORD PTR [esi+12]
  00011	50		 push	 eax
  00012	ff 76 04	 push	 DWORD PTR [esi+4]
  00015	ff 36		 push	 DWORD PTR [esi]
  00017	e8 00 00 00 00	 call	 ??$_Destroy_range@V?$allocator@UWeaponInfo@@@std@@@std@@YAXPAUWeaponInfo@@0AAV?$allocator@UWeaponInfo@@@0@@Z ; std::_Destroy_range<std::allocator<WeaponInfo> >

; 1306 : 			this->_Alval.deallocate(this->_Myfirst,
; 1307 : 				this->_Myend - this->_Myfirst);

  0001c	ff 36		 push	 DWORD PTR [esi]
  0001e	e8 00 00 00 00	 call	 ??3@YAXPAX@Z		; operator delete
  00023	83 c4 10	 add	 esp, 16			; 00000010H
$LN6@Tidy@2:

; 1308 : 			}
; 1309 : 		this->_Myfirst = 0;

  00026	83 26 00	 and	 DWORD PTR [esi], 0

; 1310 : 		this->_Mylast = 0;

  00029	83 66 04 00	 and	 DWORD PTR [esi+4], 0

; 1311 : 		this->_Myend = 0;

  0002d	83 66 08 00	 and	 DWORD PTR [esi+8], 0
  00031	5e		 pop	 esi

; 1312 : 		}

  00032	c3		 ret	 0
?_Tidy@?$vector@UWeaponInfo@@V?$allocator@UWeaponInfo@@@std@@@std@@IAEXXZ ENDP ; std::vector<WeaponInfo,std::allocator<WeaponInfo> >::_Tidy
_TEXT	ENDS
PUBLIC	??0?$vector@UWeaponInfo@@V?$allocator@UWeaponInfo@@@std@@@std@@QAE@ABV01@@Z ; std::vector<WeaponInfo,std::allocator<WeaponInfo> >::vector<WeaponInfo,std::allocator<WeaponInfo> >
;	COMDAT xdata$x
; File c:\program files (x86)\microsoft visual studio 10.0\vc\include\xutility
xdata$x	SEGMENT
__catchsym$??0?$vector@UWeaponInfo@@V?$allocator@UWeaponInfo@@@std@@@std@@QAE@ABV01@@Z$2 DD 040H
	DD	00H
	DD	00H
	DD	FLAT:__catch$??0?$vector@UWeaponInfo@@V?$allocator@UWeaponInfo@@@std@@@std@@QAE@ABV01@@Z$0
__unwindtable$??0?$vector@UWeaponInfo@@V?$allocator@UWeaponInfo@@@std@@@std@@QAE@ABV01@@Z DD 0ffffffffH
	DD	00H
	DD	0ffffffffH
	DD	00H
__tryblocktable$??0?$vector@UWeaponInfo@@V?$allocator@UWeaponInfo@@@std@@@std@@QAE@ABV01@@Z DD 00H
	DD	00H
	DD	01H
	DD	01H
	DD	FLAT:__catchsym$??0?$vector@UWeaponInfo@@V?$allocator@UWeaponInfo@@@std@@@std@@QAE@ABV01@@Z$2
__ehfuncinfo$??0?$vector@UWeaponInfo@@V?$allocator@UWeaponInfo@@@std@@@std@@QAE@ABV01@@Z DD 019930522H
	DD	02H
	DD	FLAT:__unwindtable$??0?$vector@UWeaponInfo@@V?$allocator@UWeaponInfo@@@std@@@std@@QAE@ABV01@@Z
	DD	01H
	DD	FLAT:__tryblocktable$??0?$vector@UWeaponInfo@@V?$allocator@UWeaponInfo@@@std@@@std@@QAE@ABV01@@Z
	DD	2 DUP(00H)
	DD	00H
	DD	01H
; Function compile flags: /Ogsp
; File c:\program files (x86)\microsoft visual studio 10.0\vc\include\vector
xdata$x	ENDS
;	COMDAT ??0?$vector@UWeaponInfo@@V?$allocator@UWeaponInfo@@@std@@@std@@QAE@ABV01@@Z
_TEXT	SEGMENT
_this$ = -20						; size = 4
__$EHRec$ = -16						; size = 16
__Cat$532201 = 8					; size = 1
__Right$ = 8						; size = 4
??0?$vector@UWeaponInfo@@V?$allocator@UWeaponInfo@@@std@@@std@@QAE@ABV01@@Z PROC ; std::vector<WeaponInfo,std::allocator<WeaponInfo> >::vector<WeaponInfo,std::allocator<WeaponInfo> >, COMDAT
; _this$ = ecx

; 535  : 		{	// construct by copying _Right

  00000	6a 08		 push	 8
  00002	b8 00 00 00 00	 mov	 eax, __ehhandler$??0?$vector@UWeaponInfo@@V?$allocator@UWeaponInfo@@@std@@@std@@QAE@ABV01@@Z
  00007	e8 00 00 00 00	 call	 __EH_prolog3_catch
  0000c	8b f1		 mov	 esi, ecx
  0000e	89 75 ec	 mov	 DWORD PTR _this$[ebp], esi

; 536  : 		if (_Buy(_Right.size()))

  00011	8b 7d 08	 mov	 edi, DWORD PTR __Right$[ebp]
  00014	33 db		 xor	 ebx, ebx
  00016	89 1e		 mov	 DWORD PTR [esi], ebx
  00018	89 5e 04	 mov	 DWORD PTR [esi+4], ebx
  0001b	89 5e 08	 mov	 DWORD PTR [esi+8], ebx
  0001e	8b 47 04	 mov	 eax, DWORD PTR [edi+4]
  00021	2b 07		 sub	 eax, DWORD PTR [edi]
  00023	6a 28		 push	 40			; 00000028H
  00025	59		 pop	 ecx
  00026	99		 cdq
  00027	f7 f9		 idiv	 ecx
  00029	8b ce		 mov	 ecx, esi
  0002b	50		 push	 eax
  0002c	e8 00 00 00 00	 call	 ?_Buy@?$vector@UWeaponInfo@@V?$allocator@UWeaponInfo@@@std@@@std@@IAE_NI@Z ; std::vector<WeaponInfo,std::allocator<WeaponInfo> >::_Buy
  00031	84 c0		 test	 al, al
  00033	74 1f		 je	 SHORT $LN7@vector@2

; 537  : 			_TRY_BEGIN
; 538  : 			this->_Mylast = _Ucopy(_Right.begin(), _Right.end(),
; 539  : 				this->_Myfirst);

  00035	ff 75 08	 push	 DWORD PTR __Cat$532201[ebp]
  00038	8b 0e		 mov	 ecx, DWORD PTR [esi]
  0003a	8b 47 04	 mov	 eax, DWORD PTR [edi+4]
  0003d	8b 3f		 mov	 edi, DWORD PTR [edi]
  0003f	8d 56 0c	 lea	 edx, DWORD PTR [esi+12]
  00042	52		 push	 edx
  00043	51		 push	 ecx
  00044	50		 push	 eax
  00045	57		 push	 edi
  00046	89 5d fc	 mov	 DWORD PTR __$EHRec$[ebp+12], ebx
  00049	e8 00 00 00 00	 call	 ??$_Uninit_copy@V?$_Vector_const_iterator@V?$_Vector_val@UWeaponInfo@@V?$allocator@UWeaponInfo@@@std@@@std@@@std@@PAUWeaponInfo@@V?$allocator@UWeaponInfo@@@2@@std@@YAPAUWeaponInfo@@V?$_Vector_const_iterator@V?$_Vector_val@UWeaponInfo@@V?$allocator@UWeaponInfo@@@std@@@std@@@0@0PAU1@AAV?$allocator@UWeaponInfo@@@0@U_Nonscalar_ptr_iterator_tag@0@@Z ; std::_Uninit_copy<std::_Vector_const_iterator<std::_Vector_val<WeaponInfo,std::allocator<WeaponInfo> > >,WeaponInfo *,std::allocator<WeaponInfo> >
  0004e	83 c4 14	 add	 esp, 20			; 00000014H
  00051	89 46 04	 mov	 DWORD PTR [esi+4], eax
$LN7@vector@2:

; 543  : 			_CATCH_END
; 544  : 		}

  00054	8b c6		 mov	 eax, esi
  00056	e8 00 00 00 00	 call	 __EH_epilog3
  0005b	c2 04 00	 ret	 4
__catch$??0?$vector@UWeaponInfo@@V?$allocator@UWeaponInfo@@@std@@@std@@QAE@ABV01@@Z$0:

; 540  : 			_CATCH_ALL
; 541  : 			_Tidy();

  0005e	8b 4d ec	 mov	 ecx, DWORD PTR _this$[ebp]
  00061	e8 00 00 00 00	 call	 ?_Tidy@?$vector@UWeaponInfo@@V?$allocator@UWeaponInfo@@@std@@@std@@IAEXXZ ; std::vector<WeaponInfo,std::allocator<WeaponInfo> >::_Tidy

; 542  : 			_RERAISE;

  00066	33 db		 xor	 ebx, ebx
  00068	53		 push	 ebx
  00069	53		 push	 ebx
  0006a	e8 00 00 00 00	 call	 __CxxThrowException@8
$LN38@vector@2:
$LN37@vector@2:
  0006f	cc		 int	 3
_TEXT	ENDS
;	COMDAT text$x
text$x	SEGMENT
__ehhandler$??0?$vector@UWeaponInfo@@V?$allocator@UWeaponInfo@@@std@@@std@@QAE@ABV01@@Z:
  00000	8b 54 24 08	 mov	 edx, DWORD PTR [esp+8]
  00004	8d 42 0c	 lea	 eax, DWORD PTR [edx+12]
  00007	8b 4a e8	 mov	 ecx, DWORD PTR [edx-24]
  0000a	33 c8		 xor	 ecx, eax
  0000c	e8 00 00 00 00	 call	 @__security_check_cookie@4
  00011	b8 00 00 00 00	 mov	 eax, OFFSET __ehfuncinfo$??0?$vector@UWeaponInfo@@V?$allocator@UWeaponInfo@@@std@@@std@@QAE@ABV01@@Z
  00016	e9 00 00 00 00	 jmp	 ___CxxFrameHandler3
text$x	ENDS
??0?$vector@UWeaponInfo@@V?$allocator@UWeaponInfo@@@std@@@std@@QAE@ABV01@@Z ENDP ; std::vector<WeaponInfo,std::allocator<WeaponInfo> >::vector<WeaponInfo,std::allocator<WeaponInfo> >
PUBLIC	??1?$vector@UWeaponInfo@@V?$allocator@UWeaponInfo@@@std@@@std@@QAE@XZ ; std::vector<WeaponInfo,std::allocator<WeaponInfo> >::~vector<WeaponInfo,std::allocator<WeaponInfo> >
; Function compile flags: /Ogsp
;	COMDAT ??1?$vector@UWeaponInfo@@V?$allocator@UWeaponInfo@@@std@@@std@@QAE@XZ
_TEXT	SEGMENT
??1?$vector@UWeaponInfo@@V?$allocator@UWeaponInfo@@@std@@@std@@QAE@XZ PROC ; std::vector<WeaponInfo,std::allocator<WeaponInfo> >::~vector<WeaponInfo,std::allocator<WeaponInfo> >, COMDAT
; _this$ = ecx

; 705  : 		_Tidy();

  00000	e9 00 00 00 00	 jmp	 ?_Tidy@?$vector@UWeaponInfo@@V?$allocator@UWeaponInfo@@@std@@@std@@IAEXXZ ; std::vector<WeaponInfo,std::allocator<WeaponInfo> >::_Tidy
??1?$vector@UWeaponInfo@@V?$allocator@UWeaponInfo@@@std@@@std@@QAE@XZ ENDP ; std::vector<WeaponInfo,std::allocator<WeaponInfo> >::~vector<WeaponInfo,std::allocator<WeaponInfo> >
_TEXT	ENDS
PUBLIC	??0AttackAttribute@@QAE@ABU0@@Z			; AttackAttribute::AttackAttribute
;	COMDAT xdata$x
xdata$x	SEGMENT
__unwindtable$??0AttackAttribute@@QAE@ABU0@@Z DD 0ffffffffH
	DD	FLAT:__unwindfunclet$??0AttackAttribute@@QAE@ABU0@@Z$0
	DD	00H
	DD	FLAT:__unwindfunclet$??0AttackAttribute@@QAE@ABU0@@Z$1
	DD	01H
	DD	FLAT:__unwindfunclet$??0AttackAttribute@@QAE@ABU0@@Z$2
__ehfuncinfo$??0AttackAttribute@@QAE@ABU0@@Z DD 019930522H
	DD	03H
	DD	FLAT:__unwindtable$??0AttackAttribute@@QAE@ABU0@@Z
	DD	2 DUP(00H)
	DD	2 DUP(00H)
	DD	00H
	DD	01H
; Function compile flags: /Ogsp
xdata$x	ENDS
;	COMDAT ??0AttackAttribute@@QAE@ABU0@@Z
_TEXT	SEGMENT
_this$ = -16						; size = 4
__$EHRec$ = -12						; size = 12
___that$ = 8						; size = 4
??0AttackAttribute@@QAE@ABU0@@Z PROC			; AttackAttribute::AttackAttribute, COMDAT
; _this$ = ecx
  00000	6a 04		 push	 4
  00002	b8 00 00 00 00	 mov	 eax, __ehhandler$??0AttackAttribute@@QAE@ABU0@@Z
  00007	e8 00 00 00 00	 call	 __EH_prolog3
  0000c	8b f1		 mov	 esi, ecx
  0000e	89 75 f0	 mov	 DWORD PTR _this$[ebp], esi
  00011	8b 7d 08	 mov	 edi, DWORD PTR ___that$[ebp]
  00014	8b 1d 00 00 00
	00		 mov	 ebx, DWORD PTR __imp_??0ioHashString@@QAE@ABV0@@Z
  0001a	57		 push	 edi
  0001b	ff d3		 call	 ebx
  0001d	d9 47 10	 fld	 DWORD PTR [edi+16]
  00020	83 65 fc 00	 and	 DWORD PTR __$EHRec$[ebp+8], 0
  00024	d9 5e 10	 fstp	 DWORD PTR [esi+16]
  00027	8d 47 14	 lea	 eax, DWORD PTR [edi+20]
  0002a	50		 push	 eax
  0002b	8d 4e 14	 lea	 ecx, DWORD PTR [esi+20]
  0002e	ff d3		 call	 ebx
  00030	d9 47 24	 fld	 DWORD PTR [edi+36]
  00033	8d 47 28	 lea	 eax, DWORD PTR [edi+40]
  00036	d9 5e 24	 fstp	 DWORD PTR [esi+36]
  00039	50		 push	 eax
  0003a	8d 4e 28	 lea	 ecx, DWORD PTR [esi+40]
  0003d	c6 45 fc 01	 mov	 BYTE PTR __$EHRec$[ebp+8], 1
  00041	e8 00 00 00 00	 call	 ??0?$vector@UWeaponInfo@@V?$allocator@UWeaponInfo@@@std@@@std@@QAE@ABV01@@Z ; std::vector<WeaponInfo,std::allocator<WeaponInfo> >::vector<WeaponInfo,std::allocator<WeaponInfo> >
  00046	8d 47 38	 lea	 eax, DWORD PTR [edi+56]
  00049	50		 push	 eax
  0004a	8d 4e 38	 lea	 ecx, DWORD PTR [esi+56]
  0004d	c6 45 fc 02	 mov	 BYTE PTR __$EHRec$[ebp+8], 2
  00051	e8 00 00 00 00	 call	 ??0?$vector@UForceInfo@@V?$allocator@UForceInfo@@@std@@@std@@QAE@ABV01@@Z ; std::vector<ForceInfo,std::allocator<ForceInfo> >::vector<ForceInfo,std::allocator<ForceInfo> >
  00056	8b 47 48	 mov	 eax, DWORD PTR [edi+72]
  00059	89 46 48	 mov	 DWORD PTR [esi+72], eax
  0005c	8b 47 4c	 mov	 eax, DWORD PTR [edi+76]
  0005f	89 46 4c	 mov	 DWORD PTR [esi+76], eax
  00062	8b c6		 mov	 eax, esi
  00064	e8 00 00 00 00	 call	 __EH_epilog3
  00069	c2 04 00	 ret	 4
_TEXT	ENDS
;	COMDAT text$x
text$x	SEGMENT
__unwindfunclet$??0AttackAttribute@@QAE@ABU0@@Z$0:
  00000	8b 4d f0	 mov	 ecx, DWORD PTR _this$[ebp]
  00003	ff 25 00 00 00
	00		 jmp	 DWORD PTR __imp_??1ioHashString@@QAE@XZ
__unwindfunclet$??0AttackAttribute@@QAE@ABU0@@Z$1:
  00009	8b 4d f0	 mov	 ecx, DWORD PTR _this$[ebp]
  0000c	83 c1 14	 add	 ecx, 20			; 00000014H
  0000f	ff 25 00 00 00
	00		 jmp	 DWORD PTR __imp_??1ioHashString@@QAE@XZ
__unwindfunclet$??0AttackAttribute@@QAE@ABU0@@Z$2:
  00015	8b 4d f0	 mov	 ecx, DWORD PTR _this$[ebp]
  00018	83 c1 28	 add	 ecx, 40			; 00000028H
  0001b	e9 00 00 00 00	 jmp	 ??1?$vector@UWeaponInfo@@V?$allocator@UWeaponInfo@@@std@@@std@@QAE@XZ ; std::vector<WeaponInfo,std::allocator<WeaponInfo> >::~vector<WeaponInfo,std::allocator<WeaponInfo> >
__ehhandler$??0AttackAttribute@@QAE@ABU0@@Z:
  00020	8b 54 24 08	 mov	 edx, DWORD PTR [esp+8]
  00024	8d 42 0c	 lea	 eax, DWORD PTR [edx+12]
  00027	8b 4a ec	 mov	 ecx, DWORD PTR [edx-20]
  0002a	33 c8		 xor	 ecx, eax
  0002c	e8 00 00 00 00	 call	 @__security_check_cookie@4
  00031	b8 00 00 00 00	 mov	 eax, OFFSET __ehfuncinfo$??0AttackAttribute@@QAE@ABU0@@Z
  00036	e9 00 00 00 00	 jmp	 ___CxxFrameHandler3
text$x	ENDS
??0AttackAttribute@@QAE@ABU0@@Z ENDP			; AttackAttribute::AttackAttribute
PUBLIC	??0AttackAttribute@@QAE@XZ			; AttackAttribute::AttackAttribute
EXTRN	__imp_??0ioHashString@@QAE@XZ:PROC
;	COMDAT xdata$x
; File c:\program files (x86)\microsoft visual studio 10.0\vc\include\xmemory
xdata$x	SEGMENT
__unwindtable$??0AttackAttribute@@QAE@XZ DD 0ffffffffH
	DD	FLAT:__unwindfunclet$??0AttackAttribute@@QAE@XZ$0
	DD	00H
	DD	FLAT:__unwindfunclet$??0AttackAttribute@@QAE@XZ$1
	DD	01H
	DD	FLAT:__unwindfunclet$??0AttackAttribute@@QAE@XZ$2
	DD	02H
	DD	FLAT:__unwindfunclet$??0AttackAttribute@@QAE@XZ$3
__ehfuncinfo$??0AttackAttribute@@QAE@XZ DD 019930522H
	DD	04H
	DD	FLAT:__unwindtable$??0AttackAttribute@@QAE@XZ
	DD	2 DUP(00H)
	DD	2 DUP(00H)
	DD	00H
	DD	01H
; Function compile flags: /Ogsp
; File d:\lost saga for developer\youtube\tutorial\source\src\lsclient\ioattackattribute.h
xdata$x	ENDS
;	COMDAT ??0AttackAttribute@@QAE@XZ
_TEXT	SEGMENT
_this$ = -16						; size = 4
__$EHRec$ = -12						; size = 12
??0AttackAttribute@@QAE@XZ PROC				; AttackAttribute::AttackAttribute, COMDAT
; _this$ = ecx

; 107  : 	AttackAttribute()

  00000	6a 04		 push	 4
  00002	b8 00 00 00 00	 mov	 eax, __ehhandler$??0AttackAttribute@@QAE@XZ
  00007	e8 00 00 00 00	 call	 __EH_prolog3
  0000c	8b f1		 mov	 esi, ecx
  0000e	89 75 f0	 mov	 DWORD PTR _this$[ebp], esi
  00011	8b 3d 00 00 00
	00		 mov	 edi, DWORD PTR __imp_??0ioHashString@@QAE@XZ
  00017	ff d7		 call	 edi
  00019	33 db		 xor	 ebx, ebx
  0001b	8d 4e 14	 lea	 ecx, DWORD PTR [esi+20]
  0001e	89 5d fc	 mov	 DWORD PTR __$EHRec$[ebp+8], ebx
  00021	ff d7		 call	 edi
  00023	89 5e 28	 mov	 DWORD PTR [esi+40], ebx
  00026	89 5e 2c	 mov	 DWORD PTR [esi+44], ebx
  00029	89 5e 30	 mov	 DWORD PTR [esi+48], ebx
  0002c	89 5e 38	 mov	 DWORD PTR [esi+56], ebx
  0002f	89 5e 3c	 mov	 DWORD PTR [esi+60], ebx
  00032	89 5e 40	 mov	 DWORD PTR [esi+64], ebx

; 108  : 	{
; 109  : 		Init();

  00035	8b ce		 mov	 ecx, esi
  00037	c6 45 fc 03	 mov	 BYTE PTR __$EHRec$[ebp+8], 3
  0003b	e8 00 00 00 00	 call	 ?Init@AttackAttribute@@QAEXXZ ; AttackAttribute::Init

; 110  : 	}

  00040	8b c6		 mov	 eax, esi
  00042	e8 00 00 00 00	 call	 __EH_epilog3
  00047	c3		 ret	 0
_TEXT	ENDS
;	COMDAT text$x
text$x	SEGMENT
__unwindfunclet$??0AttackAttribute@@QAE@XZ$0:
  00000	8b 4d f0	 mov	 ecx, DWORD PTR _this$[ebp]
  00003	ff 25 00 00 00
	00		 jmp	 DWORD PTR __imp_??1ioHashString@@QAE@XZ
__unwindfunclet$??0AttackAttribute@@QAE@XZ$1:
  00009	8b 4d f0	 mov	 ecx, DWORD PTR _this$[ebp]
  0000c	83 c1 14	 add	 ecx, 20			; 00000014H
  0000f	ff 25 00 00 00
	00		 jmp	 DWORD PTR __imp_??1ioHashString@@QAE@XZ
__unwindfunclet$??0AttackAttribute@@QAE@XZ$2:
  00015	8b 4d f0	 mov	 ecx, DWORD PTR _this$[ebp]
  00018	83 c1 28	 add	 ecx, 40			; 00000028H
  0001b	e9 00 00 00 00	 jmp	 ??1?$vector@UWeaponInfo@@V?$allocator@UWeaponInfo@@@std@@@std@@QAE@XZ ; std::vector<WeaponInfo,std::allocator<WeaponInfo> >::~vector<WeaponInfo,std::allocator<WeaponInfo> >
__unwindfunclet$??0AttackAttribute@@QAE@XZ$3:
  00020	8b 4d f0	 mov	 ecx, DWORD PTR _this$[ebp]
  00023	83 c1 38	 add	 ecx, 56			; 00000038H
  00026	e9 00 00 00 00	 jmp	 ??1?$vector@UForceInfo@@V?$allocator@UForceInfo@@@std@@@std@@QAE@XZ ; std::vector<ForceInfo,std::allocator<ForceInfo> >::~vector<ForceInfo,std::allocator<ForceInfo> >
__ehhandler$??0AttackAttribute@@QAE@XZ:
  0002b	8b 54 24 08	 mov	 edx, DWORD PTR [esp+8]
  0002f	8d 42 0c	 lea	 eax, DWORD PTR [edx+12]
  00032	8b 4a ec	 mov	 ecx, DWORD PTR [edx-20]
  00035	33 c8		 xor	 ecx, eax
  00037	e8 00 00 00 00	 call	 @__security_check_cookie@4
  0003c	b8 00 00 00 00	 mov	 eax, OFFSET __ehfuncinfo$??0AttackAttribute@@QAE@XZ
  00041	e9 00 00 00 00	 jmp	 ___CxxFrameHandler3
text$x	ENDS
??0AttackAttribute@@QAE@XZ ENDP				; AttackAttribute::AttackAttribute
PUBLIC	??1AttackAttribute@@QAE@XZ			; AttackAttribute::~AttackAttribute
;	COMDAT xdata$x
xdata$x	SEGMENT
__unwindtable$??1AttackAttribute@@QAE@XZ DD 0ffffffffH
	DD	FLAT:__unwindfunclet$??1AttackAttribute@@QAE@XZ$0
	DD	00H
	DD	FLAT:__unwindfunclet$??1AttackAttribute@@QAE@XZ$1
	DD	01H
	DD	FLAT:__unwindfunclet$??1AttackAttribute@@QAE@XZ$2
__ehfuncinfo$??1AttackAttribute@@QAE@XZ DD 019930522H
	DD	03H
	DD	FLAT:__unwindtable$??1AttackAttribute@@QAE@XZ
	DD	2 DUP(00H)
	DD	2 DUP(00H)
	DD	00H
	DD	01H
; Function compile flags: /Ogsp
xdata$x	ENDS
;	COMDAT ??1AttackAttribute@@QAE@XZ
_TEXT	SEGMENT
_this$ = -16						; size = 4
__$EHRec$ = -12						; size = 12
??1AttackAttribute@@QAE@XZ PROC				; AttackAttribute::~AttackAttribute, COMDAT
; _this$ = ecx
  00000	6a 04		 push	 4
  00002	b8 00 00 00 00	 mov	 eax, __ehhandler$??1AttackAttribute@@QAE@XZ
  00007	e8 00 00 00 00	 call	 __EH_prolog3
  0000c	8b f1		 mov	 esi, ecx
  0000e	89 75 f0	 mov	 DWORD PTR _this$[ebp], esi
  00011	8d 4e 38	 lea	 ecx, DWORD PTR [esi+56]
  00014	c7 45 fc 02 00
	00 00		 mov	 DWORD PTR __$EHRec$[ebp+8], 2
  0001b	e8 00 00 00 00	 call	 ?_Tidy@?$vector@UForceInfo@@V?$allocator@UForceInfo@@@std@@@std@@IAEXXZ ; std::vector<ForceInfo,std::allocator<ForceInfo> >::_Tidy
  00020	8d 4e 28	 lea	 ecx, DWORD PTR [esi+40]
  00023	c6 45 fc 01	 mov	 BYTE PTR __$EHRec$[ebp+8], 1
  00027	e8 00 00 00 00	 call	 ?_Tidy@?$vector@UWeaponInfo@@V?$allocator@UWeaponInfo@@@std@@@std@@IAEXXZ ; std::vector<WeaponInfo,std::allocator<WeaponInfo> >::_Tidy
  0002c	8b 3d 00 00 00
	00		 mov	 edi, DWORD PTR __imp_??1ioHashString@@QAE@XZ
  00032	8d 4e 14	 lea	 ecx, DWORD PTR [esi+20]
  00035	c6 45 fc 00	 mov	 BYTE PTR __$EHRec$[ebp+8], 0
  00039	ff d7		 call	 edi
  0003b	83 4d fc ff	 or	 DWORD PTR __$EHRec$[ebp+8], -1
  0003f	8b ce		 mov	 ecx, esi
  00041	ff d7		 call	 edi
  00043	e8 00 00 00 00	 call	 __EH_epilog3
  00048	c3		 ret	 0
_TEXT	ENDS
;	COMDAT text$x
text$x	SEGMENT
__unwindfunclet$??1AttackAttribute@@QAE@XZ$0:
  00000	8b 4d f0	 mov	 ecx, DWORD PTR _this$[ebp]
  00003	ff 25 00 00 00
	00		 jmp	 DWORD PTR __imp_??1ioHashString@@QAE@XZ
__unwindfunclet$??1AttackAttribute@@QAE@XZ$1:
  00009	8b 4d f0	 mov	 ecx, DWORD PTR _this$[ebp]
  0000c	83 c1 14	 add	 ecx, 20			; 00000014H
  0000f	ff 25 00 00 00
	00		 jmp	 DWORD PTR __imp_??1ioHashString@@QAE@XZ
__unwindfunclet$??1AttackAttribute@@QAE@XZ$2:
  00015	8b 4d f0	 mov	 ecx, DWORD PTR _this$[ebp]
  00018	83 c1 28	 add	 ecx, 40			; 00000028H
  0001b	e9 00 00 00 00	 jmp	 ??1?$vector@UWeaponInfo@@V?$allocator@UWeaponInfo@@@std@@@std@@QAE@XZ ; std::vector<WeaponInfo,std::allocator<WeaponInfo> >::~vector<WeaponInfo,std::allocator<WeaponInfo> >
__ehhandler$??1AttackAttribute@@QAE@XZ:
  00020	8b 54 24 08	 mov	 edx, DWORD PTR [esp+8]
  00024	8d 42 0c	 lea	 eax, DWORD PTR [edx+12]
  00027	8b 4a ec	 mov	 ecx, DWORD PTR [edx-20]
  0002a	33 c8		 xor	 ecx, eax
  0002c	e8 00 00 00 00	 call	 @__security_check_cookie@4
  00031	b8 00 00 00 00	 mov	 eax, OFFSET __ehfuncinfo$??1AttackAttribute@@QAE@XZ
  00036	e9 00 00 00 00	 jmp	 ___CxxFrameHandler3
text$x	ENDS
??1AttackAttribute@@QAE@XZ ENDP				; AttackAttribute::~AttackAttribute
PUBLIC	??_7ioPowerChargeJump@@6B@			; ioPowerChargeJump::`vftable'
PUBLIC	??0ioPowerChargeJump@@QAE@XZ			; ioPowerChargeJump::ioPowerChargeJump
PUBLIC	??_R4ioPowerChargeJump@@6B@			; ioPowerChargeJump::`RTTI Complete Object Locator'
PUBLIC	??_R0?AVioPowerChargeJump@@@8			; ioPowerChargeJump `RTTI Type Descriptor'
PUBLIC	??_R3ioPowerChargeJump@@8			; ioPowerChargeJump::`RTTI Class Hierarchy Descriptor'
PUBLIC	??_R2ioPowerChargeJump@@8			; ioPowerChargeJump::`RTTI Base Class Array'
PUBLIC	??_R1A@?0A@EA@ioPowerChargeJump@@8		; ioPowerChargeJump::`RTTI Base Class Descriptor at (0,-1,0,64)'
PUBLIC	??_R1A@?0A@EA@ioExtendJump@@8			; ioExtendJump::`RTTI Base Class Descriptor at (0,-1,0,64)'
PUBLIC	??_R0?AVioExtendJump@@@8			; ioExtendJump `RTTI Type Descriptor'
PUBLIC	??_R3ioExtendJump@@8				; ioExtendJump::`RTTI Class Hierarchy Descriptor'
PUBLIC	??_R2ioExtendJump@@8				; ioExtendJump::`RTTI Base Class Array'
PUBLIC	?Clone@ioPowerChargeJump@@UAEPAVioExtendJump@@XZ ; ioPowerChargeJump::Clone
EXTRN	??1ioExtendJump@@UAE@XZ:PROC			; ioExtendJump::~ioExtendJump
EXTRN	??0ioExtendJump@@QAE@XZ:PROC			; ioExtendJump::ioExtendJump
EXTRN	?SetJumpState@ioExtendJump@@UAEXXZ:PROC		; ioExtendJump::SetJumpState
EXTRN	?ProcessJumpReady@ioExtendJump@@UAEXPAVioBaseChar@@@Z:PROC ; ioExtendJump::ProcessJumpReady
EXTRN	?SetJumpAttack@ioExtendJump@@UAEXPAVioBaseChar@@HM@Z:PROC ; ioExtendJump::SetJumpAttack
EXTRN	?ProcessLanding@ioExtendJump@@UAEXPAVioBaseChar@@@Z:PROC ; ioExtendJump::ProcessLanding
EXTRN	?ProcessAimJump@ioExtendJump@@UAE_NPAVioBaseChar@@M@Z:PROC ; ioExtendJump::ProcessAimJump
EXTRN	?OnEndExtendJump@ioExtendJump@@UAEXPAVioBaseChar@@@Z:PROC ; ioExtendJump::OnEndExtendJump
EXTRN	?CheckComboJumpAttack@ioExtendJump@@UAEXPAVioBaseChar@@@Z:PROC ; ioExtendJump::CheckComboJumpAttack
EXTRN	?GetJumpAniDefenseWounded@ioExtendJump@@UAE?AVioHashString@@XZ:PROC ; ioExtendJump::GetJumpAniDefenseWounded
EXTRN	?GetJumpAniDefenseCriticalWounded@ioExtendJump@@UAE?AVioHashString@@XZ:PROC ; ioExtendJump::GetJumpAniDefenseCriticalWounded
EXTRN	?IsCanJumpingSkill@ioExtendJump@@UAE_NPAVioBaseChar@@@Z:PROC ; ioExtendJump::IsCanJumpingSkill
EXTRN	?GetExtraJumpSpeedRate@ioExtendJump@@UBEMABUD3DXVECTOR3@@ABUD3DXQUATERNION@@@Z:PROC ; ioExtendJump::GetExtraJumpSpeedRate
EXTRN	?IsCanJumpAttack@ioExtendJump@@UAE_NPAVioBaseChar@@@Z:PROC ; ioExtendJump::IsCanJumpAttack
EXTRN	?IsEnableLandAfterState@ioExtendJump@@UAE_NXZ:PROC ; ioExtendJump::IsEnableLandAfterState
EXTRN	?GetLandAfterAni@ioExtendJump@@UAEABVioHashString@@_N@Z:PROC ; ioExtendJump::GetLandAfterAni
EXTRN	?GetLandAfterAniRate@ioExtendJump@@UAEM_N@Z:PROC ; ioExtendJump::GetLandAfterAniRate
EXTRN	?SetNextJumpItemState@ioExtendJump@@UAEXPAVioBaseChar@@0_NW4ChangeNextItemType@@PAVioWeapon@@M@Z:PROC ; ioExtendJump::SetNextJumpItemState
EXTRN	?SetExtraJump@ioExtendJump@@UAEXPAVioBaseChar@@@Z:PROC ; ioExtendJump::SetExtraJump
EXTRN	?ProcessExtraJump@ioExtendJump@@UAEXPAVioBaseChar@@@Z:PROC ; ioExtendJump::ProcessExtraJump
EXTRN	?ClearAirJump@ioExtendJump@@MAEXXZ:PROC		; ioExtendJump::ClearAirJump
EXTRN	?SetAirJump@ioExtendJump@@MAEXPAVioBaseChar@@HM@Z:PROC ; ioExtendJump::SetAirJump
EXTRN	?CheckAirJump@ioExtendJump@@MAEXPAVioBaseChar@@@Z:PROC ; ioExtendJump::CheckAirJump
EXTRN	?CheckCanUseBuffAirDash@ioExtendJump@@UAE_NXZ:PROC ; ioExtendJump::CheckCanUseBuffAirDash
EXTRN	?CheckKeyReserveTime@ioExtendJump@@MAEMPAVioBaseChar@@HMK@Z:PROC ; ioExtendJump::CheckKeyReserveTime
EXTRN	?CheckKeyReserve@ioExtendJump@@MAEXPAVioBaseChar@@@Z:PROC ; ioExtendJump::CheckKeyReserve
EXTRN	?CheckUseExtendJump@ioExtendJump@@UAE_NPAVioBaseChar@@@Z:PROC ; ioExtendJump::CheckUseExtendJump
EXTRN	?IsBuffFlyChange@ioExtendJump@@UAE_NPAVioBaseChar@@@Z:PROC ; ioExtendJump::IsBuffFlyChange
EXTRN	?IsNoProcessMove@ioExtendJump@@UAE_NXZ:PROC	; ioExtendJump::IsNoProcessMove
EXTRN	??_EioPowerChargeJump@@UAEPAXI@Z:PROC		; ioPowerChargeJump::`vector deleting destructor'
;	COMDAT ??_R2ioExtendJump@@8
; File d:\lost saga for developer\youtube\tutorial\source\src\lsclient\iopowerchargejump.cpp
rdata$r	SEGMENT
??_R2ioExtendJump@@8 DD FLAT:??_R1A@?0A@EA@ioExtendJump@@8 ; ioExtendJump::`RTTI Base Class Array'
rdata$r	ENDS
;	COMDAT ??_R3ioExtendJump@@8
rdata$r	SEGMENT
??_R3ioExtendJump@@8 DD 00H				; ioExtendJump::`RTTI Class Hierarchy Descriptor'
	DD	00H
	DD	01H
	DD	FLAT:??_R2ioExtendJump@@8
rdata$r	ENDS
;	COMDAT ??_R0?AVioExtendJump@@@8
_DATA	SEGMENT
??_R0?AVioExtendJump@@@8 DD FLAT:??_7type_info@@6B@	; ioExtendJump `RTTI Type Descriptor'
	DD	00H
	DB	'.?AVioExtendJump@@', 00H
_DATA	ENDS
;	COMDAT ??_R1A@?0A@EA@ioExtendJump@@8
rdata$r	SEGMENT
??_R1A@?0A@EA@ioExtendJump@@8 DD FLAT:??_R0?AVioExtendJump@@@8 ; ioExtendJump::`RTTI Base Class Descriptor at (0,-1,0,64)'
	DD	00H
	DD	00H
	DD	0ffffffffH
	DD	00H
	DD	040H
	DD	FLAT:??_R3ioExtendJump@@8
rdata$r	ENDS
;	COMDAT ??_R1A@?0A@EA@ioPowerChargeJump@@8
rdata$r	SEGMENT
??_R1A@?0A@EA@ioPowerChargeJump@@8 DD FLAT:??_R0?AVioPowerChargeJump@@@8 ; ioPowerChargeJump::`RTTI Base Class Descriptor at (0,-1,0,64)'
	DD	01H
	DD	00H
	DD	0ffffffffH
	DD	00H
	DD	040H
	DD	FLAT:??_R3ioPowerChargeJump@@8
rdata$r	ENDS
;	COMDAT ??_R2ioPowerChargeJump@@8
rdata$r	SEGMENT
??_R2ioPowerChargeJump@@8 DD FLAT:??_R1A@?0A@EA@ioPowerChargeJump@@8 ; ioPowerChargeJump::`RTTI Base Class Array'
	DD	FLAT:??_R1A@?0A@EA@ioExtendJump@@8
rdata$r	ENDS
;	COMDAT ??_R3ioPowerChargeJump@@8
rdata$r	SEGMENT
??_R3ioPowerChargeJump@@8 DD 00H			; ioPowerChargeJump::`RTTI Class Hierarchy Descriptor'
	DD	00H
	DD	02H
	DD	FLAT:??_R2ioPowerChargeJump@@8
rdata$r	ENDS
;	COMDAT ??_R0?AVioPowerChargeJump@@@8
_DATA	SEGMENT
??_R0?AVioPowerChargeJump@@@8 DD FLAT:??_7type_info@@6B@ ; ioPowerChargeJump `RTTI Type Descriptor'
	DD	00H
	DB	'.?AVioPowerChargeJump@@', 00H
_DATA	ENDS
;	COMDAT ??_R4ioPowerChargeJump@@6B@
rdata$r	SEGMENT
??_R4ioPowerChargeJump@@6B@ DD 00H			; ioPowerChargeJump::`RTTI Complete Object Locator'
	DD	00H
	DD	00H
	DD	FLAT:??_R0?AVioPowerChargeJump@@@8
	DD	FLAT:??_R3ioPowerChargeJump@@8
rdata$r	ENDS
;	COMDAT ??_7ioPowerChargeJump@@6B@
CONST	SEGMENT
??_7ioPowerChargeJump@@6B@ DD FLAT:??_R4ioPowerChargeJump@@6B@ ; ioPowerChargeJump::`vftable'
	DD	FLAT:?LoadProperty@ioPowerChargeJump@@UAEXAAVioINILoader@@@Z
	DD	FLAT:?Clone@ioPowerChargeJump@@UAEPAVioExtendJump@@XZ
	DD	FLAT:?GetType@ioPowerChargeJump@@UBE?AW4JumpType@@XZ
	DD	FLAT:?SetJumpState@ioExtendJump@@UAEXXZ
	DD	FLAT:?ProcessJumpReady@ioExtendJump@@UAEXPAVioBaseChar@@@Z
	DD	FLAT:?SetJumpping@ioPowerChargeJump@@UAEXPAVioBaseChar@@_N@Z
	DD	FLAT:?SetJumpAttack@ioExtendJump@@UAEXPAVioBaseChar@@HM@Z
	DD	FLAT:?ProcessJumpping@ioPowerChargeJump@@UAEXPAVioBaseChar@@MM@Z
	DD	FLAT:?ProcessLanding@ioExtendJump@@UAEXPAVioBaseChar@@@Z
	DD	FLAT:?ProcessJumpAttack@ioPowerChargeJump@@UAEXPAVioBaseChar@@M@Z
	DD	FLAT:?ProcessAimJump@ioExtendJump@@UAE_NPAVioBaseChar@@M@Z
	DD	FLAT:?ApplyJump@ioPowerChargeJump@@UAEXPAVioBaseChar@@AAVSP2Packet@@@Z
	DD	FLAT:?OnEndExtendJump@ioExtendJump@@UAEXPAVioBaseChar@@@Z
	DD	FLAT:?CheckComboJumpAttack@ioExtendJump@@UAEXPAVioBaseChar@@@Z
	DD	FLAT:?GetChargingTime@ioPowerChargeJump@@UAEKPAVioBaseChar@@@Z
	DD	FLAT:?GetJumpAniDefenseWounded@ioExtendJump@@UAE?AVioHashString@@XZ
	DD	FLAT:?GetJumpAniDefenseCriticalWounded@ioExtendJump@@UAE?AVioHashString@@XZ
	DD	FLAT:?IsCanJumpingSkill@ioExtendJump@@UAE_NPAVioBaseChar@@@Z
	DD	FLAT:?GetExtraJumpSpeedRate@ioExtendJump@@UBEMABUD3DXVECTOR3@@ABUD3DXQUATERNION@@@Z
	DD	FLAT:?SetLandingState@ioPowerChargeJump@@UAEXPAVioBaseChar@@@Z
	DD	FLAT:?IsCanJumpAttack@ioExtendJump@@UAE_NPAVioBaseChar@@@Z
	DD	FLAT:?IsEnableLandAfterState@ioExtendJump@@UAE_NXZ
	DD	FLAT:?IsEnableJumpLandEndDash@ioPowerChargeJump@@UAE_NXZ
	DD	FLAT:?IsEnableJumpDash@ioPowerChargeJump@@UAE_NPAVioBaseChar@@@Z
	DD	FLAT:?GetLandAfterAni@ioExtendJump@@UAEABVioHashString@@_N@Z
	DD	FLAT:?GetLandAfterAniRate@ioExtendJump@@UAEM_N@Z
	DD	FLAT:?SetNextJumpItemState@ioExtendJump@@UAEXPAVioBaseChar@@0_NW4ChangeNextItemType@@PAVioWeapon@@M@Z
	DD	FLAT:?SetExtraJump@ioExtendJump@@UAEXPAVioBaseChar@@@Z
	DD	FLAT:?ProcessExtraJump@ioExtendJump@@UAEXPAVioBaseChar@@@Z
	DD	FLAT:?ClearAirJump@ioExtendJump@@MAEXXZ
	DD	FLAT:?SetAirJump@ioExtendJump@@MAEXPAVioBaseChar@@HM@Z
	DD	FLAT:?CheckAirJump@ioExtendJump@@MAEXPAVioBaseChar@@@Z
	DD	FLAT:?CheckCanUseBuffAirDash@ioExtendJump@@UAE_NXZ
	DD	FLAT:?CheckKeyReserveTime@ioExtendJump@@MAEMPAVioBaseChar@@HMK@Z
	DD	FLAT:?CheckKeyReserve@ioExtendJump@@MAEXPAVioBaseChar@@@Z
	DD	FLAT:?CheckUseExtendJump@ioExtendJump@@UAE_NPAVioBaseChar@@@Z
	DD	FLAT:?IsBuffFlyChange@ioExtendJump@@UAE_NPAVioBaseChar@@@Z
	DD	FLAT:?IsNoProcessMove@ioExtendJump@@UAE_NXZ
	DD	FLAT:??_EioPowerChargeJump@@UAEPAXI@Z
CONST	ENDS
;	COMDAT xdata$x
xdata$x	SEGMENT
__ehfuncinfo$??0ioPowerChargeJump@@QAE@XZ DD 019930522H
	DD	08H
	DD	FLAT:__unwindtable$??0ioPowerChargeJump@@QAE@XZ
	DD	2 DUP(00H)
	DD	2 DUP(00H)
	DD	00H
	DD	01H
__unwindtable$??0ioPowerChargeJump@@QAE@XZ DD 0ffffffffH
	DD	FLAT:__unwindfunclet$??0ioPowerChargeJump@@QAE@XZ$0
	DD	00H
	DD	FLAT:__unwindfunclet$??0ioPowerChargeJump@@QAE@XZ$1
	DD	01H
	DD	FLAT:__unwindfunclet$??0ioPowerChargeJump@@QAE@XZ$2
	DD	02H
	DD	FLAT:__unwindfunclet$??0ioPowerChargeJump@@QAE@XZ$3
	DD	03H
	DD	FLAT:__unwindfunclet$??0ioPowerChargeJump@@QAE@XZ$4
	DD	04H
	DD	FLAT:__unwindfunclet$??0ioPowerChargeJump@@QAE@XZ$5
	DD	05H
	DD	FLAT:__unwindfunclet$??0ioPowerChargeJump@@QAE@XZ$6
	DD	06H
	DD	FLAT:__unwindfunclet$??0ioPowerChargeJump@@QAE@XZ$7
; Function compile flags: /Ogsp
xdata$x	ENDS
;	COMDAT ??0ioPowerChargeJump@@QAE@XZ
_TEXT	SEGMENT
_this$ = -16						; size = 4
__$EHRec$ = -12						; size = 12
??0ioPowerChargeJump@@QAE@XZ PROC			; ioPowerChargeJump::ioPowerChargeJump, COMDAT
; _this$ = ecx

; 9    : {

  00000	6a 04		 push	 4
  00002	b8 00 00 00 00	 mov	 eax, __ehhandler$??0ioPowerChargeJump@@QAE@XZ
  00007	e8 00 00 00 00	 call	 __EH_prolog3
  0000c	8b f1		 mov	 esi, ecx
  0000e	89 75 f0	 mov	 DWORD PTR _this$[ebp], esi
  00011	e8 00 00 00 00	 call	 ??0ioExtendJump@@QAE@XZ	; ioExtendJump::ioExtendJump
  00016	33 db		 xor	 ebx, ebx
  00018	8d 8e 28 01 00
	00		 lea	 ecx, DWORD PTR [esi+296]
  0001e	89 5d fc	 mov	 DWORD PTR __$EHRec$[ebp+8], ebx
  00021	c7 06 00 00 00
	00		 mov	 DWORD PTR [esi], OFFSET ??_7ioPowerChargeJump@@6B@
  00027	e8 00 00 00 00	 call	 ??0AttackAttribute@@QAE@XZ ; AttackAttribute::AttackAttribute
  0002c	8d 8e 78 01 00
	00		 lea	 ecx, DWORD PTR [esi+376]
  00032	c6 45 fc 01	 mov	 BYTE PTR __$EHRec$[ebp+8], 1
  00036	e8 00 00 00 00	 call	 ??0AttackAttribute@@QAE@XZ ; AttackAttribute::AttackAttribute
  0003b	8d 8e c8 01 00
	00		 lea	 ecx, DWORD PTR [esi+456]
  00041	c6 45 fc 02	 mov	 BYTE PTR __$EHRec$[ebp+8], 2
  00045	e8 00 00 00 00	 call	 ??0AttackAttribute@@QAE@XZ ; AttackAttribute::AttackAttribute
  0004a	8b 3d 00 00 00
	00		 mov	 edi, DWORD PTR __imp_??0ioHashString@@QAE@XZ
  00050	8d 8e 24 02 00
	00		 lea	 ecx, DWORD PTR [esi+548]
  00056	c6 45 fc 03	 mov	 BYTE PTR __$EHRec$[ebp+8], 3
  0005a	ff d7		 call	 edi
  0005c	8d 8e 34 02 00
	00		 lea	 ecx, DWORD PTR [esi+564]
  00062	c6 45 fc 04	 mov	 BYTE PTR __$EHRec$[ebp+8], 4
  00066	ff d7		 call	 edi
  00068	8d 8e 44 02 00
	00		 lea	 ecx, DWORD PTR [esi+580]
  0006e	c6 45 fc 05	 mov	 BYTE PTR __$EHRec$[ebp+8], 5
  00072	e8 00 00 00 00	 call	 ??0?$CEncrypt@M@@QAE@XZ	; CEncrypt<float>::CEncrypt<float>
  00077	8d 8e 88 02 00
	00		 lea	 ecx, DWORD PTR [esi+648]
  0007d	c6 45 fc 06	 mov	 BYTE PTR __$EHRec$[ebp+8], 6
  00081	e8 00 00 00 00	 call	 ??0AttackAttribute@@QAE@XZ ; AttackAttribute::AttackAttribute
  00086	8d 8e e4 02 00
	00		 lea	 ecx, DWORD PTR [esi+740]
  0008c	c6 45 fc 07	 mov	 BYTE PTR __$EHRec$[ebp+8], 7
  00090	ff d7		 call	 edi

; 10   : 	m_JumpState = PJS_NONE;

  00092	89 9e 24 01 00
	00		 mov	 DWORD PTR [esi+292], ebx

; 11   : 	m_dwChargingStartTime = 0;

  00098	89 9e 1c 02 00
	00		 mov	 DWORD PTR [esi+540], ebx

; 12   : 	m_bUseExtendJumpAttack = false;

  0009e	88 9e 19 02 00
	00		 mov	 BYTE PTR [esi+537], bl

; 13   : 
; 14   : 	m_dwNormalAttackEndTime = 0;

  000a4	89 9e 74 02 00
	00		 mov	 DWORD PTR [esi+628], ebx

; 15   : 
; 16   : 	m_dwDashStartTime = 0;

  000aa	89 9e dc 02 00
	00		 mov	 DWORD PTR [esi+732], ebx

; 17   : 	m_dwDashEndTime = 0;

  000b0	89 9e e0 02 00
	00		 mov	 DWORD PTR [esi+736], ebx

; 18   : }

  000b6	8b c6		 mov	 eax, esi
  000b8	e8 00 00 00 00	 call	 __EH_epilog3
  000bd	c3		 ret	 0
_TEXT	ENDS
;	COMDAT text$x
text$x	SEGMENT
__unwindfunclet$??0ioPowerChargeJump@@QAE@XZ$0:
  00000	8b 4d f0	 mov	 ecx, DWORD PTR _this$[ebp]
  00003	e9 00 00 00 00	 jmp	 ??1ioExtendJump@@UAE@XZ	; ioExtendJump::~ioExtendJump
__unwindfunclet$??0ioPowerChargeJump@@QAE@XZ$1:
  00008	8b 4d f0	 mov	 ecx, DWORD PTR _this$[ebp]
  0000b	81 c1 28 01 00
	00		 add	 ecx, 296		; 00000128H
  00011	e9 00 00 00 00	 jmp	 ??1AttackAttribute@@QAE@XZ
__unwindfunclet$??0ioPowerChargeJump@@QAE@XZ$2:
  00016	8b 4d f0	 mov	 ecx, DWORD PTR _this$[ebp]
  00019	81 c1 78 01 00
	00		 add	 ecx, 376		; 00000178H
  0001f	e9 00 00 00 00	 jmp	 ??1AttackAttribute@@QAE@XZ
__unwindfunclet$??0ioPowerChargeJump@@QAE@XZ$3:
  00024	8b 4d f0	 mov	 ecx, DWORD PTR _this$[ebp]
  00027	81 c1 c8 01 00
	00		 add	 ecx, 456		; 000001c8H
  0002d	e9 00 00 00 00	 jmp	 ??1AttackAttribute@@QAE@XZ
__unwindfunclet$??0ioPowerChargeJump@@QAE@XZ$4:
  00032	8b 4d f0	 mov	 ecx, DWORD PTR _this$[ebp]
  00035	81 c1 24 02 00
	00		 add	 ecx, 548		; 00000224H
  0003b	ff 25 00 00 00
	00		 jmp	 DWORD PTR __imp_??1ioHashString@@QAE@XZ
__unwindfunclet$??0ioPowerChargeJump@@QAE@XZ$5:
  00041	8b 4d f0	 mov	 ecx, DWORD PTR _this$[ebp]
  00044	81 c1 34 02 00
	00		 add	 ecx, 564		; 00000234H
  0004a	ff 25 00 00 00
	00		 jmp	 DWORD PTR __imp_??1ioHashString@@QAE@XZ
__unwindfunclet$??0ioPowerChargeJump@@QAE@XZ$6:
  00050	8b 4d f0	 mov	 ecx, DWORD PTR _this$[ebp]
  00053	81 c1 44 02 00
	00		 add	 ecx, 580		; 00000244H
  00059	e9 00 00 00 00	 jmp	 ??1?$CEncrypt@M@@UAE@XZ	; CEncrypt<float>::~CEncrypt<float>
__unwindfunclet$??0ioPowerChargeJump@@QAE@XZ$7:
  0005e	8b 4d f0	 mov	 ecx, DWORD PTR _this$[ebp]
  00061	81 c1 88 02 00
	00		 add	 ecx, 648		; 00000288H
  00067	e9 00 00 00 00	 jmp	 ??1AttackAttribute@@QAE@XZ
__ehhandler$??0ioPowerChargeJump@@QAE@XZ:
  0006c	8b 54 24 08	 mov	 edx, DWORD PTR [esp+8]
  00070	8d 42 0c	 lea	 eax, DWORD PTR [edx+12]
  00073	8b 4a ec	 mov	 ecx, DWORD PTR [edx-20]
  00076	33 c8		 xor	 ecx, eax
  00078	e8 00 00 00 00	 call	 @__security_check_cookie@4
  0007d	b8 00 00 00 00	 mov	 eax, OFFSET __ehfuncinfo$??0ioPowerChargeJump@@QAE@XZ
  00082	e9 00 00 00 00	 jmp	 ___CxxFrameHandler3
text$x	ENDS
??0ioPowerChargeJump@@QAE@XZ ENDP			; ioPowerChargeJump::ioPowerChargeJump
PUBLIC	??0ioPowerChargeJump@@QAE@ABV0@@Z		; ioPowerChargeJump::ioPowerChargeJump
EXTRN	??0ioExtendJump@@QAE@ABV0@@Z:PROC		; ioExtendJump::ioExtendJump
;	COMDAT xdata$x
xdata$x	SEGMENT
__ehfuncinfo$??0ioPowerChargeJump@@QAE@ABV0@@Z DD 019930522H
	DD	08H
	DD	FLAT:__unwindtable$??0ioPowerChargeJump@@QAE@ABV0@@Z
	DD	2 DUP(00H)
	DD	2 DUP(00H)
	DD	00H
	DD	01H
__unwindtable$??0ioPowerChargeJump@@QAE@ABV0@@Z DD 0ffffffffH
	DD	FLAT:__unwindfunclet$??0ioPowerChargeJump@@QAE@ABV0@@Z$0
	DD	00H
	DD	FLAT:__unwindfunclet$??0ioPowerChargeJump@@QAE@ABV0@@Z$1
	DD	01H
	DD	FLAT:__unwindfunclet$??0ioPowerChargeJump@@QAE@ABV0@@Z$2
	DD	02H
	DD	FLAT:__unwindfunclet$??0ioPowerChargeJump@@QAE@ABV0@@Z$3
	DD	03H
	DD	FLAT:__unwindfunclet$??0ioPowerChargeJump@@QAE@ABV0@@Z$4
	DD	04H
	DD	FLAT:__unwindfunclet$??0ioPowerChargeJump@@QAE@ABV0@@Z$5
	DD	05H
	DD	FLAT:__unwindfunclet$??0ioPowerChargeJump@@QAE@ABV0@@Z$6
	DD	06H
	DD	FLAT:__unwindfunclet$??0ioPowerChargeJump@@QAE@ABV0@@Z$7
; Function compile flags: /Ogsp
xdata$x	ENDS
;	COMDAT ??0ioPowerChargeJump@@QAE@ABV0@@Z
_TEXT	SEGMENT
_this$ = -16						; size = 4
__$EHRec$ = -12						; size = 12
_rhs$ = 8						; size = 4
??0ioPowerChargeJump@@QAE@ABV0@@Z PROC			; ioPowerChargeJump::ioPowerChargeJump, COMDAT
; _this$ = ecx

; 38   : {

  00000	6a 04		 push	 4
  00002	b8 00 00 00 00	 mov	 eax, __ehhandler$??0ioPowerChargeJump@@QAE@ABV0@@Z
  00007	e8 00 00 00 00	 call	 __EH_prolog3
  0000c	8b f1		 mov	 esi, ecx
  0000e	89 75 f0	 mov	 DWORD PTR _this$[ebp], esi
  00011	8b 7d 08	 mov	 edi, DWORD PTR _rhs$[ebp]
  00014	57		 push	 edi
  00015	e8 00 00 00 00	 call	 ??0ioExtendJump@@QAE@ABV0@@Z ; ioExtendJump::ioExtendJump
  0001a	83 65 fc 00	 and	 DWORD PTR __$EHRec$[ebp+8], 0
  0001e	8d 87 28 01 00
	00		 lea	 eax, DWORD PTR [edi+296]
  00024	50		 push	 eax
  00025	8d 8e 28 01 00
	00		 lea	 ecx, DWORD PTR [esi+296]
  0002b	c7 06 00 00 00
	00		 mov	 DWORD PTR [esi], OFFSET ??_7ioPowerChargeJump@@6B@
  00031	e8 00 00 00 00	 call	 ??0AttackAttribute@@QAE@ABU0@@Z
  00036	8d 87 78 01 00
	00		 lea	 eax, DWORD PTR [edi+376]
  0003c	50		 push	 eax
  0003d	8d 8e 78 01 00
	00		 lea	 ecx, DWORD PTR [esi+376]
  00043	c6 45 fc 01	 mov	 BYTE PTR __$EHRec$[ebp+8], 1
  00047	e8 00 00 00 00	 call	 ??0AttackAttribute@@QAE@ABU0@@Z
  0004c	8d 8e c8 01 00
	00		 lea	 ecx, DWORD PTR [esi+456]
  00052	c6 45 fc 02	 mov	 BYTE PTR __$EHRec$[ebp+8], 2
  00056	e8 00 00 00 00	 call	 ??0AttackAttribute@@QAE@XZ ; AttackAttribute::AttackAttribute
  0005b	8a 87 18 02 00
	00		 mov	 al, BYTE PTR [edi+536]
  00061	8b 1d 00 00 00
	00		 mov	 ebx, DWORD PTR __imp_??0ioHashString@@QAE@ABV0@@Z
  00067	88 86 18 02 00
	00		 mov	 BYTE PTR [esi+536], al
  0006d	8b 87 20 02 00
	00		 mov	 eax, DWORD PTR [edi+544]
  00073	89 86 20 02 00
	00		 mov	 DWORD PTR [esi+544], eax
  00079	8d 87 24 02 00
	00		 lea	 eax, DWORD PTR [edi+548]
  0007f	50		 push	 eax
  00080	8d 8e 24 02 00
	00		 lea	 ecx, DWORD PTR [esi+548]
  00086	c6 45 fc 03	 mov	 BYTE PTR __$EHRec$[ebp+8], 3
  0008a	ff d3		 call	 ebx
  0008c	8d 87 34 02 00
	00		 lea	 eax, DWORD PTR [edi+564]
  00092	50		 push	 eax
  00093	8d 8e 34 02 00
	00		 lea	 ecx, DWORD PTR [esi+564]
  00099	c6 45 fc 04	 mov	 BYTE PTR __$EHRec$[ebp+8], 4
  0009d	ff d3		 call	 ebx
  0009f	8d 87 44 02 00
	00		 lea	 eax, DWORD PTR [edi+580]
  000a5	50		 push	 eax
  000a6	8d 8e 44 02 00
	00		 lea	 ecx, DWORD PTR [esi+580]
  000ac	c6 45 fc 05	 mov	 BYTE PTR __$EHRec$[ebp+8], 5
  000b0	e8 00 00 00 00	 call	 ??0?$CEncrypt@M@@QAE@ABV0@@Z ; CEncrypt<float>::CEncrypt<float>
  000b5	d9 87 78 02 00
	00		 fld	 DWORD PTR [edi+632]
  000bb	d9 9e 78 02 00
	00		 fstp	 DWORD PTR [esi+632]
  000c1	8b 87 7c 02 00
	00		 mov	 eax, DWORD PTR [edi+636]
  000c7	89 86 7c 02 00
	00		 mov	 DWORD PTR [esi+636], eax
  000cd	8a 87 80 02 00
	00		 mov	 al, BYTE PTR [edi+640]
  000d3	88 86 80 02 00
	00		 mov	 BYTE PTR [esi+640], al
  000d9	8b 87 84 02 00
	00		 mov	 eax, DWORD PTR [edi+644]
  000df	89 86 84 02 00
	00		 mov	 DWORD PTR [esi+644], eax
  000e5	8d 87 88 02 00
	00		 lea	 eax, DWORD PTR [edi+648]
  000eb	50		 push	 eax
  000ec	8d 8e 88 02 00
	00		 lea	 ecx, DWORD PTR [esi+648]
  000f2	c6 45 fc 06	 mov	 BYTE PTR __$EHRec$[ebp+8], 6
  000f6	e8 00 00 00 00	 call	 ??0AttackAttribute@@QAE@ABU0@@Z
  000fb	d9 87 d8 02 00
	00		 fld	 DWORD PTR [edi+728]
  00101	8d 87 e4 02 00
	00		 lea	 eax, DWORD PTR [edi+740]
  00107	d9 9e d8 02 00
	00		 fstp	 DWORD PTR [esi+728]
  0010d	50		 push	 eax
  0010e	8d 8e e4 02 00
	00		 lea	 ecx, DWORD PTR [esi+740]
  00114	c6 45 fc 07	 mov	 BYTE PTR __$EHRec$[ebp+8], 7
  00118	ff d3		 call	 ebx
  0011a	d9 87 f4 02 00
	00		 fld	 DWORD PTR [edi+756]
  00120	d9 9e f4 02 00
	00		 fstp	 DWORD PTR [esi+756]
  00126	8a 87 f8 02 00
	00		 mov	 al, BYTE PTR [edi+760]
  0012c	88 86 f8 02 00
	00		 mov	 BYTE PTR [esi+760], al

; 39   : 	m_JumpState = PJS_NONE;

  00132	33 c0		 xor	 eax, eax
  00134	89 86 24 01 00
	00		 mov	 DWORD PTR [esi+292], eax

; 40   : 	m_dwChargingStartTime = 0;

  0013a	89 86 1c 02 00
	00		 mov	 DWORD PTR [esi+540], eax

; 41   : 	m_bUseExtendJumpAttack = false;

  00140	88 86 19 02 00
	00		 mov	 BYTE PTR [esi+537], al

; 42   : 
; 43   : 	m_dwNormalAttackEndTime = 0;

  00146	89 86 74 02 00
	00		 mov	 DWORD PTR [esi+628], eax

; 44   : 
; 45   : 	m_dwDashStartTime = 0;

  0014c	89 86 dc 02 00
	00		 mov	 DWORD PTR [esi+732], eax

; 46   : 	m_dwDashEndTime = 0;

  00152	89 86 e0 02 00
	00		 mov	 DWORD PTR [esi+736], eax

; 47   : }

  00158	8b c6		 mov	 eax, esi
  0015a	e8 00 00 00 00	 call	 __EH_epilog3
  0015f	c2 04 00	 ret	 4
_TEXT	ENDS
;	COMDAT text$x
text$x	SEGMENT
__unwindfunclet$??0ioPowerChargeJump@@QAE@ABV0@@Z$0:
  00000	8b 4d f0	 mov	 ecx, DWORD PTR _this$[ebp]
  00003	e9 00 00 00 00	 jmp	 ??1ioExtendJump@@UAE@XZ	; ioExtendJump::~ioExtendJump
__unwindfunclet$??0ioPowerChargeJump@@QAE@ABV0@@Z$1:
  00008	8b 4d f0	 mov	 ecx, DWORD PTR _this$[ebp]
  0000b	81 c1 28 01 00
	00		 add	 ecx, 296		; 00000128H
  00011	e9 00 00 00 00	 jmp	 ??1AttackAttribute@@QAE@XZ
__unwindfunclet$??0ioPowerChargeJump@@QAE@ABV0@@Z$2:
  00016	8b 4d f0	 mov	 ecx, DWORD PTR _this$[ebp]
  00019	81 c1 78 01 00
	00		 add	 ecx, 376		; 00000178H
  0001f	e9 00 00 00 00	 jmp	 ??1AttackAttribute@@QAE@XZ
__unwindfunclet$??0ioPowerChargeJump@@QAE@ABV0@@Z$3:
  00024	8b 4d f0	 mov	 ecx, DWORD PTR _this$[ebp]
  00027	81 c1 c8 01 00
	00		 add	 ecx, 456		; 000001c8H
  0002d	e9 00 00 00 00	 jmp	 ??1AttackAttribute@@QAE@XZ
__unwindfunclet$??0ioPowerChargeJump@@QAE@ABV0@@Z$4:
  00032	8b 4d f0	 mov	 ecx, DWORD PTR _this$[ebp]
  00035	81 c1 24 02 00
	00		 add	 ecx, 548		; 00000224H
  0003b	ff 25 00 00 00
	00		 jmp	 DWORD PTR __imp_??1ioHashString@@QAE@XZ
__unwindfunclet$??0ioPowerChargeJump@@QAE@ABV0@@Z$5:
  00041	8b 4d f0	 mov	 ecx, DWORD PTR _this$[ebp]
  00044	81 c1 34 02 00
	00		 add	 ecx, 564		; 00000234H
  0004a	ff 25 00 00 00
	00		 jmp	 DWORD PTR __imp_??1ioHashString@@QAE@XZ
__unwindfunclet$??0ioPowerChargeJump@@QAE@ABV0@@Z$6:
  00050	8b 4d f0	 mov	 ecx, DWORD PTR _this$[ebp]
  00053	81 c1 44 02 00
	00		 add	 ecx, 580		; 00000244H
  00059	e9 00 00 00 00	 jmp	 ??1?$CEncrypt@M@@UAE@XZ	; CEncrypt<float>::~CEncrypt<float>
__unwindfunclet$??0ioPowerChargeJump@@QAE@ABV0@@Z$7:
  0005e	8b 4d f0	 mov	 ecx, DWORD PTR _this$[ebp]
  00061	81 c1 88 02 00
	00		 add	 ecx, 648		; 00000288H
  00067	e9 00 00 00 00	 jmp	 ??1AttackAttribute@@QAE@XZ
__ehhandler$??0ioPowerChargeJump@@QAE@ABV0@@Z:
  0006c	8b 54 24 08	 mov	 edx, DWORD PTR [esp+8]
  00070	8d 42 0c	 lea	 eax, DWORD PTR [edx+12]
  00073	8b 4a ec	 mov	 ecx, DWORD PTR [edx-20]
  00076	33 c8		 xor	 ecx, eax
  00078	e8 00 00 00 00	 call	 @__security_check_cookie@4
  0007d	b8 00 00 00 00	 mov	 eax, OFFSET __ehfuncinfo$??0ioPowerChargeJump@@QAE@ABV0@@Z
  00082	e9 00 00 00 00	 jmp	 ___CxxFrameHandler3
text$x	ENDS
??0ioPowerChargeJump@@QAE@ABV0@@Z ENDP			; ioPowerChargeJump::ioPowerChargeJump
;	COMDAT xdata$x
xdata$x	SEGMENT
__unwindtable$?Clone@ioPowerChargeJump@@UAEPAVioExtendJump@@XZ DD 0ffffffffH
	DD	FLAT:__unwindfunclet$?Clone@ioPowerChargeJump@@UAEPAVioExtendJump@@XZ$0
__ehfuncinfo$?Clone@ioPowerChargeJump@@UAEPAVioExtendJump@@XZ DD 019930522H
	DD	01H
	DD	FLAT:__unwindtable$?Clone@ioPowerChargeJump@@UAEPAVioExtendJump@@XZ
	DD	2 DUP(00H)
	DD	2 DUP(00H)
	DD	00H
	DD	01H
; Function compile flags: /Ogsp
xdata$x	ENDS
;	COMDAT ?Clone@ioPowerChargeJump@@UAEPAVioExtendJump@@XZ
_TEXT	SEGMENT
$T532363 = -16						; size = 4
__$EHRec$ = -12						; size = 12
?Clone@ioPowerChargeJump@@UAEPAVioExtendJump@@XZ PROC	; ioPowerChargeJump::Clone, COMDAT
; _this$ = ecx

; 50   : {

  00000	6a 04		 push	 4
  00002	b8 00 00 00 00	 mov	 eax, __ehhandler$?Clone@ioPowerChargeJump@@UAEPAVioExtendJump@@XZ
  00007	e8 00 00 00 00	 call	 __EH_prolog3
  0000c	8b f1		 mov	 esi, ecx

; 51   : 	return new ioPowerChargeJump( *this );

  0000e	68 fc 02 00 00	 push	 764			; 000002fcH
  00013	e8 00 00 00 00	 call	 ??2@YAPAXI@Z		; operator new
  00018	59		 pop	 ecx
  00019	8b c8		 mov	 ecx, eax
  0001b	89 4d f0	 mov	 DWORD PTR $T532363[ebp], ecx
  0001e	33 c0		 xor	 eax, eax
  00020	89 45 fc	 mov	 DWORD PTR __$EHRec$[ebp+8], eax
  00023	3b c8		 cmp	 ecx, eax
  00025	74 06		 je	 SHORT $LN3@Clone
  00027	56		 push	 esi
  00028	e8 00 00 00 00	 call	 ??0ioPowerChargeJump@@QAE@ABV0@@Z ; ioPowerChargeJump::ioPowerChargeJump
$LN3@Clone:

; 52   : }

  0002d	e8 00 00 00 00	 call	 __EH_epilog3
  00032	c3		 ret	 0
_TEXT	ENDS
;	COMDAT text$x
text$x	SEGMENT
__unwindfunclet$?Clone@ioPowerChargeJump@@UAEPAVioExtendJump@@XZ$0:
  00000	ff 75 f0	 push	 DWORD PTR $T532363[ebp]
  00003	e8 00 00 00 00	 call	 ??3@YAXPAX@Z		; operator delete
  00008	59		 pop	 ecx
  00009	c3		 ret	 0
__ehhandler$?Clone@ioPowerChargeJump@@UAEPAVioExtendJump@@XZ:
  0000a	8b 54 24 08	 mov	 edx, DWORD PTR [esp+8]
  0000e	8d 42 0c	 lea	 eax, DWORD PTR [edx+12]
  00011	8b 4a ec	 mov	 ecx, DWORD PTR [edx-20]
  00014	33 c8		 xor	 ecx, eax
  00016	e8 00 00 00 00	 call	 @__security_check_cookie@4
  0001b	b8 00 00 00 00	 mov	 eax, OFFSET __ehfuncinfo$?Clone@ioPowerChargeJump@@UAEPAVioExtendJump@@XZ
  00020	e9 00 00 00 00	 jmp	 ___CxxFrameHandler3
text$x	ENDS
?Clone@ioPowerChargeJump@@UAEPAVioExtendJump@@XZ ENDP	; ioPowerChargeJump::Clone
PUBLIC	??1ioPowerChargeJump@@UAE@XZ			; ioPowerChargeJump::~ioPowerChargeJump
;	COMDAT xdata$x
; File d:\lost saga for developer\youtube\tutorial\source\src\lsclient\encryptvalue.h
xdata$x	SEGMENT
__ehfuncinfo$??1ioPowerChargeJump@@UAE@XZ DD 019930522H
	DD	08H
	DD	FLAT:__unwindtable$??1ioPowerChargeJump@@UAE@XZ
	DD	2 DUP(00H)
	DD	2 DUP(00H)
	DD	00H
	DD	01H
__unwindtable$??1ioPowerChargeJump@@UAE@XZ DD 0ffffffffH
	DD	FLAT:__unwindfunclet$??1ioPowerChargeJump@@UAE@XZ$0
	DD	00H
	DD	FLAT:__unwindfunclet$??1ioPowerChargeJump@@UAE@XZ$1
	DD	01H
	DD	FLAT:__unwindfunclet$??1ioPowerChargeJump@@UAE@XZ$2
	DD	02H
	DD	FLAT:__unwindfunclet$??1ioPowerChargeJump@@UAE@XZ$3
	DD	03H
	DD	FLAT:__unwindfunclet$??1ioPowerChargeJump@@UAE@XZ$4
	DD	04H
	DD	FLAT:__unwindfunclet$??1ioPowerChargeJump@@UAE@XZ$5
	DD	05H
	DD	FLAT:__unwindfunclet$??1ioPowerChargeJump@@UAE@XZ$6
	DD	06H
	DD	FLAT:__unwindfunclet$??1ioPowerChargeJump@@UAE@XZ$7
; Function compile flags: /Ogsp
; File d:\lost saga for developer\youtube\tutorial\source\src\lsclient\iopowerchargejump.cpp
xdata$x	ENDS
;	COMDAT ??1ioPowerChargeJump@@UAE@XZ
_TEXT	SEGMENT
_this$ = -16						; size = 4
__$EHRec$ = -12						; size = 12
??1ioPowerChargeJump@@UAE@XZ PROC			; ioPowerChargeJump::~ioPowerChargeJump, COMDAT
; _this$ = ecx

; 55   : {

  00000	6a 04		 push	 4
  00002	b8 00 00 00 00	 mov	 eax, __ehhandler$??1ioPowerChargeJump@@UAE@XZ
  00007	e8 00 00 00 00	 call	 __EH_prolog3
  0000c	8b f1		 mov	 esi, ecx
  0000e	89 75 f0	 mov	 DWORD PTR _this$[ebp], esi
  00011	c7 06 00 00 00
	00		 mov	 DWORD PTR [esi], OFFSET ??_7ioPowerChargeJump@@6B@

; 56   : }

  00017	8b 3d 00 00 00
	00		 mov	 edi, DWORD PTR __imp_??1ioHashString@@QAE@XZ
  0001d	8d 8e e4 02 00
	00		 lea	 ecx, DWORD PTR [esi+740]
  00023	c7 45 fc 07 00
	00 00		 mov	 DWORD PTR __$EHRec$[ebp+8], 7
  0002a	ff d7		 call	 edi
  0002c	8d 8e 88 02 00
	00		 lea	 ecx, DWORD PTR [esi+648]
  00032	c6 45 fc 06	 mov	 BYTE PTR __$EHRec$[ebp+8], 6
  00036	e8 00 00 00 00	 call	 ??1AttackAttribute@@QAE@XZ
  0003b	8d 8e 50 02 00
	00		 lea	 ecx, DWORD PTR [esi+592]
  00041	c6 45 fc 05	 mov	 BYTE PTR __$EHRec$[ebp+8], 5
  00045	c7 86 44 02 00
	00 00 00 00 00	 mov	 DWORD PTR [esi+580], OFFSET ??_7?$CEncrypt@M@@6B@
  0004f	e8 00 00 00 00	 call	 ??1ccddaabb@@UAE@XZ	; ccddaabb::~ccddaabb
  00054	8d 8e 34 02 00
	00		 lea	 ecx, DWORD PTR [esi+564]
  0005a	c6 45 fc 04	 mov	 BYTE PTR __$EHRec$[ebp+8], 4
  0005e	ff d7		 call	 edi
  00060	8d 8e 24 02 00
	00		 lea	 ecx, DWORD PTR [esi+548]
  00066	c6 45 fc 03	 mov	 BYTE PTR __$EHRec$[ebp+8], 3
  0006a	ff d7		 call	 edi
  0006c	8d 8e c8 01 00
	00		 lea	 ecx, DWORD PTR [esi+456]
  00072	c6 45 fc 02	 mov	 BYTE PTR __$EHRec$[ebp+8], 2
  00076	e8 00 00 00 00	 call	 ??1AttackAttribute@@QAE@XZ
  0007b	8d 8e 78 01 00
	00		 lea	 ecx, DWORD PTR [esi+376]
  00081	c6 45 fc 01	 mov	 BYTE PTR __$EHRec$[ebp+8], 1
  00085	e8 00 00 00 00	 call	 ??1AttackAttribute@@QAE@XZ
  0008a	8d 8e 28 01 00
	00		 lea	 ecx, DWORD PTR [esi+296]
  00090	c6 45 fc 00	 mov	 BYTE PTR __$EHRec$[ebp+8], 0
  00094	e8 00 00 00 00	 call	 ??1AttackAttribute@@QAE@XZ
  00099	83 4d fc ff	 or	 DWORD PTR __$EHRec$[ebp+8], -1
  0009d	8b ce		 mov	 ecx, esi
  0009f	e8 00 00 00 00	 call	 ??1ioExtendJump@@UAE@XZ	; ioExtendJump::~ioExtendJump
  000a4	e8 00 00 00 00	 call	 __EH_epilog3
  000a9	c3		 ret	 0
_TEXT	ENDS
;	COMDAT text$x
text$x	SEGMENT
__unwindfunclet$??1ioPowerChargeJump@@UAE@XZ$0:
  00000	8b 4d f0	 mov	 ecx, DWORD PTR _this$[ebp]
  00003	e9 00 00 00 00	 jmp	 ??1ioExtendJump@@UAE@XZ	; ioExtendJump::~ioExtendJump
__unwindfunclet$??1ioPowerChargeJump@@UAE@XZ$1:
  00008	8b 4d f0	 mov	 ecx, DWORD PTR _this$[ebp]
  0000b	81 c1 28 01 00
	00		 add	 ecx, 296		; 00000128H
  00011	e9 00 00 00 00	 jmp	 ??1AttackAttribute@@QAE@XZ
__unwindfunclet$??1ioPowerChargeJump@@UAE@XZ$2:
  00016	8b 4d f0	 mov	 ecx, DWORD PTR _this$[ebp]
  00019	81 c1 78 01 00
	00		 add	 ecx, 376		; 00000178H
  0001f	e9 00 00 00 00	 jmp	 ??1AttackAttribute@@QAE@XZ
__unwindfunclet$??1ioPowerChargeJump@@UAE@XZ$3:
  00024	8b 4d f0	 mov	 ecx, DWORD PTR _this$[ebp]
  00027	81 c1 c8 01 00
	00		 add	 ecx, 456		; 000001c8H
  0002d	e9 00 00 00 00	 jmp	 ??1AttackAttribute@@QAE@XZ
__unwindfunclet$??1ioPowerChargeJump@@UAE@XZ$4:
  00032	8b 4d f0	 mov	 ecx, DWORD PTR _this$[ebp]
  00035	81 c1 24 02 00
	00		 add	 ecx, 548		; 00000224H
  0003b	ff 25 00 00 00
	00		 jmp	 DWORD PTR __imp_??1ioHashString@@QAE@XZ
__unwindfunclet$??1ioPowerChargeJump@@UAE@XZ$5:
  00041	8b 4d f0	 mov	 ecx, DWORD PTR _this$[ebp]
  00044	81 c1 34 02 00
	00		 add	 ecx, 564		; 00000234H
  0004a	ff 25 00 00 00
	00		 jmp	 DWORD PTR __imp_??1ioHashString@@QAE@XZ
__unwindfunclet$??1ioPowerChargeJump@@UAE@XZ$6:
  00050	8b 4d f0	 mov	 ecx, DWORD PTR _this$[ebp]
  00053	81 c1 44 02 00
	00		 add	 ecx, 580		; 00000244H
  00059	e9 00 00 00 00	 jmp	 ??1?$CEncrypt@M@@UAE@XZ	; CEncrypt<float>::~CEncrypt<float>
__unwindfunclet$??1ioPowerChargeJump@@UAE@XZ$7:
  0005e	8b 4d f0	 mov	 ecx, DWORD PTR _this$[ebp]
  00061	81 c1 88 02 00
	00		 add	 ecx, 648		; 00000288H
  00067	e9 00 00 00 00	 jmp	 ??1AttackAttribute@@QAE@XZ
__ehhandler$??1ioPowerChargeJump@@UAE@XZ:
  0006c	8b 54 24 08	 mov	 edx, DWORD PTR [esp+8]
  00070	8d 42 0c	 lea	 eax, DWORD PTR [edx+12]
  00073	8b 4a ec	 mov	 ecx, DWORD PTR [edx-20]
  00076	33 c8		 xor	 ecx, eax
  00078	e8 00 00 00 00	 call	 @__security_check_cookie@4
  0007d	b8 00 00 00 00	 mov	 eax, OFFSET __ehfuncinfo$??1ioPowerChargeJump@@UAE@XZ
  00082	e9 00 00 00 00	 jmp	 ___CxxFrameHandler3
text$x	ENDS
??1ioPowerChargeJump@@UAE@XZ ENDP			; ioPowerChargeJump::~ioPowerChargeJump
; Function compile flags: /Ogsp
;	COMDAT ??_GioPowerChargeJump@@UAEPAXI@Z
_TEXT	SEGMENT
___flags$ = 8						; size = 4
??_GioPowerChargeJump@@UAEPAXI@Z PROC			; ioPowerChargeJump::`scalar deleting destructor', COMDAT
; _this$ = ecx
  00000	55		 push	 ebp
  00001	8b ec		 mov	 ebp, esp
  00003	56		 push	 esi
  00004	8b f1		 mov	 esi, ecx
  00006	e8 00 00 00 00	 call	 ??1ioPowerChargeJump@@UAE@XZ ; ioPowerChargeJump::~ioPowerChargeJump
  0000b	f6 45 08 01	 test	 BYTE PTR ___flags$[ebp], 1
  0000f	74 07		 je	 SHORT $LN1@scalar@4
  00011	56		 push	 esi
  00012	e8 00 00 00 00	 call	 ??3@YAXPAX@Z		; operator delete
  00017	59		 pop	 ecx
$LN1@scalar@4:
  00018	8b c6		 mov	 eax, esi
  0001a	5e		 pop	 esi
  0001b	5d		 pop	 ebp
  0001c	c2 04 00	 ret	 4
??_GioPowerChargeJump@@UAEPAXI@Z ENDP			; ioPowerChargeJump::`scalar deleting destructor'
_TEXT	ENDS
END
