; Listing generated by Microsoft (R) Optimizing Compiler Version 16.00.30319.01 

	TITLE	D:\Lost Saga For Developer\Youtube\Tutorial\Source\src\LSClient\ioPrisonWeapon.cpp
	.686P
	.XMM
	include listing.inc
	.model	flat

INCLUDELIB MSVCRT
INCLUDELIB OLDNAMES

PUBLIC	?_EEM_DS@?$deque@UD3DXVECTOR3@@V?$allocator@UD3DXVECTOR3@@@std@@@std@@2HB ; std::deque<D3DXVECTOR3,std::allocator<D3DXVECTOR3> >::_EEM_DS
PUBLIC	?m_ActionStopType@ioPrisonWeapon@@2W4ActionStopType@@A ; ioPrisonWeapon::m_ActionStopType
PUBLIC	?m_DieActionStopType@ioPrisonWeapon@@2W4ActionStopType@@A ; ioPrisonWeapon::m_DieActionStopType
_BSS	SEGMENT
?m_ActionStopType@ioPrisonWeapon@@2W4ActionStopType@@A DD 01H DUP (?) ; ioPrisonWeapon::m_ActionStopType
?m_DieActionStopType@ioPrisonWeapon@@2W4ActionStopType@@A DD 01H DUP (?) ; ioPrisonWeapon::m_DieActionStopType
_BSS	ENDS
;	COMDAT ?_EEM_DS@?$deque@UD3DXVECTOR3@@V?$allocator@UD3DXVECTOR3@@@std@@@std@@2HB
CONST	SEGMENT
?_EEM_DS@?$deque@UD3DXVECTOR3@@V?$allocator@UD3DXVECTOR3@@@std@@@std@@2HB DD 01H ; std::deque<D3DXVECTOR3,std::allocator<D3DXVECTOR3> >::_EEM_DS
CONST	ENDS
PUBLIC	??0UpDownMoveInfo@ioPrisonWeapon@@QAE@XZ	; ioPrisonWeapon::UpDownMoveInfo::UpDownMoveInfo
EXTRN	__fltused:DWORD
; Function compile flags: /Ogsp
; File d:\lost saga for developer\youtube\tutorial\source\src\lsclient\ioprisonweapon.h
;	COMDAT ??0UpDownMoveInfo@ioPrisonWeapon@@QAE@XZ
_TEXT	SEGMENT
??0UpDownMoveInfo@ioPrisonWeapon@@QAE@XZ PROC		; ioPrisonWeapon::UpDownMoveInfo::UpDownMoveInfo, COMDAT
; _this$ = ecx

; 16   : 		{
; 17   : 			m_fMoveSpeed = 0.0f;

  00000	0f 57 c0	 xorps	 xmm0, xmm0
  00003	8b c1		 mov	 eax, ecx
  00005	f3 0f 11 00	 movss	 DWORD PTR [eax], xmm0

; 18   : 			m_fMinRnage  = 0.0f;

  00009	f3 0f 11 40 04	 movss	 DWORD PTR [eax+4], xmm0

; 19   : 			m_fMaxRnage  = 0.0f;

  0000e	f3 0f 11 40 08	 movss	 DWORD PTR [eax+8], xmm0

; 20   : 		}

  00013	c3		 ret	 0
??0UpDownMoveInfo@ioPrisonWeapon@@QAE@XZ ENDP		; ioPrisonWeapon::UpDownMoveInfo::UpDownMoveInfo
_TEXT	ENDS
PUBLIC	?return1@@YAIXZ					; return1
; Function compile flags: /Ogsp
; File d:\lost saga for developer\youtube\tutorial\source\src\lsclient\stdafx.h
;	COMDAT ?return1@@YAIXZ
_TEXT	SEGMENT
?return1@@YAIXZ PROC					; return1, COMDAT

; 17   : 	__forceinline unsigned int return1() { __asm mov eax, 1 };

  00000	b8 01 00 00 00	 mov	 eax, 1
  00005	c3		 ret	 0
?return1@@YAIXZ ENDP					; return1
_TEXT	ENDS
PUBLIC	?return1000@@YAIXZ				; return1000
; Function compile flags: /Ogsp
;	COMDAT ?return1000@@YAIXZ
_TEXT	SEGMENT
?return1000@@YAIXZ PROC					; return1000, COMDAT

; 29   : 	__forceinline unsigned int return1000() { __asm mov eax, 1000 };

  00000	b8 e8 03 00 00	 mov	 eax, 1000		; 000003e8H
  00005	c3		 ret	 0
?return1000@@YAIXZ ENDP					; return1000
_TEXT	ENDS
PUBLIC	?GetTargetRot@ioBaseChar@@QBEABUD3DXQUATERNION@@XZ ; ioBaseChar::GetTargetRot
; Function compile flags: /Ogsp
; File d:\lost saga for developer\youtube\tutorial\source\src\lsclient\iobasechar.h
;	COMDAT ?GetTargetRot@ioBaseChar@@QBEABUD3DXQUATERNION@@XZ
_TEXT	SEGMENT
?GetTargetRot@ioBaseChar@@QBEABUD3DXQUATERNION@@XZ PROC	; ioBaseChar::GetTargetRot, COMDAT
; _this$ = ecx

; 2599 : 	inline const D3DXQUATERNION& GetTargetRot() const { return m_qtTargetRot; }

  00000	8d 81 a4 06 00
	00		 lea	 eax, DWORD PTR [ecx+1700]
  00006	c3		 ret	 0
?GetTargetRot@ioBaseChar@@QBEABUD3DXQUATERNION@@XZ ENDP	; ioBaseChar::GetTargetRot
_TEXT	ENDS
PUBLIC	_fabsf
; Function compile flags: /Ogsp
; File c:\program files (x86)\microsoft visual studio 10.0\vc\include\math.h
;	COMDAT _fabsf
_TEXT	SEGMENT
tv129 = 8						; size = 4
__X$ = 8						; size = 4
_fabsf	PROC						; COMDAT

; 395  :         {return ((float)fabs((double)_X)); }

  00000	55		 push	 ebp
  00001	8b ec		 mov	 ebp, esp
  00003	d9 45 08	 fld	 DWORD PTR __X$[ebp]
  00006	d9 e1		 fabs
  00008	d9 5d 08	 fstp	 DWORD PTR tv129[ebp]
  0000b	d9 45 08	 fld	 DWORD PTR tv129[ebp]
  0000e	5d		 pop	 ebp
  0000f	c3		 ret	 0
_fabsf	ENDP
_TEXT	ENDS
PUBLIC	_sqrtf
EXTRN	__CIsqrt:PROC
; Function compile flags: /Ogsp
;	COMDAT _sqrtf
_TEXT	SEGMENT
tv69 = 8						; size = 4
__X$ = 8						; size = 4
_sqrtf	PROC						; COMDAT

; 434  :         {return ((float)sqrt((double)_X)); }

  00000	55		 push	 ebp
  00001	8b ec		 mov	 ebp, esp
  00003	d9 45 08	 fld	 DWORD PTR __X$[ebp]
  00006	e8 00 00 00 00	 call	 __CIsqrt
  0000b	d9 5d 08	 fstp	 DWORD PTR tv69[ebp]
  0000e	d9 45 08	 fld	 DWORD PTR tv69[ebp]
  00011	5d		 pop	 ebp
  00012	c3		 ret	 0
_sqrtf	ENDP
_TEXT	ENDS
PUBLIC	?fabs@@YAMM@Z					; fabs
; Function compile flags: /Ogsp
;	COMDAT ?fabs@@YAMM@Z
_TEXT	SEGMENT
tv131 = 8						; size = 4
__X$ = 8						; size = 4
?fabs@@YAMM@Z PROC					; fabs, COMDAT

; 518  :         {return (fabsf(_X)); }

  00000	55		 push	 ebp
  00001	8b ec		 mov	 ebp, esp
  00003	d9 45 08	 fld	 DWORD PTR __X$[ebp]
  00006	d9 e1		 fabs
  00008	d9 5d 08	 fstp	 DWORD PTR tv131[ebp]
  0000b	d9 45 08	 fld	 DWORD PTR tv131[ebp]
  0000e	5d		 pop	 ebp
  0000f	c3		 ret	 0
?fabs@@YAMM@Z ENDP					; fabs
_TEXT	ENDS
PUBLIC	??_7bad_alloc@std@@6B@				; std::bad_alloc::`vftable'
PUBLIC	??0bad_alloc@std@@QAE@PBD@Z			; std::bad_alloc::bad_alloc
PUBLIC	??_R4bad_alloc@std@@6B@				; std::bad_alloc::`RTTI Complete Object Locator'
PUBLIC	??_R0?AVbad_alloc@std@@@8			; std::bad_alloc `RTTI Type Descriptor'
PUBLIC	??_R3bad_alloc@std@@8				; std::bad_alloc::`RTTI Class Hierarchy Descriptor'
PUBLIC	??_R2bad_alloc@std@@8				; std::bad_alloc::`RTTI Base Class Array'
PUBLIC	??_R1A@?0A@EA@bad_alloc@std@@8			; std::bad_alloc::`RTTI Base Class Descriptor at (0,-1,0,64)'
PUBLIC	??_R1A@?0A@EA@exception@std@@8			; std::exception::`RTTI Base Class Descriptor at (0,-1,0,64)'
PUBLIC	??_R0?AVexception@std@@@8			; std::exception `RTTI Type Descriptor'
PUBLIC	??_R3exception@std@@8				; std::exception::`RTTI Class Hierarchy Descriptor'
PUBLIC	??_R2exception@std@@8				; std::exception::`RTTI Base Class Array'
EXTRN	__imp_??0exception@std@@QAE@ABQBD@Z:PROC
EXTRN	??_7type_info@@6B@:QWORD			; type_info::`vftable'
EXTRN	??_Ebad_alloc@std@@UAEPAXI@Z:PROC		; std::bad_alloc::`vector deleting destructor'
EXTRN	?what@exception@std@@UBEPBDXZ:PROC		; std::exception::what
;	COMDAT ??_R2exception@std@@8
; File c:\program files (x86)\microsoft visual studio 10.0\vc\include\exception
rdata$r	SEGMENT
??_R2exception@std@@8 DD FLAT:??_R1A@?0A@EA@exception@std@@8 ; std::exception::`RTTI Base Class Array'
rdata$r	ENDS
;	COMDAT ??_R3exception@std@@8
rdata$r	SEGMENT
??_R3exception@std@@8 DD 00H				; std::exception::`RTTI Class Hierarchy Descriptor'
	DD	00H
	DD	01H
	DD	FLAT:??_R2exception@std@@8
rdata$r	ENDS
;	COMDAT ??_R0?AVexception@std@@@8
_DATA	SEGMENT
??_R0?AVexception@std@@@8 DD FLAT:??_7type_info@@6B@	; std::exception `RTTI Type Descriptor'
	DD	00H
	DB	'.?AVexception@std@@', 00H
_DATA	ENDS
;	COMDAT ??_R1A@?0A@EA@exception@std@@8
rdata$r	SEGMENT
??_R1A@?0A@EA@exception@std@@8 DD FLAT:??_R0?AVexception@std@@@8 ; std::exception::`RTTI Base Class Descriptor at (0,-1,0,64)'
	DD	00H
	DD	00H
	DD	0ffffffffH
	DD	00H
	DD	040H
	DD	FLAT:??_R3exception@std@@8
rdata$r	ENDS
;	COMDAT ??_R1A@?0A@EA@bad_alloc@std@@8
rdata$r	SEGMENT
??_R1A@?0A@EA@bad_alloc@std@@8 DD FLAT:??_R0?AVbad_alloc@std@@@8 ; std::bad_alloc::`RTTI Base Class Descriptor at (0,-1,0,64)'
	DD	01H
	DD	00H
	DD	0ffffffffH
	DD	00H
	DD	040H
	DD	FLAT:??_R3bad_alloc@std@@8
rdata$r	ENDS
;	COMDAT ??_R2bad_alloc@std@@8
rdata$r	SEGMENT
??_R2bad_alloc@std@@8 DD FLAT:??_R1A@?0A@EA@bad_alloc@std@@8 ; std::bad_alloc::`RTTI Base Class Array'
	DD	FLAT:??_R1A@?0A@EA@exception@std@@8
rdata$r	ENDS
;	COMDAT ??_R3bad_alloc@std@@8
rdata$r	SEGMENT
??_R3bad_alloc@std@@8 DD 00H				; std::bad_alloc::`RTTI Class Hierarchy Descriptor'
	DD	00H
	DD	02H
	DD	FLAT:??_R2bad_alloc@std@@8
rdata$r	ENDS
;	COMDAT ??_R0?AVbad_alloc@std@@@8
_DATA	SEGMENT
??_R0?AVbad_alloc@std@@@8 DD FLAT:??_7type_info@@6B@	; std::bad_alloc `RTTI Type Descriptor'
	DD	00H
	DB	'.?AVbad_alloc@std@@', 00H
_DATA	ENDS
;	COMDAT ??_R4bad_alloc@std@@6B@
rdata$r	SEGMENT
??_R4bad_alloc@std@@6B@ DD 00H				; std::bad_alloc::`RTTI Complete Object Locator'
	DD	00H
	DD	00H
	DD	FLAT:??_R0?AVbad_alloc@std@@@8
	DD	FLAT:??_R3bad_alloc@std@@8
rdata$r	ENDS
;	COMDAT ??_7bad_alloc@std@@6B@
CONST	SEGMENT
??_7bad_alloc@std@@6B@ DD FLAT:??_R4bad_alloc@std@@6B@	; std::bad_alloc::`vftable'
	DD	FLAT:??_Ebad_alloc@std@@UAEPAXI@Z
	DD	FLAT:?what@exception@std@@UBEPBDXZ
; Function compile flags: /Ogsp
CONST	ENDS
;	COMDAT ??0bad_alloc@std@@QAE@PBD@Z
_TEXT	SEGMENT
__Message$ = 8						; size = 4
??0bad_alloc@std@@QAE@PBD@Z PROC			; std::bad_alloc::bad_alloc, COMDAT
; _this$ = ecx

; 345  : 		{	// construct from message string

  00000	55		 push	 ebp
  00001	8b ec		 mov	 ebp, esp
  00003	56		 push	 esi
  00004	8d 45 08	 lea	 eax, DWORD PTR __Message$[ebp]
  00007	50		 push	 eax
  00008	8b f1		 mov	 esi, ecx
  0000a	ff 15 00 00 00
	00		 call	 DWORD PTR __imp_??0exception@std@@QAE@ABQBD@Z
  00010	c7 06 00 00 00
	00		 mov	 DWORD PTR [esi], OFFSET ??_7bad_alloc@std@@6B@

; 346  : 		}

  00016	8b c6		 mov	 eax, esi
  00018	5e		 pop	 esi
  00019	5d		 pop	 ebp
  0001a	c2 04 00	 ret	 4
??0bad_alloc@std@@QAE@PBD@Z ENDP			; std::bad_alloc::bad_alloc
_TEXT	ENDS
PUBLIC	??1bad_alloc@std@@UAE@XZ			; std::bad_alloc::~bad_alloc
EXTRN	__imp_??1exception@std@@UAE@XZ:PROC
; Function compile flags: /Ogsp
;	COMDAT ??1bad_alloc@std@@UAE@XZ
_TEXT	SEGMENT
??1bad_alloc@std@@UAE@XZ PROC				; std::bad_alloc::~bad_alloc, COMDAT
; _this$ = ecx

; 354  : 		{	// destroy the object

  00000	c7 01 00 00 00
	00		 mov	 DWORD PTR [ecx], OFFSET ??_7bad_alloc@std@@6B@

; 355  : 		}

  00006	ff 25 00 00 00
	00		 jmp	 DWORD PTR __imp_??1exception@std@@UAE@XZ
??1bad_alloc@std@@UAE@XZ ENDP				; std::bad_alloc::~bad_alloc
_TEXT	ENDS
EXTRN	??3@YAXPAX@Z:PROC				; operator delete
; Function compile flags: /Ogsp
;	COMDAT ??_Gbad_alloc@std@@UAEPAXI@Z
_TEXT	SEGMENT
___flags$ = 8						; size = 4
??_Gbad_alloc@std@@UAEPAXI@Z PROC			; std::bad_alloc::`scalar deleting destructor', COMDAT
; _this$ = ecx
  00000	55		 push	 ebp
  00001	8b ec		 mov	 ebp, esp
  00003	56		 push	 esi
  00004	8b f1		 mov	 esi, ecx
  00006	c7 06 00 00 00
	00		 mov	 DWORD PTR [esi], OFFSET ??_7bad_alloc@std@@6B@
  0000c	ff 15 00 00 00
	00		 call	 DWORD PTR __imp_??1exception@std@@UAE@XZ
  00012	f6 45 08 01	 test	 BYTE PTR ___flags$[ebp], 1
  00016	74 07		 je	 SHORT $LN1@scalar
  00018	56		 push	 esi
  00019	e8 00 00 00 00	 call	 ??3@YAXPAX@Z		; operator delete
  0001e	59		 pop	 ecx
$LN1@scalar:
  0001f	8b c6		 mov	 eax, esi
  00021	5e		 pop	 esi
  00022	5d		 pop	 ebp
  00023	c2 04 00	 ret	 4
??_Gbad_alloc@std@@UAEPAXI@Z ENDP			; std::bad_alloc::`scalar deleting destructor'
_TEXT	ENDS
PUBLIC	??2@YAPAXIPAX@Z					; operator new
; Function compile flags: /Ogsp
; File c:\program files (x86)\microsoft visual studio 10.0\vc\include\new
;	COMDAT ??2@YAPAXIPAX@Z
_TEXT	SEGMENT
___formal$ = 8						; size = 4
__Where$ = 12						; size = 4
??2@YAPAXIPAX@Z PROC					; operator new, COMDAT

; 56   : 	{	// construct array with placement at _Where

  00000	55		 push	 ebp
  00001	8b ec		 mov	 ebp, esp

; 57   : 	return (_Where);

  00003	8b 45 0c	 mov	 eax, DWORD PTR __Where$[ebp]

; 58   : 	}

  00006	5d		 pop	 ebp
  00007	c3		 ret	 0
??2@YAPAXIPAX@Z ENDP					; operator new
_TEXT	ENDS
PUBLIC	??3@YAXPAX0@Z					; operator delete
; Function compile flags: /Ogsp
;	COMDAT ??3@YAXPAX0@Z
_TEXT	SEGMENT
___formal$ = 8						; size = 4
___formal$ = 12						; size = 4
??3@YAXPAX0@Z PROC					; operator delete, COMDAT

; 62   : 	}

  00000	c3		 ret	 0
??3@YAXPAX0@Z ENDP					; operator delete
_TEXT	ENDS
PUBLIC	?_Adopt@_Iterator_base0@std@@QAEXPBX@Z		; std::_Iterator_base0::_Adopt
; Function compile flags: /Ogsp
; File c:\program files (x86)\microsoft visual studio 10.0\vc\include\xutility
;	COMDAT ?_Adopt@_Iterator_base0@std@@QAEXPBX@Z
_TEXT	SEGMENT
___formal$ = 8						; size = 4
?_Adopt@_Iterator_base0@std@@QAEXPBX@Z PROC		; std::_Iterator_base0::_Adopt, COMDAT
; _this$ = ecx

; 49   : 		}

  00000	c2 04 00	 ret	 4
?_Adopt@_Iterator_base0@std@@QAEXPBX@Z ENDP		; std::_Iterator_base0::_Adopt
_TEXT	ENDS
PUBLIC	?SetStartPosition@ioPrisonWeapon@@UAEXABUD3DXVECTOR3@@PAVioPlayStage@@@Z ; ioPrisonWeapon::SetStartPosition
EXTRN	?SetPosition@ioWeapon@@QAEXABUD3DXVECTOR3@@@Z:PROC ; ioWeapon::SetPosition
EXTRN	__imp_??1ioHashString@@QAE@XZ:PROC
EXTRN	__imp_?HasLinkedSystem@ioEffect@@QBE_NXZ:PROC
EXTRN	__imp_?IsEmpty@ioHashString@@QBE_NXZ:PROC
EXTRN	__imp_?GetSkeletonName@ioEffect@@QBE?AVioHashString@@XZ:PROC
EXTRN	___CxxFrameHandler3:PROC
EXTRN	@__security_check_cookie@4:PROC
EXTRN	__EH_epilog3:PROC
EXTRN	__EH_prolog3:PROC
;	COMDAT xdata$x
; File d:\lost saga for developer\youtube\tutorial\source\src\lsclient\ioprisonweapon.cpp
xdata$x	SEGMENT
__unwindtable$?SetStartPosition@ioPrisonWeapon@@UAEXABUD3DXVECTOR3@@PAVioPlayStage@@@Z DD 0ffffffffH
	DD	FLAT:__unwindfunclet$?SetStartPosition@ioPrisonWeapon@@UAEXABUD3DXVECTOR3@@PAVioPlayStage@@@Z$0
__ehfuncinfo$?SetStartPosition@ioPrisonWeapon@@UAEXABUD3DXVECTOR3@@PAVioPlayStage@@@Z DD 019930522H
	DD	01H
	DD	FLAT:__unwindtable$?SetStartPosition@ioPrisonWeapon@@UAEXABUD3DXVECTOR3@@PAVioPlayStage@@@Z
	DD	2 DUP(00H)
	DD	2 DUP(00H)
	DD	00H
	DD	01H
; Function compile flags: /Ogsp
xdata$x	ENDS
;	COMDAT ?SetStartPosition@ioPrisonWeapon@@UAEXABUD3DXVECTOR3@@PAVioPlayStage@@@Z
_TEXT	SEGMENT
$T536157 = -32						; size = 16
$T536160 = -16						; size = 4
__$EHRec$ = -12						; size = 12
_vPos$ = 8						; size = 4
_pStage$ = 12						; size = 4
?SetStartPosition@ioPrisonWeapon@@UAEXABUD3DXVECTOR3@@PAVioPlayStage@@@Z PROC ; ioPrisonWeapon::SetStartPosition, COMDAT
; _this$ = ecx

; 171  : {

  00000	6a 14		 push	 20			; 00000014H
  00002	b8 00 00 00 00	 mov	 eax, __ehhandler$?SetStartPosition@ioPrisonWeapon@@UAEXABUD3DXVECTOR3@@PAVioPlayStage@@@Z
  00007	e8 00 00 00 00	 call	 __EH_prolog3
  0000c	8b f1		 mov	 esi, ecx
  0000e	83 65 f0 00	 and	 DWORD PTR $T536160[ebp], 0

; 172  : 	if( m_pFireMesh && m_pFireMesh->GetSkeletonName().IsEmpty() && m_pFireMesh->HasLinkedSystem() )

  00012	8b 8e dc 08 00
	00		 mov	 ecx, DWORD PTR [esi+2268]
  00018	85 c9		 test	 ecx, ecx
  0001a	74 35		 je	 SHORT $LN4@SetStartPo
  0001c	8d 45 e0	 lea	 eax, DWORD PTR $T536157[ebp]
  0001f	50		 push	 eax
  00020	ff 15 00 00 00
	00		 call	 DWORD PTR __imp_?GetSkeletonName@ioEffect@@QBE?AVioHashString@@XZ
  00026	83 65 fc 00	 and	 DWORD PTR __$EHRec$[ebp+8], 0
  0002a	8b c8		 mov	 ecx, eax
  0002c	c7 45 f0 01 00
	00 00		 mov	 DWORD PTR $T536160[ebp], 1
  00033	ff 15 00 00 00
	00		 call	 DWORD PTR __imp_?IsEmpty@ioHashString@@QBE_NXZ
  00039	84 c0		 test	 al, al
  0003b	74 14		 je	 SHORT $LN4@SetStartPo
  0003d	8b 8e dc 08 00
	00		 mov	 ecx, DWORD PTR [esi+2268]
  00043	ff 15 00 00 00
	00		 call	 DWORD PTR __imp_?HasLinkedSystem@ioEffect@@QBE_NXZ
  00049	84 c0		 test	 al, al
  0004b	74 04		 je	 SHORT $LN4@SetStartPo
  0004d	b3 01		 mov	 bl, 1
  0004f	eb 02		 jmp	 SHORT $LN5@SetStartPo
$LN4@SetStartPo:
  00051	32 db		 xor	 bl, bl
$LN5@SetStartPo:
  00053	83 4d fc ff	 or	 DWORD PTR __$EHRec$[ebp+8], -1
  00057	f6 45 f0 01	 test	 BYTE PTR $T536160[ebp], 1
  0005b	74 09		 je	 SHORT $LN8@SetStartPo
  0005d	8d 4d e0	 lea	 ecx, DWORD PTR $T536157[ebp]
  00060	ff 15 00 00 00
	00		 call	 DWORD PTR __imp_??1ioHashString@@QAE@XZ
$LN8@SetStartPo:
  00066	84 db		 test	 bl, bl
  00068	75 0a		 jne	 SHORT $LN2@SetStartPo

; 173  : 		return;
; 174  : 
; 175  : 	SetPosition( vPos );	

  0006a	ff 75 08	 push	 DWORD PTR _vPos$[ebp]
  0006d	8b ce		 mov	 ecx, esi
  0006f	e8 00 00 00 00	 call	 ?SetPosition@ioWeapon@@QAEXABUD3DXVECTOR3@@@Z ; ioWeapon::SetPosition
$LN2@SetStartPo:

; 176  : }

  00074	e8 00 00 00 00	 call	 __EH_epilog3
  00079	c2 08 00	 ret	 8
_TEXT	ENDS
;	COMDAT text$x
text$x	SEGMENT
__unwindfunclet$?SetStartPosition@ioPrisonWeapon@@UAEXABUD3DXVECTOR3@@PAVioPlayStage@@@Z$0:
  00000	8b 45 f0	 mov	 eax, DWORD PTR $T536160[ebp]
  00003	83 e0 01	 and	 eax, 1
  00006	0f 84 0d 00 00
	00		 je	 $LN7@SetStartPo
  0000c	83 65 f0 fe	 and	 DWORD PTR $T536160[ebp], -2 ; fffffffeH
  00010	8d 4d e0	 lea	 ecx, DWORD PTR $T536157[ebp]
  00013	ff 25 00 00 00
	00		 jmp	 DWORD PTR __imp_??1ioHashString@@QAE@XZ
$LN7@SetStartPo:
  00019	c3		 ret	 0
__ehhandler$?SetStartPosition@ioPrisonWeapon@@UAEXABUD3DXVECTOR3@@PAVioPlayStage@@@Z:
  0001a	8b 54 24 08	 mov	 edx, DWORD PTR [esp+8]
  0001e	8d 42 0c	 lea	 eax, DWORD PTR [edx+12]
  00021	8b 4a dc	 mov	 ecx, DWORD PTR [edx-36]
  00024	33 c8		 xor	 ecx, eax
  00026	e8 00 00 00 00	 call	 @__security_check_cookie@4
  0002b	b8 00 00 00 00	 mov	 eax, OFFSET __ehfuncinfo$?SetStartPosition@ioPrisonWeapon@@UAEXABUD3DXVECTOR3@@PAVioPlayStage@@@Z
  00030	e9 00 00 00 00	 jmp	 ___CxxFrameHandler3
text$x	ENDS
?SetStartPosition@ioPrisonWeapon@@UAEXABUD3DXVECTOR3@@PAVioPlayStage@@@Z ENDP ; ioPrisonWeapon::SetStartPosition
PUBLIC	?SetMoveRange@ioPrisonWeapon@@QAEXM@Z		; ioPrisonWeapon::SetMoveRange
; Function compile flags: /Ogsp
;	COMDAT ?SetMoveRange@ioPrisonWeapon@@QAEXM@Z
_TEXT	SEGMENT
_fMoveRange$ = 8					; size = 4
?SetMoveRange@ioPrisonWeapon@@QAEXM@Z PROC		; ioPrisonWeapon::SetMoveRange, COMDAT
; _this$ = ecx

; 189  : {

  00000	55		 push	 ebp
  00001	8b ec		 mov	 ebp, esp

; 190  : 	m_fMoveRange = fMoveRange;

  00003	f3 0f 10 45 08	 movss	 xmm0, DWORD PTR _fMoveRange$[ebp]
  00008	f3 0f 11 81 98
	08 00 00	 movss	 DWORD PTR [ecx+2200], xmm0

; 191  : }

  00010	5d		 pop	 ebp
  00011	c2 04 00	 ret	 4
?SetMoveRange@ioPrisonWeapon@@QAEXM@Z ENDP		; ioPrisonWeapon::SetMoveRange
_TEXT	ENDS
PUBLIC	?SetPrisionPos@ioPrisonWeapon@@QAEXABUD3DXVECTOR3@@@Z ; ioPrisonWeapon::SetPrisionPos
; Function compile flags: /Ogsp
;	COMDAT ?SetPrisionPos@ioPrisonWeapon@@QAEXABUD3DXVECTOR3@@@Z
_TEXT	SEGMENT
_vPos$ = 8						; size = 4
?SetPrisionPos@ioPrisonWeapon@@QAEXABUD3DXVECTOR3@@@Z PROC ; ioPrisonWeapon::SetPrisionPos, COMDAT
; _this$ = ecx

; 194  : {

  00000	55		 push	 ebp
  00001	8b ec		 mov	 ebp, esp
  00003	56		 push	 esi

; 195  : 	m_vPrisionPos = vPos;

  00004	8b 75 08	 mov	 esi, DWORD PTR _vPos$[ebp]
  00007	57		 push	 edi
  00008	8d b9 b4 08 00
	00		 lea	 edi, DWORD PTR [ecx+2228]
  0000e	a5		 movsd
  0000f	a5		 movsd
  00010	a5		 movsd
  00011	5f		 pop	 edi
  00012	5e		 pop	 esi

; 196  : }

  00013	5d		 pop	 ebp
  00014	c2 04 00	 ret	 4
?SetPrisionPos@ioPrisonWeapon@@QAEXABUD3DXVECTOR3@@@Z ENDP ; ioPrisonWeapon::SetPrisionPos
_TEXT	ENDS
PUBLIC	?GetMoveDir@ioPrisonWeapon@@UAE?AUD3DXVECTOR3@@XZ ; ioPrisonWeapon::GetMoveDir
; Function compile flags: /Ogsp
;	COMDAT ?GetMoveDir@ioPrisonWeapon@@UAE?AUD3DXVECTOR3@@XZ
_TEXT	SEGMENT
___$ReturnUdt$ = 8					; size = 4
?GetMoveDir@ioPrisonWeapon@@UAE?AUD3DXVECTOR3@@XZ PROC	; ioPrisonWeapon::GetMoveDir, COMDAT
; _this$ = ecx

; 199  : {

  00000	55		 push	 ebp
  00001	8b ec		 mov	 ebp, esp

; 200  : 	return m_vMoveDir;

  00003	8b 45 08	 mov	 eax, DWORD PTR ___$ReturnUdt$[ebp]
  00006	56		 push	 esi
  00007	57		 push	 edi
  00008	8d b1 a8 08 00
	00		 lea	 esi, DWORD PTR [ecx+2216]
  0000e	8b f8		 mov	 edi, eax
  00010	a5		 movsd
  00011	a5		 movsd
  00012	a5		 movsd
  00013	5f		 pop	 edi
  00014	5e		 pop	 esi

; 201  : }

  00015	5d		 pop	 ebp
  00016	c2 04 00	 ret	 4
?GetMoveDir@ioPrisonWeapon@@UAE?AUD3DXVECTOR3@@XZ ENDP	; ioPrisonWeapon::GetMoveDir
_TEXT	ENDS
PUBLIC	?GetType@ioPrisonWeapon@@UBE?AW4WeaponType@ioWeapon@@XZ ; ioPrisonWeapon::GetType
; Function compile flags: /Ogsp
;	COMDAT ?GetType@ioPrisonWeapon@@UBE?AW4WeaponType@ioWeapon@@XZ
_TEXT	SEGMENT
?GetType@ioPrisonWeapon@@UBE?AW4WeaponType@ioWeapon@@XZ PROC ; ioPrisonWeapon::GetType, COMDAT
; _this$ = ecx

; 217  : 	return WT_PRISON_WEAPON;

  00000	6a 5d		 push	 93			; 0000005dH
  00002	58		 pop	 eax

; 218  : }

  00003	c3		 ret	 0
?GetType@ioPrisonWeapon@@UBE?AW4WeaponType@ioWeapon@@XZ ENDP ; ioPrisonWeapon::GetType
_TEXT	ENDS
PUBLIC	?GetActionStopType@ioPrisonWeapon@@UBE?AW4ActionStopType@@XZ ; ioPrisonWeapon::GetActionStopType
; Function compile flags: /Ogsp
;	COMDAT ?GetActionStopType@ioPrisonWeapon@@UBE?AW4ActionStopType@@XZ
_TEXT	SEGMENT
?GetActionStopType@ioPrisonWeapon@@UBE?AW4ActionStopType@@XZ PROC ; ioPrisonWeapon::GetActionStopType, COMDAT
; _this$ = ecx

; 222  : 	return m_ActionStopType;

  00000	a1 00 00 00 00	 mov	 eax, DWORD PTR ?m_ActionStopType@ioPrisonWeapon@@2W4ActionStopType@@A ; ioPrisonWeapon::m_ActionStopType

; 223  : }

  00005	c3		 ret	 0
?GetActionStopType@ioPrisonWeapon@@UBE?AW4ActionStopType@@XZ ENDP ; ioPrisonWeapon::GetActionStopType
_TEXT	ENDS
PUBLIC	?GetDieActionStopType@ioPrisonWeapon@@UBE?AW4ActionStopType@@XZ ; ioPrisonWeapon::GetDieActionStopType
; Function compile flags: /Ogsp
;	COMDAT ?GetDieActionStopType@ioPrisonWeapon@@UBE?AW4ActionStopType@@XZ
_TEXT	SEGMENT
?GetDieActionStopType@ioPrisonWeapon@@UBE?AW4ActionStopType@@XZ PROC ; ioPrisonWeapon::GetDieActionStopType, COMDAT
; _this$ = ecx

; 227  : 	return m_DieActionStopType;

  00000	a1 00 00 00 00	 mov	 eax, DWORD PTR ?m_DieActionStopType@ioPrisonWeapon@@2W4ActionStopType@@A ; ioPrisonWeapon::m_DieActionStopType

; 228  : }

  00005	c3		 ret	 0
?GetDieActionStopType@ioPrisonWeapon@@UBE?AW4ActionStopType@@XZ ENDP ; ioPrisonWeapon::GetDieActionStopType
_TEXT	ENDS
PUBLIC	?ProcessPrisionEffect@ioPrisonWeapon@@QAEXMPAVioPlayStage@@@Z ; ioPrisonWeapon::ProcessPrisionEffect
EXTRN	?SetWorldPosition@ioMapEffect@@QAEXABUD3DXVECTOR3@@@Z:PROC ; ioMapEffect::SetWorldPosition
EXTRN	?FindMapEffect@ioPlayStage@@QAEPAVioMapEffect@@K@Z:PROC ; ioPlayStage::FindMapEffect
; Function compile flags: /Ogsp
;	COMDAT ?ProcessPrisionEffect@ioPrisonWeapon@@QAEXMPAVioPlayStage@@@Z
_TEXT	SEGMENT
_fTimePerSec$ = 8					; size = 4
_pStage$ = 12						; size = 4
?ProcessPrisionEffect@ioPrisonWeapon@@QAEXMPAVioPlayStage@@@Z PROC ; ioPrisonWeapon::ProcessPrisionEffect, COMDAT
; _this$ = ecx

; 416  : {

  00000	55		 push	 ebp
  00001	8b ec		 mov	 ebp, esp
  00003	56		 push	 esi
  00004	8b f1		 mov	 esi, ecx

; 417  : 	ioMapEffect* pEffect = pStage->FindMapEffect( m_PrisonEffectID );

  00006	8b 4d 0c	 mov	 ecx, DWORD PTR _pStage$[ebp]
  00009	57		 push	 edi
  0000a	ff b6 74 09 00
	00		 push	 DWORD PTR [esi+2420]
  00010	e8 00 00 00 00	 call	 ?FindMapEffect@ioPlayStage@@QAEPAVioMapEffect@@K@Z ; ioPlayStage::FindMapEffect
  00015	8b f8		 mov	 edi, eax

; 418  : 	if( !pEffect )

  00017	85 ff		 test	 edi, edi
  00019	74 0f		 je	 SHORT $LN2@ProcessPri

; 419  : 		return;
; 420  : 
; 421  : 	pEffect->SetWorldPosition( GetPosition() );

  0001b	8b 06		 mov	 eax, DWORD PTR [esi]
  0001d	8b ce		 mov	 ecx, esi
  0001f	ff 50 70	 call	 DWORD PTR [eax+112]
  00022	50		 push	 eax
  00023	8b cf		 mov	 ecx, edi
  00025	e8 00 00 00 00	 call	 ?SetWorldPosition@ioMapEffect@@QAEXABUD3DXVECTOR3@@@Z ; ioMapEffect::SetWorldPosition
$LN2@ProcessPri:
  0002a	5f		 pop	 edi
  0002b	5e		 pop	 esi

; 422  : }

  0002c	5d		 pop	 ebp
  0002d	c2 08 00	 ret	 8
?ProcessPrisionEffect@ioPrisonWeapon@@QAEXMPAVioPlayStage@@@Z ENDP ; ioPrisonWeapon::ProcessPrisionEffect
_TEXT	ENDS
PUBLIC	?SetWeaponDead@ioPrisonWeapon@@UAEXXZ		; ioPrisonWeapon::SetWeaponDead
EXTRN	?DestroyAttachAreaWeapon@ioWeapon@@IAEXXZ:PROC	; ioWeapon::DestroyAttachAreaWeapon
; Function compile flags: /Ogsp
;	COMDAT ?SetWeaponDead@ioPrisonWeapon@@UAEXXZ
_TEXT	SEGMENT
?SetWeaponDead@ioPrisonWeapon@@UAEXXZ PROC		; ioPrisonWeapon::SetWeaponDead, COMDAT
; _this$ = ecx

; 502  : {

  00000	56		 push	 esi
  00001	8b f1		 mov	 esi, ecx

; 503  : 	DestroyAttachAreaWeapon();

  00003	e8 00 00 00 00	 call	 ?DestroyAttachAreaWeapon@ioWeapon@@IAEXXZ ; ioWeapon::DestroyAttachAreaWeapon

; 504  : 	m_bLive = false;	

  00008	c6 86 82 05 00
	00 00		 mov	 BYTE PTR [esi+1410], 0
  0000f	5e		 pop	 esi

; 505  : }

  00010	c3		 ret	 0
?SetWeaponDead@ioPrisonWeapon@@UAEXXZ ENDP		; ioPrisonWeapon::SetWeaponDead
_TEXT	ENDS
PUBLIC	?size@?$vector@UUpDownInfo@ioPrisonWeapon@@V?$allocator@UUpDownInfo@ioPrisonWeapon@@@std@@@std@@QBEIXZ ; std::vector<ioPrisonWeapon::UpDownInfo,std::allocator<ioPrisonWeapon::UpDownInfo> >::size
; Function compile flags: /Ogsp
; File c:\program files (x86)\microsoft visual studio 10.0\vc\include\vector
;	COMDAT ?size@?$vector@UUpDownInfo@ioPrisonWeapon@@V?$allocator@UUpDownInfo@ioPrisonWeapon@@@std@@@std@@QBEIXZ
_TEXT	SEGMENT
?size@?$vector@UUpDownInfo@ioPrisonWeapon@@V?$allocator@UUpDownInfo@ioPrisonWeapon@@@std@@@std@@QBEIXZ PROC ; std::vector<ioPrisonWeapon::UpDownInfo,std::allocator<ioPrisonWeapon::UpDownInfo> >::size, COMDAT
; _this$ = ecx

; 879  : 		return (this->_Mylast - this->_Myfirst);

  00000	8b 41 04	 mov	 eax, DWORD PTR [ecx+4]
  00003	2b 01		 sub	 eax, DWORD PTR [ecx]
  00005	6a 14		 push	 20			; 00000014H
  00007	99		 cdq
  00008	59		 pop	 ecx
  00009	f7 f9		 idiv	 ecx

; 880  : 		}

  0000b	c3		 ret	 0
?size@?$vector@UUpDownInfo@ioPrisonWeapon@@V?$allocator@UUpDownInfo@ioPrisonWeapon@@@std@@@std@@QBEIXZ ENDP ; std::vector<ioPrisonWeapon::UpDownInfo,std::allocator<ioPrisonWeapon::UpDownInfo> >::size
_TEXT	ENDS
PUBLIC	??A?$vector@UUpDownInfo@ioPrisonWeapon@@V?$allocator@UUpDownInfo@ioPrisonWeapon@@@std@@@std@@QAEAAUUpDownInfo@ioPrisonWeapon@@I@Z ; std::vector<ioPrisonWeapon::UpDownInfo,std::allocator<ioPrisonWeapon::UpDownInfo> >::operator[]
; Function compile flags: /Ogsp
;	COMDAT ??A?$vector@UUpDownInfo@ioPrisonWeapon@@V?$allocator@UUpDownInfo@ioPrisonWeapon@@@std@@@std@@QAEAAUUpDownInfo@ioPrisonWeapon@@I@Z
_TEXT	SEGMENT
__Pos$ = 8						; size = 4
??A?$vector@UUpDownInfo@ioPrisonWeapon@@V?$allocator@UUpDownInfo@ioPrisonWeapon@@@std@@@std@@QAEAAUUpDownInfo@ioPrisonWeapon@@I@Z PROC ; std::vector<ioPrisonWeapon::UpDownInfo,std::allocator<ioPrisonWeapon::UpDownInfo> >::operator[], COMDAT
; _this$ = ecx

; 928  : 		{	// subscript mutable sequence

  00000	55		 push	 ebp
  00001	8b ec		 mov	 ebp, esp

; 929  :  #if _ITERATOR_DEBUG_LEVEL == 2
; 930  : 		if (size() <= _Pos)
; 931  : 			{	// report error
; 932  : 			_DEBUG_ERROR("vector subscript out of range");
; 933  : 			_SCL_SECURE_OUT_OF_RANGE;
; 934  : 			}
; 935  : 
; 936  :  #elif _ITERATOR_DEBUG_LEVEL == 1
; 937  : 		_SCL_SECURE_VALIDATE_RANGE(_Pos < size());
; 938  :  #endif /* _ITERATOR_DEBUG_LEVEL */
; 939  : 
; 940  : 		return (*(this->_Myfirst + _Pos));

  00003	8b 45 08	 mov	 eax, DWORD PTR __Pos$[ebp]
  00006	6b c0 14	 imul	 eax, 20			; 00000014H
  00009	03 01		 add	 eax, DWORD PTR [ecx]

; 941  : 		}

  0000b	5d		 pop	 ebp
  0000c	c2 04 00	 ret	 4
??A?$vector@UUpDownInfo@ioPrisonWeapon@@V?$allocator@UUpDownInfo@ioPrisonWeapon@@@std@@@std@@QAEAAUUpDownInfo@ioPrisonWeapon@@I@Z ENDP ; std::vector<ioPrisonWeapon::UpDownInfo,std::allocator<ioPrisonWeapon::UpDownInfo> >::operator[]
_TEXT	ENDS
PUBLIC	??D?$_Vector_const_iterator@V?$_Vector_val@UUpDownMoveInfo@ioPrisonWeapon@@V?$allocator@UUpDownMoveInfo@ioPrisonWeapon@@@std@@@std@@@std@@QBEABUUpDownMoveInfo@ioPrisonWeapon@@XZ ; std::_Vector_const_iterator<std::_Vector_val<ioPrisonWeapon::UpDownMoveInfo,std::allocator<ioPrisonWeapon::UpDownMoveInfo> > >::operator*
; Function compile flags: /Ogsp
;	COMDAT ??D?$_Vector_const_iterator@V?$_Vector_val@UUpDownMoveInfo@ioPrisonWeapon@@V?$allocator@UUpDownMoveInfo@ioPrisonWeapon@@@std@@@std@@@std@@QBEABUUpDownMoveInfo@ioPrisonWeapon@@XZ
_TEXT	SEGMENT
??D?$_Vector_const_iterator@V?$_Vector_val@UUpDownMoveInfo@ioPrisonWeapon@@V?$allocator@UUpDownMoveInfo@ioPrisonWeapon@@@std@@@std@@@std@@QBEABUUpDownMoveInfo@ioPrisonWeapon@@XZ PROC ; std::_Vector_const_iterator<std::_Vector_val<ioPrisonWeapon::UpDownMoveInfo,std::allocator<ioPrisonWeapon::UpDownMoveInfo> > >::operator*, COMDAT
; _this$ = ecx

; 64   :  #if _ITERATOR_DEBUG_LEVEL == 2
; 65   : 		if (this->_Getcont() == 0
; 66   : 			|| this->_Ptr == 0
; 67   : 			|| this->_Ptr < ((_Myvec *)this->_Getcont())->_Myfirst
; 68   : 			|| ((_Myvec *)this->_Getcont())->_Mylast <= this->_Ptr)
; 69   : 			{	// report error
; 70   : 			_DEBUG_ERROR("vector iterator not dereferencable");
; 71   : 			_SCL_SECURE_OUT_OF_RANGE;
; 72   : 			}
; 73   : 
; 74   :  #elif _ITERATOR_DEBUG_LEVEL == 1
; 75   : 		_SCL_SECURE_VALIDATE(this->_Getcont() != 0);
; 76   : 		_SCL_SECURE_VALIDATE_RANGE(
; 77   : 			this->_Ptr != 0
; 78   : 			&& ((_Myvec *)this->_Getcont())->_Myfirst <= this->_Ptr
; 79   : 			&& this->_Ptr < ((_Myvec *)this->_Getcont())->_Mylast);
; 80   :  #endif /* _ITERATOR_DEBUG_LEVEL */
; 81   : 
; 82   : 		__analysis_assume(this->_Ptr != 0);
; 83   : 
; 84   : 		return (*this->_Ptr);

  00000	8b 01		 mov	 eax, DWORD PTR [ecx]

; 85   : 		}

  00002	c3		 ret	 0
??D?$_Vector_const_iterator@V?$_Vector_val@UUpDownMoveInfo@ioPrisonWeapon@@V?$allocator@UUpDownMoveInfo@ioPrisonWeapon@@@std@@@std@@@std@@QBEABUUpDownMoveInfo@ioPrisonWeapon@@XZ ENDP ; std::_Vector_const_iterator<std::_Vector_val<ioPrisonWeapon::UpDownMoveInfo,std::allocator<ioPrisonWeapon::UpDownMoveInfo> > >::operator*
_TEXT	ENDS
PUBLIC	??E?$_Vector_const_iterator@V?$_Vector_val@UUpDownMoveInfo@ioPrisonWeapon@@V?$allocator@UUpDownMoveInfo@ioPrisonWeapon@@@std@@@std@@@std@@QAEAAV01@XZ ; std::_Vector_const_iterator<std::_Vector_val<ioPrisonWeapon::UpDownMoveInfo,std::allocator<ioPrisonWeapon::UpDownMoveInfo> > >::operator++
; Function compile flags: /Ogsp
;	COMDAT ??E?$_Vector_const_iterator@V?$_Vector_val@UUpDownMoveInfo@ioPrisonWeapon@@V?$allocator@UUpDownMoveInfo@ioPrisonWeapon@@@std@@@std@@@std@@QAEAAV01@XZ
_TEXT	SEGMENT
??E?$_Vector_const_iterator@V?$_Vector_val@UUpDownMoveInfo@ioPrisonWeapon@@V?$allocator@UUpDownMoveInfo@ioPrisonWeapon@@@std@@@std@@@std@@QAEAAV01@XZ PROC ; std::_Vector_const_iterator<std::_Vector_val<ioPrisonWeapon::UpDownMoveInfo,std::allocator<ioPrisonWeapon::UpDownMoveInfo> > >::operator++, COMDAT
; _this$ = ecx

; 93   : 		{	// preincrement

  00000	8b c1		 mov	 eax, ecx

; 94   :  #if _ITERATOR_DEBUG_LEVEL == 2
; 95   : 		if (this->_Getcont() == 0
; 96   : 			|| this->_Ptr == 0
; 97   : 			|| ((_Myvec *)this->_Getcont())->_Mylast <= this->_Ptr)
; 98   : 			{	// report error
; 99   : 			_DEBUG_ERROR("vector iterator not incrementable");
; 100  : 			_SCL_SECURE_OUT_OF_RANGE;
; 101  : 			}
; 102  : 
; 103  :  #elif _ITERATOR_DEBUG_LEVEL == 1
; 104  : 		_SCL_SECURE_VALIDATE(this->_Getcont() != 0);
; 105  : 		_SCL_SECURE_VALIDATE_RANGE(
; 106  : 			this->_Ptr != 0
; 107  : 			&& this->_Ptr < ((_Myvec *)this->_Getcont())->_Mylast);
; 108  :  #endif /* _ITERATOR_DEBUG_LEVEL */
; 109  : 
; 110  : 		++this->_Ptr;

  00002	83 00 0c	 add	 DWORD PTR [eax], 12	; 0000000cH

; 111  : 		return (*this);
; 112  : 		}

  00005	c3		 ret	 0
??E?$_Vector_const_iterator@V?$_Vector_val@UUpDownMoveInfo@ioPrisonWeapon@@V?$allocator@UUpDownMoveInfo@ioPrisonWeapon@@@std@@@std@@@std@@QAEAAV01@XZ ENDP ; std::_Vector_const_iterator<std::_Vector_val<ioPrisonWeapon::UpDownMoveInfo,std::allocator<ioPrisonWeapon::UpDownMoveInfo> > >::operator++
_TEXT	ENDS
PUBLIC	?size@?$vector@UUpDownMoveInfo@ioPrisonWeapon@@V?$allocator@UUpDownMoveInfo@ioPrisonWeapon@@@std@@@std@@QBEIXZ ; std::vector<ioPrisonWeapon::UpDownMoveInfo,std::allocator<ioPrisonWeapon::UpDownMoveInfo> >::size
; Function compile flags: /Ogsp
;	COMDAT ?size@?$vector@UUpDownMoveInfo@ioPrisonWeapon@@V?$allocator@UUpDownMoveInfo@ioPrisonWeapon@@@std@@@std@@QBEIXZ
_TEXT	SEGMENT
?size@?$vector@UUpDownMoveInfo@ioPrisonWeapon@@V?$allocator@UUpDownMoveInfo@ioPrisonWeapon@@@std@@@std@@QBEIXZ PROC ; std::vector<ioPrisonWeapon::UpDownMoveInfo,std::allocator<ioPrisonWeapon::UpDownMoveInfo> >::size, COMDAT
; _this$ = ecx

; 879  : 		return (this->_Mylast - this->_Myfirst);

  00000	8b 41 04	 mov	 eax, DWORD PTR [ecx+4]
  00003	2b 01		 sub	 eax, DWORD PTR [ecx]
  00005	6a 0c		 push	 12			; 0000000cH
  00007	99		 cdq
  00008	59		 pop	 ecx
  00009	f7 f9		 idiv	 ecx

; 880  : 		}

  0000b	c3		 ret	 0
?size@?$vector@UUpDownMoveInfo@ioPrisonWeapon@@V?$allocator@UUpDownMoveInfo@ioPrisonWeapon@@@std@@@std@@QBEIXZ ENDP ; std::vector<ioPrisonWeapon::UpDownMoveInfo,std::allocator<ioPrisonWeapon::UpDownMoveInfo> >::size
_TEXT	ENDS
PUBLIC	?_Inside@?$vector@UUpDownMoveInfo@ioPrisonWeapon@@V?$allocator@UUpDownMoveInfo@ioPrisonWeapon@@@std@@@std@@IBE_NPBUUpDownMoveInfo@ioPrisonWeapon@@@Z ; std::vector<ioPrisonWeapon::UpDownMoveInfo,std::allocator<ioPrisonWeapon::UpDownMoveInfo> >::_Inside
; Function compile flags: /Ogsp
;	COMDAT ?_Inside@?$vector@UUpDownMoveInfo@ioPrisonWeapon@@V?$allocator@UUpDownMoveInfo@ioPrisonWeapon@@@std@@@std@@IBE_NPBUUpDownMoveInfo@ioPrisonWeapon@@@Z
_TEXT	SEGMENT
__Ptr$ = 8						; size = 4
?_Inside@?$vector@UUpDownMoveInfo@ioPrisonWeapon@@V?$allocator@UUpDownMoveInfo@ioPrisonWeapon@@@std@@@std@@IBE_NPBUUpDownMoveInfo@ioPrisonWeapon@@@Z PROC ; std::vector<ioPrisonWeapon::UpDownMoveInfo,std::allocator<ioPrisonWeapon::UpDownMoveInfo> >::_Inside, COMDAT
; _this$ = ecx

; 1285 : 		{	// test if _Ptr points inside vector

  00000	55		 push	 ebp
  00001	8b ec		 mov	 ebp, esp

; 1286 : 		return (_Ptr < this->_Mylast && this->_Myfirst <= _Ptr);

  00003	8b 45 08	 mov	 eax, DWORD PTR __Ptr$[ebp]
  00006	3b 41 04	 cmp	 eax, DWORD PTR [ecx+4]
  00009	73 09		 jae	 SHORT $LN3@Inside
  0000b	39 01		 cmp	 DWORD PTR [ecx], eax
  0000d	77 05		 ja	 SHORT $LN3@Inside
  0000f	33 c0		 xor	 eax, eax
  00011	40		 inc	 eax
  00012	eb 02		 jmp	 SHORT $LN4@Inside
$LN3@Inside:
  00014	33 c0		 xor	 eax, eax
$LN4@Inside:

; 1287 : 		}

  00016	5d		 pop	 ebp
  00017	c2 04 00	 ret	 4
?_Inside@?$vector@UUpDownMoveInfo@ioPrisonWeapon@@V?$allocator@UUpDownMoveInfo@ioPrisonWeapon@@@std@@@std@@IBE_NPBUUpDownMoveInfo@ioPrisonWeapon@@@Z ENDP ; std::vector<ioPrisonWeapon::UpDownMoveInfo,std::allocator<ioPrisonWeapon::UpDownMoveInfo> >::_Inside
_TEXT	ENDS
PUBLIC	?_Orphan_range@?$vector@UUpDownMoveInfo@ioPrisonWeapon@@V?$allocator@UUpDownMoveInfo@ioPrisonWeapon@@@std@@@std@@IBEXPAUUpDownMoveInfo@ioPrisonWeapon@@0@Z ; std::vector<ioPrisonWeapon::UpDownMoveInfo,std::allocator<ioPrisonWeapon::UpDownMoveInfo> >::_Orphan_range
; Function compile flags: /Ogsp
;	COMDAT ?_Orphan_range@?$vector@UUpDownMoveInfo@ioPrisonWeapon@@V?$allocator@UUpDownMoveInfo@ioPrisonWeapon@@@std@@@std@@IBEXPAUUpDownMoveInfo@ioPrisonWeapon@@0@Z
_TEXT	SEGMENT
___formal$ = 8						; size = 4
___formal$ = 12						; size = 4
?_Orphan_range@?$vector@UUpDownMoveInfo@ioPrisonWeapon@@V?$allocator@UUpDownMoveInfo@ioPrisonWeapon@@@std@@@std@@IBEXPAUUpDownMoveInfo@ioPrisonWeapon@@0@Z PROC ; std::vector<ioPrisonWeapon::UpDownMoveInfo,std::allocator<ioPrisonWeapon::UpDownMoveInfo> >::_Orphan_range, COMDAT
; _this$ = ecx

; 1454 : 		}

  00000	c2 08 00	 ret	 8
?_Orphan_range@?$vector@UUpDownMoveInfo@ioPrisonWeapon@@V?$allocator@UUpDownMoveInfo@ioPrisonWeapon@@@std@@@std@@IBEXPAUUpDownMoveInfo@ioPrisonWeapon@@0@Z ENDP ; std::vector<ioPrisonWeapon::UpDownMoveInfo,std::allocator<ioPrisonWeapon::UpDownMoveInfo> >::_Orphan_range
_TEXT	ENDS
PUBLIC	??1?$_Vector_val@UUpDownMoveInfo@ioPrisonWeapon@@V?$allocator@UUpDownMoveInfo@ioPrisonWeapon@@@std@@@std@@QAE@XZ ; std::_Vector_val<ioPrisonWeapon::UpDownMoveInfo,std::allocator<ioPrisonWeapon::UpDownMoveInfo> >::~_Vector_val<ioPrisonWeapon::UpDownMoveInfo,std::allocator<ioPrisonWeapon::UpDownMoveInfo> >
; Function compile flags: /Ogsp
;	COMDAT ??1?$_Vector_val@UUpDownMoveInfo@ioPrisonWeapon@@V?$allocator@UUpDownMoveInfo@ioPrisonWeapon@@@std@@@std@@QAE@XZ
_TEXT	SEGMENT
??1?$_Vector_val@UUpDownMoveInfo@ioPrisonWeapon@@V?$allocator@UUpDownMoveInfo@ioPrisonWeapon@@@std@@@std@@QAE@XZ PROC ; std::_Vector_val<ioPrisonWeapon::UpDownMoveInfo,std::allocator<ioPrisonWeapon::UpDownMoveInfo> >::~_Vector_val<ioPrisonWeapon::UpDownMoveInfo,std::allocator<ioPrisonWeapon::UpDownMoveInfo> >, COMDAT
; _this$ = ecx

; 434  : 		}

  00000	c3		 ret	 0
??1?$_Vector_val@UUpDownMoveInfo@ioPrisonWeapon@@V?$allocator@UUpDownMoveInfo@ioPrisonWeapon@@@std@@@std@@QAE@XZ ENDP ; std::_Vector_val<ioPrisonWeapon::UpDownMoveInfo,std::allocator<ioPrisonWeapon::UpDownMoveInfo> >::~_Vector_val<ioPrisonWeapon::UpDownMoveInfo,std::allocator<ioPrisonWeapon::UpDownMoveInfo> >
_TEXT	ENDS
PUBLIC	??0?$allocator@UUpDownMoveInfo@ioPrisonWeapon@@@std@@QAE@XZ ; std::allocator<ioPrisonWeapon::UpDownMoveInfo>::allocator<ioPrisonWeapon::UpDownMoveInfo>
; Function compile flags: /Ogsp
; File c:\program files (x86)\microsoft visual studio 10.0\vc\include\xmemory
;	COMDAT ??0?$allocator@UUpDownMoveInfo@ioPrisonWeapon@@@std@@QAE@XZ
_TEXT	SEGMENT
??0?$allocator@UUpDownMoveInfo@ioPrisonWeapon@@@std@@QAE@XZ PROC ; std::allocator<ioPrisonWeapon::UpDownMoveInfo>::allocator<ioPrisonWeapon::UpDownMoveInfo>, COMDAT
; _this$ = ecx

; 161  : 	_ALLOCATOR() _THROW0()

  00000	8b c1		 mov	 eax, ecx

; 162  : 		{	// construct default allocator (do nothing)
; 163  : 		}

  00002	c3		 ret	 0
??0?$allocator@UUpDownMoveInfo@ioPrisonWeapon@@@std@@QAE@XZ ENDP ; std::allocator<ioPrisonWeapon::UpDownMoveInfo>::allocator<ioPrisonWeapon::UpDownMoveInfo>
_TEXT	ENDS
PUBLIC	??0?$allocator@UUpDownMoveInfo@ioPrisonWeapon@@@std@@QAE@ABV01@@Z ; std::allocator<ioPrisonWeapon::UpDownMoveInfo>::allocator<ioPrisonWeapon::UpDownMoveInfo>
; Function compile flags: /Ogsp
;	COMDAT ??0?$allocator@UUpDownMoveInfo@ioPrisonWeapon@@@std@@QAE@ABV01@@Z
_TEXT	SEGMENT
___formal$ = 8						; size = 4
??0?$allocator@UUpDownMoveInfo@ioPrisonWeapon@@@std@@QAE@ABV01@@Z PROC ; std::allocator<ioPrisonWeapon::UpDownMoveInfo>::allocator<ioPrisonWeapon::UpDownMoveInfo>, COMDAT
; _this$ = ecx

; 165  : 	_ALLOCATOR(const _ALLOCATOR<_Ty>&) _THROW0()

  00000	8b c1		 mov	 eax, ecx

; 166  : 		{	// construct by copying (do nothing)
; 167  : 		}

  00002	c2 04 00	 ret	 4
??0?$allocator@UUpDownMoveInfo@ioPrisonWeapon@@@std@@QAE@ABV01@@Z ENDP ; std::allocator<ioPrisonWeapon::UpDownMoveInfo>::allocator<ioPrisonWeapon::UpDownMoveInfo>
_TEXT	ENDS
PUBLIC	?_Inside@?$vector@UUpDownInfo@ioPrisonWeapon@@V?$allocator@UUpDownInfo@ioPrisonWeapon@@@std@@@std@@IBE_NPBUUpDownInfo@ioPrisonWeapon@@@Z ; std::vector<ioPrisonWeapon::UpDownInfo,std::allocator<ioPrisonWeapon::UpDownInfo> >::_Inside
; Function compile flags: /Ogsp
; File c:\program files (x86)\microsoft visual studio 10.0\vc\include\vector
;	COMDAT ?_Inside@?$vector@UUpDownInfo@ioPrisonWeapon@@V?$allocator@UUpDownInfo@ioPrisonWeapon@@@std@@@std@@IBE_NPBUUpDownInfo@ioPrisonWeapon@@@Z
_TEXT	SEGMENT
__Ptr$ = 8						; size = 4
?_Inside@?$vector@UUpDownInfo@ioPrisonWeapon@@V?$allocator@UUpDownInfo@ioPrisonWeapon@@@std@@@std@@IBE_NPBUUpDownInfo@ioPrisonWeapon@@@Z PROC ; std::vector<ioPrisonWeapon::UpDownInfo,std::allocator<ioPrisonWeapon::UpDownInfo> >::_Inside, COMDAT
; _this$ = ecx

; 1285 : 		{	// test if _Ptr points inside vector

  00000	55		 push	 ebp
  00001	8b ec		 mov	 ebp, esp

; 1286 : 		return (_Ptr < this->_Mylast && this->_Myfirst <= _Ptr);

  00003	8b 45 08	 mov	 eax, DWORD PTR __Ptr$[ebp]
  00006	3b 41 04	 cmp	 eax, DWORD PTR [ecx+4]
  00009	73 09		 jae	 SHORT $LN3@Inside@2
  0000b	39 01		 cmp	 DWORD PTR [ecx], eax
  0000d	77 05		 ja	 SHORT $LN3@Inside@2
  0000f	33 c0		 xor	 eax, eax
  00011	40		 inc	 eax
  00012	eb 02		 jmp	 SHORT $LN4@Inside@2
$LN3@Inside@2:
  00014	33 c0		 xor	 eax, eax
$LN4@Inside@2:

; 1287 : 		}

  00016	5d		 pop	 ebp
  00017	c2 04 00	 ret	 4
?_Inside@?$vector@UUpDownInfo@ioPrisonWeapon@@V?$allocator@UUpDownInfo@ioPrisonWeapon@@@std@@@std@@IBE_NPBUUpDownInfo@ioPrisonWeapon@@@Z ENDP ; std::vector<ioPrisonWeapon::UpDownInfo,std::allocator<ioPrisonWeapon::UpDownInfo> >::_Inside
_TEXT	ENDS
PUBLIC	?_Orphan_range@?$vector@UUpDownInfo@ioPrisonWeapon@@V?$allocator@UUpDownInfo@ioPrisonWeapon@@@std@@@std@@IBEXPAUUpDownInfo@ioPrisonWeapon@@0@Z ; std::vector<ioPrisonWeapon::UpDownInfo,std::allocator<ioPrisonWeapon::UpDownInfo> >::_Orphan_range
; Function compile flags: /Ogsp
;	COMDAT ?_Orphan_range@?$vector@UUpDownInfo@ioPrisonWeapon@@V?$allocator@UUpDownInfo@ioPrisonWeapon@@@std@@@std@@IBEXPAUUpDownInfo@ioPrisonWeapon@@0@Z
_TEXT	SEGMENT
___formal$ = 8						; size = 4
___formal$ = 12						; size = 4
?_Orphan_range@?$vector@UUpDownInfo@ioPrisonWeapon@@V?$allocator@UUpDownInfo@ioPrisonWeapon@@@std@@@std@@IBEXPAUUpDownInfo@ioPrisonWeapon@@0@Z PROC ; std::vector<ioPrisonWeapon::UpDownInfo,std::allocator<ioPrisonWeapon::UpDownInfo> >::_Orphan_range, COMDAT
; _this$ = ecx

; 1454 : 		}

  00000	c2 08 00	 ret	 8
?_Orphan_range@?$vector@UUpDownInfo@ioPrisonWeapon@@V?$allocator@UUpDownInfo@ioPrisonWeapon@@@std@@@std@@IBEXPAUUpDownInfo@ioPrisonWeapon@@0@Z ENDP ; std::vector<ioPrisonWeapon::UpDownInfo,std::allocator<ioPrisonWeapon::UpDownInfo> >::_Orphan_range
_TEXT	ENDS
PUBLIC	??1?$_Vector_val@UUpDownInfo@ioPrisonWeapon@@V?$allocator@UUpDownInfo@ioPrisonWeapon@@@std@@@std@@QAE@XZ ; std::_Vector_val<ioPrisonWeapon::UpDownInfo,std::allocator<ioPrisonWeapon::UpDownInfo> >::~_Vector_val<ioPrisonWeapon::UpDownInfo,std::allocator<ioPrisonWeapon::UpDownInfo> >
; Function compile flags: /Ogsp
;	COMDAT ??1?$_Vector_val@UUpDownInfo@ioPrisonWeapon@@V?$allocator@UUpDownInfo@ioPrisonWeapon@@@std@@@std@@QAE@XZ
_TEXT	SEGMENT
??1?$_Vector_val@UUpDownInfo@ioPrisonWeapon@@V?$allocator@UUpDownInfo@ioPrisonWeapon@@@std@@@std@@QAE@XZ PROC ; std::_Vector_val<ioPrisonWeapon::UpDownInfo,std::allocator<ioPrisonWeapon::UpDownInfo> >::~_Vector_val<ioPrisonWeapon::UpDownInfo,std::allocator<ioPrisonWeapon::UpDownInfo> >, COMDAT
; _this$ = ecx

; 434  : 		}

  00000	c3		 ret	 0
??1?$_Vector_val@UUpDownInfo@ioPrisonWeapon@@V?$allocator@UUpDownInfo@ioPrisonWeapon@@@std@@@std@@QAE@XZ ENDP ; std::_Vector_val<ioPrisonWeapon::UpDownInfo,std::allocator<ioPrisonWeapon::UpDownInfo> >::~_Vector_val<ioPrisonWeapon::UpDownInfo,std::allocator<ioPrisonWeapon::UpDownInfo> >
_TEXT	ENDS
PUBLIC	??0?$allocator@UUpDownInfo@ioPrisonWeapon@@@std@@QAE@XZ ; std::allocator<ioPrisonWeapon::UpDownInfo>::allocator<ioPrisonWeapon::UpDownInfo>
; Function compile flags: /Ogsp
; File c:\program files (x86)\microsoft visual studio 10.0\vc\include\xmemory
;	COMDAT ??0?$allocator@UUpDownInfo@ioPrisonWeapon@@@std@@QAE@XZ
_TEXT	SEGMENT
??0?$allocator@UUpDownInfo@ioPrisonWeapon@@@std@@QAE@XZ PROC ; std::allocator<ioPrisonWeapon::UpDownInfo>::allocator<ioPrisonWeapon::UpDownInfo>, COMDAT
; _this$ = ecx

; 161  : 	_ALLOCATOR() _THROW0()

  00000	8b c1		 mov	 eax, ecx

; 162  : 		{	// construct default allocator (do nothing)
; 163  : 		}

  00002	c3		 ret	 0
??0?$allocator@UUpDownInfo@ioPrisonWeapon@@@std@@QAE@XZ ENDP ; std::allocator<ioPrisonWeapon::UpDownInfo>::allocator<ioPrisonWeapon::UpDownInfo>
_TEXT	ENDS
PUBLIC	?capacity@?$vector@UUpDownMoveInfo@ioPrisonWeapon@@V?$allocator@UUpDownMoveInfo@ioPrisonWeapon@@@std@@@std@@QBEIXZ ; std::vector<ioPrisonWeapon::UpDownMoveInfo,std::allocator<ioPrisonWeapon::UpDownMoveInfo> >::capacity
; Function compile flags: /Ogsp
; File c:\program files (x86)\microsoft visual studio 10.0\vc\include\vector
;	COMDAT ?capacity@?$vector@UUpDownMoveInfo@ioPrisonWeapon@@V?$allocator@UUpDownMoveInfo@ioPrisonWeapon@@@std@@@std@@QBEIXZ
_TEXT	SEGMENT
?capacity@?$vector@UUpDownMoveInfo@ioPrisonWeapon@@V?$allocator@UUpDownMoveInfo@ioPrisonWeapon@@@std@@@std@@QBEIXZ PROC ; std::vector<ioPrisonWeapon::UpDownMoveInfo,std::allocator<ioPrisonWeapon::UpDownMoveInfo> >::capacity, COMDAT
; _this$ = ecx

; 777  : 		return (this->_Myend - this->_Myfirst);

  00000	8b 41 08	 mov	 eax, DWORD PTR [ecx+8]
  00003	2b 01		 sub	 eax, DWORD PTR [ecx]
  00005	6a 0c		 push	 12			; 0000000cH
  00007	99		 cdq
  00008	59		 pop	 ecx
  00009	f7 f9		 idiv	 ecx

; 778  : 		}

  0000b	c3		 ret	 0
?capacity@?$vector@UUpDownMoveInfo@ioPrisonWeapon@@V?$allocator@UUpDownMoveInfo@ioPrisonWeapon@@@std@@@std@@QBEIXZ ENDP ; std::vector<ioPrisonWeapon::UpDownMoveInfo,std::allocator<ioPrisonWeapon::UpDownMoveInfo> >::capacity
_TEXT	ENDS
PUBLIC	??_C@_0BD@OLBABOEK@vector?$DMT?$DO?5too?5long?$AA@ ; `string'
PUBLIC	?_Xlen@?$vector@UUpDownMoveInfo@ioPrisonWeapon@@V?$allocator@UUpDownMoveInfo@ioPrisonWeapon@@@std@@@std@@IBEXXZ ; std::vector<ioPrisonWeapon::UpDownMoveInfo,std::allocator<ioPrisonWeapon::UpDownMoveInfo> >::_Xlen
EXTRN	__imp_?_Xlength_error@std@@YAXPBD@Z:PROC
;	COMDAT ??_C@_0BD@OLBABOEK@vector?$DMT?$DO?5too?5long?$AA@
CONST	SEGMENT
??_C@_0BD@OLBABOEK@vector?$DMT?$DO?5too?5long?$AA@ DB 'vector<T> too long'
	DB	00H						; `string'
; Function compile flags: /Ogsp
CONST	ENDS
;	COMDAT ?_Xlen@?$vector@UUpDownMoveInfo@ioPrisonWeapon@@V?$allocator@UUpDownMoveInfo@ioPrisonWeapon@@@std@@@std@@IBEXXZ
_TEXT	SEGMENT
?_Xlen@?$vector@UUpDownMoveInfo@ioPrisonWeapon@@V?$allocator@UUpDownMoveInfo@ioPrisonWeapon@@@std@@@std@@IBEXXZ PROC ; std::vector<ioPrisonWeapon::UpDownMoveInfo,std::allocator<ioPrisonWeapon::UpDownMoveInfo> >::_Xlen, COMDAT
; _this$ = ecx

; 1427 : 		_Xlength_error("vector<T> too long");

  00000	68 00 00 00 00	 push	 OFFSET ??_C@_0BD@OLBABOEK@vector?$DMT?$DO?5too?5long?$AA@
  00005	ff 15 00 00 00
	00		 call	 DWORD PTR __imp_?_Xlength_error@std@@YAXPBD@Z
$LN4@Xlen:
$LN3@Xlen:
  0000b	cc		 int	 3
?_Xlen@?$vector@UUpDownMoveInfo@ioPrisonWeapon@@V?$allocator@UUpDownMoveInfo@ioPrisonWeapon@@@std@@@std@@IBEXXZ ENDP ; std::vector<ioPrisonWeapon::UpDownMoveInfo,std::allocator<ioPrisonWeapon::UpDownMoveInfo> >::_Xlen
_TEXT	ENDS
PUBLIC	?deallocate@?$allocator@UUpDownMoveInfo@ioPrisonWeapon@@@std@@QAEXPAUUpDownMoveInfo@ioPrisonWeapon@@I@Z ; std::allocator<ioPrisonWeapon::UpDownMoveInfo>::deallocate
; Function compile flags: /Ogsp
; File c:\program files (x86)\microsoft visual studio 10.0\vc\include\xmemory
;	COMDAT ?deallocate@?$allocator@UUpDownMoveInfo@ioPrisonWeapon@@@std@@QAEXPAUUpDownMoveInfo@ioPrisonWeapon@@I@Z
_TEXT	SEGMENT
__Ptr$ = 8						; size = 4
___formal$ = 12						; size = 4
?deallocate@?$allocator@UUpDownMoveInfo@ioPrisonWeapon@@@std@@QAEXPAUUpDownMoveInfo@ioPrisonWeapon@@I@Z PROC ; std::allocator<ioPrisonWeapon::UpDownMoveInfo>::deallocate, COMDAT
; _this$ = ecx

; 181  : 		{	// deallocate object at _Ptr, ignore size

  00000	55		 push	 ebp
  00001	8b ec		 mov	 ebp, esp

; 182  : 		::operator delete(_Ptr);

  00003	ff 75 08	 push	 DWORD PTR __Ptr$[ebp]
  00006	e8 00 00 00 00	 call	 ??3@YAXPAX@Z		; operator delete
  0000b	59		 pop	 ecx

; 183  : 		}

  0000c	5d		 pop	 ebp
  0000d	c2 08 00	 ret	 8
?deallocate@?$allocator@UUpDownMoveInfo@ioPrisonWeapon@@@std@@QAEXPAUUpDownMoveInfo@ioPrisonWeapon@@I@Z ENDP ; std::allocator<ioPrisonWeapon::UpDownMoveInfo>::deallocate
_TEXT	ENDS
PUBLIC	?capacity@?$vector@UUpDownInfo@ioPrisonWeapon@@V?$allocator@UUpDownInfo@ioPrisonWeapon@@@std@@@std@@QBEIXZ ; std::vector<ioPrisonWeapon::UpDownInfo,std::allocator<ioPrisonWeapon::UpDownInfo> >::capacity
; Function compile flags: /Ogsp
; File c:\program files (x86)\microsoft visual studio 10.0\vc\include\vector
;	COMDAT ?capacity@?$vector@UUpDownInfo@ioPrisonWeapon@@V?$allocator@UUpDownInfo@ioPrisonWeapon@@@std@@@std@@QBEIXZ
_TEXT	SEGMENT
?capacity@?$vector@UUpDownInfo@ioPrisonWeapon@@V?$allocator@UUpDownInfo@ioPrisonWeapon@@@std@@@std@@QBEIXZ PROC ; std::vector<ioPrisonWeapon::UpDownInfo,std::allocator<ioPrisonWeapon::UpDownInfo> >::capacity, COMDAT
; _this$ = ecx

; 777  : 		return (this->_Myend - this->_Myfirst);

  00000	8b 41 08	 mov	 eax, DWORD PTR [ecx+8]
  00003	2b 01		 sub	 eax, DWORD PTR [ecx]
  00005	6a 14		 push	 20			; 00000014H
  00007	99		 cdq
  00008	59		 pop	 ecx
  00009	f7 f9		 idiv	 ecx

; 778  : 		}

  0000b	c3		 ret	 0
?capacity@?$vector@UUpDownInfo@ioPrisonWeapon@@V?$allocator@UUpDownInfo@ioPrisonWeapon@@@std@@@std@@QBEIXZ ENDP ; std::vector<ioPrisonWeapon::UpDownInfo,std::allocator<ioPrisonWeapon::UpDownInfo> >::capacity
_TEXT	ENDS
PUBLIC	?_Xlen@?$vector@UUpDownInfo@ioPrisonWeapon@@V?$allocator@UUpDownInfo@ioPrisonWeapon@@@std@@@std@@IBEXXZ ; std::vector<ioPrisonWeapon::UpDownInfo,std::allocator<ioPrisonWeapon::UpDownInfo> >::_Xlen
; Function compile flags: /Ogsp
;	COMDAT ?_Xlen@?$vector@UUpDownInfo@ioPrisonWeapon@@V?$allocator@UUpDownInfo@ioPrisonWeapon@@@std@@@std@@IBEXXZ
_TEXT	SEGMENT
?_Xlen@?$vector@UUpDownInfo@ioPrisonWeapon@@V?$allocator@UUpDownInfo@ioPrisonWeapon@@@std@@@std@@IBEXXZ PROC ; std::vector<ioPrisonWeapon::UpDownInfo,std::allocator<ioPrisonWeapon::UpDownInfo> >::_Xlen, COMDAT
; _this$ = ecx

; 1427 : 		_Xlength_error("vector<T> too long");

  00000	68 00 00 00 00	 push	 OFFSET ??_C@_0BD@OLBABOEK@vector?$DMT?$DO?5too?5long?$AA@
  00005	ff 15 00 00 00
	00		 call	 DWORD PTR __imp_?_Xlength_error@std@@YAXPBD@Z
$LN4@Xlen@2:
$LN3@Xlen@2:
  0000b	cc		 int	 3
?_Xlen@?$vector@UUpDownInfo@ioPrisonWeapon@@V?$allocator@UUpDownInfo@ioPrisonWeapon@@@std@@@std@@IBEXXZ ENDP ; std::vector<ioPrisonWeapon::UpDownInfo,std::allocator<ioPrisonWeapon::UpDownInfo> >::_Xlen
_TEXT	ENDS
PUBLIC	??0?$allocator@UUpDownInfo@ioPrisonWeapon@@@std@@QAE@ABV01@@Z ; std::allocator<ioPrisonWeapon::UpDownInfo>::allocator<ioPrisonWeapon::UpDownInfo>
; Function compile flags: /Ogsp
; File c:\program files (x86)\microsoft visual studio 10.0\vc\include\xmemory
;	COMDAT ??0?$allocator@UUpDownInfo@ioPrisonWeapon@@@std@@QAE@ABV01@@Z
_TEXT	SEGMENT
___formal$ = 8						; size = 4
??0?$allocator@UUpDownInfo@ioPrisonWeapon@@@std@@QAE@ABV01@@Z PROC ; std::allocator<ioPrisonWeapon::UpDownInfo>::allocator<ioPrisonWeapon::UpDownInfo>, COMDAT
; _this$ = ecx

; 165  : 	_ALLOCATOR(const _ALLOCATOR<_Ty>&) _THROW0()

  00000	8b c1		 mov	 eax, ecx

; 166  : 		{	// construct by copying (do nothing)
; 167  : 		}

  00002	c2 04 00	 ret	 4
??0?$allocator@UUpDownInfo@ioPrisonWeapon@@@std@@QAE@ABV01@@Z ENDP ; std::allocator<ioPrisonWeapon::UpDownInfo>::allocator<ioPrisonWeapon::UpDownInfo>
_TEXT	ENDS
PUBLIC	?deallocate@?$allocator@UUpDownInfo@ioPrisonWeapon@@@std@@QAEXPAUUpDownInfo@ioPrisonWeapon@@I@Z ; std::allocator<ioPrisonWeapon::UpDownInfo>::deallocate
; Function compile flags: /Ogsp
;	COMDAT ?deallocate@?$allocator@UUpDownInfo@ioPrisonWeapon@@@std@@QAEXPAUUpDownInfo@ioPrisonWeapon@@I@Z
_TEXT	SEGMENT
__Ptr$ = 8						; size = 4
___formal$ = 12						; size = 4
?deallocate@?$allocator@UUpDownInfo@ioPrisonWeapon@@@std@@QAEXPAUUpDownInfo@ioPrisonWeapon@@I@Z PROC ; std::allocator<ioPrisonWeapon::UpDownInfo>::deallocate, COMDAT
; _this$ = ecx

; 181  : 		{	// deallocate object at _Ptr, ignore size

  00000	55		 push	 ebp
  00001	8b ec		 mov	 ebp, esp

; 182  : 		::operator delete(_Ptr);

  00003	ff 75 08	 push	 DWORD PTR __Ptr$[ebp]
  00006	e8 00 00 00 00	 call	 ??3@YAXPAX@Z		; operator delete
  0000b	59		 pop	 ecx

; 183  : 		}

  0000c	5d		 pop	 ebp
  0000d	c2 08 00	 ret	 8
?deallocate@?$allocator@UUpDownInfo@ioPrisonWeapon@@@std@@QAEXPAUUpDownInfo@ioPrisonWeapon@@I@Z ENDP ; std::allocator<ioPrisonWeapon::UpDownInfo>::deallocate
_TEXT	ENDS
PUBLIC	??0?$_Vector_const_iterator@V?$_Vector_val@UUpDownMoveInfo@ioPrisonWeapon@@V?$allocator@UUpDownMoveInfo@ioPrisonWeapon@@@std@@@std@@@std@@QAE@PAUUpDownMoveInfo@ioPrisonWeapon@@PBU_Container_base0@1@@Z ; std::_Vector_const_iterator<std::_Vector_val<ioPrisonWeapon::UpDownMoveInfo,std::allocator<ioPrisonWeapon::UpDownMoveInfo> > >::_Vector_const_iterator<std::_Vector_val<ioPrisonWeapon::UpDownMoveInfo,std::allocator<ioPrisonWeapon::UpDownMoveInfo> > >
; Function compile flags: /Ogsp
; File c:\program files (x86)\microsoft visual studio 10.0\vc\include\vector
;	COMDAT ??0?$_Vector_const_iterator@V?$_Vector_val@UUpDownMoveInfo@ioPrisonWeapon@@V?$allocator@UUpDownMoveInfo@ioPrisonWeapon@@@std@@@std@@@std@@QAE@PAUUpDownMoveInfo@ioPrisonWeapon@@PBU_Container_base0@1@@Z
_TEXT	SEGMENT
__Parg$ = 8						; size = 4
__Pvector$ = 12						; size = 4
??0?$_Vector_const_iterator@V?$_Vector_val@UUpDownMoveInfo@ioPrisonWeapon@@V?$allocator@UUpDownMoveInfo@ioPrisonWeapon@@@std@@@std@@@std@@QAE@PAUUpDownMoveInfo@ioPrisonWeapon@@PBU_Container_base0@1@@Z PROC ; std::_Vector_const_iterator<std::_Vector_val<ioPrisonWeapon::UpDownMoveInfo,std::allocator<ioPrisonWeapon::UpDownMoveInfo> > >::_Vector_const_iterator<std::_Vector_val<ioPrisonWeapon::UpDownMoveInfo,std::allocator<ioPrisonWeapon::UpDownMoveInfo> > >, COMDAT
; _this$ = ecx

; 45   : 		{	// construct with pointer _Parg

  00000	55		 push	 ebp
  00001	8b ec		 mov	 ebp, esp
  00003	8b c1		 mov	 eax, ecx
  00005	8b 4d 08	 mov	 ecx, DWORD PTR __Parg$[ebp]
  00008	89 08		 mov	 DWORD PTR [eax], ecx

; 46   : 		this->_Adopt(_Pvector);
; 47   : 		}

  0000a	5d		 pop	 ebp
  0000b	c2 08 00	 ret	 8
??0?$_Vector_const_iterator@V?$_Vector_val@UUpDownMoveInfo@ioPrisonWeapon@@V?$allocator@UUpDownMoveInfo@ioPrisonWeapon@@@std@@@std@@@std@@QAE@PAUUpDownMoveInfo@ioPrisonWeapon@@PBU_Container_base0@1@@Z ENDP ; std::_Vector_const_iterator<std::_Vector_val<ioPrisonWeapon::UpDownMoveInfo,std::allocator<ioPrisonWeapon::UpDownMoveInfo> > >::_Vector_const_iterator<std::_Vector_val<ioPrisonWeapon::UpDownMoveInfo,std::allocator<ioPrisonWeapon::UpDownMoveInfo> > >
_TEXT	ENDS
PUBLIC	?_Compat@?$_Vector_const_iterator@V?$_Vector_val@UUpDownMoveInfo@ioPrisonWeapon@@V?$allocator@UUpDownMoveInfo@ioPrisonWeapon@@@std@@@std@@@std@@QBEXABV12@@Z ; std::_Vector_const_iterator<std::_Vector_val<ioPrisonWeapon::UpDownMoveInfo,std::allocator<ioPrisonWeapon::UpDownMoveInfo> > >::_Compat
; Function compile flags: /Ogsp
;	COMDAT ?_Compat@?$_Vector_const_iterator@V?$_Vector_val@UUpDownMoveInfo@ioPrisonWeapon@@V?$allocator@UUpDownMoveInfo@ioPrisonWeapon@@@std@@@std@@@std@@QBEXABV12@@Z
_TEXT	SEGMENT
___formal$ = 8						; size = 4
?_Compat@?$_Vector_const_iterator@V?$_Vector_val@UUpDownMoveInfo@ioPrisonWeapon@@V?$allocator@UUpDownMoveInfo@ioPrisonWeapon@@@std@@@std@@@std@@QBEXABV12@@Z PROC ; std::_Vector_const_iterator<std::_Vector_val<ioPrisonWeapon::UpDownMoveInfo,std::allocator<ioPrisonWeapon::UpDownMoveInfo> > >::_Compat, COMDAT
; _this$ = ecx

; 253  : 		}

  00000	c2 04 00	 ret	 4
?_Compat@?$_Vector_const_iterator@V?$_Vector_val@UUpDownMoveInfo@ioPrisonWeapon@@V?$allocator@UUpDownMoveInfo@ioPrisonWeapon@@@std@@@std@@@std@@QBEXABV12@@Z ENDP ; std::_Vector_const_iterator<std::_Vector_val<ioPrisonWeapon::UpDownMoveInfo,std::allocator<ioPrisonWeapon::UpDownMoveInfo> > >::_Compat
_TEXT	ENDS
PUBLIC	?max_size@?$allocator@UUpDownMoveInfo@ioPrisonWeapon@@@std@@QBEIXZ ; std::allocator<ioPrisonWeapon::UpDownMoveInfo>::max_size
; Function compile flags: /Ogsp
; File c:\program files (x86)\microsoft visual studio 10.0\vc\include\xmemory
;	COMDAT ?max_size@?$allocator@UUpDownMoveInfo@ioPrisonWeapon@@@std@@QBEIXZ
_TEXT	SEGMENT
?max_size@?$allocator@UUpDownMoveInfo@ioPrisonWeapon@@@std@@QBEIXZ PROC ; std::allocator<ioPrisonWeapon::UpDownMoveInfo>::max_size, COMDAT
; _this$ = ecx

; 218  : 		_SIZT _Count = (_SIZT)(-1) / sizeof (_Ty);
; 219  : 		return (0 < _Count ? _Count : 1);

  00000	b8 55 55 55 15	 mov	 eax, 357913941		; 15555555H

; 220  : 		}

  00005	c3		 ret	 0
?max_size@?$allocator@UUpDownMoveInfo@ioPrisonWeapon@@@std@@QBEIXZ ENDP ; std::allocator<ioPrisonWeapon::UpDownMoveInfo>::max_size
_TEXT	ENDS
PUBLIC	?max_size@?$allocator@UUpDownInfo@ioPrisonWeapon@@@std@@QBEIXZ ; std::allocator<ioPrisonWeapon::UpDownInfo>::max_size
; Function compile flags: /Ogsp
;	COMDAT ?max_size@?$allocator@UUpDownInfo@ioPrisonWeapon@@@std@@QBEIXZ
_TEXT	SEGMENT
?max_size@?$allocator@UUpDownInfo@ioPrisonWeapon@@@std@@QBEIXZ PROC ; std::allocator<ioPrisonWeapon::UpDownInfo>::max_size, COMDAT
; _this$ = ecx

; 218  : 		_SIZT _Count = (_SIZT)(-1) / sizeof (_Ty);
; 219  : 		return (0 < _Count ? _Count : 1);

  00000	b8 cc cc cc 0c	 mov	 eax, 214748364		; 0cccccccH

; 220  : 		}

  00005	c3		 ret	 0
?max_size@?$allocator@UUpDownInfo@ioPrisonWeapon@@@std@@QBEIXZ ENDP ; std::allocator<ioPrisonWeapon::UpDownInfo>::max_size
_TEXT	ENDS
PUBLIC	??0?$_Vector_const_iterator@V?$_Vector_val@UUpDownInfo@ioPrisonWeapon@@V?$allocator@UUpDownInfo@ioPrisonWeapon@@@std@@@std@@@std@@QAE@PAUUpDownInfo@ioPrisonWeapon@@PBU_Container_base0@1@@Z ; std::_Vector_const_iterator<std::_Vector_val<ioPrisonWeapon::UpDownInfo,std::allocator<ioPrisonWeapon::UpDownInfo> > >::_Vector_const_iterator<std::_Vector_val<ioPrisonWeapon::UpDownInfo,std::allocator<ioPrisonWeapon::UpDownInfo> > >
; Function compile flags: /Ogsp
; File c:\program files (x86)\microsoft visual studio 10.0\vc\include\vector
;	COMDAT ??0?$_Vector_const_iterator@V?$_Vector_val@UUpDownInfo@ioPrisonWeapon@@V?$allocator@UUpDownInfo@ioPrisonWeapon@@@std@@@std@@@std@@QAE@PAUUpDownInfo@ioPrisonWeapon@@PBU_Container_base0@1@@Z
_TEXT	SEGMENT
__Parg$ = 8						; size = 4
__Pvector$ = 12						; size = 4
??0?$_Vector_const_iterator@V?$_Vector_val@UUpDownInfo@ioPrisonWeapon@@V?$allocator@UUpDownInfo@ioPrisonWeapon@@@std@@@std@@@std@@QAE@PAUUpDownInfo@ioPrisonWeapon@@PBU_Container_base0@1@@Z PROC ; std::_Vector_const_iterator<std::_Vector_val<ioPrisonWeapon::UpDownInfo,std::allocator<ioPrisonWeapon::UpDownInfo> > >::_Vector_const_iterator<std::_Vector_val<ioPrisonWeapon::UpDownInfo,std::allocator<ioPrisonWeapon::UpDownInfo> > >, COMDAT
; _this$ = ecx

; 45   : 		{	// construct with pointer _Parg

  00000	55		 push	 ebp
  00001	8b ec		 mov	 ebp, esp
  00003	8b c1		 mov	 eax, ecx
  00005	8b 4d 08	 mov	 ecx, DWORD PTR __Parg$[ebp]
  00008	89 08		 mov	 DWORD PTR [eax], ecx

; 46   : 		this->_Adopt(_Pvector);
; 47   : 		}

  0000a	5d		 pop	 ebp
  0000b	c2 08 00	 ret	 8
??0?$_Vector_const_iterator@V?$_Vector_val@UUpDownInfo@ioPrisonWeapon@@V?$allocator@UUpDownInfo@ioPrisonWeapon@@@std@@@std@@@std@@QAE@PAUUpDownInfo@ioPrisonWeapon@@PBU_Container_base0@1@@Z ENDP ; std::_Vector_const_iterator<std::_Vector_val<ioPrisonWeapon::UpDownInfo,std::allocator<ioPrisonWeapon::UpDownInfo> > >::_Vector_const_iterator<std::_Vector_val<ioPrisonWeapon::UpDownInfo,std::allocator<ioPrisonWeapon::UpDownInfo> > >
_TEXT	ENDS
PUBLIC	?_Compat@?$_Vector_const_iterator@V?$_Vector_val@UUpDownInfo@ioPrisonWeapon@@V?$allocator@UUpDownInfo@ioPrisonWeapon@@@std@@@std@@@std@@QBEXABV12@@Z ; std::_Vector_const_iterator<std::_Vector_val<ioPrisonWeapon::UpDownInfo,std::allocator<ioPrisonWeapon::UpDownInfo> > >::_Compat
; Function compile flags: /Ogsp
;	COMDAT ?_Compat@?$_Vector_const_iterator@V?$_Vector_val@UUpDownInfo@ioPrisonWeapon@@V?$allocator@UUpDownInfo@ioPrisonWeapon@@@std@@@std@@@std@@QBEXABV12@@Z
_TEXT	SEGMENT
___formal$ = 8						; size = 4
?_Compat@?$_Vector_const_iterator@V?$_Vector_val@UUpDownInfo@ioPrisonWeapon@@V?$allocator@UUpDownInfo@ioPrisonWeapon@@@std@@@std@@@std@@QBEXABV12@@Z PROC ; std::_Vector_const_iterator<std::_Vector_val<ioPrisonWeapon::UpDownInfo,std::allocator<ioPrisonWeapon::UpDownInfo> > >::_Compat, COMDAT
; _this$ = ecx

; 253  : 		}

  00000	c2 04 00	 ret	 4
?_Compat@?$_Vector_const_iterator@V?$_Vector_val@UUpDownInfo@ioPrisonWeapon@@V?$allocator@UUpDownInfo@ioPrisonWeapon@@@std@@@std@@@std@@QBEXABV12@@Z ENDP ; std::_Vector_const_iterator<std::_Vector_val<ioPrisonWeapon::UpDownInfo,std::allocator<ioPrisonWeapon::UpDownInfo> > >::_Compat
_TEXT	ENDS
PUBLIC	??$addressof@$$CBUUpDownMoveInfo@ioPrisonWeapon@@@std@@YAPBUUpDownMoveInfo@ioPrisonWeapon@@ABU12@@Z ; std::addressof<ioPrisonWeapon::UpDownMoveInfo const >
; Function compile flags: /Ogsp
; File c:\program files (x86)\microsoft visual studio 10.0\vc\include\xmemory
;	COMDAT ??$addressof@$$CBUUpDownMoveInfo@ioPrisonWeapon@@@std@@YAPBUUpDownMoveInfo@ioPrisonWeapon@@ABU12@@Z
_TEXT	SEGMENT
__Val$ = 8						; size = 4
??$addressof@$$CBUUpDownMoveInfo@ioPrisonWeapon@@@std@@YAPBUUpDownMoveInfo@ioPrisonWeapon@@ABU12@@Z PROC ; std::addressof<ioPrisonWeapon::UpDownMoveInfo const >, COMDAT

; 110  : 	{	// return address of _Val

  00000	55		 push	 ebp
  00001	8b ec		 mov	 ebp, esp

; 111  : 	return ((_Ty *) &(char&)_Val);

  00003	8b 45 08	 mov	 eax, DWORD PTR __Val$[ebp]

; 112  : 	}

  00006	5d		 pop	 ebp
  00007	c3		 ret	 0
??$addressof@$$CBUUpDownMoveInfo@ioPrisonWeapon@@@std@@YAPBUUpDownMoveInfo@ioPrisonWeapon@@ABU12@@Z ENDP ; std::addressof<ioPrisonWeapon::UpDownMoveInfo const >
_TEXT	ENDS
PUBLIC	??$addressof@$$CBUUpDownInfo@ioPrisonWeapon@@@std@@YAPBUUpDownInfo@ioPrisonWeapon@@ABU12@@Z ; std::addressof<ioPrisonWeapon::UpDownInfo const >
; Function compile flags: /Ogsp
;	COMDAT ??$addressof@$$CBUUpDownInfo@ioPrisonWeapon@@@std@@YAPBUUpDownInfo@ioPrisonWeapon@@ABU12@@Z
_TEXT	SEGMENT
__Val$ = 8						; size = 4
??$addressof@$$CBUUpDownInfo@ioPrisonWeapon@@@std@@YAPBUUpDownInfo@ioPrisonWeapon@@ABU12@@Z PROC ; std::addressof<ioPrisonWeapon::UpDownInfo const >, COMDAT

; 110  : 	{	// return address of _Val

  00000	55		 push	 ebp
  00001	8b ec		 mov	 ebp, esp

; 111  : 	return ((_Ty *) &(char&)_Val);

  00003	8b 45 08	 mov	 eax, DWORD PTR __Val$[ebp]

; 112  : 	}

  00006	5d		 pop	 ebp
  00007	c3		 ret	 0
??$addressof@$$CBUUpDownInfo@ioPrisonWeapon@@@std@@YAPBUUpDownInfo@ioPrisonWeapon@@ABU12@@Z ENDP ; std::addressof<ioPrisonWeapon::UpDownInfo const >
_TEXT	ENDS
PUBLIC	__TI2?AVbad_alloc@std@@
PUBLIC	??$_Allocate@UUpDownMoveInfo@ioPrisonWeapon@@@std@@YAPAUUpDownMoveInfo@ioPrisonWeapon@@IPAU12@@Z ; std::_Allocate<ioPrisonWeapon::UpDownMoveInfo>
PUBLIC	__CTA2?AVbad_alloc@std@@
PUBLIC	__CT??_R0?AVbad_alloc@std@@@8??0bad_alloc@std@@QAE@ABV01@@Z12
PUBLIC	??0bad_alloc@std@@QAE@ABV01@@Z			; std::bad_alloc::bad_alloc
PUBLIC	__CT??_R0?AVexception@std@@@8??0exception@std@@QAE@ABV01@@Z12
EXTRN	??2@YAPAXI@Z:PROC				; operator new
EXTRN	__CxxThrowException@8:PROC
EXTRN	??0exception@std@@QAE@ABV01@@Z:PROC		; std::exception::exception
;	COMDAT __CT??_R0?AVexception@std@@@8??0exception@std@@QAE@ABV01@@Z12
; File c:\program files (x86)\microsoft visual studio 10.0\vc\include\exception
xdata$x	SEGMENT
__CT??_R0?AVexception@std@@@8??0exception@std@@QAE@ABV01@@Z12 DD 00H
	DD	FLAT:??_R0?AVexception@std@@@8
	DD	00H
	DD	0ffffffffH
	ORG $+4
	DD	0cH
	DD	FLAT:??0exception@std@@QAE@ABV01@@Z
xdata$x	ENDS
;	COMDAT __CT??_R0?AVbad_alloc@std@@@8??0bad_alloc@std@@QAE@ABV01@@Z12
xdata$x	SEGMENT
__CT??_R0?AVbad_alloc@std@@@8??0bad_alloc@std@@QAE@ABV01@@Z12 DD 00H
	DD	FLAT:??_R0?AVbad_alloc@std@@@8
	DD	00H
	DD	0ffffffffH
	ORG $+4
	DD	0cH
	DD	FLAT:??0bad_alloc@std@@QAE@ABV01@@Z
xdata$x	ENDS
;	COMDAT __CTA2?AVbad_alloc@std@@
xdata$x	SEGMENT
__CTA2?AVbad_alloc@std@@ DD 02H
	DD	FLAT:__CT??_R0?AVbad_alloc@std@@@8??0bad_alloc@std@@QAE@ABV01@@Z12
	DD	FLAT:__CT??_R0?AVexception@std@@@8??0exception@std@@QAE@ABV01@@Z12
xdata$x	ENDS
;	COMDAT __TI2?AVbad_alloc@std@@
xdata$x	SEGMENT
__TI2?AVbad_alloc@std@@ DD 00H
	DD	FLAT:??1bad_alloc@std@@UAE@XZ
	DD	00H
	DD	FLAT:__CTA2?AVbad_alloc@std@@
; Function compile flags: /Ogsp
; File c:\program files (x86)\microsoft visual studio 10.0\vc\include\xmemory
xdata$x	ENDS
;	COMDAT ??$_Allocate@UUpDownMoveInfo@ioPrisonWeapon@@@std@@YAPAUUpDownMoveInfo@ioPrisonWeapon@@IPAU12@@Z
_TEXT	SEGMENT
$T536295 = -12						; size = 12
$T536300 = 8						; size = 4
__Count$ = 8						; size = 4
___formal$ = 12						; size = 4
??$_Allocate@UUpDownMoveInfo@ioPrisonWeapon@@@std@@YAPAUUpDownMoveInfo@ioPrisonWeapon@@IPAU12@@Z PROC ; std::_Allocate<ioPrisonWeapon::UpDownMoveInfo>, COMDAT

; 30   : 	{	// allocate storage for _Count elements of type _Ty

  00000	55		 push	 ebp
  00001	8b ec		 mov	 ebp, esp

; 31   : 	void *_Ptr = 0;
; 32   : 
; 33   : 	if (_Count <= 0)

  00003	8b 4d 08	 mov	 ecx, DWORD PTR __Count$[ebp]
  00006	83 ec 0c	 sub	 esp, 12			; 0000000cH
  00009	33 c0		 xor	 eax, eax
  0000b	85 c9		 test	 ecx, ecx

; 34   : 		_Count = 0;
; 35   : 	else if (((_SIZT)(-1) / sizeof (_Ty) < _Count)

  0000d	74 3c		 je	 SHORT $LN5@Allocate

; 36   : 		|| (_Ptr = ::operator new(_Count * sizeof (_Ty))) == 0)

  0000f	81 f9 55 55 55
	15		 cmp	 ecx, 357913941		; 15555555H
  00015	77 0e		 ja	 SHORT $LN1@Allocate
  00017	6b c9 0c	 imul	 ecx, 12			; 0000000cH
  0001a	51		 push	 ecx
  0001b	e8 00 00 00 00	 call	 ??2@YAPAXI@Z		; operator new
  00020	59		 pop	 ecx
  00021	85 c0		 test	 eax, eax

; 38   : 
; 39   : 	return ((_Ty _FARQ *)_Ptr);

  00023	75 26		 jne	 SHORT $LN5@Allocate
$LN1@Allocate:

; 37   : 		_THROW_NCEE(bad_alloc, 0);

  00025	83 65 08 00	 and	 DWORD PTR $T536300[ebp], 0
  00029	8d 45 08	 lea	 eax, DWORD PTR $T536300[ebp]
  0002c	50		 push	 eax
  0002d	8d 4d f4	 lea	 ecx, DWORD PTR $T536295[ebp]
  00030	ff 15 00 00 00
	00		 call	 DWORD PTR __imp_??0exception@std@@QAE@ABQBD@Z
  00036	68 00 00 00 00	 push	 OFFSET __TI2?AVbad_alloc@std@@
  0003b	8d 45 f4	 lea	 eax, DWORD PTR $T536295[ebp]
  0003e	50		 push	 eax
  0003f	c7 45 f4 00 00
	00 00		 mov	 DWORD PTR $T536295[ebp], OFFSET ??_7bad_alloc@std@@6B@
  00046	e8 00 00 00 00	 call	 __CxxThrowException@8
$LN10@Allocate:
$LN5@Allocate:

; 40   : 	}

  0004b	c9		 leave
  0004c	c3		 ret	 0
$LN9@Allocate:
??$_Allocate@UUpDownMoveInfo@ioPrisonWeapon@@@std@@YAPAUUpDownMoveInfo@ioPrisonWeapon@@IPAU12@@Z ENDP ; std::_Allocate<ioPrisonWeapon::UpDownMoveInfo>
_TEXT	ENDS
PUBLIC	??$_Allocate@UUpDownInfo@ioPrisonWeapon@@@std@@YAPAUUpDownInfo@ioPrisonWeapon@@IPAU12@@Z ; std::_Allocate<ioPrisonWeapon::UpDownInfo>
; Function compile flags: /Ogsp
;	COMDAT ??$_Allocate@UUpDownInfo@ioPrisonWeapon@@@std@@YAPAUUpDownInfo@ioPrisonWeapon@@IPAU12@@Z
_TEXT	SEGMENT
$T536305 = -12						; size = 12
$T536309 = 8						; size = 4
__Count$ = 8						; size = 4
___formal$ = 12						; size = 4
??$_Allocate@UUpDownInfo@ioPrisonWeapon@@@std@@YAPAUUpDownInfo@ioPrisonWeapon@@IPAU12@@Z PROC ; std::_Allocate<ioPrisonWeapon::UpDownInfo>, COMDAT

; 30   : 	{	// allocate storage for _Count elements of type _Ty

  00000	55		 push	 ebp
  00001	8b ec		 mov	 ebp, esp

; 31   : 	void *_Ptr = 0;
; 32   : 
; 33   : 	if (_Count <= 0)

  00003	8b 4d 08	 mov	 ecx, DWORD PTR __Count$[ebp]
  00006	83 ec 0c	 sub	 esp, 12			; 0000000cH
  00009	33 c0		 xor	 eax, eax
  0000b	85 c9		 test	 ecx, ecx

; 34   : 		_Count = 0;
; 35   : 	else if (((_SIZT)(-1) / sizeof (_Ty) < _Count)

  0000d	74 3c		 je	 SHORT $LN5@Allocate@2

; 36   : 		|| (_Ptr = ::operator new(_Count * sizeof (_Ty))) == 0)

  0000f	81 f9 cc cc cc
	0c		 cmp	 ecx, 214748364		; 0cccccccH
  00015	77 0e		 ja	 SHORT $LN1@Allocate@2
  00017	6b c9 14	 imul	 ecx, 20			; 00000014H
  0001a	51		 push	 ecx
  0001b	e8 00 00 00 00	 call	 ??2@YAPAXI@Z		; operator new
  00020	59		 pop	 ecx
  00021	85 c0		 test	 eax, eax

; 38   : 
; 39   : 	return ((_Ty _FARQ *)_Ptr);

  00023	75 26		 jne	 SHORT $LN5@Allocate@2
$LN1@Allocate@2:

; 37   : 		_THROW_NCEE(bad_alloc, 0);

  00025	83 65 08 00	 and	 DWORD PTR $T536309[ebp], 0
  00029	8d 45 08	 lea	 eax, DWORD PTR $T536309[ebp]
  0002c	50		 push	 eax
  0002d	8d 4d f4	 lea	 ecx, DWORD PTR $T536305[ebp]
  00030	ff 15 00 00 00
	00		 call	 DWORD PTR __imp_??0exception@std@@QAE@ABQBD@Z
  00036	68 00 00 00 00	 push	 OFFSET __TI2?AVbad_alloc@std@@
  0003b	8d 45 f4	 lea	 eax, DWORD PTR $T536305[ebp]
  0003e	50		 push	 eax
  0003f	c7 45 f4 00 00
	00 00		 mov	 DWORD PTR $T536305[ebp], OFFSET ??_7bad_alloc@std@@6B@
  00046	e8 00 00 00 00	 call	 __CxxThrowException@8
$LN10@Allocate@2:
$LN5@Allocate@2:

; 40   : 	}

  0004b	c9		 leave
  0004c	c3		 ret	 0
$LN9@Allocate@2:
??$_Allocate@UUpDownInfo@ioPrisonWeapon@@@std@@YAPAUUpDownInfo@ioPrisonWeapon@@IPAU12@@Z ENDP ; std::_Allocate<ioPrisonWeapon::UpDownInfo>
_TEXT	ENDS
PUBLIC	??$forward@AAUUpDownMoveInfo@ioPrisonWeapon@@@std@@YAAAUUpDownMoveInfo@ioPrisonWeapon@@AAU12@@Z ; std::forward<ioPrisonWeapon::UpDownMoveInfo &>
; Function compile flags: /Ogsp
; File c:\program files (x86)\microsoft visual studio 10.0\vc\include\utility
;	COMDAT ??$forward@AAUUpDownMoveInfo@ioPrisonWeapon@@@std@@YAAAUUpDownMoveInfo@ioPrisonWeapon@@AAU12@@Z
_TEXT	SEGMENT
__Arg$ = 8						; size = 4
??$forward@AAUUpDownMoveInfo@ioPrisonWeapon@@@std@@YAAAUUpDownMoveInfo@ioPrisonWeapon@@AAU12@@Z PROC ; std::forward<ioPrisonWeapon::UpDownMoveInfo &>, COMDAT

; 78   : 	{	// forward _Arg, given explicitly specified type parameter

  00000	55		 push	 ebp
  00001	8b ec		 mov	 ebp, esp

; 79   : 	return ((_Ty&&)_Arg);

  00003	8b 45 08	 mov	 eax, DWORD PTR __Arg$[ebp]

; 80   : 	}

  00006	5d		 pop	 ebp
  00007	c3		 ret	 0
??$forward@AAUUpDownMoveInfo@ioPrisonWeapon@@@std@@YAAAUUpDownMoveInfo@ioPrisonWeapon@@AAU12@@Z ENDP ; std::forward<ioPrisonWeapon::UpDownMoveInfo &>
_TEXT	ENDS
PUBLIC	??$construct@AAUUpDownMoveInfo@ioPrisonWeapon@@@?$allocator@UUpDownMoveInfo@ioPrisonWeapon@@@std@@QAEXPAUUpDownMoveInfo@ioPrisonWeapon@@AAU23@@Z ; std::allocator<ioPrisonWeapon::UpDownMoveInfo>::construct<ioPrisonWeapon::UpDownMoveInfo &>
; Function compile flags: /Ogsp
; File c:\program files (x86)\microsoft visual studio 10.0\vc\include\xmemory
;	COMDAT ??$construct@AAUUpDownMoveInfo@ioPrisonWeapon@@@?$allocator@UUpDownMoveInfo@ioPrisonWeapon@@@std@@QAEXPAUUpDownMoveInfo@ioPrisonWeapon@@AAU23@@Z
_TEXT	SEGMENT
__Ptr$ = 8						; size = 4
__Val$ = 12						; size = 4
??$construct@AAUUpDownMoveInfo@ioPrisonWeapon@@@?$allocator@UUpDownMoveInfo@ioPrisonWeapon@@@std@@QAEXPAUUpDownMoveInfo@ioPrisonWeapon@@AAU23@@Z PROC ; std::allocator<ioPrisonWeapon::UpDownMoveInfo>::construct<ioPrisonWeapon::UpDownMoveInfo &>, COMDAT
; _this$ = ecx

; 206  : 		void construct(pointer _Ptr, _Other&& _Val)

  00000	55		 push	 ebp
  00001	8b ec		 mov	 ebp, esp
  00003	57		 push	 edi

; 207  : 		{	// construct object at _Ptr with value _Val
; 208  : 		::new ((void _FARQ *)_Ptr) _Ty(_STD forward<_Other>(_Val));

  00004	8b 7d 08	 mov	 edi, DWORD PTR __Ptr$[ebp]
  00007	85 ff		 test	 edi, edi
  00009	74 08		 je	 SHORT $LN3@construct
  0000b	56		 push	 esi
  0000c	8b 75 0c	 mov	 esi, DWORD PTR __Val$[ebp]
  0000f	a5		 movsd
  00010	a5		 movsd
  00011	a5		 movsd
  00012	5e		 pop	 esi
$LN3@construct:
  00013	5f		 pop	 edi

; 209  : 		}

  00014	5d		 pop	 ebp
  00015	c2 08 00	 ret	 8
??$construct@AAUUpDownMoveInfo@ioPrisonWeapon@@@?$allocator@UUpDownMoveInfo@ioPrisonWeapon@@@std@@QAEXPAUUpDownMoveInfo@ioPrisonWeapon@@AAU23@@Z ENDP ; std::allocator<ioPrisonWeapon::UpDownMoveInfo>::construct<ioPrisonWeapon::UpDownMoveInfo &>
_TEXT	ENDS
PUBLIC	??$forward@ABUUpDownMoveInfo@ioPrisonWeapon@@@std@@YAABUUpDownMoveInfo@ioPrisonWeapon@@ABU12@@Z ; std::forward<ioPrisonWeapon::UpDownMoveInfo const &>
; Function compile flags: /Ogsp
; File c:\program files (x86)\microsoft visual studio 10.0\vc\include\utility
;	COMDAT ??$forward@ABUUpDownMoveInfo@ioPrisonWeapon@@@std@@YAABUUpDownMoveInfo@ioPrisonWeapon@@ABU12@@Z
_TEXT	SEGMENT
__Arg$ = 8						; size = 4
??$forward@ABUUpDownMoveInfo@ioPrisonWeapon@@@std@@YAABUUpDownMoveInfo@ioPrisonWeapon@@ABU12@@Z PROC ; std::forward<ioPrisonWeapon::UpDownMoveInfo const &>, COMDAT

; 78   : 	{	// forward _Arg, given explicitly specified type parameter

  00000	55		 push	 ebp
  00001	8b ec		 mov	 ebp, esp

; 79   : 	return ((_Ty&&)_Arg);

  00003	8b 45 08	 mov	 eax, DWORD PTR __Arg$[ebp]

; 80   : 	}

  00006	5d		 pop	 ebp
  00007	c3		 ret	 0
??$forward@ABUUpDownMoveInfo@ioPrisonWeapon@@@std@@YAABUUpDownMoveInfo@ioPrisonWeapon@@ABU12@@Z ENDP ; std::forward<ioPrisonWeapon::UpDownMoveInfo const &>
_TEXT	ENDS
PUBLIC	??$forward@AAUUpDownInfo@ioPrisonWeapon@@@std@@YAAAUUpDownInfo@ioPrisonWeapon@@AAU12@@Z ; std::forward<ioPrisonWeapon::UpDownInfo &>
; Function compile flags: /Ogsp
;	COMDAT ??$forward@AAUUpDownInfo@ioPrisonWeapon@@@std@@YAAAUUpDownInfo@ioPrisonWeapon@@AAU12@@Z
_TEXT	SEGMENT
__Arg$ = 8						; size = 4
??$forward@AAUUpDownInfo@ioPrisonWeapon@@@std@@YAAAUUpDownInfo@ioPrisonWeapon@@AAU12@@Z PROC ; std::forward<ioPrisonWeapon::UpDownInfo &>, COMDAT

; 78   : 	{	// forward _Arg, given explicitly specified type parameter

  00000	55		 push	 ebp
  00001	8b ec		 mov	 ebp, esp

; 79   : 	return ((_Ty&&)_Arg);

  00003	8b 45 08	 mov	 eax, DWORD PTR __Arg$[ebp]

; 80   : 	}

  00006	5d		 pop	 ebp
  00007	c3		 ret	 0
??$forward@AAUUpDownInfo@ioPrisonWeapon@@@std@@YAAAUUpDownInfo@ioPrisonWeapon@@AAU12@@Z ENDP ; std::forward<ioPrisonWeapon::UpDownInfo &>
_TEXT	ENDS
PUBLIC	??$forward@ABUUpDownInfo@ioPrisonWeapon@@@std@@YAABUUpDownInfo@ioPrisonWeapon@@ABU12@@Z ; std::forward<ioPrisonWeapon::UpDownInfo const &>
; Function compile flags: /Ogsp
;	COMDAT ??$forward@ABUUpDownInfo@ioPrisonWeapon@@@std@@YAABUUpDownInfo@ioPrisonWeapon@@ABU12@@Z
_TEXT	SEGMENT
__Arg$ = 8						; size = 4
??$forward@ABUUpDownInfo@ioPrisonWeapon@@@std@@YAABUUpDownInfo@ioPrisonWeapon@@ABU12@@Z PROC ; std::forward<ioPrisonWeapon::UpDownInfo const &>, COMDAT

; 78   : 	{	// forward _Arg, given explicitly specified type parameter

  00000	55		 push	 ebp
  00001	8b ec		 mov	 ebp, esp

; 79   : 	return ((_Ty&&)_Arg);

  00003	8b 45 08	 mov	 eax, DWORD PTR __Arg$[ebp]

; 80   : 	}

  00006	5d		 pop	 ebp
  00007	c3		 ret	 0
??$forward@ABUUpDownInfo@ioPrisonWeapon@@@std@@YAABUUpDownInfo@ioPrisonWeapon@@ABU12@@Z ENDP ; std::forward<ioPrisonWeapon::UpDownInfo const &>
_TEXT	ENDS
PUBLIC	??$_Ptr_cat@UUpDownInfo@ioPrisonWeapon@@U12@@std@@YA?AU_Nonscalar_ptr_iterator_tag@0@PAUUpDownInfo@ioPrisonWeapon@@0@Z ; std::_Ptr_cat<ioPrisonWeapon::UpDownInfo,ioPrisonWeapon::UpDownInfo>
; Function compile flags: /Ogsp
; File c:\program files (x86)\microsoft visual studio 10.0\vc\include\xutility
;	COMDAT ??$_Ptr_cat@UUpDownInfo@ioPrisonWeapon@@U12@@std@@YA?AU_Nonscalar_ptr_iterator_tag@0@PAUUpDownInfo@ioPrisonWeapon@@0@Z
_TEXT	SEGMENT
__Cat$ = -1						; size = 1
___formal$ = 8						; size = 4
___formal$ = 12						; size = 4
??$_Ptr_cat@UUpDownInfo@ioPrisonWeapon@@U12@@std@@YA?AU_Nonscalar_ptr_iterator_tag@0@PAUUpDownInfo@ioPrisonWeapon@@0@Z PROC ; std::_Ptr_cat<ioPrisonWeapon::UpDownInfo,ioPrisonWeapon::UpDownInfo>, COMDAT

; 516  : 	{	// return pointer category from pointers

  00000	55		 push	 ebp
  00001	8b ec		 mov	 ebp, esp
  00003	51		 push	 ecx

; 517  : 	typename _Ptr_cat_helper<_Elem1, _Elem2>::_Type _Cat;
; 518  : 	return (_Cat);

  00004	8a 45 ff	 mov	 al, BYTE PTR __Cat$[ebp]

; 519  : 	}

  00007	c9		 leave
  00008	c3		 ret	 0
??$_Ptr_cat@UUpDownInfo@ioPrisonWeapon@@U12@@std@@YA?AU_Nonscalar_ptr_iterator_tag@0@PAUUpDownInfo@ioPrisonWeapon@@0@Z ENDP ; std::_Ptr_cat<ioPrisonWeapon::UpDownInfo,ioPrisonWeapon::UpDownInfo>
_TEXT	ENDS
PUBLIC	??$_Ptr_cat@UUpDownMoveInfo@ioPrisonWeapon@@U12@@std@@YA?AU_Nonscalar_ptr_iterator_tag@0@PAUUpDownMoveInfo@ioPrisonWeapon@@0@Z ; std::_Ptr_cat<ioPrisonWeapon::UpDownMoveInfo,ioPrisonWeapon::UpDownMoveInfo>
; Function compile flags: /Ogsp
;	COMDAT ??$_Ptr_cat@UUpDownMoveInfo@ioPrisonWeapon@@U12@@std@@YA?AU_Nonscalar_ptr_iterator_tag@0@PAUUpDownMoveInfo@ioPrisonWeapon@@0@Z
_TEXT	SEGMENT
__Cat$ = -1						; size = 1
___formal$ = 8						; size = 4
___formal$ = 12						; size = 4
??$_Ptr_cat@UUpDownMoveInfo@ioPrisonWeapon@@U12@@std@@YA?AU_Nonscalar_ptr_iterator_tag@0@PAUUpDownMoveInfo@ioPrisonWeapon@@0@Z PROC ; std::_Ptr_cat<ioPrisonWeapon::UpDownMoveInfo,ioPrisonWeapon::UpDownMoveInfo>, COMDAT

; 516  : 	{	// return pointer category from pointers

  00000	55		 push	 ebp
  00001	8b ec		 mov	 ebp, esp
  00003	51		 push	 ecx

; 517  : 	typename _Ptr_cat_helper<_Elem1, _Elem2>::_Type _Cat;
; 518  : 	return (_Cat);

  00004	8a 45 ff	 mov	 al, BYTE PTR __Cat$[ebp]

; 519  : 	}

  00007	c9		 leave
  00008	c3		 ret	 0
??$_Ptr_cat@UUpDownMoveInfo@ioPrisonWeapon@@U12@@std@@YA?AU_Nonscalar_ptr_iterator_tag@0@PAUUpDownMoveInfo@ioPrisonWeapon@@0@Z ENDP ; std::_Ptr_cat<ioPrisonWeapon::UpDownMoveInfo,ioPrisonWeapon::UpDownMoveInfo>
_TEXT	ENDS
PUBLIC	??$_Construct@UUpDownMoveInfo@ioPrisonWeapon@@ABU12@@std@@YAXPAUUpDownMoveInfo@ioPrisonWeapon@@ABU12@@Z ; std::_Construct<ioPrisonWeapon::UpDownMoveInfo,ioPrisonWeapon::UpDownMoveInfo const &>
; Function compile flags: /Ogsp
; File c:\program files (x86)\microsoft visual studio 10.0\vc\include\xmemory
;	COMDAT ??$_Construct@UUpDownMoveInfo@ioPrisonWeapon@@ABU12@@std@@YAXPAUUpDownMoveInfo@ioPrisonWeapon@@ABU12@@Z
_TEXT	SEGMENT
__Ptr$ = 8						; size = 4
__Val$ = 12						; size = 4
??$_Construct@UUpDownMoveInfo@ioPrisonWeapon@@ABU12@@std@@YAXPAUUpDownMoveInfo@ioPrisonWeapon@@ABU12@@Z PROC ; std::_Construct<ioPrisonWeapon::UpDownMoveInfo,ioPrisonWeapon::UpDownMoveInfo const &>, COMDAT

; 46   : 	{	// construct object at _Ptr with value _Val

  00000	55		 push	 ebp
  00001	8b ec		 mov	 ebp, esp
  00003	57		 push	 edi

; 47   : 	void _FARQ *_Vptr = _Ptr;
; 48   : 	::new (_Vptr) _Ty1(_STD forward<_Ty2>(_Val));

  00004	8b 7d 08	 mov	 edi, DWORD PTR __Ptr$[ebp]
  00007	85 ff		 test	 edi, edi
  00009	74 08		 je	 SHORT $LN3@Construct
  0000b	56		 push	 esi
  0000c	8b 75 0c	 mov	 esi, DWORD PTR __Val$[ebp]
  0000f	a5		 movsd
  00010	a5		 movsd
  00011	a5		 movsd
  00012	5e		 pop	 esi
$LN3@Construct:
  00013	5f		 pop	 edi

; 49   : 	}

  00014	5d		 pop	 ebp
  00015	c3		 ret	 0
??$_Construct@UUpDownMoveInfo@ioPrisonWeapon@@ABU12@@std@@YAXPAUUpDownMoveInfo@ioPrisonWeapon@@ABU12@@Z ENDP ; std::_Construct<ioPrisonWeapon::UpDownMoveInfo,ioPrisonWeapon::UpDownMoveInfo const &>
_TEXT	ENDS
PUBLIC	??0D3DXVECTOR3@@QAE@XZ				; D3DXVECTOR3::D3DXVECTOR3
; Function compile flags: /Ogsp
; File c:\program files (x86)\microsoft directx sdk (june 2010)\include\d3dx9math.h
;	COMDAT ??0D3DXVECTOR3@@QAE@XZ
_TEXT	SEGMENT
??0D3DXVECTOR3@@QAE@XZ PROC				; D3DXVECTOR3::D3DXVECTOR3, COMDAT
; _this$ = ecx

; 165  :     D3DXVECTOR3() {};

  00000	8b c1		 mov	 eax, ecx
  00002	c3		 ret	 0
??0D3DXVECTOR3@@QAE@XZ ENDP				; D3DXVECTOR3::D3DXVECTOR3
_TEXT	ENDS
PUBLIC	??$_Ptr_cat@V?$_Vector_const_iterator@V?$_Vector_val@UUpDownMoveInfo@ioPrisonWeapon@@V?$allocator@UUpDownMoveInfo@ioPrisonWeapon@@@std@@@std@@@std@@PAUUpDownMoveInfo@ioPrisonWeapon@@@std@@YA?AU_Nonscalar_ptr_iterator_tag@0@AAV?$_Vector_const_iterator@V?$_Vector_val@UUpDownMoveInfo@ioPrisonWeapon@@V?$allocator@UUpDownMoveInfo@ioPrisonWeapon@@@std@@@std@@@0@AAPAUUpDownMoveInfo@ioPrisonWeapon@@@Z ; std::_Ptr_cat<std::_Vector_const_iterator<std::_Vector_val<ioPrisonWeapon::UpDownMoveInfo,std::allocator<ioPrisonWeapon::UpDownMoveInfo> > >,ioPrisonWeapon::UpDownMoveInfo *>
; Function compile flags: /Ogsp
; File c:\program files (x86)\microsoft visual studio 10.0\vc\include\xutility
;	COMDAT ??$_Ptr_cat@V?$_Vector_const_iterator@V?$_Vector_val@UUpDownMoveInfo@ioPrisonWeapon@@V?$allocator@UUpDownMoveInfo@ioPrisonWeapon@@@std@@@std@@@std@@PAUUpDownMoveInfo@ioPrisonWeapon@@@std@@YA?AU_Nonscalar_ptr_iterator_tag@0@AAV?$_Vector_const_iterator@V?$_Vector_val@UUpDownMoveInfo@ioPrisonWeapon@@V?$allocator@UUpDownMoveInfo@ioPrisonWeapon@@@std@@@std@@@0@AAPAUUpDownMoveInfo@ioPrisonWeapon@@@Z
_TEXT	SEGMENT
__Cat$ = -1						; size = 1
___formal$ = 8						; size = 4
___formal$ = 12						; size = 4
??$_Ptr_cat@V?$_Vector_const_iterator@V?$_Vector_val@UUpDownMoveInfo@ioPrisonWeapon@@V?$allocator@UUpDownMoveInfo@ioPrisonWeapon@@@std@@@std@@@std@@PAUUpDownMoveInfo@ioPrisonWeapon@@@std@@YA?AU_Nonscalar_ptr_iterator_tag@0@AAV?$_Vector_const_iterator@V?$_Vector_val@UUpDownMoveInfo@ioPrisonWeapon@@V?$allocator@UUpDownMoveInfo@ioPrisonWeapon@@@std@@@std@@@0@AAPAUUpDownMoveInfo@ioPrisonWeapon@@@Z PROC ; std::_Ptr_cat<std::_Vector_const_iterator<std::_Vector_val<ioPrisonWeapon::UpDownMoveInfo,std::allocator<ioPrisonWeapon::UpDownMoveInfo> > >,ioPrisonWeapon::UpDownMoveInfo *>, COMDAT

; 485  : 	{	// return pointer category from arbitrary arguments

  00000	55		 push	 ebp
  00001	8b ec		 mov	 ebp, esp
  00003	51		 push	 ecx

; 486  : 	_Nonscalar_ptr_iterator_tag _Cat;
; 487  : 	return (_Cat);

  00004	8a 45 ff	 mov	 al, BYTE PTR __Cat$[ebp]

; 488  : 	}

  00007	c9		 leave
  00008	c3		 ret	 0
??$_Ptr_cat@V?$_Vector_const_iterator@V?$_Vector_val@UUpDownMoveInfo@ioPrisonWeapon@@V?$allocator@UUpDownMoveInfo@ioPrisonWeapon@@@std@@@std@@@std@@PAUUpDownMoveInfo@ioPrisonWeapon@@@std@@YA?AU_Nonscalar_ptr_iterator_tag@0@AAV?$_Vector_const_iterator@V?$_Vector_val@UUpDownMoveInfo@ioPrisonWeapon@@V?$allocator@UUpDownMoveInfo@ioPrisonWeapon@@@std@@@std@@@0@AAPAUUpDownMoveInfo@ioPrisonWeapon@@@Z ENDP ; std::_Ptr_cat<std::_Vector_const_iterator<std::_Vector_val<ioPrisonWeapon::UpDownMoveInfo,std::allocator<ioPrisonWeapon::UpDownMoveInfo> > >,ioPrisonWeapon::UpDownMoveInfo *>
_TEXT	ENDS
PUBLIC	??0D3DXQUATERNION@@QAE@XZ			; D3DXQUATERNION::D3DXQUATERNION
; Function compile flags: /Ogsp
; File c:\program files (x86)\microsoft directx sdk (june 2010)\include\d3dx9math.h
;	COMDAT ??0D3DXQUATERNION@@QAE@XZ
_TEXT	SEGMENT
??0D3DXQUATERNION@@QAE@XZ PROC				; D3DXQUATERNION::D3DXQUATERNION, COMDAT
; _this$ = ecx

; 429  :     D3DXQUATERNION() {}

  00000	8b c1		 mov	 eax, ecx
  00002	c3		 ret	 0
??0D3DXQUATERNION@@QAE@XZ ENDP				; D3DXQUATERNION::D3DXQUATERNION
_TEXT	ENDS
PUBLIC	??$move@AAUUpDownInfo@ioPrisonWeapon@@@std@@YA$$QAUUpDownInfo@ioPrisonWeapon@@AAU12@@Z ; std::move<ioPrisonWeapon::UpDownInfo &>
; Function compile flags: /Ogsp
; File c:\program files (x86)\microsoft visual studio 10.0\vc\include\utility
;	COMDAT ??$move@AAUUpDownInfo@ioPrisonWeapon@@@std@@YA$$QAUUpDownInfo@ioPrisonWeapon@@AAU12@@Z
_TEXT	SEGMENT
__Arg$ = 8						; size = 4
??$move@AAUUpDownInfo@ioPrisonWeapon@@@std@@YA$$QAUUpDownInfo@ioPrisonWeapon@@AAU12@@Z PROC ; std::move<ioPrisonWeapon::UpDownInfo &>, COMDAT

; 86   : 	{	// forward _Arg as movable

  00000	55		 push	 ebp
  00001	8b ec		 mov	 ebp, esp

; 87   : 	return ((typename tr1::_Remove_reference<_Ty>::_Type&&)_Arg);

  00003	8b 45 08	 mov	 eax, DWORD PTR __Arg$[ebp]

; 88   : 	}

  00006	5d		 pop	 ebp
  00007	c3		 ret	 0
??$move@AAUUpDownInfo@ioPrisonWeapon@@@std@@YA$$QAUUpDownInfo@ioPrisonWeapon@@AAU12@@Z ENDP ; std::move<ioPrisonWeapon::UpDownInfo &>
_TEXT	ENDS
PUBLIC	??$_Val_type@PAUUpDownMoveInfo@ioPrisonWeapon@@@std@@YAPAUUpDownMoveInfo@ioPrisonWeapon@@PAU12@@Z ; std::_Val_type<ioPrisonWeapon::UpDownMoveInfo *>
; Function compile flags: /Ogsp
; File c:\program files (x86)\microsoft visual studio 10.0\vc\include\xutility
;	COMDAT ??$_Val_type@PAUUpDownMoveInfo@ioPrisonWeapon@@@std@@YAPAUUpDownMoveInfo@ioPrisonWeapon@@PAU12@@Z
_TEXT	SEGMENT
___formal$ = 8						; size = 4
??$_Val_type@PAUUpDownMoveInfo@ioPrisonWeapon@@@std@@YAPAUUpDownMoveInfo@ioPrisonWeapon@@PAU12@@Z PROC ; std::_Val_type<ioPrisonWeapon::UpDownMoveInfo *>, COMDAT

; 790  : 	return (0);

  00000	33 c0		 xor	 eax, eax

; 791  : 	}

  00002	c3		 ret	 0
??$_Val_type@PAUUpDownMoveInfo@ioPrisonWeapon@@@std@@YAPAUUpDownMoveInfo@ioPrisonWeapon@@PAU12@@Z ENDP ; std::_Val_type<ioPrisonWeapon::UpDownMoveInfo *>
_TEXT	ENDS
PUBLIC	??$_Val_type@PAUUpDownInfo@ioPrisonWeapon@@@std@@YAPAUUpDownInfo@ioPrisonWeapon@@PAU12@@Z ; std::_Val_type<ioPrisonWeapon::UpDownInfo *>
; Function compile flags: /Ogsp
;	COMDAT ??$_Val_type@PAUUpDownInfo@ioPrisonWeapon@@@std@@YAPAUUpDownInfo@ioPrisonWeapon@@PAU12@@Z
_TEXT	SEGMENT
___formal$ = 8						; size = 4
??$_Val_type@PAUUpDownInfo@ioPrisonWeapon@@@std@@YAPAUUpDownInfo@ioPrisonWeapon@@PAU12@@Z PROC ; std::_Val_type<ioPrisonWeapon::UpDownInfo *>, COMDAT

; 790  : 	return (0);

  00000	33 c0		 xor	 eax, eax

; 791  : 	}

  00002	c3		 ret	 0
??$_Val_type@PAUUpDownInfo@ioPrisonWeapon@@@std@@YAPAUUpDownInfo@ioPrisonWeapon@@PAU12@@Z ENDP ; std::_Val_type<ioPrisonWeapon::UpDownInfo *>
_TEXT	ENDS
PUBLIC	??$_Copy_impl@PAUUpDownMoveInfo@ioPrisonWeapon@@PAU12@@std@@YAPAUUpDownMoveInfo@ioPrisonWeapon@@PAU12@00U_Nonscalar_ptr_iterator_tag@0@@Z ; std::_Copy_impl<ioPrisonWeapon::UpDownMoveInfo *,ioPrisonWeapon::UpDownMoveInfo *>
; Function compile flags: /Ogsp
;	COMDAT ??$_Copy_impl@PAUUpDownMoveInfo@ioPrisonWeapon@@PAU12@@std@@YAPAUUpDownMoveInfo@ioPrisonWeapon@@PAU12@00U_Nonscalar_ptr_iterator_tag@0@@Z
_TEXT	SEGMENT
__First$ = 8						; size = 4
__Last$ = 12						; size = 4
__Dest$ = 16						; size = 4
___formal$ = 20						; size = 1
??$_Copy_impl@PAUUpDownMoveInfo@ioPrisonWeapon@@PAU12@@std@@YAPAUUpDownMoveInfo@ioPrisonWeapon@@PAU12@00U_Nonscalar_ptr_iterator_tag@0@@Z PROC ; std::_Copy_impl<ioPrisonWeapon::UpDownMoveInfo *,ioPrisonWeapon::UpDownMoveInfo *>, COMDAT

; 2142 : 	{	// copy [_First, _Last) to [_Dest, ...), arbitrary iterators

  00000	55		 push	 ebp
  00001	8b ec		 mov	 ebp, esp

; 2143 : 	for (; _First != _Last; ++_Dest, ++_First)

  00003	8b 45 08	 mov	 eax, DWORD PTR __First$[ebp]
  00006	3b 45 0c	 cmp	 eax, DWORD PTR __Last$[ebp]
  00009	74 18		 je	 SHORT $LN8@Copy_impl
  0000b	56		 push	 esi
  0000c	57		 push	 edi
$LL3@Copy_impl:

; 2144 : 		*_Dest = *_First;

  0000d	8b 7d 10	 mov	 edi, DWORD PTR __Dest$[ebp]
  00010	83 45 10 0c	 add	 DWORD PTR __Dest$[ebp], 12 ; 0000000cH
  00014	8b f0		 mov	 esi, eax
  00016	a5		 movsd
  00017	a5		 movsd
  00018	83 c0 0c	 add	 eax, 12			; 0000000cH
  0001b	a5		 movsd
  0001c	3b 45 0c	 cmp	 eax, DWORD PTR __Last$[ebp]
  0001f	75 ec		 jne	 SHORT $LL3@Copy_impl
  00021	5f		 pop	 edi
  00022	5e		 pop	 esi
$LN8@Copy_impl:

; 2145 : 	return (_Dest);

  00023	8b 45 10	 mov	 eax, DWORD PTR __Dest$[ebp]

; 2146 : 	}

  00026	5d		 pop	 ebp
  00027	c3		 ret	 0
??$_Copy_impl@PAUUpDownMoveInfo@ioPrisonWeapon@@PAU12@@std@@YAPAUUpDownMoveInfo@ioPrisonWeapon@@PAU12@00U_Nonscalar_ptr_iterator_tag@0@@Z ENDP ; std::_Copy_impl<ioPrisonWeapon::UpDownMoveInfo *,ioPrisonWeapon::UpDownMoveInfo *>
_TEXT	ENDS
PUBLIC	??$_Destroy@UUpDownMoveInfo@ioPrisonWeapon@@@std@@YAXPAUUpDownMoveInfo@ioPrisonWeapon@@@Z ; std::_Destroy<ioPrisonWeapon::UpDownMoveInfo>
; Function compile flags: /Ogsp
; File c:\program files (x86)\microsoft visual studio 10.0\vc\include\xmemory
;	COMDAT ??$_Destroy@UUpDownMoveInfo@ioPrisonWeapon@@@std@@YAXPAUUpDownMoveInfo@ioPrisonWeapon@@@Z
_TEXT	SEGMENT
__Ptr$ = 8						; size = 4
??$_Destroy@UUpDownMoveInfo@ioPrisonWeapon@@@std@@YAXPAUUpDownMoveInfo@ioPrisonWeapon@@@Z PROC ; std::_Destroy<ioPrisonWeapon::UpDownMoveInfo>, COMDAT

; 63   : 	_Ptr->~_Ty();
; 64   : 	}

  00000	c3		 ret	 0
??$_Destroy@UUpDownMoveInfo@ioPrisonWeapon@@@std@@YAXPAUUpDownMoveInfo@ioPrisonWeapon@@@Z ENDP ; std::_Destroy<ioPrisonWeapon::UpDownMoveInfo>
_TEXT	ENDS
PUBLIC	??$forward@UUpDownMoveInfo@ioPrisonWeapon@@@std@@YA$$QAUUpDownMoveInfo@ioPrisonWeapon@@AAU12@@Z ; std::forward<ioPrisonWeapon::UpDownMoveInfo>
; Function compile flags: /Ogsp
; File c:\program files (x86)\microsoft visual studio 10.0\vc\include\utility
;	COMDAT ??$forward@UUpDownMoveInfo@ioPrisonWeapon@@@std@@YA$$QAUUpDownMoveInfo@ioPrisonWeapon@@AAU12@@Z
_TEXT	SEGMENT
__Arg$ = 8						; size = 4
??$forward@UUpDownMoveInfo@ioPrisonWeapon@@@std@@YA$$QAUUpDownMoveInfo@ioPrisonWeapon@@AAU12@@Z PROC ; std::forward<ioPrisonWeapon::UpDownMoveInfo>, COMDAT

; 78   : 	{	// forward _Arg, given explicitly specified type parameter

  00000	55		 push	 ebp
  00001	8b ec		 mov	 ebp, esp

; 79   : 	return ((_Ty&&)_Arg);

  00003	8b 45 08	 mov	 eax, DWORD PTR __Arg$[ebp]

; 80   : 	}

  00006	5d		 pop	 ebp
  00007	c3		 ret	 0
??$forward@UUpDownMoveInfo@ioPrisonWeapon@@@std@@YA$$QAUUpDownMoveInfo@ioPrisonWeapon@@AAU12@@Z ENDP ; std::forward<ioPrisonWeapon::UpDownMoveInfo>
_TEXT	ENDS
PUBLIC	??$forward@UUpDownInfo@ioPrisonWeapon@@@std@@YA$$QAUUpDownInfo@ioPrisonWeapon@@AAU12@@Z ; std::forward<ioPrisonWeapon::UpDownInfo>
; Function compile flags: /Ogsp
;	COMDAT ??$forward@UUpDownInfo@ioPrisonWeapon@@@std@@YA$$QAUUpDownInfo@ioPrisonWeapon@@AAU12@@Z
_TEXT	SEGMENT
__Arg$ = 8						; size = 4
??$forward@UUpDownInfo@ioPrisonWeapon@@@std@@YA$$QAUUpDownInfo@ioPrisonWeapon@@AAU12@@Z PROC ; std::forward<ioPrisonWeapon::UpDownInfo>, COMDAT

; 78   : 	{	// forward _Arg, given explicitly specified type parameter

  00000	55		 push	 ebp
  00001	8b ec		 mov	 ebp, esp

; 79   : 	return ((_Ty&&)_Arg);

  00003	8b 45 08	 mov	 eax, DWORD PTR __Arg$[ebp]

; 80   : 	}

  00006	5d		 pop	 ebp
  00007	c3		 ret	 0
??$forward@UUpDownInfo@ioPrisonWeapon@@@std@@YA$$QAUUpDownInfo@ioPrisonWeapon@@AAU12@@Z ENDP ; std::forward<ioPrisonWeapon::UpDownInfo>
_TEXT	ENDS
PUBLIC	??$move@AAUUpDownMoveInfo@ioPrisonWeapon@@@std@@YA$$QAUUpDownMoveInfo@ioPrisonWeapon@@AAU12@@Z ; std::move<ioPrisonWeapon::UpDownMoveInfo &>
; Function compile flags: /Ogsp
;	COMDAT ??$move@AAUUpDownMoveInfo@ioPrisonWeapon@@@std@@YA$$QAUUpDownMoveInfo@ioPrisonWeapon@@AAU12@@Z
_TEXT	SEGMENT
__Arg$ = 8						; size = 4
??$move@AAUUpDownMoveInfo@ioPrisonWeapon@@@std@@YA$$QAUUpDownMoveInfo@ioPrisonWeapon@@AAU12@@Z PROC ; std::move<ioPrisonWeapon::UpDownMoveInfo &>, COMDAT

; 86   : 	{	// forward _Arg as movable

  00000	55		 push	 ebp
  00001	8b ec		 mov	 ebp, esp

; 87   : 	return ((typename tr1::_Remove_reference<_Ty>::_Type&&)_Arg);

  00003	8b 45 08	 mov	 eax, DWORD PTR __Arg$[ebp]

; 88   : 	}

  00006	5d		 pop	 ebp
  00007	c3		 ret	 0
??$move@AAUUpDownMoveInfo@ioPrisonWeapon@@@std@@YA$$QAUUpDownMoveInfo@ioPrisonWeapon@@AAU12@@Z ENDP ; std::move<ioPrisonWeapon::UpDownMoveInfo &>
_TEXT	ENDS
PUBLIC	??0D3DXVECTOR3@@QAE@MMM@Z			; D3DXVECTOR3::D3DXVECTOR3
; Function compile flags: /Ogsp
; File c:\program files (x86)\microsoft directx sdk (june 2010)\include\d3dx9math.inl
;	COMDAT ??0D3DXVECTOR3@@QAE@MMM@Z
_TEXT	SEGMENT
_fx$ = 8						; size = 4
_fy$ = 12						; size = 4
_fz$ = 16						; size = 4
??0D3DXVECTOR3@@QAE@MMM@Z PROC				; D3DXVECTOR3::D3DXVECTOR3, COMDAT
; _this$ = ecx

; 303  : {

  00000	55		 push	 ebp
  00001	8b ec		 mov	 ebp, esp

; 304  :     x = fx;

  00003	f3 0f 10 45 08	 movss	 xmm0, DWORD PTR _fx$[ebp]
  00008	8b c1		 mov	 eax, ecx
  0000a	f3 0f 11 00	 movss	 DWORD PTR [eax], xmm0

; 305  :     y = fy;

  0000e	f3 0f 10 45 0c	 movss	 xmm0, DWORD PTR _fy$[ebp]
  00013	f3 0f 11 40 04	 movss	 DWORD PTR [eax+4], xmm0

; 306  :     z = fz;

  00018	f3 0f 10 45 10	 movss	 xmm0, DWORD PTR _fz$[ebp]
  0001d	f3 0f 11 40 08	 movss	 DWORD PTR [eax+8], xmm0

; 307  : }

  00022	5d		 pop	 ebp
  00023	c2 0c 00	 ret	 12			; 0000000cH
??0D3DXVECTOR3@@QAE@MMM@Z ENDP				; D3DXVECTOR3::D3DXVECTOR3
_TEXT	ENDS
PUBLIC	__mask@@NegFloat@
PUBLIC	??GD3DXVECTOR3@@QBE?AU0@XZ			; D3DXVECTOR3::operator-
;	COMDAT __mask@@NegFloat@
CONST	SEGMENT
__mask@@NegFloat@ DB 00H, 00H, 00H, 080H, 00H, 00H, 00H, 080H, 00H, 00H, 00H
	DB	080H, 00H, 00H, 00H, 080H
; Function compile flags: /Ogsp
CONST	ENDS
;	COMDAT ??GD3DXVECTOR3@@QBE?AU0@XZ
_TEXT	SEGMENT
___$ReturnUdt$ = 8					; size = 4
??GD3DXVECTOR3@@QBE?AU0@XZ PROC				; D3DXVECTOR3::operator-, COMDAT
; _this$ = ecx

; 372  : {

  00000	55		 push	 ebp
  00001	8b ec		 mov	 ebp, esp

; 373  :     return D3DXVECTOR3(-x, -y, -z);

  00003	f3 0f 10 05 00
	00 00 00	 movss	 xmm0, DWORD PTR __mask@@NegFloat@
  0000b	8b 45 08	 mov	 eax, DWORD PTR ___$ReturnUdt$[ebp]
  0000e	f3 0f 10 09	 movss	 xmm1, DWORD PTR [ecx]
  00012	0f 57 c8	 xorps	 xmm1, xmm0
  00015	f3 0f 11 08	 movss	 DWORD PTR [eax], xmm1
  00019	f3 0f 10 49 04	 movss	 xmm1, DWORD PTR [ecx+4]
  0001e	0f 57 c8	 xorps	 xmm1, xmm0
  00021	f3 0f 11 48 04	 movss	 DWORD PTR [eax+4], xmm1
  00026	f3 0f 10 49 08	 movss	 xmm1, DWORD PTR [ecx+8]
  0002b	0f 57 c8	 xorps	 xmm1, xmm0
  0002e	f3 0f 11 48 08	 movss	 DWORD PTR [eax+8], xmm1

; 374  : }

  00033	5d		 pop	 ebp
  00034	c2 04 00	 ret	 4
??GD3DXVECTOR3@@QBE?AU0@XZ ENDP				; D3DXVECTOR3::operator-
_TEXT	ENDS
PUBLIC	??HD3DXVECTOR3@@QBE?AU0@ABU0@@Z			; D3DXVECTOR3::operator+
; Function compile flags: /Ogsp
;	COMDAT ??HD3DXVECTOR3@@QBE?AU0@ABU0@@Z
_TEXT	SEGMENT
___$ReturnUdt$ = 8					; size = 4
_v$ = 12						; size = 4
??HD3DXVECTOR3@@QBE?AU0@ABU0@@Z PROC			; D3DXVECTOR3::operator+, COMDAT
; _this$ = ecx

; 380  : {

  00000	55		 push	 ebp
  00001	8b ec		 mov	 ebp, esp

; 381  :     return D3DXVECTOR3(x + v.x, y + v.y, z + v.z);

  00003	8b 55 0c	 mov	 edx, DWORD PTR _v$[ebp]
  00006	f3 0f 10 02	 movss	 xmm0, DWORD PTR [edx]
  0000a	f3 0f 10 09	 movss	 xmm1, DWORD PTR [ecx]
  0000e	8b 45 08	 mov	 eax, DWORD PTR ___$ReturnUdt$[ebp]
  00011	0f 5a c0	 cvtps2pd xmm0, xmm0
  00014	0f 5a c9	 cvtps2pd xmm1, xmm1
  00017	f2 0f 58 c1	 addsd	 xmm0, xmm1
  0001b	f3 0f 10 49 04	 movss	 xmm1, DWORD PTR [ecx+4]
  00020	66 0f 5a c0	 cvtpd2ps xmm0, xmm0
  00024	f3 0f 11 00	 movss	 DWORD PTR [eax], xmm0
  00028	f3 0f 10 42 04	 movss	 xmm0, DWORD PTR [edx+4]
  0002d	0f 5a c0	 cvtps2pd xmm0, xmm0
  00030	0f 5a c9	 cvtps2pd xmm1, xmm1
  00033	f2 0f 58 c1	 addsd	 xmm0, xmm1
  00037	f3 0f 10 49 08	 movss	 xmm1, DWORD PTR [ecx+8]
  0003c	66 0f 5a c0	 cvtpd2ps xmm0, xmm0
  00040	f3 0f 11 40 04	 movss	 DWORD PTR [eax+4], xmm0
  00045	f3 0f 10 42 08	 movss	 xmm0, DWORD PTR [edx+8]
  0004a	0f 5a c0	 cvtps2pd xmm0, xmm0
  0004d	0f 5a c9	 cvtps2pd xmm1, xmm1
  00050	f2 0f 58 c1	 addsd	 xmm0, xmm1
  00054	66 0f 5a c0	 cvtpd2ps xmm0, xmm0
  00058	f3 0f 11 40 08	 movss	 DWORD PTR [eax+8], xmm0

; 382  : }

  0005d	5d		 pop	 ebp
  0005e	c2 08 00	 ret	 8
??HD3DXVECTOR3@@QBE?AU0@ABU0@@Z ENDP			; D3DXVECTOR3::operator+
_TEXT	ENDS
PUBLIC	??GD3DXVECTOR3@@QBE?AU0@ABU0@@Z			; D3DXVECTOR3::operator-
; Function compile flags: /Ogsp
;	COMDAT ??GD3DXVECTOR3@@QBE?AU0@ABU0@@Z
_TEXT	SEGMENT
___$ReturnUdt$ = 8					; size = 4
_v$ = 12						; size = 4
??GD3DXVECTOR3@@QBE?AU0@ABU0@@Z PROC			; D3DXVECTOR3::operator-, COMDAT
; _this$ = ecx

; 386  : {

  00000	55		 push	 ebp
  00001	8b ec		 mov	 ebp, esp

; 387  :     return D3DXVECTOR3(x - v.x, y - v.y, z - v.z);

  00003	8b 55 0c	 mov	 edx, DWORD PTR _v$[ebp]
  00006	f3 0f 10 01	 movss	 xmm0, DWORD PTR [ecx]
  0000a	f3 0f 10 0a	 movss	 xmm1, DWORD PTR [edx]
  0000e	8b 45 08	 mov	 eax, DWORD PTR ___$ReturnUdt$[ebp]
  00011	0f 5a c0	 cvtps2pd xmm0, xmm0
  00014	0f 5a c9	 cvtps2pd xmm1, xmm1
  00017	f2 0f 5c c1	 subsd	 xmm0, xmm1
  0001b	f3 0f 10 4a 04	 movss	 xmm1, DWORD PTR [edx+4]
  00020	66 0f 5a c0	 cvtpd2ps xmm0, xmm0
  00024	f3 0f 11 00	 movss	 DWORD PTR [eax], xmm0
  00028	f3 0f 10 41 04	 movss	 xmm0, DWORD PTR [ecx+4]
  0002d	0f 5a c0	 cvtps2pd xmm0, xmm0
  00030	0f 5a c9	 cvtps2pd xmm1, xmm1
  00033	f2 0f 5c c1	 subsd	 xmm0, xmm1
  00037	f3 0f 10 4a 08	 movss	 xmm1, DWORD PTR [edx+8]
  0003c	66 0f 5a c0	 cvtpd2ps xmm0, xmm0
  00040	f3 0f 11 40 04	 movss	 DWORD PTR [eax+4], xmm0
  00045	f3 0f 10 41 08	 movss	 xmm0, DWORD PTR [ecx+8]
  0004a	0f 5a c0	 cvtps2pd xmm0, xmm0
  0004d	0f 5a c9	 cvtps2pd xmm1, xmm1
  00050	f2 0f 5c c1	 subsd	 xmm0, xmm1
  00054	66 0f 5a c0	 cvtpd2ps xmm0, xmm0
  00058	f3 0f 11 40 08	 movss	 DWORD PTR [eax+8], xmm0

; 388  : }

  0005d	5d		 pop	 ebp
  0005e	c2 08 00	 ret	 8
??GD3DXVECTOR3@@QBE?AU0@ABU0@@Z ENDP			; D3DXVECTOR3::operator-
_TEXT	ENDS
PUBLIC	??DD3DXVECTOR3@@QBE?AU0@M@Z			; D3DXVECTOR3::operator*
; Function compile flags: /Ogsp
;	COMDAT ??DD3DXVECTOR3@@QBE?AU0@M@Z
_TEXT	SEGMENT
___$ReturnUdt$ = 8					; size = 4
_f$ = 12						; size = 4
??DD3DXVECTOR3@@QBE?AU0@M@Z PROC			; D3DXVECTOR3::operator*, COMDAT
; _this$ = ecx

; 392  : {

  00000	55		 push	 ebp
  00001	8b ec		 mov	 ebp, esp

; 393  :     return D3DXVECTOR3(x * f, y * f, z * f);

  00003	f3 0f 10 4d 0c	 movss	 xmm1, DWORD PTR _f$[ebp]
  00008	f3 0f 10 01	 movss	 xmm0, DWORD PTR [ecx]
  0000c	8b 45 08	 mov	 eax, DWORD PTR ___$ReturnUdt$[ebp]
  0000f	0f 5a c0	 cvtps2pd xmm0, xmm0
  00012	0f 5a c9	 cvtps2pd xmm1, xmm1
  00015	f2 0f 59 c1	 mulsd	 xmm0, xmm1
  00019	f3 0f 10 4d 0c	 movss	 xmm1, DWORD PTR _f$[ebp]
  0001e	66 0f 5a c0	 cvtpd2ps xmm0, xmm0
  00022	f3 0f 11 00	 movss	 DWORD PTR [eax], xmm0
  00026	f3 0f 10 41 04	 movss	 xmm0, DWORD PTR [ecx+4]
  0002b	0f 5a c0	 cvtps2pd xmm0, xmm0
  0002e	0f 5a c9	 cvtps2pd xmm1, xmm1
  00031	f2 0f 59 c1	 mulsd	 xmm0, xmm1
  00035	f3 0f 10 4d 0c	 movss	 xmm1, DWORD PTR _f$[ebp]
  0003a	66 0f 5a c0	 cvtpd2ps xmm0, xmm0
  0003e	f3 0f 11 40 04	 movss	 DWORD PTR [eax+4], xmm0
  00043	f3 0f 10 41 08	 movss	 xmm0, DWORD PTR [ecx+8]
  00048	0f 5a c0	 cvtps2pd xmm0, xmm0
  0004b	0f 5a c9	 cvtps2pd xmm1, xmm1
  0004e	f2 0f 59 c1	 mulsd	 xmm0, xmm1
  00052	66 0f 5a c0	 cvtpd2ps xmm0, xmm0
  00056	f3 0f 11 40 08	 movss	 DWORD PTR [eax+8], xmm0

; 394  : }

  0005b	5d		 pop	 ebp
  0005c	c2 08 00	 ret	 8
??DD3DXVECTOR3@@QBE?AU0@M@Z ENDP			; D3DXVECTOR3::operator*
_TEXT	ENDS
PUBLIC	?D3DXVec3Length@@YAMPBUD3DXVECTOR3@@@Z		; D3DXVec3Length
; Function compile flags: /Ogsp
;	COMDAT ?D3DXVec3Length@@YAMPBUD3DXVECTOR3@@@Z
_TEXT	SEGMENT
tv169 = 8						; size = 4
tv160 = 8						; size = 4
_pV$ = 8						; size = 4
?D3DXVec3Length@@YAMPBUD3DXVECTOR3@@@Z PROC		; D3DXVec3Length, COMDAT

; 1710 : {

  00000	55		 push	 ebp
  00001	8b ec		 mov	 ebp, esp

; 1711 : #ifdef D3DX_DEBUG
; 1712 :     if(!pV)
; 1713 :         return 0.0f;
; 1714 : #endif
; 1715 : 
; 1716 : #ifdef __cplusplus
; 1717 :     return sqrtf(pV->x * pV->x + pV->y * pV->y + pV->z * pV->z);

  00003	8b 45 08	 mov	 eax, DWORD PTR _pV$[ebp]
  00006	d9 40 04	 fld	 DWORD PTR [eax+4]
  00009	d9 00		 fld	 DWORD PTR [eax]
  0000b	d9 40 08	 fld	 DWORD PTR [eax+8]
  0000e	d9 c1		 fld	 ST(1)
  00010	de ca		 fmulp	 ST(2), ST(0)
  00012	d9 c2		 fld	 ST(2)
  00014	de cb		 fmulp	 ST(3), ST(0)
  00016	d9 c9		 fxch	 ST(1)
  00018	de c2		 faddp	 ST(2), ST(0)
  0001a	d9 c0		 fld	 ST(0)
  0001c	de c9		 fmulp	 ST(1), ST(0)
  0001e	de c1		 faddp	 ST(1), ST(0)
  00020	d9 5d 08	 fstp	 DWORD PTR tv169[ebp]
  00023	d9 45 08	 fld	 DWORD PTR tv169[ebp]
  00026	e8 00 00 00 00	 call	 __CIsqrt
  0002b	d9 5d 08	 fstp	 DWORD PTR tv160[ebp]
  0002e	d9 45 08	 fld	 DWORD PTR tv160[ebp]

; 1718 : #else
; 1719 :     return (FLOAT) sqrt(pV->x * pV->x + pV->y * pV->y + pV->z * pV->z);
; 1720 : #endif
; 1721 : }

  00031	5d		 pop	 ebp
  00032	c3		 ret	 0
?D3DXVec3Length@@YAMPBUD3DXVECTOR3@@@Z ENDP		; D3DXVec3Length
_TEXT	ENDS
PUBLIC	?_DECSTR@@YAXPADH@Z				; _DECSTR
; Function compile flags: /Ogsp
; File d:\lost saga for developer\youtube\tutorial\source\src\lsclient\stringprotect.h
;	COMDAT ?_DECSTR@@YAXPADH@Z
_TEXT	SEGMENT
_s$ = 8							; size = 4
_l$ = 12						; size = 4
?_DECSTR@@YAXPADH@Z PROC				; _DECSTR, COMDAT

; 40   : __forceinline void _DECSTR(char* s, int l){int i=0,l4=(l-1)/4,*p=(int*)s;s[l-1]=0;for(;i<l4;++i)*(p++)^=0xEAEBECED;for(i=l4*4;i<l-1;++i)s[i]^=0xED-i%4;}

  00000	55		 push	 ebp
  00001	8b ec		 mov	 ebp, esp
  00003	8b 4d 0c	 mov	 ecx, DWORD PTR _l$[ebp]
  00006	56		 push	 esi
  00007	8b 75 08	 mov	 esi, DWORD PTR _s$[ebp]
  0000a	57		 push	 edi
  0000b	8d 79 ff	 lea	 edi, DWORD PTR [ecx-1]
  0000e	8b c7		 mov	 eax, edi
  00010	99		 cdq
  00011	83 e2 03	 and	 edx, 3
  00014	03 c2		 add	 eax, edx
  00016	c1 f8 02	 sar	 eax, 2
  00019	8b d6		 mov	 edx, esi
  0001b	c6 44 0e ff 00	 mov	 BYTE PTR [esi+ecx-1], 0
  00020	85 c0		 test	 eax, eax
  00022	7e 0e		 jle	 SHORT $LN4@DECSTR
  00024	8b c8		 mov	 ecx, eax
$LL6@DECSTR:
  00026	81 32 ed ec eb
	ea		 xor	 DWORD PTR [edx], -353637139 ; eaebecedH
  0002c	83 c2 04	 add	 edx, 4
  0002f	49		 dec	 ecx
  00030	75 f4		 jne	 SHORT $LL6@DECSTR
$LN4@DECSTR:
  00032	c1 e0 02	 shl	 eax, 2
  00035	eb 17		 jmp	 SHORT $LN14@DECSTR
$LL3@DECSTR:
  00037	8b c8		 mov	 ecx, eax
  00039	81 e1 03 00 00
	80		 and	 ecx, -2147483645	; 80000003H
  0003f	79 05		 jns	 SHORT $LN13@DECSTR
  00041	49		 dec	 ecx
  00042	83 c9 fc	 or	 ecx, -4			; fffffffcH
  00045	41		 inc	 ecx
$LN13@DECSTR:
  00046	b2 ed		 mov	 dl, -19			; ffffffedH
  00048	2a d1		 sub	 dl, cl
  0004a	30 14 30	 xor	 BYTE PTR [eax+esi], dl
  0004d	40		 inc	 eax
$LN14@DECSTR:
  0004e	3b c7		 cmp	 eax, edi
  00050	7c e5		 jl	 SHORT $LL3@DECSTR
  00052	5f		 pop	 edi
  00053	5e		 pop	 esi
  00054	5d		 pop	 ebp
  00055	c3		 ret	 0
?_DECSTR@@YAXPADH@Z ENDP				; _DECSTR
_TEXT	ENDS
PUBLIC	?GetGroup@ioGameEntity@@QBEPAVioEntityGroup@@XZ	; ioGameEntity::GetGroup
; Function compile flags: /Ogsp
; File d:\lost saga for developer\youtube\tutorial\source\src\lsclient\iogameentity.h
;	COMDAT ?GetGroup@ioGameEntity@@QBEPAVioEntityGroup@@XZ
_TEXT	SEGMENT
?GetGroup@ioGameEntity@@QBEPAVioEntityGroup@@XZ PROC	; ioGameEntity::GetGroup, COMDAT
; _this$ = ecx

; 166  : 	inline ioEntityGroup* GetGroup() const { return m_pGroup; }

  00000	8b 41 04	 mov	 eax, DWORD PTR [ecx+4]
  00003	c3		 ret	 0
?GetGroup@ioGameEntity@@QBEPAVioEntityGroup@@XZ ENDP	; ioGameEntity::GetGroup
_TEXT	ENDS
PUBLIC	??_R0?AVioGameEntity@@@8			; ioGameEntity `RTTI Type Descriptor'
PUBLIC	??_R0?AVioPlayEntity@@@8			; ioPlayEntity `RTTI Type Descriptor'
PUBLIC	?ToPlayEntity@@YAPAVioPlayEntity@@PAVioGameEntity@@@Z ; ToPlayEntity
EXTRN	___RTDynamicCast:PROC
;	COMDAT ??_R0?AVioGameEntity@@@8
; File d:\lost saga for developer\youtube\tutorial\source\src\lsclient\ioplayentity.h
_DATA	SEGMENT
??_R0?AVioGameEntity@@@8 DD FLAT:??_7type_info@@6B@	; ioGameEntity `RTTI Type Descriptor'
	DD	00H
	DB	'.?AVioGameEntity@@', 00H
_DATA	ENDS
;	COMDAT ??_R0?AVioPlayEntity@@@8
_DATA	SEGMENT
??_R0?AVioPlayEntity@@@8 DD FLAT:??_7type_info@@6B@	; ioPlayEntity `RTTI Type Descriptor'
	DD	00H
	DB	'.?AVioPlayEntity@@', 00H
; Function compile flags: /Ogsp
_DATA	ENDS
;	COMDAT ?ToPlayEntity@@YAPAVioPlayEntity@@PAVioGameEntity@@@Z
_TEXT	SEGMENT
_pObj$ = 8						; size = 4
?ToPlayEntity@@YAPAVioPlayEntity@@PAVioGameEntity@@@Z PROC ; ToPlayEntity, COMDAT

; 121  : {

  00000	55		 push	 ebp
  00001	8b ec		 mov	 ebp, esp
  00003	56		 push	 esi

; 122  : 	if( !pObj || pObj->GetTypeID() != ioGameEntity::GET_PLAY_ENTITY )

  00004	8b 75 08	 mov	 esi, DWORD PTR _pObj$[ebp]
  00007	85 f6		 test	 esi, esi
  00009	74 25		 je	 SHORT $LN1@ToPlayEnti
  0000b	8b 06		 mov	 eax, DWORD PTR [esi]
  0000d	8b ce		 mov	 ecx, esi
  0000f	ff 50 10	 call	 DWORD PTR [eax+16]
  00012	83 f8 01	 cmp	 eax, 1
  00015	75 19		 jne	 SHORT $LN1@ToPlayEnti

; 124  : 
; 125  : 	return dynamic_cast< ioPlayEntity* >( pObj );

  00017	6a 00		 push	 0
  00019	68 00 00 00 00	 push	 OFFSET ??_R0?AVioPlayEntity@@@8
  0001e	68 00 00 00 00	 push	 OFFSET ??_R0?AVioGameEntity@@@8
  00023	6a 00		 push	 0
  00025	56		 push	 esi
  00026	e8 00 00 00 00	 call	 ___RTDynamicCast
  0002b	83 c4 14	 add	 esp, 20			; 00000014H
  0002e	eb 02		 jmp	 SHORT $LN3@ToPlayEnti
$LN1@ToPlayEnti:

; 123  : 		return NULL;

  00030	33 c0		 xor	 eax, eax
$LN3@ToPlayEnti:
  00032	5e		 pop	 esi

; 126  : }

  00033	5d		 pop	 ebp
  00034	c3		 ret	 0
?ToPlayEntity@@YAPAVioPlayEntity@@PAVioGameEntity@@@Z ENDP ; ToPlayEntity
_TEXT	ENDS
PUBLIC	?GetParentSceneNode@ioWeapon@@QBEPAVioSceneNode@@XZ ; ioWeapon::GetParentSceneNode
; Function compile flags: /Ogsp
; File d:\lost saga for developer\youtube\tutorial\source\src\lsclient\ioweapon.h
;	COMDAT ?GetParentSceneNode@ioWeapon@@QBEPAVioSceneNode@@XZ
_TEXT	SEGMENT
?GetParentSceneNode@ioWeapon@@QBEPAVioSceneNode@@XZ PROC ; ioWeapon::GetParentSceneNode, COMDAT
; _this$ = ecx

; 797  : 	ioSceneNode* GetParentSceneNode() const { return m_pSceneNode; }

  00000	8b 41 04	 mov	 eax, DWORD PTR [ecx+4]
  00003	c3		 ret	 0
?GetParentSceneNode@ioWeapon@@QBEPAVioSceneNode@@XZ ENDP ; ioWeapon::GetParentSceneNode
_TEXT	ENDS
PUBLIC	??_7?$CEncrypt@M@@6B@				; CEncrypt<float>::`vftable'
PUBLIC	??1?$CEncrypt@M@@UAE@XZ				; CEncrypt<float>::~CEncrypt<float>
PUBLIC	??_R4?$CEncrypt@M@@6B@				; CEncrypt<float>::`RTTI Complete Object Locator'
PUBLIC	??_R0?AV?$CEncrypt@M@@@8			; CEncrypt<float> `RTTI Type Descriptor'
PUBLIC	??_R3?$CEncrypt@M@@8				; CEncrypt<float>::`RTTI Class Hierarchy Descriptor'
PUBLIC	??_R2?$CEncrypt@M@@8				; CEncrypt<float>::`RTTI Base Class Array'
PUBLIC	??_R1A@?0A@EA@?$CEncrypt@M@@8			; CEncrypt<float>::`RTTI Base Class Descriptor at (0,-1,0,64)'
EXTRN	??1ccddaabb@@UAE@XZ:PROC			; ccddaabb::~ccddaabb
EXTRN	??_E?$CEncrypt@M@@UAEPAXI@Z:PROC		; CEncrypt<float>::`vector deleting destructor'
;	COMDAT ??_R1A@?0A@EA@?$CEncrypt@M@@8
; File d:\lost saga for developer\youtube\tutorial\source\src\lsclient\encryptvalue.h
rdata$r	SEGMENT
??_R1A@?0A@EA@?$CEncrypt@M@@8 DD FLAT:??_R0?AV?$CEncrypt@M@@@8 ; CEncrypt<float>::`RTTI Base Class Descriptor at (0,-1,0,64)'
	DD	00H
	DD	00H
	DD	0ffffffffH
	DD	00H
	DD	040H
	DD	FLAT:??_R3?$CEncrypt@M@@8
rdata$r	ENDS
;	COMDAT ??_R2?$CEncrypt@M@@8
rdata$r	SEGMENT
??_R2?$CEncrypt@M@@8 DD FLAT:??_R1A@?0A@EA@?$CEncrypt@M@@8 ; CEncrypt<float>::`RTTI Base Class Array'
rdata$r	ENDS
;	COMDAT ??_R3?$CEncrypt@M@@8
rdata$r	SEGMENT
??_R3?$CEncrypt@M@@8 DD 00H				; CEncrypt<float>::`RTTI Class Hierarchy Descriptor'
	DD	00H
	DD	01H
	DD	FLAT:??_R2?$CEncrypt@M@@8
rdata$r	ENDS
;	COMDAT ??_R0?AV?$CEncrypt@M@@@8
_DATA	SEGMENT
??_R0?AV?$CEncrypt@M@@@8 DD FLAT:??_7type_info@@6B@	; CEncrypt<float> `RTTI Type Descriptor'
	DD	00H
	DB	'.?AV?$CEncrypt@M@@', 00H
_DATA	ENDS
;	COMDAT ??_R4?$CEncrypt@M@@6B@
rdata$r	SEGMENT
??_R4?$CEncrypt@M@@6B@ DD 00H				; CEncrypt<float>::`RTTI Complete Object Locator'
	DD	00H
	DD	00H
	DD	FLAT:??_R0?AV?$CEncrypt@M@@@8
	DD	FLAT:??_R3?$CEncrypt@M@@8
rdata$r	ENDS
;	COMDAT ??_7?$CEncrypt@M@@6B@
CONST	SEGMENT
??_7?$CEncrypt@M@@6B@ DD FLAT:??_R4?$CEncrypt@M@@6B@	; CEncrypt<float>::`vftable'
	DD	FLAT:??_E?$CEncrypt@M@@UAEPAXI@Z
; Function compile flags: /Ogsp
CONST	ENDS
;	COMDAT ??1?$CEncrypt@M@@UAE@XZ
_TEXT	SEGMENT
??1?$CEncrypt@M@@UAE@XZ PROC				; CEncrypt<float>::~CEncrypt<float>, COMDAT
; _this$ = ecx

; 127  : 	{

  00000	c7 01 00 00 00
	00		 mov	 DWORD PTR [ecx], OFFSET ??_7?$CEncrypt@M@@6B@

; 128  : 	}

  00006	83 c1 0c	 add	 ecx, 12			; 0000000cH
  00009	e9 00 00 00 00	 jmp	 ??1ccddaabb@@UAE@XZ	; ccddaabb::~ccddaabb
??1?$CEncrypt@M@@UAE@XZ ENDP				; CEncrypt<float>::~CEncrypt<float>
_TEXT	ENDS
PUBLIC	??_7?$CEncrypt@H@@6B@				; CEncrypt<int>::`vftable'
PUBLIC	??1?$CEncrypt@H@@UAE@XZ				; CEncrypt<int>::~CEncrypt<int>
PUBLIC	??_R4?$CEncrypt@H@@6B@				; CEncrypt<int>::`RTTI Complete Object Locator'
PUBLIC	??_R0?AV?$CEncrypt@H@@@8			; CEncrypt<int> `RTTI Type Descriptor'
PUBLIC	??_R3?$CEncrypt@H@@8				; CEncrypt<int>::`RTTI Class Hierarchy Descriptor'
PUBLIC	??_R2?$CEncrypt@H@@8				; CEncrypt<int>::`RTTI Base Class Array'
PUBLIC	??_R1A@?0A@EA@?$CEncrypt@H@@8			; CEncrypt<int>::`RTTI Base Class Descriptor at (0,-1,0,64)'
EXTRN	??_E?$CEncrypt@H@@UAEPAXI@Z:PROC		; CEncrypt<int>::`vector deleting destructor'
;	COMDAT ??_R1A@?0A@EA@?$CEncrypt@H@@8
rdata$r	SEGMENT
??_R1A@?0A@EA@?$CEncrypt@H@@8 DD FLAT:??_R0?AV?$CEncrypt@H@@@8 ; CEncrypt<int>::`RTTI Base Class Descriptor at (0,-1,0,64)'
	DD	00H
	DD	00H
	DD	0ffffffffH
	DD	00H
	DD	040H
	DD	FLAT:??_R3?$CEncrypt@H@@8
rdata$r	ENDS
;	COMDAT ??_R2?$CEncrypt@H@@8
rdata$r	SEGMENT
??_R2?$CEncrypt@H@@8 DD FLAT:??_R1A@?0A@EA@?$CEncrypt@H@@8 ; CEncrypt<int>::`RTTI Base Class Array'
rdata$r	ENDS
;	COMDAT ??_R3?$CEncrypt@H@@8
rdata$r	SEGMENT
??_R3?$CEncrypt@H@@8 DD 00H				; CEncrypt<int>::`RTTI Class Hierarchy Descriptor'
	DD	00H
	DD	01H
	DD	FLAT:??_R2?$CEncrypt@H@@8
rdata$r	ENDS
;	COMDAT ??_R0?AV?$CEncrypt@H@@@8
_DATA	SEGMENT
??_R0?AV?$CEncrypt@H@@@8 DD FLAT:??_7type_info@@6B@	; CEncrypt<int> `RTTI Type Descriptor'
	DD	00H
	DB	'.?AV?$CEncrypt@H@@', 00H
_DATA	ENDS
;	COMDAT ??_R4?$CEncrypt@H@@6B@
rdata$r	SEGMENT
??_R4?$CEncrypt@H@@6B@ DD 00H				; CEncrypt<int>::`RTTI Complete Object Locator'
	DD	00H
	DD	00H
	DD	FLAT:??_R0?AV?$CEncrypt@H@@@8
	DD	FLAT:??_R3?$CEncrypt@H@@8
rdata$r	ENDS
;	COMDAT ??_7?$CEncrypt@H@@6B@
CONST	SEGMENT
??_7?$CEncrypt@H@@6B@ DD FLAT:??_R4?$CEncrypt@H@@6B@	; CEncrypt<int>::`vftable'
	DD	FLAT:??_E?$CEncrypt@H@@UAEPAXI@Z
; Function compile flags: /Ogsp
CONST	ENDS
;	COMDAT ??1?$CEncrypt@H@@UAE@XZ
_TEXT	SEGMENT
??1?$CEncrypt@H@@UAE@XZ PROC				; CEncrypt<int>::~CEncrypt<int>, COMDAT
; _this$ = ecx

; 127  : 	{

  00000	c7 01 00 00 00
	00		 mov	 DWORD PTR [ecx], OFFSET ??_7?$CEncrypt@H@@6B@

; 128  : 	}

  00006	83 c1 0c	 add	 ecx, 12			; 0000000cH
  00009	e9 00 00 00 00	 jmp	 ??1ccddaabb@@UAE@XZ	; ccddaabb::~ccddaabb
??1?$CEncrypt@H@@UAE@XZ ENDP				; CEncrypt<int>::~CEncrypt<int>
; Function compile flags: /Ogsp
_TEXT	ENDS
;	COMDAT ??_G?$CEncrypt@M@@UAEPAXI@Z
_TEXT	SEGMENT
___flags$ = 8						; size = 4
??_G?$CEncrypt@M@@UAEPAXI@Z PROC			; CEncrypt<float>::`scalar deleting destructor', COMDAT
; _this$ = ecx
  00000	55		 push	 ebp
  00001	8b ec		 mov	 ebp, esp
  00003	56		 push	 esi
  00004	8b f1		 mov	 esi, ecx
  00006	8d 4e 0c	 lea	 ecx, DWORD PTR [esi+12]
  00009	c7 06 00 00 00
	00		 mov	 DWORD PTR [esi], OFFSET ??_7?$CEncrypt@M@@6B@
  0000f	e8 00 00 00 00	 call	 ??1ccddaabb@@UAE@XZ	; ccddaabb::~ccddaabb
  00014	f6 45 08 01	 test	 BYTE PTR ___flags$[ebp], 1
  00018	74 07		 je	 SHORT $LN1@scalar@2
  0001a	56		 push	 esi
  0001b	e8 00 00 00 00	 call	 ??3@YAXPAX@Z		; operator delete
  00020	59		 pop	 ecx
$LN1@scalar@2:
  00021	8b c6		 mov	 eax, esi
  00023	5e		 pop	 esi
  00024	5d		 pop	 ebp
  00025	c2 04 00	 ret	 4
??_G?$CEncrypt@M@@UAEPAXI@Z ENDP			; CEncrypt<float>::`scalar deleting destructor'
; Function compile flags: /Ogsp
_TEXT	ENDS
;	COMDAT ??_G?$CEncrypt@H@@UAEPAXI@Z
_TEXT	SEGMENT
___flags$ = 8						; size = 4
??_G?$CEncrypt@H@@UAEPAXI@Z PROC			; CEncrypt<int>::`scalar deleting destructor', COMDAT
; _this$ = ecx
  00000	55		 push	 ebp
  00001	8b ec		 mov	 ebp, esp
  00003	56		 push	 esi
  00004	8b f1		 mov	 esi, ecx
  00006	8d 4e 0c	 lea	 ecx, DWORD PTR [esi+12]
  00009	c7 06 00 00 00
	00		 mov	 DWORD PTR [esi], OFFSET ??_7?$CEncrypt@H@@6B@
  0000f	e8 00 00 00 00	 call	 ??1ccddaabb@@UAE@XZ	; ccddaabb::~ccddaabb
  00014	f6 45 08 01	 test	 BYTE PTR ___flags$[ebp], 1
  00018	74 07		 je	 SHORT $LN1@scalar@3
  0001a	56		 push	 esi
  0001b	e8 00 00 00 00	 call	 ??3@YAXPAX@Z		; operator delete
  00020	59		 pop	 ecx
$LN1@scalar@3:
  00021	8b c6		 mov	 eax, esi
  00023	5e		 pop	 esi
  00024	5d		 pop	 ebp
  00025	c2 04 00	 ret	 4
??_G?$CEncrypt@H@@UAEPAXI@Z ENDP			; CEncrypt<int>::`scalar deleting destructor'
_TEXT	ENDS
PUBLIC	?EncryptValueToPool@?$CEncrypt@M@@AAEXPBD@Z	; CEncrypt<float>::EncryptValueToPool
EXTRN	?EncryptByte@ccddaabb@@QAEXPBDPADH@Z:PROC	; ccddaabb::EncryptByte
; Function compile flags: /Ogsp
;	COMDAT ?EncryptValueToPool@?$CEncrypt@M@@AAEXPBD@Z
_TEXT	SEGMENT
_value$ = 8						; size = 4
?EncryptValueToPool@?$CEncrypt@M@@AAEXPBD@Z PROC	; CEncrypt<float>::EncryptValueToPool, COMDAT
; _this$ = ecx

; 67   : 	{

  00000	55		 push	 ebp
  00001	8b ec		 mov	 ebp, esp

; 68   : 		m_RC5.EncryptByte( value, m_MemPool, max(m_ValueSize, DEFAULT_ENCRYPT) );

  00003	0f b7 41 06	 movzx	 eax, WORD PTR [ecx+6]
  00007	83 f8 04	 cmp	 eax, 4
  0000a	77 03		 ja	 SHORT $LN4@EncryptVal
  0000c	6a 04		 push	 4
  0000e	58		 pop	 eax
$LN4@EncryptVal:
  0000f	50		 push	 eax
  00010	8d 41 1c	 lea	 eax, DWORD PTR [ecx+28]
  00013	50		 push	 eax
  00014	ff 75 08	 push	 DWORD PTR _value$[ebp]
  00017	83 c1 0c	 add	 ecx, 12			; 0000000cH
  0001a	e8 00 00 00 00	 call	 ?EncryptByte@ccddaabb@@QAEXPBDPADH@Z ; ccddaabb::EncryptByte

; 69   : 		
; 70   : 	}

  0001f	5d		 pop	 ebp
  00020	c2 04 00	 ret	 4
?EncryptValueToPool@?$CEncrypt@M@@AAEXPBD@Z ENDP	; CEncrypt<float>::EncryptValueToPool
_TEXT	ENDS
PUBLIC	?Init@?$CEncrypt@M@@AAEXXZ			; CEncrypt<float>::Init
EXTRN	?Setup@ccddaabb@@QAEXPBDHH@Z:PROC		; ccddaabb::Setup
EXTRN	__imp__rand:PROC
EXTRN	__imp__timeGetTime@0:PROC
EXTRN	__imp__GetCurrentProcessId@0:PROC
; Function compile flags: /Ogsp
;	COMDAT ?Init@?$CEncrypt@M@@AAEXXZ
_TEXT	SEGMENT
_pid$ = -8						; size = 4
_tick$ = -4						; size = 4
?Init@?$CEncrypt@M@@AAEXXZ PROC				; CEncrypt<float>::Init, COMDAT
; _this$ = ecx

; 73   : 	{

  00000	55		 push	 ebp
  00001	8b ec		 mov	 ebp, esp
  00003	51		 push	 ecx
  00004	51		 push	 ecx
  00005	53		 push	 ebx
  00006	56		 push	 esi
  00007	57		 push	 edi
  00008	8b f1		 mov	 esi, ecx

; 74   : 		DWORD pid = GetCurrentProcessId();

  0000a	ff 15 00 00 00
	00		 call	 DWORD PTR __imp__GetCurrentProcessId@0
  00010	89 45 f8	 mov	 DWORD PTR _pid$[ebp], eax

; 75   : 		DWORD tick = timeGetTime();

  00013	ff 15 00 00 00
	00		 call	 DWORD PTR __imp__timeGetTime@0

; 76   : 		m_ValueSize    = sizeof(type);
; 77   : 		m_MemPoolPos   = (unsigned short)( rand()+pid+tick )%(MAX_MEM_POOL-m_ValueSize);

  00019	8b 3d 00 00 00
	00		 mov	 edi, DWORD PTR __imp__rand
  0001f	89 45 fc	 mov	 DWORD PTR _tick$[ebp], eax
  00022	6a 04		 push	 4
  00024	58		 pop	 eax
  00025	66 89 46 06	 mov	 WORD PTR [esi+6], ax
  00029	ff d7		 call	 edi
  0002b	03 45 f8	 add	 eax, DWORD PTR _pid$[ebp]
  0002e	0f b7 4e 06	 movzx	 ecx, WORD PTR [esi+6]
  00032	03 45 fc	 add	 eax, DWORD PTR _tick$[ebp]
  00035	6a 0c		 push	 12			; 0000000cH
  00037	0f b7 c0	 movzx	 eax, ax
  0003a	5b		 pop	 ebx
  0003b	99		 cdq
  0003c	2b d9		 sub	 ebx, ecx
  0003e	f7 fb		 idiv	 ebx
  00040	66 89 56 04	 mov	 WORD PTR [esi+4], dx

; 78   : 		m_EncryptSeed  = (char)( rand()+pid+tick )%256;

  00044	ff d7		 call	 edi
  00046	02 45 f8	 add	 al, BYTE PTR _pid$[ebp]
  00049	02 45 fc	 add	 al, BYTE PTR _tick$[ebp]
  0004c	0f be c0	 movsx	 eax, al
  0004f	25 ff 00 00 80	 and	 eax, -2147483393	; 800000ffH
  00054	79 07		 jns	 SHORT $LN8@Init
  00056	48		 dec	 eax
  00057	0d 00 ff ff ff	 or	 eax, -256		; ffffff00H
  0005c	40		 inc	 eax
$LN8@Init:
  0005d	88 46 08	 mov	 BYTE PTR [esi+8], al

; 79   : 
; 80   : 		for (int i = 0; i < MAX_MEM_POOL ; i++)

  00060	33 db		 xor	 ebx, ebx
$LL3@Init:

; 81   : 			m_MemPool[i] = (char)( rand()+pid+tick )%256; // 

  00062	ff d7		 call	 edi
  00064	02 45 f8	 add	 al, BYTE PTR _pid$[ebp]
  00067	02 45 fc	 add	 al, BYTE PTR _tick$[ebp]
  0006a	0f be c0	 movsx	 eax, al
  0006d	25 ff 00 00 80	 and	 eax, -2147483393	; 800000ffH
  00072	79 07		 jns	 SHORT $LN9@Init
  00074	48		 dec	 eax
  00075	0d 00 ff ff ff	 or	 eax, -256		; ffffff00H
  0007a	40		 inc	 eax
$LN9@Init:
  0007b	88 44 1e 1c	 mov	 BYTE PTR [esi+ebx+28], al
  0007f	43		 inc	 ebx
  00080	83 fb 0c	 cmp	 ebx, 12			; 0000000cH
  00083	7c dd		 jl	 SHORT $LL3@Init

; 82   : 
; 83   : 		//UJ 130913, : szKey  
; 84   : 		//char szKey[ccddaabb::KEY_SIZE];//="";
; 85   : 		//for (int i = 0; i < ccddaabb::KEY_SIZE  ; i++)
; 86   : 		//	szKey[i] = (char)( rand()+pid+tick )%256; // 
; 87   : 		m_RC5.Setup( NULL, pid, tick );

  00085	ff 75 fc	 push	 DWORD PTR _tick$[ebp]
  00088	8d 4e 0c	 lea	 ecx, DWORD PTR [esi+12]
  0008b	ff 75 f8	 push	 DWORD PTR _pid$[ebp]
  0008e	6a 00		 push	 0
  00090	e8 00 00 00 00	 call	 ?Setup@ccddaabb@@QAEXPBDHH@Z ; ccddaabb::Setup
  00095	5f		 pop	 edi
  00096	5e		 pop	 esi
  00097	5b		 pop	 ebx

; 88   : 
; 89   : #ifdef _NOTUSE
; 90   : 		m_value        = 0;
; 91   : 		EncryptValueToPool((char*)&m_value);
; 92   : 		Debug();
; 93   : #endif
; 94   : 	}

  00098	c9		 leave
  00099	c3		 ret	 0
?Init@?$CEncrypt@M@@AAEXXZ ENDP				; CEncrypt<float>::Init
_TEXT	ENDS
PUBLIC	?DecryptValueToPool@?$CEncrypt@M@@QAEXPAM@Z	; CEncrypt<float>::DecryptValueToPool
EXTRN	?DecryptByte@ccddaabb@@QBEXPBDPADH@Z:PROC	; ccddaabb::DecryptByte
; Function compile flags: /Ogsp
;	COMDAT ?DecryptValueToPool@?$CEncrypt@M@@QAEXPAM@Z
_TEXT	SEGMENT
_value$ = 8						; size = 4
?DecryptValueToPool@?$CEncrypt@M@@QAEXPAM@Z PROC	; CEncrypt<float>::DecryptValueToPool, COMDAT
; _this$ = ecx

; 1648 : 	{

  00000	55		 push	 ebp
  00001	8b ec		 mov	 ebp, esp
  00003	56		 push	 esi

; 1649 : 		m_RC5.DecryptByte( m_MemPool, m_TempMem, 4 );

  00004	8d 71 28	 lea	 esi, DWORD PTR [ecx+40]
  00007	6a 04		 push	 4
  00009	8d 41 1c	 lea	 eax, DWORD PTR [ecx+28]
  0000c	56		 push	 esi
  0000d	50		 push	 eax
  0000e	83 c1 0c	 add	 ecx, 12			; 0000000cH
  00011	e8 00 00 00 00	 call	 ?DecryptByte@ccddaabb@@QBEXPBDPADH@Z ; ccddaabb::DecryptByte

; 1650 : 		*value = *((float*)m_TempMem);

  00016	d9 06		 fld	 DWORD PTR [esi]
  00018	8b 45 08	 mov	 eax, DWORD PTR _value$[ebp]
  0001b	d9 18		 fstp	 DWORD PTR [eax]
  0001d	5e		 pop	 esi

; 1651 : 	}

  0001e	5d		 pop	 ebp
  0001f	c2 04 00	 ret	 4
?DecryptValueToPool@?$CEncrypt@M@@QAEXPAM@Z ENDP	; CEncrypt<float>::DecryptValueToPool
_TEXT	ENDS
PUBLIC	?EncryptValueToPool@?$CEncrypt@H@@AAEXPBD@Z	; CEncrypt<int>::EncryptValueToPool
; Function compile flags: /Ogsp
;	COMDAT ?EncryptValueToPool@?$CEncrypt@H@@AAEXPBD@Z
_TEXT	SEGMENT
_value$ = 8						; size = 4
?EncryptValueToPool@?$CEncrypt@H@@AAEXPBD@Z PROC	; CEncrypt<int>::EncryptValueToPool, COMDAT
; _this$ = ecx

; 67   : 	{

  00000	55		 push	 ebp
  00001	8b ec		 mov	 ebp, esp

; 68   : 		m_RC5.EncryptByte( value, m_MemPool, max(m_ValueSize, DEFAULT_ENCRYPT) );

  00003	0f b7 41 06	 movzx	 eax, WORD PTR [ecx+6]
  00007	83 f8 04	 cmp	 eax, 4
  0000a	77 03		 ja	 SHORT $LN4@EncryptVal@2
  0000c	6a 04		 push	 4
  0000e	58		 pop	 eax
$LN4@EncryptVal@2:
  0000f	50		 push	 eax
  00010	8d 41 1c	 lea	 eax, DWORD PTR [ecx+28]
  00013	50		 push	 eax
  00014	ff 75 08	 push	 DWORD PTR _value$[ebp]
  00017	83 c1 0c	 add	 ecx, 12			; 0000000cH
  0001a	e8 00 00 00 00	 call	 ?EncryptByte@ccddaabb@@QAEXPBDPADH@Z ; ccddaabb::EncryptByte

; 69   : 		
; 70   : 	}

  0001f	5d		 pop	 ebp
  00020	c2 04 00	 ret	 4
?EncryptValueToPool@?$CEncrypt@H@@AAEXPBD@Z ENDP	; CEncrypt<int>::EncryptValueToPool
_TEXT	ENDS
PUBLIC	?Init@?$CEncrypt@H@@AAEXXZ			; CEncrypt<int>::Init
; Function compile flags: /Ogsp
;	COMDAT ?Init@?$CEncrypt@H@@AAEXXZ
_TEXT	SEGMENT
_pid$ = -8						; size = 4
_tick$ = -4						; size = 4
?Init@?$CEncrypt@H@@AAEXXZ PROC				; CEncrypt<int>::Init, COMDAT
; _this$ = ecx

; 73   : 	{

  00000	55		 push	 ebp
  00001	8b ec		 mov	 ebp, esp
  00003	51		 push	 ecx
  00004	51		 push	 ecx
  00005	53		 push	 ebx
  00006	56		 push	 esi
  00007	57		 push	 edi
  00008	8b f1		 mov	 esi, ecx

; 74   : 		DWORD pid = GetCurrentProcessId();

  0000a	ff 15 00 00 00
	00		 call	 DWORD PTR __imp__GetCurrentProcessId@0
  00010	89 45 f8	 mov	 DWORD PTR _pid$[ebp], eax

; 75   : 		DWORD tick = timeGetTime();

  00013	ff 15 00 00 00
	00		 call	 DWORD PTR __imp__timeGetTime@0

; 76   : 		m_ValueSize    = sizeof(type);
; 77   : 		m_MemPoolPos   = (unsigned short)( rand()+pid+tick )%(MAX_MEM_POOL-m_ValueSize);

  00019	8b 3d 00 00 00
	00		 mov	 edi, DWORD PTR __imp__rand
  0001f	89 45 fc	 mov	 DWORD PTR _tick$[ebp], eax
  00022	6a 04		 push	 4
  00024	58		 pop	 eax
  00025	66 89 46 06	 mov	 WORD PTR [esi+6], ax
  00029	ff d7		 call	 edi
  0002b	03 45 f8	 add	 eax, DWORD PTR _pid$[ebp]
  0002e	0f b7 4e 06	 movzx	 ecx, WORD PTR [esi+6]
  00032	03 45 fc	 add	 eax, DWORD PTR _tick$[ebp]
  00035	6a 0c		 push	 12			; 0000000cH
  00037	0f b7 c0	 movzx	 eax, ax
  0003a	5b		 pop	 ebx
  0003b	99		 cdq
  0003c	2b d9		 sub	 ebx, ecx
  0003e	f7 fb		 idiv	 ebx
  00040	66 89 56 04	 mov	 WORD PTR [esi+4], dx

; 78   : 		m_EncryptSeed  = (char)( rand()+pid+tick )%256;

  00044	ff d7		 call	 edi
  00046	02 45 f8	 add	 al, BYTE PTR _pid$[ebp]
  00049	02 45 fc	 add	 al, BYTE PTR _tick$[ebp]
  0004c	0f be c0	 movsx	 eax, al
  0004f	25 ff 00 00 80	 and	 eax, -2147483393	; 800000ffH
  00054	79 07		 jns	 SHORT $LN8@Init@2
  00056	48		 dec	 eax
  00057	0d 00 ff ff ff	 or	 eax, -256		; ffffff00H
  0005c	40		 inc	 eax
$LN8@Init@2:
  0005d	88 46 08	 mov	 BYTE PTR [esi+8], al

; 79   : 
; 80   : 		for (int i = 0; i < MAX_MEM_POOL ; i++)

  00060	33 db		 xor	 ebx, ebx
$LL3@Init@2:

; 81   : 			m_MemPool[i] = (char)( rand()+pid+tick )%256; // 

  00062	ff d7		 call	 edi
  00064	02 45 f8	 add	 al, BYTE PTR _pid$[ebp]
  00067	02 45 fc	 add	 al, BYTE PTR _tick$[ebp]
  0006a	0f be c0	 movsx	 eax, al
  0006d	25 ff 00 00 80	 and	 eax, -2147483393	; 800000ffH
  00072	79 07		 jns	 SHORT $LN9@Init@2
  00074	48		 dec	 eax
  00075	0d 00 ff ff ff	 or	 eax, -256		; ffffff00H
  0007a	40		 inc	 eax
$LN9@Init@2:
  0007b	88 44 1e 1c	 mov	 BYTE PTR [esi+ebx+28], al
  0007f	43		 inc	 ebx
  00080	83 fb 0c	 cmp	 ebx, 12			; 0000000cH
  00083	7c dd		 jl	 SHORT $LL3@Init@2

; 82   : 
; 83   : 		//UJ 130913, : szKey  
; 84   : 		//char szKey[ccddaabb::KEY_SIZE];//="";
; 85   : 		//for (int i = 0; i < ccddaabb::KEY_SIZE  ; i++)
; 86   : 		//	szKey[i] = (char)( rand()+pid+tick )%256; // 
; 87   : 		m_RC5.Setup( NULL, pid, tick );

  00085	ff 75 fc	 push	 DWORD PTR _tick$[ebp]
  00088	8d 4e 0c	 lea	 ecx, DWORD PTR [esi+12]
  0008b	ff 75 f8	 push	 DWORD PTR _pid$[ebp]
  0008e	6a 00		 push	 0
  00090	e8 00 00 00 00	 call	 ?Setup@ccddaabb@@QAEXPBDHH@Z ; ccddaabb::Setup
  00095	5f		 pop	 edi
  00096	5e		 pop	 esi
  00097	5b		 pop	 ebx

; 88   : 
; 89   : #ifdef _NOTUSE
; 90   : 		m_value        = 0;
; 91   : 		EncryptValueToPool((char*)&m_value);
; 92   : 		Debug();
; 93   : #endif
; 94   : 	}

  00098	c9		 leave
  00099	c3		 ret	 0
?Init@?$CEncrypt@H@@AAEXXZ ENDP				; CEncrypt<int>::Init
_TEXT	ENDS
PUBLIC	?DecryptValueToPool@?$CEncrypt@H@@QAEXPAH@Z	; CEncrypt<int>::DecryptValueToPool
; Function compile flags: /Ogsp
;	COMDAT ?DecryptValueToPool@?$CEncrypt@H@@QAEXPAH@Z
_TEXT	SEGMENT
_value$ = 8						; size = 4
?DecryptValueToPool@?$CEncrypt@H@@QAEXPAH@Z PROC	; CEncrypt<int>::DecryptValueToPool, COMDAT
; _this$ = ecx

; 837  : 	{

  00000	55		 push	 ebp
  00001	8b ec		 mov	 ebp, esp
  00003	56		 push	 esi

; 838  : 		m_RC5.DecryptByte( m_MemPool, m_TempMem, 4 );

  00004	8d 71 28	 lea	 esi, DWORD PTR [ecx+40]
  00007	6a 04		 push	 4
  00009	8d 41 1c	 lea	 eax, DWORD PTR [ecx+28]
  0000c	56		 push	 esi
  0000d	50		 push	 eax
  0000e	83 c1 0c	 add	 ecx, 12			; 0000000cH
  00011	e8 00 00 00 00	 call	 ?DecryptByte@ccddaabb@@QBEXPBDPADH@Z ; ccddaabb::DecryptByte

; 839  : 		*value = *((int*)m_TempMem);

  00016	8b 06		 mov	 eax, DWORD PTR [esi]
  00018	8b 4d 08	 mov	 ecx, DWORD PTR _value$[ebp]
  0001b	89 01		 mov	 DWORD PTR [ecx], eax
  0001d	5e		 pop	 esi

; 840  : 	}

  0001e	5d		 pop	 ebp
  0001f	c2 04 00	 ret	 4
?DecryptValueToPool@?$CEncrypt@H@@QAEXPAH@Z ENDP	; CEncrypt<int>::DecryptValueToPool
_TEXT	ENDS
PUBLIC	?DecryptValueToPool@?$CEncrypt@W4TeamType@@@@QAEXPAW4TeamType@@@Z ; CEncrypt<enum TeamType>::DecryptValueToPool
; Function compile flags: /Ogsp
;	COMDAT ?DecryptValueToPool@?$CEncrypt@W4TeamType@@@@QAEXPAW4TeamType@@@Z
_TEXT	SEGMENT
_value$ = 8						; size = 4
?DecryptValueToPool@?$CEncrypt@W4TeamType@@@@QAEXPAW4TeamType@@@Z PROC ; CEncrypt<enum TeamType>::DecryptValueToPool, COMDAT
; _this$ = ecx

; 2959 : 	{

  00000	55		 push	 ebp
  00001	8b ec		 mov	 ebp, esp
  00003	56		 push	 esi

; 2960 : 		m_RC5.DecryptByte( m_MemPool, m_TempMem, sizeof(TeamType) );

  00004	8d 71 28	 lea	 esi, DWORD PTR [ecx+40]
  00007	6a 04		 push	 4
  00009	8d 41 1c	 lea	 eax, DWORD PTR [ecx+28]
  0000c	56		 push	 esi
  0000d	50		 push	 eax
  0000e	83 c1 0c	 add	 ecx, 12			; 0000000cH
  00011	e8 00 00 00 00	 call	 ?DecryptByte@ccddaabb@@QBEXPBDPADH@Z ; ccddaabb::DecryptByte

; 2961 : 		*value = *((TeamType*)m_TempMem);

  00016	8b 06		 mov	 eax, DWORD PTR [esi]
  00018	8b 4d 08	 mov	 ecx, DWORD PTR _value$[ebp]
  0001b	89 01		 mov	 DWORD PTR [ecx], eax
  0001d	5e		 pop	 esi

; 2962 : 	}

  0001e	5d		 pop	 ebp
  0001f	c2 04 00	 ret	 4
?DecryptValueToPool@?$CEncrypt@W4TeamType@@@@QAEXPAW4TeamType@@@Z ENDP ; CEncrypt<enum TeamType>::DecryptValueToPool
_TEXT	ENDS
EXTRN	__imp_??0exception@std@@QAE@ABV01@@Z:PROC
; Function compile flags: /Ogsp
;	COMDAT ??0bad_alloc@std@@QAE@ABV01@@Z
_TEXT	SEGMENT
___that$ = 8						; size = 4
??0bad_alloc@std@@QAE@ABV01@@Z PROC			; std::bad_alloc::bad_alloc, COMDAT
; _this$ = ecx
  00000	55		 push	 ebp
  00001	8b ec		 mov	 ebp, esp
  00003	56		 push	 esi
  00004	ff 75 08	 push	 DWORD PTR ___that$[ebp]
  00007	8b f1		 mov	 esi, ecx
  00009	ff 15 00 00 00
	00		 call	 DWORD PTR __imp_??0exception@std@@QAE@ABV01@@Z
  0000f	c7 06 00 00 00
	00		 mov	 DWORD PTR [esi], OFFSET ??_7bad_alloc@std@@6B@
  00015	8b c6		 mov	 eax, esi
  00017	5e		 pop	 esi
  00018	5d		 pop	 ebp
  00019	c2 04 00	 ret	 4
??0bad_alloc@std@@QAE@ABV01@@Z ENDP			; std::bad_alloc::bad_alloc
_TEXT	ENDS
PUBLIC	??_R0?AVioBaseChar@@@8				; ioBaseChar `RTTI Type Descriptor'
PUBLIC	?ToBaseChar@@YAPAVioBaseChar@@PAVioGameEntity@@@Z ; ToBaseChar
;	COMDAT ??_R0?AVioBaseChar@@@8
; File d:\lost saga for developer\youtube\tutorial\source\src\lsclient\iobasechar.h
_DATA	SEGMENT
??_R0?AVioBaseChar@@@8 DD FLAT:??_7type_info@@6B@	; ioBaseChar `RTTI Type Descriptor'
	DD	00H
	DB	'.?AVioBaseChar@@', 00H
; Function compile flags: /Ogsp
_DATA	ENDS
;	COMDAT ?ToBaseChar@@YAPAVioBaseChar@@PAVioGameEntity@@@Z
_TEXT	SEGMENT
_pObj$ = 8						; size = 4
?ToBaseChar@@YAPAVioBaseChar@@PAVioGameEntity@@@Z PROC	; ToBaseChar, COMDAT

; 4326 : {

  00000	55		 push	 ebp
  00001	8b ec		 mov	 ebp, esp
  00003	56		 push	 esi

; 4327 : 	ioPlayEntity *pPlay = ToPlayEntity( pObj );

  00004	ff 75 08	 push	 DWORD PTR _pObj$[ebp]
  00007	e8 00 00 00 00	 call	 ?ToPlayEntity@@YAPAVioPlayEntity@@PAVioGameEntity@@@Z ; ToPlayEntity
  0000c	8b f0		 mov	 esi, eax
  0000e	59		 pop	 ecx

; 4328 : 	if( !pPlay || pPlay->GetSubType() != ioPlayEntity::PST_CHAR )

  0000f	85 f6		 test	 esi, esi
  00011	74 25		 je	 SHORT $LN1@ToBaseChar
  00013	8b 06		 mov	 eax, DWORD PTR [esi]
  00015	8b ce		 mov	 ecx, esi
  00017	ff 90 a4 00 00
	00		 call	 DWORD PTR [eax+164]
  0001d	85 c0		 test	 eax, eax
  0001f	75 17		 jne	 SHORT $LN1@ToBaseChar

; 4330 : 
; 4331 : 	return dynamic_cast< ioBaseChar* >( pPlay );

  00021	50		 push	 eax
  00022	68 00 00 00 00	 push	 OFFSET ??_R0?AVioBaseChar@@@8
  00027	68 00 00 00 00	 push	 OFFSET ??_R0?AVioPlayEntity@@@8
  0002c	50		 push	 eax
  0002d	56		 push	 esi
  0002e	e8 00 00 00 00	 call	 ___RTDynamicCast
  00033	83 c4 14	 add	 esp, 20			; 00000014H
  00036	eb 02		 jmp	 SHORT $LN3@ToBaseChar
$LN1@ToBaseChar:

; 4329 : 		return NULL;

  00038	33 c0		 xor	 eax, eax
$LN3@ToBaseChar:
  0003a	5e		 pop	 esi

; 4332 : }

  0003b	5d		 pop	 ebp
  0003c	c3		 ret	 0
?ToBaseChar@@YAPAVioBaseChar@@PAVioGameEntity@@@Z ENDP	; ToBaseChar
_TEXT	ENDS
PUBLIC	__real@4f800000
PUBLIC	?ClearData@ioPrisonWeapon@@QAEXXZ		; ioPrisonWeapon::ClearData
EXTRN	__imp_?VEC3_ZERO@ioMath@@2UD3DXVECTOR3@@A:BYTE
;	COMDAT __real@4f800000
; File c:\program files (x86)\microsoft directx sdk (june 2010)\include\d3dx9math.inl
CONST	SEGMENT
__real@4f800000 DD 04f800000r			; 4.29497e+009
; Function compile flags: /Ogsp
; File d:\lost saga for developer\youtube\tutorial\source\src\lsclient\ioprisonweapon.cpp
CONST	ENDS
;	COMDAT ?ClearData@ioPrisonWeapon@@QAEXXZ
_TEXT	SEGMENT
$T531261 = -16						; size = 12
tv189 = -4						; size = 4
?ClearData@ioPrisonWeapon@@QAEXXZ PROC			; ioPrisonWeapon::ClearData, COMDAT
; _this$ = ecx

; 30   : {

  00000	55		 push	 ebp
  00001	8b ec		 mov	 ebp, esp
  00003	83 ec 10	 sub	 esp, 16			; 00000010H
  00006	56		 push	 esi

; 31   : 	m_vPrisionPos	  = ioMath::VEC3_ZERO;

  00007	8b 35 00 00 00
	00		 mov	 esi, DWORD PTR __imp_?VEC3_ZERO@ioMath@@2UD3DXVECTOR3@@A
  0000d	57		 push	 edi
  0000e	8d b9 b4 08 00
	00		 lea	 edi, DWORD PTR [ecx+2228]
  00014	a5		 movsd
  00015	a5		 movsd
  00016	a5		 movsd

; 32   : 	m_vMoveDir		  = ioMath::VEC3_ZERO;

  00017	8b 35 00 00 00
	00		 mov	 esi, DWORD PTR __imp_?VEC3_ZERO@ioMath@@2UD3DXVECTOR3@@A
  0001d	8d b9 a8 08 00
	00		 lea	 edi, DWORD PTR [ecx+2216]
  00023	a5		 movsd
  00024	a5		 movsd
  00025	a5		 movsd

; 33   : 	m_vStartUpDownPos = ioMath::VEC3_ZERO;

  00026	8b 35 00 00 00
	00		 mov	 esi, DWORD PTR __imp_?VEC3_ZERO@ioMath@@2UD3DXVECTOR3@@A
  0002c	8d b9 c0 08 00
	00		 lea	 edi, DWORD PTR [ecx+2240]
  00032	a5		 movsd
  00033	a5		 movsd
  00034	a5		 movsd

; 34   : 	m_vCollisionDir   = D3DXVECTOR3( 0.0f, FLOAT1, 0.0f );

  00035	b8 01 00 00 00	 mov	 eax, 1
  0003a	0f 57 c0	 xorps	 xmm0, xmm0
  0003d	89 45 fc	 mov	 DWORD PTR tv189[ebp], eax
  00040	db 45 fc	 fild	 DWORD PTR tv189[ebp]
  00043	f3 0f 11 45 f0	 movss	 DWORD PTR $T531261[ebp], xmm0
  00048	85 c0		 test	 eax, eax
  0004a	79 06		 jns	 SHORT $LN7@ClearData
  0004c	d8 05 00 00 00
	00		 fadd	 DWORD PTR __real@4f800000
$LN7@ClearData:

; 35   : 
; 36   : 	m_iUpDownIndex = 0;
; 37   : 
; 38   : 	m_fCurMoveRange   = 0;
; 39   : 	m_fTotUpDownRange = 0;
; 40   : 	m_fCurUpDownRange = 0;
; 41   : 
; 42   : 	m_State = WS_INIT;
; 43   : 
; 44   : 	
; 45   : 	m_PrisonEffectID = -1;

  00052	83 89 74 09 00
	00 ff		 or	 DWORD PTR [ecx+2420], -1
  00059	d9 5d f4	 fstp	 DWORD PTR $T531261[ebp+4]
  0005c	f3 0f 11 45 f8	 movss	 DWORD PTR $T531261[ebp+8], xmm0
  00061	8d b9 9c 08 00
	00		 lea	 edi, DWORD PTR [ecx+2204]
  00067	8d 75 f0	 lea	 esi, DWORD PTR $T531261[ebp]
  0006a	a5		 movsd
  0006b	a5		 movsd
  0006c	33 c0		 xor	 eax, eax

; 46   : 	m_PrisonEffectID2 = -1;

  0006e	83 89 78 09 00
	00 ff		 or	 DWORD PTR [ecx+2424], -1
  00075	a5		 movsd
  00076	5f		 pop	 edi
  00077	89 81 cc 08 00
	00		 mov	 DWORD PTR [ecx+2252], eax
  0007d	f3 0f 11 81 d0
	08 00 00	 movss	 DWORD PTR [ecx+2256], xmm0
  00085	f3 0f 11 81 d4
	08 00 00	 movss	 DWORD PTR [ecx+2260], xmm0
  0008d	f3 0f 11 81 d8
	08 00 00	 movss	 DWORD PTR [ecx+2264], xmm0
  00095	89 81 94 08 00
	00		 mov	 DWORD PTR [ecx+2196], eax

; 47   : 
; 48   : 	m_fMoveRange = 0;

  0009b	f3 0f 11 81 98
	08 00 00	 movss	 DWORD PTR [ecx+2200], xmm0

; 49   : 
; 50   : 	m_dwCurDelayTime      = 0;

  000a3	89 81 50 0a 00
	00		 mov	 DWORD PTR [ecx+2640], eax

; 51   : 	m_dwCurUpDownDuration = 0;

  000a9	89 81 58 0a 00
	00		 mov	 DWORD PTR [ecx+2648], eax
  000af	5e		 pop	 esi

; 52   : }

  000b0	c9		 leave
  000b1	c3		 ret	 0
?ClearData@ioPrisonWeapon@@QAEXXZ ENDP			; ioPrisonWeapon::ClearData
_TEXT	ENDS
PUBLIC	?SetFireMesh@ioPrisonWeapon@@IAE_NABVioHashString@@@Z ; ioPrisonWeapon::SetFireMesh
EXTRN	__imp_?GetCollisionBox@ioEffect@@QBEABVioOrientBox@@XZ:PROC
EXTRN	__imp_??D@YA?AUD3DXVECTOR3@@ABU0@0@Z:PROC
EXTRN	__imp_??D@YA?AUD3DXVECTOR3@@ABUD3DXQUATERNION@@ABU0@@Z:PROC
EXTRN	__imp_?GetBiped@ioEntityGroup@@QAEPAVioBiped@@ABVioHashString@@@Z:PROC
EXTRN	__imp_?GetFirstLinkOffset@ioEffect@@QAE_NAAVioHashString@@AAUD3DXVECTOR3@@AAUD3DXQUATERNION@@@Z:PROC
EXTRN	__imp_??0ioHashString@@QAE@XZ:PROC
EXTRN	__imp_?UNIT_ALL@ioMath@@2UD3DXVECTOR3@@A:BYTE
EXTRN	__imp_?CreateEffect@ioEffectFactory@@QAEPAVioEffect@@ABVioHashString@@@Z:PROC
EXTRN	__imp_?GetSingleton@ioEffectFactory@@SAAAV1@XZ:PROC
EXTRN	?GetOwner@ioWeapon@@QBEPAVioBaseChar@@XZ:PROC	; ioWeapon::GetOwner
EXTRN	__EH_epilog3_GS:PROC
EXTRN	__EH_prolog3_GS:PROC
;	COMDAT xdata$x
; File c:\program files (x86)\microsoft directx sdk (june 2010)\include\d3dx9math.inl
xdata$x	SEGMENT
__unwindtable$?SetFireMesh@ioPrisonWeapon@@IAE_NABVioHashString@@@Z DD 0ffffffffH
	DD	FLAT:__unwindfunclet$?SetFireMesh@ioPrisonWeapon@@IAE_NABVioHashString@@@Z$0
	DD	00H
	DD	FLAT:__unwindfunclet$?SetFireMesh@ioPrisonWeapon@@IAE_NABVioHashString@@@Z$1
__ehfuncinfo$?SetFireMesh@ioPrisonWeapon@@IAE_NABVioHashString@@@Z DD 019930522H
	DD	02H
	DD	FLAT:__unwindtable$?SetFireMesh@ioPrisonWeapon@@IAE_NABVioHashString@@@Z
	DD	2 DUP(00H)
	DD	2 DUP(00H)
	DD	00H
	DD	01H
; Function compile flags: /Ogsp
; File d:\lost saga for developer\youtube\tutorial\source\src\lsclient\ioprisonweapon.cpp
xdata$x	ENDS
;	COMDAT ?SetFireMesh@ioPrisonWeapon@@IAE_NABVioHashString@@@Z
_TEXT	SEGMENT
_qtLinkRotOffset$ = -100				; size = 16
_szLinkBiped$ = -84					; size = 16
$T536517 = -68						; size = 4
_pOwner$ = -64						; size = 4
$T536511 = -57						; size = 1
$T536512 = -56						; size = 16
$T532153 = -52						; size = 12
_vLinkPosOffset$ = -40					; size = 12
$T532154 = -28						; size = 12
$T532152 = -28						; size = 12
$T532151 = -28						; size = 12
$T532150 = -28						; size = 12
__$EHRec$ = -12						; size = 12
_szFileName$ = 8					; size = 4
?SetFireMesh@ioPrisonWeapon@@IAE_NABVioHashString@@@Z PROC ; ioPrisonWeapon::SetFireMesh, COMDAT
; _this$ = ecx

; 135  : {

  00000	6a 58		 push	 88			; 00000058H
  00002	b8 00 00 00 00	 mov	 eax, __ehhandler$?SetFireMesh@ioPrisonWeapon@@IAE_NABVioHashString@@@Z
  00007	e8 00 00 00 00	 call	 __EH_prolog3_GS
  0000c	8b 7d 08	 mov	 edi, DWORD PTR _szFileName$[ebp]
  0000f	33 f6		 xor	 esi, esi
  00011	8b d9		 mov	 ebx, ecx
  00013	89 75 bc	 mov	 DWORD PTR $T536517[ebp], esi

; 136  : 	ioBaseChar *pOwner = GetOwner();

  00016	e8 00 00 00 00	 call	 ?GetOwner@ioWeapon@@QBEPAVioBaseChar@@XZ ; ioWeapon::GetOwner
  0001b	89 45 c0	 mov	 DWORD PTR _pOwner$[ebp], eax

; 137  : 	if( !pOwner )	

  0001e	3b c6		 cmp	 eax, esi
  00020	75 07		 jne	 SHORT $LN4@SetFireMes
$LN35@SetFireMes:

; 138  : 		return false;

  00022	32 c0		 xor	 al, al
  00024	e9 35 02 00 00	 jmp	 $LN5@SetFireMes
$LN4@SetFireMes:

; 139  : 
; 140  : 	m_pFireMesh = g_EffectFactory.CreateEffect( szFileName );

  00029	57		 push	 edi
  0002a	ff 15 00 00 00
	00		 call	 DWORD PTR __imp_?GetSingleton@ioEffectFactory@@SAAAV1@XZ
  00030	8b c8		 mov	 ecx, eax
  00032	ff 15 00 00 00
	00		 call	 DWORD PTR __imp_?CreateEffect@ioEffectFactory@@QAEPAVioEffect@@ABVioHashString@@@Z
  00038	89 83 dc 08 00
	00		 mov	 DWORD PTR [ebx+2268], eax

; 141  : 	if( !m_pFireMesh )

  0003e	3b c6		 cmp	 eax, esi

; 142  : 		return false;

  00040	74 e0		 je	 SHORT $LN35@SetFireMes

; 143  : 
; 144  : 	GetParentSceneNode()->AttachObject( m_pFireMesh );

  00042	8b 4b 04	 mov	 ecx, DWORD PTR [ebx+4]
  00045	8b 11		 mov	 edx, DWORD PTR [ecx]
  00047	83 c0 14	 add	 eax, 20			; 00000014H
  0004a	50		 push	 eax
  0004b	ff 92 ac 00 00
	00		 call	 DWORD PTR [edx+172]

; 145  : 	GetParentSceneNode()->SetScale( ioMath::UNIT_ALL );

  00051	8b 4b 04	 mov	 ecx, DWORD PTR [ebx+4]
  00054	ff 35 00 00 00
	00		 push	 DWORD PTR __imp_?UNIT_ALL@ioMath@@2UD3DXVECTOR3@@A
  0005a	8b 01		 mov	 eax, DWORD PTR [ecx]
  0005c	ff 50 20	 call	 DWORD PTR [eax+32]

; 146  : 
; 147  : 	ioHashString szLinkBiped;

  0005f	8d 4d ac	 lea	 ecx, DWORD PTR _szLinkBiped$[ebp]
  00062	ff 15 00 00 00
	00		 call	 DWORD PTR __imp_??0ioHashString@@QAE@XZ

; 148  : 	D3DXVECTOR3 vLinkPosOffset;
; 149  : 	D3DXQUATERNION qtLinkRotOffset;
; 150  : 
; 151  : 	if( m_pFireMesh->GetSkeletonName().IsEmpty() && m_pFireMesh->GetFirstLinkOffset(szLinkBiped, vLinkPosOffset, qtLinkRotOffset ) )

  00068	8b 8b dc 08 00
	00		 mov	 ecx, DWORD PTR [ebx+2268]
  0006e	8d 45 c8	 lea	 eax, DWORD PTR $T536512[ebp]
  00071	50		 push	 eax
  00072	89 75 fc	 mov	 DWORD PTR __$EHRec$[ebp+8], esi
  00075	ff 15 00 00 00
	00		 call	 DWORD PTR __imp_?GetSkeletonName@ioEffect@@QBE?AVioHashString@@XZ
  0007b	8b c8		 mov	 ecx, eax
  0007d	c6 45 fc 01	 mov	 BYTE PTR __$EHRec$[ebp+8], 1
  00081	c7 45 bc 01 00
	00 00		 mov	 DWORD PTR $T536517[ebp], 1
  00088	ff 15 00 00 00
	00		 call	 DWORD PTR __imp_?IsEmpty@ioHashString@@QBE_NXZ
  0008e	84 c0		 test	 al, al
  00090	74 20		 je	 SHORT $LN9@SetFireMes
  00092	8b 8b dc 08 00
	00		 mov	 ecx, DWORD PTR [ebx+2268]
  00098	8d 45 9c	 lea	 eax, DWORD PTR _qtLinkRotOffset$[ebp]
  0009b	50		 push	 eax
  0009c	8d 45 d8	 lea	 eax, DWORD PTR _vLinkPosOffset$[ebp]
  0009f	50		 push	 eax
  000a0	8d 45 ac	 lea	 eax, DWORD PTR _szLinkBiped$[ebp]
  000a3	50		 push	 eax
  000a4	ff 15 00 00 00
	00		 call	 DWORD PTR __imp_?GetFirstLinkOffset@ioEffect@@QAE_NAAVioHashString@@AAUD3DXVECTOR3@@AAUD3DXQUATERNION@@@Z
  000aa	c6 45 c7 01	 mov	 BYTE PTR $T536511[ebp], 1
  000ae	84 c0		 test	 al, al
  000b0	75 04		 jne	 SHORT $LN10@SetFireMes
$LN9@SetFireMes:
  000b2	c6 45 c7 00	 mov	 BYTE PTR $T536511[ebp], 0
$LN10@SetFireMes:
  000b6	8d 4d c8	 lea	 ecx, DWORD PTR $T536512[ebp]
  000b9	89 75 fc	 mov	 DWORD PTR __$EHRec$[ebp+8], esi
  000bc	ff 15 00 00 00
	00		 call	 DWORD PTR __imp_??1ioHashString@@QAE@XZ
  000c2	80 7d c7 00	 cmp	 BYTE PTR $T536511[ebp], 0
  000c6	0f 84 4a 01 00
	00		 je	 $LN1@SetFireMes

; 152  : 	{
; 153  : 		ioBiped *pLinked = pOwner->GetGroup()->GetBiped( szLinkBiped );

  000cc	8b 45 c0	 mov	 eax, DWORD PTR _pOwner$[ebp]
  000cf	8b 48 04	 mov	 ecx, DWORD PTR [eax+4]
  000d2	8d 45 ac	 lea	 eax, DWORD PTR _szLinkBiped$[ebp]
  000d5	50		 push	 eax
  000d6	ff 15 00 00 00
	00		 call	 DWORD PTR __imp_?GetBiped@ioEntityGroup@@QAEPAVioBiped@@ABVioHashString@@@Z
  000dc	8b f8		 mov	 edi, eax

; 154  : 		if( pLinked )

  000de	3b fe		 cmp	 edi, esi
  000e0	0f 84 30 01 00
	00		 je	 $LN1@SetFireMes

; 155  : 		{
; 156  : 			vLinkPosOffset = pLinked->GetDerivedOrientation() * vLinkPosOffset + pLinked->GetDerivedPosition();

  000e6	8b 07		 mov	 eax, DWORD PTR [edi]
  000e8	8b cf		 mov	 ecx, edi
  000ea	ff 50 7c	 call	 DWORD PTR [eax+124]
  000ed	8b f0		 mov	 esi, eax
  000ef	8d 45 d8	 lea	 eax, DWORD PTR _vLinkPosOffset$[ebp]
  000f2	50		 push	 eax
  000f3	8b 07		 mov	 eax, DWORD PTR [edi]
  000f5	8b cf		 mov	 ecx, edi
  000f7	ff 50 78	 call	 DWORD PTR [eax+120]
  000fa	50		 push	 eax
  000fb	8d 45 e4	 lea	 eax, DWORD PTR $T532150[ebp]
  000fe	50		 push	 eax
  000ff	ff 15 00 00 00
	00		 call	 DWORD PTR __imp_??D@YA?AUD3DXVECTOR3@@ABUD3DXQUATERNION@@ABU0@@Z
  00105	f3 0f 10 06	 movss	 xmm0, DWORD PTR [esi]
  00109	f3 0f 10 08	 movss	 xmm1, DWORD PTR [eax]
  0010d	f3 0f 10 50 04	 movss	 xmm2, DWORD PTR [eax+4]
  00112	f3 0f 10 58 08	 movss	 xmm3, DWORD PTR [eax+8]

; 157  : 			vLinkPosOffset = vLinkPosOffset * pOwner->GetWorldScale();

  00117	8b 4d c0	 mov	 ecx, DWORD PTR _pOwner$[ebp]
  0011a	0f 5a c9	 cvtps2pd xmm1, xmm1
  0011d	0f 5a c0	 cvtps2pd xmm0, xmm0
  00120	f2 0f 58 c1	 addsd	 xmm0, xmm1
  00124	f3 0f 10 4e 04	 movss	 xmm1, DWORD PTR [esi+4]
  00129	0f 5a d2	 cvtps2pd xmm2, xmm2
  0012c	0f 5a c9	 cvtps2pd xmm1, xmm1
  0012f	f2 0f 58 ca	 addsd	 xmm1, xmm2
  00133	f3 0f 10 56 08	 movss	 xmm2, DWORD PTR [esi+8]
  00138	0f 5a d2	 cvtps2pd xmm2, xmm2
  0013b	0f 5a db	 cvtps2pd xmm3, xmm3
  0013e	f2 0f 58 d3	 addsd	 xmm2, xmm3
  00142	66 0f 5a c0	 cvtpd2ps xmm0, xmm0
  00146	f3 0f 11 45 e4	 movss	 DWORD PTR $T532151[ebp], xmm0
  0014b	66 0f 5a c9	 cvtpd2ps xmm1, xmm1
  0014f	f3 0f 11 4d e8	 movss	 DWORD PTR $T532151[ebp+4], xmm1
  00154	66 0f 5a d2	 cvtpd2ps xmm2, xmm2
  00158	f3 0f 11 55 ec	 movss	 DWORD PTR $T532151[ebp+8], xmm2
  0015d	8d 75 e4	 lea	 esi, DWORD PTR $T532151[ebp]
  00160	8d 7d d8	 lea	 edi, DWORD PTR _vLinkPosOffset$[ebp]
  00163	a5		 movsd
  00164	a5		 movsd
  00165	a5		 movsd
  00166	8b 01		 mov	 eax, DWORD PTR [ecx]
  00168	83 c4 0c	 add	 esp, 12			; 0000000cH
  0016b	ff 50 78	 call	 DWORD PTR [eax+120]
  0016e	50		 push	 eax
  0016f	8d 45 d8	 lea	 eax, DWORD PTR _vLinkPosOffset$[ebp]
  00172	50		 push	 eax
  00173	8d 45 e4	 lea	 eax, DWORD PTR $T532152[ebp]
  00176	50		 push	 eax
  00177	ff 15 00 00 00
	00		 call	 DWORD PTR __imp_??D@YA?AUD3DXVECTOR3@@ABU0@0@Z
  0017d	8b f0		 mov	 esi, eax
  0017f	8d 7d d8	 lea	 edi, DWORD PTR _vLinkPosOffset$[ebp]
  00182	a5		 movsd
  00183	a5		 movsd
  00184	a5		 movsd

; 158  : 			vLinkPosOffset = pOwner->GetWorldOrientation() * vLinkPosOffset + pOwner->GetWorldPosition();

  00185	8b 7d c0	 mov	 edi, DWORD PTR _pOwner$[ebp]
  00188	8b 07		 mov	 eax, DWORD PTR [edi]
  0018a	83 c4 0c	 add	 esp, 12			; 0000000cH
  0018d	8b cf		 mov	 ecx, edi
  0018f	ff 50 70	 call	 DWORD PTR [eax+112]
  00192	8b f0		 mov	 esi, eax
  00194	8d 45 d8	 lea	 eax, DWORD PTR _vLinkPosOffset$[ebp]
  00197	50		 push	 eax
  00198	8b 07		 mov	 eax, DWORD PTR [edi]
  0019a	8b cf		 mov	 ecx, edi
  0019c	ff 50 74	 call	 DWORD PTR [eax+116]
  0019f	50		 push	 eax
  001a0	8d 45 cc	 lea	 eax, DWORD PTR $T532153[ebp]
  001a3	50		 push	 eax
  001a4	ff 15 00 00 00
	00		 call	 DWORD PTR __imp_??D@YA?AUD3DXVECTOR3@@ABUD3DXQUATERNION@@ABU0@@Z
  001aa	f3 0f 10 00	 movss	 xmm0, DWORD PTR [eax]
  001ae	f3 0f 10 0e	 movss	 xmm1, DWORD PTR [esi]
  001b2	f3 0f 10 50 04	 movss	 xmm2, DWORD PTR [eax+4]
  001b7	0f 5a c9	 cvtps2pd xmm1, xmm1
  001ba	0f 5a c0	 cvtps2pd xmm0, xmm0
  001bd	f2 0f 58 c1	 addsd	 xmm0, xmm1
  001c1	f3 0f 10 4e 04	 movss	 xmm1, DWORD PTR [esi+4]
  001c6	0f 5a c9	 cvtps2pd xmm1, xmm1
  001c9	0f 5a d2	 cvtps2pd xmm2, xmm2
  001cc	83 c4 0c	 add	 esp, 12			; 0000000cH
  001cf	66 0f 5a c0	 cvtpd2ps xmm0, xmm0
  001d3	f2 0f 58 ca	 addsd	 xmm1, xmm2
  001d7	f3 0f 10 56 08	 movss	 xmm2, DWORD PTR [esi+8]
  001dc	f3 0f 10 58 08	 movss	 xmm3, DWORD PTR [eax+8]
  001e1	0f 5a d2	 cvtps2pd xmm2, xmm2
  001e4	0f 5a db	 cvtps2pd xmm3, xmm3
  001e7	f2 0f 58 d3	 addsd	 xmm2, xmm3
  001eb	f3 0f 11 45 e4	 movss	 DWORD PTR $T532154[ebp], xmm0
  001f0	66 0f 5a c9	 cvtpd2ps xmm1, xmm1
  001f4	f3 0f 11 4d e8	 movss	 DWORD PTR $T532154[ebp+4], xmm1
  001f9	66 0f 5a d2	 cvtpd2ps xmm2, xmm2
  001fd	f3 0f 11 55 ec	 movss	 DWORD PTR $T532154[ebp+8], xmm2
  00202	8d 75 e4	 lea	 esi, DWORD PTR $T532154[ebp]
  00205	8d 7d d8	 lea	 edi, DWORD PTR _vLinkPosOffset$[ebp]
  00208	a5		 movsd
  00209	a5		 movsd

; 159  : 			SetPosition( vLinkPosOffset );

  0020a	8d 45 d8	 lea	 eax, DWORD PTR _vLinkPosOffset$[ebp]
  0020d	50		 push	 eax
  0020e	8b cb		 mov	 ecx, ebx
  00210	a5		 movsd
  00211	e8 00 00 00 00	 call	 ?SetPosition@ioWeapon@@QAEXABUD3DXVECTOR3@@@Z ; ioWeapon::SetPosition
$LN1@SetFireMes:

; 160  : 		}
; 161  : 	}
; 162  : 
; 163  : 	m_pFireMesh->UpdateBounds( true );

  00216	8b 8b dc 08 00
	00		 mov	 ecx, DWORD PTR [ebx+2268]
  0021c	83 c1 14	 add	 ecx, 20			; 00000014H
  0021f	8b 01		 mov	 eax, DWORD PTR [ecx]
  00221	6a 01		 push	 1
  00223	ff 50 44	 call	 DWORD PTR [eax+68]

; 164  : 	m_LocalAttackBox = m_pFireMesh->GetCollisionBox(); 

  00226	8b 8b dc 08 00
	00		 mov	 ecx, DWORD PTR [ebx+2268]
  0022c	ff 15 00 00 00
	00		 call	 DWORD PTR __imp_?GetCollisionBox@ioEffect@@QBEABVioOrientBox@@XZ
  00232	6a 11		 push	 17			; 00000011H
  00234	59		 pop	 ecx

; 165  : 
; 166  : 	AddEffectEvent( m_pFireMesh );

  00235	ff b3 dc 08 00
	00		 push	 DWORD PTR [ebx+2268]
  0023b	8b f0		 mov	 esi, eax
  0023d	8b 03		 mov	 eax, DWORD PTR [ebx]
  0023f	8d bb e0 08 00
	00		 lea	 edi, DWORD PTR [ebx+2272]
  00245	f3 a5		 rep movsd
  00247	8b cb		 mov	 ecx, ebx
  00249	ff 90 68 01 00
	00		 call	 DWORD PTR [eax+360]

; 167  : 	return true;

  0024f	83 4d fc ff	 or	 DWORD PTR __$EHRec$[ebp+8], -1
  00253	8d 4d ac	 lea	 ecx, DWORD PTR _szLinkBiped$[ebp]
  00256	ff 15 00 00 00
	00		 call	 DWORD PTR __imp_??1ioHashString@@QAE@XZ
  0025c	b0 01		 mov	 al, 1
$LN5@SetFireMes:

; 168  : }

  0025e	e8 00 00 00 00	 call	 __EH_epilog3_GS
  00263	c2 04 00	 ret	 4
_TEXT	ENDS
;	COMDAT text$x
text$x	SEGMENT
__unwindfunclet$?SetFireMesh@ioPrisonWeapon@@IAE_NABVioHashString@@@Z$0:
  00000	8d 4d ac	 lea	 ecx, DWORD PTR _szLinkBiped$[ebp]
  00003	ff 25 00 00 00
	00		 jmp	 DWORD PTR __imp_??1ioHashString@@QAE@XZ
__unwindfunclet$?SetFireMesh@ioPrisonWeapon@@IAE_NABVioHashString@@@Z$1:
  00009	8b 45 bc	 mov	 eax, DWORD PTR $T536517[ebp]
  0000c	83 e0 01	 and	 eax, 1
  0000f	0f 84 0d 00 00
	00		 je	 $LN13@SetFireMes
  00015	83 65 bc fe	 and	 DWORD PTR $T536517[ebp], -2 ; fffffffeH
  00019	8d 4d c8	 lea	 ecx, DWORD PTR $T536512[ebp]
  0001c	ff 25 00 00 00
	00		 jmp	 DWORD PTR __imp_??1ioHashString@@QAE@XZ
$LN13@SetFireMes:
  00022	c3		 ret	 0
__ehhandler$?SetFireMesh@ioPrisonWeapon@@IAE_NABVioHashString@@@Z:
  00023	8b 54 24 08	 mov	 edx, DWORD PTR [esp+8]
  00027	8d 42 0c	 lea	 eax, DWORD PTR [edx+12]
  0002a	8b 4a 98	 mov	 ecx, DWORD PTR [edx-104]
  0002d	33 c8		 xor	 ecx, eax
  0002f	e8 00 00 00 00	 call	 @__security_check_cookie@4
  00034	8b 4a fc	 mov	 ecx, DWORD PTR [edx-4]
  00037	33 c8		 xor	 ecx, eax
  00039	e8 00 00 00 00	 call	 @__security_check_cookie@4
  0003e	b8 00 00 00 00	 mov	 eax, OFFSET __ehfuncinfo$?SetFireMesh@ioPrisonWeapon@@IAE_NABVioHashString@@@Z
  00043	e9 00 00 00 00	 jmp	 ___CxxFrameHandler3
text$x	ENDS
?SetFireMesh@ioPrisonWeapon@@IAE_NABVioHashString@@@Z ENDP ; ioPrisonWeapon::SetFireMesh
PUBLIC	_this$GSCopy$
PUBLIC	__$ArrayPad$
PUBLIC	?SetMoveDir@ioPrisonWeapon@@UAEXABUD3DXVECTOR3@@@Z ; ioPrisonWeapon::SetMoveDir
EXTRN	?SetOrientation@ioWeapon@@QAEXABUD3DXQUATERNION@@@Z:PROC ; ioWeapon::SetOrientation
EXTRN	__imp_?CalcDirectionQuaternion@ioMath@@SAXAAUD3DXQUATERNION@@ABUD3DXVECTOR3@@@Z:PROC
EXTRN	_D3DXVec3Normalize@8:PROC
EXTRN	___security_cookie:DWORD
; Function compile flags: /Ogsp
;	COMDAT ?SetMoveDir@ioPrisonWeapon@@UAEXABUD3DXVECTOR3@@@Z
_TEXT	SEGMENT
_qtRot$ = -36						; size = 16
_this$GSCopy$ = -20					; size = 4
$T532169 = -16						; size = 12
__$ArrayPad$ = -4					; size = 4
_vDir$ = 8						; size = 4
?SetMoveDir@ioPrisonWeapon@@UAEXABUD3DXVECTOR3@@@Z PROC	; ioPrisonWeapon::SetMoveDir, COMDAT
; _this$ = ecx

; 179  : {

  00000	55		 push	 ebp
  00001	8b ec		 mov	 ebp, esp
  00003	83 ec 24	 sub	 esp, 36			; 00000024H
  00006	a1 00 00 00 00	 mov	 eax, DWORD PTR ___security_cookie
  0000b	33 c5		 xor	 eax, ebp
  0000d	89 45 fc	 mov	 DWORD PTR __$ArrayPad$[ebp], eax
  00010	53		 push	 ebx
  00011	8b 5d 08	 mov	 ebx, DWORD PTR _vDir$[ebp]
  00014	56		 push	 esi
  00015	57		 push	 edi
  00016	8b c1		 mov	 eax, ecx
  00018	89 45 ec	 mov	 DWORD PTR _this$GSCopy$[ebp], eax

; 180  : 	m_vMoveDir = vDir;

  0001b	05 a8 08 00 00	 add	 eax, 2216		; 000008a8H
  00020	8b f8		 mov	 edi, eax
  00022	8b f3		 mov	 esi, ebx
  00024	a5		 movsd
  00025	a5		 movsd

; 181  : 	D3DXVec3Normalize( &m_vMoveDir, &m_vMoveDir );

  00026	50		 push	 eax
  00027	50		 push	 eax
  00028	a5		 movsd
  00029	e8 00 00 00 00	 call	 _D3DXVec3Normalize@8

; 182  : 
; 183  : 	D3DXQUATERNION qtRot;
; 184  : 	ioMath::CalcDirectionQuaternion( qtRot, -vDir );

  0002e	f3 0f 10 05 00
	00 00 00	 movss	 xmm0, DWORD PTR __mask@@NegFloat@
  00036	f3 0f 10 0b	 movss	 xmm1, DWORD PTR [ebx]
  0003a	0f 57 c8	 xorps	 xmm1, xmm0
  0003d	f3 0f 11 4d f0	 movss	 DWORD PTR $T532169[ebp], xmm1
  00042	f3 0f 10 4b 04	 movss	 xmm1, DWORD PTR [ebx+4]
  00047	0f 57 c8	 xorps	 xmm1, xmm0
  0004a	8d 45 f0	 lea	 eax, DWORD PTR $T532169[ebp]
  0004d	50		 push	 eax
  0004e	f3 0f 11 4d f4	 movss	 DWORD PTR $T532169[ebp+4], xmm1
  00053	f3 0f 10 4b 08	 movss	 xmm1, DWORD PTR [ebx+8]
  00058	8d 45 dc	 lea	 eax, DWORD PTR _qtRot$[ebp]
  0005b	0f 57 c8	 xorps	 xmm1, xmm0
  0005e	50		 push	 eax
  0005f	f3 0f 11 4d f8	 movss	 DWORD PTR $T532169[ebp+8], xmm1
  00064	ff 15 00 00 00
	00		 call	 DWORD PTR __imp_?CalcDirectionQuaternion@ioMath@@SAXAAUD3DXQUATERNION@@ABUD3DXVECTOR3@@@Z
  0006a	59		 pop	 ecx
  0006b	59		 pop	 ecx

; 185  : 	SetOrientation( qtRot );

  0006c	8b 4d ec	 mov	 ecx, DWORD PTR _this$GSCopy$[ebp]
  0006f	8d 45 dc	 lea	 eax, DWORD PTR _qtRot$[ebp]
  00072	50		 push	 eax
  00073	e8 00 00 00 00	 call	 ?SetOrientation@ioWeapon@@QAEXABUD3DXQUATERNION@@@Z ; ioWeapon::SetOrientation

; 186  : }

  00078	8b 4d fc	 mov	 ecx, DWORD PTR __$ArrayPad$[ebp]
  0007b	5f		 pop	 edi
  0007c	5e		 pop	 esi
  0007d	33 cd		 xor	 ecx, ebp
  0007f	5b		 pop	 ebx
  00080	e8 00 00 00 00	 call	 @__security_check_cookie@4
  00085	c9		 leave
  00086	c2 04 00	 ret	 4
?SetMoveDir@ioPrisonWeapon@@UAEXABUD3DXVECTOR3@@@Z ENDP	; ioPrisonWeapon::SetMoveDir
_TEXT	ENDS
PUBLIC	__$ArrayPad$
PUBLIC	?GetAttackDir@ioPrisonWeapon@@UBE?AUD3DXVECTOR3@@PBVioPlayEntity@@@Z ; ioPrisonWeapon::GetAttackDir
EXTRN	?GetAttackDir@ioWeapon@@UBE?AUD3DXVECTOR3@@PBVioPlayEntity@@@Z:PROC ; ioWeapon::GetAttackDir
; Function compile flags: /Ogsp
;	COMDAT ?GetAttackDir@ioPrisonWeapon@@UBE?AUD3DXVECTOR3@@PBVioPlayEntity@@@Z
_TEXT	SEGMENT
_vMoveDir$532188 = -16					; size = 12
__$ArrayPad$ = -4					; size = 4
___$ReturnUdt$ = 8					; size = 4
_pEntity$ = 12						; size = 4
?GetAttackDir@ioPrisonWeapon@@UBE?AUD3DXVECTOR3@@PBVioPlayEntity@@@Z PROC ; ioPrisonWeapon::GetAttackDir, COMDAT
; _this$ = ecx

; 204  : {

  00000	55		 push	 ebp
  00001	8b ec		 mov	 ebp, esp
  00003	83 ec 10	 sub	 esp, 16			; 00000010H
  00006	a1 00 00 00 00	 mov	 eax, DWORD PTR ___security_cookie
  0000b	33 c5		 xor	 eax, ebp
  0000d	89 45 fc	 mov	 DWORD PTR __$ArrayPad$[ebp], eax
  00010	53		 push	 ebx
  00011	8b 5d 08	 mov	 ebx, DWORD PTR ___$ReturnUdt$[ebp]
  00014	56		 push	 esi
  00015	8b f1		 mov	 esi, ecx
  00017	8b 4d 0c	 mov	 ecx, DWORD PTR _pEntity$[ebp]

; 205  : 	if( pEntity )

  0001a	85 c9		 test	 ecx, ecx
  0001c	74 7a		 je	 SHORT $LN1@GetAttackD

; 206  : 	{
; 207  : 		D3DXVECTOR3 vMoveDir = m_vPrisionPos - pEntity->GetWorldPosition();

  0001e	8b 01		 mov	 eax, DWORD PTR [ecx]
  00020	57		 push	 edi
  00021	ff 50 70	 call	 DWORD PTR [eax+112]
  00024	f3 0f 10 48 04	 movss	 xmm1, DWORD PTR [eax+4]
  00029	f3 0f 10 50 08	 movss	 xmm2, DWORD PTR [eax+8]
  0002e	f3 0f 10 86 b8
	08 00 00	 movss	 xmm0, DWORD PTR [esi+2232]
  00036	f3 0f 10 18	 movss	 xmm3, DWORD PTR [eax]
  0003a	0f 5a c9	 cvtps2pd xmm1, xmm1
  0003d	0f 5a c0	 cvtps2pd xmm0, xmm0
  00040	f2 0f 5c c1	 subsd	 xmm0, xmm1
  00044	f3 0f 10 8e bc
	08 00 00	 movss	 xmm1, DWORD PTR [esi+2236]
  0004c	0f 5a d2	 cvtps2pd xmm2, xmm2
  0004f	0f 5a c9	 cvtps2pd xmm1, xmm1
  00052	f2 0f 5c ca	 subsd	 xmm1, xmm2
  00056	f3 0f 10 96 b4
	08 00 00	 movss	 xmm2, DWORD PTR [esi+2228]

; 208  : 		D3DXVec3Normalize( &vMoveDir, &vMoveDir );

  0005e	8d 45 f0	 lea	 eax, DWORD PTR _vMoveDir$532188[ebp]
  00061	0f 5a d2	 cvtps2pd xmm2, xmm2
  00064	0f 5a db	 cvtps2pd xmm3, xmm3
  00067	50		 push	 eax
  00068	f2 0f 5c d3	 subsd	 xmm2, xmm3
  0006c	66 0f 5a c0	 cvtpd2ps xmm0, xmm0
  00070	66 0f 5a c9	 cvtpd2ps xmm1, xmm1
  00074	66 0f 5a d2	 cvtpd2ps xmm2, xmm2
  00078	50		 push	 eax
  00079	f3 0f 11 55 f0	 movss	 DWORD PTR _vMoveDir$532188[ebp], xmm2
  0007e	f3 0f 11 45 f4	 movss	 DWORD PTR _vMoveDir$532188[ebp+4], xmm0
  00083	f3 0f 11 4d f8	 movss	 DWORD PTR _vMoveDir$532188[ebp+8], xmm1
  00088	e8 00 00 00 00	 call	 _D3DXVec3Normalize@8

; 209  : 		return vMoveDir;

  0008d	8d 75 f0	 lea	 esi, DWORD PTR _vMoveDir$532188[ebp]
  00090	8b fb		 mov	 edi, ebx
  00092	a5		 movsd
  00093	a5		 movsd
  00094	a5		 movsd
  00095	5f		 pop	 edi
  00096	eb 0a		 jmp	 SHORT $LN8@GetAttackD
$LN1@GetAttackD:

; 210  : 	}
; 211  : 	
; 212  : 	return ioWeapon::GetAttackDir( pEntity );

  00098	6a 00		 push	 0
  0009a	53		 push	 ebx
  0009b	8b ce		 mov	 ecx, esi
  0009d	e8 00 00 00 00	 call	 ?GetAttackDir@ioWeapon@@UBE?AUD3DXVECTOR3@@PBVioPlayEntity@@@Z ; ioWeapon::GetAttackDir
$LN8@GetAttackD:

; 213  : }

  000a2	8b 4d fc	 mov	 ecx, DWORD PTR __$ArrayPad$[ebp]
  000a5	5e		 pop	 esi
  000a6	8b c3		 mov	 eax, ebx
  000a8	33 cd		 xor	 ecx, ebp
  000aa	5b		 pop	 ebx
  000ab	e8 00 00 00 00	 call	 @__security_check_cookie@4
  000b0	c9		 leave
  000b1	c2 08 00	 ret	 8
?GetAttackDir@ioPrisonWeapon@@UBE?AUD3DXVECTOR3@@PBVioPlayEntity@@@Z ENDP ; ioPrisonWeapon::GetAttackDir
_TEXT	ENDS
PUBLIC	__$ArrayPad$
PUBLIC	?CreateEndEffect@ioPrisonWeapon@@QAEXMPAVioPlayStage@@@Z ; ioPrisonWeapon::CreateEndEffect
EXTRN	?CreateMapEffect@ioPlayStage@@QAEPAVioMapEffect@@ABVioHashString@@ABUD3DXVECTOR3@@1@Z:PROC ; ioPlayStage::CreateMapEffect
; Function compile flags: /Ogsp
;	COMDAT ?CreateEndEffect@ioPrisonWeapon@@QAEXMPAVioPlayStage@@@Z
_TEXT	SEGMENT
tv171 = -20						; size = 4
tv168 = -20						; size = 4
tv165 = -20						; size = 4
$T532247 = -16						; size = 12
__$ArrayPad$ = -4					; size = 4
_fTimePerSec$ = 8					; size = 4
_pStage$ = 12						; size = 4
?CreateEndEffect@ioPrisonWeapon@@QAEXMPAVioPlayStage@@@Z PROC ; ioPrisonWeapon::CreateEndEffect, COMDAT
; _this$ = ecx

; 267  : {	

  00000	55		 push	 ebp
  00001	8b ec		 mov	 ebp, esp
  00003	83 ec 14	 sub	 esp, 20			; 00000014H
  00006	a1 00 00 00 00	 mov	 eax, DWORD PTR ___security_cookie
  0000b	33 c5		 xor	 eax, ebp
  0000d	89 45 fc	 mov	 DWORD PTR __$ArrayPad$[ebp], eax
  00010	56		 push	 esi
  00011	57		 push	 edi
  00012	8b 7d 0c	 mov	 edi, DWORD PTR _pStage$[ebp]
  00015	8b f1		 mov	 esi, ecx

; 268  : 	if( !pStage )

  00017	85 ff		 test	 edi, edi
  00019	74 66		 je	 SHORT $LN2@CreateEndE

; 269  : 		return;
; 270  : 	
; 271  : 	pStage->CreateMapEffect( m_szEndEffect, GetPosition(), D3DXVECTOR3( FLOAT1, FLOAT1, FLOAT1 ) );

  0001b	b8 01 00 00 00	 mov	 eax, 1
  00020	8b c8		 mov	 ecx, eax
  00022	b8 01 00 00 00	 mov	 eax, 1
  00027	8b d0		 mov	 edx, eax
  00029	b8 01 00 00 00	 mov	 eax, 1
  0002e	89 45 ec	 mov	 DWORD PTR tv171[ebp], eax
  00031	db 45 ec	 fild	 DWORD PTR tv171[ebp]
  00034	85 c0		 test	 eax, eax
  00036	79 06		 jns	 SHORT $LN12@CreateEndE
  00038	d8 05 00 00 00
	00		 fadd	 DWORD PTR __real@4f800000
$LN12@CreateEndE:
  0003e	89 55 ec	 mov	 DWORD PTR tv168[ebp], edx
  00041	d9 5d f0	 fstp	 DWORD PTR $T532247[ebp]
  00044	db 45 ec	 fild	 DWORD PTR tv168[ebp]
  00047	85 d2		 test	 edx, edx
  00049	79 06		 jns	 SHORT $LN13@CreateEndE
  0004b	d8 05 00 00 00
	00		 fadd	 DWORD PTR __real@4f800000
$LN13@CreateEndE:
  00051	89 4d ec	 mov	 DWORD PTR tv165[ebp], ecx
  00054	d9 5d f4	 fstp	 DWORD PTR $T532247[ebp+4]
  00057	db 45 ec	 fild	 DWORD PTR tv165[ebp]
  0005a	85 c9		 test	 ecx, ecx
  0005c	79 06		 jns	 SHORT $LN14@CreateEndE
  0005e	d8 05 00 00 00
	00		 fadd	 DWORD PTR __real@4f800000
$LN14@CreateEndE:
  00064	8d 45 f0	 lea	 eax, DWORD PTR $T532247[ebp]
  00067	d9 5d f8	 fstp	 DWORD PTR $T532247[ebp+8]
  0006a	50		 push	 eax
  0006b	8b 06		 mov	 eax, DWORD PTR [esi]
  0006d	8b ce		 mov	 ecx, esi
  0006f	ff 50 70	 call	 DWORD PTR [eax+112]
  00072	50		 push	 eax
  00073	81 c6 64 09 00
	00		 add	 esi, 2404		; 00000964H
  00079	56		 push	 esi
  0007a	8b cf		 mov	 ecx, edi
  0007c	e8 00 00 00 00	 call	 ?CreateMapEffect@ioPlayStage@@QAEPAVioMapEffect@@ABVioHashString@@ABUD3DXVECTOR3@@1@Z ; ioPlayStage::CreateMapEffect
$LN2@CreateEndE:

; 272  : }

  00081	8b 4d fc	 mov	 ecx, DWORD PTR __$ArrayPad$[ebp]
  00084	5f		 pop	 edi
  00085	33 cd		 xor	 ecx, ebp
  00087	5e		 pop	 esi
  00088	e8 00 00 00 00	 call	 @__security_check_cookie@4
  0008d	c9		 leave
  0008e	c2 08 00	 ret	 8
?CreateEndEffect@ioPrisonWeapon@@QAEXMPAVioPlayStage@@@Z ENDP ; ioPrisonWeapon::CreateEndEffect
_TEXT	ENDS
PUBLIC	__real@00000000
PUBLIC	__$ArrayPad$
PUBLIC	?ProcessMove@ioPrisonWeapon@@QAEXMPAVioPlayStage@@@Z ; ioPrisonWeapon::ProcessMove
;	COMDAT __real@00000000
; File d:\lost saga for developer\youtube\tutorial\source\src\lsclient\ioweapon.h
CONST	SEGMENT
__real@00000000 DD 000000000r			; 0
; Function compile flags: /Ogsp
; File d:\lost saga for developer\youtube\tutorial\source\src\lsclient\ioprisonweapon.cpp
CONST	ENDS
;	COMDAT ?ProcessMove@ioPrisonWeapon@@QAEXMPAVioPlayStage@@@Z
_TEXT	SEGMENT
tv321 = -32						; size = 4
tv317 = -32						; size = 4
tv312 = -32						; size = 4
_fMoveDist$ = -32					; size = 4
$T532283 = -28						; size = 12
_vMove$ = -16						; size = 12
__$ArrayPad$ = -4					; size = 4
_fTimePerSec$ = 8					; size = 4
_pStage$ = 12						; size = 4
?ProcessMove@ioPrisonWeapon@@QAEXMPAVioPlayStage@@@Z PROC ; ioPrisonWeapon::ProcessMove, COMDAT
; _this$ = ecx

; 349  : {

  00000	55		 push	 ebp
  00001	8b ec		 mov	 ebp, esp
  00003	83 ec 20	 sub	 esp, 32			; 00000020H
  00006	a1 00 00 00 00	 mov	 eax, DWORD PTR ___security_cookie
  0000b	33 c5		 xor	 eax, ebp
  0000d	89 45 fc	 mov	 DWORD PTR __$ArrayPad$[ebp], eax

; 350  : 	if( fTimePerSec == 0.0f )

  00010	f3 0f 10 45 08	 movss	 xmm0, DWORD PTR _fTimePerSec$[ebp]
  00015	0f 2e 05 00 00
	00 00		 ucomiss xmm0, DWORD PTR __real@00000000
  0001c	9f		 lahf
  0001d	56		 push	 esi
  0001e	8b f1		 mov	 esi, ecx
  00020	f6 c4 44	 test	 ah, 68			; 00000044H
  00023	7a 37		 jp	 SHORT $LN3@ProcessMov

; 351  : 		fTimePerSec = FLOAT0001;

  00025	b8 01 00 00 00	 mov	 eax, 1
  0002a	8b c8		 mov	 ecx, eax
  0002c	b8 e8 03 00 00	 mov	 eax, 1000		; 000003e8H
  00031	89 4d e0	 mov	 DWORD PTR tv321[ebp], ecx
  00034	db 45 e0	 fild	 DWORD PTR tv321[ebp]
  00037	85 c9		 test	 ecx, ecx
  00039	79 06		 jns	 SHORT $LN16@ProcessMov
  0003b	d8 05 00 00 00
	00		 fadd	 DWORD PTR __real@4f800000
$LN16@ProcessMov:
  00041	89 45 e0	 mov	 DWORD PTR tv317[ebp], eax
  00044	db 45 e0	 fild	 DWORD PTR tv317[ebp]
  00047	85 c0		 test	 eax, eax
  00049	79 06		 jns	 SHORT $LN17@ProcessMov
  0004b	d8 05 00 00 00
	00		 fadd	 DWORD PTR __real@4f800000
$LN17@ProcessMov:
  00051	de f9		 fdivp	 ST(1), ST(0)
  00053	d9 5d e0	 fstp	 DWORD PTR tv312[ebp]
  00056	d9 45 e0	 fld	 DWORD PTR tv312[ebp]
  00059	d9 5d 08	 fstp	 DWORD PTR _fTimePerSec$[ebp]
$LN3@ProcessMov:

; 352  : 	
; 353  : 	float fMoveDist = GetAttribute()->m_fMoveSpeed * fTimePerSec;

  0005c	8b 06		 mov	 eax, DWORD PTR [esi]
  0005e	8b ce		 mov	 ecx, esi
  00060	ff 90 3c 01 00
	00		 call	 DWORD PTR [eax+316]
  00066	f3 0f 10 80 98
	01 00 00	 movss	 xmm0, DWORD PTR [eax+408]
  0006e	f3 0f 10 4d 08	 movss	 xmm1, DWORD PTR _fTimePerSec$[ebp]

; 354  : 	D3DXVECTOR3 vMove = GetMoveDir() * fMoveDist;	

  00073	8b 06		 mov	 eax, DWORD PTR [esi]
  00075	0f 5a c0	 cvtps2pd xmm0, xmm0
  00078	8d 4d e4	 lea	 ecx, DWORD PTR $T532283[ebp]
  0007b	0f 5a c9	 cvtps2pd xmm1, xmm1
  0007e	f2 0f 59 c1	 mulsd	 xmm0, xmm1
  00082	51		 push	 ecx
  00083	66 0f 5a c0	 cvtpd2ps xmm0, xmm0
  00087	8b ce		 mov	 ecx, esi
  00089	f3 0f 11 45 e0	 movss	 DWORD PTR _fMoveDist$[ebp], xmm0
  0008e	ff 90 08 01 00
	00		 call	 DWORD PTR [eax+264]
  00094	f3 0f 10 40 04	 movss	 xmm0, DWORD PTR [eax+4]
  00099	f3 0f 10 55 e0	 movss	 xmm2, DWORD PTR _fMoveDist$[ebp]
  0009e	0f 5a ca	 cvtps2pd xmm1, xmm2
  000a1	0f 5a c0	 cvtps2pd xmm0, xmm0
  000a4	f2 0f 59 c1	 mulsd	 xmm0, xmm1
  000a8	f3 0f 10 48 08	 movss	 xmm1, DWORD PTR [eax+8]
  000ad	66 0f 5a c0	 cvtpd2ps xmm0, xmm0
  000b1	0f 5a c9	 cvtps2pd xmm1, xmm1
  000b4	0f 5a da	 cvtps2pd xmm3, xmm2
  000b7	f2 0f 59 cb	 mulsd	 xmm1, xmm3
  000bb	f3 0f 10 18	 movss	 xmm3, DWORD PTR [eax]
  000bf	66 0f 5a c9	 cvtpd2ps xmm1, xmm1
  000c3	f3 0f 11 4d f8	 movss	 DWORD PTR _vMove$[ebp+8], xmm1

; 355  : 	m_fCurMoveRange += fMoveDist;

  000c8	f3 0f 10 8e d0
	08 00 00	 movss	 xmm1, DWORD PTR [esi+2256]
  000d0	f3 0f 11 45 f4	 movss	 DWORD PTR _vMove$[ebp+4], xmm0
  000d5	0f 5a c2	 cvtps2pd xmm0, xmm2
  000d8	0f 5a c9	 cvtps2pd xmm1, xmm1
  000db	f2 0f 58 c1	 addsd	 xmm0, xmm1

; 356  : 	
; 357  : 	if( m_fCurMoveRange < m_fMoveRange )

  000df	f3 0f 10 8e 98
	08 00 00	 movss	 xmm1, DWORD PTR [esi+2200]
  000e7	66 0f 5a c0	 cvtpd2ps xmm0, xmm0
  000eb	0f 5a db	 cvtps2pd xmm3, xmm3
  000ee	0f 5a e2	 cvtps2pd xmm4, xmm2
  000f1	f3 0f 11 86 d0
	08 00 00	 movss	 DWORD PTR [esi+2256], xmm0
  000f9	f2 0f 59 dc	 mulsd	 xmm3, xmm4
  000fd	f3 0f 5a c0	 cvtss2sd xmm0, xmm0
  00101	0f 5a c9	 cvtps2pd xmm1, xmm1
  00104	66 0f 2f c8	 comisd	 xmm1, xmm0
  00108	66 0f 5a db	 cvtpd2ps xmm3, xmm3
  0010c	f3 0f 11 5d f0	 movss	 DWORD PTR _vMove$[ebp], xmm3
  00111	76 10		 jbe	 SHORT $LN2@ProcessMov

; 358  : 	{			
; 359  : 		GetParentSceneNode()->Translate( vMove );

  00113	8b 4e 04	 mov	 ecx, DWORD PTR [esi+4]
  00116	8b 01		 mov	 eax, DWORD PTR [ecx]
  00118	6a 01		 push	 1
  0011a	8d 55 f0	 lea	 edx, DWORD PTR _vMove$[ebp]
  0011d	52		 push	 edx
  0011e	ff 50 3c	 call	 DWORD PTR [eax+60]

; 360  : 	}
; 361  : 	else

  00121	eb 15		 jmp	 SHORT $LN1@ProcessMov
$LN2@ProcessMov:

; 362  : 	{
; 363  : 		m_fCurMoveRange = 0;

  00123	0f 57 c0	 xorps	 xmm0, xmm0
  00126	f3 0f 11 86 d0
	08 00 00	 movss	 DWORD PTR [esi+2256], xmm0

; 364  : 		m_State = WM_DELAY;

  0012e	c7 86 94 08 00
	00 02 00 00 00	 mov	 DWORD PTR [esi+2196], 2
$LN1@ProcessMov:

; 365  : 	}
; 366  : }

  00138	8b 4d fc	 mov	 ecx, DWORD PTR __$ArrayPad$[ebp]
  0013b	33 cd		 xor	 ecx, ebp
  0013d	5e		 pop	 esi
  0013e	e8 00 00 00 00	 call	 @__security_check_cookie@4
  00143	c9		 leave
  00144	c2 08 00	 ret	 8
?ProcessMove@ioPrisonWeapon@@QAEXMPAVioPlayStage@@@Z ENDP ; ioPrisonWeapon::ProcessMove
_TEXT	ENDS
PUBLIC	?DestroyResource@ioPrisonWeapon@@UAEXPAVioPlayStage@@@Z ; ioPrisonWeapon::DestroyResource
EXTRN	?EndEffectForce@ioMapEffect@@QAEXXZ:PROC	; ioMapEffect::EndEffectForce
; Function compile flags: /Ogsp
;	COMDAT ?DestroyResource@ioPrisonWeapon@@UAEXPAVioPlayStage@@@Z
_TEXT	SEGMENT
_pStage$ = 8						; size = 4
?DestroyResource@ioPrisonWeapon@@UAEXPAVioPlayStage@@@Z PROC ; ioPrisonWeapon::DestroyResource, COMDAT
; _this$ = ecx

; 508  : {

  00000	55		 push	 ebp
  00001	8b ec		 mov	 ebp, esp

; 509  : 	if( pStage )

  00003	83 7d 08 00	 cmp	 DWORD PTR _pStage$[ebp], 0
  00007	56		 push	 esi
  00008	8b f1		 mov	 esi, ecx
  0000a	74 32		 je	 SHORT $LN1@DestroyRes

; 510  : 	{
; 511  : 		ioMapEffect* pPrisonEffect = pStage->FindMapEffect( m_PrisonEffectID );

  0000c	ff b6 74 09 00
	00		 push	 DWORD PTR [esi+2420]
  00012	8b 4d 08	 mov	 ecx, DWORD PTR _pStage$[ebp]
  00015	e8 00 00 00 00	 call	 ?FindMapEffect@ioPlayStage@@QAEPAVioMapEffect@@K@Z ; ioPlayStage::FindMapEffect

; 512  : 		if( pPrisonEffect )

  0001a	85 c0		 test	 eax, eax
  0001c	74 07		 je	 SHORT $LN2@DestroyRes

; 513  : 			pPrisonEffect->EndEffectForce();

  0001e	8b c8		 mov	 ecx, eax
  00020	e8 00 00 00 00	 call	 ?EndEffectForce@ioMapEffect@@QAEXXZ ; ioMapEffect::EndEffectForce
$LN2@DestroyRes:

; 514  : 
; 515  : 		pPrisonEffect = pStage->FindMapEffect( m_PrisonEffectID2 );

  00025	ff b6 78 09 00
	00		 push	 DWORD PTR [esi+2424]
  0002b	8b 4d 08	 mov	 ecx, DWORD PTR _pStage$[ebp]
  0002e	e8 00 00 00 00	 call	 ?FindMapEffect@ioPlayStage@@QAEPAVioMapEffect@@K@Z ; ioPlayStage::FindMapEffect

; 516  : 		if( pPrisonEffect )

  00033	85 c0		 test	 eax, eax
  00035	74 07		 je	 SHORT $LN1@DestroyRes

; 517  : 			pPrisonEffect->EndEffectForce();

  00037	8b c8		 mov	 ecx, eax
  00039	e8 00 00 00 00	 call	 ?EndEffectForce@ioMapEffect@@QAEXXZ ; ioMapEffect::EndEffectForce
$LN1@DestroyRes:

; 518  : 	}
; 519  : 
; 520  : 	ClearData();

  0003e	8b ce		 mov	 ecx, esi
  00040	e8 00 00 00 00	 call	 ?ClearData@ioPrisonWeapon@@QAEXXZ ; ioPrisonWeapon::ClearData
  00045	5e		 pop	 esi

; 521  : }

  00046	5d		 pop	 ebp
  00047	c2 04 00	 ret	 4
?DestroyResource@ioPrisonWeapon@@UAEXPAVioPlayStage@@@Z ENDP ; ioPrisonWeapon::DestroyResource
_TEXT	ENDS
PUBLIC	??4?$CEncrypt@H@@QAEHM@Z			; CEncrypt<int>::operator=
; Function compile flags: /Ogsp
; File d:\lost saga for developer\youtube\tutorial\source\src\lsclient\encryptvalue.h
;	COMDAT ??4?$CEncrypt@H@@QAEHM@Z
_TEXT	SEGMENT
_value$ = 8						; size = 4
_inValue$ = 8						; size = 4
??4?$CEncrypt@H@@QAEHM@Z PROC				; CEncrypt<int>::operator=, COMDAT
; _this$ = ecx

; 1654 : 	{	

  00000	55		 push	 ebp
  00001	8b ec		 mov	 ebp, esp

; 1655 : 		type value = inValue;

  00003	f3 0f 2c 45 08	 cvttss2si eax, DWORD PTR _inValue$[ebp]
  00008	89 45 08	 mov	 DWORD PTR _value$[ebp], eax

; 1656 : 		EncryptValueToPool((char*)&value);

  0000b	8d 45 08	 lea	 eax, DWORD PTR _value$[ebp]
  0000e	50		 push	 eax
  0000f	e8 00 00 00 00	 call	 ?EncryptValueToPool@?$CEncrypt@H@@AAEXPBD@Z ; CEncrypt<int>::EncryptValueToPool

; 1657 : #ifdef _NOTUSE
; 1658 : 		m_value = inValue;
; 1659 : 		Debug();
; 1660 : #endif
; 1661 : 		return value;

  00014	8b 45 08	 mov	 eax, DWORD PTR _value$[ebp]

; 1662 : 	}

  00017	5d		 pop	 ebp
  00018	c2 04 00	 ret	 4
??4?$CEncrypt@H@@QAEHM@Z ENDP				; CEncrypt<int>::operator=
_TEXT	ENDS
PUBLIC	?begin@?$vector@UUpDownMoveInfo@ioPrisonWeapon@@V?$allocator@UUpDownMoveInfo@ioPrisonWeapon@@@std@@@std@@QBE?AV?$_Vector_const_iterator@V?$_Vector_val@UUpDownMoveInfo@ioPrisonWeapon@@V?$allocator@UUpDownMoveInfo@ioPrisonWeapon@@@std@@@std@@@2@XZ ; std::vector<ioPrisonWeapon::UpDownMoveInfo,std::allocator<ioPrisonWeapon::UpDownMoveInfo> >::begin
; Function compile flags: /Ogsp
; File c:\program files (x86)\microsoft visual studio 10.0\vc\include\vector
;	COMDAT ?begin@?$vector@UUpDownMoveInfo@ioPrisonWeapon@@V?$allocator@UUpDownMoveInfo@ioPrisonWeapon@@@std@@@std@@QBE?AV?$_Vector_const_iterator@V?$_Vector_val@UUpDownMoveInfo@ioPrisonWeapon@@V?$allocator@UUpDownMoveInfo@ioPrisonWeapon@@@std@@@std@@@2@XZ
_TEXT	SEGMENT
___$ReturnUdt$ = 8					; size = 4
?begin@?$vector@UUpDownMoveInfo@ioPrisonWeapon@@V?$allocator@UUpDownMoveInfo@ioPrisonWeapon@@@std@@@std@@QBE?AV?$_Vector_const_iterator@V?$_Vector_val@UUpDownMoveInfo@ioPrisonWeapon@@V?$allocator@UUpDownMoveInfo@ioPrisonWeapon@@@std@@@std@@@2@XZ PROC ; std::vector<ioPrisonWeapon::UpDownMoveInfo,std::allocator<ioPrisonWeapon::UpDownMoveInfo> >::begin, COMDAT
; _this$ = ecx

; 786  : 		{	// return iterator for beginning of nonmutable sequence

  00000	55		 push	 ebp
  00001	8b ec		 mov	 ebp, esp

; 787  : 		return (const_iterator(this->_Myfirst, this));

  00003	8b 09		 mov	 ecx, DWORD PTR [ecx]
  00005	8b 45 08	 mov	 eax, DWORD PTR ___$ReturnUdt$[ebp]
  00008	89 08		 mov	 DWORD PTR [eax], ecx

; 788  : 		}

  0000a	5d		 pop	 ebp
  0000b	c2 04 00	 ret	 4
?begin@?$vector@UUpDownMoveInfo@ioPrisonWeapon@@V?$allocator@UUpDownMoveInfo@ioPrisonWeapon@@@std@@@std@@QBE?AV?$_Vector_const_iterator@V?$_Vector_val@UUpDownMoveInfo@ioPrisonWeapon@@V?$allocator@UUpDownMoveInfo@ioPrisonWeapon@@@std@@@std@@@2@XZ ENDP ; std::vector<ioPrisonWeapon::UpDownMoveInfo,std::allocator<ioPrisonWeapon::UpDownMoveInfo> >::begin
_TEXT	ENDS
PUBLIC	?end@?$vector@UUpDownMoveInfo@ioPrisonWeapon@@V?$allocator@UUpDownMoveInfo@ioPrisonWeapon@@@std@@@std@@QBE?AV?$_Vector_const_iterator@V?$_Vector_val@UUpDownMoveInfo@ioPrisonWeapon@@V?$allocator@UUpDownMoveInfo@ioPrisonWeapon@@@std@@@std@@@2@XZ ; std::vector<ioPrisonWeapon::UpDownMoveInfo,std::allocator<ioPrisonWeapon::UpDownMoveInfo> >::end
; Function compile flags: /Ogsp
;	COMDAT ?end@?$vector@UUpDownMoveInfo@ioPrisonWeapon@@V?$allocator@UUpDownMoveInfo@ioPrisonWeapon@@@std@@@std@@QBE?AV?$_Vector_const_iterator@V?$_Vector_val@UUpDownMoveInfo@ioPrisonWeapon@@V?$allocator@UUpDownMoveInfo@ioPrisonWeapon@@@std@@@std@@@2@XZ
_TEXT	SEGMENT
___$ReturnUdt$ = 8					; size = 4
?end@?$vector@UUpDownMoveInfo@ioPrisonWeapon@@V?$allocator@UUpDownMoveInfo@ioPrisonWeapon@@@std@@@std@@QBE?AV?$_Vector_const_iterator@V?$_Vector_val@UUpDownMoveInfo@ioPrisonWeapon@@V?$allocator@UUpDownMoveInfo@ioPrisonWeapon@@@std@@@std@@@2@XZ PROC ; std::vector<ioPrisonWeapon::UpDownMoveInfo,std::allocator<ioPrisonWeapon::UpDownMoveInfo> >::end, COMDAT
; _this$ = ecx

; 796  : 		{	// return iterator for end of nonmutable sequence

  00000	55		 push	 ebp
  00001	8b ec		 mov	 ebp, esp

; 797  : 		return (const_iterator(this->_Mylast, this));

  00003	8b 49 04	 mov	 ecx, DWORD PTR [ecx+4]
  00006	8b 45 08	 mov	 eax, DWORD PTR ___$ReturnUdt$[ebp]
  00009	89 08		 mov	 DWORD PTR [eax], ecx

; 798  : 		}

  0000b	5d		 pop	 ebp
  0000c	c2 04 00	 ret	 4
?end@?$vector@UUpDownMoveInfo@ioPrisonWeapon@@V?$allocator@UUpDownMoveInfo@ioPrisonWeapon@@@std@@@std@@QBE?AV?$_Vector_const_iterator@V?$_Vector_val@UUpDownMoveInfo@ioPrisonWeapon@@V?$allocator@UUpDownMoveInfo@ioPrisonWeapon@@@std@@@std@@@2@XZ ENDP ; std::vector<ioPrisonWeapon::UpDownMoveInfo,std::allocator<ioPrisonWeapon::UpDownMoveInfo> >::end
_TEXT	ENDS
PUBLIC	??0?$_Vector_val@UUpDownMoveInfo@ioPrisonWeapon@@V?$allocator@UUpDownMoveInfo@ioPrisonWeapon@@@std@@@std@@QAE@V?$allocator@UUpDownMoveInfo@ioPrisonWeapon@@@1@@Z ; std::_Vector_val<ioPrisonWeapon::UpDownMoveInfo,std::allocator<ioPrisonWeapon::UpDownMoveInfo> >::_Vector_val<ioPrisonWeapon::UpDownMoveInfo,std::allocator<ioPrisonWeapon::UpDownMoveInfo> >
; Function compile flags: /Ogsp
;	COMDAT ??0?$_Vector_val@UUpDownMoveInfo@ioPrisonWeapon@@V?$allocator@UUpDownMoveInfo@ioPrisonWeapon@@@std@@@std@@QAE@V?$allocator@UUpDownMoveInfo@ioPrisonWeapon@@@1@@Z
_TEXT	SEGMENT
__Al$ = 8						; size = 1
??0?$_Vector_val@UUpDownMoveInfo@ioPrisonWeapon@@V?$allocator@UUpDownMoveInfo@ioPrisonWeapon@@@std@@@std@@QAE@V?$allocator@UUpDownMoveInfo@ioPrisonWeapon@@@1@@Z PROC ; std::_Vector_val<ioPrisonWeapon::UpDownMoveInfo,std::allocator<ioPrisonWeapon::UpDownMoveInfo> >::_Vector_val<ioPrisonWeapon::UpDownMoveInfo,std::allocator<ioPrisonWeapon::UpDownMoveInfo> >, COMDAT
; _this$ = ecx

; 426  : 		{	// construct allocator from _Al

  00000	8b c1		 mov	 eax, ecx

; 427  : 		_Myfirst = 0;

  00002	33 c9		 xor	 ecx, ecx
  00004	89 08		 mov	 DWORD PTR [eax], ecx

; 428  : 		_Mylast = 0;

  00006	89 48 04	 mov	 DWORD PTR [eax+4], ecx

; 429  : 		_Myend = 0;

  00009	89 48 08	 mov	 DWORD PTR [eax+8], ecx

; 430  : 		}

  0000c	c2 04 00	 ret	 4
??0?$_Vector_val@UUpDownMoveInfo@ioPrisonWeapon@@V?$allocator@UUpDownMoveInfo@ioPrisonWeapon@@@std@@@std@@QAE@V?$allocator@UUpDownMoveInfo@ioPrisonWeapon@@@1@@Z ENDP ; std::_Vector_val<ioPrisonWeapon::UpDownMoveInfo,std::allocator<ioPrisonWeapon::UpDownMoveInfo> >::_Vector_val<ioPrisonWeapon::UpDownMoveInfo,std::allocator<ioPrisonWeapon::UpDownMoveInfo> >
_TEXT	ENDS
PUBLIC	??0?$_Vector_val@UUpDownInfo@ioPrisonWeapon@@V?$allocator@UUpDownInfo@ioPrisonWeapon@@@std@@@std@@QAE@V?$allocator@UUpDownInfo@ioPrisonWeapon@@@1@@Z ; std::_Vector_val<ioPrisonWeapon::UpDownInfo,std::allocator<ioPrisonWeapon::UpDownInfo> >::_Vector_val<ioPrisonWeapon::UpDownInfo,std::allocator<ioPrisonWeapon::UpDownInfo> >
; Function compile flags: /Ogsp
;	COMDAT ??0?$_Vector_val@UUpDownInfo@ioPrisonWeapon@@V?$allocator@UUpDownInfo@ioPrisonWeapon@@@std@@@std@@QAE@V?$allocator@UUpDownInfo@ioPrisonWeapon@@@1@@Z
_TEXT	SEGMENT
__Al$ = 8						; size = 1
??0?$_Vector_val@UUpDownInfo@ioPrisonWeapon@@V?$allocator@UUpDownInfo@ioPrisonWeapon@@@std@@@std@@QAE@V?$allocator@UUpDownInfo@ioPrisonWeapon@@@1@@Z PROC ; std::_Vector_val<ioPrisonWeapon::UpDownInfo,std::allocator<ioPrisonWeapon::UpDownInfo> >::_Vector_val<ioPrisonWeapon::UpDownInfo,std::allocator<ioPrisonWeapon::UpDownInfo> >, COMDAT
; _this$ = ecx

; 426  : 		{	// construct allocator from _Al

  00000	8b c1		 mov	 eax, ecx

; 427  : 		_Myfirst = 0;

  00002	33 c9		 xor	 ecx, ecx
  00004	89 08		 mov	 DWORD PTR [eax], ecx

; 428  : 		_Mylast = 0;

  00006	89 48 04	 mov	 DWORD PTR [eax+4], ecx

; 429  : 		_Myend = 0;

  00009	89 48 08	 mov	 DWORD PTR [eax+8], ecx

; 430  : 		}

  0000c	c2 04 00	 ret	 4
??0?$_Vector_val@UUpDownInfo@ioPrisonWeapon@@V?$allocator@UUpDownInfo@ioPrisonWeapon@@@std@@@std@@QAE@V?$allocator@UUpDownInfo@ioPrisonWeapon@@@1@@Z ENDP ; std::_Vector_val<ioPrisonWeapon::UpDownInfo,std::allocator<ioPrisonWeapon::UpDownInfo> >::_Vector_val<ioPrisonWeapon::UpDownInfo,std::allocator<ioPrisonWeapon::UpDownInfo> >
_TEXT	ENDS
PUBLIC	??8?$_Vector_const_iterator@V?$_Vector_val@UUpDownMoveInfo@ioPrisonWeapon@@V?$allocator@UUpDownMoveInfo@ioPrisonWeapon@@@std@@@std@@@std@@QBE_NABV01@@Z ; std::_Vector_const_iterator<std::_Vector_val<ioPrisonWeapon::UpDownMoveInfo,std::allocator<ioPrisonWeapon::UpDownMoveInfo> > >::operator==
; Function compile flags: /Ogsp
;	COMDAT ??8?$_Vector_const_iterator@V?$_Vector_val@UUpDownMoveInfo@ioPrisonWeapon@@V?$allocator@UUpDownMoveInfo@ioPrisonWeapon@@@std@@@std@@@std@@QBE_NABV01@@Z
_TEXT	SEGMENT
__Right$ = 8						; size = 4
??8?$_Vector_const_iterator@V?$_Vector_val@UUpDownMoveInfo@ioPrisonWeapon@@V?$allocator@UUpDownMoveInfo@ioPrisonWeapon@@@std@@@std@@@std@@QBE_NABV01@@Z PROC ; std::_Vector_const_iterator<std::_Vector_val<ioPrisonWeapon::UpDownMoveInfo,std::allocator<ioPrisonWeapon::UpDownMoveInfo> > >::operator==, COMDAT
; _this$ = ecx

; 201  : 		{	// test for iterator equality

  00000	55		 push	 ebp
  00001	8b ec		 mov	 ebp, esp

; 202  : 		_Compat(_Right);
; 203  : 		return (this->_Ptr == _Right._Ptr);

  00003	8b 01		 mov	 eax, DWORD PTR [ecx]
  00005	8b 4d 08	 mov	 ecx, DWORD PTR __Right$[ebp]
  00008	2b 01		 sub	 eax, DWORD PTR [ecx]
  0000a	f7 d8		 neg	 eax
  0000c	1b c0		 sbb	 eax, eax
  0000e	40		 inc	 eax

; 204  : 		}

  0000f	5d		 pop	 ebp
  00010	c2 04 00	 ret	 4
??8?$_Vector_const_iterator@V?$_Vector_val@UUpDownMoveInfo@ioPrisonWeapon@@V?$allocator@UUpDownMoveInfo@ioPrisonWeapon@@@std@@@std@@@std@@QBE_NABV01@@Z ENDP ; std::_Vector_const_iterator<std::_Vector_val<ioPrisonWeapon::UpDownMoveInfo,std::allocator<ioPrisonWeapon::UpDownMoveInfo> > >::operator==
_TEXT	ENDS
PUBLIC	??0?$_Vector_iterator@V?$_Vector_val@UUpDownMoveInfo@ioPrisonWeapon@@V?$allocator@UUpDownMoveInfo@ioPrisonWeapon@@@std@@@std@@@std@@QAE@PAUUpDownMoveInfo@ioPrisonWeapon@@PBU_Container_base0@1@@Z ; std::_Vector_iterator<std::_Vector_val<ioPrisonWeapon::UpDownMoveInfo,std::allocator<ioPrisonWeapon::UpDownMoveInfo> > >::_Vector_iterator<std::_Vector_val<ioPrisonWeapon::UpDownMoveInfo,std::allocator<ioPrisonWeapon::UpDownMoveInfo> > >
; Function compile flags: /Ogsp
;	COMDAT ??0?$_Vector_iterator@V?$_Vector_val@UUpDownMoveInfo@ioPrisonWeapon@@V?$allocator@UUpDownMoveInfo@ioPrisonWeapon@@@std@@@std@@@std@@QAE@PAUUpDownMoveInfo@ioPrisonWeapon@@PBU_Container_base0@1@@Z
_TEXT	SEGMENT
__Parg$ = 8						; size = 4
__Pvector$ = 12						; size = 4
??0?$_Vector_iterator@V?$_Vector_val@UUpDownMoveInfo@ioPrisonWeapon@@V?$allocator@UUpDownMoveInfo@ioPrisonWeapon@@@std@@@std@@@std@@QAE@PAUUpDownMoveInfo@ioPrisonWeapon@@PBU_Container_base0@1@@Z PROC ; std::_Vector_iterator<std::_Vector_val<ioPrisonWeapon::UpDownMoveInfo,std::allocator<ioPrisonWeapon::UpDownMoveInfo> > >::_Vector_iterator<std::_Vector_val<ioPrisonWeapon::UpDownMoveInfo,std::allocator<ioPrisonWeapon::UpDownMoveInfo> > >, COMDAT
; _this$ = ecx

; 304  : 		{	// construct with pointer _Parg

  00000	55		 push	 ebp
  00001	8b ec		 mov	 ebp, esp
  00003	8b c1		 mov	 eax, ecx
  00005	8b 4d 08	 mov	 ecx, DWORD PTR __Parg$[ebp]
  00008	89 08		 mov	 DWORD PTR [eax], ecx

; 305  : 		}

  0000a	5d		 pop	 ebp
  0000b	c2 08 00	 ret	 8
??0?$_Vector_iterator@V?$_Vector_val@UUpDownMoveInfo@ioPrisonWeapon@@V?$allocator@UUpDownMoveInfo@ioPrisonWeapon@@@std@@@std@@@std@@QAE@PAUUpDownMoveInfo@ioPrisonWeapon@@PBU_Container_base0@1@@Z ENDP ; std::_Vector_iterator<std::_Vector_val<ioPrisonWeapon::UpDownMoveInfo,std::allocator<ioPrisonWeapon::UpDownMoveInfo> > >::_Vector_iterator<std::_Vector_val<ioPrisonWeapon::UpDownMoveInfo,std::allocator<ioPrisonWeapon::UpDownMoveInfo> > >
_TEXT	ENDS
PUBLIC	?max_size@?$vector@UUpDownMoveInfo@ioPrisonWeapon@@V?$allocator@UUpDownMoveInfo@ioPrisonWeapon@@@std@@@std@@QBEIXZ ; std::vector<ioPrisonWeapon::UpDownMoveInfo,std::allocator<ioPrisonWeapon::UpDownMoveInfo> >::max_size
; Function compile flags: /Ogsp
;	COMDAT ?max_size@?$vector@UUpDownMoveInfo@ioPrisonWeapon@@V?$allocator@UUpDownMoveInfo@ioPrisonWeapon@@@std@@@std@@QBEIXZ
_TEXT	SEGMENT
?max_size@?$vector@UUpDownMoveInfo@ioPrisonWeapon@@V?$allocator@UUpDownMoveInfo@ioPrisonWeapon@@@std@@@std@@QBEIXZ PROC ; std::vector<ioPrisonWeapon::UpDownMoveInfo,std::allocator<ioPrisonWeapon::UpDownMoveInfo> >::max_size, COMDAT
; _this$ = ecx

; 884  : 		return (this->_Alval.max_size());

  00000	b8 55 55 55 15	 mov	 eax, 357913941		; 15555555H

; 885  : 		}

  00005	c3		 ret	 0
?max_size@?$vector@UUpDownMoveInfo@ioPrisonWeapon@@V?$allocator@UUpDownMoveInfo@ioPrisonWeapon@@@std@@@std@@QBEIXZ ENDP ; std::vector<ioPrisonWeapon::UpDownMoveInfo,std::allocator<ioPrisonWeapon::UpDownMoveInfo> >::max_size
_TEXT	ENDS
PUBLIC	?_Grow_to@?$vector@UUpDownMoveInfo@ioPrisonWeapon@@V?$allocator@UUpDownMoveInfo@ioPrisonWeapon@@@std@@@std@@IBEII@Z ; std::vector<ioPrisonWeapon::UpDownMoveInfo,std::allocator<ioPrisonWeapon::UpDownMoveInfo> >::_Grow_to
; Function compile flags: /Ogsp
;	COMDAT ?_Grow_to@?$vector@UUpDownMoveInfo@ioPrisonWeapon@@V?$allocator@UUpDownMoveInfo@ioPrisonWeapon@@@std@@@std@@IBEII@Z
_TEXT	SEGMENT
__Count$ = 8						; size = 4
?_Grow_to@?$vector@UUpDownMoveInfo@ioPrisonWeapon@@V?$allocator@UUpDownMoveInfo@ioPrisonWeapon@@@std@@@std@@IBEII@Z PROC ; std::vector<ioPrisonWeapon::UpDownMoveInfo,std::allocator<ioPrisonWeapon::UpDownMoveInfo> >::_Grow_to, COMDAT
; _this$ = ecx

; 1274 : 		{	// grow by 50% or at least to _Count

  00000	55		 push	 ebp
  00001	8b ec		 mov	 ebp, esp

; 1275 : 		size_type _Capacity = capacity();

  00003	8b 41 08	 mov	 eax, DWORD PTR [ecx+8]
  00006	2b 01		 sub	 eax, DWORD PTR [ecx]
  00008	6a 0c		 push	 12			; 0000000cH
  0000a	99		 cdq
  0000b	59		 pop	 ecx
  0000c	f7 f9		 idiv	 ecx

; 1276 : 
; 1277 : 		_Capacity = max_size() - _Capacity / 2 < _Capacity
; 1278 : 			? 0 : _Capacity + _Capacity / 2;	// try to grow by 50%

  0000e	ba 55 55 55 15	 mov	 edx, 357913941		; 15555555H
  00013	8b c8		 mov	 ecx, eax
  00015	d1 e9		 shr	 ecx, 1
  00017	2b d1		 sub	 edx, ecx
  00019	3b d0		 cmp	 edx, eax
  0001b	73 04		 jae	 SHORT $LN4@Grow_to
  0001d	33 c0		 xor	 eax, eax
  0001f	eb 02		 jmp	 SHORT $LN5@Grow_to
$LN4@Grow_to:
  00021	03 c1		 add	 eax, ecx
$LN5@Grow_to:

; 1279 : 		if (_Capacity < _Count)

  00023	3b 45 08	 cmp	 eax, DWORD PTR __Count$[ebp]

; 1280 : 			_Capacity = _Count;

  00026	0f 42 45 08	 cmovb	 eax, DWORD PTR __Count$[ebp]

; 1281 : 		return (_Capacity);
; 1282 : 		}

  0002a	5d		 pop	 ebp
  0002b	c2 04 00	 ret	 4
?_Grow_to@?$vector@UUpDownMoveInfo@ioPrisonWeapon@@V?$allocator@UUpDownMoveInfo@ioPrisonWeapon@@@std@@@std@@IBEII@Z ENDP ; std::vector<ioPrisonWeapon::UpDownMoveInfo,std::allocator<ioPrisonWeapon::UpDownMoveInfo> >::_Grow_to
_TEXT	ENDS
PUBLIC	?allocate@?$allocator@UUpDownMoveInfo@ioPrisonWeapon@@@std@@QAEPAUUpDownMoveInfo@ioPrisonWeapon@@I@Z ; std::allocator<ioPrisonWeapon::UpDownMoveInfo>::allocate
; Function compile flags: /Ogsp
; File c:\program files (x86)\microsoft visual studio 10.0\vc\include\xmemory
;	COMDAT ?allocate@?$allocator@UUpDownMoveInfo@ioPrisonWeapon@@@std@@QAEPAUUpDownMoveInfo@ioPrisonWeapon@@I@Z
_TEXT	SEGMENT
__Count$ = 8						; size = 4
?allocate@?$allocator@UUpDownMoveInfo@ioPrisonWeapon@@@std@@QAEPAUUpDownMoveInfo@ioPrisonWeapon@@I@Z PROC ; std::allocator<ioPrisonWeapon::UpDownMoveInfo>::allocate, COMDAT
; _this$ = ecx

; 186  : 		{	// allocate array of _Count elements

  00000	55		 push	 ebp
  00001	8b ec		 mov	 ebp, esp

; 187  : 		return (_Allocate(_Count, (pointer)0));

  00003	6a 00		 push	 0
  00005	ff 75 08	 push	 DWORD PTR __Count$[ebp]
  00008	e8 00 00 00 00	 call	 ??$_Allocate@UUpDownMoveInfo@ioPrisonWeapon@@@std@@YAPAUUpDownMoveInfo@ioPrisonWeapon@@IPAU12@@Z ; std::_Allocate<ioPrisonWeapon::UpDownMoveInfo>
  0000d	59		 pop	 ecx
  0000e	59		 pop	 ecx

; 188  : 		}

  0000f	5d		 pop	 ebp
  00010	c2 04 00	 ret	 4
?allocate@?$allocator@UUpDownMoveInfo@ioPrisonWeapon@@@std@@QAEPAUUpDownMoveInfo@ioPrisonWeapon@@I@Z ENDP ; std::allocator<ioPrisonWeapon::UpDownMoveInfo>::allocate
_TEXT	ENDS
PUBLIC	?max_size@?$vector@UUpDownInfo@ioPrisonWeapon@@V?$allocator@UUpDownInfo@ioPrisonWeapon@@@std@@@std@@QBEIXZ ; std::vector<ioPrisonWeapon::UpDownInfo,std::allocator<ioPrisonWeapon::UpDownInfo> >::max_size
; Function compile flags: /Ogsp
; File c:\program files (x86)\microsoft visual studio 10.0\vc\include\vector
;	COMDAT ?max_size@?$vector@UUpDownInfo@ioPrisonWeapon@@V?$allocator@UUpDownInfo@ioPrisonWeapon@@@std@@@std@@QBEIXZ
_TEXT	SEGMENT
?max_size@?$vector@UUpDownInfo@ioPrisonWeapon@@V?$allocator@UUpDownInfo@ioPrisonWeapon@@@std@@@std@@QBEIXZ PROC ; std::vector<ioPrisonWeapon::UpDownInfo,std::allocator<ioPrisonWeapon::UpDownInfo> >::max_size, COMDAT
; _this$ = ecx

; 884  : 		return (this->_Alval.max_size());

  00000	b8 cc cc cc 0c	 mov	 eax, 214748364		; 0cccccccH

; 885  : 		}

  00005	c3		 ret	 0
?max_size@?$vector@UUpDownInfo@ioPrisonWeapon@@V?$allocator@UUpDownInfo@ioPrisonWeapon@@@std@@@std@@QBEIXZ ENDP ; std::vector<ioPrisonWeapon::UpDownInfo,std::allocator<ioPrisonWeapon::UpDownInfo> >::max_size
_TEXT	ENDS
PUBLIC	?_Grow_to@?$vector@UUpDownInfo@ioPrisonWeapon@@V?$allocator@UUpDownInfo@ioPrisonWeapon@@@std@@@std@@IBEII@Z ; std::vector<ioPrisonWeapon::UpDownInfo,std::allocator<ioPrisonWeapon::UpDownInfo> >::_Grow_to
; Function compile flags: /Ogsp
;	COMDAT ?_Grow_to@?$vector@UUpDownInfo@ioPrisonWeapon@@V?$allocator@UUpDownInfo@ioPrisonWeapon@@@std@@@std@@IBEII@Z
_TEXT	SEGMENT
__Count$ = 8						; size = 4
?_Grow_to@?$vector@UUpDownInfo@ioPrisonWeapon@@V?$allocator@UUpDownInfo@ioPrisonWeapon@@@std@@@std@@IBEII@Z PROC ; std::vector<ioPrisonWeapon::UpDownInfo,std::allocator<ioPrisonWeapon::UpDownInfo> >::_Grow_to, COMDAT
; _this$ = ecx

; 1274 : 		{	// grow by 50% or at least to _Count

  00000	55		 push	 ebp
  00001	8b ec		 mov	 ebp, esp

; 1275 : 		size_type _Capacity = capacity();

  00003	8b 41 08	 mov	 eax, DWORD PTR [ecx+8]
  00006	2b 01		 sub	 eax, DWORD PTR [ecx]
  00008	6a 14		 push	 20			; 00000014H
  0000a	99		 cdq
  0000b	59		 pop	 ecx
  0000c	f7 f9		 idiv	 ecx

; 1276 : 
; 1277 : 		_Capacity = max_size() - _Capacity / 2 < _Capacity
; 1278 : 			? 0 : _Capacity + _Capacity / 2;	// try to grow by 50%

  0000e	ba cc cc cc 0c	 mov	 edx, 214748364		; 0cccccccH
  00013	8b c8		 mov	 ecx, eax
  00015	d1 e9		 shr	 ecx, 1
  00017	2b d1		 sub	 edx, ecx
  00019	3b d0		 cmp	 edx, eax
  0001b	73 04		 jae	 SHORT $LN4@Grow_to@2
  0001d	33 c0		 xor	 eax, eax
  0001f	eb 02		 jmp	 SHORT $LN5@Grow_to@2
$LN4@Grow_to@2:
  00021	03 c1		 add	 eax, ecx
$LN5@Grow_to@2:

; 1279 : 		if (_Capacity < _Count)

  00023	3b 45 08	 cmp	 eax, DWORD PTR __Count$[ebp]

; 1280 : 			_Capacity = _Count;

  00026	0f 42 45 08	 cmovb	 eax, DWORD PTR __Count$[ebp]

; 1281 : 		return (_Capacity);
; 1282 : 		}

  0002a	5d		 pop	 ebp
  0002b	c2 04 00	 ret	 4
?_Grow_to@?$vector@UUpDownInfo@ioPrisonWeapon@@V?$allocator@UUpDownInfo@ioPrisonWeapon@@@std@@@std@@IBEII@Z ENDP ; std::vector<ioPrisonWeapon::UpDownInfo,std::allocator<ioPrisonWeapon::UpDownInfo> >::_Grow_to
_TEXT	ENDS
PUBLIC	??0?$_Vector_iterator@V?$_Vector_val@UUpDownInfo@ioPrisonWeapon@@V?$allocator@UUpDownInfo@ioPrisonWeapon@@@std@@@std@@@std@@QAE@PAUUpDownInfo@ioPrisonWeapon@@PBU_Container_base0@1@@Z ; std::_Vector_iterator<std::_Vector_val<ioPrisonWeapon::UpDownInfo,std::allocator<ioPrisonWeapon::UpDownInfo> > >::_Vector_iterator<std::_Vector_val<ioPrisonWeapon::UpDownInfo,std::allocator<ioPrisonWeapon::UpDownInfo> > >
; Function compile flags: /Ogsp
;	COMDAT ??0?$_Vector_iterator@V?$_Vector_val@UUpDownInfo@ioPrisonWeapon@@V?$allocator@UUpDownInfo@ioPrisonWeapon@@@std@@@std@@@std@@QAE@PAUUpDownInfo@ioPrisonWeapon@@PBU_Container_base0@1@@Z
_TEXT	SEGMENT
__Parg$ = 8						; size = 4
__Pvector$ = 12						; size = 4
??0?$_Vector_iterator@V?$_Vector_val@UUpDownInfo@ioPrisonWeapon@@V?$allocator@UUpDownInfo@ioPrisonWeapon@@@std@@@std@@@std@@QAE@PAUUpDownInfo@ioPrisonWeapon@@PBU_Container_base0@1@@Z PROC ; std::_Vector_iterator<std::_Vector_val<ioPrisonWeapon::UpDownInfo,std::allocator<ioPrisonWeapon::UpDownInfo> > >::_Vector_iterator<std::_Vector_val<ioPrisonWeapon::UpDownInfo,std::allocator<ioPrisonWeapon::UpDownInfo> > >, COMDAT
; _this$ = ecx

; 304  : 		{	// construct with pointer _Parg

  00000	55		 push	 ebp
  00001	8b ec		 mov	 ebp, esp
  00003	8b c1		 mov	 eax, ecx
  00005	8b 4d 08	 mov	 ecx, DWORD PTR __Parg$[ebp]
  00008	89 08		 mov	 DWORD PTR [eax], ecx

; 305  : 		}

  0000a	5d		 pop	 ebp
  0000b	c2 08 00	 ret	 8
??0?$_Vector_iterator@V?$_Vector_val@UUpDownInfo@ioPrisonWeapon@@V?$allocator@UUpDownInfo@ioPrisonWeapon@@@std@@@std@@@std@@QAE@PAUUpDownInfo@ioPrisonWeapon@@PBU_Container_base0@1@@Z ENDP ; std::_Vector_iterator<std::_Vector_val<ioPrisonWeapon::UpDownInfo,std::allocator<ioPrisonWeapon::UpDownInfo> > >::_Vector_iterator<std::_Vector_val<ioPrisonWeapon::UpDownInfo,std::allocator<ioPrisonWeapon::UpDownInfo> > >
_TEXT	ENDS
PUBLIC	?allocate@?$allocator@UUpDownInfo@ioPrisonWeapon@@@std@@QAEPAUUpDownInfo@ioPrisonWeapon@@I@Z ; std::allocator<ioPrisonWeapon::UpDownInfo>::allocate
; Function compile flags: /Ogsp
; File c:\program files (x86)\microsoft visual studio 10.0\vc\include\xmemory
;	COMDAT ?allocate@?$allocator@UUpDownInfo@ioPrisonWeapon@@@std@@QAEPAUUpDownInfo@ioPrisonWeapon@@I@Z
_TEXT	SEGMENT
__Count$ = 8						; size = 4
?allocate@?$allocator@UUpDownInfo@ioPrisonWeapon@@@std@@QAEPAUUpDownInfo@ioPrisonWeapon@@I@Z PROC ; std::allocator<ioPrisonWeapon::UpDownInfo>::allocate, COMDAT
; _this$ = ecx

; 186  : 		{	// allocate array of _Count elements

  00000	55		 push	 ebp
  00001	8b ec		 mov	 ebp, esp

; 187  : 		return (_Allocate(_Count, (pointer)0));

  00003	6a 00		 push	 0
  00005	ff 75 08	 push	 DWORD PTR __Count$[ebp]
  00008	e8 00 00 00 00	 call	 ??$_Allocate@UUpDownInfo@ioPrisonWeapon@@@std@@YAPAUUpDownInfo@ioPrisonWeapon@@IPAU12@@Z ; std::_Allocate<ioPrisonWeapon::UpDownInfo>
  0000d	59		 pop	 ecx
  0000e	59		 pop	 ecx

; 188  : 		}

  0000f	5d		 pop	 ebp
  00010	c2 04 00	 ret	 4
?allocate@?$allocator@UUpDownInfo@ioPrisonWeapon@@@std@@QAEPAUUpDownInfo@ioPrisonWeapon@@I@Z ENDP ; std::allocator<ioPrisonWeapon::UpDownInfo>::allocate
_TEXT	ENDS
PUBLIC	??8?$_Vector_const_iterator@V?$_Vector_val@UUpDownInfo@ioPrisonWeapon@@V?$allocator@UUpDownInfo@ioPrisonWeapon@@@std@@@std@@@std@@QBE_NABV01@@Z ; std::_Vector_const_iterator<std::_Vector_val<ioPrisonWeapon::UpDownInfo,std::allocator<ioPrisonWeapon::UpDownInfo> > >::operator==
; Function compile flags: /Ogsp
; File c:\program files (x86)\microsoft visual studio 10.0\vc\include\vector
;	COMDAT ??8?$_Vector_const_iterator@V?$_Vector_val@UUpDownInfo@ioPrisonWeapon@@V?$allocator@UUpDownInfo@ioPrisonWeapon@@@std@@@std@@@std@@QBE_NABV01@@Z
_TEXT	SEGMENT
__Right$ = 8						; size = 4
??8?$_Vector_const_iterator@V?$_Vector_val@UUpDownInfo@ioPrisonWeapon@@V?$allocator@UUpDownInfo@ioPrisonWeapon@@@std@@@std@@@std@@QBE_NABV01@@Z PROC ; std::_Vector_const_iterator<std::_Vector_val<ioPrisonWeapon::UpDownInfo,std::allocator<ioPrisonWeapon::UpDownInfo> > >::operator==, COMDAT
; _this$ = ecx

; 201  : 		{	// test for iterator equality

  00000	55		 push	 ebp
  00001	8b ec		 mov	 ebp, esp

; 202  : 		_Compat(_Right);
; 203  : 		return (this->_Ptr == _Right._Ptr);

  00003	8b 01		 mov	 eax, DWORD PTR [ecx]
  00005	8b 4d 08	 mov	 ecx, DWORD PTR __Right$[ebp]
  00008	2b 01		 sub	 eax, DWORD PTR [ecx]
  0000a	f7 d8		 neg	 eax
  0000c	1b c0		 sbb	 eax, eax
  0000e	40		 inc	 eax

; 204  : 		}

  0000f	5d		 pop	 ebp
  00010	c2 04 00	 ret	 4
??8?$_Vector_const_iterator@V?$_Vector_val@UUpDownInfo@ioPrisonWeapon@@V?$allocator@UUpDownInfo@ioPrisonWeapon@@@std@@@std@@@std@@QBE_NABV01@@Z ENDP ; std::_Vector_const_iterator<std::_Vector_val<ioPrisonWeapon::UpDownInfo,std::allocator<ioPrisonWeapon::UpDownInfo> > >::operator==
_TEXT	ENDS
PUBLIC	_this$GSCopy$
PUBLIC	__$ArrayPad$
PUBLIC	??$LoadString_e@$0BB@@ioINILoader@@QAEXAAY0BB@$$CBDAAY00$$CBDPADH@Z ; ioINILoader::LoadString_e<17>
EXTRN	__imp_?LoadStringA@ioINILoader@@QAEXPBD0PADH@Z:PROC
; Function compile flags: /Ogsp
; File d:\lost saga for developer\youtube\tutorial\source\src\io3dengine\ioiniloader.h
;	COMDAT ??$LoadString_e@$0BB@@ioINILoader@@QAEXAAY0BB@$$CBDAAY00$$CBDPADH@Z
_TEXT	SEGMENT
_this$GSCopy$ = -32					; size = 4
__k$ = -28						; size = 17
__$ArrayPad$ = -4					; size = 4
_k$ = 8							; size = 4
_d$ = 12						; size = 4
_b$ = 16						; size = 4
_i$ = 20						; size = 4
??$LoadString_e@$0BB@@ioINILoader@@QAEXAAY0BB@$$CBDAAY00$$CBDPADH@Z PROC ; ioINILoader::LoadString_e<17>, COMDAT
; _this$ = ecx

; 161  : 	{

  00000	55		 push	 ebp
  00001	8b ec		 mov	 ebp, esp
  00003	83 ec 20	 sub	 esp, 32			; 00000020H
  00006	a1 00 00 00 00	 mov	 eax, DWORD PTR ___security_cookie
  0000b	33 c5		 xor	 eax, ebp
  0000d	89 45 fc	 mov	 DWORD PTR __$ArrayPad$[ebp], eax
  00010	8b 45 08	 mov	 eax, DWORD PTR _k$[ebp]

; 162  : 		_ENCSTR(k, _k);

  00013	8a 10		 mov	 dl, BYTE PTR [eax]
  00015	56		 push	 esi
  00016	8b 75 0c	 mov	 esi, DWORD PTR _d$[ebp]
  00019	57		 push	 edi
  0001a	8b 7d 10	 mov	 edi, DWORD PTR _b$[ebp]
  0001d	89 4d e0	 mov	 DWORD PTR _this$GSCopy$[ebp], ecx
  00020	84 d2		 test	 dl, dl
  00022	0f 84 a7 01 00
	00		 je	 $LN96@LoadString
  00028	80 f2 ed	 xor	 dl, -19			; ffffffedH
  0002b	88 55 e4	 mov	 BYTE PTR __k$[ebp], dl
  0002e	8a 50 01	 mov	 dl, BYTE PTR [eax+1]
  00031	84 d2		 test	 dl, dl
  00033	0f 84 90 01 00
	00		 je	 $LN95@LoadString
  00039	b1 ec		 mov	 cl, -20			; ffffffecH
  0003b	32 d1		 xor	 dl, cl
  0003d	88 55 e5	 mov	 BYTE PTR __k$[ebp+1], dl
  00040	8a 50 02	 mov	 dl, BYTE PTR [eax+2]
  00043	84 d2		 test	 dl, dl
  00045	0f 84 78 01 00
	00		 je	 $LN94@LoadString
  0004b	80 f2 eb	 xor	 dl, -21			; ffffffebH
  0004e	88 55 e6	 mov	 BYTE PTR __k$[ebp+2], dl
  00051	8a 50 03	 mov	 dl, BYTE PTR [eax+3]
  00054	84 d2		 test	 dl, dl
  00056	0f 84 61 01 00
	00		 je	 $LN93@LoadString
  0005c	80 f2 ea	 xor	 dl, -22			; ffffffeaH
  0005f	88 55 e7	 mov	 BYTE PTR __k$[ebp+3], dl
  00062	8a 50 04	 mov	 dl, BYTE PTR [eax+4]
  00065	84 d2		 test	 dl, dl
  00067	0f 84 4a 01 00
	00		 je	 $LN92@LoadString
  0006d	80 f2 ed	 xor	 dl, -19			; ffffffedH
  00070	88 55 e8	 mov	 BYTE PTR __k$[ebp+4], dl
  00073	8a 50 05	 mov	 dl, BYTE PTR [eax+5]
  00076	84 d2		 test	 dl, dl
  00078	0f 84 34 01 00
	00		 je	 $LN91@LoadString
  0007e	32 d1		 xor	 dl, cl
  00080	88 55 e9	 mov	 BYTE PTR __k$[ebp+5], dl
  00083	8a 50 06	 mov	 dl, BYTE PTR [eax+6]
  00086	84 d2		 test	 dl, dl
  00088	0f 84 1e 01 00
	00		 je	 $LN90@LoadString
  0008e	80 f2 eb	 xor	 dl, -21			; ffffffebH
  00091	88 55 ea	 mov	 BYTE PTR __k$[ebp+6], dl
  00094	8a 50 07	 mov	 dl, BYTE PTR [eax+7]
  00097	84 d2		 test	 dl, dl
  00099	0f 84 07 01 00
	00		 je	 $LN89@LoadString
  0009f	80 f2 ea	 xor	 dl, -22			; ffffffeaH
  000a2	88 55 eb	 mov	 BYTE PTR __k$[ebp+7], dl
  000a5	8a 50 08	 mov	 dl, BYTE PTR [eax+8]
  000a8	84 d2		 test	 dl, dl
  000aa	0f 84 f0 00 00
	00		 je	 $LN88@LoadString
  000b0	80 f2 ed	 xor	 dl, -19			; ffffffedH
  000b3	88 55 ec	 mov	 BYTE PTR __k$[ebp+8], dl
  000b6	8a 50 09	 mov	 dl, BYTE PTR [eax+9]
  000b9	84 d2		 test	 dl, dl
  000bb	0f 84 da 00 00
	00		 je	 $LN87@LoadString
  000c1	32 d1		 xor	 dl, cl
  000c3	88 55 ed	 mov	 BYTE PTR __k$[ebp+9], dl
  000c6	8a 50 0a	 mov	 dl, BYTE PTR [eax+10]
  000c9	84 d2		 test	 dl, dl
  000cb	0f 84 c4 00 00
	00		 je	 $LN86@LoadString
  000d1	80 f2 eb	 xor	 dl, -21			; ffffffebH
  000d4	88 55 ee	 mov	 BYTE PTR __k$[ebp+10], dl
  000d7	8a 50 0b	 mov	 dl, BYTE PTR [eax+11]
  000da	84 d2		 test	 dl, dl
  000dc	0f 84 ad 00 00
	00		 je	 $LN85@LoadString
  000e2	80 f2 ea	 xor	 dl, -22			; ffffffeaH
  000e5	88 55 ef	 mov	 BYTE PTR __k$[ebp+11], dl
  000e8	8a 50 0c	 mov	 dl, BYTE PTR [eax+12]
  000eb	84 d2		 test	 dl, dl
  000ed	0f 84 96 00 00
	00		 je	 $LN84@LoadString
  000f3	80 f2 ed	 xor	 dl, -19			; ffffffedH
  000f6	88 55 f0	 mov	 BYTE PTR __k$[ebp+12], dl
  000f9	8a 50 0d	 mov	 dl, BYTE PTR [eax+13]
  000fc	84 d2		 test	 dl, dl
  000fe	0f 84 80 00 00
	00		 je	 $LN83@LoadString
  00104	32 d1		 xor	 dl, cl
  00106	88 55 f1	 mov	 BYTE PTR __k$[ebp+13], dl
  00109	8a 50 0e	 mov	 dl, BYTE PTR [eax+14]
  0010c	84 d2		 test	 dl, dl
  0010e	74 6e		 je	 SHORT $LN82@LoadString
  00110	80 f2 eb	 xor	 dl, -21			; ffffffebH
  00113	88 55 f2	 mov	 BYTE PTR __k$[ebp+14], dl
  00116	8a 50 0f	 mov	 dl, BYTE PTR [eax+15]
  00119	84 d2		 test	 dl, dl
  0011b	74 5b		 je	 SHORT $LN81@LoadString
  0011d	80 f2 ea	 xor	 dl, -22			; ffffffeaH
  00120	80 78 10 00	 cmp	 BYTE PTR [eax+16], 0
  00124	88 55 f3	 mov	 BYTE PTR __k$[ebp+15], dl
  00127	0f 84 a6 00 00
	00		 je	 $LN111@LoadString
  0012d	8a 50 11	 mov	 dl, BYTE PTR [eax+17]
  00130	84 d2		 test	 dl, dl
  00132	74 3f		 je	 SHORT $LN79@LoadString
  00134	32 d1		 xor	 dl, cl
  00136	88 55 f5	 mov	 BYTE PTR __k$[ebp+17], dl
  00139	8a 50 12	 mov	 dl, BYTE PTR [eax+18]
  0013c	84 d2		 test	 dl, dl
  0013e	74 2d		 je	 SHORT $LN78@LoadString
  00140	80 f2 eb	 xor	 dl, -21			; ffffffebH
  00143	88 55 f6	 mov	 BYTE PTR __k$[ebp+18], dl
  00146	8a 50 13	 mov	 dl, BYTE PTR [eax+19]
  00149	84 d2		 test	 dl, dl
  0014b	74 1a		 je	 SHORT $LN77@LoadString
  0014d	8a 40 14	 mov	 al, BYTE PTR [eax+20]
  00150	80 f2 ea	 xor	 dl, -22			; ffffffeaH
  00153	88 55 f7	 mov	 BYTE PTR __k$[ebp+19], dl
  00156	84 c0		 test	 al, al
  00158	74 07		 je	 SHORT $LN76@LoadString
  0015a	34 ed		 xor	 al, -19			; ffffffedH
  0015c	88 45 f8	 mov	 BYTE PTR __k$[ebp+20], al
  0015f	eb 72		 jmp	 SHORT $LN111@LoadString
$LN76@LoadString:
  00161	c6 45 f8 ed	 mov	 BYTE PTR __k$[ebp+20], -19 ; ffffffedH
  00165	eb 6c		 jmp	 SHORT $LN111@LoadString
$LN77@LoadString:
  00167	c6 45 f7 ea	 mov	 BYTE PTR __k$[ebp+19], -22 ; ffffffeaH
  0016b	eb 66		 jmp	 SHORT $LN111@LoadString
$LN78@LoadString:
  0016d	c6 45 f6 eb	 mov	 BYTE PTR __k$[ebp+18], -21 ; ffffffebH
  00171	eb 60		 jmp	 SHORT $LN111@LoadString
$LN79@LoadString:
  00173	88 4d f5	 mov	 BYTE PTR __k$[ebp+17], cl
  00176	eb 5b		 jmp	 SHORT $LN111@LoadString
$LN81@LoadString:
  00178	c6 45 f3 ea	 mov	 BYTE PTR __k$[ebp+15], -22 ; ffffffeaH
  0017c	eb 55		 jmp	 SHORT $LN111@LoadString
$LN82@LoadString:
  0017e	c6 45 f2 eb	 mov	 BYTE PTR __k$[ebp+14], -21 ; ffffffebH
  00182	eb 4f		 jmp	 SHORT $LN111@LoadString
$LN83@LoadString:
  00184	88 4d f1	 mov	 BYTE PTR __k$[ebp+13], cl
  00187	eb 4a		 jmp	 SHORT $LN111@LoadString
$LN84@LoadString:
  00189	c6 45 f0 ed	 mov	 BYTE PTR __k$[ebp+12], -19 ; ffffffedH
  0018d	eb 44		 jmp	 SHORT $LN111@LoadString
$LN85@LoadString:
  0018f	c6 45 ef ea	 mov	 BYTE PTR __k$[ebp+11], -22 ; ffffffeaH
  00193	eb 3e		 jmp	 SHORT $LN111@LoadString
$LN86@LoadString:
  00195	c6 45 ee eb	 mov	 BYTE PTR __k$[ebp+10], -21 ; ffffffebH
  00199	eb 38		 jmp	 SHORT $LN111@LoadString
$LN87@LoadString:
  0019b	88 4d ed	 mov	 BYTE PTR __k$[ebp+9], cl
  0019e	eb 33		 jmp	 SHORT $LN111@LoadString
$LN88@LoadString:
  001a0	c6 45 ec ed	 mov	 BYTE PTR __k$[ebp+8], -19 ; ffffffedH
  001a4	eb 2d		 jmp	 SHORT $LN111@LoadString
$LN89@LoadString:
  001a6	c6 45 eb ea	 mov	 BYTE PTR __k$[ebp+7], -22 ; ffffffeaH
  001aa	eb 27		 jmp	 SHORT $LN111@LoadString
$LN90@LoadString:
  001ac	c6 45 ea eb	 mov	 BYTE PTR __k$[ebp+6], -21 ; ffffffebH
  001b0	eb 21		 jmp	 SHORT $LN111@LoadString
$LN91@LoadString:
  001b2	88 4d e9	 mov	 BYTE PTR __k$[ebp+5], cl
  001b5	eb 1c		 jmp	 SHORT $LN111@LoadString
$LN92@LoadString:
  001b7	c6 45 e8 ed	 mov	 BYTE PTR __k$[ebp+4], -19 ; ffffffedH
  001bb	eb 16		 jmp	 SHORT $LN111@LoadString
$LN93@LoadString:
  001bd	c6 45 e7 ea	 mov	 BYTE PTR __k$[ebp+3], -22 ; ffffffeaH
  001c1	eb 10		 jmp	 SHORT $LN111@LoadString
$LN94@LoadString:
  001c3	c6 45 e6 eb	 mov	 BYTE PTR __k$[ebp+2], -21 ; ffffffebH
  001c7	eb 0a		 jmp	 SHORT $LN111@LoadString
$LN95@LoadString:
  001c9	c6 45 e5 ec	 mov	 BYTE PTR __k$[ebp+1], -20 ; ffffffecH
  001cd	eb 04		 jmp	 SHORT $LN111@LoadString
$LN96@LoadString:
  001cf	c6 45 e4 ed	 mov	 BYTE PTR __k$[ebp], -19	; ffffffedH
$LN111@LoadString:
  001d3	6a 04		 push	 4
  001d5	8d 45 e4	 lea	 eax, DWORD PTR __k$[ebp]
  001d8	c6 45 f4 00	 mov	 BYTE PTR __k$[ebp+16], 0
  001dc	5a		 pop	 edx
$LL104@LoadString:
  001dd	81 30 ed ec eb
	ea		 xor	 DWORD PTR [eax], -353637139 ; eaebecedH
  001e3	83 c0 04	 add	 eax, 4
  001e6	4a		 dec	 edx
  001e7	75 f4		 jne	 SHORT $LL104@LoadString

; 163  : 		LoadString(_k, d, b, i);

  001e9	ff 75 14	 push	 DWORD PTR _i$[ebp]
  001ec	8b 4d e0	 mov	 ecx, DWORD PTR _this$GSCopy$[ebp]
  001ef	57		 push	 edi
  001f0	56		 push	 esi
  001f1	8d 45 e4	 lea	 eax, DWORD PTR __k$[ebp]
  001f4	50		 push	 eax
  001f5	ff 15 00 00 00
	00		 call	 DWORD PTR __imp_?LoadStringA@ioINILoader@@QAEXPBD0PADH@Z

; 164  : 	}

  001fb	8b 4d fc	 mov	 ecx, DWORD PTR __$ArrayPad$[ebp]
  001fe	5f		 pop	 edi
  001ff	33 cd		 xor	 ecx, ebp
  00201	5e		 pop	 esi
  00202	e8 00 00 00 00	 call	 @__security_check_cookie@4
  00207	c9		 leave
  00208	c2 10 00	 ret	 16			; 00000010H
??$LoadString_e@$0BB@@ioINILoader@@QAEXAAY0BB@$$CBDAAY00$$CBDPADH@Z ENDP ; ioINILoader::LoadString_e<17>
_TEXT	ENDS
PUBLIC	_this$GSCopy$
PUBLIC	__$ArrayPad$
PUBLIC	??$LoadString_e@$0BC@@ioINILoader@@QAEXAAY0BC@$$CBDAAY00$$CBDPADH@Z ; ioINILoader::LoadString_e<18>
; Function compile flags: /Ogsp
;	COMDAT ??$LoadString_e@$0BC@@ioINILoader@@QAEXAAY0BC@$$CBDAAY00$$CBDPADH@Z
_TEXT	SEGMENT
_this$GSCopy$ = -32					; size = 4
__k$ = -28						; size = 18
__$ArrayPad$ = -4					; size = 4
_k$ = 8							; size = 4
_d$ = 12						; size = 4
_b$ = 16						; size = 4
_i$ = 20						; size = 4
??$LoadString_e@$0BC@@ioINILoader@@QAEXAAY0BC@$$CBDAAY00$$CBDPADH@Z PROC ; ioINILoader::LoadString_e<18>, COMDAT
; _this$ = ecx

; 161  : 	{

  00000	55		 push	 ebp
  00001	8b ec		 mov	 ebp, esp
  00003	83 ec 20	 sub	 esp, 32			; 00000020H
  00006	a1 00 00 00 00	 mov	 eax, DWORD PTR ___security_cookie
  0000b	33 c5		 xor	 eax, ebp
  0000d	89 45 fc	 mov	 DWORD PTR __$ArrayPad$[ebp], eax
  00010	8b 45 08	 mov	 eax, DWORD PTR _k$[ebp]

; 162  : 		_ENCSTR(k, _k);

  00013	8a 10		 mov	 dl, BYTE PTR [eax]
  00015	56		 push	 esi
  00016	8b 75 0c	 mov	 esi, DWORD PTR _d$[ebp]
  00019	57		 push	 edi
  0001a	8b 7d 10	 mov	 edi, DWORD PTR _b$[ebp]
  0001d	89 4d e0	 mov	 DWORD PTR _this$GSCopy$[ebp], ecx
  00020	84 d2		 test	 dl, dl
  00022	0f 84 be 01 00
	00		 je	 $LN96@LoadString@2
  00028	80 f2 ed	 xor	 dl, -19			; ffffffedH
  0002b	88 55 e4	 mov	 BYTE PTR __k$[ebp], dl
  0002e	8a 50 01	 mov	 dl, BYTE PTR [eax+1]
  00031	84 d2		 test	 dl, dl
  00033	0f 84 a7 01 00
	00		 je	 $LN95@LoadString@2
  00039	80 f2 ec	 xor	 dl, -20			; ffffffecH
  0003c	88 55 e5	 mov	 BYTE PTR __k$[ebp+1], dl
  0003f	8a 50 02	 mov	 dl, BYTE PTR [eax+2]
  00042	84 d2		 test	 dl, dl
  00044	0f 84 90 01 00
	00		 je	 $LN94@LoadString@2
  0004a	b1 eb		 mov	 cl, -21			; ffffffebH
  0004c	32 d1		 xor	 dl, cl
  0004e	88 55 e6	 mov	 BYTE PTR __k$[ebp+2], dl
  00051	8a 50 03	 mov	 dl, BYTE PTR [eax+3]
  00054	84 d2		 test	 dl, dl
  00056	0f 84 78 01 00
	00		 je	 $LN93@LoadString@2
  0005c	80 f2 ea	 xor	 dl, -22			; ffffffeaH
  0005f	88 55 e7	 mov	 BYTE PTR __k$[ebp+3], dl
  00062	8a 50 04	 mov	 dl, BYTE PTR [eax+4]
  00065	84 d2		 test	 dl, dl
  00067	0f 84 61 01 00
	00		 je	 $LN92@LoadString@2
  0006d	80 f2 ed	 xor	 dl, -19			; ffffffedH
  00070	88 55 e8	 mov	 BYTE PTR __k$[ebp+4], dl
  00073	8a 50 05	 mov	 dl, BYTE PTR [eax+5]
  00076	84 d2		 test	 dl, dl
  00078	0f 84 4a 01 00
	00		 je	 $LN91@LoadString@2
  0007e	80 f2 ec	 xor	 dl, -20			; ffffffecH
  00081	88 55 e9	 mov	 BYTE PTR __k$[ebp+5], dl
  00084	8a 50 06	 mov	 dl, BYTE PTR [eax+6]
  00087	84 d2		 test	 dl, dl
  00089	0f 84 34 01 00
	00		 je	 $LN90@LoadString@2
  0008f	32 d1		 xor	 dl, cl
  00091	88 55 ea	 mov	 BYTE PTR __k$[ebp+6], dl
  00094	8a 50 07	 mov	 dl, BYTE PTR [eax+7]
  00097	84 d2		 test	 dl, dl
  00099	0f 84 1e 01 00
	00		 je	 $LN89@LoadString@2
  0009f	80 f2 ea	 xor	 dl, -22			; ffffffeaH
  000a2	88 55 eb	 mov	 BYTE PTR __k$[ebp+7], dl
  000a5	8a 50 08	 mov	 dl, BYTE PTR [eax+8]
  000a8	84 d2		 test	 dl, dl
  000aa	0f 84 07 01 00
	00		 je	 $LN88@LoadString@2
  000b0	80 f2 ed	 xor	 dl, -19			; ffffffedH
  000b3	88 55 ec	 mov	 BYTE PTR __k$[ebp+8], dl
  000b6	8a 50 09	 mov	 dl, BYTE PTR [eax+9]
  000b9	84 d2		 test	 dl, dl
  000bb	0f 84 f0 00 00
	00		 je	 $LN87@LoadString@2
  000c1	80 f2 ec	 xor	 dl, -20			; ffffffecH
  000c4	88 55 ed	 mov	 BYTE PTR __k$[ebp+9], dl
  000c7	8a 50 0a	 mov	 dl, BYTE PTR [eax+10]
  000ca	84 d2		 test	 dl, dl
  000cc	0f 84 da 00 00
	00		 je	 $LN86@LoadString@2
  000d2	32 d1		 xor	 dl, cl
  000d4	88 55 ee	 mov	 BYTE PTR __k$[ebp+10], dl
  000d7	8a 50 0b	 mov	 dl, BYTE PTR [eax+11]
  000da	84 d2		 test	 dl, dl
  000dc	0f 84 c4 00 00
	00		 je	 $LN85@LoadString@2
  000e2	80 f2 ea	 xor	 dl, -22			; ffffffeaH
  000e5	88 55 ef	 mov	 BYTE PTR __k$[ebp+11], dl
  000e8	8a 50 0c	 mov	 dl, BYTE PTR [eax+12]
  000eb	84 d2		 test	 dl, dl
  000ed	0f 84 ad 00 00
	00		 je	 $LN84@LoadString@2
  000f3	80 f2 ed	 xor	 dl, -19			; ffffffedH
  000f6	88 55 f0	 mov	 BYTE PTR __k$[ebp+12], dl
  000f9	8a 50 0d	 mov	 dl, BYTE PTR [eax+13]
  000fc	84 d2		 test	 dl, dl
  000fe	0f 84 96 00 00
	00		 je	 $LN83@LoadString@2
  00104	80 f2 ec	 xor	 dl, -20			; ffffffecH
  00107	88 55 f1	 mov	 BYTE PTR __k$[ebp+13], dl
  0010a	8a 50 0e	 mov	 dl, BYTE PTR [eax+14]
  0010d	84 d2		 test	 dl, dl
  0010f	0f 84 80 00 00
	00		 je	 $LN82@LoadString@2
  00115	32 d1		 xor	 dl, cl
  00117	88 55 f2	 mov	 BYTE PTR __k$[ebp+14], dl
  0011a	8a 50 0f	 mov	 dl, BYTE PTR [eax+15]
  0011d	84 d2		 test	 dl, dl
  0011f	74 6e		 je	 SHORT $LN81@LoadString@2
  00121	80 f2 ea	 xor	 dl, -22			; ffffffeaH
  00124	88 55 f3	 mov	 BYTE PTR __k$[ebp+15], dl
  00127	8a 50 10	 mov	 dl, BYTE PTR [eax+16]
  0012a	84 d2		 test	 dl, dl
  0012c	74 5b		 je	 SHORT $LN80@LoadString@2
  0012e	80 f2 ed	 xor	 dl, -19			; ffffffedH
  00131	80 78 11 00	 cmp	 BYTE PTR [eax+17], 0
  00135	88 55 f4	 mov	 BYTE PTR __k$[ebp+16], dl
  00138	0f 84 ac 00 00
	00		 je	 $LN111@LoadString@2
  0013e	8a 50 12	 mov	 dl, BYTE PTR [eax+18]
  00141	84 d2		 test	 dl, dl
  00143	74 3f		 je	 SHORT $LN78@LoadString@2
  00145	32 d1		 xor	 dl, cl
  00147	88 55 f6	 mov	 BYTE PTR __k$[ebp+18], dl
  0014a	8a 50 13	 mov	 dl, BYTE PTR [eax+19]
  0014d	84 d2		 test	 dl, dl
  0014f	74 2d		 je	 SHORT $LN77@LoadString@2
  00151	80 f2 ea	 xor	 dl, -22			; ffffffeaH
  00154	88 55 f7	 mov	 BYTE PTR __k$[ebp+19], dl
  00157	8a 50 14	 mov	 dl, BYTE PTR [eax+20]
  0015a	84 d2		 test	 dl, dl
  0015c	74 1a		 je	 SHORT $LN76@LoadString@2
  0015e	8a 40 15	 mov	 al, BYTE PTR [eax+21]
  00161	80 f2 ed	 xor	 dl, -19			; ffffffedH
  00164	88 55 f8	 mov	 BYTE PTR __k$[ebp+20], dl
  00167	84 c0		 test	 al, al
  00169	74 07		 je	 SHORT $LN75@LoadString@2
  0016b	34 ec		 xor	 al, -20			; ffffffecH
  0016d	88 45 f9	 mov	 BYTE PTR __k$[ebp+21], al
  00170	eb 78		 jmp	 SHORT $LN111@LoadString@2
$LN75@LoadString@2:
  00172	c6 45 f9 ec	 mov	 BYTE PTR __k$[ebp+21], -20 ; ffffffecH
  00176	eb 72		 jmp	 SHORT $LN111@LoadString@2
$LN76@LoadString@2:
  00178	c6 45 f8 ed	 mov	 BYTE PTR __k$[ebp+20], -19 ; ffffffedH
  0017c	eb 6c		 jmp	 SHORT $LN111@LoadString@2
$LN77@LoadString@2:
  0017e	c6 45 f7 ea	 mov	 BYTE PTR __k$[ebp+19], -22 ; ffffffeaH
  00182	eb 66		 jmp	 SHORT $LN111@LoadString@2
$LN78@LoadString@2:
  00184	88 4d f6	 mov	 BYTE PTR __k$[ebp+18], cl
  00187	eb 61		 jmp	 SHORT $LN111@LoadString@2
$LN80@LoadString@2:
  00189	c6 45 f4 ed	 mov	 BYTE PTR __k$[ebp+16], -19 ; ffffffedH
  0018d	eb 5b		 jmp	 SHORT $LN111@LoadString@2
$LN81@LoadString@2:
  0018f	c6 45 f3 ea	 mov	 BYTE PTR __k$[ebp+15], -22 ; ffffffeaH
  00193	eb 55		 jmp	 SHORT $LN111@LoadString@2
$LN82@LoadString@2:
  00195	88 4d f2	 mov	 BYTE PTR __k$[ebp+14], cl
  00198	eb 50		 jmp	 SHORT $LN111@LoadString@2
$LN83@LoadString@2:
  0019a	c6 45 f1 ec	 mov	 BYTE PTR __k$[ebp+13], -20 ; ffffffecH
  0019e	eb 4a		 jmp	 SHORT $LN111@LoadString@2
$LN84@LoadString@2:
  001a0	c6 45 f0 ed	 mov	 BYTE PTR __k$[ebp+12], -19 ; ffffffedH
  001a4	eb 44		 jmp	 SHORT $LN111@LoadString@2
$LN85@LoadString@2:
  001a6	c6 45 ef ea	 mov	 BYTE PTR __k$[ebp+11], -22 ; ffffffeaH
  001aa	eb 3e		 jmp	 SHORT $LN111@LoadString@2
$LN86@LoadString@2:
  001ac	88 4d ee	 mov	 BYTE PTR __k$[ebp+10], cl
  001af	eb 39		 jmp	 SHORT $LN111@LoadString@2
$LN87@LoadString@2:
  001b1	c6 45 ed ec	 mov	 BYTE PTR __k$[ebp+9], -20 ; ffffffecH
  001b5	eb 33		 jmp	 SHORT $LN111@LoadString@2
$LN88@LoadString@2:
  001b7	c6 45 ec ed	 mov	 BYTE PTR __k$[ebp+8], -19 ; ffffffedH
  001bb	eb 2d		 jmp	 SHORT $LN111@LoadString@2
$LN89@LoadString@2:
  001bd	c6 45 eb ea	 mov	 BYTE PTR __k$[ebp+7], -22 ; ffffffeaH
  001c1	eb 27		 jmp	 SHORT $LN111@LoadString@2
$LN90@LoadString@2:
  001c3	88 4d ea	 mov	 BYTE PTR __k$[ebp+6], cl
  001c6	eb 22		 jmp	 SHORT $LN111@LoadString@2
$LN91@LoadString@2:
  001c8	c6 45 e9 ec	 mov	 BYTE PTR __k$[ebp+5], -20 ; ffffffecH
  001cc	eb 1c		 jmp	 SHORT $LN111@LoadString@2
$LN92@LoadString@2:
  001ce	c6 45 e8 ed	 mov	 BYTE PTR __k$[ebp+4], -19 ; ffffffedH
  001d2	eb 16		 jmp	 SHORT $LN111@LoadString@2
$LN93@LoadString@2:
  001d4	c6 45 e7 ea	 mov	 BYTE PTR __k$[ebp+3], -22 ; ffffffeaH
  001d8	eb 10		 jmp	 SHORT $LN111@LoadString@2
$LN94@LoadString@2:
  001da	c6 45 e6 eb	 mov	 BYTE PTR __k$[ebp+2], -21 ; ffffffebH
  001de	eb 0a		 jmp	 SHORT $LN111@LoadString@2
$LN95@LoadString@2:
  001e0	c6 45 e5 ec	 mov	 BYTE PTR __k$[ebp+1], -20 ; ffffffecH
  001e4	eb 04		 jmp	 SHORT $LN111@LoadString@2
$LN96@LoadString@2:
  001e6	c6 45 e4 ed	 mov	 BYTE PTR __k$[ebp], -19	; ffffffedH
$LN111@LoadString@2:
  001ea	6a 04		 push	 4
  001ec	8d 45 e4	 lea	 eax, DWORD PTR __k$[ebp]
  001ef	c6 45 f5 00	 mov	 BYTE PTR __k$[ebp+17], 0
  001f3	5a		 pop	 edx
$LL104@LoadString@2:
  001f4	81 30 ed ec eb
	ea		 xor	 DWORD PTR [eax], -353637139 ; eaebecedH
  001fa	83 c0 04	 add	 eax, 4
  001fd	4a		 dec	 edx
  001fe	75 f4		 jne	 SHORT $LL104@LoadString@2

; 163  : 		LoadString(_k, d, b, i);

  00200	ff 75 14	 push	 DWORD PTR _i$[ebp]
  00203	8b 4d e0	 mov	 ecx, DWORD PTR _this$GSCopy$[ebp]
  00206	80 75 f4 ed	 xor	 BYTE PTR __k$[ebp+16], -19 ; ffffffedH
  0020a	57		 push	 edi
  0020b	56		 push	 esi
  0020c	8d 45 e4	 lea	 eax, DWORD PTR __k$[ebp]
  0020f	50		 push	 eax
  00210	ff 15 00 00 00
	00		 call	 DWORD PTR __imp_?LoadStringA@ioINILoader@@QAEXPBD0PADH@Z

; 164  : 	}

  00216	8b 4d fc	 mov	 ecx, DWORD PTR __$ArrayPad$[ebp]
  00219	5f		 pop	 edi
  0021a	33 cd		 xor	 ecx, ebp
  0021c	5e		 pop	 esi
  0021d	e8 00 00 00 00	 call	 @__security_check_cookie@4
  00222	c9		 leave
  00223	c2 10 00	 ret	 16			; 00000010H
??$LoadString_e@$0BC@@ioINILoader@@QAEXAAY0BC@$$CBDAAY00$$CBDPADH@Z ENDP ; ioINILoader::LoadString_e<18>
_TEXT	ENDS
PUBLIC	_this$GSCopy$
PUBLIC	__$ArrayPad$
PUBLIC	??$LoadString_e@$0BD@@ioINILoader@@QAEXAAY0BD@$$CBDAAY00$$CBDPADH@Z ; ioINILoader::LoadString_e<19>
; Function compile flags: /Ogsp
;	COMDAT ??$LoadString_e@$0BD@@ioINILoader@@QAEXAAY0BD@$$CBDAAY00$$CBDPADH@Z
_TEXT	SEGMENT
_this$GSCopy$ = -32					; size = 4
__k$ = -28						; size = 19
__$ArrayPad$ = -4					; size = 4
_k$ = 8							; size = 4
_d$ = 12						; size = 4
_b$ = 16						; size = 4
_i$ = 20						; size = 4
??$LoadString_e@$0BD@@ioINILoader@@QAEXAAY0BD@$$CBDAAY00$$CBDPADH@Z PROC ; ioINILoader::LoadString_e<19>, COMDAT
; _this$ = ecx

; 161  : 	{

  00000	55		 push	 ebp
  00001	8b ec		 mov	 ebp, esp
  00003	83 ec 20	 sub	 esp, 32			; 00000020H
  00006	a1 00 00 00 00	 mov	 eax, DWORD PTR ___security_cookie
  0000b	33 c5		 xor	 eax, ebp
  0000d	89 45 fc	 mov	 DWORD PTR __$ArrayPad$[ebp], eax
  00010	8b 45 08	 mov	 eax, DWORD PTR _k$[ebp]

; 162  : 		_ENCSTR(k, _k);

  00013	8a 10		 mov	 dl, BYTE PTR [eax]
  00015	56		 push	 esi
  00016	8b 75 0c	 mov	 esi, DWORD PTR _d$[ebp]
  00019	57		 push	 edi
  0001a	8b 7d 10	 mov	 edi, DWORD PTR _b$[ebp]
  0001d	89 4d e0	 mov	 DWORD PTR _this$GSCopy$[ebp], ecx
  00020	84 d2		 test	 dl, dl
  00022	0f 84 cf 01 00
	00		 je	 $LN96@LoadString@3
  00028	80 f2 ed	 xor	 dl, -19			; ffffffedH
  0002b	88 55 e4	 mov	 BYTE PTR __k$[ebp], dl
  0002e	8a 50 01	 mov	 dl, BYTE PTR [eax+1]
  00031	84 d2		 test	 dl, dl
  00033	0f 84 b8 01 00
	00		 je	 $LN95@LoadString@3
  00039	b1 ec		 mov	 cl, -20			; ffffffecH
  0003b	32 d1		 xor	 dl, cl
  0003d	88 55 e5	 mov	 BYTE PTR __k$[ebp+1], dl
  00040	8a 50 02	 mov	 dl, BYTE PTR [eax+2]
  00043	84 d2		 test	 dl, dl
  00045	0f 84 a0 01 00
	00		 je	 $LN94@LoadString@3
  0004b	80 f2 eb	 xor	 dl, -21			; ffffffebH
  0004e	88 55 e6	 mov	 BYTE PTR __k$[ebp+2], dl
  00051	8a 50 03	 mov	 dl, BYTE PTR [eax+3]
  00054	84 d2		 test	 dl, dl
  00056	0f 84 89 01 00
	00		 je	 $LN93@LoadString@3
  0005c	80 f2 ea	 xor	 dl, -22			; ffffffeaH
  0005f	88 55 e7	 mov	 BYTE PTR __k$[ebp+3], dl
  00062	8a 50 04	 mov	 dl, BYTE PTR [eax+4]
  00065	84 d2		 test	 dl, dl
  00067	0f 84 72 01 00
	00		 je	 $LN92@LoadString@3
  0006d	80 f2 ed	 xor	 dl, -19			; ffffffedH
  00070	88 55 e8	 mov	 BYTE PTR __k$[ebp+4], dl
  00073	8a 50 05	 mov	 dl, BYTE PTR [eax+5]
  00076	84 d2		 test	 dl, dl
  00078	0f 84 5c 01 00
	00		 je	 $LN91@LoadString@3
  0007e	32 d1		 xor	 dl, cl
  00080	88 55 e9	 mov	 BYTE PTR __k$[ebp+5], dl
  00083	8a 50 06	 mov	 dl, BYTE PTR [eax+6]
  00086	84 d2		 test	 dl, dl
  00088	0f 84 46 01 00
	00		 je	 $LN90@LoadString@3
  0008e	80 f2 eb	 xor	 dl, -21			; ffffffebH
  00091	88 55 ea	 mov	 BYTE PTR __k$[ebp+6], dl
  00094	8a 50 07	 mov	 dl, BYTE PTR [eax+7]
  00097	84 d2		 test	 dl, dl
  00099	0f 84 2f 01 00
	00		 je	 $LN89@LoadString@3
  0009f	80 f2 ea	 xor	 dl, -22			; ffffffeaH
  000a2	88 55 eb	 mov	 BYTE PTR __k$[ebp+7], dl
  000a5	8a 50 08	 mov	 dl, BYTE PTR [eax+8]
  000a8	84 d2		 test	 dl, dl
  000aa	0f 84 18 01 00
	00		 je	 $LN88@LoadString@3
  000b0	80 f2 ed	 xor	 dl, -19			; ffffffedH
  000b3	88 55 ec	 mov	 BYTE PTR __k$[ebp+8], dl
  000b6	8a 50 09	 mov	 dl, BYTE PTR [eax+9]
  000b9	84 d2		 test	 dl, dl
  000bb	0f 84 02 01 00
	00		 je	 $LN87@LoadString@3
  000c1	32 d1		 xor	 dl, cl
  000c3	88 55 ed	 mov	 BYTE PTR __k$[ebp+9], dl
  000c6	8a 50 0a	 mov	 dl, BYTE PTR [eax+10]
  000c9	84 d2		 test	 dl, dl
  000cb	0f 84 ec 00 00
	00		 je	 $LN86@LoadString@3
  000d1	80 f2 eb	 xor	 dl, -21			; ffffffebH
  000d4	88 55 ee	 mov	 BYTE PTR __k$[ebp+10], dl
  000d7	8a 50 0b	 mov	 dl, BYTE PTR [eax+11]
  000da	84 d2		 test	 dl, dl
  000dc	0f 84 d5 00 00
	00		 je	 $LN85@LoadString@3
  000e2	80 f2 ea	 xor	 dl, -22			; ffffffeaH
  000e5	88 55 ef	 mov	 BYTE PTR __k$[ebp+11], dl
  000e8	8a 50 0c	 mov	 dl, BYTE PTR [eax+12]
  000eb	84 d2		 test	 dl, dl
  000ed	0f 84 be 00 00
	00		 je	 $LN84@LoadString@3
  000f3	80 f2 ed	 xor	 dl, -19			; ffffffedH
  000f6	88 55 f0	 mov	 BYTE PTR __k$[ebp+12], dl
  000f9	8a 50 0d	 mov	 dl, BYTE PTR [eax+13]
  000fc	84 d2		 test	 dl, dl
  000fe	0f 84 a8 00 00
	00		 je	 $LN83@LoadString@3
  00104	32 d1		 xor	 dl, cl
  00106	88 55 f1	 mov	 BYTE PTR __k$[ebp+13], dl
  00109	8a 50 0e	 mov	 dl, BYTE PTR [eax+14]
  0010c	84 d2		 test	 dl, dl
  0010e	0f 84 92 00 00
	00		 je	 $LN82@LoadString@3
  00114	80 f2 eb	 xor	 dl, -21			; ffffffebH
  00117	88 55 f2	 mov	 BYTE PTR __k$[ebp+14], dl
  0011a	8a 50 0f	 mov	 dl, BYTE PTR [eax+15]
  0011d	84 d2		 test	 dl, dl
  0011f	74 7f		 je	 SHORT $LN81@LoadString@3
  00121	80 f2 ea	 xor	 dl, -22			; ffffffeaH
  00124	88 55 f3	 mov	 BYTE PTR __k$[ebp+15], dl
  00127	8a 50 10	 mov	 dl, BYTE PTR [eax+16]
  0012a	84 d2		 test	 dl, dl
  0012c	74 6c		 je	 SHORT $LN80@LoadString@3
  0012e	80 f2 ed	 xor	 dl, -19			; ffffffedH
  00131	88 55 f4	 mov	 BYTE PTR __k$[ebp+16], dl
  00134	8a 50 11	 mov	 dl, BYTE PTR [eax+17]
  00137	84 d2		 test	 dl, dl
  00139	74 5a		 je	 SHORT $LN79@LoadString@3
  0013b	32 d1		 xor	 dl, cl
  0013d	80 78 12 00	 cmp	 BYTE PTR [eax+18], 0
  00141	88 55 f5	 mov	 BYTE PTR __k$[ebp+17], dl
  00144	0f 84 b1 00 00
	00		 je	 $LN111@LoadString@3
  0014a	8a 50 13	 mov	 dl, BYTE PTR [eax+19]
  0014d	84 d2		 test	 dl, dl
  0014f	74 3e		 je	 SHORT $LN77@LoadString@3
  00151	80 f2 ea	 xor	 dl, -22			; ffffffeaH
  00154	88 55 f7	 mov	 BYTE PTR __k$[ebp+19], dl
  00157	8a 50 14	 mov	 dl, BYTE PTR [eax+20]
  0015a	84 d2		 test	 dl, dl
  0015c	74 2b		 je	 SHORT $LN76@LoadString@3
  0015e	80 f2 ed	 xor	 dl, -19			; ffffffedH
  00161	88 55 f8	 mov	 BYTE PTR __k$[ebp+20], dl
  00164	8a 50 15	 mov	 dl, BYTE PTR [eax+21]
  00167	84 d2		 test	 dl, dl
  00169	74 19		 je	 SHORT $LN75@LoadString@3
  0016b	8a 40 16	 mov	 al, BYTE PTR [eax+22]
  0016e	32 d1		 xor	 dl, cl
  00170	88 55 f9	 mov	 BYTE PTR __k$[ebp+21], dl
  00173	84 c0		 test	 al, al
  00175	74 07		 je	 SHORT $LN74@LoadString@3
  00177	34 eb		 xor	 al, -21			; ffffffebH
  00179	88 45 fa	 mov	 BYTE PTR __k$[ebp+22], al
  0017c	eb 7d		 jmp	 SHORT $LN111@LoadString@3
$LN74@LoadString@3:
  0017e	c6 45 fa eb	 mov	 BYTE PTR __k$[ebp+22], -21 ; ffffffebH
  00182	eb 77		 jmp	 SHORT $LN111@LoadString@3
$LN75@LoadString@3:
  00184	88 4d f9	 mov	 BYTE PTR __k$[ebp+21], cl
  00187	eb 72		 jmp	 SHORT $LN111@LoadString@3
$LN76@LoadString@3:
  00189	c6 45 f8 ed	 mov	 BYTE PTR __k$[ebp+20], -19 ; ffffffedH
  0018d	eb 6c		 jmp	 SHORT $LN111@LoadString@3
$LN77@LoadString@3:
  0018f	c6 45 f7 ea	 mov	 BYTE PTR __k$[ebp+19], -22 ; ffffffeaH
  00193	eb 66		 jmp	 SHORT $LN111@LoadString@3
$LN79@LoadString@3:
  00195	88 4d f5	 mov	 BYTE PTR __k$[ebp+17], cl
  00198	eb 61		 jmp	 SHORT $LN111@LoadString@3
$LN80@LoadString@3:
  0019a	c6 45 f4 ed	 mov	 BYTE PTR __k$[ebp+16], -19 ; ffffffedH
  0019e	eb 5b		 jmp	 SHORT $LN111@LoadString@3
$LN81@LoadString@3:
  001a0	c6 45 f3 ea	 mov	 BYTE PTR __k$[ebp+15], -22 ; ffffffeaH
  001a4	eb 55		 jmp	 SHORT $LN111@LoadString@3
$LN82@LoadString@3:
  001a6	c6 45 f2 eb	 mov	 BYTE PTR __k$[ebp+14], -21 ; ffffffebH
  001aa	eb 4f		 jmp	 SHORT $LN111@LoadString@3
$LN83@LoadString@3:
  001ac	88 4d f1	 mov	 BYTE PTR __k$[ebp+13], cl
  001af	eb 4a		 jmp	 SHORT $LN111@LoadString@3
$LN84@LoadString@3:
  001b1	c6 45 f0 ed	 mov	 BYTE PTR __k$[ebp+12], -19 ; ffffffedH
  001b5	eb 44		 jmp	 SHORT $LN111@LoadString@3
$LN85@LoadString@3:
  001b7	c6 45 ef ea	 mov	 BYTE PTR __k$[ebp+11], -22 ; ffffffeaH
  001bb	eb 3e		 jmp	 SHORT $LN111@LoadString@3
$LN86@LoadString@3:
  001bd	c6 45 ee eb	 mov	 BYTE PTR __k$[ebp+10], -21 ; ffffffebH
  001c1	eb 38		 jmp	 SHORT $LN111@LoadString@3
$LN87@LoadString@3:
  001c3	88 4d ed	 mov	 BYTE PTR __k$[ebp+9], cl
  001c6	eb 33		 jmp	 SHORT $LN111@LoadString@3
$LN88@LoadString@3:
  001c8	c6 45 ec ed	 mov	 BYTE PTR __k$[ebp+8], -19 ; ffffffedH
  001cc	eb 2d		 jmp	 SHORT $LN111@LoadString@3
$LN89@LoadString@3:
  001ce	c6 45 eb ea	 mov	 BYTE PTR __k$[ebp+7], -22 ; ffffffeaH
  001d2	eb 27		 jmp	 SHORT $LN111@LoadString@3
$LN90@LoadString@3:
  001d4	c6 45 ea eb	 mov	 BYTE PTR __k$[ebp+6], -21 ; ffffffebH
  001d8	eb 21		 jmp	 SHORT $LN111@LoadString@3
$LN91@LoadString@3:
  001da	88 4d e9	 mov	 BYTE PTR __k$[ebp+5], cl
  001dd	eb 1c		 jmp	 SHORT $LN111@LoadString@3
$LN92@LoadString@3:
  001df	c6 45 e8 ed	 mov	 BYTE PTR __k$[ebp+4], -19 ; ffffffedH
  001e3	eb 16		 jmp	 SHORT $LN111@LoadString@3
$LN93@LoadString@3:
  001e5	c6 45 e7 ea	 mov	 BYTE PTR __k$[ebp+3], -22 ; ffffffeaH
  001e9	eb 10		 jmp	 SHORT $LN111@LoadString@3
$LN94@LoadString@3:
  001eb	c6 45 e6 eb	 mov	 BYTE PTR __k$[ebp+2], -21 ; ffffffebH
  001ef	eb 0a		 jmp	 SHORT $LN111@LoadString@3
$LN95@LoadString@3:
  001f1	c6 45 e5 ec	 mov	 BYTE PTR __k$[ebp+1], -20 ; ffffffecH
  001f5	eb 04		 jmp	 SHORT $LN111@LoadString@3
$LN96@LoadString@3:
  001f7	c6 45 e4 ed	 mov	 BYTE PTR __k$[ebp], -19	; ffffffedH
$LN111@LoadString@3:
  001fb	6a 04		 push	 4
  001fd	8d 45 e4	 lea	 eax, DWORD PTR __k$[ebp]
  00200	c6 45 f6 00	 mov	 BYTE PTR __k$[ebp+18], 0
  00204	5a		 pop	 edx
$LL104@LoadString@3:
  00205	81 30 ed ec eb
	ea		 xor	 DWORD PTR [eax], -353637139 ; eaebecedH
  0020b	83 c0 04	 add	 eax, 4
  0020e	4a		 dec	 edx
  0020f	75 f4		 jne	 SHORT $LL104@LoadString@3
  00211	6a 10		 push	 16			; 00000010H
  00213	58		 pop	 eax
$LL101@LoadString@3:
  00214	8b c8		 mov	 ecx, eax
  00216	81 e1 03 00 00
	80		 and	 ecx, -2147483645	; 80000003H
  0021c	79 05		 jns	 SHORT $LN112@LoadString@3
  0021e	49		 dec	 ecx
  0021f	83 c9 fc	 or	 ecx, -4			; fffffffcH
  00222	41		 inc	 ecx
$LN112@LoadString@3:
  00223	b2 ed		 mov	 dl, -19			; ffffffedH
  00225	2a d1		 sub	 dl, cl
  00227	30 54 05 e4	 xor	 BYTE PTR __k$[ebp+eax], dl
  0022b	40		 inc	 eax
  0022c	83 f8 12	 cmp	 eax, 18			; 00000012H
  0022f	7c e3		 jl	 SHORT $LL101@LoadString@3

; 163  : 		LoadString(_k, d, b, i);

  00231	ff 75 14	 push	 DWORD PTR _i$[ebp]
  00234	8b 4d e0	 mov	 ecx, DWORD PTR _this$GSCopy$[ebp]
  00237	57		 push	 edi
  00238	56		 push	 esi
  00239	8d 45 e4	 lea	 eax, DWORD PTR __k$[ebp]
  0023c	50		 push	 eax
  0023d	ff 15 00 00 00
	00		 call	 DWORD PTR __imp_?LoadStringA@ioINILoader@@QAEXPBD0PADH@Z

; 164  : 	}

  00243	8b 4d fc	 mov	 ecx, DWORD PTR __$ArrayPad$[ebp]
  00246	5f		 pop	 edi
  00247	33 cd		 xor	 ecx, ebp
  00249	5e		 pop	 esi
  0024a	e8 00 00 00 00	 call	 @__security_check_cookie@4
  0024f	c9		 leave
  00250	c2 10 00	 ret	 16			; 00000010H
??$LoadString_e@$0BD@@ioINILoader@@QAEXAAY0BD@$$CBDAAY00$$CBDPADH@Z ENDP ; ioINILoader::LoadString_e<19>
_TEXT	ENDS
PUBLIC	__$ArrayPad$
PUBLIC	??$LoadString_e@$0L@@ioINILoader@@QAEXAAY0L@$$CBDAAY00$$CBDPADH@Z ; ioINILoader::LoadString_e<11>
; Function compile flags: /Ogsp
;	COMDAT ??$LoadString_e@$0L@@ioINILoader@@QAEXAAY0L@$$CBDAAY00$$CBDPADH@Z
_TEXT	SEGMENT
__k$ = -20						; size = 11
__$ArrayPad$ = -4					; size = 4
_k$ = 8							; size = 4
_d$ = 12						; size = 4
_b$ = 16						; size = 4
_i$ = 20						; size = 4
??$LoadString_e@$0L@@ioINILoader@@QAEXAAY0L@$$CBDAAY00$$CBDPADH@Z PROC ; ioINILoader::LoadString_e<11>, COMDAT
; _this$ = ecx

; 161  : 	{

  00000	55		 push	 ebp
  00001	8b ec		 mov	 ebp, esp
  00003	83 ec 14	 sub	 esp, 20			; 00000014H
  00006	a1 00 00 00 00	 mov	 eax, DWORD PTR ___security_cookie
  0000b	33 c5		 xor	 eax, ebp
  0000d	89 45 fc	 mov	 DWORD PTR __$ArrayPad$[ebp], eax
  00010	8b 45 08	 mov	 eax, DWORD PTR _k$[ebp]

; 162  : 		_ENCSTR(k, _k);

  00013	8a 10		 mov	 dl, BYTE PTR [eax]
  00015	53		 push	 ebx
  00016	56		 push	 esi
  00017	8b 75 0c	 mov	 esi, DWORD PTR _d$[ebp]
  0001a	57		 push	 edi
  0001b	8b 7d 10	 mov	 edi, DWORD PTR _b$[ebp]
  0001e	84 d2		 test	 dl, dl
  00020	0f 84 1b 01 00
	00		 je	 $LN96@LoadString@4
  00026	80 f2 ed	 xor	 dl, -19			; ffffffedH
  00029	88 55 ec	 mov	 BYTE PTR __k$[ebp], dl
  0002c	8a 50 01	 mov	 dl, BYTE PTR [eax+1]
  0002f	84 d2		 test	 dl, dl
  00031	0f 84 04 01 00
	00		 je	 $LN95@LoadString@4
  00037	b3 ec		 mov	 bl, -20			; ffffffecH
  00039	32 d3		 xor	 dl, bl
  0003b	88 55 ed	 mov	 BYTE PTR __k$[ebp+1], dl
  0003e	8a 50 02	 mov	 dl, BYTE PTR [eax+2]
  00041	84 d2		 test	 dl, dl
  00043	0f 84 ec 00 00
	00		 je	 $LN94@LoadString@4
  00049	80 f2 eb	 xor	 dl, -21			; ffffffebH
  0004c	88 55 ee	 mov	 BYTE PTR __k$[ebp+2], dl
  0004f	8a 50 03	 mov	 dl, BYTE PTR [eax+3]
  00052	84 d2		 test	 dl, dl
  00054	0f 84 d5 00 00
	00		 je	 $LN93@LoadString@4
  0005a	80 f2 ea	 xor	 dl, -22			; ffffffeaH
  0005d	88 55 ef	 mov	 BYTE PTR __k$[ebp+3], dl
  00060	8a 50 04	 mov	 dl, BYTE PTR [eax+4]
  00063	84 d2		 test	 dl, dl
  00065	0f 84 be 00 00
	00		 je	 $LN92@LoadString@4
  0006b	80 f2 ed	 xor	 dl, -19			; ffffffedH
  0006e	88 55 f0	 mov	 BYTE PTR __k$[ebp+4], dl
  00071	8a 50 05	 mov	 dl, BYTE PTR [eax+5]
  00074	84 d2		 test	 dl, dl
  00076	0f 84 a8 00 00
	00		 je	 $LN91@LoadString@4
  0007c	32 d3		 xor	 dl, bl
  0007e	88 55 f1	 mov	 BYTE PTR __k$[ebp+5], dl
  00081	8a 50 06	 mov	 dl, BYTE PTR [eax+6]
  00084	84 d2		 test	 dl, dl
  00086	0f 84 92 00 00
	00		 je	 $LN90@LoadString@4
  0008c	80 f2 eb	 xor	 dl, -21			; ffffffebH
  0008f	88 55 f2	 mov	 BYTE PTR __k$[ebp+6], dl
  00092	8a 50 07	 mov	 dl, BYTE PTR [eax+7]
  00095	84 d2		 test	 dl, dl
  00097	74 7f		 je	 SHORT $LN89@LoadString@4
  00099	80 f2 ea	 xor	 dl, -22			; ffffffeaH
  0009c	88 55 f3	 mov	 BYTE PTR __k$[ebp+7], dl
  0009f	8a 50 08	 mov	 dl, BYTE PTR [eax+8]
  000a2	84 d2		 test	 dl, dl
  000a4	74 6c		 je	 SHORT $LN88@LoadString@4
  000a6	80 f2 ed	 xor	 dl, -19			; ffffffedH
  000a9	88 55 f4	 mov	 BYTE PTR __k$[ebp+8], dl
  000ac	8a 50 09	 mov	 dl, BYTE PTR [eax+9]
  000af	84 d2		 test	 dl, dl
  000b1	74 5a		 je	 SHORT $LN87@LoadString@4
  000b3	32 d3		 xor	 dl, bl
  000b5	80 78 0a 00	 cmp	 BYTE PTR [eax+10], 0
  000b9	88 55 f5	 mov	 BYTE PTR __k$[ebp+9], dl
  000bc	0f 84 83 00 00
	00		 je	 $LN1@LoadString@4
  000c2	8a 50 0b	 mov	 dl, BYTE PTR [eax+11]
  000c5	84 d2		 test	 dl, dl
  000c7	74 3e		 je	 SHORT $LN85@LoadString@4
  000c9	80 f2 ea	 xor	 dl, -22			; ffffffeaH
  000cc	88 55 f7	 mov	 BYTE PTR __k$[ebp+11], dl
  000cf	8a 50 0c	 mov	 dl, BYTE PTR [eax+12]
  000d2	84 d2		 test	 dl, dl
  000d4	74 2b		 je	 SHORT $LN84@LoadString@4
  000d6	80 f2 ed	 xor	 dl, -19			; ffffffedH
  000d9	88 55 f8	 mov	 BYTE PTR __k$[ebp+12], dl
  000dc	8a 50 0d	 mov	 dl, BYTE PTR [eax+13]
  000df	84 d2		 test	 dl, dl
  000e1	74 19		 je	 SHORT $LN83@LoadString@4
  000e3	8a 40 0e	 mov	 al, BYTE PTR [eax+14]
  000e6	32 d3		 xor	 dl, bl
  000e8	88 55 f9	 mov	 BYTE PTR __k$[ebp+13], dl
  000eb	84 c0		 test	 al, al
  000ed	74 07		 je	 SHORT $LN82@LoadString@4
  000ef	34 eb		 xor	 al, -21			; ffffffebH
  000f1	88 45 fa	 mov	 BYTE PTR __k$[ebp+14], al
  000f4	eb 4f		 jmp	 SHORT $LN1@LoadString@4
$LN82@LoadString@4:
  000f6	c6 45 fa eb	 mov	 BYTE PTR __k$[ebp+14], -21 ; ffffffebH
  000fa	eb 49		 jmp	 SHORT $LN1@LoadString@4
$LN83@LoadString@4:
  000fc	88 5d f9	 mov	 BYTE PTR __k$[ebp+13], bl
  000ff	eb 44		 jmp	 SHORT $LN1@LoadString@4
$LN84@LoadString@4:
  00101	c6 45 f8 ed	 mov	 BYTE PTR __k$[ebp+12], -19 ; ffffffedH
  00105	eb 3e		 jmp	 SHORT $LN1@LoadString@4
$LN85@LoadString@4:
  00107	c6 45 f7 ea	 mov	 BYTE PTR __k$[ebp+11], -22 ; ffffffeaH
  0010b	eb 38		 jmp	 SHORT $LN1@LoadString@4
$LN87@LoadString@4:
  0010d	88 5d f5	 mov	 BYTE PTR __k$[ebp+9], bl
  00110	eb 33		 jmp	 SHORT $LN1@LoadString@4
$LN88@LoadString@4:
  00112	c6 45 f4 ed	 mov	 BYTE PTR __k$[ebp+8], -19 ; ffffffedH
  00116	eb 2d		 jmp	 SHORT $LN1@LoadString@4
$LN89@LoadString@4:
  00118	c6 45 f3 ea	 mov	 BYTE PTR __k$[ebp+7], -22 ; ffffffeaH
  0011c	eb 27		 jmp	 SHORT $LN1@LoadString@4
$LN90@LoadString@4:
  0011e	c6 45 f2 eb	 mov	 BYTE PTR __k$[ebp+6], -21 ; ffffffebH
  00122	eb 21		 jmp	 SHORT $LN1@LoadString@4
$LN91@LoadString@4:
  00124	88 5d f1	 mov	 BYTE PTR __k$[ebp+5], bl
  00127	eb 1c		 jmp	 SHORT $LN1@LoadString@4
$LN92@LoadString@4:
  00129	c6 45 f0 ed	 mov	 BYTE PTR __k$[ebp+4], -19 ; ffffffedH
  0012d	eb 16		 jmp	 SHORT $LN1@LoadString@4
$LN93@LoadString@4:
  0012f	c6 45 ef ea	 mov	 BYTE PTR __k$[ebp+3], -22 ; ffffffeaH
  00133	eb 10		 jmp	 SHORT $LN1@LoadString@4
$LN94@LoadString@4:
  00135	c6 45 ee eb	 mov	 BYTE PTR __k$[ebp+2], -21 ; ffffffebH
  00139	eb 0a		 jmp	 SHORT $LN1@LoadString@4
$LN95@LoadString@4:
  0013b	c6 45 ed ec	 mov	 BYTE PTR __k$[ebp+1], -20 ; ffffffecH
  0013f	eb 04		 jmp	 SHORT $LN1@LoadString@4
$LN96@LoadString@4:
  00141	c6 45 ec ed	 mov	 BYTE PTR __k$[ebp], -19	; ffffffedH
$LN1@LoadString@4:
  00145	6a 02		 push	 2
  00147	8d 45 ec	 lea	 eax, DWORD PTR __k$[ebp]
  0014a	c6 45 f6 00	 mov	 BYTE PTR __k$[ebp+10], 0
  0014e	5a		 pop	 edx
$LL104@LoadString@4:
  0014f	81 30 ed ec eb
	ea		 xor	 DWORD PTR [eax], -353637139 ; eaebecedH
  00155	83 c0 04	 add	 eax, 4
  00158	4a		 dec	 edx
  00159	75 f4		 jne	 SHORT $LL104@LoadString@4
  0015b	6a 08		 push	 8
  0015d	58		 pop	 eax
$LL101@LoadString@4:
  0015e	8b d0		 mov	 edx, eax
  00160	81 e2 03 00 00
	80		 and	 edx, -2147483645	; 80000003H
  00166	79 05		 jns	 SHORT $LN111@LoadString@4
  00168	4a		 dec	 edx
  00169	83 ca fc	 or	 edx, -4			; fffffffcH
  0016c	42		 inc	 edx
$LN111@LoadString@4:
  0016d	b3 ed		 mov	 bl, -19			; ffffffedH
  0016f	2a da		 sub	 bl, dl
  00171	30 5c 05 ec	 xor	 BYTE PTR __k$[ebp+eax], bl
  00175	40		 inc	 eax
  00176	83 f8 0a	 cmp	 eax, 10			; 0000000aH
  00179	7c e3		 jl	 SHORT $LL101@LoadString@4

; 163  : 		LoadString(_k, d, b, i);

  0017b	ff 75 14	 push	 DWORD PTR _i$[ebp]
  0017e	8d 45 ec	 lea	 eax, DWORD PTR __k$[ebp]
  00181	57		 push	 edi
  00182	56		 push	 esi
  00183	50		 push	 eax
  00184	ff 15 00 00 00
	00		 call	 DWORD PTR __imp_?LoadStringA@ioINILoader@@QAEXPBD0PADH@Z

; 164  : 	}

  0018a	8b 4d fc	 mov	 ecx, DWORD PTR __$ArrayPad$[ebp]
  0018d	5f		 pop	 edi
  0018e	5e		 pop	 esi
  0018f	33 cd		 xor	 ecx, ebp
  00191	5b		 pop	 ebx
  00192	e8 00 00 00 00	 call	 @__security_check_cookie@4
  00197	c9		 leave
  00198	c2 10 00	 ret	 16			; 00000010H
??$LoadString_e@$0L@@ioINILoader@@QAEXAAY0L@$$CBDAAY00$$CBDPADH@Z ENDP ; ioINILoader::LoadString_e<11>
_TEXT	ENDS
PUBLIC	__$ArrayPad$
PUBLIC	??$LoadFloat_e@$0BB@@ioINILoader@@QAEMAAY0BB@$$CBDM@Z ; ioINILoader::LoadFloat_e<17>
EXTRN	__imp_?LoadFloat@ioINILoader@@QAEMPBDM@Z:PROC
; Function compile flags: /Ogsp
;	COMDAT ??$LoadFloat_e@$0BB@@ioINILoader@@QAEMAAY0BB@$$CBDM@Z
_TEXT	SEGMENT
__k$ = -28						; size = 17
__$ArrayPad$ = -4					; size = 4
_k$ = 8							; size = 4
_f$ = 12						; size = 4
??$LoadFloat_e@$0BB@@ioINILoader@@QAEMAAY0BB@$$CBDM@Z PROC ; ioINILoader::LoadFloat_e<17>, COMDAT
; _this$ = ecx

; 135  : 	{

  00000	55		 push	 ebp
  00001	8b ec		 mov	 ebp, esp
  00003	83 ec 1c	 sub	 esp, 28			; 0000001cH
  00006	a1 00 00 00 00	 mov	 eax, DWORD PTR ___security_cookie
  0000b	33 c5		 xor	 eax, ebp
  0000d	89 45 fc	 mov	 DWORD PTR __$ArrayPad$[ebp], eax
  00010	8b 45 08	 mov	 eax, DWORD PTR _k$[ebp]

; 136  : 		_ENCSTR(k, _k);

  00013	8a 10		 mov	 dl, BYTE PTR [eax]
  00015	56		 push	 esi
  00016	8b f1		 mov	 esi, ecx
  00018	84 d2		 test	 dl, dl
  0001a	0f 84 a7 01 00
	00		 je	 $LN96@LoadFloat_
  00020	80 f2 ed	 xor	 dl, -19			; ffffffedH
  00023	88 55 e4	 mov	 BYTE PTR __k$[ebp], dl
  00026	8a 50 01	 mov	 dl, BYTE PTR [eax+1]
  00029	84 d2		 test	 dl, dl
  0002b	0f 84 90 01 00
	00		 je	 $LN95@LoadFloat_
  00031	b1 ec		 mov	 cl, -20			; ffffffecH
  00033	32 d1		 xor	 dl, cl
  00035	88 55 e5	 mov	 BYTE PTR __k$[ebp+1], dl
  00038	8a 50 02	 mov	 dl, BYTE PTR [eax+2]
  0003b	84 d2		 test	 dl, dl
  0003d	0f 84 78 01 00
	00		 je	 $LN94@LoadFloat_
  00043	80 f2 eb	 xor	 dl, -21			; ffffffebH
  00046	88 55 e6	 mov	 BYTE PTR __k$[ebp+2], dl
  00049	8a 50 03	 mov	 dl, BYTE PTR [eax+3]
  0004c	84 d2		 test	 dl, dl
  0004e	0f 84 61 01 00
	00		 je	 $LN93@LoadFloat_
  00054	80 f2 ea	 xor	 dl, -22			; ffffffeaH
  00057	88 55 e7	 mov	 BYTE PTR __k$[ebp+3], dl
  0005a	8a 50 04	 mov	 dl, BYTE PTR [eax+4]
  0005d	84 d2		 test	 dl, dl
  0005f	0f 84 4a 01 00
	00		 je	 $LN92@LoadFloat_
  00065	80 f2 ed	 xor	 dl, -19			; ffffffedH
  00068	88 55 e8	 mov	 BYTE PTR __k$[ebp+4], dl
  0006b	8a 50 05	 mov	 dl, BYTE PTR [eax+5]
  0006e	84 d2		 test	 dl, dl
  00070	0f 84 34 01 00
	00		 je	 $LN91@LoadFloat_
  00076	32 d1		 xor	 dl, cl
  00078	88 55 e9	 mov	 BYTE PTR __k$[ebp+5], dl
  0007b	8a 50 06	 mov	 dl, BYTE PTR [eax+6]
  0007e	84 d2		 test	 dl, dl
  00080	0f 84 1e 01 00
	00		 je	 $LN90@LoadFloat_
  00086	80 f2 eb	 xor	 dl, -21			; ffffffebH
  00089	88 55 ea	 mov	 BYTE PTR __k$[ebp+6], dl
  0008c	8a 50 07	 mov	 dl, BYTE PTR [eax+7]
  0008f	84 d2		 test	 dl, dl
  00091	0f 84 07 01 00
	00		 je	 $LN89@LoadFloat_
  00097	80 f2 ea	 xor	 dl, -22			; ffffffeaH
  0009a	88 55 eb	 mov	 BYTE PTR __k$[ebp+7], dl
  0009d	8a 50 08	 mov	 dl, BYTE PTR [eax+8]
  000a0	84 d2		 test	 dl, dl
  000a2	0f 84 f0 00 00
	00		 je	 $LN88@LoadFloat_
  000a8	80 f2 ed	 xor	 dl, -19			; ffffffedH
  000ab	88 55 ec	 mov	 BYTE PTR __k$[ebp+8], dl
  000ae	8a 50 09	 mov	 dl, BYTE PTR [eax+9]
  000b1	84 d2		 test	 dl, dl
  000b3	0f 84 da 00 00
	00		 je	 $LN87@LoadFloat_
  000b9	32 d1		 xor	 dl, cl
  000bb	88 55 ed	 mov	 BYTE PTR __k$[ebp+9], dl
  000be	8a 50 0a	 mov	 dl, BYTE PTR [eax+10]
  000c1	84 d2		 test	 dl, dl
  000c3	0f 84 c4 00 00
	00		 je	 $LN86@LoadFloat_
  000c9	80 f2 eb	 xor	 dl, -21			; ffffffebH
  000cc	88 55 ee	 mov	 BYTE PTR __k$[ebp+10], dl
  000cf	8a 50 0b	 mov	 dl, BYTE PTR [eax+11]
  000d2	84 d2		 test	 dl, dl
  000d4	0f 84 ad 00 00
	00		 je	 $LN85@LoadFloat_
  000da	80 f2 ea	 xor	 dl, -22			; ffffffeaH
  000dd	88 55 ef	 mov	 BYTE PTR __k$[ebp+11], dl
  000e0	8a 50 0c	 mov	 dl, BYTE PTR [eax+12]
  000e3	84 d2		 test	 dl, dl
  000e5	0f 84 96 00 00
	00		 je	 $LN84@LoadFloat_
  000eb	80 f2 ed	 xor	 dl, -19			; ffffffedH
  000ee	88 55 f0	 mov	 BYTE PTR __k$[ebp+12], dl
  000f1	8a 50 0d	 mov	 dl, BYTE PTR [eax+13]
  000f4	84 d2		 test	 dl, dl
  000f6	0f 84 80 00 00
	00		 je	 $LN83@LoadFloat_
  000fc	32 d1		 xor	 dl, cl
  000fe	88 55 f1	 mov	 BYTE PTR __k$[ebp+13], dl
  00101	8a 50 0e	 mov	 dl, BYTE PTR [eax+14]
  00104	84 d2		 test	 dl, dl
  00106	74 6e		 je	 SHORT $LN82@LoadFloat_
  00108	80 f2 eb	 xor	 dl, -21			; ffffffebH
  0010b	88 55 f2	 mov	 BYTE PTR __k$[ebp+14], dl
  0010e	8a 50 0f	 mov	 dl, BYTE PTR [eax+15]
  00111	84 d2		 test	 dl, dl
  00113	74 5b		 je	 SHORT $LN81@LoadFloat_
  00115	80 f2 ea	 xor	 dl, -22			; ffffffeaH
  00118	80 78 10 00	 cmp	 BYTE PTR [eax+16], 0
  0011c	88 55 f3	 mov	 BYTE PTR __k$[ebp+15], dl
  0011f	0f 84 a6 00 00
	00		 je	 $LN1@LoadFloat_
  00125	8a 50 11	 mov	 dl, BYTE PTR [eax+17]
  00128	84 d2		 test	 dl, dl
  0012a	74 3f		 je	 SHORT $LN79@LoadFloat_
  0012c	32 d1		 xor	 dl, cl
  0012e	88 55 f5	 mov	 BYTE PTR __k$[ebp+17], dl
  00131	8a 50 12	 mov	 dl, BYTE PTR [eax+18]
  00134	84 d2		 test	 dl, dl
  00136	74 2d		 je	 SHORT $LN78@LoadFloat_
  00138	80 f2 eb	 xor	 dl, -21			; ffffffebH
  0013b	88 55 f6	 mov	 BYTE PTR __k$[ebp+18], dl
  0013e	8a 50 13	 mov	 dl, BYTE PTR [eax+19]
  00141	84 d2		 test	 dl, dl
  00143	74 1a		 je	 SHORT $LN77@LoadFloat_
  00145	8a 40 14	 mov	 al, BYTE PTR [eax+20]
  00148	80 f2 ea	 xor	 dl, -22			; ffffffeaH
  0014b	88 55 f7	 mov	 BYTE PTR __k$[ebp+19], dl
  0014e	84 c0		 test	 al, al
  00150	74 07		 je	 SHORT $LN76@LoadFloat_
  00152	34 ed		 xor	 al, -19			; ffffffedH
  00154	88 45 f8	 mov	 BYTE PTR __k$[ebp+20], al
  00157	eb 72		 jmp	 SHORT $LN1@LoadFloat_
$LN76@LoadFloat_:
  00159	c6 45 f8 ed	 mov	 BYTE PTR __k$[ebp+20], -19 ; ffffffedH
  0015d	eb 6c		 jmp	 SHORT $LN1@LoadFloat_
$LN77@LoadFloat_:
  0015f	c6 45 f7 ea	 mov	 BYTE PTR __k$[ebp+19], -22 ; ffffffeaH
  00163	eb 66		 jmp	 SHORT $LN1@LoadFloat_
$LN78@LoadFloat_:
  00165	c6 45 f6 eb	 mov	 BYTE PTR __k$[ebp+18], -21 ; ffffffebH
  00169	eb 60		 jmp	 SHORT $LN1@LoadFloat_
$LN79@LoadFloat_:
  0016b	88 4d f5	 mov	 BYTE PTR __k$[ebp+17], cl
  0016e	eb 5b		 jmp	 SHORT $LN1@LoadFloat_
$LN81@LoadFloat_:
  00170	c6 45 f3 ea	 mov	 BYTE PTR __k$[ebp+15], -22 ; ffffffeaH
  00174	eb 55		 jmp	 SHORT $LN1@LoadFloat_
$LN82@LoadFloat_:
  00176	c6 45 f2 eb	 mov	 BYTE PTR __k$[ebp+14], -21 ; ffffffebH
  0017a	eb 4f		 jmp	 SHORT $LN1@LoadFloat_
$LN83@LoadFloat_:
  0017c	88 4d f1	 mov	 BYTE PTR __k$[ebp+13], cl
  0017f	eb 4a		 jmp	 SHORT $LN1@LoadFloat_
$LN84@LoadFloat_:
  00181	c6 45 f0 ed	 mov	 BYTE PTR __k$[ebp+12], -19 ; ffffffedH
  00185	eb 44		 jmp	 SHORT $LN1@LoadFloat_
$LN85@LoadFloat_:
  00187	c6 45 ef ea	 mov	 BYTE PTR __k$[ebp+11], -22 ; ffffffeaH
  0018b	eb 3e		 jmp	 SHORT $LN1@LoadFloat_
$LN86@LoadFloat_:
  0018d	c6 45 ee eb	 mov	 BYTE PTR __k$[ebp+10], -21 ; ffffffebH
  00191	eb 38		 jmp	 SHORT $LN1@LoadFloat_
$LN87@LoadFloat_:
  00193	88 4d ed	 mov	 BYTE PTR __k$[ebp+9], cl
  00196	eb 33		 jmp	 SHORT $LN1@LoadFloat_
$LN88@LoadFloat_:
  00198	c6 45 ec ed	 mov	 BYTE PTR __k$[ebp+8], -19 ; ffffffedH
  0019c	eb 2d		 jmp	 SHORT $LN1@LoadFloat_
$LN89@LoadFloat_:
  0019e	c6 45 eb ea	 mov	 BYTE PTR __k$[ebp+7], -22 ; ffffffeaH
  001a2	eb 27		 jmp	 SHORT $LN1@LoadFloat_
$LN90@LoadFloat_:
  001a4	c6 45 ea eb	 mov	 BYTE PTR __k$[ebp+6], -21 ; ffffffebH
  001a8	eb 21		 jmp	 SHORT $LN1@LoadFloat_
$LN91@LoadFloat_:
  001aa	88 4d e9	 mov	 BYTE PTR __k$[ebp+5], cl
  001ad	eb 1c		 jmp	 SHORT $LN1@LoadFloat_
$LN92@LoadFloat_:
  001af	c6 45 e8 ed	 mov	 BYTE PTR __k$[ebp+4], -19 ; ffffffedH
  001b3	eb 16		 jmp	 SHORT $LN1@LoadFloat_
$LN93@LoadFloat_:
  001b5	c6 45 e7 ea	 mov	 BYTE PTR __k$[ebp+3], -22 ; ffffffeaH
  001b9	eb 10		 jmp	 SHORT $LN1@LoadFloat_
$LN94@LoadFloat_:
  001bb	c6 45 e6 eb	 mov	 BYTE PTR __k$[ebp+2], -21 ; ffffffebH
  001bf	eb 0a		 jmp	 SHORT $LN1@LoadFloat_
$LN95@LoadFloat_:
  001c1	c6 45 e5 ec	 mov	 BYTE PTR __k$[ebp+1], -20 ; ffffffecH
  001c5	eb 04		 jmp	 SHORT $LN1@LoadFloat_
$LN96@LoadFloat_:
  001c7	c6 45 e4 ed	 mov	 BYTE PTR __k$[ebp], -19	; ffffffedH
$LN1@LoadFloat_:
  001cb	6a 04		 push	 4
  001cd	8d 45 e4	 lea	 eax, DWORD PTR __k$[ebp]
  001d0	c6 45 f4 00	 mov	 BYTE PTR __k$[ebp+16], 0
  001d4	5a		 pop	 edx
$LL104@LoadFloat_:
  001d5	81 30 ed ec eb
	ea		 xor	 DWORD PTR [eax], -353637139 ; eaebecedH
  001db	83 c0 04	 add	 eax, 4
  001de	4a		 dec	 edx
  001df	75 f4		 jne	 SHORT $LL104@LoadFloat_

; 137  : 		return LoadFloat(_k, f);

  001e1	f3 0f 10 45 0c	 movss	 xmm0, DWORD PTR _f$[ebp]
  001e6	51		 push	 ecx
  001e7	8d 45 e4	 lea	 eax, DWORD PTR __k$[ebp]
  001ea	f3 0f 11 04 24	 movss	 DWORD PTR [esp], xmm0
  001ef	50		 push	 eax
  001f0	8b ce		 mov	 ecx, esi
  001f2	ff 15 00 00 00
	00		 call	 DWORD PTR __imp_?LoadFloat@ioINILoader@@QAEMPBDM@Z

; 138  : 	}

  001f8	8b 4d fc	 mov	 ecx, DWORD PTR __$ArrayPad$[ebp]
  001fb	33 cd		 xor	 ecx, ebp
  001fd	5e		 pop	 esi
  001fe	e8 00 00 00 00	 call	 @__security_check_cookie@4
  00203	c9		 leave
  00204	c2 08 00	 ret	 8
??$LoadFloat_e@$0BB@@ioINILoader@@QAEMAAY0BB@$$CBDM@Z ENDP ; ioINILoader::LoadFloat_e<17>
_TEXT	ENDS
PUBLIC	__$ArrayPad$
PUBLIC	??$LoadFloat_e@$0BE@@ioINILoader@@QAEMAAY0BE@$$CBDM@Z ; ioINILoader::LoadFloat_e<20>
; Function compile flags: /Ogsp
;	COMDAT ??$LoadFloat_e@$0BE@@ioINILoader@@QAEMAAY0BE@$$CBDM@Z
_TEXT	SEGMENT
__k$ = -28						; size = 20
__$ArrayPad$ = -4					; size = 4
_k$ = 8							; size = 4
_f$ = 12						; size = 4
??$LoadFloat_e@$0BE@@ioINILoader@@QAEMAAY0BE@$$CBDM@Z PROC ; ioINILoader::LoadFloat_e<20>, COMDAT
; _this$ = ecx

; 135  : 	{

  00000	55		 push	 ebp
  00001	8b ec		 mov	 ebp, esp
  00003	83 ec 1c	 sub	 esp, 28			; 0000001cH
  00006	a1 00 00 00 00	 mov	 eax, DWORD PTR ___security_cookie
  0000b	33 c5		 xor	 eax, ebp
  0000d	89 45 fc	 mov	 DWORD PTR __$ArrayPad$[ebp], eax
  00010	8b 45 08	 mov	 eax, DWORD PTR _k$[ebp]

; 136  : 		_ENCSTR(k, _k);

  00013	8a 10		 mov	 dl, BYTE PTR [eax]
  00015	53		 push	 ebx
  00016	56		 push	 esi
  00017	8b f1		 mov	 esi, ecx
  00019	84 d2		 test	 dl, dl
  0001b	0f 84 dd 01 00
	00		 je	 $LN96@LoadFloat_@2
  00021	80 f2 ed	 xor	 dl, -19			; ffffffedH
  00024	88 55 e4	 mov	 BYTE PTR __k$[ebp], dl
  00027	8a 50 01	 mov	 dl, BYTE PTR [eax+1]
  0002a	84 d2		 test	 dl, dl
  0002c	0f 84 c6 01 00
	00		 je	 $LN95@LoadFloat_@2
  00032	b3 ec		 mov	 bl, -20			; ffffffecH
  00034	32 d3		 xor	 dl, bl
  00036	88 55 e5	 mov	 BYTE PTR __k$[ebp+1], dl
  00039	8a 50 02	 mov	 dl, BYTE PTR [eax+2]
  0003c	84 d2		 test	 dl, dl
  0003e	0f 84 ae 01 00
	00		 je	 $LN94@LoadFloat_@2
  00044	b1 eb		 mov	 cl, -21			; ffffffebH
  00046	32 d1		 xor	 dl, cl
  00048	88 55 e6	 mov	 BYTE PTR __k$[ebp+2], dl
  0004b	8a 50 03	 mov	 dl, BYTE PTR [eax+3]
  0004e	84 d2		 test	 dl, dl
  00050	0f 84 96 01 00
	00		 je	 $LN93@LoadFloat_@2
  00056	80 f2 ea	 xor	 dl, -22			; ffffffeaH
  00059	88 55 e7	 mov	 BYTE PTR __k$[ebp+3], dl
  0005c	8a 50 04	 mov	 dl, BYTE PTR [eax+4]
  0005f	84 d2		 test	 dl, dl
  00061	0f 84 7f 01 00
	00		 je	 $LN92@LoadFloat_@2
  00067	80 f2 ed	 xor	 dl, -19			; ffffffedH
  0006a	88 55 e8	 mov	 BYTE PTR __k$[ebp+4], dl
  0006d	8a 50 05	 mov	 dl, BYTE PTR [eax+5]
  00070	84 d2		 test	 dl, dl
  00072	0f 84 69 01 00
	00		 je	 $LN91@LoadFloat_@2
  00078	32 d3		 xor	 dl, bl
  0007a	88 55 e9	 mov	 BYTE PTR __k$[ebp+5], dl
  0007d	8a 50 06	 mov	 dl, BYTE PTR [eax+6]
  00080	84 d2		 test	 dl, dl
  00082	0f 84 54 01 00
	00		 je	 $LN90@LoadFloat_@2
  00088	32 d1		 xor	 dl, cl
  0008a	88 55 ea	 mov	 BYTE PTR __k$[ebp+6], dl
  0008d	8a 50 07	 mov	 dl, BYTE PTR [eax+7]
  00090	84 d2		 test	 dl, dl
  00092	0f 84 3e 01 00
	00		 je	 $LN89@LoadFloat_@2
  00098	80 f2 ea	 xor	 dl, -22			; ffffffeaH
  0009b	88 55 eb	 mov	 BYTE PTR __k$[ebp+7], dl
  0009e	8a 50 08	 mov	 dl, BYTE PTR [eax+8]
  000a1	84 d2		 test	 dl, dl
  000a3	0f 84 27 01 00
	00		 je	 $LN88@LoadFloat_@2
  000a9	80 f2 ed	 xor	 dl, -19			; ffffffedH
  000ac	88 55 ec	 mov	 BYTE PTR __k$[ebp+8], dl
  000af	8a 50 09	 mov	 dl, BYTE PTR [eax+9]
  000b2	84 d2		 test	 dl, dl
  000b4	0f 84 11 01 00
	00		 je	 $LN87@LoadFloat_@2
  000ba	32 d3		 xor	 dl, bl
  000bc	88 55 ed	 mov	 BYTE PTR __k$[ebp+9], dl
  000bf	8a 50 0a	 mov	 dl, BYTE PTR [eax+10]
  000c2	84 d2		 test	 dl, dl
  000c4	0f 84 fc 00 00
	00		 je	 $LN86@LoadFloat_@2
  000ca	32 d1		 xor	 dl, cl
  000cc	88 55 ee	 mov	 BYTE PTR __k$[ebp+10], dl
  000cf	8a 50 0b	 mov	 dl, BYTE PTR [eax+11]
  000d2	84 d2		 test	 dl, dl
  000d4	0f 84 e6 00 00
	00		 je	 $LN85@LoadFloat_@2
  000da	80 f2 ea	 xor	 dl, -22			; ffffffeaH
  000dd	88 55 ef	 mov	 BYTE PTR __k$[ebp+11], dl
  000e0	8a 50 0c	 mov	 dl, BYTE PTR [eax+12]
  000e3	84 d2		 test	 dl, dl
  000e5	0f 84 cf 00 00
	00		 je	 $LN84@LoadFloat_@2
  000eb	80 f2 ed	 xor	 dl, -19			; ffffffedH
  000ee	88 55 f0	 mov	 BYTE PTR __k$[ebp+12], dl
  000f1	8a 50 0d	 mov	 dl, BYTE PTR [eax+13]
  000f4	84 d2		 test	 dl, dl
  000f6	0f 84 b9 00 00
	00		 je	 $LN83@LoadFloat_@2
  000fc	32 d3		 xor	 dl, bl
  000fe	88 55 f1	 mov	 BYTE PTR __k$[ebp+13], dl
  00101	8a 50 0e	 mov	 dl, BYTE PTR [eax+14]
  00104	84 d2		 test	 dl, dl
  00106	0f 84 a4 00 00
	00		 je	 $LN82@LoadFloat_@2
  0010c	32 d1		 xor	 dl, cl
  0010e	88 55 f2	 mov	 BYTE PTR __k$[ebp+14], dl
  00111	8a 50 0f	 mov	 dl, BYTE PTR [eax+15]
  00114	84 d2		 test	 dl, dl
  00116	0f 84 8e 00 00
	00		 je	 $LN81@LoadFloat_@2
  0011c	80 f2 ea	 xor	 dl, -22			; ffffffeaH
  0011f	88 55 f3	 mov	 BYTE PTR __k$[ebp+15], dl
  00122	8a 50 10	 mov	 dl, BYTE PTR [eax+16]
  00125	84 d2		 test	 dl, dl
  00127	74 7b		 je	 SHORT $LN80@LoadFloat_@2
  00129	80 f2 ed	 xor	 dl, -19			; ffffffedH
  0012c	88 55 f4	 mov	 BYTE PTR __k$[ebp+16], dl
  0012f	8a 50 11	 mov	 dl, BYTE PTR [eax+17]
  00132	84 d2		 test	 dl, dl
  00134	74 69		 je	 SHORT $LN79@LoadFloat_@2
  00136	32 d3		 xor	 dl, bl
  00138	88 55 f5	 mov	 BYTE PTR __k$[ebp+17], dl
  0013b	8a 50 12	 mov	 dl, BYTE PTR [eax+18]
  0013e	84 d2		 test	 dl, dl
  00140	74 58		 je	 SHORT $LN78@LoadFloat_@2
  00142	32 d1		 xor	 dl, cl
  00144	80 78 13 00	 cmp	 BYTE PTR [eax+19], 0
  00148	88 55 f6	 mov	 BYTE PTR __k$[ebp+18], dl
  0014b	0f 84 b1 00 00
	00		 je	 $LN1@LoadFloat_@2
  00151	8a 50 14	 mov	 dl, BYTE PTR [eax+20]
  00154	84 d2		 test	 dl, dl
  00156	74 3c		 je	 SHORT $LN76@LoadFloat_@2
  00158	80 f2 ed	 xor	 dl, -19			; ffffffedH
  0015b	88 55 f8	 mov	 BYTE PTR __k$[ebp+20], dl
  0015e	8a 50 15	 mov	 dl, BYTE PTR [eax+21]
  00161	84 d2		 test	 dl, dl
  00163	74 2a		 je	 SHORT $LN75@LoadFloat_@2
  00165	32 d3		 xor	 dl, bl
  00167	88 55 f9	 mov	 BYTE PTR __k$[ebp+21], dl
  0016a	8a 50 16	 mov	 dl, BYTE PTR [eax+22]
  0016d	84 d2		 test	 dl, dl
  0016f	74 19		 je	 SHORT $LN74@LoadFloat_@2
  00171	8a 40 17	 mov	 al, BYTE PTR [eax+23]
  00174	32 d1		 xor	 dl, cl
  00176	88 55 fa	 mov	 BYTE PTR __k$[ebp+22], dl
  00179	84 c0		 test	 al, al
  0017b	74 07		 je	 SHORT $LN73@LoadFloat_@2
  0017d	34 ea		 xor	 al, -22			; ffffffeaH
  0017f	88 45 fb	 mov	 BYTE PTR __k$[ebp+23], al
  00182	eb 7e		 jmp	 SHORT $LN1@LoadFloat_@2
$LN73@LoadFloat_@2:
  00184	c6 45 fb ea	 mov	 BYTE PTR __k$[ebp+23], -22 ; ffffffeaH
  00188	eb 78		 jmp	 SHORT $LN1@LoadFloat_@2
$LN74@LoadFloat_@2:
  0018a	88 4d fa	 mov	 BYTE PTR __k$[ebp+22], cl
  0018d	eb 73		 jmp	 SHORT $LN1@LoadFloat_@2
$LN75@LoadFloat_@2:
  0018f	88 5d f9	 mov	 BYTE PTR __k$[ebp+21], bl
  00192	eb 6e		 jmp	 SHORT $LN1@LoadFloat_@2
$LN76@LoadFloat_@2:
  00194	c6 45 f8 ed	 mov	 BYTE PTR __k$[ebp+20], -19 ; ffffffedH
  00198	eb 68		 jmp	 SHORT $LN1@LoadFloat_@2
$LN78@LoadFloat_@2:
  0019a	88 4d f6	 mov	 BYTE PTR __k$[ebp+18], cl
  0019d	eb 63		 jmp	 SHORT $LN1@LoadFloat_@2
$LN79@LoadFloat_@2:
  0019f	88 5d f5	 mov	 BYTE PTR __k$[ebp+17], bl
  001a2	eb 5e		 jmp	 SHORT $LN1@LoadFloat_@2
$LN80@LoadFloat_@2:
  001a4	c6 45 f4 ed	 mov	 BYTE PTR __k$[ebp+16], -19 ; ffffffedH
  001a8	eb 58		 jmp	 SHORT $LN1@LoadFloat_@2
$LN81@LoadFloat_@2:
  001aa	c6 45 f3 ea	 mov	 BYTE PTR __k$[ebp+15], -22 ; ffffffeaH
  001ae	eb 52		 jmp	 SHORT $LN1@LoadFloat_@2
$LN82@LoadFloat_@2:
  001b0	88 4d f2	 mov	 BYTE PTR __k$[ebp+14], cl
  001b3	eb 4d		 jmp	 SHORT $LN1@LoadFloat_@2
$LN83@LoadFloat_@2:
  001b5	88 5d f1	 mov	 BYTE PTR __k$[ebp+13], bl
  001b8	eb 48		 jmp	 SHORT $LN1@LoadFloat_@2
$LN84@LoadFloat_@2:
  001ba	c6 45 f0 ed	 mov	 BYTE PTR __k$[ebp+12], -19 ; ffffffedH
  001be	eb 42		 jmp	 SHORT $LN1@LoadFloat_@2
$LN85@LoadFloat_@2:
  001c0	c6 45 ef ea	 mov	 BYTE PTR __k$[ebp+11], -22 ; ffffffeaH
  001c4	eb 3c		 jmp	 SHORT $LN1@LoadFloat_@2
$LN86@LoadFloat_@2:
  001c6	88 4d ee	 mov	 BYTE PTR __k$[ebp+10], cl
  001c9	eb 37		 jmp	 SHORT $LN1@LoadFloat_@2
$LN87@LoadFloat_@2:
  001cb	88 5d ed	 mov	 BYTE PTR __k$[ebp+9], bl
  001ce	eb 32		 jmp	 SHORT $LN1@LoadFloat_@2
$LN88@LoadFloat_@2:
  001d0	c6 45 ec ed	 mov	 BYTE PTR __k$[ebp+8], -19 ; ffffffedH
  001d4	eb 2c		 jmp	 SHORT $LN1@LoadFloat_@2
$LN89@LoadFloat_@2:
  001d6	c6 45 eb ea	 mov	 BYTE PTR __k$[ebp+7], -22 ; ffffffeaH
  001da	eb 26		 jmp	 SHORT $LN1@LoadFloat_@2
$LN90@LoadFloat_@2:
  001dc	88 4d ea	 mov	 BYTE PTR __k$[ebp+6], cl
  001df	eb 21		 jmp	 SHORT $LN1@LoadFloat_@2
$LN91@LoadFloat_@2:
  001e1	88 5d e9	 mov	 BYTE PTR __k$[ebp+5], bl
  001e4	eb 1c		 jmp	 SHORT $LN1@LoadFloat_@2
$LN92@LoadFloat_@2:
  001e6	c6 45 e8 ed	 mov	 BYTE PTR __k$[ebp+4], -19 ; ffffffedH
  001ea	eb 16		 jmp	 SHORT $LN1@LoadFloat_@2
$LN93@LoadFloat_@2:
  001ec	c6 45 e7 ea	 mov	 BYTE PTR __k$[ebp+3], -22 ; ffffffeaH
  001f0	eb 10		 jmp	 SHORT $LN1@LoadFloat_@2
$LN94@LoadFloat_@2:
  001f2	c6 45 e6 eb	 mov	 BYTE PTR __k$[ebp+2], -21 ; ffffffebH
  001f6	eb 0a		 jmp	 SHORT $LN1@LoadFloat_@2
$LN95@LoadFloat_@2:
  001f8	c6 45 e5 ec	 mov	 BYTE PTR __k$[ebp+1], -20 ; ffffffecH
  001fc	eb 04		 jmp	 SHORT $LN1@LoadFloat_@2
$LN96@LoadFloat_@2:
  001fe	c6 45 e4 ed	 mov	 BYTE PTR __k$[ebp], -19	; ffffffedH
$LN1@LoadFloat_@2:
  00202	6a 04		 push	 4
  00204	8d 45 e4	 lea	 eax, DWORD PTR __k$[ebp]
  00207	c6 45 f7 00	 mov	 BYTE PTR __k$[ebp+19], 0
  0020b	5a		 pop	 edx
$LL104@LoadFloat_@2:
  0020c	81 30 ed ec eb
	ea		 xor	 DWORD PTR [eax], -353637139 ; eaebecedH
  00212	83 c0 04	 add	 eax, 4
  00215	4a		 dec	 edx
  00216	75 f4		 jne	 SHORT $LL104@LoadFloat_@2
  00218	6a 10		 push	 16			; 00000010H
  0021a	58		 pop	 eax
$LL101@LoadFloat_@2:
  0021b	8b c8		 mov	 ecx, eax
  0021d	81 e1 03 00 00
	80		 and	 ecx, -2147483645	; 80000003H
  00223	79 05		 jns	 SHORT $LN111@LoadFloat_@2
  00225	49		 dec	 ecx
  00226	83 c9 fc	 or	 ecx, -4			; fffffffcH
  00229	41		 inc	 ecx
$LN111@LoadFloat_@2:
  0022a	b2 ed		 mov	 dl, -19			; ffffffedH
  0022c	2a d1		 sub	 dl, cl
  0022e	30 54 05 e4	 xor	 BYTE PTR __k$[ebp+eax], dl
  00232	40		 inc	 eax
  00233	83 f8 13	 cmp	 eax, 19			; 00000013H
  00236	7c e3		 jl	 SHORT $LL101@LoadFloat_@2

; 137  : 		return LoadFloat(_k, f);

  00238	f3 0f 10 45 0c	 movss	 xmm0, DWORD PTR _f$[ebp]
  0023d	51		 push	 ecx
  0023e	8d 45 e4	 lea	 eax, DWORD PTR __k$[ebp]
  00241	f3 0f 11 04 24	 movss	 DWORD PTR [esp], xmm0
  00246	50		 push	 eax
  00247	8b ce		 mov	 ecx, esi
  00249	ff 15 00 00 00
	00		 call	 DWORD PTR __imp_?LoadFloat@ioINILoader@@QAEMPBDM@Z

; 138  : 	}

  0024f	8b 4d fc	 mov	 ecx, DWORD PTR __$ArrayPad$[ebp]
  00252	5e		 pop	 esi
  00253	33 cd		 xor	 ecx, ebp
  00255	5b		 pop	 ebx
  00256	e8 00 00 00 00	 call	 @__security_check_cookie@4
  0025b	c9		 leave
  0025c	c2 08 00	 ret	 8
??$LoadFloat_e@$0BE@@ioINILoader@@QAEMAAY0BE@$$CBDM@Z ENDP ; ioINILoader::LoadFloat_e<20>
_TEXT	ENDS
PUBLIC	__$ArrayPad$
PUBLIC	??$LoadFloat_e@$0BA@@ioINILoader@@QAEMAAY0BA@$$CBDM@Z ; ioINILoader::LoadFloat_e<16>
; Function compile flags: /Ogsp
;	COMDAT ??$LoadFloat_e@$0BA@@ioINILoader@@QAEMAAY0BA@$$CBDM@Z
_TEXT	SEGMENT
__k$ = -24						; size = 16
__$ArrayPad$ = -4					; size = 4
_k$ = 8							; size = 4
_f$ = 12						; size = 4
??$LoadFloat_e@$0BA@@ioINILoader@@QAEMAAY0BA@$$CBDM@Z PROC ; ioINILoader::LoadFloat_e<16>, COMDAT
; _this$ = ecx

; 135  : 	{

  00000	55		 push	 ebp
  00001	8b ec		 mov	 ebp, esp
  00003	83 ec 18	 sub	 esp, 24			; 00000018H
  00006	a1 00 00 00 00	 mov	 eax, DWORD PTR ___security_cookie
  0000b	33 c5		 xor	 eax, ebp
  0000d	89 45 fc	 mov	 DWORD PTR __$ArrayPad$[ebp], eax
  00010	8b 45 08	 mov	 eax, DWORD PTR _k$[ebp]

; 136  : 		_ENCSTR(k, _k);

  00013	8a 10		 mov	 dl, BYTE PTR [eax]
  00015	56		 push	 esi
  00016	8b f1		 mov	 esi, ecx
  00018	84 d2		 test	 dl, dl
  0001a	0f 84 8c 01 00
	00		 je	 $LN96@LoadFloat_@3
  00020	80 f2 ed	 xor	 dl, -19			; ffffffedH
  00023	88 55 e8	 mov	 BYTE PTR __k$[ebp], dl
  00026	8a 50 01	 mov	 dl, BYTE PTR [eax+1]
  00029	84 d2		 test	 dl, dl
  0002b	0f 84 75 01 00
	00		 je	 $LN95@LoadFloat_@3
  00031	80 f2 ec	 xor	 dl, -20			; ffffffecH
  00034	88 55 e9	 mov	 BYTE PTR __k$[ebp+1], dl
  00037	8a 50 02	 mov	 dl, BYTE PTR [eax+2]
  0003a	84 d2		 test	 dl, dl
  0003c	0f 84 5e 01 00
	00		 je	 $LN94@LoadFloat_@3
  00042	b1 eb		 mov	 cl, -21			; ffffffebH
  00044	32 d1		 xor	 dl, cl
  00046	88 55 ea	 mov	 BYTE PTR __k$[ebp+2], dl
  00049	8a 50 03	 mov	 dl, BYTE PTR [eax+3]
  0004c	84 d2		 test	 dl, dl
  0004e	0f 84 46 01 00
	00		 je	 $LN93@LoadFloat_@3
  00054	80 f2 ea	 xor	 dl, -22			; ffffffeaH
  00057	88 55 eb	 mov	 BYTE PTR __k$[ebp+3], dl
  0005a	8a 50 04	 mov	 dl, BYTE PTR [eax+4]
  0005d	84 d2		 test	 dl, dl
  0005f	0f 84 2f 01 00
	00		 je	 $LN92@LoadFloat_@3
  00065	80 f2 ed	 xor	 dl, -19			; ffffffedH
  00068	88 55 ec	 mov	 BYTE PTR __k$[ebp+4], dl
  0006b	8a 50 05	 mov	 dl, BYTE PTR [eax+5]
  0006e	84 d2		 test	 dl, dl
  00070	0f 84 18 01 00
	00		 je	 $LN91@LoadFloat_@3
  00076	80 f2 ec	 xor	 dl, -20			; ffffffecH
  00079	88 55 ed	 mov	 BYTE PTR __k$[ebp+5], dl
  0007c	8a 50 06	 mov	 dl, BYTE PTR [eax+6]
  0007f	84 d2		 test	 dl, dl
  00081	0f 84 02 01 00
	00		 je	 $LN90@LoadFloat_@3
  00087	32 d1		 xor	 dl, cl
  00089	88 55 ee	 mov	 BYTE PTR __k$[ebp+6], dl
  0008c	8a 50 07	 mov	 dl, BYTE PTR [eax+7]
  0008f	84 d2		 test	 dl, dl
  00091	0f 84 ec 00 00
	00		 je	 $LN89@LoadFloat_@3
  00097	80 f2 ea	 xor	 dl, -22			; ffffffeaH
  0009a	88 55 ef	 mov	 BYTE PTR __k$[ebp+7], dl
  0009d	8a 50 08	 mov	 dl, BYTE PTR [eax+8]
  000a0	84 d2		 test	 dl, dl
  000a2	0f 84 d5 00 00
	00		 je	 $LN88@LoadFloat_@3
  000a8	80 f2 ed	 xor	 dl, -19			; ffffffedH
  000ab	88 55 f0	 mov	 BYTE PTR __k$[ebp+8], dl
  000ae	8a 50 09	 mov	 dl, BYTE PTR [eax+9]
  000b1	84 d2		 test	 dl, dl
  000b3	0f 84 be 00 00
	00		 je	 $LN87@LoadFloat_@3
  000b9	80 f2 ec	 xor	 dl, -20			; ffffffecH
  000bc	88 55 f1	 mov	 BYTE PTR __k$[ebp+9], dl
  000bf	8a 50 0a	 mov	 dl, BYTE PTR [eax+10]
  000c2	84 d2		 test	 dl, dl
  000c4	0f 84 a8 00 00
	00		 je	 $LN86@LoadFloat_@3
  000ca	32 d1		 xor	 dl, cl
  000cc	88 55 f2	 mov	 BYTE PTR __k$[ebp+10], dl
  000cf	8a 50 0b	 mov	 dl, BYTE PTR [eax+11]
  000d2	84 d2		 test	 dl, dl
  000d4	0f 84 92 00 00
	00		 je	 $LN85@LoadFloat_@3
  000da	80 f2 ea	 xor	 dl, -22			; ffffffeaH
  000dd	88 55 f3	 mov	 BYTE PTR __k$[ebp+11], dl
  000e0	8a 50 0c	 mov	 dl, BYTE PTR [eax+12]
  000e3	84 d2		 test	 dl, dl
  000e5	74 7f		 je	 SHORT $LN84@LoadFloat_@3
  000e7	80 f2 ed	 xor	 dl, -19			; ffffffedH
  000ea	88 55 f4	 mov	 BYTE PTR __k$[ebp+12], dl
  000ed	8a 50 0d	 mov	 dl, BYTE PTR [eax+13]
  000f0	84 d2		 test	 dl, dl
  000f2	74 6c		 je	 SHORT $LN83@LoadFloat_@3
  000f4	80 f2 ec	 xor	 dl, -20			; ffffffecH
  000f7	88 55 f5	 mov	 BYTE PTR __k$[ebp+13], dl
  000fa	8a 50 0e	 mov	 dl, BYTE PTR [eax+14]
  000fd	84 d2		 test	 dl, dl
  000ff	74 5a		 je	 SHORT $LN82@LoadFloat_@3
  00101	32 d1		 xor	 dl, cl
  00103	80 78 0f 00	 cmp	 BYTE PTR [eax+15], 0
  00107	88 55 f6	 mov	 BYTE PTR __k$[ebp+14], dl
  0010a	0f 84 a0 00 00
	00		 je	 $LN1@LoadFloat_@3
  00110	8a 50 10	 mov	 dl, BYTE PTR [eax+16]
  00113	84 d2		 test	 dl, dl
  00115	74 3e		 je	 SHORT $LN80@LoadFloat_@3
  00117	80 f2 ed	 xor	 dl, -19			; ffffffedH
  0011a	88 55 f8	 mov	 BYTE PTR __k$[ebp+16], dl
  0011d	8a 50 11	 mov	 dl, BYTE PTR [eax+17]
  00120	84 d2		 test	 dl, dl
  00122	74 2b		 je	 SHORT $LN79@LoadFloat_@3
  00124	80 f2 ec	 xor	 dl, -20			; ffffffecH
  00127	88 55 f9	 mov	 BYTE PTR __k$[ebp+17], dl
  0012a	8a 50 12	 mov	 dl, BYTE PTR [eax+18]
  0012d	84 d2		 test	 dl, dl
  0012f	74 19		 je	 SHORT $LN78@LoadFloat_@3
  00131	8a 40 13	 mov	 al, BYTE PTR [eax+19]
  00134	32 d1		 xor	 dl, cl
  00136	88 55 fa	 mov	 BYTE PTR __k$[ebp+18], dl
  00139	84 c0		 test	 al, al
  0013b	74 07		 je	 SHORT $LN77@LoadFloat_@3
  0013d	34 ea		 xor	 al, -22			; ffffffeaH
  0013f	88 45 fb	 mov	 BYTE PTR __k$[ebp+19], al
  00142	eb 6c		 jmp	 SHORT $LN1@LoadFloat_@3
$LN77@LoadFloat_@3:
  00144	c6 45 fb ea	 mov	 BYTE PTR __k$[ebp+19], -22 ; ffffffeaH
  00148	eb 66		 jmp	 SHORT $LN1@LoadFloat_@3
$LN78@LoadFloat_@3:
  0014a	88 4d fa	 mov	 BYTE PTR __k$[ebp+18], cl
  0014d	eb 61		 jmp	 SHORT $LN1@LoadFloat_@3
$LN79@LoadFloat_@3:
  0014f	c6 45 f9 ec	 mov	 BYTE PTR __k$[ebp+17], -20 ; ffffffecH
  00153	eb 5b		 jmp	 SHORT $LN1@LoadFloat_@3
$LN80@LoadFloat_@3:
  00155	c6 45 f8 ed	 mov	 BYTE PTR __k$[ebp+16], -19 ; ffffffedH
  00159	eb 55		 jmp	 SHORT $LN1@LoadFloat_@3
$LN82@LoadFloat_@3:
  0015b	88 4d f6	 mov	 BYTE PTR __k$[ebp+14], cl
  0015e	eb 50		 jmp	 SHORT $LN1@LoadFloat_@3
$LN83@LoadFloat_@3:
  00160	c6 45 f5 ec	 mov	 BYTE PTR __k$[ebp+13], -20 ; ffffffecH
  00164	eb 4a		 jmp	 SHORT $LN1@LoadFloat_@3
$LN84@LoadFloat_@3:
  00166	c6 45 f4 ed	 mov	 BYTE PTR __k$[ebp+12], -19 ; ffffffedH
  0016a	eb 44		 jmp	 SHORT $LN1@LoadFloat_@3
$LN85@LoadFloat_@3:
  0016c	c6 45 f3 ea	 mov	 BYTE PTR __k$[ebp+11], -22 ; ffffffeaH
  00170	eb 3e		 jmp	 SHORT $LN1@LoadFloat_@3
$LN86@LoadFloat_@3:
  00172	88 4d f2	 mov	 BYTE PTR __k$[ebp+10], cl
  00175	eb 39		 jmp	 SHORT $LN1@LoadFloat_@3
$LN87@LoadFloat_@3:
  00177	c6 45 f1 ec	 mov	 BYTE PTR __k$[ebp+9], -20 ; ffffffecH
  0017b	eb 33		 jmp	 SHORT $LN1@LoadFloat_@3
$LN88@LoadFloat_@3:
  0017d	c6 45 f0 ed	 mov	 BYTE PTR __k$[ebp+8], -19 ; ffffffedH
  00181	eb 2d		 jmp	 SHORT $LN1@LoadFloat_@3
$LN89@LoadFloat_@3:
  00183	c6 45 ef ea	 mov	 BYTE PTR __k$[ebp+7], -22 ; ffffffeaH
  00187	eb 27		 jmp	 SHORT $LN1@LoadFloat_@3
$LN90@LoadFloat_@3:
  00189	88 4d ee	 mov	 BYTE PTR __k$[ebp+6], cl
  0018c	eb 22		 jmp	 SHORT $LN1@LoadFloat_@3
$LN91@LoadFloat_@3:
  0018e	c6 45 ed ec	 mov	 BYTE PTR __k$[ebp+5], -20 ; ffffffecH
  00192	eb 1c		 jmp	 SHORT $LN1@LoadFloat_@3
$LN92@LoadFloat_@3:
  00194	c6 45 ec ed	 mov	 BYTE PTR __k$[ebp+4], -19 ; ffffffedH
  00198	eb 16		 jmp	 SHORT $LN1@LoadFloat_@3
$LN93@LoadFloat_@3:
  0019a	c6 45 eb ea	 mov	 BYTE PTR __k$[ebp+3], -22 ; ffffffeaH
  0019e	eb 10		 jmp	 SHORT $LN1@LoadFloat_@3
$LN94@LoadFloat_@3:
  001a0	c6 45 ea eb	 mov	 BYTE PTR __k$[ebp+2], -21 ; ffffffebH
  001a4	eb 0a		 jmp	 SHORT $LN1@LoadFloat_@3
$LN95@LoadFloat_@3:
  001a6	c6 45 e9 ec	 mov	 BYTE PTR __k$[ebp+1], -20 ; ffffffecH
  001aa	eb 04		 jmp	 SHORT $LN1@LoadFloat_@3
$LN96@LoadFloat_@3:
  001ac	c6 45 e8 ed	 mov	 BYTE PTR __k$[ebp], -19	; ffffffedH
$LN1@LoadFloat_@3:
  001b0	6a 03		 push	 3
  001b2	8d 45 e8	 lea	 eax, DWORD PTR __k$[ebp]
  001b5	c6 45 f7 00	 mov	 BYTE PTR __k$[ebp+15], 0
  001b9	5a		 pop	 edx
$LL104@LoadFloat_@3:
  001ba	81 30 ed ec eb
	ea		 xor	 DWORD PTR [eax], -353637139 ; eaebecedH
  001c0	83 c0 04	 add	 eax, 4
  001c3	4a		 dec	 edx
  001c4	75 f4		 jne	 SHORT $LL104@LoadFloat_@3
  001c6	6a 0c		 push	 12			; 0000000cH
  001c8	58		 pop	 eax
$LL101@LoadFloat_@3:
  001c9	8b c8		 mov	 ecx, eax
  001cb	81 e1 03 00 00
	80		 and	 ecx, -2147483645	; 80000003H
  001d1	79 05		 jns	 SHORT $LN111@LoadFloat_@3
  001d3	49		 dec	 ecx
  001d4	83 c9 fc	 or	 ecx, -4			; fffffffcH
  001d7	41		 inc	 ecx
$LN111@LoadFloat_@3:
  001d8	b2 ed		 mov	 dl, -19			; ffffffedH
  001da	2a d1		 sub	 dl, cl
  001dc	30 54 05 e8	 xor	 BYTE PTR __k$[ebp+eax], dl
  001e0	40		 inc	 eax
  001e1	83 f8 0f	 cmp	 eax, 15			; 0000000fH
  001e4	7c e3		 jl	 SHORT $LL101@LoadFloat_@3

; 137  : 		return LoadFloat(_k, f);

  001e6	f3 0f 10 45 0c	 movss	 xmm0, DWORD PTR _f$[ebp]
  001eb	51		 push	 ecx
  001ec	8d 45 e8	 lea	 eax, DWORD PTR __k$[ebp]
  001ef	f3 0f 11 04 24	 movss	 DWORD PTR [esp], xmm0
  001f4	50		 push	 eax
  001f5	8b ce		 mov	 ecx, esi
  001f7	ff 15 00 00 00
	00		 call	 DWORD PTR __imp_?LoadFloat@ioINILoader@@QAEMPBDM@Z

; 138  : 	}

  001fd	8b 4d fc	 mov	 ecx, DWORD PTR __$ArrayPad$[ebp]
  00200	33 cd		 xor	 ecx, ebp
  00202	5e		 pop	 esi
  00203	e8 00 00 00 00	 call	 @__security_check_cookie@4
  00208	c9		 leave
  00209	c2 08 00	 ret	 8
??$LoadFloat_e@$0BA@@ioINILoader@@QAEMAAY0BA@$$CBDM@Z ENDP ; ioINILoader::LoadFloat_e<16>
_TEXT	ENDS
PUBLIC	__$ArrayPad$
PUBLIC	??$LoadInt_e@$0L@@ioINILoader@@QAEHAAY0L@$$CBDH@Z ; ioINILoader::LoadInt_e<11>
EXTRN	__imp_?LoadInt@ioINILoader@@QAEHPBDH@Z:PROC
; Function compile flags: /Ogsp
;	COMDAT ??$LoadInt_e@$0L@@ioINILoader@@QAEHAAY0L@$$CBDH@Z
_TEXT	SEGMENT
__k$ = -20						; size = 11
__$ArrayPad$ = -4					; size = 4
_k$ = 8							; size = 4
_i$ = 12						; size = 4
??$LoadInt_e@$0L@@ioINILoader@@QAEHAAY0L@$$CBDH@Z PROC	; ioINILoader::LoadInt_e<11>, COMDAT
; _this$ = ecx

; 118  : 	{

  00000	55		 push	 ebp
  00001	8b ec		 mov	 ebp, esp
  00003	83 ec 14	 sub	 esp, 20			; 00000014H
  00006	a1 00 00 00 00	 mov	 eax, DWORD PTR ___security_cookie
  0000b	33 c5		 xor	 eax, ebp
  0000d	89 45 fc	 mov	 DWORD PTR __$ArrayPad$[ebp], eax
  00010	8b 45 08	 mov	 eax, DWORD PTR _k$[ebp]

; 119  : 		_ENCSTR(k, _k);

  00013	8a 10		 mov	 dl, BYTE PTR [eax]
  00015	56		 push	 esi
  00016	8b f1		 mov	 esi, ecx
  00018	84 d2		 test	 dl, dl
  0001a	0f 84 24 01 00
	00		 je	 $LN96@LoadInt_e
  00020	80 f2 ed	 xor	 dl, -19			; ffffffedH
  00023	88 55 ec	 mov	 BYTE PTR __k$[ebp], dl
  00026	8a 50 01	 mov	 dl, BYTE PTR [eax+1]
  00029	84 d2		 test	 dl, dl
  0002b	0f 84 0d 01 00
	00		 je	 $LN95@LoadInt_e
  00031	80 f2 ec	 xor	 dl, -20			; ffffffecH
  00034	88 55 ed	 mov	 BYTE PTR __k$[ebp+1], dl
  00037	8a 50 02	 mov	 dl, BYTE PTR [eax+2]
  0003a	84 d2		 test	 dl, dl
  0003c	0f 84 f6 00 00
	00		 je	 $LN94@LoadInt_e
  00042	80 f2 eb	 xor	 dl, -21			; ffffffebH
  00045	88 55 ee	 mov	 BYTE PTR __k$[ebp+2], dl
  00048	8a 50 03	 mov	 dl, BYTE PTR [eax+3]
  0004b	84 d2		 test	 dl, dl
  0004d	0f 84 df 00 00
	00		 je	 $LN93@LoadInt_e
  00053	80 f2 ea	 xor	 dl, -22			; ffffffeaH
  00056	88 55 ef	 mov	 BYTE PTR __k$[ebp+3], dl
  00059	8a 50 04	 mov	 dl, BYTE PTR [eax+4]
  0005c	84 d2		 test	 dl, dl
  0005e	0f 84 c8 00 00
	00		 je	 $LN92@LoadInt_e
  00064	80 f2 ed	 xor	 dl, -19			; ffffffedH
  00067	88 55 f0	 mov	 BYTE PTR __k$[ebp+4], dl
  0006a	8a 50 05	 mov	 dl, BYTE PTR [eax+5]
  0006d	84 d2		 test	 dl, dl
  0006f	0f 84 b1 00 00
	00		 je	 $LN91@LoadInt_e
  00075	80 f2 ec	 xor	 dl, -20			; ffffffecH
  00078	88 55 f1	 mov	 BYTE PTR __k$[ebp+5], dl
  0007b	8a 50 06	 mov	 dl, BYTE PTR [eax+6]
  0007e	84 d2		 test	 dl, dl
  00080	0f 84 9a 00 00
	00		 je	 $LN90@LoadInt_e
  00086	80 f2 eb	 xor	 dl, -21			; ffffffebH
  00089	88 55 f2	 mov	 BYTE PTR __k$[ebp+6], dl
  0008c	8a 50 07	 mov	 dl, BYTE PTR [eax+7]
  0008f	84 d2		 test	 dl, dl
  00091	0f 84 83 00 00
	00		 je	 $LN89@LoadInt_e
  00097	80 f2 ea	 xor	 dl, -22			; ffffffeaH
  0009a	88 55 f3	 mov	 BYTE PTR __k$[ebp+7], dl
  0009d	8a 50 08	 mov	 dl, BYTE PTR [eax+8]
  000a0	84 d2		 test	 dl, dl
  000a2	74 70		 je	 SHORT $LN88@LoadInt_e
  000a4	80 f2 ed	 xor	 dl, -19			; ffffffedH
  000a7	88 55 f4	 mov	 BYTE PTR __k$[ebp+8], dl
  000aa	8a 50 09	 mov	 dl, BYTE PTR [eax+9]
  000ad	84 d2		 test	 dl, dl
  000af	74 5d		 je	 SHORT $LN87@LoadInt_e
  000b1	80 f2 ec	 xor	 dl, -20			; ffffffecH
  000b4	80 78 0a 00	 cmp	 BYTE PTR [eax+10], 0
  000b8	88 55 f5	 mov	 BYTE PTR __k$[ebp+9], dl
  000bb	0f 84 87 00 00
	00		 je	 $LN1@LoadInt_e
  000c1	8a 50 0b	 mov	 dl, BYTE PTR [eax+11]
  000c4	84 d2		 test	 dl, dl
  000c6	74 40		 je	 SHORT $LN85@LoadInt_e
  000c8	80 f2 ea	 xor	 dl, -22			; ffffffeaH
  000cb	88 55 f7	 mov	 BYTE PTR __k$[ebp+11], dl
  000ce	8a 50 0c	 mov	 dl, BYTE PTR [eax+12]
  000d1	84 d2		 test	 dl, dl
  000d3	74 2d		 je	 SHORT $LN84@LoadInt_e
  000d5	80 f2 ed	 xor	 dl, -19			; ffffffedH
  000d8	88 55 f8	 mov	 BYTE PTR __k$[ebp+12], dl
  000db	8a 50 0d	 mov	 dl, BYTE PTR [eax+13]
  000de	84 d2		 test	 dl, dl
  000e0	74 1a		 je	 SHORT $LN83@LoadInt_e
  000e2	8a 40 0e	 mov	 al, BYTE PTR [eax+14]
  000e5	80 f2 ec	 xor	 dl, -20			; ffffffecH
  000e8	88 55 f9	 mov	 BYTE PTR __k$[ebp+13], dl
  000eb	84 c0		 test	 al, al
  000ed	74 07		 je	 SHORT $LN82@LoadInt_e
  000ef	34 eb		 xor	 al, -21			; ffffffebH
  000f1	88 45 fa	 mov	 BYTE PTR __k$[ebp+14], al
  000f4	eb 52		 jmp	 SHORT $LN1@LoadInt_e
$LN82@LoadInt_e:
  000f6	c6 45 fa eb	 mov	 BYTE PTR __k$[ebp+14], -21 ; ffffffebH
  000fa	eb 4c		 jmp	 SHORT $LN1@LoadInt_e
$LN83@LoadInt_e:
  000fc	c6 45 f9 ec	 mov	 BYTE PTR __k$[ebp+13], -20 ; ffffffecH
  00100	eb 46		 jmp	 SHORT $LN1@LoadInt_e
$LN84@LoadInt_e:
  00102	c6 45 f8 ed	 mov	 BYTE PTR __k$[ebp+12], -19 ; ffffffedH
  00106	eb 40		 jmp	 SHORT $LN1@LoadInt_e
$LN85@LoadInt_e:
  00108	c6 45 f7 ea	 mov	 BYTE PTR __k$[ebp+11], -22 ; ffffffeaH
  0010c	eb 3a		 jmp	 SHORT $LN1@LoadInt_e
$LN87@LoadInt_e:
  0010e	c6 45 f5 ec	 mov	 BYTE PTR __k$[ebp+9], -20 ; ffffffecH
  00112	eb 34		 jmp	 SHORT $LN1@LoadInt_e
$LN88@LoadInt_e:
  00114	c6 45 f4 ed	 mov	 BYTE PTR __k$[ebp+8], -19 ; ffffffedH
  00118	eb 2e		 jmp	 SHORT $LN1@LoadInt_e
$LN89@LoadInt_e:
  0011a	c6 45 f3 ea	 mov	 BYTE PTR __k$[ebp+7], -22 ; ffffffeaH
  0011e	eb 28		 jmp	 SHORT $LN1@LoadInt_e
$LN90@LoadInt_e:
  00120	c6 45 f2 eb	 mov	 BYTE PTR __k$[ebp+6], -21 ; ffffffebH
  00124	eb 22		 jmp	 SHORT $LN1@LoadInt_e
$LN91@LoadInt_e:
  00126	c6 45 f1 ec	 mov	 BYTE PTR __k$[ebp+5], -20 ; ffffffecH
  0012a	eb 1c		 jmp	 SHORT $LN1@LoadInt_e
$LN92@LoadInt_e:
  0012c	c6 45 f0 ed	 mov	 BYTE PTR __k$[ebp+4], -19 ; ffffffedH
  00130	eb 16		 jmp	 SHORT $LN1@LoadInt_e
$LN93@LoadInt_e:
  00132	c6 45 ef ea	 mov	 BYTE PTR __k$[ebp+3], -22 ; ffffffeaH
  00136	eb 10		 jmp	 SHORT $LN1@LoadInt_e
$LN94@LoadInt_e:
  00138	c6 45 ee eb	 mov	 BYTE PTR __k$[ebp+2], -21 ; ffffffebH
  0013c	eb 0a		 jmp	 SHORT $LN1@LoadInt_e
$LN95@LoadInt_e:
  0013e	c6 45 ed ec	 mov	 BYTE PTR __k$[ebp+1], -20 ; ffffffecH
  00142	eb 04		 jmp	 SHORT $LN1@LoadInt_e
$LN96@LoadInt_e:
  00144	c6 45 ec ed	 mov	 BYTE PTR __k$[ebp], -19	; ffffffedH
$LN1@LoadInt_e:
  00148	6a 02		 push	 2
  0014a	8d 45 ec	 lea	 eax, DWORD PTR __k$[ebp]
  0014d	c6 45 f6 00	 mov	 BYTE PTR __k$[ebp+10], 0
  00151	5a		 pop	 edx
$LL104@LoadInt_e:
  00152	81 30 ed ec eb
	ea		 xor	 DWORD PTR [eax], -353637139 ; eaebecedH
  00158	83 c0 04	 add	 eax, 4
  0015b	4a		 dec	 edx
  0015c	75 f4		 jne	 SHORT $LL104@LoadInt_e
  0015e	6a 08		 push	 8
  00160	58		 pop	 eax
$LL101@LoadInt_e:
  00161	8b c8		 mov	 ecx, eax
  00163	81 e1 03 00 00
	80		 and	 ecx, -2147483645	; 80000003H
  00169	79 05		 jns	 SHORT $LN111@LoadInt_e
  0016b	49		 dec	 ecx
  0016c	83 c9 fc	 or	 ecx, -4			; fffffffcH
  0016f	41		 inc	 ecx
$LN111@LoadInt_e:
  00170	b2 ed		 mov	 dl, -19			; ffffffedH
  00172	2a d1		 sub	 dl, cl
  00174	30 54 05 ec	 xor	 BYTE PTR __k$[ebp+eax], dl
  00178	40		 inc	 eax
  00179	83 f8 0a	 cmp	 eax, 10			; 0000000aH
  0017c	7c e3		 jl	 SHORT $LL101@LoadInt_e

; 120  : 		return LoadInt(_k, i);

  0017e	ff 75 0c	 push	 DWORD PTR _i$[ebp]
  00181	8d 45 ec	 lea	 eax, DWORD PTR __k$[ebp]
  00184	50		 push	 eax
  00185	8b ce		 mov	 ecx, esi
  00187	ff 15 00 00 00
	00		 call	 DWORD PTR __imp_?LoadInt@ioINILoader@@QAEHPBDH@Z

; 121  : 	}

  0018d	8b 4d fc	 mov	 ecx, DWORD PTR __$ArrayPad$[ebp]
  00190	33 cd		 xor	 ecx, ebp
  00192	5e		 pop	 esi
  00193	e8 00 00 00 00	 call	 @__security_check_cookie@4
  00198	c9		 leave
  00199	c2 08 00	 ret	 8
??$LoadInt_e@$0L@@ioINILoader@@QAEHAAY0L@$$CBDH@Z ENDP	; ioINILoader::LoadInt_e<11>
_TEXT	ENDS
PUBLIC	__$ArrayPad$
PUBLIC	??$LoadInt_e@$0M@@ioINILoader@@QAEHAAY0M@$$CBDH@Z ; ioINILoader::LoadInt_e<12>
; Function compile flags: /Ogsp
;	COMDAT ??$LoadInt_e@$0M@@ioINILoader@@QAEHAAY0M@$$CBDH@Z
_TEXT	SEGMENT
__k$ = -20						; size = 12
__$ArrayPad$ = -4					; size = 4
_k$ = 8							; size = 4
_i$ = 12						; size = 4
??$LoadInt_e@$0M@@ioINILoader@@QAEHAAY0M@$$CBDH@Z PROC	; ioINILoader::LoadInt_e<12>, COMDAT
; _this$ = ecx

; 118  : 	{

  00000	55		 push	 ebp
  00001	8b ec		 mov	 ebp, esp
  00003	83 ec 14	 sub	 esp, 20			; 00000014H
  00006	a1 00 00 00 00	 mov	 eax, DWORD PTR ___security_cookie
  0000b	33 c5		 xor	 eax, ebp
  0000d	89 45 fc	 mov	 DWORD PTR __$ArrayPad$[ebp], eax
  00010	8b 45 08	 mov	 eax, DWORD PTR _k$[ebp]

; 119  : 		_ENCSTR(k, _k);

  00013	8a 10		 mov	 dl, BYTE PTR [eax]
  00015	56		 push	 esi
  00016	8b f1		 mov	 esi, ecx
  00018	84 d2		 test	 dl, dl
  0001a	0f 84 32 01 00
	00		 je	 $LN96@LoadInt_e@2
  00020	80 f2 ed	 xor	 dl, -19			; ffffffedH
  00023	88 55 ec	 mov	 BYTE PTR __k$[ebp], dl
  00026	8a 50 01	 mov	 dl, BYTE PTR [eax+1]
  00029	84 d2		 test	 dl, dl
  0002b	0f 84 1b 01 00
	00		 je	 $LN95@LoadInt_e@2
  00031	80 f2 ec	 xor	 dl, -20			; ffffffecH
  00034	88 55 ed	 mov	 BYTE PTR __k$[ebp+1], dl
  00037	8a 50 02	 mov	 dl, BYTE PTR [eax+2]
  0003a	84 d2		 test	 dl, dl
  0003c	0f 84 04 01 00
	00		 je	 $LN94@LoadInt_e@2
  00042	b1 eb		 mov	 cl, -21			; ffffffebH
  00044	32 d1		 xor	 dl, cl
  00046	88 55 ee	 mov	 BYTE PTR __k$[ebp+2], dl
  00049	8a 50 03	 mov	 dl, BYTE PTR [eax+3]
  0004c	84 d2		 test	 dl, dl
  0004e	0f 84 ec 00 00
	00		 je	 $LN93@LoadInt_e@2
  00054	80 f2 ea	 xor	 dl, -22			; ffffffeaH
  00057	88 55 ef	 mov	 BYTE PTR __k$[ebp+3], dl
  0005a	8a 50 04	 mov	 dl, BYTE PTR [eax+4]
  0005d	84 d2		 test	 dl, dl
  0005f	0f 84 d5 00 00
	00		 je	 $LN92@LoadInt_e@2
  00065	80 f2 ed	 xor	 dl, -19			; ffffffedH
  00068	88 55 f0	 mov	 BYTE PTR __k$[ebp+4], dl
  0006b	8a 50 05	 mov	 dl, BYTE PTR [eax+5]
  0006e	84 d2		 test	 dl, dl
  00070	0f 84 be 00 00
	00		 je	 $LN91@LoadInt_e@2
  00076	80 f2 ec	 xor	 dl, -20			; ffffffecH
  00079	88 55 f1	 mov	 BYTE PTR __k$[ebp+5], dl
  0007c	8a 50 06	 mov	 dl, BYTE PTR [eax+6]
  0007f	84 d2		 test	 dl, dl
  00081	0f 84 a8 00 00
	00		 je	 $LN90@LoadInt_e@2
  00087	32 d1		 xor	 dl, cl
  00089	88 55 f2	 mov	 BYTE PTR __k$[ebp+6], dl
  0008c	8a 50 07	 mov	 dl, BYTE PTR [eax+7]
  0008f	84 d2		 test	 dl, dl
  00091	0f 84 92 00 00
	00		 je	 $LN89@LoadInt_e@2
  00097	80 f2 ea	 xor	 dl, -22			; ffffffeaH
  0009a	88 55 f3	 mov	 BYTE PTR __k$[ebp+7], dl
  0009d	8a 50 08	 mov	 dl, BYTE PTR [eax+8]
  000a0	84 d2		 test	 dl, dl
  000a2	74 7f		 je	 SHORT $LN88@LoadInt_e@2
  000a4	80 f2 ed	 xor	 dl, -19			; ffffffedH
  000a7	88 55 f4	 mov	 BYTE PTR __k$[ebp+8], dl
  000aa	8a 50 09	 mov	 dl, BYTE PTR [eax+9]
  000ad	84 d2		 test	 dl, dl
  000af	74 6c		 je	 SHORT $LN87@LoadInt_e@2
  000b1	80 f2 ec	 xor	 dl, -20			; ffffffecH
  000b4	88 55 f5	 mov	 BYTE PTR __k$[ebp+9], dl
  000b7	8a 50 0a	 mov	 dl, BYTE PTR [eax+10]
  000ba	84 d2		 test	 dl, dl
  000bc	74 5a		 je	 SHORT $LN86@LoadInt_e@2
  000be	32 d1		 xor	 dl, cl
  000c0	80 78 0b 00	 cmp	 BYTE PTR [eax+11], 0
  000c4	88 55 f6	 mov	 BYTE PTR __k$[ebp+10], dl
  000c7	0f 84 89 00 00
	00		 je	 $LN1@LoadInt_e@2
  000cd	8a 50 0c	 mov	 dl, BYTE PTR [eax+12]
  000d0	84 d2		 test	 dl, dl
  000d2	74 3e		 je	 SHORT $LN84@LoadInt_e@2
  000d4	80 f2 ed	 xor	 dl, -19			; ffffffedH
  000d7	88 55 f8	 mov	 BYTE PTR __k$[ebp+12], dl
  000da	8a 50 0d	 mov	 dl, BYTE PTR [eax+13]
  000dd	84 d2		 test	 dl, dl
  000df	74 2b		 je	 SHORT $LN83@LoadInt_e@2
  000e1	80 f2 ec	 xor	 dl, -20			; ffffffecH
  000e4	88 55 f9	 mov	 BYTE PTR __k$[ebp+13], dl
  000e7	8a 50 0e	 mov	 dl, BYTE PTR [eax+14]
  000ea	84 d2		 test	 dl, dl
  000ec	74 19		 je	 SHORT $LN82@LoadInt_e@2
  000ee	8a 40 0f	 mov	 al, BYTE PTR [eax+15]
  000f1	32 d1		 xor	 dl, cl
  000f3	88 55 fa	 mov	 BYTE PTR __k$[ebp+14], dl
  000f6	84 c0		 test	 al, al
  000f8	74 07		 je	 SHORT $LN81@LoadInt_e@2
  000fa	34 ea		 xor	 al, -22			; ffffffeaH
  000fc	88 45 fb	 mov	 BYTE PTR __k$[ebp+15], al
  000ff	eb 55		 jmp	 SHORT $LN1@LoadInt_e@2
$LN81@LoadInt_e@2:
  00101	c6 45 fb ea	 mov	 BYTE PTR __k$[ebp+15], -22 ; ffffffeaH
  00105	eb 4f		 jmp	 SHORT $LN1@LoadInt_e@2
$LN82@LoadInt_e@2:
  00107	88 4d fa	 mov	 BYTE PTR __k$[ebp+14], cl
  0010a	eb 4a		 jmp	 SHORT $LN1@LoadInt_e@2
$LN83@LoadInt_e@2:
  0010c	c6 45 f9 ec	 mov	 BYTE PTR __k$[ebp+13], -20 ; ffffffecH
  00110	eb 44		 jmp	 SHORT $LN1@LoadInt_e@2
$LN84@LoadInt_e@2:
  00112	c6 45 f8 ed	 mov	 BYTE PTR __k$[ebp+12], -19 ; ffffffedH
  00116	eb 3e		 jmp	 SHORT $LN1@LoadInt_e@2
$LN86@LoadInt_e@2:
  00118	88 4d f6	 mov	 BYTE PTR __k$[ebp+10], cl
  0011b	eb 39		 jmp	 SHORT $LN1@LoadInt_e@2
$LN87@LoadInt_e@2:
  0011d	c6 45 f5 ec	 mov	 BYTE PTR __k$[ebp+9], -20 ; ffffffecH
  00121	eb 33		 jmp	 SHORT $LN1@LoadInt_e@2
$LN88@LoadInt_e@2:
  00123	c6 45 f4 ed	 mov	 BYTE PTR __k$[ebp+8], -19 ; ffffffedH
  00127	eb 2d		 jmp	 SHORT $LN1@LoadInt_e@2
$LN89@LoadInt_e@2:
  00129	c6 45 f3 ea	 mov	 BYTE PTR __k$[ebp+7], -22 ; ffffffeaH
  0012d	eb 27		 jmp	 SHORT $LN1@LoadInt_e@2
$LN90@LoadInt_e@2:
  0012f	88 4d f2	 mov	 BYTE PTR __k$[ebp+6], cl
  00132	eb 22		 jmp	 SHORT $LN1@LoadInt_e@2
$LN91@LoadInt_e@2:
  00134	c6 45 f1 ec	 mov	 BYTE PTR __k$[ebp+5], -20 ; ffffffecH
  00138	eb 1c		 jmp	 SHORT $LN1@LoadInt_e@2
$LN92@LoadInt_e@2:
  0013a	c6 45 f0 ed	 mov	 BYTE PTR __k$[ebp+4], -19 ; ffffffedH
  0013e	eb 16		 jmp	 SHORT $LN1@LoadInt_e@2
$LN93@LoadInt_e@2:
  00140	c6 45 ef ea	 mov	 BYTE PTR __k$[ebp+3], -22 ; ffffffeaH
  00144	eb 10		 jmp	 SHORT $LN1@LoadInt_e@2
$LN94@LoadInt_e@2:
  00146	c6 45 ee eb	 mov	 BYTE PTR __k$[ebp+2], -21 ; ffffffebH
  0014a	eb 0a		 jmp	 SHORT $LN1@LoadInt_e@2
$LN95@LoadInt_e@2:
  0014c	c6 45 ed ec	 mov	 BYTE PTR __k$[ebp+1], -20 ; ffffffecH
  00150	eb 04		 jmp	 SHORT $LN1@LoadInt_e@2
$LN96@LoadInt_e@2:
  00152	c6 45 ec ed	 mov	 BYTE PTR __k$[ebp], -19	; ffffffedH
$LN1@LoadInt_e@2:
  00156	6a 02		 push	 2
  00158	8d 45 ec	 lea	 eax, DWORD PTR __k$[ebp]
  0015b	c6 45 f7 00	 mov	 BYTE PTR __k$[ebp+11], 0
  0015f	5a		 pop	 edx
$LL104@LoadInt_e@2:
  00160	81 30 ed ec eb
	ea		 xor	 DWORD PTR [eax], -353637139 ; eaebecedH
  00166	83 c0 04	 add	 eax, 4
  00169	4a		 dec	 edx
  0016a	75 f4		 jne	 SHORT $LL104@LoadInt_e@2
  0016c	6a 08		 push	 8
  0016e	58		 pop	 eax
$LL101@LoadInt_e@2:
  0016f	8b c8		 mov	 ecx, eax
  00171	81 e1 03 00 00
	80		 and	 ecx, -2147483645	; 80000003H
  00177	79 05		 jns	 SHORT $LN111@LoadInt_e@2
  00179	49		 dec	 ecx
  0017a	83 c9 fc	 or	 ecx, -4			; fffffffcH
  0017d	41		 inc	 ecx
$LN111@LoadInt_e@2:
  0017e	b2 ed		 mov	 dl, -19			; ffffffedH
  00180	2a d1		 sub	 dl, cl
  00182	30 54 05 ec	 xor	 BYTE PTR __k$[ebp+eax], dl
  00186	40		 inc	 eax
  00187	83 f8 0b	 cmp	 eax, 11			; 0000000bH
  0018a	7c e3		 jl	 SHORT $LL101@LoadInt_e@2

; 120  : 		return LoadInt(_k, i);

  0018c	ff 75 0c	 push	 DWORD PTR _i$[ebp]
  0018f	8d 45 ec	 lea	 eax, DWORD PTR __k$[ebp]
  00192	50		 push	 eax
  00193	8b ce		 mov	 ecx, esi
  00195	ff 15 00 00 00
	00		 call	 DWORD PTR __imp_?LoadInt@ioINILoader@@QAEHPBDH@Z

; 121  : 	}

  0019b	8b 4d fc	 mov	 ecx, DWORD PTR __$ArrayPad$[ebp]
  0019e	33 cd		 xor	 ecx, ebp
  001a0	5e		 pop	 esi
  001a1	e8 00 00 00 00	 call	 @__security_check_cookie@4
  001a6	c9		 leave
  001a7	c2 08 00	 ret	 8
??$LoadInt_e@$0M@@ioINILoader@@QAEHAAY0M@$$CBDH@Z ENDP	; ioINILoader::LoadInt_e<12>
_TEXT	ENDS
PUBLIC	??$_Cons_val@V?$allocator@UUpDownMoveInfo@ioPrisonWeapon@@@std@@UUpDownMoveInfo@ioPrisonWeapon@@AAU34@@std@@YAXAAV?$allocator@UUpDownMoveInfo@ioPrisonWeapon@@@0@PAUUpDownMoveInfo@ioPrisonWeapon@@AAU23@@Z ; std::_Cons_val<std::allocator<ioPrisonWeapon::UpDownMoveInfo>,ioPrisonWeapon::UpDownMoveInfo,ioPrisonWeapon::UpDownMoveInfo &>
; Function compile flags: /Ogsp
; File c:\program files (x86)\microsoft visual studio 10.0\vc\include\xmemory
;	COMDAT ??$_Cons_val@V?$allocator@UUpDownMoveInfo@ioPrisonWeapon@@@std@@UUpDownMoveInfo@ioPrisonWeapon@@AAU34@@std@@YAXAAV?$allocator@UUpDownMoveInfo@ioPrisonWeapon@@@0@PAUUpDownMoveInfo@ioPrisonWeapon@@AAU23@@Z
_TEXT	SEGMENT
__Alval$ = 8						; size = 4
__Pdest$ = 12						; size = 4
__Src$ = 16						; size = 4
??$_Cons_val@V?$allocator@UUpDownMoveInfo@ioPrisonWeapon@@@std@@UUpDownMoveInfo@ioPrisonWeapon@@AAU34@@std@@YAXAAV?$allocator@UUpDownMoveInfo@ioPrisonWeapon@@@0@PAUUpDownMoveInfo@ioPrisonWeapon@@AAU23@@Z PROC ; std::_Cons_val<std::allocator<ioPrisonWeapon::UpDownMoveInfo>,ioPrisonWeapon::UpDownMoveInfo,ioPrisonWeapon::UpDownMoveInfo &>, COMDAT

; 279  : 	{	// construct using allocator

  00000	55		 push	 ebp
  00001	8b ec		 mov	 ebp, esp
  00003	57		 push	 edi

; 280  : 	_Alval.construct(_Pdest, _STD forward<_Ty2>(_Src));

  00004	8b 7d 0c	 mov	 edi, DWORD PTR __Pdest$[ebp]
  00007	85 ff		 test	 edi, edi
  00009	74 08		 je	 SHORT $LN7@Cons_val
  0000b	56		 push	 esi
  0000c	8b 75 10	 mov	 esi, DWORD PTR __Src$[ebp]
  0000f	a5		 movsd
  00010	a5		 movsd
  00011	a5		 movsd
  00012	5e		 pop	 esi
$LN7@Cons_val:
  00013	5f		 pop	 edi

; 281  : 	}

  00014	5d		 pop	 ebp
  00015	c3		 ret	 0
??$_Cons_val@V?$allocator@UUpDownMoveInfo@ioPrisonWeapon@@@std@@UUpDownMoveInfo@ioPrisonWeapon@@AAU34@@std@@YAXAAV?$allocator@UUpDownMoveInfo@ioPrisonWeapon@@@0@PAUUpDownMoveInfo@ioPrisonWeapon@@AAU23@@Z ENDP ; std::_Cons_val<std::allocator<ioPrisonWeapon::UpDownMoveInfo>,ioPrisonWeapon::UpDownMoveInfo,ioPrisonWeapon::UpDownMoveInfo &>
_TEXT	ENDS
PUBLIC	?construct@?$allocator@UUpDownMoveInfo@ioPrisonWeapon@@@std@@QAEXPAUUpDownMoveInfo@ioPrisonWeapon@@ABU34@@Z ; std::allocator<ioPrisonWeapon::UpDownMoveInfo>::construct
; Function compile flags: /Ogsp
;	COMDAT ?construct@?$allocator@UUpDownMoveInfo@ioPrisonWeapon@@@std@@QAEXPAUUpDownMoveInfo@ioPrisonWeapon@@ABU34@@Z
_TEXT	SEGMENT
__Ptr$ = 8						; size = 4
__Val$ = 12						; size = 4
?construct@?$allocator@UUpDownMoveInfo@ioPrisonWeapon@@@std@@QAEXPAUUpDownMoveInfo@ioPrisonWeapon@@ABU34@@Z PROC ; std::allocator<ioPrisonWeapon::UpDownMoveInfo>::construct, COMDAT
; _this$ = ecx

; 196  : 		{	// construct object at _Ptr with value _Val

  00000	55		 push	 ebp
  00001	8b ec		 mov	 ebp, esp
  00003	57		 push	 edi

; 197  : 		_Construct(_Ptr, _Val);

  00004	8b 7d 08	 mov	 edi, DWORD PTR __Ptr$[ebp]
  00007	85 ff		 test	 edi, edi
  00009	74 08		 je	 SHORT $LN5@construct@2
  0000b	56		 push	 esi
  0000c	8b 75 0c	 mov	 esi, DWORD PTR __Val$[ebp]
  0000f	a5		 movsd
  00010	a5		 movsd
  00011	a5		 movsd
  00012	5e		 pop	 esi
$LN5@construct@2:
  00013	5f		 pop	 edi

; 198  : 		}

  00014	5d		 pop	 ebp
  00015	c2 08 00	 ret	 8
?construct@?$allocator@UUpDownMoveInfo@ioPrisonWeapon@@@std@@QAEXPAUUpDownMoveInfo@ioPrisonWeapon@@ABU34@@Z ENDP ; std::allocator<ioPrisonWeapon::UpDownMoveInfo>::construct
_TEXT	ENDS
PUBLIC	?_Make_iter@?$vector@UUpDownMoveInfo@ioPrisonWeapon@@V?$allocator@UUpDownMoveInfo@ioPrisonWeapon@@@std@@@std@@QBE?AV?$_Vector_iterator@V?$_Vector_val@UUpDownMoveInfo@ioPrisonWeapon@@V?$allocator@UUpDownMoveInfo@ioPrisonWeapon@@@std@@@std@@@2@V?$_Vector_const_iterator@V?$_Vector_val@UUpDownMoveInfo@ioPrisonWeapon@@V?$allocator@UUpDownMoveInfo@ioPrisonWeapon@@@std@@@std@@@2@@Z ; std::vector<ioPrisonWeapon::UpDownMoveInfo,std::allocator<ioPrisonWeapon::UpDownMoveInfo> >::_Make_iter
; Function compile flags: /Ogsp
; File c:\program files (x86)\microsoft visual studio 10.0\vc\include\vector
;	COMDAT ?_Make_iter@?$vector@UUpDownMoveInfo@ioPrisonWeapon@@V?$allocator@UUpDownMoveInfo@ioPrisonWeapon@@@std@@@std@@QBE?AV?$_Vector_iterator@V?$_Vector_val@UUpDownMoveInfo@ioPrisonWeapon@@V?$allocator@UUpDownMoveInfo@ioPrisonWeapon@@@std@@@std@@@2@V?$_Vector_const_iterator@V?$_Vector_val@UUpDownMoveInfo@ioPrisonWeapon@@V?$allocator@UUpDownMoveInfo@ioPrisonWeapon@@@std@@@std@@@2@@Z
_TEXT	SEGMENT
___$ReturnUdt$ = 8					; size = 4
__Where$ = 12						; size = 4
?_Make_iter@?$vector@UUpDownMoveInfo@ioPrisonWeapon@@V?$allocator@UUpDownMoveInfo@ioPrisonWeapon@@@std@@@std@@QBE?AV?$_Vector_iterator@V?$_Vector_val@UUpDownMoveInfo@ioPrisonWeapon@@V?$allocator@UUpDownMoveInfo@ioPrisonWeapon@@@std@@@std@@@2@V?$_Vector_const_iterator@V?$_Vector_val@UUpDownMoveInfo@ioPrisonWeapon@@V?$allocator@UUpDownMoveInfo@ioPrisonWeapon@@@std@@@std@@@2@@Z PROC ; std::vector<ioPrisonWeapon::UpDownMoveInfo,std::allocator<ioPrisonWeapon::UpDownMoveInfo> >::_Make_iter, COMDAT
; _this$ = ecx

; 801  : 		{	// make iterator from const_iterator

  00000	55		 push	 ebp
  00001	8b ec		 mov	 ebp, esp

; 802  : 		return (iterator(_Where._Ptr, this));

  00003	8b 45 08	 mov	 eax, DWORD PTR ___$ReturnUdt$[ebp]
  00006	8b 4d 0c	 mov	 ecx, DWORD PTR __Where$[ebp]
  00009	89 08		 mov	 DWORD PTR [eax], ecx

; 803  : 		}

  0000b	5d		 pop	 ebp
  0000c	c2 08 00	 ret	 8
?_Make_iter@?$vector@UUpDownMoveInfo@ioPrisonWeapon@@V?$allocator@UUpDownMoveInfo@ioPrisonWeapon@@@std@@@std@@QBE?AV?$_Vector_iterator@V?$_Vector_val@UUpDownMoveInfo@ioPrisonWeapon@@V?$allocator@UUpDownMoveInfo@ioPrisonWeapon@@@std@@@std@@@2@V?$_Vector_const_iterator@V?$_Vector_val@UUpDownMoveInfo@ioPrisonWeapon@@V?$allocator@UUpDownMoveInfo@ioPrisonWeapon@@@std@@@std@@@2@@Z ENDP ; std::vector<ioPrisonWeapon::UpDownMoveInfo,std::allocator<ioPrisonWeapon::UpDownMoveInfo> >::_Make_iter
_TEXT	ENDS
PUBLIC	??$_Copy_impl@PAUUpDownMoveInfo@ioPrisonWeapon@@PAU12@@std@@YAPAUUpDownMoveInfo@ioPrisonWeapon@@PAU12@00@Z ; std::_Copy_impl<ioPrisonWeapon::UpDownMoveInfo *,ioPrisonWeapon::UpDownMoveInfo *>
; Function compile flags: /Ogsp
; File c:\program files (x86)\microsoft visual studio 10.0\vc\include\xutility
;	COMDAT ??$_Copy_impl@PAUUpDownMoveInfo@ioPrisonWeapon@@PAU12@@std@@YAPAUUpDownMoveInfo@ioPrisonWeapon@@PAU12@00@Z
_TEXT	SEGMENT
__Cat$537089 = -4					; size = 1
__First$ = 8						; size = 4
__Last$ = 12						; size = 4
__Dest$ = 16						; size = 4
??$_Copy_impl@PAUUpDownMoveInfo@ioPrisonWeapon@@PAU12@@std@@YAPAUUpDownMoveInfo@ioPrisonWeapon@@PAU12@00@Z PROC ; std::_Copy_impl<ioPrisonWeapon::UpDownMoveInfo *,ioPrisonWeapon::UpDownMoveInfo *>, COMDAT

; 2163 : 	{	// copy [_First, _Last) to [_Dest, ...)

  00000	55		 push	 ebp
  00001	8b ec		 mov	 ebp, esp
  00003	51		 push	 ecx

; 2164 : 	return (_Copy_impl(_First, _Last,
; 2165 : 		_Dest, _Ptr_cat(_First, _Dest)));

  00004	ff 75 fc	 push	 DWORD PTR __Cat$537089[ebp]
  00007	ff 75 10	 push	 DWORD PTR __Dest$[ebp]
  0000a	ff 75 0c	 push	 DWORD PTR __Last$[ebp]
  0000d	ff 75 08	 push	 DWORD PTR __First$[ebp]
  00010	e8 00 00 00 00	 call	 ??$_Copy_impl@PAUUpDownMoveInfo@ioPrisonWeapon@@PAU12@@std@@YAPAUUpDownMoveInfo@ioPrisonWeapon@@PAU12@00U_Nonscalar_ptr_iterator_tag@0@@Z ; std::_Copy_impl<ioPrisonWeapon::UpDownMoveInfo *,ioPrisonWeapon::UpDownMoveInfo *>
  00015	83 c4 10	 add	 esp, 16			; 00000010H

; 2166 : 	}

  00018	c9		 leave
  00019	c3		 ret	 0
??$_Copy_impl@PAUUpDownMoveInfo@ioPrisonWeapon@@PAU12@@std@@YAPAUUpDownMoveInfo@ioPrisonWeapon@@PAU12@00@Z ENDP ; std::_Copy_impl<ioPrisonWeapon::UpDownMoveInfo *,ioPrisonWeapon::UpDownMoveInfo *>
_TEXT	ENDS
PUBLIC	?destroy@?$allocator@UUpDownMoveInfo@ioPrisonWeapon@@@std@@QAEXPAUUpDownMoveInfo@ioPrisonWeapon@@@Z ; std::allocator<ioPrisonWeapon::UpDownMoveInfo>::destroy
; Function compile flags: /Ogsp
; File c:\program files (x86)\microsoft visual studio 10.0\vc\include\xmemory
;	COMDAT ?destroy@?$allocator@UUpDownMoveInfo@ioPrisonWeapon@@@std@@QAEXPAUUpDownMoveInfo@ioPrisonWeapon@@@Z
_TEXT	SEGMENT
__Ptr$ = 8						; size = 4
?destroy@?$allocator@UUpDownMoveInfo@ioPrisonWeapon@@@std@@QAEXPAUUpDownMoveInfo@ioPrisonWeapon@@@Z PROC ; std::allocator<ioPrisonWeapon::UpDownMoveInfo>::destroy, COMDAT
; _this$ = ecx

; 213  : 		_Destroy(_Ptr);
; 214  : 		}

  00000	c2 04 00	 ret	 4
?destroy@?$allocator@UUpDownMoveInfo@ioPrisonWeapon@@@std@@QAEXPAUUpDownMoveInfo@ioPrisonWeapon@@@Z ENDP ; std::allocator<ioPrisonWeapon::UpDownMoveInfo>::destroy
_TEXT	ENDS
PUBLIC	??$_Move@PAUUpDownMoveInfo@ioPrisonWeapon@@PAU12@@std@@YAPAUUpDownMoveInfo@ioPrisonWeapon@@PAU12@00U_Nonscalar_ptr_iterator_tag@0@@Z ; std::_Move<ioPrisonWeapon::UpDownMoveInfo *,ioPrisonWeapon::UpDownMoveInfo *>
; Function compile flags: /Ogsp
; File c:\program files (x86)\microsoft visual studio 10.0\vc\include\xutility
;	COMDAT ??$_Move@PAUUpDownMoveInfo@ioPrisonWeapon@@PAU12@@std@@YAPAUUpDownMoveInfo@ioPrisonWeapon@@PAU12@00U_Nonscalar_ptr_iterator_tag@0@@Z
_TEXT	SEGMENT
__First$ = 8						; size = 4
__Last$ = 12						; size = 4
__Dest$ = 16						; size = 4
___formal$ = 20						; size = 1
??$_Move@PAUUpDownMoveInfo@ioPrisonWeapon@@PAU12@@std@@YAPAUUpDownMoveInfo@ioPrisonWeapon@@PAU12@00U_Nonscalar_ptr_iterator_tag@0@@Z PROC ; std::_Move<ioPrisonWeapon::UpDownMoveInfo *,ioPrisonWeapon::UpDownMoveInfo *>, COMDAT

; 2512 : 	{	// move [_First, _Last) to [_Dest, ...), arbitrary iterators

  00000	55		 push	 ebp
  00001	8b ec		 mov	 ebp, esp

; 2513 : 	for (; _First != _Last; ++_Dest, ++_First)

  00003	8b 45 08	 mov	 eax, DWORD PTR __First$[ebp]
  00006	3b 45 0c	 cmp	 eax, DWORD PTR __Last$[ebp]
  00009	74 18		 je	 SHORT $LN10@Move
  0000b	56		 push	 esi
  0000c	57		 push	 edi
$LL3@Move:

; 2514 : 		*_Dest = _STD move(*_First);

  0000d	8b 7d 10	 mov	 edi, DWORD PTR __Dest$[ebp]
  00010	83 45 10 0c	 add	 DWORD PTR __Dest$[ebp], 12 ; 0000000cH
  00014	8b f0		 mov	 esi, eax
  00016	a5		 movsd
  00017	a5		 movsd
  00018	83 c0 0c	 add	 eax, 12			; 0000000cH
  0001b	a5		 movsd
  0001c	3b 45 0c	 cmp	 eax, DWORD PTR __Last$[ebp]
  0001f	75 ec		 jne	 SHORT $LL3@Move
  00021	5f		 pop	 edi
  00022	5e		 pop	 esi
$LN10@Move:

; 2515 : 	return (_Dest);

  00023	8b 45 10	 mov	 eax, DWORD PTR __Dest$[ebp]

; 2516 : 	}

  00026	5d		 pop	 ebp
  00027	c3		 ret	 0
??$_Move@PAUUpDownMoveInfo@ioPrisonWeapon@@PAU12@@std@@YAPAUUpDownMoveInfo@ioPrisonWeapon@@PAU12@00U_Nonscalar_ptr_iterator_tag@0@@Z ENDP ; std::_Move<ioPrisonWeapon::UpDownMoveInfo *,ioPrisonWeapon::UpDownMoveInfo *>
_TEXT	ENDS
PUBLIC	?construct@?$allocator@UUpDownMoveInfo@ioPrisonWeapon@@@std@@QAEXPAUUpDownMoveInfo@ioPrisonWeapon@@$$QAU34@@Z ; std::allocator<ioPrisonWeapon::UpDownMoveInfo>::construct
; Function compile flags: /Ogsp
; File c:\program files (x86)\microsoft visual studio 10.0\vc\include\xmemory
;	COMDAT ?construct@?$allocator@UUpDownMoveInfo@ioPrisonWeapon@@@std@@QAEXPAUUpDownMoveInfo@ioPrisonWeapon@@$$QAU34@@Z
_TEXT	SEGMENT
__Ptr$ = 8						; size = 4
__Val$ = 12						; size = 4
?construct@?$allocator@UUpDownMoveInfo@ioPrisonWeapon@@@std@@QAEXPAUUpDownMoveInfo@ioPrisonWeapon@@$$QAU34@@Z PROC ; std::allocator<ioPrisonWeapon::UpDownMoveInfo>::construct, COMDAT
; _this$ = ecx

; 201  : 		{	// construct object at _Ptr with value _Val

  00000	55		 push	 ebp
  00001	8b ec		 mov	 ebp, esp
  00003	57		 push	 edi

; 202  : 		::new ((void _FARQ *)_Ptr) _Ty(_STD forward<_Ty>(_Val));

  00004	8b 7d 08	 mov	 edi, DWORD PTR __Ptr$[ebp]
  00007	85 ff		 test	 edi, edi
  00009	74 08		 je	 SHORT $LN3@construct@3
  0000b	56		 push	 esi
  0000c	8b 75 0c	 mov	 esi, DWORD PTR __Val$[ebp]
  0000f	a5		 movsd
  00010	a5		 movsd
  00011	a5		 movsd
  00012	5e		 pop	 esi
$LN3@construct@3:
  00013	5f		 pop	 edi

; 203  : 		}

  00014	5d		 pop	 ebp
  00015	c2 08 00	 ret	 8
?construct@?$allocator@UUpDownMoveInfo@ioPrisonWeapon@@@std@@QAEXPAUUpDownMoveInfo@ioPrisonWeapon@@$$QAU34@@Z ENDP ; std::allocator<ioPrisonWeapon::UpDownMoveInfo>::construct
_TEXT	ENDS
PUBLIC	??0?$CEncrypt@M@@QAE@XZ				; CEncrypt<float>::CEncrypt<float>
EXTRN	??0ccddaabb@@QAE@XZ:PROC			; ccddaabb::ccddaabb
;	COMDAT xdata$x
; File d:\lost saga for developer\youtube\tutorial\source\src\lsclient\encryptvalue.h
xdata$x	SEGMENT
__unwindtable$??0?$CEncrypt@M@@QAE@XZ DD 0ffffffffH
	DD	FLAT:__unwindfunclet$??0?$CEncrypt@M@@QAE@XZ$0
__ehfuncinfo$??0?$CEncrypt@M@@QAE@XZ DD 019930522H
	DD	01H
	DD	FLAT:__unwindtable$??0?$CEncrypt@M@@QAE@XZ
	DD	2 DUP(00H)
	DD	2 DUP(00H)
	DD	00H
	DD	01H
; Function compile flags: /Ogsp
xdata$x	ENDS
;	COMDAT ??0?$CEncrypt@M@@QAE@XZ
_TEXT	SEGMENT
_this$ = -16						; size = 4
__$EHRec$ = -12						; size = 12
??0?$CEncrypt@M@@QAE@XZ PROC				; CEncrypt<float>::CEncrypt<float>, COMDAT
; _this$ = ecx

; 109  : 	CEncrypt()

  00000	6a 04		 push	 4
  00002	b8 00 00 00 00	 mov	 eax, __ehhandler$??0?$CEncrypt@M@@QAE@XZ
  00007	e8 00 00 00 00	 call	 __EH_prolog3
  0000c	8b f1		 mov	 esi, ecx
  0000e	89 75 f0	 mov	 DWORD PTR _this$[ebp], esi
  00011	8d 4e 0c	 lea	 ecx, DWORD PTR [esi+12]
  00014	c7 06 00 00 00
	00		 mov	 DWORD PTR [esi], OFFSET ??_7?$CEncrypt@M@@6B@
  0001a	e8 00 00 00 00	 call	 ??0ccddaabb@@QAE@XZ	; ccddaabb::ccddaabb
  0001f	83 65 fc 00	 and	 DWORD PTR __$EHRec$[ebp+8], 0

; 110  : 	{
; 111  : 		Init();

  00023	8b ce		 mov	 ecx, esi
  00025	e8 00 00 00 00	 call	 ?Init@?$CEncrypt@M@@AAEXXZ ; CEncrypt<float>::Init

; 112  : 	}

  0002a	8b c6		 mov	 eax, esi
  0002c	e8 00 00 00 00	 call	 __EH_epilog3
  00031	c3		 ret	 0
_TEXT	ENDS
;	COMDAT text$x
text$x	SEGMENT
__unwindfunclet$??0?$CEncrypt@M@@QAE@XZ$0:
  00000	8b 4d f0	 mov	 ecx, DWORD PTR _this$[ebp]
  00003	83 c1 0c	 add	 ecx, 12			; 0000000cH
  00006	e9 00 00 00 00	 jmp	 ??1ccddaabb@@UAE@XZ	; ccddaabb::~ccddaabb
__ehhandler$??0?$CEncrypt@M@@QAE@XZ:
  0000b	8b 54 24 08	 mov	 edx, DWORD PTR [esp+8]
  0000f	8d 42 0c	 lea	 eax, DWORD PTR [edx+12]
  00012	8b 4a ec	 mov	 ecx, DWORD PTR [edx-20]
  00015	33 c8		 xor	 ecx, eax
  00017	e8 00 00 00 00	 call	 @__security_check_cookie@4
  0001c	b8 00 00 00 00	 mov	 eax, OFFSET __ehfuncinfo$??0?$CEncrypt@M@@QAE@XZ
  00021	e9 00 00 00 00	 jmp	 ___CxxFrameHandler3
text$x	ENDS
??0?$CEncrypt@M@@QAE@XZ ENDP				; CEncrypt<float>::CEncrypt<float>
PUBLIC	??B?$CEncrypt@M@@QAEMXZ				; CEncrypt<float>::operator float
; Function compile flags: /Ogsp
;	COMDAT ??B?$CEncrypt@M@@QAEMXZ
_TEXT	SEGMENT
_value$ = -4						; size = 4
??B?$CEncrypt@M@@QAEMXZ PROC				; CEncrypt<float>::operator float, COMDAT
; _this$ = ecx

; 134  : 	{

  00000	55		 push	 ebp
  00001	8b ec		 mov	 ebp, esp
  00003	51		 push	 ecx

; 135  : 		type value;
; 136  : 		DecryptValueToPool(&value);

  00004	8d 45 fc	 lea	 eax, DWORD PTR _value$[ebp]
  00007	50		 push	 eax
  00008	e8 00 00 00 00	 call	 ?DecryptValueToPool@?$CEncrypt@M@@QAEXPAM@Z ; CEncrypt<float>::DecryptValueToPool

; 137  : 
; 138  : #ifdef _NOTUSE
; 139  : 		Debug();
; 140  : #endif
; 141  : 		return value;

  0000d	d9 45 fc	 fld	 DWORD PTR _value$[ebp]

; 142  : 	}

  00010	c9		 leave
  00011	c3		 ret	 0
??B?$CEncrypt@M@@QAEMXZ ENDP				; CEncrypt<float>::operator float
_TEXT	ENDS
PUBLIC	??4?$CEncrypt@M@@QAEMM@Z			; CEncrypt<float>::operator=
; Function compile flags: /Ogsp
;	COMDAT ??4?$CEncrypt@M@@QAEMM@Z
_TEXT	SEGMENT
_value$ = 8						; size = 4
_inValue$ = 8						; size = 4
??4?$CEncrypt@M@@QAEMM@Z PROC				; CEncrypt<float>::operator=, COMDAT
; _this$ = ecx

; 1654 : 	{	

  00000	55		 push	 ebp
  00001	8b ec		 mov	 ebp, esp

; 1655 : 		type value = inValue;

  00003	d9 45 08	 fld	 DWORD PTR _inValue$[ebp]

; 1656 : 		EncryptValueToPool((char*)&value);

  00006	8d 45 08	 lea	 eax, DWORD PTR _value$[ebp]
  00009	50		 push	 eax
  0000a	d9 5d 08	 fstp	 DWORD PTR _value$[ebp]
  0000d	e8 00 00 00 00	 call	 ?EncryptValueToPool@?$CEncrypt@M@@AAEXPBD@Z ; CEncrypt<float>::EncryptValueToPool

; 1657 : #ifdef _NOTUSE
; 1658 : 		m_value = inValue;
; 1659 : 		Debug();
; 1660 : #endif
; 1661 : 		return value;

  00012	d9 45 08	 fld	 DWORD PTR _value$[ebp]

; 1662 : 	}

  00015	5d		 pop	 ebp
  00016	c2 04 00	 ret	 4
??4?$CEncrypt@M@@QAEMM@Z ENDP				; CEncrypt<float>::operator=
_TEXT	ENDS
PUBLIC	??0?$CEncrypt@H@@QAE@XZ				; CEncrypt<int>::CEncrypt<int>
;	COMDAT xdata$x
xdata$x	SEGMENT
__unwindtable$??0?$CEncrypt@H@@QAE@XZ DD 0ffffffffH
	DD	FLAT:__unwindfunclet$??0?$CEncrypt@H@@QAE@XZ$0
__ehfuncinfo$??0?$CEncrypt@H@@QAE@XZ DD 019930522H
	DD	01H
	DD	FLAT:__unwindtable$??0?$CEncrypt@H@@QAE@XZ
	DD	2 DUP(00H)
	DD	2 DUP(00H)
	DD	00H
	DD	01H
; Function compile flags: /Ogsp
xdata$x	ENDS
;	COMDAT ??0?$CEncrypt@H@@QAE@XZ
_TEXT	SEGMENT
_this$ = -16						; size = 4
__$EHRec$ = -12						; size = 12
??0?$CEncrypt@H@@QAE@XZ PROC				; CEncrypt<int>::CEncrypt<int>, COMDAT
; _this$ = ecx

; 109  : 	CEncrypt()

  00000	6a 04		 push	 4
  00002	b8 00 00 00 00	 mov	 eax, __ehhandler$??0?$CEncrypt@H@@QAE@XZ
  00007	e8 00 00 00 00	 call	 __EH_prolog3
  0000c	8b f1		 mov	 esi, ecx
  0000e	89 75 f0	 mov	 DWORD PTR _this$[ebp], esi
  00011	8d 4e 0c	 lea	 ecx, DWORD PTR [esi+12]
  00014	c7 06 00 00 00
	00		 mov	 DWORD PTR [esi], OFFSET ??_7?$CEncrypt@H@@6B@
  0001a	e8 00 00 00 00	 call	 ??0ccddaabb@@QAE@XZ	; ccddaabb::ccddaabb
  0001f	83 65 fc 00	 and	 DWORD PTR __$EHRec$[ebp+8], 0

; 110  : 	{
; 111  : 		Init();

  00023	8b ce		 mov	 ecx, esi
  00025	e8 00 00 00 00	 call	 ?Init@?$CEncrypt@H@@AAEXXZ ; CEncrypt<int>::Init

; 112  : 	}

  0002a	8b c6		 mov	 eax, esi
  0002c	e8 00 00 00 00	 call	 __EH_epilog3
  00031	c3		 ret	 0
_TEXT	ENDS
;	COMDAT text$x
text$x	SEGMENT
__unwindfunclet$??0?$CEncrypt@H@@QAE@XZ$0:
  00000	8b 4d f0	 mov	 ecx, DWORD PTR _this$[ebp]
  00003	83 c1 0c	 add	 ecx, 12			; 0000000cH
  00006	e9 00 00 00 00	 jmp	 ??1ccddaabb@@UAE@XZ	; ccddaabb::~ccddaabb
__ehhandler$??0?$CEncrypt@H@@QAE@XZ:
  0000b	8b 54 24 08	 mov	 edx, DWORD PTR [esp+8]
  0000f	8d 42 0c	 lea	 eax, DWORD PTR [edx+12]
  00012	8b 4a ec	 mov	 ecx, DWORD PTR [edx-20]
  00015	33 c8		 xor	 ecx, eax
  00017	e8 00 00 00 00	 call	 @__security_check_cookie@4
  0001c	b8 00 00 00 00	 mov	 eax, OFFSET __ehfuncinfo$??0?$CEncrypt@H@@QAE@XZ
  00021	e9 00 00 00 00	 jmp	 ___CxxFrameHandler3
text$x	ENDS
??0?$CEncrypt@H@@QAE@XZ ENDP				; CEncrypt<int>::CEncrypt<int>
PUBLIC	??B?$CEncrypt@H@@QAEHXZ				; CEncrypt<int>::operator int
; Function compile flags: /Ogsp
;	COMDAT ??B?$CEncrypt@H@@QAEHXZ
_TEXT	SEGMENT
_value$ = -4						; size = 4
??B?$CEncrypt@H@@QAEHXZ PROC				; CEncrypt<int>::operator int, COMDAT
; _this$ = ecx

; 134  : 	{

  00000	55		 push	 ebp
  00001	8b ec		 mov	 ebp, esp
  00003	51		 push	 ecx

; 135  : 		type value;
; 136  : 		DecryptValueToPool(&value);

  00004	8d 45 fc	 lea	 eax, DWORD PTR _value$[ebp]
  00007	50		 push	 eax
  00008	e8 00 00 00 00	 call	 ?DecryptValueToPool@?$CEncrypt@H@@QAEXPAH@Z ; CEncrypt<int>::DecryptValueToPool

; 137  : 
; 138  : #ifdef _NOTUSE
; 139  : 		Debug();
; 140  : #endif
; 141  : 		return value;

  0000d	8b 45 fc	 mov	 eax, DWORD PTR _value$[ebp]

; 142  : 	}

  00010	c9		 leave
  00011	c3		 ret	 0
??B?$CEncrypt@H@@QAEHXZ ENDP				; CEncrypt<int>::operator int
_TEXT	ENDS
PUBLIC	??B?$CEncrypt@W4TeamType@@@@QBE?AW4TeamType@@XZ	; CEncrypt<enum TeamType>::operator enum TeamType
; Function compile flags: /Ogsp
;	COMDAT ??B?$CEncrypt@W4TeamType@@@@QBE?AW4TeamType@@XZ
_TEXT	SEGMENT
_value$ = -4						; size = 4
??B?$CEncrypt@W4TeamType@@@@QBE?AW4TeamType@@XZ PROC	; CEncrypt<enum TeamType>::operator enum TeamType, COMDAT
; _this$ = ecx

; 145  : 	{

  00000	55		 push	 ebp
  00001	8b ec		 mov	 ebp, esp
  00003	51		 push	 ecx

; 146  : 		//UJ 130829, const    --start
; 147  : 		type value;
; 148  : 		CEncrypt<type>* pThis = const_cast<CEncrypt<type>*>(this);
; 149  : 		pThis->DecryptValueToPool(&value);

  00004	8d 45 fc	 lea	 eax, DWORD PTR _value$[ebp]
  00007	50		 push	 eax
  00008	e8 00 00 00 00	 call	 ?DecryptValueToPool@?$CEncrypt@W4TeamType@@@@QAEXPAW4TeamType@@@Z ; CEncrypt<enum TeamType>::DecryptValueToPool

; 150  : 		//// const DecryptValueToPool     .
; 151  :  		//type value;
; 152  : 		//char szTempMem[MAX_ENCRYPT];
; 153  : 		//m_RC5.DecryptByte( m_MemPool, szTempMem, max(m_ValueSize, DEFAULT_ENCRYPT) );
; 154  : 		//memcpy( &value, szTempMem, m_ValueSize );
; 155  : 		//UJ --end
; 156  : 
; 157  : #ifdef _NOTUSE
; 158  : 		Debug();
; 159  : #endif
; 160  : 		return value;

  0000d	8b 45 fc	 mov	 eax, DWORD PTR _value$[ebp]

; 161  : 	}

  00010	c9		 leave
  00011	c3		 ret	 0
??B?$CEncrypt@W4TeamType@@@@QBE?AW4TeamType@@XZ ENDP	; CEncrypt<enum TeamType>::operator enum TeamType
_TEXT	ENDS
PUBLIC	??_C@_00CNPNBAHC@?$AA@				; `string'
PUBLIC	_rkLoader$GSCopy$
PUBLIC	__$ArrayPad$
PUBLIC	?LoadProperty@ioPrisonWeapon@@UAEXAAVioINILoader@@@Z ; ioPrisonWeapon::LoadProperty
EXTRN	__imp_??4ioHashString@@QAEAAV0@PBD@Z:PROC
EXTRN	?LoadProperty@ioWeapon@@UAEXAAVioINILoader@@@Z:PROC ; ioWeapon::LoadProperty
EXTRN	__ftol2_sse:PROC
EXTRN	_memset:PROC
;	COMDAT ??_C@_00CNPNBAHC@?$AA@
; File d:\lost saga for developer\youtube\tutorial\source\src\lsclient\stringprotect.h
CONST	SEGMENT
??_C@_00CNPNBAHC@?$AA@ DB 00H				; `string'
; Function compile flags: /Ogsp
; File d:\lost saga for developer\youtube\tutorial\source\src\lsclient\ioprisonweapon.cpp
CONST	ENDS
;	COMDAT ?LoadProperty@ioPrisonWeapon@@UAEXAAVioINILoader@@@Z
_TEXT	SEGMENT
_rkLoader$GSCopy$ = -292				; size = 4
_value$538288 = -292					; size = 4
_value$538158 = -292					; size = 4
_value$538029 = -292					; size = 4
_value$537899 = -292					; size = 4
_szBuf$ = -288						; size = 260
__k$538176 = -28					; size = 17
__k$537929 = -28					; size = 20
__k$537799 = -28					; size = 17
__k$537562 = -28					; size = 19
__k$537411 = -28					; size = 18
__k$537299 = -28					; size = 18
__k$537174 = -28					; size = 17
__k$538059 = -24					; size = 16
__k$538431 = -20					; size = 12
__k$538306 = -20					; size = 11
__k$537670 = -20					; size = 11
__$ArrayPad$ = -4					; size = 4
_rkLoader$ = 8						; size = 4
?LoadProperty@ioPrisonWeapon@@UAEXAAVioINILoader@@@Z PROC ; ioPrisonWeapon::LoadProperty, COMDAT
; _this$ = ecx

; 55   : {

  00000	55		 push	 ebp
  00001	8b ec		 mov	 ebp, esp
  00003	81 ec 24 01 00
	00		 sub	 esp, 292		; 00000124H
  00009	a1 00 00 00 00	 mov	 eax, DWORD PTR ___security_cookie
  0000e	33 c5		 xor	 eax, ebp
  00010	89 45 fc	 mov	 DWORD PTR __$ArrayPad$[ebp], eax
  00013	53		 push	 ebx
  00014	56		 push	 esi
  00015	57		 push	 edi
  00016	8b 7d 08	 mov	 edi, DWORD PTR _rkLoader$[ebp]

; 56   : 	ioWeapon::LoadProperty( rkLoader );

  00019	57		 push	 edi
  0001a	8b f1		 mov	 esi, ecx

; 71   : 
; 72   : 	rkLoader.LoadString_e( "end_effect", "", szBuf, MAX_PATH );

  0001c	89 bd dc fe ff
	ff		 mov	 DWORD PTR _rkLoader$GSCopy$[ebp], edi
  00022	e8 00 00 00 00	 call	 ?LoadProperty@ioWeapon@@UAEXAAVioINILoader@@@Z ; ioWeapon::LoadProperty
  00027	68 03 01 00 00	 push	 259			; 00000103H
  0002c	8d 85 e1 fe ff
	ff		 lea	 eax, DWORD PTR _szBuf$[ebp+1]
  00032	6a 00		 push	 0
  00034	50		 push	 eax
  00035	c6 85 e0 fe ff
	ff 00		 mov	 BYTE PTR _szBuf$[ebp], 0
  0003c	e8 00 00 00 00	 call	 _memset
  00041	83 c4 0c	 add	 esp, 12			; 0000000cH
  00044	6a 04		 push	 4
  00046	c7 45 e4 9f 89
	8f b5		 mov	 DWORD PTR __k$537174[ebp], -1248884321 ; b58f899fH
  0004d	c7 45 e8 89 89
	87 8b		 mov	 DWORD PTR __k$537174[ebp+4], -1954051703 ; 8b878989H
  00054	c7 45 ec 94 b3
	8e 8c		 mov	 DWORD PTR __k$537174[ebp+8], -1936804972 ; 8c8eb394H
  0005b	c7 45 f0 8b 89
	88 9e		 mov	 DWORD PTR __k$537174[ebp+12], -1635219061 ; 9e88898bH
  00062	8d 45 e4	 lea	 eax, DWORD PTR __k$537174[ebp]
  00065	c6 45 f4 00	 mov	 BYTE PTR __k$537174[ebp+16], 0
  00069	59		 pop	 ecx
$LL106@LoadProper:

; 57   : 
; 58   : 	char szBuf[MAX_PATH] = "";
; 59   : 
; 60   : 	rkLoader.LoadString_e( "red_delay_effect", "", szBuf, MAX_PATH );

  0006a	81 30 ed ec eb
	ea		 xor	 DWORD PTR [eax], -353637139 ; eaebecedH
  00070	83 c0 04	 add	 eax, 4
  00073	49		 dec	 ecx
  00074	75 f4		 jne	 SHORT $LL106@LoadProper
  00076	68 04 01 00 00	 push	 260			; 00000104H
  0007b	8d 85 e0 fe ff
	ff		 lea	 eax, DWORD PTR _szBuf$[ebp]
  00081	50		 push	 eax
  00082	68 00 00 00 00	 push	 OFFSET ??_C@_00CNPNBAHC@?$AA@
  00087	8d 45 e4	 lea	 eax, DWORD PTR __k$537174[ebp]
  0008a	8b cf		 mov	 ecx, edi
  0008c	8b 3d 00 00 00
	00		 mov	 edi, DWORD PTR __imp_?LoadStringA@ioINILoader@@QAEXPBD0PADH@Z
  00092	50		 push	 eax
  00093	ff d7		 call	 edi

; 61   : 	m_szRedDealyEffect = szBuf;

  00095	8b 1d 00 00 00
	00		 mov	 ebx, DWORD PTR __imp_??4ioHashString@@QAEAAV0@PBD@Z
  0009b	8d 85 e0 fe ff
	ff		 lea	 eax, DWORD PTR _szBuf$[ebp]
  000a1	50		 push	 eax
  000a2	8d 8e 24 09 00
	00		 lea	 ecx, DWORD PTR [esi+2340]
  000a8	ff d3		 call	 ebx
  000aa	6a 04		 push	 4

; 62   : 
; 63   : 	rkLoader.LoadString_e( "blue_delay_effect", "", szBuf, MAX_PATH );

  000ac	c7 45 e4 8f 80
	9e 8f		 mov	 DWORD PTR __k$537299[ebp], -1885437809 ; 8f9e808fH
  000b3	c7 45 e8 b2 88
	8e 86		 mov	 DWORD PTR __k$537299[ebp+4], -2037479246 ; 868e88b2H
  000ba	c7 45 ec 8c 95
	b4 8f		 mov	 DWORD PTR __k$537299[ebp+8], -1883990644 ; 8fb4958cH
  000c1	c7 45 f0 8b 8a
	8e 89		 mov	 DWORD PTR __k$537299[ebp+12], -1987147125 ; 898e8a8bH
  000c8	8d 45 e4	 lea	 eax, DWORD PTR __k$537299[ebp]
  000cb	66 c7 45 f4 99
	00		 mov	 WORD PTR __k$537299[ebp+16], 153 ; 00000099H
  000d1	59		 pop	 ecx
$LL212@LoadProper:
  000d2	81 30 ed ec eb
	ea		 xor	 DWORD PTR [eax], -353637139 ; eaebecedH
  000d8	83 c0 04	 add	 eax, 4
  000db	49		 dec	 ecx
  000dc	75 f4		 jne	 SHORT $LL212@LoadProper
  000de	8b 8d dc fe ff
	ff		 mov	 ecx, DWORD PTR _rkLoader$GSCopy$[ebp]
  000e4	80 75 f4 ed	 xor	 BYTE PTR __k$537299[ebp+16], -19 ; ffffffedH
  000e8	68 04 01 00 00	 push	 260			; 00000104H
  000ed	8d 85 e0 fe ff
	ff		 lea	 eax, DWORD PTR _szBuf$[ebp]
  000f3	50		 push	 eax
  000f4	68 00 00 00 00	 push	 OFFSET ??_C@_00CNPNBAHC@?$AA@
  000f9	8d 45 e4	 lea	 eax, DWORD PTR __k$537299[ebp]
  000fc	50		 push	 eax
  000fd	ff d7		 call	 edi

; 64   : 	m_szBlueDealyEffect = szBuf;

  000ff	8d 85 e0 fe ff
	ff		 lea	 eax, DWORD PTR _szBuf$[ebp]
  00105	50		 push	 eax
  00106	8d 8e 34 09 00
	00		 lea	 ecx, DWORD PTR [esi+2356]
  0010c	ff d3		 call	 ebx
  0010e	6a 04		 push	 4

; 65   : 
; 66   : 	rkLoader.LoadString_e( "red_prison_effect", "", szBuf, MAX_PATH );

  00110	c7 45 e4 9f 89
	8f b5		 mov	 DWORD PTR __k$537411[ebp], -1248884321 ; b58f899fH
  00117	c7 45 e8 9d 9e
	82 99		 mov	 DWORD PTR __k$537411[ebp+4], -1719492963 ; 99829e9dH
  0011e	c7 45 ec 82 82
	b4 8f		 mov	 DWORD PTR __k$537411[ebp+8], -1883995518 ; 8fb48282H
  00125	c7 45 f0 8b 8a
	8e 89		 mov	 DWORD PTR __k$537411[ebp+12], -1987147125 ; 898e8a8bH
  0012c	8d 45 e4	 lea	 eax, DWORD PTR __k$537411[ebp]
  0012f	66 c7 45 f4 99
	00		 mov	 WORD PTR __k$537411[ebp+16], 153 ; 00000099H
  00135	59		 pop	 ecx
$LL318@LoadProper:
  00136	81 30 ed ec eb
	ea		 xor	 DWORD PTR [eax], -353637139 ; eaebecedH
  0013c	83 c0 04	 add	 eax, 4
  0013f	49		 dec	 ecx
  00140	75 f4		 jne	 SHORT $LL318@LoadProper
  00142	8b 8d dc fe ff
	ff		 mov	 ecx, DWORD PTR _rkLoader$GSCopy$[ebp]
  00148	80 75 f4 ed	 xor	 BYTE PTR __k$537411[ebp+16], -19 ; ffffffedH
  0014c	68 04 01 00 00	 push	 260			; 00000104H
  00151	8d 85 e0 fe ff
	ff		 lea	 eax, DWORD PTR _szBuf$[ebp]
  00157	50		 push	 eax
  00158	68 00 00 00 00	 push	 OFFSET ??_C@_00CNPNBAHC@?$AA@
  0015d	8d 45 e4	 lea	 eax, DWORD PTR __k$537411[ebp]
  00160	50		 push	 eax
  00161	ff d7		 call	 edi

; 67   : 	m_szRedPrisonEffect = szBuf;

  00163	8d 85 e0 fe ff
	ff		 lea	 eax, DWORD PTR _szBuf$[ebp]
  00169	50		 push	 eax
  0016a	8d 8e 44 09 00
	00		 lea	 ecx, DWORD PTR [esi+2372]
  00170	ff d3		 call	 ebx
  00172	6a 04		 push	 4

; 68   : 
; 69   : 	rkLoader.LoadString_e( "blue_prison_effect", "", szBuf, MAX_PATH );

  00174	c7 45 e4 8f 80
	9e 8f		 mov	 DWORD PTR __k$537562[ebp], -1885437809 ; 8f9e808fH
  0017b	c7 45 e8 b2 9c
	99 83		 mov	 DWORD PTR __k$537562[ebp+4], -2087084878 ; 83999cb2H
  00182	c7 45 ec 9e 83
	85 b5		 mov	 DWORD PTR __k$537562[ebp+8], -1249541218 ; b585839eH
  00189	c7 45 f0 88 8a
	8d 8f		 mov	 DWORD PTR __k$537562[ebp+12], -1886549368 ; 8f8d8a88H
  00190	66 c7 45 f4 8e
	98		 mov	 WORD PTR __k$537562[ebp+16], 39054 ; 0000988eH
  00196	8d 45 e4	 lea	 eax, DWORD PTR __k$537562[ebp]
  00199	c6 45 f6 00	 mov	 BYTE PTR __k$537562[ebp+18], 0
  0019d	59		 pop	 ecx
$LL424@LoadProper:
  0019e	81 30 ed ec eb
	ea		 xor	 DWORD PTR [eax], -353637139 ; eaebecedH
  001a4	83 c0 04	 add	 eax, 4
  001a7	49		 dec	 ecx
  001a8	75 f4		 jne	 SHORT $LL424@LoadProper
  001aa	6a 10		 push	 16			; 00000010H
  001ac	58		 pop	 eax
$LL421@LoadProper:
  001ad	8b c8		 mov	 ecx, eax
  001af	81 e1 03 00 00
	80		 and	 ecx, -2147483645	; 80000003H
  001b5	79 05		 jns	 SHORT $LN1221@LoadProper
  001b7	49		 dec	 ecx
  001b8	83 c9 fc	 or	 ecx, -4			; fffffffcH
  001bb	41		 inc	 ecx
$LN1221@LoadProper:
  001bc	b2 ed		 mov	 dl, -19			; ffffffedH
  001be	2a d1		 sub	 dl, cl
  001c0	30 54 05 e4	 xor	 BYTE PTR __k$537562[ebp+eax], dl
  001c4	40		 inc	 eax
  001c5	83 f8 12	 cmp	 eax, 18			; 00000012H
  001c8	7c e3		 jl	 SHORT $LL421@LoadProper
  001ca	8b 8d dc fe ff
	ff		 mov	 ecx, DWORD PTR _rkLoader$GSCopy$[ebp]
  001d0	68 04 01 00 00	 push	 260			; 00000104H
  001d5	8d 85 e0 fe ff
	ff		 lea	 eax, DWORD PTR _szBuf$[ebp]
  001db	50		 push	 eax
  001dc	68 00 00 00 00	 push	 OFFSET ??_C@_00CNPNBAHC@?$AA@
  001e1	8d 45 e4	 lea	 eax, DWORD PTR __k$537562[ebp]
  001e4	50		 push	 eax
  001e5	ff d7		 call	 edi

; 70   : 	m_szBluePrisonEffect = szBuf;

  001e7	8d 85 e0 fe ff
	ff		 lea	 eax, DWORD PTR _szBuf$[ebp]
  001ed	50		 push	 eax
  001ee	8d 8e 54 09 00
	00		 lea	 ecx, DWORD PTR [esi+2388]
  001f4	ff d3		 call	 ebx
  001f6	6a 02		 push	 2

; 71   : 
; 72   : 	rkLoader.LoadString_e( "end_effect", "", szBuf, MAX_PATH );

  001f8	c7 45 ec 88 82
	8f b5		 mov	 DWORD PTR __k$537670[ebp], -1248886136 ; b58f8288H
  001ff	c7 45 f0 88 8a
	8d 8f		 mov	 DWORD PTR __k$537670[ebp+4], -1886549368 ; 8f8d8a88H
  00206	66 c7 45 f4 8e
	98		 mov	 WORD PTR __k$537670[ebp+8], 39054 ; 0000988eH
  0020c	8d 45 ec	 lea	 eax, DWORD PTR __k$537670[ebp]
  0020f	c6 45 f6 00	 mov	 BYTE PTR __k$537670[ebp+10], 0
  00213	59		 pop	 ecx
$LL530@LoadProper:
  00214	81 30 ed ec eb
	ea		 xor	 DWORD PTR [eax], -353637139 ; eaebecedH
  0021a	83 c0 04	 add	 eax, 4
  0021d	49		 dec	 ecx
  0021e	75 f4		 jne	 SHORT $LL530@LoadProper
  00220	6a 08		 push	 8
  00222	58		 pop	 eax
$LL527@LoadProper:
  00223	8b c8		 mov	 ecx, eax
  00225	81 e1 03 00 00
	80		 and	 ecx, -2147483645	; 80000003H
  0022b	79 05		 jns	 SHORT $LN1222@LoadProper
  0022d	49		 dec	 ecx
  0022e	83 c9 fc	 or	 ecx, -4			; fffffffcH
  00231	41		 inc	 ecx
$LN1222@LoadProper:
  00232	b2 ed		 mov	 dl, -19			; ffffffedH
  00234	2a d1		 sub	 dl, cl
  00236	30 54 05 ec	 xor	 BYTE PTR __k$537670[ebp+eax], dl
  0023a	40		 inc	 eax
  0023b	83 f8 0a	 cmp	 eax, 10			; 0000000aH
  0023e	7c e3		 jl	 SHORT $LL527@LoadProper
  00240	8b 8d dc fe ff
	ff		 mov	 ecx, DWORD PTR _rkLoader$GSCopy$[ebp]
  00246	68 04 01 00 00	 push	 260			; 00000104H
  0024b	8d 85 e0 fe ff
	ff		 lea	 eax, DWORD PTR _szBuf$[ebp]
  00251	50		 push	 eax
  00252	68 00 00 00 00	 push	 OFFSET ??_C@_00CNPNBAHC@?$AA@
  00257	8d 45 ec	 lea	 eax, DWORD PTR __k$537670[ebp]
  0025a	50		 push	 eax
  0025b	ff d7		 call	 edi

; 73   : 	m_szEndEffect = szBuf;

  0025d	8d 85 e0 fe ff
	ff		 lea	 eax, DWORD PTR _szBuf$[ebp]
  00263	50		 push	 eax
  00264	8d 8e 64 09 00
	00		 lea	 ecx, DWORD PTR [esi+2404]
  0026a	ff d3		 call	 ebx
  0026c	6a 04		 push	 4
  0026e	5f		 pop	 edi

; 74   : 
; 75   : 	m_fUpHeight		   = rkLoader.LoadFloat_e( "weapon_up_height", 0.0f );

  0026f	c7 45 e4 9a 89
	8a 9a		 mov	 DWORD PTR __k$537799[ebp], -1702196838 ; 9a8a899aH
  00276	c7 45 e8 82 82
	b4 9f		 mov	 DWORD PTR __k$537799[ebp+4], -1615560062 ; 9fb48282H
  0027d	c7 45 ec 9d b3
	83 8f		 mov	 DWORD PTR __k$537799[ebp+8], -1887194211 ; 8f83b39dH
  00284	c7 45 f0 84 8b
	83 9e		 mov	 DWORD PTR __k$537799[ebp+12], -1635546236 ; 9e838b84H
  0028b	8d 45 e4	 lea	 eax, DWORD PTR __k$537799[ebp]
  0028e	c6 45 f4 00	 mov	 BYTE PTR __k$537799[ebp+16], 0
  00292	8b cf		 mov	 ecx, edi
$LL636@LoadProper:
  00294	81 30 ed ec eb
	ea		 xor	 DWORD PTR [eax], -353637139 ; eaebecedH
  0029a	03 c7		 add	 eax, edi
  0029c	49		 dec	 ecx
  0029d	75 f5		 jne	 SHORT $LL636@LoadProper
  0029f	0f 57 c0	 xorps	 xmm0, xmm0
  002a2	8b 9d dc fe ff
	ff		 mov	 ebx, DWORD PTR _rkLoader$GSCopy$[ebp]
  002a8	51		 push	 ecx
  002a9	8d 45 e4	 lea	 eax, DWORD PTR __k$537799[ebp]
  002ac	f3 0f 11 04 24	 movss	 DWORD PTR [esp], xmm0
  002b1	50		 push	 eax
  002b2	8b cb		 mov	 ecx, ebx
  002b4	ff 15 00 00 00
	00		 call	 DWORD PTR __imp_?LoadFloat@ioINILoader@@QAEMPBDM@Z
  002ba	d9 9d dc fe ff
	ff		 fstp	 DWORD PTR _value$537899[ebp]
  002c0	8d 85 dc fe ff
	ff		 lea	 eax, DWORD PTR _value$537899[ebp]
  002c6	50		 push	 eax
  002c7	8d 8e 7c 09 00
	00		 lea	 ecx, DWORD PTR [esi+2428]
  002cd	e8 00 00 00 00	 call	 ?EncryptValueToPool@?$CEncrypt@M@@AAEXPBD@Z ; CEncrypt<float>::EncryptValueToPool

; 76   : 	m_fUnderHeight	   = rkLoader.LoadFloat_e( "weapon_under_height", 0.0f );

  002d2	c7 45 e4 9a 89
	8a 9a		 mov	 DWORD PTR __k$537929[ebp], -1702196838 ; 9a8a899aH
  002d9	c7 45 e8 82 82
	b4 9f		 mov	 DWORD PTR __k$537929[ebp+4], -1615560062 ; 9fb48282H
  002e0	c7 45 ec 83 88
	8e 98		 mov	 DWORD PTR __k$537929[ebp+8], -1735489405 ; 988e8883H
  002e7	c7 45 f0 b2 84
	8e 83		 mov	 DWORD PTR __k$537929[ebp+12], -2087811918 ; 838e84b2H
  002ee	8d 45 e4	 lea	 eax, DWORD PTR __k$537929[ebp]
  002f1	c7 45 f4 8a 84
	9f 00		 mov	 DWORD PTR __k$537929[ebp+16], 10454154 ; 009f848aH
  002f8	8b cf		 mov	 ecx, edi
$LL744@LoadProper:
  002fa	81 30 ed ec eb
	ea		 xor	 DWORD PTR [eax], -353637139 ; eaebecedH
  00300	03 c7		 add	 eax, edi
  00302	49		 dec	 ecx
  00303	75 f5		 jne	 SHORT $LL744@LoadProper
  00305	6a 10		 push	 16			; 00000010H
  00307	58		 pop	 eax
$LL741@LoadProper:
  00308	8b c8		 mov	 ecx, eax
  0030a	81 e1 03 00 00
	80		 and	 ecx, -2147483645	; 80000003H
  00310	79 05		 jns	 SHORT $LN1223@LoadProper
  00312	49		 dec	 ecx
  00313	83 c9 fc	 or	 ecx, -4			; fffffffcH
  00316	41		 inc	 ecx
$LN1223@LoadProper:
  00317	b2 ed		 mov	 dl, -19			; ffffffedH
  00319	2a d1		 sub	 dl, cl
  0031b	30 54 05 e4	 xor	 BYTE PTR __k$537929[ebp+eax], dl
  0031f	40		 inc	 eax
  00320	83 f8 13	 cmp	 eax, 19			; 00000013H
  00323	7c e3		 jl	 SHORT $LL741@LoadProper
  00325	0f 57 c0	 xorps	 xmm0, xmm0
  00328	51		 push	 ecx
  00329	8d 45 e4	 lea	 eax, DWORD PTR __k$537929[ebp]
  0032c	f3 0f 11 04 24	 movss	 DWORD PTR [esp], xmm0
  00331	50		 push	 eax
  00332	8b cb		 mov	 ecx, ebx
  00334	ff 15 00 00 00
	00		 call	 DWORD PTR __imp_?LoadFloat@ioINILoader@@QAEMPBDM@Z
  0033a	d9 9d dc fe ff
	ff		 fstp	 DWORD PTR _value$538029[ebp]
  00340	8d 85 dc fe ff
	ff		 lea	 eax, DWORD PTR _value$538029[ebp]
  00346	50		 push	 eax
  00347	8d 8e ac 09 00
	00		 lea	 ecx, DWORD PTR [esi+2476]
  0034d	e8 00 00 00 00	 call	 ?EncryptValueToPool@?$CEncrypt@M@@AAEXPBD@Z ; CEncrypt<float>::EncryptValueToPool
  00352	6a 03		 push	 3

; 77   : 
; 78   : 	m_iUpDownInRange   = rkLoader.LoadFloat_e( "weapon_in_range", 0.0f );

  00354	c7 45 e8 9a 89
	8a 9a		 mov	 DWORD PTR __k$538059[ebp], -1702196838 ; 9a8a899aH
  0035b	c7 45 ec 82 82
	b4 83		 mov	 DWORD PTR __k$538059[ebp+4], -2085322110 ; 83b48282H
  00362	c7 45 f0 83 b3
	99 8b		 mov	 DWORD PTR __k$538059[ebp+8], -1952861309 ; 8b99b383H
  00369	8d 45 e8	 lea	 eax, DWORD PTR __k$538059[ebp]
  0036c	c7 45 f4 83 8b
	8e 00		 mov	 DWORD PTR __k$538059[ebp+12], 9341827 ; 008e8b83H
  00373	59		 pop	 ecx
$LL852@LoadProper:
  00374	81 30 ed ec eb
	ea		 xor	 DWORD PTR [eax], -353637139 ; eaebecedH
  0037a	83 c0 04	 add	 eax, 4
  0037d	49		 dec	 ecx
  0037e	75 f4		 jne	 SHORT $LL852@LoadProper
  00380	6a 0c		 push	 12			; 0000000cH
  00382	58		 pop	 eax
$LL849@LoadProper:
  00383	8b c8		 mov	 ecx, eax
  00385	81 e1 03 00 00
	80		 and	 ecx, -2147483645	; 80000003H
  0038b	79 05		 jns	 SHORT $LN1224@LoadProper
  0038d	49		 dec	 ecx
  0038e	83 c9 fc	 or	 ecx, -4			; fffffffcH
  00391	41		 inc	 ecx
$LN1224@LoadProper:
  00392	b2 ed		 mov	 dl, -19			; ffffffedH
  00394	2a d1		 sub	 dl, cl
  00396	30 54 05 e8	 xor	 BYTE PTR __k$538059[ebp+eax], dl
  0039a	40		 inc	 eax
  0039b	83 f8 0f	 cmp	 eax, 15			; 0000000fH
  0039e	7c e3		 jl	 SHORT $LL849@LoadProper
  003a0	0f 57 c0	 xorps	 xmm0, xmm0
  003a3	51		 push	 ecx
  003a4	8d 45 e8	 lea	 eax, DWORD PTR __k$538059[ebp]
  003a7	f3 0f 11 04 24	 movss	 DWORD PTR [esp], xmm0
  003ac	50		 push	 eax
  003ad	8b cb		 mov	 ecx, ebx
  003af	ff 15 00 00 00
	00		 call	 DWORD PTR __imp_?LoadFloat@ioINILoader@@QAEMPBDM@Z
  003b5	e8 00 00 00 00	 call	 __ftol2_sse
  003ba	89 85 dc fe ff
	ff		 mov	 DWORD PTR _value$538158[ebp], eax
  003c0	8d 85 dc fe ff
	ff		 lea	 eax, DWORD PTR _value$538158[ebp]
  003c6	50		 push	 eax
  003c7	8d 8e dc 09 00
	00		 lea	 ecx, DWORD PTR [esi+2524]
  003cd	e8 00 00 00 00	 call	 ?EncryptValueToPool@?$CEncrypt@H@@AAEXPBD@Z ; CEncrypt<int>::EncryptValueToPool
  003d2	6a 04		 push	 4

; 79   : 	m_iUpDownOutRange  = rkLoader.LoadFloat_e( "weapon_out_range", 0.0f );

  003d4	c7 45 e4 9a 89
	8a 9a		 mov	 DWORD PTR __k$538176[ebp], -1702196838 ; 9a8a899aH
  003db	c7 45 e8 82 82
	b4 85		 mov	 DWORD PTR __k$538176[ebp+4], -2051767678 ; 85b48282H
  003e2	c7 45 ec 98 98
	b4 98		 mov	 DWORD PTR __k$538176[ebp+8], -1732994920 ; 98b49898H
  003e9	c7 45 f0 8c 82
	8c 8f		 mov	 DWORD PTR __k$538176[ebp+12], -1886616948 ; 8f8c828cH
  003f0	8d 45 e4	 lea	 eax, DWORD PTR __k$538176[ebp]
  003f3	c6 45 f4 00	 mov	 BYTE PTR __k$538176[ebp+16], 0
  003f7	59		 pop	 ecx
$LL960@LoadProper:
  003f8	81 30 ed ec eb
	ea		 xor	 DWORD PTR [eax], -353637139 ; eaebecedH
  003fe	83 c0 04	 add	 eax, 4
  00401	49		 dec	 ecx
  00402	75 f4		 jne	 SHORT $LL960@LoadProper
  00404	0f 57 c0	 xorps	 xmm0, xmm0
  00407	51		 push	 ecx
  00408	8d 45 e4	 lea	 eax, DWORD PTR __k$538176[ebp]
  0040b	f3 0f 11 04 24	 movss	 DWORD PTR [esp], xmm0
  00410	50		 push	 eax
  00411	8b cb		 mov	 ecx, ebx
  00413	ff 15 00 00 00
	00		 call	 DWORD PTR __imp_?LoadFloat@ioINILoader@@QAEMPBDM@Z
  00419	e8 00 00 00 00	 call	 __ftol2_sse
  0041e	89 85 dc fe ff
	ff		 mov	 DWORD PTR _value$538288[ebp], eax
  00424	8d 85 dc fe ff
	ff		 lea	 eax, DWORD PTR _value$538288[ebp]
  0042a	50		 push	 eax
  0042b	8d 8e 0c 0a 00
	00		 lea	 ecx, DWORD PTR [esi+2572]
  00431	e8 00 00 00 00	 call	 ?EncryptValueToPool@?$CEncrypt@H@@AAEXPBD@Z ; CEncrypt<int>::EncryptValueToPool
  00436	6a 02		 push	 2

; 80   : 
; 81   : 	m_dwDelayTime	   = rkLoader.LoadInt_e( "delay_time", 0 );

  00438	c7 45 ec 89 89
	87 8b		 mov	 DWORD PTR __k$538306[ebp], -1954051703 ; 8b878989H
  0043f	c7 45 f0 94 b3
	9f 83		 mov	 DWORD PTR __k$538306[ebp+4], -2086685804 ; 839fb394H
  00446	66 c7 45 f4 80
	89		 mov	 WORD PTR __k$538306[ebp+8], 35200 ; 00008980H
  0044c	8d 45 ec	 lea	 eax, DWORD PTR __k$538306[ebp]
  0044f	c6 45 f6 00	 mov	 BYTE PTR __k$538306[ebp+10], 0
  00453	59		 pop	 ecx
$LL1068@LoadProper:
  00454	81 30 ed ec eb
	ea		 xor	 DWORD PTR [eax], -353637139 ; eaebecedH
  0045a	83 c0 04	 add	 eax, 4
  0045d	49		 dec	 ecx
  0045e	75 f4		 jne	 SHORT $LL1068@LoadProper
  00460	6a 08		 push	 8
  00462	58		 pop	 eax
$LL1065@LoadProper:
  00463	8b c8		 mov	 ecx, eax
  00465	81 e1 03 00 00
	80		 and	 ecx, -2147483645	; 80000003H
  0046b	79 05		 jns	 SHORT $LN1225@LoadProper
  0046d	49		 dec	 ecx
  0046e	83 c9 fc	 or	 ecx, -4			; fffffffcH
  00471	41		 inc	 ecx
$LN1225@LoadProper:
  00472	b2 ed		 mov	 dl, -19			; ffffffedH
  00474	2a d1		 sub	 dl, cl
  00476	30 54 05 ec	 xor	 BYTE PTR __k$538306[ebp+eax], dl
  0047a	40		 inc	 eax
  0047b	83 f8 0a	 cmp	 eax, 10			; 0000000aH
  0047e	7c e3		 jl	 SHORT $LL1065@LoadProper
  00480	8b 3d 00 00 00
	00		 mov	 edi, DWORD PTR __imp_?LoadInt@ioINILoader@@QAEHPBDH@Z
  00486	6a 00		 push	 0
  00488	8d 45 ec	 lea	 eax, DWORD PTR __k$538306[ebp]
  0048b	50		 push	 eax
  0048c	8b cb		 mov	 ecx, ebx
  0048e	ff d7		 call	 edi
  00490	6a 02		 push	 2
  00492	89 86 4c 0a 00
	00		 mov	 DWORD PTR [esi+2636], eax

; 82   : 
; 83   : 	m_dwUpDownDuration = rkLoader.LoadInt_e( "updown_time", 0 );

  00498	c7 45 ec 98 9c
	8f 85		 mov	 DWORD PTR __k$538431[ebp], -2054185832 ; 858f9c98H
  0049f	c7 45 f0 9a 82
	b4 9e		 mov	 DWORD PTR __k$538431[ebp+4], -1632337254 ; 9eb4829aH
  004a6	8d 45 ec	 lea	 eax, DWORD PTR __k$538431[ebp]
  004a9	c7 45 f4 84 81
	8e 00		 mov	 DWORD PTR __k$538431[ebp+8], 9339268 ; 008e8184H
  004b0	59		 pop	 ecx
$LL1174@LoadProper:
  004b1	81 30 ed ec eb
	ea		 xor	 DWORD PTR [eax], -353637139 ; eaebecedH
  004b7	83 c0 04	 add	 eax, 4
  004ba	49		 dec	 ecx
  004bb	75 f4		 jne	 SHORT $LL1174@LoadProper
  004bd	6a 08		 push	 8
  004bf	58		 pop	 eax
$LL1171@LoadProper:
  004c0	8b c8		 mov	 ecx, eax
  004c2	81 e1 03 00 00
	80		 and	 ecx, -2147483645	; 80000003H
  004c8	79 05		 jns	 SHORT $LN1226@LoadProper
  004ca	49		 dec	 ecx
  004cb	83 c9 fc	 or	 ecx, -4			; fffffffcH
  004ce	41		 inc	 ecx
$LN1226@LoadProper:
  004cf	b2 ed		 mov	 dl, -19			; ffffffedH
  004d1	2a d1		 sub	 dl, cl
  004d3	30 54 05 ec	 xor	 BYTE PTR __k$538431[ebp+eax], dl
  004d7	40		 inc	 eax
  004d8	83 f8 0b	 cmp	 eax, 11			; 0000000bH
  004db	7c e3		 jl	 SHORT $LL1171@LoadProper
  004dd	6a 00		 push	 0
  004df	8d 45 ec	 lea	 eax, DWORD PTR __k$538431[ebp]
  004e2	50		 push	 eax
  004e3	8b cb		 mov	 ecx, ebx
  004e5	ff d7		 call	 edi
  004e7	89 86 54 0a 00
	00		 mov	 DWORD PTR [esi+2644], eax

; 84   : 	
; 85   : 	LoadUpDownProperty( rkLoader );

  004ed	8b 06		 mov	 eax, DWORD PTR [esi]
  004ef	53		 push	 ebx
  004f0	8b ce		 mov	 ecx, esi
  004f2	ff 90 70 01 00
	00		 call	 DWORD PTR [eax+368]

; 86   : }

  004f8	8b 4d fc	 mov	 ecx, DWORD PTR __$ArrayPad$[ebp]
  004fb	5f		 pop	 edi
  004fc	5e		 pop	 esi
  004fd	33 cd		 xor	 ecx, ebp
  004ff	5b		 pop	 ebx
  00500	e8 00 00 00 00	 call	 @__security_check_cookie@4
  00505	c9		 leave
  00506	c2 04 00	 ret	 4
?LoadProperty@ioPrisonWeapon@@UAEXAAVioINILoader@@@Z ENDP ; ioPrisonWeapon::LoadProperty
_TEXT	ENDS
PUBLIC	?InitResource@ioPrisonWeapon@@UAE_NXZ		; ioPrisonWeapon::InitResource
EXTRN	?InitResource@ioWeapon@@UAE_NXZ:PROC		; ioWeapon::InitResource
; Function compile flags: /Ogsp
;	COMDAT ?InitResource@ioPrisonWeapon@@UAE_NXZ
_TEXT	SEGMENT
?InitResource@ioPrisonWeapon@@UAE_NXZ PROC		; ioPrisonWeapon::InitResource, COMDAT
; _this$ = ecx

; 124  : {

  00000	56		 push	 esi
  00001	8b f1		 mov	 esi, ecx

; 125  : 	if( ioWeapon::InitResource() )

  00003	e8 00 00 00 00	 call	 ?InitResource@ioWeapon@@UAE_NXZ ; ioWeapon::InitResource
  00008	84 c0		 test	 al, al
  0000a	74 25		 je	 SHORT $LN1@InitResour

; 126  : 	{
; 127  : 		DestroyResource();

  0000c	8b 06		 mov	 eax, DWORD PTR [esi]
  0000e	6a 00		 push	 0
  00010	8b ce		 mov	 ecx, esi
  00012	ff 90 9c 00 00
	00		 call	 DWORD PTR [eax+156]

; 128  : 
; 129  : 		return SetFireMesh( GetAttribute()->m_WeaponEffect );

  00018	8b 06		 mov	 eax, DWORD PTR [esi]
  0001a	8b ce		 mov	 ecx, esi
  0001c	ff 90 3c 01 00
	00		 call	 DWORD PTR [eax+316]
  00022	05 34 01 00 00	 add	 eax, 308		; 00000134H
  00027	50		 push	 eax
  00028	8b ce		 mov	 ecx, esi
  0002a	e8 00 00 00 00	 call	 ?SetFireMesh@ioPrisonWeapon@@IAE_NABVioHashString@@@Z ; ioPrisonWeapon::SetFireMesh
  0002f	5e		 pop	 esi

; 132  : }

  00030	c3		 ret	 0
$LN1@InitResour:

; 130  : 	}
; 131  : 	return false;

  00031	32 c0		 xor	 al, al
  00033	5e		 pop	 esi

; 132  : }

  00034	c3		 ret	 0
?InitResource@ioPrisonWeapon@@UAE_NXZ ENDP		; ioPrisonWeapon::InitResource
_TEXT	ENDS
PUBLIC	__$ArrayPad$
PUBLIC	?CheckTestCollisionBox@ioPrisonWeapon@@QAEXXZ	; ioPrisonWeapon::CheckTestCollisionBox
EXTRN	__imp_??1ioCylinder@@QAE@XZ:PROC
EXTRN	__imp_??0ioCylinder@@QAE@ABUD3DXVECTOR3@@0M@Z:PROC
; Function compile flags: /Ogsp
;	COMDAT ?CheckTestCollisionBox@ioPrisonWeapon@@QAEXXZ
_TEXT	SEGMENT
tv211 = -88						; size = 4
_value$538623 = -88					; size = 4
_value$538628 = -88					; size = 4
_value$538632 = -88					; size = 4
_kCylinder$ = -84					; size = 32
_vSightDir$ = -52					; size = 12
_vTop$ = -40						; size = 12
$T532473 = -28						; size = 12
_vBottom$ = -16						; size = 12
__$ArrayPad$ = -4					; size = 4
?CheckTestCollisionBox@ioPrisonWeapon@@QAEXXZ PROC	; ioPrisonWeapon::CheckTestCollisionBox, COMDAT
; _this$ = ecx

; 425  : {

  00000	55		 push	 ebp
  00001	8b ec		 mov	 ebp, esp
  00003	83 ec 58	 sub	 esp, 88			; 00000058H
  00006	a1 00 00 00 00	 mov	 eax, DWORD PTR ___security_cookie
  0000b	33 c5		 xor	 eax, ebp
  0000d	89 45 fc	 mov	 DWORD PTR __$ArrayPad$[ebp], eax
  00010	53		 push	 ebx
  00011	8b d9		 mov	 ebx, ecx

; 426  : 	ioBaseChar *pOwner = GetOwner();

  00013	e8 00 00 00 00	 call	 ?GetOwner@ioWeapon@@QBEPAVioBaseChar@@XZ ; ioWeapon::GetOwner
  00018	8b c8		 mov	 ecx, eax

; 427  : 	if( !pOwner )

  0001a	85 c9		 test	 ecx, ecx
  0001c	0f 84 f4 00 00
	00		 je	 $LN2@CheckTestC

; 428  : 		return;
; 429  : 
; 430  : 	D3DXVECTOR3 vSightDir = pOwner->GetTargetRot() * D3DXVECTOR3( 0.0f, 0.0f, -FLOAT1 );

  00022	56		 push	 esi
  00023	57		 push	 edi
  00024	b8 01 00 00 00	 mov	 eax, 1
  00029	0f 57 c0	 xorps	 xmm0, xmm0
  0002c	89 45 a8	 mov	 DWORD PTR tv211[ebp], eax
  0002f	db 45 a8	 fild	 DWORD PTR tv211[ebp]
  00032	f3 0f 11 45 e4	 movss	 DWORD PTR $T532473[ebp], xmm0
  00037	f3 0f 11 45 e8	 movss	 DWORD PTR $T532473[ebp+4], xmm0
  0003c	85 c0		 test	 eax, eax
  0003e	79 06		 jns	 SHORT $LN23@CheckTestC
  00040	d8 05 00 00 00
	00		 fadd	 DWORD PTR __real@4f800000
$LN23@CheckTestC:
  00046	8d 45 e4	 lea	 eax, DWORD PTR $T532473[ebp]
  00049	d9 e0		 fchs
  0004b	50		 push	 eax
  0004c	d9 5d ec	 fstp	 DWORD PTR $T532473[ebp+8]
  0004f	81 c1 a4 06 00
	00		 add	 ecx, 1700		; 000006a4H
  00055	51		 push	 ecx
  00056	8d 45 cc	 lea	 eax, DWORD PTR _vSightDir$[ebp]
  00059	50		 push	 eax
  0005a	ff 15 00 00 00
	00		 call	 DWORD PTR __imp_??D@YA?AUD3DXVECTOR3@@ABUD3DXQUATERNION@@ABU0@@Z
  00060	83 c4 0c	 add	 esp, 12			; 0000000cH

; 431  : 	D3DXVec3Normalize( &vSightDir, &vSightDir );

  00063	8d 45 cc	 lea	 eax, DWORD PTR _vSightDir$[ebp]
  00066	50		 push	 eax
  00067	50		 push	 eax
  00068	e8 00 00 00 00	 call	 _D3DXVec3Normalize@8

; 432  : 
; 433  : 	D3DXVECTOR3 vTop, vBottom, vCenter;
; 434  : 	vTop = vBottom = GetPosition();

  0006d	8b 03		 mov	 eax, DWORD PTR [ebx]
  0006f	8b cb		 mov	 ecx, ebx
  00071	ff 50 70	 call	 DWORD PTR [eax+112]
  00074	8b f0		 mov	 esi, eax
  00076	8d 7d f0	 lea	 edi, DWORD PTR _vBottom$[ebp]
  00079	a5		 movsd
  0007a	a5		 movsd
  0007b	a5		 movsd
  0007c	8d 75 f0	 lea	 esi, DWORD PTR _vBottom$[ebp]
  0007f	8d 7d d8	 lea	 edi, DWORD PTR _vTop$[ebp]
  00082	a5		 movsd
  00083	a5		 movsd

; 435  : 	vTop.y += m_fUpHeight;

  00084	8d 45 a8	 lea	 eax, DWORD PTR _value$538623[ebp]
  00087	50		 push	 eax
  00088	8d 8b 7c 09 00
	00		 lea	 ecx, DWORD PTR [ebx+2428]
  0008e	a5		 movsd
  0008f	e8 00 00 00 00	 call	 ?DecryptValueToPool@?$CEncrypt@M@@QAEXPAM@Z ; CEncrypt<float>::DecryptValueToPool
  00094	f3 0f 10 4d dc	 movss	 xmm1, DWORD PTR _vTop$[ebp+4]
  00099	f3 0f 10 45 a8	 movss	 xmm0, DWORD PTR _value$538623[ebp]
  0009e	0f 5a c0	 cvtps2pd xmm0, xmm0
  000a1	0f 5a c9	 cvtps2pd xmm1, xmm1

; 436  : 	vBottom.y -= m_fUnderHeight;

  000a4	8d 45 a8	 lea	 eax, DWORD PTR _value$538628[ebp]
  000a7	f2 0f 58 c1	 addsd	 xmm0, xmm1
  000ab	66 0f 5a c0	 cvtpd2ps xmm0, xmm0
  000af	50		 push	 eax
  000b0	8d 8b ac 09 00
	00		 lea	 ecx, DWORD PTR [ebx+2476]
  000b6	f3 0f 11 45 dc	 movss	 DWORD PTR _vTop$[ebp+4], xmm0
  000bb	e8 00 00 00 00	 call	 ?DecryptValueToPool@?$CEncrypt@M@@QAEXPAM@Z ; CEncrypt<float>::DecryptValueToPool
  000c0	f3 0f 10 45 f4	 movss	 xmm0, DWORD PTR _vBottom$[ebp+4]
  000c5	f3 0f 10 4d a8	 movss	 xmm1, DWORD PTR _value$538628[ebp]
  000ca	0f 5a c0	 cvtps2pd xmm0, xmm0
  000cd	0f 5a c9	 cvtps2pd xmm1, xmm1

; 437  : 	ioCylinder kCylinder( vTop, vBottom, m_iUpDownOutRange );

  000d0	8d 45 a8	 lea	 eax, DWORD PTR _value$538632[ebp]
  000d3	f2 0f 5c c1	 subsd	 xmm0, xmm1
  000d7	66 0f 5a c0	 cvtpd2ps xmm0, xmm0
  000db	50		 push	 eax
  000dc	8d 8b 0c 0a 00
	00		 lea	 ecx, DWORD PTR [ebx+2572]
  000e2	f3 0f 11 45 f4	 movss	 DWORD PTR _vBottom$[ebp+4], xmm0
  000e7	e8 00 00 00 00	 call	 ?DecryptValueToPool@?$CEncrypt@H@@QAEXPAH@Z ; CEncrypt<int>::DecryptValueToPool
  000ec	66 0f 6e 45 a8	 movd	 xmm0, DWORD PTR _value$538632[ebp]
  000f1	51		 push	 ecx
  000f2	0f 5b c0	 cvtdq2ps xmm0, xmm0
  000f5	f3 0f 11 04 24	 movss	 DWORD PTR [esp], xmm0
  000fa	8d 45 f0	 lea	 eax, DWORD PTR _vBottom$[ebp]
  000fd	50		 push	 eax
  000fe	8d 45 d8	 lea	 eax, DWORD PTR _vTop$[ebp]
  00101	50		 push	 eax
  00102	8d 4d ac	 lea	 ecx, DWORD PTR _kCylinder$[ebp]
  00105	ff 15 00 00 00
	00		 call	 DWORD PTR __imp_??0ioCylinder@@QAE@ABUD3DXVECTOR3@@0M@Z

; 438  : 
; 439  : #ifndef SHIPPING	
; 440  : 	D3DXVECTOR3 vMinPos, vMaxPos;
; 441  : 	vMaxPos = vMinPos = GetPosition();
; 442  : 
; 443  : 	vMaxPos.x += m_iUpDownOutRange;
; 444  : 	vMaxPos.y += m_fUpHeight;
; 445  : 	vMaxPos.z += m_iUpDownOutRange;
; 446  : 
; 447  : 	vMinPos.x -= m_iUpDownOutRange;
; 448  : 	vMinPos.y -= m_fUnderHeight;
; 449  : 	vMinPos.z -= m_iUpDownOutRange;
; 450  : 
; 451  : 	ioOrientBox kBuffBox;
; 452  : 	kBuffBox.SetBoxByMinMax( vMinPos, vMaxPos );
; 453  : 	kBuffBox.GetVertices( ioBaseChar::m_vRangeBoxArrayForTest );
; 454  : #endif
; 455  : }

  0010b	8d 4d ac	 lea	 ecx, DWORD PTR _kCylinder$[ebp]
  0010e	ff 15 00 00 00
	00		 call	 DWORD PTR __imp_??1ioCylinder@@QAE@XZ
  00114	5f		 pop	 edi
  00115	5e		 pop	 esi
$LN2@CheckTestC:
  00116	8b 4d fc	 mov	 ecx, DWORD PTR __$ArrayPad$[ebp]
  00119	33 cd		 xor	 ecx, ebp
  0011b	5b		 pop	 ebx
  0011c	e8 00 00 00 00	 call	 @__security_check_cookie@4
  00121	c9		 leave
  00122	c3		 ret	 0
?CheckTestCollisionBox@ioPrisonWeapon@@QAEXXZ ENDP	; ioPrisonWeapon::CheckTestCollisionBox
_TEXT	ENDS
PUBLIC	_pEntity$GSCopy$
PUBLIC	?IsCollision@ioPrisonWeapon@@UAE_NPAVioPlayEntity@@_N@Z ; ioPrisonWeapon::IsCollision
EXTRN	__imp_?GetCenter@ioCylinder@@QBEABUD3DXVECTOR3@@XZ:PROC
;	COMDAT xdata$x
; File d:\lost saga for developer\youtube\tutorial\source\src\lsclient\encryptvalue.h
xdata$x	SEGMENT
__unwindtable$?IsCollision@ioPrisonWeapon@@UAE_NPAVioPlayEntity@@_N@Z DD 0ffffffffH
	DD	FLAT:__unwindfunclet$?IsCollision@ioPrisonWeapon@@UAE_NPAVioPlayEntity@@_N@Z$0
__ehfuncinfo$?IsCollision@ioPrisonWeapon@@UAE_NPAVioPlayEntity@@_N@Z DD 019930522H
	DD	01H
	DD	FLAT:__unwindtable$?IsCollision@ioPrisonWeapon@@UAE_NPAVioPlayEntity@@_N@Z
	DD	2 DUP(00H)
	DD	2 DUP(00H)
	DD	00H
	DD	01H
; Function compile flags: /Ogsp
; File d:\lost saga for developer\youtube\tutorial\source\src\lsclient\ioprisonweapon.cpp
xdata$x	ENDS
;	COMDAT ?IsCollision@ioPrisonWeapon@@UAE_NPAVioPlayEntity@@_N@Z
_TEXT	SEGMENT
tv420 = -112						; size = 8
_pEntity$GSCopy$ = -108					; size = 4
_value$538692 = -108					; size = 4
tv444 = -104						; size = 4
_value$538696 = -104					; size = 4
_value$538664 = -100					; size = 4
_value$538660 = -100					; size = 4
_value$538656 = -100					; size = 4
_fTargetDist$ = -100					; size = 4
_kCylinder$ = -96					; size = 32
_vCenter$ = -64						; size = 12
_vTop$ = -52						; size = 12
_vCollisionPoint$ = -40					; size = 12
_vBottom$ = -28						; size = 12
__$EHRec$ = -12						; size = 12
_pEntity$ = 8						; size = 4
_bMapCollision$ = 12					; size = 1
?IsCollision@ioPrisonWeapon@@UAE_NPAVioPlayEntity@@_N@Z PROC ; ioPrisonWeapon::IsCollision, COMDAT
; _this$ = ecx

; 458  : {

  00000	6a 64		 push	 100			; 00000064H
  00002	b8 00 00 00 00	 mov	 eax, __ehhandler$?IsCollision@ioPrisonWeapon@@UAE_NPAVioPlayEntity@@_N@Z
  00007	e8 00 00 00 00	 call	 __EH_prolog3_GS
  0000c	8b 75 08	 mov	 esi, DWORD PTR _pEntity$[ebp]
  0000f	8b d9		 mov	 ebx, ecx

; 459  : 	if( m_State != WS_PRISON_UPDOWN )	

  00011	83 bb 94 08 00
	00 04		 cmp	 DWORD PTR [ebx+2196], 4

; 482  : 	
; 483  : 	//   
; 484  : 	D3DXVECTOR3 vDiff = vCollisionPoint - vCenter;

  00018	89 75 94	 mov	 DWORD PTR _pEntity$GSCopy$[ebp], esi
  0001b	0f 85 0f 02 00
	00		 jne	 $LN40@IsCollisio

; 460  : 		return false;
; 461  : 
; 462  : 	if( !pEntity )

  00021	85 f6		 test	 esi, esi

; 463  : 		return false;

  00023	0f 84 07 02 00
	00		 je	 $LN40@IsCollisio

; 464  : 	
; 465  : 	if( pEntity->GetSubType() != ioPlayEntity::PST_CHAR )

  00029	8b 06		 mov	 eax, DWORD PTR [esi]
  0002b	8b ce		 mov	 ecx, esi
  0002d	ff 90 a4 00 00
	00		 call	 DWORD PTR [eax+164]
  00033	85 c0		 test	 eax, eax

; 466  : 		return false;

  00035	0f 85 f5 01 00
	00		 jne	 $LN40@IsCollisio

; 467  : 
; 468  : 	ioBaseChar* pChar = ToBaseChar( pEntity );

  0003b	56		 push	 esi
  0003c	e8 00 00 00 00	 call	 ?ToBaseChar@@YAPAVioBaseChar@@PAVioGameEntity@@@Z ; ToBaseChar
  00041	59		 pop	 ecx

; 469  : 	if( !pChar )	

  00042	85 c0		 test	 eax, eax

; 470  : 		return false;

  00044	0f 84 e6 01 00
	00		 je	 $LN40@IsCollisio

; 471  : 
; 472  : 	D3DXVECTOR3 vTop, vBottom, vCenter;
; 473  : 	vTop = vBottom = GetPosition();

  0004a	8b 03		 mov	 eax, DWORD PTR [ebx]
  0004c	8b cb		 mov	 ecx, ebx
  0004e	ff 50 70	 call	 DWORD PTR [eax+112]
  00051	8b f0		 mov	 esi, eax
  00053	8d 7d e4	 lea	 edi, DWORD PTR _vBottom$[ebp]
  00056	a5		 movsd
  00057	a5		 movsd
  00058	a5		 movsd
  00059	8d 75 e4	 lea	 esi, DWORD PTR _vBottom$[ebp]
  0005c	8d 7d cc	 lea	 edi, DWORD PTR _vTop$[ebp]
  0005f	a5		 movsd
  00060	a5		 movsd

; 474  : 	vTop.y += m_fUpHeight;

  00061	8d 45 9c	 lea	 eax, DWORD PTR _value$538656[ebp]
  00064	50		 push	 eax
  00065	8d 8b 7c 09 00
	00		 lea	 ecx, DWORD PTR [ebx+2428]
  0006b	a5		 movsd
  0006c	e8 00 00 00 00	 call	 ?DecryptValueToPool@?$CEncrypt@M@@QAEXPAM@Z ; CEncrypt<float>::DecryptValueToPool
  00071	f3 0f 10 4d d0	 movss	 xmm1, DWORD PTR _vTop$[ebp+4]
  00076	f3 0f 10 45 9c	 movss	 xmm0, DWORD PTR _value$538656[ebp]
  0007b	0f 5a c0	 cvtps2pd xmm0, xmm0
  0007e	0f 5a c9	 cvtps2pd xmm1, xmm1

; 475  : 	vBottom.y -= m_fUnderHeight;

  00081	8d 45 9c	 lea	 eax, DWORD PTR _value$538660[ebp]
  00084	f2 0f 58 c1	 addsd	 xmm0, xmm1
  00088	66 0f 5a c0	 cvtpd2ps xmm0, xmm0
  0008c	50		 push	 eax
  0008d	8d 8b ac 09 00
	00		 lea	 ecx, DWORD PTR [ebx+2476]
  00093	f3 0f 11 45 d0	 movss	 DWORD PTR _vTop$[ebp+4], xmm0
  00098	e8 00 00 00 00	 call	 ?DecryptValueToPool@?$CEncrypt@M@@QAEXPAM@Z ; CEncrypt<float>::DecryptValueToPool
  0009d	f3 0f 10 45 e8	 movss	 xmm0, DWORD PTR _vBottom$[ebp+4]
  000a2	f3 0f 10 4d 9c	 movss	 xmm1, DWORD PTR _value$538660[ebp]
  000a7	0f 5a c0	 cvtps2pd xmm0, xmm0
  000aa	0f 5a c9	 cvtps2pd xmm1, xmm1

; 476  : 	ioCylinder kCylinder( vTop, vBottom, m_iUpDownOutRange );

  000ad	8d 45 9c	 lea	 eax, DWORD PTR _value$538664[ebp]
  000b0	f2 0f 5c c1	 subsd	 xmm0, xmm1
  000b4	8d 8b 0c 0a 00
	00		 lea	 ecx, DWORD PTR [ebx+2572]
  000ba	66 0f 5a c0	 cvtpd2ps xmm0, xmm0
  000be	50		 push	 eax
  000bf	f3 0f 11 45 e8	 movss	 DWORD PTR _vBottom$[ebp+4], xmm0
  000c4	89 4d 98	 mov	 DWORD PTR tv444[ebp], ecx
  000c7	e8 00 00 00 00	 call	 ?DecryptValueToPool@?$CEncrypt@H@@QAEXPAH@Z ; CEncrypt<int>::DecryptValueToPool
  000cc	66 0f 6e 45 9c	 movd	 xmm0, DWORD PTR _value$538664[ebp]
  000d1	51		 push	 ecx
  000d2	0f 5b c0	 cvtdq2ps xmm0, xmm0
  000d5	f3 0f 11 04 24	 movss	 DWORD PTR [esp], xmm0
  000da	8d 45 e4	 lea	 eax, DWORD PTR _vBottom$[ebp]
  000dd	50		 push	 eax
  000de	8d 45 cc	 lea	 eax, DWORD PTR _vTop$[ebp]
  000e1	50		 push	 eax
  000e2	8d 4d a0	 lea	 ecx, DWORD PTR _kCylinder$[ebp]
  000e5	ff 15 00 00 00
	00		 call	 DWORD PTR __imp_??0ioCylinder@@QAE@ABUD3DXVECTOR3@@0M@Z
  000eb	83 65 fc 00	 and	 DWORD PTR __$EHRec$[ebp+8], 0

; 477  : 	vCenter = kCylinder.GetCenter();

  000ef	8d 4d a0	 lea	 ecx, DWORD PTR _kCylinder$[ebp]
  000f2	ff 15 00 00 00
	00		 call	 DWORD PTR __imp_?GetCenter@ioCylinder@@QBEABUD3DXVECTOR3@@XZ

; 478  : 
; 479  : 	D3DXVECTOR3 vCollisionPoint;
; 480  : 	if( !pEntity->CheckCylinderPoint( kCylinder, vCenter, vCollisionPoint ) )

  000f8	8b 4d 94	 mov	 ecx, DWORD PTR _pEntity$GSCopy$[ebp]
  000fb	8b f0		 mov	 esi, eax
  000fd	8b 01		 mov	 eax, DWORD PTR [ecx]
  000ff	8d 7d c0	 lea	 edi, DWORD PTR _vCenter$[ebp]
  00102	a5		 movsd
  00103	8d 55 d8	 lea	 edx, DWORD PTR _vCollisionPoint$[ebp]
  00106	52		 push	 edx
  00107	8d 55 c0	 lea	 edx, DWORD PTR _vCenter$[ebp]
  0010a	a5		 movsd
  0010b	52		 push	 edx
  0010c	8d 55 a0	 lea	 edx, DWORD PTR _kCylinder$[ebp]
  0010f	52		 push	 edx
  00110	a5		 movsd
  00111	ff 90 a0 00 00
	00		 call	 DWORD PTR [eax+160]
  00117	84 c0		 test	 al, al
  00119	75 16		 jne	 SHORT $LN4@IsCollisio
  0011b	32 db		 xor	 bl, bl
$LN38@IsCollisio:

; 481  : 		return false;

  0011d	83 4d fc ff	 or	 DWORD PTR __$EHRec$[ebp+8], -1
  00121	8d 4d a0	 lea	 ecx, DWORD PTR _kCylinder$[ebp]
  00124	ff 15 00 00 00
	00		 call	 DWORD PTR __imp_??1ioCylinder@@QAE@XZ
  0012a	8a c3		 mov	 al, bl
  0012c	e9 01 01 00 00	 jmp	 $LN9@IsCollisio
$LN4@IsCollisio:

; 482  : 	
; 483  : 	//   
; 484  : 	D3DXVECTOR3 vDiff = vCollisionPoint - vCenter;

  00131	f3 0f 10 45 d8	 movss	 xmm0, DWORD PTR _vCollisionPoint$[ebp]
  00136	f3 0f 10 4d c0	 movss	 xmm1, DWORD PTR _vCenter$[ebp]
  0013b	f3 0f 10 55 c8	 movss	 xmm2, DWORD PTR _vCenter$[ebp+8]
  00140	0f 5a c0	 cvtps2pd xmm0, xmm0
  00143	0f 5a c9	 cvtps2pd xmm1, xmm1
  00146	f2 0f 5c c1	 subsd	 xmm0, xmm1
  0014a	f3 0f 10 4d e0	 movss	 xmm1, DWORD PTR _vCollisionPoint$[ebp+8]
  0014f	66 0f 5a c0	 cvtpd2ps xmm0, xmm0

; 485  : 	vDiff.y = 0.0f;
; 486  : 
; 487  : 	float fTargetDist = D3DXVec3Length( &vDiff );

  00153	f3 0f 5a c0	 cvtss2sd xmm0, xmm0
  00157	f2 0f 59 c0	 mulsd	 xmm0, xmm0
  0015b	f2 0f 11 45 90	 movsd	 QWORD PTR tv420[ebp], xmm0
  00160	0f 57 c0	 xorps	 xmm0, xmm0
  00163	0f 5a c9	 cvtps2pd xmm1, xmm1
  00166	0f 5a d2	 cvtps2pd xmm2, xmm2
  00169	f2 0f 5c ca	 subsd	 xmm1, xmm2
  0016d	f2 0f 10 55 90	 movsd	 xmm2, QWORD PTR tv420[ebp]
  00172	f2 0f 59 c0	 mulsd	 xmm0, xmm0
  00176	f2 0f 58 d0	 addsd	 xmm2, xmm0
  0017a	66 0f 5a c9	 cvtpd2ps xmm1, xmm1
  0017e	0f 57 c0	 xorps	 xmm0, xmm0
  00181	f3 0f 5a c9	 cvtss2sd xmm1, xmm1
  00185	f2 0f 59 c9	 mulsd	 xmm1, xmm1
  00189	f2 0f 58 d1	 addsd	 xmm2, xmm1
  0018d	66 0f 5a c2	 cvtpd2ps xmm0, xmm2
  00191	0f 5a c0	 cvtps2pd xmm0, xmm0

; 488  : 
; 489  : 	if( !COMPARE( fTargetDist, m_iUpDownInRange, m_iUpDownOutRange ) )			

  00194	8d 45 94	 lea	 eax, DWORD PTR _value$538692[ebp]
  00197	f2 0f 51 c0	 sqrtsd	 xmm0, xmm0
  0019b	66 0f 5a c0	 cvtpd2ps xmm0, xmm0
  0019f	50		 push	 eax
  001a0	8d 8b dc 09 00
	00		 lea	 ecx, DWORD PTR [ebx+2524]
  001a6	f3 0f 11 45 9c	 movss	 DWORD PTR _fTargetDist$[ebp], xmm0
  001ab	e8 00 00 00 00	 call	 ?DecryptValueToPool@?$CEncrypt@H@@QAEXPAH@Z ; CEncrypt<int>::DecryptValueToPool
  001b0	66 0f 6e 4d 94	 movd	 xmm1, DWORD PTR _value$538692[ebp]
  001b5	f3 0f 10 45 9c	 movss	 xmm0, DWORD PTR _fTargetDist$[ebp]
  001ba	0f 5b c9	 cvtdq2ps xmm1, xmm1
  001bd	0f 5a c0	 cvtps2pd xmm0, xmm0
  001c0	f3 0f 5a c9	 cvtss2sd xmm1, xmm1
  001c4	66 0f 2f c1	 comisd	 xmm0, xmm1
  001c8	72 59		 jb	 SHORT $LN2@IsCollisio
  001ca	8b 4d 98	 mov	 ecx, DWORD PTR tv444[ebp]
  001cd	8d 45 98	 lea	 eax, DWORD PTR _value$538696[ebp]
  001d0	50		 push	 eax
  001d1	e8 00 00 00 00	 call	 ?DecryptValueToPool@?$CEncrypt@H@@QAEXPAH@Z ; CEncrypt<int>::DecryptValueToPool
  001d6	66 0f 6e 4d 98	 movd	 xmm1, DWORD PTR _value$538696[ebp]
  001db	f3 0f 10 45 9c	 movss	 xmm0, DWORD PTR _fTargetDist$[ebp]
  001e0	0f 5b c9	 cvtdq2ps xmm1, xmm1
  001e3	0f 5a c0	 cvtps2pd xmm0, xmm0
  001e6	f3 0f 5a c9	 cvtss2sd xmm1, xmm1
  001ea	66 0f 2f c8	 comisd	 xmm1, xmm0
  001ee	76 33		 jbe	 SHORT $LN2@IsCollisio

; 491  : 	
; 492  : 	//  
; 493  : 	if( vCollisionPoint.y >= vBottom.y && vCollisionPoint.y <= vTop.y )

  001f0	f3 0f 10 45 dc	 movss	 xmm0, DWORD PTR _vCollisionPoint$[ebp+4]
  001f5	f3 0f 10 4d e8	 movss	 xmm1, DWORD PTR _vBottom$[ebp+4]
  001fa	0f 5a c0	 cvtps2pd xmm0, xmm0
  001fd	0f 5a c9	 cvtps2pd xmm1, xmm1
  00200	66 0f 2f c1	 comisd	 xmm0, xmm1
  00204	72 1d		 jb	 SHORT $LN2@IsCollisio
  00206	f3 0f 10 45 dc	 movss	 xmm0, DWORD PTR _vCollisionPoint$[ebp+4]
  0020b	f3 0f 10 4d d0	 movss	 xmm1, DWORD PTR _vTop$[ebp+4]
  00210	0f 5a c0	 cvtps2pd xmm0, xmm0
  00213	0f 5a c9	 cvtps2pd xmm1, xmm1
  00216	66 0f 2f c8	 comisd	 xmm1, xmm0
  0021a	72 07		 jb	 SHORT $LN2@IsCollisio
  0021c	b3 01		 mov	 bl, 1
  0021e	e9 fa fe ff ff	 jmp	 $LN38@IsCollisio
$LN2@IsCollisio:

; 490  : 		return false;	

  00223	83 4d fc ff	 or	 DWORD PTR __$EHRec$[ebp+8], -1
  00227	8d 4d a0	 lea	 ecx, DWORD PTR _kCylinder$[ebp]
  0022a	ff 15 00 00 00
	00		 call	 DWORD PTR __imp_??1ioCylinder@@QAE@XZ
$LN40@IsCollisio:
  00230	32 c0		 xor	 al, al
$LN9@IsCollisio:

; 494  : 	{		
; 495  : 		return true;
; 496  : 	}
; 497  : 
; 498  : 	return false;
; 499  : }

  00232	e8 00 00 00 00	 call	 __EH_epilog3_GS
  00237	c2 08 00	 ret	 8
_TEXT	ENDS
;	COMDAT text$x
text$x	SEGMENT
__unwindfunclet$?IsCollision@ioPrisonWeapon@@UAE_NPAVioPlayEntity@@_N@Z$0:
  00000	8d 4d a0	 lea	 ecx, DWORD PTR _kCylinder$[ebp]
  00003	ff 25 00 00 00
	00		 jmp	 DWORD PTR __imp_??1ioCylinder@@QAE@XZ
__ehhandler$?IsCollision@ioPrisonWeapon@@UAE_NPAVioPlayEntity@@_N@Z:
  00009	8b 54 24 08	 mov	 edx, DWORD PTR [esp+8]
  0000d	8d 42 0c	 lea	 eax, DWORD PTR [edx+12]
  00010	8b 4a 8c	 mov	 ecx, DWORD PTR [edx-116]
  00013	33 c8		 xor	 ecx, eax
  00015	e8 00 00 00 00	 call	 @__security_check_cookie@4
  0001a	8b 4a fc	 mov	 ecx, DWORD PTR [edx-4]
  0001d	33 c8		 xor	 ecx, eax
  0001f	e8 00 00 00 00	 call	 @__security_check_cookie@4
  00024	b8 00 00 00 00	 mov	 eax, OFFSET __ehfuncinfo$?IsCollision@ioPrisonWeapon@@UAE_NPAVioPlayEntity@@_N@Z
  00029	e9 00 00 00 00	 jmp	 ___CxxFrameHandler3
text$x	ENDS
?IsCollision@ioPrisonWeapon@@UAE_NPAVioPlayEntity@@_N@Z ENDP ; ioPrisonWeapon::IsCollision
PUBLIC	??0?$vector@UUpDownMoveInfo@ioPrisonWeapon@@V?$allocator@UUpDownMoveInfo@ioPrisonWeapon@@@std@@@std@@QAE@XZ ; std::vector<ioPrisonWeapon::UpDownMoveInfo,std::allocator<ioPrisonWeapon::UpDownMoveInfo> >::vector<ioPrisonWeapon::UpDownMoveInfo,std::allocator<ioPrisonWeapon::UpDownMoveInfo> >
; Function compile flags: /Ogsp
; File c:\program files (x86)\microsoft visual studio 10.0\vc\include\vector
;	COMDAT ??0?$vector@UUpDownMoveInfo@ioPrisonWeapon@@V?$allocator@UUpDownMoveInfo@ioPrisonWeapon@@@std@@@std@@QAE@XZ
_TEXT	SEGMENT
??0?$vector@UUpDownMoveInfo@ioPrisonWeapon@@V?$allocator@UUpDownMoveInfo@ioPrisonWeapon@@@std@@@std@@QAE@XZ PROC ; std::vector<ioPrisonWeapon::UpDownMoveInfo,std::allocator<ioPrisonWeapon::UpDownMoveInfo> >::vector<ioPrisonWeapon::UpDownMoveInfo,std::allocator<ioPrisonWeapon::UpDownMoveInfo> >, COMDAT
; _this$ = ecx

; 507  : 		{	// construct empty vector

  00000	8b c1		 mov	 eax, ecx
  00002	33 c9		 xor	 ecx, ecx
  00004	89 08		 mov	 DWORD PTR [eax], ecx
  00006	89 48 04	 mov	 DWORD PTR [eax+4], ecx
  00009	89 48 08	 mov	 DWORD PTR [eax+8], ecx

; 508  : 		}

  0000c	c3		 ret	 0
??0?$vector@UUpDownMoveInfo@ioPrisonWeapon@@V?$allocator@UUpDownMoveInfo@ioPrisonWeapon@@@std@@@std@@QAE@XZ ENDP ; std::vector<ioPrisonWeapon::UpDownMoveInfo,std::allocator<ioPrisonWeapon::UpDownMoveInfo> >::vector<ioPrisonWeapon::UpDownMoveInfo,std::allocator<ioPrisonWeapon::UpDownMoveInfo> >
_TEXT	ENDS
PUBLIC	?begin@?$vector@UUpDownMoveInfo@ioPrisonWeapon@@V?$allocator@UUpDownMoveInfo@ioPrisonWeapon@@@std@@@std@@QAE?AV?$_Vector_iterator@V?$_Vector_val@UUpDownMoveInfo@ioPrisonWeapon@@V?$allocator@UUpDownMoveInfo@ioPrisonWeapon@@@std@@@std@@@2@XZ ; std::vector<ioPrisonWeapon::UpDownMoveInfo,std::allocator<ioPrisonWeapon::UpDownMoveInfo> >::begin
; Function compile flags: /Ogsp
;	COMDAT ?begin@?$vector@UUpDownMoveInfo@ioPrisonWeapon@@V?$allocator@UUpDownMoveInfo@ioPrisonWeapon@@@std@@@std@@QAE?AV?$_Vector_iterator@V?$_Vector_val@UUpDownMoveInfo@ioPrisonWeapon@@V?$allocator@UUpDownMoveInfo@ioPrisonWeapon@@@std@@@std@@@2@XZ
_TEXT	SEGMENT
___$ReturnUdt$ = 8					; size = 4
?begin@?$vector@UUpDownMoveInfo@ioPrisonWeapon@@V?$allocator@UUpDownMoveInfo@ioPrisonWeapon@@@std@@@std@@QAE?AV?$_Vector_iterator@V?$_Vector_val@UUpDownMoveInfo@ioPrisonWeapon@@V?$allocator@UUpDownMoveInfo@ioPrisonWeapon@@@std@@@std@@@2@XZ PROC ; std::vector<ioPrisonWeapon::UpDownMoveInfo,std::allocator<ioPrisonWeapon::UpDownMoveInfo> >::begin, COMDAT
; _this$ = ecx

; 781  : 		{	// return iterator for beginning of mutable sequence

  00000	55		 push	 ebp
  00001	8b ec		 mov	 ebp, esp

; 782  : 		return (iterator(this->_Myfirst, this));

  00003	8b 09		 mov	 ecx, DWORD PTR [ecx]
  00005	8b 45 08	 mov	 eax, DWORD PTR ___$ReturnUdt$[ebp]
  00008	89 08		 mov	 DWORD PTR [eax], ecx

; 783  : 		}

  0000a	5d		 pop	 ebp
  0000b	c2 04 00	 ret	 4
?begin@?$vector@UUpDownMoveInfo@ioPrisonWeapon@@V?$allocator@UUpDownMoveInfo@ioPrisonWeapon@@@std@@@std@@QAE?AV?$_Vector_iterator@V?$_Vector_val@UUpDownMoveInfo@ioPrisonWeapon@@V?$allocator@UUpDownMoveInfo@ioPrisonWeapon@@@std@@@std@@@2@XZ ENDP ; std::vector<ioPrisonWeapon::UpDownMoveInfo,std::allocator<ioPrisonWeapon::UpDownMoveInfo> >::begin
_TEXT	ENDS
PUBLIC	?end@?$vector@UUpDownMoveInfo@ioPrisonWeapon@@V?$allocator@UUpDownMoveInfo@ioPrisonWeapon@@@std@@@std@@QAE?AV?$_Vector_iterator@V?$_Vector_val@UUpDownMoveInfo@ioPrisonWeapon@@V?$allocator@UUpDownMoveInfo@ioPrisonWeapon@@@std@@@std@@@2@XZ ; std::vector<ioPrisonWeapon::UpDownMoveInfo,std::allocator<ioPrisonWeapon::UpDownMoveInfo> >::end
; Function compile flags: /Ogsp
;	COMDAT ?end@?$vector@UUpDownMoveInfo@ioPrisonWeapon@@V?$allocator@UUpDownMoveInfo@ioPrisonWeapon@@@std@@@std@@QAE?AV?$_Vector_iterator@V?$_Vector_val@UUpDownMoveInfo@ioPrisonWeapon@@V?$allocator@UUpDownMoveInfo@ioPrisonWeapon@@@std@@@std@@@2@XZ
_TEXT	SEGMENT
___$ReturnUdt$ = 8					; size = 4
?end@?$vector@UUpDownMoveInfo@ioPrisonWeapon@@V?$allocator@UUpDownMoveInfo@ioPrisonWeapon@@@std@@@std@@QAE?AV?$_Vector_iterator@V?$_Vector_val@UUpDownMoveInfo@ioPrisonWeapon@@V?$allocator@UUpDownMoveInfo@ioPrisonWeapon@@@std@@@std@@@2@XZ PROC ; std::vector<ioPrisonWeapon::UpDownMoveInfo,std::allocator<ioPrisonWeapon::UpDownMoveInfo> >::end, COMDAT
; _this$ = ecx

; 791  : 		{	// return iterator for end of mutable sequence

  00000	55		 push	 ebp
  00001	8b ec		 mov	 ebp, esp

; 792  : 		return (iterator(this->_Mylast, this));

  00003	8b 49 04	 mov	 ecx, DWORD PTR [ecx+4]
  00006	8b 45 08	 mov	 eax, DWORD PTR ___$ReturnUdt$[ebp]
  00009	89 08		 mov	 DWORD PTR [eax], ecx

; 793  : 		}

  0000b	5d		 pop	 ebp
  0000c	c2 04 00	 ret	 4
?end@?$vector@UUpDownMoveInfo@ioPrisonWeapon@@V?$allocator@UUpDownMoveInfo@ioPrisonWeapon@@@std@@@std@@QAE?AV?$_Vector_iterator@V?$_Vector_val@UUpDownMoveInfo@ioPrisonWeapon@@V?$allocator@UUpDownMoveInfo@ioPrisonWeapon@@@std@@@std@@@2@XZ ENDP ; std::vector<ioPrisonWeapon::UpDownMoveInfo,std::allocator<ioPrisonWeapon::UpDownMoveInfo> >::end
_TEXT	ENDS
PUBLIC	??0?$vector@UUpDownInfo@ioPrisonWeapon@@V?$allocator@UUpDownInfo@ioPrisonWeapon@@@std@@@std@@QAE@XZ ; std::vector<ioPrisonWeapon::UpDownInfo,std::allocator<ioPrisonWeapon::UpDownInfo> >::vector<ioPrisonWeapon::UpDownInfo,std::allocator<ioPrisonWeapon::UpDownInfo> >
; Function compile flags: /Ogsp
;	COMDAT ??0?$vector@UUpDownInfo@ioPrisonWeapon@@V?$allocator@UUpDownInfo@ioPrisonWeapon@@@std@@@std@@QAE@XZ
_TEXT	SEGMENT
??0?$vector@UUpDownInfo@ioPrisonWeapon@@V?$allocator@UUpDownInfo@ioPrisonWeapon@@@std@@@std@@QAE@XZ PROC ; std::vector<ioPrisonWeapon::UpDownInfo,std::allocator<ioPrisonWeapon::UpDownInfo> >::vector<ioPrisonWeapon::UpDownInfo,std::allocator<ioPrisonWeapon::UpDownInfo> >, COMDAT
; _this$ = ecx

; 507  : 		{	// construct empty vector

  00000	8b c1		 mov	 eax, ecx
  00002	33 c9		 xor	 ecx, ecx
  00004	89 08		 mov	 DWORD PTR [eax], ecx
  00006	89 48 04	 mov	 DWORD PTR [eax+4], ecx
  00009	89 48 08	 mov	 DWORD PTR [eax+8], ecx

; 508  : 		}

  0000c	c3		 ret	 0
??0?$vector@UUpDownInfo@ioPrisonWeapon@@V?$allocator@UUpDownInfo@ioPrisonWeapon@@@std@@@std@@QAE@XZ ENDP ; std::vector<ioPrisonWeapon::UpDownInfo,std::allocator<ioPrisonWeapon::UpDownInfo> >::vector<ioPrisonWeapon::UpDownInfo,std::allocator<ioPrisonWeapon::UpDownInfo> >
_TEXT	ENDS
PUBLIC	??9?$_Vector_const_iterator@V?$_Vector_val@UUpDownMoveInfo@ioPrisonWeapon@@V?$allocator@UUpDownMoveInfo@ioPrisonWeapon@@@std@@@std@@@std@@QBE_NABV01@@Z ; std::_Vector_const_iterator<std::_Vector_val<ioPrisonWeapon::UpDownMoveInfo,std::allocator<ioPrisonWeapon::UpDownMoveInfo> > >::operator!=
; Function compile flags: /Ogsp
;	COMDAT ??9?$_Vector_const_iterator@V?$_Vector_val@UUpDownMoveInfo@ioPrisonWeapon@@V?$allocator@UUpDownMoveInfo@ioPrisonWeapon@@@std@@@std@@@std@@QBE_NABV01@@Z
_TEXT	SEGMENT
__Right$ = 8						; size = 4
??9?$_Vector_const_iterator@V?$_Vector_val@UUpDownMoveInfo@ioPrisonWeapon@@V?$allocator@UUpDownMoveInfo@ioPrisonWeapon@@@std@@@std@@@std@@QBE_NABV01@@Z PROC ; std::_Vector_const_iterator<std::_Vector_val<ioPrisonWeapon::UpDownMoveInfo,std::allocator<ioPrisonWeapon::UpDownMoveInfo> > >::operator!=, COMDAT
; _this$ = ecx

; 207  : 		{	// test for iterator inequality

  00000	55		 push	 ebp
  00001	8b ec		 mov	 ebp, esp

; 208  : 		return (!(*this == _Right));

  00003	8b 01		 mov	 eax, DWORD PTR [ecx]
  00005	8b 55 08	 mov	 edx, DWORD PTR __Right$[ebp]
  00008	33 c9		 xor	 ecx, ecx
  0000a	3b 02		 cmp	 eax, DWORD PTR [edx]
  0000c	0f 95 c0	 setne	 al

; 209  : 		}

  0000f	5d		 pop	 ebp
  00010	c2 04 00	 ret	 4
??9?$_Vector_const_iterator@V?$_Vector_val@UUpDownMoveInfo@ioPrisonWeapon@@V?$allocator@UUpDownMoveInfo@ioPrisonWeapon@@@std@@@std@@@std@@QBE_NABV01@@Z ENDP ; std::_Vector_const_iterator<std::_Vector_val<ioPrisonWeapon::UpDownMoveInfo,std::allocator<ioPrisonWeapon::UpDownMoveInfo> > >::operator!=
_TEXT	ENDS
PUBLIC	?_Buy@?$vector@UUpDownMoveInfo@ioPrisonWeapon@@V?$allocator@UUpDownMoveInfo@ioPrisonWeapon@@@std@@@std@@IAE_NI@Z ; std::vector<ioPrisonWeapon::UpDownMoveInfo,std::allocator<ioPrisonWeapon::UpDownMoveInfo> >::_Buy
; Function compile flags: /Ogsp
;	COMDAT ?_Buy@?$vector@UUpDownMoveInfo@ioPrisonWeapon@@V?$allocator@UUpDownMoveInfo@ioPrisonWeapon@@@std@@@std@@IAE_NI@Z
_TEXT	SEGMENT
__Capacity$ = 8						; size = 4
?_Buy@?$vector@UUpDownMoveInfo@ioPrisonWeapon@@V?$allocator@UUpDownMoveInfo@ioPrisonWeapon@@@std@@@std@@IAE_NI@Z PROC ; std::vector<ioPrisonWeapon::UpDownMoveInfo,std::allocator<ioPrisonWeapon::UpDownMoveInfo> >::_Buy, COMDAT
; _this$ = ecx

; 1250 : 		{	// allocate array with _Capacity elements

  00000	55		 push	 ebp
  00001	8b ec		 mov	 ebp, esp
  00003	56		 push	 esi

; 1251 : 		this->_Myfirst = 0;

  00004	33 c0		 xor	 eax, eax
  00006	57		 push	 edi

; 1252 : 		this->_Mylast = 0;
; 1253 : 		this->_Myend = 0;
; 1254 : 
; 1255 : 		if (_Capacity == 0)

  00007	8b 7d 08	 mov	 edi, DWORD PTR __Capacity$[ebp]
  0000a	8b f1		 mov	 esi, ecx
  0000c	89 06		 mov	 DWORD PTR [esi], eax
  0000e	89 46 04	 mov	 DWORD PTR [esi+4], eax
  00011	89 46 08	 mov	 DWORD PTR [esi+8], eax
  00014	3b f8		 cmp	 edi, eax
  00016	75 04		 jne	 SHORT $LN4@Buy

; 1256 : 			return (false);

  00018	32 c0		 xor	 al, al
  0001a	eb 2b		 jmp	 SHORT $LN5@Buy
$LN4@Buy:

; 1257 : 		else if (max_size() < _Capacity)

  0001c	81 ff 55 55 55
	15		 cmp	 edi, 357913941		; 15555555H
  00022	76 0b		 jbe	 SHORT $LN2@Buy

; 1258 : 			_Xlen();	// result too long

  00024	68 00 00 00 00	 push	 OFFSET ??_C@_0BD@OLBABOEK@vector?$DMT?$DO?5too?5long?$AA@
  00029	ff 15 00 00 00
	00		 call	 DWORD PTR __imp_?_Xlength_error@std@@YAXPBD@Z
$LN19@Buy:
$LN2@Buy:

; 1259 : 		else
; 1260 : 			{	// nonempty array, allocate storage
; 1261 : 			this->_Myfirst = this->_Alval.allocate(_Capacity);

  0002f	50		 push	 eax
  00030	57		 push	 edi
  00031	e8 00 00 00 00	 call	 ??$_Allocate@UUpDownMoveInfo@ioPrisonWeapon@@@std@@YAPAUUpDownMoveInfo@ioPrisonWeapon@@IPAU12@@Z ; std::_Allocate<ioPrisonWeapon::UpDownMoveInfo>

; 1262 : 			this->_Mylast = this->_Myfirst;
; 1263 : 			this->_Myend = this->_Myfirst + _Capacity;

  00036	6b ff 0c	 imul	 edi, 12			; 0000000cH
  00039	03 f8		 add	 edi, eax
  0003b	59		 pop	 ecx
  0003c	89 06		 mov	 DWORD PTR [esi], eax
  0003e	89 46 04	 mov	 DWORD PTR [esi+4], eax
  00041	59		 pop	 ecx
  00042	89 7e 08	 mov	 DWORD PTR [esi+8], edi

; 1264 : 			}
; 1265 : 		return (true);

  00045	b0 01		 mov	 al, 1
$LN5@Buy:
  00047	5f		 pop	 edi
  00048	5e		 pop	 esi

; 1266 : 		}

  00049	5d		 pop	 ebp
  0004a	c2 04 00	 ret	 4
$LN18@Buy:
?_Buy@?$vector@UUpDownMoveInfo@ioPrisonWeapon@@V?$allocator@UUpDownMoveInfo@ioPrisonWeapon@@@std@@@std@@IAE_NI@Z ENDP ; std::vector<ioPrisonWeapon::UpDownMoveInfo,std::allocator<ioPrisonWeapon::UpDownMoveInfo> >::_Buy
_TEXT	ENDS
PUBLIC	?begin@?$vector@UUpDownInfo@ioPrisonWeapon@@V?$allocator@UUpDownInfo@ioPrisonWeapon@@@std@@@std@@QAE?AV?$_Vector_iterator@V?$_Vector_val@UUpDownInfo@ioPrisonWeapon@@V?$allocator@UUpDownInfo@ioPrisonWeapon@@@std@@@std@@@2@XZ ; std::vector<ioPrisonWeapon::UpDownInfo,std::allocator<ioPrisonWeapon::UpDownInfo> >::begin
; Function compile flags: /Ogsp
;	COMDAT ?begin@?$vector@UUpDownInfo@ioPrisonWeapon@@V?$allocator@UUpDownInfo@ioPrisonWeapon@@@std@@@std@@QAE?AV?$_Vector_iterator@V?$_Vector_val@UUpDownInfo@ioPrisonWeapon@@V?$allocator@UUpDownInfo@ioPrisonWeapon@@@std@@@std@@@2@XZ
_TEXT	SEGMENT
___$ReturnUdt$ = 8					; size = 4
?begin@?$vector@UUpDownInfo@ioPrisonWeapon@@V?$allocator@UUpDownInfo@ioPrisonWeapon@@@std@@@std@@QAE?AV?$_Vector_iterator@V?$_Vector_val@UUpDownInfo@ioPrisonWeapon@@V?$allocator@UUpDownInfo@ioPrisonWeapon@@@std@@@std@@@2@XZ PROC ; std::vector<ioPrisonWeapon::UpDownInfo,std::allocator<ioPrisonWeapon::UpDownInfo> >::begin, COMDAT
; _this$ = ecx

; 781  : 		{	// return iterator for beginning of mutable sequence

  00000	55		 push	 ebp
  00001	8b ec		 mov	 ebp, esp

; 782  : 		return (iterator(this->_Myfirst, this));

  00003	8b 09		 mov	 ecx, DWORD PTR [ecx]
  00005	8b 45 08	 mov	 eax, DWORD PTR ___$ReturnUdt$[ebp]
  00008	89 08		 mov	 DWORD PTR [eax], ecx

; 783  : 		}

  0000a	5d		 pop	 ebp
  0000b	c2 04 00	 ret	 4
?begin@?$vector@UUpDownInfo@ioPrisonWeapon@@V?$allocator@UUpDownInfo@ioPrisonWeapon@@@std@@@std@@QAE?AV?$_Vector_iterator@V?$_Vector_val@UUpDownInfo@ioPrisonWeapon@@V?$allocator@UUpDownInfo@ioPrisonWeapon@@@std@@@std@@@2@XZ ENDP ; std::vector<ioPrisonWeapon::UpDownInfo,std::allocator<ioPrisonWeapon::UpDownInfo> >::begin
_TEXT	ENDS
PUBLIC	?end@?$vector@UUpDownInfo@ioPrisonWeapon@@V?$allocator@UUpDownInfo@ioPrisonWeapon@@@std@@@std@@QAE?AV?$_Vector_iterator@V?$_Vector_val@UUpDownInfo@ioPrisonWeapon@@V?$allocator@UUpDownInfo@ioPrisonWeapon@@@std@@@std@@@2@XZ ; std::vector<ioPrisonWeapon::UpDownInfo,std::allocator<ioPrisonWeapon::UpDownInfo> >::end
; Function compile flags: /Ogsp
;	COMDAT ?end@?$vector@UUpDownInfo@ioPrisonWeapon@@V?$allocator@UUpDownInfo@ioPrisonWeapon@@@std@@@std@@QAE?AV?$_Vector_iterator@V?$_Vector_val@UUpDownInfo@ioPrisonWeapon@@V?$allocator@UUpDownInfo@ioPrisonWeapon@@@std@@@std@@@2@XZ
_TEXT	SEGMENT
___$ReturnUdt$ = 8					; size = 4
?end@?$vector@UUpDownInfo@ioPrisonWeapon@@V?$allocator@UUpDownInfo@ioPrisonWeapon@@@std@@@std@@QAE?AV?$_Vector_iterator@V?$_Vector_val@UUpDownInfo@ioPrisonWeapon@@V?$allocator@UUpDownInfo@ioPrisonWeapon@@@std@@@std@@@2@XZ PROC ; std::vector<ioPrisonWeapon::UpDownInfo,std::allocator<ioPrisonWeapon::UpDownInfo> >::end, COMDAT
; _this$ = ecx

; 791  : 		{	// return iterator for end of mutable sequence

  00000	55		 push	 ebp
  00001	8b ec		 mov	 ebp, esp

; 792  : 		return (iterator(this->_Mylast, this));

  00003	8b 49 04	 mov	 ecx, DWORD PTR [ecx+4]
  00006	8b 45 08	 mov	 eax, DWORD PTR ___$ReturnUdt$[ebp]
  00009	89 08		 mov	 DWORD PTR [eax], ecx

; 793  : 		}

  0000b	5d		 pop	 ebp
  0000c	c2 04 00	 ret	 4
?end@?$vector@UUpDownInfo@ioPrisonWeapon@@V?$allocator@UUpDownInfo@ioPrisonWeapon@@@std@@@std@@QAE?AV?$_Vector_iterator@V?$_Vector_val@UUpDownInfo@ioPrisonWeapon@@V?$allocator@UUpDownInfo@ioPrisonWeapon@@@std@@@std@@@2@XZ ENDP ; std::vector<ioPrisonWeapon::UpDownInfo,std::allocator<ioPrisonWeapon::UpDownInfo> >::end
_TEXT	ENDS
PUBLIC	?_Make_iter@?$vector@UUpDownInfo@ioPrisonWeapon@@V?$allocator@UUpDownInfo@ioPrisonWeapon@@@std@@@std@@QBE?AV?$_Vector_iterator@V?$_Vector_val@UUpDownInfo@ioPrisonWeapon@@V?$allocator@UUpDownInfo@ioPrisonWeapon@@@std@@@std@@@2@V?$_Vector_const_iterator@V?$_Vector_val@UUpDownInfo@ioPrisonWeapon@@V?$allocator@UUpDownInfo@ioPrisonWeapon@@@std@@@std@@@2@@Z ; std::vector<ioPrisonWeapon::UpDownInfo,std::allocator<ioPrisonWeapon::UpDownInfo> >::_Make_iter
; Function compile flags: /Ogsp
;	COMDAT ?_Make_iter@?$vector@UUpDownInfo@ioPrisonWeapon@@V?$allocator@UUpDownInfo@ioPrisonWeapon@@@std@@@std@@QBE?AV?$_Vector_iterator@V?$_Vector_val@UUpDownInfo@ioPrisonWeapon@@V?$allocator@UUpDownInfo@ioPrisonWeapon@@@std@@@std@@@2@V?$_Vector_const_iterator@V?$_Vector_val@UUpDownInfo@ioPrisonWeapon@@V?$allocator@UUpDownInfo@ioPrisonWeapon@@@std@@@std@@@2@@Z
_TEXT	SEGMENT
___$ReturnUdt$ = 8					; size = 4
__Where$ = 12						; size = 4
?_Make_iter@?$vector@UUpDownInfo@ioPrisonWeapon@@V?$allocator@UUpDownInfo@ioPrisonWeapon@@@std@@@std@@QBE?AV?$_Vector_iterator@V?$_Vector_val@UUpDownInfo@ioPrisonWeapon@@V?$allocator@UUpDownInfo@ioPrisonWeapon@@@std@@@std@@@2@V?$_Vector_const_iterator@V?$_Vector_val@UUpDownInfo@ioPrisonWeapon@@V?$allocator@UUpDownInfo@ioPrisonWeapon@@@std@@@std@@@2@@Z PROC ; std::vector<ioPrisonWeapon::UpDownInfo,std::allocator<ioPrisonWeapon::UpDownInfo> >::_Make_iter, COMDAT
; _this$ = ecx

; 801  : 		{	// make iterator from const_iterator

  00000	55		 push	 ebp
  00001	8b ec		 mov	 ebp, esp

; 802  : 		return (iterator(_Where._Ptr, this));

  00003	8b 45 08	 mov	 eax, DWORD PTR ___$ReturnUdt$[ebp]
  00006	8b 4d 0c	 mov	 ecx, DWORD PTR __Where$[ebp]
  00009	89 08		 mov	 DWORD PTR [eax], ecx

; 803  : 		}

  0000b	5d		 pop	 ebp
  0000c	c2 08 00	 ret	 8
?_Make_iter@?$vector@UUpDownInfo@ioPrisonWeapon@@V?$allocator@UUpDownInfo@ioPrisonWeapon@@@std@@@std@@QBE?AV?$_Vector_iterator@V?$_Vector_val@UUpDownInfo@ioPrisonWeapon@@V?$allocator@UUpDownInfo@ioPrisonWeapon@@@std@@@std@@@2@V?$_Vector_const_iterator@V?$_Vector_val@UUpDownInfo@ioPrisonWeapon@@V?$allocator@UUpDownInfo@ioPrisonWeapon@@@std@@@std@@@2@@Z ENDP ; std::vector<ioPrisonWeapon::UpDownInfo,std::allocator<ioPrisonWeapon::UpDownInfo> >::_Make_iter
_TEXT	ENDS
PUBLIC	??9?$_Vector_const_iterator@V?$_Vector_val@UUpDownInfo@ioPrisonWeapon@@V?$allocator@UUpDownInfo@ioPrisonWeapon@@@std@@@std@@@std@@QBE_NABV01@@Z ; std::_Vector_const_iterator<std::_Vector_val<ioPrisonWeapon::UpDownInfo,std::allocator<ioPrisonWeapon::UpDownInfo> > >::operator!=
; Function compile flags: /Ogsp
;	COMDAT ??9?$_Vector_const_iterator@V?$_Vector_val@UUpDownInfo@ioPrisonWeapon@@V?$allocator@UUpDownInfo@ioPrisonWeapon@@@std@@@std@@@std@@QBE_NABV01@@Z
_TEXT	SEGMENT
__Right$ = 8						; size = 4
??9?$_Vector_const_iterator@V?$_Vector_val@UUpDownInfo@ioPrisonWeapon@@V?$allocator@UUpDownInfo@ioPrisonWeapon@@@std@@@std@@@std@@QBE_NABV01@@Z PROC ; std::_Vector_const_iterator<std::_Vector_val<ioPrisonWeapon::UpDownInfo,std::allocator<ioPrisonWeapon::UpDownInfo> > >::operator!=, COMDAT
; _this$ = ecx

; 207  : 		{	// test for iterator inequality

  00000	55		 push	 ebp
  00001	8b ec		 mov	 ebp, esp

; 208  : 		return (!(*this == _Right));

  00003	8b 01		 mov	 eax, DWORD PTR [ecx]
  00005	8b 55 08	 mov	 edx, DWORD PTR __Right$[ebp]
  00008	33 c9		 xor	 ecx, ecx
  0000a	3b 02		 cmp	 eax, DWORD PTR [edx]
  0000c	0f 95 c0	 setne	 al

; 209  : 		}

  0000f	5d		 pop	 ebp
  00010	c2 04 00	 ret	 4
??9?$_Vector_const_iterator@V?$_Vector_val@UUpDownInfo@ioPrisonWeapon@@V?$allocator@UUpDownInfo@ioPrisonWeapon@@@std@@@std@@@std@@QBE_NABV01@@Z ENDP ; std::_Vector_const_iterator<std::_Vector_val<ioPrisonWeapon::UpDownInfo,std::allocator<ioPrisonWeapon::UpDownInfo> > >::operator!=
_TEXT	ENDS
PUBLIC	??$_Cons_val@V?$allocator@UUpDownMoveInfo@ioPrisonWeapon@@@std@@UUpDownMoveInfo@ioPrisonWeapon@@ABU34@@std@@YAXAAV?$allocator@UUpDownMoveInfo@ioPrisonWeapon@@@0@PAUUpDownMoveInfo@ioPrisonWeapon@@ABU23@@Z ; std::_Cons_val<std::allocator<ioPrisonWeapon::UpDownMoveInfo>,ioPrisonWeapon::UpDownMoveInfo,ioPrisonWeapon::UpDownMoveInfo const &>
; Function compile flags: /Ogsp
; File c:\program files (x86)\microsoft visual studio 10.0\vc\include\xmemory
;	COMDAT ??$_Cons_val@V?$allocator@UUpDownMoveInfo@ioPrisonWeapon@@@std@@UUpDownMoveInfo@ioPrisonWeapon@@ABU34@@std@@YAXAAV?$allocator@UUpDownMoveInfo@ioPrisonWeapon@@@0@PAUUpDownMoveInfo@ioPrisonWeapon@@ABU23@@Z
_TEXT	SEGMENT
__Alval$ = 8						; size = 4
__Pdest$ = 12						; size = 4
__Src$ = 16						; size = 4
??$_Cons_val@V?$allocator@UUpDownMoveInfo@ioPrisonWeapon@@@std@@UUpDownMoveInfo@ioPrisonWeapon@@ABU34@@std@@YAXAAV?$allocator@UUpDownMoveInfo@ioPrisonWeapon@@@0@PAUUpDownMoveInfo@ioPrisonWeapon@@ABU23@@Z PROC ; std::_Cons_val<std::allocator<ioPrisonWeapon::UpDownMoveInfo>,ioPrisonWeapon::UpDownMoveInfo,ioPrisonWeapon::UpDownMoveInfo const &>, COMDAT

; 279  : 	{	// construct using allocator

  00000	55		 push	 ebp
  00001	8b ec		 mov	 ebp, esp
  00003	57		 push	 edi

; 280  : 	_Alval.construct(_Pdest, _STD forward<_Ty2>(_Src));

  00004	8b 7d 0c	 mov	 edi, DWORD PTR __Pdest$[ebp]
  00007	85 ff		 test	 edi, edi
  00009	74 08		 je	 SHORT $LN9@Cons_val@2
  0000b	56		 push	 esi
  0000c	8b 75 10	 mov	 esi, DWORD PTR __Src$[ebp]
  0000f	a5		 movsd
  00010	a5		 movsd
  00011	a5		 movsd
  00012	5e		 pop	 esi
$LN9@Cons_val@2:
  00013	5f		 pop	 edi

; 281  : 	}

  00014	5d		 pop	 ebp
  00015	c3		 ret	 0
??$_Cons_val@V?$allocator@UUpDownMoveInfo@ioPrisonWeapon@@@std@@UUpDownMoveInfo@ioPrisonWeapon@@ABU34@@std@@YAXAAV?$allocator@UUpDownMoveInfo@ioPrisonWeapon@@@0@PAUUpDownMoveInfo@ioPrisonWeapon@@ABU23@@Z ENDP ; std::_Cons_val<std::allocator<ioPrisonWeapon::UpDownMoveInfo>,ioPrisonWeapon::UpDownMoveInfo,ioPrisonWeapon::UpDownMoveInfo const &>
_TEXT	ENDS
PUBLIC	??$_Dest_val@V?$allocator@UUpDownMoveInfo@ioPrisonWeapon@@@std@@UUpDownMoveInfo@ioPrisonWeapon@@@std@@YAXAAV?$allocator@UUpDownMoveInfo@ioPrisonWeapon@@@0@PAUUpDownMoveInfo@ioPrisonWeapon@@@Z ; std::_Dest_val<std::allocator<ioPrisonWeapon::UpDownMoveInfo>,ioPrisonWeapon::UpDownMoveInfo>
; Function compile flags: /Ogsp
;	COMDAT ??$_Dest_val@V?$allocator@UUpDownMoveInfo@ioPrisonWeapon@@@std@@UUpDownMoveInfo@ioPrisonWeapon@@@std@@YAXAAV?$allocator@UUpDownMoveInfo@ioPrisonWeapon@@@0@PAUUpDownMoveInfo@ioPrisonWeapon@@@Z
_TEXT	SEGMENT
__Alval$ = 8						; size = 4
__Pdest$ = 12						; size = 4
??$_Dest_val@V?$allocator@UUpDownMoveInfo@ioPrisonWeapon@@@std@@UUpDownMoveInfo@ioPrisonWeapon@@@std@@YAXAAV?$allocator@UUpDownMoveInfo@ioPrisonWeapon@@@0@PAUUpDownMoveInfo@ioPrisonWeapon@@@Z PROC ; std::_Dest_val<std::allocator<ioPrisonWeapon::UpDownMoveInfo>,ioPrisonWeapon::UpDownMoveInfo>, COMDAT

; 287  : 	_Alval.destroy(_Pdest);
; 288  : 	}

  00000	c3		 ret	 0
??$_Dest_val@V?$allocator@UUpDownMoveInfo@ioPrisonWeapon@@@std@@UUpDownMoveInfo@ioPrisonWeapon@@@std@@YAXAAV?$allocator@UUpDownMoveInfo@ioPrisonWeapon@@@0@PAUUpDownMoveInfo@ioPrisonWeapon@@@Z ENDP ; std::_Dest_val<std::allocator<ioPrisonWeapon::UpDownMoveInfo>,ioPrisonWeapon::UpDownMoveInfo>
_TEXT	ENDS
PUBLIC	??$_Move@PAUUpDownMoveInfo@ioPrisonWeapon@@PAU12@@std@@YAPAUUpDownMoveInfo@ioPrisonWeapon@@PAU12@00@Z ; std::_Move<ioPrisonWeapon::UpDownMoveInfo *,ioPrisonWeapon::UpDownMoveInfo *>
; Function compile flags: /Ogsp
; File c:\program files (x86)\microsoft visual studio 10.0\vc\include\xutility
;	COMDAT ??$_Move@PAUUpDownMoveInfo@ioPrisonWeapon@@PAU12@@std@@YAPAUUpDownMoveInfo@ioPrisonWeapon@@PAU12@00@Z
_TEXT	SEGMENT
__Cat$538937 = -4					; size = 1
__First$ = 8						; size = 4
__Last$ = 12						; size = 4
__Dest$ = 16						; size = 4
??$_Move@PAUUpDownMoveInfo@ioPrisonWeapon@@PAU12@@std@@YAPAUUpDownMoveInfo@ioPrisonWeapon@@PAU12@00@Z PROC ; std::_Move<ioPrisonWeapon::UpDownMoveInfo *,ioPrisonWeapon::UpDownMoveInfo *>, COMDAT

; 2533 : 	{	// move [_First, _Last) to [_Dest, ...), unchecked

  00000	55		 push	 ebp
  00001	8b ec		 mov	 ebp, esp
  00003	51		 push	 ecx

; 2534 : 	return (_Move(_First, _Last,
; 2535 : 		_Dest, _Ptr_cat(_First, _Dest)));

  00004	ff 75 fc	 push	 DWORD PTR __Cat$538937[ebp]
  00007	ff 75 10	 push	 DWORD PTR __Dest$[ebp]
  0000a	ff 75 0c	 push	 DWORD PTR __Last$[ebp]
  0000d	ff 75 08	 push	 DWORD PTR __First$[ebp]
  00010	e8 00 00 00 00	 call	 ??$_Move@PAUUpDownMoveInfo@ioPrisonWeapon@@PAU12@@std@@YAPAUUpDownMoveInfo@ioPrisonWeapon@@PAU12@00U_Nonscalar_ptr_iterator_tag@0@@Z ; std::_Move<ioPrisonWeapon::UpDownMoveInfo *,ioPrisonWeapon::UpDownMoveInfo *>
  00015	83 c4 10	 add	 esp, 16			; 00000010H

; 2536 : 	}

  00018	c9		 leave
  00019	c3		 ret	 0
??$_Move@PAUUpDownMoveInfo@ioPrisonWeapon@@PAU12@@std@@YAPAUUpDownMoveInfo@ioPrisonWeapon@@PAU12@00@Z ENDP ; std::_Move<ioPrisonWeapon::UpDownMoveInfo *,ioPrisonWeapon::UpDownMoveInfo *>
_TEXT	ENDS
PUBLIC	??$_Cons_val@V?$allocator@UUpDownMoveInfo@ioPrisonWeapon@@@std@@UUpDownMoveInfo@ioPrisonWeapon@@U34@@std@@YAXAAV?$allocator@UUpDownMoveInfo@ioPrisonWeapon@@@0@PAUUpDownMoveInfo@ioPrisonWeapon@@$$QAU23@@Z ; std::_Cons_val<std::allocator<ioPrisonWeapon::UpDownMoveInfo>,ioPrisonWeapon::UpDownMoveInfo,ioPrisonWeapon::UpDownMoveInfo>
; Function compile flags: /Ogsp
; File c:\program files (x86)\microsoft visual studio 10.0\vc\include\xmemory
;	COMDAT ??$_Cons_val@V?$allocator@UUpDownMoveInfo@ioPrisonWeapon@@@std@@UUpDownMoveInfo@ioPrisonWeapon@@U34@@std@@YAXAAV?$allocator@UUpDownMoveInfo@ioPrisonWeapon@@@0@PAUUpDownMoveInfo@ioPrisonWeapon@@$$QAU23@@Z
_TEXT	SEGMENT
__Alval$ = 8						; size = 4
__Pdest$ = 12						; size = 4
__Src$ = 16						; size = 4
??$_Cons_val@V?$allocator@UUpDownMoveInfo@ioPrisonWeapon@@@std@@UUpDownMoveInfo@ioPrisonWeapon@@U34@@std@@YAXAAV?$allocator@UUpDownMoveInfo@ioPrisonWeapon@@@0@PAUUpDownMoveInfo@ioPrisonWeapon@@$$QAU23@@Z PROC ; std::_Cons_val<std::allocator<ioPrisonWeapon::UpDownMoveInfo>,ioPrisonWeapon::UpDownMoveInfo,ioPrisonWeapon::UpDownMoveInfo>, COMDAT

; 279  : 	{	// construct using allocator

  00000	55		 push	 ebp
  00001	8b ec		 mov	 ebp, esp
  00003	57		 push	 edi

; 280  : 	_Alval.construct(_Pdest, _STD forward<_Ty2>(_Src));

  00004	8b 7d 0c	 mov	 edi, DWORD PTR __Pdest$[ebp]
  00007	85 ff		 test	 edi, edi
  00009	74 08		 je	 SHORT $LN7@Cons_val@3
  0000b	56		 push	 esi
  0000c	8b 75 10	 mov	 esi, DWORD PTR __Src$[ebp]
  0000f	a5		 movsd
  00010	a5		 movsd
  00011	a5		 movsd
  00012	5e		 pop	 esi
$LN7@Cons_val@3:
  00013	5f		 pop	 edi

; 281  : 	}

  00014	5d		 pop	 ebp
  00015	c3		 ret	 0
??$_Cons_val@V?$allocator@UUpDownMoveInfo@ioPrisonWeapon@@@std@@UUpDownMoveInfo@ioPrisonWeapon@@U34@@std@@YAXAAV?$allocator@UUpDownMoveInfo@ioPrisonWeapon@@@0@PAUUpDownMoveInfo@ioPrisonWeapon@@$$QAU23@@Z ENDP ; std::_Cons_val<std::allocator<ioPrisonWeapon::UpDownMoveInfo>,ioPrisonWeapon::UpDownMoveInfo,ioPrisonWeapon::UpDownMoveInfo>
_TEXT	ENDS
PUBLIC	??$_Uninit_copy@PAUUpDownMoveInfo@ioPrisonWeapon@@PAU12@V?$allocator@UUpDownMoveInfo@ioPrisonWeapon@@@std@@@std@@YAPAUUpDownMoveInfo@ioPrisonWeapon@@PAU12@00AAV?$allocator@UUpDownMoveInfo@ioPrisonWeapon@@@0@U_Nonscalar_ptr_iterator_tag@0@@Z ; std::_Uninit_copy<ioPrisonWeapon::UpDownMoveInfo *,ioPrisonWeapon::UpDownMoveInfo *,std::allocator<ioPrisonWeapon::UpDownMoveInfo> >
; Function compile flags: /Ogsp
; File c:\program files (x86)\microsoft visual studio 10.0\vc\include\memory
;	COMDAT ??$_Uninit_copy@PAUUpDownMoveInfo@ioPrisonWeapon@@PAU12@V?$allocator@UUpDownMoveInfo@ioPrisonWeapon@@@std@@@std@@YAPAUUpDownMoveInfo@ioPrisonWeapon@@PAU12@00AAV?$allocator@UUpDownMoveInfo@ioPrisonWeapon@@@0@U_Nonscalar_ptr_iterator_tag@0@@Z
_TEXT	SEGMENT
__First$ = 8						; size = 4
__Last$ = 12						; size = 4
__Dest$ = 16						; size = 4
__Al$ = 20						; size = 4
___formal$ = 24						; size = 1
??$_Uninit_copy@PAUUpDownMoveInfo@ioPrisonWeapon@@PAU12@V?$allocator@UUpDownMoveInfo@ioPrisonWeapon@@@std@@@std@@YAPAUUpDownMoveInfo@ioPrisonWeapon@@PAU12@00AAV?$allocator@UUpDownMoveInfo@ioPrisonWeapon@@@0@U_Nonscalar_ptr_iterator_tag@0@@Z PROC ; std::_Uninit_copy<ioPrisonWeapon::UpDownMoveInfo *,ioPrisonWeapon::UpDownMoveInfo *,std::allocator<ioPrisonWeapon::UpDownMoveInfo> >, COMDAT

; 369  : 	{	// copy [_First, _Last) to raw _Dest, using _Al, arbitrary type

  00000	55		 push	 ebp
  00001	8b ec		 mov	 ebp, esp
  00003	56		 push	 esi

; 370  : 	_DEBUG_RANGE(_First, _Last);
; 371  : 	_DEBUG_POINTER(_Dest);
; 372  : 	_FwdIt _Next = _Dest;
; 373  : 
; 374  : 	_TRY_BEGIN
; 375  : 	for (; _First != _Last; ++_Dest, ++_First)

  00004	8b 75 08	 mov	 esi, DWORD PTR __First$[ebp]
  00007	eb 16		 jmp	 SHORT $LN24@Uninit_cop
$LL6@Uninit_cop:

; 376  : 		_Cons_val(_Al, _Dest, *_First);

  00009	56		 push	 esi
  0000a	ff 75 10	 push	 DWORD PTR __Dest$[ebp]
  0000d	ff 75 14	 push	 DWORD PTR __Al$[ebp]
  00010	e8 00 00 00 00	 call	 ??$_Cons_val@V?$allocator@UUpDownMoveInfo@ioPrisonWeapon@@@std@@UUpDownMoveInfo@ioPrisonWeapon@@AAU34@@std@@YAXAAV?$allocator@UUpDownMoveInfo@ioPrisonWeapon@@@0@PAUUpDownMoveInfo@ioPrisonWeapon@@AAU23@@Z ; std::_Cons_val<std::allocator<ioPrisonWeapon::UpDownMoveInfo>,ioPrisonWeapon::UpDownMoveInfo,ioPrisonWeapon::UpDownMoveInfo &>
  00015	83 45 10 0c	 add	 DWORD PTR __Dest$[ebp], 12 ; 0000000cH
  00019	83 c4 0c	 add	 esp, 12			; 0000000cH
  0001c	83 c6 0c	 add	 esi, 12			; 0000000cH
$LN24@Uninit_cop:

; 370  : 	_DEBUG_RANGE(_First, _Last);
; 371  : 	_DEBUG_POINTER(_Dest);
; 372  : 	_FwdIt _Next = _Dest;
; 373  : 
; 374  : 	_TRY_BEGIN
; 375  : 	for (; _First != _Last; ++_Dest, ++_First)

  0001f	3b 75 0c	 cmp	 esi, DWORD PTR __Last$[ebp]
  00022	75 e5		 jne	 SHORT $LL6@Uninit_cop

; 377  : 	_CATCH_ALL
; 378  : 	for (; _Next != _Dest; ++_Next)
; 379  : 		_Dest_val(_Al, _Next);
; 380  : 	_RERAISE;
; 381  : 	_CATCH_END
; 382  : 	return (_Dest);

  00024	8b 45 10	 mov	 eax, DWORD PTR __Dest$[ebp]
  00027	5e		 pop	 esi

; 383  : 	}

  00028	5d		 pop	 ebp
  00029	c3		 ret	 0
??$_Uninit_copy@PAUUpDownMoveInfo@ioPrisonWeapon@@PAU12@V?$allocator@UUpDownMoveInfo@ioPrisonWeapon@@@std@@@std@@YAPAUUpDownMoveInfo@ioPrisonWeapon@@PAU12@00AAV?$allocator@UUpDownMoveInfo@ioPrisonWeapon@@@0@U_Nonscalar_ptr_iterator_tag@0@@Z ENDP ; std::_Uninit_copy<ioPrisonWeapon::UpDownMoveInfo *,ioPrisonWeapon::UpDownMoveInfo *,std::allocator<ioPrisonWeapon::UpDownMoveInfo> >
_TEXT	ENDS
PUBLIC	?GetTeam@ioPlayEntity@@QBE?AW4TeamType@@XZ	; ioPlayEntity::GetTeam
; Function compile flags: /Ogsp
; File d:\lost saga for developer\youtube\tutorial\source\src\lsclient\ioplayentity.h
;	COMDAT ?GetTeam@ioPlayEntity@@QBE?AW4TeamType@@XZ
_TEXT	SEGMENT
_value$538997 = -4					; size = 4
?GetTeam@ioPlayEntity@@QBE?AW4TeamType@@XZ PROC		; ioPlayEntity::GetTeam, COMDAT
; _this$ = ecx

; 107  : 	inline TeamType GetTeam() const { return m_TeamType; }

  00000	55		 push	 ebp
  00001	8b ec		 mov	 ebp, esp
  00003	51		 push	 ecx
  00004	8d 45 fc	 lea	 eax, DWORD PTR _value$538997[ebp]
  00007	50		 push	 eax
  00008	81 c1 90 00 00
	00		 add	 ecx, 144		; 00000090H
  0000e	e8 00 00 00 00	 call	 ?DecryptValueToPool@?$CEncrypt@W4TeamType@@@@QAEXPAW4TeamType@@@Z ; CEncrypt<enum TeamType>::DecryptValueToPool
  00013	8b 45 fc	 mov	 eax, DWORD PTR _value$538997[ebp]
  00016	c9		 leave
  00017	c3		 ret	 0
?GetTeam@ioPlayEntity@@QBE?AW4TeamType@@XZ ENDP		; ioPlayEntity::GetTeam
_TEXT	ENDS
PUBLIC	__$ArrayPad$
PUBLIC	?CreateDealyEffect@ioPrisonWeapon@@QAEXMPAVioPlayStage@@@Z ; ioPrisonWeapon::CreateDealyEffect
EXTRN	?GetUniqueID@ioMapEffect@@QBEKXZ:PROC		; ioMapEffect::GetUniqueID
; Function compile flags: /Ogsp
; File d:\lost saga for developer\youtube\tutorial\source\src\lsclient\ioprisonweapon.cpp
;	COMDAT ?CreateDealyEffect@ioPrisonWeapon@@QAEXMPAVioPlayStage@@@Z
_TEXT	SEGMENT
tv249 = -32						; size = 4
tv246 = -32						; size = 4
tv243 = -32						; size = 4
tv235 = -32						; size = 4
tv232 = -32						; size = 4
tv229 = -32						; size = 4
_value$539011 = -32					; size = 4
$T532217 = -28						; size = 12
$T532212 = -16						; size = 12
__$ArrayPad$ = -4					; size = 4
_fTimePerSec$ = 8					; size = 4
_pStage$ = 12						; size = 4
?CreateDealyEffect@ioPrisonWeapon@@QAEXMPAVioPlayStage@@@Z PROC ; ioPrisonWeapon::CreateDealyEffect, COMDAT
; _this$ = ecx

; 231  : {

  00000	55		 push	 ebp
  00001	8b ec		 mov	 ebp, esp
  00003	83 ec 20	 sub	 esp, 32			; 00000020H
  00006	a1 00 00 00 00	 mov	 eax, DWORD PTR ___security_cookie
  0000b	33 c5		 xor	 eax, ebp
  0000d	89 45 fc	 mov	 DWORD PTR __$ArrayPad$[ebp], eax
  00010	56		 push	 esi
  00011	57		 push	 edi
  00012	8b 7d 0c	 mov	 edi, DWORD PTR _pStage$[ebp]
  00015	8b f1		 mov	 esi, ecx

; 232  : 	if( !pStage )

  00017	85 ff		 test	 edi, edi
  00019	0f 84 fe 00 00
	00		 je	 $LN1@CreateDeal

; 233  : 		return;
; 234  : 	
; 235  : 	if( !GetOwner() )

  0001f	e8 00 00 00 00	 call	 ?GetOwner@ioWeapon@@QBEPAVioBaseChar@@XZ ; ioWeapon::GetOwner
  00024	85 c0		 test	 eax, eax
  00026	0f 84 f1 00 00
	00		 je	 $LN1@CreateDeal

; 236  : 		return;
; 237  : 
; 238  : 	ioMapEffect* pMapEffect = NULL;
; 239  : 	if( GetOwner()->GetTeam() == TEAM_BLUE )

  0002c	8b ce		 mov	 ecx, esi
  0002e	e8 00 00 00 00	 call	 ?GetOwner@ioWeapon@@QBEPAVioBaseChar@@XZ ; ioWeapon::GetOwner
  00033	8d 4d e0	 lea	 ecx, DWORD PTR _value$539011[ebp]
  00036	51		 push	 ecx
  00037	8d 88 90 00 00
	00		 lea	 ecx, DWORD PTR [eax+144]
  0003d	e8 00 00 00 00	 call	 ?DecryptValueToPool@?$CEncrypt@W4TeamType@@@@QAEXPAW4TeamType@@@Z ; CEncrypt<enum TeamType>::DecryptValueToPool
  00042	83 7d e0 02	 cmp	 DWORD PTR _value$539011[ebp], 2
  00046	75 5f		 jne	 SHORT $LN3@CreateDeal

; 240  : 		pMapEffect = pStage->CreateMapEffect( m_szBlueDealyEffect, m_vPrisionPos, D3DXVECTOR3( FLOAT1, FLOAT1, FLOAT1 ) );

  00048	b8 01 00 00 00	 mov	 eax, 1
  0004d	8b c8		 mov	 ecx, eax
  0004f	b8 01 00 00 00	 mov	 eax, 1
  00054	8b d0		 mov	 edx, eax
  00056	b8 01 00 00 00	 mov	 eax, 1
  0005b	89 45 e0	 mov	 DWORD PTR tv249[ebp], eax
  0005e	db 45 e0	 fild	 DWORD PTR tv249[ebp]
  00061	85 c0		 test	 eax, eax
  00063	79 06		 jns	 SHORT $LN28@CreateDeal
  00065	d8 05 00 00 00
	00		 fadd	 DWORD PTR __real@4f800000
$LN28@CreateDeal:
  0006b	d9 5d f0	 fstp	 DWORD PTR $T532212[ebp]
  0006e	89 55 e0	 mov	 DWORD PTR tv246[ebp], edx
  00071	db 45 e0	 fild	 DWORD PTR tv246[ebp]
  00074	85 d2		 test	 edx, edx
  00076	79 06		 jns	 SHORT $LN29@CreateDeal
  00078	d8 05 00 00 00
	00		 fadd	 DWORD PTR __real@4f800000
$LN29@CreateDeal:
  0007e	d9 5d f4	 fstp	 DWORD PTR $T532212[ebp+4]
  00081	89 4d e0	 mov	 DWORD PTR tv243[ebp], ecx
  00084	db 45 e0	 fild	 DWORD PTR tv243[ebp]
  00087	85 c9		 test	 ecx, ecx
  00089	79 06		 jns	 SHORT $LN30@CreateDeal
  0008b	d8 05 00 00 00
	00		 fadd	 DWORD PTR __real@4f800000
$LN30@CreateDeal:
  00091	8d 45 f0	 lea	 eax, DWORD PTR $T532212[ebp]
  00094	d9 5d f8	 fstp	 DWORD PTR $T532212[ebp+8]
  00097	50		 push	 eax
  00098	8d 86 b4 08 00
	00		 lea	 eax, DWORD PTR [esi+2228]
  0009e	50		 push	 eax
  0009f	8d 86 34 09 00
	00		 lea	 eax, DWORD PTR [esi+2356]

; 241  : 	else

  000a5	eb 5d		 jmp	 SHORT $LN34@CreateDeal
$LN3@CreateDeal:

; 242  : 		pMapEffect = pStage->CreateMapEffect( m_szRedDealyEffect, m_vPrisionPos, D3DXVECTOR3( FLOAT1, FLOAT1, FLOAT1 ) );

  000a7	b8 01 00 00 00	 mov	 eax, 1
  000ac	8b c8		 mov	 ecx, eax
  000ae	b8 01 00 00 00	 mov	 eax, 1
  000b3	8b d0		 mov	 edx, eax
  000b5	b8 01 00 00 00	 mov	 eax, 1
  000ba	89 45 e0	 mov	 DWORD PTR tv235[ebp], eax
  000bd	db 45 e0	 fild	 DWORD PTR tv235[ebp]
  000c0	85 c0		 test	 eax, eax
  000c2	79 06		 jns	 SHORT $LN31@CreateDeal
  000c4	d8 05 00 00 00
	00		 fadd	 DWORD PTR __real@4f800000
$LN31@CreateDeal:
  000ca	d9 5d e4	 fstp	 DWORD PTR $T532217[ebp]
  000cd	89 55 e0	 mov	 DWORD PTR tv232[ebp], edx
  000d0	db 45 e0	 fild	 DWORD PTR tv232[ebp]
  000d3	85 d2		 test	 edx, edx
  000d5	79 06		 jns	 SHORT $LN32@CreateDeal
  000d7	d8 05 00 00 00
	00		 fadd	 DWORD PTR __real@4f800000
$LN32@CreateDeal:
  000dd	d9 5d e8	 fstp	 DWORD PTR $T532217[ebp+4]
  000e0	89 4d e0	 mov	 DWORD PTR tv229[ebp], ecx
  000e3	db 45 e0	 fild	 DWORD PTR tv229[ebp]
  000e6	85 c9		 test	 ecx, ecx
  000e8	79 06		 jns	 SHORT $LN33@CreateDeal
  000ea	d8 05 00 00 00
	00		 fadd	 DWORD PTR __real@4f800000
$LN33@CreateDeal:
  000f0	8d 45 e4	 lea	 eax, DWORD PTR $T532217[ebp]
  000f3	d9 5d ec	 fstp	 DWORD PTR $T532217[ebp+8]
  000f6	50		 push	 eax
  000f7	8d 86 b4 08 00
	00		 lea	 eax, DWORD PTR [esi+2228]
  000fd	50		 push	 eax
  000fe	8d 86 24 09 00
	00		 lea	 eax, DWORD PTR [esi+2340]
$LN34@CreateDeal:
  00104	50		 push	 eax
  00105	8b cf		 mov	 ecx, edi
  00107	e8 00 00 00 00	 call	 ?CreateMapEffect@ioPlayStage@@QAEPAVioMapEffect@@ABVioHashString@@ABUD3DXVECTOR3@@1@Z ; ioPlayStage::CreateMapEffect

; 243  : 
; 244  : 	if( pMapEffect )

  0010c	85 c0		 test	 eax, eax
  0010e	74 0d		 je	 SHORT $LN1@CreateDeal

; 245  : 		m_PrisonEffectID2 = pMapEffect->GetUniqueID();

  00110	8b c8		 mov	 ecx, eax
  00112	e8 00 00 00 00	 call	 ?GetUniqueID@ioMapEffect@@QBEKXZ ; ioMapEffect::GetUniqueID
  00117	89 86 78 09 00
	00		 mov	 DWORD PTR [esi+2424], eax
$LN1@CreateDeal:

; 246  : }

  0011d	8b 4d fc	 mov	 ecx, DWORD PTR __$ArrayPad$[ebp]
  00120	5f		 pop	 edi
  00121	33 cd		 xor	 ecx, ebp
  00123	5e		 pop	 esi
  00124	e8 00 00 00 00	 call	 @__security_check_cookie@4
  00129	c9		 leave
  0012a	c2 08 00	 ret	 8
?CreateDealyEffect@ioPrisonWeapon@@QAEXMPAVioPlayStage@@@Z ENDP ; ioPrisonWeapon::CreateDealyEffect
_TEXT	ENDS
PUBLIC	__$ArrayPad$
PUBLIC	?CreatePrisonEffect@ioPrisonWeapon@@QAEXMPAVioPlayStage@@@Z ; ioPrisonWeapon::CreatePrisonEffect
; Function compile flags: /Ogsp
;	COMDAT ?CreatePrisonEffect@ioPrisonWeapon@@QAEXMPAVioPlayStage@@@Z
_TEXT	SEGMENT
tv251 = -32						; size = 4
tv248 = -32						; size = 4
tv245 = -32						; size = 4
tv236 = -32						; size = 4
tv233 = -32						; size = 4
tv230 = -32						; size = 4
_value$539066 = -32					; size = 4
$T532236 = -28						; size = 12
$T532231 = -16						; size = 12
__$ArrayPad$ = -4					; size = 4
_fTimePerSec$ = 8					; size = 4
_pStage$ = 12						; size = 4
?CreatePrisonEffect@ioPrisonWeapon@@QAEXMPAVioPlayStage@@@Z PROC ; ioPrisonWeapon::CreatePrisonEffect, COMDAT
; _this$ = ecx

; 249  : {

  00000	55		 push	 ebp
  00001	8b ec		 mov	 ebp, esp
  00003	83 ec 20	 sub	 esp, 32			; 00000020H
  00006	a1 00 00 00 00	 mov	 eax, DWORD PTR ___security_cookie
  0000b	33 c5		 xor	 eax, ebp
  0000d	89 45 fc	 mov	 DWORD PTR __$ArrayPad$[ebp], eax
  00010	56		 push	 esi
  00011	57		 push	 edi
  00012	8b 7d 0c	 mov	 edi, DWORD PTR _pStage$[ebp]
  00015	8b f1		 mov	 esi, ecx

; 250  : 	if( !pStage )

  00017	85 ff		 test	 edi, edi
  00019	0f 84 00 01 00
	00		 je	 $LN1@CreatePris

; 251  : 		return;
; 252  : 	
; 253  : 	if( !GetOwner() )

  0001f	e8 00 00 00 00	 call	 ?GetOwner@ioWeapon@@QBEPAVioBaseChar@@XZ ; ioWeapon::GetOwner
  00024	85 c0		 test	 eax, eax
  00026	0f 84 f3 00 00
	00		 je	 $LN1@CreatePris

; 254  : 		return;
; 255  : 
; 256  : 	ioMapEffect* pMapEffect = NULL;
; 257  : 	if( GetOwner()->GetTeam() == TEAM_BLUE )

  0002c	8b ce		 mov	 ecx, esi
  0002e	e8 00 00 00 00	 call	 ?GetOwner@ioWeapon@@QBEPAVioBaseChar@@XZ ; ioWeapon::GetOwner
  00033	8d 4d e0	 lea	 ecx, DWORD PTR _value$539066[ebp]
  00036	51		 push	 ecx
  00037	8d 88 90 00 00
	00		 lea	 ecx, DWORD PTR [eax+144]
  0003d	e8 00 00 00 00	 call	 ?DecryptValueToPool@?$CEncrypt@W4TeamType@@@@QAEXPAW4TeamType@@@Z ; CEncrypt<enum TeamType>::DecryptValueToPool
  00042	83 7d e0 02	 cmp	 DWORD PTR _value$539066[ebp], 2
  00046	75 60		 jne	 SHORT $LN3@CreatePris

; 258  : 		pMapEffect = pStage->CreateMapEffect( m_szBluePrisonEffect, GetPosition(), D3DXVECTOR3( FLOAT1, FLOAT1, FLOAT1 ) );

  00048	b8 01 00 00 00	 mov	 eax, 1
  0004d	8b c8		 mov	 ecx, eax
  0004f	b8 01 00 00 00	 mov	 eax, 1
  00054	8b d0		 mov	 edx, eax
  00056	b8 01 00 00 00	 mov	 eax, 1
  0005b	89 45 e0	 mov	 DWORD PTR tv251[ebp], eax
  0005e	db 45 e0	 fild	 DWORD PTR tv251[ebp]
  00061	85 c0		 test	 eax, eax
  00063	79 06		 jns	 SHORT $LN28@CreatePris
  00065	d8 05 00 00 00
	00		 fadd	 DWORD PTR __real@4f800000
$LN28@CreatePris:
  0006b	d9 5d f0	 fstp	 DWORD PTR $T532231[ebp]
  0006e	89 55 e0	 mov	 DWORD PTR tv248[ebp], edx
  00071	db 45 e0	 fild	 DWORD PTR tv248[ebp]
  00074	85 d2		 test	 edx, edx
  00076	79 06		 jns	 SHORT $LN29@CreatePris
  00078	d8 05 00 00 00
	00		 fadd	 DWORD PTR __real@4f800000
$LN29@CreatePris:
  0007e	d9 5d f4	 fstp	 DWORD PTR $T532231[ebp+4]
  00081	89 4d e0	 mov	 DWORD PTR tv245[ebp], ecx
  00084	db 45 e0	 fild	 DWORD PTR tv245[ebp]
  00087	85 c9		 test	 ecx, ecx
  00089	79 06		 jns	 SHORT $LN30@CreatePris
  0008b	d8 05 00 00 00
	00		 fadd	 DWORD PTR __real@4f800000
$LN30@CreatePris:
  00091	8d 45 f0	 lea	 eax, DWORD PTR $T532231[ebp]
  00094	d9 5d f8	 fstp	 DWORD PTR $T532231[ebp+8]
  00097	50		 push	 eax
  00098	8b 06		 mov	 eax, DWORD PTR [esi]
  0009a	8b ce		 mov	 ecx, esi
  0009c	ff 50 70	 call	 DWORD PTR [eax+112]
  0009f	50		 push	 eax
  000a0	8d 86 54 09 00
	00		 lea	 eax, DWORD PTR [esi+2388]

; 259  : 	else

  000a6	eb 5e		 jmp	 SHORT $LN34@CreatePris
$LN3@CreatePris:

; 260  : 		pMapEffect = pStage->CreateMapEffect( m_szRedPrisonEffect, GetPosition(), D3DXVECTOR3( FLOAT1, FLOAT1, FLOAT1 ) );

  000a8	b8 01 00 00 00	 mov	 eax, 1
  000ad	8b c8		 mov	 ecx, eax
  000af	b8 01 00 00 00	 mov	 eax, 1
  000b4	8b d0		 mov	 edx, eax
  000b6	b8 01 00 00 00	 mov	 eax, 1
  000bb	89 45 e0	 mov	 DWORD PTR tv236[ebp], eax
  000be	db 45 e0	 fild	 DWORD PTR tv236[ebp]
  000c1	85 c0		 test	 eax, eax
  000c3	79 06		 jns	 SHORT $LN31@CreatePris
  000c5	d8 05 00 00 00
	00		 fadd	 DWORD PTR __real@4f800000
$LN31@CreatePris:
  000cb	d9 5d e4	 fstp	 DWORD PTR $T532236[ebp]
  000ce	89 55 e0	 mov	 DWORD PTR tv233[ebp], edx
  000d1	db 45 e0	 fild	 DWORD PTR tv233[ebp]
  000d4	85 d2		 test	 edx, edx
  000d6	79 06		 jns	 SHORT $LN32@CreatePris
  000d8	d8 05 00 00 00
	00		 fadd	 DWORD PTR __real@4f800000
$LN32@CreatePris:
  000de	d9 5d e8	 fstp	 DWORD PTR $T532236[ebp+4]
  000e1	89 4d e0	 mov	 DWORD PTR tv230[ebp], ecx
  000e4	db 45 e0	 fild	 DWORD PTR tv230[ebp]
  000e7	85 c9		 test	 ecx, ecx
  000e9	79 06		 jns	 SHORT $LN33@CreatePris
  000eb	d8 05 00 00 00
	00		 fadd	 DWORD PTR __real@4f800000
$LN33@CreatePris:
  000f1	8d 45 e4	 lea	 eax, DWORD PTR $T532236[ebp]
  000f4	d9 5d ec	 fstp	 DWORD PTR $T532236[ebp+8]
  000f7	50		 push	 eax
  000f8	8b 06		 mov	 eax, DWORD PTR [esi]
  000fa	8b ce		 mov	 ecx, esi
  000fc	ff 50 70	 call	 DWORD PTR [eax+112]
  000ff	50		 push	 eax
  00100	8d 86 44 09 00
	00		 lea	 eax, DWORD PTR [esi+2372]
$LN34@CreatePris:
  00106	50		 push	 eax
  00107	8b cf		 mov	 ecx, edi
  00109	e8 00 00 00 00	 call	 ?CreateMapEffect@ioPlayStage@@QAEPAVioMapEffect@@ABVioHashString@@ABUD3DXVECTOR3@@1@Z ; ioPlayStage::CreateMapEffect

; 261  : 
; 262  : 	if( pMapEffect )

  0010e	85 c0		 test	 eax, eax
  00110	74 0d		 je	 SHORT $LN1@CreatePris

; 263  : 		m_PrisonEffectID = pMapEffect->GetUniqueID();

  00112	8b c8		 mov	 ecx, eax
  00114	e8 00 00 00 00	 call	 ?GetUniqueID@ioMapEffect@@QBEKXZ ; ioMapEffect::GetUniqueID
  00119	89 86 74 09 00
	00		 mov	 DWORD PTR [esi+2420], eax
$LN1@CreatePris:

; 264  : }

  0011f	8b 4d fc	 mov	 ecx, DWORD PTR __$ArrayPad$[ebp]
  00122	5f		 pop	 edi
  00123	33 cd		 xor	 ecx, ebp
  00125	5e		 pop	 esi
  00126	e8 00 00 00 00	 call	 @__security_check_cookie@4
  0012b	c9		 leave
  0012c	c2 08 00	 ret	 8
?CreatePrisonEffect@ioPrisonWeapon@@QAEXMPAVioPlayStage@@@Z ENDP ; ioPrisonWeapon::CreatePrisonEffect
_TEXT	ENDS
PUBLIC	??$_Destroy_range@V?$allocator@UUpDownMoveInfo@ioPrisonWeapon@@@std@@@std@@YAXPAUUpDownMoveInfo@ioPrisonWeapon@@0AAV?$allocator@UUpDownMoveInfo@ioPrisonWeapon@@@0@U_Nonscalar_ptr_iterator_tag@0@@Z ; std::_Destroy_range<std::allocator<ioPrisonWeapon::UpDownMoveInfo> >
; Function compile flags: /Ogsp
; File c:\program files (x86)\microsoft visual studio 10.0\vc\include\xmemory
;	COMDAT ??$_Destroy_range@V?$allocator@UUpDownMoveInfo@ioPrisonWeapon@@@std@@@std@@YAXPAUUpDownMoveInfo@ioPrisonWeapon@@0AAV?$allocator@UUpDownMoveInfo@ioPrisonWeapon@@@0@U_Nonscalar_ptr_iterator_tag@0@@Z
_TEXT	SEGMENT
__First$ = 8						; size = 4
__Last$ = 12						; size = 4
__Al$ = 16						; size = 4
___formal$ = 20						; size = 1
??$_Destroy_range@V?$allocator@UUpDownMoveInfo@ioPrisonWeapon@@@std@@@std@@YAXPAUUpDownMoveInfo@ioPrisonWeapon@@0AAV?$allocator@UUpDownMoveInfo@ioPrisonWeapon@@@0@U_Nonscalar_ptr_iterator_tag@0@@Z PROC ; std::_Destroy_range<std::allocator<ioPrisonWeapon::UpDownMoveInfo> >, COMDAT

; 96   : 	for (; _First != _Last; ++_First)
; 97   : 		_Dest_val(_Al, _First);
; 98   : 	}

  00000	c3		 ret	 0
??$_Destroy_range@V?$allocator@UUpDownMoveInfo@ioPrisonWeapon@@@std@@@std@@YAXPAUUpDownMoveInfo@ioPrisonWeapon@@0AAV?$allocator@UUpDownMoveInfo@ioPrisonWeapon@@@0@U_Nonscalar_ptr_iterator_tag@0@@Z ENDP ; std::_Destroy_range<std::allocator<ioPrisonWeapon::UpDownMoveInfo> >
_TEXT	ENDS
PUBLIC	??$_Uninit_copy@V?$_Vector_const_iterator@V?$_Vector_val@UUpDownMoveInfo@ioPrisonWeapon@@V?$allocator@UUpDownMoveInfo@ioPrisonWeapon@@@std@@@std@@@std@@PAUUpDownMoveInfo@ioPrisonWeapon@@V?$allocator@UUpDownMoveInfo@ioPrisonWeapon@@@2@@std@@YAPAUUpDownMoveInfo@ioPrisonWeapon@@V?$_Vector_const_iterator@V?$_Vector_val@UUpDownMoveInfo@ioPrisonWeapon@@V?$allocator@UUpDownMoveInfo@ioPrisonWeapon@@@std@@@std@@@0@0PAU12@AAV?$allocator@UUpDownMoveInfo@ioPrisonWeapon@@@0@U_Nonscalar_ptr_iterator_tag@0@@Z ; std::_Uninit_copy<std::_Vector_const_iterator<std::_Vector_val<ioPrisonWeapon::UpDownMoveInfo,std::allocator<ioPrisonWeapon::UpDownMoveInfo> > >,ioPrisonWeapon::UpDownMoveInfo *,std::allocator<ioPrisonWeapon::UpDownMoveInfo> >
; Function compile flags: /Ogsp
; File c:\program files (x86)\microsoft visual studio 10.0\vc\include\memory
;	COMDAT ??$_Uninit_copy@V?$_Vector_const_iterator@V?$_Vector_val@UUpDownMoveInfo@ioPrisonWeapon@@V?$allocator@UUpDownMoveInfo@ioPrisonWeapon@@@std@@@std@@@std@@PAUUpDownMoveInfo@ioPrisonWeapon@@V?$allocator@UUpDownMoveInfo@ioPrisonWeapon@@@2@@std@@YAPAUUpDownMoveInfo@ioPrisonWeapon@@V?$_Vector_const_iterator@V?$_Vector_val@UUpDownMoveInfo@ioPrisonWeapon@@V?$allocator@UUpDownMoveInfo@ioPrisonWeapon@@@std@@@std@@@0@0PAU12@AAV?$allocator@UUpDownMoveInfo@ioPrisonWeapon@@@0@U_Nonscalar_ptr_iterator_tag@0@@Z
_TEXT	SEGMENT
__First$ = 8						; size = 4
__Last$ = 12						; size = 4
__Dest$ = 16						; size = 4
__Al$ = 20						; size = 4
___formal$ = 24						; size = 1
??$_Uninit_copy@V?$_Vector_const_iterator@V?$_Vector_val@UUpDownMoveInfo@ioPrisonWeapon@@V?$allocator@UUpDownMoveInfo@ioPrisonWeapon@@@std@@@std@@@std@@PAUUpDownMoveInfo@ioPrisonWeapon@@V?$allocator@UUpDownMoveInfo@ioPrisonWeapon@@@2@@std@@YAPAUUpDownMoveInfo@ioPrisonWeapon@@V?$_Vector_const_iterator@V?$_Vector_val@UUpDownMoveInfo@ioPrisonWeapon@@V?$allocator@UUpDownMoveInfo@ioPrisonWeapon@@@std@@@std@@@0@0PAU12@AAV?$allocator@UUpDownMoveInfo@ioPrisonWeapon@@@0@U_Nonscalar_ptr_iterator_tag@0@@Z PROC ; std::_Uninit_copy<std::_Vector_const_iterator<std::_Vector_val<ioPrisonWeapon::UpDownMoveInfo,std::allocator<ioPrisonWeapon::UpDownMoveInfo> > >,ioPrisonWeapon::UpDownMoveInfo *,std::allocator<ioPrisonWeapon::UpDownMoveInfo> >, COMDAT

; 369  : 	{	// copy [_First, _Last) to raw _Dest, using _Al, arbitrary type

  00000	55		 push	 ebp
  00001	8b ec		 mov	 ebp, esp

; 370  : 	_DEBUG_RANGE(_First, _Last);
; 371  : 	_DEBUG_POINTER(_Dest);
; 372  : 	_FwdIt _Next = _Dest;
; 373  : 
; 374  : 	_TRY_BEGIN
; 375  : 	for (; _First != _Last; ++_Dest, ++_First)

  00003	eb 19		 jmp	 SHORT $LN35@Uninit_cop@2
$LL14@Uninit_cop@2:

; 376  : 		_Cons_val(_Al, _Dest, *_First);

  00005	ff 75 08	 push	 DWORD PTR __First$[ebp]
  00008	ff 75 10	 push	 DWORD PTR __Dest$[ebp]
  0000b	ff 75 14	 push	 DWORD PTR __Al$[ebp]
  0000e	e8 00 00 00 00	 call	 ??$_Cons_val@V?$allocator@UUpDownMoveInfo@ioPrisonWeapon@@@std@@UUpDownMoveInfo@ioPrisonWeapon@@ABU34@@std@@YAXAAV?$allocator@UUpDownMoveInfo@ioPrisonWeapon@@@0@PAUUpDownMoveInfo@ioPrisonWeapon@@ABU23@@Z ; std::_Cons_val<std::allocator<ioPrisonWeapon::UpDownMoveInfo>,ioPrisonWeapon::UpDownMoveInfo,ioPrisonWeapon::UpDownMoveInfo const &>
  00013	83 45 10 0c	 add	 DWORD PTR __Dest$[ebp], 12 ; 0000000cH
  00017	83 c4 0c	 add	 esp, 12			; 0000000cH
  0001a	83 45 08 0c	 add	 DWORD PTR __First$[ebp], 12 ; 0000000cH
$LN35@Uninit_cop@2:

; 370  : 	_DEBUG_RANGE(_First, _Last);
; 371  : 	_DEBUG_POINTER(_Dest);
; 372  : 	_FwdIt _Next = _Dest;
; 373  : 
; 374  : 	_TRY_BEGIN
; 375  : 	for (; _First != _Last; ++_Dest, ++_First)

  0001e	8b 45 08	 mov	 eax, DWORD PTR __First$[ebp]
  00021	3b 45 0c	 cmp	 eax, DWORD PTR __Last$[ebp]
  00024	75 df		 jne	 SHORT $LL14@Uninit_cop@2

; 377  : 	_CATCH_ALL
; 378  : 	for (; _Next != _Dest; ++_Next)
; 379  : 		_Dest_val(_Al, _Next);
; 380  : 	_RERAISE;
; 381  : 	_CATCH_END
; 382  : 	return (_Dest);

  00026	8b 45 10	 mov	 eax, DWORD PTR __Dest$[ebp]

; 383  : 	}

  00029	5d		 pop	 ebp
  0002a	c3		 ret	 0
??$_Uninit_copy@V?$_Vector_const_iterator@V?$_Vector_val@UUpDownMoveInfo@ioPrisonWeapon@@V?$allocator@UUpDownMoveInfo@ioPrisonWeapon@@@std@@@std@@@std@@PAUUpDownMoveInfo@ioPrisonWeapon@@V?$allocator@UUpDownMoveInfo@ioPrisonWeapon@@@2@@std@@YAPAUUpDownMoveInfo@ioPrisonWeapon@@V?$_Vector_const_iterator@V?$_Vector_val@UUpDownMoveInfo@ioPrisonWeapon@@V?$allocator@UUpDownMoveInfo@ioPrisonWeapon@@@std@@@std@@@0@0PAU12@AAV?$allocator@UUpDownMoveInfo@ioPrisonWeapon@@@0@U_Nonscalar_ptr_iterator_tag@0@@Z ENDP ; std::_Uninit_copy<std::_Vector_const_iterator<std::_Vector_val<ioPrisonWeapon::UpDownMoveInfo,std::allocator<ioPrisonWeapon::UpDownMoveInfo> > >,ioPrisonWeapon::UpDownMoveInfo *,std::allocator<ioPrisonWeapon::UpDownMoveInfo> >
_TEXT	ENDS
PUBLIC	??$_Uninit_move@PAUUpDownMoveInfo@ioPrisonWeapon@@PAU12@V?$allocator@UUpDownMoveInfo@ioPrisonWeapon@@@std@@U12@@std@@YAPAUUpDownMoveInfo@ioPrisonWeapon@@PAU12@00AAV?$allocator@UUpDownMoveInfo@ioPrisonWeapon@@@0@0U_Nonscalar_ptr_iterator_tag@0@@Z ; std::_Uninit_move<ioPrisonWeapon::UpDownMoveInfo *,ioPrisonWeapon::UpDownMoveInfo *,std::allocator<ioPrisonWeapon::UpDownMoveInfo>,ioPrisonWeapon::UpDownMoveInfo>
; Function compile flags: /Ogsp
;	COMDAT ??$_Uninit_move@PAUUpDownMoveInfo@ioPrisonWeapon@@PAU12@V?$allocator@UUpDownMoveInfo@ioPrisonWeapon@@@std@@U12@@std@@YAPAUUpDownMoveInfo@ioPrisonWeapon@@PAU12@00AAV?$allocator@UUpDownMoveInfo@ioPrisonWeapon@@@0@0U_Nonscalar_ptr_iterator_tag@0@@Z
_TEXT	SEGMENT
__First$ = 8						; size = 4
__Last$ = 12						; size = 4
__Dest$ = 16						; size = 4
__Al$ = 20						; size = 4
___formal$ = 24						; size = 4
___formal$ = 28						; size = 1
??$_Uninit_move@PAUUpDownMoveInfo@ioPrisonWeapon@@PAU12@V?$allocator@UUpDownMoveInfo@ioPrisonWeapon@@@std@@U12@@std@@YAPAUUpDownMoveInfo@ioPrisonWeapon@@PAU12@00AAV?$allocator@UUpDownMoveInfo@ioPrisonWeapon@@@0@0U_Nonscalar_ptr_iterator_tag@0@@Z PROC ; std::_Uninit_move<ioPrisonWeapon::UpDownMoveInfo *,ioPrisonWeapon::UpDownMoveInfo *,std::allocator<ioPrisonWeapon::UpDownMoveInfo>,ioPrisonWeapon::UpDownMoveInfo>, COMDAT

; 424  : 	{	// move [_First, _Last) to raw _Dest, using _Al, arbitrary type

  00000	55		 push	 ebp
  00001	8b ec		 mov	 ebp, esp
  00003	56		 push	 esi

; 425  : 	_DEBUG_RANGE(_First, _Last);
; 426  : 	_DEBUG_POINTER(_Dest);
; 427  : 	_FwdIt _Next = _Dest;
; 428  : 
; 429  : 	_TRY_BEGIN
; 430  : 	for (; _First != _Last; ++_Dest, ++_First)

  00004	8b 75 08	 mov	 esi, DWORD PTR __First$[ebp]
  00007	eb 16		 jmp	 SHORT $LN24@Uninit_mov
$LL6@Uninit_mov:

; 431  : 		_Cons_val(_Al, _Dest, (_Valty &&)*_First);

  00009	56		 push	 esi
  0000a	ff 75 10	 push	 DWORD PTR __Dest$[ebp]
  0000d	ff 75 14	 push	 DWORD PTR __Al$[ebp]
  00010	e8 00 00 00 00	 call	 ??$_Cons_val@V?$allocator@UUpDownMoveInfo@ioPrisonWeapon@@@std@@UUpDownMoveInfo@ioPrisonWeapon@@U34@@std@@YAXAAV?$allocator@UUpDownMoveInfo@ioPrisonWeapon@@@0@PAUUpDownMoveInfo@ioPrisonWeapon@@$$QAU23@@Z ; std::_Cons_val<std::allocator<ioPrisonWeapon::UpDownMoveInfo>,ioPrisonWeapon::UpDownMoveInfo,ioPrisonWeapon::UpDownMoveInfo>
  00015	83 45 10 0c	 add	 DWORD PTR __Dest$[ebp], 12 ; 0000000cH
  00019	83 c4 0c	 add	 esp, 12			; 0000000cH
  0001c	83 c6 0c	 add	 esi, 12			; 0000000cH
$LN24@Uninit_mov:

; 425  : 	_DEBUG_RANGE(_First, _Last);
; 426  : 	_DEBUG_POINTER(_Dest);
; 427  : 	_FwdIt _Next = _Dest;
; 428  : 
; 429  : 	_TRY_BEGIN
; 430  : 	for (; _First != _Last; ++_Dest, ++_First)

  0001f	3b 75 0c	 cmp	 esi, DWORD PTR __Last$[ebp]
  00022	75 e5		 jne	 SHORT $LL6@Uninit_mov

; 432  : 	_CATCH_ALL
; 433  : 	for (; _Next != _Dest; ++_Next)
; 434  : 		_Dest_val(_Al, _Next);
; 435  : 	_RERAISE;
; 436  : 	_CATCH_END
; 437  : 	return (_Dest);

  00024	8b 45 10	 mov	 eax, DWORD PTR __Dest$[ebp]
  00027	5e		 pop	 esi

; 438  : 	}

  00028	5d		 pop	 ebp
  00029	c3		 ret	 0
??$_Uninit_move@PAUUpDownMoveInfo@ioPrisonWeapon@@PAU12@V?$allocator@UUpDownMoveInfo@ioPrisonWeapon@@@std@@U12@@std@@YAPAUUpDownMoveInfo@ioPrisonWeapon@@PAU12@00AAV?$allocator@UUpDownMoveInfo@ioPrisonWeapon@@@0@0U_Nonscalar_ptr_iterator_tag@0@@Z ENDP ; std::_Uninit_move<ioPrisonWeapon::UpDownMoveInfo *,ioPrisonWeapon::UpDownMoveInfo *,std::allocator<ioPrisonWeapon::UpDownMoveInfo>,ioPrisonWeapon::UpDownMoveInfo>
_TEXT	ENDS
PUBLIC	??$_Uninitialized_copy@PAUUpDownMoveInfo@ioPrisonWeapon@@PAU12@V?$allocator@UUpDownMoveInfo@ioPrisonWeapon@@@std@@@std@@YAPAUUpDownMoveInfo@ioPrisonWeapon@@PAU12@00AAV?$allocator@UUpDownMoveInfo@ioPrisonWeapon@@@0@@Z ; std::_Uninitialized_copy<ioPrisonWeapon::UpDownMoveInfo *,ioPrisonWeapon::UpDownMoveInfo *,std::allocator<ioPrisonWeapon::UpDownMoveInfo> >
; Function compile flags: /Ogsp
;	COMDAT ??$_Uninitialized_copy@PAUUpDownMoveInfo@ioPrisonWeapon@@PAU12@V?$allocator@UUpDownMoveInfo@ioPrisonWeapon@@@std@@@std@@YAPAUUpDownMoveInfo@ioPrisonWeapon@@PAU12@00AAV?$allocator@UUpDownMoveInfo@ioPrisonWeapon@@@0@@Z
_TEXT	SEGMENT
__Cat$539213 = -4					; size = 1
__First$ = 8						; size = 4
__Last$ = 12						; size = 4
__Dest$ = 16						; size = 4
__Al$ = 20						; size = 4
??$_Uninitialized_copy@PAUUpDownMoveInfo@ioPrisonWeapon@@PAU12@V?$allocator@UUpDownMoveInfo@ioPrisonWeapon@@@std@@@std@@YAPAUUpDownMoveInfo@ioPrisonWeapon@@PAU12@00AAV?$allocator@UUpDownMoveInfo@ioPrisonWeapon@@@0@@Z PROC ; std::_Uninitialized_copy<ioPrisonWeapon::UpDownMoveInfo *,ioPrisonWeapon::UpDownMoveInfo *,std::allocator<ioPrisonWeapon::UpDownMoveInfo> >, COMDAT

; 412  : 	{	// copy [_First, _Last) to raw _Dest, using _Al

  00000	55		 push	 ebp
  00001	8b ec		 mov	 ebp, esp
  00003	51		 push	 ecx

; 413  : 	return (_Uninit_copy(_First, _Last, _Dest, _Al,
; 414  : 		_Ptr_cat(_First, _Dest)));

  00004	ff 75 fc	 push	 DWORD PTR __Cat$539213[ebp]
  00007	ff 75 14	 push	 DWORD PTR __Al$[ebp]
  0000a	ff 75 10	 push	 DWORD PTR __Dest$[ebp]
  0000d	ff 75 0c	 push	 DWORD PTR __Last$[ebp]
  00010	ff 75 08	 push	 DWORD PTR __First$[ebp]
  00013	e8 00 00 00 00	 call	 ??$_Uninit_copy@PAUUpDownMoveInfo@ioPrisonWeapon@@PAU12@V?$allocator@UUpDownMoveInfo@ioPrisonWeapon@@@std@@@std@@YAPAUUpDownMoveInfo@ioPrisonWeapon@@PAU12@00AAV?$allocator@UUpDownMoveInfo@ioPrisonWeapon@@@0@U_Nonscalar_ptr_iterator_tag@0@@Z ; std::_Uninit_copy<ioPrisonWeapon::UpDownMoveInfo *,ioPrisonWeapon::UpDownMoveInfo *,std::allocator<ioPrisonWeapon::UpDownMoveInfo> >
  00018	83 c4 14	 add	 esp, 20			; 00000014H

; 415  : 	}

  0001b	c9		 leave
  0001c	c3		 ret	 0
??$_Uninitialized_copy@PAUUpDownMoveInfo@ioPrisonWeapon@@PAU12@V?$allocator@UUpDownMoveInfo@ioPrisonWeapon@@@std@@@std@@YAPAUUpDownMoveInfo@ioPrisonWeapon@@PAU12@00AAV?$allocator@UUpDownMoveInfo@ioPrisonWeapon@@@0@@Z ENDP ; std::_Uninitialized_copy<ioPrisonWeapon::UpDownMoveInfo *,ioPrisonWeapon::UpDownMoveInfo *,std::allocator<ioPrisonWeapon::UpDownMoveInfo> >
_TEXT	ENDS
PUBLIC	??$_Destroy_range@V?$allocator@UUpDownMoveInfo@ioPrisonWeapon@@@std@@@std@@YAXPAUUpDownMoveInfo@ioPrisonWeapon@@0AAV?$allocator@UUpDownMoveInfo@ioPrisonWeapon@@@0@@Z ; std::_Destroy_range<std::allocator<ioPrisonWeapon::UpDownMoveInfo> >
; Function compile flags: /Ogsp
; File c:\program files (x86)\microsoft visual studio 10.0\vc\include\xmemory
;	COMDAT ??$_Destroy_range@V?$allocator@UUpDownMoveInfo@ioPrisonWeapon@@@std@@@std@@YAXPAUUpDownMoveInfo@ioPrisonWeapon@@0AAV?$allocator@UUpDownMoveInfo@ioPrisonWeapon@@@0@@Z
_TEXT	SEGMENT
__First$ = 8						; size = 4
__Last$ = 12						; size = 4
__Al$ = 16						; size = 4
??$_Destroy_range@V?$allocator@UUpDownMoveInfo@ioPrisonWeapon@@@std@@@std@@YAXPAUUpDownMoveInfo@ioPrisonWeapon@@0AAV?$allocator@UUpDownMoveInfo@ioPrisonWeapon@@@0@@Z PROC ; std::_Destroy_range<std::allocator<ioPrisonWeapon::UpDownMoveInfo> >, COMDAT

; 88   : 	_Destroy_range(_First, _Last, _Al, _Ptr_cat(_First, _Last));
; 89   : 	}

  00000	c3		 ret	 0
??$_Destroy_range@V?$allocator@UUpDownMoveInfo@ioPrisonWeapon@@@std@@@std@@YAXPAUUpDownMoveInfo@ioPrisonWeapon@@0AAV?$allocator@UUpDownMoveInfo@ioPrisonWeapon@@@0@@Z ENDP ; std::_Destroy_range<std::allocator<ioPrisonWeapon::UpDownMoveInfo> >
_TEXT	ENDS
PUBLIC	??$_Uninitialized_copy@V?$_Vector_const_iterator@V?$_Vector_val@UUpDownMoveInfo@ioPrisonWeapon@@V?$allocator@UUpDownMoveInfo@ioPrisonWeapon@@@std@@@std@@@std@@PAUUpDownMoveInfo@ioPrisonWeapon@@V?$allocator@UUpDownMoveInfo@ioPrisonWeapon@@@2@@std@@YAPAUUpDownMoveInfo@ioPrisonWeapon@@V?$_Vector_const_iterator@V?$_Vector_val@UUpDownMoveInfo@ioPrisonWeapon@@V?$allocator@UUpDownMoveInfo@ioPrisonWeapon@@@std@@@std@@@0@0PAU12@AAV?$allocator@UUpDownMoveInfo@ioPrisonWeapon@@@0@@Z ; std::_Uninitialized_copy<std::_Vector_const_iterator<std::_Vector_val<ioPrisonWeapon::UpDownMoveInfo,std::allocator<ioPrisonWeapon::UpDownMoveInfo> > >,ioPrisonWeapon::UpDownMoveInfo *,std::allocator<ioPrisonWeapon::UpDownMoveInfo> >
; Function compile flags: /Ogsp
; File c:\program files (x86)\microsoft visual studio 10.0\vc\include\memory
;	COMDAT ??$_Uninitialized_copy@V?$_Vector_const_iterator@V?$_Vector_val@UUpDownMoveInfo@ioPrisonWeapon@@V?$allocator@UUpDownMoveInfo@ioPrisonWeapon@@@std@@@std@@@std@@PAUUpDownMoveInfo@ioPrisonWeapon@@V?$allocator@UUpDownMoveInfo@ioPrisonWeapon@@@2@@std@@YAPAUUpDownMoveInfo@ioPrisonWeapon@@V?$_Vector_const_iterator@V?$_Vector_val@UUpDownMoveInfo@ioPrisonWeapon@@V?$allocator@UUpDownMoveInfo@ioPrisonWeapon@@@std@@@std@@@0@0PAU12@AAV?$allocator@UUpDownMoveInfo@ioPrisonWeapon@@@0@@Z
_TEXT	SEGMENT
__Cat$539258 = -4					; size = 1
__First$ = 8						; size = 4
__Last$ = 12						; size = 4
__Dest$ = 16						; size = 4
__Al$ = 20						; size = 4
??$_Uninitialized_copy@V?$_Vector_const_iterator@V?$_Vector_val@UUpDownMoveInfo@ioPrisonWeapon@@V?$allocator@UUpDownMoveInfo@ioPrisonWeapon@@@std@@@std@@@std@@PAUUpDownMoveInfo@ioPrisonWeapon@@V?$allocator@UUpDownMoveInfo@ioPrisonWeapon@@@2@@std@@YAPAUUpDownMoveInfo@ioPrisonWeapon@@V?$_Vector_const_iterator@V?$_Vector_val@UUpDownMoveInfo@ioPrisonWeapon@@V?$allocator@UUpDownMoveInfo@ioPrisonWeapon@@@std@@@std@@@0@0PAU12@AAV?$allocator@UUpDownMoveInfo@ioPrisonWeapon@@@0@@Z PROC ; std::_Uninitialized_copy<std::_Vector_const_iterator<std::_Vector_val<ioPrisonWeapon::UpDownMoveInfo,std::allocator<ioPrisonWeapon::UpDownMoveInfo> > >,ioPrisonWeapon::UpDownMoveInfo *,std::allocator<ioPrisonWeapon::UpDownMoveInfo> >, COMDAT

; 412  : 	{	// copy [_First, _Last) to raw _Dest, using _Al

  00000	55		 push	 ebp
  00001	8b ec		 mov	 ebp, esp
  00003	51		 push	 ecx

; 413  : 	return (_Uninit_copy(_First, _Last, _Dest, _Al,
; 414  : 		_Ptr_cat(_First, _Dest)));

  00004	ff 75 fc	 push	 DWORD PTR __Cat$539258[ebp]
  00007	ff 75 14	 push	 DWORD PTR __Al$[ebp]
  0000a	ff 75 10	 push	 DWORD PTR __Dest$[ebp]
  0000d	ff 75 0c	 push	 DWORD PTR __Last$[ebp]
  00010	ff 75 08	 push	 DWORD PTR __First$[ebp]
  00013	e8 00 00 00 00	 call	 ??$_Uninit_copy@V?$_Vector_const_iterator@V?$_Vector_val@UUpDownMoveInfo@ioPrisonWeapon@@V?$allocator@UUpDownMoveInfo@ioPrisonWeapon@@@std@@@std@@@std@@PAUUpDownMoveInfo@ioPrisonWeapon@@V?$allocator@UUpDownMoveInfo@ioPrisonWeapon@@@2@@std@@YAPAUUpDownMoveInfo@ioPrisonWeapon@@V?$_Vector_const_iterator@V?$_Vector_val@UUpDownMoveInfo@ioPrisonWeapon@@V?$allocator@UUpDownMoveInfo@ioPrisonWeapon@@@std@@@std@@@0@0PAU12@AAV?$allocator@UUpDownMoveInfo@ioPrisonWeapon@@@0@U_Nonscalar_ptr_iterator_tag@0@@Z ; std::_Uninit_copy<std::_Vector_const_iterator<std::_Vector_val<ioPrisonWeapon::UpDownMoveInfo,std::allocator<ioPrisonWeapon::UpDownMoveInfo> > >,ioPrisonWeapon::UpDownMoveInfo *,std::allocator<ioPrisonWeapon::UpDownMoveInfo> >
  00018	83 c4 14	 add	 esp, 20			; 00000014H

; 415  : 	}

  0001b	c9		 leave
  0001c	c3		 ret	 0
??$_Uninitialized_copy@V?$_Vector_const_iterator@V?$_Vector_val@UUpDownMoveInfo@ioPrisonWeapon@@V?$allocator@UUpDownMoveInfo@ioPrisonWeapon@@@std@@@std@@@std@@PAUUpDownMoveInfo@ioPrisonWeapon@@V?$allocator@UUpDownMoveInfo@ioPrisonWeapon@@@2@@std@@YAPAUUpDownMoveInfo@ioPrisonWeapon@@V?$_Vector_const_iterator@V?$_Vector_val@UUpDownMoveInfo@ioPrisonWeapon@@V?$allocator@UUpDownMoveInfo@ioPrisonWeapon@@@std@@@std@@@0@0PAU12@AAV?$allocator@UUpDownMoveInfo@ioPrisonWeapon@@@0@@Z ENDP ; std::_Uninitialized_copy<std::_Vector_const_iterator<std::_Vector_val<ioPrisonWeapon::UpDownMoveInfo,std::allocator<ioPrisonWeapon::UpDownMoveInfo> > >,ioPrisonWeapon::UpDownMoveInfo *,std::allocator<ioPrisonWeapon::UpDownMoveInfo> >
_TEXT	ENDS
PUBLIC	??$_Uninitialized_move@PAUUpDownMoveInfo@ioPrisonWeapon@@PAU12@V?$allocator@UUpDownMoveInfo@ioPrisonWeapon@@@std@@@std@@YAPAUUpDownMoveInfo@ioPrisonWeapon@@PAU12@00AAV?$allocator@UUpDownMoveInfo@ioPrisonWeapon@@@0@@Z ; std::_Uninitialized_move<ioPrisonWeapon::UpDownMoveInfo *,ioPrisonWeapon::UpDownMoveInfo *,std::allocator<ioPrisonWeapon::UpDownMoveInfo> >
; Function compile flags: /Ogsp
;	COMDAT ??$_Uninitialized_move@PAUUpDownMoveInfo@ioPrisonWeapon@@PAU12@V?$allocator@UUpDownMoveInfo@ioPrisonWeapon@@@std@@@std@@YAPAUUpDownMoveInfo@ioPrisonWeapon@@PAU12@00AAV?$allocator@UUpDownMoveInfo@ioPrisonWeapon@@@0@@Z
_TEXT	SEGMENT
__Cat$539265 = -4					; size = 1
__First$ = 8						; size = 4
__Last$ = 12						; size = 4
__Dest$ = 16						; size = 4
__Al$ = 20						; size = 4
??$_Uninitialized_move@PAUUpDownMoveInfo@ioPrisonWeapon@@PAU12@V?$allocator@UUpDownMoveInfo@ioPrisonWeapon@@@std@@@std@@YAPAUUpDownMoveInfo@ioPrisonWeapon@@PAU12@00AAV?$allocator@UUpDownMoveInfo@ioPrisonWeapon@@@0@@Z PROC ; std::_Uninitialized_move<ioPrisonWeapon::UpDownMoveInfo *,ioPrisonWeapon::UpDownMoveInfo *,std::allocator<ioPrisonWeapon::UpDownMoveInfo> >, COMDAT

; 469  : 	{	// move [_First, _Last) to raw _Dest, using _Al

  00000	55		 push	 ebp
  00001	8b ec		 mov	 ebp, esp
  00003	51		 push	 ecx

; 470  : 	return (_Uninit_move(_First, _Last, _Dest, _Al,
; 471  : 		_Val_type(_First), _Ptr_cat(_First, _Dest)));

  00004	ff 75 fc	 push	 DWORD PTR __Cat$539265[ebp]
  00007	6a 00		 push	 0
  00009	ff 75 14	 push	 DWORD PTR __Al$[ebp]
  0000c	ff 75 10	 push	 DWORD PTR __Dest$[ebp]
  0000f	ff 75 0c	 push	 DWORD PTR __Last$[ebp]
  00012	ff 75 08	 push	 DWORD PTR __First$[ebp]
  00015	e8 00 00 00 00	 call	 ??$_Uninit_move@PAUUpDownMoveInfo@ioPrisonWeapon@@PAU12@V?$allocator@UUpDownMoveInfo@ioPrisonWeapon@@@std@@U12@@std@@YAPAUUpDownMoveInfo@ioPrisonWeapon@@PAU12@00AAV?$allocator@UUpDownMoveInfo@ioPrisonWeapon@@@0@0U_Nonscalar_ptr_iterator_tag@0@@Z ; std::_Uninit_move<ioPrisonWeapon::UpDownMoveInfo *,ioPrisonWeapon::UpDownMoveInfo *,std::allocator<ioPrisonWeapon::UpDownMoveInfo>,ioPrisonWeapon::UpDownMoveInfo>
  0001a	83 c4 18	 add	 esp, 24			; 00000018H

; 472  : 	}

  0001d	c9		 leave
  0001e	c3		 ret	 0
??$_Uninitialized_move@PAUUpDownMoveInfo@ioPrisonWeapon@@PAU12@V?$allocator@UUpDownMoveInfo@ioPrisonWeapon@@@std@@@std@@YAPAUUpDownMoveInfo@ioPrisonWeapon@@PAU12@00AAV?$allocator@UUpDownMoveInfo@ioPrisonWeapon@@@0@@Z ENDP ; std::_Uninitialized_move<ioPrisonWeapon::UpDownMoveInfo *,ioPrisonWeapon::UpDownMoveInfo *,std::allocator<ioPrisonWeapon::UpDownMoveInfo> >
_TEXT	ENDS
PUBLIC	??$_Ucopy@PAUUpDownMoveInfo@ioPrisonWeapon@@@?$vector@UUpDownMoveInfo@ioPrisonWeapon@@V?$allocator@UUpDownMoveInfo@ioPrisonWeapon@@@std@@@std@@IAEPAUUpDownMoveInfo@ioPrisonWeapon@@PAU23@00@Z ; std::vector<ioPrisonWeapon::UpDownMoveInfo,std::allocator<ioPrisonWeapon::UpDownMoveInfo> >::_Ucopy<ioPrisonWeapon::UpDownMoveInfo *>
; Function compile flags: /Ogsp
; File c:\program files (x86)\microsoft visual studio 10.0\vc\include\vector
;	COMDAT ??$_Ucopy@PAUUpDownMoveInfo@ioPrisonWeapon@@@?$vector@UUpDownMoveInfo@ioPrisonWeapon@@V?$allocator@UUpDownMoveInfo@ioPrisonWeapon@@@std@@@std@@IAEPAUUpDownMoveInfo@ioPrisonWeapon@@PAU23@00@Z
_TEXT	SEGMENT
__First$ = 8						; size = 4
__Last$ = 12						; size = 4
__Cat$539281 = 16					; size = 1
__Ptr$ = 16						; size = 4
??$_Ucopy@PAUUpDownMoveInfo@ioPrisonWeapon@@@?$vector@UUpDownMoveInfo@ioPrisonWeapon@@V?$allocator@UUpDownMoveInfo@ioPrisonWeapon@@@std@@@std@@IAEPAUUpDownMoveInfo@ioPrisonWeapon@@PAU23@00@Z PROC ; std::vector<ioPrisonWeapon::UpDownMoveInfo,std::allocator<ioPrisonWeapon::UpDownMoveInfo> >::_Ucopy<ioPrisonWeapon::UpDownMoveInfo *>, COMDAT
; _this$ = ecx

; 1315 : 		pointer _Ucopy(_Iter _First, _Iter _Last, pointer _Ptr)

  00000	55		 push	 ebp
  00001	8b ec		 mov	 ebp, esp

; 1316 : 		{	// copy initializing [_First, _Last), using allocator
; 1317 : 		return (_Uninitialized_copy(_First, _Last,
; 1318 : 			_Ptr, this->_Alval));

  00003	ff 75 10	 push	 DWORD PTR __Cat$539281[ebp]
  00006	83 c1 0c	 add	 ecx, 12			; 0000000cH
  00009	51		 push	 ecx
  0000a	ff 75 10	 push	 DWORD PTR __Ptr$[ebp]
  0000d	ff 75 0c	 push	 DWORD PTR __Last$[ebp]
  00010	ff 75 08	 push	 DWORD PTR __First$[ebp]
  00013	e8 00 00 00 00	 call	 ??$_Uninit_copy@PAUUpDownMoveInfo@ioPrisonWeapon@@PAU12@V?$allocator@UUpDownMoveInfo@ioPrisonWeapon@@@std@@@std@@YAPAUUpDownMoveInfo@ioPrisonWeapon@@PAU12@00AAV?$allocator@UUpDownMoveInfo@ioPrisonWeapon@@@0@U_Nonscalar_ptr_iterator_tag@0@@Z ; std::_Uninit_copy<ioPrisonWeapon::UpDownMoveInfo *,ioPrisonWeapon::UpDownMoveInfo *,std::allocator<ioPrisonWeapon::UpDownMoveInfo> >
  00018	83 c4 14	 add	 esp, 20			; 00000014H

; 1319 : 		}

  0001b	5d		 pop	 ebp
  0001c	c2 0c 00	 ret	 12			; 0000000cH
??$_Ucopy@PAUUpDownMoveInfo@ioPrisonWeapon@@@?$vector@UUpDownMoveInfo@ioPrisonWeapon@@V?$allocator@UUpDownMoveInfo@ioPrisonWeapon@@@std@@@std@@IAEPAUUpDownMoveInfo@ioPrisonWeapon@@PAU23@00@Z ENDP ; std::vector<ioPrisonWeapon::UpDownMoveInfo,std::allocator<ioPrisonWeapon::UpDownMoveInfo> >::_Ucopy<ioPrisonWeapon::UpDownMoveInfo *>
_TEXT	ENDS
PUBLIC	?_Destroy@?$vector@UUpDownMoveInfo@ioPrisonWeapon@@V?$allocator@UUpDownMoveInfo@ioPrisonWeapon@@@std@@@std@@IAEXPAUUpDownMoveInfo@ioPrisonWeapon@@0@Z ; std::vector<ioPrisonWeapon::UpDownMoveInfo,std::allocator<ioPrisonWeapon::UpDownMoveInfo> >::_Destroy
; Function compile flags: /Ogsp
;	COMDAT ?_Destroy@?$vector@UUpDownMoveInfo@ioPrisonWeapon@@V?$allocator@UUpDownMoveInfo@ioPrisonWeapon@@@std@@@std@@IAEXPAUUpDownMoveInfo@ioPrisonWeapon@@0@Z
_TEXT	SEGMENT
__First$ = 8						; size = 4
__Last$ = 12						; size = 4
?_Destroy@?$vector@UUpDownMoveInfo@ioPrisonWeapon@@V?$allocator@UUpDownMoveInfo@ioPrisonWeapon@@@std@@@std@@IAEXPAUUpDownMoveInfo@ioPrisonWeapon@@0@Z PROC ; std::vector<ioPrisonWeapon::UpDownMoveInfo,std::allocator<ioPrisonWeapon::UpDownMoveInfo> >::_Destroy, COMDAT
; _this$ = ecx

; 1270 : 		_Destroy_range(_First, _Last, this->_Alval);
; 1271 : 		}

  00000	c2 08 00	 ret	 8
?_Destroy@?$vector@UUpDownMoveInfo@ioPrisonWeapon@@V?$allocator@UUpDownMoveInfo@ioPrisonWeapon@@@std@@@std@@IAEXPAUUpDownMoveInfo@ioPrisonWeapon@@0@Z ENDP ; std::vector<ioPrisonWeapon::UpDownMoveInfo,std::allocator<ioPrisonWeapon::UpDownMoveInfo> >::_Destroy
_TEXT	ENDS
PUBLIC	??$_Ucopy@V?$_Vector_const_iterator@V?$_Vector_val@UUpDownMoveInfo@ioPrisonWeapon@@V?$allocator@UUpDownMoveInfo@ioPrisonWeapon@@@std@@@std@@@std@@@?$vector@UUpDownMoveInfo@ioPrisonWeapon@@V?$allocator@UUpDownMoveInfo@ioPrisonWeapon@@@std@@@std@@IAEPAUUpDownMoveInfo@ioPrisonWeapon@@V?$_Vector_const_iterator@V?$_Vector_val@UUpDownMoveInfo@ioPrisonWeapon@@V?$allocator@UUpDownMoveInfo@ioPrisonWeapon@@@std@@@std@@@1@0PAU23@@Z ; std::vector<ioPrisonWeapon::UpDownMoveInfo,std::allocator<ioPrisonWeapon::UpDownMoveInfo> >::_Ucopy<std::_Vector_const_iterator<std::_Vector_val<ioPrisonWeapon::UpDownMoveInfo,std::allocator<ioPrisonWeapon::UpDownMoveInfo> > > >
; Function compile flags: /Ogsp
;	COMDAT ??$_Ucopy@V?$_Vector_const_iterator@V?$_Vector_val@UUpDownMoveInfo@ioPrisonWeapon@@V?$allocator@UUpDownMoveInfo@ioPrisonWeapon@@@std@@@std@@@std@@@?$vector@UUpDownMoveInfo@ioPrisonWeapon@@V?$allocator@UUpDownMoveInfo@ioPrisonWeapon@@@std@@@std@@IAEPAUUpDownMoveInfo@ioPrisonWeapon@@V?$_Vector_const_iterator@V?$_Vector_val@UUpDownMoveInfo@ioPrisonWeapon@@V?$allocator@UUpDownMoveInfo@ioPrisonWeapon@@@std@@@std@@@1@0PAU23@@Z
_TEXT	SEGMENT
__First$ = 8						; size = 4
__Last$ = 12						; size = 4
__Cat$539352 = 16					; size = 1
__Ptr$ = 16						; size = 4
??$_Ucopy@V?$_Vector_const_iterator@V?$_Vector_val@UUpDownMoveInfo@ioPrisonWeapon@@V?$allocator@UUpDownMoveInfo@ioPrisonWeapon@@@std@@@std@@@std@@@?$vector@UUpDownMoveInfo@ioPrisonWeapon@@V?$allocator@UUpDownMoveInfo@ioPrisonWeapon@@@std@@@std@@IAEPAUUpDownMoveInfo@ioPrisonWeapon@@V?$_Vector_const_iterator@V?$_Vector_val@UUpDownMoveInfo@ioPrisonWeapon@@V?$allocator@UUpDownMoveInfo@ioPrisonWeapon@@@std@@@std@@@1@0PAU23@@Z PROC ; std::vector<ioPrisonWeapon::UpDownMoveInfo,std::allocator<ioPrisonWeapon::UpDownMoveInfo> >::_Ucopy<std::_Vector_const_iterator<std::_Vector_val<ioPrisonWeapon::UpDownMoveInfo,std::allocator<ioPrisonWeapon::UpDownMoveInfo> > > >, COMDAT
; _this$ = ecx

; 1315 : 		pointer _Ucopy(_Iter _First, _Iter _Last, pointer _Ptr)

  00000	55		 push	 ebp
  00001	8b ec		 mov	 ebp, esp

; 1316 : 		{	// copy initializing [_First, _Last), using allocator
; 1317 : 		return (_Uninitialized_copy(_First, _Last,
; 1318 : 			_Ptr, this->_Alval));

  00003	ff 75 10	 push	 DWORD PTR __Cat$539352[ebp]
  00006	83 c1 0c	 add	 ecx, 12			; 0000000cH
  00009	51		 push	 ecx
  0000a	ff 75 10	 push	 DWORD PTR __Ptr$[ebp]
  0000d	ff 75 0c	 push	 DWORD PTR __Last$[ebp]
  00010	ff 75 08	 push	 DWORD PTR __First$[ebp]
  00013	e8 00 00 00 00	 call	 ??$_Uninit_copy@V?$_Vector_const_iterator@V?$_Vector_val@UUpDownMoveInfo@ioPrisonWeapon@@V?$allocator@UUpDownMoveInfo@ioPrisonWeapon@@@std@@@std@@@std@@PAUUpDownMoveInfo@ioPrisonWeapon@@V?$allocator@UUpDownMoveInfo@ioPrisonWeapon@@@2@@std@@YAPAUUpDownMoveInfo@ioPrisonWeapon@@V?$_Vector_const_iterator@V?$_Vector_val@UUpDownMoveInfo@ioPrisonWeapon@@V?$allocator@UUpDownMoveInfo@ioPrisonWeapon@@@std@@@std@@@0@0PAU12@AAV?$allocator@UUpDownMoveInfo@ioPrisonWeapon@@@0@U_Nonscalar_ptr_iterator_tag@0@@Z ; std::_Uninit_copy<std::_Vector_const_iterator<std::_Vector_val<ioPrisonWeapon::UpDownMoveInfo,std::allocator<ioPrisonWeapon::UpDownMoveInfo> > >,ioPrisonWeapon::UpDownMoveInfo *,std::allocator<ioPrisonWeapon::UpDownMoveInfo> >
  00018	83 c4 14	 add	 esp, 20			; 00000014H

; 1319 : 		}

  0001b	5d		 pop	 ebp
  0001c	c2 0c 00	 ret	 12			; 0000000cH
??$_Ucopy@V?$_Vector_const_iterator@V?$_Vector_val@UUpDownMoveInfo@ioPrisonWeapon@@V?$allocator@UUpDownMoveInfo@ioPrisonWeapon@@@std@@@std@@@std@@@?$vector@UUpDownMoveInfo@ioPrisonWeapon@@V?$allocator@UUpDownMoveInfo@ioPrisonWeapon@@@std@@@std@@IAEPAUUpDownMoveInfo@ioPrisonWeapon@@V?$_Vector_const_iterator@V?$_Vector_val@UUpDownMoveInfo@ioPrisonWeapon@@V?$allocator@UUpDownMoveInfo@ioPrisonWeapon@@@std@@@std@@@1@0PAU23@@Z ENDP ; std::vector<ioPrisonWeapon::UpDownMoveInfo,std::allocator<ioPrisonWeapon::UpDownMoveInfo> >::_Ucopy<std::_Vector_const_iterator<std::_Vector_val<ioPrisonWeapon::UpDownMoveInfo,std::allocator<ioPrisonWeapon::UpDownMoveInfo> > > >
_TEXT	ENDS
PUBLIC	??$_Umove@PAUUpDownMoveInfo@ioPrisonWeapon@@@?$vector@UUpDownMoveInfo@ioPrisonWeapon@@V?$allocator@UUpDownMoveInfo@ioPrisonWeapon@@@std@@@std@@IAEPAUUpDownMoveInfo@ioPrisonWeapon@@PAU23@00@Z ; std::vector<ioPrisonWeapon::UpDownMoveInfo,std::allocator<ioPrisonWeapon::UpDownMoveInfo> >::_Umove<ioPrisonWeapon::UpDownMoveInfo *>
; Function compile flags: /Ogsp
;	COMDAT ??$_Umove@PAUUpDownMoveInfo@ioPrisonWeapon@@@?$vector@UUpDownMoveInfo@ioPrisonWeapon@@V?$allocator@UUpDownMoveInfo@ioPrisonWeapon@@@std@@@std@@IAEPAUUpDownMoveInfo@ioPrisonWeapon@@PAU23@00@Z
_TEXT	SEGMENT
__First$ = 8						; size = 4
__Last$ = 12						; size = 4
__Ptr$ = 16						; size = 4
??$_Umove@PAUUpDownMoveInfo@ioPrisonWeapon@@@?$vector@UUpDownMoveInfo@ioPrisonWeapon@@V?$allocator@UUpDownMoveInfo@ioPrisonWeapon@@@std@@@std@@IAEPAUUpDownMoveInfo@ioPrisonWeapon@@PAU23@00@Z PROC ; std::vector<ioPrisonWeapon::UpDownMoveInfo,std::allocator<ioPrisonWeapon::UpDownMoveInfo> >::_Umove<ioPrisonWeapon::UpDownMoveInfo *>, COMDAT
; _this$ = ecx

; 1322 : 		pointer _Umove(_Iter _First, _Iter _Last, pointer _Ptr)

  00000	55		 push	 ebp
  00001	8b ec		 mov	 ebp, esp

; 1323 : 		{	// move initializing [_First, _Last), using allocator
; 1324 : 		return (_Uninitialized_move(_First, _Last,
; 1325 : 			_Ptr, this->_Alval));

  00003	83 c1 0c	 add	 ecx, 12			; 0000000cH
  00006	51		 push	 ecx
  00007	ff 75 10	 push	 DWORD PTR __Ptr$[ebp]
  0000a	ff 75 0c	 push	 DWORD PTR __Last$[ebp]
  0000d	ff 75 08	 push	 DWORD PTR __First$[ebp]
  00010	e8 00 00 00 00	 call	 ??$_Uninitialized_move@PAUUpDownMoveInfo@ioPrisonWeapon@@PAU12@V?$allocator@UUpDownMoveInfo@ioPrisonWeapon@@@std@@@std@@YAPAUUpDownMoveInfo@ioPrisonWeapon@@PAU12@00AAV?$allocator@UUpDownMoveInfo@ioPrisonWeapon@@@0@@Z ; std::_Uninitialized_move<ioPrisonWeapon::UpDownMoveInfo *,ioPrisonWeapon::UpDownMoveInfo *,std::allocator<ioPrisonWeapon::UpDownMoveInfo> >
  00015	83 c4 10	 add	 esp, 16			; 00000010H

; 1326 : 		}

  00018	5d		 pop	 ebp
  00019	c2 0c 00	 ret	 12			; 0000000cH
??$_Umove@PAUUpDownMoveInfo@ioPrisonWeapon@@@?$vector@UUpDownMoveInfo@ioPrisonWeapon@@V?$allocator@UUpDownMoveInfo@ioPrisonWeapon@@@std@@@std@@IAEPAUUpDownMoveInfo@ioPrisonWeapon@@PAU23@00@Z ENDP ; std::vector<ioPrisonWeapon::UpDownMoveInfo,std::allocator<ioPrisonWeapon::UpDownMoveInfo> >::_Umove<ioPrisonWeapon::UpDownMoveInfo *>
_TEXT	ENDS
PUBLIC	?erase@?$vector@UUpDownMoveInfo@ioPrisonWeapon@@V?$allocator@UUpDownMoveInfo@ioPrisonWeapon@@@std@@@std@@QAE?AV?$_Vector_iterator@V?$_Vector_val@UUpDownMoveInfo@ioPrisonWeapon@@V?$allocator@UUpDownMoveInfo@ioPrisonWeapon@@@std@@@std@@@2@V?$_Vector_const_iterator@V?$_Vector_val@UUpDownMoveInfo@ioPrisonWeapon@@V?$allocator@UUpDownMoveInfo@ioPrisonWeapon@@@std@@@std@@@2@0@Z ; std::vector<ioPrisonWeapon::UpDownMoveInfo,std::allocator<ioPrisonWeapon::UpDownMoveInfo> >::erase
; Function compile flags: /Ogsp
;	COMDAT ?erase@?$vector@UUpDownMoveInfo@ioPrisonWeapon@@V?$allocator@UUpDownMoveInfo@ioPrisonWeapon@@@std@@@std@@QAE?AV?$_Vector_iterator@V?$_Vector_val@UUpDownMoveInfo@ioPrisonWeapon@@V?$allocator@UUpDownMoveInfo@ioPrisonWeapon@@@std@@@std@@@2@V?$_Vector_const_iterator@V?$_Vector_val@UUpDownMoveInfo@ioPrisonWeapon@@V?$allocator@UUpDownMoveInfo@ioPrisonWeapon@@@std@@@std@@@2@0@Z
_TEXT	SEGMENT
___$ReturnUdt$ = 8					; size = 4
__First_arg$ = 12					; size = 4
__Cat$539431 = 16					; size = 1
__Last_arg$ = 16					; size = 4
?erase@?$vector@UUpDownMoveInfo@ioPrisonWeapon@@V?$allocator@UUpDownMoveInfo@ioPrisonWeapon@@@std@@@std@@QAE?AV?$_Vector_iterator@V?$_Vector_val@UUpDownMoveInfo@ioPrisonWeapon@@V?$allocator@UUpDownMoveInfo@ioPrisonWeapon@@@std@@@std@@@2@V?$_Vector_const_iterator@V?$_Vector_val@UUpDownMoveInfo@ioPrisonWeapon@@V?$allocator@UUpDownMoveInfo@ioPrisonWeapon@@@std@@@std@@@2@0@Z PROC ; std::vector<ioPrisonWeapon::UpDownMoveInfo,std::allocator<ioPrisonWeapon::UpDownMoveInfo> >::erase, COMDAT
; _this$ = ecx

; 1190 : 		{	// erase [_First, _Last)

  00000	55		 push	 ebp
  00001	8b ec		 mov	 ebp, esp

; 1191 : 		iterator _First = _Make_iter(_First_arg);

  00003	8b 45 0c	 mov	 eax, DWORD PTR __First_arg$[ebp]
  00006	56		 push	 esi
  00007	57		 push	 edi
  00008	8b 7d 08	 mov	 edi, DWORD PTR ___$ReturnUdt$[ebp]
  0000b	8b f1		 mov	 esi, ecx
  0000d	89 07		 mov	 DWORD PTR [edi], eax

; 1192 : 		iterator _Last = _Make_iter(_Last_arg);
; 1193 : 
; 1194 : 		if (_First != _Last)

  0000f	3b 45 10	 cmp	 eax, DWORD PTR __Last_arg$[ebp]
  00012	74 16		 je	 SHORT $LN1@erase

; 1195 : 			{	// worth doing, copy down over hole
; 1196 :  #if _ITERATOR_DEBUG_LEVEL == 2
; 1197 : 			if (_Last < _First || _VICONT(_First) != this
; 1198 : 				|| _VIPTR(_First) < this->_Myfirst
; 1199 : 				|| this->_Mylast < _VIPTR(_Last))
; 1200 : 				_DEBUG_ERROR("vector erase iterator outside range");
; 1201 : 			pointer _Ptr = _Move(_VIPTR(_Last), this->_Mylast,
; 1202 : 				_VIPTR(_First));
; 1203 : 			_Orphan_range(_VIPTR(_First), this->_Mylast);
; 1204 : 
; 1205 :  #else /* _ITERATOR_DEBUG_LEVEL == 2 */
; 1206 : 			pointer _Ptr = _Move(_VIPTR(_Last), this->_Mylast,
; 1207 : 				_VIPTR(_First));

  00014	ff 75 10	 push	 DWORD PTR __Cat$539431[ebp]
  00017	8b 4e 04	 mov	 ecx, DWORD PTR [esi+4]
  0001a	50		 push	 eax
  0001b	51		 push	 ecx
  0001c	ff 75 10	 push	 DWORD PTR __Last_arg$[ebp]
  0001f	e8 00 00 00 00	 call	 ??$_Move@PAUUpDownMoveInfo@ioPrisonWeapon@@PAU12@@std@@YAPAUUpDownMoveInfo@ioPrisonWeapon@@PAU12@00U_Nonscalar_ptr_iterator_tag@0@@Z ; std::_Move<ioPrisonWeapon::UpDownMoveInfo *,ioPrisonWeapon::UpDownMoveInfo *>
  00024	83 c4 10	 add	 esp, 16			; 00000010H

; 1208 :  #endif /* _ITERATOR_DEBUG_LEVEL == 2 */
; 1209 : 
; 1210 : 			_Destroy(_Ptr, this->_Mylast);
; 1211 : 			this->_Mylast = _Ptr;

  00027	89 46 04	 mov	 DWORD PTR [esi+4], eax
$LN1@erase:

; 1212 : 			}
; 1213 : 		return (_First);

  0002a	8b c7		 mov	 eax, edi
  0002c	5f		 pop	 edi
  0002d	5e		 pop	 esi

; 1214 : 		}

  0002e	5d		 pop	 ebp
  0002f	c2 0c 00	 ret	 12			; 0000000cH
?erase@?$vector@UUpDownMoveInfo@ioPrisonWeapon@@V?$allocator@UUpDownMoveInfo@ioPrisonWeapon@@@std@@@std@@QAE?AV?$_Vector_iterator@V?$_Vector_val@UUpDownMoveInfo@ioPrisonWeapon@@V?$allocator@UUpDownMoveInfo@ioPrisonWeapon@@@std@@@std@@@2@V?$_Vector_const_iterator@V?$_Vector_val@UUpDownMoveInfo@ioPrisonWeapon@@V?$allocator@UUpDownMoveInfo@ioPrisonWeapon@@@std@@@std@@@2@0@Z ENDP ; std::vector<ioPrisonWeapon::UpDownMoveInfo,std::allocator<ioPrisonWeapon::UpDownMoveInfo> >::erase
_TEXT	ENDS
PUBLIC	?_Tidy@?$vector@UUpDownMoveInfo@ioPrisonWeapon@@V?$allocator@UUpDownMoveInfo@ioPrisonWeapon@@@std@@@std@@IAEXXZ ; std::vector<ioPrisonWeapon::UpDownMoveInfo,std::allocator<ioPrisonWeapon::UpDownMoveInfo> >::_Tidy
EXTRN	__imp_?_Orphan_all@_Container_base0@std@@QAEXXZ:PROC
; Function compile flags: /Ogsp
;	COMDAT ?_Tidy@?$vector@UUpDownMoveInfo@ioPrisonWeapon@@V?$allocator@UUpDownMoveInfo@ioPrisonWeapon@@@std@@@std@@IAEXXZ
_TEXT	SEGMENT
?_Tidy@?$vector@UUpDownMoveInfo@ioPrisonWeapon@@V?$allocator@UUpDownMoveInfo@ioPrisonWeapon@@@std@@@std@@IAEXXZ PROC ; std::vector<ioPrisonWeapon::UpDownMoveInfo,std::allocator<ioPrisonWeapon::UpDownMoveInfo> >::_Tidy, COMDAT
; _this$ = ecx

; 1301 : 		{	// free all storage

  00000	56		 push	 esi
  00001	8b f1		 mov	 esi, ecx

; 1302 : 		if (this->_Myfirst != 0)

  00003	83 3e 00	 cmp	 DWORD PTR [esi], 0
  00006	74 0e		 je	 SHORT $LN21@Tidy

; 1303 : 			{	// something to free, destroy and deallocate it
; 1304 : 			this->_Orphan_all();

  00008	ff 15 00 00 00
	00		 call	 DWORD PTR __imp_?_Orphan_all@_Container_base0@std@@QAEXXZ

; 1305 : 			_Destroy(this->_Myfirst, this->_Mylast);
; 1306 : 			this->_Alval.deallocate(this->_Myfirst,
; 1307 : 				this->_Myend - this->_Myfirst);

  0000e	ff 36		 push	 DWORD PTR [esi]
  00010	e8 00 00 00 00	 call	 ??3@YAXPAX@Z		; operator delete
  00015	59		 pop	 ecx
$LN21@Tidy:

; 1308 : 			}
; 1309 : 		this->_Myfirst = 0;

  00016	83 26 00	 and	 DWORD PTR [esi], 0

; 1310 : 		this->_Mylast = 0;

  00019	83 66 04 00	 and	 DWORD PTR [esi+4], 0

; 1311 : 		this->_Myend = 0;

  0001d	83 66 08 00	 and	 DWORD PTR [esi+8], 0
  00021	5e		 pop	 esi

; 1312 : 		}

  00022	c3		 ret	 0
?_Tidy@?$vector@UUpDownMoveInfo@ioPrisonWeapon@@V?$allocator@UUpDownMoveInfo@ioPrisonWeapon@@@std@@@std@@IAEXXZ ENDP ; std::vector<ioPrisonWeapon::UpDownMoveInfo,std::allocator<ioPrisonWeapon::UpDownMoveInfo> >::_Tidy
_TEXT	ENDS
PUBLIC	?reserve@?$vector@UUpDownMoveInfo@ioPrisonWeapon@@V?$allocator@UUpDownMoveInfo@ioPrisonWeapon@@@std@@@std@@QAEXI@Z ; std::vector<ioPrisonWeapon::UpDownMoveInfo,std::allocator<ioPrisonWeapon::UpDownMoveInfo> >::reserve
EXTRN	__EH_prolog3_catch:PROC
;	COMDAT xdata$x
; File c:\program files (x86)\microsoft visual studio 10.0\vc\include\xmemory
xdata$x	SEGMENT
__catchsym$?reserve@?$vector@UUpDownMoveInfo@ioPrisonWeapon@@V?$allocator@UUpDownMoveInfo@ioPrisonWeapon@@@std@@@std@@QAEXI@Z$2 DD 040H
	DD	00H
	DD	00H
	DD	FLAT:__catch$?reserve@?$vector@UUpDownMoveInfo@ioPrisonWeapon@@V?$allocator@UUpDownMoveInfo@ioPrisonWeapon@@@std@@@std@@QAEXI@Z$0
__unwindtable$?reserve@?$vector@UUpDownMoveInfo@ioPrisonWeapon@@V?$allocator@UUpDownMoveInfo@ioPrisonWeapon@@@std@@@std@@QAEXI@Z DD 0ffffffffH
	DD	00H
	DD	0ffffffffH
	DD	00H
__tryblocktable$?reserve@?$vector@UUpDownMoveInfo@ioPrisonWeapon@@V?$allocator@UUpDownMoveInfo@ioPrisonWeapon@@@std@@@std@@QAEXI@Z DD 00H
	DD	00H
	DD	01H
	DD	01H
	DD	FLAT:__catchsym$?reserve@?$vector@UUpDownMoveInfo@ioPrisonWeapon@@V?$allocator@UUpDownMoveInfo@ioPrisonWeapon@@@std@@@std@@QAEXI@Z$2
__ehfuncinfo$?reserve@?$vector@UUpDownMoveInfo@ioPrisonWeapon@@V?$allocator@UUpDownMoveInfo@ioPrisonWeapon@@@std@@@std@@QAEXI@Z DD 019930522H
	DD	02H
	DD	FLAT:__unwindtable$?reserve@?$vector@UUpDownMoveInfo@ioPrisonWeapon@@V?$allocator@UUpDownMoveInfo@ioPrisonWeapon@@@std@@@std@@QAEXI@Z
	DD	01H
	DD	FLAT:__tryblocktable$?reserve@?$vector@UUpDownMoveInfo@ioPrisonWeapon@@V?$allocator@UUpDownMoveInfo@ioPrisonWeapon@@@std@@@std@@QAEXI@Z
	DD	2 DUP(00H)
	DD	00H
	DD	01H
; Function compile flags: /Ogsp
; File c:\program files (x86)\microsoft visual studio 10.0\vc\include\vector
xdata$x	ENDS
;	COMDAT ?reserve@?$vector@UUpDownMoveInfo@ioPrisonWeapon@@V?$allocator@UUpDownMoveInfo@ioPrisonWeapon@@@std@@@std@@QAEXI@Z
_TEXT	SEGMENT
__$EHRec$ = -16						; size = 16
__Ptr$532982 = 8					; size = 4
__Count$ = 8						; size = 4
?reserve@?$vector@UUpDownMoveInfo@ioPrisonWeapon@@V?$allocator@UUpDownMoveInfo@ioPrisonWeapon@@@std@@@std@@QAEXI@Z PROC ; std::vector<ioPrisonWeapon::UpDownMoveInfo,std::allocator<ioPrisonWeapon::UpDownMoveInfo> >::reserve, COMDAT
; _this$ = ecx

; 746  : 		{	// determine new minimum length of allocated storage

  00000	6a 04		 push	 4
  00002	b8 00 00 00 00	 mov	 eax, __ehhandler$?reserve@?$vector@UUpDownMoveInfo@ioPrisonWeapon@@V?$allocator@UUpDownMoveInfo@ioPrisonWeapon@@@std@@@std@@QAEXI@Z
  00007	e8 00 00 00 00	 call	 __EH_prolog3_catch
  0000c	8b f1		 mov	 esi, ecx

; 747  : 		if (max_size() < _Count)

  0000e	8b 5d 08	 mov	 ebx, DWORD PTR __Count$[ebp]
  00011	81 fb 55 55 55
	15		 cmp	 ebx, 357913941		; 15555555H
  00017	76 0b		 jbe	 SHORT $LN5@reserve

; 748  : 			_Xlen();	// result too long

  00019	68 00 00 00 00	 push	 OFFSET ??_C@_0BD@OLBABOEK@vector?$DMT?$DO?5too?5long?$AA@
  0001e	ff 15 00 00 00
	00		 call	 DWORD PTR __imp_?_Xlength_error@std@@YAXPBD@Z
$LN56@reserve:
$LN5@reserve:

; 749  : 		else if (capacity() < _Count)

  00024	8b 46 08	 mov	 eax, DWORD PTR [esi+8]
  00027	2b 06		 sub	 eax, DWORD PTR [esi]
  00029	6a 0c		 push	 12			; 0000000cH
  0002b	99		 cdq
  0002c	59		 pop	 ecx
  0002d	f7 f9		 idiv	 ecx
  0002f	3b c3		 cmp	 eax, ebx
  00031	73 6b		 jae	 SHORT $LN3@reserve

; 750  : 			{	// not enough room, reallocate
; 751  : 			pointer _Ptr = this->_Alval.allocate(_Count);

  00033	6a 00		 push	 0
  00035	53		 push	 ebx
  00036	e8 00 00 00 00	 call	 ??$_Allocate@UUpDownMoveInfo@ioPrisonWeapon@@@std@@YAPAUUpDownMoveInfo@ioPrisonWeapon@@IPAU12@@Z ; std::_Allocate<ioPrisonWeapon::UpDownMoveInfo>

; 752  : 
; 753  : 			_TRY_BEGIN
; 754  : 			_Umove(this->_Myfirst, this->_Mylast, _Ptr);

  0003b	8b 0e		 mov	 ecx, DWORD PTR [esi]
  0003d	83 65 fc 00	 and	 DWORD PTR __$EHRec$[ebp+12], 0
  00041	8d 56 0c	 lea	 edx, DWORD PTR [esi+12]
  00044	52		 push	 edx
  00045	89 45 08	 mov	 DWORD PTR __Ptr$532982[ebp], eax
  00048	ff 75 08	 push	 DWORD PTR __Ptr$532982[ebp]
  0004b	8b 46 04	 mov	 eax, DWORD PTR [esi+4]
  0004e	50		 push	 eax
  0004f	51		 push	 ecx
  00050	e8 00 00 00 00	 call	 ??$_Uninitialized_move@PAUUpDownMoveInfo@ioPrisonWeapon@@PAU12@V?$allocator@UUpDownMoveInfo@ioPrisonWeapon@@@std@@@std@@YAPAUUpDownMoveInfo@ioPrisonWeapon@@PAU12@00AAV?$allocator@UUpDownMoveInfo@ioPrisonWeapon@@@0@@Z ; std::_Uninitialized_move<ioPrisonWeapon::UpDownMoveInfo *,ioPrisonWeapon::UpDownMoveInfo *,std::allocator<ioPrisonWeapon::UpDownMoveInfo> >

; 758  : 			_CATCH_END
; 759  : 
; 760  : 			size_type _Size = size();

  00055	8b 0e		 mov	 ecx, DWORD PTR [esi]
  00057	8b 46 04	 mov	 eax, DWORD PTR [esi+4]
  0005a	83 c4 18	 add	 esp, 24			; 00000018H
  0005d	2b c1		 sub	 eax, ecx
  0005f	6a 0c		 push	 12			; 0000000cH
  00061	99		 cdq
  00062	5f		 pop	 edi
  00063	f7 ff		 idiv	 edi
  00065	83 4d fc ff	 or	 DWORD PTR __$EHRec$[ebp+12], -1
  00069	8b f8		 mov	 edi, eax
  0006b	85 c9		 test	 ecx, ecx
  0006d	74 12		 je	 SHORT $LN48@reserve

; 761  : 			if (this->_Myfirst != 0)

  0006f	eb 03		 jmp	 SHORT $LN55@reserve

; 762  : 				{	// destroy and deallocate old array
; 763  : 				_Destroy(this->_Myfirst, this->_Mylast);

$LL39@reserve:
  00071	83 c1 0c	 add	 ecx, 12			; 0000000cH
$LN55@reserve:
  00074	3b 4e 04	 cmp	 ecx, DWORD PTR [esi+4]
  00077	75 f8		 jne	 SHORT $LL39@reserve

; 764  : 				this->_Alval.deallocate(this->_Myfirst,
; 765  : 					this->_Myend - this->_Myfirst);

  00079	ff 36		 push	 DWORD PTR [esi]
  0007b	e8 00 00 00 00	 call	 ??3@YAXPAX@Z		; operator delete
  00080	59		 pop	 ecx
$LN48@reserve:

; 766  : 				}
; 767  : 
; 768  : 			this->_Orphan_all();

  00081	8b ce		 mov	 ecx, esi
  00083	ff 15 00 00 00
	00		 call	 DWORD PTR __imp_?_Orphan_all@_Container_base0@std@@QAEXXZ

; 769  : 			this->_Myend = _Ptr + _Count;

  00089	6b db 0c	 imul	 ebx, 12			; 0000000cH

; 770  : 			this->_Mylast = _Ptr + _Size;

  0008c	6b ff 0c	 imul	 edi, 12			; 0000000cH
  0008f	8b 45 08	 mov	 eax, DWORD PTR __Ptr$532982[ebp]
  00092	03 d8		 add	 ebx, eax
  00094	03 f8		 add	 edi, eax
  00096	89 5e 08	 mov	 DWORD PTR [esi+8], ebx
  00099	89 7e 04	 mov	 DWORD PTR [esi+4], edi

; 771  : 			this->_Myfirst = _Ptr;

  0009c	89 06		 mov	 DWORD PTR [esi], eax
$LN3@reserve:

; 772  : 			}
; 773  : 		}

  0009e	e8 00 00 00 00	 call	 __EH_epilog3
  000a3	c2 04 00	 ret	 4
__catch$?reserve@?$vector@UUpDownMoveInfo@ioPrisonWeapon@@V?$allocator@UUpDownMoveInfo@ioPrisonWeapon@@@std@@@std@@QAEXI@Z$0:

; 755  : 			_CATCH_ALL
; 756  : 			this->_Alval.deallocate(_Ptr, _Count);

  000a6	ff 75 08	 push	 DWORD PTR __Ptr$532982[ebp]
  000a9	e8 00 00 00 00	 call	 ??3@YAXPAX@Z		; operator delete
  000ae	59		 pop	 ecx

; 757  : 			_RERAISE;

  000af	6a 00		 push	 0
  000b1	6a 00		 push	 0
  000b3	e8 00 00 00 00	 call	 __CxxThrowException@8
$LN57@reserve:
$LN54@reserve:
  000b8	cc		 int	 3
_TEXT	ENDS
;	COMDAT text$x
text$x	SEGMENT
__ehhandler$?reserve@?$vector@UUpDownMoveInfo@ioPrisonWeapon@@V?$allocator@UUpDownMoveInfo@ioPrisonWeapon@@@std@@@std@@QAEXI@Z:
  00000	8b 54 24 08	 mov	 edx, DWORD PTR [esp+8]
  00004	8d 42 0c	 lea	 eax, DWORD PTR [edx+12]
  00007	8b 4a ec	 mov	 ecx, DWORD PTR [edx-20]
  0000a	33 c8		 xor	 ecx, eax
  0000c	e8 00 00 00 00	 call	 @__security_check_cookie@4
  00011	b8 00 00 00 00	 mov	 eax, OFFSET __ehfuncinfo$?reserve@?$vector@UUpDownMoveInfo@ioPrisonWeapon@@V?$allocator@UUpDownMoveInfo@ioPrisonWeapon@@@std@@@std@@QAEXI@Z
  00016	e9 00 00 00 00	 jmp	 ___CxxFrameHandler3
text$x	ENDS
?reserve@?$vector@UUpDownMoveInfo@ioPrisonWeapon@@V?$allocator@UUpDownMoveInfo@ioPrisonWeapon@@@std@@@std@@QAEXI@Z ENDP ; std::vector<ioPrisonWeapon::UpDownMoveInfo,std::allocator<ioPrisonWeapon::UpDownMoveInfo> >::reserve
PUBLIC	?clear@?$vector@UUpDownMoveInfo@ioPrisonWeapon@@V?$allocator@UUpDownMoveInfo@ioPrisonWeapon@@@std@@@std@@QAEXXZ ; std::vector<ioPrisonWeapon::UpDownMoveInfo,std::allocator<ioPrisonWeapon::UpDownMoveInfo> >::clear
; Function compile flags: /Ogsp
;	COMDAT ?clear@?$vector@UUpDownMoveInfo@ioPrisonWeapon@@V?$allocator@UUpDownMoveInfo@ioPrisonWeapon@@@std@@@std@@QAEXXZ
_TEXT	SEGMENT
$T539732 = -4						; size = 4
?clear@?$vector@UUpDownMoveInfo@ioPrisonWeapon@@V?$allocator@UUpDownMoveInfo@ioPrisonWeapon@@@std@@@std@@QAEXXZ PROC ; std::vector<ioPrisonWeapon::UpDownMoveInfo,std::allocator<ioPrisonWeapon::UpDownMoveInfo> >::clear, COMDAT
; _this$ = ecx

; 1217 : 		{	// erase all

  00000	55		 push	 ebp
  00001	8b ec		 mov	 ebp, esp
  00003	51		 push	 ecx

; 1218 : 		erase(begin(), end());

  00004	8b 41 04	 mov	 eax, DWORD PTR [ecx+4]
  00007	8b 11		 mov	 edx, DWORD PTR [ecx]
  00009	50		 push	 eax
  0000a	52		 push	 edx
  0000b	8d 45 fc	 lea	 eax, DWORD PTR $T539732[ebp]
  0000e	50		 push	 eax
  0000f	e8 00 00 00 00	 call	 ?erase@?$vector@UUpDownMoveInfo@ioPrisonWeapon@@V?$allocator@UUpDownMoveInfo@ioPrisonWeapon@@@std@@@std@@QAE?AV?$_Vector_iterator@V?$_Vector_val@UUpDownMoveInfo@ioPrisonWeapon@@V?$allocator@UUpDownMoveInfo@ioPrisonWeapon@@@std@@@std@@@2@V?$_Vector_const_iterator@V?$_Vector_val@UUpDownMoveInfo@ioPrisonWeapon@@V?$allocator@UUpDownMoveInfo@ioPrisonWeapon@@@std@@@std@@@2@0@Z ; std::vector<ioPrisonWeapon::UpDownMoveInfo,std::allocator<ioPrisonWeapon::UpDownMoveInfo> >::erase

; 1219 : 		}

  00014	c9		 leave
  00015	c3		 ret	 0
?clear@?$vector@UUpDownMoveInfo@ioPrisonWeapon@@V?$allocator@UUpDownMoveInfo@ioPrisonWeapon@@@std@@@std@@QAEXXZ ENDP ; std::vector<ioPrisonWeapon::UpDownMoveInfo,std::allocator<ioPrisonWeapon::UpDownMoveInfo> >::clear
_TEXT	ENDS
PUBLIC	??0?$vector@UUpDownMoveInfo@ioPrisonWeapon@@V?$allocator@UUpDownMoveInfo@ioPrisonWeapon@@@std@@@std@@QAE@ABV01@@Z ; std::vector<ioPrisonWeapon::UpDownMoveInfo,std::allocator<ioPrisonWeapon::UpDownMoveInfo> >::vector<ioPrisonWeapon::UpDownMoveInfo,std::allocator<ioPrisonWeapon::UpDownMoveInfo> >
;	COMDAT xdata$x
; File c:\program files (x86)\microsoft visual studio 10.0\vc\include\xutility
xdata$x	SEGMENT
__catchsym$??0?$vector@UUpDownMoveInfo@ioPrisonWeapon@@V?$allocator@UUpDownMoveInfo@ioPrisonWeapon@@@std@@@std@@QAE@ABV01@@Z$2 DD 040H
	DD	00H
	DD	00H
	DD	FLAT:__catch$??0?$vector@UUpDownMoveInfo@ioPrisonWeapon@@V?$allocator@UUpDownMoveInfo@ioPrisonWeapon@@@std@@@std@@QAE@ABV01@@Z$0
__unwindtable$??0?$vector@UUpDownMoveInfo@ioPrisonWeapon@@V?$allocator@UUpDownMoveInfo@ioPrisonWeapon@@@std@@@std@@QAE@ABV01@@Z DD 0ffffffffH
	DD	00H
	DD	0ffffffffH
	DD	00H
__tryblocktable$??0?$vector@UUpDownMoveInfo@ioPrisonWeapon@@V?$allocator@UUpDownMoveInfo@ioPrisonWeapon@@@std@@@std@@QAE@ABV01@@Z DD 00H
	DD	00H
	DD	01H
	DD	01H
	DD	FLAT:__catchsym$??0?$vector@UUpDownMoveInfo@ioPrisonWeapon@@V?$allocator@UUpDownMoveInfo@ioPrisonWeapon@@@std@@@std@@QAE@ABV01@@Z$2
__ehfuncinfo$??0?$vector@UUpDownMoveInfo@ioPrisonWeapon@@V?$allocator@UUpDownMoveInfo@ioPrisonWeapon@@@std@@@std@@QAE@ABV01@@Z DD 019930522H
	DD	02H
	DD	FLAT:__unwindtable$??0?$vector@UUpDownMoveInfo@ioPrisonWeapon@@V?$allocator@UUpDownMoveInfo@ioPrisonWeapon@@@std@@@std@@QAE@ABV01@@Z
	DD	01H
	DD	FLAT:__tryblocktable$??0?$vector@UUpDownMoveInfo@ioPrisonWeapon@@V?$allocator@UUpDownMoveInfo@ioPrisonWeapon@@@std@@@std@@QAE@ABV01@@Z
	DD	2 DUP(00H)
	DD	00H
	DD	01H
; Function compile flags: /Ogsp
; File c:\program files (x86)\microsoft visual studio 10.0\vc\include\vector
xdata$x	ENDS
;	COMDAT ??0?$vector@UUpDownMoveInfo@ioPrisonWeapon@@V?$allocator@UUpDownMoveInfo@ioPrisonWeapon@@@std@@@std@@QAE@ABV01@@Z
_TEXT	SEGMENT
_this$ = -20						; size = 4
__$EHRec$ = -16						; size = 16
__Cat$539861 = 8					; size = 1
__Right$ = 8						; size = 4
??0?$vector@UUpDownMoveInfo@ioPrisonWeapon@@V?$allocator@UUpDownMoveInfo@ioPrisonWeapon@@@std@@@std@@QAE@ABV01@@Z PROC ; std::vector<ioPrisonWeapon::UpDownMoveInfo,std::allocator<ioPrisonWeapon::UpDownMoveInfo> >::vector<ioPrisonWeapon::UpDownMoveInfo,std::allocator<ioPrisonWeapon::UpDownMoveInfo> >, COMDAT
; _this$ = ecx

; 535  : 		{	// construct by copying _Right

  00000	6a 08		 push	 8
  00002	b8 00 00 00 00	 mov	 eax, __ehhandler$??0?$vector@UUpDownMoveInfo@ioPrisonWeapon@@V?$allocator@UUpDownMoveInfo@ioPrisonWeapon@@@std@@@std@@QAE@ABV01@@Z
  00007	e8 00 00 00 00	 call	 __EH_prolog3_catch
  0000c	8b f1		 mov	 esi, ecx
  0000e	89 75 ec	 mov	 DWORD PTR _this$[ebp], esi

; 536  : 		if (_Buy(_Right.size()))

  00011	8b 7d 08	 mov	 edi, DWORD PTR __Right$[ebp]
  00014	33 db		 xor	 ebx, ebx
  00016	89 1e		 mov	 DWORD PTR [esi], ebx
  00018	89 5e 04	 mov	 DWORD PTR [esi+4], ebx
  0001b	89 5e 08	 mov	 DWORD PTR [esi+8], ebx
  0001e	8b 47 04	 mov	 eax, DWORD PTR [edi+4]
  00021	2b 07		 sub	 eax, DWORD PTR [edi]
  00023	6a 0c		 push	 12			; 0000000cH
  00025	59		 pop	 ecx
  00026	99		 cdq
  00027	f7 f9		 idiv	 ecx
  00029	8b ce		 mov	 ecx, esi
  0002b	50		 push	 eax
  0002c	e8 00 00 00 00	 call	 ?_Buy@?$vector@UUpDownMoveInfo@ioPrisonWeapon@@V?$allocator@UUpDownMoveInfo@ioPrisonWeapon@@@std@@@std@@IAE_NI@Z ; std::vector<ioPrisonWeapon::UpDownMoveInfo,std::allocator<ioPrisonWeapon::UpDownMoveInfo> >::_Buy
  00031	84 c0		 test	 al, al
  00033	74 1f		 je	 SHORT $LN7@vector

; 537  : 			_TRY_BEGIN
; 538  : 			this->_Mylast = _Ucopy(_Right.begin(), _Right.end(),
; 539  : 				this->_Myfirst);

  00035	ff 75 08	 push	 DWORD PTR __Cat$539861[ebp]
  00038	8b 0e		 mov	 ecx, DWORD PTR [esi]
  0003a	8b 47 04	 mov	 eax, DWORD PTR [edi+4]
  0003d	8b 3f		 mov	 edi, DWORD PTR [edi]
  0003f	8d 56 0c	 lea	 edx, DWORD PTR [esi+12]
  00042	52		 push	 edx
  00043	51		 push	 ecx
  00044	50		 push	 eax
  00045	57		 push	 edi
  00046	89 5d fc	 mov	 DWORD PTR __$EHRec$[ebp+12], ebx
  00049	e8 00 00 00 00	 call	 ??$_Uninit_copy@V?$_Vector_const_iterator@V?$_Vector_val@UUpDownMoveInfo@ioPrisonWeapon@@V?$allocator@UUpDownMoveInfo@ioPrisonWeapon@@@std@@@std@@@std@@PAUUpDownMoveInfo@ioPrisonWeapon@@V?$allocator@UUpDownMoveInfo@ioPrisonWeapon@@@2@@std@@YAPAUUpDownMoveInfo@ioPrisonWeapon@@V?$_Vector_const_iterator@V?$_Vector_val@UUpDownMoveInfo@ioPrisonWeapon@@V?$allocator@UUpDownMoveInfo@ioPrisonWeapon@@@std@@@std@@@0@0PAU12@AAV?$allocator@UUpDownMoveInfo@ioPrisonWeapon@@@0@U_Nonscalar_ptr_iterator_tag@0@@Z ; std::_Uninit_copy<std::_Vector_const_iterator<std::_Vector_val<ioPrisonWeapon::UpDownMoveInfo,std::allocator<ioPrisonWeapon::UpDownMoveInfo> > >,ioPrisonWeapon::UpDownMoveInfo *,std::allocator<ioPrisonWeapon::UpDownMoveInfo> >
  0004e	83 c4 14	 add	 esp, 20			; 00000014H
  00051	89 46 04	 mov	 DWORD PTR [esi+4], eax
$LN7@vector:

; 543  : 			_CATCH_END
; 544  : 		}

  00054	8b c6		 mov	 eax, esi
  00056	e8 00 00 00 00	 call	 __EH_epilog3
  0005b	c2 04 00	 ret	 4
__catch$??0?$vector@UUpDownMoveInfo@ioPrisonWeapon@@V?$allocator@UUpDownMoveInfo@ioPrisonWeapon@@@std@@@std@@QAE@ABV01@@Z$0:

; 540  : 			_CATCH_ALL
; 541  : 			_Tidy();

  0005e	8b 4d ec	 mov	 ecx, DWORD PTR _this$[ebp]
  00061	e8 00 00 00 00	 call	 ?_Tidy@?$vector@UUpDownMoveInfo@ioPrisonWeapon@@V?$allocator@UUpDownMoveInfo@ioPrisonWeapon@@@std@@@std@@IAEXXZ ; std::vector<ioPrisonWeapon::UpDownMoveInfo,std::allocator<ioPrisonWeapon::UpDownMoveInfo> >::_Tidy

; 542  : 			_RERAISE;

  00066	33 db		 xor	 ebx, ebx
  00068	53		 push	 ebx
  00069	53		 push	 ebx
  0006a	e8 00 00 00 00	 call	 __CxxThrowException@8
$LN38@vector:
$LN37@vector:
  0006f	cc		 int	 3
_TEXT	ENDS
;	COMDAT text$x
text$x	SEGMENT
__ehhandler$??0?$vector@UUpDownMoveInfo@ioPrisonWeapon@@V?$allocator@UUpDownMoveInfo@ioPrisonWeapon@@@std@@@std@@QAE@ABV01@@Z:
  00000	8b 54 24 08	 mov	 edx, DWORD PTR [esp+8]
  00004	8d 42 0c	 lea	 eax, DWORD PTR [edx+12]
  00007	8b 4a e8	 mov	 ecx, DWORD PTR [edx-24]
  0000a	33 c8		 xor	 ecx, eax
  0000c	e8 00 00 00 00	 call	 @__security_check_cookie@4
  00011	b8 00 00 00 00	 mov	 eax, OFFSET __ehfuncinfo$??0?$vector@UUpDownMoveInfo@ioPrisonWeapon@@V?$allocator@UUpDownMoveInfo@ioPrisonWeapon@@@std@@@std@@QAE@ABV01@@Z
  00016	e9 00 00 00 00	 jmp	 ___CxxFrameHandler3
text$x	ENDS
??0?$vector@UUpDownMoveInfo@ioPrisonWeapon@@V?$allocator@UUpDownMoveInfo@ioPrisonWeapon@@@std@@@std@@QAE@ABV01@@Z ENDP ; std::vector<ioPrisonWeapon::UpDownMoveInfo,std::allocator<ioPrisonWeapon::UpDownMoveInfo> >::vector<ioPrisonWeapon::UpDownMoveInfo,std::allocator<ioPrisonWeapon::UpDownMoveInfo> >
PUBLIC	??1?$vector@UUpDownMoveInfo@ioPrisonWeapon@@V?$allocator@UUpDownMoveInfo@ioPrisonWeapon@@@std@@@std@@QAE@XZ ; std::vector<ioPrisonWeapon::UpDownMoveInfo,std::allocator<ioPrisonWeapon::UpDownMoveInfo> >::~vector<ioPrisonWeapon::UpDownMoveInfo,std::allocator<ioPrisonWeapon::UpDownMoveInfo> >
; Function compile flags: /Ogsp
;	COMDAT ??1?$vector@UUpDownMoveInfo@ioPrisonWeapon@@V?$allocator@UUpDownMoveInfo@ioPrisonWeapon@@@std@@@std@@QAE@XZ
_TEXT	SEGMENT
??1?$vector@UUpDownMoveInfo@ioPrisonWeapon@@V?$allocator@UUpDownMoveInfo@ioPrisonWeapon@@@std@@@std@@QAE@XZ PROC ; std::vector<ioPrisonWeapon::UpDownMoveInfo,std::allocator<ioPrisonWeapon::UpDownMoveInfo> >::~vector<ioPrisonWeapon::UpDownMoveInfo,std::allocator<ioPrisonWeapon::UpDownMoveInfo> >, COMDAT
; _this$ = ecx

; 705  : 		_Tidy();

  00000	e9 00 00 00 00	 jmp	 ?_Tidy@?$vector@UUpDownMoveInfo@ioPrisonWeapon@@V?$allocator@UUpDownMoveInfo@ioPrisonWeapon@@@std@@@std@@IAEXXZ ; std::vector<ioPrisonWeapon::UpDownMoveInfo,std::allocator<ioPrisonWeapon::UpDownMoveInfo> >::_Tidy
??1?$vector@UUpDownMoveInfo@ioPrisonWeapon@@V?$allocator@UUpDownMoveInfo@ioPrisonWeapon@@@std@@@std@@QAE@XZ ENDP ; std::vector<ioPrisonWeapon::UpDownMoveInfo,std::allocator<ioPrisonWeapon::UpDownMoveInfo> >::~vector<ioPrisonWeapon::UpDownMoveInfo,std::allocator<ioPrisonWeapon::UpDownMoveInfo> >
_TEXT	ENDS
PUBLIC	?_Reserve@?$vector@UUpDownMoveInfo@ioPrisonWeapon@@V?$allocator@UUpDownMoveInfo@ioPrisonWeapon@@@std@@@std@@IAEXI@Z ; std::vector<ioPrisonWeapon::UpDownMoveInfo,std::allocator<ioPrisonWeapon::UpDownMoveInfo> >::_Reserve
; Function compile flags: /Ogsp
;	COMDAT ?_Reserve@?$vector@UUpDownMoveInfo@ioPrisonWeapon@@V?$allocator@UUpDownMoveInfo@ioPrisonWeapon@@@std@@@std@@IAEXI@Z
_TEXT	SEGMENT
__Count$ = 8						; size = 4
?_Reserve@?$vector@UUpDownMoveInfo@ioPrisonWeapon@@V?$allocator@UUpDownMoveInfo@ioPrisonWeapon@@@std@@@std@@IAEXI@Z PROC ; std::vector<ioPrisonWeapon::UpDownMoveInfo,std::allocator<ioPrisonWeapon::UpDownMoveInfo> >::_Reserve, COMDAT
; _this$ = ecx

; 1290 : 		{	// ensure room for _Count new elements, grow exponentially

  00000	55		 push	 ebp
  00001	8b ec		 mov	 ebp, esp
  00003	56		 push	 esi
  00004	8b f1		 mov	 esi, ecx

; 1291 : 		size_type _Size = size();

  00006	8b 0e		 mov	 ecx, DWORD PTR [esi]
  00008	8b 46 04	 mov	 eax, DWORD PTR [esi+4]
  0000b	2b c1		 sub	 eax, ecx
  0000d	57		 push	 edi
  0000e	99		 cdq
  0000f	6a 0c		 push	 12			; 0000000cH
  00011	5f		 pop	 edi
  00012	f7 ff		 idiv	 edi
  00014	8b f8		 mov	 edi, eax

; 1292 : 		if (max_size() - _Count < _Size)

  00016	b8 55 55 55 15	 mov	 eax, 357913941		; 15555555H
  0001b	2b 45 08	 sub	 eax, DWORD PTR __Count$[ebp]
  0001e	3b c7		 cmp	 eax, edi
  00020	73 0b		 jae	 SHORT $LN4@Reserve

; 1293 : 			_Xlen();

  00022	68 00 00 00 00	 push	 OFFSET ??_C@_0BD@OLBABOEK@vector?$DMT?$DO?5too?5long?$AA@
  00027	ff 15 00 00 00
	00		 call	 DWORD PTR __imp_?_Xlength_error@std@@YAXPBD@Z
$LN21@Reserve:
$LN4@Reserve:

; 1294 : 		else if ((_Size += _Count) <= capacity())

  0002d	8b 46 08	 mov	 eax, DWORD PTR [esi+8]
  00030	2b c1		 sub	 eax, ecx
  00032	6a 0c		 push	 12			; 0000000cH
  00034	99		 cdq
  00035	59		 pop	 ecx
  00036	f7 f9		 idiv	 ecx
  00038	03 7d 08	 add	 edi, DWORD PTR __Count$[ebp]
  0003b	3b f8		 cmp	 edi, eax
  0003d	76 10		 jbe	 SHORT $LN1@Reserve

; 1295 : 			;
; 1296 : 		else
; 1297 : 			reserve(_Grow_to(_Size));

  0003f	57		 push	 edi
  00040	8b ce		 mov	 ecx, esi
  00042	e8 00 00 00 00	 call	 ?_Grow_to@?$vector@UUpDownMoveInfo@ioPrisonWeapon@@V?$allocator@UUpDownMoveInfo@ioPrisonWeapon@@@std@@@std@@IBEII@Z ; std::vector<ioPrisonWeapon::UpDownMoveInfo,std::allocator<ioPrisonWeapon::UpDownMoveInfo> >::_Grow_to
  00047	50		 push	 eax
  00048	8b ce		 mov	 ecx, esi
  0004a	e8 00 00 00 00	 call	 ?reserve@?$vector@UUpDownMoveInfo@ioPrisonWeapon@@V?$allocator@UUpDownMoveInfo@ioPrisonWeapon@@@std@@@std@@QAEXI@Z ; std::vector<ioPrisonWeapon::UpDownMoveInfo,std::allocator<ioPrisonWeapon::UpDownMoveInfo> >::reserve
$LN1@Reserve:
  0004f	5f		 pop	 edi
  00050	5e		 pop	 esi

; 1298 : 		}

  00051	5d		 pop	 ebp
  00052	c2 04 00	 ret	 4
$LN20@Reserve:
?_Reserve@?$vector@UUpDownMoveInfo@ioPrisonWeapon@@V?$allocator@UUpDownMoveInfo@ioPrisonWeapon@@@std@@@std@@IAEXI@Z ENDP ; std::vector<ioPrisonWeapon::UpDownMoveInfo,std::allocator<ioPrisonWeapon::UpDownMoveInfo> >::_Reserve
_TEXT	ENDS
PUBLIC	??0UpDownInfo@ioPrisonWeapon@@QAE@ABU01@@Z	; ioPrisonWeapon::UpDownInfo::UpDownInfo
; Function compile flags: /Ogsp
;	COMDAT ??0UpDownInfo@ioPrisonWeapon@@QAE@ABU01@@Z
_TEXT	SEGMENT
___that$ = 8						; size = 4
??0UpDownInfo@ioPrisonWeapon@@QAE@ABU01@@Z PROC		; ioPrisonWeapon::UpDownInfo::UpDownInfo, COMDAT
; _this$ = ecx
  00000	55		 push	 ebp
  00001	8b ec		 mov	 ebp, esp
  00003	56		 push	 esi
  00004	57		 push	 edi
  00005	8b 7d 08	 mov	 edi, DWORD PTR ___that$[ebp]
  00008	57		 push	 edi
  00009	8b f1		 mov	 esi, ecx
  0000b	e8 00 00 00 00	 call	 ??0?$vector@UUpDownMoveInfo@ioPrisonWeapon@@V?$allocator@UUpDownMoveInfo@ioPrisonWeapon@@@std@@@std@@QAE@ABV01@@Z ; std::vector<ioPrisonWeapon::UpDownMoveInfo,std::allocator<ioPrisonWeapon::UpDownMoveInfo> >::vector<ioPrisonWeapon::UpDownMoveInfo,std::allocator<ioPrisonWeapon::UpDownMoveInfo> >
  00010	d9 47 10	 fld	 DWORD PTR [edi+16]
  00013	5f		 pop	 edi
  00014	d9 5e 10	 fstp	 DWORD PTR [esi+16]
  00017	8b c6		 mov	 eax, esi
  00019	5e		 pop	 esi
  0001a	5d		 pop	 ebp
  0001b	c2 04 00	 ret	 4
??0UpDownInfo@ioPrisonWeapon@@QAE@ABU01@@Z ENDP		; ioPrisonWeapon::UpDownInfo::UpDownInfo
_TEXT	ENDS
PUBLIC	??4?$vector@UUpDownMoveInfo@ioPrisonWeapon@@V?$allocator@UUpDownMoveInfo@ioPrisonWeapon@@@std@@@std@@QAEAAV01@ABV01@@Z ; std::vector<ioPrisonWeapon::UpDownMoveInfo,std::allocator<ioPrisonWeapon::UpDownMoveInfo> >::operator=
; Function compile flags: /Ogsp
;	COMDAT ??4?$vector@UUpDownMoveInfo@ioPrisonWeapon@@V?$allocator@UUpDownMoveInfo@ioPrisonWeapon@@@std@@@std@@QAEAAV01@ABV01@@Z
_TEXT	SEGMENT
tv551 = 8						; size = 4
__Cat$540241 = 8					; size = 1
__Cat$540138 = 8					; size = 1
__Cat$540116 = 8					; size = 1
__Cat$540018 = 8					; size = 1
$T539984 = 8						; size = 4
__Right$ = 8						; size = 4
??4?$vector@UUpDownMoveInfo@ioPrisonWeapon@@V?$allocator@UUpDownMoveInfo@ioPrisonWeapon@@@std@@@std@@QAEAAV01@ABV01@@Z PROC ; std::vector<ioPrisonWeapon::UpDownMoveInfo,std::allocator<ioPrisonWeapon::UpDownMoveInfo> >::operator=, COMDAT
; _this$ = ecx

; 709  : 		{	// assign _Right

  00000	55		 push	 ebp
  00001	8b ec		 mov	 ebp, esp
  00003	56		 push	 esi
  00004	57		 push	 edi

; 710  : 		if (this != &_Right)

  00005	8b 7d 08	 mov	 edi, DWORD PTR __Right$[ebp]
  00008	8b f1		 mov	 esi, ecx
  0000a	3b f7		 cmp	 esi, edi
  0000c	0f 84 e2 00 00
	00		 je	 $LN1@operator

; 711  : 			{	// worth doing
; 712  : 			this->_Orphan_all();

  00012	53		 push	 ebx
  00013	ff 15 00 00 00
	00		 call	 DWORD PTR __imp_?_Orphan_all@_Container_base0@std@@QAEXXZ

; 713  : 
; 714  : 			if (_Right.size() == 0)

  00019	8b 5f 04	 mov	 ebx, DWORD PTR [edi+4]
  0001c	8b c3		 mov	 eax, ebx
  0001e	2b 07		 sub	 eax, DWORD PTR [edi]
  00020	6a 0c		 push	 12			; 0000000cH
  00022	99		 cdq
  00023	59		 pop	 ecx
  00024	f7 f9		 idiv	 ecx
  00026	89 45 08	 mov	 DWORD PTR tv551[ebp], eax
  00029	85 c0		 test	 eax, eax

; 715  : 				clear();	// new sequence empty, erase existing sequence

  0002b	8b 46 04	 mov	 eax, DWORD PTR [esi+4]
  0002e	75 14		 jne	 SHORT $LN8@operator
  00030	8b 0e		 mov	 ecx, DWORD PTR [esi]
  00032	50		 push	 eax
  00033	51		 push	 ecx
  00034	8d 45 08	 lea	 eax, DWORD PTR $T539984[ebp]
  00037	50		 push	 eax
  00038	8b ce		 mov	 ecx, esi
  0003a	e8 00 00 00 00	 call	 ?erase@?$vector@UUpDownMoveInfo@ioPrisonWeapon@@V?$allocator@UUpDownMoveInfo@ioPrisonWeapon@@@std@@@std@@QAE?AV?$_Vector_iterator@V?$_Vector_val@UUpDownMoveInfo@ioPrisonWeapon@@V?$allocator@UUpDownMoveInfo@ioPrisonWeapon@@@std@@@std@@@2@V?$_Vector_const_iterator@V?$_Vector_val@UUpDownMoveInfo@ioPrisonWeapon@@V?$allocator@UUpDownMoveInfo@ioPrisonWeapon@@@std@@@std@@@2@0@Z ; std::vector<ioPrisonWeapon::UpDownMoveInfo,std::allocator<ioPrisonWeapon::UpDownMoveInfo> >::erase

; 716  : 			else if (_Right.size() <= size())

  0003f	e9 af 00 00 00	 jmp	 $LN106@operator
$LN8@operator:
  00044	2b 06		 sub	 eax, DWORD PTR [esi]
  00046	6a 0c		 push	 12			; 0000000cH
  00048	99		 cdq
  00049	59		 pop	 ecx
  0004a	f7 f9		 idiv	 ecx
  0004c	8b c8		 mov	 ecx, eax
  0004e	39 4d 08	 cmp	 DWORD PTR tv551[ebp], ecx
  00051	77 22		 ja	 SHORT $LN6@operator

; 717  : 				{	// enough elements, copy new and destroy old
; 718  : 				pointer _Ptr = _STD _Copy_impl(_Right._Myfirst, _Right._Mylast,
; 719  : 					this->_Myfirst);	// copy new

  00053	ff 75 08	 push	 DWORD PTR __Cat$540018[ebp]
  00056	ff 36		 push	 DWORD PTR [esi]
  00058	53		 push	 ebx
  00059	ff 37		 push	 DWORD PTR [edi]
  0005b	e8 00 00 00 00	 call	 ??$_Copy_impl@PAUUpDownMoveInfo@ioPrisonWeapon@@PAU12@@std@@YAPAUUpDownMoveInfo@ioPrisonWeapon@@PAU12@00U_Nonscalar_ptr_iterator_tag@0@@Z ; std::_Copy_impl<ioPrisonWeapon::UpDownMoveInfo *,ioPrisonWeapon::UpDownMoveInfo *>

; 720  : 				_Destroy(_Ptr, this->_Mylast);	// destroy old
; 721  : 				this->_Mylast = this->_Myfirst + _Right.size();

  00060	8b 47 04	 mov	 eax, DWORD PTR [edi+4]
  00063	2b 07		 sub	 eax, DWORD PTR [edi]
  00065	83 c4 10	 add	 esp, 16			; 00000010H
  00068	99		 cdq
  00069	6a 0c		 push	 12			; 0000000cH
  0006b	59		 pop	 ecx
  0006c	f7 f9		 idiv	 ecx
  0006e	6b c0 0c	 imul	 eax, 12			; 0000000cH
  00071	03 06		 add	 eax, DWORD PTR [esi]

; 722  : 				}
; 723  : 			else if (_Right.size() <= capacity())

  00073	eb 7b		 jmp	 SHORT $LN107@operator
$LN6@operator:
  00075	8b 46 08	 mov	 eax, DWORD PTR [esi+8]
  00078	2b 06		 sub	 eax, DWORD PTR [esi]
  0007a	6a 0c		 push	 12			; 0000000cH
  0007c	99		 cdq
  0007d	5b		 pop	 ebx
  0007e	f7 fb		 idiv	 ebx
  00080	39 45 08	 cmp	 DWORD PTR tv551[ebp], eax
  00083	77 2e		 ja	 SHORT $LN4@operator

; 724  : 				{	// enough room, copy and construct new
; 725  : 				pointer _Ptr = _Right._Myfirst + size();
; 726  : 				_STD _Copy_impl(_Right._Myfirst, _Ptr, this->_Myfirst);

  00085	ff 75 08	 push	 DWORD PTR __Cat$540116[ebp]
  00088	6b c9 0c	 imul	 ecx, 12			; 0000000cH
  0008b	8b 07		 mov	 eax, DWORD PTR [edi]
  0008d	ff 36		 push	 DWORD PTR [esi]
  0008f	8d 1c 08	 lea	 ebx, DWORD PTR [eax+ecx]
  00092	53		 push	 ebx
  00093	50		 push	 eax
  00094	e8 00 00 00 00	 call	 ??$_Copy_impl@PAUUpDownMoveInfo@ioPrisonWeapon@@PAU12@@std@@YAPAUUpDownMoveInfo@ioPrisonWeapon@@PAU12@00U_Nonscalar_ptr_iterator_tag@0@@Z ; std::_Copy_impl<ioPrisonWeapon::UpDownMoveInfo *,ioPrisonWeapon::UpDownMoveInfo *>

; 727  : 				this->_Mylast = _Ucopy(_Ptr, _Right._Mylast, this->_Mylast);

  00099	ff 75 08	 push	 DWORD PTR __Cat$540138[ebp]
  0009c	8b 46 04	 mov	 eax, DWORD PTR [esi+4]
  0009f	8b 7f 04	 mov	 edi, DWORD PTR [edi+4]
  000a2	8d 4e 0c	 lea	 ecx, DWORD PTR [esi+12]
  000a5	51		 push	 ecx
  000a6	50		 push	 eax
  000a7	57		 push	 edi
  000a8	53		 push	 ebx
  000a9	e8 00 00 00 00	 call	 ??$_Uninit_copy@PAUUpDownMoveInfo@ioPrisonWeapon@@PAU12@V?$allocator@UUpDownMoveInfo@ioPrisonWeapon@@@std@@@std@@YAPAUUpDownMoveInfo@ioPrisonWeapon@@PAU12@00AAV?$allocator@UUpDownMoveInfo@ioPrisonWeapon@@@0@U_Nonscalar_ptr_iterator_tag@0@@Z ; std::_Uninit_copy<ioPrisonWeapon::UpDownMoveInfo *,ioPrisonWeapon::UpDownMoveInfo *,std::allocator<ioPrisonWeapon::UpDownMoveInfo> >
  000ae	83 c4 24	 add	 esp, 36			; 00000024H

; 728  : 				}
; 729  : 			else

  000b1	eb 3d		 jmp	 SHORT $LN107@operator
$LN4@operator:

; 730  : 				{	// not enough room, allocate new array and construct new
; 731  : 				if (this->_Myfirst != 0)

  000b3	8b 06		 mov	 eax, DWORD PTR [esi]
  000b5	85 c0		 test	 eax, eax
  000b7	74 07		 je	 SHORT $LN92@operator

; 732  : 					{	// discard old array
; 733  : 					_Destroy(this->_Myfirst, this->_Mylast);
; 734  : 					this->_Alval.deallocate(this->_Myfirst,
; 735  : 						this->_Myend - this->_Myfirst);

  000b9	50		 push	 eax
  000ba	e8 00 00 00 00	 call	 ??3@YAXPAX@Z		; operator delete
  000bf	59		 pop	 ecx
$LN92@operator:

; 736  : 					}
; 737  : 				if (_Buy(_Right.size()))

  000c0	8b 47 04	 mov	 eax, DWORD PTR [edi+4]
  000c3	2b 07		 sub	 eax, DWORD PTR [edi]
  000c5	6a 0c		 push	 12			; 0000000cH
  000c7	59		 pop	 ecx
  000c8	99		 cdq
  000c9	f7 f9		 idiv	 ecx
  000cb	8b ce		 mov	 ecx, esi
  000cd	50		 push	 eax
  000ce	e8 00 00 00 00	 call	 ?_Buy@?$vector@UUpDownMoveInfo@ioPrisonWeapon@@V?$allocator@UUpDownMoveInfo@ioPrisonWeapon@@@std@@@std@@IAE_NI@Z ; std::vector<ioPrisonWeapon::UpDownMoveInfo,std::allocator<ioPrisonWeapon::UpDownMoveInfo> >::_Buy
  000d3	84 c0		 test	 al, al
  000d5	74 1c		 je	 SHORT $LN106@operator

; 738  : 					this->_Mylast = _Ucopy(_Right._Myfirst, _Right._Mylast,
; 739  : 						this->_Myfirst);

  000d7	ff 75 08	 push	 DWORD PTR __Cat$540241[ebp]
  000da	8b 06		 mov	 eax, DWORD PTR [esi]
  000dc	8b 4f 04	 mov	 ecx, DWORD PTR [edi+4]
  000df	8b 3f		 mov	 edi, DWORD PTR [edi]
  000e1	8d 56 0c	 lea	 edx, DWORD PTR [esi+12]
  000e4	52		 push	 edx
  000e5	50		 push	 eax
  000e6	51		 push	 ecx
  000e7	57		 push	 edi
  000e8	e8 00 00 00 00	 call	 ??$_Uninit_copy@PAUUpDownMoveInfo@ioPrisonWeapon@@PAU12@V?$allocator@UUpDownMoveInfo@ioPrisonWeapon@@@std@@@std@@YAPAUUpDownMoveInfo@ioPrisonWeapon@@PAU12@00AAV?$allocator@UUpDownMoveInfo@ioPrisonWeapon@@@0@U_Nonscalar_ptr_iterator_tag@0@@Z ; std::_Uninit_copy<ioPrisonWeapon::UpDownMoveInfo *,ioPrisonWeapon::UpDownMoveInfo *,std::allocator<ioPrisonWeapon::UpDownMoveInfo> >
  000ed	83 c4 14	 add	 esp, 20			; 00000014H
$LN107@operator:
  000f0	89 46 04	 mov	 DWORD PTR [esi+4], eax
$LN106@operator:
  000f3	5b		 pop	 ebx
$LN1@operator:
  000f4	5f		 pop	 edi

; 740  : 				}
; 741  : 			}
; 742  : 		return (*this);

  000f5	8b c6		 mov	 eax, esi
  000f7	5e		 pop	 esi

; 743  : 		}

  000f8	5d		 pop	 ebp
  000f9	c2 04 00	 ret	 4
??4?$vector@UUpDownMoveInfo@ioPrisonWeapon@@V?$allocator@UUpDownMoveInfo@ioPrisonWeapon@@@std@@@std@@QAEAAV01@ABV01@@Z ENDP ; std::vector<ioPrisonWeapon::UpDownMoveInfo,std::allocator<ioPrisonWeapon::UpDownMoveInfo> >::operator=
_TEXT	ENDS
PUBLIC	?construct@?$allocator@UUpDownInfo@ioPrisonWeapon@@@std@@QAEXPAUUpDownInfo@ioPrisonWeapon@@$$QAU34@@Z ; std::allocator<ioPrisonWeapon::UpDownInfo>::construct
;	COMDAT xdata$x
; File c:\program files (x86)\microsoft visual studio 10.0\vc\include\xmemory
xdata$x	SEGMENT
__unwindtable$?construct@?$allocator@UUpDownInfo@ioPrisonWeapon@@@std@@QAEXPAUUpDownInfo@ioPrisonWeapon@@$$QAU34@@Z DD 0ffffffffH
	DD	FLAT:__unwindfunclet$?construct@?$allocator@UUpDownInfo@ioPrisonWeapon@@@std@@QAEXPAUUpDownInfo@ioPrisonWeapon@@$$QAU34@@Z$0
__ehfuncinfo$?construct@?$allocator@UUpDownInfo@ioPrisonWeapon@@@std@@QAEXPAUUpDownInfo@ioPrisonWeapon@@$$QAU34@@Z DD 019930522H
	DD	01H
	DD	FLAT:__unwindtable$?construct@?$allocator@UUpDownInfo@ioPrisonWeapon@@@std@@QAEXPAUUpDownInfo@ioPrisonWeapon@@$$QAU34@@Z
	DD	2 DUP(00H)
	DD	2 DUP(00H)
	DD	00H
	DD	01H
; Function compile flags: /Ogsp
xdata$x	ENDS
;	COMDAT ?construct@?$allocator@UUpDownInfo@ioPrisonWeapon@@@std@@QAEXPAUUpDownInfo@ioPrisonWeapon@@$$QAU34@@Z
_TEXT	SEGMENT
$T540256 = -16						; size = 4
__$EHRec$ = -12						; size = 12
__Ptr$ = 8						; size = 4
__Val$ = 12						; size = 4
?construct@?$allocator@UUpDownInfo@ioPrisonWeapon@@@std@@QAEXPAUUpDownInfo@ioPrisonWeapon@@$$QAU34@@Z PROC ; std::allocator<ioPrisonWeapon::UpDownInfo>::construct, COMDAT
; _this$ = ecx

; 201  : 		{	// construct object at _Ptr with value _Val

  00000	6a 04		 push	 4
  00002	b8 00 00 00 00	 mov	 eax, __ehhandler$?construct@?$allocator@UUpDownInfo@ioPrisonWeapon@@@std@@QAEXPAUUpDownInfo@ioPrisonWeapon@@$$QAU34@@Z
  00007	e8 00 00 00 00	 call	 __EH_prolog3

; 202  : 		::new ((void _FARQ *)_Ptr) _Ty(_STD forward<_Ty>(_Val));

  0000c	8b 75 08	 mov	 esi, DWORD PTR __Ptr$[ebp]
  0000f	89 75 f0	 mov	 DWORD PTR $T540256[ebp], esi
  00012	83 65 fc 00	 and	 DWORD PTR __$EHRec$[ebp+8], 0
  00016	85 f6		 test	 esi, esi
  00018	74 11		 je	 SHORT $LN3@construct@4
  0001a	8b 7d 0c	 mov	 edi, DWORD PTR __Val$[ebp]
  0001d	57		 push	 edi
  0001e	8b ce		 mov	 ecx, esi
  00020	e8 00 00 00 00	 call	 ??0?$vector@UUpDownMoveInfo@ioPrisonWeapon@@V?$allocator@UUpDownMoveInfo@ioPrisonWeapon@@@std@@@std@@QAE@ABV01@@Z ; std::vector<ioPrisonWeapon::UpDownMoveInfo,std::allocator<ioPrisonWeapon::UpDownMoveInfo> >::vector<ioPrisonWeapon::UpDownMoveInfo,std::allocator<ioPrisonWeapon::UpDownMoveInfo> >
  00025	d9 47 10	 fld	 DWORD PTR [edi+16]
  00028	d9 5e 10	 fstp	 DWORD PTR [esi+16]
$LN3@construct@4:

; 203  : 		}

  0002b	e8 00 00 00 00	 call	 __EH_epilog3
  00030	c2 08 00	 ret	 8
_TEXT	ENDS
;	COMDAT text$x
text$x	SEGMENT
__unwindfunclet$?construct@?$allocator@UUpDownInfo@ioPrisonWeapon@@@std@@QAEXPAUUpDownInfo@ioPrisonWeapon@@$$QAU34@@Z$0:
  00000	ff 75 08	 push	 DWORD PTR __Ptr$[ebp]
  00003	ff 75 f0	 push	 DWORD PTR $T540256[ebp]
  00006	e8 00 00 00 00	 call	 ??3@YAXPAX0@Z		; operator delete
  0000b	59		 pop	 ecx
  0000c	59		 pop	 ecx
  0000d	c3		 ret	 0
__ehhandler$?construct@?$allocator@UUpDownInfo@ioPrisonWeapon@@@std@@QAEXPAUUpDownInfo@ioPrisonWeapon@@$$QAU34@@Z:
  0000e	8b 54 24 08	 mov	 edx, DWORD PTR [esp+8]
  00012	8d 42 0c	 lea	 eax, DWORD PTR [edx+12]
  00015	8b 4a ec	 mov	 ecx, DWORD PTR [edx-20]
  00018	33 c8		 xor	 ecx, eax
  0001a	e8 00 00 00 00	 call	 @__security_check_cookie@4
  0001f	b8 00 00 00 00	 mov	 eax, OFFSET __ehfuncinfo$?construct@?$allocator@UUpDownInfo@ioPrisonWeapon@@@std@@QAEXPAUUpDownInfo@ioPrisonWeapon@@$$QAU34@@Z
  00024	e9 00 00 00 00	 jmp	 ___CxxFrameHandler3
text$x	ENDS
?construct@?$allocator@UUpDownInfo@ioPrisonWeapon@@@std@@QAEXPAUUpDownInfo@ioPrisonWeapon@@$$QAU34@@Z ENDP ; std::allocator<ioPrisonWeapon::UpDownInfo>::construct
PUBLIC	??0UpDownInfo@ioPrisonWeapon@@QAE@XZ		; ioPrisonWeapon::UpDownInfo::UpDownInfo
; Function compile flags: /Ogsp
; File d:\lost saga for developer\youtube\tutorial\source\src\lsclient\ioprisonweapon.h
;	COMDAT ??0UpDownInfo@ioPrisonWeapon@@QAE@XZ
_TEXT	SEGMENT
??0UpDownInfo@ioPrisonWeapon@@QAE@XZ PROC		; ioPrisonWeapon::UpDownInfo::UpDownInfo, COMDAT
; _this$ = ecx

; 30   : 		{
; 31   : 			m_fMoveUpDownHeight = 0.0f;

  00000	0f 57 c0	 xorps	 xmm0, xmm0
  00003	8b c1		 mov	 eax, ecx
  00005	33 c9		 xor	 ecx, ecx
  00007	89 08		 mov	 DWORD PTR [eax], ecx
  00009	89 48 04	 mov	 DWORD PTR [eax+4], ecx
  0000c	89 48 08	 mov	 DWORD PTR [eax+8], ecx
  0000f	f3 0f 11 40 10	 movss	 DWORD PTR [eax+16], xmm0

; 32   : 		}

  00014	c3		 ret	 0
??0UpDownInfo@ioPrisonWeapon@@QAE@XZ ENDP		; ioPrisonWeapon::UpDownInfo::UpDownInfo
_TEXT	ENDS
PUBLIC	??1UpDownInfo@ioPrisonWeapon@@QAE@XZ		; ioPrisonWeapon::UpDownInfo::~UpDownInfo
; Function compile flags: /Ogsp
;	COMDAT ??1UpDownInfo@ioPrisonWeapon@@QAE@XZ
_TEXT	SEGMENT
??1UpDownInfo@ioPrisonWeapon@@QAE@XZ PROC		; ioPrisonWeapon::UpDownInfo::~UpDownInfo, COMDAT
; _this$ = ecx
  00000	e9 00 00 00 00	 jmp	 ?_Tidy@?$vector@UUpDownMoveInfo@ioPrisonWeapon@@V?$allocator@UUpDownMoveInfo@ioPrisonWeapon@@@std@@@std@@IAEXXZ ; std::vector<ioPrisonWeapon::UpDownMoveInfo,std::allocator<ioPrisonWeapon::UpDownMoveInfo> >::_Tidy
??1UpDownInfo@ioPrisonWeapon@@QAE@XZ ENDP		; ioPrisonWeapon::UpDownInfo::~UpDownInfo
_TEXT	ENDS
PUBLIC	__real@0000000000000000
PUBLIC	__mask@@AbsDouble@
PUBLIC	__$ArrayPad$
PUBLIC	?ProcessUpDown@ioPrisonWeapon@@QAEXMPAVioPlayStage@@@Z ; ioPrisonWeapon::ProcessUpDown
;	COMDAT __real@0000000000000000
; File d:\lost saga for developer\youtube\tutorial\source\src\lsclient\ioweapon.h
CONST	SEGMENT
__real@0000000000000000 DQ 00000000000000000r	; 0
CONST	ENDS
;	COMDAT __mask@@AbsDouble@
CONST	SEGMENT
__mask@@AbsDouble@ DB 0ffH, 0ffH, 0ffH, 0ffH, 0ffH, 0ffH, 0ffH, 07fH, 0ffH
	DB	0ffH, 0ffH, 0ffH, 0ffH, 0ffH, 0ffH, 07fH
; Function compile flags: /Ogsp
; File d:\lost saga for developer\youtube\tutorial\source\src\lsclient\ioprisonweapon.cpp
CONST	ENDS
;	COMDAT ?ProcessUpDown@ioPrisonWeapon@@QAEXMPAVioPlayStage@@@Z
_TEXT	SEGMENT
_vMoveInfo$532295 = -44					; size = 16
_vDir$ = -40						; size = 12
_fMaxRange$ = -28					; size = 4
_fMoveSpeed$ = -24					; size = 4
tv627 = -20						; size = 4
tv623 = -20						; size = 4
tv618 = -20						; size = 4
tv614 = -20						; size = 4
_vMove$ = -16						; size = 12
__$ArrayPad$ = -4					; size = 4
_fTimePerSec$ = 8					; size = 4
_pStage$ = 12						; size = 4
?ProcessUpDown@ioPrisonWeapon@@QAEXMPAVioPlayStage@@@Z PROC ; ioPrisonWeapon::ProcessUpDown, COMDAT
; _this$ = ecx

; 369  : {		

  00000	55		 push	 ebp
  00001	8b ec		 mov	 ebp, esp
  00003	83 ec 2c	 sub	 esp, 44			; 0000002cH
  00006	a1 00 00 00 00	 mov	 eax, DWORD PTR ___security_cookie
  0000b	33 c5		 xor	 eax, ebp
  0000d	89 45 fc	 mov	 DWORD PTR __$ArrayPad$[ebp], eax
  00010	53		 push	 ebx
  00011	56		 push	 esi
  00012	8b f1		 mov	 esi, ecx

; 370  : 	float fMaxRange  = 0.0f;
; 371  : 	float fMoveSpeed = 0.0f;
; 372  : 	
; 373  : 	if( m_iUpDownIndex < m_vUpDownInfo.size() )

  00014	8b 86 40 0a 00
	00		 mov	 eax, DWORD PTR [esi+2624]
  0001a	2b 86 3c 0a 00
	00		 sub	 eax, DWORD PTR [esi+2620]
  00020	57		 push	 edi
  00021	6a 14		 push	 20			; 00000014H
  00023	99		 cdq
  00024	5b		 pop	 ebx
  00025	f7 fb		 idiv	 ebx
  00027	8b 8e cc 08 00
	00		 mov	 ecx, DWORD PTR [esi+2252]
  0002d	0f 57 c0	 xorps	 xmm0, xmm0
  00030	8b 7d 0c	 mov	 edi, DWORD PTR _pStage$[ebp]
  00033	f3 0f 11 45 e8	 movss	 DWORD PTR _fMoveSpeed$[ebp], xmm0
  00038	3b c8		 cmp	 ecx, eax
  0003a	0f 83 a0 01 00
	00		 jae	 $LN9@ProcessUpD

; 374  : 	{
; 375  : 		fMaxRange = m_vUpDownInfo[m_iUpDownIndex].m_fMoveUpDownHeight;

  00040	8b 86 3c 0a 00
	00		 mov	 eax, DWORD PTR [esi+2620]
  00046	6b c9 14	 imul	 ecx, 20			; 00000014H
  00049	03 c1		 add	 eax, ecx
  0004b	f3 0f 10 40 10	 movss	 xmm0, DWORD PTR [eax+16]

; 376  : 
; 377  : 		UpDownMoveInfoVec vMoveInfo = m_vUpDownInfo[m_iUpDownIndex].m_vUpDownMoveInfo;

  00050	50		 push	 eax
  00051	8d 4d d4	 lea	 ecx, DWORD PTR _vMoveInfo$532295[ebp]
  00054	f3 0f 11 45 e4	 movss	 DWORD PTR _fMaxRange$[ebp], xmm0
  00059	e8 00 00 00 00	 call	 ??0?$vector@UUpDownMoveInfo@ioPrisonWeapon@@V?$allocator@UUpDownMoveInfo@ioPrisonWeapon@@@std@@@std@@QAE@ABV01@@Z ; std::vector<ioPrisonWeapon::UpDownMoveInfo,std::allocator<ioPrisonWeapon::UpDownMoveInfo> >::vector<ioPrisonWeapon::UpDownMoveInfo,std::allocator<ioPrisonWeapon::UpDownMoveInfo> >

; 378  : 		UpDownMoveInfoVec::const_iterator iter = vMoveInfo.begin();

  0005e	8b 45 d4	 mov	 eax, DWORD PTR _vMoveInfo$532295[ebp]
  00061	eb 36		 jmp	 SHORT $LN72@ProcessUpD
$LL8@ProcessUpD:

; 380  : 		{
; 381  : 			const UpDownMoveInfo& rkMoveInfo = *iter;
; 382  : 			if( rkMoveInfo.m_fMinRnage <= m_fCurUpDownRange && m_fCurUpDownRange <= rkMoveInfo.m_fMaxRnage )

  00063	f3 0f 10 86 d8
	08 00 00	 movss	 xmm0, DWORD PTR [esi+2264]
  0006b	f3 0f 10 48 04	 movss	 xmm1, DWORD PTR [eax+4]
  00070	0f 5a c9	 cvtps2pd xmm1, xmm1
  00073	0f 5a d0	 cvtps2pd xmm2, xmm0
  00076	66 0f 2f d1	 comisd	 xmm2, xmm1
  0007a	72 1a		 jb	 SHORT $LN7@ProcessUpD
  0007c	f3 0f 10 48 08	 movss	 xmm1, DWORD PTR [eax+8]
  00081	0f 5a c0	 cvtps2pd xmm0, xmm0
  00084	0f 5a c9	 cvtps2pd xmm1, xmm1
  00087	66 0f 2f c8	 comisd	 xmm1, xmm0
  0008b	72 09		 jb	 SHORT $LN7@ProcessUpD

; 383  : 			{
; 384  : 				fMoveSpeed = rkMoveInfo.m_fMoveSpeed;				

  0008d	f3 0f 10 00	 movss	 xmm0, DWORD PTR [eax]
  00091	f3 0f 11 45 e8	 movss	 DWORD PTR _fMoveSpeed$[ebp], xmm0
$LN7@ProcessUpD:

; 379  : 		for( int i = 0; iter != vMoveInfo.end(); ++iter, ++i )

  00096	83 c0 0c	 add	 eax, 12			; 0000000cH
$LN72@ProcessUpD:
  00099	3b 45 d8	 cmp	 eax, DWORD PTR _vMoveInfo$532295[ebp+4]
  0009c	75 c5		 jne	 SHORT $LL8@ProcessUpD

; 385  : 			}
; 386  : 		}
; 387  : 	}

  0009e	8d 4d d4	 lea	 ecx, DWORD PTR _vMoveInfo$532295[ebp]
  000a1	e8 00 00 00 00	 call	 ?_Tidy@?$vector@UUpDownMoveInfo@ioPrisonWeapon@@V?$allocator@UUpDownMoveInfo@ioPrisonWeapon@@@std@@@std@@IAEXXZ ; std::vector<ioPrisonWeapon::UpDownMoveInfo,std::allocator<ioPrisonWeapon::UpDownMoveInfo> >::_Tidy

; 392  : 		return;
; 393  : 	}
; 394  : 
; 395  : 	if( fTimePerSec == 0.0f )

  000a6	0f 57 db	 xorps	 xmm3, xmm3
  000a9	f3 0f 10 45 08	 movss	 xmm0, DWORD PTR _fTimePerSec$[ebp]
  000ae	0f 2e c3	 ucomiss xmm0, xmm3
  000b1	9f		 lahf
  000b2	f6 c4 44	 test	 ah, 68			; 00000044H
  000b5	7a 37		 jp	 SHORT $LN3@ProcessUpD

; 396  : 		fTimePerSec = FLOAT0001;

  000b7	b8 01 00 00 00	 mov	 eax, 1
  000bc	8b c8		 mov	 ecx, eax
  000be	b8 e8 03 00 00	 mov	 eax, 1000		; 000003e8H
  000c3	89 4d ec	 mov	 DWORD PTR tv627[ebp], ecx
  000c6	db 45 ec	 fild	 DWORD PTR tv627[ebp]
  000c9	85 c9		 test	 ecx, ecx
  000cb	79 06		 jns	 SHORT $LN69@ProcessUpD
  000cd	d8 05 00 00 00
	00		 fadd	 DWORD PTR __real@4f800000
$LN69@ProcessUpD:
  000d3	89 45 ec	 mov	 DWORD PTR tv623[ebp], eax
  000d6	db 45 ec	 fild	 DWORD PTR tv623[ebp]
  000d9	85 c0		 test	 eax, eax
  000db	79 06		 jns	 SHORT $LN70@ProcessUpD
  000dd	d8 05 00 00 00
	00		 fadd	 DWORD PTR __real@4f800000
$LN70@ProcessUpD:
  000e3	de f9		 fdivp	 ST(1), ST(0)
  000e5	d9 5d ec	 fstp	 DWORD PTR tv618[ebp]
  000e8	d9 45 ec	 fld	 DWORD PTR tv618[ebp]
  000eb	d9 5d 08	 fstp	 DWORD PTR _fTimePerSec$[ebp]
$LN3@ProcessUpD:

; 397  : 	
; 398  : 	D3DXVECTOR3 vDir = D3DXVECTOR3( 0.0f, FLOAT1, 0.0f );

  000ee	b8 01 00 00 00	 mov	 eax, 1
  000f3	89 45 ec	 mov	 DWORD PTR tv614[ebp], eax
  000f6	db 45 ec	 fild	 DWORD PTR tv614[ebp]
  000f9	85 c0		 test	 eax, eax
  000fb	79 06		 jns	 SHORT $LN71@ProcessUpD
  000fd	d8 05 00 00 00
	00		 fadd	 DWORD PTR __real@4f800000
$LN71@ProcessUpD:

; 399  : 
; 400  : 	m_fCurUpDownRange += fabs(fMoveSpeed) * fTimePerSec;	

  00103	f3 0f 10 45 e8	 movss	 xmm0, DWORD PTR _fMoveSpeed$[ebp]
  00108	d9 5d dc	 fstp	 DWORD PTR _vDir$[ebp+4]
  0010b	f3 0f 10 4d 08	 movss	 xmm1, DWORD PTR _fTimePerSec$[ebp]

; 401  : 	m_fTotUpDownRange += fMoveSpeed * fTimePerSec;

  00110	f3 0f 10 55 08	 movss	 xmm2, DWORD PTR _fTimePerSec$[ebp]
  00115	0f 5a c0	 cvtps2pd xmm0, xmm0
  00118	66 0f 54 05 00
	00 00 00	 andpd	 xmm0, QWORD PTR __mask@@AbsDouble@
  00120	f2 0f 5a c0	 cvtsd2ss xmm0, xmm0
  00124	f3 0f 5a c0	 cvtss2sd xmm0, xmm0
  00128	0f 5a c9	 cvtps2pd xmm1, xmm1
  0012b	f2 0f 59 c1	 mulsd	 xmm0, xmm1
  0012f	f3 0f 10 8e d8
	08 00 00	 movss	 xmm1, DWORD PTR [esi+2264]

; 402  : 	D3DXVECTOR3 vMove = vDir * (fMoveSpeed * fTimePerSec);

  00137	f3 0f 10 65 dc	 movss	 xmm4, DWORD PTR _vDir$[ebp+4]
  0013c	0f 5a c9	 cvtps2pd xmm1, xmm1
  0013f	f2 0f 58 c1	 addsd	 xmm0, xmm1
  00143	0f 5a d2	 cvtps2pd xmm2, xmm2
  00146	0f 57 c9	 xorps	 xmm1, xmm1
  00149	f2 0f 5a c8	 cvtsd2ss xmm1, xmm0
  0014d	f3 0f 10 45 e8	 movss	 xmm0, DWORD PTR _fMoveSpeed$[ebp]
  00152	0f 5a c0	 cvtps2pd xmm0, xmm0
  00155	f2 0f 59 c2	 mulsd	 xmm0, xmm2
  00159	f3 0f 10 96 d4
	08 00 00	 movss	 xmm2, DWORD PTR [esi+2260]
  00161	0f 5a d2	 cvtps2pd xmm2, xmm2
  00164	f2 0f 58 d0	 addsd	 xmm2, xmm0
  00168	66 0f 5a d2	 cvtpd2ps xmm2, xmm2
  0016c	f3 0f 11 96 d4
	08 00 00	 movss	 DWORD PTR [esi+2260], xmm2
  00174	0f 57 d2	 xorps	 xmm2, xmm2
  00177	f2 0f 5a d0	 cvtsd2ss xmm2, xmm0
  0017b	0f 5a c2	 cvtps2pd xmm0, xmm2
  0017e	f2 0f 59 05 00
	00 00 00	 mulsd	 xmm0, QWORD PTR __real@0000000000000000
  00186	66 0f 5a c0	 cvtpd2ps xmm0, xmm0
  0018a	0f 5a d2	 cvtps2pd xmm2, xmm2
  0018d	f3 0f 11 8e d8
	08 00 00	 movss	 DWORD PTR [esi+2264], xmm1
  00195	f3 0f 11 45 f0	 movss	 DWORD PTR _vMove$[ebp], xmm0
  0019a	f3 0f 11 45 f8	 movss	 DWORD PTR _vMove$[ebp+8], xmm0
  0019f	0f 5a e4	 cvtps2pd xmm4, xmm4

; 403  : 
; 404  : 	if( m_fCurUpDownRange < fMaxRange )

  001a2	0f 5a c1	 cvtps2pd xmm0, xmm1
  001a5	f3 0f 10 4d e4	 movss	 xmm1, DWORD PTR _fMaxRange$[ebp]
  001aa	f2 0f 59 e2	 mulsd	 xmm4, xmm2
  001ae	0f 5a c9	 cvtps2pd xmm1, xmm1
  001b1	66 0f 2f c8	 comisd	 xmm1, xmm0
  001b5	66 0f 5a d4	 cvtpd2ps xmm2, xmm4
  001b9	f3 0f 11 55 f4	 movss	 DWORD PTR _vMove$[ebp+4], xmm2
  001be	76 10		 jbe	 SHORT $LN2@ProcessUpD

; 405  : 	{
; 406  : 		GetParentSceneNode()->Translate( vMove );

  001c0	8b 4e 04	 mov	 ecx, DWORD PTR [esi+4]
  001c3	8b 01		 mov	 eax, DWORD PTR [ecx]
  001c5	6a 01		 push	 1
  001c7	8d 55 f0	 lea	 edx, DWORD PTR _vMove$[ebp]
  001ca	52		 push	 edx
  001cb	ff 50 3c	 call	 DWORD PTR [eax+60]

; 407  : 	}
; 408  : 	else

  001ce	eb 2d		 jmp	 SHORT $LN1@ProcessUpD
$LN2@ProcessUpD:

; 409  : 	{		
; 410  : 		m_iUpDownIndex++;

  001d0	ff 86 cc 08 00
	00		 inc	 DWORD PTR [esi+2252]

; 411  : 		m_fCurUpDownRange = 0;

  001d6	f3 0f 11 9e d8
	08 00 00	 movss	 DWORD PTR [esi+2264], xmm3
  001de	eb 1d		 jmp	 SHORT $LN1@ProcessUpD
$LN9@ProcessUpD:

; 388  : 	else
; 389  : 	{
; 390  : 		CreateEndEffect( fTimePerSec, pStage );

  001e0	f3 0f 10 45 08	 movss	 xmm0, DWORD PTR _fTimePerSec$[ebp]
  001e5	57		 push	 edi
  001e6	51		 push	 ecx
  001e7	8b ce		 mov	 ecx, esi
  001e9	f3 0f 11 04 24	 movss	 DWORD PTR [esp], xmm0
  001ee	e8 00 00 00 00	 call	 ?CreateEndEffect@ioPrisonWeapon@@QAEXMPAVioPlayStage@@@Z ; ioPrisonWeapon::CreateEndEffect

; 391  : 		m_State = WS_END;

  001f3	c7 86 94 08 00
	00 05 00 00 00	 mov	 DWORD PTR [esi+2196], 5
$LN1@ProcessUpD:

; 412  : 	}
; 413  : }

  001fd	8b 4d fc	 mov	 ecx, DWORD PTR __$ArrayPad$[ebp]
  00200	5f		 pop	 edi
  00201	5e		 pop	 esi
  00202	33 cd		 xor	 ecx, ebp
  00204	5b		 pop	 ebx
  00205	e8 00 00 00 00	 call	 @__security_check_cookie@4
  0020a	c9		 leave
  0020b	c2 08 00	 ret	 8
?ProcessUpDown@ioPrisonWeapon@@QAEXMPAVioPlayStage@@@Z ENDP ; ioPrisonWeapon::ProcessUpDown
_TEXT	ENDS
PUBLIC	?push_back@?$vector@UUpDownMoveInfo@ioPrisonWeapon@@V?$allocator@UUpDownMoveInfo@ioPrisonWeapon@@@std@@@std@@QAEXABUUpDownMoveInfo@ioPrisonWeapon@@@Z ; std::vector<ioPrisonWeapon::UpDownMoveInfo,std::allocator<ioPrisonWeapon::UpDownMoveInfo> >::push_back
; Function compile flags: /Ogsp
; File c:\program files (x86)\microsoft visual studio 10.0\vc\include\vector
;	COMDAT ?push_back@?$vector@UUpDownMoveInfo@ioPrisonWeapon@@V?$allocator@UUpDownMoveInfo@ioPrisonWeapon@@@std@@@std@@QAEXABUUpDownMoveInfo@ioPrisonWeapon@@@Z
_TEXT	SEGMENT
__Val$ = 8						; size = 4
?push_back@?$vector@UUpDownMoveInfo@ioPrisonWeapon@@V?$allocator@UUpDownMoveInfo@ioPrisonWeapon@@@std@@@std@@QAEXABUUpDownMoveInfo@ioPrisonWeapon@@@Z PROC ; std::vector<ioPrisonWeapon::UpDownMoveInfo,std::allocator<ioPrisonWeapon::UpDownMoveInfo> >::push_back, COMDAT
; _this$ = ecx

; 976  : 		{	// insert element at end

  00000	55		 push	 ebp
  00001	8b ec		 mov	 ebp, esp
  00003	56		 push	 esi
  00004	8b f1		 mov	 esi, ecx

; 977  : 		if (_Inside(_STD addressof(_Val)))

  00006	8b 4e 04	 mov	 ecx, DWORD PTR [esi+4]
  00009	57		 push	 edi
  0000a	8b 7d 08	 mov	 edi, DWORD PTR __Val$[ebp]
  0000d	3b f9		 cmp	 edi, ecx
  0000f	73 34		 jae	 SHORT $LN4@push_back
  00011	8b 16		 mov	 edx, DWORD PTR [esi]
  00013	3b d7		 cmp	 edx, edi
  00015	77 2e		 ja	 SHORT $LN4@push_back

; 978  : 			{	// push back an element
; 979  : 			size_type _Idx = _STD addressof(_Val) - this->_Myfirst;

  00017	8b c7		 mov	 eax, edi
  00019	2b c2		 sub	 eax, edx
  0001b	6a 0c		 push	 12			; 0000000cH
  0001d	99		 cdq
  0001e	5f		 pop	 edi
  0001f	f7 ff		 idiv	 edi
  00021	8b f8		 mov	 edi, eax

; 980  : 			if (this->_Mylast == this->_Myend)

  00023	3b 4e 08	 cmp	 ecx, DWORD PTR [esi+8]
  00026	75 09		 jne	 SHORT $LN3@push_back

; 981  : 				_Reserve(1);

  00028	6a 01		 push	 1
  0002a	8b ce		 mov	 ecx, esi
  0002c	e8 00 00 00 00	 call	 ?_Reserve@?$vector@UUpDownMoveInfo@ioPrisonWeapon@@V?$allocator@UUpDownMoveInfo@ioPrisonWeapon@@@std@@@std@@IAEXI@Z ; std::vector<ioPrisonWeapon::UpDownMoveInfo,std::allocator<ioPrisonWeapon::UpDownMoveInfo> >::_Reserve
$LN3@push_back:

; 982  : 			_Orphan_range(this->_Mylast, this->_Mylast);
; 983  : 			_Cons_val(this->_Alval,
; 984  : 				this->_Mylast,
; 985  : 				this->_Myfirst[_Idx]);

  00031	6b ff 0c	 imul	 edi, 12			; 0000000cH
  00034	03 3e		 add	 edi, DWORD PTR [esi]
  00036	8d 46 0c	 lea	 eax, DWORD PTR [esi+12]
  00039	57		 push	 edi
  0003a	ff 76 04	 push	 DWORD PTR [esi+4]
  0003d	50		 push	 eax
  0003e	e8 00 00 00 00	 call	 ??$_Cons_val@V?$allocator@UUpDownMoveInfo@ioPrisonWeapon@@@std@@UUpDownMoveInfo@ioPrisonWeapon@@AAU34@@std@@YAXAAV?$allocator@UUpDownMoveInfo@ioPrisonWeapon@@@0@PAUUpDownMoveInfo@ioPrisonWeapon@@AAU23@@Z ; std::_Cons_val<std::allocator<ioPrisonWeapon::UpDownMoveInfo>,ioPrisonWeapon::UpDownMoveInfo,ioPrisonWeapon::UpDownMoveInfo &>

; 986  : 			++this->_Mylast;
; 987  : 			}
; 988  : 		else

  00043	eb 1b		 jmp	 SHORT $LN20@push_back
$LN4@push_back:

; 989  : 			{	// push back a non-element
; 990  : 			if (this->_Mylast == this->_Myend)

  00045	3b 4e 08	 cmp	 ecx, DWORD PTR [esi+8]
  00048	75 09		 jne	 SHORT $LN1@push_back

; 991  : 				_Reserve(1);

  0004a	6a 01		 push	 1
  0004c	8b ce		 mov	 ecx, esi
  0004e	e8 00 00 00 00	 call	 ?_Reserve@?$vector@UUpDownMoveInfo@ioPrisonWeapon@@V?$allocator@UUpDownMoveInfo@ioPrisonWeapon@@@std@@@std@@IAEXI@Z ; std::vector<ioPrisonWeapon::UpDownMoveInfo,std::allocator<ioPrisonWeapon::UpDownMoveInfo> >::_Reserve
$LN1@push_back:

; 992  : 			_Orphan_range(this->_Mylast, this->_Mylast);
; 993  : 			_Cons_val(this->_Alval,
; 994  : 				this->_Mylast,
; 995  : 				_Val);

  00053	57		 push	 edi
  00054	ff 76 04	 push	 DWORD PTR [esi+4]
  00057	8d 46 0c	 lea	 eax, DWORD PTR [esi+12]
  0005a	50		 push	 eax
  0005b	e8 00 00 00 00	 call	 ??$_Cons_val@V?$allocator@UUpDownMoveInfo@ioPrisonWeapon@@@std@@UUpDownMoveInfo@ioPrisonWeapon@@ABU34@@std@@YAXAAV?$allocator@UUpDownMoveInfo@ioPrisonWeapon@@@0@PAUUpDownMoveInfo@ioPrisonWeapon@@ABU23@@Z ; std::_Cons_val<std::allocator<ioPrisonWeapon::UpDownMoveInfo>,ioPrisonWeapon::UpDownMoveInfo,ioPrisonWeapon::UpDownMoveInfo const &>
$LN20@push_back:
  00060	83 c4 0c	 add	 esp, 12			; 0000000cH

; 996  : 			++this->_Mylast;

  00063	83 46 04 0c	 add	 DWORD PTR [esi+4], 12	; 0000000cH
  00067	5f		 pop	 edi
  00068	5e		 pop	 esi

; 997  : 			}
; 998  : 		}

  00069	5d		 pop	 ebp
  0006a	c2 04 00	 ret	 4
?push_back@?$vector@UUpDownMoveInfo@ioPrisonWeapon@@V?$allocator@UUpDownMoveInfo@ioPrisonWeapon@@@std@@@std@@QAEXABUUpDownMoveInfo@ioPrisonWeapon@@@Z ENDP ; std::vector<ioPrisonWeapon::UpDownMoveInfo,std::allocator<ioPrisonWeapon::UpDownMoveInfo> >::push_back
_TEXT	ENDS
PUBLIC	??$construct@AAUUpDownInfo@ioPrisonWeapon@@@?$allocator@UUpDownInfo@ioPrisonWeapon@@@std@@QAEXPAUUpDownInfo@ioPrisonWeapon@@AAU23@@Z ; std::allocator<ioPrisonWeapon::UpDownInfo>::construct<ioPrisonWeapon::UpDownInfo &>
;	COMDAT xdata$x
; File c:\program files (x86)\microsoft visual studio 10.0\vc\include\xmemory
xdata$x	SEGMENT
__unwindtable$??$construct@AAUUpDownInfo@ioPrisonWeapon@@@?$allocator@UUpDownInfo@ioPrisonWeapon@@@std@@QAEXPAUUpDownInfo@ioPrisonWeapon@@AAU23@@Z DD 0ffffffffH
	DD	FLAT:__unwindfunclet$??$construct@AAUUpDownInfo@ioPrisonWeapon@@@?$allocator@UUpDownInfo@ioPrisonWeapon@@@std@@QAEXPAUUpDownInfo@ioPrisonWeapon@@AAU23@@Z$0
__ehfuncinfo$??$construct@AAUUpDownInfo@ioPrisonWeapon@@@?$allocator@UUpDownInfo@ioPrisonWeapon@@@std@@QAEXPAUUpDownInfo@ioPrisonWeapon@@AAU23@@Z DD 019930522H
	DD	01H
	DD	FLAT:__unwindtable$??$construct@AAUUpDownInfo@ioPrisonWeapon@@@?$allocator@UUpDownInfo@ioPrisonWeapon@@@std@@QAEXPAUUpDownInfo@ioPrisonWeapon@@AAU23@@Z
	DD	2 DUP(00H)
	DD	2 DUP(00H)
	DD	00H
	DD	01H
; Function compile flags: /Ogsp
xdata$x	ENDS
;	COMDAT ??$construct@AAUUpDownInfo@ioPrisonWeapon@@@?$allocator@UUpDownInfo@ioPrisonWeapon@@@std@@QAEXPAUUpDownInfo@ioPrisonWeapon@@AAU23@@Z
_TEXT	SEGMENT
$T540489 = -16						; size = 4
__$EHRec$ = -12						; size = 12
__Ptr$ = 8						; size = 4
__Val$ = 12						; size = 4
??$construct@AAUUpDownInfo@ioPrisonWeapon@@@?$allocator@UUpDownInfo@ioPrisonWeapon@@@std@@QAEXPAUUpDownInfo@ioPrisonWeapon@@AAU23@@Z PROC ; std::allocator<ioPrisonWeapon::UpDownInfo>::construct<ioPrisonWeapon::UpDownInfo &>, COMDAT
; _this$ = ecx

; 206  : 		void construct(pointer _Ptr, _Other&& _Val)

  00000	6a 04		 push	 4
  00002	b8 00 00 00 00	 mov	 eax, __ehhandler$??$construct@AAUUpDownInfo@ioPrisonWeapon@@@?$allocator@UUpDownInfo@ioPrisonWeapon@@@std@@QAEXPAUUpDownInfo@ioPrisonWeapon@@AAU23@@Z
  00007	e8 00 00 00 00	 call	 __EH_prolog3

; 207  : 		{	// construct object at _Ptr with value _Val
; 208  : 		::new ((void _FARQ *)_Ptr) _Ty(_STD forward<_Other>(_Val));

  0000c	8b 75 08	 mov	 esi, DWORD PTR __Ptr$[ebp]
  0000f	89 75 f0	 mov	 DWORD PTR $T540489[ebp], esi
  00012	83 65 fc 00	 and	 DWORD PTR __$EHRec$[ebp+8], 0
  00016	85 f6		 test	 esi, esi
  00018	74 11		 je	 SHORT $LN3@construct@5
  0001a	8b 7d 0c	 mov	 edi, DWORD PTR __Val$[ebp]
  0001d	57		 push	 edi
  0001e	8b ce		 mov	 ecx, esi
  00020	e8 00 00 00 00	 call	 ??0?$vector@UUpDownMoveInfo@ioPrisonWeapon@@V?$allocator@UUpDownMoveInfo@ioPrisonWeapon@@@std@@@std@@QAE@ABV01@@Z ; std::vector<ioPrisonWeapon::UpDownMoveInfo,std::allocator<ioPrisonWeapon::UpDownMoveInfo> >::vector<ioPrisonWeapon::UpDownMoveInfo,std::allocator<ioPrisonWeapon::UpDownMoveInfo> >
  00025	d9 47 10	 fld	 DWORD PTR [edi+16]
  00028	d9 5e 10	 fstp	 DWORD PTR [esi+16]
$LN3@construct@5:

; 209  : 		}

  0002b	e8 00 00 00 00	 call	 __EH_epilog3
  00030	c2 08 00	 ret	 8
_TEXT	ENDS
;	COMDAT text$x
text$x	SEGMENT
__unwindfunclet$??$construct@AAUUpDownInfo@ioPrisonWeapon@@@?$allocator@UUpDownInfo@ioPrisonWeapon@@@std@@QAEXPAUUpDownInfo@ioPrisonWeapon@@AAU23@@Z$0:
  00000	ff 75 08	 push	 DWORD PTR __Ptr$[ebp]
  00003	ff 75 f0	 push	 DWORD PTR $T540489[ebp]
  00006	e8 00 00 00 00	 call	 ??3@YAXPAX0@Z		; operator delete
  0000b	59		 pop	 ecx
  0000c	59		 pop	 ecx
  0000d	c3		 ret	 0
__ehhandler$??$construct@AAUUpDownInfo@ioPrisonWeapon@@@?$allocator@UUpDownInfo@ioPrisonWeapon@@@std@@QAEXPAUUpDownInfo@ioPrisonWeapon@@AAU23@@Z:
  0000e	8b 54 24 08	 mov	 edx, DWORD PTR [esp+8]
  00012	8d 42 0c	 lea	 eax, DWORD PTR [edx+12]
  00015	8b 4a ec	 mov	 ecx, DWORD PTR [edx-20]
  00018	33 c8		 xor	 ecx, eax
  0001a	e8 00 00 00 00	 call	 @__security_check_cookie@4
  0001f	b8 00 00 00 00	 mov	 eax, OFFSET __ehfuncinfo$??$construct@AAUUpDownInfo@ioPrisonWeapon@@@?$allocator@UUpDownInfo@ioPrisonWeapon@@@std@@QAEXPAUUpDownInfo@ioPrisonWeapon@@AAU23@@Z
  00024	e9 00 00 00 00	 jmp	 ___CxxFrameHandler3
text$x	ENDS
??$construct@AAUUpDownInfo@ioPrisonWeapon@@@?$allocator@UUpDownInfo@ioPrisonWeapon@@@std@@QAEXPAUUpDownInfo@ioPrisonWeapon@@AAU23@@Z ENDP ; std::allocator<ioPrisonWeapon::UpDownInfo>::construct<ioPrisonWeapon::UpDownInfo &>
PUBLIC	??$_Construct@UUpDownInfo@ioPrisonWeapon@@ABU12@@std@@YAXPAUUpDownInfo@ioPrisonWeapon@@ABU12@@Z ; std::_Construct<ioPrisonWeapon::UpDownInfo,ioPrisonWeapon::UpDownInfo const &>
;	COMDAT xdata$x
xdata$x	SEGMENT
__unwindtable$??$_Construct@UUpDownInfo@ioPrisonWeapon@@ABU12@@std@@YAXPAUUpDownInfo@ioPrisonWeapon@@ABU12@@Z DD 0ffffffffH
	DD	FLAT:__unwindfunclet$??$_Construct@UUpDownInfo@ioPrisonWeapon@@ABU12@@std@@YAXPAUUpDownInfo@ioPrisonWeapon@@ABU12@@Z$0
__ehfuncinfo$??$_Construct@UUpDownInfo@ioPrisonWeapon@@ABU12@@std@@YAXPAUUpDownInfo@ioPrisonWeapon@@ABU12@@Z DD 019930522H
	DD	01H
	DD	FLAT:__unwindtable$??$_Construct@UUpDownInfo@ioPrisonWeapon@@ABU12@@std@@YAXPAUUpDownInfo@ioPrisonWeapon@@ABU12@@Z
	DD	2 DUP(00H)
	DD	2 DUP(00H)
	DD	00H
	DD	01H
; Function compile flags: /Ogsp
xdata$x	ENDS
;	COMDAT ??$_Construct@UUpDownInfo@ioPrisonWeapon@@ABU12@@std@@YAXPAUUpDownInfo@ioPrisonWeapon@@ABU12@@Z
_TEXT	SEGMENT
$T540512 = -16						; size = 4
__$EHRec$ = -12						; size = 12
__Vptr$ = 8						; size = 4
__Ptr$ = 8						; size = 4
__Val$ = 12						; size = 4
??$_Construct@UUpDownInfo@ioPrisonWeapon@@ABU12@@std@@YAXPAUUpDownInfo@ioPrisonWeapon@@ABU12@@Z PROC ; std::_Construct<ioPrisonWeapon::UpDownInfo,ioPrisonWeapon::UpDownInfo const &>, COMDAT

; 46   : 	{	// construct object at _Ptr with value _Val

  00000	6a 04		 push	 4
  00002	b8 00 00 00 00	 mov	 eax, __ehhandler$??$_Construct@UUpDownInfo@ioPrisonWeapon@@ABU12@@std@@YAXPAUUpDownInfo@ioPrisonWeapon@@ABU12@@Z
  00007	e8 00 00 00 00	 call	 __EH_prolog3

; 47   : 	void _FARQ *_Vptr = _Ptr;

  0000c	8b 75 08	 mov	 esi, DWORD PTR __Ptr$[ebp]
  0000f	89 75 08	 mov	 DWORD PTR __Vptr$[ebp], esi

; 48   : 	::new (_Vptr) _Ty1(_STD forward<_Ty2>(_Val));

  00012	89 75 f0	 mov	 DWORD PTR $T540512[ebp], esi
  00015	83 65 fc 00	 and	 DWORD PTR __$EHRec$[ebp+8], 0
  00019	85 f6		 test	 esi, esi
  0001b	74 11		 je	 SHORT $LN3@Construct@2
  0001d	8b 7d 0c	 mov	 edi, DWORD PTR __Val$[ebp]
  00020	57		 push	 edi
  00021	8b ce		 mov	 ecx, esi
  00023	e8 00 00 00 00	 call	 ??0?$vector@UUpDownMoveInfo@ioPrisonWeapon@@V?$allocator@UUpDownMoveInfo@ioPrisonWeapon@@@std@@@std@@QAE@ABV01@@Z ; std::vector<ioPrisonWeapon::UpDownMoveInfo,std::allocator<ioPrisonWeapon::UpDownMoveInfo> >::vector<ioPrisonWeapon::UpDownMoveInfo,std::allocator<ioPrisonWeapon::UpDownMoveInfo> >
  00028	d9 47 10	 fld	 DWORD PTR [edi+16]
  0002b	d9 5e 10	 fstp	 DWORD PTR [esi+16]
$LN3@Construct@2:

; 49   : 	}

  0002e	e8 00 00 00 00	 call	 __EH_epilog3
  00033	c3		 ret	 0
_TEXT	ENDS
;	COMDAT text$x
text$x	SEGMENT
__unwindfunclet$??$_Construct@UUpDownInfo@ioPrisonWeapon@@ABU12@@std@@YAXPAUUpDownInfo@ioPrisonWeapon@@ABU12@@Z$0:
  00000	ff 75 08	 push	 DWORD PTR __Vptr$[ebp]
  00003	ff 75 f0	 push	 DWORD PTR $T540512[ebp]
  00006	e8 00 00 00 00	 call	 ??3@YAXPAX0@Z		; operator delete
  0000b	59		 pop	 ecx
  0000c	59		 pop	 ecx
  0000d	c3		 ret	 0
__ehhandler$??$_Construct@UUpDownInfo@ioPrisonWeapon@@ABU12@@std@@YAXPAUUpDownInfo@ioPrisonWeapon@@ABU12@@Z:
  0000e	8b 54 24 08	 mov	 edx, DWORD PTR [esp+8]
  00012	8d 42 0c	 lea	 eax, DWORD PTR [edx+12]
  00015	8b 4a ec	 mov	 ecx, DWORD PTR [edx-20]
  00018	33 c8		 xor	 ecx, eax
  0001a	e8 00 00 00 00	 call	 @__security_check_cookie@4
  0001f	b8 00 00 00 00	 mov	 eax, OFFSET __ehfuncinfo$??$_Construct@UUpDownInfo@ioPrisonWeapon@@ABU12@@std@@YAXPAUUpDownInfo@ioPrisonWeapon@@ABU12@@Z
  00024	e9 00 00 00 00	 jmp	 ___CxxFrameHandler3
text$x	ENDS
??$_Construct@UUpDownInfo@ioPrisonWeapon@@ABU12@@std@@YAXPAUUpDownInfo@ioPrisonWeapon@@ABU12@@Z ENDP ; std::_Construct<ioPrisonWeapon::UpDownInfo,ioPrisonWeapon::UpDownInfo const &>
PUBLIC	??4UpDownInfo@ioPrisonWeapon@@QAEAAU01@ABU01@@Z	; ioPrisonWeapon::UpDownInfo::operator=
; Function compile flags: /Ogsp
;	COMDAT ??4UpDownInfo@ioPrisonWeapon@@QAEAAU01@ABU01@@Z
_TEXT	SEGMENT
___that$ = 8						; size = 4
??4UpDownInfo@ioPrisonWeapon@@QAEAAU01@ABU01@@Z PROC	; ioPrisonWeapon::UpDownInfo::operator=, COMDAT
; _this$ = ecx
  00000	55		 push	 ebp
  00001	8b ec		 mov	 ebp, esp
  00003	56		 push	 esi
  00004	57		 push	 edi
  00005	8b 7d 08	 mov	 edi, DWORD PTR ___that$[ebp]
  00008	57		 push	 edi
  00009	8b f1		 mov	 esi, ecx
  0000b	e8 00 00 00 00	 call	 ??4?$vector@UUpDownMoveInfo@ioPrisonWeapon@@V?$allocator@UUpDownMoveInfo@ioPrisonWeapon@@@std@@@std@@QAEAAV01@ABV01@@Z ; std::vector<ioPrisonWeapon::UpDownMoveInfo,std::allocator<ioPrisonWeapon::UpDownMoveInfo> >::operator=
  00010	d9 47 10	 fld	 DWORD PTR [edi+16]
  00013	5f		 pop	 edi
  00014	d9 5e 10	 fstp	 DWORD PTR [esi+16]
  00017	8b c6		 mov	 eax, esi
  00019	5e		 pop	 esi
  0001a	5d		 pop	 ebp
  0001b	c2 04 00	 ret	 4
??4UpDownInfo@ioPrisonWeapon@@QAEAAU01@ABU01@@Z ENDP	; ioPrisonWeapon::UpDownInfo::operator=
_TEXT	ENDS
PUBLIC	??$_Cons_val@V?$allocator@UUpDownInfo@ioPrisonWeapon@@@std@@UUpDownInfo@ioPrisonWeapon@@U34@@std@@YAXAAV?$allocator@UUpDownInfo@ioPrisonWeapon@@@0@PAUUpDownInfo@ioPrisonWeapon@@$$QAU23@@Z ; std::_Cons_val<std::allocator<ioPrisonWeapon::UpDownInfo>,ioPrisonWeapon::UpDownInfo,ioPrisonWeapon::UpDownInfo>
; Function compile flags: /Ogsp
;	COMDAT ??$_Cons_val@V?$allocator@UUpDownInfo@ioPrisonWeapon@@@std@@UUpDownInfo@ioPrisonWeapon@@U34@@std@@YAXAAV?$allocator@UUpDownInfo@ioPrisonWeapon@@@0@PAUUpDownInfo@ioPrisonWeapon@@$$QAU23@@Z
_TEXT	SEGMENT
__Alval$ = 8						; size = 4
__Pdest$ = 12						; size = 4
__Src$ = 16						; size = 4
??$_Cons_val@V?$allocator@UUpDownInfo@ioPrisonWeapon@@@std@@UUpDownInfo@ioPrisonWeapon@@U34@@std@@YAXAAV?$allocator@UUpDownInfo@ioPrisonWeapon@@@0@PAUUpDownInfo@ioPrisonWeapon@@$$QAU23@@Z PROC ; std::_Cons_val<std::allocator<ioPrisonWeapon::UpDownInfo>,ioPrisonWeapon::UpDownInfo,ioPrisonWeapon::UpDownInfo>, COMDAT

; 279  : 	{	// construct using allocator

  00000	55		 push	 ebp
  00001	8b ec		 mov	 ebp, esp

; 280  : 	_Alval.construct(_Pdest, _STD forward<_Ty2>(_Src));

  00003	ff 75 10	 push	 DWORD PTR __Src$[ebp]
  00006	8b 4d 08	 mov	 ecx, DWORD PTR __Alval$[ebp]
  00009	ff 75 0c	 push	 DWORD PTR __Pdest$[ebp]
  0000c	e8 00 00 00 00	 call	 ?construct@?$allocator@UUpDownInfo@ioPrisonWeapon@@@std@@QAEXPAUUpDownInfo@ioPrisonWeapon@@$$QAU34@@Z ; std::allocator<ioPrisonWeapon::UpDownInfo>::construct

; 281  : 	}

  00011	5d		 pop	 ebp
  00012	c3		 ret	 0
??$_Cons_val@V?$allocator@UUpDownInfo@ioPrisonWeapon@@@std@@UUpDownInfo@ioPrisonWeapon@@U34@@std@@YAXAAV?$allocator@UUpDownInfo@ioPrisonWeapon@@@0@PAUUpDownInfo@ioPrisonWeapon@@$$QAU23@@Z ENDP ; std::_Cons_val<std::allocator<ioPrisonWeapon::UpDownInfo>,ioPrisonWeapon::UpDownInfo,ioPrisonWeapon::UpDownInfo>
_TEXT	ENDS
PUBLIC	??_GUpDownInfo@ioPrisonWeapon@@QAEPAXI@Z	; ioPrisonWeapon::UpDownInfo::`scalar deleting destructor'
; Function compile flags: /Ogsp
;	COMDAT ??_GUpDownInfo@ioPrisonWeapon@@QAEPAXI@Z
_TEXT	SEGMENT
___flags$ = 8						; size = 4
??_GUpDownInfo@ioPrisonWeapon@@QAEPAXI@Z PROC		; ioPrisonWeapon::UpDownInfo::`scalar deleting destructor', COMDAT
; _this$ = ecx
  00000	55		 push	 ebp
  00001	8b ec		 mov	 ebp, esp
  00003	56		 push	 esi
  00004	8b f1		 mov	 esi, ecx
  00006	e8 00 00 00 00	 call	 ?_Tidy@?$vector@UUpDownMoveInfo@ioPrisonWeapon@@V?$allocator@UUpDownMoveInfo@ioPrisonWeapon@@@std@@@std@@IAEXXZ ; std::vector<ioPrisonWeapon::UpDownMoveInfo,std::allocator<ioPrisonWeapon::UpDownMoveInfo> >::_Tidy
  0000b	f6 45 08 01	 test	 BYTE PTR ___flags$[ebp], 1
  0000f	74 07		 je	 SHORT $LN1@scalar@4
  00011	56		 push	 esi
  00012	e8 00 00 00 00	 call	 ??3@YAXPAX@Z		; operator delete
  00017	59		 pop	 ecx
$LN1@scalar@4:
  00018	8b c6		 mov	 eax, esi
  0001a	5e		 pop	 esi
  0001b	5d		 pop	 ebp
  0001c	c2 04 00	 ret	 4
??_GUpDownInfo@ioPrisonWeapon@@QAEPAXI@Z ENDP		; ioPrisonWeapon::UpDownInfo::`scalar deleting destructor'
_TEXT	ENDS
PUBLIC	?Process@ioPrisonWeapon@@UAEXMPAVioPlayStage@@@Z ; ioPrisonWeapon::Process
EXTRN	__imp_?DestroyEffect@ioEffectFactory@@QAEXPAVioEffect@@@Z:PROC
EXTRN	?CreateAttachAreaWeapon@ioWeapon@@IAEXXZ:PROC	; ioWeapon::CreateAttachAreaWeapon
EXTRN	?UpdateAttachAreaWeapon@ioWeapon@@IAEXPAVioPlayStage@@@Z:PROC ; ioWeapon::UpdateAttachAreaWeapon
EXTRN	__imp_?GetLoopSec@ioFrameTimer@@QBEKXZ:PROC
EXTRN	__imp_?GetSingleton@ioFrameTimer@@SAAAV1@XZ:PROC
; Function compile flags: /Ogsp
; File d:\lost saga for developer\youtube\tutorial\source\src\lsclient\ioprisonweapon.cpp
;	COMDAT ?Process@ioPrisonWeapon@@UAEXMPAVioPlayStage@@@Z
_TEXT	SEGMENT
_fTimePerSec$ = 8					; size = 4
tv251 = 12						; size = 4
tv247 = 12						; size = 4
_pStage$ = 12						; size = 4
?Process@ioPrisonWeapon@@UAEXMPAVioPlayStage@@@Z PROC	; ioPrisonWeapon::Process, COMDAT
; _this$ = ecx

; 275  : {

  00000	55		 push	 ebp
  00001	8b ec		 mov	 ebp, esp
  00003	56		 push	 esi
  00004	57		 push	 edi
  00005	8b f1		 mov	 esi, ecx

; 276  : 	DWORD dwCurTime = FRAMEGETTIME();

  00007	ff 15 00 00 00
	00		 call	 DWORD PTR __imp_?GetSingleton@ioFrameTimer@@SAAAV1@XZ
  0000d	8b c8		 mov	 ecx, eax
  0000f	ff 15 00 00 00
	00		 call	 DWORD PTR __imp_?GetLoopSec@ioFrameTimer@@QBEKXZ

; 277  : 
; 278  : 	switch( m_State )

  00015	f3 0f 10 45 08	 movss	 xmm0, DWORD PTR _fTimePerSec$[ebp]
  0001a	8b f8		 mov	 edi, eax
  0001c	8b 86 94 08 00
	00		 mov	 eax, DWORD PTR [esi+2196]
  00022	83 e8 00	 sub	 eax, 0
  00025	0f 84 22 01 00
	00		 je	 $LN13@Process
  0002b	48		 dec	 eax
  0002c	0f 84 09 01 00
	00		 je	 $LN12@Process
  00032	48		 dec	 eax
  00033	0f 84 a8 00 00
	00		 je	 $LN11@Process
  00039	48		 dec	 eax
  0003a	74 6e		 je	 SHORT $LN6@Process
  0003c	48		 dec	 eax
  0003d	74 0c		 je	 SHORT $LN5@Process

; 335  : 	default:
; 336  : 		{
; 337  : 			SetWeaponDead();

  0003f	8b 06		 mov	 eax, DWORD PTR [esi]
  00041	8b ce		 mov	 ecx, esi
  00043	ff 50 4c	 call	 DWORD PTR [eax+76]

; 338  : 		}
; 339  : 		break;

  00046	e9 0c 01 00 00	 jmp	 $LN14@Process
$LN5@Process:

; 319  : 	case WS_PRISON_UPDOWN:
; 320  : 		{
; 321  : 			if( m_dwCurUpDownDuration + m_dwUpDownDuration < dwCurTime )

  0004b	8b 86 58 0a 00
	00		 mov	 eax, DWORD PTR [esi+2648]

; 322  : 			{
; 323  : 				CreateEndEffect( fTimePerSec, pStage );

  00051	ff 75 0c	 push	 DWORD PTR _pStage$[ebp]
  00054	03 86 54 0a 00
	00		 add	 eax, DWORD PTR [esi+2644]
  0005a	51		 push	 ecx
  0005b	f3 0f 11 04 24	 movss	 DWORD PTR [esp], xmm0
  00060	8b ce		 mov	 ecx, esi
  00062	3b c7		 cmp	 eax, edi
  00064	73 14		 jae	 SHORT $LN4@Process
  00066	e8 00 00 00 00	 call	 ?CreateEndEffect@ioPrisonWeapon@@QAEXMPAVioPlayStage@@@Z ; ioPrisonWeapon::CreateEndEffect

; 324  : 				m_State = WS_END;

  0006b	c7 86 94 08 00
	00 05 00 00 00	 mov	 DWORD PTR [esi+2196], 5

; 325  : 			}
; 326  : 			else

  00075	e9 dd 00 00 00	 jmp	 $LN14@Process
$LN4@Process:

; 327  : 			{
; 328  : 				ProcessUpDown( fTimePerSec, pStage );

  0007a	e8 00 00 00 00	 call	 ?ProcessUpDown@ioPrisonWeapon@@QAEXMPAVioPlayStage@@@Z ; ioPrisonWeapon::ProcessUpDown

; 329  : 				UpdateAttachAreaWeapon( pStage );

  0007f	ff 75 0c	 push	 DWORD PTR _pStage$[ebp]
  00082	8b ce		 mov	 ecx, esi
  00084	e8 00 00 00 00	 call	 ?UpdateAttachAreaWeapon@ioWeapon@@IAEXPAVioPlayStage@@@Z ; ioWeapon::UpdateAttachAreaWeapon

; 330  : 				CheckTestCollisionBox();

  00089	8b ce		 mov	 ecx, esi
  0008b	e8 00 00 00 00	 call	 ?CheckTestCollisionBox@ioPrisonWeapon@@QAEXXZ ; ioPrisonWeapon::CheckTestCollisionBox

; 331  : 				ProcessPrisionEffect( fTimePerSec, pStage );

  00090	ff 75 0c	 push	 DWORD PTR _pStage$[ebp]
  00093	f3 0f 10 45 08	 movss	 xmm0, DWORD PTR _fTimePerSec$[ebp]
  00098	51		 push	 ecx
  00099	8b ce		 mov	 ecx, esi
  0009b	f3 0f 11 04 24	 movss	 DWORD PTR [esp], xmm0
  000a0	e8 00 00 00 00	 call	 ?ProcessPrisionEffect@ioPrisonWeapon@@QAEXMPAVioPlayStage@@@Z ; ioPrisonWeapon::ProcessPrisionEffect

; 332  : 			}
; 333  : 		}
; 334  : 		break;

  000a5	e9 ad 00 00 00	 jmp	 $LN14@Process
$LN6@Process:

; 308  : 	case WS_PRISON_CREATE:
; 309  : 		{
; 310  : 			CreatePrisonEffect( fTimePerSec, pStage );

  000aa	ff 75 0c	 push	 DWORD PTR _pStage$[ebp]
  000ad	51		 push	 ecx
  000ae	8b ce		 mov	 ecx, esi
  000b0	f3 0f 11 04 24	 movss	 DWORD PTR [esp], xmm0
  000b5	e8 00 00 00 00	 call	 ?CreatePrisonEffect@ioPrisonWeapon@@QAEXMPAVioPlayStage@@@Z ; ioPrisonWeapon::CreatePrisonEffect

; 311  : 
; 312  : 			SetPosition( m_vPrisionPos );

  000ba	8d 86 b4 08 00
	00		 lea	 eax, DWORD PTR [esi+2228]
  000c0	50		 push	 eax
  000c1	8b ce		 mov	 ecx, esi
  000c3	e8 00 00 00 00	 call	 ?SetPosition@ioWeapon@@QAEXABUD3DXVECTOR3@@@Z ; ioWeapon::SetPosition

; 313  : 			CreateAttachAreaWeapon();

  000c8	8b ce		 mov	 ecx, esi
  000ca	e8 00 00 00 00	 call	 ?CreateAttachAreaWeapon@ioWeapon@@IAEXXZ ; ioWeapon::CreateAttachAreaWeapon

; 314  : 
; 315  : 			m_State = WS_PRISON_UPDOWN;	

  000cf	c7 86 94 08 00
	00 04 00 00 00	 mov	 DWORD PTR [esi+2196], 4

; 316  : 			m_dwCurUpDownDuration = dwCurTime;

  000d9	89 be 58 0a 00
	00		 mov	 DWORD PTR [esi+2648], edi

; 317  : 		}
; 318  : 		break;

  000df	eb 76		 jmp	 SHORT $LN14@Process
$LN11@Process:

; 290  : 	case WM_DELAY:
; 291  : 		{
; 292  : 			if( m_dwCurDelayTime == 0 )

  000e1	8b 8e 50 0a 00
	00		 mov	 ecx, DWORD PTR [esi+2640]
  000e7	85 c9		 test	 ecx, ecx
  000e9	75 18		 jne	 SHORT $LN10@Process

; 293  : 			{
; 294  : 				m_dwCurDelayTime = dwCurTime;
; 295  : 				CreateDealyEffect( fTimePerSec, pStage );

  000eb	ff 75 0c	 push	 DWORD PTR _pStage$[ebp]
  000ee	89 be 50 0a 00
	00		 mov	 DWORD PTR [esi+2640], edi
  000f4	51		 push	 ecx
  000f5	8b ce		 mov	 ecx, esi
  000f7	f3 0f 11 04 24	 movss	 DWORD PTR [esp], xmm0
  000fc	e8 00 00 00 00	 call	 ?CreateDealyEffect@ioPrisonWeapon@@QAEXMPAVioPlayStage@@@Z ; ioPrisonWeapon::CreateDealyEffect
  00101	eb 54		 jmp	 SHORT $LN14@Process
$LN10@Process:

; 296  : 			}
; 297  : 			else if( m_dwCurDelayTime + m_dwDelayTime < dwCurTime )

  00103	8b 86 4c 0a 00
	00		 mov	 eax, DWORD PTR [esi+2636]
  00109	03 c1		 add	 eax, ecx
  0010b	3b c7		 cmp	 eax, edi
  0010d	73 48		 jae	 SHORT $LN14@Process

; 298  : 			{
; 299  : 				m_State = WS_PRISON_CREATE;
; 300  : 				if( m_pFireMesh )

  0010f	8b 86 dc 08 00
	00		 mov	 eax, DWORD PTR [esi+2268]
  00115	c7 86 94 08 00
	00 03 00 00 00	 mov	 DWORD PTR [esi+2196], 3
  0011f	85 c0		 test	 eax, eax
  00121	74 34		 je	 SHORT $LN14@Process

; 301  : 				{
; 302  : 					g_EffectFactory.DestroyEffect( m_pFireMesh );

  00123	50		 push	 eax
  00124	ff 15 00 00 00
	00		 call	 DWORD PTR __imp_?GetSingleton@ioEffectFactory@@SAAAV1@XZ
  0012a	8b c8		 mov	 ecx, eax
  0012c	ff 15 00 00 00
	00		 call	 DWORD PTR __imp_?DestroyEffect@ioEffectFactory@@QAEXPAVioEffect@@@Z

; 303  : 					m_pFireMesh = NULL;

  00132	83 a6 dc 08 00
	00 00		 and	 DWORD PTR [esi+2268], 0

; 304  : 				}
; 305  : 			}
; 306  : 		}
; 307  : 		break;

  00139	eb 1c		 jmp	 SHORT $LN14@Process
$LN12@Process:

; 283  : 		}
; 284  : 		break;
; 285  : 	case WS_MOVE:
; 286  : 		{
; 287  : 			ProcessMove( fTimePerSec, pStage );

  0013b	ff 75 0c	 push	 DWORD PTR _pStage$[ebp]
  0013e	51		 push	 ecx
  0013f	8b ce		 mov	 ecx, esi
  00141	f3 0f 11 04 24	 movss	 DWORD PTR [esp], xmm0
  00146	e8 00 00 00 00	 call	 ?ProcessMove@ioPrisonWeapon@@QAEXMPAVioPlayStage@@@Z ; ioPrisonWeapon::ProcessMove

; 288  : 		}
; 289  : 		break;

  0014b	eb 0a		 jmp	 SHORT $LN14@Process
$LN13@Process:

; 279  : 	{
; 280  : 	case WS_INIT:
; 281  : 		{
; 282  : 			m_State = WS_MOVE;

  0014d	c7 86 94 08 00
	00 01 00 00 00	 mov	 DWORD PTR [esi+2196], 1
$LN14@Process:

; 340  : 	}
; 341  : 
; 342  : 	if( m_pFireMesh )

  00157	8d 8e dc 08 00
	00		 lea	 ecx, DWORD PTR [esi+2268]
  0015d	83 39 00	 cmp	 DWORD PTR [ecx], 0
  00160	74 2c		 je	 SHORT $LN1@Process

; 343  : 		m_pFireMesh->Update( fTimePerSec * FLOAT1000 );

  00162	b8 e8 03 00 00	 mov	 eax, 1000		; 000003e8H
  00167	8b 09		 mov	 ecx, DWORD PTR [ecx]
  00169	83 c1 14	 add	 ecx, 20			; 00000014H
  0016c	8b 11		 mov	 edx, DWORD PTR [ecx]
  0016e	89 45 0c	 mov	 DWORD PTR tv251[ebp], eax
  00171	db 45 0c	 fild	 DWORD PTR tv251[ebp]
  00174	85 c0		 test	 eax, eax
  00176	79 06		 jns	 SHORT $LN20@Process
  00178	d8 05 00 00 00
	00		 fadd	 DWORD PTR __real@4f800000
$LN20@Process:
  0017e	d8 4d 08	 fmul	 DWORD PTR _fTimePerSec$[ebp]
  00181	51		 push	 ecx
  00182	d9 5d 0c	 fstp	 DWORD PTR tv247[ebp]
  00185	d9 45 0c	 fld	 DWORD PTR tv247[ebp]
  00188	d9 1c 24	 fstp	 DWORD PTR [esp]
  0018b	ff 52 40	 call	 DWORD PTR [edx+64]
$LN1@Process:

; 344  : 
; 345  : 	UpdateWorldAttackBox( fTimePerSec, false );

  0018e	f3 0f 10 45 08	 movss	 xmm0, DWORD PTR _fTimePerSec$[ebp]
  00193	8b 06		 mov	 eax, DWORD PTR [esi]
  00195	6a 00		 push	 0
  00197	51		 push	 ecx
  00198	8b ce		 mov	 ecx, esi
  0019a	f3 0f 11 04 24	 movss	 DWORD PTR [esp], xmm0
  0019f	ff 90 38 01 00
	00		 call	 DWORD PTR [eax+312]
  001a5	5f		 pop	 edi
  001a6	5e		 pop	 esi

; 346  : }

  001a7	5d		 pop	 ebp
  001a8	c2 08 00	 ret	 8
?Process@ioPrisonWeapon@@UAEXMPAVioPlayStage@@@Z ENDP	; ioPrisonWeapon::Process
_TEXT	ENDS
PUBLIC	??$_Cons_val@V?$allocator@UUpDownInfo@ioPrisonWeapon@@@std@@UUpDownInfo@ioPrisonWeapon@@AAU34@@std@@YAXAAV?$allocator@UUpDownInfo@ioPrisonWeapon@@@0@PAUUpDownInfo@ioPrisonWeapon@@AAU23@@Z ; std::_Cons_val<std::allocator<ioPrisonWeapon::UpDownInfo>,ioPrisonWeapon::UpDownInfo,ioPrisonWeapon::UpDownInfo &>
; Function compile flags: /Ogsp
; File c:\program files (x86)\microsoft visual studio 10.0\vc\include\xmemory
;	COMDAT ??$_Cons_val@V?$allocator@UUpDownInfo@ioPrisonWeapon@@@std@@UUpDownInfo@ioPrisonWeapon@@AAU34@@std@@YAXAAV?$allocator@UUpDownInfo@ioPrisonWeapon@@@0@PAUUpDownInfo@ioPrisonWeapon@@AAU23@@Z
_TEXT	SEGMENT
__Alval$ = 8						; size = 4
__Pdest$ = 12						; size = 4
__Src$ = 16						; size = 4
??$_Cons_val@V?$allocator@UUpDownInfo@ioPrisonWeapon@@@std@@UUpDownInfo@ioPrisonWeapon@@AAU34@@std@@YAXAAV?$allocator@UUpDownInfo@ioPrisonWeapon@@@0@PAUUpDownInfo@ioPrisonWeapon@@AAU23@@Z PROC ; std::_Cons_val<std::allocator<ioPrisonWeapon::UpDownInfo>,ioPrisonWeapon::UpDownInfo,ioPrisonWeapon::UpDownInfo &>, COMDAT

; 279  : 	{	// construct using allocator

  00000	55		 push	 ebp
  00001	8b ec		 mov	 ebp, esp

; 280  : 	_Alval.construct(_Pdest, _STD forward<_Ty2>(_Src));

  00003	ff 75 10	 push	 DWORD PTR __Src$[ebp]
  00006	8b 4d 08	 mov	 ecx, DWORD PTR __Alval$[ebp]
  00009	ff 75 0c	 push	 DWORD PTR __Pdest$[ebp]
  0000c	e8 00 00 00 00	 call	 ??$construct@AAUUpDownInfo@ioPrisonWeapon@@@?$allocator@UUpDownInfo@ioPrisonWeapon@@@std@@QAEXPAUUpDownInfo@ioPrisonWeapon@@AAU23@@Z ; std::allocator<ioPrisonWeapon::UpDownInfo>::construct<ioPrisonWeapon::UpDownInfo &>

; 281  : 	}

  00011	5d		 pop	 ebp
  00012	c3		 ret	 0
??$_Cons_val@V?$allocator@UUpDownInfo@ioPrisonWeapon@@@std@@UUpDownInfo@ioPrisonWeapon@@AAU34@@std@@YAXAAV?$allocator@UUpDownInfo@ioPrisonWeapon@@@0@PAUUpDownInfo@ioPrisonWeapon@@AAU23@@Z ENDP ; std::_Cons_val<std::allocator<ioPrisonWeapon::UpDownInfo>,ioPrisonWeapon::UpDownInfo,ioPrisonWeapon::UpDownInfo &>
_TEXT	ENDS
PUBLIC	?construct@?$allocator@UUpDownInfo@ioPrisonWeapon@@@std@@QAEXPAUUpDownInfo@ioPrisonWeapon@@ABU34@@Z ; std::allocator<ioPrisonWeapon::UpDownInfo>::construct
; Function compile flags: /Ogsp
;	COMDAT ?construct@?$allocator@UUpDownInfo@ioPrisonWeapon@@@std@@QAEXPAUUpDownInfo@ioPrisonWeapon@@ABU34@@Z
_TEXT	SEGMENT
__Ptr$ = 8						; size = 4
__Val$ = 12						; size = 4
?construct@?$allocator@UUpDownInfo@ioPrisonWeapon@@@std@@QAEXPAUUpDownInfo@ioPrisonWeapon@@ABU34@@Z PROC ; std::allocator<ioPrisonWeapon::UpDownInfo>::construct, COMDAT
; _this$ = ecx

; 196  : 		{	// construct object at _Ptr with value _Val

  00000	55		 push	 ebp
  00001	8b ec		 mov	 ebp, esp

; 197  : 		_Construct(_Ptr, _Val);

  00003	ff 75 0c	 push	 DWORD PTR __Val$[ebp]
  00006	ff 75 08	 push	 DWORD PTR __Ptr$[ebp]
  00009	e8 00 00 00 00	 call	 ??$_Construct@UUpDownInfo@ioPrisonWeapon@@ABU12@@std@@YAXPAUUpDownInfo@ioPrisonWeapon@@ABU12@@Z ; std::_Construct<ioPrisonWeapon::UpDownInfo,ioPrisonWeapon::UpDownInfo const &>
  0000e	59		 pop	 ecx
  0000f	59		 pop	 ecx

; 198  : 		}

  00010	5d		 pop	 ebp
  00011	c2 08 00	 ret	 8
?construct@?$allocator@UUpDownInfo@ioPrisonWeapon@@@std@@QAEXPAUUpDownInfo@ioPrisonWeapon@@ABU34@@Z ENDP ; std::allocator<ioPrisonWeapon::UpDownInfo>::construct
_TEXT	ENDS
PUBLIC	??$_Move@PAUUpDownInfo@ioPrisonWeapon@@PAU12@@std@@YAPAUUpDownInfo@ioPrisonWeapon@@PAU12@00U_Nonscalar_ptr_iterator_tag@0@@Z ; std::_Move<ioPrisonWeapon::UpDownInfo *,ioPrisonWeapon::UpDownInfo *>
; Function compile flags: /Ogsp
; File c:\program files (x86)\microsoft visual studio 10.0\vc\include\xutility
;	COMDAT ??$_Move@PAUUpDownInfo@ioPrisonWeapon@@PAU12@@std@@YAPAUUpDownInfo@ioPrisonWeapon@@PAU12@00U_Nonscalar_ptr_iterator_tag@0@@Z
_TEXT	SEGMENT
__First$ = 8						; size = 4
__Last$ = 12						; size = 4
__Dest$ = 16						; size = 4
___formal$ = 20						; size = 1
??$_Move@PAUUpDownInfo@ioPrisonWeapon@@PAU12@@std@@YAPAUUpDownInfo@ioPrisonWeapon@@PAU12@00U_Nonscalar_ptr_iterator_tag@0@@Z PROC ; std::_Move<ioPrisonWeapon::UpDownInfo *,ioPrisonWeapon::UpDownInfo *>, COMDAT

; 2512 : 	{	// move [_First, _Last) to [_Dest, ...), arbitrary iterators

  00000	55		 push	 ebp
  00001	8b ec		 mov	 ebp, esp
  00003	56		 push	 esi

; 2513 : 	for (; _First != _Last; ++_Dest, ++_First)

  00004	8b 75 08	 mov	 esi, DWORD PTR __First$[ebp]
  00007	eb 19		 jmp	 SHORT $LN13@Move@2
$LL3@Move@2:

; 2514 : 		*_Dest = _STD move(*_First);

  00009	8b 4d 10	 mov	 ecx, DWORD PTR __Dest$[ebp]
  0000c	56		 push	 esi
  0000d	e8 00 00 00 00	 call	 ??4?$vector@UUpDownMoveInfo@ioPrisonWeapon@@V?$allocator@UUpDownMoveInfo@ioPrisonWeapon@@@std@@@std@@QAEAAV01@ABV01@@Z ; std::vector<ioPrisonWeapon::UpDownMoveInfo,std::allocator<ioPrisonWeapon::UpDownMoveInfo> >::operator=
  00012	d9 46 10	 fld	 DWORD PTR [esi+16]
  00015	8b 45 10	 mov	 eax, DWORD PTR __Dest$[ebp]
  00018	83 45 10 14	 add	 DWORD PTR __Dest$[ebp], 20 ; 00000014H
  0001c	d9 58 10	 fstp	 DWORD PTR [eax+16]
  0001f	83 c6 14	 add	 esi, 20			; 00000014H
$LN13@Move@2:

; 2513 : 	for (; _First != _Last; ++_Dest, ++_First)

  00022	3b 75 0c	 cmp	 esi, DWORD PTR __Last$[ebp]
  00025	75 e2		 jne	 SHORT $LL3@Move@2

; 2515 : 	return (_Dest);

  00027	8b 45 10	 mov	 eax, DWORD PTR __Dest$[ebp]
  0002a	5e		 pop	 esi

; 2516 : 	}

  0002b	5d		 pop	 ebp
  0002c	c3		 ret	 0
??$_Move@PAUUpDownInfo@ioPrisonWeapon@@PAU12@@std@@YAPAUUpDownInfo@ioPrisonWeapon@@PAU12@00U_Nonscalar_ptr_iterator_tag@0@@Z ENDP ; std::_Move<ioPrisonWeapon::UpDownInfo *,ioPrisonWeapon::UpDownInfo *>
_TEXT	ENDS
PUBLIC	??$_Destroy@UUpDownInfo@ioPrisonWeapon@@@std@@YAXPAUUpDownInfo@ioPrisonWeapon@@@Z ; std::_Destroy<ioPrisonWeapon::UpDownInfo>
; Function compile flags: /Ogsp
; File c:\program files (x86)\microsoft visual studio 10.0\vc\include\xmemory
;	COMDAT ??$_Destroy@UUpDownInfo@ioPrisonWeapon@@@std@@YAXPAUUpDownInfo@ioPrisonWeapon@@@Z
_TEXT	SEGMENT
__Ptr$ = 8						; size = 4
??$_Destroy@UUpDownInfo@ioPrisonWeapon@@@std@@YAXPAUUpDownInfo@ioPrisonWeapon@@@Z PROC ; std::_Destroy<ioPrisonWeapon::UpDownInfo>, COMDAT

; 62   : 	{	// destroy object at _Ptr

  00000	55		 push	 ebp
  00001	8b ec		 mov	 ebp, esp

; 63   : 	_Ptr->~_Ty();

  00003	8b 4d 08	 mov	 ecx, DWORD PTR __Ptr$[ebp]

; 64   : 	}

  00006	5d		 pop	 ebp

; 63   : 	_Ptr->~_Ty();

  00007	e9 00 00 00 00	 jmp	 ?_Tidy@?$vector@UUpDownMoveInfo@ioPrisonWeapon@@V?$allocator@UUpDownMoveInfo@ioPrisonWeapon@@@std@@@std@@IAEXXZ ; std::vector<ioPrisonWeapon::UpDownMoveInfo,std::allocator<ioPrisonWeapon::UpDownMoveInfo> >::_Tidy
??$_Destroy@UUpDownInfo@ioPrisonWeapon@@@std@@YAXPAUUpDownInfo@ioPrisonWeapon@@@Z ENDP ; std::_Destroy<ioPrisonWeapon::UpDownInfo>
_TEXT	ENDS
PUBLIC	??$_Cons_val@V?$allocator@UUpDownInfo@ioPrisonWeapon@@@std@@UUpDownInfo@ioPrisonWeapon@@ABU34@@std@@YAXAAV?$allocator@UUpDownInfo@ioPrisonWeapon@@@0@PAUUpDownInfo@ioPrisonWeapon@@ABU23@@Z ; std::_Cons_val<std::allocator<ioPrisonWeapon::UpDownInfo>,ioPrisonWeapon::UpDownInfo,ioPrisonWeapon::UpDownInfo const &>
; Function compile flags: /Ogsp
;	COMDAT ??$_Cons_val@V?$allocator@UUpDownInfo@ioPrisonWeapon@@@std@@UUpDownInfo@ioPrisonWeapon@@ABU34@@std@@YAXAAV?$allocator@UUpDownInfo@ioPrisonWeapon@@@0@PAUUpDownInfo@ioPrisonWeapon@@ABU23@@Z
_TEXT	SEGMENT
__Alval$ = 8						; size = 4
__Pdest$ = 12						; size = 4
__Src$ = 16						; size = 4
??$_Cons_val@V?$allocator@UUpDownInfo@ioPrisonWeapon@@@std@@UUpDownInfo@ioPrisonWeapon@@ABU34@@std@@YAXAAV?$allocator@UUpDownInfo@ioPrisonWeapon@@@0@PAUUpDownInfo@ioPrisonWeapon@@ABU23@@Z PROC ; std::_Cons_val<std::allocator<ioPrisonWeapon::UpDownInfo>,ioPrisonWeapon::UpDownInfo,ioPrisonWeapon::UpDownInfo const &>, COMDAT

; 279  : 	{	// construct using allocator

  00000	55		 push	 ebp
  00001	8b ec		 mov	 ebp, esp

; 280  : 	_Alval.construct(_Pdest, _STD forward<_Ty2>(_Src));

  00003	ff 75 10	 push	 DWORD PTR __Src$[ebp]
  00006	ff 75 0c	 push	 DWORD PTR __Pdest$[ebp]
  00009	e8 00 00 00 00	 call	 ??$_Construct@UUpDownInfo@ioPrisonWeapon@@ABU12@@std@@YAXPAUUpDownInfo@ioPrisonWeapon@@ABU12@@Z ; std::_Construct<ioPrisonWeapon::UpDownInfo,ioPrisonWeapon::UpDownInfo const &>
  0000e	59		 pop	 ecx
  0000f	59		 pop	 ecx

; 281  : 	}

  00010	5d		 pop	 ebp
  00011	c3		 ret	 0
??$_Cons_val@V?$allocator@UUpDownInfo@ioPrisonWeapon@@@std@@UUpDownInfo@ioPrisonWeapon@@ABU34@@std@@YAXAAV?$allocator@UUpDownInfo@ioPrisonWeapon@@@0@PAUUpDownInfo@ioPrisonWeapon@@ABU23@@Z ENDP ; std::_Cons_val<std::allocator<ioPrisonWeapon::UpDownInfo>,ioPrisonWeapon::UpDownInfo,ioPrisonWeapon::UpDownInfo const &>
_TEXT	ENDS
PUBLIC	??$_Move@PAUUpDownInfo@ioPrisonWeapon@@PAU12@@std@@YAPAUUpDownInfo@ioPrisonWeapon@@PAU12@00@Z ; std::_Move<ioPrisonWeapon::UpDownInfo *,ioPrisonWeapon::UpDownInfo *>
; Function compile flags: /Ogsp
; File c:\program files (x86)\microsoft visual studio 10.0\vc\include\xutility
;	COMDAT ??$_Move@PAUUpDownInfo@ioPrisonWeapon@@PAU12@@std@@YAPAUUpDownInfo@ioPrisonWeapon@@PAU12@00@Z
_TEXT	SEGMENT
__Cat$540626 = -4					; size = 1
__First$ = 8						; size = 4
__Last$ = 12						; size = 4
__Dest$ = 16						; size = 4
??$_Move@PAUUpDownInfo@ioPrisonWeapon@@PAU12@@std@@YAPAUUpDownInfo@ioPrisonWeapon@@PAU12@00@Z PROC ; std::_Move<ioPrisonWeapon::UpDownInfo *,ioPrisonWeapon::UpDownInfo *>, COMDAT

; 2533 : 	{	// move [_First, _Last) to [_Dest, ...), unchecked

  00000	55		 push	 ebp
  00001	8b ec		 mov	 ebp, esp
  00003	51		 push	 ecx

; 2534 : 	return (_Move(_First, _Last,
; 2535 : 		_Dest, _Ptr_cat(_First, _Dest)));

  00004	ff 75 fc	 push	 DWORD PTR __Cat$540626[ebp]
  00007	ff 75 10	 push	 DWORD PTR __Dest$[ebp]
  0000a	ff 75 0c	 push	 DWORD PTR __Last$[ebp]
  0000d	ff 75 08	 push	 DWORD PTR __First$[ebp]
  00010	e8 00 00 00 00	 call	 ??$_Move@PAUUpDownInfo@ioPrisonWeapon@@PAU12@@std@@YAPAUUpDownInfo@ioPrisonWeapon@@PAU12@00U_Nonscalar_ptr_iterator_tag@0@@Z ; std::_Move<ioPrisonWeapon::UpDownInfo *,ioPrisonWeapon::UpDownInfo *>
  00015	83 c4 10	 add	 esp, 16			; 00000010H

; 2536 : 	}

  00018	c9		 leave
  00019	c3		 ret	 0
??$_Move@PAUUpDownInfo@ioPrisonWeapon@@PAU12@@std@@YAPAUUpDownInfo@ioPrisonWeapon@@PAU12@00@Z ENDP ; std::_Move<ioPrisonWeapon::UpDownInfo *,ioPrisonWeapon::UpDownInfo *>
_TEXT	ENDS
PUBLIC	?destroy@?$allocator@UUpDownInfo@ioPrisonWeapon@@@std@@QAEXPAUUpDownInfo@ioPrisonWeapon@@@Z ; std::allocator<ioPrisonWeapon::UpDownInfo>::destroy
; Function compile flags: /Ogsp
; File c:\program files (x86)\microsoft visual studio 10.0\vc\include\xmemory
;	COMDAT ?destroy@?$allocator@UUpDownInfo@ioPrisonWeapon@@@std@@QAEXPAUUpDownInfo@ioPrisonWeapon@@@Z
_TEXT	SEGMENT
__Ptr$ = 8						; size = 4
?destroy@?$allocator@UUpDownInfo@ioPrisonWeapon@@@std@@QAEXPAUUpDownInfo@ioPrisonWeapon@@@Z PROC ; std::allocator<ioPrisonWeapon::UpDownInfo>::destroy, COMDAT
; _this$ = ecx

; 212  : 		{	// destroy object at _Ptr

  00000	55		 push	 ebp
  00001	8b ec		 mov	 ebp, esp

; 213  : 		_Destroy(_Ptr);

  00003	8b 4d 08	 mov	 ecx, DWORD PTR __Ptr$[ebp]
  00006	e8 00 00 00 00	 call	 ?_Tidy@?$vector@UUpDownMoveInfo@ioPrisonWeapon@@V?$allocator@UUpDownMoveInfo@ioPrisonWeapon@@@std@@@std@@IAEXXZ ; std::vector<ioPrisonWeapon::UpDownMoveInfo,std::allocator<ioPrisonWeapon::UpDownMoveInfo> >::_Tidy

; 214  : 		}

  0000b	5d		 pop	 ebp
  0000c	c2 04 00	 ret	 4
?destroy@?$allocator@UUpDownInfo@ioPrisonWeapon@@@std@@QAEXPAUUpDownInfo@ioPrisonWeapon@@@Z ENDP ; std::allocator<ioPrisonWeapon::UpDownInfo>::destroy
_TEXT	ENDS
PUBLIC	??$_Dest_val@V?$allocator@UUpDownInfo@ioPrisonWeapon@@@std@@UUpDownInfo@ioPrisonWeapon@@@std@@YAXAAV?$allocator@UUpDownInfo@ioPrisonWeapon@@@0@PAUUpDownInfo@ioPrisonWeapon@@@Z ; std::_Dest_val<std::allocator<ioPrisonWeapon::UpDownInfo>,ioPrisonWeapon::UpDownInfo>
; Function compile flags: /Ogsp
;	COMDAT ??$_Dest_val@V?$allocator@UUpDownInfo@ioPrisonWeapon@@@std@@UUpDownInfo@ioPrisonWeapon@@@std@@YAXAAV?$allocator@UUpDownInfo@ioPrisonWeapon@@@0@PAUUpDownInfo@ioPrisonWeapon@@@Z
_TEXT	SEGMENT
__Alval$ = 8						; size = 4
__Pdest$ = 12						; size = 4
??$_Dest_val@V?$allocator@UUpDownInfo@ioPrisonWeapon@@@std@@UUpDownInfo@ioPrisonWeapon@@@std@@YAXAAV?$allocator@UUpDownInfo@ioPrisonWeapon@@@0@PAUUpDownInfo@ioPrisonWeapon@@@Z PROC ; std::_Dest_val<std::allocator<ioPrisonWeapon::UpDownInfo>,ioPrisonWeapon::UpDownInfo>, COMDAT

; 286  : 	{	// destroy using allocator

  00000	55		 push	 ebp
  00001	8b ec		 mov	 ebp, esp

; 287  : 	_Alval.destroy(_Pdest);

  00003	8b 4d 0c	 mov	 ecx, DWORD PTR __Pdest$[ebp]

; 288  : 	}

  00006	5d		 pop	 ebp

; 287  : 	_Alval.destroy(_Pdest);

  00007	e9 00 00 00 00	 jmp	 ?_Tidy@?$vector@UUpDownMoveInfo@ioPrisonWeapon@@V?$allocator@UUpDownMoveInfo@ioPrisonWeapon@@@std@@@std@@IAEXXZ ; std::vector<ioPrisonWeapon::UpDownMoveInfo,std::allocator<ioPrisonWeapon::UpDownMoveInfo> >::_Tidy
??$_Dest_val@V?$allocator@UUpDownInfo@ioPrisonWeapon@@@std@@UUpDownInfo@ioPrisonWeapon@@@std@@YAXAAV?$allocator@UUpDownInfo@ioPrisonWeapon@@@0@PAUUpDownInfo@ioPrisonWeapon@@@Z ENDP ; std::_Dest_val<std::allocator<ioPrisonWeapon::UpDownInfo>,ioPrisonWeapon::UpDownInfo>
_TEXT	ENDS
PUBLIC	??$_Destroy_range@V?$allocator@UUpDownInfo@ioPrisonWeapon@@@std@@@std@@YAXPAUUpDownInfo@ioPrisonWeapon@@0AAV?$allocator@UUpDownInfo@ioPrisonWeapon@@@0@U_Nonscalar_ptr_iterator_tag@0@@Z ; std::_Destroy_range<std::allocator<ioPrisonWeapon::UpDownInfo> >
; Function compile flags: /Ogsp
;	COMDAT ??$_Destroy_range@V?$allocator@UUpDownInfo@ioPrisonWeapon@@@std@@@std@@YAXPAUUpDownInfo@ioPrisonWeapon@@0AAV?$allocator@UUpDownInfo@ioPrisonWeapon@@@0@U_Nonscalar_ptr_iterator_tag@0@@Z
_TEXT	SEGMENT
__First$ = 8						; size = 4
__Last$ = 12						; size = 4
__Al$ = 16						; size = 4
___formal$ = 20						; size = 1
??$_Destroy_range@V?$allocator@UUpDownInfo@ioPrisonWeapon@@@std@@@std@@YAXPAUUpDownInfo@ioPrisonWeapon@@0AAV?$allocator@UUpDownInfo@ioPrisonWeapon@@@0@U_Nonscalar_ptr_iterator_tag@0@@Z PROC ; std::_Destroy_range<std::allocator<ioPrisonWeapon::UpDownInfo> >, COMDAT

; 95   : 	{	// destroy [_First, _Last), arbitrary type

  00000	55		 push	 ebp
  00001	8b ec		 mov	 ebp, esp
  00003	56		 push	 esi

; 96   : 	for (; _First != _Last; ++_First)

  00004	8b 75 08	 mov	 esi, DWORD PTR __First$[ebp]
  00007	eb 0a		 jmp	 SHORT $LN24@Destroy_ra
$LL3@Destroy_ra:

; 97   : 		_Dest_val(_Al, _First);

  00009	8b ce		 mov	 ecx, esi
  0000b	e8 00 00 00 00	 call	 ?_Tidy@?$vector@UUpDownMoveInfo@ioPrisonWeapon@@V?$allocator@UUpDownMoveInfo@ioPrisonWeapon@@@std@@@std@@IAEXXZ ; std::vector<ioPrisonWeapon::UpDownMoveInfo,std::allocator<ioPrisonWeapon::UpDownMoveInfo> >::_Tidy
  00010	83 c6 14	 add	 esi, 20			; 00000014H
$LN24@Destroy_ra:

; 96   : 	for (; _First != _Last; ++_First)

  00013	3b 75 0c	 cmp	 esi, DWORD PTR __Last$[ebp]
  00016	75 f1		 jne	 SHORT $LL3@Destroy_ra
  00018	5e		 pop	 esi

; 98   : 	}

  00019	5d		 pop	 ebp
  0001a	c3		 ret	 0
??$_Destroy_range@V?$allocator@UUpDownInfo@ioPrisonWeapon@@@std@@@std@@YAXPAUUpDownInfo@ioPrisonWeapon@@0AAV?$allocator@UUpDownInfo@ioPrisonWeapon@@@0@U_Nonscalar_ptr_iterator_tag@0@@Z ENDP ; std::_Destroy_range<std::allocator<ioPrisonWeapon::UpDownInfo> >
_TEXT	ENDS
PUBLIC	??$_Uninit_move@PAUUpDownInfo@ioPrisonWeapon@@PAU12@V?$allocator@UUpDownInfo@ioPrisonWeapon@@@std@@U12@@std@@YAPAUUpDownInfo@ioPrisonWeapon@@PAU12@00AAV?$allocator@UUpDownInfo@ioPrisonWeapon@@@0@0U_Nonscalar_ptr_iterator_tag@0@@Z ; std::_Uninit_move<ioPrisonWeapon::UpDownInfo *,ioPrisonWeapon::UpDownInfo *,std::allocator<ioPrisonWeapon::UpDownInfo>,ioPrisonWeapon::UpDownInfo>
;	COMDAT xdata$x
; File c:\program files (x86)\microsoft visual studio 10.0\vc\include\vector
xdata$x	SEGMENT
__catchsym$??$_Uninit_move@PAUUpDownInfo@ioPrisonWeapon@@PAU12@V?$allocator@UUpDownInfo@ioPrisonWeapon@@@std@@U12@@std@@YAPAUUpDownInfo@ioPrisonWeapon@@PAU12@00AAV?$allocator@UUpDownInfo@ioPrisonWeapon@@@0@0U_Nonscalar_ptr_iterator_tag@0@@Z$3 DD 040H
	DD	00H
	DD	00H
	DD	FLAT:__catch$??$_Uninit_move@PAUUpDownInfo@ioPrisonWeapon@@PAU12@V?$allocator@UUpDownInfo@ioPrisonWeapon@@@std@@U12@@std@@YAPAUUpDownInfo@ioPrisonWeapon@@PAU12@00AAV?$allocator@UUpDownInfo@ioPrisonWeapon@@@0@0U_Nonscalar_ptr_iterator_tag@0@@Z$0
__unwindtable$??$_Uninit_move@PAUUpDownInfo@ioPrisonWeapon@@PAU12@V?$allocator@UUpDownInfo@ioPrisonWeapon@@@std@@U12@@std@@YAPAUUpDownInfo@ioPrisonWeapon@@PAU12@00AAV?$allocator@UUpDownInfo@ioPrisonWeapon@@@0@0U_Nonscalar_ptr_iterator_tag@0@@Z DD 0ffffffffH
	DD	00H
	DD	0ffffffffH
	DD	00H
__tryblocktable$??$_Uninit_move@PAUUpDownInfo@ioPrisonWeapon@@PAU12@V?$allocator@UUpDownInfo@ioPrisonWeapon@@@std@@U12@@std@@YAPAUUpDownInfo@ioPrisonWeapon@@PAU12@00AAV?$allocator@UUpDownInfo@ioPrisonWeapon@@@0@0U_Nonscalar_ptr_iterator_tag@0@@Z DD 00H
	DD	00H
	DD	01H
	DD	01H
	DD	FLAT:__catchsym$??$_Uninit_move@PAUUpDownInfo@ioPrisonWeapon@@PAU12@V?$allocator@UUpDownInfo@ioPrisonWeapon@@@std@@U12@@std@@YAPAUUpDownInfo@ioPrisonWeapon@@PAU12@00AAV?$allocator@UUpDownInfo@ioPrisonWeapon@@@0@0U_Nonscalar_ptr_iterator_tag@0@@Z$3
__ehfuncinfo$??$_Uninit_move@PAUUpDownInfo@ioPrisonWeapon@@PAU12@V?$allocator@UUpDownInfo@ioPrisonWeapon@@@std@@U12@@std@@YAPAUUpDownInfo@ioPrisonWeapon@@PAU12@00AAV?$allocator@UUpDownInfo@ioPrisonWeapon@@@0@0U_Nonscalar_ptr_iterator_tag@0@@Z DD 019930522H
	DD	02H
	DD	FLAT:__unwindtable$??$_Uninit_move@PAUUpDownInfo@ioPrisonWeapon@@PAU12@V?$allocator@UUpDownInfo@ioPrisonWeapon@@@std@@U12@@std@@YAPAUUpDownInfo@ioPrisonWeapon@@PAU12@00AAV?$allocator@UUpDownInfo@ioPrisonWeapon@@@0@0U_Nonscalar_ptr_iterator_tag@0@@Z
	DD	01H
	DD	FLAT:__tryblocktable$??$_Uninit_move@PAUUpDownInfo@ioPrisonWeapon@@PAU12@V?$allocator@UUpDownInfo@ioPrisonWeapon@@@std@@U12@@std@@YAPAUUpDownInfo@ioPrisonWeapon@@PAU12@00AAV?$allocator@UUpDownInfo@ioPrisonWeapon@@@0@0U_Nonscalar_ptr_iterator_tag@0@@Z
	DD	2 DUP(00H)
	DD	00H
	DD	01H
; Function compile flags: /Ogsp
; File c:\program files (x86)\microsoft visual studio 10.0\vc\include\memory
xdata$x	ENDS
;	COMDAT ??$_Uninit_move@PAUUpDownInfo@ioPrisonWeapon@@PAU12@V?$allocator@UUpDownInfo@ioPrisonWeapon@@@std@@U12@@std@@YAPAUUpDownInfo@ioPrisonWeapon@@PAU12@00AAV?$allocator@UUpDownInfo@ioPrisonWeapon@@@0@0U_Nonscalar_ptr_iterator_tag@0@@Z
_TEXT	SEGMENT
__Next$ = -20						; size = 4
__$EHRec$ = -16						; size = 16
__First$ = 8						; size = 4
__Last$ = 12						; size = 4
__Dest$ = 16						; size = 4
__Al$ = 20						; size = 4
___formal$ = 24						; size = 4
___formal$ = 28						; size = 1
??$_Uninit_move@PAUUpDownInfo@ioPrisonWeapon@@PAU12@V?$allocator@UUpDownInfo@ioPrisonWeapon@@@std@@U12@@std@@YAPAUUpDownInfo@ioPrisonWeapon@@PAU12@00AAV?$allocator@UUpDownInfo@ioPrisonWeapon@@@0@0U_Nonscalar_ptr_iterator_tag@0@@Z PROC ; std::_Uninit_move<ioPrisonWeapon::UpDownInfo *,ioPrisonWeapon::UpDownInfo *,std::allocator<ioPrisonWeapon::UpDownInfo>,ioPrisonWeapon::UpDownInfo>, COMDAT

; 424  : 	{	// move [_First, _Last) to raw _Dest, using _Al, arbitrary type

  00000	6a 08		 push	 8
  00002	b8 00 00 00 00	 mov	 eax, __ehhandler$??$_Uninit_move@PAUUpDownInfo@ioPrisonWeapon@@PAU12@V?$allocator@UUpDownInfo@ioPrisonWeapon@@@std@@U12@@std@@YAPAUUpDownInfo@ioPrisonWeapon@@PAU12@00AAV?$allocator@UUpDownInfo@ioPrisonWeapon@@@0@0U_Nonscalar_ptr_iterator_tag@0@@Z
  00007	e8 00 00 00 00	 call	 __EH_prolog3_catch

; 425  : 	_DEBUG_RANGE(_First, _Last);
; 426  : 	_DEBUG_POINTER(_Dest);
; 427  : 	_FwdIt _Next = _Dest;

  0000c	8b 45 10	 mov	 eax, DWORD PTR __Dest$[ebp]

; 428  : 
; 429  : 	_TRY_BEGIN

  0000f	83 65 fc 00	 and	 DWORD PTR __$EHRec$[ebp+12], 0
  00013	8b 75 08	 mov	 esi, DWORD PTR __First$[ebp]
  00016	89 45 ec	 mov	 DWORD PTR __Next$[ebp], eax
$LL6@Uninit_mov@2:

; 430  : 	for (; _First != _Last; ++_Dest, ++_First)

  00019	3b 75 0c	 cmp	 esi, DWORD PTR __Last$[ebp]
  0001c	74 32		 je	 SHORT $LN4@Uninit_mov@2

; 431  : 		_Cons_val(_Al, _Dest, (_Valty &&)*_First);

  0001e	8b 4d 14	 mov	 ecx, DWORD PTR __Al$[ebp]
  00021	56		 push	 esi
  00022	ff 75 10	 push	 DWORD PTR __Dest$[ebp]
  00025	e8 00 00 00 00	 call	 ?construct@?$allocator@UUpDownInfo@ioPrisonWeapon@@@std@@QAEXPAUUpDownInfo@ioPrisonWeapon@@$$QAU34@@Z ; std::allocator<ioPrisonWeapon::UpDownInfo>::construct
  0002a	83 45 10 14	 add	 DWORD PTR __Dest$[ebp], 20 ; 00000014H
  0002e	83 c6 14	 add	 esi, 20			; 00000014H
  00031	eb e6		 jmp	 SHORT $LL6@Uninit_mov@2
__catch$??$_Uninit_move@PAUUpDownInfo@ioPrisonWeapon@@PAU12@V?$allocator@UUpDownInfo@ioPrisonWeapon@@@std@@U12@@std@@YAPAUUpDownInfo@ioPrisonWeapon@@PAU12@00AAV?$allocator@UUpDownInfo@ioPrisonWeapon@@@0@0U_Nonscalar_ptr_iterator_tag@0@@Z$0:

; 432  : 	_CATCH_ALL
; 433  : 	for (; _Next != _Dest; ++_Next)

  00033	8b 75 ec	 mov	 esi, DWORD PTR __Next$[ebp]
  00036	eb 0a		 jmp	 SHORT $LN40@Uninit_mov@2
$LL3@Uninit_mov@2:

; 434  : 		_Dest_val(_Al, _Next);

  00038	8b ce		 mov	 ecx, esi
  0003a	e8 00 00 00 00	 call	 ?_Tidy@?$vector@UUpDownMoveInfo@ioPrisonWeapon@@V?$allocator@UUpDownMoveInfo@ioPrisonWeapon@@@std@@@std@@IAEXXZ ; std::vector<ioPrisonWeapon::UpDownMoveInfo,std::allocator<ioPrisonWeapon::UpDownMoveInfo> >::_Tidy
  0003f	83 c6 14	 add	 esi, 20			; 00000014H
$LN40@Uninit_mov@2:

; 432  : 	_CATCH_ALL
; 433  : 	for (; _Next != _Dest; ++_Next)

  00042	3b 75 10	 cmp	 esi, DWORD PTR __Dest$[ebp]
  00045	75 f1		 jne	 SHORT $LL3@Uninit_mov@2

; 435  : 	_RERAISE;

  00047	6a 00		 push	 0
  00049	6a 00		 push	 0
  0004b	e8 00 00 00 00	 call	 __CxxThrowException@8
$LN41@Uninit_mov@2:
$LN4@Uninit_mov@2:

; 436  : 	_CATCH_END
; 437  : 	return (_Dest);

  00050	8b 45 10	 mov	 eax, DWORD PTR __Dest$[ebp]

; 438  : 	}

  00053	e8 00 00 00 00	 call	 __EH_epilog3
  00058	c3		 ret	 0
$LN39@Uninit_mov@2:
_TEXT	ENDS
;	COMDAT text$x
text$x	SEGMENT
__ehhandler$??$_Uninit_move@PAUUpDownInfo@ioPrisonWeapon@@PAU12@V?$allocator@UUpDownInfo@ioPrisonWeapon@@@std@@U12@@std@@YAPAUUpDownInfo@ioPrisonWeapon@@PAU12@00AAV?$allocator@UUpDownInfo@ioPrisonWeapon@@@0@0U_Nonscalar_ptr_iterator_tag@0@@Z:
  00000	8b 54 24 08	 mov	 edx, DWORD PTR [esp+8]
  00004	8d 42 0c	 lea	 eax, DWORD PTR [edx+12]
  00007	8b 4a e8	 mov	 ecx, DWORD PTR [edx-24]
  0000a	33 c8		 xor	 ecx, eax
  0000c	e8 00 00 00 00	 call	 @__security_check_cookie@4
  00011	b8 00 00 00 00	 mov	 eax, OFFSET __ehfuncinfo$??$_Uninit_move@PAUUpDownInfo@ioPrisonWeapon@@PAU12@V?$allocator@UUpDownInfo@ioPrisonWeapon@@@std@@U12@@std@@YAPAUUpDownInfo@ioPrisonWeapon@@PAU12@00AAV?$allocator@UUpDownInfo@ioPrisonWeapon@@@0@0U_Nonscalar_ptr_iterator_tag@0@@Z
  00016	e9 00 00 00 00	 jmp	 ___CxxFrameHandler3
text$x	ENDS
??$_Uninit_move@PAUUpDownInfo@ioPrisonWeapon@@PAU12@V?$allocator@UUpDownInfo@ioPrisonWeapon@@@std@@U12@@std@@YAPAUUpDownInfo@ioPrisonWeapon@@PAU12@00AAV?$allocator@UUpDownInfo@ioPrisonWeapon@@@0@0U_Nonscalar_ptr_iterator_tag@0@@Z ENDP ; std::_Uninit_move<ioPrisonWeapon::UpDownInfo *,ioPrisonWeapon::UpDownInfo *,std::allocator<ioPrisonWeapon::UpDownInfo>,ioPrisonWeapon::UpDownInfo>
PUBLIC	??$_Destroy_range@V?$allocator@UUpDownInfo@ioPrisonWeapon@@@std@@@std@@YAXPAUUpDownInfo@ioPrisonWeapon@@0AAV?$allocator@UUpDownInfo@ioPrisonWeapon@@@0@@Z ; std::_Destroy_range<std::allocator<ioPrisonWeapon::UpDownInfo> >
; Function compile flags: /Ogsp
; File c:\program files (x86)\microsoft visual studio 10.0\vc\include\xmemory
;	COMDAT ??$_Destroy_range@V?$allocator@UUpDownInfo@ioPrisonWeapon@@@std@@@std@@YAXPAUUpDownInfo@ioPrisonWeapon@@0AAV?$allocator@UUpDownInfo@ioPrisonWeapon@@@0@@Z
_TEXT	SEGMENT
__First$ = 8						; size = 4
__Last$ = 12						; size = 4
__Al$ = 16						; size = 4
??$_Destroy_range@V?$allocator@UUpDownInfo@ioPrisonWeapon@@@std@@@std@@YAXPAUUpDownInfo@ioPrisonWeapon@@0AAV?$allocator@UUpDownInfo@ioPrisonWeapon@@@0@@Z PROC ; std::_Destroy_range<std::allocator<ioPrisonWeapon::UpDownInfo> >, COMDAT

; 87   : 	{	// destroy [_First, _Last)

  00000	55		 push	 ebp
  00001	8b ec		 mov	 ebp, esp
  00003	56		 push	 esi

; 88   : 	_Destroy_range(_First, _Last, _Al, _Ptr_cat(_First, _Last));

  00004	8b 75 08	 mov	 esi, DWORD PTR __First$[ebp]
  00007	eb 0a		 jmp	 SHORT $LN28@Destroy_ra@2
$LL7@Destroy_ra@2:
  00009	8b ce		 mov	 ecx, esi
  0000b	e8 00 00 00 00	 call	 ?_Tidy@?$vector@UUpDownMoveInfo@ioPrisonWeapon@@V?$allocator@UUpDownMoveInfo@ioPrisonWeapon@@@std@@@std@@IAEXXZ ; std::vector<ioPrisonWeapon::UpDownMoveInfo,std::allocator<ioPrisonWeapon::UpDownMoveInfo> >::_Tidy
  00010	83 c6 14	 add	 esi, 20			; 00000014H
$LN28@Destroy_ra@2:
  00013	3b 75 0c	 cmp	 esi, DWORD PTR __Last$[ebp]
  00016	75 f1		 jne	 SHORT $LL7@Destroy_ra@2
  00018	5e		 pop	 esi

; 89   : 	}

  00019	5d		 pop	 ebp
  0001a	c3		 ret	 0
??$_Destroy_range@V?$allocator@UUpDownInfo@ioPrisonWeapon@@@std@@@std@@YAXPAUUpDownInfo@ioPrisonWeapon@@0AAV?$allocator@UUpDownInfo@ioPrisonWeapon@@@0@@Z ENDP ; std::_Destroy_range<std::allocator<ioPrisonWeapon::UpDownInfo> >
_TEXT	ENDS
PUBLIC	??$_Uninitialized_move@PAUUpDownInfo@ioPrisonWeapon@@PAU12@V?$allocator@UUpDownInfo@ioPrisonWeapon@@@std@@@std@@YAPAUUpDownInfo@ioPrisonWeapon@@PAU12@00AAV?$allocator@UUpDownInfo@ioPrisonWeapon@@@0@@Z ; std::_Uninitialized_move<ioPrisonWeapon::UpDownInfo *,ioPrisonWeapon::UpDownInfo *,std::allocator<ioPrisonWeapon::UpDownInfo> >
; Function compile flags: /Ogsp
; File c:\program files (x86)\microsoft visual studio 10.0\vc\include\memory
;	COMDAT ??$_Uninitialized_move@PAUUpDownInfo@ioPrisonWeapon@@PAU12@V?$allocator@UUpDownInfo@ioPrisonWeapon@@@std@@@std@@YAPAUUpDownInfo@ioPrisonWeapon@@PAU12@00AAV?$allocator@UUpDownInfo@ioPrisonWeapon@@@0@@Z
_TEXT	SEGMENT
__Cat$541000 = -4					; size = 1
__First$ = 8						; size = 4
__Last$ = 12						; size = 4
__Dest$ = 16						; size = 4
__Al$ = 20						; size = 4
??$_Uninitialized_move@PAUUpDownInfo@ioPrisonWeapon@@PAU12@V?$allocator@UUpDownInfo@ioPrisonWeapon@@@std@@@std@@YAPAUUpDownInfo@ioPrisonWeapon@@PAU12@00AAV?$allocator@UUpDownInfo@ioPrisonWeapon@@@0@@Z PROC ; std::_Uninitialized_move<ioPrisonWeapon::UpDownInfo *,ioPrisonWeapon::UpDownInfo *,std::allocator<ioPrisonWeapon::UpDownInfo> >, COMDAT

; 469  : 	{	// move [_First, _Last) to raw _Dest, using _Al

  00000	55		 push	 ebp
  00001	8b ec		 mov	 ebp, esp
  00003	51		 push	 ecx

; 470  : 	return (_Uninit_move(_First, _Last, _Dest, _Al,
; 471  : 		_Val_type(_First), _Ptr_cat(_First, _Dest)));

  00004	ff 75 fc	 push	 DWORD PTR __Cat$541000[ebp]
  00007	6a 00		 push	 0
  00009	ff 75 14	 push	 DWORD PTR __Al$[ebp]
  0000c	ff 75 10	 push	 DWORD PTR __Dest$[ebp]
  0000f	ff 75 0c	 push	 DWORD PTR __Last$[ebp]
  00012	ff 75 08	 push	 DWORD PTR __First$[ebp]
  00015	e8 00 00 00 00	 call	 ??$_Uninit_move@PAUUpDownInfo@ioPrisonWeapon@@PAU12@V?$allocator@UUpDownInfo@ioPrisonWeapon@@@std@@U12@@std@@YAPAUUpDownInfo@ioPrisonWeapon@@PAU12@00AAV?$allocator@UUpDownInfo@ioPrisonWeapon@@@0@0U_Nonscalar_ptr_iterator_tag@0@@Z ; std::_Uninit_move<ioPrisonWeapon::UpDownInfo *,ioPrisonWeapon::UpDownInfo *,std::allocator<ioPrisonWeapon::UpDownInfo>,ioPrisonWeapon::UpDownInfo>
  0001a	83 c4 18	 add	 esp, 24			; 00000018H

; 472  : 	}

  0001d	c9		 leave
  0001e	c3		 ret	 0
??$_Uninitialized_move@PAUUpDownInfo@ioPrisonWeapon@@PAU12@V?$allocator@UUpDownInfo@ioPrisonWeapon@@@std@@@std@@YAPAUUpDownInfo@ioPrisonWeapon@@PAU12@00AAV?$allocator@UUpDownInfo@ioPrisonWeapon@@@0@@Z ENDP ; std::_Uninitialized_move<ioPrisonWeapon::UpDownInfo *,ioPrisonWeapon::UpDownInfo *,std::allocator<ioPrisonWeapon::UpDownInfo> >
_TEXT	ENDS
PUBLIC	?_Destroy@?$vector@UUpDownInfo@ioPrisonWeapon@@V?$allocator@UUpDownInfo@ioPrisonWeapon@@@std@@@std@@IAEXPAUUpDownInfo@ioPrisonWeapon@@0@Z ; std::vector<ioPrisonWeapon::UpDownInfo,std::allocator<ioPrisonWeapon::UpDownInfo> >::_Destroy
; Function compile flags: /Ogsp
; File c:\program files (x86)\microsoft visual studio 10.0\vc\include\vector
;	COMDAT ?_Destroy@?$vector@UUpDownInfo@ioPrisonWeapon@@V?$allocator@UUpDownInfo@ioPrisonWeapon@@@std@@@std@@IAEXPAUUpDownInfo@ioPrisonWeapon@@0@Z
_TEXT	SEGMENT
__First$ = 8						; size = 4
__Last$ = 12						; size = 4
?_Destroy@?$vector@UUpDownInfo@ioPrisonWeapon@@V?$allocator@UUpDownInfo@ioPrisonWeapon@@@std@@@std@@IAEXPAUUpDownInfo@ioPrisonWeapon@@0@Z PROC ; std::vector<ioPrisonWeapon::UpDownInfo,std::allocator<ioPrisonWeapon::UpDownInfo> >::_Destroy, COMDAT
; _this$ = ecx

; 1269 : 		{	// destroy [_First, _Last) using allocator

  00000	55		 push	 ebp
  00001	8b ec		 mov	 ebp, esp
  00003	56		 push	 esi

; 1270 : 		_Destroy_range(_First, _Last, this->_Alval);

  00004	8b 75 08	 mov	 esi, DWORD PTR __First$[ebp]
  00007	eb 0a		 jmp	 SHORT $LN30@Destroy
$LL9@Destroy:
  00009	8b ce		 mov	 ecx, esi
  0000b	e8 00 00 00 00	 call	 ?_Tidy@?$vector@UUpDownMoveInfo@ioPrisonWeapon@@V?$allocator@UUpDownMoveInfo@ioPrisonWeapon@@@std@@@std@@IAEXXZ ; std::vector<ioPrisonWeapon::UpDownMoveInfo,std::allocator<ioPrisonWeapon::UpDownMoveInfo> >::_Tidy
  00010	83 c6 14	 add	 esi, 20			; 00000014H
$LN30@Destroy:
  00013	3b 75 0c	 cmp	 esi, DWORD PTR __Last$[ebp]
  00016	75 f1		 jne	 SHORT $LL9@Destroy
  00018	5e		 pop	 esi

; 1271 : 		}

  00019	5d		 pop	 ebp
  0001a	c2 08 00	 ret	 8
?_Destroy@?$vector@UUpDownInfo@ioPrisonWeapon@@V?$allocator@UUpDownInfo@ioPrisonWeapon@@@std@@@std@@IAEXPAUUpDownInfo@ioPrisonWeapon@@0@Z ENDP ; std::vector<ioPrisonWeapon::UpDownInfo,std::allocator<ioPrisonWeapon::UpDownInfo> >::_Destroy
_TEXT	ENDS
PUBLIC	??$_Umove@PAUUpDownInfo@ioPrisonWeapon@@@?$vector@UUpDownInfo@ioPrisonWeapon@@V?$allocator@UUpDownInfo@ioPrisonWeapon@@@std@@@std@@IAEPAUUpDownInfo@ioPrisonWeapon@@PAU23@00@Z ; std::vector<ioPrisonWeapon::UpDownInfo,std::allocator<ioPrisonWeapon::UpDownInfo> >::_Umove<ioPrisonWeapon::UpDownInfo *>
; Function compile flags: /Ogsp
;	COMDAT ??$_Umove@PAUUpDownInfo@ioPrisonWeapon@@@?$vector@UUpDownInfo@ioPrisonWeapon@@V?$allocator@UUpDownInfo@ioPrisonWeapon@@@std@@@std@@IAEPAUUpDownInfo@ioPrisonWeapon@@PAU23@00@Z
_TEXT	SEGMENT
__First$ = 8						; size = 4
__Last$ = 12						; size = 4
__Ptr$ = 16						; size = 4
??$_Umove@PAUUpDownInfo@ioPrisonWeapon@@@?$vector@UUpDownInfo@ioPrisonWeapon@@V?$allocator@UUpDownInfo@ioPrisonWeapon@@@std@@@std@@IAEPAUUpDownInfo@ioPrisonWeapon@@PAU23@00@Z PROC ; std::vector<ioPrisonWeapon::UpDownInfo,std::allocator<ioPrisonWeapon::UpDownInfo> >::_Umove<ioPrisonWeapon::UpDownInfo *>, COMDAT
; _this$ = ecx

; 1322 : 		pointer _Umove(_Iter _First, _Iter _Last, pointer _Ptr)

  00000	55		 push	 ebp
  00001	8b ec		 mov	 ebp, esp

; 1323 : 		{	// move initializing [_First, _Last), using allocator
; 1324 : 		return (_Uninitialized_move(_First, _Last,
; 1325 : 			_Ptr, this->_Alval));

  00003	83 c1 0c	 add	 ecx, 12			; 0000000cH
  00006	51		 push	 ecx
  00007	ff 75 10	 push	 DWORD PTR __Ptr$[ebp]
  0000a	ff 75 0c	 push	 DWORD PTR __Last$[ebp]
  0000d	ff 75 08	 push	 DWORD PTR __First$[ebp]
  00010	e8 00 00 00 00	 call	 ??$_Uninitialized_move@PAUUpDownInfo@ioPrisonWeapon@@PAU12@V?$allocator@UUpDownInfo@ioPrisonWeapon@@@std@@@std@@YAPAUUpDownInfo@ioPrisonWeapon@@PAU12@00AAV?$allocator@UUpDownInfo@ioPrisonWeapon@@@0@@Z ; std::_Uninitialized_move<ioPrisonWeapon::UpDownInfo *,ioPrisonWeapon::UpDownInfo *,std::allocator<ioPrisonWeapon::UpDownInfo> >
  00015	83 c4 10	 add	 esp, 16			; 00000010H

; 1326 : 		}

  00018	5d		 pop	 ebp
  00019	c2 0c 00	 ret	 12			; 0000000cH
??$_Umove@PAUUpDownInfo@ioPrisonWeapon@@@?$vector@UUpDownInfo@ioPrisonWeapon@@V?$allocator@UUpDownInfo@ioPrisonWeapon@@@std@@@std@@IAEPAUUpDownInfo@ioPrisonWeapon@@PAU23@00@Z ENDP ; std::vector<ioPrisonWeapon::UpDownInfo,std::allocator<ioPrisonWeapon::UpDownInfo> >::_Umove<ioPrisonWeapon::UpDownInfo *>
_TEXT	ENDS
PUBLIC	?erase@?$vector@UUpDownInfo@ioPrisonWeapon@@V?$allocator@UUpDownInfo@ioPrisonWeapon@@@std@@@std@@QAE?AV?$_Vector_iterator@V?$_Vector_val@UUpDownInfo@ioPrisonWeapon@@V?$allocator@UUpDownInfo@ioPrisonWeapon@@@std@@@std@@@2@V?$_Vector_const_iterator@V?$_Vector_val@UUpDownInfo@ioPrisonWeapon@@V?$allocator@UUpDownInfo@ioPrisonWeapon@@@std@@@std@@@2@0@Z ; std::vector<ioPrisonWeapon::UpDownInfo,std::allocator<ioPrisonWeapon::UpDownInfo> >::erase
; Function compile flags: /Ogsp
;	COMDAT ?erase@?$vector@UUpDownInfo@ioPrisonWeapon@@V?$allocator@UUpDownInfo@ioPrisonWeapon@@@std@@@std@@QAE?AV?$_Vector_iterator@V?$_Vector_val@UUpDownInfo@ioPrisonWeapon@@V?$allocator@UUpDownInfo@ioPrisonWeapon@@@std@@@std@@@2@V?$_Vector_const_iterator@V?$_Vector_val@UUpDownInfo@ioPrisonWeapon@@V?$allocator@UUpDownInfo@ioPrisonWeapon@@@std@@@std@@@2@0@Z
_TEXT	SEGMENT
$T541309 = -4						; size = 4
___$ReturnUdt$ = 8					; size = 4
__First_arg$ = 12					; size = 4
__Cat$541209 = 16					; size = 1
__Last_arg$ = 16					; size = 4
?erase@?$vector@UUpDownInfo@ioPrisonWeapon@@V?$allocator@UUpDownInfo@ioPrisonWeapon@@@std@@@std@@QAE?AV?$_Vector_iterator@V?$_Vector_val@UUpDownInfo@ioPrisonWeapon@@V?$allocator@UUpDownInfo@ioPrisonWeapon@@@std@@@std@@@2@V?$_Vector_const_iterator@V?$_Vector_val@UUpDownInfo@ioPrisonWeapon@@V?$allocator@UUpDownInfo@ioPrisonWeapon@@@std@@@std@@@2@0@Z PROC ; std::vector<ioPrisonWeapon::UpDownInfo,std::allocator<ioPrisonWeapon::UpDownInfo> >::erase, COMDAT
; _this$ = ecx

; 1190 : 		{	// erase [_First, _Last)

  00000	55		 push	 ebp
  00001	8b ec		 mov	 ebp, esp
  00003	51		 push	 ecx

; 1191 : 		iterator _First = _Make_iter(_First_arg);

  00004	8b 45 08	 mov	 eax, DWORD PTR ___$ReturnUdt$[ebp]
  00007	56		 push	 esi
  00008	8b f1		 mov	 esi, ecx
  0000a	8b 4d 0c	 mov	 ecx, DWORD PTR __First_arg$[ebp]
  0000d	89 08		 mov	 DWORD PTR [eax], ecx

; 1192 : 		iterator _Last = _Make_iter(_Last_arg);
; 1193 : 
; 1194 : 		if (_First != _Last)

  0000f	3b 4d 10	 cmp	 ecx, DWORD PTR __Last_arg$[ebp]
  00012	74 37		 je	 SHORT $LN1@erase@2

; 1195 : 			{	// worth doing, copy down over hole
; 1196 :  #if _ITERATOR_DEBUG_LEVEL == 2
; 1197 : 			if (_Last < _First || _VICONT(_First) != this
; 1198 : 				|| _VIPTR(_First) < this->_Myfirst
; 1199 : 				|| this->_Mylast < _VIPTR(_Last))
; 1200 : 				_DEBUG_ERROR("vector erase iterator outside range");
; 1201 : 			pointer _Ptr = _Move(_VIPTR(_Last), this->_Mylast,
; 1202 : 				_VIPTR(_First));
; 1203 : 			_Orphan_range(_VIPTR(_First), this->_Mylast);
; 1204 : 
; 1205 :  #else /* _ITERATOR_DEBUG_LEVEL == 2 */
; 1206 : 			pointer _Ptr = _Move(_VIPTR(_Last), this->_Mylast,
; 1207 : 				_VIPTR(_First));

  00014	8b 46 04	 mov	 eax, DWORD PTR [esi+4]
  00017	53		 push	 ebx
  00018	57		 push	 edi
  00019	ff 75 10	 push	 DWORD PTR __Cat$541209[ebp]
  0001c	51		 push	 ecx
  0001d	50		 push	 eax
  0001e	ff 75 10	 push	 DWORD PTR __Last_arg$[ebp]
  00021	e8 00 00 00 00	 call	 ??$_Move@PAUUpDownInfo@ioPrisonWeapon@@PAU12@@std@@YAPAUUpDownInfo@ioPrisonWeapon@@PAU12@00U_Nonscalar_ptr_iterator_tag@0@@Z ; std::_Move<ioPrisonWeapon::UpDownInfo *,ioPrisonWeapon::UpDownInfo *>

; 1208 :  #endif /* _ITERATOR_DEBUG_LEVEL == 2 */
; 1209 : 
; 1210 : 			_Destroy(_Ptr, this->_Mylast);

  00026	8b 7e 04	 mov	 edi, DWORD PTR [esi+4]
  00029	8b d8		 mov	 ebx, eax
  0002b	83 c4 10	 add	 esp, 16			; 00000010H
  0002e	89 5d fc	 mov	 DWORD PTR $T541309[ebp], ebx
  00031	3b df		 cmp	 ebx, edi
  00033	74 11		 je	 SHORT $LN36@erase@2
$LL59@erase@2:
  00035	8b 4d fc	 mov	 ecx, DWORD PTR $T541309[ebp]
  00038	e8 00 00 00 00	 call	 ?_Tidy@?$vector@UUpDownMoveInfo@ioPrisonWeapon@@V?$allocator@UUpDownMoveInfo@ioPrisonWeapon@@@std@@@std@@IAEXXZ ; std::vector<ioPrisonWeapon::UpDownMoveInfo,std::allocator<ioPrisonWeapon::UpDownMoveInfo> >::_Tidy
  0003d	83 45 fc 14	 add	 DWORD PTR $T541309[ebp], 20 ; 00000014H
  00041	39 7d fc	 cmp	 DWORD PTR $T541309[ebp], edi
  00044	75 ef		 jne	 SHORT $LL59@erase@2
$LN36@erase@2:

; 1211 : 			this->_Mylast = _Ptr;

  00046	5f		 pop	 edi
  00047	89 5e 04	 mov	 DWORD PTR [esi+4], ebx
  0004a	5b		 pop	 ebx
$LN1@erase@2:

; 1212 : 			}
; 1213 : 		return (_First);

  0004b	8b 45 08	 mov	 eax, DWORD PTR ___$ReturnUdt$[ebp]
  0004e	5e		 pop	 esi

; 1214 : 		}

  0004f	c9		 leave
  00050	c2 0c 00	 ret	 12			; 0000000cH
?erase@?$vector@UUpDownInfo@ioPrisonWeapon@@V?$allocator@UUpDownInfo@ioPrisonWeapon@@@std@@@std@@QAE?AV?$_Vector_iterator@V?$_Vector_val@UUpDownInfo@ioPrisonWeapon@@V?$allocator@UUpDownInfo@ioPrisonWeapon@@@std@@@std@@@2@V?$_Vector_const_iterator@V?$_Vector_val@UUpDownInfo@ioPrisonWeapon@@V?$allocator@UUpDownInfo@ioPrisonWeapon@@@std@@@std@@@2@0@Z ENDP ; std::vector<ioPrisonWeapon::UpDownInfo,std::allocator<ioPrisonWeapon::UpDownInfo> >::erase
_TEXT	ENDS
PUBLIC	?_Tidy@?$vector@UUpDownInfo@ioPrisonWeapon@@V?$allocator@UUpDownInfo@ioPrisonWeapon@@@std@@@std@@IAEXXZ ; std::vector<ioPrisonWeapon::UpDownInfo,std::allocator<ioPrisonWeapon::UpDownInfo> >::_Tidy
; Function compile flags: /Ogsp
;	COMDAT ?_Tidy@?$vector@UUpDownInfo@ioPrisonWeapon@@V?$allocator@UUpDownInfo@ioPrisonWeapon@@@std@@@std@@IAEXXZ
_TEXT	SEGMENT
?_Tidy@?$vector@UUpDownInfo@ioPrisonWeapon@@V?$allocator@UUpDownInfo@ioPrisonWeapon@@@std@@@std@@IAEXXZ PROC ; std::vector<ioPrisonWeapon::UpDownInfo,std::allocator<ioPrisonWeapon::UpDownInfo> >::_Tidy, COMDAT
; _this$ = ecx

; 1301 : 		{	// free all storage

  00000	56		 push	 esi
  00001	8b f1		 mov	 esi, ecx

; 1302 : 		if (this->_Myfirst != 0)

  00003	83 3e 00	 cmp	 DWORD PTR [esi], 0
  00006	74 27		 je	 SHORT $LN31@Tidy@2

; 1303 : 			{	// something to free, destroy and deallocate it
; 1304 : 			this->_Orphan_all();

  00008	53		 push	 ebx
  00009	57		 push	 edi
  0000a	ff 15 00 00 00
	00		 call	 DWORD PTR __imp_?_Orphan_all@_Container_base0@std@@QAEXXZ

; 1305 : 			_Destroy(this->_Myfirst, this->_Mylast);

  00010	8b 5e 04	 mov	 ebx, DWORD PTR [esi+4]
  00013	8b 3e		 mov	 edi, DWORD PTR [esi]
  00015	eb 0a		 jmp	 SHORT $LN35@Tidy@2
$LL12@Tidy@2:
  00017	8b cf		 mov	 ecx, edi
  00019	e8 00 00 00 00	 call	 ?_Tidy@?$vector@UUpDownMoveInfo@ioPrisonWeapon@@V?$allocator@UUpDownMoveInfo@ioPrisonWeapon@@@std@@@std@@IAEXXZ ; std::vector<ioPrisonWeapon::UpDownMoveInfo,std::allocator<ioPrisonWeapon::UpDownMoveInfo> >::_Tidy
  0001e	83 c7 14	 add	 edi, 20			; 00000014H
$LN35@Tidy@2:
  00021	3b fb		 cmp	 edi, ebx
  00023	75 f2		 jne	 SHORT $LL12@Tidy@2

; 1306 : 			this->_Alval.deallocate(this->_Myfirst,
; 1307 : 				this->_Myend - this->_Myfirst);

  00025	ff 36		 push	 DWORD PTR [esi]
  00027	e8 00 00 00 00	 call	 ??3@YAXPAX@Z		; operator delete
  0002c	59		 pop	 ecx
  0002d	5f		 pop	 edi
  0002e	5b		 pop	 ebx
$LN31@Tidy@2:

; 1308 : 			}
; 1309 : 		this->_Myfirst = 0;

  0002f	33 c0		 xor	 eax, eax
  00031	89 06		 mov	 DWORD PTR [esi], eax

; 1310 : 		this->_Mylast = 0;

  00033	89 46 04	 mov	 DWORD PTR [esi+4], eax

; 1311 : 		this->_Myend = 0;

  00036	89 46 08	 mov	 DWORD PTR [esi+8], eax
  00039	5e		 pop	 esi

; 1312 : 		}

  0003a	c3		 ret	 0
?_Tidy@?$vector@UUpDownInfo@ioPrisonWeapon@@V?$allocator@UUpDownInfo@ioPrisonWeapon@@@std@@@std@@IAEXXZ ENDP ; std::vector<ioPrisonWeapon::UpDownInfo,std::allocator<ioPrisonWeapon::UpDownInfo> >::_Tidy
_TEXT	ENDS
PUBLIC	?reserve@?$vector@UUpDownInfo@ioPrisonWeapon@@V?$allocator@UUpDownInfo@ioPrisonWeapon@@@std@@@std@@QAEXI@Z ; std::vector<ioPrisonWeapon::UpDownInfo,std::allocator<ioPrisonWeapon::UpDownInfo> >::reserve
;	COMDAT xdata$x
; File c:\program files (x86)\microsoft visual studio 10.0\vc\include\xmemory
xdata$x	SEGMENT
__catchsym$?reserve@?$vector@UUpDownInfo@ioPrisonWeapon@@V?$allocator@UUpDownInfo@ioPrisonWeapon@@@std@@@std@@QAEXI@Z$3 DD 040H
	DD	00H
	DD	00H
	DD	FLAT:__catch$?reserve@?$vector@UUpDownInfo@ioPrisonWeapon@@V?$allocator@UUpDownInfo@ioPrisonWeapon@@@std@@@std@@QAEXI@Z$0
__unwindtable$?reserve@?$vector@UUpDownInfo@ioPrisonWeapon@@V?$allocator@UUpDownInfo@ioPrisonWeapon@@@std@@@std@@QAEXI@Z DD 0ffffffffH
	DD	00H
	DD	0ffffffffH
	DD	00H
__tryblocktable$?reserve@?$vector@UUpDownInfo@ioPrisonWeapon@@V?$allocator@UUpDownInfo@ioPrisonWeapon@@@std@@@std@@QAEXI@Z DD 00H
	DD	00H
	DD	01H
	DD	01H
	DD	FLAT:__catchsym$?reserve@?$vector@UUpDownInfo@ioPrisonWeapon@@V?$allocator@UUpDownInfo@ioPrisonWeapon@@@std@@@std@@QAEXI@Z$3
__ehfuncinfo$?reserve@?$vector@UUpDownInfo@ioPrisonWeapon@@V?$allocator@UUpDownInfo@ioPrisonWeapon@@@std@@@std@@QAEXI@Z DD 019930522H
	DD	02H
	DD	FLAT:__unwindtable$?reserve@?$vector@UUpDownInfo@ioPrisonWeapon@@V?$allocator@UUpDownInfo@ioPrisonWeapon@@@std@@@std@@QAEXI@Z
	DD	01H
	DD	FLAT:__tryblocktable$?reserve@?$vector@UUpDownInfo@ioPrisonWeapon@@V?$allocator@UUpDownInfo@ioPrisonWeapon@@@std@@@std@@QAEXI@Z
	DD	2 DUP(00H)
	DD	00H
	DD	01H
; Function compile flags: /Ogsp
; File c:\program files (x86)\microsoft visual studio 10.0\vc\include\vector
xdata$x	ENDS
;	COMDAT ?reserve@?$vector@UUpDownInfo@ioPrisonWeapon@@V?$allocator@UUpDownInfo@ioPrisonWeapon@@@std@@@std@@QAEXI@Z
_TEXT	SEGMENT
__Ptr$533024 = -24					; size = 4
$T541671 = -20						; size = 4
__$EHRec$ = -16						; size = 16
__Count$ = 8						; size = 4
?reserve@?$vector@UUpDownInfo@ioPrisonWeapon@@V?$allocator@UUpDownInfo@ioPrisonWeapon@@@std@@@std@@QAEXI@Z PROC ; std::vector<ioPrisonWeapon::UpDownInfo,std::allocator<ioPrisonWeapon::UpDownInfo> >::reserve, COMDAT
; _this$ = ecx

; 746  : 		{	// determine new minimum length of allocated storage

  00000	6a 0c		 push	 12			; 0000000cH
  00002	b8 00 00 00 00	 mov	 eax, __ehhandler$?reserve@?$vector@UUpDownInfo@ioPrisonWeapon@@V?$allocator@UUpDownInfo@ioPrisonWeapon@@@std@@@std@@QAEXI@Z
  00007	e8 00 00 00 00	 call	 __EH_prolog3_catch
  0000c	8b f1		 mov	 esi, ecx

; 747  : 		if (max_size() < _Count)

  0000e	81 7d 08 cc cc
	cc 0c		 cmp	 DWORD PTR __Count$[ebp], 214748364 ; 0cccccccH
  00015	76 0b		 jbe	 SHORT $LN5@reserve@2

; 748  : 			_Xlen();	// result too long

  00017	68 00 00 00 00	 push	 OFFSET ??_C@_0BD@OLBABOEK@vector?$DMT?$DO?5too?5long?$AA@
  0001c	ff 15 00 00 00
	00		 call	 DWORD PTR __imp_?_Xlength_error@std@@YAXPBD@Z
$LN66@reserve@2:
$LN5@reserve@2:

; 749  : 		else if (capacity() < _Count)

  00022	8b 46 08	 mov	 eax, DWORD PTR [esi+8]
  00025	2b 06		 sub	 eax, DWORD PTR [esi]
  00027	6a 14		 push	 20			; 00000014H
  00029	99		 cdq
  0002a	59		 pop	 ecx
  0002b	f7 f9		 idiv	 ecx
  0002d	3b 45 08	 cmp	 eax, DWORD PTR __Count$[ebp]
  00030	0f 83 80 00 00
	00		 jae	 $LN3@reserve@2

; 750  : 			{	// not enough room, reallocate
; 751  : 			pointer _Ptr = this->_Alval.allocate(_Count);

  00036	6a 00		 push	 0
  00038	ff 75 08	 push	 DWORD PTR __Count$[ebp]
  0003b	e8 00 00 00 00	 call	 ??$_Allocate@UUpDownInfo@ioPrisonWeapon@@@std@@YAPAUUpDownInfo@ioPrisonWeapon@@IPAU12@@Z ; std::_Allocate<ioPrisonWeapon::UpDownInfo>

; 752  : 
; 753  : 			_TRY_BEGIN
; 754  : 			_Umove(this->_Myfirst, this->_Mylast, _Ptr);

  00040	8b 0e		 mov	 ecx, DWORD PTR [esi]
  00042	83 65 fc 00	 and	 DWORD PTR __$EHRec$[ebp+12], 0
  00046	8d 56 0c	 lea	 edx, DWORD PTR [esi+12]
  00049	52		 push	 edx
  0004a	89 45 e8	 mov	 DWORD PTR __Ptr$533024[ebp], eax
  0004d	ff 75 e8	 push	 DWORD PTR __Ptr$533024[ebp]
  00050	8b 46 04	 mov	 eax, DWORD PTR [esi+4]
  00053	50		 push	 eax
  00054	51		 push	 ecx
  00055	e8 00 00 00 00	 call	 ??$_Uninitialized_move@PAUUpDownInfo@ioPrisonWeapon@@PAU12@V?$allocator@UUpDownInfo@ioPrisonWeapon@@@std@@@std@@YAPAUUpDownInfo@ioPrisonWeapon@@PAU12@00AAV?$allocator@UUpDownInfo@ioPrisonWeapon@@@0@@Z ; std::_Uninitialized_move<ioPrisonWeapon::UpDownInfo *,ioPrisonWeapon::UpDownInfo *,std::allocator<ioPrisonWeapon::UpDownInfo> >

; 758  : 			_CATCH_END
; 759  : 
; 760  : 			size_type _Size = size();

  0005a	8b 5e 04	 mov	 ebx, DWORD PTR [esi+4]
  0005d	8b 0e		 mov	 ecx, DWORD PTR [esi]
  0005f	83 c4 18	 add	 esp, 24			; 00000018H
  00062	8b c3		 mov	 eax, ebx
  00064	2b c1		 sub	 eax, ecx
  00066	6a 14		 push	 20			; 00000014H
  00068	99		 cdq
  00069	5f		 pop	 edi
  0006a	f7 ff		 idiv	 edi
  0006c	83 4d fc ff	 or	 DWORD PTR __$EHRec$[ebp+12], -1
  00070	8b f8		 mov	 edi, eax
  00072	85 c9		 test	 ecx, ecx
  00074	74 20		 je	 SHORT $LN58@reserve@2

; 761  : 			if (this->_Myfirst != 0)
; 762  : 				{	// destroy and deallocate old array
; 763  : 				_Destroy(this->_Myfirst, this->_Mylast);

  00076	89 4d ec	 mov	 DWORD PTR $T541671[ebp], ecx
  00079	3b cb		 cmp	 ecx, ebx
  0007b	74 11		 je	 SHORT $LN37@reserve@2
$LN39@reserve@2:
  0007d	8b 4d ec	 mov	 ecx, DWORD PTR $T541671[ebp]
  00080	e8 00 00 00 00	 call	 ?_Tidy@?$vector@UUpDownMoveInfo@ioPrisonWeapon@@V?$allocator@UUpDownMoveInfo@ioPrisonWeapon@@@std@@@std@@IAEXXZ ; std::vector<ioPrisonWeapon::UpDownMoveInfo,std::allocator<ioPrisonWeapon::UpDownMoveInfo> >::_Tidy
  00085	83 45 ec 14	 add	 DWORD PTR $T541671[ebp], 20 ; 00000014H
  00089	39 5d ec	 cmp	 DWORD PTR $T541671[ebp], ebx
  0008c	75 ef		 jne	 SHORT $LN39@reserve@2
$LN37@reserve@2:

; 764  : 				this->_Alval.deallocate(this->_Myfirst,
; 765  : 					this->_Myend - this->_Myfirst);

  0008e	ff 36		 push	 DWORD PTR [esi]
  00090	e8 00 00 00 00	 call	 ??3@YAXPAX@Z		; operator delete
  00095	59		 pop	 ecx
$LN58@reserve@2:

; 766  : 				}
; 767  : 
; 768  : 			this->_Orphan_all();

  00096	8b ce		 mov	 ecx, esi
  00098	ff 15 00 00 00
	00		 call	 DWORD PTR __imp_?_Orphan_all@_Container_base0@std@@QAEXXZ

; 769  : 			this->_Myend = _Ptr + _Count;
; 770  : 			this->_Mylast = _Ptr + _Size;

  0009e	6b ff 14	 imul	 edi, 20			; 00000014H
  000a1	8b 45 08	 mov	 eax, DWORD PTR __Count$[ebp]
  000a4	8b 4d e8	 mov	 ecx, DWORD PTR __Ptr$533024[ebp]
  000a7	6b c0 14	 imul	 eax, 20			; 00000014H
  000aa	03 c1		 add	 eax, ecx
  000ac	03 f9		 add	 edi, ecx
  000ae	89 46 08	 mov	 DWORD PTR [esi+8], eax
  000b1	89 7e 04	 mov	 DWORD PTR [esi+4], edi

; 771  : 			this->_Myfirst = _Ptr;

  000b4	89 0e		 mov	 DWORD PTR [esi], ecx
$LN3@reserve@2:

; 772  : 			}
; 773  : 		}

  000b6	e8 00 00 00 00	 call	 __EH_epilog3
  000bb	c2 04 00	 ret	 4
__catch$?reserve@?$vector@UUpDownInfo@ioPrisonWeapon@@V?$allocator@UUpDownInfo@ioPrisonWeapon@@@std@@@std@@QAEXI@Z$0:

; 755  : 			_CATCH_ALL
; 756  : 			this->_Alval.deallocate(_Ptr, _Count);

  000be	ff 75 e8	 push	 DWORD PTR __Ptr$533024[ebp]
  000c1	e8 00 00 00 00	 call	 ??3@YAXPAX@Z		; operator delete
  000c6	59		 pop	 ecx

; 757  : 			_RERAISE;

  000c7	6a 00		 push	 0
  000c9	6a 00		 push	 0
  000cb	e8 00 00 00 00	 call	 __CxxThrowException@8
$LN67@reserve@2:
$LN65@reserve@2:
  000d0	cc		 int	 3
_TEXT	ENDS
;	COMDAT text$x
text$x	SEGMENT
__ehhandler$?reserve@?$vector@UUpDownInfo@ioPrisonWeapon@@V?$allocator@UUpDownInfo@ioPrisonWeapon@@@std@@@std@@QAEXI@Z:
  00000	8b 54 24 08	 mov	 edx, DWORD PTR [esp+8]
  00004	8d 42 0c	 lea	 eax, DWORD PTR [edx+12]
  00007	8b 4a e4	 mov	 ecx, DWORD PTR [edx-28]
  0000a	33 c8		 xor	 ecx, eax
  0000c	e8 00 00 00 00	 call	 @__security_check_cookie@4
  00011	b8 00 00 00 00	 mov	 eax, OFFSET __ehfuncinfo$?reserve@?$vector@UUpDownInfo@ioPrisonWeapon@@V?$allocator@UUpDownInfo@ioPrisonWeapon@@@std@@@std@@QAEXI@Z
  00016	e9 00 00 00 00	 jmp	 ___CxxFrameHandler3
text$x	ENDS
?reserve@?$vector@UUpDownInfo@ioPrisonWeapon@@V?$allocator@UUpDownInfo@ioPrisonWeapon@@@std@@@std@@QAEXI@Z ENDP ; std::vector<ioPrisonWeapon::UpDownInfo,std::allocator<ioPrisonWeapon::UpDownInfo> >::reserve
PUBLIC	??1?$vector@UUpDownInfo@ioPrisonWeapon@@V?$allocator@UUpDownInfo@ioPrisonWeapon@@@std@@@std@@QAE@XZ ; std::vector<ioPrisonWeapon::UpDownInfo,std::allocator<ioPrisonWeapon::UpDownInfo> >::~vector<ioPrisonWeapon::UpDownInfo,std::allocator<ioPrisonWeapon::UpDownInfo> >
; Function compile flags: /Ogsp
;	COMDAT ??1?$vector@UUpDownInfo@ioPrisonWeapon@@V?$allocator@UUpDownInfo@ioPrisonWeapon@@@std@@@std@@QAE@XZ
_TEXT	SEGMENT
??1?$vector@UUpDownInfo@ioPrisonWeapon@@V?$allocator@UUpDownInfo@ioPrisonWeapon@@@std@@@std@@QAE@XZ PROC ; std::vector<ioPrisonWeapon::UpDownInfo,std::allocator<ioPrisonWeapon::UpDownInfo> >::~vector<ioPrisonWeapon::UpDownInfo,std::allocator<ioPrisonWeapon::UpDownInfo> >, COMDAT
; _this$ = ecx

; 705  : 		_Tidy();

  00000	e9 00 00 00 00	 jmp	 ?_Tidy@?$vector@UUpDownInfo@ioPrisonWeapon@@V?$allocator@UUpDownInfo@ioPrisonWeapon@@@std@@@std@@IAEXXZ ; std::vector<ioPrisonWeapon::UpDownInfo,std::allocator<ioPrisonWeapon::UpDownInfo> >::_Tidy
??1?$vector@UUpDownInfo@ioPrisonWeapon@@V?$allocator@UUpDownInfo@ioPrisonWeapon@@@std@@@std@@QAE@XZ ENDP ; std::vector<ioPrisonWeapon::UpDownInfo,std::allocator<ioPrisonWeapon::UpDownInfo> >::~vector<ioPrisonWeapon::UpDownInfo,std::allocator<ioPrisonWeapon::UpDownInfo> >
_TEXT	ENDS
PUBLIC	?clear@?$vector@UUpDownInfo@ioPrisonWeapon@@V?$allocator@UUpDownInfo@ioPrisonWeapon@@@std@@@std@@QAEXXZ ; std::vector<ioPrisonWeapon::UpDownInfo,std::allocator<ioPrisonWeapon::UpDownInfo> >::clear
; Function compile flags: /Ogsp
;	COMDAT ?clear@?$vector@UUpDownInfo@ioPrisonWeapon@@V?$allocator@UUpDownInfo@ioPrisonWeapon@@@std@@@std@@QAEXXZ
_TEXT	SEGMENT
$T541761 = -4						; size = 4
?clear@?$vector@UUpDownInfo@ioPrisonWeapon@@V?$allocator@UUpDownInfo@ioPrisonWeapon@@@std@@@std@@QAEXXZ PROC ; std::vector<ioPrisonWeapon::UpDownInfo,std::allocator<ioPrisonWeapon::UpDownInfo> >::clear, COMDAT
; _this$ = ecx

; 1217 : 		{	// erase all

  00000	55		 push	 ebp
  00001	8b ec		 mov	 ebp, esp
  00003	51		 push	 ecx

; 1218 : 		erase(begin(), end());

  00004	8b 41 04	 mov	 eax, DWORD PTR [ecx+4]
  00007	8b 11		 mov	 edx, DWORD PTR [ecx]
  00009	50		 push	 eax
  0000a	52		 push	 edx
  0000b	8d 45 fc	 lea	 eax, DWORD PTR $T541761[ebp]
  0000e	50		 push	 eax
  0000f	e8 00 00 00 00	 call	 ?erase@?$vector@UUpDownInfo@ioPrisonWeapon@@V?$allocator@UUpDownInfo@ioPrisonWeapon@@@std@@@std@@QAE?AV?$_Vector_iterator@V?$_Vector_val@UUpDownInfo@ioPrisonWeapon@@V?$allocator@UUpDownInfo@ioPrisonWeapon@@@std@@@std@@@2@V?$_Vector_const_iterator@V?$_Vector_val@UUpDownInfo@ioPrisonWeapon@@V?$allocator@UUpDownInfo@ioPrisonWeapon@@@std@@@std@@@2@0@Z ; std::vector<ioPrisonWeapon::UpDownInfo,std::allocator<ioPrisonWeapon::UpDownInfo> >::erase

; 1219 : 		}

  00014	c9		 leave
  00015	c3		 ret	 0
?clear@?$vector@UUpDownInfo@ioPrisonWeapon@@V?$allocator@UUpDownInfo@ioPrisonWeapon@@@std@@@std@@QAEXXZ ENDP ; std::vector<ioPrisonWeapon::UpDownInfo,std::allocator<ioPrisonWeapon::UpDownInfo> >::clear
_TEXT	ENDS
PUBLIC	?_Reserve@?$vector@UUpDownInfo@ioPrisonWeapon@@V?$allocator@UUpDownInfo@ioPrisonWeapon@@@std@@@std@@IAEXI@Z ; std::vector<ioPrisonWeapon::UpDownInfo,std::allocator<ioPrisonWeapon::UpDownInfo> >::_Reserve
; Function compile flags: /Ogsp
;	COMDAT ?_Reserve@?$vector@UUpDownInfo@ioPrisonWeapon@@V?$allocator@UUpDownInfo@ioPrisonWeapon@@@std@@@std@@IAEXI@Z
_TEXT	SEGMENT
__Count$ = 8						; size = 4
?_Reserve@?$vector@UUpDownInfo@ioPrisonWeapon@@V?$allocator@UUpDownInfo@ioPrisonWeapon@@@std@@@std@@IAEXI@Z PROC ; std::vector<ioPrisonWeapon::UpDownInfo,std::allocator<ioPrisonWeapon::UpDownInfo> >::_Reserve, COMDAT
; _this$ = ecx

; 1290 : 		{	// ensure room for _Count new elements, grow exponentially

  00000	55		 push	 ebp
  00001	8b ec		 mov	 ebp, esp
  00003	56		 push	 esi
  00004	8b f1		 mov	 esi, ecx

; 1291 : 		size_type _Size = size();

  00006	8b 0e		 mov	 ecx, DWORD PTR [esi]
  00008	8b 46 04	 mov	 eax, DWORD PTR [esi+4]
  0000b	2b c1		 sub	 eax, ecx
  0000d	57		 push	 edi
  0000e	99		 cdq
  0000f	6a 14		 push	 20			; 00000014H
  00011	5f		 pop	 edi
  00012	f7 ff		 idiv	 edi
  00014	8b f8		 mov	 edi, eax

; 1292 : 		if (max_size() - _Count < _Size)

  00016	b8 cc cc cc 0c	 mov	 eax, 214748364		; 0cccccccH
  0001b	2b 45 08	 sub	 eax, DWORD PTR __Count$[ebp]
  0001e	3b c7		 cmp	 eax, edi
  00020	73 0b		 jae	 SHORT $LN4@Reserve@2

; 1293 : 			_Xlen();

  00022	68 00 00 00 00	 push	 OFFSET ??_C@_0BD@OLBABOEK@vector?$DMT?$DO?5too?5long?$AA@
  00027	ff 15 00 00 00
	00		 call	 DWORD PTR __imp_?_Xlength_error@std@@YAXPBD@Z
$LN21@Reserve@2:
$LN4@Reserve@2:

; 1294 : 		else if ((_Size += _Count) <= capacity())

  0002d	8b 46 08	 mov	 eax, DWORD PTR [esi+8]
  00030	2b c1		 sub	 eax, ecx
  00032	6a 14		 push	 20			; 00000014H
  00034	99		 cdq
  00035	59		 pop	 ecx
  00036	f7 f9		 idiv	 ecx
  00038	03 7d 08	 add	 edi, DWORD PTR __Count$[ebp]
  0003b	3b f8		 cmp	 edi, eax
  0003d	76 10		 jbe	 SHORT $LN1@Reserve@2

; 1295 : 			;
; 1296 : 		else
; 1297 : 			reserve(_Grow_to(_Size));

  0003f	57		 push	 edi
  00040	8b ce		 mov	 ecx, esi
  00042	e8 00 00 00 00	 call	 ?_Grow_to@?$vector@UUpDownInfo@ioPrisonWeapon@@V?$allocator@UUpDownInfo@ioPrisonWeapon@@@std@@@std@@IBEII@Z ; std::vector<ioPrisonWeapon::UpDownInfo,std::allocator<ioPrisonWeapon::UpDownInfo> >::_Grow_to
  00047	50		 push	 eax
  00048	8b ce		 mov	 ecx, esi
  0004a	e8 00 00 00 00	 call	 ?reserve@?$vector@UUpDownInfo@ioPrisonWeapon@@V?$allocator@UUpDownInfo@ioPrisonWeapon@@@std@@@std@@QAEXI@Z ; std::vector<ioPrisonWeapon::UpDownInfo,std::allocator<ioPrisonWeapon::UpDownInfo> >::reserve
$LN1@Reserve@2:
  0004f	5f		 pop	 edi
  00050	5e		 pop	 esi

; 1298 : 		}

  00051	5d		 pop	 ebp
  00052	c2 04 00	 ret	 4
$LN20@Reserve@2:
?_Reserve@?$vector@UUpDownInfo@ioPrisonWeapon@@V?$allocator@UUpDownInfo@ioPrisonWeapon@@@std@@@std@@IAEXI@Z ENDP ; std::vector<ioPrisonWeapon::UpDownInfo,std::allocator<ioPrisonWeapon::UpDownInfo> >::_Reserve
_TEXT	ENDS
PUBLIC	??_7ioPrisonWeapon@@6B@				; ioPrisonWeapon::`vftable'
PUBLIC	??0ioPrisonWeapon@@QAE@PAVioBaseChar@@PBUWeaponAttribute@@@Z ; ioPrisonWeapon::ioPrisonWeapon
PUBLIC	??_R4ioPrisonWeapon@@6B@			; ioPrisonWeapon::`RTTI Complete Object Locator'
PUBLIC	??_R0?AVioPrisonWeapon@@@8			; ioPrisonWeapon `RTTI Type Descriptor'
PUBLIC	??_R3ioPrisonWeapon@@8				; ioPrisonWeapon::`RTTI Class Hierarchy Descriptor'
PUBLIC	??_R2ioPrisonWeapon@@8				; ioPrisonWeapon::`RTTI Base Class Array'
PUBLIC	??_R1A@?0A@EA@ioPrisonWeapon@@8			; ioPrisonWeapon::`RTTI Base Class Descriptor at (0,-1,0,64)'
PUBLIC	??_R1A@?0A@EA@ioWeapon@@8			; ioWeapon::`RTTI Base Class Descriptor at (0,-1,0,64)'
PUBLIC	??_R0?AVioWeapon@@@8				; ioWeapon `RTTI Type Descriptor'
PUBLIC	??_R3ioWeapon@@8				; ioWeapon::`RTTI Class Hierarchy Descriptor'
PUBLIC	??_R2ioWeapon@@8				; ioWeapon::`RTTI Base Class Array'
PUBLIC	?LoadUpDownProperty@ioPrisonWeapon@@UAEXAAVioINILoader@@@Z ; ioPrisonWeapon::LoadUpDownProperty
EXTRN	__imp_??1ioOrientBox@@QAE@XZ:PROC
EXTRN	??1ioWeapon@@UAE@XZ:PROC			; ioWeapon::~ioWeapon
EXTRN	?SetPeculiarity@ioWeapon@@QAEXK@Z:PROC		; ioWeapon::SetPeculiarity
EXTRN	__imp_??0ioOrientBox@@QAE@XZ:PROC
EXTRN	??0ioWeapon@@QAE@PAVioBaseChar@@PBUWeaponAttribute@@@Z:PROC ; ioWeapon::ioWeapon
EXTRN	?IsAlreadyCollisioned@ioWeapon@@UAE_NPAVioPlayEntity@@@Z:PROC ; ioWeapon::IsAlreadyCollisioned
EXTRN	?AddCollisionEntity@ioWeapon@@UAEXPAVioPlayEntity@@@Z:PROC ; ioWeapon::AddCollisionEntity
EXTRN	?SetOwnerDamageRate@ioWeapon@@UAEXM@Z:PROC	; ioWeapon::SetOwnerDamageRate
EXTRN	?SetOwnerChargeDamageRate@ioWeapon@@UAEXM@Z:PROC ; ioWeapon::SetOwnerChargeDamageRate
EXTRN	?SetOwnerChargeForceRate@ioWeapon@@UAEXM@Z:PROC	; ioWeapon::SetOwnerChargeForceRate
EXTRN	?SetOwnerChargeRangeRate@ioWeapon@@UAEXM@Z:PROC	; ioWeapon::SetOwnerChargeRangeRate
EXTRN	?SetOwnerChargeSpeedRate@ioWeapon@@UAEXM@Z:PROC	; ioWeapon::SetOwnerChargeSpeedRate
EXTRN	?SetOwnerChargeBlowRate@ioWeapon@@UAEXM@Z:PROC	; ioWeapon::SetOwnerChargeBlowRate
EXTRN	?SetOwnerChargeFloatRate@ioWeapon@@UAEXM@Z:PROC	; ioWeapon::SetOwnerChargeFloatRate
EXTRN	?SetOwnerChargeScaleRate@ioWeapon@@UAEXM@Z:PROC	; ioWeapon::SetOwnerChargeScaleRate
EXTRN	?SetOwnerChargeExplosionRate@ioWeapon@@UAEXM@Z:PROC ; ioWeapon::SetOwnerChargeExplosionRate
EXTRN	?SetOwnerChargeWoundedTimeRate@ioWeapon@@UAEXM@Z:PROC ; ioWeapon::SetOwnerChargeWoundedTimeRate
EXTRN	?SetOwnerChargeLiveTimeRate@ioWeapon@@UAEXM@Z:PROC ; ioWeapon::SetOwnerChargeLiveTimeRate
EXTRN	?SetOwnerChargeBuffLiveTimeRate@ioWeapon@@UAEXM@Z:PROC ; ioWeapon::SetOwnerChargeBuffLiveTimeRate
EXTRN	?SetWeaponIndex@ioWeapon@@UAEXK@Z:PROC		; ioWeapon::SetWeaponIndex
EXTRN	?SetGrapplingTargetName@ioWeapon@@UAEXABVioHashString@@@Z:PROC ; ioWeapon::SetGrapplingTargetName
EXTRN	?SetCreateItem@ioWeapon@@UAEXABVioHashString@@@Z:PROC ; ioWeapon::SetCreateItem
EXTRN	?SetTeam@ioWeapon@@UAEXPAVioPlayStage@@W4TeamType@@@Z:PROC ; ioWeapon::SetTeam
EXTRN	?CallReserveAreaWeapon@ioWeapon@@UAEXXZ:PROC	; ioWeapon::CallReserveAreaWeapon
EXTRN	?PlayExplosionSound@ioWeapon@@UAEXXZ:PROC	; ioWeapon::PlayExplosionSound
EXTRN	?PlayWoundedSound@ioWeapon@@UAEXPAVioPlayEntity@@@Z:PROC ; ioWeapon::PlayWoundedSound
EXTRN	?PlayDefensedSound@ioWeapon@@UAEXPAVioPlayEntity@@@Z:PROC ; ioWeapon::PlayDefensedSound
EXTRN	?PlayLoopSound@ioWeapon@@UAEXXZ:PROC		; ioWeapon::PlayLoopSound
EXTRN	?StopLoopSound@ioWeapon@@UAEXXZ:PROC		; ioWeapon::StopLoopSound
EXTRN	?GetTargetAirBuffList@ioWeapon@@UBEABV?$vector@UBuffInfoStruct@@V?$allocator@UBuffInfoStruct@@@std@@@std@@XZ:PROC ; ioWeapon::GetTargetAirBuffList
EXTRN	?GetTargetBuffList@ioWeapon@@UBEABV?$vector@UBuffInfoStruct@@V?$allocator@UBuffInfoStruct@@@std@@@std@@XZ:PROC ; ioWeapon::GetTargetBuffList
EXTRN	?GetTargetDownBuffList@ioWeapon@@UBEABV?$vector@UBuffInfoStruct@@V?$allocator@UBuffInfoStruct@@@std@@@std@@XZ:PROC ; ioWeapon::GetTargetDownBuffList
EXTRN	?GetPosition@ioWeapon@@UBEABUD3DXVECTOR3@@XZ:PROC ; ioWeapon::GetPosition
EXTRN	?GetBlowType@ioWeapon@@UBE?AW4BlowTargetType@@XZ:PROC ; ioWeapon::GetBlowType
EXTRN	?GetPushPower@ioWeapon@@UBEMM@Z:PROC		; ioWeapon::GetPushPower
EXTRN	?GetBlowPower@ioWeapon@@UBEMM@Z:PROC		; ioWeapon::GetBlowPower
EXTRN	?GetAirPushPower@ioWeapon@@UBEMM@Z:PROC		; ioWeapon::GetAirPushPower
EXTRN	?GetAirBlowPower@ioWeapon@@UBEMM@Z:PROC		; ioWeapon::GetAirBlowPower
EXTRN	?GetDefensePushPower@ioWeapon@@UBEMM@Z:PROC	; ioWeapon::GetDefensePushPower
EXTRN	?GetCollisionEnableTime@ioWeapon@@UBEKXZ:PROC	; ioWeapon::GetCollisionEnableTime
EXTRN	?SetSylphid@ioWeapon@@UAEHXZ:PROC		; ioWeapon::SetSylphid
EXTRN	?ApplyExtraReserveWeaponByWeaponInfo@ioWeapon@@UAEXPAV1@@Z:PROC ; ioWeapon::ApplyExtraReserveWeaponByWeaponInfo
EXTRN	?SetResistanceAttr@ioWeapon@@UAEXH@Z:PROC	; ioWeapon::SetResistanceAttr
EXTRN	?SetStartCollisionBox@ioWeapon@@UAEXXZ:PROC	; ioWeapon::SetStartCollisionBox
EXTRN	?SetLiveTime@ioWeapon@@UAEXK@Z:PROC		; ioWeapon::SetLiveTime
EXTRN	?SetMoveSpeed@ioWeapon@@UAEXM@Z:PROC		; ioWeapon::SetMoveSpeed
EXTRN	?SetFloatPower@ioWeapon@@UAEXM@Z:PROC		; ioWeapon::SetFloatPower
EXTRN	?TestMapCollision@ioWeapon@@UAE_NPAVioOpcodeShape@@PAVioPlayStage@@PBUD3DXMATRIX@@@Z:PROC ; ioWeapon::TestMapCollision
EXTRN	?CheckPreCollision@ioWeapon@@UAEXPAVioPlayEntity@@PAVioPlayStage@@@Z:PROC ; ioWeapon::CheckPreCollision
EXTRN	?CheckStructAndDummy@ioWeapon@@UAEXPAVioPlayEntity@@PAVioPlayStage@@@Z:PROC ; ioWeapon::CheckStructAndDummy
EXTRN	?GetDamage@ioWeapon@@UAEMPAVioPlayEntity@@@Z:PROC ; ioWeapon::GetDamage
EXTRN	?GetBaseDamage@ioWeapon@@UAEMPAVioPlayEntity@@@Z:PROC ; ioWeapon::GetBaseDamage
EXTRN	?GetPushAngle@ioWeapon@@UBEMXZ:PROC		; ioWeapon::GetPushAngle
EXTRN	?IsResistanceMagic@ioWeapon@@UAEHPAVioBaseChar@@@Z:PROC ; ioWeapon::IsResistanceMagic
EXTRN	?IsResistanceBomb@ioWeapon@@UAEHPAVioBaseChar@@@Z:PROC ; ioWeapon::IsResistanceBomb
EXTRN	?IsCanMineExplosion@ioWeapon@@UAE_NXZ:PROC	; ioWeapon::IsCanMineExplosion
EXTRN	?CheckGrapplingState@ioWeapon@@UAE?AW4GrapplingType@@XZ:PROC ; ioWeapon::CheckGrapplingState
EXTRN	?CheckCurAttribute@ioWeapon@@UAEXPBVioPlayEntity@@@Z:PROC ; ioWeapon::CheckCurAttribute
EXTRN	?CheckItemNotDrop@ioWeapon@@UAE_NPAVioBaseChar@@@Z:PROC ; ioWeapon::CheckItemNotDrop
EXTRN	?GetWorldAttackBoxList@ioWeapon@@UAEXAAV?$vector@VioOrientBox@@V?$allocator@VioOrientBox@@@std@@@std@@@Z:PROC ; ioWeapon::GetWorldAttackBoxList
EXTRN	?GetLocalAttackBox@ioWeapon@@UBEABVioOrientBox@@XZ:PROC ; ioWeapon::GetLocalAttackBox
EXTRN	?GetLiveTime@ioWeapon@@UAEKXZ:PROC		; ioWeapon::GetLiveTime
EXTRN	?CheckWeaponCollision@ioWeapon@@UAEXXZ:PROC	; ioWeapon::CheckWeaponCollision
EXTRN	?GetRefreshDuration@ioWeapon@@UAEKXZ:PROC	; ioWeapon::GetRefreshDuration
EXTRN	?GetIgnoreDuration@ioWeapon@@UAEKXZ:PROC	; ioWeapon::GetIgnoreDuration
EXTRN	?GetIgnoreTimeTypeDuration@ioWeapon@@UAEKXZ:PROC ; ioWeapon::GetIgnoreTimeTypeDuration
EXTRN	?GetIgnoreTimeType@ioWeapon@@UAEKXZ:PROC	; ioWeapon::GetIgnoreTimeType
EXTRN	?ApplyWeaponSync@ioWeapon@@UAEXAAVSP2Packet@@PAVioPlayStage@@@Z:PROC ; ioWeapon::ApplyWeaponSync
EXTRN	?IsSkillDependency@ioWeapon@@UAE_NABVioHashString@@@Z:PROC ; ioWeapon::IsSkillDependency
EXTRN	?SetSkillDependencyAction@ioWeapon@@UAEXXZ:PROC	; ioWeapon::SetSkillDependencyAction
EXTRN	?UpdateWorldAttackBox@ioWeapon@@MAEXM_N@Z:PROC	; ioWeapon::UpdateWorldAttackBox
EXTRN	?GetAttribute@ioWeapon@@MBEPBUWeaponAttribute@@XZ:PROC ; ioWeapon::GetAttribute
EXTRN	?CalcFinalDamage@ioWeapon@@MAEMXZ:PROC		; ioWeapon::CalcFinalDamage
EXTRN	?CalcFinalBoundDamage@ioWeapon@@MAEMXZ:PROC	; ioWeapon::CalcFinalBoundDamage
EXTRN	?CheckPiercing@ioWeapon@@MAE_N_N@Z:PROC		; ioWeapon::CheckPiercing
EXTRN	?ClearCollisionList@ioWeapon@@MAEXXZ:PROC	; ioWeapon::ClearCollisionList
EXTRN	?CheckCreateWeaponList@ioWeapon@@MAEXXZ:PROC	; ioWeapon::CheckCreateWeaponList
EXTRN	?CreateCollisionAreaWeapon@ioWeapon@@MAEXXZ:PROC ; ioWeapon::CreateCollisionAreaWeapon
EXTRN	?SetMapCollision@ioWeapon@@UAEXXZ:PROC		; ioWeapon::SetMapCollision
EXTRN	?IsIgnoreMapCollision@ioWeapon@@UBE_NXZ:PROC	; ioWeapon::IsIgnoreMapCollision
EXTRN	?IsIgnoreTestMapCollision@ioWeapon@@UBE_NXZ:PROC ; ioWeapon::IsIgnoreTestMapCollision
EXTRN	?IsIgnoreMapCollisionEffect@ioWeapon@@UBE_NXZ:PROC ; ioWeapon::IsIgnoreMapCollisionEffect
EXTRN	?AddEffectEvent@ioWeapon@@MAEXPAVioEffect@@@Z:PROC ; ioWeapon::AddEffectEvent
EXTRN	??_EioPrisonWeapon@@UAEPAXI@Z:PROC		; ioPrisonWeapon::`vector deleting destructor'
;	COMDAT ??_R2ioWeapon@@8
; File c:\program files (x86)\microsoft visual studio 10.0\vc\include\xmemory
rdata$r	SEGMENT
??_R2ioWeapon@@8 DD FLAT:??_R1A@?0A@EA@ioWeapon@@8	; ioWeapon::`RTTI Base Class Array'
rdata$r	ENDS
;	COMDAT ??_R3ioWeapon@@8
rdata$r	SEGMENT
??_R3ioWeapon@@8 DD 00H					; ioWeapon::`RTTI Class Hierarchy Descriptor'
	DD	00H
	DD	01H
	DD	FLAT:??_R2ioWeapon@@8
rdata$r	ENDS
;	COMDAT ??_R0?AVioWeapon@@@8
_DATA	SEGMENT
??_R0?AVioWeapon@@@8 DD FLAT:??_7type_info@@6B@		; ioWeapon `RTTI Type Descriptor'
	DD	00H
	DB	'.?AVioWeapon@@', 00H
_DATA	ENDS
;	COMDAT ??_R1A@?0A@EA@ioWeapon@@8
rdata$r	SEGMENT
??_R1A@?0A@EA@ioWeapon@@8 DD FLAT:??_R0?AVioWeapon@@@8	; ioWeapon::`RTTI Base Class Descriptor at (0,-1,0,64)'
	DD	00H
	DD	00H
	DD	0ffffffffH
	DD	00H
	DD	040H
	DD	FLAT:??_R3ioWeapon@@8
rdata$r	ENDS
;	COMDAT ??_R1A@?0A@EA@ioPrisonWeapon@@8
rdata$r	SEGMENT
??_R1A@?0A@EA@ioPrisonWeapon@@8 DD FLAT:??_R0?AVioPrisonWeapon@@@8 ; ioPrisonWeapon::`RTTI Base Class Descriptor at (0,-1,0,64)'
	DD	01H
	DD	00H
	DD	0ffffffffH
	DD	00H
	DD	040H
	DD	FLAT:??_R3ioPrisonWeapon@@8
rdata$r	ENDS
;	COMDAT ??_R2ioPrisonWeapon@@8
rdata$r	SEGMENT
??_R2ioPrisonWeapon@@8 DD FLAT:??_R1A@?0A@EA@ioPrisonWeapon@@8 ; ioPrisonWeapon::`RTTI Base Class Array'
	DD	FLAT:??_R1A@?0A@EA@ioWeapon@@8
rdata$r	ENDS
;	COMDAT ??_R3ioPrisonWeapon@@8
rdata$r	SEGMENT
??_R3ioPrisonWeapon@@8 DD 00H				; ioPrisonWeapon::`RTTI Class Hierarchy Descriptor'
	DD	00H
	DD	02H
	DD	FLAT:??_R2ioPrisonWeapon@@8
rdata$r	ENDS
;	COMDAT ??_R0?AVioPrisonWeapon@@@8
_DATA	SEGMENT
??_R0?AVioPrisonWeapon@@@8 DD FLAT:??_7type_info@@6B@	; ioPrisonWeapon `RTTI Type Descriptor'
	DD	00H
	DB	'.?AVioPrisonWeapon@@', 00H
_DATA	ENDS
;	COMDAT ??_R4ioPrisonWeapon@@6B@
rdata$r	SEGMENT
??_R4ioPrisonWeapon@@6B@ DD 00H				; ioPrisonWeapon::`RTTI Complete Object Locator'
	DD	00H
	DD	00H
	DD	FLAT:??_R0?AVioPrisonWeapon@@@8
	DD	FLAT:??_R3ioPrisonWeapon@@8
rdata$r	ENDS
;	COMDAT ??_7ioPrisonWeapon@@6B@
CONST	SEGMENT
??_7ioPrisonWeapon@@6B@ DD FLAT:??_R4ioPrisonWeapon@@6B@ ; ioPrisonWeapon::`vftable'
	DD	FLAT:?IsAlreadyCollisioned@ioWeapon@@UAE_NPAVioPlayEntity@@@Z
	DD	FLAT:?AddCollisionEntity@ioWeapon@@UAEXPAVioPlayEntity@@@Z
	DD	FLAT:?SetOwnerDamageRate@ioWeapon@@UAEXM@Z
	DD	FLAT:?SetOwnerChargeDamageRate@ioWeapon@@UAEXM@Z
	DD	FLAT:?SetOwnerChargeForceRate@ioWeapon@@UAEXM@Z
	DD	FLAT:?SetOwnerChargeRangeRate@ioWeapon@@UAEXM@Z
	DD	FLAT:?SetOwnerChargeSpeedRate@ioWeapon@@UAEXM@Z
	DD	FLAT:?SetOwnerChargeBlowRate@ioWeapon@@UAEXM@Z
	DD	FLAT:?SetOwnerChargeFloatRate@ioWeapon@@UAEXM@Z
	DD	FLAT:?SetOwnerChargeScaleRate@ioWeapon@@UAEXM@Z
	DD	FLAT:?SetOwnerChargeExplosionRate@ioWeapon@@UAEXM@Z
	DD	FLAT:?SetOwnerChargeWoundedTimeRate@ioWeapon@@UAEXM@Z
	DD	FLAT:?SetOwnerChargeLiveTimeRate@ioWeapon@@UAEXM@Z
	DD	FLAT:?SetOwnerChargeBuffLiveTimeRate@ioWeapon@@UAEXM@Z
	DD	FLAT:?SetWeaponIndex@ioWeapon@@UAEXK@Z
	DD	FLAT:?SetGrapplingTargetName@ioWeapon@@UAEXABVioHashString@@@Z
	DD	FLAT:?SetCreateItem@ioWeapon@@UAEXABVioHashString@@@Z
	DD	FLAT:?SetTeam@ioWeapon@@UAEXPAVioPlayStage@@W4TeamType@@@Z
	DD	FLAT:?CallReserveAreaWeapon@ioWeapon@@UAEXXZ
	DD	FLAT:?SetWeaponDead@ioPrisonWeapon@@UAEXXZ
	DD	FLAT:?PlayExplosionSound@ioWeapon@@UAEXXZ
	DD	FLAT:?PlayWoundedSound@ioWeapon@@UAEXPAVioPlayEntity@@@Z
	DD	FLAT:?PlayDefensedSound@ioWeapon@@UAEXPAVioPlayEntity@@@Z
	DD	FLAT:?PlayLoopSound@ioWeapon@@UAEXXZ
	DD	FLAT:?StopLoopSound@ioWeapon@@UAEXXZ
	DD	FLAT:?GetTargetAirBuffList@ioWeapon@@UBEABV?$vector@UBuffInfoStruct@@V?$allocator@UBuffInfoStruct@@@std@@@std@@XZ
	DD	FLAT:?GetTargetBuffList@ioWeapon@@UBEABV?$vector@UBuffInfoStruct@@V?$allocator@UBuffInfoStruct@@@std@@@std@@XZ
	DD	FLAT:?GetTargetDownBuffList@ioWeapon@@UBEABV?$vector@UBuffInfoStruct@@V?$allocator@UBuffInfoStruct@@@std@@@std@@XZ
	DD	FLAT:?GetPosition@ioWeapon@@UBEABUD3DXVECTOR3@@XZ
	DD	FLAT:?GetBlowType@ioWeapon@@UBE?AW4BlowTargetType@@XZ
	DD	FLAT:?GetPushPower@ioWeapon@@UBEMM@Z
	DD	FLAT:?GetBlowPower@ioWeapon@@UBEMM@Z
	DD	FLAT:?GetAirPushPower@ioWeapon@@UBEMM@Z
	DD	FLAT:?GetAirBlowPower@ioWeapon@@UBEMM@Z
	DD	FLAT:?GetDefensePushPower@ioWeapon@@UBEMM@Z
	DD	FLAT:?GetCollisionEnableTime@ioWeapon@@UBEKXZ
	DD	FLAT:?SetSylphid@ioWeapon@@UAEHXZ
	DD	FLAT:?ApplyExtraReserveWeaponByWeaponInfo@ioWeapon@@UAEXPAV1@@Z
	DD	FLAT:?InitResource@ioPrisonWeapon@@UAE_NXZ
	DD	FLAT:?DestroyResource@ioPrisonWeapon@@UAEXPAVioPlayStage@@@Z
	DD	FLAT:?LoadProperty@ioPrisonWeapon@@UAEXAAVioINILoader@@@Z
	DD	FLAT:?SetResistanceAttr@ioWeapon@@UAEXH@Z
	DD	FLAT:?SetStartCollisionBox@ioWeapon@@UAEXXZ
	DD	FLAT:?SetLiveTime@ioWeapon@@UAEXK@Z
	DD	FLAT:?SetMoveDir@ioPrisonWeapon@@UAEXABUD3DXVECTOR3@@@Z
	DD	FLAT:?SetMoveSpeed@ioWeapon@@UAEXM@Z
	DD	FLAT:?SetFloatPower@ioWeapon@@UAEXM@Z
	DD	FLAT:?SetStartPosition@ioPrisonWeapon@@UAEXABUD3DXVECTOR3@@PAVioPlayStage@@@Z
	DD	FLAT:?Process@ioPrisonWeapon@@UAEXMPAVioPlayStage@@@Z
	DD	FLAT:?IsCollision@ioPrisonWeapon@@UAE_NPAVioPlayEntity@@_N@Z
	DD	FLAT:?TestMapCollision@ioWeapon@@UAE_NPAVioOpcodeShape@@PAVioPlayStage@@PBUD3DXMATRIX@@@Z
	DD	FLAT:?CheckPreCollision@ioWeapon@@UAEXPAVioPlayEntity@@PAVioPlayStage@@@Z
	DD	FLAT:?CheckStructAndDummy@ioWeapon@@UAEXPAVioPlayEntity@@PAVioPlayStage@@@Z
	DD	FLAT:?GetDamage@ioWeapon@@UAEMPAVioPlayEntity@@@Z
	DD	FLAT:?GetBaseDamage@ioWeapon@@UAEMPAVioPlayEntity@@@Z
	DD	FLAT:?GetPushAngle@ioWeapon@@UBEMXZ
	DD	FLAT:?IsResistanceMagic@ioWeapon@@UAEHPAVioBaseChar@@@Z
	DD	FLAT:?IsResistanceBomb@ioWeapon@@UAEHPAVioBaseChar@@@Z
	DD	FLAT:?IsCanMineExplosion@ioWeapon@@UAE_NXZ
	DD	FLAT:?CheckGrapplingState@ioWeapon@@UAE?AW4GrapplingType@@XZ
	DD	FLAT:?CheckCurAttribute@ioWeapon@@UAEXPBVioPlayEntity@@@Z
	DD	FLAT:?CheckItemNotDrop@ioWeapon@@UAE_NPAVioBaseChar@@@Z
	DD	FLAT:?GetWorldAttackBoxList@ioWeapon@@UAEXAAV?$vector@VioOrientBox@@V?$allocator@VioOrientBox@@@std@@@std@@@Z
	DD	FLAT:?GetAttackDir@ioPrisonWeapon@@UBE?AUD3DXVECTOR3@@PBVioPlayEntity@@@Z
	DD	FLAT:?GetLocalAttackBox@ioWeapon@@UBEABVioOrientBox@@XZ
	DD	FLAT:?GetLiveTime@ioWeapon@@UAEKXZ
	DD	FLAT:?GetMoveDir@ioPrisonWeapon@@UAE?AUD3DXVECTOR3@@XZ
	DD	FLAT:?CheckWeaponCollision@ioWeapon@@UAEXXZ
	DD	FLAT:?GetType@ioPrisonWeapon@@UBE?AW4WeaponType@ioWeapon@@XZ
	DD	FLAT:?GetActionStopType@ioPrisonWeapon@@UBE?AW4ActionStopType@@XZ
	DD	FLAT:?GetDieActionStopType@ioPrisonWeapon@@UBE?AW4ActionStopType@@XZ
	DD	FLAT:?GetRefreshDuration@ioWeapon@@UAEKXZ
	DD	FLAT:?GetIgnoreDuration@ioWeapon@@UAEKXZ
	DD	FLAT:?GetIgnoreTimeTypeDuration@ioWeapon@@UAEKXZ
	DD	FLAT:?GetIgnoreTimeType@ioWeapon@@UAEKXZ
	DD	FLAT:?ApplyWeaponSync@ioWeapon@@UAEXAAVSP2Packet@@PAVioPlayStage@@@Z
	DD	FLAT:?IsSkillDependency@ioWeapon@@UAE_NABVioHashString@@@Z
	DD	FLAT:?SetSkillDependencyAction@ioWeapon@@UAEXXZ
	DD	FLAT:?UpdateWorldAttackBox@ioWeapon@@MAEXM_N@Z
	DD	FLAT:?GetAttribute@ioWeapon@@MBEPBUWeaponAttribute@@XZ
	DD	FLAT:?CalcFinalDamage@ioWeapon@@MAEMXZ
	DD	FLAT:?CalcFinalBoundDamage@ioWeapon@@MAEMXZ
	DD	FLAT:?CheckPiercing@ioWeapon@@MAE_N_N@Z
	DD	FLAT:?ClearCollisionList@ioWeapon@@MAEXXZ
	DD	FLAT:?CheckCreateWeaponList@ioWeapon@@MAEXXZ
	DD	FLAT:?CreateCollisionAreaWeapon@ioWeapon@@MAEXXZ
	DD	FLAT:?SetMapCollision@ioWeapon@@UAEXXZ
	DD	FLAT:?IsIgnoreMapCollision@ioWeapon@@UBE_NXZ
	DD	FLAT:?IsIgnoreTestMapCollision@ioWeapon@@UBE_NXZ
	DD	FLAT:?IsIgnoreMapCollisionEffect@ioWeapon@@UBE_NXZ
	DD	FLAT:?AddEffectEvent@ioWeapon@@MAEXPAVioEffect@@@Z
	DD	FLAT:??_EioPrisonWeapon@@UAEPAXI@Z
	DD	FLAT:?LoadUpDownProperty@ioPrisonWeapon@@UAEXAAVioINILoader@@@Z
CONST	ENDS
;	COMDAT xdata$x
xdata$x	SEGMENT
__ehfuncinfo$??0ioPrisonWeapon@@QAE@PAVioBaseChar@@PBUWeaponAttribute@@@Z DD 019930522H
	DD	0cH
	DD	FLAT:__unwindtable$??0ioPrisonWeapon@@QAE@PAVioBaseChar@@PBUWeaponAttribute@@@Z
	DD	2 DUP(00H)
	DD	2 DUP(00H)
	DD	00H
	DD	01H
__unwindtable$??0ioPrisonWeapon@@QAE@PAVioBaseChar@@PBUWeaponAttribute@@@Z DD 0ffffffffH
	DD	FLAT:__unwindfunclet$??0ioPrisonWeapon@@QAE@PAVioBaseChar@@PBUWeaponAttribute@@@Z$0
	DD	00H
	DD	FLAT:__unwindfunclet$??0ioPrisonWeapon@@QAE@PAVioBaseChar@@PBUWeaponAttribute@@@Z$1
	DD	01H
	DD	FLAT:__unwindfunclet$??0ioPrisonWeapon@@QAE@PAVioBaseChar@@PBUWeaponAttribute@@@Z$2
	DD	02H
	DD	FLAT:__unwindfunclet$??0ioPrisonWeapon@@QAE@PAVioBaseChar@@PBUWeaponAttribute@@@Z$3
	DD	03H
	DD	FLAT:__unwindfunclet$??0ioPrisonWeapon@@QAE@PAVioBaseChar@@PBUWeaponAttribute@@@Z$4
	DD	04H
	DD	FLAT:__unwindfunclet$??0ioPrisonWeapon@@QAE@PAVioBaseChar@@PBUWeaponAttribute@@@Z$5
	DD	05H
	DD	FLAT:__unwindfunclet$??0ioPrisonWeapon@@QAE@PAVioBaseChar@@PBUWeaponAttribute@@@Z$6
	DD	06H
	DD	FLAT:__unwindfunclet$??0ioPrisonWeapon@@QAE@PAVioBaseChar@@PBUWeaponAttribute@@@Z$7
	DD	07H
	DD	FLAT:__unwindfunclet$??0ioPrisonWeapon@@QAE@PAVioBaseChar@@PBUWeaponAttribute@@@Z$8
	DD	08H
	DD	FLAT:__unwindfunclet$??0ioPrisonWeapon@@QAE@PAVioBaseChar@@PBUWeaponAttribute@@@Z$9
	DD	09H
	DD	FLAT:__unwindfunclet$??0ioPrisonWeapon@@QAE@PAVioBaseChar@@PBUWeaponAttribute@@@Z$10
	DD	0aH
	DD	FLAT:__unwindfunclet$??0ioPrisonWeapon@@QAE@PAVioBaseChar@@PBUWeaponAttribute@@@Z$11
; Function compile flags: /Ogsp
; File d:\lost saga for developer\youtube\tutorial\source\src\lsclient\ioprisonweapon.cpp
xdata$x	ENDS
;	COMDAT ??0ioPrisonWeapon@@QAE@PAVioBaseChar@@PBUWeaponAttribute@@@Z
_TEXT	SEGMENT
_this$ = -16						; size = 4
__$EHRec$ = -12						; size = 12
_pOwner$ = 8						; size = 4
_pAttr$ = 12						; size = 4
??0ioPrisonWeapon@@QAE@PAVioBaseChar@@PBUWeaponAttribute@@@Z PROC ; ioPrisonWeapon::ioPrisonWeapon, COMDAT
; _this$ = ecx

; 13   : {

  00000	6a 04		 push	 4
  00002	b8 00 00 00 00	 mov	 eax, __ehhandler$??0ioPrisonWeapon@@QAE@PAVioBaseChar@@PBUWeaponAttribute@@@Z
  00007	e8 00 00 00 00	 call	 __EH_prolog3
  0000c	8b f1		 mov	 esi, ecx
  0000e	89 75 f0	 mov	 DWORD PTR _this$[ebp], esi
  00011	ff 75 0c	 push	 DWORD PTR _pAttr$[ebp]
  00014	ff 75 08	 push	 DWORD PTR _pOwner$[ebp]
  00017	e8 00 00 00 00	 call	 ??0ioWeapon@@QAE@PAVioBaseChar@@PBUWeaponAttribute@@@Z ; ioWeapon::ioWeapon
  0001c	33 db		 xor	 ebx, ebx
  0001e	8d 8e e0 08 00
	00		 lea	 ecx, DWORD PTR [esi+2272]
  00024	89 5d fc	 mov	 DWORD PTR __$EHRec$[ebp+8], ebx
  00027	c7 06 00 00 00
	00		 mov	 DWORD PTR [esi], OFFSET ??_7ioPrisonWeapon@@6B@
  0002d	ff 15 00 00 00
	00		 call	 DWORD PTR __imp_??0ioOrientBox@@QAE@XZ
  00033	8b 3d 00 00 00
	00		 mov	 edi, DWORD PTR __imp_??0ioHashString@@QAE@XZ
  00039	8d 8e 24 09 00
	00		 lea	 ecx, DWORD PTR [esi+2340]
  0003f	c6 45 fc 01	 mov	 BYTE PTR __$EHRec$[ebp+8], 1
  00043	ff d7		 call	 edi
  00045	8d 8e 34 09 00
	00		 lea	 ecx, DWORD PTR [esi+2356]
  0004b	c6 45 fc 02	 mov	 BYTE PTR __$EHRec$[ebp+8], 2
  0004f	ff d7		 call	 edi
  00051	8d 8e 44 09 00
	00		 lea	 ecx, DWORD PTR [esi+2372]
  00057	c6 45 fc 03	 mov	 BYTE PTR __$EHRec$[ebp+8], 3
  0005b	ff d7		 call	 edi
  0005d	8d 8e 54 09 00
	00		 lea	 ecx, DWORD PTR [esi+2388]
  00063	c6 45 fc 04	 mov	 BYTE PTR __$EHRec$[ebp+8], 4
  00067	ff d7		 call	 edi
  00069	8d 8e 64 09 00
	00		 lea	 ecx, DWORD PTR [esi+2404]
  0006f	c6 45 fc 05	 mov	 BYTE PTR __$EHRec$[ebp+8], 5
  00073	ff d7		 call	 edi
  00075	8d 8e 7c 09 00
	00		 lea	 ecx, DWORD PTR [esi+2428]
  0007b	c6 45 fc 06	 mov	 BYTE PTR __$EHRec$[ebp+8], 6
  0007f	e8 00 00 00 00	 call	 ??0?$CEncrypt@M@@QAE@XZ	; CEncrypt<float>::CEncrypt<float>
  00084	8d 8e ac 09 00
	00		 lea	 ecx, DWORD PTR [esi+2476]
  0008a	c6 45 fc 07	 mov	 BYTE PTR __$EHRec$[ebp+8], 7
  0008e	e8 00 00 00 00	 call	 ??0?$CEncrypt@M@@QAE@XZ	; CEncrypt<float>::CEncrypt<float>
  00093	8d 8e dc 09 00
	00		 lea	 ecx, DWORD PTR [esi+2524]
  00099	c6 45 fc 08	 mov	 BYTE PTR __$EHRec$[ebp+8], 8
  0009d	e8 00 00 00 00	 call	 ??0?$CEncrypt@H@@QAE@XZ	; CEncrypt<int>::CEncrypt<int>
  000a2	8d 8e 0c 0a 00
	00		 lea	 ecx, DWORD PTR [esi+2572]
  000a8	c6 45 fc 09	 mov	 BYTE PTR __$EHRec$[ebp+8], 9
  000ac	e8 00 00 00 00	 call	 ??0?$CEncrypt@H@@QAE@XZ	; CEncrypt<int>::CEncrypt<int>
  000b1	89 9e 3c 0a 00
	00		 mov	 DWORD PTR [esi+2620], ebx
  000b7	89 9e 40 0a 00
	00		 mov	 DWORD PTR [esi+2624], ebx
  000bd	89 9e 44 0a 00
	00		 mov	 DWORD PTR [esi+2628], ebx

; 14   : 	SetPeculiarity( WP_DIVIDE_ACTION );

  000c3	68 00 01 00 00	 push	 256			; 00000100H
  000c8	8b ce		 mov	 ecx, esi
  000ca	c6 45 fc 0b	 mov	 BYTE PTR __$EHRec$[ebp+8], 11 ; 0000000bH
  000ce	e8 00 00 00 00	 call	 ?SetPeculiarity@ioWeapon@@QAEXK@Z ; ioWeapon::SetPeculiarity

; 15   : 
; 16   : 	m_pFireMesh = NULL;
; 17   : 
; 18   : 	ClearData();

  000d3	8b ce		 mov	 ecx, esi
  000d5	89 9e dc 08 00
	00		 mov	 DWORD PTR [esi+2268], ebx
  000db	e8 00 00 00 00	 call	 ?ClearData@ioPrisonWeapon@@QAEXXZ ; ioPrisonWeapon::ClearData

; 19   : }

  000e0	8b c6		 mov	 eax, esi
  000e2	e8 00 00 00 00	 call	 __EH_epilog3
  000e7	c2 08 00	 ret	 8
_TEXT	ENDS
;	COMDAT text$x
text$x	SEGMENT
__unwindfunclet$??0ioPrisonWeapon@@QAE@PAVioBaseChar@@PBUWeaponAttribute@@@Z$0:
  00000	8b 4d f0	 mov	 ecx, DWORD PTR _this$[ebp]
  00003	e9 00 00 00 00	 jmp	 ??1ioWeapon@@UAE@XZ	; ioWeapon::~ioWeapon
__unwindfunclet$??0ioPrisonWeapon@@QAE@PAVioBaseChar@@PBUWeaponAttribute@@@Z$1:
  00008	8b 4d f0	 mov	 ecx, DWORD PTR _this$[ebp]
  0000b	81 c1 e0 08 00
	00		 add	 ecx, 2272		; 000008e0H
  00011	ff 25 00 00 00
	00		 jmp	 DWORD PTR __imp_??1ioOrientBox@@QAE@XZ
__unwindfunclet$??0ioPrisonWeapon@@QAE@PAVioBaseChar@@PBUWeaponAttribute@@@Z$2:
  00017	8b 4d f0	 mov	 ecx, DWORD PTR _this$[ebp]
  0001a	81 c1 24 09 00
	00		 add	 ecx, 2340		; 00000924H
  00020	ff 25 00 00 00
	00		 jmp	 DWORD PTR __imp_??1ioHashString@@QAE@XZ
__unwindfunclet$??0ioPrisonWeapon@@QAE@PAVioBaseChar@@PBUWeaponAttribute@@@Z$3:
  00026	8b 4d f0	 mov	 ecx, DWORD PTR _this$[ebp]
  00029	81 c1 34 09 00
	00		 add	 ecx, 2356		; 00000934H
  0002f	ff 25 00 00 00
	00		 jmp	 DWORD PTR __imp_??1ioHashString@@QAE@XZ
__unwindfunclet$??0ioPrisonWeapon@@QAE@PAVioBaseChar@@PBUWeaponAttribute@@@Z$4:
  00035	8b 4d f0	 mov	 ecx, DWORD PTR _this$[ebp]
  00038	81 c1 44 09 00
	00		 add	 ecx, 2372		; 00000944H
  0003e	ff 25 00 00 00
	00		 jmp	 DWORD PTR __imp_??1ioHashString@@QAE@XZ
__unwindfunclet$??0ioPrisonWeapon@@QAE@PAVioBaseChar@@PBUWeaponAttribute@@@Z$5:
  00044	8b 4d f0	 mov	 ecx, DWORD PTR _this$[ebp]
  00047	81 c1 54 09 00
	00		 add	 ecx, 2388		; 00000954H
  0004d	ff 25 00 00 00
	00		 jmp	 DWORD PTR __imp_??1ioHashString@@QAE@XZ
__unwindfunclet$??0ioPrisonWeapon@@QAE@PAVioBaseChar@@PBUWeaponAttribute@@@Z$6:
  00053	8b 4d f0	 mov	 ecx, DWORD PTR _this$[ebp]
  00056	81 c1 64 09 00
	00		 add	 ecx, 2404		; 00000964H
  0005c	ff 25 00 00 00
	00		 jmp	 DWORD PTR __imp_??1ioHashString@@QAE@XZ
__unwindfunclet$??0ioPrisonWeapon@@QAE@PAVioBaseChar@@PBUWeaponAttribute@@@Z$7:
  00062	8b 4d f0	 mov	 ecx, DWORD PTR _this$[ebp]
  00065	81 c1 7c 09 00
	00		 add	 ecx, 2428		; 0000097cH
  0006b	e9 00 00 00 00	 jmp	 ??1?$CEncrypt@M@@UAE@XZ	; CEncrypt<float>::~CEncrypt<float>
__unwindfunclet$??0ioPrisonWeapon@@QAE@PAVioBaseChar@@PBUWeaponAttribute@@@Z$8:
  00070	8b 4d f0	 mov	 ecx, DWORD PTR _this$[ebp]
  00073	81 c1 ac 09 00
	00		 add	 ecx, 2476		; 000009acH
  00079	e9 00 00 00 00	 jmp	 ??1?$CEncrypt@M@@UAE@XZ	; CEncrypt<float>::~CEncrypt<float>
__unwindfunclet$??0ioPrisonWeapon@@QAE@PAVioBaseChar@@PBUWeaponAttribute@@@Z$9:
  0007e	8b 4d f0	 mov	 ecx, DWORD PTR _this$[ebp]
  00081	81 c1 dc 09 00
	00		 add	 ecx, 2524		; 000009dcH
  00087	e9 00 00 00 00	 jmp	 ??1?$CEncrypt@H@@UAE@XZ	; CEncrypt<int>::~CEncrypt<int>
__unwindfunclet$??0ioPrisonWeapon@@QAE@PAVioBaseChar@@PBUWeaponAttribute@@@Z$10:
  0008c	8b 4d f0	 mov	 ecx, DWORD PTR _this$[ebp]
  0008f	81 c1 0c 0a 00
	00		 add	 ecx, 2572		; 00000a0cH
  00095	e9 00 00 00 00	 jmp	 ??1?$CEncrypt@H@@UAE@XZ	; CEncrypt<int>::~CEncrypt<int>
__unwindfunclet$??0ioPrisonWeapon@@QAE@PAVioBaseChar@@PBUWeaponAttribute@@@Z$11:
  0009a	8b 4d f0	 mov	 ecx, DWORD PTR _this$[ebp]
  0009d	81 c1 3c 0a 00
	00		 add	 ecx, 2620		; 00000a3cH
  000a3	e9 00 00 00 00	 jmp	 ??1?$vector@UUpDownInfo@ioPrisonWeapon@@V?$allocator@UUpDownInfo@ioPrisonWeapon@@@std@@@std@@QAE@XZ ; std::vector<ioPrisonWeapon::UpDownInfo,std::allocator<ioPrisonWeapon::UpDownInfo> >::~vector<ioPrisonWeapon::UpDownInfo,std::allocator<ioPrisonWeapon::UpDownInfo> >
__ehhandler$??0ioPrisonWeapon@@QAE@PAVioBaseChar@@PBUWeaponAttribute@@@Z:
  000a8	8b 54 24 08	 mov	 edx, DWORD PTR [esp+8]
  000ac	8d 42 0c	 lea	 eax, DWORD PTR [edx+12]
  000af	8b 4a ec	 mov	 ecx, DWORD PTR [edx-20]
  000b2	33 c8		 xor	 ecx, eax
  000b4	e8 00 00 00 00	 call	 @__security_check_cookie@4
  000b9	b8 00 00 00 00	 mov	 eax, OFFSET __ehfuncinfo$??0ioPrisonWeapon@@QAE@PAVioBaseChar@@PBUWeaponAttribute@@@Z
  000be	e9 00 00 00 00	 jmp	 ___CxxFrameHandler3
text$x	ENDS
??0ioPrisonWeapon@@QAE@PAVioBaseChar@@PBUWeaponAttribute@@@Z ENDP ; ioPrisonWeapon::ioPrisonWeapon
PUBLIC	??_C@_0BI@HGMFLMKJ@?$CFs?5?9?5UnReleased?5Resouce?$AA@ ; `string'
PUBLIC	??_C@_0CA@GMNHPKAG@ioPrisonWeapon?3?3?$HOioPrisonWeapon?$AA@ ; `string'
PUBLIC	??1ioPrisonWeapon@@UAE@XZ			; ioPrisonWeapon::~ioPrisonWeapon
EXTRN	__imp_?PrintTimeAndLog@CLog@@QAAXHPADZZ:PROC
EXTRN	__imp_?LOG@@3VCLog@@A:BYTE
;	COMDAT ??_C@_0BI@HGMFLMKJ@?$CFs?5?9?5UnReleased?5Resouce?$AA@
; File d:\lost saga for developer\youtube\tutorial\source\src\lsclient\encryptvalue.h
CONST	SEGMENT
??_C@_0BI@HGMFLMKJ@?$CFs?5?9?5UnReleased?5Resouce?$AA@ DB '%s - UnRelease'
	DB	'd Resouce', 00H				; `string'
CONST	ENDS
;	COMDAT ??_C@_0CA@GMNHPKAG@ioPrisonWeapon?3?3?$HOioPrisonWeapon?$AA@
CONST	SEGMENT
??_C@_0CA@GMNHPKAG@ioPrisonWeapon?3?3?$HOioPrisonWeapon?$AA@ DB 'ioPrison'
	DB	'Weapon::~ioPrisonWeapon', 00H		; `string'
CONST	ENDS
;	COMDAT xdata$x
xdata$x	SEGMENT
__ehfuncinfo$??1ioPrisonWeapon@@UAE@XZ DD 019930522H
	DD	0cH
	DD	FLAT:__unwindtable$??1ioPrisonWeapon@@UAE@XZ
	DD	2 DUP(00H)
	DD	2 DUP(00H)
	DD	00H
	DD	01H
__unwindtable$??1ioPrisonWeapon@@UAE@XZ DD 0ffffffffH
	DD	FLAT:__unwindfunclet$??1ioPrisonWeapon@@UAE@XZ$0
	DD	00H
	DD	FLAT:__unwindfunclet$??1ioPrisonWeapon@@UAE@XZ$1
	DD	01H
	DD	FLAT:__unwindfunclet$??1ioPrisonWeapon@@UAE@XZ$2
	DD	02H
	DD	FLAT:__unwindfunclet$??1ioPrisonWeapon@@UAE@XZ$3
	DD	03H
	DD	FLAT:__unwindfunclet$??1ioPrisonWeapon@@UAE@XZ$4
	DD	04H
	DD	FLAT:__unwindfunclet$??1ioPrisonWeapon@@UAE@XZ$5
	DD	05H
	DD	FLAT:__unwindfunclet$??1ioPrisonWeapon@@UAE@XZ$6
	DD	06H
	DD	FLAT:__unwindfunclet$??1ioPrisonWeapon@@UAE@XZ$7
	DD	07H
	DD	FLAT:__unwindfunclet$??1ioPrisonWeapon@@UAE@XZ$8
	DD	08H
	DD	FLAT:__unwindfunclet$??1ioPrisonWeapon@@UAE@XZ$9
	DD	09H
	DD	FLAT:__unwindfunclet$??1ioPrisonWeapon@@UAE@XZ$10
	DD	0aH
	DD	FLAT:__unwindfunclet$??1ioPrisonWeapon@@UAE@XZ$11
; Function compile flags: /Ogsp
; File d:\lost saga for developer\youtube\tutorial\source\src\lsclient\ioprisonweapon.cpp
xdata$x	ENDS
;	COMDAT ??1ioPrisonWeapon@@UAE@XZ
_TEXT	SEGMENT
_this$ = -16						; size = 4
__$EHRec$ = -12						; size = 12
??1ioPrisonWeapon@@UAE@XZ PROC				; ioPrisonWeapon::~ioPrisonWeapon, COMDAT
; _this$ = ecx

; 22   : {

  00000	6a 04		 push	 4
  00002	b8 00 00 00 00	 mov	 eax, __ehhandler$??1ioPrisonWeapon@@UAE@XZ
  00007	e8 00 00 00 00	 call	 __EH_prolog3
  0000c	8b f1		 mov	 esi, ecx
  0000e	89 75 f0	 mov	 DWORD PTR _this$[ebp], esi
  00011	c7 06 00 00 00
	00		 mov	 DWORD PTR [esi], OFFSET ??_7ioPrisonWeapon@@6B@

; 23   : 	if( m_pFireMesh )

  00017	83 be dc 08 00
	00 00		 cmp	 DWORD PTR [esi+2268], 0
  0001e	c7 45 fc 0b 00
	00 00		 mov	 DWORD PTR __$EHRec$[ebp+8], 11 ; 0000000bH
  00025	74 1b		 je	 SHORT $LN1@ioPrisonWe

; 24   : 	{
; 25   : 		LOG.PrintTimeAndLog( 0, "%s - UnReleased Resouce", __FUNCTION__ );

  00027	68 00 00 00 00	 push	 OFFSET ??_C@_0CA@GMNHPKAG@ioPrisonWeapon?3?3?$HOioPrisonWeapon?$AA@
  0002c	68 00 00 00 00	 push	 OFFSET ??_C@_0BI@HGMFLMKJ@?$CFs?5?9?5UnReleased?5Resouce?$AA@
  00031	6a 00		 push	 0
  00033	ff 35 00 00 00
	00		 push	 DWORD PTR __imp_?LOG@@3VCLog@@A
  00039	ff 15 00 00 00
	00		 call	 DWORD PTR __imp_?PrintTimeAndLog@CLog@@QAAXHPADZZ
  0003f	83 c4 10	 add	 esp, 16			; 00000010H
$LN1@ioPrisonWe:

; 26   : 	}
; 27   : }

  00042	8d 8e 3c 0a 00
	00		 lea	 ecx, DWORD PTR [esi+2620]
  00048	c6 45 fc 0a	 mov	 BYTE PTR __$EHRec$[ebp+8], 10 ; 0000000aH
  0004c	e8 00 00 00 00	 call	 ?_Tidy@?$vector@UUpDownInfo@ioPrisonWeapon@@V?$allocator@UUpDownInfo@ioPrisonWeapon@@@std@@@std@@IAEXXZ ; std::vector<ioPrisonWeapon::UpDownInfo,std::allocator<ioPrisonWeapon::UpDownInfo> >::_Tidy
  00051	bf 00 00 00 00	 mov	 edi, OFFSET ??_7?$CEncrypt@H@@6B@
  00056	8d 8e 18 0a 00
	00		 lea	 ecx, DWORD PTR [esi+2584]
  0005c	c6 45 fc 09	 mov	 BYTE PTR __$EHRec$[ebp+8], 9
  00060	89 be 0c 0a 00
	00		 mov	 DWORD PTR [esi+2572], edi
  00066	e8 00 00 00 00	 call	 ??1ccddaabb@@UAE@XZ	; ccddaabb::~ccddaabb
  0006b	8d 8e e8 09 00
	00		 lea	 ecx, DWORD PTR [esi+2536]
  00071	c6 45 fc 08	 mov	 BYTE PTR __$EHRec$[ebp+8], 8
  00075	89 be dc 09 00
	00		 mov	 DWORD PTR [esi+2524], edi
  0007b	e8 00 00 00 00	 call	 ??1ccddaabb@@UAE@XZ	; ccddaabb::~ccddaabb
  00080	bf 00 00 00 00	 mov	 edi, OFFSET ??_7?$CEncrypt@M@@6B@
  00085	8d 8e b8 09 00
	00		 lea	 ecx, DWORD PTR [esi+2488]
  0008b	c6 45 fc 07	 mov	 BYTE PTR __$EHRec$[ebp+8], 7
  0008f	89 be ac 09 00
	00		 mov	 DWORD PTR [esi+2476], edi
  00095	e8 00 00 00 00	 call	 ??1ccddaabb@@UAE@XZ	; ccddaabb::~ccddaabb
  0009a	8d 8e 88 09 00
	00		 lea	 ecx, DWORD PTR [esi+2440]
  000a0	c6 45 fc 06	 mov	 BYTE PTR __$EHRec$[ebp+8], 6
  000a4	89 be 7c 09 00
	00		 mov	 DWORD PTR [esi+2428], edi
  000aa	e8 00 00 00 00	 call	 ??1ccddaabb@@UAE@XZ	; ccddaabb::~ccddaabb
  000af	8b 3d 00 00 00
	00		 mov	 edi, DWORD PTR __imp_??1ioHashString@@QAE@XZ
  000b5	8d 8e 64 09 00
	00		 lea	 ecx, DWORD PTR [esi+2404]
  000bb	c6 45 fc 05	 mov	 BYTE PTR __$EHRec$[ebp+8], 5
  000bf	ff d7		 call	 edi
  000c1	8d 8e 54 09 00
	00		 lea	 ecx, DWORD PTR [esi+2388]
  000c7	c6 45 fc 04	 mov	 BYTE PTR __$EHRec$[ebp+8], 4
  000cb	ff d7		 call	 edi
  000cd	8d 8e 44 09 00
	00		 lea	 ecx, DWORD PTR [esi+2372]
  000d3	c6 45 fc 03	 mov	 BYTE PTR __$EHRec$[ebp+8], 3
  000d7	ff d7		 call	 edi
  000d9	8d 8e 34 09 00
	00		 lea	 ecx, DWORD PTR [esi+2356]
  000df	c6 45 fc 02	 mov	 BYTE PTR __$EHRec$[ebp+8], 2
  000e3	ff d7		 call	 edi
  000e5	8d 8e 24 09 00
	00		 lea	 ecx, DWORD PTR [esi+2340]
  000eb	c6 45 fc 01	 mov	 BYTE PTR __$EHRec$[ebp+8], 1
  000ef	ff d7		 call	 edi
  000f1	8d 8e e0 08 00
	00		 lea	 ecx, DWORD PTR [esi+2272]
  000f7	c6 45 fc 00	 mov	 BYTE PTR __$EHRec$[ebp+8], 0
  000fb	ff 15 00 00 00
	00		 call	 DWORD PTR __imp_??1ioOrientBox@@QAE@XZ
  00101	83 4d fc ff	 or	 DWORD PTR __$EHRec$[ebp+8], -1
  00105	8b ce		 mov	 ecx, esi
  00107	e8 00 00 00 00	 call	 ??1ioWeapon@@UAE@XZ	; ioWeapon::~ioWeapon
  0010c	e8 00 00 00 00	 call	 __EH_epilog3
  00111	c3		 ret	 0
_TEXT	ENDS
;	COMDAT text$x
text$x	SEGMENT
__unwindfunclet$??1ioPrisonWeapon@@UAE@XZ$0:
  00000	8b 4d f0	 mov	 ecx, DWORD PTR _this$[ebp]
  00003	e9 00 00 00 00	 jmp	 ??1ioWeapon@@UAE@XZ	; ioWeapon::~ioWeapon
__unwindfunclet$??1ioPrisonWeapon@@UAE@XZ$1:
  00008	8b 4d f0	 mov	 ecx, DWORD PTR _this$[ebp]
  0000b	81 c1 e0 08 00
	00		 add	 ecx, 2272		; 000008e0H
  00011	ff 25 00 00 00
	00		 jmp	 DWORD PTR __imp_??1ioOrientBox@@QAE@XZ
__unwindfunclet$??1ioPrisonWeapon@@UAE@XZ$2:
  00017	8b 4d f0	 mov	 ecx, DWORD PTR _this$[ebp]
  0001a	81 c1 24 09 00
	00		 add	 ecx, 2340		; 00000924H
  00020	ff 25 00 00 00
	00		 jmp	 DWORD PTR __imp_??1ioHashString@@QAE@XZ
__unwindfunclet$??1ioPrisonWeapon@@UAE@XZ$3:
  00026	8b 4d f0	 mov	 ecx, DWORD PTR _this$[ebp]
  00029	81 c1 34 09 00
	00		 add	 ecx, 2356		; 00000934H
  0002f	ff 25 00 00 00
	00		 jmp	 DWORD PTR __imp_??1ioHashString@@QAE@XZ
__unwindfunclet$??1ioPrisonWeapon@@UAE@XZ$4:
  00035	8b 4d f0	 mov	 ecx, DWORD PTR _this$[ebp]
  00038	81 c1 44 09 00
	00		 add	 ecx, 2372		; 00000944H
  0003e	ff 25 00 00 00
	00		 jmp	 DWORD PTR __imp_??1ioHashString@@QAE@XZ
__unwindfunclet$??1ioPrisonWeapon@@UAE@XZ$5:
  00044	8b 4d f0	 mov	 ecx, DWORD PTR _this$[ebp]
  00047	81 c1 54 09 00
	00		 add	 ecx, 2388		; 00000954H
  0004d	ff 25 00 00 00
	00		 jmp	 DWORD PTR __imp_??1ioHashString@@QAE@XZ
__unwindfunclet$??1ioPrisonWeapon@@UAE@XZ$6:
  00053	8b 4d f0	 mov	 ecx, DWORD PTR _this$[ebp]
  00056	81 c1 64 09 00
	00		 add	 ecx, 2404		; 00000964H
  0005c	ff 25 00 00 00
	00		 jmp	 DWORD PTR __imp_??1ioHashString@@QAE@XZ
__unwindfunclet$??1ioPrisonWeapon@@UAE@XZ$7:
  00062	8b 4d f0	 mov	 ecx, DWORD PTR _this$[ebp]
  00065	81 c1 7c 09 00
	00		 add	 ecx, 2428		; 0000097cH
  0006b	e9 00 00 00 00	 jmp	 ??1?$CEncrypt@M@@UAE@XZ	; CEncrypt<float>::~CEncrypt<float>
__unwindfunclet$??1ioPrisonWeapon@@UAE@XZ$8:
  00070	8b 4d f0	 mov	 ecx, DWORD PTR _this$[ebp]
  00073	81 c1 ac 09 00
	00		 add	 ecx, 2476		; 000009acH
  00079	e9 00 00 00 00	 jmp	 ??1?$CEncrypt@M@@UAE@XZ	; CEncrypt<float>::~CEncrypt<float>
__unwindfunclet$??1ioPrisonWeapon@@UAE@XZ$9:
  0007e	8b 4d f0	 mov	 ecx, DWORD PTR _this$[ebp]
  00081	81 c1 dc 09 00
	00		 add	 ecx, 2524		; 000009dcH
  00087	e9 00 00 00 00	 jmp	 ??1?$CEncrypt@H@@UAE@XZ	; CEncrypt<int>::~CEncrypt<int>
__unwindfunclet$??1ioPrisonWeapon@@UAE@XZ$10:
  0008c	8b 4d f0	 mov	 ecx, DWORD PTR _this$[ebp]
  0008f	81 c1 0c 0a 00
	00		 add	 ecx, 2572		; 00000a0cH
  00095	e9 00 00 00 00	 jmp	 ??1?$CEncrypt@H@@UAE@XZ	; CEncrypt<int>::~CEncrypt<int>
__unwindfunclet$??1ioPrisonWeapon@@UAE@XZ$11:
  0009a	8b 4d f0	 mov	 ecx, DWORD PTR _this$[ebp]
  0009d	81 c1 3c 0a 00
	00		 add	 ecx, 2620		; 00000a3cH
  000a3	e9 00 00 00 00	 jmp	 ??1?$vector@UUpDownInfo@ioPrisonWeapon@@V?$allocator@UUpDownInfo@ioPrisonWeapon@@@std@@@std@@QAE@XZ ; std::vector<ioPrisonWeapon::UpDownInfo,std::allocator<ioPrisonWeapon::UpDownInfo> >::~vector<ioPrisonWeapon::UpDownInfo,std::allocator<ioPrisonWeapon::UpDownInfo> >
__ehhandler$??1ioPrisonWeapon@@UAE@XZ:
  000a8	8b 54 24 08	 mov	 edx, DWORD PTR [esp+8]
  000ac	8d 42 0c	 lea	 eax, DWORD PTR [edx+12]
  000af	8b 4a ec	 mov	 ecx, DWORD PTR [edx-20]
  000b2	33 c8		 xor	 ecx, eax
  000b4	e8 00 00 00 00	 call	 @__security_check_cookie@4
  000b9	b8 00 00 00 00	 mov	 eax, OFFSET __ehfuncinfo$??1ioPrisonWeapon@@UAE@XZ
  000be	e9 00 00 00 00	 jmp	 ___CxxFrameHandler3
text$x	ENDS
??1ioPrisonWeapon@@UAE@XZ ENDP				; ioPrisonWeapon::~ioPrisonWeapon
PUBLIC	?push_back@?$vector@UUpDownInfo@ioPrisonWeapon@@V?$allocator@UUpDownInfo@ioPrisonWeapon@@@std@@@std@@QAEXABUUpDownInfo@ioPrisonWeapon@@@Z ; std::vector<ioPrisonWeapon::UpDownInfo,std::allocator<ioPrisonWeapon::UpDownInfo> >::push_back
; Function compile flags: /Ogsp
; File c:\program files (x86)\microsoft visual studio 10.0\vc\include\vector
;	COMDAT ?push_back@?$vector@UUpDownInfo@ioPrisonWeapon@@V?$allocator@UUpDownInfo@ioPrisonWeapon@@@std@@@std@@QAEXABUUpDownInfo@ioPrisonWeapon@@@Z
_TEXT	SEGMENT
__Val$ = 8						; size = 4
?push_back@?$vector@UUpDownInfo@ioPrisonWeapon@@V?$allocator@UUpDownInfo@ioPrisonWeapon@@@std@@@std@@QAEXABUUpDownInfo@ioPrisonWeapon@@@Z PROC ; std::vector<ioPrisonWeapon::UpDownInfo,std::allocator<ioPrisonWeapon::UpDownInfo> >::push_back, COMDAT
; _this$ = ecx

; 976  : 		{	// insert element at end

  00000	55		 push	 ebp
  00001	8b ec		 mov	 ebp, esp
  00003	56		 push	 esi
  00004	8b f1		 mov	 esi, ecx

; 977  : 		if (_Inside(_STD addressof(_Val)))

  00006	8b 4e 04	 mov	 ecx, DWORD PTR [esi+4]
  00009	57		 push	 edi
  0000a	8b 7d 08	 mov	 edi, DWORD PTR __Val$[ebp]
  0000d	3b f9		 cmp	 edi, ecx
  0000f	73 33		 jae	 SHORT $LN4@push_back@2
  00011	8b 16		 mov	 edx, DWORD PTR [esi]
  00013	3b d7		 cmp	 edx, edi
  00015	77 2d		 ja	 SHORT $LN4@push_back@2

; 978  : 			{	// push back an element
; 979  : 			size_type _Idx = _STD addressof(_Val) - this->_Myfirst;

  00017	8b c7		 mov	 eax, edi
  00019	2b c2		 sub	 eax, edx
  0001b	6a 14		 push	 20			; 00000014H
  0001d	99		 cdq
  0001e	5f		 pop	 edi
  0001f	f7 ff		 idiv	 edi
  00021	8b f8		 mov	 edi, eax

; 980  : 			if (this->_Mylast == this->_Myend)

  00023	3b 4e 08	 cmp	 ecx, DWORD PTR [esi+8]
  00026	75 09		 jne	 SHORT $LN3@push_back@2

; 981  : 				_Reserve(1);

  00028	6a 01		 push	 1
  0002a	8b ce		 mov	 ecx, esi
  0002c	e8 00 00 00 00	 call	 ?_Reserve@?$vector@UUpDownInfo@ioPrisonWeapon@@V?$allocator@UUpDownInfo@ioPrisonWeapon@@@std@@@std@@IAEXI@Z ; std::vector<ioPrisonWeapon::UpDownInfo,std::allocator<ioPrisonWeapon::UpDownInfo> >::_Reserve
$LN3@push_back@2:

; 982  : 			_Orphan_range(this->_Mylast, this->_Mylast);
; 983  : 			_Cons_val(this->_Alval,
; 984  : 				this->_Mylast,
; 985  : 				this->_Myfirst[_Idx]);

  00031	6b ff 14	 imul	 edi, 20			; 00000014H
  00034	03 3e		 add	 edi, DWORD PTR [esi]
  00036	8d 4e 0c	 lea	 ecx, DWORD PTR [esi+12]
  00039	57		 push	 edi
  0003a	ff 76 04	 push	 DWORD PTR [esi+4]
  0003d	e8 00 00 00 00	 call	 ??$construct@AAUUpDownInfo@ioPrisonWeapon@@@?$allocator@UUpDownInfo@ioPrisonWeapon@@@std@@QAEXPAUUpDownInfo@ioPrisonWeapon@@AAU23@@Z ; std::allocator<ioPrisonWeapon::UpDownInfo>::construct<ioPrisonWeapon::UpDownInfo &>

; 986  : 			++this->_Mylast;
; 987  : 			}
; 988  : 		else

  00042	eb 19		 jmp	 SHORT $LN30@push_back@2
$LN4@push_back@2:

; 989  : 			{	// push back a non-element
; 990  : 			if (this->_Mylast == this->_Myend)

  00044	3b 4e 08	 cmp	 ecx, DWORD PTR [esi+8]
  00047	75 09		 jne	 SHORT $LN1@push_back@2

; 991  : 				_Reserve(1);

  00049	6a 01		 push	 1
  0004b	8b ce		 mov	 ecx, esi
  0004d	e8 00 00 00 00	 call	 ?_Reserve@?$vector@UUpDownInfo@ioPrisonWeapon@@V?$allocator@UUpDownInfo@ioPrisonWeapon@@@std@@@std@@IAEXI@Z ; std::vector<ioPrisonWeapon::UpDownInfo,std::allocator<ioPrisonWeapon::UpDownInfo> >::_Reserve
$LN1@push_back@2:

; 992  : 			_Orphan_range(this->_Mylast, this->_Mylast);
; 993  : 			_Cons_val(this->_Alval,
; 994  : 				this->_Mylast,
; 995  : 				_Val);

  00052	57		 push	 edi
  00053	ff 76 04	 push	 DWORD PTR [esi+4]
  00056	e8 00 00 00 00	 call	 ??$_Construct@UUpDownInfo@ioPrisonWeapon@@ABU12@@std@@YAXPAUUpDownInfo@ioPrisonWeapon@@ABU12@@Z ; std::_Construct<ioPrisonWeapon::UpDownInfo,ioPrisonWeapon::UpDownInfo const &>
  0005b	59		 pop	 ecx
  0005c	59		 pop	 ecx
$LN30@push_back@2:

; 996  : 			++this->_Mylast;

  0005d	83 46 04 14	 add	 DWORD PTR [esi+4], 20	; 00000014H
  00061	5f		 pop	 edi
  00062	5e		 pop	 esi

; 997  : 			}
; 998  : 		}

  00063	5d		 pop	 ebp
  00064	c2 04 00	 ret	 4
?push_back@?$vector@UUpDownInfo@ioPrisonWeapon@@V?$allocator@UUpDownInfo@ioPrisonWeapon@@@std@@@std@@QAEXABUUpDownInfo@ioPrisonWeapon@@@Z ENDP ; std::vector<ioPrisonWeapon::UpDownInfo,std::allocator<ioPrisonWeapon::UpDownInfo> >::push_back
; Function compile flags: /Ogsp
_TEXT	ENDS
;	COMDAT ??_GioPrisonWeapon@@UAEPAXI@Z
_TEXT	SEGMENT
___flags$ = 8						; size = 4
??_GioPrisonWeapon@@UAEPAXI@Z PROC			; ioPrisonWeapon::`scalar deleting destructor', COMDAT
; _this$ = ecx
  00000	55		 push	 ebp
  00001	8b ec		 mov	 ebp, esp
  00003	56		 push	 esi
  00004	8b f1		 mov	 esi, ecx
  00006	e8 00 00 00 00	 call	 ??1ioPrisonWeapon@@UAE@XZ ; ioPrisonWeapon::~ioPrisonWeapon
  0000b	f6 45 08 01	 test	 BYTE PTR ___flags$[ebp], 1
  0000f	74 07		 je	 SHORT $LN1@scalar@5
  00011	56		 push	 esi
  00012	e8 00 00 00 00	 call	 ??3@YAXPAX@Z		; operator delete
  00017	59		 pop	 ecx
$LN1@scalar@5:
  00018	8b c6		 mov	 eax, esi
  0001a	5e		 pop	 esi
  0001b	5d		 pop	 ebp
  0001c	c2 04 00	 ret	 4
??_GioPrisonWeapon@@UAEPAXI@Z ENDP			; ioPrisonWeapon::`scalar deleting destructor'
_TEXT	ENDS
EXTRN	__imp__wsprintfA:PROC
;	COMDAT xdata$x
xdata$x	SEGMENT
__unwindtable$?LoadUpDownProperty@ioPrisonWeapon@@UAEXAAVioINILoader@@@Z DD 0ffffffffH
	DD	FLAT:__unwindfunclet$?LoadUpDownProperty@ioPrisonWeapon@@UAEXAAVioINILoader@@@Z$0
__ehfuncinfo$?LoadUpDownProperty@ioPrisonWeapon@@UAEXAAVioINILoader@@@Z DD 019930522H
	DD	01H
	DD	FLAT:__unwindtable$?LoadUpDownProperty@ioPrisonWeapon@@UAEXAAVioINILoader@@@Z
	DD	2 DUP(00H)
	DD	2 DUP(00H)
	DD	00H
	DD	01H
; Function compile flags: /Ogsp
; File d:\lost saga for developer\youtube\tutorial\source\src\lsclient\ioprisonweapon.cpp
xdata$x	ENDS
;	COMDAT ?LoadUpDownProperty@ioPrisonWeapon@@UAEXAAVioINILoader@@@Z
_TEXT	SEGMENT
_Info$531361 = -396					; size = 20
tv4013 = -376						; size = 4
tv546 = -372						; size = 4
_iUpDownCnt$ = -372					; size = 4
tv4785 = -368						; size = 4
$T542187 = -364						; size = 4
tv1142 = -364						; size = 4
_iUpDownMoveCnt$531515 = -364				; size = 4
tv4796 = -360						; size = 4
_szBuf$ = -356						; size = 260
___encStr$531980 = -96					; size = 26
__k$542028 = -64					; size = 11
_MoveInfo$531672 = -64					; size = 12
___encStr$531828 = -48					; size = 26
___encStr$531676 = -44					; size = 22
___encStr$531519 = -44					; size = 21
___encStr$531365 = -40					; size = 18
__$EHRec$ = -12						; size = 12
_rkLoader$ = 8						; size = 4
?LoadUpDownProperty@ioPrisonWeapon@@UAEXAAVioINILoader@@@Z PROC ; ioPrisonWeapon::LoadUpDownProperty, COMDAT
; _this$ = ecx

; 89   : {

  00000	68 80 01 00 00	 push	 384			; 00000180H
  00005	b8 00 00 00 00	 mov	 eax, __ehhandler$?LoadUpDownProperty@ioPrisonWeapon@@UAEXAAVioINILoader@@@Z
  0000a	e8 00 00 00 00	 call	 __EH_prolog3_GS
  0000f	8b 7d 08	 mov	 edi, DWORD PTR _rkLoader$[ebp]

; 90   : 	char szBuf[MAX_PATH] = "";

  00012	33 db		 xor	 ebx, ebx
  00014	68 03 01 00 00	 push	 259			; 00000103H
  00019	8d 85 9d fe ff
	ff		 lea	 eax, DWORD PTR _szBuf$[ebp+1]
  0001f	53		 push	 ebx
  00020	50		 push	 eax
  00021	8b f1		 mov	 esi, ecx
  00023	88 9d 9c fe ff
	ff		 mov	 BYTE PTR _szBuf$[ebp], bl
  00029	e8 00 00 00 00	 call	 _memset
  0002e	83 c4 0c	 add	 esp, 12			; 0000000cH

; 91   : 
; 92   : 	int iUpDownCnt = rkLoader.LoadInt_e( "updown_cnt", 0 );

  00031	6a 02		 push	 2
  00033	c7 45 c0 98 9c
	8f 85		 mov	 DWORD PTR __k$542028[ebp], -2054185832 ; 858f9c98H
  0003a	c7 45 c4 9a 82
	b4 89		 mov	 DWORD PTR __k$542028[ebp+4], -1984658790 ; 89b4829aH
  00041	66 c7 45 c8 83
	98		 mov	 WORD PTR __k$542028[ebp+8], 39043 ; 00009883H
  00047	8d 45 c0	 lea	 eax, DWORD PTR __k$542028[ebp]
  0004a	88 5d ca	 mov	 BYTE PTR __k$542028[ebp+10], bl
  0004d	59		 pop	 ecx
$LL608@LoadUpDown:
  0004e	81 30 ed ec eb
	ea		 xor	 DWORD PTR [eax], -353637139 ; eaebecedH
  00054	83 c0 04	 add	 eax, 4
  00057	49		 dec	 ecx
  00058	75 f4		 jne	 SHORT $LL608@LoadUpDown
  0005a	6a 08		 push	 8
  0005c	58		 pop	 eax
$LL605@LoadUpDown:
  0005d	8b c8		 mov	 ecx, eax
  0005f	81 e1 03 00 00
	80		 and	 ecx, -2147483645	; 80000003H
  00065	79 05		 jns	 SHORT $LN719@LoadUpDown
  00067	49		 dec	 ecx
  00068	83 c9 fc	 or	 ecx, -4			; fffffffcH
  0006b	41		 inc	 ecx
$LN719@LoadUpDown:
  0006c	b2 ed		 mov	 dl, -19			; ffffffedH
  0006e	2a d1		 sub	 dl, cl
  00070	30 54 05 c0	 xor	 BYTE PTR __k$542028[ebp+eax], dl
  00074	40		 inc	 eax
  00075	83 f8 0a	 cmp	 eax, 10			; 0000000aH
  00078	7c e3		 jl	 SHORT $LL605@LoadUpDown
  0007a	53		 push	 ebx
  0007b	8d 45 c0	 lea	 eax, DWORD PTR __k$542028[ebp]
  0007e	50		 push	 eax
  0007f	8b cf		 mov	 ecx, edi
  00081	ff 15 00 00 00
	00		 call	 DWORD PTR __imp_?LoadInt@ioINILoader@@QAEHPBDH@Z

; 93   : 	m_vUpDownInfo.clear();

  00087	8d 8e 3c 0a 00
	00		 lea	 ecx, DWORD PTR [esi+2620]
  0008d	8b 11		 mov	 edx, DWORD PTR [ecx]
  0008f	89 85 8c fe ff
	ff		 mov	 DWORD PTR _iUpDownCnt$[ebp], eax
  00095	8b 41 04	 mov	 eax, DWORD PTR [ecx+4]
  00098	50		 push	 eax
  00099	52		 push	 edx
  0009a	8d 85 94 fe ff
	ff		 lea	 eax, DWORD PTR $T542187[ebp]
  000a0	50		 push	 eax
  000a1	89 8d 88 fe ff
	ff		 mov	 DWORD PTR tv4013[ebp], ecx
  000a7	e8 00 00 00 00	 call	 ?erase@?$vector@UUpDownInfo@ioPrisonWeapon@@V?$allocator@UUpDownInfo@ioPrisonWeapon@@@std@@@std@@QAE?AV?$_Vector_iterator@V?$_Vector_val@UUpDownInfo@ioPrisonWeapon@@V?$allocator@UUpDownInfo@ioPrisonWeapon@@@std@@@std@@@2@V?$_Vector_const_iterator@V?$_Vector_val@UUpDownInfo@ioPrisonWeapon@@V?$allocator@UUpDownInfo@ioPrisonWeapon@@@std@@@std@@@2@0@Z ; std::vector<ioPrisonWeapon::UpDownInfo,std::allocator<ioPrisonWeapon::UpDownInfo> >::erase

; 94   : 
; 95   : 	for( int i = 0; i < iUpDownCnt; ++i )

  000ac	8b 85 8c fe ff
	ff		 mov	 eax, DWORD PTR _iUpDownCnt$[ebp]
  000b2	3b c3		 cmp	 eax, ebx
  000b4	0f 8e e3 02 00
	00		 jle	 $LN499@LoadUpDown

; 91   : 
; 92   : 	int iUpDownCnt = rkLoader.LoadInt_e( "updown_cnt", 0 );

  000ba	8b 35 00 00 00
	00		 mov	 esi, DWORD PTR __imp__wsprintfA
  000c0	c7 85 98 fe ff
	ff 01 00 00 00	 mov	 DWORD PTR tv4796[ebp], 1
  000ca	89 85 8c fe ff
	ff		 mov	 DWORD PTR tv546[ebp], eax
$LN501@LoadUpDown:

; 96   : 	{
; 97   : 		UpDownInfo Info;

  000d0	0f 57 c0	 xorps	 xmm0, xmm0
  000d3	89 9d 74 fe ff
	ff		 mov	 DWORD PTR _Info$531361[ebp], ebx
  000d9	89 9d 78 fe ff
	ff		 mov	 DWORD PTR _Info$531361[ebp+4], ebx
  000df	89 9d 7c fe ff
	ff		 mov	 DWORD PTR _Info$531361[ebp+8], ebx
  000e5	f3 0f 11 85 84
	fe ff ff	 movss	 DWORD PTR _Info$531361[ebp+16], xmm0
  000ed	6a 04		 push	 4
  000ef	89 5d fc	 mov	 DWORD PTR __$EHRec$[ebp+8], ebx

; 98   : 
; 99   : 		wsprintf_e( szBuf, "updown_move%d_cnt", i + 1 );

  000f2	c7 45 d8 98 9c
	8f 85		 mov	 DWORD PTR ___encStr$531365[ebp], -2054185832 ; 858f9c98H
  000f9	c7 45 dc 9a 82
	b4 87		 mov	 DWORD PTR ___encStr$531365[ebp+4], -2018213222 ; 87b4829aH
  00100	c7 45 e0 82 9a
	8e cf		 mov	 DWORD PTR ___encStr$531365[ebp+8], -812737918 ; cf8e9a82H
  00107	c7 45 e4 89 b3
	88 84		 mov	 DWORD PTR ___encStr$531365[ebp+12], -2071415927 ; 8488b389H
  0010e	8d 45 d8	 lea	 eax, DWORD PTR ___encStr$531365[ebp]
  00111	66 c7 45 e8 99
	00		 mov	 WORD PTR ___encStr$531365[ebp+16], 153 ; 00000099H
  00117	59		 pop	 ecx
$LL644@LoadUpDown:
  00118	81 30 ed ec eb
	ea		 xor	 DWORD PTR [eax], -353637139 ; eaebecedH
  0011e	83 c0 04	 add	 eax, 4
  00121	49		 dec	 ecx
  00122	75 f4		 jne	 SHORT $LL644@LoadUpDown
  00124	ff b5 98 fe ff
	ff		 push	 DWORD PTR tv4796[ebp]
  0012a	80 75 e8 ed	 xor	 BYTE PTR ___encStr$531365[ebp+16], -19 ; ffffffedH
  0012e	8d 45 d8	 lea	 eax, DWORD PTR ___encStr$531365[ebp]
  00131	50		 push	 eax
  00132	8d 85 9c fe ff
	ff		 lea	 eax, DWORD PTR _szBuf$[ebp]
  00138	50		 push	 eax
  00139	ff d6		 call	 esi
  0013b	83 c4 0c	 add	 esp, 12			; 0000000cH

; 100  : 		int iUpDownMoveCnt = rkLoader.LoadInt( szBuf, 0.0f );

  0013e	53		 push	 ebx
  0013f	8d 85 9c fe ff
	ff		 lea	 eax, DWORD PTR _szBuf$[ebp]
  00145	50		 push	 eax
  00146	8b cf		 mov	 ecx, edi
  00148	ff 15 00 00 00
	00		 call	 DWORD PTR __imp_?LoadInt@ioINILoader@@QAEHPBDH@Z
  0014e	6a 05		 push	 5
  00150	89 85 94 fe ff
	ff		 mov	 DWORD PTR _iUpDownMoveCnt$531515[ebp], eax

; 101  : 
; 102  : 		wsprintf_e( szBuf, "updown_move%d_height", i + 1 );

  00156	c7 45 d4 98 9c
	8f 85		 mov	 DWORD PTR ___encStr$531519[ebp], -2054185832 ; 858f9c98H
  0015d	c7 45 d8 9a 82
	b4 87		 mov	 DWORD PTR ___encStr$531519[ebp+4], -2018213222 ; 87b4829aH
  00164	c7 45 dc 82 9a
	8e cf		 mov	 DWORD PTR ___encStr$531519[ebp+8], -812737918 ; cf8e9a82H
  0016b	c7 45 e0 89 b3
	83 8f		 mov	 DWORD PTR ___encStr$531519[ebp+12], -1887194231 ; 8f83b389H
  00172	c7 45 e4 84 8b
	83 9e		 mov	 DWORD PTR ___encStr$531519[ebp+16], -1635546236 ; 9e838b84H
  00179	8d 45 d4	 lea	 eax, DWORD PTR ___encStr$531519[ebp]
  0017c	88 5d e8	 mov	 BYTE PTR ___encStr$531519[ebp+20], bl
  0017f	59		 pop	 ecx
$LL652@LoadUpDown:
  00180	81 30 ed ec eb
	ea		 xor	 DWORD PTR [eax], -353637139 ; eaebecedH
  00186	83 c0 04	 add	 eax, 4
  00189	49		 dec	 ecx
  0018a	75 f4		 jne	 SHORT $LL652@LoadUpDown
  0018c	ff b5 98 fe ff
	ff		 push	 DWORD PTR tv4796[ebp]
  00192	8d 45 d4	 lea	 eax, DWORD PTR ___encStr$531519[ebp]
  00195	50		 push	 eax
  00196	8d 85 9c fe ff
	ff		 lea	 eax, DWORD PTR _szBuf$[ebp]
  0019c	50		 push	 eax
  0019d	ff d6		 call	 esi

; 103  : 		Info.m_fMoveUpDownHeight = rkLoader.LoadFloat( szBuf, 0.0f );

  0019f	0f 57 c0	 xorps	 xmm0, xmm0
  001a2	59		 pop	 ecx
  001a3	59		 pop	 ecx
  001a4	8d 85 9c fe ff
	ff		 lea	 eax, DWORD PTR _szBuf$[ebp]
  001aa	f3 0f 11 04 24	 movss	 DWORD PTR [esp], xmm0
  001af	50		 push	 eax
  001b0	8b cf		 mov	 ecx, edi
  001b2	ff 15 00 00 00
	00		 call	 DWORD PTR __imp_?LoadFloat@ioINILoader@@QAEMPBDM@Z
  001b8	d9 9d 84 fe ff
	ff		 fstp	 DWORD PTR _Info$531361[ebp+16]

; 104  : 
; 105  : 		for( int j = 0; j < iUpDownMoveCnt; ++j )

  001be	8b 85 94 fe ff
	ff		 mov	 eax, DWORD PTR _iUpDownMoveCnt$531515[ebp]
  001c4	3b c3		 cmp	 eax, ebx
  001c6	0f 8e 9e 01 00
	00		 jle	 $LN298@LoadUpDown

; 101  : 
; 102  : 		wsprintf_e( szBuf, "updown_move%d_height", i + 1 );

  001cc	c7 85 90 fe ff
	ff 01 00 00 00	 mov	 DWORD PTR tv4785[ebp], 1
  001d6	89 85 94 fe ff
	ff		 mov	 DWORD PTR tv1142[ebp], eax
$LN300@LoadUpDown:
  001dc	6a 05		 push	 5

; 106  : 		{
; 107  : 			UpDownMoveInfo MoveInfo;
; 108  : 			wsprintf_e( szBuf, "updown_move%d_speed%d", i + 1, j + 1 );

  001de	c7 45 d4 98 9c
	8f 85		 mov	 DWORD PTR ___encStr$531676[ebp], -2054185832 ; 858f9c98H
  001e5	c7 45 d8 9a 82
	b4 87		 mov	 DWORD PTR ___encStr$531676[ebp+4], -2018213222 ; 87b4829aH
  001ec	c7 45 dc 82 9a
	8e cf		 mov	 DWORD PTR ___encStr$531676[ebp+8], -812737918 ; cf8e9a82H
  001f3	c7 45 e0 89 b3
	98 9a		 mov	 DWORD PTR ___encStr$531676[ebp+12], -1701268599 ; 9a98b389H
  001fa	c7 45 e4 88 89
	8f cf		 mov	 DWORD PTR ___encStr$531676[ebp+16], -812676728 ; cf8f8988H
  00201	8d 45 d4	 lea	 eax, DWORD PTR ___encStr$531676[ebp]
  00204	66 c7 45 e8 89
	00		 mov	 WORD PTR ___encStr$531676[ebp+20], 137 ; 00000089H
  0020a	59		 pop	 ecx
$LL662@LoadUpDown:
  0020b	81 30 ed ec eb
	ea		 xor	 DWORD PTR [eax], -353637139 ; eaebecedH
  00211	83 c0 04	 add	 eax, 4
  00214	49		 dec	 ecx
  00215	75 f4		 jne	 SHORT $LL662@LoadUpDown
  00217	ff b5 90 fe ff
	ff		 push	 DWORD PTR tv4785[ebp]
  0021d	80 75 e8 ed	 xor	 BYTE PTR ___encStr$531676[ebp+20], -19 ; ffffffedH
  00221	ff b5 98 fe ff
	ff		 push	 DWORD PTR tv4796[ebp]
  00227	8d 45 d4	 lea	 eax, DWORD PTR ___encStr$531676[ebp]
  0022a	50		 push	 eax
  0022b	8d 85 9c fe ff
	ff		 lea	 eax, DWORD PTR _szBuf$[ebp]
  00231	50		 push	 eax
  00232	ff d6		 call	 esi

; 109  : 			MoveInfo.m_fMoveSpeed = rkLoader.LoadFloat( szBuf, 0.0f );

  00234	0f 57 c0	 xorps	 xmm0, xmm0
  00237	83 c4 0c	 add	 esp, 12			; 0000000cH
  0023a	8d 85 9c fe ff
	ff		 lea	 eax, DWORD PTR _szBuf$[ebp]
  00240	f3 0f 11 04 24	 movss	 DWORD PTR [esp], xmm0
  00245	50		 push	 eax
  00246	8b cf		 mov	 ecx, edi
  00248	ff 15 00 00 00
	00		 call	 DWORD PTR __imp_?LoadFloat@ioINILoader@@QAEMPBDM@Z
  0024e	d9 5d c0	 fstp	 DWORD PTR _MoveInfo$531672[ebp]
  00251	6a 06		 push	 6

; 110  : 
; 111  : 			wsprintf_e( szBuf, "updown_move%d_max_range%d", i + 1, j + 1 );

  00253	c7 45 d0 98 9c
	8f 85		 mov	 DWORD PTR ___encStr$531828[ebp], -2054185832 ; 858f9c98H
  0025a	c7 45 d4 9a 82
	b4 87		 mov	 DWORD PTR ___encStr$531828[ebp+4], -2018213222 ; 87b4829aH
  00261	c7 45 d8 82 9a
	8e cf		 mov	 DWORD PTR ___encStr$531828[ebp+8], -812737918 ; cf8e9a82H
  00268	c7 45 dc 89 b3
	86 8b		 mov	 DWORD PTR ___encStr$531828[ebp+12], -1954106487 ; 8b86b389H
  0026f	c7 45 e0 95 b3
	99 8b		 mov	 DWORD PTR ___encStr$531828[ebp+16], -1952861291 ; 8b99b395H
  00276	c7 45 e4 83 8b
	8e cf		 mov	 DWORD PTR ___encStr$531828[ebp+20], -812741757 ; cf8e8b83H
  0027d	8d 45 d0	 lea	 eax, DWORD PTR ___encStr$531828[ebp]
  00280	66 c7 45 e8 89
	00		 mov	 WORD PTR ___encStr$531828[ebp+24], 137 ; 00000089H
  00286	59		 pop	 ecx
$LL670@LoadUpDown:
  00287	81 30 ed ec eb
	ea		 xor	 DWORD PTR [eax], -353637139 ; eaebecedH
  0028d	83 c0 04	 add	 eax, 4
  00290	49		 dec	 ecx
  00291	75 f4		 jne	 SHORT $LL670@LoadUpDown
  00293	ff b5 90 fe ff
	ff		 push	 DWORD PTR tv4785[ebp]
  00299	80 75 e8 ed	 xor	 BYTE PTR ___encStr$531828[ebp+24], -19 ; ffffffedH
  0029d	ff b5 98 fe ff
	ff		 push	 DWORD PTR tv4796[ebp]
  002a3	8d 45 d0	 lea	 eax, DWORD PTR ___encStr$531828[ebp]
  002a6	50		 push	 eax
  002a7	8d 85 9c fe ff
	ff		 lea	 eax, DWORD PTR _szBuf$[ebp]
  002ad	50		 push	 eax
  002ae	ff d6		 call	 esi

; 112  : 			MoveInfo.m_fMaxRnage = rkLoader.LoadFloat( szBuf, 0.0f );

  002b0	0f 57 c0	 xorps	 xmm0, xmm0
  002b3	83 c4 0c	 add	 esp, 12			; 0000000cH
  002b6	8d 85 9c fe ff
	ff		 lea	 eax, DWORD PTR _szBuf$[ebp]
  002bc	f3 0f 11 04 24	 movss	 DWORD PTR [esp], xmm0
  002c1	50		 push	 eax
  002c2	8b cf		 mov	 ecx, edi
  002c4	ff 15 00 00 00
	00		 call	 DWORD PTR __imp_?LoadFloat@ioINILoader@@QAEMPBDM@Z
  002ca	d9 5d c8	 fstp	 DWORD PTR _MoveInfo$531672[ebp+8]
  002cd	6a 06		 push	 6

; 113  : 
; 114  : 			wsprintf_e( szBuf, "updown_move%d_min_range%d", i + 1, j + 1 );

  002cf	c7 45 a0 98 9c
	8f 85		 mov	 DWORD PTR ___encStr$531980[ebp], -2054185832 ; 858f9c98H
  002d6	c7 45 a4 9a 82
	b4 87		 mov	 DWORD PTR ___encStr$531980[ebp+4], -2018213222 ; 87b4829aH
  002dd	c7 45 a8 82 9a
	8e cf		 mov	 DWORD PTR ___encStr$531980[ebp+8], -812737918 ; cf8e9a82H
  002e4	c7 45 ac 89 b3
	86 83		 mov	 DWORD PTR ___encStr$531980[ebp+12], -2088324215 ; 8386b389H
  002eb	c7 45 b0 83 b3
	99 8b		 mov	 DWORD PTR ___encStr$531980[ebp+16], -1952861309 ; 8b99b383H
  002f2	c7 45 b4 83 8b
	8e cf		 mov	 DWORD PTR ___encStr$531980[ebp+20], -812741757 ; cf8e8b83H
  002f9	8d 45 a0	 lea	 eax, DWORD PTR ___encStr$531980[ebp]
  002fc	66 c7 45 b8 89
	00		 mov	 WORD PTR ___encStr$531980[ebp+24], 137 ; 00000089H
  00302	59		 pop	 ecx
$LL678@LoadUpDown:
  00303	81 30 ed ec eb
	ea		 xor	 DWORD PTR [eax], -353637139 ; eaebecedH
  00309	83 c0 04	 add	 eax, 4
  0030c	49		 dec	 ecx
  0030d	75 f4		 jne	 SHORT $LL678@LoadUpDown
  0030f	ff b5 90 fe ff
	ff		 push	 DWORD PTR tv4785[ebp]
  00315	80 75 b8 ed	 xor	 BYTE PTR ___encStr$531980[ebp+24], -19 ; ffffffedH
  00319	ff b5 98 fe ff
	ff		 push	 DWORD PTR tv4796[ebp]
  0031f	8d 45 a0	 lea	 eax, DWORD PTR ___encStr$531980[ebp]
  00322	50		 push	 eax
  00323	8d 85 9c fe ff
	ff		 lea	 eax, DWORD PTR _szBuf$[ebp]
  00329	50		 push	 eax
  0032a	ff d6		 call	 esi

; 115  : 			MoveInfo.m_fMinRnage = rkLoader.LoadFloat( szBuf, 0.0f );

  0032c	0f 57 c0	 xorps	 xmm0, xmm0
  0032f	83 c4 0c	 add	 esp, 12			; 0000000cH
  00332	8d 85 9c fe ff
	ff		 lea	 eax, DWORD PTR _szBuf$[ebp]
  00338	f3 0f 11 04 24	 movss	 DWORD PTR [esp], xmm0
  0033d	50		 push	 eax
  0033e	8b cf		 mov	 ecx, edi
  00340	ff 15 00 00 00
	00		 call	 DWORD PTR __imp_?LoadFloat@ioINILoader@@QAEMPBDM@Z
  00346	d9 5d c4	 fstp	 DWORD PTR _MoveInfo$531672[ebp+4]

; 116  : 
; 117  : 			Info.m_vUpDownMoveInfo.push_back( MoveInfo );

  00349	8d 45 c0	 lea	 eax, DWORD PTR _MoveInfo$531672[ebp]
  0034c	50		 push	 eax
  0034d	8d 8d 74 fe ff
	ff		 lea	 ecx, DWORD PTR _Info$531361[ebp]
  00353	e8 00 00 00 00	 call	 ?push_back@?$vector@UUpDownMoveInfo@ioPrisonWeapon@@V?$allocator@UUpDownMoveInfo@ioPrisonWeapon@@@std@@@std@@QAEXABUUpDownMoveInfo@ioPrisonWeapon@@@Z ; std::vector<ioPrisonWeapon::UpDownMoveInfo,std::allocator<ioPrisonWeapon::UpDownMoveInfo> >::push_back
  00358	ff 85 90 fe ff
	ff		 inc	 DWORD PTR tv4785[ebp]
  0035e	ff 8d 94 fe ff
	ff		 dec	 DWORD PTR tv1142[ebp]
  00364	0f 85 72 fe ff
	ff		 jne	 $LN300@LoadUpDown
$LN298@LoadUpDown:

; 118  : 		}
; 119  : 		m_vUpDownInfo.push_back( Info );

  0036a	8b 8d 88 fe ff
	ff		 mov	 ecx, DWORD PTR tv4013[ebp]
  00370	8d 85 74 fe ff
	ff		 lea	 eax, DWORD PTR _Info$531361[ebp]
  00376	50		 push	 eax
  00377	e8 00 00 00 00	 call	 ?push_back@?$vector@UUpDownInfo@ioPrisonWeapon@@V?$allocator@UUpDownInfo@ioPrisonWeapon@@@std@@@std@@QAEXABUUpDownInfo@ioPrisonWeapon@@@Z ; std::vector<ioPrisonWeapon::UpDownInfo,std::allocator<ioPrisonWeapon::UpDownInfo> >::push_back

; 120  : 	}

  0037c	83 4d fc ff	 or	 DWORD PTR __$EHRec$[ebp+8], -1
  00380	8d 8d 74 fe ff
	ff		 lea	 ecx, DWORD PTR _Info$531361[ebp]
  00386	e8 00 00 00 00	 call	 ?_Tidy@?$vector@UUpDownMoveInfo@ioPrisonWeapon@@V?$allocator@UUpDownMoveInfo@ioPrisonWeapon@@@std@@@std@@IAEXXZ ; std::vector<ioPrisonWeapon::UpDownMoveInfo,std::allocator<ioPrisonWeapon::UpDownMoveInfo> >::_Tidy
  0038b	ff 85 98 fe ff
	ff		 inc	 DWORD PTR tv4796[ebp]
  00391	ff 8d 8c fe ff
	ff		 dec	 DWORD PTR tv546[ebp]
  00397	0f 85 33 fd ff
	ff		 jne	 $LN501@LoadUpDown
$LN499@LoadUpDown:

; 121  : }

  0039d	e8 00 00 00 00	 call	 __EH_epilog3_GS
  003a2	c2 04 00	 ret	 4
_TEXT	ENDS
;	COMDAT text$x
text$x	SEGMENT
__unwindfunclet$?LoadUpDownProperty@ioPrisonWeapon@@UAEXAAVioINILoader@@@Z$0:
  00000	8d 8d 74 fe ff
	ff		 lea	 ecx, DWORD PTR _Info$531361[ebp]
  00006	e9 00 00 00 00	 jmp	 ??1UpDownInfo@ioPrisonWeapon@@QAE@XZ
__ehhandler$?LoadUpDownProperty@ioPrisonWeapon@@UAEXAAVioINILoader@@@Z:
  0000b	8b 54 24 08	 mov	 edx, DWORD PTR [esp+8]
  0000f	8d 42 0c	 lea	 eax, DWORD PTR [edx+12]
  00012	8b 8a 70 fe ff
	ff		 mov	 ecx, DWORD PTR [edx-400]
  00018	33 c8		 xor	 ecx, eax
  0001a	e8 00 00 00 00	 call	 @__security_check_cookie@4
  0001f	8b 4a fc	 mov	 ecx, DWORD PTR [edx-4]
  00022	33 c8		 xor	 ecx, eax
  00024	e8 00 00 00 00	 call	 @__security_check_cookie@4
  00029	b8 00 00 00 00	 mov	 eax, OFFSET __ehfuncinfo$?LoadUpDownProperty@ioPrisonWeapon@@UAEXAAVioINILoader@@@Z
  0002e	e9 00 00 00 00	 jmp	 ___CxxFrameHandler3
text$x	ENDS
?LoadUpDownProperty@ioPrisonWeapon@@UAEXAAVioINILoader@@@Z ENDP ; ioPrisonWeapon::LoadUpDownProperty
END
