; Listing generated by Microsoft (R) Optimizing Compiler Version 16.00.30319.01 

	TITLE	D:\Lost Saga For Developer\Youtube\Tutorial\Source\src\LSClient\ioPushDirectionBuff.cpp
	.686P
	.XMM
	include listing.inc
	.model	flat

INCLUDELIB MSVCRT
INCLUDELIB OLDNAMES

PUBLIC	?_EEM_DS@?$deque@MV?$allocator@M@std@@@std@@2HB	; std::deque<float,std::allocator<float> >::_EEM_DS
PUBLIC	?_VBITS@?$vector@_NV?$allocator@_N@std@@@std@@2HB ; std::vector<bool,std::allocator<bool> >::_VBITS
PUBLIC	?_EEM_DS@?$deque@UD3DXVECTOR3@@V?$allocator@UD3DXVECTOR3@@@std@@@std@@2HB ; std::deque<D3DXVECTOR3,std::allocator<D3DXVECTOR3> >::_EEM_DS
;	COMDAT ?_EEM_DS@?$deque@UD3DXVECTOR3@@V?$allocator@UD3DXVECTOR3@@@std@@@std@@2HB
CONST	SEGMENT
?_EEM_DS@?$deque@UD3DXVECTOR3@@V?$allocator@UD3DXVECTOR3@@@std@@@std@@2HB DD 01H ; std::deque<D3DXVECTOR3,std::allocator<D3DXVECTOR3> >::_EEM_DS
CONST	ENDS
;	COMDAT ?_VBITS@?$vector@_NV?$allocator@_N@std@@@std@@2HB
CONST	SEGMENT
?_VBITS@?$vector@_NV?$allocator@_N@std@@@std@@2HB DD 020H ; std::vector<bool,std::allocator<bool> >::_VBITS
CONST	ENDS
;	COMDAT ?_EEM_DS@?$deque@MV?$allocator@M@std@@@std@@2HB
CONST	SEGMENT
?_EEM_DS@?$deque@MV?$allocator@M@std@@@std@@2HB DD 04H	; std::deque<float,std::allocator<float> >::_EEM_DS
CONST	ENDS
PUBLIC	?return1@@YAIXZ					; return1
; Function compile flags: /Ogsp
; File d:\lost saga for developer\youtube\tutorial\source\src\lsclient\stdafx.h
;	COMDAT ?return1@@YAIXZ
_TEXT	SEGMENT
?return1@@YAIXZ PROC					; return1, COMDAT

; 17   : 	__forceinline unsigned int return1() { __asm mov eax, 1 };

  00000	b8 01 00 00 00	 mov	 eax, 1
  00005	c3		 ret	 0
?return1@@YAIXZ ENDP					; return1
_TEXT	ENDS
PUBLIC	?GetMoveDir@ioBaseChar@@QBEABUD3DXVECTOR3@@XZ	; ioBaseChar::GetMoveDir
; Function compile flags: /Ogsp
; File d:\lost saga for developer\youtube\tutorial\source\src\lsclient\iobasechar.h
;	COMDAT ?GetMoveDir@ioBaseChar@@QBEABUD3DXVECTOR3@@XZ
_TEXT	SEGMENT
?GetMoveDir@ioBaseChar@@QBEABUD3DXVECTOR3@@XZ PROC	; ioBaseChar::GetMoveDir, COMDAT
; _this$ = ecx

; 2596 : 	inline const D3DXVECTOR3& GetMoveDir() const { return m_vMoveDir; }

  00000	8d 81 b4 06 00
	00		 lea	 eax, DWORD PTR [ecx+1716]
  00006	c3		 ret	 0
?GetMoveDir@ioBaseChar@@QBEABUD3DXVECTOR3@@XZ ENDP	; ioBaseChar::GetMoveDir
_TEXT	ENDS
PUBLIC	??0D3DXVECTOR3@@QAE@XZ				; D3DXVECTOR3::D3DXVECTOR3
; Function compile flags: /Ogsp
; File c:\program files (x86)\microsoft directx sdk (june 2010)\include\d3dx9math.h
;	COMDAT ??0D3DXVECTOR3@@QAE@XZ
_TEXT	SEGMENT
??0D3DXVECTOR3@@QAE@XZ PROC				; D3DXVECTOR3::D3DXVECTOR3, COMDAT
; _this$ = ecx

; 165  :     D3DXVECTOR3() {};

  00000	8b c1		 mov	 eax, ecx
  00002	c3		 ret	 0
??0D3DXVECTOR3@@QAE@XZ ENDP				; D3DXVECTOR3::D3DXVECTOR3
_TEXT	ENDS
PUBLIC	??0D3DXQUATERNION@@QAE@XZ			; D3DXQUATERNION::D3DXQUATERNION
; Function compile flags: /Ogsp
;	COMDAT ??0D3DXQUATERNION@@QAE@XZ
_TEXT	SEGMENT
??0D3DXQUATERNION@@QAE@XZ PROC				; D3DXQUATERNION::D3DXQUATERNION, COMDAT
; _this$ = ecx

; 429  :     D3DXQUATERNION() {}

  00000	8b c1		 mov	 eax, ecx
  00002	c3		 ret	 0
??0D3DXQUATERNION@@QAE@XZ ENDP				; D3DXQUATERNION::D3DXQUATERNION
_TEXT	ENDS
PUBLIC	??0D3DXVECTOR3@@QAE@MMM@Z			; D3DXVECTOR3::D3DXVECTOR3
EXTRN	__fltused:DWORD
; Function compile flags: /Ogsp
; File c:\program files (x86)\microsoft directx sdk (june 2010)\include\d3dx9math.inl
;	COMDAT ??0D3DXVECTOR3@@QAE@MMM@Z
_TEXT	SEGMENT
_fx$ = 8						; size = 4
_fy$ = 12						; size = 4
_fz$ = 16						; size = 4
??0D3DXVECTOR3@@QAE@MMM@Z PROC				; D3DXVECTOR3::D3DXVECTOR3, COMDAT
; _this$ = ecx

; 303  : {

  00000	55		 push	 ebp
  00001	8b ec		 mov	 ebp, esp

; 304  :     x = fx;

  00003	f3 0f 10 45 08	 movss	 xmm0, DWORD PTR _fx$[ebp]
  00008	8b c1		 mov	 eax, ecx
  0000a	f3 0f 11 00	 movss	 DWORD PTR [eax], xmm0

; 305  :     y = fy;

  0000e	f3 0f 10 45 0c	 movss	 xmm0, DWORD PTR _fy$[ebp]
  00013	f3 0f 11 40 04	 movss	 DWORD PTR [eax+4], xmm0

; 306  :     z = fz;

  00018	f3 0f 10 45 10	 movss	 xmm0, DWORD PTR _fz$[ebp]
  0001d	f3 0f 11 40 08	 movss	 DWORD PTR [eax+8], xmm0

; 307  : }

  00022	5d		 pop	 ebp
  00023	c2 0c 00	 ret	 12			; 0000000cH
??0D3DXVECTOR3@@QAE@MMM@Z ENDP				; D3DXVECTOR3::D3DXVECTOR3
_TEXT	ENDS
PUBLIC	??8D3DXVECTOR3@@QBEHABU0@@Z			; D3DXVECTOR3::operator==
; Function compile flags: /Ogsp
;	COMDAT ??8D3DXVECTOR3@@QBEHABU0@@Z
_TEXT	SEGMENT
_v$ = 8							; size = 4
??8D3DXVECTOR3@@QBEHABU0@@Z PROC			; D3DXVECTOR3::operator==, COMDAT
; _this$ = ecx

; 413  : {

  00000	55		 push	 ebp
  00001	8b ec		 mov	 ebp, esp

; 414  :     return x == v.x && y == v.y && z == v.z;

  00003	8b 55 08	 mov	 edx, DWORD PTR _v$[ebp]
  00006	f3 0f 10 01	 movss	 xmm0, DWORD PTR [ecx]
  0000a	f3 0f 10 0a	 movss	 xmm1, DWORD PTR [edx]
  0000e	0f 5a c0	 cvtps2pd xmm0, xmm0
  00011	0f 5a c9	 cvtps2pd xmm1, xmm1
  00014	66 0f 2e c1	 ucomisd xmm0, xmm1
  00018	9f		 lahf
  00019	f6 c4 44	 test	 ah, 68			; 00000044H
  0001c	7a 39		 jp	 SHORT $LN3@operator
  0001e	f3 0f 10 41 04	 movss	 xmm0, DWORD PTR [ecx+4]
  00023	f3 0f 10 4a 04	 movss	 xmm1, DWORD PTR [edx+4]
  00028	0f 5a c0	 cvtps2pd xmm0, xmm0
  0002b	0f 5a c9	 cvtps2pd xmm1, xmm1
  0002e	66 0f 2e c1	 ucomisd xmm0, xmm1
  00032	9f		 lahf
  00033	f6 c4 44	 test	 ah, 68			; 00000044H
  00036	7a 1f		 jp	 SHORT $LN3@operator
  00038	f3 0f 10 41 08	 movss	 xmm0, DWORD PTR [ecx+8]
  0003d	f3 0f 10 4a 08	 movss	 xmm1, DWORD PTR [edx+8]
  00042	0f 5a c0	 cvtps2pd xmm0, xmm0
  00045	0f 5a c9	 cvtps2pd xmm1, xmm1
  00048	66 0f 2e c1	 ucomisd xmm0, xmm1
  0004c	9f		 lahf
  0004d	f6 c4 44	 test	 ah, 68			; 00000044H
  00050	7a 05		 jp	 SHORT $LN3@operator
  00052	33 c0		 xor	 eax, eax
  00054	40		 inc	 eax
  00055	eb 02		 jmp	 SHORT $LN4@operator
$LN3@operator:
  00057	33 c0		 xor	 eax, eax
$LN4@operator:

; 415  : }

  00059	5d		 pop	 ebp
  0005a	c2 04 00	 ret	 4
??8D3DXVECTOR3@@QBEHABU0@@Z ENDP			; D3DXVECTOR3::operator==
_TEXT	ENDS
PUBLIC	?D3DXVec3Cross@@YAPAUD3DXVECTOR3@@PAU1@PBU1@1@Z	; D3DXVec3Cross
; Function compile flags: /Ogsp
;	COMDAT ?D3DXVec3Cross@@YAPAUD3DXVECTOR3@@PAU1@PBU1@1@Z
_TEXT	SEGMENT
_v$ = -12						; size = 12
_pOut$ = 8						; size = 4
_pV1$ = 12						; size = 4
_pV2$ = 16						; size = 4
?D3DXVec3Cross@@YAPAUD3DXVECTOR3@@PAU1@PBU1@1@Z PROC	; D3DXVec3Cross, COMDAT

; 1747 : {

  00000	55		 push	 ebp
  00001	8b ec		 mov	 ebp, esp
  00003	83 ec 0c	 sub	 esp, 12			; 0000000cH

; 1757 :     v.z = pV1->x * pV2->y - pV1->y * pV2->x;
; 1758 : 
; 1759 :     *pOut = v;

  00006	56		 push	 esi
  00007	57		 push	 edi

; 1748 :     D3DXVECTOR3 v;
; 1749 : 
; 1750 : #ifdef D3DX_DEBUG
; 1751 :     if(!pOut || !pV1 || !pV2)
; 1752 :         return NULL;
; 1753 : #endif
; 1754 : 
; 1755 :     v.x = pV1->y * pV2->z - pV1->z * pV2->y;

  00008	8b 45 0c	 mov	 eax, DWORD PTR _pV1$[ebp]
  0000b	f3 0f 10 40 04	 movss	 xmm0, DWORD PTR [eax+4]
  00010	f3 0f 10 50 08	 movss	 xmm2, DWORD PTR [eax+8]
  00015	8b 4d 10	 mov	 ecx, DWORD PTR _pV2$[ebp]
  00018	f3 0f 10 49 08	 movss	 xmm1, DWORD PTR [ecx+8]
  0001d	f3 0f 10 59 04	 movss	 xmm3, DWORD PTR [ecx+4]
  00022	0f 5a e8	 cvtps2pd xmm5, xmm0
  00025	0f 5a e1	 cvtps2pd xmm4, xmm1
  00028	0f 5a f2	 cvtps2pd xmm6, xmm2
  0002b	f2 0f 59 e5	 mulsd	 xmm4, xmm5

; 1756 :     v.y = pV1->z * pV2->x - pV1->x * pV2->z;

  0002f	0f 5a d2	 cvtps2pd xmm2, xmm2
  00032	0f 5a c9	 cvtps2pd xmm1, xmm1
  00035	0f 5a eb	 cvtps2pd xmm5, xmm3
  00038	f2 0f 59 ee	 mulsd	 xmm5, xmm6
  0003c	f2 0f 5c e5	 subsd	 xmm4, xmm5
  00040	f3 0f 10 28	 movss	 xmm5, DWORD PTR [eax]

; 1757 :     v.z = pV1->x * pV2->y - pV1->y * pV2->x;
; 1758 : 
; 1759 :     *pOut = v;

  00044	8b 45 08	 mov	 eax, DWORD PTR _pOut$[ebp]
  00047	66 0f 5a e4	 cvtpd2ps xmm4, xmm4
  0004b	f3 0f 11 65 f4	 movss	 DWORD PTR _v$[ebp], xmm4
  00050	f3 0f 10 21	 movss	 xmm4, DWORD PTR [ecx]
  00054	0f 5a f4	 cvtps2pd xmm6, xmm4
  00057	f2 0f 59 f2	 mulsd	 xmm6, xmm2
  0005b	0f 5a d5	 cvtps2pd xmm2, xmm5
  0005e	f2 0f 59 d1	 mulsd	 xmm2, xmm1
  00062	f2 0f 5c f2	 subsd	 xmm6, xmm2
  00066	66 0f 5a ce	 cvtpd2ps xmm1, xmm6
  0006a	f3 0f 11 4d f8	 movss	 DWORD PTR _v$[ebp+4], xmm1
  0006f	0f 5a c0	 cvtps2pd xmm0, xmm0
  00072	0f 5a d3	 cvtps2pd xmm2, xmm3
  00075	0f 5a cd	 cvtps2pd xmm1, xmm5
  00078	f2 0f 59 ca	 mulsd	 xmm1, xmm2
  0007c	8d 75 f4	 lea	 esi, DWORD PTR _v$[ebp]
  0007f	8b f8		 mov	 edi, eax
  00081	0f 5a d4	 cvtps2pd xmm2, xmm4
  00084	f2 0f 59 d0	 mulsd	 xmm2, xmm0
  00088	f2 0f 5c ca	 subsd	 xmm1, xmm2
  0008c	66 0f 5a c1	 cvtpd2ps xmm0, xmm1
  00090	f3 0f 11 45 fc	 movss	 DWORD PTR _v$[ebp+8], xmm0
  00095	a5		 movsd
  00096	a5		 movsd
  00097	a5		 movsd
  00098	5f		 pop	 edi
  00099	5e		 pop	 esi

; 1760 :     return pOut;
; 1761 : }

  0009a	c9		 leave
  0009b	c3		 ret	 0
?D3DXVec3Cross@@YAPAUD3DXVECTOR3@@PAU1@PBU1@1@Z ENDP	; D3DXVec3Cross
_TEXT	ENDS
PUBLIC	??_7ioPushDirectionBuff@@6B@			; ioPushDirectionBuff::`vftable'
PUBLIC	??0ioPushDirectionBuff@@QAE@XZ			; ioPushDirectionBuff::ioPushDirectionBuff
PUBLIC	??_R4ioPushDirectionBuff@@6B@			; ioPushDirectionBuff::`RTTI Complete Object Locator'
PUBLIC	??_R0?AVioPushDirectionBuff@@@8			; ioPushDirectionBuff `RTTI Type Descriptor'
PUBLIC	??_R3ioPushDirectionBuff@@8			; ioPushDirectionBuff::`RTTI Class Hierarchy Descriptor'
PUBLIC	??_R2ioPushDirectionBuff@@8			; ioPushDirectionBuff::`RTTI Base Class Array'
PUBLIC	??_R1A@?0A@EA@ioPushDirectionBuff@@8		; ioPushDirectionBuff::`RTTI Base Class Descriptor at (0,-1,0,64)'
PUBLIC	??_R1A@?0A@EA@ioBuff@@8				; ioBuff::`RTTI Base Class Descriptor at (0,-1,0,64)'
PUBLIC	??_R0?AVioBuff@@@8				; ioBuff `RTTI Type Descriptor'
PUBLIC	??_R3ioBuff@@8					; ioBuff::`RTTI Class Hierarchy Descriptor'
PUBLIC	??_R2ioBuff@@8					; ioBuff::`RTTI Base Class Array'
PUBLIC	?LoadProperty@ioPushDirectionBuff@@UAEXAAVioINILoader@@@Z ; ioPushDirectionBuff::LoadProperty
PUBLIC	?Clone@ioPushDirectionBuff@@UAEPAVioBuff@@XZ	; ioPushDirectionBuff::Clone
PUBLIC	?StartBuff@ioPushDirectionBuff@@UAEXPAVioBaseChar@@@Z ; ioPushDirectionBuff::StartBuff
PUBLIC	?ApplyStartBuff@ioPushDirectionBuff@@UAE_NPAVioBaseChar@@KK@Z ; ioPushDirectionBuff::ApplyStartBuff
PUBLIC	?ProcessBuff@ioPushDirectionBuff@@UAEXM@Z	; ioPushDirectionBuff::ProcessBuff
PUBLIC	?EndBuff@ioPushDirectionBuff@@UAEXXZ		; ioPushDirectionBuff::EndBuff
PUBLIC	?SetAction@ioPushDirectionBuff@@MAEXXZ		; ioPushDirectionBuff::SetAction
PUBLIC	?IsWaitSelfRemove@ioBuff@@UAE_NXZ		; ioBuff::IsWaitSelfRemove
EXTRN	??0ioBuff@@QAE@XZ:PROC				; ioBuff::ioBuff
EXTRN	??_7type_info@@6B@:QWORD			; type_info::`vftable'
EXTRN	?StartBuffWithAniTime@ioBuff@@UAEXPAVioBaseChar@@K@Z:PROC ; ioBuff::StartBuffWithAniTime
EXTRN	?CancelBuff@ioBuff@@UAEXXZ:PROC			; ioBuff::CancelBuff
EXTRN	?GetBuffInfo@ioBuff@@UAEXAAVSP2Packet@@@Z:PROC	; ioBuff::GetBuffInfo
EXTRN	?ApplyBuffInfo@ioBuff@@UAEXAAVSP2Packet@@@Z:PROC ; ioBuff::ApplyBuffInfo
EXTRN	?AccumulateBuff@ioBuff@@UAEXXZ:PROC		; ioBuff::AccumulateBuff
EXTRN	?IsLiveButStopped@ioBuff@@UBE_NXZ:PROC		; ioBuff::IsLiveButStopped
EXTRN	?IsCanJumpAttack@ioBuff@@UBE_NXZ:PROC		; ioBuff::IsCanJumpAttack
EXTRN	?ProcessDelay@ioBuff@@MAEXM@Z:PROC		; ioBuff::ProcessDelay
EXTRN	?SetExtraDurationByGrowth@ioBuff@@UAEXM@Z:PROC	; ioBuff::SetExtraDurationByGrowth
EXTRN	?SetWeaponIndex@ioBuff@@UAEXK@Z:PROC		; ioBuff::SetWeaponIndex
EXTRN	?OnReduceGauge@ioBuff@@UBE_NXZ:PROC		; ioBuff::OnReduceGauge
EXTRN	?IsCharCollisionSkip@ioBuff@@UBE_NXZ:PROC	; ioBuff::IsCharCollisionSkip
EXTRN	?IsCollisionAvailableWeapon@ioBuff@@UBE_NXZ:PROC ; ioBuff::IsCollisionAvailableWeapon
EXTRN	?IsProtected@ioBuff@@UBE_NXZ:PROC		; ioBuff::IsProtected
EXTRN	?UseActiveCount@ioBuff@@UBE_NXZ:PROC		; ioBuff::UseActiveCount
EXTRN	?CheckActiveCount@ioBuff@@UAEXXZ:PROC		; ioBuff::CheckActiveCount
EXTRN	?CheckRemoveEquipSkillBuff@ioBuff@@UAEX_N@Z:PROC ; ioBuff::CheckRemoveEquipSkillBuff
EXTRN	?ApplyExtraBuffInfo@ioBuff@@UAEXAAVSP2Packet@@@Z:PROC ; ioBuff::ApplyExtraBuffInfo
EXTRN	?SetBuffGrapplingState@ioBuff@@UAE_NPAVioBaseChar@@ABVioHashString@@@Z:PROC ; ioBuff::SetBuffGrapplingState
EXTRN	?GetGrapplingTargetPos@ioBuff@@UAE?AUD3DXVECTOR3@@PAVioBaseChar@@@Z:PROC ; ioBuff::GetGrapplingTargetPos
EXTRN	??_EioPushDirectionBuff@@UAEPAXI@Z:PROC		; ioPushDirectionBuff::`vector deleting destructor'
;	COMDAT ??_R2ioBuff@@8
; File d:\lost saga for developer\youtube\tutorial\source\src\lsclient\iopushdirectionbuff.cpp
rdata$r	SEGMENT
??_R2ioBuff@@8 DD FLAT:??_R1A@?0A@EA@ioBuff@@8		; ioBuff::`RTTI Base Class Array'
rdata$r	ENDS
;	COMDAT ??_R3ioBuff@@8
rdata$r	SEGMENT
??_R3ioBuff@@8 DD 00H					; ioBuff::`RTTI Class Hierarchy Descriptor'
	DD	00H
	DD	01H
	DD	FLAT:??_R2ioBuff@@8
rdata$r	ENDS
;	COMDAT ??_R0?AVioBuff@@@8
_DATA	SEGMENT
??_R0?AVioBuff@@@8 DD FLAT:??_7type_info@@6B@		; ioBuff `RTTI Type Descriptor'
	DD	00H
	DB	'.?AVioBuff@@', 00H
_DATA	ENDS
;	COMDAT ??_R1A@?0A@EA@ioBuff@@8
rdata$r	SEGMENT
??_R1A@?0A@EA@ioBuff@@8 DD FLAT:??_R0?AVioBuff@@@8	; ioBuff::`RTTI Base Class Descriptor at (0,-1,0,64)'
	DD	00H
	DD	00H
	DD	0ffffffffH
	DD	00H
	DD	040H
	DD	FLAT:??_R3ioBuff@@8
rdata$r	ENDS
;	COMDAT ??_R1A@?0A@EA@ioPushDirectionBuff@@8
rdata$r	SEGMENT
??_R1A@?0A@EA@ioPushDirectionBuff@@8 DD FLAT:??_R0?AVioPushDirectionBuff@@@8 ; ioPushDirectionBuff::`RTTI Base Class Descriptor at (0,-1,0,64)'
	DD	01H
	DD	00H
	DD	0ffffffffH
	DD	00H
	DD	040H
	DD	FLAT:??_R3ioPushDirectionBuff@@8
rdata$r	ENDS
;	COMDAT ??_R2ioPushDirectionBuff@@8
rdata$r	SEGMENT
??_R2ioPushDirectionBuff@@8 DD FLAT:??_R1A@?0A@EA@ioPushDirectionBuff@@8 ; ioPushDirectionBuff::`RTTI Base Class Array'
	DD	FLAT:??_R1A@?0A@EA@ioBuff@@8
rdata$r	ENDS
;	COMDAT ??_R3ioPushDirectionBuff@@8
rdata$r	SEGMENT
??_R3ioPushDirectionBuff@@8 DD 00H			; ioPushDirectionBuff::`RTTI Class Hierarchy Descriptor'
	DD	00H
	DD	02H
	DD	FLAT:??_R2ioPushDirectionBuff@@8
rdata$r	ENDS
;	COMDAT ??_R0?AVioPushDirectionBuff@@@8
_DATA	SEGMENT
??_R0?AVioPushDirectionBuff@@@8 DD FLAT:??_7type_info@@6B@ ; ioPushDirectionBuff `RTTI Type Descriptor'
	DD	00H
	DB	'.?AVioPushDirectionBuff@@', 00H
_DATA	ENDS
;	COMDAT ??_R4ioPushDirectionBuff@@6B@
rdata$r	SEGMENT
??_R4ioPushDirectionBuff@@6B@ DD 00H			; ioPushDirectionBuff::`RTTI Complete Object Locator'
	DD	00H
	DD	00H
	DD	FLAT:??_R0?AVioPushDirectionBuff@@@8
	DD	FLAT:??_R3ioPushDirectionBuff@@8
rdata$r	ENDS
;	COMDAT ??_7ioPushDirectionBuff@@6B@
CONST	SEGMENT
??_7ioPushDirectionBuff@@6B@ DD FLAT:??_R4ioPushDirectionBuff@@6B@ ; ioPushDirectionBuff::`vftable'
	DD	FLAT:?LoadProperty@ioPushDirectionBuff@@UAEXAAVioINILoader@@@Z
	DD	FLAT:?Clone@ioPushDirectionBuff@@UAEPAVioBuff@@XZ
	DD	FLAT:?StartBuff@ioPushDirectionBuff@@UAEXPAVioBaseChar@@@Z
	DD	FLAT:?StartBuffWithAniTime@ioBuff@@UAEXPAVioBaseChar@@K@Z
	DD	FLAT:?ApplyStartBuff@ioPushDirectionBuff@@UAE_NPAVioBaseChar@@KK@Z
	DD	FLAT:?ProcessBuff@ioPushDirectionBuff@@UAEXM@Z
	DD	FLAT:?EndBuff@ioPushDirectionBuff@@UAEXXZ
	DD	FLAT:?CancelBuff@ioBuff@@UAEXXZ
	DD	FLAT:?GetBuffInfo@ioBuff@@UAEXAAVSP2Packet@@@Z
	DD	FLAT:?ApplyBuffInfo@ioBuff@@UAEXAAVSP2Packet@@@Z
	DD	FLAT:?AccumulateBuff@ioBuff@@UAEXXZ
	DD	FLAT:?IsLiveButStopped@ioBuff@@UBE_NXZ
	DD	FLAT:?IsCanJumpAttack@ioBuff@@UBE_NXZ
	DD	FLAT:?SetAction@ioPushDirectionBuff@@MAEXXZ
	DD	FLAT:?ProcessDelay@ioBuff@@MAEXM@Z
	DD	FLAT:?SetExtraDurationByGrowth@ioBuff@@UAEXM@Z
	DD	FLAT:?SetWeaponIndex@ioBuff@@UAEXK@Z
	DD	FLAT:?OnReduceGauge@ioBuff@@UBE_NXZ
	DD	FLAT:?IsCharCollisionSkip@ioBuff@@UBE_NXZ
	DD	FLAT:?IsCollisionAvailableWeapon@ioBuff@@UBE_NXZ
	DD	FLAT:?IsProtected@ioBuff@@UBE_NXZ
	DD	FLAT:?UseActiveCount@ioBuff@@UBE_NXZ
	DD	FLAT:?CheckActiveCount@ioBuff@@UAEXXZ
	DD	FLAT:?CheckRemoveEquipSkillBuff@ioBuff@@UAEX_N@Z
	DD	FLAT:?ApplyExtraBuffInfo@ioBuff@@UAEXAAVSP2Packet@@@Z
	DD	FLAT:?SetBuffGrapplingState@ioBuff@@UAE_NPAVioBaseChar@@ABVioHashString@@@Z
	DD	FLAT:?GetGrapplingTargetPos@ioBuff@@UAE?AUD3DXVECTOR3@@PAVioBaseChar@@@Z
	DD	FLAT:?IsWaitSelfRemove@ioBuff@@UAE_NXZ
	DD	FLAT:??_EioPushDirectionBuff@@UAEPAXI@Z
; Function compile flags: /Ogsp
CONST	ENDS
;	COMDAT ??0ioPushDirectionBuff@@QAE@XZ
_TEXT	SEGMENT
??0ioPushDirectionBuff@@QAE@XZ PROC			; ioPushDirectionBuff::ioPushDirectionBuff, COMDAT
; _this$ = ecx

; 13   : {

  00000	56		 push	 esi
  00001	8b f1		 mov	 esi, ecx
  00003	e8 00 00 00 00	 call	 ??0ioBuff@@QAE@XZ	; ioBuff::ioBuff
  00008	c7 06 00 00 00
	00		 mov	 DWORD PTR [esi], OFFSET ??_7ioPushDirectionBuff@@6B@

; 14   : }

  0000e	8b c6		 mov	 eax, esi
  00010	5e		 pop	 esi
  00011	c3		 ret	 0
??0ioPushDirectionBuff@@QAE@XZ ENDP			; ioPushDirectionBuff::ioPushDirectionBuff
_TEXT	ENDS
PUBLIC	??0ioPushDirectionBuff@@QAE@ABV0@@Z		; ioPushDirectionBuff::ioPushDirectionBuff
EXTRN	??0ioBuff@@QAE@ABV0@@Z:PROC			; ioBuff::ioBuff
; Function compile flags: /Ogsp
;	COMDAT ??0ioPushDirectionBuff@@QAE@ABV0@@Z
_TEXT	SEGMENT
_rhs$ = 8						; size = 4
??0ioPushDirectionBuff@@QAE@ABV0@@Z PROC		; ioPushDirectionBuff::ioPushDirectionBuff, COMDAT
; _this$ = ecx

; 22   : {

  00000	55		 push	 ebp
  00001	8b ec		 mov	 ebp, esp
  00003	56		 push	 esi
  00004	57		 push	 edi
  00005	8b 7d 08	 mov	 edi, DWORD PTR _rhs$[ebp]
  00008	57		 push	 edi
  00009	8b f1		 mov	 esi, ecx
  0000b	e8 00 00 00 00	 call	 ??0ioBuff@@QAE@ABV0@@Z	; ioBuff::ioBuff
  00010	c7 06 00 00 00
	00		 mov	 DWORD PTR [esi], OFFSET ??_7ioPushDirectionBuff@@6B@
  00016	d9 87 6c 09 00
	00		 fld	 DWORD PTR [edi+2412]
  0001c	d9 9e 6c 09 00
	00		 fstp	 DWORD PTR [esi+2412]
  00022	8a 87 70 09 00
	00		 mov	 al, BYTE PTR [edi+2416]
  00028	88 86 70 09 00
	00		 mov	 BYTE PTR [esi+2416], al
  0002e	d9 87 74 09 00
	00		 fld	 DWORD PTR [edi+2420]
  00034	d9 9e 74 09 00
	00		 fstp	 DWORD PTR [esi+2420]

; 23   : }

  0003a	8b c6		 mov	 eax, esi
  0003c	d9 87 78 09 00
	00		 fld	 DWORD PTR [edi+2424]
  00042	5f		 pop	 edi
  00043	d9 9e 78 09 00
	00		 fstp	 DWORD PTR [esi+2424]
  00049	5e		 pop	 esi
  0004a	5d		 pop	 ebp
  0004b	c2 04 00	 ret	 4
??0ioPushDirectionBuff@@QAE@ABV0@@Z ENDP		; ioPushDirectionBuff::ioPushDirectionBuff
_TEXT	ENDS
PUBLIC	??1ioPushDirectionBuff@@UAE@XZ			; ioPushDirectionBuff::~ioPushDirectionBuff
EXTRN	??1ioBuff@@UAE@XZ:PROC				; ioBuff::~ioBuff
; Function compile flags: /Ogsp
;	COMDAT ??1ioPushDirectionBuff@@UAE@XZ
_TEXT	SEGMENT
??1ioPushDirectionBuff@@UAE@XZ PROC			; ioPushDirectionBuff::~ioPushDirectionBuff, COMDAT
; _this$ = ecx

; 26   : {

  00000	c7 01 00 00 00
	00		 mov	 DWORD PTR [ecx], OFFSET ??_7ioPushDirectionBuff@@6B@

; 27   : }

  00006	e9 00 00 00 00	 jmp	 ??1ioBuff@@UAE@XZ	; ioBuff::~ioBuff
??1ioPushDirectionBuff@@UAE@XZ ENDP			; ioPushDirectionBuff::~ioPushDirectionBuff
_TEXT	ENDS
EXTRN	??3@YAXPAX@Z:PROC				; operator delete
EXTRN	??2@YAPAXI@Z:PROC				; operator new
EXTRN	___CxxFrameHandler3:PROC
EXTRN	@__security_check_cookie@4:PROC
EXTRN	__EH_epilog3:PROC
EXTRN	__EH_prolog3:PROC
;	COMDAT xdata$x
xdata$x	SEGMENT
__unwindtable$?Clone@ioPushDirectionBuff@@UAEPAVioBuff@@XZ DD 0ffffffffH
	DD	FLAT:__unwindfunclet$?Clone@ioPushDirectionBuff@@UAEPAVioBuff@@XZ$0
__ehfuncinfo$?Clone@ioPushDirectionBuff@@UAEPAVioBuff@@XZ DD 019930522H
	DD	01H
	DD	FLAT:__unwindtable$?Clone@ioPushDirectionBuff@@UAEPAVioBuff@@XZ
	DD	2 DUP(00H)
	DD	2 DUP(00H)
	DD	00H
	DD	01H
; Function compile flags: /Ogsp
xdata$x	ENDS
;	COMDAT ?Clone@ioPushDirectionBuff@@UAEPAVioBuff@@XZ
_TEXT	SEGMENT
$T644994 = -16						; size = 4
__$EHRec$ = -12						; size = 12
?Clone@ioPushDirectionBuff@@UAEPAVioBuff@@XZ PROC	; ioPushDirectionBuff::Clone, COMDAT
; _this$ = ecx

; 42   : {

  00000	6a 04		 push	 4
  00002	b8 00 00 00 00	 mov	 eax, __ehhandler$?Clone@ioPushDirectionBuff@@UAEPAVioBuff@@XZ
  00007	e8 00 00 00 00	 call	 __EH_prolog3
  0000c	8b f1		 mov	 esi, ecx

; 43   : 	return new ioPushDirectionBuff( *this );

  0000e	68 7c 09 00 00	 push	 2428			; 0000097cH
  00013	e8 00 00 00 00	 call	 ??2@YAPAXI@Z		; operator new
  00018	59		 pop	 ecx
  00019	8b c8		 mov	 ecx, eax
  0001b	89 4d f0	 mov	 DWORD PTR $T644994[ebp], ecx
  0001e	33 c0		 xor	 eax, eax
  00020	89 45 fc	 mov	 DWORD PTR __$EHRec$[ebp+8], eax
  00023	3b c8		 cmp	 ecx, eax
  00025	74 06		 je	 SHORT $LN3@Clone
  00027	56		 push	 esi
  00028	e8 00 00 00 00	 call	 ??0ioPushDirectionBuff@@QAE@ABV0@@Z ; ioPushDirectionBuff::ioPushDirectionBuff
$LN3@Clone:

; 44   : }

  0002d	e8 00 00 00 00	 call	 __EH_epilog3
  00032	c3		 ret	 0
_TEXT	ENDS
;	COMDAT text$x
text$x	SEGMENT
__unwindfunclet$?Clone@ioPushDirectionBuff@@UAEPAVioBuff@@XZ$0:
  00000	ff 75 f0	 push	 DWORD PTR $T644994[ebp]
  00003	e8 00 00 00 00	 call	 ??3@YAXPAX@Z		; operator delete
  00008	59		 pop	 ecx
  00009	c3		 ret	 0
__ehhandler$?Clone@ioPushDirectionBuff@@UAEPAVioBuff@@XZ:
  0000a	8b 54 24 08	 mov	 edx, DWORD PTR [esp+8]
  0000e	8d 42 0c	 lea	 eax, DWORD PTR [edx+12]
  00011	8b 4a ec	 mov	 ecx, DWORD PTR [edx-20]
  00014	33 c8		 xor	 ecx, eax
  00016	e8 00 00 00 00	 call	 @__security_check_cookie@4
  0001b	b8 00 00 00 00	 mov	 eax, OFFSET __ehfuncinfo$?Clone@ioPushDirectionBuff@@UAEPAVioBuff@@XZ
  00020	e9 00 00 00 00	 jmp	 ___CxxFrameHandler3
text$x	ENDS
?Clone@ioPushDirectionBuff@@UAEPAVioBuff@@XZ ENDP	; ioPushDirectionBuff::Clone
EXTRN	?StartBuff@ioBuff@@UAEXPAVioBaseChar@@@Z:PROC	; ioBuff::StartBuff
; Function compile flags: /Ogsp
;	COMDAT ?StartBuff@ioPushDirectionBuff@@UAEXPAVioBaseChar@@@Z
_TEXT	SEGMENT
_pOwner$ = 8						; size = 4
?StartBuff@ioPushDirectionBuff@@UAEXPAVioBaseChar@@@Z PROC ; ioPushDirectionBuff::StartBuff, COMDAT
; _this$ = ecx

; 47   : {

  00000	55		 push	 ebp
  00001	8b ec		 mov	 ebp, esp
  00003	56		 push	 esi

; 48   : 	ioBuff::StartBuff( pOwner );

  00004	ff 75 08	 push	 DWORD PTR _pOwner$[ebp]
  00007	8b f1		 mov	 esi, ecx
  00009	e8 00 00 00 00	 call	 ?StartBuff@ioBuff@@UAEXPAVioBaseChar@@@Z ; ioBuff::StartBuff

; 49   : 
; 50   : 	if( m_iOperationType != OT_DELAY )

  0000e	83 be d0 03 00
	00 03		 cmp	 DWORD PTR [esi+976], 3
  00015	74 07		 je	 SHORT $LN1@StartBuff

; 51   : 	{
; 52   : 		SetAction();

  00017	8b 06		 mov	 eax, DWORD PTR [esi]
  00019	8b ce		 mov	 ecx, esi
  0001b	ff 50 34	 call	 DWORD PTR [eax+52]
$LN1@StartBuff:
  0001e	5e		 pop	 esi

; 53   : 	}
; 54   : }

  0001f	5d		 pop	 ebp
  00020	c2 04 00	 ret	 4
?StartBuff@ioPushDirectionBuff@@UAEXPAVioBaseChar@@@Z ENDP ; ioPushDirectionBuff::StartBuff
_TEXT	ENDS
EXTRN	?ApplyStartBuff@ioBuff@@UAE_NPAVioBaseChar@@KK@Z:PROC ; ioBuff::ApplyStartBuff
; Function compile flags: /Ogsp
;	COMDAT ?ApplyStartBuff@ioPushDirectionBuff@@UAE_NPAVioBaseChar@@KK@Z
_TEXT	SEGMENT
_pOwner$ = 8						; size = 4
_dwGlobalTime$ = 12					; size = 4
_dwGapTime$ = 16					; size = 4
?ApplyStartBuff@ioPushDirectionBuff@@UAE_NPAVioBaseChar@@KK@Z PROC ; ioPushDirectionBuff::ApplyStartBuff, COMDAT
; _this$ = ecx

; 57   : {

  00000	55		 push	 ebp
  00001	8b ec		 mov	 ebp, esp

; 58   : 	if( !ioBuff::ApplyStartBuff( pOwner, dwGlobalTime, dwGapTime ) )

  00003	ff 75 10	 push	 DWORD PTR _dwGapTime$[ebp]
  00006	ff 75 0c	 push	 DWORD PTR _dwGlobalTime$[ebp]
  00009	ff 75 08	 push	 DWORD PTR _pOwner$[ebp]
  0000c	e8 00 00 00 00	 call	 ?ApplyStartBuff@ioBuff@@UAE_NPAVioBaseChar@@KK@Z ; ioBuff::ApplyStartBuff
  00011	84 c0		 test	 al, al
  00013	0f 95 c0	 setne	 al

; 59   : 		return false;
; 60   : 
; 61   : 	return true;
; 62   : }

  00016	5d		 pop	 ebp
  00017	c2 0c 00	 ret	 12			; 0000000cH
?ApplyStartBuff@ioPushDirectionBuff@@UAE_NPAVioBaseChar@@KK@Z ENDP ; ioPushDirectionBuff::ApplyStartBuff
_TEXT	ENDS
EXTRN	?ProcessBuff@ioBuff@@UAEXM@Z:PROC		; ioBuff::ProcessBuff
; Function compile flags: /Ogsp
;	COMDAT ?ProcessBuff@ioPushDirectionBuff@@UAEXM@Z
_TEXT	SEGMENT
_fTimePerSec$ = 8					; size = 4
?ProcessBuff@ioPushDirectionBuff@@UAEXM@Z PROC		; ioPushDirectionBuff::ProcessBuff, COMDAT
; _this$ = ecx

; 152  : {

  00000	55		 push	 ebp
  00001	8b ec		 mov	 ebp, esp

; 153  : 	ioBuff::ProcessBuff( fTimePerSec );

  00003	f3 0f 10 45 08	 movss	 xmm0, DWORD PTR _fTimePerSec$[ebp]
  00008	51		 push	 ecx
  00009	f3 0f 11 04 24	 movss	 DWORD PTR [esp], xmm0
  0000e	e8 00 00 00 00	 call	 ?ProcessBuff@ioBuff@@UAEXM@Z ; ioBuff::ProcessBuff

; 154  : }

  00013	5d		 pop	 ebp
  00014	c2 04 00	 ret	 4
?ProcessBuff@ioPushDirectionBuff@@UAEXM@Z ENDP		; ioPushDirectionBuff::ProcessBuff
_TEXT	ENDS
EXTRN	?EndBuff@ioBuff@@UAEXXZ:PROC			; ioBuff::EndBuff
; Function compile flags: /Ogsp
;	COMDAT ?EndBuff@ioPushDirectionBuff@@UAEXXZ
_TEXT	SEGMENT
?EndBuff@ioPushDirectionBuff@@UAEXXZ PROC		; ioPushDirectionBuff::EndBuff, COMDAT
; _this$ = ecx

; 159  : 	ioBuff::EndBuff();

  00000	e9 00 00 00 00	 jmp	 ?EndBuff@ioBuff@@UAEXXZ	; ioBuff::EndBuff
?EndBuff@ioPushDirectionBuff@@UAEXXZ ENDP		; ioPushDirectionBuff::EndBuff
_TEXT	ENDS
PUBLIC	__real@3f91df46a2526c7a
PUBLIC	??$DEGtoRAD@M@@YAMM@Z				; DEGtoRAD<float>
;	COMDAT __real@3f91df46a2526c7a
; File d:\lost saga for developer\youtube\tutorial\source\src\lsclient\veryoftenusedefine.h
CONST	SEGMENT
__real@3f91df46a2526c7a DQ 03f91df46a2526c7ar	; 0.0174533
; Function compile flags: /Ogsp
CONST	ENDS
;	COMDAT ??$DEGtoRAD@M@@YAMM@Z
_TEXT	SEGMENT
tv129 = 8						; size = 4
_val$ = 8						; size = 4
??$DEGtoRAD@M@@YAMM@Z PROC				; DEGtoRAD<float>, COMDAT

; 20   : type  DEGtoRAD (type val) {return (type) (val * 0.0174532925199);}

  00000	55		 push	 ebp
  00001	8b ec		 mov	 ebp, esp
  00003	d9 45 08	 fld	 DWORD PTR _val$[ebp]
  00006	dc 0d 00 00 00
	00		 fmul	 QWORD PTR __real@3f91df46a2526c7a
  0000c	d9 5d 08	 fstp	 DWORD PTR tv129[ebp]
  0000f	d9 45 08	 fld	 DWORD PTR tv129[ebp]
  00012	5d		 pop	 ebp
  00013	c3		 ret	 0
??$DEGtoRAD@M@@YAMM@Z ENDP				; DEGtoRAD<float>
_TEXT	ENDS
PUBLIC	?_DECSTR@@YAXPADH@Z				; _DECSTR
; Function compile flags: /Ogsp
; File d:\lost saga for developer\youtube\tutorial\source\src\lsclient\stringprotect.h
;	COMDAT ?_DECSTR@@YAXPADH@Z
_TEXT	SEGMENT
_s$ = 8							; size = 4
_l$ = 12						; size = 4
?_DECSTR@@YAXPADH@Z PROC				; _DECSTR, COMDAT

; 40   : __forceinline void _DECSTR(char* s, int l){int i=0,l4=(l-1)/4,*p=(int*)s;s[l-1]=0;for(;i<l4;++i)*(p++)^=0xEAEBECED;for(i=l4*4;i<l-1;++i)s[i]^=0xED-i%4;}

  00000	55		 push	 ebp
  00001	8b ec		 mov	 ebp, esp
  00003	8b 4d 0c	 mov	 ecx, DWORD PTR _l$[ebp]
  00006	56		 push	 esi
  00007	8b 75 08	 mov	 esi, DWORD PTR _s$[ebp]
  0000a	57		 push	 edi
  0000b	8d 79 ff	 lea	 edi, DWORD PTR [ecx-1]
  0000e	8b c7		 mov	 eax, edi
  00010	99		 cdq
  00011	83 e2 03	 and	 edx, 3
  00014	03 c2		 add	 eax, edx
  00016	c1 f8 02	 sar	 eax, 2
  00019	8b d6		 mov	 edx, esi
  0001b	c6 44 0e ff 00	 mov	 BYTE PTR [esi+ecx-1], 0
  00020	85 c0		 test	 eax, eax
  00022	7e 0e		 jle	 SHORT $LN4@DECSTR
  00024	8b c8		 mov	 ecx, eax
$LL6@DECSTR:
  00026	81 32 ed ec eb
	ea		 xor	 DWORD PTR [edx], -353637139 ; eaebecedH
  0002c	83 c2 04	 add	 edx, 4
  0002f	49		 dec	 ecx
  00030	75 f4		 jne	 SHORT $LL6@DECSTR
$LN4@DECSTR:
  00032	c1 e0 02	 shl	 eax, 2
  00035	eb 17		 jmp	 SHORT $LN14@DECSTR
$LL3@DECSTR:
  00037	8b c8		 mov	 ecx, eax
  00039	81 e1 03 00 00
	80		 and	 ecx, -2147483645	; 80000003H
  0003f	79 05		 jns	 SHORT $LN13@DECSTR
  00041	49		 dec	 ecx
  00042	83 c9 fc	 or	 ecx, -4			; fffffffcH
  00045	41		 inc	 ecx
$LN13@DECSTR:
  00046	b2 ed		 mov	 dl, -19			; ffffffedH
  00048	2a d1		 sub	 dl, cl
  0004a	30 14 30	 xor	 BYTE PTR [eax+esi], dl
  0004d	40		 inc	 eax
$LN14@DECSTR:
  0004e	3b c7		 cmp	 eax, edi
  00050	7c e5		 jl	 SHORT $LL3@DECSTR
  00052	5f		 pop	 edi
  00053	5e		 pop	 esi
  00054	5d		 pop	 ebp
  00055	c3		 ret	 0
?_DECSTR@@YAXPADH@Z ENDP				; _DECSTR
_TEXT	ENDS
PUBLIC	??_R0?AVioItem@@@8				; ioItem `RTTI Type Descriptor'
PUBLIC	??_R0?AVioWeaponItem@@@8			; ioWeaponItem `RTTI Type Descriptor'
PUBLIC	?ToWeaponItem@@YAPAVioWeaponItem@@PAVioItem@@@Z	; ToWeaponItem
EXTRN	___RTDynamicCast:PROC
;	COMDAT ??_R0?AVioItem@@@8
; File d:\lost saga for developer\youtube\tutorial\source\src\lsclient\ioweaponitem.h
_DATA	SEGMENT
??_R0?AVioItem@@@8 DD FLAT:??_7type_info@@6B@		; ioItem `RTTI Type Descriptor'
	DD	00H
	DB	'.?AVioItem@@', 00H
_DATA	ENDS
;	COMDAT ??_R0?AVioWeaponItem@@@8
_DATA	SEGMENT
??_R0?AVioWeaponItem@@@8 DD FLAT:??_7type_info@@6B@	; ioWeaponItem `RTTI Type Descriptor'
	DD	00H
	DB	'.?AVioWeaponItem@@', 00H
; Function compile flags: /Ogsp
_DATA	ENDS
;	COMDAT ?ToWeaponItem@@YAPAVioWeaponItem@@PAVioItem@@@Z
_TEXT	SEGMENT
_pItem$ = 8						; size = 4
?ToWeaponItem@@YAPAVioWeaponItem@@PAVioItem@@@Z PROC	; ToWeaponItem, COMDAT

; 303  : {

  00000	55		 push	 ebp
  00001	8b ec		 mov	 ebp, esp
  00003	56		 push	 esi

; 304  : 	if( !pItem || pItem->GetType() != ioItem::IT_WEAPON )

  00004	8b 75 08	 mov	 esi, DWORD PTR _pItem$[ebp]
  00007	85 f6		 test	 esi, esi
  00009	74 25		 je	 SHORT $LN1@ToWeaponIt
  0000b	8b 06		 mov	 eax, DWORD PTR [esi]
  0000d	8b ce		 mov	 ecx, esi
  0000f	ff 50 08	 call	 DWORD PTR [eax+8]
  00012	83 f8 01	 cmp	 eax, 1
  00015	75 19		 jne	 SHORT $LN1@ToWeaponIt

; 306  : 
; 307  : 	return dynamic_cast< ioWeaponItem* >( pItem );

  00017	6a 00		 push	 0
  00019	68 00 00 00 00	 push	 OFFSET ??_R0?AVioWeaponItem@@@8
  0001e	68 00 00 00 00	 push	 OFFSET ??_R0?AVioItem@@@8
  00023	6a 00		 push	 0
  00025	56		 push	 esi
  00026	e8 00 00 00 00	 call	 ___RTDynamicCast
  0002b	83 c4 14	 add	 esp, 20			; 00000014H
  0002e	eb 02		 jmp	 SHORT $LN3@ToWeaponIt
$LN1@ToWeaponIt:

; 305  : 		return NULL;

  00030	33 c0		 xor	 eax, eax
$LN3@ToWeaponIt:
  00032	5e		 pop	 esi

; 308  : }

  00033	5d		 pop	 ebp
  00034	c3		 ret	 0
?ToWeaponItem@@YAPAVioWeaponItem@@PAVioItem@@@Z ENDP	; ToWeaponItem
_TEXT	ENDS
PUBLIC	??_R0?AVioSkill@@@8				; ioSkill `RTTI Type Descriptor'
PUBLIC	??_R0?AVioAttackSkill@@@8			; ioAttackSkill `RTTI Type Descriptor'
PUBLIC	?ToAttackSkill@@YAPAVioAttackSkill@@PAVioSkill@@@Z ; ToAttackSkill
;	COMDAT ??_R0?AVioSkill@@@8
; File d:\lost saga for developer\youtube\tutorial\source\src\lsclient\ioattackskill.h
_DATA	SEGMENT
??_R0?AVioSkill@@@8 DD FLAT:??_7type_info@@6B@		; ioSkill `RTTI Type Descriptor'
	DD	00H
	DB	'.?AVioSkill@@', 00H
_DATA	ENDS
;	COMDAT ??_R0?AVioAttackSkill@@@8
_DATA	SEGMENT
??_R0?AVioAttackSkill@@@8 DD FLAT:??_7type_info@@6B@	; ioAttackSkill `RTTI Type Descriptor'
	DD	00H
	DB	'.?AVioAttackSkill@@', 00H
; Function compile flags: /Ogsp
_DATA	ENDS
;	COMDAT ?ToAttackSkill@@YAPAVioAttackSkill@@PAVioSkill@@@Z
_TEXT	SEGMENT
_pSkill$ = 8						; size = 4
?ToAttackSkill@@YAPAVioAttackSkill@@PAVioSkill@@@Z PROC	; ToAttackSkill, COMDAT

; 103  : {

  00000	55		 push	 ebp
  00001	8b ec		 mov	 ebp, esp
  00003	56		 push	 esi

; 104  : 	if( !pSkill || pSkill->GetTypeID() != ST_ATTACK )

  00004	8b 75 08	 mov	 esi, DWORD PTR _pSkill$[ebp]
  00007	85 f6		 test	 esi, esi
  00009	74 25		 je	 SHORT $LN1@ToAttackSk
  0000b	8b 06		 mov	 eax, DWORD PTR [esi]
  0000d	8b ce		 mov	 ecx, esi
  0000f	ff 50 08	 call	 DWORD PTR [eax+8]
  00012	83 f8 01	 cmp	 eax, 1
  00015	75 19		 jne	 SHORT $LN1@ToAttackSk

; 106  : 
; 107  : 	return dynamic_cast< ioAttackSkill* >( pSkill );

  00017	6a 00		 push	 0
  00019	68 00 00 00 00	 push	 OFFSET ??_R0?AVioAttackSkill@@@8
  0001e	68 00 00 00 00	 push	 OFFSET ??_R0?AVioSkill@@@8
  00023	6a 00		 push	 0
  00025	56		 push	 esi
  00026	e8 00 00 00 00	 call	 ___RTDynamicCast
  0002b	83 c4 14	 add	 esp, 20			; 00000014H
  0002e	eb 02		 jmp	 SHORT $LN3@ToAttackSk
$LN1@ToAttackSk:

; 105  : 		return NULL;

  00030	33 c0		 xor	 eax, eax
$LN3@ToAttackSk:
  00032	5e		 pop	 esi

; 108  : }

  00033	5d		 pop	 ebp
  00034	c3		 ret	 0
?ToAttackSkill@@YAPAVioAttackSkill@@PAVioSkill@@@Z ENDP	; ToAttackSkill
_TEXT	ENDS
PUBLIC	??_R0?AVioNormalSkill@@@8			; ioNormalSkill `RTTI Type Descriptor'
PUBLIC	?ToNormalSkill@@YAPAVioNormalSkill@@PAVioSkill@@@Z ; ToNormalSkill
;	COMDAT ??_R0?AVioNormalSkill@@@8
; File d:\lost saga for developer\youtube\tutorial\source\src\lsclient\ionormalskill.h
_DATA	SEGMENT
??_R0?AVioNormalSkill@@@8 DD FLAT:??_7type_info@@6B@	; ioNormalSkill `RTTI Type Descriptor'
	DD	00H
	DB	'.?AVioNormalSkill@@', 00H
; Function compile flags: /Ogsp
_DATA	ENDS
;	COMDAT ?ToNormalSkill@@YAPAVioNormalSkill@@PAVioSkill@@@Z
_TEXT	SEGMENT
_pSkill$ = 8						; size = 4
?ToNormalSkill@@YAPAVioNormalSkill@@PAVioSkill@@@Z PROC	; ToNormalSkill, COMDAT

; 60   : {

  00000	55		 push	 ebp
  00001	8b ec		 mov	 ebp, esp
  00003	56		 push	 esi

; 61   : 	if( !pSkill || pSkill->GetTypeID() != ST_NORMAL )

  00004	8b 75 08	 mov	 esi, DWORD PTR _pSkill$[ebp]
  00007	85 f6		 test	 esi, esi
  00009	74 25		 je	 SHORT $LN1@ToNormalSk
  0000b	8b 06		 mov	 eax, DWORD PTR [esi]
  0000d	8b ce		 mov	 ecx, esi
  0000f	ff 50 08	 call	 DWORD PTR [eax+8]
  00012	83 f8 03	 cmp	 eax, 3
  00015	75 19		 jne	 SHORT $LN1@ToNormalSk

; 63   : 
; 64   : 	return dynamic_cast< ioNormalSkill* >( pSkill );

  00017	6a 00		 push	 0
  00019	68 00 00 00 00	 push	 OFFSET ??_R0?AVioNormalSkill@@@8
  0001e	68 00 00 00 00	 push	 OFFSET ??_R0?AVioSkill@@@8
  00023	6a 00		 push	 0
  00025	56		 push	 esi
  00026	e8 00 00 00 00	 call	 ___RTDynamicCast
  0002b	83 c4 14	 add	 esp, 20			; 00000014H
  0002e	eb 02		 jmp	 SHORT $LN3@ToNormalSk
$LN1@ToNormalSk:

; 62   : 		return NULL;

  00030	33 c0		 xor	 eax, eax
$LN3@ToNormalSk:
  00032	5e		 pop	 esi

; 65   : }

  00033	5d		 pop	 ebp
  00034	c3		 ret	 0
?ToNormalSkill@@YAPAVioNormalSkill@@PAVioSkill@@@Z ENDP	; ToNormalSkill
_TEXT	ENDS
PUBLIC	??_R0?AVioCountSkill@@@8			; ioCountSkill `RTTI Type Descriptor'
PUBLIC	?ToCountSkill@@YAPAVioCountSkill@@PAVioSkill@@@Z ; ToCountSkill
;	COMDAT ??_R0?AVioCountSkill@@@8
; File d:\lost saga for developer\youtube\tutorial\source\src\lsclient\iocountskill.h
_DATA	SEGMENT
??_R0?AVioCountSkill@@@8 DD FLAT:??_7type_info@@6B@	; ioCountSkill `RTTI Type Descriptor'
	DD	00H
	DB	'.?AVioCountSkill@@', 00H
; Function compile flags: /Ogsp
_DATA	ENDS
;	COMDAT ?ToCountSkill@@YAPAVioCountSkill@@PAVioSkill@@@Z
_TEXT	SEGMENT
_pSkill$ = 8						; size = 4
?ToCountSkill@@YAPAVioCountSkill@@PAVioSkill@@@Z PROC	; ToCountSkill, COMDAT

; 102  : {

  00000	55		 push	 ebp
  00001	8b ec		 mov	 ebp, esp
  00003	56		 push	 esi

; 103  : 	if( !pSkill || pSkill->GetTypeID() != ST_COUNT )

  00004	8b 75 08	 mov	 esi, DWORD PTR _pSkill$[ebp]
  00007	85 f6		 test	 esi, esi
  00009	74 25		 je	 SHORT $LN1@ToCountSki
  0000b	8b 06		 mov	 eax, DWORD PTR [esi]
  0000d	8b ce		 mov	 ecx, esi
  0000f	ff 50 08	 call	 DWORD PTR [eax+8]
  00012	83 f8 07	 cmp	 eax, 7
  00015	75 19		 jne	 SHORT $LN1@ToCountSki

; 105  : 
; 106  : 	return dynamic_cast< ioCountSkill* >( pSkill );

  00017	6a 00		 push	 0
  00019	68 00 00 00 00	 push	 OFFSET ??_R0?AVioCountSkill@@@8
  0001e	68 00 00 00 00	 push	 OFFSET ??_R0?AVioSkill@@@8
  00023	6a 00		 push	 0
  00025	56		 push	 esi
  00026	e8 00 00 00 00	 call	 ___RTDynamicCast
  0002b	83 c4 14	 add	 esp, 20			; 00000014H
  0002e	eb 02		 jmp	 SHORT $LN3@ToCountSki
$LN1@ToCountSki:

; 104  : 		return NULL;

  00030	33 c0		 xor	 eax, eax
$LN3@ToCountSki:
  00032	5e		 pop	 esi

; 107  : }

  00033	5d		 pop	 ebp
  00034	c3		 ret	 0
?ToCountSkill@@YAPAVioCountSkill@@PAVioSkill@@@Z ENDP	; ToCountSkill
; Function compile flags: /Ogsp
; File d:\lost saga for developer\youtube\tutorial\source\src\lsclient\iobuff.h
_TEXT	ENDS
;	COMDAT ?IsWaitSelfRemove@ioBuff@@UAE_NXZ
_TEXT	SEGMENT
?IsWaitSelfRemove@ioBuff@@UAE_NXZ PROC			; ioBuff::IsWaitSelfRemove, COMDAT
; _this$ = ecx

; 519  : 	virtual bool IsWaitSelfRemove() { return m_bWaitSelfRemove; }

  00000	8a 81 65 09 00
	00		 mov	 al, BYTE PTR [ecx+2405]
  00006	c3		 ret	 0
?IsWaitSelfRemove@ioBuff@@UAE_NXZ ENDP			; ioBuff::IsWaitSelfRemove
_TEXT	ENDS
PUBLIC	?DecryptValueToPool@?$CEncrypt@H@@QAEXPAH@Z	; CEncrypt<int>::DecryptValueToPool
EXTRN	?DecryptByte@ccddaabb@@QBEXPBDPADH@Z:PROC	; ccddaabb::DecryptByte
; Function compile flags: /Ogsp
; File d:\lost saga for developer\youtube\tutorial\source\src\lsclient\encryptvalue.h
;	COMDAT ?DecryptValueToPool@?$CEncrypt@H@@QAEXPAH@Z
_TEXT	SEGMENT
_value$ = 8						; size = 4
?DecryptValueToPool@?$CEncrypt@H@@QAEXPAH@Z PROC	; CEncrypt<int>::DecryptValueToPool, COMDAT
; _this$ = ecx

; 837  : 	{

  00000	55		 push	 ebp
  00001	8b ec		 mov	 ebp, esp
  00003	56		 push	 esi

; 838  : 		m_RC5.DecryptByte( m_MemPool, m_TempMem, 4 );

  00004	8d 71 28	 lea	 esi, DWORD PTR [ecx+40]
  00007	6a 04		 push	 4
  00009	8d 41 1c	 lea	 eax, DWORD PTR [ecx+28]
  0000c	56		 push	 esi
  0000d	50		 push	 eax
  0000e	83 c1 0c	 add	 ecx, 12			; 0000000cH
  00011	e8 00 00 00 00	 call	 ?DecryptByte@ccddaabb@@QBEXPBDPADH@Z ; ccddaabb::DecryptByte

; 839  : 		*value = *((int*)m_TempMem);

  00016	8b 06		 mov	 eax, DWORD PTR [esi]
  00018	8b 4d 08	 mov	 ecx, DWORD PTR _value$[ebp]
  0001b	89 01		 mov	 DWORD PTR [ecx], eax
  0001d	5e		 pop	 esi

; 840  : 	}

  0001e	5d		 pop	 ebp
  0001f	c2 04 00	 ret	 4
?DecryptValueToPool@?$CEncrypt@H@@QAEXPAH@Z ENDP	; CEncrypt<int>::DecryptValueToPool
_TEXT	ENDS
PUBLIC	??_R0?AVioSuccubusItem@@@8			; ioSuccubusItem `RTTI Type Descriptor'
PUBLIC	?ToSuccubusItem@@YAPAVioSuccubusItem@@PAVioItem@@@Z ; ToSuccubusItem
;	COMDAT ??_R0?AVioSuccubusItem@@@8
; File d:\lost saga for developer\youtube\tutorial\source\src\lsclient\iosuccubusitem.h
_DATA	SEGMENT
??_R0?AVioSuccubusItem@@@8 DD FLAT:??_7type_info@@6B@	; ioSuccubusItem `RTTI Type Descriptor'
	DD	00H
	DB	'.?AVioSuccubusItem@@', 00H
; Function compile flags: /Ogsp
_DATA	ENDS
;	COMDAT ?ToSuccubusItem@@YAPAVioSuccubusItem@@PAVioItem@@@Z
_TEXT	SEGMENT
_pItem$ = 8						; size = 4
?ToSuccubusItem@@YAPAVioSuccubusItem@@PAVioItem@@@Z PROC ; ToSuccubusItem, COMDAT

; 228  : {

  00000	55		 push	 ebp
  00001	8b ec		 mov	 ebp, esp

; 229  : 	ioWeaponItem *pWeapon = ToWeaponItem( pItem );

  00003	ff 75 08	 push	 DWORD PTR _pItem$[ebp]
  00006	e8 00 00 00 00	 call	 ?ToWeaponItem@@YAPAVioWeaponItem@@PAVioItem@@@Z ; ToWeaponItem
  0000b	59		 pop	 ecx

; 230  : 	if( !pWeapon || pWeapon->GetSubType() != ioWeaponItem::WST_SUCCUBUS )

  0000c	85 c0		 test	 eax, eax
  0000e	74 2a		 je	 SHORT $LN1@ToSuccubus
  00010	8b 10		 mov	 edx, DWORD PTR [eax]
  00012	8b c8		 mov	 ecx, eax
  00014	ff 92 f0 02 00
	00		 call	 DWORD PTR [edx+752]
  0001a	83 f8 40	 cmp	 eax, 64			; 00000040H
  0001d	75 1b		 jne	 SHORT $LN1@ToSuccubus

; 232  : 
; 233  : 	return dynamic_cast< ioSuccubusItem* >( pItem );

  0001f	6a 00		 push	 0
  00021	68 00 00 00 00	 push	 OFFSET ??_R0?AVioSuccubusItem@@@8
  00026	68 00 00 00 00	 push	 OFFSET ??_R0?AVioItem@@@8
  0002b	6a 00		 push	 0
  0002d	ff 75 08	 push	 DWORD PTR _pItem$[ebp]
  00030	e8 00 00 00 00	 call	 ___RTDynamicCast
  00035	83 c4 14	 add	 esp, 20			; 00000014H

; 234  : }

  00038	5d		 pop	 ebp
  00039	c3		 ret	 0
$LN1@ToSuccubus:

; 231  : 		return NULL;

  0003a	33 c0		 xor	 eax, eax

; 234  : }

  0003c	5d		 pop	 ebp
  0003d	c3		 ret	 0
?ToSuccubusItem@@YAPAVioSuccubusItem@@PAVioItem@@@Z ENDP ; ToSuccubusItem
; Function compile flags: /Ogsp
_TEXT	ENDS
;	COMDAT ??_GioPushDirectionBuff@@UAEPAXI@Z
_TEXT	SEGMENT
___flags$ = 8						; size = 4
??_GioPushDirectionBuff@@UAEPAXI@Z PROC			; ioPushDirectionBuff::`scalar deleting destructor', COMDAT
; _this$ = ecx
  00000	55		 push	 ebp
  00001	8b ec		 mov	 ebp, esp
  00003	56		 push	 esi
  00004	8b f1		 mov	 esi, ecx
  00006	c7 06 00 00 00
	00		 mov	 DWORD PTR [esi], OFFSET ??_7ioPushDirectionBuff@@6B@
  0000c	e8 00 00 00 00	 call	 ??1ioBuff@@UAE@XZ	; ioBuff::~ioBuff
  00011	f6 45 08 01	 test	 BYTE PTR ___flags$[ebp], 1
  00015	74 07		 je	 SHORT $LN1@scalar
  00017	56		 push	 esi
  00018	e8 00 00 00 00	 call	 ??3@YAXPAX@Z		; operator delete
  0001d	59		 pop	 ecx
$LN1@scalar:
  0001e	8b c6		 mov	 eax, esi
  00020	5e		 pop	 esi
  00021	5d		 pop	 ebp
  00022	c2 04 00	 ret	 4
??_GioPushDirectionBuff@@UAEPAXI@Z ENDP			; ioPushDirectionBuff::`scalar deleting destructor'
_TEXT	ENDS
PUBLIC	__$ArrayPad$
PUBLIC	??$LoadFloat_e@$0L@@ioINILoader@@QAEMAAY0L@$$CBDM@Z ; ioINILoader::LoadFloat_e<11>
EXTRN	__imp_?LoadFloat@ioINILoader@@QAEMPBDM@Z:PROC
EXTRN	___security_cookie:DWORD
; Function compile flags: /Ogsp
; File d:\lost saga for developer\youtube\tutorial\source\src\io3dengine\ioiniloader.h
;	COMDAT ??$LoadFloat_e@$0L@@ioINILoader@@QAEMAAY0L@$$CBDM@Z
_TEXT	SEGMENT
__k$ = -20						; size = 11
__$ArrayPad$ = -4					; size = 4
_k$ = 8							; size = 4
_f$ = 12						; size = 4
??$LoadFloat_e@$0L@@ioINILoader@@QAEMAAY0L@$$CBDM@Z PROC ; ioINILoader::LoadFloat_e<11>, COMDAT
; _this$ = ecx

; 135  : 	{

  00000	55		 push	 ebp
  00001	8b ec		 mov	 ebp, esp
  00003	83 ec 14	 sub	 esp, 20			; 00000014H
  00006	a1 00 00 00 00	 mov	 eax, DWORD PTR ___security_cookie
  0000b	33 c5		 xor	 eax, ebp
  0000d	89 45 fc	 mov	 DWORD PTR __$ArrayPad$[ebp], eax
  00010	8b 45 08	 mov	 eax, DWORD PTR _k$[ebp]

; 136  : 		_ENCSTR(k, _k);

  00013	8a 10		 mov	 dl, BYTE PTR [eax]
  00015	56		 push	 esi
  00016	8b f1		 mov	 esi, ecx
  00018	84 d2		 test	 dl, dl
  0001a	0f 84 24 01 00
	00		 je	 $LN96@LoadFloat_
  00020	80 f2 ed	 xor	 dl, -19			; ffffffedH
  00023	88 55 ec	 mov	 BYTE PTR __k$[ebp], dl
  00026	8a 50 01	 mov	 dl, BYTE PTR [eax+1]
  00029	84 d2		 test	 dl, dl
  0002b	0f 84 0d 01 00
	00		 je	 $LN95@LoadFloat_
  00031	80 f2 ec	 xor	 dl, -20			; ffffffecH
  00034	88 55 ed	 mov	 BYTE PTR __k$[ebp+1], dl
  00037	8a 50 02	 mov	 dl, BYTE PTR [eax+2]
  0003a	84 d2		 test	 dl, dl
  0003c	0f 84 f6 00 00
	00		 je	 $LN94@LoadFloat_
  00042	80 f2 eb	 xor	 dl, -21			; ffffffebH
  00045	88 55 ee	 mov	 BYTE PTR __k$[ebp+2], dl
  00048	8a 50 03	 mov	 dl, BYTE PTR [eax+3]
  0004b	84 d2		 test	 dl, dl
  0004d	0f 84 df 00 00
	00		 je	 $LN93@LoadFloat_
  00053	80 f2 ea	 xor	 dl, -22			; ffffffeaH
  00056	88 55 ef	 mov	 BYTE PTR __k$[ebp+3], dl
  00059	8a 50 04	 mov	 dl, BYTE PTR [eax+4]
  0005c	84 d2		 test	 dl, dl
  0005e	0f 84 c8 00 00
	00		 je	 $LN92@LoadFloat_
  00064	80 f2 ed	 xor	 dl, -19			; ffffffedH
  00067	88 55 f0	 mov	 BYTE PTR __k$[ebp+4], dl
  0006a	8a 50 05	 mov	 dl, BYTE PTR [eax+5]
  0006d	84 d2		 test	 dl, dl
  0006f	0f 84 b1 00 00
	00		 je	 $LN91@LoadFloat_
  00075	80 f2 ec	 xor	 dl, -20			; ffffffecH
  00078	88 55 f1	 mov	 BYTE PTR __k$[ebp+5], dl
  0007b	8a 50 06	 mov	 dl, BYTE PTR [eax+6]
  0007e	84 d2		 test	 dl, dl
  00080	0f 84 9a 00 00
	00		 je	 $LN90@LoadFloat_
  00086	80 f2 eb	 xor	 dl, -21			; ffffffebH
  00089	88 55 f2	 mov	 BYTE PTR __k$[ebp+6], dl
  0008c	8a 50 07	 mov	 dl, BYTE PTR [eax+7]
  0008f	84 d2		 test	 dl, dl
  00091	0f 84 83 00 00
	00		 je	 $LN89@LoadFloat_
  00097	80 f2 ea	 xor	 dl, -22			; ffffffeaH
  0009a	88 55 f3	 mov	 BYTE PTR __k$[ebp+7], dl
  0009d	8a 50 08	 mov	 dl, BYTE PTR [eax+8]
  000a0	84 d2		 test	 dl, dl
  000a2	74 70		 je	 SHORT $LN88@LoadFloat_
  000a4	80 f2 ed	 xor	 dl, -19			; ffffffedH
  000a7	88 55 f4	 mov	 BYTE PTR __k$[ebp+8], dl
  000aa	8a 50 09	 mov	 dl, BYTE PTR [eax+9]
  000ad	84 d2		 test	 dl, dl
  000af	74 5d		 je	 SHORT $LN87@LoadFloat_
  000b1	80 f2 ec	 xor	 dl, -20			; ffffffecH
  000b4	80 78 0a 00	 cmp	 BYTE PTR [eax+10], 0
  000b8	88 55 f5	 mov	 BYTE PTR __k$[ebp+9], dl
  000bb	0f 84 87 00 00
	00		 je	 $LN1@LoadFloat_
  000c1	8a 50 0b	 mov	 dl, BYTE PTR [eax+11]
  000c4	84 d2		 test	 dl, dl
  000c6	74 40		 je	 SHORT $LN85@LoadFloat_
  000c8	80 f2 ea	 xor	 dl, -22			; ffffffeaH
  000cb	88 55 f7	 mov	 BYTE PTR __k$[ebp+11], dl
  000ce	8a 50 0c	 mov	 dl, BYTE PTR [eax+12]
  000d1	84 d2		 test	 dl, dl
  000d3	74 2d		 je	 SHORT $LN84@LoadFloat_
  000d5	80 f2 ed	 xor	 dl, -19			; ffffffedH
  000d8	88 55 f8	 mov	 BYTE PTR __k$[ebp+12], dl
  000db	8a 50 0d	 mov	 dl, BYTE PTR [eax+13]
  000de	84 d2		 test	 dl, dl
  000e0	74 1a		 je	 SHORT $LN83@LoadFloat_
  000e2	8a 40 0e	 mov	 al, BYTE PTR [eax+14]
  000e5	80 f2 ec	 xor	 dl, -20			; ffffffecH
  000e8	88 55 f9	 mov	 BYTE PTR __k$[ebp+13], dl
  000eb	84 c0		 test	 al, al
  000ed	74 07		 je	 SHORT $LN82@LoadFloat_
  000ef	34 eb		 xor	 al, -21			; ffffffebH
  000f1	88 45 fa	 mov	 BYTE PTR __k$[ebp+14], al
  000f4	eb 52		 jmp	 SHORT $LN1@LoadFloat_
$LN82@LoadFloat_:
  000f6	c6 45 fa eb	 mov	 BYTE PTR __k$[ebp+14], -21 ; ffffffebH
  000fa	eb 4c		 jmp	 SHORT $LN1@LoadFloat_
$LN83@LoadFloat_:
  000fc	c6 45 f9 ec	 mov	 BYTE PTR __k$[ebp+13], -20 ; ffffffecH
  00100	eb 46		 jmp	 SHORT $LN1@LoadFloat_
$LN84@LoadFloat_:
  00102	c6 45 f8 ed	 mov	 BYTE PTR __k$[ebp+12], -19 ; ffffffedH
  00106	eb 40		 jmp	 SHORT $LN1@LoadFloat_
$LN85@LoadFloat_:
  00108	c6 45 f7 ea	 mov	 BYTE PTR __k$[ebp+11], -22 ; ffffffeaH
  0010c	eb 3a		 jmp	 SHORT $LN1@LoadFloat_
$LN87@LoadFloat_:
  0010e	c6 45 f5 ec	 mov	 BYTE PTR __k$[ebp+9], -20 ; ffffffecH
  00112	eb 34		 jmp	 SHORT $LN1@LoadFloat_
$LN88@LoadFloat_:
  00114	c6 45 f4 ed	 mov	 BYTE PTR __k$[ebp+8], -19 ; ffffffedH
  00118	eb 2e		 jmp	 SHORT $LN1@LoadFloat_
$LN89@LoadFloat_:
  0011a	c6 45 f3 ea	 mov	 BYTE PTR __k$[ebp+7], -22 ; ffffffeaH
  0011e	eb 28		 jmp	 SHORT $LN1@LoadFloat_
$LN90@LoadFloat_:
  00120	c6 45 f2 eb	 mov	 BYTE PTR __k$[ebp+6], -21 ; ffffffebH
  00124	eb 22		 jmp	 SHORT $LN1@LoadFloat_
$LN91@LoadFloat_:
  00126	c6 45 f1 ec	 mov	 BYTE PTR __k$[ebp+5], -20 ; ffffffecH
  0012a	eb 1c		 jmp	 SHORT $LN1@LoadFloat_
$LN92@LoadFloat_:
  0012c	c6 45 f0 ed	 mov	 BYTE PTR __k$[ebp+4], -19 ; ffffffedH
  00130	eb 16		 jmp	 SHORT $LN1@LoadFloat_
$LN93@LoadFloat_:
  00132	c6 45 ef ea	 mov	 BYTE PTR __k$[ebp+3], -22 ; ffffffeaH
  00136	eb 10		 jmp	 SHORT $LN1@LoadFloat_
$LN94@LoadFloat_:
  00138	c6 45 ee eb	 mov	 BYTE PTR __k$[ebp+2], -21 ; ffffffebH
  0013c	eb 0a		 jmp	 SHORT $LN1@LoadFloat_
$LN95@LoadFloat_:
  0013e	c6 45 ed ec	 mov	 BYTE PTR __k$[ebp+1], -20 ; ffffffecH
  00142	eb 04		 jmp	 SHORT $LN1@LoadFloat_
$LN96@LoadFloat_:
  00144	c6 45 ec ed	 mov	 BYTE PTR __k$[ebp], -19	; ffffffedH
$LN1@LoadFloat_:
  00148	6a 02		 push	 2
  0014a	8d 45 ec	 lea	 eax, DWORD PTR __k$[ebp]
  0014d	c6 45 f6 00	 mov	 BYTE PTR __k$[ebp+10], 0
  00151	5a		 pop	 edx
$LL104@LoadFloat_:
  00152	81 30 ed ec eb
	ea		 xor	 DWORD PTR [eax], -353637139 ; eaebecedH
  00158	83 c0 04	 add	 eax, 4
  0015b	4a		 dec	 edx
  0015c	75 f4		 jne	 SHORT $LL104@LoadFloat_
  0015e	6a 08		 push	 8
  00160	58		 pop	 eax
$LL101@LoadFloat_:
  00161	8b c8		 mov	 ecx, eax
  00163	81 e1 03 00 00
	80		 and	 ecx, -2147483645	; 80000003H
  00169	79 05		 jns	 SHORT $LN111@LoadFloat_
  0016b	49		 dec	 ecx
  0016c	83 c9 fc	 or	 ecx, -4			; fffffffcH
  0016f	41		 inc	 ecx
$LN111@LoadFloat_:
  00170	b2 ed		 mov	 dl, -19			; ffffffedH
  00172	2a d1		 sub	 dl, cl
  00174	30 54 05 ec	 xor	 BYTE PTR __k$[ebp+eax], dl
  00178	40		 inc	 eax
  00179	83 f8 0a	 cmp	 eax, 10			; 0000000aH
  0017c	7c e3		 jl	 SHORT $LL101@LoadFloat_

; 137  : 		return LoadFloat(_k, f);

  0017e	f3 0f 10 45 0c	 movss	 xmm0, DWORD PTR _f$[ebp]
  00183	51		 push	 ecx
  00184	8d 45 ec	 lea	 eax, DWORD PTR __k$[ebp]
  00187	f3 0f 11 04 24	 movss	 DWORD PTR [esp], xmm0
  0018c	50		 push	 eax
  0018d	8b ce		 mov	 ecx, esi
  0018f	ff 15 00 00 00
	00		 call	 DWORD PTR __imp_?LoadFloat@ioINILoader@@QAEMPBDM@Z

; 138  : 	}

  00195	8b 4d fc	 mov	 ecx, DWORD PTR __$ArrayPad$[ebp]
  00198	33 cd		 xor	 ecx, ebp
  0019a	5e		 pop	 esi
  0019b	e8 00 00 00 00	 call	 @__security_check_cookie@4
  001a0	c9		 leave
  001a1	c2 08 00	 ret	 8
??$LoadFloat_e@$0L@@ioINILoader@@QAEMAAY0L@$$CBDM@Z ENDP ; ioINILoader::LoadFloat_e<11>
_TEXT	ENDS
PUBLIC	__$ArrayPad$
PUBLIC	??$LoadBool_e@$0BC@@ioINILoader@@QAE_NAAY0BC@$$CBD_N@Z ; ioINILoader::LoadBool_e<18>
EXTRN	__imp_?LoadBool@ioINILoader@@QAE_NPBD_N@Z:PROC
; Function compile flags: /Ogsp
;	COMDAT ??$LoadBool_e@$0BC@@ioINILoader@@QAE_NAAY0BC@$$CBD_N@Z
_TEXT	SEGMENT
__k$ = -28						; size = 18
__$ArrayPad$ = -4					; size = 4
_k$ = 8							; size = 4
_b$ = 12						; size = 1
??$LoadBool_e@$0BC@@ioINILoader@@QAE_NAAY0BC@$$CBD_N@Z PROC ; ioINILoader::LoadBool_e<18>, COMDAT
; _this$ = ecx

; 101  : 	{

  00000	55		 push	 ebp
  00001	8b ec		 mov	 ebp, esp
  00003	83 ec 1c	 sub	 esp, 28			; 0000001cH
  00006	a1 00 00 00 00	 mov	 eax, DWORD PTR ___security_cookie
  0000b	33 c5		 xor	 eax, ebp
  0000d	89 45 fc	 mov	 DWORD PTR __$ArrayPad$[ebp], eax
  00010	8b 45 08	 mov	 eax, DWORD PTR _k$[ebp]

; 102  : 		_ENCSTR(k, _k);

  00013	8a 10		 mov	 dl, BYTE PTR [eax]
  00015	56		 push	 esi
  00016	8b f1		 mov	 esi, ecx
  00018	84 d2		 test	 dl, dl
  0001a	0f 84 be 01 00
	00		 je	 $LN96@LoadBool_e
  00020	80 f2 ed	 xor	 dl, -19			; ffffffedH
  00023	88 55 e4	 mov	 BYTE PTR __k$[ebp], dl
  00026	8a 50 01	 mov	 dl, BYTE PTR [eax+1]
  00029	84 d2		 test	 dl, dl
  0002b	0f 84 a7 01 00
	00		 je	 $LN95@LoadBool_e
  00031	80 f2 ec	 xor	 dl, -20			; ffffffecH
  00034	88 55 e5	 mov	 BYTE PTR __k$[ebp+1], dl
  00037	8a 50 02	 mov	 dl, BYTE PTR [eax+2]
  0003a	84 d2		 test	 dl, dl
  0003c	0f 84 90 01 00
	00		 je	 $LN94@LoadBool_e
  00042	b1 eb		 mov	 cl, -21			; ffffffebH
  00044	32 d1		 xor	 dl, cl
  00046	88 55 e6	 mov	 BYTE PTR __k$[ebp+2], dl
  00049	8a 50 03	 mov	 dl, BYTE PTR [eax+3]
  0004c	84 d2		 test	 dl, dl
  0004e	0f 84 78 01 00
	00		 je	 $LN93@LoadBool_e
  00054	80 f2 ea	 xor	 dl, -22			; ffffffeaH
  00057	88 55 e7	 mov	 BYTE PTR __k$[ebp+3], dl
  0005a	8a 50 04	 mov	 dl, BYTE PTR [eax+4]
  0005d	84 d2		 test	 dl, dl
  0005f	0f 84 61 01 00
	00		 je	 $LN92@LoadBool_e
  00065	80 f2 ed	 xor	 dl, -19			; ffffffedH
  00068	88 55 e8	 mov	 BYTE PTR __k$[ebp+4], dl
  0006b	8a 50 05	 mov	 dl, BYTE PTR [eax+5]
  0006e	84 d2		 test	 dl, dl
  00070	0f 84 4a 01 00
	00		 je	 $LN91@LoadBool_e
  00076	80 f2 ec	 xor	 dl, -20			; ffffffecH
  00079	88 55 e9	 mov	 BYTE PTR __k$[ebp+5], dl
  0007c	8a 50 06	 mov	 dl, BYTE PTR [eax+6]
  0007f	84 d2		 test	 dl, dl
  00081	0f 84 34 01 00
	00		 je	 $LN90@LoadBool_e
  00087	32 d1		 xor	 dl, cl
  00089	88 55 ea	 mov	 BYTE PTR __k$[ebp+6], dl
  0008c	8a 50 07	 mov	 dl, BYTE PTR [eax+7]
  0008f	84 d2		 test	 dl, dl
  00091	0f 84 1e 01 00
	00		 je	 $LN89@LoadBool_e
  00097	80 f2 ea	 xor	 dl, -22			; ffffffeaH
  0009a	88 55 eb	 mov	 BYTE PTR __k$[ebp+7], dl
  0009d	8a 50 08	 mov	 dl, BYTE PTR [eax+8]
  000a0	84 d2		 test	 dl, dl
  000a2	0f 84 07 01 00
	00		 je	 $LN88@LoadBool_e
  000a8	80 f2 ed	 xor	 dl, -19			; ffffffedH
  000ab	88 55 ec	 mov	 BYTE PTR __k$[ebp+8], dl
  000ae	8a 50 09	 mov	 dl, BYTE PTR [eax+9]
  000b1	84 d2		 test	 dl, dl
  000b3	0f 84 f0 00 00
	00		 je	 $LN87@LoadBool_e
  000b9	80 f2 ec	 xor	 dl, -20			; ffffffecH
  000bc	88 55 ed	 mov	 BYTE PTR __k$[ebp+9], dl
  000bf	8a 50 0a	 mov	 dl, BYTE PTR [eax+10]
  000c2	84 d2		 test	 dl, dl
  000c4	0f 84 da 00 00
	00		 je	 $LN86@LoadBool_e
  000ca	32 d1		 xor	 dl, cl
  000cc	88 55 ee	 mov	 BYTE PTR __k$[ebp+10], dl
  000cf	8a 50 0b	 mov	 dl, BYTE PTR [eax+11]
  000d2	84 d2		 test	 dl, dl
  000d4	0f 84 c4 00 00
	00		 je	 $LN85@LoadBool_e
  000da	80 f2 ea	 xor	 dl, -22			; ffffffeaH
  000dd	88 55 ef	 mov	 BYTE PTR __k$[ebp+11], dl
  000e0	8a 50 0c	 mov	 dl, BYTE PTR [eax+12]
  000e3	84 d2		 test	 dl, dl
  000e5	0f 84 ad 00 00
	00		 je	 $LN84@LoadBool_e
  000eb	80 f2 ed	 xor	 dl, -19			; ffffffedH
  000ee	88 55 f0	 mov	 BYTE PTR __k$[ebp+12], dl
  000f1	8a 50 0d	 mov	 dl, BYTE PTR [eax+13]
  000f4	84 d2		 test	 dl, dl
  000f6	0f 84 96 00 00
	00		 je	 $LN83@LoadBool_e
  000fc	80 f2 ec	 xor	 dl, -20			; ffffffecH
  000ff	88 55 f1	 mov	 BYTE PTR __k$[ebp+13], dl
  00102	8a 50 0e	 mov	 dl, BYTE PTR [eax+14]
  00105	84 d2		 test	 dl, dl
  00107	0f 84 80 00 00
	00		 je	 $LN82@LoadBool_e
  0010d	32 d1		 xor	 dl, cl
  0010f	88 55 f2	 mov	 BYTE PTR __k$[ebp+14], dl
  00112	8a 50 0f	 mov	 dl, BYTE PTR [eax+15]
  00115	84 d2		 test	 dl, dl
  00117	74 6e		 je	 SHORT $LN81@LoadBool_e
  00119	80 f2 ea	 xor	 dl, -22			; ffffffeaH
  0011c	88 55 f3	 mov	 BYTE PTR __k$[ebp+15], dl
  0011f	8a 50 10	 mov	 dl, BYTE PTR [eax+16]
  00122	84 d2		 test	 dl, dl
  00124	74 5b		 je	 SHORT $LN80@LoadBool_e
  00126	80 f2 ed	 xor	 dl, -19			; ffffffedH
  00129	80 78 11 00	 cmp	 BYTE PTR [eax+17], 0
  0012d	88 55 f4	 mov	 BYTE PTR __k$[ebp+16], dl
  00130	0f 84 ac 00 00
	00		 je	 $LN1@LoadBool_e
  00136	8a 50 12	 mov	 dl, BYTE PTR [eax+18]
  00139	84 d2		 test	 dl, dl
  0013b	74 3f		 je	 SHORT $LN78@LoadBool_e
  0013d	32 d1		 xor	 dl, cl
  0013f	88 55 f6	 mov	 BYTE PTR __k$[ebp+18], dl
  00142	8a 50 13	 mov	 dl, BYTE PTR [eax+19]
  00145	84 d2		 test	 dl, dl
  00147	74 2d		 je	 SHORT $LN77@LoadBool_e
  00149	80 f2 ea	 xor	 dl, -22			; ffffffeaH
  0014c	88 55 f7	 mov	 BYTE PTR __k$[ebp+19], dl
  0014f	8a 50 14	 mov	 dl, BYTE PTR [eax+20]
  00152	84 d2		 test	 dl, dl
  00154	74 1a		 je	 SHORT $LN76@LoadBool_e
  00156	8a 40 15	 mov	 al, BYTE PTR [eax+21]
  00159	80 f2 ed	 xor	 dl, -19			; ffffffedH
  0015c	88 55 f8	 mov	 BYTE PTR __k$[ebp+20], dl
  0015f	84 c0		 test	 al, al
  00161	74 07		 je	 SHORT $LN75@LoadBool_e
  00163	34 ec		 xor	 al, -20			; ffffffecH
  00165	88 45 f9	 mov	 BYTE PTR __k$[ebp+21], al
  00168	eb 78		 jmp	 SHORT $LN1@LoadBool_e
$LN75@LoadBool_e:
  0016a	c6 45 f9 ec	 mov	 BYTE PTR __k$[ebp+21], -20 ; ffffffecH
  0016e	eb 72		 jmp	 SHORT $LN1@LoadBool_e
$LN76@LoadBool_e:
  00170	c6 45 f8 ed	 mov	 BYTE PTR __k$[ebp+20], -19 ; ffffffedH
  00174	eb 6c		 jmp	 SHORT $LN1@LoadBool_e
$LN77@LoadBool_e:
  00176	c6 45 f7 ea	 mov	 BYTE PTR __k$[ebp+19], -22 ; ffffffeaH
  0017a	eb 66		 jmp	 SHORT $LN1@LoadBool_e
$LN78@LoadBool_e:
  0017c	88 4d f6	 mov	 BYTE PTR __k$[ebp+18], cl
  0017f	eb 61		 jmp	 SHORT $LN1@LoadBool_e
$LN80@LoadBool_e:
  00181	c6 45 f4 ed	 mov	 BYTE PTR __k$[ebp+16], -19 ; ffffffedH
  00185	eb 5b		 jmp	 SHORT $LN1@LoadBool_e
$LN81@LoadBool_e:
  00187	c6 45 f3 ea	 mov	 BYTE PTR __k$[ebp+15], -22 ; ffffffeaH
  0018b	eb 55		 jmp	 SHORT $LN1@LoadBool_e
$LN82@LoadBool_e:
  0018d	88 4d f2	 mov	 BYTE PTR __k$[ebp+14], cl
  00190	eb 50		 jmp	 SHORT $LN1@LoadBool_e
$LN83@LoadBool_e:
  00192	c6 45 f1 ec	 mov	 BYTE PTR __k$[ebp+13], -20 ; ffffffecH
  00196	eb 4a		 jmp	 SHORT $LN1@LoadBool_e
$LN84@LoadBool_e:
  00198	c6 45 f0 ed	 mov	 BYTE PTR __k$[ebp+12], -19 ; ffffffedH
  0019c	eb 44		 jmp	 SHORT $LN1@LoadBool_e
$LN85@LoadBool_e:
  0019e	c6 45 ef ea	 mov	 BYTE PTR __k$[ebp+11], -22 ; ffffffeaH
  001a2	eb 3e		 jmp	 SHORT $LN1@LoadBool_e
$LN86@LoadBool_e:
  001a4	88 4d ee	 mov	 BYTE PTR __k$[ebp+10], cl
  001a7	eb 39		 jmp	 SHORT $LN1@LoadBool_e
$LN87@LoadBool_e:
  001a9	c6 45 ed ec	 mov	 BYTE PTR __k$[ebp+9], -20 ; ffffffecH
  001ad	eb 33		 jmp	 SHORT $LN1@LoadBool_e
$LN88@LoadBool_e:
  001af	c6 45 ec ed	 mov	 BYTE PTR __k$[ebp+8], -19 ; ffffffedH
  001b3	eb 2d		 jmp	 SHORT $LN1@LoadBool_e
$LN89@LoadBool_e:
  001b5	c6 45 eb ea	 mov	 BYTE PTR __k$[ebp+7], -22 ; ffffffeaH
  001b9	eb 27		 jmp	 SHORT $LN1@LoadBool_e
$LN90@LoadBool_e:
  001bb	88 4d ea	 mov	 BYTE PTR __k$[ebp+6], cl
  001be	eb 22		 jmp	 SHORT $LN1@LoadBool_e
$LN91@LoadBool_e:
  001c0	c6 45 e9 ec	 mov	 BYTE PTR __k$[ebp+5], -20 ; ffffffecH
  001c4	eb 1c		 jmp	 SHORT $LN1@LoadBool_e
$LN92@LoadBool_e:
  001c6	c6 45 e8 ed	 mov	 BYTE PTR __k$[ebp+4], -19 ; ffffffedH
  001ca	eb 16		 jmp	 SHORT $LN1@LoadBool_e
$LN93@LoadBool_e:
  001cc	c6 45 e7 ea	 mov	 BYTE PTR __k$[ebp+3], -22 ; ffffffeaH
  001d0	eb 10		 jmp	 SHORT $LN1@LoadBool_e
$LN94@LoadBool_e:
  001d2	c6 45 e6 eb	 mov	 BYTE PTR __k$[ebp+2], -21 ; ffffffebH
  001d6	eb 0a		 jmp	 SHORT $LN1@LoadBool_e
$LN95@LoadBool_e:
  001d8	c6 45 e5 ec	 mov	 BYTE PTR __k$[ebp+1], -20 ; ffffffecH
  001dc	eb 04		 jmp	 SHORT $LN1@LoadBool_e
$LN96@LoadBool_e:
  001de	c6 45 e4 ed	 mov	 BYTE PTR __k$[ebp], -19	; ffffffedH
$LN1@LoadBool_e:
  001e2	6a 04		 push	 4
  001e4	8d 45 e4	 lea	 eax, DWORD PTR __k$[ebp]
  001e7	c6 45 f5 00	 mov	 BYTE PTR __k$[ebp+17], 0
  001eb	5a		 pop	 edx
$LL104@LoadBool_e:
  001ec	81 30 ed ec eb
	ea		 xor	 DWORD PTR [eax], -353637139 ; eaebecedH
  001f2	83 c0 04	 add	 eax, 4
  001f5	4a		 dec	 edx
  001f6	75 f4		 jne	 SHORT $LL104@LoadBool_e

; 103  : 		return LoadBool(_k, b);

  001f8	ff 75 0c	 push	 DWORD PTR _b$[ebp]
  001fb	80 75 f4 ed	 xor	 BYTE PTR __k$[ebp+16], -19 ; ffffffedH
  001ff	8d 45 e4	 lea	 eax, DWORD PTR __k$[ebp]
  00202	50		 push	 eax
  00203	8b ce		 mov	 ecx, esi
  00205	ff 15 00 00 00
	00		 call	 DWORD PTR __imp_?LoadBool@ioINILoader@@QAE_NPBD_N@Z

; 104  : 	}

  0020b	8b 4d fc	 mov	 ecx, DWORD PTR __$ArrayPad$[ebp]
  0020e	33 cd		 xor	 ecx, ebp
  00210	5e		 pop	 esi
  00211	e8 00 00 00 00	 call	 @__security_check_cookie@4
  00216	c9		 leave
  00217	c2 08 00	 ret	 8
??$LoadBool_e@$0BC@@ioINILoader@@QAE_NAAY0BC@$$CBD_N@Z ENDP ; ioINILoader::LoadBool_e<18>
_TEXT	ENDS
PUBLIC	??B?$CEncrypt@H@@QBEHXZ				; CEncrypt<int>::operator int
; Function compile flags: /Ogsp
; File d:\lost saga for developer\youtube\tutorial\source\src\lsclient\encryptvalue.h
;	COMDAT ??B?$CEncrypt@H@@QBEHXZ
_TEXT	SEGMENT
_value$ = -4						; size = 4
??B?$CEncrypt@H@@QBEHXZ PROC				; CEncrypt<int>::operator int, COMDAT
; _this$ = ecx

; 145  : 	{

  00000	55		 push	 ebp
  00001	8b ec		 mov	 ebp, esp
  00003	51		 push	 ecx

; 146  : 		//UJ 130829, const    --start
; 147  : 		type value;
; 148  : 		CEncrypt<type>* pThis = const_cast<CEncrypt<type>*>(this);
; 149  : 		pThis->DecryptValueToPool(&value);

  00004	8d 45 fc	 lea	 eax, DWORD PTR _value$[ebp]
  00007	50		 push	 eax
  00008	e8 00 00 00 00	 call	 ?DecryptValueToPool@?$CEncrypt@H@@QAEXPAH@Z ; CEncrypt<int>::DecryptValueToPool

; 150  : 		//// const DecryptValueToPool     .
; 151  :  		//type value;
; 152  : 		//char szTempMem[MAX_ENCRYPT];
; 153  : 		//m_RC5.DecryptByte( m_MemPool, szTempMem, max(m_ValueSize, DEFAULT_ENCRYPT) );
; 154  : 		//memcpy( &value, szTempMem, m_ValueSize );
; 155  : 		//UJ --end
; 156  : 
; 157  : #ifdef _NOTUSE
; 158  : 		Debug();
; 159  : #endif
; 160  : 		return value;

  0000d	8b 45 fc	 mov	 eax, DWORD PTR _value$[ebp]

; 161  : 	}

  00010	c9		 leave
  00011	c3		 ret	 0
??B?$CEncrypt@H@@QBEHXZ ENDP				; CEncrypt<int>::operator int
_TEXT	ENDS
PUBLIC	__$ArrayPad$
EXTRN	?LoadProperty@ioBuff@@UAEXAAVioINILoader@@@Z:PROC ; ioBuff::LoadProperty
; Function compile flags: /Ogsp
; File d:\lost saga for developer\youtube\tutorial\source\src\lsclient\iopushdirectionbuff.cpp
;	COMDAT ?LoadProperty@ioPushDirectionBuff@@UAEXAAVioINILoader@@@Z
_TEXT	SEGMENT
__k$645256 = -28					; size = 18
__k$645506 = -24					; size = 11
__k$645381 = -24					; size = 11
__k$645118 = -24					; size = 11
__$ArrayPad$ = -4					; size = 4
_rkLoader$ = 8						; size = 4
?LoadProperty@ioPushDirectionBuff@@UAEXAAVioINILoader@@@Z PROC ; ioPushDirectionBuff::LoadProperty, COMDAT
; _this$ = ecx

; 30   : {

  00000	55		 push	 ebp
  00001	8b ec		 mov	 ebp, esp
  00003	83 ec 1c	 sub	 esp, 28			; 0000001cH
  00006	a1 00 00 00 00	 mov	 eax, DWORD PTR ___security_cookie
  0000b	33 c5		 xor	 eax, ebp
  0000d	89 45 fc	 mov	 DWORD PTR __$ArrayPad$[ebp], eax
  00010	56		 push	 esi
  00011	57		 push	 edi
  00012	8b 7d 08	 mov	 edi, DWORD PTR _rkLoader$[ebp]

; 31   : 	ioBuff::LoadProperty( rkLoader );

  00015	57		 push	 edi
  00016	8b f1		 mov	 esi, ecx
  00018	e8 00 00 00 00	 call	 ?LoadProperty@ioBuff@@UAEXAAVioINILoader@@@Z ; ioBuff::LoadProperty

; 32   : 
; 33   : 	char szBuf[MAX_PATH] = "";
; 34   : 
; 35   : 	m_fAngle = rkLoader.LoadFloat_e( "push_angle", 0.0f );

  0001d	6a 02		 push	 2
  0001f	c7 45 e8 9d 99
	98 82		 mov	 DWORD PTR __k$645118[ebp], -2103928419 ; 8298999dH
  00026	c7 45 ec b2 8d
	85 8d		 mov	 DWORD PTR __k$645118[ebp+4], -1920627278 ; 8d858db2H
  0002d	66 c7 45 f0 81
	89		 mov	 WORD PTR __k$645118[ebp+8], 35201 ; 00008981H
  00033	8d 45 e8	 lea	 eax, DWORD PTR __k$645118[ebp]
  00036	c6 45 f2 00	 mov	 BYTE PTR __k$645118[ebp+10], 0
  0003a	59		 pop	 ecx
$LL106@LoadProper:
  0003b	81 30 ed ec eb
	ea		 xor	 DWORD PTR [eax], -353637139 ; eaebecedH
  00041	83 c0 04	 add	 eax, 4
  00044	49		 dec	 ecx
  00045	75 f4		 jne	 SHORT $LL106@LoadProper
  00047	6a 08		 push	 8
  00049	58		 pop	 eax
$LL103@LoadProper:
  0004a	8b c8		 mov	 ecx, eax
  0004c	81 e1 03 00 00
	80		 and	 ecx, -2147483645	; 80000003H
  00052	79 05		 jns	 SHORT $LN443@LoadProper
  00054	49		 dec	 ecx
  00055	83 c9 fc	 or	 ecx, -4			; fffffffcH
  00058	41		 inc	 ecx
$LN443@LoadProper:
  00059	b2 ed		 mov	 dl, -19			; ffffffedH
  0005b	2a d1		 sub	 dl, cl
  0005d	30 54 05 e8	 xor	 BYTE PTR __k$645118[ebp+eax], dl
  00061	40		 inc	 eax
  00062	83 f8 0a	 cmp	 eax, 10			; 0000000aH
  00065	7c e3		 jl	 SHORT $LL103@LoadProper
  00067	0f 57 c0	 xorps	 xmm0, xmm0
  0006a	51		 push	 ecx
  0006b	8d 45 e8	 lea	 eax, DWORD PTR __k$645118[ebp]
  0006e	f3 0f 11 04 24	 movss	 DWORD PTR [esp], xmm0
  00073	50		 push	 eax
  00074	8b cf		 mov	 ecx, edi
  00076	ff 15 00 00 00
	00		 call	 DWORD PTR __imp_?LoadFloat@ioINILoader@@QAEMPBDM@Z
  0007c	d9 9e 6c 09 00
	00		 fstp	 DWORD PTR [esi+2412]
  00082	6a 04		 push	 4

; 36   : 	m_bLinerPower = rkLoader.LoadBool_e( "push_power_linear", true );

  00084	c7 45 e4 9d 99
	98 82		 mov	 DWORD PTR __k$645256[ebp], -2103928419 ; 8298999dH
  0008b	c7 45 e8 b2 9c
	84 9d		 mov	 DWORD PTR __k$645256[ebp+4], -1652253518 ; 9d849cb2H
  00092	c7 45 ec 88 9e
	b4 86		 mov	 DWORD PTR __k$645256[ebp+8], -2034983288 ; 86b49e88H
  00099	c7 45 f0 84 82
	8e 8b		 mov	 DWORD PTR __k$645256[ebp+12], -1953594748 ; 8b8e8284H
  000a0	8d 45 e4	 lea	 eax, DWORD PTR __k$645256[ebp]
  000a3	66 c7 45 f4 9f
	00		 mov	 WORD PTR __k$645256[ebp+16], 159 ; 0000009fH
  000a9	59		 pop	 ecx
$LL212@LoadProper:
  000aa	81 30 ed ec eb
	ea		 xor	 DWORD PTR [eax], -353637139 ; eaebecedH
  000b0	83 c0 04	 add	 eax, 4
  000b3	49		 dec	 ecx
  000b4	75 f4		 jne	 SHORT $LL212@LoadProper
  000b6	80 75 f4 ed	 xor	 BYTE PTR __k$645256[ebp+16], -19 ; ffffffedH
  000ba	6a 01		 push	 1
  000bc	8d 45 e4	 lea	 eax, DWORD PTR __k$645256[ebp]
  000bf	50		 push	 eax
  000c0	8b cf		 mov	 ecx, edi
  000c2	ff 15 00 00 00
	00		 call	 DWORD PTR __imp_?LoadBool@ioINILoader@@QAE_NPBD_N@Z
  000c8	6a 02		 push	 2
  000ca	88 86 70 09 00
	00		 mov	 BYTE PTR [esi+2416], al

; 37   : 	m_fPushPower = rkLoader.LoadFloat_e( "push_power", 0.0f );

  000d0	c7 45 e8 9d 99
	98 82		 mov	 DWORD PTR __k$645381[ebp], -2103928419 ; 8298999dH
  000d7	c7 45 ec b2 9c
	84 9d		 mov	 DWORD PTR __k$645381[ebp+4], -1652253518 ; 9d849cb2H
  000de	66 c7 45 f0 88
	9e		 mov	 WORD PTR __k$645381[ebp+8], 40584 ; 00009e88H
  000e4	8d 45 e8	 lea	 eax, DWORD PTR __k$645381[ebp]
  000e7	c6 45 f2 00	 mov	 BYTE PTR __k$645381[ebp+10], 0
  000eb	59		 pop	 ecx
$LL318@LoadProper:
  000ec	81 30 ed ec eb
	ea		 xor	 DWORD PTR [eax], -353637139 ; eaebecedH
  000f2	83 c0 04	 add	 eax, 4
  000f5	49		 dec	 ecx
  000f6	75 f4		 jne	 SHORT $LL318@LoadProper
  000f8	6a 08		 push	 8
  000fa	58		 pop	 eax
$LL315@LoadProper:
  000fb	8b c8		 mov	 ecx, eax
  000fd	81 e1 03 00 00
	80		 and	 ecx, -2147483645	; 80000003H
  00103	79 05		 jns	 SHORT $LN444@LoadProper
  00105	49		 dec	 ecx
  00106	83 c9 fc	 or	 ecx, -4			; fffffffcH
  00109	41		 inc	 ecx
$LN444@LoadProper:
  0010a	b2 ed		 mov	 dl, -19			; ffffffedH
  0010c	2a d1		 sub	 dl, cl
  0010e	30 54 05 e8	 xor	 BYTE PTR __k$645381[ebp+eax], dl
  00112	40		 inc	 eax
  00113	83 f8 0a	 cmp	 eax, 10			; 0000000aH
  00116	7c e3		 jl	 SHORT $LL315@LoadProper
  00118	0f 57 c0	 xorps	 xmm0, xmm0
  0011b	51		 push	 ecx
  0011c	8d 45 e8	 lea	 eax, DWORD PTR __k$645381[ebp]
  0011f	f3 0f 11 04 24	 movss	 DWORD PTR [esp], xmm0
  00124	50		 push	 eax
  00125	8b cf		 mov	 ecx, edi
  00127	ff 15 00 00 00
	00		 call	 DWORD PTR __imp_?LoadFloat@ioINILoader@@QAEMPBDM@Z
  0012d	d9 9e 74 09 00
	00		 fstp	 DWORD PTR [esi+2420]
  00133	6a 02		 push	 2

; 38   : 	m_fBlowPower = rkLoader.LoadFloat_e( "blow_power", 0.0f );

  00135	c7 45 e8 8f 80
	84 9d		 mov	 DWORD PTR __k$645506[ebp], -1652260721 ; 9d84808fH
  0013c	c7 45 ec b2 9c
	84 9d		 mov	 DWORD PTR __k$645506[ebp+4], -1652253518 ; 9d849cb2H
  00143	66 c7 45 f0 88
	9e		 mov	 WORD PTR __k$645506[ebp+8], 40584 ; 00009e88H
  00149	8d 45 e8	 lea	 eax, DWORD PTR __k$645506[ebp]
  0014c	c6 45 f2 00	 mov	 BYTE PTR __k$645506[ebp+10], 0
  00150	59		 pop	 ecx
$LL424@LoadProper:
  00151	81 30 ed ec eb
	ea		 xor	 DWORD PTR [eax], -353637139 ; eaebecedH
  00157	83 c0 04	 add	 eax, 4
  0015a	49		 dec	 ecx
  0015b	75 f4		 jne	 SHORT $LL424@LoadProper
  0015d	6a 08		 push	 8
  0015f	58		 pop	 eax
$LL421@LoadProper:
  00160	8b c8		 mov	 ecx, eax
  00162	81 e1 03 00 00
	80		 and	 ecx, -2147483645	; 80000003H
  00168	79 05		 jns	 SHORT $LN445@LoadProper
  0016a	49		 dec	 ecx
  0016b	83 c9 fc	 or	 ecx, -4			; fffffffcH
  0016e	41		 inc	 ecx
$LN445@LoadProper:
  0016f	b2 ed		 mov	 dl, -19			; ffffffedH
  00171	2a d1		 sub	 dl, cl
  00173	30 54 05 e8	 xor	 BYTE PTR __k$645506[ebp+eax], dl
  00177	40		 inc	 eax
  00178	83 f8 0a	 cmp	 eax, 10			; 0000000aH
  0017b	7c e3		 jl	 SHORT $LL421@LoadProper
  0017d	0f 57 c0	 xorps	 xmm0, xmm0
  00180	51		 push	 ecx
  00181	8d 45 e8	 lea	 eax, DWORD PTR __k$645506[ebp]
  00184	f3 0f 11 04 24	 movss	 DWORD PTR [esp], xmm0
  00189	50		 push	 eax
  0018a	8b cf		 mov	 ecx, edi
  0018c	ff 15 00 00 00
	00		 call	 DWORD PTR __imp_?LoadFloat@ioINILoader@@QAEMPBDM@Z
  00192	d9 9e 78 09 00
	00		 fstp	 DWORD PTR [esi+2424]

; 39   : }

  00198	8b 4d fc	 mov	 ecx, DWORD PTR __$ArrayPad$[ebp]
  0019b	5f		 pop	 edi
  0019c	33 cd		 xor	 ecx, ebp
  0019e	5e		 pop	 esi
  0019f	e8 00 00 00 00	 call	 @__security_check_cookie@4
  001a4	c9		 leave
  001a5	c2 04 00	 ret	 4
?LoadProperty@ioPushDirectionBuff@@UAEXAAVioINILoader@@@Z ENDP ; ioPushDirectionBuff::LoadProperty
_TEXT	ENDS
PUBLIC	?GetSubSkillType@ioSkill@@QBEHXZ		; ioSkill::GetSubSkillType
; Function compile flags: /Ogsp
; File d:\lost saga for developer\youtube\tutorial\source\src\lsclient\ioskill.h
;	COMDAT ?GetSubSkillType@ioSkill@@QBEHXZ
_TEXT	SEGMENT
_value$645631 = -4					; size = 4
?GetSubSkillType@ioSkill@@QBEHXZ PROC			; ioSkill::GetSubSkillType, COMDAT
; _this$ = ecx

; 399  : 	inline int GetSubSkillType() const { return m_iSubSkillType; }

  00000	55		 push	 ebp
  00001	8b ec		 mov	 ebp, esp
  00003	51		 push	 ecx
  00004	8d 45 fc	 lea	 eax, DWORD PTR _value$645631[ebp]
  00007	50		 push	 eax
  00008	81 c1 20 03 00
	00		 add	 ecx, 800		; 00000320H
  0000e	e8 00 00 00 00	 call	 ?DecryptValueToPool@?$CEncrypt@H@@QAEXPAH@Z ; CEncrypt<int>::DecryptValueToPool
  00013	8b 45 fc	 mov	 eax, DWORD PTR _value$645631[ebp]
  00016	c9		 leave
  00017	c3		 ret	 0
?GetSubSkillType@ioSkill@@QBEHXZ ENDP			; ioSkill::GetSubSkillType
_TEXT	ENDS
PUBLIC	??_R0?AVioChainTraceSkill@@@8			; ioChainTraceSkill `RTTI Type Descriptor'
PUBLIC	?ToChainTrace@@YAPAVioChainTraceSkill@@PAVioSkill@@@Z ; ToChainTrace
;	COMDAT ??_R0?AVioChainTraceSkill@@@8
; File d:\lost saga for developer\youtube\tutorial\source\src\lsclient\encryptvalue.h
_DATA	SEGMENT
??_R0?AVioChainTraceSkill@@@8 DD FLAT:??_7type_info@@6B@ ; ioChainTraceSkill `RTTI Type Descriptor'
	DD	00H
	DB	'.?AVioChainTraceSkill@@', 00H
; Function compile flags: /Ogsp
; File d:\lost saga for developer\youtube\tutorial\source\src\lsclient\iochaintraceskill.h
_DATA	ENDS
;	COMDAT ?ToChainTrace@@YAPAVioChainTraceSkill@@PAVioSkill@@@Z
_TEXT	SEGMENT
_value$645644 = -4					; size = 4
_pSkill$ = 8						; size = 4
?ToChainTrace@@YAPAVioChainTraceSkill@@PAVioSkill@@@Z PROC ; ToChainTrace, COMDAT

; 145  : {

  00000	55		 push	 ebp
  00001	8b ec		 mov	 ebp, esp
  00003	51		 push	 ecx
  00004	56		 push	 esi

; 146  : 	ioAttackSkill *pAttack = ToAttackSkill( pSkill );

  00005	ff 75 08	 push	 DWORD PTR _pSkill$[ebp]
  00008	e8 00 00 00 00	 call	 ?ToAttackSkill@@YAPAVioAttackSkill@@PAVioSkill@@@Z ; ToAttackSkill
  0000d	8b f0		 mov	 esi, eax
  0000f	59		 pop	 ecx

; 147  : 	if( !pAttack || pAttack->GetSubSkillType() != AST_CHAIN_TRACE )

  00010	85 f6		 test	 esi, esi
  00012	74 2e		 je	 SHORT $LN1@ToChainTra
  00014	8d 45 fc	 lea	 eax, DWORD PTR _value$645644[ebp]
  00017	50		 push	 eax
  00018	8d 8e 20 03 00
	00		 lea	 ecx, DWORD PTR [esi+800]
  0001e	e8 00 00 00 00	 call	 ?DecryptValueToPool@?$CEncrypt@H@@QAEXPAH@Z ; CEncrypt<int>::DecryptValueToPool
  00023	83 7d fc 4c	 cmp	 DWORD PTR _value$645644[ebp], 76 ; 0000004cH
  00027	75 19		 jne	 SHORT $LN1@ToChainTra

; 149  : 
; 150  : 	return dynamic_cast< ioChainTraceSkill* >(pAttack);

  00029	6a 00		 push	 0
  0002b	68 00 00 00 00	 push	 OFFSET ??_R0?AVioChainTraceSkill@@@8
  00030	68 00 00 00 00	 push	 OFFSET ??_R0?AVioAttackSkill@@@8
  00035	6a 00		 push	 0
  00037	56		 push	 esi
  00038	e8 00 00 00 00	 call	 ___RTDynamicCast
  0003d	83 c4 14	 add	 esp, 20			; 00000014H
  00040	eb 02		 jmp	 SHORT $LN3@ToChainTra
$LN1@ToChainTra:

; 148  : 		return NULL;

  00042	33 c0		 xor	 eax, eax
$LN3@ToChainTra:
  00044	5e		 pop	 esi

; 151  : }

  00045	c9		 leave
  00046	c3		 ret	 0
?ToChainTrace@@YAPAVioChainTraceSkill@@PAVioSkill@@@Z ENDP ; ToChainTrace
_TEXT	ENDS
PUBLIC	??_R0?AVioCircleMoveAttackSkill7@@@8		; ioCircleMoveAttackSkill7 `RTTI Type Descriptor'
PUBLIC	?ToCircleMoveAttackSkill7@@YAPAVioCircleMoveAttackSkill7@@PAVioSkill@@@Z ; ToCircleMoveAttackSkill7
;	COMDAT ??_R0?AVioCircleMoveAttackSkill7@@@8
; File d:\lost saga for developer\youtube\tutorial\source\src\lsclient\encryptvalue.h
_DATA	SEGMENT
??_R0?AVioCircleMoveAttackSkill7@@@8 DD FLAT:??_7type_info@@6B@ ; ioCircleMoveAttackSkill7 `RTTI Type Descriptor'
	DD	00H
	DB	'.?AVioCircleMoveAttackSkill7@@', 00H
; Function compile flags: /Ogsp
; File d:\lost saga for developer\youtube\tutorial\source\src\lsclient\iocirclemoveattackskill7.h
_DATA	ENDS
;	COMDAT ?ToCircleMoveAttackSkill7@@YAPAVioCircleMoveAttackSkill7@@PAVioSkill@@@Z
_TEXT	SEGMENT
_value$645658 = -4					; size = 4
_pSkill$ = 8						; size = 4
?ToCircleMoveAttackSkill7@@YAPAVioCircleMoveAttackSkill7@@PAVioSkill@@@Z PROC ; ToCircleMoveAttackSkill7, COMDAT

; 136  : {

  00000	55		 push	 ebp
  00001	8b ec		 mov	 ebp, esp
  00003	51		 push	 ecx

; 137  : 	ioNormalSkill *pNormal = ToNormalSkill( pSkill );

  00004	ff 75 08	 push	 DWORD PTR _pSkill$[ebp]
  00007	e8 00 00 00 00	 call	 ?ToNormalSkill@@YAPAVioNormalSkill@@PAVioSkill@@@Z ; ToNormalSkill
  0000c	59		 pop	 ecx

; 138  : 	if( !pNormal || pNormal->GetSubSkillType() != NST_CIRCLE_MOVE_ATTACK7 )

  0000d	85 c0		 test	 eax, eax
  0000f	74 30		 je	 SHORT $LN1@ToCircleMo
  00011	8d 4d fc	 lea	 ecx, DWORD PTR _value$645658[ebp]
  00014	51		 push	 ecx
  00015	8d 88 20 03 00
	00		 lea	 ecx, DWORD PTR [eax+800]
  0001b	e8 00 00 00 00	 call	 ?DecryptValueToPool@?$CEncrypt@H@@QAEXPAH@Z ; CEncrypt<int>::DecryptValueToPool
  00020	83 7d fc 43	 cmp	 DWORD PTR _value$645658[ebp], 67 ; 00000043H
  00024	75 1b		 jne	 SHORT $LN1@ToCircleMo

; 140  : 
; 141  : 	return dynamic_cast< ioCircleMoveAttackSkill7* >( pSkill );

  00026	6a 00		 push	 0
  00028	68 00 00 00 00	 push	 OFFSET ??_R0?AVioCircleMoveAttackSkill7@@@8
  0002d	68 00 00 00 00	 push	 OFFSET ??_R0?AVioSkill@@@8
  00032	6a 00		 push	 0
  00034	ff 75 08	 push	 DWORD PTR _pSkill$[ebp]
  00037	e8 00 00 00 00	 call	 ___RTDynamicCast
  0003c	83 c4 14	 add	 esp, 20			; 00000014H

; 142  : }

  0003f	c9		 leave
  00040	c3		 ret	 0
$LN1@ToCircleMo:

; 139  : 		return NULL;

  00041	33 c0		 xor	 eax, eax

; 142  : }

  00043	c9		 leave
  00044	c3		 ret	 0
?ToCircleMoveAttackSkill7@@YAPAVioCircleMoveAttackSkill7@@PAVioSkill@@@Z ENDP ; ToCircleMoveAttackSkill7
_TEXT	ENDS
PUBLIC	??_R0?AVioFantasticWhipAttack@@@8		; ioFantasticWhipAttack `RTTI Type Descriptor'
PUBLIC	?ToFantasticWhipAttack@@YAPAVioFantasticWhipAttack@@PAVioSkill@@@Z ; ToFantasticWhipAttack
;	COMDAT ??_R0?AVioFantasticWhipAttack@@@8
; File d:\lost saga for developer\youtube\tutorial\source\src\lsclient\encryptvalue.h
_DATA	SEGMENT
??_R0?AVioFantasticWhipAttack@@@8 DD FLAT:??_7type_info@@6B@ ; ioFantasticWhipAttack `RTTI Type Descriptor'
	DD	00H
	DB	'.?AVioFantasticWhipAttack@@', 00H
; Function compile flags: /Ogsp
; File d:\lost saga for developer\youtube\tutorial\source\src\lsclient\iofantasticwhipattack.h
_DATA	ENDS
;	COMDAT ?ToFantasticWhipAttack@@YAPAVioFantasticWhipAttack@@PAVioSkill@@@Z
_TEXT	SEGMENT
_value$645672 = -4					; size = 4
_pSkill$ = 8						; size = 4
?ToFantasticWhipAttack@@YAPAVioFantasticWhipAttack@@PAVioSkill@@@Z PROC ; ToFantasticWhipAttack, COMDAT

; 162  : {

  00000	55		 push	 ebp
  00001	8b ec		 mov	 ebp, esp
  00003	51		 push	 ecx
  00004	56		 push	 esi

; 163  : 	ioCountSkill *pCount = ToCountSkill( pSkill );

  00005	ff 75 08	 push	 DWORD PTR _pSkill$[ebp]
  00008	e8 00 00 00 00	 call	 ?ToCountSkill@@YAPAVioCountSkill@@PAVioSkill@@@Z ; ToCountSkill
  0000d	8b f0		 mov	 esi, eax
  0000f	59		 pop	 ecx

; 164  : 	if( !pCount || pCount->GetSubSkillType() != CST_WHIP_ATTACK )

  00010	85 f6		 test	 esi, esi
  00012	74 2e		 je	 SHORT $LN1@ToFantasti
  00014	8d 45 fc	 lea	 eax, DWORD PTR _value$645672[ebp]
  00017	50		 push	 eax
  00018	8d 8e 20 03 00
	00		 lea	 ecx, DWORD PTR [esi+800]
  0001e	e8 00 00 00 00	 call	 ?DecryptValueToPool@?$CEncrypt@H@@QAEXPAH@Z ; CEncrypt<int>::DecryptValueToPool
  00023	83 7d fc 07	 cmp	 DWORD PTR _value$645672[ebp], 7
  00027	75 19		 jne	 SHORT $LN1@ToFantasti

; 166  : 
; 167  : 	return dynamic_cast< ioFantasticWhipAttack* >( pCount );

  00029	6a 00		 push	 0
  0002b	68 00 00 00 00	 push	 OFFSET ??_R0?AVioFantasticWhipAttack@@@8
  00030	68 00 00 00 00	 push	 OFFSET ??_R0?AVioCountSkill@@@8
  00035	6a 00		 push	 0
  00037	56		 push	 esi
  00038	e8 00 00 00 00	 call	 ___RTDynamicCast
  0003d	83 c4 14	 add	 esp, 20			; 00000014H
  00040	eb 02		 jmp	 SHORT $LN3@ToFantasti
$LN1@ToFantasti:

; 165  : 		return NULL;

  00042	33 c0		 xor	 eax, eax
$LN3@ToFantasti:
  00044	5e		 pop	 esi

; 168  : }

  00045	c9		 leave
  00046	c3		 ret	 0
?ToFantasticWhipAttack@@YAPAVioFantasticWhipAttack@@PAVioSkill@@@Z ENDP ; ToFantasticWhipAttack
_TEXT	ENDS
PUBLIC	__real@4f800000
PUBLIC	__real@4066800000000000
PUBLIC	__real@4046800000000000
PUBLIC	_this$GSCopy$
PUBLIC	__$ArrayPad$
EXTRN	?SetJumpPower@ioBaseChar@@QAEXM@Z:PROC		; ioBaseChar::SetJumpPower
EXTRN	?SetForcePower@ioBaseChar@@QAEXABUD3DXVECTOR3@@MM_N@Z:PROC ; ioBaseChar::SetForcePower
EXTRN	_D3DXQuaternionRotationYawPitchRoll@16:PROC
EXTRN	__imp_?ArrangeHead@ioMath@@SAMM@Z:PROC
EXTRN	__imp_??D@YA?AUD3DXVECTOR3@@ABUD3DXQUATERNION@@ABU0@@Z:PROC
EXTRN	_D3DXQuaternionRotationAxis@12:PROC
EXTRN	__imp_?VEC3_ZERO@ioMath@@2UD3DXVECTOR3@@A:BYTE
EXTRN	_D3DXVec3Normalize@8:PROC
EXTRN	__imp_?UNIT_Y@ioMath@@2UD3DXVECTOR3@@A:BYTE
EXTRN	?GetCurKey@ioSuccubusItem@@QAE?AW4DirKeyInput@ioUserKeyInput@@XZ:PROC ; ioSuccubusItem::GetCurKey
EXTRN	?GetCurKey@ioCircleMoveAttackSkill7@@QAE?AW4DirKeyInput@ioUserKeyInput@@XZ:PROC ; ioCircleMoveAttackSkill7::GetCurKey
EXTRN	?GetCurKey@ioChainTraceSkill@@QAE?AW4DirKeyInput@ioUserKeyInput@@XZ:PROC ; ioChainTraceSkill::GetCurKey
EXTRN	?GetCurActiveSkill@ioBaseChar@@QAEPAVioSkill@@XZ:PROC ; ioBaseChar::GetCurActiveSkill
EXTRN	?GetPriorityItem@ioBaseChar@@QBEPAVioAttackableItem@@W4StatePriorityType@@@Z:PROC ; ioBaseChar::GetPriorityItem
EXTRN	?GetCreator@ioBuff@@QAEPAVioBaseChar@@XZ:PROC	; ioBuff::GetCreator
EXTRN	?SetReserveEndBuff@ioBuff@@QAEXXZ:PROC		; ioBuff::SetReserveEndBuff
EXTRN	?GetOwner@ioBuff@@QAEPAVioBaseChar@@XZ:PROC	; ioBuff::GetOwner
;	COMDAT __real@4f800000
; File d:\lost saga for developer\youtube\tutorial\source\src\lsclient\stdafx.h
CONST	SEGMENT
__real@4f800000 DD 04f800000r			; 4.29497e+009
CONST	ENDS
;	COMDAT __real@4066800000000000
CONST	SEGMENT
__real@4066800000000000 DQ 04066800000000000r	; 180
CONST	ENDS
;	COMDAT __real@4046800000000000
CONST	SEGMENT
__real@4046800000000000 DQ 04046800000000000r	; 45
; Function compile flags: /Ogsp
; File d:\lost saga for developer\youtube\tutorial\source\src\lsclient\iopushdirectionbuff.cpp
CONST	ENDS
;	COMDAT ?SetAction@ioPushDirectionBuff@@MAEXXZ
_TEXT	SEGMENT
_qtRotate$642133 = -124					; size = 16
_qtRot$ = -108						; size = 16
_pOwner$ = -92						; size = 4
_pSuccubusItem$ = -88					; size = 4
_pItem$ = -88						; size = 4
_this$GSCopy$ = -84					; size = 4
tv573 = -80						; size = 4
tv559 = -80						; size = 4
tv240 = -80						; size = 4
_fYawD$642132 = -80					; size = 4
_pCircleMoveAttackSkill7$ = -80				; size = 4
$T642136 = -76						; size = 12
_vMoveDir$642138 = -64					; size = 12
_vAxis2$ = -52						; size = 12
_vAxis1$ = -40						; size = 12
_v$645708 = -28						; size = 12
_v$645697 = -28						; size = 12
_vSightDir$642134 = -28					; size = 12
$T642130 = -28						; size = 12
_vPushDir$ = -16					; size = 12
__$ArrayPad$ = -4					; size = 4
?SetAction@ioPushDirectionBuff@@MAEXXZ PROC		; ioPushDirectionBuff::SetAction, COMDAT
; _this$ = ecx

; 66   : {

  00000	55		 push	 ebp
  00001	8b ec		 mov	 ebp, esp
  00003	83 ec 7c	 sub	 esp, 124		; 0000007cH
  00006	a1 00 00 00 00	 mov	 eax, DWORD PTR ___security_cookie
  0000b	33 c5		 xor	 eax, ebp
  0000d	89 45 fc	 mov	 DWORD PTR __$ArrayPad$[ebp], eax
  00010	57		 push	 edi
  00011	8b f9		 mov	 edi, ecx

; 67   : 	ioBaseChar *pOwner = GetOwner();

  00013	89 7d ac	 mov	 DWORD PTR _this$GSCopy$[ebp], edi
  00016	e8 00 00 00 00	 call	 ?GetOwner@ioBuff@@QAEPAVioBaseChar@@XZ ; ioBuff::GetOwner
  0001b	89 45 a4	 mov	 DWORD PTR _pOwner$[ebp], eax

; 68   : 	if( !pOwner )
; 69   : 	{
; 70   : 		SetReserveEndBuff();

  0001e	8b cf		 mov	 ecx, edi
  00020	85 c0		 test	 eax, eax
  00022	75 0a		 jne	 SHORT $LN14@SetAction
  00024	e8 00 00 00 00	 call	 ?SetReserveEndBuff@ioBuff@@QAEXXZ ; ioBuff::SetReserveEndBuff

; 71   : 		return;

  00029	e9 fa 03 00 00	 jmp	 $LN15@SetAction
$LN14@SetAction:
  0002e	56		 push	 esi

; 72   : 	}
; 73   : 
; 74   : 	ioBaseChar *pCreater = GetCreator();

  0002f	e8 00 00 00 00	 call	 ?GetCreator@ioBuff@@QAEPAVioBaseChar@@XZ ; ioBuff::GetCreator
  00034	8b f0		 mov	 esi, eax

; 75   : 	if( !pCreater )

  00036	85 f6		 test	 esi, esi
  00038	75 0c		 jne	 SHORT $LN13@SetAction

; 76   : 	{
; 77   : 		SetReserveEndBuff();

  0003a	8b cf		 mov	 ecx, edi
  0003c	e8 00 00 00 00	 call	 ?SetReserveEndBuff@ioBuff@@QAEXXZ ; ioBuff::SetReserveEndBuff

; 78   : 		return;

  00041	e9 e1 03 00 00	 jmp	 $LN54@SetAction
$LN13@SetAction:
  00046	53		 push	 ebx

; 79   : 	}
; 80   : 
; 81   : 	ioAttackableItem *pItem = pCreater->GetPriorityItem( SPT_ATTACK );

  00047	6a 05		 push	 5
  00049	8b ce		 mov	 ecx, esi
  0004b	e8 00 00 00 00	 call	 ?GetPriorityItem@ioBaseChar@@QBEPAVioAttackableItem@@W4StatePriorityType@@@Z ; ioBaseChar::GetPriorityItem

; 82   : 
; 83   : 	ioSkill *pCurSkill = pCreater->GetCurActiveSkill();

  00050	8b ce		 mov	 ecx, esi
  00052	89 45 a8	 mov	 DWORD PTR _pItem$[ebp], eax
  00055	e8 00 00 00 00	 call	 ?GetCurActiveSkill@ioBaseChar@@QAEPAVioSkill@@XZ ; ioBaseChar::GetCurActiveSkill
  0005a	8b f8		 mov	 edi, eax

; 84   : 	ioChainTraceSkill *pChainTraceSkill = ToChainTrace( pCurSkill );

  0005c	57		 push	 edi
  0005d	e8 00 00 00 00	 call	 ?ToChainTrace@@YAPAVioChainTraceSkill@@PAVioSkill@@@Z ; ToChainTrace

; 85   : 	ioCircleMoveAttackSkill7 *pCircleMoveAttackSkill7 = ToCircleMoveAttackSkill7( pCurSkill );

  00062	57		 push	 edi
  00063	8b d8		 mov	 ebx, eax
  00065	e8 00 00 00 00	 call	 ?ToCircleMoveAttackSkill7@@YAPAVioCircleMoveAttackSkill7@@PAVioSkill@@@Z ; ToCircleMoveAttackSkill7

; 86   : 	ioSuccubusItem *pSuccubusItem = ToSuccubusItem( pItem );

  0006a	ff 75 a8	 push	 DWORD PTR _pItem$[ebp]
  0006d	89 45 b0	 mov	 DWORD PTR _pCircleMoveAttackSkill7$[ebp], eax
  00070	e8 00 00 00 00	 call	 ?ToSuccubusItem@@YAPAVioSuccubusItem@@PAVioItem@@@Z ; ToSuccubusItem

; 87   : 	ioFantasticWhipAttack* pFantastic = ToFantasticWhipAttack( pCurSkill );

  00075	57		 push	 edi
  00076	89 45 a8	 mov	 DWORD PTR _pSuccubusItem$[ebp], eax
  00079	e8 00 00 00 00	 call	 ?ToFantasticWhipAttack@@YAPAVioFantasticWhipAttack@@PAVioSkill@@@Z ; ToFantasticWhipAttack

; 88   : 
; 89   : 	D3DXVECTOR3 vPushDir =	pCreater->GetMoveDir();

  0007e	81 c6 b4 06 00
	00		 add	 esi, 1716		; 000006b4H
  00084	8d 7d f0	 lea	 edi, DWORD PTR _vPushDir$[ebp]
  00087	a5		 movsd
  00088	a5		 movsd
  00089	83 c4 10	 add	 esp, 16			; 00000010H
  0008c	a5		 movsd

; 90   : 	ioUserKeyInput::DirKeyInput curKey = ioUserKeyInput::DKI_NONE;
; 91   : 
; 92   : 	if( pChainTraceSkill )

  0008d	85 db		 test	 ebx, ebx
  0008f	74 09		 je	 SHORT $LN12@SetAction

; 93   : 	{
; 94   : 		curKey = pChainTraceSkill->GetCurKey();

  00091	8b cb		 mov	 ecx, ebx
  00093	e8 00 00 00 00	 call	 ?GetCurKey@ioChainTraceSkill@@QAE?AW4DirKeyInput@ioUserKeyInput@@XZ ; ioChainTraceSkill::GetCurKey
  00098	eb 1a		 jmp	 SHORT $LN58@SetAction
$LN12@SetAction:

; 95   : 	}
; 96   : 	else if( pCircleMoveAttackSkill7 )

  0009a	8b 4d b0	 mov	 ecx, DWORD PTR _pCircleMoveAttackSkill7$[ebp]
  0009d	85 c9		 test	 ecx, ecx
  0009f	74 07		 je	 SHORT $LN10@SetAction

; 97   : 	{
; 98   : 		curKey = pCircleMoveAttackSkill7->GetCurKey();

  000a1	e8 00 00 00 00	 call	 ?GetCurKey@ioCircleMoveAttackSkill7@@QAE?AW4DirKeyInput@ioUserKeyInput@@XZ ; ioCircleMoveAttackSkill7::GetCurKey
  000a6	eb 0c		 jmp	 SHORT $LN58@SetAction
$LN10@SetAction:

; 99   : 	}
; 100  : 	else if( pSuccubusItem )

  000a8	8b 4d a8	 mov	 ecx, DWORD PTR _pSuccubusItem$[ebp]
  000ab	85 c9		 test	 ecx, ecx
  000ad	74 09		 je	 SHORT $LN8@SetAction

; 101  : 	{
; 102  : 		curKey = pSuccubusItem->GetCurKey();

  000af	e8 00 00 00 00	 call	 ?GetCurKey@ioSuccubusItem@@QAE?AW4DirKeyInput@ioUserKeyInput@@XZ ; ioSuccubusItem::GetCurKey
$LN58@SetAction:
  000b4	8b d8		 mov	 ebx, eax
  000b6	eb 0a		 jmp	 SHORT $LN5@SetAction
$LN8@SetAction:

; 103  : 	}
; 104  : 	else if( pFantastic )

  000b8	85 c0		 test	 eax, eax
  000ba	0f 84 5e 03 00
	00		 je	 $LN6@SetAction

; 105  : 	{
; 106  : 		curKey = ioUserKeyInput::DKI_NONE;

  000c0	33 db		 xor	 ebx, ebx
$LN5@SetAction:

; 111  : 		return;
; 112  : 	}
; 113  : 
; 114  : 
; 115  : 	D3DXVECTOR3 vAxis1, vAxis2;
; 116  : 	D3DXVec3Cross( &vAxis1, &ioMath::UNIT_Y, &vPushDir );

  000c2	f3 0f 10 5d f8	 movss	 xmm3, DWORD PTR _vPushDir$[ebp+8]
  000c7	a1 00 00 00 00	 mov	 eax, DWORD PTR __imp_?UNIT_Y@ioMath@@2UD3DXVECTOR3@@A
  000cc	f3 0f 10 40 04	 movss	 xmm0, DWORD PTR [eax+4]
  000d1	f3 0f 10 48 08	 movss	 xmm1, DWORD PTR [eax+8]
  000d6	f3 0f 10 65 f4	 movss	 xmm4, DWORD PTR _vPushDir$[ebp+4]
  000db	0f 5a db	 cvtps2pd xmm3, xmm3
  000de	0f 5a d0	 cvtps2pd xmm2, xmm0
  000e1	f2 0f 59 d3	 mulsd	 xmm2, xmm3
  000e5	0f 5a e4	 cvtps2pd xmm4, xmm4
  000e8	0f 5a c0	 cvtps2pd xmm0, xmm0
  000eb	8d 75 e4	 lea	 esi, DWORD PTR _v$645697[ebp]
  000ee	0f 5a d9	 cvtps2pd xmm3, xmm1
  000f1	f2 0f 59 dc	 mulsd	 xmm3, xmm4
  000f5	f3 0f 10 65 f8	 movss	 xmm4, DWORD PTR _vPushDir$[ebp+8]
  000fa	f2 0f 5c d3	 subsd	 xmm2, xmm3
  000fe	f3 0f 10 5d f0	 movss	 xmm3, DWORD PTR _vPushDir$[ebp]
  00103	0f 5a db	 cvtps2pd xmm3, xmm3
  00106	66 0f 5a d2	 cvtpd2ps xmm2, xmm2
  0010a	f3 0f 11 55 e4	 movss	 DWORD PTR _v$645697[ebp], xmm2
  0010f	f3 0f 10 10	 movss	 xmm2, DWORD PTR [eax]
  00113	0f 5a c9	 cvtps2pd xmm1, xmm1
  00116	f2 0f 59 cb	 mulsd	 xmm1, xmm3
  0011a	0f 5a da	 cvtps2pd xmm3, xmm2
  0011d	0f 5a e4	 cvtps2pd xmm4, xmm4
  00120	f2 0f 59 dc	 mulsd	 xmm3, xmm4
  00124	f2 0f 5c cb	 subsd	 xmm1, xmm3
  00128	66 0f 5a c9	 cvtpd2ps xmm1, xmm1
  0012c	f3 0f 11 4d e8	 movss	 DWORD PTR _v$645697[ebp+4], xmm1
  00131	8d 7d d8	 lea	 edi, DWORD PTR _vAxis1$[ebp]

; 117  : 	D3DXVec3Normalize(&vAxis1,&vAxis1);

  00134	8d 45 d8	 lea	 eax, DWORD PTR _vAxis1$[ebp]
  00137	50		 push	 eax
  00138	50		 push	 eax
  00139	0f 5a ca	 cvtps2pd xmm1, xmm2
  0013c	f3 0f 10 55 f4	 movss	 xmm2, DWORD PTR _vPushDir$[ebp+4]
  00141	0f 5a d2	 cvtps2pd xmm2, xmm2
  00144	f2 0f 59 ca	 mulsd	 xmm1, xmm2
  00148	f3 0f 10 55 f0	 movss	 xmm2, DWORD PTR _vPushDir$[ebp]
  0014d	0f 5a d2	 cvtps2pd xmm2, xmm2
  00150	f2 0f 59 c2	 mulsd	 xmm0, xmm2
  00154	f2 0f 5c c8	 subsd	 xmm1, xmm0
  00158	66 0f 5a c1	 cvtpd2ps xmm0, xmm1
  0015c	f3 0f 11 45 ec	 movss	 DWORD PTR _v$645697[ebp+8], xmm0
  00161	a5		 movsd
  00162	a5		 movsd
  00163	a5		 movsd
  00164	e8 00 00 00 00	 call	 _D3DXVec3Normalize@8

; 118  : 
; 119  : 	D3DXVec3Cross( &vAxis2, &vPushDir, &vAxis1 );

  00169	f3 0f 10 45 e0	 movss	 xmm0, DWORD PTR _vAxis1$[ebp+8]
  0016e	f3 0f 10 4d f4	 movss	 xmm1, DWORD PTR _vPushDir$[ebp+4]
  00173	f3 0f 10 55 f8	 movss	 xmm2, DWORD PTR _vPushDir$[ebp+8]
  00178	0f 5a c9	 cvtps2pd xmm1, xmm1
  0017b	0f 5a c0	 cvtps2pd xmm0, xmm0
  0017e	f2 0f 59 c1	 mulsd	 xmm0, xmm1
  00182	f3 0f 10 4d dc	 movss	 xmm1, DWORD PTR _vAxis1$[ebp+4]
  00187	0f 5a c9	 cvtps2pd xmm1, xmm1
  0018a	0f 5a d2	 cvtps2pd xmm2, xmm2
  0018d	f2 0f 59 ca	 mulsd	 xmm1, xmm2
  00191	f3 0f 10 55 f0	 movss	 xmm2, DWORD PTR _vPushDir$[ebp]
  00196	f2 0f 5c c1	 subsd	 xmm0, xmm1
  0019a	f3 0f 10 4d d8	 movss	 xmm1, DWORD PTR _vAxis1$[ebp]
  0019f	f2 0f 5a c0	 cvtsd2ss xmm0, xmm0
  001a3	f3 0f 11 45 e4	 movss	 DWORD PTR _v$645708[ebp], xmm0
  001a8	f3 0f 10 45 f8	 movss	 xmm0, DWORD PTR _vPushDir$[ebp+8]
  001ad	0f 5a c9	 cvtps2pd xmm1, xmm1
  001b0	0f 5a c0	 cvtps2pd xmm0, xmm0
  001b3	f2 0f 59 c1	 mulsd	 xmm0, xmm1
  001b7	f3 0f 10 4d e0	 movss	 xmm1, DWORD PTR _vAxis1$[ebp+8]
  001bc	0f 5a c9	 cvtps2pd xmm1, xmm1
  001bf	0f 5a d2	 cvtps2pd xmm2, xmm2
  001c2	f2 0f 59 ca	 mulsd	 xmm1, xmm2
  001c6	f3 0f 10 55 d8	 movss	 xmm2, DWORD PTR _vAxis1$[ebp]
  001cb	f2 0f 5c c1	 subsd	 xmm0, xmm1
  001cf	f3 0f 10 4d f0	 movss	 xmm1, DWORD PTR _vPushDir$[ebp]
  001d4	f2 0f 5a c0	 cvtsd2ss xmm0, xmm0
  001d8	f3 0f 11 45 e8	 movss	 DWORD PTR _v$645708[ebp+4], xmm0
  001dd	f3 0f 10 45 dc	 movss	 xmm0, DWORD PTR _vAxis1$[ebp+4]
  001e2	0f 5a c9	 cvtps2pd xmm1, xmm1
  001e5	0f 5a c0	 cvtps2pd xmm0, xmm0
  001e8	f2 0f 59 c1	 mulsd	 xmm0, xmm1
  001ec	f3 0f 10 4d f4	 movss	 xmm1, DWORD PTR _vPushDir$[ebp+4]
  001f1	0f 5a c9	 cvtps2pd xmm1, xmm1
  001f4	0f 5a d2	 cvtps2pd xmm2, xmm2
  001f7	f2 0f 59 ca	 mulsd	 xmm1, xmm2
  001fb	f2 0f 5c c1	 subsd	 xmm0, xmm1
  001ff	f2 0f 5a c0	 cvtsd2ss xmm0, xmm0
  00203	f3 0f 11 45 ec	 movss	 DWORD PTR _v$645708[ebp+8], xmm0
  00208	8d 75 e4	 lea	 esi, DWORD PTR _v$645708[ebp]
  0020b	8d 7d cc	 lea	 edi, DWORD PTR _vAxis2$[ebp]
  0020e	a5		 movsd

; 120  : 	D3DXVec3Normalize(&vAxis2,&vAxis2);

  0020f	8d 45 cc	 lea	 eax, DWORD PTR _vAxis2$[ebp]
  00212	a5		 movsd
  00213	50		 push	 eax
  00214	50		 push	 eax
  00215	a5		 movsd
  00216	e8 00 00 00 00	 call	 _D3DXVec3Normalize@8

; 121  : 
; 122  : 	D3DXQUATERNION qtRot;
; 123  : 	if( curKey == ioUserKeyInput::DKI_NONE )

  0021b	85 db		 test	 ebx, ebx
  0021d	0f 85 e0 00 00
	00		 jne	 $LN4@SetAction

; 124  : 	{
; 125  : 		if( vAxis2 == ioMath::VEC3_ZERO )

  00223	8b 0d 00 00 00
	00		 mov	 ecx, DWORD PTR __imp_?VEC3_ZERO@ioMath@@2UD3DXVECTOR3@@A
  00229	f3 0f 10 45 cc	 movss	 xmm0, DWORD PTR _vAxis2$[ebp]
  0022e	f3 0f 10 09	 movss	 xmm1, DWORD PTR [ecx]
  00232	0f 5a c0	 cvtps2pd xmm0, xmm0
  00235	0f 5a c9	 cvtps2pd xmm1, xmm1
  00238	66 0f 2e c1	 ucomisd xmm0, xmm1
  0023c	9f		 lahf
  0023d	f6 c4 44	 test	 ah, 68			; 00000044H
  00240	7a 65		 jp	 SHORT $LN3@SetAction
  00242	f3 0f 10 45 d0	 movss	 xmm0, DWORD PTR _vAxis2$[ebp+4]
  00247	f3 0f 10 49 04	 movss	 xmm1, DWORD PTR [ecx+4]
  0024c	0f 5a c0	 cvtps2pd xmm0, xmm0
  0024f	0f 5a c9	 cvtps2pd xmm1, xmm1
  00252	66 0f 2e c1	 ucomisd xmm0, xmm1
  00256	9f		 lahf
  00257	f6 c4 44	 test	 ah, 68			; 00000044H
  0025a	7a 4b		 jp	 SHORT $LN3@SetAction
  0025c	f3 0f 10 45 d4	 movss	 xmm0, DWORD PTR _vAxis2$[ebp+8]
  00261	f3 0f 10 49 08	 movss	 xmm1, DWORD PTR [ecx+8]
  00266	0f 5a c0	 cvtps2pd xmm0, xmm0
  00269	0f 5a c9	 cvtps2pd xmm1, xmm1
  0026c	66 0f 2e c1	 ucomisd xmm0, xmm1
  00270	9f		 lahf
  00271	f6 c4 44	 test	 ah, 68			; 00000044H
  00274	7a 31		 jp	 SHORT $LN3@SetAction

; 126  : 			D3DXQuaternionRotationAxis( &qtRot, &ioMath::UNIT_Y, DEGtoRAD(m_fAngle) );

  00276	8b 5d ac	 mov	 ebx, DWORD PTR _this$GSCopy$[ebp]
  00279	f3 0f 10 83 6c
	09 00 00	 movss	 xmm0, DWORD PTR [ebx+2412]
  00281	0f 5a c0	 cvtps2pd xmm0, xmm0
  00284	f2 0f 59 05 00
	00 00 00	 mulsd	 xmm0, QWORD PTR __real@3f91df46a2526c7a
  0028c	51		 push	 ecx
  0028d	66 0f 5a c0	 cvtpd2ps xmm0, xmm0
  00291	f3 0f 11 04 24	 movss	 DWORD PTR [esp], xmm0
  00296	ff 35 00 00 00
	00		 push	 DWORD PTR __imp_?UNIT_Y@ioMath@@2UD3DXVECTOR3@@A
  0029c	8d 45 94	 lea	 eax, DWORD PTR _qtRot$[ebp]
  0029f	50		 push	 eax
  002a0	e8 00 00 00 00	 call	 _D3DXQuaternionRotationAxis@12

; 127  : 		else

  002a5	eb 30		 jmp	 SHORT $LN2@SetAction
$LN3@SetAction:

; 128  : 			D3DXQuaternionRotationAxis( &qtRot, &vAxis2, DEGtoRAD(m_fAngle) );

  002a7	8b 45 ac	 mov	 eax, DWORD PTR _this$GSCopy$[ebp]
  002aa	f3 0f 10 80 6c
	09 00 00	 movss	 xmm0, DWORD PTR [eax+2412]
  002b2	0f 5a c0	 cvtps2pd xmm0, xmm0
  002b5	f2 0f 59 05 00
	00 00 00	 mulsd	 xmm0, QWORD PTR __real@3f91df46a2526c7a
  002bd	51		 push	 ecx
  002be	66 0f 5a c0	 cvtpd2ps xmm0, xmm0
  002c2	f3 0f 11 04 24	 movss	 DWORD PTR [esp], xmm0
  002c7	8d 45 cc	 lea	 eax, DWORD PTR _vAxis2$[ebp]
  002ca	50		 push	 eax
  002cb	8d 45 94	 lea	 eax, DWORD PTR _qtRot$[ebp]
  002ce	50		 push	 eax
  002cf	e8 00 00 00 00	 call	 _D3DXQuaternionRotationAxis@12
  002d4	8b 5d ac	 mov	 ebx, DWORD PTR _this$GSCopy$[ebp]
$LN2@SetAction:

; 129  : 
; 130  : 		vPushDir = qtRot * vPushDir;

  002d7	8d 45 f0	 lea	 eax, DWORD PTR _vPushDir$[ebp]
  002da	50		 push	 eax
  002db	8d 45 94	 lea	 eax, DWORD PTR _qtRot$[ebp]
  002de	50		 push	 eax
  002df	8d 45 e4	 lea	 eax, DWORD PTR $T642130[ebp]
  002e2	50		 push	 eax
  002e3	ff 15 00 00 00
	00		 call	 DWORD PTR __imp_??D@YA?AUD3DXVECTOR3@@ABUD3DXQUATERNION@@ABU0@@Z
  002e9	8b f0		 mov	 esi, eax
  002eb	8d 7d f0	 lea	 edi, DWORD PTR _vPushDir$[ebp]
  002ee	a5		 movsd
  002ef	83 c4 0c	 add	 esp, 12			; 0000000cH

; 131  : 		D3DXVec3Normalize(&vPushDir,&vPushDir);

  002f2	8d 45 f0	 lea	 eax, DWORD PTR _vPushDir$[ebp]
  002f5	a5		 movsd
  002f6	50		 push	 eax
  002f7	50		 push	 eax
  002f8	a5		 movsd
  002f9	e8 00 00 00 00	 call	 _D3DXVec3Normalize@8

; 132  : 	}
; 133  : 	else

  002fe	e9 c7 00 00 00	 jmp	 $LN1@SetAction
$LN4@SetAction:

; 134  : 	{
; 135  : 		float fYawD = 180.0f + 45.0f * ( curKey - ioUserKeyInput::DKI_UP );
; 136  : 		fYawD = ioMath::ArrangeHead( fYawD );

  00303	0f 57 c0	 xorps	 xmm0, xmm0
  00306	4b		 dec	 ebx
  00307	f3 0f 2a c3	 cvtsi2ss xmm0, ebx
  0030b	0f 5a c0	 cvtps2pd xmm0, xmm0
  0030e	f2 0f 59 05 00
	00 00 00	 mulsd	 xmm0, QWORD PTR __real@4046800000000000
  00316	f2 0f 58 05 00
	00 00 00	 addsd	 xmm0, QWORD PTR __real@4066800000000000
  0031e	51		 push	 ecx
  0031f	66 0f 5a c0	 cvtpd2ps xmm0, xmm0
  00323	f3 0f 11 04 24	 movss	 DWORD PTR [esp], xmm0
  00328	ff 15 00 00 00
	00		 call	 DWORD PTR __imp_?ArrangeHead@ioMath@@SAMM@Z
  0032e	d9 5d b0	 fstp	 DWORD PTR _fYawD$642132[ebp]

; 137  : 
; 138  : 		D3DXQUATERNION qtRotate;
; 139  : 		D3DXQuaternionRotationYawPitchRoll( &qtRotate, DEGtoRAD( fYawD ), 0.0f, 0.0f );

  00331	d9 45 b0	 fld	 DWORD PTR _fYawD$642132[ebp]
  00334	0f 57 c0	 xorps	 xmm0, xmm0
  00337	dc 0d 00 00 00
	00		 fmul	 QWORD PTR __real@3f91df46a2526c7a
  0033d	f3 0f 11 04 24	 movss	 DWORD PTR [esp], xmm0
  00342	51		 push	 ecx
  00343	51		 push	 ecx
  00344	d9 5d b0	 fstp	 DWORD PTR tv573[ebp]
  00347	f3 0f 11 44 24
	04		 movss	 DWORD PTR [esp+4], xmm0
  0034d	d9 45 b0	 fld	 DWORD PTR tv573[ebp]
  00350	8d 45 84	 lea	 eax, DWORD PTR _qtRotate$642133[ebp]
  00353	d9 1c 24	 fstp	 DWORD PTR [esp]
  00356	50		 push	 eax
  00357	e8 00 00 00 00	 call	 _D3DXQuaternionRotationYawPitchRoll@16

; 140  : 		D3DXVECTOR3 vSightDir = qtRotate * D3DXVECTOR3( 0.0f, 0.0f, -FLOAT1 );

  0035c	b8 01 00 00 00	 mov	 eax, 1
  00361	0f 57 c0	 xorps	 xmm0, xmm0
  00364	89 45 b0	 mov	 DWORD PTR tv240[ebp], eax
  00367	db 45 b0	 fild	 DWORD PTR tv240[ebp]
  0036a	f3 0f 11 45 b4	 movss	 DWORD PTR $T642136[ebp], xmm0
  0036f	f3 0f 11 45 b8	 movss	 DWORD PTR $T642136[ebp+4], xmm0
  00374	85 c0		 test	 eax, eax
  00376	79 06		 jns	 SHORT $LN56@SetAction
  00378	d8 05 00 00 00
	00		 fadd	 DWORD PTR __real@4f800000
$LN56@SetAction:
  0037e	8d 45 b4	 lea	 eax, DWORD PTR $T642136[ebp]
  00381	d9 e0		 fchs
  00383	50		 push	 eax
  00384	d9 5d bc	 fstp	 DWORD PTR $T642136[ebp+8]
  00387	8d 45 84	 lea	 eax, DWORD PTR _qtRotate$642133[ebp]
  0038a	50		 push	 eax
  0038b	8d 45 e4	 lea	 eax, DWORD PTR _vSightDir$642134[ebp]
  0038e	50		 push	 eax
  0038f	ff 15 00 00 00
	00		 call	 DWORD PTR __imp_??D@YA?AUD3DXVECTOR3@@ABUD3DXQUATERNION@@ABU0@@Z

; 141  : 		D3DXVECTOR3 vMoveDir( vSightDir.x, 0.0f, vSightDir.z );

  00395	f3 0f 10 45 e4	 movss	 xmm0, DWORD PTR _vSightDir$642134[ebp]
  0039a	83 c4 0c	 add	 esp, 12			; 0000000cH

; 142  : 		D3DXVec3Normalize( &vMoveDir, &vMoveDir );

  0039d	8d 45 c0	 lea	 eax, DWORD PTR _vMoveDir$642138[ebp]
  003a0	f3 0f 11 45 c0	 movss	 DWORD PTR _vMoveDir$642138[ebp], xmm0
  003a5	0f 57 c0	 xorps	 xmm0, xmm0
  003a8	50		 push	 eax
  003a9	f3 0f 11 45 c4	 movss	 DWORD PTR _vMoveDir$642138[ebp+4], xmm0
  003ae	f3 0f 10 45 ec	 movss	 xmm0, DWORD PTR _vSightDir$642134[ebp+8]
  003b3	50		 push	 eax
  003b4	f3 0f 11 45 c8	 movss	 DWORD PTR _vMoveDir$642138[ebp+8], xmm0
  003b9	e8 00 00 00 00	 call	 _D3DXVec3Normalize@8

; 143  : 		vPushDir = vMoveDir;

  003be	8b 5d ac	 mov	 ebx, DWORD PTR _this$GSCopy$[ebp]
  003c1	8d 75 c0	 lea	 esi, DWORD PTR _vMoveDir$642138[ebp]
  003c4	8d 7d f0	 lea	 edi, DWORD PTR _vPushDir$[ebp]
  003c7	a5		 movsd
  003c8	a5		 movsd
  003c9	a5		 movsd
$LN1@SetAction:

; 144  : 	}
; 145  : 
; 146  : 	pOwner->SetForcePower( vPushDir, m_fPushPower, FLOAT1, m_bLinerPower );

  003ca	b8 01 00 00 00	 mov	 eax, 1
  003cf	0f b6 8b 70 09
	00 00		 movzx	 ecx, BYTE PTR [ebx+2416]
  003d6	89 45 b0	 mov	 DWORD PTR tv559[ebp], eax
  003d9	51		 push	 ecx
  003da	db 45 b0	 fild	 DWORD PTR tv559[ebp]
  003dd	85 c0		 test	 eax, eax
  003df	79 06		 jns	 SHORT $LN57@SetAction
  003e1	d8 05 00 00 00
	00		 fadd	 DWORD PTR __real@4f800000
$LN57@SetAction:
  003e7	f3 0f 10 83 74
	09 00 00	 movss	 xmm0, DWORD PTR [ebx+2420]
  003ef	51		 push	 ecx
  003f0	51		 push	 ecx
  003f1	8b 4d a4	 mov	 ecx, DWORD PTR _pOwner$[ebp]
  003f4	d9 5c 24 04	 fstp	 DWORD PTR [esp+4]
  003f8	8d 45 f0	 lea	 eax, DWORD PTR _vPushDir$[ebp]
  003fb	f3 0f 11 04 24	 movss	 DWORD PTR [esp], xmm0
  00400	50		 push	 eax
  00401	e8 00 00 00 00	 call	 ?SetForcePower@ioBaseChar@@QAEXABUD3DXVECTOR3@@MM_N@Z ; ioBaseChar::SetForcePower

; 147  : 	pOwner->SetJumpPower( m_fBlowPower );

  00406	f3 0f 10 83 78
	09 00 00	 movss	 xmm0, DWORD PTR [ebx+2424]
  0040e	51		 push	 ecx
  0040f	8b 4d a4	 mov	 ecx, DWORD PTR _pOwner$[ebp]
  00412	f3 0f 11 04 24	 movss	 DWORD PTR [esp], xmm0
  00417	e8 00 00 00 00	 call	 ?SetJumpPower@ioBaseChar@@QAEXM@Z ; ioBaseChar::SetJumpPower
  0041c	eb 08		 jmp	 SHORT $LN55@SetAction
$LN6@SetAction:

; 107  : 	}
; 108  : 	else 
; 109  : 	{
; 110  : 		SetReserveEndBuff();

  0041e	8b 4d ac	 mov	 ecx, DWORD PTR _this$GSCopy$[ebp]
  00421	e8 00 00 00 00	 call	 ?SetReserveEndBuff@ioBuff@@QAEXXZ ; ioBuff::SetReserveEndBuff
$LN55@SetAction:
  00426	5b		 pop	 ebx
$LN54@SetAction:
  00427	5e		 pop	 esi
$LN15@SetAction:

; 148  : }

  00428	8b 4d fc	 mov	 ecx, DWORD PTR __$ArrayPad$[ebp]
  0042b	33 cd		 xor	 ecx, ebp
  0042d	5f		 pop	 edi
  0042e	e8 00 00 00 00	 call	 @__security_check_cookie@4
  00433	c9		 leave
  00434	c3		 ret	 0
?SetAction@ioPushDirectionBuff@@MAEXXZ ENDP		; ioPushDirectionBuff::SetAction
_TEXT	ENDS
END
