; Listing generated by Microsoft (R) Optimizing Compiler Version 16.00.30319.01 

	TITLE	D:\Lost Saga For Developer\Youtube\Tutorial\Source\src\LSClient\ioPushStruct.cpp
	.686P
	.XMM
	include listing.inc
	.model	flat

INCLUDELIB MSVCRT
INCLUDELIB OLDNAMES

PUBLIC	?_EEM_DS@?$deque@UD3DXVECTOR3@@V?$allocator@UD3DXVECTOR3@@@std@@@std@@2HB ; std::deque<D3DXVECTOR3,std::allocator<D3DXVECTOR3> >::_EEM_DS
;	COMDAT ?_EEM_DS@?$deque@UD3DXVECTOR3@@V?$allocator@UD3DXVECTOR3@@@std@@@std@@2HB
CONST	SEGMENT
?_EEM_DS@?$deque@UD3DXVECTOR3@@V?$allocator@UD3DXVECTOR3@@@std@@@std@@2HB DD 01H ; std::deque<D3DXVECTOR3,std::allocator<D3DXVECTOR3> >::_EEM_DS
CONST	ENDS
PUBLIC	?GetBaseCharList@ioPlayStage@@QBEABV?$vector@PAVioBaseChar@@V?$allocator@PAVioBaseChar@@@std@@@std@@XZ ; ioPlayStage::GetBaseCharList
; Function compile flags: /Ogsp
; File d:\lost saga for developer\youtube\tutorial\source\src\lsclient\ioplaystage.h
;	COMDAT ?GetBaseCharList@ioPlayStage@@QBEABV?$vector@PAVioBaseChar@@V?$allocator@PAVioBaseChar@@@std@@@std@@XZ
_TEXT	SEGMENT
?GetBaseCharList@ioPlayStage@@QBEABV?$vector@PAVioBaseChar@@V?$allocator@PAVioBaseChar@@@std@@@std@@XZ PROC ; ioPlayStage::GetBaseCharList, COMDAT
; _this$ = ecx

; 755  : 	const BaseCharList& GetBaseCharList() const { return m_BaseCharList; }

  00000	8d 41 2c	 lea	 eax, DWORD PTR [ecx+44]
  00003	c3		 ret	 0
?GetBaseCharList@ioPlayStage@@QBEABV?$vector@PAVioBaseChar@@V?$allocator@PAVioBaseChar@@@std@@@std@@XZ ENDP ; ioPlayStage::GetBaseCharList
_TEXT	ENDS
PUBLIC	?return1@@YAIXZ					; return1
; Function compile flags: /Ogsp
; File d:\lost saga for developer\youtube\tutorial\source\src\lsclient\stdafx.h
;	COMDAT ?return1@@YAIXZ
_TEXT	SEGMENT
?return1@@YAIXZ PROC					; return1, COMDAT

; 17   : 	__forceinline unsigned int return1() { __asm mov eax, 1 };

  00000	b8 01 00 00 00	 mov	 eax, 1
  00005	c3		 ret	 0
?return1@@YAIXZ ENDP					; return1
_TEXT	ENDS
PUBLIC	?return5@@YAIXZ					; return5
; Function compile flags: /Ogsp
;	COMDAT ?return5@@YAIXZ
_TEXT	SEGMENT
?return5@@YAIXZ PROC					; return5, COMDAT

; 18   : 	__forceinline unsigned int return5() { __asm mov eax, 5 };

  00000	b8 05 00 00 00	 mov	 eax, 5
  00005	c3		 ret	 0
?return5@@YAIXZ ENDP					; return5
_TEXT	ENDS
PUBLIC	?return10@@YAIXZ				; return10
; Function compile flags: /Ogsp
;	COMDAT ?return10@@YAIXZ
_TEXT	SEGMENT
?return10@@YAIXZ PROC					; return10, COMDAT

; 21   : 	__forceinline unsigned int return10() { __asm mov eax, 10 };

  00000	b8 0a 00 00 00	 mov	 eax, 10			; 0000000aH
  00005	c3		 ret	 0
?return10@@YAIXZ ENDP					; return10
_TEXT	ENDS
PUBLIC	?return40@@YAIXZ				; return40
; Function compile flags: /Ogsp
;	COMDAT ?return40@@YAIXZ
_TEXT	SEGMENT
?return40@@YAIXZ PROC					; return40, COMDAT

; 22   : 	__forceinline unsigned int return40() { __asm mov eax, 40 };

  00000	b8 28 00 00 00	 mov	 eax, 40			; 00000028H
  00005	c3		 ret	 0
?return40@@YAIXZ ENDP					; return40
_TEXT	ENDS
PUBLIC	?return100@@YAIXZ				; return100
; Function compile flags: /Ogsp
;	COMDAT ?return100@@YAIXZ
_TEXT	SEGMENT
?return100@@YAIXZ PROC					; return100, COMDAT

; 25   : 	__forceinline unsigned int return100() { __asm mov eax, 100 };

  00000	b8 64 00 00 00	 mov	 eax, 100		; 00000064H
  00005	c3		 ret	 0
?return100@@YAIXZ ENDP					; return100
_TEXT	ENDS
PUBLIC	?return360@@YAIXZ				; return360
; Function compile flags: /Ogsp
;	COMDAT ?return360@@YAIXZ
_TEXT	SEGMENT
?return360@@YAIXZ PROC					; return360, COMDAT

; 27   : 	__forceinline unsigned int return360() { __asm mov eax, 360 };

  00000	b8 68 01 00 00	 mov	 eax, 360		; 00000168H
  00005	c3		 ret	 0
?return360@@YAIXZ ENDP					; return360
_TEXT	ENDS
PUBLIC	?return1000@@YAIXZ				; return1000
; Function compile flags: /Ogsp
;	COMDAT ?return1000@@YAIXZ
_TEXT	SEGMENT
?return1000@@YAIXZ PROC					; return1000, COMDAT

; 29   : 	__forceinline unsigned int return1000() { __asm mov eax, 1000 };

  00000	b8 e8 03 00 00	 mov	 eax, 1000		; 000003e8H
  00005	c3		 ret	 0
?return1000@@YAIXZ ENDP					; return1000
_TEXT	ENDS
PUBLIC	?IsOwnerChar@ioBaseChar@@QBE_NXZ		; ioBaseChar::IsOwnerChar
; Function compile flags: /Ogsp
; File d:\lost saga for developer\youtube\tutorial\source\src\lsclient\iobasechar.h
;	COMDAT ?IsOwnerChar@ioBaseChar@@QBE_NXZ
_TEXT	SEGMENT
?IsOwnerChar@ioBaseChar@@QBE_NXZ PROC			; ioBaseChar::IsOwnerChar, COMDAT
; _this$ = ecx

; 1467 : 	inline bool IsOwnerChar() const { return m_bOwnerChar; }

  00000	8a 81 84 13 00
	00		 mov	 al, BYTE PTR [ecx+4996]
  00006	c3		 ret	 0
?IsOwnerChar@ioBaseChar@@QBE_NXZ ENDP			; ioBaseChar::IsOwnerChar
_TEXT	ENDS
PUBLIC	?GetState@ioBaseChar@@QBE?AW4CharState@@XZ	; ioBaseChar::GetState
; Function compile flags: /Ogsp
;	COMDAT ?GetState@ioBaseChar@@QBE?AW4CharState@@XZ
_TEXT	SEGMENT
?GetState@ioBaseChar@@QBE?AW4CharState@@XZ PROC		; ioBaseChar::GetState, COMDAT
; _this$ = ecx

; 2156 : 	inline CharState GetState() const { return m_CharState; }	

  00000	8a 81 10 03 00
	00		 mov	 al, BYTE PTR [ecx+784]
  00006	c3		 ret	 0
?GetState@ioBaseChar@@QBE?AW4CharState@@XZ ENDP		; ioBaseChar::GetState
_TEXT	ENDS
PUBLIC	_fabsf
EXTRN	__fltused:DWORD
; Function compile flags: /Ogsp
; File c:\program files (x86)\microsoft visual studio 10.0\vc\include\math.h
;	COMDAT _fabsf
_TEXT	SEGMENT
tv129 = 8						; size = 4
__X$ = 8						; size = 4
_fabsf	PROC						; COMDAT

; 395  :         {return ((float)fabs((double)_X)); }

  00000	55		 push	 ebp
  00001	8b ec		 mov	 ebp, esp
  00003	d9 45 08	 fld	 DWORD PTR __X$[ebp]
  00006	d9 e1		 fabs
  00008	d9 5d 08	 fstp	 DWORD PTR tv129[ebp]
  0000b	d9 45 08	 fld	 DWORD PTR tv129[ebp]
  0000e	5d		 pop	 ebp
  0000f	c3		 ret	 0
_fabsf	ENDP
_TEXT	ENDS
PUBLIC	_acosf
EXTRN	__CIacos:PROC
; Function compile flags: /Ogsp
;	COMDAT _acosf
_TEXT	SEGMENT
tv69 = 8						; size = 4
__X$ = 8						; size = 4
_acosf	PROC						; COMDAT

; 400  :         {return ((float)acos((double)_X)); }

  00000	55		 push	 ebp
  00001	8b ec		 mov	 ebp, esp
  00003	d9 45 08	 fld	 DWORD PTR __X$[ebp]
  00006	e8 00 00 00 00	 call	 __CIacos
  0000b	d9 5d 08	 fstp	 DWORD PTR tv69[ebp]
  0000e	d9 45 08	 fld	 DWORD PTR tv69[ebp]
  00011	5d		 pop	 ebp
  00012	c3		 ret	 0
_acosf	ENDP
_TEXT	ENDS
PUBLIC	_cosf
EXTRN	__CIcos:PROC
; Function compile flags: /Ogsp
;	COMDAT _cosf
_TEXT	SEGMENT
tv69 = 8						; size = 4
__X$ = 8						; size = 4
_cosf	PROC						; COMDAT

; 410  :         {return ((float)cos((double)_X)); }

  00000	55		 push	 ebp
  00001	8b ec		 mov	 ebp, esp
  00003	d9 45 08	 fld	 DWORD PTR __X$[ebp]
  00006	e8 00 00 00 00	 call	 __CIcos
  0000b	d9 5d 08	 fstp	 DWORD PTR tv69[ebp]
  0000e	d9 45 08	 fld	 DWORD PTR tv69[ebp]
  00011	5d		 pop	 ebp
  00012	c3		 ret	 0
_cosf	ENDP
_TEXT	ENDS
PUBLIC	?GetCharName@ioBaseChar@@QBEABVioHashString@@XZ	; ioBaseChar::GetCharName
; Function compile flags: /Ogsp
; File d:\lost saga for developer\youtube\tutorial\source\src\lsclient\iobasechar.h
;	COMDAT ?GetCharName@ioBaseChar@@QBEABVioHashString@@XZ
_TEXT	SEGMENT
?GetCharName@ioBaseChar@@QBEABVioHashString@@XZ PROC	; ioBaseChar::GetCharName, COMDAT
; _this$ = ecx

; 2594 : 	inline const ioHashString& GetCharName() const { return m_Name; }

  00000	8d 81 d4 02 00
	00		 lea	 eax, DWORD PTR [ecx+724]
  00006	c3		 ret	 0
?GetCharName@ioBaseChar@@QBEABVioHashString@@XZ ENDP	; ioBaseChar::GetCharName
_TEXT	ENDS
PUBLIC	_sqrtf
EXTRN	__CIsqrt:PROC
; Function compile flags: /Ogsp
; File c:\program files (x86)\microsoft visual studio 10.0\vc\include\math.h
;	COMDAT _sqrtf
_TEXT	SEGMENT
tv69 = 8						; size = 4
__X$ = 8						; size = 4
_sqrtf	PROC						; COMDAT

; 434  :         {return ((float)sqrt((double)_X)); }

  00000	55		 push	 ebp
  00001	8b ec		 mov	 ebp, esp
  00003	d9 45 08	 fld	 DWORD PTR __X$[ebp]
  00006	e8 00 00 00 00	 call	 __CIsqrt
  0000b	d9 5d 08	 fstp	 DWORD PTR tv69[ebp]
  0000e	d9 45 08	 fld	 DWORD PTR tv69[ebp]
  00011	5d		 pop	 ebp
  00012	c3		 ret	 0
_sqrtf	ENDP
_TEXT	ENDS
PUBLIC	?GetMoveDir@ioBaseChar@@QBEABUD3DXVECTOR3@@XZ	; ioBaseChar::GetMoveDir
; Function compile flags: /Ogsp
; File d:\lost saga for developer\youtube\tutorial\source\src\lsclient\iobasechar.h
;	COMDAT ?GetMoveDir@ioBaseChar@@QBEABUD3DXVECTOR3@@XZ
_TEXT	SEGMENT
?GetMoveDir@ioBaseChar@@QBEABUD3DXVECTOR3@@XZ PROC	; ioBaseChar::GetMoveDir, COMDAT
; _this$ = ecx

; 2596 : 	inline const D3DXVECTOR3& GetMoveDir() const { return m_vMoveDir; }

  00000	8d 81 b4 06 00
	00		 lea	 eax, DWORD PTR [ecx+1716]
  00006	c3		 ret	 0
?GetMoveDir@ioBaseChar@@QBEABUD3DXVECTOR3@@XZ ENDP	; ioBaseChar::GetMoveDir
_TEXT	ENDS
PUBLIC	?GetTargetRot@ioBaseChar@@QBEABUD3DXQUATERNION@@XZ ; ioBaseChar::GetTargetRot
; Function compile flags: /Ogsp
;	COMDAT ?GetTargetRot@ioBaseChar@@QBEABUD3DXQUATERNION@@XZ
_TEXT	SEGMENT
?GetTargetRot@ioBaseChar@@QBEABUD3DXQUATERNION@@XZ PROC	; ioBaseChar::GetTargetRot, COMDAT
; _this$ = ecx

; 2599 : 	inline const D3DXQUATERNION& GetTargetRot() const { return m_qtTargetRot; }

  00000	8d 81 a4 06 00
	00		 lea	 eax, DWORD PTR [ecx+1700]
  00006	c3		 ret	 0
?GetTargetRot@ioBaseChar@@QBEABUD3DXQUATERNION@@XZ ENDP	; ioBaseChar::GetTargetRot
_TEXT	ENDS
PUBLIC	?fabs@@YAMM@Z					; fabs
; Function compile flags: /Ogsp
; File c:\program files (x86)\microsoft visual studio 10.0\vc\include\math.h
;	COMDAT ?fabs@@YAMM@Z
_TEXT	SEGMENT
tv131 = 8						; size = 4
__X$ = 8						; size = 4
?fabs@@YAMM@Z PROC					; fabs, COMDAT

; 518  :         {return (fabsf(_X)); }

  00000	55		 push	 ebp
  00001	8b ec		 mov	 ebp, esp
  00003	d9 45 08	 fld	 DWORD PTR __X$[ebp]
  00006	d9 e1		 fabs
  00008	d9 5d 08	 fstp	 DWORD PTR tv131[ebp]
  0000b	d9 45 08	 fld	 DWORD PTR tv131[ebp]
  0000e	5d		 pop	 ebp
  0000f	c3		 ret	 0
?fabs@@YAMM@Z ENDP					; fabs
_TEXT	ENDS
PUBLIC	?sqrt@@YAMM@Z					; sqrt
; Function compile flags: /Ogsp
;	COMDAT ?sqrt@@YAMM@Z
_TEXT	SEGMENT
tv73 = 8						; size = 4
__X$ = 8						; size = 4
?sqrt@@YAMM@Z PROC					; sqrt, COMDAT

; 542  :         {return (sqrtf(_X)); }

  00000	55		 push	 ebp
  00001	8b ec		 mov	 ebp, esp
  00003	d9 45 08	 fld	 DWORD PTR __X$[ebp]
  00006	e8 00 00 00 00	 call	 __CIsqrt
  0000b	d9 5d 08	 fstp	 DWORD PTR tv73[ebp]
  0000e	d9 45 08	 fld	 DWORD PTR tv73[ebp]
  00011	5d		 pop	 ebp
  00012	c3		 ret	 0
?sqrt@@YAMM@Z ENDP					; sqrt
_TEXT	ENDS
PUBLIC	??_7bad_alloc@std@@6B@				; std::bad_alloc::`vftable'
PUBLIC	??0bad_alloc@std@@QAE@PBD@Z			; std::bad_alloc::bad_alloc
PUBLIC	??_R4bad_alloc@std@@6B@				; std::bad_alloc::`RTTI Complete Object Locator'
PUBLIC	??_R0?AVbad_alloc@std@@@8			; std::bad_alloc `RTTI Type Descriptor'
PUBLIC	??_R3bad_alloc@std@@8				; std::bad_alloc::`RTTI Class Hierarchy Descriptor'
PUBLIC	??_R2bad_alloc@std@@8				; std::bad_alloc::`RTTI Base Class Array'
PUBLIC	??_R1A@?0A@EA@bad_alloc@std@@8			; std::bad_alloc::`RTTI Base Class Descriptor at (0,-1,0,64)'
PUBLIC	??_R1A@?0A@EA@exception@std@@8			; std::exception::`RTTI Base Class Descriptor at (0,-1,0,64)'
PUBLIC	??_R0?AVexception@std@@@8			; std::exception `RTTI Type Descriptor'
PUBLIC	??_R3exception@std@@8				; std::exception::`RTTI Class Hierarchy Descriptor'
PUBLIC	??_R2exception@std@@8				; std::exception::`RTTI Base Class Array'
EXTRN	__imp_??0exception@std@@QAE@ABQBD@Z:PROC
EXTRN	??_7type_info@@6B@:QWORD			; type_info::`vftable'
EXTRN	??_Ebad_alloc@std@@UAEPAXI@Z:PROC		; std::bad_alloc::`vector deleting destructor'
EXTRN	?what@exception@std@@UBEPBDXZ:PROC		; std::exception::what
;	COMDAT ??_R2exception@std@@8
; File c:\program files (x86)\microsoft visual studio 10.0\vc\include\exception
rdata$r	SEGMENT
??_R2exception@std@@8 DD FLAT:??_R1A@?0A@EA@exception@std@@8 ; std::exception::`RTTI Base Class Array'
rdata$r	ENDS
;	COMDAT ??_R3exception@std@@8
rdata$r	SEGMENT
??_R3exception@std@@8 DD 00H				; std::exception::`RTTI Class Hierarchy Descriptor'
	DD	00H
	DD	01H
	DD	FLAT:??_R2exception@std@@8
rdata$r	ENDS
;	COMDAT ??_R0?AVexception@std@@@8
_DATA	SEGMENT
??_R0?AVexception@std@@@8 DD FLAT:??_7type_info@@6B@	; std::exception `RTTI Type Descriptor'
	DD	00H
	DB	'.?AVexception@std@@', 00H
_DATA	ENDS
;	COMDAT ??_R1A@?0A@EA@exception@std@@8
rdata$r	SEGMENT
??_R1A@?0A@EA@exception@std@@8 DD FLAT:??_R0?AVexception@std@@@8 ; std::exception::`RTTI Base Class Descriptor at (0,-1,0,64)'
	DD	00H
	DD	00H
	DD	0ffffffffH
	DD	00H
	DD	040H
	DD	FLAT:??_R3exception@std@@8
rdata$r	ENDS
;	COMDAT ??_R1A@?0A@EA@bad_alloc@std@@8
rdata$r	SEGMENT
??_R1A@?0A@EA@bad_alloc@std@@8 DD FLAT:??_R0?AVbad_alloc@std@@@8 ; std::bad_alloc::`RTTI Base Class Descriptor at (0,-1,0,64)'
	DD	01H
	DD	00H
	DD	0ffffffffH
	DD	00H
	DD	040H
	DD	FLAT:??_R3bad_alloc@std@@8
rdata$r	ENDS
;	COMDAT ??_R2bad_alloc@std@@8
rdata$r	SEGMENT
??_R2bad_alloc@std@@8 DD FLAT:??_R1A@?0A@EA@bad_alloc@std@@8 ; std::bad_alloc::`RTTI Base Class Array'
	DD	FLAT:??_R1A@?0A@EA@exception@std@@8
rdata$r	ENDS
;	COMDAT ??_R3bad_alloc@std@@8
rdata$r	SEGMENT
??_R3bad_alloc@std@@8 DD 00H				; std::bad_alloc::`RTTI Class Hierarchy Descriptor'
	DD	00H
	DD	02H
	DD	FLAT:??_R2bad_alloc@std@@8
rdata$r	ENDS
;	COMDAT ??_R0?AVbad_alloc@std@@@8
_DATA	SEGMENT
??_R0?AVbad_alloc@std@@@8 DD FLAT:??_7type_info@@6B@	; std::bad_alloc `RTTI Type Descriptor'
	DD	00H
	DB	'.?AVbad_alloc@std@@', 00H
_DATA	ENDS
;	COMDAT ??_R4bad_alloc@std@@6B@
rdata$r	SEGMENT
??_R4bad_alloc@std@@6B@ DD 00H				; std::bad_alloc::`RTTI Complete Object Locator'
	DD	00H
	DD	00H
	DD	FLAT:??_R0?AVbad_alloc@std@@@8
	DD	FLAT:??_R3bad_alloc@std@@8
rdata$r	ENDS
;	COMDAT ??_7bad_alloc@std@@6B@
CONST	SEGMENT
??_7bad_alloc@std@@6B@ DD FLAT:??_R4bad_alloc@std@@6B@	; std::bad_alloc::`vftable'
	DD	FLAT:??_Ebad_alloc@std@@UAEPAXI@Z
	DD	FLAT:?what@exception@std@@UBEPBDXZ
; Function compile flags: /Ogsp
CONST	ENDS
;	COMDAT ??0bad_alloc@std@@QAE@PBD@Z
_TEXT	SEGMENT
__Message$ = 8						; size = 4
??0bad_alloc@std@@QAE@PBD@Z PROC			; std::bad_alloc::bad_alloc, COMDAT
; _this$ = ecx

; 345  : 		{	// construct from message string

  00000	55		 push	 ebp
  00001	8b ec		 mov	 ebp, esp
  00003	56		 push	 esi
  00004	8d 45 08	 lea	 eax, DWORD PTR __Message$[ebp]
  00007	50		 push	 eax
  00008	8b f1		 mov	 esi, ecx
  0000a	ff 15 00 00 00
	00		 call	 DWORD PTR __imp_??0exception@std@@QAE@ABQBD@Z
  00010	c7 06 00 00 00
	00		 mov	 DWORD PTR [esi], OFFSET ??_7bad_alloc@std@@6B@

; 346  : 		}

  00016	8b c6		 mov	 eax, esi
  00018	5e		 pop	 esi
  00019	5d		 pop	 ebp
  0001a	c2 04 00	 ret	 4
??0bad_alloc@std@@QAE@PBD@Z ENDP			; std::bad_alloc::bad_alloc
_TEXT	ENDS
PUBLIC	??1bad_alloc@std@@UAE@XZ			; std::bad_alloc::~bad_alloc
EXTRN	__imp_??1exception@std@@UAE@XZ:PROC
; Function compile flags: /Ogsp
;	COMDAT ??1bad_alloc@std@@UAE@XZ
_TEXT	SEGMENT
??1bad_alloc@std@@UAE@XZ PROC				; std::bad_alloc::~bad_alloc, COMDAT
; _this$ = ecx

; 354  : 		{	// destroy the object

  00000	c7 01 00 00 00
	00		 mov	 DWORD PTR [ecx], OFFSET ??_7bad_alloc@std@@6B@

; 355  : 		}

  00006	ff 25 00 00 00
	00		 jmp	 DWORD PTR __imp_??1exception@std@@UAE@XZ
??1bad_alloc@std@@UAE@XZ ENDP				; std::bad_alloc::~bad_alloc
_TEXT	ENDS
EXTRN	??3@YAXPAX@Z:PROC				; operator delete
; Function compile flags: /Ogsp
;	COMDAT ??_Gbad_alloc@std@@UAEPAXI@Z
_TEXT	SEGMENT
___flags$ = 8						; size = 4
??_Gbad_alloc@std@@UAEPAXI@Z PROC			; std::bad_alloc::`scalar deleting destructor', COMDAT
; _this$ = ecx
  00000	55		 push	 ebp
  00001	8b ec		 mov	 ebp, esp
  00003	56		 push	 esi
  00004	8b f1		 mov	 esi, ecx
  00006	c7 06 00 00 00
	00		 mov	 DWORD PTR [esi], OFFSET ??_7bad_alloc@std@@6B@
  0000c	ff 15 00 00 00
	00		 call	 DWORD PTR __imp_??1exception@std@@UAE@XZ
  00012	f6 45 08 01	 test	 BYTE PTR ___flags$[ebp], 1
  00016	74 07		 je	 SHORT $LN1@scalar
  00018	56		 push	 esi
  00019	e8 00 00 00 00	 call	 ??3@YAXPAX@Z		; operator delete
  0001e	59		 pop	 ecx
$LN1@scalar:
  0001f	8b c6		 mov	 eax, esi
  00021	5e		 pop	 esi
  00022	5d		 pop	 ebp
  00023	c2 04 00	 ret	 4
??_Gbad_alloc@std@@UAEPAXI@Z ENDP			; std::bad_alloc::`scalar deleting destructor'
_TEXT	ENDS
PUBLIC	??2@YAPAXIPAX@Z					; operator new
; Function compile flags: /Ogsp
; File c:\program files (x86)\microsoft visual studio 10.0\vc\include\new
;	COMDAT ??2@YAPAXIPAX@Z
_TEXT	SEGMENT
___formal$ = 8						; size = 4
__Where$ = 12						; size = 4
??2@YAPAXIPAX@Z PROC					; operator new, COMDAT

; 56   : 	{	// construct array with placement at _Where

  00000	55		 push	 ebp
  00001	8b ec		 mov	 ebp, esp

; 57   : 	return (_Where);

  00003	8b 45 0c	 mov	 eax, DWORD PTR __Where$[ebp]

; 58   : 	}

  00006	5d		 pop	 ebp
  00007	c3		 ret	 0
??2@YAPAXIPAX@Z ENDP					; operator new
_TEXT	ENDS
PUBLIC	??3@YAXPAX0@Z					; operator delete
; Function compile flags: /Ogsp
;	COMDAT ??3@YAXPAX0@Z
_TEXT	SEGMENT
___formal$ = 8						; size = 4
___formal$ = 12						; size = 4
??3@YAXPAX0@Z PROC					; operator delete, COMDAT

; 62   : 	}

  00000	c3		 ret	 0
??3@YAXPAX0@Z ENDP					; operator delete
_TEXT	ENDS
PUBLIC	?length@?$char_traits@D@std@@SAIPBD@Z		; std::char_traits<char>::length
; Function compile flags: /Ogsp
; File c:\program files (x86)\microsoft visual studio 10.0\vc\include\iosfwd
;	COMDAT ?length@?$char_traits@D@std@@SAIPBD@Z
_TEXT	SEGMENT
__First$ = 8						; size = 4
?length@?$char_traits@D@std@@SAIPBD@Z PROC		; std::char_traits<char>::length, COMDAT

; 490  : 		{	// find length of null-terminated string

  00000	55		 push	 ebp
  00001	8b ec		 mov	 ebp, esp

; 491  : 		return (_CSTD strlen(_First));

  00003	8b 45 08	 mov	 eax, DWORD PTR __First$[ebp]
  00006	8d 50 01	 lea	 edx, DWORD PTR [eax+1]
$LL3@length:
  00009	8a 08		 mov	 cl, BYTE PTR [eax]
  0000b	40		 inc	 eax
  0000c	84 c9		 test	 cl, cl
  0000e	75 f9		 jne	 SHORT $LL3@length
  00010	2b c2		 sub	 eax, edx

; 492  : 		}

  00012	5d		 pop	 ebp
  00013	c3		 ret	 0
?length@?$char_traits@D@std@@SAIPBD@Z ENDP		; std::char_traits<char>::length
_TEXT	ENDS
PUBLIC	?copy@?$char_traits@D@std@@SAPADPADPBDI@Z	; std::char_traits<char>::copy
EXTRN	_memcpy:PROC
; Function compile flags: /Ogsp
;	COMDAT ?copy@?$char_traits@D@std@@SAPADPADPBDI@Z
_TEXT	SEGMENT
__First1$ = 8						; size = 4
__First2$ = 12						; size = 4
__Count$ = 16						; size = 4
?copy@?$char_traits@D@std@@SAPADPADPBDI@Z PROC		; std::char_traits<char>::copy, COMDAT

; 496  : 		{	// copy [_First1, _First1 + _Count) to [_First2, ...)

  00000	55		 push	 ebp
  00001	8b ec		 mov	 ebp, esp

; 498  : 		}

  00003	5d		 pop	 ebp

; 497  : 		return ((_Elem *)_CSTD memcpy(_First1, _First2, _Count));

  00004	e9 00 00 00 00	 jmp	 _memcpy
?copy@?$char_traits@D@std@@SAPADPADPBDI@Z ENDP		; std::char_traits<char>::copy
_TEXT	ENDS
PUBLIC	?move@?$char_traits@D@std@@SAPADPADPBDI@Z	; std::char_traits<char>::move
EXTRN	__imp__memmove:PROC
; Function compile flags: /Ogsp
;	COMDAT ?move@?$char_traits@D@std@@SAPADPADPBDI@Z
_TEXT	SEGMENT
__First1$ = 8						; size = 4
__First2$ = 12						; size = 4
__Count$ = 16						; size = 4
?move@?$char_traits@D@std@@SAPADPADPBDI@Z PROC		; std::char_traits<char>::move, COMDAT

; 516  : 		{	// copy [_First1, _First1 + _Count) to [_First2, ...)

  00000	55		 push	 ebp
  00001	8b ec		 mov	 ebp, esp

; 518  : 		}

  00003	5d		 pop	 ebp

; 517  : 		return ((_Elem *)_CSTD memmove(_First1, _First2, _Count));

  00004	ff 25 00 00 00
	00		 jmp	 DWORD PTR __imp__memmove
?move@?$char_traits@D@std@@SAPADPADPBDI@Z ENDP		; std::char_traits<char>::move
_TEXT	ENDS
PUBLIC	?assign@?$char_traits@D@std@@SAXAADABD@Z	; std::char_traits<char>::assign
; Function compile flags: /Ogsp
;	COMDAT ?assign@?$char_traits@D@std@@SAXAADABD@Z
_TEXT	SEGMENT
__Left$ = 8						; size = 4
__Right$ = 12						; size = 4
?assign@?$char_traits@D@std@@SAXAADABD@Z PROC		; std::char_traits<char>::assign, COMDAT

; 526  : 		{	// assign an element

  00000	55		 push	 ebp
  00001	8b ec		 mov	 ebp, esp

; 527  : 		_Left = _Right;

  00003	8b 45 0c	 mov	 eax, DWORD PTR __Right$[ebp]
  00006	8a 00		 mov	 al, BYTE PTR [eax]
  00008	8b 4d 08	 mov	 ecx, DWORD PTR __Left$[ebp]
  0000b	88 01		 mov	 BYTE PTR [ecx], al

; 528  : 		}

  0000d	5d		 pop	 ebp
  0000e	c3		 ret	 0
?assign@?$char_traits@D@std@@SAXAADABD@Z ENDP		; std::char_traits<char>::assign
_TEXT	ENDS
PUBLIC	?_Adopt@_Iterator_base0@std@@QAEXPBX@Z		; std::_Iterator_base0::_Adopt
; Function compile flags: /Ogsp
; File c:\program files (x86)\microsoft visual studio 10.0\vc\include\xutility
;	COMDAT ?_Adopt@_Iterator_base0@std@@QAEXPBX@Z
_TEXT	SEGMENT
___formal$ = 8						; size = 4
?_Adopt@_Iterator_base0@std@@QAEXPBX@Z PROC		; std::_Iterator_base0::_Adopt, COMDAT
; _this$ = ecx

; 49   : 		}

  00000	c2 04 00	 ret	 4
?_Adopt@_Iterator_base0@std@@QAEXPBX@Z ENDP		; std::_Iterator_base0::_Adopt
_TEXT	ENDS
PUBLIC	??_R0?AVioWeapon@@@8				; ioWeapon `RTTI Type Descriptor'
PUBLIC	??_R0?AVioMineWeapon@@@8			; ioMineWeapon `RTTI Type Descriptor'
PUBLIC	?ToMineWeapon@@YAPAVioMineWeapon@@PAVioWeapon@@@Z ; ToMineWeapon
EXTRN	___RTDynamicCast:PROC
;	COMDAT ??_R0?AVioWeapon@@@8
; File d:\lost saga for developer\youtube\tutorial\source\src\lsclient\iomineweapon.h
_DATA	SEGMENT
??_R0?AVioWeapon@@@8 DD FLAT:??_7type_info@@6B@		; ioWeapon `RTTI Type Descriptor'
	DD	00H
	DB	'.?AVioWeapon@@', 00H
_DATA	ENDS
;	COMDAT ??_R0?AVioMineWeapon@@@8
_DATA	SEGMENT
??_R0?AVioMineWeapon@@@8 DD FLAT:??_7type_info@@6B@	; ioMineWeapon `RTTI Type Descriptor'
	DD	00H
	DB	'.?AVioMineWeapon@@', 00H
; Function compile flags: /Ogsp
_DATA	ENDS
;	COMDAT ?ToMineWeapon@@YAPAVioMineWeapon@@PAVioWeapon@@@Z
_TEXT	SEGMENT
_pWeapon$ = 8						; size = 4
?ToMineWeapon@@YAPAVioMineWeapon@@PAVioWeapon@@@Z PROC	; ToMineWeapon, COMDAT

; 140  : {

  00000	55		 push	 ebp
  00001	8b ec		 mov	 ebp, esp
  00003	56		 push	 esi

; 141  : 	if( !pWeapon || pWeapon->GetType() != ioWeapon::WT_MINE )

  00004	8b 75 08	 mov	 esi, DWORD PTR _pWeapon$[ebp]
  00007	85 f6		 test	 esi, esi
  00009	74 28		 je	 SHORT $LN1@ToMineWeap
  0000b	8b 06		 mov	 eax, DWORD PTR [esi]
  0000d	8b ce		 mov	 ecx, esi
  0000f	ff 90 10 01 00
	00		 call	 DWORD PTR [eax+272]
  00015	83 f8 05	 cmp	 eax, 5
  00018	75 19		 jne	 SHORT $LN1@ToMineWeap

; 143  : 
; 144  : 	return dynamic_cast< ioMineWeapon* >( pWeapon );

  0001a	6a 00		 push	 0
  0001c	68 00 00 00 00	 push	 OFFSET ??_R0?AVioMineWeapon@@@8
  00021	68 00 00 00 00	 push	 OFFSET ??_R0?AVioWeapon@@@8
  00026	6a 00		 push	 0
  00028	56		 push	 esi
  00029	e8 00 00 00 00	 call	 ___RTDynamicCast
  0002e	83 c4 14	 add	 esp, 20			; 00000014H
  00031	eb 02		 jmp	 SHORT $LN3@ToMineWeap
$LN1@ToMineWeap:

; 142  : 		return NULL;

  00033	33 c0		 xor	 eax, eax
$LN3@ToMineWeap:
  00035	5e		 pop	 esi

; 145  : }

  00036	5d		 pop	 ebp
  00037	c3		 ret	 0
?ToMineWeapon@@YAPAVioMineWeapon@@PAVioWeapon@@@Z ENDP	; ToMineWeapon
_TEXT	ENDS
PUBLIC	??_GioGaugeHelper@@QAEPAXI@Z			; ioGaugeHelper::`scalar deleting destructor'
EXTRN	??1ioGaugeHelper@@QAE@XZ:PROC			; ioGaugeHelper::~ioGaugeHelper
; Function compile flags: /Ogsp
;	COMDAT ??_GioGaugeHelper@@QAEPAXI@Z
_TEXT	SEGMENT
___flags$ = 8						; size = 4
??_GioGaugeHelper@@QAEPAXI@Z PROC			; ioGaugeHelper::`scalar deleting destructor', COMDAT
; _this$ = ecx
  00000	55		 push	 ebp
  00001	8b ec		 mov	 ebp, esp
  00003	56		 push	 esi
  00004	8b f1		 mov	 esi, ecx
  00006	e8 00 00 00 00	 call	 ??1ioGaugeHelper@@QAE@XZ ; ioGaugeHelper::~ioGaugeHelper
  0000b	f6 45 08 01	 test	 BYTE PTR ___flags$[ebp], 1
  0000f	74 07		 je	 SHORT $LN1@scalar@2
  00011	56		 push	 esi
  00012	e8 00 00 00 00	 call	 ??3@YAXPAX@Z		; operator delete
  00017	59		 pop	 ecx
$LN1@scalar@2:
  00018	8b c6		 mov	 eax, esi
  0001a	5e		 pop	 esi
  0001b	5d		 pop	 ebp
  0001c	c2 04 00	 ret	 4
??_GioGaugeHelper@@QAEPAXI@Z ENDP			; ioGaugeHelper::`scalar deleting destructor'
_TEXT	ENDS
PUBLIC	??_GioAniCollisionBoxGrp@@QAEPAXI@Z		; ioAniCollisionBoxGrp::`scalar deleting destructor'
EXTRN	??1ioAniCollisionBoxGrp@@QAE@XZ:PROC		; ioAniCollisionBoxGrp::~ioAniCollisionBoxGrp
; Function compile flags: /Ogsp
;	COMDAT ??_GioAniCollisionBoxGrp@@QAEPAXI@Z
_TEXT	SEGMENT
___flags$ = 8						; size = 4
??_GioAniCollisionBoxGrp@@QAEPAXI@Z PROC		; ioAniCollisionBoxGrp::`scalar deleting destructor', COMDAT
; _this$ = ecx
  00000	55		 push	 ebp
  00001	8b ec		 mov	 ebp, esp
  00003	56		 push	 esi
  00004	8b f1		 mov	 esi, ecx
  00006	e8 00 00 00 00	 call	 ??1ioAniCollisionBoxGrp@@QAE@XZ ; ioAniCollisionBoxGrp::~ioAniCollisionBoxGrp
  0000b	f6 45 08 01	 test	 BYTE PTR ___flags$[ebp], 1
  0000f	74 07		 je	 SHORT $LN1@scalar@3
  00011	56		 push	 esi
  00012	e8 00 00 00 00	 call	 ??3@YAXPAX@Z		; operator delete
  00017	59		 pop	 ecx
$LN1@scalar@3:
  00018	8b c6		 mov	 eax, esi
  0001a	5e		 pop	 esi
  0001b	5d		 pop	 ebp
  0001c	c2 04 00	 ret	 4
??_GioAniCollisionBoxGrp@@QAEPAXI@Z ENDP		; ioAniCollisionBoxGrp::`scalar deleting destructor'
_TEXT	ENDS
PUBLIC	?UpdateAfter@ioPushStruct@@UAEXM@Z		; ioPushStruct::UpdateAfter
EXTRN	?UpdateAfter@ioGameEntity@@UAEXM@Z:PROC		; ioGameEntity::UpdateAfter
; Function compile flags: /Ogsp
; File d:\lost saga for developer\youtube\tutorial\source\src\lsclient\iopushstruct.cpp
;	COMDAT ?UpdateAfter@ioPushStruct@@UAEXM@Z
_TEXT	SEGMENT
_fFrameGap$ = 8						; size = 4
?UpdateAfter@ioPushStruct@@UAEXM@Z PROC			; ioPushStruct::UpdateAfter, COMDAT
; _this$ = ecx

; 335  : {

  00000	55		 push	 ebp
  00001	8b ec		 mov	 ebp, esp
  00003	56		 push	 esi
  00004	8b f1		 mov	 esi, ecx

; 336  : 	if( m_pGroup )

  00006	83 7e 04 00	 cmp	 DWORD PTR [esi+4], 0
  0000a	74 13		 je	 SHORT $LN1@UpdateAfte

; 337  : 	{
; 338  : 		m_pGroup->Update( fFrameGap );

  0000c	8b 4e 04	 mov	 ecx, DWORD PTR [esi+4]
  0000f	f3 0f 10 45 08	 movss	 xmm0, DWORD PTR _fFrameGap$[ebp]
  00014	8b 01		 mov	 eax, DWORD PTR [ecx]
  00016	51		 push	 ecx
  00017	f3 0f 11 04 24	 movss	 DWORD PTR [esp], xmm0
  0001c	ff 50 40	 call	 DWORD PTR [eax+64]
$LN1@UpdateAfte:

; 339  : 	}
; 340  : 
; 341  : 	ioPlayEntity::UpdateAfter( fFrameGap );

  0001f	f3 0f 10 45 08	 movss	 xmm0, DWORD PTR _fFrameGap$[ebp]
  00024	51		 push	 ecx
  00025	8b ce		 mov	 ecx, esi
  00027	f3 0f 11 04 24	 movss	 DWORD PTR [esp], xmm0
  0002c	e8 00 00 00 00	 call	 ?UpdateAfter@ioGameEntity@@UAEXM@Z ; ioGameEntity::UpdateAfter
  00031	5e		 pop	 esi

; 342  : }

  00032	5d		 pop	 ebp
  00033	c2 04 00	 ret	 4
?UpdateAfter@ioPushStruct@@UAEXM@Z ENDP			; ioPushStruct::UpdateAfter
_TEXT	ENDS
PUBLIC	?IsMountingAvailable@ioPushStruct@@UBE_NXZ	; ioPushStruct::IsMountingAvailable
; Function compile flags: /Ogsp
;	COMDAT ?IsMountingAvailable@ioPushStruct@@UBE_NXZ
_TEXT	SEGMENT
?IsMountingAvailable@ioPushStruct@@UBE_NXZ PROC		; ioPushStruct::IsMountingAvailable, COMDAT
; _this$ = ecx

; 516  : 	if( m_iStructType == PSTT_BLOCK )

  00000	83 b9 e0 01 00
	00 05		 cmp	 DWORD PTR [ecx+480], 5
  00007	0f 95 c0	 setne	 al

; 517  : 		return false;
; 518  : 
; 519  : 	return true;
; 520  : }

  0000a	c3		 ret	 0
?IsMountingAvailable@ioPushStruct@@UBE_NXZ ENDP		; ioPushStruct::IsMountingAvailable
_TEXT	ENDS
PUBLIC	?GetWorldEventReceiver@ioPushStruct@@UAEPAVioWorldEventReceiver@@XZ ; ioPushStruct::GetWorldEventReceiver
; Function compile flags: /Ogsp
;	COMDAT ?GetWorldEventReceiver@ioPushStruct@@UAEPAVioWorldEventReceiver@@XZ
_TEXT	SEGMENT
?GetWorldEventReceiver@ioPushStruct@@UAEPAVioWorldEventReceiver@@XZ PROC ; ioPushStruct::GetWorldEventReceiver, COMDAT
; _this$ = ecx

; 581  : 	return dynamic_cast<ioWorldEventReceiver*>(this);

  00000	85 c9		 test	 ecx, ecx
  00002	74 07		 je	 SHORT $LN3@GetWorldEv
  00004	8d 81 c8 01 00
	00		 lea	 eax, DWORD PTR [ecx+456]

; 582  : }

  0000a	c3		 ret	 0
$LN3@GetWorldEv:

; 581  : 	return dynamic_cast<ioWorldEventReceiver*>(this);

  0000b	33 c0		 xor	 eax, eax

; 582  : }

  0000d	c3		 ret	 0
?GetWorldEventReceiver@ioPushStruct@@UAEPAVioWorldEventReceiver@@XZ ENDP ; ioPushStruct::GetWorldEventReceiver
_TEXT	ENDS
PUBLIC	?OnFireZoneDamage@ioPushStruct@@UAEXMABVioHashString@@@Z ; ioPushStruct::OnFireZoneDamage
; Function compile flags: /Ogsp
;	COMDAT ?OnFireZoneDamage@ioPushStruct@@UAEXMABVioHashString@@@Z
_TEXT	SEGMENT
_fDamage$ = 8						; size = 4
_szBuff$ = 12						; size = 4
?OnFireZoneDamage@ioPushStruct@@UAEXMABVioHashString@@@Z PROC ; ioPushStruct::OnFireZoneDamage, COMDAT
; _this$ = ecx

; 597  : 	// 데미지 처리?
; 598  : }

  00000	c2 08 00	 ret	 8
?OnFireZoneDamage@ioPushStruct@@UAEXMABVioHashString@@@Z ENDP ; ioPushStruct::OnFireZoneDamage
_TEXT	ENDS
PUBLIC	?IsCollisionAvailableWeapon@ioPushStruct@@UAE_NPAVioWeapon@@@Z ; ioPushStruct::IsCollisionAvailableWeapon
; Function compile flags: /Ogsp
;	COMDAT ?IsCollisionAvailableWeapon@ioPushStruct@@UAE_NPAVioWeapon@@@Z
_TEXT	SEGMENT
_pWeapon$ = 8						; size = 4
?IsCollisionAvailableWeapon@ioPushStruct@@UAE_NPAVioWeapon@@@Z PROC ; ioPushStruct::IsCollisionAvailableWeapon, COMDAT
; _this$ = ecx

; 646  : {

  00000	55		 push	 ebp
  00001	8b ec		 mov	 ebp, esp
  00003	56		 push	 esi

; 647  : 	if( !pWeapon ) return false;

  00004	8b 75 08	 mov	 esi, DWORD PTR _pWeapon$[ebp]
  00007	57		 push	 edi
  00008	8b f9		 mov	 edi, ecx
  0000a	85 f6		 test	 esi, esi
  0000c	75 04		 jne	 SHORT $LN7@IsCollisio
$LN11@IsCollisio:
  0000e	32 c0		 xor	 al, al
  00010	eb 76		 jmp	 SHORT $LN8@IsCollisio
$LN7@IsCollisio:

; 648  : 
; 649  : 	if( !IsCollisionAvailableRange( pWeapon ) )

  00012	8b 07		 mov	 eax, DWORD PTR [edi]
  00014	56		 push	 esi
  00015	ff 90 84 00 00
	00		 call	 DWORD PTR [eax+132]
  0001b	84 c0		 test	 al, al

; 650  : 		return false;

  0001d	74 ef		 je	 SHORT $LN11@IsCollisio

; 651  : 
; 652  : 	// 클릭 가능하면 충돌처리 하지 않음
; 653  : 	if( m_bEnableClick )

  0001f	80 bf c8 03 00
	00 00		 cmp	 BYTE PTR [edi+968], 0

; 654  : 		return false;

  00026	75 e6		 jne	 SHORT $LN11@IsCollisio

; 655  : 
; 656  : 	if( pWeapon->IsAlreadyCollisioned( this ) )

  00028	8b 06		 mov	 eax, DWORD PTR [esi]
  0002a	57		 push	 edi
  0002b	8b ce		 mov	 ecx, esi
  0002d	ff 10		 call	 DWORD PTR [eax]
  0002f	84 c0		 test	 al, al

; 657  : 		return false;

  00031	75 db		 jne	 SHORT $LN11@IsCollisio

; 658  : 
; 659  : 	bool bContactType = false;
; 660  : 	if( pWeapon->GetType() == ioWeapon::WT_CONTACT ||
; 661  : 		pWeapon->GetType() == ioWeapon::WT_RUN_CONTACT ||
; 662  : 		pWeapon->GetType() == ioWeapon::WT_CONTACT2 ||
; 663  : 		pWeapon->GetType() == ioWeapon::WT_CONTACT3 )

  00033	8b 06		 mov	 eax, DWORD PTR [esi]
  00035	53		 push	 ebx
  00036	8b ce		 mov	 ecx, esi
  00038	32 db		 xor	 bl, bl
  0003a	ff 90 10 01 00
	00		 call	 DWORD PTR [eax+272]
  00040	83 f8 01	 cmp	 eax, 1
  00043	74 2d		 je	 SHORT $LN2@IsCollisio
  00045	8b 06		 mov	 eax, DWORD PTR [esi]
  00047	8b ce		 mov	 ecx, esi
  00049	ff 90 10 01 00
	00		 call	 DWORD PTR [eax+272]
  0004f	83 f8 1e	 cmp	 eax, 30			; 0000001eH
  00052	74 1e		 je	 SHORT $LN2@IsCollisio
  00054	8b 06		 mov	 eax, DWORD PTR [esi]
  00056	8b ce		 mov	 ecx, esi
  00058	ff 90 10 01 00
	00		 call	 DWORD PTR [eax+272]
  0005e	83 f8 2b	 cmp	 eax, 43			; 0000002bH
  00061	74 0f		 je	 SHORT $LN2@IsCollisio
  00063	8b 06		 mov	 eax, DWORD PTR [esi]
  00065	8b ce		 mov	 ecx, esi
  00067	ff 90 10 01 00
	00		 call	 DWORD PTR [eax+272]
  0006d	83 f8 68	 cmp	 eax, 104		; 00000068H
  00070	75 02		 jne	 SHORT $LN3@IsCollisio
$LN2@IsCollisio:

; 664  : 		bContactType = true;

  00072	b3 01		 mov	 bl, 1
$LN3@IsCollisio:

; 665  : 
; 666  : 	if( m_bSemiMapCollision && bContactType )

  00074	80 bf c5 03 00
	00 00		 cmp	 BYTE PTR [edi+965], 0
  0007b	74 08		 je	 SHORT $LN1@IsCollisio
  0007d	84 db		 test	 bl, bl
  0007f	74 04		 je	 SHORT $LN1@IsCollisio

; 667  : 		return false;

  00081	32 c0		 xor	 al, al
  00083	eb 02		 jmp	 SHORT $LN10@IsCollisio
$LN1@IsCollisio:

; 668  : 
; 669  : 	return true;

  00085	b0 01		 mov	 al, 1
$LN10@IsCollisio:
  00087	5b		 pop	 ebx
$LN8@IsCollisio:
  00088	5f		 pop	 edi
  00089	5e		 pop	 esi

; 670  : }

  0008a	5d		 pop	 ebp
  0008b	c2 04 00	 ret	 4
?IsCollisionAvailableWeapon@ioPushStruct@@UAE_NPAVioWeapon@@@Z ENDP ; ioPushStruct::IsCollisionAvailableWeapon
_TEXT	ENDS
PUBLIC	?GetSubType@ioPushStruct@@UBE?AW4PlaySubType@ioPlayEntity@@XZ ; ioPushStruct::GetSubType
; Function compile flags: /Ogsp
;	COMDAT ?GetSubType@ioPushStruct@@UBE?AW4PlaySubType@ioPlayEntity@@XZ
_TEXT	SEGMENT
?GetSubType@ioPushStruct@@UBE?AW4PlaySubType@ioPlayEntity@@XZ PROC ; ioPushStruct::GetSubType, COMDAT
; _this$ = ecx

; 691  : 	return PST_PUSHSTRUCT;

  00000	6a 02		 push	 2
  00002	58		 pop	 eax

; 692  : }

  00003	c3		 ret	 0
?GetSubType@ioPushStruct@@UBE?AW4PlaySubType@ioPlayEntity@@XZ ENDP ; ioPushStruct::GetSubType
_TEXT	ENDS
PUBLIC	?GetArmorType@ioPushStruct@@UBE?AW4ArmorType@@XZ ; ioPushStruct::GetArmorType
; Function compile flags: /Ogsp
;	COMDAT ?GetArmorType@ioPushStruct@@UBE?AW4ArmorType@@XZ
_TEXT	SEGMENT
?GetArmorType@ioPushStruct@@UBE?AW4ArmorType@@XZ PROC	; ioPushStruct::GetArmorType, COMDAT
; _this$ = ecx

; 696  : 	return m_ArmorType;

  00000	8b 81 ec 01 00
	00		 mov	 eax, DWORD PTR [ecx+492]

; 697  : }

  00006	c3		 ret	 0
?GetArmorType@ioPushStruct@@UBE?AW4ArmorType@@XZ ENDP	; ioPushStruct::GetArmorType
_TEXT	ENDS
PUBLIC	?UpdateBottomHeight@ioPushStruct@@MBEXXZ	; ioPushStruct::UpdateBottomHeight
EXTRN	?GetMapHeight@ioPlayMode@@QBEMMMPBVioGameEntity@@_N@Z:PROC ; ioPlayMode::GetMapHeight
; Function compile flags: /Ogsp
;	COMDAT ?UpdateBottomHeight@ioPushStruct@@MBEXXZ
_TEXT	SEGMENT
_vCurPos$ = -12						; size = 12
?UpdateBottomHeight@ioPushStruct@@MBEXXZ PROC		; ioPushStruct::UpdateBottomHeight, COMDAT
; _this$ = ecx

; 775  : {

  00000	55		 push	 ebp
  00001	8b ec		 mov	 ebp, esp
  00003	83 ec 0c	 sub	 esp, 12			; 0000000cH
  00006	53		 push	 ebx
  00007	56		 push	 esi
  00008	8b d9		 mov	 ebx, ecx

; 776  : 	D3DXVECTOR3 vCurPos = GetWorldPosition();

  0000a	8b 03		 mov	 eax, DWORD PTR [ebx]
  0000c	57		 push	 edi
  0000d	ff 50 70	 call	 DWORD PTR [eax+112]
  00010	8b f0		 mov	 esi, eax
  00012	8d 7d f4	 lea	 edi, DWORD PTR _vCurPos$[ebp]
  00015	a5		 movsd

; 777  : 	m_fCurBottomHeight = m_pModeParent->GetMapHeight( vCurPos.x, vCurPos.z, this );

  00016	6a 01		 push	 1
  00018	a5		 movsd
  00019	53		 push	 ebx
  0001a	51		 push	 ecx
  0001b	51		 push	 ecx
  0001c	8b 8b 8c 00 00
	00		 mov	 ecx, DWORD PTR [ebx+140]
  00022	a5		 movsd
  00023	f3 0f 10 45 fc	 movss	 xmm0, DWORD PTR _vCurPos$[ebp+8]
  00028	f3 0f 11 44 24
	04		 movss	 DWORD PTR [esp+4], xmm0
  0002e	f3 0f 10 45 f4	 movss	 xmm0, DWORD PTR _vCurPos$[ebp]
  00033	f3 0f 11 04 24	 movss	 DWORD PTR [esp], xmm0
  00038	e8 00 00 00 00	 call	 ?GetMapHeight@ioPlayMode@@QBEMMMPBVioGameEntity@@_N@Z ; ioPlayMode::GetMapHeight
  0003d	d9 9b 84 00 00
	00		 fstp	 DWORD PTR [ebx+132]
  00043	5f		 pop	 edi
  00044	5e		 pop	 esi
  00045	5b		 pop	 ebx

; 778  : }

  00046	c9		 leave
  00047	c3		 ret	 0
?UpdateBottomHeight@ioPushStruct@@MBEXXZ ENDP		; ioPushStruct::UpdateBottomHeight
_TEXT	ENDS
PUBLIC	?SetDelayState@ioPushStruct@@QAEXXZ		; ioPushStruct::SetDelayState
EXTRN	__imp_?EndEffect@ioEntityGroup@@QAEXABVioHashString@@_N1@Z:PROC
EXTRN	__imp_?GetLoopSec@ioFrameTimer@@QBEKXZ:PROC
EXTRN	__imp_?GetSingleton@ioFrameTimer@@SAAAV1@XZ:PROC
; Function compile flags: /Ogsp
;	COMDAT ?SetDelayState@ioPushStruct@@QAEXXZ
_TEXT	SEGMENT
?SetDelayState@ioPushStruct@@QAEXXZ PROC		; ioPushStruct::SetDelayState, COMDAT
; _this$ = ecx

; 805  : 	m_State = PS_DELAY;
; 806  : 	m_pPushChar = NULL;
; 807  : 	m_fCurMoveSpeed = 0.0f;

  00000	0f 57 c0	 xorps	 xmm0, xmm0
  00003	56		 push	 esi
  00004	8b f1		 mov	 esi, ecx
  00006	83 a6 e4 01 00
	00 00		 and	 DWORD PTR [esi+484], 0
  0000d	83 a6 a0 02 00
	00 00		 and	 DWORD PTR [esi+672], 0
  00014	57		 push	 edi
  00015	f3 0f 11 86 e8
	02 00 00	 movss	 DWORD PTR [esi+744], xmm0

; 808  : 	m_dwSetPushTime = FRAMEGETTIME();

  0001d	ff 15 00 00 00
	00		 call	 DWORD PTR __imp_?GetSingleton@ioFrameTimer@@SAAAV1@XZ
  00023	8b c8		 mov	 ecx, eax
  00025	ff 15 00 00 00
	00		 call	 DWORD PTR __imp_?GetLoopSec@ioFrameTimer@@QBEKXZ

; 809  : 
; 810  : 	if( m_bMoveEffectCreated )

  0002b	80 be cb 03 00
	00 00		 cmp	 BYTE PTR [esi+971], 0
  00032	89 86 d4 02 00
	00		 mov	 DWORD PTR [esi+724], eax
  00038	74 1b		 je	 SHORT $LN1@SetDelaySt

; 811  : 	{
; 812  : 		m_pGroup->EndEffect( m_MoveEffect, true );

  0003a	8b 4e 04	 mov	 ecx, DWORD PTR [esi+4]
  0003d	6a 01		 push	 1
  0003f	6a 01		 push	 1
  00041	8d 86 0c 03 00
	00		 lea	 eax, DWORD PTR [esi+780]
  00047	50		 push	 eax
  00048	ff 15 00 00 00
	00		 call	 DWORD PTR __imp_?EndEffect@ioEntityGroup@@QAEXABVioHashString@@_N1@Z

; 813  : 		m_bMoveEffectCreated = false;

  0004e	c6 86 cb 03 00
	00 00		 mov	 BYTE PTR [esi+971], 0
$LN1@SetDelaySt:

; 814  : 	}
; 815  : }

  00055	5f		 pop	 edi
  00056	5e		 pop	 esi
  00057	c3		 ret	 0
?SetDelayState@ioPushStruct@@QAEXXZ ENDP		; ioPushStruct::SetDelayState
_TEXT	ENDS
PUBLIC	?SetOwner@ioPushStruct@@QAEXVioHashString@@@Z	; ioPushStruct::SetOwner
EXTRN	__imp_??1ioHashString@@QAE@XZ:PROC
EXTRN	__imp_??4ioHashString@@QAEAAV0@ABV0@@Z:PROC
EXTRN	___CxxFrameHandler3:PROC
EXTRN	@__security_check_cookie@4:PROC
EXTRN	__EH_epilog3:PROC
EXTRN	__EH_prolog3:PROC
;	COMDAT xdata$x
xdata$x	SEGMENT
__unwindtable$?SetOwner@ioPushStruct@@QAEXVioHashString@@@Z DD 0ffffffffH
	DD	FLAT:__unwindfunclet$?SetOwner@ioPushStruct@@QAEXVioHashString@@@Z$0
__ehfuncinfo$?SetOwner@ioPushStruct@@QAEXVioHashString@@@Z DD 019930522H
	DD	01H
	DD	FLAT:__unwindtable$?SetOwner@ioPushStruct@@QAEXVioHashString@@@Z
	DD	2 DUP(00H)
	DD	2 DUP(00H)
	DD	00H
	DD	01H
; Function compile flags: /Ogsp
xdata$x	ENDS
;	COMDAT ?SetOwner@ioPushStruct@@QAEXVioHashString@@@Z
_TEXT	SEGMENT
__$EHRec$ = -12						; size = 12
_szOwnerName$ = 8					; size = 16
?SetOwner@ioPushStruct@@QAEXVioHashString@@@Z PROC	; ioPushStruct::SetOwner, COMDAT
; _this$ = ecx

; 818  : {

  00000	6a 00		 push	 0
  00002	b8 00 00 00 00	 mov	 eax, __ehhandler$?SetOwner@ioPushStruct@@QAEXVioHashString@@@Z
  00007	e8 00 00 00 00	 call	 __EH_prolog3
  0000c	83 65 fc 00	 and	 DWORD PTR __$EHRec$[ebp+8], 0

; 819  : 	m_OwnerCharName = szOwnerName;

  00010	8d 45 08	 lea	 eax, DWORD PTR _szOwnerName$[ebp]
  00013	50		 push	 eax
  00014	81 c1 94 03 00
	00		 add	 ecx, 916		; 00000394H
  0001a	ff 15 00 00 00
	00		 call	 DWORD PTR __imp_??4ioHashString@@QAEAAV0@ABV0@@Z

; 820  : }

  00020	83 4d fc ff	 or	 DWORD PTR __$EHRec$[ebp+8], -1
  00024	8d 4d 08	 lea	 ecx, DWORD PTR _szOwnerName$[ebp]
  00027	ff 15 00 00 00
	00		 call	 DWORD PTR __imp_??1ioHashString@@QAE@XZ
  0002d	e8 00 00 00 00	 call	 __EH_epilog3
  00032	c2 10 00	 ret	 16			; 00000010H
_TEXT	ENDS
;	COMDAT text$x
text$x	SEGMENT
__unwindfunclet$?SetOwner@ioPushStruct@@QAEXVioHashString@@@Z$0:
  00000	8d 4d 08	 lea	 ecx, DWORD PTR _szOwnerName$[ebp]
  00003	ff 25 00 00 00
	00		 jmp	 DWORD PTR __imp_??1ioHashString@@QAE@XZ
__ehhandler$?SetOwner@ioPushStruct@@QAEXVioHashString@@@Z:
  00009	8b 54 24 08	 mov	 edx, DWORD PTR [esp+8]
  0000d	8d 42 0c	 lea	 eax, DWORD PTR [edx+12]
  00010	8b 4a f0	 mov	 ecx, DWORD PTR [edx-16]
  00013	33 c8		 xor	 ecx, eax
  00015	e8 00 00 00 00	 call	 @__security_check_cookie@4
  0001a	b8 00 00 00 00	 mov	 eax, OFFSET __ehfuncinfo$?SetOwner@ioPushStruct@@QAEXVioHashString@@@Z
  0001f	e9 00 00 00 00	 jmp	 ___CxxFrameHandler3
text$x	ENDS
?SetOwner@ioPushStruct@@QAEXVioHashString@@@Z ENDP	; ioPushStruct::SetOwner
PUBLIC	?SetCreateItem@ioPushStruct@@QAEXVioHashString@@@Z ; ioPushStruct::SetCreateItem
;	COMDAT xdata$x
xdata$x	SEGMENT
__unwindtable$?SetCreateItem@ioPushStruct@@QAEXVioHashString@@@Z DD 0ffffffffH
	DD	FLAT:__unwindfunclet$?SetCreateItem@ioPushStruct@@QAEXVioHashString@@@Z$0
__ehfuncinfo$?SetCreateItem@ioPushStruct@@QAEXVioHashString@@@Z DD 019930522H
	DD	01H
	DD	FLAT:__unwindtable$?SetCreateItem@ioPushStruct@@QAEXVioHashString@@@Z
	DD	2 DUP(00H)
	DD	2 DUP(00H)
	DD	00H
	DD	01H
; Function compile flags: /Ogsp
xdata$x	ENDS
;	COMDAT ?SetCreateItem@ioPushStruct@@QAEXVioHashString@@@Z
_TEXT	SEGMENT
__$EHRec$ = -12						; size = 12
_szCreateItem$ = 8					; size = 16
?SetCreateItem@ioPushStruct@@QAEXVioHashString@@@Z PROC	; ioPushStruct::SetCreateItem, COMDAT
; _this$ = ecx

; 823  : {

  00000	6a 00		 push	 0
  00002	b8 00 00 00 00	 mov	 eax, __ehhandler$?SetCreateItem@ioPushStruct@@QAEXVioHashString@@@Z
  00007	e8 00 00 00 00	 call	 __EH_prolog3
  0000c	83 65 fc 00	 and	 DWORD PTR __$EHRec$[ebp+8], 0

; 824  : 	m_CreateItem = szCreateItem;

  00010	8d 45 08	 lea	 eax, DWORD PTR _szCreateItem$[ebp]
  00013	50		 push	 eax
  00014	81 c1 c4 02 00
	00		 add	 ecx, 708		; 000002c4H
  0001a	ff 15 00 00 00
	00		 call	 DWORD PTR __imp_??4ioHashString@@QAEAAV0@ABV0@@Z

; 825  : }

  00020	83 4d fc ff	 or	 DWORD PTR __$EHRec$[ebp+8], -1
  00024	8d 4d 08	 lea	 ecx, DWORD PTR _szCreateItem$[ebp]
  00027	ff 15 00 00 00
	00		 call	 DWORD PTR __imp_??1ioHashString@@QAE@XZ
  0002d	e8 00 00 00 00	 call	 __EH_epilog3
  00032	c2 10 00	 ret	 16			; 00000010H
_TEXT	ENDS
;	COMDAT text$x
text$x	SEGMENT
__unwindfunclet$?SetCreateItem@ioPushStruct@@QAEXVioHashString@@@Z$0:
  00000	8d 4d 08	 lea	 ecx, DWORD PTR _szCreateItem$[ebp]
  00003	ff 25 00 00 00
	00		 jmp	 DWORD PTR __imp_??1ioHashString@@QAE@XZ
__ehhandler$?SetCreateItem@ioPushStruct@@QAEXVioHashString@@@Z:
  00009	8b 54 24 08	 mov	 edx, DWORD PTR [esp+8]
  0000d	8d 42 0c	 lea	 eax, DWORD PTR [edx+12]
  00010	8b 4a f0	 mov	 ecx, DWORD PTR [edx-16]
  00013	33 c8		 xor	 ecx, eax
  00015	e8 00 00 00 00	 call	 @__security_check_cookie@4
  0001a	b8 00 00 00 00	 mov	 eax, OFFSET __ehfuncinfo$?SetCreateItem@ioPushStruct@@QAEXVioHashString@@@Z
  0001f	e9 00 00 00 00	 jmp	 ___CxxFrameHandler3
text$x	ENDS
?SetCreateItem@ioPushStruct@@QAEXVioHashString@@@Z ENDP	; ioPushStruct::SetCreateItem
PUBLIC	??0D3DXVECTOR3@@QAE@XZ				; D3DXVECTOR3::D3DXVECTOR3
; Function compile flags: /Ogsp
; File c:\program files (x86)\microsoft directx sdk (june 2010)\include\d3dx9math.h
;	COMDAT ??0D3DXVECTOR3@@QAE@XZ
_TEXT	SEGMENT
??0D3DXVECTOR3@@QAE@XZ PROC				; D3DXVECTOR3::D3DXVECTOR3, COMDAT
; _this$ = ecx

; 165  :     D3DXVECTOR3() {};

  00000	8b c1		 mov	 eax, ecx
  00002	c3		 ret	 0
??0D3DXVECTOR3@@QAE@XZ ENDP				; D3DXVECTOR3::D3DXVECTOR3
_TEXT	ENDS
PUBLIC	??0D3DXMATRIX@@QAE@XZ				; D3DXMATRIX::D3DXMATRIX
; Function compile flags: /Ogsp
;	COMDAT ??0D3DXMATRIX@@QAE@XZ
_TEXT	SEGMENT
??0D3DXMATRIX@@QAE@XZ PROC				; D3DXMATRIX::D3DXMATRIX, COMDAT
; _this$ = ecx

; 315  :     D3DXMATRIX() {};

  00000	8b c1		 mov	 eax, ecx
  00002	c3		 ret	 0
??0D3DXMATRIX@@QAE@XZ ENDP				; D3DXMATRIX::D3DXMATRIX
_TEXT	ENDS
PUBLIC	??0D3DXQUATERNION@@QAE@XZ			; D3DXQUATERNION::D3DXQUATERNION
; Function compile flags: /Ogsp
;	COMDAT ??0D3DXQUATERNION@@QAE@XZ
_TEXT	SEGMENT
??0D3DXQUATERNION@@QAE@XZ PROC				; D3DXQUATERNION::D3DXQUATERNION, COMDAT
; _this$ = ecx

; 429  :     D3DXQUATERNION() {}

  00000	8b c1		 mov	 eax, ecx
  00002	c3		 ret	 0
??0D3DXQUATERNION@@QAE@XZ ENDP				; D3DXQUATERNION::D3DXQUATERNION
_TEXT	ENDS
PUBLIC	??0D3DXVECTOR3@@QAE@MMM@Z			; D3DXVECTOR3::D3DXVECTOR3
; Function compile flags: /Ogsp
; File c:\program files (x86)\microsoft directx sdk (june 2010)\include\d3dx9math.inl
;	COMDAT ??0D3DXVECTOR3@@QAE@MMM@Z
_TEXT	SEGMENT
_fx$ = 8						; size = 4
_fy$ = 12						; size = 4
_fz$ = 16						; size = 4
??0D3DXVECTOR3@@QAE@MMM@Z PROC				; D3DXVECTOR3::D3DXVECTOR3, COMDAT
; _this$ = ecx

; 303  : {

  00000	55		 push	 ebp
  00001	8b ec		 mov	 ebp, esp

; 304  :     x = fx;

  00003	f3 0f 10 45 08	 movss	 xmm0, DWORD PTR _fx$[ebp]
  00008	8b c1		 mov	 eax, ecx
  0000a	f3 0f 11 00	 movss	 DWORD PTR [eax], xmm0

; 305  :     y = fy;

  0000e	f3 0f 10 45 0c	 movss	 xmm0, DWORD PTR _fy$[ebp]
  00013	f3 0f 11 40 04	 movss	 DWORD PTR [eax+4], xmm0

; 306  :     z = fz;

  00018	f3 0f 10 45 10	 movss	 xmm0, DWORD PTR _fz$[ebp]
  0001d	f3 0f 11 40 08	 movss	 DWORD PTR [eax+8], xmm0

; 307  : }

  00022	5d		 pop	 ebp
  00023	c2 0c 00	 ret	 12			; 0000000cH
??0D3DXVECTOR3@@QAE@MMM@Z ENDP				; D3DXVECTOR3::D3DXVECTOR3
_TEXT	ENDS
PUBLIC	??YD3DXVECTOR3@@QAEAAU0@ABU0@@Z			; D3DXVECTOR3::operator+=
; Function compile flags: /Ogsp
;	COMDAT ??YD3DXVECTOR3@@QAEAAU0@ABU0@@Z
_TEXT	SEGMENT
_v$ = 8							; size = 4
??YD3DXVECTOR3@@QAEAAU0@ABU0@@Z PROC			; D3DXVECTOR3::operator+=, COMDAT
; _this$ = ecx

; 327  : {

  00000	55		 push	 ebp
  00001	8b ec		 mov	 ebp, esp
  00003	8b c1		 mov	 eax, ecx

; 328  :     x += v.x;

  00005	8b 4d 08	 mov	 ecx, DWORD PTR _v$[ebp]
  00008	f3 0f 10 01	 movss	 xmm0, DWORD PTR [ecx]
  0000c	f3 0f 10 08	 movss	 xmm1, DWORD PTR [eax]
  00010	0f 5a c0	 cvtps2pd xmm0, xmm0
  00013	0f 5a c9	 cvtps2pd xmm1, xmm1
  00016	f2 0f 58 c1	 addsd	 xmm0, xmm1

; 329  :     y += v.y;

  0001a	f3 0f 10 48 04	 movss	 xmm1, DWORD PTR [eax+4]
  0001f	66 0f 5a c0	 cvtpd2ps xmm0, xmm0
  00023	f3 0f 11 00	 movss	 DWORD PTR [eax], xmm0
  00027	f3 0f 10 41 04	 movss	 xmm0, DWORD PTR [ecx+4]
  0002c	0f 5a c0	 cvtps2pd xmm0, xmm0
  0002f	0f 5a c9	 cvtps2pd xmm1, xmm1
  00032	f2 0f 58 c1	 addsd	 xmm0, xmm1

; 330  :     z += v.z;

  00036	f3 0f 10 48 08	 movss	 xmm1, DWORD PTR [eax+8]
  0003b	66 0f 5a c0	 cvtpd2ps xmm0, xmm0
  0003f	f3 0f 11 40 04	 movss	 DWORD PTR [eax+4], xmm0
  00044	f3 0f 10 41 08	 movss	 xmm0, DWORD PTR [ecx+8]
  00049	0f 5a c0	 cvtps2pd xmm0, xmm0
  0004c	0f 5a c9	 cvtps2pd xmm1, xmm1
  0004f	f2 0f 58 c1	 addsd	 xmm0, xmm1
  00053	66 0f 5a c0	 cvtpd2ps xmm0, xmm0
  00057	f3 0f 11 40 08	 movss	 DWORD PTR [eax+8], xmm0

; 331  :     return *this;
; 332  : }

  0005c	5d		 pop	 ebp
  0005d	c2 04 00	 ret	 4
??YD3DXVECTOR3@@QAEAAU0@ABU0@@Z ENDP			; D3DXVECTOR3::operator+=
_TEXT	ENDS
PUBLIC	?SetBaseWeaponIndex@ioPushStruct@@QAEXH@Z	; ioPushStruct::SetBaseWeaponIndex
; Function compile flags: /Ogsp
; File d:\lost saga for developer\youtube\tutorial\source\src\lsclient\iopushstruct.cpp
;	COMDAT ?SetBaseWeaponIndex@ioPushStruct@@QAEXH@Z
_TEXT	SEGMENT
_iWeaponIndex$ = 8					; size = 4
?SetBaseWeaponIndex@ioPushStruct@@QAEXH@Z PROC		; ioPushStruct::SetBaseWeaponIndex, COMDAT
; _this$ = ecx

; 1388 : {

  00000	55		 push	 ebp
  00001	8b ec		 mov	 ebp, esp

; 1389 : 	m_dwBaseWeaponIndex = iWeaponIndex;

  00003	8b 45 08	 mov	 eax, DWORD PTR _iWeaponIndex$[ebp]
  00006	89 81 2c 04 00
	00		 mov	 DWORD PTR [ecx+1068], eax

; 1390 : }

  0000c	5d		 pop	 ebp
  0000d	c2 04 00	 ret	 4
?SetBaseWeaponIndex@ioPushStruct@@QAEXH@Z ENDP		; ioPushStruct::SetBaseWeaponIndex
_TEXT	ENDS
PUBLIC	__mask@@NegFloat@
PUBLIC	??GD3DXVECTOR3@@QBE?AU0@XZ			; D3DXVECTOR3::operator-
;	COMDAT __mask@@NegFloat@
; File c:\program files (x86)\microsoft directx sdk (june 2010)\include\d3dx9math.inl
CONST	SEGMENT
__mask@@NegFloat@ DB 00H, 00H, 00H, 080H, 00H, 00H, 00H, 080H, 00H, 00H, 00H
	DB	080H, 00H, 00H, 00H, 080H
; Function compile flags: /Ogsp
CONST	ENDS
;	COMDAT ??GD3DXVECTOR3@@QBE?AU0@XZ
_TEXT	SEGMENT
___$ReturnUdt$ = 8					; size = 4
??GD3DXVECTOR3@@QBE?AU0@XZ PROC				; D3DXVECTOR3::operator-, COMDAT
; _this$ = ecx

; 372  : {

  00000	55		 push	 ebp
  00001	8b ec		 mov	 ebp, esp

; 373  :     return D3DXVECTOR3(-x, -y, -z);

  00003	f3 0f 10 05 00
	00 00 00	 movss	 xmm0, DWORD PTR __mask@@NegFloat@
  0000b	8b 45 08	 mov	 eax, DWORD PTR ___$ReturnUdt$[ebp]
  0000e	f3 0f 10 09	 movss	 xmm1, DWORD PTR [ecx]
  00012	0f 57 c8	 xorps	 xmm1, xmm0
  00015	f3 0f 11 08	 movss	 DWORD PTR [eax], xmm1
  00019	f3 0f 10 49 04	 movss	 xmm1, DWORD PTR [ecx+4]
  0001e	0f 57 c8	 xorps	 xmm1, xmm0
  00021	f3 0f 11 48 04	 movss	 DWORD PTR [eax+4], xmm1
  00026	f3 0f 10 49 08	 movss	 xmm1, DWORD PTR [ecx+8]
  0002b	0f 57 c8	 xorps	 xmm1, xmm0
  0002e	f3 0f 11 48 08	 movss	 DWORD PTR [eax+8], xmm1

; 374  : }

  00033	5d		 pop	 ebp
  00034	c2 04 00	 ret	 4
??GD3DXVECTOR3@@QBE?AU0@XZ ENDP				; D3DXVECTOR3::operator-
_TEXT	ENDS
PUBLIC	??HD3DXVECTOR3@@QBE?AU0@ABU0@@Z			; D3DXVECTOR3::operator+
; Function compile flags: /Ogsp
;	COMDAT ??HD3DXVECTOR3@@QBE?AU0@ABU0@@Z
_TEXT	SEGMENT
___$ReturnUdt$ = 8					; size = 4
_v$ = 12						; size = 4
??HD3DXVECTOR3@@QBE?AU0@ABU0@@Z PROC			; D3DXVECTOR3::operator+, COMDAT
; _this$ = ecx

; 380  : {

  00000	55		 push	 ebp
  00001	8b ec		 mov	 ebp, esp

; 381  :     return D3DXVECTOR3(x + v.x, y + v.y, z + v.z);

  00003	8b 55 0c	 mov	 edx, DWORD PTR _v$[ebp]
  00006	f3 0f 10 02	 movss	 xmm0, DWORD PTR [edx]
  0000a	f3 0f 10 09	 movss	 xmm1, DWORD PTR [ecx]
  0000e	8b 45 08	 mov	 eax, DWORD PTR ___$ReturnUdt$[ebp]
  00011	0f 5a c0	 cvtps2pd xmm0, xmm0
  00014	0f 5a c9	 cvtps2pd xmm1, xmm1
  00017	f2 0f 58 c1	 addsd	 xmm0, xmm1
  0001b	f3 0f 10 49 04	 movss	 xmm1, DWORD PTR [ecx+4]
  00020	66 0f 5a c0	 cvtpd2ps xmm0, xmm0
  00024	f3 0f 11 00	 movss	 DWORD PTR [eax], xmm0
  00028	f3 0f 10 42 04	 movss	 xmm0, DWORD PTR [edx+4]
  0002d	0f 5a c0	 cvtps2pd xmm0, xmm0
  00030	0f 5a c9	 cvtps2pd xmm1, xmm1
  00033	f2 0f 58 c1	 addsd	 xmm0, xmm1
  00037	f3 0f 10 49 08	 movss	 xmm1, DWORD PTR [ecx+8]
  0003c	66 0f 5a c0	 cvtpd2ps xmm0, xmm0
  00040	f3 0f 11 40 04	 movss	 DWORD PTR [eax+4], xmm0
  00045	f3 0f 10 42 08	 movss	 xmm0, DWORD PTR [edx+8]
  0004a	0f 5a c0	 cvtps2pd xmm0, xmm0
  0004d	0f 5a c9	 cvtps2pd xmm1, xmm1
  00050	f2 0f 58 c1	 addsd	 xmm0, xmm1
  00054	66 0f 5a c0	 cvtpd2ps xmm0, xmm0
  00058	f3 0f 11 40 08	 movss	 DWORD PTR [eax+8], xmm0

; 382  : }

  0005d	5d		 pop	 ebp
  0005e	c2 08 00	 ret	 8
??HD3DXVECTOR3@@QBE?AU0@ABU0@@Z ENDP			; D3DXVECTOR3::operator+
_TEXT	ENDS
PUBLIC	??GD3DXVECTOR3@@QBE?AU0@ABU0@@Z			; D3DXVECTOR3::operator-
; Function compile flags: /Ogsp
;	COMDAT ??GD3DXVECTOR3@@QBE?AU0@ABU0@@Z
_TEXT	SEGMENT
___$ReturnUdt$ = 8					; size = 4
_v$ = 12						; size = 4
??GD3DXVECTOR3@@QBE?AU0@ABU0@@Z PROC			; D3DXVECTOR3::operator-, COMDAT
; _this$ = ecx

; 386  : {

  00000	55		 push	 ebp
  00001	8b ec		 mov	 ebp, esp

; 387  :     return D3DXVECTOR3(x - v.x, y - v.y, z - v.z);

  00003	8b 55 0c	 mov	 edx, DWORD PTR _v$[ebp]
  00006	f3 0f 10 01	 movss	 xmm0, DWORD PTR [ecx]
  0000a	f3 0f 10 0a	 movss	 xmm1, DWORD PTR [edx]
  0000e	8b 45 08	 mov	 eax, DWORD PTR ___$ReturnUdt$[ebp]
  00011	0f 5a c0	 cvtps2pd xmm0, xmm0
  00014	0f 5a c9	 cvtps2pd xmm1, xmm1
  00017	f2 0f 5c c1	 subsd	 xmm0, xmm1
  0001b	f3 0f 10 4a 04	 movss	 xmm1, DWORD PTR [edx+4]
  00020	66 0f 5a c0	 cvtpd2ps xmm0, xmm0
  00024	f3 0f 11 00	 movss	 DWORD PTR [eax], xmm0
  00028	f3 0f 10 41 04	 movss	 xmm0, DWORD PTR [ecx+4]
  0002d	0f 5a c0	 cvtps2pd xmm0, xmm0
  00030	0f 5a c9	 cvtps2pd xmm1, xmm1
  00033	f2 0f 5c c1	 subsd	 xmm0, xmm1
  00037	f3 0f 10 4a 08	 movss	 xmm1, DWORD PTR [edx+8]
  0003c	66 0f 5a c0	 cvtpd2ps xmm0, xmm0
  00040	f3 0f 11 40 04	 movss	 DWORD PTR [eax+4], xmm0
  00045	f3 0f 10 41 08	 movss	 xmm0, DWORD PTR [ecx+8]
  0004a	0f 5a c0	 cvtps2pd xmm0, xmm0
  0004d	0f 5a c9	 cvtps2pd xmm1, xmm1
  00050	f2 0f 5c c1	 subsd	 xmm0, xmm1
  00054	66 0f 5a c0	 cvtpd2ps xmm0, xmm0
  00058	f3 0f 11 40 08	 movss	 DWORD PTR [eax+8], xmm0

; 388  : }

  0005d	5d		 pop	 ebp
  0005e	c2 08 00	 ret	 8
??GD3DXVECTOR3@@QBE?AU0@ABU0@@Z ENDP			; D3DXVECTOR3::operator-
_TEXT	ENDS
PUBLIC	??1FireTime@@QAE@XZ				; FireTime::~FireTime
;	COMDAT xdata$x
xdata$x	SEGMENT
__unwindtable$??1FireTime@@QAE@XZ DD 0ffffffffH
	DD	FLAT:__unwindfunclet$??1FireTime@@QAE@XZ$0
	DD	00H
	DD	FLAT:__unwindfunclet$??1FireTime@@QAE@XZ$1
__ehfuncinfo$??1FireTime@@QAE@XZ DD 019930522H
	DD	02H
	DD	FLAT:__unwindtable$??1FireTime@@QAE@XZ
	DD	2 DUP(00H)
	DD	2 DUP(00H)
	DD	00H
	DD	01H
; Function compile flags: /Ogsp
xdata$x	ENDS
;	COMDAT ??1FireTime@@QAE@XZ
_TEXT	SEGMENT
_this$ = -16						; size = 4
__$EHRec$ = -12						; size = 12
??1FireTime@@QAE@XZ PROC				; FireTime::~FireTime, COMDAT
; _this$ = ecx
  00000	6a 04		 push	 4
  00002	b8 00 00 00 00	 mov	 eax, __ehhandler$??1FireTime@@QAE@XZ
  00007	e8 00 00 00 00	 call	 __EH_prolog3
  0000c	8b f9		 mov	 edi, ecx
  0000e	89 7d f0	 mov	 DWORD PTR _this$[ebp], edi
  00011	8b 35 00 00 00
	00		 mov	 esi, DWORD PTR __imp_??1ioHashString@@QAE@XZ
  00017	8d 4f 44	 lea	 ecx, DWORD PTR [edi+68]
  0001a	c7 45 fc 01 00
	00 00		 mov	 DWORD PTR __$EHRec$[ebp+8], 1
  00021	ff d6		 call	 esi
  00023	8d 4f 30	 lea	 ecx, DWORD PTR [edi+48]
  00026	c6 45 fc 00	 mov	 BYTE PTR __$EHRec$[ebp+8], 0
  0002a	ff d6		 call	 esi
  0002c	83 4d fc ff	 or	 DWORD PTR __$EHRec$[ebp+8], -1
  00030	8d 4f 14	 lea	 ecx, DWORD PTR [edi+20]
  00033	ff d6		 call	 esi
  00035	e8 00 00 00 00	 call	 __EH_epilog3
  0003a	c3		 ret	 0
_TEXT	ENDS
;	COMDAT text$x
text$x	SEGMENT
__unwindfunclet$??1FireTime@@QAE@XZ$0:
  00000	8b 4d f0	 mov	 ecx, DWORD PTR _this$[ebp]
  00003	83 c1 14	 add	 ecx, 20			; 00000014H
  00006	ff 25 00 00 00
	00		 jmp	 DWORD PTR __imp_??1ioHashString@@QAE@XZ
__unwindfunclet$??1FireTime@@QAE@XZ$1:
  0000c	8b 4d f0	 mov	 ecx, DWORD PTR _this$[ebp]
  0000f	83 c1 30	 add	 ecx, 48			; 00000030H
  00012	ff 25 00 00 00
	00		 jmp	 DWORD PTR __imp_??1ioHashString@@QAE@XZ
__ehhandler$??1FireTime@@QAE@XZ:
  00018	8b 54 24 08	 mov	 edx, DWORD PTR [esp+8]
  0001c	8d 42 0c	 lea	 eax, DWORD PTR [edx+12]
  0001f	8b 4a ec	 mov	 ecx, DWORD PTR [edx-20]
  00022	33 c8		 xor	 ecx, eax
  00024	e8 00 00 00 00	 call	 @__security_check_cookie@4
  00029	b8 00 00 00 00	 mov	 eax, OFFSET __ehfuncinfo$??1FireTime@@QAE@XZ
  0002e	e9 00 00 00 00	 jmp	 ___CxxFrameHandler3
text$x	ENDS
??1FireTime@@QAE@XZ ENDP				; FireTime::~FireTime
PUBLIC	??DD3DXVECTOR3@@QBE?AU0@M@Z			; D3DXVECTOR3::operator*
; Function compile flags: /Ogsp
;	COMDAT ??DD3DXVECTOR3@@QBE?AU0@M@Z
_TEXT	SEGMENT
___$ReturnUdt$ = 8					; size = 4
_f$ = 12						; size = 4
??DD3DXVECTOR3@@QBE?AU0@M@Z PROC			; D3DXVECTOR3::operator*, COMDAT
; _this$ = ecx

; 392  : {

  00000	55		 push	 ebp
  00001	8b ec		 mov	 ebp, esp

; 393  :     return D3DXVECTOR3(x * f, y * f, z * f);

  00003	f3 0f 10 4d 0c	 movss	 xmm1, DWORD PTR _f$[ebp]
  00008	f3 0f 10 01	 movss	 xmm0, DWORD PTR [ecx]
  0000c	8b 45 08	 mov	 eax, DWORD PTR ___$ReturnUdt$[ebp]
  0000f	0f 5a c0	 cvtps2pd xmm0, xmm0
  00012	0f 5a c9	 cvtps2pd xmm1, xmm1
  00015	f2 0f 59 c1	 mulsd	 xmm0, xmm1
  00019	f3 0f 10 4d 0c	 movss	 xmm1, DWORD PTR _f$[ebp]
  0001e	66 0f 5a c0	 cvtpd2ps xmm0, xmm0
  00022	f3 0f 11 00	 movss	 DWORD PTR [eax], xmm0
  00026	f3 0f 10 41 04	 movss	 xmm0, DWORD PTR [ecx+4]
  0002b	0f 5a c0	 cvtps2pd xmm0, xmm0
  0002e	0f 5a c9	 cvtps2pd xmm1, xmm1
  00031	f2 0f 59 c1	 mulsd	 xmm0, xmm1
  00035	f3 0f 10 4d 0c	 movss	 xmm1, DWORD PTR _f$[ebp]
  0003a	66 0f 5a c0	 cvtpd2ps xmm0, xmm0
  0003e	f3 0f 11 40 04	 movss	 DWORD PTR [eax+4], xmm0
  00043	f3 0f 10 41 08	 movss	 xmm0, DWORD PTR [ecx+8]
  00048	0f 5a c0	 cvtps2pd xmm0, xmm0
  0004b	0f 5a c9	 cvtps2pd xmm1, xmm1
  0004e	f2 0f 59 c1	 mulsd	 xmm0, xmm1
  00052	66 0f 5a c0	 cvtpd2ps xmm0, xmm0
  00056	f3 0f 11 40 08	 movss	 DWORD PTR [eax+8], xmm0

; 394  : }

  0005b	5d		 pop	 ebp
  0005c	c2 08 00	 ret	 8
??DD3DXVECTOR3@@QBE?AU0@M@Z ENDP			; D3DXVECTOR3::operator*
_TEXT	ENDS
PUBLIC	?InitResource@ioPushStruct@@QAEXXZ		; ioPushStruct::InitResource
EXTRN	?InitResource@ioGaugeHelper@@QAEXXZ:PROC	; ioGaugeHelper::InitResource
EXTRN	??0ioGaugeHelper@@QAE@XZ:PROC			; ioGaugeHelper::ioGaugeHelper
EXTRN	??2@YAPAXI@Z:PROC				; operator new
;	COMDAT xdata$x
; File d:\lost saga for developer\youtube\tutorial\source\src\lsclient\iopushstruct.cpp
xdata$x	SEGMENT
__unwindtable$?InitResource@ioPushStruct@@QAEXXZ DD 0ffffffffH
	DD	FLAT:__unwindfunclet$?InitResource@ioPushStruct@@QAEXXZ$0
__ehfuncinfo$?InitResource@ioPushStruct@@QAEXXZ DD 019930522H
	DD	01H
	DD	FLAT:__unwindtable$?InitResource@ioPushStruct@@QAEXXZ
	DD	2 DUP(00H)
	DD	2 DUP(00H)
	DD	00H
	DD	01H
; Function compile flags: /Ogsp
xdata$x	ENDS
;	COMDAT ?InitResource@ioPushStruct@@QAEXXZ
_TEXT	SEGMENT
$T566907 = -16						; size = 4
__$EHRec$ = -12						; size = 12
?InitResource@ioPushStruct@@QAEXXZ PROC			; ioPushStruct::InitResource, COMDAT
; _this$ = ecx

; 1488 : {

  00000	6a 04		 push	 4
  00002	b8 00 00 00 00	 mov	 eax, __ehhandler$?InitResource@ioPushStruct@@QAEXXZ
  00007	e8 00 00 00 00	 call	 __EH_prolog3
  0000c	8b f1		 mov	 esi, ecx

; 1489 : 	m_pGauge = new ioGaugeHelper;

  0000e	6a 34		 push	 52			; 00000034H
  00010	e8 00 00 00 00	 call	 ??2@YAPAXI@Z		; operator new
  00015	59		 pop	 ecx
  00016	8b c8		 mov	 ecx, eax
  00018	89 4d f0	 mov	 DWORD PTR $T566907[ebp], ecx
  0001b	33 c0		 xor	 eax, eax
  0001d	89 45 fc	 mov	 DWORD PTR __$EHRec$[ebp+8], eax
  00020	3b c8		 cmp	 ecx, eax
  00022	74 05		 je	 SHORT $LN3@InitResour
  00024	e8 00 00 00 00	 call	 ??0ioGaugeHelper@@QAE@XZ ; ioGaugeHelper::ioGaugeHelper
$LN3@InitResour:
  00029	83 4d fc ff	 or	 DWORD PTR __$EHRec$[ebp+8], -1

; 1490 : 	m_pGauge->InitResource();

  0002d	8b c8		 mov	 ecx, eax
  0002f	89 86 e8 01 00
	00		 mov	 DWORD PTR [esi+488], eax
  00035	e8 00 00 00 00	 call	 ?InitResource@ioGaugeHelper@@QAEXXZ ; ioGaugeHelper::InitResource

; 1491 : }

  0003a	e8 00 00 00 00	 call	 __EH_epilog3
  0003f	c3		 ret	 0
_TEXT	ENDS
;	COMDAT text$x
text$x	SEGMENT
__unwindfunclet$?InitResource@ioPushStruct@@QAEXXZ$0:
  00000	ff 75 f0	 push	 DWORD PTR $T566907[ebp]
  00003	e8 00 00 00 00	 call	 ??3@YAXPAX@Z		; operator delete
  00008	59		 pop	 ecx
  00009	c3		 ret	 0
__ehhandler$?InitResource@ioPushStruct@@QAEXXZ:
  0000a	8b 54 24 08	 mov	 edx, DWORD PTR [esp+8]
  0000e	8d 42 0c	 lea	 eax, DWORD PTR [edx+12]
  00011	8b 4a ec	 mov	 ecx, DWORD PTR [edx-20]
  00014	33 c8		 xor	 ecx, eax
  00016	e8 00 00 00 00	 call	 @__security_check_cookie@4
  0001b	b8 00 00 00 00	 mov	 eax, OFFSET __ehfuncinfo$?InitResource@ioPushStruct@@QAEXXZ
  00020	e9 00 00 00 00	 jmp	 ___CxxFrameHandler3
text$x	ENDS
?InitResource@ioPushStruct@@QAEXXZ ENDP			; ioPushStruct::InitResource
PUBLIC	__$ArrayPad$
PUBLIC	?OnPushStructInfo@ioPushStruct@@QAEXAAVSP2Packet@@@Z ; ioPushStruct::OnPushStructInfo
EXTRN	??5SP2Packet@@QAEAAV0@AAUD3DXVECTOR3@@@Z:PROC	; SP2Packet::operator>>
EXTRN	??5SP2Packet@@QAEAAV0@AAV?$CEncrypt@M@@@Z:PROC	; SP2Packet::operator>>
EXTRN	___security_cookie:DWORD
; Function compile flags: /Ogsp
;	COMDAT ?OnPushStructInfo@ioPushStruct@@QAEXAAVSP2Packet@@@Z
_TEXT	SEGMENT
_vPos$ = -16						; size = 12
__$ArrayPad$ = -4					; size = 4
_rkPacket$ = 8						; size = 4
?OnPushStructInfo@ioPushStruct@@QAEXAAVSP2Packet@@@Z PROC ; ioPushStruct::OnPushStructInfo, COMDAT
; _this$ = ecx

; 1996 : {

  00000	55		 push	 ebp
  00001	8b ec		 mov	 ebp, esp
  00003	83 ec 10	 sub	 esp, 16			; 00000010H
  00006	a1 00 00 00 00	 mov	 eax, DWORD PTR ___security_cookie
  0000b	33 c5		 xor	 eax, ebp
  0000d	89 45 fc	 mov	 DWORD PTR __$ArrayPad$[ebp], eax
  00010	56		 push	 esi
  00011	8b f1		 mov	 esi, ecx
  00013	57		 push	 edi
  00014	8b 7d 08	 mov	 edi, DWORD PTR _rkPacket$[ebp]

; 1997 : 	D3DXVECTOR3 vPos;
; 1998 : 	rkPacket >> m_HP.m_fMaxValue;

  00017	8d 86 f0 00 00
	00		 lea	 eax, DWORD PTR [esi+240]
  0001d	50		 push	 eax
  0001e	8b cf		 mov	 ecx, edi
  00020	e8 00 00 00 00	 call	 ??5SP2Packet@@QAEAAV0@AAV?$CEncrypt@M@@@Z ; SP2Packet::operator>>

; 1999 : 	rkPacket >> m_HP.m_fCurValue;

  00025	8d 86 c0 00 00
	00		 lea	 eax, DWORD PTR [esi+192]
  0002b	50		 push	 eax
  0002c	8b cf		 mov	 ecx, edi
  0002e	e8 00 00 00 00	 call	 ??5SP2Packet@@QAEAAV0@AAV?$CEncrypt@M@@@Z ; SP2Packet::operator>>

; 2000 : 	rkPacket >> vPos;

  00033	8d 45 f0	 lea	 eax, DWORD PTR _vPos$[ebp]
  00036	50		 push	 eax
  00037	8b cf		 mov	 ecx, edi
  00039	e8 00 00 00 00	 call	 ??5SP2Packet@@QAEAAV0@AAUD3DXVECTOR3@@@Z ; SP2Packet::operator>>

; 2001 : 
; 2002 : 	vPos.y = m_pModeParent->GetMapHeight( vPos.x, vPos.z, this, false );

  0003e	f3 0f 10 45 f8	 movss	 xmm0, DWORD PTR _vPos$[ebp+8]
  00043	6a 00		 push	 0
  00045	56		 push	 esi
  00046	51		 push	 ecx
  00047	51		 push	 ecx
  00048	8b 8e 8c 00 00
	00		 mov	 ecx, DWORD PTR [esi+140]
  0004e	f3 0f 11 44 24
	04		 movss	 DWORD PTR [esp+4], xmm0
  00054	f3 0f 10 45 f0	 movss	 xmm0, DWORD PTR _vPos$[ebp]
  00059	f3 0f 11 04 24	 movss	 DWORD PTR [esp], xmm0
  0005e	e8 00 00 00 00	 call	 ?GetMapHeight@ioPlayMode@@QBEMMMPBVioGameEntity@@_N@Z ; ioPlayMode::GetMapHeight
  00063	d9 5d f4	 fstp	 DWORD PTR _vPos$[ebp+4]

; 2003 : 	SetWorldPosition( vPos );

  00066	8b 06		 mov	 eax, DWORD PTR [esi]
  00068	8d 4d f0	 lea	 ecx, DWORD PTR _vPos$[ebp]
  0006b	51		 push	 ecx
  0006c	8b ce		 mov	 ecx, esi
  0006e	ff 50 44	 call	 DWORD PTR [eax+68]

; 2004 : }

  00071	8b 4d fc	 mov	 ecx, DWORD PTR __$ArrayPad$[ebp]
  00074	5f		 pop	 edi
  00075	33 cd		 xor	 ecx, ebp
  00077	5e		 pop	 esi
  00078	e8 00 00 00 00	 call	 @__security_check_cookie@4
  0007d	c9		 leave
  0007e	c2 04 00	 ret	 4
?OnPushStructInfo@ioPushStruct@@QAEXAAVSP2Packet@@@Z ENDP ; ioPushStruct::OnPushStructInfo
_TEXT	ENDS
PUBLIC	?IsCanSendNetwork@ioPushStruct@@IAE_NXZ		; ioPushStruct::IsCanSendNetwork
EXTRN	?IsHost@P2PNetwork@@YA_NXZ:PROC			; P2PNetwork::IsHost
EXTRN	__imp_??8ioHashString@@QBE_NABV0@@Z:PROC
EXTRN	?GetOwnerName@ioPlayMode@@QAEABVioHashString@@XZ:PROC ; ioPlayMode::GetOwnerName
EXTRN	?CheckCharExist@ioPlayMode@@QAE_NABVioHashString@@@Z:PROC ; ioPlayMode::CheckCharExist
EXTRN	__imp_?IsEmpty@ioHashString@@QBE_NXZ:PROC
; Function compile flags: /Ogsp
;	COMDAT ?IsCanSendNetwork@ioPushStruct@@IAE_NXZ
_TEXT	SEGMENT
?IsCanSendNetwork@ioPushStruct@@IAE_NXZ PROC		; ioPushStruct::IsCanSendNetwork, COMDAT
; _this$ = ecx

; 2087 : {

  00000	53		 push	 ebx
  00001	56		 push	 esi
  00002	8b f1		 mov	 esi, ecx
  00004	57		 push	 edi

; 2088 : 	bool bSend = false;
; 2089 : 
; 2090 : 	if( !m_OwnerCharName.IsEmpty() )

  00005	8d be 94 03 00
	00		 lea	 edi, DWORD PTR [esi+916]
  0000b	8b cf		 mov	 ecx, edi
  0000d	32 db		 xor	 bl, bl
  0000f	ff 15 00 00 00
	00		 call	 DWORD PTR __imp_?IsEmpty@ioHashString@@QBE_NXZ
  00015	84 c0		 test	 al, al
  00017	75 3a		 jne	 SHORT $LN6@IsCanSendN

; 2091 : 	{
; 2092 : 		if( m_pModeParent->CheckCharExist( m_OwnerCharName ) &&
; 2093 : 			m_pModeParent->GetOwnerName() == m_OwnerCharName )

  00019	8b 8e 8c 00 00
	00		 mov	 ecx, DWORD PTR [esi+140]
  0001f	57		 push	 edi
  00020	e8 00 00 00 00	 call	 ?CheckCharExist@ioPlayMode@@QAE_NABVioHashString@@@Z ; ioPlayMode::CheckCharExist
  00025	84 c0		 test	 al, al
  00027	74 18		 je	 SHORT $LN5@IsCanSendN
  00029	8b 8e 8c 00 00
	00		 mov	 ecx, DWORD PTR [esi+140]
  0002f	57		 push	 edi
  00030	e8 00 00 00 00	 call	 ?GetOwnerName@ioPlayMode@@QAEABVioHashString@@XZ ; ioPlayMode::GetOwnerName
  00035	8b c8		 mov	 ecx, eax
  00037	ff 15 00 00 00
	00		 call	 DWORD PTR __imp_??8ioHashString@@QBE_NABV0@@Z
  0003d	84 c0		 test	 al, al

; 2094 : 			bSend = true;

  0003f	75 27		 jne	 SHORT $LN9@IsCanSendN
$LN5@IsCanSendN:

; 2095 : 		else if( !m_pModeParent->CheckCharExist( m_OwnerCharName ) && P2PNetwork::IsHost() )

  00041	8b 8e 8c 00 00
	00		 mov	 ecx, DWORD PTR [esi+140]
  00047	57		 push	 edi
  00048	e8 00 00 00 00	 call	 ?CheckCharExist@ioPlayMode@@QAE_NABVioHashString@@@Z ; ioPlayMode::CheckCharExist
  0004d	84 c0		 test	 al, al
  0004f	75 19		 jne	 SHORT $LN1@IsCanSendN

; 2096 : 			bSend = true;
; 2097 : 	}

  00051	eb 0c		 jmp	 SHORT $LN10@IsCanSendN
$LN6@IsCanSendN:

; 2098 : 	else if( m_OwnerCharName.IsEmpty() && P2PNetwork::IsHost() )

  00053	8b cf		 mov	 ecx, edi
  00055	ff 15 00 00 00
	00		 call	 DWORD PTR __imp_?IsEmpty@ioHashString@@QBE_NXZ
  0005b	84 c0		 test	 al, al
  0005d	74 0b		 je	 SHORT $LN1@IsCanSendN
$LN10@IsCanSendN:
  0005f	e8 00 00 00 00	 call	 ?IsHost@P2PNetwork@@YA_NXZ ; P2PNetwork::IsHost
  00064	84 c0		 test	 al, al
  00066	74 02		 je	 SHORT $LN1@IsCanSendN
$LN9@IsCanSendN:

; 2099 : 	{
; 2100 : 		bSend = true;

  00068	b3 01		 mov	 bl, 1
$LN1@IsCanSendN:
  0006a	5f		 pop	 edi
  0006b	5e		 pop	 esi

; 2101 : 	}
; 2102 : 
; 2103 : 	return bSend;

  0006c	8a c3		 mov	 al, bl
  0006e	5b		 pop	 ebx

; 2104 : }

  0006f	c3		 ret	 0
?IsCanSendNetwork@ioPushStruct@@IAE_NXZ ENDP		; ioPushStruct::IsCanSendNetwork
_TEXT	ENDS
PUBLIC	??0D3DXQUATERNION@@QAE@MMMM@Z			; D3DXQUATERNION::D3DXQUATERNION
; Function compile flags: /Ogsp
; File c:\program files (x86)\microsoft directx sdk (june 2010)\include\d3dx9math.inl
;	COMDAT ??0D3DXQUATERNION@@QAE@MMMM@Z
_TEXT	SEGMENT
_fx$ = 8						; size = 4
_fy$ = 12						; size = 4
_fz$ = 16						; size = 4
_fw$ = 20						; size = 4
??0D3DXQUATERNION@@QAE@MMMM@Z PROC			; D3DXQUATERNION::D3DXQUATERNION, COMDAT
; _this$ = ecx

; 1080 : {

  00000	55		 push	 ebp
  00001	8b ec		 mov	 ebp, esp

; 1081 :     x = fx;

  00003	f3 0f 10 45 08	 movss	 xmm0, DWORD PTR _fx$[ebp]
  00008	8b c1		 mov	 eax, ecx
  0000a	f3 0f 11 00	 movss	 DWORD PTR [eax], xmm0

; 1082 :     y = fy;

  0000e	f3 0f 10 45 0c	 movss	 xmm0, DWORD PTR _fy$[ebp]
  00013	f3 0f 11 40 04	 movss	 DWORD PTR [eax+4], xmm0

; 1083 :     z = fz;

  00018	f3 0f 10 45 10	 movss	 xmm0, DWORD PTR _fz$[ebp]
  0001d	f3 0f 11 40 08	 movss	 DWORD PTR [eax+8], xmm0

; 1084 :     w = fw;

  00022	f3 0f 10 45 14	 movss	 xmm0, DWORD PTR _fw$[ebp]
  00027	f3 0f 11 40 0c	 movss	 DWORD PTR [eax+12], xmm0

; 1085 : }

  0002c	5d		 pop	 ebp
  0002d	c2 10 00	 ret	 16			; 00000010H
??0D3DXQUATERNION@@QAE@MMMM@Z ENDP			; D3DXQUATERNION::D3DXQUATERNION
_TEXT	ENDS
PUBLIC	?GetCollisionRect@ioPushStruct@@QBE_NPAUtagRECT@@@Z ; ioPushStruct::GetCollisionRect
EXTRN	__imp_?GetMinPos@ioAxisAlignBox@@QBEABUD3DXVECTOR3@@XZ:PROC
EXTRN	?Check2DInScreen@Setting@@SA_NABUD3DXVECTOR3@@AAH1@Z:PROC ; Setting::Check2DInScreen
EXTRN	__imp_?GetMaxPos@ioAxisAlignBox@@QBEABUD3DXVECTOR3@@XZ:PROC
EXTRN	?GetWorldAxisBox@ioGameEntity@@QBEABVioAxisAlignBox@@XZ:PROC ; ioGameEntity::GetWorldAxisBox
; Function compile flags: /Ogsp
; File d:\lost saga for developer\youtube\tutorial\source\src\lsclient\iopushstruct.cpp
;	COMDAT ?GetCollisionRect@ioPushStruct@@QBE_NPAUtagRECT@@@Z
_TEXT	SEGMENT
_iMinYPos$ = -16					; size = 4
_iMinXPos$ = -12					; size = 4
_iMaxXPos$ = -8						; size = 4
_iMaxYPos$ = -4						; size = 4
_pRect$ = 8						; size = 4
?GetCollisionRect@ioPushStruct@@QBE_NPAUtagRECT@@@Z PROC ; ioPushStruct::GetCollisionRect, COMDAT
; _this$ = ecx

; 2356 : {

  00000	55		 push	 ebp
  00001	8b ec		 mov	 ebp, esp
  00003	83 ec 10	 sub	 esp, 16			; 00000010H
  00006	56		 push	 esi

; 2357 : 	const ioAxisAlignBox &rkAxisBox = GetWorldAxisBox();

  00007	e8 00 00 00 00	 call	 ?GetWorldAxisBox@ioGameEntity@@QBEABVioAxisAlignBox@@XZ ; ioGameEntity::GetWorldAxisBox
  0000c	8b f0		 mov	 esi, eax

; 2358 : 
; 2359 : 	int iMaxXPos=0, iMaxYPos=0;

  0000e	33 c0		 xor	 eax, eax
  00010	89 45 f8	 mov	 DWORD PTR _iMaxXPos$[ebp], eax
  00013	89 45 fc	 mov	 DWORD PTR _iMaxYPos$[ebp], eax

; 2360 : 	int iMinXPos=0, iMinYPos=0;

  00016	89 45 f4	 mov	 DWORD PTR _iMinXPos$[ebp], eax
  00019	89 45 f0	 mov	 DWORD PTR _iMinYPos$[ebp], eax

; 2361 : 
; 2362 : 	if( !Setting::Check2DInScreen( rkAxisBox.GetMaxPos(), iMaxXPos, iMaxYPos ) )

  0001c	8d 45 fc	 lea	 eax, DWORD PTR _iMaxYPos$[ebp]
  0001f	50		 push	 eax
  00020	8d 45 f8	 lea	 eax, DWORD PTR _iMaxXPos$[ebp]
  00023	50		 push	 eax
  00024	8b ce		 mov	 ecx, esi
  00026	ff 15 00 00 00
	00		 call	 DWORD PTR __imp_?GetMaxPos@ioAxisAlignBox@@QBEABUD3DXVECTOR3@@XZ
  0002c	50		 push	 eax
  0002d	e8 00 00 00 00	 call	 ?Check2DInScreen@Setting@@SA_NABUD3DXVECTOR3@@AAH1@Z ; Setting::Check2DInScreen
  00032	83 c4 0c	 add	 esp, 12			; 0000000cH
  00035	84 c0		 test	 al, al
  00037	75 04		 jne	 SHORT $LN2@GetCollisi
$LN5@GetCollisi:

; 2363 : 		return false;

  00039	32 c0		 xor	 al, al
  0003b	eb 39		 jmp	 SHORT $LN3@GetCollisi
$LN2@GetCollisi:

; 2364 : 
; 2365 : 	if( !Setting::Check2DInScreen( rkAxisBox.GetMinPos(), iMinXPos, iMinYPos ) )

  0003d	8d 45 f0	 lea	 eax, DWORD PTR _iMinYPos$[ebp]
  00040	50		 push	 eax
  00041	8d 45 f4	 lea	 eax, DWORD PTR _iMinXPos$[ebp]
  00044	50		 push	 eax
  00045	8b ce		 mov	 ecx, esi
  00047	ff 15 00 00 00
	00		 call	 DWORD PTR __imp_?GetMinPos@ioAxisAlignBox@@QBEABUD3DXVECTOR3@@XZ
  0004d	50		 push	 eax
  0004e	e8 00 00 00 00	 call	 ?Check2DInScreen@Setting@@SA_NABUD3DXVECTOR3@@AAH1@Z ; Setting::Check2DInScreen
  00053	83 c4 0c	 add	 esp, 12			; 0000000cH
  00056	84 c0		 test	 al, al

; 2366 : 		return false;

  00058	74 df		 je	 SHORT $LN5@GetCollisi

; 2367 : 
; 2368 : 	pRect->top = iMaxYPos;

  0005a	8b 45 08	 mov	 eax, DWORD PTR _pRect$[ebp]
  0005d	8b 4d fc	 mov	 ecx, DWORD PTR _iMaxYPos$[ebp]
  00060	89 48 04	 mov	 DWORD PTR [eax+4], ecx

; 2369 : 	pRect->right = iMaxXPos;

  00063	8b 4d f8	 mov	 ecx, DWORD PTR _iMaxXPos$[ebp]
  00066	89 48 08	 mov	 DWORD PTR [eax+8], ecx

; 2370 : 	pRect->left = iMinXPos;

  00069	8b 4d f4	 mov	 ecx, DWORD PTR _iMinXPos$[ebp]
  0006c	89 08		 mov	 DWORD PTR [eax], ecx

; 2371 : 	pRect->bottom = iMinYPos;

  0006e	8b 4d f0	 mov	 ecx, DWORD PTR _iMinYPos$[ebp]
  00071	89 48 0c	 mov	 DWORD PTR [eax+12], ecx

; 2372 : 
; 2373 : 	return true;

  00074	b0 01		 mov	 al, 1
$LN3@GetCollisi:
  00076	5e		 pop	 esi

; 2374 : }

  00077	c9		 leave
  00078	c2 04 00	 ret	 4
?GetCollisionRect@ioPushStruct@@QBE_NPAUtagRECT@@@Z ENDP ; ioPushStruct::GetCollisionRect
_TEXT	ENDS
PUBLIC	??_C@_0BB@LONDJPHL@OutLineThickness?$AA@	; `string'
PUBLIC	??_C@_0N@ENBBGMOA@OutLineColor?$AA@		; `string'
PUBLIC	?ApplyModifiedOutLine@ioPushStruct@@IAEXXZ	; ioPushStruct::ApplyModifiedOutLine
EXTRN	__imp_??1ioShaderCustomArg@@QAE@XZ:PROC
EXTRN	__imp_?AddCustomParameter@ioPass@@QAEXABVioShaderCustomArg@@@Z:PROC
EXTRN	__imp_?SetPassEnable@ioPass@@QAEX_N@Z:PROC
EXTRN	__imp_?GetPassByShaderGrp@ioTechnique@@QAEPAVioPass@@W4ShaderGroupType@@@Z:PROC
EXTRN	__imp_?GetBestTechnique@ioMaterial@@QAEPAVioTechnique@@XZ:PROC
EXTRN	__imp_?GetSubEntity@ioEntity@@QAEPAVioSubEntity@@H@Z:PROC
EXTRN	__imp_?GetNumSubEntity@ioEntity@@QBEHXZ:PROC
EXTRN	__imp_?GetEntity@ioEntityGroup@@QAEPAVioEntity@@H@Z:PROC
EXTRN	__imp_?GetNumEntities@ioEntityGroup@@QBEHXZ:PROC
EXTRN	__imp_?SetValue@ioShaderCustomArg@@QAEXM@Z:PROC
EXTRN	__imp_?SetValue@ioShaderCustomArg@@QAEXABU_D3DCOLORVALUE@@@Z:PROC
EXTRN	__imp_??0ioShaderCustomArg@@QAE@PBD@Z:PROC
;	COMDAT ??_C@_0BB@LONDJPHL@OutLineThickness?$AA@
CONST	SEGMENT
??_C@_0BB@LONDJPHL@OutLineThickness?$AA@ DB 'OutLineThickness', 00H ; `string'
CONST	ENDS
;	COMDAT ??_C@_0N@ENBBGMOA@OutLineColor?$AA@
CONST	SEGMENT
??_C@_0N@ENBBGMOA@OutLineColor?$AA@ DB 'OutLineColor', 00H ; `string'
CONST	ENDS
;	COMDAT xdata$x
xdata$x	SEGMENT
__unwindtable$?ApplyModifiedOutLine@ioPushStruct@@IAEXXZ DD 0ffffffffH
	DD	FLAT:__unwindfunclet$?ApplyModifiedOutLine@ioPushStruct@@IAEXXZ$0
	DD	00H
	DD	FLAT:__unwindfunclet$?ApplyModifiedOutLine@ioPushStruct@@IAEXXZ$1
__ehfuncinfo$?ApplyModifiedOutLine@ioPushStruct@@IAEXXZ DD 019930522H
	DD	02H
	DD	FLAT:__unwindtable$?ApplyModifiedOutLine@ioPushStruct@@IAEXXZ
	DD	2 DUP(00H)
	DD	2 DUP(00H)
	DD	00H
	DD	01H
; Function compile flags: /Ogsp
xdata$x	ENDS
;	COMDAT ?ApplyModifiedOutLine@ioPushStruct@@IAEXXZ
_TEXT	SEGMENT
_kLineColor$ = -100					; size = 36
_kLineThickness$ = -64					; size = 36
_iNumEntity$ = -28					; size = 4
_iNumSubEntity$554776 = -24				; size = 4
_i$554771 = -20						; size = 4
_j$554777 = -16						; size = 4
__$EHRec$ = -12						; size = 12
?ApplyModifiedOutLine@ioPushStruct@@IAEXXZ PROC		; ioPushStruct::ApplyModifiedOutLine, COMDAT
; _this$ = ecx

; 2505 : {

  00000	6a 58		 push	 88			; 00000058H
  00002	b8 00 00 00 00	 mov	 eax, __ehhandler$?ApplyModifiedOutLine@ioPushStruct@@IAEXXZ
  00007	e8 00 00 00 00	 call	 __EH_prolog3
  0000c	8b f1		 mov	 esi, ecx

; 2506 : 	if( !m_bOutLineModified )	return;

  0000e	80 be ec 06 00
	00 00		 cmp	 BYTE PTR [esi+1772], 0
  00015	0f 84 07 01 00
	00		 je	 $LN11@ApplyModif

; 2507 : 
; 2508 : 	ioShaderCustomArg kLineColor( "OutLineColor" );

  0001b	8b 3d 00 00 00
	00		 mov	 edi, DWORD PTR __imp_??0ioShaderCustomArg@@QAE@PBD@Z
  00021	68 00 00 00 00	 push	 OFFSET ??_C@_0N@ENBBGMOA@OutLineColor?$AA@
  00026	8d 4d 9c	 lea	 ecx, DWORD PTR _kLineColor$[ebp]
  00029	ff d7		 call	 edi
  0002b	83 65 fc 00	 and	 DWORD PTR __$EHRec$[ebp+8], 0

; 2509 : 	kLineColor.SetValue( m_OutLineColor );

  0002f	8d 86 d8 06 00
	00		 lea	 eax, DWORD PTR [esi+1752]
  00035	50		 push	 eax
  00036	8d 4d 9c	 lea	 ecx, DWORD PTR _kLineColor$[ebp]
  00039	ff 15 00 00 00
	00		 call	 DWORD PTR __imp_?SetValue@ioShaderCustomArg@@QAEXABU_D3DCOLORVALUE@@@Z

; 2510 : 
; 2511 : 	ioShaderCustomArg kLineThickness( "OutLineThickness" );

  0003f	68 00 00 00 00	 push	 OFFSET ??_C@_0BB@LONDJPHL@OutLineThickness?$AA@
  00044	8d 4d c0	 lea	 ecx, DWORD PTR _kLineThickness$[ebp]
  00047	ff d7		 call	 edi

; 2512 : 	kLineThickness.SetValue( m_fOutLineSize );

  00049	f3 0f 10 86 e8
	06 00 00	 movss	 xmm0, DWORD PTR [esi+1768]
  00051	51		 push	 ecx
  00052	8d 4d c0	 lea	 ecx, DWORD PTR _kLineThickness$[ebp]
  00055	c6 45 fc 01	 mov	 BYTE PTR __$EHRec$[ebp+8], 1
  00059	f3 0f 11 04 24	 movss	 DWORD PTR [esp], xmm0
  0005e	ff 15 00 00 00
	00		 call	 DWORD PTR __imp_?SetValue@ioShaderCustomArg@@QAEXM@Z

; 2513 : 
; 2514 : 	int iNumEntity = m_pGroup->GetNumEntities();

  00064	8b 4e 04	 mov	 ecx, DWORD PTR [esi+4]
  00067	ff 15 00 00 00
	00		 call	 DWORD PTR __imp_?GetNumEntities@ioEntityGroup@@QBEHXZ

; 2515 : 	for( int i=0; i<iNumEntity; i++ )

  0006d	83 65 ec 00	 and	 DWORD PTR _i$554771[ebp], 0
  00071	89 45 e4	 mov	 DWORD PTR _iNumEntity$[ebp], eax
  00074	85 c0		 test	 eax, eax
  00076	0f 8e 8e 00 00
	00		 jle	 $LN7@ApplyModif
$LL9@ApplyModif:

; 2516 : 	{
; 2517 : 		ioEntity *pEntity = m_pGroup->GetEntity( i );

  0007c	ff 75 ec	 push	 DWORD PTR _i$554771[ebp]
  0007f	8b 4e 04	 mov	 ecx, DWORD PTR [esi+4]
  00082	ff 15 00 00 00
	00		 call	 DWORD PTR __imp_?GetEntity@ioEntityGroup@@QAEPAVioEntity@@H@Z
  00088	8b d8		 mov	 ebx, eax

; 2518 : 
; 2519 : 		int iNumSubEntity = pEntity->GetNumSubEntity();

  0008a	8b cb		 mov	 ecx, ebx
  0008c	ff 15 00 00 00
	00		 call	 DWORD PTR __imp_?GetNumSubEntity@ioEntity@@QBEHXZ

; 2520 : 		for( int j=0 ; j<iNumSubEntity ; j++ )

  00092	83 65 f0 00	 and	 DWORD PTR _j$554777[ebp], 0
  00096	89 45 e8	 mov	 DWORD PTR _iNumSubEntity$554776[ebp], eax
  00099	85 c0		 test	 eax, eax
  0009b	7e 5e		 jle	 SHORT $LN8@ApplyModif
$LN6@ApplyModif:

; 2521 : 		{
; 2522 : 			ioSubEntity *pSubEntity = pEntity->GetSubEntity( j );

  0009d	ff 75 f0	 push	 DWORD PTR _j$554777[ebp]
  000a0	8b cb		 mov	 ecx, ebx
  000a2	ff 15 00 00 00
	00		 call	 DWORD PTR __imp_?GetSubEntity@ioEntity@@QAEPAVioSubEntity@@H@Z

; 2523 : 
; 2524 : 			ioMaterial *pMaterial = pSubEntity->GetMaterial();

  000a8	8b 10		 mov	 edx, DWORD PTR [eax]
  000aa	8b c8		 mov	 ecx, eax
  000ac	ff 12		 call	 DWORD PTR [edx]

; 2525 : 			if( !pMaterial ) continue;

  000ae	85 c0		 test	 eax, eax
  000b0	74 3e		 je	 SHORT $LN5@ApplyModif

; 2526 : 
; 2527 : 			ioTechnique *pTech = pMaterial->GetBestTechnique();

  000b2	8b c8		 mov	 ecx, eax
  000b4	ff 15 00 00 00
	00		 call	 DWORD PTR __imp_?GetBestTechnique@ioMaterial@@QAEPAVioTechnique@@XZ

; 2528 : 			if( !pTech ) continue;

  000ba	85 c0		 test	 eax, eax
  000bc	74 32		 je	 SHORT $LN5@ApplyModif

; 2529 : 
; 2530 : 			ioPass *pOutLine = pTech->GetPassByShaderGrp( SGT_OUTLINE );

  000be	6a 05		 push	 5
  000c0	8b c8		 mov	 ecx, eax
  000c2	ff 15 00 00 00
	00		 call	 DWORD PTR __imp_?GetPassByShaderGrp@ioTechnique@@QAEPAVioPass@@W4ShaderGroupType@@@Z
  000c8	8b f8		 mov	 edi, eax

; 2531 : 			if( pOutLine )

  000ca	85 ff		 test	 edi, edi
  000cc	74 22		 je	 SHORT $LN5@ApplyModif

; 2532 : 			{
; 2533 : 				pOutLine->SetPassEnable( true );

  000ce	6a 01		 push	 1
  000d0	8b cf		 mov	 ecx, edi
  000d2	ff 15 00 00 00
	00		 call	 DWORD PTR __imp_?SetPassEnable@ioPass@@QAEX_N@Z

; 2534 : 				pOutLine->AddCustomParameter( kLineColor );

  000d8	8d 45 9c	 lea	 eax, DWORD PTR _kLineColor$[ebp]
  000db	50		 push	 eax
  000dc	8b cf		 mov	 ecx, edi
  000de	ff 15 00 00 00
	00		 call	 DWORD PTR __imp_?AddCustomParameter@ioPass@@QAEXABVioShaderCustomArg@@@Z

; 2535 : 				pOutLine->AddCustomParameter( kLineThickness );

  000e4	8d 45 c0	 lea	 eax, DWORD PTR _kLineThickness$[ebp]
  000e7	50		 push	 eax
  000e8	8b cf		 mov	 ecx, edi
  000ea	ff 15 00 00 00
	00		 call	 DWORD PTR __imp_?AddCustomParameter@ioPass@@QAEXABVioShaderCustomArg@@@Z
$LN5@ApplyModif:

; 2520 : 		for( int j=0 ; j<iNumSubEntity ; j++ )

  000f0	ff 45 f0	 inc	 DWORD PTR _j$554777[ebp]
  000f3	8b 45 f0	 mov	 eax, DWORD PTR _j$554777[ebp]
  000f6	3b 45 e8	 cmp	 eax, DWORD PTR _iNumSubEntity$554776[ebp]
  000f9	7c a2		 jl	 SHORT $LN6@ApplyModif
$LN8@ApplyModif:

; 2515 : 	for( int i=0; i<iNumEntity; i++ )

  000fb	ff 45 ec	 inc	 DWORD PTR _i$554771[ebp]
  000fe	8b 45 ec	 mov	 eax, DWORD PTR _i$554771[ebp]
  00101	3b 45 e4	 cmp	 eax, DWORD PTR _iNumEntity$[ebp]
  00104	0f 8c 72 ff ff
	ff		 jl	 $LL9@ApplyModif
$LN7@ApplyModif:

; 2536 : 			}
; 2537 : 		}
; 2538 : 	}
; 2539 : }

  0010a	8b 35 00 00 00
	00		 mov	 esi, DWORD PTR __imp_??1ioShaderCustomArg@@QAE@XZ
  00110	8d 4d c0	 lea	 ecx, DWORD PTR _kLineThickness$[ebp]
  00113	c6 45 fc 00	 mov	 BYTE PTR __$EHRec$[ebp+8], 0
  00117	ff d6		 call	 esi
  00119	83 4d fc ff	 or	 DWORD PTR __$EHRec$[ebp+8], -1
  0011d	8d 4d 9c	 lea	 ecx, DWORD PTR _kLineColor$[ebp]
  00120	ff d6		 call	 esi
$LN11@ApplyModif:
  00122	e8 00 00 00 00	 call	 __EH_epilog3
  00127	c3		 ret	 0
_TEXT	ENDS
;	COMDAT text$x
text$x	SEGMENT
__unwindfunclet$?ApplyModifiedOutLine@ioPushStruct@@IAEXXZ$0:
  00000	8d 4d 9c	 lea	 ecx, DWORD PTR _kLineColor$[ebp]
  00003	ff 25 00 00 00
	00		 jmp	 DWORD PTR __imp_??1ioShaderCustomArg@@QAE@XZ
__unwindfunclet$?ApplyModifiedOutLine@ioPushStruct@@IAEXXZ$1:
  00009	8d 4d c0	 lea	 ecx, DWORD PTR _kLineThickness$[ebp]
  0000c	ff 25 00 00 00
	00		 jmp	 DWORD PTR __imp_??1ioShaderCustomArg@@QAE@XZ
__ehhandler$?ApplyModifiedOutLine@ioPushStruct@@IAEXXZ:
  00012	8b 54 24 08	 mov	 edx, DWORD PTR [esp+8]
  00016	8d 42 0c	 lea	 eax, DWORD PTR [edx+12]
  00019	8b 4a 98	 mov	 ecx, DWORD PTR [edx-104]
  0001c	33 c8		 xor	 ecx, eax
  0001e	e8 00 00 00 00	 call	 @__security_check_cookie@4
  00023	b8 00 00 00 00	 mov	 eax, OFFSET __ehfuncinfo$?ApplyModifiedOutLine@ioPushStruct@@IAEXXZ
  00028	e9 00 00 00 00	 jmp	 ___CxxFrameHandler3
text$x	ENDS
?ApplyModifiedOutLine@ioPushStruct@@IAEXXZ ENDP		; ioPushStruct::ApplyModifiedOutLine
PUBLIC	?D3DXVec3Length@@YAMPBUD3DXVECTOR3@@@Z		; D3DXVec3Length
; Function compile flags: /Ogsp
; File c:\program files (x86)\microsoft directx sdk (june 2010)\include\d3dx9math.inl
;	COMDAT ?D3DXVec3Length@@YAMPBUD3DXVECTOR3@@@Z
_TEXT	SEGMENT
tv169 = 8						; size = 4
tv160 = 8						; size = 4
_pV$ = 8						; size = 4
?D3DXVec3Length@@YAMPBUD3DXVECTOR3@@@Z PROC		; D3DXVec3Length, COMDAT

; 1710 : {

  00000	55		 push	 ebp
  00001	8b ec		 mov	 ebp, esp

; 1711 : #ifdef D3DX_DEBUG
; 1712 :     if(!pV)
; 1713 :         return 0.0f;
; 1714 : #endif
; 1715 : 
; 1716 : #ifdef __cplusplus
; 1717 :     return sqrtf(pV->x * pV->x + pV->y * pV->y + pV->z * pV->z);

  00003	8b 45 08	 mov	 eax, DWORD PTR _pV$[ebp]
  00006	d9 40 04	 fld	 DWORD PTR [eax+4]
  00009	d9 00		 fld	 DWORD PTR [eax]
  0000b	d9 40 08	 fld	 DWORD PTR [eax+8]
  0000e	d9 c1		 fld	 ST(1)
  00010	de ca		 fmulp	 ST(2), ST(0)
  00012	d9 c2		 fld	 ST(2)
  00014	de cb		 fmulp	 ST(3), ST(0)
  00016	d9 c9		 fxch	 ST(1)
  00018	de c2		 faddp	 ST(2), ST(0)
  0001a	d9 c0		 fld	 ST(0)
  0001c	de c9		 fmulp	 ST(1), ST(0)
  0001e	de c1		 faddp	 ST(1), ST(0)
  00020	d9 5d 08	 fstp	 DWORD PTR tv169[ebp]
  00023	d9 45 08	 fld	 DWORD PTR tv169[ebp]
  00026	e8 00 00 00 00	 call	 __CIsqrt
  0002b	d9 5d 08	 fstp	 DWORD PTR tv160[ebp]
  0002e	d9 45 08	 fld	 DWORD PTR tv160[ebp]

; 1718 : #else
; 1719 :     return (FLOAT) sqrt(pV->x * pV->x + pV->y * pV->y + pV->z * pV->z);
; 1720 : #endif
; 1721 : }

  00031	5d		 pop	 ebp
  00032	c3		 ret	 0
?D3DXVec3Length@@YAMPBUD3DXVECTOR3@@@Z ENDP		; D3DXVec3Length
_TEXT	ENDS
PUBLIC	?D3DXVec3LengthSq@@YAMPBUD3DXVECTOR3@@@Z	; D3DXVec3LengthSq
; Function compile flags: /Ogsp
;	COMDAT ?D3DXVec3LengthSq@@YAMPBUD3DXVECTOR3@@@Z
_TEXT	SEGMENT
tv165 = 8						; size = 4
_pV$ = 8						; size = 4
?D3DXVec3LengthSq@@YAMPBUD3DXVECTOR3@@@Z PROC		; D3DXVec3LengthSq, COMDAT

; 1725 : {

  00000	55		 push	 ebp
  00001	8b ec		 mov	 ebp, esp

; 1726 : #ifdef D3DX_DEBUG
; 1727 :     if(!pV)
; 1728 :         return 0.0f;
; 1729 : #endif
; 1730 : 
; 1731 :     return pV->x * pV->x + pV->y * pV->y + pV->z * pV->z;

  00003	8b 45 08	 mov	 eax, DWORD PTR _pV$[ebp]
  00006	d9 40 04	 fld	 DWORD PTR [eax+4]
  00009	d9 00		 fld	 DWORD PTR [eax]
  0000b	d9 40 08	 fld	 DWORD PTR [eax+8]
  0000e	d9 c1		 fld	 ST(1)
  00010	de ca		 fmulp	 ST(2), ST(0)
  00012	d9 c2		 fld	 ST(2)
  00014	de cb		 fmulp	 ST(3), ST(0)
  00016	d9 c9		 fxch	 ST(1)
  00018	de c2		 faddp	 ST(2), ST(0)
  0001a	d9 c0		 fld	 ST(0)
  0001c	de c9		 fmulp	 ST(1), ST(0)
  0001e	de c1		 faddp	 ST(1), ST(0)
  00020	d9 5d 08	 fstp	 DWORD PTR tv165[ebp]
  00023	d9 45 08	 fld	 DWORD PTR tv165[ebp]

; 1732 : }

  00026	5d		 pop	 ebp
  00027	c3		 ret	 0
?D3DXVec3LengthSq@@YAMPBUD3DXVECTOR3@@@Z ENDP		; D3DXVec3LengthSq
_TEXT	ENDS
PUBLIC	?D3DXVec3Dot@@YAMPBUD3DXVECTOR3@@0@Z		; D3DXVec3Dot
; Function compile flags: /Ogsp
;	COMDAT ?D3DXVec3Dot@@YAMPBUD3DXVECTOR3@@0@Z
_TEXT	SEGMENT
tv188 = 8						; size = 4
_pV1$ = 8						; size = 4
_pV2$ = 12						; size = 4
?D3DXVec3Dot@@YAMPBUD3DXVECTOR3@@0@Z PROC		; D3DXVec3Dot, COMDAT

; 1736 : {

  00000	55		 push	 ebp
  00001	8b ec		 mov	 ebp, esp

; 1737 : #ifdef D3DX_DEBUG
; 1738 :     if(!pV1 || !pV2)
; 1739 :         return 0.0f;
; 1740 : #endif
; 1741 : 
; 1742 :     return pV1->x * pV2->x + pV1->y * pV2->y + pV1->z * pV2->z;

  00003	8b 45 08	 mov	 eax, DWORD PTR _pV1$[ebp]
  00006	8b 4d 0c	 mov	 ecx, DWORD PTR _pV2$[ebp]
  00009	d9 40 04	 fld	 DWORD PTR [eax+4]
  0000c	d8 49 04	 fmul	 DWORD PTR [ecx+4]
  0000f	d9 00		 fld	 DWORD PTR [eax]
  00011	d8 09		 fmul	 DWORD PTR [ecx]
  00013	de c1		 faddp	 ST(1), ST(0)
  00015	d9 40 08	 fld	 DWORD PTR [eax+8]
  00018	d8 49 08	 fmul	 DWORD PTR [ecx+8]
  0001b	de c1		 faddp	 ST(1), ST(0)
  0001d	d9 5d 08	 fstp	 DWORD PTR tv188[ebp]
  00020	d9 45 08	 fld	 DWORD PTR tv188[ebp]

; 1743 : }

  00023	5d		 pop	 ebp
  00024	c3		 ret	 0
?D3DXVec3Dot@@YAMPBUD3DXVECTOR3@@0@Z ENDP		; D3DXVec3Dot
_TEXT	ENDS
PUBLIC	__real@4f800000
PUBLIC	?SetBomberSencingState@ioPushStruct@@QAEXXZ	; ioPushStruct::SetBomberSencingState
EXTRN	__imp_?SetLoopAni@ioEntityGroup@@QAE_NHMMMM@Z:PROC
EXTRN	__imp_?GetAnimationIdx@ioEntityGroup@@QAEHABVioHashString@@@Z:PROC
EXTRN	__imp_?ClearAllActionAni@ioEntityGroup@@QAEXM_N@Z:PROC
EXTRN	__imp_?ClearAllLoopAni@ioEntityGroup@@QAEXM_N@Z:PROC
;	COMDAT __real@4f800000
; File d:\lost saga for developer\youtube\tutorial\source\src\lsclient\stdafx.h
CONST	SEGMENT
__real@4f800000 DD 04f800000r			; 4.29497e+009
; Function compile flags: /Ogsp
; File d:\lost saga for developer\youtube\tutorial\source\src\lsclient\iopushstruct.cpp
CONST	ENDS
;	COMDAT ?SetBomberSencingState@ioPushStruct@@QAEXXZ
_TEXT	SEGMENT
tv225 = -8						; size = 4
tv193 = -8						; size = 4
tv161 = -8						; size = 4
tv250 = -4						; size = 4
tv244 = -4						; size = 4
tv237 = -4						; size = 4
tv188 = -4						; size = 4
_fRate$ = -4						; size = 4
?SetBomberSencingState@ioPushStruct@@QAEXXZ PROC	; ioPushStruct::SetBomberSencingState, COMDAT
; _this$ = ecx

; 2887 : {

  00000	55		 push	 ebp
  00001	8b ec		 mov	 ebp, esp
  00003	51		 push	 ecx
  00004	51		 push	 ecx
  00005	56		 push	 esi
  00006	8b f1		 mov	 esi, ecx

; 2888 : 	DWORD dwCurTime = FRAMEGETTIME();

  00008	ff 15 00 00 00
	00		 call	 DWORD PTR __imp_?GetSingleton@ioFrameTimer@@SAAAV1@XZ
  0000e	8b c8		 mov	 ecx, eax
  00010	ff 15 00 00 00
	00		 call	 DWORD PTR __imp_?GetLoopSec@ioFrameTimer@@QBEKXZ

; 2889 : 	m_BomberState = BBS_SENCING;
; 2890 : 	m_dwBomberSensingStartTime = dwCurTime;

  00016	89 86 84 05 00
	00		 mov	 DWORD PTR [esi+1412], eax

; 2891 : 
; 2892 : 	if( !m_pGroup )	return;

  0001c	8b 46 04	 mov	 eax, DWORD PTR [esi+4]
  0001f	c7 86 d8 04 00
	00 01 00 00 00	 mov	 DWORD PTR [esi+1240], 1
  00029	85 c0		 test	 eax, eax
  0002b	0f 84 13 01 00
	00		 je	 $LN5@SetBomberS

; 2893 : 	if( !m_pGroup->HasSkeleton() )	return;

  00031	8d 48 54	 lea	 ecx, DWORD PTR [eax+84]
  00034	8b 01		 mov	 eax, DWORD PTR [ecx]
  00036	ff 50 0c	 call	 DWORD PTR [eax+12]
  00039	84 c0		 test	 al, al
  0003b	0f 84 03 01 00
	00		 je	 $LN5@SetBomberS

; 2894 : 	if( m_BomberSencingAni.IsEmpty() ) return;

  00041	57		 push	 edi
  00042	8d be ec 04 00
	00		 lea	 edi, DWORD PTR [esi+1260]
  00048	8b cf		 mov	 ecx, edi
  0004a	ff 15 00 00 00
	00		 call	 DWORD PTR __imp_?IsEmpty@ioHashString@@QBE_NXZ
  00050	84 c0		 test	 al, al
  00052	0f 85 eb 00 00
	00		 jne	 $LN19@SetBomberS

; 2895 : 
; 2896 : 	m_pGroup->ClearAllLoopAni( FLOAT100 );

  00058	b8 64 00 00 00	 mov	 eax, 100		; 00000064H
  0005d	89 45 fc	 mov	 DWORD PTR tv250[ebp], eax
  00060	db 45 fc	 fild	 DWORD PTR tv250[ebp]
  00063	6a 00		 push	 0
  00065	85 c0		 test	 eax, eax
  00067	79 06		 jns	 SHORT $LN20@SetBomberS
  00069	d8 05 00 00 00
	00		 fadd	 DWORD PTR __real@4f800000
$LN20@SetBomberS:
  0006f	51		 push	 ecx
  00070	8b 4e 04	 mov	 ecx, DWORD PTR [esi+4]
  00073	d9 1c 24	 fstp	 DWORD PTR [esp]
  00076	ff 15 00 00 00
	00		 call	 DWORD PTR __imp_?ClearAllLoopAni@ioEntityGroup@@QAEXM_N@Z

; 2897 : 	m_pGroup->ClearAllActionAni( FLOAT100 );

  0007c	b8 64 00 00 00	 mov	 eax, 100		; 00000064H
  00081	89 45 fc	 mov	 DWORD PTR tv244[ebp], eax
  00084	db 45 fc	 fild	 DWORD PTR tv244[ebp]
  00087	6a 00		 push	 0
  00089	85 c0		 test	 eax, eax
  0008b	79 06		 jns	 SHORT $LN21@SetBomberS
  0008d	d8 05 00 00 00
	00		 fadd	 DWORD PTR __real@4f800000
$LN21@SetBomberS:
  00093	51		 push	 ecx
  00094	8b 4e 04	 mov	 ecx, DWORD PTR [esi+4]
  00097	d9 1c 24	 fstp	 DWORD PTR [esp]
  0009a	ff 15 00 00 00
	00		 call	 DWORD PTR __imp_?ClearAllActionAni@ioEntityGroup@@QAEXM_N@Z

; 2898 : 
; 2899 : 	int iAniID = m_pGroup->GetAnimationIdx( m_BomberSencingAni );

  000a0	8b 4e 04	 mov	 ecx, DWORD PTR [esi+4]
  000a3	57		 push	 edi
  000a4	ff 15 00 00 00
	00		 call	 DWORD PTR __imp_?GetAnimationIdx@ioEntityGroup@@QAEHABVioHashString@@@Z
  000aa	8b c8		 mov	 ecx, eax

; 2900 : 	float fRate = FLOAT1;

  000ac	b8 01 00 00 00	 mov	 eax, 1
  000b1	89 45 fc	 mov	 DWORD PTR tv237[ebp], eax
  000b4	db 45 fc	 fild	 DWORD PTR tv237[ebp]
  000b7	85 c0		 test	 eax, eax
  000b9	79 06		 jns	 SHORT $LN22@SetBomberS
  000bb	d8 05 00 00 00
	00		 fadd	 DWORD PTR __real@4f800000
$LN22@SetBomberS:

; 2901 : 	if( m_fBomberSencingAniRate > 0.0f )

  000c1	f3 0f 10 86 10
	05 00 00	 movss	 xmm0, DWORD PTR [esi+1296]
  000c9	d9 5d fc	 fstp	 DWORD PTR _fRate$[ebp]
  000cc	0f 57 c9	 xorps	 xmm1, xmm1
  000cf	0f 2f c1	 comiss	 xmm0, xmm1
  000d2	76 05		 jbe	 SHORT $LN1@SetBomberS

; 2902 : 		fRate = m_fBomberSencingAniRate;

  000d4	f3 0f 11 45 fc	 movss	 DWORD PTR _fRate$[ebp], xmm0
$LN1@SetBomberS:

; 2903 : 
; 2904 : 	m_pGroup->SetLoopAni( iAniID, FLOAT100, FLOAT1, FLOAT1/fRate );

  000d9	b8 01 00 00 00	 mov	 eax, 1
  000de	8b d0		 mov	 edx, eax
  000e0	b8 01 00 00 00	 mov	 eax, 1
  000e5	8b f8		 mov	 edi, eax
  000e7	b8 64 00 00 00	 mov	 eax, 100		; 00000064H
  000ec	83 ec 10	 sub	 esp, 16			; 00000010H
  000ef	89 55 f8	 mov	 DWORD PTR tv225[ebp], edx
  000f2	db 45 f8	 fild	 DWORD PTR tv225[ebp]
  000f5	f3 0f 11 4c 24
	0c		 movss	 DWORD PTR [esp+12], xmm1
  000fb	85 d2		 test	 edx, edx
  000fd	79 06		 jns	 SHORT $LN23@SetBomberS
  000ff	d8 05 00 00 00
	00		 fadd	 DWORD PTR __real@4f800000
$LN23@SetBomberS:
  00105	d8 75 fc	 fdiv	 DWORD PTR _fRate$[ebp]
  00108	89 7d f8	 mov	 DWORD PTR tv161[ebp], edi
  0010b	d9 5d fc	 fstp	 DWORD PTR tv188[ebp]
  0010e	d9 45 fc	 fld	 DWORD PTR tv188[ebp]
  00111	d9 5c 24 08	 fstp	 DWORD PTR [esp+8]
  00115	db 45 f8	 fild	 DWORD PTR tv161[ebp]
  00118	85 ff		 test	 edi, edi
  0011a	79 06		 jns	 SHORT $LN24@SetBomberS
  0011c	d8 05 00 00 00
	00		 fadd	 DWORD PTR __real@4f800000
$LN24@SetBomberS:
  00122	89 45 f8	 mov	 DWORD PTR tv193[ebp], eax
  00125	d9 5c 24 04	 fstp	 DWORD PTR [esp+4]
  00129	db 45 f8	 fild	 DWORD PTR tv193[ebp]
  0012c	85 c0		 test	 eax, eax
  0012e	79 06		 jns	 SHORT $LN25@SetBomberS
  00130	d8 05 00 00 00
	00		 fadd	 DWORD PTR __real@4f800000
$LN25@SetBomberS:
  00136	d9 1c 24	 fstp	 DWORD PTR [esp]
  00139	51		 push	 ecx
  0013a	8b 4e 04	 mov	 ecx, DWORD PTR [esi+4]
  0013d	ff 15 00 00 00
	00		 call	 DWORD PTR __imp_?SetLoopAni@ioEntityGroup@@QAE_NHMMMM@Z
$LN19@SetBomberS:
  00143	5f		 pop	 edi
$LN5@SetBomberS:
  00144	5e		 pop	 esi

; 2905 : }

  00145	c9		 leave
  00146	c3		 ret	 0
?SetBomberSencingState@ioPushStruct@@QAEXXZ ENDP	; ioPushStruct::SetBomberSencingState
_TEXT	ENDS
PUBLIC	?IsEnableTargetState@ioPushStruct@@IAE_NPAVioBaseChar@@@Z ; ioPushStruct::IsEnableTargetState
EXTRN	?IsFloating@ioBaseChar@@QAE_NXZ:PROC		; ioBaseChar::IsFloating
EXTRN	?IsApplyDownState@ioBaseChar@@QAE_N_N@Z:PROC	; ioBaseChar::IsApplyDownState
EXTRN	?IsEnableTarget@ioBaseChar@@QAE_N_N0@Z:PROC	; ioBaseChar::IsEnableTarget
EXTRN	?IsSystemState@ioBaseChar@@QAE_NXZ:PROC		; ioBaseChar::IsSystemState
; Function compile flags: /Ogsp
;	COMDAT ?IsEnableTargetState@ioPushStruct@@IAE_NPAVioBaseChar@@@Z
_TEXT	SEGMENT
_pChar$ = 8						; size = 4
?IsEnableTargetState@ioPushStruct@@IAE_NPAVioBaseChar@@@Z PROC ; ioPushStruct::IsEnableTargetState, COMDAT
; _this$ = ecx

; 2944 : {

  00000	55		 push	 ebp
  00001	8b ec		 mov	 ebp, esp
  00003	56		 push	 esi

; 2945 : 	if( !pChar )

  00004	8b 75 08	 mov	 esi, DWORD PTR _pChar$[ebp]
  00007	57		 push	 edi
  00008	8b f9		 mov	 edi, ecx
  0000a	85 f6		 test	 esi, esi
  0000c	75 04		 jne	 SHORT $LN18@IsEnableTa
$LN21@IsEnableTa:

; 2946 : 		return false;

  0000e	32 c0		 xor	 al, al
  00010	eb 41		 jmp	 SHORT $LN19@IsEnableTa
$LN18@IsEnableTa:

; 2947 : 
; 2948 : 	if( pChar->IsSystemState() )

  00012	8b ce		 mov	 ecx, esi
  00014	e8 00 00 00 00	 call	 ?IsSystemState@ioBaseChar@@QAE_NXZ ; ioBaseChar::IsSystemState
  00019	84 c0		 test	 al, al

; 2949 : 		return false;

  0001b	75 f1		 jne	 SHORT $LN21@IsEnableTa

; 2950 : 			
; 2951 : 	if( !pChar->IsEnableTarget() )

  0001d	6a 01		 push	 1
  0001f	6a 01		 push	 1
  00021	8b ce		 mov	 ecx, esi
  00023	e8 00 00 00 00	 call	 ?IsEnableTarget@ioBaseChar@@QAE_N_N0@Z ; ioBaseChar::IsEnableTarget
  00028	84 c0		 test	 al, al

; 2952 : 		return false;

  0002a	74 e2		 je	 SHORT $LN21@IsEnableTa

; 2953 : 
; 2954 : 	// 쓰러짐 관련 체크
; 2955 : 	if( m_TargetWoundType == TWT_AIR_WOUND_EXCEPT ) // 쓰러짐중 공중상태는 패스

  0002c	8b 87 dc 03 00
	00		 mov	 eax, DWORD PTR [edi+988]
  00032	83 f8 02	 cmp	 eax, 2
  00035	75 22		 jne	 SHORT $LN15@IsEnableTa

; 2956 : 	{
; 2957 : 		if( pChar->IsApplyDownState() && !pChar->IsApplyDownState(false) )

  00037	6a 01		 push	 1
  00039	8b ce		 mov	 ecx, esi
  0003b	e8 00 00 00 00	 call	 ?IsApplyDownState@ioBaseChar@@QAE_N_N@Z ; ioBaseChar::IsApplyDownState
  00040	84 c0		 test	 al, al
  00042	74 0d		 je	 SHORT $LN2@IsEnableTa
  00044	6a 00		 push	 0
  00046	8b ce		 mov	 ecx, esi
  00048	e8 00 00 00 00	 call	 ?IsApplyDownState@ioBaseChar@@QAE_N_N@Z ; ioBaseChar::IsApplyDownState
$LN22@IsEnableTa:
  0004d	84 c0		 test	 al, al
  0004f	74 bd		 je	 SHORT $LN21@IsEnableTa
$LN2@IsEnableTa:

; 2979 : 	}
; 2980 : 
; 2981 : 	return true;

  00051	b0 01		 mov	 al, 1
$LN19@IsEnableTa:
  00053	5f		 pop	 edi
  00054	5e		 pop	 esi

; 2982 : }

  00055	5d		 pop	 ebp
  00056	c2 04 00	 ret	 4
$LN15@IsEnableTa:

; 2958 : 			return false;
; 2959 : 	}
; 2960 : 	else if( m_TargetWoundType == TWT_DOWN_WOUND_EXCEPT ) // 쓰러짐중 바닥상태는 패스

  00059	83 f8 03	 cmp	 eax, 3
  0005c	75 0f		 jne	 SHORT $LN12@IsEnableTa

; 2961 : 	{
; 2962 : 		if( pChar->IsApplyDownState(false) )

  0005e	6a 00		 push	 0
$LN23@IsEnableTa:
  00060	8b ce		 mov	 ecx, esi
  00062	e8 00 00 00 00	 call	 ?IsApplyDownState@ioBaseChar@@QAE_N_N@Z ; ioBaseChar::IsApplyDownState
$LN24@IsEnableTa:
  00067	84 c0		 test	 al, al
  00069	74 e6		 je	 SHORT $LN2@IsEnableTa

; 2963 : 			return false;

  0006b	eb a1		 jmp	 SHORT $LN21@IsEnableTa
$LN12@IsEnableTa:

; 2964 : 	}
; 2965 : 	else if( m_TargetWoundType == TWT_ALL_WOUND_EXCEPT )

  0006d	83 f8 04	 cmp	 eax, 4
  00070	75 04		 jne	 SHORT $LN9@IsEnableTa

; 2966 : 	{
; 2967 : 		if( pChar->IsApplyDownState() )

  00072	6a 01		 push	 1

; 2968 : 			return false;

  00074	eb ea		 jmp	 SHORT $LN23@IsEnableTa
$LN9@IsEnableTa:

; 2969 : 	}
; 2970 : 	else if( m_TargetWoundType == TWT_FLOATING_STATE )	// 공중에 뜬 상태가 아니면 패스

  00076	83 f8 06	 cmp	 eax, 6
  00079	75 09		 jne	 SHORT $LN6@IsEnableTa

; 2971 : 	{
; 2972 : 		if( !pChar->IsFloating() )

  0007b	8b ce		 mov	 ecx, esi
  0007d	e8 00 00 00 00	 call	 ?IsFloating@ioBaseChar@@QAE_NXZ ; ioBaseChar::IsFloating

; 2973 : 			return false;

  00082	eb c9		 jmp	 SHORT $LN22@IsEnableTa
$LN6@IsEnableTa:

; 2974 : 	}
; 2975 : 	else if( m_TargetWoundType == TWT_DOWN_WOUNDED ) //바닥에 쓰러져 있지 않거나 공중에 뜬 상태면 패스

  00084	83 f8 08	 cmp	 eax, 8
  00087	75 c8		 jne	 SHORT $LN2@IsEnableTa

; 2976 : 	{
; 2977 : 		if( !pChar->IsApplyDownState() || pChar->IsFloating() )

  00089	6a 01		 push	 1
  0008b	8b ce		 mov	 ecx, esi
  0008d	e8 00 00 00 00	 call	 ?IsApplyDownState@ioBaseChar@@QAE_N_N@Z ; ioBaseChar::IsApplyDownState
  00092	84 c0		 test	 al, al
  00094	0f 84 74 ff ff
	ff		 je	 $LN21@IsEnableTa
  0009a	8b ce		 mov	 ecx, esi
  0009c	e8 00 00 00 00	 call	 ?IsFloating@ioBaseChar@@QAE_NXZ ; ioBaseChar::IsFloating

; 2978 : 			return false;

  000a1	eb c4		 jmp	 SHORT $LN24@IsEnableTa
?IsEnableTargetState@ioPushStruct@@IAE_NPAVioBaseChar@@@Z ENDP ; ioPushStruct::IsEnableTargetState
_TEXT	ENDS
PUBLIC	?IsCharCollisionSkipState@ioPushStruct@@UBE_NW4TeamType@@H@Z ; ioPushStruct::IsCharCollisionSkipState
; Function compile flags: /Ogsp
;	COMDAT ?IsCharCollisionSkipState@ioPushStruct@@UBE_NW4TeamType@@H@Z
_TEXT	SEGMENT
_eTeamType$ = 8						; size = 4
_iState$ = 12						; size = 4
?IsCharCollisionSkipState@ioPushStruct@@UBE_NW4TeamType@@H@Z PROC ; ioPushStruct::IsCharCollisionSkipState, COMDAT
; _this$ = ecx

; 3306 : 	if( m_iStructType == PSTT_BOMBER )

  00000	83 b9 e0 01 00
	00 04		 cmp	 DWORD PTR [ecx+480], 4
  00007	0f 94 c0	 sete	 al

; 3307 : 		return true;
; 3308 : 
; 3309 : 	return false;
; 3310 : }

  0000a	c2 08 00	 ret	 8
?IsCharCollisionSkipState@ioPushStruct@@UBE_NW4TeamType@@H@Z ENDP ; ioPushStruct::IsCharCollisionSkipState
_TEXT	ENDS
PUBLIC	?CheckSpecialCollisionBox@ioPushStruct@@QAEXABVioHashString@@@Z ; ioPushStruct::CheckSpecialCollisionBox
EXTRN	?CreateAniCollisionGrp@ioCollisionBoxGrpManager@@QAEPAVioAniCollisionBoxGrp@@PBD_N@Z:PROC ; ioCollisionBoxGrpManager::CreateAniCollisionGrp
EXTRN	?GetSingleton@ioCollisionBoxGrpManager@@SAAAV1@XZ:PROC ; ioCollisionBoxGrpManager::GetSingleton
EXTRN	__imp_?c_str@ioHashString@@QBEPBDXZ:PROC
; Function compile flags: /Ogsp
;	COMDAT ?CheckSpecialCollisionBox@ioPushStruct@@QAEXABVioHashString@@@Z
_TEXT	SEGMENT
_szFileName$ = 8					; size = 4
?CheckSpecialCollisionBox@ioPushStruct@@QAEXABVioHashString@@@Z PROC ; ioPushStruct::CheckSpecialCollisionBox, COMDAT
; _this$ = ecx

; 3411 : {

  00000	55		 push	 ebp
  00001	8b ec		 mov	 ebp, esp
  00003	56		 push	 esi
  00004	8b f1		 mov	 esi, ecx

; 3412 : 	if( szFileName.IsEmpty() ) return;

  00006	8b 4d 08	 mov	 ecx, DWORD PTR _szFileName$[ebp]
  00009	ff 15 00 00 00
	00		 call	 DWORD PTR __imp_?IsEmpty@ioHashString@@QBE_NXZ
  0000f	84 c0		 test	 al, al
  00011	75 3f		 jne	 SHORT $LN3@CheckSpeci

; 3413 : 
; 3414 : 	SAFEDELETE( m_pSpecialBox );

  00013	57		 push	 edi
  00014	8b be ac 06 00
	00		 mov	 edi, DWORD PTR [esi+1708]
  0001a	85 ff		 test	 edi, edi
  0001c	74 15		 je	 SHORT $LN1@CheckSpeci
  0001e	8b cf		 mov	 ecx, edi
  00020	e8 00 00 00 00	 call	 ??1ioAniCollisionBoxGrp@@QAE@XZ ; ioAniCollisionBoxGrp::~ioAniCollisionBoxGrp
  00025	57		 push	 edi
  00026	e8 00 00 00 00	 call	 ??3@YAXPAX@Z		; operator delete
  0002b	83 a6 ac 06 00
	00 00		 and	 DWORD PTR [esi+1708], 0
  00032	59		 pop	 ecx
$LN1@CheckSpeci:

; 3415 : 
; 3416 : 	m_pSpecialBox = g_CollisionBoxGrpMgr.CreateAniCollisionGrp( szFileName.c_str(), true );

  00033	8b 4d 08	 mov	 ecx, DWORD PTR _szFileName$[ebp]
  00036	6a 01		 push	 1
  00038	ff 15 00 00 00
	00		 call	 DWORD PTR __imp_?c_str@ioHashString@@QBEPBDXZ
  0003e	50		 push	 eax
  0003f	e8 00 00 00 00	 call	 ?GetSingleton@ioCollisionBoxGrpManager@@SAAAV1@XZ ; ioCollisionBoxGrpManager::GetSingleton
  00044	8b c8		 mov	 ecx, eax
  00046	e8 00 00 00 00	 call	 ?CreateAniCollisionGrp@ioCollisionBoxGrpManager@@QAEPAVioAniCollisionBoxGrp@@PBD_N@Z ; ioCollisionBoxGrpManager::CreateAniCollisionGrp
  0004b	89 86 ac 06 00
	00		 mov	 DWORD PTR [esi+1708], eax
  00051	5f		 pop	 edi
$LN3@CheckSpeci:
  00052	5e		 pop	 esi

; 3417 : }

  00053	5d		 pop	 ebp
  00054	c2 04 00	 ret	 4
?CheckSpecialCollisionBox@ioPushStruct@@QAEXABVioHashString@@@Z ENDP ; ioPushStruct::CheckSpecialCollisionBox
_TEXT	ENDS
PUBLIC	___$ReturnUdt$GSCopy$
PUBLIC	?GetAttackCollisionBox@ioPushStruct@@UAE?AVioOrientBox@@W4AniCollisionType@@_N@Z ; ioPushStruct::GetAttackCollisionBox
EXTRN	__imp_??1ioOrientBox@@QAE@XZ:PROC
EXTRN	?GetWorldCollisionBox@ioGameEntity@@QBEABVioOrientBox@@XZ:PROC ; ioGameEntity::GetWorldCollisionBox
EXTRN	__imp_?Transform@ioOrientBox@@QAEXPBUD3DXMATRIX@@@Z:PROC
EXTRN	_D3DXMatrixMultiply@12:PROC
EXTRN	__imp_?GetBipedSpaceFullXform@ioBiped@@QBEPAUD3DXMATRIX@@XZ:PROC
EXTRN	__imp_?GetBiped@ioEntityGroup@@QAEPAVioBiped@@ABVioHashString@@@Z:PROC
EXTRN	__imp_??0ioOrientBox@@QAE@XZ:PROC
EXTRN	?GetCollisionBox@ioAniCollisionBoxGrp@@QAEPAUAniCollisionBox@@W4AniCollisionType@@@Z:PROC ; ioAniCollisionBoxGrp::GetCollisionBox
EXTRN	?HasCollisionBox@ioAniCollisionBoxGrp@@QAE_NW4AniCollisionType@@@Z:PROC ; ioAniCollisionBoxGrp::HasCollisionBox
EXTRN	__EH_epilog3_GS:PROC
EXTRN	__EH_prolog3_GS:PROC
;	COMDAT xdata$x
; File c:\program files (x86)\microsoft directx sdk (june 2010)\include\d3dx9math.h
xdata$x	SEGMENT
__unwindtable$?GetAttackCollisionBox@ioPushStruct@@UAE?AVioOrientBox@@W4AniCollisionType@@_N@Z DD 0ffffffffH
	DD	FLAT:__unwindfunclet$?GetAttackCollisionBox@ioPushStruct@@UAE?AVioOrientBox@@W4AniCollisionType@@_N@Z$0
__ehfuncinfo$?GetAttackCollisionBox@ioPushStruct@@UAE?AVioOrientBox@@W4AniCollisionType@@_N@Z DD 019930522H
	DD	01H
	DD	FLAT:__unwindtable$?GetAttackCollisionBox@ioPushStruct@@UAE?AVioOrientBox@@W4AniCollisionType@@_N@Z
	DD	2 DUP(00H)
	DD	2 DUP(00H)
	DD	00H
	DD	01H
; Function compile flags: /Ogsp
; File d:\lost saga for developer\youtube\tutorial\source\src\lsclient\iopushstruct.cpp
xdata$x	ENDS
;	COMDAT ?GetAttackCollisionBox@ioPushStruct@@UAE?AVioOrientBox@@W4AniCollisionType@@_N@Z
_TEXT	SEGMENT
_pBiped$555225 = -92					; size = 4
$T567020 = -88						; size = 4
___$ReturnUdt$GSCopy$ = -84				; size = 4
_matWorld$555230 = -80					; size = 64
__$EHRec$ = -12						; size = 12
___$ReturnUdt$ = 8					; size = 4
_eType$ = 12						; size = 4
_bNoScale$ = 16						; size = 1
?GetAttackCollisionBox@ioPushStruct@@UAE?AVioOrientBox@@W4AniCollisionType@@_N@Z PROC ; ioPushStruct::GetAttackCollisionBox, COMDAT
; _this$ = ecx

; 3420 : {

  00000	6a 50		 push	 80			; 00000050H
  00002	b8 00 00 00 00	 mov	 eax, __ehhandler$?GetAttackCollisionBox@ioPushStruct@@UAE?AVioOrientBox@@W4AniCollisionType@@_N@Z
  00007	e8 00 00 00 00	 call	 __EH_prolog3_GS

; 3450 : 			kBox.Transform( &matWorld );

  0000c	8b 45 08	 mov	 eax, DWORD PTR ___$ReturnUdt$[ebp]
  0000f	33 ff		 xor	 edi, edi
  00011	8b f1		 mov	 esi, ecx
  00013	8b 4d 0c	 mov	 ecx, DWORD PTR _eType$[ebp]
  00016	89 7d fc	 mov	 DWORD PTR __$EHRec$[ebp+8], edi
  00019	89 45 ac	 mov	 DWORD PTR ___$ReturnUdt$GSCopy$[ebp], eax
  0001c	89 7d a8	 mov	 DWORD PTR $T567020[ebp], edi

; 3421 : 	AniCollisionBox *pColBox = NULL;
; 3422 : 	float fBoxScaleRate = FLOAT1;

  0001f	b8 01 00 00 00	 mov	 eax, 1

; 3450 : 			kBox.Transform( &matWorld );

  00024	83 f9 07	 cmp	 ecx, 7
  00027	75 24		 jne	 SHORT $LN5@GetAttackC

; 3423 : 	float fBoxMoveOffset = 0.0f;
; 3424 : 
; 3425 : 	if( !pColBox && eType == ACT_SPECIAL )
; 3426 : 	{
; 3427 : 		if( m_pSpecialBox && m_pSpecialBox->HasCollisionBox( eType ) )

  00029	8b 8e ac 06 00
	00		 mov	 ecx, DWORD PTR [esi+1708]
  0002f	3b cf		 cmp	 ecx, edi
  00031	74 1a		 je	 SHORT $LN5@GetAttackC
  00033	6a 07		 push	 7
  00035	e8 00 00 00 00	 call	 ?HasCollisionBox@ioAniCollisionBoxGrp@@QAE_NW4AniCollisionType@@@Z ; ioAniCollisionBoxGrp::HasCollisionBox
  0003a	84 c0		 test	 al, al
  0003c	74 0f		 je	 SHORT $LN5@GetAttackC

; 3428 : 		{
; 3429 : 			pColBox = m_pSpecialBox->GetCollisionBox( eType );

  0003e	8b 8e ac 06 00
	00		 mov	 ecx, DWORD PTR [esi+1708]
  00044	6a 07		 push	 7
  00046	e8 00 00 00 00	 call	 ?GetCollisionBox@ioAniCollisionBoxGrp@@QAEPAUAniCollisionBox@@W4AniCollisionType@@@Z ; ioAniCollisionBoxGrp::GetCollisionBox
  0004b	8b f8		 mov	 edi, eax
$LN5@GetAttackC:

; 3430 : 			fBoxMoveOffset = 0.0f;
; 3431 : 		}
; 3432 : 	}
; 3433 : 
; 3434 : 	ioOrientBox kBox;

  0004d	8b 4d ac	 mov	 ecx, DWORD PTR ___$ReturnUdt$GSCopy$[ebp]
  00050	ff 15 00 00 00
	00		 call	 DWORD PTR __imp_??0ioOrientBox@@QAE@XZ

; 3456 : 	}
; 3457 : 
; 3458 : 	return kBox;

  00056	83 65 fc 00	 and	 DWORD PTR __$EHRec$[ebp+8], 0
  0005a	c7 45 a8 01 00
	00 00		 mov	 DWORD PTR $T567020[ebp], 1
  00061	85 ff		 test	 edi, edi
  00063	74 5a		 je	 SHORT $LN4@GetAttackC

; 3435 : 	if( pColBox )
; 3436 : 	{
; 3437 : 		ioNode *pNode = m_pGroup->GetParentNode();

  00065	8b 4e 04	 mov	 ecx, DWORD PTR [esi+4]
  00068	8b 01		 mov	 eax, DWORD PTR [ecx]
  0006a	ff 50 30	 call	 DWORD PTR [eax+48]

; 3438 : 		ioBiped *pBiped = m_pGroup->GetBiped( pColBox->m_LinkBone );

  0006d	8b 4e 04	 mov	 ecx, DWORD PTR [esi+4]
  00070	8b d8		 mov	 ebx, eax
  00072	8d 47 48	 lea	 eax, DWORD PTR [edi+72]
  00075	50		 push	 eax
  00076	ff 15 00 00 00
	00		 call	 DWORD PTR __imp_?GetBiped@ioEntityGroup@@QAEPAVioBiped@@ABVioHashString@@@Z
  0007c	89 45 a4	 mov	 DWORD PTR _pBiped$555225[ebp], eax

; 3439 : 		if( pNode && pBiped )

  0007f	85 db		 test	 ebx, ebx
  00081	74 4d		 je	 SHORT $LN1@GetAttackC
  00083	85 c0		 test	 eax, eax
  00085	74 49		 je	 SHORT $LN1@GetAttackC

; 3440 : 		{
; 3441 : 			kBox = pColBox->m_Box;

  00087	6a 11		 push	 17			; 00000011H
  00089	8d 77 04	 lea	 esi, DWORD PTR [edi+4]
  0008c	8b 7d ac	 mov	 edi, DWORD PTR ___$ReturnUdt$GSCopy$[ebp]
  0008f	59		 pop	 ecx
  00090	f3 a5		 rep movsd

; 3442 : 
; 3443 : 			if( fBoxMoveOffset != 0.0f )
; 3444 : 			{
; 3445 : 				kBox.SetCenter( kBox.GetCenter() - kBox.GetAxis(2) * fBoxMoveOffset );
; 3446 : 			}
; 3447 : 
; 3448 : 			D3DXMATRIX matWorld;
; 3449 : 			D3DXMatrixMultiply( &matWorld, pBiped->GetBipedSpaceFullXform(), pNode->GetFullTransform() );

  00092	8b 03		 mov	 eax, DWORD PTR [ebx]
  00094	8b cb		 mov	 ecx, ebx
  00096	ff 90 84 00 00
	00		 call	 DWORD PTR [eax+132]
  0009c	8b 4d a4	 mov	 ecx, DWORD PTR _pBiped$555225[ebp]
  0009f	50		 push	 eax
  000a0	ff 15 00 00 00
	00		 call	 DWORD PTR __imp_?GetBipedSpaceFullXform@ioBiped@@QBEPAUD3DXMATRIX@@XZ
  000a6	50		 push	 eax
  000a7	8d 45 b0	 lea	 eax, DWORD PTR _matWorld$555230[ebp]
  000aa	50		 push	 eax
  000ab	e8 00 00 00 00	 call	 _D3DXMatrixMultiply@12

; 3450 : 			kBox.Transform( &matWorld );

  000b0	8b 4d ac	 mov	 ecx, DWORD PTR ___$ReturnUdt$GSCopy$[ebp]
  000b3	8d 45 b0	 lea	 eax, DWORD PTR _matWorld$555230[ebp]
  000b6	50		 push	 eax
  000b7	ff 15 00 00 00
	00		 call	 DWORD PTR __imp_?Transform@ioOrientBox@@QAEXPBUD3DXMATRIX@@@Z

; 3451 : 		}
; 3452 : 	}
; 3453 : 	else

  000bd	eb 11		 jmp	 SHORT $LN1@GetAttackC
$LN4@GetAttackC:

; 3454 : 	{
; 3455 : 		kBox = GetWorldCollisionBox();

  000bf	8b ce		 mov	 ecx, esi
  000c1	e8 00 00 00 00	 call	 ?GetWorldCollisionBox@ioGameEntity@@QBEABVioOrientBox@@XZ ; ioGameEntity::GetWorldCollisionBox
  000c6	8b 7d ac	 mov	 edi, DWORD PTR ___$ReturnUdt$GSCopy$[ebp]
  000c9	6a 11		 push	 17			; 00000011H
  000cb	59		 pop	 ecx
  000cc	8b f0		 mov	 esi, eax
  000ce	f3 a5		 rep movsd
$LN1@GetAttackC:

; 3456 : 	}
; 3457 : 
; 3458 : 	return kBox;

  000d0	8b 45 ac	 mov	 eax, DWORD PTR ___$ReturnUdt$GSCopy$[ebp]

; 3459 : }

  000d3	e8 00 00 00 00	 call	 __EH_epilog3_GS
  000d8	c2 0c 00	 ret	 12			; 0000000cH
_TEXT	ENDS
;	COMDAT text$x
text$x	SEGMENT
__unwindfunclet$?GetAttackCollisionBox@ioPushStruct@@UAE?AVioOrientBox@@W4AniCollisionType@@_N@Z$0:
  00000	8b 45 a8	 mov	 eax, DWORD PTR $T567020[ebp]
  00003	83 e0 01	 and	 eax, 1
  00006	0f 84 0d 00 00
	00		 je	 $LN10@GetAttackC
  0000c	83 65 a8 fe	 and	 DWORD PTR $T567020[ebp], -2 ; fffffffeH
  00010	8b 4d ac	 mov	 ecx, DWORD PTR ___$ReturnUdt$GSCopy$[ebp]
  00013	ff 25 00 00 00
	00		 jmp	 DWORD PTR __imp_??1ioOrientBox@@QAE@XZ
$LN10@GetAttackC:
  00019	c3		 ret	 0
__ehhandler$?GetAttackCollisionBox@ioPushStruct@@UAE?AVioOrientBox@@W4AniCollisionType@@_N@Z:
  0001a	8b 54 24 08	 mov	 edx, DWORD PTR [esp+8]
  0001e	8d 42 0c	 lea	 eax, DWORD PTR [edx+12]
  00021	8b 4a a0	 mov	 ecx, DWORD PTR [edx-96]
  00024	33 c8		 xor	 ecx, eax
  00026	e8 00 00 00 00	 call	 @__security_check_cookie@4
  0002b	8b 4a fc	 mov	 ecx, DWORD PTR [edx-4]
  0002e	33 c8		 xor	 ecx, eax
  00030	e8 00 00 00 00	 call	 @__security_check_cookie@4
  00035	b8 00 00 00 00	 mov	 eax, OFFSET __ehfuncinfo$?GetAttackCollisionBox@ioPushStruct@@UAE?AVioOrientBox@@W4AniCollisionType@@_N@Z
  0003a	e9 00 00 00 00	 jmp	 ___CxxFrameHandler3
text$x	ENDS
?GetAttackCollisionBox@ioPushStruct@@UAE?AVioOrientBox@@W4AniCollisionType@@_N@Z ENDP ; ioPushStruct::GetAttackCollisionBox
PUBLIC	?empty@?$vector@VioHashString@@V?$allocator@VioHashString@@@std@@@std@@QBE_NXZ ; std::vector<ioHashString,std::allocator<ioHashString> >::empty
; Function compile flags: /Ogsp
; File c:\program files (x86)\microsoft visual studio 10.0\vc\include\vector
;	COMDAT ?empty@?$vector@VioHashString@@V?$allocator@VioHashString@@@std@@@std@@QBE_NXZ
_TEXT	SEGMENT
?empty@?$vector@VioHashString@@V?$allocator@VioHashString@@@std@@@std@@QBE_NXZ PROC ; std::vector<ioHashString,std::allocator<ioHashString> >::empty, COMDAT
; _this$ = ecx

; 889  : 		return (this->_Myfirst == this->_Mylast);

  00000	8b 01		 mov	 eax, DWORD PTR [ecx]
  00002	2b 41 04	 sub	 eax, DWORD PTR [ecx+4]
  00005	f7 d8		 neg	 eax
  00007	1b c0		 sbb	 eax, eax
  00009	40		 inc	 eax

; 890  : 		}

  0000a	c3		 ret	 0
?empty@?$vector@VioHashString@@V?$allocator@VioHashString@@@std@@@std@@QBE_NXZ ENDP ; std::vector<ioHashString,std::allocator<ioHashString> >::empty
_TEXT	ENDS
PUBLIC	??A?$vector@VioHashString@@V?$allocator@VioHashString@@@std@@@std@@QAEAAVioHashString@@I@Z ; std::vector<ioHashString,std::allocator<ioHashString> >::operator[]
; Function compile flags: /Ogsp
;	COMDAT ??A?$vector@VioHashString@@V?$allocator@VioHashString@@@std@@@std@@QAEAAVioHashString@@I@Z
_TEXT	SEGMENT
__Pos$ = 8						; size = 4
??A?$vector@VioHashString@@V?$allocator@VioHashString@@@std@@@std@@QAEAAVioHashString@@I@Z PROC ; std::vector<ioHashString,std::allocator<ioHashString> >::operator[], COMDAT
; _this$ = ecx

; 928  : 		{	// subscript mutable sequence

  00000	55		 push	 ebp
  00001	8b ec		 mov	 ebp, esp

; 929  :  #if _ITERATOR_DEBUG_LEVEL == 2
; 930  : 		if (size() <= _Pos)
; 931  : 			{	// report error
; 932  : 			_DEBUG_ERROR("vector subscript out of range");
; 933  : 			_SCL_SECURE_OUT_OF_RANGE;
; 934  : 			}
; 935  : 
; 936  :  #elif _ITERATOR_DEBUG_LEVEL == 1
; 937  : 		_SCL_SECURE_VALIDATE_RANGE(_Pos < size());
; 938  :  #endif /* _ITERATOR_DEBUG_LEVEL */
; 939  : 
; 940  : 		return (*(this->_Myfirst + _Pos));

  00003	8b 45 08	 mov	 eax, DWORD PTR __Pos$[ebp]
  00006	c1 e0 04	 shl	 eax, 4
  00009	03 01		 add	 eax, DWORD PTR [ecx]

; 941  : 		}

  0000b	5d		 pop	 ebp
  0000c	c2 04 00	 ret	 4
??A?$vector@VioHashString@@V?$allocator@VioHashString@@@std@@@std@@QAEAAVioHashString@@I@Z ENDP ; std::vector<ioHashString,std::allocator<ioHashString> >::operator[]
_TEXT	ENDS
PUBLIC	?size@?$vector@V?$basic_string@DU?$char_traits@D@std@@V?$allocator@D@2@@std@@V?$allocator@V?$basic_string@DU?$char_traits@D@std@@V?$allocator@D@2@@std@@@2@@std@@QBEIXZ ; std::vector<std::basic_string<char,std::char_traits<char>,std::allocator<char> >,std::allocator<std::basic_string<char,std::char_traits<char>,std::allocator<char> > > >::size
; Function compile flags: /Ogsp
;	COMDAT ?size@?$vector@V?$basic_string@DU?$char_traits@D@std@@V?$allocator@D@2@@std@@V?$allocator@V?$basic_string@DU?$char_traits@D@std@@V?$allocator@D@2@@std@@@2@@std@@QBEIXZ
_TEXT	SEGMENT
?size@?$vector@V?$basic_string@DU?$char_traits@D@std@@V?$allocator@D@2@@std@@V?$allocator@V?$basic_string@DU?$char_traits@D@std@@V?$allocator@D@2@@std@@@2@@std@@QBEIXZ PROC ; std::vector<std::basic_string<char,std::char_traits<char>,std::allocator<char> >,std::allocator<std::basic_string<char,std::char_traits<char>,std::allocator<char> > > >::size, COMDAT
; _this$ = ecx

; 879  : 		return (this->_Mylast - this->_Myfirst);

  00000	8b 41 04	 mov	 eax, DWORD PTR [ecx+4]
  00003	2b 01		 sub	 eax, DWORD PTR [ecx]
  00005	6a 1c		 push	 28			; 0000001cH
  00007	99		 cdq
  00008	59		 pop	 ecx
  00009	f7 f9		 idiv	 ecx

; 880  : 		}

  0000b	c3		 ret	 0
?size@?$vector@V?$basic_string@DU?$char_traits@D@std@@V?$allocator@D@2@@std@@V?$allocator@V?$basic_string@DU?$char_traits@D@std@@V?$allocator@D@2@@std@@@2@@std@@QBEIXZ ENDP ; std::vector<std::basic_string<char,std::char_traits<char>,std::allocator<char> >,std::allocator<std::basic_string<char,std::char_traits<char>,std::allocator<char> > > >::size
_TEXT	ENDS
PUBLIC	??A?$vector@V?$basic_string@DU?$char_traits@D@std@@V?$allocator@D@2@@std@@V?$allocator@V?$basic_string@DU?$char_traits@D@std@@V?$allocator@D@2@@std@@@2@@std@@QBEABV?$basic_string@DU?$char_traits@D@std@@V?$allocator@D@2@@1@I@Z ; std::vector<std::basic_string<char,std::char_traits<char>,std::allocator<char> >,std::allocator<std::basic_string<char,std::char_traits<char>,std::allocator<char> > > >::operator[]
; Function compile flags: /Ogsp
;	COMDAT ??A?$vector@V?$basic_string@DU?$char_traits@D@std@@V?$allocator@D@2@@std@@V?$allocator@V?$basic_string@DU?$char_traits@D@std@@V?$allocator@D@2@@std@@@2@@std@@QBEABV?$basic_string@DU?$char_traits@D@std@@V?$allocator@D@2@@1@I@Z
_TEXT	SEGMENT
__Pos$ = 8						; size = 4
??A?$vector@V?$basic_string@DU?$char_traits@D@std@@V?$allocator@D@2@@std@@V?$allocator@V?$basic_string@DU?$char_traits@D@std@@V?$allocator@D@2@@std@@@2@@std@@QBEABV?$basic_string@DU?$char_traits@D@std@@V?$allocator@D@2@@1@I@Z PROC ; std::vector<std::basic_string<char,std::char_traits<char>,std::allocator<char> >,std::allocator<std::basic_string<char,std::char_traits<char>,std::allocator<char> > > >::operator[], COMDAT
; _this$ = ecx

; 912  : 		{	// subscript nonmutable sequence

  00000	55		 push	 ebp
  00001	8b ec		 mov	 ebp, esp

; 913  :  #if _ITERATOR_DEBUG_LEVEL == 2
; 914  : 		if (size() <= _Pos)
; 915  : 			{	// report error
; 916  : 			_DEBUG_ERROR("vector subscript out of range");
; 917  : 			_SCL_SECURE_OUT_OF_RANGE;
; 918  : 			}
; 919  : 
; 920  :  #elif _ITERATOR_DEBUG_LEVEL == 1
; 921  : 		_SCL_SECURE_VALIDATE_RANGE(_Pos < size());
; 922  :  #endif /* _ITERATOR_DEBUG_LEVEL */
; 923  : 
; 924  : 		return (*(this->_Myfirst + _Pos));

  00003	8b 45 08	 mov	 eax, DWORD PTR __Pos$[ebp]
  00006	6b c0 1c	 imul	 eax, 28			; 0000001cH
  00009	03 01		 add	 eax, DWORD PTR [ecx]

; 925  : 		}

  0000b	5d		 pop	 ebp
  0000c	c2 04 00	 ret	 4
??A?$vector@V?$basic_string@DU?$char_traits@D@std@@V?$allocator@D@2@@std@@V?$allocator@V?$basic_string@DU?$char_traits@D@std@@V?$allocator@D@2@@std@@@2@@std@@QBEABV?$basic_string@DU?$char_traits@D@std@@V?$allocator@D@2@@1@I@Z ENDP ; std::vector<std::basic_string<char,std::char_traits<char>,std::allocator<char> >,std::allocator<std::basic_string<char,std::char_traits<char>,std::allocator<char> > > >::operator[]
_TEXT	ENDS
PUBLIC	?size@?$vector@PAVioGameEntity@@V?$allocator@PAVioGameEntity@@@std@@@std@@QBEIXZ ; std::vector<ioGameEntity *,std::allocator<ioGameEntity *> >::size
; Function compile flags: /Ogsp
;	COMDAT ?size@?$vector@PAVioGameEntity@@V?$allocator@PAVioGameEntity@@@std@@@std@@QBEIXZ
_TEXT	SEGMENT
?size@?$vector@PAVioGameEntity@@V?$allocator@PAVioGameEntity@@@std@@@std@@QBEIXZ PROC ; std::vector<ioGameEntity *,std::allocator<ioGameEntity *> >::size, COMDAT
; _this$ = ecx

; 879  : 		return (this->_Mylast - this->_Myfirst);

  00000	8b 41 04	 mov	 eax, DWORD PTR [ecx+4]
  00003	2b 01		 sub	 eax, DWORD PTR [ecx]
  00005	c1 f8 02	 sar	 eax, 2

; 880  : 		}

  00008	c3		 ret	 0
?size@?$vector@PAVioGameEntity@@V?$allocator@PAVioGameEntity@@@std@@@std@@QBEIXZ ENDP ; std::vector<ioGameEntity *,std::allocator<ioGameEntity *> >::size
_TEXT	ENDS
PUBLIC	?empty@?$vector@PAVioGameEntity@@V?$allocator@PAVioGameEntity@@@std@@@std@@QBE_NXZ ; std::vector<ioGameEntity *,std::allocator<ioGameEntity *> >::empty
; Function compile flags: /Ogsp
;	COMDAT ?empty@?$vector@PAVioGameEntity@@V?$allocator@PAVioGameEntity@@@std@@@std@@QBE_NXZ
_TEXT	SEGMENT
?empty@?$vector@PAVioGameEntity@@V?$allocator@PAVioGameEntity@@@std@@@std@@QBE_NXZ PROC ; std::vector<ioGameEntity *,std::allocator<ioGameEntity *> >::empty, COMDAT
; _this$ = ecx

; 889  : 		return (this->_Myfirst == this->_Mylast);

  00000	8b 01		 mov	 eax, DWORD PTR [ecx]
  00002	2b 41 04	 sub	 eax, DWORD PTR [ecx+4]
  00005	f7 d8		 neg	 eax
  00007	1b c0		 sbb	 eax, eax
  00009	40		 inc	 eax

; 890  : 		}

  0000a	c3		 ret	 0
?empty@?$vector@PAVioGameEntity@@V?$allocator@PAVioGameEntity@@@std@@@std@@QBE_NXZ ENDP ; std::vector<ioGameEntity *,std::allocator<ioGameEntity *> >::empty
_TEXT	ENDS
PUBLIC	??A?$vector@PAVioGameEntity@@V?$allocator@PAVioGameEntity@@@std@@@std@@QAEAAPAVioGameEntity@@I@Z ; std::vector<ioGameEntity *,std::allocator<ioGameEntity *> >::operator[]
; Function compile flags: /Ogsp
;	COMDAT ??A?$vector@PAVioGameEntity@@V?$allocator@PAVioGameEntity@@@std@@@std@@QAEAAPAVioGameEntity@@I@Z
_TEXT	SEGMENT
__Pos$ = 8						; size = 4
??A?$vector@PAVioGameEntity@@V?$allocator@PAVioGameEntity@@@std@@@std@@QAEAAPAVioGameEntity@@I@Z PROC ; std::vector<ioGameEntity *,std::allocator<ioGameEntity *> >::operator[], COMDAT
; _this$ = ecx

; 928  : 		{	// subscript mutable sequence

  00000	55		 push	 ebp
  00001	8b ec		 mov	 ebp, esp

; 929  :  #if _ITERATOR_DEBUG_LEVEL == 2
; 930  : 		if (size() <= _Pos)
; 931  : 			{	// report error
; 932  : 			_DEBUG_ERROR("vector subscript out of range");
; 933  : 			_SCL_SECURE_OUT_OF_RANGE;
; 934  : 			}
; 935  : 
; 936  :  #elif _ITERATOR_DEBUG_LEVEL == 1
; 937  : 		_SCL_SECURE_VALIDATE_RANGE(_Pos < size());
; 938  :  #endif /* _ITERATOR_DEBUG_LEVEL */
; 939  : 
; 940  : 		return (*(this->_Myfirst + _Pos));

  00003	8b 01		 mov	 eax, DWORD PTR [ecx]
  00005	8b 4d 08	 mov	 ecx, DWORD PTR __Pos$[ebp]
  00008	8d 04 88	 lea	 eax, DWORD PTR [eax+ecx*4]

; 941  : 		}

  0000b	5d		 pop	 ebp
  0000c	c2 04 00	 ret	 4
??A?$vector@PAVioGameEntity@@V?$allocator@PAVioGameEntity@@@std@@@std@@QAEAAPAVioGameEntity@@I@Z ENDP ; std::vector<ioGameEntity *,std::allocator<ioGameEntity *> >::operator[]
_TEXT	ENDS
PUBLIC	?size@?$vector@PAVioWeapon@@V?$allocator@PAVioWeapon@@@std@@@std@@QBEIXZ ; std::vector<ioWeapon *,std::allocator<ioWeapon *> >::size
; Function compile flags: /Ogsp
;	COMDAT ?size@?$vector@PAVioWeapon@@V?$allocator@PAVioWeapon@@@std@@@std@@QBEIXZ
_TEXT	SEGMENT
?size@?$vector@PAVioWeapon@@V?$allocator@PAVioWeapon@@@std@@@std@@QBEIXZ PROC ; std::vector<ioWeapon *,std::allocator<ioWeapon *> >::size, COMDAT
; _this$ = ecx

; 879  : 		return (this->_Mylast - this->_Myfirst);

  00000	8b 41 04	 mov	 eax, DWORD PTR [ecx+4]
  00003	2b 01		 sub	 eax, DWORD PTR [ecx]
  00005	c1 f8 02	 sar	 eax, 2

; 880  : 		}

  00008	c3		 ret	 0
?size@?$vector@PAVioWeapon@@V?$allocator@PAVioWeapon@@@std@@@std@@QBEIXZ ENDP ; std::vector<ioWeapon *,std::allocator<ioWeapon *> >::size
_TEXT	ENDS
PUBLIC	?empty@?$vector@PAVioWeapon@@V?$allocator@PAVioWeapon@@@std@@@std@@QBE_NXZ ; std::vector<ioWeapon *,std::allocator<ioWeapon *> >::empty
; Function compile flags: /Ogsp
;	COMDAT ?empty@?$vector@PAVioWeapon@@V?$allocator@PAVioWeapon@@@std@@@std@@QBE_NXZ
_TEXT	SEGMENT
?empty@?$vector@PAVioWeapon@@V?$allocator@PAVioWeapon@@@std@@@std@@QBE_NXZ PROC ; std::vector<ioWeapon *,std::allocator<ioWeapon *> >::empty, COMDAT
; _this$ = ecx

; 889  : 		return (this->_Myfirst == this->_Mylast);

  00000	8b 01		 mov	 eax, DWORD PTR [ecx]
  00002	2b 41 04	 sub	 eax, DWORD PTR [ecx+4]
  00005	f7 d8		 neg	 eax
  00007	1b c0		 sbb	 eax, eax
  00009	40		 inc	 eax

; 890  : 		}

  0000a	c3		 ret	 0
?empty@?$vector@PAVioWeapon@@V?$allocator@PAVioWeapon@@@std@@@std@@QBE_NXZ ENDP ; std::vector<ioWeapon *,std::allocator<ioWeapon *> >::empty
_TEXT	ENDS
PUBLIC	??A?$vector@PAVioWeapon@@V?$allocator@PAVioWeapon@@@std@@@std@@QAEAAPAVioWeapon@@I@Z ; std::vector<ioWeapon *,std::allocator<ioWeapon *> >::operator[]
; Function compile flags: /Ogsp
;	COMDAT ??A?$vector@PAVioWeapon@@V?$allocator@PAVioWeapon@@@std@@@std@@QAEAAPAVioWeapon@@I@Z
_TEXT	SEGMENT
__Pos$ = 8						; size = 4
??A?$vector@PAVioWeapon@@V?$allocator@PAVioWeapon@@@std@@@std@@QAEAAPAVioWeapon@@I@Z PROC ; std::vector<ioWeapon *,std::allocator<ioWeapon *> >::operator[], COMDAT
; _this$ = ecx

; 928  : 		{	// subscript mutable sequence

  00000	55		 push	 ebp
  00001	8b ec		 mov	 ebp, esp

; 929  :  #if _ITERATOR_DEBUG_LEVEL == 2
; 930  : 		if (size() <= _Pos)
; 931  : 			{	// report error
; 932  : 			_DEBUG_ERROR("vector subscript out of range");
; 933  : 			_SCL_SECURE_OUT_OF_RANGE;
; 934  : 			}
; 935  : 
; 936  :  #elif _ITERATOR_DEBUG_LEVEL == 1
; 937  : 		_SCL_SECURE_VALIDATE_RANGE(_Pos < size());
; 938  :  #endif /* _ITERATOR_DEBUG_LEVEL */
; 939  : 
; 940  : 		return (*(this->_Myfirst + _Pos));

  00003	8b 01		 mov	 eax, DWORD PTR [ecx]
  00005	8b 4d 08	 mov	 ecx, DWORD PTR __Pos$[ebp]
  00008	8d 04 88	 lea	 eax, DWORD PTR [eax+ecx*4]

; 941  : 		}

  0000b	5d		 pop	 ebp
  0000c	c2 04 00	 ret	 4
??A?$vector@PAVioWeapon@@V?$allocator@PAVioWeapon@@@std@@@std@@QAEAAPAVioWeapon@@I@Z ENDP ; std::vector<ioWeapon *,std::allocator<ioWeapon *> >::operator[]
_TEXT	ENDS
PUBLIC	?empty@?$list@UOutLineRecord@@V?$allocator@UOutLineRecord@@@std@@@std@@QBE_NXZ ; std::list<OutLineRecord,std::allocator<OutLineRecord> >::empty
; Function compile flags: /Ogsp
; File c:\program files (x86)\microsoft visual studio 10.0\vc\include\list
;	COMDAT ?empty@?$list@UOutLineRecord@@V?$allocator@UOutLineRecord@@@std@@@std@@QBE_NXZ
_TEXT	SEGMENT
?empty@?$list@UOutLineRecord@@V?$allocator@UOutLineRecord@@@std@@@std@@QBE_NXZ PROC ; std::list<OutLineRecord,std::allocator<OutLineRecord> >::empty, COMDAT
; _this$ = ecx

; 887  : 		return (this->_Mysize == 0);

  00000	33 c0		 xor	 eax, eax
  00002	39 41 04	 cmp	 DWORD PTR [ecx+4], eax
  00005	0f 94 c0	 sete	 al

; 888  : 		}

  00008	c3		 ret	 0
?empty@?$list@UOutLineRecord@@V?$allocator@UOutLineRecord@@@std@@@std@@QBE_NXZ ENDP ; std::list<OutLineRecord,std::allocator<OutLineRecord> >::empty
_TEXT	ENDS
PUBLIC	?size@?$vector@UCreatePushStructInfo@@V?$allocator@UCreatePushStructInfo@@@std@@@std@@QBEIXZ ; std::vector<CreatePushStructInfo,std::allocator<CreatePushStructInfo> >::size
; Function compile flags: /Ogsp
; File c:\program files (x86)\microsoft visual studio 10.0\vc\include\vector
;	COMDAT ?size@?$vector@UCreatePushStructInfo@@V?$allocator@UCreatePushStructInfo@@@std@@@std@@QBEIXZ
_TEXT	SEGMENT
?size@?$vector@UCreatePushStructInfo@@V?$allocator@UCreatePushStructInfo@@@std@@@std@@QBEIXZ PROC ; std::vector<CreatePushStructInfo,std::allocator<CreatePushStructInfo> >::size, COMDAT
; _this$ = ecx

; 879  : 		return (this->_Mylast - this->_Myfirst);

  00000	8b 41 04	 mov	 eax, DWORD PTR [ecx+4]
  00003	2b 01		 sub	 eax, DWORD PTR [ecx]
  00005	6a 14		 push	 20			; 00000014H
  00007	99		 cdq
  00008	59		 pop	 ecx
  00009	f7 f9		 idiv	 ecx

; 880  : 		}

  0000b	c3		 ret	 0
?size@?$vector@UCreatePushStructInfo@@V?$allocator@UCreatePushStructInfo@@@std@@@std@@QBEIXZ ENDP ; std::vector<CreatePushStructInfo,std::allocator<CreatePushStructInfo> >::size
_TEXT	ENDS
PUBLIC	??A?$vector@UCreatePushStructInfo@@V?$allocator@UCreatePushStructInfo@@@std@@@std@@QAEAAUCreatePushStructInfo@@I@Z ; std::vector<CreatePushStructInfo,std::allocator<CreatePushStructInfo> >::operator[]
; Function compile flags: /Ogsp
;	COMDAT ??A?$vector@UCreatePushStructInfo@@V?$allocator@UCreatePushStructInfo@@@std@@@std@@QAEAAUCreatePushStructInfo@@I@Z
_TEXT	SEGMENT
__Pos$ = 8						; size = 4
??A?$vector@UCreatePushStructInfo@@V?$allocator@UCreatePushStructInfo@@@std@@@std@@QAEAAUCreatePushStructInfo@@I@Z PROC ; std::vector<CreatePushStructInfo,std::allocator<CreatePushStructInfo> >::operator[], COMDAT
; _this$ = ecx

; 928  : 		{	// subscript mutable sequence

  00000	55		 push	 ebp
  00001	8b ec		 mov	 ebp, esp

; 929  :  #if _ITERATOR_DEBUG_LEVEL == 2
; 930  : 		if (size() <= _Pos)
; 931  : 			{	// report error
; 932  : 			_DEBUG_ERROR("vector subscript out of range");
; 933  : 			_SCL_SECURE_OUT_OF_RANGE;
; 934  : 			}
; 935  : 
; 936  :  #elif _ITERATOR_DEBUG_LEVEL == 1
; 937  : 		_SCL_SECURE_VALIDATE_RANGE(_Pos < size());
; 938  :  #endif /* _ITERATOR_DEBUG_LEVEL */
; 939  : 
; 940  : 		return (*(this->_Myfirst + _Pos));

  00003	8b 45 08	 mov	 eax, DWORD PTR __Pos$[ebp]
  00006	6b c0 14	 imul	 eax, 20			; 00000014H
  00009	03 01		 add	 eax, DWORD PTR [ecx]

; 941  : 		}

  0000b	5d		 pop	 ebp
  0000c	c2 04 00	 ret	 4
??A?$vector@UCreatePushStructInfo@@V?$allocator@UCreatePushStructInfo@@@std@@@std@@QAEAAUCreatePushStructInfo@@I@Z ENDP ; std::vector<CreatePushStructInfo,std::allocator<CreatePushStructInfo> >::operator[]
_TEXT	ENDS
PUBLIC	?size@?$vector@UWeaponFireInfo@@V?$allocator@UWeaponFireInfo@@@std@@@std@@QBEIXZ ; std::vector<WeaponFireInfo,std::allocator<WeaponFireInfo> >::size
; Function compile flags: /Ogsp
;	COMDAT ?size@?$vector@UWeaponFireInfo@@V?$allocator@UWeaponFireInfo@@@std@@@std@@QBEIXZ
_TEXT	SEGMENT
?size@?$vector@UWeaponFireInfo@@V?$allocator@UWeaponFireInfo@@@std@@@std@@QBEIXZ PROC ; std::vector<WeaponFireInfo,std::allocator<WeaponFireInfo> >::size, COMDAT
; _this$ = ecx

; 879  : 		return (this->_Mylast - this->_Myfirst);

  00000	8b 41 04	 mov	 eax, DWORD PTR [ecx+4]
  00003	2b 01		 sub	 eax, DWORD PTR [ecx]
  00005	6a 30		 push	 48			; 00000030H
  00007	99		 cdq
  00008	59		 pop	 ecx
  00009	f7 f9		 idiv	 ecx

; 880  : 		}

  0000b	c3		 ret	 0
?size@?$vector@UWeaponFireInfo@@V?$allocator@UWeaponFireInfo@@@std@@@std@@QBEIXZ ENDP ; std::vector<WeaponFireInfo,std::allocator<WeaponFireInfo> >::size
_TEXT	ENDS
PUBLIC	??A?$vector@UWeaponFireInfo@@V?$allocator@UWeaponFireInfo@@@std@@@std@@QAEAAUWeaponFireInfo@@I@Z ; std::vector<WeaponFireInfo,std::allocator<WeaponFireInfo> >::operator[]
; Function compile flags: /Ogsp
;	COMDAT ??A?$vector@UWeaponFireInfo@@V?$allocator@UWeaponFireInfo@@@std@@@std@@QAEAAUWeaponFireInfo@@I@Z
_TEXT	SEGMENT
__Pos$ = 8						; size = 4
??A?$vector@UWeaponFireInfo@@V?$allocator@UWeaponFireInfo@@@std@@@std@@QAEAAUWeaponFireInfo@@I@Z PROC ; std::vector<WeaponFireInfo,std::allocator<WeaponFireInfo> >::operator[], COMDAT
; _this$ = ecx

; 928  : 		{	// subscript mutable sequence

  00000	55		 push	 ebp
  00001	8b ec		 mov	 ebp, esp

; 929  :  #if _ITERATOR_DEBUG_LEVEL == 2
; 930  : 		if (size() <= _Pos)
; 931  : 			{	// report error
; 932  : 			_DEBUG_ERROR("vector subscript out of range");
; 933  : 			_SCL_SECURE_OUT_OF_RANGE;
; 934  : 			}
; 935  : 
; 936  :  #elif _ITERATOR_DEBUG_LEVEL == 1
; 937  : 		_SCL_SECURE_VALIDATE_RANGE(_Pos < size());
; 938  :  #endif /* _ITERATOR_DEBUG_LEVEL */
; 939  : 
; 940  : 		return (*(this->_Myfirst + _Pos));

  00003	8b 45 08	 mov	 eax, DWORD PTR __Pos$[ebp]
  00006	6b c0 30	 imul	 eax, 48			; 00000030H
  00009	03 01		 add	 eax, DWORD PTR [ecx]

; 941  : 		}

  0000b	5d		 pop	 ebp
  0000c	c2 04 00	 ret	 4
??A?$vector@UWeaponFireInfo@@V?$allocator@UWeaponFireInfo@@@std@@@std@@QAEAAUWeaponFireInfo@@I@Z ENDP ; std::vector<WeaponFireInfo,std::allocator<WeaponFireInfo> >::operator[]
_TEXT	ENDS
PUBLIC	??0?$_Vector_const_iterator@V?$_Vector_val@PAVioBaseChar@@V?$allocator@PAVioBaseChar@@@std@@@std@@@std@@QAE@XZ ; std::_Vector_const_iterator<std::_Vector_val<ioBaseChar *,std::allocator<ioBaseChar *> > >::_Vector_const_iterator<std::_Vector_val<ioBaseChar *,std::allocator<ioBaseChar *> > >
; Function compile flags: /Ogsp
;	COMDAT ??0?$_Vector_const_iterator@V?$_Vector_val@PAVioBaseChar@@V?$allocator@PAVioBaseChar@@@std@@@std@@@std@@QAE@XZ
_TEXT	SEGMENT
??0?$_Vector_const_iterator@V?$_Vector_val@PAVioBaseChar@@V?$allocator@PAVioBaseChar@@@std@@@std@@@std@@QAE@XZ PROC ; std::_Vector_const_iterator<std::_Vector_val<ioBaseChar *,std::allocator<ioBaseChar *> > >::_Vector_const_iterator<std::_Vector_val<ioBaseChar *,std::allocator<ioBaseChar *> > >, COMDAT
; _this$ = ecx

; 40   : 		{	// construct with null pointer

  00000	8b c1		 mov	 eax, ecx
  00002	83 20 00	 and	 DWORD PTR [eax], 0

; 41   : 		}

  00005	c3		 ret	 0
??0?$_Vector_const_iterator@V?$_Vector_val@PAVioBaseChar@@V?$allocator@PAVioBaseChar@@@std@@@std@@@std@@QAE@XZ ENDP ; std::_Vector_const_iterator<std::_Vector_val<ioBaseChar *,std::allocator<ioBaseChar *> > >::_Vector_const_iterator<std::_Vector_val<ioBaseChar *,std::allocator<ioBaseChar *> > >
_TEXT	ENDS
PUBLIC	??D?$_Vector_const_iterator@V?$_Vector_val@PAVioBaseChar@@V?$allocator@PAVioBaseChar@@@std@@@std@@@std@@QBEABQAVioBaseChar@@XZ ; std::_Vector_const_iterator<std::_Vector_val<ioBaseChar *,std::allocator<ioBaseChar *> > >::operator*
; Function compile flags: /Ogsp
;	COMDAT ??D?$_Vector_const_iterator@V?$_Vector_val@PAVioBaseChar@@V?$allocator@PAVioBaseChar@@@std@@@std@@@std@@QBEABQAVioBaseChar@@XZ
_TEXT	SEGMENT
??D?$_Vector_const_iterator@V?$_Vector_val@PAVioBaseChar@@V?$allocator@PAVioBaseChar@@@std@@@std@@@std@@QBEABQAVioBaseChar@@XZ PROC ; std::_Vector_const_iterator<std::_Vector_val<ioBaseChar *,std::allocator<ioBaseChar *> > >::operator*, COMDAT
; _this$ = ecx

; 64   :  #if _ITERATOR_DEBUG_LEVEL == 2
; 65   : 		if (this->_Getcont() == 0
; 66   : 			|| this->_Ptr == 0
; 67   : 			|| this->_Ptr < ((_Myvec *)this->_Getcont())->_Myfirst
; 68   : 			|| ((_Myvec *)this->_Getcont())->_Mylast <= this->_Ptr)
; 69   : 			{	// report error
; 70   : 			_DEBUG_ERROR("vector iterator not dereferencable");
; 71   : 			_SCL_SECURE_OUT_OF_RANGE;
; 72   : 			}
; 73   : 
; 74   :  #elif _ITERATOR_DEBUG_LEVEL == 1
; 75   : 		_SCL_SECURE_VALIDATE(this->_Getcont() != 0);
; 76   : 		_SCL_SECURE_VALIDATE_RANGE(
; 77   : 			this->_Ptr != 0
; 78   : 			&& ((_Myvec *)this->_Getcont())->_Myfirst <= this->_Ptr
; 79   : 			&& this->_Ptr < ((_Myvec *)this->_Getcont())->_Mylast);
; 80   :  #endif /* _ITERATOR_DEBUG_LEVEL */
; 81   : 
; 82   : 		__analysis_assume(this->_Ptr != 0);
; 83   : 
; 84   : 		return (*this->_Ptr);

  00000	8b 01		 mov	 eax, DWORD PTR [ecx]

; 85   : 		}

  00002	c3		 ret	 0
??D?$_Vector_const_iterator@V?$_Vector_val@PAVioBaseChar@@V?$allocator@PAVioBaseChar@@@std@@@std@@@std@@QBEABQAVioBaseChar@@XZ ENDP ; std::_Vector_const_iterator<std::_Vector_val<ioBaseChar *,std::allocator<ioBaseChar *> > >::operator*
_TEXT	ENDS
PUBLIC	??E?$_Vector_const_iterator@V?$_Vector_val@PAVioBaseChar@@V?$allocator@PAVioBaseChar@@@std@@@std@@@std@@QAEAAV01@XZ ; std::_Vector_const_iterator<std::_Vector_val<ioBaseChar *,std::allocator<ioBaseChar *> > >::operator++
; Function compile flags: /Ogsp
;	COMDAT ??E?$_Vector_const_iterator@V?$_Vector_val@PAVioBaseChar@@V?$allocator@PAVioBaseChar@@@std@@@std@@@std@@QAEAAV01@XZ
_TEXT	SEGMENT
??E?$_Vector_const_iterator@V?$_Vector_val@PAVioBaseChar@@V?$allocator@PAVioBaseChar@@@std@@@std@@@std@@QAEAAV01@XZ PROC ; std::_Vector_const_iterator<std::_Vector_val<ioBaseChar *,std::allocator<ioBaseChar *> > >::operator++, COMDAT
; _this$ = ecx

; 93   : 		{	// preincrement

  00000	8b c1		 mov	 eax, ecx

; 94   :  #if _ITERATOR_DEBUG_LEVEL == 2
; 95   : 		if (this->_Getcont() == 0
; 96   : 			|| this->_Ptr == 0
; 97   : 			|| ((_Myvec *)this->_Getcont())->_Mylast <= this->_Ptr)
; 98   : 			{	// report error
; 99   : 			_DEBUG_ERROR("vector iterator not incrementable");
; 100  : 			_SCL_SECURE_OUT_OF_RANGE;
; 101  : 			}
; 102  : 
; 103  :  #elif _ITERATOR_DEBUG_LEVEL == 1
; 104  : 		_SCL_SECURE_VALIDATE(this->_Getcont() != 0);
; 105  : 		_SCL_SECURE_VALIDATE_RANGE(
; 106  : 			this->_Ptr != 0
; 107  : 			&& this->_Ptr < ((_Myvec *)this->_Getcont())->_Mylast);
; 108  :  #endif /* _ITERATOR_DEBUG_LEVEL */
; 109  : 
; 110  : 		++this->_Ptr;

  00002	83 00 04	 add	 DWORD PTR [eax], 4

; 111  : 		return (*this);
; 112  : 		}

  00005	c3		 ret	 0
??E?$_Vector_const_iterator@V?$_Vector_val@PAVioBaseChar@@V?$allocator@PAVioBaseChar@@@std@@@std@@@std@@QAEAAV01@XZ ENDP ; std::_Vector_const_iterator<std::_Vector_val<ioBaseChar *,std::allocator<ioBaseChar *> > >::operator++
_TEXT	ENDS
PUBLIC	?empty@?$vector@PBUAniEventTime@@V?$allocator@PBUAniEventTime@@@std@@@std@@QBE_NXZ ; std::vector<AniEventTime const *,std::allocator<AniEventTime const *> >::empty
; Function compile flags: /Ogsp
;	COMDAT ?empty@?$vector@PBUAniEventTime@@V?$allocator@PBUAniEventTime@@@std@@@std@@QBE_NXZ
_TEXT	SEGMENT
?empty@?$vector@PBUAniEventTime@@V?$allocator@PBUAniEventTime@@@std@@@std@@QBE_NXZ PROC ; std::vector<AniEventTime const *,std::allocator<AniEventTime const *> >::empty, COMDAT
; _this$ = ecx

; 889  : 		return (this->_Myfirst == this->_Mylast);

  00000	8b 01		 mov	 eax, DWORD PTR [ecx]
  00002	2b 41 04	 sub	 eax, DWORD PTR [ecx+4]
  00005	f7 d8		 neg	 eax
  00007	1b c0		 sbb	 eax, eax
  00009	40		 inc	 eax

; 890  : 		}

  0000a	c3		 ret	 0
?empty@?$vector@PBUAniEventTime@@V?$allocator@PBUAniEventTime@@@std@@@std@@QBE_NXZ ENDP ; std::vector<AniEventTime const *,std::allocator<AniEventTime const *> >::empty
_TEXT	ENDS
PUBLIC	?capacity@?$vector@VioHashString@@V?$allocator@VioHashString@@@std@@@std@@QBEIXZ ; std::vector<ioHashString,std::allocator<ioHashString> >::capacity
; Function compile flags: /Ogsp
;	COMDAT ?capacity@?$vector@VioHashString@@V?$allocator@VioHashString@@@std@@@std@@QBEIXZ
_TEXT	SEGMENT
?capacity@?$vector@VioHashString@@V?$allocator@VioHashString@@@std@@@std@@QBEIXZ PROC ; std::vector<ioHashString,std::allocator<ioHashString> >::capacity, COMDAT
; _this$ = ecx

; 777  : 		return (this->_Myend - this->_Myfirst);

  00000	8b 41 08	 mov	 eax, DWORD PTR [ecx+8]
  00003	2b 01		 sub	 eax, DWORD PTR [ecx]
  00005	c1 f8 04	 sar	 eax, 4

; 778  : 		}

  00008	c3		 ret	 0
?capacity@?$vector@VioHashString@@V?$allocator@VioHashString@@@std@@@std@@QBEIXZ ENDP ; std::vector<ioHashString,std::allocator<ioHashString> >::capacity
_TEXT	ENDS
PUBLIC	?_Inside@?$vector@VioHashString@@V?$allocator@VioHashString@@@std@@@std@@IBE_NPBVioHashString@@@Z ; std::vector<ioHashString,std::allocator<ioHashString> >::_Inside
; Function compile flags: /Ogsp
;	COMDAT ?_Inside@?$vector@VioHashString@@V?$allocator@VioHashString@@@std@@@std@@IBE_NPBVioHashString@@@Z
_TEXT	SEGMENT
__Ptr$ = 8						; size = 4
?_Inside@?$vector@VioHashString@@V?$allocator@VioHashString@@@std@@@std@@IBE_NPBVioHashString@@@Z PROC ; std::vector<ioHashString,std::allocator<ioHashString> >::_Inside, COMDAT
; _this$ = ecx

; 1285 : 		{	// test if _Ptr points inside vector

  00000	55		 push	 ebp
  00001	8b ec		 mov	 ebp, esp

; 1286 : 		return (_Ptr < this->_Mylast && this->_Myfirst <= _Ptr);

  00003	8b 45 08	 mov	 eax, DWORD PTR __Ptr$[ebp]
  00006	3b 41 04	 cmp	 eax, DWORD PTR [ecx+4]
  00009	73 09		 jae	 SHORT $LN3@Inside
  0000b	39 01		 cmp	 DWORD PTR [ecx], eax
  0000d	77 05		 ja	 SHORT $LN3@Inside
  0000f	33 c0		 xor	 eax, eax
  00011	40		 inc	 eax
  00012	eb 02		 jmp	 SHORT $LN4@Inside
$LN3@Inside:
  00014	33 c0		 xor	 eax, eax
$LN4@Inside:

; 1287 : 		}

  00016	5d		 pop	 ebp
  00017	c2 04 00	 ret	 4
?_Inside@?$vector@VioHashString@@V?$allocator@VioHashString@@@std@@@std@@IBE_NPBVioHashString@@@Z ENDP ; std::vector<ioHashString,std::allocator<ioHashString> >::_Inside
_TEXT	ENDS
PUBLIC	?_Orphan_range@?$vector@VioHashString@@V?$allocator@VioHashString@@@std@@@std@@IBEXPAVioHashString@@0@Z ; std::vector<ioHashString,std::allocator<ioHashString> >::_Orphan_range
; Function compile flags: /Ogsp
;	COMDAT ?_Orphan_range@?$vector@VioHashString@@V?$allocator@VioHashString@@@std@@@std@@IBEXPAVioHashString@@0@Z
_TEXT	SEGMENT
___formal$ = 8						; size = 4
___formal$ = 12						; size = 4
?_Orphan_range@?$vector@VioHashString@@V?$allocator@VioHashString@@@std@@@std@@IBEXPAVioHashString@@0@Z PROC ; std::vector<ioHashString,std::allocator<ioHashString> >::_Orphan_range, COMDAT
; _this$ = ecx

; 1454 : 		}

  00000	c2 08 00	 ret	 8
?_Orphan_range@?$vector@VioHashString@@V?$allocator@VioHashString@@@std@@@std@@IBEXPAVioHashString@@0@Z ENDP ; std::vector<ioHashString,std::allocator<ioHashString> >::_Orphan_range
_TEXT	ENDS
PUBLIC	?_Inside@?$vector@HV?$allocator@H@std@@@std@@IBE_NPBH@Z ; std::vector<int,std::allocator<int> >::_Inside
; Function compile flags: /Ogsp
;	COMDAT ?_Inside@?$vector@HV?$allocator@H@std@@@std@@IBE_NPBH@Z
_TEXT	SEGMENT
__Ptr$ = 8						; size = 4
?_Inside@?$vector@HV?$allocator@H@std@@@std@@IBE_NPBH@Z PROC ; std::vector<int,std::allocator<int> >::_Inside, COMDAT
; _this$ = ecx

; 1285 : 		{	// test if _Ptr points inside vector

  00000	55		 push	 ebp
  00001	8b ec		 mov	 ebp, esp

; 1286 : 		return (_Ptr < this->_Mylast && this->_Myfirst <= _Ptr);

  00003	8b 45 08	 mov	 eax, DWORD PTR __Ptr$[ebp]
  00006	3b 41 04	 cmp	 eax, DWORD PTR [ecx+4]
  00009	73 09		 jae	 SHORT $LN3@Inside@2
  0000b	39 01		 cmp	 DWORD PTR [ecx], eax
  0000d	77 05		 ja	 SHORT $LN3@Inside@2
  0000f	33 c0		 xor	 eax, eax
  00011	40		 inc	 eax
  00012	eb 02		 jmp	 SHORT $LN4@Inside@2
$LN3@Inside@2:
  00014	33 c0		 xor	 eax, eax
$LN4@Inside@2:

; 1287 : 		}

  00016	5d		 pop	 ebp
  00017	c2 04 00	 ret	 4
?_Inside@?$vector@HV?$allocator@H@std@@@std@@IBE_NPBH@Z ENDP ; std::vector<int,std::allocator<int> >::_Inside
_TEXT	ENDS
PUBLIC	?_Orphan_range@?$vector@HV?$allocator@H@std@@@std@@IBEXPAH0@Z ; std::vector<int,std::allocator<int> >::_Orphan_range
; Function compile flags: /Ogsp
;	COMDAT ?_Orphan_range@?$vector@HV?$allocator@H@std@@@std@@IBEXPAH0@Z
_TEXT	SEGMENT
___formal$ = 8						; size = 4
___formal$ = 12						; size = 4
?_Orphan_range@?$vector@HV?$allocator@H@std@@@std@@IBEXPAH0@Z PROC ; std::vector<int,std::allocator<int> >::_Orphan_range, COMDAT
; _this$ = ecx

; 1454 : 		}

  00000	c2 08 00	 ret	 8
?_Orphan_range@?$vector@HV?$allocator@H@std@@@std@@IBEXPAH0@Z ENDP ; std::vector<int,std::allocator<int> >::_Orphan_range
_TEXT	ENDS
PUBLIC	??1?$_Vector_val@PAVioGameEntity@@V?$allocator@PAVioGameEntity@@@std@@@std@@QAE@XZ ; std::_Vector_val<ioGameEntity *,std::allocator<ioGameEntity *> >::~_Vector_val<ioGameEntity *,std::allocator<ioGameEntity *> >
; Function compile flags: /Ogsp
;	COMDAT ??1?$_Vector_val@PAVioGameEntity@@V?$allocator@PAVioGameEntity@@@std@@@std@@QAE@XZ
_TEXT	SEGMENT
??1?$_Vector_val@PAVioGameEntity@@V?$allocator@PAVioGameEntity@@@std@@@std@@QAE@XZ PROC ; std::_Vector_val<ioGameEntity *,std::allocator<ioGameEntity *> >::~_Vector_val<ioGameEntity *,std::allocator<ioGameEntity *> >, COMDAT
; _this$ = ecx

; 434  : 		}

  00000	c3		 ret	 0
??1?$_Vector_val@PAVioGameEntity@@V?$allocator@PAVioGameEntity@@@std@@@std@@QAE@XZ ENDP ; std::_Vector_val<ioGameEntity *,std::allocator<ioGameEntity *> >::~_Vector_val<ioGameEntity *,std::allocator<ioGameEntity *> >
_TEXT	ENDS
PUBLIC	??0?$allocator@PAVioGameEntity@@@std@@QAE@XZ	; std::allocator<ioGameEntity *>::allocator<ioGameEntity *>
; Function compile flags: /Ogsp
; File c:\program files (x86)\microsoft visual studio 10.0\vc\include\xmemory
;	COMDAT ??0?$allocator@PAVioGameEntity@@@std@@QAE@XZ
_TEXT	SEGMENT
??0?$allocator@PAVioGameEntity@@@std@@QAE@XZ PROC	; std::allocator<ioGameEntity *>::allocator<ioGameEntity *>, COMDAT
; _this$ = ecx

; 161  : 	_ALLOCATOR() _THROW0()

  00000	8b c1		 mov	 eax, ecx

; 162  : 		{	// construct default allocator (do nothing)
; 163  : 		}

  00002	c3		 ret	 0
??0?$allocator@PAVioGameEntity@@@std@@QAE@XZ ENDP	; std::allocator<ioGameEntity *>::allocator<ioGameEntity *>
_TEXT	ENDS
PUBLIC	??1?$_Vector_val@PAVioWeapon@@V?$allocator@PAVioWeapon@@@std@@@std@@QAE@XZ ; std::_Vector_val<ioWeapon *,std::allocator<ioWeapon *> >::~_Vector_val<ioWeapon *,std::allocator<ioWeapon *> >
; Function compile flags: /Ogsp
; File c:\program files (x86)\microsoft visual studio 10.0\vc\include\vector
;	COMDAT ??1?$_Vector_val@PAVioWeapon@@V?$allocator@PAVioWeapon@@@std@@@std@@QAE@XZ
_TEXT	SEGMENT
??1?$_Vector_val@PAVioWeapon@@V?$allocator@PAVioWeapon@@@std@@@std@@QAE@XZ PROC ; std::_Vector_val<ioWeapon *,std::allocator<ioWeapon *> >::~_Vector_val<ioWeapon *,std::allocator<ioWeapon *> >, COMDAT
; _this$ = ecx

; 434  : 		}

  00000	c3		 ret	 0
??1?$_Vector_val@PAVioWeapon@@V?$allocator@PAVioWeapon@@@std@@@std@@QAE@XZ ENDP ; std::_Vector_val<ioWeapon *,std::allocator<ioWeapon *> >::~_Vector_val<ioWeapon *,std::allocator<ioWeapon *> >
_TEXT	ENDS
PUBLIC	??0?$allocator@PAVioWeapon@@@std@@QAE@XZ	; std::allocator<ioWeapon *>::allocator<ioWeapon *>
; Function compile flags: /Ogsp
; File c:\program files (x86)\microsoft visual studio 10.0\vc\include\xmemory
;	COMDAT ??0?$allocator@PAVioWeapon@@@std@@QAE@XZ
_TEXT	SEGMENT
??0?$allocator@PAVioWeapon@@@std@@QAE@XZ PROC		; std::allocator<ioWeapon *>::allocator<ioWeapon *>, COMDAT
; _this$ = ecx

; 161  : 	_ALLOCATOR() _THROW0()

  00000	8b c1		 mov	 eax, ecx

; 162  : 		{	// construct default allocator (do nothing)
; 163  : 		}

  00002	c3		 ret	 0
??0?$allocator@PAVioWeapon@@@std@@QAE@XZ ENDP		; std::allocator<ioWeapon *>::allocator<ioWeapon *>
_TEXT	ENDS
PUBLIC	?_Nextnode@?$_List_val@MV?$allocator@M@std@@@std@@SAAAPAU_Node@?$_List_nod@MV?$allocator@M@std@@@2@PAU342@@Z ; std::_List_val<float,std::allocator<float> >::_Nextnode
; Function compile flags: /Ogsp
; File c:\program files (x86)\microsoft visual studio 10.0\vc\include\list
;	COMDAT ?_Nextnode@?$_List_val@MV?$allocator@M@std@@@std@@SAAAPAU_Node@?$_List_nod@MV?$allocator@M@std@@@2@PAU342@@Z
_TEXT	SEGMENT
__Pnode$ = 8						; size = 4
?_Nextnode@?$_List_val@MV?$allocator@M@std@@@std@@SAAAPAU_Node@?$_List_nod@MV?$allocator@M@std@@@2@PAU342@@Z PROC ; std::_List_val<float,std::allocator<float> >::_Nextnode, COMDAT

; 560  : 		{	// return reference to successor pointer in node

  00000	55		 push	 ebp
  00001	8b ec		 mov	 ebp, esp

; 561  : 		return ((_Nodepref)(*_Pnode)._Next);

  00003	8b 45 08	 mov	 eax, DWORD PTR __Pnode$[ebp]

; 562  : 		}

  00006	5d		 pop	 ebp
  00007	c3		 ret	 0
?_Nextnode@?$_List_val@MV?$allocator@M@std@@@std@@SAAAPAU_Node@?$_List_nod@MV?$allocator@M@std@@@2@PAU342@@Z ENDP ; std::_List_val<float,std::allocator<float> >::_Nextnode
_TEXT	ENDS
PUBLIC	?_Nextnode@?$_List_val@UOutLineRecord@@V?$allocator@UOutLineRecord@@@std@@@std@@SAAAPAU_Node@?$_List_nod@UOutLineRecord@@V?$allocator@UOutLineRecord@@@std@@@2@PAU342@@Z ; std::_List_val<OutLineRecord,std::allocator<OutLineRecord> >::_Nextnode
; Function compile flags: /Ogsp
;	COMDAT ?_Nextnode@?$_List_val@UOutLineRecord@@V?$allocator@UOutLineRecord@@@std@@@std@@SAAAPAU_Node@?$_List_nod@UOutLineRecord@@V?$allocator@UOutLineRecord@@@std@@@2@PAU342@@Z
_TEXT	SEGMENT
__Pnode$ = 8						; size = 4
?_Nextnode@?$_List_val@UOutLineRecord@@V?$allocator@UOutLineRecord@@@std@@@std@@SAAAPAU_Node@?$_List_nod@UOutLineRecord@@V?$allocator@UOutLineRecord@@@std@@@2@PAU342@@Z PROC ; std::_List_val<OutLineRecord,std::allocator<OutLineRecord> >::_Nextnode, COMDAT

; 560  : 		{	// return reference to successor pointer in node

  00000	55		 push	 ebp
  00001	8b ec		 mov	 ebp, esp

; 561  : 		return ((_Nodepref)(*_Pnode)._Next);

  00003	8b 45 08	 mov	 eax, DWORD PTR __Pnode$[ebp]

; 562  : 		}

  00006	5d		 pop	 ebp
  00007	c3		 ret	 0
?_Nextnode@?$_List_val@UOutLineRecord@@V?$allocator@UOutLineRecord@@@std@@@std@@SAAAPAU_Node@?$_List_nod@UOutLineRecord@@V?$allocator@UOutLineRecord@@@std@@@2@PAU342@@Z ENDP ; std::_List_val<OutLineRecord,std::allocator<OutLineRecord> >::_Nextnode
_TEXT	ENDS
PUBLIC	?_Prevnode@?$_List_val@UOutLineRecord@@V?$allocator@UOutLineRecord@@@std@@@std@@SAAAPAU_Node@?$_List_nod@UOutLineRecord@@V?$allocator@UOutLineRecord@@@std@@@2@PAU342@@Z ; std::_List_val<OutLineRecord,std::allocator<OutLineRecord> >::_Prevnode
; Function compile flags: /Ogsp
;	COMDAT ?_Prevnode@?$_List_val@UOutLineRecord@@V?$allocator@UOutLineRecord@@@std@@@std@@SAAAPAU_Node@?$_List_nod@UOutLineRecord@@V?$allocator@UOutLineRecord@@@std@@@2@PAU342@@Z
_TEXT	SEGMENT
__Pnode$ = 8						; size = 4
?_Prevnode@?$_List_val@UOutLineRecord@@V?$allocator@UOutLineRecord@@@std@@@std@@SAAAPAU_Node@?$_List_nod@UOutLineRecord@@V?$allocator@UOutLineRecord@@@std@@@2@PAU342@@Z PROC ; std::_List_val<OutLineRecord,std::allocator<OutLineRecord> >::_Prevnode, COMDAT

; 565  : 		{	// return reference to predecessor pointer in node

  00000	55		 push	 ebp
  00001	8b ec		 mov	 ebp, esp

; 566  : 		return ((_Nodepref)(*_Pnode)._Prev);

  00003	8b 45 08	 mov	 eax, DWORD PTR __Pnode$[ebp]
  00006	83 c0 04	 add	 eax, 4

; 567  : 		}

  00009	5d		 pop	 ebp
  0000a	c3		 ret	 0
?_Prevnode@?$_List_val@UOutLineRecord@@V?$allocator@UOutLineRecord@@@std@@@std@@SAAAPAU_Node@?$_List_nod@UOutLineRecord@@V?$allocator@UOutLineRecord@@@std@@@2@PAU342@@Z ENDP ; std::_List_val<OutLineRecord,std::allocator<OutLineRecord> >::_Prevnode
_TEXT	ENDS
PUBLIC	??0?$allocator@UOutLineRecord@@@std@@QAE@XZ	; std::allocator<OutLineRecord>::allocator<OutLineRecord>
; Function compile flags: /Ogsp
; File c:\program files (x86)\microsoft visual studio 10.0\vc\include\xmemory
;	COMDAT ??0?$allocator@UOutLineRecord@@@std@@QAE@XZ
_TEXT	SEGMENT
??0?$allocator@UOutLineRecord@@@std@@QAE@XZ PROC	; std::allocator<OutLineRecord>::allocator<OutLineRecord>, COMDAT
; _this$ = ecx

; 161  : 	_ALLOCATOR() _THROW0()

  00000	8b c1		 mov	 eax, ecx

; 162  : 		{	// construct default allocator (do nothing)
; 163  : 		}

  00002	c3		 ret	 0
??0?$allocator@UOutLineRecord@@@std@@QAE@XZ ENDP	; std::allocator<OutLineRecord>::allocator<OutLineRecord>
_TEXT	ENDS
PUBLIC	?deallocate@?$allocator@U_Node@?$_List_nod@UOutLineRecord@@V?$allocator@UOutLineRecord@@@std@@@std@@@std@@QAEXPAU_Node@?$_List_nod@UOutLineRecord@@V?$allocator@UOutLineRecord@@@std@@@2@I@Z ; std::allocator<std::_List_nod<OutLineRecord,std::allocator<OutLineRecord> >::_Node>::deallocate
; Function compile flags: /Ogsp
;	COMDAT ?deallocate@?$allocator@U_Node@?$_List_nod@UOutLineRecord@@V?$allocator@UOutLineRecord@@@std@@@std@@@std@@QAEXPAU_Node@?$_List_nod@UOutLineRecord@@V?$allocator@UOutLineRecord@@@std@@@2@I@Z
_TEXT	SEGMENT
__Ptr$ = 8						; size = 4
___formal$ = 12						; size = 4
?deallocate@?$allocator@U_Node@?$_List_nod@UOutLineRecord@@V?$allocator@UOutLineRecord@@@std@@@std@@@std@@QAEXPAU_Node@?$_List_nod@UOutLineRecord@@V?$allocator@UOutLineRecord@@@std@@@2@I@Z PROC ; std::allocator<std::_List_nod<OutLineRecord,std::allocator<OutLineRecord> >::_Node>::deallocate, COMDAT
; _this$ = ecx

; 181  : 		{	// deallocate object at _Ptr, ignore size

  00000	55		 push	 ebp
  00001	8b ec		 mov	 ebp, esp

; 182  : 		::operator delete(_Ptr);

  00003	ff 75 08	 push	 DWORD PTR __Ptr$[ebp]
  00006	e8 00 00 00 00	 call	 ??3@YAXPAX@Z		; operator delete
  0000b	59		 pop	 ecx

; 183  : 		}

  0000c	5d		 pop	 ebp
  0000d	c2 08 00	 ret	 8
?deallocate@?$allocator@U_Node@?$_List_nod@UOutLineRecord@@V?$allocator@UOutLineRecord@@@std@@@std@@@std@@QAEXPAU_Node@?$_List_nod@UOutLineRecord@@V?$allocator@UOutLineRecord@@@std@@@2@I@Z ENDP ; std::allocator<std::_List_nod<OutLineRecord,std::allocator<OutLineRecord> >::_Node>::deallocate
_TEXT	ENDS
PUBLIC	?capacity@?$vector@UCreatePushStructInfo@@V?$allocator@UCreatePushStructInfo@@@std@@@std@@QBEIXZ ; std::vector<CreatePushStructInfo,std::allocator<CreatePushStructInfo> >::capacity
; Function compile flags: /Ogsp
; File c:\program files (x86)\microsoft visual studio 10.0\vc\include\vector
;	COMDAT ?capacity@?$vector@UCreatePushStructInfo@@V?$allocator@UCreatePushStructInfo@@@std@@@std@@QBEIXZ
_TEXT	SEGMENT
?capacity@?$vector@UCreatePushStructInfo@@V?$allocator@UCreatePushStructInfo@@@std@@@std@@QBEIXZ PROC ; std::vector<CreatePushStructInfo,std::allocator<CreatePushStructInfo> >::capacity, COMDAT
; _this$ = ecx

; 777  : 		return (this->_Myend - this->_Myfirst);

  00000	8b 41 08	 mov	 eax, DWORD PTR [ecx+8]
  00003	2b 01		 sub	 eax, DWORD PTR [ecx]
  00005	6a 14		 push	 20			; 00000014H
  00007	99		 cdq
  00008	59		 pop	 ecx
  00009	f7 f9		 idiv	 ecx

; 778  : 		}

  0000b	c3		 ret	 0
?capacity@?$vector@UCreatePushStructInfo@@V?$allocator@UCreatePushStructInfo@@@std@@@std@@QBEIXZ ENDP ; std::vector<CreatePushStructInfo,std::allocator<CreatePushStructInfo> >::capacity
_TEXT	ENDS
PUBLIC	?_Inside@?$vector@UCreatePushStructInfo@@V?$allocator@UCreatePushStructInfo@@@std@@@std@@IBE_NPBUCreatePushStructInfo@@@Z ; std::vector<CreatePushStructInfo,std::allocator<CreatePushStructInfo> >::_Inside
; Function compile flags: /Ogsp
;	COMDAT ?_Inside@?$vector@UCreatePushStructInfo@@V?$allocator@UCreatePushStructInfo@@@std@@@std@@IBE_NPBUCreatePushStructInfo@@@Z
_TEXT	SEGMENT
__Ptr$ = 8						; size = 4
?_Inside@?$vector@UCreatePushStructInfo@@V?$allocator@UCreatePushStructInfo@@@std@@@std@@IBE_NPBUCreatePushStructInfo@@@Z PROC ; std::vector<CreatePushStructInfo,std::allocator<CreatePushStructInfo> >::_Inside, COMDAT
; _this$ = ecx

; 1285 : 		{	// test if _Ptr points inside vector

  00000	55		 push	 ebp
  00001	8b ec		 mov	 ebp, esp

; 1286 : 		return (_Ptr < this->_Mylast && this->_Myfirst <= _Ptr);

  00003	8b 45 08	 mov	 eax, DWORD PTR __Ptr$[ebp]
  00006	3b 41 04	 cmp	 eax, DWORD PTR [ecx+4]
  00009	73 09		 jae	 SHORT $LN3@Inside@3
  0000b	39 01		 cmp	 DWORD PTR [ecx], eax
  0000d	77 05		 ja	 SHORT $LN3@Inside@3
  0000f	33 c0		 xor	 eax, eax
  00011	40		 inc	 eax
  00012	eb 02		 jmp	 SHORT $LN4@Inside@3
$LN3@Inside@3:
  00014	33 c0		 xor	 eax, eax
$LN4@Inside@3:

; 1287 : 		}

  00016	5d		 pop	 ebp
  00017	c2 04 00	 ret	 4
?_Inside@?$vector@UCreatePushStructInfo@@V?$allocator@UCreatePushStructInfo@@@std@@@std@@IBE_NPBUCreatePushStructInfo@@@Z ENDP ; std::vector<CreatePushStructInfo,std::allocator<CreatePushStructInfo> >::_Inside
_TEXT	ENDS
PUBLIC	??_C@_0BD@OLBABOEK@vector?$DMT?$DO?5too?5long?$AA@ ; `string'
PUBLIC	?_Xlen@?$vector@UCreatePushStructInfo@@V?$allocator@UCreatePushStructInfo@@@std@@@std@@IBEXXZ ; std::vector<CreatePushStructInfo,std::allocator<CreatePushStructInfo> >::_Xlen
EXTRN	__imp_?_Xlength_error@std@@YAXPBD@Z:PROC
;	COMDAT ??_C@_0BD@OLBABOEK@vector?$DMT?$DO?5too?5long?$AA@
CONST	SEGMENT
??_C@_0BD@OLBABOEK@vector?$DMT?$DO?5too?5long?$AA@ DB 'vector<T> too long'
	DB	00H						; `string'
; Function compile flags: /Ogsp
CONST	ENDS
;	COMDAT ?_Xlen@?$vector@UCreatePushStructInfo@@V?$allocator@UCreatePushStructInfo@@@std@@@std@@IBEXXZ
_TEXT	SEGMENT
?_Xlen@?$vector@UCreatePushStructInfo@@V?$allocator@UCreatePushStructInfo@@@std@@@std@@IBEXXZ PROC ; std::vector<CreatePushStructInfo,std::allocator<CreatePushStructInfo> >::_Xlen, COMDAT
; _this$ = ecx

; 1427 : 		_Xlength_error("vector<T> too long");

  00000	68 00 00 00 00	 push	 OFFSET ??_C@_0BD@OLBABOEK@vector?$DMT?$DO?5too?5long?$AA@
  00005	ff 15 00 00 00
	00		 call	 DWORD PTR __imp_?_Xlength_error@std@@YAXPBD@Z
$LN4@Xlen:
$LN3@Xlen:
  0000b	cc		 int	 3
?_Xlen@?$vector@UCreatePushStructInfo@@V?$allocator@UCreatePushStructInfo@@@std@@@std@@IBEXXZ ENDP ; std::vector<CreatePushStructInfo,std::allocator<CreatePushStructInfo> >::_Xlen
_TEXT	ENDS
PUBLIC	?_Orphan_range@?$vector@UCreatePushStructInfo@@V?$allocator@UCreatePushStructInfo@@@std@@@std@@IBEXPAUCreatePushStructInfo@@0@Z ; std::vector<CreatePushStructInfo,std::allocator<CreatePushStructInfo> >::_Orphan_range
; Function compile flags: /Ogsp
;	COMDAT ?_Orphan_range@?$vector@UCreatePushStructInfo@@V?$allocator@UCreatePushStructInfo@@@std@@@std@@IBEXPAUCreatePushStructInfo@@0@Z
_TEXT	SEGMENT
___formal$ = 8						; size = 4
___formal$ = 12						; size = 4
?_Orphan_range@?$vector@UCreatePushStructInfo@@V?$allocator@UCreatePushStructInfo@@@std@@@std@@IBEXPAUCreatePushStructInfo@@0@Z PROC ; std::vector<CreatePushStructInfo,std::allocator<CreatePushStructInfo> >::_Orphan_range, COMDAT
; _this$ = ecx

; 1454 : 		}

  00000	c2 08 00	 ret	 8
?_Orphan_range@?$vector@UCreatePushStructInfo@@V?$allocator@UCreatePushStructInfo@@@std@@@std@@IBEXPAUCreatePushStructInfo@@0@Z ENDP ; std::vector<CreatePushStructInfo,std::allocator<CreatePushStructInfo> >::_Orphan_range
_TEXT	ENDS
PUBLIC	??1?$_Vector_val@UCreatePushStructInfo@@V?$allocator@UCreatePushStructInfo@@@std@@@std@@QAE@XZ ; std::_Vector_val<CreatePushStructInfo,std::allocator<CreatePushStructInfo> >::~_Vector_val<CreatePushStructInfo,std::allocator<CreatePushStructInfo> >
; Function compile flags: /Ogsp
;	COMDAT ??1?$_Vector_val@UCreatePushStructInfo@@V?$allocator@UCreatePushStructInfo@@@std@@@std@@QAE@XZ
_TEXT	SEGMENT
??1?$_Vector_val@UCreatePushStructInfo@@V?$allocator@UCreatePushStructInfo@@@std@@@std@@QAE@XZ PROC ; std::_Vector_val<CreatePushStructInfo,std::allocator<CreatePushStructInfo> >::~_Vector_val<CreatePushStructInfo,std::allocator<CreatePushStructInfo> >, COMDAT
; _this$ = ecx

; 434  : 		}

  00000	c3		 ret	 0
??1?$_Vector_val@UCreatePushStructInfo@@V?$allocator@UCreatePushStructInfo@@@std@@@std@@QAE@XZ ENDP ; std::_Vector_val<CreatePushStructInfo,std::allocator<CreatePushStructInfo> >::~_Vector_val<CreatePushStructInfo,std::allocator<CreatePushStructInfo> >
_TEXT	ENDS
PUBLIC	??0?$allocator@UCreatePushStructInfo@@@std@@QAE@XZ ; std::allocator<CreatePushStructInfo>::allocator<CreatePushStructInfo>
; Function compile flags: /Ogsp
; File c:\program files (x86)\microsoft visual studio 10.0\vc\include\xmemory
;	COMDAT ??0?$allocator@UCreatePushStructInfo@@@std@@QAE@XZ
_TEXT	SEGMENT
??0?$allocator@UCreatePushStructInfo@@@std@@QAE@XZ PROC	; std::allocator<CreatePushStructInfo>::allocator<CreatePushStructInfo>, COMDAT
; _this$ = ecx

; 161  : 	_ALLOCATOR() _THROW0()

  00000	8b c1		 mov	 eax, ecx

; 162  : 		{	// construct default allocator (do nothing)
; 163  : 		}

  00002	c3		 ret	 0
??0?$allocator@UCreatePushStructInfo@@@std@@QAE@XZ ENDP	; std::allocator<CreatePushStructInfo>::allocator<CreatePushStructInfo>
_TEXT	ENDS
PUBLIC	?deallocate@?$allocator@UCreatePushStructInfo@@@std@@QAEXPAUCreatePushStructInfo@@I@Z ; std::allocator<CreatePushStructInfo>::deallocate
; Function compile flags: /Ogsp
;	COMDAT ?deallocate@?$allocator@UCreatePushStructInfo@@@std@@QAEXPAUCreatePushStructInfo@@I@Z
_TEXT	SEGMENT
__Ptr$ = 8						; size = 4
___formal$ = 12						; size = 4
?deallocate@?$allocator@UCreatePushStructInfo@@@std@@QAEXPAUCreatePushStructInfo@@I@Z PROC ; std::allocator<CreatePushStructInfo>::deallocate, COMDAT
; _this$ = ecx

; 181  : 		{	// deallocate object at _Ptr, ignore size

  00000	55		 push	 ebp
  00001	8b ec		 mov	 ebp, esp

; 182  : 		::operator delete(_Ptr);

  00003	ff 75 08	 push	 DWORD PTR __Ptr$[ebp]
  00006	e8 00 00 00 00	 call	 ??3@YAXPAX@Z		; operator delete
  0000b	59		 pop	 ecx

; 183  : 		}

  0000c	5d		 pop	 ebp
  0000d	c2 08 00	 ret	 8
?deallocate@?$allocator@UCreatePushStructInfo@@@std@@QAEXPAUCreatePushStructInfo@@I@Z ENDP ; std::allocator<CreatePushStructInfo>::deallocate
_TEXT	ENDS
PUBLIC	?capacity@?$vector@UWeaponFireInfo@@V?$allocator@UWeaponFireInfo@@@std@@@std@@QBEIXZ ; std::vector<WeaponFireInfo,std::allocator<WeaponFireInfo> >::capacity
; Function compile flags: /Ogsp
; File c:\program files (x86)\microsoft visual studio 10.0\vc\include\vector
;	COMDAT ?capacity@?$vector@UWeaponFireInfo@@V?$allocator@UWeaponFireInfo@@@std@@@std@@QBEIXZ
_TEXT	SEGMENT
?capacity@?$vector@UWeaponFireInfo@@V?$allocator@UWeaponFireInfo@@@std@@@std@@QBEIXZ PROC ; std::vector<WeaponFireInfo,std::allocator<WeaponFireInfo> >::capacity, COMDAT
; _this$ = ecx

; 777  : 		return (this->_Myend - this->_Myfirst);

  00000	8b 41 08	 mov	 eax, DWORD PTR [ecx+8]
  00003	2b 01		 sub	 eax, DWORD PTR [ecx]
  00005	6a 30		 push	 48			; 00000030H
  00007	99		 cdq
  00008	59		 pop	 ecx
  00009	f7 f9		 idiv	 ecx

; 778  : 		}

  0000b	c3		 ret	 0
?capacity@?$vector@UWeaponFireInfo@@V?$allocator@UWeaponFireInfo@@@std@@@std@@QBEIXZ ENDP ; std::vector<WeaponFireInfo,std::allocator<WeaponFireInfo> >::capacity
_TEXT	ENDS
PUBLIC	?_Inside@?$vector@UWeaponFireInfo@@V?$allocator@UWeaponFireInfo@@@std@@@std@@IBE_NPBUWeaponFireInfo@@@Z ; std::vector<WeaponFireInfo,std::allocator<WeaponFireInfo> >::_Inside
; Function compile flags: /Ogsp
;	COMDAT ?_Inside@?$vector@UWeaponFireInfo@@V?$allocator@UWeaponFireInfo@@@std@@@std@@IBE_NPBUWeaponFireInfo@@@Z
_TEXT	SEGMENT
__Ptr$ = 8						; size = 4
?_Inside@?$vector@UWeaponFireInfo@@V?$allocator@UWeaponFireInfo@@@std@@@std@@IBE_NPBUWeaponFireInfo@@@Z PROC ; std::vector<WeaponFireInfo,std::allocator<WeaponFireInfo> >::_Inside, COMDAT
; _this$ = ecx

; 1285 : 		{	// test if _Ptr points inside vector

  00000	55		 push	 ebp
  00001	8b ec		 mov	 ebp, esp

; 1286 : 		return (_Ptr < this->_Mylast && this->_Myfirst <= _Ptr);

  00003	8b 45 08	 mov	 eax, DWORD PTR __Ptr$[ebp]
  00006	3b 41 04	 cmp	 eax, DWORD PTR [ecx+4]
  00009	73 09		 jae	 SHORT $LN3@Inside@4
  0000b	39 01		 cmp	 DWORD PTR [ecx], eax
  0000d	77 05		 ja	 SHORT $LN3@Inside@4
  0000f	33 c0		 xor	 eax, eax
  00011	40		 inc	 eax
  00012	eb 02		 jmp	 SHORT $LN4@Inside@4
$LN3@Inside@4:
  00014	33 c0		 xor	 eax, eax
$LN4@Inside@4:

; 1287 : 		}

  00016	5d		 pop	 ebp
  00017	c2 04 00	 ret	 4
?_Inside@?$vector@UWeaponFireInfo@@V?$allocator@UWeaponFireInfo@@@std@@@std@@IBE_NPBUWeaponFireInfo@@@Z ENDP ; std::vector<WeaponFireInfo,std::allocator<WeaponFireInfo> >::_Inside
_TEXT	ENDS
PUBLIC	?_Xlen@?$vector@UWeaponFireInfo@@V?$allocator@UWeaponFireInfo@@@std@@@std@@IBEXXZ ; std::vector<WeaponFireInfo,std::allocator<WeaponFireInfo> >::_Xlen
; Function compile flags: /Ogsp
;	COMDAT ?_Xlen@?$vector@UWeaponFireInfo@@V?$allocator@UWeaponFireInfo@@@std@@@std@@IBEXXZ
_TEXT	SEGMENT
?_Xlen@?$vector@UWeaponFireInfo@@V?$allocator@UWeaponFireInfo@@@std@@@std@@IBEXXZ PROC ; std::vector<WeaponFireInfo,std::allocator<WeaponFireInfo> >::_Xlen, COMDAT
; _this$ = ecx

; 1427 : 		_Xlength_error("vector<T> too long");

  00000	68 00 00 00 00	 push	 OFFSET ??_C@_0BD@OLBABOEK@vector?$DMT?$DO?5too?5long?$AA@
  00005	ff 15 00 00 00
	00		 call	 DWORD PTR __imp_?_Xlength_error@std@@YAXPBD@Z
$LN4@Xlen@2:
$LN3@Xlen@2:
  0000b	cc		 int	 3
?_Xlen@?$vector@UWeaponFireInfo@@V?$allocator@UWeaponFireInfo@@@std@@@std@@IBEXXZ ENDP ; std::vector<WeaponFireInfo,std::allocator<WeaponFireInfo> >::_Xlen
_TEXT	ENDS
PUBLIC	?_Orphan_range@?$vector@UWeaponFireInfo@@V?$allocator@UWeaponFireInfo@@@std@@@std@@IBEXPAUWeaponFireInfo@@0@Z ; std::vector<WeaponFireInfo,std::allocator<WeaponFireInfo> >::_Orphan_range
; Function compile flags: /Ogsp
;	COMDAT ?_Orphan_range@?$vector@UWeaponFireInfo@@V?$allocator@UWeaponFireInfo@@@std@@@std@@IBEXPAUWeaponFireInfo@@0@Z
_TEXT	SEGMENT
___formal$ = 8						; size = 4
___formal$ = 12						; size = 4
?_Orphan_range@?$vector@UWeaponFireInfo@@V?$allocator@UWeaponFireInfo@@@std@@@std@@IBEXPAUWeaponFireInfo@@0@Z PROC ; std::vector<WeaponFireInfo,std::allocator<WeaponFireInfo> >::_Orphan_range, COMDAT
; _this$ = ecx

; 1454 : 		}

  00000	c2 08 00	 ret	 8
?_Orphan_range@?$vector@UWeaponFireInfo@@V?$allocator@UWeaponFireInfo@@@std@@@std@@IBEXPAUWeaponFireInfo@@0@Z ENDP ; std::vector<WeaponFireInfo,std::allocator<WeaponFireInfo> >::_Orphan_range
_TEXT	ENDS
PUBLIC	??1?$_Vector_val@UWeaponFireInfo@@V?$allocator@UWeaponFireInfo@@@std@@@std@@QAE@XZ ; std::_Vector_val<WeaponFireInfo,std::allocator<WeaponFireInfo> >::~_Vector_val<WeaponFireInfo,std::allocator<WeaponFireInfo> >
; Function compile flags: /Ogsp
;	COMDAT ??1?$_Vector_val@UWeaponFireInfo@@V?$allocator@UWeaponFireInfo@@@std@@@std@@QAE@XZ
_TEXT	SEGMENT
??1?$_Vector_val@UWeaponFireInfo@@V?$allocator@UWeaponFireInfo@@@std@@@std@@QAE@XZ PROC ; std::_Vector_val<WeaponFireInfo,std::allocator<WeaponFireInfo> >::~_Vector_val<WeaponFireInfo,std::allocator<WeaponFireInfo> >, COMDAT
; _this$ = ecx

; 434  : 		}

  00000	c3		 ret	 0
??1?$_Vector_val@UWeaponFireInfo@@V?$allocator@UWeaponFireInfo@@@std@@@std@@QAE@XZ ENDP ; std::_Vector_val<WeaponFireInfo,std::allocator<WeaponFireInfo> >::~_Vector_val<WeaponFireInfo,std::allocator<WeaponFireInfo> >
_TEXT	ENDS
PUBLIC	??0?$allocator@UWeaponFireInfo@@@std@@QAE@XZ	; std::allocator<WeaponFireInfo>::allocator<WeaponFireInfo>
; Function compile flags: /Ogsp
; File c:\program files (x86)\microsoft visual studio 10.0\vc\include\xmemory
;	COMDAT ??0?$allocator@UWeaponFireInfo@@@std@@QAE@XZ
_TEXT	SEGMENT
??0?$allocator@UWeaponFireInfo@@@std@@QAE@XZ PROC	; std::allocator<WeaponFireInfo>::allocator<WeaponFireInfo>, COMDAT
; _this$ = ecx

; 161  : 	_ALLOCATOR() _THROW0()

  00000	8b c1		 mov	 eax, ecx

; 162  : 		{	// construct default allocator (do nothing)
; 163  : 		}

  00002	c3		 ret	 0
??0?$allocator@UWeaponFireInfo@@@std@@QAE@XZ ENDP	; std::allocator<WeaponFireInfo>::allocator<WeaponFireInfo>
_TEXT	ENDS
PUBLIC	?deallocate@?$allocator@UWeaponFireInfo@@@std@@QAEXPAUWeaponFireInfo@@I@Z ; std::allocator<WeaponFireInfo>::deallocate
; Function compile flags: /Ogsp
;	COMDAT ?deallocate@?$allocator@UWeaponFireInfo@@@std@@QAEXPAUWeaponFireInfo@@I@Z
_TEXT	SEGMENT
__Ptr$ = 8						; size = 4
___formal$ = 12						; size = 4
?deallocate@?$allocator@UWeaponFireInfo@@@std@@QAEXPAUWeaponFireInfo@@I@Z PROC ; std::allocator<WeaponFireInfo>::deallocate, COMDAT
; _this$ = ecx

; 181  : 		{	// deallocate object at _Ptr, ignore size

  00000	55		 push	 ebp
  00001	8b ec		 mov	 ebp, esp

; 182  : 		::operator delete(_Ptr);

  00003	ff 75 08	 push	 DWORD PTR __Ptr$[ebp]
  00006	e8 00 00 00 00	 call	 ??3@YAXPAX@Z		; operator delete
  0000b	59		 pop	 ecx

; 183  : 		}

  0000c	5d		 pop	 ebp
  0000d	c2 08 00	 ret	 8
?deallocate@?$allocator@UWeaponFireInfo@@@std@@QAEXPAUWeaponFireInfo@@I@Z ENDP ; std::allocator<WeaponFireInfo>::deallocate
_TEXT	ENDS
PUBLIC	??D?$_Vector_const_iterator@V?$_Vector_val@PAVioGameEntity@@V?$allocator@PAVioGameEntity@@@std@@@std@@@std@@QBEABQAVioGameEntity@@XZ ; std::_Vector_const_iterator<std::_Vector_val<ioGameEntity *,std::allocator<ioGameEntity *> > >::operator*
; Function compile flags: /Ogsp
; File c:\program files (x86)\microsoft visual studio 10.0\vc\include\vector
;	COMDAT ??D?$_Vector_const_iterator@V?$_Vector_val@PAVioGameEntity@@V?$allocator@PAVioGameEntity@@@std@@@std@@@std@@QBEABQAVioGameEntity@@XZ
_TEXT	SEGMENT
??D?$_Vector_const_iterator@V?$_Vector_val@PAVioGameEntity@@V?$allocator@PAVioGameEntity@@@std@@@std@@@std@@QBEABQAVioGameEntity@@XZ PROC ; std::_Vector_const_iterator<std::_Vector_val<ioGameEntity *,std::allocator<ioGameEntity *> > >::operator*, COMDAT
; _this$ = ecx

; 64   :  #if _ITERATOR_DEBUG_LEVEL == 2
; 65   : 		if (this->_Getcont() == 0
; 66   : 			|| this->_Ptr == 0
; 67   : 			|| this->_Ptr < ((_Myvec *)this->_Getcont())->_Myfirst
; 68   : 			|| ((_Myvec *)this->_Getcont())->_Mylast <= this->_Ptr)
; 69   : 			{	// report error
; 70   : 			_DEBUG_ERROR("vector iterator not dereferencable");
; 71   : 			_SCL_SECURE_OUT_OF_RANGE;
; 72   : 			}
; 73   : 
; 74   :  #elif _ITERATOR_DEBUG_LEVEL == 1
; 75   : 		_SCL_SECURE_VALIDATE(this->_Getcont() != 0);
; 76   : 		_SCL_SECURE_VALIDATE_RANGE(
; 77   : 			this->_Ptr != 0
; 78   : 			&& ((_Myvec *)this->_Getcont())->_Myfirst <= this->_Ptr
; 79   : 			&& this->_Ptr < ((_Myvec *)this->_Getcont())->_Mylast);
; 80   :  #endif /* _ITERATOR_DEBUG_LEVEL */
; 81   : 
; 82   : 		__analysis_assume(this->_Ptr != 0);
; 83   : 
; 84   : 		return (*this->_Ptr);

  00000	8b 01		 mov	 eax, DWORD PTR [ecx]

; 85   : 		}

  00002	c3		 ret	 0
??D?$_Vector_const_iterator@V?$_Vector_val@PAVioGameEntity@@V?$allocator@PAVioGameEntity@@@std@@@std@@@std@@QBEABQAVioGameEntity@@XZ ENDP ; std::_Vector_const_iterator<std::_Vector_val<ioGameEntity *,std::allocator<ioGameEntity *> > >::operator*
_TEXT	ENDS
PUBLIC	??E?$_Vector_const_iterator@V?$_Vector_val@PAVioGameEntity@@V?$allocator@PAVioGameEntity@@@std@@@std@@@std@@QAEAAV01@XZ ; std::_Vector_const_iterator<std::_Vector_val<ioGameEntity *,std::allocator<ioGameEntity *> > >::operator++
; Function compile flags: /Ogsp
;	COMDAT ??E?$_Vector_const_iterator@V?$_Vector_val@PAVioGameEntity@@V?$allocator@PAVioGameEntity@@@std@@@std@@@std@@QAEAAV01@XZ
_TEXT	SEGMENT
??E?$_Vector_const_iterator@V?$_Vector_val@PAVioGameEntity@@V?$allocator@PAVioGameEntity@@@std@@@std@@@std@@QAEAAV01@XZ PROC ; std::_Vector_const_iterator<std::_Vector_val<ioGameEntity *,std::allocator<ioGameEntity *> > >::operator++, COMDAT
; _this$ = ecx

; 93   : 		{	// preincrement

  00000	8b c1		 mov	 eax, ecx

; 94   :  #if _ITERATOR_DEBUG_LEVEL == 2
; 95   : 		if (this->_Getcont() == 0
; 96   : 			|| this->_Ptr == 0
; 97   : 			|| ((_Myvec *)this->_Getcont())->_Mylast <= this->_Ptr)
; 98   : 			{	// report error
; 99   : 			_DEBUG_ERROR("vector iterator not incrementable");
; 100  : 			_SCL_SECURE_OUT_OF_RANGE;
; 101  : 			}
; 102  : 
; 103  :  #elif _ITERATOR_DEBUG_LEVEL == 1
; 104  : 		_SCL_SECURE_VALIDATE(this->_Getcont() != 0);
; 105  : 		_SCL_SECURE_VALIDATE_RANGE(
; 106  : 			this->_Ptr != 0
; 107  : 			&& this->_Ptr < ((_Myvec *)this->_Getcont())->_Mylast);
; 108  :  #endif /* _ITERATOR_DEBUG_LEVEL */
; 109  : 
; 110  : 		++this->_Ptr;

  00002	83 00 04	 add	 DWORD PTR [eax], 4

; 111  : 		return (*this);
; 112  : 		}

  00005	c3		 ret	 0
??E?$_Vector_const_iterator@V?$_Vector_val@PAVioGameEntity@@V?$allocator@PAVioGameEntity@@@std@@@std@@@std@@QAEAAV01@XZ ENDP ; std::_Vector_const_iterator<std::_Vector_val<ioGameEntity *,std::allocator<ioGameEntity *> > >::operator++
_TEXT	ENDS
PUBLIC	??0?$_Vector_const_iterator@V?$_Vector_val@PAVioBaseChar@@V?$allocator@PAVioBaseChar@@@std@@@std@@@std@@QAE@PAPAVioBaseChar@@PBU_Container_base0@1@@Z ; std::_Vector_const_iterator<std::_Vector_val<ioBaseChar *,std::allocator<ioBaseChar *> > >::_Vector_const_iterator<std::_Vector_val<ioBaseChar *,std::allocator<ioBaseChar *> > >
; Function compile flags: /Ogsp
;	COMDAT ??0?$_Vector_const_iterator@V?$_Vector_val@PAVioBaseChar@@V?$allocator@PAVioBaseChar@@@std@@@std@@@std@@QAE@PAPAVioBaseChar@@PBU_Container_base0@1@@Z
_TEXT	SEGMENT
__Parg$ = 8						; size = 4
__Pvector$ = 12						; size = 4
??0?$_Vector_const_iterator@V?$_Vector_val@PAVioBaseChar@@V?$allocator@PAVioBaseChar@@@std@@@std@@@std@@QAE@PAPAVioBaseChar@@PBU_Container_base0@1@@Z PROC ; std::_Vector_const_iterator<std::_Vector_val<ioBaseChar *,std::allocator<ioBaseChar *> > >::_Vector_const_iterator<std::_Vector_val<ioBaseChar *,std::allocator<ioBaseChar *> > >, COMDAT
; _this$ = ecx

; 45   : 		{	// construct with pointer _Parg

  00000	55		 push	 ebp
  00001	8b ec		 mov	 ebp, esp
  00003	8b c1		 mov	 eax, ecx
  00005	8b 4d 08	 mov	 ecx, DWORD PTR __Parg$[ebp]
  00008	89 08		 mov	 DWORD PTR [eax], ecx

; 46   : 		this->_Adopt(_Pvector);
; 47   : 		}

  0000a	5d		 pop	 ebp
  0000b	c2 08 00	 ret	 8
??0?$_Vector_const_iterator@V?$_Vector_val@PAVioBaseChar@@V?$allocator@PAVioBaseChar@@@std@@@std@@@std@@QAE@PAPAVioBaseChar@@PBU_Container_base0@1@@Z ENDP ; std::_Vector_const_iterator<std::_Vector_val<ioBaseChar *,std::allocator<ioBaseChar *> > >::_Vector_const_iterator<std::_Vector_val<ioBaseChar *,std::allocator<ioBaseChar *> > >
_TEXT	ENDS
PUBLIC	??1?$_Vector_val@PBUAniEventTime@@V?$allocator@PBUAniEventTime@@@std@@@std@@QAE@XZ ; std::_Vector_val<AniEventTime const *,std::allocator<AniEventTime const *> >::~_Vector_val<AniEventTime const *,std::allocator<AniEventTime const *> >
; Function compile flags: /Ogsp
;	COMDAT ??1?$_Vector_val@PBUAniEventTime@@V?$allocator@PBUAniEventTime@@@std@@@std@@QAE@XZ
_TEXT	SEGMENT
??1?$_Vector_val@PBUAniEventTime@@V?$allocator@PBUAniEventTime@@@std@@@std@@QAE@XZ PROC ; std::_Vector_val<AniEventTime const *,std::allocator<AniEventTime const *> >::~_Vector_val<AniEventTime const *,std::allocator<AniEventTime const *> >, COMDAT
; _this$ = ecx

; 434  : 		}

  00000	c3		 ret	 0
??1?$_Vector_val@PBUAniEventTime@@V?$allocator@PBUAniEventTime@@@std@@@std@@QAE@XZ ENDP ; std::_Vector_val<AniEventTime const *,std::allocator<AniEventTime const *> >::~_Vector_val<AniEventTime const *,std::allocator<AniEventTime const *> >
_TEXT	ENDS
PUBLIC	??0?$allocator@PBUAniEventTime@@@std@@QAE@XZ	; std::allocator<AniEventTime const *>::allocator<AniEventTime const *>
; Function compile flags: /Ogsp
; File c:\program files (x86)\microsoft visual studio 10.0\vc\include\xmemory
;	COMDAT ??0?$allocator@PBUAniEventTime@@@std@@QAE@XZ
_TEXT	SEGMENT
??0?$allocator@PBUAniEventTime@@@std@@QAE@XZ PROC	; std::allocator<AniEventTime const *>::allocator<AniEventTime const *>, COMDAT
; _this$ = ecx

; 161  : 	_ALLOCATOR() _THROW0()

  00000	8b c1		 mov	 eax, ecx

; 162  : 		{	// construct default allocator (do nothing)
; 163  : 		}

  00002	c3		 ret	 0
??0?$allocator@PBUAniEventTime@@@std@@QAE@XZ ENDP	; std::allocator<AniEventTime const *>::allocator<AniEventTime const *>
_TEXT	ENDS
PUBLIC	??D?$_Vector_const_iterator@V?$_Vector_val@PBUAniEventTime@@V?$allocator@PBUAniEventTime@@@std@@@std@@@std@@QBEABQBUAniEventTime@@XZ ; std::_Vector_const_iterator<std::_Vector_val<AniEventTime const *,std::allocator<AniEventTime const *> > >::operator*
; Function compile flags: /Ogsp
; File c:\program files (x86)\microsoft visual studio 10.0\vc\include\vector
;	COMDAT ??D?$_Vector_const_iterator@V?$_Vector_val@PBUAniEventTime@@V?$allocator@PBUAniEventTime@@@std@@@std@@@std@@QBEABQBUAniEventTime@@XZ
_TEXT	SEGMENT
??D?$_Vector_const_iterator@V?$_Vector_val@PBUAniEventTime@@V?$allocator@PBUAniEventTime@@@std@@@std@@@std@@QBEABQBUAniEventTime@@XZ PROC ; std::_Vector_const_iterator<std::_Vector_val<AniEventTime const *,std::allocator<AniEventTime const *> > >::operator*, COMDAT
; _this$ = ecx

; 64   :  #if _ITERATOR_DEBUG_LEVEL == 2
; 65   : 		if (this->_Getcont() == 0
; 66   : 			|| this->_Ptr == 0
; 67   : 			|| this->_Ptr < ((_Myvec *)this->_Getcont())->_Myfirst
; 68   : 			|| ((_Myvec *)this->_Getcont())->_Mylast <= this->_Ptr)
; 69   : 			{	// report error
; 70   : 			_DEBUG_ERROR("vector iterator not dereferencable");
; 71   : 			_SCL_SECURE_OUT_OF_RANGE;
; 72   : 			}
; 73   : 
; 74   :  #elif _ITERATOR_DEBUG_LEVEL == 1
; 75   : 		_SCL_SECURE_VALIDATE(this->_Getcont() != 0);
; 76   : 		_SCL_SECURE_VALIDATE_RANGE(
; 77   : 			this->_Ptr != 0
; 78   : 			&& ((_Myvec *)this->_Getcont())->_Myfirst <= this->_Ptr
; 79   : 			&& this->_Ptr < ((_Myvec *)this->_Getcont())->_Mylast);
; 80   :  #endif /* _ITERATOR_DEBUG_LEVEL */
; 81   : 
; 82   : 		__analysis_assume(this->_Ptr != 0);
; 83   : 
; 84   : 		return (*this->_Ptr);

  00000	8b 01		 mov	 eax, DWORD PTR [ecx]

; 85   : 		}

  00002	c3		 ret	 0
??D?$_Vector_const_iterator@V?$_Vector_val@PBUAniEventTime@@V?$allocator@PBUAniEventTime@@@std@@@std@@@std@@QBEABQBUAniEventTime@@XZ ENDP ; std::_Vector_const_iterator<std::_Vector_val<AniEventTime const *,std::allocator<AniEventTime const *> > >::operator*
_TEXT	ENDS
PUBLIC	??8?$_List_const_iterator@V?$_List_val@MV?$allocator@M@std@@@std@@@std@@QBE_NABV01@@Z ; std::_List_const_iterator<std::_List_val<float,std::allocator<float> > >::operator==
; Function compile flags: /Ogsp
; File c:\program files (x86)\microsoft visual studio 10.0\vc\include\list
;	COMDAT ??8?$_List_const_iterator@V?$_List_val@MV?$allocator@M@std@@@std@@@std@@QBE_NABV01@@Z
_TEXT	SEGMENT
__Right$ = 8						; size = 4
??8?$_List_const_iterator@V?$_List_val@MV?$allocator@M@std@@@std@@@std@@QBE_NABV01@@Z PROC ; std::_List_const_iterator<std::_List_val<float,std::allocator<float> > >::operator==, COMDAT
; _this$ = ecx

; 281  : 		{	// test for iterator equality

  00000	55		 push	 ebp
  00001	8b ec		 mov	 ebp, esp

; 282  :  #if _ITERATOR_DEBUG_LEVEL == 2
; 283  : 		if (this->_Getcont() == 0
; 284  : 			|| this->_Getcont() != _Right._Getcont())
; 285  : 			{	// report error
; 286  : 			_DEBUG_ERROR("list iterators incompatible");
; 287  : 			_SCL_SECURE_INVALID_ARGUMENT;
; 288  : 			}
; 289  : 
; 290  :  #elif _ITERATOR_DEBUG_LEVEL == 1
; 291  : 		_SCL_SECURE_VALIDATE(this->_Getcont() != 0
; 292  : 			&& this->_Getcont() == _Right._Getcont());
; 293  :  #endif /* _ITERATOR_DEBUG_LEVEL */
; 294  : 
; 295  : 		return (this->_Ptr == _Right._Ptr);

  00003	8b 01		 mov	 eax, DWORD PTR [ecx]
  00005	8b 4d 08	 mov	 ecx, DWORD PTR __Right$[ebp]
  00008	2b 01		 sub	 eax, DWORD PTR [ecx]
  0000a	f7 d8		 neg	 eax
  0000c	1b c0		 sbb	 eax, eax
  0000e	40		 inc	 eax

; 296  : 		}

  0000f	5d		 pop	 ebp
  00010	c2 04 00	 ret	 4
??8?$_List_const_iterator@V?$_List_val@MV?$allocator@M@std@@@std@@@std@@QBE_NABV01@@Z ENDP ; std::_List_const_iterator<std::_List_val<float,std::allocator<float> > >::operator==
_TEXT	ENDS
PUBLIC	??E?$_List_const_iterator@V?$_List_val@UOutLineRecord@@V?$allocator@UOutLineRecord@@@std@@@std@@@std@@QAEAAV01@XZ ; std::_List_const_iterator<std::_List_val<OutLineRecord,std::allocator<OutLineRecord> > >::operator++
; Function compile flags: /Ogsp
;	COMDAT ??E?$_List_const_iterator@V?$_List_val@UOutLineRecord@@V?$allocator@UOutLineRecord@@@std@@@std@@@std@@QAEAAV01@XZ
_TEXT	SEGMENT
??E?$_List_const_iterator@V?$_List_val@UOutLineRecord@@V?$allocator@UOutLineRecord@@@std@@@std@@@std@@QAEAAV01@XZ PROC ; std::_List_const_iterator<std::_List_val<OutLineRecord,std::allocator<OutLineRecord> > >::operator++, COMDAT
; _this$ = ecx

; 221  : 		{	// preincrement

  00000	8b c1		 mov	 eax, ecx

; 222  :  #if _ITERATOR_DEBUG_LEVEL == 2
; 223  : 		if (this->_Getcont() == 0
; 224  : 			|| this->_Ptr == 0
; 225  : 			|| this->_Ptr == ((_Mylist *)this->_Getcont())->_Myhead)
; 226  : 			{	// report error
; 227  : 			_DEBUG_ERROR("list iterator not incrementable");
; 228  : 			_SCL_SECURE_OUT_OF_RANGE;
; 229  : 			}
; 230  : 
; 231  :  #elif _ITERATOR_DEBUG_LEVEL == 1
; 232  : 		_SCL_SECURE_VALIDATE(this->_Getcont() != 0 && this->_Ptr != 0);
; 233  : 		_SCL_SECURE_VALIDATE_RANGE(this->_Ptr !=
; 234  : 			((_Mylist *)this->_Getcont())->_Myhead);
; 235  :  #endif /* _ITERATOR_DEBUG_LEVEL */
; 236  : 
; 237  : 		this->_Ptr = _Mylist::_Nextnode(this->_Ptr);

  00002	8b 08		 mov	 ecx, DWORD PTR [eax]
  00004	8b 09		 mov	 ecx, DWORD PTR [ecx]
  00006	89 08		 mov	 DWORD PTR [eax], ecx

; 238  : 		return (*this);
; 239  : 		}

  00008	c3		 ret	 0
??E?$_List_const_iterator@V?$_List_val@UOutLineRecord@@V?$allocator@UOutLineRecord@@@std@@@std@@@std@@QAEAAV01@XZ ENDP ; std::_List_const_iterator<std::_List_val<OutLineRecord,std::allocator<OutLineRecord> > >::operator++
_TEXT	ENDS
PUBLIC	??E?$_List_const_iterator@V?$_List_val@UOutLineRecord@@V?$allocator@UOutLineRecord@@@std@@@std@@@std@@QAE?AV01@H@Z ; std::_List_const_iterator<std::_List_val<OutLineRecord,std::allocator<OutLineRecord> > >::operator++
; Function compile flags: /Ogsp
;	COMDAT ??E?$_List_const_iterator@V?$_List_val@UOutLineRecord@@V?$allocator@UOutLineRecord@@@std@@@std@@@std@@QAE?AV01@H@Z
_TEXT	SEGMENT
___$ReturnUdt$ = 8					; size = 4
___formal$ = 12						; size = 4
??E?$_List_const_iterator@V?$_List_val@UOutLineRecord@@V?$allocator@UOutLineRecord@@@std@@@std@@@std@@QAE?AV01@H@Z PROC ; std::_List_const_iterator<std::_List_val<OutLineRecord,std::allocator<OutLineRecord> > >::operator++, COMDAT
; _this$ = ecx

; 242  : 		{	// postincrement

  00000	55		 push	 ebp
  00001	8b ec		 mov	 ebp, esp

; 243  : 		_Myiter _Tmp = *this;

  00003	8b 11		 mov	 edx, DWORD PTR [ecx]
  00005	8b 45 08	 mov	 eax, DWORD PTR ___$ReturnUdt$[ebp]
  00008	89 10		 mov	 DWORD PTR [eax], edx

; 244  : 		++*this;

  0000a	8b 12		 mov	 edx, DWORD PTR [edx]
  0000c	89 11		 mov	 DWORD PTR [ecx], edx

; 245  : 		return (_Tmp);
; 246  : 		}

  0000e	5d		 pop	 ebp
  0000f	c2 08 00	 ret	 8
??E?$_List_const_iterator@V?$_List_val@UOutLineRecord@@V?$allocator@UOutLineRecord@@@std@@@std@@@std@@QAE?AV01@H@Z ENDP ; std::_List_const_iterator<std::_List_val<OutLineRecord,std::allocator<OutLineRecord> > >::operator++
_TEXT	ENDS
PUBLIC	??8?$_List_const_iterator@V?$_List_val@UOutLineRecord@@V?$allocator@UOutLineRecord@@@std@@@std@@@std@@QBE_NABV01@@Z ; std::_List_const_iterator<std::_List_val<OutLineRecord,std::allocator<OutLineRecord> > >::operator==
; Function compile flags: /Ogsp
;	COMDAT ??8?$_List_const_iterator@V?$_List_val@UOutLineRecord@@V?$allocator@UOutLineRecord@@@std@@@std@@@std@@QBE_NABV01@@Z
_TEXT	SEGMENT
__Right$ = 8						; size = 4
??8?$_List_const_iterator@V?$_List_val@UOutLineRecord@@V?$allocator@UOutLineRecord@@@std@@@std@@@std@@QBE_NABV01@@Z PROC ; std::_List_const_iterator<std::_List_val<OutLineRecord,std::allocator<OutLineRecord> > >::operator==, COMDAT
; _this$ = ecx

; 281  : 		{	// test for iterator equality

  00000	55		 push	 ebp
  00001	8b ec		 mov	 ebp, esp

; 282  :  #if _ITERATOR_DEBUG_LEVEL == 2
; 283  : 		if (this->_Getcont() == 0
; 284  : 			|| this->_Getcont() != _Right._Getcont())
; 285  : 			{	// report error
; 286  : 			_DEBUG_ERROR("list iterators incompatible");
; 287  : 			_SCL_SECURE_INVALID_ARGUMENT;
; 288  : 			}
; 289  : 
; 290  :  #elif _ITERATOR_DEBUG_LEVEL == 1
; 291  : 		_SCL_SECURE_VALIDATE(this->_Getcont() != 0
; 292  : 			&& this->_Getcont() == _Right._Getcont());
; 293  :  #endif /* _ITERATOR_DEBUG_LEVEL */
; 294  : 
; 295  : 		return (this->_Ptr == _Right._Ptr);

  00003	8b 01		 mov	 eax, DWORD PTR [ecx]
  00005	8b 4d 08	 mov	 ecx, DWORD PTR __Right$[ebp]
  00008	2b 01		 sub	 eax, DWORD PTR [ecx]
  0000a	f7 d8		 neg	 eax
  0000c	1b c0		 sbb	 eax, eax
  0000e	40		 inc	 eax

; 296  : 		}

  0000f	5d		 pop	 ebp
  00010	c2 04 00	 ret	 4
??8?$_List_const_iterator@V?$_List_val@UOutLineRecord@@V?$allocator@UOutLineRecord@@@std@@@std@@@std@@QBE_NABV01@@Z ENDP ; std::_List_const_iterator<std::_List_val<OutLineRecord,std::allocator<OutLineRecord> > >::operator==
_TEXT	ENDS
PUBLIC	?_Mynode@?$_List_unchecked_const_iterator@V?$_List_val@UOutLineRecord@@V?$allocator@UOutLineRecord@@@std@@@std@@U_Iterator_base0@2@@std@@QBEPAU_Node@?$_List_nod@UOutLineRecord@@V?$allocator@UOutLineRecord@@@std@@@2@XZ ; std::_List_unchecked_const_iterator<std::_List_val<OutLineRecord,std::allocator<OutLineRecord> >,std::_Iterator_base0>::_Mynode
; Function compile flags: /Ogsp
;	COMDAT ?_Mynode@?$_List_unchecked_const_iterator@V?$_List_val@UOutLineRecord@@V?$allocator@UOutLineRecord@@@std@@@std@@U_Iterator_base0@2@@std@@QBEPAU_Node@?$_List_nod@UOutLineRecord@@V?$allocator@UOutLineRecord@@@std@@@2@XZ
_TEXT	SEGMENT
?_Mynode@?$_List_unchecked_const_iterator@V?$_List_val@UOutLineRecord@@V?$allocator@UOutLineRecord@@@std@@@std@@U_Iterator_base0@2@@std@@QBEPAU_Node@?$_List_nod@UOutLineRecord@@V?$allocator@UOutLineRecord@@@std@@@2@XZ PROC ; std::_List_unchecked_const_iterator<std::_List_val<OutLineRecord,std::allocator<OutLineRecord> >,std::_Iterator_base0>::_Mynode, COMDAT
; _this$ = ecx

; 93   : 		return (_Ptr);

  00000	8b 01		 mov	 eax, DWORD PTR [ecx]

; 94   : 		}

  00002	c3		 ret	 0
?_Mynode@?$_List_unchecked_const_iterator@V?$_List_val@UOutLineRecord@@V?$allocator@UOutLineRecord@@@std@@@std@@U_Iterator_base0@2@@std@@QBEPAU_Node@?$_List_nod@UOutLineRecord@@V?$allocator@UOutLineRecord@@@std@@@2@XZ ENDP ; std::_List_unchecked_const_iterator<std::_List_val<OutLineRecord,std::allocator<OutLineRecord> >,std::_Iterator_base0>::_Mynode
_TEXT	ENDS
PUBLIC	??0?$allocator@PAVioGameEntity@@@std@@QAE@ABV01@@Z ; std::allocator<ioGameEntity *>::allocator<ioGameEntity *>
; Function compile flags: /Ogsp
; File c:\program files (x86)\microsoft visual studio 10.0\vc\include\xmemory
;	COMDAT ??0?$allocator@PAVioGameEntity@@@std@@QAE@ABV01@@Z
_TEXT	SEGMENT
___formal$ = 8						; size = 4
??0?$allocator@PAVioGameEntity@@@std@@QAE@ABV01@@Z PROC	; std::allocator<ioGameEntity *>::allocator<ioGameEntity *>, COMDAT
; _this$ = ecx

; 165  : 	_ALLOCATOR(const _ALLOCATOR<_Ty>&) _THROW0()

  00000	8b c1		 mov	 eax, ecx

; 166  : 		{	// construct by copying (do nothing)
; 167  : 		}

  00002	c2 04 00	 ret	 4
??0?$allocator@PAVioGameEntity@@@std@@QAE@ABV01@@Z ENDP	; std::allocator<ioGameEntity *>::allocator<ioGameEntity *>
_TEXT	ENDS
PUBLIC	?deallocate@?$allocator@PAVioGameEntity@@@std@@QAEXPAPAVioGameEntity@@I@Z ; std::allocator<ioGameEntity *>::deallocate
; Function compile flags: /Ogsp
;	COMDAT ?deallocate@?$allocator@PAVioGameEntity@@@std@@QAEXPAPAVioGameEntity@@I@Z
_TEXT	SEGMENT
__Ptr$ = 8						; size = 4
___formal$ = 12						; size = 4
?deallocate@?$allocator@PAVioGameEntity@@@std@@QAEXPAPAVioGameEntity@@I@Z PROC ; std::allocator<ioGameEntity *>::deallocate, COMDAT
; _this$ = ecx

; 181  : 		{	// deallocate object at _Ptr, ignore size

  00000	55		 push	 ebp
  00001	8b ec		 mov	 ebp, esp

; 182  : 		::operator delete(_Ptr);

  00003	ff 75 08	 push	 DWORD PTR __Ptr$[ebp]
  00006	e8 00 00 00 00	 call	 ??3@YAXPAX@Z		; operator delete
  0000b	59		 pop	 ecx

; 183  : 		}

  0000c	5d		 pop	 ebp
  0000d	c2 08 00	 ret	 8
?deallocate@?$allocator@PAVioGameEntity@@@std@@QAEXPAPAVioGameEntity@@I@Z ENDP ; std::allocator<ioGameEntity *>::deallocate
_TEXT	ENDS
PUBLIC	??0?$allocator@PAVioWeapon@@@std@@QAE@ABV01@@Z	; std::allocator<ioWeapon *>::allocator<ioWeapon *>
; Function compile flags: /Ogsp
;	COMDAT ??0?$allocator@PAVioWeapon@@@std@@QAE@ABV01@@Z
_TEXT	SEGMENT
___formal$ = 8						; size = 4
??0?$allocator@PAVioWeapon@@@std@@QAE@ABV01@@Z PROC	; std::allocator<ioWeapon *>::allocator<ioWeapon *>, COMDAT
; _this$ = ecx

; 165  : 	_ALLOCATOR(const _ALLOCATOR<_Ty>&) _THROW0()

  00000	8b c1		 mov	 eax, ecx

; 166  : 		{	// construct by copying (do nothing)
; 167  : 		}

  00002	c2 04 00	 ret	 4
??0?$allocator@PAVioWeapon@@@std@@QAE@ABV01@@Z ENDP	; std::allocator<ioWeapon *>::allocator<ioWeapon *>
_TEXT	ENDS
PUBLIC	?deallocate@?$allocator@PAVioWeapon@@@std@@QAEXPAPAVioWeapon@@I@Z ; std::allocator<ioWeapon *>::deallocate
; Function compile flags: /Ogsp
;	COMDAT ?deallocate@?$allocator@PAVioWeapon@@@std@@QAEXPAPAVioWeapon@@I@Z
_TEXT	SEGMENT
__Ptr$ = 8						; size = 4
___formal$ = 12						; size = 4
?deallocate@?$allocator@PAVioWeapon@@@std@@QAEXPAPAVioWeapon@@I@Z PROC ; std::allocator<ioWeapon *>::deallocate, COMDAT
; _this$ = ecx

; 181  : 		{	// deallocate object at _Ptr, ignore size

  00000	55		 push	 ebp
  00001	8b ec		 mov	 ebp, esp

; 182  : 		::operator delete(_Ptr);

  00003	ff 75 08	 push	 DWORD PTR __Ptr$[ebp]
  00006	e8 00 00 00 00	 call	 ??3@YAXPAX@Z		; operator delete
  0000b	59		 pop	 ecx

; 183  : 		}

  0000c	5d		 pop	 ebp
  0000d	c2 08 00	 ret	 8
?deallocate@?$allocator@PAVioWeapon@@@std@@QAEXPAPAVioWeapon@@I@Z ENDP ; std::allocator<ioWeapon *>::deallocate
_TEXT	ENDS
PUBLIC	?_Prevnode@?$_List_val@MV?$allocator@M@std@@@std@@SAAAPAU_Node@?$_List_nod@MV?$allocator@M@std@@@2@PAU342@@Z ; std::_List_val<float,std::allocator<float> >::_Prevnode
; Function compile flags: /Ogsp
; File c:\program files (x86)\microsoft visual studio 10.0\vc\include\list
;	COMDAT ?_Prevnode@?$_List_val@MV?$allocator@M@std@@@std@@SAAAPAU_Node@?$_List_nod@MV?$allocator@M@std@@@2@PAU342@@Z
_TEXT	SEGMENT
__Pnode$ = 8						; size = 4
?_Prevnode@?$_List_val@MV?$allocator@M@std@@@std@@SAAAPAU_Node@?$_List_nod@MV?$allocator@M@std@@@2@PAU342@@Z PROC ; std::_List_val<float,std::allocator<float> >::_Prevnode, COMDAT

; 565  : 		{	// return reference to predecessor pointer in node

  00000	55		 push	 ebp
  00001	8b ec		 mov	 ebp, esp

; 566  : 		return ((_Nodepref)(*_Pnode)._Prev);

  00003	8b 45 08	 mov	 eax, DWORD PTR __Pnode$[ebp]
  00006	83 c0 04	 add	 eax, 4

; 567  : 		}

  00009	5d		 pop	 ebp
  0000a	c3		 ret	 0
?_Prevnode@?$_List_val@MV?$allocator@M@std@@@std@@SAAAPAU_Node@?$_List_nod@MV?$allocator@M@std@@@2@PAU342@@Z ENDP ; std::_List_val<float,std::allocator<float> >::_Prevnode
_TEXT	ENDS
PUBLIC	?_Myval@?$_List_val@MV?$allocator@M@std@@@std@@SAAAMPAU_Node@?$_List_nod@MV?$allocator@M@std@@@2@@Z ; std::_List_val<float,std::allocator<float> >::_Myval
; Function compile flags: /Ogsp
;	COMDAT ?_Myval@?$_List_val@MV?$allocator@M@std@@@std@@SAAAMPAU_Node@?$_List_nod@MV?$allocator@M@std@@@2@@Z
_TEXT	SEGMENT
__Pnode$ = 8						; size = 4
?_Myval@?$_List_val@MV?$allocator@M@std@@@std@@SAAAMPAU_Node@?$_List_nod@MV?$allocator@M@std@@@2@@Z PROC ; std::_List_val<float,std::allocator<float> >::_Myval, COMDAT

; 570  : 		{	// return reference to value in node

  00000	55		 push	 ebp
  00001	8b ec		 mov	 ebp, esp

; 571  : 		return ((reference)(*_Pnode)._Myval);

  00003	8b 45 08	 mov	 eax, DWORD PTR __Pnode$[ebp]
  00006	83 c0 08	 add	 eax, 8

; 572  : 		}

  00009	5d		 pop	 ebp
  0000a	c3		 ret	 0
?_Myval@?$_List_val@MV?$allocator@M@std@@@std@@SAAAMPAU_Node@?$_List_nod@MV?$allocator@M@std@@@2@@Z ENDP ; std::_List_val<float,std::allocator<float> >::_Myval
_TEXT	ENDS
PUBLIC	?deallocate@?$allocator@U_Node@?$_List_nod@MV?$allocator@M@std@@@std@@@std@@QAEXPAU_Node@?$_List_nod@MV?$allocator@M@std@@@2@I@Z ; std::allocator<std::_List_nod<float,std::allocator<float> >::_Node>::deallocate
; Function compile flags: /Ogsp
; File c:\program files (x86)\microsoft visual studio 10.0\vc\include\xmemory
;	COMDAT ?deallocate@?$allocator@U_Node@?$_List_nod@MV?$allocator@M@std@@@std@@@std@@QAEXPAU_Node@?$_List_nod@MV?$allocator@M@std@@@2@I@Z
_TEXT	SEGMENT
__Ptr$ = 8						; size = 4
___formal$ = 12						; size = 4
?deallocate@?$allocator@U_Node@?$_List_nod@MV?$allocator@M@std@@@std@@@std@@QAEXPAU_Node@?$_List_nod@MV?$allocator@M@std@@@2@I@Z PROC ; std::allocator<std::_List_nod<float,std::allocator<float> >::_Node>::deallocate, COMDAT
; _this$ = ecx

; 181  : 		{	// deallocate object at _Ptr, ignore size

  00000	55		 push	 ebp
  00001	8b ec		 mov	 ebp, esp

; 182  : 		::operator delete(_Ptr);

  00003	ff 75 08	 push	 DWORD PTR __Ptr$[ebp]
  00006	e8 00 00 00 00	 call	 ??3@YAXPAX@Z		; operator delete
  0000b	59		 pop	 ecx

; 183  : 		}

  0000c	5d		 pop	 ebp
  0000d	c2 08 00	 ret	 8
?deallocate@?$allocator@U_Node@?$_List_nod@MV?$allocator@M@std@@@std@@@std@@QAEXPAU_Node@?$_List_nod@MV?$allocator@M@std@@@2@I@Z ENDP ; std::allocator<std::_List_nod<float,std::allocator<float> >::_Node>::deallocate
_TEXT	ENDS
PUBLIC	??0?$allocator@UOutLineRecord@@@std@@QAE@ABV01@@Z ; std::allocator<OutLineRecord>::allocator<OutLineRecord>
; Function compile flags: /Ogsp
;	COMDAT ??0?$allocator@UOutLineRecord@@@std@@QAE@ABV01@@Z
_TEXT	SEGMENT
___formal$ = 8						; size = 4
??0?$allocator@UOutLineRecord@@@std@@QAE@ABV01@@Z PROC	; std::allocator<OutLineRecord>::allocator<OutLineRecord>, COMDAT
; _this$ = ecx

; 165  : 	_ALLOCATOR(const _ALLOCATOR<_Ty>&) _THROW0()

  00000	8b c1		 mov	 eax, ecx

; 166  : 		{	// construct by copying (do nothing)
; 167  : 		}

  00002	c2 04 00	 ret	 4
??0?$allocator@UOutLineRecord@@@std@@QAE@ABV01@@Z ENDP	; std::allocator<OutLineRecord>::allocator<OutLineRecord>
_TEXT	ENDS
PUBLIC	??0?$allocator@UCreatePushStructInfo@@@std@@QAE@ABV01@@Z ; std::allocator<CreatePushStructInfo>::allocator<CreatePushStructInfo>
; Function compile flags: /Ogsp
;	COMDAT ??0?$allocator@UCreatePushStructInfo@@@std@@QAE@ABV01@@Z
_TEXT	SEGMENT
___formal$ = 8						; size = 4
??0?$allocator@UCreatePushStructInfo@@@std@@QAE@ABV01@@Z PROC ; std::allocator<CreatePushStructInfo>::allocator<CreatePushStructInfo>, COMDAT
; _this$ = ecx

; 165  : 	_ALLOCATOR(const _ALLOCATOR<_Ty>&) _THROW0()

  00000	8b c1		 mov	 eax, ecx

; 166  : 		{	// construct by copying (do nothing)
; 167  : 		}

  00002	c2 04 00	 ret	 4
??0?$allocator@UCreatePushStructInfo@@@std@@QAE@ABV01@@Z ENDP ; std::allocator<CreatePushStructInfo>::allocator<CreatePushStructInfo>
_TEXT	ENDS
PUBLIC	?max_size@?$allocator@UCreatePushStructInfo@@@std@@QBEIXZ ; std::allocator<CreatePushStructInfo>::max_size
; Function compile flags: /Ogsp
;	COMDAT ?max_size@?$allocator@UCreatePushStructInfo@@@std@@QBEIXZ
_TEXT	SEGMENT
?max_size@?$allocator@UCreatePushStructInfo@@@std@@QBEIXZ PROC ; std::allocator<CreatePushStructInfo>::max_size, COMDAT
; _this$ = ecx

; 218  : 		_SIZT _Count = (_SIZT)(-1) / sizeof (_Ty);
; 219  : 		return (0 < _Count ? _Count : 1);

  00000	b8 cc cc cc 0c	 mov	 eax, 214748364		; 0cccccccH

; 220  : 		}

  00005	c3		 ret	 0
?max_size@?$allocator@UCreatePushStructInfo@@@std@@QBEIXZ ENDP ; std::allocator<CreatePushStructInfo>::max_size
_TEXT	ENDS
PUBLIC	??0?$allocator@UWeaponFireInfo@@@std@@QAE@ABV01@@Z ; std::allocator<WeaponFireInfo>::allocator<WeaponFireInfo>
; Function compile flags: /Ogsp
;	COMDAT ??0?$allocator@UWeaponFireInfo@@@std@@QAE@ABV01@@Z
_TEXT	SEGMENT
___formal$ = 8						; size = 4
??0?$allocator@UWeaponFireInfo@@@std@@QAE@ABV01@@Z PROC	; std::allocator<WeaponFireInfo>::allocator<WeaponFireInfo>, COMDAT
; _this$ = ecx

; 165  : 	_ALLOCATOR(const _ALLOCATOR<_Ty>&) _THROW0()

  00000	8b c1		 mov	 eax, ecx

; 166  : 		{	// construct by copying (do nothing)
; 167  : 		}

  00002	c2 04 00	 ret	 4
??0?$allocator@UWeaponFireInfo@@@std@@QAE@ABV01@@Z ENDP	; std::allocator<WeaponFireInfo>::allocator<WeaponFireInfo>
_TEXT	ENDS
PUBLIC	?max_size@?$allocator@UWeaponFireInfo@@@std@@QBEIXZ ; std::allocator<WeaponFireInfo>::max_size
; Function compile flags: /Ogsp
;	COMDAT ?max_size@?$allocator@UWeaponFireInfo@@@std@@QBEIXZ
_TEXT	SEGMENT
?max_size@?$allocator@UWeaponFireInfo@@@std@@QBEIXZ PROC ; std::allocator<WeaponFireInfo>::max_size, COMDAT
; _this$ = ecx

; 218  : 		_SIZT _Count = (_SIZT)(-1) / sizeof (_Ty);
; 219  : 		return (0 < _Count ? _Count : 1);

  00000	b8 55 55 55 05	 mov	 eax, 89478485		; 05555555H

; 220  : 		}

  00005	c3		 ret	 0
?max_size@?$allocator@UWeaponFireInfo@@@std@@QBEIXZ ENDP ; std::allocator<WeaponFireInfo>::max_size
_TEXT	ENDS
PUBLIC	??0?$_Vector_const_iterator@V?$_Vector_val@PAVioGameEntity@@V?$allocator@PAVioGameEntity@@@std@@@std@@@std@@QAE@PAPAVioGameEntity@@PBU_Container_base0@1@@Z ; std::_Vector_const_iterator<std::_Vector_val<ioGameEntity *,std::allocator<ioGameEntity *> > >::_Vector_const_iterator<std::_Vector_val<ioGameEntity *,std::allocator<ioGameEntity *> > >
; Function compile flags: /Ogsp
; File c:\program files (x86)\microsoft visual studio 10.0\vc\include\vector
;	COMDAT ??0?$_Vector_const_iterator@V?$_Vector_val@PAVioGameEntity@@V?$allocator@PAVioGameEntity@@@std@@@std@@@std@@QAE@PAPAVioGameEntity@@PBU_Container_base0@1@@Z
_TEXT	SEGMENT
__Parg$ = 8						; size = 4
__Pvector$ = 12						; size = 4
??0?$_Vector_const_iterator@V?$_Vector_val@PAVioGameEntity@@V?$allocator@PAVioGameEntity@@@std@@@std@@@std@@QAE@PAPAVioGameEntity@@PBU_Container_base0@1@@Z PROC ; std::_Vector_const_iterator<std::_Vector_val<ioGameEntity *,std::allocator<ioGameEntity *> > >::_Vector_const_iterator<std::_Vector_val<ioGameEntity *,std::allocator<ioGameEntity *> > >, COMDAT
; _this$ = ecx

; 45   : 		{	// construct with pointer _Parg

  00000	55		 push	 ebp
  00001	8b ec		 mov	 ebp, esp
  00003	8b c1		 mov	 eax, ecx
  00005	8b 4d 08	 mov	 ecx, DWORD PTR __Parg$[ebp]
  00008	89 08		 mov	 DWORD PTR [eax], ecx

; 46   : 		this->_Adopt(_Pvector);
; 47   : 		}

  0000a	5d		 pop	 ebp
  0000b	c2 08 00	 ret	 8
??0?$_Vector_const_iterator@V?$_Vector_val@PAVioGameEntity@@V?$allocator@PAVioGameEntity@@@std@@@std@@@std@@QAE@PAPAVioGameEntity@@PBU_Container_base0@1@@Z ENDP ; std::_Vector_const_iterator<std::_Vector_val<ioGameEntity *,std::allocator<ioGameEntity *> > >::_Vector_const_iterator<std::_Vector_val<ioGameEntity *,std::allocator<ioGameEntity *> > >
_TEXT	ENDS
PUBLIC	?_Compat@?$_Vector_const_iterator@V?$_Vector_val@PAVioGameEntity@@V?$allocator@PAVioGameEntity@@@std@@@std@@@std@@QBEXABV12@@Z ; std::_Vector_const_iterator<std::_Vector_val<ioGameEntity *,std::allocator<ioGameEntity *> > >::_Compat
; Function compile flags: /Ogsp
;	COMDAT ?_Compat@?$_Vector_const_iterator@V?$_Vector_val@PAVioGameEntity@@V?$allocator@PAVioGameEntity@@@std@@@std@@@std@@QBEXABV12@@Z
_TEXT	SEGMENT
___formal$ = 8						; size = 4
?_Compat@?$_Vector_const_iterator@V?$_Vector_val@PAVioGameEntity@@V?$allocator@PAVioGameEntity@@@std@@@std@@@std@@QBEXABV12@@Z PROC ; std::_Vector_const_iterator<std::_Vector_val<ioGameEntity *,std::allocator<ioGameEntity *> > >::_Compat, COMDAT
; _this$ = ecx

; 253  : 		}

  00000	c2 04 00	 ret	 4
?_Compat@?$_Vector_const_iterator@V?$_Vector_val@PAVioGameEntity@@V?$allocator@PAVioGameEntity@@@std@@@std@@@std@@QBEXABV12@@Z ENDP ; std::_Vector_const_iterator<std::_Vector_val<ioGameEntity *,std::allocator<ioGameEntity *> > >::_Compat
_TEXT	ENDS
PUBLIC	?_Compat@?$_Vector_const_iterator@V?$_Vector_val@PAVioBaseChar@@V?$allocator@PAVioBaseChar@@@std@@@std@@@std@@QBEXABV12@@Z ; std::_Vector_const_iterator<std::_Vector_val<ioBaseChar *,std::allocator<ioBaseChar *> > >::_Compat
; Function compile flags: /Ogsp
;	COMDAT ?_Compat@?$_Vector_const_iterator@V?$_Vector_val@PAVioBaseChar@@V?$allocator@PAVioBaseChar@@@std@@@std@@@std@@QBEXABV12@@Z
_TEXT	SEGMENT
___formal$ = 8						; size = 4
?_Compat@?$_Vector_const_iterator@V?$_Vector_val@PAVioBaseChar@@V?$allocator@PAVioBaseChar@@@std@@@std@@@std@@QBEXABV12@@Z PROC ; std::_Vector_const_iterator<std::_Vector_val<ioBaseChar *,std::allocator<ioBaseChar *> > >::_Compat, COMDAT
; _this$ = ecx

; 253  : 		}

  00000	c2 04 00	 ret	 4
?_Compat@?$_Vector_const_iterator@V?$_Vector_val@PAVioBaseChar@@V?$allocator@PAVioBaseChar@@@std@@@std@@@std@@QBEXABV12@@Z ENDP ; std::_Vector_const_iterator<std::_Vector_val<ioBaseChar *,std::allocator<ioBaseChar *> > >::_Compat
_TEXT	ENDS
PUBLIC	??0?$allocator@PBUAniEventTime@@@std@@QAE@ABV01@@Z ; std::allocator<AniEventTime const *>::allocator<AniEventTime const *>
; Function compile flags: /Ogsp
; File c:\program files (x86)\microsoft visual studio 10.0\vc\include\xmemory
;	COMDAT ??0?$allocator@PBUAniEventTime@@@std@@QAE@ABV01@@Z
_TEXT	SEGMENT
___formal$ = 8						; size = 4
??0?$allocator@PBUAniEventTime@@@std@@QAE@ABV01@@Z PROC	; std::allocator<AniEventTime const *>::allocator<AniEventTime const *>, COMDAT
; _this$ = ecx

; 165  : 	_ALLOCATOR(const _ALLOCATOR<_Ty>&) _THROW0()

  00000	8b c1		 mov	 eax, ecx

; 166  : 		{	// construct by copying (do nothing)
; 167  : 		}

  00002	c2 04 00	 ret	 4
??0?$allocator@PBUAniEventTime@@@std@@QAE@ABV01@@Z ENDP	; std::allocator<AniEventTime const *>::allocator<AniEventTime const *>
_TEXT	ENDS
PUBLIC	?deallocate@?$allocator@PBUAniEventTime@@@std@@QAEXPAPBUAniEventTime@@I@Z ; std::allocator<AniEventTime const *>::deallocate
; Function compile flags: /Ogsp
;	COMDAT ?deallocate@?$allocator@PBUAniEventTime@@@std@@QAEXPAPBUAniEventTime@@I@Z
_TEXT	SEGMENT
__Ptr$ = 8						; size = 4
___formal$ = 12						; size = 4
?deallocate@?$allocator@PBUAniEventTime@@@std@@QAEXPAPBUAniEventTime@@I@Z PROC ; std::allocator<AniEventTime const *>::deallocate, COMDAT
; _this$ = ecx

; 181  : 		{	// deallocate object at _Ptr, ignore size

  00000	55		 push	 ebp
  00001	8b ec		 mov	 ebp, esp

; 182  : 		::operator delete(_Ptr);

  00003	ff 75 08	 push	 DWORD PTR __Ptr$[ebp]
  00006	e8 00 00 00 00	 call	 ??3@YAXPAX@Z		; operator delete
  0000b	59		 pop	 ecx

; 183  : 		}

  0000c	5d		 pop	 ebp
  0000d	c2 08 00	 ret	 8
?deallocate@?$allocator@PBUAniEventTime@@@std@@QAEXPAPBUAniEventTime@@I@Z ENDP ; std::allocator<AniEventTime const *>::deallocate
_TEXT	ENDS
PUBLIC	??0?$_Vector_const_iterator@V?$_Vector_val@PBUAniEventTime@@V?$allocator@PBUAniEventTime@@@std@@@std@@@std@@QAE@PAPBUAniEventTime@@PBU_Container_base0@1@@Z ; std::_Vector_const_iterator<std::_Vector_val<AniEventTime const *,std::allocator<AniEventTime const *> > >::_Vector_const_iterator<std::_Vector_val<AniEventTime const *,std::allocator<AniEventTime const *> > >
; Function compile flags: /Ogsp
; File c:\program files (x86)\microsoft visual studio 10.0\vc\include\vector
;	COMDAT ??0?$_Vector_const_iterator@V?$_Vector_val@PBUAniEventTime@@V?$allocator@PBUAniEventTime@@@std@@@std@@@std@@QAE@PAPBUAniEventTime@@PBU_Container_base0@1@@Z
_TEXT	SEGMENT
__Parg$ = 8						; size = 4
__Pvector$ = 12						; size = 4
??0?$_Vector_const_iterator@V?$_Vector_val@PBUAniEventTime@@V?$allocator@PBUAniEventTime@@@std@@@std@@@std@@QAE@PAPBUAniEventTime@@PBU_Container_base0@1@@Z PROC ; std::_Vector_const_iterator<std::_Vector_val<AniEventTime const *,std::allocator<AniEventTime const *> > >::_Vector_const_iterator<std::_Vector_val<AniEventTime const *,std::allocator<AniEventTime const *> > >, COMDAT
; _this$ = ecx

; 45   : 		{	// construct with pointer _Parg

  00000	55		 push	 ebp
  00001	8b ec		 mov	 ebp, esp
  00003	8b c1		 mov	 eax, ecx
  00005	8b 4d 08	 mov	 ecx, DWORD PTR __Parg$[ebp]
  00008	89 08		 mov	 DWORD PTR [eax], ecx

; 46   : 		this->_Adopt(_Pvector);
; 47   : 		}

  0000a	5d		 pop	 ebp
  0000b	c2 08 00	 ret	 8
??0?$_Vector_const_iterator@V?$_Vector_val@PBUAniEventTime@@V?$allocator@PBUAniEventTime@@@std@@@std@@@std@@QAE@PAPBUAniEventTime@@PBU_Container_base0@1@@Z ENDP ; std::_Vector_const_iterator<std::_Vector_val<AniEventTime const *,std::allocator<AniEventTime const *> > >::_Vector_const_iterator<std::_Vector_val<AniEventTime const *,std::allocator<AniEventTime const *> > >
_TEXT	ENDS
PUBLIC	??0?$_List_unchecked_const_iterator@V?$_List_val@UOutLineRecord@@V?$allocator@UOutLineRecord@@@std@@@std@@U_Iterator_base0@2@@std@@QAE@XZ ; std::_List_unchecked_const_iterator<std::_List_val<OutLineRecord,std::allocator<OutLineRecord> >,std::_Iterator_base0>::_List_unchecked_const_iterator<std::_List_val<OutLineRecord,std::allocator<OutLineRecord> >,std::_Iterator_base0>
; Function compile flags: /Ogsp
; File c:\program files (x86)\microsoft visual studio 10.0\vc\include\list
;	COMDAT ??0?$_List_unchecked_const_iterator@V?$_List_val@UOutLineRecord@@V?$allocator@UOutLineRecord@@@std@@@std@@U_Iterator_base0@2@@std@@QAE@XZ
_TEXT	SEGMENT
??0?$_List_unchecked_const_iterator@V?$_List_val@UOutLineRecord@@V?$allocator@UOutLineRecord@@@std@@@std@@U_Iterator_base0@2@@std@@QAE@XZ PROC ; std::_List_unchecked_const_iterator<std::_List_val<OutLineRecord,std::allocator<OutLineRecord> >,std::_Iterator_base0>::_List_unchecked_const_iterator<std::_List_val<OutLineRecord,std::allocator<OutLineRecord> >,std::_Iterator_base0>, COMDAT
; _this$ = ecx

; 36   : 		{	// construct with null node pointer

  00000	8b c1		 mov	 eax, ecx
  00002	83 20 00	 and	 DWORD PTR [eax], 0

; 37   : 		}

  00005	c3		 ret	 0
??0?$_List_unchecked_const_iterator@V?$_List_val@UOutLineRecord@@V?$allocator@UOutLineRecord@@@std@@@std@@U_Iterator_base0@2@@std@@QAE@XZ ENDP ; std::_List_unchecked_const_iterator<std::_List_val<OutLineRecord,std::allocator<OutLineRecord> >,std::_Iterator_base0>::_List_unchecked_const_iterator<std::_List_val<OutLineRecord,std::allocator<OutLineRecord> >,std::_Iterator_base0>
_TEXT	ENDS
PUBLIC	?_Myval@?$_List_val@UOutLineRecord@@V?$allocator@UOutLineRecord@@@std@@@std@@SAAAUOutLineRecord@@PAU_Node@?$_List_nod@UOutLineRecord@@V?$allocator@UOutLineRecord@@@std@@@2@@Z ; std::_List_val<OutLineRecord,std::allocator<OutLineRecord> >::_Myval
; Function compile flags: /Ogsp
;	COMDAT ?_Myval@?$_List_val@UOutLineRecord@@V?$allocator@UOutLineRecord@@@std@@@std@@SAAAUOutLineRecord@@PAU_Node@?$_List_nod@UOutLineRecord@@V?$allocator@UOutLineRecord@@@std@@@2@@Z
_TEXT	SEGMENT
__Pnode$ = 8						; size = 4
?_Myval@?$_List_val@UOutLineRecord@@V?$allocator@UOutLineRecord@@@std@@@std@@SAAAUOutLineRecord@@PAU_Node@?$_List_nod@UOutLineRecord@@V?$allocator@UOutLineRecord@@@std@@@2@@Z PROC ; std::_List_val<OutLineRecord,std::allocator<OutLineRecord> >::_Myval, COMDAT

; 570  : 		{	// return reference to value in node

  00000	55		 push	 ebp
  00001	8b ec		 mov	 ebp, esp

; 571  : 		return ((reference)(*_Pnode)._Myval);

  00003	8b 45 08	 mov	 eax, DWORD PTR __Pnode$[ebp]
  00006	83 c0 08	 add	 eax, 8

; 572  : 		}

  00009	5d		 pop	 ebp
  0000a	c3		 ret	 0
?_Myval@?$_List_val@UOutLineRecord@@V?$allocator@UOutLineRecord@@@std@@@std@@SAAAUOutLineRecord@@PAU_Node@?$_List_nod@UOutLineRecord@@V?$allocator@UOutLineRecord@@@std@@@2@@Z ENDP ; std::_List_val<OutLineRecord,std::allocator<OutLineRecord> >::_Myval
_TEXT	ENDS
PUBLIC	??0?$_List_unchecked_const_iterator@V?$_List_val@MV?$allocator@M@std@@@std@@U_Iterator_base0@2@@std@@QAE@PAU_Node@?$_List_nod@MV?$allocator@M@std@@@1@PBV?$_List_val@MV?$allocator@M@std@@@1@@Z ; std::_List_unchecked_const_iterator<std::_List_val<float,std::allocator<float> >,std::_Iterator_base0>::_List_unchecked_const_iterator<std::_List_val<float,std::allocator<float> >,std::_Iterator_base0>
; Function compile flags: /Ogsp
;	COMDAT ??0?$_List_unchecked_const_iterator@V?$_List_val@MV?$allocator@M@std@@@std@@U_Iterator_base0@2@@std@@QAE@PAU_Node@?$_List_nod@MV?$allocator@M@std@@@1@PBV?$_List_val@MV?$allocator@M@std@@@1@@Z
_TEXT	SEGMENT
__Pnode$ = 8						; size = 4
__Plist$ = 12						; size = 4
??0?$_List_unchecked_const_iterator@V?$_List_val@MV?$allocator@M@std@@@std@@U_Iterator_base0@2@@std@@QAE@PAU_Node@?$_List_nod@MV?$allocator@M@std@@@1@PBV?$_List_val@MV?$allocator@M@std@@@1@@Z PROC ; std::_List_unchecked_const_iterator<std::_List_val<float,std::allocator<float> >,std::_Iterator_base0>::_List_unchecked_const_iterator<std::_List_val<float,std::allocator<float> >,std::_Iterator_base0>, COMDAT
; _this$ = ecx

; 41   : 		{	// construct with node pointer _Pnode

  00000	55		 push	 ebp
  00001	8b ec		 mov	 ebp, esp
  00003	8b c1		 mov	 eax, ecx
  00005	8b 4d 08	 mov	 ecx, DWORD PTR __Pnode$[ebp]
  00008	89 08		 mov	 DWORD PTR [eax], ecx

; 42   : 		this->_Adopt(_Plist);
; 43   : 		}

  0000a	5d		 pop	 ebp
  0000b	c2 08 00	 ret	 8
??0?$_List_unchecked_const_iterator@V?$_List_val@MV?$allocator@M@std@@@std@@U_Iterator_base0@2@@std@@QAE@PAU_Node@?$_List_nod@MV?$allocator@M@std@@@1@PBV?$_List_val@MV?$allocator@M@std@@@1@@Z ENDP ; std::_List_unchecked_const_iterator<std::_List_val<float,std::allocator<float> >,std::_Iterator_base0>::_List_unchecked_const_iterator<std::_List_val<float,std::allocator<float> >,std::_Iterator_base0>
_TEXT	ENDS
PUBLIC	??0?$_List_unchecked_const_iterator@V?$_List_val@UOutLineRecord@@V?$allocator@UOutLineRecord@@@std@@@std@@U_Iterator_base0@2@@std@@QAE@PAU_Node@?$_List_nod@UOutLineRecord@@V?$allocator@UOutLineRecord@@@std@@@1@PBV?$_List_val@UOutLineRecord@@V?$allocator@UOutLineRecord@@@std@@@1@@Z ; std::_List_unchecked_const_iterator<std::_List_val<OutLineRecord,std::allocator<OutLineRecord> >,std::_Iterator_base0>::_List_unchecked_const_iterator<std::_List_val<OutLineRecord,std::allocator<OutLineRecord> >,std::_Iterator_base0>
; Function compile flags: /Ogsp
;	COMDAT ??0?$_List_unchecked_const_iterator@V?$_List_val@UOutLineRecord@@V?$allocator@UOutLineRecord@@@std@@@std@@U_Iterator_base0@2@@std@@QAE@PAU_Node@?$_List_nod@UOutLineRecord@@V?$allocator@UOutLineRecord@@@std@@@1@PBV?$_List_val@UOutLineRecord@@V?$allocator@UOutLineRecord@@@std@@@1@@Z
_TEXT	SEGMENT
__Pnode$ = 8						; size = 4
__Plist$ = 12						; size = 4
??0?$_List_unchecked_const_iterator@V?$_List_val@UOutLineRecord@@V?$allocator@UOutLineRecord@@@std@@@std@@U_Iterator_base0@2@@std@@QAE@PAU_Node@?$_List_nod@UOutLineRecord@@V?$allocator@UOutLineRecord@@@std@@@1@PBV?$_List_val@UOutLineRecord@@V?$allocator@UOutLineRecord@@@std@@@1@@Z PROC ; std::_List_unchecked_const_iterator<std::_List_val<OutLineRecord,std::allocator<OutLineRecord> >,std::_Iterator_base0>::_List_unchecked_const_iterator<std::_List_val<OutLineRecord,std::allocator<OutLineRecord> >,std::_Iterator_base0>, COMDAT
; _this$ = ecx

; 41   : 		{	// construct with node pointer _Pnode

  00000	55		 push	 ebp
  00001	8b ec		 mov	 ebp, esp
  00003	8b c1		 mov	 eax, ecx
  00005	8b 4d 08	 mov	 ecx, DWORD PTR __Pnode$[ebp]
  00008	89 08		 mov	 DWORD PTR [eax], ecx

; 42   : 		this->_Adopt(_Plist);
; 43   : 		}

  0000a	5d		 pop	 ebp
  0000b	c2 08 00	 ret	 8
??0?$_List_unchecked_const_iterator@V?$_List_val@UOutLineRecord@@V?$allocator@UOutLineRecord@@@std@@@std@@U_Iterator_base0@2@@std@@QAE@PAU_Node@?$_List_nod@UOutLineRecord@@V?$allocator@UOutLineRecord@@@std@@@1@PBV?$_List_val@UOutLineRecord@@V?$allocator@UOutLineRecord@@@std@@@1@@Z ENDP ; std::_List_unchecked_const_iterator<std::_List_val<OutLineRecord,std::allocator<OutLineRecord> >,std::_Iterator_base0>::_List_unchecked_const_iterator<std::_List_val<OutLineRecord,std::allocator<OutLineRecord> >,std::_Iterator_base0>
_TEXT	ENDS
PUBLIC	??0?$_Vector_const_iterator@V?$_Vector_val@PAVioWeapon@@V?$allocator@PAVioWeapon@@@std@@@std@@@std@@QAE@PAPAVioWeapon@@PBU_Container_base0@1@@Z ; std::_Vector_const_iterator<std::_Vector_val<ioWeapon *,std::allocator<ioWeapon *> > >::_Vector_const_iterator<std::_Vector_val<ioWeapon *,std::allocator<ioWeapon *> > >
; Function compile flags: /Ogsp
; File c:\program files (x86)\microsoft visual studio 10.0\vc\include\vector
;	COMDAT ??0?$_Vector_const_iterator@V?$_Vector_val@PAVioWeapon@@V?$allocator@PAVioWeapon@@@std@@@std@@@std@@QAE@PAPAVioWeapon@@PBU_Container_base0@1@@Z
_TEXT	SEGMENT
__Parg$ = 8						; size = 4
__Pvector$ = 12						; size = 4
??0?$_Vector_const_iterator@V?$_Vector_val@PAVioWeapon@@V?$allocator@PAVioWeapon@@@std@@@std@@@std@@QAE@PAPAVioWeapon@@PBU_Container_base0@1@@Z PROC ; std::_Vector_const_iterator<std::_Vector_val<ioWeapon *,std::allocator<ioWeapon *> > >::_Vector_const_iterator<std::_Vector_val<ioWeapon *,std::allocator<ioWeapon *> > >, COMDAT
; _this$ = ecx

; 45   : 		{	// construct with pointer _Parg

  00000	55		 push	 ebp
  00001	8b ec		 mov	 ebp, esp
  00003	8b c1		 mov	 eax, ecx
  00005	8b 4d 08	 mov	 ecx, DWORD PTR __Parg$[ebp]
  00008	89 08		 mov	 DWORD PTR [eax], ecx

; 46   : 		this->_Adopt(_Pvector);
; 47   : 		}

  0000a	5d		 pop	 ebp
  0000b	c2 08 00	 ret	 8
??0?$_Vector_const_iterator@V?$_Vector_val@PAVioWeapon@@V?$allocator@PAVioWeapon@@@std@@@std@@@std@@QAE@PAPAVioWeapon@@PBU_Container_base0@1@@Z ENDP ; std::_Vector_const_iterator<std::_Vector_val<ioWeapon *,std::allocator<ioWeapon *> > >::_Vector_const_iterator<std::_Vector_val<ioWeapon *,std::allocator<ioWeapon *> > >
_TEXT	ENDS
PUBLIC	??0?$_Vector_const_iterator@V?$_Vector_val@UCreatePushStructInfo@@V?$allocator@UCreatePushStructInfo@@@std@@@std@@@std@@QAE@PAUCreatePushStructInfo@@PBU_Container_base0@1@@Z ; std::_Vector_const_iterator<std::_Vector_val<CreatePushStructInfo,std::allocator<CreatePushStructInfo> > >::_Vector_const_iterator<std::_Vector_val<CreatePushStructInfo,std::allocator<CreatePushStructInfo> > >
; Function compile flags: /Ogsp
;	COMDAT ??0?$_Vector_const_iterator@V?$_Vector_val@UCreatePushStructInfo@@V?$allocator@UCreatePushStructInfo@@@std@@@std@@@std@@QAE@PAUCreatePushStructInfo@@PBU_Container_base0@1@@Z
_TEXT	SEGMENT
__Parg$ = 8						; size = 4
__Pvector$ = 12						; size = 4
??0?$_Vector_const_iterator@V?$_Vector_val@UCreatePushStructInfo@@V?$allocator@UCreatePushStructInfo@@@std@@@std@@@std@@QAE@PAUCreatePushStructInfo@@PBU_Container_base0@1@@Z PROC ; std::_Vector_const_iterator<std::_Vector_val<CreatePushStructInfo,std::allocator<CreatePushStructInfo> > >::_Vector_const_iterator<std::_Vector_val<CreatePushStructInfo,std::allocator<CreatePushStructInfo> > >, COMDAT
; _this$ = ecx

; 45   : 		{	// construct with pointer _Parg

  00000	55		 push	 ebp
  00001	8b ec		 mov	 ebp, esp
  00003	8b c1		 mov	 eax, ecx
  00005	8b 4d 08	 mov	 ecx, DWORD PTR __Parg$[ebp]
  00008	89 08		 mov	 DWORD PTR [eax], ecx

; 46   : 		this->_Adopt(_Pvector);
; 47   : 		}

  0000a	5d		 pop	 ebp
  0000b	c2 08 00	 ret	 8
??0?$_Vector_const_iterator@V?$_Vector_val@UCreatePushStructInfo@@V?$allocator@UCreatePushStructInfo@@@std@@@std@@@std@@QAE@PAUCreatePushStructInfo@@PBU_Container_base0@1@@Z ENDP ; std::_Vector_const_iterator<std::_Vector_val<CreatePushStructInfo,std::allocator<CreatePushStructInfo> > >::_Vector_const_iterator<std::_Vector_val<CreatePushStructInfo,std::allocator<CreatePushStructInfo> > >
_TEXT	ENDS
PUBLIC	??0?$_Vector_const_iterator@V?$_Vector_val@UWeaponFireInfo@@V?$allocator@UWeaponFireInfo@@@std@@@std@@@std@@QAE@PAUWeaponFireInfo@@PBU_Container_base0@1@@Z ; std::_Vector_const_iterator<std::_Vector_val<WeaponFireInfo,std::allocator<WeaponFireInfo> > >::_Vector_const_iterator<std::_Vector_val<WeaponFireInfo,std::allocator<WeaponFireInfo> > >
; Function compile flags: /Ogsp
;	COMDAT ??0?$_Vector_const_iterator@V?$_Vector_val@UWeaponFireInfo@@V?$allocator@UWeaponFireInfo@@@std@@@std@@@std@@QAE@PAUWeaponFireInfo@@PBU_Container_base0@1@@Z
_TEXT	SEGMENT
__Parg$ = 8						; size = 4
__Pvector$ = 12						; size = 4
??0?$_Vector_const_iterator@V?$_Vector_val@UWeaponFireInfo@@V?$allocator@UWeaponFireInfo@@@std@@@std@@@std@@QAE@PAUWeaponFireInfo@@PBU_Container_base0@1@@Z PROC ; std::_Vector_const_iterator<std::_Vector_val<WeaponFireInfo,std::allocator<WeaponFireInfo> > >::_Vector_const_iterator<std::_Vector_val<WeaponFireInfo,std::allocator<WeaponFireInfo> > >, COMDAT
; _this$ = ecx

; 45   : 		{	// construct with pointer _Parg

  00000	55		 push	 ebp
  00001	8b ec		 mov	 ebp, esp
  00003	8b c1		 mov	 eax, ecx
  00005	8b 4d 08	 mov	 ecx, DWORD PTR __Parg$[ebp]
  00008	89 08		 mov	 DWORD PTR [eax], ecx

; 46   : 		this->_Adopt(_Pvector);
; 47   : 		}

  0000a	5d		 pop	 ebp
  0000b	c2 08 00	 ret	 8
??0?$_Vector_const_iterator@V?$_Vector_val@UWeaponFireInfo@@V?$allocator@UWeaponFireInfo@@@std@@@std@@@std@@QAE@PAUWeaponFireInfo@@PBU_Container_base0@1@@Z ENDP ; std::_Vector_const_iterator<std::_Vector_val<WeaponFireInfo,std::allocator<WeaponFireInfo> > >::_Vector_const_iterator<std::_Vector_val<WeaponFireInfo,std::allocator<WeaponFireInfo> > >
_TEXT	ENDS
PUBLIC	?max_size@?$allocator@UOutLineRecord@@@std@@QBEIXZ ; std::allocator<OutLineRecord>::max_size
; Function compile flags: /Ogsp
; File c:\program files (x86)\microsoft visual studio 10.0\vc\include\xmemory
;	COMDAT ?max_size@?$allocator@UOutLineRecord@@@std@@QBEIXZ
_TEXT	SEGMENT
?max_size@?$allocator@UOutLineRecord@@@std@@QBEIXZ PROC	; std::allocator<OutLineRecord>::max_size, COMDAT
; _this$ = ecx

; 218  : 		_SIZT _Count = (_SIZT)(-1) / sizeof (_Ty);
; 219  : 		return (0 < _Count ? _Count : 1);

  00000	b8 aa aa aa 0a	 mov	 eax, 178956970		; 0aaaaaaaH

; 220  : 		}

  00005	c3		 ret	 0
?max_size@?$allocator@UOutLineRecord@@@std@@QBEIXZ ENDP	; std::allocator<OutLineRecord>::max_size
_TEXT	ENDS
PUBLIC	?_Compat@?$_Vector_const_iterator@V?$_Vector_val@PAVioWeapon@@V?$allocator@PAVioWeapon@@@std@@@std@@@std@@QBEXABV12@@Z ; std::_Vector_const_iterator<std::_Vector_val<ioWeapon *,std::allocator<ioWeapon *> > >::_Compat
; Function compile flags: /Ogsp
; File c:\program files (x86)\microsoft visual studio 10.0\vc\include\vector
;	COMDAT ?_Compat@?$_Vector_const_iterator@V?$_Vector_val@PAVioWeapon@@V?$allocator@PAVioWeapon@@@std@@@std@@@std@@QBEXABV12@@Z
_TEXT	SEGMENT
___formal$ = 8						; size = 4
?_Compat@?$_Vector_const_iterator@V?$_Vector_val@PAVioWeapon@@V?$allocator@PAVioWeapon@@@std@@@std@@@std@@QBEXABV12@@Z PROC ; std::_Vector_const_iterator<std::_Vector_val<ioWeapon *,std::allocator<ioWeapon *> > >::_Compat, COMDAT
; _this$ = ecx

; 253  : 		}

  00000	c2 04 00	 ret	 4
?_Compat@?$_Vector_const_iterator@V?$_Vector_val@PAVioWeapon@@V?$allocator@PAVioWeapon@@@std@@@std@@@std@@QBEXABV12@@Z ENDP ; std::_Vector_const_iterator<std::_Vector_val<ioWeapon *,std::allocator<ioWeapon *> > >::_Compat
_TEXT	ENDS
PUBLIC	?_Compat@?$_Vector_const_iterator@V?$_Vector_val@UCreatePushStructInfo@@V?$allocator@UCreatePushStructInfo@@@std@@@std@@@std@@QBEXABV12@@Z ; std::_Vector_const_iterator<std::_Vector_val<CreatePushStructInfo,std::allocator<CreatePushStructInfo> > >::_Compat
; Function compile flags: /Ogsp
;	COMDAT ?_Compat@?$_Vector_const_iterator@V?$_Vector_val@UCreatePushStructInfo@@V?$allocator@UCreatePushStructInfo@@@std@@@std@@@std@@QBEXABV12@@Z
_TEXT	SEGMENT
___formal$ = 8						; size = 4
?_Compat@?$_Vector_const_iterator@V?$_Vector_val@UCreatePushStructInfo@@V?$allocator@UCreatePushStructInfo@@@std@@@std@@@std@@QBEXABV12@@Z PROC ; std::_Vector_const_iterator<std::_Vector_val<CreatePushStructInfo,std::allocator<CreatePushStructInfo> > >::_Compat, COMDAT
; _this$ = ecx

; 253  : 		}

  00000	c2 04 00	 ret	 4
?_Compat@?$_Vector_const_iterator@V?$_Vector_val@UCreatePushStructInfo@@V?$allocator@UCreatePushStructInfo@@@std@@@std@@@std@@QBEXABV12@@Z ENDP ; std::_Vector_const_iterator<std::_Vector_val<CreatePushStructInfo,std::allocator<CreatePushStructInfo> > >::_Compat
_TEXT	ENDS
PUBLIC	?_Compat@?$_Vector_const_iterator@V?$_Vector_val@UWeaponFireInfo@@V?$allocator@UWeaponFireInfo@@@std@@@std@@@std@@QBEXABV12@@Z ; std::_Vector_const_iterator<std::_Vector_val<WeaponFireInfo,std::allocator<WeaponFireInfo> > >::_Compat
; Function compile flags: /Ogsp
;	COMDAT ?_Compat@?$_Vector_const_iterator@V?$_Vector_val@UWeaponFireInfo@@V?$allocator@UWeaponFireInfo@@@std@@@std@@@std@@QBEXABV12@@Z
_TEXT	SEGMENT
___formal$ = 8						; size = 4
?_Compat@?$_Vector_const_iterator@V?$_Vector_val@UWeaponFireInfo@@V?$allocator@UWeaponFireInfo@@@std@@@std@@@std@@QBEXABV12@@Z PROC ; std::_Vector_const_iterator<std::_Vector_val<WeaponFireInfo,std::allocator<WeaponFireInfo> > >::_Compat, COMDAT
; _this$ = ecx

; 253  : 		}

  00000	c2 04 00	 ret	 4
?_Compat@?$_Vector_const_iterator@V?$_Vector_val@UWeaponFireInfo@@V?$allocator@UWeaponFireInfo@@@std@@@std@@@std@@QBEXABV12@@Z ENDP ; std::_Vector_const_iterator<std::_Vector_val<WeaponFireInfo,std::allocator<WeaponFireInfo> > >::_Compat
_TEXT	ENDS
PUBLIC	__real@3f91df46a2526c7a
PUBLIC	??$DEGtoRAD@M@@YAMM@Z				; DEGtoRAD<float>
;	COMDAT __real@3f91df46a2526c7a
; File d:\lost saga for developer\youtube\tutorial\source\src\lsclient\veryoftenusedefine.h
CONST	SEGMENT
__real@3f91df46a2526c7a DQ 03f91df46a2526c7ar	; 0.0174533
; Function compile flags: /Ogsp
CONST	ENDS
;	COMDAT ??$DEGtoRAD@M@@YAMM@Z
_TEXT	SEGMENT
tv129 = 8						; size = 4
_val$ = 8						; size = 4
??$DEGtoRAD@M@@YAMM@Z PROC				; DEGtoRAD<float>, COMDAT

; 20   : type  DEGtoRAD (type val) {return (type) (val * 0.0174532925199);}

  00000	55		 push	 ebp
  00001	8b ec		 mov	 ebp, esp
  00003	d9 45 08	 fld	 DWORD PTR _val$[ebp]
  00006	dc 0d 00 00 00
	00		 fmul	 QWORD PTR __real@3f91df46a2526c7a
  0000c	d9 5d 08	 fstp	 DWORD PTR tv129[ebp]
  0000f	d9 45 08	 fld	 DWORD PTR tv129[ebp]
  00012	5d		 pop	 ebp
  00013	c3		 ret	 0
??$DEGtoRAD@M@@YAMM@Z ENDP				; DEGtoRAD<float>
_TEXT	ENDS
PUBLIC	??$addressof@$$CBVioHashString@@@std@@YAPBVioHashString@@ABV1@@Z ; std::addressof<ioHashString const >
; Function compile flags: /Ogsp
; File c:\program files (x86)\microsoft visual studio 10.0\vc\include\xmemory
;	COMDAT ??$addressof@$$CBVioHashString@@@std@@YAPBVioHashString@@ABV1@@Z
_TEXT	SEGMENT
__Val$ = 8						; size = 4
??$addressof@$$CBVioHashString@@@std@@YAPBVioHashString@@ABV1@@Z PROC ; std::addressof<ioHashString const >, COMDAT

; 110  : 	{	// return address of _Val

  00000	55		 push	 ebp
  00001	8b ec		 mov	 ebp, esp

; 111  : 	return ((_Ty *) &(char&)_Val);

  00003	8b 45 08	 mov	 eax, DWORD PTR __Val$[ebp]

; 112  : 	}

  00006	5d		 pop	 ebp
  00007	c3		 ret	 0
??$addressof@$$CBVioHashString@@@std@@YAPBVioHashString@@ABV1@@Z ENDP ; std::addressof<ioHashString const >
_TEXT	ENDS
PUBLIC	??$addressof@$$CBH@std@@YAPBHABH@Z		; std::addressof<int const >
; Function compile flags: /Ogsp
;	COMDAT ??$addressof@$$CBH@std@@YAPBHABH@Z
_TEXT	SEGMENT
__Val$ = 8						; size = 4
??$addressof@$$CBH@std@@YAPBHABH@Z PROC			; std::addressof<int const >, COMDAT

; 110  : 	{	// return address of _Val

  00000	55		 push	 ebp
  00001	8b ec		 mov	 ebp, esp

; 111  : 	return ((_Ty *) &(char&)_Val);

  00003	8b 45 08	 mov	 eax, DWORD PTR __Val$[ebp]

; 112  : 	}

  00006	5d		 pop	 ebp
  00007	c3		 ret	 0
??$addressof@$$CBH@std@@YAPBHABH@Z ENDP			; std::addressof<int const >
_TEXT	ENDS
PUBLIC	??$addressof@$$CBUCreatePushStructInfo@@@std@@YAPBUCreatePushStructInfo@@ABU1@@Z ; std::addressof<CreatePushStructInfo const >
; Function compile flags: /Ogsp
;	COMDAT ??$addressof@$$CBUCreatePushStructInfo@@@std@@YAPBUCreatePushStructInfo@@ABU1@@Z
_TEXT	SEGMENT
__Val$ = 8						; size = 4
??$addressof@$$CBUCreatePushStructInfo@@@std@@YAPBUCreatePushStructInfo@@ABU1@@Z PROC ; std::addressof<CreatePushStructInfo const >, COMDAT

; 110  : 	{	// return address of _Val

  00000	55		 push	 ebp
  00001	8b ec		 mov	 ebp, esp

; 111  : 	return ((_Ty *) &(char&)_Val);

  00003	8b 45 08	 mov	 eax, DWORD PTR __Val$[ebp]

; 112  : 	}

  00006	5d		 pop	 ebp
  00007	c3		 ret	 0
??$addressof@$$CBUCreatePushStructInfo@@@std@@YAPBUCreatePushStructInfo@@ABU1@@Z ENDP ; std::addressof<CreatePushStructInfo const >
_TEXT	ENDS
PUBLIC	??$addressof@$$CBUWeaponFireInfo@@@std@@YAPBUWeaponFireInfo@@ABU1@@Z ; std::addressof<WeaponFireInfo const >
; Function compile flags: /Ogsp
;	COMDAT ??$addressof@$$CBUWeaponFireInfo@@@std@@YAPBUWeaponFireInfo@@ABU1@@Z
_TEXT	SEGMENT
__Val$ = 8						; size = 4
??$addressof@$$CBUWeaponFireInfo@@@std@@YAPBUWeaponFireInfo@@ABU1@@Z PROC ; std::addressof<WeaponFireInfo const >, COMDAT

; 110  : 	{	// return address of _Val

  00000	55		 push	 ebp
  00001	8b ec		 mov	 ebp, esp

; 111  : 	return ((_Ty *) &(char&)_Val);

  00003	8b 45 08	 mov	 eax, DWORD PTR __Val$[ebp]

; 112  : 	}

  00006	5d		 pop	 ebp
  00007	c3		 ret	 0
??$addressof@$$CBUWeaponFireInfo@@@std@@YAPBUWeaponFireInfo@@ABU1@@Z ENDP ; std::addressof<WeaponFireInfo const >
_TEXT	ENDS
PUBLIC	__TI2?AVbad_alloc@std@@
PUBLIC	??$_Allocate@UCreatePushStructInfo@@@std@@YAPAUCreatePushStructInfo@@IPAU1@@Z ; std::_Allocate<CreatePushStructInfo>
PUBLIC	__CTA2?AVbad_alloc@std@@
PUBLIC	__CT??_R0?AVbad_alloc@std@@@8??0bad_alloc@std@@QAE@ABV01@@Z12
PUBLIC	??0bad_alloc@std@@QAE@ABV01@@Z			; std::bad_alloc::bad_alloc
PUBLIC	__CT??_R0?AVexception@std@@@8??0exception@std@@QAE@ABV01@@Z12
EXTRN	__CxxThrowException@8:PROC
EXTRN	??0exception@std@@QAE@ABV01@@Z:PROC		; std::exception::exception
;	COMDAT __CT??_R0?AVexception@std@@@8??0exception@std@@QAE@ABV01@@Z12
; File c:\program files (x86)\microsoft visual studio 10.0\vc\include\exception
xdata$x	SEGMENT
__CT??_R0?AVexception@std@@@8??0exception@std@@QAE@ABV01@@Z12 DD 00H
	DD	FLAT:??_R0?AVexception@std@@@8
	DD	00H
	DD	0ffffffffH
	ORG $+4
	DD	0cH
	DD	FLAT:??0exception@std@@QAE@ABV01@@Z
xdata$x	ENDS
;	COMDAT __CT??_R0?AVbad_alloc@std@@@8??0bad_alloc@std@@QAE@ABV01@@Z12
xdata$x	SEGMENT
__CT??_R0?AVbad_alloc@std@@@8??0bad_alloc@std@@QAE@ABV01@@Z12 DD 00H
	DD	FLAT:??_R0?AVbad_alloc@std@@@8
	DD	00H
	DD	0ffffffffH
	ORG $+4
	DD	0cH
	DD	FLAT:??0bad_alloc@std@@QAE@ABV01@@Z
xdata$x	ENDS
;	COMDAT __CTA2?AVbad_alloc@std@@
xdata$x	SEGMENT
__CTA2?AVbad_alloc@std@@ DD 02H
	DD	FLAT:__CT??_R0?AVbad_alloc@std@@@8??0bad_alloc@std@@QAE@ABV01@@Z12
	DD	FLAT:__CT??_R0?AVexception@std@@@8??0exception@std@@QAE@ABV01@@Z12
xdata$x	ENDS
;	COMDAT __TI2?AVbad_alloc@std@@
xdata$x	SEGMENT
__TI2?AVbad_alloc@std@@ DD 00H
	DD	FLAT:??1bad_alloc@std@@UAE@XZ
	DD	00H
	DD	FLAT:__CTA2?AVbad_alloc@std@@
; Function compile flags: /Ogsp
; File c:\program files (x86)\microsoft visual studio 10.0\vc\include\xmemory
xdata$x	ENDS
;	COMDAT ??$_Allocate@UCreatePushStructInfo@@@std@@YAPAUCreatePushStructInfo@@IPAU1@@Z
_TEXT	SEGMENT
$T567362 = -12						; size = 12
$T567367 = 8						; size = 4
__Count$ = 8						; size = 4
___formal$ = 12						; size = 4
??$_Allocate@UCreatePushStructInfo@@@std@@YAPAUCreatePushStructInfo@@IPAU1@@Z PROC ; std::_Allocate<CreatePushStructInfo>, COMDAT

; 30   : 	{	// allocate storage for _Count elements of type _Ty

  00000	55		 push	 ebp
  00001	8b ec		 mov	 ebp, esp

; 31   : 	void *_Ptr = 0;
; 32   : 
; 33   : 	if (_Count <= 0)

  00003	8b 4d 08	 mov	 ecx, DWORD PTR __Count$[ebp]
  00006	83 ec 0c	 sub	 esp, 12			; 0000000cH
  00009	33 c0		 xor	 eax, eax
  0000b	85 c9		 test	 ecx, ecx

; 34   : 		_Count = 0;
; 35   : 	else if (((_SIZT)(-1) / sizeof (_Ty) < _Count)

  0000d	74 3c		 je	 SHORT $LN5@Allocate

; 36   : 		|| (_Ptr = ::operator new(_Count * sizeof (_Ty))) == 0)

  0000f	81 f9 cc cc cc
	0c		 cmp	 ecx, 214748364		; 0cccccccH
  00015	77 0e		 ja	 SHORT $LN1@Allocate
  00017	6b c9 14	 imul	 ecx, 20			; 00000014H
  0001a	51		 push	 ecx
  0001b	e8 00 00 00 00	 call	 ??2@YAPAXI@Z		; operator new
  00020	59		 pop	 ecx
  00021	85 c0		 test	 eax, eax

; 38   : 
; 39   : 	return ((_Ty _FARQ *)_Ptr);

  00023	75 26		 jne	 SHORT $LN5@Allocate
$LN1@Allocate:

; 37   : 		_THROW_NCEE(bad_alloc, 0);

  00025	83 65 08 00	 and	 DWORD PTR $T567367[ebp], 0
  00029	8d 45 08	 lea	 eax, DWORD PTR $T567367[ebp]
  0002c	50		 push	 eax
  0002d	8d 4d f4	 lea	 ecx, DWORD PTR $T567362[ebp]
  00030	ff 15 00 00 00
	00		 call	 DWORD PTR __imp_??0exception@std@@QAE@ABQBD@Z
  00036	68 00 00 00 00	 push	 OFFSET __TI2?AVbad_alloc@std@@
  0003b	8d 45 f4	 lea	 eax, DWORD PTR $T567362[ebp]
  0003e	50		 push	 eax
  0003f	c7 45 f4 00 00
	00 00		 mov	 DWORD PTR $T567362[ebp], OFFSET ??_7bad_alloc@std@@6B@
  00046	e8 00 00 00 00	 call	 __CxxThrowException@8
$LN10@Allocate:
$LN5@Allocate:

; 40   : 	}

  0004b	c9		 leave
  0004c	c3		 ret	 0
$LN9@Allocate:
??$_Allocate@UCreatePushStructInfo@@@std@@YAPAUCreatePushStructInfo@@IPAU1@@Z ENDP ; std::_Allocate<CreatePushStructInfo>
_TEXT	ENDS
PUBLIC	??$_Allocate@UWeaponFireInfo@@@std@@YAPAUWeaponFireInfo@@IPAU1@@Z ; std::_Allocate<WeaponFireInfo>
; Function compile flags: /Ogsp
;	COMDAT ??$_Allocate@UWeaponFireInfo@@@std@@YAPAUWeaponFireInfo@@IPAU1@@Z
_TEXT	SEGMENT
$T567372 = -12						; size = 12
$T567376 = 8						; size = 4
__Count$ = 8						; size = 4
___formal$ = 12						; size = 4
??$_Allocate@UWeaponFireInfo@@@std@@YAPAUWeaponFireInfo@@IPAU1@@Z PROC ; std::_Allocate<WeaponFireInfo>, COMDAT

; 30   : 	{	// allocate storage for _Count elements of type _Ty

  00000	55		 push	 ebp
  00001	8b ec		 mov	 ebp, esp

; 31   : 	void *_Ptr = 0;
; 32   : 
; 33   : 	if (_Count <= 0)

  00003	8b 4d 08	 mov	 ecx, DWORD PTR __Count$[ebp]
  00006	83 ec 0c	 sub	 esp, 12			; 0000000cH
  00009	33 c0		 xor	 eax, eax
  0000b	85 c9		 test	 ecx, ecx

; 34   : 		_Count = 0;
; 35   : 	else if (((_SIZT)(-1) / sizeof (_Ty) < _Count)

  0000d	74 3c		 je	 SHORT $LN5@Allocate@2

; 36   : 		|| (_Ptr = ::operator new(_Count * sizeof (_Ty))) == 0)

  0000f	81 f9 55 55 55
	05		 cmp	 ecx, 89478485		; 05555555H
  00015	77 0e		 ja	 SHORT $LN1@Allocate@2
  00017	6b c9 30	 imul	 ecx, 48			; 00000030H
  0001a	51		 push	 ecx
  0001b	e8 00 00 00 00	 call	 ??2@YAPAXI@Z		; operator new
  00020	59		 pop	 ecx
  00021	85 c0		 test	 eax, eax

; 38   : 
; 39   : 	return ((_Ty _FARQ *)_Ptr);

  00023	75 26		 jne	 SHORT $LN5@Allocate@2
$LN1@Allocate@2:

; 37   : 		_THROW_NCEE(bad_alloc, 0);

  00025	83 65 08 00	 and	 DWORD PTR $T567376[ebp], 0
  00029	8d 45 08	 lea	 eax, DWORD PTR $T567376[ebp]
  0002c	50		 push	 eax
  0002d	8d 4d f4	 lea	 ecx, DWORD PTR $T567372[ebp]
  00030	ff 15 00 00 00
	00		 call	 DWORD PTR __imp_??0exception@std@@QAE@ABQBD@Z
  00036	68 00 00 00 00	 push	 OFFSET __TI2?AVbad_alloc@std@@
  0003b	8d 45 f4	 lea	 eax, DWORD PTR $T567372[ebp]
  0003e	50		 push	 eax
  0003f	c7 45 f4 00 00
	00 00		 mov	 DWORD PTR $T567372[ebp], OFFSET ??_7bad_alloc@std@@6B@
  00046	e8 00 00 00 00	 call	 __CxxThrowException@8
$LN10@Allocate@2:
$LN5@Allocate@2:

; 40   : 	}

  0004b	c9		 leave
  0004c	c3		 ret	 0
$LN9@Allocate@2:
??$_Allocate@UWeaponFireInfo@@@std@@YAPAUWeaponFireInfo@@IPAU1@@Z ENDP ; std::_Allocate<WeaponFireInfo>
_TEXT	ENDS
PUBLIC	??$?0M@?$allocator@U_Node@?$_List_nod@MV?$allocator@M@std@@@std@@@std@@QAE@ABV?$allocator@M@1@@Z ; std::allocator<std::_List_nod<float,std::allocator<float> >::_Node>::allocator<std::_List_nod<float,std::allocator<float> >::_Node><float>
; Function compile flags: /Ogsp
;	COMDAT ??$?0M@?$allocator@U_Node@?$_List_nod@MV?$allocator@M@std@@@std@@@std@@QAE@ABV?$allocator@M@1@@Z
_TEXT	SEGMENT
___formal$ = 8						; size = 4
??$?0M@?$allocator@U_Node@?$_List_nod@MV?$allocator@M@std@@@std@@@std@@QAE@ABV?$allocator@M@1@@Z PROC ; std::allocator<std::_List_nod<float,std::allocator<float> >::_Node>::allocator<std::_List_nod<float,std::allocator<float> >::_Node><float>, COMDAT
; _this$ = ecx

; 170  : 		_ALLOCATOR(const _ALLOCATOR<_Other>&) _THROW0()

  00000	8b c1		 mov	 eax, ecx

; 171  : 		{	// construct from a related allocator (do nothing)
; 172  : 		}

  00002	c2 04 00	 ret	 4
??$?0M@?$allocator@U_Node@?$_List_nod@MV?$allocator@M@std@@@std@@@std@@QAE@ABV?$allocator@M@1@@Z ENDP ; std::allocator<std::_List_nod<float,std::allocator<float> >::_Node>::allocator<std::_List_nod<float,std::allocator<float> >::_Node><float>
_TEXT	ENDS
PUBLIC	??$_Allocate@U_Node@?$_List_nod@MV?$allocator@M@std@@@std@@@std@@YAPAU_Node@?$_List_nod@MV?$allocator@M@std@@@0@IPAU120@@Z ; std::_Allocate<std::_List_nod<float,std::allocator<float> >::_Node>
; Function compile flags: /Ogsp
;	COMDAT ??$_Allocate@U_Node@?$_List_nod@MV?$allocator@M@std@@@std@@@std@@YAPAU_Node@?$_List_nod@MV?$allocator@M@std@@@0@IPAU120@@Z
_TEXT	SEGMENT
$T567384 = -12						; size = 12
$T567388 = 8						; size = 4
__Count$ = 8						; size = 4
___formal$ = 12						; size = 4
??$_Allocate@U_Node@?$_List_nod@MV?$allocator@M@std@@@std@@@std@@YAPAU_Node@?$_List_nod@MV?$allocator@M@std@@@0@IPAU120@@Z PROC ; std::_Allocate<std::_List_nod<float,std::allocator<float> >::_Node>, COMDAT

; 30   : 	{	// allocate storage for _Count elements of type _Ty

  00000	55		 push	 ebp
  00001	8b ec		 mov	 ebp, esp

; 31   : 	void *_Ptr = 0;
; 32   : 
; 33   : 	if (_Count <= 0)

  00003	8b 4d 08	 mov	 ecx, DWORD PTR __Count$[ebp]
  00006	83 ec 0c	 sub	 esp, 12			; 0000000cH
  00009	33 c0		 xor	 eax, eax
  0000b	85 c9		 test	 ecx, ecx

; 34   : 		_Count = 0;
; 35   : 	else if (((_SIZT)(-1) / sizeof (_Ty) < _Count)

  0000d	74 3c		 je	 SHORT $LN5@Allocate@3

; 36   : 		|| (_Ptr = ::operator new(_Count * sizeof (_Ty))) == 0)

  0000f	81 f9 55 55 55
	15		 cmp	 ecx, 357913941		; 15555555H
  00015	77 0e		 ja	 SHORT $LN1@Allocate@3
  00017	6b c9 0c	 imul	 ecx, 12			; 0000000cH
  0001a	51		 push	 ecx
  0001b	e8 00 00 00 00	 call	 ??2@YAPAXI@Z		; operator new
  00020	59		 pop	 ecx
  00021	85 c0		 test	 eax, eax

; 38   : 
; 39   : 	return ((_Ty _FARQ *)_Ptr);

  00023	75 26		 jne	 SHORT $LN5@Allocate@3
$LN1@Allocate@3:

; 37   : 		_THROW_NCEE(bad_alloc, 0);

  00025	83 65 08 00	 and	 DWORD PTR $T567388[ebp], 0
  00029	8d 45 08	 lea	 eax, DWORD PTR $T567388[ebp]
  0002c	50		 push	 eax
  0002d	8d 4d f4	 lea	 ecx, DWORD PTR $T567384[ebp]
  00030	ff 15 00 00 00
	00		 call	 DWORD PTR __imp_??0exception@std@@QAE@ABQBD@Z
  00036	68 00 00 00 00	 push	 OFFSET __TI2?AVbad_alloc@std@@
  0003b	8d 45 f4	 lea	 eax, DWORD PTR $T567384[ebp]
  0003e	50		 push	 eax
  0003f	c7 45 f4 00 00
	00 00		 mov	 DWORD PTR $T567384[ebp], OFFSET ??_7bad_alloc@std@@6B@
  00046	e8 00 00 00 00	 call	 __CxxThrowException@8
$LN10@Allocate@3:
$LN5@Allocate@3:

; 40   : 	}

  0004b	c9		 leave
  0004c	c3		 ret	 0
$LN9@Allocate@3:
??$_Allocate@U_Node@?$_List_nod@MV?$allocator@M@std@@@std@@@std@@YAPAU_Node@?$_List_nod@MV?$allocator@M@std@@@0@IPAU120@@Z ENDP ; std::_Allocate<std::_List_nod<float,std::allocator<float> >::_Node>
_TEXT	ENDS
PUBLIC	??$addressof@UOutLineRecord@@@std@@YAPAUOutLineRecord@@AAU1@@Z ; std::addressof<OutLineRecord>
; Function compile flags: /Ogsp
;	COMDAT ??$addressof@UOutLineRecord@@@std@@YAPAUOutLineRecord@@AAU1@@Z
_TEXT	SEGMENT
__Val$ = 8						; size = 4
??$addressof@UOutLineRecord@@@std@@YAPAUOutLineRecord@@AAU1@@Z PROC ; std::addressof<OutLineRecord>, COMDAT

; 110  : 	{	// return address of _Val

  00000	55		 push	 ebp
  00001	8b ec		 mov	 ebp, esp

; 111  : 	return ((_Ty *) &(char&)_Val);

  00003	8b 45 08	 mov	 eax, DWORD PTR __Val$[ebp]

; 112  : 	}

  00006	5d		 pop	 ebp
  00007	c3		 ret	 0
??$addressof@UOutLineRecord@@@std@@YAPAUOutLineRecord@@AAU1@@Z ENDP ; std::addressof<OutLineRecord>
_TEXT	ENDS
PUBLIC	??$?0UOutLineRecord@@@?$allocator@U_Node@?$_List_nod@UOutLineRecord@@V?$allocator@UOutLineRecord@@@std@@@std@@@std@@QAE@ABV?$allocator@UOutLineRecord@@@1@@Z ; std::allocator<std::_List_nod<OutLineRecord,std::allocator<OutLineRecord> >::_Node>::allocator<std::_List_nod<OutLineRecord,std::allocator<OutLineRecord> >::_Node><OutLineRecord>
; Function compile flags: /Ogsp
;	COMDAT ??$?0UOutLineRecord@@@?$allocator@U_Node@?$_List_nod@UOutLineRecord@@V?$allocator@UOutLineRecord@@@std@@@std@@@std@@QAE@ABV?$allocator@UOutLineRecord@@@1@@Z
_TEXT	SEGMENT
___formal$ = 8						; size = 4
??$?0UOutLineRecord@@@?$allocator@U_Node@?$_List_nod@UOutLineRecord@@V?$allocator@UOutLineRecord@@@std@@@std@@@std@@QAE@ABV?$allocator@UOutLineRecord@@@1@@Z PROC ; std::allocator<std::_List_nod<OutLineRecord,std::allocator<OutLineRecord> >::_Node>::allocator<std::_List_nod<OutLineRecord,std::allocator<OutLineRecord> >::_Node><OutLineRecord>, COMDAT
; _this$ = ecx

; 170  : 		_ALLOCATOR(const _ALLOCATOR<_Other>&) _THROW0()

  00000	8b c1		 mov	 eax, ecx

; 171  : 		{	// construct from a related allocator (do nothing)
; 172  : 		}

  00002	c2 04 00	 ret	 4
??$?0UOutLineRecord@@@?$allocator@U_Node@?$_List_nod@UOutLineRecord@@V?$allocator@UOutLineRecord@@@std@@@std@@@std@@QAE@ABV?$allocator@UOutLineRecord@@@1@@Z ENDP ; std::allocator<std::_List_nod<OutLineRecord,std::allocator<OutLineRecord> >::_Node>::allocator<std::_List_nod<OutLineRecord,std::allocator<OutLineRecord> >::_Node><OutLineRecord>
_TEXT	ENDS
PUBLIC	??$_Allocate@U_Node@?$_List_nod@UOutLineRecord@@V?$allocator@UOutLineRecord@@@std@@@std@@@std@@YAPAU_Node@?$_List_nod@UOutLineRecord@@V?$allocator@UOutLineRecord@@@std@@@0@IPAU120@@Z ; std::_Allocate<std::_List_nod<OutLineRecord,std::allocator<OutLineRecord> >::_Node>
; Function compile flags: /Ogsp
;	COMDAT ??$_Allocate@U_Node@?$_List_nod@UOutLineRecord@@V?$allocator@UOutLineRecord@@@std@@@std@@@std@@YAPAU_Node@?$_List_nod@UOutLineRecord@@V?$allocator@UOutLineRecord@@@std@@@0@IPAU120@@Z
_TEXT	SEGMENT
$T567398 = -12						; size = 12
$T567402 = 8						; size = 4
__Count$ = 8						; size = 4
___formal$ = 12						; size = 4
??$_Allocate@U_Node@?$_List_nod@UOutLineRecord@@V?$allocator@UOutLineRecord@@@std@@@std@@@std@@YAPAU_Node@?$_List_nod@UOutLineRecord@@V?$allocator@UOutLineRecord@@@std@@@0@IPAU120@@Z PROC ; std::_Allocate<std::_List_nod<OutLineRecord,std::allocator<OutLineRecord> >::_Node>, COMDAT

; 30   : 	{	// allocate storage for _Count elements of type _Ty

  00000	55		 push	 ebp
  00001	8b ec		 mov	 ebp, esp

; 31   : 	void *_Ptr = 0;
; 32   : 
; 33   : 	if (_Count <= 0)

  00003	8b 4d 08	 mov	 ecx, DWORD PTR __Count$[ebp]
  00006	83 ec 0c	 sub	 esp, 12			; 0000000cH
  00009	33 c0		 xor	 eax, eax
  0000b	85 c9		 test	 ecx, ecx

; 34   : 		_Count = 0;
; 35   : 	else if (((_SIZT)(-1) / sizeof (_Ty) < _Count)

  0000d	74 3c		 je	 SHORT $LN5@Allocate@4

; 36   : 		|| (_Ptr = ::operator new(_Count * sizeof (_Ty))) == 0)

  0000f	81 f9 ff ff ff
	07		 cmp	 ecx, 134217727		; 07ffffffH
  00015	77 0e		 ja	 SHORT $LN1@Allocate@4
  00017	c1 e1 05	 shl	 ecx, 5
  0001a	51		 push	 ecx
  0001b	e8 00 00 00 00	 call	 ??2@YAPAXI@Z		; operator new
  00020	59		 pop	 ecx
  00021	85 c0		 test	 eax, eax

; 38   : 
; 39   : 	return ((_Ty _FARQ *)_Ptr);

  00023	75 26		 jne	 SHORT $LN5@Allocate@4
$LN1@Allocate@4:

; 37   : 		_THROW_NCEE(bad_alloc, 0);

  00025	83 65 08 00	 and	 DWORD PTR $T567402[ebp], 0
  00029	8d 45 08	 lea	 eax, DWORD PTR $T567402[ebp]
  0002c	50		 push	 eax
  0002d	8d 4d f4	 lea	 ecx, DWORD PTR $T567398[ebp]
  00030	ff 15 00 00 00
	00		 call	 DWORD PTR __imp_??0exception@std@@QAE@ABQBD@Z
  00036	68 00 00 00 00	 push	 OFFSET __TI2?AVbad_alloc@std@@
  0003b	8d 45 f4	 lea	 eax, DWORD PTR $T567398[ebp]
  0003e	50		 push	 eax
  0003f	c7 45 f4 00 00
	00 00		 mov	 DWORD PTR $T567398[ebp], OFFSET ??_7bad_alloc@std@@6B@
  00046	e8 00 00 00 00	 call	 __CxxThrowException@8
$LN10@Allocate@4:
$LN5@Allocate@4:

; 40   : 	}

  0004b	c9		 leave
  0004c	c3		 ret	 0
$LN9@Allocate@4:
??$_Allocate@U_Node@?$_List_nod@UOutLineRecord@@V?$allocator@UOutLineRecord@@@std@@@std@@@std@@YAPAU_Node@?$_List_nod@UOutLineRecord@@V?$allocator@UOutLineRecord@@@std@@@0@IPAU120@@Z ENDP ; std::_Allocate<std::_List_nod<OutLineRecord,std::allocator<OutLineRecord> >::_Node>
_TEXT	ENDS
PUBLIC	??$forward@ABH@std@@YAABHABH@Z			; std::forward<int const &>
; Function compile flags: /Ogsp
; File c:\program files (x86)\microsoft visual studio 10.0\vc\include\utility
;	COMDAT ??$forward@ABH@std@@YAABHABH@Z
_TEXT	SEGMENT
__Arg$ = 8						; size = 4
??$forward@ABH@std@@YAABHABH@Z PROC			; std::forward<int const &>, COMDAT

; 78   : 	{	// forward _Arg, given explicitly specified type parameter

  00000	55		 push	 ebp
  00001	8b ec		 mov	 ebp, esp

; 79   : 	return ((_Ty&&)_Arg);

  00003	8b 45 08	 mov	 eax, DWORD PTR __Arg$[ebp]

; 80   : 	}

  00006	5d		 pop	 ebp
  00007	c3		 ret	 0
??$forward@ABH@std@@YAABHABH@Z ENDP			; std::forward<int const &>
_TEXT	ENDS
PUBLIC	??$_Ptr_cat@PAVioGameEntity@@PAV1@@std@@YA?AU_Scalar_ptr_iterator_tag@0@PAPAVioGameEntity@@0@Z ; std::_Ptr_cat<ioGameEntity *,ioGameEntity *>
; Function compile flags: /Ogsp
; File c:\program files (x86)\microsoft visual studio 10.0\vc\include\xutility
;	COMDAT ??$_Ptr_cat@PAVioGameEntity@@PAV1@@std@@YA?AU_Scalar_ptr_iterator_tag@0@PAPAVioGameEntity@@0@Z
_TEXT	SEGMENT
__Cat$ = -1						; size = 1
___formal$ = 8						; size = 4
___formal$ = 12						; size = 4
??$_Ptr_cat@PAVioGameEntity@@PAV1@@std@@YA?AU_Scalar_ptr_iterator_tag@0@PAPAVioGameEntity@@0@Z PROC ; std::_Ptr_cat<ioGameEntity *,ioGameEntity *>, COMDAT

; 516  : 	{	// return pointer category from pointers

  00000	55		 push	 ebp
  00001	8b ec		 mov	 ebp, esp
  00003	51		 push	 ecx

; 517  : 	typename _Ptr_cat_helper<_Elem1, _Elem2>::_Type _Cat;
; 518  : 	return (_Cat);

  00004	8a 45 ff	 mov	 al, BYTE PTR __Cat$[ebp]

; 519  : 	}

  00007	c9		 leave
  00008	c3		 ret	 0
??$_Ptr_cat@PAVioGameEntity@@PAV1@@std@@YA?AU_Scalar_ptr_iterator_tag@0@PAPAVioGameEntity@@0@Z ENDP ; std::_Ptr_cat<ioGameEntity *,ioGameEntity *>
_TEXT	ENDS
PUBLIC	??$_Move@PAPAVioGameEntity@@PAPAV1@@std@@YAPAPAVioGameEntity@@PAPAV1@00U_Scalar_ptr_iterator_tag@0@@Z ; std::_Move<ioGameEntity * *,ioGameEntity * *>
; Function compile flags: /Ogsp
;	COMDAT ??$_Move@PAPAVioGameEntity@@PAPAV1@@std@@YAPAPAVioGameEntity@@PAPAV1@00U_Scalar_ptr_iterator_tag@0@@Z
_TEXT	SEGMENT
__First$ = 8						; size = 4
__Last$ = 12						; size = 4
__Dest$ = 16						; size = 4
___formal$ = 20						; size = 1
??$_Move@PAPAVioGameEntity@@PAPAV1@@std@@YAPAPAVioGameEntity@@PAPAV1@00U_Scalar_ptr_iterator_tag@0@@Z PROC ; std::_Move<ioGameEntity * *,ioGameEntity * *>, COMDAT

; 2522 : 	{	// move [_First, _Last) to [_Dest, ...), pointers to scalars

  00000	55		 push	 ebp
  00001	8b ec		 mov	 ebp, esp
  00003	56		 push	 esi

; 2523 : 	ptrdiff_t _Count = _Last - _First;

  00004	8b 75 0c	 mov	 esi, DWORD PTR __Last$[ebp]
  00007	2b 75 08	 sub	 esi, DWORD PTR __First$[ebp]
  0000a	57		 push	 edi

; 2524 : 	_CSTD memmove(&*_Dest, &*_First,
; 2525 : 		_Count * sizeof (*_First));

  0000b	8b 7d 10	 mov	 edi, DWORD PTR __Dest$[ebp]
  0000e	c1 fe 02	 sar	 esi, 2
  00011	c1 e6 02	 shl	 esi, 2
  00014	56		 push	 esi
  00015	ff 75 08	 push	 DWORD PTR __First$[ebp]
  00018	57		 push	 edi
  00019	ff 15 00 00 00
	00		 call	 DWORD PTR __imp__memmove
  0001f	83 c4 0c	 add	 esp, 12			; 0000000cH

; 2526 : 	return (_Dest + _Count);

  00022	8d 04 3e	 lea	 eax, DWORD PTR [esi+edi]
  00025	5f		 pop	 edi
  00026	5e		 pop	 esi

; 2527 : 	}

  00027	5d		 pop	 ebp
  00028	c3		 ret	 0
??$_Move@PAPAVioGameEntity@@PAPAV1@@std@@YAPAPAVioGameEntity@@PAPAV1@00U_Scalar_ptr_iterator_tag@0@@Z ENDP ; std::_Move<ioGameEntity * *,ioGameEntity * *>
_TEXT	ENDS
PUBLIC	??$forward@AAUCreatePushStructInfo@@@std@@YAAAUCreatePushStructInfo@@AAU1@@Z ; std::forward<CreatePushStructInfo &>
; Function compile flags: /Ogsp
; File c:\program files (x86)\microsoft visual studio 10.0\vc\include\utility
;	COMDAT ??$forward@AAUCreatePushStructInfo@@@std@@YAAAUCreatePushStructInfo@@AAU1@@Z
_TEXT	SEGMENT
__Arg$ = 8						; size = 4
??$forward@AAUCreatePushStructInfo@@@std@@YAAAUCreatePushStructInfo@@AAU1@@Z PROC ; std::forward<CreatePushStructInfo &>, COMDAT

; 78   : 	{	// forward _Arg, given explicitly specified type parameter

  00000	55		 push	 ebp
  00001	8b ec		 mov	 ebp, esp

; 79   : 	return ((_Ty&&)_Arg);

  00003	8b 45 08	 mov	 eax, DWORD PTR __Arg$[ebp]

; 80   : 	}

  00006	5d		 pop	 ebp
  00007	c3		 ret	 0
??$forward@AAUCreatePushStructInfo@@@std@@YAAAUCreatePushStructInfo@@AAU1@@Z ENDP ; std::forward<CreatePushStructInfo &>
_TEXT	ENDS
PUBLIC	??$construct@AAUCreatePushStructInfo@@@?$allocator@UCreatePushStructInfo@@@std@@QAEXPAUCreatePushStructInfo@@AAU2@@Z ; std::allocator<CreatePushStructInfo>::construct<CreatePushStructInfo &>
; Function compile flags: /Ogsp
; File c:\program files (x86)\microsoft visual studio 10.0\vc\include\xmemory
;	COMDAT ??$construct@AAUCreatePushStructInfo@@@?$allocator@UCreatePushStructInfo@@@std@@QAEXPAUCreatePushStructInfo@@AAU2@@Z
_TEXT	SEGMENT
__Ptr$ = 8						; size = 4
__Val$ = 12						; size = 4
??$construct@AAUCreatePushStructInfo@@@?$allocator@UCreatePushStructInfo@@@std@@QAEXPAUCreatePushStructInfo@@AAU2@@Z PROC ; std::allocator<CreatePushStructInfo>::construct<CreatePushStructInfo &>, COMDAT
; _this$ = ecx

; 206  : 		void construct(pointer _Ptr, _Other&& _Val)

  00000	55		 push	 ebp
  00001	8b ec		 mov	 ebp, esp
  00003	57		 push	 edi

; 207  : 		{	// construct object at _Ptr with value _Val
; 208  : 		::new ((void _FARQ *)_Ptr) _Ty(_STD forward<_Other>(_Val));

  00004	8b 7d 08	 mov	 edi, DWORD PTR __Ptr$[ebp]
  00007	85 ff		 test	 edi, edi
  00009	74 0a		 je	 SHORT $LN3@construct
  0000b	56		 push	 esi
  0000c	8b 75 0c	 mov	 esi, DWORD PTR __Val$[ebp]
  0000f	6a 05		 push	 5
  00011	59		 pop	 ecx
  00012	f3 a5		 rep movsd
  00014	5e		 pop	 esi
$LN3@construct:
  00015	5f		 pop	 edi

; 209  : 		}

  00016	5d		 pop	 ebp
  00017	c2 08 00	 ret	 8
??$construct@AAUCreatePushStructInfo@@@?$allocator@UCreatePushStructInfo@@@std@@QAEXPAUCreatePushStructInfo@@AAU2@@Z ENDP ; std::allocator<CreatePushStructInfo>::construct<CreatePushStructInfo &>
_TEXT	ENDS
PUBLIC	??$forward@ABUCreatePushStructInfo@@@std@@YAABUCreatePushStructInfo@@ABU1@@Z ; std::forward<CreatePushStructInfo const &>
; Function compile flags: /Ogsp
; File c:\program files (x86)\microsoft visual studio 10.0\vc\include\utility
;	COMDAT ??$forward@ABUCreatePushStructInfo@@@std@@YAABUCreatePushStructInfo@@ABU1@@Z
_TEXT	SEGMENT
__Arg$ = 8						; size = 4
??$forward@ABUCreatePushStructInfo@@@std@@YAABUCreatePushStructInfo@@ABU1@@Z PROC ; std::forward<CreatePushStructInfo const &>, COMDAT

; 78   : 	{	// forward _Arg, given explicitly specified type parameter

  00000	55		 push	 ebp
  00001	8b ec		 mov	 ebp, esp

; 79   : 	return ((_Ty&&)_Arg);

  00003	8b 45 08	 mov	 eax, DWORD PTR __Arg$[ebp]

; 80   : 	}

  00006	5d		 pop	 ebp
  00007	c3		 ret	 0
??$forward@ABUCreatePushStructInfo@@@std@@YAABUCreatePushStructInfo@@ABU1@@Z ENDP ; std::forward<CreatePushStructInfo const &>
_TEXT	ENDS
PUBLIC	??$forward@AAUWeaponFireInfo@@@std@@YAAAUWeaponFireInfo@@AAU1@@Z ; std::forward<WeaponFireInfo &>
; Function compile flags: /Ogsp
;	COMDAT ??$forward@AAUWeaponFireInfo@@@std@@YAAAUWeaponFireInfo@@AAU1@@Z
_TEXT	SEGMENT
__Arg$ = 8						; size = 4
??$forward@AAUWeaponFireInfo@@@std@@YAAAUWeaponFireInfo@@AAU1@@Z PROC ; std::forward<WeaponFireInfo &>, COMDAT

; 78   : 	{	// forward _Arg, given explicitly specified type parameter

  00000	55		 push	 ebp
  00001	8b ec		 mov	 ebp, esp

; 79   : 	return ((_Ty&&)_Arg);

  00003	8b 45 08	 mov	 eax, DWORD PTR __Arg$[ebp]

; 80   : 	}

  00006	5d		 pop	 ebp
  00007	c3		 ret	 0
??$forward@AAUWeaponFireInfo@@@std@@YAAAUWeaponFireInfo@@AAU1@@Z ENDP ; std::forward<WeaponFireInfo &>
_TEXT	ENDS
PUBLIC	??$forward@ABUWeaponFireInfo@@@std@@YAABUWeaponFireInfo@@ABU1@@Z ; std::forward<WeaponFireInfo const &>
; Function compile flags: /Ogsp
;	COMDAT ??$forward@ABUWeaponFireInfo@@@std@@YAABUWeaponFireInfo@@ABU1@@Z
_TEXT	SEGMENT
__Arg$ = 8						; size = 4
??$forward@ABUWeaponFireInfo@@@std@@YAABUWeaponFireInfo@@ABU1@@Z PROC ; std::forward<WeaponFireInfo const &>, COMDAT

; 78   : 	{	// forward _Arg, given explicitly specified type parameter

  00000	55		 push	 ebp
  00001	8b ec		 mov	 ebp, esp

; 79   : 	return ((_Ty&&)_Arg);

  00003	8b 45 08	 mov	 eax, DWORD PTR __Arg$[ebp]

; 80   : 	}

  00006	5d		 pop	 ebp
  00007	c3		 ret	 0
??$forward@ABUWeaponFireInfo@@@std@@YAABUWeaponFireInfo@@ABU1@@Z ENDP ; std::forward<WeaponFireInfo const &>
_TEXT	ENDS
PUBLIC	??$_Destroy_range@V?$allocator@PAVioGameEntity@@@std@@@std@@YAXPAPAVioGameEntity@@0AAV?$allocator@PAVioGameEntity@@@0@U_Scalar_ptr_iterator_tag@0@@Z ; std::_Destroy_range<std::allocator<ioGameEntity *> >
; Function compile flags: /Ogsp
; File c:\program files (x86)\microsoft visual studio 10.0\vc\include\xmemory
;	COMDAT ??$_Destroy_range@V?$allocator@PAVioGameEntity@@@std@@@std@@YAXPAPAVioGameEntity@@0AAV?$allocator@PAVioGameEntity@@@0@U_Scalar_ptr_iterator_tag@0@@Z
_TEXT	SEGMENT
__First$ = 8						; size = 4
__Last$ = 12						; size = 4
__Al$ = 16						; size = 4
___formal$ = 20						; size = 1
??$_Destroy_range@V?$allocator@PAVioGameEntity@@@std@@@std@@YAXPAPAVioGameEntity@@0AAV?$allocator@PAVioGameEntity@@@0@U_Scalar_ptr_iterator_tag@0@@Z PROC ; std::_Destroy_range<std::allocator<ioGameEntity *> >, COMDAT

; 105  : 	}

  00000	c3		 ret	 0
??$_Destroy_range@V?$allocator@PAVioGameEntity@@@std@@@std@@YAXPAPAVioGameEntity@@0AAV?$allocator@PAVioGameEntity@@@0@U_Scalar_ptr_iterator_tag@0@@Z ENDP ; std::_Destroy_range<std::allocator<ioGameEntity *> >
_TEXT	ENDS
PUBLIC	??$_Ptr_cat@PAVioWeapon@@PAV1@@std@@YA?AU_Scalar_ptr_iterator_tag@0@PAPAVioWeapon@@0@Z ; std::_Ptr_cat<ioWeapon *,ioWeapon *>
; Function compile flags: /Ogsp
; File c:\program files (x86)\microsoft visual studio 10.0\vc\include\xutility
;	COMDAT ??$_Ptr_cat@PAVioWeapon@@PAV1@@std@@YA?AU_Scalar_ptr_iterator_tag@0@PAPAVioWeapon@@0@Z
_TEXT	SEGMENT
__Cat$ = -1						; size = 1
___formal$ = 8						; size = 4
___formal$ = 12						; size = 4
??$_Ptr_cat@PAVioWeapon@@PAV1@@std@@YA?AU_Scalar_ptr_iterator_tag@0@PAPAVioWeapon@@0@Z PROC ; std::_Ptr_cat<ioWeapon *,ioWeapon *>, COMDAT

; 516  : 	{	// return pointer category from pointers

  00000	55		 push	 ebp
  00001	8b ec		 mov	 ebp, esp
  00003	51		 push	 ecx

; 517  : 	typename _Ptr_cat_helper<_Elem1, _Elem2>::_Type _Cat;
; 518  : 	return (_Cat);

  00004	8a 45 ff	 mov	 al, BYTE PTR __Cat$[ebp]

; 519  : 	}

  00007	c9		 leave
  00008	c3		 ret	 0
??$_Ptr_cat@PAVioWeapon@@PAV1@@std@@YA?AU_Scalar_ptr_iterator_tag@0@PAPAVioWeapon@@0@Z ENDP ; std::_Ptr_cat<ioWeapon *,ioWeapon *>
_TEXT	ENDS
PUBLIC	??$_Move@PAPAVioWeapon@@PAPAV1@@std@@YAPAPAVioWeapon@@PAPAV1@00U_Scalar_ptr_iterator_tag@0@@Z ; std::_Move<ioWeapon * *,ioWeapon * *>
; Function compile flags: /Ogsp
;	COMDAT ??$_Move@PAPAVioWeapon@@PAPAV1@@std@@YAPAPAVioWeapon@@PAPAV1@00U_Scalar_ptr_iterator_tag@0@@Z
_TEXT	SEGMENT
__First$ = 8						; size = 4
__Last$ = 12						; size = 4
__Dest$ = 16						; size = 4
___formal$ = 20						; size = 1
??$_Move@PAPAVioWeapon@@PAPAV1@@std@@YAPAPAVioWeapon@@PAPAV1@00U_Scalar_ptr_iterator_tag@0@@Z PROC ; std::_Move<ioWeapon * *,ioWeapon * *>, COMDAT

; 2522 : 	{	// move [_First, _Last) to [_Dest, ...), pointers to scalars

  00000	55		 push	 ebp
  00001	8b ec		 mov	 ebp, esp
  00003	56		 push	 esi

; 2523 : 	ptrdiff_t _Count = _Last - _First;

  00004	8b 75 0c	 mov	 esi, DWORD PTR __Last$[ebp]
  00007	2b 75 08	 sub	 esi, DWORD PTR __First$[ebp]
  0000a	57		 push	 edi

; 2524 : 	_CSTD memmove(&*_Dest, &*_First,
; 2525 : 		_Count * sizeof (*_First));

  0000b	8b 7d 10	 mov	 edi, DWORD PTR __Dest$[ebp]
  0000e	c1 fe 02	 sar	 esi, 2
  00011	c1 e6 02	 shl	 esi, 2
  00014	56		 push	 esi
  00015	ff 75 08	 push	 DWORD PTR __First$[ebp]
  00018	57		 push	 edi
  00019	ff 15 00 00 00
	00		 call	 DWORD PTR __imp__memmove
  0001f	83 c4 0c	 add	 esp, 12			; 0000000cH

; 2526 : 	return (_Dest + _Count);

  00022	8d 04 3e	 lea	 eax, DWORD PTR [esi+edi]
  00025	5f		 pop	 edi
  00026	5e		 pop	 esi

; 2527 : 	}

  00027	5d		 pop	 ebp
  00028	c3		 ret	 0
??$_Move@PAPAVioWeapon@@PAPAV1@@std@@YAPAPAVioWeapon@@PAPAV1@00U_Scalar_ptr_iterator_tag@0@@Z ENDP ; std::_Move<ioWeapon * *,ioWeapon * *>
_TEXT	ENDS
PUBLIC	??$_Ptr_cat@UCreatePushStructInfo@@U1@@std@@YA?AU_Nonscalar_ptr_iterator_tag@0@PAUCreatePushStructInfo@@0@Z ; std::_Ptr_cat<CreatePushStructInfo,CreatePushStructInfo>
; Function compile flags: /Ogsp
;	COMDAT ??$_Ptr_cat@UCreatePushStructInfo@@U1@@std@@YA?AU_Nonscalar_ptr_iterator_tag@0@PAUCreatePushStructInfo@@0@Z
_TEXT	SEGMENT
__Cat$ = -1						; size = 1
___formal$ = 8						; size = 4
___formal$ = 12						; size = 4
??$_Ptr_cat@UCreatePushStructInfo@@U1@@std@@YA?AU_Nonscalar_ptr_iterator_tag@0@PAUCreatePushStructInfo@@0@Z PROC ; std::_Ptr_cat<CreatePushStructInfo,CreatePushStructInfo>, COMDAT

; 516  : 	{	// return pointer category from pointers

  00000	55		 push	 ebp
  00001	8b ec		 mov	 ebp, esp
  00003	51		 push	 ecx

; 517  : 	typename _Ptr_cat_helper<_Elem1, _Elem2>::_Type _Cat;
; 518  : 	return (_Cat);

  00004	8a 45 ff	 mov	 al, BYTE PTR __Cat$[ebp]

; 519  : 	}

  00007	c9		 leave
  00008	c3		 ret	 0
??$_Ptr_cat@UCreatePushStructInfo@@U1@@std@@YA?AU_Nonscalar_ptr_iterator_tag@0@PAUCreatePushStructInfo@@0@Z ENDP ; std::_Ptr_cat<CreatePushStructInfo,CreatePushStructInfo>
_TEXT	ENDS
PUBLIC	??$_Ptr_cat@UWeaponFireInfo@@U1@@std@@YA?AU_Nonscalar_ptr_iterator_tag@0@PAUWeaponFireInfo@@0@Z ; std::_Ptr_cat<WeaponFireInfo,WeaponFireInfo>
; Function compile flags: /Ogsp
;	COMDAT ??$_Ptr_cat@UWeaponFireInfo@@U1@@std@@YA?AU_Nonscalar_ptr_iterator_tag@0@PAUWeaponFireInfo@@0@Z
_TEXT	SEGMENT
__Cat$ = -1						; size = 1
___formal$ = 8						; size = 4
___formal$ = 12						; size = 4
??$_Ptr_cat@UWeaponFireInfo@@U1@@std@@YA?AU_Nonscalar_ptr_iterator_tag@0@PAUWeaponFireInfo@@0@Z PROC ; std::_Ptr_cat<WeaponFireInfo,WeaponFireInfo>, COMDAT

; 516  : 	{	// return pointer category from pointers

  00000	55		 push	 ebp
  00001	8b ec		 mov	 ebp, esp
  00003	51		 push	 ecx

; 517  : 	typename _Ptr_cat_helper<_Elem1, _Elem2>::_Type _Cat;
; 518  : 	return (_Cat);

  00004	8a 45 ff	 mov	 al, BYTE PTR __Cat$[ebp]

; 519  : 	}

  00007	c9		 leave
  00008	c3		 ret	 0
??$_Ptr_cat@UWeaponFireInfo@@U1@@std@@YA?AU_Nonscalar_ptr_iterator_tag@0@PAUWeaponFireInfo@@0@Z ENDP ; std::_Ptr_cat<WeaponFireInfo,WeaponFireInfo>
_TEXT	ENDS
PUBLIC	??$_Destroy_range@V?$allocator@PAVioWeapon@@@std@@@std@@YAXPAPAVioWeapon@@0AAV?$allocator@PAVioWeapon@@@0@U_Scalar_ptr_iterator_tag@0@@Z ; std::_Destroy_range<std::allocator<ioWeapon *> >
; Function compile flags: /Ogsp
; File c:\program files (x86)\microsoft visual studio 10.0\vc\include\xmemory
;	COMDAT ??$_Destroy_range@V?$allocator@PAVioWeapon@@@std@@@std@@YAXPAPAVioWeapon@@0AAV?$allocator@PAVioWeapon@@@0@U_Scalar_ptr_iterator_tag@0@@Z
_TEXT	SEGMENT
__First$ = 8						; size = 4
__Last$ = 12						; size = 4
__Al$ = 16						; size = 4
___formal$ = 20						; size = 1
??$_Destroy_range@V?$allocator@PAVioWeapon@@@std@@@std@@YAXPAPAVioWeapon@@0AAV?$allocator@PAVioWeapon@@@0@U_Scalar_ptr_iterator_tag@0@@Z PROC ; std::_Destroy_range<std::allocator<ioWeapon *> >, COMDAT

; 105  : 	}

  00000	c3		 ret	 0
??$_Destroy_range@V?$allocator@PAVioWeapon@@@std@@@std@@YAXPAPAVioWeapon@@0AAV?$allocator@PAVioWeapon@@@0@U_Scalar_ptr_iterator_tag@0@@Z ENDP ; std::_Destroy_range<std::allocator<ioWeapon *> >
_TEXT	ENDS
PUBLIC	??$forward@ABUOutLineRecord@@@std@@YAABUOutLineRecord@@ABU1@@Z ; std::forward<OutLineRecord const &>
; Function compile flags: /Ogsp
; File c:\program files (x86)\microsoft visual studio 10.0\vc\include\utility
;	COMDAT ??$forward@ABUOutLineRecord@@@std@@YAABUOutLineRecord@@ABU1@@Z
_TEXT	SEGMENT
__Arg$ = 8						; size = 4
??$forward@ABUOutLineRecord@@@std@@YAABUOutLineRecord@@ABU1@@Z PROC ; std::forward<OutLineRecord const &>, COMDAT

; 78   : 	{	// forward _Arg, given explicitly specified type parameter

  00000	55		 push	 ebp
  00001	8b ec		 mov	 ebp, esp

; 79   : 	return ((_Ty&&)_Arg);

  00003	8b 45 08	 mov	 eax, DWORD PTR __Arg$[ebp]

; 80   : 	}

  00006	5d		 pop	 ebp
  00007	c3		 ret	 0
??$forward@ABUOutLineRecord@@@std@@YAABUOutLineRecord@@ABU1@@Z ENDP ; std::forward<OutLineRecord const &>
_TEXT	ENDS
PUBLIC	??$_Ptr_cat@PBUAniEventTime@@PBU1@@std@@YA?AU_Scalar_ptr_iterator_tag@0@PAPBUAniEventTime@@0@Z ; std::_Ptr_cat<AniEventTime const *,AniEventTime const *>
; Function compile flags: /Ogsp
; File c:\program files (x86)\microsoft visual studio 10.0\vc\include\xutility
;	COMDAT ??$_Ptr_cat@PBUAniEventTime@@PBU1@@std@@YA?AU_Scalar_ptr_iterator_tag@0@PAPBUAniEventTime@@0@Z
_TEXT	SEGMENT
__Cat$ = -1						; size = 1
___formal$ = 8						; size = 4
___formal$ = 12						; size = 4
??$_Ptr_cat@PBUAniEventTime@@PBU1@@std@@YA?AU_Scalar_ptr_iterator_tag@0@PAPBUAniEventTime@@0@Z PROC ; std::_Ptr_cat<AniEventTime const *,AniEventTime const *>, COMDAT

; 516  : 	{	// return pointer category from pointers

  00000	55		 push	 ebp
  00001	8b ec		 mov	 ebp, esp
  00003	51		 push	 ecx

; 517  : 	typename _Ptr_cat_helper<_Elem1, _Elem2>::_Type _Cat;
; 518  : 	return (_Cat);

  00004	8a 45 ff	 mov	 al, BYTE PTR __Cat$[ebp]

; 519  : 	}

  00007	c9		 leave
  00008	c3		 ret	 0
??$_Ptr_cat@PBUAniEventTime@@PBU1@@std@@YA?AU_Scalar_ptr_iterator_tag@0@PAPBUAniEventTime@@0@Z ENDP ; std::_Ptr_cat<AniEventTime const *,AniEventTime const *>
_TEXT	ENDS
PUBLIC	??$_Destroy_range@V?$allocator@PBUAniEventTime@@@std@@@std@@YAXPAPBUAniEventTime@@0AAV?$allocator@PBUAniEventTime@@@0@U_Scalar_ptr_iterator_tag@0@@Z ; std::_Destroy_range<std::allocator<AniEventTime const *> >
; Function compile flags: /Ogsp
; File c:\program files (x86)\microsoft visual studio 10.0\vc\include\xmemory
;	COMDAT ??$_Destroy_range@V?$allocator@PBUAniEventTime@@@std@@@std@@YAXPAPBUAniEventTime@@0AAV?$allocator@PBUAniEventTime@@@0@U_Scalar_ptr_iterator_tag@0@@Z
_TEXT	SEGMENT
__First$ = 8						; size = 4
__Last$ = 12						; size = 4
__Al$ = 16						; size = 4
___formal$ = 20						; size = 1
??$_Destroy_range@V?$allocator@PBUAniEventTime@@@std@@@std@@YAXPAPBUAniEventTime@@0AAV?$allocator@PBUAniEventTime@@@0@U_Scalar_ptr_iterator_tag@0@@Z PROC ; std::_Destroy_range<std::allocator<AniEventTime const *> >, COMDAT

; 105  : 	}

  00000	c3		 ret	 0
??$_Destroy_range@V?$allocator@PBUAniEventTime@@@std@@@std@@YAXPAPBUAniEventTime@@0AAV?$allocator@PBUAniEventTime@@@0@U_Scalar_ptr_iterator_tag@0@@Z ENDP ; std::_Destroy_range<std::allocator<AniEventTime const *> >
_TEXT	ENDS
PUBLIC	??$_Construct@HABH@std@@YAXPAHABH@Z		; std::_Construct<int,int const &>
; Function compile flags: /Ogsp
;	COMDAT ??$_Construct@HABH@std@@YAXPAHABH@Z
_TEXT	SEGMENT
__Ptr$ = 8						; size = 4
__Val$ = 12						; size = 4
??$_Construct@HABH@std@@YAXPAHABH@Z PROC		; std::_Construct<int,int const &>, COMDAT

; 46   : 	{	// construct object at _Ptr with value _Val

  00000	55		 push	 ebp
  00001	8b ec		 mov	 ebp, esp

; 47   : 	void _FARQ *_Vptr = _Ptr;
; 48   : 	::new (_Vptr) _Ty1(_STD forward<_Ty2>(_Val));

  00003	8b 45 08	 mov	 eax, DWORD PTR __Ptr$[ebp]
  00006	85 c0		 test	 eax, eax
  00008	74 07		 je	 SHORT $LN3@Construct
  0000a	8b 4d 0c	 mov	 ecx, DWORD PTR __Val$[ebp]
  0000d	8b 09		 mov	 ecx, DWORD PTR [ecx]
  0000f	89 08		 mov	 DWORD PTR [eax], ecx
$LN3@Construct:

; 49   : 	}

  00011	5d		 pop	 ebp
  00012	c3		 ret	 0
??$_Construct@HABH@std@@YAXPAHABH@Z ENDP		; std::_Construct<int,int const &>
_TEXT	ENDS
PUBLIC	??$_Destroy@U_Node@?$_List_nod@MV?$allocator@M@std@@@std@@@std@@YAXPAU_Node@?$_List_nod@MV?$allocator@M@std@@@0@@Z ; std::_Destroy<std::_List_nod<float,std::allocator<float> >::_Node>
; Function compile flags: /Ogsp
;	COMDAT ??$_Destroy@U_Node@?$_List_nod@MV?$allocator@M@std@@@std@@@std@@YAXPAU_Node@?$_List_nod@MV?$allocator@M@std@@@0@@Z
_TEXT	SEGMENT
__Ptr$ = 8						; size = 4
??$_Destroy@U_Node@?$_List_nod@MV?$allocator@M@std@@@std@@@std@@YAXPAU_Node@?$_List_nod@MV?$allocator@M@std@@@0@@Z PROC ; std::_Destroy<std::_List_nod<float,std::allocator<float> >::_Node>, COMDAT

; 63   : 	_Ptr->~_Ty();
; 64   : 	}

  00000	c3		 ret	 0
??$_Destroy@U_Node@?$_List_nod@MV?$allocator@M@std@@@std@@@std@@YAXPAU_Node@?$_List_nod@MV?$allocator@M@std@@@0@@Z ENDP ; std::_Destroy<std::_List_nod<float,std::allocator<float> >::_Node>
_TEXT	ENDS
PUBLIC	??$_Construct@UOutLineRecord@@ABU1@@std@@YAXPAUOutLineRecord@@ABU1@@Z ; std::_Construct<OutLineRecord,OutLineRecord const &>
; Function compile flags: /Ogsp
;	COMDAT ??$_Construct@UOutLineRecord@@ABU1@@std@@YAXPAUOutLineRecord@@ABU1@@Z
_TEXT	SEGMENT
__Ptr$ = 8						; size = 4
__Val$ = 12						; size = 4
??$_Construct@UOutLineRecord@@ABU1@@std@@YAXPAUOutLineRecord@@ABU1@@Z PROC ; std::_Construct<OutLineRecord,OutLineRecord const &>, COMDAT

; 46   : 	{	// construct object at _Ptr with value _Val

  00000	55		 push	 ebp
  00001	8b ec		 mov	 ebp, esp
  00003	57		 push	 edi

; 47   : 	void _FARQ *_Vptr = _Ptr;
; 48   : 	::new (_Vptr) _Ty1(_STD forward<_Ty2>(_Val));

  00004	8b 7d 08	 mov	 edi, DWORD PTR __Ptr$[ebp]
  00007	85 ff		 test	 edi, edi
  00009	74 0a		 je	 SHORT $LN3@Construct@2
  0000b	56		 push	 esi
  0000c	8b 75 0c	 mov	 esi, DWORD PTR __Val$[ebp]
  0000f	6a 06		 push	 6
  00011	59		 pop	 ecx
  00012	f3 a5		 rep movsd
  00014	5e		 pop	 esi
$LN3@Construct@2:
  00015	5f		 pop	 edi

; 49   : 	}

  00016	5d		 pop	 ebp
  00017	c3		 ret	 0
??$_Construct@UOutLineRecord@@ABU1@@std@@YAXPAUOutLineRecord@@ABU1@@Z ENDP ; std::_Construct<OutLineRecord,OutLineRecord const &>
_TEXT	ENDS
PUBLIC	??$_Destroy@U_Node@?$_List_nod@UOutLineRecord@@V?$allocator@UOutLineRecord@@@std@@@std@@@std@@YAXPAU_Node@?$_List_nod@UOutLineRecord@@V?$allocator@UOutLineRecord@@@std@@@0@@Z ; std::_Destroy<std::_List_nod<OutLineRecord,std::allocator<OutLineRecord> >::_Node>
; Function compile flags: /Ogsp
;	COMDAT ??$_Destroy@U_Node@?$_List_nod@UOutLineRecord@@V?$allocator@UOutLineRecord@@@std@@@std@@@std@@YAXPAU_Node@?$_List_nod@UOutLineRecord@@V?$allocator@UOutLineRecord@@@std@@@0@@Z
_TEXT	SEGMENT
__Ptr$ = 8						; size = 4
??$_Destroy@U_Node@?$_List_nod@UOutLineRecord@@V?$allocator@UOutLineRecord@@@std@@@std@@@std@@YAXPAU_Node@?$_List_nod@UOutLineRecord@@V?$allocator@UOutLineRecord@@@std@@@0@@Z PROC ; std::_Destroy<std::_List_nod<OutLineRecord,std::allocator<OutLineRecord> >::_Node>, COMDAT

; 63   : 	_Ptr->~_Ty();
; 64   : 	}

  00000	c3		 ret	 0
??$_Destroy@U_Node@?$_List_nod@UOutLineRecord@@V?$allocator@UOutLineRecord@@@std@@@std@@@std@@YAXPAU_Node@?$_List_nod@UOutLineRecord@@V?$allocator@UOutLineRecord@@@std@@@0@@Z ENDP ; std::_Destroy<std::_List_nod<OutLineRecord,std::allocator<OutLineRecord> >::_Node>
_TEXT	ENDS
PUBLIC	??$_Construct@UCreatePushStructInfo@@ABU1@@std@@YAXPAUCreatePushStructInfo@@ABU1@@Z ; std::_Construct<CreatePushStructInfo,CreatePushStructInfo const &>
; Function compile flags: /Ogsp
;	COMDAT ??$_Construct@UCreatePushStructInfo@@ABU1@@std@@YAXPAUCreatePushStructInfo@@ABU1@@Z
_TEXT	SEGMENT
__Ptr$ = 8						; size = 4
__Val$ = 12						; size = 4
??$_Construct@UCreatePushStructInfo@@ABU1@@std@@YAXPAUCreatePushStructInfo@@ABU1@@Z PROC ; std::_Construct<CreatePushStructInfo,CreatePushStructInfo const &>, COMDAT

; 46   : 	{	// construct object at _Ptr with value _Val

  00000	55		 push	 ebp
  00001	8b ec		 mov	 ebp, esp
  00003	57		 push	 edi

; 47   : 	void _FARQ *_Vptr = _Ptr;
; 48   : 	::new (_Vptr) _Ty1(_STD forward<_Ty2>(_Val));

  00004	8b 7d 08	 mov	 edi, DWORD PTR __Ptr$[ebp]
  00007	85 ff		 test	 edi, edi
  00009	74 0a		 je	 SHORT $LN3@Construct@3
  0000b	56		 push	 esi
  0000c	8b 75 0c	 mov	 esi, DWORD PTR __Val$[ebp]
  0000f	6a 05		 push	 5
  00011	59		 pop	 ecx
  00012	f3 a5		 rep movsd
  00014	5e		 pop	 esi
$LN3@Construct@3:
  00015	5f		 pop	 edi

; 49   : 	}

  00016	5d		 pop	 ebp
  00017	c3		 ret	 0
??$_Construct@UCreatePushStructInfo@@ABU1@@std@@YAXPAUCreatePushStructInfo@@ABU1@@Z ENDP ; std::_Construct<CreatePushStructInfo,CreatePushStructInfo const &>
_TEXT	ENDS
PUBLIC	??$_Val_type@PAVioHashString@@@std@@YAPAVioHashString@@PAV1@@Z ; std::_Val_type<ioHashString *>
; Function compile flags: /Ogsp
; File c:\program files (x86)\microsoft visual studio 10.0\vc\include\xutility
;	COMDAT ??$_Val_type@PAVioHashString@@@std@@YAPAVioHashString@@PAV1@@Z
_TEXT	SEGMENT
___formal$ = 8						; size = 4
??$_Val_type@PAVioHashString@@@std@@YAPAVioHashString@@PAV1@@Z PROC ; std::_Val_type<ioHashString *>, COMDAT

; 790  : 	return (0);

  00000	33 c0		 xor	 eax, eax

; 791  : 	}

  00002	c3		 ret	 0
??$_Val_type@PAVioHashString@@@std@@YAPAVioHashString@@PAV1@@Z ENDP ; std::_Val_type<ioHashString *>
