; Listing generated by Microsoft (R) Optimizing Compiler Version 16.00.30319.01 

	TITLE	D:\Lost Saga For Developer\Youtube\Tutorial\Source\src\LSClient\ioPullWeapon2.cpp
	.686P
	.XMM
	include listing.inc
	.model	flat

INCLUDELIB MSVCRT
INCLUDELIB OLDNAMES

PUBLIC	?_EEM_DS@?$deque@UD3DXVECTOR3@@V?$allocator@UD3DXVECTOR3@@@std@@@std@@2HB ; std::deque<D3DXVECTOR3,std::allocator<D3DXVECTOR3> >::_EEM_DS
PUBLIC	?m_ActionStopType@ioPullWeapon2@@2W4ActionStopType@@A ; ioPullWeapon2::m_ActionStopType
PUBLIC	?m_DieActionStopType@ioPullWeapon2@@2W4ActionStopType@@A ; ioPullWeapon2::m_DieActionStopType
_BSS	SEGMENT
?m_ActionStopType@ioPullWeapon2@@2W4ActionStopType@@A DD 01H DUP (?) ; ioPullWeapon2::m_ActionStopType
?m_DieActionStopType@ioPullWeapon2@@2W4ActionStopType@@A DD 01H DUP (?) ; ioPullWeapon2::m_DieActionStopType
_BSS	ENDS
;	COMDAT ?_EEM_DS@?$deque@UD3DXVECTOR3@@V?$allocator@UD3DXVECTOR3@@@std@@@std@@2HB
CONST	SEGMENT
?_EEM_DS@?$deque@UD3DXVECTOR3@@V?$allocator@UD3DXVECTOR3@@@std@@@std@@2HB DD 01H ; std::deque<D3DXVECTOR3,std::allocator<D3DXVECTOR3> >::_EEM_DS
CONST	ENDS
PUBLIC	?return1@@YAIXZ					; return1
; Function compile flags: /Ogsp
; File d:\lost saga for developer\youtube\tutorial\source\src\lsclient\stdafx.h
;	COMDAT ?return1@@YAIXZ
_TEXT	SEGMENT
?return1@@YAIXZ PROC					; return1, COMDAT

; 17   : 	__forceinline unsigned int return1() { __asm mov eax, 1 };

  00000	b8 01 00 00 00	 mov	 eax, 1
  00005	c3		 ret	 0
?return1@@YAIXZ ENDP					; return1
_TEXT	ENDS
PUBLIC	?return100@@YAIXZ				; return100
; Function compile flags: /Ogsp
;	COMDAT ?return100@@YAIXZ
_TEXT	SEGMENT
?return100@@YAIXZ PROC					; return100, COMDAT

; 25   : 	__forceinline unsigned int return100() { __asm mov eax, 100 };

  00000	b8 64 00 00 00	 mov	 eax, 100		; 00000064H
  00005	c3		 ret	 0
?return100@@YAIXZ ENDP					; return100
_TEXT	ENDS
PUBLIC	?return1000@@YAIXZ				; return1000
; Function compile flags: /Ogsp
;	COMDAT ?return1000@@YAIXZ
_TEXT	SEGMENT
?return1000@@YAIXZ PROC					; return1000, COMDAT

; 29   : 	__forceinline unsigned int return1000() { __asm mov eax, 1000 };

  00000	b8 e8 03 00 00	 mov	 eax, 1000		; 000003e8H
  00005	c3		 ret	 0
?return1000@@YAIXZ ENDP					; return1000
_TEXT	ENDS
PUBLIC	?GetCharName@ioBaseChar@@QBEABVioHashString@@XZ	; ioBaseChar::GetCharName
; Function compile flags: /Ogsp
; File d:\lost saga for developer\youtube\tutorial\source\src\lsclient\iobasechar.h
;	COMDAT ?GetCharName@ioBaseChar@@QBEABVioHashString@@XZ
_TEXT	SEGMENT
?GetCharName@ioBaseChar@@QBEABVioHashString@@XZ PROC	; ioBaseChar::GetCharName, COMDAT
; _this$ = ecx

; 2594 : 	inline const ioHashString& GetCharName() const { return m_Name; }

  00000	8d 81 d4 02 00
	00		 lea	 eax, DWORD PTR [ecx+724]
  00006	c3		 ret	 0
?GetCharName@ioBaseChar@@QBEABVioHashString@@XZ ENDP	; ioBaseChar::GetCharName
_TEXT	ENDS
PUBLIC	_fabsf
EXTRN	__fltused:DWORD
; Function compile flags: /Ogsp
; File c:\program files (x86)\microsoft visual studio 10.0\vc\include\math.h
;	COMDAT _fabsf
_TEXT	SEGMENT
tv129 = 8						; size = 4
__X$ = 8						; size = 4
_fabsf	PROC						; COMDAT

; 395  :         {return ((float)fabs((double)_X)); }

  00000	55		 push	 ebp
  00001	8b ec		 mov	 ebp, esp
  00003	d9 45 08	 fld	 DWORD PTR __X$[ebp]
  00006	d9 e1		 fabs
  00008	d9 5d 08	 fstp	 DWORD PTR tv129[ebp]
  0000b	d9 45 08	 fld	 DWORD PTR tv129[ebp]
  0000e	5d		 pop	 ebp
  0000f	c3		 ret	 0
_fabsf	ENDP
_TEXT	ENDS
PUBLIC	?GetRandomSeed@ioBaseChar@@QBEKXZ		; ioBaseChar::GetRandomSeed
; Function compile flags: /Ogsp
; File d:\lost saga for developer\youtube\tutorial\source\src\lsclient\iobasechar.h
;	COMDAT ?GetRandomSeed@ioBaseChar@@QBEKXZ
_TEXT	SEGMENT
?GetRandomSeed@ioBaseChar@@QBEKXZ PROC			; ioBaseChar::GetRandomSeed, COMDAT
; _this$ = ecx

; 3372 : 	inline DWORD GetRandomSeed() const { return m_dwRandomSeed; }

  00000	8b 81 74 16 00
	00		 mov	 eax, DWORD PTR [ecx+5748]
  00006	c3		 ret	 0
?GetRandomSeed@ioBaseChar@@QBEKXZ ENDP			; ioBaseChar::GetRandomSeed
_TEXT	ENDS
PUBLIC	??_7bad_alloc@std@@6B@				; std::bad_alloc::`vftable'
PUBLIC	??0bad_alloc@std@@QAE@PBD@Z			; std::bad_alloc::bad_alloc
PUBLIC	??_R4bad_alloc@std@@6B@				; std::bad_alloc::`RTTI Complete Object Locator'
PUBLIC	??_R0?AVbad_alloc@std@@@8			; std::bad_alloc `RTTI Type Descriptor'
PUBLIC	??_R3bad_alloc@std@@8				; std::bad_alloc::`RTTI Class Hierarchy Descriptor'
PUBLIC	??_R2bad_alloc@std@@8				; std::bad_alloc::`RTTI Base Class Array'
PUBLIC	??_R1A@?0A@EA@bad_alloc@std@@8			; std::bad_alloc::`RTTI Base Class Descriptor at (0,-1,0,64)'
PUBLIC	??_R1A@?0A@EA@exception@std@@8			; std::exception::`RTTI Base Class Descriptor at (0,-1,0,64)'
PUBLIC	??_R0?AVexception@std@@@8			; std::exception `RTTI Type Descriptor'
PUBLIC	??_R3exception@std@@8				; std::exception::`RTTI Class Hierarchy Descriptor'
PUBLIC	??_R2exception@std@@8				; std::exception::`RTTI Base Class Array'
EXTRN	__imp_??0exception@std@@QAE@ABQBD@Z:PROC
EXTRN	??_7type_info@@6B@:QWORD			; type_info::`vftable'
EXTRN	??_Ebad_alloc@std@@UAEPAXI@Z:PROC		; std::bad_alloc::`vector deleting destructor'
EXTRN	?what@exception@std@@UBEPBDXZ:PROC		; std::exception::what
;	COMDAT ??_R2exception@std@@8
; File c:\program files (x86)\microsoft visual studio 10.0\vc\include\exception
rdata$r	SEGMENT
??_R2exception@std@@8 DD FLAT:??_R1A@?0A@EA@exception@std@@8 ; std::exception::`RTTI Base Class Array'
rdata$r	ENDS
;	COMDAT ??_R3exception@std@@8
rdata$r	SEGMENT
??_R3exception@std@@8 DD 00H				; std::exception::`RTTI Class Hierarchy Descriptor'
	DD	00H
	DD	01H
	DD	FLAT:??_R2exception@std@@8
rdata$r	ENDS
;	COMDAT ??_R0?AVexception@std@@@8
_DATA	SEGMENT
??_R0?AVexception@std@@@8 DD FLAT:??_7type_info@@6B@	; std::exception `RTTI Type Descriptor'
	DD	00H
	DB	'.?AVexception@std@@', 00H
_DATA	ENDS
;	COMDAT ??_R1A@?0A@EA@exception@std@@8
rdata$r	SEGMENT
??_R1A@?0A@EA@exception@std@@8 DD FLAT:??_R0?AVexception@std@@@8 ; std::exception::`RTTI Base Class Descriptor at (0,-1,0,64)'
	DD	00H
	DD	00H
	DD	0ffffffffH
	DD	00H
	DD	040H
	DD	FLAT:??_R3exception@std@@8
rdata$r	ENDS
;	COMDAT ??_R1A@?0A@EA@bad_alloc@std@@8
rdata$r	SEGMENT
??_R1A@?0A@EA@bad_alloc@std@@8 DD FLAT:??_R0?AVbad_alloc@std@@@8 ; std::bad_alloc::`RTTI Base Class Descriptor at (0,-1,0,64)'
	DD	01H
	DD	00H
	DD	0ffffffffH
	DD	00H
	DD	040H
	DD	FLAT:??_R3bad_alloc@std@@8
rdata$r	ENDS
;	COMDAT ??_R2bad_alloc@std@@8
rdata$r	SEGMENT
??_R2bad_alloc@std@@8 DD FLAT:??_R1A@?0A@EA@bad_alloc@std@@8 ; std::bad_alloc::`RTTI Base Class Array'
	DD	FLAT:??_R1A@?0A@EA@exception@std@@8
rdata$r	ENDS
;	COMDAT ??_R3bad_alloc@std@@8
rdata$r	SEGMENT
??_R3bad_alloc@std@@8 DD 00H				; std::bad_alloc::`RTTI Class Hierarchy Descriptor'
	DD	00H
	DD	02H
	DD	FLAT:??_R2bad_alloc@std@@8
rdata$r	ENDS
;	COMDAT ??_R0?AVbad_alloc@std@@@8
_DATA	SEGMENT
??_R0?AVbad_alloc@std@@@8 DD FLAT:??_7type_info@@6B@	; std::bad_alloc `RTTI Type Descriptor'
	DD	00H
	DB	'.?AVbad_alloc@std@@', 00H
_DATA	ENDS
;	COMDAT ??_R4bad_alloc@std@@6B@
rdata$r	SEGMENT
??_R4bad_alloc@std@@6B@ DD 00H				; std::bad_alloc::`RTTI Complete Object Locator'
	DD	00H
	DD	00H
	DD	FLAT:??_R0?AVbad_alloc@std@@@8
	DD	FLAT:??_R3bad_alloc@std@@8
rdata$r	ENDS
;	COMDAT ??_7bad_alloc@std@@6B@
CONST	SEGMENT
??_7bad_alloc@std@@6B@ DD FLAT:??_R4bad_alloc@std@@6B@	; std::bad_alloc::`vftable'
	DD	FLAT:??_Ebad_alloc@std@@UAEPAXI@Z
	DD	FLAT:?what@exception@std@@UBEPBDXZ
; Function compile flags: /Ogsp
CONST	ENDS
;	COMDAT ??0bad_alloc@std@@QAE@PBD@Z
_TEXT	SEGMENT
__Message$ = 8						; size = 4
??0bad_alloc@std@@QAE@PBD@Z PROC			; std::bad_alloc::bad_alloc, COMDAT
; _this$ = ecx

; 345  : 		{	// construct from message string

  00000	55		 push	 ebp
  00001	8b ec		 mov	 ebp, esp
  00003	56		 push	 esi
  00004	8d 45 08	 lea	 eax, DWORD PTR __Message$[ebp]
  00007	50		 push	 eax
  00008	8b f1		 mov	 esi, ecx
  0000a	ff 15 00 00 00
	00		 call	 DWORD PTR __imp_??0exception@std@@QAE@ABQBD@Z
  00010	c7 06 00 00 00
	00		 mov	 DWORD PTR [esi], OFFSET ??_7bad_alloc@std@@6B@

; 346  : 		}

  00016	8b c6		 mov	 eax, esi
  00018	5e		 pop	 esi
  00019	5d		 pop	 ebp
  0001a	c2 04 00	 ret	 4
??0bad_alloc@std@@QAE@PBD@Z ENDP			; std::bad_alloc::bad_alloc
_TEXT	ENDS
PUBLIC	??1bad_alloc@std@@UAE@XZ			; std::bad_alloc::~bad_alloc
EXTRN	__imp_??1exception@std@@UAE@XZ:PROC
; Function compile flags: /Ogsp
;	COMDAT ??1bad_alloc@std@@UAE@XZ
_TEXT	SEGMENT
??1bad_alloc@std@@UAE@XZ PROC				; std::bad_alloc::~bad_alloc, COMDAT
; _this$ = ecx

; 354  : 		{	// destroy the object

  00000	c7 01 00 00 00
	00		 mov	 DWORD PTR [ecx], OFFSET ??_7bad_alloc@std@@6B@

; 355  : 		}

  00006	ff 25 00 00 00
	00		 jmp	 DWORD PTR __imp_??1exception@std@@UAE@XZ
??1bad_alloc@std@@UAE@XZ ENDP				; std::bad_alloc::~bad_alloc
_TEXT	ENDS
EXTRN	??3@YAXPAX@Z:PROC				; operator delete
; Function compile flags: /Ogsp
;	COMDAT ??_Gbad_alloc@std@@UAEPAXI@Z
_TEXT	SEGMENT
___flags$ = 8						; size = 4
??_Gbad_alloc@std@@UAEPAXI@Z PROC			; std::bad_alloc::`scalar deleting destructor', COMDAT
; _this$ = ecx
  00000	55		 push	 ebp
  00001	8b ec		 mov	 ebp, esp
  00003	56		 push	 esi
  00004	8b f1		 mov	 esi, ecx
  00006	c7 06 00 00 00
	00		 mov	 DWORD PTR [esi], OFFSET ??_7bad_alloc@std@@6B@
  0000c	ff 15 00 00 00
	00		 call	 DWORD PTR __imp_??1exception@std@@UAE@XZ
  00012	f6 45 08 01	 test	 BYTE PTR ___flags$[ebp], 1
  00016	74 07		 je	 SHORT $LN1@scalar
  00018	56		 push	 esi
  00019	e8 00 00 00 00	 call	 ??3@YAXPAX@Z		; operator delete
  0001e	59		 pop	 ecx
$LN1@scalar:
  0001f	8b c6		 mov	 eax, esi
  00021	5e		 pop	 esi
  00022	5d		 pop	 ebp
  00023	c2 04 00	 ret	 4
??_Gbad_alloc@std@@UAEPAXI@Z ENDP			; std::bad_alloc::`scalar deleting destructor'
_TEXT	ENDS
PUBLIC	??2@YAPAXIPAX@Z					; operator new
; Function compile flags: /Ogsp
; File c:\program files (x86)\microsoft visual studio 10.0\vc\include\new
;	COMDAT ??2@YAPAXIPAX@Z
_TEXT	SEGMENT
___formal$ = 8						; size = 4
__Where$ = 12						; size = 4
??2@YAPAXIPAX@Z PROC					; operator new, COMDAT

; 56   : 	{	// construct array with placement at _Where

  00000	55		 push	 ebp
  00001	8b ec		 mov	 ebp, esp

; 57   : 	return (_Where);

  00003	8b 45 0c	 mov	 eax, DWORD PTR __Where$[ebp]

; 58   : 	}

  00006	5d		 pop	 ebp
  00007	c3		 ret	 0
??2@YAPAXIPAX@Z ENDP					; operator new
_TEXT	ENDS
PUBLIC	??3@YAXPAX0@Z					; operator delete
; Function compile flags: /Ogsp
;	COMDAT ??3@YAXPAX0@Z
_TEXT	SEGMENT
___formal$ = 8						; size = 4
___formal$ = 12						; size = 4
??3@YAXPAX0@Z PROC					; operator delete, COMDAT

; 62   : 	}

  00000	c3		 ret	 0
??3@YAXPAX0@Z ENDP					; operator delete
_TEXT	ENDS
PUBLIC	?GetCreator@ioBaseChar@@QAEPAVioPlayStage@@XZ	; ioBaseChar::GetCreator
; Function compile flags: /Ogsp
; File d:\lost saga for developer\youtube\tutorial\source\src\lsclient\iobasechar.h
;	COMDAT ?GetCreator@ioBaseChar@@QAEPAVioPlayStage@@XZ
_TEXT	SEGMENT
?GetCreator@ioBaseChar@@QAEPAVioPlayStage@@XZ PROC	; ioBaseChar::GetCreator, COMDAT
; _this$ = ecx

; 4013 : 	inline ioPlayStage* GetCreator() { return m_pCreator; }

  00000	8b 81 44 03 00
	00		 mov	 eax, DWORD PTR [ecx+836]
  00006	c3		 ret	 0
?GetCreator@ioBaseChar@@QAEPAVioPlayStage@@XZ ENDP	; ioBaseChar::GetCreator
_TEXT	ENDS
PUBLIC	?GetBaseCharList@ioPlayStage@@QBEABV?$vector@PAVioBaseChar@@V?$allocator@PAVioBaseChar@@@std@@@std@@XZ ; ioPlayStage::GetBaseCharList
; Function compile flags: /Ogsp
; File d:\lost saga for developer\youtube\tutorial\source\src\lsclient\ioplaystage.h
;	COMDAT ?GetBaseCharList@ioPlayStage@@QBEABV?$vector@PAVioBaseChar@@V?$allocator@PAVioBaseChar@@@std@@@std@@XZ
_TEXT	SEGMENT
?GetBaseCharList@ioPlayStage@@QBEABV?$vector@PAVioBaseChar@@V?$allocator@PAVioBaseChar@@@std@@@std@@XZ PROC ; ioPlayStage::GetBaseCharList, COMDAT
; _this$ = ecx

; 755  : 	const BaseCharList& GetBaseCharList() const { return m_BaseCharList; }

  00000	8d 41 2c	 lea	 eax, DWORD PTR [ecx+44]
  00003	c3		 ret	 0
?GetBaseCharList@ioPlayStage@@QBEABV?$vector@PAVioBaseChar@@V?$allocator@PAVioBaseChar@@@std@@@std@@XZ ENDP ; ioPlayStage::GetBaseCharList
_TEXT	ENDS
PUBLIC	?GetPlayMode@ioPlayStage@@QBEPAVioPlayMode@@XZ	; ioPlayStage::GetPlayMode
; Function compile flags: /Ogsp
;	COMDAT ?GetPlayMode@ioPlayStage@@QBEPAVioPlayMode@@XZ
_TEXT	SEGMENT
?GetPlayMode@ioPlayStage@@QBEPAVioPlayMode@@XZ PROC	; ioPlayStage::GetPlayMode, COMDAT
; _this$ = ecx

; 780  : 	inline ioPlayMode* GetPlayMode() const { return m_pPlayMode; }

  00000	8b 81 10 01 00
	00		 mov	 eax, DWORD PTR [ecx+272]
  00006	c3		 ret	 0
?GetPlayMode@ioPlayStage@@QBEPAVioPlayMode@@XZ ENDP	; ioPlayStage::GetPlayMode
_TEXT	ENDS
PUBLIC	?GetCloseOrderType@ioCloseOrderBuff@@QBE?AW4CloseOrderType@1@XZ ; ioCloseOrderBuff::GetCloseOrderType
; Function compile flags: /Ogsp
; File d:\lost saga for developer\youtube\tutorial\source\src\lsclient\ioetcbuff.h
;	COMDAT ?GetCloseOrderType@ioCloseOrderBuff@@QBE?AW4CloseOrderType@1@XZ
_TEXT	SEGMENT
?GetCloseOrderType@ioCloseOrderBuff@@QBE?AW4CloseOrderType@1@XZ PROC ; ioCloseOrderBuff::GetCloseOrderType, COMDAT
; _this$ = ecx

; 452  : 	inline CloseOrderType GetCloseOrderType() const { return m_eCloseOrderType; }

  00000	8b 81 e0 09 00
	00		 mov	 eax, DWORD PTR [ecx+2528]
  00006	c3		 ret	 0
?GetCloseOrderType@ioCloseOrderBuff@@QBE?AW4CloseOrderType@1@XZ ENDP ; ioCloseOrderBuff::GetCloseOrderType
_TEXT	ENDS
PUBLIC	?_Adopt@_Iterator_base0@std@@QAEXPBX@Z		; std::_Iterator_base0::_Adopt
; Function compile flags: /Ogsp
; File c:\program files (x86)\microsoft visual studio 10.0\vc\include\xutility
;	COMDAT ?_Adopt@_Iterator_base0@std@@QAEXPBX@Z
_TEXT	SEGMENT
___formal$ = 8						; size = 4
?_Adopt@_Iterator_base0@std@@QAEXPBX@Z PROC		; std::_Iterator_base0::_Adopt, COMDAT
; _this$ = ecx

; 49   : 		}

  00000	c2 04 00	 ret	 4
?_Adopt@_Iterator_base0@std@@QAEXPBX@Z ENDP		; std::_Iterator_base0::_Adopt
_TEXT	ENDS
PUBLIC	?DestroyResource@ioPullWeapon2@@UAEXPAVioPlayStage@@@Z ; ioPullWeapon2::DestroyResource
EXTRN	__imp_?DestroyEffect@ioEffectFactory@@QAEXPAVioEffect@@@Z:PROC
EXTRN	__imp_?GetSingleton@ioEffectFactory@@SAAAV1@XZ:PROC
; Function compile flags: /Ogsp
; File d:\lost saga for developer\youtube\tutorial\source\src\lsclient\iopullweapon2.cpp
;	COMDAT ?DestroyResource@ioPullWeapon2@@UAEXPAVioPlayStage@@@Z
_TEXT	SEGMENT
_pStage$ = 8						; size = 4
?DestroyResource@ioPullWeapon2@@UAEXPAVioPlayStage@@@Z PROC ; ioPullWeapon2::DestroyResource, COMDAT
; _this$ = ecx

; 149  : {

  00000	56		 push	 esi

; 150  : 	if( m_pMesh )

  00001	8d b1 f4 08 00
	00		 lea	 esi, DWORD PTR [ecx+2292]
  00007	8b 06		 mov	 eax, DWORD PTR [esi]
  00009	85 c0		 test	 eax, eax
  0000b	74 12		 je	 SHORT $LN1@DestroyRes

; 151  : 	{
; 152  : 		g_EffectFactory.DestroyEffect( m_pMesh );

  0000d	50		 push	 eax
  0000e	ff 15 00 00 00
	00		 call	 DWORD PTR __imp_?GetSingleton@ioEffectFactory@@SAAAV1@XZ
  00014	8b c8		 mov	 ecx, eax
  00016	ff 15 00 00 00
	00		 call	 DWORD PTR __imp_?DestroyEffect@ioEffectFactory@@QAEXPAVioEffect@@@Z

; 153  : 		m_pMesh = NULL;

  0001c	83 26 00	 and	 DWORD PTR [esi], 0
$LN1@DestroyRes:
  0001f	5e		 pop	 esi

; 154  : 	}
; 155  : }

  00020	c2 04 00	 ret	 4
?DestroyResource@ioPullWeapon2@@UAEXPAVioPlayStage@@@Z ENDP ; ioPullWeapon2::DestroyResource
_TEXT	ENDS
PUBLIC	?GetLocalAttackBox@ioPullWeapon2@@UBEABVioOrientBox@@XZ ; ioPullWeapon2::GetLocalAttackBox
; Function compile flags: /Ogsp
;	COMDAT ?GetLocalAttackBox@ioPullWeapon2@@UBEABVioOrientBox@@XZ
_TEXT	SEGMENT
?GetLocalAttackBox@ioPullWeapon2@@UBEABVioOrientBox@@XZ PROC ; ioPullWeapon2::GetLocalAttackBox, COMDAT
; _this$ = ecx

; 159  : 	return m_LocalAttackBox;

  00000	8d 81 98 08 00
	00		 lea	 eax, DWORD PTR [ecx+2200]

; 160  : }

  00006	c3		 ret	 0
?GetLocalAttackBox@ioPullWeapon2@@UBEABVioOrientBox@@XZ ENDP ; ioPullWeapon2::GetLocalAttackBox
_TEXT	ENDS
PUBLIC	?GetType@ioPullWeapon2@@UBE?AW4WeaponType@ioWeapon@@XZ ; ioPullWeapon2::GetType
; Function compile flags: /Ogsp
;	COMDAT ?GetType@ioPullWeapon2@@UBE?AW4WeaponType@ioWeapon@@XZ
_TEXT	SEGMENT
?GetType@ioPullWeapon2@@UBE?AW4WeaponType@ioWeapon@@XZ PROC ; ioPullWeapon2::GetType, COMDAT
; _this$ = ecx

; 164  : 	return WT_PULL_WEAPON2;

  00000	6a 46		 push	 70			; 00000046H
  00002	58		 pop	 eax

; 165  : }

  00003	c3		 ret	 0
?GetType@ioPullWeapon2@@UBE?AW4WeaponType@ioWeapon@@XZ ENDP ; ioPullWeapon2::GetType
_TEXT	ENDS
PUBLIC	?GetActionStopType@ioPullWeapon2@@UBE?AW4ActionStopType@@XZ ; ioPullWeapon2::GetActionStopType
; Function compile flags: /Ogsp
;	COMDAT ?GetActionStopType@ioPullWeapon2@@UBE?AW4ActionStopType@@XZ
_TEXT	SEGMENT
?GetActionStopType@ioPullWeapon2@@UBE?AW4ActionStopType@@XZ PROC ; ioPullWeapon2::GetActionStopType, COMDAT
; _this$ = ecx

; 169  : 	return m_ActionStopType;

  00000	a1 00 00 00 00	 mov	 eax, DWORD PTR ?m_ActionStopType@ioPullWeapon2@@2W4ActionStopType@@A ; ioPullWeapon2::m_ActionStopType

; 170  : }

  00005	c3		 ret	 0
?GetActionStopType@ioPullWeapon2@@UBE?AW4ActionStopType@@XZ ENDP ; ioPullWeapon2::GetActionStopType
_TEXT	ENDS
PUBLIC	?GetDieActionStopType@ioPullWeapon2@@UBE?AW4ActionStopType@@XZ ; ioPullWeapon2::GetDieActionStopType
; Function compile flags: /Ogsp
;	COMDAT ?GetDieActionStopType@ioPullWeapon2@@UBE?AW4ActionStopType@@XZ
_TEXT	SEGMENT
?GetDieActionStopType@ioPullWeapon2@@UBE?AW4ActionStopType@@XZ PROC ; ioPullWeapon2::GetDieActionStopType, COMDAT
; _this$ = ecx

; 174  : 	return m_DieActionStopType;

  00000	a1 00 00 00 00	 mov	 eax, DWORD PTR ?m_DieActionStopType@ioPullWeapon2@@2W4ActionStopType@@A ; ioPullWeapon2::m_DieActionStopType

; 175  : }

  00005	c3		 ret	 0
?GetDieActionStopType@ioPullWeapon2@@UBE?AW4ActionStopType@@XZ ENDP ; ioPullWeapon2::GetDieActionStopType
_TEXT	ENDS
PUBLIC	?SetStartPosition@ioPullWeapon2@@UAEXABUD3DXVECTOR3@@PAVioPlayStage@@@Z ; ioPullWeapon2::SetStartPosition
EXTRN	?SetPosition@ioWeapon@@QAEXABUD3DXVECTOR3@@@Z:PROC ; ioWeapon::SetPosition
EXTRN	__imp_??1ioHashString@@QAE@XZ:PROC
EXTRN	__imp_?HasLinkedSystem@ioEffect@@QBE_NXZ:PROC
EXTRN	__imp_?IsEmpty@ioHashString@@QBE_NXZ:PROC
EXTRN	__imp_?GetSkeletonName@ioEffect@@QBE?AVioHashString@@XZ:PROC
EXTRN	___CxxFrameHandler3:PROC
EXTRN	@__security_check_cookie@4:PROC
EXTRN	__EH_epilog3:PROC
EXTRN	__EH_prolog3:PROC
;	COMDAT xdata$x
xdata$x	SEGMENT
__unwindtable$?SetStartPosition@ioPullWeapon2@@UAEXABUD3DXVECTOR3@@PAVioPlayStage@@@Z DD 0ffffffffH
	DD	FLAT:__unwindfunclet$?SetStartPosition@ioPullWeapon2@@UAEXABUD3DXVECTOR3@@PAVioPlayStage@@@Z$0
__ehfuncinfo$?SetStartPosition@ioPullWeapon2@@UAEXABUD3DXVECTOR3@@PAVioPlayStage@@@Z DD 019930522H
	DD	01H
	DD	FLAT:__unwindtable$?SetStartPosition@ioPullWeapon2@@UAEXABUD3DXVECTOR3@@PAVioPlayStage@@@Z
	DD	2 DUP(00H)
	DD	2 DUP(00H)
	DD	00H
	DD	01H
; Function compile flags: /Ogsp
xdata$x	ENDS
;	COMDAT ?SetStartPosition@ioPullWeapon2@@UAEXABUD3DXVECTOR3@@PAVioPlayStage@@@Z
_TEXT	SEGMENT
$T571913 = -32						; size = 16
$T571916 = -16						; size = 4
__$EHRec$ = -12						; size = 12
_vPos$ = 8						; size = 4
_pStage$ = 12						; size = 4
?SetStartPosition@ioPullWeapon2@@UAEXABUD3DXVECTOR3@@PAVioPlayStage@@@Z PROC ; ioPullWeapon2::SetStartPosition, COMDAT
; _this$ = ecx

; 192  : {

  00000	6a 14		 push	 20			; 00000014H
  00002	b8 00 00 00 00	 mov	 eax, __ehhandler$?SetStartPosition@ioPullWeapon2@@UAEXABUD3DXVECTOR3@@PAVioPlayStage@@@Z
  00007	e8 00 00 00 00	 call	 __EH_prolog3
  0000c	8b f1		 mov	 esi, ecx
  0000e	83 65 f0 00	 and	 DWORD PTR $T571916[ebp], 0

; 193  : 	if( m_pMesh && m_pMesh->GetSkeletonName().IsEmpty() && m_pMesh->HasLinkedSystem() )

  00012	8b 8e f4 08 00
	00		 mov	 ecx, DWORD PTR [esi+2292]
  00018	85 c9		 test	 ecx, ecx
  0001a	74 35		 je	 SHORT $LN4@SetStartPo
  0001c	8d 45 e0	 lea	 eax, DWORD PTR $T571913[ebp]
  0001f	50		 push	 eax
  00020	ff 15 00 00 00
	00		 call	 DWORD PTR __imp_?GetSkeletonName@ioEffect@@QBE?AVioHashString@@XZ
  00026	83 65 fc 00	 and	 DWORD PTR __$EHRec$[ebp+8], 0
  0002a	8b c8		 mov	 ecx, eax
  0002c	c7 45 f0 01 00
	00 00		 mov	 DWORD PTR $T571916[ebp], 1
  00033	ff 15 00 00 00
	00		 call	 DWORD PTR __imp_?IsEmpty@ioHashString@@QBE_NXZ
  00039	84 c0		 test	 al, al
  0003b	74 14		 je	 SHORT $LN4@SetStartPo
  0003d	8b 8e f4 08 00
	00		 mov	 ecx, DWORD PTR [esi+2292]
  00043	ff 15 00 00 00
	00		 call	 DWORD PTR __imp_?HasLinkedSystem@ioEffect@@QBE_NXZ
  00049	84 c0		 test	 al, al
  0004b	74 04		 je	 SHORT $LN4@SetStartPo
  0004d	b3 01		 mov	 bl, 1
  0004f	eb 02		 jmp	 SHORT $LN5@SetStartPo
$LN4@SetStartPo:
  00051	32 db		 xor	 bl, bl
$LN5@SetStartPo:
  00053	83 4d fc ff	 or	 DWORD PTR __$EHRec$[ebp+8], -1
  00057	f6 45 f0 01	 test	 BYTE PTR $T571916[ebp], 1
  0005b	74 09		 je	 SHORT $LN8@SetStartPo
  0005d	8d 4d e0	 lea	 ecx, DWORD PTR $T571913[ebp]
  00060	ff 15 00 00 00
	00		 call	 DWORD PTR __imp_??1ioHashString@@QAE@XZ
$LN8@SetStartPo:
  00066	84 db		 test	 bl, bl
  00068	75 16		 jne	 SHORT $LN2@SetStartPo

; 194  : 		return;
; 195  : 
; 196  : 	SetPosition( vPos );

  0006a	ff 75 08	 push	 DWORD PTR _vPos$[ebp]
  0006d	8b ce		 mov	 ecx, esi
  0006f	e8 00 00 00 00	 call	 ?SetPosition@ioWeapon@@QAEXABUD3DXVECTOR3@@@Z ; ioWeapon::SetPosition

; 197  : 	m_vStartPos = vPos;

  00074	8d be e8 08 00
	00		 lea	 edi, DWORD PTR [esi+2280]
  0007a	8b 75 08	 mov	 esi, DWORD PTR _vPos$[ebp]
  0007d	a5		 movsd
  0007e	a5		 movsd
  0007f	a5		 movsd
$LN2@SetStartPo:

; 198  : }

  00080	e8 00 00 00 00	 call	 __EH_epilog3
  00085	c2 08 00	 ret	 8
_TEXT	ENDS
;	COMDAT text$x
text$x	SEGMENT
__unwindfunclet$?SetStartPosition@ioPullWeapon2@@UAEXABUD3DXVECTOR3@@PAVioPlayStage@@@Z$0:
  00000	8b 45 f0	 mov	 eax, DWORD PTR $T571916[ebp]
  00003	83 e0 01	 and	 eax, 1
  00006	0f 84 0d 00 00
	00		 je	 $LN7@SetStartPo
  0000c	83 65 f0 fe	 and	 DWORD PTR $T571916[ebp], -2 ; fffffffeH
  00010	8d 4d e0	 lea	 ecx, DWORD PTR $T571913[ebp]
  00013	ff 25 00 00 00
	00		 jmp	 DWORD PTR __imp_??1ioHashString@@QAE@XZ
$LN7@SetStartPo:
  00019	c3		 ret	 0
__ehhandler$?SetStartPosition@ioPullWeapon2@@UAEXABUD3DXVECTOR3@@PAVioPlayStage@@@Z:
  0001a	8b 54 24 08	 mov	 edx, DWORD PTR [esp+8]
  0001e	8d 42 0c	 lea	 eax, DWORD PTR [edx+12]
  00021	8b 4a dc	 mov	 ecx, DWORD PTR [edx-36]
  00024	33 c8		 xor	 ecx, eax
  00026	e8 00 00 00 00	 call	 @__security_check_cookie@4
  0002b	b8 00 00 00 00	 mov	 eax, OFFSET __ehfuncinfo$?SetStartPosition@ioPullWeapon2@@UAEXABUD3DXVECTOR3@@PAVioPlayStage@@@Z
  00030	e9 00 00 00 00	 jmp	 ___CxxFrameHandler3
text$x	ENDS
?SetStartPosition@ioPullWeapon2@@UAEXABUD3DXVECTOR3@@PAVioPlayStage@@@Z ENDP ; ioPullWeapon2::SetStartPosition
PUBLIC	??0D3DXVECTOR3@@QAE@XZ				; D3DXVECTOR3::D3DXVECTOR3
; Function compile flags: /Ogsp
; File c:\program files (x86)\microsoft directx sdk (june 2010)\include\d3dx9math.h
;	COMDAT ??0D3DXVECTOR3@@QAE@XZ
_TEXT	SEGMENT
??0D3DXVECTOR3@@QAE@XZ PROC				; D3DXVECTOR3::D3DXVECTOR3, COMDAT
; _this$ = ecx

; 165  :     D3DXVECTOR3() {};

  00000	8b c1		 mov	 eax, ecx
  00002	c3		 ret	 0
??0D3DXVECTOR3@@QAE@XZ ENDP				; D3DXVECTOR3::D3DXVECTOR3
_TEXT	ENDS
PUBLIC	??0D3DXQUATERNION@@QAE@XZ			; D3DXQUATERNION::D3DXQUATERNION
; Function compile flags: /Ogsp
;	COMDAT ??0D3DXQUATERNION@@QAE@XZ
_TEXT	SEGMENT
??0D3DXQUATERNION@@QAE@XZ PROC				; D3DXQUATERNION::D3DXQUATERNION, COMDAT
; _this$ = ecx

; 429  :     D3DXQUATERNION() {}

  00000	8b c1		 mov	 eax, ecx
  00002	c3		 ret	 0
??0D3DXQUATERNION@@QAE@XZ ENDP				; D3DXQUATERNION::D3DXQUATERNION
_TEXT	ENDS
PUBLIC	??0D3DXVECTOR3@@QAE@MMM@Z			; D3DXVECTOR3::D3DXVECTOR3
; Function compile flags: /Ogsp
; File c:\program files (x86)\microsoft directx sdk (june 2010)\include\d3dx9math.inl
;	COMDAT ??0D3DXVECTOR3@@QAE@MMM@Z
_TEXT	SEGMENT
_fx$ = 8						; size = 4
_fy$ = 12						; size = 4
_fz$ = 16						; size = 4
??0D3DXVECTOR3@@QAE@MMM@Z PROC				; D3DXVECTOR3::D3DXVECTOR3, COMDAT
; _this$ = ecx

; 303  : {

  00000	55		 push	 ebp
  00001	8b ec		 mov	 ebp, esp

; 304  :     x = fx;

  00003	f3 0f 10 45 08	 movss	 xmm0, DWORD PTR _fx$[ebp]
  00008	8b c1		 mov	 eax, ecx
  0000a	f3 0f 11 00	 movss	 DWORD PTR [eax], xmm0

; 305  :     y = fy;

  0000e	f3 0f 10 45 0c	 movss	 xmm0, DWORD PTR _fy$[ebp]
  00013	f3 0f 11 40 04	 movss	 DWORD PTR [eax+4], xmm0

; 306  :     z = fz;

  00018	f3 0f 10 45 10	 movss	 xmm0, DWORD PTR _fz$[ebp]
  0001d	f3 0f 11 40 08	 movss	 DWORD PTR [eax+8], xmm0

; 307  : }

  00022	5d		 pop	 ebp
  00023	c2 0c 00	 ret	 12			; 0000000cH
??0D3DXVECTOR3@@QAE@MMM@Z ENDP				; D3DXVECTOR3::D3DXVECTOR3
_TEXT	ENDS
PUBLIC	?CreateMapCollisionEffect@ioPullWeapon2@@IAEXPAVioPlayStage@@UD3DXVECTOR3@@@Z ; ioPullWeapon2::CreateMapCollisionEffect
EXTRN	?CreateMapEffect@ioPlayStage@@QAEPAVioMapEffect@@ABVioHashString@@ABUD3DXVECTOR3@@1@Z:PROC ; ioPlayStage::CreateMapEffect
EXTRN	?GetScale@ioWeapon@@QBEABUD3DXVECTOR3@@XZ:PROC	; ioWeapon::GetScale
; Function compile flags: /Ogsp
; File d:\lost saga for developer\youtube\tutorial\source\src\lsclient\iopullweapon2.cpp
;	COMDAT ?CreateMapCollisionEffect@ioPullWeapon2@@IAEXPAVioPlayStage@@UD3DXVECTOR3@@@Z
_TEXT	SEGMENT
_pStage$ = 8						; size = 4
_vColPoint$ = 12					; size = 12
?CreateMapCollisionEffect@ioPullWeapon2@@IAEXPAVioPlayStage@@UD3DXVECTOR3@@@Z PROC ; ioPullWeapon2::CreateMapCollisionEffect, COMDAT
; _this$ = ecx

; 524  : {

  00000	55		 push	 ebp
  00001	8b ec		 mov	 ebp, esp
  00003	56		 push	 esi
  00004	57		 push	 edi
  00005	8b 7d 08	 mov	 edi, DWORD PTR _pStage$[ebp]
  00008	8b f1		 mov	 esi, ecx

; 525  : 	pStage->CreateMapEffect( m_szMapCollisionEffect, vColPoint, GetScale() );

  0000a	e8 00 00 00 00	 call	 ?GetScale@ioWeapon@@QBEABUD3DXVECTOR3@@XZ ; ioWeapon::GetScale
  0000f	50		 push	 eax
  00010	8d 45 0c	 lea	 eax, DWORD PTR _vColPoint$[ebp]
  00013	50		 push	 eax
  00014	81 c6 f8 08 00
	00		 add	 esi, 2296		; 000008f8H
  0001a	56		 push	 esi
  0001b	8b cf		 mov	 ecx, edi
  0001d	e8 00 00 00 00	 call	 ?CreateMapEffect@ioPlayStage@@QAEPAVioMapEffect@@ABVioHashString@@ABUD3DXVECTOR3@@1@Z ; ioPlayStage::CreateMapEffect
  00022	5f		 pop	 edi
  00023	5e		 pop	 esi

; 526  : }

  00024	5d		 pop	 ebp
  00025	c2 10 00	 ret	 16			; 00000010H
?CreateMapCollisionEffect@ioPullWeapon2@@IAEXPAVioPlayStage@@UD3DXVECTOR3@@@Z ENDP ; ioPullWeapon2::CreateMapCollisionEffect
_TEXT	ENDS
PUBLIC	??HD3DXVECTOR3@@QBE?AU0@ABU0@@Z			; D3DXVECTOR3::operator+
; Function compile flags: /Ogsp
; File c:\program files (x86)\microsoft directx sdk (june 2010)\include\d3dx9math.inl
;	COMDAT ??HD3DXVECTOR3@@QBE?AU0@ABU0@@Z
_TEXT	SEGMENT
___$ReturnUdt$ = 8					; size = 4
_v$ = 12						; size = 4
??HD3DXVECTOR3@@QBE?AU0@ABU0@@Z PROC			; D3DXVECTOR3::operator+, COMDAT
; _this$ = ecx

; 380  : {

  00000	55		 push	 ebp
  00001	8b ec		 mov	 ebp, esp

; 381  :     return D3DXVECTOR3(x + v.x, y + v.y, z + v.z);

  00003	8b 55 0c	 mov	 edx, DWORD PTR _v$[ebp]
  00006	f3 0f 10 02	 movss	 xmm0, DWORD PTR [edx]
  0000a	f3 0f 10 09	 movss	 xmm1, DWORD PTR [ecx]
  0000e	8b 45 08	 mov	 eax, DWORD PTR ___$ReturnUdt$[ebp]
  00011	0f 5a c0	 cvtps2pd xmm0, xmm0
  00014	0f 5a c9	 cvtps2pd xmm1, xmm1
  00017	f2 0f 58 c1	 addsd	 xmm0, xmm1
  0001b	f3 0f 10 49 04	 movss	 xmm1, DWORD PTR [ecx+4]
  00020	66 0f 5a c0	 cvtpd2ps xmm0, xmm0
  00024	f3 0f 11 00	 movss	 DWORD PTR [eax], xmm0
  00028	f3 0f 10 42 04	 movss	 xmm0, DWORD PTR [edx+4]
  0002d	0f 5a c0	 cvtps2pd xmm0, xmm0
  00030	0f 5a c9	 cvtps2pd xmm1, xmm1
  00033	f2 0f 58 c1	 addsd	 xmm0, xmm1
  00037	f3 0f 10 49 08	 movss	 xmm1, DWORD PTR [ecx+8]
  0003c	66 0f 5a c0	 cvtpd2ps xmm0, xmm0
  00040	f3 0f 11 40 04	 movss	 DWORD PTR [eax+4], xmm0
  00045	f3 0f 10 42 08	 movss	 xmm0, DWORD PTR [edx+8]
  0004a	0f 5a c0	 cvtps2pd xmm0, xmm0
  0004d	0f 5a c9	 cvtps2pd xmm1, xmm1
  00050	f2 0f 58 c1	 addsd	 xmm0, xmm1
  00054	66 0f 5a c0	 cvtpd2ps xmm0, xmm0
  00058	f3 0f 11 40 08	 movss	 DWORD PTR [eax+8], xmm0

; 382  : }

  0005d	5d		 pop	 ebp
  0005e	c2 08 00	 ret	 8
??HD3DXVECTOR3@@QBE?AU0@ABU0@@Z ENDP			; D3DXVECTOR3::operator+
_TEXT	ENDS
PUBLIC	??GD3DXVECTOR3@@QBE?AU0@ABU0@@Z			; D3DXVECTOR3::operator-
; Function compile flags: /Ogsp
;	COMDAT ??GD3DXVECTOR3@@QBE?AU0@ABU0@@Z
_TEXT	SEGMENT
___$ReturnUdt$ = 8					; size = 4
_v$ = 12						; size = 4
??GD3DXVECTOR3@@QBE?AU0@ABU0@@Z PROC			; D3DXVECTOR3::operator-, COMDAT
; _this$ = ecx

; 386  : {

  00000	55		 push	 ebp
  00001	8b ec		 mov	 ebp, esp

; 387  :     return D3DXVECTOR3(x - v.x, y - v.y, z - v.z);

  00003	8b 55 0c	 mov	 edx, DWORD PTR _v$[ebp]
  00006	f3 0f 10 01	 movss	 xmm0, DWORD PTR [ecx]
  0000a	f3 0f 10 0a	 movss	 xmm1, DWORD PTR [edx]
  0000e	8b 45 08	 mov	 eax, DWORD PTR ___$ReturnUdt$[ebp]
  00011	0f 5a c0	 cvtps2pd xmm0, xmm0
  00014	0f 5a c9	 cvtps2pd xmm1, xmm1
  00017	f2 0f 5c c1	 subsd	 xmm0, xmm1
  0001b	f3 0f 10 4a 04	 movss	 xmm1, DWORD PTR [edx+4]
  00020	66 0f 5a c0	 cvtpd2ps xmm0, xmm0
  00024	f3 0f 11 00	 movss	 DWORD PTR [eax], xmm0
  00028	f3 0f 10 41 04	 movss	 xmm0, DWORD PTR [ecx+4]
  0002d	0f 5a c0	 cvtps2pd xmm0, xmm0
  00030	0f 5a c9	 cvtps2pd xmm1, xmm1
  00033	f2 0f 5c c1	 subsd	 xmm0, xmm1
  00037	f3 0f 10 4a 08	 movss	 xmm1, DWORD PTR [edx+8]
  0003c	66 0f 5a c0	 cvtpd2ps xmm0, xmm0
  00040	f3 0f 11 40 04	 movss	 DWORD PTR [eax+4], xmm0
  00045	f3 0f 10 41 08	 movss	 xmm0, DWORD PTR [ecx+8]
  0004a	0f 5a c0	 cvtps2pd xmm0, xmm0
  0004d	0f 5a c9	 cvtps2pd xmm1, xmm1
  00050	f2 0f 5c c1	 subsd	 xmm0, xmm1
  00054	66 0f 5a c0	 cvtpd2ps xmm0, xmm0
  00058	f3 0f 11 40 08	 movss	 DWORD PTR [eax+8], xmm0

; 388  : }

  0005d	5d		 pop	 ebp
  0005e	c2 08 00	 ret	 8
??GD3DXVECTOR3@@QBE?AU0@ABU0@@Z ENDP			; D3DXVECTOR3::operator-
_TEXT	ENDS
PUBLIC	??DD3DXVECTOR3@@QBE?AU0@M@Z			; D3DXVECTOR3::operator*
; Function compile flags: /Ogsp
;	COMDAT ??DD3DXVECTOR3@@QBE?AU0@M@Z
_TEXT	SEGMENT
___$ReturnUdt$ = 8					; size = 4
_f$ = 12						; size = 4
??DD3DXVECTOR3@@QBE?AU0@M@Z PROC			; D3DXVECTOR3::operator*, COMDAT
; _this$ = ecx

; 392  : {

  00000	55		 push	 ebp
  00001	8b ec		 mov	 ebp, esp

; 393  :     return D3DXVECTOR3(x * f, y * f, z * f);

  00003	f3 0f 10 4d 0c	 movss	 xmm1, DWORD PTR _f$[ebp]
  00008	f3 0f 10 01	 movss	 xmm0, DWORD PTR [ecx]
  0000c	8b 45 08	 mov	 eax, DWORD PTR ___$ReturnUdt$[ebp]
  0000f	0f 5a c0	 cvtps2pd xmm0, xmm0
  00012	0f 5a c9	 cvtps2pd xmm1, xmm1
  00015	f2 0f 59 c1	 mulsd	 xmm0, xmm1
  00019	f3 0f 10 4d 0c	 movss	 xmm1, DWORD PTR _f$[ebp]
  0001e	66 0f 5a c0	 cvtpd2ps xmm0, xmm0
  00022	f3 0f 11 00	 movss	 DWORD PTR [eax], xmm0
  00026	f3 0f 10 41 04	 movss	 xmm0, DWORD PTR [ecx+4]
  0002b	0f 5a c0	 cvtps2pd xmm0, xmm0
  0002e	0f 5a c9	 cvtps2pd xmm1, xmm1
  00031	f2 0f 59 c1	 mulsd	 xmm0, xmm1
  00035	f3 0f 10 4d 0c	 movss	 xmm1, DWORD PTR _f$[ebp]
  0003a	66 0f 5a c0	 cvtpd2ps xmm0, xmm0
  0003e	f3 0f 11 40 04	 movss	 DWORD PTR [eax+4], xmm0
  00043	f3 0f 10 41 08	 movss	 xmm0, DWORD PTR [ecx+8]
  00048	0f 5a c0	 cvtps2pd xmm0, xmm0
  0004b	0f 5a c9	 cvtps2pd xmm1, xmm1
  0004e	f2 0f 59 c1	 mulsd	 xmm0, xmm1
  00052	66 0f 5a c0	 cvtpd2ps xmm0, xmm0
  00056	f3 0f 11 40 08	 movss	 DWORD PTR [eax+8], xmm0

; 394  : }

  0005b	5d		 pop	 ebp
  0005c	c2 08 00	 ret	 8
??DD3DXVECTOR3@@QBE?AU0@M@Z ENDP			; D3DXVECTOR3::operator*
_TEXT	ENDS
PUBLIC	?empty@?$vector@VioHashString@@V?$allocator@VioHashString@@@std@@@std@@QBE_NXZ ; std::vector<ioHashString,std::allocator<ioHashString> >::empty
; Function compile flags: /Ogsp
; File c:\program files (x86)\microsoft visual studio 10.0\vc\include\vector
;	COMDAT ?empty@?$vector@VioHashString@@V?$allocator@VioHashString@@@std@@@std@@QBE_NXZ
_TEXT	SEGMENT
?empty@?$vector@VioHashString@@V?$allocator@VioHashString@@@std@@@std@@QBE_NXZ PROC ; std::vector<ioHashString,std::allocator<ioHashString> >::empty, COMDAT
; _this$ = ecx

; 889  : 		return (this->_Myfirst == this->_Mylast);

  00000	8b 01		 mov	 eax, DWORD PTR [ecx]
  00002	2b 41 04	 sub	 eax, DWORD PTR [ecx+4]
  00005	f7 d8		 neg	 eax
  00007	1b c0		 sbb	 eax, eax
  00009	40		 inc	 eax

; 890  : 		}

  0000a	c3		 ret	 0
?empty@?$vector@VioHashString@@V?$allocator@VioHashString@@@std@@@std@@QBE_NXZ ENDP ; std::vector<ioHashString,std::allocator<ioHashString> >::empty
_TEXT	ENDS
PUBLIC	?empty@?$vector@UWeaponInfo@@V?$allocator@UWeaponInfo@@@std@@@std@@QBE_NXZ ; std::vector<WeaponInfo,std::allocator<WeaponInfo> >::empty
; Function compile flags: /Ogsp
;	COMDAT ?empty@?$vector@UWeaponInfo@@V?$allocator@UWeaponInfo@@@std@@@std@@QBE_NXZ
_TEXT	SEGMENT
?empty@?$vector@UWeaponInfo@@V?$allocator@UWeaponInfo@@@std@@@std@@QBE_NXZ PROC ; std::vector<WeaponInfo,std::allocator<WeaponInfo> >::empty, COMDAT
; _this$ = ecx

; 889  : 		return (this->_Myfirst == this->_Mylast);

  00000	8b 01		 mov	 eax, DWORD PTR [ecx]
  00002	2b 41 04	 sub	 eax, DWORD PTR [ecx+4]
  00005	f7 d8		 neg	 eax
  00007	1b c0		 sbb	 eax, eax
  00009	40		 inc	 eax

; 890  : 		}

  0000a	c3		 ret	 0
?empty@?$vector@UWeaponInfo@@V?$allocator@UWeaponInfo@@@std@@@std@@QBE_NXZ ENDP ; std::vector<WeaponInfo,std::allocator<WeaponInfo> >::empty
_TEXT	ENDS
PUBLIC	??0?$_Vector_const_iterator@V?$_Vector_val@PAVioBaseChar@@V?$allocator@PAVioBaseChar@@@std@@@std@@@std@@QAE@XZ ; std::_Vector_const_iterator<std::_Vector_val<ioBaseChar *,std::allocator<ioBaseChar *> > >::_Vector_const_iterator<std::_Vector_val<ioBaseChar *,std::allocator<ioBaseChar *> > >
; Function compile flags: /Ogsp
;	COMDAT ??0?$_Vector_const_iterator@V?$_Vector_val@PAVioBaseChar@@V?$allocator@PAVioBaseChar@@@std@@@std@@@std@@QAE@XZ
_TEXT	SEGMENT
??0?$_Vector_const_iterator@V?$_Vector_val@PAVioBaseChar@@V?$allocator@PAVioBaseChar@@@std@@@std@@@std@@QAE@XZ PROC ; std::_Vector_const_iterator<std::_Vector_val<ioBaseChar *,std::allocator<ioBaseChar *> > >::_Vector_const_iterator<std::_Vector_val<ioBaseChar *,std::allocator<ioBaseChar *> > >, COMDAT
; _this$ = ecx

; 40   : 		{	// construct with null pointer

  00000	8b c1		 mov	 eax, ecx
  00002	83 20 00	 and	 DWORD PTR [eax], 0

; 41   : 		}

  00005	c3		 ret	 0
??0?$_Vector_const_iterator@V?$_Vector_val@PAVioBaseChar@@V?$allocator@PAVioBaseChar@@@std@@@std@@@std@@QAE@XZ ENDP ; std::_Vector_const_iterator<std::_Vector_val<ioBaseChar *,std::allocator<ioBaseChar *> > >::_Vector_const_iterator<std::_Vector_val<ioBaseChar *,std::allocator<ioBaseChar *> > >
_TEXT	ENDS
PUBLIC	??D?$_Vector_const_iterator@V?$_Vector_val@PAVioBaseChar@@V?$allocator@PAVioBaseChar@@@std@@@std@@@std@@QBEABQAVioBaseChar@@XZ ; std::_Vector_const_iterator<std::_Vector_val<ioBaseChar *,std::allocator<ioBaseChar *> > >::operator*
; Function compile flags: /Ogsp
;	COMDAT ??D?$_Vector_const_iterator@V?$_Vector_val@PAVioBaseChar@@V?$allocator@PAVioBaseChar@@@std@@@std@@@std@@QBEABQAVioBaseChar@@XZ
_TEXT	SEGMENT
??D?$_Vector_const_iterator@V?$_Vector_val@PAVioBaseChar@@V?$allocator@PAVioBaseChar@@@std@@@std@@@std@@QBEABQAVioBaseChar@@XZ PROC ; std::_Vector_const_iterator<std::_Vector_val<ioBaseChar *,std::allocator<ioBaseChar *> > >::operator*, COMDAT
; _this$ = ecx

; 64   :  #if _ITERATOR_DEBUG_LEVEL == 2
; 65   : 		if (this->_Getcont() == 0
; 66   : 			|| this->_Ptr == 0
; 67   : 			|| this->_Ptr < ((_Myvec *)this->_Getcont())->_Myfirst
; 68   : 			|| ((_Myvec *)this->_Getcont())->_Mylast <= this->_Ptr)
; 69   : 			{	// report error
; 70   : 			_DEBUG_ERROR("vector iterator not dereferencable");
; 71   : 			_SCL_SECURE_OUT_OF_RANGE;
; 72   : 			}
; 73   : 
; 74   :  #elif _ITERATOR_DEBUG_LEVEL == 1
; 75   : 		_SCL_SECURE_VALIDATE(this->_Getcont() != 0);
; 76   : 		_SCL_SECURE_VALIDATE_RANGE(
; 77   : 			this->_Ptr != 0
; 78   : 			&& ((_Myvec *)this->_Getcont())->_Myfirst <= this->_Ptr
; 79   : 			&& this->_Ptr < ((_Myvec *)this->_Getcont())->_Mylast);
; 80   :  #endif /* _ITERATOR_DEBUG_LEVEL */
; 81   : 
; 82   : 		__analysis_assume(this->_Ptr != 0);
; 83   : 
; 84   : 		return (*this->_Ptr);

  00000	8b 01		 mov	 eax, DWORD PTR [ecx]

; 85   : 		}

  00002	c3		 ret	 0
??D?$_Vector_const_iterator@V?$_Vector_val@PAVioBaseChar@@V?$allocator@PAVioBaseChar@@@std@@@std@@@std@@QBEABQAVioBaseChar@@XZ ENDP ; std::_Vector_const_iterator<std::_Vector_val<ioBaseChar *,std::allocator<ioBaseChar *> > >::operator*
_TEXT	ENDS
PUBLIC	??E?$_Vector_const_iterator@V?$_Vector_val@PAVioBaseChar@@V?$allocator@PAVioBaseChar@@@std@@@std@@@std@@QAEAAV01@XZ ; std::_Vector_const_iterator<std::_Vector_val<ioBaseChar *,std::allocator<ioBaseChar *> > >::operator++
; Function compile flags: /Ogsp
;	COMDAT ??E?$_Vector_const_iterator@V?$_Vector_val@PAVioBaseChar@@V?$allocator@PAVioBaseChar@@@std@@@std@@@std@@QAEAAV01@XZ
_TEXT	SEGMENT
??E?$_Vector_const_iterator@V?$_Vector_val@PAVioBaseChar@@V?$allocator@PAVioBaseChar@@@std@@@std@@@std@@QAEAAV01@XZ PROC ; std::_Vector_const_iterator<std::_Vector_val<ioBaseChar *,std::allocator<ioBaseChar *> > >::operator++, COMDAT
; _this$ = ecx

; 93   : 		{	// preincrement

  00000	8b c1		 mov	 eax, ecx

; 94   :  #if _ITERATOR_DEBUG_LEVEL == 2
; 95   : 		if (this->_Getcont() == 0
; 96   : 			|| this->_Ptr == 0
; 97   : 			|| ((_Myvec *)this->_Getcont())->_Mylast <= this->_Ptr)
; 98   : 			{	// report error
; 99   : 			_DEBUG_ERROR("vector iterator not incrementable");
; 100  : 			_SCL_SECURE_OUT_OF_RANGE;
; 101  : 			}
; 102  : 
; 103  :  #elif _ITERATOR_DEBUG_LEVEL == 1
; 104  : 		_SCL_SECURE_VALIDATE(this->_Getcont() != 0);
; 105  : 		_SCL_SECURE_VALIDATE_RANGE(
; 106  : 			this->_Ptr != 0
; 107  : 			&& this->_Ptr < ((_Myvec *)this->_Getcont())->_Mylast);
; 108  :  #endif /* _ITERATOR_DEBUG_LEVEL */
; 109  : 
; 110  : 		++this->_Ptr;

  00002	83 00 04	 add	 DWORD PTR [eax], 4

; 111  : 		return (*this);
; 112  : 		}

  00005	c3		 ret	 0
??E?$_Vector_const_iterator@V?$_Vector_val@PAVioBaseChar@@V?$allocator@PAVioBaseChar@@@std@@@std@@@std@@QAEAAV01@XZ ENDP ; std::_Vector_const_iterator<std::_Vector_val<ioBaseChar *,std::allocator<ioBaseChar *> > >::operator++
_TEXT	ENDS
PUBLIC	?capacity@?$vector@VioHashString@@V?$allocator@VioHashString@@@std@@@std@@QBEIXZ ; std::vector<ioHashString,std::allocator<ioHashString> >::capacity
; Function compile flags: /Ogsp
;	COMDAT ?capacity@?$vector@VioHashString@@V?$allocator@VioHashString@@@std@@@std@@QBEIXZ
_TEXT	SEGMENT
?capacity@?$vector@VioHashString@@V?$allocator@VioHashString@@@std@@@std@@QBEIXZ PROC ; std::vector<ioHashString,std::allocator<ioHashString> >::capacity, COMDAT
; _this$ = ecx

; 777  : 		return (this->_Myend - this->_Myfirst);

  00000	8b 41 08	 mov	 eax, DWORD PTR [ecx+8]
  00003	2b 01		 sub	 eax, DWORD PTR [ecx]
  00005	c1 f8 04	 sar	 eax, 4

; 778  : 		}

  00008	c3		 ret	 0
?capacity@?$vector@VioHashString@@V?$allocator@VioHashString@@@std@@@std@@QBEIXZ ENDP ; std::vector<ioHashString,std::allocator<ioHashString> >::capacity
_TEXT	ENDS
PUBLIC	?_Inside@?$vector@VioHashString@@V?$allocator@VioHashString@@@std@@@std@@IBE_NPBVioHashString@@@Z ; std::vector<ioHashString,std::allocator<ioHashString> >::_Inside
; Function compile flags: /Ogsp
;	COMDAT ?_Inside@?$vector@VioHashString@@V?$allocator@VioHashString@@@std@@@std@@IBE_NPBVioHashString@@@Z
_TEXT	SEGMENT
__Ptr$ = 8						; size = 4
?_Inside@?$vector@VioHashString@@V?$allocator@VioHashString@@@std@@@std@@IBE_NPBVioHashString@@@Z PROC ; std::vector<ioHashString,std::allocator<ioHashString> >::_Inside, COMDAT
; _this$ = ecx

; 1285 : 		{	// test if _Ptr points inside vector

  00000	55		 push	 ebp
  00001	8b ec		 mov	 ebp, esp

; 1286 : 		return (_Ptr < this->_Mylast && this->_Myfirst <= _Ptr);

  00003	8b 45 08	 mov	 eax, DWORD PTR __Ptr$[ebp]
  00006	3b 41 04	 cmp	 eax, DWORD PTR [ecx+4]
  00009	73 09		 jae	 SHORT $LN3@Inside
  0000b	39 01		 cmp	 DWORD PTR [ecx], eax
  0000d	77 05		 ja	 SHORT $LN3@Inside
  0000f	33 c0		 xor	 eax, eax
  00011	40		 inc	 eax
  00012	eb 02		 jmp	 SHORT $LN4@Inside
$LN3@Inside:
  00014	33 c0		 xor	 eax, eax
$LN4@Inside:

; 1287 : 		}

  00016	5d		 pop	 ebp
  00017	c2 04 00	 ret	 4
?_Inside@?$vector@VioHashString@@V?$allocator@VioHashString@@@std@@@std@@IBE_NPBVioHashString@@@Z ENDP ; std::vector<ioHashString,std::allocator<ioHashString> >::_Inside
_TEXT	ENDS
PUBLIC	?_Orphan_range@?$vector@VioHashString@@V?$allocator@VioHashString@@@std@@@std@@IBEXPAVioHashString@@0@Z ; std::vector<ioHashString,std::allocator<ioHashString> >::_Orphan_range
; Function compile flags: /Ogsp
;	COMDAT ?_Orphan_range@?$vector@VioHashString@@V?$allocator@VioHashString@@@std@@@std@@IBEXPAVioHashString@@0@Z
_TEXT	SEGMENT
___formal$ = 8						; size = 4
___formal$ = 12						; size = 4
?_Orphan_range@?$vector@VioHashString@@V?$allocator@VioHashString@@@std@@@std@@IBEXPAVioHashString@@0@Z PROC ; std::vector<ioHashString,std::allocator<ioHashString> >::_Orphan_range, COMDAT
; _this$ = ecx

; 1454 : 		}

  00000	c2 08 00	 ret	 8
?_Orphan_range@?$vector@VioHashString@@V?$allocator@VioHashString@@@std@@@std@@IBEXPAVioHashString@@0@Z ENDP ; std::vector<ioHashString,std::allocator<ioHashString> >::_Orphan_range
_TEXT	ENDS
PUBLIC	?_Inside@?$vector@UWeaponInfo@@V?$allocator@UWeaponInfo@@@std@@@std@@IBE_NPBUWeaponInfo@@@Z ; std::vector<WeaponInfo,std::allocator<WeaponInfo> >::_Inside
; Function compile flags: /Ogsp
;	COMDAT ?_Inside@?$vector@UWeaponInfo@@V?$allocator@UWeaponInfo@@@std@@@std@@IBE_NPBUWeaponInfo@@@Z
_TEXT	SEGMENT
__Ptr$ = 8						; size = 4
?_Inside@?$vector@UWeaponInfo@@V?$allocator@UWeaponInfo@@@std@@@std@@IBE_NPBUWeaponInfo@@@Z PROC ; std::vector<WeaponInfo,std::allocator<WeaponInfo> >::_Inside, COMDAT
; _this$ = ecx

; 1285 : 		{	// test if _Ptr points inside vector

  00000	55		 push	 ebp
  00001	8b ec		 mov	 ebp, esp

; 1286 : 		return (_Ptr < this->_Mylast && this->_Myfirst <= _Ptr);

  00003	8b 45 08	 mov	 eax, DWORD PTR __Ptr$[ebp]
  00006	3b 41 04	 cmp	 eax, DWORD PTR [ecx+4]
  00009	73 09		 jae	 SHORT $LN3@Inside@2
  0000b	39 01		 cmp	 DWORD PTR [ecx], eax
  0000d	77 05		 ja	 SHORT $LN3@Inside@2
  0000f	33 c0		 xor	 eax, eax
  00011	40		 inc	 eax
  00012	eb 02		 jmp	 SHORT $LN4@Inside@2
$LN3@Inside@2:
  00014	33 c0		 xor	 eax, eax
$LN4@Inside@2:

; 1287 : 		}

  00016	5d		 pop	 ebp
  00017	c2 04 00	 ret	 4
?_Inside@?$vector@UWeaponInfo@@V?$allocator@UWeaponInfo@@@std@@@std@@IBE_NPBUWeaponInfo@@@Z ENDP ; std::vector<WeaponInfo,std::allocator<WeaponInfo> >::_Inside
_TEXT	ENDS
PUBLIC	?_Orphan_range@?$vector@UWeaponInfo@@V?$allocator@UWeaponInfo@@@std@@@std@@IBEXPAUWeaponInfo@@0@Z ; std::vector<WeaponInfo,std::allocator<WeaponInfo> >::_Orphan_range
; Function compile flags: /Ogsp
;	COMDAT ?_Orphan_range@?$vector@UWeaponInfo@@V?$allocator@UWeaponInfo@@@std@@@std@@IBEXPAUWeaponInfo@@0@Z
_TEXT	SEGMENT
___formal$ = 8						; size = 4
___formal$ = 12						; size = 4
?_Orphan_range@?$vector@UWeaponInfo@@V?$allocator@UWeaponInfo@@@std@@@std@@IBEXPAUWeaponInfo@@0@Z PROC ; std::vector<WeaponInfo,std::allocator<WeaponInfo> >::_Orphan_range, COMDAT
; _this$ = ecx

; 1454 : 		}

  00000	c2 08 00	 ret	 8
?_Orphan_range@?$vector@UWeaponInfo@@V?$allocator@UWeaponInfo@@@std@@@std@@IBEXPAUWeaponInfo@@0@Z ENDP ; std::vector<WeaponInfo,std::allocator<WeaponInfo> >::_Orphan_range
_TEXT	ENDS
PUBLIC	??0?$_Vector_const_iterator@V?$_Vector_val@VioHashString@@V?$allocator@VioHashString@@@std@@@std@@@std@@QAE@XZ ; std::_Vector_const_iterator<std::_Vector_val<ioHashString,std::allocator<ioHashString> > >::_Vector_const_iterator<std::_Vector_val<ioHashString,std::allocator<ioHashString> > >
; Function compile flags: /Ogsp
;	COMDAT ??0?$_Vector_const_iterator@V?$_Vector_val@VioHashString@@V?$allocator@VioHashString@@@std@@@std@@@std@@QAE@XZ
_TEXT	SEGMENT
??0?$_Vector_const_iterator@V?$_Vector_val@VioHashString@@V?$allocator@VioHashString@@@std@@@std@@@std@@QAE@XZ PROC ; std::_Vector_const_iterator<std::_Vector_val<ioHashString,std::allocator<ioHashString> > >::_Vector_const_iterator<std::_Vector_val<ioHashString,std::allocator<ioHashString> > >, COMDAT
; _this$ = ecx

; 40   : 		{	// construct with null pointer

  00000	8b c1		 mov	 eax, ecx
  00002	83 20 00	 and	 DWORD PTR [eax], 0

; 41   : 		}

  00005	c3		 ret	 0
??0?$_Vector_const_iterator@V?$_Vector_val@VioHashString@@V?$allocator@VioHashString@@@std@@@std@@@std@@QAE@XZ ENDP ; std::_Vector_const_iterator<std::_Vector_val<ioHashString,std::allocator<ioHashString> > >::_Vector_const_iterator<std::_Vector_val<ioHashString,std::allocator<ioHashString> > >
_TEXT	ENDS
PUBLIC	??0?$_Vector_const_iterator@V?$_Vector_val@UWeaponInfo@@V?$allocator@UWeaponInfo@@@std@@@std@@@std@@QAE@XZ ; std::_Vector_const_iterator<std::_Vector_val<WeaponInfo,std::allocator<WeaponInfo> > >::_Vector_const_iterator<std::_Vector_val<WeaponInfo,std::allocator<WeaponInfo> > >
; Function compile flags: /Ogsp
;	COMDAT ??0?$_Vector_const_iterator@V?$_Vector_val@UWeaponInfo@@V?$allocator@UWeaponInfo@@@std@@@std@@@std@@QAE@XZ
_TEXT	SEGMENT
??0?$_Vector_const_iterator@V?$_Vector_val@UWeaponInfo@@V?$allocator@UWeaponInfo@@@std@@@std@@@std@@QAE@XZ PROC ; std::_Vector_const_iterator<std::_Vector_val<WeaponInfo,std::allocator<WeaponInfo> > >::_Vector_const_iterator<std::_Vector_val<WeaponInfo,std::allocator<WeaponInfo> > >, COMDAT
; _this$ = ecx

; 40   : 		{	// construct with null pointer

  00000	8b c1		 mov	 eax, ecx
  00002	83 20 00	 and	 DWORD PTR [eax], 0

; 41   : 		}

  00005	c3		 ret	 0
??0?$_Vector_const_iterator@V?$_Vector_val@UWeaponInfo@@V?$allocator@UWeaponInfo@@@std@@@std@@@std@@QAE@XZ ENDP ; std::_Vector_const_iterator<std::_Vector_val<WeaponInfo,std::allocator<WeaponInfo> > >::_Vector_const_iterator<std::_Vector_val<WeaponInfo,std::allocator<WeaponInfo> > >
_TEXT	ENDS
PUBLIC	??D?$_Vector_const_iterator@V?$_Vector_val@UWeaponInfo@@V?$allocator@UWeaponInfo@@@std@@@std@@@std@@QBEABUWeaponInfo@@XZ ; std::_Vector_const_iterator<std::_Vector_val<WeaponInfo,std::allocator<WeaponInfo> > >::operator*
; Function compile flags: /Ogsp
;	COMDAT ??D?$_Vector_const_iterator@V?$_Vector_val@UWeaponInfo@@V?$allocator@UWeaponInfo@@@std@@@std@@@std@@QBEABUWeaponInfo@@XZ
_TEXT	SEGMENT
??D?$_Vector_const_iterator@V?$_Vector_val@UWeaponInfo@@V?$allocator@UWeaponInfo@@@std@@@std@@@std@@QBEABUWeaponInfo@@XZ PROC ; std::_Vector_const_iterator<std::_Vector_val<WeaponInfo,std::allocator<WeaponInfo> > >::operator*, COMDAT
; _this$ = ecx

; 64   :  #if _ITERATOR_DEBUG_LEVEL == 2
; 65   : 		if (this->_Getcont() == 0
; 66   : 			|| this->_Ptr == 0
; 67   : 			|| this->_Ptr < ((_Myvec *)this->_Getcont())->_Myfirst
; 68   : 			|| ((_Myvec *)this->_Getcont())->_Mylast <= this->_Ptr)
; 69   : 			{	// report error
; 70   : 			_DEBUG_ERROR("vector iterator not dereferencable");
; 71   : 			_SCL_SECURE_OUT_OF_RANGE;
; 72   : 			}
; 73   : 
; 74   :  #elif _ITERATOR_DEBUG_LEVEL == 1
; 75   : 		_SCL_SECURE_VALIDATE(this->_Getcont() != 0);
; 76   : 		_SCL_SECURE_VALIDATE_RANGE(
; 77   : 			this->_Ptr != 0
; 78   : 			&& ((_Myvec *)this->_Getcont())->_Myfirst <= this->_Ptr
; 79   : 			&& this->_Ptr < ((_Myvec *)this->_Getcont())->_Mylast);
; 80   :  #endif /* _ITERATOR_DEBUG_LEVEL */
; 81   : 
; 82   : 		__analysis_assume(this->_Ptr != 0);
; 83   : 
; 84   : 		return (*this->_Ptr);

  00000	8b 01		 mov	 eax, DWORD PTR [ecx]

; 85   : 		}

  00002	c3		 ret	 0
??D?$_Vector_const_iterator@V?$_Vector_val@UWeaponInfo@@V?$allocator@UWeaponInfo@@@std@@@std@@@std@@QBEABUWeaponInfo@@XZ ENDP ; std::_Vector_const_iterator<std::_Vector_val<WeaponInfo,std::allocator<WeaponInfo> > >::operator*
_TEXT	ENDS
PUBLIC	??E?$_Vector_const_iterator@V?$_Vector_val@UWeaponInfo@@V?$allocator@UWeaponInfo@@@std@@@std@@@std@@QAEAAV01@XZ ; std::_Vector_const_iterator<std::_Vector_val<WeaponInfo,std::allocator<WeaponInfo> > >::operator++
; Function compile flags: /Ogsp
;	COMDAT ??E?$_Vector_const_iterator@V?$_Vector_val@UWeaponInfo@@V?$allocator@UWeaponInfo@@@std@@@std@@@std@@QAEAAV01@XZ
_TEXT	SEGMENT
??E?$_Vector_const_iterator@V?$_Vector_val@UWeaponInfo@@V?$allocator@UWeaponInfo@@@std@@@std@@@std@@QAEAAV01@XZ PROC ; std::_Vector_const_iterator<std::_Vector_val<WeaponInfo,std::allocator<WeaponInfo> > >::operator++, COMDAT
; _this$ = ecx

; 93   : 		{	// preincrement

  00000	8b c1		 mov	 eax, ecx

; 94   :  #if _ITERATOR_DEBUG_LEVEL == 2
; 95   : 		if (this->_Getcont() == 0
; 96   : 			|| this->_Ptr == 0
; 97   : 			|| ((_Myvec *)this->_Getcont())->_Mylast <= this->_Ptr)
; 98   : 			{	// report error
; 99   : 			_DEBUG_ERROR("vector iterator not incrementable");
; 100  : 			_SCL_SECURE_OUT_OF_RANGE;
; 101  : 			}
; 102  : 
; 103  :  #elif _ITERATOR_DEBUG_LEVEL == 1
; 104  : 		_SCL_SECURE_VALIDATE(this->_Getcont() != 0);
; 105  : 		_SCL_SECURE_VALIDATE_RANGE(
; 106  : 			this->_Ptr != 0
; 107  : 			&& this->_Ptr < ((_Myvec *)this->_Getcont())->_Mylast);
; 108  :  #endif /* _ITERATOR_DEBUG_LEVEL */
; 109  : 
; 110  : 		++this->_Ptr;

  00002	83 00 28	 add	 DWORD PTR [eax], 40	; 00000028H

; 111  : 		return (*this);
; 112  : 		}

  00005	c3		 ret	 0
??E?$_Vector_const_iterator@V?$_Vector_val@UWeaponInfo@@V?$allocator@UWeaponInfo@@@std@@@std@@@std@@QAEAAV01@XZ ENDP ; std::_Vector_const_iterator<std::_Vector_val<WeaponInfo,std::allocator<WeaponInfo> > >::operator++
_TEXT	ENDS
PUBLIC	??0?$_Vector_const_iterator@V?$_Vector_val@PAVioBaseChar@@V?$allocator@PAVioBaseChar@@@std@@@std@@@std@@QAE@PAPAVioBaseChar@@PBU_Container_base0@1@@Z ; std::_Vector_const_iterator<std::_Vector_val<ioBaseChar *,std::allocator<ioBaseChar *> > >::_Vector_const_iterator<std::_Vector_val<ioBaseChar *,std::allocator<ioBaseChar *> > >
; Function compile flags: /Ogsp
;	COMDAT ??0?$_Vector_const_iterator@V?$_Vector_val@PAVioBaseChar@@V?$allocator@PAVioBaseChar@@@std@@@std@@@std@@QAE@PAPAVioBaseChar@@PBU_Container_base0@1@@Z
_TEXT	SEGMENT
__Parg$ = 8						; size = 4
__Pvector$ = 12						; size = 4
??0?$_Vector_const_iterator@V?$_Vector_val@PAVioBaseChar@@V?$allocator@PAVioBaseChar@@@std@@@std@@@std@@QAE@PAPAVioBaseChar@@PBU_Container_base0@1@@Z PROC ; std::_Vector_const_iterator<std::_Vector_val<ioBaseChar *,std::allocator<ioBaseChar *> > >::_Vector_const_iterator<std::_Vector_val<ioBaseChar *,std::allocator<ioBaseChar *> > >, COMDAT
; _this$ = ecx

; 45   : 		{	// construct with pointer _Parg

  00000	55		 push	 ebp
  00001	8b ec		 mov	 ebp, esp
  00003	8b c1		 mov	 eax, ecx
  00005	8b 4d 08	 mov	 ecx, DWORD PTR __Parg$[ebp]
  00008	89 08		 mov	 DWORD PTR [eax], ecx

; 46   : 		this->_Adopt(_Pvector);
; 47   : 		}

  0000a	5d		 pop	 ebp
  0000b	c2 08 00	 ret	 8
??0?$_Vector_const_iterator@V?$_Vector_val@PAVioBaseChar@@V?$allocator@PAVioBaseChar@@@std@@@std@@@std@@QAE@PAPAVioBaseChar@@PBU_Container_base0@1@@Z ENDP ; std::_Vector_const_iterator<std::_Vector_val<ioBaseChar *,std::allocator<ioBaseChar *> > >::_Vector_const_iterator<std::_Vector_val<ioBaseChar *,std::allocator<ioBaseChar *> > >
_TEXT	ENDS
PUBLIC	?_Compat@?$_Vector_const_iterator@V?$_Vector_val@PAVioBaseChar@@V?$allocator@PAVioBaseChar@@@std@@@std@@@std@@QBEXABV12@@Z ; std::_Vector_const_iterator<std::_Vector_val<ioBaseChar *,std::allocator<ioBaseChar *> > >::_Compat
; Function compile flags: /Ogsp
;	COMDAT ?_Compat@?$_Vector_const_iterator@V?$_Vector_val@PAVioBaseChar@@V?$allocator@PAVioBaseChar@@@std@@@std@@@std@@QBEXABV12@@Z
_TEXT	SEGMENT
___formal$ = 8						; size = 4
?_Compat@?$_Vector_const_iterator@V?$_Vector_val@PAVioBaseChar@@V?$allocator@PAVioBaseChar@@@std@@@std@@@std@@QBEXABV12@@Z PROC ; std::_Vector_const_iterator<std::_Vector_val<ioBaseChar *,std::allocator<ioBaseChar *> > >::_Compat, COMDAT
; _this$ = ecx

; 253  : 		}

  00000	c2 04 00	 ret	 4
?_Compat@?$_Vector_const_iterator@V?$_Vector_val@PAVioBaseChar@@V?$allocator@PAVioBaseChar@@@std@@@std@@@std@@QBEXABV12@@Z ENDP ; std::_Vector_const_iterator<std::_Vector_val<ioBaseChar *,std::allocator<ioBaseChar *> > >::_Compat
_TEXT	ENDS
PUBLIC	?D3DXVec3LengthSq@@YAMPBUD3DXVECTOR3@@@Z	; D3DXVec3LengthSq
; Function compile flags: /Ogsp
; File c:\program files (x86)\microsoft directx sdk (june 2010)\include\d3dx9math.inl
;	COMDAT ?D3DXVec3LengthSq@@YAMPBUD3DXVECTOR3@@@Z
_TEXT	SEGMENT
tv165 = 8						; size = 4
_pV$ = 8						; size = 4
?D3DXVec3LengthSq@@YAMPBUD3DXVECTOR3@@@Z PROC		; D3DXVec3LengthSq, COMDAT

; 1725 : {

  00000	55		 push	 ebp
  00001	8b ec		 mov	 ebp, esp

; 1726 : #ifdef D3DX_DEBUG
; 1727 :     if(!pV)
; 1728 :         return 0.0f;
; 1729 : #endif
; 1730 : 
; 1731 :     return pV->x * pV->x + pV->y * pV->y + pV->z * pV->z;

  00003	8b 45 08	 mov	 eax, DWORD PTR _pV$[ebp]
  00006	d9 40 04	 fld	 DWORD PTR [eax+4]
  00009	d9 00		 fld	 DWORD PTR [eax]
  0000b	d9 40 08	 fld	 DWORD PTR [eax+8]
  0000e	d9 c1		 fld	 ST(1)
  00010	de ca		 fmulp	 ST(2), ST(0)
  00012	d9 c2		 fld	 ST(2)
  00014	de cb		 fmulp	 ST(3), ST(0)
  00016	d9 c9		 fxch	 ST(1)
  00018	de c2		 faddp	 ST(2), ST(0)
  0001a	d9 c0		 fld	 ST(0)
  0001c	de c9		 fmulp	 ST(1), ST(0)
  0001e	de c1		 faddp	 ST(1), ST(0)
  00020	d9 5d 08	 fstp	 DWORD PTR tv165[ebp]
  00023	d9 45 08	 fld	 DWORD PTR tv165[ebp]

; 1732 : }

  00026	5d		 pop	 ebp
  00027	c3		 ret	 0
?D3DXVec3LengthSq@@YAMPBUD3DXVECTOR3@@@Z ENDP		; D3DXVec3LengthSq
_TEXT	ENDS
PUBLIC	??$addressof@$$CBVioHashString@@@std@@YAPBVioHashString@@ABV1@@Z ; std::addressof<ioHashString const >
; Function compile flags: /Ogsp
; File c:\program files (x86)\microsoft visual studio 10.0\vc\include\xmemory
;	COMDAT ??$addressof@$$CBVioHashString@@@std@@YAPBVioHashString@@ABV1@@Z
_TEXT	SEGMENT
__Val$ = 8						; size = 4
??$addressof@$$CBVioHashString@@@std@@YAPBVioHashString@@ABV1@@Z PROC ; std::addressof<ioHashString const >, COMDAT

; 110  : 	{	// return address of _Val

  00000	55		 push	 ebp
  00001	8b ec		 mov	 ebp, esp

; 111  : 	return ((_Ty *) &(char&)_Val);

  00003	8b 45 08	 mov	 eax, DWORD PTR __Val$[ebp]

; 112  : 	}

  00006	5d		 pop	 ebp
  00007	c3		 ret	 0
??$addressof@$$CBVioHashString@@@std@@YAPBVioHashString@@ABV1@@Z ENDP ; std::addressof<ioHashString const >
_TEXT	ENDS
PUBLIC	??$addressof@$$CBUWeaponInfo@@@std@@YAPBUWeaponInfo@@ABU1@@Z ; std::addressof<WeaponInfo const >
; Function compile flags: /Ogsp
;	COMDAT ??$addressof@$$CBUWeaponInfo@@@std@@YAPBUWeaponInfo@@ABU1@@Z
_TEXT	SEGMENT
__Val$ = 8						; size = 4
??$addressof@$$CBUWeaponInfo@@@std@@YAPBUWeaponInfo@@ABU1@@Z PROC ; std::addressof<WeaponInfo const >, COMDAT

; 110  : 	{	// return address of _Val

  00000	55		 push	 ebp
  00001	8b ec		 mov	 ebp, esp

; 111  : 	return ((_Ty *) &(char&)_Val);

  00003	8b 45 08	 mov	 eax, DWORD PTR __Val$[ebp]

; 112  : 	}

  00006	5d		 pop	 ebp
  00007	c3		 ret	 0
??$addressof@$$CBUWeaponInfo@@@std@@YAPBUWeaponInfo@@ABU1@@Z ENDP ; std::addressof<WeaponInfo const >
_TEXT	ENDS
PUBLIC	??$forward@ABUWeaponInfo@@@std@@YAABUWeaponInfo@@ABU1@@Z ; std::forward<WeaponInfo const &>
; Function compile flags: /Ogsp
; File c:\program files (x86)\microsoft visual studio 10.0\vc\include\utility
;	COMDAT ??$forward@ABUWeaponInfo@@@std@@YAABUWeaponInfo@@ABU1@@Z
_TEXT	SEGMENT
__Arg$ = 8						; size = 4
??$forward@ABUWeaponInfo@@@std@@YAABUWeaponInfo@@ABU1@@Z PROC ; std::forward<WeaponInfo const &>, COMDAT

; 78   : 	{	// forward _Arg, given explicitly specified type parameter

  00000	55		 push	 ebp
  00001	8b ec		 mov	 ebp, esp

; 79   : 	return ((_Ty&&)_Arg);

  00003	8b 45 08	 mov	 eax, DWORD PTR __Arg$[ebp]

; 80   : 	}

  00006	5d		 pop	 ebp
  00007	c3		 ret	 0
??$forward@ABUWeaponInfo@@@std@@YAABUWeaponInfo@@ABU1@@Z ENDP ; std::forward<WeaponInfo const &>
_TEXT	ENDS
PUBLIC	??$_Val_type@PAUWeaponInfo@@@std@@YAPAUWeaponInfo@@PAU1@@Z ; std::_Val_type<WeaponInfo *>
; Function compile flags: /Ogsp
; File c:\program files (x86)\microsoft visual studio 10.0\vc\include\xutility
;	COMDAT ??$_Val_type@PAUWeaponInfo@@@std@@YAPAUWeaponInfo@@PAU1@@Z
_TEXT	SEGMENT
___formal$ = 8						; size = 4
??$_Val_type@PAUWeaponInfo@@@std@@YAPAUWeaponInfo@@PAU1@@Z PROC ; std::_Val_type<WeaponInfo *>, COMDAT

; 790  : 	return (0);

  00000	33 c0		 xor	 eax, eax

; 791  : 	}

  00002	c3		 ret	 0
??$_Val_type@PAUWeaponInfo@@@std@@YAPAUWeaponInfo@@PAU1@@Z ENDP ; std::_Val_type<WeaponInfo *>
_TEXT	ENDS
PUBLIC	??$_Val_type@PAVioHashString@@@std@@YAPAVioHashString@@PAV1@@Z ; std::_Val_type<ioHashString *>
; Function compile flags: /Ogsp
;	COMDAT ??$_Val_type@PAVioHashString@@@std@@YAPAVioHashString@@PAV1@@Z
_TEXT	SEGMENT
___formal$ = 8						; size = 4
??$_Val_type@PAVioHashString@@@std@@YAPAVioHashString@@PAV1@@Z PROC ; std::_Val_type<ioHashString *>, COMDAT

; 790  : 	return (0);

  00000	33 c0		 xor	 eax, eax

; 791  : 	}

  00002	c3		 ret	 0
??$_Val_type@PAVioHashString@@@std@@YAPAVioHashString@@PAV1@@Z ENDP ; std::_Val_type<ioHashString *>
_TEXT	ENDS
PUBLIC	??$forward@UWeaponInfo@@@std@@YA$$QAUWeaponInfo@@AAU1@@Z ; std::forward<WeaponInfo>
; Function compile flags: /Ogsp
; File c:\program files (x86)\microsoft visual studio 10.0\vc\include\utility
;	COMDAT ??$forward@UWeaponInfo@@@std@@YA$$QAUWeaponInfo@@AAU1@@Z
_TEXT	SEGMENT
__Arg$ = 8						; size = 4
??$forward@UWeaponInfo@@@std@@YA$$QAUWeaponInfo@@AAU1@@Z PROC ; std::forward<WeaponInfo>, COMDAT

; 78   : 	{	// forward _Arg, given explicitly specified type parameter

  00000	55		 push	 ebp
  00001	8b ec		 mov	 ebp, esp

; 79   : 	return ((_Ty&&)_Arg);

  00003	8b 45 08	 mov	 eax, DWORD PTR __Arg$[ebp]

; 80   : 	}

  00006	5d		 pop	 ebp
  00007	c3		 ret	 0
??$forward@UWeaponInfo@@@std@@YA$$QAUWeaponInfo@@AAU1@@Z ENDP ; std::forward<WeaponInfo>
_TEXT	ENDS
PUBLIC	??$forward@VioHashString@@@std@@YA$$QAVioHashString@@AAV1@@Z ; std::forward<ioHashString>
; Function compile flags: /Ogsp
;	COMDAT ??$forward@VioHashString@@@std@@YA$$QAVioHashString@@AAV1@@Z
_TEXT	SEGMENT
__Arg$ = 8						; size = 4
??$forward@VioHashString@@@std@@YA$$QAVioHashString@@AAV1@@Z PROC ; std::forward<ioHashString>, COMDAT

; 78   : 	{	// forward _Arg, given explicitly specified type parameter

  00000	55		 push	 ebp
  00001	8b ec		 mov	 ebp, esp

; 79   : 	return ((_Ty&&)_Arg);

  00003	8b 45 08	 mov	 eax, DWORD PTR __Arg$[ebp]

; 80   : 	}

  00006	5d		 pop	 ebp
  00007	c3		 ret	 0
??$forward@VioHashString@@@std@@YA$$QAVioHashString@@AAV1@@Z ENDP ; std::forward<ioHashString>
_TEXT	ENDS
PUBLIC	?_DECSTR@@YAXPADH@Z				; _DECSTR
; Function compile flags: /Ogsp
; File d:\lost saga for developer\youtube\tutorial\source\src\lsclient\stringprotect.h
;	COMDAT ?_DECSTR@@YAXPADH@Z
_TEXT	SEGMENT
_s$ = 8							; size = 4
_l$ = 12						; size = 4
?_DECSTR@@YAXPADH@Z PROC				; _DECSTR, COMDAT

; 40   : __forceinline void _DECSTR(char* s, int l){int i=0,l4=(l-1)/4,*p=(int*)s;s[l-1]=0;for(;i<l4;++i)*(p++)^=0xEAEBECED;for(i=l4*4;i<l-1;++i)s[i]^=0xED-i%4;}

  00000	55		 push	 ebp
  00001	8b ec		 mov	 ebp, esp
  00003	8b 4d 0c	 mov	 ecx, DWORD PTR _l$[ebp]
  00006	56		 push	 esi
  00007	8b 75 08	 mov	 esi, DWORD PTR _s$[ebp]
  0000a	57		 push	 edi
  0000b	8d 79 ff	 lea	 edi, DWORD PTR [ecx-1]
  0000e	8b c7		 mov	 eax, edi
  00010	99		 cdq
  00011	83 e2 03	 and	 edx, 3
  00014	03 c2		 add	 eax, edx
  00016	c1 f8 02	 sar	 eax, 2
  00019	8b d6		 mov	 edx, esi
  0001b	c6 44 0e ff 00	 mov	 BYTE PTR [esi+ecx-1], 0
  00020	85 c0		 test	 eax, eax
  00022	7e 0e		 jle	 SHORT $LN4@DECSTR
  00024	8b c8		 mov	 ecx, eax
$LL6@DECSTR:
  00026	81 32 ed ec eb
	ea		 xor	 DWORD PTR [edx], -353637139 ; eaebecedH
  0002c	83 c2 04	 add	 edx, 4
  0002f	49		 dec	 ecx
  00030	75 f4		 jne	 SHORT $LL6@DECSTR
$LN4@DECSTR:
  00032	c1 e0 02	 shl	 eax, 2
  00035	eb 17		 jmp	 SHORT $LN14@DECSTR
$LL3@DECSTR:
  00037	8b c8		 mov	 ecx, eax
  00039	81 e1 03 00 00
	80		 and	 ecx, -2147483645	; 80000003H
  0003f	79 05		 jns	 SHORT $LN13@DECSTR
  00041	49		 dec	 ecx
  00042	83 c9 fc	 or	 ecx, -4			; fffffffcH
  00045	41		 inc	 ecx
$LN13@DECSTR:
  00046	b2 ed		 mov	 dl, -19			; ffffffedH
  00048	2a d1		 sub	 dl, cl
  0004a	30 14 30	 xor	 BYTE PTR [eax+esi], dl
  0004d	40		 inc	 eax
$LN14@DECSTR:
  0004e	3b c7		 cmp	 eax, edi
  00050	7c e5		 jl	 SHORT $LL3@DECSTR
  00052	5f		 pop	 edi
  00053	5e		 pop	 esi
  00054	5d		 pop	 ebp
  00055	c3		 ret	 0
?_DECSTR@@YAXPADH@Z ENDP				; _DECSTR
_TEXT	ENDS
PUBLIC	?GetGroup@ioGameEntity@@QBEPAVioEntityGroup@@XZ	; ioGameEntity::GetGroup
; Function compile flags: /Ogsp
; File d:\lost saga for developer\youtube\tutorial\source\src\lsclient\iogameentity.h
;	COMDAT ?GetGroup@ioGameEntity@@QBEPAVioEntityGroup@@XZ
_TEXT	SEGMENT
?GetGroup@ioGameEntity@@QBEPAVioEntityGroup@@XZ PROC	; ioGameEntity::GetGroup, COMDAT
; _this$ = ecx

; 166  : 	inline ioEntityGroup* GetGroup() const { return m_pGroup; }

  00000	8b 41 04	 mov	 eax, DWORD PTR [ecx+4]
  00003	c3		 ret	 0
?GetGroup@ioGameEntity@@QBEPAVioEntityGroup@@XZ ENDP	; ioGameEntity::GetGroup
_TEXT	ENDS
PUBLIC	?Init@WeaponInfo@@QAEXXZ			; WeaponInfo::Init
; Function compile flags: /Ogsp
; File d:\lost saga for developer\youtube\tutorial\source\src\lsclient\ioattackattribute.h
;	COMDAT ?Init@WeaponInfo@@QAEXXZ
_TEXT	SEGMENT
?Init@WeaponInfo@@QAEXXZ PROC				; WeaponInfo::Init, COMDAT
; _this$ = ecx

; 71   : 		m_iWeaponIdx = 0;

  00000	33 c0		 xor	 eax, eax
  00002	89 01		 mov	 DWORD PTR [ecx], eax

; 72   : 		m_iResistanceIdx = 0;

  00004	89 41 04	 mov	 DWORD PTR [ecx+4], eax

; 73   : 
; 74   : 		m_dwWoundedDuration = 0;

  00007	89 41 18	 mov	 DWORD PTR [ecx+24], eax

; 75   : 		m_dwCallTime = 0;

  0000a	89 41 1c	 mov	 DWORD PTR [ecx+28], eax

; 76   : 
; 77   : 		m_bWoundedLoopAni = false;

  0000d	88 41 20	 mov	 BYTE PTR [ecx+32], al

; 78   : 
; 79   : 		m_dwDuration = 0;

  00010	89 41 24	 mov	 DWORD PTR [ecx+36], eax

; 80   : 	}

  00013	c3		 ret	 0
?Init@WeaponInfo@@QAEXXZ ENDP				; WeaponInfo::Init
_TEXT	ENDS
PUBLIC	??1WeaponInfo@@QAE@XZ				; WeaponInfo::~WeaponInfo
; Function compile flags: /Ogsp
;	COMDAT ??1WeaponInfo@@QAE@XZ
_TEXT	SEGMENT
??1WeaponInfo@@QAE@XZ PROC				; WeaponInfo::~WeaponInfo, COMDAT
; _this$ = ecx
  00000	83 c1 08	 add	 ecx, 8
  00003	ff 25 00 00 00
	00		 jmp	 DWORD PTR __imp_??1ioHashString@@QAE@XZ
??1WeaponInfo@@QAE@XZ ENDP				; WeaponInfo::~WeaponInfo
_TEXT	ENDS
PUBLIC	??_R0?AVioGameEntity@@@8			; ioGameEntity `RTTI Type Descriptor'
PUBLIC	??_R0?AVioPlayEntity@@@8			; ioPlayEntity `RTTI Type Descriptor'
PUBLIC	?ToPlayEntity@@YAPAVioPlayEntity@@PAVioGameEntity@@@Z ; ToPlayEntity
EXTRN	___RTDynamicCast:PROC
;	COMDAT ??_R0?AVioGameEntity@@@8
; File d:\lost saga for developer\youtube\tutorial\source\src\lsclient\ioplayentity.h
_DATA	SEGMENT
??_R0?AVioGameEntity@@@8 DD FLAT:??_7type_info@@6B@	; ioGameEntity `RTTI Type Descriptor'
	DD	00H
	DB	'.?AVioGameEntity@@', 00H
_DATA	ENDS
;	COMDAT ??_R0?AVioPlayEntity@@@8
_DATA	SEGMENT
??_R0?AVioPlayEntity@@@8 DD FLAT:??_7type_info@@6B@	; ioPlayEntity `RTTI Type Descriptor'
	DD	00H
	DB	'.?AVioPlayEntity@@', 00H
; Function compile flags: /Ogsp
_DATA	ENDS
;	COMDAT ?ToPlayEntity@@YAPAVioPlayEntity@@PAVioGameEntity@@@Z
_TEXT	SEGMENT
_pObj$ = 8						; size = 4
?ToPlayEntity@@YAPAVioPlayEntity@@PAVioGameEntity@@@Z PROC ; ToPlayEntity, COMDAT

; 121  : {

  00000	55		 push	 ebp
  00001	8b ec		 mov	 ebp, esp
  00003	56		 push	 esi

; 122  : 	if( !pObj || pObj->GetTypeID() != ioGameEntity::GET_PLAY_ENTITY )

  00004	8b 75 08	 mov	 esi, DWORD PTR _pObj$[ebp]
  00007	85 f6		 test	 esi, esi
  00009	74 25		 je	 SHORT $LN1@ToPlayEnti
  0000b	8b 06		 mov	 eax, DWORD PTR [esi]
  0000d	8b ce		 mov	 ecx, esi
  0000f	ff 50 10	 call	 DWORD PTR [eax+16]
  00012	83 f8 01	 cmp	 eax, 1
  00015	75 19		 jne	 SHORT $LN1@ToPlayEnti

; 124  : 
; 125  : 	return dynamic_cast< ioPlayEntity* >( pObj );

  00017	6a 00		 push	 0
  00019	68 00 00 00 00	 push	 OFFSET ??_R0?AVioPlayEntity@@@8
  0001e	68 00 00 00 00	 push	 OFFSET ??_R0?AVioGameEntity@@@8
  00023	6a 00		 push	 0
  00025	56		 push	 esi
  00026	e8 00 00 00 00	 call	 ___RTDynamicCast
  0002b	83 c4 14	 add	 esp, 20			; 00000014H
  0002e	eb 02		 jmp	 SHORT $LN3@ToPlayEnti
$LN1@ToPlayEnti:

; 123  : 		return NULL;

  00030	33 c0		 xor	 eax, eax
$LN3@ToPlayEnti:
  00032	5e		 pop	 esi

; 126  : }

  00033	5d		 pop	 ebp
  00034	c3		 ret	 0
?ToPlayEntity@@YAPAVioPlayEntity@@PAVioGameEntity@@@Z ENDP ; ToPlayEntity
_TEXT	ENDS
PUBLIC	?IsLive@ioWeapon@@QBE_NXZ			; ioWeapon::IsLive
; Function compile flags: /Ogsp
; File d:\lost saga for developer\youtube\tutorial\source\src\lsclient\ioweapon.h
;	COMDAT ?IsLive@ioWeapon@@QBE_NXZ
_TEXT	SEGMENT
?IsLive@ioWeapon@@QBE_NXZ PROC				; ioWeapon::IsLive, COMDAT
; _this$ = ecx

; 533  : 	inline bool IsLive() const { return m_bLive; }

  00000	8a 81 82 05 00
	00		 mov	 al, BYTE PTR [ecx+1410]
  00006	c3		 ret	 0
?IsLive@ioWeapon@@QBE_NXZ ENDP				; ioWeapon::IsLive
_TEXT	ENDS
PUBLIC	?GetWeaponIndex@ioWeapon@@QBEKXZ		; ioWeapon::GetWeaponIndex
; Function compile flags: /Ogsp
;	COMDAT ?GetWeaponIndex@ioWeapon@@QBEKXZ
_TEXT	SEGMENT
?GetWeaponIndex@ioWeapon@@QBEKXZ PROC			; ioWeapon::GetWeaponIndex, COMDAT
; _this$ = ecx

; 536  : 	inline DWORD GetWeaponIndex() const { return m_dwWeaponIdx; }

  00000	8b 81 b8 04 00
	00		 mov	 eax, DWORD PTR [ecx+1208]
  00006	c3		 ret	 0
?GetWeaponIndex@ioWeapon@@QBEKXZ ENDP			; ioWeapon::GetWeaponIndex
_TEXT	ENDS
PUBLIC	?GetOwnerName@ioWeapon@@QBEABVioHashString@@XZ	; ioWeapon::GetOwnerName
; Function compile flags: /Ogsp
;	COMDAT ?GetOwnerName@ioWeapon@@QBEABVioHashString@@XZ
_TEXT	SEGMENT
?GetOwnerName@ioWeapon@@QBEABVioHashString@@XZ PROC	; ioWeapon::GetOwnerName, COMDAT
; _this$ = ecx

; 636  : 	inline const ioHashString& GetOwnerName() const { return m_OwnerName; }

  00000	8d 41 10	 lea	 eax, DWORD PTR [ecx+16]
  00003	c3		 ret	 0
?GetOwnerName@ioWeapon@@QBEABVioHashString@@XZ ENDP	; ioWeapon::GetOwnerName
_TEXT	ENDS
PUBLIC	?GetCreateItem@ioWeapon@@QBEABVioHashString@@XZ	; ioWeapon::GetCreateItem
; Function compile flags: /Ogsp
;	COMDAT ?GetCreateItem@ioWeapon@@QBEABVioHashString@@XZ
_TEXT	SEGMENT
?GetCreateItem@ioWeapon@@QBEABVioHashString@@XZ PROC	; ioWeapon::GetCreateItem, COMDAT
; _this$ = ecx

; 637  : 	inline const ioHashString& GetCreateItem() const { return m_CreateItem; }

  00000	8d 41 20	 lea	 eax, DWORD PTR [ecx+32]
  00003	c3		 ret	 0
?GetCreateItem@ioWeapon@@QBEABVioHashString@@XZ ENDP	; ioWeapon::GetCreateItem
_TEXT	ENDS
PUBLIC	?GetParentSceneNode@ioWeapon@@QBEPAVioSceneNode@@XZ ; ioWeapon::GetParentSceneNode
; Function compile flags: /Ogsp
;	COMDAT ?GetParentSceneNode@ioWeapon@@QBEPAVioSceneNode@@XZ
_TEXT	SEGMENT
?GetParentSceneNode@ioWeapon@@QBEPAVioSceneNode@@XZ PROC ; ioWeapon::GetParentSceneNode, COMDAT
; _this$ = ecx

; 797  : 	ioSceneNode* GetParentSceneNode() const { return m_pSceneNode; }

  00000	8b 41 04	 mov	 eax, DWORD PTR [ecx+4]
  00003	c3		 ret	 0
?GetParentSceneNode@ioWeapon@@QBEPAVioSceneNode@@XZ ENDP ; ioWeapon::GetParentSceneNode
_TEXT	ENDS
PUBLIC	?GetTypeID@ioBuff@@QBEHXZ			; ioBuff::GetTypeID
; Function compile flags: /Ogsp
; File d:\lost saga for developer\youtube\tutorial\source\src\lsclient\iobuff.h
;	COMDAT ?GetTypeID@ioBuff@@QBEHXZ
_TEXT	SEGMENT
?GetTypeID@ioBuff@@QBEHXZ PROC				; ioBuff::GetTypeID, COMDAT
; _this$ = ecx

; 424  : 	inline int GetTypeID() const { return m_iBuffType; }

  00000	8b 81 cc 03 00
	00		 mov	 eax, DWORD PTR [ecx+972]
  00006	c3		 ret	 0
?GetTypeID@ioBuff@@QBEHXZ ENDP				; ioBuff::GetTypeID
_TEXT	ENDS
PUBLIC	?size@?$vector@VioHashString@@V?$allocator@VioHashString@@@std@@@std@@QBEIXZ ; std::vector<ioHashString,std::allocator<ioHashString> >::size
; Function compile flags: /Ogsp
; File c:\program files (x86)\microsoft visual studio 10.0\vc\include\vector
;	COMDAT ?size@?$vector@VioHashString@@V?$allocator@VioHashString@@@std@@@std@@QBEIXZ
_TEXT	SEGMENT
?size@?$vector@VioHashString@@V?$allocator@VioHashString@@@std@@@std@@QBEIXZ PROC ; std::vector<ioHashString,std::allocator<ioHashString> >::size, COMDAT
; _this$ = ecx

; 879  : 		return (this->_Mylast - this->_Myfirst);

  00000	8b 41 04	 mov	 eax, DWORD PTR [ecx+4]
  00003	2b 01		 sub	 eax, DWORD PTR [ecx]
  00005	c1 f8 04	 sar	 eax, 4

; 880  : 		}

  00008	c3		 ret	 0
?size@?$vector@VioHashString@@V?$allocator@VioHashString@@@std@@@std@@QBEIXZ ENDP ; std::vector<ioHashString,std::allocator<ioHashString> >::size
_TEXT	ENDS
PUBLIC	??_7?$CEncrypt@M@@6B@				; CEncrypt<float>::`vftable'
PUBLIC	??1?$CEncrypt@M@@UAE@XZ				; CEncrypt<float>::~CEncrypt<float>
PUBLIC	??_R4?$CEncrypt@M@@6B@				; CEncrypt<float>::`RTTI Complete Object Locator'
PUBLIC	??_R0?AV?$CEncrypt@M@@@8			; CEncrypt<float> `RTTI Type Descriptor'
PUBLIC	??_R3?$CEncrypt@M@@8				; CEncrypt<float>::`RTTI Class Hierarchy Descriptor'
PUBLIC	??_R2?$CEncrypt@M@@8				; CEncrypt<float>::`RTTI Base Class Array'
PUBLIC	??_R1A@?0A@EA@?$CEncrypt@M@@8			; CEncrypt<float>::`RTTI Base Class Descriptor at (0,-1,0,64)'
EXTRN	??1ccddaabb@@UAE@XZ:PROC			; ccddaabb::~ccddaabb
EXTRN	??_E?$CEncrypt@M@@UAEPAXI@Z:PROC		; CEncrypt<float>::`vector deleting destructor'
;	COMDAT ??_R1A@?0A@EA@?$CEncrypt@M@@8
; File d:\lost saga for developer\youtube\tutorial\source\src\lsclient\encryptvalue.h
rdata$r	SEGMENT
??_R1A@?0A@EA@?$CEncrypt@M@@8 DD FLAT:??_R0?AV?$CEncrypt@M@@@8 ; CEncrypt<float>::`RTTI Base Class Descriptor at (0,-1,0,64)'
	DD	00H
	DD	00H
	DD	0ffffffffH
	DD	00H
	DD	040H
	DD	FLAT:??_R3?$CEncrypt@M@@8
rdata$r	ENDS
;	COMDAT ??_R2?$CEncrypt@M@@8
rdata$r	SEGMENT
??_R2?$CEncrypt@M@@8 DD FLAT:??_R1A@?0A@EA@?$CEncrypt@M@@8 ; CEncrypt<float>::`RTTI Base Class Array'
rdata$r	ENDS
;	COMDAT ??_R3?$CEncrypt@M@@8
rdata$r	SEGMENT
??_R3?$CEncrypt@M@@8 DD 00H				; CEncrypt<float>::`RTTI Class Hierarchy Descriptor'
	DD	00H
	DD	01H
	DD	FLAT:??_R2?$CEncrypt@M@@8
rdata$r	ENDS
;	COMDAT ??_R0?AV?$CEncrypt@M@@@8
_DATA	SEGMENT
??_R0?AV?$CEncrypt@M@@@8 DD FLAT:??_7type_info@@6B@	; CEncrypt<float> `RTTI Type Descriptor'
	DD	00H
	DB	'.?AV?$CEncrypt@M@@', 00H
_DATA	ENDS
;	COMDAT ??_R4?$CEncrypt@M@@6B@
rdata$r	SEGMENT
??_R4?$CEncrypt@M@@6B@ DD 00H				; CEncrypt<float>::`RTTI Complete Object Locator'
	DD	00H
	DD	00H
	DD	FLAT:??_R0?AV?$CEncrypt@M@@@8
	DD	FLAT:??_R3?$CEncrypt@M@@8
rdata$r	ENDS
;	COMDAT ??_7?$CEncrypt@M@@6B@
CONST	SEGMENT
??_7?$CEncrypt@M@@6B@ DD FLAT:??_R4?$CEncrypt@M@@6B@	; CEncrypt<float>::`vftable'
	DD	FLAT:??_E?$CEncrypt@M@@UAEPAXI@Z
; Function compile flags: /Ogsp
CONST	ENDS
;	COMDAT ??1?$CEncrypt@M@@UAE@XZ
_TEXT	SEGMENT
??1?$CEncrypt@M@@UAE@XZ PROC				; CEncrypt<float>::~CEncrypt<float>, COMDAT
; _this$ = ecx

; 127  : 	{

  00000	c7 01 00 00 00
	00		 mov	 DWORD PTR [ecx], OFFSET ??_7?$CEncrypt@M@@6B@

; 128  : 	}

  00006	83 c1 0c	 add	 ecx, 12			; 0000000cH
  00009	e9 00 00 00 00	 jmp	 ??1ccddaabb@@UAE@XZ	; ccddaabb::~ccddaabb
??1?$CEncrypt@M@@UAE@XZ ENDP				; CEncrypt<float>::~CEncrypt<float>
_TEXT	ENDS
PUBLIC	??_7?$CEncrypt@K@@6B@				; CEncrypt<unsigned long>::`vftable'
PUBLIC	??1?$CEncrypt@K@@UAE@XZ				; CEncrypt<unsigned long>::~CEncrypt<unsigned long>
PUBLIC	??_R4?$CEncrypt@K@@6B@				; CEncrypt<unsigned long>::`RTTI Complete Object Locator'
PUBLIC	??_R0?AV?$CEncrypt@K@@@8			; CEncrypt<unsigned long> `RTTI Type Descriptor'
PUBLIC	??_R3?$CEncrypt@K@@8				; CEncrypt<unsigned long>::`RTTI Class Hierarchy Descriptor'
PUBLIC	??_R2?$CEncrypt@K@@8				; CEncrypt<unsigned long>::`RTTI Base Class Array'
PUBLIC	??_R1A@?0A@EA@?$CEncrypt@K@@8			; CEncrypt<unsigned long>::`RTTI Base Class Descriptor at (0,-1,0,64)'
EXTRN	??_E?$CEncrypt@K@@UAEPAXI@Z:PROC		; CEncrypt<unsigned long>::`vector deleting destructor'
;	COMDAT ??_R1A@?0A@EA@?$CEncrypt@K@@8
rdata$r	SEGMENT
??_R1A@?0A@EA@?$CEncrypt@K@@8 DD FLAT:??_R0?AV?$CEncrypt@K@@@8 ; CEncrypt<unsigned long>::`RTTI Base Class Descriptor at (0,-1,0,64)'
	DD	00H
	DD	00H
	DD	0ffffffffH
	DD	00H
	DD	040H
	DD	FLAT:??_R3?$CEncrypt@K@@8
rdata$r	ENDS
;	COMDAT ??_R2?$CEncrypt@K@@8
rdata$r	SEGMENT
??_R2?$CEncrypt@K@@8 DD FLAT:??_R1A@?0A@EA@?$CEncrypt@K@@8 ; CEncrypt<unsigned long>::`RTTI Base Class Array'
rdata$r	ENDS
;	COMDAT ??_R3?$CEncrypt@K@@8
rdata$r	SEGMENT
??_R3?$CEncrypt@K@@8 DD 00H				; CEncrypt<unsigned long>::`RTTI Class Hierarchy Descriptor'
	DD	00H
	DD	01H
	DD	FLAT:??_R2?$CEncrypt@K@@8
rdata$r	ENDS
;	COMDAT ??_R0?AV?$CEncrypt@K@@@8
_DATA	SEGMENT
??_R0?AV?$CEncrypt@K@@@8 DD FLAT:??_7type_info@@6B@	; CEncrypt<unsigned long> `RTTI Type Descriptor'
	DD	00H
	DB	'.?AV?$CEncrypt@K@@', 00H
_DATA	ENDS
;	COMDAT ??_R4?$CEncrypt@K@@6B@
rdata$r	SEGMENT
??_R4?$CEncrypt@K@@6B@ DD 00H				; CEncrypt<unsigned long>::`RTTI Complete Object Locator'
	DD	00H
	DD	00H
	DD	FLAT:??_R0?AV?$CEncrypt@K@@@8
	DD	FLAT:??_R3?$CEncrypt@K@@8
rdata$r	ENDS
;	COMDAT ??_7?$CEncrypt@K@@6B@
CONST	SEGMENT
??_7?$CEncrypt@K@@6B@ DD FLAT:??_R4?$CEncrypt@K@@6B@	; CEncrypt<unsigned long>::`vftable'
	DD	FLAT:??_E?$CEncrypt@K@@UAEPAXI@Z
; Function compile flags: /Ogsp
CONST	ENDS
;	COMDAT ??1?$CEncrypt@K@@UAE@XZ
_TEXT	SEGMENT
??1?$CEncrypt@K@@UAE@XZ PROC				; CEncrypt<unsigned long>::~CEncrypt<unsigned long>, COMDAT
; _this$ = ecx

; 127  : 	{

  00000	c7 01 00 00 00
	00		 mov	 DWORD PTR [ecx], OFFSET ??_7?$CEncrypt@K@@6B@

; 128  : 	}

  00006	83 c1 0c	 add	 ecx, 12			; 0000000cH
  00009	e9 00 00 00 00	 jmp	 ??1ccddaabb@@UAE@XZ	; ccddaabb::~ccddaabb
??1?$CEncrypt@K@@UAE@XZ ENDP				; CEncrypt<unsigned long>::~CEncrypt<unsigned long>
; Function compile flags: /Ogsp
_TEXT	ENDS
;	COMDAT ??_G?$CEncrypt@M@@UAEPAXI@Z
_TEXT	SEGMENT
___flags$ = 8						; size = 4
??_G?$CEncrypt@M@@UAEPAXI@Z PROC			; CEncrypt<float>::`scalar deleting destructor', COMDAT
; _this$ = ecx
  00000	55		 push	 ebp
  00001	8b ec		 mov	 ebp, esp
  00003	56		 push	 esi
  00004	8b f1		 mov	 esi, ecx
  00006	8d 4e 0c	 lea	 ecx, DWORD PTR [esi+12]
  00009	c7 06 00 00 00
	00		 mov	 DWORD PTR [esi], OFFSET ??_7?$CEncrypt@M@@6B@
  0000f	e8 00 00 00 00	 call	 ??1ccddaabb@@UAE@XZ	; ccddaabb::~ccddaabb
  00014	f6 45 08 01	 test	 BYTE PTR ___flags$[ebp], 1
  00018	74 07		 je	 SHORT $LN1@scalar@2
  0001a	56		 push	 esi
  0001b	e8 00 00 00 00	 call	 ??3@YAXPAX@Z		; operator delete
  00020	59		 pop	 ecx
$LN1@scalar@2:
  00021	8b c6		 mov	 eax, esi
  00023	5e		 pop	 esi
  00024	5d		 pop	 ebp
  00025	c2 04 00	 ret	 4
??_G?$CEncrypt@M@@UAEPAXI@Z ENDP			; CEncrypt<float>::`scalar deleting destructor'
; Function compile flags: /Ogsp
_TEXT	ENDS
;	COMDAT ??_G?$CEncrypt@K@@UAEPAXI@Z
_TEXT	SEGMENT
___flags$ = 8						; size = 4
??_G?$CEncrypt@K@@UAEPAXI@Z PROC			; CEncrypt<unsigned long>::`scalar deleting destructor', COMDAT
; _this$ = ecx
  00000	55		 push	 ebp
  00001	8b ec		 mov	 ebp, esp
  00003	56		 push	 esi
  00004	8b f1		 mov	 esi, ecx
  00006	8d 4e 0c	 lea	 ecx, DWORD PTR [esi+12]
  00009	c7 06 00 00 00
	00		 mov	 DWORD PTR [esi], OFFSET ??_7?$CEncrypt@K@@6B@
  0000f	e8 00 00 00 00	 call	 ??1ccddaabb@@UAE@XZ	; ccddaabb::~ccddaabb
  00014	f6 45 08 01	 test	 BYTE PTR ___flags$[ebp], 1
  00018	74 07		 je	 SHORT $LN1@scalar@3
  0001a	56		 push	 esi
  0001b	e8 00 00 00 00	 call	 ??3@YAXPAX@Z		; operator delete
  00020	59		 pop	 ecx
$LN1@scalar@3:
  00021	8b c6		 mov	 eax, esi
  00023	5e		 pop	 esi
  00024	5d		 pop	 ebp
  00025	c2 04 00	 ret	 4
??_G?$CEncrypt@K@@UAEPAXI@Z ENDP			; CEncrypt<unsigned long>::`scalar deleting destructor'
_TEXT	ENDS
PUBLIC	??1?$_Vector_val@VioHashString@@V?$allocator@VioHashString@@@std@@@std@@QAE@XZ ; std::_Vector_val<ioHashString,std::allocator<ioHashString> >::~_Vector_val<ioHashString,std::allocator<ioHashString> >
; Function compile flags: /Ogsp
; File c:\program files (x86)\microsoft visual studio 10.0\vc\include\vector
;	COMDAT ??1?$_Vector_val@VioHashString@@V?$allocator@VioHashString@@@std@@@std@@QAE@XZ
_TEXT	SEGMENT
??1?$_Vector_val@VioHashString@@V?$allocator@VioHashString@@@std@@@std@@QAE@XZ PROC ; std::_Vector_val<ioHashString,std::allocator<ioHashString> >::~_Vector_val<ioHashString,std::allocator<ioHashString> >, COMDAT
; _this$ = ecx

; 434  : 		}

  00000	c3		 ret	 0
??1?$_Vector_val@VioHashString@@V?$allocator@VioHashString@@@std@@@std@@QAE@XZ ENDP ; std::_Vector_val<ioHashString,std::allocator<ioHashString> >::~_Vector_val<ioHashString,std::allocator<ioHashString> >
_TEXT	ENDS
PUBLIC	??0?$allocator@VioHashString@@@std@@QAE@XZ	; std::allocator<ioHashString>::allocator<ioHashString>
; Function compile flags: /Ogsp
; File c:\program files (x86)\microsoft visual studio 10.0\vc\include\xmemory
;	COMDAT ??0?$allocator@VioHashString@@@std@@QAE@XZ
_TEXT	SEGMENT
??0?$allocator@VioHashString@@@std@@QAE@XZ PROC		; std::allocator<ioHashString>::allocator<ioHashString>, COMDAT
; _this$ = ecx

; 161  : 	_ALLOCATOR() _THROW0()

  00000	8b c1		 mov	 eax, ecx

; 162  : 		{	// construct default allocator (do nothing)
; 163  : 		}

  00002	c3		 ret	 0
??0?$allocator@VioHashString@@@std@@QAE@XZ ENDP		; std::allocator<ioHashString>::allocator<ioHashString>
_TEXT	ENDS
PUBLIC	??0?$allocator@VioHashString@@@std@@QAE@ABV01@@Z ; std::allocator<ioHashString>::allocator<ioHashString>
; Function compile flags: /Ogsp
;	COMDAT ??0?$allocator@VioHashString@@@std@@QAE@ABV01@@Z
_TEXT	SEGMENT
___formal$ = 8						; size = 4
??0?$allocator@VioHashString@@@std@@QAE@ABV01@@Z PROC	; std::allocator<ioHashString>::allocator<ioHashString>, COMDAT
; _this$ = ecx

; 165  : 	_ALLOCATOR(const _ALLOCATOR<_Ty>&) _THROW0()

  00000	8b c1		 mov	 eax, ecx

; 166  : 		{	// construct by copying (do nothing)
; 167  : 		}

  00002	c2 04 00	 ret	 4
??0?$allocator@VioHashString@@@std@@QAE@ABV01@@Z ENDP	; std::allocator<ioHashString>::allocator<ioHashString>
_TEXT	ENDS
PUBLIC	??1?$_Vector_val@UWeaponInfo@@V?$allocator@UWeaponInfo@@@std@@@std@@QAE@XZ ; std::_Vector_val<WeaponInfo,std::allocator<WeaponInfo> >::~_Vector_val<WeaponInfo,std::allocator<WeaponInfo> >
; Function compile flags: /Ogsp
; File c:\program files (x86)\microsoft visual studio 10.0\vc\include\vector
;	COMDAT ??1?$_Vector_val@UWeaponInfo@@V?$allocator@UWeaponInfo@@@std@@@std@@QAE@XZ
_TEXT	SEGMENT
??1?$_Vector_val@UWeaponInfo@@V?$allocator@UWeaponInfo@@@std@@@std@@QAE@XZ PROC ; std::_Vector_val<WeaponInfo,std::allocator<WeaponInfo> >::~_Vector_val<WeaponInfo,std::allocator<WeaponInfo> >, COMDAT
; _this$ = ecx

; 434  : 		}

  00000	c3		 ret	 0
??1?$_Vector_val@UWeaponInfo@@V?$allocator@UWeaponInfo@@@std@@@std@@QAE@XZ ENDP ; std::_Vector_val<WeaponInfo,std::allocator<WeaponInfo> >::~_Vector_val<WeaponInfo,std::allocator<WeaponInfo> >
_TEXT	ENDS
PUBLIC	??0?$allocator@UWeaponInfo@@@std@@QAE@XZ	; std::allocator<WeaponInfo>::allocator<WeaponInfo>
; Function compile flags: /Ogsp
; File c:\program files (x86)\microsoft visual studio 10.0\vc\include\xmemory
;	COMDAT ??0?$allocator@UWeaponInfo@@@std@@QAE@XZ
_TEXT	SEGMENT
??0?$allocator@UWeaponInfo@@@std@@QAE@XZ PROC		; std::allocator<WeaponInfo>::allocator<WeaponInfo>, COMDAT
; _this$ = ecx

; 161  : 	_ALLOCATOR() _THROW0()

  00000	8b c1		 mov	 eax, ecx

; 162  : 		{	// construct default allocator (do nothing)
; 163  : 		}

  00002	c3		 ret	 0
??0?$allocator@UWeaponInfo@@@std@@QAE@XZ ENDP		; std::allocator<WeaponInfo>::allocator<WeaponInfo>
_TEXT	ENDS
PUBLIC	?EncryptValueToPool@?$CEncrypt@M@@AAEXPBD@Z	; CEncrypt<float>::EncryptValueToPool
EXTRN	?EncryptByte@ccddaabb@@QAEXPBDPADH@Z:PROC	; ccddaabb::EncryptByte
; Function compile flags: /Ogsp
; File d:\lost saga for developer\youtube\tutorial\source\src\lsclient\encryptvalue.h
;	COMDAT ?EncryptValueToPool@?$CEncrypt@M@@AAEXPBD@Z
_TEXT	SEGMENT
_value$ = 8						; size = 4
?EncryptValueToPool@?$CEncrypt@M@@AAEXPBD@Z PROC	; CEncrypt<float>::EncryptValueToPool, COMDAT
; _this$ = ecx

; 67   : 	{

  00000	55		 push	 ebp
  00001	8b ec		 mov	 ebp, esp

; 68   : 		m_RC5.EncryptByte( value, m_MemPool, max(m_ValueSize, DEFAULT_ENCRYPT) );

  00003	0f b7 41 06	 movzx	 eax, WORD PTR [ecx+6]
  00007	83 f8 04	 cmp	 eax, 4
  0000a	77 03		 ja	 SHORT $LN4@EncryptVal
  0000c	6a 04		 push	 4
  0000e	58		 pop	 eax
$LN4@EncryptVal:
  0000f	50		 push	 eax
  00010	8d 41 1c	 lea	 eax, DWORD PTR [ecx+28]
  00013	50		 push	 eax
  00014	ff 75 08	 push	 DWORD PTR _value$[ebp]
  00017	83 c1 0c	 add	 ecx, 12			; 0000000cH
  0001a	e8 00 00 00 00	 call	 ?EncryptByte@ccddaabb@@QAEXPBDPADH@Z ; ccddaabb::EncryptByte

; 69   : 		
; 70   : 	}

  0001f	5d		 pop	 ebp
  00020	c2 04 00	 ret	 4
?EncryptValueToPool@?$CEncrypt@M@@AAEXPBD@Z ENDP	; CEncrypt<float>::EncryptValueToPool
_TEXT	ENDS
PUBLIC	?Init@?$CEncrypt@M@@AAEXXZ			; CEncrypt<float>::Init
EXTRN	?Setup@ccddaabb@@QAEXPBDHH@Z:PROC		; ccddaabb::Setup
EXTRN	__imp__rand:PROC
EXTRN	__imp__timeGetTime@0:PROC
EXTRN	__imp__GetCurrentProcessId@0:PROC
; Function compile flags: /Ogsp
;	COMDAT ?Init@?$CEncrypt@M@@AAEXXZ
_TEXT	SEGMENT
_pid$ = -8						; size = 4
_tick$ = -4						; size = 4
?Init@?$CEncrypt@M@@AAEXXZ PROC				; CEncrypt<float>::Init, COMDAT
; _this$ = ecx

; 73   : 	{

  00000	55		 push	 ebp
  00001	8b ec		 mov	 ebp, esp
  00003	51		 push	 ecx
  00004	51		 push	 ecx
  00005	53		 push	 ebx
  00006	56		 push	 esi
  00007	57		 push	 edi
  00008	8b f1		 mov	 esi, ecx

; 74   : 		DWORD pid = GetCurrentProcessId();

  0000a	ff 15 00 00 00
	00		 call	 DWORD PTR __imp__GetCurrentProcessId@0
  00010	89 45 f8	 mov	 DWORD PTR _pid$[ebp], eax

; 75   : 		DWORD tick = timeGetTime();

  00013	ff 15 00 00 00
	00		 call	 DWORD PTR __imp__timeGetTime@0

; 76   : 		m_ValueSize    = sizeof(type);
; 77   : 		m_MemPoolPos   = (unsigned short)( rand()+pid+tick )%(MAX_MEM_POOL-m_ValueSize);

  00019	8b 3d 00 00 00
	00		 mov	 edi, DWORD PTR __imp__rand
  0001f	89 45 fc	 mov	 DWORD PTR _tick$[ebp], eax
  00022	6a 04		 push	 4
  00024	58		 pop	 eax
  00025	66 89 46 06	 mov	 WORD PTR [esi+6], ax
  00029	ff d7		 call	 edi
  0002b	03 45 f8	 add	 eax, DWORD PTR _pid$[ebp]
  0002e	0f b7 4e 06	 movzx	 ecx, WORD PTR [esi+6]
  00032	03 45 fc	 add	 eax, DWORD PTR _tick$[ebp]
  00035	6a 0c		 push	 12			; 0000000cH
  00037	0f b7 c0	 movzx	 eax, ax
  0003a	5b		 pop	 ebx
  0003b	99		 cdq
  0003c	2b d9		 sub	 ebx, ecx
  0003e	f7 fb		 idiv	 ebx
  00040	66 89 56 04	 mov	 WORD PTR [esi+4], dx

; 78   : 		m_EncryptSeed  = (char)( rand()+pid+tick )%256;

  00044	ff d7		 call	 edi
  00046	02 45 f8	 add	 al, BYTE PTR _pid$[ebp]
  00049	02 45 fc	 add	 al, BYTE PTR _tick$[ebp]
  0004c	0f be c0	 movsx	 eax, al
  0004f	25 ff 00 00 80	 and	 eax, -2147483393	; 800000ffH
  00054	79 07		 jns	 SHORT $LN8@Init
  00056	48		 dec	 eax
  00057	0d 00 ff ff ff	 or	 eax, -256		; ffffff00H
  0005c	40		 inc	 eax
$LN8@Init:
  0005d	88 46 08	 mov	 BYTE PTR [esi+8], al

; 79   : 
; 80   : 		for (int i = 0; i < MAX_MEM_POOL ; i++)

  00060	33 db		 xor	 ebx, ebx
$LL3@Init:

; 81   : 			m_MemPool[i] = (char)( rand()+pid+tick )%256; // 

  00062	ff d7		 call	 edi
  00064	02 45 f8	 add	 al, BYTE PTR _pid$[ebp]
  00067	02 45 fc	 add	 al, BYTE PTR _tick$[ebp]
  0006a	0f be c0	 movsx	 eax, al
  0006d	25 ff 00 00 80	 and	 eax, -2147483393	; 800000ffH
  00072	79 07		 jns	 SHORT $LN9@Init
  00074	48		 dec	 eax
  00075	0d 00 ff ff ff	 or	 eax, -256		; ffffff00H
  0007a	40		 inc	 eax
$LN9@Init:
  0007b	88 44 1e 1c	 mov	 BYTE PTR [esi+ebx+28], al
  0007f	43		 inc	 ebx
  00080	83 fb 0c	 cmp	 ebx, 12			; 0000000cH
  00083	7c dd		 jl	 SHORT $LL3@Init

; 82   : 
; 83   : 		//UJ 130913, : szKey  
; 84   : 		//char szKey[ccddaabb::KEY_SIZE];//="";
; 85   : 		//for (int i = 0; i < ccddaabb::KEY_SIZE  ; i++)
; 86   : 		//	szKey[i] = (char)( rand()+pid+tick )%256; // 
; 87   : 		m_RC5.Setup( NULL, pid, tick );

  00085	ff 75 fc	 push	 DWORD PTR _tick$[ebp]
  00088	8d 4e 0c	 lea	 ecx, DWORD PTR [esi+12]
  0008b	ff 75 f8	 push	 DWORD PTR _pid$[ebp]
  0008e	6a 00		 push	 0
  00090	e8 00 00 00 00	 call	 ?Setup@ccddaabb@@QAEXPBDHH@Z ; ccddaabb::Setup
  00095	5f		 pop	 edi
  00096	5e		 pop	 esi
  00097	5b		 pop	 ebx

; 88   : 
; 89   : #ifdef _NOTUSE
; 90   : 		m_value        = 0;
; 91   : 		EncryptValueToPool((char*)&m_value);
; 92   : 		Debug();
; 93   : #endif
; 94   : 	}

  00098	c9		 leave
  00099	c3		 ret	 0
?Init@?$CEncrypt@M@@AAEXXZ ENDP				; CEncrypt<float>::Init
_TEXT	ENDS
PUBLIC	?DecryptValueToPool@?$CEncrypt@M@@QAEXPAM@Z	; CEncrypt<float>::DecryptValueToPool
EXTRN	?DecryptByte@ccddaabb@@QBEXPBDPADH@Z:PROC	; ccddaabb::DecryptByte
; Function compile flags: /Ogsp
;	COMDAT ?DecryptValueToPool@?$CEncrypt@M@@QAEXPAM@Z
_TEXT	SEGMENT
_value$ = 8						; size = 4
?DecryptValueToPool@?$CEncrypt@M@@QAEXPAM@Z PROC	; CEncrypt<float>::DecryptValueToPool, COMDAT
; _this$ = ecx

; 1648 : 	{

  00000	55		 push	 ebp
  00001	8b ec		 mov	 ebp, esp
  00003	56		 push	 esi

; 1649 : 		m_RC5.DecryptByte( m_MemPool, m_TempMem, 4 );

  00004	8d 71 28	 lea	 esi, DWORD PTR [ecx+40]
  00007	6a 04		 push	 4
  00009	8d 41 1c	 lea	 eax, DWORD PTR [ecx+28]
  0000c	56		 push	 esi
  0000d	50		 push	 eax
  0000e	83 c1 0c	 add	 ecx, 12			; 0000000cH
  00011	e8 00 00 00 00	 call	 ?DecryptByte@ccddaabb@@QBEXPBDPADH@Z ; ccddaabb::DecryptByte

; 1650 : 		*value = *((float*)m_TempMem);

  00016	d9 06		 fld	 DWORD PTR [esi]
  00018	8b 45 08	 mov	 eax, DWORD PTR _value$[ebp]
  0001b	d9 18		 fstp	 DWORD PTR [eax]
  0001d	5e		 pop	 esi

; 1651 : 	}

  0001e	5d		 pop	 ebp
  0001f	c2 04 00	 ret	 4
?DecryptValueToPool@?$CEncrypt@M@@QAEXPAM@Z ENDP	; CEncrypt<float>::DecryptValueToPool
_TEXT	ENDS
PUBLIC	?EncryptValueToPool@?$CEncrypt@K@@AAEXPBD@Z	; CEncrypt<unsigned long>::EncryptValueToPool
; Function compile flags: /Ogsp
;	COMDAT ?EncryptValueToPool@?$CEncrypt@K@@AAEXPBD@Z
_TEXT	SEGMENT
_value$ = 8						; size = 4
?EncryptValueToPool@?$CEncrypt@K@@AAEXPBD@Z PROC	; CEncrypt<unsigned long>::EncryptValueToPool, COMDAT
; _this$ = ecx

; 67   : 	{

  00000	55		 push	 ebp
  00001	8b ec		 mov	 ebp, esp

; 68   : 		m_RC5.EncryptByte( value, m_MemPool, max(m_ValueSize, DEFAULT_ENCRYPT) );

  00003	0f b7 41 06	 movzx	 eax, WORD PTR [ecx+6]
  00007	83 f8 04	 cmp	 eax, 4
  0000a	77 03		 ja	 SHORT $LN4@EncryptVal@2
  0000c	6a 04		 push	 4
  0000e	58		 pop	 eax
$LN4@EncryptVal@2:
  0000f	50		 push	 eax
  00010	8d 41 1c	 lea	 eax, DWORD PTR [ecx+28]
  00013	50		 push	 eax
  00014	ff 75 08	 push	 DWORD PTR _value$[ebp]
  00017	83 c1 0c	 add	 ecx, 12			; 0000000cH
  0001a	e8 00 00 00 00	 call	 ?EncryptByte@ccddaabb@@QAEXPBDPADH@Z ; ccddaabb::EncryptByte

; 69   : 		
; 70   : 	}

  0001f	5d		 pop	 ebp
  00020	c2 04 00	 ret	 4
?EncryptValueToPool@?$CEncrypt@K@@AAEXPBD@Z ENDP	; CEncrypt<unsigned long>::EncryptValueToPool
_TEXT	ENDS
PUBLIC	?Init@?$CEncrypt@K@@AAEXXZ			; CEncrypt<unsigned long>::Init
; Function compile flags: /Ogsp
;	COMDAT ?Init@?$CEncrypt@K@@AAEXXZ
_TEXT	SEGMENT
_pid$ = -8						; size = 4
_tick$ = -4						; size = 4
?Init@?$CEncrypt@K@@AAEXXZ PROC				; CEncrypt<unsigned long>::Init, COMDAT
; _this$ = ecx

; 73   : 	{

  00000	55		 push	 ebp
  00001	8b ec		 mov	 ebp, esp
  00003	51		 push	 ecx
  00004	51		 push	 ecx
  00005	53		 push	 ebx
  00006	56		 push	 esi
  00007	57		 push	 edi
  00008	8b f1		 mov	 esi, ecx

; 74   : 		DWORD pid = GetCurrentProcessId();

  0000a	ff 15 00 00 00
	00		 call	 DWORD PTR __imp__GetCurrentProcessId@0
  00010	89 45 f8	 mov	 DWORD PTR _pid$[ebp], eax

; 75   : 		DWORD tick = timeGetTime();

  00013	ff 15 00 00 00
	00		 call	 DWORD PTR __imp__timeGetTime@0

; 76   : 		m_ValueSize    = sizeof(type);
; 77   : 		m_MemPoolPos   = (unsigned short)( rand()+pid+tick )%(MAX_MEM_POOL-m_ValueSize);

  00019	8b 3d 00 00 00
	00		 mov	 edi, DWORD PTR __imp__rand
  0001f	89 45 fc	 mov	 DWORD PTR _tick$[ebp], eax
  00022	6a 04		 push	 4
  00024	58		 pop	 eax
  00025	66 89 46 06	 mov	 WORD PTR [esi+6], ax
  00029	ff d7		 call	 edi
  0002b	03 45 f8	 add	 eax, DWORD PTR _pid$[ebp]
  0002e	0f b7 4e 06	 movzx	 ecx, WORD PTR [esi+6]
  00032	03 45 fc	 add	 eax, DWORD PTR _tick$[ebp]
  00035	6a 0c		 push	 12			; 0000000cH
  00037	0f b7 c0	 movzx	 eax, ax
  0003a	5b		 pop	 ebx
  0003b	99		 cdq
  0003c	2b d9		 sub	 ebx, ecx
  0003e	f7 fb		 idiv	 ebx
  00040	66 89 56 04	 mov	 WORD PTR [esi+4], dx

; 78   : 		m_EncryptSeed  = (char)( rand()+pid+tick )%256;

  00044	ff d7		 call	 edi
  00046	02 45 f8	 add	 al, BYTE PTR _pid$[ebp]
  00049	02 45 fc	 add	 al, BYTE PTR _tick$[ebp]
  0004c	0f be c0	 movsx	 eax, al
  0004f	25 ff 00 00 80	 and	 eax, -2147483393	; 800000ffH
  00054	79 07		 jns	 SHORT $LN8@Init@2
  00056	48		 dec	 eax
  00057	0d 00 ff ff ff	 or	 eax, -256		; ffffff00H
  0005c	40		 inc	 eax
$LN8@Init@2:
  0005d	88 46 08	 mov	 BYTE PTR [esi+8], al

; 79   : 
; 80   : 		for (int i = 0; i < MAX_MEM_POOL ; i++)

  00060	33 db		 xor	 ebx, ebx
$LL3@Init@2:

; 81   : 			m_MemPool[i] = (char)( rand()+pid+tick )%256; // 

  00062	ff d7		 call	 edi
  00064	02 45 f8	 add	 al, BYTE PTR _pid$[ebp]
  00067	02 45 fc	 add	 al, BYTE PTR _tick$[ebp]
  0006a	0f be c0	 movsx	 eax, al
  0006d	25 ff 00 00 80	 and	 eax, -2147483393	; 800000ffH
  00072	79 07		 jns	 SHORT $LN9@Init@2
  00074	48		 dec	 eax
  00075	0d 00 ff ff ff	 or	 eax, -256		; ffffff00H
  0007a	40		 inc	 eax
$LN9@Init@2:
  0007b	88 44 1e 1c	 mov	 BYTE PTR [esi+ebx+28], al
  0007f	43		 inc	 ebx
  00080	83 fb 0c	 cmp	 ebx, 12			; 0000000cH
  00083	7c dd		 jl	 SHORT $LL3@Init@2

; 82   : 
; 83   : 		//UJ 130913, : szKey  
; 84   : 		//char szKey[ccddaabb::KEY_SIZE];//="";
; 85   : 		//for (int i = 0; i < ccddaabb::KEY_SIZE  ; i++)
; 86   : 		//	szKey[i] = (char)( rand()+pid+tick )%256; // 
; 87   : 		m_RC5.Setup( NULL, pid, tick );

  00085	ff 75 fc	 push	 DWORD PTR _tick$[ebp]
  00088	8d 4e 0c	 lea	 ecx, DWORD PTR [esi+12]
  0008b	ff 75 f8	 push	 DWORD PTR _pid$[ebp]
  0008e	6a 00		 push	 0
  00090	e8 00 00 00 00	 call	 ?Setup@ccddaabb@@QAEXPBDHH@Z ; ccddaabb::Setup
  00095	5f		 pop	 edi
  00096	5e		 pop	 esi
  00097	5b		 pop	 ebx

; 88   : 
; 89   : #ifdef _NOTUSE
; 90   : 		m_value        = 0;
; 91   : 		EncryptValueToPool((char*)&m_value);
; 92   : 		Debug();
; 93   : #endif
; 94   : 	}

  00098	c9		 leave
  00099	c3		 ret	 0
?Init@?$CEncrypt@K@@AAEXXZ ENDP				; CEncrypt<unsigned long>::Init
_TEXT	ENDS
PUBLIC	?DecryptValueToPool@?$CEncrypt@K@@QAEXPAK@Z	; CEncrypt<unsigned long>::DecryptValueToPool
; Function compile flags: /Ogsp
;	COMDAT ?DecryptValueToPool@?$CEncrypt@K@@QAEXPAK@Z
_TEXT	SEGMENT
_value$ = 8						; size = 4
?DecryptValueToPool@?$CEncrypt@K@@QAEXPAK@Z PROC	; CEncrypt<unsigned long>::DecryptValueToPool, COMDAT
; _this$ = ecx

; 1256 : 	{

  00000	55		 push	 ebp
  00001	8b ec		 mov	 ebp, esp
  00003	56		 push	 esi

; 1257 : 		m_RC5.DecryptByte( m_MemPool, m_TempMem, 4 );

  00004	8d 71 28	 lea	 esi, DWORD PTR [ecx+40]
  00007	6a 04		 push	 4
  00009	8d 41 1c	 lea	 eax, DWORD PTR [ecx+28]
  0000c	56		 push	 esi
  0000d	50		 push	 eax
  0000e	83 c1 0c	 add	 ecx, 12			; 0000000cH
  00011	e8 00 00 00 00	 call	 ?DecryptByte@ccddaabb@@QBEXPBDPADH@Z ; ccddaabb::DecryptByte

; 1258 : 		*value = *((DWORD*)m_TempMem);

  00016	8b 06		 mov	 eax, DWORD PTR [esi]
  00018	8b 4d 08	 mov	 ecx, DWORD PTR _value$[ebp]
  0001b	89 01		 mov	 DWORD PTR [ecx], eax
  0001d	5e		 pop	 esi

; 1259 : 	}

  0001e	5d		 pop	 ebp
  0001f	c2 04 00	 ret	 4
?DecryptValueToPool@?$CEncrypt@K@@QAEXPAK@Z ENDP	; CEncrypt<unsigned long>::DecryptValueToPool
_TEXT	ENDS
PUBLIC	?DecryptValueToPool@?$CEncrypt@W4TeamType@@@@QAEXPAW4TeamType@@@Z ; CEncrypt<enum TeamType>::DecryptValueToPool
; Function compile flags: /Ogsp
;	COMDAT ?DecryptValueToPool@?$CEncrypt@W4TeamType@@@@QAEXPAW4TeamType@@@Z
_TEXT	SEGMENT
_value$ = 8						; size = 4
?DecryptValueToPool@?$CEncrypt@W4TeamType@@@@QAEXPAW4TeamType@@@Z PROC ; CEncrypt<enum TeamType>::DecryptValueToPool, COMDAT
; _this$ = ecx

; 2959 : 	{

  00000	55		 push	 ebp
  00001	8b ec		 mov	 ebp, esp
  00003	56		 push	 esi

; 2960 : 		m_RC5.DecryptByte( m_MemPool, m_TempMem, sizeof(TeamType) );

  00004	8d 71 28	 lea	 esi, DWORD PTR [ecx+40]
  00007	6a 04		 push	 4
  00009	8d 41 1c	 lea	 eax, DWORD PTR [ecx+28]
  0000c	56		 push	 esi
  0000d	50		 push	 eax
  0000e	83 c1 0c	 add	 ecx, 12			; 0000000cH
  00011	e8 00 00 00 00	 call	 ?DecryptByte@ccddaabb@@QBEXPBDPADH@Z ; ccddaabb::DecryptByte

; 2961 : 		*value = *((TeamType*)m_TempMem);

  00016	8b 06		 mov	 eax, DWORD PTR [esi]
  00018	8b 4d 08	 mov	 ecx, DWORD PTR _value$[ebp]
  0001b	89 01		 mov	 DWORD PTR [ecx], eax
  0001d	5e		 pop	 esi

; 2962 : 	}

  0001e	5d		 pop	 ebp
  0001f	c2 04 00	 ret	 4
?DecryptValueToPool@?$CEncrypt@W4TeamType@@@@QAEXPAW4TeamType@@@Z ENDP ; CEncrypt<enum TeamType>::DecryptValueToPool
_TEXT	ENDS
PUBLIC	?DecryptValueToPool@?$CEncrypt@W4ModeType@@@@QAEXPAW4ModeType@@@Z ; CEncrypt<enum ModeType>::DecryptValueToPool
; Function compile flags: /Ogsp
;	COMDAT ?DecryptValueToPool@?$CEncrypt@W4ModeType@@@@QAEXPAW4ModeType@@@Z
_TEXT	SEGMENT
_value$ = 8						; size = 4
?DecryptValueToPool@?$CEncrypt@W4ModeType@@@@QAEXPAW4ModeType@@@Z PROC ; CEncrypt<enum ModeType>::DecryptValueToPool, COMDAT
; _this$ = ecx

; 3039 : 	{

  00000	55		 push	 ebp
  00001	8b ec		 mov	 ebp, esp
  00003	56		 push	 esi

; 3040 : 		m_RC5.DecryptByte( m_MemPool, m_TempMem, sizeof(ModeType) );

  00004	8d 71 28	 lea	 esi, DWORD PTR [ecx+40]
  00007	6a 04		 push	 4
  00009	8d 41 1c	 lea	 eax, DWORD PTR [ecx+28]
  0000c	56		 push	 esi
  0000d	50		 push	 eax
  0000e	83 c1 0c	 add	 ecx, 12			; 0000000cH
  00011	e8 00 00 00 00	 call	 ?DecryptByte@ccddaabb@@QBEXPBDPADH@Z ; ccddaabb::DecryptByte

; 3041 : 		*value = *((ModeType*)m_TempMem);

  00016	8b 06		 mov	 eax, DWORD PTR [esi]
  00018	8b 4d 08	 mov	 ecx, DWORD PTR _value$[ebp]
  0001b	89 01		 mov	 DWORD PTR [ecx], eax
  0001d	5e		 pop	 esi

; 3042 : 	}

  0001e	5d		 pop	 ebp
  0001f	c2 04 00	 ret	 4
?DecryptValueToPool@?$CEncrypt@W4ModeType@@@@QAEXPAW4ModeType@@@Z ENDP ; CEncrypt<enum ModeType>::DecryptValueToPool
_TEXT	ENDS
PUBLIC	??_C@_0BD@OLBABOEK@vector?$DMT?$DO?5too?5long?$AA@ ; `string'
PUBLIC	?_Xlen@?$vector@VioHashString@@V?$allocator@VioHashString@@@std@@@std@@IBEXXZ ; std::vector<ioHashString,std::allocator<ioHashString> >::_Xlen
EXTRN	__imp_?_Xlength_error@std@@YAXPBD@Z:PROC
;	COMDAT ??_C@_0BD@OLBABOEK@vector?$DMT?$DO?5too?5long?$AA@
; File c:\program files (x86)\microsoft visual studio 10.0\vc\include\vector
CONST	SEGMENT
??_C@_0BD@OLBABOEK@vector?$DMT?$DO?5too?5long?$AA@ DB 'vector<T> too long'
	DB	00H						; `string'
; Function compile flags: /Ogsp
CONST	ENDS
;	COMDAT ?_Xlen@?$vector@VioHashString@@V?$allocator@VioHashString@@@std@@@std@@IBEXXZ
_TEXT	SEGMENT
?_Xlen@?$vector@VioHashString@@V?$allocator@VioHashString@@@std@@@std@@IBEXXZ PROC ; std::vector<ioHashString,std::allocator<ioHashString> >::_Xlen, COMDAT
; _this$ = ecx

; 1427 : 		_Xlength_error("vector<T> too long");

  00000	68 00 00 00 00	 push	 OFFSET ??_C@_0BD@OLBABOEK@vector?$DMT?$DO?5too?5long?$AA@
  00005	ff 15 00 00 00
	00		 call	 DWORD PTR __imp_?_Xlength_error@std@@YAXPBD@Z
$LN4@Xlen:
$LN3@Xlen:
  0000b	cc		 int	 3
?_Xlen@?$vector@VioHashString@@V?$allocator@VioHashString@@@std@@@std@@IBEXXZ ENDP ; std::vector<ioHashString,std::allocator<ioHashString> >::_Xlen
_TEXT	ENDS
PUBLIC	?deallocate@?$allocator@VioHashString@@@std@@QAEXPAVioHashString@@I@Z ; std::allocator<ioHashString>::deallocate
; Function compile flags: /Ogsp
; File c:\program files (x86)\microsoft visual studio 10.0\vc\include\xmemory
;	COMDAT ?deallocate@?$allocator@VioHashString@@@std@@QAEXPAVioHashString@@I@Z
_TEXT	SEGMENT
__Ptr$ = 8						; size = 4
___formal$ = 12						; size = 4
?deallocate@?$allocator@VioHashString@@@std@@QAEXPAVioHashString@@I@Z PROC ; std::allocator<ioHashString>::deallocate, COMDAT
; _this$ = ecx

; 181  : 		{	// deallocate object at _Ptr, ignore size

  00000	55		 push	 ebp
  00001	8b ec		 mov	 ebp, esp

; 182  : 		::operator delete(_Ptr);

  00003	ff 75 08	 push	 DWORD PTR __Ptr$[ebp]
  00006	e8 00 00 00 00	 call	 ??3@YAXPAX@Z		; operator delete
  0000b	59		 pop	 ecx

; 183  : 		}

  0000c	5d		 pop	 ebp
  0000d	c2 08 00	 ret	 8
?deallocate@?$allocator@VioHashString@@@std@@QAEXPAVioHashString@@I@Z ENDP ; std::allocator<ioHashString>::deallocate
_TEXT	ENDS
PUBLIC	??0?$allocator@UWeaponInfo@@@std@@QAE@ABV01@@Z	; std::allocator<WeaponInfo>::allocator<WeaponInfo>
; Function compile flags: /Ogsp
;	COMDAT ??0?$allocator@UWeaponInfo@@@std@@QAE@ABV01@@Z
_TEXT	SEGMENT
___formal$ = 8						; size = 4
??0?$allocator@UWeaponInfo@@@std@@QAE@ABV01@@Z PROC	; std::allocator<WeaponInfo>::allocator<WeaponInfo>, COMDAT
; _this$ = ecx

; 165  : 	_ALLOCATOR(const _ALLOCATOR<_Ty>&) _THROW0()

  00000	8b c1		 mov	 eax, ecx

; 166  : 		{	// construct by copying (do nothing)
; 167  : 		}

  00002	c2 04 00	 ret	 4
??0?$allocator@UWeaponInfo@@@std@@QAE@ABV01@@Z ENDP	; std::allocator<WeaponInfo>::allocator<WeaponInfo>
_TEXT	ENDS
PUBLIC	?deallocate@?$allocator@UWeaponInfo@@@std@@QAEXPAUWeaponInfo@@I@Z ; std::allocator<WeaponInfo>::deallocate
; Function compile flags: /Ogsp
;	COMDAT ?deallocate@?$allocator@UWeaponInfo@@@std@@QAEXPAUWeaponInfo@@I@Z
_TEXT	SEGMENT
__Ptr$ = 8						; size = 4
___formal$ = 12						; size = 4
?deallocate@?$allocator@UWeaponInfo@@@std@@QAEXPAUWeaponInfo@@I@Z PROC ; std::allocator<WeaponInfo>::deallocate, COMDAT
; _this$ = ecx

; 181  : 		{	// deallocate object at _Ptr, ignore size

  00000	55		 push	 ebp
  00001	8b ec		 mov	 ebp, esp

; 182  : 		::operator delete(_Ptr);

  00003	ff 75 08	 push	 DWORD PTR __Ptr$[ebp]
  00006	e8 00 00 00 00	 call	 ??3@YAXPAX@Z		; operator delete
  0000b	59		 pop	 ecx

; 183  : 		}

  0000c	5d		 pop	 ebp
  0000d	c2 08 00	 ret	 8
?deallocate@?$allocator@UWeaponInfo@@@std@@QAEXPAUWeaponInfo@@I@Z ENDP ; std::allocator<WeaponInfo>::deallocate
_TEXT	ENDS
PUBLIC	??0?$_Vector_const_iterator@V?$_Vector_val@VioHashString@@V?$allocator@VioHashString@@@std@@@std@@@std@@QAE@PAVioHashString@@PBU_Container_base0@1@@Z ; std::_Vector_const_iterator<std::_Vector_val<ioHashString,std::allocator<ioHashString> > >::_Vector_const_iterator<std::_Vector_val<ioHashString,std::allocator<ioHashString> > >
; Function compile flags: /Ogsp
; File c:\program files (x86)\microsoft visual studio 10.0\vc\include\vector
;	COMDAT ??0?$_Vector_const_iterator@V?$_Vector_val@VioHashString@@V?$allocator@VioHashString@@@std@@@std@@@std@@QAE@PAVioHashString@@PBU_Container_base0@1@@Z
_TEXT	SEGMENT
__Parg$ = 8						; size = 4
__Pvector$ = 12						; size = 4
??0?$_Vector_const_iterator@V?$_Vector_val@VioHashString@@V?$allocator@VioHashString@@@std@@@std@@@std@@QAE@PAVioHashString@@PBU_Container_base0@1@@Z PROC ; std::_Vector_const_iterator<std::_Vector_val<ioHashString,std::allocator<ioHashString> > >::_Vector_const_iterator<std::_Vector_val<ioHashString,std::allocator<ioHashString> > >, COMDAT
; _this$ = ecx

; 45   : 		{	// construct with pointer _Parg

  00000	55		 push	 ebp
  00001	8b ec		 mov	 ebp, esp
  00003	8b c1		 mov	 eax, ecx
  00005	8b 4d 08	 mov	 ecx, DWORD PTR __Parg$[ebp]
  00008	89 08		 mov	 DWORD PTR [eax], ecx

; 46   : 		this->_Adopt(_Pvector);
; 47   : 		}

  0000a	5d		 pop	 ebp
  0000b	c2 08 00	 ret	 8
??0?$_Vector_const_iterator@V?$_Vector_val@VioHashString@@V?$allocator@VioHashString@@@std@@@std@@@std@@QAE@PAVioHashString@@PBU_Container_base0@1@@Z ENDP ; std::_Vector_const_iterator<std::_Vector_val<ioHashString,std::allocator<ioHashString> > >::_Vector_const_iterator<std::_Vector_val<ioHashString,std::allocator<ioHashString> > >
_TEXT	ENDS
PUBLIC	??0?$_Vector_iterator@V?$_Vector_val@VioHashString@@V?$allocator@VioHashString@@@std@@@std@@@std@@QAE@PAVioHashString@@PBU_Container_base0@1@@Z ; std::_Vector_iterator<std::_Vector_val<ioHashString,std::allocator<ioHashString> > >::_Vector_iterator<std::_Vector_val<ioHashString,std::allocator<ioHashString> > >
; Function compile flags: /Ogsp
;	COMDAT ??0?$_Vector_iterator@V?$_Vector_val@VioHashString@@V?$allocator@VioHashString@@@std@@@std@@@std@@QAE@PAVioHashString@@PBU_Container_base0@1@@Z
_TEXT	SEGMENT
__Parg$ = 8						; size = 4
__Pvector$ = 12						; size = 4
??0?$_Vector_iterator@V?$_Vector_val@VioHashString@@V?$allocator@VioHashString@@@std@@@std@@@std@@QAE@PAVioHashString@@PBU_Container_base0@1@@Z PROC ; std::_Vector_iterator<std::_Vector_val<ioHashString,std::allocator<ioHashString> > >::_Vector_iterator<std::_Vector_val<ioHashString,std::allocator<ioHashString> > >, COMDAT
; _this$ = ecx

; 304  : 		{	// construct with pointer _Parg

  00000	55		 push	 ebp
  00001	8b ec		 mov	 ebp, esp
  00003	8b c1		 mov	 eax, ecx
  00005	8b 4d 08	 mov	 ecx, DWORD PTR __Parg$[ebp]
  00008	89 08		 mov	 DWORD PTR [eax], ecx

; 305  : 		}

  0000a	5d		 pop	 ebp
  0000b	c2 08 00	 ret	 8
??0?$_Vector_iterator@V?$_Vector_val@VioHashString@@V?$allocator@VioHashString@@@std@@@std@@@std@@QAE@PAVioHashString@@PBU_Container_base0@1@@Z ENDP ; std::_Vector_iterator<std::_Vector_val<ioHashString,std::allocator<ioHashString> > >::_Vector_iterator<std::_Vector_val<ioHashString,std::allocator<ioHashString> > >
_TEXT	ENDS
PUBLIC	?max_size@?$allocator@VioHashString@@@std@@QBEIXZ ; std::allocator<ioHashString>::max_size
; Function compile flags: /Ogsp
; File c:\program files (x86)\microsoft visual studio 10.0\vc\include\xmemory
;	COMDAT ?max_size@?$allocator@VioHashString@@@std@@QBEIXZ
_TEXT	SEGMENT
?max_size@?$allocator@VioHashString@@@std@@QBEIXZ PROC	; std::allocator<ioHashString>::max_size, COMDAT
; _this$ = ecx

; 218  : 		_SIZT _Count = (_SIZT)(-1) / sizeof (_Ty);
; 219  : 		return (0 < _Count ? _Count : 1);

  00000	b8 ff ff ff 0f	 mov	 eax, 268435455		; 0fffffffH

; 220  : 		}

  00005	c3		 ret	 0
?max_size@?$allocator@VioHashString@@@std@@QBEIXZ ENDP	; std::allocator<ioHashString>::max_size
_TEXT	ENDS
PUBLIC	?_Compat@?$_Vector_const_iterator@V?$_Vector_val@VioHashString@@V?$allocator@VioHashString@@@std@@@std@@@std@@QBEXABV12@@Z ; std::_Vector_const_iterator<std::_Vector_val<ioHashString,std::allocator<ioHashString> > >::_Compat
; Function compile flags: /Ogsp
; File c:\program files (x86)\microsoft visual studio 10.0\vc\include\vector
;	COMDAT ?_Compat@?$_Vector_const_iterator@V?$_Vector_val@VioHashString@@V?$allocator@VioHashString@@@std@@@std@@@std@@QBEXABV12@@Z
_TEXT	SEGMENT
___formal$ = 8						; size = 4
?_Compat@?$_Vector_const_iterator@V?$_Vector_val@VioHashString@@V?$allocator@VioHashString@@@std@@@std@@@std@@QBEXABV12@@Z PROC ; std::_Vector_const_iterator<std::_Vector_val<ioHashString,std::allocator<ioHashString> > >::_Compat, COMDAT
; _this$ = ecx

; 253  : 		}

  00000	c2 04 00	 ret	 4
?_Compat@?$_Vector_const_iterator@V?$_Vector_val@VioHashString@@V?$allocator@VioHashString@@@std@@@std@@@std@@QBEXABV12@@Z ENDP ; std::_Vector_const_iterator<std::_Vector_val<ioHashString,std::allocator<ioHashString> > >::_Compat
_TEXT	ENDS
PUBLIC	__TI2?AVbad_alloc@std@@
PUBLIC	??$_Allocate@VioHashString@@@std@@YAPAVioHashString@@IPAV1@@Z ; std::_Allocate<ioHashString>
PUBLIC	__CTA2?AVbad_alloc@std@@
PUBLIC	__CT??_R0?AVbad_alloc@std@@@8??0bad_alloc@std@@QAE@ABV01@@Z12
PUBLIC	??0bad_alloc@std@@QAE@ABV01@@Z			; std::bad_alloc::bad_alloc
PUBLIC	__CT??_R0?AVexception@std@@@8??0exception@std@@QAE@ABV01@@Z12
EXTRN	??2@YAPAXI@Z:PROC				; operator new
EXTRN	__CxxThrowException@8:PROC
EXTRN	??0exception@std@@QAE@ABV01@@Z:PROC		; std::exception::exception
;	COMDAT __CT??_R0?AVexception@std@@@8??0exception@std@@QAE@ABV01@@Z12
; File c:\program files (x86)\microsoft visual studio 10.0\vc\include\exception
xdata$x	SEGMENT
__CT??_R0?AVexception@std@@@8??0exception@std@@QAE@ABV01@@Z12 DD 00H
	DD	FLAT:??_R0?AVexception@std@@@8
	DD	00H
	DD	0ffffffffH
	ORG $+4
	DD	0cH
	DD	FLAT:??0exception@std@@QAE@ABV01@@Z
xdata$x	ENDS
;	COMDAT __CT??_R0?AVbad_alloc@std@@@8??0bad_alloc@std@@QAE@ABV01@@Z12
xdata$x	SEGMENT
__CT??_R0?AVbad_alloc@std@@@8??0bad_alloc@std@@QAE@ABV01@@Z12 DD 00H
	DD	FLAT:??_R0?AVbad_alloc@std@@@8
	DD	00H
	DD	0ffffffffH
	ORG $+4
	DD	0cH
	DD	FLAT:??0bad_alloc@std@@QAE@ABV01@@Z
xdata$x	ENDS
;	COMDAT __CTA2?AVbad_alloc@std@@
xdata$x	SEGMENT
__CTA2?AVbad_alloc@std@@ DD 02H
	DD	FLAT:__CT??_R0?AVbad_alloc@std@@@8??0bad_alloc@std@@QAE@ABV01@@Z12
	DD	FLAT:__CT??_R0?AVexception@std@@@8??0exception@std@@QAE@ABV01@@Z12
xdata$x	ENDS
;	COMDAT __TI2?AVbad_alloc@std@@
xdata$x	SEGMENT
__TI2?AVbad_alloc@std@@ DD 00H
	DD	FLAT:??1bad_alloc@std@@UAE@XZ
	DD	00H
	DD	FLAT:__CTA2?AVbad_alloc@std@@
; Function compile flags: /Ogsp
; File c:\program files (x86)\microsoft visual studio 10.0\vc\include\xmemory
xdata$x	ENDS
;	COMDAT ??$_Allocate@VioHashString@@@std@@YAPAVioHashString@@IPAV1@@Z
_TEXT	SEGMENT
$T572184 = -12						; size = 12
$T572189 = 8						; size = 4
__Count$ = 8						; size = 4
___formal$ = 12						; size = 4
??$_Allocate@VioHashString@@@std@@YAPAVioHashString@@IPAV1@@Z PROC ; std::_Allocate<ioHashString>, COMDAT

; 30   : 	{	// allocate storage for _Count elements of type _Ty

  00000	55		 push	 ebp
  00001	8b ec		 mov	 ebp, esp

; 31   : 	void *_Ptr = 0;
; 32   : 
; 33   : 	if (_Count <= 0)

  00003	8b 4d 08	 mov	 ecx, DWORD PTR __Count$[ebp]
  00006	83 ec 0c	 sub	 esp, 12			; 0000000cH
  00009	33 c0		 xor	 eax, eax
  0000b	85 c9		 test	 ecx, ecx

; 34   : 		_Count = 0;
; 35   : 	else if (((_SIZT)(-1) / sizeof (_Ty) < _Count)

  0000d	74 3c		 je	 SHORT $LN5@Allocate

; 36   : 		|| (_Ptr = ::operator new(_Count * sizeof (_Ty))) == 0)

  0000f	81 f9 ff ff ff
	0f		 cmp	 ecx, 268435455		; 0fffffffH
  00015	77 0e		 ja	 SHORT $LN1@Allocate
  00017	c1 e1 04	 shl	 ecx, 4
  0001a	51		 push	 ecx
  0001b	e8 00 00 00 00	 call	 ??2@YAPAXI@Z		; operator new
  00020	59		 pop	 ecx
  00021	85 c0		 test	 eax, eax

; 38   : 
; 39   : 	return ((_Ty _FARQ *)_Ptr);

  00023	75 26		 jne	 SHORT $LN5@Allocate
$LN1@Allocate:

; 37   : 		_THROW_NCEE(bad_alloc, 0);

  00025	83 65 08 00	 and	 DWORD PTR $T572189[ebp], 0
  00029	8d 45 08	 lea	 eax, DWORD PTR $T572189[ebp]
  0002c	50		 push	 eax
  0002d	8d 4d f4	 lea	 ecx, DWORD PTR $T572184[ebp]
  00030	ff 15 00 00 00
	00		 call	 DWORD PTR __imp_??0exception@std@@QAE@ABQBD@Z
  00036	68 00 00 00 00	 push	 OFFSET __TI2?AVbad_alloc@std@@
  0003b	8d 45 f4	 lea	 eax, DWORD PTR $T572184[ebp]
  0003e	50		 push	 eax
  0003f	c7 45 f4 00 00
	00 00		 mov	 DWORD PTR $T572184[ebp], OFFSET ??_7bad_alloc@std@@6B@
  00046	e8 00 00 00 00	 call	 __CxxThrowException@8
$LN10@Allocate:
$LN5@Allocate:

; 40   : 	}

  0004b	c9		 leave
  0004c	c3		 ret	 0
$LN9@Allocate:
??$_Allocate@VioHashString@@@std@@YAPAVioHashString@@IPAV1@@Z ENDP ; std::_Allocate<ioHashString>
_TEXT	ENDS
EXTRN	__imp_??0exception@std@@QAE@ABV01@@Z:PROC
; Function compile flags: /Ogsp
;	COMDAT ??0bad_alloc@std@@QAE@ABV01@@Z
_TEXT	SEGMENT
___that$ = 8						; size = 4
??0bad_alloc@std@@QAE@ABV01@@Z PROC			; std::bad_alloc::bad_alloc, COMDAT
; _this$ = ecx
  00000	55		 push	 ebp
  00001	8b ec		 mov	 ebp, esp
  00003	56		 push	 esi
  00004	ff 75 08	 push	 DWORD PTR ___that$[ebp]
  00007	8b f1		 mov	 esi, ecx
  00009	ff 15 00 00 00
	00		 call	 DWORD PTR __imp_??0exception@std@@QAE@ABV01@@Z
  0000f	c7 06 00 00 00
	00		 mov	 DWORD PTR [esi], OFFSET ??_7bad_alloc@std@@6B@
  00015	8b c6		 mov	 eax, esi
  00017	5e		 pop	 esi
  00018	5d		 pop	 ebp
  00019	c2 04 00	 ret	 4
??0bad_alloc@std@@QAE@ABV01@@Z ENDP			; std::bad_alloc::bad_alloc
_TEXT	ENDS
PUBLIC	??$forward@ABVioHashString@@@std@@YAABVioHashString@@ABV1@@Z ; std::forward<ioHashString const &>
; Function compile flags: /Ogsp
; File c:\program files (x86)\microsoft visual studio 10.0\vc\include\utility
;	COMDAT ??$forward@ABVioHashString@@@std@@YAABVioHashString@@ABV1@@Z
_TEXT	SEGMENT
__Arg$ = 8						; size = 4
??$forward@ABVioHashString@@@std@@YAABVioHashString@@ABV1@@Z PROC ; std::forward<ioHashString const &>, COMDAT

; 78   : 	{	// forward _Arg, given explicitly specified type parameter

  00000	55		 push	 ebp
  00001	8b ec		 mov	 ebp, esp

; 79   : 	return ((_Ty&&)_Arg);

  00003	8b 45 08	 mov	 eax, DWORD PTR __Arg$[ebp]

; 80   : 	}

  00006	5d		 pop	 ebp
  00007	c3		 ret	 0
??$forward@ABVioHashString@@@std@@YAABVioHashString@@ABV1@@Z ENDP ; std::forward<ioHashString const &>
_TEXT	ENDS
PUBLIC	??$forward@AAVioHashString@@@std@@YAAAVioHashString@@AAV1@@Z ; std::forward<ioHashString &>
; Function compile flags: /Ogsp
;	COMDAT ??$forward@AAVioHashString@@@std@@YAAAVioHashString@@AAV1@@Z
_TEXT	SEGMENT
__Arg$ = 8						; size = 4
??$forward@AAVioHashString@@@std@@YAAAVioHashString@@AAV1@@Z PROC ; std::forward<ioHashString &>, COMDAT

; 78   : 	{	// forward _Arg, given explicitly specified type parameter

  00000	55		 push	 ebp
  00001	8b ec		 mov	 ebp, esp

; 79   : 	return ((_Ty&&)_Arg);

  00003	8b 45 08	 mov	 eax, DWORD PTR __Arg$[ebp]

; 80   : 	}

  00006	5d		 pop	 ebp
  00007	c3		 ret	 0
??$forward@AAVioHashString@@@std@@YAAAVioHashString@@AAV1@@Z ENDP ; std::forward<ioHashString &>
_TEXT	ENDS
PUBLIC	??$_Ptr_cat@VioHashString@@V1@@std@@YA?AU_Nonscalar_ptr_iterator_tag@0@PAVioHashString@@0@Z ; std::_Ptr_cat<ioHashString,ioHashString>
; Function compile flags: /Ogsp
; File c:\program files (x86)\microsoft visual studio 10.0\vc\include\xutility
;	COMDAT ??$_Ptr_cat@VioHashString@@V1@@std@@YA?AU_Nonscalar_ptr_iterator_tag@0@PAVioHashString@@0@Z
_TEXT	SEGMENT
__Cat$ = -1						; size = 1
___formal$ = 8						; size = 4
___formal$ = 12						; size = 4
??$_Ptr_cat@VioHashString@@V1@@std@@YA?AU_Nonscalar_ptr_iterator_tag@0@PAVioHashString@@0@Z PROC ; std::_Ptr_cat<ioHashString,ioHashString>, COMDAT

; 516  : 	{	// return pointer category from pointers

  00000	55		 push	 ebp
  00001	8b ec		 mov	 ebp, esp
  00003	51		 push	 ecx

; 517  : 	typename _Ptr_cat_helper<_Elem1, _Elem2>::_Type _Cat;
; 518  : 	return (_Cat);

  00004	8a 45 ff	 mov	 al, BYTE PTR __Cat$[ebp]

; 519  : 	}

  00007	c9		 leave
  00008	c3		 ret	 0
??$_Ptr_cat@VioHashString@@V1@@std@@YA?AU_Nonscalar_ptr_iterator_tag@0@PAVioHashString@@0@Z ENDP ; std::_Ptr_cat<ioHashString,ioHashString>
_TEXT	ENDS
PUBLIC	??$_Ptr_cat@UWeaponInfo@@U1@@std@@YA?AU_Nonscalar_ptr_iterator_tag@0@PAUWeaponInfo@@0@Z ; std::_Ptr_cat<WeaponInfo,WeaponInfo>
; Function compile flags: /Ogsp
;	COMDAT ??$_Ptr_cat@UWeaponInfo@@U1@@std@@YA?AU_Nonscalar_ptr_iterator_tag@0@PAUWeaponInfo@@0@Z
_TEXT	SEGMENT
__Cat$ = -1						; size = 1
___formal$ = 8						; size = 4
___formal$ = 12						; size = 4
??$_Ptr_cat@UWeaponInfo@@U1@@std@@YA?AU_Nonscalar_ptr_iterator_tag@0@PAUWeaponInfo@@0@Z PROC ; std::_Ptr_cat<WeaponInfo,WeaponInfo>, COMDAT

; 516  : 	{	// return pointer category from pointers

  00000	55		 push	 ebp
  00001	8b ec		 mov	 ebp, esp
  00003	51		 push	 ecx

; 517  : 	typename _Ptr_cat_helper<_Elem1, _Elem2>::_Type _Cat;
; 518  : 	return (_Cat);

  00004	8a 45 ff	 mov	 al, BYTE PTR __Cat$[ebp]

; 519  : 	}

  00007	c9		 leave
  00008	c3		 ret	 0
??$_Ptr_cat@UWeaponInfo@@U1@@std@@YA?AU_Nonscalar_ptr_iterator_tag@0@PAUWeaponInfo@@0@Z ENDP ; std::_Ptr_cat<WeaponInfo,WeaponInfo>
_TEXT	ENDS
PUBLIC	?capacity@?$vector@UWeaponInfo@@V?$allocator@UWeaponInfo@@@std@@@std@@QBEIXZ ; std::vector<WeaponInfo,std::allocator<WeaponInfo> >::capacity
; Function compile flags: /Ogsp
; File c:\program files (x86)\microsoft visual studio 10.0\vc\include\vector
;	COMDAT ?capacity@?$vector@UWeaponInfo@@V?$allocator@UWeaponInfo@@@std@@@std@@QBEIXZ
_TEXT	SEGMENT
?capacity@?$vector@UWeaponInfo@@V?$allocator@UWeaponInfo@@@std@@@std@@QBEIXZ PROC ; std::vector<WeaponInfo,std::allocator<WeaponInfo> >::capacity, COMDAT
; _this$ = ecx

; 777  : 		return (this->_Myend - this->_Myfirst);

  00000	8b 41 08	 mov	 eax, DWORD PTR [ecx+8]
  00003	2b 01		 sub	 eax, DWORD PTR [ecx]
  00005	6a 28		 push	 40			; 00000028H
  00007	99		 cdq
  00008	59		 pop	 ecx
  00009	f7 f9		 idiv	 ecx

; 778  : 		}

  0000b	c3		 ret	 0
?capacity@?$vector@UWeaponInfo@@V?$allocator@UWeaponInfo@@@std@@@std@@QBEIXZ ENDP ; std::vector<WeaponInfo,std::allocator<WeaponInfo> >::capacity
_TEXT	ENDS
PUBLIC	?size@?$vector@UWeaponInfo@@V?$allocator@UWeaponInfo@@@std@@@std@@QBEIXZ ; std::vector<WeaponInfo,std::allocator<WeaponInfo> >::size
; Function compile flags: /Ogsp
;	COMDAT ?size@?$vector@UWeaponInfo@@V?$allocator@UWeaponInfo@@@std@@@std@@QBEIXZ
_TEXT	SEGMENT
?size@?$vector@UWeaponInfo@@V?$allocator@UWeaponInfo@@@std@@@std@@QBEIXZ PROC ; std::vector<WeaponInfo,std::allocator<WeaponInfo> >::size, COMDAT
; _this$ = ecx

; 879  : 		return (this->_Mylast - this->_Myfirst);

  00000	8b 41 04	 mov	 eax, DWORD PTR [ecx+4]
  00003	2b 01		 sub	 eax, DWORD PTR [ecx]
  00005	6a 28		 push	 40			; 00000028H
  00007	99		 cdq
  00008	59		 pop	 ecx
  00009	f7 f9		 idiv	 ecx

; 880  : 		}

  0000b	c3		 ret	 0
?size@?$vector@UWeaponInfo@@V?$allocator@UWeaponInfo@@@std@@@std@@QBEIXZ ENDP ; std::vector<WeaponInfo,std::allocator<WeaponInfo> >::size
_TEXT	ENDS
PUBLIC	?_Xlen@?$vector@UWeaponInfo@@V?$allocator@UWeaponInfo@@@std@@@std@@IBEXXZ ; std::vector<WeaponInfo,std::allocator<WeaponInfo> >::_Xlen
; Function compile flags: /Ogsp
;	COMDAT ?_Xlen@?$vector@UWeaponInfo@@V?$allocator@UWeaponInfo@@@std@@@std@@IBEXXZ
_TEXT	SEGMENT
?_Xlen@?$vector@UWeaponInfo@@V?$allocator@UWeaponInfo@@@std@@@std@@IBEXXZ PROC ; std::vector<WeaponInfo,std::allocator<WeaponInfo> >::_Xlen, COMDAT
; _this$ = ecx

; 1427 : 		_Xlength_error("vector<T> too long");

  00000	68 00 00 00 00	 push	 OFFSET ??_C@_0BD@OLBABOEK@vector?$DMT?$DO?5too?5long?$AA@
  00005	ff 15 00 00 00
	00		 call	 DWORD PTR __imp_?_Xlength_error@std@@YAXPBD@Z
$LN4@Xlen@2:
$LN3@Xlen@2:
  0000b	cc		 int	 3
?_Xlen@?$vector@UWeaponInfo@@V?$allocator@UWeaponInfo@@@std@@@std@@IBEXXZ ENDP ; std::vector<WeaponInfo,std::allocator<WeaponInfo> >::_Xlen
_TEXT	ENDS
PUBLIC	?max_size@?$allocator@UWeaponInfo@@@std@@QBEIXZ	; std::allocator<WeaponInfo>::max_size
; Function compile flags: /Ogsp
; File c:\program files (x86)\microsoft visual studio 10.0\vc\include\xmemory
;	COMDAT ?max_size@?$allocator@UWeaponInfo@@@std@@QBEIXZ
_TEXT	SEGMENT
?max_size@?$allocator@UWeaponInfo@@@std@@QBEIXZ PROC	; std::allocator<WeaponInfo>::max_size, COMDAT
; _this$ = ecx

; 218  : 		_SIZT _Count = (_SIZT)(-1) / sizeof (_Ty);
; 219  : 		return (0 < _Count ? _Count : 1);

  00000	b8 66 66 66 06	 mov	 eax, 107374182		; 06666666H

; 220  : 		}

  00005	c3		 ret	 0
?max_size@?$allocator@UWeaponInfo@@@std@@QBEIXZ ENDP	; std::allocator<WeaponInfo>::max_size
_TEXT	ENDS
PUBLIC	??0?$_Vector_const_iterator@V?$_Vector_val@UWeaponInfo@@V?$allocator@UWeaponInfo@@@std@@@std@@@std@@QAE@PAUWeaponInfo@@PBU_Container_base0@1@@Z ; std::_Vector_const_iterator<std::_Vector_val<WeaponInfo,std::allocator<WeaponInfo> > >::_Vector_const_iterator<std::_Vector_val<WeaponInfo,std::allocator<WeaponInfo> > >
; Function compile flags: /Ogsp
; File c:\program files (x86)\microsoft visual studio 10.0\vc\include\vector
;	COMDAT ??0?$_Vector_const_iterator@V?$_Vector_val@UWeaponInfo@@V?$allocator@UWeaponInfo@@@std@@@std@@@std@@QAE@PAUWeaponInfo@@PBU_Container_base0@1@@Z
_TEXT	SEGMENT
__Parg$ = 8						; size = 4
__Pvector$ = 12						; size = 4
??0?$_Vector_const_iterator@V?$_Vector_val@UWeaponInfo@@V?$allocator@UWeaponInfo@@@std@@@std@@@std@@QAE@PAUWeaponInfo@@PBU_Container_base0@1@@Z PROC ; std::_Vector_const_iterator<std::_Vector_val<WeaponInfo,std::allocator<WeaponInfo> > >::_Vector_const_iterator<std::_Vector_val<WeaponInfo,std::allocator<WeaponInfo> > >, COMDAT
; _this$ = ecx

; 45   : 		{	// construct with pointer _Parg

  00000	55		 push	 ebp
  00001	8b ec		 mov	 ebp, esp
  00003	8b c1		 mov	 eax, ecx
  00005	8b 4d 08	 mov	 ecx, DWORD PTR __Parg$[ebp]
  00008	89 08		 mov	 DWORD PTR [eax], ecx

; 46   : 		this->_Adopt(_Pvector);
; 47   : 		}

  0000a	5d		 pop	 ebp
  0000b	c2 08 00	 ret	 8
??0?$_Vector_const_iterator@V?$_Vector_val@UWeaponInfo@@V?$allocator@UWeaponInfo@@@std@@@std@@@std@@QAE@PAUWeaponInfo@@PBU_Container_base0@1@@Z ENDP ; std::_Vector_const_iterator<std::_Vector_val<WeaponInfo,std::allocator<WeaponInfo> > >::_Vector_const_iterator<std::_Vector_val<WeaponInfo,std::allocator<WeaponInfo> > >
_TEXT	ENDS
PUBLIC	?_Compat@?$_Vector_const_iterator@V?$_Vector_val@UWeaponInfo@@V?$allocator@UWeaponInfo@@@std@@@std@@@std@@QBEXABV12@@Z ; std::_Vector_const_iterator<std::_Vector_val<WeaponInfo,std::allocator<WeaponInfo> > >::_Compat
; Function compile flags: /Ogsp
;	COMDAT ?_Compat@?$_Vector_const_iterator@V?$_Vector_val@UWeaponInfo@@V?$allocator@UWeaponInfo@@@std@@@std@@@std@@QBEXABV12@@Z
_TEXT	SEGMENT
___formal$ = 8						; size = 4
?_Compat@?$_Vector_const_iterator@V?$_Vector_val@UWeaponInfo@@V?$allocator@UWeaponInfo@@@std@@@std@@@std@@QBEXABV12@@Z PROC ; std::_Vector_const_iterator<std::_Vector_val<WeaponInfo,std::allocator<WeaponInfo> > >::_Compat, COMDAT
; _this$ = ecx

; 253  : 		}

  00000	c2 04 00	 ret	 4
?_Compat@?$_Vector_const_iterator@V?$_Vector_val@UWeaponInfo@@V?$allocator@UWeaponInfo@@@std@@@std@@@std@@QBEXABV12@@Z ENDP ; std::_Vector_const_iterator<std::_Vector_val<WeaponInfo,std::allocator<WeaponInfo> > >::_Compat
_TEXT	ENDS
PUBLIC	??$move@AAVioHashString@@@std@@YA$$QAVioHashString@@AAV1@@Z ; std::move<ioHashString &>
; Function compile flags: /Ogsp
; File c:\program files (x86)\microsoft visual studio 10.0\vc\include\utility
;	COMDAT ??$move@AAVioHashString@@@std@@YA$$QAVioHashString@@AAV1@@Z
_TEXT	SEGMENT
__Arg$ = 8						; size = 4
??$move@AAVioHashString@@@std@@YA$$QAVioHashString@@AAV1@@Z PROC ; std::move<ioHashString &>, COMDAT

; 86   : 	{	// forward _Arg as movable

  00000	55		 push	 ebp
  00001	8b ec		 mov	 ebp, esp

; 87   : 	return ((typename tr1::_Remove_reference<_Ty>::_Type&&)_Arg);

  00003	8b 45 08	 mov	 eax, DWORD PTR __Arg$[ebp]

; 88   : 	}

  00006	5d		 pop	 ebp
  00007	c3		 ret	 0
??$move@AAVioHashString@@@std@@YA$$QAVioHashString@@AAV1@@Z ENDP ; std::move<ioHashString &>
_TEXT	ENDS
PUBLIC	??$_Allocate@UWeaponInfo@@@std@@YAPAUWeaponInfo@@IPAU1@@Z ; std::_Allocate<WeaponInfo>
; Function compile flags: /Ogsp
; File c:\program files (x86)\microsoft visual studio 10.0\vc\include\xmemory
;	COMDAT ??$_Allocate@UWeaponInfo@@@std@@YAPAUWeaponInfo@@IPAU1@@Z
_TEXT	SEGMENT
$T572231 = -12						; size = 12
$T572235 = 8						; size = 4
__Count$ = 8						; size = 4
___formal$ = 12						; size = 4
??$_Allocate@UWeaponInfo@@@std@@YAPAUWeaponInfo@@IPAU1@@Z PROC ; std::_Allocate<WeaponInfo>, COMDAT

; 30   : 	{	// allocate storage for _Count elements of type _Ty

  00000	55		 push	 ebp
  00001	8b ec		 mov	 ebp, esp

; 31   : 	void *_Ptr = 0;
; 32   : 
; 33   : 	if (_Count <= 0)

  00003	8b 4d 08	 mov	 ecx, DWORD PTR __Count$[ebp]
  00006	83 ec 0c	 sub	 esp, 12			; 0000000cH
  00009	33 c0		 xor	 eax, eax
  0000b	85 c9		 test	 ecx, ecx

; 34   : 		_Count = 0;
; 35   : 	else if (((_SIZT)(-1) / sizeof (_Ty) < _Count)

  0000d	74 3c		 je	 SHORT $LN5@Allocate@2

; 36   : 		|| (_Ptr = ::operator new(_Count * sizeof (_Ty))) == 0)

  0000f	81 f9 66 66 66
	06		 cmp	 ecx, 107374182		; 06666666H
  00015	77 0e		 ja	 SHORT $LN1@Allocate@2
  00017	6b c9 28	 imul	 ecx, 40			; 00000028H
  0001a	51		 push	 ecx
  0001b	e8 00 00 00 00	 call	 ??2@YAPAXI@Z		; operator new
  00020	59		 pop	 ecx
  00021	85 c0		 test	 eax, eax

; 38   : 
; 39   : 	return ((_Ty _FARQ *)_Ptr);

  00023	75 26		 jne	 SHORT $LN5@Allocate@2
$LN1@Allocate@2:

; 37   : 		_THROW_NCEE(bad_alloc, 0);

  00025	83 65 08 00	 and	 DWORD PTR $T572235[ebp], 0
  00029	8d 45 08	 lea	 eax, DWORD PTR $T572235[ebp]
  0002c	50		 push	 eax
  0002d	8d 4d f4	 lea	 ecx, DWORD PTR $T572231[ebp]
  00030	ff 15 00 00 00
	00		 call	 DWORD PTR __imp_??0exception@std@@QAE@ABQBD@Z
  00036	68 00 00 00 00	 push	 OFFSET __TI2?AVbad_alloc@std@@
  0003b	8d 45 f4	 lea	 eax, DWORD PTR $T572231[ebp]
  0003e	50		 push	 eax
  0003f	c7 45 f4 00 00
	00 00		 mov	 DWORD PTR $T572231[ebp], OFFSET ??_7bad_alloc@std@@6B@
  00046	e8 00 00 00 00	 call	 __CxxThrowException@8
$LN10@Allocate@2:
$LN5@Allocate@2:

; 40   : 	}

  0004b	c9		 leave
  0004c	c3		 ret	 0
$LN9@Allocate@2:
??$_Allocate@UWeaponInfo@@@std@@YAPAUWeaponInfo@@IPAU1@@Z ENDP ; std::_Allocate<WeaponInfo>
_TEXT	ENDS
PUBLIC	??D?$_Vector_const_iterator@V?$_Vector_val@VioHashString@@V?$allocator@VioHashString@@@std@@@std@@@std@@QBEABVioHashString@@XZ ; std::_Vector_const_iterator<std::_Vector_val<ioHashString,std::allocator<ioHashString> > >::operator*
; Function compile flags: /Ogsp
; File c:\program files (x86)\microsoft visual studio 10.0\vc\include\vector
;	COMDAT ??D?$_Vector_const_iterator@V?$_Vector_val@VioHashString@@V?$allocator@VioHashString@@@std@@@std@@@std@@QBEABVioHashString@@XZ
_TEXT	SEGMENT
??D?$_Vector_const_iterator@V?$_Vector_val@VioHashString@@V?$allocator@VioHashString@@@std@@@std@@@std@@QBEABVioHashString@@XZ PROC ; std::_Vector_const_iterator<std::_Vector_val<ioHashString,std::allocator<ioHashString> > >::operator*, COMDAT
; _this$ = ecx

; 64   :  #if _ITERATOR_DEBUG_LEVEL == 2
; 65   : 		if (this->_Getcont() == 0
; 66   : 			|| this->_Ptr == 0
; 67   : 			|| this->_Ptr < ((_Myvec *)this->_Getcont())->_Myfirst
; 68   : 			|| ((_Myvec *)this->_Getcont())->_Mylast <= this->_Ptr)
; 69   : 			{	// report error
; 70   : 			_DEBUG_ERROR("vector iterator not dereferencable");
; 71   : 			_SCL_SECURE_OUT_OF_RANGE;
; 72   : 			}
; 73   : 
; 74   :  #elif _ITERATOR_DEBUG_LEVEL == 1
; 75   : 		_SCL_SECURE_VALIDATE(this->_Getcont() != 0);
; 76   : 		_SCL_SECURE_VALIDATE_RANGE(
; 77   : 			this->_Ptr != 0
; 78   : 			&& ((_Myvec *)this->_Getcont())->_Myfirst <= this->_Ptr
; 79   : 			&& this->_Ptr < ((_Myvec *)this->_Getcont())->_Mylast);
; 80   :  #endif /* _ITERATOR_DEBUG_LEVEL */
; 81   : 
; 82   : 		__analysis_assume(this->_Ptr != 0);
; 83   : 
; 84   : 		return (*this->_Ptr);

  00000	8b 01		 mov	 eax, DWORD PTR [ecx]

; 85   : 		}

  00002	c3		 ret	 0
??D?$_Vector_const_iterator@V?$_Vector_val@VioHashString@@V?$allocator@VioHashString@@@std@@@std@@@std@@QBEABVioHashString@@XZ ENDP ; std::_Vector_const_iterator<std::_Vector_val<ioHashString,std::allocator<ioHashString> > >::operator*
_TEXT	ENDS
PUBLIC	??E?$_Vector_const_iterator@V?$_Vector_val@VioHashString@@V?$allocator@VioHashString@@@std@@@std@@@std@@QAEAAV01@XZ ; std::_Vector_const_iterator<std::_Vector_val<ioHashString,std::allocator<ioHashString> > >::operator++
; Function compile flags: /Ogsp
;	COMDAT ??E?$_Vector_const_iterator@V?$_Vector_val@VioHashString@@V?$allocator@VioHashString@@@std@@@std@@@std@@QAEAAV01@XZ
_TEXT	SEGMENT
??E?$_Vector_const_iterator@V?$_Vector_val@VioHashString@@V?$allocator@VioHashString@@@std@@@std@@@std@@QAEAAV01@XZ PROC ; std::_Vector_const_iterator<std::_Vector_val<ioHashString,std::allocator<ioHashString> > >::operator++, COMDAT
; _this$ = ecx

; 93   : 		{	// preincrement

  00000	8b c1		 mov	 eax, ecx

; 94   :  #if _ITERATOR_DEBUG_LEVEL == 2
; 95   : 		if (this->_Getcont() == 0
; 96   : 			|| this->_Ptr == 0
; 97   : 			|| ((_Myvec *)this->_Getcont())->_Mylast <= this->_Ptr)
; 98   : 			{	// report error
; 99   : 			_DEBUG_ERROR("vector iterator not incrementable");
; 100  : 			_SCL_SECURE_OUT_OF_RANGE;
; 101  : 			}
; 102  : 
; 103  :  #elif _ITERATOR_DEBUG_LEVEL == 1
; 104  : 		_SCL_SECURE_VALIDATE(this->_Getcont() != 0);
; 105  : 		_SCL_SECURE_VALIDATE_RANGE(
; 106  : 			this->_Ptr != 0
; 107  : 			&& this->_Ptr < ((_Myvec *)this->_Getcont())->_Mylast);
; 108  :  #endif /* _ITERATOR_DEBUG_LEVEL */
; 109  : 
; 110  : 		++this->_Ptr;

  00002	83 00 10	 add	 DWORD PTR [eax], 16	; 00000010H

; 111  : 		return (*this);
; 112  : 		}

  00005	c3		 ret	 0
??E?$_Vector_const_iterator@V?$_Vector_val@VioHashString@@V?$allocator@VioHashString@@@std@@@std@@@std@@QAEAAV01@XZ ENDP ; std::_Vector_const_iterator<std::_Vector_val<ioHashString,std::allocator<ioHashString> > >::operator++
_TEXT	ENDS
PUBLIC	??4WeaponInfo@@QAEAAU0@ABU0@@Z			; WeaponInfo::operator=
EXTRN	__imp_??4ioHashString@@QAEAAV0@ABV0@@Z:PROC
; Function compile flags: /Ogsp
;	COMDAT ??4WeaponInfo@@QAEAAU0@ABU0@@Z
_TEXT	SEGMENT
___that$ = 8						; size = 4
??4WeaponInfo@@QAEAAU0@ABU0@@Z PROC			; WeaponInfo::operator=, COMDAT
; _this$ = ecx
  00000	55		 push	 ebp
  00001	8b ec		 mov	 ebp, esp
  00003	56		 push	 esi
  00004	57		 push	 edi
  00005	8b 7d 08	 mov	 edi, DWORD PTR ___that$[ebp]
  00008	8b 07		 mov	 eax, DWORD PTR [edi]
  0000a	8b f1		 mov	 esi, ecx
  0000c	89 06		 mov	 DWORD PTR [esi], eax
  0000e	8b 47 04	 mov	 eax, DWORD PTR [edi+4]
  00011	89 46 04	 mov	 DWORD PTR [esi+4], eax
  00014	8d 47 08	 lea	 eax, DWORD PTR [edi+8]
  00017	50		 push	 eax
  00018	8d 4e 08	 lea	 ecx, DWORD PTR [esi+8]
  0001b	ff 15 00 00 00
	00		 call	 DWORD PTR __imp_??4ioHashString@@QAEAAV0@ABV0@@Z
  00021	8b 47 18	 mov	 eax, DWORD PTR [edi+24]
  00024	89 46 18	 mov	 DWORD PTR [esi+24], eax
  00027	8b 47 1c	 mov	 eax, DWORD PTR [edi+28]
  0002a	89 46 1c	 mov	 DWORD PTR [esi+28], eax
  0002d	8a 47 20	 mov	 al, BYTE PTR [edi+32]
  00030	88 46 20	 mov	 BYTE PTR [esi+32], al
  00033	8b 47 24	 mov	 eax, DWORD PTR [edi+36]
  00036	89 46 24	 mov	 DWORD PTR [esi+36], eax
  00039	5f		 pop	 edi
  0003a	8b c6		 mov	 eax, esi
  0003c	5e		 pop	 esi
  0003d	5d		 pop	 ebp
  0003e	c2 04 00	 ret	 4
??4WeaponInfo@@QAEAAU0@ABU0@@Z ENDP			; WeaponInfo::operator=
_TEXT	ENDS
PUBLIC	??_GioHashString@@QAEPAXI@Z			; ioHashString::`scalar deleting destructor'
; Function compile flags: /Ogsp
;	COMDAT ??_GioHashString@@QAEPAXI@Z
_TEXT	SEGMENT
___flags$ = 8						; size = 4
??_GioHashString@@QAEPAXI@Z PROC			; ioHashString::`scalar deleting destructor', COMDAT
; _this$ = ecx
  00000	55		 push	 ebp
  00001	8b ec		 mov	 ebp, esp
  00003	56		 push	 esi
  00004	8b f1		 mov	 esi, ecx
  00006	ff 15 00 00 00
	00		 call	 DWORD PTR __imp_??1ioHashString@@QAE@XZ
  0000c	f6 45 08 01	 test	 BYTE PTR ___flags$[ebp], 1
  00010	74 07		 je	 SHORT $LN1@scalar@4
  00012	56		 push	 esi
  00013	e8 00 00 00 00	 call	 ??3@YAXPAX@Z		; operator delete
  00018	59		 pop	 ecx
$LN1@scalar@4:
  00019	8b c6		 mov	 eax, esi
  0001b	5e		 pop	 esi
  0001c	5d		 pop	 ebp
  0001d	c2 04 00	 ret	 4
??_GioHashString@@QAEPAXI@Z ENDP			; ioHashString::`scalar deleting destructor'
_TEXT	ENDS
PUBLIC	??_GWeaponInfo@@QAEPAXI@Z			; WeaponInfo::`scalar deleting destructor'
; Function compile flags: /Ogsp
;	COMDAT ??_GWeaponInfo@@QAEPAXI@Z
_TEXT	SEGMENT
___flags$ = 8						; size = 4
??_GWeaponInfo@@QAEPAXI@Z PROC				; WeaponInfo::`scalar deleting destructor', COMDAT
; _this$ = ecx
  00000	55		 push	 ebp
  00001	8b ec		 mov	 ebp, esp
  00003	56		 push	 esi
  00004	8b f1		 mov	 esi, ecx
  00006	8d 4e 08	 lea	 ecx, DWORD PTR [esi+8]
  00009	ff 15 00 00 00
	00		 call	 DWORD PTR __imp_??1ioHashString@@QAE@XZ
  0000f	f6 45 08 01	 test	 BYTE PTR ___flags$[ebp], 1
  00013	74 07		 je	 SHORT $LN1@scalar@5
  00015	56		 push	 esi
  00016	e8 00 00 00 00	 call	 ??3@YAXPAX@Z		; operator delete
  0001b	59		 pop	 ecx
$LN1@scalar@5:
  0001c	8b c6		 mov	 eax, esi
  0001e	5e		 pop	 esi
  0001f	5d		 pop	 ebp
  00020	c2 04 00	 ret	 4
??_GWeaponInfo@@QAEPAXI@Z ENDP				; WeaponInfo::`scalar deleting destructor'
_TEXT	ENDS
PUBLIC	??$move@AAUWeaponInfo@@@std@@YA$$QAUWeaponInfo@@AAU1@@Z ; std::move<WeaponInfo &>
; Function compile flags: /Ogsp
; File c:\program files (x86)\microsoft visual studio 10.0\vc\include\utility
;	COMDAT ??$move@AAUWeaponInfo@@@std@@YA$$QAUWeaponInfo@@AAU1@@Z
_TEXT	SEGMENT
__Arg$ = 8						; size = 4
??$move@AAUWeaponInfo@@@std@@YA$$QAUWeaponInfo@@AAU1@@Z PROC ; std::move<WeaponInfo &>, COMDAT

; 86   : 	{	// forward _Arg as movable

  00000	55		 push	 ebp
  00001	8b ec		 mov	 ebp, esp

; 87   : 	return ((typename tr1::_Remove_reference<_Ty>::_Type&&)_Arg);

  00003	8b 45 08	 mov	 eax, DWORD PTR __Arg$[ebp]

; 88   : 	}

  00006	5d		 pop	 ebp
  00007	c3		 ret	 0
??$move@AAUWeaponInfo@@@std@@YA$$QAUWeaponInfo@@AAU1@@Z ENDP ; std::move<WeaponInfo &>
_TEXT	ENDS
PUBLIC	??$_Construct@VioHashString@@ABV1@@std@@YAXPAVioHashString@@ABV1@@Z ; std::_Construct<ioHashString,ioHashString const &>
EXTRN	__imp_??0ioHashString@@QAE@ABV0@@Z:PROC
;	COMDAT xdata$x
xdata$x	SEGMENT
__unwindtable$??$_Construct@VioHashString@@ABV1@@std@@YAXPAVioHashString@@ABV1@@Z DD 0ffffffffH
	DD	FLAT:__unwindfunclet$??$_Construct@VioHashString@@ABV1@@std@@YAXPAVioHashString@@ABV1@@Z$0
__ehfuncinfo$??$_Construct@VioHashString@@ABV1@@std@@YAXPAVioHashString@@ABV1@@Z DD 019930522H
	DD	01H
	DD	FLAT:__unwindtable$??$_Construct@VioHashString@@ABV1@@std@@YAXPAVioHashString@@ABV1@@Z
	DD	2 DUP(00H)
	DD	2 DUP(00H)
	DD	00H
	DD	01H
; Function compile flags: /Ogsp
; File c:\program files (x86)\microsoft visual studio 10.0\vc\include\xmemory
xdata$x	ENDS
;	COMDAT ??$_Construct@VioHashString@@ABV1@@std@@YAXPAVioHashString@@ABV1@@Z
_TEXT	SEGMENT
$T572259 = -16						; size = 4
__$EHRec$ = -12						; size = 12
__Vptr$ = 8						; size = 4
__Ptr$ = 8						; size = 4
__Val$ = 12						; size = 4
??$_Construct@VioHashString@@ABV1@@std@@YAXPAVioHashString@@ABV1@@Z PROC ; std::_Construct<ioHashString,ioHashString const &>, COMDAT

; 46   : 	{	// construct object at _Ptr with value _Val

  00000	6a 04		 push	 4
  00002	b8 00 00 00 00	 mov	 eax, __ehhandler$??$_Construct@VioHashString@@ABV1@@std@@YAXPAVioHashString@@ABV1@@Z
  00007	e8 00 00 00 00	 call	 __EH_prolog3

; 47   : 	void _FARQ *_Vptr = _Ptr;

  0000c	8b 4d 08	 mov	 ecx, DWORD PTR __Ptr$[ebp]
  0000f	89 4d 08	 mov	 DWORD PTR __Vptr$[ebp], ecx

; 48   : 	::new (_Vptr) _Ty1(_STD forward<_Ty2>(_Val));

  00012	89 4d f0	 mov	 DWORD PTR $T572259[ebp], ecx
  00015	83 65 fc 00	 and	 DWORD PTR __$EHRec$[ebp+8], 0
  00019	85 c9		 test	 ecx, ecx
  0001b	74 09		 je	 SHORT $LN3@Construct
  0001d	ff 75 0c	 push	 DWORD PTR __Val$[ebp]
  00020	ff 15 00 00 00
	00		 call	 DWORD PTR __imp_??0ioHashString@@QAE@ABV0@@Z
$LN3@Construct:

; 49   : 	}

  00026	e8 00 00 00 00	 call	 __EH_epilog3
  0002b	c3		 ret	 0
_TEXT	ENDS
;	COMDAT text$x
text$x	SEGMENT
__unwindfunclet$??$_Construct@VioHashString@@ABV1@@std@@YAXPAVioHashString@@ABV1@@Z$0:
  00000	ff 75 08	 push	 DWORD PTR __Vptr$[ebp]
  00003	ff 75 f0	 push	 DWORD PTR $T572259[ebp]
  00006	e8 00 00 00 00	 call	 ??3@YAXPAX0@Z		; operator delete
  0000b	59		 pop	 ecx
  0000c	59		 pop	 ecx
  0000d	c3		 ret	 0
__ehhandler$??$_Construct@VioHashString@@ABV1@@std@@YAXPAVioHashString@@ABV1@@Z:
  0000e	8b 54 24 08	 mov	 edx, DWORD PTR [esp+8]
  00012	8d 42 0c	 lea	 eax, DWORD PTR [edx+12]
  00015	8b 4a ec	 mov	 ecx, DWORD PTR [edx-20]
  00018	33 c8		 xor	 ecx, eax
  0001a	e8 00 00 00 00	 call	 @__security_check_cookie@4
  0001f	b8 00 00 00 00	 mov	 eax, OFFSET __ehfuncinfo$??$_Construct@VioHashString@@ABV1@@std@@YAXPAVioHashString@@ABV1@@Z
  00024	e9 00 00 00 00	 jmp	 ___CxxFrameHandler3
text$x	ENDS
??$_Construct@VioHashString@@ABV1@@std@@YAXPAVioHashString@@ABV1@@Z ENDP ; std::_Construct<ioHashString,ioHashString const &>
PUBLIC	??$forward@AAUWeaponInfo@@@std@@YAAAUWeaponInfo@@AAU1@@Z ; std::forward<WeaponInfo &>
; Function compile flags: /Ogsp
; File c:\program files (x86)\microsoft visual studio 10.0\vc\include\utility
;	COMDAT ??$forward@AAUWeaponInfo@@@std@@YAAAUWeaponInfo@@AAU1@@Z
_TEXT	SEGMENT
__Arg$ = 8						; size = 4
??$forward@AAUWeaponInfo@@@std@@YAAAUWeaponInfo@@AAU1@@Z PROC ; std::forward<WeaponInfo &>, COMDAT

; 78   : 	{	// forward _Arg, given explicitly specified type parameter

  00000	55		 push	 ebp
  00001	8b ec		 mov	 ebp, esp

; 79   : 	return ((_Ty&&)_Arg);

  00003	8b 45 08	 mov	 eax, DWORD PTR __Arg$[ebp]

; 80   : 	}

  00006	5d		 pop	 ebp
  00007	c3		 ret	 0
??$forward@AAUWeaponInfo@@@std@@YAAAUWeaponInfo@@AAU1@@Z ENDP ; std::forward<WeaponInfo &>
_TEXT	ENDS
PUBLIC	??0WeaponInfo@@QAE@ABU0@@Z			; WeaponInfo::WeaponInfo
; Function compile flags: /Ogsp
;	COMDAT ??0WeaponInfo@@QAE@ABU0@@Z
_TEXT	SEGMENT
___that$ = 8						; size = 4
??0WeaponInfo@@QAE@ABU0@@Z PROC				; WeaponInfo::WeaponInfo, COMDAT
; _this$ = ecx
  00000	55		 push	 ebp
  00001	8b ec		 mov	 ebp, esp
  00003	56		 push	 esi
  00004	57		 push	 edi
  00005	8b 7d 08	 mov	 edi, DWORD PTR ___that$[ebp]
  00008	8b 07		 mov	 eax, DWORD PTR [edi]
  0000a	8b f1		 mov	 esi, ecx
  0000c	89 06		 mov	 DWORD PTR [esi], eax
  0000e	8b 47 04	 mov	 eax, DWORD PTR [edi+4]
  00011	89 46 04	 mov	 DWORD PTR [esi+4], eax
  00014	8d 47 08	 lea	 eax, DWORD PTR [edi+8]
  00017	50		 push	 eax
  00018	8d 4e 08	 lea	 ecx, DWORD PTR [esi+8]
  0001b	ff 15 00 00 00
	00		 call	 DWORD PTR __imp_??0ioHashString@@QAE@ABV0@@Z
  00021	8b 47 18	 mov	 eax, DWORD PTR [edi+24]
  00024	89 46 18	 mov	 DWORD PTR [esi+24], eax
  00027	8b 47 1c	 mov	 eax, DWORD PTR [edi+28]
  0002a	89 46 1c	 mov	 DWORD PTR [esi+28], eax
  0002d	8a 47 20	 mov	 al, BYTE PTR [edi+32]
  00030	88 46 20	 mov	 BYTE PTR [esi+32], al
  00033	8b 47 24	 mov	 eax, DWORD PTR [edi+36]
  00036	89 46 24	 mov	 DWORD PTR [esi+36], eax
  00039	5f		 pop	 edi
  0003a	8b c6		 mov	 eax, esi
  0003c	5e		 pop	 esi
  0003d	5d		 pop	 ebp
  0003e	c2 04 00	 ret	 4
??0WeaponInfo@@QAE@ABU0@@Z ENDP				; WeaponInfo::WeaponInfo
_TEXT	ENDS
PUBLIC	??_R0?AVioBaseChar@@@8				; ioBaseChar `RTTI Type Descriptor'
PUBLIC	?ToBaseChar@@YAPAVioBaseChar@@PAVioGameEntity@@@Z ; ToBaseChar
;	COMDAT ??_R0?AVioBaseChar@@@8
; File d:\lost saga for developer\youtube\tutorial\source\src\lsclient\iobasechar.h
_DATA	SEGMENT
??_R0?AVioBaseChar@@@8 DD FLAT:??_7type_info@@6B@	; ioBaseChar `RTTI Type Descriptor'
	DD	00H
	DB	'.?AVioBaseChar@@', 00H
; Function compile flags: /Ogsp
_DATA	ENDS
;	COMDAT ?ToBaseChar@@YAPAVioBaseChar@@PAVioGameEntity@@@Z
_TEXT	SEGMENT
_pObj$ = 8						; size = 4
?ToBaseChar@@YAPAVioBaseChar@@PAVioGameEntity@@@Z PROC	; ToBaseChar, COMDAT

; 4326 : {

  00000	55		 push	 ebp
  00001	8b ec		 mov	 ebp, esp
  00003	56		 push	 esi

; 4327 : 	ioPlayEntity *pPlay = ToPlayEntity( pObj );

  00004	ff 75 08	 push	 DWORD PTR _pObj$[ebp]
  00007	e8 00 00 00 00	 call	 ?ToPlayEntity@@YAPAVioPlayEntity@@PAVioGameEntity@@@Z ; ToPlayEntity
  0000c	8b f0		 mov	 esi, eax
  0000e	59		 pop	 ecx

; 4328 : 	if( !pPlay || pPlay->GetSubType() != ioPlayEntity::PST_CHAR )

  0000f	85 f6		 test	 esi, esi
  00011	74 25		 je	 SHORT $LN1@ToBaseChar
  00013	8b 06		 mov	 eax, DWORD PTR [esi]
  00015	8b ce		 mov	 ecx, esi
  00017	ff 90 a4 00 00
	00		 call	 DWORD PTR [eax+164]
  0001d	85 c0		 test	 eax, eax
  0001f	75 17		 jne	 SHORT $LN1@ToBaseChar

; 4330 : 
; 4331 : 	return dynamic_cast< ioBaseChar* >( pPlay );

  00021	50		 push	 eax
  00022	68 00 00 00 00	 push	 OFFSET ??_R0?AVioBaseChar@@@8
  00027	68 00 00 00 00	 push	 OFFSET ??_R0?AVioPlayEntity@@@8
  0002c	50		 push	 eax
  0002d	56		 push	 esi
  0002e	e8 00 00 00 00	 call	 ___RTDynamicCast
  00033	83 c4 14	 add	 esp, 20			; 00000014H
  00036	eb 02		 jmp	 SHORT $LN3@ToBaseChar
$LN1@ToBaseChar:

; 4329 : 		return NULL;

  00038	33 c0		 xor	 eax, eax
$LN3@ToBaseChar:
  0003a	5e		 pop	 esi

; 4332 : }

  0003b	5d		 pop	 ebp
  0003c	c3		 ret	 0
?ToBaseChar@@YAPAVioBaseChar@@PAVioGameEntity@@@Z ENDP	; ToBaseChar
_TEXT	ENDS
PUBLIC	??_R0?AVioBuff@@@8				; ioBuff `RTTI Type Descriptor'
PUBLIC	??_R0?AVioCloseOrderBuff@@@8			; ioCloseOrderBuff `RTTI Type Descriptor'
PUBLIC	?ToCloseOrderBuff@@YAPAVioCloseOrderBuff@@PAVioBuff@@@Z ; ToCloseOrderBuff
;	COMDAT ??_R0?AVioBuff@@@8
; File d:\lost saga for developer\youtube\tutorial\source\src\lsclient\iobuff.h
_DATA	SEGMENT
??_R0?AVioBuff@@@8 DD FLAT:??_7type_info@@6B@		; ioBuff `RTTI Type Descriptor'
	DD	00H
	DB	'.?AVioBuff@@', 00H
_DATA	ENDS
;	COMDAT ??_R0?AVioCloseOrderBuff@@@8
_DATA	SEGMENT
??_R0?AVioCloseOrderBuff@@@8 DD FLAT:??_7type_info@@6B@	; ioCloseOrderBuff `RTTI Type Descriptor'
	DD	00H
	DB	'.?AVioCloseOrderBuff@@', 00H
; Function compile flags: /Ogsp
; File d:\lost saga for developer\youtube\tutorial\source\src\lsclient\ioetcbuff.h
_DATA	ENDS
;	COMDAT ?ToCloseOrderBuff@@YAPAVioCloseOrderBuff@@PAVioBuff@@@Z
_TEXT	SEGMENT
_pBuff$ = 8						; size = 4
?ToCloseOrderBuff@@YAPAVioCloseOrderBuff@@PAVioBuff@@@Z PROC ; ToCloseOrderBuff, COMDAT

; 464  : {

  00000	55		 push	 ebp
  00001	8b ec		 mov	 ebp, esp

; 465  : 	if( !pBuff || pBuff->GetTypeID() != BT_CLOSEORDER )

  00003	8b 45 08	 mov	 eax, DWORD PTR _pBuff$[ebp]
  00006	85 c0		 test	 eax, eax
  00008	74 22		 je	 SHORT $LN1@ToCloseOrd
  0000a	83 b8 cc 03 00
	00 22		 cmp	 DWORD PTR [eax+972], 34	; 00000022H
  00011	75 19		 jne	 SHORT $LN1@ToCloseOrd

; 467  : 
; 468  : 	return dynamic_cast< ioCloseOrderBuff* >( pBuff );

  00013	6a 00		 push	 0
  00015	68 00 00 00 00	 push	 OFFSET ??_R0?AVioCloseOrderBuff@@@8
  0001a	68 00 00 00 00	 push	 OFFSET ??_R0?AVioBuff@@@8
  0001f	6a 00		 push	 0
  00021	50		 push	 eax
  00022	e8 00 00 00 00	 call	 ___RTDynamicCast
  00027	83 c4 14	 add	 esp, 20			; 00000014H

; 469  : }

  0002a	5d		 pop	 ebp
  0002b	c3		 ret	 0
$LN1@ToCloseOrd:

; 466  : 		return NULL;

  0002c	33 c0		 xor	 eax, eax

; 469  : }

  0002e	5d		 pop	 ebp
  0002f	c3		 ret	 0
?ToCloseOrderBuff@@YAPAVioCloseOrderBuff@@PAVioBuff@@@Z ENDP ; ToCloseOrderBuff
_TEXT	ENDS
PUBLIC	?SetMesh@ioPullWeapon2@@IAE_NABVioHashString@@@Z ; ioPullWeapon2::SetMesh
EXTRN	__imp_?GetCollisionBox@ioEffect@@QBEABVioOrientBox@@XZ:PROC
EXTRN	__imp_??D@YA?AUD3DXVECTOR3@@ABU0@0@Z:PROC
EXTRN	__imp_??D@YA?AUD3DXVECTOR3@@ABUD3DXQUATERNION@@ABU0@@Z:PROC
EXTRN	__imp_?GetBiped@ioEntityGroup@@QAEPAVioBiped@@ABVioHashString@@@Z:PROC
EXTRN	__imp_?GetFirstLinkOffset@ioEffect@@QAE_NAAVioHashString@@AAUD3DXVECTOR3@@AAUD3DXQUATERNION@@@Z:PROC
EXTRN	__imp_??0ioHashString@@QAE@XZ:PROC
EXTRN	__imp_?UNIT_ALL@ioMath@@2UD3DXVECTOR3@@A:BYTE
EXTRN	__imp_?CreateEffect@ioEffectFactory@@QAEPAVioEffect@@ABVioHashString@@@Z:PROC
EXTRN	?GetOwner@ioWeapon@@QBEPAVioBaseChar@@XZ:PROC	; ioWeapon::GetOwner
EXTRN	__EH_epilog3_GS:PROC
EXTRN	__EH_prolog3_GS:PROC
;	COMDAT xdata$x
; File c:\program files (x86)\microsoft directx sdk (june 2010)\include\d3dx9math.inl
xdata$x	SEGMENT
__unwindtable$?SetMesh@ioPullWeapon2@@IAE_NABVioHashString@@@Z DD 0ffffffffH
	DD	FLAT:__unwindfunclet$?SetMesh@ioPullWeapon2@@IAE_NABVioHashString@@@Z$0
	DD	00H
	DD	FLAT:__unwindfunclet$?SetMesh@ioPullWeapon2@@IAE_NABVioHashString@@@Z$1
__ehfuncinfo$?SetMesh@ioPullWeapon2@@IAE_NABVioHashString@@@Z DD 019930522H
	DD	02H
	DD	FLAT:__unwindtable$?SetMesh@ioPullWeapon2@@IAE_NABVioHashString@@@Z
	DD	2 DUP(00H)
	DD	2 DUP(00H)
	DD	00H
	DD	01H
; Function compile flags: /Ogsp
; File d:\lost saga for developer\youtube\tutorial\source\src\lsclient\iopullweapon2.cpp
xdata$x	ENDS
;	COMDAT ?SetMesh@ioPullWeapon2@@IAE_NABVioHashString@@@Z
_TEXT	SEGMENT
_qtLinkRotOffset$ = -100				; size = 16
_szLinkBiped$ = -84					; size = 16
$T572299 = -68						; size = 4
_pOwner$ = -64						; size = 4
$T572293 = -57						; size = 1
$T572294 = -56						; size = 16
$T568713 = -52						; size = 12
_vLinkPosOffset$ = -40					; size = 12
$T568714 = -28						; size = 12
$T568712 = -28						; size = 12
$T568711 = -28						; size = 12
$T568710 = -28						; size = 12
__$EHRec$ = -12						; size = 12
_szFileName$ = 8					; size = 4
?SetMesh@ioPullWeapon2@@IAE_NABVioHashString@@@Z PROC	; ioPullWeapon2::SetMesh, COMDAT
; _this$ = ecx

; 113  : {

  00000	6a 58		 push	 88			; 00000058H
  00002	b8 00 00 00 00	 mov	 eax, __ehhandler$?SetMesh@ioPullWeapon2@@IAE_NABVioHashString@@@Z
  00007	e8 00 00 00 00	 call	 __EH_prolog3_GS
  0000c	8b 7d 08	 mov	 edi, DWORD PTR _szFileName$[ebp]
  0000f	33 f6		 xor	 esi, esi
  00011	8b d9		 mov	 ebx, ecx
  00013	89 75 bc	 mov	 DWORD PTR $T572299[ebp], esi

; 114  : 	ioBaseChar *pOwner = GetOwner();

  00016	e8 00 00 00 00	 call	 ?GetOwner@ioWeapon@@QBEPAVioBaseChar@@XZ ; ioWeapon::GetOwner
  0001b	89 45 c0	 mov	 DWORD PTR _pOwner$[ebp], eax

; 115  : 	if( !pOwner )	

  0001e	3b c6		 cmp	 eax, esi
  00020	75 07		 jne	 SHORT $LN4@SetMesh
$LN35@SetMesh:

; 116  : 		return false;

  00022	32 c0		 xor	 al, al
  00024	e9 35 02 00 00	 jmp	 $LN5@SetMesh
$LN4@SetMesh:

; 117  : 
; 118  : 	m_pMesh = g_EffectFactory.CreateEffect( szFileName );

  00029	57		 push	 edi
  0002a	ff 15 00 00 00
	00		 call	 DWORD PTR __imp_?GetSingleton@ioEffectFactory@@SAAAV1@XZ
  00030	8b c8		 mov	 ecx, eax
  00032	ff 15 00 00 00
	00		 call	 DWORD PTR __imp_?CreateEffect@ioEffectFactory@@QAEPAVioEffect@@ABVioHashString@@@Z
  00038	89 83 f4 08 00
	00		 mov	 DWORD PTR [ebx+2292], eax

; 119  : 	if( !m_pMesh )	

  0003e	3b c6		 cmp	 eax, esi

; 120  : 		return false;

  00040	74 e0		 je	 SHORT $LN35@SetMesh

; 121  : 
; 122  : 	GetParentSceneNode()->AttachObject( m_pMesh );

  00042	8b 4b 04	 mov	 ecx, DWORD PTR [ebx+4]
  00045	8b 11		 mov	 edx, DWORD PTR [ecx]
  00047	83 c0 14	 add	 eax, 20			; 00000014H
  0004a	50		 push	 eax
  0004b	ff 92 ac 00 00
	00		 call	 DWORD PTR [edx+172]

; 123  : 	GetParentSceneNode()->SetScale( ioMath::UNIT_ALL );

  00051	8b 4b 04	 mov	 ecx, DWORD PTR [ebx+4]
  00054	ff 35 00 00 00
	00		 push	 DWORD PTR __imp_?UNIT_ALL@ioMath@@2UD3DXVECTOR3@@A
  0005a	8b 01		 mov	 eax, DWORD PTR [ecx]
  0005c	ff 50 20	 call	 DWORD PTR [eax+32]

; 124  : 	
; 125  : 	ioHashString szLinkBiped;

  0005f	8d 4d ac	 lea	 ecx, DWORD PTR _szLinkBiped$[ebp]
  00062	ff 15 00 00 00
	00		 call	 DWORD PTR __imp_??0ioHashString@@QAE@XZ

; 126  : 	D3DXVECTOR3 vLinkPosOffset;
; 127  : 	D3DXQUATERNION qtLinkRotOffset;
; 128  : 
; 129  : 	if( m_pMesh->GetSkeletonName().IsEmpty() && m_pMesh->GetFirstLinkOffset(szLinkBiped, vLinkPosOffset, qtLinkRotOffset ) )

  00068	8b 8b f4 08 00
	00		 mov	 ecx, DWORD PTR [ebx+2292]
  0006e	8d 45 c8	 lea	 eax, DWORD PTR $T572294[ebp]
  00071	50		 push	 eax
  00072	89 75 fc	 mov	 DWORD PTR __$EHRec$[ebp+8], esi
  00075	ff 15 00 00 00
	00		 call	 DWORD PTR __imp_?GetSkeletonName@ioEffect@@QBE?AVioHashString@@XZ
  0007b	8b c8		 mov	 ecx, eax
  0007d	c6 45 fc 01	 mov	 BYTE PTR __$EHRec$[ebp+8], 1
  00081	c7 45 bc 01 00
	00 00		 mov	 DWORD PTR $T572299[ebp], 1
  00088	ff 15 00 00 00
	00		 call	 DWORD PTR __imp_?IsEmpty@ioHashString@@QBE_NXZ
  0008e	84 c0		 test	 al, al
  00090	74 20		 je	 SHORT $LN9@SetMesh
  00092	8b 8b f4 08 00
	00		 mov	 ecx, DWORD PTR [ebx+2292]
  00098	8d 45 9c	 lea	 eax, DWORD PTR _qtLinkRotOffset$[ebp]
  0009b	50		 push	 eax
  0009c	8d 45 d8	 lea	 eax, DWORD PTR _vLinkPosOffset$[ebp]
  0009f	50		 push	 eax
  000a0	8d 45 ac	 lea	 eax, DWORD PTR _szLinkBiped$[ebp]
  000a3	50		 push	 eax
  000a4	ff 15 00 00 00
	00		 call	 DWORD PTR __imp_?GetFirstLinkOffset@ioEffect@@QAE_NAAVioHashString@@AAUD3DXVECTOR3@@AAUD3DXQUATERNION@@@Z
  000aa	c6 45 c7 01	 mov	 BYTE PTR $T572293[ebp], 1
  000ae	84 c0		 test	 al, al
  000b0	75 04		 jne	 SHORT $LN10@SetMesh
$LN9@SetMesh:
  000b2	c6 45 c7 00	 mov	 BYTE PTR $T572293[ebp], 0
$LN10@SetMesh:
  000b6	8d 4d c8	 lea	 ecx, DWORD PTR $T572294[ebp]
  000b9	89 75 fc	 mov	 DWORD PTR __$EHRec$[ebp+8], esi
  000bc	ff 15 00 00 00
	00		 call	 DWORD PTR __imp_??1ioHashString@@QAE@XZ
  000c2	80 7d c7 00	 cmp	 BYTE PTR $T572293[ebp], 0
  000c6	0f 84 4a 01 00
	00		 je	 $LN1@SetMesh

; 130  : 	{
; 131  : 		ioBiped *pLinked = pOwner->GetGroup()->GetBiped( szLinkBiped );

  000cc	8b 45 c0	 mov	 eax, DWORD PTR _pOwner$[ebp]
  000cf	8b 48 04	 mov	 ecx, DWORD PTR [eax+4]
  000d2	8d 45 ac	 lea	 eax, DWORD PTR _szLinkBiped$[ebp]
  000d5	50		 push	 eax
  000d6	ff 15 00 00 00
	00		 call	 DWORD PTR __imp_?GetBiped@ioEntityGroup@@QAEPAVioBiped@@ABVioHashString@@@Z
  000dc	8b f8		 mov	 edi, eax

; 132  : 		if( pLinked )

  000de	3b fe		 cmp	 edi, esi
  000e0	0f 84 30 01 00
	00		 je	 $LN1@SetMesh

; 133  : 		{
; 134  : 			vLinkPosOffset = pLinked->GetDerivedOrientation() * vLinkPosOffset + pLinked->GetDerivedPosition();

  000e6	8b 07		 mov	 eax, DWORD PTR [edi]
  000e8	8b cf		 mov	 ecx, edi
  000ea	ff 50 7c	 call	 DWORD PTR [eax+124]
  000ed	8b f0		 mov	 esi, eax
  000ef	8d 45 d8	 lea	 eax, DWORD PTR _vLinkPosOffset$[ebp]
  000f2	50		 push	 eax
  000f3	8b 07		 mov	 eax, DWORD PTR [edi]
  000f5	8b cf		 mov	 ecx, edi
  000f7	ff 50 78	 call	 DWORD PTR [eax+120]
  000fa	50		 push	 eax
  000fb	8d 45 e4	 lea	 eax, DWORD PTR $T568710[ebp]
  000fe	50		 push	 eax
  000ff	ff 15 00 00 00
	00		 call	 DWORD PTR __imp_??D@YA?AUD3DXVECTOR3@@ABUD3DXQUATERNION@@ABU0@@Z
  00105	f3 0f 10 06	 movss	 xmm0, DWORD PTR [esi]
  00109	f3 0f 10 08	 movss	 xmm1, DWORD PTR [eax]
  0010d	f3 0f 10 50 04	 movss	 xmm2, DWORD PTR [eax+4]
  00112	f3 0f 10 58 08	 movss	 xmm3, DWORD PTR [eax+8]

; 135  : 			vLinkPosOffset = vLinkPosOffset * pOwner->GetWorldScale();

  00117	8b 4d c0	 mov	 ecx, DWORD PTR _pOwner$[ebp]
  0011a	0f 5a c9	 cvtps2pd xmm1, xmm1
  0011d	0f 5a c0	 cvtps2pd xmm0, xmm0
  00120	f2 0f 58 c1	 addsd	 xmm0, xmm1
  00124	f3 0f 10 4e 04	 movss	 xmm1, DWORD PTR [esi+4]
  00129	0f 5a d2	 cvtps2pd xmm2, xmm2
  0012c	0f 5a c9	 cvtps2pd xmm1, xmm1
  0012f	f2 0f 58 ca	 addsd	 xmm1, xmm2
  00133	f3 0f 10 56 08	 movss	 xmm2, DWORD PTR [esi+8]
  00138	0f 5a d2	 cvtps2pd xmm2, xmm2
  0013b	0f 5a db	 cvtps2pd xmm3, xmm3
  0013e	f2 0f 58 d3	 addsd	 xmm2, xmm3
  00142	66 0f 5a c0	 cvtpd2ps xmm0, xmm0
  00146	f3 0f 11 45 e4	 movss	 DWORD PTR $T568711[ebp], xmm0
  0014b	66 0f 5a c9	 cvtpd2ps xmm1, xmm1
  0014f	f3 0f 11 4d e8	 movss	 DWORD PTR $T568711[ebp+4], xmm1
  00154	66 0f 5a d2	 cvtpd2ps xmm2, xmm2
  00158	f3 0f 11 55 ec	 movss	 DWORD PTR $T568711[ebp+8], xmm2
  0015d	8d 75 e4	 lea	 esi, DWORD PTR $T568711[ebp]
  00160	8d 7d d8	 lea	 edi, DWORD PTR _vLinkPosOffset$[ebp]
  00163	a5		 movsd
  00164	a5		 movsd
  00165	a5		 movsd
  00166	8b 01		 mov	 eax, DWORD PTR [ecx]
  00168	83 c4 0c	 add	 esp, 12			; 0000000cH
  0016b	ff 50 78	 call	 DWORD PTR [eax+120]
  0016e	50		 push	 eax
  0016f	8d 45 d8	 lea	 eax, DWORD PTR _vLinkPosOffset$[ebp]
  00172	50		 push	 eax
  00173	8d 45 e4	 lea	 eax, DWORD PTR $T568712[ebp]
  00176	50		 push	 eax
  00177	ff 15 00 00 00
	00		 call	 DWORD PTR __imp_??D@YA?AUD3DXVECTOR3@@ABU0@0@Z
  0017d	8b f0		 mov	 esi, eax
  0017f	8d 7d d8	 lea	 edi, DWORD PTR _vLinkPosOffset$[ebp]
  00182	a5		 movsd
  00183	a5		 movsd
  00184	a5		 movsd

; 136  : 			vLinkPosOffset = pOwner->GetWorldOrientation() * vLinkPosOffset + pOwner->GetWorldPosition();

  00185	8b 7d c0	 mov	 edi, DWORD PTR _pOwner$[ebp]
  00188	8b 07		 mov	 eax, DWORD PTR [edi]
  0018a	83 c4 0c	 add	 esp, 12			; 0000000cH
  0018d	8b cf		 mov	 ecx, edi
  0018f	ff 50 70	 call	 DWORD PTR [eax+112]
  00192	8b f0		 mov	 esi, eax
  00194	8d 45 d8	 lea	 eax, DWORD PTR _vLinkPosOffset$[ebp]
  00197	50		 push	 eax
  00198	8b 07		 mov	 eax, DWORD PTR [edi]
  0019a	8b cf		 mov	 ecx, edi
  0019c	ff 50 74	 call	 DWORD PTR [eax+116]
  0019f	50		 push	 eax
  001a0	8d 45 cc	 lea	 eax, DWORD PTR $T568713[ebp]
  001a3	50		 push	 eax
  001a4	ff 15 00 00 00
	00		 call	 DWORD PTR __imp_??D@YA?AUD3DXVECTOR3@@ABUD3DXQUATERNION@@ABU0@@Z
  001aa	f3 0f 10 00	 movss	 xmm0, DWORD PTR [eax]
  001ae	f3 0f 10 0e	 movss	 xmm1, DWORD PTR [esi]
  001b2	f3 0f 10 50 04	 movss	 xmm2, DWORD PTR [eax+4]
  001b7	0f 5a c9	 cvtps2pd xmm1, xmm1
  001ba	0f 5a c0	 cvtps2pd xmm0, xmm0
  001bd	f2 0f 58 c1	 addsd	 xmm0, xmm1
  001c1	f3 0f 10 4e 04	 movss	 xmm1, DWORD PTR [esi+4]
  001c6	0f 5a c9	 cvtps2pd xmm1, xmm1
  001c9	0f 5a d2	 cvtps2pd xmm2, xmm2
  001cc	83 c4 0c	 add	 esp, 12			; 0000000cH
  001cf	66 0f 5a c0	 cvtpd2ps xmm0, xmm0
  001d3	f2 0f 58 ca	 addsd	 xmm1, xmm2
  001d7	f3 0f 10 56 08	 movss	 xmm2, DWORD PTR [esi+8]
  001dc	f3 0f 10 58 08	 movss	 xmm3, DWORD PTR [eax+8]
  001e1	0f 5a d2	 cvtps2pd xmm2, xmm2
  001e4	0f 5a db	 cvtps2pd xmm3, xmm3
  001e7	f2 0f 58 d3	 addsd	 xmm2, xmm3
  001eb	f3 0f 11 45 e4	 movss	 DWORD PTR $T568714[ebp], xmm0
  001f0	66 0f 5a c9	 cvtpd2ps xmm1, xmm1
  001f4	f3 0f 11 4d e8	 movss	 DWORD PTR $T568714[ebp+4], xmm1
  001f9	66 0f 5a d2	 cvtpd2ps xmm2, xmm2
  001fd	f3 0f 11 55 ec	 movss	 DWORD PTR $T568714[ebp+8], xmm2
  00202	8d 75 e4	 lea	 esi, DWORD PTR $T568714[ebp]
  00205	8d 7d d8	 lea	 edi, DWORD PTR _vLinkPosOffset$[ebp]
  00208	a5		 movsd
  00209	a5		 movsd

; 137  : 			SetPosition( vLinkPosOffset );

  0020a	8d 45 d8	 lea	 eax, DWORD PTR _vLinkPosOffset$[ebp]
  0020d	50		 push	 eax
  0020e	8b cb		 mov	 ecx, ebx
  00210	a5		 movsd
  00211	e8 00 00 00 00	 call	 ?SetPosition@ioWeapon@@QAEXABUD3DXVECTOR3@@@Z ; ioWeapon::SetPosition
$LN1@SetMesh:

; 138  : 		}
; 139  : 	}
; 140  : 
; 141  : 	m_pMesh->UpdateBounds( true );

  00216	8b 8b f4 08 00
	00		 mov	 ecx, DWORD PTR [ebx+2292]
  0021c	83 c1 14	 add	 ecx, 20			; 00000014H
  0021f	8b 01		 mov	 eax, DWORD PTR [ecx]
  00221	6a 01		 push	 1
  00223	ff 50 44	 call	 DWORD PTR [eax+68]

; 142  : 	m_LocalAttackBox = m_pMesh->GetCollisionBox();

  00226	8b 8b f4 08 00
	00		 mov	 ecx, DWORD PTR [ebx+2292]
  0022c	ff 15 00 00 00
	00		 call	 DWORD PTR __imp_?GetCollisionBox@ioEffect@@QBEABVioOrientBox@@XZ
  00232	6a 11		 push	 17			; 00000011H
  00234	59		 pop	 ecx

; 143  : 
; 144  : 	AddEffectEvent( m_pMesh );

  00235	ff b3 f4 08 00
	00		 push	 DWORD PTR [ebx+2292]
  0023b	8b f0		 mov	 esi, eax
  0023d	8b 03		 mov	 eax, DWORD PTR [ebx]
  0023f	8d bb 98 08 00
	00		 lea	 edi, DWORD PTR [ebx+2200]
  00245	f3 a5		 rep movsd
  00247	8b cb		 mov	 ecx, ebx
  00249	ff 90 68 01 00
	00		 call	 DWORD PTR [eax+360]

; 145  : 	return true;

  0024f	83 4d fc ff	 or	 DWORD PTR __$EHRec$[ebp+8], -1
  00253	8d 4d ac	 lea	 ecx, DWORD PTR _szLinkBiped$[ebp]
  00256	ff 15 00 00 00
	00		 call	 DWORD PTR __imp_??1ioHashString@@QAE@XZ
  0025c	b0 01		 mov	 al, 1
$LN5@SetMesh:

; 146  : }

  0025e	e8 00 00 00 00	 call	 __EH_epilog3_GS
  00263	c2 04 00	 ret	 4
_TEXT	ENDS
;	COMDAT text$x
text$x	SEGMENT
__unwindfunclet$?SetMesh@ioPullWeapon2@@IAE_NABVioHashString@@@Z$0:
  00000	8d 4d ac	 lea	 ecx, DWORD PTR _szLinkBiped$[ebp]
  00003	ff 25 00 00 00
	00		 jmp	 DWORD PTR __imp_??1ioHashString@@QAE@XZ
__unwindfunclet$?SetMesh@ioPullWeapon2@@IAE_NABVioHashString@@@Z$1:
  00009	8b 45 bc	 mov	 eax, DWORD PTR $T572299[ebp]
  0000c	83 e0 01	 and	 eax, 1
  0000f	0f 84 0d 00 00
	00		 je	 $LN13@SetMesh
  00015	83 65 bc fe	 and	 DWORD PTR $T572299[ebp], -2 ; fffffffeH
  00019	8d 4d c8	 lea	 ecx, DWORD PTR $T572294[ebp]
  0001c	ff 25 00 00 00
	00		 jmp	 DWORD PTR __imp_??1ioHashString@@QAE@XZ
$LN13@SetMesh:
  00022	c3		 ret	 0
__ehhandler$?SetMesh@ioPullWeapon2@@IAE_NABVioHashString@@@Z:
  00023	8b 54 24 08	 mov	 edx, DWORD PTR [esp+8]
  00027	8d 42 0c	 lea	 eax, DWORD PTR [edx+12]
  0002a	8b 4a 98	 mov	 ecx, DWORD PTR [edx-104]
  0002d	33 c8		 xor	 ecx, eax
  0002f	e8 00 00 00 00	 call	 @__security_check_cookie@4
  00034	8b 4a fc	 mov	 ecx, DWORD PTR [edx-4]
  00037	33 c8		 xor	 ecx, eax
  00039	e8 00 00 00 00	 call	 @__security_check_cookie@4
  0003e	b8 00 00 00 00	 mov	 eax, OFFSET __ehfuncinfo$?SetMesh@ioPullWeapon2@@IAE_NABVioHashString@@@Z
  00043	e9 00 00 00 00	 jmp	 ___CxxFrameHandler3
text$x	ENDS
?SetMesh@ioPullWeapon2@@IAE_NABVioHashString@@@Z ENDP	; ioPullWeapon2::SetMesh
PUBLIC	?SetMoveDir@ioPullWeapon2@@UAEXABUD3DXVECTOR3@@@Z ; ioPullWeapon2::SetMoveDir
EXTRN	?SetOrientation@ioWeapon@@QAEXABUD3DXQUATERNION@@@Z:PROC ; ioWeapon::SetOrientation
EXTRN	?CheckOrientation@ioPlayEntityHelp@@YAXABUD3DXVECTOR3@@AAUD3DXQUATERNION@@@Z:PROC ; ioPlayEntityHelp::CheckOrientation
EXTRN	_D3DXVec3Normalize@8:PROC
; Function compile flags: /Ogsp
;	COMDAT ?SetMoveDir@ioPullWeapon2@@UAEXABUD3DXVECTOR3@@@Z
_TEXT	SEGMENT
_qtRot$ = -16						; size = 16
_vDir$ = 8						; size = 4
?SetMoveDir@ioPullWeapon2@@UAEXABUD3DXVECTOR3@@@Z PROC	; ioPullWeapon2::SetMoveDir, COMDAT
; _this$ = ecx

; 178  : {

  00000	55		 push	 ebp
  00001	8b ec		 mov	 ebp, esp
  00003	83 ec 10	 sub	 esp, 16			; 00000010H
  00006	53		 push	 ebx
  00007	56		 push	 esi

; 179  : 	m_vMoveDir = vDir;

  00008	8b 75 08	 mov	 esi, DWORD PTR _vDir$[ebp]
  0000b	57		 push	 edi
  0000c	8b d9		 mov	 ebx, ecx
  0000e	8d 83 dc 08 00
	00		 lea	 eax, DWORD PTR [ebx+2268]
  00014	8b f8		 mov	 edi, eax
  00016	a5		 movsd
  00017	a5		 movsd

; 180  : 	D3DXVec3Normalize( &m_vMoveDir, &m_vMoveDir );

  00018	50		 push	 eax
  00019	50		 push	 eax
  0001a	a5		 movsd
  0001b	e8 00 00 00 00	 call	 _D3DXVec3Normalize@8

; 181  : 
; 182  : // 	D3DXQUATERNION qtRot;
; 183  : // 	ioMath::CalcDirectionQuaternion( qtRot, -vDir );
; 184  : // 	SetOrientation( qtRot );
; 185  : 
; 186  : 	D3DXQUATERNION qtRot;
; 187  : 	ioPlayEntityHelp::CheckOrientation( vDir, qtRot );

  00020	8d 45 f0	 lea	 eax, DWORD PTR _qtRot$[ebp]
  00023	50		 push	 eax
  00024	ff 75 08	 push	 DWORD PTR _vDir$[ebp]
  00027	e8 00 00 00 00	 call	 ?CheckOrientation@ioPlayEntityHelp@@YAXABUD3DXVECTOR3@@AAUD3DXQUATERNION@@@Z ; ioPlayEntityHelp::CheckOrientation
  0002c	59		 pop	 ecx
  0002d	59		 pop	 ecx

; 188  : 	SetOrientation( qtRot );

  0002e	8d 45 f0	 lea	 eax, DWORD PTR _qtRot$[ebp]
  00031	50		 push	 eax
  00032	8b cb		 mov	 ecx, ebx
  00034	e8 00 00 00 00	 call	 ?SetOrientation@ioWeapon@@QAEXABUD3DXQUATERNION@@@Z ; ioWeapon::SetOrientation
  00039	5f		 pop	 edi
  0003a	5e		 pop	 esi
  0003b	5b		 pop	 ebx

; 189  : }

  0003c	c9		 leave
  0003d	c2 04 00	 ret	 4
?SetMoveDir@ioPullWeapon2@@UAEXABUD3DXVECTOR3@@@Z ENDP	; ioPullWeapon2::SetMoveDir
_TEXT	ENDS
PUBLIC	??4?$CEncrypt@M@@QAEMH@Z			; CEncrypt<float>::operator=
; Function compile flags: /Ogsp
; File d:\lost saga for developer\youtube\tutorial\source\src\lsclient\encryptvalue.h
;	COMDAT ??4?$CEncrypt@M@@QAEMH@Z
_TEXT	SEGMENT
_value$ = 8						; size = 4
_inValue$ = 8						; size = 4
??4?$CEncrypt@M@@QAEMH@Z PROC				; CEncrypt<float>::operator=, COMDAT
; _this$ = ecx

; 843  : 	{

  00000	55		 push	 ebp
  00001	8b ec		 mov	 ebp, esp

; 844  : 		type value = inValue;

  00003	db 45 08	 fild	 DWORD PTR _inValue$[ebp]

; 845  : 		EncryptValueToPool((char*)&value);

  00006	8d 45 08	 lea	 eax, DWORD PTR _value$[ebp]
  00009	50		 push	 eax
  0000a	d9 5d 08	 fstp	 DWORD PTR _value$[ebp]
  0000d	e8 00 00 00 00	 call	 ?EncryptValueToPool@?$CEncrypt@M@@AAEXPBD@Z ; CEncrypt<float>::EncryptValueToPool

; 846  : #ifdef _NOTUSE
; 847  : 		m_value = inValue;
; 848  : 		Debug();
; 849  : #endif
; 850  : 		return value;

  00012	d9 45 08	 fld	 DWORD PTR _value$[ebp]

; 851  : 	}

  00015	5d		 pop	 ebp
  00016	c2 04 00	 ret	 4
??4?$CEncrypt@M@@QAEMH@Z ENDP				; CEncrypt<float>::operator=
_TEXT	ENDS
PUBLIC	??D?$CEncrypt@M@@QAEMABM@Z			; CEncrypt<float>::operator*
; Function compile flags: /Ogsp
;	COMDAT ??D?$CEncrypt@M@@QAEMABM@Z
_TEXT	SEGMENT
_value$ = -4						; size = 4
tv130 = 8						; size = 4
_inValue$ = 8						; size = 4
??D?$CEncrypt@M@@QAEMABM@Z PROC				; CEncrypt<float>::operator*, COMDAT
; _this$ = ecx

; 1685 : 	{	

  00000	55		 push	 ebp
  00001	8b ec		 mov	 ebp, esp
  00003	51		 push	 ecx

; 1686 : 		type value;
; 1687 : 		DecryptValueToPool(&value);

  00004	8d 45 fc	 lea	 eax, DWORD PTR _value$[ebp]
  00007	50		 push	 eax
  00008	e8 00 00 00 00	 call	 ?DecryptValueToPool@?$CEncrypt@M@@QAEXPAM@Z ; CEncrypt<float>::DecryptValueToPool

; 1688 : #ifdef _NOTUSE
; 1689 : 		Debug();
; 1690 : #endif
; 1691 : 		return value * inValue;

  0000d	8b 45 08	 mov	 eax, DWORD PTR _inValue$[ebp]
  00010	d9 00		 fld	 DWORD PTR [eax]
  00012	d8 4d fc	 fmul	 DWORD PTR _value$[ebp]
  00015	d9 5d 08	 fstp	 DWORD PTR tv130[ebp]
  00018	d9 45 08	 fld	 DWORD PTR tv130[ebp]

; 1692 : 	}

  0001b	c9		 leave
  0001c	c2 04 00	 ret	 4
??D?$CEncrypt@M@@QAEMABM@Z ENDP				; CEncrypt<float>::operator*
_TEXT	ENDS
PUBLIC	??M?$CEncrypt@K@@QAE_NABK@Z			; CEncrypt<unsigned long>::operator<
; Function compile flags: /Ogsp
;	COMDAT ??M?$CEncrypt@K@@QAE_NABK@Z
_TEXT	SEGMENT
_value$ = -4						; size = 4
_inValue$ = 8						; size = 4
??M?$CEncrypt@K@@QAE_NABK@Z PROC			; CEncrypt<unsigned long>::operator<, COMDAT
; _this$ = ecx

; 1401 : 	{

  00000	55		 push	 ebp
  00001	8b ec		 mov	 ebp, esp
  00003	51		 push	 ecx

; 1402 : 		type value;
; 1403 : 		DecryptValueToPool(&value);

  00004	8d 45 fc	 lea	 eax, DWORD PTR _value$[ebp]
  00007	50		 push	 eax
  00008	e8 00 00 00 00	 call	 ?DecryptValueToPool@?$CEncrypt@K@@QAEXPAK@Z ; CEncrypt<unsigned long>::DecryptValueToPool

; 1404 : #ifdef _NOTUSE
; 1405 : 		Debug();
; 1406 : #endif
; 1407 : 		return (value < inValue);

  0000d	8b 45 08	 mov	 eax, DWORD PTR _inValue$[ebp]
  00010	8b 4d fc	 mov	 ecx, DWORD PTR _value$[ebp]
  00013	3b 08		 cmp	 ecx, DWORD PTR [eax]
  00015	1b c0		 sbb	 eax, eax
  00017	f7 d8		 neg	 eax

; 1408 : 	} 

  00019	c9		 leave
  0001a	c2 04 00	 ret	 4
??M?$CEncrypt@K@@QAE_NABK@Z ENDP			; CEncrypt<unsigned long>::operator<
_TEXT	ENDS
PUBLIC	??4?$CEncrypt@K@@QAEKM@Z			; CEncrypt<unsigned long>::operator=
EXTRN	__ftol2:PROC
; Function compile flags: /Ogsp
;	COMDAT ??4?$CEncrypt@K@@QAEKM@Z
_TEXT	SEGMENT
_value$ = 8						; size = 4
_inValue$ = 8						; size = 4
??4?$CEncrypt@K@@QAEKM@Z PROC				; CEncrypt<unsigned long>::operator=, COMDAT
; _this$ = ecx

; 1654 : 	{	

  00000	55		 push	 ebp
  00001	8b ec		 mov	 ebp, esp

; 1655 : 		type value = inValue;

  00003	d9 45 08	 fld	 DWORD PTR _inValue$[ebp]
  00006	56		 push	 esi
  00007	8b f1		 mov	 esi, ecx
  00009	e8 00 00 00 00	 call	 __ftol2
  0000e	89 45 08	 mov	 DWORD PTR _value$[ebp], eax

; 1656 : 		EncryptValueToPool((char*)&value);

  00011	8d 45 08	 lea	 eax, DWORD PTR _value$[ebp]
  00014	50		 push	 eax
  00015	8b ce		 mov	 ecx, esi
  00017	e8 00 00 00 00	 call	 ?EncryptValueToPool@?$CEncrypt@K@@AAEXPBD@Z ; CEncrypt<unsigned long>::EncryptValueToPool

; 1657 : #ifdef _NOTUSE
; 1658 : 		m_value = inValue;
; 1659 : 		Debug();
; 1660 : #endif
; 1661 : 		return value;

  0001c	8b 45 08	 mov	 eax, DWORD PTR _value$[ebp]
  0001f	5e		 pop	 esi

; 1662 : 	}

  00020	5d		 pop	 ebp
  00021	c2 04 00	 ret	 4
??4?$CEncrypt@K@@QAEKM@Z ENDP				; CEncrypt<unsigned long>::operator=
_TEXT	ENDS
PUBLIC	?begin@?$vector@PAVioBaseChar@@V?$allocator@PAVioBaseChar@@@std@@@std@@QBE?AV?$_Vector_const_iterator@V?$_Vector_val@PAVioBaseChar@@V?$allocator@PAVioBaseChar@@@std@@@std@@@2@XZ ; std::vector<ioBaseChar *,std::allocator<ioBaseChar *> >::begin
; Function compile flags: /Ogsp
; File c:\program files (x86)\microsoft visual studio 10.0\vc\include\vector
;	COMDAT ?begin@?$vector@PAVioBaseChar@@V?$allocator@PAVioBaseChar@@@std@@@std@@QBE?AV?$_Vector_const_iterator@V?$_Vector_val@PAVioBaseChar@@V?$allocator@PAVioBaseChar@@@std@@@std@@@2@XZ
_TEXT	SEGMENT
___$ReturnUdt$ = 8					; size = 4
?begin@?$vector@PAVioBaseChar@@V?$allocator@PAVioBaseChar@@@std@@@std@@QBE?AV?$_Vector_const_iterator@V?$_Vector_val@PAVioBaseChar@@V?$allocator@PAVioBaseChar@@@std@@@std@@@2@XZ PROC ; std::vector<ioBaseChar *,std::allocator<ioBaseChar *> >::begin, COMDAT
; _this$ = ecx

; 786  : 		{	// return iterator for beginning of nonmutable sequence

  00000	55		 push	 ebp
  00001	8b ec		 mov	 ebp, esp

; 787  : 		return (const_iterator(this->_Myfirst, this));

  00003	8b 09		 mov	 ecx, DWORD PTR [ecx]
  00005	8b 45 08	 mov	 eax, DWORD PTR ___$ReturnUdt$[ebp]
  00008	89 08		 mov	 DWORD PTR [eax], ecx

; 788  : 		}

  0000a	5d		 pop	 ebp
  0000b	c2 04 00	 ret	 4
?begin@?$vector@PAVioBaseChar@@V?$allocator@PAVioBaseChar@@@std@@@std@@QBE?AV?$_Vector_const_iterator@V?$_Vector_val@PAVioBaseChar@@V?$allocator@PAVioBaseChar@@@std@@@std@@@2@XZ ENDP ; std::vector<ioBaseChar *,std::allocator<ioBaseChar *> >::begin
_TEXT	ENDS
PUBLIC	?end@?$vector@PAVioBaseChar@@V?$allocator@PAVioBaseChar@@@std@@@std@@QBE?AV?$_Vector_const_iterator@V?$_Vector_val@PAVioBaseChar@@V?$allocator@PAVioBaseChar@@@std@@@std@@@2@XZ ; std::vector<ioBaseChar *,std::allocator<ioBaseChar *> >::end
; Function compile flags: /Ogsp
;	COMDAT ?end@?$vector@PAVioBaseChar@@V?$allocator@PAVioBaseChar@@@std@@@std@@QBE?AV?$_Vector_const_iterator@V?$_Vector_val@PAVioBaseChar@@V?$allocator@PAVioBaseChar@@@std@@@std@@@2@XZ
_TEXT	SEGMENT
___$ReturnUdt$ = 8					; size = 4
?end@?$vector@PAVioBaseChar@@V?$allocator@PAVioBaseChar@@@std@@@std@@QBE?AV?$_Vector_const_iterator@V?$_Vector_val@PAVioBaseChar@@V?$allocator@PAVioBaseChar@@@std@@@std@@@2@XZ PROC ; std::vector<ioBaseChar *,std::allocator<ioBaseChar *> >::end, COMDAT
; _this$ = ecx

; 796  : 		{	// return iterator for end of nonmutable sequence

  00000	55		 push	 ebp
  00001	8b ec		 mov	 ebp, esp

; 797  : 		return (const_iterator(this->_Mylast, this));

  00003	8b 49 04	 mov	 ecx, DWORD PTR [ecx+4]
  00006	8b 45 08	 mov	 eax, DWORD PTR ___$ReturnUdt$[ebp]
  00009	89 08		 mov	 DWORD PTR [eax], ecx

; 798  : 		}

  0000b	5d		 pop	 ebp
  0000c	c2 04 00	 ret	 4
?end@?$vector@PAVioBaseChar@@V?$allocator@PAVioBaseChar@@@std@@@std@@QBE?AV?$_Vector_const_iterator@V?$_Vector_val@PAVioBaseChar@@V?$allocator@PAVioBaseChar@@@std@@@std@@@2@XZ ENDP ; std::vector<ioBaseChar *,std::allocator<ioBaseChar *> >::end
_TEXT	ENDS
PUBLIC	??0?$_Vector_iterator@V?$_Vector_val@VioHashString@@V?$allocator@VioHashString@@@std@@@std@@@std@@QAE@XZ ; std::_Vector_iterator<std::_Vector_val<ioHashString,std::allocator<ioHashString> > >::_Vector_iterator<std::_Vector_val<ioHashString,std::allocator<ioHashString> > >
; Function compile flags: /Ogsp
;	COMDAT ??0?$_Vector_iterator@V?$_Vector_val@VioHashString@@V?$allocator@VioHashString@@@std@@@std@@@std@@QAE@XZ
_TEXT	SEGMENT
??0?$_Vector_iterator@V?$_Vector_val@VioHashString@@V?$allocator@VioHashString@@@std@@@std@@@std@@QAE@XZ PROC ; std::_Vector_iterator<std::_Vector_val<ioHashString,std::allocator<ioHashString> > >::_Vector_iterator<std::_Vector_val<ioHashString,std::allocator<ioHashString> > >, COMDAT
; _this$ = ecx

; 298  : 	_Vector_iterator()

  00000	8b c1		 mov	 eax, ecx
  00002	83 20 00	 and	 DWORD PTR [eax], 0

; 299  : 		{	// construct with null vector pointer
; 300  : 		}

  00005	c3		 ret	 0
??0?$_Vector_iterator@V?$_Vector_val@VioHashString@@V?$allocator@VioHashString@@@std@@@std@@@std@@QAE@XZ ENDP ; std::_Vector_iterator<std::_Vector_val<ioHashString,std::allocator<ioHashString> > >::_Vector_iterator<std::_Vector_val<ioHashString,std::allocator<ioHashString> > >
_TEXT	ENDS
PUBLIC	??D?$_Vector_iterator@V?$_Vector_val@VioHashString@@V?$allocator@VioHashString@@@std@@@std@@@std@@QBEAAVioHashString@@XZ ; std::_Vector_iterator<std::_Vector_val<ioHashString,std::allocator<ioHashString> > >::operator*
; Function compile flags: /Ogsp
;	COMDAT ??D?$_Vector_iterator@V?$_Vector_val@VioHashString@@V?$allocator@VioHashString@@@std@@@std@@@std@@QBEAAVioHashString@@XZ
_TEXT	SEGMENT
??D?$_Vector_iterator@V?$_Vector_val@VioHashString@@V?$allocator@VioHashString@@@std@@@std@@@std@@QBEAAVioHashString@@XZ PROC ; std::_Vector_iterator<std::_Vector_val<ioHashString,std::allocator<ioHashString> > >::operator*, COMDAT
; _this$ = ecx

; 322  : 		return ((reference)**(_Mybase *)this);

  00000	8b 01		 mov	 eax, DWORD PTR [ecx]

; 323  : 		}

  00002	c3		 ret	 0
??D?$_Vector_iterator@V?$_Vector_val@VioHashString@@V?$allocator@VioHashString@@@std@@@std@@@std@@QBEAAVioHashString@@XZ ENDP ; std::_Vector_iterator<std::_Vector_val<ioHashString,std::allocator<ioHashString> > >::operator*
_TEXT	ENDS
PUBLIC	??E?$_Vector_iterator@V?$_Vector_val@VioHashString@@V?$allocator@VioHashString@@@std@@@std@@@std@@QAEAAV01@XZ ; std::_Vector_iterator<std::_Vector_val<ioHashString,std::allocator<ioHashString> > >::operator++
; Function compile flags: /Ogsp
;	COMDAT ??E?$_Vector_iterator@V?$_Vector_val@VioHashString@@V?$allocator@VioHashString@@@std@@@std@@@std@@QAEAAV01@XZ
_TEXT	SEGMENT
??E?$_Vector_iterator@V?$_Vector_val@VioHashString@@V?$allocator@VioHashString@@@std@@@std@@@std@@QAEAAV01@XZ PROC ; std::_Vector_iterator<std::_Vector_val<ioHashString,std::allocator<ioHashString> > >::operator++, COMDAT
; _this$ = ecx

; 331  : 		{	// preincrement

  00000	8b c1		 mov	 eax, ecx

; 332  : 		++*(_Mybase *)this;

  00002	83 00 10	 add	 DWORD PTR [eax], 16	; 00000010H

; 333  : 		return (*this);
; 334  : 		}

  00005	c3		 ret	 0
??E?$_Vector_iterator@V?$_Vector_val@VioHashString@@V?$allocator@VioHashString@@@std@@@std@@@std@@QAEAAV01@XZ ENDP ; std::_Vector_iterator<std::_Vector_val<ioHashString,std::allocator<ioHashString> > >::operator++
_TEXT	ENDS
PUBLIC	??0?$_Vector_iterator@V?$_Vector_val@UWeaponInfo@@V?$allocator@UWeaponInfo@@@std@@@std@@@std@@QAE@XZ ; std::_Vector_iterator<std::_Vector_val<WeaponInfo,std::allocator<WeaponInfo> > >::_Vector_iterator<std::_Vector_val<WeaponInfo,std::allocator<WeaponInfo> > >
; Function compile flags: /Ogsp
;	COMDAT ??0?$_Vector_iterator@V?$_Vector_val@UWeaponInfo@@V?$allocator@UWeaponInfo@@@std@@@std@@@std@@QAE@XZ
_TEXT	SEGMENT
??0?$_Vector_iterator@V?$_Vector_val@UWeaponInfo@@V?$allocator@UWeaponInfo@@@std@@@std@@@std@@QAE@XZ PROC ; std::_Vector_iterator<std::_Vector_val<WeaponInfo,std::allocator<WeaponInfo> > >::_Vector_iterator<std::_Vector_val<WeaponInfo,std::allocator<WeaponInfo> > >, COMDAT
; _this$ = ecx

; 298  : 	_Vector_iterator()

  00000	8b c1		 mov	 eax, ecx
  00002	83 20 00	 and	 DWORD PTR [eax], 0

; 299  : 		{	// construct with null vector pointer
; 300  : 		}

  00005	c3		 ret	 0
??0?$_Vector_iterator@V?$_Vector_val@UWeaponInfo@@V?$allocator@UWeaponInfo@@@std@@@std@@@std@@QAE@XZ ENDP ; std::_Vector_iterator<std::_Vector_val<WeaponInfo,std::allocator<WeaponInfo> > >::_Vector_iterator<std::_Vector_val<WeaponInfo,std::allocator<WeaponInfo> > >
_TEXT	ENDS
PUBLIC	??D?$_Vector_iterator@V?$_Vector_val@UWeaponInfo@@V?$allocator@UWeaponInfo@@@std@@@std@@@std@@QBEAAUWeaponInfo@@XZ ; std::_Vector_iterator<std::_Vector_val<WeaponInfo,std::allocator<WeaponInfo> > >::operator*
; Function compile flags: /Ogsp
;	COMDAT ??D?$_Vector_iterator@V?$_Vector_val@UWeaponInfo@@V?$allocator@UWeaponInfo@@@std@@@std@@@std@@QBEAAUWeaponInfo@@XZ
_TEXT	SEGMENT
??D?$_Vector_iterator@V?$_Vector_val@UWeaponInfo@@V?$allocator@UWeaponInfo@@@std@@@std@@@std@@QBEAAUWeaponInfo@@XZ PROC ; std::_Vector_iterator<std::_Vector_val<WeaponInfo,std::allocator<WeaponInfo> > >::operator*, COMDAT
; _this$ = ecx

; 322  : 		return ((reference)**(_Mybase *)this);

  00000	8b 01		 mov	 eax, DWORD PTR [ecx]

; 323  : 		}

  00002	c3		 ret	 0
??D?$_Vector_iterator@V?$_Vector_val@UWeaponInfo@@V?$allocator@UWeaponInfo@@@std@@@std@@@std@@QBEAAUWeaponInfo@@XZ ENDP ; std::_Vector_iterator<std::_Vector_val<WeaponInfo,std::allocator<WeaponInfo> > >::operator*
_TEXT	ENDS
PUBLIC	??E?$_Vector_iterator@V?$_Vector_val@UWeaponInfo@@V?$allocator@UWeaponInfo@@@std@@@std@@@std@@QAEAAV01@XZ ; std::_Vector_iterator<std::_Vector_val<WeaponInfo,std::allocator<WeaponInfo> > >::operator++
; Function compile flags: /Ogsp
;	COMDAT ??E?$_Vector_iterator@V?$_Vector_val@UWeaponInfo@@V?$allocator@UWeaponInfo@@@std@@@std@@@std@@QAEAAV01@XZ
_TEXT	SEGMENT
??E?$_Vector_iterator@V?$_Vector_val@UWeaponInfo@@V?$allocator@UWeaponInfo@@@std@@@std@@@std@@QAEAAV01@XZ PROC ; std::_Vector_iterator<std::_Vector_val<WeaponInfo,std::allocator<WeaponInfo> > >::operator++, COMDAT
; _this$ = ecx

; 331  : 		{	// preincrement

  00000	8b c1		 mov	 eax, ecx

; 332  : 		++*(_Mybase *)this;

  00002	83 00 28	 add	 DWORD PTR [eax], 40	; 00000028H

; 333  : 		return (*this);
; 334  : 		}

  00005	c3		 ret	 0
??E?$_Vector_iterator@V?$_Vector_val@UWeaponInfo@@V?$allocator@UWeaponInfo@@@std@@@std@@@std@@QAEAAV01@XZ ENDP ; std::_Vector_iterator<std::_Vector_val<WeaponInfo,std::allocator<WeaponInfo> > >::operator++
_TEXT	ENDS
PUBLIC	??8?$_Vector_const_iterator@V?$_Vector_val@PAVioBaseChar@@V?$allocator@PAVioBaseChar@@@std@@@std@@@std@@QBE_NABV01@@Z ; std::_Vector_const_iterator<std::_Vector_val<ioBaseChar *,std::allocator<ioBaseChar *> > >::operator==
; Function compile flags: /Ogsp
;	COMDAT ??8?$_Vector_const_iterator@V?$_Vector_val@PAVioBaseChar@@V?$allocator@PAVioBaseChar@@@std@@@std@@@std@@QBE_NABV01@@Z
_TEXT	SEGMENT
__Right$ = 8						; size = 4
??8?$_Vector_const_iterator@V?$_Vector_val@PAVioBaseChar@@V?$allocator@PAVioBaseChar@@@std@@@std@@@std@@QBE_NABV01@@Z PROC ; std::_Vector_const_iterator<std::_Vector_val<ioBaseChar *,std::allocator<ioBaseChar *> > >::operator==, COMDAT
; _this$ = ecx

; 201  : 		{	// test for iterator equality

  00000	55		 push	 ebp
  00001	8b ec		 mov	 ebp, esp

; 202  : 		_Compat(_Right);
; 203  : 		return (this->_Ptr == _Right._Ptr);

  00003	8b 01		 mov	 eax, DWORD PTR [ecx]
  00005	8b 4d 08	 mov	 ecx, DWORD PTR __Right$[ebp]
  00008	2b 01		 sub	 eax, DWORD PTR [ecx]
  0000a	f7 d8		 neg	 eax
  0000c	1b c0		 sbb	 eax, eax
  0000e	40		 inc	 eax

; 204  : 		}

  0000f	5d		 pop	 ebp
  00010	c2 04 00	 ret	 4
??8?$_Vector_const_iterator@V?$_Vector_val@PAVioBaseChar@@V?$allocator@PAVioBaseChar@@@std@@@std@@@std@@QBE_NABV01@@Z ENDP ; std::_Vector_const_iterator<std::_Vector_val<ioBaseChar *,std::allocator<ioBaseChar *> > >::operator==
_TEXT	ENDS
PUBLIC	_this$GSCopy$
PUBLIC	__$ArrayPad$
PUBLIC	??$LoadString_e@$0BF@@ioINILoader@@QAEXAAY0BF@$$CBDAAY00$$CBDPADH@Z ; ioINILoader::LoadString_e<21>
EXTRN	__imp_?LoadStringA@ioINILoader@@QAEXPBD0PADH@Z:PROC
EXTRN	___security_cookie:DWORD
; Function compile flags: /Ogsp
; File d:\lost saga for developer\youtube\tutorial\source\src\io3dengine\ioiniloader.h
;	COMDAT ??$LoadString_e@$0BF@@ioINILoader@@QAEXAAY0BF@$$CBDAAY00$$CBDPADH@Z
_TEXT	SEGMENT
_this$GSCopy$ = -36					; size = 4
__k$ = -32						; size = 21
__$ArrayPad$ = -4					; size = 4
_k$ = 8							; size = 4
_d$ = 12						; size = 4
_b$ = 16						; size = 4
_i$ = 20						; size = 4
??$LoadString_e@$0BF@@ioINILoader@@QAEXAAY0BF@$$CBDAAY00$$CBDPADH@Z PROC ; ioINILoader::LoadString_e<21>, COMDAT
; _this$ = ecx

; 161  : 	{

  00000	55		 push	 ebp
  00001	8b ec		 mov	 ebp, esp
  00003	83 ec 24	 sub	 esp, 36			; 00000024H
  00006	a1 00 00 00 00	 mov	 eax, DWORD PTR ___security_cookie
  0000b	33 c5		 xor	 eax, ebp
  0000d	89 45 fc	 mov	 DWORD PTR __$ArrayPad$[ebp], eax
  00010	8b 45 08	 mov	 eax, DWORD PTR _k$[ebp]

; 162  : 		_ENCSTR(k, _k);

  00013	8a 10		 mov	 dl, BYTE PTR [eax]
  00015	53		 push	 ebx
  00016	56		 push	 esi
  00017	8b 75 0c	 mov	 esi, DWORD PTR _d$[ebp]
  0001a	57		 push	 edi
  0001b	8b 7d 10	 mov	 edi, DWORD PTR _b$[ebp]
  0001e	89 4d dc	 mov	 DWORD PTR _this$GSCopy$[ebp], ecx
  00021	84 d2		 test	 dl, dl
  00023	0f 84 f7 01 00
	00		 je	 $LN96@LoadString
  00029	80 f2 ed	 xor	 dl, -19			; ffffffedH
  0002c	88 55 e0	 mov	 BYTE PTR __k$[ebp], dl
  0002f	8a 50 01	 mov	 dl, BYTE PTR [eax+1]
  00032	84 d2		 test	 dl, dl
  00034	0f 84 e0 01 00
	00		 je	 $LN95@LoadString
  0003a	b1 ec		 mov	 cl, -20			; ffffffecH
  0003c	32 d1		 xor	 dl, cl
  0003e	88 55 e1	 mov	 BYTE PTR __k$[ebp+1], dl
  00041	8a 50 02	 mov	 dl, BYTE PTR [eax+2]
  00044	84 d2		 test	 dl, dl
  00046	0f 84 c8 01 00
	00		 je	 $LN94@LoadString
  0004c	b3 eb		 mov	 bl, -21			; ffffffebH
  0004e	32 d3		 xor	 dl, bl
  00050	88 55 e2	 mov	 BYTE PTR __k$[ebp+2], dl
  00053	8a 50 03	 mov	 dl, BYTE PTR [eax+3]
  00056	84 d2		 test	 dl, dl
  00058	0f 84 b0 01 00
	00		 je	 $LN93@LoadString
  0005e	80 f2 ea	 xor	 dl, -22			; ffffffeaH
  00061	88 55 e3	 mov	 BYTE PTR __k$[ebp+3], dl
  00064	8a 50 04	 mov	 dl, BYTE PTR [eax+4]
  00067	84 d2		 test	 dl, dl
  00069	0f 84 99 01 00
	00		 je	 $LN92@LoadString
  0006f	80 f2 ed	 xor	 dl, -19			; ffffffedH
  00072	88 55 e4	 mov	 BYTE PTR __k$[ebp+4], dl
  00075	8a 50 05	 mov	 dl, BYTE PTR [eax+5]
  00078	84 d2		 test	 dl, dl
  0007a	0f 84 83 01 00
	00		 je	 $LN91@LoadString
  00080	32 d1		 xor	 dl, cl
  00082	88 55 e5	 mov	 BYTE PTR __k$[ebp+5], dl
  00085	8a 50 06	 mov	 dl, BYTE PTR [eax+6]
  00088	84 d2		 test	 dl, dl
  0008a	0f 84 6e 01 00
	00		 je	 $LN90@LoadString
  00090	32 d3		 xor	 dl, bl
  00092	88 55 e6	 mov	 BYTE PTR __k$[ebp+6], dl
  00095	8a 50 07	 mov	 dl, BYTE PTR [eax+7]
  00098	84 d2		 test	 dl, dl
  0009a	0f 84 58 01 00
	00		 je	 $LN89@LoadString
  000a0	80 f2 ea	 xor	 dl, -22			; ffffffeaH
  000a3	88 55 e7	 mov	 BYTE PTR __k$[ebp+7], dl
  000a6	8a 50 08	 mov	 dl, BYTE PTR [eax+8]
  000a9	84 d2		 test	 dl, dl
  000ab	0f 84 41 01 00
	00		 je	 $LN88@LoadString
  000b1	80 f2 ed	 xor	 dl, -19			; ffffffedH
  000b4	88 55 e8	 mov	 BYTE PTR __k$[ebp+8], dl
  000b7	8a 50 09	 mov	 dl, BYTE PTR [eax+9]
  000ba	84 d2		 test	 dl, dl
  000bc	0f 84 2b 01 00
	00		 je	 $LN87@LoadString
  000c2	32 d1		 xor	 dl, cl
  000c4	88 55 e9	 mov	 BYTE PTR __k$[ebp+9], dl
  000c7	8a 50 0a	 mov	 dl, BYTE PTR [eax+10]
  000ca	84 d2		 test	 dl, dl
  000cc	0f 84 16 01 00
	00		 je	 $LN86@LoadString
  000d2	32 d3		 xor	 dl, bl
  000d4	88 55 ea	 mov	 BYTE PTR __k$[ebp+10], dl
  000d7	8a 50 0b	 mov	 dl, BYTE PTR [eax+11]
  000da	84 d2		 test	 dl, dl
  000dc	0f 84 00 01 00
	00		 je	 $LN85@LoadString
  000e2	80 f2 ea	 xor	 dl, -22			; ffffffeaH
  000e5	88 55 eb	 mov	 BYTE PTR __k$[ebp+11], dl
  000e8	8a 50 0c	 mov	 dl, BYTE PTR [eax+12]
  000eb	84 d2		 test	 dl, dl
  000ed	0f 84 e9 00 00
	00		 je	 $LN84@LoadString
  000f3	80 f2 ed	 xor	 dl, -19			; ffffffedH
  000f6	88 55 ec	 mov	 BYTE PTR __k$[ebp+12], dl
  000f9	8a 50 0d	 mov	 dl, BYTE PTR [eax+13]
  000fc	84 d2		 test	 dl, dl
  000fe	0f 84 d3 00 00
	00		 je	 $LN83@LoadString
  00104	32 d1		 xor	 dl, cl
  00106	88 55 ed	 mov	 BYTE PTR __k$[ebp+13], dl
  00109	8a 50 0e	 mov	 dl, BYTE PTR [eax+14]
  0010c	84 d2		 test	 dl, dl
  0010e	0f 84 be 00 00
	00		 je	 $LN82@LoadString
  00114	32 d3		 xor	 dl, bl
  00116	88 55 ee	 mov	 BYTE PTR __k$[ebp+14], dl
  00119	8a 50 0f	 mov	 dl, BYTE PTR [eax+15]
  0011c	84 d2		 test	 dl, dl
  0011e	0f 84 a8 00 00
	00		 je	 $LN81@LoadString
  00124	80 f2 ea	 xor	 dl, -22			; ffffffeaH
  00127	88 55 ef	 mov	 BYTE PTR __k$[ebp+15], dl
  0012a	8a 50 10	 mov	 dl, BYTE PTR [eax+16]
  0012d	84 d2		 test	 dl, dl
  0012f	0f 84 91 00 00
	00		 je	 $LN80@LoadString
  00135	80 f2 ed	 xor	 dl, -19			; ffffffedH
  00138	88 55 f0	 mov	 BYTE PTR __k$[ebp+16], dl
  0013b	8a 50 11	 mov	 dl, BYTE PTR [eax+17]
  0013e	84 d2		 test	 dl, dl
  00140	74 7f		 je	 SHORT $LN79@LoadString
  00142	32 d1		 xor	 dl, cl
  00144	88 55 f1	 mov	 BYTE PTR __k$[ebp+17], dl
  00147	8a 50 12	 mov	 dl, BYTE PTR [eax+18]
  0014a	84 d2		 test	 dl, dl
  0014c	74 6e		 je	 SHORT $LN78@LoadString
  0014e	32 d3		 xor	 dl, bl
  00150	88 55 f2	 mov	 BYTE PTR __k$[ebp+18], dl
  00153	8a 50 13	 mov	 dl, BYTE PTR [eax+19]
  00156	84 d2		 test	 dl, dl
  00158	74 5c		 je	 SHORT $LN77@LoadString
  0015a	80 f2 ea	 xor	 dl, -22			; ffffffeaH
  0015d	80 78 14 00	 cmp	 BYTE PTR [eax+20], 0
  00161	88 55 f3	 mov	 BYTE PTR __k$[ebp+19], dl
  00164	0f 84 ba 00 00
	00		 je	 $LN111@LoadString
  0016a	8a 50 15	 mov	 dl, BYTE PTR [eax+21]
  0016d	84 d2		 test	 dl, dl
  0016f	74 40		 je	 SHORT $LN75@LoadString
  00171	32 d1		 xor	 dl, cl
  00173	88 55 f5	 mov	 BYTE PTR __k$[ebp+21], dl
  00176	8a 50 16	 mov	 dl, BYTE PTR [eax+22]
  00179	84 d2		 test	 dl, dl
  0017b	74 2f		 je	 SHORT $LN74@LoadString
  0017d	32 d3		 xor	 dl, bl
  0017f	88 55 f6	 mov	 BYTE PTR __k$[ebp+22], dl
  00182	8a 50 17	 mov	 dl, BYTE PTR [eax+23]
  00185	84 d2		 test	 dl, dl
  00187	74 1d		 je	 SHORT $LN73@LoadString
  00189	8a 40 18	 mov	 al, BYTE PTR [eax+24]
  0018c	80 f2 ea	 xor	 dl, -22			; ffffffeaH
  0018f	88 55 f7	 mov	 BYTE PTR __k$[ebp+23], dl
  00192	84 c0		 test	 al, al
  00194	74 0a		 je	 SHORT $LN72@LoadString
  00196	34 ed		 xor	 al, -19			; ffffffedH
  00198	88 45 f8	 mov	 BYTE PTR __k$[ebp+24], al
  0019b	e9 84 00 00 00	 jmp	 $LN111@LoadString
$LN72@LoadString:
  001a0	c6 45 f8 ed	 mov	 BYTE PTR __k$[ebp+24], -19 ; ffffffedH
  001a4	eb 7e		 jmp	 SHORT $LN111@LoadString
$LN73@LoadString:
  001a6	c6 45 f7 ea	 mov	 BYTE PTR __k$[ebp+23], -22 ; ffffffeaH
  001aa	eb 78		 jmp	 SHORT $LN111@LoadString
$LN74@LoadString:
  001ac	88 5d f6	 mov	 BYTE PTR __k$[ebp+22], bl
  001af	eb 73		 jmp	 SHORT $LN111@LoadString
$LN75@LoadString:
  001b1	88 4d f5	 mov	 BYTE PTR __k$[ebp+21], cl
  001b4	eb 6e		 jmp	 SHORT $LN111@LoadString
$LN77@LoadString:
  001b6	c6 45 f3 ea	 mov	 BYTE PTR __k$[ebp+19], -22 ; ffffffeaH
  001ba	eb 68		 jmp	 SHORT $LN111@LoadString
$LN78@LoadString:
  001bc	88 5d f2	 mov	 BYTE PTR __k$[ebp+18], bl
  001bf	eb 63		 jmp	 SHORT $LN111@LoadString
$LN79@LoadString:
  001c1	88 4d f1	 mov	 BYTE PTR __k$[ebp+17], cl
  001c4	eb 5e		 jmp	 SHORT $LN111@LoadString
$LN80@LoadString:
  001c6	c6 45 f0 ed	 mov	 BYTE PTR __k$[ebp+16], -19 ; ffffffedH
  001ca	eb 58		 jmp	 SHORT $LN111@LoadString
$LN81@LoadString:
  001cc	c6 45 ef ea	 mov	 BYTE PTR __k$[ebp+15], -22 ; ffffffeaH
  001d0	eb 52		 jmp	 SHORT $LN111@LoadString
$LN82@LoadString:
  001d2	88 5d ee	 mov	 BYTE PTR __k$[ebp+14], bl
  001d5	eb 4d		 jmp	 SHORT $LN111@LoadString
$LN83@LoadString:
  001d7	88 4d ed	 mov	 BYTE PTR __k$[ebp+13], cl
  001da	eb 48		 jmp	 SHORT $LN111@LoadString
$LN84@LoadString:
  001dc	c6 45 ec ed	 mov	 BYTE PTR __k$[ebp+12], -19 ; ffffffedH
  001e0	eb 42		 jmp	 SHORT $LN111@LoadString
$LN85@LoadString:
  001e2	c6 45 eb ea	 mov	 BYTE PTR __k$[ebp+11], -22 ; ffffffeaH
  001e6	eb 3c		 jmp	 SHORT $LN111@LoadString
$LN86@LoadString:
  001e8	88 5d ea	 mov	 BYTE PTR __k$[ebp+10], bl
  001eb	eb 37		 jmp	 SHORT $LN111@LoadString
$LN87@LoadString:
  001ed	88 4d e9	 mov	 BYTE PTR __k$[ebp+9], cl
  001f0	eb 32		 jmp	 SHORT $LN111@LoadString
$LN88@LoadString:
  001f2	c6 45 e8 ed	 mov	 BYTE PTR __k$[ebp+8], -19 ; ffffffedH
  001f6	eb 2c		 jmp	 SHORT $LN111@LoadString
$LN89@LoadString:
  001f8	c6 45 e7 ea	 mov	 BYTE PTR __k$[ebp+7], -22 ; ffffffeaH
  001fc	eb 26		 jmp	 SHORT $LN111@LoadString
$LN90@LoadString:
  001fe	88 5d e6	 mov	 BYTE PTR __k$[ebp+6], bl
  00201	eb 21		 jmp	 SHORT $LN111@LoadString
$LN91@LoadString:
  00203	88 4d e5	 mov	 BYTE PTR __k$[ebp+5], cl
  00206	eb 1c		 jmp	 SHORT $LN111@LoadString
$LN92@LoadString:
  00208	c6 45 e4 ed	 mov	 BYTE PTR __k$[ebp+4], -19 ; ffffffedH
  0020c	eb 16		 jmp	 SHORT $LN111@LoadString
$LN93@LoadString:
  0020e	c6 45 e3 ea	 mov	 BYTE PTR __k$[ebp+3], -22 ; ffffffeaH
  00212	eb 10		 jmp	 SHORT $LN111@LoadString
$LN94@LoadString:
  00214	c6 45 e2 eb	 mov	 BYTE PTR __k$[ebp+2], -21 ; ffffffebH
  00218	eb 0a		 jmp	 SHORT $LN111@LoadString
$LN95@LoadString:
  0021a	c6 45 e1 ec	 mov	 BYTE PTR __k$[ebp+1], -20 ; ffffffecH
  0021e	eb 04		 jmp	 SHORT $LN111@LoadString
$LN96@LoadString:
  00220	c6 45 e0 ed	 mov	 BYTE PTR __k$[ebp], -19	; ffffffedH
$LN111@LoadString:
  00224	6a 05		 push	 5
  00226	8d 45 e0	 lea	 eax, DWORD PTR __k$[ebp]
  00229	c6 45 f4 00	 mov	 BYTE PTR __k$[ebp+20], 0
  0022d	5a		 pop	 edx
$LL104@LoadString:
  0022e	81 30 ed ec eb
	ea		 xor	 DWORD PTR [eax], -353637139 ; eaebecedH
  00234	83 c0 04	 add	 eax, 4
  00237	4a		 dec	 edx
  00238	75 f4		 jne	 SHORT $LL104@LoadString

; 163  : 		LoadString(_k, d, b, i);

  0023a	ff 75 14	 push	 DWORD PTR _i$[ebp]
  0023d	8b 4d dc	 mov	 ecx, DWORD PTR _this$GSCopy$[ebp]
  00240	57		 push	 edi
  00241	56		 push	 esi
  00242	8d 45 e0	 lea	 eax, DWORD PTR __k$[ebp]
  00245	50		 push	 eax
  00246	ff 15 00 00 00
	00		 call	 DWORD PTR __imp_?LoadStringA@ioINILoader@@QAEXPBD0PADH@Z

; 164  : 	}

  0024c	8b 4d fc	 mov	 ecx, DWORD PTR __$ArrayPad$[ebp]
  0024f	5f		 pop	 edi
  00250	5e		 pop	 esi
  00251	33 cd		 xor	 ecx, ebp
  00253	5b		 pop	 ebx
  00254	e8 00 00 00 00	 call	 @__security_check_cookie@4
  00259	c9		 leave
  0025a	c2 10 00	 ret	 16			; 00000010H
??$LoadString_e@$0BF@@ioINILoader@@QAEXAAY0BF@$$CBDAAY00$$CBDPADH@Z ENDP ; ioINILoader::LoadString_e<21>
_TEXT	ENDS
PUBLIC	__$ArrayPad$
PUBLIC	??$LoadFloat_e@$0BL@@ioINILoader@@QAEMAAY0BL@$$CBDM@Z ; ioINILoader::LoadFloat_e<27>
EXTRN	__imp_?LoadFloat@ioINILoader@@QAEMPBDM@Z:PROC
; Function compile flags: /Ogsp
;	COMDAT ??$LoadFloat_e@$0BL@@ioINILoader@@QAEMAAY0BL@$$CBDM@Z
_TEXT	SEGMENT
__k$ = -36						; size = 27
__$ArrayPad$ = -4					; size = 4
_k$ = 8							; size = 4
_f$ = 12						; size = 4
??$LoadFloat_e@$0BL@@ioINILoader@@QAEMAAY0BL@$$CBDM@Z PROC ; ioINILoader::LoadFloat_e<27>, COMDAT
; _this$ = ecx

; 135  : 	{

  00000	55		 push	 ebp
  00001	8b ec		 mov	 ebp, esp
  00003	83 ec 24	 sub	 esp, 36			; 00000024H
  00006	a1 00 00 00 00	 mov	 eax, DWORD PTR ___security_cookie
  0000b	33 c5		 xor	 eax, ebp
  0000d	89 45 fc	 mov	 DWORD PTR __$ArrayPad$[ebp], eax
  00010	8b 45 08	 mov	 eax, DWORD PTR _k$[ebp]

; 136  : 		_ENCSTR(k, _k);

  00013	8a 10		 mov	 dl, BYTE PTR [eax]
  00015	53		 push	 ebx
  00016	56		 push	 esi
  00017	8b f1		 mov	 esi, ecx
  00019	84 d2		 test	 dl, dl
  0001b	0f 84 91 02 00
	00		 je	 $LN96@LoadFloat_
  00021	80 f2 ed	 xor	 dl, -19			; ffffffedH
  00024	88 55 dc	 mov	 BYTE PTR __k$[ebp], dl
  00027	8a 50 01	 mov	 dl, BYTE PTR [eax+1]
  0002a	84 d2		 test	 dl, dl
  0002c	0f 84 7a 02 00
	00		 je	 $LN95@LoadFloat_
  00032	b1 ec		 mov	 cl, -20			; ffffffecH
  00034	32 d1		 xor	 dl, cl
  00036	88 55 dd	 mov	 BYTE PTR __k$[ebp+1], dl
  00039	8a 50 02	 mov	 dl, BYTE PTR [eax+2]
  0003c	84 d2		 test	 dl, dl
  0003e	0f 84 62 02 00
	00		 je	 $LN94@LoadFloat_
  00044	80 f2 eb	 xor	 dl, -21			; ffffffebH
  00047	88 55 de	 mov	 BYTE PTR __k$[ebp+2], dl
  0004a	8a 50 03	 mov	 dl, BYTE PTR [eax+3]
  0004d	84 d2		 test	 dl, dl
  0004f	0f 84 4b 02 00
	00		 je	 $LN93@LoadFloat_
  00055	b3 ea		 mov	 bl, -22			; ffffffeaH
  00057	32 d3		 xor	 dl, bl
  00059	88 55 df	 mov	 BYTE PTR __k$[ebp+3], dl
  0005c	8a 50 04	 mov	 dl, BYTE PTR [eax+4]
  0005f	84 d2		 test	 dl, dl
  00061	0f 84 33 02 00
	00		 je	 $LN92@LoadFloat_
  00067	80 f2 ed	 xor	 dl, -19			; ffffffedH
  0006a	88 55 e0	 mov	 BYTE PTR __k$[ebp+4], dl
  0006d	8a 50 05	 mov	 dl, BYTE PTR [eax+5]
  00070	84 d2		 test	 dl, dl
  00072	0f 84 1d 02 00
	00		 je	 $LN91@LoadFloat_
  00078	32 d1		 xor	 dl, cl
  0007a	88 55 e1	 mov	 BYTE PTR __k$[ebp+5], dl
  0007d	8a 50 06	 mov	 dl, BYTE PTR [eax+6]
  00080	84 d2		 test	 dl, dl
  00082	0f 84 07 02 00
	00		 je	 $LN90@LoadFloat_
  00088	80 f2 eb	 xor	 dl, -21			; ffffffebH
  0008b	88 55 e2	 mov	 BYTE PTR __k$[ebp+6], dl
  0008e	8a 50 07	 mov	 dl, BYTE PTR [eax+7]
  00091	84 d2		 test	 dl, dl
  00093	0f 84 f1 01 00
	00		 je	 $LN89@LoadFloat_
  00099	32 d3		 xor	 dl, bl
  0009b	88 55 e3	 mov	 BYTE PTR __k$[ebp+7], dl
  0009e	8a 50 08	 mov	 dl, BYTE PTR [eax+8]
  000a1	84 d2		 test	 dl, dl
  000a3	0f 84 db 01 00
	00		 je	 $LN88@LoadFloat_
  000a9	80 f2 ed	 xor	 dl, -19			; ffffffedH
  000ac	88 55 e4	 mov	 BYTE PTR __k$[ebp+8], dl
  000af	8a 50 09	 mov	 dl, BYTE PTR [eax+9]
  000b2	84 d2		 test	 dl, dl
  000b4	0f 84 c5 01 00
	00		 je	 $LN87@LoadFloat_
  000ba	32 d1		 xor	 dl, cl
  000bc	88 55 e5	 mov	 BYTE PTR __k$[ebp+9], dl
  000bf	8a 50 0a	 mov	 dl, BYTE PTR [eax+10]
  000c2	84 d2		 test	 dl, dl
  000c4	0f 84 af 01 00
	00		 je	 $LN86@LoadFloat_
  000ca	80 f2 eb	 xor	 dl, -21			; ffffffebH
  000cd	88 55 e6	 mov	 BYTE PTR __k$[ebp+10], dl
  000d0	8a 50 0b	 mov	 dl, BYTE PTR [eax+11]
  000d3	84 d2		 test	 dl, dl
  000d5	0f 84 99 01 00
	00		 je	 $LN85@LoadFloat_
  000db	32 d3		 xor	 dl, bl
  000dd	88 55 e7	 mov	 BYTE PTR __k$[ebp+11], dl
  000e0	8a 50 0c	 mov	 dl, BYTE PTR [eax+12]
  000e3	84 d2		 test	 dl, dl
  000e5	0f 84 83 01 00
	00		 je	 $LN84@LoadFloat_
  000eb	80 f2 ed	 xor	 dl, -19			; ffffffedH
  000ee	88 55 e8	 mov	 BYTE PTR __k$[ebp+12], dl
  000f1	8a 50 0d	 mov	 dl, BYTE PTR [eax+13]
  000f4	84 d2		 test	 dl, dl
  000f6	0f 84 6d 01 00
	00		 je	 $LN83@LoadFloat_
  000fc	32 d1		 xor	 dl, cl
  000fe	88 55 e9	 mov	 BYTE PTR __k$[ebp+13], dl
  00101	8a 50 0e	 mov	 dl, BYTE PTR [eax+14]
  00104	84 d2		 test	 dl, dl
  00106	0f 84 57 01 00
	00		 je	 $LN82@LoadFloat_
  0010c	80 f2 eb	 xor	 dl, -21			; ffffffebH
  0010f	88 55 ea	 mov	 BYTE PTR __k$[ebp+14], dl
  00112	8a 50 0f	 mov	 dl, BYTE PTR [eax+15]
  00115	84 d2		 test	 dl, dl
  00117	0f 84 41 01 00
	00		 je	 $LN81@LoadFloat_
  0011d	32 d3		 xor	 dl, bl
  0011f	88 55 eb	 mov	 BYTE PTR __k$[ebp+15], dl
  00122	8a 50 10	 mov	 dl, BYTE PTR [eax+16]
  00125	84 d2		 test	 dl, dl
  00127	0f 84 2b 01 00
	00		 je	 $LN80@LoadFloat_
  0012d	80 f2 ed	 xor	 dl, -19			; ffffffedH
  00130	88 55 ec	 mov	 BYTE PTR __k$[ebp+16], dl
  00133	8a 50 11	 mov	 dl, BYTE PTR [eax+17]
  00136	84 d2		 test	 dl, dl
  00138	0f 84 15 01 00
	00		 je	 $LN79@LoadFloat_
  0013e	32 d1		 xor	 dl, cl
  00140	88 55 ed	 mov	 BYTE PTR __k$[ebp+17], dl
  00143	8a 50 12	 mov	 dl, BYTE PTR [eax+18]
  00146	84 d2		 test	 dl, dl
  00148	0f 84 ff 00 00
	00		 je	 $LN78@LoadFloat_
  0014e	80 f2 eb	 xor	 dl, -21			; ffffffebH
  00151	88 55 ee	 mov	 BYTE PTR __k$[ebp+18], dl
  00154	8a 50 13	 mov	 dl, BYTE PTR [eax+19]
  00157	84 d2		 test	 dl, dl
  00159	0f 84 e9 00 00
	00		 je	 $LN77@LoadFloat_
  0015f	32 d3		 xor	 dl, bl
  00161	88 55 ef	 mov	 BYTE PTR __k$[ebp+19], dl
  00164	8a 50 14	 mov	 dl, BYTE PTR [eax+20]
  00167	84 d2		 test	 dl, dl
  00169	0f 84 d3 00 00
	00		 je	 $LN76@LoadFloat_
  0016f	80 f2 ed	 xor	 dl, -19			; ffffffedH
  00172	88 55 f0	 mov	 BYTE PTR __k$[ebp+20], dl
  00175	8a 50 15	 mov	 dl, BYTE PTR [eax+21]
  00178	84 d2		 test	 dl, dl
  0017a	0f 84 bd 00 00
	00		 je	 $LN75@LoadFloat_
  00180	32 d1		 xor	 dl, cl
  00182	88 55 f1	 mov	 BYTE PTR __k$[ebp+21], dl
  00185	8a 50 16	 mov	 dl, BYTE PTR [eax+22]
  00188	84 d2		 test	 dl, dl
  0018a	0f 84 a7 00 00
	00		 je	 $LN74@LoadFloat_
  00190	80 f2 eb	 xor	 dl, -21			; ffffffebH
  00193	88 55 f2	 mov	 BYTE PTR __k$[ebp+22], dl
  00196	8a 50 17	 mov	 dl, BYTE PTR [eax+23]
  00199	84 d2		 test	 dl, dl
  0019b	0f 84 91 00 00
	00		 je	 $LN73@LoadFloat_
  001a1	32 d3		 xor	 dl, bl
  001a3	88 55 f3	 mov	 BYTE PTR __k$[ebp+23], dl
  001a6	8a 50 18	 mov	 dl, BYTE PTR [eax+24]
  001a9	84 d2		 test	 dl, dl
  001ab	74 7c		 je	 SHORT $LN72@LoadFloat_
  001ad	80 f2 ed	 xor	 dl, -19			; ffffffedH
  001b0	88 55 f4	 mov	 BYTE PTR __k$[ebp+24], dl
  001b3	8a 50 19	 mov	 dl, BYTE PTR [eax+25]
  001b6	84 d2		 test	 dl, dl
  001b8	74 67		 je	 SHORT $LN71@LoadFloat_
  001ba	32 d1		 xor	 dl, cl
  001bc	80 78 1a 00	 cmp	 BYTE PTR [eax+26], 0
  001c0	88 55 f5	 mov	 BYTE PTR __k$[ebp+25], dl
  001c3	0f 84 ed 00 00
	00		 je	 $LN1@LoadFloat_
  001c9	8a 50 1b	 mov	 dl, BYTE PTR [eax+27]
  001cc	84 d2		 test	 dl, dl
  001ce	74 49		 je	 SHORT $LN69@LoadFloat_
  001d0	32 d3		 xor	 dl, bl
  001d2	88 55 f7	 mov	 BYTE PTR __k$[ebp+27], dl
  001d5	8a 50 1c	 mov	 dl, BYTE PTR [eax+28]
  001d8	84 d2		 test	 dl, dl
  001da	74 34		 je	 SHORT $LN68@LoadFloat_
  001dc	80 f2 ed	 xor	 dl, -19			; ffffffedH
  001df	88 55 f8	 mov	 BYTE PTR __k$[ebp+28], dl
  001e2	8a 50 1d	 mov	 dl, BYTE PTR [eax+29]
  001e5	84 d2		 test	 dl, dl
  001e7	74 1f		 je	 SHORT $LN67@LoadFloat_
  001e9	8a 40 1e	 mov	 al, BYTE PTR [eax+30]
  001ec	32 d1		 xor	 dl, cl
  001ee	88 55 f9	 mov	 BYTE PTR __k$[ebp+29], dl
  001f1	84 c0		 test	 al, al
  001f3	74 0a		 je	 SHORT $LN66@LoadFloat_
  001f5	34 eb		 xor	 al, -21			; ffffffebH
  001f7	88 45 fa	 mov	 BYTE PTR __k$[ebp+30], al
  001fa	e9 b7 00 00 00	 jmp	 $LN1@LoadFloat_
$LN66@LoadFloat_:
  001ff	c6 45 fa eb	 mov	 BYTE PTR __k$[ebp+30], -21 ; ffffffebH
  00203	e9 ae 00 00 00	 jmp	 $LN1@LoadFloat_
$LN67@LoadFloat_:
  00208	88 4d f9	 mov	 BYTE PTR __k$[ebp+29], cl
  0020b	e9 a6 00 00 00	 jmp	 $LN1@LoadFloat_
$LN68@LoadFloat_:
  00210	c6 45 f8 ed	 mov	 BYTE PTR __k$[ebp+28], -19 ; ffffffedH
  00214	e9 9d 00 00 00	 jmp	 $LN1@LoadFloat_
$LN69@LoadFloat_:
  00219	88 5d f7	 mov	 BYTE PTR __k$[ebp+27], bl
  0021c	e9 95 00 00 00	 jmp	 $LN1@LoadFloat_
$LN71@LoadFloat_:
  00221	88 4d f5	 mov	 BYTE PTR __k$[ebp+25], cl
  00224	e9 8d 00 00 00	 jmp	 $LN1@LoadFloat_
$LN72@LoadFloat_:
  00229	c6 45 f4 ed	 mov	 BYTE PTR __k$[ebp+24], -19 ; ffffffedH
  0022d	e9 84 00 00 00	 jmp	 $LN1@LoadFloat_
$LN73@LoadFloat_:
  00232	88 5d f3	 mov	 BYTE PTR __k$[ebp+23], bl
  00235	eb 7f		 jmp	 SHORT $LN1@LoadFloat_
$LN74@LoadFloat_:
  00237	c6 45 f2 eb	 mov	 BYTE PTR __k$[ebp+22], -21 ; ffffffebH
  0023b	eb 79		 jmp	 SHORT $LN1@LoadFloat_
$LN75@LoadFloat_:
  0023d	88 4d f1	 mov	 BYTE PTR __k$[ebp+21], cl
  00240	eb 74		 jmp	 SHORT $LN1@LoadFloat_
$LN76@LoadFloat_:
  00242	c6 45 f0 ed	 mov	 BYTE PTR __k$[ebp+20], -19 ; ffffffedH
  00246	eb 6e		 jmp	 SHORT $LN1@LoadFloat_
$LN77@LoadFloat_:
  00248	88 5d ef	 mov	 BYTE PTR __k$[ebp+19], bl
  0024b	eb 69		 jmp	 SHORT $LN1@LoadFloat_
$LN78@LoadFloat_:
  0024d	c6 45 ee eb	 mov	 BYTE PTR __k$[ebp+18], -21 ; ffffffebH
  00251	eb 63		 jmp	 SHORT $LN1@LoadFloat_
$LN79@LoadFloat_:
  00253	88 4d ed	 mov	 BYTE PTR __k$[ebp+17], cl
  00256	eb 5e		 jmp	 SHORT $LN1@LoadFloat_
$LN80@LoadFloat_:
  00258	c6 45 ec ed	 mov	 BYTE PTR __k$[ebp+16], -19 ; ffffffedH
  0025c	eb 58		 jmp	 SHORT $LN1@LoadFloat_
$LN81@LoadFloat_:
  0025e	88 5d eb	 mov	 BYTE PTR __k$[ebp+15], bl
  00261	eb 53		 jmp	 SHORT $LN1@LoadFloat_
$LN82@LoadFloat_:
  00263	c6 45 ea eb	 mov	 BYTE PTR __k$[ebp+14], -21 ; ffffffebH
  00267	eb 4d		 jmp	 SHORT $LN1@LoadFloat_
$LN83@LoadFloat_:
  00269	88 4d e9	 mov	 BYTE PTR __k$[ebp+13], cl
  0026c	eb 48		 jmp	 SHORT $LN1@LoadFloat_
$LN84@LoadFloat_:
  0026e	c6 45 e8 ed	 mov	 BYTE PTR __k$[ebp+12], -19 ; ffffffedH
  00272	eb 42		 jmp	 SHORT $LN1@LoadFloat_
$LN85@LoadFloat_:
  00274	88 5d e7	 mov	 BYTE PTR __k$[ebp+11], bl
  00277	eb 3d		 jmp	 SHORT $LN1@LoadFloat_
$LN86@LoadFloat_:
  00279	c6 45 e6 eb	 mov	 BYTE PTR __k$[ebp+10], -21 ; ffffffebH
  0027d	eb 37		 jmp	 SHORT $LN1@LoadFloat_
$LN87@LoadFloat_:
  0027f	88 4d e5	 mov	 BYTE PTR __k$[ebp+9], cl
  00282	eb 32		 jmp	 SHORT $LN1@LoadFloat_
$LN88@LoadFloat_:
  00284	c6 45 e4 ed	 mov	 BYTE PTR __k$[ebp+8], -19 ; ffffffedH
  00288	eb 2c		 jmp	 SHORT $LN1@LoadFloat_
$LN89@LoadFloat_:
  0028a	88 5d e3	 mov	 BYTE PTR __k$[ebp+7], bl
  0028d	eb 27		 jmp	 SHORT $LN1@LoadFloat_
$LN90@LoadFloat_:
  0028f	c6 45 e2 eb	 mov	 BYTE PTR __k$[ebp+6], -21 ; ffffffebH
  00293	eb 21		 jmp	 SHORT $LN1@LoadFloat_
$LN91@LoadFloat_:
  00295	88 4d e1	 mov	 BYTE PTR __k$[ebp+5], cl
  00298	eb 1c		 jmp	 SHORT $LN1@LoadFloat_
$LN92@LoadFloat_:
  0029a	c6 45 e0 ed	 mov	 BYTE PTR __k$[ebp+4], -19 ; ffffffedH
  0029e	eb 16		 jmp	 SHORT $LN1@LoadFloat_
$LN93@LoadFloat_:
  002a0	c6 45 df ea	 mov	 BYTE PTR __k$[ebp+3], -22 ; ffffffeaH
  002a4	eb 10		 jmp	 SHORT $LN1@LoadFloat_
$LN94@LoadFloat_:
  002a6	c6 45 de eb	 mov	 BYTE PTR __k$[ebp+2], -21 ; ffffffebH
  002aa	eb 0a		 jmp	 SHORT $LN1@LoadFloat_
$LN95@LoadFloat_:
  002ac	c6 45 dd ec	 mov	 BYTE PTR __k$[ebp+1], -20 ; ffffffecH
  002b0	eb 04		 jmp	 SHORT $LN1@LoadFloat_
$LN96@LoadFloat_:
  002b2	c6 45 dc ed	 mov	 BYTE PTR __k$[ebp], -19	; ffffffedH
$LN1@LoadFloat_:
  002b6	6a 06		 push	 6
  002b8	8d 45 dc	 lea	 eax, DWORD PTR __k$[ebp]
  002bb	c6 45 f6 00	 mov	 BYTE PTR __k$[ebp+26], 0
  002bf	5a		 pop	 edx
$LL104@LoadFloat_:
  002c0	81 30 ed ec eb
	ea		 xor	 DWORD PTR [eax], -353637139 ; eaebecedH
  002c6	83 c0 04	 add	 eax, 4
  002c9	4a		 dec	 edx
  002ca	75 f4		 jne	 SHORT $LL104@LoadFloat_
  002cc	6a 18		 push	 24			; 00000018H
  002ce	58		 pop	 eax
$LL101@LoadFloat_:
  002cf	8b c8		 mov	 ecx, eax
  002d1	81 e1 03 00 00
	80		 and	 ecx, -2147483645	; 80000003H
  002d7	79 05		 jns	 SHORT $LN111@LoadFloat_
  002d9	49		 dec	 ecx
  002da	83 c9 fc	 or	 ecx, -4			; fffffffcH
  002dd	41		 inc	 ecx
$LN111@LoadFloat_:
  002de	b2 ed		 mov	 dl, -19			; ffffffedH
  002e0	2a d1		 sub	 dl, cl
  002e2	30 54 05 dc	 xor	 BYTE PTR __k$[ebp+eax], dl
  002e6	40		 inc	 eax
  002e7	83 f8 1a	 cmp	 eax, 26			; 0000001aH
  002ea	7c e3		 jl	 SHORT $LL101@LoadFloat_

; 137  : 		return LoadFloat(_k, f);

  002ec	f3 0f 10 45 0c	 movss	 xmm0, DWORD PTR _f$[ebp]
  002f1	51		 push	 ecx
  002f2	8d 45 dc	 lea	 eax, DWORD PTR __k$[ebp]
  002f5	f3 0f 11 04 24	 movss	 DWORD PTR [esp], xmm0
  002fa	50		 push	 eax
  002fb	8b ce		 mov	 ecx, esi
  002fd	ff 15 00 00 00
	00		 call	 DWORD PTR __imp_?LoadFloat@ioINILoader@@QAEMPBDM@Z

; 138  : 	}

  00303	8b 4d fc	 mov	 ecx, DWORD PTR __$ArrayPad$[ebp]
  00306	5e		 pop	 esi
  00307	33 cd		 xor	 ecx, ebp
  00309	5b		 pop	 ebx
  0030a	e8 00 00 00 00	 call	 @__security_check_cookie@4
  0030f	c9		 leave
  00310	c2 08 00	 ret	 8
??$LoadFloat_e@$0BL@@ioINILoader@@QAEMAAY0BL@$$CBDM@Z ENDP ; ioINILoader::LoadFloat_e<27>
_TEXT	ENDS
PUBLIC	__$ArrayPad$
PUBLIC	??$LoadInt_e@$0BB@@ioINILoader@@QAEHAAY0BB@$$CBDH@Z ; ioINILoader::LoadInt_e<17>
EXTRN	__imp_?LoadInt@ioINILoader@@QAEHPBDH@Z:PROC
; Function compile flags: /Ogsp
;	COMDAT ??$LoadInt_e@$0BB@@ioINILoader@@QAEHAAY0BB@$$CBDH@Z
_TEXT	SEGMENT
__k$ = -28						; size = 17
__$ArrayPad$ = -4					; size = 4
_k$ = 8							; size = 4
_i$ = 12						; size = 4
??$LoadInt_e@$0BB@@ioINILoader@@QAEHAAY0BB@$$CBDH@Z PROC ; ioINILoader::LoadInt_e<17>, COMDAT
; _this$ = ecx

; 118  : 	{

  00000	55		 push	 ebp
  00001	8b ec		 mov	 ebp, esp
  00003	83 ec 1c	 sub	 esp, 28			; 0000001cH
  00006	a1 00 00 00 00	 mov	 eax, DWORD PTR ___security_cookie
  0000b	33 c5		 xor	 eax, ebp
  0000d	89 45 fc	 mov	 DWORD PTR __$ArrayPad$[ebp], eax
  00010	8b 45 08	 mov	 eax, DWORD PTR _k$[ebp]

; 119  : 		_ENCSTR(k, _k);

  00013	8a 10		 mov	 dl, BYTE PTR [eax]
  00015	56		 push	 esi
  00016	8b f1		 mov	 esi, ecx
  00018	84 d2		 test	 dl, dl
  0001a	0f 84 a7 01 00
	00		 je	 $LN96@LoadInt_e
  00020	80 f2 ed	 xor	 dl, -19			; ffffffedH
  00023	88 55 e4	 mov	 BYTE PTR __k$[ebp], dl
  00026	8a 50 01	 mov	 dl, BYTE PTR [eax+1]
  00029	84 d2		 test	 dl, dl
  0002b	0f 84 90 01 00
	00		 je	 $LN95@LoadInt_e
  00031	b1 ec		 mov	 cl, -20			; ffffffecH
  00033	32 d1		 xor	 dl, cl
  00035	88 55 e5	 mov	 BYTE PTR __k$[ebp+1], dl
  00038	8a 50 02	 mov	 dl, BYTE PTR [eax+2]
  0003b	84 d2		 test	 dl, dl
  0003d	0f 84 78 01 00
	00		 je	 $LN94@LoadInt_e
  00043	80 f2 eb	 xor	 dl, -21			; ffffffebH
  00046	88 55 e6	 mov	 BYTE PTR __k$[ebp+2], dl
  00049	8a 50 03	 mov	 dl, BYTE PTR [eax+3]
  0004c	84 d2		 test	 dl, dl
  0004e	0f 84 61 01 00
	00		 je	 $LN93@LoadInt_e
  00054	80 f2 ea	 xor	 dl, -22			; ffffffeaH
  00057	88 55 e7	 mov	 BYTE PTR __k$[ebp+3], dl
  0005a	8a 50 04	 mov	 dl, BYTE PTR [eax+4]
  0005d	84 d2		 test	 dl, dl
  0005f	0f 84 4a 01 00
	00		 je	 $LN92@LoadInt_e
  00065	80 f2 ed	 xor	 dl, -19			; ffffffedH
  00068	88 55 e8	 mov	 BYTE PTR __k$[ebp+4], dl
  0006b	8a 50 05	 mov	 dl, BYTE PTR [eax+5]
  0006e	84 d2		 test	 dl, dl
  00070	0f 84 34 01 00
	00		 je	 $LN91@LoadInt_e
  00076	32 d1		 xor	 dl, cl
  00078	88 55 e9	 mov	 BYTE PTR __k$[ebp+5], dl
  0007b	8a 50 06	 mov	 dl, BYTE PTR [eax+6]
  0007e	84 d2		 test	 dl, dl
  00080	0f 84 1e 01 00
	00		 je	 $LN90@LoadInt_e
  00086	80 f2 eb	 xor	 dl, -21			; ffffffebH
  00089	88 55 ea	 mov	 BYTE PTR __k$[ebp+6], dl
  0008c	8a 50 07	 mov	 dl, BYTE PTR [eax+7]
  0008f	84 d2		 test	 dl, dl
  00091	0f 84 07 01 00
	00		 je	 $LN89@LoadInt_e
  00097	80 f2 ea	 xor	 dl, -22			; ffffffeaH
  0009a	88 55 eb	 mov	 BYTE PTR __k$[ebp+7], dl
  0009d	8a 50 08	 mov	 dl, BYTE PTR [eax+8]
  000a0	84 d2		 test	 dl, dl
  000a2	0f 84 f0 00 00
	00		 je	 $LN88@LoadInt_e
  000a8	80 f2 ed	 xor	 dl, -19			; ffffffedH
  000ab	88 55 ec	 mov	 BYTE PTR __k$[ebp+8], dl
  000ae	8a 50 09	 mov	 dl, BYTE PTR [eax+9]
  000b1	84 d2		 test	 dl, dl
  000b3	0f 84 da 00 00
	00		 je	 $LN87@LoadInt_e
  000b9	32 d1		 xor	 dl, cl
  000bb	88 55 ed	 mov	 BYTE PTR __k$[ebp+9], dl
  000be	8a 50 0a	 mov	 dl, BYTE PTR [eax+10]
  000c1	84 d2		 test	 dl, dl
  000c3	0f 84 c4 00 00
	00		 je	 $LN86@LoadInt_e
  000c9	80 f2 eb	 xor	 dl, -21			; ffffffebH
  000cc	88 55 ee	 mov	 BYTE PTR __k$[ebp+10], dl
  000cf	8a 50 0b	 mov	 dl, BYTE PTR [eax+11]
  000d2	84 d2		 test	 dl, dl
  000d4	0f 84 ad 00 00
	00		 je	 $LN85@LoadInt_e
  000da	80 f2 ea	 xor	 dl, -22			; ffffffeaH
  000dd	88 55 ef	 mov	 BYTE PTR __k$[ebp+11], dl
  000e0	8a 50 0c	 mov	 dl, BYTE PTR [eax+12]
  000e3	84 d2		 test	 dl, dl
  000e5	0f 84 96 00 00
	00		 je	 $LN84@LoadInt_e
  000eb	80 f2 ed	 xor	 dl, -19			; ffffffedH
  000ee	88 55 f0	 mov	 BYTE PTR __k$[ebp+12], dl
  000f1	8a 50 0d	 mov	 dl, BYTE PTR [eax+13]
  000f4	84 d2		 test	 dl, dl
  000f6	0f 84 80 00 00
	00		 je	 $LN83@LoadInt_e
  000fc	32 d1		 xor	 dl, cl
  000fe	88 55 f1	 mov	 BYTE PTR __k$[ebp+13], dl
  00101	8a 50 0e	 mov	 dl, BYTE PTR [eax+14]
  00104	84 d2		 test	 dl, dl
  00106	74 6e		 je	 SHORT $LN82@LoadInt_e
  00108	80 f2 eb	 xor	 dl, -21			; ffffffebH
  0010b	88 55 f2	 mov	 BYTE PTR __k$[ebp+14], dl
  0010e	8a 50 0f	 mov	 dl, BYTE PTR [eax+15]
  00111	84 d2		 test	 dl, dl
  00113	74 5b		 je	 SHORT $LN81@LoadInt_e
  00115	80 f2 ea	 xor	 dl, -22			; ffffffeaH
  00118	80 78 10 00	 cmp	 BYTE PTR [eax+16], 0
  0011c	88 55 f3	 mov	 BYTE PTR __k$[ebp+15], dl
  0011f	0f 84 a6 00 00
	00		 je	 $LN1@LoadInt_e
  00125	8a 50 11	 mov	 dl, BYTE PTR [eax+17]
  00128	84 d2		 test	 dl, dl
  0012a	74 3f		 je	 SHORT $LN79@LoadInt_e
  0012c	32 d1		 xor	 dl, cl
  0012e	88 55 f5	 mov	 BYTE PTR __k$[ebp+17], dl
  00131	8a 50 12	 mov	 dl, BYTE PTR [eax+18]
  00134	84 d2		 test	 dl, dl
  00136	74 2d		 je	 SHORT $LN78@LoadInt_e
  00138	80 f2 eb	 xor	 dl, -21			; ffffffebH
  0013b	88 55 f6	 mov	 BYTE PTR __k$[ebp+18], dl
  0013e	8a 50 13	 mov	 dl, BYTE PTR [eax+19]
  00141	84 d2		 test	 dl, dl
  00143	74 1a		 je	 SHORT $LN77@LoadInt_e
  00145	8a 40 14	 mov	 al, BYTE PTR [eax+20]
  00148	80 f2 ea	 xor	 dl, -22			; ffffffeaH
  0014b	88 55 f7	 mov	 BYTE PTR __k$[ebp+19], dl
  0014e	84 c0		 test	 al, al
  00150	74 07		 je	 SHORT $LN76@LoadInt_e
  00152	34 ed		 xor	 al, -19			; ffffffedH
  00154	88 45 f8	 mov	 BYTE PTR __k$[ebp+20], al
  00157	eb 72		 jmp	 SHORT $LN1@LoadInt_e
$LN76@LoadInt_e:
  00159	c6 45 f8 ed	 mov	 BYTE PTR __k$[ebp+20], -19 ; ffffffedH
  0015d	eb 6c		 jmp	 SHORT $LN1@LoadInt_e
$LN77@LoadInt_e:
  0015f	c6 45 f7 ea	 mov	 BYTE PTR __k$[ebp+19], -22 ; ffffffeaH
  00163	eb 66		 jmp	 SHORT $LN1@LoadInt_e
$LN78@LoadInt_e:
  00165	c6 45 f6 eb	 mov	 BYTE PTR __k$[ebp+18], -21 ; ffffffebH
  00169	eb 60		 jmp	 SHORT $LN1@LoadInt_e
$LN79@LoadInt_e:
  0016b	88 4d f5	 mov	 BYTE PTR __k$[ebp+17], cl
  0016e	eb 5b		 jmp	 SHORT $LN1@LoadInt_e
$LN81@LoadInt_e:
  00170	c6 45 f3 ea	 mov	 BYTE PTR __k$[ebp+15], -22 ; ffffffeaH
  00174	eb 55		 jmp	 SHORT $LN1@LoadInt_e
$LN82@LoadInt_e:
  00176	c6 45 f2 eb	 mov	 BYTE PTR __k$[ebp+14], -21 ; ffffffebH
  0017a	eb 4f		 jmp	 SHORT $LN1@LoadInt_e
$LN83@LoadInt_e:
  0017c	88 4d f1	 mov	 BYTE PTR __k$[ebp+13], cl
  0017f	eb 4a		 jmp	 SHORT $LN1@LoadInt_e
$LN84@LoadInt_e:
  00181	c6 45 f0 ed	 mov	 BYTE PTR __k$[ebp+12], -19 ; ffffffedH
  00185	eb 44		 jmp	 SHORT $LN1@LoadInt_e
$LN85@LoadInt_e:
  00187	c6 45 ef ea	 mov	 BYTE PTR __k$[ebp+11], -22 ; ffffffeaH
  0018b	eb 3e		 jmp	 SHORT $LN1@LoadInt_e
$LN86@LoadInt_e:
  0018d	c6 45 ee eb	 mov	 BYTE PTR __k$[ebp+10], -21 ; ffffffebH
  00191	eb 38		 jmp	 SHORT $LN1@LoadInt_e
$LN87@LoadInt_e:
  00193	88 4d ed	 mov	 BYTE PTR __k$[ebp+9], cl
  00196	eb 33		 jmp	 SHORT $LN1@LoadInt_e
$LN88@LoadInt_e:
  00198	c6 45 ec ed	 mov	 BYTE PTR __k$[ebp+8], -19 ; ffffffedH
  0019c	eb 2d		 jmp	 SHORT $LN1@LoadInt_e
$LN89@LoadInt_e:
  0019e	c6 45 eb ea	 mov	 BYTE PTR __k$[ebp+7], -22 ; ffffffeaH
  001a2	eb 27		 jmp	 SHORT $LN1@LoadInt_e
$LN90@LoadInt_e:
  001a4	c6 45 ea eb	 mov	 BYTE PTR __k$[ebp+6], -21 ; ffffffebH
  001a8	eb 21		 jmp	 SHORT $LN1@LoadInt_e
$LN91@LoadInt_e:
  001aa	88 4d e9	 mov	 BYTE PTR __k$[ebp+5], cl
  001ad	eb 1c		 jmp	 SHORT $LN1@LoadInt_e
$LN92@LoadInt_e:
  001af	c6 45 e8 ed	 mov	 BYTE PTR __k$[ebp+4], -19 ; ffffffedH
  001b3	eb 16		 jmp	 SHORT $LN1@LoadInt_e
$LN93@LoadInt_e:
  001b5	c6 45 e7 ea	 mov	 BYTE PTR __k$[ebp+3], -22 ; ffffffeaH
  001b9	eb 10		 jmp	 SHORT $LN1@LoadInt_e
$LN94@LoadInt_e:
  001bb	c6 45 e6 eb	 mov	 BYTE PTR __k$[ebp+2], -21 ; ffffffebH
  001bf	eb 0a		 jmp	 SHORT $LN1@LoadInt_e
$LN95@LoadInt_e:
  001c1	c6 45 e5 ec	 mov	 BYTE PTR __k$[ebp+1], -20 ; ffffffecH
  001c5	eb 04		 jmp	 SHORT $LN1@LoadInt_e
$LN96@LoadInt_e:
  001c7	c6 45 e4 ed	 mov	 BYTE PTR __k$[ebp], -19	; ffffffedH
$LN1@LoadInt_e:
  001cb	6a 04		 push	 4
  001cd	8d 45 e4	 lea	 eax, DWORD PTR __k$[ebp]
  001d0	c6 45 f4 00	 mov	 BYTE PTR __k$[ebp+16], 0
  001d4	5a		 pop	 edx
$LL104@LoadInt_e:
  001d5	81 30 ed ec eb
	ea		 xor	 DWORD PTR [eax], -353637139 ; eaebecedH
  001db	83 c0 04	 add	 eax, 4
  001de	4a		 dec	 edx
  001df	75 f4		 jne	 SHORT $LL104@LoadInt_e

; 120  : 		return LoadInt(_k, i);

  001e1	ff 75 0c	 push	 DWORD PTR _i$[ebp]
  001e4	8d 45 e4	 lea	 eax, DWORD PTR __k$[ebp]
  001e7	50		 push	 eax
  001e8	8b ce		 mov	 ecx, esi
  001ea	ff 15 00 00 00
	00		 call	 DWORD PTR __imp_?LoadInt@ioINILoader@@QAEHPBDH@Z

; 121  : 	}

  001f0	8b 4d fc	 mov	 ecx, DWORD PTR __$ArrayPad$[ebp]
  001f3	33 cd		 xor	 ecx, ebp
  001f5	5e		 pop	 esi
  001f6	e8 00 00 00 00	 call	 @__security_check_cookie@4
  001fb	c9		 leave
  001fc	c2 08 00	 ret	 8
??$LoadInt_e@$0BB@@ioINILoader@@QAEHAAY0BB@$$CBDH@Z ENDP ; ioINILoader::LoadInt_e<17>
_TEXT	ENDS
PUBLIC	__$ArrayPad$
PUBLIC	??$LoadInt_e@$0BF@@ioINILoader@@QAEHAAY0BF@$$CBDH@Z ; ioINILoader::LoadInt_e<21>
; Function compile flags: /Ogsp
;	COMDAT ??$LoadInt_e@$0BF@@ioINILoader@@QAEHAAY0BF@$$CBDH@Z
_TEXT	SEGMENT
__k$ = -32						; size = 21
__$ArrayPad$ = -4					; size = 4
_k$ = 8							; size = 4
_i$ = 12						; size = 4
??$LoadInt_e@$0BF@@ioINILoader@@QAEHAAY0BF@$$CBDH@Z PROC ; ioINILoader::LoadInt_e<21>, COMDAT
; _this$ = ecx

; 118  : 	{

  00000	55		 push	 ebp
  00001	8b ec		 mov	 ebp, esp
  00003	83 ec 20	 sub	 esp, 32			; 00000020H
  00006	a1 00 00 00 00	 mov	 eax, DWORD PTR ___security_cookie
  0000b	33 c5		 xor	 eax, ebp
  0000d	89 45 fc	 mov	 DWORD PTR __$ArrayPad$[ebp], eax
  00010	8b 45 08	 mov	 eax, DWORD PTR _k$[ebp]

; 119  : 		_ENCSTR(k, _k);

  00013	8a 10		 mov	 dl, BYTE PTR [eax]
  00015	53		 push	 ebx
  00016	56		 push	 esi
  00017	8b f1		 mov	 esi, ecx
  00019	84 d2		 test	 dl, dl
  0001b	0f 84 f7 01 00
	00		 je	 $LN96@LoadInt_e@2
  00021	80 f2 ed	 xor	 dl, -19			; ffffffedH
  00024	88 55 e0	 mov	 BYTE PTR __k$[ebp], dl
  00027	8a 50 01	 mov	 dl, BYTE PTR [eax+1]
  0002a	84 d2		 test	 dl, dl
  0002c	0f 84 e0 01 00
	00		 je	 $LN95@LoadInt_e@2
  00032	b1 ec		 mov	 cl, -20			; ffffffecH
  00034	32 d1		 xor	 dl, cl
  00036	88 55 e1	 mov	 BYTE PTR __k$[ebp+1], dl
  00039	8a 50 02	 mov	 dl, BYTE PTR [eax+2]
  0003c	84 d2		 test	 dl, dl
  0003e	0f 84 c8 01 00
	00		 je	 $LN94@LoadInt_e@2
  00044	b3 eb		 mov	 bl, -21			; ffffffebH
  00046	32 d3		 xor	 dl, bl
  00048	88 55 e2	 mov	 BYTE PTR __k$[ebp+2], dl
  0004b	8a 50 03	 mov	 dl, BYTE PTR [eax+3]
  0004e	84 d2		 test	 dl, dl
  00050	0f 84 b0 01 00
	00		 je	 $LN93@LoadInt_e@2
  00056	80 f2 ea	 xor	 dl, -22			; ffffffeaH
  00059	88 55 e3	 mov	 BYTE PTR __k$[ebp+3], dl
  0005c	8a 50 04	 mov	 dl, BYTE PTR [eax+4]
  0005f	84 d2		 test	 dl, dl
  00061	0f 84 99 01 00
	00		 je	 $LN92@LoadInt_e@2
  00067	80 f2 ed	 xor	 dl, -19			; ffffffedH
  0006a	88 55 e4	 mov	 BYTE PTR __k$[ebp+4], dl
  0006d	8a 50 05	 mov	 dl, BYTE PTR [eax+5]
  00070	84 d2		 test	 dl, dl
  00072	0f 84 83 01 00
	00		 je	 $LN91@LoadInt_e@2
  00078	32 d1		 xor	 dl, cl
  0007a	88 55 e5	 mov	 BYTE PTR __k$[ebp+5], dl
  0007d	8a 50 06	 mov	 dl, BYTE PTR [eax+6]
  00080	84 d2		 test	 dl, dl
  00082	0f 84 6e 01 00
	00		 je	 $LN90@LoadInt_e@2
  00088	32 d3		 xor	 dl, bl
  0008a	88 55 e6	 mov	 BYTE PTR __k$[ebp+6], dl
  0008d	8a 50 07	 mov	 dl, BYTE PTR [eax+7]
  00090	84 d2		 test	 dl, dl
  00092	0f 84 58 01 00
	00		 je	 $LN89@LoadInt_e@2
  00098	80 f2 ea	 xor	 dl, -22			; ffffffeaH
  0009b	88 55 e7	 mov	 BYTE PTR __k$[ebp+7], dl
  0009e	8a 50 08	 mov	 dl, BYTE PTR [eax+8]
  000a1	84 d2		 test	 dl, dl
  000a3	0f 84 41 01 00
	00		 je	 $LN88@LoadInt_e@2
  000a9	80 f2 ed	 xor	 dl, -19			; ffffffedH
  000ac	88 55 e8	 mov	 BYTE PTR __k$[ebp+8], dl
  000af	8a 50 09	 mov	 dl, BYTE PTR [eax+9]
  000b2	84 d2		 test	 dl, dl
  000b4	0f 84 2b 01 00
	00		 je	 $LN87@LoadInt_e@2
  000ba	32 d1		 xor	 dl, cl
  000bc	88 55 e9	 mov	 BYTE PTR __k$[ebp+9], dl
  000bf	8a 50 0a	 mov	 dl, BYTE PTR [eax+10]
  000c2	84 d2		 test	 dl, dl
  000c4	0f 84 16 01 00
	00		 je	 $LN86@LoadInt_e@2
  000ca	32 d3		 xor	 dl, bl
  000cc	88 55 ea	 mov	 BYTE PTR __k$[ebp+10], dl
  000cf	8a 50 0b	 mov	 dl, BYTE PTR [eax+11]
  000d2	84 d2		 test	 dl, dl
  000d4	0f 84 00 01 00
	00		 je	 $LN85@LoadInt_e@2
  000da	80 f2 ea	 xor	 dl, -22			; ffffffeaH
  000dd	88 55 eb	 mov	 BYTE PTR __k$[ebp+11], dl
  000e0	8a 50 0c	 mov	 dl, BYTE PTR [eax+12]
  000e3	84 d2		 test	 dl, dl
  000e5	0f 84 e9 00 00
	00		 je	 $LN84@LoadInt_e@2
  000eb	80 f2 ed	 xor	 dl, -19			; ffffffedH
  000ee	88 55 ec	 mov	 BYTE PTR __k$[ebp+12], dl
  000f1	8a 50 0d	 mov	 dl, BYTE PTR [eax+13]
  000f4	84 d2		 test	 dl, dl
  000f6	0f 84 d3 00 00
	00		 je	 $LN83@LoadInt_e@2
  000fc	32 d1		 xor	 dl, cl
  000fe	88 55 ed	 mov	 BYTE PTR __k$[ebp+13], dl
  00101	8a 50 0e	 mov	 dl, BYTE PTR [eax+14]
  00104	84 d2		 test	 dl, dl
  00106	0f 84 be 00 00
	00		 je	 $LN82@LoadInt_e@2
  0010c	32 d3		 xor	 dl, bl
  0010e	88 55 ee	 mov	 BYTE PTR __k$[ebp+14], dl
  00111	8a 50 0f	 mov	 dl, BYTE PTR [eax+15]
  00114	84 d2		 test	 dl, dl
  00116	0f 84 a8 00 00
	00		 je	 $LN81@LoadInt_e@2
  0011c	80 f2 ea	 xor	 dl, -22			; ffffffeaH
  0011f	88 55 ef	 mov	 BYTE PTR __k$[ebp+15], dl
  00122	8a 50 10	 mov	 dl, BYTE PTR [eax+16]
  00125	84 d2		 test	 dl, dl
  00127	0f 84 91 00 00
	00		 je	 $LN80@LoadInt_e@2
  0012d	80 f2 ed	 xor	 dl, -19			; ffffffedH
  00130	88 55 f0	 mov	 BYTE PTR __k$[ebp+16], dl
  00133	8a 50 11	 mov	 dl, BYTE PTR [eax+17]
  00136	84 d2		 test	 dl, dl
  00138	74 7f		 je	 SHORT $LN79@LoadInt_e@2
  0013a	32 d1		 xor	 dl, cl
  0013c	88 55 f1	 mov	 BYTE PTR __k$[ebp+17], dl
  0013f	8a 50 12	 mov	 dl, BYTE PTR [eax+18]
  00142	84 d2		 test	 dl, dl
  00144	74 6e		 je	 SHORT $LN78@LoadInt_e@2
  00146	32 d3		 xor	 dl, bl
  00148	88 55 f2	 mov	 BYTE PTR __k$[ebp+18], dl
  0014b	8a 50 13	 mov	 dl, BYTE PTR [eax+19]
  0014e	84 d2		 test	 dl, dl
  00150	74 5c		 je	 SHORT $LN77@LoadInt_e@2
  00152	80 f2 ea	 xor	 dl, -22			; ffffffeaH
  00155	80 78 14 00	 cmp	 BYTE PTR [eax+20], 0
  00159	88 55 f3	 mov	 BYTE PTR __k$[ebp+19], dl
  0015c	0f 84 ba 00 00
	00		 je	 $LN1@LoadInt_e@2
  00162	8a 50 15	 mov	 dl, BYTE PTR [eax+21]
  00165	84 d2		 test	 dl, dl
  00167	74 40		 je	 SHORT $LN75@LoadInt_e@2
  00169	32 d1		 xor	 dl, cl
  0016b	88 55 f5	 mov	 BYTE PTR __k$[ebp+21], dl
  0016e	8a 50 16	 mov	 dl, BYTE PTR [eax+22]
  00171	84 d2		 test	 dl, dl
  00173	74 2f		 je	 SHORT $LN74@LoadInt_e@2
  00175	32 d3		 xor	 dl, bl
  00177	88 55 f6	 mov	 BYTE PTR __k$[ebp+22], dl
  0017a	8a 50 17	 mov	 dl, BYTE PTR [eax+23]
  0017d	84 d2		 test	 dl, dl
  0017f	74 1d		 je	 SHORT $LN73@LoadInt_e@2
  00181	8a 40 18	 mov	 al, BYTE PTR [eax+24]
  00184	80 f2 ea	 xor	 dl, -22			; ffffffeaH
  00187	88 55 f7	 mov	 BYTE PTR __k$[ebp+23], dl
  0018a	84 c0		 test	 al, al
  0018c	74 0a		 je	 SHORT $LN72@LoadInt_e@2
  0018e	34 ed		 xor	 al, -19			; ffffffedH
  00190	88 45 f8	 mov	 BYTE PTR __k$[ebp+24], al
  00193	e9 84 00 00 00	 jmp	 $LN1@LoadInt_e@2
$LN72@LoadInt_e@2:
  00198	c6 45 f8 ed	 mov	 BYTE PTR __k$[ebp+24], -19 ; ffffffedH
  0019c	eb 7e		 jmp	 SHORT $LN1@LoadInt_e@2
$LN73@LoadInt_e@2:
  0019e	c6 45 f7 ea	 mov	 BYTE PTR __k$[ebp+23], -22 ; ffffffeaH
  001a2	eb 78		 jmp	 SHORT $LN1@LoadInt_e@2
$LN74@LoadInt_e@2:
  001a4	88 5d f6	 mov	 BYTE PTR __k$[ebp+22], bl
  001a7	eb 73		 jmp	 SHORT $LN1@LoadInt_e@2
$LN75@LoadInt_e@2:
  001a9	88 4d f5	 mov	 BYTE PTR __k$[ebp+21], cl
  001ac	eb 6e		 jmp	 SHORT $LN1@LoadInt_e@2
$LN77@LoadInt_e@2:
  001ae	c6 45 f3 ea	 mov	 BYTE PTR __k$[ebp+19], -22 ; ffffffeaH
  001b2	eb 68		 jmp	 SHORT $LN1@LoadInt_e@2
$LN78@LoadInt_e@2:
  001b4	88 5d f2	 mov	 BYTE PTR __k$[ebp+18], bl
  001b7	eb 63		 jmp	 SHORT $LN1@LoadInt_e@2
$LN79@LoadInt_e@2:
  001b9	88 4d f1	 mov	 BYTE PTR __k$[ebp+17], cl
  001bc	eb 5e		 jmp	 SHORT $LN1@LoadInt_e@2
$LN80@LoadInt_e@2:
  001be	c6 45 f0 ed	 mov	 BYTE PTR __k$[ebp+16], -19 ; ffffffedH
  001c2	eb 58		 jmp	 SHORT $LN1@LoadInt_e@2
$LN81@LoadInt_e@2:
  001c4	c6 45 ef ea	 mov	 BYTE PTR __k$[ebp+15], -22 ; ffffffeaH
  001c8	eb 52		 jmp	 SHORT $LN1@LoadInt_e@2
$LN82@LoadInt_e@2:
  001ca	88 5d ee	 mov	 BYTE PTR __k$[ebp+14], bl
  001cd	eb 4d		 jmp	 SHORT $LN1@LoadInt_e@2
$LN83@LoadInt_e@2:
  001cf	88 4d ed	 mov	 BYTE PTR __k$[ebp+13], cl
  001d2	eb 48		 jmp	 SHORT $LN1@LoadInt_e@2
$LN84@LoadInt_e@2:
  001d4	c6 45 ec ed	 mov	 BYTE PTR __k$[ebp+12], -19 ; ffffffedH
  001d8	eb 42		 jmp	 SHORT $LN1@LoadInt_e@2
$LN85@LoadInt_e@2:
  001da	c6 45 eb ea	 mov	 BYTE PTR __k$[ebp+11], -22 ; ffffffeaH
  001de	eb 3c		 jmp	 SHORT $LN1@LoadInt_e@2
$LN86@LoadInt_e@2:
  001e0	88 5d ea	 mov	 BYTE PTR __k$[ebp+10], bl
  001e3	eb 37		 jmp	 SHORT $LN1@LoadInt_e@2
$LN87@LoadInt_e@2:
  001e5	88 4d e9	 mov	 BYTE PTR __k$[ebp+9], cl
  001e8	eb 32		 jmp	 SHORT $LN1@LoadInt_e@2
$LN88@LoadInt_e@2:
  001ea	c6 45 e8 ed	 mov	 BYTE PTR __k$[ebp+8], -19 ; ffffffedH
  001ee	eb 2c		 jmp	 SHORT $LN1@LoadInt_e@2
$LN89@LoadInt_e@2:
  001f0	c6 45 e7 ea	 mov	 BYTE PTR __k$[ebp+7], -22 ; ffffffeaH
  001f4	eb 26		 jmp	 SHORT $LN1@LoadInt_e@2
$LN90@LoadInt_e@2:
  001f6	88 5d e6	 mov	 BYTE PTR __k$[ebp+6], bl
  001f9	eb 21		 jmp	 SHORT $LN1@LoadInt_e@2
$LN91@LoadInt_e@2:
  001fb	88 4d e5	 mov	 BYTE PTR __k$[ebp+5], cl
  001fe	eb 1c		 jmp	 SHORT $LN1@LoadInt_e@2
$LN92@LoadInt_e@2:
  00200	c6 45 e4 ed	 mov	 BYTE PTR __k$[ebp+4], -19 ; ffffffedH
  00204	eb 16		 jmp	 SHORT $LN1@LoadInt_e@2
$LN93@LoadInt_e@2:
  00206	c6 45 e3 ea	 mov	 BYTE PTR __k$[ebp+3], -22 ; ffffffeaH
  0020a	eb 10		 jmp	 SHORT $LN1@LoadInt_e@2
$LN94@LoadInt_e@2:
  0020c	c6 45 e2 eb	 mov	 BYTE PTR __k$[ebp+2], -21 ; ffffffebH
  00210	eb 0a		 jmp	 SHORT $LN1@LoadInt_e@2
$LN95@LoadInt_e@2:
  00212	c6 45 e1 ec	 mov	 BYTE PTR __k$[ebp+1], -20 ; ffffffecH
  00216	eb 04		 jmp	 SHORT $LN1@LoadInt_e@2
$LN96@LoadInt_e@2:
  00218	c6 45 e0 ed	 mov	 BYTE PTR __k$[ebp], -19	; ffffffedH
$LN1@LoadInt_e@2:
  0021c	6a 05		 push	 5
  0021e	8d 45 e0	 lea	 eax, DWORD PTR __k$[ebp]
  00221	c6 45 f4 00	 mov	 BYTE PTR __k$[ebp+20], 0
  00225	5a		 pop	 edx
$LL104@LoadInt_e@2:
  00226	81 30 ed ec eb
	ea		 xor	 DWORD PTR [eax], -353637139 ; eaebecedH
  0022c	83 c0 04	 add	 eax, 4
  0022f	4a		 dec	 edx
  00230	75 f4		 jne	 SHORT $LL104@LoadInt_e@2

; 120  : 		return LoadInt(_k, i);

  00232	ff 75 0c	 push	 DWORD PTR _i$[ebp]
  00235	8d 45 e0	 lea	 eax, DWORD PTR __k$[ebp]
  00238	50		 push	 eax
  00239	8b ce		 mov	 ecx, esi
  0023b	ff 15 00 00 00
	00		 call	 DWORD PTR __imp_?LoadInt@ioINILoader@@QAEHPBDH@Z

; 121  : 	}

  00241	8b 4d fc	 mov	 ecx, DWORD PTR __$ArrayPad$[ebp]
  00244	5e		 pop	 esi
  00245	33 cd		 xor	 ecx, ebp
  00247	5b		 pop	 ebx
  00248	e8 00 00 00 00	 call	 @__security_check_cookie@4
  0024d	c9		 leave
  0024e	c2 08 00	 ret	 8
??$LoadInt_e@$0BF@@ioINILoader@@QAEHAAY0BF@$$CBDH@Z ENDP ; ioINILoader::LoadInt_e<21>
_TEXT	ENDS
PUBLIC	__$ArrayPad$
PUBLIC	??$LoadFloat_e@$0O@@ioINILoader@@QAEMAAY0O@$$CBDM@Z ; ioINILoader::LoadFloat_e<14>
; Function compile flags: /Ogsp
;	COMDAT ??$LoadFloat_e@$0O@@ioINILoader@@QAEMAAY0O@$$CBDM@Z
_TEXT	SEGMENT
__k$ = -24						; size = 14
__$ArrayPad$ = -4					; size = 4
_k$ = 8							; size = 4
_f$ = 12						; size = 4
??$LoadFloat_e@$0O@@ioINILoader@@QAEMAAY0O@$$CBDM@Z PROC ; ioINILoader::LoadFloat_e<14>, COMDAT
; _this$ = ecx

; 135  : 	{

  00000	55		 push	 ebp
  00001	8b ec		 mov	 ebp, esp
  00003	83 ec 18	 sub	 esp, 24			; 00000018H
  00006	a1 00 00 00 00	 mov	 eax, DWORD PTR ___security_cookie
  0000b	33 c5		 xor	 eax, ebp
  0000d	89 45 fc	 mov	 DWORD PTR __$ArrayPad$[ebp], eax
  00010	8b 45 08	 mov	 eax, DWORD PTR _k$[ebp]

; 136  : 		_ENCSTR(k, _k);

  00013	8a 10		 mov	 dl, BYTE PTR [eax]
  00015	56		 push	 esi
  00016	8b f1		 mov	 esi, ecx
  00018	84 d2		 test	 dl, dl
  0001a	0f 84 64 01 00
	00		 je	 $LN96@LoadFloat_@2
  00020	80 f2 ed	 xor	 dl, -19			; ffffffedH
  00023	88 55 e8	 mov	 BYTE PTR __k$[ebp], dl
  00026	8a 50 01	 mov	 dl, BYTE PTR [eax+1]
  00029	84 d2		 test	 dl, dl
  0002b	0f 84 4d 01 00
	00		 je	 $LN95@LoadFloat_@2
  00031	80 f2 ec	 xor	 dl, -20			; ffffffecH
  00034	88 55 e9	 mov	 BYTE PTR __k$[ebp+1], dl
  00037	8a 50 02	 mov	 dl, BYTE PTR [eax+2]
  0003a	84 d2		 test	 dl, dl
  0003c	0f 84 36 01 00
	00		 je	 $LN94@LoadFloat_@2
  00042	b1 eb		 mov	 cl, -21			; ffffffebH
  00044	32 d1		 xor	 dl, cl
  00046	88 55 ea	 mov	 BYTE PTR __k$[ebp+2], dl
  00049	8a 50 03	 mov	 dl, BYTE PTR [eax+3]
  0004c	84 d2		 test	 dl, dl
  0004e	0f 84 1e 01 00
	00		 je	 $LN93@LoadFloat_@2
  00054	80 f2 ea	 xor	 dl, -22			; ffffffeaH
  00057	88 55 eb	 mov	 BYTE PTR __k$[ebp+3], dl
  0005a	8a 50 04	 mov	 dl, BYTE PTR [eax+4]
  0005d	84 d2		 test	 dl, dl
  0005f	0f 84 07 01 00
	00		 je	 $LN92@LoadFloat_@2
  00065	80 f2 ed	 xor	 dl, -19			; ffffffedH
  00068	88 55 ec	 mov	 BYTE PTR __k$[ebp+4], dl
  0006b	8a 50 05	 mov	 dl, BYTE PTR [eax+5]
  0006e	84 d2		 test	 dl, dl
  00070	0f 84 f0 00 00
	00		 je	 $LN91@LoadFloat_@2
  00076	80 f2 ec	 xor	 dl, -20			; ffffffecH
  00079	88 55 ed	 mov	 BYTE PTR __k$[ebp+5], dl
  0007c	8a 50 06	 mov	 dl, BYTE PTR [eax+6]
  0007f	84 d2		 test	 dl, dl
  00081	0f 84 da 00 00
	00		 je	 $LN90@LoadFloat_@2
  00087	32 d1		 xor	 dl, cl
  00089	88 55 ee	 mov	 BYTE PTR __k$[ebp+6], dl
  0008c	8a 50 07	 mov	 dl, BYTE PTR [eax+7]
  0008f	84 d2		 test	 dl, dl
  00091	0f 84 c4 00 00
	00		 je	 $LN89@LoadFloat_@2
  00097	80 f2 ea	 xor	 dl, -22			; ffffffeaH
  0009a	88 55 ef	 mov	 BYTE PTR __k$[ebp+7], dl
  0009d	8a 50 08	 mov	 dl, BYTE PTR [eax+8]
  000a0	84 d2		 test	 dl, dl
  000a2	0f 84 ad 00 00
	00		 je	 $LN88@LoadFloat_@2
  000a8	80 f2 ed	 xor	 dl, -19			; ffffffedH
  000ab	88 55 f0	 mov	 BYTE PTR __k$[ebp+8], dl
  000ae	8a 50 09	 mov	 dl, BYTE PTR [eax+9]
  000b1	84 d2		 test	 dl, dl
  000b3	0f 84 96 00 00
	00		 je	 $LN87@LoadFloat_@2
  000b9	80 f2 ec	 xor	 dl, -20			; ffffffecH
  000bc	88 55 f1	 mov	 BYTE PTR __k$[ebp+9], dl
  000bf	8a 50 0a	 mov	 dl, BYTE PTR [eax+10]
  000c2	84 d2		 test	 dl, dl
  000c4	0f 84 80 00 00
	00		 je	 $LN86@LoadFloat_@2
  000ca	32 d1		 xor	 dl, cl
  000cc	88 55 f2	 mov	 BYTE PTR __k$[ebp+10], dl
  000cf	8a 50 0b	 mov	 dl, BYTE PTR [eax+11]
  000d2	84 d2		 test	 dl, dl
  000d4	74 6e		 je	 SHORT $LN85@LoadFloat_@2
  000d6	80 f2 ea	 xor	 dl, -22			; ffffffeaH
  000d9	88 55 f3	 mov	 BYTE PTR __k$[ebp+11], dl
  000dc	8a 50 0c	 mov	 dl, BYTE PTR [eax+12]
  000df	84 d2		 test	 dl, dl
  000e1	74 5b		 je	 SHORT $LN84@LoadFloat_@2
  000e3	80 f2 ed	 xor	 dl, -19			; ffffffedH
  000e6	80 78 0d 00	 cmp	 BYTE PTR [eax+13], 0
  000ea	88 55 f4	 mov	 BYTE PTR __k$[ebp+12], dl
  000ed	0f 84 95 00 00
	00		 je	 $LN1@LoadFloat_@2
  000f3	8a 50 0e	 mov	 dl, BYTE PTR [eax+14]
  000f6	84 d2		 test	 dl, dl
  000f8	74 3f		 je	 SHORT $LN82@LoadFloat_@2
  000fa	32 d1		 xor	 dl, cl
  000fc	88 55 f6	 mov	 BYTE PTR __k$[ebp+14], dl
  000ff	8a 50 0f	 mov	 dl, BYTE PTR [eax+15]
  00102	84 d2		 test	 dl, dl
  00104	74 2d		 je	 SHORT $LN81@LoadFloat_@2
  00106	80 f2 ea	 xor	 dl, -22			; ffffffeaH
  00109	88 55 f7	 mov	 BYTE PTR __k$[ebp+15], dl
  0010c	8a 50 10	 mov	 dl, BYTE PTR [eax+16]
  0010f	84 d2		 test	 dl, dl
  00111	74 1a		 je	 SHORT $LN80@LoadFloat_@2
  00113	8a 40 11	 mov	 al, BYTE PTR [eax+17]
  00116	80 f2 ed	 xor	 dl, -19			; ffffffedH
  00119	88 55 f8	 mov	 BYTE PTR __k$[ebp+16], dl
  0011c	84 c0		 test	 al, al
  0011e	74 07		 je	 SHORT $LN79@LoadFloat_@2
  00120	34 ec		 xor	 al, -20			; ffffffecH
  00122	88 45 f9	 mov	 BYTE PTR __k$[ebp+17], al
  00125	eb 61		 jmp	 SHORT $LN1@LoadFloat_@2
$LN79@LoadFloat_@2:
  00127	c6 45 f9 ec	 mov	 BYTE PTR __k$[ebp+17], -20 ; ffffffecH
  0012b	eb 5b		 jmp	 SHORT $LN1@LoadFloat_@2
$LN80@LoadFloat_@2:
  0012d	c6 45 f8 ed	 mov	 BYTE PTR __k$[ebp+16], -19 ; ffffffedH
  00131	eb 55		 jmp	 SHORT $LN1@LoadFloat_@2
$LN81@LoadFloat_@2:
  00133	c6 45 f7 ea	 mov	 BYTE PTR __k$[ebp+15], -22 ; ffffffeaH
  00137	eb 4f		 jmp	 SHORT $LN1@LoadFloat_@2
$LN82@LoadFloat_@2:
  00139	88 4d f6	 mov	 BYTE PTR __k$[ebp+14], cl
  0013c	eb 4a		 jmp	 SHORT $LN1@LoadFloat_@2
$LN84@LoadFloat_@2:
  0013e	c6 45 f4 ed	 mov	 BYTE PTR __k$[ebp+12], -19 ; ffffffedH
  00142	eb 44		 jmp	 SHORT $LN1@LoadFloat_@2
$LN85@LoadFloat_@2:
  00144	c6 45 f3 ea	 mov	 BYTE PTR __k$[ebp+11], -22 ; ffffffeaH
  00148	eb 3e		 jmp	 SHORT $LN1@LoadFloat_@2
$LN86@LoadFloat_@2:
  0014a	88 4d f2	 mov	 BYTE PTR __k$[ebp+10], cl
  0014d	eb 39		 jmp	 SHORT $LN1@LoadFloat_@2
$LN87@LoadFloat_@2:
  0014f	c6 45 f1 ec	 mov	 BYTE PTR __k$[ebp+9], -20 ; ffffffecH
  00153	eb 33		 jmp	 SHORT $LN1@LoadFloat_@2
$LN88@LoadFloat_@2:
  00155	c6 45 f0 ed	 mov	 BYTE PTR __k$[ebp+8], -19 ; ffffffedH
  00159	eb 2d		 jmp	 SHORT $LN1@LoadFloat_@2
$LN89@LoadFloat_@2:
  0015b	c6 45 ef ea	 mov	 BYTE PTR __k$[ebp+7], -22 ; ffffffeaH
  0015f	eb 27		 jmp	 SHORT $LN1@LoadFloat_@2
$LN90@LoadFloat_@2:
  00161	88 4d ee	 mov	 BYTE PTR __k$[ebp+6], cl
  00164	eb 22		 jmp	 SHORT $LN1@LoadFloat_@2
$LN91@LoadFloat_@2:
  00166	c6 45 ed ec	 mov	 BYTE PTR __k$[ebp+5], -20 ; ffffffecH
  0016a	eb 1c		 jmp	 SHORT $LN1@LoadFloat_@2
$LN92@LoadFloat_@2:
  0016c	c6 45 ec ed	 mov	 BYTE PTR __k$[ebp+4], -19 ; ffffffedH
  00170	eb 16		 jmp	 SHORT $LN1@LoadFloat_@2
$LN93@LoadFloat_@2:
  00172	c6 45 eb ea	 mov	 BYTE PTR __k$[ebp+3], -22 ; ffffffeaH
  00176	eb 10		 jmp	 SHORT $LN1@LoadFloat_@2
$LN94@LoadFloat_@2:
  00178	c6 45 ea eb	 mov	 BYTE PTR __k$[ebp+2], -21 ; ffffffebH
  0017c	eb 0a		 jmp	 SHORT $LN1@LoadFloat_@2
$LN95@LoadFloat_@2:
  0017e	c6 45 e9 ec	 mov	 BYTE PTR __k$[ebp+1], -20 ; ffffffecH
  00182	eb 04		 jmp	 SHORT $LN1@LoadFloat_@2
$LN96@LoadFloat_@2:
  00184	c6 45 e8 ed	 mov	 BYTE PTR __k$[ebp], -19	; ffffffedH
$LN1@LoadFloat_@2:
  00188	6a 03		 push	 3
  0018a	8d 45 e8	 lea	 eax, DWORD PTR __k$[ebp]
  0018d	c6 45 f5 00	 mov	 BYTE PTR __k$[ebp+13], 0
  00191	5a		 pop	 edx
$LL104@LoadFloat_@2:
  00192	81 30 ed ec eb
	ea		 xor	 DWORD PTR [eax], -353637139 ; eaebecedH
  00198	83 c0 04	 add	 eax, 4
  0019b	4a		 dec	 edx
  0019c	75 f4		 jne	 SHORT $LL104@LoadFloat_@2

; 137  : 		return LoadFloat(_k, f);

  0019e	f3 0f 10 45 0c	 movss	 xmm0, DWORD PTR _f$[ebp]
  001a3	80 75 f4 ed	 xor	 BYTE PTR __k$[ebp+12], -19 ; ffffffedH
  001a7	51		 push	 ecx
  001a8	8d 45 e8	 lea	 eax, DWORD PTR __k$[ebp]
  001ab	f3 0f 11 04 24	 movss	 DWORD PTR [esp], xmm0
  001b0	50		 push	 eax
  001b1	8b ce		 mov	 ecx, esi
  001b3	ff 15 00 00 00
	00		 call	 DWORD PTR __imp_?LoadFloat@ioINILoader@@QAEMPBDM@Z

; 138  : 	}

  001b9	8b 4d fc	 mov	 ecx, DWORD PTR __$ArrayPad$[ebp]
  001bc	33 cd		 xor	 ecx, ebp
  001be	5e		 pop	 esi
  001bf	e8 00 00 00 00	 call	 @__security_check_cookie@4
  001c4	c9		 leave
  001c5	c2 08 00	 ret	 8
??$LoadFloat_e@$0O@@ioINILoader@@QAEMAAY0O@$$CBDM@Z ENDP ; ioINILoader::LoadFloat_e<14>
_TEXT	ENDS
PUBLIC	_this$GSCopy$
PUBLIC	__$ArrayPad$
PUBLIC	??$LoadString_e@$0N@@ioINILoader@@QAEXAAY0N@$$CBDAAY00$$CBDPADH@Z ; ioINILoader::LoadString_e<13>
; Function compile flags: /Ogsp
;	COMDAT ??$LoadString_e@$0N@@ioINILoader@@QAEXAAY0N@$$CBDAAY00$$CBDPADH@Z
_TEXT	SEGMENT
_this$GSCopy$ = -28					; size = 4
__k$ = -24						; size = 13
__$ArrayPad$ = -4					; size = 4
_k$ = 8							; size = 4
_d$ = 12						; size = 4
_b$ = 16						; size = 4
_i$ = 20						; size = 4
??$LoadString_e@$0N@@ioINILoader@@QAEXAAY0N@$$CBDAAY00$$CBDPADH@Z PROC ; ioINILoader::LoadString_e<13>, COMDAT
; _this$ = ecx

; 161  : 	{

  00000	55		 push	 ebp
  00001	8b ec		 mov	 ebp, esp
  00003	83 ec 1c	 sub	 esp, 28			; 0000001cH
  00006	a1 00 00 00 00	 mov	 eax, DWORD PTR ___security_cookie
  0000b	33 c5		 xor	 eax, ebp
  0000d	89 45 fc	 mov	 DWORD PTR __$ArrayPad$[ebp], eax
  00010	8b 45 08	 mov	 eax, DWORD PTR _k$[ebp]

; 162  : 		_ENCSTR(k, _k);

  00013	8a 10		 mov	 dl, BYTE PTR [eax]
  00015	56		 push	 esi
  00016	8b 75 0c	 mov	 esi, DWORD PTR _d$[ebp]
  00019	57		 push	 edi
  0001a	8b 7d 10	 mov	 edi, DWORD PTR _b$[ebp]
  0001d	89 4d e4	 mov	 DWORD PTR _this$GSCopy$[ebp], ecx
  00020	84 d2		 test	 dl, dl
  00022	0f 84 4d 01 00
	00		 je	 $LN96@LoadString@2
  00028	80 f2 ed	 xor	 dl, -19			; ffffffedH
  0002b	88 55 e8	 mov	 BYTE PTR __k$[ebp], dl
  0002e	8a 50 01	 mov	 dl, BYTE PTR [eax+1]
  00031	84 d2		 test	 dl, dl
  00033	0f 84 36 01 00
	00		 je	 $LN95@LoadString@2
  00039	b1 ec		 mov	 cl, -20			; ffffffecH
  0003b	32 d1		 xor	 dl, cl
  0003d	88 55 e9	 mov	 BYTE PTR __k$[ebp+1], dl
  00040	8a 50 02	 mov	 dl, BYTE PTR [eax+2]
  00043	84 d2		 test	 dl, dl
  00045	0f 84 1e 01 00
	00		 je	 $LN94@LoadString@2
  0004b	80 f2 eb	 xor	 dl, -21			; ffffffebH
  0004e	88 55 ea	 mov	 BYTE PTR __k$[ebp+2], dl
  00051	8a 50 03	 mov	 dl, BYTE PTR [eax+3]
  00054	84 d2		 test	 dl, dl
  00056	0f 84 07 01 00
	00		 je	 $LN93@LoadString@2
  0005c	80 f2 ea	 xor	 dl, -22			; ffffffeaH
  0005f	88 55 eb	 mov	 BYTE PTR __k$[ebp+3], dl
  00062	8a 50 04	 mov	 dl, BYTE PTR [eax+4]
  00065	84 d2		 test	 dl, dl
  00067	0f 84 f0 00 00
	00		 je	 $LN92@LoadString@2
  0006d	80 f2 ed	 xor	 dl, -19			; ffffffedH
  00070	88 55 ec	 mov	 BYTE PTR __k$[ebp+4], dl
  00073	8a 50 05	 mov	 dl, BYTE PTR [eax+5]
  00076	84 d2		 test	 dl, dl
  00078	0f 84 da 00 00
	00		 je	 $LN91@LoadString@2
  0007e	32 d1		 xor	 dl, cl
  00080	88 55 ed	 mov	 BYTE PTR __k$[ebp+5], dl
  00083	8a 50 06	 mov	 dl, BYTE PTR [eax+6]
  00086	84 d2		 test	 dl, dl
  00088	0f 84 c4 00 00
	00		 je	 $LN90@LoadString@2
  0008e	80 f2 eb	 xor	 dl, -21			; ffffffebH
  00091	88 55 ee	 mov	 BYTE PTR __k$[ebp+6], dl
  00094	8a 50 07	 mov	 dl, BYTE PTR [eax+7]
  00097	84 d2		 test	 dl, dl
  00099	0f 84 ad 00 00
	00		 je	 $LN89@LoadString@2
  0009f	80 f2 ea	 xor	 dl, -22			; ffffffeaH
  000a2	88 55 ef	 mov	 BYTE PTR __k$[ebp+7], dl
  000a5	8a 50 08	 mov	 dl, BYTE PTR [eax+8]
  000a8	84 d2		 test	 dl, dl
  000aa	0f 84 96 00 00
	00		 je	 $LN88@LoadString@2
  000b0	80 f2 ed	 xor	 dl, -19			; ffffffedH
  000b3	88 55 f0	 mov	 BYTE PTR __k$[ebp+8], dl
  000b6	8a 50 09	 mov	 dl, BYTE PTR [eax+9]
  000b9	84 d2		 test	 dl, dl
  000bb	0f 84 80 00 00
	00		 je	 $LN87@LoadString@2
  000c1	32 d1		 xor	 dl, cl
  000c3	88 55 f1	 mov	 BYTE PTR __k$[ebp+9], dl
  000c6	8a 50 0a	 mov	 dl, BYTE PTR [eax+10]
  000c9	84 d2		 test	 dl, dl
  000cb	74 6e		 je	 SHORT $LN86@LoadString@2
  000cd	80 f2 eb	 xor	 dl, -21			; ffffffebH
  000d0	88 55 f2	 mov	 BYTE PTR __k$[ebp+10], dl
  000d3	8a 50 0b	 mov	 dl, BYTE PTR [eax+11]
  000d6	84 d2		 test	 dl, dl
  000d8	74 5b		 je	 SHORT $LN85@LoadString@2
  000da	80 f2 ea	 xor	 dl, -22			; ffffffeaH
  000dd	80 78 0c 00	 cmp	 BYTE PTR [eax+12], 0
  000e1	88 55 f3	 mov	 BYTE PTR __k$[ebp+11], dl
  000e4	0f 84 8f 00 00
	00		 je	 $LN111@LoadString@2
  000ea	8a 50 0d	 mov	 dl, BYTE PTR [eax+13]
  000ed	84 d2		 test	 dl, dl
  000ef	74 3f		 je	 SHORT $LN83@LoadString@2
  000f1	32 d1		 xor	 dl, cl
  000f3	88 55 f5	 mov	 BYTE PTR __k$[ebp+13], dl
  000f6	8a 50 0e	 mov	 dl, BYTE PTR [eax+14]
  000f9	84 d2		 test	 dl, dl
  000fb	74 2d		 je	 SHORT $LN82@LoadString@2
  000fd	80 f2 eb	 xor	 dl, -21			; ffffffebH
  00100	88 55 f6	 mov	 BYTE PTR __k$[ebp+14], dl
  00103	8a 50 0f	 mov	 dl, BYTE PTR [eax+15]
  00106	84 d2		 test	 dl, dl
  00108	74 1a		 je	 SHORT $LN81@LoadString@2
  0010a	8a 40 10	 mov	 al, BYTE PTR [eax+16]
  0010d	80 f2 ea	 xor	 dl, -22			; ffffffeaH
  00110	88 55 f7	 mov	 BYTE PTR __k$[ebp+15], dl
  00113	84 c0		 test	 al, al
  00115	74 07		 je	 SHORT $LN80@LoadString@2
  00117	34 ed		 xor	 al, -19			; ffffffedH
  00119	88 45 f8	 mov	 BYTE PTR __k$[ebp+16], al
  0011c	eb 5b		 jmp	 SHORT $LN111@LoadString@2
$LN80@LoadString@2:
  0011e	c6 45 f8 ed	 mov	 BYTE PTR __k$[ebp+16], -19 ; ffffffedH
  00122	eb 55		 jmp	 SHORT $LN111@LoadString@2
$LN81@LoadString@2:
  00124	c6 45 f7 ea	 mov	 BYTE PTR __k$[ebp+15], -22 ; ffffffeaH
  00128	eb 4f		 jmp	 SHORT $LN111@LoadString@2
$LN82@LoadString@2:
  0012a	c6 45 f6 eb	 mov	 BYTE PTR __k$[ebp+14], -21 ; ffffffebH
  0012e	eb 49		 jmp	 SHORT $LN111@LoadString@2
$LN83@LoadString@2:
  00130	88 4d f5	 mov	 BYTE PTR __k$[ebp+13], cl
  00133	eb 44		 jmp	 SHORT $LN111@LoadString@2
$LN85@LoadString@2:
  00135	c6 45 f3 ea	 mov	 BYTE PTR __k$[ebp+11], -22 ; ffffffeaH
  00139	eb 3e		 jmp	 SHORT $LN111@LoadString@2
$LN86@LoadString@2:
  0013b	c6 45 f2 eb	 mov	 BYTE PTR __k$[ebp+10], -21 ; ffffffebH
  0013f	eb 38		 jmp	 SHORT $LN111@LoadString@2
$LN87@LoadString@2:
  00141	88 4d f1	 mov	 BYTE PTR __k$[ebp+9], cl
  00144	eb 33		 jmp	 SHORT $LN111@LoadString@2
$LN88@LoadString@2:
  00146	c6 45 f0 ed	 mov	 BYTE PTR __k$[ebp+8], -19 ; ffffffedH
  0014a	eb 2d		 jmp	 SHORT $LN111@LoadString@2
$LN89@LoadString@2:
  0014c	c6 45 ef ea	 mov	 BYTE PTR __k$[ebp+7], -22 ; ffffffeaH
  00150	eb 27		 jmp	 SHORT $LN111@LoadString@2
$LN90@LoadString@2:
  00152	c6 45 ee eb	 mov	 BYTE PTR __k$[ebp+6], -21 ; ffffffebH
  00156	eb 21		 jmp	 SHORT $LN111@LoadString@2
$LN91@LoadString@2:
  00158	88 4d ed	 mov	 BYTE PTR __k$[ebp+5], cl
  0015b	eb 1c		 jmp	 SHORT $LN111@LoadString@2
$LN92@LoadString@2:
  0015d	c6 45 ec ed	 mov	 BYTE PTR __k$[ebp+4], -19 ; ffffffedH
  00161	eb 16		 jmp	 SHORT $LN111@LoadString@2
$LN93@LoadString@2:
  00163	c6 45 eb ea	 mov	 BYTE PTR __k$[ebp+3], -22 ; ffffffeaH
  00167	eb 10		 jmp	 SHORT $LN111@LoadString@2
$LN94@LoadString@2:
  00169	c6 45 ea eb	 mov	 BYTE PTR __k$[ebp+2], -21 ; ffffffebH
  0016d	eb 0a		 jmp	 SHORT $LN111@LoadString@2
$LN95@LoadString@2:
  0016f	c6 45 e9 ec	 mov	 BYTE PTR __k$[ebp+1], -20 ; ffffffecH
  00173	eb 04		 jmp	 SHORT $LN111@LoadString@2
$LN96@LoadString@2:
  00175	c6 45 e8 ed	 mov	 BYTE PTR __k$[ebp], -19	; ffffffedH
$LN111@LoadString@2:
  00179	6a 03		 push	 3
  0017b	8d 45 e8	 lea	 eax, DWORD PTR __k$[ebp]
  0017e	c6 45 f4 00	 mov	 BYTE PTR __k$[ebp+12], 0
  00182	5a		 pop	 edx
$LL104@LoadString@2:
  00183	81 30 ed ec eb
	ea		 xor	 DWORD PTR [eax], -353637139 ; eaebecedH
  00189	83 c0 04	 add	 eax, 4
  0018c	4a		 dec	 edx
  0018d	75 f4		 jne	 SHORT $LL104@LoadString@2

; 163  : 		LoadString(_k, d, b, i);

  0018f	ff 75 14	 push	 DWORD PTR _i$[ebp]
  00192	8b 4d e4	 mov	 ecx, DWORD PTR _this$GSCopy$[ebp]
  00195	57		 push	 edi
  00196	56		 push	 esi
  00197	8d 45 e8	 lea	 eax, DWORD PTR __k$[ebp]
  0019a	50		 push	 eax
  0019b	ff 15 00 00 00
	00		 call	 DWORD PTR __imp_?LoadStringA@ioINILoader@@QAEXPBD0PADH@Z

; 164  : 	}

  001a1	8b 4d fc	 mov	 ecx, DWORD PTR __$ArrayPad$[ebp]
  001a4	5f		 pop	 edi
  001a5	33 cd		 xor	 ecx, ebp
  001a7	5e		 pop	 esi
  001a8	e8 00 00 00 00	 call	 @__security_check_cookie@4
  001ad	c9		 leave
  001ae	c2 10 00	 ret	 16			; 00000010H
??$LoadString_e@$0N@@ioINILoader@@QAEXAAY0N@$$CBDAAY00$$CBDPADH@Z ENDP ; ioINILoader::LoadString_e<13>
_TEXT	ENDS
PUBLIC	__$ArrayPad$
PUBLIC	??$LoadInt_e@$0BD@@ioINILoader@@QAEHAAY0BD@$$CBDH@Z ; ioINILoader::LoadInt_e<19>
; Function compile flags: /Ogsp
;	COMDAT ??$LoadInt_e@$0BD@@ioINILoader@@QAEHAAY0BD@$$CBDH@Z
_TEXT	SEGMENT
__k$ = -28						; size = 19
__$ArrayPad$ = -4					; size = 4
_k$ = 8							; size = 4
_i$ = 12						; size = 4
??$LoadInt_e@$0BD@@ioINILoader@@QAEHAAY0BD@$$CBDH@Z PROC ; ioINILoader::LoadInt_e<19>, COMDAT
; _this$ = ecx

; 118  : 	{

  00000	55		 push	 ebp
  00001	8b ec		 mov	 ebp, esp
  00003	83 ec 1c	 sub	 esp, 28			; 0000001cH
  00006	a1 00 00 00 00	 mov	 eax, DWORD PTR ___security_cookie
  0000b	33 c5		 xor	 eax, ebp
  0000d	89 45 fc	 mov	 DWORD PTR __$ArrayPad$[ebp], eax
  00010	8b 45 08	 mov	 eax, DWORD PTR _k$[ebp]

; 119  : 		_ENCSTR(k, _k);

  00013	8a 10		 mov	 dl, BYTE PTR [eax]
  00015	56		 push	 esi
  00016	8b f1		 mov	 esi, ecx
  00018	84 d2		 test	 dl, dl
  0001a	0f 84 cf 01 00
	00		 je	 $LN96@LoadInt_e@3
  00020	80 f2 ed	 xor	 dl, -19			; ffffffedH
  00023	88 55 e4	 mov	 BYTE PTR __k$[ebp], dl
  00026	8a 50 01	 mov	 dl, BYTE PTR [eax+1]
  00029	84 d2		 test	 dl, dl
  0002b	0f 84 b8 01 00
	00		 je	 $LN95@LoadInt_e@3
  00031	b1 ec		 mov	 cl, -20			; ffffffecH
  00033	32 d1		 xor	 dl, cl
  00035	88 55 e5	 mov	 BYTE PTR __k$[ebp+1], dl
  00038	8a 50 02	 mov	 dl, BYTE PTR [eax+2]
  0003b	84 d2		 test	 dl, dl
  0003d	0f 84 a0 01 00
	00		 je	 $LN94@LoadInt_e@3
  00043	80 f2 eb	 xor	 dl, -21			; ffffffebH
  00046	88 55 e6	 mov	 BYTE PTR __k$[ebp+2], dl
  00049	8a 50 03	 mov	 dl, BYTE PTR [eax+3]
  0004c	84 d2		 test	 dl, dl
  0004e	0f 84 89 01 00
	00		 je	 $LN93@LoadInt_e@3
  00054	80 f2 ea	 xor	 dl, -22			; ffffffeaH
  00057	88 55 e7	 mov	 BYTE PTR __k$[ebp+3], dl
  0005a	8a 50 04	 mov	 dl, BYTE PTR [eax+4]
  0005d	84 d2		 test	 dl, dl
  0005f	0f 84 72 01 00
	00		 je	 $LN92@LoadInt_e@3
  00065	80 f2 ed	 xor	 dl, -19			; ffffffedH
  00068	88 55 e8	 mov	 BYTE PTR __k$[ebp+4], dl
  0006b	8a 50 05	 mov	 dl, BYTE PTR [eax+5]
  0006e	84 d2		 test	 dl, dl
  00070	0f 84 5c 01 00
	00		 je	 $LN91@LoadInt_e@3
  00076	32 d1		 xor	 dl, cl
  00078	88 55 e9	 mov	 BYTE PTR __k$[ebp+5], dl
  0007b	8a 50 06	 mov	 dl, BYTE PTR [eax+6]
  0007e	84 d2		 test	 dl, dl
  00080	0f 84 46 01 00
	00		 je	 $LN90@LoadInt_e@3
  00086	80 f2 eb	 xor	 dl, -21			; ffffffebH
  00089	88 55 ea	 mov	 BYTE PTR __k$[ebp+6], dl
  0008c	8a 50 07	 mov	 dl, BYTE PTR [eax+7]
  0008f	84 d2		 test	 dl, dl
  00091	0f 84 2f 01 00
	00		 je	 $LN89@LoadInt_e@3
  00097	80 f2 ea	 xor	 dl, -22			; ffffffeaH
  0009a	88 55 eb	 mov	 BYTE PTR __k$[ebp+7], dl
  0009d	8a 50 08	 mov	 dl, BYTE PTR [eax+8]
  000a0	84 d2		 test	 dl, dl
  000a2	0f 84 18 01 00
	00		 je	 $LN88@LoadInt_e@3
  000a8	80 f2 ed	 xor	 dl, -19			; ffffffedH
  000ab	88 55 ec	 mov	 BYTE PTR __k$[ebp+8], dl
  000ae	8a 50 09	 mov	 dl, BYTE PTR [eax+9]
  000b1	84 d2		 test	 dl, dl
  000b3	0f 84 02 01 00
	00		 je	 $LN87@LoadInt_e@3
  000b9	32 d1		 xor	 dl, cl
  000bb	88 55 ed	 mov	 BYTE PTR __k$[ebp+9], dl
  000be	8a 50 0a	 mov	 dl, BYTE PTR [eax+10]
  000c1	84 d2		 test	 dl, dl
  000c3	0f 84 ec 00 00
	00		 je	 $LN86@LoadInt_e@3
  000c9	80 f2 eb	 xor	 dl, -21			; ffffffebH
  000cc	88 55 ee	 mov	 BYTE PTR __k$[ebp+10], dl
  000cf	8a 50 0b	 mov	 dl, BYTE PTR [eax+11]
  000d2	84 d2		 test	 dl, dl
  000d4	0f 84 d5 00 00
	00		 je	 $LN85@LoadInt_e@3
  000da	80 f2 ea	 xor	 dl, -22			; ffffffeaH
  000dd	88 55 ef	 mov	 BYTE PTR __k$[ebp+11], dl
  000e0	8a 50 0c	 mov	 dl, BYTE PTR [eax+12]
  000e3	84 d2		 test	 dl, dl
  000e5	0f 84 be 00 00
	00		 je	 $LN84@LoadInt_e@3
  000eb	80 f2 ed	 xor	 dl, -19			; ffffffedH
  000ee	88 55 f0	 mov	 BYTE PTR __k$[ebp+12], dl
  000f1	8a 50 0d	 mov	 dl, BYTE PTR [eax+13]
  000f4	84 d2		 test	 dl, dl
  000f6	0f 84 a8 00 00
	00		 je	 $LN83@LoadInt_e@3
  000fc	32 d1		 xor	 dl, cl
  000fe	88 55 f1	 mov	 BYTE PTR __k$[ebp+13], dl
  00101	8a 50 0e	 mov	 dl, BYTE PTR [eax+14]
  00104	84 d2		 test	 dl, dl
  00106	0f 84 92 00 00
	00		 je	 $LN82@LoadInt_e@3
  0010c	80 f2 eb	 xor	 dl, -21			; ffffffebH
  0010f	88 55 f2	 mov	 BYTE PTR __k$[ebp+14], dl
  00112	8a 50 0f	 mov	 dl, BYTE PTR [eax+15]
  00115	84 d2		 test	 dl, dl
  00117	74 7f		 je	 SHORT $LN81@LoadInt_e@3
  00119	80 f2 ea	 xor	 dl, -22			; ffffffeaH
  0011c	88 55 f3	 mov	 BYTE PTR __k$[ebp+15], dl
  0011f	8a 50 10	 mov	 dl, BYTE PTR [eax+16]
  00122	84 d2		 test	 dl, dl
  00124	74 6c		 je	 SHORT $LN80@LoadInt_e@3
  00126	80 f2 ed	 xor	 dl, -19			; ffffffedH
  00129	88 55 f4	 mov	 BYTE PTR __k$[ebp+16], dl
  0012c	8a 50 11	 mov	 dl, BYTE PTR [eax+17]
  0012f	84 d2		 test	 dl, dl
  00131	74 5a		 je	 SHORT $LN79@LoadInt_e@3
  00133	32 d1		 xor	 dl, cl
  00135	80 78 12 00	 cmp	 BYTE PTR [eax+18], 0
  00139	88 55 f5	 mov	 BYTE PTR __k$[ebp+17], dl
  0013c	0f 84 b1 00 00
	00		 je	 $LN1@LoadInt_e@3
  00142	8a 50 13	 mov	 dl, BYTE PTR [eax+19]
  00145	84 d2		 test	 dl, dl
  00147	74 3e		 je	 SHORT $LN77@LoadInt_e@3
  00149	80 f2 ea	 xor	 dl, -22			; ffffffeaH
  0014c	88 55 f7	 mov	 BYTE PTR __k$[ebp+19], dl
  0014f	8a 50 14	 mov	 dl, BYTE PTR [eax+20]
  00152	84 d2		 test	 dl, dl
  00154	74 2b		 je	 SHORT $LN76@LoadInt_e@3
  00156	80 f2 ed	 xor	 dl, -19			; ffffffedH
  00159	88 55 f8	 mov	 BYTE PTR __k$[ebp+20], dl
  0015c	8a 50 15	 mov	 dl, BYTE PTR [eax+21]
  0015f	84 d2		 test	 dl, dl
  00161	74 19		 je	 SHORT $LN75@LoadInt_e@3
  00163	8a 40 16	 mov	 al, BYTE PTR [eax+22]
  00166	32 d1		 xor	 dl, cl
  00168	88 55 f9	 mov	 BYTE PTR __k$[ebp+21], dl
  0016b	84 c0		 test	 al, al
  0016d	74 07		 je	 SHORT $LN74@LoadInt_e@3
  0016f	34 eb		 xor	 al, -21			; ffffffebH
  00171	88 45 fa	 mov	 BYTE PTR __k$[ebp+22], al
  00174	eb 7d		 jmp	 SHORT $LN1@LoadInt_e@3
$LN74@LoadInt_e@3:
  00176	c6 45 fa eb	 mov	 BYTE PTR __k$[ebp+22], -21 ; ffffffebH
  0017a	eb 77		 jmp	 SHORT $LN1@LoadInt_e@3
$LN75@LoadInt_e@3:
  0017c	88 4d f9	 mov	 BYTE PTR __k$[ebp+21], cl
  0017f	eb 72		 jmp	 SHORT $LN1@LoadInt_e@3
$LN76@LoadInt_e@3:
  00181	c6 45 f8 ed	 mov	 BYTE PTR __k$[ebp+20], -19 ; ffffffedH
  00185	eb 6c		 jmp	 SHORT $LN1@LoadInt_e@3
$LN77@LoadInt_e@3:
  00187	c6 45 f7 ea	 mov	 BYTE PTR __k$[ebp+19], -22 ; ffffffeaH
  0018b	eb 66		 jmp	 SHORT $LN1@LoadInt_e@3
$LN79@LoadInt_e@3:
  0018d	88 4d f5	 mov	 BYTE PTR __k$[ebp+17], cl
  00190	eb 61		 jmp	 SHORT $LN1@LoadInt_e@3
$LN80@LoadInt_e@3:
  00192	c6 45 f4 ed	 mov	 BYTE PTR __k$[ebp+16], -19 ; ffffffedH
  00196	eb 5b		 jmp	 SHORT $LN1@LoadInt_e@3
$LN81@LoadInt_e@3:
  00198	c6 45 f3 ea	 mov	 BYTE PTR __k$[ebp+15], -22 ; ffffffeaH
  0019c	eb 55		 jmp	 SHORT $LN1@LoadInt_e@3
$LN82@LoadInt_e@3:
  0019e	c6 45 f2 eb	 mov	 BYTE PTR __k$[ebp+14], -21 ; ffffffebH
  001a2	eb 4f		 jmp	 SHORT $LN1@LoadInt_e@3
$LN83@LoadInt_e@3:
  001a4	88 4d f1	 mov	 BYTE PTR __k$[ebp+13], cl
  001a7	eb 4a		 jmp	 SHORT $LN1@LoadInt_e@3
$LN84@LoadInt_e@3:
  001a9	c6 45 f0 ed	 mov	 BYTE PTR __k$[ebp+12], -19 ; ffffffedH
  001ad	eb 44		 jmp	 SHORT $LN1@LoadInt_e@3
$LN85@LoadInt_e@3:
  001af	c6 45 ef ea	 mov	 BYTE PTR __k$[ebp+11], -22 ; ffffffeaH
  001b3	eb 3e		 jmp	 SHORT $LN1@LoadInt_e@3
$LN86@LoadInt_e@3:
  001b5	c6 45 ee eb	 mov	 BYTE PTR __k$[ebp+10], -21 ; ffffffebH
  001b9	eb 38		 jmp	 SHORT $LN1@LoadInt_e@3
$LN87@LoadInt_e@3:
  001bb	88 4d ed	 mov	 BYTE PTR __k$[ebp+9], cl
  001be	eb 33		 jmp	 SHORT $LN1@LoadInt_e@3
$LN88@LoadInt_e@3:
  001c0	c6 45 ec ed	 mov	 BYTE PTR __k$[ebp+8], -19 ; ffffffedH
  001c4	eb 2d		 jmp	 SHORT $LN1@LoadInt_e@3
$LN89@LoadInt_e@3:
  001c6	c6 45 eb ea	 mov	 BYTE PTR __k$[ebp+7], -22 ; ffffffeaH
  001ca	eb 27		 jmp	 SHORT $LN1@LoadInt_e@3
$LN90@LoadInt_e@3:
  001cc	c6 45 ea eb	 mov	 BYTE PTR __k$[ebp+6], -21 ; ffffffebH
  001d0	eb 21		 jmp	 SHORT $LN1@LoadInt_e@3
$LN91@LoadInt_e@3:
  001d2	88 4d e9	 mov	 BYTE PTR __k$[ebp+5], cl
  001d5	eb 1c		 jmp	 SHORT $LN1@LoadInt_e@3
$LN92@LoadInt_e@3:
  001d7	c6 45 e8 ed	 mov	 BYTE PTR __k$[ebp+4], -19 ; ffffffedH
  001db	eb 16		 jmp	 SHORT $LN1@LoadInt_e@3
$LN93@LoadInt_e@3:
  001dd	c6 45 e7 ea	 mov	 BYTE PTR __k$[ebp+3], -22 ; ffffffeaH
  001e1	eb 10		 jmp	 SHORT $LN1@LoadInt_e@3
$LN94@LoadInt_e@3:
  001e3	c6 45 e6 eb	 mov	 BYTE PTR __k$[ebp+2], -21 ; ffffffebH
  001e7	eb 0a		 jmp	 SHORT $LN1@LoadInt_e@3
$LN95@LoadInt_e@3:
  001e9	c6 45 e5 ec	 mov	 BYTE PTR __k$[ebp+1], -20 ; ffffffecH
  001ed	eb 04		 jmp	 SHORT $LN1@LoadInt_e@3
$LN96@LoadInt_e@3:
  001ef	c6 45 e4 ed	 mov	 BYTE PTR __k$[ebp], -19	; ffffffedH
$LN1@LoadInt_e@3:
  001f3	6a 04		 push	 4
  001f5	8d 45 e4	 lea	 eax, DWORD PTR __k$[ebp]
  001f8	c6 45 f6 00	 mov	 BYTE PTR __k$[ebp+18], 0
  001fc	5a		 pop	 edx
$LL104@LoadInt_e@3:
  001fd	81 30 ed ec eb
	ea		 xor	 DWORD PTR [eax], -353637139 ; eaebecedH
  00203	83 c0 04	 add	 eax, 4
  00206	4a		 dec	 edx
  00207	75 f4		 jne	 SHORT $LL104@LoadInt_e@3
  00209	6a 10		 push	 16			; 00000010H
  0020b	58		 pop	 eax
$LL101@LoadInt_e@3:
  0020c	8b c8		 mov	 ecx, eax
  0020e	81 e1 03 00 00
	80		 and	 ecx, -2147483645	; 80000003H
  00214	79 05		 jns	 SHORT $LN111@LoadInt_e@3
  00216	49		 dec	 ecx
  00217	83 c9 fc	 or	 ecx, -4			; fffffffcH
  0021a	41		 inc	 ecx
$LN111@LoadInt_e@3:
  0021b	b2 ed		 mov	 dl, -19			; ffffffedH
  0021d	2a d1		 sub	 dl, cl
  0021f	30 54 05 e4	 xor	 BYTE PTR __k$[ebp+eax], dl
  00223	40		 inc	 eax
  00224	83 f8 12	 cmp	 eax, 18			; 00000012H
  00227	7c e3		 jl	 SHORT $LL101@LoadInt_e@3

; 120  : 		return LoadInt(_k, i);

  00229	ff 75 0c	 push	 DWORD PTR _i$[ebp]
  0022c	8d 45 e4	 lea	 eax, DWORD PTR __k$[ebp]
  0022f	50		 push	 eax
  00230	8b ce		 mov	 ecx, esi
  00232	ff 15 00 00 00
	00		 call	 DWORD PTR __imp_?LoadInt@ioINILoader@@QAEHPBDH@Z

; 121  : 	}

  00238	8b 4d fc	 mov	 ecx, DWORD PTR __$ArrayPad$[ebp]
  0023b	33 cd		 xor	 ecx, ebp
  0023d	5e		 pop	 esi
  0023e	e8 00 00 00 00	 call	 @__security_check_cookie@4
  00243	c9		 leave
  00244	c2 08 00	 ret	 8
??$LoadInt_e@$0BD@@ioINILoader@@QAEHAAY0BD@$$CBDH@Z ENDP ; ioINILoader::LoadInt_e<19>
_TEXT	ENDS
PUBLIC	??$construct@AAVioHashString@@@?$allocator@VioHashString@@@std@@QAEXPAVioHashString@@AAV2@@Z ; std::allocator<ioHashString>::construct<ioHashString &>
;	COMDAT xdata$x
; File c:\program files (x86)\microsoft visual studio 10.0\vc\include\utility
xdata$x	SEGMENT
__unwindtable$??$construct@AAVioHashString@@@?$allocator@VioHashString@@@std@@QAEXPAVioHashString@@AAV2@@Z DD 0ffffffffH
	DD	FLAT:__unwindfunclet$??$construct@AAVioHashString@@@?$allocator@VioHashString@@@std@@QAEXPAVioHashString@@AAV2@@Z$0
__ehfuncinfo$??$construct@AAVioHashString@@@?$allocator@VioHashString@@@std@@QAEXPAVioHashString@@AAV2@@Z DD 019930522H
	DD	01H
	DD	FLAT:__unwindtable$??$construct@AAVioHashString@@@?$allocator@VioHashString@@@std@@QAEXPAVioHashString@@AAV2@@Z
	DD	2 DUP(00H)
	DD	2 DUP(00H)
	DD	00H
	DD	01H
; Function compile flags: /Ogsp
; File c:\program files (x86)\microsoft visual studio 10.0\vc\include\xmemory
xdata$x	ENDS
;	COMDAT ??$construct@AAVioHashString@@@?$allocator@VioHashString@@@std@@QAEXPAVioHashString@@AAV2@@Z
_TEXT	SEGMENT
$T572597 = -16						; size = 4
__$EHRec$ = -12						; size = 12
__Ptr$ = 8						; size = 4
__Val$ = 12						; size = 4
??$construct@AAVioHashString@@@?$allocator@VioHashString@@@std@@QAEXPAVioHashString@@AAV2@@Z PROC ; std::allocator<ioHashString>::construct<ioHashString &>, COMDAT
; _this$ = ecx

; 206  : 		void construct(pointer _Ptr, _Other&& _Val)

  00000	6a 04		 push	 4
  00002	b8 00 00 00 00	 mov	 eax, __ehhandler$??$construct@AAVioHashString@@@?$allocator@VioHashString@@@std@@QAEXPAVioHashString@@AAV2@@Z
  00007	e8 00 00 00 00	 call	 __EH_prolog3

; 207  : 		{	// construct object at _Ptr with value _Val
; 208  : 		::new ((void _FARQ *)_Ptr) _Ty(_STD forward<_Other>(_Val));

  0000c	8b 4d 08	 mov	 ecx, DWORD PTR __Ptr$[ebp]
  0000f	89 4d f0	 mov	 DWORD PTR $T572597[ebp], ecx
  00012	83 65 fc 00	 and	 DWORD PTR __$EHRec$[ebp+8], 0
  00016	85 c9		 test	 ecx, ecx
  00018	74 09		 je	 SHORT $LN3@construct
  0001a	ff 75 0c	 push	 DWORD PTR __Val$[ebp]
  0001d	ff 15 00 00 00
	00		 call	 DWORD PTR __imp_??0ioHashString@@QAE@ABV0@@Z
$LN3@construct:

; 209  : 		}

  00023	e8 00 00 00 00	 call	 __EH_epilog3
  00028	c2 08 00	 ret	 8
_TEXT	ENDS
;	COMDAT text$x
text$x	SEGMENT
__unwindfunclet$??$construct@AAVioHashString@@@?$allocator@VioHashString@@@std@@QAEXPAVioHashString@@AAV2@@Z$0:
  00000	ff 75 08	 push	 DWORD PTR __Ptr$[ebp]
  00003	ff 75 f0	 push	 DWORD PTR $T572597[ebp]
  00006	e8 00 00 00 00	 call	 ??3@YAXPAX0@Z		; operator delete
  0000b	59		 pop	 ecx
  0000c	59		 pop	 ecx
  0000d	c3		 ret	 0
__ehhandler$??$construct@AAVioHashString@@@?$allocator@VioHashString@@@std@@QAEXPAVioHashString@@AAV2@@Z:
  0000e	8b 54 24 08	 mov	 edx, DWORD PTR [esp+8]
  00012	8d 42 0c	 lea	 eax, DWORD PTR [edx+12]
  00015	8b 4a ec	 mov	 ecx, DWORD PTR [edx-20]
  00018	33 c8		 xor	 ecx, eax
  0001a	e8 00 00 00 00	 call	 @__security_check_cookie@4
  0001f	b8 00 00 00 00	 mov	 eax, OFFSET __ehfuncinfo$??$construct@AAVioHashString@@@?$allocator@VioHashString@@@std@@QAEXPAVioHashString@@AAV2@@Z
  00024	e9 00 00 00 00	 jmp	 ___CxxFrameHandler3
text$x	ENDS
??$construct@AAVioHashString@@@?$allocator@VioHashString@@@std@@QAEXPAVioHashString@@AAV2@@Z ENDP ; std::allocator<ioHashString>::construct<ioHashString &>
PUBLIC	??$_Construct@UWeaponInfo@@ABU1@@std@@YAXPAUWeaponInfo@@ABU1@@Z ; std::_Construct<WeaponInfo,WeaponInfo const &>
;	COMDAT xdata$x
; File c:\program files (x86)\microsoft visual studio 10.0\vc\include\utility
xdata$x	SEGMENT
__unwindtable$??$_Construct@UWeaponInfo@@ABU1@@std@@YAXPAUWeaponInfo@@ABU1@@Z DD 0ffffffffH
	DD	FLAT:__unwindfunclet$??$_Construct@UWeaponInfo@@ABU1@@std@@YAXPAUWeaponInfo@@ABU1@@Z$0
__ehfuncinfo$??$_Construct@UWeaponInfo@@ABU1@@std@@YAXPAUWeaponInfo@@ABU1@@Z DD 019930522H
	DD	01H
	DD	FLAT:__unwindtable$??$_Construct@UWeaponInfo@@ABU1@@std@@YAXPAUWeaponInfo@@ABU1@@Z
	DD	2 DUP(00H)
	DD	2 DUP(00H)
	DD	00H
	DD	01H
; Function compile flags: /Ogsp
; File c:\program files (x86)\microsoft visual studio 10.0\vc\include\xmemory
xdata$x	ENDS
;	COMDAT ??$_Construct@UWeaponInfo@@ABU1@@std@@YAXPAUWeaponInfo@@ABU1@@Z
_TEXT	SEGMENT
$T572616 = -16						; size = 4
__$EHRec$ = -12						; size = 12
__Vptr$ = 8						; size = 4
__Ptr$ = 8						; size = 4
__Val$ = 12						; size = 4
??$_Construct@UWeaponInfo@@ABU1@@std@@YAXPAUWeaponInfo@@ABU1@@Z PROC ; std::_Construct<WeaponInfo,WeaponInfo const &>, COMDAT

; 46   : 	{	// construct object at _Ptr with value _Val

  00000	6a 04		 push	 4
  00002	b8 00 00 00 00	 mov	 eax, __ehhandler$??$_Construct@UWeaponInfo@@ABU1@@std@@YAXPAUWeaponInfo@@ABU1@@Z
  00007	e8 00 00 00 00	 call	 __EH_prolog3

; 47   : 	void _FARQ *_Vptr = _Ptr;

  0000c	8b 4d 08	 mov	 ecx, DWORD PTR __Ptr$[ebp]
  0000f	89 4d 08	 mov	 DWORD PTR __Vptr$[ebp], ecx

; 48   : 	::new (_Vptr) _Ty1(_STD forward<_Ty2>(_Val));

  00012	89 4d f0	 mov	 DWORD PTR $T572616[ebp], ecx
  00015	83 65 fc 00	 and	 DWORD PTR __$EHRec$[ebp+8], 0
  00019	85 c9		 test	 ecx, ecx
  0001b	74 08		 je	 SHORT $LN3@Construct@2
  0001d	ff 75 0c	 push	 DWORD PTR __Val$[ebp]
  00020	e8 00 00 00 00	 call	 ??0WeaponInfo@@QAE@ABU0@@Z
$LN3@Construct@2:

; 49   : 	}

  00025	e8 00 00 00 00	 call	 __EH_epilog3
  0002a	c3		 ret	 0
_TEXT	ENDS
;	COMDAT text$x
text$x	SEGMENT
__unwindfunclet$??$_Construct@UWeaponInfo@@ABU1@@std@@YAXPAUWeaponInfo@@ABU1@@Z$0:
  00000	ff 75 08	 push	 DWORD PTR __Vptr$[ebp]
  00003	ff 75 f0	 push	 DWORD PTR $T572616[ebp]
  00006	e8 00 00 00 00	 call	 ??3@YAXPAX0@Z		; operator delete
  0000b	59		 pop	 ecx
  0000c	59		 pop	 ecx
  0000d	c3		 ret	 0
__ehhandler$??$_Construct@UWeaponInfo@@ABU1@@std@@YAXPAUWeaponInfo@@ABU1@@Z:
  0000e	8b 54 24 08	 mov	 edx, DWORD PTR [esp+8]
  00012	8d 42 0c	 lea	 eax, DWORD PTR [edx+12]
  00015	8b 4a ec	 mov	 ecx, DWORD PTR [edx-20]
  00018	33 c8		 xor	 ecx, eax
  0001a	e8 00 00 00 00	 call	 @__security_check_cookie@4
  0001f	b8 00 00 00 00	 mov	 eax, OFFSET __ehfuncinfo$??$_Construct@UWeaponInfo@@ABU1@@std@@YAXPAUWeaponInfo@@ABU1@@Z
  00024	e9 00 00 00 00	 jmp	 ___CxxFrameHandler3
text$x	ENDS
??$_Construct@UWeaponInfo@@ABU1@@std@@YAXPAUWeaponInfo@@ABU1@@Z ENDP ; std::_Construct<WeaponInfo,WeaponInfo const &>
PUBLIC	?construct@?$allocator@VioHashString@@@std@@QAEXPAVioHashString@@$$QAV3@@Z ; std::allocator<ioHashString>::construct
;	COMDAT xdata$x
; File c:\program files (x86)\microsoft visual studio 10.0\vc\include\utility
xdata$x	SEGMENT
__unwindtable$?construct@?$allocator@VioHashString@@@std@@QAEXPAVioHashString@@$$QAV3@@Z DD 0ffffffffH
	DD	FLAT:__unwindfunclet$?construct@?$allocator@VioHashString@@@std@@QAEXPAVioHashString@@$$QAV3@@Z$0
__ehfuncinfo$?construct@?$allocator@VioHashString@@@std@@QAEXPAVioHashString@@$$QAV3@@Z DD 019930522H
	DD	01H
	DD	FLAT:__unwindtable$?construct@?$allocator@VioHashString@@@std@@QAEXPAVioHashString@@$$QAV3@@Z
	DD	2 DUP(00H)
	DD	2 DUP(00H)
	DD	00H
	DD	01H
; Function compile flags: /Ogsp
; File c:\program files (x86)\microsoft visual studio 10.0\vc\include\xmemory
xdata$x	ENDS
;	COMDAT ?construct@?$allocator@VioHashString@@@std@@QAEXPAVioHashString@@$$QAV3@@Z
_TEXT	SEGMENT
$T572635 = -16						; size = 4
__$EHRec$ = -12						; size = 12
__Ptr$ = 8						; size = 4
__Val$ = 12						; size = 4
?construct@?$allocator@VioHashString@@@std@@QAEXPAVioHashString@@$$QAV3@@Z PROC ; std::allocator<ioHashString>::construct, COMDAT
; _this$ = ecx

; 201  : 		{	// construct object at _Ptr with value _Val

  00000	6a 04		 push	 4
  00002	b8 00 00 00 00	 mov	 eax, __ehhandler$?construct@?$allocator@VioHashString@@@std@@QAEXPAVioHashString@@$$QAV3@@Z
  00007	e8 00 00 00 00	 call	 __EH_prolog3

; 202  : 		::new ((void _FARQ *)_Ptr) _Ty(_STD forward<_Ty>(_Val));

  0000c	8b 4d 08	 mov	 ecx, DWORD PTR __Ptr$[ebp]
  0000f	89 4d f0	 mov	 DWORD PTR $T572635[ebp], ecx
  00012	83 65 fc 00	 and	 DWORD PTR __$EHRec$[ebp+8], 0
  00016	85 c9		 test	 ecx, ecx
  00018	74 09		 je	 SHORT $LN3@construct@2
  0001a	ff 75 0c	 push	 DWORD PTR __Val$[ebp]
  0001d	ff 15 00 00 00
	00		 call	 DWORD PTR __imp_??0ioHashString@@QAE@ABV0@@Z
$LN3@construct@2:

; 203  : 		}

  00023	e8 00 00 00 00	 call	 __EH_epilog3
  00028	c2 08 00	 ret	 8
_TEXT	ENDS
;	COMDAT text$x
text$x	SEGMENT
__unwindfunclet$?construct@?$allocator@VioHashString@@@std@@QAEXPAVioHashString@@$$QAV3@@Z$0:
  00000	ff 75 08	 push	 DWORD PTR __Ptr$[ebp]
  00003	ff 75 f0	 push	 DWORD PTR $T572635[ebp]
  00006	e8 00 00 00 00	 call	 ??3@YAXPAX0@Z		; operator delete
  0000b	59		 pop	 ecx
  0000c	59		 pop	 ecx
  0000d	c3		 ret	 0
__ehhandler$?construct@?$allocator@VioHashString@@@std@@QAEXPAVioHashString@@$$QAV3@@Z:
  0000e	8b 54 24 08	 mov	 edx, DWORD PTR [esp+8]
  00012	8d 42 0c	 lea	 eax, DWORD PTR [edx+12]
  00015	8b 4a ec	 mov	 ecx, DWORD PTR [edx-20]
  00018	33 c8		 xor	 ecx, eax
  0001a	e8 00 00 00 00	 call	 @__security_check_cookie@4
  0001f	b8 00 00 00 00	 mov	 eax, OFFSET __ehfuncinfo$?construct@?$allocator@VioHashString@@@std@@QAEXPAVioHashString@@$$QAV3@@Z
  00024	e9 00 00 00 00	 jmp	 ___CxxFrameHandler3
text$x	ENDS
?construct@?$allocator@VioHashString@@@std@@QAEXPAVioHashString@@$$QAV3@@Z ENDP ; std::allocator<ioHashString>::construct
PUBLIC	?construct@?$allocator@UWeaponInfo@@@std@@QAEXPAUWeaponInfo@@$$QAU3@@Z ; std::allocator<WeaponInfo>::construct
;	COMDAT xdata$x
; File c:\program files (x86)\microsoft visual studio 10.0\vc\include\utility
xdata$x	SEGMENT
__unwindtable$?construct@?$allocator@UWeaponInfo@@@std@@QAEXPAUWeaponInfo@@$$QAU3@@Z DD 0ffffffffH
	DD	FLAT:__unwindfunclet$?construct@?$allocator@UWeaponInfo@@@std@@QAEXPAUWeaponInfo@@$$QAU3@@Z$0
__ehfuncinfo$?construct@?$allocator@UWeaponInfo@@@std@@QAEXPAUWeaponInfo@@$$QAU3@@Z DD 019930522H
	DD	01H
	DD	FLAT:__unwindtable$?construct@?$allocator@UWeaponInfo@@@std@@QAEXPAUWeaponInfo@@$$QAU3@@Z
	DD	2 DUP(00H)
	DD	2 DUP(00H)
	DD	00H
	DD	01H
; Function compile flags: /Ogsp
; File c:\program files (x86)\microsoft visual studio 10.0\vc\include\xmemory
xdata$x	ENDS
;	COMDAT ?construct@?$allocator@UWeaponInfo@@@std@@QAEXPAUWeaponInfo@@$$QAU3@@Z
_TEXT	SEGMENT
$T572654 = -16						; size = 4
__$EHRec$ = -12						; size = 12
__Ptr$ = 8						; size = 4
__Val$ = 12						; size = 4
?construct@?$allocator@UWeaponInfo@@@std@@QAEXPAUWeaponInfo@@$$QAU3@@Z PROC ; std::allocator<WeaponInfo>::construct, COMDAT
; _this$ = ecx

; 201  : 		{	// construct object at _Ptr with value _Val

  00000	6a 04		 push	 4
  00002	b8 00 00 00 00	 mov	 eax, __ehhandler$?construct@?$allocator@UWeaponInfo@@@std@@QAEXPAUWeaponInfo@@$$QAU3@@Z
  00007	e8 00 00 00 00	 call	 __EH_prolog3

; 202  : 		::new ((void _FARQ *)_Ptr) _Ty(_STD forward<_Ty>(_Val));

  0000c	8b 4d 08	 mov	 ecx, DWORD PTR __Ptr$[ebp]
  0000f	89 4d f0	 mov	 DWORD PTR $T572654[ebp], ecx
  00012	83 65 fc 00	 and	 DWORD PTR __$EHRec$[ebp+8], 0
  00016	85 c9		 test	 ecx, ecx
  00018	74 08		 je	 SHORT $LN3@construct@3
  0001a	ff 75 0c	 push	 DWORD PTR __Val$[ebp]
  0001d	e8 00 00 00 00	 call	 ??0WeaponInfo@@QAE@ABU0@@Z
$LN3@construct@3:

; 203  : 		}

  00022	e8 00 00 00 00	 call	 __EH_epilog3
  00027	c2 08 00	 ret	 8
_TEXT	ENDS
;	COMDAT text$x
text$x	SEGMENT
__unwindfunclet$?construct@?$allocator@UWeaponInfo@@@std@@QAEXPAUWeaponInfo@@$$QAU3@@Z$0:
  00000	ff 75 08	 push	 DWORD PTR __Ptr$[ebp]
  00003	ff 75 f0	 push	 DWORD PTR $T572654[ebp]
  00006	e8 00 00 00 00	 call	 ??3@YAXPAX0@Z		; operator delete
  0000b	59		 pop	 ecx
  0000c	59		 pop	 ecx
  0000d	c3		 ret	 0
__ehhandler$?construct@?$allocator@UWeaponInfo@@@std@@QAEXPAUWeaponInfo@@$$QAU3@@Z:
  0000e	8b 54 24 08	 mov	 edx, DWORD PTR [esp+8]
  00012	8d 42 0c	 lea	 eax, DWORD PTR [edx+12]
  00015	8b 4a ec	 mov	 ecx, DWORD PTR [edx-20]
  00018	33 c8		 xor	 ecx, eax
  0001a	e8 00 00 00 00	 call	 @__security_check_cookie@4
  0001f	b8 00 00 00 00	 mov	 eax, OFFSET __ehfuncinfo$?construct@?$allocator@UWeaponInfo@@@std@@QAEXPAUWeaponInfo@@$$QAU3@@Z
  00024	e9 00 00 00 00	 jmp	 ___CxxFrameHandler3
text$x	ENDS
?construct@?$allocator@UWeaponInfo@@@std@@QAEXPAUWeaponInfo@@$$QAU3@@Z ENDP ; std::allocator<WeaponInfo>::construct
PUBLIC	??0WeaponInfo@@QAE@XZ				; WeaponInfo::WeaponInfo
; Function compile flags: /Ogsp
; File d:\lost saga for developer\youtube\tutorial\source\src\lsclient\ioattackattribute.h
;	COMDAT ??0WeaponInfo@@QAE@XZ
_TEXT	SEGMENT
??0WeaponInfo@@QAE@XZ PROC				; WeaponInfo::WeaponInfo, COMDAT
; _this$ = ecx

; 64   : 	WeaponInfo()

  00000	56		 push	 esi
  00001	8b f1		 mov	 esi, ecx
  00003	8d 4e 08	 lea	 ecx, DWORD PTR [esi+8]
  00006	ff 15 00 00 00
	00		 call	 DWORD PTR __imp_??0ioHashString@@QAE@XZ

; 65   : 	{
; 66   : 		Init();

  0000c	33 c0		 xor	 eax, eax
  0000e	89 06		 mov	 DWORD PTR [esi], eax
  00010	89 46 04	 mov	 DWORD PTR [esi+4], eax
  00013	89 46 18	 mov	 DWORD PTR [esi+24], eax
  00016	89 46 1c	 mov	 DWORD PTR [esi+28], eax
  00019	88 46 20	 mov	 BYTE PTR [esi+32], al
  0001c	89 46 24	 mov	 DWORD PTR [esi+36], eax

; 67   : 	}

  0001f	8b c6		 mov	 eax, esi
  00021	5e		 pop	 esi
  00022	c3		 ret	 0
??0WeaponInfo@@QAE@XZ ENDP				; WeaponInfo::WeaponInfo
_TEXT	ENDS
PUBLIC	??0?$CEncrypt@M@@QAE@XZ				; CEncrypt<float>::CEncrypt<float>
EXTRN	??0ccddaabb@@QAE@XZ:PROC			; ccddaabb::ccddaabb
;	COMDAT xdata$x
; File d:\lost saga for developer\youtube\tutorial\source\src\lsclient\encryptvalue.h
xdata$x	SEGMENT
__unwindtable$??0?$CEncrypt@M@@QAE@XZ DD 0ffffffffH
	DD	FLAT:__unwindfunclet$??0?$CEncrypt@M@@QAE@XZ$0
__ehfuncinfo$??0?$CEncrypt@M@@QAE@XZ DD 019930522H
	DD	01H
	DD	FLAT:__unwindtable$??0?$CEncrypt@M@@QAE@XZ
	DD	2 DUP(00H)
	DD	2 DUP(00H)
	DD	00H
	DD	01H
; Function compile flags: /Ogsp
xdata$x	ENDS
;	COMDAT ??0?$CEncrypt@M@@QAE@XZ
_TEXT	SEGMENT
_this$ = -16						; size = 4
__$EHRec$ = -12						; size = 12
??0?$CEncrypt@M@@QAE@XZ PROC				; CEncrypt<float>::CEncrypt<float>, COMDAT
; _this$ = ecx

; 109  : 	CEncrypt()

  00000	6a 04		 push	 4
  00002	b8 00 00 00 00	 mov	 eax, __ehhandler$??0?$CEncrypt@M@@QAE@XZ
  00007	e8 00 00 00 00	 call	 __EH_prolog3
  0000c	8b f1		 mov	 esi, ecx
  0000e	89 75 f0	 mov	 DWORD PTR _this$[ebp], esi
  00011	8d 4e 0c	 lea	 ecx, DWORD PTR [esi+12]
  00014	c7 06 00 00 00
	00		 mov	 DWORD PTR [esi], OFFSET ??_7?$CEncrypt@M@@6B@
  0001a	e8 00 00 00 00	 call	 ??0ccddaabb@@QAE@XZ	; ccddaabb::ccddaabb
  0001f	83 65 fc 00	 and	 DWORD PTR __$EHRec$[ebp+8], 0

; 110  : 	{
; 111  : 		Init();

  00023	8b ce		 mov	 ecx, esi
  00025	e8 00 00 00 00	 call	 ?Init@?$CEncrypt@M@@AAEXXZ ; CEncrypt<float>::Init

; 112  : 	}

  0002a	8b c6		 mov	 eax, esi
  0002c	e8 00 00 00 00	 call	 __EH_epilog3
  00031	c3		 ret	 0
_TEXT	ENDS
;	COMDAT text$x
text$x	SEGMENT
__unwindfunclet$??0?$CEncrypt@M@@QAE@XZ$0:
  00000	8b 4d f0	 mov	 ecx, DWORD PTR _this$[ebp]
  00003	83 c1 0c	 add	 ecx, 12			; 0000000cH
  00006	e9 00 00 00 00	 jmp	 ??1ccddaabb@@UAE@XZ	; ccddaabb::~ccddaabb
__ehhandler$??0?$CEncrypt@M@@QAE@XZ:
  0000b	8b 54 24 08	 mov	 edx, DWORD PTR [esp+8]
  0000f	8d 42 0c	 lea	 eax, DWORD PTR [edx+12]
  00012	8b 4a ec	 mov	 ecx, DWORD PTR [edx-20]
  00015	33 c8		 xor	 ecx, eax
  00017	e8 00 00 00 00	 call	 @__security_check_cookie@4
  0001c	b8 00 00 00 00	 mov	 eax, OFFSET __ehfuncinfo$??0?$CEncrypt@M@@QAE@XZ
  00021	e9 00 00 00 00	 jmp	 ___CxxFrameHandler3
text$x	ENDS
??0?$CEncrypt@M@@QAE@XZ ENDP				; CEncrypt<float>::CEncrypt<float>
PUBLIC	??B?$CEncrypt@M@@QAEMXZ				; CEncrypt<float>::operator float
; Function compile flags: /Ogsp
;	COMDAT ??B?$CEncrypt@M@@QAEMXZ
_TEXT	SEGMENT
_value$ = -4						; size = 4
??B?$CEncrypt@M@@QAEMXZ PROC				; CEncrypt<float>::operator float, COMDAT
; _this$ = ecx

; 134  : 	{

  00000	55		 push	 ebp
  00001	8b ec		 mov	 ebp, esp
  00003	51		 push	 ecx

; 135  : 		type value;
; 136  : 		DecryptValueToPool(&value);

  00004	8d 45 fc	 lea	 eax, DWORD PTR _value$[ebp]
  00007	50		 push	 eax
  00008	e8 00 00 00 00	 call	 ?DecryptValueToPool@?$CEncrypt@M@@QAEXPAM@Z ; CEncrypt<float>::DecryptValueToPool

; 137  : 
; 138  : #ifdef _NOTUSE
; 139  : 		Debug();
; 140  : #endif
; 141  : 		return value;

  0000d	d9 45 fc	 fld	 DWORD PTR _value$[ebp]

; 142  : 	}

  00010	c9		 leave
  00011	c3		 ret	 0
??B?$CEncrypt@M@@QAEMXZ ENDP				; CEncrypt<float>::operator float
_TEXT	ENDS
PUBLIC	??4?$CEncrypt@M@@QAEMM@Z			; CEncrypt<float>::operator=
; Function compile flags: /Ogsp
;	COMDAT ??4?$CEncrypt@M@@QAEMM@Z
_TEXT	SEGMENT
_value$ = 8						; size = 4
_inValue$ = 8						; size = 4
??4?$CEncrypt@M@@QAEMM@Z PROC				; CEncrypt<float>::operator=, COMDAT
; _this$ = ecx

; 1654 : 	{	

  00000	55		 push	 ebp
  00001	8b ec		 mov	 ebp, esp

; 1655 : 		type value = inValue;

  00003	d9 45 08	 fld	 DWORD PTR _inValue$[ebp]

; 1656 : 		EncryptValueToPool((char*)&value);

  00006	8d 45 08	 lea	 eax, DWORD PTR _value$[ebp]
  00009	50		 push	 eax
  0000a	d9 5d 08	 fstp	 DWORD PTR _value$[ebp]
  0000d	e8 00 00 00 00	 call	 ?EncryptValueToPool@?$CEncrypt@M@@AAEXPBD@Z ; CEncrypt<float>::EncryptValueToPool

; 1657 : #ifdef _NOTUSE
; 1658 : 		m_value = inValue;
; 1659 : 		Debug();
; 1660 : #endif
; 1661 : 		return value;

  00012	d9 45 08	 fld	 DWORD PTR _value$[ebp]

; 1662 : 	}

  00015	5d		 pop	 ebp
  00016	c2 04 00	 ret	 4
??4?$CEncrypt@M@@QAEMM@Z ENDP				; CEncrypt<float>::operator=
_TEXT	ENDS
PUBLIC	??Y?$CEncrypt@M@@QAEAAMABM@Z			; CEncrypt<float>::operator+=
; Function compile flags: /Ogsp
;	COMDAT ??Y?$CEncrypt@M@@QAEAAMABM@Z
_TEXT	SEGMENT
_value$ = -4						; size = 4
_inValue$ = 8						; size = 4
??Y?$CEncrypt@M@@QAEAAMABM@Z PROC			; CEncrypt<float>::operator+=, COMDAT
; _this$ = ecx

; 1715 : 	{

  00000	55		 push	 ebp
  00001	8b ec		 mov	 ebp, esp
  00003	51		 push	 ecx
  00004	56		 push	 esi

; 1716 : 		type value;
; 1717 : 		DecryptValueToPool(&value);

  00005	8d 45 fc	 lea	 eax, DWORD PTR _value$[ebp]
  00008	50		 push	 eax
  00009	8b f1		 mov	 esi, ecx
  0000b	e8 00 00 00 00	 call	 ?DecryptValueToPool@?$CEncrypt@M@@QAEXPAM@Z ; CEncrypt<float>::DecryptValueToPool

; 1718 : 		value += inValue;

  00010	8b 45 08	 mov	 eax, DWORD PTR _inValue$[ebp]
  00013	f3 0f 10 00	 movss	 xmm0, DWORD PTR [eax]
  00017	f3 0f 10 4d fc	 movss	 xmm1, DWORD PTR _value$[ebp]
  0001c	0f 5a c0	 cvtps2pd xmm0, xmm0
  0001f	0f 5a c9	 cvtps2pd xmm1, xmm1

; 1719 : 		EncryptValueToPool((char*)&value);

  00022	8d 45 fc	 lea	 eax, DWORD PTR _value$[ebp]
  00025	f2 0f 58 c1	 addsd	 xmm0, xmm1
  00029	66 0f 5a c0	 cvtpd2ps xmm0, xmm0
  0002d	50		 push	 eax
  0002e	8b ce		 mov	 ecx, esi
  00030	f3 0f 11 45 fc	 movss	 DWORD PTR _value$[ebp], xmm0
  00035	e8 00 00 00 00	 call	 ?EncryptValueToPool@?$CEncrypt@M@@AAEXPBD@Z ; CEncrypt<float>::EncryptValueToPool

; 1720 : #ifdef _NOTUSE
; 1721 : 		m_value += inValue;
; 1722 : 		Debug();
; 1723 : #endif
; 1724 : 		return value;

  0003a	8d 45 fc	 lea	 eax, DWORD PTR _value$[ebp]
  0003d	5e		 pop	 esi

; 1725 : 	} 

  0003e	c9		 leave
  0003f	c2 04 00	 ret	 4
??Y?$CEncrypt@M@@QAEAAMABM@Z ENDP			; CEncrypt<float>::operator+=
_TEXT	ENDS
PUBLIC	??O?$CEncrypt@M@@QAE_NABM@Z			; CEncrypt<float>::operator>
; Function compile flags: /Ogsp
;	COMDAT ??O?$CEncrypt@M@@QAE_NABM@Z
_TEXT	SEGMENT
_value$ = -4						; size = 4
_inValue$ = 8						; size = 4
??O?$CEncrypt@M@@QAE_NABM@Z PROC			; CEncrypt<float>::operator>, COMDAT
; _this$ = ecx

; 1811 : 	{

  00000	55		 push	 ebp
  00001	8b ec		 mov	 ebp, esp
  00003	51		 push	 ecx

; 1812 : 		type value;
; 1813 : 		DecryptValueToPool(&value);

  00004	8d 45 fc	 lea	 eax, DWORD PTR _value$[ebp]
  00007	50		 push	 eax
  00008	e8 00 00 00 00	 call	 ?DecryptValueToPool@?$CEncrypt@M@@QAEXPAM@Z ; CEncrypt<float>::DecryptValueToPool

; 1814 : #ifdef _NOTUSE
; 1815 : 		Debug();
; 1816 : #endif
; 1817 : 		return (value > inValue);

  0000d	8b 45 08	 mov	 eax, DWORD PTR _inValue$[ebp]
  00010	f3 0f 10 08	 movss	 xmm1, DWORD PTR [eax]
  00014	f3 0f 10 45 fc	 movss	 xmm0, DWORD PTR _value$[ebp]
  00019	0f 5a c0	 cvtps2pd xmm0, xmm0
  0001c	0f 5a c9	 cvtps2pd xmm1, xmm1
  0001f	33 c0		 xor	 eax, eax
  00021	66 0f 2f c1	 comisd	 xmm0, xmm1
  00025	76 01		 jbe	 SHORT $LN4@operator
  00027	40		 inc	 eax
$LN4@operator:

; 1818 : 	}		

  00028	c9		 leave
  00029	c2 04 00	 ret	 4
??O?$CEncrypt@M@@QAE_NABM@Z ENDP			; CEncrypt<float>::operator>
_TEXT	ENDS
PUBLIC	??0?$CEncrypt@K@@QAE@XZ				; CEncrypt<unsigned long>::CEncrypt<unsigned long>
;	COMDAT xdata$x
xdata$x	SEGMENT
__unwindtable$??0?$CEncrypt@K@@QAE@XZ DD 0ffffffffH
	DD	FLAT:__unwindfunclet$??0?$CEncrypt@K@@QAE@XZ$0
__ehfuncinfo$??0?$CEncrypt@K@@QAE@XZ DD 019930522H
	DD	01H
	DD	FLAT:__unwindtable$??0?$CEncrypt@K@@QAE@XZ
	DD	2 DUP(00H)
	DD	2 DUP(00H)
	DD	00H
	DD	01H
; Function compile flags: /Ogsp
xdata$x	ENDS
;	COMDAT ??0?$CEncrypt@K@@QAE@XZ
_TEXT	SEGMENT
_this$ = -16						; size = 4
__$EHRec$ = -12						; size = 12
??0?$CEncrypt@K@@QAE@XZ PROC				; CEncrypt<unsigned long>::CEncrypt<unsigned long>, COMDAT
; _this$ = ecx

; 109  : 	CEncrypt()

  00000	6a 04		 push	 4
  00002	b8 00 00 00 00	 mov	 eax, __ehhandler$??0?$CEncrypt@K@@QAE@XZ
  00007	e8 00 00 00 00	 call	 __EH_prolog3
  0000c	8b f1		 mov	 esi, ecx
  0000e	89 75 f0	 mov	 DWORD PTR _this$[ebp], esi
  00011	8d 4e 0c	 lea	 ecx, DWORD PTR [esi+12]
  00014	c7 06 00 00 00
	00		 mov	 DWORD PTR [esi], OFFSET ??_7?$CEncrypt@K@@6B@
  0001a	e8 00 00 00 00	 call	 ??0ccddaabb@@QAE@XZ	; ccddaabb::ccddaabb
  0001f	83 65 fc 00	 and	 DWORD PTR __$EHRec$[ebp+8], 0

; 110  : 	{
; 111  : 		Init();

  00023	8b ce		 mov	 ecx, esi
  00025	e8 00 00 00 00	 call	 ?Init@?$CEncrypt@K@@AAEXXZ ; CEncrypt<unsigned long>::Init

; 112  : 	}

  0002a	8b c6		 mov	 eax, esi
  0002c	e8 00 00 00 00	 call	 __EH_epilog3
  00031	c3		 ret	 0
_TEXT	ENDS
;	COMDAT text$x
text$x	SEGMENT
__unwindfunclet$??0?$CEncrypt@K@@QAE@XZ$0:
  00000	8b 4d f0	 mov	 ecx, DWORD PTR _this$[ebp]
  00003	83 c1 0c	 add	 ecx, 12			; 0000000cH
  00006	e9 00 00 00 00	 jmp	 ??1ccddaabb@@UAE@XZ	; ccddaabb::~ccddaabb
__ehhandler$??0?$CEncrypt@K@@QAE@XZ:
  0000b	8b 54 24 08	 mov	 edx, DWORD PTR [esp+8]
  0000f	8d 42 0c	 lea	 eax, DWORD PTR [edx+12]
  00012	8b 4a ec	 mov	 ecx, DWORD PTR [edx-20]
  00015	33 c8		 xor	 ecx, eax
  00017	e8 00 00 00 00	 call	 @__security_check_cookie@4
  0001c	b8 00 00 00 00	 mov	 eax, OFFSET __ehfuncinfo$??0?$CEncrypt@K@@QAE@XZ
  00021	e9 00 00 00 00	 jmp	 ___CxxFrameHandler3
text$x	ENDS
??0?$CEncrypt@K@@QAE@XZ ENDP				; CEncrypt<unsigned long>::CEncrypt<unsigned long>
PUBLIC	??B?$CEncrypt@K@@QAEKXZ				; CEncrypt<unsigned long>::operator unsigned long
; Function compile flags: /Ogsp
;	COMDAT ??B?$CEncrypt@K@@QAEKXZ
_TEXT	SEGMENT
_value$ = -4						; size = 4
??B?$CEncrypt@K@@QAEKXZ PROC				; CEncrypt<unsigned long>::operator unsigned long, COMDAT
; _this$ = ecx

; 134  : 	{

  00000	55		 push	 ebp
  00001	8b ec		 mov	 ebp, esp
  00003	51		 push	 ecx

; 135  : 		type value;
; 136  : 		DecryptValueToPool(&value);

  00004	8d 45 fc	 lea	 eax, DWORD PTR _value$[ebp]
  00007	50		 push	 eax
  00008	e8 00 00 00 00	 call	 ?DecryptValueToPool@?$CEncrypt@K@@QAEXPAK@Z ; CEncrypt<unsigned long>::DecryptValueToPool

; 137  : 
; 138  : #ifdef _NOTUSE
; 139  : 		Debug();
; 140  : #endif
; 141  : 		return value;

  0000d	8b 45 fc	 mov	 eax, DWORD PTR _value$[ebp]

; 142  : 	}

  00010	c9		 leave
  00011	c3		 ret	 0
??B?$CEncrypt@K@@QAEKXZ ENDP				; CEncrypt<unsigned long>::operator unsigned long
_TEXT	ENDS
PUBLIC	??B?$CEncrypt@K@@QBEKXZ				; CEncrypt<unsigned long>::operator unsigned long
; Function compile flags: /Ogsp
;	COMDAT ??B?$CEncrypt@K@@QBEKXZ
_TEXT	SEGMENT
_value$ = -4						; size = 4
??B?$CEncrypt@K@@QBEKXZ PROC				; CEncrypt<unsigned long>::operator unsigned long, COMDAT
; _this$ = ecx

; 145  : 	{

  00000	55		 push	 ebp
  00001	8b ec		 mov	 ebp, esp
  00003	51		 push	 ecx

; 146  : 		//UJ 130829, const    --start
; 147  : 		type value;
; 148  : 		CEncrypt<type>* pThis = const_cast<CEncrypt<type>*>(this);
; 149  : 		pThis->DecryptValueToPool(&value);

  00004	8d 45 fc	 lea	 eax, DWORD PTR _value$[ebp]
  00007	50		 push	 eax
  00008	e8 00 00 00 00	 call	 ?DecryptValueToPool@?$CEncrypt@K@@QAEXPAK@Z ; CEncrypt<unsigned long>::DecryptValueToPool

; 150  : 		//// const DecryptValueToPool     .
; 151  :  		//type value;
; 152  : 		//char szTempMem[MAX_ENCRYPT];
; 153  : 		//m_RC5.DecryptByte( m_MemPool, szTempMem, max(m_ValueSize, DEFAULT_ENCRYPT) );
; 154  : 		//memcpy( &value, szTempMem, m_ValueSize );
; 155  : 		//UJ --end
; 156  : 
; 157  : #ifdef _NOTUSE
; 158  : 		Debug();
; 159  : #endif
; 160  : 		return value;

  0000d	8b 45 fc	 mov	 eax, DWORD PTR _value$[ebp]

; 161  : 	}

  00010	c9		 leave
  00011	c3		 ret	 0
??B?$CEncrypt@K@@QBEKXZ ENDP				; CEncrypt<unsigned long>::operator unsigned long
_TEXT	ENDS
PUBLIC	??4?$CEncrypt@K@@QAEKH@Z			; CEncrypt<unsigned long>::operator=
; Function compile flags: /Ogsp
;	COMDAT ??4?$CEncrypt@K@@QAEKH@Z
_TEXT	SEGMENT
_value$ = 8						; size = 4
_inValue$ = 8						; size = 4
??4?$CEncrypt@K@@QAEKH@Z PROC				; CEncrypt<unsigned long>::operator=, COMDAT
; _this$ = ecx

; 843  : 	{

  00000	55		 push	 ebp
  00001	8b ec		 mov	 ebp, esp

; 844  : 		type value = inValue;

  00003	8b 45 08	 mov	 eax, DWORD PTR _inValue$[ebp]
  00006	89 45 08	 mov	 DWORD PTR _value$[ebp], eax

; 845  : 		EncryptValueToPool((char*)&value);

  00009	8d 45 08	 lea	 eax, DWORD PTR _value$[ebp]
  0000c	50		 push	 eax
  0000d	e8 00 00 00 00	 call	 ?EncryptValueToPool@?$CEncrypt@K@@AAEXPBD@Z ; CEncrypt<unsigned long>::EncryptValueToPool

; 846  : #ifdef _NOTUSE
; 847  : 		m_value = inValue;
; 848  : 		Debug();
; 849  : #endif
; 850  : 		return value;

  00012	8b 45 08	 mov	 eax, DWORD PTR _value$[ebp]

; 851  : 	}

  00015	5d		 pop	 ebp
  00016	c2 04 00	 ret	 4
??4?$CEncrypt@K@@QAEKH@Z ENDP				; CEncrypt<unsigned long>::operator=
_TEXT	ENDS
PUBLIC	??4?$CEncrypt@K@@QAEKK@Z			; CEncrypt<unsigned long>::operator=
; Function compile flags: /Ogsp
;	COMDAT ??4?$CEncrypt@K@@QAEKK@Z
_TEXT	SEGMENT
_value$ = 8						; size = 4
_inValue$ = 8						; size = 4
??4?$CEncrypt@K@@QAEKK@Z PROC				; CEncrypt<unsigned long>::operator=, COMDAT
; _this$ = ecx

; 1262 : 	{

  00000	55		 push	 ebp
  00001	8b ec		 mov	 ebp, esp

; 1263 : 		
; 1264 : 		type value = inValue;

  00003	8b 45 08	 mov	 eax, DWORD PTR _inValue$[ebp]
  00006	89 45 08	 mov	 DWORD PTR _value$[ebp], eax

; 1265 : 		EncryptValueToPool((char*)&value);

  00009	8d 45 08	 lea	 eax, DWORD PTR _value$[ebp]
  0000c	50		 push	 eax
  0000d	e8 00 00 00 00	 call	 ?EncryptValueToPool@?$CEncrypt@K@@AAEXPBD@Z ; CEncrypt<unsigned long>::EncryptValueToPool

; 1266 : #ifdef _NOTUSE
; 1267 : 		m_value = inValue;
; 1268 : 		Debug();
; 1269 : #endif
; 1270 : 		return value;

  00012	8b 45 08	 mov	 eax, DWORD PTR _value$[ebp]

; 1271 : 	}

  00015	5d		 pop	 ebp
  00016	c2 04 00	 ret	 4
??4?$CEncrypt@K@@QAEKK@Z ENDP				; CEncrypt<unsigned long>::operator=
_TEXT	ENDS
PUBLIC	??B?$CEncrypt@W4TeamType@@@@QBE?AW4TeamType@@XZ	; CEncrypt<enum TeamType>::operator enum TeamType
; Function compile flags: /Ogsp
;	COMDAT ??B?$CEncrypt@W4TeamType@@@@QBE?AW4TeamType@@XZ
_TEXT	SEGMENT
_value$ = -4						; size = 4
??B?$CEncrypt@W4TeamType@@@@QBE?AW4TeamType@@XZ PROC	; CEncrypt<enum TeamType>::operator enum TeamType, COMDAT
; _this$ = ecx

; 145  : 	{

  00000	55		 push	 ebp
  00001	8b ec		 mov	 ebp, esp
  00003	51		 push	 ecx

; 146  : 		//UJ 130829, const    --start
; 147  : 		type value;
; 148  : 		CEncrypt<type>* pThis = const_cast<CEncrypt<type>*>(this);
; 149  : 		pThis->DecryptValueToPool(&value);

  00004	8d 45 fc	 lea	 eax, DWORD PTR _value$[ebp]
  00007	50		 push	 eax
  00008	e8 00 00 00 00	 call	 ?DecryptValueToPool@?$CEncrypt@W4TeamType@@@@QAEXPAW4TeamType@@@Z ; CEncrypt<enum TeamType>::DecryptValueToPool

; 150  : 		//// const DecryptValueToPool     .
; 151  :  		//type value;
; 152  : 		//char szTempMem[MAX_ENCRYPT];
; 153  : 		//m_RC5.DecryptByte( m_MemPool, szTempMem, max(m_ValueSize, DEFAULT_ENCRYPT) );
; 154  : 		//memcpy( &value, szTempMem, m_ValueSize );
; 155  : 		//UJ --end
; 156  : 
; 157  : #ifdef _NOTUSE
; 158  : 		Debug();
; 159  : #endif
; 160  : 		return value;

  0000d	8b 45 fc	 mov	 eax, DWORD PTR _value$[ebp]

; 161  : 	}

  00010	c9		 leave
  00011	c3		 ret	 0
??B?$CEncrypt@W4TeamType@@@@QBE?AW4TeamType@@XZ ENDP	; CEncrypt<enum TeamType>::operator enum TeamType
_TEXT	ENDS
PUBLIC	??B?$CEncrypt@W4ModeType@@@@QAE?AW4ModeType@@XZ	; CEncrypt<enum ModeType>::operator enum ModeType
; Function compile flags: /Ogsp
;	COMDAT ??B?$CEncrypt@W4ModeType@@@@QAE?AW4ModeType@@XZ
_TEXT	SEGMENT
_value$ = -4						; size = 4
??B?$CEncrypt@W4ModeType@@@@QAE?AW4ModeType@@XZ PROC	; CEncrypt<enum ModeType>::operator enum ModeType, COMDAT
; _this$ = ecx

; 134  : 	{

  00000	55		 push	 ebp
  00001	8b ec		 mov	 ebp, esp
  00003	51		 push	 ecx

; 135  : 		type value;
; 136  : 		DecryptValueToPool(&value);

  00004	8d 45 fc	 lea	 eax, DWORD PTR _value$[ebp]
  00007	50		 push	 eax
  00008	e8 00 00 00 00	 call	 ?DecryptValueToPool@?$CEncrypt@W4ModeType@@@@QAEXPAW4ModeType@@@Z ; CEncrypt<enum ModeType>::DecryptValueToPool

; 137  : 
; 138  : #ifdef _NOTUSE
; 139  : 		Debug();
; 140  : #endif
; 141  : 		return value;

  0000d	8b 45 fc	 mov	 eax, DWORD PTR _value$[ebp]

; 142  : 	}

  00010	c9		 leave
  00011	c3		 ret	 0
??B?$CEncrypt@W4ModeType@@@@QAE?AW4ModeType@@XZ ENDP	; CEncrypt<enum ModeType>::operator enum ModeType
_TEXT	ENDS
PUBLIC	?begin@?$vector@VioHashString@@V?$allocator@VioHashString@@@std@@@std@@QAE?AV?$_Vector_iterator@V?$_Vector_val@VioHashString@@V?$allocator@VioHashString@@@std@@@std@@@2@XZ ; std::vector<ioHashString,std::allocator<ioHashString> >::begin
; Function compile flags: /Ogsp
; File c:\program files (x86)\microsoft visual studio 10.0\vc\include\vector
;	COMDAT ?begin@?$vector@VioHashString@@V?$allocator@VioHashString@@@std@@@std@@QAE?AV?$_Vector_iterator@V?$_Vector_val@VioHashString@@V?$allocator@VioHashString@@@std@@@std@@@2@XZ
_TEXT	SEGMENT
___$ReturnUdt$ = 8					; size = 4
?begin@?$vector@VioHashString@@V?$allocator@VioHashString@@@std@@@std@@QAE?AV?$_Vector_iterator@V?$_Vector_val@VioHashString@@V?$allocator@VioHashString@@@std@@@std@@@2@XZ PROC ; std::vector<ioHashString,std::allocator<ioHashString> >::begin, COMDAT
; _this$ = ecx

; 781  : 		{	// return iterator for beginning of mutable sequence

  00000	55		 push	 ebp
  00001	8b ec		 mov	 ebp, esp

; 782  : 		return (iterator(this->_Myfirst, this));

  00003	8b 09		 mov	 ecx, DWORD PTR [ecx]
  00005	8b 45 08	 mov	 eax, DWORD PTR ___$ReturnUdt$[ebp]
  00008	89 08		 mov	 DWORD PTR [eax], ecx

; 783  : 		}

  0000a	5d		 pop	 ebp
  0000b	c2 04 00	 ret	 4
?begin@?$vector@VioHashString@@V?$allocator@VioHashString@@@std@@@std@@QAE?AV?$_Vector_iterator@V?$_Vector_val@VioHashString@@V?$allocator@VioHashString@@@std@@@std@@@2@XZ ENDP ; std::vector<ioHashString,std::allocator<ioHashString> >::begin
_TEXT	ENDS
PUBLIC	?end@?$vector@VioHashString@@V?$allocator@VioHashString@@@std@@@std@@QAE?AV?$_Vector_iterator@V?$_Vector_val@VioHashString@@V?$allocator@VioHashString@@@std@@@std@@@2@XZ ; std::vector<ioHashString,std::allocator<ioHashString> >::end
; Function compile flags: /Ogsp
;	COMDAT ?end@?$vector@VioHashString@@V?$allocator@VioHashString@@@std@@@std@@QAE?AV?$_Vector_iterator@V?$_Vector_val@VioHashString@@V?$allocator@VioHashString@@@std@@@std@@@2@XZ
_TEXT	SEGMENT
___$ReturnUdt$ = 8					; size = 4
?end@?$vector@VioHashString@@V?$allocator@VioHashString@@@std@@@std@@QAE?AV?$_Vector_iterator@V?$_Vector_val@VioHashString@@V?$allocator@VioHashString@@@std@@@std@@@2@XZ PROC ; std::vector<ioHashString,std::allocator<ioHashString> >::end, COMDAT
; _this$ = ecx

; 791  : 		{	// return iterator for end of mutable sequence

  00000	55		 push	 ebp
  00001	8b ec		 mov	 ebp, esp

; 792  : 		return (iterator(this->_Mylast, this));

  00003	8b 49 04	 mov	 ecx, DWORD PTR [ecx+4]
  00006	8b 45 08	 mov	 eax, DWORD PTR ___$ReturnUdt$[ebp]
  00009	89 08		 mov	 DWORD PTR [eax], ecx

; 793  : 		}

  0000b	5d		 pop	 ebp
  0000c	c2 04 00	 ret	 4
?end@?$vector@VioHashString@@V?$allocator@VioHashString@@@std@@@std@@QAE?AV?$_Vector_iterator@V?$_Vector_val@VioHashString@@V?$allocator@VioHashString@@@std@@@std@@@2@XZ ENDP ; std::vector<ioHashString,std::allocator<ioHashString> >::end
_TEXT	ENDS
PUBLIC	??0?$_Vector_val@VioHashString@@V?$allocator@VioHashString@@@std@@@std@@QAE@V?$allocator@VioHashString@@@1@@Z ; std::_Vector_val<ioHashString,std::allocator<ioHashString> >::_Vector_val<ioHashString,std::allocator<ioHashString> >
; Function compile flags: /Ogsp
;	COMDAT ??0?$_Vector_val@VioHashString@@V?$allocator@VioHashString@@@std@@@std@@QAE@V?$allocator@VioHashString@@@1@@Z
_TEXT	SEGMENT
__Al$ = 8						; size = 1
??0?$_Vector_val@VioHashString@@V?$allocator@VioHashString@@@std@@@std@@QAE@V?$allocator@VioHashString@@@1@@Z PROC ; std::_Vector_val<ioHashString,std::allocator<ioHashString> >::_Vector_val<ioHashString,std::allocator<ioHashString> >, COMDAT
; _this$ = ecx

; 426  : 		{	// construct allocator from _Al

  00000	8b c1		 mov	 eax, ecx

; 427  : 		_Myfirst = 0;

  00002	33 c9		 xor	 ecx, ecx
  00004	89 08		 mov	 DWORD PTR [eax], ecx

; 428  : 		_Mylast = 0;

  00006	89 48 04	 mov	 DWORD PTR [eax+4], ecx

; 429  : 		_Myend = 0;

  00009	89 48 08	 mov	 DWORD PTR [eax+8], ecx

; 430  : 		}

  0000c	c2 04 00	 ret	 4
??0?$_Vector_val@VioHashString@@V?$allocator@VioHashString@@@std@@@std@@QAE@V?$allocator@VioHashString@@@1@@Z ENDP ; std::_Vector_val<ioHashString,std::allocator<ioHashString> >::_Vector_val<ioHashString,std::allocator<ioHashString> >
_TEXT	ENDS
PUBLIC	??0?$_Vector_val@UWeaponInfo@@V?$allocator@UWeaponInfo@@@std@@@std@@QAE@V?$allocator@UWeaponInfo@@@1@@Z ; std::_Vector_val<WeaponInfo,std::allocator<WeaponInfo> >::_Vector_val<WeaponInfo,std::allocator<WeaponInfo> >
; Function compile flags: /Ogsp
;	COMDAT ??0?$_Vector_val@UWeaponInfo@@V?$allocator@UWeaponInfo@@@std@@@std@@QAE@V?$allocator@UWeaponInfo@@@1@@Z
_TEXT	SEGMENT
__Al$ = 8						; size = 1
??0?$_Vector_val@UWeaponInfo@@V?$allocator@UWeaponInfo@@@std@@@std@@QAE@V?$allocator@UWeaponInfo@@@1@@Z PROC ; std::_Vector_val<WeaponInfo,std::allocator<WeaponInfo> >::_Vector_val<WeaponInfo,std::allocator<WeaponInfo> >, COMDAT
; _this$ = ecx

; 426  : 		{	// construct allocator from _Al

  00000	8b c1		 mov	 eax, ecx

; 427  : 		_Myfirst = 0;

  00002	33 c9		 xor	 ecx, ecx
  00004	89 08		 mov	 DWORD PTR [eax], ecx

; 428  : 		_Mylast = 0;

  00006	89 48 04	 mov	 DWORD PTR [eax+4], ecx

; 429  : 		_Myend = 0;

  00009	89 48 08	 mov	 DWORD PTR [eax+8], ecx

; 430  : 		}

  0000c	c2 04 00	 ret	 4
??0?$_Vector_val@UWeaponInfo@@V?$allocator@UWeaponInfo@@@std@@@std@@QAE@V?$allocator@UWeaponInfo@@@1@@Z ENDP ; std::_Vector_val<WeaponInfo,std::allocator<WeaponInfo> >::_Vector_val<WeaponInfo,std::allocator<WeaponInfo> >
_TEXT	ENDS
PUBLIC	?_Make_iter@?$vector@VioHashString@@V?$allocator@VioHashString@@@std@@@std@@QBE?AV?$_Vector_iterator@V?$_Vector_val@VioHashString@@V?$allocator@VioHashString@@@std@@@std@@@2@V?$_Vector_const_iterator@V?$_Vector_val@VioHashString@@V?$allocator@VioHashString@@@std@@@std@@@2@@Z ; std::vector<ioHashString,std::allocator<ioHashString> >::_Make_iter
; Function compile flags: /Ogsp
;	COMDAT ?_Make_iter@?$vector@VioHashString@@V?$allocator@VioHashString@@@std@@@std@@QBE?AV?$_Vector_iterator@V?$_Vector_val@VioHashString@@V?$allocator@VioHashString@@@std@@@std@@@2@V?$_Vector_const_iterator@V?$_Vector_val@VioHashString@@V?$allocator@VioHashString@@@std@@@std@@@2@@Z
_TEXT	SEGMENT
___$ReturnUdt$ = 8					; size = 4
__Where$ = 12						; size = 4
?_Make_iter@?$vector@VioHashString@@V?$allocator@VioHashString@@@std@@@std@@QBE?AV?$_Vector_iterator@V?$_Vector_val@VioHashString@@V?$allocator@VioHashString@@@std@@@std@@@2@V?$_Vector_const_iterator@V?$_Vector_val@VioHashString@@V?$allocator@VioHashString@@@std@@@std@@@2@@Z PROC ; std::vector<ioHashString,std::allocator<ioHashString> >::_Make_iter, COMDAT
; _this$ = ecx

; 801  : 		{	// make iterator from const_iterator

  00000	55		 push	 ebp
  00001	8b ec		 mov	 ebp, esp

; 802  : 		return (iterator(_Where._Ptr, this));

  00003	8b 45 08	 mov	 eax, DWORD PTR ___$ReturnUdt$[ebp]
  00006	8b 4d 0c	 mov	 ecx, DWORD PTR __Where$[ebp]
  00009	89 08		 mov	 DWORD PTR [eax], ecx

; 803  : 		}

  0000b	5d		 pop	 ebp
  0000c	c2 08 00	 ret	 8
?_Make_iter@?$vector@VioHashString@@V?$allocator@VioHashString@@@std@@@std@@QBE?AV?$_Vector_iterator@V?$_Vector_val@VioHashString@@V?$allocator@VioHashString@@@std@@@std@@@2@V?$_Vector_const_iterator@V?$_Vector_val@VioHashString@@V?$allocator@VioHashString@@@std@@@std@@@2@@Z ENDP ; std::vector<ioHashString,std::allocator<ioHashString> >::_Make_iter
_TEXT	ENDS
PUBLIC	?max_size@?$vector@VioHashString@@V?$allocator@VioHashString@@@std@@@std@@QBEIXZ ; std::vector<ioHashString,std::allocator<ioHashString> >::max_size
; Function compile flags: /Ogsp
;	COMDAT ?max_size@?$vector@VioHashString@@V?$allocator@VioHashString@@@std@@@std@@QBEIXZ
_TEXT	SEGMENT
?max_size@?$vector@VioHashString@@V?$allocator@VioHashString@@@std@@@std@@QBEIXZ PROC ; std::vector<ioHashString,std::allocator<ioHashString> >::max_size, COMDAT
; _this$ = ecx

; 884  : 		return (this->_Alval.max_size());

  00000	b8 ff ff ff 0f	 mov	 eax, 268435455		; 0fffffffH

; 885  : 		}

  00005	c3		 ret	 0
?max_size@?$vector@VioHashString@@V?$allocator@VioHashString@@@std@@@std@@QBEIXZ ENDP ; std::vector<ioHashString,std::allocator<ioHashString> >::max_size
_TEXT	ENDS
PUBLIC	?allocate@?$allocator@VioHashString@@@std@@QAEPAVioHashString@@I@Z ; std::allocator<ioHashString>::allocate
; Function compile flags: /Ogsp
; File c:\program files (x86)\microsoft visual studio 10.0\vc\include\xmemory
;	COMDAT ?allocate@?$allocator@VioHashString@@@std@@QAEPAVioHashString@@I@Z
_TEXT	SEGMENT
__Count$ = 8						; size = 4
?allocate@?$allocator@VioHashString@@@std@@QAEPAVioHashString@@I@Z PROC ; std::allocator<ioHashString>::allocate, COMDAT
; _this$ = ecx

; 186  : 		{	// allocate array of _Count elements

  00000	55		 push	 ebp
  00001	8b ec		 mov	 ebp, esp

; 187  : 		return (_Allocate(_Count, (pointer)0));

  00003	6a 00		 push	 0
  00005	ff 75 08	 push	 DWORD PTR __Count$[ebp]
  00008	e8 00 00 00 00	 call	 ??$_Allocate@VioHashString@@@std@@YAPAVioHashString@@IPAV1@@Z ; std::_Allocate<ioHashString>
  0000d	59		 pop	 ecx
  0000e	59		 pop	 ecx

; 188  : 		}

  0000f	5d		 pop	 ebp
  00010	c2 04 00	 ret	 4
?allocate@?$allocator@VioHashString@@@std@@QAEPAVioHashString@@I@Z ENDP ; std::allocator<ioHashString>::allocate
_TEXT	ENDS
PUBLIC	??8?$_Vector_const_iterator@V?$_Vector_val@VioHashString@@V?$allocator@VioHashString@@@std@@@std@@@std@@QBE_NABV01@@Z ; std::_Vector_const_iterator<std::_Vector_val<ioHashString,std::allocator<ioHashString> > >::operator==
; Function compile flags: /Ogsp
; File c:\program files (x86)\microsoft visual studio 10.0\vc\include\vector
;	COMDAT ??8?$_Vector_const_iterator@V?$_Vector_val@VioHashString@@V?$allocator@VioHashString@@@std@@@std@@@std@@QBE_NABV01@@Z
_TEXT	SEGMENT
__Right$ = 8						; size = 4
??8?$_Vector_const_iterator@V?$_Vector_val@VioHashString@@V?$allocator@VioHashString@@@std@@@std@@@std@@QBE_NABV01@@Z PROC ; std::_Vector_const_iterator<std::_Vector_val<ioHashString,std::allocator<ioHashString> > >::operator==, COMDAT
; _this$ = ecx

; 201  : 		{	// test for iterator equality

  00000	55		 push	 ebp
  00001	8b ec		 mov	 ebp, esp

; 202  : 		_Compat(_Right);
; 203  : 		return (this->_Ptr == _Right._Ptr);

  00003	8b 01		 mov	 eax, DWORD PTR [ecx]
  00005	8b 4d 08	 mov	 ecx, DWORD PTR __Right$[ebp]
  00008	2b 01		 sub	 eax, DWORD PTR [ecx]
  0000a	f7 d8		 neg	 eax
  0000c	1b c0		 sbb	 eax, eax
  0000e	40		 inc	 eax

; 204  : 		}

  0000f	5d		 pop	 ebp
  00010	c2 04 00	 ret	 4
??8?$_Vector_const_iterator@V?$_Vector_val@VioHashString@@V?$allocator@VioHashString@@@std@@@std@@@std@@QBE_NABV01@@Z ENDP ; std::_Vector_const_iterator<std::_Vector_val<ioHashString,std::allocator<ioHashString> > >::operator==
_TEXT	ENDS
PUBLIC	??$_Move@PAVioHashString@@PAV1@@std@@YAPAVioHashString@@PAV1@00U_Nonscalar_ptr_iterator_tag@0@@Z ; std::_Move<ioHashString *,ioHashString *>
; Function compile flags: /Ogsp
; File c:\program files (x86)\microsoft visual studio 10.0\vc\include\xutility
;	COMDAT ??$_Move@PAVioHashString@@PAV1@@std@@YAPAVioHashString@@PAV1@00U_Nonscalar_ptr_iterator_tag@0@@Z
_TEXT	SEGMENT
__First$ = 8						; size = 4
__Last$ = 12						; size = 4
__Dest$ = 16						; size = 4
___formal$ = 20						; size = 1
??$_Move@PAVioHashString@@PAV1@@std@@YAPAVioHashString@@PAV1@00U_Nonscalar_ptr_iterator_tag@0@@Z PROC ; std::_Move<ioHashString *,ioHashString *>, COMDAT

; 2512 : 	{	// move [_First, _Last) to [_Dest, ...), arbitrary iterators

  00000	55		 push	 ebp
  00001	8b ec		 mov	 ebp, esp
  00003	56		 push	 esi

; 2513 : 	for (; _First != _Last; ++_Dest, ++_First)

  00004	8b 75 08	 mov	 esi, DWORD PTR __First$[ebp]
  00007	eb 11		 jmp	 SHORT $LN11@Move
$LL3@Move:

; 2514 : 		*_Dest = _STD move(*_First);

  00009	8b 4d 10	 mov	 ecx, DWORD PTR __Dest$[ebp]
  0000c	56		 push	 esi
  0000d	ff 15 00 00 00
	00		 call	 DWORD PTR __imp_??4ioHashString@@QAEAAV0@ABV0@@Z
  00013	83 45 10 10	 add	 DWORD PTR __Dest$[ebp], 16 ; 00000010H
  00017	83 c6 10	 add	 esi, 16			; 00000010H
$LN11@Move:

; 2513 : 	for (; _First != _Last; ++_Dest, ++_First)

  0001a	3b 75 0c	 cmp	 esi, DWORD PTR __Last$[ebp]
  0001d	75 ea		 jne	 SHORT $LL3@Move

; 2515 : 	return (_Dest);

  0001f	8b 45 10	 mov	 eax, DWORD PTR __Dest$[ebp]
  00022	5e		 pop	 esi

; 2516 : 	}

  00023	5d		 pop	 ebp
  00024	c3		 ret	 0
??$_Move@PAVioHashString@@PAV1@@std@@YAPAVioHashString@@PAV1@00U_Nonscalar_ptr_iterator_tag@0@@Z ENDP ; std::_Move<ioHashString *,ioHashString *>
_TEXT	ENDS
PUBLIC	?max_size@?$vector@UWeaponInfo@@V?$allocator@UWeaponInfo@@@std@@@std@@QBEIXZ ; std::vector<WeaponInfo,std::allocator<WeaponInfo> >::max_size
; Function compile flags: /Ogsp
; File c:\program files (x86)\microsoft visual studio 10.0\vc\include\vector
;	COMDAT ?max_size@?$vector@UWeaponInfo@@V?$allocator@UWeaponInfo@@@std@@@std@@QBEIXZ
_TEXT	SEGMENT
?max_size@?$vector@UWeaponInfo@@V?$allocator@UWeaponInfo@@@std@@@std@@QBEIXZ PROC ; std::vector<WeaponInfo,std::allocator<WeaponInfo> >::max_size, COMDAT
; _this$ = ecx

; 884  : 		return (this->_Alval.max_size());

  00000	b8 66 66 66 06	 mov	 eax, 107374182		; 06666666H

; 885  : 		}

  00005	c3		 ret	 0
?max_size@?$vector@UWeaponInfo@@V?$allocator@UWeaponInfo@@@std@@@std@@QBEIXZ ENDP ; std::vector<WeaponInfo,std::allocator<WeaponInfo> >::max_size
_TEXT	ENDS
PUBLIC	?allocate@?$allocator@UWeaponInfo@@@std@@QAEPAUWeaponInfo@@I@Z ; std::allocator<WeaponInfo>::allocate
; Function compile flags: /Ogsp
; File c:\program files (x86)\microsoft visual studio 10.0\vc\include\xmemory
;	COMDAT ?allocate@?$allocator@UWeaponInfo@@@std@@QAEPAUWeaponInfo@@I@Z
_TEXT	SEGMENT
__Count$ = 8						; size = 4
?allocate@?$allocator@UWeaponInfo@@@std@@QAEPAUWeaponInfo@@I@Z PROC ; std::allocator<WeaponInfo>::allocate, COMDAT
; _this$ = ecx

; 186  : 		{	// allocate array of _Count elements

  00000	55		 push	 ebp
  00001	8b ec		 mov	 ebp, esp

; 187  : 		return (_Allocate(_Count, (pointer)0));

  00003	6a 00		 push	 0
  00005	ff 75 08	 push	 DWORD PTR __Count$[ebp]
  00008	e8 00 00 00 00	 call	 ??$_Allocate@UWeaponInfo@@@std@@YAPAUWeaponInfo@@IPAU1@@Z ; std::_Allocate<WeaponInfo>
  0000d	59		 pop	 ecx
  0000e	59		 pop	 ecx

; 188  : 		}

  0000f	5d		 pop	 ebp
  00010	c2 04 00	 ret	 4
?allocate@?$allocator@UWeaponInfo@@@std@@QAEPAUWeaponInfo@@I@Z ENDP ; std::allocator<WeaponInfo>::allocate
_TEXT	ENDS
PUBLIC	??0?$_Vector_iterator@V?$_Vector_val@UWeaponInfo@@V?$allocator@UWeaponInfo@@@std@@@std@@@std@@QAE@PAUWeaponInfo@@PBU_Container_base0@1@@Z ; std::_Vector_iterator<std::_Vector_val<WeaponInfo,std::allocator<WeaponInfo> > >::_Vector_iterator<std::_Vector_val<WeaponInfo,std::allocator<WeaponInfo> > >
; Function compile flags: /Ogsp
; File c:\program files (x86)\microsoft visual studio 10.0\vc\include\vector
;	COMDAT ??0?$_Vector_iterator@V?$_Vector_val@UWeaponInfo@@V?$allocator@UWeaponInfo@@@std@@@std@@@std@@QAE@PAUWeaponInfo@@PBU_Container_base0@1@@Z
_TEXT	SEGMENT
__Parg$ = 8						; size = 4
__Pvector$ = 12						; size = 4
??0?$_Vector_iterator@V?$_Vector_val@UWeaponInfo@@V?$allocator@UWeaponInfo@@@std@@@std@@@std@@QAE@PAUWeaponInfo@@PBU_Container_base0@1@@Z PROC ; std::_Vector_iterator<std::_Vector_val<WeaponInfo,std::allocator<WeaponInfo> > >::_Vector_iterator<std::_Vector_val<WeaponInfo,std::allocator<WeaponInfo> > >, COMDAT
; _this$ = ecx

; 304  : 		{	// construct with pointer _Parg

  00000	55		 push	 ebp
  00001	8b ec		 mov	 ebp, esp
  00003	8b c1		 mov	 eax, ecx
  00005	8b 4d 08	 mov	 ecx, DWORD PTR __Parg$[ebp]
  00008	89 08		 mov	 DWORD PTR [eax], ecx

; 305  : 		}

  0000a	5d		 pop	 ebp
  0000b	c2 08 00	 ret	 8
??0?$_Vector_iterator@V?$_Vector_val@UWeaponInfo@@V?$allocator@UWeaponInfo@@@std@@@std@@@std@@QAE@PAUWeaponInfo@@PBU_Container_base0@1@@Z ENDP ; std::_Vector_iterator<std::_Vector_val<WeaponInfo,std::allocator<WeaponInfo> > >::_Vector_iterator<std::_Vector_val<WeaponInfo,std::allocator<WeaponInfo> > >
_TEXT	ENDS
PUBLIC	??8?$_Vector_const_iterator@V?$_Vector_val@UWeaponInfo@@V?$allocator@UWeaponInfo@@@std@@@std@@@std@@QBE_NABV01@@Z ; std::_Vector_const_iterator<std::_Vector_val<WeaponInfo,std::allocator<WeaponInfo> > >::operator==
; Function compile flags: /Ogsp
;	COMDAT ??8?$_Vector_const_iterator@V?$_Vector_val@UWeaponInfo@@V?$allocator@UWeaponInfo@@@std@@@std@@@std@@QBE_NABV01@@Z
_TEXT	SEGMENT
__Right$ = 8						; size = 4
??8?$_Vector_const_iterator@V?$_Vector_val@UWeaponInfo@@V?$allocator@UWeaponInfo@@@std@@@std@@@std@@QBE_NABV01@@Z PROC ; std::_Vector_const_iterator<std::_Vector_val<WeaponInfo,std::allocator<WeaponInfo> > >::operator==, COMDAT
; _this$ = ecx

; 201  : 		{	// test for iterator equality

  00000	55		 push	 ebp
  00001	8b ec		 mov	 ebp, esp

; 202  : 		_Compat(_Right);
; 203  : 		return (this->_Ptr == _Right._Ptr);

  00003	8b 01		 mov	 eax, DWORD PTR [ecx]
  00005	8b 4d 08	 mov	 ecx, DWORD PTR __Right$[ebp]
  00008	2b 01		 sub	 eax, DWORD PTR [ecx]
  0000a	f7 d8		 neg	 eax
  0000c	1b c0		 sbb	 eax, eax
  0000e	40		 inc	 eax

; 204  : 		}

  0000f	5d		 pop	 ebp
  00010	c2 04 00	 ret	 4
??8?$_Vector_const_iterator@V?$_Vector_val@UWeaponInfo@@V?$allocator@UWeaponInfo@@@std@@@std@@@std@@QBE_NABV01@@Z ENDP ; std::_Vector_const_iterator<std::_Vector_val<WeaponInfo,std::allocator<WeaponInfo> > >::operator==
_TEXT	ENDS
PUBLIC	??$_Move@PAUWeaponInfo@@PAU1@@std@@YAPAUWeaponInfo@@PAU1@00U_Nonscalar_ptr_iterator_tag@0@@Z ; std::_Move<WeaponInfo *,WeaponInfo *>
; Function compile flags: /Ogsp
; File c:\program files (x86)\microsoft visual studio 10.0\vc\include\xutility
;	COMDAT ??$_Move@PAUWeaponInfo@@PAU1@@std@@YAPAUWeaponInfo@@PAU1@00U_Nonscalar_ptr_iterator_tag@0@@Z
_TEXT	SEGMENT
__First$ = 8						; size = 4
__Last$ = 12						; size = 4
__Dest$ = 16						; size = 4
___formal$ = 20						; size = 1
??$_Move@PAUWeaponInfo@@PAU1@@std@@YAPAUWeaponInfo@@PAU1@00U_Nonscalar_ptr_iterator_tag@0@@Z PROC ; std::_Move<WeaponInfo *,WeaponInfo *>, COMDAT

; 2512 : 	{	// move [_First, _Last) to [_Dest, ...), arbitrary iterators

  00000	55		 push	 ebp
  00001	8b ec		 mov	 ebp, esp
  00003	56		 push	 esi

; 2513 : 	for (; _First != _Last; ++_Dest, ++_First)

  00004	8b 75 08	 mov	 esi, DWORD PTR __First$[ebp]
  00007	eb 10		 jmp	 SHORT $LN11@Move@2
$LL3@Move@2:

; 2514 : 		*_Dest = _STD move(*_First);

  00009	8b 4d 10	 mov	 ecx, DWORD PTR __Dest$[ebp]
  0000c	56		 push	 esi
  0000d	e8 00 00 00 00	 call	 ??4WeaponInfo@@QAEAAU0@ABU0@@Z
  00012	83 45 10 28	 add	 DWORD PTR __Dest$[ebp], 40 ; 00000028H
  00016	83 c6 28	 add	 esi, 40			; 00000028H
$LN11@Move@2:

; 2513 : 	for (; _First != _Last; ++_Dest, ++_First)

  00019	3b 75 0c	 cmp	 esi, DWORD PTR __Last$[ebp]
  0001c	75 eb		 jne	 SHORT $LL3@Move@2

; 2515 : 	return (_Dest);

  0001e	8b 45 10	 mov	 eax, DWORD PTR __Dest$[ebp]
  00021	5e		 pop	 esi

; 2516 : 	}

  00022	5d		 pop	 ebp
  00023	c3		 ret	 0
??$_Move@PAUWeaponInfo@@PAU1@@std@@YAPAUWeaponInfo@@PAU1@00U_Nonscalar_ptr_iterator_tag@0@@Z ENDP ; std::_Move<WeaponInfo *,WeaponInfo *>
_TEXT	ENDS
PUBLIC	??$_Destroy@VioHashString@@@std@@YAXPAVioHashString@@@Z ; std::_Destroy<ioHashString>
; Function compile flags: /Ogsp
; File c:\program files (x86)\microsoft visual studio 10.0\vc\include\xmemory
;	COMDAT ??$_Destroy@VioHashString@@@std@@YAXPAVioHashString@@@Z
_TEXT	SEGMENT
__Ptr$ = 8						; size = 4
??$_Destroy@VioHashString@@@std@@YAXPAVioHashString@@@Z PROC ; std::_Destroy<ioHashString>, COMDAT

; 62   : 	{	// destroy object at _Ptr

  00000	55		 push	 ebp
  00001	8b ec		 mov	 ebp, esp

; 63   : 	_Ptr->~_Ty();

  00003	8b 4d 08	 mov	 ecx, DWORD PTR __Ptr$[ebp]

; 64   : 	}

  00006	5d		 pop	 ebp

; 63   : 	_Ptr->~_Ty();

  00007	ff 25 00 00 00
	00		 jmp	 DWORD PTR __imp_??1ioHashString@@QAE@XZ
??$_Destroy@VioHashString@@@std@@YAXPAVioHashString@@@Z ENDP ; std::_Destroy<ioHashString>
_TEXT	ENDS
PUBLIC	??$_Destroy@UWeaponInfo@@@std@@YAXPAUWeaponInfo@@@Z ; std::_Destroy<WeaponInfo>
; Function compile flags: /Ogsp
;	COMDAT ??$_Destroy@UWeaponInfo@@@std@@YAXPAUWeaponInfo@@@Z
_TEXT	SEGMENT
__Ptr$ = 8						; size = 4
??$_Destroy@UWeaponInfo@@@std@@YAXPAUWeaponInfo@@@Z PROC ; std::_Destroy<WeaponInfo>, COMDAT

; 62   : 	{	// destroy object at _Ptr

  00000	55		 push	 ebp
  00001	8b ec		 mov	 ebp, esp

; 63   : 	_Ptr->~_Ty();

  00003	8b 4d 08	 mov	 ecx, DWORD PTR __Ptr$[ebp]
  00006	83 c1 08	 add	 ecx, 8

; 64   : 	}

  00009	5d		 pop	 ebp

; 63   : 	_Ptr->~_Ty();

  0000a	ff 25 00 00 00
	00		 jmp	 DWORD PTR __imp_??1ioHashString@@QAE@XZ
??$_Destroy@UWeaponInfo@@@std@@YAXPAUWeaponInfo@@@Z ENDP ; std::_Destroy<WeaponInfo>
_TEXT	ENDS
PUBLIC	?construct@?$allocator@VioHashString@@@std@@QAEXPAVioHashString@@ABV3@@Z ; std::allocator<ioHashString>::construct
; Function compile flags: /Ogsp
;	COMDAT ?construct@?$allocator@VioHashString@@@std@@QAEXPAVioHashString@@ABV3@@Z
_TEXT	SEGMENT
__Ptr$ = 8						; size = 4
__Val$ = 12						; size = 4
?construct@?$allocator@VioHashString@@@std@@QAEXPAVioHashString@@ABV3@@Z PROC ; std::allocator<ioHashString>::construct, COMDAT
; _this$ = ecx

; 196  : 		{	// construct object at _Ptr with value _Val

  00000	55		 push	 ebp
  00001	8b ec		 mov	 ebp, esp

; 197  : 		_Construct(_Ptr, _Val);

  00003	ff 75 0c	 push	 DWORD PTR __Val$[ebp]
  00006	ff 75 08	 push	 DWORD PTR __Ptr$[ebp]
  00009	e8 00 00 00 00	 call	 ??$_Construct@VioHashString@@ABV1@@std@@YAXPAVioHashString@@ABV1@@Z ; std::_Construct<ioHashString,ioHashString const &>
  0000e	59		 pop	 ecx
  0000f	59		 pop	 ecx

; 198  : 		}

  00010	5d		 pop	 ebp
  00011	c2 08 00	 ret	 8
?construct@?$allocator@VioHashString@@@std@@QAEXPAVioHashString@@ABV3@@Z ENDP ; std::allocator<ioHashString>::construct
_TEXT	ENDS
PUBLIC	??$construct@AAUWeaponInfo@@@?$allocator@UWeaponInfo@@@std@@QAEXPAUWeaponInfo@@AAU2@@Z ; std::allocator<WeaponInfo>::construct<WeaponInfo &>
;	COMDAT xdata$x
; File c:\program files (x86)\microsoft visual studio 10.0\vc\include\utility
xdata$x	SEGMENT
__unwindtable$??$construct@AAUWeaponInfo@@@?$allocator@UWeaponInfo@@@std@@QAEXPAUWeaponInfo@@AAU2@@Z DD 0ffffffffH
	DD	FLAT:__unwindfunclet$??$construct@AAUWeaponInfo@@@?$allocator@UWeaponInfo@@@std@@QAEXPAUWeaponInfo@@AAU2@@Z$0
__ehfuncinfo$??$construct@AAUWeaponInfo@@@?$allocator@UWeaponInfo@@@std@@QAEXPAUWeaponInfo@@AAU2@@Z DD 019930522H
	DD	01H
	DD	FLAT:__unwindtable$??$construct@AAUWeaponInfo@@@?$allocator@UWeaponInfo@@@std@@QAEXPAUWeaponInfo@@AAU2@@Z
	DD	2 DUP(00H)
	DD	2 DUP(00H)
	DD	00H
	DD	01H
; Function compile flags: /Ogsp
; File c:\program files (x86)\microsoft visual studio 10.0\vc\include\xmemory
xdata$x	ENDS
;	COMDAT ??$construct@AAUWeaponInfo@@@?$allocator@UWeaponInfo@@@std@@QAEXPAUWeaponInfo@@AAU2@@Z
_TEXT	SEGMENT
$T572871 = -16						; size = 4
__$EHRec$ = -12						; size = 12
__Ptr$ = 8						; size = 4
__Val$ = 12						; size = 4
??$construct@AAUWeaponInfo@@@?$allocator@UWeaponInfo@@@std@@QAEXPAUWeaponInfo@@AAU2@@Z PROC ; std::allocator<WeaponInfo>::construct<WeaponInfo &>, COMDAT
; _this$ = ecx

; 206  : 		void construct(pointer _Ptr, _Other&& _Val)

  00000	6a 04		 push	 4
  00002	b8 00 00 00 00	 mov	 eax, __ehhandler$??$construct@AAUWeaponInfo@@@?$allocator@UWeaponInfo@@@std@@QAEXPAUWeaponInfo@@AAU2@@Z
  00007	e8 00 00 00 00	 call	 __EH_prolog3

; 207  : 		{	// construct object at _Ptr with value _Val
; 208  : 		::new ((void _FARQ *)_Ptr) _Ty(_STD forward<_Other>(_Val));

  0000c	8b 4d 08	 mov	 ecx, DWORD PTR __Ptr$[ebp]
  0000f	89 4d f0	 mov	 DWORD PTR $T572871[ebp], ecx
  00012	83 65 fc 00	 and	 DWORD PTR __$EHRec$[ebp+8], 0
  00016	85 c9		 test	 ecx, ecx
  00018	74 08		 je	 SHORT $LN3@construct@4
  0001a	ff 75 0c	 push	 DWORD PTR __Val$[ebp]
  0001d	e8 00 00 00 00	 call	 ??0WeaponInfo@@QAE@ABU0@@Z
$LN3@construct@4:

; 209  : 		}

  00022	e8 00 00 00 00	 call	 __EH_epilog3
  00027	c2 08 00	 ret	 8
_TEXT	ENDS
;	COMDAT text$x
text$x	SEGMENT
__unwindfunclet$??$construct@AAUWeaponInfo@@@?$allocator@UWeaponInfo@@@std@@QAEXPAUWeaponInfo@@AAU2@@Z$0:
  00000	ff 75 08	 push	 DWORD PTR __Ptr$[ebp]
  00003	ff 75 f0	 push	 DWORD PTR $T572871[ebp]
  00006	e8 00 00 00 00	 call	 ??3@YAXPAX0@Z		; operator delete
  0000b	59		 pop	 ecx
  0000c	59		 pop	 ecx
  0000d	c3		 ret	 0
__ehhandler$??$construct@AAUWeaponInfo@@@?$allocator@UWeaponInfo@@@std@@QAEXPAUWeaponInfo@@AAU2@@Z:
  0000e	8b 54 24 08	 mov	 edx, DWORD PTR [esp+8]
  00012	8d 42 0c	 lea	 eax, DWORD PTR [edx+12]
  00015	8b 4a ec	 mov	 ecx, DWORD PTR [edx-20]
  00018	33 c8		 xor	 ecx, eax
  0001a	e8 00 00 00 00	 call	 @__security_check_cookie@4
  0001f	b8 00 00 00 00	 mov	 eax, OFFSET __ehfuncinfo$??$construct@AAUWeaponInfo@@@?$allocator@UWeaponInfo@@@std@@QAEXPAUWeaponInfo@@AAU2@@Z
  00024	e9 00 00 00 00	 jmp	 ___CxxFrameHandler3
text$x	ENDS
??$construct@AAUWeaponInfo@@@?$allocator@UWeaponInfo@@@std@@QAEXPAUWeaponInfo@@AAU2@@Z ENDP ; std::allocator<WeaponInfo>::construct<WeaponInfo &>
PUBLIC	?GetExperienceMode@ioBaseChar@@QBE?BKXZ		; ioBaseChar::GetExperienceMode
; Function compile flags: /Ogsp
; File d:\lost saga for developer\youtube\tutorial\source\src\lsclient\iobasechar.h
;	COMDAT ?GetExperienceMode@ioBaseChar@@QBE?BKXZ
_TEXT	SEGMENT
_value$572892 = -4					; size = 4
?GetExperienceMode@ioBaseChar@@QBE?BKXZ PROC		; ioBaseChar::GetExperienceMode, COMDAT
; _this$ = ecx

; 3193 : 	inline const DWORD GetExperienceMode() const { return m_ExperienceMode; }

  00000	55		 push	 ebp
  00001	8b ec		 mov	 ebp, esp
  00003	51		 push	 ecx
  00004	8d 45 fc	 lea	 eax, DWORD PTR _value$572892[ebp]
  00007	50		 push	 eax
  00008	81 c1 94 1d 00
	00		 add	 ecx, 7572		; 00001d94H
  0000e	e8 00 00 00 00	 call	 ?DecryptValueToPool@?$CEncrypt@K@@QAEXPAK@Z ; CEncrypt<unsigned long>::DecryptValueToPool
  00013	8b 45 fc	 mov	 eax, DWORD PTR _value$572892[ebp]
  00016	c9		 leave
  00017	c3		 ret	 0
?GetExperienceMode@ioBaseChar@@QBE?BKXZ ENDP		; ioBaseChar::GetExperienceMode
_TEXT	ENDS
PUBLIC	?InitResource@ioPullWeapon2@@UAE_NXZ		; ioPullWeapon2::InitResource
EXTRN	?InitResource@ioWeapon@@UAE_NXZ:PROC		; ioWeapon::InitResource
; Function compile flags: /Ogsp
; File d:\lost saga for developer\youtube\tutorial\source\src\lsclient\iopullweapon2.cpp
;	COMDAT ?InitResource@ioPullWeapon2@@UAE_NXZ
_TEXT	SEGMENT
?InitResource@ioPullWeapon2@@UAE_NXZ PROC		; ioPullWeapon2::InitResource, COMDAT
; _this$ = ecx

; 43   : {

  00000	56		 push	 esi
  00001	8b f1		 mov	 esi, ecx

; 44   : 	if( ioWeapon::InitResource() )

  00003	e8 00 00 00 00	 call	 ?InitResource@ioWeapon@@UAE_NXZ ; ioWeapon::InitResource
  00008	84 c0		 test	 al, al
  0000a	74 25		 je	 SHORT $LN1@InitResour

; 45   : 	{
; 46   : 		DestroyResource();

  0000c	8b 06		 mov	 eax, DWORD PTR [esi]
  0000e	6a 00		 push	 0
  00010	8b ce		 mov	 ecx, esi
  00012	ff 90 9c 00 00
	00		 call	 DWORD PTR [eax+156]

; 47   : 		return SetMesh( GetAttribute()->m_WeaponEffect );

  00018	8b 06		 mov	 eax, DWORD PTR [esi]
  0001a	8b ce		 mov	 ecx, esi
  0001c	ff 90 3c 01 00
	00		 call	 DWORD PTR [eax+316]
  00022	05 34 01 00 00	 add	 eax, 308		; 00000134H
  00027	50		 push	 eax
  00028	8b ce		 mov	 ecx, esi
  0002a	e8 00 00 00 00	 call	 ?SetMesh@ioPullWeapon2@@IAE_NABVioHashString@@@Z ; ioPullWeapon2::SetMesh
  0002f	5e		 pop	 esi

; 51   : }

  00030	c3		 ret	 0
$LN1@InitResour:

; 48   : 	}
; 49   : 
; 50   : 	return false;

  00031	32 c0		 xor	 al, al
  00033	5e		 pop	 esi

; 51   : }

  00034	c3		 ret	 0
?InitResource@ioPullWeapon2@@UAE_NXZ ENDP		; ioPullWeapon2::InitResource
_TEXT	ENDS
PUBLIC	__real@4f800000
PUBLIC	__real@43fa0000
PUBLIC	??_C@_00CNPNBAHC@?$AA@				; `string'
PUBLIC	__$ArrayPad$
PUBLIC	?LoadProperty@ioPullWeapon2@@UAEXAAVioINILoader@@@Z ; ioPullWeapon2::LoadProperty
EXTRN	__imp_??4ioHashString@@QAEAAV0@PBD@Z:PROC
EXTRN	?LoadProperty@ioWeapon@@UAEXAAVioINILoader@@@Z:PROC ; ioWeapon::LoadProperty
EXTRN	__ftol2_sse:PROC
EXTRN	_memset:PROC
;	COMDAT __real@4f800000
; File d:\lost saga for developer\youtube\tutorial\source\src\lsclient\stringprotect.h
CONST	SEGMENT
__real@4f800000 DD 04f800000r			; 4.29497e+009
CONST	ENDS
;	COMDAT __real@43fa0000
CONST	SEGMENT
__real@43fa0000 DD 043fa0000r			; 500
CONST	ENDS
;	COMDAT ??_C@_00CNPNBAHC@?$AA@
CONST	SEGMENT
??_C@_00CNPNBAHC@?$AA@ DB 00H				; `string'
; Function compile flags: /Ogsp
; File d:\lost saga for developer\youtube\tutorial\source\src\lsclient\iopullweapon2.cpp
CONST	ENDS
;	COMDAT ?LoadProperty@ioPullWeapon2@@UAEXAAVioINILoader@@@Z
_TEXT	SEGMENT
tv5671 = -300						; size = 4
tv5661 = -300						; size = 4
_value$573546 = -300					; size = 4
_value$573411 = -300					; size = 4
_value$573277 = -300					; size = 4
_szBuf$ = -296						; size = 260
__k$573040 = -36					; size = 27
__k$573299 = -32					; size = 21
__k$572915 = -32					; size = 21
__k$573165 = -28					; size = 17
__k$573576 = -24					; size = 13
__k$573433 = -24					; size = 14
__$ArrayPad$ = -4					; size = 4
_rkLoader$ = 8						; size = 4
?LoadProperty@ioPullWeapon2@@UAEXAAVioINILoader@@@Z PROC ; ioPullWeapon2::LoadProperty, COMDAT
; _this$ = ecx

; 54   : {

  00000	55		 push	 ebp
  00001	8b ec		 mov	 ebp, esp
  00003	81 ec 2c 01 00
	00		 sub	 esp, 300		; 0000012cH
  00009	a1 00 00 00 00	 mov	 eax, DWORD PTR ___security_cookie
  0000e	33 c5		 xor	 eax, ebp
  00010	89 45 fc	 mov	 DWORD PTR __$ArrayPad$[ebp], eax
  00013	56		 push	 esi
  00014	57		 push	 edi
  00015	8b 7d 08	 mov	 edi, DWORD PTR _rkLoader$[ebp]

; 55   : 	ioWeapon::LoadProperty( rkLoader );

  00018	57		 push	 edi
  00019	8b f1		 mov	 esi, ecx
  0001b	e8 00 00 00 00	 call	 ?LoadProperty@ioWeapon@@UAEXAAVioINILoader@@@Z ; ioWeapon::LoadProperty

; 56   : 
; 57   : 	char szBuf[MAX_PATH] = "";

  00020	68 03 01 00 00	 push	 259			; 00000103H
  00025	8d 85 d9 fe ff
	ff		 lea	 eax, DWORD PTR _szBuf$[ebp+1]
  0002b	6a 00		 push	 0
  0002d	50		 push	 eax
  0002e	c6 85 d8 fe ff
	ff 00		 mov	 BYTE PTR _szBuf$[ebp], 0
  00035	e8 00 00 00 00	 call	 _memset
  0003a	83 c4 0c	 add	 esp, 12			; 0000000cH

; 58   : 
; 59   : 	rkLoader.LoadString_e( "map_collision_effect", "", szBuf, MAX_PATH );

  0003d	6a 05		 push	 5
  0003f	c7 45 e0 80 8d
	9b b5		 mov	 DWORD PTR __k$572915[ebp], -1248096896 ; b59b8d80H
  00046	c7 45 e4 8e 83
	87 86		 mov	 DWORD PTR __k$572915[ebp+4], -2037939314 ; 8687838eH
  0004d	c7 45 e8 84 9f
	82 85		 mov	 DWORD PTR __k$572915[ebp+8], -2055037052 ; 85829f84H
  00054	c7 45 ec 83 b3
	8e 8c		 mov	 DWORD PTR __k$572915[ebp+12], -1936804989 ; 8c8eb383H
  0005b	c7 45 f0 8b 89
	88 9e		 mov	 DWORD PTR __k$572915[ebp+16], -1635219061 ; 9e88898bH
  00062	8d 45 e0	 lea	 eax, DWORD PTR __k$572915[ebp]
  00065	c6 45 f4 00	 mov	 BYTE PTR __k$572915[ebp+20], 0
  00069	59		 pop	 ecx
$LL106@LoadProper:
  0006a	81 30 ed ec eb
	ea		 xor	 DWORD PTR [eax], -353637139 ; eaebecedH
  00070	83 c0 04	 add	 eax, 4
  00073	49		 dec	 ecx
  00074	75 f4		 jne	 SHORT $LL106@LoadProper
  00076	68 04 01 00 00	 push	 260			; 00000104H
  0007b	8d 85 d8 fe ff
	ff		 lea	 eax, DWORD PTR _szBuf$[ebp]
  00081	50		 push	 eax
  00082	68 00 00 00 00	 push	 OFFSET ??_C@_00CNPNBAHC@?$AA@
  00087	8d 45 e0	 lea	 eax, DWORD PTR __k$572915[ebp]
  0008a	50		 push	 eax
  0008b	8b cf		 mov	 ecx, edi
  0008d	ff 15 00 00 00
	00		 call	 DWORD PTR __imp_?LoadStringA@ioINILoader@@QAEXPBD0PADH@Z

; 60   : 	m_szMapCollisionEffect = szBuf;

  00093	8d 85 d8 fe ff
	ff		 lea	 eax, DWORD PTR _szBuf$[ebp]
  00099	50		 push	 eax
  0009a	8d 8e f8 08 00
	00		 lea	 ecx, DWORD PTR [esi+2296]
  000a0	ff 15 00 00 00
	00		 call	 DWORD PTR __imp_??4ioHashString@@QAEAAV0@PBD@Z
  000a6	6a 06		 push	 6

; 61   : 	m_dwMapCollisionDelayTime = rkLoader.LoadFloat_e( "map_collision_effect_delay", 500 );

  000a8	c7 45 dc 80 8d
	9b b5		 mov	 DWORD PTR __k$573040[ebp], -1248096896 ; b59b8d80H
  000af	c7 45 e0 8e 83
	87 86		 mov	 DWORD PTR __k$573040[ebp+4], -2037939314 ; 8687838eH
  000b6	c7 45 e4 84 9f
	82 85		 mov	 DWORD PTR __k$573040[ebp+8], -2055037052 ; 85829f84H
  000bd	c7 45 e8 83 b3
	8e 8c		 mov	 DWORD PTR __k$573040[ebp+12], -1936804989 ; 8c8eb383H
  000c4	c7 45 ec 8b 89
	88 9e		 mov	 DWORD PTR __k$573040[ebp+16], -1635219061 ; 9e88898bH
  000cb	c7 45 f0 b2 88
	8e 86		 mov	 DWORD PTR __k$573040[ebp+20], -2037479246 ; 868e88b2H
  000d2	66 c7 45 f4 8c
	95		 mov	 WORD PTR __k$573040[ebp+24], 38284 ; 0000958cH
  000d8	8d 45 dc	 lea	 eax, DWORD PTR __k$573040[ebp]
  000db	c6 45 f6 00	 mov	 BYTE PTR __k$573040[ebp+26], 0
  000df	59		 pop	 ecx
$LL212@LoadProper:
  000e0	81 30 ed ec eb
	ea		 xor	 DWORD PTR [eax], -353637139 ; eaebecedH
  000e6	83 c0 04	 add	 eax, 4
  000e9	49		 dec	 ecx
  000ea	75 f4		 jne	 SHORT $LL212@LoadProper
  000ec	6a 18		 push	 24			; 00000018H
  000ee	58		 pop	 eax
$LL209@LoadProper:
  000ef	8b c8		 mov	 ecx, eax
  000f1	81 e1 03 00 00
	80		 and	 ecx, -2147483645	; 80000003H
  000f7	79 05		 jns	 SHORT $LN673@LoadProper
  000f9	49		 dec	 ecx
  000fa	83 c9 fc	 or	 ecx, -4			; fffffffcH
  000fd	41		 inc	 ecx
$LN673@LoadProper:
  000fe	b2 ed		 mov	 dl, -19			; ffffffedH
  00100	2a d1		 sub	 dl, cl
  00102	30 54 05 dc	 xor	 BYTE PTR __k$573040[ebp+eax], dl
  00106	40		 inc	 eax
  00107	83 f8 1a	 cmp	 eax, 26			; 0000001aH
  0010a	7c e3		 jl	 SHORT $LL209@LoadProper
  0010c	f3 0f 10 05 00
	00 00 00	 movss	 xmm0, DWORD PTR __real@43fa0000
  00114	51		 push	 ecx
  00115	8d 45 dc	 lea	 eax, DWORD PTR __k$573040[ebp]
  00118	f3 0f 11 04 24	 movss	 DWORD PTR [esp], xmm0
  0011d	50		 push	 eax
  0011e	8b cf		 mov	 ecx, edi
  00120	ff 15 00 00 00
	00		 call	 DWORD PTR __imp_?LoadFloat@ioINILoader@@QAEMPBDM@Z
  00126	51		 push	 ecx
  00127	8d 8e 08 09 00
	00		 lea	 ecx, DWORD PTR [esi+2312]
  0012d	d9 1c 24	 fstp	 DWORD PTR [esp]
  00130	e8 00 00 00 00	 call	 ??4?$CEncrypt@K@@QAEKM@Z ; CEncrypt<unsigned long>::operator=
  00135	6a 04		 push	 4

; 62   : 
; 63   : 	m_dwPullingDurationTime = rkLoader.LoadInt_e( "pulling_duration", 1000 );

  00137	c7 45 e4 9d 99
	87 86		 mov	 DWORD PTR __k$573165[ebp], -2037933667 ; 8687999dH
  0013e	c7 45 e8 84 82
	8c b5		 mov	 DWORD PTR __k$573165[ebp+4], -1249082748 ; b58c8284H
  00145	c7 45 ec 89 99
	99 8b		 mov	 DWORD PTR __k$573165[ebp+8], -1952867959 ; 8b999989H
  0014c	c7 45 f0 99 85
	84 84		 mov	 DWORD PTR __k$573165[ebp+12], -2071689831 ; 84848599H
  00153	8d 45 e4	 lea	 eax, DWORD PTR __k$573165[ebp]
  00156	c6 45 f4 00	 mov	 BYTE PTR __k$573165[ebp+16], 0
  0015a	59		 pop	 ecx
$LL318@LoadProper:
  0015b	81 30 ed ec eb
	ea		 xor	 DWORD PTR [eax], -353637139 ; eaebecedH
  00161	83 c0 04	 add	 eax, 4
  00164	49		 dec	 ecx
  00165	75 f4		 jne	 SHORT $LL318@LoadProper
  00167	53		 push	 ebx
  00168	8b 1d 00 00 00
	00		 mov	 ebx, DWORD PTR __imp_?LoadInt@ioINILoader@@QAEHPBDH@Z
  0016e	68 e8 03 00 00	 push	 1000			; 000003e8H
  00173	8d 45 e4	 lea	 eax, DWORD PTR __k$573165[ebp]
  00176	50		 push	 eax
  00177	8b cf		 mov	 ecx, edi
  00179	ff d3		 call	 ebx
  0017b	89 85 d4 fe ff
	ff		 mov	 DWORD PTR _value$573277[ebp], eax
  00181	8d 85 d4 fe ff
	ff		 lea	 eax, DWORD PTR _value$573277[ebp]
  00187	50		 push	 eax
  00188	8d 8e c8 09 00
	00		 lea	 ecx, DWORD PTR [esi+2504]
  0018e	e8 00 00 00 00	 call	 ?EncryptValueToPool@?$CEncrypt@K@@AAEXPBD@Z ; CEncrypt<unsigned long>::EncryptValueToPool

; 64   : 	m_dwPullingSensingTime = rkLoader.LoadInt_e( "pulling_sensing_time", FLOAT100 );

  00193	b8 64 00 00 00	 mov	 eax, 100		; 00000064H
  00198	6a 05		 push	 5
  0019a	c7 45 e0 9d 99
	87 86		 mov	 DWORD PTR __k$573299[ebp], -2037933667 ; 8687999dH
  001a1	c7 45 e4 84 82
	8c b5		 mov	 DWORD PTR __k$573299[ebp+4], -1249082748 ; b58c8284H
  001a8	c7 45 e8 9e 89
	85 99		 mov	 DWORD PTR __k$573299[ebp+8], -1719301730 ; 9985899eH
  001af	c7 45 ec 84 82
	8c b5		 mov	 DWORD PTR __k$573299[ebp+12], -1249082748 ; b58c8284H
  001b6	c7 45 f0 99 85
	86 8f		 mov	 DWORD PTR __k$573299[ebp+16], -1887009383 ; 8f868599H
  001bd	8d 4d e0	 lea	 ecx, DWORD PTR __k$573299[ebp]
  001c0	c6 45 f4 00	 mov	 BYTE PTR __k$573299[ebp+20], 0
  001c4	5a		 pop	 edx
$LL428@LoadProper:
  001c5	81 31 ed ec eb
	ea		 xor	 DWORD PTR [ecx], -353637139 ; eaebecedH
  001cb	83 c1 04	 add	 ecx, 4
  001ce	4a		 dec	 edx
  001cf	75 f4		 jne	 SHORT $LL428@LoadProper
  001d1	89 85 d4 fe ff
	ff		 mov	 DWORD PTR tv5671[ebp], eax
  001d7	db 85 d4 fe ff
	ff		 fild	 DWORD PTR tv5671[ebp]
  001dd	85 c0		 test	 eax, eax
  001df	79 06		 jns	 SHORT $LN674@LoadProper
  001e1	d8 05 00 00 00
	00		 fadd	 DWORD PTR __real@4f800000
$LN674@LoadProper:
  001e7	e8 00 00 00 00	 call	 __ftol2_sse
  001ec	50		 push	 eax
  001ed	8d 45 e0	 lea	 eax, DWORD PTR __k$573299[ebp]
  001f0	50		 push	 eax
  001f1	8b cf		 mov	 ecx, edi
  001f3	ff d3		 call	 ebx
  001f5	89 85 d4 fe ff
	ff		 mov	 DWORD PTR _value$573411[ebp], eax
  001fb	8d 85 d4 fe ff
	ff		 lea	 eax, DWORD PTR _value$573411[ebp]
  00201	50		 push	 eax
  00202	8d 8e f8 09 00
	00		 lea	 ecx, DWORD PTR [esi+2552]
  00208	e8 00 00 00 00	 call	 ?EncryptValueToPool@?$CEncrypt@K@@AAEXPBD@Z ; CEncrypt<unsigned long>::EncryptValueToPool

; 65   : 
; 66   : 	m_fPullingRange = rkLoader.LoadFloat_e( "pulling_range", FLOAT100 );

  0020d	b8 64 00 00 00	 mov	 eax, 100		; 00000064H
  00212	6a 03		 push	 3
  00214	5a		 pop	 edx
  00215	c7 45 e8 9d 99
	87 86		 mov	 DWORD PTR __k$573433[ebp], -2037933667 ; 8687999dH
  0021c	c7 45 ec 84 82
	8c b5		 mov	 DWORD PTR __k$573433[ebp+4], -1249082748 ; b58c8284H
  00223	c7 45 f0 9f 8d
	85 8d		 mov	 DWORD PTR __k$573433[ebp+8], -1920627297 ; 8d858d9fH
  0022a	8d 4d e8	 lea	 ecx, DWORD PTR __k$573433[ebp]
  0022d	66 c7 45 f4 88
	00		 mov	 WORD PTR __k$573433[ebp+12], 136 ; 00000088H
  00233	5b		 pop	 ebx
$LL538@LoadProper:
  00234	81 31 ed ec eb
	ea		 xor	 DWORD PTR [ecx], -353637139 ; eaebecedH
  0023a	83 c1 04	 add	 ecx, 4
  0023d	4a		 dec	 edx
  0023e	75 f4		 jne	 SHORT $LL538@LoadProper
  00240	80 75 f4 ed	 xor	 BYTE PTR __k$573433[ebp+12], -19 ; ffffffedH
  00244	89 85 d4 fe ff
	ff		 mov	 DWORD PTR tv5661[ebp], eax
  0024a	db 85 d4 fe ff
	ff		 fild	 DWORD PTR tv5661[ebp]
  00250	85 c0		 test	 eax, eax
  00252	79 06		 jns	 SHORT $LN675@LoadProper
  00254	d8 05 00 00 00
	00		 fadd	 DWORD PTR __real@4f800000
$LN675@LoadProper:
  0025a	51		 push	 ecx
  0025b	8d 45 e8	 lea	 eax, DWORD PTR __k$573433[ebp]
  0025e	d9 1c 24	 fstp	 DWORD PTR [esp]
  00261	50		 push	 eax
  00262	8b cf		 mov	 ecx, edi
  00264	ff 15 00 00 00
	00		 call	 DWORD PTR __imp_?LoadFloat@ioINILoader@@QAEMPBDM@Z
  0026a	d9 9d d4 fe ff
	ff		 fstp	 DWORD PTR _value$573546[ebp]
  00270	8d 85 d4 fe ff
	ff		 lea	 eax, DWORD PTR _value$573546[ebp]
  00276	50		 push	 eax
  00277	8d 8e 98 09 00
	00		 lea	 ecx, DWORD PTR [esi+2456]
  0027d	e8 00 00 00 00	 call	 ?EncryptValueToPool@?$CEncrypt@M@@AAEXPBD@Z ; CEncrypt<float>::EncryptValueToPool
  00282	6a 03		 push	 3

; 67   : 
; 68   : 	rkLoader.LoadString_e( "pulling_buff", "", szBuf, MAX_PATH );

  00284	c7 45 e8 9d 99
	87 86		 mov	 DWORD PTR __k$573576[ebp], -2037933667 ; 8687999dH
  0028b	c7 45 ec 84 82
	8c b5		 mov	 DWORD PTR __k$573576[ebp+4], -1249082748 ; b58c8284H
  00292	c7 45 f0 8f 99
	8d 8c		 mov	 DWORD PTR __k$573576[ebp+8], -1936877169 ; 8c8d998fH
  00299	8d 45 e8	 lea	 eax, DWORD PTR __k$573576[ebp]
  0029c	c6 45 f4 00	 mov	 BYTE PTR __k$573576[ebp+12], 0
  002a0	59		 pop	 ecx
$LL646@LoadProper:
  002a1	81 30 ed ec eb
	ea		 xor	 DWORD PTR [eax], -353637139 ; eaebecedH
  002a7	83 c0 04	 add	 eax, 4
  002aa	49		 dec	 ecx
  002ab	75 f4		 jne	 SHORT $LL646@LoadProper
  002ad	68 04 01 00 00	 push	 260			; 00000104H
  002b2	8d 85 d8 fe ff
	ff		 lea	 eax, DWORD PTR _szBuf$[ebp]
  002b8	50		 push	 eax
  002b9	68 00 00 00 00	 push	 OFFSET ??_C@_00CNPNBAHC@?$AA@
  002be	8d 45 e8	 lea	 eax, DWORD PTR __k$573576[ebp]
  002c1	50		 push	 eax
  002c2	8b cf		 mov	 ecx, edi
  002c4	ff 15 00 00 00
	00		 call	 DWORD PTR __imp_?LoadStringA@ioINILoader@@QAEXPBD0PADH@Z

; 69   : 	m_szPullingBuff = szBuf;

  002ca	8d 85 d8 fe ff
	ff		 lea	 eax, DWORD PTR _szBuf$[ebp]
  002d0	50		 push	 eax
  002d1	8d 8e 30 0a 00
	00		 lea	 ecx, DWORD PTR [esi+2608]
  002d7	ff 15 00 00 00
	00		 call	 DWORD PTR __imp_??4ioHashString@@QAEAAV0@PBD@Z

; 70   : 		
; 71   : 	LoadCallAttributeList( rkLoader );

  002dd	8b 06		 mov	 eax, DWORD PTR [esi]
  002df	57		 push	 edi
  002e0	8b ce		 mov	 ecx, esi
  002e2	ff 90 70 01 00
	00		 call	 DWORD PTR [eax+368]

; 72   : }

  002e8	8b 4d fc	 mov	 ecx, DWORD PTR __$ArrayPad$[ebp]
  002eb	5f		 pop	 edi
  002ec	33 cd		 xor	 ecx, ebp
  002ee	5e		 pop	 esi
  002ef	e8 00 00 00 00	 call	 @__security_check_cookie@4
  002f4	c9		 leave
  002f5	c2 04 00	 ret	 4
?LoadProperty@ioPullWeapon2@@UAEXAAVioINILoader@@@Z ENDP ; ioPullWeapon2::LoadProperty
_TEXT	ENDS
PUBLIC	?SetPullingState@ioPullWeapon2@@QAEXXZ		; ioPullWeapon2::SetPullingState
EXTRN	__imp_?GetLoopSec@ioFrameTimer@@QBEKXZ:PROC
EXTRN	__imp_?GetSingleton@ioFrameTimer@@SAAAV1@XZ:PROC
; Function compile flags: /Ogsp
;	COMDAT ?SetPullingState@ioPullWeapon2@@QAEXXZ
_TEXT	SEGMENT
_value$573713 = -4					; size = 4
?SetPullingState@ioPullWeapon2@@QAEXXZ PROC		; ioPullWeapon2::SetPullingState, COMDAT
; _this$ = ecx

; 248  : {

  00000	55		 push	 ebp
  00001	8b ec		 mov	 ebp, esp
  00003	51		 push	 ecx
  00004	56		 push	 esi
  00005	8b f1		 mov	 esi, ecx

; 249  : 	if( m_State == CS_PULLING )

  00007	83 be 94 08 00
	00 02		 cmp	 DWORD PTR [esi+2196], 2
  0000e	74 3e		 je	 SHORT $LN2@SetPulling

; 250  : 		return;
; 251  : 
; 252  : 	m_dwPullingStartTime = FRAMEGETTIME();

  00010	57		 push	 edi
  00011	ff 15 00 00 00
	00		 call	 DWORD PTR __imp_?GetSingleton@ioFrameTimer@@SAAAV1@XZ
  00017	8b c8		 mov	 ecx, eax
  00019	ff 15 00 00 00
	00		 call	 DWORD PTR __imp_?GetLoopSec@ioFrameTimer@@QBEKXZ
  0001f	89 86 28 0a 00
	00		 mov	 DWORD PTR [esi+2600], eax

; 253  : 	m_dwPullingEndTime = m_dwPullingStartTime;

  00025	89 86 2c 0a 00
	00		 mov	 DWORD PTR [esi+2604], eax

; 254  : 	m_dwPullingEndTime += m_dwPullingDurationTime;

  0002b	8d 45 fc	 lea	 eax, DWORD PTR _value$573713[ebp]
  0002e	50		 push	 eax
  0002f	8d 8e c8 09 00
	00		 lea	 ecx, DWORD PTR [esi+2504]
  00035	e8 00 00 00 00	 call	 ?DecryptValueToPool@?$CEncrypt@K@@QAEXPAK@Z ; CEncrypt<unsigned long>::DecryptValueToPool
  0003a	8b 45 fc	 mov	 eax, DWORD PTR _value$573713[ebp]
  0003d	01 86 2c 0a 00
	00		 add	 DWORD PTR [esi+2604], eax

; 255  : 
; 256  : 	m_State = CS_PULLING;	

  00043	c7 86 94 08 00
	00 02 00 00 00	 mov	 DWORD PTR [esi+2196], 2
  0004d	5f		 pop	 edi
$LN2@SetPulling:
  0004e	5e		 pop	 esi

; 257  : }

  0004f	c9		 leave
  00050	c3		 ret	 0
?SetPullingState@ioPullWeapon2@@QAEXXZ ENDP		; ioPullWeapon2::SetPullingState
_TEXT	ENDS
PUBLIC	?GetMoveSpeed@ioPullWeapon2@@IAEMXZ		; ioPullWeapon2::GetMoveSpeed
; Function compile flags: /Ogsp
;	COMDAT ?GetMoveSpeed@ioPullWeapon2@@IAEMXZ
_TEXT	SEGMENT
tv136 = -4						; size = 4
_value$573719 = -4					; size = 4
?GetMoveSpeed@ioPullWeapon2@@IAEMXZ PROC		; ioPullWeapon2::GetMoveSpeed, COMDAT
; _this$ = ecx

; 419  : {

  00000	55		 push	 ebp
  00001	8b ec		 mov	 ebp, esp
  00003	51		 push	 ecx
  00004	56		 push	 esi
  00005	8b f1		 mov	 esi, ecx

; 420  : 	return GetAttribute()->m_fMoveSpeed * m_fOwnerChargeSpeedRate;

  00007	8d 45 fc	 lea	 eax, DWORD PTR _value$573719[ebp]
  0000a	50		 push	 eax
  0000b	8d 8e 20 01 00
	00		 lea	 ecx, DWORD PTR [esi+288]
  00011	e8 00 00 00 00	 call	 ?DecryptValueToPool@?$CEncrypt@M@@QAEXPAM@Z ; CEncrypt<float>::DecryptValueToPool
  00016	8b 06		 mov	 eax, DWORD PTR [esi]
  00018	8b ce		 mov	 ecx, esi
  0001a	ff 90 3c 01 00
	00		 call	 DWORD PTR [eax+316]
  00020	d9 80 98 01 00
	00		 fld	 DWORD PTR [eax+408]
  00026	d8 4d fc	 fmul	 DWORD PTR _value$573719[ebp]
  00029	5e		 pop	 esi
  0002a	d9 5d fc	 fstp	 DWORD PTR tv136[ebp]
  0002d	d9 45 fc	 fld	 DWORD PTR tv136[ebp]

; 421  : }

  00030	c9		 leave
  00031	c3		 ret	 0
?GetMoveSpeed@ioPullWeapon2@@IAEMXZ ENDP		; ioPullWeapon2::GetMoveSpeed
_TEXT	ENDS
PUBLIC	?GetMoveRange@ioPullWeapon2@@IAEMXZ		; ioPullWeapon2::GetMoveRange
; Function compile flags: /Ogsp
;	COMDAT ?GetMoveRange@ioPullWeapon2@@IAEMXZ
_TEXT	SEGMENT
tv136 = -4						; size = 4
_value$573726 = -4					; size = 4
?GetMoveRange@ioPullWeapon2@@IAEMXZ PROC		; ioPullWeapon2::GetMoveRange, COMDAT
; _this$ = ecx

; 424  : {

  00000	55		 push	 ebp
  00001	8b ec		 mov	 ebp, esp
  00003	51		 push	 ecx
  00004	56		 push	 esi
  00005	8b f1		 mov	 esi, ecx

; 425  : 	return GetAttribute()->m_fMoveRange * m_fOwnerChargeRangeRate;

  00007	8d 45 fc	 lea	 eax, DWORD PTR _value$573726[ebp]
  0000a	50		 push	 eax
  0000b	8d 8e f0 00 00
	00		 lea	 ecx, DWORD PTR [esi+240]
  00011	e8 00 00 00 00	 call	 ?DecryptValueToPool@?$CEncrypt@M@@QAEXPAM@Z ; CEncrypt<float>::DecryptValueToPool
  00016	8b 06		 mov	 eax, DWORD PTR [esi]
  00018	8b ce		 mov	 ecx, esi
  0001a	ff 90 3c 01 00
	00		 call	 DWORD PTR [eax+316]
  00020	d9 80 9c 01 00
	00		 fld	 DWORD PTR [eax+412]
  00026	d8 4d fc	 fmul	 DWORD PTR _value$573726[ebp]
  00029	5e		 pop	 esi
  0002a	d9 5d fc	 fstp	 DWORD PTR tv136[ebp]
  0002d	d9 45 fc	 fld	 DWORD PTR tv136[ebp]

; 426  : }

  00030	c9		 leave
  00031	c3		 ret	 0
?GetMoveRange@ioPullWeapon2@@IAEMXZ ENDP		; ioPullWeapon2::GetMoveRange
_TEXT	ENDS
PUBLIC	_pShapeWorldMat$GSCopy$
PUBLIC	_pStage$GSCopy$
PUBLIC	?TestMapCollision@ioPullWeapon2@@UAE_NPAVioOpcodeShape@@PAVioPlayStage@@PBUD3DXMATRIX@@@Z ; ioPullWeapon2::TestMapCollision
EXTRN	__imp_??1ioRay@@QAE@XZ:PROC
EXTRN	__imp_??0ioRay@@QAE@ABUD3DXVECTOR3@@0@Z:PROC
EXTRN	?GetWorldAttackBox@ioWeapon@@QBEABVioOrientBox@@_N@Z:PROC ; ioWeapon::GetWorldAttackBox
;	COMDAT xdata$x
; File d:\lost saga for developer\youtube\tutorial\source\src\lsclient\encryptvalue.h
xdata$x	SEGMENT
__unwindtable$?TestMapCollision@ioPullWeapon2@@UAE_NPAVioOpcodeShape@@PAVioPlayStage@@PBUD3DXMATRIX@@@Z DD 0ffffffffH
	DD	FLAT:__unwindfunclet$?TestMapCollision@ioPullWeapon2@@UAE_NPAVioOpcodeShape@@PAVioPlayStage@@PBUD3DXMATRIX@@@Z$0
__ehfuncinfo$?TestMapCollision@ioPullWeapon2@@UAE_NPAVioOpcodeShape@@PAVioPlayStage@@PBUD3DXMATRIX@@@Z DD 019930522H
	DD	01H
	DD	FLAT:__unwindtable$?TestMapCollision@ioPullWeapon2@@UAE_NPAVioOpcodeShape@@PAVioPlayStage@@PBUD3DXMATRIX@@@Z
	DD	2 DUP(00H)
	DD	2 DUP(00H)
	DD	00H
	DD	01H
; Function compile flags: /Ogsp
; File d:\lost saga for developer\youtube\tutorial\source\src\lsclient\iopullweapon2.cpp
xdata$x	ENDS
;	COMDAT ?TestMapCollision@ioPullWeapon2@@UAE_NPAVioOpcodeShape@@PAVioPlayStage@@PBUD3DXMATRIX@@@Z
_TEXT	SEGMENT
_value$573736 = -76					; size = 4
_value$573747 = -72					; size = 4
_pShapeWorldMat$GSCopy$ = -68				; size = 4
tv160 = -64						; size = 4
_dwCurTime$ = -60					; size = 4
_pStage$GSCopy$ = -56					; size = 4
_value$573743 = -56					; size = 4
_vRay$568967 = -52					; size = 24
_vColPoint$568966 = -28					; size = 12
__$EHRec$ = -12						; size = 12
_pShape$ = 8						; size = 4
_pStage$ = 12						; size = 4
_pShapeWorldMat$ = 16					; size = 4
?TestMapCollision@ioPullWeapon2@@UAE_NPAVioOpcodeShape@@PAVioPlayStage@@PBUD3DXMATRIX@@@Z PROC ; ioPullWeapon2::TestMapCollision, COMDAT
; _this$ = ecx

; 429  : {

  00000	6a 40		 push	 64			; 00000040H
  00002	b8 00 00 00 00	 mov	 eax, __ehhandler$?TestMapCollision@ioPullWeapon2@@UAE_NPAVioOpcodeShape@@PAVioPlayStage@@PBUD3DXMATRIX@@@Z
  00007	e8 00 00 00 00	 call	 __EH_prolog3_GS
  0000c	8b 45 0c	 mov	 eax, DWORD PTR _pStage$[ebp]
  0000f	8b 75 08	 mov	 esi, DWORD PTR _pShape$[ebp]

; 430  : 	//pShape        TRUE
; 431  : 	//     1   N   TestMapCollision()   
; 432  : 
; 433  : 	DWORD dwCurTime = FRAMEGETTIME();

  00012	89 45 c8	 mov	 DWORD PTR _pStage$GSCopy$[ebp], eax
  00015	8b 45 10	 mov	 eax, DWORD PTR _pShapeWorldMat$[ebp]
  00018	8b d9		 mov	 ebx, ecx

; 434  : 
; 435  : 	if( m_dwCurMapCollisionDelayTime < dwCurTime )
; 436  : 	{
; 437  : 		if( pShape->TestIntersection( pShapeWorldMat, GetWorldAttackBox(true) ) )

  0001a	89 45 bc	 mov	 DWORD PTR _pShapeWorldMat$GSCopy$[ebp], eax
  0001d	ff 15 00 00 00
	00		 call	 DWORD PTR __imp_?GetSingleton@ioFrameTimer@@SAAAV1@XZ
  00023	8b c8		 mov	 ecx, eax
  00025	ff 15 00 00 00
	00		 call	 DWORD PTR __imp_?GetLoopSec@ioFrameTimer@@QBEKXZ
  0002b	8b f8		 mov	 edi, eax
  0002d	8d 45 b4	 lea	 eax, DWORD PTR _value$573736[ebp]
  00030	8d 8b 38 09 00
	00		 lea	 ecx, DWORD PTR [ebx+2360]
  00036	50		 push	 eax
  00037	89 7d c4	 mov	 DWORD PTR _dwCurTime$[ebp], edi
  0003a	89 4d c0	 mov	 DWORD PTR tv160[ebp], ecx
  0003d	e8 00 00 00 00	 call	 ?DecryptValueToPool@?$CEncrypt@K@@QAEXPAK@Z ; CEncrypt<unsigned long>::DecryptValueToPool
  00042	39 7d b4	 cmp	 DWORD PTR _value$573736[ebp], edi
  00045	0f 83 91 00 00
	00		 jae	 $LN1@TestMapCol
  0004b	8b 3e		 mov	 edi, DWORD PTR [esi]
  0004d	6a 01		 push	 1
  0004f	8b cb		 mov	 ecx, ebx
  00051	e8 00 00 00 00	 call	 ?GetWorldAttackBox@ioWeapon@@QBEABVioOrientBox@@_N@Z ; ioWeapon::GetWorldAttackBox
  00056	50		 push	 eax
  00057	ff 75 bc	 push	 DWORD PTR _pShapeWorldMat$GSCopy$[ebp]
  0005a	8b ce		 mov	 ecx, esi
  0005c	ff 57 24	 call	 DWORD PTR [edi+36]
  0005f	84 c0		 test	 al, al
  00061	74 79		 je	 SHORT $LN1@TestMapCol

; 438  : 		{						
; 439  : 			D3DXVECTOR3 vColPoint;
; 440  : 			ioRay vRay( m_vStartPos, m_vMoveDir );		

  00063	8d 83 dc 08 00
	00		 lea	 eax, DWORD PTR [ebx+2268]
  00069	50		 push	 eax
  0006a	8d 83 e8 08 00
	00		 lea	 eax, DWORD PTR [ebx+2280]
  00070	50		 push	 eax
  00071	8d 4d cc	 lea	 ecx, DWORD PTR _vRay$568967[ebp]
  00074	ff 15 00 00 00
	00		 call	 DWORD PTR __imp_??0ioRay@@QAE@ABUD3DXVECTOR3@@0@Z

; 441  : 			pShape->TestIntersection( NULL, vRay, NULL, &vColPoint );

  0007a	8b 16		 mov	 edx, DWORD PTR [esi]
  0007c	6a 01		 push	 1
  0007e	33 c0		 xor	 eax, eax
  00080	8d 4d e4	 lea	 ecx, DWORD PTR _vColPoint$568966[ebp]
  00083	51		 push	 ecx
  00084	50		 push	 eax
  00085	8d 4d cc	 lea	 ecx, DWORD PTR _vRay$568967[ebp]
  00088	51		 push	 ecx
  00089	50		 push	 eax
  0008a	8b ce		 mov	 ecx, esi
  0008c	89 45 fc	 mov	 DWORD PTR __$EHRec$[ebp+8], eax
  0008f	ff 52 28	 call	 DWORD PTR [edx+40]

; 442  : 
; 443  : 			//   
; 444  : 			CreateMapCollisionEffect( pStage, vColPoint );

  00092	83 ec 0c	 sub	 esp, 12			; 0000000cH
  00095	8b fc		 mov	 edi, esp
  00097	ff 75 c8	 push	 DWORD PTR _pStage$GSCopy$[ebp]
  0009a	8d 75 e4	 lea	 esi, DWORD PTR _vColPoint$568966[ebp]
  0009d	a5		 movsd
  0009e	a5		 movsd
  0009f	8b cb		 mov	 ecx, ebx
  000a1	a5		 movsd
  000a2	e8 00 00 00 00	 call	 ?CreateMapCollisionEffect@ioPullWeapon2@@IAEXPAVioPlayStage@@UD3DXVECTOR3@@@Z ; ioPullWeapon2::CreateMapCollisionEffect

; 445  : 			m_dwCurMapCollisionDelayTime = dwCurTime + m_dwMapCollisionDelayTime;

  000a7	8d 45 c8	 lea	 eax, DWORD PTR _value$573743[ebp]
  000aa	50		 push	 eax
  000ab	8d 8b 08 09 00
	00		 lea	 ecx, DWORD PTR [ebx+2312]
  000b1	e8 00 00 00 00	 call	 ?DecryptValueToPool@?$CEncrypt@K@@QAEXPAK@Z ; CEncrypt<unsigned long>::DecryptValueToPool
  000b6	8b 45 c8	 mov	 eax, DWORD PTR _value$573743[ebp]
  000b9	03 45 c4	 add	 eax, DWORD PTR _dwCurTime$[ebp]
  000bc	8b 4d c0	 mov	 ecx, DWORD PTR tv160[ebp]
  000bf	89 45 b8	 mov	 DWORD PTR _value$573747[ebp], eax
  000c2	8d 45 b8	 lea	 eax, DWORD PTR _value$573747[ebp]
  000c5	50		 push	 eax
  000c6	e8 00 00 00 00	 call	 ?EncryptValueToPool@?$CEncrypt@K@@AAEXPBD@Z ; CEncrypt<unsigned long>::EncryptValueToPool

; 446  : 			return true;

  000cb	83 4d fc ff	 or	 DWORD PTR __$EHRec$[ebp+8], -1
  000cf	8d 4d cc	 lea	 ecx, DWORD PTR _vRay$568967[ebp]
  000d2	ff 15 00 00 00
	00		 call	 DWORD PTR __imp_??1ioRay@@QAE@XZ
  000d8	b0 01		 mov	 al, 1
  000da	eb 02		 jmp	 SHORT $LN3@TestMapCol
$LN1@TestMapCol:

; 447  : 		}
; 448  : 	}
; 449  : 
; 450  : 	return false;

  000dc	32 c0		 xor	 al, al
$LN3@TestMapCol:

; 451  : }

  000de	e8 00 00 00 00	 call	 __EH_epilog3_GS
  000e3	c2 0c 00	 ret	 12			; 0000000cH
_TEXT	ENDS
;	COMDAT text$x
text$x	SEGMENT
__unwindfunclet$?TestMapCollision@ioPullWeapon2@@UAE_NPAVioOpcodeShape@@PAVioPlayStage@@PBUD3DXMATRIX@@@Z$0:
  00000	8d 4d cc	 lea	 ecx, DWORD PTR _vRay$568967[ebp]
  00003	ff 25 00 00 00
	00		 jmp	 DWORD PTR __imp_??1ioRay@@QAE@XZ
__ehhandler$?TestMapCollision@ioPullWeapon2@@UAE_NPAVioOpcodeShape@@PAVioPlayStage@@PBUD3DXMATRIX@@@Z:
  00009	8b 54 24 08	 mov	 edx, DWORD PTR [esp+8]
  0000d	8d 42 0c	 lea	 eax, DWORD PTR [edx+12]
  00010	8b 4a b0	 mov	 ecx, DWORD PTR [edx-80]
  00013	33 c8		 xor	 ecx, eax
  00015	e8 00 00 00 00	 call	 @__security_check_cookie@4
  0001a	8b 4a fc	 mov	 ecx, DWORD PTR [edx-4]
  0001d	33 c8		 xor	 ecx, eax
  0001f	e8 00 00 00 00	 call	 @__security_check_cookie@4
  00024	b8 00 00 00 00	 mov	 eax, OFFSET __ehfuncinfo$?TestMapCollision@ioPullWeapon2@@UAE_NPAVioOpcodeShape@@PAVioPlayStage@@PBUD3DXMATRIX@@@Z
  00029	e9 00 00 00 00	 jmp	 ___CxxFrameHandler3
text$x	ENDS
?TestMapCollision@ioPullWeapon2@@UAE_NPAVioOpcodeShape@@PAVioPlayStage@@PBUD3DXMATRIX@@@Z ENDP ; ioPullWeapon2::TestMapCollision
PUBLIC	__$ArrayPad$
PUBLIC	?UpdateWorldAttackBox@ioPullWeapon2@@MAEXM_N@Z	; ioPullWeapon2::UpdateWorldAttackBox
EXTRN	__imp_?SetNull@ioOrientBox@@QAEXXZ:PROC
EXTRN	__imp_?Transform@ioOrientBox@@QAEXABUD3DXVECTOR3@@0ABUD3DXQUATERNION@@@Z:PROC
EXTRN	?GetOrientation@ioWeapon@@QBEABUD3DXQUATERNION@@XZ:PROC ; ioWeapon::GetOrientation
EXTRN	__imp_?IsNull@ioOrientBox@@QBE_NXZ:PROC
EXTRN	__imp_?SetExtents@ioOrientBox@@QAEXHM@Z:PROC
EXTRN	__imp_?GetExtents@ioOrientBox@@QBEMH@Z:PROC
; Function compile flags: /Ogsp
;	COMDAT ?UpdateWorldAttackBox@ioPullWeapon2@@MAEXM_N@Z
_TEXT	SEGMENT
tv397 = -32						; size = 4
_value$573782 = -32					; size = 4
tv417 = -28						; size = 4
tv399 = -28						; size = 4
_value$573787 = -24					; size = 4
$T573770 = -24						; size = 4
_fMapCollisionRate$ = -24				; size = 4
tv411 = -20						; size = 4
tv405 = -20						; size = 4
_value$573792 = -20					; size = 4
_value$573778 = -20					; size = 4
_vScale$568981 = -16					; size = 12
__$ArrayPad$ = -4					; size = 4
_fTimePerSec$ = 8					; size = 4
_bSetNull$ = 12						; size = 1
?UpdateWorldAttackBox@ioPullWeapon2@@MAEXM_N@Z PROC	; ioPullWeapon2::UpdateWorldAttackBox, COMDAT
; _this$ = ecx

; 454  : {

  00000	55		 push	 ebp
  00001	8b ec		 mov	 ebp, esp
  00003	83 ec 20	 sub	 esp, 32			; 00000020H
  00006	a1 00 00 00 00	 mov	 eax, DWORD PTR ___security_cookie
  0000b	33 c5		 xor	 eax, ebp
  0000d	89 45 fc	 mov	 DWORD PTR __$ArrayPad$[ebp], eax
  00010	53		 push	 ebx
  00011	8b d9		 mov	 ebx, ecx

; 455  : 	if( !IsLive() || bSetNull )

  00013	80 bb 82 05 00
	00 00		 cmp	 BYTE PTR [ebx+1410], 0
  0001a	56		 push	 esi
  0001b	57		 push	 edi
  0001c	0f 84 b7 01 00
	00		 je	 $LN4@UpdateWorl
  00022	80 7d 0c 00	 cmp	 BYTE PTR _bSetNull$[ebp], 0
  00026	0f 85 ad 01 00
	00		 jne	 $LN4@UpdateWorl

; 459  : 		return;
; 460  : 	}
; 461  : 
; 462  : 	m_WorldAttackBox = GetLocalAttackBox();

  0002c	8b 03		 mov	 eax, DWORD PTR [ebx]
  0002e	ff 90 00 01 00
	00		 call	 DWORD PTR [eax+256]
  00034	6a 11		 push	 17			; 00000011H
  00036	59		 pop	 ecx
  00037	8b f0		 mov	 esi, eax
  00039	8d bb e8 04 00
	00		 lea	 edi, DWORD PTR [ebx+1256]
  0003f	f3 a5		 rep movsd

; 463  : 	m_WorldAttackBoxForMap = m_WorldAttackBox;

  00041	6a 11		 push	 17			; 00000011H
  00043	8b f0		 mov	 esi, eax

; 464  : 
; 465  : 	float fMapCollisionRate = GetAttribute()->m_fMapCollisionBoxRate;

  00045	8b 03		 mov	 eax, DWORD PTR [ebx]
  00047	59		 pop	 ecx
  00048	8d bb 2c 05 00
	00		 lea	 edi, DWORD PTR [ebx+1324]
  0004e	f3 a5		 rep movsd
  00050	8b cb		 mov	 ecx, ebx
  00052	ff 90 3c 01 00
	00		 call	 DWORD PTR [eax+316]

; 466  : 	m_WorldAttackBoxForMap.SetExtents( 0, m_WorldAttackBox.GetExtents(0)*fMapCollisionRate );

  00058	6a 00		 push	 0
  0005a	d9 80 a8 01 00
	00		 fld	 DWORD PTR [eax+424]
  00060	8d 8b e8 04 00
	00		 lea	 ecx, DWORD PTR [ebx+1256]
  00066	d9 5d e8	 fstp	 DWORD PTR _fMapCollisionRate$[ebp]
  00069	ff 15 00 00 00
	00		 call	 DWORD PTR __imp_?GetExtents@ioOrientBox@@QBEMH@Z
  0006f	d8 4d e8	 fmul	 DWORD PTR _fMapCollisionRate$[ebp]
  00072	8b 35 00 00 00
	00		 mov	 esi, DWORD PTR __imp_?SetExtents@ioOrientBox@@QAEXHM@Z
  00078	51		 push	 ecx
  00079	8d 8b 2c 05 00
	00		 lea	 ecx, DWORD PTR [ebx+1324]
  0007f	d9 5d e4	 fstp	 DWORD PTR tv417[ebp]
  00082	d9 45 e4	 fld	 DWORD PTR tv417[ebp]
  00085	89 4d e4	 mov	 DWORD PTR tv399[ebp], ecx
  00088	d9 1c 24	 fstp	 DWORD PTR [esp]
  0008b	6a 00		 push	 0
  0008d	ff d6		 call	 esi

; 467  : 	m_WorldAttackBoxForMap.SetExtents( 1, m_WorldAttackBox.GetExtents(1)*fMapCollisionRate );

  0008f	6a 01		 push	 1
  00091	8d 8b e8 04 00
	00		 lea	 ecx, DWORD PTR [ebx+1256]
  00097	ff 15 00 00 00
	00		 call	 DWORD PTR __imp_?GetExtents@ioOrientBox@@QBEMH@Z
  0009d	d8 4d e8	 fmul	 DWORD PTR _fMapCollisionRate$[ebp]
  000a0	51		 push	 ecx
  000a1	8b 4d e4	 mov	 ecx, DWORD PTR tv399[ebp]
  000a4	d9 5d ec	 fstp	 DWORD PTR tv411[ebp]
  000a7	d9 45 ec	 fld	 DWORD PTR tv411[ebp]
  000aa	d9 1c 24	 fstp	 DWORD PTR [esp]
  000ad	6a 01		 push	 1
  000af	ff d6		 call	 esi

; 468  : 	m_WorldAttackBoxForMap.SetExtents( 2, m_WorldAttackBox.GetExtents(2)*fMapCollisionRate );

  000b1	6a 02		 push	 2
  000b3	8d 8b e8 04 00
	00		 lea	 ecx, DWORD PTR [ebx+1256]
  000b9	ff 15 00 00 00
	00		 call	 DWORD PTR __imp_?GetExtents@ioOrientBox@@QBEMH@Z
  000bf	d8 4d e8	 fmul	 DWORD PTR _fMapCollisionRate$[ebp]
  000c2	51		 push	 ecx
  000c3	8b 4d e4	 mov	 ecx, DWORD PTR tv399[ebp]
  000c6	d9 5d ec	 fstp	 DWORD PTR tv405[ebp]
  000c9	d9 45 ec	 fld	 DWORD PTR tv405[ebp]
  000cc	d9 1c 24	 fstp	 DWORD PTR [esp]
  000cf	6a 02		 push	 2
  000d1	ff d6		 call	 esi

; 469  : 
; 470  : 	if( !m_WorldAttackBox.IsNull() )

  000d3	8d 8b e8 04 00
	00		 lea	 ecx, DWORD PTR [ebx+1256]
  000d9	ff 15 00 00 00
	00		 call	 DWORD PTR __imp_?IsNull@ioOrientBox@@QBE_NXZ
  000df	84 c0		 test	 al, al
  000e1	0f 85 08 01 00
	00		 jne	 $LN1@UpdateWorl

; 471  : 	{
; 472  : 		if( m_fOwnerChargeScaleRate > FLOAT1 )

  000e7	b8 01 00 00 00	 mov	 eax, 1
  000ec	89 45 e8	 mov	 DWORD PTR $T573770[ebp], eax
  000ef	8d 45 ec	 lea	 eax, DWORD PTR _value$573778[ebp]
  000f2	50		 push	 eax
  000f3	8d 8b b0 01 00
	00		 lea	 ecx, DWORD PTR [ebx+432]
  000f9	e8 00 00 00 00	 call	 ?DecryptValueToPool@?$CEncrypt@M@@QAEXPAM@Z ; CEncrypt<float>::DecryptValueToPool
  000fe	d9 45 ec	 fld	 DWORD PTR _value$573778[ebp]
  00101	8b 45 e8	 mov	 eax, DWORD PTR $T573770[ebp]
  00104	db 45 e8	 fild	 DWORD PTR $T573770[ebp]
  00107	85 c0		 test	 eax, eax
  00109	79 06		 jns	 SHORT $LN25@UpdateWorl
  0010b	d8 05 00 00 00
	00		 fadd	 DWORD PTR __real@4f800000
$LN25@UpdateWorl:
  00111	d9 c9		 fxch	 ST(1)
  00113	df f1		 fcomip	 ST(1)
  00115	dd d8		 fstp	 ST(0)
  00117	0f 86 88 00 00
	00		 jbe	 $LN2@UpdateWorl

; 473  : 		{
; 474  : 			D3DXVECTOR3 vScale( m_fOwnerChargeScaleRate, m_fOwnerChargeScaleRate, m_fOwnerChargeScaleRate );

  0011d	8d 45 e0	 lea	 eax, DWORD PTR _value$573782[ebp]
  00120	50		 push	 eax
  00121	8d 8b b0 01 00
	00		 lea	 ecx, DWORD PTR [ebx+432]
  00127	e8 00 00 00 00	 call	 ?DecryptValueToPool@?$CEncrypt@M@@QAEXPAM@Z ; CEncrypt<float>::DecryptValueToPool
  0012c	8d 45 e8	 lea	 eax, DWORD PTR _value$573787[ebp]
  0012f	50		 push	 eax
  00130	8d 8b b0 01 00
	00		 lea	 ecx, DWORD PTR [ebx+432]
  00136	e8 00 00 00 00	 call	 ?DecryptValueToPool@?$CEncrypt@M@@QAEXPAM@Z ; CEncrypt<float>::DecryptValueToPool
  0013b	8d 45 ec	 lea	 eax, DWORD PTR _value$573792[ebp]
  0013e	50		 push	 eax
  0013f	8d 8b b0 01 00
	00		 lea	 ecx, DWORD PTR [ebx+432]
  00145	e8 00 00 00 00	 call	 ?DecryptValueToPool@?$CEncrypt@M@@QAEXPAM@Z ; CEncrypt<float>::DecryptValueToPool
  0014a	f3 0f 10 45 ec	 movss	 xmm0, DWORD PTR _value$573792[ebp]
  0014f	f3 0f 11 45 f0	 movss	 DWORD PTR _vScale$568981[ebp], xmm0
  00154	f3 0f 10 45 e8	 movss	 xmm0, DWORD PTR _value$573787[ebp]
  00159	f3 0f 11 45 f4	 movss	 DWORD PTR _vScale$568981[ebp+4], xmm0
  0015e	f3 0f 10 45 e0	 movss	 xmm0, DWORD PTR _value$573782[ebp]

; 475  : 			m_WorldAttackBox.Transform( GetPosition(), vScale, GetOrientation() );

  00163	8b cb		 mov	 ecx, ebx
  00165	f3 0f 11 45 f8	 movss	 DWORD PTR _vScale$568981[ebp+8], xmm0
  0016a	e8 00 00 00 00	 call	 ?GetOrientation@ioWeapon@@QBEABUD3DXQUATERNION@@XZ ; ioWeapon::GetOrientation
  0016f	50		 push	 eax
  00170	8d 45 f0	 lea	 eax, DWORD PTR _vScale$568981[ebp]
  00173	50		 push	 eax
  00174	8b 03		 mov	 eax, DWORD PTR [ebx]
  00176	8b cb		 mov	 ecx, ebx
  00178	ff 50 70	 call	 DWORD PTR [eax+112]
  0017b	8b 35 00 00 00
	00		 mov	 esi, DWORD PTR __imp_?Transform@ioOrientBox@@QAEXABUD3DXVECTOR3@@0ABUD3DXQUATERNION@@@Z
  00181	50		 push	 eax
  00182	8d 8b e8 04 00
	00		 lea	 ecx, DWORD PTR [ebx+1256]
  00188	ff d6		 call	 esi

; 476  : 			m_WorldAttackBoxForMap.Transform( GetPosition(), vScale, GetOrientation() );

  0018a	8b cb		 mov	 ecx, ebx
  0018c	e8 00 00 00 00	 call	 ?GetOrientation@ioWeapon@@QBEABUD3DXQUATERNION@@XZ ; ioWeapon::GetOrientation
  00191	50		 push	 eax
  00192	8d 45 f0	 lea	 eax, DWORD PTR _vScale$568981[ebp]
  00195	50		 push	 eax
$LN26@UpdateWorl:
  00196	8b 03		 mov	 eax, DWORD PTR [ebx]
  00198	8b cb		 mov	 ecx, ebx
  0019a	ff 50 70	 call	 DWORD PTR [eax+112]
  0019d	8b 4d e4	 mov	 ecx, DWORD PTR tv399[ebp]
  001a0	50		 push	 eax
  001a1	ff d6		 call	 esi

; 477  : 		}
; 478  : 		else

  001a3	eb 4a		 jmp	 SHORT $LN1@UpdateWorl
$LN2@UpdateWorl:

; 479  : 		{
; 480  : 			m_WorldAttackBox.Transform( GetPosition(), ioMath::UNIT_ALL, GetOrientation() );

  001a5	8b cb		 mov	 ecx, ebx
  001a7	e8 00 00 00 00	 call	 ?GetOrientation@ioWeapon@@QBEABUD3DXQUATERNION@@XZ ; ioWeapon::GetOrientation
  001ac	50		 push	 eax
  001ad	ff 35 00 00 00
	00		 push	 DWORD PTR __imp_?UNIT_ALL@ioMath@@2UD3DXVECTOR3@@A
  001b3	8b 03		 mov	 eax, DWORD PTR [ebx]
  001b5	8b cb		 mov	 ecx, ebx
  001b7	ff 50 70	 call	 DWORD PTR [eax+112]
  001ba	8b 35 00 00 00
	00		 mov	 esi, DWORD PTR __imp_?Transform@ioOrientBox@@QAEXABUD3DXVECTOR3@@0ABUD3DXQUATERNION@@@Z
  001c0	50		 push	 eax
  001c1	8d 8b e8 04 00
	00		 lea	 ecx, DWORD PTR [ebx+1256]
  001c7	ff d6		 call	 esi

; 481  : 			m_WorldAttackBoxForMap.Transform( GetPosition(), ioMath::UNIT_ALL, GetOrientation() );

  001c9	8b cb		 mov	 ecx, ebx
  001cb	e8 00 00 00 00	 call	 ?GetOrientation@ioWeapon@@QBEABUD3DXQUATERNION@@XZ ; ioWeapon::GetOrientation
  001d0	50		 push	 eax
  001d1	ff 35 00 00 00
	00		 push	 DWORD PTR __imp_?UNIT_ALL@ioMath@@2UD3DXVECTOR3@@A
  001d7	eb bd		 jmp	 SHORT $LN26@UpdateWorl
$LN4@UpdateWorl:

; 456  : 	{
; 457  : 		m_WorldAttackBox.SetNull();

  001d9	8b 35 00 00 00
	00		 mov	 esi, DWORD PTR __imp_?SetNull@ioOrientBox@@QAEXXZ
  001df	8d 8b e8 04 00
	00		 lea	 ecx, DWORD PTR [ebx+1256]
  001e5	ff d6		 call	 esi

; 458  : 		m_WorldAttackBoxForMap.SetNull();

  001e7	8d 8b 2c 05 00
	00		 lea	 ecx, DWORD PTR [ebx+1324]
  001ed	ff d6		 call	 esi
$LN1@UpdateWorl:

; 482  : 		}
; 483  : 	}
; 484  : }

  001ef	8b 4d fc	 mov	 ecx, DWORD PTR __$ArrayPad$[ebp]
  001f2	5f		 pop	 edi
  001f3	5e		 pop	 esi
  001f4	33 cd		 xor	 ecx, ebp
  001f6	5b		 pop	 ebx
  001f7	e8 00 00 00 00	 call	 @__security_check_cookie@4
  001fc	c9		 leave
  001fd	c2 08 00	 ret	 8
?UpdateWorldAttackBox@ioPullWeapon2@@MAEXM_N@Z ENDP	; ioPullWeapon2::UpdateWorldAttackBox
_TEXT	ENDS
PUBLIC	_bMapCollision$GSCopy$
PUBLIC	__$ArrayPad$
PUBLIC	?IsCollision@ioPullWeapon2@@UAE_NPAVioPlayEntity@@_N@Z ; ioPullWeapon2::IsCollision
EXTRN	??1SP2Packet@@UAE@XZ:PROC			; SP2Packet::~SP2Packet
EXTRN	?SendToAllPlayingUser@P2PNetwork@@YAXAAVSP2Packet@@PAVioBaseChar@@@Z:PROC ; P2PNetwork::SendToAllPlayingUser
EXTRN	??6SP2Packet@@QAEAAV0@K@Z:PROC			; SP2Packet::operator<<
EXTRN	??6SP2Packet@@QAEAAV0@ABVioHashString@@@Z:PROC	; SP2Packet::operator<<
EXTRN	??0SP2Packet@@QAE@K@Z:PROC			; SP2Packet::SP2Packet
EXTRN	__chkstk:PROC
;	COMDAT xdata$x
; File d:\lost saga for developer\youtube\tutorial\source\src\lsclient\ioweapon.h
xdata$x	SEGMENT
__unwindtable$?IsCollision@ioPullWeapon2@@UAE_NPAVioPlayEntity@@_N@Z DD 0ffffffffH
	DD	FLAT:__unwindfunclet$?IsCollision@ioPullWeapon2@@UAE_NPAVioPlayEntity@@_N@Z$0
__ehfuncinfo$?IsCollision@ioPullWeapon2@@UAE_NPAVioPlayEntity@@_N@Z DD 019930522H
	DD	01H
	DD	FLAT:__unwindtable$?IsCollision@ioPullWeapon2@@UAE_NPAVioPlayEntity@@_N@Z
	DD	2 DUP(00H)
	DD	2 DUP(00H)
	DD	00H
	DD	01H
; Function compile flags: /Ogsp
; File d:\lost saga for developer\youtube\tutorial\source\src\lsclient\iopullweapon2.cpp
xdata$x	ENDS
;	COMDAT ?IsCollision@ioPullWeapon2@@UAE_NPAVioPlayEntity@@_N@Z
_TEXT	SEGMENT
_bMapCollision$GSCopy$ = -32832				; size = 1
_pTarget$ = -32828					; size = 4
_bCollision$ = -32824					; size = 1
_kPacket$568997 = -32820				; size = 32792
_vColPoint$ = -28					; size = 12
__$ArrayPad$ = -16					; size = 4
__$EHRec$ = -12						; size = 12
_pEntity$ = 8						; size = 4
_bMapCollision$ = 12					; size = 1
?IsCollision@ioPullWeapon2@@UAE_NPAVioPlayEntity@@_N@Z PROC ; ioPullWeapon2::IsCollision, COMDAT
; _this$ = ecx

; 487  : {

  00000	55		 push	 ebp
  00001	8b ec		 mov	 ebp, esp
  00003	6a ff		 push	 -1
  00005	68 00 00 00 00	 push	 __ehhandler$?IsCollision@ioPullWeapon2@@UAE_NPAVioPlayEntity@@_N@Z
  0000a	64 a1 00 00 00
	00		 mov	 eax, DWORD PTR fs:0
  00010	50		 push	 eax
  00011	b8 34 80 00 00	 mov	 eax, 32820		; 00008034H
  00016	e8 00 00 00 00	 call	 __chkstk
  0001b	a1 00 00 00 00	 mov	 eax, DWORD PTR ___security_cookie
  00020	33 c5		 xor	 eax, ebp
  00022	89 45 f0	 mov	 DWORD PTR __$ArrayPad$[ebp], eax
  00025	53		 push	 ebx
  00026	56		 push	 esi
  00027	57		 push	 edi
  00028	50		 push	 eax
  00029	8d 45 f4	 lea	 eax, DWORD PTR __$EHRec$[ebp]
  0002c	64 a3 00 00 00
	00		 mov	 DWORD PTR fs:0, eax
  00032	8b 7d 08	 mov	 edi, DWORD PTR _pEntity$[ebp]

; 488  : 	ioBaseChar* pTarget = ToBaseChar(pEntity);
; 489  : 	if( !pTarget )

  00035	8a 45 0c	 mov	 al, BYTE PTR _bMapCollision$[ebp]
  00038	57		 push	 edi
  00039	8b f1		 mov	 esi, ecx
  0003b	88 85 c0 7f ff
	ff		 mov	 BYTE PTR _bMapCollision$GSCopy$[ebp], al
  00041	e8 00 00 00 00	 call	 ?ToBaseChar@@YAPAVioBaseChar@@PAVioGameEntity@@@Z ; ToBaseChar
  00046	59		 pop	 ecx
  00047	89 85 c4 7f ff
	ff		 mov	 DWORD PTR _pTarget$[ebp], eax
  0004d	85 c0		 test	 eax, eax

; 490  : 		return false;

  0004f	0f 84 ec 00 00
	00		 je	 $LN4@IsCollisio

; 491  : 	
; 492  : 	if( m_State != CS_FLOATING || !pTarget->IsNeedProcess() )

  00055	83 be 94 08 00
	00 01		 cmp	 DWORD PTR [esi+2196], 1
  0005c	0f 85 df 00 00
	00		 jne	 $LN4@IsCollisio
  00062	8b 10		 mov	 edx, DWORD PTR [eax]
  00064	8b c8		 mov	 ecx, eax
  00066	ff 92 00 01 00
	00		 call	 DWORD PTR [edx+256]
  0006c	84 c0		 test	 al, al
  0006e	0f 84 cd 00 00
	00		 je	 $LN4@IsCollisio

; 494  : 
; 495  : 	bool bCollision = false;
; 496  : 	D3DXVECTOR3 vColPoint( 0.0f, 0.0f, 0.0f );

  00074	0f 57 c0	 xorps	 xmm0, xmm0

; 497  : 	if( pEntity->IsWoundedCollision( GetWorldAttackBox(bMapCollision), &vColPoint ) )

  00077	8b 1f		 mov	 ebx, DWORD PTR [edi]
  00079	8d 45 e4	 lea	 eax, DWORD PTR _vColPoint$[ebp]
  0007c	50		 push	 eax
  0007d	ff b5 c0 7f ff
	ff		 push	 DWORD PTR _bMapCollision$GSCopy$[ebp]
  00083	8b ce		 mov	 ecx, esi
  00085	c6 85 c8 7f ff
	ff 00		 mov	 BYTE PTR _bCollision$[ebp], 0
  0008c	f3 0f 11 45 e4	 movss	 DWORD PTR _vColPoint$[ebp], xmm0
  00091	f3 0f 11 45 e8	 movss	 DWORD PTR _vColPoint$[ebp+4], xmm0
  00096	f3 0f 11 45 ec	 movss	 DWORD PTR _vColPoint$[ebp+8], xmm0
  0009b	e8 00 00 00 00	 call	 ?GetWorldAttackBox@ioWeapon@@QBEABVioOrientBox@@_N@Z ; ioWeapon::GetWorldAttackBox
  000a0	50		 push	 eax
  000a1	8b cf		 mov	 ecx, edi
  000a3	ff 93 90 00 00
	00		 call	 DWORD PTR [ebx+144]
  000a9	84 c0		 test	 al, al
  000ab	74 07		 je	 SHORT $LN3@IsCollisio

; 498  : 		bCollision = true;

  000ad	c6 85 c8 7f ff
	ff 01		 mov	 BYTE PTR _bCollision$[ebp], 1
$LN3@IsCollisio:

; 499  : 
; 500  : 	CheckPiercing( bCollision );

  000b4	ff b5 c8 7f ff
	ff		 push	 DWORD PTR _bCollision$[ebp]
  000ba	8b 06		 mov	 eax, DWORD PTR [esi]
  000bc	8b ce		 mov	 ecx, esi
  000be	ff 90 48 01 00
	00		 call	 DWORD PTR [eax+328]

; 501  : 
; 502  : 	if( bCollision )

  000c4	80 bd c8 7f ff
	ff 00		 cmp	 BYTE PTR _bCollision$[ebp], 0
  000cb	74 6c		 je	 SHORT $LN1@IsCollisio

; 503  : 	{
; 504  : 		SetPullingState();

  000cd	8b ce		 mov	 ecx, esi
  000cf	e8 00 00 00 00	 call	 ?SetPullingState@ioPullWeapon2@@QAEXXZ ; ioPullWeapon2::SetPullingState

; 505  : 
; 506  : 		if( pTarget->IsNeedSendNetwork() )

  000d4	8b 8d c4 7f ff
	ff		 mov	 ecx, DWORD PTR _pTarget$[ebp]
  000da	8b 01		 mov	 eax, DWORD PTR [ecx]
  000dc	ff 90 04 01 00
	00		 call	 DWORD PTR [eax+260]
  000e2	84 c0		 test	 al, al
  000e4	74 53		 je	 SHORT $LN1@IsCollisio

; 507  : 		{
; 508  : 			SP2Packet kPacket( CUPK_WEAPON_SYNC );

  000e6	68 16 42 00 00	 push	 16918			; 00004216H
  000eb	8d 8d cc 7f ff
	ff		 lea	 ecx, DWORD PTR _kPacket$568997[ebp]
  000f1	e8 00 00 00 00	 call	 ??0SP2Packet@@QAE@K@Z	; SP2Packet::SP2Packet
  000f6	83 65 fc 00	 and	 DWORD PTR __$EHRec$[ebp+8], 0

; 509  : 			kPacket << GetOwnerName();

  000fa	8d 46 10	 lea	 eax, DWORD PTR [esi+16]
  000fd	50		 push	 eax
  000fe	8d 8d cc 7f ff
	ff		 lea	 ecx, DWORD PTR _kPacket$568997[ebp]
  00104	e8 00 00 00 00	 call	 ??6SP2Packet@@QAEAAV0@ABVioHashString@@@Z ; SP2Packet::operator<<

; 510  : 			kPacket << m_dwWeaponIdx;

  00109	ff b6 b8 04 00
	00		 push	 DWORD PTR [esi+1208]
  0010f	8d 8d cc 7f ff
	ff		 lea	 ecx, DWORD PTR _kPacket$568997[ebp]
  00115	e8 00 00 00 00	 call	 ??6SP2Packet@@QAEAAV0@K@Z ; SP2Packet::operator<<

; 511  : 			P2PNetwork::SendToAllPlayingUser( kPacket );

  0011a	8d 85 cc 7f ff
	ff		 lea	 eax, DWORD PTR _kPacket$568997[ebp]
  00120	6a 00		 push	 0
  00122	50		 push	 eax
  00123	e8 00 00 00 00	 call	 ?SendToAllPlayingUser@P2PNetwork@@YAXAAVSP2Packet@@PAVioBaseChar@@@Z ; P2PNetwork::SendToAllPlayingUser

; 512  : 		}

  00128	83 4d fc ff	 or	 DWORD PTR __$EHRec$[ebp+8], -1
  0012c	59		 pop	 ecx
  0012d	59		 pop	 ecx
  0012e	8d 8d cc 7f ff
	ff		 lea	 ecx, DWORD PTR _kPacket$568997[ebp]
  00134	e8 00 00 00 00	 call	 ??1SP2Packet@@UAE@XZ	; SP2Packet::~SP2Packet
$LN1@IsCollisio:

; 513  : 	}
; 514  : 
; 515  : 	return bCollision;

  00139	8a 85 c8 7f ff
	ff		 mov	 al, BYTE PTR _bCollision$[ebp]
  0013f	eb 02		 jmp	 SHORT $LN7@IsCollisio
$LN4@IsCollisio:

; 493  : 		return false;

  00141	32 c0		 xor	 al, al
$LN7@IsCollisio:

; 516  : }

  00143	8b 4d f4	 mov	 ecx, DWORD PTR __$EHRec$[ebp]
  00146	64 89 0d 00 00
	00 00		 mov	 DWORD PTR fs:0, ecx
  0014d	59		 pop	 ecx
  0014e	5f		 pop	 edi
  0014f	5e		 pop	 esi
  00150	5b		 pop	 ebx
  00151	8b 4d f0	 mov	 ecx, DWORD PTR __$ArrayPad$[ebp]
  00154	33 cd		 xor	 ecx, ebp
  00156	e8 00 00 00 00	 call	 @__security_check_cookie@4
  0015b	c9		 leave
  0015c	c2 08 00	 ret	 8
_TEXT	ENDS
;	COMDAT text$x
text$x	SEGMENT
__unwindfunclet$?IsCollision@ioPullWeapon2@@UAE_NPAVioPlayEntity@@_N@Z$0:
  00000	8d 8d cc 7f ff
	ff		 lea	 ecx, DWORD PTR _kPacket$568997[ebp]
  00006	e9 00 00 00 00	 jmp	 ??1SP2Packet@@UAE@XZ	; SP2Packet::~SP2Packet
__ehhandler$?IsCollision@ioPullWeapon2@@UAE_NPAVioPlayEntity@@_N@Z:
  0000b	8b 54 24 08	 mov	 edx, DWORD PTR [esp+8]
  0000f	8d 42 0c	 lea	 eax, DWORD PTR [edx+12]
  00012	8b 8a bc 7f ff
	ff		 mov	 ecx, DWORD PTR [edx-32836]
  00018	33 c8		 xor	 ecx, eax
  0001a	e8 00 00 00 00	 call	 @__security_check_cookie@4
  0001f	8b 4a fc	 mov	 ecx, DWORD PTR [edx-4]
  00022	33 c8		 xor	 ecx, eax
  00024	e8 00 00 00 00	 call	 @__security_check_cookie@4
  00029	b8 00 00 00 00	 mov	 eax, OFFSET __ehfuncinfo$?IsCollision@ioPullWeapon2@@UAE_NPAVioPlayEntity@@_N@Z
  0002e	e9 00 00 00 00	 jmp	 ___CxxFrameHandler3
text$x	ENDS
?IsCollision@ioPullWeapon2@@UAE_NPAVioPlayEntity@@_N@Z ENDP ; ioPullWeapon2::IsCollision
PUBLIC	?ApplyWeaponSync@ioPullWeapon2@@UAEXAAVSP2Packet@@PAVioPlayStage@@@Z ; ioPullWeapon2::ApplyWeaponSync
; Function compile flags: /Ogsp
;	COMDAT ?ApplyWeaponSync@ioPullWeapon2@@UAEXAAVSP2Packet@@PAVioPlayStage@@@Z
_TEXT	SEGMENT
_rkPacket$ = 8						; size = 4
_pStage$ = 12						; size = 4
?ApplyWeaponSync@ioPullWeapon2@@UAEXAAVSP2Packet@@PAVioPlayStage@@@Z PROC ; ioPullWeapon2::ApplyWeaponSync, COMDAT
; _this$ = ecx

; 520  : 	SetPullingState();

  00000	e8 00 00 00 00	 call	 ?SetPullingState@ioPullWeapon2@@QAEXXZ ; ioPullWeapon2::SetPullingState

; 521  : }

  00005	c2 08 00	 ret	 8
?ApplyWeaponSync@ioPullWeapon2@@UAEXAAVSP2Packet@@PAVioPlayStage@@@Z ENDP ; ioPullWeapon2::ApplyWeaponSync
_TEXT	ENDS
PUBLIC	??9?$_Vector_const_iterator@V?$_Vector_val@PAVioBaseChar@@V?$allocator@PAVioBaseChar@@@std@@@std@@@std@@QBE_NABV01@@Z ; std::_Vector_const_iterator<std::_Vector_val<ioBaseChar *,std::allocator<ioBaseChar *> > >::operator!=
; Function compile flags: /Ogsp
; File c:\program files (x86)\microsoft visual studio 10.0\vc\include\vector
;	COMDAT ??9?$_Vector_const_iterator@V?$_Vector_val@PAVioBaseChar@@V?$allocator@PAVioBaseChar@@@std@@@std@@@std@@QBE_NABV01@@Z
_TEXT	SEGMENT
__Right$ = 8						; size = 4
??9?$_Vector_const_iterator@V?$_Vector_val@PAVioBaseChar@@V?$allocator@PAVioBaseChar@@@std@@@std@@@std@@QBE_NABV01@@Z PROC ; std::_Vector_const_iterator<std::_Vector_val<ioBaseChar *,std::allocator<ioBaseChar *> > >::operator!=, COMDAT
; _this$ = ecx

; 207  : 		{	// test for iterator inequality

  00000	55		 push	 ebp
  00001	8b ec		 mov	 ebp, esp

; 208  : 		return (!(*this == _Right));

  00003	8b 01		 mov	 eax, DWORD PTR [ecx]
  00005	8b 55 08	 mov	 edx, DWORD PTR __Right$[ebp]
  00008	33 c9		 xor	 ecx, ecx
  0000a	3b 02		 cmp	 eax, DWORD PTR [edx]
  0000c	0f 95 c0	 setne	 al

; 209  : 		}

  0000f	5d		 pop	 ebp
  00010	c2 04 00	 ret	 4
??9?$_Vector_const_iterator@V?$_Vector_val@PAVioBaseChar@@V?$allocator@PAVioBaseChar@@@std@@@std@@@std@@QBE_NABV01@@Z ENDP ; std::_Vector_const_iterator<std::_Vector_val<ioBaseChar *,std::allocator<ioBaseChar *> > >::operator!=
_TEXT	ENDS
PUBLIC	?_Grow_to@?$vector@VioHashString@@V?$allocator@VioHashString@@@std@@@std@@IBEII@Z ; std::vector<ioHashString,std::allocator<ioHashString> >::_Grow_to
; Function compile flags: /Ogsp
;	COMDAT ?_Grow_to@?$vector@VioHashString@@V?$allocator@VioHashString@@@std@@@std@@IBEII@Z
_TEXT	SEGMENT
__Count$ = 8						; size = 4
?_Grow_to@?$vector@VioHashString@@V?$allocator@VioHashString@@@std@@@std@@IBEII@Z PROC ; std::vector<ioHashString,std::allocator<ioHashString> >::_Grow_to, COMDAT
; _this$ = ecx

; 1274 : 		{	// grow by 50% or at least to _Count

  00000	55		 push	 ebp
  00001	8b ec		 mov	 ebp, esp

; 1275 : 		size_type _Capacity = capacity();

  00003	8b 41 08	 mov	 eax, DWORD PTR [ecx+8]
  00006	2b 01		 sub	 eax, DWORD PTR [ecx]

; 1276 : 
; 1277 : 		_Capacity = max_size() - _Capacity / 2 < _Capacity
; 1278 : 			? 0 : _Capacity + _Capacity / 2;	// try to grow by 50%

  00008	ba ff ff ff 0f	 mov	 edx, 268435455		; 0fffffffH
  0000d	c1 f8 04	 sar	 eax, 4
  00010	8b c8		 mov	 ecx, eax
  00012	d1 e9		 shr	 ecx, 1
  00014	2b d1		 sub	 edx, ecx
  00016	3b d0		 cmp	 edx, eax
  00018	73 04		 jae	 SHORT $LN4@Grow_to
  0001a	33 c0		 xor	 eax, eax
  0001c	eb 02		 jmp	 SHORT $LN5@Grow_to
$LN4@Grow_to:
  0001e	03 c1		 add	 eax, ecx
$LN5@Grow_to:

; 1279 : 		if (_Capacity < _Count)

  00020	3b 45 08	 cmp	 eax, DWORD PTR __Count$[ebp]

; 1280 : 			_Capacity = _Count;

  00023	0f 42 45 08	 cmovb	 eax, DWORD PTR __Count$[ebp]

; 1281 : 		return (_Capacity);
; 1282 : 		}

  00027	5d		 pop	 ebp
  00028	c2 04 00	 ret	 4
?_Grow_to@?$vector@VioHashString@@V?$allocator@VioHashString@@@std@@@std@@IBEII@Z ENDP ; std::vector<ioHashString,std::allocator<ioHashString> >::_Grow_to
_TEXT	ENDS
PUBLIC	?_Grow_to@?$vector@UWeaponInfo@@V?$allocator@UWeaponInfo@@@std@@@std@@IBEII@Z ; std::vector<WeaponInfo,std::allocator<WeaponInfo> >::_Grow_to
; Function compile flags: /Ogsp
;	COMDAT ?_Grow_to@?$vector@UWeaponInfo@@V?$allocator@UWeaponInfo@@@std@@@std@@IBEII@Z
_TEXT	SEGMENT
__Count$ = 8						; size = 4
?_Grow_to@?$vector@UWeaponInfo@@V?$allocator@UWeaponInfo@@@std@@@std@@IBEII@Z PROC ; std::vector<WeaponInfo,std::allocator<WeaponInfo> >::_Grow_to, COMDAT
; _this$ = ecx

; 1274 : 		{	// grow by 50% or at least to _Count

  00000	55		 push	 ebp
  00001	8b ec		 mov	 ebp, esp

; 1275 : 		size_type _Capacity = capacity();

  00003	8b 41 08	 mov	 eax, DWORD PTR [ecx+8]
  00006	2b 01		 sub	 eax, DWORD PTR [ecx]
  00008	6a 28		 push	 40			; 00000028H
  0000a	99		 cdq
  0000b	59		 pop	 ecx
  0000c	f7 f9		 idiv	 ecx

; 1276 : 
; 1277 : 		_Capacity = max_size() - _Capacity / 2 < _Capacity
; 1278 : 			? 0 : _Capacity + _Capacity / 2;	// try to grow by 50%

  0000e	ba 66 66 66 06	 mov	 edx, 107374182		; 06666666H
  00013	8b c8		 mov	 ecx, eax
  00015	d1 e9		 shr	 ecx, 1
  00017	2b d1		 sub	 edx, ecx
  00019	3b d0		 cmp	 edx, eax
  0001b	73 04		 jae	 SHORT $LN4@Grow_to@2
  0001d	33 c0		 xor	 eax, eax
  0001f	eb 02		 jmp	 SHORT $LN5@Grow_to@2
$LN4@Grow_to@2:
  00021	03 c1		 add	 eax, ecx
$LN5@Grow_to@2:

; 1279 : 		if (_Capacity < _Count)

  00023	3b 45 08	 cmp	 eax, DWORD PTR __Count$[ebp]

; 1280 : 			_Capacity = _Count;

  00026	0f 42 45 08	 cmovb	 eax, DWORD PTR __Count$[ebp]

; 1281 : 		return (_Capacity);
; 1282 : 		}

  0002a	5d		 pop	 ebp
  0002b	c2 04 00	 ret	 4
?_Grow_to@?$vector@UWeaponInfo@@V?$allocator@UWeaponInfo@@@std@@@std@@IBEII@Z ENDP ; std::vector<WeaponInfo,std::allocator<WeaponInfo> >::_Grow_to
_TEXT	ENDS
PUBLIC	??$_Cons_val@V?$allocator@VioHashString@@@std@@VioHashString@@AAV3@@std@@YAXAAV?$allocator@VioHashString@@@0@PAVioHashString@@AAV2@@Z ; std::_Cons_val<std::allocator<ioHashString>,ioHashString,ioHashString &>
; Function compile flags: /Ogsp
; File c:\program files (x86)\microsoft visual studio 10.0\vc\include\xmemory
;	COMDAT ??$_Cons_val@V?$allocator@VioHashString@@@std@@VioHashString@@AAV3@@std@@YAXAAV?$allocator@VioHashString@@@0@PAVioHashString@@AAV2@@Z
_TEXT	SEGMENT
__Alval$ = 8						; size = 4
__Pdest$ = 12						; size = 4
__Src$ = 16						; size = 4
??$_Cons_val@V?$allocator@VioHashString@@@std@@VioHashString@@AAV3@@std@@YAXAAV?$allocator@VioHashString@@@0@PAVioHashString@@AAV2@@Z PROC ; std::_Cons_val<std::allocator<ioHashString>,ioHashString,ioHashString &>, COMDAT

; 279  : 	{	// construct using allocator

  00000	55		 push	 ebp
  00001	8b ec		 mov	 ebp, esp

; 280  : 	_Alval.construct(_Pdest, _STD forward<_Ty2>(_Src));

  00003	ff 75 10	 push	 DWORD PTR __Src$[ebp]
  00006	8b 4d 08	 mov	 ecx, DWORD PTR __Alval$[ebp]
  00009	ff 75 0c	 push	 DWORD PTR __Pdest$[ebp]
  0000c	e8 00 00 00 00	 call	 ??$construct@AAVioHashString@@@?$allocator@VioHashString@@@std@@QAEXPAVioHashString@@AAV2@@Z ; std::allocator<ioHashString>::construct<ioHashString &>

; 281  : 	}

  00011	5d		 pop	 ebp
  00012	c3		 ret	 0
??$_Cons_val@V?$allocator@VioHashString@@@std@@VioHashString@@AAV3@@std@@YAXAAV?$allocator@VioHashString@@@0@PAVioHashString@@AAV2@@Z ENDP ; std::_Cons_val<std::allocator<ioHashString>,ioHashString,ioHashString &>
_TEXT	ENDS
PUBLIC	?construct@?$allocator@UWeaponInfo@@@std@@QAEXPAUWeaponInfo@@ABU3@@Z ; std::allocator<WeaponInfo>::construct
; Function compile flags: /Ogsp
;	COMDAT ?construct@?$allocator@UWeaponInfo@@@std@@QAEXPAUWeaponInfo@@ABU3@@Z
_TEXT	SEGMENT
__Ptr$ = 8						; size = 4
__Val$ = 12						; size = 4
?construct@?$allocator@UWeaponInfo@@@std@@QAEXPAUWeaponInfo@@ABU3@@Z PROC ; std::allocator<WeaponInfo>::construct, COMDAT
; _this$ = ecx

; 196  : 		{	// construct object at _Ptr with value _Val

  00000	55		 push	 ebp
  00001	8b ec		 mov	 ebp, esp

; 197  : 		_Construct(_Ptr, _Val);

  00003	ff 75 0c	 push	 DWORD PTR __Val$[ebp]
  00006	ff 75 08	 push	 DWORD PTR __Ptr$[ebp]
  00009	e8 00 00 00 00	 call	 ??$_Construct@UWeaponInfo@@ABU1@@std@@YAXPAUWeaponInfo@@ABU1@@Z ; std::_Construct<WeaponInfo,WeaponInfo const &>
  0000e	59		 pop	 ecx
  0000f	59		 pop	 ecx

; 198  : 		}

  00010	5d		 pop	 ebp
  00011	c2 08 00	 ret	 8
?construct@?$allocator@UWeaponInfo@@@std@@QAEXPAUWeaponInfo@@ABU3@@Z ENDP ; std::allocator<WeaponInfo>::construct
_TEXT	ENDS
PUBLIC	??$_Cons_val@V?$allocator@UWeaponInfo@@@std@@UWeaponInfo@@U3@@std@@YAXAAV?$allocator@UWeaponInfo@@@0@PAUWeaponInfo@@$$QAU2@@Z ; std::_Cons_val<std::allocator<WeaponInfo>,WeaponInfo,WeaponInfo>
;	COMDAT xdata$x
; File c:\program files (x86)\microsoft visual studio 10.0\vc\include\utility
xdata$x	SEGMENT
__unwindtable$??$_Cons_val@V?$allocator@UWeaponInfo@@@std@@UWeaponInfo@@U3@@std@@YAXAAV?$allocator@UWeaponInfo@@@0@PAUWeaponInfo@@$$QAU2@@Z DD 0ffffffffH
	DD	FLAT:__unwindfunclet$??$_Cons_val@V?$allocator@UWeaponInfo@@@std@@UWeaponInfo@@U3@@std@@YAXAAV?$allocator@UWeaponInfo@@@0@PAUWeaponInfo@@$$QAU2@@Z$0
__ehfuncinfo$??$_Cons_val@V?$allocator@UWeaponInfo@@@std@@UWeaponInfo@@U3@@std@@YAXAAV?$allocator@UWeaponInfo@@@0@PAUWeaponInfo@@$$QAU2@@Z DD 019930522H
	DD	01H
	DD	FLAT:__unwindtable$??$_Cons_val@V?$allocator@UWeaponInfo@@@std@@UWeaponInfo@@U3@@std@@YAXAAV?$allocator@UWeaponInfo@@@0@PAUWeaponInfo@@$$QAU2@@Z
	DD	2 DUP(00H)
	DD	2 DUP(00H)
	DD	00H
	DD	01H
; Function compile flags: /Ogsp
; File c:\program files (x86)\microsoft visual studio 10.0\vc\include\xmemory
xdata$x	ENDS
;	COMDAT ??$_Cons_val@V?$allocator@UWeaponInfo@@@std@@UWeaponInfo@@U3@@std@@YAXAAV?$allocator@UWeaponInfo@@@0@PAUWeaponInfo@@$$QAU2@@Z
_TEXT	SEGMENT
$T573909 = -16						; size = 4
__$EHRec$ = -12						; size = 12
__Alval$ = 8						; size = 4
__Pdest$ = 12						; size = 4
__Src$ = 16						; size = 4
??$_Cons_val@V?$allocator@UWeaponInfo@@@std@@UWeaponInfo@@U3@@std@@YAXAAV?$allocator@UWeaponInfo@@@0@PAUWeaponInfo@@$$QAU2@@Z PROC ; std::_Cons_val<std::allocator<WeaponInfo>,WeaponInfo,WeaponInfo>, COMDAT

; 279  : 	{	// construct using allocator

  00000	6a 04		 push	 4
  00002	b8 00 00 00 00	 mov	 eax, __ehhandler$??$_Cons_val@V?$allocator@UWeaponInfo@@@std@@UWeaponInfo@@U3@@std@@YAXAAV?$allocator@UWeaponInfo@@@0@PAUWeaponInfo@@$$QAU2@@Z
  00007	e8 00 00 00 00	 call	 __EH_prolog3

; 280  : 	_Alval.construct(_Pdest, _STD forward<_Ty2>(_Src));

  0000c	8b 4d 0c	 mov	 ecx, DWORD PTR __Pdest$[ebp]
  0000f	89 4d f0	 mov	 DWORD PTR $T573909[ebp], ecx
  00012	83 65 fc 00	 and	 DWORD PTR __$EHRec$[ebp+8], 0
  00016	85 c9		 test	 ecx, ecx
  00018	74 08		 je	 SHORT $LN7@Cons_val
  0001a	ff 75 10	 push	 DWORD PTR __Src$[ebp]
  0001d	e8 00 00 00 00	 call	 ??0WeaponInfo@@QAE@ABU0@@Z
$LN7@Cons_val:

; 281  : 	}

  00022	e8 00 00 00 00	 call	 __EH_epilog3
  00027	c3		 ret	 0
_TEXT	ENDS
;	COMDAT text$x
text$x	SEGMENT
__unwindfunclet$??$_Cons_val@V?$allocator@UWeaponInfo@@@std@@UWeaponInfo@@U3@@std@@YAXAAV?$allocator@UWeaponInfo@@@0@PAUWeaponInfo@@$$QAU2@@Z$0:
  00000	ff 75 0c	 push	 DWORD PTR __Pdest$[ebp]
  00003	ff 75 f0	 push	 DWORD PTR $T573909[ebp]
  00006	e8 00 00 00 00	 call	 ??3@YAXPAX0@Z		; operator delete
  0000b	59		 pop	 ecx
  0000c	59		 pop	 ecx
  0000d	c3		 ret	 0
__ehhandler$??$_Cons_val@V?$allocator@UWeaponInfo@@@std@@UWeaponInfo@@U3@@std@@YAXAAV?$allocator@UWeaponInfo@@@0@PAUWeaponInfo@@$$QAU2@@Z:
  0000e	8b 54 24 08	 mov	 edx, DWORD PTR [esp+8]
  00012	8d 42 0c	 lea	 eax, DWORD PTR [edx+12]
  00015	8b 4a ec	 mov	 ecx, DWORD PTR [edx-20]
  00018	33 c8		 xor	 ecx, eax
  0001a	e8 00 00 00 00	 call	 @__security_check_cookie@4
  0001f	b8 00 00 00 00	 mov	 eax, OFFSET __ehfuncinfo$??$_Cons_val@V?$allocator@UWeaponInfo@@@std@@UWeaponInfo@@U3@@std@@YAXAAV?$allocator@UWeaponInfo@@@0@PAUWeaponInfo@@$$QAU2@@Z
  00024	e9 00 00 00 00	 jmp	 ___CxxFrameHandler3
text$x	ENDS
??$_Cons_val@V?$allocator@UWeaponInfo@@@std@@UWeaponInfo@@U3@@std@@YAXAAV?$allocator@UWeaponInfo@@@0@PAUWeaponInfo@@$$QAU2@@Z ENDP ; std::_Cons_val<std::allocator<WeaponInfo>,WeaponInfo,WeaponInfo>
PUBLIC	??$_Cons_val@V?$allocator@VioHashString@@@std@@VioHashString@@V3@@std@@YAXAAV?$allocator@VioHashString@@@0@PAVioHashString@@$$QAV2@@Z ; std::_Cons_val<std::allocator<ioHashString>,ioHashString,ioHashString>
; Function compile flags: /Ogsp
;	COMDAT ??$_Cons_val@V?$allocator@VioHashString@@@std@@VioHashString@@V3@@std@@YAXAAV?$allocator@VioHashString@@@0@PAVioHashString@@$$QAV2@@Z
_TEXT	SEGMENT
__Alval$ = 8						; size = 4
__Pdest$ = 12						; size = 4
__Src$ = 16						; size = 4
??$_Cons_val@V?$allocator@VioHashString@@@std@@VioHashString@@V3@@std@@YAXAAV?$allocator@VioHashString@@@0@PAVioHashString@@$$QAV2@@Z PROC ; std::_Cons_val<std::allocator<ioHashString>,ioHashString,ioHashString>, COMDAT

; 279  : 	{	// construct using allocator

  00000	55		 push	 ebp
  00001	8b ec		 mov	 ebp, esp

; 280  : 	_Alval.construct(_Pdest, _STD forward<_Ty2>(_Src));

  00003	ff 75 10	 push	 DWORD PTR __Src$[ebp]
  00006	8b 4d 08	 mov	 ecx, DWORD PTR __Alval$[ebp]
  00009	ff 75 0c	 push	 DWORD PTR __Pdest$[ebp]
  0000c	e8 00 00 00 00	 call	 ?construct@?$allocator@VioHashString@@@std@@QAEXPAVioHashString@@$$QAV3@@Z ; std::allocator<ioHashString>::construct

; 281  : 	}

  00011	5d		 pop	 ebp
  00012	c3		 ret	 0
??$_Cons_val@V?$allocator@VioHashString@@@std@@VioHashString@@V3@@std@@YAXAAV?$allocator@VioHashString@@@0@PAVioHashString@@$$QAV2@@Z ENDP ; std::_Cons_val<std::allocator<ioHashString>,ioHashString,ioHashString>
_TEXT	ENDS
PUBLIC	?GetTeam@ioPlayEntity@@QBE?AW4TeamType@@XZ	; ioPlayEntity::GetTeam
; Function compile flags: /Ogsp
; File d:\lost saga for developer\youtube\tutorial\source\src\lsclient\ioplayentity.h
;	COMDAT ?GetTeam@ioPlayEntity@@QBE?AW4TeamType@@XZ
_TEXT	SEGMENT
_value$573933 = -4					; size = 4
?GetTeam@ioPlayEntity@@QBE?AW4TeamType@@XZ PROC		; ioPlayEntity::GetTeam, COMDAT
; _this$ = ecx

; 107  : 	inline TeamType GetTeam() const { return m_TeamType; }

  00000	55		 push	 ebp
  00001	8b ec		 mov	 ebp, esp
  00003	51		 push	 ecx
  00004	8d 45 fc	 lea	 eax, DWORD PTR _value$573933[ebp]
  00007	50		 push	 eax
  00008	81 c1 90 00 00
	00		 add	 ecx, 144		; 00000090H
  0000e	e8 00 00 00 00	 call	 ?DecryptValueToPool@?$CEncrypt@W4TeamType@@@@QAEXPAW4TeamType@@@Z ; CEncrypt<enum TeamType>::DecryptValueToPool
  00013	8b 45 fc	 mov	 eax, DWORD PTR _value$573933[ebp]
  00016	c9		 leave
  00017	c3		 ret	 0
?GetTeam@ioPlayEntity@@QBE?AW4TeamType@@XZ ENDP		; ioPlayEntity::GetTeam
_TEXT	ENDS
PUBLIC	?GetModeType@ioPlayMode@@SA?AW4ModeType@@XZ	; ioPlayMode::GetModeType
EXTRN	?m_ModeType@ioPlayMode@@1V?$CEncrypt@W4ModeType@@@@A:BYTE ; ioPlayMode::m_ModeType
; Function compile flags: /Ogsp
; File d:\lost saga for developer\youtube\tutorial\source\src\lsclient\ioplaymode.h
;	COMDAT ?GetModeType@ioPlayMode@@SA?AW4ModeType@@XZ
_TEXT	SEGMENT
?GetModeType@ioPlayMode@@SA?AW4ModeType@@XZ PROC	; ioPlayMode::GetModeType, COMDAT

; 782  : 	static ModeType GetModeType() { return m_ModeType; }

  00000	6a 04		 push	 4
  00002	68 28 00 00 00	 push	 OFFSET ?m_ModeType@ioPlayMode@@1V?$CEncrypt@W4ModeType@@@@A+40
  00007	68 1c 00 00 00	 push	 OFFSET ?m_ModeType@ioPlayMode@@1V?$CEncrypt@W4ModeType@@@@A+28
  0000c	b9 0c 00 00 00	 mov	 ecx, OFFSET ?m_ModeType@ioPlayMode@@1V?$CEncrypt@W4ModeType@@@@A+12
  00011	e8 00 00 00 00	 call	 ?DecryptByte@ccddaabb@@QBEXPBDPADH@Z ; ccddaabb::DecryptByte
  00016	a1 28 00 00 00	 mov	 eax, DWORD PTR ?m_ModeType@ioPlayMode@@1V?$CEncrypt@W4ModeType@@@@A+40
  0001b	c3		 ret	 0
?GetModeType@ioPlayMode@@SA?AW4ModeType@@XZ ENDP	; ioPlayMode::GetModeType
_TEXT	ENDS
PUBLIC	??0?$vector@VioHashString@@V?$allocator@VioHashString@@@std@@@std@@QAE@XZ ; std::vector<ioHashString,std::allocator<ioHashString> >::vector<ioHashString,std::allocator<ioHashString> >
; Function compile flags: /Ogsp
; File c:\program files (x86)\microsoft visual studio 10.0\vc\include\vector
;	COMDAT ??0?$vector@VioHashString@@V?$allocator@VioHashString@@@std@@@std@@QAE@XZ
_TEXT	SEGMENT
??0?$vector@VioHashString@@V?$allocator@VioHashString@@@std@@@std@@QAE@XZ PROC ; std::vector<ioHashString,std::allocator<ioHashString> >::vector<ioHashString,std::allocator<ioHashString> >, COMDAT
; _this$ = ecx

; 507  : 		{	// construct empty vector

  00000	8b c1		 mov	 eax, ecx
  00002	33 c9		 xor	 ecx, ecx
  00004	89 08		 mov	 DWORD PTR [eax], ecx
  00006	89 48 04	 mov	 DWORD PTR [eax+4], ecx
  00009	89 48 08	 mov	 DWORD PTR [eax+8], ecx

; 508  : 		}

  0000c	c3		 ret	 0
??0?$vector@VioHashString@@V?$allocator@VioHashString@@@std@@@std@@QAE@XZ ENDP ; std::vector<ioHashString,std::allocator<ioHashString> >::vector<ioHashString,std::allocator<ioHashString> >
_TEXT	ENDS
PUBLIC	??0?$vector@UWeaponInfo@@V?$allocator@UWeaponInfo@@@std@@@std@@QAE@XZ ; std::vector<WeaponInfo,std::allocator<WeaponInfo> >::vector<WeaponInfo,std::allocator<WeaponInfo> >
; Function compile flags: /Ogsp
;	COMDAT ??0?$vector@UWeaponInfo@@V?$allocator@UWeaponInfo@@@std@@@std@@QAE@XZ
_TEXT	SEGMENT
??0?$vector@UWeaponInfo@@V?$allocator@UWeaponInfo@@@std@@@std@@QAE@XZ PROC ; std::vector<WeaponInfo,std::allocator<WeaponInfo> >::vector<WeaponInfo,std::allocator<WeaponInfo> >, COMDAT
; _this$ = ecx

; 507  : 		{	// construct empty vector

  00000	8b c1		 mov	 eax, ecx
  00002	33 c9		 xor	 ecx, ecx
  00004	89 08		 mov	 DWORD PTR [eax], ecx
  00006	89 48 04	 mov	 DWORD PTR [eax+4], ecx
  00009	89 48 08	 mov	 DWORD PTR [eax+8], ecx

; 508  : 		}

  0000c	c3		 ret	 0
??0?$vector@UWeaponInfo@@V?$allocator@UWeaponInfo@@@std@@@std@@QAE@XZ ENDP ; std::vector<WeaponInfo,std::allocator<WeaponInfo> >::vector<WeaponInfo,std::allocator<WeaponInfo> >
_TEXT	ENDS
PUBLIC	??9?$_Vector_const_iterator@V?$_Vector_val@VioHashString@@V?$allocator@VioHashString@@@std@@@std@@@std@@QBE_NABV01@@Z ; std::_Vector_const_iterator<std::_Vector_val<ioHashString,std::allocator<ioHashString> > >::operator!=
; Function compile flags: /Ogsp
;	COMDAT ??9?$_Vector_const_iterator@V?$_Vector_val@VioHashString@@V?$allocator@VioHashString@@@std@@@std@@@std@@QBE_NABV01@@Z
_TEXT	SEGMENT
__Right$ = 8						; size = 4
??9?$_Vector_const_iterator@V?$_Vector_val@VioHashString@@V?$allocator@VioHashString@@@std@@@std@@@std@@QBE_NABV01@@Z PROC ; std::_Vector_const_iterator<std::_Vector_val<ioHashString,std::allocator<ioHashString> > >::operator!=, COMDAT
; _this$ = ecx

; 207  : 		{	// test for iterator inequality

  00000	55		 push	 ebp
  00001	8b ec		 mov	 ebp, esp

; 208  : 		return (!(*this == _Right));

  00003	8b 01		 mov	 eax, DWORD PTR [ecx]
  00005	8b 55 08	 mov	 edx, DWORD PTR __Right$[ebp]
  00008	33 c9		 xor	 ecx, ecx
  0000a	3b 02		 cmp	 eax, DWORD PTR [edx]
  0000c	0f 95 c0	 setne	 al

; 209  : 		}

  0000f	5d		 pop	 ebp
  00010	c2 04 00	 ret	 4
??9?$_Vector_const_iterator@V?$_Vector_val@VioHashString@@V?$allocator@VioHashString@@@std@@@std@@@std@@QBE_NABV01@@Z ENDP ; std::_Vector_const_iterator<std::_Vector_val<ioHashString,std::allocator<ioHashString> > >::operator!=
_TEXT	ENDS
PUBLIC	??$_Move@PAVioHashString@@PAV1@@std@@YAPAVioHashString@@PAV1@00@Z ; std::_Move<ioHashString *,ioHashString *>
; Function compile flags: /Ogsp
; File c:\program files (x86)\microsoft visual studio 10.0\vc\include\xutility
;	COMDAT ??$_Move@PAVioHashString@@PAV1@@std@@YAPAVioHashString@@PAV1@00@Z
_TEXT	SEGMENT
__Cat$573996 = -4					; size = 1
__First$ = 8						; size = 4
__Last$ = 12						; size = 4
__Dest$ = 16						; size = 4
??$_Move@PAVioHashString@@PAV1@@std@@YAPAVioHashString@@PAV1@00@Z PROC ; std::_Move<ioHashString *,ioHashString *>, COMDAT

; 2533 : 	{	// move [_First, _Last) to [_Dest, ...), unchecked

  00000	55		 push	 ebp
  00001	8b ec		 mov	 ebp, esp
  00003	51		 push	 ecx

; 2534 : 	return (_Move(_First, _Last,
; 2535 : 		_Dest, _Ptr_cat(_First, _Dest)));

  00004	ff 75 fc	 push	 DWORD PTR __Cat$573996[ebp]
  00007	ff 75 10	 push	 DWORD PTR __Dest$[ebp]
  0000a	ff 75 0c	 push	 DWORD PTR __Last$[ebp]
  0000d	ff 75 08	 push	 DWORD PTR __First$[ebp]
  00010	e8 00 00 00 00	 call	 ??$_Move@PAVioHashString@@PAV1@@std@@YAPAVioHashString@@PAV1@00U_Nonscalar_ptr_iterator_tag@0@@Z ; std::_Move<ioHashString *,ioHashString *>
  00015	83 c4 10	 add	 esp, 16			; 00000010H

; 2536 : 	}

  00018	c9		 leave
  00019	c3		 ret	 0
??$_Move@PAVioHashString@@PAV1@@std@@YAPAVioHashString@@PAV1@00@Z ENDP ; std::_Move<ioHashString *,ioHashString *>
_TEXT	ENDS
PUBLIC	?begin@?$vector@UWeaponInfo@@V?$allocator@UWeaponInfo@@@std@@@std@@QAE?AV?$_Vector_iterator@V?$_Vector_val@UWeaponInfo@@V?$allocator@UWeaponInfo@@@std@@@std@@@2@XZ ; std::vector<WeaponInfo,std::allocator<WeaponInfo> >::begin
; Function compile flags: /Ogsp
; File c:\program files (x86)\microsoft visual studio 10.0\vc\include\vector
;	COMDAT ?begin@?$vector@UWeaponInfo@@V?$allocator@UWeaponInfo@@@std@@@std@@QAE?AV?$_Vector_iterator@V?$_Vector_val@UWeaponInfo@@V?$allocator@UWeaponInfo@@@std@@@std@@@2@XZ
_TEXT	SEGMENT
___$ReturnUdt$ = 8					; size = 4
?begin@?$vector@UWeaponInfo@@V?$allocator@UWeaponInfo@@@std@@@std@@QAE?AV?$_Vector_iterator@V?$_Vector_val@UWeaponInfo@@V?$allocator@UWeaponInfo@@@std@@@std@@@2@XZ PROC ; std::vector<WeaponInfo,std::allocator<WeaponInfo> >::begin, COMDAT
; _this$ = ecx

; 781  : 		{	// return iterator for beginning of mutable sequence

  00000	55		 push	 ebp
  00001	8b ec		 mov	 ebp, esp

; 782  : 		return (iterator(this->_Myfirst, this));

  00003	8b 09		 mov	 ecx, DWORD PTR [ecx]
  00005	8b 45 08	 mov	 eax, DWORD PTR ___$ReturnUdt$[ebp]
  00008	89 08		 mov	 DWORD PTR [eax], ecx

; 783  : 		}

  0000a	5d		 pop	 ebp
  0000b	c2 04 00	 ret	 4
?begin@?$vector@UWeaponInfo@@V?$allocator@UWeaponInfo@@@std@@@std@@QAE?AV?$_Vector_iterator@V?$_Vector_val@UWeaponInfo@@V?$allocator@UWeaponInfo@@@std@@@std@@@2@XZ ENDP ; std::vector<WeaponInfo,std::allocator<WeaponInfo> >::begin
_TEXT	ENDS
PUBLIC	?end@?$vector@UWeaponInfo@@V?$allocator@UWeaponInfo@@@std@@@std@@QAE?AV?$_Vector_iterator@V?$_Vector_val@UWeaponInfo@@V?$allocator@UWeaponInfo@@@std@@@std@@@2@XZ ; std::vector<WeaponInfo,std::allocator<WeaponInfo> >::end
; Function compile flags: /Ogsp
;	COMDAT ?end@?$vector@UWeaponInfo@@V?$allocator@UWeaponInfo@@@std@@@std@@QAE?AV?$_Vector_iterator@V?$_Vector_val@UWeaponInfo@@V?$allocator@UWeaponInfo@@@std@@@std@@@2@XZ
_TEXT	SEGMENT
___$ReturnUdt$ = 8					; size = 4
?end@?$vector@UWeaponInfo@@V?$allocator@UWeaponInfo@@@std@@@std@@QAE?AV?$_Vector_iterator@V?$_Vector_val@UWeaponInfo@@V?$allocator@UWeaponInfo@@@std@@@std@@@2@XZ PROC ; std::vector<WeaponInfo,std::allocator<WeaponInfo> >::end, COMDAT
; _this$ = ecx

; 791  : 		{	// return iterator for end of mutable sequence

  00000	55		 push	 ebp
  00001	8b ec		 mov	 ebp, esp

; 792  : 		return (iterator(this->_Mylast, this));

  00003	8b 49 04	 mov	 ecx, DWORD PTR [ecx+4]
  00006	8b 45 08	 mov	 eax, DWORD PTR ___$ReturnUdt$[ebp]
  00009	89 08		 mov	 DWORD PTR [eax], ecx

; 793  : 		}

  0000b	5d		 pop	 ebp
  0000c	c2 04 00	 ret	 4
?end@?$vector@UWeaponInfo@@V?$allocator@UWeaponInfo@@@std@@@std@@QAE?AV?$_Vector_iterator@V?$_Vector_val@UWeaponInfo@@V?$allocator@UWeaponInfo@@@std@@@std@@@2@XZ ENDP ; std::vector<WeaponInfo,std::allocator<WeaponInfo> >::end
_TEXT	ENDS
PUBLIC	?_Make_iter@?$vector@UWeaponInfo@@V?$allocator@UWeaponInfo@@@std@@@std@@QBE?AV?$_Vector_iterator@V?$_Vector_val@UWeaponInfo@@V?$allocator@UWeaponInfo@@@std@@@std@@@2@V?$_Vector_const_iterator@V?$_Vector_val@UWeaponInfo@@V?$allocator@UWeaponInfo@@@std@@@std@@@2@@Z ; std::vector<WeaponInfo,std::allocator<WeaponInfo> >::_Make_iter
; Function compile flags: /Ogsp
;	COMDAT ?_Make_iter@?$vector@UWeaponInfo@@V?$allocator@UWeaponInfo@@@std@@@std@@QBE?AV?$_Vector_iterator@V?$_Vector_val@UWeaponInfo@@V?$allocator@UWeaponInfo@@@std@@@std@@@2@V?$_Vector_const_iterator@V?$_Vector_val@UWeaponInfo@@V?$allocator@UWeaponInfo@@@std@@@std@@@2@@Z
_TEXT	SEGMENT
___$ReturnUdt$ = 8					; size = 4
__Where$ = 12						; size = 4
?_Make_iter@?$vector@UWeaponInfo@@V?$allocator@UWeaponInfo@@@std@@@std@@QBE?AV?$_Vector_iterator@V?$_Vector_val@UWeaponInfo@@V?$allocator@UWeaponInfo@@@std@@@std@@@2@V?$_Vector_const_iterator@V?$_Vector_val@UWeaponInfo@@V?$allocator@UWeaponInfo@@@std@@@std@@@2@@Z PROC ; std::vector<WeaponInfo,std::allocator<WeaponInfo> >::_Make_iter, COMDAT
; _this$ = ecx

; 801  : 		{	// make iterator from const_iterator

  00000	55		 push	 ebp
  00001	8b ec		 mov	 ebp, esp

; 802  : 		return (iterator(_Where._Ptr, this));

  00003	8b 45 08	 mov	 eax, DWORD PTR ___$ReturnUdt$[ebp]
  00006	8b 4d 0c	 mov	 ecx, DWORD PTR __Where$[ebp]
  00009	89 08		 mov	 DWORD PTR [eax], ecx

; 803  : 		}

  0000b	5d		 pop	 ebp
  0000c	c2 08 00	 ret	 8
?_Make_iter@?$vector@UWeaponInfo@@V?$allocator@UWeaponInfo@@@std@@@std@@QBE?AV?$_Vector_iterator@V?$_Vector_val@UWeaponInfo@@V?$allocator@UWeaponInfo@@@std@@@std@@@2@V?$_Vector_const_iterator@V?$_Vector_val@UWeaponInfo@@V?$allocator@UWeaponInfo@@@std@@@std@@@2@@Z ENDP ; std::vector<WeaponInfo,std::allocator<WeaponInfo> >::_Make_iter
_TEXT	ENDS
PUBLIC	??9?$_Vector_const_iterator@V?$_Vector_val@UWeaponInfo@@V?$allocator@UWeaponInfo@@@std@@@std@@@std@@QBE_NABV01@@Z ; std::_Vector_const_iterator<std::_Vector_val<WeaponInfo,std::allocator<WeaponInfo> > >::operator!=
; Function compile flags: /Ogsp
;	COMDAT ??9?$_Vector_const_iterator@V?$_Vector_val@UWeaponInfo@@V?$allocator@UWeaponInfo@@@std@@@std@@@std@@QBE_NABV01@@Z
_TEXT	SEGMENT
__Right$ = 8						; size = 4
??9?$_Vector_const_iterator@V?$_Vector_val@UWeaponInfo@@V?$allocator@UWeaponInfo@@@std@@@std@@@std@@QBE_NABV01@@Z PROC ; std::_Vector_const_iterator<std::_Vector_val<WeaponInfo,std::allocator<WeaponInfo> > >::operator!=, COMDAT
; _this$ = ecx

; 207  : 		{	// test for iterator inequality

  00000	55		 push	 ebp
  00001	8b ec		 mov	 ebp, esp

; 208  : 		return (!(*this == _Right));

  00003	8b 01		 mov	 eax, DWORD PTR [ecx]
  00005	8b 55 08	 mov	 edx, DWORD PTR __Right$[ebp]
  00008	33 c9		 xor	 ecx, ecx
  0000a	3b 02		 cmp	 eax, DWORD PTR [edx]
  0000c	0f 95 c0	 setne	 al

; 209  : 		}

  0000f	5d		 pop	 ebp
  00010	c2 04 00	 ret	 4
??9?$_Vector_const_iterator@V?$_Vector_val@UWeaponInfo@@V?$allocator@UWeaponInfo@@@std@@@std@@@std@@QBE_NABV01@@Z ENDP ; std::_Vector_const_iterator<std::_Vector_val<WeaponInfo,std::allocator<WeaponInfo> > >::operator!=
_TEXT	ENDS
PUBLIC	??$_Move@PAUWeaponInfo@@PAU1@@std@@YAPAUWeaponInfo@@PAU1@00@Z ; std::_Move<WeaponInfo *,WeaponInfo *>
; Function compile flags: /Ogsp
; File c:\program files (x86)\microsoft visual studio 10.0\vc\include\xutility
;	COMDAT ??$_Move@PAUWeaponInfo@@PAU1@@std@@YAPAUWeaponInfo@@PAU1@00@Z
_TEXT	SEGMENT
__Cat$574067 = -4					; size = 1
__First$ = 8						; size = 4
__Last$ = 12						; size = 4
__Dest$ = 16						; size = 4
??$_Move@PAUWeaponInfo@@PAU1@@std@@YAPAUWeaponInfo@@PAU1@00@Z PROC ; std::_Move<WeaponInfo *,WeaponInfo *>, COMDAT

; 2533 : 	{	// move [_First, _Last) to [_Dest, ...), unchecked

  00000	55		 push	 ebp
  00001	8b ec		 mov	 ebp, esp
  00003	51		 push	 ecx

; 2534 : 	return (_Move(_First, _Last,
; 2535 : 		_Dest, _Ptr_cat(_First, _Dest)));

  00004	ff 75 fc	 push	 DWORD PTR __Cat$574067[ebp]
  00007	ff 75 10	 push	 DWORD PTR __Dest$[ebp]
  0000a	ff 75 0c	 push	 DWORD PTR __Last$[ebp]
  0000d	ff 75 08	 push	 DWORD PTR __First$[ebp]
  00010	e8 00 00 00 00	 call	 ??$_Move@PAUWeaponInfo@@PAU1@@std@@YAPAUWeaponInfo@@PAU1@00U_Nonscalar_ptr_iterator_tag@0@@Z ; std::_Move<WeaponInfo *,WeaponInfo *>
  00015	83 c4 10	 add	 esp, 16			; 00000010H

; 2536 : 	}

  00018	c9		 leave
  00019	c3		 ret	 0
??$_Move@PAUWeaponInfo@@PAU1@@std@@YAPAUWeaponInfo@@PAU1@00@Z ENDP ; std::_Move<WeaponInfo *,WeaponInfo *>
_TEXT	ENDS
PUBLIC	?destroy@?$allocator@VioHashString@@@std@@QAEXPAVioHashString@@@Z ; std::allocator<ioHashString>::destroy
; Function compile flags: /Ogsp
; File c:\program files (x86)\microsoft visual studio 10.0\vc\include\xmemory
;	COMDAT ?destroy@?$allocator@VioHashString@@@std@@QAEXPAVioHashString@@@Z
_TEXT	SEGMENT
__Ptr$ = 8						; size = 4
?destroy@?$allocator@VioHashString@@@std@@QAEXPAVioHashString@@@Z PROC ; std::allocator<ioHashString>::destroy, COMDAT
; _this$ = ecx

; 212  : 		{	// destroy object at _Ptr

  00000	55		 push	 ebp
  00001	8b ec		 mov	 ebp, esp

; 213  : 		_Destroy(_Ptr);

  00003	8b 4d 08	 mov	 ecx, DWORD PTR __Ptr$[ebp]
  00006	ff 15 00 00 00
	00		 call	 DWORD PTR __imp_??1ioHashString@@QAE@XZ

; 214  : 		}

  0000c	5d		 pop	 ebp
  0000d	c2 04 00	 ret	 4
?destroy@?$allocator@VioHashString@@@std@@QAEXPAVioHashString@@@Z ENDP ; std::allocator<ioHashString>::destroy
_TEXT	ENDS
PUBLIC	?destroy@?$allocator@UWeaponInfo@@@std@@QAEXPAUWeaponInfo@@@Z ; std::allocator<WeaponInfo>::destroy
; Function compile flags: /Ogsp
;	COMDAT ?destroy@?$allocator@UWeaponInfo@@@std@@QAEXPAUWeaponInfo@@@Z
_TEXT	SEGMENT
__Ptr$ = 8						; size = 4
?destroy@?$allocator@UWeaponInfo@@@std@@QAEXPAUWeaponInfo@@@Z PROC ; std::allocator<WeaponInfo>::destroy, COMDAT
; _this$ = ecx

; 212  : 		{	// destroy object at _Ptr

  00000	55		 push	 ebp
  00001	8b ec		 mov	 ebp, esp

; 213  : 		_Destroy(_Ptr);

  00003	8b 4d 08	 mov	 ecx, DWORD PTR __Ptr$[ebp]
  00006	83 c1 08	 add	 ecx, 8
  00009	ff 15 00 00 00
	00		 call	 DWORD PTR __imp_??1ioHashString@@QAE@XZ

; 214  : 		}

  0000f	5d		 pop	 ebp
  00010	c2 04 00	 ret	 4
?destroy@?$allocator@UWeaponInfo@@@std@@QAEXPAUWeaponInfo@@@Z ENDP ; std::allocator<WeaponInfo>::destroy
_TEXT	ENDS
PUBLIC	??$_Cons_val@V?$allocator@VioHashString@@@std@@VioHashString@@ABV3@@std@@YAXAAV?$allocator@VioHashString@@@0@PAVioHashString@@ABV2@@Z ; std::_Cons_val<std::allocator<ioHashString>,ioHashString,ioHashString const &>
; Function compile flags: /Ogsp
;	COMDAT ??$_Cons_val@V?$allocator@VioHashString@@@std@@VioHashString@@ABV3@@std@@YAXAAV?$allocator@VioHashString@@@0@PAVioHashString@@ABV2@@Z
_TEXT	SEGMENT
__Alval$ = 8						; size = 4
__Pdest$ = 12						; size = 4
__Src$ = 16						; size = 4
??$_Cons_val@V?$allocator@VioHashString@@@std@@VioHashString@@ABV3@@std@@YAXAAV?$allocator@VioHashString@@@0@PAVioHashString@@ABV2@@Z PROC ; std::_Cons_val<std::allocator<ioHashString>,ioHashString,ioHashString const &>, COMDAT

; 279  : 	{	// construct using allocator

  00000	55		 push	 ebp
  00001	8b ec		 mov	 ebp, esp

; 280  : 	_Alval.construct(_Pdest, _STD forward<_Ty2>(_Src));

  00003	ff 75 10	 push	 DWORD PTR __Src$[ebp]
  00006	ff 75 0c	 push	 DWORD PTR __Pdest$[ebp]
  00009	e8 00 00 00 00	 call	 ??$_Construct@VioHashString@@ABV1@@std@@YAXPAVioHashString@@ABV1@@Z ; std::_Construct<ioHashString,ioHashString const &>
  0000e	59		 pop	 ecx
  0000f	59		 pop	 ecx

; 281  : 	}

  00010	5d		 pop	 ebp
  00011	c3		 ret	 0
??$_Cons_val@V?$allocator@VioHashString@@@std@@VioHashString@@ABV3@@std@@YAXAAV?$allocator@VioHashString@@@0@PAVioHashString@@ABV2@@Z ENDP ; std::_Cons_val<std::allocator<ioHashString>,ioHashString,ioHashString const &>
_TEXT	ENDS
PUBLIC	??$_Cons_val@V?$allocator@UWeaponInfo@@@std@@UWeaponInfo@@AAU3@@std@@YAXAAV?$allocator@UWeaponInfo@@@0@PAUWeaponInfo@@AAU2@@Z ; std::_Cons_val<std::allocator<WeaponInfo>,WeaponInfo,WeaponInfo &>
;	COMDAT xdata$x
; File c:\program files (x86)\microsoft visual studio 10.0\vc\include\utility
xdata$x	SEGMENT
__unwindtable$??$_Cons_val@V?$allocator@UWeaponInfo@@@std@@UWeaponInfo@@AAU3@@std@@YAXAAV?$allocator@UWeaponInfo@@@0@PAUWeaponInfo@@AAU2@@Z DD 0ffffffffH
	DD	FLAT:__unwindfunclet$??$_Cons_val@V?$allocator@UWeaponInfo@@@std@@UWeaponInfo@@AAU3@@std@@YAXAAV?$allocator@UWeaponInfo@@@0@PAUWeaponInfo@@AAU2@@Z$0
__ehfuncinfo$??$_Cons_val@V?$allocator@UWeaponInfo@@@std@@UWeaponInfo@@AAU3@@std@@YAXAAV?$allocator@UWeaponInfo@@@0@PAUWeaponInfo@@AAU2@@Z DD 019930522H
	DD	01H
	DD	FLAT:__unwindtable$??$_Cons_val@V?$allocator@UWeaponInfo@@@std@@UWeaponInfo@@AAU3@@std@@YAXAAV?$allocator@UWeaponInfo@@@0@PAUWeaponInfo@@AAU2@@Z
	DD	2 DUP(00H)
	DD	2 DUP(00H)
	DD	00H
	DD	01H
; Function compile flags: /Ogsp
; File c:\program files (x86)\microsoft visual studio 10.0\vc\include\xmemory
xdata$x	ENDS
;	COMDAT ??$_Cons_val@V?$allocator@UWeaponInfo@@@std@@UWeaponInfo@@AAU3@@std@@YAXAAV?$allocator@UWeaponInfo@@@0@PAUWeaponInfo@@AAU2@@Z
_TEXT	SEGMENT
$T574128 = -16						; size = 4
__$EHRec$ = -12						; size = 12
__Alval$ = 8						; size = 4
__Pdest$ = 12						; size = 4
__Src$ = 16						; size = 4
??$_Cons_val@V?$allocator@UWeaponInfo@@@std@@UWeaponInfo@@AAU3@@std@@YAXAAV?$allocator@UWeaponInfo@@@0@PAUWeaponInfo@@AAU2@@Z PROC ; std::_Cons_val<std::allocator<WeaponInfo>,WeaponInfo,WeaponInfo &>, COMDAT

; 279  : 	{	// construct using allocator

  00000	6a 04		 push	 4
  00002	b8 00 00 00 00	 mov	 eax, __ehhandler$??$_Cons_val@V?$allocator@UWeaponInfo@@@std@@UWeaponInfo@@AAU3@@std@@YAXAAV?$allocator@UWeaponInfo@@@0@PAUWeaponInfo@@AAU2@@Z
  00007	e8 00 00 00 00	 call	 __EH_prolog3

; 280  : 	_Alval.construct(_Pdest, _STD forward<_Ty2>(_Src));

  0000c	8b 4d 0c	 mov	 ecx, DWORD PTR __Pdest$[ebp]
  0000f	89 4d f0	 mov	 DWORD PTR $T574128[ebp], ecx
  00012	83 65 fc 00	 and	 DWORD PTR __$EHRec$[ebp+8], 0
  00016	85 c9		 test	 ecx, ecx
  00018	74 08		 je	 SHORT $LN7@Cons_val@2
  0001a	ff 75 10	 push	 DWORD PTR __Src$[ebp]
  0001d	e8 00 00 00 00	 call	 ??0WeaponInfo@@QAE@ABU0@@Z
$LN7@Cons_val@2:

; 281  : 	}

  00022	e8 00 00 00 00	 call	 __EH_epilog3
  00027	c3		 ret	 0
_TEXT	ENDS
;	COMDAT text$x
text$x	SEGMENT
__unwindfunclet$??$_Cons_val@V?$allocator@UWeaponInfo@@@std@@UWeaponInfo@@AAU3@@std@@YAXAAV?$allocator@UWeaponInfo@@@0@PAUWeaponInfo@@AAU2@@Z$0:
  00000	ff 75 0c	 push	 DWORD PTR __Pdest$[ebp]
  00003	ff 75 f0	 push	 DWORD PTR $T574128[ebp]
  00006	e8 00 00 00 00	 call	 ??3@YAXPAX0@Z		; operator delete
  0000b	59		 pop	 ecx
  0000c	59		 pop	 ecx
  0000d	c3		 ret	 0
__ehhandler$??$_Cons_val@V?$allocator@UWeaponInfo@@@std@@UWeaponInfo@@AAU3@@std@@YAXAAV?$allocator@UWeaponInfo@@@0@PAUWeaponInfo@@AAU2@@Z:
  0000e	8b 54 24 08	 mov	 edx, DWORD PTR [esp+8]
  00012	8d 42 0c	 lea	 eax, DWORD PTR [edx+12]
  00015	8b 4a ec	 mov	 ecx, DWORD PTR [edx-20]
  00018	33 c8		 xor	 ecx, eax
  0001a	e8 00 00 00 00	 call	 @__security_check_cookie@4
  0001f	b8 00 00 00 00	 mov	 eax, OFFSET __ehfuncinfo$??$_Cons_val@V?$allocator@UWeaponInfo@@@std@@UWeaponInfo@@AAU3@@std@@YAXAAV?$allocator@UWeaponInfo@@@0@PAUWeaponInfo@@AAU2@@Z
  00024	e9 00 00 00 00	 jmp	 ___CxxFrameHandler3
text$x	ENDS
??$_Cons_val@V?$allocator@UWeaponInfo@@@std@@UWeaponInfo@@AAU3@@std@@YAXAAV?$allocator@UWeaponInfo@@@0@PAUWeaponInfo@@AAU2@@Z ENDP ; std::_Cons_val<std::allocator<WeaponInfo>,WeaponInfo,WeaponInfo &>
PUBLIC	__$ArrayPad$
PUBLIC	?OnFloating@ioPullWeapon2@@QAEXMKPAVioPlayStage@@@Z ; ioPullWeapon2::OnFloating
; Function compile flags: /Ogsp
; File d:\lost saga for developer\youtube\tutorial\source\src\lsclient\iopullweapon2.cpp
;	COMDAT ?OnFloating@ioPullWeapon2@@QAEXMKPAVioPlayStage@@@Z
_TEXT	SEGMENT
_fMoveDist$ = -24					; size = 4
tv275 = -20						; size = 4
tv272 = -20						; size = 4
_value$574169 = -20					; size = 4
_value$574164 = -20					; size = 4
$T568767 = -16						; size = 12
__$ArrayPad$ = -4					; size = 4
_fTimePerSec$ = 8					; size = 4
_dwCurTime$ = 12					; size = 4
_pStage$ = 16						; size = 4
?OnFloating@ioPullWeapon2@@QAEXMKPAVioPlayStage@@@Z PROC ; ioPullWeapon2::OnFloating, COMDAT
; _this$ = ecx

; 230  : {

  00000	55		 push	 ebp
  00001	8b ec		 mov	 ebp, esp
  00003	83 ec 18	 sub	 esp, 24			; 00000018H
  00006	a1 00 00 00 00	 mov	 eax, DWORD PTR ___security_cookie
  0000b	33 c5		 xor	 eax, ebp
  0000d	89 45 fc	 mov	 DWORD PTR __$ArrayPad$[ebp], eax
  00010	56		 push	 esi
  00011	57		 push	 edi
  00012	8b f1		 mov	 esi, ecx

; 231  : 	
; 232  : 	float fMoveDist = GetMoveSpeed() * fTimePerSec;

  00014	e8 00 00 00 00	 call	 ?GetMoveSpeed@ioPullWeapon2@@IAEMXZ ; ioPullWeapon2::GetMoveSpeed
  00019	d8 4d 08	 fmul	 DWORD PTR _fTimePerSec$[ebp]

; 233  : 	GetParentSceneNode()->Translate( m_vMoveDir * fMoveDist );

  0001c	8b 4e 04	 mov	 ecx, DWORD PTR [esi+4]
  0001f	6a 01		 push	 1
  00021	d9 5d e8	 fstp	 DWORD PTR _fMoveDist$[ebp]
  00024	8d 55 f0	 lea	 edx, DWORD PTR $T568767[ebp]
  00027	d9 86 dc 08 00
	00		 fld	 DWORD PTR [esi+2268]
  0002d	52		 push	 edx
  0002e	d8 4d e8	 fmul	 DWORD PTR _fMoveDist$[ebp]
  00031	d9 5d f0	 fstp	 DWORD PTR $T568767[ebp]
  00034	d9 86 e0 08 00
	00		 fld	 DWORD PTR [esi+2272]
  0003a	d8 4d e8	 fmul	 DWORD PTR _fMoveDist$[ebp]
  0003d	d9 5d f4	 fstp	 DWORD PTR $T568767[ebp+4]
  00040	d9 86 e4 08 00
	00		 fld	 DWORD PTR [esi+2276]
  00046	d8 4d e8	 fmul	 DWORD PTR _fMoveDist$[ebp]
  00049	d9 5d f8	 fstp	 DWORD PTR $T568767[ebp+8]
  0004c	8b 01		 mov	 eax, DWORD PTR [ecx]
  0004e	ff 50 3c	 call	 DWORD PTR [eax+60]

; 234  : 	m_fCurMoveRange += fMoveDist;

  00051	8d 45 ec	 lea	 eax, DWORD PTR _value$574164[ebp]
  00054	50		 push	 eax
  00055	8d 8e 68 09 00
	00		 lea	 ecx, DWORD PTR [esi+2408]
  0005b	e8 00 00 00 00	 call	 ?DecryptValueToPool@?$CEncrypt@M@@QAEXPAM@Z ; CEncrypt<float>::DecryptValueToPool
  00060	d9 45 ec	 fld	 DWORD PTR _value$574164[ebp]
  00063	d8 45 e8	 fadd	 DWORD PTR _fMoveDist$[ebp]
  00066	8d 45 ec	 lea	 eax, DWORD PTR _value$574164[ebp]
  00069	50		 push	 eax
  0006a	8d 8e 68 09 00
	00		 lea	 ecx, DWORD PTR [esi+2408]
  00070	d9 5d ec	 fstp	 DWORD PTR _value$574164[ebp]
  00073	e8 00 00 00 00	 call	 ?EncryptValueToPool@?$CEncrypt@M@@AAEXPBD@Z ; CEncrypt<float>::EncryptValueToPool

; 235  : 
; 236  : 	if( GetMoveRange() < m_fCurMoveRange )

  00078	8d 45 ec	 lea	 eax, DWORD PTR _value$574169[ebp]
  0007b	50		 push	 eax
  0007c	8d 8e 68 09 00
	00		 lea	 ecx, DWORD PTR [esi+2408]
  00082	e8 00 00 00 00	 call	 ?DecryptValueToPool@?$CEncrypt@M@@QAEXPAM@Z ; CEncrypt<float>::DecryptValueToPool
  00087	8b ce		 mov	 ecx, esi
  00089	e8 00 00 00 00	 call	 ?GetMoveRange@ioPullWeapon2@@IAEMXZ ; ioPullWeapon2::GetMoveRange
  0008e	d9 45 ec	 fld	 DWORD PTR _value$574169[ebp]
  00091	df f1		 fcomip	 ST(1)
  00093	dd d8		 fstp	 ST(0)
  00095	76 0a		 jbe	 SHORT $LN2@OnFloating

; 237  : 	{
; 238  : 		m_State = CS_END;

  00097	c7 86 94 08 00
	00 03 00 00 00	 mov	 DWORD PTR [esi+2196], 3
$LN2@OnFloating:

; 239  : 	}
; 240  : 
; 241  : 	if( m_pMesh )

  000a1	8d 8e f4 08 00
	00		 lea	 ecx, DWORD PTR [esi+2292]
  000a7	83 39 00	 cmp	 DWORD PTR [ecx], 0
  000aa	5f		 pop	 edi
  000ab	5e		 pop	 esi
  000ac	74 2c		 je	 SHORT $LN1@OnFloating

; 242  : 	{
; 243  : 		m_pMesh->Update( fTimePerSec * FLOAT1000 );

  000ae	b8 e8 03 00 00	 mov	 eax, 1000		; 000003e8H
  000b3	8b 09		 mov	 ecx, DWORD PTR [ecx]
  000b5	83 c1 14	 add	 ecx, 20			; 00000014H
  000b8	8b 11		 mov	 edx, DWORD PTR [ecx]
  000ba	89 45 ec	 mov	 DWORD PTR tv275[ebp], eax
  000bd	db 45 ec	 fild	 DWORD PTR tv275[ebp]
  000c0	85 c0		 test	 eax, eax
  000c2	79 06		 jns	 SHORT $LN17@OnFloating
  000c4	d8 05 00 00 00
	00		 fadd	 DWORD PTR __real@4f800000
$LN17@OnFloating:
  000ca	d8 4d 08	 fmul	 DWORD PTR _fTimePerSec$[ebp]
  000cd	51		 push	 ecx
  000ce	d9 5d ec	 fstp	 DWORD PTR tv272[ebp]
  000d1	d9 45 ec	 fld	 DWORD PTR tv272[ebp]
  000d4	d9 1c 24	 fstp	 DWORD PTR [esp]
  000d7	ff 52 40	 call	 DWORD PTR [edx+64]
$LN1@OnFloating:

; 244  : 	}
; 245  : }

  000da	8b 4d fc	 mov	 ecx, DWORD PTR __$ArrayPad$[ebp]
  000dd	33 cd		 xor	 ecx, ebp
  000df	e8 00 00 00 00	 call	 @__security_check_cookie@4
  000e4	c9		 leave
  000e5	c2 0c 00	 ret	 12			; 0000000cH
?OnFloating@ioPullWeapon2@@QAEXMKPAVioPlayStage@@@Z ENDP ; ioPullWeapon2::OnFloating
_TEXT	ENDS
PUBLIC	?IsEnableTargetState@ioPullWeapon2@@QAE_NPAVioBaseChar@@0@Z ; ioPullWeapon2::IsEnableTargetState
EXTRN	?IsProtectState@ioBaseChar@@QAE_NXZ:PROC	; ioBaseChar::IsProtectState
EXTRN	?HasBuff@ioBaseChar@@QBE_NH@Z:PROC		; ioBaseChar::HasBuff
EXTRN	?IsEnableTarget@ioBaseChar@@QAE_N_N0@Z:PROC	; ioBaseChar::IsEnableTarget
EXTRN	?IsSystemState@ioBaseChar@@QAE_NXZ:PROC		; ioBaseChar::IsSystemState
; Function compile flags: /Ogsp
;	COMDAT ?IsEnableTargetState@ioPullWeapon2@@QAE_NPAVioBaseChar@@0@Z
_TEXT	SEGMENT
_value$574201 = 8					; size = 4
_pOwner$ = 8						; size = 4
_value$574188 = 12					; size = 4
_pTarget$ = 12						; size = 4
?IsEnableTargetState@ioPullWeapon2@@QAE_NPAVioBaseChar@@0@Z PROC ; ioPullWeapon2::IsEnableTargetState, COMDAT
; _this$ = ecx

; 326  : {

  00000	55		 push	 ebp
  00001	8b ec		 mov	 ebp, esp
  00003	56		 push	 esi

; 327  : 	if( !pTarget )

  00004	8b 75 0c	 mov	 esi, DWORD PTR _pTarget$[ebp]
  00007	85 f6		 test	 esi, esi

; 328  : 		return false;

  00009	0f 84 89 00 00
	00		 je	 $LN3@IsEnableTa

; 329  : 
; 330  : 	if( pOwner->GetTeam() == pTarget->GetTeam() )

  0000f	8b 4d 08	 mov	 ecx, DWORD PTR _pOwner$[ebp]
  00012	8d 45 0c	 lea	 eax, DWORD PTR _value$574188[ebp]
  00015	50		 push	 eax
  00016	81 c1 90 00 00
	00		 add	 ecx, 144		; 00000090H
  0001c	e8 00 00 00 00	 call	 ?DecryptValueToPool@?$CEncrypt@W4TeamType@@@@QAEXPAW4TeamType@@@Z ; CEncrypt<enum TeamType>::DecryptValueToPool
  00021	8d 45 08	 lea	 eax, DWORD PTR _value$574201[ebp]
  00024	50		 push	 eax
  00025	8d 8e 90 00 00
	00		 lea	 ecx, DWORD PTR [esi+144]
  0002b	e8 00 00 00 00	 call	 ?DecryptValueToPool@?$CEncrypt@W4TeamType@@@@QAEXPAW4TeamType@@@Z ; CEncrypt<enum TeamType>::DecryptValueToPool
  00030	8b 45 0c	 mov	 eax, DWORD PTR _value$574188[ebp]
  00033	3b 45 08	 cmp	 eax, DWORD PTR _value$574201[ebp]

; 331  : 		return false;

  00036	74 60		 je	 SHORT $LN3@IsEnableTa

; 332  : 
; 333  : 	if( pTarget->IsSystemState() )

  00038	8b ce		 mov	 ecx, esi
  0003a	e8 00 00 00 00	 call	 ?IsSystemState@ioBaseChar@@QAE_NXZ ; ioBaseChar::IsSystemState
  0003f	84 c0		 test	 al, al

; 334  : 		return false;

  00041	75 55		 jne	 SHORT $LN3@IsEnableTa

; 335  : 			
; 336  : 	if( !pTarget->IsEnableTarget() )

  00043	6a 01		 push	 1
  00045	6a 01		 push	 1
  00047	8b ce		 mov	 ecx, esi
  00049	e8 00 00 00 00	 call	 ?IsEnableTarget@ioBaseChar@@QAE_N_N0@Z ; ioBaseChar::IsEnableTarget
  0004e	84 c0		 test	 al, al

; 337  : 		return false;

  00050	74 46		 je	 SHORT $LN3@IsEnableTa

; 338  : 
; 339  : 	if( pTarget->HasBuff( BT_CLOSEORDER ) )

  00052	6a 22		 push	 34			; 00000022H
  00054	8b ce		 mov	 ecx, esi
  00056	e8 00 00 00 00	 call	 ?HasBuff@ioBaseChar@@QBE_NH@Z ; ioBaseChar::HasBuff
  0005b	84 c0		 test	 al, al

; 340  : 		return false;

  0005d	75 39		 jne	 SHORT $LN3@IsEnableTa

; 341  : 
; 342  : 	if( pTarget->HasBuff( BT_SKIP_STUN ) )

  0005f	6a 4b		 push	 75			; 0000004bH
  00061	8b ce		 mov	 ecx, esi
  00063	e8 00 00 00 00	 call	 ?HasBuff@ioBaseChar@@QBE_NH@Z ; ioBaseChar::HasBuff
  00068	84 c0		 test	 al, al

; 343  : 		return false;

  0006a	75 2c		 jne	 SHORT $LN3@IsEnableTa

; 344  : 	
; 345  : 	if( pTarget->IsProtectState() )

  0006c	8b ce		 mov	 ecx, esi
  0006e	e8 00 00 00 00	 call	 ?IsProtectState@ioBaseChar@@QAE_NXZ ; ioBaseChar::IsProtectState
  00073	84 c0		 test	 al, al

; 346  : 		return false;

  00075	75 21		 jne	 SHORT $LN3@IsEnableTa

; 347  : 	
; 348  : 	ioPlayStage *pStage = pTarget->GetCreator();

  00077	8b b6 44 03 00
	00		 mov	 esi, DWORD PTR [esi+836]

; 349  : 	if( pStage )

  0007d	85 f6		 test	 esi, esi
  0007f	74 17		 je	 SHORT $LN3@IsEnableTa

; 350  : 	{
; 351  : 		ioPlayMode *pMode = pStage->GetPlayMode();
; 352  : 		if( pMode && pMode->GetModeType() == MT_FOOTBALL )

  00081	83 be 10 01 00
	00 00		 cmp	 DWORD PTR [esi+272], 0
  00088	74 0a		 je	 SHORT $LN2@IsEnableTa
  0008a	e8 00 00 00 00	 call	 ?GetModeType@ioPlayMode@@SA?AW4ModeType@@XZ ; ioPlayMode::GetModeType
  0008f	83 f8 09	 cmp	 eax, 9

; 353  : 			return false;

  00092	74 04		 je	 SHORT $LN3@IsEnableTa
$LN2@IsEnableTa:

; 358  : 	}
; 359  : 
; 360  : 	return true;

  00094	b0 01		 mov	 al, 1
  00096	eb 02		 jmp	 SHORT $LN11@IsEnableTa
$LN3@IsEnableTa:

; 354  : 	}
; 355  : 	else
; 356  : 	{
; 357  : 		return false;

  00098	32 c0		 xor	 al, al
$LN11@IsEnableTa:
  0009a	5e		 pop	 esi

; 361  : }

  0009b	5d		 pop	 ebp
  0009c	c2 08 00	 ret	 8
?IsEnableTargetState@ioPullWeapon2@@QAE_NPAVioBaseChar@@0@Z ENDP ; ioPullWeapon2::IsEnableTargetState
_TEXT	ENDS
PUBLIC	??_C@_0BM@PFDKHKGG@PC?5?9WeaponAddBuff6?5?3?5?$CFd?0?5?$CFd?$AA@ ; `string'
PUBLIC	_pStage$GSCopy$
PUBLIC	_pOwner$GSCopy$
PUBLIC	__$ArrayPad$
PUBLIC	?SetTargetBuff@ioPullWeapon2@@QAEXPAVioBaseChar@@PAVioPlayStage@@@Z ; ioPullWeapon2::SetTargetBuff
EXTRN	??6SP2Packet@@QAEAAV0@H@Z:PROC			; SP2Packet::operator<<
EXTRN	??6SP2Packet@@QAEAAV0@M@Z:PROC			; SP2Packet::operator<<
EXTRN	??6SP2Packet@@QAEAAV0@_N@Z:PROC			; SP2Packet::operator<<
EXTRN	__imp_?PrintTimeAndLog@CLog@@QAAXHPADZZ:PROC
EXTRN	__imp_?LOG@@3VCLog@@A:BYTE
EXTRN	?GetAttributeIndex@ioWeapon@@QBEHXZ:PROC	; ioWeapon::GetAttributeIndex
EXTRN	?CheckEnableTimeGapUser@Help@@YA_NH@Z:PROC	; Help::CheckEnableTimeGapUser
EXTRN	?SetTargetWeapon@ioCloseOrderBuff@@QAEXK@Z:PROC	; ioCloseOrderBuff::SetTargetWeapon
EXTRN	?AddNewBuff@ioBaseChar@@QAEPAVioBuff@@ABVioHashString@@00PAVioSkill@@_N@Z:PROC ; ioBaseChar::AddNewBuff
EXTRN	?GetBaseChar@ioPlayStage@@QAEPAVioBaseChar@@ABVioHashString@@@Z:PROC ; ioPlayStage::GetBaseChar
;	COMDAT ??_C@_0BM@PFDKHKGG@PC?5?9WeaponAddBuff6?5?3?5?$CFd?0?5?$CFd?$AA@
; File d:\lost saga for developer\youtube\tutorial\source\src\lsclient\ioweapon.h
CONST	SEGMENT
??_C@_0BM@PFDKHKGG@PC?5?9WeaponAddBuff6?5?3?5?$CFd?0?5?$CFd?$AA@ DB 'PC -'
	DB	'WeaponAddBuff6 : %d, %d', 00H		; `string'
CONST	ENDS
;	COMDAT xdata$x
xdata$x	SEGMENT
__unwindtable$?SetTargetBuff@ioPullWeapon2@@QAEXPAVioBaseChar@@PAVioPlayStage@@@Z DD 0ffffffffH
	DD	FLAT:__unwindfunclet$?SetTargetBuff@ioPullWeapon2@@QAEXPAVioBaseChar@@PAVioPlayStage@@@Z$0
__ehfuncinfo$?SetTargetBuff@ioPullWeapon2@@QAEXPAVioBaseChar@@PAVioPlayStage@@@Z DD 019930522H
	DD	01H
	DD	FLAT:__unwindtable$?SetTargetBuff@ioPullWeapon2@@QAEXPAVioBaseChar@@PAVioPlayStage@@@Z
	DD	2 DUP(00H)
	DD	2 DUP(00H)
	DD	00H
	DD	01H
; Function compile flags: /Ogsp
; File d:\lost saga for developer\youtube\tutorial\source\src\lsclient\iopullweapon2.cpp
xdata$x	ENDS
;	COMDAT ?SetTargetBuff@ioPullWeapon2@@QAEXPAVioBaseChar@@PAVioPlayStage@@@Z
_TEXT	SEGMENT
_pStage$GSCopy$ = -32820				; size = 4
_pOwner$GSCopy$ = -32816				; size = 4
_iter$ = -32812						; size = 4
_kPacket$568950 = -32808				; size = 32792
__$ArrayPad$ = -16					; size = 4
__$EHRec$ = -12						; size = 12
_pOwner$ = 8						; size = 4
_pStage$ = 12						; size = 4
?SetTargetBuff@ioPullWeapon2@@QAEXPAVioBaseChar@@PAVioPlayStage@@@Z PROC ; ioPullWeapon2::SetTargetBuff, COMDAT
; _this$ = ecx

; 364  : {

  00000	55		 push	 ebp
  00001	8b ec		 mov	 ebp, esp
  00003	6a ff		 push	 -1
  00005	68 00 00 00 00	 push	 __ehhandler$?SetTargetBuff@ioPullWeapon2@@QAEXPAVioBaseChar@@PAVioPlayStage@@@Z
  0000a	64 a1 00 00 00
	00		 mov	 eax, DWORD PTR fs:0
  00010	50		 push	 eax
  00011	b8 28 80 00 00	 mov	 eax, 32808		; 00008028H
  00016	e8 00 00 00 00	 call	 __chkstk
  0001b	a1 00 00 00 00	 mov	 eax, DWORD PTR ___security_cookie
  00020	33 c5		 xor	 eax, ebp
  00022	89 45 f0	 mov	 DWORD PTR __$ArrayPad$[ebp], eax
  00025	53		 push	 ebx
  00026	56		 push	 esi
  00027	57		 push	 edi
  00028	50		 push	 eax
  00029	8d 45 f4	 lea	 eax, DWORD PTR __$EHRec$[ebp]
  0002c	64 a3 00 00 00
	00		 mov	 DWORD PTR fs:0, eax
  00032	8b 55 08	 mov	 edx, DWORD PTR _pOwner$[ebp]

; 375  : 		if( !pTarget )

  00035	8b 45 0c	 mov	 eax, DWORD PTR _pStage$[ebp]
  00038	8b f1		 mov	 esi, ecx
  0003a	8b 8e 40 0a 00
	00		 mov	 ecx, DWORD PTR [esi+2624]
  00040	89 95 d0 7f ff
	ff		 mov	 DWORD PTR _pOwner$GSCopy$[ebp], edx
  00046	89 85 cc 7f ff
	ff		 mov	 DWORD PTR _pStage$GSCopy$[ebp], eax
  0004c	3b 8e 44 0a 00
	00		 cmp	 ecx, DWORD PTR [esi+2628]
  00052	0f 84 0a 02 00
	00		 je	 $LN6@SetTargetB

; 365  : 	if( m_vTargetList.empty() ) 
; 366  : 		return;
; 367  : 
; 368  : 	if( !pOwner )

  00058	33 db		 xor	 ebx, ebx
  0005a	3b d3		 cmp	 edx, ebx
  0005c	0f 84 00 02 00
	00		 je	 $LN6@SetTargetB

; 369  : 		return;
; 370  : 
; 371  : 	ioHashStringVec::iterator iter;
; 372  : 	for( iter = m_vTargetList.begin(); iter != m_vTargetList.end(); ++iter )

  00062	89 8d d4 7f ff
	ff		 mov	 DWORD PTR _iter$[ebp], ecx
  00068	3b 8e 44 0a 00
	00		 cmp	 ecx, DWORD PTR [esi+2628]
  0006e	0f 84 ee 01 00
	00		 je	 $LN6@SetTargetB
$LN30@SetTargetB:

; 373  : 	{
; 374  : 		ioBaseChar *pTarget = pStage->GetBaseChar( (*iter) );

  00074	ff b5 d4 7f ff
	ff		 push	 DWORD PTR _iter$[ebp]
  0007a	8b 8d cc 7f ff
	ff		 mov	 ecx, DWORD PTR _pStage$GSCopy$[ebp]
  00080	e8 00 00 00 00	 call	 ?GetBaseChar@ioPlayStage@@QAEPAVioBaseChar@@ABVioHashString@@@Z ; ioPlayStage::GetBaseChar
  00085	8b f8		 mov	 edi, eax

; 375  : 		if( !pTarget )

  00087	3b fb		 cmp	 edi, ebx
  00089	0f 84 ba 01 00
	00		 je	 $LN7@SetTargetB

; 376  : 			continue;
; 377  : 
; 378  : 		if( !pTarget->IsNeedProcess() )

  0008f	8b 07		 mov	 eax, DWORD PTR [edi]
  00091	8b cf		 mov	 ecx, edi
  00093	ff 90 00 01 00
	00		 call	 DWORD PTR [eax+256]
  00099	84 c0		 test	 al, al
  0009b	0f 84 a8 01 00
	00		 je	 $LN7@SetTargetB

; 379  : 			continue;
; 380  : 
; 381  : 		ioBuff* pBuff = pTarget->AddNewBuff( m_szPullingBuff, pOwner->GetCharName(), pTarget->GetCharName(), NULL );

  000a1	8b 8d d0 7f ff
	ff		 mov	 ecx, DWORD PTR _pOwner$GSCopy$[ebp]
  000a7	53		 push	 ebx
  000a8	53		 push	 ebx
  000a9	8d 87 d4 02 00
	00		 lea	 eax, DWORD PTR [edi+724]
  000af	81 c1 d4 02 00
	00		 add	 ecx, 724		; 000002d4H
  000b5	50		 push	 eax
  000b6	51		 push	 ecx
  000b7	8d 96 30 0a 00
	00		 lea	 edx, DWORD PTR [esi+2608]
  000bd	52		 push	 edx
  000be	8b cf		 mov	 ecx, edi
  000c0	e8 00 00 00 00	 call	 ?AddNewBuff@ioBaseChar@@QAEPAVioBuff@@ABVioHashString@@00PAVioSkill@@_N@Z ; ioBaseChar::AddNewBuff

; 382  : 			
; 383  : 		ioCloseOrderBuff *pCloseOrder = ToCloseOrderBuff(pBuff);

  000c5	50		 push	 eax
  000c6	e8 00 00 00 00	 call	 ?ToCloseOrderBuff@@YAPAVioCloseOrderBuff@@PAVioBuff@@@Z ; ToCloseOrderBuff
  000cb	59		 pop	 ecx

; 384  : 		if( pCloseOrder && pCloseOrder->GetCloseOrderType() == ioCloseOrderBuff::COT_AREA_TRACE )

  000cc	3b c3		 cmp	 eax, ebx
  000ce	74 16		 je	 SHORT $LN3@SetTargetB
  000d0	83 b8 e0 09 00
	00 04		 cmp	 DWORD PTR [eax+2528], 4
  000d7	75 0d		 jne	 SHORT $LN3@SetTargetB

; 385  : 		{
; 386  : 			pCloseOrder->SetTargetWeapon( GetWeaponIndex() );

  000d9	ff b6 b8 04 00
	00		 push	 DWORD PTR [esi+1208]
  000df	8b c8		 mov	 ecx, eax
  000e1	e8 00 00 00 00	 call	 ?SetTargetWeapon@ioCloseOrderBuff@@QAEXK@Z ; ioCloseOrderBuff::SetTargetWeapon
$LN3@SetTargetB:

; 387  : 		}
; 388  : 
; 389  :  		if( pTarget->IsNeedSendNetwork() )

  000e6	8b 07		 mov	 eax, DWORD PTR [edi]
  000e8	8b cf		 mov	 ecx, edi
  000ea	ff 90 04 01 00
	00		 call	 DWORD PTR [eax+260]
  000f0	84 c0		 test	 al, al
  000f2	0f 84 51 01 00
	00		 je	 $LN7@SetTargetB

; 390  : 		{
; 391  : 			if( Help::CheckEnableTimeGapUser() )

  000f8	53		 push	 ebx
  000f9	e8 00 00 00 00	 call	 ?CheckEnableTimeGapUser@Help@@YA_NH@Z ; Help::CheckEnableTimeGapUser
  000fe	59		 pop	 ecx
  000ff	84 c0		 test	 al, al
  00101	74 2c		 je	 SHORT $LN1@SetTargetB

; 392  : 			{
; 393  : 				LOG.PrintTimeAndLog( 0, "PC -WeaponAddBuff6 : %d, %d", GetAttributeIndex(), FRAMEGETTIME() );

  00103	ff 15 00 00 00
	00		 call	 DWORD PTR __imp_?GetSingleton@ioFrameTimer@@SAAAV1@XZ
  00109	8b c8		 mov	 ecx, eax
  0010b	ff 15 00 00 00
	00		 call	 DWORD PTR __imp_?GetLoopSec@ioFrameTimer@@QBEKXZ
  00111	50		 push	 eax
  00112	8b ce		 mov	 ecx, esi
  00114	e8 00 00 00 00	 call	 ?GetAttributeIndex@ioWeapon@@QBEHXZ ; ioWeapon::GetAttributeIndex
  00119	50		 push	 eax
  0011a	68 00 00 00 00	 push	 OFFSET ??_C@_0BM@PFDKHKGG@PC?5?9WeaponAddBuff6?5?3?5?$CFd?0?5?$CFd?$AA@
  0011f	53		 push	 ebx
  00120	ff 35 00 00 00
	00		 push	 DWORD PTR __imp_?LOG@@3VCLog@@A
  00126	ff 15 00 00 00
	00		 call	 DWORD PTR __imp_?PrintTimeAndLog@CLog@@QAAXHPADZZ
  0012c	83 c4 14	 add	 esp, 20			; 00000014H
$LN1@SetTargetB:

; 394  : 			}
; 395  : 			SP2Packet kPacket( CUPK_ADD_NEW_BUFF );

  0012f	68 31 41 00 00	 push	 16689			; 00004131H
  00134	8d 8d d8 7f ff
	ff		 lea	 ecx, DWORD PTR _kPacket$568950[ebp]
  0013a	e8 00 00 00 00	 call	 ??0SP2Packet@@QAE@K@Z	; SP2Packet::SP2Packet

; 396  : 			kPacket << pTarget->GetCharName();

  0013f	8d 87 d4 02 00
	00		 lea	 eax, DWORD PTR [edi+724]
  00145	50		 push	 eax
  00146	8d 8d d8 7f ff
	ff		 lea	 ecx, DWORD PTR _kPacket$568950[ebp]
  0014c	89 5d fc	 mov	 DWORD PTR __$EHRec$[ebp+8], ebx
  0014f	e8 00 00 00 00	 call	 ??6SP2Packet@@QAEAAV0@ABVioHashString@@@Z ; SP2Packet::operator<<

; 397  : 			kPacket << pOwner->GetCharName();

  00154	8b 85 d0 7f ff
	ff		 mov	 eax, DWORD PTR _pOwner$GSCopy$[ebp]
  0015a	05 d4 02 00 00	 add	 eax, 724		; 000002d4H
  0015f	50		 push	 eax
  00160	8d 8d d8 7f ff
	ff		 lea	 ecx, DWORD PTR _kPacket$568950[ebp]
  00166	e8 00 00 00 00	 call	 ??6SP2Packet@@QAEAAV0@ABVioHashString@@@Z ; SP2Packet::operator<<

; 398  : 			kPacket << GetCreateItem();

  0016b	8d 46 20	 lea	 eax, DWORD PTR [esi+32]
  0016e	50		 push	 eax
  0016f	8d 8d d8 7f ff
	ff		 lea	 ecx, DWORD PTR _kPacket$568950[ebp]
  00175	e8 00 00 00 00	 call	 ??6SP2Packet@@QAEAAV0@ABVioHashString@@@Z ; SP2Packet::operator<<

; 399  : 			kPacket << pTarget->GetRandomSeed();

  0017a	ff b7 74 16 00
	00		 push	 DWORD PTR [edi+5748]
  00180	8d 8d d8 7f ff
	ff		 lea	 ecx, DWORD PTR _kPacket$568950[ebp]
  00186	e8 00 00 00 00	 call	 ??6SP2Packet@@QAEAAV0@K@Z ; SP2Packet::operator<<

; 400  : 			kPacket << false;					//  

  0018b	53		 push	 ebx
  0018c	8d 8d d8 7f ff
	ff		 lea	 ecx, DWORD PTR _kPacket$568950[ebp]
  00192	e8 00 00 00 00	 call	 ??6SP2Packet@@QAEAAV0@_N@Z ; SP2Packet::operator<<

; 401  : 			kPacket << 0.0f;

  00197	0f 57 c0	 xorps	 xmm0, xmm0
  0019a	51		 push	 ecx
  0019b	8d 8d d8 7f ff
	ff		 lea	 ecx, DWORD PTR _kPacket$568950[ebp]
  001a1	f3 0f 11 04 24	 movss	 DWORD PTR [esp], xmm0
  001a6	e8 00 00 00 00	 call	 ??6SP2Packet@@QAEAAV0@M@Z ; SP2Packet::operator<<

; 402  : 			kPacket << 0.0f;

  001ab	0f 57 c0	 xorps	 xmm0, xmm0
  001ae	51		 push	 ecx
  001af	8d 8d d8 7f ff
	ff		 lea	 ecx, DWORD PTR _kPacket$568950[ebp]
  001b5	f3 0f 11 04 24	 movss	 DWORD PTR [esp], xmm0
  001ba	e8 00 00 00 00	 call	 ??6SP2Packet@@QAEAAV0@M@Z ; SP2Packet::operator<<

; 403  : 			kPacket << 0.0f;

  001bf	0f 57 c0	 xorps	 xmm0, xmm0
  001c2	51		 push	 ecx
  001c3	8d 8d d8 7f ff
	ff		 lea	 ecx, DWORD PTR _kPacket$568950[ebp]
  001c9	f3 0f 11 04 24	 movss	 DWORD PTR [esp], xmm0
  001ce	e8 00 00 00 00	 call	 ??6SP2Packet@@QAEAAV0@M@Z ; SP2Packet::operator<<

; 404  : 
; 405  : 			kPacket << COWT_WEAPON;				// Check CloseOrderBuff(12.07.13 )

  001d3	6a 02		 push	 2
  001d5	8d 8d d8 7f ff
	ff		 lea	 ecx, DWORD PTR _kPacket$568950[ebp]
  001db	e8 00 00 00 00	 call	 ??6SP2Packet@@QAEAAV0@H@Z ; SP2Packet::operator<<

; 406  : 			kPacket << GetOwnerName();

  001e0	8d 46 10	 lea	 eax, DWORD PTR [esi+16]
  001e3	50		 push	 eax
  001e4	8d 8d d8 7f ff
	ff		 lea	 ecx, DWORD PTR _kPacket$568950[ebp]
  001ea	e8 00 00 00 00	 call	 ??6SP2Packet@@QAEAAV0@ABVioHashString@@@Z ; SP2Packet::operator<<

; 407  : 			kPacket << GetWeaponIndex();		//  AreaWeapon  Weapon  

  001ef	ff b6 b8 04 00
	00		 push	 DWORD PTR [esi+1208]
  001f5	8d 8d d8 7f ff
	ff		 lea	 ecx, DWORD PTR _kPacket$568950[ebp]
  001fb	e8 00 00 00 00	 call	 ??6SP2Packet@@QAEAAV0@K@Z ; SP2Packet::operator<<

; 408  : 
; 409  : 			kPacket << 1;				

  00200	6a 01		 push	 1
  00202	8d 8d d8 7f ff
	ff		 lea	 ecx, DWORD PTR _kPacket$568950[ebp]
  00208	e8 00 00 00 00	 call	 ??6SP2Packet@@QAEAAV0@H@Z ; SP2Packet::operator<<

; 410  : 			kPacket << m_szPullingBuff;

  0020d	8d 86 30 0a 00
	00		 lea	 eax, DWORD PTR [esi+2608]
  00213	50		 push	 eax
  00214	8d 8d d8 7f ff
	ff		 lea	 ecx, DWORD PTR _kPacket$568950[ebp]
  0021a	e8 00 00 00 00	 call	 ??6SP2Packet@@QAEAAV0@ABVioHashString@@@Z ; SP2Packet::operator<<

; 411  : 			kPacket << false;					// Use Force

  0021f	53		 push	 ebx
  00220	8d 8d d8 7f ff
	ff		 lea	 ecx, DWORD PTR _kPacket$568950[ebp]
  00226	e8 00 00 00 00	 call	 ??6SP2Packet@@QAEAAV0@_N@Z ; SP2Packet::operator<<

; 412  : 
; 413  : 			P2PNetwork::SendToAllPlayingUser( kPacket );

  0022b	8d 85 d8 7f ff
	ff		 lea	 eax, DWORD PTR _kPacket$568950[ebp]
  00231	53		 push	 ebx
  00232	50		 push	 eax
  00233	e8 00 00 00 00	 call	 ?SendToAllPlayingUser@P2PNetwork@@YAXAAVSP2Packet@@PAVioBaseChar@@@Z ; P2PNetwork::SendToAllPlayingUser

; 414  : 		}

  00238	83 4d fc ff	 or	 DWORD PTR __$EHRec$[ebp+8], -1
  0023c	59		 pop	 ecx
  0023d	59		 pop	 ecx
  0023e	8d 8d d8 7f ff
	ff		 lea	 ecx, DWORD PTR _kPacket$568950[ebp]
  00244	e8 00 00 00 00	 call	 ??1SP2Packet@@UAE@XZ	; SP2Packet::~SP2Packet
$LN7@SetTargetB:

; 369  : 		return;
; 370  : 
; 371  : 	ioHashStringVec::iterator iter;
; 372  : 	for( iter = m_vTargetList.begin(); iter != m_vTargetList.end(); ++iter )

  00249	83 85 d4 7f ff
	ff 10		 add	 DWORD PTR _iter$[ebp], 16 ; 00000010H
  00250	8b 85 d4 7f ff
	ff		 mov	 eax, DWORD PTR _iter$[ebp]
  00256	3b 86 44 0a 00
	00		 cmp	 eax, DWORD PTR [esi+2628]
  0025c	0f 85 12 fe ff
	ff		 jne	 $LN30@SetTargetB
$LN6@SetTargetB:

; 415  : 	}
; 416  : }

  00262	8b 4d f4	 mov	 ecx, DWORD PTR __$EHRec$[ebp]
  00265	64 89 0d 00 00
	00 00		 mov	 DWORD PTR fs:0, ecx
  0026c	59		 pop	 ecx
  0026d	5f		 pop	 edi
  0026e	5e		 pop	 esi
  0026f	5b		 pop	 ebx
  00270	8b 4d f0	 mov	 ecx, DWORD PTR __$ArrayPad$[ebp]
  00273	33 cd		 xor	 ecx, ebp
  00275	e8 00 00 00 00	 call	 @__security_check_cookie@4
  0027a	c9		 leave
  0027b	c2 08 00	 ret	 8
_TEXT	ENDS
;	COMDAT text$x
text$x	SEGMENT
__unwindfunclet$?SetTargetBuff@ioPullWeapon2@@QAEXPAVioBaseChar@@PAVioPlayStage@@@Z$0:
  00000	8d 8d d8 7f ff
	ff		 lea	 ecx, DWORD PTR _kPacket$568950[ebp]
  00006	e9 00 00 00 00	 jmp	 ??1SP2Packet@@UAE@XZ	; SP2Packet::~SP2Packet
__ehhandler$?SetTargetBuff@ioPullWeapon2@@QAEXPAVioBaseChar@@PAVioPlayStage@@@Z:
  0000b	8b 54 24 08	 mov	 edx, DWORD PTR [esp+8]
  0000f	8d 42 0c	 lea	 eax, DWORD PTR [edx+12]
  00012	8b 8a c8 7f ff
	ff		 mov	 ecx, DWORD PTR [edx-32824]
  00018	33 c8		 xor	 ecx, eax
  0001a	e8 00 00 00 00	 call	 @__security_check_cookie@4
  0001f	8b 4a fc	 mov	 ecx, DWORD PTR [edx-4]
  00022	33 c8		 xor	 ecx, eax
  00024	e8 00 00 00 00	 call	 @__security_check_cookie@4
  00029	b8 00 00 00 00	 mov	 eax, OFFSET __ehfuncinfo$?SetTargetBuff@ioPullWeapon2@@QAEXPAVioBaseChar@@PAVioPlayStage@@@Z
  0002e	e9 00 00 00 00	 jmp	 ___CxxFrameHandler3
text$x	ENDS
?SetTargetBuff@ioPullWeapon2@@QAEXPAVioBaseChar@@PAVioPlayStage@@@Z ENDP ; ioPullWeapon2::SetTargetBuff
PUBLIC	?CallAttribute@ioPullWeapon2@@QAEXXZ		; ioPullWeapon2::CallAttribute
EXTRN	?SetReserveCallWeaponInfo@ioWeaponManager@@QAEXABVioHashString@@ABUWeaponInfo@@ABUD3DXVECTOR3@@2KK_N@Z:PROC ; ioWeaponManager::SetReserveCallWeaponInfo
EXTRN	?GetSingleton@ioWeaponManager@@SAAAV1@XZ:PROC	; ioWeaponManager::GetSingleton
;	COMDAT xdata$x
; File d:\lost saga for developer\youtube\tutorial\source\src\lsclient\playentityhelpstruct.h
xdata$x	SEGMENT
__unwindtable$?CallAttribute@ioPullWeapon2@@QAEXXZ DD 0ffffffffH
	DD	FLAT:__unwindfunclet$?CallAttribute@ioPullWeapon2@@QAEXXZ$0
__ehfuncinfo$?CallAttribute@ioPullWeapon2@@QAEXXZ DD 019930522H
	DD	01H
	DD	FLAT:__unwindtable$?CallAttribute@ioPullWeapon2@@QAEXXZ
	DD	2 DUP(00H)
	DD	2 DUP(00H)
	DD	00H
	DD	01H
; Function compile flags: /Ogsp
; File d:\lost saga for developer\youtube\tutorial\source\src\lsclient\iopullweapon2.cpp
xdata$x	ENDS
;	COMDAT ?CallAttribute@ioPullWeapon2@@QAEXXZ
_TEXT	SEGMENT
_pInfo$569023 = -72					; size = 40
tv352 = -32						; size = 4
$T569025 = -28						; size = 12
__$EHRec$ = -12						; size = 12
?CallAttribute@ioPullWeapon2@@QAEXXZ PROC		; ioPullWeapon2::CallAttribute, COMDAT
; _this$ = ecx

; 529  : {	

  00000	6a 3c		 push	 60			; 0000003cH
  00002	b8 00 00 00 00	 mov	 eax, __ehhandler$?CallAttribute@ioPullWeapon2@@QAEXXZ
  00007	e8 00 00 00 00	 call	 __EH_prolog3_GS
  0000c	8b f1		 mov	 esi, ecx

; 530  : 	if( m_bArleadyCallWeapon )

  0000e	80 be 60 0a 00
	00 00		 cmp	 BYTE PTR [esi+2656], 0
  00015	0f 85 b6 00 00
	00		 jne	 $LN7@CallAttrib

; 531  : 		return;
; 532  : 
; 533  : 	if( m_CallWeaponInfoList.empty() )

  0001b	8b 86 50 0a 00
	00		 mov	 eax, DWORD PTR [esi+2640]
  00021	3b 86 54 0a 00
	00		 cmp	 eax, DWORD PTR [esi+2644]
  00027	0f 84 a4 00 00
	00		 je	 $LN7@CallAttrib

; 534  : 		return;
; 535  : 
; 536  : 	ioBaseChar *pOwner = GetOwner();

  0002d	e8 00 00 00 00	 call	 ?GetOwner@ioWeapon@@QBEPAVioBaseChar@@XZ ; ioWeapon::GetOwner

; 537  : 	if( !pOwner )

  00032	85 c0		 test	 eax, eax
  00034	0f 84 97 00 00
	00		 je	 $LN7@CallAttrib

; 538  : 		return;
; 539  : 
; 540  : 	DWORD dwCurTime = FRAMEGETTIME();

  0003a	ff 15 00 00 00
	00		 call	 DWORD PTR __imp_?GetSingleton@ioFrameTimer@@SAAAV1@XZ
  00040	8b c8		 mov	 ecx, eax
  00042	ff 15 00 00 00
	00		 call	 DWORD PTR __imp_?GetLoopSec@ioFrameTimer@@QBEKXZ

; 541  : 	DWORD dwCurGenerateTime = dwCurTime;
; 542  : 
; 543  : 	WeaponInfoList::iterator iter;
; 544  : 	for( iter = m_CallWeaponInfoList.begin(); iter != m_CallWeaponInfoList.end(); ++iter )

  00048	8b be 50 0a 00
	00		 mov	 edi, DWORD PTR [esi+2640]
  0004e	8b d8		 mov	 ebx, eax
  00050	eb 70		 jmp	 SHORT $LN59@CallAttrib
$LL26@CallAttrib:

; 545  : 	{
; 546  : 		WeaponInfo pInfo = (*iter);

  00052	57		 push	 edi
  00053	8d 4d b8	 lea	 ecx, DWORD PTR _pInfo$569023[ebp]
  00056	e8 00 00 00 00	 call	 ??0WeaponInfo@@QAE@ABU0@@Z
  0005b	83 65 fc 00	 and	 DWORD PTR __$EHRec$[ebp+8], 0

; 547  : 
; 548  : 		g_WeaponMgr.SetReserveCallWeaponInfo( GetOwnerName(), 
; 549  : 			pInfo,
; 550  : 			GetPosition(),
; 551  : 			D3DXVECTOR3(0.0f, FLOAT1, 0.0f),
; 552  : 			dwCurGenerateTime + pInfo.m_dwCallTime,
; 553  : 			m_dwWeaponIdx );

  0005f	b8 01 00 00 00	 mov	 eax, 1
  00064	0f 57 c0	 xorps	 xmm0, xmm0
  00067	89 45 e0	 mov	 DWORD PTR tv352[ebp], eax
  0006a	db 45 e0	 fild	 DWORD PTR tv352[ebp]
  0006d	f3 0f 11 45 e4	 movss	 DWORD PTR $T569025[ebp], xmm0
  00072	85 c0		 test	 eax, eax
  00074	79 06		 jns	 SHORT $LN58@CallAttrib
  00076	d8 05 00 00 00
	00		 fadd	 DWORD PTR __real@4f800000
$LN58@CallAttrib:
  0007c	8b 45 d4	 mov	 eax, DWORD PTR _pInfo$569023[ebp+28]
  0007f	d9 5d e8	 fstp	 DWORD PTR $T569025[ebp+4]
  00082	6a 00		 push	 0
  00084	ff b6 b8 04 00
	00		 push	 DWORD PTR [esi+1208]
  0008a	03 c3		 add	 eax, ebx
  0008c	50		 push	 eax
  0008d	8d 45 e4	 lea	 eax, DWORD PTR $T569025[ebp]
  00090	50		 push	 eax
  00091	8b 06		 mov	 eax, DWORD PTR [esi]
  00093	8b ce		 mov	 ecx, esi
  00095	f3 0f 11 45 ec	 movss	 DWORD PTR $T569025[ebp+8], xmm0
  0009a	ff 50 70	 call	 DWORD PTR [eax+112]
  0009d	50		 push	 eax
  0009e	8d 45 b8	 lea	 eax, DWORD PTR _pInfo$569023[ebp]
  000a1	50		 push	 eax
  000a2	8d 46 10	 lea	 eax, DWORD PTR [esi+16]
  000a5	50		 push	 eax
  000a6	e8 00 00 00 00	 call	 ?GetSingleton@ioWeaponManager@@SAAAV1@XZ ; ioWeaponManager::GetSingleton
  000ab	8b c8		 mov	 ecx, eax
  000ad	e8 00 00 00 00	 call	 ?SetReserveCallWeaponInfo@ioWeaponManager@@QAEXABVioHashString@@ABUWeaponInfo@@ABUD3DXVECTOR3@@2KK_N@Z ; ioWeaponManager::SetReserveCallWeaponInfo

; 554  : 	}

  000b2	83 4d fc ff	 or	 DWORD PTR __$EHRec$[ebp+8], -1
  000b6	8d 4d c0	 lea	 ecx, DWORD PTR _pInfo$569023[ebp+8]
  000b9	ff 15 00 00 00
	00		 call	 DWORD PTR __imp_??1ioHashString@@QAE@XZ
  000bf	83 c7 28	 add	 edi, 40			; 00000028H
$LN59@CallAttrib:

; 541  : 	DWORD dwCurGenerateTime = dwCurTime;
; 542  : 
; 543  : 	WeaponInfoList::iterator iter;
; 544  : 	for( iter = m_CallWeaponInfoList.begin(); iter != m_CallWeaponInfoList.end(); ++iter )

  000c2	3b be 54 0a 00
	00		 cmp	 edi, DWORD PTR [esi+2644]
  000c8	75 88		 jne	 SHORT $LL26@CallAttrib

; 555  : 
; 556  : 	m_bArleadyCallWeapon = true;	

  000ca	c6 86 60 0a 00
	00 01		 mov	 BYTE PTR [esi+2656], 1
$LN7@CallAttrib:

; 557  : }

  000d1	e8 00 00 00 00	 call	 __EH_epilog3_GS
  000d6	c3		 ret	 0
_TEXT	ENDS
;	COMDAT text$x
text$x	SEGMENT
__unwindfunclet$?CallAttribute@ioPullWeapon2@@QAEXXZ$0:
  00000	8d 4d b8	 lea	 ecx, DWORD PTR _pInfo$569023[ebp]
  00003	e9 00 00 00 00	 jmp	 ??1WeaponInfo@@QAE@XZ
__ehhandler$?CallAttribute@ioPullWeapon2@@QAEXXZ:
  00008	8b 54 24 08	 mov	 edx, DWORD PTR [esp+8]
  0000c	8d 42 0c	 lea	 eax, DWORD PTR [edx+12]
  0000f	8b 4a b4	 mov	 ecx, DWORD PTR [edx-76]
  00012	33 c8		 xor	 ecx, eax
  00014	e8 00 00 00 00	 call	 @__security_check_cookie@4
  00019	8b 4a fc	 mov	 ecx, DWORD PTR [edx-4]
  0001c	33 c8		 xor	 ecx, eax
  0001e	e8 00 00 00 00	 call	 @__security_check_cookie@4
  00023	b8 00 00 00 00	 mov	 eax, OFFSET __ehfuncinfo$?CallAttribute@ioPullWeapon2@@QAEXXZ
  00028	e9 00 00 00 00	 jmp	 ___CxxFrameHandler3
text$x	ENDS
?CallAttribute@ioPullWeapon2@@QAEXXZ ENDP		; ioPullWeapon2::CallAttribute
PUBLIC	??$_Cons_val@V?$allocator@UWeaponInfo@@@std@@UWeaponInfo@@ABU3@@std@@YAXAAV?$allocator@UWeaponInfo@@@0@PAUWeaponInfo@@ABU2@@Z ; std::_Cons_val<std::allocator<WeaponInfo>,WeaponInfo,WeaponInfo const &>
; Function compile flags: /Ogsp
; File c:\program files (x86)\microsoft visual studio 10.0\vc\include\xmemory
;	COMDAT ??$_Cons_val@V?$allocator@UWeaponInfo@@@std@@UWeaponInfo@@ABU3@@std@@YAXAAV?$allocator@UWeaponInfo@@@0@PAUWeaponInfo@@ABU2@@Z
_TEXT	SEGMENT
__Alval$ = 8						; size = 4
__Pdest$ = 12						; size = 4
__Src$ = 16						; size = 4
??$_Cons_val@V?$allocator@UWeaponInfo@@@std@@UWeaponInfo@@ABU3@@std@@YAXAAV?$allocator@UWeaponInfo@@@0@PAUWeaponInfo@@ABU2@@Z PROC ; std::_Cons_val<std::allocator<WeaponInfo>,WeaponInfo,WeaponInfo const &>, COMDAT

; 279  : 	{	// construct using allocator

  00000	55		 push	 ebp
  00001	8b ec		 mov	 ebp, esp

; 280  : 	_Alval.construct(_Pdest, _STD forward<_Ty2>(_Src));

  00003	ff 75 10	 push	 DWORD PTR __Src$[ebp]
  00006	ff 75 0c	 push	 DWORD PTR __Pdest$[ebp]
  00009	e8 00 00 00 00	 call	 ??$_Construct@UWeaponInfo@@ABU1@@std@@YAXPAUWeaponInfo@@ABU1@@Z ; std::_Construct<WeaponInfo,WeaponInfo const &>
  0000e	59		 pop	 ecx
  0000f	59		 pop	 ecx

; 281  : 	}

  00010	5d		 pop	 ebp
  00011	c3		 ret	 0
??$_Cons_val@V?$allocator@UWeaponInfo@@@std@@UWeaponInfo@@ABU3@@std@@YAXAAV?$allocator@UWeaponInfo@@@0@PAUWeaponInfo@@ABU2@@Z ENDP ; std::_Cons_val<std::allocator<WeaponInfo>,WeaponInfo,WeaponInfo const &>
_TEXT	ENDS
PUBLIC	??$_Dest_val@V?$allocator@VioHashString@@@std@@VioHashString@@@std@@YAXAAV?$allocator@VioHashString@@@0@PAVioHashString@@@Z ; std::_Dest_val<std::allocator<ioHashString>,ioHashString>
; Function compile flags: /Ogsp
;	COMDAT ??$_Dest_val@V?$allocator@VioHashString@@@std@@VioHashString@@@std@@YAXAAV?$allocator@VioHashString@@@0@PAVioHashString@@@Z
_TEXT	SEGMENT
__Alval$ = 8						; size = 4
__Pdest$ = 12						; size = 4
??$_Dest_val@V?$allocator@VioHashString@@@std@@VioHashString@@@std@@YAXAAV?$allocator@VioHashString@@@0@PAVioHashString@@@Z PROC ; std::_Dest_val<std::allocator<ioHashString>,ioHashString>, COMDAT

; 286  : 	{	// destroy using allocator

  00000	55		 push	 ebp
  00001	8b ec		 mov	 ebp, esp

; 287  : 	_Alval.destroy(_Pdest);

  00003	8b 4d 0c	 mov	 ecx, DWORD PTR __Pdest$[ebp]

; 288  : 	}

  00006	5d		 pop	 ebp

; 287  : 	_Alval.destroy(_Pdest);

  00007	ff 25 00 00 00
	00		 jmp	 DWORD PTR __imp_??1ioHashString@@QAE@XZ
??$_Dest_val@V?$allocator@VioHashString@@@std@@VioHashString@@@std@@YAXAAV?$allocator@VioHashString@@@0@PAVioHashString@@@Z ENDP ; std::_Dest_val<std::allocator<ioHashString>,ioHashString>
_TEXT	ENDS
PUBLIC	??$_Dest_val@V?$allocator@UWeaponInfo@@@std@@UWeaponInfo@@@std@@YAXAAV?$allocator@UWeaponInfo@@@0@PAUWeaponInfo@@@Z ; std::_Dest_val<std::allocator<WeaponInfo>,WeaponInfo>
; Function compile flags: /Ogsp
;	COMDAT ??$_Dest_val@V?$allocator@UWeaponInfo@@@std@@UWeaponInfo@@@std@@YAXAAV?$allocator@UWeaponInfo@@@0@PAUWeaponInfo@@@Z
_TEXT	SEGMENT
__Alval$ = 8						; size = 4
__Pdest$ = 12						; size = 4
??$_Dest_val@V?$allocator@UWeaponInfo@@@std@@UWeaponInfo@@@std@@YAXAAV?$allocator@UWeaponInfo@@@0@PAUWeaponInfo@@@Z PROC ; std::_Dest_val<std::allocator<WeaponInfo>,WeaponInfo>, COMDAT

; 286  : 	{	// destroy using allocator

  00000	55		 push	 ebp
  00001	8b ec		 mov	 ebp, esp

; 287  : 	_Alval.destroy(_Pdest);

  00003	8b 4d 0c	 mov	 ecx, DWORD PTR __Pdest$[ebp]
  00006	83 c1 08	 add	 ecx, 8

; 288  : 	}

  00009	5d		 pop	 ebp

; 287  : 	_Alval.destroy(_Pdest);

  0000a	ff 25 00 00 00
	00		 jmp	 DWORD PTR __imp_??1ioHashString@@QAE@XZ
??$_Dest_val@V?$allocator@UWeaponInfo@@@std@@UWeaponInfo@@@std@@YAXAAV?$allocator@UWeaponInfo@@@0@PAUWeaponInfo@@@Z ENDP ; std::_Dest_val<std::allocator<WeaponInfo>,WeaponInfo>
_TEXT	ENDS
PUBLIC	??$_Uninit_move@PAUWeaponInfo@@PAU1@V?$allocator@UWeaponInfo@@@std@@U1@@std@@YAPAUWeaponInfo@@PAU1@00AAV?$allocator@UWeaponInfo@@@0@0U_Nonscalar_ptr_iterator_tag@0@@Z ; std::_Uninit_move<WeaponInfo *,WeaponInfo *,std::allocator<WeaponInfo>,WeaponInfo>
EXTRN	__EH_prolog3_catch:PROC
;	COMDAT xdata$x
; File d:\lost saga for developer\youtube\tutorial\source\src\lsclient\playentityhelpstruct.h
xdata$x	SEGMENT
__catchsym$??$_Uninit_move@PAUWeaponInfo@@PAU1@V?$allocator@UWeaponInfo@@@std@@U1@@std@@YAPAUWeaponInfo@@PAU1@00AAV?$allocator@UWeaponInfo@@@0@0U_Nonscalar_ptr_iterator_tag@0@@Z$3 DD 040H
	DD	00H
	DD	00H
	DD	FLAT:__catch$??$_Uninit_move@PAUWeaponInfo@@PAU1@V?$allocator@UWeaponInfo@@@std@@U1@@std@@YAPAUWeaponInfo@@PAU1@00AAV?$allocator@UWeaponInfo@@@0@0U_Nonscalar_ptr_iterator_tag@0@@Z$0
__unwindtable$??$_Uninit_move@PAUWeaponInfo@@PAU1@V?$allocator@UWeaponInfo@@@std@@U1@@std@@YAPAUWeaponInfo@@PAU1@00AAV?$allocator@UWeaponInfo@@@0@0U_Nonscalar_ptr_iterator_tag@0@@Z DD 0ffffffffH
	DD	00H
	DD	0ffffffffH
	DD	00H
__tryblocktable$??$_Uninit_move@PAUWeaponInfo@@PAU1@V?$allocator@UWeaponInfo@@@std@@U1@@std@@YAPAUWeaponInfo@@PAU1@00AAV?$allocator@UWeaponInfo@@@0@0U_Nonscalar_ptr_iterator_tag@0@@Z DD 00H
	DD	00H
	DD	01H
	DD	01H
	DD	FLAT:__catchsym$??$_Uninit_move@PAUWeaponInfo@@PAU1@V?$allocator@UWeaponInfo@@@std@@U1@@std@@YAPAUWeaponInfo@@PAU1@00AAV?$allocator@UWeaponInfo@@@0@0U_Nonscalar_ptr_iterator_tag@0@@Z$3
__ehfuncinfo$??$_Uninit_move@PAUWeaponInfo@@PAU1@V?$allocator@UWeaponInfo@@@std@@U1@@std@@YAPAUWeaponInfo@@PAU1@00AAV?$allocator@UWeaponInfo@@@0@0U_Nonscalar_ptr_iterator_tag@0@@Z DD 019930522H
	DD	02H
	DD	FLAT:__unwindtable$??$_Uninit_move@PAUWeaponInfo@@PAU1@V?$allocator@UWeaponInfo@@@std@@U1@@std@@YAPAUWeaponInfo@@PAU1@00AAV?$allocator@UWeaponInfo@@@0@0U_Nonscalar_ptr_iterator_tag@0@@Z
	DD	01H
	DD	FLAT:__tryblocktable$??$_Uninit_move@PAUWeaponInfo@@PAU1@V?$allocator@UWeaponInfo@@@std@@U1@@std@@YAPAUWeaponInfo@@PAU1@00AAV?$allocator@UWeaponInfo@@@0@0U_Nonscalar_ptr_iterator_tag@0@@Z
	DD	2 DUP(00H)
	DD	00H
	DD	01H
; Function compile flags: /Ogsp
; File c:\program files (x86)\microsoft visual studio 10.0\vc\include\memory
xdata$x	ENDS
;	COMDAT ??$_Uninit_move@PAUWeaponInfo@@PAU1@V?$allocator@UWeaponInfo@@@std@@U1@@std@@YAPAUWeaponInfo@@PAU1@00AAV?$allocator@UWeaponInfo@@@0@0U_Nonscalar_ptr_iterator_tag@0@@Z
_TEXT	SEGMENT
__Next$ = -20						; size = 4
__$EHRec$ = -16						; size = 16
__First$ = 8						; size = 4
__Last$ = 12						; size = 4
__Dest$ = 16						; size = 4
__Al$ = 20						; size = 4
___formal$ = 24						; size = 4
___formal$ = 28						; size = 1
??$_Uninit_move@PAUWeaponInfo@@PAU1@V?$allocator@UWeaponInfo@@@std@@U1@@std@@YAPAUWeaponInfo@@PAU1@00AAV?$allocator@UWeaponInfo@@@0@0U_Nonscalar_ptr_iterator_tag@0@@Z PROC ; std::_Uninit_move<WeaponInfo *,WeaponInfo *,std::allocator<WeaponInfo>,WeaponInfo>, COMDAT

; 424  : 	{	// move [_First, _Last) to raw _Dest, using _Al, arbitrary type

  00000	6a 08		 push	 8
  00002	b8 00 00 00 00	 mov	 eax, __ehhandler$??$_Uninit_move@PAUWeaponInfo@@PAU1@V?$allocator@UWeaponInfo@@@std@@U1@@std@@YAPAUWeaponInfo@@PAU1@00AAV?$allocator@UWeaponInfo@@@0@0U_Nonscalar_ptr_iterator_tag@0@@Z
  00007	e8 00 00 00 00	 call	 __EH_prolog3_catch

; 425  : 	_DEBUG_RANGE(_First, _Last);
; 426  : 	_DEBUG_POINTER(_Dest);
; 427  : 	_FwdIt _Next = _Dest;

  0000c	8b 45 10	 mov	 eax, DWORD PTR __Dest$[ebp]

; 428  : 
; 429  : 	_TRY_BEGIN

  0000f	83 65 fc 00	 and	 DWORD PTR __$EHRec$[ebp+12], 0
  00013	8b 75 08	 mov	 esi, DWORD PTR __First$[ebp]
  00016	89 45 ec	 mov	 DWORD PTR __Next$[ebp], eax
$LL6@Uninit_mov:

; 430  : 	for (; _First != _Last; ++_Dest, ++_First)

  00019	3b 75 0c	 cmp	 esi, DWORD PTR __Last$[ebp]
  0001c	74 37		 je	 SHORT $LN4@Uninit_mov

; 431  : 		_Cons_val(_Al, _Dest, (_Valty &&)*_First);

  0001e	56		 push	 esi
  0001f	ff 75 10	 push	 DWORD PTR __Dest$[ebp]
  00022	ff 75 14	 push	 DWORD PTR __Al$[ebp]
  00025	e8 00 00 00 00	 call	 ??$_Cons_val@V?$allocator@UWeaponInfo@@@std@@UWeaponInfo@@U3@@std@@YAXAAV?$allocator@UWeaponInfo@@@0@PAUWeaponInfo@@$$QAU2@@Z ; std::_Cons_val<std::allocator<WeaponInfo>,WeaponInfo,WeaponInfo>
  0002a	83 45 10 28	 add	 DWORD PTR __Dest$[ebp], 40 ; 00000028H
  0002e	83 c4 0c	 add	 esp, 12			; 0000000cH
  00031	83 c6 28	 add	 esi, 40			; 00000028H
  00034	eb e3		 jmp	 SHORT $LL6@Uninit_mov
__catch$??$_Uninit_move@PAUWeaponInfo@@PAU1@V?$allocator@UWeaponInfo@@@std@@U1@@std@@YAPAUWeaponInfo@@PAU1@00AAV?$allocator@UWeaponInfo@@@0@0U_Nonscalar_ptr_iterator_tag@0@@Z$0:

; 432  : 	_CATCH_ALL
; 433  : 	for (; _Next != _Dest; ++_Next)

  00036	8b 75 ec	 mov	 esi, DWORD PTR __Next$[ebp]
  00039	eb 0c		 jmp	 SHORT $LN32@Uninit_mov
$LL3@Uninit_mov:

; 434  : 		_Dest_val(_Al, _Next);

  0003b	8d 4e 08	 lea	 ecx, DWORD PTR [esi+8]
  0003e	ff 15 00 00 00
	00		 call	 DWORD PTR __imp_??1ioHashString@@QAE@XZ
  00044	83 c6 28	 add	 esi, 40			; 00000028H
$LN32@Uninit_mov:

; 432  : 	_CATCH_ALL
; 433  : 	for (; _Next != _Dest; ++_Next)

  00047	3b 75 10	 cmp	 esi, DWORD PTR __Dest$[ebp]
  0004a	75 ef		 jne	 SHORT $LL3@Uninit_mov

; 435  : 	_RERAISE;

  0004c	6a 00		 push	 0
  0004e	6a 00		 push	 0
  00050	e8 00 00 00 00	 call	 __CxxThrowException@8
$LN33@Uninit_mov:
$LN4@Uninit_mov:

; 436  : 	_CATCH_END
; 437  : 	return (_Dest);

  00055	8b 45 10	 mov	 eax, DWORD PTR __Dest$[ebp]

; 438  : 	}

  00058	e8 00 00 00 00	 call	 __EH_epilog3
  0005d	c3		 ret	 0
$LN31@Uninit_mov:
_TEXT	ENDS
;	COMDAT text$x
text$x	SEGMENT
__ehhandler$??$_Uninit_move@PAUWeaponInfo@@PAU1@V?$allocator@UWeaponInfo@@@std@@U1@@std@@YAPAUWeaponInfo@@PAU1@00AAV?$allocator@UWeaponInfo@@@0@0U_Nonscalar_ptr_iterator_tag@0@@Z:
  00000	8b 54 24 08	 mov	 edx, DWORD PTR [esp+8]
  00004	8d 42 0c	 lea	 eax, DWORD PTR [edx+12]
  00007	8b 4a e8	 mov	 ecx, DWORD PTR [edx-24]
  0000a	33 c8		 xor	 ecx, eax
  0000c	e8 00 00 00 00	 call	 @__security_check_cookie@4
  00011	b8 00 00 00 00	 mov	 eax, OFFSET __ehfuncinfo$??$_Uninit_move@PAUWeaponInfo@@PAU1@V?$allocator@UWeaponInfo@@@std@@U1@@std@@YAPAUWeaponInfo@@PAU1@00AAV?$allocator@UWeaponInfo@@@0@0U_Nonscalar_ptr_iterator_tag@0@@Z
  00016	e9 00 00 00 00	 jmp	 ___CxxFrameHandler3
text$x	ENDS
??$_Uninit_move@PAUWeaponInfo@@PAU1@V?$allocator@UWeaponInfo@@@std@@U1@@std@@YAPAUWeaponInfo@@PAU1@00AAV?$allocator@UWeaponInfo@@@0@0U_Nonscalar_ptr_iterator_tag@0@@Z ENDP ; std::_Uninit_move<WeaponInfo *,WeaponInfo *,std::allocator<WeaponInfo>,WeaponInfo>
PUBLIC	??$_Uninit_move@PAVioHashString@@PAV1@V?$allocator@VioHashString@@@std@@V1@@std@@YAPAVioHashString@@PAV1@00AAV?$allocator@VioHashString@@@0@0U_Nonscalar_ptr_iterator_tag@0@@Z ; std::_Uninit_move<ioHashString *,ioHashString *,std::allocator<ioHashString>,ioHashString>
;	COMDAT xdata$x
; File c:\program files (x86)\microsoft visual studio 10.0\vc\include\vector
xdata$x	SEGMENT
__catchsym$??$_Uninit_move@PAVioHashString@@PAV1@V?$allocator@VioHashString@@@std@@V1@@std@@YAPAVioHashString@@PAV1@00AAV?$allocator@VioHashString@@@0@0U_Nonscalar_ptr_iterator_tag@0@@Z$2 DD 040H
	DD	00H
	DD	00H
	DD	FLAT:__catch$??$_Uninit_move@PAVioHashString@@PAV1@V?$allocator@VioHashString@@@std@@V1@@std@@YAPAVioHashString@@PAV1@00AAV?$allocator@VioHashString@@@0@0U_Nonscalar_ptr_iterator_tag@0@@Z$0
__unwindtable$??$_Uninit_move@PAVioHashString@@PAV1@V?$allocator@VioHashString@@@std@@V1@@std@@YAPAVioHashString@@PAV1@00AAV?$allocator@VioHashString@@@0@0U_Nonscalar_ptr_iterator_tag@0@@Z DD 0ffffffffH
	DD	00H
	DD	0ffffffffH
	DD	00H
__tryblocktable$??$_Uninit_move@PAVioHashString@@PAV1@V?$allocator@VioHashString@@@std@@V1@@std@@YAPAVioHashString@@PAV1@00AAV?$allocator@VioHashString@@@0@0U_Nonscalar_ptr_iterator_tag@0@@Z DD 00H
	DD	00H
	DD	01H
	DD	01H
	DD	FLAT:__catchsym$??$_Uninit_move@PAVioHashString@@PAV1@V?$allocator@VioHashString@@@std@@V1@@std@@YAPAVioHashString@@PAV1@00AAV?$allocator@VioHashString@@@0@0U_Nonscalar_ptr_iterator_tag@0@@Z$2
__ehfuncinfo$??$_Uninit_move@PAVioHashString@@PAV1@V?$allocator@VioHashString@@@std@@V1@@std@@YAPAVioHashString@@PAV1@00AAV?$allocator@VioHashString@@@0@0U_Nonscalar_ptr_iterator_tag@0@@Z DD 019930522H
	DD	02H
	DD	FLAT:__unwindtable$??$_Uninit_move@PAVioHashString@@PAV1@V?$allocator@VioHashString@@@std@@V1@@std@@YAPAVioHashString@@PAV1@00AAV?$allocator@VioHashString@@@0@0U_Nonscalar_ptr_iterator_tag@0@@Z
	DD	01H
	DD	FLAT:__tryblocktable$??$_Uninit_move@PAVioHashString@@PAV1@V?$allocator@VioHashString@@@std@@V1@@std@@YAPAVioHashString@@PAV1@00AAV?$allocator@VioHashString@@@0@0U_Nonscalar_ptr_iterator_tag@0@@Z
	DD	2 DUP(00H)
	DD	00H
	DD	01H
; Function compile flags: /Ogsp
; File c:\program files (x86)\microsoft visual studio 10.0\vc\include\memory
xdata$x	ENDS
;	COMDAT ??$_Uninit_move@PAVioHashString@@PAV1@V?$allocator@VioHashString@@@std@@V1@@std@@YAPAVioHashString@@PAV1@00AAV?$allocator@VioHashString@@@0@0U_Nonscalar_ptr_iterator_tag@0@@Z
_TEXT	SEGMENT
__Next$ = -20						; size = 4
__$EHRec$ = -16						; size = 16
__First$ = 8						; size = 4
__Last$ = 12						; size = 4
__Dest$ = 16						; size = 4
__Al$ = 20						; size = 4
___formal$ = 24						; size = 4
___formal$ = 28						; size = 1
??$_Uninit_move@PAVioHashString@@PAV1@V?$allocator@VioHashString@@@std@@V1@@std@@YAPAVioHashString@@PAV1@00AAV?$allocator@VioHashString@@@0@0U_Nonscalar_ptr_iterator_tag@0@@Z PROC ; std::_Uninit_move<ioHashString *,ioHashString *,std::allocator<ioHashString>,ioHashString>, COMDAT

; 424  : 	{	// move [_First, _Last) to raw _Dest, using _Al, arbitrary type

  00000	6a 08		 push	 8
  00002	b8 00 00 00 00	 mov	 eax, __ehhandler$??$_Uninit_move@PAVioHashString@@PAV1@V?$allocator@VioHashString@@@std@@V1@@std@@YAPAVioHashString@@PAV1@00AAV?$allocator@VioHashString@@@0@0U_Nonscalar_ptr_iterator_tag@0@@Z
  00007	e8 00 00 00 00	 call	 __EH_prolog3_catch

; 425  : 	_DEBUG_RANGE(_First, _Last);
; 426  : 	_DEBUG_POINTER(_Dest);
; 427  : 	_FwdIt _Next = _Dest;

  0000c	8b 45 10	 mov	 eax, DWORD PTR __Dest$[ebp]

; 428  : 
; 429  : 	_TRY_BEGIN

  0000f	83 65 fc 00	 and	 DWORD PTR __$EHRec$[ebp+12], 0
  00013	8b 75 08	 mov	 esi, DWORD PTR __First$[ebp]
  00016	89 45 ec	 mov	 DWORD PTR __Next$[ebp], eax
$LL6@Uninit_mov@2:

; 430  : 	for (; _First != _Last; ++_Dest, ++_First)

  00019	3b 75 0c	 cmp	 esi, DWORD PTR __Last$[ebp]
  0001c	74 33		 je	 SHORT $LN4@Uninit_mov@2

; 431  : 		_Cons_val(_Al, _Dest, (_Valty &&)*_First);

  0001e	8b 4d 14	 mov	 ecx, DWORD PTR __Al$[ebp]
  00021	56		 push	 esi
  00022	ff 75 10	 push	 DWORD PTR __Dest$[ebp]
  00025	e8 00 00 00 00	 call	 ?construct@?$allocator@VioHashString@@@std@@QAEXPAVioHashString@@$$QAV3@@Z ; std::allocator<ioHashString>::construct
  0002a	83 45 10 10	 add	 DWORD PTR __Dest$[ebp], 16 ; 00000010H
  0002e	83 c6 10	 add	 esi, 16			; 00000010H
  00031	eb e6		 jmp	 SHORT $LL6@Uninit_mov@2
__catch$??$_Uninit_move@PAVioHashString@@PAV1@V?$allocator@VioHashString@@@std@@V1@@std@@YAPAVioHashString@@PAV1@00AAV?$allocator@VioHashString@@@0@0U_Nonscalar_ptr_iterator_tag@0@@Z$0:

; 432  : 	_CATCH_ALL
; 433  : 	for (; _Next != _Dest; ++_Next)

  00033	8b 75 ec	 mov	 esi, DWORD PTR __Next$[ebp]
  00036	eb 0b		 jmp	 SHORT $LN33@Uninit_mov@2
$LL3@Uninit_mov@2:

; 434  : 		_Dest_val(_Al, _Next);

  00038	8b ce		 mov	 ecx, esi
  0003a	ff 15 00 00 00
	00		 call	 DWORD PTR __imp_??1ioHashString@@QAE@XZ
  00040	83 c6 10	 add	 esi, 16			; 00000010H
$LN33@Uninit_mov@2:

; 432  : 	_CATCH_ALL
; 433  : 	for (; _Next != _Dest; ++_Next)

  00043	3b 75 10	 cmp	 esi, DWORD PTR __Dest$[ebp]
  00046	75 f0		 jne	 SHORT $LL3@Uninit_mov@2

; 435  : 	_RERAISE;

  00048	6a 00		 push	 0
  0004a	6a 00		 push	 0
  0004c	e8 00 00 00 00	 call	 __CxxThrowException@8
$LN34@Uninit_mov@2:
$LN4@Uninit_mov@2:

; 436  : 	_CATCH_END
; 437  : 	return (_Dest);

  00051	8b 45 10	 mov	 eax, DWORD PTR __Dest$[ebp]

; 438  : 	}

  00054	e8 00 00 00 00	 call	 __EH_epilog3
  00059	c3		 ret	 0
$LN32@Uninit_mov@2:
_TEXT	ENDS
;	COMDAT text$x
text$x	SEGMENT
__ehhandler$??$_Uninit_move@PAVioHashString@@PAV1@V?$allocator@VioHashString@@@std@@V1@@std@@YAPAVioHashString@@PAV1@00AAV?$allocator@VioHashString@@@0@0U_Nonscalar_ptr_iterator_tag@0@@Z:
  00000	8b 54 24 08	 mov	 edx, DWORD PTR [esp+8]
  00004	8d 42 0c	 lea	 eax, DWORD PTR [edx+12]
  00007	8b 4a e8	 mov	 ecx, DWORD PTR [edx-24]
  0000a	33 c8		 xor	 ecx, eax
  0000c	e8 00 00 00 00	 call	 @__security_check_cookie@4
  00011	b8 00 00 00 00	 mov	 eax, OFFSET __ehfuncinfo$??$_Uninit_move@PAVioHashString@@PAV1@V?$allocator@VioHashString@@@std@@V1@@std@@YAPAVioHashString@@PAV1@00AAV?$allocator@VioHashString@@@0@0U_Nonscalar_ptr_iterator_tag@0@@Z
  00016	e9 00 00 00 00	 jmp	 ___CxxFrameHandler3
text$x	ENDS
??$_Uninit_move@PAVioHashString@@PAV1@V?$allocator@VioHashString@@@std@@V1@@std@@YAPAVioHashString@@PAV1@00AAV?$allocator@VioHashString@@@0@0U_Nonscalar_ptr_iterator_tag@0@@Z ENDP ; std::_Uninit_move<ioHashString *,ioHashString *,std::allocator<ioHashString>,ioHashString>
PUBLIC	??$_Destroy_range@V?$allocator@VioHashString@@@std@@@std@@YAXPAVioHashString@@0AAV?$allocator@VioHashString@@@0@U_Nonscalar_ptr_iterator_tag@0@@Z ; std::_Destroy_range<std::allocator<ioHashString> >
; Function compile flags: /Ogsp
; File c:\program files (x86)\microsoft visual studio 10.0\vc\include\xmemory
;	COMDAT ??$_Destroy_range@V?$allocator@VioHashString@@@std@@@std@@YAXPAVioHashString@@0AAV?$allocator@VioHashString@@@0@U_Nonscalar_ptr_iterator_tag@0@@Z
_TEXT	SEGMENT
__First$ = 8						; size = 4
__Last$ = 12						; size = 4
__Al$ = 16						; size = 4
___formal$ = 20						; size = 1
??$_Destroy_range@V?$allocator@VioHashString@@@std@@@std@@YAXPAVioHashString@@0AAV?$allocator@VioHashString@@@0@U_Nonscalar_ptr_iterator_tag@0@@Z PROC ; std::_Destroy_range<std::allocator<ioHashString> >, COMDAT

; 95   : 	{	// destroy [_First, _Last), arbitrary type

  00000	55		 push	 ebp
  00001	8b ec		 mov	 ebp, esp
  00003	56		 push	 esi

; 96   : 	for (; _First != _Last; ++_First)

  00004	8b 75 08	 mov	 esi, DWORD PTR __First$[ebp]
  00007	eb 0b		 jmp	 SHORT $LN17@Destroy_ra
$LL3@Destroy_ra:

; 97   : 		_Dest_val(_Al, _First);

  00009	8b ce		 mov	 ecx, esi
  0000b	ff 15 00 00 00
	00		 call	 DWORD PTR __imp_??1ioHashString@@QAE@XZ
  00011	83 c6 10	 add	 esi, 16			; 00000010H
$LN17@Destroy_ra:

; 96   : 	for (; _First != _Last; ++_First)

  00014	3b 75 0c	 cmp	 esi, DWORD PTR __Last$[ebp]
  00017	75 f0		 jne	 SHORT $LL3@Destroy_ra
  00019	5e		 pop	 esi

; 98   : 	}

  0001a	5d		 pop	 ebp
  0001b	c3		 ret	 0
??$_Destroy_range@V?$allocator@VioHashString@@@std@@@std@@YAXPAVioHashString@@0AAV?$allocator@VioHashString@@@0@U_Nonscalar_ptr_iterator_tag@0@@Z ENDP ; std::_Destroy_range<std::allocator<ioHashString> >
_TEXT	ENDS
PUBLIC	??$_Destroy_range@V?$allocator@UWeaponInfo@@@std@@@std@@YAXPAUWeaponInfo@@0AAV?$allocator@UWeaponInfo@@@0@U_Nonscalar_ptr_iterator_tag@0@@Z ; std::_Destroy_range<std::allocator<WeaponInfo> >
; Function compile flags: /Ogsp
;	COMDAT ??$_Destroy_range@V?$allocator@UWeaponInfo@@@std@@@std@@YAXPAUWeaponInfo@@0AAV?$allocator@UWeaponInfo@@@0@U_Nonscalar_ptr_iterator_tag@0@@Z
_TEXT	SEGMENT
__First$ = 8						; size = 4
__Last$ = 12						; size = 4
__Al$ = 16						; size = 4
___formal$ = 20						; size = 1
??$_Destroy_range@V?$allocator@UWeaponInfo@@@std@@@std@@YAXPAUWeaponInfo@@0AAV?$allocator@UWeaponInfo@@@0@U_Nonscalar_ptr_iterator_tag@0@@Z PROC ; std::_Destroy_range<std::allocator<WeaponInfo> >, COMDAT

; 95   : 	{	// destroy [_First, _Last), arbitrary type

  00000	55		 push	 ebp
  00001	8b ec		 mov	 ebp, esp
  00003	56		 push	 esi

; 96   : 	for (; _First != _Last; ++_First)

  00004	8b 75 08	 mov	 esi, DWORD PTR __First$[ebp]
  00007	eb 0c		 jmp	 SHORT $LN20@Destroy_ra@2
$LL3@Destroy_ra@2:

; 97   : 		_Dest_val(_Al, _First);

  00009	8d 4e 08	 lea	 ecx, DWORD PTR [esi+8]
  0000c	ff 15 00 00 00
	00		 call	 DWORD PTR __imp_??1ioHashString@@QAE@XZ
  00012	83 c6 28	 add	 esi, 40			; 00000028H
$LN20@Destroy_ra@2:

; 96   : 	for (; _First != _Last; ++_First)

  00015	3b 75 0c	 cmp	 esi, DWORD PTR __Last$[ebp]
  00018	75 ef		 jne	 SHORT $LL3@Destroy_ra@2
  0001a	5e		 pop	 esi

; 98   : 	}

  0001b	5d		 pop	 ebp
  0001c	c3		 ret	 0
??$_Destroy_range@V?$allocator@UWeaponInfo@@@std@@@std@@YAXPAUWeaponInfo@@0AAV?$allocator@UWeaponInfo@@@0@U_Nonscalar_ptr_iterator_tag@0@@Z ENDP ; std::_Destroy_range<std::allocator<WeaponInfo> >
_TEXT	ENDS
PUBLIC	??$_Uninitialized_move@PAUWeaponInfo@@PAU1@V?$allocator@UWeaponInfo@@@std@@@std@@YAPAUWeaponInfo@@PAU1@00AAV?$allocator@UWeaponInfo@@@0@@Z ; std::_Uninitialized_move<WeaponInfo *,WeaponInfo *,std::allocator<WeaponInfo> >
; Function compile flags: /Ogsp
; File c:\program files (x86)\microsoft visual studio 10.0\vc\include\memory
;	COMDAT ??$_Uninitialized_move@PAUWeaponInfo@@PAU1@V?$allocator@UWeaponInfo@@@std@@@std@@YAPAUWeaponInfo@@PAU1@00AAV?$allocator@UWeaponInfo@@@0@@Z
_TEXT	SEGMENT
__Cat$574744 = -4					; size = 1
__First$ = 8						; size = 4
__Last$ = 12						; size = 4
__Dest$ = 16						; size = 4
__Al$ = 20						; size = 4
??$_Uninitialized_move@PAUWeaponInfo@@PAU1@V?$allocator@UWeaponInfo@@@std@@@std@@YAPAUWeaponInfo@@PAU1@00AAV?$allocator@UWeaponInfo@@@0@@Z PROC ; std::_Uninitialized_move<WeaponInfo *,WeaponInfo *,std::allocator<WeaponInfo> >, COMDAT

; 469  : 	{	// move [_First, _Last) to raw _Dest, using _Al

  00000	55		 push	 ebp
  00001	8b ec		 mov	 ebp, esp
  00003	51		 push	 ecx

; 470  : 	return (_Uninit_move(_First, _Last, _Dest, _Al,
; 471  : 		_Val_type(_First), _Ptr_cat(_First, _Dest)));

  00004	ff 75 fc	 push	 DWORD PTR __Cat$574744[ebp]
  00007	6a 00		 push	 0
  00009	ff 75 14	 push	 DWORD PTR __Al$[ebp]
  0000c	ff 75 10	 push	 DWORD PTR __Dest$[ebp]
  0000f	ff 75 0c	 push	 DWORD PTR __Last$[ebp]
  00012	ff 75 08	 push	 DWORD PTR __First$[ebp]
  00015	e8 00 00 00 00	 call	 ??$_Uninit_move@PAUWeaponInfo@@PAU1@V?$allocator@UWeaponInfo@@@std@@U1@@std@@YAPAUWeaponInfo@@PAU1@00AAV?$allocator@UWeaponInfo@@@0@0U_Nonscalar_ptr_iterator_tag@0@@Z ; std::_Uninit_move<WeaponInfo *,WeaponInfo *,std::allocator<WeaponInfo>,WeaponInfo>
  0001a	83 c4 18	 add	 esp, 24			; 00000018H

; 472  : 	}

  0001d	c9		 leave
  0001e	c3		 ret	 0
??$_Uninitialized_move@PAUWeaponInfo@@PAU1@V?$allocator@UWeaponInfo@@@std@@@std@@YAPAUWeaponInfo@@PAU1@00AAV?$allocator@UWeaponInfo@@@0@@Z ENDP ; std::_Uninitialized_move<WeaponInfo *,WeaponInfo *,std::allocator<WeaponInfo> >
_TEXT	ENDS
PUBLIC	??$_Uninitialized_move@PAVioHashString@@PAV1@V?$allocator@VioHashString@@@std@@@std@@YAPAVioHashString@@PAV1@00AAV?$allocator@VioHashString@@@0@@Z ; std::_Uninitialized_move<ioHashString *,ioHashString *,std::allocator<ioHashString> >
; Function compile flags: /Ogsp
;	COMDAT ??$_Uninitialized_move@PAVioHashString@@PAV1@V?$allocator@VioHashString@@@std@@@std@@YAPAVioHashString@@PAV1@00AAV?$allocator@VioHashString@@@0@@Z
_TEXT	SEGMENT
__Cat$574754 = -4					; size = 1
__First$ = 8						; size = 4
__Last$ = 12						; size = 4
__Dest$ = 16						; size = 4
__Al$ = 20						; size = 4
??$_Uninitialized_move@PAVioHashString@@PAV1@V?$allocator@VioHashString@@@std@@@std@@YAPAVioHashString@@PAV1@00AAV?$allocator@VioHashString@@@0@@Z PROC ; std::_Uninitialized_move<ioHashString *,ioHashString *,std::allocator<ioHashString> >, COMDAT

; 469  : 	{	// move [_First, _Last) to raw _Dest, using _Al

  00000	55		 push	 ebp
  00001	8b ec		 mov	 ebp, esp
  00003	51		 push	 ecx

; 470  : 	return (_Uninit_move(_First, _Last, _Dest, _Al,
; 471  : 		_Val_type(_First), _Ptr_cat(_First, _Dest)));

  00004	ff 75 fc	 push	 DWORD PTR __Cat$574754[ebp]
  00007	6a 00		 push	 0
  00009	ff 75 14	 push	 DWORD PTR __Al$[ebp]
  0000c	ff 75 10	 push	 DWORD PTR __Dest$[ebp]
  0000f	ff 75 0c	 push	 DWORD PTR __Last$[ebp]
  00012	ff 75 08	 push	 DWORD PTR __First$[ebp]
  00015	e8 00 00 00 00	 call	 ??$_Uninit_move@PAVioHashString@@PAV1@V?$allocator@VioHashString@@@std@@V1@@std@@YAPAVioHashString@@PAV1@00AAV?$allocator@VioHashString@@@0@0U_Nonscalar_ptr_iterator_tag@0@@Z ; std::_Uninit_move<ioHashString *,ioHashString *,std::allocator<ioHashString>,ioHashString>
  0001a	83 c4 18	 add	 esp, 24			; 00000018H

; 472  : 	}

  0001d	c9		 leave
  0001e	c3		 ret	 0
??$_Uninitialized_move@PAVioHashString@@PAV1@V?$allocator@VioHashString@@@std@@@std@@YAPAVioHashString@@PAV1@00AAV?$allocator@VioHashString@@@0@@Z ENDP ; std::_Uninitialized_move<ioHashString *,ioHashString *,std::allocator<ioHashString> >
_TEXT	ENDS
PUBLIC	??$_Destroy_range@V?$allocator@VioHashString@@@std@@@std@@YAXPAVioHashString@@0AAV?$allocator@VioHashString@@@0@@Z ; std::_Destroy_range<std::allocator<ioHashString> >
; Function compile flags: /Ogsp
; File c:\program files (x86)\microsoft visual studio 10.0\vc\include\xmemory
;	COMDAT ??$_Destroy_range@V?$allocator@VioHashString@@@std@@@std@@YAXPAVioHashString@@0AAV?$allocator@VioHashString@@@0@@Z
_TEXT	SEGMENT
__First$ = 8						; size = 4
__Last$ = 12						; size = 4
__Al$ = 16						; size = 4
??$_Destroy_range@V?$allocator@VioHashString@@@std@@@std@@YAXPAVioHashString@@0AAV?$allocator@VioHashString@@@0@@Z PROC ; std::_Destroy_range<std::allocator<ioHashString> >, COMDAT

; 87   : 	{	// destroy [_First, _Last)

  00000	55		 push	 ebp
  00001	8b ec		 mov	 ebp, esp
  00003	56		 push	 esi

; 88   : 	_Destroy_range(_First, _Last, _Al, _Ptr_cat(_First, _Last));

  00004	8b 75 08	 mov	 esi, DWORD PTR __First$[ebp]
  00007	eb 0b		 jmp	 SHORT $LN21@Destroy_ra@3
$LL7@Destroy_ra@3:
  00009	8b ce		 mov	 ecx, esi
  0000b	ff 15 00 00 00
	00		 call	 DWORD PTR __imp_??1ioHashString@@QAE@XZ
  00011	83 c6 10	 add	 esi, 16			; 00000010H
$LN21@Destroy_ra@3:
  00014	3b 75 0c	 cmp	 esi, DWORD PTR __Last$[ebp]
  00017	75 f0		 jne	 SHORT $LL7@Destroy_ra@3
  00019	5e		 pop	 esi

; 89   : 	}

  0001a	5d		 pop	 ebp
  0001b	c3		 ret	 0
??$_Destroy_range@V?$allocator@VioHashString@@@std@@@std@@YAXPAVioHashString@@0AAV?$allocator@VioHashString@@@0@@Z ENDP ; std::_Destroy_range<std::allocator<ioHashString> >
_TEXT	ENDS
PUBLIC	??$_Destroy_range@V?$allocator@UWeaponInfo@@@std@@@std@@YAXPAUWeaponInfo@@0AAV?$allocator@UWeaponInfo@@@0@@Z ; std::_Destroy_range<std::allocator<WeaponInfo> >
; Function compile flags: /Ogsp
;	COMDAT ??$_Destroy_range@V?$allocator@UWeaponInfo@@@std@@@std@@YAXPAUWeaponInfo@@0AAV?$allocator@UWeaponInfo@@@0@@Z
_TEXT	SEGMENT
__First$ = 8						; size = 4
__Last$ = 12						; size = 4
__Al$ = 16						; size = 4
??$_Destroy_range@V?$allocator@UWeaponInfo@@@std@@@std@@YAXPAUWeaponInfo@@0AAV?$allocator@UWeaponInfo@@@0@@Z PROC ; std::_Destroy_range<std::allocator<WeaponInfo> >, COMDAT

; 87   : 	{	// destroy [_First, _Last)

  00000	55		 push	 ebp
  00001	8b ec		 mov	 ebp, esp
  00003	56		 push	 esi

; 88   : 	_Destroy_range(_First, _Last, _Al, _Ptr_cat(_First, _Last));

  00004	8b 75 08	 mov	 esi, DWORD PTR __First$[ebp]
  00007	eb 0c		 jmp	 SHORT $LN24@Destroy_ra@4
$LL7@Destroy_ra@4:
  00009	8d 4e 08	 lea	 ecx, DWORD PTR [esi+8]
  0000c	ff 15 00 00 00
	00		 call	 DWORD PTR __imp_??1ioHashString@@QAE@XZ
  00012	83 c6 28	 add	 esi, 40			; 00000028H
$LN24@Destroy_ra@4:
  00015	3b 75 0c	 cmp	 esi, DWORD PTR __Last$[ebp]
  00018	75 ef		 jne	 SHORT $LL7@Destroy_ra@4
  0001a	5e		 pop	 esi

; 89   : 	}

  0001b	5d		 pop	 ebp
  0001c	c3		 ret	 0
??$_Destroy_range@V?$allocator@UWeaponInfo@@@std@@@std@@YAXPAUWeaponInfo@@0AAV?$allocator@UWeaponInfo@@@0@@Z ENDP ; std::_Destroy_range<std::allocator<WeaponInfo> >
_TEXT	ENDS
PUBLIC	??$_Umove@PAUWeaponInfo@@@?$vector@UWeaponInfo@@V?$allocator@UWeaponInfo@@@std@@@std@@IAEPAUWeaponInfo@@PAU2@00@Z ; std::vector<WeaponInfo,std::allocator<WeaponInfo> >::_Umove<WeaponInfo *>
; Function compile flags: /Ogsp
; File c:\program files (x86)\microsoft visual studio 10.0\vc\include\vector
;	COMDAT ??$_Umove@PAUWeaponInfo@@@?$vector@UWeaponInfo@@V?$allocator@UWeaponInfo@@@std@@@std@@IAEPAUWeaponInfo@@PAU2@00@Z
_TEXT	SEGMENT
__First$ = 8						; size = 4
__Last$ = 12						; size = 4
__Ptr$ = 16						; size = 4
??$_Umove@PAUWeaponInfo@@@?$vector@UWeaponInfo@@V?$allocator@UWeaponInfo@@@std@@@std@@IAEPAUWeaponInfo@@PAU2@00@Z PROC ; std::vector<WeaponInfo,std::allocator<WeaponInfo> >::_Umove<WeaponInfo *>, COMDAT
; _this$ = ecx

; 1322 : 		pointer _Umove(_Iter _First, _Iter _Last, pointer _Ptr)

  00000	55		 push	 ebp
  00001	8b ec		 mov	 ebp, esp

; 1323 : 		{	// move initializing [_First, _Last), using allocator
; 1324 : 		return (_Uninitialized_move(_First, _Last,
; 1325 : 			_Ptr, this->_Alval));

  00003	83 c1 0c	 add	 ecx, 12			; 0000000cH
  00006	51		 push	 ecx
  00007	ff 75 10	 push	 DWORD PTR __Ptr$[ebp]
  0000a	ff 75 0c	 push	 DWORD PTR __Last$[ebp]
  0000d	ff 75 08	 push	 DWORD PTR __First$[ebp]
  00010	e8 00 00 00 00	 call	 ??$_Uninitialized_move@PAUWeaponInfo@@PAU1@V?$allocator@UWeaponInfo@@@std@@@std@@YAPAUWeaponInfo@@PAU1@00AAV?$allocator@UWeaponInfo@@@0@@Z ; std::_Uninitialized_move<WeaponInfo *,WeaponInfo *,std::allocator<WeaponInfo> >
  00015	83 c4 10	 add	 esp, 16			; 00000010H

; 1326 : 		}

  00018	5d		 pop	 ebp
  00019	c2 0c 00	 ret	 12			; 0000000cH
??$_Umove@PAUWeaponInfo@@@?$vector@UWeaponInfo@@V?$allocator@UWeaponInfo@@@std@@@std@@IAEPAUWeaponInfo@@PAU2@00@Z ENDP ; std::vector<WeaponInfo,std::allocator<WeaponInfo> >::_Umove<WeaponInfo *>
_TEXT	ENDS
PUBLIC	??$_Umove@PAVioHashString@@@?$vector@VioHashString@@V?$allocator@VioHashString@@@std@@@std@@IAEPAVioHashString@@PAV2@00@Z ; std::vector<ioHashString,std::allocator<ioHashString> >::_Umove<ioHashString *>
; Function compile flags: /Ogsp
;	COMDAT ??$_Umove@PAVioHashString@@@?$vector@VioHashString@@V?$allocator@VioHashString@@@std@@@std@@IAEPAVioHashString@@PAV2@00@Z
_TEXT	SEGMENT
__First$ = 8						; size = 4
__Last$ = 12						; size = 4
__Ptr$ = 16						; size = 4
??$_Umove@PAVioHashString@@@?$vector@VioHashString@@V?$allocator@VioHashString@@@std@@@std@@IAEPAVioHashString@@PAV2@00@Z PROC ; std::vector<ioHashString,std::allocator<ioHashString> >::_Umove<ioHashString *>, COMDAT
; _this$ = ecx

; 1322 : 		pointer _Umove(_Iter _First, _Iter _Last, pointer _Ptr)

  00000	55		 push	 ebp
  00001	8b ec		 mov	 ebp, esp

; 1323 : 		{	// move initializing [_First, _Last), using allocator
; 1324 : 		return (_Uninitialized_move(_First, _Last,
; 1325 : 			_Ptr, this->_Alval));

  00003	83 c1 0c	 add	 ecx, 12			; 0000000cH
  00006	51		 push	 ecx
  00007	ff 75 10	 push	 DWORD PTR __Ptr$[ebp]
  0000a	ff 75 0c	 push	 DWORD PTR __Last$[ebp]
  0000d	ff 75 08	 push	 DWORD PTR __First$[ebp]
  00010	e8 00 00 00 00	 call	 ??$_Uninitialized_move@PAVioHashString@@PAV1@V?$allocator@VioHashString@@@std@@@std@@YAPAVioHashString@@PAV1@00AAV?$allocator@VioHashString@@@0@@Z ; std::_Uninitialized_move<ioHashString *,ioHashString *,std::allocator<ioHashString> >
  00015	83 c4 10	 add	 esp, 16			; 00000010H

; 1326 : 		}

  00018	5d		 pop	 ebp
  00019	c2 0c 00	 ret	 12			; 0000000cH
??$_Umove@PAVioHashString@@@?$vector@VioHashString@@V?$allocator@VioHashString@@@std@@@std@@IAEPAVioHashString@@PAV2@00@Z ENDP ; std::vector<ioHashString,std::allocator<ioHashString> >::_Umove<ioHashString *>
_TEXT	ENDS
PUBLIC	?_Destroy@?$vector@VioHashString@@V?$allocator@VioHashString@@@std@@@std@@IAEXPAVioHashString@@0@Z ; std::vector<ioHashString,std::allocator<ioHashString> >::_Destroy
; Function compile flags: /Ogsp
;	COMDAT ?_Destroy@?$vector@VioHashString@@V?$allocator@VioHashString@@@std@@@std@@IAEXPAVioHashString@@0@Z
_TEXT	SEGMENT
__First$ = 8						; size = 4
__Last$ = 12						; size = 4
?_Destroy@?$vector@VioHashString@@V?$allocator@VioHashString@@@std@@@std@@IAEXPAVioHashString@@0@Z PROC ; std::vector<ioHashString,std::allocator<ioHashString> >::_Destroy, COMDAT
; _this$ = ecx

; 1269 : 		{	// destroy [_First, _Last) using allocator

  00000	55		 push	 ebp
  00001	8b ec		 mov	 ebp, esp
  00003	56		 push	 esi

; 1270 : 		_Destroy_range(_First, _Last, this->_Alval);

  00004	8b 75 08	 mov	 esi, DWORD PTR __First$[ebp]
  00007	eb 0b		 jmp	 SHORT $LN23@Destroy
$LL9@Destroy:
  00009	8b ce		 mov	 ecx, esi
  0000b	ff 15 00 00 00
	00		 call	 DWORD PTR __imp_??1ioHashString@@QAE@XZ
  00011	83 c6 10	 add	 esi, 16			; 00000010H
$LN23@Destroy:
  00014	3b 75 0c	 cmp	 esi, DWORD PTR __Last$[ebp]
  00017	75 f0		 jne	 SHORT $LL9@Destroy
  00019	5e		 pop	 esi

; 1271 : 		}

  0001a	5d		 pop	 ebp
  0001b	c2 08 00	 ret	 8
?_Destroy@?$vector@VioHashString@@V?$allocator@VioHashString@@@std@@@std@@IAEXPAVioHashString@@0@Z ENDP ; std::vector<ioHashString,std::allocator<ioHashString> >::_Destroy
_TEXT	ENDS
PUBLIC	?_Destroy@?$vector@UWeaponInfo@@V?$allocator@UWeaponInfo@@@std@@@std@@IAEXPAUWeaponInfo@@0@Z ; std::vector<WeaponInfo,std::allocator<WeaponInfo> >::_Destroy
; Function compile flags: /Ogsp
;	COMDAT ?_Destroy@?$vector@UWeaponInfo@@V?$allocator@UWeaponInfo@@@std@@@std@@IAEXPAUWeaponInfo@@0@Z
_TEXT	SEGMENT
__First$ = 8						; size = 4
__Last$ = 12						; size = 4
?_Destroy@?$vector@UWeaponInfo@@V?$allocator@UWeaponInfo@@@std@@@std@@IAEXPAUWeaponInfo@@0@Z PROC ; std::vector<WeaponInfo,std::allocator<WeaponInfo> >::_Destroy, COMDAT
; _this$ = ecx

; 1269 : 		{	// destroy [_First, _Last) using allocator

  00000	55		 push	 ebp
  00001	8b ec		 mov	 ebp, esp

; 1270 : 		_Destroy_range(_First, _Last, this->_Alval);

  00003	83 c1 0c	 add	 ecx, 12			; 0000000cH
  00006	51		 push	 ecx
  00007	ff 75 0c	 push	 DWORD PTR __Last$[ebp]
  0000a	ff 75 08	 push	 DWORD PTR __First$[ebp]
  0000d	e8 00 00 00 00	 call	 ??$_Destroy_range@V?$allocator@UWeaponInfo@@@std@@@std@@YAXPAUWeaponInfo@@0AAV?$allocator@UWeaponInfo@@@0@@Z ; std::_Destroy_range<std::allocator<WeaponInfo> >
  00012	83 c4 0c	 add	 esp, 12			; 0000000cH

; 1271 : 		}

  00015	5d		 pop	 ebp
  00016	c2 08 00	 ret	 8
?_Destroy@?$vector@UWeaponInfo@@V?$allocator@UWeaponInfo@@@std@@@std@@IAEXPAUWeaponInfo@@0@Z ENDP ; std::vector<WeaponInfo,std::allocator<WeaponInfo> >::_Destroy
_TEXT	ENDS
PUBLIC	?erase@?$vector@UWeaponInfo@@V?$allocator@UWeaponInfo@@@std@@@std@@QAE?AV?$_Vector_iterator@V?$_Vector_val@UWeaponInfo@@V?$allocator@UWeaponInfo@@@std@@@std@@@2@V?$_Vector_const_iterator@V?$_Vector_val@UWeaponInfo@@V?$allocator@UWeaponInfo@@@std@@@std@@@2@0@Z ; std::vector<WeaponInfo,std::allocator<WeaponInfo> >::erase
; Function compile flags: /Ogsp
;	COMDAT ?erase@?$vector@UWeaponInfo@@V?$allocator@UWeaponInfo@@@std@@@std@@QAE?AV?$_Vector_iterator@V?$_Vector_val@UWeaponInfo@@V?$allocator@UWeaponInfo@@@std@@@std@@@2@V?$_Vector_const_iterator@V?$_Vector_val@UWeaponInfo@@V?$allocator@UWeaponInfo@@@std@@@std@@@2@0@Z
_TEXT	SEGMENT
___$ReturnUdt$ = 8					; size = 4
__First_arg$ = 12					; size = 4
__Cat$575037 = 16					; size = 1
__Last_arg$ = 16					; size = 4
?erase@?$vector@UWeaponInfo@@V?$allocator@UWeaponInfo@@@std@@@std@@QAE?AV?$_Vector_iterator@V?$_Vector_val@UWeaponInfo@@V?$allocator@UWeaponInfo@@@std@@@std@@@2@V?$_Vector_const_iterator@V?$_Vector_val@UWeaponInfo@@V?$allocator@UWeaponInfo@@@std@@@std@@@2@0@Z PROC ; std::vector<WeaponInfo,std::allocator<WeaponInfo> >::erase, COMDAT
; _this$ = ecx

; 1190 : 		{	// erase [_First, _Last)

  00000	55		 push	 ebp
  00001	8b ec		 mov	 ebp, esp

; 1191 : 		iterator _First = _Make_iter(_First_arg);

  00003	8b 45 0c	 mov	 eax, DWORD PTR __First_arg$[ebp]
  00006	53		 push	 ebx
  00007	8b 5d 08	 mov	 ebx, DWORD PTR ___$ReturnUdt$[ebp]
  0000a	56		 push	 esi
  0000b	8b f1		 mov	 esi, ecx
  0000d	89 03		 mov	 DWORD PTR [ebx], eax

; 1192 : 		iterator _Last = _Make_iter(_Last_arg);
; 1193 : 
; 1194 : 		if (_First != _Last)

  0000f	3b 45 10	 cmp	 eax, DWORD PTR __Last_arg$[ebp]
  00012	74 27		 je	 SHORT $LN1@erase

; 1195 : 			{	// worth doing, copy down over hole
; 1196 :  #if _ITERATOR_DEBUG_LEVEL == 2
; 1197 : 			if (_Last < _First || _VICONT(_First) != this
; 1198 : 				|| _VIPTR(_First) < this->_Myfirst
; 1199 : 				|| this->_Mylast < _VIPTR(_Last))
; 1200 : 				_DEBUG_ERROR("vector erase iterator outside range");
; 1201 : 			pointer _Ptr = _Move(_VIPTR(_Last), this->_Mylast,
; 1202 : 				_VIPTR(_First));
; 1203 : 			_Orphan_range(_VIPTR(_First), this->_Mylast);
; 1204 : 
; 1205 :  #else /* _ITERATOR_DEBUG_LEVEL == 2 */
; 1206 : 			pointer _Ptr = _Move(_VIPTR(_Last), this->_Mylast,
; 1207 : 				_VIPTR(_First));

  00014	8b 4e 04	 mov	 ecx, DWORD PTR [esi+4]
  00017	57		 push	 edi
  00018	ff 75 10	 push	 DWORD PTR __Cat$575037[ebp]
  0001b	50		 push	 eax
  0001c	51		 push	 ecx
  0001d	ff 75 10	 push	 DWORD PTR __Last_arg$[ebp]
  00020	e8 00 00 00 00	 call	 ??$_Move@PAUWeaponInfo@@PAU1@@std@@YAPAUWeaponInfo@@PAU1@00U_Nonscalar_ptr_iterator_tag@0@@Z ; std::_Move<WeaponInfo *,WeaponInfo *>
  00025	8b f8		 mov	 edi, eax

; 1208 :  #endif /* _ITERATOR_DEBUG_LEVEL == 2 */
; 1209 : 
; 1210 : 			_Destroy(_Ptr, this->_Mylast);

  00027	8d 46 0c	 lea	 eax, DWORD PTR [esi+12]
  0002a	50		 push	 eax
  0002b	ff 76 04	 push	 DWORD PTR [esi+4]
  0002e	57		 push	 edi
  0002f	e8 00 00 00 00	 call	 ??$_Destroy_range@V?$allocator@UWeaponInfo@@@std@@@std@@YAXPAUWeaponInfo@@0AAV?$allocator@UWeaponInfo@@@0@@Z ; std::_Destroy_range<std::allocator<WeaponInfo> >
  00034	83 c4 1c	 add	 esp, 28			; 0000001cH

; 1211 : 			this->_Mylast = _Ptr;

  00037	89 7e 04	 mov	 DWORD PTR [esi+4], edi
  0003a	5f		 pop	 edi
$LN1@erase:

; 1212 : 			}
; 1213 : 		return (_First);

  0003b	5e		 pop	 esi
  0003c	8b c3		 mov	 eax, ebx
  0003e	5b		 pop	 ebx

; 1214 : 		}

  0003f	5d		 pop	 ebp
  00040	c2 0c 00	 ret	 12			; 0000000cH
?erase@?$vector@UWeaponInfo@@V?$allocator@UWeaponInfo@@@std@@@std@@QAE?AV?$_Vector_iterator@V?$_Vector_val@UWeaponInfo@@V?$allocator@UWeaponInfo@@@std@@@std@@@2@V?$_Vector_const_iterator@V?$_Vector_val@UWeaponInfo@@V?$allocator@UWeaponInfo@@@std@@@std@@@2@0@Z ENDP ; std::vector<WeaponInfo,std::allocator<WeaponInfo> >::erase
_TEXT	ENDS
PUBLIC	?reserve@?$vector@UWeaponInfo@@V?$allocator@UWeaponInfo@@@std@@@std@@QAEXI@Z ; std::vector<WeaponInfo,std::allocator<WeaponInfo> >::reserve
EXTRN	__imp_?_Orphan_all@_Container_base0@std@@QAEXXZ:PROC
;	COMDAT xdata$x
; File c:\program files (x86)\microsoft visual studio 10.0\vc\include\xmemory
xdata$x	SEGMENT
__catchsym$?reserve@?$vector@UWeaponInfo@@V?$allocator@UWeaponInfo@@@std@@@std@@QAEXI@Z$2 DD 040H
	DD	00H
	DD	00H
	DD	FLAT:__catch$?reserve@?$vector@UWeaponInfo@@V?$allocator@UWeaponInfo@@@std@@@std@@QAEXI@Z$0
__unwindtable$?reserve@?$vector@UWeaponInfo@@V?$allocator@UWeaponInfo@@@std@@@std@@QAEXI@Z DD 0ffffffffH
	DD	00H
	DD	0ffffffffH
	DD	00H
__tryblocktable$?reserve@?$vector@UWeaponInfo@@V?$allocator@UWeaponInfo@@@std@@@std@@QAEXI@Z DD 00H
	DD	00H
	DD	01H
	DD	01H
	DD	FLAT:__catchsym$?reserve@?$vector@UWeaponInfo@@V?$allocator@UWeaponInfo@@@std@@@std@@QAEXI@Z$2
__ehfuncinfo$?reserve@?$vector@UWeaponInfo@@V?$allocator@UWeaponInfo@@@std@@@std@@QAEXI@Z DD 019930522H
	DD	02H
	DD	FLAT:__unwindtable$?reserve@?$vector@UWeaponInfo@@V?$allocator@UWeaponInfo@@@std@@@std@@QAEXI@Z
	DD	01H
	DD	FLAT:__tryblocktable$?reserve@?$vector@UWeaponInfo@@V?$allocator@UWeaponInfo@@@std@@@std@@QAEXI@Z
	DD	2 DUP(00H)
	DD	00H
	DD	01H
; Function compile flags: /Ogsp
; File c:\program files (x86)\microsoft visual studio 10.0\vc\include\vector
xdata$x	ENDS
;	COMDAT ?reserve@?$vector@UWeaponInfo@@V?$allocator@UWeaponInfo@@@std@@@std@@QAEXI@Z
_TEXT	SEGMENT
__$EHRec$ = -16						; size = 16
__Ptr$569077 = 8					; size = 4
__Count$ = 8						; size = 4
?reserve@?$vector@UWeaponInfo@@V?$allocator@UWeaponInfo@@@std@@@std@@QAEXI@Z PROC ; std::vector<WeaponInfo,std::allocator<WeaponInfo> >::reserve, COMDAT
; _this$ = ecx

; 746  : 		{	// determine new minimum length of allocated storage

  00000	6a 04		 push	 4
  00002	b8 00 00 00 00	 mov	 eax, __ehhandler$?reserve@?$vector@UWeaponInfo@@V?$allocator@UWeaponInfo@@@std@@@std@@QAEXI@Z
  00007	e8 00 00 00 00	 call	 __EH_prolog3_catch
  0000c	8b f1		 mov	 esi, ecx

; 747  : 		if (max_size() < _Count)

  0000e	8b 5d 08	 mov	 ebx, DWORD PTR __Count$[ebp]
  00011	81 fb 66 66 66
	06		 cmp	 ebx, 107374182		; 06666666H
  00017	76 0b		 jbe	 SHORT $LN5@reserve

; 748  : 			_Xlen();	// result too long

  00019	68 00 00 00 00	 push	 OFFSET ??_C@_0BD@OLBABOEK@vector?$DMT?$DO?5too?5long?$AA@
  0001e	ff 15 00 00 00
	00		 call	 DWORD PTR __imp_?_Xlength_error@std@@YAXPBD@Z
$LN38@reserve:
$LN5@reserve:

; 749  : 		else if (capacity() < _Count)

  00024	8b 46 08	 mov	 eax, DWORD PTR [esi+8]
  00027	2b 06		 sub	 eax, DWORD PTR [esi]
  00029	6a 28		 push	 40			; 00000028H
  0002b	99		 cdq
  0002c	59		 pop	 ecx
  0002d	f7 f9		 idiv	 ecx
  0002f	3b c3		 cmp	 eax, ebx
  00031	73 70		 jae	 SHORT $LN3@reserve

; 750  : 			{	// not enough room, reallocate
; 751  : 			pointer _Ptr = this->_Alval.allocate(_Count);

  00033	6a 00		 push	 0
  00035	53		 push	 ebx
  00036	e8 00 00 00 00	 call	 ??$_Allocate@UWeaponInfo@@@std@@YAPAUWeaponInfo@@IPAU1@@Z ; std::_Allocate<WeaponInfo>

; 752  : 
; 753  : 			_TRY_BEGIN
; 754  : 			_Umove(this->_Myfirst, this->_Mylast, _Ptr);

  0003b	8b 0e		 mov	 ecx, DWORD PTR [esi]
  0003d	83 65 fc 00	 and	 DWORD PTR __$EHRec$[ebp+12], 0
  00041	8d 56 0c	 lea	 edx, DWORD PTR [esi+12]
  00044	52		 push	 edx
  00045	89 45 08	 mov	 DWORD PTR __Ptr$569077[ebp], eax
  00048	ff 75 08	 push	 DWORD PTR __Ptr$569077[ebp]
  0004b	8b 46 04	 mov	 eax, DWORD PTR [esi+4]
  0004e	50		 push	 eax
  0004f	51		 push	 ecx
  00050	e8 00 00 00 00	 call	 ??$_Uninitialized_move@PAUWeaponInfo@@PAU1@V?$allocator@UWeaponInfo@@@std@@@std@@YAPAUWeaponInfo@@PAU1@00AAV?$allocator@UWeaponInfo@@@0@@Z ; std::_Uninitialized_move<WeaponInfo *,WeaponInfo *,std::allocator<WeaponInfo> >

; 758  : 			_CATCH_END
; 759  : 
; 760  : 			size_type _Size = size();

  00055	8b 0e		 mov	 ecx, DWORD PTR [esi]
  00057	8b 46 04	 mov	 eax, DWORD PTR [esi+4]
  0005a	83 c4 18	 add	 esp, 24			; 00000018H
  0005d	2b c1		 sub	 eax, ecx
  0005f	6a 28		 push	 40			; 00000028H
  00061	99		 cdq
  00062	5f		 pop	 edi
  00063	f7 ff		 idiv	 edi
  00065	83 4d fc ff	 or	 DWORD PTR __$EHRec$[ebp+12], -1
  00069	8b f8		 mov	 edi, eax
  0006b	85 c9		 test	 ecx, ecx
  0006d	74 17		 je	 SHORT $LN33@reserve

; 761  : 			if (this->_Myfirst != 0)
; 762  : 				{	// destroy and deallocate old array
; 763  : 				_Destroy(this->_Myfirst, this->_Mylast);

  0006f	8d 46 0c	 lea	 eax, DWORD PTR [esi+12]
  00072	50		 push	 eax
  00073	ff 76 04	 push	 DWORD PTR [esi+4]
  00076	51		 push	 ecx
  00077	e8 00 00 00 00	 call	 ??$_Destroy_range@V?$allocator@UWeaponInfo@@@std@@@std@@YAXPAUWeaponInfo@@0AAV?$allocator@UWeaponInfo@@@0@@Z ; std::_Destroy_range<std::allocator<WeaponInfo> >

; 764  : 				this->_Alval.deallocate(this->_Myfirst,
; 765  : 					this->_Myend - this->_Myfirst);

  0007c	ff 36		 push	 DWORD PTR [esi]
  0007e	e8 00 00 00 00	 call	 ??3@YAXPAX@Z		; operator delete
  00083	83 c4 10	 add	 esp, 16			; 00000010H
$LN33@reserve:

; 766  : 				}
; 767  : 
; 768  : 			this->_Orphan_all();

  00086	8b ce		 mov	 ecx, esi
  00088	ff 15 00 00 00
	00		 call	 DWORD PTR __imp_?_Orphan_all@_Container_base0@std@@QAEXXZ

; 769  : 			this->_Myend = _Ptr + _Count;

  0008e	6b db 28	 imul	 ebx, 40			; 00000028H

; 770  : 			this->_Mylast = _Ptr + _Size;

  00091	6b ff 28	 imul	 edi, 40			; 00000028H
  00094	8b 45 08	 mov	 eax, DWORD PTR __Ptr$569077[ebp]
  00097	03 d8		 add	 ebx, eax
  00099	03 f8		 add	 edi, eax
  0009b	89 5e 08	 mov	 DWORD PTR [esi+8], ebx
  0009e	89 7e 04	 mov	 DWORD PTR [esi+4], edi

; 771  : 			this->_Myfirst = _Ptr;

  000a1	89 06		 mov	 DWORD PTR [esi], eax
$LN3@reserve:

; 772  : 			}
; 773  : 		}

  000a3	e8 00 00 00 00	 call	 __EH_epilog3
  000a8	c2 04 00	 ret	 4
__catch$?reserve@?$vector@UWeaponInfo@@V?$allocator@UWeaponInfo@@@std@@@std@@QAEXI@Z$0:

; 755  : 			_CATCH_ALL
; 756  : 			this->_Alval.deallocate(_Ptr, _Count);

  000ab	ff 75 08	 push	 DWORD PTR __Ptr$569077[ebp]
  000ae	e8 00 00 00 00	 call	 ??3@YAXPAX@Z		; operator delete
  000b3	59		 pop	 ecx

; 757  : 			_RERAISE;

  000b4	6a 00		 push	 0
  000b6	6a 00		 push	 0
  000b8	e8 00 00 00 00	 call	 __CxxThrowException@8
$LN39@reserve:
$LN37@reserve:
  000bd	cc		 int	 3
_TEXT	ENDS
;	COMDAT text$x
text$x	SEGMENT
__ehhandler$?reserve@?$vector@UWeaponInfo@@V?$allocator@UWeaponInfo@@@std@@@std@@QAEXI@Z:
  00000	8b 54 24 08	 mov	 edx, DWORD PTR [esp+8]
  00004	8d 42 0c	 lea	 eax, DWORD PTR [edx+12]
  00007	8b 4a ec	 mov	 ecx, DWORD PTR [edx-20]
  0000a	33 c8		 xor	 ecx, eax
  0000c	e8 00 00 00 00	 call	 @__security_check_cookie@4
  00011	b8 00 00 00 00	 mov	 eax, OFFSET __ehfuncinfo$?reserve@?$vector@UWeaponInfo@@V?$allocator@UWeaponInfo@@@std@@@std@@QAEXI@Z
  00016	e9 00 00 00 00	 jmp	 ___CxxFrameHandler3
text$x	ENDS
?reserve@?$vector@UWeaponInfo@@V?$allocator@UWeaponInfo@@@std@@@std@@QAEXI@Z ENDP ; std::vector<WeaponInfo,std::allocator<WeaponInfo> >::reserve
PUBLIC	?_Reserve@?$vector@UWeaponInfo@@V?$allocator@UWeaponInfo@@@std@@@std@@IAEXI@Z ; std::vector<WeaponInfo,std::allocator<WeaponInfo> >::_Reserve
; Function compile flags: /Ogsp
;	COMDAT ?_Reserve@?$vector@UWeaponInfo@@V?$allocator@UWeaponInfo@@@std@@@std@@IAEXI@Z
_TEXT	SEGMENT
__Count$ = 8						; size = 4
?_Reserve@?$vector@UWeaponInfo@@V?$allocator@UWeaponInfo@@@std@@@std@@IAEXI@Z PROC ; std::vector<WeaponInfo,std::allocator<WeaponInfo> >::_Reserve, COMDAT
; _this$ = ecx

; 1290 : 		{	// ensure room for _Count new elements, grow exponentially

  00000	55		 push	 ebp
  00001	8b ec		 mov	 ebp, esp
  00003	56		 push	 esi
  00004	8b f1		 mov	 esi, ecx

; 1291 : 		size_type _Size = size();

  00006	8b 0e		 mov	 ecx, DWORD PTR [esi]
  00008	8b 46 04	 mov	 eax, DWORD PTR [esi+4]
  0000b	2b c1		 sub	 eax, ecx
  0000d	57		 push	 edi
  0000e	99		 cdq
  0000f	6a 28		 push	 40			; 00000028H
  00011	5f		 pop	 edi
  00012	f7 ff		 idiv	 edi
  00014	8b f8		 mov	 edi, eax

; 1292 : 		if (max_size() - _Count < _Size)

  00016	b8 66 66 66 06	 mov	 eax, 107374182		; 06666666H
  0001b	2b 45 08	 sub	 eax, DWORD PTR __Count$[ebp]
  0001e	3b c7		 cmp	 eax, edi
  00020	73 0b		 jae	 SHORT $LN4@Reserve

; 1293 : 			_Xlen();

  00022	68 00 00 00 00	 push	 OFFSET ??_C@_0BD@OLBABOEK@vector?$DMT?$DO?5too?5long?$AA@
  00027	ff 15 00 00 00
	00		 call	 DWORD PTR __imp_?_Xlength_error@std@@YAXPBD@Z
$LN21@Reserve:
$LN4@Reserve:

; 1294 : 		else if ((_Size += _Count) <= capacity())

  0002d	8b 46 08	 mov	 eax, DWORD PTR [esi+8]
  00030	2b c1		 sub	 eax, ecx
  00032	6a 28		 push	 40			; 00000028H
  00034	99		 cdq
  00035	59		 pop	 ecx
  00036	f7 f9		 idiv	 ecx
  00038	03 7d 08	 add	 edi, DWORD PTR __Count$[ebp]
  0003b	3b f8		 cmp	 edi, eax
  0003d	76 10		 jbe	 SHORT $LN1@Reserve

; 1295 : 			;
; 1296 : 		else
; 1297 : 			reserve(_Grow_to(_Size));

  0003f	57		 push	 edi
  00040	8b ce		 mov	 ecx, esi
  00042	e8 00 00 00 00	 call	 ?_Grow_to@?$vector@UWeaponInfo@@V?$allocator@UWeaponInfo@@@std@@@std@@IBEII@Z ; std::vector<WeaponInfo,std::allocator<WeaponInfo> >::_Grow_to
  00047	50		 push	 eax
  00048	8b ce		 mov	 ecx, esi
  0004a	e8 00 00 00 00	 call	 ?reserve@?$vector@UWeaponInfo@@V?$allocator@UWeaponInfo@@@std@@@std@@QAEXI@Z ; std::vector<WeaponInfo,std::allocator<WeaponInfo> >::reserve
$LN1@Reserve:
  0004f	5f		 pop	 edi
  00050	5e		 pop	 esi

; 1298 : 		}

  00051	5d		 pop	 ebp
  00052	c2 04 00	 ret	 4
$LN20@Reserve:
?_Reserve@?$vector@UWeaponInfo@@V?$allocator@UWeaponInfo@@@std@@@std@@IAEXI@Z ENDP ; std::vector<WeaponInfo,std::allocator<WeaponInfo> >::_Reserve
_TEXT	ENDS
PUBLIC	?reserve@?$vector@VioHashString@@V?$allocator@VioHashString@@@std@@@std@@QAEXI@Z ; std::vector<ioHashString,std::allocator<ioHashString> >::reserve
;	COMDAT xdata$x
; File c:\program files (x86)\microsoft visual studio 10.0\vc\include\xmemory
xdata$x	SEGMENT
__catchsym$?reserve@?$vector@VioHashString@@V?$allocator@VioHashString@@@std@@@std@@QAEXI@Z$2 DD 040H
	DD	00H
	DD	00H
	DD	FLAT:__catch$?reserve@?$vector@VioHashString@@V?$allocator@VioHashString@@@std@@@std@@QAEXI@Z$0
__unwindtable$?reserve@?$vector@VioHashString@@V?$allocator@VioHashString@@@std@@@std@@QAEXI@Z DD 0ffffffffH
	DD	00H
	DD	0ffffffffH
	DD	00H
__tryblocktable$?reserve@?$vector@VioHashString@@V?$allocator@VioHashString@@@std@@@std@@QAEXI@Z DD 00H
	DD	00H
	DD	01H
	DD	01H
	DD	FLAT:__catchsym$?reserve@?$vector@VioHashString@@V?$allocator@VioHashString@@@std@@@std@@QAEXI@Z$2
__ehfuncinfo$?reserve@?$vector@VioHashString@@V?$allocator@VioHashString@@@std@@@std@@QAEXI@Z DD 019930522H
	DD	02H
	DD	FLAT:__unwindtable$?reserve@?$vector@VioHashString@@V?$allocator@VioHashString@@@std@@@std@@QAEXI@Z
	DD	01H
	DD	FLAT:__tryblocktable$?reserve@?$vector@VioHashString@@V?$allocator@VioHashString@@@std@@@std@@QAEXI@Z
	DD	2 DUP(00H)
	DD	00H
	DD	01H
; Function compile flags: /Ogsp
; File c:\program files (x86)\microsoft visual studio 10.0\vc\include\vector
xdata$x	ENDS
;	COMDAT ?reserve@?$vector@VioHashString@@V?$allocator@VioHashString@@@std@@@std@@QAEXI@Z
_TEXT	SEGMENT
tv300 = -24						; size = 4
__Ptr$569331 = -20					; size = 4
__$EHRec$ = -16						; size = 16
$T575233 = 8						; size = 4
__Count$ = 8						; size = 4
?reserve@?$vector@VioHashString@@V?$allocator@VioHashString@@@std@@@std@@QAEXI@Z PROC ; std::vector<ioHashString,std::allocator<ioHashString> >::reserve, COMDAT
; _this$ = ecx

; 746  : 		{	// determine new minimum length of allocated storage

  00000	6a 0c		 push	 12			; 0000000cH
  00002	b8 00 00 00 00	 mov	 eax, __ehhandler$?reserve@?$vector@VioHashString@@V?$allocator@VioHashString@@@std@@@std@@QAEXI@Z
  00007	e8 00 00 00 00	 call	 __EH_prolog3_catch
  0000c	8b f1		 mov	 esi, ecx

; 747  : 		if (max_size() < _Count)

  0000e	8b 5d 08	 mov	 ebx, DWORD PTR __Count$[ebp]
  00011	81 fb ff ff ff
	0f		 cmp	 ebx, 268435455		; 0fffffffH
  00017	76 0b		 jbe	 SHORT $LN5@reserve@2

; 748  : 			_Xlen();	// result too long

  00019	68 00 00 00 00	 push	 OFFSET ??_C@_0BD@OLBABOEK@vector?$DMT?$DO?5too?5long?$AA@
  0001e	ff 15 00 00 00
	00		 call	 DWORD PTR __imp_?_Xlength_error@std@@YAXPBD@Z
$LN59@reserve@2:
$LN5@reserve@2:

; 749  : 		else if (capacity() < _Count)

  00024	8b 46 08	 mov	 eax, DWORD PTR [esi+8]
  00027	2b 06		 sub	 eax, DWORD PTR [esi]
  00029	c1 f8 04	 sar	 eax, 4
  0002c	3b c3		 cmp	 eax, ebx
  0002e	73 7a		 jae	 SHORT $LN3@reserve@2

; 750  : 			{	// not enough room, reallocate
; 751  : 			pointer _Ptr = this->_Alval.allocate(_Count);

  00030	6a 00		 push	 0
  00032	53		 push	 ebx
  00033	e8 00 00 00 00	 call	 ??$_Allocate@VioHashString@@@std@@YAPAVioHashString@@IPAV1@@Z ; std::_Allocate<ioHashString>

; 752  : 
; 753  : 			_TRY_BEGIN
; 754  : 			_Umove(this->_Myfirst, this->_Mylast, _Ptr);

  00038	8b 0e		 mov	 ecx, DWORD PTR [esi]
  0003a	83 65 fc 00	 and	 DWORD PTR __$EHRec$[ebp+12], 0
  0003e	8d 56 0c	 lea	 edx, DWORD PTR [esi+12]
  00041	52		 push	 edx
  00042	89 45 ec	 mov	 DWORD PTR __Ptr$569331[ebp], eax
  00045	ff 75 ec	 push	 DWORD PTR __Ptr$569331[ebp]
  00048	8b 46 04	 mov	 eax, DWORD PTR [esi+4]
  0004b	50		 push	 eax
  0004c	51		 push	 ecx
  0004d	e8 00 00 00 00	 call	 ??$_Uninitialized_move@PAVioHashString@@PAV1@V?$allocator@VioHashString@@@std@@@std@@YAPAVioHashString@@PAV1@00AAV?$allocator@VioHashString@@@0@@Z ; std::_Uninitialized_move<ioHashString *,ioHashString *,std::allocator<ioHashString> >

; 758  : 			_CATCH_END
; 759  : 
; 760  : 			size_type _Size = size();

  00052	8b 4e 04	 mov	 ecx, DWORD PTR [esi+4]
  00055	8b 06		 mov	 eax, DWORD PTR [esi]
  00057	83 4d fc ff	 or	 DWORD PTR __$EHRec$[ebp+12], -1
  0005b	8b f9		 mov	 edi, ecx
  0005d	83 c4 18	 add	 esp, 24			; 00000018H
  00060	2b f8		 sub	 edi, eax
  00062	89 4d e8	 mov	 DWORD PTR tv300[ebp], ecx
  00065	85 c0		 test	 eax, eax
  00067	74 24		 je	 SHORT $LN51@reserve@2

; 761  : 			if (this->_Myfirst != 0)
; 762  : 				{	// destroy and deallocate old array
; 763  : 				_Destroy(this->_Myfirst, this->_Mylast);

  00069	89 45 08	 mov	 DWORD PTR $T575233[ebp], eax
  0006c	3b c1		 cmp	 eax, ecx
  0006e	74 15		 je	 SHORT $LN37@reserve@2
$LN39@reserve@2:
  00070	8b 4d 08	 mov	 ecx, DWORD PTR $T575233[ebp]
  00073	ff 15 00 00 00
	00		 call	 DWORD PTR __imp_??1ioHashString@@QAE@XZ
  00079	83 45 08 10	 add	 DWORD PTR $T575233[ebp], 16 ; 00000010H
  0007d	8b 45 08	 mov	 eax, DWORD PTR $T575233[ebp]
  00080	3b 45 e8	 cmp	 eax, DWORD PTR tv300[ebp]
  00083	75 eb		 jne	 SHORT $LN39@reserve@2
$LN37@reserve@2:

; 764  : 				this->_Alval.deallocate(this->_Myfirst,
; 765  : 					this->_Myend - this->_Myfirst);

  00085	ff 36		 push	 DWORD PTR [esi]
  00087	e8 00 00 00 00	 call	 ??3@YAXPAX@Z		; operator delete
  0008c	59		 pop	 ecx
$LN51@reserve@2:

; 766  : 				}
; 767  : 
; 768  : 			this->_Orphan_all();

  0008d	8b ce		 mov	 ecx, esi
  0008f	ff 15 00 00 00
	00		 call	 DWORD PTR __imp_?_Orphan_all@_Container_base0@std@@QAEXXZ

; 769  : 			this->_Myend = _Ptr + _Count;

  00095	8b 45 ec	 mov	 eax, DWORD PTR __Ptr$569331[ebp]
  00098	c1 e3 04	 shl	 ebx, 4
  0009b	03 d8		 add	 ebx, eax

; 770  : 			this->_Mylast = _Ptr + _Size;

  0009d	83 e7 f0	 and	 edi, -16		; fffffff0H
  000a0	03 f8		 add	 edi, eax
  000a2	89 5e 08	 mov	 DWORD PTR [esi+8], ebx
  000a5	89 7e 04	 mov	 DWORD PTR [esi+4], edi

; 771  : 			this->_Myfirst = _Ptr;

  000a8	89 06		 mov	 DWORD PTR [esi], eax
$LN3@reserve@2:

; 772  : 			}
; 773  : 		}

  000aa	e8 00 00 00 00	 call	 __EH_epilog3
  000af	c2 04 00	 ret	 4
__catch$?reserve@?$vector@VioHashString@@V?$allocator@VioHashString@@@std@@@std@@QAEXI@Z$0:

; 755  : 			_CATCH_ALL
; 756  : 			this->_Alval.deallocate(_Ptr, _Count);

  000b2	ff 75 ec	 push	 DWORD PTR __Ptr$569331[ebp]
  000b5	e8 00 00 00 00	 call	 ??3@YAXPAX@Z		; operator delete
  000ba	59		 pop	 ecx

; 757  : 			_RERAISE;

  000bb	6a 00		 push	 0
  000bd	6a 00		 push	 0
  000bf	e8 00 00 00 00	 call	 __CxxThrowException@8
$LN60@reserve@2:
$LN58@reserve@2:
  000c4	cc		 int	 3
_TEXT	ENDS
;	COMDAT text$x
text$x	SEGMENT
__ehhandler$?reserve@?$vector@VioHashString@@V?$allocator@VioHashString@@@std@@@std@@QAEXI@Z:
  00000	8b 54 24 08	 mov	 edx, DWORD PTR [esp+8]
  00004	8d 42 0c	 lea	 eax, DWORD PTR [edx+12]
  00007	8b 4a e4	 mov	 ecx, DWORD PTR [edx-28]
  0000a	33 c8		 xor	 ecx, eax
  0000c	e8 00 00 00 00	 call	 @__security_check_cookie@4
  00011	b8 00 00 00 00	 mov	 eax, OFFSET __ehfuncinfo$?reserve@?$vector@VioHashString@@V?$allocator@VioHashString@@@std@@@std@@QAEXI@Z
  00016	e9 00 00 00 00	 jmp	 ___CxxFrameHandler3
text$x	ENDS
?reserve@?$vector@VioHashString@@V?$allocator@VioHashString@@@std@@@std@@QAEXI@Z ENDP ; std::vector<ioHashString,std::allocator<ioHashString> >::reserve
PUBLIC	?erase@?$vector@VioHashString@@V?$allocator@VioHashString@@@std@@@std@@QAE?AV?$_Vector_iterator@V?$_Vector_val@VioHashString@@V?$allocator@VioHashString@@@std@@@std@@@2@V?$_Vector_const_iterator@V?$_Vector_val@VioHashString@@V?$allocator@VioHashString@@@std@@@std@@@2@0@Z ; std::vector<ioHashString,std::allocator<ioHashString> >::erase
; Function compile flags: /Ogsp
;	COMDAT ?erase@?$vector@VioHashString@@V?$allocator@VioHashString@@@std@@@std@@QAE?AV?$_Vector_iterator@V?$_Vector_val@VioHashString@@V?$allocator@VioHashString@@@std@@@std@@@2@V?$_Vector_const_iterator@V?$_Vector_val@VioHashString@@V?$allocator@VioHashString@@@std@@@std@@@2@0@Z
_TEXT	SEGMENT
$T575428 = -4						; size = 4
___$ReturnUdt$ = 8					; size = 4
__First_arg$ = 12					; size = 4
__Cat$575373 = 16					; size = 1
__Last_arg$ = 16					; size = 4
?erase@?$vector@VioHashString@@V?$allocator@VioHashString@@@std@@@std@@QAE?AV?$_Vector_iterator@V?$_Vector_val@VioHashString@@V?$allocator@VioHashString@@@std@@@std@@@2@V?$_Vector_const_iterator@V?$_Vector_val@VioHashString@@V?$allocator@VioHashString@@@std@@@std@@@2@0@Z PROC ; std::vector<ioHashString,std::allocator<ioHashString> >::erase, COMDAT
; _this$ = ecx

; 1190 : 		{	// erase [_First, _Last)

  00000	55		 push	 ebp
  00001	8b ec		 mov	 ebp, esp
  00003	51		 push	 ecx

; 1191 : 		iterator _First = _Make_iter(_First_arg);

  00004	8b 45 08	 mov	 eax, DWORD PTR ___$ReturnUdt$[ebp]
  00007	56		 push	 esi
  00008	8b f1		 mov	 esi, ecx
  0000a	8b 4d 0c	 mov	 ecx, DWORD PTR __First_arg$[ebp]
  0000d	89 08		 mov	 DWORD PTR [eax], ecx

; 1192 : 		iterator _Last = _Make_iter(_Last_arg);
; 1193 : 
; 1194 : 		if (_First != _Last)

  0000f	3b 4d 10	 cmp	 ecx, DWORD PTR __Last_arg$[ebp]
  00012	74 38		 je	 SHORT $LN1@erase@2

; 1195 : 			{	// worth doing, copy down over hole
; 1196 :  #if _ITERATOR_DEBUG_LEVEL == 2
; 1197 : 			if (_Last < _First || _VICONT(_First) != this
; 1198 : 				|| _VIPTR(_First) < this->_Myfirst
; 1199 : 				|| this->_Mylast < _VIPTR(_Last))
; 1200 : 				_DEBUG_ERROR("vector erase iterator outside range");
; 1201 : 			pointer _Ptr = _Move(_VIPTR(_Last), this->_Mylast,
; 1202 : 				_VIPTR(_First));
; 1203 : 			_Orphan_range(_VIPTR(_First), this->_Mylast);
; 1204 : 
; 1205 :  #else /* _ITERATOR_DEBUG_LEVEL == 2 */
; 1206 : 			pointer _Ptr = _Move(_VIPTR(_Last), this->_Mylast,
; 1207 : 				_VIPTR(_First));

  00014	8b 46 04	 mov	 eax, DWORD PTR [esi+4]
  00017	53		 push	 ebx
  00018	57		 push	 edi
  00019	ff 75 10	 push	 DWORD PTR __Cat$575373[ebp]
  0001c	51		 push	 ecx
  0001d	50		 push	 eax
  0001e	ff 75 10	 push	 DWORD PTR __Last_arg$[ebp]
  00021	e8 00 00 00 00	 call	 ??$_Move@PAVioHashString@@PAV1@@std@@YAPAVioHashString@@PAV1@00U_Nonscalar_ptr_iterator_tag@0@@Z ; std::_Move<ioHashString *,ioHashString *>

; 1208 :  #endif /* _ITERATOR_DEBUG_LEVEL == 2 */
; 1209 : 
; 1210 : 			_Destroy(_Ptr, this->_Mylast);

  00026	8b 7e 04	 mov	 edi, DWORD PTR [esi+4]
  00029	8b d8		 mov	 ebx, eax
  0002b	83 c4 10	 add	 esp, 16			; 00000010H
  0002e	89 5d fc	 mov	 DWORD PTR $T575428[ebp], ebx
  00031	3b df		 cmp	 ebx, edi
  00033	74 12		 je	 SHORT $LN36@erase@2
$LL52@erase@2:
  00035	8b 4d fc	 mov	 ecx, DWORD PTR $T575428[ebp]
  00038	ff 15 00 00 00
	00		 call	 DWORD PTR __imp_??1ioHashString@@QAE@XZ
  0003e	83 45 fc 10	 add	 DWORD PTR $T575428[ebp], 16 ; 00000010H
  00042	39 7d fc	 cmp	 DWORD PTR $T575428[ebp], edi
  00045	75 ee		 jne	 SHORT $LL52@erase@2
$LN36@erase@2:

; 1211 : 			this->_Mylast = _Ptr;

  00047	5f		 pop	 edi
  00048	89 5e 04	 mov	 DWORD PTR [esi+4], ebx
  0004b	5b		 pop	 ebx
$LN1@erase@2:

; 1212 : 			}
; 1213 : 		return (_First);

  0004c	8b 45 08	 mov	 eax, DWORD PTR ___$ReturnUdt$[ebp]
  0004f	5e		 pop	 esi

; 1214 : 		}

  00050	c9		 leave
  00051	c2 0c 00	 ret	 12			; 0000000cH
?erase@?$vector@VioHashString@@V?$allocator@VioHashString@@@std@@@std@@QAE?AV?$_Vector_iterator@V?$_Vector_val@VioHashString@@V?$allocator@VioHashString@@@std@@@std@@@2@V?$_Vector_const_iterator@V?$_Vector_val@VioHashString@@V?$allocator@VioHashString@@@std@@@std@@@2@0@Z ENDP ; std::vector<ioHashString,std::allocator<ioHashString> >::erase
_TEXT	ENDS
PUBLIC	?_Tidy@?$vector@VioHashString@@V?$allocator@VioHashString@@@std@@@std@@IAEXXZ ; std::vector<ioHashString,std::allocator<ioHashString> >::_Tidy
; Function compile flags: /Ogsp
;	COMDAT ?_Tidy@?$vector@VioHashString@@V?$allocator@VioHashString@@@std@@@std@@IAEXXZ
_TEXT	SEGMENT
?_Tidy@?$vector@VioHashString@@V?$allocator@VioHashString@@@std@@@std@@IAEXXZ PROC ; std::vector<ioHashString,std::allocator<ioHashString> >::_Tidy, COMDAT
; _this$ = ecx

; 1301 : 		{	// free all storage

  00000	56		 push	 esi
  00001	8b f1		 mov	 esi, ecx

; 1302 : 		if (this->_Myfirst != 0)

  00003	83 3e 00	 cmp	 DWORD PTR [esi], 0
  00006	74 28		 je	 SHORT $LN24@Tidy

; 1303 : 			{	// something to free, destroy and deallocate it
; 1304 : 			this->_Orphan_all();

  00008	53		 push	 ebx
  00009	57		 push	 edi
  0000a	ff 15 00 00 00
	00		 call	 DWORD PTR __imp_?_Orphan_all@_Container_base0@std@@QAEXXZ

; 1305 : 			_Destroy(this->_Myfirst, this->_Mylast);

  00010	8b 5e 04	 mov	 ebx, DWORD PTR [esi+4]
  00013	8b 3e		 mov	 edi, DWORD PTR [esi]
  00015	eb 0b		 jmp	 SHORT $LN28@Tidy
$LL12@Tidy:
  00017	8b cf		 mov	 ecx, edi
  00019	ff 15 00 00 00
	00		 call	 DWORD PTR __imp_??1ioHashString@@QAE@XZ
  0001f	83 c7 10	 add	 edi, 16			; 00000010H
$LN28@Tidy:
  00022	3b fb		 cmp	 edi, ebx
  00024	75 f1		 jne	 SHORT $LL12@Tidy

; 1306 : 			this->_Alval.deallocate(this->_Myfirst,
; 1307 : 				this->_Myend - this->_Myfirst);

  00026	ff 36		 push	 DWORD PTR [esi]
  00028	e8 00 00 00 00	 call	 ??3@YAXPAX@Z		; operator delete
  0002d	59		 pop	 ecx
  0002e	5f		 pop	 edi
  0002f	5b		 pop	 ebx
$LN24@Tidy:

; 1308 : 			}
; 1309 : 		this->_Myfirst = 0;

  00030	33 c0		 xor	 eax, eax
  00032	89 06		 mov	 DWORD PTR [esi], eax

; 1310 : 		this->_Mylast = 0;

  00034	89 46 04	 mov	 DWORD PTR [esi+4], eax

; 1311 : 		this->_Myend = 0;

  00037	89 46 08	 mov	 DWORD PTR [esi+8], eax
  0003a	5e		 pop	 esi

; 1312 : 		}

  0003b	c3		 ret	 0
?_Tidy@?$vector@VioHashString@@V?$allocator@VioHashString@@@std@@@std@@IAEXXZ ENDP ; std::vector<ioHashString,std::allocator<ioHashString> >::_Tidy
_TEXT	ENDS
PUBLIC	?_Tidy@?$vector@UWeaponInfo@@V?$allocator@UWeaponInfo@@@std@@@std@@IAEXXZ ; std::vector<WeaponInfo,std::allocator<WeaponInfo> >::_Tidy
; Function compile flags: /Ogsp
;	COMDAT ?_Tidy@?$vector@UWeaponInfo@@V?$allocator@UWeaponInfo@@@std@@@std@@IAEXXZ
_TEXT	SEGMENT
?_Tidy@?$vector@UWeaponInfo@@V?$allocator@UWeaponInfo@@@std@@@std@@IAEXXZ PROC ; std::vector<WeaponInfo,std::allocator<WeaponInfo> >::_Tidy, COMDAT
; _this$ = ecx

; 1301 : 		{	// free all storage

  00000	56		 push	 esi
  00001	8b f1		 mov	 esi, ecx

; 1302 : 		if (this->_Myfirst != 0)

  00003	83 3e 00	 cmp	 DWORD PTR [esi], 0
  00006	74 1e		 je	 SHORT $LN6@Tidy@2

; 1303 : 			{	// something to free, destroy and deallocate it
; 1304 : 			this->_Orphan_all();

  00008	ff 15 00 00 00
	00		 call	 DWORD PTR __imp_?_Orphan_all@_Container_base0@std@@QAEXXZ

; 1305 : 			_Destroy(this->_Myfirst, this->_Mylast);

  0000e	8d 46 0c	 lea	 eax, DWORD PTR [esi+12]
  00011	50		 push	 eax
  00012	ff 76 04	 push	 DWORD PTR [esi+4]
  00015	ff 36		 push	 DWORD PTR [esi]
  00017	e8 00 00 00 00	 call	 ??$_Destroy_range@V?$allocator@UWeaponInfo@@@std@@@std@@YAXPAUWeaponInfo@@0AAV?$allocator@UWeaponInfo@@@0@@Z ; std::_Destroy_range<std::allocator<WeaponInfo> >

; 1306 : 			this->_Alval.deallocate(this->_Myfirst,
; 1307 : 				this->_Myend - this->_Myfirst);

  0001c	ff 36		 push	 DWORD PTR [esi]
  0001e	e8 00 00 00 00	 call	 ??3@YAXPAX@Z		; operator delete
  00023	83 c4 10	 add	 esp, 16			; 00000010H
$LN6@Tidy@2:

; 1308 : 			}
; 1309 : 		this->_Myfirst = 0;

  00026	83 26 00	 and	 DWORD PTR [esi], 0

; 1310 : 		this->_Mylast = 0;

  00029	83 66 04 00	 and	 DWORD PTR [esi+4], 0

; 1311 : 		this->_Myend = 0;

  0002d	83 66 08 00	 and	 DWORD PTR [esi+8], 0
  00031	5e		 pop	 esi

; 1312 : 		}

  00032	c3		 ret	 0
?_Tidy@?$vector@UWeaponInfo@@V?$allocator@UWeaponInfo@@@std@@@std@@IAEXXZ ENDP ; std::vector<WeaponInfo,std::allocator<WeaponInfo> >::_Tidy
_TEXT	ENDS
PUBLIC	?clear@?$vector@UWeaponInfo@@V?$allocator@UWeaponInfo@@@std@@@std@@QAEXXZ ; std::vector<WeaponInfo,std::allocator<WeaponInfo> >::clear
; Function compile flags: /Ogsp
;	COMDAT ?clear@?$vector@UWeaponInfo@@V?$allocator@UWeaponInfo@@@std@@@std@@QAEXXZ
_TEXT	SEGMENT
$T575600 = -4						; size = 4
?clear@?$vector@UWeaponInfo@@V?$allocator@UWeaponInfo@@@std@@@std@@QAEXXZ PROC ; std::vector<WeaponInfo,std::allocator<WeaponInfo> >::clear, COMDAT
; _this$ = ecx

; 1217 : 		{	// erase all

  00000	55		 push	 ebp
  00001	8b ec		 mov	 ebp, esp
  00003	51		 push	 ecx

; 1218 : 		erase(begin(), end());

  00004	8b 41 04	 mov	 eax, DWORD PTR [ecx+4]
  00007	8b 11		 mov	 edx, DWORD PTR [ecx]
  00009	50		 push	 eax
  0000a	52		 push	 edx
  0000b	8d 45 fc	 lea	 eax, DWORD PTR $T575600[ebp]
  0000e	50		 push	 eax
  0000f	e8 00 00 00 00	 call	 ?erase@?$vector@UWeaponInfo@@V?$allocator@UWeaponInfo@@@std@@@std@@QAE?AV?$_Vector_iterator@V?$_Vector_val@UWeaponInfo@@V?$allocator@UWeaponInfo@@@std@@@std@@@2@V?$_Vector_const_iterator@V?$_Vector_val@UWeaponInfo@@V?$allocator@UWeaponInfo@@@std@@@std@@@2@0@Z ; std::vector<WeaponInfo,std::allocator<WeaponInfo> >::erase

; 1219 : 		}

  00014	c9		 leave
  00015	c3		 ret	 0
?clear@?$vector@UWeaponInfo@@V?$allocator@UWeaponInfo@@@std@@@std@@QAEXXZ ENDP ; std::vector<WeaponInfo,std::allocator<WeaponInfo> >::clear
_TEXT	ENDS
PUBLIC	?push_back@?$vector@UWeaponInfo@@V?$allocator@UWeaponInfo@@@std@@@std@@QAEXABUWeaponInfo@@@Z ; std::vector<WeaponInfo,std::allocator<WeaponInfo> >::push_back
; Function compile flags: /Ogsp
;	COMDAT ?push_back@?$vector@UWeaponInfo@@V?$allocator@UWeaponInfo@@@std@@@std@@QAEXABUWeaponInfo@@@Z
_TEXT	SEGMENT
__Val$ = 8						; size = 4
?push_back@?$vector@UWeaponInfo@@V?$allocator@UWeaponInfo@@@std@@@std@@QAEXABUWeaponInfo@@@Z PROC ; std::vector<WeaponInfo,std::allocator<WeaponInfo> >::push_back, COMDAT
; _this$ = ecx

; 976  : 		{	// insert element at end

  00000	55		 push	 ebp
  00001	8b ec		 mov	 ebp, esp
  00003	56		 push	 esi
  00004	8b f1		 mov	 esi, ecx

; 977  : 		if (_Inside(_STD addressof(_Val)))

  00006	8b 4e 04	 mov	 ecx, DWORD PTR [esi+4]
  00009	57		 push	 edi
  0000a	8b 7d 08	 mov	 edi, DWORD PTR __Val$[ebp]
  0000d	3b f9		 cmp	 edi, ecx
  0000f	73 37		 jae	 SHORT $LN4@push_back
  00011	8b 16		 mov	 edx, DWORD PTR [esi]
  00013	3b d7		 cmp	 edx, edi
  00015	77 31		 ja	 SHORT $LN4@push_back

; 978  : 			{	// push back an element
; 979  : 			size_type _Idx = _STD addressof(_Val) - this->_Myfirst;

  00017	8b c7		 mov	 eax, edi
  00019	2b c2		 sub	 eax, edx
  0001b	6a 28		 push	 40			; 00000028H
  0001d	99		 cdq
  0001e	5f		 pop	 edi
  0001f	f7 ff		 idiv	 edi
  00021	8b f8		 mov	 edi, eax

; 980  : 			if (this->_Mylast == this->_Myend)

  00023	3b 4e 08	 cmp	 ecx, DWORD PTR [esi+8]
  00026	75 09		 jne	 SHORT $LN3@push_back

; 981  : 				_Reserve(1);

  00028	6a 01		 push	 1
  0002a	8b ce		 mov	 ecx, esi
  0002c	e8 00 00 00 00	 call	 ?_Reserve@?$vector@UWeaponInfo@@V?$allocator@UWeaponInfo@@@std@@@std@@IAEXI@Z ; std::vector<WeaponInfo,std::allocator<WeaponInfo> >::_Reserve
$LN3@push_back:

; 982  : 			_Orphan_range(this->_Mylast, this->_Mylast);
; 983  : 			_Cons_val(this->_Alval,
; 984  : 				this->_Mylast,
; 985  : 				this->_Myfirst[_Idx]);

  00031	6b ff 28	 imul	 edi, 40			; 00000028H
  00034	03 3e		 add	 edi, DWORD PTR [esi]
  00036	8d 46 0c	 lea	 eax, DWORD PTR [esi+12]
  00039	57		 push	 edi
  0003a	ff 76 04	 push	 DWORD PTR [esi+4]
  0003d	50		 push	 eax
  0003e	e8 00 00 00 00	 call	 ??$_Cons_val@V?$allocator@UWeaponInfo@@@std@@UWeaponInfo@@AAU3@@std@@YAXAAV?$allocator@UWeaponInfo@@@0@PAUWeaponInfo@@AAU2@@Z ; std::_Cons_val<std::allocator<WeaponInfo>,WeaponInfo,WeaponInfo &>
  00043	83 c4 0c	 add	 esp, 12			; 0000000cH

; 986  : 			++this->_Mylast;
; 987  : 			}
; 988  : 		else

  00046	eb 19		 jmp	 SHORT $LN26@push_back
$LN4@push_back:

; 989  : 			{	// push back a non-element
; 990  : 			if (this->_Mylast == this->_Myend)

  00048	3b 4e 08	 cmp	 ecx, DWORD PTR [esi+8]
  0004b	75 09		 jne	 SHORT $LN1@push_back

; 991  : 				_Reserve(1);

  0004d	6a 01		 push	 1
  0004f	8b ce		 mov	 ecx, esi
  00051	e8 00 00 00 00	 call	 ?_Reserve@?$vector@UWeaponInfo@@V?$allocator@UWeaponInfo@@@std@@@std@@IAEXI@Z ; std::vector<WeaponInfo,std::allocator<WeaponInfo> >::_Reserve
$LN1@push_back:

; 992  : 			_Orphan_range(this->_Mylast, this->_Mylast);
; 993  : 			_Cons_val(this->_Alval,
; 994  : 				this->_Mylast,
; 995  : 				_Val);

  00056	57		 push	 edi
  00057	ff 76 04	 push	 DWORD PTR [esi+4]
  0005a	e8 00 00 00 00	 call	 ??$_Construct@UWeaponInfo@@ABU1@@std@@YAXPAUWeaponInfo@@ABU1@@Z ; std::_Construct<WeaponInfo,WeaponInfo const &>
  0005f	59		 pop	 ecx
  00060	59		 pop	 ecx
$LN26@push_back:

; 996  : 			++this->_Mylast;

  00061	83 46 04 28	 add	 DWORD PTR [esi+4], 40	; 00000028H
  00065	5f		 pop	 edi
  00066	5e		 pop	 esi

; 997  : 			}
; 998  : 		}

  00067	5d		 pop	 ebp
  00068	c2 04 00	 ret	 4
?push_back@?$vector@UWeaponInfo@@V?$allocator@UWeaponInfo@@@std@@@std@@QAEXABUWeaponInfo@@@Z ENDP ; std::vector<WeaponInfo,std::allocator<WeaponInfo> >::push_back
_TEXT	ENDS
PUBLIC	?_Reserve@?$vector@VioHashString@@V?$allocator@VioHashString@@@std@@@std@@IAEXI@Z ; std::vector<ioHashString,std::allocator<ioHashString> >::_Reserve
; Function compile flags: /Ogsp
;	COMDAT ?_Reserve@?$vector@VioHashString@@V?$allocator@VioHashString@@@std@@@std@@IAEXI@Z
_TEXT	SEGMENT
__Count$ = 8						; size = 4
?_Reserve@?$vector@VioHashString@@V?$allocator@VioHashString@@@std@@@std@@IAEXI@Z PROC ; std::vector<ioHashString,std::allocator<ioHashString> >::_Reserve, COMDAT
; _this$ = ecx

; 1290 : 		{	// ensure room for _Count new elements, grow exponentially

  00000	55		 push	 ebp
  00001	8b ec		 mov	 ebp, esp
  00003	56		 push	 esi
  00004	8b f1		 mov	 esi, ecx

; 1291 : 		size_type _Size = size();

  00006	8b 0e		 mov	 ecx, DWORD PTR [esi]
  00008	8b 46 04	 mov	 eax, DWORD PTR [esi+4]
  0000b	2b c1		 sub	 eax, ecx

; 1292 : 		if (max_size() - _Count < _Size)

  0000d	ba ff ff ff 0f	 mov	 edx, 268435455		; 0fffffffH
  00012	2b 55 08	 sub	 edx, DWORD PTR __Count$[ebp]
  00015	c1 f8 04	 sar	 eax, 4
  00018	3b d0		 cmp	 edx, eax
  0001a	73 0b		 jae	 SHORT $LN4@Reserve@2

; 1293 : 			_Xlen();

  0001c	68 00 00 00 00	 push	 OFFSET ??_C@_0BD@OLBABOEK@vector?$DMT?$DO?5too?5long?$AA@
  00021	ff 15 00 00 00
	00		 call	 DWORD PTR __imp_?_Xlength_error@std@@YAXPBD@Z
$LN21@Reserve@2:
$LN4@Reserve@2:

; 1294 : 		else if ((_Size += _Count) <= capacity())

  00027	8b 56 08	 mov	 edx, DWORD PTR [esi+8]
  0002a	03 45 08	 add	 eax, DWORD PTR __Count$[ebp]
  0002d	2b d1		 sub	 edx, ecx
  0002f	c1 fa 04	 sar	 edx, 4
  00032	3b c2		 cmp	 eax, edx
  00034	76 10		 jbe	 SHORT $LN1@Reserve@2

; 1295 : 			;
; 1296 : 		else
; 1297 : 			reserve(_Grow_to(_Size));

  00036	50		 push	 eax
  00037	8b ce		 mov	 ecx, esi
  00039	e8 00 00 00 00	 call	 ?_Grow_to@?$vector@VioHashString@@V?$allocator@VioHashString@@@std@@@std@@IBEII@Z ; std::vector<ioHashString,std::allocator<ioHashString> >::_Grow_to
  0003e	50		 push	 eax
  0003f	8b ce		 mov	 ecx, esi
  00041	e8 00 00 00 00	 call	 ?reserve@?$vector@VioHashString@@V?$allocator@VioHashString@@@std@@@std@@QAEXI@Z ; std::vector<ioHashString,std::allocator<ioHashString> >::reserve
$LN1@Reserve@2:
  00046	5e		 pop	 esi

; 1298 : 		}

  00047	5d		 pop	 ebp
  00048	c2 04 00	 ret	 4
$LN20@Reserve@2:
?_Reserve@?$vector@VioHashString@@V?$allocator@VioHashString@@@std@@@std@@IAEXI@Z ENDP ; std::vector<ioHashString,std::allocator<ioHashString> >::_Reserve
_TEXT	ENDS
PUBLIC	??1?$vector@VioHashString@@V?$allocator@VioHashString@@@std@@@std@@QAE@XZ ; std::vector<ioHashString,std::allocator<ioHashString> >::~vector<ioHashString,std::allocator<ioHashString> >
; Function compile flags: /Ogsp
;	COMDAT ??1?$vector@VioHashString@@V?$allocator@VioHashString@@@std@@@std@@QAE@XZ
_TEXT	SEGMENT
??1?$vector@VioHashString@@V?$allocator@VioHashString@@@std@@@std@@QAE@XZ PROC ; std::vector<ioHashString,std::allocator<ioHashString> >::~vector<ioHashString,std::allocator<ioHashString> >, COMDAT
; _this$ = ecx

; 705  : 		_Tidy();

  00000	e9 00 00 00 00	 jmp	 ?_Tidy@?$vector@VioHashString@@V?$allocator@VioHashString@@@std@@@std@@IAEXXZ ; std::vector<ioHashString,std::allocator<ioHashString> >::_Tidy
??1?$vector@VioHashString@@V?$allocator@VioHashString@@@std@@@std@@QAE@XZ ENDP ; std::vector<ioHashString,std::allocator<ioHashString> >::~vector<ioHashString,std::allocator<ioHashString> >
_TEXT	ENDS
PUBLIC	?clear@?$vector@VioHashString@@V?$allocator@VioHashString@@@std@@@std@@QAEXXZ ; std::vector<ioHashString,std::allocator<ioHashString> >::clear
; Function compile flags: /Ogsp
;	COMDAT ?clear@?$vector@VioHashString@@V?$allocator@VioHashString@@@std@@@std@@QAEXXZ
_TEXT	SEGMENT
$T575731 = -4						; size = 4
?clear@?$vector@VioHashString@@V?$allocator@VioHashString@@@std@@@std@@QAEXXZ PROC ; std::vector<ioHashString,std::allocator<ioHashString> >::clear, COMDAT
; _this$ = ecx

; 1217 : 		{	// erase all

  00000	55		 push	 ebp
  00001	8b ec		 mov	 ebp, esp
  00003	51		 push	 ecx

; 1218 : 		erase(begin(), end());

  00004	8b 41 04	 mov	 eax, DWORD PTR [ecx+4]
  00007	8b 11		 mov	 edx, DWORD PTR [ecx]
  00009	50		 push	 eax
  0000a	52		 push	 edx
  0000b	8d 45 fc	 lea	 eax, DWORD PTR $T575731[ebp]
  0000e	50		 push	 eax
  0000f	e8 00 00 00 00	 call	 ?erase@?$vector@VioHashString@@V?$allocator@VioHashString@@@std@@@std@@QAE?AV?$_Vector_iterator@V?$_Vector_val@VioHashString@@V?$allocator@VioHashString@@@std@@@std@@@2@V?$_Vector_const_iterator@V?$_Vector_val@VioHashString@@V?$allocator@VioHashString@@@std@@@std@@@2@0@Z ; std::vector<ioHashString,std::allocator<ioHashString> >::erase

; 1219 : 		}

  00014	c9		 leave
  00015	c3		 ret	 0
?clear@?$vector@VioHashString@@V?$allocator@VioHashString@@@std@@@std@@QAEXXZ ENDP ; std::vector<ioHashString,std::allocator<ioHashString> >::clear
_TEXT	ENDS
PUBLIC	??1?$vector@UWeaponInfo@@V?$allocator@UWeaponInfo@@@std@@@std@@QAE@XZ ; std::vector<WeaponInfo,std::allocator<WeaponInfo> >::~vector<WeaponInfo,std::allocator<WeaponInfo> >
; Function compile flags: /Ogsp
;	COMDAT ??1?$vector@UWeaponInfo@@V?$allocator@UWeaponInfo@@@std@@@std@@QAE@XZ
_TEXT	SEGMENT
??1?$vector@UWeaponInfo@@V?$allocator@UWeaponInfo@@@std@@@std@@QAE@XZ PROC ; std::vector<WeaponInfo,std::allocator<WeaponInfo> >::~vector<WeaponInfo,std::allocator<WeaponInfo> >, COMDAT
; _this$ = ecx

; 705  : 		_Tidy();

  00000	e9 00 00 00 00	 jmp	 ?_Tidy@?$vector@UWeaponInfo@@V?$allocator@UWeaponInfo@@@std@@@std@@IAEXXZ ; std::vector<WeaponInfo,std::allocator<WeaponInfo> >::_Tidy
??1?$vector@UWeaponInfo@@V?$allocator@UWeaponInfo@@@std@@@std@@QAE@XZ ENDP ; std::vector<WeaponInfo,std::allocator<WeaponInfo> >::~vector<WeaponInfo,std::allocator<WeaponInfo> >
_TEXT	ENDS
PUBLIC	??_7ioPullWeapon2@@6B@				; ioPullWeapon2::`vftable'
PUBLIC	??0ioPullWeapon2@@QAE@PAVioBaseChar@@PBUWeaponAttribute@@@Z ; ioPullWeapon2::ioPullWeapon2
PUBLIC	??_R4ioPullWeapon2@@6B@				; ioPullWeapon2::`RTTI Complete Object Locator'
PUBLIC	??_R0?AVioPullWeapon2@@@8			; ioPullWeapon2 `RTTI Type Descriptor'
PUBLIC	??_R3ioPullWeapon2@@8				; ioPullWeapon2::`RTTI Class Hierarchy Descriptor'
PUBLIC	??_R2ioPullWeapon2@@8				; ioPullWeapon2::`RTTI Base Class Array'
PUBLIC	??_R1A@?0A@EA@ioPullWeapon2@@8			; ioPullWeapon2::`RTTI Base Class Descriptor at (0,-1,0,64)'
PUBLIC	??_R1A@?0A@EA@ioWeapon@@8			; ioWeapon::`RTTI Base Class Descriptor at (0,-1,0,64)'
PUBLIC	??_R0?AVioWeapon@@@8				; ioWeapon `RTTI Type Descriptor'
PUBLIC	??_R3ioWeapon@@8				; ioWeapon::`RTTI Class Hierarchy Descriptor'
PUBLIC	??_R2ioWeapon@@8				; ioWeapon::`RTTI Base Class Array'
PUBLIC	?Process@ioPullWeapon2@@UAEXMPAVioPlayStage@@@Z	; ioPullWeapon2::Process
PUBLIC	?LoadCallAttributeList@ioPullWeapon2@@UAEXAAVioINILoader@@@Z ; ioPullWeapon2::LoadCallAttributeList
EXTRN	__imp_??1ioOrientBox@@QAE@XZ:PROC
EXTRN	??1ioWeapon@@UAE@XZ:PROC			; ioWeapon::~ioWeapon
EXTRN	__imp_?VEC3_ZERO@ioMath@@2UD3DXVECTOR3@@A:BYTE
EXTRN	__imp_??0ioOrientBox@@QAE@XZ:PROC
EXTRN	??0ioWeapon@@QAE@PAVioBaseChar@@PBUWeaponAttribute@@@Z:PROC ; ioWeapon::ioWeapon
EXTRN	?IsAlreadyCollisioned@ioWeapon@@UAE_NPAVioPlayEntity@@@Z:PROC ; ioWeapon::IsAlreadyCollisioned
EXTRN	?AddCollisionEntity@ioWeapon@@UAEXPAVioPlayEntity@@@Z:PROC ; ioWeapon::AddCollisionEntity
EXTRN	?SetOwnerDamageRate@ioWeapon@@UAEXM@Z:PROC	; ioWeapon::SetOwnerDamageRate
EXTRN	?SetOwnerChargeDamageRate@ioWeapon@@UAEXM@Z:PROC ; ioWeapon::SetOwnerChargeDamageRate
EXTRN	?SetOwnerChargeForceRate@ioWeapon@@UAEXM@Z:PROC	; ioWeapon::SetOwnerChargeForceRate
EXTRN	?SetOwnerChargeRangeRate@ioWeapon@@UAEXM@Z:PROC	; ioWeapon::SetOwnerChargeRangeRate
EXTRN	?SetOwnerChargeSpeedRate@ioWeapon@@UAEXM@Z:PROC	; ioWeapon::SetOwnerChargeSpeedRate
EXTRN	?SetOwnerChargeBlowRate@ioWeapon@@UAEXM@Z:PROC	; ioWeapon::SetOwnerChargeBlowRate
EXTRN	?SetOwnerChargeFloatRate@ioWeapon@@UAEXM@Z:PROC	; ioWeapon::SetOwnerChargeFloatRate
EXTRN	?SetOwnerChargeScaleRate@ioWeapon@@UAEXM@Z:PROC	; ioWeapon::SetOwnerChargeScaleRate
EXTRN	?SetOwnerChargeExplosionRate@ioWeapon@@UAEXM@Z:PROC ; ioWeapon::SetOwnerChargeExplosionRate
EXTRN	?SetOwnerChargeWoundedTimeRate@ioWeapon@@UAEXM@Z:PROC ; ioWeapon::SetOwnerChargeWoundedTimeRate
EXTRN	?SetOwnerChargeLiveTimeRate@ioWeapon@@UAEXM@Z:PROC ; ioWeapon::SetOwnerChargeLiveTimeRate
EXTRN	?SetOwnerChargeBuffLiveTimeRate@ioWeapon@@UAEXM@Z:PROC ; ioWeapon::SetOwnerChargeBuffLiveTimeRate
EXTRN	?SetWeaponIndex@ioWeapon@@UAEXK@Z:PROC		; ioWeapon::SetWeaponIndex
EXTRN	?SetGrapplingTargetName@ioWeapon@@UAEXABVioHashString@@@Z:PROC ; ioWeapon::SetGrapplingTargetName
EXTRN	?SetCreateItem@ioWeapon@@UAEXABVioHashString@@@Z:PROC ; ioWeapon::SetCreateItem
EXTRN	?SetTeam@ioWeapon@@UAEXPAVioPlayStage@@W4TeamType@@@Z:PROC ; ioWeapon::SetTeam
EXTRN	?CallReserveAreaWeapon@ioWeapon@@UAEXXZ:PROC	; ioWeapon::CallReserveAreaWeapon
EXTRN	?SetWeaponDead@ioWeapon@@UAEXXZ:PROC		; ioWeapon::SetWeaponDead
EXTRN	?PlayExplosionSound@ioWeapon@@UAEXXZ:PROC	; ioWeapon::PlayExplosionSound
EXTRN	?PlayWoundedSound@ioWeapon@@UAEXPAVioPlayEntity@@@Z:PROC ; ioWeapon::PlayWoundedSound
EXTRN	?PlayDefensedSound@ioWeapon@@UAEXPAVioPlayEntity@@@Z:PROC ; ioWeapon::PlayDefensedSound
EXTRN	?PlayLoopSound@ioWeapon@@UAEXXZ:PROC		; ioWeapon::PlayLoopSound
EXTRN	?StopLoopSound@ioWeapon@@UAEXXZ:PROC		; ioWeapon::StopLoopSound
EXTRN	?GetTargetAirBuffList@ioWeapon@@UBEABV?$vector@UBuffInfoStruct@@V?$allocator@UBuffInfoStruct@@@std@@@std@@XZ:PROC ; ioWeapon::GetTargetAirBuffList
EXTRN	?GetTargetBuffList@ioWeapon@@UBEABV?$vector@UBuffInfoStruct@@V?$allocator@UBuffInfoStruct@@@std@@@std@@XZ:PROC ; ioWeapon::GetTargetBuffList
EXTRN	?GetTargetDownBuffList@ioWeapon@@UBEABV?$vector@UBuffInfoStruct@@V?$allocator@UBuffInfoStruct@@@std@@@std@@XZ:PROC ; ioWeapon::GetTargetDownBuffList
EXTRN	?GetPosition@ioWeapon@@UBEABUD3DXVECTOR3@@XZ:PROC ; ioWeapon::GetPosition
EXTRN	?GetBlowType@ioWeapon@@UBE?AW4BlowTargetType@@XZ:PROC ; ioWeapon::GetBlowType
EXTRN	?GetPushPower@ioWeapon@@UBEMM@Z:PROC		; ioWeapon::GetPushPower
EXTRN	?GetBlowPower@ioWeapon@@UBEMM@Z:PROC		; ioWeapon::GetBlowPower
EXTRN	?GetAirPushPower@ioWeapon@@UBEMM@Z:PROC		; ioWeapon::GetAirPushPower
EXTRN	?GetAirBlowPower@ioWeapon@@UBEMM@Z:PROC		; ioWeapon::GetAirBlowPower
EXTRN	?GetDefensePushPower@ioWeapon@@UBEMM@Z:PROC	; ioWeapon::GetDefensePushPower
EXTRN	?GetCollisionEnableTime@ioWeapon@@UBEKXZ:PROC	; ioWeapon::GetCollisionEnableTime
EXTRN	?SetSylphid@ioWeapon@@UAEHXZ:PROC		; ioWeapon::SetSylphid
EXTRN	?ApplyExtraReserveWeaponByWeaponInfo@ioWeapon@@UAEXPAV1@@Z:PROC ; ioWeapon::ApplyExtraReserveWeaponByWeaponInfo
EXTRN	?SetResistanceAttr@ioWeapon@@UAEXH@Z:PROC	; ioWeapon::SetResistanceAttr
EXTRN	?SetStartCollisionBox@ioWeapon@@UAEXXZ:PROC	; ioWeapon::SetStartCollisionBox
EXTRN	?SetLiveTime@ioWeapon@@UAEXK@Z:PROC		; ioWeapon::SetLiveTime
EXTRN	?SetMoveSpeed@ioWeapon@@UAEXM@Z:PROC		; ioWeapon::SetMoveSpeed
EXTRN	?SetFloatPower@ioWeapon@@UAEXM@Z:PROC		; ioWeapon::SetFloatPower
EXTRN	?CheckPreCollision@ioWeapon@@UAEXPAVioPlayEntity@@PAVioPlayStage@@@Z:PROC ; ioWeapon::CheckPreCollision
EXTRN	?CheckStructAndDummy@ioWeapon@@UAEXPAVioPlayEntity@@PAVioPlayStage@@@Z:PROC ; ioWeapon::CheckStructAndDummy
EXTRN	?GetDamage@ioWeapon@@UAEMPAVioPlayEntity@@@Z:PROC ; ioWeapon::GetDamage
EXTRN	?GetBaseDamage@ioWeapon@@UAEMPAVioPlayEntity@@@Z:PROC ; ioWeapon::GetBaseDamage
EXTRN	?GetPushAngle@ioWeapon@@UBEMXZ:PROC		; ioWeapon::GetPushAngle
EXTRN	?IsResistanceMagic@ioWeapon@@UAEHPAVioBaseChar@@@Z:PROC ; ioWeapon::IsResistanceMagic
EXTRN	?IsResistanceBomb@ioWeapon@@UAEHPAVioBaseChar@@@Z:PROC ; ioWeapon::IsResistanceBomb
EXTRN	?IsCanMineExplosion@ioWeapon@@UAE_NXZ:PROC	; ioWeapon::IsCanMineExplosion
EXTRN	?CheckGrapplingState@ioWeapon@@UAE?AW4GrapplingType@@XZ:PROC ; ioWeapon::CheckGrapplingState
EXTRN	?CheckCurAttribute@ioWeapon@@UAEXPBVioPlayEntity@@@Z:PROC ; ioWeapon::CheckCurAttribute
EXTRN	?CheckItemNotDrop@ioWeapon@@UAE_NPAVioBaseChar@@@Z:PROC ; ioWeapon::CheckItemNotDrop
EXTRN	?GetWorldAttackBoxList@ioWeapon@@UAEXAAV?$vector@VioOrientBox@@V?$allocator@VioOrientBox@@@std@@@std@@@Z:PROC ; ioWeapon::GetWorldAttackBoxList
EXTRN	?GetAttackDir@ioWeapon@@UBE?AUD3DXVECTOR3@@PBVioPlayEntity@@@Z:PROC ; ioWeapon::GetAttackDir
EXTRN	?GetLiveTime@ioWeapon@@UAEKXZ:PROC		; ioWeapon::GetLiveTime
EXTRN	?GetMoveDir@ioWeapon@@UAE?AUD3DXVECTOR3@@XZ:PROC ; ioWeapon::GetMoveDir
EXTRN	?CheckWeaponCollision@ioWeapon@@UAEXXZ:PROC	; ioWeapon::CheckWeaponCollision
EXTRN	?GetRefreshDuration@ioWeapon@@UAEKXZ:PROC	; ioWeapon::GetRefreshDuration
EXTRN	?GetIgnoreDuration@ioWeapon@@UAEKXZ:PROC	; ioWeapon::GetIgnoreDuration
EXTRN	?GetIgnoreTimeTypeDuration@ioWeapon@@UAEKXZ:PROC ; ioWeapon::GetIgnoreTimeTypeDuration
EXTRN	?GetIgnoreTimeType@ioWeapon@@UAEKXZ:PROC	; ioWeapon::GetIgnoreTimeType
EXTRN	?IsSkillDependency@ioWeapon@@UAE_NABVioHashString@@@Z:PROC ; ioWeapon::IsSkillDependency
EXTRN	?SetSkillDependencyAction@ioWeapon@@UAEXXZ:PROC	; ioWeapon::SetSkillDependencyAction
EXTRN	?GetAttribute@ioWeapon@@MBEPBUWeaponAttribute@@XZ:PROC ; ioWeapon::GetAttribute
EXTRN	?CalcFinalDamage@ioWeapon@@MAEMXZ:PROC		; ioWeapon::CalcFinalDamage
EXTRN	?CalcFinalBoundDamage@ioWeapon@@MAEMXZ:PROC	; ioWeapon::CalcFinalBoundDamage
EXTRN	?CheckPiercing@ioWeapon@@MAE_N_N@Z:PROC		; ioWeapon::CheckPiercing
EXTRN	?ClearCollisionList@ioWeapon@@MAEXXZ:PROC	; ioWeapon::ClearCollisionList
EXTRN	?CheckCreateWeaponList@ioWeapon@@MAEXXZ:PROC	; ioWeapon::CheckCreateWeaponList
EXTRN	?CreateCollisionAreaWeapon@ioWeapon@@MAEXXZ:PROC ; ioWeapon::CreateCollisionAreaWeapon
EXTRN	?SetMapCollision@ioWeapon@@UAEXXZ:PROC		; ioWeapon::SetMapCollision
EXTRN	?IsIgnoreMapCollision@ioWeapon@@UBE_NXZ:PROC	; ioWeapon::IsIgnoreMapCollision
EXTRN	?IsIgnoreTestMapCollision@ioWeapon@@UBE_NXZ:PROC ; ioWeapon::IsIgnoreTestMapCollision
EXTRN	?IsIgnoreMapCollisionEffect@ioWeapon@@UBE_NXZ:PROC ; ioWeapon::IsIgnoreMapCollisionEffect
EXTRN	?AddEffectEvent@ioWeapon@@MAEXPAVioEffect@@@Z:PROC ; ioWeapon::AddEffectEvent
EXTRN	??_EioPullWeapon2@@UAEPAXI@Z:PROC		; ioPullWeapon2::`vector deleting destructor'
;	COMDAT ??_R2ioWeapon@@8
; File d:\lost saga for developer\youtube\tutorial\source\src\lsclient\encryptvalue.h
rdata$r	SEGMENT
??_R2ioWeapon@@8 DD FLAT:??_R1A@?0A@EA@ioWeapon@@8	; ioWeapon::`RTTI Base Class Array'
rdata$r	ENDS
;	COMDAT ??_R3ioWeapon@@8
rdata$r	SEGMENT
??_R3ioWeapon@@8 DD 00H					; ioWeapon::`RTTI Class Hierarchy Descriptor'
	DD	00H
	DD	01H
	DD	FLAT:??_R2ioWeapon@@8
rdata$r	ENDS
;	COMDAT ??_R0?AVioWeapon@@@8
_DATA	SEGMENT
??_R0?AVioWeapon@@@8 DD FLAT:??_7type_info@@6B@		; ioWeapon `RTTI Type Descriptor'
	DD	00H
	DB	'.?AVioWeapon@@', 00H
_DATA	ENDS
;	COMDAT ??_R1A@?0A@EA@ioWeapon@@8
rdata$r	SEGMENT
??_R1A@?0A@EA@ioWeapon@@8 DD FLAT:??_R0?AVioWeapon@@@8	; ioWeapon::`RTTI Base Class Descriptor at (0,-1,0,64)'
	DD	00H
	DD	00H
	DD	0ffffffffH
	DD	00H
	DD	040H
	DD	FLAT:??_R3ioWeapon@@8
rdata$r	ENDS
;	COMDAT ??_R1A@?0A@EA@ioPullWeapon2@@8
rdata$r	SEGMENT
??_R1A@?0A@EA@ioPullWeapon2@@8 DD FLAT:??_R0?AVioPullWeapon2@@@8 ; ioPullWeapon2::`RTTI Base Class Descriptor at (0,-1,0,64)'
	DD	01H
	DD	00H
	DD	0ffffffffH
	DD	00H
	DD	040H
	DD	FLAT:??_R3ioPullWeapon2@@8
rdata$r	ENDS
;	COMDAT ??_R2ioPullWeapon2@@8
rdata$r	SEGMENT
??_R2ioPullWeapon2@@8 DD FLAT:??_R1A@?0A@EA@ioPullWeapon2@@8 ; ioPullWeapon2::`RTTI Base Class Array'
	DD	FLAT:??_R1A@?0A@EA@ioWeapon@@8
rdata$r	ENDS
;	COMDAT ??_R3ioPullWeapon2@@8
rdata$r	SEGMENT
??_R3ioPullWeapon2@@8 DD 00H				; ioPullWeapon2::`RTTI Class Hierarchy Descriptor'
	DD	00H
	DD	02H
	DD	FLAT:??_R2ioPullWeapon2@@8
rdata$r	ENDS
;	COMDAT ??_R0?AVioPullWeapon2@@@8
_DATA	SEGMENT
??_R0?AVioPullWeapon2@@@8 DD FLAT:??_7type_info@@6B@	; ioPullWeapon2 `RTTI Type Descriptor'
	DD	00H
	DB	'.?AVioPullWeapon2@@', 00H
_DATA	ENDS
;	COMDAT ??_R4ioPullWeapon2@@6B@
rdata$r	SEGMENT
??_R4ioPullWeapon2@@6B@ DD 00H				; ioPullWeapon2::`RTTI Complete Object Locator'
	DD	00H
	DD	00H
	DD	FLAT:??_R0?AVioPullWeapon2@@@8
	DD	FLAT:??_R3ioPullWeapon2@@8
rdata$r	ENDS
;	COMDAT ??_7ioPullWeapon2@@6B@
CONST	SEGMENT
??_7ioPullWeapon2@@6B@ DD FLAT:??_R4ioPullWeapon2@@6B@	; ioPullWeapon2::`vftable'
	DD	FLAT:?IsAlreadyCollisioned@ioWeapon@@UAE_NPAVioPlayEntity@@@Z
	DD	FLAT:?AddCollisionEntity@ioWeapon@@UAEXPAVioPlayEntity@@@Z
	DD	FLAT:?SetOwnerDamageRate@ioWeapon@@UAEXM@Z
	DD	FLAT:?SetOwnerChargeDamageRate@ioWeapon@@UAEXM@Z
	DD	FLAT:?SetOwnerChargeForceRate@ioWeapon@@UAEXM@Z
	DD	FLAT:?SetOwnerChargeRangeRate@ioWeapon@@UAEXM@Z
	DD	FLAT:?SetOwnerChargeSpeedRate@ioWeapon@@UAEXM@Z
	DD	FLAT:?SetOwnerChargeBlowRate@ioWeapon@@UAEXM@Z
	DD	FLAT:?SetOwnerChargeFloatRate@ioWeapon@@UAEXM@Z
	DD	FLAT:?SetOwnerChargeScaleRate@ioWeapon@@UAEXM@Z
	DD	FLAT:?SetOwnerChargeExplosionRate@ioWeapon@@UAEXM@Z
	DD	FLAT:?SetOwnerChargeWoundedTimeRate@ioWeapon@@UAEXM@Z
	DD	FLAT:?SetOwnerChargeLiveTimeRate@ioWeapon@@UAEXM@Z
	DD	FLAT:?SetOwnerChargeBuffLiveTimeRate@ioWeapon@@UAEXM@Z
	DD	FLAT:?SetWeaponIndex@ioWeapon@@UAEXK@Z
	DD	FLAT:?SetGrapplingTargetName@ioWeapon@@UAEXABVioHashString@@@Z
	DD	FLAT:?SetCreateItem@ioWeapon@@UAEXABVioHashString@@@Z
	DD	FLAT:?SetTeam@ioWeapon@@UAEXPAVioPlayStage@@W4TeamType@@@Z
	DD	FLAT:?CallReserveAreaWeapon@ioWeapon@@UAEXXZ
	DD	FLAT:?SetWeaponDead@ioWeapon@@UAEXXZ
	DD	FLAT:?PlayExplosionSound@ioWeapon@@UAEXXZ
	DD	FLAT:?PlayWoundedSound@ioWeapon@@UAEXPAVioPlayEntity@@@Z
	DD	FLAT:?PlayDefensedSound@ioWeapon@@UAEXPAVioPlayEntity@@@Z
	DD	FLAT:?PlayLoopSound@ioWeapon@@UAEXXZ
	DD	FLAT:?StopLoopSound@ioWeapon@@UAEXXZ
	DD	FLAT:?GetTargetAirBuffList@ioWeapon@@UBEABV?$vector@UBuffInfoStruct@@V?$allocator@UBuffInfoStruct@@@std@@@std@@XZ
	DD	FLAT:?GetTargetBuffList@ioWeapon@@UBEABV?$vector@UBuffInfoStruct@@V?$allocator@UBuffInfoStruct@@@std@@@std@@XZ
	DD	FLAT:?GetTargetDownBuffList@ioWeapon@@UBEABV?$vector@UBuffInfoStruct@@V?$allocator@UBuffInfoStruct@@@std@@@std@@XZ
	DD	FLAT:?GetPosition@ioWeapon@@UBEABUD3DXVECTOR3@@XZ
	DD	FLAT:?GetBlowType@ioWeapon@@UBE?AW4BlowTargetType@@XZ
	DD	FLAT:?GetPushPower@ioWeapon@@UBEMM@Z
	DD	FLAT:?GetBlowPower@ioWeapon@@UBEMM@Z
	DD	FLAT:?GetAirPushPower@ioWeapon@@UBEMM@Z
	DD	FLAT:?GetAirBlowPower@ioWeapon@@UBEMM@Z
	DD	FLAT:?GetDefensePushPower@ioWeapon@@UBEMM@Z
	DD	FLAT:?GetCollisionEnableTime@ioWeapon@@UBEKXZ
	DD	FLAT:?SetSylphid@ioWeapon@@UAEHXZ
	DD	FLAT:?ApplyExtraReserveWeaponByWeaponInfo@ioWeapon@@UAEXPAV1@@Z
	DD	FLAT:?InitResource@ioPullWeapon2@@UAE_NXZ
	DD	FLAT:?DestroyResource@ioPullWeapon2@@UAEXPAVioPlayStage@@@Z
	DD	FLAT:?LoadProperty@ioPullWeapon2@@UAEXAAVioINILoader@@@Z
	DD	FLAT:?SetResistanceAttr@ioWeapon@@UAEXH@Z
	DD	FLAT:?SetStartCollisionBox@ioWeapon@@UAEXXZ
	DD	FLAT:?SetLiveTime@ioWeapon@@UAEXK@Z
	DD	FLAT:?SetMoveDir@ioPullWeapon2@@UAEXABUD3DXVECTOR3@@@Z
	DD	FLAT:?SetMoveSpeed@ioWeapon@@UAEXM@Z
	DD	FLAT:?SetFloatPower@ioWeapon@@UAEXM@Z
	DD	FLAT:?SetStartPosition@ioPullWeapon2@@UAEXABUD3DXVECTOR3@@PAVioPlayStage@@@Z
	DD	FLAT:?Process@ioPullWeapon2@@UAEXMPAVioPlayStage@@@Z
	DD	FLAT:?IsCollision@ioPullWeapon2@@UAE_NPAVioPlayEntity@@_N@Z
	DD	FLAT:?TestMapCollision@ioPullWeapon2@@UAE_NPAVioOpcodeShape@@PAVioPlayStage@@PBUD3DXMATRIX@@@Z
	DD	FLAT:?CheckPreCollision@ioWeapon@@UAEXPAVioPlayEntity@@PAVioPlayStage@@@Z
	DD	FLAT:?CheckStructAndDummy@ioWeapon@@UAEXPAVioPlayEntity@@PAVioPlayStage@@@Z
	DD	FLAT:?GetDamage@ioWeapon@@UAEMPAVioPlayEntity@@@Z
	DD	FLAT:?GetBaseDamage@ioWeapon@@UAEMPAVioPlayEntity@@@Z
	DD	FLAT:?GetPushAngle@ioWeapon@@UBEMXZ
	DD	FLAT:?IsResistanceMagic@ioWeapon@@UAEHPAVioBaseChar@@@Z
	DD	FLAT:?IsResistanceBomb@ioWeapon@@UAEHPAVioBaseChar@@@Z
	DD	FLAT:?IsCanMineExplosion@ioWeapon@@UAE_NXZ
	DD	FLAT:?CheckGrapplingState@ioWeapon@@UAE?AW4GrapplingType@@XZ
	DD	FLAT:?CheckCurAttribute@ioWeapon@@UAEXPBVioPlayEntity@@@Z
	DD	FLAT:?CheckItemNotDrop@ioWeapon@@UAE_NPAVioBaseChar@@@Z
	DD	FLAT:?GetWorldAttackBoxList@ioWeapon@@UAEXAAV?$vector@VioOrientBox@@V?$allocator@VioOrientBox@@@std@@@std@@@Z
	DD	FLAT:?GetAttackDir@ioWeapon@@UBE?AUD3DXVECTOR3@@PBVioPlayEntity@@@Z
	DD	FLAT:?GetLocalAttackBox@ioPullWeapon2@@UBEABVioOrientBox@@XZ
	DD	FLAT:?GetLiveTime@ioWeapon@@UAEKXZ
	DD	FLAT:?GetMoveDir@ioWeapon@@UAE?AUD3DXVECTOR3@@XZ
	DD	FLAT:?CheckWeaponCollision@ioWeapon@@UAEXXZ
	DD	FLAT:?GetType@ioPullWeapon2@@UBE?AW4WeaponType@ioWeapon@@XZ
	DD	FLAT:?GetActionStopType@ioPullWeapon2@@UBE?AW4ActionStopType@@XZ
	DD	FLAT:?GetDieActionStopType@ioPullWeapon2@@UBE?AW4ActionStopType@@XZ
	DD	FLAT:?GetRefreshDuration@ioWeapon@@UAEKXZ
	DD	FLAT:?GetIgnoreDuration@ioWeapon@@UAEKXZ
	DD	FLAT:?GetIgnoreTimeTypeDuration@ioWeapon@@UAEKXZ
	DD	FLAT:?GetIgnoreTimeType@ioWeapon@@UAEKXZ
	DD	FLAT:?ApplyWeaponSync@ioPullWeapon2@@UAEXAAVSP2Packet@@PAVioPlayStage@@@Z
	DD	FLAT:?IsSkillDependency@ioWeapon@@UAE_NABVioHashString@@@Z
	DD	FLAT:?SetSkillDependencyAction@ioWeapon@@UAEXXZ
	DD	FLAT:?UpdateWorldAttackBox@ioPullWeapon2@@MAEXM_N@Z
	DD	FLAT:?GetAttribute@ioWeapon@@MBEPBUWeaponAttribute@@XZ
	DD	FLAT:?CalcFinalDamage@ioWeapon@@MAEMXZ
	DD	FLAT:?CalcFinalBoundDamage@ioWeapon@@MAEMXZ
	DD	FLAT:?CheckPiercing@ioWeapon@@MAE_N_N@Z
	DD	FLAT:?ClearCollisionList@ioWeapon@@MAEXXZ
	DD	FLAT:?CheckCreateWeaponList@ioWeapon@@MAEXXZ
	DD	FLAT:?CreateCollisionAreaWeapon@ioWeapon@@MAEXXZ
	DD	FLAT:?SetMapCollision@ioWeapon@@UAEXXZ
	DD	FLAT:?IsIgnoreMapCollision@ioWeapon@@UBE_NXZ
	DD	FLAT:?IsIgnoreTestMapCollision@ioWeapon@@UBE_NXZ
	DD	FLAT:?IsIgnoreMapCollisionEffect@ioWeapon@@UBE_NXZ
	DD	FLAT:?AddEffectEvent@ioWeapon@@MAEXPAVioEffect@@@Z
	DD	FLAT:??_EioPullWeapon2@@UAEPAXI@Z
	DD	FLAT:?LoadCallAttributeList@ioPullWeapon2@@UAEXAAVioINILoader@@@Z
CONST	ENDS
;	COMDAT xdata$x
xdata$x	SEGMENT
__ehfuncinfo$??0ioPullWeapon2@@QAE@PAVioBaseChar@@PBUWeaponAttribute@@@Z DD 019930522H
	DD	0cH
	DD	FLAT:__unwindtable$??0ioPullWeapon2@@QAE@PAVioBaseChar@@PBUWeaponAttribute@@@Z
	DD	2 DUP(00H)
	DD	2 DUP(00H)
	DD	00H
	DD	01H
__unwindtable$??0ioPullWeapon2@@QAE@PAVioBaseChar@@PBUWeaponAttribute@@@Z DD 0ffffffffH
	DD	FLAT:__unwindfunclet$??0ioPullWeapon2@@QAE@PAVioBaseChar@@PBUWeaponAttribute@@@Z$0
	DD	00H
	DD	FLAT:__unwindfunclet$??0ioPullWeapon2@@QAE@PAVioBaseChar@@PBUWeaponAttribute@@@Z$1
	DD	01H
	DD	FLAT:__unwindfunclet$??0ioPullWeapon2@@QAE@PAVioBaseChar@@PBUWeaponAttribute@@@Z$2
	DD	02H
	DD	FLAT:__unwindfunclet$??0ioPullWeapon2@@QAE@PAVioBaseChar@@PBUWeaponAttribute@@@Z$3
	DD	03H
	DD	FLAT:__unwindfunclet$??0ioPullWeapon2@@QAE@PAVioBaseChar@@PBUWeaponAttribute@@@Z$4
	DD	04H
	DD	FLAT:__unwindfunclet$??0ioPullWeapon2@@QAE@PAVioBaseChar@@PBUWeaponAttribute@@@Z$5
	DD	05H
	DD	FLAT:__unwindfunclet$??0ioPullWeapon2@@QAE@PAVioBaseChar@@PBUWeaponAttribute@@@Z$6
	DD	06H
	DD	FLAT:__unwindfunclet$??0ioPullWeapon2@@QAE@PAVioBaseChar@@PBUWeaponAttribute@@@Z$7
	DD	07H
	DD	FLAT:__unwindfunclet$??0ioPullWeapon2@@QAE@PAVioBaseChar@@PBUWeaponAttribute@@@Z$8
	DD	08H
	DD	FLAT:__unwindfunclet$??0ioPullWeapon2@@QAE@PAVioBaseChar@@PBUWeaponAttribute@@@Z$9
	DD	09H
	DD	FLAT:__unwindfunclet$??0ioPullWeapon2@@QAE@PAVioBaseChar@@PBUWeaponAttribute@@@Z$10
	DD	0aH
	DD	FLAT:__unwindfunclet$??0ioPullWeapon2@@QAE@PAVioBaseChar@@PBUWeaponAttribute@@@Z$11
; Function compile flags: /Ogsp
; File d:\lost saga for developer\youtube\tutorial\source\src\lsclient\iopullweapon2.cpp
xdata$x	ENDS
;	COMDAT ??0ioPullWeapon2@@QAE@PAVioBaseChar@@PBUWeaponAttribute@@@Z
_TEXT	SEGMENT
_this$ = -16						; size = 4
__$EHRec$ = -12						; size = 12
_pOwner$ = 8						; size = 4
_value$575866 = 12					; size = 4
_value$575862 = 12					; size = 4
_pAttr$ = 12						; size = 4
??0ioPullWeapon2@@QAE@PAVioBaseChar@@PBUWeaponAttribute@@@Z PROC ; ioPullWeapon2::ioPullWeapon2, COMDAT
; _this$ = ecx

; 19   : {

  00000	6a 04		 push	 4
  00002	b8 00 00 00 00	 mov	 eax, __ehhandler$??0ioPullWeapon2@@QAE@PAVioBaseChar@@PBUWeaponAttribute@@@Z
  00007	e8 00 00 00 00	 call	 __EH_prolog3
  0000c	8b d9		 mov	 ebx, ecx
  0000e	89 5d f0	 mov	 DWORD PTR _this$[ebp], ebx
  00011	ff 75 0c	 push	 DWORD PTR _pAttr$[ebp]
  00014	ff 75 08	 push	 DWORD PTR _pOwner$[ebp]
  00017	e8 00 00 00 00	 call	 ??0ioWeapon@@QAE@PAVioBaseChar@@PBUWeaponAttribute@@@Z ; ioWeapon::ioWeapon
  0001c	33 f6		 xor	 esi, esi
  0001e	8d 8b 98 08 00
	00		 lea	 ecx, DWORD PTR [ebx+2200]
  00024	89 75 fc	 mov	 DWORD PTR __$EHRec$[ebp+8], esi
  00027	c7 03 00 00 00
	00		 mov	 DWORD PTR [ebx], OFFSET ??_7ioPullWeapon2@@6B@
  0002d	ff 15 00 00 00
	00		 call	 DWORD PTR __imp_??0ioOrientBox@@QAE@XZ
  00033	8b 3d 00 00 00
	00		 mov	 edi, DWORD PTR __imp_??0ioHashString@@QAE@XZ
  00039	8d 8b f8 08 00
	00		 lea	 ecx, DWORD PTR [ebx+2296]
  0003f	c6 45 fc 01	 mov	 BYTE PTR __$EHRec$[ebp+8], 1
  00043	ff d7		 call	 edi
  00045	8d 8b 08 09 00
	00		 lea	 ecx, DWORD PTR [ebx+2312]
  0004b	c6 45 fc 02	 mov	 BYTE PTR __$EHRec$[ebp+8], 2
  0004f	e8 00 00 00 00	 call	 ??0?$CEncrypt@K@@QAE@XZ	; CEncrypt<unsigned long>::CEncrypt<unsigned long>
  00054	8d 8b 38 09 00
	00		 lea	 ecx, DWORD PTR [ebx+2360]
  0005a	c6 45 fc 03	 mov	 BYTE PTR __$EHRec$[ebp+8], 3
  0005e	e8 00 00 00 00	 call	 ??0?$CEncrypt@K@@QAE@XZ	; CEncrypt<unsigned long>::CEncrypt<unsigned long>
  00063	8d 8b 68 09 00
	00		 lea	 ecx, DWORD PTR [ebx+2408]
  00069	c6 45 fc 04	 mov	 BYTE PTR __$EHRec$[ebp+8], 4
  0006d	e8 00 00 00 00	 call	 ??0?$CEncrypt@M@@QAE@XZ	; CEncrypt<float>::CEncrypt<float>
  00072	8d 8b 98 09 00
	00		 lea	 ecx, DWORD PTR [ebx+2456]
  00078	c6 45 fc 05	 mov	 BYTE PTR __$EHRec$[ebp+8], 5
  0007c	e8 00 00 00 00	 call	 ??0?$CEncrypt@M@@QAE@XZ	; CEncrypt<float>::CEncrypt<float>
  00081	8d 8b c8 09 00
	00		 lea	 ecx, DWORD PTR [ebx+2504]
  00087	c6 45 fc 06	 mov	 BYTE PTR __$EHRec$[ebp+8], 6
  0008b	e8 00 00 00 00	 call	 ??0?$CEncrypt@K@@QAE@XZ	; CEncrypt<unsigned long>::CEncrypt<unsigned long>
  00090	8d 8b f8 09 00
	00		 lea	 ecx, DWORD PTR [ebx+2552]
  00096	c6 45 fc 07	 mov	 BYTE PTR __$EHRec$[ebp+8], 7
  0009a	e8 00 00 00 00	 call	 ??0?$CEncrypt@K@@QAE@XZ	; CEncrypt<unsigned long>::CEncrypt<unsigned long>
  0009f	8d 8b 30 0a 00
	00		 lea	 ecx, DWORD PTR [ebx+2608]
  000a5	c6 45 fc 08	 mov	 BYTE PTR __$EHRec$[ebp+8], 8
  000a9	ff d7		 call	 edi
  000ab	89 b3 40 0a 00
	00		 mov	 DWORD PTR [ebx+2624], esi
  000b1	89 b3 44 0a 00
	00		 mov	 DWORD PTR [ebx+2628], esi
  000b7	89 b3 48 0a 00
	00		 mov	 DWORD PTR [ebx+2632], esi
  000bd	89 b3 50 0a 00
	00		 mov	 DWORD PTR [ebx+2640], esi
  000c3	89 b3 54 0a 00
	00		 mov	 DWORD PTR [ebx+2644], esi
  000c9	89 b3 58 0a 00
	00		 mov	 DWORD PTR [ebx+2648], esi

; 20   : 	m_pMesh = NULL;
; 21   : 	m_State = CS_PRE;
; 22   : 	
; 23   : 	m_fCurMoveRange = 0;

  000cf	0f 57 c0	 xorps	 xmm0, xmm0
  000d2	8d 45 0c	 lea	 eax, DWORD PTR _value$575862[ebp]
  000d5	50		 push	 eax
  000d6	8d 8b 68 09 00
	00		 lea	 ecx, DWORD PTR [ebx+2408]
  000dc	c6 45 fc 0b	 mov	 BYTE PTR __$EHRec$[ebp+8], 11 ; 0000000bH
  000e0	89 b3 f4 08 00
	00		 mov	 DWORD PTR [ebx+2292], esi
  000e6	89 b3 94 08 00
	00		 mov	 DWORD PTR [ebx+2196], esi
  000ec	f3 0f 11 45 0c	 movss	 DWORD PTR _value$575862[ebp], xmm0
  000f1	e8 00 00 00 00	 call	 ?EncryptValueToPool@?$CEncrypt@M@@AAEXPBD@Z ; CEncrypt<float>::EncryptValueToPool

; 24   : 
; 25   : 	m_dwCurMapCollisionDelayTime = 0;

  000f6	8d 45 0c	 lea	 eax, DWORD PTR _value$575866[ebp]
  000f9	50		 push	 eax
  000fa	8d 8b 38 09 00
	00		 lea	 ecx, DWORD PTR [ebx+2360]
  00100	89 75 0c	 mov	 DWORD PTR _value$575866[ebp], esi
  00103	e8 00 00 00 00	 call	 ?EncryptValueToPool@?$CEncrypt@K@@AAEXPBD@Z ; CEncrypt<unsigned long>::EncryptValueToPool

; 26   : 	m_dwPullingEndTime = 0;

  00108	89 b3 2c 0a 00
	00		 mov	 DWORD PTR [ebx+2604], esi

; 27   : 	m_dwPullingStartTime = 0;

  0010e	89 b3 28 0a 00
	00		 mov	 DWORD PTR [ebx+2600], esi

; 28   : 
; 29   : 	m_bArleadyCallWeapon = false;

  00114	c6 83 60 0a 00
	00 00		 mov	 BYTE PTR [ebx+2656], 0

; 30   : 
; 31   : 	m_vStartPos = ioMath::VEC3_ZERO;

  0011b	8b 35 00 00 00
	00		 mov	 esi, DWORD PTR __imp_?VEC3_ZERO@ioMath@@2UD3DXVECTOR3@@A
  00121	8d bb e8 08 00
	00		 lea	 edi, DWORD PTR [ebx+2280]
  00127	a5		 movsd
  00128	a5		 movsd
  00129	a5		 movsd

; 32   : }

  0012a	8b c3		 mov	 eax, ebx
  0012c	e8 00 00 00 00	 call	 __EH_epilog3
  00131	c2 08 00	 ret	 8
_TEXT	ENDS
;	COMDAT text$x
text$x	SEGMENT
__unwindfunclet$??0ioPullWeapon2@@QAE@PAVioBaseChar@@PBUWeaponAttribute@@@Z$0:
  00000	8b 4d f0	 mov	 ecx, DWORD PTR _this$[ebp]
  00003	e9 00 00 00 00	 jmp	 ??1ioWeapon@@UAE@XZ	; ioWeapon::~ioWeapon
__unwindfunclet$??0ioPullWeapon2@@QAE@PAVioBaseChar@@PBUWeaponAttribute@@@Z$1:
  00008	8b 4d f0	 mov	 ecx, DWORD PTR _this$[ebp]
  0000b	81 c1 98 08 00
	00		 add	 ecx, 2200		; 00000898H
  00011	ff 25 00 00 00
	00		 jmp	 DWORD PTR __imp_??1ioOrientBox@@QAE@XZ
__unwindfunclet$??0ioPullWeapon2@@QAE@PAVioBaseChar@@PBUWeaponAttribute@@@Z$2:
  00017	8b 4d f0	 mov	 ecx, DWORD PTR _this$[ebp]
  0001a	81 c1 f8 08 00
	00		 add	 ecx, 2296		; 000008f8H
  00020	ff 25 00 00 00
	00		 jmp	 DWORD PTR __imp_??1ioHashString@@QAE@XZ
__unwindfunclet$??0ioPullWeapon2@@QAE@PAVioBaseChar@@PBUWeaponAttribute@@@Z$3:
  00026	8b 4d f0	 mov	 ecx, DWORD PTR _this$[ebp]
  00029	81 c1 08 09 00
	00		 add	 ecx, 2312		; 00000908H
  0002f	e9 00 00 00 00	 jmp	 ??1?$CEncrypt@K@@UAE@XZ	; CEncrypt<unsigned long>::~CEncrypt<unsigned long>
__unwindfunclet$??0ioPullWeapon2@@QAE@PAVioBaseChar@@PBUWeaponAttribute@@@Z$4:
  00034	8b 4d f0	 mov	 ecx, DWORD PTR _this$[ebp]
  00037	81 c1 38 09 00
	00		 add	 ecx, 2360		; 00000938H
  0003d	e9 00 00 00 00	 jmp	 ??1?$CEncrypt@K@@UAE@XZ	; CEncrypt<unsigned long>::~CEncrypt<unsigned long>
__unwindfunclet$??0ioPullWeapon2@@QAE@PAVioBaseChar@@PBUWeaponAttribute@@@Z$5:
  00042	8b 4d f0	 mov	 ecx, DWORD PTR _this$[ebp]
  00045	81 c1 68 09 00
	00		 add	 ecx, 2408		; 00000968H
  0004b	e9 00 00 00 00	 jmp	 ??1?$CEncrypt@M@@UAE@XZ	; CEncrypt<float>::~CEncrypt<float>
__unwindfunclet$??0ioPullWeapon2@@QAE@PAVioBaseChar@@PBUWeaponAttribute@@@Z$6:
  00050	8b 4d f0	 mov	 ecx, DWORD PTR _this$[ebp]
  00053	81 c1 98 09 00
	00		 add	 ecx, 2456		; 00000998H
  00059	e9 00 00 00 00	 jmp	 ??1?$CEncrypt@M@@UAE@XZ	; CEncrypt<float>::~CEncrypt<float>
__unwindfunclet$??0ioPullWeapon2@@QAE@PAVioBaseChar@@PBUWeaponAttribute@@@Z$7:
  0005e	8b 4d f0	 mov	 ecx, DWORD PTR _this$[ebp]
  00061	81 c1 c8 09 00
	00		 add	 ecx, 2504		; 000009c8H
  00067	e9 00 00 00 00	 jmp	 ??1?$CEncrypt@K@@UAE@XZ	; CEncrypt<unsigned long>::~CEncrypt<unsigned long>
__unwindfunclet$??0ioPullWeapon2@@QAE@PAVioBaseChar@@PBUWeaponAttribute@@@Z$8:
  0006c	8b 4d f0	 mov	 ecx, DWORD PTR _this$[ebp]
  0006f	81 c1 f8 09 00
	00		 add	 ecx, 2552		; 000009f8H
  00075	e9 00 00 00 00	 jmp	 ??1?$CEncrypt@K@@UAE@XZ	; CEncrypt<unsigned long>::~CEncrypt<unsigned long>
__unwindfunclet$??0ioPullWeapon2@@QAE@PAVioBaseChar@@PBUWeaponAttribute@@@Z$9:
  0007a	8b 4d f0	 mov	 ecx, DWORD PTR _this$[ebp]
  0007d	81 c1 30 0a 00
	00		 add	 ecx, 2608		; 00000a30H
  00083	ff 25 00 00 00
	00		 jmp	 DWORD PTR __imp_??1ioHashString@@QAE@XZ
__unwindfunclet$??0ioPullWeapon2@@QAE@PAVioBaseChar@@PBUWeaponAttribute@@@Z$10:
  00089	8b 4d f0	 mov	 ecx, DWORD PTR _this$[ebp]
  0008c	81 c1 40 0a 00
	00		 add	 ecx, 2624		; 00000a40H
  00092	e9 00 00 00 00	 jmp	 ??1?$vector@VioHashString@@V?$allocator@VioHashString@@@std@@@std@@QAE@XZ ; std::vector<ioHashString,std::allocator<ioHashString> >::~vector<ioHashString,std::allocator<ioHashString> >
__unwindfunclet$??0ioPullWeapon2@@QAE@PAVioBaseChar@@PBUWeaponAttribute@@@Z$11:
  00097	8b 4d f0	 mov	 ecx, DWORD PTR _this$[ebp]
  0009a	81 c1 50 0a 00
	00		 add	 ecx, 2640		; 00000a50H
  000a0	e9 00 00 00 00	 jmp	 ??1?$vector@UWeaponInfo@@V?$allocator@UWeaponInfo@@@std@@@std@@QAE@XZ ; std::vector<WeaponInfo,std::allocator<WeaponInfo> >::~vector<WeaponInfo,std::allocator<WeaponInfo> >
__ehhandler$??0ioPullWeapon2@@QAE@PAVioBaseChar@@PBUWeaponAttribute@@@Z:
  000a5	8b 54 24 08	 mov	 edx, DWORD PTR [esp+8]
  000a9	8d 42 0c	 lea	 eax, DWORD PTR [edx+12]
  000ac	8b 4a ec	 mov	 ecx, DWORD PTR [edx-20]
  000af	33 c8		 xor	 ecx, eax
  000b1	e8 00 00 00 00	 call	 @__security_check_cookie@4
  000b6	b8 00 00 00 00	 mov	 eax, OFFSET __ehfuncinfo$??0ioPullWeapon2@@QAE@PAVioBaseChar@@PBUWeaponAttribute@@@Z
  000bb	e9 00 00 00 00	 jmp	 ___CxxFrameHandler3
text$x	ENDS
??0ioPullWeapon2@@QAE@PAVioBaseChar@@PBUWeaponAttribute@@@Z ENDP ; ioPullWeapon2::ioPullWeapon2
PUBLIC	??_C@_0DD@IIKKJBA@ioPullWeapon2?3?3?$HOioPullWeapon2?5?9?5@ ; `string'
PUBLIC	??1ioPullWeapon2@@UAE@XZ			; ioPullWeapon2::~ioPullWeapon2
;	COMDAT ??_C@_0DD@IIKKJBA@ioPullWeapon2?3?3?$HOioPullWeapon2?5?9?5@
; File d:\lost saga for developer\youtube\tutorial\source\src\lsclient\encryptvalue.h
CONST	SEGMENT
??_C@_0DD@IIKKJBA@ioPullWeapon2?3?3?$HOioPullWeapon2?5?9?5@ DB 'ioPullWea'
	DB	'pon2::~ioPullWeapon2 - UnReleased Resouce', 00H ; `string'
CONST	ENDS
;	COMDAT xdata$x
xdata$x	SEGMENT
__ehfuncinfo$??1ioPullWeapon2@@UAE@XZ DD 019930522H
	DD	0cH
	DD	FLAT:__unwindtable$??1ioPullWeapon2@@UAE@XZ
	DD	2 DUP(00H)
	DD	2 DUP(00H)
	DD	00H
	DD	01H
__unwindtable$??1ioPullWeapon2@@UAE@XZ DD 0ffffffffH
	DD	FLAT:__unwindfunclet$??1ioPullWeapon2@@UAE@XZ$0
	DD	00H
	DD	FLAT:__unwindfunclet$??1ioPullWeapon2@@UAE@XZ$1
	DD	01H
	DD	FLAT:__unwindfunclet$??1ioPullWeapon2@@UAE@XZ$2
	DD	02H
	DD	FLAT:__unwindfunclet$??1ioPullWeapon2@@UAE@XZ$3
	DD	03H
	DD	FLAT:__unwindfunclet$??1ioPullWeapon2@@UAE@XZ$4
	DD	04H
	DD	FLAT:__unwindfunclet$??1ioPullWeapon2@@UAE@XZ$5
	DD	05H
	DD	FLAT:__unwindfunclet$??1ioPullWeapon2@@UAE@XZ$6
	DD	06H
	DD	FLAT:__unwindfunclet$??1ioPullWeapon2@@UAE@XZ$7
	DD	07H
	DD	FLAT:__unwindfunclet$??1ioPullWeapon2@@UAE@XZ$8
	DD	08H
	DD	FLAT:__unwindfunclet$??1ioPullWeapon2@@UAE@XZ$9
	DD	09H
	DD	FLAT:__unwindfunclet$??1ioPullWeapon2@@UAE@XZ$10
	DD	0aH
	DD	FLAT:__unwindfunclet$??1ioPullWeapon2@@UAE@XZ$11
; Function compile flags: /Ogsp
; File d:\lost saga for developer\youtube\tutorial\source\src\lsclient\iopullweapon2.cpp
xdata$x	ENDS
;	COMDAT ??1ioPullWeapon2@@UAE@XZ
_TEXT	SEGMENT
_this$ = -16						; size = 4
__$EHRec$ = -12						; size = 12
??1ioPullWeapon2@@UAE@XZ PROC				; ioPullWeapon2::~ioPullWeapon2, COMDAT
; _this$ = ecx

; 35   : {

  00000	6a 04		 push	 4
  00002	b8 00 00 00 00	 mov	 eax, __ehhandler$??1ioPullWeapon2@@UAE@XZ
  00007	e8 00 00 00 00	 call	 __EH_prolog3
  0000c	8b f1		 mov	 esi, ecx
  0000e	89 75 f0	 mov	 DWORD PTR _this$[ebp], esi
  00011	c7 06 00 00 00
	00		 mov	 DWORD PTR [esi], OFFSET ??_7ioPullWeapon2@@6B@

; 36   : 	if( m_pMesh )

  00017	83 be f4 08 00
	00 00		 cmp	 DWORD PTR [esi+2292], 0
  0001e	c7 45 fc 0b 00
	00 00		 mov	 DWORD PTR __$EHRec$[ebp+8], 11 ; 0000000bH
  00025	74 16		 je	 SHORT $LN1@ioPullWeap

; 37   : 	{
; 38   : 		LOG.PrintTimeAndLog( 0, "ioPullWeapon2::~ioPullWeapon2 - UnReleased Resouce" );

  00027	68 00 00 00 00	 push	 OFFSET ??_C@_0DD@IIKKJBA@ioPullWeapon2?3?3?$HOioPullWeapon2?5?9?5@
  0002c	6a 00		 push	 0
  0002e	ff 35 00 00 00
	00		 push	 DWORD PTR __imp_?LOG@@3VCLog@@A
  00034	ff 15 00 00 00
	00		 call	 DWORD PTR __imp_?PrintTimeAndLog@CLog@@QAAXHPADZZ
  0003a	83 c4 0c	 add	 esp, 12			; 0000000cH
$LN1@ioPullWeap:

; 39   : 	}
; 40   : }

  0003d	8d 8e 50 0a 00
	00		 lea	 ecx, DWORD PTR [esi+2640]
  00043	c6 45 fc 0a	 mov	 BYTE PTR __$EHRec$[ebp+8], 10 ; 0000000aH
  00047	e8 00 00 00 00	 call	 ?_Tidy@?$vector@UWeaponInfo@@V?$allocator@UWeaponInfo@@@std@@@std@@IAEXXZ ; std::vector<WeaponInfo,std::allocator<WeaponInfo> >::_Tidy
  0004c	8d 8e 40 0a 00
	00		 lea	 ecx, DWORD PTR [esi+2624]
  00052	c6 45 fc 09	 mov	 BYTE PTR __$EHRec$[ebp+8], 9
  00056	e8 00 00 00 00	 call	 ?_Tidy@?$vector@VioHashString@@V?$allocator@VioHashString@@@std@@@std@@IAEXXZ ; std::vector<ioHashString,std::allocator<ioHashString> >::_Tidy
  0005b	8b 1d 00 00 00
	00		 mov	 ebx, DWORD PTR __imp_??1ioHashString@@QAE@XZ
  00061	8d 8e 30 0a 00
	00		 lea	 ecx, DWORD PTR [esi+2608]
  00067	c6 45 fc 08	 mov	 BYTE PTR __$EHRec$[ebp+8], 8
  0006b	ff d3		 call	 ebx
  0006d	bf 00 00 00 00	 mov	 edi, OFFSET ??_7?$CEncrypt@K@@6B@
  00072	8d 8e 04 0a 00
	00		 lea	 ecx, DWORD PTR [esi+2564]
  00078	c6 45 fc 07	 mov	 BYTE PTR __$EHRec$[ebp+8], 7
  0007c	89 be f8 09 00
	00		 mov	 DWORD PTR [esi+2552], edi
  00082	e8 00 00 00 00	 call	 ??1ccddaabb@@UAE@XZ	; ccddaabb::~ccddaabb
  00087	8d 8e d4 09 00
	00		 lea	 ecx, DWORD PTR [esi+2516]
  0008d	c6 45 fc 06	 mov	 BYTE PTR __$EHRec$[ebp+8], 6
  00091	89 be c8 09 00
	00		 mov	 DWORD PTR [esi+2504], edi
  00097	e8 00 00 00 00	 call	 ??1ccddaabb@@UAE@XZ	; ccddaabb::~ccddaabb
  0009c	8d 8e a4 09 00
	00		 lea	 ecx, DWORD PTR [esi+2468]
  000a2	c6 45 fc 05	 mov	 BYTE PTR __$EHRec$[ebp+8], 5
  000a6	c7 86 98 09 00
	00 00 00 00 00	 mov	 DWORD PTR [esi+2456], OFFSET ??_7?$CEncrypt@M@@6B@
  000b0	e8 00 00 00 00	 call	 ??1ccddaabb@@UAE@XZ	; ccddaabb::~ccddaabb
  000b5	8d 8e 74 09 00
	00		 lea	 ecx, DWORD PTR [esi+2420]
  000bb	c6 45 fc 04	 mov	 BYTE PTR __$EHRec$[ebp+8], 4
  000bf	c7 86 68 09 00
	00 00 00 00 00	 mov	 DWORD PTR [esi+2408], OFFSET ??_7?$CEncrypt@M@@6B@
  000c9	e8 00 00 00 00	 call	 ??1ccddaabb@@UAE@XZ	; ccddaabb::~ccddaabb
  000ce	8d 8e 44 09 00
	00		 lea	 ecx, DWORD PTR [esi+2372]
  000d4	c6 45 fc 03	 mov	 BYTE PTR __$EHRec$[ebp+8], 3
  000d8	89 be 38 09 00
	00		 mov	 DWORD PTR [esi+2360], edi
  000de	e8 00 00 00 00	 call	 ??1ccddaabb@@UAE@XZ	; ccddaabb::~ccddaabb
  000e3	8d 8e 14 09 00
	00		 lea	 ecx, DWORD PTR [esi+2324]
  000e9	c6 45 fc 02	 mov	 BYTE PTR __$EHRec$[ebp+8], 2
  000ed	89 be 08 09 00
	00		 mov	 DWORD PTR [esi+2312], edi
  000f3	e8 00 00 00 00	 call	 ??1ccddaabb@@UAE@XZ	; ccddaabb::~ccddaabb
  000f8	8d 8e f8 08 00
	00		 lea	 ecx, DWORD PTR [esi+2296]
  000fe	c6 45 fc 01	 mov	 BYTE PTR __$EHRec$[ebp+8], 1
  00102	ff d3		 call	 ebx
  00104	8d 8e 98 08 00
	00		 lea	 ecx, DWORD PTR [esi+2200]
  0010a	c6 45 fc 00	 mov	 BYTE PTR __$EHRec$[ebp+8], 0
  0010e	ff 15 00 00 00
	00		 call	 DWORD PTR __imp_??1ioOrientBox@@QAE@XZ
  00114	83 4d fc ff	 or	 DWORD PTR __$EHRec$[ebp+8], -1
  00118	8b ce		 mov	 ecx, esi
  0011a	e8 00 00 00 00	 call	 ??1ioWeapon@@UAE@XZ	; ioWeapon::~ioWeapon
  0011f	e8 00 00 00 00	 call	 __EH_epilog3
  00124	c3		 ret	 0
_TEXT	ENDS
;	COMDAT text$x
text$x	SEGMENT
__unwindfunclet$??1ioPullWeapon2@@UAE@XZ$0:
  00000	8b 4d f0	 mov	 ecx, DWORD PTR _this$[ebp]
  00003	e9 00 00 00 00	 jmp	 ??1ioWeapon@@UAE@XZ	; ioWeapon::~ioWeapon
__unwindfunclet$??1ioPullWeapon2@@UAE@XZ$1:
  00008	8b 4d f0	 mov	 ecx, DWORD PTR _this$[ebp]
  0000b	81 c1 98 08 00
	00		 add	 ecx, 2200		; 00000898H
  00011	ff 25 00 00 00
	00		 jmp	 DWORD PTR __imp_??1ioOrientBox@@QAE@XZ
__unwindfunclet$??1ioPullWeapon2@@UAE@XZ$2:
  00017	8b 4d f0	 mov	 ecx, DWORD PTR _this$[ebp]
  0001a	81 c1 f8 08 00
	00		 add	 ecx, 2296		; 000008f8H
  00020	ff 25 00 00 00
	00		 jmp	 DWORD PTR __imp_??1ioHashString@@QAE@XZ
__unwindfunclet$??1ioPullWeapon2@@UAE@XZ$3:
  00026	8b 4d f0	 mov	 ecx, DWORD PTR _this$[ebp]
  00029	81 c1 08 09 00
	00		 add	 ecx, 2312		; 00000908H
  0002f	e9 00 00 00 00	 jmp	 ??1?$CEncrypt@K@@UAE@XZ	; CEncrypt<unsigned long>::~CEncrypt<unsigned long>
__unwindfunclet$??1ioPullWeapon2@@UAE@XZ$4:
  00034	8b 4d f0	 mov	 ecx, DWORD PTR _this$[ebp]
  00037	81 c1 38 09 00
	00		 add	 ecx, 2360		; 00000938H
  0003d	e9 00 00 00 00	 jmp	 ??1?$CEncrypt@K@@UAE@XZ	; CEncrypt<unsigned long>::~CEncrypt<unsigned long>
__unwindfunclet$??1ioPullWeapon2@@UAE@XZ$5:
  00042	8b 4d f0	 mov	 ecx, DWORD PTR _this$[ebp]
  00045	81 c1 68 09 00
	00		 add	 ecx, 2408		; 00000968H
  0004b	e9 00 00 00 00	 jmp	 ??1?$CEncrypt@M@@UAE@XZ	; CEncrypt<float>::~CEncrypt<float>
__unwindfunclet$??1ioPullWeapon2@@UAE@XZ$6:
  00050	8b 4d f0	 mov	 ecx, DWORD PTR _this$[ebp]
  00053	81 c1 98 09 00
	00		 add	 ecx, 2456		; 00000998H
  00059	e9 00 00 00 00	 jmp	 ??1?$CEncrypt@M@@UAE@XZ	; CEncrypt<float>::~CEncrypt<float>
__unwindfunclet$??1ioPullWeapon2@@UAE@XZ$7:
  0005e	8b 4d f0	 mov	 ecx, DWORD PTR _this$[ebp]
  00061	81 c1 c8 09 00
	00		 add	 ecx, 2504		; 000009c8H
  00067	e9 00 00 00 00	 jmp	 ??1?$CEncrypt@K@@UAE@XZ	; CEncrypt<unsigned long>::~CEncrypt<unsigned long>
__unwindfunclet$??1ioPullWeapon2@@UAE@XZ$8:
  0006c	8b 4d f0	 mov	 ecx, DWORD PTR _this$[ebp]
  0006f	81 c1 f8 09 00
	00		 add	 ecx, 2552		; 000009f8H
  00075	e9 00 00 00 00	 jmp	 ??1?$CEncrypt@K@@UAE@XZ	; CEncrypt<unsigned long>::~CEncrypt<unsigned long>
__unwindfunclet$??1ioPullWeapon2@@UAE@XZ$9:
  0007a	8b 4d f0	 mov	 ecx, DWORD PTR _this$[ebp]
  0007d	81 c1 30 0a 00
	00		 add	 ecx, 2608		; 00000a30H
  00083	ff 25 00 00 00
	00		 jmp	 DWORD PTR __imp_??1ioHashString@@QAE@XZ
__unwindfunclet$??1ioPullWeapon2@@UAE@XZ$10:
  00089	8b 4d f0	 mov	 ecx, DWORD PTR _this$[ebp]
  0008c	81 c1 40 0a 00
	00		 add	 ecx, 2624		; 00000a40H
  00092	e9 00 00 00 00	 jmp	 ??1?$vector@VioHashString@@V?$allocator@VioHashString@@@std@@@std@@QAE@XZ ; std::vector<ioHashString,std::allocator<ioHashString> >::~vector<ioHashString,std::allocator<ioHashString> >
__unwindfunclet$??1ioPullWeapon2@@UAE@XZ$11:
  00097	8b 4d f0	 mov	 ecx, DWORD PTR _this$[ebp]
  0009a	81 c1 50 0a 00
	00		 add	 ecx, 2640		; 00000a50H
  000a0	e9 00 00 00 00	 jmp	 ??1?$vector@UWeaponInfo@@V?$allocator@UWeaponInfo@@@std@@@std@@QAE@XZ ; std::vector<WeaponInfo,std::allocator<WeaponInfo> >::~vector<WeaponInfo,std::allocator<WeaponInfo> >
__ehhandler$??1ioPullWeapon2@@UAE@XZ:
  000a5	8b 54 24 08	 mov	 edx, DWORD PTR [esp+8]
  000a9	8d 42 0c	 lea	 eax, DWORD PTR [edx+12]
  000ac	8b 4a ec	 mov	 ecx, DWORD PTR [edx-20]
  000af	33 c8		 xor	 ecx, eax
  000b1	e8 00 00 00 00	 call	 @__security_check_cookie@4
  000b6	b8 00 00 00 00	 mov	 eax, OFFSET __ehfuncinfo$??1ioPullWeapon2@@UAE@XZ
  000bb	e9 00 00 00 00	 jmp	 ___CxxFrameHandler3
text$x	ENDS
??1ioPullWeapon2@@UAE@XZ ENDP				; ioPullWeapon2::~ioPullWeapon2
PUBLIC	_rkLoader$GSCopy$
EXTRN	__imp_?LoadBool@ioINILoader@@QAE_NPBD_N@Z:PROC
EXTRN	__imp__wsprintfA:PROC
;	COMDAT xdata$x
; File d:\lost saga for developer\youtube\tutorial\source\src\lsclient\playentityhelpstruct.h
xdata$x	SEGMENT
__unwindtable$?LoadCallAttributeList@ioPullWeapon2@@UAEXAAVioINILoader@@@Z DD 0ffffffffH
	DD	FLAT:__unwindfunclet$?LoadCallAttributeList@ioPullWeapon2@@UAEXAAVioINILoader@@@Z$0
__ehfuncinfo$?LoadCallAttributeList@ioPullWeapon2@@UAEXAAVioINILoader@@@Z DD 019930522H
	DD	01H
	DD	FLAT:__unwindtable$?LoadCallAttributeList@ioPullWeapon2@@UAEXAAVioINILoader@@@Z
	DD	2 DUP(00H)
	DD	2 DUP(00H)
	DD	00H
	DD	01H
; Function compile flags: /Ogsp
; File d:\lost saga for developer\youtube\tutorial\source\src\lsclient\iopullweapon2.cpp
xdata$x	ENDS
;	COMDAT ?LoadCallAttributeList@ioPullWeapon2@@UAEXAAVioINILoader@@@Z
_TEXT	SEGMENT
_kCallAttribute$567781 = -664				; size = 40
tv4480 = -624						; size = 4
tv4407 = -620						; size = 4
$T576004 = -620						; size = 4
_iCnt$ = -620						; size = 4
_rkLoader$GSCopy$ = -616				; size = 4
tv5547 = -612						; size = 4
_szBuf$ = -608						; size = 260
_szKey$ = -348						; size = 260
___encStr$568546 = -88					; size = 32
___encStr$568394 = -52					; size = 32
___encStr$568242 = -48					; size = 27
___encStr$567938 = -48					; size = 28
___encStr$568090 = -44					; size = 22
___encStr$567785 = -44					; size = 23
__k$576073 = -40					; size = 19
__$EHRec$ = -12						; size = 12
_rkLoader$ = 8						; size = 4
?LoadCallAttributeList@ioPullWeapon2@@UAEXAAVioINILoader@@@Z PROC ; ioPullWeapon2::LoadCallAttributeList, COMDAT
; _this$ = ecx

; 74   : {

  00000	68 8c 02 00 00	 push	 652			; 0000028cH
  00005	b8 00 00 00 00	 mov	 eax, __ehhandler$?LoadCallAttributeList@ioPullWeapon2@@UAEXAAVioINILoader@@@Z
  0000a	e8 00 00 00 00	 call	 __EH_prolog3_GS
  0000f	8b 7d 08	 mov	 edi, DWORD PTR _rkLoader$[ebp]

; 75   : 	m_CallWeaponInfoList.clear();

  00012	8d b1 50 0a 00
	00		 lea	 esi, DWORD PTR [ecx+2640]
  00018	8b 46 04	 mov	 eax, DWORD PTR [esi+4]
  0001b	8b 0e		 mov	 ecx, DWORD PTR [esi]
  0001d	50		 push	 eax
  0001e	51		 push	 ecx
  0001f	8d 85 94 fd ff
	ff		 lea	 eax, DWORD PTR $T576004[ebp]
  00025	50		 push	 eax
  00026	8b ce		 mov	 ecx, esi
  00028	89 bd 98 fd ff
	ff		 mov	 DWORD PTR _rkLoader$GSCopy$[ebp], edi
  0002e	89 b5 90 fd ff
	ff		 mov	 DWORD PTR tv4480[ebp], esi
  00034	e8 00 00 00 00	 call	 ?erase@?$vector@UWeaponInfo@@V?$allocator@UWeaponInfo@@@std@@@std@@QAE?AV?$_Vector_iterator@V?$_Vector_val@UWeaponInfo@@V?$allocator@UWeaponInfo@@@std@@@std@@@2@V?$_Vector_const_iterator@V?$_Vector_val@UWeaponInfo@@V?$allocator@UWeaponInfo@@@std@@@std@@@2@0@Z ; std::vector<WeaponInfo,std::allocator<WeaponInfo> >::erase

; 76   : 
; 77   : 	char szBuf[MAX_PATH], szKey[MAX_PATH];
; 78   : 
; 79   : 	int iCnt = rkLoader.LoadInt_e( "call_attribute_cnt", 0 );

  00039	33 db		 xor	 ebx, ebx
  0003b	6a 04		 push	 4
  0003d	c7 45 d8 8e 8d
	87 86		 mov	 DWORD PTR __k$576073[ebp], -2037936754 ; 86878d8eH
  00044	c7 45 dc b2 8d
	9f 9e		 mov	 DWORD PTR __k$576073[ebp+4], -1633710670 ; 9e9f8db2H
  0004b	c7 45 e0 9f 85
	89 9f		 mov	 DWORD PTR __k$576073[ebp+8], -1618377313 ; 9f89859fH
  00052	c7 45 e4 99 89
	b4 89		 mov	 DWORD PTR __k$576073[ebp+12], -1984656999 ; 89b48999H
  00059	66 c7 45 e8 83
	98		 mov	 WORD PTR __k$576073[ebp+16], 39043 ; 00009883H
  0005f	8d 45 d8	 lea	 eax, DWORD PTR __k$576073[ebp]
  00062	88 5d ea	 mov	 BYTE PTR __k$576073[ebp+18], bl
  00065	59		 pop	 ecx
$LL723@LoadCallAt:
  00066	81 30 ed ec eb
	ea		 xor	 DWORD PTR [eax], -353637139 ; eaebecedH
  0006c	83 c0 04	 add	 eax, 4
  0006f	49		 dec	 ecx
  00070	75 f4		 jne	 SHORT $LL723@LoadCallAt
  00072	6a 10		 push	 16			; 00000010H
  00074	58		 pop	 eax
$LL720@LoadCallAt:
  00075	8b c8		 mov	 ecx, eax
  00077	81 e1 03 00 00
	80		 and	 ecx, -2147483645	; 80000003H
  0007d	79 05		 jns	 SHORT $LN808@LoadCallAt
  0007f	49		 dec	 ecx
  00080	83 c9 fc	 or	 ecx, -4			; fffffffcH
  00083	41		 inc	 ecx
$LN808@LoadCallAt:
  00084	b2 ed		 mov	 dl, -19			; ffffffedH
  00086	2a d1		 sub	 dl, cl
  00088	30 54 05 d8	 xor	 BYTE PTR __k$576073[ebp+eax], dl
  0008c	40		 inc	 eax
  0008d	83 f8 12	 cmp	 eax, 18			; 00000012H
  00090	7c e3		 jl	 SHORT $LL720@LoadCallAt
  00092	53		 push	 ebx
  00093	8d 45 d8	 lea	 eax, DWORD PTR __k$576073[ebp]
  00096	8b cf		 mov	 ecx, edi
  00098	8b 3d 00 00 00
	00		 mov	 edi, DWORD PTR __imp_?LoadInt@ioINILoader@@QAEHPBDH@Z
  0009e	50		 push	 eax
  0009f	ff d7		 call	 edi
  000a1	89 85 94 fd ff
	ff		 mov	 DWORD PTR _iCnt$[ebp], eax

; 80   : 	if( iCnt == 0 )

  000a7	3b c3		 cmp	 eax, ebx
  000a9	0f 84 d4 03 00
	00		 je	 $LN595@LoadCallAt

; 81   : 		return;
; 82   : 
; 83   : 	m_CallWeaponInfoList.reserve( iCnt );

  000af	50		 push	 eax
  000b0	8b ce		 mov	 ecx, esi
  000b2	e8 00 00 00 00	 call	 ?reserve@?$vector@UWeaponInfo@@V?$allocator@UWeaponInfo@@@std@@@std@@QAEXI@Z ; std::vector<WeaponInfo,std::allocator<WeaponInfo> >::reserve

; 84   : 
; 85   : 	for( int i=0; i<iCnt; ++i )

  000b7	8b 85 94 fd ff
	ff		 mov	 eax, DWORD PTR _iCnt$[ebp]
  000bd	3b c3		 cmp	 eax, ebx
  000bf	0f 8e be 03 00
	00		 jle	 $LN595@LoadCallAt

; 81   : 		return;
; 82   : 
; 83   : 	m_CallWeaponInfoList.reserve( iCnt );

  000c5	8b 35 00 00 00
	00		 mov	 esi, DWORD PTR __imp__wsprintfA
  000cb	c7 85 9c fd ff
	ff 01 00 00 00	 mov	 DWORD PTR tv5547[ebp], 1
  000d5	89 85 94 fd ff
	ff		 mov	 DWORD PTR tv4407[ebp], eax
$LL597@LoadCallAt:

; 86   : 	{
; 87   : 		WeaponInfo kCallAttribute;

  000db	8d 8d 68 fd ff
	ff		 lea	 ecx, DWORD PTR _kCallAttribute$567781[ebp]
  000e1	e8 00 00 00 00	 call	 ??0WeaponInfo@@QAE@XZ	; WeaponInfo::WeaponInfo
  000e6	6a 05		 push	 5
  000e8	89 5d fc	 mov	 DWORD PTR __$EHRec$[ebp+8], ebx

; 88   : 
; 89   : 		wsprintf_e( szKey, "call_attribute%d_index", i+1 );

  000eb	c7 45 d4 8e 8d
	87 86		 mov	 DWORD PTR ___encStr$567785[ebp], -2037936754 ; 86878d8eH
  000f2	c7 45 d8 b2 8d
	9f 9e		 mov	 DWORD PTR ___encStr$567785[ebp+4], -1633710670 ; 9e9f8db2H
  000f9	c7 45 dc 9f 85
	89 9f		 mov	 DWORD PTR ___encStr$567785[ebp+8], -1618377313 ; 9f89859fH
  00100	c7 45 e0 99 89
	ce 8e		 mov	 DWORD PTR ___encStr$567785[ebp+12], -1899066983 ; 8ece8999H
  00107	c7 45 e4 b2 85
	85 8e		 mov	 DWORD PTR ___encStr$567785[ebp+16], -1903852110 ; 8e8585b2H
  0010e	66 c7 45 e8 88
	94		 mov	 WORD PTR ___encStr$567785[ebp+20], 38024 ; 00009488H
  00114	8d 45 d4	 lea	 eax, DWORD PTR ___encStr$567785[ebp]
  00117	88 5d ea	 mov	 BYTE PTR ___encStr$567785[ebp+22], bl
  0011a	59		 pop	 ecx
$LL731@LoadCallAt:
  0011b	81 30 ed ec eb
	ea		 xor	 DWORD PTR [eax], -353637139 ; eaebecedH
  00121	83 c0 04	 add	 eax, 4
  00124	49		 dec	 ecx
  00125	75 f4		 jne	 SHORT $LL731@LoadCallAt
  00127	6a 14		 push	 20			; 00000014H
  00129	58		 pop	 eax
$LL728@LoadCallAt:
  0012a	8b c8		 mov	 ecx, eax
  0012c	81 e1 03 00 00
	80		 and	 ecx, -2147483645	; 80000003H
  00132	79 05		 jns	 SHORT $LN809@LoadCallAt
  00134	49		 dec	 ecx
  00135	83 c9 fc	 or	 ecx, -4			; fffffffcH
  00138	41		 inc	 ecx
$LN809@LoadCallAt:
  00139	b2 ed		 mov	 dl, -19			; ffffffedH
  0013b	2a d1		 sub	 dl, cl
  0013d	30 54 05 d4	 xor	 BYTE PTR ___encStr$567785[ebp+eax], dl
  00141	40		 inc	 eax
  00142	83 f8 16	 cmp	 eax, 22			; 00000016H
  00145	7c e3		 jl	 SHORT $LL728@LoadCallAt
  00147	ff b5 9c fd ff
	ff		 push	 DWORD PTR tv5547[ebp]
  0014d	8d 45 d4	 lea	 eax, DWORD PTR ___encStr$567785[ebp]
  00150	50		 push	 eax
  00151	8d 85 a4 fe ff
	ff		 lea	 eax, DWORD PTR _szKey$[ebp]
  00157	50		 push	 eax
  00158	ff d6		 call	 esi

; 90   : 		kCallAttribute.m_iWeaponIdx = rkLoader.LoadInt( szKey, 0 );

  0015a	8b 8d 98 fd ff
	ff		 mov	 ecx, DWORD PTR _rkLoader$GSCopy$[ebp]
  00160	83 c4 0c	 add	 esp, 12			; 0000000cH
  00163	53		 push	 ebx
  00164	8d 85 a4 fe ff
	ff		 lea	 eax, DWORD PTR _szKey$[ebp]
  0016a	50		 push	 eax
  0016b	ff d7		 call	 edi
  0016d	6a 06		 push	 6
  0016f	89 85 68 fd ff
	ff		 mov	 DWORD PTR _kCallAttribute$567781[ebp], eax

; 91   : 
; 92   : 		wsprintf_e( szKey, "call_attribute%d_resistance", i+1 );

  00175	c7 45 d0 8e 8d
	87 86		 mov	 DWORD PTR ___encStr$567938[ebp], -2037936754 ; 86878d8eH
  0017c	c7 45 d4 b2 8d
	9f 9e		 mov	 DWORD PTR ___encStr$567938[ebp+4], -1633710670 ; 9e9f8db2H
  00183	c7 45 d8 9f 85
	89 9f		 mov	 DWORD PTR ___encStr$567938[ebp+8], -1618377313 ; 9f89859fH
  0018a	c7 45 dc 99 89
	ce 8e		 mov	 DWORD PTR ___encStr$567938[ebp+12], -1899066983 ; 8ece8999H
  00191	c7 45 e0 b2 9e
	8e 99		 mov	 DWORD PTR ___encStr$567938[ebp+16], -1718706510 ; 998e9eb2H
  00198	c7 45 e4 84 9f
	9f 8b		 mov	 DWORD PTR ___encStr$567938[ebp+20], -1952473212 ; 8b9f9f84H
  0019f	8d 45 d0	 lea	 eax, DWORD PTR ___encStr$567938[ebp]
  001a2	c7 45 e8 83 8f
	8e 00		 mov	 DWORD PTR ___encStr$567938[ebp+24], 9342851 ; 008e8f83H
  001a9	59		 pop	 ecx
$LL739@LoadCallAt:
  001aa	81 30 ed ec eb
	ea		 xor	 DWORD PTR [eax], -353637139 ; eaebecedH
  001b0	83 c0 04	 add	 eax, 4
  001b3	49		 dec	 ecx
  001b4	75 f4		 jne	 SHORT $LL739@LoadCallAt
  001b6	6a 18		 push	 24			; 00000018H
  001b8	58		 pop	 eax
$LL736@LoadCallAt:
  001b9	8b c8		 mov	 ecx, eax
  001bb	81 e1 03 00 00
	80		 and	 ecx, -2147483645	; 80000003H
  001c1	79 05		 jns	 SHORT $LN810@LoadCallAt
  001c3	49		 dec	 ecx
  001c4	83 c9 fc	 or	 ecx, -4			; fffffffcH
  001c7	41		 inc	 ecx
$LN810@LoadCallAt:
  001c8	b2 ed		 mov	 dl, -19			; ffffffedH
  001ca	2a d1		 sub	 dl, cl
  001cc	30 54 05 d0	 xor	 BYTE PTR ___encStr$567938[ebp+eax], dl
  001d0	40		 inc	 eax
  001d1	83 f8 1b	 cmp	 eax, 27			; 0000001bH
  001d4	7c e3		 jl	 SHORT $LL736@LoadCallAt
  001d6	ff b5 9c fd ff
	ff		 push	 DWORD PTR tv5547[ebp]
  001dc	8d 45 d0	 lea	 eax, DWORD PTR ___encStr$567938[ebp]
  001df	50		 push	 eax
  001e0	8d 85 a4 fe ff
	ff		 lea	 eax, DWORD PTR _szKey$[ebp]
  001e6	50		 push	 eax
  001e7	ff d6		 call	 esi

; 93   : 		kCallAttribute.m_iResistanceIdx = rkLoader.LoadInt( szKey, 0 );

  001e9	8b 8d 98 fd ff
	ff		 mov	 ecx, DWORD PTR _rkLoader$GSCopy$[ebp]
  001ef	83 c4 0c	 add	 esp, 12			; 0000000cH
  001f2	53		 push	 ebx
  001f3	8d 85 a4 fe ff
	ff		 lea	 eax, DWORD PTR _szKey$[ebp]
  001f9	50		 push	 eax
  001fa	ff d7		 call	 edi
  001fc	6a 05		 push	 5
  001fe	89 85 6c fd ff
	ff		 mov	 DWORD PTR _kCallAttribute$567781[ebp+4], eax

; 94   : 
; 95   : 		wsprintf_e( szKey, "call_attribute%d_time", i+1 );

  00204	c7 45 d4 8e 8d
	87 86		 mov	 DWORD PTR ___encStr$568090[ebp], -2037936754 ; 86878d8eH
  0020b	c7 45 d8 b2 8d
	9f 9e		 mov	 DWORD PTR ___encStr$568090[ebp+4], -1633710670 ; 9e9f8db2H
  00212	c7 45 dc 9f 85
	89 9f		 mov	 DWORD PTR ___encStr$568090[ebp+8], -1618377313 ; 9f89859fH
  00219	c7 45 e0 99 89
	ce 8e		 mov	 DWORD PTR ___encStr$568090[ebp+12], -1899066983 ; 8ece8999H
  00220	c7 45 e4 b2 98
	82 87		 mov	 DWORD PTR ___encStr$568090[ebp+16], -2021484366 ; 878298b2H
  00227	8d 45 d4	 lea	 eax, DWORD PTR ___encStr$568090[ebp]
  0022a	66 c7 45 e8 88
	00		 mov	 WORD PTR ___encStr$568090[ebp+20], 136 ; 00000088H
  00230	59		 pop	 ecx
$LL747@LoadCallAt:
  00231	81 30 ed ec eb
	ea		 xor	 DWORD PTR [eax], -353637139 ; eaebecedH
  00237	83 c0 04	 add	 eax, 4
  0023a	49		 dec	 ecx
  0023b	75 f4		 jne	 SHORT $LL747@LoadCallAt
  0023d	ff b5 9c fd ff
	ff		 push	 DWORD PTR tv5547[ebp]
  00243	80 75 e8 ed	 xor	 BYTE PTR ___encStr$568090[ebp+20], -19 ; ffffffedH
  00247	8d 45 d4	 lea	 eax, DWORD PTR ___encStr$568090[ebp]
  0024a	50		 push	 eax
  0024b	8d 85 a4 fe ff
	ff		 lea	 eax, DWORD PTR _szKey$[ebp]
  00251	50		 push	 eax
  00252	ff d6		 call	 esi

; 96   : 		kCallAttribute.m_dwCallTime = rkLoader.LoadInt( szKey, 0 );

  00254	8b 8d 98 fd ff
	ff		 mov	 ecx, DWORD PTR _rkLoader$GSCopy$[ebp]
  0025a	83 c4 0c	 add	 esp, 12			; 0000000cH
  0025d	53		 push	 ebx
  0025e	8d 85 a4 fe ff
	ff		 lea	 eax, DWORD PTR _szKey$[ebp]
  00264	50		 push	 eax
  00265	ff d7		 call	 edi
  00267	6a 06		 push	 6
  00269	89 85 84 fd ff
	ff		 mov	 DWORD PTR _kCallAttribute$567781[ebp+28], eax

; 97   : 
; 98   : 		wsprintf_e( szKey, "call_attribute%d_wound_ani", i+1 );

  0026f	c7 45 d0 8e 8d
	87 86		 mov	 DWORD PTR ___encStr$568242[ebp], -2037936754 ; 86878d8eH
  00276	c7 45 d4 b2 8d
	9f 9e		 mov	 DWORD PTR ___encStr$568242[ebp+4], -1633710670 ; 9e9f8db2H
  0027d	c7 45 d8 9f 85
	89 9f		 mov	 DWORD PTR ___encStr$568242[ebp+8], -1618377313 ; 9f89859fH
  00284	c7 45 dc 99 89
	ce 8e		 mov	 DWORD PTR ___encStr$568242[ebp+12], -1899066983 ; 8ece8999H
  0028b	c7 45 e0 b2 9b
	84 9f		 mov	 DWORD PTR ___encStr$568242[ebp+16], -1618699342 ; 9f849bb2H
  00292	c7 45 e4 83 88
	b4 8b		 mov	 DWORD PTR ___encStr$568242[ebp+20], -1951102845 ; 8bb48883H
  00299	66 c7 45 e8 83
	85		 mov	 WORD PTR ___encStr$568242[ebp+24], 34179 ; 00008583H
  0029f	8d 45 d0	 lea	 eax, DWORD PTR ___encStr$568242[ebp]
  002a2	88 5d ea	 mov	 BYTE PTR ___encStr$568242[ebp+26], bl
  002a5	59		 pop	 ecx
$LL755@LoadCallAt:
  002a6	81 30 ed ec eb
	ea		 xor	 DWORD PTR [eax], -353637139 ; eaebecedH
  002ac	83 c0 04	 add	 eax, 4
  002af	49		 dec	 ecx
  002b0	75 f4		 jne	 SHORT $LL755@LoadCallAt
  002b2	6a 18		 push	 24			; 00000018H
  002b4	58		 pop	 eax
$LL752@LoadCallAt:
  002b5	8b c8		 mov	 ecx, eax
  002b7	81 e1 03 00 00
	80		 and	 ecx, -2147483645	; 80000003H
  002bd	79 05		 jns	 SHORT $LN811@LoadCallAt
  002bf	49		 dec	 ecx
  002c0	83 c9 fc	 or	 ecx, -4			; fffffffcH
  002c3	41		 inc	 ecx
$LN811@LoadCallAt:
  002c4	b2 ed		 mov	 dl, -19			; ffffffedH
  002c6	2a d1		 sub	 dl, cl
  002c8	30 54 05 d0	 xor	 BYTE PTR ___encStr$568242[ebp+eax], dl
  002cc	40		 inc	 eax
  002cd	83 f8 1a	 cmp	 eax, 26			; 0000001aH
  002d0	7c e3		 jl	 SHORT $LL752@LoadCallAt
  002d2	ff b5 9c fd ff
	ff		 push	 DWORD PTR tv5547[ebp]
  002d8	8d 45 d0	 lea	 eax, DWORD PTR ___encStr$568242[ebp]
  002db	50		 push	 eax
  002dc	8d 85 a4 fe ff
	ff		 lea	 eax, DWORD PTR _szKey$[ebp]
  002e2	50		 push	 eax
  002e3	ff d6		 call	 esi

; 99   : 		rkLoader.LoadString( szKey, "", szBuf, MAX_PATH );

  002e5	8b 8d 98 fd ff
	ff		 mov	 ecx, DWORD PTR _rkLoader$GSCopy$[ebp]
  002eb	83 c4 0c	 add	 esp, 12			; 0000000cH
  002ee	68 04 01 00 00	 push	 260			; 00000104H
  002f3	8d 85 a0 fd ff
	ff		 lea	 eax, DWORD PTR _szBuf$[ebp]
  002f9	50		 push	 eax
  002fa	68 00 00 00 00	 push	 OFFSET ??_C@_00CNPNBAHC@?$AA@
  002ff	8d 85 a4 fe ff
	ff		 lea	 eax, DWORD PTR _szKey$[ebp]
  00305	50		 push	 eax
  00306	ff 15 00 00 00
	00		 call	 DWORD PTR __imp_?LoadStringA@ioINILoader@@QAEXPBD0PADH@Z

; 100  : 		kCallAttribute.m_WoundedAnimation = szBuf;

  0030c	8d 85 a0 fd ff
	ff		 lea	 eax, DWORD PTR _szBuf$[ebp]
  00312	50		 push	 eax
  00313	8d 8d 70 fd ff
	ff		 lea	 ecx, DWORD PTR _kCallAttribute$567781[ebp+8]
  00319	ff 15 00 00 00
	00		 call	 DWORD PTR __imp_??4ioHashString@@QAEAAV0@PBD@Z
  0031f	6a 07		 push	 7

; 101  : 
; 102  : 		wsprintf_e( szKey, "call_attribute%d_wound_duration", i+1 );

  00321	c7 45 cc 8e 8d
	87 86		 mov	 DWORD PTR ___encStr$568394[ebp], -2037936754 ; 86878d8eH
  00328	c7 45 d0 b2 8d
	9f 9e		 mov	 DWORD PTR ___encStr$568394[ebp+4], -1633710670 ; 9e9f8db2H
  0032f	c7 45 d4 9f 85
	89 9f		 mov	 DWORD PTR ___encStr$568394[ebp+8], -1618377313 ; 9f89859fH
  00336	c7 45 d8 99 89
	ce 8e		 mov	 DWORD PTR ___encStr$568394[ebp+12], -1899066983 ; 8ece8999H
  0033d	c7 45 dc b2 9b
	84 9f		 mov	 DWORD PTR ___encStr$568394[ebp+16], -1618699342 ; 9f849bb2H
  00344	c7 45 e0 83 88
	b4 8e		 mov	 DWORD PTR ___encStr$568394[ebp+20], -1900771197 ; 8eb48883H
  0034b	c7 45 e4 98 9e
	8a 9e		 mov	 DWORD PTR ___encStr$568394[ebp+24], -1635082600 ; 9e8a9e98H
  00352	8d 45 cc	 lea	 eax, DWORD PTR ___encStr$568394[ebp]
  00355	c7 45 e8 84 83
	85 00		 mov	 DWORD PTR ___encStr$568394[ebp+28], 8749956 ; 00858384H
  0035c	59		 pop	 ecx
$LL763@LoadCallAt:
  0035d	81 30 ed ec eb
	ea		 xor	 DWORD PTR [eax], -353637139 ; eaebecedH
  00363	83 c0 04	 add	 eax, 4
  00366	49		 dec	 ecx
  00367	75 f4		 jne	 SHORT $LL763@LoadCallAt
  00369	6a 1c		 push	 28			; 0000001cH
  0036b	58		 pop	 eax
$LL760@LoadCallAt:
  0036c	8b c8		 mov	 ecx, eax
  0036e	81 e1 03 00 00
	80		 and	 ecx, -2147483645	; 80000003H
  00374	79 05		 jns	 SHORT $LN812@LoadCallAt
  00376	49		 dec	 ecx
  00377	83 c9 fc	 or	 ecx, -4			; fffffffcH
  0037a	41		 inc	 ecx
$LN812@LoadCallAt:
  0037b	b2 ed		 mov	 dl, -19			; ffffffedH
  0037d	2a d1		 sub	 dl, cl
  0037f	30 54 05 cc	 xor	 BYTE PTR ___encStr$568394[ebp+eax], dl
  00383	40		 inc	 eax
  00384	83 f8 1f	 cmp	 eax, 31			; 0000001fH
  00387	7c e3		 jl	 SHORT $LL760@LoadCallAt
  00389	ff b5 9c fd ff
	ff		 push	 DWORD PTR tv5547[ebp]
  0038f	8d 45 cc	 lea	 eax, DWORD PTR ___encStr$568394[ebp]
  00392	50		 push	 eax
  00393	8d 85 a4 fe ff
	ff		 lea	 eax, DWORD PTR _szKey$[ebp]
  00399	50		 push	 eax
  0039a	ff d6		 call	 esi

; 103  : 		kCallAttribute.m_dwWoundedDuration = rkLoader.LoadInt( szKey, 0 );

  0039c	8b 8d 98 fd ff
	ff		 mov	 ecx, DWORD PTR _rkLoader$GSCopy$[ebp]
  003a2	83 c4 0c	 add	 esp, 12			; 0000000cH
  003a5	53		 push	 ebx
  003a6	8d 85 a4 fe ff
	ff		 lea	 eax, DWORD PTR _szKey$[ebp]
  003ac	50		 push	 eax
  003ad	ff d7		 call	 edi
  003af	6a 07		 push	 7
  003b1	89 85 80 fd ff
	ff		 mov	 DWORD PTR _kCallAttribute$567781[ebp+24], eax

; 104  : 
; 105  : 		wsprintf_e( szKey, "call_attribute%d_wound_loop_ani", i+1 );

  003b7	c7 45 a8 8e 8d
	87 86		 mov	 DWORD PTR ___encStr$568546[ebp], -2037936754 ; 86878d8eH
  003be	c7 45 ac b2 8d
	9f 9e		 mov	 DWORD PTR ___encStr$568546[ebp+4], -1633710670 ; 9e9f8db2H
  003c5	c7 45 b0 9f 85
	89 9f		 mov	 DWORD PTR ___encStr$568546[ebp+8], -1618377313 ; 9f89859fH
  003cc	c7 45 b4 99 89
	ce 8e		 mov	 DWORD PTR ___encStr$568546[ebp+12], -1899066983 ; 8ece8999H
  003d3	c7 45 b8 b2 9b
	84 9f		 mov	 DWORD PTR ___encStr$568546[ebp+16], -1618699342 ; 9f849bb2H
  003da	c7 45 bc 83 88
	b4 86		 mov	 DWORD PTR ___encStr$568546[ebp+20], -2034988925 ; 86b48883H
  003e1	c7 45 c0 82 83
	9b b5		 mov	 DWORD PTR ___encStr$568546[ebp+24], -1248099454 ; b59b8382H
  003e8	8d 45 a8	 lea	 eax, DWORD PTR ___encStr$568546[ebp]
  003eb	c7 45 c4 8c 82
	82 00		 mov	 DWORD PTR ___encStr$568546[ebp+28], 8553100 ; 0082828cH
  003f2	59		 pop	 ecx
$LL771@LoadCallAt:
  003f3	81 30 ed ec eb
	ea		 xor	 DWORD PTR [eax], -353637139 ; eaebecedH
  003f9	83 c0 04	 add	 eax, 4
  003fc	49		 dec	 ecx
  003fd	75 f4		 jne	 SHORT $LL771@LoadCallAt
  003ff	6a 1c		 push	 28			; 0000001cH
  00401	58		 pop	 eax
$LL768@LoadCallAt:
  00402	8b c8		 mov	 ecx, eax
  00404	81 e1 03 00 00
	80		 and	 ecx, -2147483645	; 80000003H
  0040a	79 05		 jns	 SHORT $LN813@LoadCallAt
  0040c	49		 dec	 ecx
  0040d	83 c9 fc	 or	 ecx, -4			; fffffffcH
  00410	41		 inc	 ecx
$LN813@LoadCallAt:
  00411	b2 ed		 mov	 dl, -19			; ffffffedH
  00413	2a d1		 sub	 dl, cl
  00415	30 54 05 a8	 xor	 BYTE PTR ___encStr$568546[ebp+eax], dl
  00419	40		 inc	 eax
  0041a	83 f8 1f	 cmp	 eax, 31			; 0000001fH
  0041d	7c e3		 jl	 SHORT $LL768@LoadCallAt
  0041f	ff b5 9c fd ff
	ff		 push	 DWORD PTR tv5547[ebp]
  00425	8d 45 a8	 lea	 eax, DWORD PTR ___encStr$568546[ebp]
  00428	50		 push	 eax
  00429	8d 85 a4 fe ff
	ff		 lea	 eax, DWORD PTR _szKey$[ebp]
  0042f	50		 push	 eax
  00430	ff d6		 call	 esi

; 106  : 		kCallAttribute.m_bWoundedLoopAni = rkLoader.LoadBool( szKey, false );

  00432	8b 8d 98 fd ff
	ff		 mov	 ecx, DWORD PTR _rkLoader$GSCopy$[ebp]
  00438	83 c4 0c	 add	 esp, 12			; 0000000cH
  0043b	53		 push	 ebx
  0043c	8d 85 a4 fe ff
	ff		 lea	 eax, DWORD PTR _szKey$[ebp]
  00442	50		 push	 eax
  00443	ff 15 00 00 00
	00		 call	 DWORD PTR __imp_?LoadBool@ioINILoader@@QAE_NPBD_N@Z

; 107  : 
; 108  : 		m_CallWeaponInfoList.push_back( kCallAttribute );

  00449	8b 8d 90 fd ff
	ff		 mov	 ecx, DWORD PTR tv4480[ebp]
  0044f	88 85 88 fd ff
	ff		 mov	 BYTE PTR _kCallAttribute$567781[ebp+32], al
  00455	8d 85 68 fd ff
	ff		 lea	 eax, DWORD PTR _kCallAttribute$567781[ebp]
  0045b	50		 push	 eax
  0045c	e8 00 00 00 00	 call	 ?push_back@?$vector@UWeaponInfo@@V?$allocator@UWeaponInfo@@@std@@@std@@QAEXABUWeaponInfo@@@Z ; std::vector<WeaponInfo,std::allocator<WeaponInfo> >::push_back

; 109  : 	}

  00461	83 4d fc ff	 or	 DWORD PTR __$EHRec$[ebp+8], -1
  00465	8d 8d 70 fd ff
	ff		 lea	 ecx, DWORD PTR _kCallAttribute$567781[ebp+8]
  0046b	ff 15 00 00 00
	00		 call	 DWORD PTR __imp_??1ioHashString@@QAE@XZ
  00471	ff 85 9c fd ff
	ff		 inc	 DWORD PTR tv5547[ebp]
  00477	ff 8d 94 fd ff
	ff		 dec	 DWORD PTR tv4407[ebp]
  0047d	0f 85 58 fc ff
	ff		 jne	 $LL597@LoadCallAt
$LN595@LoadCallAt:

; 110  : }

  00483	e8 00 00 00 00	 call	 __EH_epilog3_GS
  00488	c2 04 00	 ret	 4
_TEXT	ENDS
;	COMDAT text$x
text$x	SEGMENT
__unwindfunclet$?LoadCallAttributeList@ioPullWeapon2@@UAEXAAVioINILoader@@@Z$0:
  00000	8d 8d 68 fd ff
	ff		 lea	 ecx, DWORD PTR _kCallAttribute$567781[ebp]
  00006	e9 00 00 00 00	 jmp	 ??1WeaponInfo@@QAE@XZ
__ehhandler$?LoadCallAttributeList@ioPullWeapon2@@UAEXAAVioINILoader@@@Z:
  0000b	8b 54 24 08	 mov	 edx, DWORD PTR [esp+8]
  0000f	8d 42 0c	 lea	 eax, DWORD PTR [edx+12]
  00012	8b 8a 64 fd ff
	ff		 mov	 ecx, DWORD PTR [edx-668]
  00018	33 c8		 xor	 ecx, eax
  0001a	e8 00 00 00 00	 call	 @__security_check_cookie@4
  0001f	8b 4a fc	 mov	 ecx, DWORD PTR [edx-4]
  00022	33 c8		 xor	 ecx, eax
  00024	e8 00 00 00 00	 call	 @__security_check_cookie@4
  00029	b8 00 00 00 00	 mov	 eax, OFFSET __ehfuncinfo$?LoadCallAttributeList@ioPullWeapon2@@UAEXAAVioINILoader@@@Z
  0002e	e9 00 00 00 00	 jmp	 ___CxxFrameHandler3
text$x	ENDS
?LoadCallAttributeList@ioPullWeapon2@@UAEXAAVioINILoader@@@Z ENDP ; ioPullWeapon2::LoadCallAttributeList
PUBLIC	?push_back@?$vector@VioHashString@@V?$allocator@VioHashString@@@std@@@std@@QAEXABVioHashString@@@Z ; std::vector<ioHashString,std::allocator<ioHashString> >::push_back
; Function compile flags: /Ogsp
; File c:\program files (x86)\microsoft visual studio 10.0\vc\include\vector
;	COMDAT ?push_back@?$vector@VioHashString@@V?$allocator@VioHashString@@@std@@@std@@QAEXABVioHashString@@@Z
_TEXT	SEGMENT
__Val$ = 8						; size = 4
?push_back@?$vector@VioHashString@@V?$allocator@VioHashString@@@std@@@std@@QAEXABVioHashString@@@Z PROC ; std::vector<ioHashString,std::allocator<ioHashString> >::push_back, COMDAT
; _this$ = ecx

; 976  : 		{	// insert element at end

  00000	55		 push	 ebp
  00001	8b ec		 mov	 ebp, esp
  00003	56		 push	 esi
  00004	8b f1		 mov	 esi, ecx

; 977  : 		if (_Inside(_STD addressof(_Val)))

  00006	8b 46 04	 mov	 eax, DWORD PTR [esi+4]
  00009	57		 push	 edi
  0000a	8b 7d 08	 mov	 edi, DWORD PTR __Val$[ebp]
  0000d	3b f8		 cmp	 edi, eax
  0000f	73 29		 jae	 SHORT $LN4@push_back@2
  00011	8b 0e		 mov	 ecx, DWORD PTR [esi]
  00013	3b cf		 cmp	 ecx, edi
  00015	77 23		 ja	 SHORT $LN4@push_back@2

; 978  : 			{	// push back an element
; 979  : 			size_type _Idx = _STD addressof(_Val) - this->_Myfirst;

  00017	2b f9		 sub	 edi, ecx

; 980  : 			if (this->_Mylast == this->_Myend)

  00019	3b 46 08	 cmp	 eax, DWORD PTR [esi+8]
  0001c	75 09		 jne	 SHORT $LN3@push_back@2

; 981  : 				_Reserve(1);

  0001e	6a 01		 push	 1
  00020	8b ce		 mov	 ecx, esi
  00022	e8 00 00 00 00	 call	 ?_Reserve@?$vector@VioHashString@@V?$allocator@VioHashString@@@std@@@std@@IAEXI@Z ; std::vector<ioHashString,std::allocator<ioHashString> >::_Reserve
$LN3@push_back@2:

; 982  : 			_Orphan_range(this->_Mylast, this->_Mylast);
; 983  : 			_Cons_val(this->_Alval,
; 984  : 				this->_Mylast,
; 985  : 				this->_Myfirst[_Idx]);

  00027	83 e7 f0	 and	 edi, -16		; fffffff0H
  0002a	03 3e		 add	 edi, DWORD PTR [esi]
  0002c	8d 4e 0c	 lea	 ecx, DWORD PTR [esi+12]
  0002f	57		 push	 edi
  00030	ff 76 04	 push	 DWORD PTR [esi+4]
  00033	e8 00 00 00 00	 call	 ??$construct@AAVioHashString@@@?$allocator@VioHashString@@@std@@QAEXPAVioHashString@@AAV2@@Z ; std::allocator<ioHashString>::construct<ioHashString &>

; 986  : 			++this->_Mylast;
; 987  : 			}
; 988  : 		else

  00038	eb 19		 jmp	 SHORT $LN30@push_back@2
$LN4@push_back@2:

; 989  : 			{	// push back a non-element
; 990  : 			if (this->_Mylast == this->_Myend)

  0003a	3b 46 08	 cmp	 eax, DWORD PTR [esi+8]
  0003d	75 09		 jne	 SHORT $LN1@push_back@2

; 991  : 				_Reserve(1);

  0003f	6a 01		 push	 1
  00041	8b ce		 mov	 ecx, esi
  00043	e8 00 00 00 00	 call	 ?_Reserve@?$vector@VioHashString@@V?$allocator@VioHashString@@@std@@@std@@IAEXI@Z ; std::vector<ioHashString,std::allocator<ioHashString> >::_Reserve
$LN1@push_back@2:

; 992  : 			_Orphan_range(this->_Mylast, this->_Mylast);
; 993  : 			_Cons_val(this->_Alval,
; 994  : 				this->_Mylast,
; 995  : 				_Val);

  00048	57		 push	 edi
  00049	ff 76 04	 push	 DWORD PTR [esi+4]
  0004c	e8 00 00 00 00	 call	 ??$_Construct@VioHashString@@ABV1@@std@@YAXPAVioHashString@@ABV1@@Z ; std::_Construct<ioHashString,ioHashString const &>
  00051	59		 pop	 ecx
  00052	59		 pop	 ecx
$LN30@push_back@2:

; 996  : 			++this->_Mylast;

  00053	83 46 04 10	 add	 DWORD PTR [esi+4], 16	; 00000010H
  00057	5f		 pop	 edi
  00058	5e		 pop	 esi

; 997  : 			}
; 998  : 		}

  00059	5d		 pop	 ebp
  0005a	c2 04 00	 ret	 4
?push_back@?$vector@VioHashString@@V?$allocator@VioHashString@@@std@@@std@@QAEXABVioHashString@@@Z ENDP ; std::vector<ioHashString,std::allocator<ioHashString> >::push_back
; Function compile flags: /Ogsp
_TEXT	ENDS
;	COMDAT ??_GioPullWeapon2@@UAEPAXI@Z
_TEXT	SEGMENT
___flags$ = 8						; size = 4
??_GioPullWeapon2@@UAEPAXI@Z PROC			; ioPullWeapon2::`scalar deleting destructor', COMDAT
; _this$ = ecx
  00000	55		 push	 ebp
  00001	8b ec		 mov	 ebp, esp
  00003	56		 push	 esi
  00004	8b f1		 mov	 esi, ecx
  00006	e8 00 00 00 00	 call	 ??1ioPullWeapon2@@UAE@XZ ; ioPullWeapon2::~ioPullWeapon2
  0000b	f6 45 08 01	 test	 BYTE PTR ___flags$[ebp], 1
  0000f	74 07		 je	 SHORT $LN1@scalar@6
  00011	56		 push	 esi
  00012	e8 00 00 00 00	 call	 ??3@YAXPAX@Z		; operator delete
  00017	59		 pop	 ecx
$LN1@scalar@6:
  00018	8b c6		 mov	 eax, esi
  0001a	5e		 pop	 esi
  0001b	5d		 pop	 ebp
  0001c	c2 04 00	 ret	 4
??_GioPullWeapon2@@UAEPAXI@Z ENDP			; ioPullWeapon2::`scalar deleting destructor'
_TEXT	ENDS
PUBLIC	__mask@@AbsDouble@
PUBLIC	?CheckTargetList@ioPullWeapon2@@QAEXPAVioBaseChar@@PAVioPlayStage@@@Z ; ioPullWeapon2::CheckTargetList
;	COMDAT __mask@@AbsDouble@
; File d:\lost saga for developer\youtube\tutorial\source\src\lsclient\iobasechar.h
CONST	SEGMENT
__mask@@AbsDouble@ DB 0ffH, 0ffH, 0ffH, 0ffH, 0ffH, 0ffH, 0ffH, 07fH, 0ffH
	DB	0ffH, 0ffH, 0ffH, 0ffH, 0ffH, 0ffH, 07fH
; Function compile flags: /Ogsp
; File d:\lost saga for developer\youtube\tutorial\source\src\lsclient\iopullweapon2.cpp
CONST	ENDS
;	COMDAT ?CheckTargetList@ioPullWeapon2@@QAEXPAVioBaseChar@@PAVioPlayStage@@@Z
_TEXT	SEGMENT
_vDiff$568905 = -28					; size = 12
$T576391 = -16						; size = 4
_pTarget$568902 = -16					; size = 4
_value$576496 = -12					; size = 4
_value$576500 = -8					; size = 4
_value$576418 = -4					; size = 4
_iter$ = -4						; size = 4
_pOwner$ = 8						; size = 4
_pStage$ = 12						; size = 4
?CheckTargetList@ioPullWeapon2@@QAEXPAVioBaseChar@@PAVioPlayStage@@@Z PROC ; ioPullWeapon2::CheckTargetList, COMDAT
; _this$ = ecx

; 291  : {

  00000	55		 push	 ebp
  00001	8b ec		 mov	 ebp, esp
  00003	83 ec 1c	 sub	 esp, 28			; 0000001cH
  00006	56		 push	 esi
  00007	57		 push	 edi

; 292  : 	if( !pOwner )

  00008	8b 7d 08	 mov	 edi, DWORD PTR _pOwner$[ebp]
  0000b	8b f1		 mov	 esi, ecx
  0000d	85 ff		 test	 edi, edi
  0000f	0f 84 8f 01 00
	00		 je	 $LN4@CheckTarge

; 293  : 		return;
; 294  : 
; 295  : 	const BaseCharList &rkTargetList = pStage->GetBaseCharList();
; 296  : 
; 297  : 	BaseCharList::const_iterator iter;
; 298  : 	m_vTargetList.clear();

  00015	8b 86 44 0a 00
	00		 mov	 eax, DWORD PTR [esi+2628]
  0001b	8b 8e 40 0a 00
	00		 mov	 ecx, DWORD PTR [esi+2624]
  00021	53		 push	 ebx
  00022	50		 push	 eax
  00023	51		 push	 ecx
  00024	8d 45 f0	 lea	 eax, DWORD PTR $T576391[ebp]
  00027	50		 push	 eax
  00028	8d 8e 40 0a 00
	00		 lea	 ecx, DWORD PTR [esi+2624]
  0002e	e8 00 00 00 00	 call	 ?erase@?$vector@VioHashString@@V?$allocator@VioHashString@@@std@@@std@@QAE?AV?$_Vector_iterator@V?$_Vector_val@VioHashString@@V?$allocator@VioHashString@@@std@@@std@@@2@V?$_Vector_const_iterator@V?$_Vector_val@VioHashString@@V?$allocator@VioHashString@@@std@@@std@@@2@0@Z ; std::vector<ioHashString,std::allocator<ioHashString> >::erase

; 299  : 	
; 300  : 	if( pOwner->GetExperienceMode() == EMS_EXPERIENCE )

  00033	8d 45 fc	 lea	 eax, DWORD PTR _value$576418[ebp]
  00036	50		 push	 eax
  00037	8d 8f 94 1d 00
	00		 lea	 ecx, DWORD PTR [edi+7572]
  0003d	e8 00 00 00 00	 call	 ?DecryptValueToPool@?$CEncrypt@K@@QAEXPAK@Z ; CEncrypt<unsigned long>::DecryptValueToPool
  00042	83 7d fc 02	 cmp	 DWORD PTR _value$576418[ebp], 2
  00046	0f 84 57 01 00
	00		 je	 $LN77@CheckTarge

; 301  : 		return;
; 302  : 
; 303  : 	for( iter = rkTargetList.begin(); iter != rkTargetList.end(); ++iter )

  0004c	8b 4d 0c	 mov	 ecx, DWORD PTR _pStage$[ebp]
  0004f	8b 41 2c	 mov	 eax, DWORD PTR [ecx+44]
  00052	89 45 fc	 mov	 DWORD PTR _iter$[ebp], eax
  00055	3b 41 30	 cmp	 eax, DWORD PTR [ecx+48]
  00058	0f 84 45 01 00
	00		 je	 $LN77@CheckTarge
  0005e	eb 03		 jmp	 SHORT $LN43@CheckTarge
$LL76@CheckTarge:
  00060	8b 45 fc	 mov	 eax, DWORD PTR _iter$[ebp]
$LN43@CheckTarge:

; 304  : 	{
; 305  : 		ioBaseChar *pTarget = (*iter);

  00063	8b 38		 mov	 edi, DWORD PTR [eax]

; 306  : 
; 307  : 		if( !IsEnableTargetState( pOwner, pTarget ) )

  00065	57		 push	 edi
  00066	ff 75 08	 push	 DWORD PTR _pOwner$[ebp]
  00069	8b ce		 mov	 ecx, esi
  0006b	89 7d f0	 mov	 DWORD PTR _pTarget$568902[ebp], edi
  0006e	e8 00 00 00 00	 call	 ?IsEnableTargetState@ioPullWeapon2@@QAE_NPAVioBaseChar@@0@Z ; ioPullWeapon2::IsEnableTargetState
  00073	84 c0		 test	 al, al
  00075	0f 84 15 01 00
	00		 je	 $LN5@CheckTarge

; 308  : 			continue;
; 309  : 
; 310  : 		if( !pTarget->IsNeedProcess() )

  0007b	8b 07		 mov	 eax, DWORD PTR [edi]
  0007d	8b cf		 mov	 ecx, edi
  0007f	ff 90 00 01 00
	00		 call	 DWORD PTR [eax+256]
  00085	84 c0		 test	 al, al
  00087	0f 84 03 01 00
	00		 je	 $LN5@CheckTarge

; 311  : 			continue;
; 312  : 		
; 313  : 		D3DXVECTOR3 vDiff = GetPosition() - pTarget->GetWorldPosition();

  0008d	8b 07		 mov	 eax, DWORD PTR [edi]
  0008f	8b cf		 mov	 ecx, edi
  00091	ff 50 70	 call	 DWORD PTR [eax+112]
  00094	8b f8		 mov	 edi, eax
  00096	8b 06		 mov	 eax, DWORD PTR [esi]
  00098	8b ce		 mov	 ecx, esi
  0009a	ff 50 70	 call	 DWORD PTR [eax+112]
  0009d	f3 0f 10 00	 movss	 xmm0, DWORD PTR [eax]
  000a1	f3 0f 10 0f	 movss	 xmm1, DWORD PTR [edi]
  000a5	0f 5a c0	 cvtps2pd xmm0, xmm0
  000a8	0f 5a c9	 cvtps2pd xmm1, xmm1
  000ab	f2 0f 5c c1	 subsd	 xmm0, xmm1
  000af	f3 0f 10 4f 04	 movss	 xmm1, DWORD PTR [edi+4]
  000b4	66 0f 5a c0	 cvtpd2ps xmm0, xmm0
  000b8	f3 0f 11 45 e4	 movss	 DWORD PTR _vDiff$568905[ebp], xmm0
  000bd	f3 0f 10 40 04	 movss	 xmm0, DWORD PTR [eax+4]
  000c2	0f 5a c0	 cvtps2pd xmm0, xmm0
  000c5	0f 5a c9	 cvtps2pd xmm1, xmm1
  000c8	f2 0f 5c c1	 subsd	 xmm0, xmm1
  000cc	f3 0f 10 4f 08	 movss	 xmm1, DWORD PTR [edi+8]
  000d1	66 0f 5a c0	 cvtpd2ps xmm0, xmm0
  000d5	f3 0f 11 45 e8	 movss	 DWORD PTR _vDiff$568905[ebp+4], xmm0
  000da	f3 0f 10 40 08	 movss	 xmm0, DWORD PTR [eax+8]
  000df	0f 5a c0	 cvtps2pd xmm0, xmm0
  000e2	0f 5a c9	 cvtps2pd xmm1, xmm1

; 314  : 
; 315  : 		float fDistSq = fabsf(D3DXVec3LengthSq( &vDiff ));
; 316  : 		float fRangeSq = m_fPullingRange  *m_fPullingRange;

  000e5	8d 45 f4	 lea	 eax, DWORD PTR _value$576496[ebp]
  000e8	f2 0f 5c c1	 subsd	 xmm0, xmm1
  000ec	66 0f 5a c0	 cvtpd2ps xmm0, xmm0
  000f0	50		 push	 eax
  000f1	8d 8e 98 09 00
	00		 lea	 ecx, DWORD PTR [esi+2456]
  000f7	f3 0f 11 45 ec	 movss	 DWORD PTR _vDiff$568905[ebp+8], xmm0
  000fc	e8 00 00 00 00	 call	 ?DecryptValueToPool@?$CEncrypt@M@@QAEXPAM@Z ; CEncrypt<float>::DecryptValueToPool
  00101	8d 45 f8	 lea	 eax, DWORD PTR _value$576500[ebp]
  00104	50		 push	 eax
  00105	8d 8e 98 09 00
	00		 lea	 ecx, DWORD PTR [esi+2456]
  0010b	e8 00 00 00 00	 call	 ?DecryptValueToPool@?$CEncrypt@M@@QAEXPAM@Z ; CEncrypt<float>::DecryptValueToPool
  00110	f3 0f 10 45 e8	 movss	 xmm0, DWORD PTR _vDiff$568905[ebp+4]
  00115	f3 0f 10 4d e4	 movss	 xmm1, DWORD PTR _vDiff$568905[ebp]
  0011a	f3 0f 10 55 ec	 movss	 xmm2, DWORD PTR _vDiff$568905[ebp+8]
  0011f	0f 5a c9	 cvtps2pd xmm1, xmm1
  00122	0f 5a c0	 cvtps2pd xmm0, xmm0
  00125	f2 0f 59 c9	 mulsd	 xmm1, xmm1
  00129	f2 0f 59 c0	 mulsd	 xmm0, xmm0
  0012d	f2 0f 58 c8	 addsd	 xmm1, xmm0
  00131	0f 5a d2	 cvtps2pd xmm2, xmm2

; 317  : 
; 318  : 		if( fDistSq < fRangeSq )

  00134	0f 57 c0	 xorps	 xmm0, xmm0
  00137	f2 0f 59 d2	 mulsd	 xmm2, xmm2
  0013b	f2 0f 58 ca	 addsd	 xmm1, xmm2
  0013f	f3 0f 10 55 f4	 movss	 xmm2, DWORD PTR _value$576496[ebp]
  00144	f2 0f 5a c1	 cvtsd2ss xmm0, xmm1
  00148	f2 0f 10 0d 00
	00 00 00	 movsd	 xmm1, QWORD PTR __mask@@AbsDouble@
  00150	0f 5a c0	 cvtps2pd xmm0, xmm0
  00153	66 0f 54 c1	 andpd	 xmm0, xmm1
  00157	f3 0f 10 4d f8	 movss	 xmm1, DWORD PTR _value$576500[ebp]
  0015c	0f 5a c9	 cvtps2pd xmm1, xmm1
  0015f	0f 5a d2	 cvtps2pd xmm2, xmm2
  00162	f2 0f 59 ca	 mulsd	 xmm1, xmm2
  00166	f2 0f 5a c0	 cvtsd2ss xmm0, xmm0
  0016a	66 0f 5a c9	 cvtpd2ps xmm1, xmm1
  0016e	f3 0f 5a c0	 cvtss2sd xmm0, xmm0
  00172	f3 0f 5a c9	 cvtss2sd xmm1, xmm1
  00176	66 0f 2f c8	 comisd	 xmm1, xmm0
  0017a	76 14		 jbe	 SHORT $LN5@CheckTarge

; 319  : 		{
; 320  : 			m_vTargetList.push_back( pTarget->GetCharName() );

  0017c	8b 45 f0	 mov	 eax, DWORD PTR _pTarget$568902[ebp]
  0017f	05 d4 02 00 00	 add	 eax, 724		; 000002d4H
  00184	50		 push	 eax
  00185	8d 8e 40 0a 00
	00		 lea	 ecx, DWORD PTR [esi+2624]
  0018b	e8 00 00 00 00	 call	 ?push_back@?$vector@VioHashString@@V?$allocator@VioHashString@@@std@@@std@@QAEXABVioHashString@@@Z ; std::vector<ioHashString,std::allocator<ioHashString> >::push_back
$LN5@CheckTarge:

; 301  : 		return;
; 302  : 
; 303  : 	for( iter = rkTargetList.begin(); iter != rkTargetList.end(); ++iter )

  00190	83 45 fc 04	 add	 DWORD PTR _iter$[ebp], 4
  00194	8b 45 0c	 mov	 eax, DWORD PTR _pStage$[ebp]
  00197	8b 4d fc	 mov	 ecx, DWORD PTR _iter$[ebp]
  0019a	3b 48 30	 cmp	 ecx, DWORD PTR [eax+48]
  0019d	0f 85 bd fe ff
	ff		 jne	 $LL76@CheckTarge
$LN77@CheckTarge:
  001a3	5b		 pop	 ebx
$LN4@CheckTarge:
  001a4	5f		 pop	 edi
  001a5	5e		 pop	 esi

; 321  : 		}
; 322  : 	}
; 323  : }

  001a6	c9		 leave
  001a7	c2 08 00	 ret	 8
?CheckTargetList@ioPullWeapon2@@QAEXPAVioBaseChar@@PAVioPlayStage@@@Z ENDP ; ioPullWeapon2::CheckTargetList
_TEXT	ENDS
PUBLIC	?OnPulling@ioPullWeapon2@@QAEXMKPAVioPlayStage@@@Z ; ioPullWeapon2::OnPulling
; Function compile flags: /Ogsp
;	COMDAT ?OnPulling@ioPullWeapon2@@QAEXMKPAVioPlayStage@@@Z
_TEXT	SEGMENT
_value$576518 = -4					; size = 4
_fTimePerSec$ = 8					; size = 4
tv222 = 12						; size = 4
tv219 = 12						; size = 4
_dwCurTime$ = 12					; size = 4
_pStage$ = 16						; size = 4
?OnPulling@ioPullWeapon2@@QAEXMKPAVioPlayStage@@@Z PROC	; ioPullWeapon2::OnPulling, COMDAT
; _this$ = ecx

; 260  : {

  00000	55		 push	 ebp
  00001	8b ec		 mov	 ebp, esp
  00003	51		 push	 ecx
  00004	56		 push	 esi
  00005	57		 push	 edi
  00006	8b f1		 mov	 esi, ecx

; 261  : 	CallAttribute();

  00008	e8 00 00 00 00	 call	 ?CallAttribute@ioPullWeapon2@@QAEXXZ ; ioPullWeapon2::CallAttribute

; 262  : 
; 263  : 	if( 0 < m_dwPullingEndTime && dwCurTime < m_dwPullingEndTime  )

  0000d	8b 86 2c 0a 00
	00		 mov	 eax, DWORD PTR [esi+2604]
  00013	85 c0		 test	 eax, eax
  00015	74 47		 je	 SHORT $LN7@OnPulling
  00017	3b 45 0c	 cmp	 eax, DWORD PTR _dwCurTime$[ebp]
  0001a	76 45		 jbe	 SHORT $LN15@OnPulling

; 264  : 	{		
; 265  : 		ioBaseChar *pOwner = GetOwner();

  0001c	8b ce		 mov	 ecx, esi
  0001e	e8 00 00 00 00	 call	 ?GetOwner@ioWeapon@@QBEPAVioBaseChar@@XZ ; ioWeapon::GetOwner
  00023	8b f8		 mov	 edi, eax

; 266  : 		if( pOwner )

  00025	85 ff		 test	 edi, edi
  00027	74 3a		 je	 SHORT $LN6@OnPulling

; 267  : 		{
; 268  : 			if( dwCurTime < m_dwPullingStartTime + m_dwPullingSensingTime )

  00029	8d 45 fc	 lea	 eax, DWORD PTR _value$576518[ebp]
  0002c	50		 push	 eax
  0002d	8d 8e f8 09 00
	00		 lea	 ecx, DWORD PTR [esi+2552]
  00033	e8 00 00 00 00	 call	 ?DecryptValueToPool@?$CEncrypt@K@@QAEXPAK@Z ; CEncrypt<unsigned long>::DecryptValueToPool
  00038	8b 86 28 0a 00
	00		 mov	 eax, DWORD PTR [esi+2600]
  0003e	03 45 fc	 add	 eax, DWORD PTR _value$576518[ebp]
  00041	39 45 0c	 cmp	 DWORD PTR _dwCurTime$[ebp], eax
  00044	73 24		 jae	 SHORT $LN2@OnPulling

; 269  : 			{
; 270  : 				CheckTargetList( pOwner, pStage );

  00046	ff 75 10	 push	 DWORD PTR _pStage$[ebp]
  00049	8b ce		 mov	 ecx, esi
  0004b	57		 push	 edi
  0004c	e8 00 00 00 00	 call	 ?CheckTargetList@ioPullWeapon2@@QAEXPAVioBaseChar@@PAVioPlayStage@@@Z ; ioPullWeapon2::CheckTargetList

; 271  : 				SetTargetBuff( pOwner, pStage );

  00051	ff 75 10	 push	 DWORD PTR _pStage$[ebp]
  00054	8b ce		 mov	 ecx, esi
  00056	57		 push	 edi
  00057	e8 00 00 00 00	 call	 ?SetTargetBuff@ioPullWeapon2@@QAEXPAVioBaseChar@@PAVioPlayStage@@@Z ; ioPullWeapon2::SetTargetBuff

; 272  : 			}
; 273  : 		}
; 274  : 		else

  0005c	eb 0c		 jmp	 SHORT $LN2@OnPulling
$LN7@OnPulling:

; 275  : 		{
; 276  : 			SetWeaponDead();
; 277  : 		}
; 278  : 	}
; 279  : 	else if( m_dwPullingEndTime < dwCurTime )

  0005e	3b 45 0c	 cmp	 eax, DWORD PTR _dwCurTime$[ebp]
$LN15@OnPulling:
  00061	73 07		 jae	 SHORT $LN2@OnPulling
$LN6@OnPulling:

; 280  : 	{
; 281  : 		SetWeaponDead();

  00063	8b 06		 mov	 eax, DWORD PTR [esi]
  00065	8b ce		 mov	 ecx, esi
  00067	ff 50 4c	 call	 DWORD PTR [eax+76]
$LN2@OnPulling:

; 282  : 	}
; 283  : 
; 284  : 	if( m_pMesh )

  0006a	8d 8e f4 08 00
	00		 lea	 ecx, DWORD PTR [esi+2292]
  00070	83 39 00	 cmp	 DWORD PTR [ecx], 0
  00073	5f		 pop	 edi
  00074	5e		 pop	 esi
  00075	74 2c		 je	 SHORT $LN1@OnPulling

; 285  : 	{
; 286  : 		m_pMesh->Update( fTimePerSec * FLOAT1000 );

  00077	b8 e8 03 00 00	 mov	 eax, 1000		; 000003e8H
  0007c	8b 09		 mov	 ecx, DWORD PTR [ecx]
  0007e	83 c1 14	 add	 ecx, 20			; 00000014H
  00081	8b 11		 mov	 edx, DWORD PTR [ecx]
  00083	89 45 0c	 mov	 DWORD PTR tv222[ebp], eax
  00086	db 45 0c	 fild	 DWORD PTR tv222[ebp]
  00089	85 c0		 test	 eax, eax
  0008b	79 06		 jns	 SHORT $LN14@OnPulling
  0008d	d8 05 00 00 00
	00		 fadd	 DWORD PTR __real@4f800000
$LN14@OnPulling:
  00093	d8 4d 08	 fmul	 DWORD PTR _fTimePerSec$[ebp]
  00096	51		 push	 ecx
  00097	d9 5d 0c	 fstp	 DWORD PTR tv219[ebp]
  0009a	d9 45 0c	 fld	 DWORD PTR tv219[ebp]
  0009d	d9 1c 24	 fstp	 DWORD PTR [esp]
  000a0	ff 52 40	 call	 DWORD PTR [edx+64]
$LN1@OnPulling:

; 287  : 	}
; 288  : }

  000a3	c9		 leave
  000a4	c2 0c 00	 ret	 12			; 0000000cH
?OnPulling@ioPullWeapon2@@QAEXMKPAVioPlayStage@@@Z ENDP	; ioPullWeapon2::OnPulling
; Function compile flags: /Ogsp
_TEXT	ENDS
;	COMDAT ?Process@ioPullWeapon2@@UAEXMPAVioPlayStage@@@Z
_TEXT	SEGMENT
_fTimePerSec$ = 8					; size = 4
_pStage$ = 12						; size = 4
?Process@ioPullWeapon2@@UAEXMPAVioPlayStage@@@Z PROC	; ioPullWeapon2::Process, COMDAT
; _this$ = ecx

; 201  : {

  00000	55		 push	 ebp
  00001	8b ec		 mov	 ebp, esp
  00003	56		 push	 esi
  00004	8b f1		 mov	 esi, ecx

; 202  : 	DWORD dwCurTime = FRAMEGETTIME();

  00006	ff 15 00 00 00
	00		 call	 DWORD PTR __imp_?GetSingleton@ioFrameTimer@@SAAAV1@XZ
  0000c	8b c8		 mov	 ecx, eax
  0000e	ff 15 00 00 00
	00		 call	 DWORD PTR __imp_?GetLoopSec@ioFrameTimer@@QBEKXZ

; 203  : 
; 204  : 	switch( m_State )

  00014	8b 8e 94 08 00
	00		 mov	 ecx, DWORD PTR [esi+2196]
  0001a	83 e9 00	 sub	 ecx, 0
  0001d	f3 0f 10 45 08	 movss	 xmm0, DWORD PTR _fTimePerSec$[ebp]
  00022	74 38		 je	 SHORT $LN4@Process
  00024	49		 dec	 ecx
  00025	74 22		 je	 SHORT $LN3@Process
  00027	49		 dec	 ecx
  00028	74 0c		 je	 SHORT $LN2@Process
  0002a	49		 dec	 ecx
  0002b	75 39		 jne	 SHORT $LN5@Process

; 221  : 	case CS_END:
; 222  : 		SetWeaponDead();

  0002d	8b 06		 mov	 eax, DWORD PTR [esi]
  0002f	8b ce		 mov	 ecx, esi
  00031	ff 50 4c	 call	 DWORD PTR [eax+76]
  00034	eb 30		 jmp	 SHORT $LN5@Process
$LN2@Process:

; 216  : 	case CS_PULLING:
; 217  : 		{
; 218  : 			OnPulling( fTimePerSec, dwCurTime, pStage );

  00036	ff 75 0c	 push	 DWORD PTR _pStage$[ebp]
  00039	50		 push	 eax
  0003a	51		 push	 ecx
  0003b	8b ce		 mov	 ecx, esi
  0003d	f3 0f 11 04 24	 movss	 DWORD PTR [esp], xmm0
  00042	e8 00 00 00 00	 call	 ?OnPulling@ioPullWeapon2@@QAEXMKPAVioPlayStage@@@Z ; ioPullWeapon2::OnPulling

; 219  : 		}
; 220  : 		break;

  00047	eb 1d		 jmp	 SHORT $LN5@Process
$LN3@Process:

; 209  : 		}
; 210  : 		break;
; 211  : 	case CS_FLOATING:
; 212  : 		{
; 213  : 			OnFloating( fTimePerSec, dwCurTime, pStage );

  00049	ff 75 0c	 push	 DWORD PTR _pStage$[ebp]
  0004c	50		 push	 eax
  0004d	51		 push	 ecx
  0004e	8b ce		 mov	 ecx, esi
  00050	f3 0f 11 04 24	 movss	 DWORD PTR [esp], xmm0
  00055	e8 00 00 00 00	 call	 ?OnFloating@ioPullWeapon2@@QAEXMKPAVioPlayStage@@@Z ; ioPullWeapon2::OnFloating

; 214  : 		}
; 215  : 		break;

  0005a	eb 0a		 jmp	 SHORT $LN5@Process
$LN4@Process:

; 205  : 	{
; 206  : 	case CS_PRE:
; 207  : 		{
; 208  : 			m_State = CS_FLOATING;

  0005c	c7 86 94 08 00
	00 01 00 00 00	 mov	 DWORD PTR [esi+2196], 1
$LN5@Process:

; 223  : 	}
; 224  : 
; 225  : 	UpdateWorldAttackBox( fTimePerSec, false );

  00066	f3 0f 10 45 08	 movss	 xmm0, DWORD PTR _fTimePerSec$[ebp]
  0006b	8b 06		 mov	 eax, DWORD PTR [esi]
  0006d	6a 00		 push	 0
  0006f	51		 push	 ecx
  00070	8b ce		 mov	 ecx, esi
  00072	f3 0f 11 04 24	 movss	 DWORD PTR [esp], xmm0
  00077	ff 90 38 01 00
	00		 call	 DWORD PTR [eax+312]
  0007d	5e		 pop	 esi

; 226  : }

  0007e	5d		 pop	 ebp
  0007f	c2 08 00	 ret	 8
?Process@ioPullWeapon2@@UAEXMPAVioPlayStage@@@Z ENDP	; ioPullWeapon2::Process
_TEXT	ENDS
END
