; Listing generated by Microsoft (R) Optimizing Compiler Version 16.00.30319.01 

	TITLE	D:\Lost Saga For Developer\Youtube\Tutorial\Source\src\LSClient\GUI\ioPullDownList.cpp
	.686P
	.XMM
	include listing.inc
	.model	flat

INCLUDELIB MSVCRT
INCLUDELIB OLDNAMES

PUBLIC	??0PullDownInnerImage@@QAE@XZ			; PullDownInnerImage::PullDownInnerImage
; Function compile flags: /Ogsp
; File d:\lost saga for developer\youtube\tutorial\source\src\lsclient\gui\iopulldownitemfactory.h
;	COMDAT ??0PullDownInnerImage@@QAE@XZ
_TEXT	SEGMENT
??0PullDownInnerImage@@QAE@XZ PROC			; PullDownInnerImage::PullDownInnerImage, COMDAT
; _this$ = ecx

; 35   : 	PullDownInnerImage()

  00000	8b c1		 mov	 eax, ecx

; 36   : 	{
; 37   : 		m_pImage				= NULL;

  00002	33 c9		 xor	 ecx, ecx
  00004	89 08		 mov	 DWORD PTR [eax], ecx

; 38   : 		m_dwColor				= 0;

  00006	89 48 04	 mov	 DWORD PTR [eax+4], ecx

; 39   : 		m_dwOverColor			= 0;

  00009	89 48 08	 mov	 DWORD PTR [eax+8], ecx

; 40   : 		m_bManagedImageByItem	= false;

  0000c	88 48 0c	 mov	 BYTE PTR [eax+12], cl

; 41   : 		m_iXPos					= 0;

  0000f	89 48 14	 mov	 DWORD PTR [eax+20], ecx

; 42   : 		m_iYPos					= 0;

  00012	89 48 18	 mov	 DWORD PTR [eax+24], ecx

; 43   : 		m_eRenderType			= UI_RENDER_NORMAL;

  00015	89 48 10	 mov	 DWORD PTR [eax+16], ecx

; 44   : 	}

  00018	c3		 ret	 0
??0PullDownInnerImage@@QAE@XZ ENDP			; PullDownInnerImage::PullDownInnerImage
_TEXT	ENDS
PUBLIC	??_7bad_alloc@std@@6B@				; std::bad_alloc::`vftable'
PUBLIC	??0bad_alloc@std@@QAE@PBD@Z			; std::bad_alloc::bad_alloc
PUBLIC	??_R4bad_alloc@std@@6B@				; std::bad_alloc::`RTTI Complete Object Locator'
PUBLIC	??_R0?AVbad_alloc@std@@@8			; std::bad_alloc `RTTI Type Descriptor'
PUBLIC	??_R3bad_alloc@std@@8				; std::bad_alloc::`RTTI Class Hierarchy Descriptor'
PUBLIC	??_R2bad_alloc@std@@8				; std::bad_alloc::`RTTI Base Class Array'
PUBLIC	??_R1A@?0A@EA@bad_alloc@std@@8			; std::bad_alloc::`RTTI Base Class Descriptor at (0,-1,0,64)'
PUBLIC	??_R1A@?0A@EA@exception@std@@8			; std::exception::`RTTI Base Class Descriptor at (0,-1,0,64)'
PUBLIC	??_R0?AVexception@std@@@8			; std::exception `RTTI Type Descriptor'
PUBLIC	??_R3exception@std@@8				; std::exception::`RTTI Class Hierarchy Descriptor'
PUBLIC	??_R2exception@std@@8				; std::exception::`RTTI Base Class Array'
EXTRN	__imp_??0exception@std@@QAE@ABQBD@Z:PROC
EXTRN	??_7type_info@@6B@:QWORD			; type_info::`vftable'
EXTRN	??_Ebad_alloc@std@@UAEPAXI@Z:PROC		; std::bad_alloc::`vector deleting destructor'
EXTRN	?what@exception@std@@UBEPBDXZ:PROC		; std::exception::what
;	COMDAT ??_R2exception@std@@8
; File c:\program files (x86)\microsoft visual studio 10.0\vc\include\exception
rdata$r	SEGMENT
??_R2exception@std@@8 DD FLAT:??_R1A@?0A@EA@exception@std@@8 ; std::exception::`RTTI Base Class Array'
rdata$r	ENDS
;	COMDAT ??_R3exception@std@@8
rdata$r	SEGMENT
??_R3exception@std@@8 DD 00H				; std::exception::`RTTI Class Hierarchy Descriptor'
	DD	00H
	DD	01H
	DD	FLAT:??_R2exception@std@@8
rdata$r	ENDS
;	COMDAT ??_R0?AVexception@std@@@8
_DATA	SEGMENT
??_R0?AVexception@std@@@8 DD FLAT:??_7type_info@@6B@	; std::exception `RTTI Type Descriptor'
	DD	00H
	DB	'.?AVexception@std@@', 00H
_DATA	ENDS
;	COMDAT ??_R1A@?0A@EA@exception@std@@8
rdata$r	SEGMENT
??_R1A@?0A@EA@exception@std@@8 DD FLAT:??_R0?AVexception@std@@@8 ; std::exception::`RTTI Base Class Descriptor at (0,-1,0,64)'
	DD	00H
	DD	00H
	DD	0ffffffffH
	DD	00H
	DD	040H
	DD	FLAT:??_R3exception@std@@8
rdata$r	ENDS
;	COMDAT ??_R1A@?0A@EA@bad_alloc@std@@8
rdata$r	SEGMENT
??_R1A@?0A@EA@bad_alloc@std@@8 DD FLAT:??_R0?AVbad_alloc@std@@@8 ; std::bad_alloc::`RTTI Base Class Descriptor at (0,-1,0,64)'
	DD	01H
	DD	00H
	DD	0ffffffffH
	DD	00H
	DD	040H
	DD	FLAT:??_R3bad_alloc@std@@8
rdata$r	ENDS
;	COMDAT ??_R2bad_alloc@std@@8
rdata$r	SEGMENT
??_R2bad_alloc@std@@8 DD FLAT:??_R1A@?0A@EA@bad_alloc@std@@8 ; std::bad_alloc::`RTTI Base Class Array'
	DD	FLAT:??_R1A@?0A@EA@exception@std@@8
rdata$r	ENDS
;	COMDAT ??_R3bad_alloc@std@@8
rdata$r	SEGMENT
??_R3bad_alloc@std@@8 DD 00H				; std::bad_alloc::`RTTI Class Hierarchy Descriptor'
	DD	00H
	DD	02H
	DD	FLAT:??_R2bad_alloc@std@@8
rdata$r	ENDS
;	COMDAT ??_R0?AVbad_alloc@std@@@8
_DATA	SEGMENT
??_R0?AVbad_alloc@std@@@8 DD FLAT:??_7type_info@@6B@	; std::bad_alloc `RTTI Type Descriptor'
	DD	00H
	DB	'.?AVbad_alloc@std@@', 00H
_DATA	ENDS
;	COMDAT ??_R4bad_alloc@std@@6B@
rdata$r	SEGMENT
??_R4bad_alloc@std@@6B@ DD 00H				; std::bad_alloc::`RTTI Complete Object Locator'
	DD	00H
	DD	00H
	DD	FLAT:??_R0?AVbad_alloc@std@@@8
	DD	FLAT:??_R3bad_alloc@std@@8
rdata$r	ENDS
;	COMDAT ??_7bad_alloc@std@@6B@
CONST	SEGMENT
??_7bad_alloc@std@@6B@ DD FLAT:??_R4bad_alloc@std@@6B@	; std::bad_alloc::`vftable'
	DD	FLAT:??_Ebad_alloc@std@@UAEPAXI@Z
	DD	FLAT:?what@exception@std@@UBEPBDXZ
; Function compile flags: /Ogsp
CONST	ENDS
;	COMDAT ??0bad_alloc@std@@QAE@PBD@Z
_TEXT	SEGMENT
__Message$ = 8						; size = 4
??0bad_alloc@std@@QAE@PBD@Z PROC			; std::bad_alloc::bad_alloc, COMDAT
; _this$ = ecx

; 345  : 		{	// construct from message string

  00000	55		 push	 ebp
  00001	8b ec		 mov	 ebp, esp
  00003	56		 push	 esi
  00004	8d 45 08	 lea	 eax, DWORD PTR __Message$[ebp]
  00007	50		 push	 eax
  00008	8b f1		 mov	 esi, ecx
  0000a	ff 15 00 00 00
	00		 call	 DWORD PTR __imp_??0exception@std@@QAE@ABQBD@Z
  00010	c7 06 00 00 00
	00		 mov	 DWORD PTR [esi], OFFSET ??_7bad_alloc@std@@6B@

; 346  : 		}

  00016	8b c6		 mov	 eax, esi
  00018	5e		 pop	 esi
  00019	5d		 pop	 ebp
  0001a	c2 04 00	 ret	 4
??0bad_alloc@std@@QAE@PBD@Z ENDP			; std::bad_alloc::bad_alloc
_TEXT	ENDS
PUBLIC	??1bad_alloc@std@@UAE@XZ			; std::bad_alloc::~bad_alloc
EXTRN	__imp_??1exception@std@@UAE@XZ:PROC
; Function compile flags: /Ogsp
;	COMDAT ??1bad_alloc@std@@UAE@XZ
_TEXT	SEGMENT
??1bad_alloc@std@@UAE@XZ PROC				; std::bad_alloc::~bad_alloc, COMDAT
; _this$ = ecx

; 354  : 		{	// destroy the object

  00000	c7 01 00 00 00
	00		 mov	 DWORD PTR [ecx], OFFSET ??_7bad_alloc@std@@6B@

; 355  : 		}

  00006	ff 25 00 00 00
	00		 jmp	 DWORD PTR __imp_??1exception@std@@UAE@XZ
??1bad_alloc@std@@UAE@XZ ENDP				; std::bad_alloc::~bad_alloc
_TEXT	ENDS
EXTRN	??3@YAXPAX@Z:PROC				; operator delete
; Function compile flags: /Ogsp
;	COMDAT ??_Gbad_alloc@std@@UAEPAXI@Z
_TEXT	SEGMENT
___flags$ = 8						; size = 4
??_Gbad_alloc@std@@UAEPAXI@Z PROC			; std::bad_alloc::`scalar deleting destructor', COMDAT
; _this$ = ecx
  00000	55		 push	 ebp
  00001	8b ec		 mov	 ebp, esp
  00003	56		 push	 esi
  00004	8b f1		 mov	 esi, ecx
  00006	c7 06 00 00 00
	00		 mov	 DWORD PTR [esi], OFFSET ??_7bad_alloc@std@@6B@
  0000c	ff 15 00 00 00
	00		 call	 DWORD PTR __imp_??1exception@std@@UAE@XZ
  00012	f6 45 08 01	 test	 BYTE PTR ___flags$[ebp], 1
  00016	74 07		 je	 SHORT $LN1@scalar
  00018	56		 push	 esi
  00019	e8 00 00 00 00	 call	 ??3@YAXPAX@Z		; operator delete
  0001e	59		 pop	 ecx
$LN1@scalar:
  0001f	8b c6		 mov	 eax, esi
  00021	5e		 pop	 esi
  00022	5d		 pop	 ebp
  00023	c2 04 00	 ret	 4
??_Gbad_alloc@std@@UAEPAXI@Z ENDP			; std::bad_alloc::`scalar deleting destructor'
_TEXT	ENDS
PUBLIC	??2@YAPAXIPAX@Z					; operator new
; Function compile flags: /Ogsp
; File c:\program files (x86)\microsoft visual studio 10.0\vc\include\new
;	COMDAT ??2@YAPAXIPAX@Z
_TEXT	SEGMENT
___formal$ = 8						; size = 4
__Where$ = 12						; size = 4
??2@YAPAXIPAX@Z PROC					; operator new, COMDAT

; 56   : 	{	// construct array with placement at _Where

  00000	55		 push	 ebp
  00001	8b ec		 mov	 ebp, esp

; 57   : 	return (_Where);

  00003	8b 45 0c	 mov	 eax, DWORD PTR __Where$[ebp]

; 58   : 	}

  00006	5d		 pop	 ebp
  00007	c3		 ret	 0
??2@YAPAXIPAX@Z ENDP					; operator new
_TEXT	ENDS
PUBLIC	??3@YAXPAX0@Z					; operator delete
; Function compile flags: /Ogsp
;	COMDAT ??3@YAXPAX0@Z
_TEXT	SEGMENT
___formal$ = 8						; size = 4
___formal$ = 12						; size = 4
??3@YAXPAX0@Z PROC					; operator delete, COMDAT

; 62   : 	}

  00000	c3		 ret	 0
??3@YAXPAX0@Z ENDP					; operator delete
_TEXT	ENDS
PUBLIC	??_C@_05IHAFCALK@Style?$AA@			; `string'
PUBLIC	??_C@_0L@JEHFNDOA@ListHeight?$AA@		; `string'
PUBLIC	??_C@_0M@DFCAMEIO@BlankHeight?$AA@		; `string'
PUBLIC	??_C@_0L@BJHOFJLG@BlankWidth?$AA@		; `string'
PUBLIC	??_C@_0M@OANAGJPB@MaxPageList?$AA@		; `string'
PUBLIC	?ParsePullDown@ioPullDownList@@QAEXAAVioXMLElement@@@Z ; ioPullDownList::ParsePullDown
EXTRN	__imp_?GetIntAttribute@ioXMLElement@@QBEHPBD@Z:PROC
;	COMDAT ??_C@_05IHAFCALK@Style?$AA@
; File d:\lost saga for developer\youtube\tutorial\source\src\lsclient\gui\iopulldownlist.cpp
CONST	SEGMENT
??_C@_05IHAFCALK@Style?$AA@ DB 'Style', 00H		; `string'
CONST	ENDS
;	COMDAT ??_C@_0L@JEHFNDOA@ListHeight?$AA@
CONST	SEGMENT
??_C@_0L@JEHFNDOA@ListHeight?$AA@ DB 'ListHeight', 00H	; `string'
CONST	ENDS
;	COMDAT ??_C@_0M@DFCAMEIO@BlankHeight?$AA@
CONST	SEGMENT
??_C@_0M@DFCAMEIO@BlankHeight?$AA@ DB 'BlankHeight', 00H ; `string'
CONST	ENDS
;	COMDAT ??_C@_0L@BJHOFJLG@BlankWidth?$AA@
CONST	SEGMENT
??_C@_0L@BJHOFJLG@BlankWidth?$AA@ DB 'BlankWidth', 00H	; `string'
CONST	ENDS
;	COMDAT ??_C@_0M@OANAGJPB@MaxPageList?$AA@
CONST	SEGMENT
??_C@_0M@OANAGJPB@MaxPageList?$AA@ DB 'MaxPageList', 00H ; `string'
; Function compile flags: /Ogsp
CONST	ENDS
;	COMDAT ?ParsePullDown@ioPullDownList@@QAEXAAVioXMLElement@@@Z
_TEXT	SEGMENT
_xElement$ = 8						; size = 4
?ParsePullDown@ioPullDownList@@QAEXAAVioXMLElement@@@Z PROC ; ioPullDownList::ParsePullDown, COMDAT
; _this$ = ecx

; 88   : {

  00000	55		 push	 ebp
  00001	8b ec		 mov	 ebp, esp
  00003	53		 push	 ebx

; 89   : 	m_iMaxPageList		= xElement.GetIntAttribute( "MaxPageList" );							//풀다운 박스 Element 최대 갯수, 최대 갯수를 넘어가면 스크롤바가 Show됨

  00004	8b 5d 08	 mov	 ebx, DWORD PTR _xElement$[ebp]
  00007	56		 push	 esi
  00008	8b 35 00 00 00
	00		 mov	 esi, DWORD PTR __imp_?GetIntAttribute@ioXMLElement@@QBEHPBD@Z
  0000e	57		 push	 edi
  0000f	8b f9		 mov	 edi, ecx
  00011	68 00 00 00 00	 push	 OFFSET ??_C@_0M@OANAGJPB@MaxPageList?$AA@
  00016	8b cb		 mov	 ecx, ebx
  00018	ff d6		 call	 esi

; 90   : 	m_iBlankWidth		= xElement.GetIntAttribute( "BlankWidth" );								//PullDownItem의 시작 X 위치

  0001a	68 00 00 00 00	 push	 OFFSET ??_C@_0L@BJHOFJLG@BlankWidth?$AA@
  0001f	8b cb		 mov	 ecx, ebx
  00021	89 87 80 01 00
	00		 mov	 DWORD PTR [edi+384], eax
  00027	ff d6		 call	 esi

; 91   : 	m_iBlankHeight		= xElement.GetIntAttribute( "BlankHeight" );							//PullDownItem의 시작 Y 위치	

  00029	68 00 00 00 00	 push	 OFFSET ??_C@_0M@DFCAMEIO@BlankHeight?$AA@
  0002e	8b cb		 mov	 ecx, ebx
  00030	89 87 74 01 00
	00		 mov	 DWORD PTR [edi+372], eax
  00036	ff d6		 call	 esi

; 92   : 	m_iListHeight		= xElement.GetIntAttribute( "ListHeight" );								//PullDownItem의 높이값	

  00038	68 00 00 00 00	 push	 OFFSET ??_C@_0L@JEHFNDOA@ListHeight?$AA@
  0003d	8b cb		 mov	 ecx, ebx
  0003f	89 87 78 01 00
	00		 mov	 DWORD PTR [edi+376], eax
  00045	ff d6		 call	 esi

; 93   : 	m_ePullDownStyle	= static_cast<PullDownStyle>( xElement.GetIntAttribute( "Style" ) );	//풀다운 펼침 스타일 지정	

  00047	68 00 00 00 00	 push	 OFFSET ??_C@_05IHAFCALK@Style?$AA@
  0004c	8b cb		 mov	 ecx, ebx
  0004e	89 87 7c 01 00
	00		 mov	 DWORD PTR [edi+380], eax
  00054	ff d6		 call	 esi
  00056	89 87 60 01 00
	00		 mov	 DWORD PTR [edi+352], eax
  0005c	5f		 pop	 edi
  0005d	5e		 pop	 esi
  0005e	5b		 pop	 ebx

; 94   : }

  0005f	5d		 pop	 ebp
  00060	c2 04 00	 ret	 4
?ParsePullDown@ioPullDownList@@QAEXAAVioXMLElement@@@Z ENDP ; ioPullDownList::ParsePullDown
_TEXT	ENDS
PUBLIC	?iwm_show@ioPullDownList@@UAEXXZ		; ioPullDownList::iwm_show
EXTRN	__imp_?SetCheckParentOutSide@ioWnd@@QAEX_N@Z:PROC
; Function compile flags: /Ogsp
;	COMDAT ?iwm_show@ioPullDownList@@UAEXXZ
_TEXT	SEGMENT
?iwm_show@ioPullDownList@@UAEXXZ PROC			; ioPullDownList::iwm_show, COMDAT
; _this$ = ecx

; 150  : 	SetCheckParentOutSide( true );

  00000	6a 01		 push	 1
  00002	ff 15 00 00 00
	00		 call	 DWORD PTR __imp_?SetCheckParentOutSide@ioWnd@@QAEX_N@Z

; 151  : }

  00008	c3		 ret	 0
?iwm_show@ioPullDownList@@UAEXXZ ENDP			; ioPullDownList::iwm_show
_TEXT	ENDS
PUBLIC	?iwm_wheel@ioPullDownList@@UAEXH@Z		; ioPullDownList::iwm_wheel
EXTRN	__imp_?FindChildWnd@ioWnd@@QAEPAV1@K@Z:PROC
EXTRN	?IsMouseBusy@ioApplication@@QAE_NXZ:PROC	; ioApplication::IsMouseBusy
EXTRN	?GetSingleton@ioApplication@@SAAAV1@XZ:PROC	; ioApplication::GetSingleton
EXTRN	__imp_?iwm_wheel@ioWnd@@UAEXH@Z:PROC
EXTRN	__imp_?IsShow@ioWnd@@QBE_NXZ:PROC
; Function compile flags: /Ogsp
;	COMDAT ?iwm_wheel@ioPullDownList@@UAEXH@Z
_TEXT	SEGMENT
_zDelta$ = 8						; size = 4
?iwm_wheel@ioPullDownList@@UAEXH@Z PROC			; ioPullDownList::iwm_wheel, COMDAT
; _this$ = ecx

; 164  : {

  00000	55		 push	 ebp
  00001	8b ec		 mov	 ebp, esp
  00003	57		 push	 edi
  00004	8b f9		 mov	 edi, ecx

; 165  : 	if( !IsShow() )

  00006	ff 15 00 00 00
	00		 call	 DWORD PTR __imp_?IsShow@ioWnd@@QBE_NXZ
  0000c	84 c0		 test	 al, al
  0000e	75 0d		 jne	 SHORT $LN8@iwm_wheel

; 166  : 	{
; 167  : 		ioWnd::iwm_wheel( zDelta );

  00010	ff 75 08	 push	 DWORD PTR _zDelta$[ebp]
  00013	8b cf		 mov	 ecx, edi
  00015	ff 15 00 00 00
	00		 call	 DWORD PTR __imp_?iwm_wheel@ioWnd@@UAEXH@Z

; 168  : 	}
; 169  : 	else

  0001b	eb 58		 jmp	 SHORT $LN1@iwm_wheel
$LN8@iwm_wheel:

; 170  : 	{
; 171  : 		if( g_App.IsMouseBusy() )

  0001d	e8 00 00 00 00	 call	 ?GetSingleton@ioApplication@@SAAAV1@XZ ; ioApplication::GetSingleton
  00022	8b c8		 mov	 ecx, eax
  00024	e8 00 00 00 00	 call	 ?IsMouseBusy@ioApplication@@QAE_NXZ ; ioApplication::IsMouseBusy
  00029	84 c0		 test	 al, al
  0002b	75 48		 jne	 SHORT $LN1@iwm_wheel

; 172  : 			return;
; 173  : 
; 174  : 		ioScroll *pScroll = (ioScroll*)FindChildWnd( ID_VERT_SCROLL );

  0002d	56		 push	 esi
  0002e	68 e8 03 00 00	 push	 1000			; 000003e8H
  00033	8b cf		 mov	 ecx, edi
  00035	ff 15 00 00 00
	00		 call	 DWORD PTR __imp_?FindChildWnd@ioWnd@@QAEPAV1@K@Z
  0003b	8b f0		 mov	 esi, eax

; 175  : 		if( pScroll == NULL )

  0003d	85 f6		 test	 esi, esi
  0003f	74 33		 je	 SHORT $LN11@iwm_wheel

; 176  : 			return;
; 177  : 
; 178  : 		if( !pScroll->IsShow() )

  00041	8b ce		 mov	 ecx, esi
  00043	ff 15 00 00 00
	00		 call	 DWORD PTR __imp_?IsShow@ioWnd@@QBE_NXZ
  00049	84 c0		 test	 al, al
  0004b	74 27		 je	 SHORT $LN11@iwm_wheel

; 179  : 			return;
; 180  : 
; 181  : 		if( zDelta == WHEEL_DELTA )

  0004d	83 7d 08 78	 cmp	 DWORD PTR _zDelta$[ebp], 120 ; 00000078H
  00051	75 09		 jne	 SHORT $LN3@iwm_wheel

; 182  : 			pScroll->SetScrollPos( m_iCurPos - 1 );

  00053	8b 8f 88 01 00
	00		 mov	 ecx, DWORD PTR [edi+392]
  00059	49		 dec	 ecx
  0005a	eb 0d		 jmp	 SHORT $LN12@iwm_wheel
$LN3@iwm_wheel:

; 183  : 		else if( zDelta == -WHEEL_DELTA )

  0005c	83 7d 08 88	 cmp	 DWORD PTR _zDelta$[ebp], -120 ; ffffff88H
  00060	75 12		 jne	 SHORT $LN11@iwm_wheel

; 184  : 			pScroll->SetScrollPos( m_iCurPos + 1 );

  00062	8b 8f 88 01 00
	00		 mov	 ecx, DWORD PTR [edi+392]
  00068	41		 inc	 ecx
$LN12@iwm_wheel:
  00069	8b 06		 mov	 eax, DWORD PTR [esi]
  0006b	51		 push	 ecx
  0006c	8b ce		 mov	 ecx, esi
  0006e	ff 90 38 01 00
	00		 call	 DWORD PTR [eax+312]
$LN11@iwm_wheel:
  00074	5e		 pop	 esi
$LN1@iwm_wheel:
  00075	5f		 pop	 edi

; 185  : 	}
; 186  : }

  00076	5d		 pop	 ebp
  00077	c2 04 00	 ret	 4
?iwm_wheel@ioPullDownList@@UAEXH@Z ENDP			; ioPullDownList::iwm_wheel
_TEXT	ENDS
PUBLIC	?iwm_vscroll@ioPullDownList@@UAEXKH@Z		; ioPullDownList::iwm_vscroll
EXTRN	?Layout@ioPullDownItemFactory@@QAEXPAVioPullDownList@@W4PullDownStyle@@@Z:PROC ; ioPullDownItemFactory::Layout
EXTRN	?GetSingleton@ioPullDownItemFactory@@SAAAV1@XZ:PROC ; ioPullDownItemFactory::GetSingleton
; Function compile flags: /Ogsp
;	COMDAT ?iwm_vscroll@ioPullDownList@@UAEXKH@Z
_TEXT	SEGMENT
_dwID$ = 8						; size = 4
_curPos$ = 12						; size = 4
?iwm_vscroll@ioPullDownList@@UAEXKH@Z PROC		; ioPullDownList::iwm_vscroll, COMDAT
; _this$ = ecx

; 189  : {

  00000	55		 push	 ebp
  00001	8b ec		 mov	 ebp, esp
  00003	56		 push	 esi

; 190  : 	ioScroll *pScroll = (ioScroll*)FindChildWnd( ID_VERT_SCROLL );

  00004	68 e8 03 00 00	 push	 1000			; 000003e8H
  00009	8b f1		 mov	 esi, ecx
  0000b	ff 15 00 00 00
	00		 call	 DWORD PTR __imp_?FindChildWnd@ioWnd@@QAEPAV1@K@Z

; 191  : 	if( pScroll == NULL )

  00011	85 c0		 test	 eax, eax
  00013	74 28		 je	 SHORT $LN3@iwm_vscrol

; 192  : 		return;
; 193  : 
; 194  : 	if( !pScroll->IsShow() )

  00015	8b c8		 mov	 ecx, eax
  00017	ff 15 00 00 00
	00		 call	 DWORD PTR __imp_?IsShow@ioWnd@@QBE_NXZ
  0001d	84 c0		 test	 al, al
  0001f	74 1c		 je	 SHORT $LN3@iwm_vscrol

; 195  : 		return;
; 196  : 
; 197  : 	m_iCurPos = curPos;
; 198  : 	g_PullDownFactory.Layout( this, m_ePullDownStyle );

  00021	ff b6 60 01 00
	00		 push	 DWORD PTR [esi+352]
  00027	8b 45 0c	 mov	 eax, DWORD PTR _curPos$[ebp]
  0002a	56		 push	 esi
  0002b	89 86 88 01 00
	00		 mov	 DWORD PTR [esi+392], eax
  00031	e8 00 00 00 00	 call	 ?GetSingleton@ioPullDownItemFactory@@SAAAV1@XZ ; ioPullDownItemFactory::GetSingleton
  00036	8b c8		 mov	 ecx, eax
  00038	e8 00 00 00 00	 call	 ?Layout@ioPullDownItemFactory@@QAEXPAVioPullDownList@@W4PullDownStyle@@@Z ; ioPullDownItemFactory::Layout
$LN3@iwm_vscrol:
  0003d	5e		 pop	 esi

; 199  : }

  0003e	5d		 pop	 ebp
  0003f	c2 08 00	 ret	 8
?iwm_vscroll@ioPullDownList@@UAEXKH@Z ENDP		; ioPullDownList::iwm_vscroll
_TEXT	ENDS
PUBLIC	?_Adopt@_Iterator_base0@std@@QAEXPBX@Z		; std::_Iterator_base0::_Adopt
; Function compile flags: /Ogsp
; File c:\program files (x86)\microsoft visual studio 10.0\vc\include\xutility
;	COMDAT ?_Adopt@_Iterator_base0@std@@QAEXPBX@Z
_TEXT	SEGMENT
___formal$ = 8						; size = 4
?_Adopt@_Iterator_base0@std@@QAEXPBX@Z PROC		; std::_Iterator_base0::_Adopt, COMDAT
; _this$ = ecx

; 49   : 		}

  00000	c2 04 00	 ret	 4
?_Adopt@_Iterator_base0@std@@QAEXPBX@Z ENDP		; std::_Iterator_base0::_Adopt
_TEXT	ENDS
PUBLIC	?size@?$vector@PAVioPullDownItem@@V?$allocator@PAVioPullDownItem@@@std@@@std@@QBEIXZ ; std::vector<ioPullDownItem *,std::allocator<ioPullDownItem *> >::size
; Function compile flags: /Ogsp
; File c:\program files (x86)\microsoft visual studio 10.0\vc\include\vector
;	COMDAT ?size@?$vector@PAVioPullDownItem@@V?$allocator@PAVioPullDownItem@@@std@@@std@@QBEIXZ
_TEXT	SEGMENT
?size@?$vector@PAVioPullDownItem@@V?$allocator@PAVioPullDownItem@@@std@@@std@@QBEIXZ PROC ; std::vector<ioPullDownItem *,std::allocator<ioPullDownItem *> >::size, COMDAT
; _this$ = ecx

; 879  : 		return (this->_Mylast - this->_Myfirst);

  00000	8b 41 04	 mov	 eax, DWORD PTR [ecx+4]
  00003	2b 01		 sub	 eax, DWORD PTR [ecx]
  00005	c1 f8 02	 sar	 eax, 2

; 880  : 		}

  00008	c3		 ret	 0
?size@?$vector@PAVioPullDownItem@@V?$allocator@PAVioPullDownItem@@@std@@@std@@QBEIXZ ENDP ; std::vector<ioPullDownItem *,std::allocator<ioPullDownItem *> >::size
_TEXT	ENDS
PUBLIC	?empty@?$vector@PAVioPullDownItem@@V?$allocator@PAVioPullDownItem@@@std@@@std@@QBE_NXZ ; std::vector<ioPullDownItem *,std::allocator<ioPullDownItem *> >::empty
; Function compile flags: /Ogsp
;	COMDAT ?empty@?$vector@PAVioPullDownItem@@V?$allocator@PAVioPullDownItem@@@std@@@std@@QBE_NXZ
_TEXT	SEGMENT
?empty@?$vector@PAVioPullDownItem@@V?$allocator@PAVioPullDownItem@@@std@@@std@@QBE_NXZ PROC ; std::vector<ioPullDownItem *,std::allocator<ioPullDownItem *> >::empty, COMDAT
; _this$ = ecx

; 889  : 		return (this->_Myfirst == this->_Mylast);

  00000	8b 01		 mov	 eax, DWORD PTR [ecx]
  00002	2b 41 04	 sub	 eax, DWORD PTR [ecx+4]
  00005	f7 d8		 neg	 eax
  00007	1b c0		 sbb	 eax, eax
  00009	40		 inc	 eax

; 890  : 		}

  0000a	c3		 ret	 0
?empty@?$vector@PAVioPullDownItem@@V?$allocator@PAVioPullDownItem@@@std@@@std@@QBE_NXZ ENDP ; std::vector<ioPullDownItem *,std::allocator<ioPullDownItem *> >::empty
_TEXT	ENDS
PUBLIC	??A?$vector@PAVioPullDownItem@@V?$allocator@PAVioPullDownItem@@@std@@@std@@QBEABQAVioPullDownItem@@I@Z ; std::vector<ioPullDownItem *,std::allocator<ioPullDownItem *> >::operator[]
; Function compile flags: /Ogsp
;	COMDAT ??A?$vector@PAVioPullDownItem@@V?$allocator@PAVioPullDownItem@@@std@@@std@@QBEABQAVioPullDownItem@@I@Z
_TEXT	SEGMENT
__Pos$ = 8						; size = 4
??A?$vector@PAVioPullDownItem@@V?$allocator@PAVioPullDownItem@@@std@@@std@@QBEABQAVioPullDownItem@@I@Z PROC ; std::vector<ioPullDownItem *,std::allocator<ioPullDownItem *> >::operator[], COMDAT
; _this$ = ecx

; 912  : 		{	// subscript nonmutable sequence

  00000	55		 push	 ebp
  00001	8b ec		 mov	 ebp, esp

; 913  :  #if _ITERATOR_DEBUG_LEVEL == 2
; 914  : 		if (size() <= _Pos)
; 915  : 			{	// report error
; 916  : 			_DEBUG_ERROR("vector subscript out of range");
; 917  : 			_SCL_SECURE_OUT_OF_RANGE;
; 918  : 			}
; 919  : 
; 920  :  #elif _ITERATOR_DEBUG_LEVEL == 1
; 921  : 		_SCL_SECURE_VALIDATE_RANGE(_Pos < size());
; 922  :  #endif /* _ITERATOR_DEBUG_LEVEL */
; 923  : 
; 924  : 		return (*(this->_Myfirst + _Pos));

  00003	8b 01		 mov	 eax, DWORD PTR [ecx]
  00005	8b 4d 08	 mov	 ecx, DWORD PTR __Pos$[ebp]
  00008	8d 04 88	 lea	 eax, DWORD PTR [eax+ecx*4]

; 925  : 		}

  0000b	5d		 pop	 ebp
  0000c	c2 04 00	 ret	 4
??A?$vector@PAVioPullDownItem@@V?$allocator@PAVioPullDownItem@@@std@@@std@@QBEABQAVioPullDownItem@@I@Z ENDP ; std::vector<ioPullDownItem *,std::allocator<ioPullDownItem *> >::operator[]
_TEXT	ENDS
PUBLIC	??A?$vector@PAVioPullDownItem@@V?$allocator@PAVioPullDownItem@@@std@@@std@@QAEAAPAVioPullDownItem@@I@Z ; std::vector<ioPullDownItem *,std::allocator<ioPullDownItem *> >::operator[]
; Function compile flags: /Ogsp
;	COMDAT ??A?$vector@PAVioPullDownItem@@V?$allocator@PAVioPullDownItem@@@std@@@std@@QAEAAPAVioPullDownItem@@I@Z
_TEXT	SEGMENT
__Pos$ = 8						; size = 4
??A?$vector@PAVioPullDownItem@@V?$allocator@PAVioPullDownItem@@@std@@@std@@QAEAAPAVioPullDownItem@@I@Z PROC ; std::vector<ioPullDownItem *,std::allocator<ioPullDownItem *> >::operator[], COMDAT
; _this$ = ecx

; 928  : 		{	// subscript mutable sequence

  00000	55		 push	 ebp
  00001	8b ec		 mov	 ebp, esp

; 929  :  #if _ITERATOR_DEBUG_LEVEL == 2
; 930  : 		if (size() <= _Pos)
; 931  : 			{	// report error
; 932  : 			_DEBUG_ERROR("vector subscript out of range");
; 933  : 			_SCL_SECURE_OUT_OF_RANGE;
; 934  : 			}
; 935  : 
; 936  :  #elif _ITERATOR_DEBUG_LEVEL == 1
; 937  : 		_SCL_SECURE_VALIDATE_RANGE(_Pos < size());
; 938  :  #endif /* _ITERATOR_DEBUG_LEVEL */
; 939  : 
; 940  : 		return (*(this->_Myfirst + _Pos));

  00003	8b 01		 mov	 eax, DWORD PTR [ecx]
  00005	8b 4d 08	 mov	 ecx, DWORD PTR __Pos$[ebp]
  00008	8d 04 88	 lea	 eax, DWORD PTR [eax+ecx*4]

; 941  : 		}

  0000b	5d		 pop	 ebp
  0000c	c2 04 00	 ret	 4
??A?$vector@PAVioPullDownItem@@V?$allocator@PAVioPullDownItem@@@std@@@std@@QAEAAPAVioPullDownItem@@I@Z ENDP ; std::vector<ioPullDownItem *,std::allocator<ioPullDownItem *> >::operator[]
_TEXT	ENDS
PUBLIC	?_Inside@?$vector@UPullDownInnerImage@@V?$allocator@UPullDownInnerImage@@@std@@@std@@IBE_NPBUPullDownInnerImage@@@Z ; std::vector<PullDownInnerImage,std::allocator<PullDownInnerImage> >::_Inside
; Function compile flags: /Ogsp
;	COMDAT ?_Inside@?$vector@UPullDownInnerImage@@V?$allocator@UPullDownInnerImage@@@std@@@std@@IBE_NPBUPullDownInnerImage@@@Z
_TEXT	SEGMENT
__Ptr$ = 8						; size = 4
?_Inside@?$vector@UPullDownInnerImage@@V?$allocator@UPullDownInnerImage@@@std@@@std@@IBE_NPBUPullDownInnerImage@@@Z PROC ; std::vector<PullDownInnerImage,std::allocator<PullDownInnerImage> >::_Inside, COMDAT
; _this$ = ecx

; 1285 : 		{	// test if _Ptr points inside vector

  00000	55		 push	 ebp
  00001	8b ec		 mov	 ebp, esp

; 1286 : 		return (_Ptr < this->_Mylast && this->_Myfirst <= _Ptr);

  00003	8b 45 08	 mov	 eax, DWORD PTR __Ptr$[ebp]
  00006	3b 41 04	 cmp	 eax, DWORD PTR [ecx+4]
  00009	73 09		 jae	 SHORT $LN3@Inside
  0000b	39 01		 cmp	 DWORD PTR [ecx], eax
  0000d	77 05		 ja	 SHORT $LN3@Inside
  0000f	33 c0		 xor	 eax, eax
  00011	40		 inc	 eax
  00012	eb 02		 jmp	 SHORT $LN4@Inside
$LN3@Inside:
  00014	33 c0		 xor	 eax, eax
$LN4@Inside:

; 1287 : 		}

  00016	5d		 pop	 ebp
  00017	c2 04 00	 ret	 4
?_Inside@?$vector@UPullDownInnerImage@@V?$allocator@UPullDownInnerImage@@@std@@@std@@IBE_NPBUPullDownInnerImage@@@Z ENDP ; std::vector<PullDownInnerImage,std::allocator<PullDownInnerImage> >::_Inside
_TEXT	ENDS
PUBLIC	?_Orphan_range@?$vector@UPullDownInnerImage@@V?$allocator@UPullDownInnerImage@@@std@@@std@@IBEXPAUPullDownInnerImage@@0@Z ; std::vector<PullDownInnerImage,std::allocator<PullDownInnerImage> >::_Orphan_range
; Function compile flags: /Ogsp
;	COMDAT ?_Orphan_range@?$vector@UPullDownInnerImage@@V?$allocator@UPullDownInnerImage@@@std@@@std@@IBEXPAUPullDownInnerImage@@0@Z
_TEXT	SEGMENT
___formal$ = 8						; size = 4
___formal$ = 12						; size = 4
?_Orphan_range@?$vector@UPullDownInnerImage@@V?$allocator@UPullDownInnerImage@@@std@@@std@@IBEXPAUPullDownInnerImage@@0@Z PROC ; std::vector<PullDownInnerImage,std::allocator<PullDownInnerImage> >::_Orphan_range, COMDAT
; _this$ = ecx

; 1454 : 		}

  00000	c2 08 00	 ret	 8
?_Orphan_range@?$vector@UPullDownInnerImage@@V?$allocator@UPullDownInnerImage@@@std@@@std@@IBEXPAUPullDownInnerImage@@0@Z ENDP ; std::vector<PullDownInnerImage,std::allocator<PullDownInnerImage> >::_Orphan_range
_TEXT	ENDS
PUBLIC	??1?$_Vector_val@UPullDownInnerImage@@V?$allocator@UPullDownInnerImage@@@std@@@std@@QAE@XZ ; std::_Vector_val<PullDownInnerImage,std::allocator<PullDownInnerImage> >::~_Vector_val<PullDownInnerImage,std::allocator<PullDownInnerImage> >
; Function compile flags: /Ogsp
;	COMDAT ??1?$_Vector_val@UPullDownInnerImage@@V?$allocator@UPullDownInnerImage@@@std@@@std@@QAE@XZ
_TEXT	SEGMENT
??1?$_Vector_val@UPullDownInnerImage@@V?$allocator@UPullDownInnerImage@@@std@@@std@@QAE@XZ PROC ; std::_Vector_val<PullDownInnerImage,std::allocator<PullDownInnerImage> >::~_Vector_val<PullDownInnerImage,std::allocator<PullDownInnerImage> >, COMDAT
; _this$ = ecx

; 434  : 		}

  00000	c3		 ret	 0
??1?$_Vector_val@UPullDownInnerImage@@V?$allocator@UPullDownInnerImage@@@std@@@std@@QAE@XZ ENDP ; std::_Vector_val<PullDownInnerImage,std::allocator<PullDownInnerImage> >::~_Vector_val<PullDownInnerImage,std::allocator<PullDownInnerImage> >
_TEXT	ENDS
PUBLIC	??0?$allocator@UPullDownInnerImage@@@std@@QAE@XZ ; std::allocator<PullDownInnerImage>::allocator<PullDownInnerImage>
; Function compile flags: /Ogsp
; File c:\program files (x86)\microsoft visual studio 10.0\vc\include\xmemory
;	COMDAT ??0?$allocator@UPullDownInnerImage@@@std@@QAE@XZ
_TEXT	SEGMENT
??0?$allocator@UPullDownInnerImage@@@std@@QAE@XZ PROC	; std::allocator<PullDownInnerImage>::allocator<PullDownInnerImage>, COMDAT
; _this$ = ecx

; 161  : 	_ALLOCATOR() _THROW0()

  00000	8b c1		 mov	 eax, ecx

; 162  : 		{	// construct default allocator (do nothing)
; 163  : 		}

  00002	c3		 ret	 0
??0?$allocator@UPullDownInnerImage@@@std@@QAE@XZ ENDP	; std::allocator<PullDownInnerImage>::allocator<PullDownInnerImage>
_TEXT	ENDS
PUBLIC	?_Inside@?$vector@PAVioPullDownItem@@V?$allocator@PAVioPullDownItem@@@std@@@std@@IBE_NPBQAVioPullDownItem@@@Z ; std::vector<ioPullDownItem *,std::allocator<ioPullDownItem *> >::_Inside
; Function compile flags: /Ogsp
; File c:\program files (x86)\microsoft visual studio 10.0\vc\include\vector
;	COMDAT ?_Inside@?$vector@PAVioPullDownItem@@V?$allocator@PAVioPullDownItem@@@std@@@std@@IBE_NPBQAVioPullDownItem@@@Z
_TEXT	SEGMENT
__Ptr$ = 8						; size = 4
?_Inside@?$vector@PAVioPullDownItem@@V?$allocator@PAVioPullDownItem@@@std@@@std@@IBE_NPBQAVioPullDownItem@@@Z PROC ; std::vector<ioPullDownItem *,std::allocator<ioPullDownItem *> >::_Inside, COMDAT
; _this$ = ecx

; 1285 : 		{	// test if _Ptr points inside vector

  00000	55		 push	 ebp
  00001	8b ec		 mov	 ebp, esp

; 1286 : 		return (_Ptr < this->_Mylast && this->_Myfirst <= _Ptr);

  00003	8b 45 08	 mov	 eax, DWORD PTR __Ptr$[ebp]
  00006	3b 41 04	 cmp	 eax, DWORD PTR [ecx+4]
  00009	73 09		 jae	 SHORT $LN3@Inside@2
  0000b	39 01		 cmp	 DWORD PTR [ecx], eax
  0000d	77 05		 ja	 SHORT $LN3@Inside@2
  0000f	33 c0		 xor	 eax, eax
  00011	40		 inc	 eax
  00012	eb 02		 jmp	 SHORT $LN4@Inside@2
$LN3@Inside@2:
  00014	33 c0		 xor	 eax, eax
$LN4@Inside@2:

; 1287 : 		}

  00016	5d		 pop	 ebp
  00017	c2 04 00	 ret	 4
?_Inside@?$vector@PAVioPullDownItem@@V?$allocator@PAVioPullDownItem@@@std@@@std@@IBE_NPBQAVioPullDownItem@@@Z ENDP ; std::vector<ioPullDownItem *,std::allocator<ioPullDownItem *> >::_Inside
_TEXT	ENDS
PUBLIC	?_Orphan_range@?$vector@PAVioPullDownItem@@V?$allocator@PAVioPullDownItem@@@std@@@std@@IBEXPAPAVioPullDownItem@@0@Z ; std::vector<ioPullDownItem *,std::allocator<ioPullDownItem *> >::_Orphan_range
; Function compile flags: /Ogsp
;	COMDAT ?_Orphan_range@?$vector@PAVioPullDownItem@@V?$allocator@PAVioPullDownItem@@@std@@@std@@IBEXPAPAVioPullDownItem@@0@Z
_TEXT	SEGMENT
___formal$ = 8						; size = 4
___formal$ = 12						; size = 4
?_Orphan_range@?$vector@PAVioPullDownItem@@V?$allocator@PAVioPullDownItem@@@std@@@std@@IBEXPAPAVioPullDownItem@@0@Z PROC ; std::vector<ioPullDownItem *,std::allocator<ioPullDownItem *> >::_Orphan_range, COMDAT
; _this$ = ecx

; 1454 : 		}

  00000	c2 08 00	 ret	 8
?_Orphan_range@?$vector@PAVioPullDownItem@@V?$allocator@PAVioPullDownItem@@@std@@@std@@IBEXPAPAVioPullDownItem@@0@Z ENDP ; std::vector<ioPullDownItem *,std::allocator<ioPullDownItem *> >::_Orphan_range
_TEXT	ENDS
PUBLIC	??1?$_Vector_val@PAVioPullDownItem@@V?$allocator@PAVioPullDownItem@@@std@@@std@@QAE@XZ ; std::_Vector_val<ioPullDownItem *,std::allocator<ioPullDownItem *> >::~_Vector_val<ioPullDownItem *,std::allocator<ioPullDownItem *> >
; Function compile flags: /Ogsp
;	COMDAT ??1?$_Vector_val@PAVioPullDownItem@@V?$allocator@PAVioPullDownItem@@@std@@@std@@QAE@XZ
_TEXT	SEGMENT
??1?$_Vector_val@PAVioPullDownItem@@V?$allocator@PAVioPullDownItem@@@std@@@std@@QAE@XZ PROC ; std::_Vector_val<ioPullDownItem *,std::allocator<ioPullDownItem *> >::~_Vector_val<ioPullDownItem *,std::allocator<ioPullDownItem *> >, COMDAT
; _this$ = ecx

; 434  : 		}

  00000	c3		 ret	 0
??1?$_Vector_val@PAVioPullDownItem@@V?$allocator@PAVioPullDownItem@@@std@@@std@@QAE@XZ ENDP ; std::_Vector_val<ioPullDownItem *,std::allocator<ioPullDownItem *> >::~_Vector_val<ioPullDownItem *,std::allocator<ioPullDownItem *> >
_TEXT	ENDS
PUBLIC	??0?$allocator@PAVioPullDownItem@@@std@@QAE@XZ	; std::allocator<ioPullDownItem *>::allocator<ioPullDownItem *>
; Function compile flags: /Ogsp
; File c:\program files (x86)\microsoft visual studio 10.0\vc\include\xmemory
;	COMDAT ??0?$allocator@PAVioPullDownItem@@@std@@QAE@XZ
_TEXT	SEGMENT
??0?$allocator@PAVioPullDownItem@@@std@@QAE@XZ PROC	; std::allocator<ioPullDownItem *>::allocator<ioPullDownItem *>, COMDAT
; _this$ = ecx

; 161  : 	_ALLOCATOR() _THROW0()

  00000	8b c1		 mov	 eax, ecx

; 162  : 		{	// construct default allocator (do nothing)
; 163  : 		}

  00002	c3		 ret	 0
??0?$allocator@PAVioPullDownItem@@@std@@QAE@XZ ENDP	; std::allocator<ioPullDownItem *>::allocator<ioPullDownItem *>
_TEXT	ENDS
PUBLIC	??D?$_Vector_const_iterator@V?$_Vector_val@PAVioPullDownItem@@V?$allocator@PAVioPullDownItem@@@std@@@std@@@std@@QBEABQAVioPullDownItem@@XZ ; std::_Vector_const_iterator<std::_Vector_val<ioPullDownItem *,std::allocator<ioPullDownItem *> > >::operator*
; Function compile flags: /Ogsp
; File c:\program files (x86)\microsoft visual studio 10.0\vc\include\vector
;	COMDAT ??D?$_Vector_const_iterator@V?$_Vector_val@PAVioPullDownItem@@V?$allocator@PAVioPullDownItem@@@std@@@std@@@std@@QBEABQAVioPullDownItem@@XZ
_TEXT	SEGMENT
??D?$_Vector_const_iterator@V?$_Vector_val@PAVioPullDownItem@@V?$allocator@PAVioPullDownItem@@@std@@@std@@@std@@QBEABQAVioPullDownItem@@XZ PROC ; std::_Vector_const_iterator<std::_Vector_val<ioPullDownItem *,std::allocator<ioPullDownItem *> > >::operator*, COMDAT
; _this$ = ecx

; 64   :  #if _ITERATOR_DEBUG_LEVEL == 2
; 65   : 		if (this->_Getcont() == 0
; 66   : 			|| this->_Ptr == 0
; 67   : 			|| this->_Ptr < ((_Myvec *)this->_Getcont())->_Myfirst
; 68   : 			|| ((_Myvec *)this->_Getcont())->_Mylast <= this->_Ptr)
; 69   : 			{	// report error
; 70   : 			_DEBUG_ERROR("vector iterator not dereferencable");
; 71   : 			_SCL_SECURE_OUT_OF_RANGE;
; 72   : 			}
; 73   : 
; 74   :  #elif _ITERATOR_DEBUG_LEVEL == 1
; 75   : 		_SCL_SECURE_VALIDATE(this->_Getcont() != 0);
; 76   : 		_SCL_SECURE_VALIDATE_RANGE(
; 77   : 			this->_Ptr != 0
; 78   : 			&& ((_Myvec *)this->_Getcont())->_Myfirst <= this->_Ptr
; 79   : 			&& this->_Ptr < ((_Myvec *)this->_Getcont())->_Mylast);
; 80   :  #endif /* _ITERATOR_DEBUG_LEVEL */
; 81   : 
; 82   : 		__analysis_assume(this->_Ptr != 0);
; 83   : 
; 84   : 		return (*this->_Ptr);

  00000	8b 01		 mov	 eax, DWORD PTR [ecx]

; 85   : 		}

  00002	c3		 ret	 0
??D?$_Vector_const_iterator@V?$_Vector_val@PAVioPullDownItem@@V?$allocator@PAVioPullDownItem@@@std@@@std@@@std@@QBEABQAVioPullDownItem@@XZ ENDP ; std::_Vector_const_iterator<std::_Vector_val<ioPullDownItem *,std::allocator<ioPullDownItem *> > >::operator*
_TEXT	ENDS
PUBLIC	??E?$_Vector_const_iterator@V?$_Vector_val@PAVioPullDownItem@@V?$allocator@PAVioPullDownItem@@@std@@@std@@@std@@QAEAAV01@XZ ; std::_Vector_const_iterator<std::_Vector_val<ioPullDownItem *,std::allocator<ioPullDownItem *> > >::operator++
; Function compile flags: /Ogsp
;	COMDAT ??E?$_Vector_const_iterator@V?$_Vector_val@PAVioPullDownItem@@V?$allocator@PAVioPullDownItem@@@std@@@std@@@std@@QAEAAV01@XZ
_TEXT	SEGMENT
??E?$_Vector_const_iterator@V?$_Vector_val@PAVioPullDownItem@@V?$allocator@PAVioPullDownItem@@@std@@@std@@@std@@QAEAAV01@XZ PROC ; std::_Vector_const_iterator<std::_Vector_val<ioPullDownItem *,std::allocator<ioPullDownItem *> > >::operator++, COMDAT
; _this$ = ecx

; 93   : 		{	// preincrement

  00000	8b c1		 mov	 eax, ecx

; 94   :  #if _ITERATOR_DEBUG_LEVEL == 2
; 95   : 		if (this->_Getcont() == 0
; 96   : 			|| this->_Ptr == 0
; 97   : 			|| ((_Myvec *)this->_Getcont())->_Mylast <= this->_Ptr)
; 98   : 			{	// report error
; 99   : 			_DEBUG_ERROR("vector iterator not incrementable");
; 100  : 			_SCL_SECURE_OUT_OF_RANGE;
; 101  : 			}
; 102  : 
; 103  :  #elif _ITERATOR_DEBUG_LEVEL == 1
; 104  : 		_SCL_SECURE_VALIDATE(this->_Getcont() != 0);
; 105  : 		_SCL_SECURE_VALIDATE_RANGE(
; 106  : 			this->_Ptr != 0
; 107  : 			&& this->_Ptr < ((_Myvec *)this->_Getcont())->_Mylast);
; 108  :  #endif /* _ITERATOR_DEBUG_LEVEL */
; 109  : 
; 110  : 		++this->_Ptr;

  00002	83 00 04	 add	 DWORD PTR [eax], 4

; 111  : 		return (*this);
; 112  : 		}

  00005	c3		 ret	 0
??E?$_Vector_const_iterator@V?$_Vector_val@PAVioPullDownItem@@V?$allocator@PAVioPullDownItem@@@std@@@std@@@std@@QAEAAV01@XZ ENDP ; std::_Vector_const_iterator<std::_Vector_val<ioPullDownItem *,std::allocator<ioPullDownItem *> > >::operator++
_TEXT	ENDS
PUBLIC	??D?$_Vector_const_iterator@V?$_Vector_val@UPullDownInnerImage@@V?$allocator@UPullDownInnerImage@@@std@@@std@@@std@@QBEABUPullDownInnerImage@@XZ ; std::_Vector_const_iterator<std::_Vector_val<PullDownInnerImage,std::allocator<PullDownInnerImage> > >::operator*
; Function compile flags: /Ogsp
;	COMDAT ??D?$_Vector_const_iterator@V?$_Vector_val@UPullDownInnerImage@@V?$allocator@UPullDownInnerImage@@@std@@@std@@@std@@QBEABUPullDownInnerImage@@XZ
_TEXT	SEGMENT
??D?$_Vector_const_iterator@V?$_Vector_val@UPullDownInnerImage@@V?$allocator@UPullDownInnerImage@@@std@@@std@@@std@@QBEABUPullDownInnerImage@@XZ PROC ; std::_Vector_const_iterator<std::_Vector_val<PullDownInnerImage,std::allocator<PullDownInnerImage> > >::operator*, COMDAT
; _this$ = ecx

; 64   :  #if _ITERATOR_DEBUG_LEVEL == 2
; 65   : 		if (this->_Getcont() == 0
; 66   : 			|| this->_Ptr == 0
; 67   : 			|| this->_Ptr < ((_Myvec *)this->_Getcont())->_Myfirst
; 68   : 			|| ((_Myvec *)this->_Getcont())->_Mylast <= this->_Ptr)
; 69   : 			{	// report error
; 70   : 			_DEBUG_ERROR("vector iterator not dereferencable");
; 71   : 			_SCL_SECURE_OUT_OF_RANGE;
; 72   : 			}
; 73   : 
; 74   :  #elif _ITERATOR_DEBUG_LEVEL == 1
; 75   : 		_SCL_SECURE_VALIDATE(this->_Getcont() != 0);
; 76   : 		_SCL_SECURE_VALIDATE_RANGE(
; 77   : 			this->_Ptr != 0
; 78   : 			&& ((_Myvec *)this->_Getcont())->_Myfirst <= this->_Ptr
; 79   : 			&& this->_Ptr < ((_Myvec *)this->_Getcont())->_Mylast);
; 80   :  #endif /* _ITERATOR_DEBUG_LEVEL */
; 81   : 
; 82   : 		__analysis_assume(this->_Ptr != 0);
; 83   : 
; 84   : 		return (*this->_Ptr);

  00000	8b 01		 mov	 eax, DWORD PTR [ecx]

; 85   : 		}

  00002	c3		 ret	 0
??D?$_Vector_const_iterator@V?$_Vector_val@UPullDownInnerImage@@V?$allocator@UPullDownInnerImage@@@std@@@std@@@std@@QBEABUPullDownInnerImage@@XZ ENDP ; std::_Vector_const_iterator<std::_Vector_val<PullDownInnerImage,std::allocator<PullDownInnerImage> > >::operator*
_TEXT	ENDS
PUBLIC	??E?$_Vector_const_iterator@V?$_Vector_val@UPullDownInnerImage@@V?$allocator@UPullDownInnerImage@@@std@@@std@@@std@@QAEAAV01@XZ ; std::_Vector_const_iterator<std::_Vector_val<PullDownInnerImage,std::allocator<PullDownInnerImage> > >::operator++
; Function compile flags: /Ogsp
;	COMDAT ??E?$_Vector_const_iterator@V?$_Vector_val@UPullDownInnerImage@@V?$allocator@UPullDownInnerImage@@@std@@@std@@@std@@QAEAAV01@XZ
_TEXT	SEGMENT
??E?$_Vector_const_iterator@V?$_Vector_val@UPullDownInnerImage@@V?$allocator@UPullDownInnerImage@@@std@@@std@@@std@@QAEAAV01@XZ PROC ; std::_Vector_const_iterator<std::_Vector_val<PullDownInnerImage,std::allocator<PullDownInnerImage> > >::operator++, COMDAT
; _this$ = ecx

; 93   : 		{	// preincrement

  00000	8b c1		 mov	 eax, ecx

; 94   :  #if _ITERATOR_DEBUG_LEVEL == 2
; 95   : 		if (this->_Getcont() == 0
; 96   : 			|| this->_Ptr == 0
; 97   : 			|| ((_Myvec *)this->_Getcont())->_Mylast <= this->_Ptr)
; 98   : 			{	// report error
; 99   : 			_DEBUG_ERROR("vector iterator not incrementable");
; 100  : 			_SCL_SECURE_OUT_OF_RANGE;
; 101  : 			}
; 102  : 
; 103  :  #elif _ITERATOR_DEBUG_LEVEL == 1
; 104  : 		_SCL_SECURE_VALIDATE(this->_Getcont() != 0);
; 105  : 		_SCL_SECURE_VALIDATE_RANGE(
; 106  : 			this->_Ptr != 0
; 107  : 			&& this->_Ptr < ((_Myvec *)this->_Getcont())->_Mylast);
; 108  :  #endif /* _ITERATOR_DEBUG_LEVEL */
; 109  : 
; 110  : 		++this->_Ptr;

  00002	83 00 1c	 add	 DWORD PTR [eax], 28	; 0000001cH

; 111  : 		return (*this);
; 112  : 		}

  00005	c3		 ret	 0
??E?$_Vector_const_iterator@V?$_Vector_val@UPullDownInnerImage@@V?$allocator@UPullDownInnerImage@@@std@@@std@@@std@@QAEAAV01@XZ ENDP ; std::_Vector_const_iterator<std::_Vector_val<PullDownInnerImage,std::allocator<PullDownInnerImage> > >::operator++
_TEXT	ENDS
PUBLIC	?capacity@?$vector@UPullDownInnerImage@@V?$allocator@UPullDownInnerImage@@@std@@@std@@QBEIXZ ; std::vector<PullDownInnerImage,std::allocator<PullDownInnerImage> >::capacity
; Function compile flags: /Ogsp
;	COMDAT ?capacity@?$vector@UPullDownInnerImage@@V?$allocator@UPullDownInnerImage@@@std@@@std@@QBEIXZ
_TEXT	SEGMENT
?capacity@?$vector@UPullDownInnerImage@@V?$allocator@UPullDownInnerImage@@@std@@@std@@QBEIXZ PROC ; std::vector<PullDownInnerImage,std::allocator<PullDownInnerImage> >::capacity, COMDAT
; _this$ = ecx

; 777  : 		return (this->_Myend - this->_Myfirst);

  00000	8b 41 08	 mov	 eax, DWORD PTR [ecx+8]
  00003	2b 01		 sub	 eax, DWORD PTR [ecx]
  00005	6a 1c		 push	 28			; 0000001cH
  00007	99		 cdq
  00008	59		 pop	 ecx
  00009	f7 f9		 idiv	 ecx

; 778  : 		}

  0000b	c3		 ret	 0
?capacity@?$vector@UPullDownInnerImage@@V?$allocator@UPullDownInnerImage@@@std@@@std@@QBEIXZ ENDP ; std::vector<PullDownInnerImage,std::allocator<PullDownInnerImage> >::capacity
_TEXT	ENDS
PUBLIC	?size@?$vector@UPullDownInnerImage@@V?$allocator@UPullDownInnerImage@@@std@@@std@@QBEIXZ ; std::vector<PullDownInnerImage,std::allocator<PullDownInnerImage> >::size
; Function compile flags: /Ogsp
;	COMDAT ?size@?$vector@UPullDownInnerImage@@V?$allocator@UPullDownInnerImage@@@std@@@std@@QBEIXZ
_TEXT	SEGMENT
?size@?$vector@UPullDownInnerImage@@V?$allocator@UPullDownInnerImage@@@std@@@std@@QBEIXZ PROC ; std::vector<PullDownInnerImage,std::allocator<PullDownInnerImage> >::size, COMDAT
; _this$ = ecx

; 879  : 		return (this->_Mylast - this->_Myfirst);

  00000	8b 41 04	 mov	 eax, DWORD PTR [ecx+4]
  00003	2b 01		 sub	 eax, DWORD PTR [ecx]
  00005	6a 1c		 push	 28			; 0000001cH
  00007	99		 cdq
  00008	59		 pop	 ecx
  00009	f7 f9		 idiv	 ecx

; 880  : 		}

  0000b	c3		 ret	 0
?size@?$vector@UPullDownInnerImage@@V?$allocator@UPullDownInnerImage@@@std@@@std@@QBEIXZ ENDP ; std::vector<PullDownInnerImage,std::allocator<PullDownInnerImage> >::size
_TEXT	ENDS
PUBLIC	??_C@_0BD@OLBABOEK@vector?$DMT?$DO?5too?5long?$AA@ ; `string'
PUBLIC	?_Xlen@?$vector@UPullDownInnerImage@@V?$allocator@UPullDownInnerImage@@@std@@@std@@IBEXXZ ; std::vector<PullDownInnerImage,std::allocator<PullDownInnerImage> >::_Xlen
EXTRN	__imp_?_Xlength_error@std@@YAXPBD@Z:PROC
;	COMDAT ??_C@_0BD@OLBABOEK@vector?$DMT?$DO?5too?5long?$AA@
CONST	SEGMENT
??_C@_0BD@OLBABOEK@vector?$DMT?$DO?5too?5long?$AA@ DB 'vector<T> too long'
	DB	00H						; `string'
; Function compile flags: /Ogsp
CONST	ENDS
;	COMDAT ?_Xlen@?$vector@UPullDownInnerImage@@V?$allocator@UPullDownInnerImage@@@std@@@std@@IBEXXZ
_TEXT	SEGMENT
?_Xlen@?$vector@UPullDownInnerImage@@V?$allocator@UPullDownInnerImage@@@std@@@std@@IBEXXZ PROC ; std::vector<PullDownInnerImage,std::allocator<PullDownInnerImage> >::_Xlen, COMDAT
; _this$ = ecx

; 1427 : 		_Xlength_error("vector<T> too long");

  00000	68 00 00 00 00	 push	 OFFSET ??_C@_0BD@OLBABOEK@vector?$DMT?$DO?5too?5long?$AA@
  00005	ff 15 00 00 00
	00		 call	 DWORD PTR __imp_?_Xlength_error@std@@YAXPBD@Z
$LN4@Xlen:
$LN3@Xlen:
  0000b	cc		 int	 3
?_Xlen@?$vector@UPullDownInnerImage@@V?$allocator@UPullDownInnerImage@@@std@@@std@@IBEXXZ ENDP ; std::vector<PullDownInnerImage,std::allocator<PullDownInnerImage> >::_Xlen
_TEXT	ENDS
PUBLIC	??0?$allocator@UPullDownInnerImage@@@std@@QAE@ABV01@@Z ; std::allocator<PullDownInnerImage>::allocator<PullDownInnerImage>
; Function compile flags: /Ogsp
; File c:\program files (x86)\microsoft visual studio 10.0\vc\include\xmemory
;	COMDAT ??0?$allocator@UPullDownInnerImage@@@std@@QAE@ABV01@@Z
_TEXT	SEGMENT
___formal$ = 8						; size = 4
??0?$allocator@UPullDownInnerImage@@@std@@QAE@ABV01@@Z PROC ; std::allocator<PullDownInnerImage>::allocator<PullDownInnerImage>, COMDAT
; _this$ = ecx

; 165  : 	_ALLOCATOR(const _ALLOCATOR<_Ty>&) _THROW0()

  00000	8b c1		 mov	 eax, ecx

; 166  : 		{	// construct by copying (do nothing)
; 167  : 		}

  00002	c2 04 00	 ret	 4
??0?$allocator@UPullDownInnerImage@@@std@@QAE@ABV01@@Z ENDP ; std::allocator<PullDownInnerImage>::allocator<PullDownInnerImage>
_TEXT	ENDS
PUBLIC	?deallocate@?$allocator@UPullDownInnerImage@@@std@@QAEXPAUPullDownInnerImage@@I@Z ; std::allocator<PullDownInnerImage>::deallocate
; Function compile flags: /Ogsp
;	COMDAT ?deallocate@?$allocator@UPullDownInnerImage@@@std@@QAEXPAUPullDownInnerImage@@I@Z
_TEXT	SEGMENT
__Ptr$ = 8						; size = 4
___formal$ = 12						; size = 4
?deallocate@?$allocator@UPullDownInnerImage@@@std@@QAEXPAUPullDownInnerImage@@I@Z PROC ; std::allocator<PullDownInnerImage>::deallocate, COMDAT
; _this$ = ecx

; 181  : 		{	// deallocate object at _Ptr, ignore size

  00000	55		 push	 ebp
  00001	8b ec		 mov	 ebp, esp

; 182  : 		::operator delete(_Ptr);

  00003	ff 75 08	 push	 DWORD PTR __Ptr$[ebp]
  00006	e8 00 00 00 00	 call	 ??3@YAXPAX@Z		; operator delete
  0000b	59		 pop	 ecx

; 183  : 		}

  0000c	5d		 pop	 ebp
  0000d	c2 08 00	 ret	 8
?deallocate@?$allocator@UPullDownInnerImage@@@std@@QAEXPAUPullDownInnerImage@@I@Z ENDP ; std::allocator<PullDownInnerImage>::deallocate
_TEXT	ENDS
PUBLIC	?capacity@?$vector@PAVioPullDownItem@@V?$allocator@PAVioPullDownItem@@@std@@@std@@QBEIXZ ; std::vector<ioPullDownItem *,std::allocator<ioPullDownItem *> >::capacity
; Function compile flags: /Ogsp
; File c:\program files (x86)\microsoft visual studio 10.0\vc\include\vector
;	COMDAT ?capacity@?$vector@PAVioPullDownItem@@V?$allocator@PAVioPullDownItem@@@std@@@std@@QBEIXZ
_TEXT	SEGMENT
?capacity@?$vector@PAVioPullDownItem@@V?$allocator@PAVioPullDownItem@@@std@@@std@@QBEIXZ PROC ; std::vector<ioPullDownItem *,std::allocator<ioPullDownItem *> >::capacity, COMDAT
; _this$ = ecx

; 777  : 		return (this->_Myend - this->_Myfirst);

  00000	8b 41 08	 mov	 eax, DWORD PTR [ecx+8]
  00003	2b 01		 sub	 eax, DWORD PTR [ecx]
  00005	c1 f8 02	 sar	 eax, 2

; 778  : 		}

  00008	c3		 ret	 0
?capacity@?$vector@PAVioPullDownItem@@V?$allocator@PAVioPullDownItem@@@std@@@std@@QBEIXZ ENDP ; std::vector<ioPullDownItem *,std::allocator<ioPullDownItem *> >::capacity
_TEXT	ENDS
PUBLIC	?_Xlen@?$vector@PAVioPullDownItem@@V?$allocator@PAVioPullDownItem@@@std@@@std@@IBEXXZ ; std::vector<ioPullDownItem *,std::allocator<ioPullDownItem *> >::_Xlen
; Function compile flags: /Ogsp
;	COMDAT ?_Xlen@?$vector@PAVioPullDownItem@@V?$allocator@PAVioPullDownItem@@@std@@@std@@IBEXXZ
_TEXT	SEGMENT
?_Xlen@?$vector@PAVioPullDownItem@@V?$allocator@PAVioPullDownItem@@@std@@@std@@IBEXXZ PROC ; std::vector<ioPullDownItem *,std::allocator<ioPullDownItem *> >::_Xlen, COMDAT
; _this$ = ecx

; 1427 : 		_Xlength_error("vector<T> too long");

  00000	68 00 00 00 00	 push	 OFFSET ??_C@_0BD@OLBABOEK@vector?$DMT?$DO?5too?5long?$AA@
  00005	ff 15 00 00 00
	00		 call	 DWORD PTR __imp_?_Xlength_error@std@@YAXPBD@Z
$LN4@Xlen@2:
$LN3@Xlen@2:
  0000b	cc		 int	 3
?_Xlen@?$vector@PAVioPullDownItem@@V?$allocator@PAVioPullDownItem@@@std@@@std@@IBEXXZ ENDP ; std::vector<ioPullDownItem *,std::allocator<ioPullDownItem *> >::_Xlen
_TEXT	ENDS
PUBLIC	??0?$allocator@PAVioPullDownItem@@@std@@QAE@ABV01@@Z ; std::allocator<ioPullDownItem *>::allocator<ioPullDownItem *>
; Function compile flags: /Ogsp
; File c:\program files (x86)\microsoft visual studio 10.0\vc\include\xmemory
;	COMDAT ??0?$allocator@PAVioPullDownItem@@@std@@QAE@ABV01@@Z
_TEXT	SEGMENT
___formal$ = 8						; size = 4
??0?$allocator@PAVioPullDownItem@@@std@@QAE@ABV01@@Z PROC ; std::allocator<ioPullDownItem *>::allocator<ioPullDownItem *>, COMDAT
; _this$ = ecx

; 165  : 	_ALLOCATOR(const _ALLOCATOR<_Ty>&) _THROW0()

  00000	8b c1		 mov	 eax, ecx

; 166  : 		{	// construct by copying (do nothing)
; 167  : 		}

  00002	c2 04 00	 ret	 4
??0?$allocator@PAVioPullDownItem@@@std@@QAE@ABV01@@Z ENDP ; std::allocator<ioPullDownItem *>::allocator<ioPullDownItem *>
_TEXT	ENDS
PUBLIC	?deallocate@?$allocator@PAVioPullDownItem@@@std@@QAEXPAPAVioPullDownItem@@I@Z ; std::allocator<ioPullDownItem *>::deallocate
; Function compile flags: /Ogsp
;	COMDAT ?deallocate@?$allocator@PAVioPullDownItem@@@std@@QAEXPAPAVioPullDownItem@@I@Z
_TEXT	SEGMENT
__Ptr$ = 8						; size = 4
___formal$ = 12						; size = 4
?deallocate@?$allocator@PAVioPullDownItem@@@std@@QAEXPAPAVioPullDownItem@@I@Z PROC ; std::allocator<ioPullDownItem *>::deallocate, COMDAT
; _this$ = ecx

; 181  : 		{	// deallocate object at _Ptr, ignore size

  00000	55		 push	 ebp
  00001	8b ec		 mov	 ebp, esp

; 182  : 		::operator delete(_Ptr);

  00003	ff 75 08	 push	 DWORD PTR __Ptr$[ebp]
  00006	e8 00 00 00 00	 call	 ??3@YAXPAX@Z		; operator delete
  0000b	59		 pop	 ecx

; 183  : 		}

  0000c	5d		 pop	 ebp
  0000d	c2 08 00	 ret	 8
?deallocate@?$allocator@PAVioPullDownItem@@@std@@QAEXPAPAVioPullDownItem@@I@Z ENDP ; std::allocator<ioPullDownItem *>::deallocate
_TEXT	ENDS
PUBLIC	??0?$_Vector_const_iterator@V?$_Vector_val@PAVioPullDownItem@@V?$allocator@PAVioPullDownItem@@@std@@@std@@@std@@QAE@PAPAVioPullDownItem@@PBU_Container_base0@1@@Z ; std::_Vector_const_iterator<std::_Vector_val<ioPullDownItem *,std::allocator<ioPullDownItem *> > >::_Vector_const_iterator<std::_Vector_val<ioPullDownItem *,std::allocator<ioPullDownItem *> > >
; Function compile flags: /Ogsp
; File c:\program files (x86)\microsoft visual studio 10.0\vc\include\vector
;	COMDAT ??0?$_Vector_const_iterator@V?$_Vector_val@PAVioPullDownItem@@V?$allocator@PAVioPullDownItem@@@std@@@std@@@std@@QAE@PAPAVioPullDownItem@@PBU_Container_base0@1@@Z
_TEXT	SEGMENT
__Parg$ = 8						; size = 4
__Pvector$ = 12						; size = 4
??0?$_Vector_const_iterator@V?$_Vector_val@PAVioPullDownItem@@V?$allocator@PAVioPullDownItem@@@std@@@std@@@std@@QAE@PAPAVioPullDownItem@@PBU_Container_base0@1@@Z PROC ; std::_Vector_const_iterator<std::_Vector_val<ioPullDownItem *,std::allocator<ioPullDownItem *> > >::_Vector_const_iterator<std::_Vector_val<ioPullDownItem *,std::allocator<ioPullDownItem *> > >, COMDAT
; _this$ = ecx

; 45   : 		{	// construct with pointer _Parg

  00000	55		 push	 ebp
  00001	8b ec		 mov	 ebp, esp
  00003	8b c1		 mov	 eax, ecx
  00005	8b 4d 08	 mov	 ecx, DWORD PTR __Parg$[ebp]
  00008	89 08		 mov	 DWORD PTR [eax], ecx

; 46   : 		this->_Adopt(_Pvector);
; 47   : 		}

  0000a	5d		 pop	 ebp
  0000b	c2 08 00	 ret	 8
??0?$_Vector_const_iterator@V?$_Vector_val@PAVioPullDownItem@@V?$allocator@PAVioPullDownItem@@@std@@@std@@@std@@QAE@PAPAVioPullDownItem@@PBU_Container_base0@1@@Z ENDP ; std::_Vector_const_iterator<std::_Vector_val<ioPullDownItem *,std::allocator<ioPullDownItem *> > >::_Vector_const_iterator<std::_Vector_val<ioPullDownItem *,std::allocator<ioPullDownItem *> > >
_TEXT	ENDS
PUBLIC	?_Compat@?$_Vector_const_iterator@V?$_Vector_val@PAVioPullDownItem@@V?$allocator@PAVioPullDownItem@@@std@@@std@@@std@@QBEXABV12@@Z ; std::_Vector_const_iterator<std::_Vector_val<ioPullDownItem *,std::allocator<ioPullDownItem *> > >::_Compat
; Function compile flags: /Ogsp
;	COMDAT ?_Compat@?$_Vector_const_iterator@V?$_Vector_val@PAVioPullDownItem@@V?$allocator@PAVioPullDownItem@@@std@@@std@@@std@@QBEXABV12@@Z
_TEXT	SEGMENT
___formal$ = 8						; size = 4
?_Compat@?$_Vector_const_iterator@V?$_Vector_val@PAVioPullDownItem@@V?$allocator@PAVioPullDownItem@@@std@@@std@@@std@@QBEXABV12@@Z PROC ; std::_Vector_const_iterator<std::_Vector_val<ioPullDownItem *,std::allocator<ioPullDownItem *> > >::_Compat, COMDAT
; _this$ = ecx

; 253  : 		}

  00000	c2 04 00	 ret	 4
?_Compat@?$_Vector_const_iterator@V?$_Vector_val@PAVioPullDownItem@@V?$allocator@PAVioPullDownItem@@@std@@@std@@@std@@QBEXABV12@@Z ENDP ; std::_Vector_const_iterator<std::_Vector_val<ioPullDownItem *,std::allocator<ioPullDownItem *> > >::_Compat
_TEXT	ENDS
PUBLIC	??0?$_Vector_const_iterator@V?$_Vector_val@UPullDownInnerImage@@V?$allocator@UPullDownInnerImage@@@std@@@std@@@std@@QAE@PAUPullDownInnerImage@@PBU_Container_base0@1@@Z ; std::_Vector_const_iterator<std::_Vector_val<PullDownInnerImage,std::allocator<PullDownInnerImage> > >::_Vector_const_iterator<std::_Vector_val<PullDownInnerImage,std::allocator<PullDownInnerImage> > >
; Function compile flags: /Ogsp
;	COMDAT ??0?$_Vector_const_iterator@V?$_Vector_val@UPullDownInnerImage@@V?$allocator@UPullDownInnerImage@@@std@@@std@@@std@@QAE@PAUPullDownInnerImage@@PBU_Container_base0@1@@Z
_TEXT	SEGMENT
__Parg$ = 8						; size = 4
__Pvector$ = 12						; size = 4
??0?$_Vector_const_iterator@V?$_Vector_val@UPullDownInnerImage@@V?$allocator@UPullDownInnerImage@@@std@@@std@@@std@@QAE@PAUPullDownInnerImage@@PBU_Container_base0@1@@Z PROC ; std::_Vector_const_iterator<std::_Vector_val<PullDownInnerImage,std::allocator<PullDownInnerImage> > >::_Vector_const_iterator<std::_Vector_val<PullDownInnerImage,std::allocator<PullDownInnerImage> > >, COMDAT
; _this$ = ecx

; 45   : 		{	// construct with pointer _Parg

  00000	55		 push	 ebp
  00001	8b ec		 mov	 ebp, esp
  00003	8b c1		 mov	 eax, ecx
  00005	8b 4d 08	 mov	 ecx, DWORD PTR __Parg$[ebp]
  00008	89 08		 mov	 DWORD PTR [eax], ecx

; 46   : 		this->_Adopt(_Pvector);
; 47   : 		}

  0000a	5d		 pop	 ebp
  0000b	c2 08 00	 ret	 8
??0?$_Vector_const_iterator@V?$_Vector_val@UPullDownInnerImage@@V?$allocator@UPullDownInnerImage@@@std@@@std@@@std@@QAE@PAUPullDownInnerImage@@PBU_Container_base0@1@@Z ENDP ; std::_Vector_const_iterator<std::_Vector_val<PullDownInnerImage,std::allocator<PullDownInnerImage> > >::_Vector_const_iterator<std::_Vector_val<PullDownInnerImage,std::allocator<PullDownInnerImage> > >
_TEXT	ENDS
PUBLIC	?_Compat@?$_Vector_const_iterator@V?$_Vector_val@UPullDownInnerImage@@V?$allocator@UPullDownInnerImage@@@std@@@std@@@std@@QBEXABV12@@Z ; std::_Vector_const_iterator<std::_Vector_val<PullDownInnerImage,std::allocator<PullDownInnerImage> > >::_Compat
; Function compile flags: /Ogsp
;	COMDAT ?_Compat@?$_Vector_const_iterator@V?$_Vector_val@UPullDownInnerImage@@V?$allocator@UPullDownInnerImage@@@std@@@std@@@std@@QBEXABV12@@Z
_TEXT	SEGMENT
___formal$ = 8						; size = 4
?_Compat@?$_Vector_const_iterator@V?$_Vector_val@UPullDownInnerImage@@V?$allocator@UPullDownInnerImage@@@std@@@std@@@std@@QBEXABV12@@Z PROC ; std::_Vector_const_iterator<std::_Vector_val<PullDownInnerImage,std::allocator<PullDownInnerImage> > >::_Compat, COMDAT
; _this$ = ecx

; 253  : 		}

  00000	c2 04 00	 ret	 4
?_Compat@?$_Vector_const_iterator@V?$_Vector_val@UPullDownInnerImage@@V?$allocator@UPullDownInnerImage@@@std@@@std@@@std@@QBEXABV12@@Z ENDP ; std::_Vector_const_iterator<std::_Vector_val<PullDownInnerImage,std::allocator<PullDownInnerImage> > >::_Compat
_TEXT	ENDS
PUBLIC	?max_size@?$allocator@UPullDownInnerImage@@@std@@QBEIXZ ; std::allocator<PullDownInnerImage>::max_size
; Function compile flags: /Ogsp
; File c:\program files (x86)\microsoft visual studio 10.0\vc\include\xmemory
;	COMDAT ?max_size@?$allocator@UPullDownInnerImage@@@std@@QBEIXZ
_TEXT	SEGMENT
?max_size@?$allocator@UPullDownInnerImage@@@std@@QBEIXZ PROC ; std::allocator<PullDownInnerImage>::max_size, COMDAT
; _this$ = ecx

; 218  : 		_SIZT _Count = (_SIZT)(-1) / sizeof (_Ty);
; 219  : 		return (0 < _Count ? _Count : 1);

  00000	b8 49 92 24 09	 mov	 eax, 153391689		; 09249249H

; 220  : 		}

  00005	c3		 ret	 0
?max_size@?$allocator@UPullDownInnerImage@@@std@@QBEIXZ ENDP ; std::allocator<PullDownInnerImage>::max_size
_TEXT	ENDS
PUBLIC	?max_size@?$allocator@PAVioPullDownItem@@@std@@QBEIXZ ; std::allocator<ioPullDownItem *>::max_size
; Function compile flags: /Ogsp
;	COMDAT ?max_size@?$allocator@PAVioPullDownItem@@@std@@QBEIXZ
_TEXT	SEGMENT
?max_size@?$allocator@PAVioPullDownItem@@@std@@QBEIXZ PROC ; std::allocator<ioPullDownItem *>::max_size, COMDAT
; _this$ = ecx

; 218  : 		_SIZT _Count = (_SIZT)(-1) / sizeof (_Ty);
; 219  : 		return (0 < _Count ? _Count : 1);

  00000	b8 ff ff ff 3f	 mov	 eax, 1073741823		; 3fffffffH

; 220  : 		}

  00005	c3		 ret	 0
?max_size@?$allocator@PAVioPullDownItem@@@std@@QBEIXZ ENDP ; std::allocator<ioPullDownItem *>::max_size
_TEXT	ENDS
PUBLIC	??$addressof@$$CBUPullDownInnerImage@@@std@@YAPBUPullDownInnerImage@@ABU1@@Z ; std::addressof<PullDownInnerImage const >
; Function compile flags: /Ogsp
;	COMDAT ??$addressof@$$CBUPullDownInnerImage@@@std@@YAPBUPullDownInnerImage@@ABU1@@Z
_TEXT	SEGMENT
__Val$ = 8						; size = 4
??$addressof@$$CBUPullDownInnerImage@@@std@@YAPBUPullDownInnerImage@@ABU1@@Z PROC ; std::addressof<PullDownInnerImage const >, COMDAT

; 110  : 	{	// return address of _Val

  00000	55		 push	 ebp
  00001	8b ec		 mov	 ebp, esp

; 111  : 	return ((_Ty *) &(char&)_Val);

  00003	8b 45 08	 mov	 eax, DWORD PTR __Val$[ebp]

; 112  : 	}

  00006	5d		 pop	 ebp
  00007	c3		 ret	 0
??$addressof@$$CBUPullDownInnerImage@@@std@@YAPBUPullDownInnerImage@@ABU1@@Z ENDP ; std::addressof<PullDownInnerImage const >
_TEXT	ENDS
PUBLIC	??$addressof@QAVioPullDownItem@@@std@@YAPBQAVioPullDownItem@@ABQAV1@@Z ; std::addressof<ioPullDownItem * const>
; Function compile flags: /Ogsp
;	COMDAT ??$addressof@QAVioPullDownItem@@@std@@YAPBQAVioPullDownItem@@ABQAV1@@Z
_TEXT	SEGMENT
__Val$ = 8						; size = 4
??$addressof@QAVioPullDownItem@@@std@@YAPBQAVioPullDownItem@@ABQAV1@@Z PROC ; std::addressof<ioPullDownItem * const>, COMDAT

; 110  : 	{	// return address of _Val

  00000	55		 push	 ebp
  00001	8b ec		 mov	 ebp, esp

; 111  : 	return ((_Ty *) &(char&)_Val);

  00003	8b 45 08	 mov	 eax, DWORD PTR __Val$[ebp]

; 112  : 	}

  00006	5d		 pop	 ebp
  00007	c3		 ret	 0
??$addressof@QAVioPullDownItem@@@std@@YAPBQAVioPullDownItem@@ABQAV1@@Z ENDP ; std::addressof<ioPullDownItem * const>
_TEXT	ENDS
PUBLIC	__TI2?AVbad_alloc@std@@
PUBLIC	??$_Allocate@UPullDownInnerImage@@@std@@YAPAUPullDownInnerImage@@IPAU1@@Z ; std::_Allocate<PullDownInnerImage>
PUBLIC	__CTA2?AVbad_alloc@std@@
PUBLIC	__CT??_R0?AVbad_alloc@std@@@8??0bad_alloc@std@@QAE@ABV01@@Z12
PUBLIC	??0bad_alloc@std@@QAE@ABV01@@Z			; std::bad_alloc::bad_alloc
PUBLIC	__CT??_R0?AVexception@std@@@8??0exception@std@@QAE@ABV01@@Z12
EXTRN	??2@YAPAXI@Z:PROC				; operator new
EXTRN	__CxxThrowException@8:PROC
EXTRN	??0exception@std@@QAE@ABV01@@Z:PROC		; std::exception::exception
;	COMDAT __CT??_R0?AVexception@std@@@8??0exception@std@@QAE@ABV01@@Z12
; File c:\program files (x86)\microsoft visual studio 10.0\vc\include\exception
xdata$x	SEGMENT
__CT??_R0?AVexception@std@@@8??0exception@std@@QAE@ABV01@@Z12 DD 00H
	DD	FLAT:??_R0?AVexception@std@@@8
	DD	00H
	DD	0ffffffffH
	ORG $+4
	DD	0cH
	DD	FLAT:??0exception@std@@QAE@ABV01@@Z
xdata$x	ENDS
;	COMDAT __CT??_R0?AVbad_alloc@std@@@8??0bad_alloc@std@@QAE@ABV01@@Z12
xdata$x	SEGMENT
__CT??_R0?AVbad_alloc@std@@@8??0bad_alloc@std@@QAE@ABV01@@Z12 DD 00H
	DD	FLAT:??_R0?AVbad_alloc@std@@@8
	DD	00H
	DD	0ffffffffH
	ORG $+4
	DD	0cH
	DD	FLAT:??0bad_alloc@std@@QAE@ABV01@@Z
xdata$x	ENDS
;	COMDAT __CTA2?AVbad_alloc@std@@
xdata$x	SEGMENT
__CTA2?AVbad_alloc@std@@ DD 02H
	DD	FLAT:__CT??_R0?AVbad_alloc@std@@@8??0bad_alloc@std@@QAE@ABV01@@Z12
	DD	FLAT:__CT??_R0?AVexception@std@@@8??0exception@std@@QAE@ABV01@@Z12
xdata$x	ENDS
;	COMDAT __TI2?AVbad_alloc@std@@
xdata$x	SEGMENT
__TI2?AVbad_alloc@std@@ DD 00H
	DD	FLAT:??1bad_alloc@std@@UAE@XZ
	DD	00H
	DD	FLAT:__CTA2?AVbad_alloc@std@@
; Function compile flags: /Ogsp
; File c:\program files (x86)\microsoft visual studio 10.0\vc\include\xmemory
xdata$x	ENDS
;	COMDAT ??$_Allocate@UPullDownInnerImage@@@std@@YAPAUPullDownInnerImage@@IPAU1@@Z
_TEXT	SEGMENT
$T523865 = -12						; size = 12
$T523870 = 8						; size = 4
__Count$ = 8						; size = 4
___formal$ = 12						; size = 4
??$_Allocate@UPullDownInnerImage@@@std@@YAPAUPullDownInnerImage@@IPAU1@@Z PROC ; std::_Allocate<PullDownInnerImage>, COMDAT

; 30   : 	{	// allocate storage for _Count elements of type _Ty

  00000	55		 push	 ebp
  00001	8b ec		 mov	 ebp, esp

; 31   : 	void *_Ptr = 0;
; 32   : 
; 33   : 	if (_Count <= 0)

  00003	8b 4d 08	 mov	 ecx, DWORD PTR __Count$[ebp]
  00006	83 ec 0c	 sub	 esp, 12			; 0000000cH
  00009	33 c0		 xor	 eax, eax
  0000b	85 c9		 test	 ecx, ecx

; 34   : 		_Count = 0;
; 35   : 	else if (((_SIZT)(-1) / sizeof (_Ty) < _Count)

  0000d	74 3c		 je	 SHORT $LN5@Allocate

; 36   : 		|| (_Ptr = ::operator new(_Count * sizeof (_Ty))) == 0)

  0000f	81 f9 49 92 24
	09		 cmp	 ecx, 153391689		; 09249249H
  00015	77 0e		 ja	 SHORT $LN1@Allocate
  00017	6b c9 1c	 imul	 ecx, 28			; 0000001cH
  0001a	51		 push	 ecx
  0001b	e8 00 00 00 00	 call	 ??2@YAPAXI@Z		; operator new
  00020	59		 pop	 ecx
  00021	85 c0		 test	 eax, eax

; 38   : 
; 39   : 	return ((_Ty _FARQ *)_Ptr);

  00023	75 26		 jne	 SHORT $LN5@Allocate
$LN1@Allocate:

; 37   : 		_THROW_NCEE(bad_alloc, 0);

  00025	83 65 08 00	 and	 DWORD PTR $T523870[ebp], 0
  00029	8d 45 08	 lea	 eax, DWORD PTR $T523870[ebp]
  0002c	50		 push	 eax
  0002d	8d 4d f4	 lea	 ecx, DWORD PTR $T523865[ebp]
  00030	ff 15 00 00 00
	00		 call	 DWORD PTR __imp_??0exception@std@@QAE@ABQBD@Z
  00036	68 00 00 00 00	 push	 OFFSET __TI2?AVbad_alloc@std@@
  0003b	8d 45 f4	 lea	 eax, DWORD PTR $T523865[ebp]
  0003e	50		 push	 eax
  0003f	c7 45 f4 00 00
	00 00		 mov	 DWORD PTR $T523865[ebp], OFFSET ??_7bad_alloc@std@@6B@
  00046	e8 00 00 00 00	 call	 __CxxThrowException@8
$LN10@Allocate:
$LN5@Allocate:

; 40   : 	}

  0004b	c9		 leave
  0004c	c3		 ret	 0
$LN9@Allocate:
??$_Allocate@UPullDownInnerImage@@@std@@YAPAUPullDownInnerImage@@IPAU1@@Z ENDP ; std::_Allocate<PullDownInnerImage>
_TEXT	ENDS
PUBLIC	??$_Allocate@PAVioPullDownItem@@@std@@YAPAPAVioPullDownItem@@IPAPAV1@@Z ; std::_Allocate<ioPullDownItem *>
; Function compile flags: /Ogsp
;	COMDAT ??$_Allocate@PAVioPullDownItem@@@std@@YAPAPAVioPullDownItem@@IPAPAV1@@Z
_TEXT	SEGMENT
$T523875 = -12						; size = 12
$T523879 = 8						; size = 4
__Count$ = 8						; size = 4
___formal$ = 12						; size = 4
??$_Allocate@PAVioPullDownItem@@@std@@YAPAPAVioPullDownItem@@IPAPAV1@@Z PROC ; std::_Allocate<ioPullDownItem *>, COMDAT

; 30   : 	{	// allocate storage for _Count elements of type _Ty

  00000	55		 push	 ebp
  00001	8b ec		 mov	 ebp, esp

; 31   : 	void *_Ptr = 0;
; 32   : 
; 33   : 	if (_Count <= 0)

  00003	8b 4d 08	 mov	 ecx, DWORD PTR __Count$[ebp]
  00006	83 ec 0c	 sub	 esp, 12			; 0000000cH
  00009	33 c0		 xor	 eax, eax
  0000b	85 c9		 test	 ecx, ecx

; 34   : 		_Count = 0;
; 35   : 	else if (((_SIZT)(-1) / sizeof (_Ty) < _Count)

  0000d	74 3e		 je	 SHORT $LN5@Allocate@2

; 36   : 		|| (_Ptr = ::operator new(_Count * sizeof (_Ty))) == 0)

  0000f	81 f9 ff ff ff
	3f		 cmp	 ecx, 1073741823		; 3fffffffH
  00015	77 10		 ja	 SHORT $LN1@Allocate@2
  00017	8b c1		 mov	 eax, ecx
  00019	c1 e0 02	 shl	 eax, 2
  0001c	50		 push	 eax
  0001d	e8 00 00 00 00	 call	 ??2@YAPAXI@Z		; operator new
  00022	59		 pop	 ecx
  00023	85 c0		 test	 eax, eax

; 38   : 
; 39   : 	return ((_Ty _FARQ *)_Ptr);

  00025	75 26		 jne	 SHORT $LN5@Allocate@2
$LN1@Allocate@2:

; 37   : 		_THROW_NCEE(bad_alloc, 0);

  00027	83 65 08 00	 and	 DWORD PTR $T523879[ebp], 0
  0002b	8d 45 08	 lea	 eax, DWORD PTR $T523879[ebp]
  0002e	50		 push	 eax
  0002f	8d 4d f4	 lea	 ecx, DWORD PTR $T523875[ebp]
  00032	ff 15 00 00 00
	00		 call	 DWORD PTR __imp_??0exception@std@@QAE@ABQBD@Z
  00038	68 00 00 00 00	 push	 OFFSET __TI2?AVbad_alloc@std@@
  0003d	8d 45 f4	 lea	 eax, DWORD PTR $T523875[ebp]
  00040	50		 push	 eax
  00041	c7 45 f4 00 00
	00 00		 mov	 DWORD PTR $T523875[ebp], OFFSET ??_7bad_alloc@std@@6B@
  00048	e8 00 00 00 00	 call	 __CxxThrowException@8
$LN10@Allocate@2:
$LN5@Allocate@2:

; 40   : 	}

  0004d	c9		 leave
  0004e	c3		 ret	 0
$LN9@Allocate@2:
??$_Allocate@PAVioPullDownItem@@@std@@YAPAPAVioPullDownItem@@IPAPAV1@@Z ENDP ; std::_Allocate<ioPullDownItem *>
_TEXT	ENDS
PUBLIC	??$forward@AAUPullDownInnerImage@@@std@@YAAAUPullDownInnerImage@@AAU1@@Z ; std::forward<PullDownInnerImage &>
; Function compile flags: /Ogsp
; File c:\program files (x86)\microsoft visual studio 10.0\vc\include\utility
;	COMDAT ??$forward@AAUPullDownInnerImage@@@std@@YAAAUPullDownInnerImage@@AAU1@@Z
_TEXT	SEGMENT
__Arg$ = 8						; size = 4
??$forward@AAUPullDownInnerImage@@@std@@YAAAUPullDownInnerImage@@AAU1@@Z PROC ; std::forward<PullDownInnerImage &>, COMDAT

; 78   : 	{	// forward _Arg, given explicitly specified type parameter

  00000	55		 push	 ebp
  00001	8b ec		 mov	 ebp, esp

; 79   : 	return ((_Ty&&)_Arg);

  00003	8b 45 08	 mov	 eax, DWORD PTR __Arg$[ebp]

; 80   : 	}

  00006	5d		 pop	 ebp
  00007	c3		 ret	 0
??$forward@AAUPullDownInnerImage@@@std@@YAAAUPullDownInnerImage@@AAU1@@Z ENDP ; std::forward<PullDownInnerImage &>
_TEXT	ENDS
PUBLIC	??$construct@AAUPullDownInnerImage@@@?$allocator@UPullDownInnerImage@@@std@@QAEXPAUPullDownInnerImage@@AAU2@@Z ; std::allocator<PullDownInnerImage>::construct<PullDownInnerImage &>
; Function compile flags: /Ogsp
; File c:\program files (x86)\microsoft visual studio 10.0\vc\include\xmemory
;	COMDAT ??$construct@AAUPullDownInnerImage@@@?$allocator@UPullDownInnerImage@@@std@@QAEXPAUPullDownInnerImage@@AAU2@@Z
_TEXT	SEGMENT
__Ptr$ = 8						; size = 4
__Val$ = 12						; size = 4
??$construct@AAUPullDownInnerImage@@@?$allocator@UPullDownInnerImage@@@std@@QAEXPAUPullDownInnerImage@@AAU2@@Z PROC ; std::allocator<PullDownInnerImage>::construct<PullDownInnerImage &>, COMDAT
; _this$ = ecx

; 206  : 		void construct(pointer _Ptr, _Other&& _Val)

  00000	55		 push	 ebp
  00001	8b ec		 mov	 ebp, esp
  00003	57		 push	 edi

; 207  : 		{	// construct object at _Ptr with value _Val
; 208  : 		::new ((void _FARQ *)_Ptr) _Ty(_STD forward<_Other>(_Val));

  00004	8b 7d 08	 mov	 edi, DWORD PTR __Ptr$[ebp]
  00007	85 ff		 test	 edi, edi
  00009	74 0a		 je	 SHORT $LN3@construct
  0000b	56		 push	 esi
  0000c	8b 75 0c	 mov	 esi, DWORD PTR __Val$[ebp]
  0000f	6a 07		 push	 7
  00011	59		 pop	 ecx
  00012	f3 a5		 rep movsd
  00014	5e		 pop	 esi
$LN3@construct:
  00015	5f		 pop	 edi

; 209  : 		}

  00016	5d		 pop	 ebp
  00017	c2 08 00	 ret	 8
??$construct@AAUPullDownInnerImage@@@?$allocator@UPullDownInnerImage@@@std@@QAEXPAUPullDownInnerImage@@AAU2@@Z ENDP ; std::allocator<PullDownInnerImage>::construct<PullDownInnerImage &>
_TEXT	ENDS
PUBLIC	??$forward@ABUPullDownInnerImage@@@std@@YAABUPullDownInnerImage@@ABU1@@Z ; std::forward<PullDownInnerImage const &>
; Function compile flags: /Ogsp
; File c:\program files (x86)\microsoft visual studio 10.0\vc\include\utility
;	COMDAT ??$forward@ABUPullDownInnerImage@@@std@@YAABUPullDownInnerImage@@ABU1@@Z
_TEXT	SEGMENT
__Arg$ = 8						; size = 4
??$forward@ABUPullDownInnerImage@@@std@@YAABUPullDownInnerImage@@ABU1@@Z PROC ; std::forward<PullDownInnerImage const &>, COMDAT

; 78   : 	{	// forward _Arg, given explicitly specified type parameter

  00000	55		 push	 ebp
  00001	8b ec		 mov	 ebp, esp

; 79   : 	return ((_Ty&&)_Arg);

  00003	8b 45 08	 mov	 eax, DWORD PTR __Arg$[ebp]

; 80   : 	}

  00006	5d		 pop	 ebp
  00007	c3		 ret	 0
??$forward@ABUPullDownInnerImage@@@std@@YAABUPullDownInnerImage@@ABU1@@Z ENDP ; std::forward<PullDownInnerImage const &>
_TEXT	ENDS
PUBLIC	??$forward@AAPAVioPullDownItem@@@std@@YAAAPAVioPullDownItem@@AAPAV1@@Z ; std::forward<ioPullDownItem * &>
; Function compile flags: /Ogsp
;	COMDAT ??$forward@AAPAVioPullDownItem@@@std@@YAAAPAVioPullDownItem@@AAPAV1@@Z
_TEXT	SEGMENT
__Arg$ = 8						; size = 4
??$forward@AAPAVioPullDownItem@@@std@@YAAAPAVioPullDownItem@@AAPAV1@@Z PROC ; std::forward<ioPullDownItem * &>, COMDAT

; 78   : 	{	// forward _Arg, given explicitly specified type parameter

  00000	55		 push	 ebp
  00001	8b ec		 mov	 ebp, esp

; 79   : 	return ((_Ty&&)_Arg);

  00003	8b 45 08	 mov	 eax, DWORD PTR __Arg$[ebp]

; 80   : 	}

  00006	5d		 pop	 ebp
  00007	c3		 ret	 0
??$forward@AAPAVioPullDownItem@@@std@@YAAAPAVioPullDownItem@@AAPAV1@@Z ENDP ; std::forward<ioPullDownItem * &>
_TEXT	ENDS
PUBLIC	??$construct@AAPAVioPullDownItem@@@?$allocator@PAVioPullDownItem@@@std@@QAEXPAPAVioPullDownItem@@AAPAV2@@Z ; std::allocator<ioPullDownItem *>::construct<ioPullDownItem * &>
; Function compile flags: /Ogsp
; File c:\program files (x86)\microsoft visual studio 10.0\vc\include\xmemory
;	COMDAT ??$construct@AAPAVioPullDownItem@@@?$allocator@PAVioPullDownItem@@@std@@QAEXPAPAVioPullDownItem@@AAPAV2@@Z
_TEXT	SEGMENT
__Ptr$ = 8						; size = 4
__Val$ = 12						; size = 4
??$construct@AAPAVioPullDownItem@@@?$allocator@PAVioPullDownItem@@@std@@QAEXPAPAVioPullDownItem@@AAPAV2@@Z PROC ; std::allocator<ioPullDownItem *>::construct<ioPullDownItem * &>, COMDAT
; _this$ = ecx

; 206  : 		void construct(pointer _Ptr, _Other&& _Val)

  00000	55		 push	 ebp
  00001	8b ec		 mov	 ebp, esp

; 207  : 		{	// construct object at _Ptr with value _Val
; 208  : 		::new ((void _FARQ *)_Ptr) _Ty(_STD forward<_Other>(_Val));

  00003	8b 45 08	 mov	 eax, DWORD PTR __Ptr$[ebp]
  00006	85 c0		 test	 eax, eax
  00008	74 07		 je	 SHORT $LN3@construct@2
  0000a	8b 4d 0c	 mov	 ecx, DWORD PTR __Val$[ebp]
  0000d	8b 09		 mov	 ecx, DWORD PTR [ecx]
  0000f	89 08		 mov	 DWORD PTR [eax], ecx
$LN3@construct@2:

; 209  : 		}

  00011	5d		 pop	 ebp
  00012	c2 08 00	 ret	 8
??$construct@AAPAVioPullDownItem@@@?$allocator@PAVioPullDownItem@@@std@@QAEXPAPAVioPullDownItem@@AAPAV2@@Z ENDP ; std::allocator<ioPullDownItem *>::construct<ioPullDownItem * &>
_TEXT	ENDS
PUBLIC	??$forward@ABQAVioPullDownItem@@@std@@YAABQAVioPullDownItem@@ABQAV1@@Z ; std::forward<ioPullDownItem * const &>
; Function compile flags: /Ogsp
; File c:\program files (x86)\microsoft visual studio 10.0\vc\include\utility
;	COMDAT ??$forward@ABQAVioPullDownItem@@@std@@YAABQAVioPullDownItem@@ABQAV1@@Z
_TEXT	SEGMENT
__Arg$ = 8						; size = 4
??$forward@ABQAVioPullDownItem@@@std@@YAABQAVioPullDownItem@@ABQAV1@@Z PROC ; std::forward<ioPullDownItem * const &>, COMDAT

; 78   : 	{	// forward _Arg, given explicitly specified type parameter

  00000	55		 push	 ebp
  00001	8b ec		 mov	 ebp, esp

; 79   : 	return ((_Ty&&)_Arg);

  00003	8b 45 08	 mov	 eax, DWORD PTR __Arg$[ebp]

; 80   : 	}

  00006	5d		 pop	 ebp
  00007	c3		 ret	 0
??$forward@ABQAVioPullDownItem@@@std@@YAABQAVioPullDownItem@@ABQAV1@@Z ENDP ; std::forward<ioPullDownItem * const &>
_TEXT	ENDS
PUBLIC	??$_Ptr_cat@UPullDownInnerImage@@U1@@std@@YA?AU_Nonscalar_ptr_iterator_tag@0@PAUPullDownInnerImage@@0@Z ; std::_Ptr_cat<PullDownInnerImage,PullDownInnerImage>
; Function compile flags: /Ogsp
; File c:\program files (x86)\microsoft visual studio 10.0\vc\include\xutility
;	COMDAT ??$_Ptr_cat@UPullDownInnerImage@@U1@@std@@YA?AU_Nonscalar_ptr_iterator_tag@0@PAUPullDownInnerImage@@0@Z
_TEXT	SEGMENT
__Cat$ = -1						; size = 1
___formal$ = 8						; size = 4
___formal$ = 12						; size = 4
??$_Ptr_cat@UPullDownInnerImage@@U1@@std@@YA?AU_Nonscalar_ptr_iterator_tag@0@PAUPullDownInnerImage@@0@Z PROC ; std::_Ptr_cat<PullDownInnerImage,PullDownInnerImage>, COMDAT

; 516  : 	{	// return pointer category from pointers

  00000	55		 push	 ebp
  00001	8b ec		 mov	 ebp, esp
  00003	51		 push	 ecx

; 517  : 	typename _Ptr_cat_helper<_Elem1, _Elem2>::_Type _Cat;
; 518  : 	return (_Cat);

  00004	8a 45 ff	 mov	 al, BYTE PTR __Cat$[ebp]

; 519  : 	}

  00007	c9		 leave
  00008	c3		 ret	 0
??$_Ptr_cat@UPullDownInnerImage@@U1@@std@@YA?AU_Nonscalar_ptr_iterator_tag@0@PAUPullDownInnerImage@@0@Z ENDP ; std::_Ptr_cat<PullDownInnerImage,PullDownInnerImage>
_TEXT	ENDS
PUBLIC	??$_Ptr_cat@PAVioPullDownItem@@PAV1@@std@@YA?AU_Scalar_ptr_iterator_tag@0@PAPAVioPullDownItem@@0@Z ; std::_Ptr_cat<ioPullDownItem *,ioPullDownItem *>
; Function compile flags: /Ogsp
;	COMDAT ??$_Ptr_cat@PAVioPullDownItem@@PAV1@@std@@YA?AU_Scalar_ptr_iterator_tag@0@PAPAVioPullDownItem@@0@Z
_TEXT	SEGMENT
__Cat$ = -1						; size = 1
___formal$ = 8						; size = 4
___formal$ = 12						; size = 4
??$_Ptr_cat@PAVioPullDownItem@@PAV1@@std@@YA?AU_Scalar_ptr_iterator_tag@0@PAPAVioPullDownItem@@0@Z PROC ; std::_Ptr_cat<ioPullDownItem *,ioPullDownItem *>, COMDAT

; 516  : 	{	// return pointer category from pointers

  00000	55		 push	 ebp
  00001	8b ec		 mov	 ebp, esp
  00003	51		 push	 ecx

; 517  : 	typename _Ptr_cat_helper<_Elem1, _Elem2>::_Type _Cat;
; 518  : 	return (_Cat);

  00004	8a 45 ff	 mov	 al, BYTE PTR __Cat$[ebp]

; 519  : 	}

  00007	c9		 leave
  00008	c3		 ret	 0
??$_Ptr_cat@PAVioPullDownItem@@PAV1@@std@@YA?AU_Scalar_ptr_iterator_tag@0@PAPAVioPullDownItem@@0@Z ENDP ; std::_Ptr_cat<ioPullDownItem *,ioPullDownItem *>
_TEXT	ENDS
PUBLIC	??$_Move@PAPAVioPullDownItem@@PAPAV1@@std@@YAPAPAVioPullDownItem@@PAPAV1@00U_Scalar_ptr_iterator_tag@0@@Z ; std::_Move<ioPullDownItem * *,ioPullDownItem * *>
EXTRN	__imp__memmove:PROC
; Function compile flags: /Ogsp
;	COMDAT ??$_Move@PAPAVioPullDownItem@@PAPAV1@@std@@YAPAPAVioPullDownItem@@PAPAV1@00U_Scalar_ptr_iterator_tag@0@@Z
_TEXT	SEGMENT
__First$ = 8						; size = 4
__Last$ = 12						; size = 4
__Dest$ = 16						; size = 4
___formal$ = 20						; size = 1
??$_Move@PAPAVioPullDownItem@@PAPAV1@@std@@YAPAPAVioPullDownItem@@PAPAV1@00U_Scalar_ptr_iterator_tag@0@@Z PROC ; std::_Move<ioPullDownItem * *,ioPullDownItem * *>, COMDAT

; 2522 : 	{	// move [_First, _Last) to [_Dest, ...), pointers to scalars

  00000	55		 push	 ebp
  00001	8b ec		 mov	 ebp, esp
  00003	56		 push	 esi

; 2523 : 	ptrdiff_t _Count = _Last - _First;

  00004	8b 75 0c	 mov	 esi, DWORD PTR __Last$[ebp]
  00007	2b 75 08	 sub	 esi, DWORD PTR __First$[ebp]
  0000a	57		 push	 edi

; 2524 : 	_CSTD memmove(&*_Dest, &*_First,
; 2525 : 		_Count * sizeof (*_First));

  0000b	8b 7d 10	 mov	 edi, DWORD PTR __Dest$[ebp]
  0000e	c1 fe 02	 sar	 esi, 2
  00011	c1 e6 02	 shl	 esi, 2
  00014	56		 push	 esi
  00015	ff 75 08	 push	 DWORD PTR __First$[ebp]
  00018	57		 push	 edi
  00019	ff 15 00 00 00
	00		 call	 DWORD PTR __imp__memmove
  0001f	83 c4 0c	 add	 esp, 12			; 0000000cH

; 2526 : 	return (_Dest + _Count);

  00022	8d 04 3e	 lea	 eax, DWORD PTR [esi+edi]
  00025	5f		 pop	 edi
  00026	5e		 pop	 esi

; 2527 : 	}

  00027	5d		 pop	 ebp
  00028	c3		 ret	 0
??$_Move@PAPAVioPullDownItem@@PAPAV1@@std@@YAPAPAVioPullDownItem@@PAPAV1@00U_Scalar_ptr_iterator_tag@0@@Z ENDP ; std::_Move<ioPullDownItem * *,ioPullDownItem * *>
_TEXT	ENDS
PUBLIC	??$_Destroy_range@V?$allocator@PAVioPullDownItem@@@std@@@std@@YAXPAPAVioPullDownItem@@0AAV?$allocator@PAVioPullDownItem@@@0@U_Scalar_ptr_iterator_tag@0@@Z ; std::_Destroy_range<std::allocator<ioPullDownItem *> >
; Function compile flags: /Ogsp
; File c:\program files (x86)\microsoft visual studio 10.0\vc\include\xmemory
;	COMDAT ??$_Destroy_range@V?$allocator@PAVioPullDownItem@@@std@@@std@@YAXPAPAVioPullDownItem@@0AAV?$allocator@PAVioPullDownItem@@@0@U_Scalar_ptr_iterator_tag@0@@Z
_TEXT	SEGMENT
__First$ = 8						; size = 4
__Last$ = 12						; size = 4
__Al$ = 16						; size = 4
___formal$ = 20						; size = 1
??$_Destroy_range@V?$allocator@PAVioPullDownItem@@@std@@@std@@YAXPAPAVioPullDownItem@@0AAV?$allocator@PAVioPullDownItem@@@0@U_Scalar_ptr_iterator_tag@0@@Z PROC ; std::_Destroy_range<std::allocator<ioPullDownItem *> >, COMDAT

; 105  : 	}

  00000	c3		 ret	 0
??$_Destroy_range@V?$allocator@PAVioPullDownItem@@@std@@@std@@YAXPAPAVioPullDownItem@@0AAV?$allocator@PAVioPullDownItem@@@0@U_Scalar_ptr_iterator_tag@0@@Z ENDP ; std::_Destroy_range<std::allocator<ioPullDownItem *> >
_TEXT	ENDS
PUBLIC	??$_Construct@UPullDownInnerImage@@ABU1@@std@@YAXPAUPullDownInnerImage@@ABU1@@Z ; std::_Construct<PullDownInnerImage,PullDownInnerImage const &>
; Function compile flags: /Ogsp
;	COMDAT ??$_Construct@UPullDownInnerImage@@ABU1@@std@@YAXPAUPullDownInnerImage@@ABU1@@Z
_TEXT	SEGMENT
__Ptr$ = 8						; size = 4
__Val$ = 12						; size = 4
??$_Construct@UPullDownInnerImage@@ABU1@@std@@YAXPAUPullDownInnerImage@@ABU1@@Z PROC ; std::_Construct<PullDownInnerImage,PullDownInnerImage const &>, COMDAT

; 46   : 	{	// construct object at _Ptr with value _Val

  00000	55		 push	 ebp
  00001	8b ec		 mov	 ebp, esp
  00003	57		 push	 edi

; 47   : 	void _FARQ *_Vptr = _Ptr;
; 48   : 	::new (_Vptr) _Ty1(_STD forward<_Ty2>(_Val));

  00004	8b 7d 08	 mov	 edi, DWORD PTR __Ptr$[ebp]
  00007	85 ff		 test	 edi, edi
  00009	74 0a		 je	 SHORT $LN3@Construct
  0000b	56		 push	 esi
  0000c	8b 75 0c	 mov	 esi, DWORD PTR __Val$[ebp]
  0000f	6a 07		 push	 7
  00011	59		 pop	 ecx
  00012	f3 a5		 rep movsd
  00014	5e		 pop	 esi
$LN3@Construct:
  00015	5f		 pop	 edi

; 49   : 	}

  00016	5d		 pop	 ebp
  00017	c3		 ret	 0
??$_Construct@UPullDownInnerImage@@ABU1@@std@@YAXPAUPullDownInnerImage@@ABU1@@Z ENDP ; std::_Construct<PullDownInnerImage,PullDownInnerImage const &>
_TEXT	ENDS
PUBLIC	??$_Construct@PAVioPullDownItem@@ABQAV1@@std@@YAXPAPAVioPullDownItem@@ABQAV1@@Z ; std::_Construct<ioPullDownItem *,ioPullDownItem * const &>
; Function compile flags: /Ogsp
;	COMDAT ??$_Construct@PAVioPullDownItem@@ABQAV1@@std@@YAXPAPAVioPullDownItem@@ABQAV1@@Z
_TEXT	SEGMENT
__Ptr$ = 8						; size = 4
__Val$ = 12						; size = 4
??$_Construct@PAVioPullDownItem@@ABQAV1@@std@@YAXPAPAVioPullDownItem@@ABQAV1@@Z PROC ; std::_Construct<ioPullDownItem *,ioPullDownItem * const &>, COMDAT

; 46   : 	{	// construct object at _Ptr with value _Val

  00000	55		 push	 ebp
  00001	8b ec		 mov	 ebp, esp

; 47   : 	void _FARQ *_Vptr = _Ptr;
; 48   : 	::new (_Vptr) _Ty1(_STD forward<_Ty2>(_Val));

  00003	8b 45 08	 mov	 eax, DWORD PTR __Ptr$[ebp]
  00006	85 c0		 test	 eax, eax
  00008	74 07		 je	 SHORT $LN3@Construct@2
  0000a	8b 4d 0c	 mov	 ecx, DWORD PTR __Val$[ebp]
  0000d	8b 09		 mov	 ecx, DWORD PTR [ecx]
  0000f	89 08		 mov	 DWORD PTR [eax], ecx
$LN3@Construct@2:

; 49   : 	}

  00011	5d		 pop	 ebp
  00012	c3		 ret	 0
??$_Construct@PAVioPullDownItem@@ABQAV1@@std@@YAXPAPAVioPullDownItem@@ABQAV1@@Z ENDP ; std::_Construct<ioPullDownItem *,ioPullDownItem * const &>
_TEXT	ENDS
PUBLIC	??$move@AAUPullDownInnerImage@@@std@@YA$$QAUPullDownInnerImage@@AAU1@@Z ; std::move<PullDownInnerImage &>
; Function compile flags: /Ogsp
; File c:\program files (x86)\microsoft visual studio 10.0\vc\include\utility
;	COMDAT ??$move@AAUPullDownInnerImage@@@std@@YA$$QAUPullDownInnerImage@@AAU1@@Z
_TEXT	SEGMENT
__Arg$ = 8						; size = 4
??$move@AAUPullDownInnerImage@@@std@@YA$$QAUPullDownInnerImage@@AAU1@@Z PROC ; std::move<PullDownInnerImage &>, COMDAT

; 86   : 	{	// forward _Arg as movable

  00000	55		 push	 ebp
  00001	8b ec		 mov	 ebp, esp

; 87   : 	return ((typename tr1::_Remove_reference<_Ty>::_Type&&)_Arg);

  00003	8b 45 08	 mov	 eax, DWORD PTR __Arg$[ebp]

; 88   : 	}

  00006	5d		 pop	 ebp
  00007	c3		 ret	 0
??$move@AAUPullDownInnerImage@@@std@@YA$$QAUPullDownInnerImage@@AAU1@@Z ENDP ; std::move<PullDownInnerImage &>
_TEXT	ENDS
PUBLIC	??$_Val_type@PAUPullDownInnerImage@@@std@@YAPAUPullDownInnerImage@@PAU1@@Z ; std::_Val_type<PullDownInnerImage *>
; Function compile flags: /Ogsp
; File c:\program files (x86)\microsoft visual studio 10.0\vc\include\xutility
;	COMDAT ??$_Val_type@PAUPullDownInnerImage@@@std@@YAPAUPullDownInnerImage@@PAU1@@Z
_TEXT	SEGMENT
___formal$ = 8						; size = 4
??$_Val_type@PAUPullDownInnerImage@@@std@@YAPAUPullDownInnerImage@@PAU1@@Z PROC ; std::_Val_type<PullDownInnerImage *>, COMDAT

; 790  : 	return (0);

  00000	33 c0		 xor	 eax, eax

; 791  : 	}

  00002	c3		 ret	 0
??$_Val_type@PAUPullDownInnerImage@@@std@@YAPAUPullDownInnerImage@@PAU1@@Z ENDP ; std::_Val_type<PullDownInnerImage *>
_TEXT	ENDS
PUBLIC	??$_Val_type@PAPAVioPullDownItem@@@std@@YAPAPAVioPullDownItem@@PAPAV1@@Z ; std::_Val_type<ioPullDownItem * *>
; Function compile flags: /Ogsp
;	COMDAT ??$_Val_type@PAPAVioPullDownItem@@@std@@YAPAPAVioPullDownItem@@PAPAV1@@Z
_TEXT	SEGMENT
___formal$ = 8						; size = 4
??$_Val_type@PAPAVioPullDownItem@@@std@@YAPAPAVioPullDownItem@@PAPAV1@@Z PROC ; std::_Val_type<ioPullDownItem * *>, COMDAT

; 790  : 	return (0);

  00000	33 c0		 xor	 eax, eax

; 791  : 	}

  00002	c3		 ret	 0
??$_Val_type@PAPAVioPullDownItem@@@std@@YAPAPAVioPullDownItem@@PAPAV1@@Z ENDP ; std::_Val_type<ioPullDownItem * *>
_TEXT	ENDS
PUBLIC	??$_Uninit_move@PAVioPullDownItem@@PAV1@PAV1@@std@@YAPAPAVioPullDownItem@@PAPAV1@00AAV?$allocator@PAVioPullDownItem@@@0@0U_Scalar_ptr_iterator_tag@0@@Z ; std::_Uninit_move<ioPullDownItem *,ioPullDownItem *,ioPullDownItem *>
; Function compile flags: /Ogsp
; File c:\program files (x86)\microsoft visual studio 10.0\vc\include\memory
;	COMDAT ??$_Uninit_move@PAVioPullDownItem@@PAV1@PAV1@@std@@YAPAPAVioPullDownItem@@PAPAV1@00AAV?$allocator@PAVioPullDownItem@@@0@0U_Scalar_ptr_iterator_tag@0@@Z
_TEXT	SEGMENT
__First$ = 8						; size = 4
__Last$ = 12						; size = 4
__Dest$ = 16						; size = 4
___formal$ = 20						; size = 4
___formal$ = 24						; size = 4
___formal$ = 28						; size = 1
??$_Uninit_move@PAVioPullDownItem@@PAV1@PAV1@@std@@YAPAPAVioPullDownItem@@PAPAV1@00AAV?$allocator@PAVioPullDownItem@@@0@0U_Scalar_ptr_iterator_tag@0@@Z PROC ; std::_Uninit_move<ioPullDownItem *,ioPullDownItem *,ioPullDownItem *>, COMDAT

; 456  : 	{	// move [_First, _Last) to raw _Dest, scalar type

  00000	55		 push	 ebp
  00001	8b ec		 mov	 ebp, esp
  00003	56		 push	 esi

; 457  : 	_DEBUG_RANGE(_First, _Last);
; 458  : 	_DEBUG_POINTER(_Dest);
; 459  : 	size_t _Count = (size_t)(_Last - _First);

  00004	8b 75 0c	 mov	 esi, DWORD PTR __Last$[ebp]
  00007	2b 75 08	 sub	 esi, DWORD PTR __First$[ebp]
  0000a	c1 fe 02	 sar	 esi, 2

; 460  : 	return ((_Ty2 *)_CSTD memmove(&*_Dest, &*_First,
; 461  : 		_Count * sizeof (*_First)) + _Count);	// NB: non-overlapping move

  0000d	c1 e6 02	 shl	 esi, 2
  00010	56		 push	 esi
  00011	ff 75 08	 push	 DWORD PTR __First$[ebp]
  00014	ff 75 10	 push	 DWORD PTR __Dest$[ebp]
  00017	ff 15 00 00 00
	00		 call	 DWORD PTR __imp__memmove
  0001d	83 c4 0c	 add	 esp, 12			; 0000000cH
  00020	03 c6		 add	 eax, esi
  00022	5e		 pop	 esi

; 462  : 	}

  00023	5d		 pop	 ebp
  00024	c3		 ret	 0
??$_Uninit_move@PAVioPullDownItem@@PAV1@PAV1@@std@@YAPAPAVioPullDownItem@@PAPAV1@00AAV?$allocator@PAVioPullDownItem@@@0@0U_Scalar_ptr_iterator_tag@0@@Z ENDP ; std::_Uninit_move<ioPullDownItem *,ioPullDownItem *,ioPullDownItem *>
_TEXT	ENDS
PUBLIC	??$_Destroy@UPullDownInnerImage@@@std@@YAXPAUPullDownInnerImage@@@Z ; std::_Destroy<PullDownInnerImage>
; Function compile flags: /Ogsp
; File c:\program files (x86)\microsoft visual studio 10.0\vc\include\xmemory
;	COMDAT ??$_Destroy@UPullDownInnerImage@@@std@@YAXPAUPullDownInnerImage@@@Z
_TEXT	SEGMENT
__Ptr$ = 8						; size = 4
??$_Destroy@UPullDownInnerImage@@@std@@YAXPAUPullDownInnerImage@@@Z PROC ; std::_Destroy<PullDownInnerImage>, COMDAT

; 63   : 	_Ptr->~_Ty();
; 64   : 	}

  00000	c3		 ret	 0
??$_Destroy@UPullDownInnerImage@@@std@@YAXPAUPullDownInnerImage@@@Z ENDP ; std::_Destroy<PullDownInnerImage>
_TEXT	ENDS
PUBLIC	??$forward@UPullDownInnerImage@@@std@@YA$$QAUPullDownInnerImage@@AAU1@@Z ; std::forward<PullDownInnerImage>
; Function compile flags: /Ogsp
; File c:\program files (x86)\microsoft visual studio 10.0\vc\include\utility
;	COMDAT ??$forward@UPullDownInnerImage@@@std@@YA$$QAUPullDownInnerImage@@AAU1@@Z
_TEXT	SEGMENT
__Arg$ = 8						; size = 4
??$forward@UPullDownInnerImage@@@std@@YA$$QAUPullDownInnerImage@@AAU1@@Z PROC ; std::forward<PullDownInnerImage>, COMDAT

; 78   : 	{	// forward _Arg, given explicitly specified type parameter

  00000	55		 push	 ebp
  00001	8b ec		 mov	 ebp, esp

; 79   : 	return ((_Ty&&)_Arg);

  00003	8b 45 08	 mov	 eax, DWORD PTR __Arg$[ebp]

; 80   : 	}

  00006	5d		 pop	 ebp
  00007	c3		 ret	 0
??$forward@UPullDownInnerImage@@@std@@YA$$QAUPullDownInnerImage@@AAU1@@Z ENDP ; std::forward<PullDownInnerImage>
_TEXT	ENDS
PUBLIC	?_DECSTR@@YAXPADH@Z				; _DECSTR
; Function compile flags: /Ogsp
; File d:\lost saga for developer\youtube\tutorial\source\src\lsclient\stringprotect.h
;	COMDAT ?_DECSTR@@YAXPADH@Z
_TEXT	SEGMENT
_s$ = 8							; size = 4
_l$ = 12						; size = 4
?_DECSTR@@YAXPADH@Z PROC				; _DECSTR, COMDAT

; 40   : __forceinline void _DECSTR(char* s, int l){int i=0,l4=(l-1)/4,*p=(int*)s;s[l-1]=0;for(;i<l4;++i)*(p++)^=0xEAEBECED;for(i=l4*4;i<l-1;++i)s[i]^=0xED-i%4;}

  00000	55		 push	 ebp
  00001	8b ec		 mov	 ebp, esp
  00003	8b 4d 0c	 mov	 ecx, DWORD PTR _l$[ebp]
  00006	56		 push	 esi
  00007	8b 75 08	 mov	 esi, DWORD PTR _s$[ebp]
  0000a	57		 push	 edi
  0000b	8d 79 ff	 lea	 edi, DWORD PTR [ecx-1]
  0000e	8b c7		 mov	 eax, edi
  00010	99		 cdq
  00011	83 e2 03	 and	 edx, 3
  00014	03 c2		 add	 eax, edx
  00016	c1 f8 02	 sar	 eax, 2
  00019	8b d6		 mov	 edx, esi
  0001b	c6 44 0e ff 00	 mov	 BYTE PTR [esi+ecx-1], 0
  00020	85 c0		 test	 eax, eax
  00022	7e 0e		 jle	 SHORT $LN4@DECSTR
  00024	8b c8		 mov	 ecx, eax
$LL6@DECSTR:
  00026	81 32 ed ec eb
	ea		 xor	 DWORD PTR [edx], -353637139 ; eaebecedH
  0002c	83 c2 04	 add	 edx, 4
  0002f	49		 dec	 ecx
  00030	75 f4		 jne	 SHORT $LL6@DECSTR
$LN4@DECSTR:
  00032	c1 e0 02	 shl	 eax, 2
  00035	eb 17		 jmp	 SHORT $LN14@DECSTR
$LL3@DECSTR:
  00037	8b c8		 mov	 ecx, eax
  00039	81 e1 03 00 00
	80		 and	 ecx, -2147483645	; 80000003H
  0003f	79 05		 jns	 SHORT $LN13@DECSTR
  00041	49		 dec	 ecx
  00042	83 c9 fc	 or	 ecx, -4			; fffffffcH
  00045	41		 inc	 ecx
$LN13@DECSTR:
  00046	b2 ed		 mov	 dl, -19			; ffffffedH
  00048	2a d1		 sub	 dl, cl
  0004a	30 14 30	 xor	 BYTE PTR [eax+esi], dl
  0004d	40		 inc	 eax
$LN14@DECSTR:
  0004e	3b c7		 cmp	 eax, edi
  00050	7c e5		 jl	 SHORT $LL3@DECSTR
  00052	5f		 pop	 edi
  00053	5e		 pop	 esi
  00054	5d		 pop	 ebp
  00055	c3		 ret	 0
?_DECSTR@@YAXPADH@Z ENDP				; _DECSTR
_TEXT	ENDS
PUBLIC	?GetMouse@ioApplication@@QAEPAVioLSMouse@@XZ	; ioApplication::GetMouse
; Function compile flags: /Ogsp
; File d:\lost saga for developer\youtube\tutorial\source\src\lsclient\ioapplication.h
;	COMDAT ?GetMouse@ioApplication@@QAEPAVioLSMouse@@XZ
_TEXT	SEGMENT
?GetMouse@ioApplication@@QAEPAVioLSMouse@@XZ PROC	; ioApplication::GetMouse, COMDAT
; _this$ = ecx

; 796  : 	inline ioLSMouse* GetMouse(){ return &m_Mouse;	}

  00000	8d 81 90 00 00
	00		 lea	 eax, DWORD PTR [ecx+144]
  00006	c3		 ret	 0
?GetMouse@ioApplication@@QAEPAVioLSMouse@@XZ ENDP	; ioApplication::GetMouse
_TEXT	ENDS
PUBLIC	?SetEventType@PullDownEvent@@QAEXW4PullDownEventType@1@@Z ; PullDownEvent::SetEventType
; Function compile flags: /Ogsp
; File d:\lost saga for developer\youtube\tutorial\source\src\lsclient\gui\iopulldowneventlistener.h
;	COMDAT ?SetEventType@PullDownEvent@@QAEXW4PullDownEventType@1@@Z
_TEXT	SEGMENT
_newType$ = 8						; size = 4
?SetEventType@PullDownEvent@@QAEXW4PullDownEventType@1@@Z PROC ; PullDownEvent::SetEventType, COMDAT
; _this$ = ecx

; 35   : 	void SetEventType( const PullDownEventType newType ) { m_pdeType = newType; }

  00000	55		 push	 ebp
  00001	8b ec		 mov	 ebp, esp
  00003	8b 45 08	 mov	 eax, DWORD PTR _newType$[ebp]
  00006	89 41 08	 mov	 DWORD PTR [ecx+8], eax
  00009	5d		 pop	 ebp
  0000a	c2 04 00	 ret	 4
?SetEventType@PullDownEvent@@QAEXW4PullDownEventType@1@@Z ENDP ; PullDownEvent::SetEventType
_TEXT	ENDS
PUBLIC	??_7PullDownEvent@@6B@				; PullDownEvent::`vftable'
PUBLIC	??0PullDownEvent@@QAE@PAVioPullDownList@@@Z	; PullDownEvent::PullDownEvent
PUBLIC	??_R4PullDownEvent@@6B@				; PullDownEvent::`RTTI Complete Object Locator'
PUBLIC	??_R0?AVPullDownEvent@@@8			; PullDownEvent `RTTI Type Descriptor'
PUBLIC	??_R3PullDownEvent@@8				; PullDownEvent::`RTTI Class Hierarchy Descriptor'
PUBLIC	??_R2PullDownEvent@@8				; PullDownEvent::`RTTI Base Class Array'
PUBLIC	??_R1A@?0A@EA@PullDownEvent@@8			; PullDownEvent::`RTTI Base Class Descriptor at (0,-1,0,64)'
EXTRN	??_EPullDownEvent@@UAEPAXI@Z:PROC		; PullDownEvent::`vector deleting destructor'
;	COMDAT ??_R1A@?0A@EA@PullDownEvent@@8
rdata$r	SEGMENT
??_R1A@?0A@EA@PullDownEvent@@8 DD FLAT:??_R0?AVPullDownEvent@@@8 ; PullDownEvent::`RTTI Base Class Descriptor at (0,-1,0,64)'
	DD	00H
	DD	00H
	DD	0ffffffffH
	DD	00H
	DD	040H
	DD	FLAT:??_R3PullDownEvent@@8
rdata$r	ENDS
;	COMDAT ??_R2PullDownEvent@@8
rdata$r	SEGMENT
??_R2PullDownEvent@@8 DD FLAT:??_R1A@?0A@EA@PullDownEvent@@8 ; PullDownEvent::`RTTI Base Class Array'
rdata$r	ENDS
;	COMDAT ??_R3PullDownEvent@@8
rdata$r	SEGMENT
??_R3PullDownEvent@@8 DD 00H				; PullDownEvent::`RTTI Class Hierarchy Descriptor'
	DD	00H
	DD	01H
	DD	FLAT:??_R2PullDownEvent@@8
rdata$r	ENDS
;	COMDAT ??_R0?AVPullDownEvent@@@8
_DATA	SEGMENT
??_R0?AVPullDownEvent@@@8 DD FLAT:??_7type_info@@6B@	; PullDownEvent `RTTI Type Descriptor'
	DD	00H
	DB	'.?AVPullDownEvent@@', 00H
_DATA	ENDS
;	COMDAT ??_R4PullDownEvent@@6B@
rdata$r	SEGMENT
??_R4PullDownEvent@@6B@ DD 00H				; PullDownEvent::`RTTI Complete Object Locator'
	DD	00H
	DD	00H
	DD	FLAT:??_R0?AVPullDownEvent@@@8
	DD	FLAT:??_R3PullDownEvent@@8
rdata$r	ENDS
;	COMDAT ??_7PullDownEvent@@6B@
CONST	SEGMENT
??_7PullDownEvent@@6B@ DD FLAT:??_R4PullDownEvent@@6B@	; PullDownEvent::`vftable'
	DD	FLAT:??_EPullDownEvent@@UAEPAXI@Z
; Function compile flags: /Ogsp
CONST	ENDS
;	COMDAT ??0PullDownEvent@@QAE@PAVioPullDownList@@@Z
_TEXT	SEGMENT
_pCaller$ = 8						; size = 4
??0PullDownEvent@@QAE@PAVioPullDownList@@@Z PROC	; PullDownEvent::PullDownEvent, COMDAT
; _this$ = ecx

; 37   : 	PullDownEvent( ioPullDownList* pCaller )

  00000	55		 push	 ebp
  00001	8b ec		 mov	 ebp, esp
  00003	8b c1		 mov	 eax, ecx

; 38   : 	{
; 39   : 		m_pdeType		= PULLDOWNEVENT_NONE;
; 40   : 		pEventCaller	= pCaller;

  00005	8b 4d 08	 mov	 ecx, DWORD PTR _pCaller$[ebp]
  00008	83 60 08 00	 and	 DWORD PTR [eax+8], 0
  0000c	c7 00 00 00 00
	00		 mov	 DWORD PTR [eax], OFFSET ??_7PullDownEvent@@6B@
  00012	89 48 04	 mov	 DWORD PTR [eax+4], ecx

; 41   : 	}

  00015	5d		 pop	 ebp
  00016	c2 04 00	 ret	 4
??0PullDownEvent@@QAE@PAVioPullDownList@@@Z ENDP	; PullDownEvent::PullDownEvent
_TEXT	ENDS
PUBLIC	??1PullDownEvent@@UAE@XZ			; PullDownEvent::~PullDownEvent
; Function compile flags: /Ogsp
;	COMDAT ??1PullDownEvent@@UAE@XZ
_TEXT	SEGMENT
??1PullDownEvent@@UAE@XZ PROC				; PullDownEvent::~PullDownEvent, COMDAT
; _this$ = ecx

; 42   : 	virtual ~ PullDownEvent(){};

  00000	c7 01 00 00 00
	00		 mov	 DWORD PTR [ecx], OFFSET ??_7PullDownEvent@@6B@
  00006	c3		 ret	 0
??1PullDownEvent@@UAE@XZ ENDP				; PullDownEvent::~PullDownEvent
; Function compile flags: /Ogsp
_TEXT	ENDS
;	COMDAT ??_GPullDownEvent@@UAEPAXI@Z
_TEXT	SEGMENT
___flags$ = 8						; size = 4
??_GPullDownEvent@@UAEPAXI@Z PROC			; PullDownEvent::`scalar deleting destructor', COMDAT
; _this$ = ecx
  00000	55		 push	 ebp
  00001	8b ec		 mov	 ebp, esp
  00003	f6 45 08 01	 test	 BYTE PTR ___flags$[ebp], 1
  00007	56		 push	 esi
  00008	8b f1		 mov	 esi, ecx
  0000a	c7 06 00 00 00
	00		 mov	 DWORD PTR [esi], OFFSET ??_7PullDownEvent@@6B@
  00010	74 07		 je	 SHORT $LN1@scalar@2
  00012	56		 push	 esi
  00013	e8 00 00 00 00	 call	 ??3@YAXPAX@Z		; operator delete
  00018	59		 pop	 ecx
$LN1@scalar@2:
  00019	8b c6		 mov	 eax, esi
  0001b	5e		 pop	 esi
  0001c	5d		 pop	 ebp
  0001d	c2 04 00	 ret	 4
??_GPullDownEvent@@UAEPAXI@Z ENDP			; PullDownEvent::`scalar deleting destructor'
_TEXT	ENDS
PUBLIC	??_7OnOverPullDownEvent@@6B@			; OnOverPullDownEvent::`vftable'
PUBLIC	??0OnOverPullDownEvent@@QAE@PAVioPullDownList@@@Z ; OnOverPullDownEvent::OnOverPullDownEvent
PUBLIC	??_R4OnOverPullDownEvent@@6B@			; OnOverPullDownEvent::`RTTI Complete Object Locator'
PUBLIC	??_R0?AVOnOverPullDownEvent@@@8			; OnOverPullDownEvent `RTTI Type Descriptor'
PUBLIC	??_R3OnOverPullDownEvent@@8			; OnOverPullDownEvent::`RTTI Class Hierarchy Descriptor'
PUBLIC	??_R2OnOverPullDownEvent@@8			; OnOverPullDownEvent::`RTTI Base Class Array'
PUBLIC	??_R1A@?0A@EA@OnOverPullDownEvent@@8		; OnOverPullDownEvent::`RTTI Base Class Descriptor at (0,-1,0,64)'
EXTRN	??_EOnOverPullDownEvent@@UAEPAXI@Z:PROC		; OnOverPullDownEvent::`vector deleting destructor'
;	COMDAT ??_R1A@?0A@EA@OnOverPullDownEvent@@8
rdata$r	SEGMENT
??_R1A@?0A@EA@OnOverPullDownEvent@@8 DD FLAT:??_R0?AVOnOverPullDownEvent@@@8 ; OnOverPullDownEvent::`RTTI Base Class Descriptor at (0,-1,0,64)'
	DD	01H
	DD	00H
	DD	0ffffffffH
	DD	00H
	DD	040H
	DD	FLAT:??_R3OnOverPullDownEvent@@8
rdata$r	ENDS
;	COMDAT ??_R2OnOverPullDownEvent@@8
rdata$r	SEGMENT
??_R2OnOverPullDownEvent@@8 DD FLAT:??_R1A@?0A@EA@OnOverPullDownEvent@@8 ; OnOverPullDownEvent::`RTTI Base Class Array'
	DD	FLAT:??_R1A@?0A@EA@PullDownEvent@@8
rdata$r	ENDS
;	COMDAT ??_R3OnOverPullDownEvent@@8
rdata$r	SEGMENT
??_R3OnOverPullDownEvent@@8 DD 00H			; OnOverPullDownEvent::`RTTI Class Hierarchy Descriptor'
	DD	00H
	DD	02H
	DD	FLAT:??_R2OnOverPullDownEvent@@8
rdata$r	ENDS
;	COMDAT ??_R0?AVOnOverPullDownEvent@@@8
_DATA	SEGMENT
??_R0?AVOnOverPullDownEvent@@@8 DD FLAT:??_7type_info@@6B@ ; OnOverPullDownEvent `RTTI Type Descriptor'
	DD	00H
	DB	'.?AVOnOverPullDownEvent@@', 00H
_DATA	ENDS
;	COMDAT ??_R4OnOverPullDownEvent@@6B@
rdata$r	SEGMENT
??_R4OnOverPullDownEvent@@6B@ DD 00H			; OnOverPullDownEvent::`RTTI Complete Object Locator'
	DD	00H
	DD	00H
	DD	FLAT:??_R0?AVOnOverPullDownEvent@@@8
	DD	FLAT:??_R3OnOverPullDownEvent@@8
rdata$r	ENDS
;	COMDAT ??_7OnOverPullDownEvent@@6B@
CONST	SEGMENT
??_7OnOverPullDownEvent@@6B@ DD FLAT:??_R4OnOverPullDownEvent@@6B@ ; OnOverPullDownEvent::`vftable'
	DD	FLAT:??_EOnOverPullDownEvent@@UAEPAXI@Z
; Function compile flags: /Ogsp
CONST	ENDS
;	COMDAT ??0OnOverPullDownEvent@@QAE@PAVioPullDownList@@@Z
_TEXT	SEGMENT
_pCaller$ = 8						; size = 4
??0OnOverPullDownEvent@@QAE@PAVioPullDownList@@@Z PROC	; OnOverPullDownEvent::OnOverPullDownEvent, COMDAT
; _this$ = ecx

; 62   : 	{

  00000	55		 push	 ebp
  00001	8b ec		 mov	 ebp, esp
  00003	8b c1		 mov	 eax, ecx
  00005	8b 4d 08	 mov	 ecx, DWORD PTR _pCaller$[ebp]
  00008	83 60 08 00	 and	 DWORD PTR [eax+8], 0

; 63   : 		iOverIdx		= NONE_SELECT;

  0000c	83 48 0c ff	 or	 DWORD PTR [eax+12], -1

; 64   : 		iOverImageIdx	= NONE_SELECT;

  00010	83 48 10 ff	 or	 DWORD PTR [eax+16], -1
  00014	89 48 04	 mov	 DWORD PTR [eax+4], ecx
  00017	c7 00 00 00 00
	00		 mov	 DWORD PTR [eax], OFFSET ??_7OnOverPullDownEvent@@6B@

; 65   : 	}

  0001d	5d		 pop	 ebp
  0001e	c2 04 00	 ret	 4
??0OnOverPullDownEvent@@QAE@PAVioPullDownList@@@Z ENDP	; OnOverPullDownEvent::OnOverPullDownEvent
_TEXT	ENDS
PUBLIC	??1OnOverPullDownEvent@@UAE@XZ			; OnOverPullDownEvent::~OnOverPullDownEvent
; Function compile flags: /Ogsp
;	COMDAT ??1OnOverPullDownEvent@@UAE@XZ
_TEXT	SEGMENT
??1OnOverPullDownEvent@@UAE@XZ PROC			; OnOverPullDownEvent::~OnOverPullDownEvent, COMDAT
; _this$ = ecx

; 66   : 	virtual ~ OnOverPullDownEvent(){};

  00000	c7 01 00 00 00
	00		 mov	 DWORD PTR [ecx], OFFSET ??_7PullDownEvent@@6B@
  00006	c3		 ret	 0
??1OnOverPullDownEvent@@UAE@XZ ENDP			; OnOverPullDownEvent::~OnOverPullDownEvent
; Function compile flags: /Ogsp
_TEXT	ENDS
;	COMDAT ??_GOnOverPullDownEvent@@UAEPAXI@Z
_TEXT	SEGMENT
___flags$ = 8						; size = 4
??_GOnOverPullDownEvent@@UAEPAXI@Z PROC			; OnOverPullDownEvent::`scalar deleting destructor', COMDAT
; _this$ = ecx
  00000	55		 push	 ebp
  00001	8b ec		 mov	 ebp, esp
  00003	f6 45 08 01	 test	 BYTE PTR ___flags$[ebp], 1
  00007	56		 push	 esi
  00008	8b f1		 mov	 esi, ecx
  0000a	c7 06 00 00 00
	00		 mov	 DWORD PTR [esi], OFFSET ??_7PullDownEvent@@6B@
  00010	74 07		 je	 SHORT $LN1@scalar@3
  00012	56		 push	 esi
  00013	e8 00 00 00 00	 call	 ??3@YAXPAX@Z		; operator delete
  00018	59		 pop	 ecx
$LN1@scalar@3:
  00019	8b c6		 mov	 eax, esi
  0001b	5e		 pop	 esi
  0001c	5d		 pop	 ebp
  0001d	c2 04 00	 ret	 4
??_GOnOverPullDownEvent@@UAEPAXI@Z ENDP			; OnOverPullDownEvent::`scalar deleting destructor'
_TEXT	ENDS
PUBLIC	??_7ClickPullDownEvent@@6B@			; ClickPullDownEvent::`vftable'
PUBLIC	??0ClickPullDownEvent@@QAE@PAVioPullDownList@@@Z ; ClickPullDownEvent::ClickPullDownEvent
PUBLIC	??_R4ClickPullDownEvent@@6B@			; ClickPullDownEvent::`RTTI Complete Object Locator'
PUBLIC	??_R0?AVClickPullDownEvent@@@8			; ClickPullDownEvent `RTTI Type Descriptor'
PUBLIC	??_R3ClickPullDownEvent@@8			; ClickPullDownEvent::`RTTI Class Hierarchy Descriptor'
PUBLIC	??_R2ClickPullDownEvent@@8			; ClickPullDownEvent::`RTTI Base Class Array'
PUBLIC	??_R1A@?0A@EA@ClickPullDownEvent@@8		; ClickPullDownEvent::`RTTI Base Class Descriptor at (0,-1,0,64)'
EXTRN	??_EClickPullDownEvent@@UAEPAXI@Z:PROC		; ClickPullDownEvent::`vector deleting destructor'
;	COMDAT ??_R1A@?0A@EA@ClickPullDownEvent@@8
rdata$r	SEGMENT
??_R1A@?0A@EA@ClickPullDownEvent@@8 DD FLAT:??_R0?AVClickPullDownEvent@@@8 ; ClickPullDownEvent::`RTTI Base Class Descriptor at (0,-1,0,64)'
	DD	01H
	DD	00H
	DD	0ffffffffH
	DD	00H
	DD	040H
	DD	FLAT:??_R3ClickPullDownEvent@@8
rdata$r	ENDS
;	COMDAT ??_R2ClickPullDownEvent@@8
rdata$r	SEGMENT
??_R2ClickPullDownEvent@@8 DD FLAT:??_R1A@?0A@EA@ClickPullDownEvent@@8 ; ClickPullDownEvent::`RTTI Base Class Array'
	DD	FLAT:??_R1A@?0A@EA@PullDownEvent@@8
rdata$r	ENDS
;	COMDAT ??_R3ClickPullDownEvent@@8
rdata$r	SEGMENT
??_R3ClickPullDownEvent@@8 DD 00H			; ClickPullDownEvent::`RTTI Class Hierarchy Descriptor'
	DD	00H
	DD	02H
	DD	FLAT:??_R2ClickPullDownEvent@@8
rdata$r	ENDS
;	COMDAT ??_R0?AVClickPullDownEvent@@@8
_DATA	SEGMENT
??_R0?AVClickPullDownEvent@@@8 DD FLAT:??_7type_info@@6B@ ; ClickPullDownEvent `RTTI Type Descriptor'
	DD	00H
	DB	'.?AVClickPullDownEvent@@', 00H
_DATA	ENDS
;	COMDAT ??_R4ClickPullDownEvent@@6B@
rdata$r	SEGMENT
??_R4ClickPullDownEvent@@6B@ DD 00H			; ClickPullDownEvent::`RTTI Complete Object Locator'
	DD	00H
	DD	00H
	DD	FLAT:??_R0?AVClickPullDownEvent@@@8
	DD	FLAT:??_R3ClickPullDownEvent@@8
rdata$r	ENDS
;	COMDAT ??_7ClickPullDownEvent@@6B@
CONST	SEGMENT
??_7ClickPullDownEvent@@6B@ DD FLAT:??_R4ClickPullDownEvent@@6B@ ; ClickPullDownEvent::`vftable'
	DD	FLAT:??_EClickPullDownEvent@@UAEPAXI@Z
; Function compile flags: /Ogsp
CONST	ENDS
;	COMDAT ??0ClickPullDownEvent@@QAE@PAVioPullDownList@@@Z
_TEXT	SEGMENT
_pCaller$ = 8						; size = 4
??0ClickPullDownEvent@@QAE@PAVioPullDownList@@@Z PROC	; ClickPullDownEvent::ClickPullDownEvent, COMDAT
; _this$ = ecx

; 104  : 	{

  00000	55		 push	 ebp
  00001	8b ec		 mov	 ebp, esp
  00003	8b c1		 mov	 eax, ecx
  00005	8b 4d 08	 mov	 ecx, DWORD PTR _pCaller$[ebp]
  00008	83 60 08 00	 and	 DWORD PTR [eax+8], 0

; 105  : 		iClickIdx		= NONE_SELECT;

  0000c	83 48 0c ff	 or	 DWORD PTR [eax+12], -1

; 106  : 		iClickImageIdx	= NONE_SELECT;

  00010	83 48 10 ff	 or	 DWORD PTR [eax+16], -1

; 107  : 		iSelectChar		= -1;

  00014	83 48 14 ff	 or	 DWORD PTR [eax+20], -1
  00018	89 48 04	 mov	 DWORD PTR [eax+4], ecx
  0001b	c7 00 00 00 00
	00		 mov	 DWORD PTR [eax], OFFSET ??_7ClickPullDownEvent@@6B@

; 108  : 	}

  00021	5d		 pop	 ebp
  00022	c2 04 00	 ret	 4
??0ClickPullDownEvent@@QAE@PAVioPullDownList@@@Z ENDP	; ClickPullDownEvent::ClickPullDownEvent
_TEXT	ENDS
PUBLIC	??1ClickPullDownEvent@@UAE@XZ			; ClickPullDownEvent::~ClickPullDownEvent
; Function compile flags: /Ogsp
;	COMDAT ??1ClickPullDownEvent@@UAE@XZ
_TEXT	SEGMENT
??1ClickPullDownEvent@@UAE@XZ PROC			; ClickPullDownEvent::~ClickPullDownEvent, COMDAT
; _this$ = ecx

; 109  : 	virtual ~ ClickPullDownEvent(){};

  00000	c7 01 00 00 00
	00		 mov	 DWORD PTR [ecx], OFFSET ??_7PullDownEvent@@6B@
  00006	c3		 ret	 0
??1ClickPullDownEvent@@UAE@XZ ENDP			; ClickPullDownEvent::~ClickPullDownEvent
; Function compile flags: /Ogsp
_TEXT	ENDS
;	COMDAT ??_GClickPullDownEvent@@UAEPAXI@Z
_TEXT	SEGMENT
___flags$ = 8						; size = 4
??_GClickPullDownEvent@@UAEPAXI@Z PROC			; ClickPullDownEvent::`scalar deleting destructor', COMDAT
; _this$ = ecx
  00000	55		 push	 ebp
  00001	8b ec		 mov	 ebp, esp
  00003	f6 45 08 01	 test	 BYTE PTR ___flags$[ebp], 1
  00007	56		 push	 esi
  00008	8b f1		 mov	 esi, ecx
  0000a	c7 06 00 00 00
	00		 mov	 DWORD PTR [esi], OFFSET ??_7PullDownEvent@@6B@
  00010	74 07		 je	 SHORT $LN1@scalar@4
  00012	56		 push	 esi
  00013	e8 00 00 00 00	 call	 ??3@YAXPAX@Z		; operator delete
  00018	59		 pop	 ecx
$LN1@scalar@4:
  00019	8b c6		 mov	 eax, esi
  0001b	5e		 pop	 esi
  0001c	5d		 pop	 ebp
  0001d	c2 04 00	 ret	 4
??_GClickPullDownEvent@@UAEPAXI@Z ENDP			; ClickPullDownEvent::`scalar deleting destructor'
_TEXT	ENDS
PUBLIC	??_7OnLeavePullDownEvent@@6B@			; OnLeavePullDownEvent::`vftable'
PUBLIC	??0OnLeavePullDownEvent@@QAE@PAVioPullDownList@@@Z ; OnLeavePullDownEvent::OnLeavePullDownEvent
PUBLIC	??_R4OnLeavePullDownEvent@@6B@			; OnLeavePullDownEvent::`RTTI Complete Object Locator'
PUBLIC	??_R0?AVOnLeavePullDownEvent@@@8		; OnLeavePullDownEvent `RTTI Type Descriptor'
PUBLIC	??_R3OnLeavePullDownEvent@@8			; OnLeavePullDownEvent::`RTTI Class Hierarchy Descriptor'
PUBLIC	??_R2OnLeavePullDownEvent@@8			; OnLeavePullDownEvent::`RTTI Base Class Array'
PUBLIC	??_R1A@?0A@EA@OnLeavePullDownEvent@@8		; OnLeavePullDownEvent::`RTTI Base Class Descriptor at (0,-1,0,64)'
EXTRN	??_EOnLeavePullDownEvent@@UAEPAXI@Z:PROC	; OnLeavePullDownEvent::`vector deleting destructor'
;	COMDAT ??_R1A@?0A@EA@OnLeavePullDownEvent@@8
rdata$r	SEGMENT
??_R1A@?0A@EA@OnLeavePullDownEvent@@8 DD FLAT:??_R0?AVOnLeavePullDownEvent@@@8 ; OnLeavePullDownEvent::`RTTI Base Class Descriptor at (0,-1,0,64)'
	DD	01H
	DD	00H
	DD	0ffffffffH
	DD	00H
	DD	040H
	DD	FLAT:??_R3OnLeavePullDownEvent@@8
rdata$r	ENDS
;	COMDAT ??_R2OnLeavePullDownEvent@@8
rdata$r	SEGMENT
??_R2OnLeavePullDownEvent@@8 DD FLAT:??_R1A@?0A@EA@OnLeavePullDownEvent@@8 ; OnLeavePullDownEvent::`RTTI Base Class Array'
	DD	FLAT:??_R1A@?0A@EA@PullDownEvent@@8
rdata$r	ENDS
;	COMDAT ??_R3OnLeavePullDownEvent@@8
rdata$r	SEGMENT
??_R3OnLeavePullDownEvent@@8 DD 00H			; OnLeavePullDownEvent::`RTTI Class Hierarchy Descriptor'
	DD	00H
	DD	02H
	DD	FLAT:??_R2OnLeavePullDownEvent@@8
rdata$r	ENDS
;	COMDAT ??_R0?AVOnLeavePullDownEvent@@@8
_DATA	SEGMENT
??_R0?AVOnLeavePullDownEvent@@@8 DD FLAT:??_7type_info@@6B@ ; OnLeavePullDownEvent `RTTI Type Descriptor'
	DD	00H
	DB	'.?AVOnLeavePullDownEvent@@', 00H
_DATA	ENDS
;	COMDAT ??_R4OnLeavePullDownEvent@@6B@
rdata$r	SEGMENT
??_R4OnLeavePullDownEvent@@6B@ DD 00H			; OnLeavePullDownEvent::`RTTI Complete Object Locator'
	DD	00H
	DD	00H
	DD	FLAT:??_R0?AVOnLeavePullDownEvent@@@8
	DD	FLAT:??_R3OnLeavePullDownEvent@@8
rdata$r	ENDS
;	COMDAT ??_7OnLeavePullDownEvent@@6B@
CONST	SEGMENT
??_7OnLeavePullDownEvent@@6B@ DD FLAT:??_R4OnLeavePullDownEvent@@6B@ ; OnLeavePullDownEvent::`vftable'
	DD	FLAT:??_EOnLeavePullDownEvent@@UAEPAXI@Z
; Function compile flags: /Ogsp
CONST	ENDS
;	COMDAT ??0OnLeavePullDownEvent@@QAE@PAVioPullDownList@@@Z
_TEXT	SEGMENT
_pCaller$ = 8						; size = 4
??0OnLeavePullDownEvent@@QAE@PAVioPullDownList@@@Z PROC	; OnLeavePullDownEvent::OnLeavePullDownEvent, COMDAT
; _this$ = ecx

; 153  : 	{

  00000	55		 push	 ebp
  00001	8b ec		 mov	 ebp, esp
  00003	8b c1		 mov	 eax, ecx
  00005	8b 4d 08	 mov	 ecx, DWORD PTR _pCaller$[ebp]
  00008	83 60 08 00	 and	 DWORD PTR [eax+8], 0

; 154  : 		iLeaveIdx		= NONE_SELECT;

  0000c	83 48 0c ff	 or	 DWORD PTR [eax+12], -1

; 155  : 		iLeaveImageIdx	= NONE_SELECT;

  00010	83 48 10 ff	 or	 DWORD PTR [eax+16], -1
  00014	89 48 04	 mov	 DWORD PTR [eax+4], ecx
  00017	c7 00 00 00 00
	00		 mov	 DWORD PTR [eax], OFFSET ??_7OnLeavePullDownEvent@@6B@

; 156  : 	}

  0001d	5d		 pop	 ebp
  0001e	c2 04 00	 ret	 4
??0OnLeavePullDownEvent@@QAE@PAVioPullDownList@@@Z ENDP	; OnLeavePullDownEvent::OnLeavePullDownEvent
_TEXT	ENDS
PUBLIC	??1OnLeavePullDownEvent@@UAE@XZ			; OnLeavePullDownEvent::~OnLeavePullDownEvent
; Function compile flags: /Ogsp
;	COMDAT ??1OnLeavePullDownEvent@@UAE@XZ
_TEXT	SEGMENT
??1OnLeavePullDownEvent@@UAE@XZ PROC			; OnLeavePullDownEvent::~OnLeavePullDownEvent, COMDAT
; _this$ = ecx

; 157  : 	virtual ~ OnLeavePullDownEvent(){};

  00000	c7 01 00 00 00
	00		 mov	 DWORD PTR [ecx], OFFSET ??_7PullDownEvent@@6B@
  00006	c3		 ret	 0
??1OnLeavePullDownEvent@@UAE@XZ ENDP			; OnLeavePullDownEvent::~OnLeavePullDownEvent
; Function compile flags: /Ogsp
_TEXT	ENDS
;	COMDAT ??_GOnLeavePullDownEvent@@UAEPAXI@Z
_TEXT	SEGMENT
___flags$ = 8						; size = 4
??_GOnLeavePullDownEvent@@UAEPAXI@Z PROC		; OnLeavePullDownEvent::`scalar deleting destructor', COMDAT
; _this$ = ecx
  00000	55		 push	 ebp
  00001	8b ec		 mov	 ebp, esp
  00003	f6 45 08 01	 test	 BYTE PTR ___flags$[ebp], 1
  00007	56		 push	 esi
  00008	8b f1		 mov	 esi, ecx
  0000a	c7 06 00 00 00
	00		 mov	 DWORD PTR [esi], OFFSET ??_7PullDownEvent@@6B@
  00010	74 07		 je	 SHORT $LN1@scalar@5
  00012	56		 push	 esi
  00013	e8 00 00 00 00	 call	 ??3@YAXPAX@Z		; operator delete
  00018	59		 pop	 ecx
$LN1@scalar@5:
  00019	8b c6		 mov	 eax, esi
  0001b	5e		 pop	 esi
  0001c	5d		 pop	 ebp
  0001d	c2 04 00	 ret	 4
??_GOnLeavePullDownEvent@@UAEPAXI@Z ENDP		; OnLeavePullDownEvent::`scalar deleting destructor'
_TEXT	ENDS
PUBLIC	?GetPreClickWnd@ioSP2GUIManager@@QAEPAVioWnd@@XZ ; ioSP2GUIManager::GetPreClickWnd
; Function compile flags: /Ogsp
; File d:\lost saga for developer\youtube\tutorial\source\src\lsclient\gui\iosp2guimanager.h
;	COMDAT ?GetPreClickWnd@ioSP2GUIManager@@QAEPAVioWnd@@XZ
_TEXT	SEGMENT
?GetPreClickWnd@ioSP2GUIManager@@QAEPAVioWnd@@XZ PROC	; ioSP2GUIManager::GetPreClickWnd, COMDAT
; _this$ = ecx

; 221  : 	ioWnd *GetPreClickWnd(){ return m_pPreClickWnd; }

  00000	8b 41 14	 mov	 eax, DWORD PTR [ecx+20]
  00003	c3		 ret	 0
?GetPreClickWnd@ioSP2GUIManager@@QAEPAVioWnd@@XZ ENDP	; ioSP2GUIManager::GetPreClickWnd
_TEXT	ENDS
EXTRN	__imp_??0exception@std@@QAE@ABV01@@Z:PROC
; Function compile flags: /Ogsp
;	COMDAT ??0bad_alloc@std@@QAE@ABV01@@Z
_TEXT	SEGMENT
___that$ = 8						; size = 4
??0bad_alloc@std@@QAE@ABV01@@Z PROC			; std::bad_alloc::bad_alloc, COMDAT
; _this$ = ecx
  00000	55		 push	 ebp
  00001	8b ec		 mov	 ebp, esp
  00003	56		 push	 esi
  00004	ff 75 08	 push	 DWORD PTR ___that$[ebp]
  00007	8b f1		 mov	 esi, ecx
  00009	ff 15 00 00 00
	00		 call	 DWORD PTR __imp_??0exception@std@@QAE@ABV01@@Z
  0000f	c7 06 00 00 00
	00		 mov	 DWORD PTR [esi], OFFSET ??_7bad_alloc@std@@6B@
  00015	8b c6		 mov	 eax, esi
  00017	5e		 pop	 esi
  00018	5d		 pop	 ebp
  00019	c2 04 00	 ret	 4
??0bad_alloc@std@@QAE@ABV01@@Z ENDP			; std::bad_alloc::bad_alloc
_TEXT	ENDS
PUBLIC	?GetPullDown@ioPullDownList@@QBEPAVioPullDownItem@@H@Z ; ioPullDownList::GetPullDown
; Function compile flags: /Ogsp
; File d:\lost saga for developer\youtube\tutorial\source\src\lsclient\gui\iopulldownlist.cpp
;	COMDAT ?GetPullDown@ioPullDownList@@QBEPAVioPullDownItem@@H@Z
_TEXT	SEGMENT
_nIdx$ = 8						; size = 4
?GetPullDown@ioPullDownList@@QBEPAVioPullDownItem@@H@Z PROC ; ioPullDownList::GetPullDown, COMDAT
; _this$ = ecx

; 251  : {

  00000	55		 push	 ebp
  00001	8b ec		 mov	 ebp, esp

; 252  : 	if( m_vPullDownItem.empty() )

  00003	8b 91 94 01 00
	00		 mov	 edx, DWORD PTR [ecx+404]
  00009	8b 81 98 01 00
	00		 mov	 eax, DWORD PTR [ecx+408]
  0000f	3b d0		 cmp	 edx, eax
  00011	75 04		 jne	 SHORT $LN2@GetPullDow

; 253  : 		return NULL;

  00013	33 c0		 xor	 eax, eax
  00015	eb 19		 jmp	 SHORT $LN3@GetPullDow
$LN2@GetPullDow:
  00017	56		 push	 esi

; 256  : 	if( COMPARE( nIdx , 0, iSize ) )

  00018	8b 75 08	 mov	 esi, DWORD PTR _nIdx$[ebp]
  0001b	85 f6		 test	 esi, esi
  0001d	78 0e		 js	 SHORT $LN1@GetPullDow

; 254  : 
; 255  : 	int iSize = static_cast<int>( m_vPullDownItem.size() );

  0001f	2b c2		 sub	 eax, edx
  00021	c1 f8 02	 sar	 eax, 2

; 256  : 	if( COMPARE( nIdx , 0, iSize ) )

  00024	3b f0		 cmp	 esi, eax
  00026	7d 05		 jge	 SHORT $LN1@GetPullDow

; 257  : 		return m_vPullDownItem[nIdx];

  00028	8b 04 b2	 mov	 eax, DWORD PTR [edx+esi*4]
  0002b	eb 02		 jmp	 SHORT $LN11@GetPullDow
$LN1@GetPullDow:

; 258  : 
; 259  : 	return NULL;

  0002d	33 c0		 xor	 eax, eax
$LN11@GetPullDow:
  0002f	5e		 pop	 esi
$LN3@GetPullDow:

; 260  : }

  00030	5d		 pop	 ebp
  00031	c2 04 00	 ret	 4
?GetPullDown@ioPullDownList@@QBEPAVioPullDownItem@@H@Z ENDP ; ioPullDownList::GetPullDown
_TEXT	ENDS
PUBLIC	?GetPullDownCount@ioPullDownList@@QBEHXZ	; ioPullDownList::GetPullDownCount
; Function compile flags: /Ogsp
;	COMDAT ?GetPullDownCount@ioPullDownList@@QBEHXZ
_TEXT	SEGMENT
?GetPullDownCount@ioPullDownList@@QBEHXZ PROC		; ioPullDownList::GetPullDownCount, COMDAT
; _this$ = ecx

; 264  : 	return static_cast<int>( m_vPullDownItem.size() );

  00000	8b 81 98 01 00
	00		 mov	 eax, DWORD PTR [ecx+408]
  00006	2b 81 94 01 00
	00		 sub	 eax, DWORD PTR [ecx+404]
  0000c	c1 f8 02	 sar	 eax, 2

; 265  : }

  0000f	c3		 ret	 0
?GetPullDownCount@ioPullDownList@@QBEHXZ ENDP		; ioPullDownList::GetPullDownCount
_TEXT	ENDS
PUBLIC	??_R0?AVioWnd@@@8				; ioWnd `RTTI Type Descriptor'
PUBLIC	??_R0?AVioScroll@@@8				; ioScroll `RTTI Type Descriptor'
PUBLIC	?GetIndexToXYPos@ioPullDownList@@QAE_NHAAM0@Z	; ioPullDownList::GetIndexToXYPos
EXTRN	__imp_?GetWidth@ioWnd@@QBEHXZ:PROC
EXTRN	__imp_?GetDerivedPosY@ioWnd@@QBEHXZ:PROC
EXTRN	__imp_?GetDerivedPosX@ioWnd@@QBEHXZ:PROC
EXTRN	__fltused:DWORD
EXTRN	___RTDynamicCast:PROC
;	COMDAT ??_R0?AVioWnd@@@8
_DATA	SEGMENT
??_R0?AVioWnd@@@8 DD FLAT:??_7type_info@@6B@		; ioWnd `RTTI Type Descriptor'
	DD	00H
	DB	'.?AVioWnd@@', 00H
_DATA	ENDS
;	COMDAT ??_R0?AVioScroll@@@8
_DATA	SEGMENT
??_R0?AVioScroll@@@8 DD FLAT:??_7type_info@@6B@		; ioScroll `RTTI Type Descriptor'
	DD	00H
	DB	'.?AVioScroll@@', 00H
; Function compile flags: /Ogsp
_DATA	ENDS
;	COMDAT ?GetIndexToXYPos@ioPullDownList@@QAE_NHAAM0@Z
_TEXT	SEGMENT
_iYPos$ = -12						; size = 4
_iXPos$ = -8						; size = 4
tv198 = -4						; size = 4
_iSelectIndex$ = 8					; size = 4
_rfXPos$ = 12						; size = 4
_rfYPos$ = 16						; size = 4
?GetIndexToXYPos@ioPullDownList@@QAE_NHAAM0@Z PROC	; ioPullDownList::GetIndexToXYPos, COMDAT
; _this$ = ecx

; 269  : {

  00000	55		 push	 ebp
  00001	8b ec		 mov	 ebp, esp
  00003	83 ec 0c	 sub	 esp, 12			; 0000000cH
  00006	53		 push	 ebx

; 270  : 	int iXPos = GetDerivedPosX();

  00007	8b 1d 00 00 00
	00		 mov	 ebx, DWORD PTR __imp_?GetDerivedPosX@ioWnd@@QBEHXZ
  0000d	56		 push	 esi
  0000e	57		 push	 edi
  0000f	8b f1		 mov	 esi, ecx
  00011	ff d3		 call	 ebx

; 271  : 	int iYPos = GetDerivedPosY();

  00013	8b ce		 mov	 ecx, esi
  00015	89 45 f8	 mov	 DWORD PTR _iXPos$[ebp], eax
  00018	ff 15 00 00 00
	00		 call	 DWORD PTR __imp_?GetDerivedPosY@ioWnd@@QBEHXZ

; 272  : 	
; 273  : 	for( int i = m_iCurPos; i < m_iCurPos + m_iMaxPageList; ++i )

  0001e	8b be 88 01 00
	00		 mov	 edi, DWORD PTR [esi+392]
  00024	89 45 f4	 mov	 DWORD PTR _iYPos$[ebp], eax
  00027	8b 86 80 01 00
	00		 mov	 eax, DWORD PTR [esi+384]
  0002d	03 c7		 add	 eax, edi
  0002f	89 45 fc	 mov	 DWORD PTR tv198[ebp], eax
  00032	3b f8		 cmp	 edi, eax
  00034	7d 1a		 jge	 SHORT $LN12@GetIndexTo
$LL6@GetIndexTo:

; 274  : 	{
; 275  : 		ioPullDownItem* pPullDown = GetPullDown( i );

  00036	57		 push	 edi
  00037	8b ce		 mov	 ecx, esi
  00039	e8 00 00 00 00	 call	 ?GetPullDown@ioPullDownList@@QBEPAVioPullDownItem@@H@Z ; ioPullDownList::GetPullDown

; 276  : 		if( !pPullDown )

  0003e	85 c0		 test	 eax, eax
  00040	74 08		 je	 SHORT $LN5@GetIndexTo

; 277  : 			continue;
; 278  : 
; 279  : 		if( pPullDown->m_iIndex == iSelectIndex )

  00042	8b 40 08	 mov	 eax, DWORD PTR [eax+8]
  00045	3b 45 08	 cmp	 eax, DWORD PTR _iSelectIndex$[ebp]
  00048	74 69		 je	 SHORT $LN10@GetIndexTo
$LN5@GetIndexTo:

; 272  : 	
; 273  : 	for( int i = m_iCurPos; i < m_iCurPos + m_iMaxPageList; ++i )

  0004a	47		 inc	 edi
  0004b	3b 7d fc	 cmp	 edi, DWORD PTR tv198[ebp]
  0004e	7c e6		 jl	 SHORT $LL6@GetIndexTo
$LN12@GetIndexTo:

; 284  : 		}
; 285  : 	}
; 286  : 
; 287  : 	// 없으면 스크롤
; 288  : 	ioScroll *pScroll = dynamic_cast<ioScroll*>( FindChildWnd( ID_VERT_SCROLL ) );

  00050	6a 00		 push	 0
  00052	68 00 00 00 00	 push	 OFFSET ??_R0?AVioScroll@@@8
  00057	68 00 00 00 00	 push	 OFFSET ??_R0?AVioWnd@@@8
  0005c	6a 00		 push	 0
  0005e	68 e8 03 00 00	 push	 1000			; 000003e8H
  00063	8b ce		 mov	 ecx, esi
  00065	ff 15 00 00 00
	00		 call	 DWORD PTR __imp_?FindChildWnd@ioWnd@@QAEPAV1@K@Z
  0006b	50		 push	 eax
  0006c	e8 00 00 00 00	 call	 ___RTDynamicCast
  00071	8b f0		 mov	 esi, eax
  00073	83 c4 14	 add	 esp, 20			; 00000014H

; 289  : 	if( pScroll && pScroll->IsShow() )

  00076	85 f6		 test	 esi, esi
  00078	74 79		 je	 SHORT $LN1@GetIndexTo
  0007a	8b ce		 mov	 ecx, esi
  0007c	ff 15 00 00 00
	00		 call	 DWORD PTR __imp_?IsShow@ioWnd@@QBE_NXZ
  00082	84 c0		 test	 al, al
  00084	74 6d		 je	 SHORT $LN1@GetIndexTo

; 290  : 	{
; 291  : 		rfXPos = pScroll->GetDerivedPosX() + ( pScroll->GetWidth() / 2 );

  00086	8b ce		 mov	 ecx, esi
  00088	ff 15 00 00 00
	00		 call	 DWORD PTR __imp_?GetWidth@ioWnd@@QBEHXZ
  0008e	99		 cdq
  0008f	2b c2		 sub	 eax, edx
  00091	8b f8		 mov	 edi, eax
  00093	8b ce		 mov	 ecx, esi
  00095	d1 ff		 sar	 edi, 1
  00097	ff d3		 call	 ebx
  00099	03 c7		 add	 eax, edi
  0009b	0f 57 c0	 xorps	 xmm0, xmm0
  0009e	f3 0f 2a c0	 cvtsi2ss xmm0, eax
  000a2	8b 45 0c	 mov	 eax, DWORD PTR _rfXPos$[ebp]

; 292  : 		rfYPos = pScroll->GetDerivedPosY();

  000a5	8b ce		 mov	 ecx, esi
  000a7	f3 0f 11 00	 movss	 DWORD PTR [eax], xmm0
  000ab	ff 15 00 00 00
	00		 call	 DWORD PTR __imp_?GetDerivedPosY@ioWnd@@QBEHXZ

; 293  : 		return true;

  000b1	eb 2e		 jmp	 SHORT $LN13@GetIndexTo
$LN10@GetIndexTo:

; 280  : 		{
; 281  : 			rfXPos = iXPos + GetWidth() / 2;

  000b3	ff 15 00 00 00
	00		 call	 DWORD PTR __imp_?GetWidth@ioWnd@@QBEHXZ
  000b9	99		 cdq
  000ba	2b c2		 sub	 eax, edx
  000bc	d1 f8		 sar	 eax, 1
  000be	03 45 f8	 add	 eax, DWORD PTR _iXPos$[ebp]
  000c1	0f 57 c0	 xorps	 xmm0, xmm0
  000c4	f3 0f 2a c0	 cvtsi2ss xmm0, eax
  000c8	8b 45 0c	 mov	 eax, DWORD PTR _rfXPos$[ebp]
  000cb	f3 0f 11 00	 movss	 DWORD PTR [eax], xmm0

; 282  : 			rfYPos = iYPos + m_iBlankHeight + i * m_iListHeight;

  000cf	8b 86 7c 01 00
	00		 mov	 eax, DWORD PTR [esi+380]
  000d5	0f af c7	 imul	 eax, edi
  000d8	03 86 78 01 00
	00		 add	 eax, DWORD PTR [esi+376]
  000de	03 45 f4	 add	 eax, DWORD PTR _iYPos$[ebp]
$LN13@GetIndexTo:
  000e1	0f 57 c0	 xorps	 xmm0, xmm0
  000e4	f3 0f 2a c0	 cvtsi2ss xmm0, eax
  000e8	8b 45 10	 mov	 eax, DWORD PTR _rfYPos$[ebp]
  000eb	f3 0f 11 00	 movss	 DWORD PTR [eax], xmm0

; 283  : 			return true;

  000ef	b0 01		 mov	 al, 1
  000f1	eb 02		 jmp	 SHORT $LN7@GetIndexTo
$LN1@GetIndexTo:

; 294  : 	}
; 295  : 
; 296  : 	return false;

  000f3	32 c0		 xor	 al, al
$LN7@GetIndexTo:
  000f5	5f		 pop	 edi
  000f6	5e		 pop	 esi
  000f7	5b		 pop	 ebx

; 297  : }

  000f8	c9		 leave
  000f9	c2 0c 00	 ret	 12			; 0000000cH
?GetIndexToXYPos@ioPullDownList@@QAE_NHAAM0@Z ENDP	; ioPullDownList::GetIndexToXYPos
_TEXT	ENDS
PUBLIC	?GetScrollBarCutWidth@ioPullDownList@@QAEHXZ	; ioPullDownList::GetScrollBarCutWidth
; Function compile flags: /Ogsp
;	COMDAT ?GetScrollBarCutWidth@ioPullDownList@@QAEHXZ
_TEXT	SEGMENT
?GetScrollBarCutWidth@ioPullDownList@@QAEHXZ PROC	; ioPullDownList::GetScrollBarCutWidth, COMDAT
; _this$ = ecx

; 300  : {

  00000	56		 push	 esi

; 301  : 	ioWnd* pWnd = FindChildWnd( ID_VERT_SCROLL );

  00001	68 e8 03 00 00	 push	 1000			; 000003e8H
  00006	8b f1		 mov	 esi, ecx
  00008	ff 15 00 00 00
	00		 call	 DWORD PTR __imp_?FindChildWnd@ioWnd@@QAEPAV1@K@Z

; 302  : 	if( pWnd && (int)m_vPullDownItem.size() > m_iMaxPageList )

  0000e	85 c0		 test	 eax, eax
  00010	74 20		 je	 SHORT $LN1@GetScrollB
  00012	8b 8e 98 01 00
	00		 mov	 ecx, DWORD PTR [esi+408]
  00018	2b 8e 94 01 00
	00		 sub	 ecx, DWORD PTR [esi+404]
  0001e	c1 f9 02	 sar	 ecx, 2
  00021	3b 8e 80 01 00
	00		 cmp	 ecx, DWORD PTR [esi+384]
  00027	7e 09		 jle	 SHORT $LN1@GetScrollB

; 303  : 	{
; 304  : 		return pWnd->GetWidth();

  00029	8b c8		 mov	 ecx, eax
  0002b	5e		 pop	 esi
  0002c	ff 25 00 00 00
	00		 jmp	 DWORD PTR __imp_?GetWidth@ioWnd@@QBEHXZ
$LN1@GetScrollB:

; 305  : 	}
; 306  : 
; 307  : 	return 0;

  00032	33 c0		 xor	 eax, eax
  00034	5e		 pop	 esi

; 308  : }

  00035	c3		 ret	 0
?GetScrollBarCutWidth@ioPullDownList@@QAEHXZ ENDP	; ioPullDownList::GetScrollBarCutWidth
_TEXT	ENDS
PUBLIC	?GetOverPullDown@ioPullDownList@@QAEPAVioPullDownItem@@XZ ; ioPullDownList::GetOverPullDown
; Function compile flags: /Ogsp
;	COMDAT ?GetOverPullDown@ioPullDownList@@QAEPAVioPullDownItem@@XZ
_TEXT	SEGMENT
?GetOverPullDown@ioPullDownList@@QAEPAVioPullDownItem@@XZ PROC ; ioPullDownList::GetOverPullDown, COMDAT
; _this$ = ecx

; 311  : {

  00000	57		 push	 edi

; 312  : 	if( m_iOverSelectIndex == PullDownEvent::NONE_SELECT )

  00001	8b b9 8c 01 00
	00		 mov	 edi, DWORD PTR [ecx+396]
  00007	83 ff ff	 cmp	 edi, -1
  0000a	75 04		 jne	 SHORT $LN5@GetOverPul

; 313  : 		return NULL;

  0000c	33 c0		 xor	 eax, eax
  0000e	5f		 pop	 edi

; 324  : }

  0000f	c3		 ret	 0
$LN5@GetOverPul:

; 314  : 	
; 315  : 	int iListSize = m_vPullDownItem.size();

  00010	8b 91 94 01 00
	00		 mov	 edx, DWORD PTR [ecx+404]
  00016	8b 89 98 01 00
	00		 mov	 ecx, DWORD PTR [ecx+408]
  0001c	2b ca		 sub	 ecx, edx
  0001e	56		 push	 esi
  0001f	c1 f9 02	 sar	 ecx, 2

; 316  : 	for(int i = 0 ; i < iListSize ; ++i )

  00022	33 f6		 xor	 esi, esi
  00024	85 c9		 test	 ecx, ecx
  00026	7e 13		 jle	 SHORT $LN2@GetOverPul
$LL4@GetOverPul:

; 317  : 	{
; 318  : 		ioPullDownItem* pPullDown = m_vPullDownItem[i];

  00028	8b 02		 mov	 eax, DWORD PTR [edx]

; 319  : 		if( pPullDown && pPullDown->m_iIndex == m_iOverSelectIndex )

  0002a	85 c0		 test	 eax, eax
  0002c	74 05		 je	 SHORT $LN3@GetOverPul
  0002e	39 78 08	 cmp	 DWORD PTR [eax+8], edi
  00031	74 0a		 je	 SHORT $LN15@GetOverPul
$LN3@GetOverPul:

; 316  : 	for(int i = 0 ; i < iListSize ; ++i )

  00033	46		 inc	 esi
  00034	83 c2 04	 add	 edx, 4
  00037	3b f1		 cmp	 esi, ecx
  00039	7c ed		 jl	 SHORT $LL4@GetOverPul
$LN2@GetOverPul:

; 320  : 			return pPullDown;
; 321  : 	}
; 322  : 
; 323  : 	return NULL;

  0003b	33 c0		 xor	 eax, eax
$LN15@GetOverPul:
  0003d	5e		 pop	 esi
  0003e	5f		 pop	 edi

; 324  : }

  0003f	c3		 ret	 0
?GetOverPullDown@ioPullDownList@@QAEPAVioPullDownItem@@XZ ENDP ; ioPullDownList::GetOverPullDown
_TEXT	ENDS
PUBLIC	??_C@_0BL@DICHEIPF@?$CFs?5?9?5pListener?5?$DN?$DN?5NULL?5?$CB?$CB?$CB?$AA@ ; `string'
PUBLIC	??_C@_0BP@IHBKOIDM@ioPullDownList?3?3OnPullDownOver?$AA@ ; `string'
PUBLIC	??_R0?AVPullDownEventListener@@@8		; PullDownEventListener `RTTI Type Descriptor'
PUBLIC	?OnPullDownOver@ioPullDownList@@QAEXHH@Z	; ioPullDownList::OnPullDownOver
EXTRN	__imp_?PrintTimeAndLog@CLog@@QAAXHPADZZ:PROC
EXTRN	__imp_?LOG@@3VCLog@@A:BYTE
EXTRN	__imp_?GetParent@ioWnd@@QAEPAV1@XZ:PROC
EXTRN	___CxxFrameHandler3:PROC
EXTRN	@__security_check_cookie@4:PROC
EXTRN	__EH_epilog3:PROC
EXTRN	__EH_prolog3:PROC
;	COMDAT ??_C@_0BL@DICHEIPF@?$CFs?5?9?5pListener?5?$DN?$DN?5NULL?5?$CB?$CB?$CB?$AA@
; File d:\lost saga for developer\youtube\tutorial\source\src\lsclient\gui\iopulldowneventlistener.h
CONST	SEGMENT
??_C@_0BL@DICHEIPF@?$CFs?5?9?5pListener?5?$DN?$DN?5NULL?5?$CB?$CB?$CB?$AA@ DB '%'
	DB	's - pListener == NULL !!!', 00H		; `string'
CONST	ENDS
;	COMDAT ??_C@_0BP@IHBKOIDM@ioPullDownList?3?3OnPullDownOver?$AA@
CONST	SEGMENT
??_C@_0BP@IHBKOIDM@ioPullDownList?3?3OnPullDownOver?$AA@ DB 'ioPullDownLi'
	DB	'st::OnPullDownOver', 00H			; `string'
CONST	ENDS
;	COMDAT ??_R0?AVPullDownEventListener@@@8
_DATA	SEGMENT
??_R0?AVPullDownEventListener@@@8 DD FLAT:??_7type_info@@6B@ ; PullDownEventListener `RTTI Type Descriptor'
	DD	00H
	DB	'.?AVPullDownEventListener@@', 00H
_DATA	ENDS
;	COMDAT xdata$x
xdata$x	SEGMENT
__unwindtable$?OnPullDownOver@ioPullDownList@@QAEXHH@Z DD 0ffffffffH
	DD	FLAT:__unwindfunclet$?OnPullDownOver@ioPullDownList@@QAEXHH@Z$0
	DD	0ffffffffH
	DD	FLAT:__unwindfunclet$?OnPullDownOver@ioPullDownList@@QAEXHH@Z$1
__ehfuncinfo$?OnPullDownOver@ioPullDownList@@QAEXHH@Z DD 019930522H
	DD	02H
	DD	FLAT:__unwindtable$?OnPullDownOver@ioPullDownList@@QAEXHH@Z
	DD	2 DUP(00H)
	DD	2 DUP(00H)
	DD	00H
	DD	01H
; Function compile flags: /Ogsp
; File d:\lost saga for developer\youtube\tutorial\source\src\lsclient\gui\iopulldownlist.cpp
xdata$x	ENDS
;	COMDAT ?OnPullDownOver@ioPullDownList@@QAEXHH@Z
_TEXT	SEGMENT
_Event$519892 = -32					; size = 20
_Event$519889 = -32					; size = 20
__$EHRec$ = -12						; size = 12
_iOverIdx$ = 8						; size = 4
_iOverImageIdx$ = 12					; size = 4
?OnPullDownOver@ioPullDownList@@QAEXHH@Z PROC		; ioPullDownList::OnPullDownOver, COMDAT
; _this$ = ecx

; 452  : {

  00000	6a 14		 push	 20			; 00000014H
  00002	b8 00 00 00 00	 mov	 eax, __ehhandler$?OnPullDownOver@ioPullDownList@@QAEXHH@Z
  00007	e8 00 00 00 00	 call	 __EH_prolog3
  0000c	8b f1		 mov	 esi, ecx

; 453  : 	PullDownEventListener* pListener = dynamic_cast<PullDownEventListener*>( GetParent() );

  0000e	33 ff		 xor	 edi, edi
  00010	57		 push	 edi
  00011	68 00 00 00 00	 push	 OFFSET ??_R0?AVPullDownEventListener@@@8
  00016	68 00 00 00 00	 push	 OFFSET ??_R0?AVioWnd@@@8
  0001b	57		 push	 edi
  0001c	ff 15 00 00 00
	00		 call	 DWORD PTR __imp_?GetParent@ioWnd@@QAEPAV1@XZ
  00022	50		 push	 eax
  00023	e8 00 00 00 00	 call	 ___RTDynamicCast
  00028	8b c8		 mov	 ecx, eax
  0002a	83 c4 14	 add	 esp, 20			; 00000014H

; 454  : 	if( !pListener )

  0002d	3b cf		 cmp	 ecx, edi
  0002f	75 1c		 jne	 SHORT $LN4@OnPullDown

; 455  : 	{
; 456  : 		LOG.PrintTimeAndLog(0, "%s - pListener == NULL !!!", __FUNCTION__ );

  00031	68 00 00 00 00	 push	 OFFSET ??_C@_0BP@IHBKOIDM@ioPullDownList?3?3OnPullDownOver?$AA@
  00036	68 00 00 00 00	 push	 OFFSET ??_C@_0BL@DICHEIPF@?$CFs?5?9?5pListener?5?$DN?$DN?5NULL?5?$CB?$CB?$CB?$AA@
  0003b	57		 push	 edi
  0003c	ff 35 00 00 00
	00		 push	 DWORD PTR __imp_?LOG@@3VCLog@@A
  00042	ff 15 00 00 00
	00		 call	 DWORD PTR __imp_?PrintTimeAndLog@CLog@@QAAXHPADZZ
  00048	83 c4 10	 add	 esp, 16			; 00000010H

; 457  : 		return;

  0004b	eb 51		 jmp	 SHORT $LN23@OnPullDown
$LN4@OnPullDown:

; 458  : 	}
; 459  : 
; 460  : 	//오버 이벤트 객체 생성
; 461  : 	if( iOverIdx != PullDownEvent::NONE_SELECT && iOverImageIdx == PullDownEvent::NONE_SELECT )

  0004d	8b 45 08	 mov	 eax, DWORD PTR _iOverIdx$[ebp]
  00050	83 ca ff	 or	 edx, -1
  00053	3b c2		 cmp	 eax, edx
  00055	74 1d		 je	 SHORT $LN3@OnPullDown
  00057	39 55 0c	 cmp	 DWORD PTR _iOverImageIdx$[ebp], edx
  0005a	75 1d		 jne	 SHORT $LN25@OnPullDown

; 462  : 	{
; 463  : 		OnOverPullDownEvent Event( this );

  0005c	89 7d e8	 mov	 DWORD PTR _Event$519889[ebp+8], edi
  0005f	89 75 e4	 mov	 DWORD PTR _Event$519889[ebp+4], esi
  00062	c7 45 e0 00 00
	00 00		 mov	 DWORD PTR _Event$519889[ebp], OFFSET ??_7OnOverPullDownEvent@@6B@
  00069	89 55 f0	 mov	 DWORD PTR _Event$519889[ebp+16], edx
  0006c	89 7d fc	 mov	 DWORD PTR __$EHRec$[ebp+8], edi

; 464  : 		Event.iOverIdx = iOverIdx;

  0006f	89 45 ec	 mov	 DWORD PTR _Event$519889[ebp+12], eax

; 465  : 		pListener->iwm_pulldown_event( Event );
; 466  : 	}

  00072	eb 22		 jmp	 SHORT $LN27@OnPullDown
$LN3@OnPullDown:

; 467  : 	else if( iOverImageIdx != PullDownEvent::NONE_SELECT )

  00074	39 55 0c	 cmp	 DWORD PTR _iOverImageIdx$[ebp], edx
  00077	74 25		 je	 SHORT $LN23@OnPullDown
$LN25@OnPullDown:

; 468  : 	{
; 469  : 		OnOverPullDownEvent Event( this );

  00079	89 7d e8	 mov	 DWORD PTR _Event$519892[ebp+8], edi
  0007c	89 75 e4	 mov	 DWORD PTR _Event$519892[ebp+4], esi
  0007f	c7 45 e0 00 00
	00 00		 mov	 DWORD PTR _Event$519892[ebp], OFFSET ??_7OnOverPullDownEvent@@6B@

; 470  : 		Event.iOverIdx		= iOverIdx;

  00086	89 45 ec	 mov	 DWORD PTR _Event$519892[ebp+12], eax

; 471  : 		Event.iOverImageIdx = iOverImageIdx;

  00089	8b 45 0c	 mov	 eax, DWORD PTR _iOverImageIdx$[ebp]
  0008c	c7 45 fc 01 00
	00 00		 mov	 DWORD PTR __$EHRec$[ebp+8], 1
  00093	89 45 f0	 mov	 DWORD PTR _Event$519892[ebp+16], eax
$LN27@OnPullDown:

; 472  : 		pListener->iwm_pulldown_event( Event );

  00096	8b 01		 mov	 eax, DWORD PTR [ecx]
  00098	8d 55 e0	 lea	 edx, DWORD PTR _Event$519892[ebp]
  0009b	52		 push	 edx
  0009c	ff 10		 call	 DWORD PTR [eax]

; 473  : 	}

$LN23@OnPullDown:

; 474  : }

  0009e	e8 00 00 00 00	 call	 __EH_epilog3
  000a3	c2 08 00	 ret	 8
_TEXT	ENDS
;	COMDAT text$x
text$x	SEGMENT
__unwindfunclet$?OnPullDownOver@ioPullDownList@@QAEXHH@Z$0:
  00000	8d 4d e0	 lea	 ecx, DWORD PTR _Event$519889[ebp]
  00003	e9 00 00 00 00	 jmp	 ??1OnOverPullDownEvent@@UAE@XZ ; OnOverPullDownEvent::~OnOverPullDownEvent
__unwindfunclet$?OnPullDownOver@ioPullDownList@@QAEXHH@Z$1:
  00008	8d 4d e0	 lea	 ecx, DWORD PTR _Event$519892[ebp]
  0000b	e9 00 00 00 00	 jmp	 ??1OnOverPullDownEvent@@UAE@XZ ; OnOverPullDownEvent::~OnOverPullDownEvent
__ehhandler$?OnPullDownOver@ioPullDownList@@QAEXHH@Z:
  00010	8b 54 24 08	 mov	 edx, DWORD PTR [esp+8]
  00014	8d 42 0c	 lea	 eax, DWORD PTR [edx+12]
  00017	8b 4a dc	 mov	 ecx, DWORD PTR [edx-36]
  0001a	33 c8		 xor	 ecx, eax
  0001c	e8 00 00 00 00	 call	 @__security_check_cookie@4
  00021	b8 00 00 00 00	 mov	 eax, OFFSET __ehfuncinfo$?OnPullDownOver@ioPullDownList@@QAEXHH@Z
  00026	e9 00 00 00 00	 jmp	 ___CxxFrameHandler3
text$x	ENDS
?OnPullDownOver@ioPullDownList@@QAEXHH@Z ENDP		; ioPullDownList::OnPullDownOver
PUBLIC	??_C@_0CA@KDEBONKE@ioPullDownList?3?3OnPullDownClick?$AA@ ; `string'
PUBLIC	?OnPullDownClick@ioPullDownList@@QAEXHH@Z	; ioPullDownList::OnPullDownClick
;	COMDAT ??_C@_0CA@KDEBONKE@ioPullDownList?3?3OnPullDownClick?$AA@
; File d:\lost saga for developer\youtube\tutorial\source\src\lsclient\gui\iopulldowneventlistener.h
CONST	SEGMENT
??_C@_0CA@KDEBONKE@ioPullDownList?3?3OnPullDownClick?$AA@ DB 'ioPullDownL'
	DB	'ist::OnPullDownClick', 00H			; `string'
CONST	ENDS
;	COMDAT xdata$x
xdata$x	SEGMENT
__unwindtable$?OnPullDownClick@ioPullDownList@@QAEXHH@Z DD 0ffffffffH
	DD	FLAT:__unwindfunclet$?OnPullDownClick@ioPullDownList@@QAEXHH@Z$0
	DD	0ffffffffH
	DD	FLAT:__unwindfunclet$?OnPullDownClick@ioPullDownList@@QAEXHH@Z$1
__ehfuncinfo$?OnPullDownClick@ioPullDownList@@QAEXHH@Z DD 019930522H
	DD	02H
	DD	FLAT:__unwindtable$?OnPullDownClick@ioPullDownList@@QAEXHH@Z
	DD	2 DUP(00H)
	DD	2 DUP(00H)
	DD	00H
	DD	01H
; Function compile flags: /Ogsp
; File d:\lost saga for developer\youtube\tutorial\source\src\lsclient\gui\iopulldownlist.cpp
xdata$x	ENDS
;	COMDAT ?OnPullDownClick@ioPullDownList@@QAEXHH@Z
_TEXT	SEGMENT
_Event$519906 = -36					; size = 24
_Event$519903 = -36					; size = 24
__$EHRec$ = -12						; size = 12
_iClickIdx$ = 8						; size = 4
_iClickImageIdx$ = 12					; size = 4
?OnPullDownClick@ioPullDownList@@QAEXHH@Z PROC		; ioPullDownList::OnPullDownClick, COMDAT
; _this$ = ecx

; 477  : {

  00000	6a 18		 push	 24			; 00000018H
  00002	b8 00 00 00 00	 mov	 eax, __ehhandler$?OnPullDownClick@ioPullDownList@@QAEXHH@Z
  00007	e8 00 00 00 00	 call	 __EH_prolog3
  0000c	8b f1		 mov	 esi, ecx

; 478  : 	PullDownEventListener* pListener = dynamic_cast<PullDownEventListener*>( GetParent() );

  0000e	6a 00		 push	 0
  00010	68 00 00 00 00	 push	 OFFSET ??_R0?AVPullDownEventListener@@@8
  00015	68 00 00 00 00	 push	 OFFSET ??_R0?AVioWnd@@@8
  0001a	6a 00		 push	 0
  0001c	ff 15 00 00 00
	00		 call	 DWORD PTR __imp_?GetParent@ioWnd@@QAEPAV1@XZ
  00022	50		 push	 eax
  00023	e8 00 00 00 00	 call	 ___RTDynamicCast
  00028	8b c8		 mov	 ecx, eax
  0002a	83 c4 14	 add	 esp, 20			; 00000014H

; 479  : 	if( !pListener )

  0002d	85 c9		 test	 ecx, ecx
  0002f	75 1c		 jne	 SHORT $LN4@OnPullDown@2

; 480  : 	{
; 481  : 		LOG.PrintTimeAndLog(0, "%s - pListener == NULL !!!", __FUNCTION__ );

  00031	68 00 00 00 00	 push	 OFFSET ??_C@_0CA@KDEBONKE@ioPullDownList?3?3OnPullDownClick?$AA@
  00036	68 00 00 00 00	 push	 OFFSET ??_C@_0BL@DICHEIPF@?$CFs?5?9?5pListener?5?$DN?$DN?5NULL?5?$CB?$CB?$CB?$AA@
  0003b	50		 push	 eax
  0003c	ff 35 00 00 00
	00		 push	 DWORD PTR __imp_?LOG@@3VCLog@@A
  00042	ff 15 00 00 00
	00		 call	 DWORD PTR __imp_?PrintTimeAndLog@CLog@@QAAXHPADZZ
  00048	83 c4 10	 add	 esp, 16			; 00000010H

; 482  : 		return;

  0004b	eb 5b		 jmp	 SHORT $LN27@OnPullDown@2
$LN4@OnPullDown@2:

; 483  : 	}
; 484  : 
; 485  : 	//클릭 이벤트 객체 생성
; 486  : 	if( iClickIdx != PullDownEvent::NONE_SELECT && iClickImageIdx == PullDownEvent::NONE_SELECT )

  0004d	8b 55 08	 mov	 edx, DWORD PTR _iClickIdx$[ebp]
  00050	83 c8 ff	 or	 eax, -1
  00053	3b d0		 cmp	 edx, eax
  00055	74 25		 je	 SHORT $LN3@OnPullDown@2
  00057	39 45 0c	 cmp	 DWORD PTR _iClickImageIdx$[ebp], eax
  0005a	75 25		 jne	 SHORT $LN29@OnPullDown@2

; 487  : 	{
; 488  : 		ClickPullDownEvent Event( this );

  0005c	89 75 e0	 mov	 DWORD PTR _Event$519903[ebp+4], esi
  0005f	c7 45 dc 00 00
	00 00		 mov	 DWORD PTR _Event$519903[ebp], OFFSET ??_7ClickPullDownEvent@@6B@
  00066	89 45 ec	 mov	 DWORD PTR _Event$519903[ebp+16], eax
  00069	89 45 f0	 mov	 DWORD PTR _Event$519903[ebp+20], eax
  0006c	83 65 fc 00	 and	 DWORD PTR __$EHRec$[ebp+8], 0

; 489  : 		Event.iClickIdx	= iClickIdx;

  00070	89 55 e8	 mov	 DWORD PTR _Event$519903[ebp+12], edx

; 490  : 		Event.SetEventType( PullDownEvent::PULLDOWNEVENT_DOWN );

  00073	c7 45 e4 01 00
	00 00		 mov	 DWORD PTR _Event$519903[ebp+8], 1

; 491  : 		pListener->iwm_pulldown_event( Event );
; 492  : 	}

  0007a	eb 24		 jmp	 SHORT $LN31@OnPullDown@2
$LN3@OnPullDown@2:

; 493  : 	else if( iClickImageIdx != PullDownEvent::NONE_SELECT )

  0007c	39 45 0c	 cmp	 DWORD PTR _iClickImageIdx$[ebp], eax
  0007f	74 27		 je	 SHORT $LN27@OnPullDown@2
$LN29@OnPullDown@2:

; 494  : 	{
; 495  : 		ClickPullDownEvent Event( this );

  00081	89 75 e0	 mov	 DWORD PTR _Event$519906[ebp+4], esi
  00084	c7 45 dc 00 00
	00 00		 mov	 DWORD PTR _Event$519906[ebp], OFFSET ??_7ClickPullDownEvent@@6B@
  0008b	89 45 f0	 mov	 DWORD PTR _Event$519906[ebp+20], eax
  0008e	33 c0		 xor	 eax, eax
  00090	40		 inc	 eax

; 496  : 		Event.iClickIdx		 = iClickIdx;

  00091	89 55 e8	 mov	 DWORD PTR _Event$519906[ebp+12], edx

; 497  : 		Event.iClickImageIdx = iClickImageIdx;

  00094	8b 55 0c	 mov	 edx, DWORD PTR _iClickImageIdx$[ebp]
  00097	89 45 fc	 mov	 DWORD PTR __$EHRec$[ebp+8], eax
  0009a	89 55 ec	 mov	 DWORD PTR _Event$519906[ebp+16], edx

; 498  : 		Event.SetEventType( PullDownEvent::PULLDOWNEVENT_DOWN );

  0009d	89 45 e4	 mov	 DWORD PTR _Event$519906[ebp+8], eax
$LN31@OnPullDown@2:

; 499  : 		pListener->iwm_pulldown_event( Event );

  000a0	8b 01		 mov	 eax, DWORD PTR [ecx]
  000a2	8d 55 dc	 lea	 edx, DWORD PTR _Event$519906[ebp]
  000a5	52		 push	 edx
  000a6	ff 10		 call	 DWORD PTR [eax]

; 500  : 	}

$LN27@OnPullDown@2:

; 501  : }

  000a8	e8 00 00 00 00	 call	 __EH_epilog3
  000ad	c2 08 00	 ret	 8
_TEXT	ENDS
;	COMDAT text$x
text$x	SEGMENT
__unwindfunclet$?OnPullDownClick@ioPullDownList@@QAEXHH@Z$0:
  00000	8d 4d dc	 lea	 ecx, DWORD PTR _Event$519903[ebp]
  00003	e9 00 00 00 00	 jmp	 ??1ClickPullDownEvent@@UAE@XZ ; ClickPullDownEvent::~ClickPullDownEvent
__unwindfunclet$?OnPullDownClick@ioPullDownList@@QAEXHH@Z$1:
  00008	8d 4d dc	 lea	 ecx, DWORD PTR _Event$519906[ebp]
  0000b	e9 00 00 00 00	 jmp	 ??1ClickPullDownEvent@@UAE@XZ ; ClickPullDownEvent::~ClickPullDownEvent
__ehhandler$?OnPullDownClick@ioPullDownList@@QAEXHH@Z:
  00010	8b 54 24 08	 mov	 edx, DWORD PTR [esp+8]
  00014	8d 42 0c	 lea	 eax, DWORD PTR [edx+12]
  00017	8b 4a d8	 mov	 ecx, DWORD PTR [edx-40]
  0001a	33 c8		 xor	 ecx, eax
  0001c	e8 00 00 00 00	 call	 @__security_check_cookie@4
  00021	b8 00 00 00 00	 mov	 eax, OFFSET __ehfuncinfo$?OnPullDownClick@ioPullDownList@@QAEXHH@Z
  00026	e9 00 00 00 00	 jmp	 ___CxxFrameHandler3
text$x	ENDS
?OnPullDownClick@ioPullDownList@@QAEXHH@Z ENDP		; ioPullDownList::OnPullDownClick
PUBLIC	??_C@_0CA@BONNFJPK@ioPullDownList?3?3OnPullDownLeave?$AA@ ; `string'
PUBLIC	?OnPullDownLeave@ioPullDownList@@QAEXHH@Z	; ioPullDownList::OnPullDownLeave
;	COMDAT ??_C@_0CA@BONNFJPK@ioPullDownList?3?3OnPullDownLeave?$AA@
; File d:\lost saga for developer\youtube\tutorial\source\src\lsclient\gui\iopulldowneventlistener.h
CONST	SEGMENT
??_C@_0CA@BONNFJPK@ioPullDownList?3?3OnPullDownLeave?$AA@ DB 'ioPullDownL'
	DB	'ist::OnPullDownLeave', 00H			; `string'
CONST	ENDS
;	COMDAT xdata$x
xdata$x	SEGMENT
__unwindtable$?OnPullDownLeave@ioPullDownList@@QAEXHH@Z DD 0ffffffffH
	DD	FLAT:__unwindfunclet$?OnPullDownLeave@ioPullDownList@@QAEXHH@Z$0
	DD	0ffffffffH
	DD	FLAT:__unwindfunclet$?OnPullDownLeave@ioPullDownList@@QAEXHH@Z$1
__ehfuncinfo$?OnPullDownLeave@ioPullDownList@@QAEXHH@Z DD 019930522H
	DD	02H
	DD	FLAT:__unwindtable$?OnPullDownLeave@ioPullDownList@@QAEXHH@Z
	DD	2 DUP(00H)
	DD	2 DUP(00H)
	DD	00H
	DD	01H
; Function compile flags: /Ogsp
; File d:\lost saga for developer\youtube\tutorial\source\src\lsclient\gui\iopulldownlist.cpp
xdata$x	ENDS
;	COMDAT ?OnPullDownLeave@ioPullDownList@@QAEXHH@Z
_TEXT	SEGMENT
_Event$519920 = -32					; size = 20
_Event$519917 = -32					; size = 20
__$EHRec$ = -12						; size = 12
_iLeaveIdx$ = 8						; size = 4
_iLeaveImageIdx$ = 12					; size = 4
?OnPullDownLeave@ioPullDownList@@QAEXHH@Z PROC		; ioPullDownList::OnPullDownLeave, COMDAT
; _this$ = ecx

; 504  : {

  00000	6a 14		 push	 20			; 00000014H
  00002	b8 00 00 00 00	 mov	 eax, __ehhandler$?OnPullDownLeave@ioPullDownList@@QAEXHH@Z
  00007	e8 00 00 00 00	 call	 __EH_prolog3
  0000c	8b f1		 mov	 esi, ecx

; 505  : 	PullDownEventListener* pListener = dynamic_cast<PullDownEventListener*>( GetParent() );

  0000e	33 ff		 xor	 edi, edi
  00010	57		 push	 edi
  00011	68 00 00 00 00	 push	 OFFSET ??_R0?AVPullDownEventListener@@@8
  00016	68 00 00 00 00	 push	 OFFSET ??_R0?AVioWnd@@@8
  0001b	57		 push	 edi
  0001c	ff 15 00 00 00
	00		 call	 DWORD PTR __imp_?GetParent@ioWnd@@QAEPAV1@XZ
  00022	50		 push	 eax
  00023	e8 00 00 00 00	 call	 ___RTDynamicCast
  00028	8b c8		 mov	 ecx, eax
  0002a	83 c4 14	 add	 esp, 20			; 00000014H

; 506  : 	if( !pListener )

  0002d	3b cf		 cmp	 ecx, edi
  0002f	75 1c		 jne	 SHORT $LN4@OnPullDown@3

; 507  : 	{
; 508  : 		LOG.PrintTimeAndLog(0, "%s - pListener == NULL !!!", __FUNCTION__ );

  00031	68 00 00 00 00	 push	 OFFSET ??_C@_0CA@BONNFJPK@ioPullDownList?3?3OnPullDownLeave?$AA@
  00036	68 00 00 00 00	 push	 OFFSET ??_C@_0BL@DICHEIPF@?$CFs?5?9?5pListener?5?$DN?$DN?5NULL?5?$CB?$CB?$CB?$AA@
  0003b	57		 push	 edi
  0003c	ff 35 00 00 00
	00		 push	 DWORD PTR __imp_?LOG@@3VCLog@@A
  00042	ff 15 00 00 00
	00		 call	 DWORD PTR __imp_?PrintTimeAndLog@CLog@@QAAXHPADZZ
  00048	83 c4 10	 add	 esp, 16			; 00000010H

; 509  : 		return;

  0004b	eb 51		 jmp	 SHORT $LN23@OnPullDown@3
$LN4@OnPullDown@3:

; 510  : 	}
; 511  : 
; 512  : 	//마우스 리브 이벤트 객체 생성
; 513  : 	if( iLeaveIdx != PullDownEvent::NONE_SELECT && iLeaveImageIdx == PullDownEvent::NONE_SELECT )

  0004d	8b 45 08	 mov	 eax, DWORD PTR _iLeaveIdx$[ebp]
  00050	83 ca ff	 or	 edx, -1
  00053	3b c2		 cmp	 eax, edx
  00055	74 1d		 je	 SHORT $LN3@OnPullDown@3
  00057	39 55 0c	 cmp	 DWORD PTR _iLeaveImageIdx$[ebp], edx
  0005a	75 1d		 jne	 SHORT $LN25@OnPullDown@3

; 514  : 	{
; 515  : 		OnLeavePullDownEvent Event( this );

  0005c	89 7d e8	 mov	 DWORD PTR _Event$519917[ebp+8], edi
  0005f	89 75 e4	 mov	 DWORD PTR _Event$519917[ebp+4], esi
  00062	c7 45 e0 00 00
	00 00		 mov	 DWORD PTR _Event$519917[ebp], OFFSET ??_7OnLeavePullDownEvent@@6B@
  00069	89 55 f0	 mov	 DWORD PTR _Event$519917[ebp+16], edx
  0006c	89 7d fc	 mov	 DWORD PTR __$EHRec$[ebp+8], edi

; 516  : 		Event.iLeaveIdx	= iLeaveIdx;

  0006f	89 45 ec	 mov	 DWORD PTR _Event$519917[ebp+12], eax

; 517  : 		pListener->iwm_pulldown_event( Event );
; 518  : 	}	

  00072	eb 22		 jmp	 SHORT $LN27@OnPullDown@3
$LN3@OnPullDown@3:

; 519  : 	else  if( iLeaveImageIdx != PullDownEvent::NONE_SELECT )

  00074	39 55 0c	 cmp	 DWORD PTR _iLeaveImageIdx$[ebp], edx
  00077	74 25		 je	 SHORT $LN23@OnPullDown@3
$LN25@OnPullDown@3:

; 520  : 	{
; 521  : 		OnLeavePullDownEvent Event( this );

  00079	89 7d e8	 mov	 DWORD PTR _Event$519920[ebp+8], edi
  0007c	89 75 e4	 mov	 DWORD PTR _Event$519920[ebp+4], esi
  0007f	c7 45 e0 00 00
	00 00		 mov	 DWORD PTR _Event$519920[ebp], OFFSET ??_7OnLeavePullDownEvent@@6B@

; 522  : 		Event.iLeaveIdx	= iLeaveIdx;

  00086	89 45 ec	 mov	 DWORD PTR _Event$519920[ebp+12], eax

; 523  : 		Event.iLeaveImageIdx = iLeaveImageIdx;

  00089	8b 45 0c	 mov	 eax, DWORD PTR _iLeaveImageIdx$[ebp]
  0008c	c7 45 fc 01 00
	00 00		 mov	 DWORD PTR __$EHRec$[ebp+8], 1
  00093	89 45 f0	 mov	 DWORD PTR _Event$519920[ebp+16], eax
$LN27@OnPullDown@3:

; 524  : 		pListener->iwm_pulldown_event( Event );

  00096	8b 01		 mov	 eax, DWORD PTR [ecx]
  00098	8d 55 e0	 lea	 edx, DWORD PTR _Event$519920[ebp]
  0009b	52		 push	 edx
  0009c	ff 10		 call	 DWORD PTR [eax]

; 525  : 	}

$LN23@OnPullDown@3:

; 526  : }

  0009e	e8 00 00 00 00	 call	 __EH_epilog3
  000a3	c2 08 00	 ret	 8
_TEXT	ENDS
;	COMDAT text$x
text$x	SEGMENT
__unwindfunclet$?OnPullDownLeave@ioPullDownList@@QAEXHH@Z$0:
  00000	8d 4d e0	 lea	 ecx, DWORD PTR _Event$519917[ebp]
  00003	e9 00 00 00 00	 jmp	 ??1OnLeavePullDownEvent@@UAE@XZ ; OnLeavePullDownEvent::~OnLeavePullDownEvent
__unwindfunclet$?OnPullDownLeave@ioPullDownList@@QAEXHH@Z$1:
  00008	8d 4d e0	 lea	 ecx, DWORD PTR _Event$519920[ebp]
  0000b	e9 00 00 00 00	 jmp	 ??1OnLeavePullDownEvent@@UAE@XZ ; OnLeavePullDownEvent::~OnLeavePullDownEvent
__ehhandler$?OnPullDownLeave@ioPullDownList@@QAEXHH@Z:
  00010	8b 54 24 08	 mov	 edx, DWORD PTR [esp+8]
  00014	8d 42 0c	 lea	 eax, DWORD PTR [edx+12]
  00017	8b 4a dc	 mov	 ecx, DWORD PTR [edx-36]
  0001a	33 c8		 xor	 ecx, eax
  0001c	e8 00 00 00 00	 call	 @__security_check_cookie@4
  00021	b8 00 00 00 00	 mov	 eax, OFFSET __ehfuncinfo$?OnPullDownLeave@ioPullDownList@@QAEXHH@Z
  00026	e9 00 00 00 00	 jmp	 ___CxxFrameHandler3
text$x	ENDS
?OnPullDownLeave@ioPullDownList@@QAEXHH@Z ENDP		; ioPullDownList::OnPullDownLeave
PUBLIC	?OnRender@ioPullDownList@@MAEXXZ		; ioPullDownList::OnRender
EXTRN	?ReSize@ioPullDownItem@@QAEXXZ:PROC		; ioPullDownItem::ReSize
EXTRN	__imp_?OnRender@ioWnd@@MAEXXZ:PROC
; Function compile flags: /Ogsp
;	COMDAT ?OnRender@ioPullDownList@@MAEXXZ
_TEXT	SEGMENT
_i$519926 = -4						; size = 4
?OnRender@ioPullDownList@@MAEXXZ PROC			; ioPullDownList::OnRender, COMDAT
; _this$ = ecx

; 529  : {

  00000	55		 push	 ebp
  00001	8b ec		 mov	 ebp, esp
  00003	51		 push	 ecx
  00004	56		 push	 esi
  00005	8b f1		 mov	 esi, ecx

; 530  : 	ioWnd::OnRender();

  00007	ff 15 00 00 00
	00		 call	 DWORD PTR __imp_?OnRender@ioWnd@@MAEXXZ

; 531  : 
; 532  : 	int iXPos = GetDerivedPosX();

  0000d	8b ce		 mov	 ecx, esi
  0000f	ff 15 00 00 00
	00		 call	 DWORD PTR __imp_?GetDerivedPosX@ioWnd@@QBEHXZ

; 533  : 	int iYPos = GetDerivedPosY();

  00015	8b ce		 mov	 ecx, esi
  00017	ff 15 00 00 00
	00		 call	 DWORD PTR __imp_?GetDerivedPosY@ioWnd@@QBEHXZ

; 534  : 
; 535  : 	for( int i = m_iCurPos; i < m_iCurPos + m_iMaxPageList; ++i )

  0001d	8b 86 88 01 00
	00		 mov	 eax, DWORD PTR [esi+392]
  00023	8b 8e 80 01 00
	00		 mov	 ecx, DWORD PTR [esi+384]
  00029	03 c8		 add	 ecx, eax
  0002b	89 45 fc	 mov	 DWORD PTR _i$519926[ebp], eax
  0002e	3b c1		 cmp	 eax, ecx
  00030	7d 54		 jge	 SHORT $LN2@OnRender
  00032	53		 push	 ebx
  00033	57		 push	 edi
$LL4@OnRender:

; 536  : 	{
; 537  : 		ioPullDownItem* pPullDown = GetPullDown( i );

  00034	ff 75 fc	 push	 DWORD PTR _i$519926[ebp]
  00037	8b ce		 mov	 ecx, esi
  00039	e8 00 00 00 00	 call	 ?GetPullDown@ioPullDownList@@QBEPAVioPullDownItem@@H@Z ; ioPullDownList::GetPullDown
  0003e	8b f8		 mov	 edi, eax

; 538  : 		if( !pPullDown )

  00040	85 ff		 test	 edi, edi
  00042	74 2c		 je	 SHORT $LN3@OnRender

; 539  : 			continue;
; 540  : 
; 541  : 		pPullDown->ReSize();

  00044	8b cf		 mov	 ecx, edi
  00046	e8 00 00 00 00	 call	 ?ReSize@ioPullDownItem@@QAEXXZ ; ioPullDownItem::ReSize

; 542  : 		pPullDown->OnRender( m_iOverSelectIndex, m_iImageOverIndex );

  0004b	ff b6 90 01 00
	00		 push	 DWORD PTR [esi+400]
  00051	8b 07		 mov	 eax, DWORD PTR [edi]
  00053	ff b6 8c 01 00
	00		 push	 DWORD PTR [esi+396]
  00059	8b cf		 mov	 ecx, edi
  0005b	ff 10		 call	 DWORD PTR [eax]

; 543  : 		pPullDown->OnImageListRender( m_iOverSelectIndex, m_iImageOverIndex );

  0005d	ff b6 90 01 00
	00		 push	 DWORD PTR [esi+400]
  00063	8b 07		 mov	 eax, DWORD PTR [edi]
  00065	ff b6 8c 01 00
	00		 push	 DWORD PTR [esi+396]
  0006b	8b cf		 mov	 ecx, edi
  0006d	ff 50 04	 call	 DWORD PTR [eax+4]
$LN3@OnRender:

; 534  : 
; 535  : 	for( int i = m_iCurPos; i < m_iCurPos + m_iMaxPageList; ++i )

  00070	8b 86 80 01 00
	00		 mov	 eax, DWORD PTR [esi+384]
  00076	03 86 88 01 00
	00		 add	 eax, DWORD PTR [esi+392]
  0007c	ff 45 fc	 inc	 DWORD PTR _i$519926[ebp]
  0007f	39 45 fc	 cmp	 DWORD PTR _i$519926[ebp], eax
  00082	7c b0		 jl	 SHORT $LL4@OnRender
  00084	5f		 pop	 edi
  00085	5b		 pop	 ebx
$LN2@OnRender:
  00086	5e		 pop	 esi

; 544  : 	}
; 545  : }

  00087	c9		 leave
  00088	c3		 ret	 0
?OnRender@ioPullDownList@@MAEXXZ ENDP			; ioPullDownList::OnRender
_TEXT	ENDS
PUBLIC	??D?$_Vector_iterator@V?$_Vector_val@PAVioPullDownItem@@V?$allocator@PAVioPullDownItem@@@std@@@std@@@std@@QBEAAPAVioPullDownItem@@XZ ; std::_Vector_iterator<std::_Vector_val<ioPullDownItem *,std::allocator<ioPullDownItem *> > >::operator*
; Function compile flags: /Ogsp
; File c:\program files (x86)\microsoft visual studio 10.0\vc\include\vector
;	COMDAT ??D?$_Vector_iterator@V?$_Vector_val@PAVioPullDownItem@@V?$allocator@PAVioPullDownItem@@@std@@@std@@@std@@QBEAAPAVioPullDownItem@@XZ
_TEXT	SEGMENT
??D?$_Vector_iterator@V?$_Vector_val@PAVioPullDownItem@@V?$allocator@PAVioPullDownItem@@@std@@@std@@@std@@QBEAAPAVioPullDownItem@@XZ PROC ; std::_Vector_iterator<std::_Vector_val<ioPullDownItem *,std::allocator<ioPullDownItem *> > >::operator*, COMDAT
; _this$ = ecx

; 322  : 		return ((reference)**(_Mybase *)this);

  00000	8b 01		 mov	 eax, DWORD PTR [ecx]

; 323  : 		}

  00002	c3		 ret	 0
??D?$_Vector_iterator@V?$_Vector_val@PAVioPullDownItem@@V?$allocator@PAVioPullDownItem@@@std@@@std@@@std@@QBEAAPAVioPullDownItem@@XZ ENDP ; std::_Vector_iterator<std::_Vector_val<ioPullDownItem *,std::allocator<ioPullDownItem *> > >::operator*
_TEXT	ENDS
PUBLIC	??E?$_Vector_iterator@V?$_Vector_val@PAVioPullDownItem@@V?$allocator@PAVioPullDownItem@@@std@@@std@@@std@@QAEAAV01@XZ ; std::_Vector_iterator<std::_Vector_val<ioPullDownItem *,std::allocator<ioPullDownItem *> > >::operator++
; Function compile flags: /Ogsp
;	COMDAT ??E?$_Vector_iterator@V?$_Vector_val@PAVioPullDownItem@@V?$allocator@PAVioPullDownItem@@@std@@@std@@@std@@QAEAAV01@XZ
_TEXT	SEGMENT
??E?$_Vector_iterator@V?$_Vector_val@PAVioPullDownItem@@V?$allocator@PAVioPullDownItem@@@std@@@std@@@std@@QAEAAV01@XZ PROC ; std::_Vector_iterator<std::_Vector_val<ioPullDownItem *,std::allocator<ioPullDownItem *> > >::operator++, COMDAT
; _this$ = ecx

; 331  : 		{	// preincrement

  00000	8b c1		 mov	 eax, ecx

; 332  : 		++*(_Mybase *)this;

  00002	83 00 04	 add	 DWORD PTR [eax], 4

; 333  : 		return (*this);
; 334  : 		}

  00005	c3		 ret	 0
??E?$_Vector_iterator@V?$_Vector_val@PAVioPullDownItem@@V?$allocator@PAVioPullDownItem@@@std@@@std@@@std@@QAEAAV01@XZ ENDP ; std::_Vector_iterator<std::_Vector_val<ioPullDownItem *,std::allocator<ioPullDownItem *> > >::operator++
_TEXT	ENDS
PUBLIC	??D?$_Vector_iterator@V?$_Vector_val@UPullDownInnerImage@@V?$allocator@UPullDownInnerImage@@@std@@@std@@@std@@QBEAAUPullDownInnerImage@@XZ ; std::_Vector_iterator<std::_Vector_val<PullDownInnerImage,std::allocator<PullDownInnerImage> > >::operator*
; Function compile flags: /Ogsp
;	COMDAT ??D?$_Vector_iterator@V?$_Vector_val@UPullDownInnerImage@@V?$allocator@UPullDownInnerImage@@@std@@@std@@@std@@QBEAAUPullDownInnerImage@@XZ
_TEXT	SEGMENT
??D?$_Vector_iterator@V?$_Vector_val@UPullDownInnerImage@@V?$allocator@UPullDownInnerImage@@@std@@@std@@@std@@QBEAAUPullDownInnerImage@@XZ PROC ; std::_Vector_iterator<std::_Vector_val<PullDownInnerImage,std::allocator<PullDownInnerImage> > >::operator*, COMDAT
; _this$ = ecx

; 322  : 		return ((reference)**(_Mybase *)this);

  00000	8b 01		 mov	 eax, DWORD PTR [ecx]

; 323  : 		}

  00002	c3		 ret	 0
??D?$_Vector_iterator@V?$_Vector_val@UPullDownInnerImage@@V?$allocator@UPullDownInnerImage@@@std@@@std@@@std@@QBEAAUPullDownInnerImage@@XZ ENDP ; std::_Vector_iterator<std::_Vector_val<PullDownInnerImage,std::allocator<PullDownInnerImage> > >::operator*
_TEXT	ENDS
PUBLIC	??E?$_Vector_iterator@V?$_Vector_val@UPullDownInnerImage@@V?$allocator@UPullDownInnerImage@@@std@@@std@@@std@@QAEAAV01@XZ ; std::_Vector_iterator<std::_Vector_val<PullDownInnerImage,std::allocator<PullDownInnerImage> > >::operator++
; Function compile flags: /Ogsp
;	COMDAT ??E?$_Vector_iterator@V?$_Vector_val@UPullDownInnerImage@@V?$allocator@UPullDownInnerImage@@@std@@@std@@@std@@QAEAAV01@XZ
_TEXT	SEGMENT
??E?$_Vector_iterator@V?$_Vector_val@UPullDownInnerImage@@V?$allocator@UPullDownInnerImage@@@std@@@std@@@std@@QAEAAV01@XZ PROC ; std::_Vector_iterator<std::_Vector_val<PullDownInnerImage,std::allocator<PullDownInnerImage> > >::operator++, COMDAT
; _this$ = ecx

; 331  : 		{	// preincrement

  00000	8b c1		 mov	 eax, ecx

; 332  : 		++*(_Mybase *)this;

  00002	83 00 1c	 add	 DWORD PTR [eax], 28	; 0000001cH

; 333  : 		return (*this);
; 334  : 		}

  00005	c3		 ret	 0
??E?$_Vector_iterator@V?$_Vector_val@UPullDownInnerImage@@V?$allocator@UPullDownInnerImage@@@std@@@std@@@std@@QAEAAV01@XZ ENDP ; std::_Vector_iterator<std::_Vector_val<PullDownInnerImage,std::allocator<PullDownInnerImage> > >::operator++
_TEXT	ENDS
PUBLIC	??0?$_Vector_val@UPullDownInnerImage@@V?$allocator@UPullDownInnerImage@@@std@@@std@@QAE@V?$allocator@UPullDownInnerImage@@@1@@Z ; std::_Vector_val<PullDownInnerImage,std::allocator<PullDownInnerImage> >::_Vector_val<PullDownInnerImage,std::allocator<PullDownInnerImage> >
; Function compile flags: /Ogsp
;	COMDAT ??0?$_Vector_val@UPullDownInnerImage@@V?$allocator@UPullDownInnerImage@@@std@@@std@@QAE@V?$allocator@UPullDownInnerImage@@@1@@Z
_TEXT	SEGMENT
__Al$ = 8						; size = 1
??0?$_Vector_val@UPullDownInnerImage@@V?$allocator@UPullDownInnerImage@@@std@@@std@@QAE@V?$allocator@UPullDownInnerImage@@@1@@Z PROC ; std::_Vector_val<PullDownInnerImage,std::allocator<PullDownInnerImage> >::_Vector_val<PullDownInnerImage,std::allocator<PullDownInnerImage> >, COMDAT
; _this$ = ecx

; 426  : 		{	// construct allocator from _Al

  00000	8b c1		 mov	 eax, ecx

; 427  : 		_Myfirst = 0;

  00002	33 c9		 xor	 ecx, ecx
  00004	89 08		 mov	 DWORD PTR [eax], ecx

; 428  : 		_Mylast = 0;

  00006	89 48 04	 mov	 DWORD PTR [eax+4], ecx

; 429  : 		_Myend = 0;

  00009	89 48 08	 mov	 DWORD PTR [eax+8], ecx

; 430  : 		}

  0000c	c2 04 00	 ret	 4
??0?$_Vector_val@UPullDownInnerImage@@V?$allocator@UPullDownInnerImage@@@std@@@std@@QAE@V?$allocator@UPullDownInnerImage@@@1@@Z ENDP ; std::_Vector_val<PullDownInnerImage,std::allocator<PullDownInnerImage> >::_Vector_val<PullDownInnerImage,std::allocator<PullDownInnerImage> >
_TEXT	ENDS
PUBLIC	??0?$_Vector_val@PAVioPullDownItem@@V?$allocator@PAVioPullDownItem@@@std@@@std@@QAE@V?$allocator@PAVioPullDownItem@@@1@@Z ; std::_Vector_val<ioPullDownItem *,std::allocator<ioPullDownItem *> >::_Vector_val<ioPullDownItem *,std::allocator<ioPullDownItem *> >
; Function compile flags: /Ogsp
;	COMDAT ??0?$_Vector_val@PAVioPullDownItem@@V?$allocator@PAVioPullDownItem@@@std@@@std@@QAE@V?$allocator@PAVioPullDownItem@@@1@@Z
_TEXT	SEGMENT
__Al$ = 8						; size = 1
??0?$_Vector_val@PAVioPullDownItem@@V?$allocator@PAVioPullDownItem@@@std@@@std@@QAE@V?$allocator@PAVioPullDownItem@@@1@@Z PROC ; std::_Vector_val<ioPullDownItem *,std::allocator<ioPullDownItem *> >::_Vector_val<ioPullDownItem *,std::allocator<ioPullDownItem *> >, COMDAT
; _this$ = ecx

; 426  : 		{	// construct allocator from _Al

  00000	8b c1		 mov	 eax, ecx

; 427  : 		_Myfirst = 0;

  00002	33 c9		 xor	 ecx, ecx
  00004	89 08		 mov	 DWORD PTR [eax], ecx

; 428  : 		_Mylast = 0;

  00006	89 48 04	 mov	 DWORD PTR [eax+4], ecx

; 429  : 		_Myend = 0;

  00009	89 48 08	 mov	 DWORD PTR [eax+8], ecx

; 430  : 		}

  0000c	c2 04 00	 ret	 4
??0?$_Vector_val@PAVioPullDownItem@@V?$allocator@PAVioPullDownItem@@@std@@@std@@QAE@V?$allocator@PAVioPullDownItem@@@1@@Z ENDP ; std::_Vector_val<ioPullDownItem *,std::allocator<ioPullDownItem *> >::_Vector_val<ioPullDownItem *,std::allocator<ioPullDownItem *> >
_TEXT	ENDS
PUBLIC	??0?$_Vector_iterator@V?$_Vector_val@PAVioPullDownItem@@V?$allocator@PAVioPullDownItem@@@std@@@std@@@std@@QAE@PAPAVioPullDownItem@@PBU_Container_base0@1@@Z ; std::_Vector_iterator<std::_Vector_val<ioPullDownItem *,std::allocator<ioPullDownItem *> > >::_Vector_iterator<std::_Vector_val<ioPullDownItem *,std::allocator<ioPullDownItem *> > >
; Function compile flags: /Ogsp
;	COMDAT ??0?$_Vector_iterator@V?$_Vector_val@PAVioPullDownItem@@V?$allocator@PAVioPullDownItem@@@std@@@std@@@std@@QAE@PAPAVioPullDownItem@@PBU_Container_base0@1@@Z
_TEXT	SEGMENT
__Parg$ = 8						; size = 4
__Pvector$ = 12						; size = 4
??0?$_Vector_iterator@V?$_Vector_val@PAVioPullDownItem@@V?$allocator@PAVioPullDownItem@@@std@@@std@@@std@@QAE@PAPAVioPullDownItem@@PBU_Container_base0@1@@Z PROC ; std::_Vector_iterator<std::_Vector_val<ioPullDownItem *,std::allocator<ioPullDownItem *> > >::_Vector_iterator<std::_Vector_val<ioPullDownItem *,std::allocator<ioPullDownItem *> > >, COMDAT
; _this$ = ecx

; 304  : 		{	// construct with pointer _Parg

  00000	55		 push	 ebp
  00001	8b ec		 mov	 ebp, esp
  00003	8b c1		 mov	 eax, ecx
  00005	8b 4d 08	 mov	 ecx, DWORD PTR __Parg$[ebp]
  00008	89 08		 mov	 DWORD PTR [eax], ecx

; 305  : 		}

  0000a	5d		 pop	 ebp
  0000b	c2 08 00	 ret	 8
??0?$_Vector_iterator@V?$_Vector_val@PAVioPullDownItem@@V?$allocator@PAVioPullDownItem@@@std@@@std@@@std@@QAE@PAPAVioPullDownItem@@PBU_Container_base0@1@@Z ENDP ; std::_Vector_iterator<std::_Vector_val<ioPullDownItem *,std::allocator<ioPullDownItem *> > >::_Vector_iterator<std::_Vector_val<ioPullDownItem *,std::allocator<ioPullDownItem *> > >
_TEXT	ENDS
PUBLIC	??8?$_Vector_const_iterator@V?$_Vector_val@PAVioPullDownItem@@V?$allocator@PAVioPullDownItem@@@std@@@std@@@std@@QBE_NABV01@@Z ; std::_Vector_const_iterator<std::_Vector_val<ioPullDownItem *,std::allocator<ioPullDownItem *> > >::operator==
; Function compile flags: /Ogsp
;	COMDAT ??8?$_Vector_const_iterator@V?$_Vector_val@PAVioPullDownItem@@V?$allocator@PAVioPullDownItem@@@std@@@std@@@std@@QBE_NABV01@@Z
_TEXT	SEGMENT
__Right$ = 8						; size = 4
??8?$_Vector_const_iterator@V?$_Vector_val@PAVioPullDownItem@@V?$allocator@PAVioPullDownItem@@@std@@@std@@@std@@QBE_NABV01@@Z PROC ; std::_Vector_const_iterator<std::_Vector_val<ioPullDownItem *,std::allocator<ioPullDownItem *> > >::operator==, COMDAT
; _this$ = ecx

; 201  : 		{	// test for iterator equality

  00000	55		 push	 ebp
  00001	8b ec		 mov	 ebp, esp

; 202  : 		_Compat(_Right);
; 203  : 		return (this->_Ptr == _Right._Ptr);

  00003	8b 01		 mov	 eax, DWORD PTR [ecx]
  00005	8b 4d 08	 mov	 ecx, DWORD PTR __Right$[ebp]
  00008	2b 01		 sub	 eax, DWORD PTR [ecx]
  0000a	f7 d8		 neg	 eax
  0000c	1b c0		 sbb	 eax, eax
  0000e	40		 inc	 eax

; 204  : 		}

  0000f	5d		 pop	 ebp
  00010	c2 04 00	 ret	 4
??8?$_Vector_const_iterator@V?$_Vector_val@PAVioPullDownItem@@V?$allocator@PAVioPullDownItem@@@std@@@std@@@std@@QBE_NABV01@@Z ENDP ; std::_Vector_const_iterator<std::_Vector_val<ioPullDownItem *,std::allocator<ioPullDownItem *> > >::operator==
_TEXT	ENDS
PUBLIC	??0?$_Vector_iterator@V?$_Vector_val@UPullDownInnerImage@@V?$allocator@UPullDownInnerImage@@@std@@@std@@@std@@QAE@PAUPullDownInnerImage@@PBU_Container_base0@1@@Z ; std::_Vector_iterator<std::_Vector_val<PullDownInnerImage,std::allocator<PullDownInnerImage> > >::_Vector_iterator<std::_Vector_val<PullDownInnerImage,std::allocator<PullDownInnerImage> > >
; Function compile flags: /Ogsp
;	COMDAT ??0?$_Vector_iterator@V?$_Vector_val@UPullDownInnerImage@@V?$allocator@UPullDownInnerImage@@@std@@@std@@@std@@QAE@PAUPullDownInnerImage@@PBU_Container_base0@1@@Z
_TEXT	SEGMENT
__Parg$ = 8						; size = 4
__Pvector$ = 12						; size = 4
??0?$_Vector_iterator@V?$_Vector_val@UPullDownInnerImage@@V?$allocator@UPullDownInnerImage@@@std@@@std@@@std@@QAE@PAUPullDownInnerImage@@PBU_Container_base0@1@@Z PROC ; std::_Vector_iterator<std::_Vector_val<PullDownInnerImage,std::allocator<PullDownInnerImage> > >::_Vector_iterator<std::_Vector_val<PullDownInnerImage,std::allocator<PullDownInnerImage> > >, COMDAT
; _this$ = ecx

; 304  : 		{	// construct with pointer _Parg

  00000	55		 push	 ebp
  00001	8b ec		 mov	 ebp, esp
  00003	8b c1		 mov	 eax, ecx
  00005	8b 4d 08	 mov	 ecx, DWORD PTR __Parg$[ebp]
  00008	89 08		 mov	 DWORD PTR [eax], ecx

; 305  : 		}

  0000a	5d		 pop	 ebp
  0000b	c2 08 00	 ret	 8
??0?$_Vector_iterator@V?$_Vector_val@UPullDownInnerImage@@V?$allocator@UPullDownInnerImage@@@std@@@std@@@std@@QAE@PAUPullDownInnerImage@@PBU_Container_base0@1@@Z ENDP ; std::_Vector_iterator<std::_Vector_val<PullDownInnerImage,std::allocator<PullDownInnerImage> > >::_Vector_iterator<std::_Vector_val<PullDownInnerImage,std::allocator<PullDownInnerImage> > >
_TEXT	ENDS
PUBLIC	??8?$_Vector_const_iterator@V?$_Vector_val@UPullDownInnerImage@@V?$allocator@UPullDownInnerImage@@@std@@@std@@@std@@QBE_NABV01@@Z ; std::_Vector_const_iterator<std::_Vector_val<PullDownInnerImage,std::allocator<PullDownInnerImage> > >::operator==
; Function compile flags: /Ogsp
;	COMDAT ??8?$_Vector_const_iterator@V?$_Vector_val@UPullDownInnerImage@@V?$allocator@UPullDownInnerImage@@@std@@@std@@@std@@QBE_NABV01@@Z
_TEXT	SEGMENT
__Right$ = 8						; size = 4
??8?$_Vector_const_iterator@V?$_Vector_val@UPullDownInnerImage@@V?$allocator@UPullDownInnerImage@@@std@@@std@@@std@@QBE_NABV01@@Z PROC ; std::_Vector_const_iterator<std::_Vector_val<PullDownInnerImage,std::allocator<PullDownInnerImage> > >::operator==, COMDAT
; _this$ = ecx

; 201  : 		{	// test for iterator equality

  00000	55		 push	 ebp
  00001	8b ec		 mov	 ebp, esp

; 202  : 		_Compat(_Right);
; 203  : 		return (this->_Ptr == _Right._Ptr);

  00003	8b 01		 mov	 eax, DWORD PTR [ecx]
  00005	8b 4d 08	 mov	 ecx, DWORD PTR __Right$[ebp]
  00008	2b 01		 sub	 eax, DWORD PTR [ecx]
  0000a	f7 d8		 neg	 eax
  0000c	1b c0		 sbb	 eax, eax
  0000e	40		 inc	 eax

; 204  : 		}

  0000f	5d		 pop	 ebp
  00010	c2 04 00	 ret	 4
??8?$_Vector_const_iterator@V?$_Vector_val@UPullDownInnerImage@@V?$allocator@UPullDownInnerImage@@@std@@@std@@@std@@QBE_NABV01@@Z ENDP ; std::_Vector_const_iterator<std::_Vector_val<PullDownInnerImage,std::allocator<PullDownInnerImage> > >::operator==
_TEXT	ENDS
PUBLIC	?_Make_iter@?$vector@UPullDownInnerImage@@V?$allocator@UPullDownInnerImage@@@std@@@std@@QBE?AV?$_Vector_iterator@V?$_Vector_val@UPullDownInnerImage@@V?$allocator@UPullDownInnerImage@@@std@@@std@@@2@V?$_Vector_const_iterator@V?$_Vector_val@UPullDownInnerImage@@V?$allocator@UPullDownInnerImage@@@std@@@std@@@2@@Z ; std::vector<PullDownInnerImage,std::allocator<PullDownInnerImage> >::_Make_iter
; Function compile flags: /Ogsp
;	COMDAT ?_Make_iter@?$vector@UPullDownInnerImage@@V?$allocator@UPullDownInnerImage@@@std@@@std@@QBE?AV?$_Vector_iterator@V?$_Vector_val@UPullDownInnerImage@@V?$allocator@UPullDownInnerImage@@@std@@@std@@@2@V?$_Vector_const_iterator@V?$_Vector_val@UPullDownInnerImage@@V?$allocator@UPullDownInnerImage@@@std@@@std@@@2@@Z
_TEXT	SEGMENT
___$ReturnUdt$ = 8					; size = 4
__Where$ = 12						; size = 4
?_Make_iter@?$vector@UPullDownInnerImage@@V?$allocator@UPullDownInnerImage@@@std@@@std@@QBE?AV?$_Vector_iterator@V?$_Vector_val@UPullDownInnerImage@@V?$allocator@UPullDownInnerImage@@@std@@@std@@@2@V?$_Vector_const_iterator@V?$_Vector_val@UPullDownInnerImage@@V?$allocator@UPullDownInnerImage@@@std@@@std@@@2@@Z PROC ; std::vector<PullDownInnerImage,std::allocator<PullDownInnerImage> >::_Make_iter, COMDAT
; _this$ = ecx

; 801  : 		{	// make iterator from const_iterator

  00000	55		 push	 ebp
  00001	8b ec		 mov	 ebp, esp

; 802  : 		return (iterator(_Where._Ptr, this));

  00003	8b 45 08	 mov	 eax, DWORD PTR ___$ReturnUdt$[ebp]
  00006	8b 4d 0c	 mov	 ecx, DWORD PTR __Where$[ebp]
  00009	89 08		 mov	 DWORD PTR [eax], ecx

; 803  : 		}

  0000b	5d		 pop	 ebp
  0000c	c2 08 00	 ret	 8
?_Make_iter@?$vector@UPullDownInnerImage@@V?$allocator@UPullDownInnerImage@@@std@@@std@@QBE?AV?$_Vector_iterator@V?$_Vector_val@UPullDownInnerImage@@V?$allocator@UPullDownInnerImage@@@std@@@std@@@2@V?$_Vector_const_iterator@V?$_Vector_val@UPullDownInnerImage@@V?$allocator@UPullDownInnerImage@@@std@@@std@@@2@@Z ENDP ; std::vector<PullDownInnerImage,std::allocator<PullDownInnerImage> >::_Make_iter
_TEXT	ENDS
PUBLIC	?max_size@?$vector@UPullDownInnerImage@@V?$allocator@UPullDownInnerImage@@@std@@@std@@QBEIXZ ; std::vector<PullDownInnerImage,std::allocator<PullDownInnerImage> >::max_size
; Function compile flags: /Ogsp
;	COMDAT ?max_size@?$vector@UPullDownInnerImage@@V?$allocator@UPullDownInnerImage@@@std@@@std@@QBEIXZ
_TEXT	SEGMENT
?max_size@?$vector@UPullDownInnerImage@@V?$allocator@UPullDownInnerImage@@@std@@@std@@QBEIXZ PROC ; std::vector<PullDownInnerImage,std::allocator<PullDownInnerImage> >::max_size, COMDAT
; _this$ = ecx

; 884  : 		return (this->_Alval.max_size());

  00000	b8 49 92 24 09	 mov	 eax, 153391689		; 09249249H

; 885  : 		}

  00005	c3		 ret	 0
?max_size@?$vector@UPullDownInnerImage@@V?$allocator@UPullDownInnerImage@@@std@@@std@@QBEIXZ ENDP ; std::vector<PullDownInnerImage,std::allocator<PullDownInnerImage> >::max_size
_TEXT	ENDS
PUBLIC	?_Grow_to@?$vector@UPullDownInnerImage@@V?$allocator@UPullDownInnerImage@@@std@@@std@@IBEII@Z ; std::vector<PullDownInnerImage,std::allocator<PullDownInnerImage> >::_Grow_to
; Function compile flags: /Ogsp
;	COMDAT ?_Grow_to@?$vector@UPullDownInnerImage@@V?$allocator@UPullDownInnerImage@@@std@@@std@@IBEII@Z
_TEXT	SEGMENT
__Count$ = 8						; size = 4
?_Grow_to@?$vector@UPullDownInnerImage@@V?$allocator@UPullDownInnerImage@@@std@@@std@@IBEII@Z PROC ; std::vector<PullDownInnerImage,std::allocator<PullDownInnerImage> >::_Grow_to, COMDAT
; _this$ = ecx

; 1274 : 		{	// grow by 50% or at least to _Count

  00000	55		 push	 ebp
  00001	8b ec		 mov	 ebp, esp

; 1275 : 		size_type _Capacity = capacity();

  00003	8b 41 08	 mov	 eax, DWORD PTR [ecx+8]
  00006	2b 01		 sub	 eax, DWORD PTR [ecx]
  00008	6a 1c		 push	 28			; 0000001cH
  0000a	99		 cdq
  0000b	59		 pop	 ecx
  0000c	f7 f9		 idiv	 ecx

; 1276 : 
; 1277 : 		_Capacity = max_size() - _Capacity / 2 < _Capacity
; 1278 : 			? 0 : _Capacity + _Capacity / 2;	// try to grow by 50%

  0000e	ba 49 92 24 09	 mov	 edx, 153391689		; 09249249H
  00013	8b c8		 mov	 ecx, eax
  00015	d1 e9		 shr	 ecx, 1
  00017	2b d1		 sub	 edx, ecx
  00019	3b d0		 cmp	 edx, eax
  0001b	73 04		 jae	 SHORT $LN4@Grow_to
  0001d	33 c0		 xor	 eax, eax
  0001f	eb 02		 jmp	 SHORT $LN5@Grow_to
$LN4@Grow_to:
  00021	03 c1		 add	 eax, ecx
$LN5@Grow_to:

; 1279 : 		if (_Capacity < _Count)

  00023	3b 45 08	 cmp	 eax, DWORD PTR __Count$[ebp]

; 1280 : 			_Capacity = _Count;

  00026	0f 42 45 08	 cmovb	 eax, DWORD PTR __Count$[ebp]

; 1281 : 		return (_Capacity);
; 1282 : 		}

  0002a	5d		 pop	 ebp
  0002b	c2 04 00	 ret	 4
?_Grow_to@?$vector@UPullDownInnerImage@@V?$allocator@UPullDownInnerImage@@@std@@@std@@IBEII@Z ENDP ; std::vector<PullDownInnerImage,std::allocator<PullDownInnerImage> >::_Grow_to
_TEXT	ENDS
PUBLIC	?_Make_iter@?$vector@PAVioPullDownItem@@V?$allocator@PAVioPullDownItem@@@std@@@std@@QBE?AV?$_Vector_iterator@V?$_Vector_val@PAVioPullDownItem@@V?$allocator@PAVioPullDownItem@@@std@@@std@@@2@V?$_Vector_const_iterator@V?$_Vector_val@PAVioPullDownItem@@V?$allocator@PAVioPullDownItem@@@std@@@std@@@2@@Z ; std::vector<ioPullDownItem *,std::allocator<ioPullDownItem *> >::_Make_iter
; Function compile flags: /Ogsp
;	COMDAT ?_Make_iter@?$vector@PAVioPullDownItem@@V?$allocator@PAVioPullDownItem@@@std@@@std@@QBE?AV?$_Vector_iterator@V?$_Vector_val@PAVioPullDownItem@@V?$allocator@PAVioPullDownItem@@@std@@@std@@@2@V?$_Vector_const_iterator@V?$_Vector_val@PAVioPullDownItem@@V?$allocator@PAVioPullDownItem@@@std@@@std@@@2@@Z
_TEXT	SEGMENT
___$ReturnUdt$ = 8					; size = 4
__Where$ = 12						; size = 4
?_Make_iter@?$vector@PAVioPullDownItem@@V?$allocator@PAVioPullDownItem@@@std@@@std@@QBE?AV?$_Vector_iterator@V?$_Vector_val@PAVioPullDownItem@@V?$allocator@PAVioPullDownItem@@@std@@@std@@@2@V?$_Vector_const_iterator@V?$_Vector_val@PAVioPullDownItem@@V?$allocator@PAVioPullDownItem@@@std@@@std@@@2@@Z PROC ; std::vector<ioPullDownItem *,std::allocator<ioPullDownItem *> >::_Make_iter, COMDAT
; _this$ = ecx

; 801  : 		{	// make iterator from const_iterator

  00000	55		 push	 ebp
  00001	8b ec		 mov	 ebp, esp

; 802  : 		return (iterator(_Where._Ptr, this));

  00003	8b 45 08	 mov	 eax, DWORD PTR ___$ReturnUdt$[ebp]
  00006	8b 4d 0c	 mov	 ecx, DWORD PTR __Where$[ebp]
  00009	89 08		 mov	 DWORD PTR [eax], ecx

; 803  : 		}

  0000b	5d		 pop	 ebp
  0000c	c2 08 00	 ret	 8
?_Make_iter@?$vector@PAVioPullDownItem@@V?$allocator@PAVioPullDownItem@@@std@@@std@@QBE?AV?$_Vector_iterator@V?$_Vector_val@PAVioPullDownItem@@V?$allocator@PAVioPullDownItem@@@std@@@std@@@2@V?$_Vector_const_iterator@V?$_Vector_val@PAVioPullDownItem@@V?$allocator@PAVioPullDownItem@@@std@@@std@@@2@@Z ENDP ; std::vector<ioPullDownItem *,std::allocator<ioPullDownItem *> >::_Make_iter
_TEXT	ENDS
PUBLIC	?max_size@?$vector@PAVioPullDownItem@@V?$allocator@PAVioPullDownItem@@@std@@@std@@QBEIXZ ; std::vector<ioPullDownItem *,std::allocator<ioPullDownItem *> >::max_size
; Function compile flags: /Ogsp
;	COMDAT ?max_size@?$vector@PAVioPullDownItem@@V?$allocator@PAVioPullDownItem@@@std@@@std@@QBEIXZ
_TEXT	SEGMENT
?max_size@?$vector@PAVioPullDownItem@@V?$allocator@PAVioPullDownItem@@@std@@@std@@QBEIXZ PROC ; std::vector<ioPullDownItem *,std::allocator<ioPullDownItem *> >::max_size, COMDAT
; _this$ = ecx

; 884  : 		return (this->_Alval.max_size());

  00000	b8 ff ff ff 3f	 mov	 eax, 1073741823		; 3fffffffH

; 885  : 		}

  00005	c3		 ret	 0
?max_size@?$vector@PAVioPullDownItem@@V?$allocator@PAVioPullDownItem@@@std@@@std@@QBEIXZ ENDP ; std::vector<ioPullDownItem *,std::allocator<ioPullDownItem *> >::max_size
_TEXT	ENDS
PUBLIC	?_Grow_to@?$vector@PAVioPullDownItem@@V?$allocator@PAVioPullDownItem@@@std@@@std@@IBEII@Z ; std::vector<ioPullDownItem *,std::allocator<ioPullDownItem *> >::_Grow_to
; Function compile flags: /Ogsp
;	COMDAT ?_Grow_to@?$vector@PAVioPullDownItem@@V?$allocator@PAVioPullDownItem@@@std@@@std@@IBEII@Z
_TEXT	SEGMENT
__Count$ = 8						; size = 4
?_Grow_to@?$vector@PAVioPullDownItem@@V?$allocator@PAVioPullDownItem@@@std@@@std@@IBEII@Z PROC ; std::vector<ioPullDownItem *,std::allocator<ioPullDownItem *> >::_Grow_to, COMDAT
; _this$ = ecx

; 1274 : 		{	// grow by 50% or at least to _Count

  00000	55		 push	 ebp
  00001	8b ec		 mov	 ebp, esp

; 1275 : 		size_type _Capacity = capacity();

  00003	8b 41 08	 mov	 eax, DWORD PTR [ecx+8]
  00006	2b 01		 sub	 eax, DWORD PTR [ecx]

; 1276 : 
; 1277 : 		_Capacity = max_size() - _Capacity / 2 < _Capacity
; 1278 : 			? 0 : _Capacity + _Capacity / 2;	// try to grow by 50%

  00008	ba ff ff ff 3f	 mov	 edx, 1073741823		; 3fffffffH
  0000d	c1 f8 02	 sar	 eax, 2
  00010	8b c8		 mov	 ecx, eax
  00012	d1 e9		 shr	 ecx, 1
  00014	2b d1		 sub	 edx, ecx
  00016	3b d0		 cmp	 edx, eax
  00018	73 04		 jae	 SHORT $LN4@Grow_to@2
  0001a	33 c0		 xor	 eax, eax
  0001c	eb 02		 jmp	 SHORT $LN5@Grow_to@2
$LN4@Grow_to@2:
  0001e	03 c1		 add	 eax, ecx
$LN5@Grow_to@2:

; 1279 : 		if (_Capacity < _Count)

  00020	3b 45 08	 cmp	 eax, DWORD PTR __Count$[ebp]

; 1280 : 			_Capacity = _Count;

  00023	0f 42 45 08	 cmovb	 eax, DWORD PTR __Count$[ebp]

; 1281 : 		return (_Capacity);
; 1282 : 		}

  00027	5d		 pop	 ebp
  00028	c2 04 00	 ret	 4
?_Grow_to@?$vector@PAVioPullDownItem@@V?$allocator@PAVioPullDownItem@@@std@@@std@@IBEII@Z ENDP ; std::vector<ioPullDownItem *,std::allocator<ioPullDownItem *> >::_Grow_to
_TEXT	ENDS
PUBLIC	?allocate@?$allocator@UPullDownInnerImage@@@std@@QAEPAUPullDownInnerImage@@I@Z ; std::allocator<PullDownInnerImage>::allocate
; Function compile flags: /Ogsp
; File c:\program files (x86)\microsoft visual studio 10.0\vc\include\xmemory
;	COMDAT ?allocate@?$allocator@UPullDownInnerImage@@@std@@QAEPAUPullDownInnerImage@@I@Z
_TEXT	SEGMENT
__Count$ = 8						; size = 4
?allocate@?$allocator@UPullDownInnerImage@@@std@@QAEPAUPullDownInnerImage@@I@Z PROC ; std::allocator<PullDownInnerImage>::allocate, COMDAT
; _this$ = ecx

; 186  : 		{	// allocate array of _Count elements

  00000	55		 push	 ebp
  00001	8b ec		 mov	 ebp, esp

; 187  : 		return (_Allocate(_Count, (pointer)0));

  00003	6a 00		 push	 0
  00005	ff 75 08	 push	 DWORD PTR __Count$[ebp]
  00008	e8 00 00 00 00	 call	 ??$_Allocate@UPullDownInnerImage@@@std@@YAPAUPullDownInnerImage@@IPAU1@@Z ; std::_Allocate<PullDownInnerImage>
  0000d	59		 pop	 ecx
  0000e	59		 pop	 ecx

; 188  : 		}

  0000f	5d		 pop	 ebp
  00010	c2 04 00	 ret	 4
?allocate@?$allocator@UPullDownInnerImage@@@std@@QAEPAUPullDownInnerImage@@I@Z ENDP ; std::allocator<PullDownInnerImage>::allocate
_TEXT	ENDS
PUBLIC	?allocate@?$allocator@PAVioPullDownItem@@@std@@QAEPAPAVioPullDownItem@@I@Z ; std::allocator<ioPullDownItem *>::allocate
; Function compile flags: /Ogsp
;	COMDAT ?allocate@?$allocator@PAVioPullDownItem@@@std@@QAEPAPAVioPullDownItem@@I@Z
_TEXT	SEGMENT
__Count$ = 8						; size = 4
?allocate@?$allocator@PAVioPullDownItem@@@std@@QAEPAPAVioPullDownItem@@I@Z PROC ; std::allocator<ioPullDownItem *>::allocate, COMDAT
; _this$ = ecx

; 186  : 		{	// allocate array of _Count elements

  00000	55		 push	 ebp
  00001	8b ec		 mov	 ebp, esp

; 187  : 		return (_Allocate(_Count, (pointer)0));

  00003	6a 00		 push	 0
  00005	ff 75 08	 push	 DWORD PTR __Count$[ebp]
  00008	e8 00 00 00 00	 call	 ??$_Allocate@PAVioPullDownItem@@@std@@YAPAPAVioPullDownItem@@IPAPAV1@@Z ; std::_Allocate<ioPullDownItem *>
  0000d	59		 pop	 ecx
  0000e	59		 pop	 ecx

; 188  : 		}

  0000f	5d		 pop	 ebp
  00010	c2 04 00	 ret	 4
?allocate@?$allocator@PAVioPullDownItem@@@std@@QAEPAPAVioPullDownItem@@I@Z ENDP ; std::allocator<ioPullDownItem *>::allocate
_TEXT	ENDS
PUBLIC	__$ArrayPad$
PUBLIC	??$?8$08@@YA_NABVioHashString@@AAY08$$CBD@Z	; operator==<9>
EXTRN	__imp_?c_str@ioHashString@@QBEPBDXZ:PROC
EXTRN	___security_cookie:DWORD
; Function compile flags: /Ogsp
; File d:\lost saga for developer\youtube\tutorial\source\src\io3dengine\iohashstring.h
;	COMDAT ??$?8$08@@YA_NABVioHashString@@AAY08$$CBD@Z
_TEXT	SEGMENT
__t$ = -20						; size = 9
__$ArrayPad$ = -4					; size = 4
_lhs$ = 8						; size = 4
_t$ = 12						; size = 4
??$?8$08@@YA_NABVioHashString@@AAY08$$CBD@Z PROC	; operator==<9>, COMDAT

; 146  : {

  00000	55		 push	 ebp
  00001	8b ec		 mov	 ebp, esp
  00003	83 ec 14	 sub	 esp, 20			; 00000014H
  00006	a1 00 00 00 00	 mov	 eax, DWORD PTR ___security_cookie
  0000b	33 c5		 xor	 eax, ebp
  0000d	89 45 fc	 mov	 DWORD PTR __$ArrayPad$[ebp], eax
  00010	8b 45 0c	 mov	 eax, DWORD PTR _t$[ebp]

; 147  : 	_ENCSTR(t, _t); return ( strcmp( lhs.c_str(), _t ) == 0 );

  00013	8a 10		 mov	 dl, BYTE PTR [eax]
  00015	8b 4d 08	 mov	 ecx, DWORD PTR _lhs$[ebp]
  00018	84 d2		 test	 dl, dl
  0001a	0f 84 ee 00 00
	00		 je	 $LN96@operator
  00020	80 f2 ed	 xor	 dl, -19			; ffffffedH
  00023	88 55 ec	 mov	 BYTE PTR __t$[ebp], dl
  00026	8a 50 01	 mov	 dl, BYTE PTR [eax+1]
  00029	84 d2		 test	 dl, dl
  0002b	0f 84 d7 00 00
	00		 je	 $LN95@operator
  00031	80 f2 ec	 xor	 dl, -20			; ffffffecH
  00034	88 55 ed	 mov	 BYTE PTR __t$[ebp+1], dl
  00037	8a 50 02	 mov	 dl, BYTE PTR [eax+2]
  0003a	84 d2		 test	 dl, dl
  0003c	0f 84 c0 00 00
	00		 je	 $LN94@operator
  00042	80 f2 eb	 xor	 dl, -21			; ffffffebH
  00045	88 55 ee	 mov	 BYTE PTR __t$[ebp+2], dl
  00048	8a 50 03	 mov	 dl, BYTE PTR [eax+3]
  0004b	84 d2		 test	 dl, dl
  0004d	0f 84 a9 00 00
	00		 je	 $LN93@operator
  00053	80 f2 ea	 xor	 dl, -22			; ffffffeaH
  00056	88 55 ef	 mov	 BYTE PTR __t$[ebp+3], dl
  00059	8a 50 04	 mov	 dl, BYTE PTR [eax+4]
  0005c	84 d2		 test	 dl, dl
  0005e	0f 84 92 00 00
	00		 je	 $LN92@operator
  00064	80 f2 ed	 xor	 dl, -19			; ffffffedH
  00067	88 55 f0	 mov	 BYTE PTR __t$[ebp+4], dl
  0006a	8a 50 05	 mov	 dl, BYTE PTR [eax+5]
  0006d	84 d2		 test	 dl, dl
  0006f	74 7f		 je	 SHORT $LN91@operator
  00071	80 f2 ec	 xor	 dl, -20			; ffffffecH
  00074	88 55 f1	 mov	 BYTE PTR __t$[ebp+5], dl
  00077	8a 50 06	 mov	 dl, BYTE PTR [eax+6]
  0007a	84 d2		 test	 dl, dl
  0007c	74 6c		 je	 SHORT $LN90@operator
  0007e	80 f2 eb	 xor	 dl, -21			; ffffffebH
  00081	88 55 f2	 mov	 BYTE PTR __t$[ebp+6], dl
  00084	8a 50 07	 mov	 dl, BYTE PTR [eax+7]
  00087	84 d2		 test	 dl, dl
  00089	74 59		 je	 SHORT $LN89@operator
  0008b	80 f2 ea	 xor	 dl, -22			; ffffffeaH
  0008e	80 78 08 00	 cmp	 BYTE PTR [eax+8], 0
  00092	88 55 f3	 mov	 BYTE PTR __t$[ebp+7], dl
  00095	74 7b		 je	 SHORT $LN1@operator
  00097	8a 50 09	 mov	 dl, BYTE PTR [eax+9]
  0009a	84 d2		 test	 dl, dl
  0009c	74 40		 je	 SHORT $LN87@operator
  0009e	80 f2 ec	 xor	 dl, -20			; ffffffecH
  000a1	88 55 f5	 mov	 BYTE PTR __t$[ebp+9], dl
  000a4	8a 50 0a	 mov	 dl, BYTE PTR [eax+10]
  000a7	84 d2		 test	 dl, dl
  000a9	74 2d		 je	 SHORT $LN86@operator
  000ab	80 f2 eb	 xor	 dl, -21			; ffffffebH
  000ae	88 55 f6	 mov	 BYTE PTR __t$[ebp+10], dl
  000b1	8a 50 0b	 mov	 dl, BYTE PTR [eax+11]
  000b4	84 d2		 test	 dl, dl
  000b6	74 1a		 je	 SHORT $LN85@operator
  000b8	8a 40 0c	 mov	 al, BYTE PTR [eax+12]
  000bb	80 f2 ea	 xor	 dl, -22			; ffffffeaH
  000be	88 55 f7	 mov	 BYTE PTR __t$[ebp+11], dl
  000c1	84 c0		 test	 al, al
  000c3	74 07		 je	 SHORT $LN84@operator
  000c5	34 ed		 xor	 al, -19			; ffffffedH
  000c7	88 45 f8	 mov	 BYTE PTR __t$[ebp+12], al
  000ca	eb 46		 jmp	 SHORT $LN1@operator
$LN84@operator:
  000cc	c6 45 f8 ed	 mov	 BYTE PTR __t$[ebp+12], -19 ; ffffffedH
  000d0	eb 40		 jmp	 SHORT $LN1@operator
$LN85@operator:
  000d2	c6 45 f7 ea	 mov	 BYTE PTR __t$[ebp+11], -22 ; ffffffeaH
  000d6	eb 3a		 jmp	 SHORT $LN1@operator
$LN86@operator:
  000d8	c6 45 f6 eb	 mov	 BYTE PTR __t$[ebp+10], -21 ; ffffffebH
  000dc	eb 34		 jmp	 SHORT $LN1@operator
$LN87@operator:
  000de	c6 45 f5 ec	 mov	 BYTE PTR __t$[ebp+9], -20 ; ffffffecH
  000e2	eb 2e		 jmp	 SHORT $LN1@operator
$LN89@operator:
  000e4	c6 45 f3 ea	 mov	 BYTE PTR __t$[ebp+7], -22 ; ffffffeaH
  000e8	eb 28		 jmp	 SHORT $LN1@operator
$LN90@operator:
  000ea	c6 45 f2 eb	 mov	 BYTE PTR __t$[ebp+6], -21 ; ffffffebH
  000ee	eb 22		 jmp	 SHORT $LN1@operator
$LN91@operator:
  000f0	c6 45 f1 ec	 mov	 BYTE PTR __t$[ebp+5], -20 ; ffffffecH
  000f4	eb 1c		 jmp	 SHORT $LN1@operator
$LN92@operator:
  000f6	c6 45 f0 ed	 mov	 BYTE PTR __t$[ebp+4], -19 ; ffffffedH
  000fa	eb 16		 jmp	 SHORT $LN1@operator
$LN93@operator:
  000fc	c6 45 ef ea	 mov	 BYTE PTR __t$[ebp+3], -22 ; ffffffeaH
  00100	eb 10		 jmp	 SHORT $LN1@operator
$LN94@operator:
  00102	c6 45 ee eb	 mov	 BYTE PTR __t$[ebp+2], -21 ; ffffffebH
  00106	eb 0a		 jmp	 SHORT $LN1@operator
$LN95@operator:
  00108	c6 45 ed ec	 mov	 BYTE PTR __t$[ebp+1], -20 ; ffffffecH
  0010c	eb 04		 jmp	 SHORT $LN1@operator
$LN96@operator:
  0010e	c6 45 ec ed	 mov	 BYTE PTR __t$[ebp], -19	; ffffffedH
$LN1@operator:
  00112	6a 02		 push	 2
  00114	8d 45 ec	 lea	 eax, DWORD PTR __t$[ebp]
  00117	c6 45 f4 00	 mov	 BYTE PTR __t$[ebp+8], 0
  0011b	5a		 pop	 edx
$LL104@operator:
  0011c	81 30 ed ec eb
	ea		 xor	 DWORD PTR [eax], -353637139 ; eaebecedH
  00122	83 c0 04	 add	 eax, 4
  00125	4a		 dec	 edx
  00126	75 f4		 jne	 SHORT $LL104@operator
  00128	56		 push	 esi
  00129	8d 75 ec	 lea	 esi, DWORD PTR __t$[ebp]
  0012c	ff 15 00 00 00
	00		 call	 DWORD PTR __imp_?c_str@ioHashString@@QBEPBDXZ
$LL111@operator:
  00132	8a 08		 mov	 cl, BYTE PTR [eax]
  00134	3a 0e		 cmp	 cl, BYTE PTR [esi]
  00136	75 1a		 jne	 SHORT $LN112@operator
  00138	84 c9		 test	 cl, cl
  0013a	74 12		 je	 SHORT $LN113@operator
  0013c	8a 48 01	 mov	 cl, BYTE PTR [eax+1]
  0013f	3a 4e 01	 cmp	 cl, BYTE PTR [esi+1]
  00142	75 0e		 jne	 SHORT $LN112@operator
  00144	83 c0 02	 add	 eax, 2
  00147	83 c6 02	 add	 esi, 2
  0014a	84 c9		 test	 cl, cl
  0014c	75 e4		 jne	 SHORT $LL111@operator
$LN113@operator:
  0014e	33 c0		 xor	 eax, eax
  00150	eb 05		 jmp	 SHORT $LN114@operator
$LN112@operator:
  00152	1b c0		 sbb	 eax, eax
  00154	83 d8 ff	 sbb	 eax, -1
$LN114@operator:
  00157	33 c9		 xor	 ecx, ecx
  00159	85 c0		 test	 eax, eax
  0015b	0f 94 c0	 sete	 al

; 148  : }

  0015e	8b 4d fc	 mov	 ecx, DWORD PTR __$ArrayPad$[ebp]
  00161	33 cd		 xor	 ecx, ebp
  00163	5e		 pop	 esi
  00164	e8 00 00 00 00	 call	 @__security_check_cookie@4
  00169	c9		 leave
  0016a	c3		 ret	 0
??$?8$08@@YA_NABVioHashString@@AAY08$$CBD@Z ENDP	; operator==<9>
_TEXT	ENDS
PUBLIC	__$ArrayPad$
PUBLIC	??$?8$09@@YA_NABVioHashString@@AAY09$$CBD@Z	; operator==<10>
; Function compile flags: /Ogsp
;	COMDAT ??$?8$09@@YA_NABVioHashString@@AAY09$$CBD@Z
_TEXT	SEGMENT
__t$ = -20						; size = 10
__$ArrayPad$ = -4					; size = 4
_lhs$ = 8						; size = 4
_t$ = 12						; size = 4
??$?8$09@@YA_NABVioHashString@@AAY09$$CBD@Z PROC	; operator==<10>, COMDAT

; 146  : {

  00000	55		 push	 ebp
  00001	8b ec		 mov	 ebp, esp
  00003	83 ec 14	 sub	 esp, 20			; 00000014H
  00006	a1 00 00 00 00	 mov	 eax, DWORD PTR ___security_cookie
  0000b	33 c5		 xor	 eax, ebp
  0000d	89 45 fc	 mov	 DWORD PTR __$ArrayPad$[ebp], eax
  00010	8b 45 0c	 mov	 eax, DWORD PTR _t$[ebp]

; 147  : 	_ENCSTR(t, _t); return ( strcmp( lhs.c_str(), _t ) == 0 );

  00013	8a 10		 mov	 dl, BYTE PTR [eax]
  00015	8b 4d 08	 mov	 ecx, DWORD PTR _lhs$[ebp]
  00018	84 d2		 test	 dl, dl
  0001a	0f 84 0d 01 00
	00		 je	 $LN96@operator@2
  00020	80 f2 ed	 xor	 dl, -19			; ffffffedH
  00023	88 55 ec	 mov	 BYTE PTR __t$[ebp], dl
  00026	8a 50 01	 mov	 dl, BYTE PTR [eax+1]
  00029	84 d2		 test	 dl, dl
  0002b	0f 84 f6 00 00
	00		 je	 $LN95@operator@2
  00031	80 f2 ec	 xor	 dl, -20			; ffffffecH
  00034	88 55 ed	 mov	 BYTE PTR __t$[ebp+1], dl
  00037	8a 50 02	 mov	 dl, BYTE PTR [eax+2]
  0003a	84 d2		 test	 dl, dl
  0003c	0f 84 df 00 00
	00		 je	 $LN94@operator@2
  00042	80 f2 eb	 xor	 dl, -21			; ffffffebH
  00045	88 55 ee	 mov	 BYTE PTR __t$[ebp+2], dl
  00048	8a 50 03	 mov	 dl, BYTE PTR [eax+3]
  0004b	84 d2		 test	 dl, dl
  0004d	0f 84 c8 00 00
	00		 je	 $LN93@operator@2
  00053	80 f2 ea	 xor	 dl, -22			; ffffffeaH
  00056	88 55 ef	 mov	 BYTE PTR __t$[ebp+3], dl
  00059	8a 50 04	 mov	 dl, BYTE PTR [eax+4]
  0005c	84 d2		 test	 dl, dl
  0005e	0f 84 b1 00 00
	00		 je	 $LN92@operator@2
  00064	80 f2 ed	 xor	 dl, -19			; ffffffedH
  00067	88 55 f0	 mov	 BYTE PTR __t$[ebp+4], dl
  0006a	8a 50 05	 mov	 dl, BYTE PTR [eax+5]
  0006d	84 d2		 test	 dl, dl
  0006f	0f 84 9a 00 00
	00		 je	 $LN91@operator@2
  00075	80 f2 ec	 xor	 dl, -20			; ffffffecH
  00078	88 55 f1	 mov	 BYTE PTR __t$[ebp+5], dl
  0007b	8a 50 06	 mov	 dl, BYTE PTR [eax+6]
  0007e	84 d2		 test	 dl, dl
  00080	0f 84 83 00 00
	00		 je	 $LN90@operator@2
  00086	80 f2 eb	 xor	 dl, -21			; ffffffebH
  00089	88 55 f2	 mov	 BYTE PTR __t$[ebp+6], dl
  0008c	8a 50 07	 mov	 dl, BYTE PTR [eax+7]
  0008f	84 d2		 test	 dl, dl
  00091	74 70		 je	 SHORT $LN89@operator@2
  00093	80 f2 ea	 xor	 dl, -22			; ffffffeaH
  00096	88 55 f3	 mov	 BYTE PTR __t$[ebp+7], dl
  00099	8a 50 08	 mov	 dl, BYTE PTR [eax+8]
  0009c	84 d2		 test	 dl, dl
  0009e	74 5d		 je	 SHORT $LN88@operator@2
  000a0	80 f2 ed	 xor	 dl, -19			; ffffffedH
  000a3	80 78 09 00	 cmp	 BYTE PTR [eax+9], 0
  000a7	88 55 f4	 mov	 BYTE PTR __t$[ebp+8], dl
  000aa	0f 84 81 00 00
	00		 je	 $LN1@operator@2
  000b0	8a 50 0a	 mov	 dl, BYTE PTR [eax+10]
  000b3	84 d2		 test	 dl, dl
  000b5	74 40		 je	 SHORT $LN86@operator@2
  000b7	80 f2 eb	 xor	 dl, -21			; ffffffebH
  000ba	88 55 f6	 mov	 BYTE PTR __t$[ebp+10], dl
  000bd	8a 50 0b	 mov	 dl, BYTE PTR [eax+11]
  000c0	84 d2		 test	 dl, dl
  000c2	74 2d		 je	 SHORT $LN85@operator@2
  000c4	80 f2 ea	 xor	 dl, -22			; ffffffeaH
  000c7	88 55 f7	 mov	 BYTE PTR __t$[ebp+11], dl
  000ca	8a 50 0c	 mov	 dl, BYTE PTR [eax+12]
  000cd	84 d2		 test	 dl, dl
  000cf	74 1a		 je	 SHORT $LN84@operator@2
  000d1	8a 40 0d	 mov	 al, BYTE PTR [eax+13]
  000d4	80 f2 ed	 xor	 dl, -19			; ffffffedH
  000d7	88 55 f8	 mov	 BYTE PTR __t$[ebp+12], dl
  000da	84 c0		 test	 al, al
  000dc	74 07		 je	 SHORT $LN83@operator@2
  000de	34 ec		 xor	 al, -20			; ffffffecH
  000e0	88 45 f9	 mov	 BYTE PTR __t$[ebp+13], al
  000e3	eb 4c		 jmp	 SHORT $LN1@operator@2
$LN83@operator@2:
  000e5	c6 45 f9 ec	 mov	 BYTE PTR __t$[ebp+13], -20 ; ffffffecH
  000e9	eb 46		 jmp	 SHORT $LN1@operator@2
$LN84@operator@2:
  000eb	c6 45 f8 ed	 mov	 BYTE PTR __t$[ebp+12], -19 ; ffffffedH
  000ef	eb 40		 jmp	 SHORT $LN1@operator@2
$LN85@operator@2:
  000f1	c6 45 f7 ea	 mov	 BYTE PTR __t$[ebp+11], -22 ; ffffffeaH
  000f5	eb 3a		 jmp	 SHORT $LN1@operator@2
$LN86@operator@2:
  000f7	c6 45 f6 eb	 mov	 BYTE PTR __t$[ebp+10], -21 ; ffffffebH
  000fb	eb 34		 jmp	 SHORT $LN1@operator@2
$LN88@operator@2:
  000fd	c6 45 f4 ed	 mov	 BYTE PTR __t$[ebp+8], -19 ; ffffffedH
  00101	eb 2e		 jmp	 SHORT $LN1@operator@2
$LN89@operator@2:
  00103	c6 45 f3 ea	 mov	 BYTE PTR __t$[ebp+7], -22 ; ffffffeaH
  00107	eb 28		 jmp	 SHORT $LN1@operator@2
$LN90@operator@2:
  00109	c6 45 f2 eb	 mov	 BYTE PTR __t$[ebp+6], -21 ; ffffffebH
  0010d	eb 22		 jmp	 SHORT $LN1@operator@2
$LN91@operator@2:
  0010f	c6 45 f1 ec	 mov	 BYTE PTR __t$[ebp+5], -20 ; ffffffecH
  00113	eb 1c		 jmp	 SHORT $LN1@operator@2
$LN92@operator@2:
  00115	c6 45 f0 ed	 mov	 BYTE PTR __t$[ebp+4], -19 ; ffffffedH
  00119	eb 16		 jmp	 SHORT $LN1@operator@2
$LN93@operator@2:
  0011b	c6 45 ef ea	 mov	 BYTE PTR __t$[ebp+3], -22 ; ffffffeaH
  0011f	eb 10		 jmp	 SHORT $LN1@operator@2
$LN94@operator@2:
  00121	c6 45 ee eb	 mov	 BYTE PTR __t$[ebp+2], -21 ; ffffffebH
  00125	eb 0a		 jmp	 SHORT $LN1@operator@2
$LN95@operator@2:
  00127	c6 45 ed ec	 mov	 BYTE PTR __t$[ebp+1], -20 ; ffffffecH
  0012b	eb 04		 jmp	 SHORT $LN1@operator@2
$LN96@operator@2:
  0012d	c6 45 ec ed	 mov	 BYTE PTR __t$[ebp], -19	; ffffffedH
$LN1@operator@2:
  00131	6a 02		 push	 2
  00133	8d 45 ec	 lea	 eax, DWORD PTR __t$[ebp]
  00136	c6 45 f5 00	 mov	 BYTE PTR __t$[ebp+9], 0
  0013a	5a		 pop	 edx
$LL104@operator@2:
  0013b	81 30 ed ec eb
	ea		 xor	 DWORD PTR [eax], -353637139 ; eaebecedH
  00141	83 c0 04	 add	 eax, 4
  00144	4a		 dec	 edx
  00145	75 f4		 jne	 SHORT $LL104@operator@2
  00147	80 75 f4 ed	 xor	 BYTE PTR __t$[ebp+8], -19 ; ffffffedH
  0014b	56		 push	 esi
  0014c	8d 75 ec	 lea	 esi, DWORD PTR __t$[ebp]
  0014f	ff 15 00 00 00
	00		 call	 DWORD PTR __imp_?c_str@ioHashString@@QBEPBDXZ
$LL111@operator@2:
  00155	8a 08		 mov	 cl, BYTE PTR [eax]
  00157	3a 0e		 cmp	 cl, BYTE PTR [esi]
  00159	75 1a		 jne	 SHORT $LN112@operator@2
  0015b	84 c9		 test	 cl, cl
  0015d	74 12		 je	 SHORT $LN113@operator@2
  0015f	8a 48 01	 mov	 cl, BYTE PTR [eax+1]
  00162	3a 4e 01	 cmp	 cl, BYTE PTR [esi+1]
  00165	75 0e		 jne	 SHORT $LN112@operator@2
  00167	83 c0 02	 add	 eax, 2
  0016a	83 c6 02	 add	 esi, 2
  0016d	84 c9		 test	 cl, cl
  0016f	75 e4		 jne	 SHORT $LL111@operator@2
$LN113@operator@2:
  00171	33 c0		 xor	 eax, eax
  00173	eb 05		 jmp	 SHORT $LN114@operator@2
$LN112@operator@2:
  00175	1b c0		 sbb	 eax, eax
  00177	83 d8 ff	 sbb	 eax, -1
$LN114@operator@2:
  0017a	33 c9		 xor	 ecx, ecx
  0017c	85 c0		 test	 eax, eax
  0017e	0f 94 c0	 sete	 al

; 148  : }

  00181	8b 4d fc	 mov	 ecx, DWORD PTR __$ArrayPad$[ebp]
  00184	33 cd		 xor	 ecx, ebp
  00186	5e		 pop	 esi
  00187	e8 00 00 00 00	 call	 @__security_check_cookie@4
  0018c	c9		 leave
  0018d	c3		 ret	 0
??$?8$09@@YA_NABVioHashString@@AAY09$$CBD@Z ENDP	; operator==<10>
_TEXT	ENDS
PUBLIC	??$_Cons_val@V?$allocator@UPullDownInnerImage@@@std@@UPullDownInnerImage@@AAU3@@std@@YAXAAV?$allocator@UPullDownInnerImage@@@0@PAUPullDownInnerImage@@AAU2@@Z ; std::_Cons_val<std::allocator<PullDownInnerImage>,PullDownInnerImage,PullDownInnerImage &>
; Function compile flags: /Ogsp
; File c:\program files (x86)\microsoft visual studio 10.0\vc\include\xmemory
;	COMDAT ??$_Cons_val@V?$allocator@UPullDownInnerImage@@@std@@UPullDownInnerImage@@AAU3@@std@@YAXAAV?$allocator@UPullDownInnerImage@@@0@PAUPullDownInnerImage@@AAU2@@Z
_TEXT	SEGMENT
__Alval$ = 8						; size = 4
__Pdest$ = 12						; size = 4
__Src$ = 16						; size = 4
??$_Cons_val@V?$allocator@UPullDownInnerImage@@@std@@UPullDownInnerImage@@AAU3@@std@@YAXAAV?$allocator@UPullDownInnerImage@@@0@PAUPullDownInnerImage@@AAU2@@Z PROC ; std::_Cons_val<std::allocator<PullDownInnerImage>,PullDownInnerImage,PullDownInnerImage &>, COMDAT

; 279  : 	{	// construct using allocator

  00000	55		 push	 ebp
  00001	8b ec		 mov	 ebp, esp
  00003	57		 push	 edi

; 280  : 	_Alval.construct(_Pdest, _STD forward<_Ty2>(_Src));

  00004	8b 7d 0c	 mov	 edi, DWORD PTR __Pdest$[ebp]
  00007	85 ff		 test	 edi, edi
  00009	74 0a		 je	 SHORT $LN7@Cons_val
  0000b	56		 push	 esi
  0000c	8b 75 10	 mov	 esi, DWORD PTR __Src$[ebp]
  0000f	6a 07		 push	 7
  00011	59		 pop	 ecx
  00012	f3 a5		 rep movsd
  00014	5e		 pop	 esi
$LN7@Cons_val:
  00015	5f		 pop	 edi

; 281  : 	}

  00016	5d		 pop	 ebp
  00017	c3		 ret	 0
??$_Cons_val@V?$allocator@UPullDownInnerImage@@@std@@UPullDownInnerImage@@AAU3@@std@@YAXAAV?$allocator@UPullDownInnerImage@@@0@PAUPullDownInnerImage@@AAU2@@Z ENDP ; std::_Cons_val<std::allocator<PullDownInnerImage>,PullDownInnerImage,PullDownInnerImage &>
_TEXT	ENDS
PUBLIC	??$_Cons_val@V?$allocator@PAVioPullDownItem@@@std@@PAVioPullDownItem@@AAPAV3@@std@@YAXAAV?$allocator@PAVioPullDownItem@@@0@PAPAVioPullDownItem@@AAPAV2@@Z ; std::_Cons_val<std::allocator<ioPullDownItem *>,ioPullDownItem *,ioPullDownItem * &>
; Function compile flags: /Ogsp
;	COMDAT ??$_Cons_val@V?$allocator@PAVioPullDownItem@@@std@@PAVioPullDownItem@@AAPAV3@@std@@YAXAAV?$allocator@PAVioPullDownItem@@@0@PAPAVioPullDownItem@@AAPAV2@@Z
_TEXT	SEGMENT
__Alval$ = 8						; size = 4
__Pdest$ = 12						; size = 4
__Src$ = 16						; size = 4
??$_Cons_val@V?$allocator@PAVioPullDownItem@@@std@@PAVioPullDownItem@@AAPAV3@@std@@YAXAAV?$allocator@PAVioPullDownItem@@@0@PAPAVioPullDownItem@@AAPAV2@@Z PROC ; std::_Cons_val<std::allocator<ioPullDownItem *>,ioPullDownItem *,ioPullDownItem * &>, COMDAT

; 279  : 	{	// construct using allocator

  00000	55		 push	 ebp
  00001	8b ec		 mov	 ebp, esp

; 280  : 	_Alval.construct(_Pdest, _STD forward<_Ty2>(_Src));

  00003	8b 45 0c	 mov	 eax, DWORD PTR __Pdest$[ebp]
  00006	85 c0		 test	 eax, eax
  00008	74 07		 je	 SHORT $LN7@Cons_val@2
  0000a	8b 4d 10	 mov	 ecx, DWORD PTR __Src$[ebp]
  0000d	8b 09		 mov	 ecx, DWORD PTR [ecx]
  0000f	89 08		 mov	 DWORD PTR [eax], ecx
$LN7@Cons_val@2:

; 281  : 	}

  00011	5d		 pop	 ebp
  00012	c3		 ret	 0
??$_Cons_val@V?$allocator@PAVioPullDownItem@@@std@@PAVioPullDownItem@@AAPAV3@@std@@YAXAAV?$allocator@PAVioPullDownItem@@@0@PAPAVioPullDownItem@@AAPAV2@@Z ENDP ; std::_Cons_val<std::allocator<ioPullDownItem *>,ioPullDownItem *,ioPullDownItem * &>
_TEXT	ENDS
PUBLIC	??$_Move@PAPAVioPullDownItem@@PAPAV1@@std@@YAPAPAVioPullDownItem@@PAPAV1@00@Z ; std::_Move<ioPullDownItem * *,ioPullDownItem * *>
; Function compile flags: /Ogsp
; File c:\program files (x86)\microsoft visual studio 10.0\vc\include\xutility
;	COMDAT ??$_Move@PAPAVioPullDownItem@@PAPAV1@@std@@YAPAPAVioPullDownItem@@PAPAV1@00@Z
_TEXT	SEGMENT
__Cat$524547 = -4					; size = 1
__First$ = 8						; size = 4
__Last$ = 12						; size = 4
__Dest$ = 16						; size = 4
??$_Move@PAPAVioPullDownItem@@PAPAV1@@std@@YAPAPAVioPullDownItem@@PAPAV1@00@Z PROC ; std::_Move<ioPullDownItem * *,ioPullDownItem * *>, COMDAT

; 2533 : 	{	// move [_First, _Last) to [_Dest, ...), unchecked

  00000	55		 push	 ebp
  00001	8b ec		 mov	 ebp, esp
  00003	51		 push	 ecx

; 2534 : 	return (_Move(_First, _Last,
; 2535 : 		_Dest, _Ptr_cat(_First, _Dest)));

  00004	ff 75 fc	 push	 DWORD PTR __Cat$524547[ebp]
  00007	ff 75 10	 push	 DWORD PTR __Dest$[ebp]
  0000a	ff 75 0c	 push	 DWORD PTR __Last$[ebp]
  0000d	ff 75 08	 push	 DWORD PTR __First$[ebp]
  00010	e8 00 00 00 00	 call	 ??$_Move@PAPAVioPullDownItem@@PAPAV1@@std@@YAPAPAVioPullDownItem@@PAPAV1@00U_Scalar_ptr_iterator_tag@0@@Z ; std::_Move<ioPullDownItem * *,ioPullDownItem * *>
  00015	83 c4 10	 add	 esp, 16			; 00000010H

; 2536 : 	}

  00018	c9		 leave
  00019	c3		 ret	 0
??$_Move@PAPAVioPullDownItem@@PAPAV1@@std@@YAPAPAVioPullDownItem@@PAPAV1@00@Z ENDP ; std::_Move<ioPullDownItem * *,ioPullDownItem * *>
_TEXT	ENDS
PUBLIC	??$_Destroy_range@V?$allocator@PAVioPullDownItem@@@std@@@std@@YAXPAPAVioPullDownItem@@0AAV?$allocator@PAVioPullDownItem@@@0@@Z ; std::_Destroy_range<std::allocator<ioPullDownItem *> >
; Function compile flags: /Ogsp
; File c:\program files (x86)\microsoft visual studio 10.0\vc\include\xmemory
;	COMDAT ??$_Destroy_range@V?$allocator@PAVioPullDownItem@@@std@@@std@@YAXPAPAVioPullDownItem@@0AAV?$allocator@PAVioPullDownItem@@@0@@Z
_TEXT	SEGMENT
__First$ = 8						; size = 4
__Last$ = 12						; size = 4
__Al$ = 16						; size = 4
??$_Destroy_range@V?$allocator@PAVioPullDownItem@@@std@@@std@@YAXPAPAVioPullDownItem@@0AAV?$allocator@PAVioPullDownItem@@@0@@Z PROC ; std::_Destroy_range<std::allocator<ioPullDownItem *> >, COMDAT

; 88   : 	_Destroy_range(_First, _Last, _Al, _Ptr_cat(_First, _Last));
; 89   : 	}

  00000	c3		 ret	 0
??$_Destroy_range@V?$allocator@PAVioPullDownItem@@@std@@@std@@YAXPAPAVioPullDownItem@@0AAV?$allocator@PAVioPullDownItem@@@0@@Z ENDP ; std::_Destroy_range<std::allocator<ioPullDownItem *> >
_TEXT	ENDS
PUBLIC	?construct@?$allocator@UPullDownInnerImage@@@std@@QAEXPAUPullDownInnerImage@@ABU3@@Z ; std::allocator<PullDownInnerImage>::construct
; Function compile flags: /Ogsp
;	COMDAT ?construct@?$allocator@UPullDownInnerImage@@@std@@QAEXPAUPullDownInnerImage@@ABU3@@Z
_TEXT	SEGMENT
__Ptr$ = 8						; size = 4
__Val$ = 12						; size = 4
?construct@?$allocator@UPullDownInnerImage@@@std@@QAEXPAUPullDownInnerImage@@ABU3@@Z PROC ; std::allocator<PullDownInnerImage>::construct, COMDAT
; _this$ = ecx

; 196  : 		{	// construct object at _Ptr with value _Val

  00000	55		 push	 ebp
  00001	8b ec		 mov	 ebp, esp
  00003	57		 push	 edi

; 197  : 		_Construct(_Ptr, _Val);

  00004	8b 7d 08	 mov	 edi, DWORD PTR __Ptr$[ebp]
  00007	85 ff		 test	 edi, edi
  00009	74 0a		 je	 SHORT $LN5@construct@3
  0000b	56		 push	 esi
  0000c	8b 75 0c	 mov	 esi, DWORD PTR __Val$[ebp]
  0000f	6a 07		 push	 7
  00011	59		 pop	 ecx
  00012	f3 a5		 rep movsd
  00014	5e		 pop	 esi
$LN5@construct@3:
  00015	5f		 pop	 edi

; 198  : 		}

  00016	5d		 pop	 ebp
  00017	c2 08 00	 ret	 8
?construct@?$allocator@UPullDownInnerImage@@@std@@QAEXPAUPullDownInnerImage@@ABU3@@Z ENDP ; std::allocator<PullDownInnerImage>::construct
_TEXT	ENDS
PUBLIC	?construct@?$allocator@PAVioPullDownItem@@@std@@QAEXPAPAVioPullDownItem@@ABQAV3@@Z ; std::allocator<ioPullDownItem *>::construct
; Function compile flags: /Ogsp
;	COMDAT ?construct@?$allocator@PAVioPullDownItem@@@std@@QAEXPAPAVioPullDownItem@@ABQAV3@@Z
_TEXT	SEGMENT
__Ptr$ = 8						; size = 4
__Val$ = 12						; size = 4
?construct@?$allocator@PAVioPullDownItem@@@std@@QAEXPAPAVioPullDownItem@@ABQAV3@@Z PROC ; std::allocator<ioPullDownItem *>::construct, COMDAT
; _this$ = ecx

; 196  : 		{	// construct object at _Ptr with value _Val

  00000	55		 push	 ebp
  00001	8b ec		 mov	 ebp, esp

; 197  : 		_Construct(_Ptr, _Val);

  00003	8b 45 08	 mov	 eax, DWORD PTR __Ptr$[ebp]
  00006	85 c0		 test	 eax, eax
  00008	74 07		 je	 SHORT $LN5@construct@4
  0000a	8b 4d 0c	 mov	 ecx, DWORD PTR __Val$[ebp]
  0000d	8b 09		 mov	 ecx, DWORD PTR [ecx]
  0000f	89 08		 mov	 DWORD PTR [eax], ecx
$LN5@construct@4:

; 198  : 		}

  00011	5d		 pop	 ebp
  00012	c2 08 00	 ret	 8
?construct@?$allocator@PAVioPullDownItem@@@std@@QAEXPAPAVioPullDownItem@@ABQAV3@@Z ENDP ; std::allocator<ioPullDownItem *>::construct
_TEXT	ENDS
PUBLIC	??$_Move@PAUPullDownInnerImage@@PAU1@@std@@YAPAUPullDownInnerImage@@PAU1@00U_Nonscalar_ptr_iterator_tag@0@@Z ; std::_Move<PullDownInnerImage *,PullDownInnerImage *>
; Function compile flags: /Ogsp
; File c:\program files (x86)\microsoft visual studio 10.0\vc\include\xutility
;	COMDAT ??$_Move@PAUPullDownInnerImage@@PAU1@@std@@YAPAUPullDownInnerImage@@PAU1@00U_Nonscalar_ptr_iterator_tag@0@@Z
_TEXT	SEGMENT
__First$ = 8						; size = 4
__Last$ = 12						; size = 4
__Dest$ = 16						; size = 4
___formal$ = 20						; size = 1
??$_Move@PAUPullDownInnerImage@@PAU1@@std@@YAPAUPullDownInnerImage@@PAU1@00U_Nonscalar_ptr_iterator_tag@0@@Z PROC ; std::_Move<PullDownInnerImage *,PullDownInnerImage *>, COMDAT

; 2512 : 	{	// move [_First, _Last) to [_Dest, ...), arbitrary iterators

  00000	55		 push	 ebp
  00001	8b ec		 mov	 ebp, esp

; 2513 : 	for (; _First != _Last; ++_Dest, ++_First)

  00003	8b 45 08	 mov	 eax, DWORD PTR __First$[ebp]
  00006	3b 45 0c	 cmp	 eax, DWORD PTR __Last$[ebp]
  00009	74 1a		 je	 SHORT $LN10@Move
  0000b	56		 push	 esi
  0000c	57		 push	 edi
$LL3@Move:

; 2514 : 		*_Dest = _STD move(*_First);

  0000d	8b 7d 10	 mov	 edi, DWORD PTR __Dest$[ebp]
  00010	83 45 10 1c	 add	 DWORD PTR __Dest$[ebp], 28 ; 0000001cH
  00014	8b f0		 mov	 esi, eax
  00016	6a 07		 push	 7
  00018	83 c0 1c	 add	 eax, 28			; 0000001cH
  0001b	59		 pop	 ecx
  0001c	f3 a5		 rep movsd
  0001e	3b 45 0c	 cmp	 eax, DWORD PTR __Last$[ebp]
  00021	75 ea		 jne	 SHORT $LL3@Move
  00023	5f		 pop	 edi
  00024	5e		 pop	 esi
$LN10@Move:

; 2515 : 	return (_Dest);

  00025	8b 45 10	 mov	 eax, DWORD PTR __Dest$[ebp]

; 2516 : 	}

  00028	5d		 pop	 ebp
  00029	c3		 ret	 0
??$_Move@PAUPullDownInnerImage@@PAU1@@std@@YAPAUPullDownInnerImage@@PAU1@00U_Nonscalar_ptr_iterator_tag@0@@Z ENDP ; std::_Move<PullDownInnerImage *,PullDownInnerImage *>
_TEXT	ENDS
PUBLIC	??$_Uninitialized_move@PAPAVioPullDownItem@@PAPAV1@V?$allocator@PAVioPullDownItem@@@std@@@std@@YAPAPAVioPullDownItem@@PAPAV1@00AAV?$allocator@PAVioPullDownItem@@@0@@Z ; std::_Uninitialized_move<ioPullDownItem * *,ioPullDownItem * *,std::allocator<ioPullDownItem *> >
; Function compile flags: /Ogsp
; File c:\program files (x86)\microsoft visual studio 10.0\vc\include\memory
;	COMDAT ??$_Uninitialized_move@PAPAVioPullDownItem@@PAPAV1@V?$allocator@PAVioPullDownItem@@@std@@@std@@YAPAPAVioPullDownItem@@PAPAV1@00AAV?$allocator@PAVioPullDownItem@@@0@@Z
_TEXT	SEGMENT
__First$ = 8						; size = 4
__Last$ = 12						; size = 4
__Dest$ = 16						; size = 4
__Al$ = 20						; size = 4
??$_Uninitialized_move@PAPAVioPullDownItem@@PAPAV1@V?$allocator@PAVioPullDownItem@@@std@@@std@@YAPAPAVioPullDownItem@@PAPAV1@00AAV?$allocator@PAVioPullDownItem@@@0@@Z PROC ; std::_Uninitialized_move<ioPullDownItem * *,ioPullDownItem * *,std::allocator<ioPullDownItem *> >, COMDAT

; 469  : 	{	// move [_First, _Last) to raw _Dest, using _Al

  00000	55		 push	 ebp
  00001	8b ec		 mov	 ebp, esp
  00003	56		 push	 esi

; 470  : 	return (_Uninit_move(_First, _Last, _Dest, _Al,
; 471  : 		_Val_type(_First), _Ptr_cat(_First, _Dest)));

  00004	8b 75 0c	 mov	 esi, DWORD PTR __Last$[ebp]
  00007	2b 75 08	 sub	 esi, DWORD PTR __First$[ebp]
  0000a	c1 fe 02	 sar	 esi, 2
  0000d	c1 e6 02	 shl	 esi, 2
  00010	56		 push	 esi
  00011	ff 75 08	 push	 DWORD PTR __First$[ebp]
  00014	ff 75 10	 push	 DWORD PTR __Dest$[ebp]
  00017	ff 15 00 00 00
	00		 call	 DWORD PTR __imp__memmove
  0001d	83 c4 0c	 add	 esp, 12			; 0000000cH
  00020	03 c6		 add	 eax, esi
  00022	5e		 pop	 esi

; 472  : 	}

  00023	5d		 pop	 ebp
  00024	c3		 ret	 0
??$_Uninitialized_move@PAPAVioPullDownItem@@PAPAV1@V?$allocator@PAVioPullDownItem@@@std@@@std@@YAPAPAVioPullDownItem@@PAPAV1@00AAV?$allocator@PAVioPullDownItem@@@0@@Z ENDP ; std::_Uninitialized_move<ioPullDownItem * *,ioPullDownItem * *,std::allocator<ioPullDownItem *> >
_TEXT	ENDS
PUBLIC	?destroy@?$allocator@UPullDownInnerImage@@@std@@QAEXPAUPullDownInnerImage@@@Z ; std::allocator<PullDownInnerImage>::destroy
; Function compile flags: /Ogsp
; File c:\program files (x86)\microsoft visual studio 10.0\vc\include\xmemory
;	COMDAT ?destroy@?$allocator@UPullDownInnerImage@@@std@@QAEXPAUPullDownInnerImage@@@Z
_TEXT	SEGMENT
__Ptr$ = 8						; size = 4
?destroy@?$allocator@UPullDownInnerImage@@@std@@QAEXPAUPullDownInnerImage@@@Z PROC ; std::allocator<PullDownInnerImage>::destroy, COMDAT
; _this$ = ecx

; 213  : 		_Destroy(_Ptr);
; 214  : 		}

  00000	c2 04 00	 ret	 4
?destroy@?$allocator@UPullDownInnerImage@@@std@@QAEXPAUPullDownInnerImage@@@Z ENDP ; std::allocator<PullDownInnerImage>::destroy
_TEXT	ENDS
PUBLIC	?construct@?$allocator@UPullDownInnerImage@@@std@@QAEXPAUPullDownInnerImage@@$$QAU3@@Z ; std::allocator<PullDownInnerImage>::construct
; Function compile flags: /Ogsp
;	COMDAT ?construct@?$allocator@UPullDownInnerImage@@@std@@QAEXPAUPullDownInnerImage@@$$QAU3@@Z
_TEXT	SEGMENT
__Ptr$ = 8						; size = 4
__Val$ = 12						; size = 4
?construct@?$allocator@UPullDownInnerImage@@@std@@QAEXPAUPullDownInnerImage@@$$QAU3@@Z PROC ; std::allocator<PullDownInnerImage>::construct, COMDAT
; _this$ = ecx

; 201  : 		{	// construct object at _Ptr with value _Val

  00000	55		 push	 ebp
  00001	8b ec		 mov	 ebp, esp
  00003	57		 push	 edi

; 202  : 		::new ((void _FARQ *)_Ptr) _Ty(_STD forward<_Ty>(_Val));

  00004	8b 7d 08	 mov	 edi, DWORD PTR __Ptr$[ebp]
  00007	85 ff		 test	 edi, edi
  00009	74 0a		 je	 SHORT $LN3@construct@5
  0000b	56		 push	 esi
  0000c	8b 75 0c	 mov	 esi, DWORD PTR __Val$[ebp]
  0000f	6a 07		 push	 7
  00011	59		 pop	 ecx
  00012	f3 a5		 rep movsd
  00014	5e		 pop	 esi
$LN3@construct@5:
  00015	5f		 pop	 edi

; 203  : 		}

  00016	5d		 pop	 ebp
  00017	c2 08 00	 ret	 8
?construct@?$allocator@UPullDownInnerImage@@@std@@QAEXPAUPullDownInnerImage@@$$QAU3@@Z ENDP ; std::allocator<PullDownInnerImage>::construct
_TEXT	ENDS
PUBLIC	_szType$GSCopy$
PUBLIC	_pImage$GSCopy$
PUBLIC	_this$GSCopy$
PUBLIC	__$ArrayPad$
PUBLIC	?AddRenderImage@ioPullDownList@@UAEXABVioHashString@@PAVioUIRenderImage@@@Z ; ioPullDownList::AddRenderImage
EXTRN	__imp_?AddRenderImage@ioWnd@@UAEXABVioHashString@@PAVioUIRenderImage@@@Z:PROC
; Function compile flags: /Ogsp
; File d:\lost saga for developer\youtube\tutorial\source\src\lsclient\gui\iopulldownlist.cpp
;	COMDAT ?AddRenderImage@ioPullDownList@@UAEXABVioHashString@@PAVioUIRenderImage@@@Z
_TEXT	SEGMENT
_szType$GSCopy$ = -32					; size = 4
_pImage$GSCopy$ = -28					; size = 4
_this$GSCopy$ = -24					; size = 4
__t$524927 = -20					; size = 9
__t$524815 = -20					; size = 10
__t$524690 = -20					; size = 9
__$ArrayPad$ = -4					; size = 4
_szType$ = 8						; size = 4
_pImage$ = 12						; size = 4
?AddRenderImage@ioPullDownList@@UAEXABVioHashString@@PAVioUIRenderImage@@@Z PROC ; ioPullDownList::AddRenderImage, COMDAT
; _this$ = ecx

; 126  : {

  00000	55		 push	 ebp
  00001	8b ec		 mov	 ebp, esp
  00003	83 ec 20	 sub	 esp, 32			; 00000020H
  00006	a1 00 00 00 00	 mov	 eax, DWORD PTR ___security_cookie
  0000b	33 c5		 xor	 eax, ebp
  0000d	89 45 fc	 mov	 DWORD PTR __$ArrayPad$[ebp], eax
  00010	8b 45 0c	 mov	 eax, DWORD PTR _pImage$[ebp]
  00013	8b 55 08	 mov	 edx, DWORD PTR _szType$[ebp]
  00016	53		 push	 ebx
  00017	56		 push	 esi
  00018	57		 push	 edi

; 127  : 	if( szType == "DarkLine" )

  00019	6a 02		 push	 2
  0001b	5f		 pop	 edi
  0001c	89 4d e8	 mov	 DWORD PTR _this$GSCopy$[ebp], ecx

; 136  : 	}
; 137  : 	else if( szType == "OverLine" )

  0001f	89 45 e4	 mov	 DWORD PTR _pImage$GSCopy$[ebp], eax
  00022	89 55 e0	 mov	 DWORD PTR _szType$GSCopy$[ebp], edx
  00025	c7 45 ec a9 8d
	99 81		 mov	 DWORD PTR __t$524690[ebp], -2120643159 ; 81998da9H
  0002c	c7 45 f0 a1 85
	85 8f		 mov	 DWORD PTR __t$524690[ebp+4], -1887074911 ; 8f8585a1H
  00033	8d 45 ec	 lea	 eax, DWORD PTR __t$524690[ebp]
  00036	c6 45 f4 00	 mov	 BYTE PTR __t$524690[ebp+8], 0
  0003a	8b cf		 mov	 ecx, edi
  0003c	bb ed ec eb ea	 mov	 ebx, -353637139		; eaebecedH
$LL121@AddRenderI:

; 127  : 	if( szType == "DarkLine" )

  00041	31 18		 xor	 DWORD PTR [eax], ebx
  00043	83 c0 04	 add	 eax, 4
  00046	49		 dec	 ecx
  00047	75 f8		 jne	 SHORT $LL121@AddRenderI
  00049	8b ca		 mov	 ecx, edx
  0004b	8d 75 ec	 lea	 esi, DWORD PTR __t$524690[ebp]
  0004e	ff 15 00 00 00
	00		 call	 DWORD PTR __imp_?c_str@ioHashString@@QBEPBDXZ
$LL350@AddRenderI:
  00054	8a 08		 mov	 cl, BYTE PTR [eax]
  00056	3a 0e		 cmp	 cl, BYTE PTR [esi]
  00058	75 18		 jne	 SHORT $LN351@AddRenderI
  0005a	84 c9		 test	 cl, cl
  0005c	74 10		 je	 SHORT $LN352@AddRenderI
  0005e	8a 48 01	 mov	 cl, BYTE PTR [eax+1]
  00061	3a 4e 01	 cmp	 cl, BYTE PTR [esi+1]
  00064	75 0c		 jne	 SHORT $LN351@AddRenderI
  00066	03 c7		 add	 eax, edi
  00068	03 f7		 add	 esi, edi
  0006a	84 c9		 test	 cl, cl
  0006c	75 e6		 jne	 SHORT $LL350@AddRenderI
$LN352@AddRenderI:
  0006e	33 c0		 xor	 eax, eax
  00070	eb 05		 jmp	 SHORT $LN353@AddRenderI
$LN351@AddRenderI:
  00072	1b c0		 sbb	 eax, eax
  00074	83 d8 ff	 sbb	 eax, -1
$LN353@AddRenderI:
  00077	85 c0		 test	 eax, eax
  00079	75 29		 jne	 SHORT $LN348@AddRenderI

; 128  : 	{
; 129  : 		SAFEDELETE( m_pDarkLine );

  0007b	8b 75 e8	 mov	 esi, DWORD PTR _this$GSCopy$[ebp]
  0007e	8b 8e 64 01 00
	00		 mov	 ecx, DWORD PTR [esi+356]
  00084	85 c9		 test	 ecx, ecx
  00086	74 0e		 je	 SHORT $LN8@AddRenderI
  00088	8b 01		 mov	 eax, DWORD PTR [ecx]
  0008a	6a 01		 push	 1
  0008c	ff 50 40	 call	 DWORD PTR [eax+64]
  0008f	83 a6 64 01 00
	00 00		 and	 DWORD PTR [esi+356], 0
$LN8@AddRenderI:

; 130  : 		m_pDarkLine = pImage;

  00096	8b 45 e4	 mov	 eax, DWORD PTR _pImage$GSCopy$[ebp]
  00099	89 86 64 01 00
	00		 mov	 DWORD PTR [esi+356], eax
  0009f	e9 08 01 00 00	 jmp	 $LN1@AddRenderI
$LN348@AddRenderI:

; 131  : 	}
; 132  : 	else if( szType == "LightLine" )

  000a4	c7 45 ec a1 85
	8c 82		 mov	 DWORD PTR __t$524815[ebp], -2104719967 ; 828c85a1H
  000ab	c7 45 f0 99 a0
	82 84		 mov	 DWORD PTR __t$524815[ebp+4], -2071813991 ; 8482a099H
  000b2	8d 45 ec	 lea	 eax, DWORD PTR __t$524815[ebp]
  000b5	66 c7 45 f4 88
	00		 mov	 WORD PTR __t$524815[ebp+8], 136 ; 00000088H
  000bb	8b cf		 mov	 ecx, edi
$LL227@AddRenderI:
  000bd	31 18		 xor	 DWORD PTR [eax], ebx
  000bf	83 c0 04	 add	 eax, 4
  000c2	49		 dec	 ecx
  000c3	75 f8		 jne	 SHORT $LL227@AddRenderI
  000c5	8b 4d e0	 mov	 ecx, DWORD PTR _szType$GSCopy$[ebp]
  000c8	80 75 f4 ed	 xor	 BYTE PTR __t$524815[ebp+8], -19 ; ffffffedH
  000cc	8d 75 ec	 lea	 esi, DWORD PTR __t$524815[ebp]
  000cf	ff 15 00 00 00
	00		 call	 DWORD PTR __imp_?c_str@ioHashString@@QBEPBDXZ
$LL354@AddRenderI:
  000d5	8a 08		 mov	 cl, BYTE PTR [eax]
  000d7	3a 0e		 cmp	 cl, BYTE PTR [esi]
  000d9	75 18		 jne	 SHORT $LN355@AddRenderI
  000db	84 c9		 test	 cl, cl
  000dd	74 10		 je	 SHORT $LN356@AddRenderI
  000df	8a 48 01	 mov	 cl, BYTE PTR [eax+1]
  000e2	3a 4e 01	 cmp	 cl, BYTE PTR [esi+1]
  000e5	75 0c		 jne	 SHORT $LN355@AddRenderI
  000e7	03 c7		 add	 eax, edi
  000e9	03 f7		 add	 esi, edi
  000eb	84 c9		 test	 cl, cl
  000ed	75 e6		 jne	 SHORT $LL354@AddRenderI
$LN356@AddRenderI:
  000ef	33 c0		 xor	 eax, eax
  000f1	eb 05		 jmp	 SHORT $LN357@AddRenderI
$LN355@AddRenderI:
  000f3	1b c0		 sbb	 eax, eax
  000f5	83 d8 ff	 sbb	 eax, -1
$LN357@AddRenderI:
  000f8	85 c0		 test	 eax, eax
  000fa	75 29		 jne	 SHORT $LN349@AddRenderI

; 133  : 	{
; 134  : 		SAFEDELETE( m_pLightLine );

  000fc	8b 75 e8	 mov	 esi, DWORD PTR _this$GSCopy$[ebp]
  000ff	8b 8e 68 01 00
	00		 mov	 ecx, DWORD PTR [esi+360]
  00105	85 c9		 test	 ecx, ecx
  00107	74 0e		 je	 SHORT $LN5@AddRenderI
  00109	8b 01		 mov	 eax, DWORD PTR [ecx]
  0010b	6a 01		 push	 1
  0010d	ff 50 40	 call	 DWORD PTR [eax+64]
  00110	83 a6 68 01 00
	00 00		 and	 DWORD PTR [esi+360], 0
$LN5@AddRenderI:

; 135  : 		m_pLightLine = pImage;

  00117	8b 45 e4	 mov	 eax, DWORD PTR _pImage$GSCopy$[ebp]
  0011a	89 86 68 01 00
	00		 mov	 DWORD PTR [esi+360], eax
  00120	e9 87 00 00 00	 jmp	 $LN1@AddRenderI
$LN349@AddRenderI:

; 136  : 	}
; 137  : 	else if( szType == "OverLine" )

  00125	c7 45 ec a2 9a
	8e 98		 mov	 DWORD PTR __t$524927[ebp], -1735484766 ; 988e9aa2H
  0012c	c7 45 f0 a1 85
	85 8f		 mov	 DWORD PTR __t$524927[ebp+4], -1887074911 ; 8f8585a1H
  00133	8d 45 ec	 lea	 eax, DWORD PTR __t$524927[ebp]
  00136	c6 45 f4 00	 mov	 BYTE PTR __t$524927[ebp+8], 0
  0013a	8b cf		 mov	 ecx, edi
$LL333@AddRenderI:
  0013c	31 18		 xor	 DWORD PTR [eax], ebx
  0013e	83 c0 04	 add	 eax, 4
  00141	49		 dec	 ecx
  00142	75 f8		 jne	 SHORT $LL333@AddRenderI
  00144	8b 4d e0	 mov	 ecx, DWORD PTR _szType$GSCopy$[ebp]
  00147	8d 75 ec	 lea	 esi, DWORD PTR __t$524927[ebp]
  0014a	ff 15 00 00 00
	00		 call	 DWORD PTR __imp_?c_str@ioHashString@@QBEPBDXZ
$LL358@AddRenderI:
  00150	8a 08		 mov	 cl, BYTE PTR [eax]
  00152	3a 0e		 cmp	 cl, BYTE PTR [esi]
  00154	75 18		 jne	 SHORT $LN359@AddRenderI
  00156	84 c9		 test	 cl, cl
  00158	74 10		 je	 SHORT $LN360@AddRenderI
  0015a	8a 48 01	 mov	 cl, BYTE PTR [eax+1]
  0015d	3a 4e 01	 cmp	 cl, BYTE PTR [esi+1]
  00160	75 0c		 jne	 SHORT $LN359@AddRenderI
  00162	03 c7		 add	 eax, edi
  00164	03 f7		 add	 esi, edi
  00166	84 c9		 test	 cl, cl
  00168	75 e6		 jne	 SHORT $LL358@AddRenderI
$LN360@AddRenderI:
  0016a	33 c0		 xor	 eax, eax
  0016c	eb 05		 jmp	 SHORT $LN361@AddRenderI
$LN359@AddRenderI:
  0016e	1b c0		 sbb	 eax, eax
  00170	83 d8 ff	 sbb	 eax, -1
$LN361@AddRenderI:
  00173	85 c0		 test	 eax, eax
  00175	75 26		 jne	 SHORT $LN3@AddRenderI

; 138  : 	{
; 139  : 		SAFEDELETE( m_pOverLine );

  00177	8b 75 e8	 mov	 esi, DWORD PTR _this$GSCopy$[ebp]
  0017a	8b 8e 6c 01 00
	00		 mov	 ecx, DWORD PTR [esi+364]
  00180	85 c9		 test	 ecx, ecx
  00182	74 0e		 je	 SHORT $LN2@AddRenderI
  00184	8b 01		 mov	 eax, DWORD PTR [ecx]
  00186	6a 01		 push	 1
  00188	ff 50 40	 call	 DWORD PTR [eax+64]
  0018b	83 a6 6c 01 00
	00 00		 and	 DWORD PTR [esi+364], 0
$LN2@AddRenderI:

; 140  : 		m_pOverLine = pImage;

  00192	8b 45 e4	 mov	 eax, DWORD PTR _pImage$GSCopy$[ebp]
  00195	89 86 6c 01 00
	00		 mov	 DWORD PTR [esi+364], eax

; 141  : 	}
; 142  : 	else

  0019b	eb 0f		 jmp	 SHORT $LN1@AddRenderI
$LN3@AddRenderI:

; 143  : 	{
; 144  : 		ioWnd::AddRenderImage( szType, pImage );

  0019d	ff 75 e4	 push	 DWORD PTR _pImage$GSCopy$[ebp]
  001a0	8b 4d e8	 mov	 ecx, DWORD PTR _this$GSCopy$[ebp]
  001a3	ff 75 e0	 push	 DWORD PTR _szType$GSCopy$[ebp]
  001a6	ff 15 00 00 00
	00		 call	 DWORD PTR __imp_?AddRenderImage@ioWnd@@UAEXABVioHashString@@PAVioUIRenderImage@@@Z
$LN1@AddRenderI:

; 145  : 	}
; 146  : }

  001ac	8b 4d fc	 mov	 ecx, DWORD PTR __$ArrayPad$[ebp]
  001af	5f		 pop	 edi
  001b0	5e		 pop	 esi
  001b1	33 cd		 xor	 ecx, ebp
  001b3	5b		 pop	 ebx
  001b4	e8 00 00 00 00	 call	 @__security_check_cookie@4
  001b9	c9		 leave
  001ba	c2 08 00	 ret	 8
?AddRenderImage@ioPullDownList@@UAEXABVioHashString@@PAVioUIRenderImage@@@Z ENDP ; ioPullDownList::AddRenderImage
_TEXT	ENDS
PUBLIC	?iwm_hide@ioPullDownList@@UAEXXZ		; ioPullDownList::iwm_hide
; Function compile flags: /Ogsp
;	COMDAT ?iwm_hide@ioPullDownList@@UAEXXZ
_TEXT	SEGMENT
?iwm_hide@ioPullDownList@@UAEXXZ PROC			; ioPullDownList::iwm_hide, COMDAT
; _this$ = ecx

; 154  : {

  00000	53		 push	 ebx
  00001	56		 push	 esi
  00002	57		 push	 edi

; 155  : 	SetCheckParentOutSide( false );

  00003	6a 00		 push	 0
  00005	8b f1		 mov	 esi, ecx
  00007	ff 15 00 00 00
	00		 call	 DWORD PTR __imp_?SetCheckParentOutSide@ioWnd@@QAEX_N@Z

; 156  : 
; 157  : 	//풀 다운 아이템 마우스 리브
; 158  : 	OnPullDownLeave( m_iOverSelectIndex, m_iImageOverIndex );	

  0000d	ff b6 90 01 00
	00		 push	 DWORD PTR [esi+400]
  00013	8b ce		 mov	 ecx, esi
  00015	ff b6 8c 01 00
	00		 push	 DWORD PTR [esi+396]
  0001b	e8 00 00 00 00	 call	 ?OnPullDownLeave@ioPullDownList@@QAEXHH@Z ; ioPullDownList::OnPullDownLeave

; 159  : 	m_iOverSelectIndex	= PullDownEvent::NONE_SELECT;

  00020	83 8e 8c 01 00
	00 ff		 or	 DWORD PTR [esi+396], -1

; 160  : 	m_iImageOverIndex	= PullDownEvent::NONE_SELECT;

  00027	83 8e 90 01 00
	00 ff		 or	 DWORD PTR [esi+400], -1
  0002e	5f		 pop	 edi
  0002f	5e		 pop	 esi
  00030	5b		 pop	 ebx

; 161  : }

  00031	c3		 ret	 0
?iwm_hide@ioPullDownList@@UAEXXZ ENDP			; ioPullDownList::iwm_hide
_TEXT	ENDS
PUBLIC	?CheckPullDownItem@ioPullDownList@@QAE_NPAVioLSMouse@@HH@Z ; ioPullDownList::CheckPullDownItem
EXTRN	__imp_?HideWnd@ioWnd@@QAEXXZ:PROC
EXTRN	__imp_?IsLBtnUp@ioMouse@@QBE_NXZ:PROC
; Function compile flags: /Ogsp
;	COMDAT ?CheckPullDownItem@ioPullDownList@@QAE_NPAVioLSMouse@@HH@Z
_TEXT	SEGMENT
_pMouse$ = 8						; size = 4
_iOverIdx$ = 12						; size = 4
_iOverImageIdx$ = 16					; size = 4
?CheckPullDownItem@ioPullDownList@@QAE_NPAVioLSMouse@@HH@Z PROC ; ioPullDownList::CheckPullDownItem, COMDAT
; _this$ = ecx

; 399  : {

  00000	55		 push	 ebp
  00001	8b ec		 mov	 ebp, esp
  00003	56		 push	 esi
  00004	57		 push	 edi

; 400  : 	//풀다운 아이템 마우스 클릭
; 401  : 	if( m_iOverSelectIndex == iOverIdx && iOverImageIdx == PullDownEvent::NONE_SELECT && pMouse->IsLBtnUp() )

  00005	8b 7d 0c	 mov	 edi, DWORD PTR _iOverIdx$[ebp]
  00008	8b f1		 mov	 esi, ecx
  0000a	39 be 8c 01 00
	00		 cmp	 DWORD PTR [esi+396], edi
  00010	75 31		 jne	 SHORT $LN7@CheckPullD
  00012	83 7d 10 ff	 cmp	 DWORD PTR _iOverImageIdx$[ebp], -1
  00016	75 23		 jne	 SHORT $LN3@CheckPullD
  00018	8b 4d 08	 mov	 ecx, DWORD PTR _pMouse$[ebp]
  0001b	ff 15 00 00 00
	00		 call	 DWORD PTR __imp_?IsLBtnUp@ioMouse@@QBE_NXZ
  00021	84 c0		 test	 al, al
  00023	74 16		 je	 SHORT $LN3@CheckPullD

; 402  : 	{			
; 403  : 		OnPullDownClick( iOverIdx, PullDownEvent::NONE_SELECT );

  00025	6a ff		 push	 -1
  00027	57		 push	 edi
  00028	8b ce		 mov	 ecx, esi
  0002a	e8 00 00 00 00	 call	 ?OnPullDownClick@ioPullDownList@@QAEXHH@Z ; ioPullDownList::OnPullDownClick

; 404  : 		HideWnd();

  0002f	8b ce		 mov	 ecx, esi
  00031	ff 15 00 00 00
	00		 call	 DWORD PTR __imp_?HideWnd@ioWnd@@QAEXXZ
$LN8@CheckPullD:

; 405  : 		return true;

  00037	b0 01		 mov	 al, 1
  00039	eb 23		 jmp	 SHORT $LN4@CheckPullD
$LN3@CheckPullD:

; 406  : 	}
; 407  : 	//풀다운 아이템 마우스 오버
; 408  : 	else if( m_iOverSelectIndex != iOverIdx )

  0003b	39 be 8c 01 00
	00		 cmp	 DWORD PTR [esi+396], edi
  00041	74 19		 je	 SHORT $LN1@CheckPullD
$LN7@CheckPullD:

; 409  : 	{			
; 410  : 		OnPullDownOver( iOverIdx, PullDownEvent::NONE_SELECT );

  00043	6a ff		 push	 -1
  00045	57		 push	 edi
  00046	8b ce		 mov	 ecx, esi
  00048	e8 00 00 00 00	 call	 ?OnPullDownOver@ioPullDownList@@QAEXHH@Z ; ioPullDownList::OnPullDownOver

; 411  : 
; 412  : 		m_iOverSelectIndex = iOverIdx;
; 413  : 		m_iImageOverIndex  = PullDownEvent::NONE_SELECT;

  0004d	83 8e 90 01 00
	00 ff		 or	 DWORD PTR [esi+400], -1
  00054	89 be 8c 01 00
	00		 mov	 DWORD PTR [esi+396], edi

; 414  : 		return true;

  0005a	eb db		 jmp	 SHORT $LN8@CheckPullD
$LN1@CheckPullD:

; 415  : 	}
; 416  : 
; 417  : 	return false;

  0005c	32 c0		 xor	 al, al
$LN4@CheckPullD:
  0005e	5f		 pop	 edi
  0005f	5e		 pop	 esi

; 418  : }

  00060	5d		 pop	 ebp
  00061	c2 0c 00	 ret	 12			; 0000000cH
?CheckPullDownItem@ioPullDownList@@QAE_NPAVioLSMouse@@HH@Z ENDP ; ioPullDownList::CheckPullDownItem
_TEXT	ENDS
PUBLIC	?CheckPullDownImage@ioPullDownList@@QAE_NPAVioLSMouse@@HH@Z ; ioPullDownList::CheckPullDownImage
; Function compile flags: /Ogsp
;	COMDAT ?CheckPullDownImage@ioPullDownList@@QAE_NPAVioLSMouse@@HH@Z
_TEXT	SEGMENT
_pMouse$ = 8						; size = 4
_iOverIdx$ = 12						; size = 4
_iOverImageIdx$ = 16					; size = 4
?CheckPullDownImage@ioPullDownList@@QAE_NPAVioLSMouse@@HH@Z PROC ; ioPullDownList::CheckPullDownImage, COMDAT
; _this$ = ecx

; 421  : {

  00000	55		 push	 ebp
  00001	8b ec		 mov	 ebp, esp
  00003	53		 push	 ebx
  00004	56		 push	 esi
  00005	8b f1		 mov	 esi, ecx

; 422  : 	//이미지 마우스 리브
; 423  : 	if( m_iImageOverIndex != PullDownEvent::NONE_SELECT && iOverImageIdx == PullDownEvent::NONE_SELECT )

  00007	8b 86 90 01 00
	00		 mov	 eax, DWORD PTR [esi+400]
  0000d	83 cb ff	 or	 ebx, -1
  00010	57		 push	 edi
  00011	8b 7d 10	 mov	 edi, DWORD PTR _iOverImageIdx$[ebp]
  00014	3b c3		 cmp	 eax, ebx
  00016	74 44		 je	 SHORT $LN3@CheckPullD@2
  00018	3b fb		 cmp	 edi, ebx
  0001a	75 16		 jne	 SHORT $LN5@CheckPullD@2

; 424  : 	{		
; 425  : 		OnPullDownLeave( m_iOverSelectIndex, m_iImageOverIndex );

  0001c	50		 push	 eax
  0001d	ff b6 8c 01 00
	00		 push	 DWORD PTR [esi+396]
  00023	e8 00 00 00 00	 call	 ?OnPullDownLeave@ioPullDownList@@QAEXHH@Z ; ioPullDownList::OnPullDownLeave

; 426  : 		m_iImageOverIndex = PullDownEvent::NONE_SELECT;

  00028	89 9e 90 01 00
	00		 mov	 DWORD PTR [esi+400], ebx
$LN9@CheckPullD@2:

; 427  : 		return true;

  0002e	b0 01		 mov	 al, 1
  00030	eb 52		 jmp	 SHORT $LN6@CheckPullD@2
$LN5@CheckPullD@2:

; 428  : 	}
; 429  : 	else
; 430  : 	{
; 431  : 		//이미지 클릭
; 432  : 		if( m_iImageOverIndex != PullDownEvent::NONE_SELECT && m_iImageOverIndex == iOverImageIdx && pMouse->IsLBtnUp() )

  00032	3b c3		 cmp	 eax, ebx
  00034	74 26		 je	 SHORT $LN3@CheckPullD@2
  00036	3b c7		 cmp	 eax, edi
  00038	75 22		 jne	 SHORT $LN3@CheckPullD@2
  0003a	8b 4d 08	 mov	 ecx, DWORD PTR _pMouse$[ebp]
  0003d	ff 15 00 00 00
	00		 call	 DWORD PTR __imp_?IsLBtnUp@ioMouse@@QBE_NXZ
  00043	84 c0		 test	 al, al
  00045	74 15		 je	 SHORT $LN3@CheckPullD@2

; 433  : 		{			
; 434  : 			OnPullDownClick( iOverIdx, iOverImageIdx );

  00047	57		 push	 edi
  00048	ff 75 0c	 push	 DWORD PTR _iOverIdx$[ebp]
  0004b	8b ce		 mov	 ecx, esi
  0004d	e8 00 00 00 00	 call	 ?OnPullDownClick@ioPullDownList@@QAEXHH@Z ; ioPullDownList::OnPullDownClick

; 435  : 			HideWnd();

  00052	8b ce		 mov	 ecx, esi
  00054	ff 15 00 00 00
	00		 call	 DWORD PTR __imp_?HideWnd@ioWnd@@QAEXXZ

; 436  : 			return true;

  0005a	eb d2		 jmp	 SHORT $LN9@CheckPullD@2
$LN3@CheckPullD@2:

; 437  : 		}
; 438  : 		//이미지 마우스 오버
; 439  : 		else if( m_iImageOverIndex == PullDownEvent::NONE_SELECT && m_iImageOverIndex != iOverImageIdx )

  0005c	39 9e 90 01 00
	00		 cmp	 DWORD PTR [esi+400], ebx
  00062	75 1e		 jne	 SHORT $LN1@CheckPullD@2
  00064	3b fb		 cmp	 edi, ebx
  00066	74 1a		 je	 SHORT $LN1@CheckPullD@2

; 440  : 		{			
; 441  : 			OnPullDownOver( iOverIdx, iOverImageIdx );

  00068	8b 5d 0c	 mov	 ebx, DWORD PTR _iOverIdx$[ebp]
  0006b	57		 push	 edi
  0006c	53		 push	 ebx
  0006d	8b ce		 mov	 ecx, esi
  0006f	e8 00 00 00 00	 call	 ?OnPullDownOver@ioPullDownList@@QAEXHH@Z ; ioPullDownList::OnPullDownOver

; 442  : 			m_iImageOverIndex  = iOverImageIdx;

  00074	89 be 90 01 00
	00		 mov	 DWORD PTR [esi+400], edi

; 443  : 			m_iOverSelectIndex = iOverIdx;

  0007a	89 9e 8c 01 00
	00		 mov	 DWORD PTR [esi+396], ebx

; 444  : 			return true;

  00080	eb ac		 jmp	 SHORT $LN9@CheckPullD@2
$LN1@CheckPullD@2:

; 445  : 		}
; 446  : 	}
; 447  : 
; 448  : 	return false;

  00082	32 c0		 xor	 al, al
$LN6@CheckPullD@2:
  00084	5f		 pop	 edi
  00085	5e		 pop	 esi
  00086	5b		 pop	 ebx

; 449  : }

  00087	5d		 pop	 ebp
  00088	c2 0c 00	 ret	 12			; 0000000cH
?CheckPullDownImage@ioPullDownList@@QAE_NPAVioLSMouse@@HH@Z ENDP ; ioPullDownList::CheckPullDownImage
_TEXT	ENDS
PUBLIC	??0?$vector@UPullDownInnerImage@@V?$allocator@UPullDownInnerImage@@@std@@@std@@QAE@XZ ; std::vector<PullDownInnerImage,std::allocator<PullDownInnerImage> >::vector<PullDownInnerImage,std::allocator<PullDownInnerImage> >
; Function compile flags: /Ogsp
; File c:\program files (x86)\microsoft visual studio 10.0\vc\include\vector
;	COMDAT ??0?$vector@UPullDownInnerImage@@V?$allocator@UPullDownInnerImage@@@std@@@std@@QAE@XZ
_TEXT	SEGMENT
??0?$vector@UPullDownInnerImage@@V?$allocator@UPullDownInnerImage@@@std@@@std@@QAE@XZ PROC ; std::vector<PullDownInnerImage,std::allocator<PullDownInnerImage> >::vector<PullDownInnerImage,std::allocator<PullDownInnerImage> >, COMDAT
; _this$ = ecx

; 507  : 		{	// construct empty vector

  00000	8b c1		 mov	 eax, ecx
  00002	33 c9		 xor	 ecx, ecx
  00004	89 08		 mov	 DWORD PTR [eax], ecx
  00006	89 48 04	 mov	 DWORD PTR [eax+4], ecx
  00009	89 48 08	 mov	 DWORD PTR [eax+8], ecx

; 508  : 		}

  0000c	c3		 ret	 0
??0?$vector@UPullDownInnerImage@@V?$allocator@UPullDownInnerImage@@@std@@@std@@QAE@XZ ENDP ; std::vector<PullDownInnerImage,std::allocator<PullDownInnerImage> >::vector<PullDownInnerImage,std::allocator<PullDownInnerImage> >
_TEXT	ENDS
PUBLIC	?begin@?$vector@UPullDownInnerImage@@V?$allocator@UPullDownInnerImage@@@std@@@std@@QAE?AV?$_Vector_iterator@V?$_Vector_val@UPullDownInnerImage@@V?$allocator@UPullDownInnerImage@@@std@@@std@@@2@XZ ; std::vector<PullDownInnerImage,std::allocator<PullDownInnerImage> >::begin
; Function compile flags: /Ogsp
;	COMDAT ?begin@?$vector@UPullDownInnerImage@@V?$allocator@UPullDownInnerImage@@@std@@@std@@QAE?AV?$_Vector_iterator@V?$_Vector_val@UPullDownInnerImage@@V?$allocator@UPullDownInnerImage@@@std@@@std@@@2@XZ
_TEXT	SEGMENT
___$ReturnUdt$ = 8					; size = 4
?begin@?$vector@UPullDownInnerImage@@V?$allocator@UPullDownInnerImage@@@std@@@std@@QAE?AV?$_Vector_iterator@V?$_Vector_val@UPullDownInnerImage@@V?$allocator@UPullDownInnerImage@@@std@@@std@@@2@XZ PROC ; std::vector<PullDownInnerImage,std::allocator<PullDownInnerImage> >::begin, COMDAT
; _this$ = ecx

; 781  : 		{	// return iterator for beginning of mutable sequence

  00000	55		 push	 ebp
  00001	8b ec		 mov	 ebp, esp

; 782  : 		return (iterator(this->_Myfirst, this));

  00003	8b 09		 mov	 ecx, DWORD PTR [ecx]
  00005	8b 45 08	 mov	 eax, DWORD PTR ___$ReturnUdt$[ebp]
  00008	89 08		 mov	 DWORD PTR [eax], ecx

; 783  : 		}

  0000a	5d		 pop	 ebp
  0000b	c2 04 00	 ret	 4
?begin@?$vector@UPullDownInnerImage@@V?$allocator@UPullDownInnerImage@@@std@@@std@@QAE?AV?$_Vector_iterator@V?$_Vector_val@UPullDownInnerImage@@V?$allocator@UPullDownInnerImage@@@std@@@std@@@2@XZ ENDP ; std::vector<PullDownInnerImage,std::allocator<PullDownInnerImage> >::begin
_TEXT	ENDS
PUBLIC	?end@?$vector@UPullDownInnerImage@@V?$allocator@UPullDownInnerImage@@@std@@@std@@QAE?AV?$_Vector_iterator@V?$_Vector_val@UPullDownInnerImage@@V?$allocator@UPullDownInnerImage@@@std@@@std@@@2@XZ ; std::vector<PullDownInnerImage,std::allocator<PullDownInnerImage> >::end
; Function compile flags: /Ogsp
;	COMDAT ?end@?$vector@UPullDownInnerImage@@V?$allocator@UPullDownInnerImage@@@std@@@std@@QAE?AV?$_Vector_iterator@V?$_Vector_val@UPullDownInnerImage@@V?$allocator@UPullDownInnerImage@@@std@@@std@@@2@XZ
_TEXT	SEGMENT
___$ReturnUdt$ = 8					; size = 4
?end@?$vector@UPullDownInnerImage@@V?$allocator@UPullDownInnerImage@@@std@@@std@@QAE?AV?$_Vector_iterator@V?$_Vector_val@UPullDownInnerImage@@V?$allocator@UPullDownInnerImage@@@std@@@std@@@2@XZ PROC ; std::vector<PullDownInnerImage,std::allocator<PullDownInnerImage> >::end, COMDAT
; _this$ = ecx

; 791  : 		{	// return iterator for end of mutable sequence

  00000	55		 push	 ebp
  00001	8b ec		 mov	 ebp, esp

; 792  : 		return (iterator(this->_Mylast, this));

  00003	8b 49 04	 mov	 ecx, DWORD PTR [ecx+4]
  00006	8b 45 08	 mov	 eax, DWORD PTR ___$ReturnUdt$[ebp]
  00009	89 08		 mov	 DWORD PTR [eax], ecx

; 793  : 		}

  0000b	5d		 pop	 ebp
  0000c	c2 04 00	 ret	 4
?end@?$vector@UPullDownInnerImage@@V?$allocator@UPullDownInnerImage@@@std@@@std@@QAE?AV?$_Vector_iterator@V?$_Vector_val@UPullDownInnerImage@@V?$allocator@UPullDownInnerImage@@@std@@@std@@@2@XZ ENDP ; std::vector<PullDownInnerImage,std::allocator<PullDownInnerImage> >::end
_TEXT	ENDS
PUBLIC	??0?$vector@PAVioPullDownItem@@V?$allocator@PAVioPullDownItem@@@std@@@std@@QAE@XZ ; std::vector<ioPullDownItem *,std::allocator<ioPullDownItem *> >::vector<ioPullDownItem *,std::allocator<ioPullDownItem *> >
; Function compile flags: /Ogsp
;	COMDAT ??0?$vector@PAVioPullDownItem@@V?$allocator@PAVioPullDownItem@@@std@@@std@@QAE@XZ
_TEXT	SEGMENT
??0?$vector@PAVioPullDownItem@@V?$allocator@PAVioPullDownItem@@@std@@@std@@QAE@XZ PROC ; std::vector<ioPullDownItem *,std::allocator<ioPullDownItem *> >::vector<ioPullDownItem *,std::allocator<ioPullDownItem *> >, COMDAT
; _this$ = ecx

; 507  : 		{	// construct empty vector

  00000	8b c1		 mov	 eax, ecx
  00002	33 c9		 xor	 ecx, ecx
  00004	89 08		 mov	 DWORD PTR [eax], ecx
  00006	89 48 04	 mov	 DWORD PTR [eax+4], ecx
  00009	89 48 08	 mov	 DWORD PTR [eax+8], ecx

; 508  : 		}

  0000c	c3		 ret	 0
??0?$vector@PAVioPullDownItem@@V?$allocator@PAVioPullDownItem@@@std@@@std@@QAE@XZ ENDP ; std::vector<ioPullDownItem *,std::allocator<ioPullDownItem *> >::vector<ioPullDownItem *,std::allocator<ioPullDownItem *> >
_TEXT	ENDS
PUBLIC	?begin@?$vector@PAVioPullDownItem@@V?$allocator@PAVioPullDownItem@@@std@@@std@@QAE?AV?$_Vector_iterator@V?$_Vector_val@PAVioPullDownItem@@V?$allocator@PAVioPullDownItem@@@std@@@std@@@2@XZ ; std::vector<ioPullDownItem *,std::allocator<ioPullDownItem *> >::begin
; Function compile flags: /Ogsp
;	COMDAT ?begin@?$vector@PAVioPullDownItem@@V?$allocator@PAVioPullDownItem@@@std@@@std@@QAE?AV?$_Vector_iterator@V?$_Vector_val@PAVioPullDownItem@@V?$allocator@PAVioPullDownItem@@@std@@@std@@@2@XZ
_TEXT	SEGMENT
___$ReturnUdt$ = 8					; size = 4
?begin@?$vector@PAVioPullDownItem@@V?$allocator@PAVioPullDownItem@@@std@@@std@@QAE?AV?$_Vector_iterator@V?$_Vector_val@PAVioPullDownItem@@V?$allocator@PAVioPullDownItem@@@std@@@std@@@2@XZ PROC ; std::vector<ioPullDownItem *,std::allocator<ioPullDownItem *> >::begin, COMDAT
; _this$ = ecx

; 781  : 		{	// return iterator for beginning of mutable sequence

  00000	55		 push	 ebp
  00001	8b ec		 mov	 ebp, esp

; 782  : 		return (iterator(this->_Myfirst, this));

  00003	8b 09		 mov	 ecx, DWORD PTR [ecx]
  00005	8b 45 08	 mov	 eax, DWORD PTR ___$ReturnUdt$[ebp]
  00008	89 08		 mov	 DWORD PTR [eax], ecx

; 783  : 		}

  0000a	5d		 pop	 ebp
  0000b	c2 04 00	 ret	 4
?begin@?$vector@PAVioPullDownItem@@V?$allocator@PAVioPullDownItem@@@std@@@std@@QAE?AV?$_Vector_iterator@V?$_Vector_val@PAVioPullDownItem@@V?$allocator@PAVioPullDownItem@@@std@@@std@@@2@XZ ENDP ; std::vector<ioPullDownItem *,std::allocator<ioPullDownItem *> >::begin
_TEXT	ENDS
PUBLIC	?end@?$vector@PAVioPullDownItem@@V?$allocator@PAVioPullDownItem@@@std@@@std@@QAE?AV?$_Vector_iterator@V?$_Vector_val@PAVioPullDownItem@@V?$allocator@PAVioPullDownItem@@@std@@@std@@@2@XZ ; std::vector<ioPullDownItem *,std::allocator<ioPullDownItem *> >::end
; Function compile flags: /Ogsp
;	COMDAT ?end@?$vector@PAVioPullDownItem@@V?$allocator@PAVioPullDownItem@@@std@@@std@@QAE?AV?$_Vector_iterator@V?$_Vector_val@PAVioPullDownItem@@V?$allocator@PAVioPullDownItem@@@std@@@std@@@2@XZ
_TEXT	SEGMENT
___$ReturnUdt$ = 8					; size = 4
?end@?$vector@PAVioPullDownItem@@V?$allocator@PAVioPullDownItem@@@std@@@std@@QAE?AV?$_Vector_iterator@V?$_Vector_val@PAVioPullDownItem@@V?$allocator@PAVioPullDownItem@@@std@@@std@@@2@XZ PROC ; std::vector<ioPullDownItem *,std::allocator<ioPullDownItem *> >::end, COMDAT
; _this$ = ecx

; 791  : 		{	// return iterator for end of mutable sequence

  00000	55		 push	 ebp
  00001	8b ec		 mov	 ebp, esp

; 792  : 		return (iterator(this->_Mylast, this));

  00003	8b 49 04	 mov	 ecx, DWORD PTR [ecx+4]
  00006	8b 45 08	 mov	 eax, DWORD PTR ___$ReturnUdt$[ebp]
  00009	89 08		 mov	 DWORD PTR [eax], ecx

; 793  : 		}

  0000b	5d		 pop	 ebp
  0000c	c2 04 00	 ret	 4
?end@?$vector@PAVioPullDownItem@@V?$allocator@PAVioPullDownItem@@@std@@@std@@QAE?AV?$_Vector_iterator@V?$_Vector_val@PAVioPullDownItem@@V?$allocator@PAVioPullDownItem@@@std@@@std@@@2@XZ ENDP ; std::vector<ioPullDownItem *,std::allocator<ioPullDownItem *> >::end
_TEXT	ENDS
PUBLIC	??9?$_Vector_const_iterator@V?$_Vector_val@PAVioPullDownItem@@V?$allocator@PAVioPullDownItem@@@std@@@std@@@std@@QBE_NABV01@@Z ; std::_Vector_const_iterator<std::_Vector_val<ioPullDownItem *,std::allocator<ioPullDownItem *> > >::operator!=
; Function compile flags: /Ogsp
;	COMDAT ??9?$_Vector_const_iterator@V?$_Vector_val@PAVioPullDownItem@@V?$allocator@PAVioPullDownItem@@@std@@@std@@@std@@QBE_NABV01@@Z
_TEXT	SEGMENT
__Right$ = 8						; size = 4
??9?$_Vector_const_iterator@V?$_Vector_val@PAVioPullDownItem@@V?$allocator@PAVioPullDownItem@@@std@@@std@@@std@@QBE_NABV01@@Z PROC ; std::_Vector_const_iterator<std::_Vector_val<ioPullDownItem *,std::allocator<ioPullDownItem *> > >::operator!=, COMDAT
; _this$ = ecx

; 207  : 		{	// test for iterator inequality

  00000	55		 push	 ebp
  00001	8b ec		 mov	 ebp, esp

; 208  : 		return (!(*this == _Right));

  00003	8b 01		 mov	 eax, DWORD PTR [ecx]
  00005	8b 55 08	 mov	 edx, DWORD PTR __Right$[ebp]
  00008	33 c9		 xor	 ecx, ecx
  0000a	3b 02		 cmp	 eax, DWORD PTR [edx]
  0000c	0f 95 c0	 setne	 al

; 209  : 		}

  0000f	5d		 pop	 ebp
  00010	c2 04 00	 ret	 4
??9?$_Vector_const_iterator@V?$_Vector_val@PAVioPullDownItem@@V?$allocator@PAVioPullDownItem@@@std@@@std@@@std@@QBE_NABV01@@Z ENDP ; std::_Vector_const_iterator<std::_Vector_val<ioPullDownItem *,std::allocator<ioPullDownItem *> > >::operator!=
_TEXT	ENDS
PUBLIC	??9?$_Vector_const_iterator@V?$_Vector_val@UPullDownInnerImage@@V?$allocator@UPullDownInnerImage@@@std@@@std@@@std@@QBE_NABV01@@Z ; std::_Vector_const_iterator<std::_Vector_val<PullDownInnerImage,std::allocator<PullDownInnerImage> > >::operator!=
; Function compile flags: /Ogsp
;	COMDAT ??9?$_Vector_const_iterator@V?$_Vector_val@UPullDownInnerImage@@V?$allocator@UPullDownInnerImage@@@std@@@std@@@std@@QBE_NABV01@@Z
_TEXT	SEGMENT
__Right$ = 8						; size = 4
??9?$_Vector_const_iterator@V?$_Vector_val@UPullDownInnerImage@@V?$allocator@UPullDownInnerImage@@@std@@@std@@@std@@QBE_NABV01@@Z PROC ; std::_Vector_const_iterator<std::_Vector_val<PullDownInnerImage,std::allocator<PullDownInnerImage> > >::operator!=, COMDAT
; _this$ = ecx

; 207  : 		{	// test for iterator inequality

  00000	55		 push	 ebp
  00001	8b ec		 mov	 ebp, esp

; 208  : 		return (!(*this == _Right));

  00003	8b 01		 mov	 eax, DWORD PTR [ecx]
  00005	8b 55 08	 mov	 edx, DWORD PTR __Right$[ebp]
  00008	33 c9		 xor	 ecx, ecx
  0000a	3b 02		 cmp	 eax, DWORD PTR [edx]
  0000c	0f 95 c0	 setne	 al

; 209  : 		}

  0000f	5d		 pop	 ebp
  00010	c2 04 00	 ret	 4
??9?$_Vector_const_iterator@V?$_Vector_val@UPullDownInnerImage@@V?$allocator@UPullDownInnerImage@@@std@@@std@@@std@@QBE_NABV01@@Z ENDP ; std::_Vector_const_iterator<std::_Vector_val<PullDownInnerImage,std::allocator<PullDownInnerImage> > >::operator!=
_TEXT	ENDS
PUBLIC	?_Destroy@?$vector@PAVioPullDownItem@@V?$allocator@PAVioPullDownItem@@@std@@@std@@IAEXPAPAVioPullDownItem@@0@Z ; std::vector<ioPullDownItem *,std::allocator<ioPullDownItem *> >::_Destroy
; Function compile flags: /Ogsp
;	COMDAT ?_Destroy@?$vector@PAVioPullDownItem@@V?$allocator@PAVioPullDownItem@@@std@@@std@@IAEXPAPAVioPullDownItem@@0@Z
_TEXT	SEGMENT
__First$ = 8						; size = 4
__Last$ = 12						; size = 4
?_Destroy@?$vector@PAVioPullDownItem@@V?$allocator@PAVioPullDownItem@@@std@@@std@@IAEXPAPAVioPullDownItem@@0@Z PROC ; std::vector<ioPullDownItem *,std::allocator<ioPullDownItem *> >::_Destroy, COMDAT
; _this$ = ecx

; 1270 : 		_Destroy_range(_First, _Last, this->_Alval);
; 1271 : 		}

  00000	c2 08 00	 ret	 8
?_Destroy@?$vector@PAVioPullDownItem@@V?$allocator@PAVioPullDownItem@@@std@@@std@@IAEXPAPAVioPullDownItem@@0@Z ENDP ; std::vector<ioPullDownItem *,std::allocator<ioPullDownItem *> >::_Destroy
_TEXT	ENDS
PUBLIC	??$_Cons_val@V?$allocator@UPullDownInnerImage@@@std@@UPullDownInnerImage@@ABU3@@std@@YAXAAV?$allocator@UPullDownInnerImage@@@0@PAUPullDownInnerImage@@ABU2@@Z ; std::_Cons_val<std::allocator<PullDownInnerImage>,PullDownInnerImage,PullDownInnerImage const &>
; Function compile flags: /Ogsp
; File c:\program files (x86)\microsoft visual studio 10.0\vc\include\xmemory
;	COMDAT ??$_Cons_val@V?$allocator@UPullDownInnerImage@@@std@@UPullDownInnerImage@@ABU3@@std@@YAXAAV?$allocator@UPullDownInnerImage@@@0@PAUPullDownInnerImage@@ABU2@@Z
_TEXT	SEGMENT
__Alval$ = 8						; size = 4
__Pdest$ = 12						; size = 4
__Src$ = 16						; size = 4
??$_Cons_val@V?$allocator@UPullDownInnerImage@@@std@@UPullDownInnerImage@@ABU3@@std@@YAXAAV?$allocator@UPullDownInnerImage@@@0@PAUPullDownInnerImage@@ABU2@@Z PROC ; std::_Cons_val<std::allocator<PullDownInnerImage>,PullDownInnerImage,PullDownInnerImage const &>, COMDAT

; 279  : 	{	// construct using allocator

  00000	55		 push	 ebp
  00001	8b ec		 mov	 ebp, esp
  00003	57		 push	 edi

; 280  : 	_Alval.construct(_Pdest, _STD forward<_Ty2>(_Src));

  00004	8b 7d 0c	 mov	 edi, DWORD PTR __Pdest$[ebp]
  00007	85 ff		 test	 edi, edi
  00009	74 0a		 je	 SHORT $LN9@Cons_val@3
  0000b	56		 push	 esi
  0000c	8b 75 10	 mov	 esi, DWORD PTR __Src$[ebp]
  0000f	6a 07		 push	 7
  00011	59		 pop	 ecx
  00012	f3 a5		 rep movsd
  00014	5e		 pop	 esi
$LN9@Cons_val@3:
  00015	5f		 pop	 edi

; 281  : 	}

  00016	5d		 pop	 ebp
  00017	c3		 ret	 0
??$_Cons_val@V?$allocator@UPullDownInnerImage@@@std@@UPullDownInnerImage@@ABU3@@std@@YAXAAV?$allocator@UPullDownInnerImage@@@0@PAUPullDownInnerImage@@ABU2@@Z ENDP ; std::_Cons_val<std::allocator<PullDownInnerImage>,PullDownInnerImage,PullDownInnerImage const &>
_TEXT	ENDS
PUBLIC	??$_Cons_val@V?$allocator@PAVioPullDownItem@@@std@@PAVioPullDownItem@@ABQAV3@@std@@YAXAAV?$allocator@PAVioPullDownItem@@@0@PAPAVioPullDownItem@@ABQAV2@@Z ; std::_Cons_val<std::allocator<ioPullDownItem *>,ioPullDownItem *,ioPullDownItem * const &>
; Function compile flags: /Ogsp
;	COMDAT ??$_Cons_val@V?$allocator@PAVioPullDownItem@@@std@@PAVioPullDownItem@@ABQAV3@@std@@YAXAAV?$allocator@PAVioPullDownItem@@@0@PAPAVioPullDownItem@@ABQAV2@@Z
_TEXT	SEGMENT
__Alval$ = 8						; size = 4
__Pdest$ = 12						; size = 4
__Src$ = 16						; size = 4
??$_Cons_val@V?$allocator@PAVioPullDownItem@@@std@@PAVioPullDownItem@@ABQAV3@@std@@YAXAAV?$allocator@PAVioPullDownItem@@@0@PAPAVioPullDownItem@@ABQAV2@@Z PROC ; std::_Cons_val<std::allocator<ioPullDownItem *>,ioPullDownItem *,ioPullDownItem * const &>, COMDAT

; 279  : 	{	// construct using allocator

  00000	55		 push	 ebp
  00001	8b ec		 mov	 ebp, esp

; 280  : 	_Alval.construct(_Pdest, _STD forward<_Ty2>(_Src));

  00003	8b 45 0c	 mov	 eax, DWORD PTR __Pdest$[ebp]
  00006	85 c0		 test	 eax, eax
  00008	74 07		 je	 SHORT $LN9@Cons_val@4
  0000a	8b 4d 10	 mov	 ecx, DWORD PTR __Src$[ebp]
  0000d	8b 09		 mov	 ecx, DWORD PTR [ecx]
  0000f	89 08		 mov	 DWORD PTR [eax], ecx
$LN9@Cons_val@4:

; 281  : 	}

  00011	5d		 pop	 ebp
  00012	c3		 ret	 0
??$_Cons_val@V?$allocator@PAVioPullDownItem@@@std@@PAVioPullDownItem@@ABQAV3@@std@@YAXAAV?$allocator@PAVioPullDownItem@@@0@PAPAVioPullDownItem@@ABQAV2@@Z ENDP ; std::_Cons_val<std::allocator<ioPullDownItem *>,ioPullDownItem *,ioPullDownItem * const &>
_TEXT	ENDS
PUBLIC	??$_Move@PAUPullDownInnerImage@@PAU1@@std@@YAPAUPullDownInnerImage@@PAU1@00@Z ; std::_Move<PullDownInnerImage *,PullDownInnerImage *>
; Function compile flags: /Ogsp
; File c:\program files (x86)\microsoft visual studio 10.0\vc\include\xutility
;	COMDAT ??$_Move@PAUPullDownInnerImage@@PAU1@@std@@YAPAUPullDownInnerImage@@PAU1@00@Z
_TEXT	SEGMENT
__Cat$525311 = -4					; size = 1
__First$ = 8						; size = 4
__Last$ = 12						; size = 4
__Dest$ = 16						; size = 4
??$_Move@PAUPullDownInnerImage@@PAU1@@std@@YAPAUPullDownInnerImage@@PAU1@00@Z PROC ; std::_Move<PullDownInnerImage *,PullDownInnerImage *>, COMDAT

; 2533 : 	{	// move [_First, _Last) to [_Dest, ...), unchecked

  00000	55		 push	 ebp
  00001	8b ec		 mov	 ebp, esp
  00003	51		 push	 ecx

; 2534 : 	return (_Move(_First, _Last,
; 2535 : 		_Dest, _Ptr_cat(_First, _Dest)));

  00004	ff 75 fc	 push	 DWORD PTR __Cat$525311[ebp]
  00007	ff 75 10	 push	 DWORD PTR __Dest$[ebp]
  0000a	ff 75 0c	 push	 DWORD PTR __Last$[ebp]
  0000d	ff 75 08	 push	 DWORD PTR __First$[ebp]
  00010	e8 00 00 00 00	 call	 ??$_Move@PAUPullDownInnerImage@@PAU1@@std@@YAPAUPullDownInnerImage@@PAU1@00U_Nonscalar_ptr_iterator_tag@0@@Z ; std::_Move<PullDownInnerImage *,PullDownInnerImage *>
  00015	83 c4 10	 add	 esp, 16			; 00000010H

; 2536 : 	}

  00018	c9		 leave
  00019	c3		 ret	 0
??$_Move@PAUPullDownInnerImage@@PAU1@@std@@YAPAUPullDownInnerImage@@PAU1@00@Z ENDP ; std::_Move<PullDownInnerImage *,PullDownInnerImage *>
_TEXT	ENDS
PUBLIC	??$_Umove@PAPAVioPullDownItem@@@?$vector@PAVioPullDownItem@@V?$allocator@PAVioPullDownItem@@@std@@@std@@IAEPAPAVioPullDownItem@@PAPAV2@00@Z ; std::vector<ioPullDownItem *,std::allocator<ioPullDownItem *> >::_Umove<ioPullDownItem * *>
; Function compile flags: /Ogsp
; File c:\program files (x86)\microsoft visual studio 10.0\vc\include\vector
;	COMDAT ??$_Umove@PAPAVioPullDownItem@@@?$vector@PAVioPullDownItem@@V?$allocator@PAVioPullDownItem@@@std@@@std@@IAEPAPAVioPullDownItem@@PAPAV2@00@Z
_TEXT	SEGMENT
__First$ = 8						; size = 4
__Last$ = 12						; size = 4
__Ptr$ = 16						; size = 4
??$_Umove@PAPAVioPullDownItem@@@?$vector@PAVioPullDownItem@@V?$allocator@PAVioPullDownItem@@@std@@@std@@IAEPAPAVioPullDownItem@@PAPAV2@00@Z PROC ; std::vector<ioPullDownItem *,std::allocator<ioPullDownItem *> >::_Umove<ioPullDownItem * *>, COMDAT
; _this$ = ecx

; 1322 : 		pointer _Umove(_Iter _First, _Iter _Last, pointer _Ptr)

  00000	55		 push	 ebp
  00001	8b ec		 mov	 ebp, esp

; 1323 : 		{	// move initializing [_First, _Last), using allocator
; 1324 : 		return (_Uninitialized_move(_First, _Last,
; 1325 : 			_Ptr, this->_Alval));

  00003	83 c1 0c	 add	 ecx, 12			; 0000000cH
  00006	51		 push	 ecx
  00007	ff 75 10	 push	 DWORD PTR __Ptr$[ebp]
  0000a	ff 75 0c	 push	 DWORD PTR __Last$[ebp]
  0000d	ff 75 08	 push	 DWORD PTR __First$[ebp]
  00010	e8 00 00 00 00	 call	 ??$_Uninitialized_move@PAPAVioPullDownItem@@PAPAV1@V?$allocator@PAVioPullDownItem@@@std@@@std@@YAPAPAVioPullDownItem@@PAPAV1@00AAV?$allocator@PAVioPullDownItem@@@0@@Z ; std::_Uninitialized_move<ioPullDownItem * *,ioPullDownItem * *,std::allocator<ioPullDownItem *> >
  00015	83 c4 10	 add	 esp, 16			; 00000010H

; 1326 : 		}

  00018	5d		 pop	 ebp
  00019	c2 0c 00	 ret	 12			; 0000000cH
??$_Umove@PAPAVioPullDownItem@@@?$vector@PAVioPullDownItem@@V?$allocator@PAVioPullDownItem@@@std@@@std@@IAEPAPAVioPullDownItem@@PAPAV2@00@Z ENDP ; std::vector<ioPullDownItem *,std::allocator<ioPullDownItem *> >::_Umove<ioPullDownItem * *>
_TEXT	ENDS
PUBLIC	??$_Dest_val@V?$allocator@UPullDownInnerImage@@@std@@UPullDownInnerImage@@@std@@YAXAAV?$allocator@UPullDownInnerImage@@@0@PAUPullDownInnerImage@@@Z ; std::_Dest_val<std::allocator<PullDownInnerImage>,PullDownInnerImage>
; Function compile flags: /Ogsp
; File c:\program files (x86)\microsoft visual studio 10.0\vc\include\xmemory
;	COMDAT ??$_Dest_val@V?$allocator@UPullDownInnerImage@@@std@@UPullDownInnerImage@@@std@@YAXAAV?$allocator@UPullDownInnerImage@@@0@PAUPullDownInnerImage@@@Z
_TEXT	SEGMENT
__Alval$ = 8						; size = 4
__Pdest$ = 12						; size = 4
??$_Dest_val@V?$allocator@UPullDownInnerImage@@@std@@UPullDownInnerImage@@@std@@YAXAAV?$allocator@UPullDownInnerImage@@@0@PAUPullDownInnerImage@@@Z PROC ; std::_Dest_val<std::allocator<PullDownInnerImage>,PullDownInnerImage>, COMDAT

; 287  : 	_Alval.destroy(_Pdest);
; 288  : 	}

  00000	c3		 ret	 0
??$_Dest_val@V?$allocator@UPullDownInnerImage@@@std@@UPullDownInnerImage@@@std@@YAXAAV?$allocator@UPullDownInnerImage@@@0@PAUPullDownInnerImage@@@Z ENDP ; std::_Dest_val<std::allocator<PullDownInnerImage>,PullDownInnerImage>
_TEXT	ENDS
PUBLIC	??$_Cons_val@V?$allocator@UPullDownInnerImage@@@std@@UPullDownInnerImage@@U3@@std@@YAXAAV?$allocator@UPullDownInnerImage@@@0@PAUPullDownInnerImage@@$$QAU2@@Z ; std::_Cons_val<std::allocator<PullDownInnerImage>,PullDownInnerImage,PullDownInnerImage>
; Function compile flags: /Ogsp
;	COMDAT ??$_Cons_val@V?$allocator@UPullDownInnerImage@@@std@@UPullDownInnerImage@@U3@@std@@YAXAAV?$allocator@UPullDownInnerImage@@@0@PAUPullDownInnerImage@@$$QAU2@@Z
_TEXT	SEGMENT
__Alval$ = 8						; size = 4
__Pdest$ = 12						; size = 4
__Src$ = 16						; size = 4
??$_Cons_val@V?$allocator@UPullDownInnerImage@@@std@@UPullDownInnerImage@@U3@@std@@YAXAAV?$allocator@UPullDownInnerImage@@@0@PAUPullDownInnerImage@@$$QAU2@@Z PROC ; std::_Cons_val<std::allocator<PullDownInnerImage>,PullDownInnerImage,PullDownInnerImage>, COMDAT

; 279  : 	{	// construct using allocator

  00000	55		 push	 ebp
  00001	8b ec		 mov	 ebp, esp
  00003	57		 push	 edi

; 280  : 	_Alval.construct(_Pdest, _STD forward<_Ty2>(_Src));

  00004	8b 7d 0c	 mov	 edi, DWORD PTR __Pdest$[ebp]
  00007	85 ff		 test	 edi, edi
  00009	74 0a		 je	 SHORT $LN7@Cons_val@5
  0000b	56		 push	 esi
  0000c	8b 75 10	 mov	 esi, DWORD PTR __Src$[ebp]
  0000f	6a 07		 push	 7
  00011	59		 pop	 ecx
  00012	f3 a5		 rep movsd
  00014	5e		 pop	 esi
$LN7@Cons_val@5:
  00015	5f		 pop	 edi

; 281  : 	}

  00016	5d		 pop	 ebp
  00017	c3		 ret	 0
??$_Cons_val@V?$allocator@UPullDownInnerImage@@@std@@UPullDownInnerImage@@U3@@std@@YAXAAV?$allocator@UPullDownInnerImage@@@0@PAUPullDownInnerImage@@$$QAU2@@Z ENDP ; std::_Cons_val<std::allocator<PullDownInnerImage>,PullDownInnerImage,PullDownInnerImage>
_TEXT	ENDS
PUBLIC	??_C@_0BG@JBAMMIOL@?$CFs?5?9?5pMouse?5?$DN?$DN?5NULL?$CB?$CB?$AA@ ; `string'
PUBLIC	??_C@_0BK@PHABKIID@ioPullDownList?3?3OnProcess?$AA@ ; `string'
PUBLIC	__$ArrayPad$
PUBLIC	?OnProcess@ioPullDownList@@MAEXM@Z		; ioPullDownList::OnProcess
EXTRN	__imp__PtInRect@12:PROC
EXTRN	__imp_?GetHeight@ioWnd@@QBEHXZ:PROC
EXTRN	?OnImageOver@ioPullDownItem@@QAEHABUtagPOINT@@@Z:PROC ; ioPullDownItem::OnImageOver
EXTRN	?OnSelectOver@ioPullDownItem@@QAEHABUtagPOINT@@@Z:PROC ; ioPullDownItem::OnSelectOver
EXTRN	__imp_?GetMousePos@ioMouse@@QBEABUtagPOINT@@XZ:PROC
EXTRN	__imp_?GetID@ioWnd@@QBEKXZ:PROC
EXTRN	?GetSingleton@ioSP2GUIManager@@SAAAV1@XZ:PROC	; ioSP2GUIManager::GetSingleton
;	COMDAT ??_C@_0BG@JBAMMIOL@?$CFs?5?9?5pMouse?5?$DN?$DN?5NULL?$CB?$CB?$AA@
; File d:\lost saga for developer\youtube\tutorial\source\src\lsclient\ioapplication.h
CONST	SEGMENT
??_C@_0BG@JBAMMIOL@?$CFs?5?9?5pMouse?5?$DN?$DN?5NULL?$CB?$CB?$AA@ DB '%s '
	DB	'- pMouse == NULL!!', 00H			; `string'
CONST	ENDS
;	COMDAT ??_C@_0BK@PHABKIID@ioPullDownList?3?3OnProcess?$AA@
CONST	SEGMENT
??_C@_0BK@PHABKIID@ioPullDownList?3?3OnProcess?$AA@ DB 'ioPullDownList::O'
	DB	'nProcess', 00H				; `string'
; Function compile flags: /Ogsp
; File d:\lost saga for developer\youtube\tutorial\source\src\lsclient\gui\iopulldownlist.cpp
CONST	ENDS
;	COMDAT ?OnProcess@ioPullDownList@@MAEXM@Z
_TEXT	SEGMENT
_pMouse$ = -28						; size = 4
tv362 = -24						; size = 4
_i$519842 = -24						; size = 4
_pPreClick$ = -24					; size = 4
_rect$ = -20						; size = 16
__$ArrayPad$ = -4					; size = 4
_fTimePerSec$ = 8					; size = 4
?OnProcess@ioPullDownList@@MAEXM@Z PROC			; ioPullDownList::OnProcess, COMDAT
; _this$ = ecx

; 327  : {

  00000	55		 push	 ebp
  00001	8b ec		 mov	 ebp, esp
  00003	83 ec 1c	 sub	 esp, 28			; 0000001cH
  00006	a1 00 00 00 00	 mov	 eax, DWORD PTR ___security_cookie
  0000b	33 c5		 xor	 eax, ebp
  0000d	89 45 fc	 mov	 DWORD PTR __$ArrayPad$[ebp], eax
  00010	56		 push	 esi
  00011	8b f1		 mov	 esi, ecx

; 328  : 	if( !IsShow() )

  00013	ff 15 00 00 00
	00		 call	 DWORD PTR __imp_?IsShow@ioWnd@@QBE_NXZ
  00019	84 c0		 test	 al, al
  0001b	0f 84 eb 01 00
	00		 je	 $LN2@OnProcess

; 329  : 		return;
; 330  : 
; 331  : 	// 다른 곳에서 클릭이 일어났는지 확인
; 332  : 	ioWnd *pPreClick = g_GUIMgr.GetPreClickWnd();

  00021	53		 push	 ebx
  00022	57		 push	 edi
  00023	e8 00 00 00 00	 call	 ?GetSingleton@ioSP2GUIManager@@SAAAV1@XZ ; ioSP2GUIManager::GetSingleton
  00028	8b 78 14	 mov	 edi, DWORD PTR [eax+20]
  0002b	89 7d e8	 mov	 DWORD PTR _pPreClick$[ebp], edi

; 333  : 	if( pPreClick && GetParent() )

  0002e	85 ff		 test	 edi, edi
  00030	74 61		 je	 SHORT $LN27@OnProcess
  00032	8b ce		 mov	 ecx, esi
  00034	ff 15 00 00 00
	00		 call	 DWORD PTR __imp_?GetParent@ioWnd@@QAEPAV1@XZ
  0003a	85 c0		 test	 eax, eax
  0003c	74 55		 je	 SHORT $LN27@OnProcess

; 334  : 	{
; 335  : 		if ( pPreClick->GetID() == BASIC_TOOLTIP_MGR)

  0003e	8b cf		 mov	 ecx, edi
  00040	ff 15 00 00 00
	00		 call	 DWORD PTR __imp_?GetID@ioWnd@@QBEKXZ
  00046	3d 2a 27 00 00	 cmp	 eax, 10026		; 0000272aH
  0004b	0f 84 b9 01 00
	00		 je	 $LN30@OnProcess

; 336  : 			return;
; 337  : 		if( pPreClick != this		&& 
; 338  : 			pPreClick != m_pOpenBtn && 
; 339  : 			pPreClick != FindChildWnd( ID_VERT_SCROLL ) &&
; 340  : 			pPreClick->GetParent() != FindChildWnd( ID_VERT_SCROLL ) )

  00051	3b fe		 cmp	 edi, esi
  00053	74 3e		 je	 SHORT $LN27@OnProcess
  00055	3b be 70 01 00
	00		 cmp	 edi, DWORD PTR [esi+368]
  0005b	74 36		 je	 SHORT $LN27@OnProcess
  0005d	8b 3d 00 00 00
	00		 mov	 edi, DWORD PTR __imp_?FindChildWnd@ioWnd@@QAEPAV1@K@Z
  00063	bb e8 03 00 00	 mov	 ebx, 1000		; 000003e8H
  00068	53		 push	 ebx
  00069	8b ce		 mov	 ecx, esi
  0006b	ff d7		 call	 edi
  0006d	39 45 e8	 cmp	 DWORD PTR _pPreClick$[ebp], eax
  00070	74 21		 je	 SHORT $LN27@OnProcess
  00072	53		 push	 ebx
  00073	8b ce		 mov	 ecx, esi
  00075	ff d7		 call	 edi
  00077	8b 4d e8	 mov	 ecx, DWORD PTR _pPreClick$[ebp]
  0007a	8b f8		 mov	 edi, eax
  0007c	ff 15 00 00 00
	00		 call	 DWORD PTR __imp_?GetParent@ioWnd@@QAEPAV1@XZ
  00082	3b c7		 cmp	 eax, edi
  00084	74 0d		 je	 SHORT $LN27@OnProcess

; 341  : 		{
; 342  : 			HideWnd();

  00086	8b ce		 mov	 ecx, esi
  00088	ff 15 00 00 00
	00		 call	 DWORD PTR __imp_?HideWnd@ioWnd@@QAEXXZ

; 343  : 			return;

  0008e	e9 77 01 00 00	 jmp	 $LN30@OnProcess
$LN27@OnProcess:

; 344  : 		}
; 345  : 	}
; 346  : 
; 347  : 	//부모 윈도우가 하이드 되면 자신도 하이드
; 348  : 	if( GetParent() && !GetParent()->IsShow() )

  00093	8b ce		 mov	 ecx, esi
  00095	ff 15 00 00 00
	00		 call	 DWORD PTR __imp_?GetParent@ioWnd@@QAEPAV1@XZ
  0009b	85 c0		 test	 eax, eax
  0009d	74 1c		 je	 SHORT $LN12@OnProcess
  0009f	8b ce		 mov	 ecx, esi
  000a1	ff 15 00 00 00
	00		 call	 DWORD PTR __imp_?GetParent@ioWnd@@QAEPAV1@XZ
  000a7	8b c8		 mov	 ecx, eax
  000a9	ff 15 00 00 00
	00		 call	 DWORD PTR __imp_?IsShow@ioWnd@@QBE_NXZ
  000af	84 c0		 test	 al, al
  000b1	75 08		 jne	 SHORT $LN12@OnProcess

; 349  : 		HideWnd();

  000b3	8b ce		 mov	 ecx, esi
  000b5	ff 15 00 00 00
	00		 call	 DWORD PTR __imp_?HideWnd@ioWnd@@QAEXXZ
$LN12@OnProcess:

; 350  : 
; 351  : 	//풀 다운 아이템의 마우스 이벤트를  체크
; 352  : 	ioLSMouse *pMouse = g_App.GetMouse();

  000bb	e8 00 00 00 00	 call	 ?GetSingleton@ioApplication@@SAAAV1@XZ ; ioApplication::GetSingleton
  000c0	8b f8		 mov	 edi, eax
  000c2	81 c7 90 00 00
	00		 add	 edi, 144		; 00000090H
  000c8	89 7d e4	 mov	 DWORD PTR _pMouse$[ebp], edi

; 353  : 	if( !pMouse )

  000cb	75 20		 jne	 SHORT $LN11@OnProcess

; 354  : 	{
; 355  : 		LOG.PrintTimeAndLog(0, "%s - pMouse == NULL!!", __FUNCTION__ );

  000cd	68 00 00 00 00	 push	 OFFSET ??_C@_0BK@PHABKIID@ioPullDownList?3?3OnProcess?$AA@
  000d2	68 00 00 00 00	 push	 OFFSET ??_C@_0BG@JBAMMIOL@?$CFs?5?9?5pMouse?5?$DN?$DN?5NULL?$CB?$CB?$AA@
  000d7	6a 00		 push	 0
  000d9	ff 35 00 00 00
	00		 push	 DWORD PTR __imp_?LOG@@3VCLog@@A
  000df	ff 15 00 00 00
	00		 call	 DWORD PTR __imp_?PrintTimeAndLog@CLog@@QAAXHPADZZ
  000e5	83 c4 10	 add	 esp, 16			; 00000010H

; 356  : 		return;

  000e8	e9 1d 01 00 00	 jmp	 $LN30@OnProcess
$LN11@OnProcess:

; 357  : 	}
; 358  : 
; 359  : 	for( int i = m_iCurPos; i < m_iCurPos + m_iMaxPageList; ++i )

  000ed	8b 86 88 01 00
	00		 mov	 eax, DWORD PTR [esi+392]
  000f3	8b 8e 80 01 00
	00		 mov	 ecx, DWORD PTR [esi+384]
  000f9	03 c8		 add	 ecx, eax
  000fb	89 45 e8	 mov	 DWORD PTR _i$519842[ebp], eax
  000fe	3b c1		 cmp	 eax, ecx
  00100	7d 79		 jge	 SHORT $LN8@OnProcess
$LL29@OnProcess:

; 360  : 	{
; 361  : 		ioPullDownItem* pPullDown = GetPullDown( i );

  00102	ff 75 e8	 push	 DWORD PTR _i$519842[ebp]
  00105	8b ce		 mov	 ecx, esi
  00107	e8 00 00 00 00	 call	 ?GetPullDown@ioPullDownList@@QBEPAVioPullDownItem@@H@Z ; ioPullDownList::GetPullDown
  0010c	8b d8		 mov	 ebx, eax

; 362  : 		if( !pPullDown )

  0010e	85 db		 test	 ebx, ebx
  00110	74 55		 je	 SHORT $LN9@OnProcess

; 363  : 			continue;
; 364  : 
; 365  : 		int iOverIdx	= pPullDown->OnSelectOver( pMouse->GetMousePos() );

  00112	8b cf		 mov	 ecx, edi
  00114	ff 15 00 00 00
	00		 call	 DWORD PTR __imp_?GetMousePos@ioMouse@@QBEABUtagPOINT@@XZ
  0011a	50		 push	 eax
  0011b	8b cb		 mov	 ecx, ebx
  0011d	e8 00 00 00 00	 call	 ?OnSelectOver@ioPullDownItem@@QAEHABUtagPOINT@@@Z ; ioPullDownItem::OnSelectOver

; 366  : 		int iImgOverIdx = pPullDown->OnImageOver( pMouse->GetMousePos() );

  00122	8b 4d e4	 mov	 ecx, DWORD PTR _pMouse$[ebp]
  00125	8b f8		 mov	 edi, eax
  00127	ff 15 00 00 00
	00		 call	 DWORD PTR __imp_?GetMousePos@ioMouse@@QBEABUtagPOINT@@XZ
  0012d	50		 push	 eax
  0012e	8b cb		 mov	 ecx, ebx
  00130	e8 00 00 00 00	 call	 ?OnImageOver@ioPullDownItem@@QAEHABUtagPOINT@@@Z ; ioPullDownItem::OnImageOver
  00135	8b d8		 mov	 ebx, eax

; 367  : 
; 368  : 		if(	iOverIdx == PullDownEvent::NONE_SELECT )

  00137	83 ff ff	 cmp	 edi, -1
  0013a	74 28		 je	 SHORT $LN28@OnProcess

; 369  : 			continue;
; 370  : 
; 371  : 		//풀 다운 아이템에 대한 이벤트
; 372  : 		if( CheckPullDownItem( pMouse, iOverIdx, iImgOverIdx ) )

  0013c	53		 push	 ebx
  0013d	57		 push	 edi
  0013e	ff 75 e4	 push	 DWORD PTR _pMouse$[ebp]
  00141	8b ce		 mov	 ecx, esi
  00143	e8 00 00 00 00	 call	 ?CheckPullDownItem@ioPullDownList@@QAE_NPAVioLSMouse@@HH@Z ; ioPullDownList::CheckPullDownItem
  00148	84 c0		 test	 al, al
  0014a	0f 85 ba 00 00
	00		 jne	 $LN30@OnProcess

; 373  : 			return;
; 374  : 		
; 375  : 		//풀 다운 아이템에 등록 된 이미지에 대한 이벤트
; 376  : 		if( CheckPullDownImage( pMouse, iOverIdx, iImgOverIdx ) )

  00150	53		 push	 ebx
  00151	57		 push	 edi
  00152	ff 75 e4	 push	 DWORD PTR _pMouse$[ebp]
  00155	8b ce		 mov	 ecx, esi
  00157	e8 00 00 00 00	 call	 ?CheckPullDownImage@ioPullDownList@@QAE_NPAVioLSMouse@@HH@Z ; ioPullDownList::CheckPullDownImage
  0015c	84 c0		 test	 al, al
  0015e	0f 85 a6 00 00
	00		 jne	 $LN30@OnProcess
$LN28@OnProcess:
  00164	8b 7d e4	 mov	 edi, DWORD PTR _pMouse$[ebp]
$LN9@OnProcess:

; 357  : 	}
; 358  : 
; 359  : 	for( int i = m_iCurPos; i < m_iCurPos + m_iMaxPageList; ++i )

  00167	8b 86 88 01 00
	00		 mov	 eax, DWORD PTR [esi+392]
  0016d	03 86 80 01 00
	00		 add	 eax, DWORD PTR [esi+384]
  00173	ff 45 e8	 inc	 DWORD PTR _i$519842[ebp]
  00176	39 45 e8	 cmp	 DWORD PTR _i$519842[ebp], eax
  00179	7c 87		 jl	 SHORT $LL29@OnProcess
$LN8@OnProcess:

; 377  : 			return;
; 378  : 	}
; 379  : 
; 380  : 	RECT rect;
; 381  : 	rect.left	= GetDerivedPosX();

  0017b	8b 3d 00 00 00
	00		 mov	 edi, DWORD PTR __imp_?GetDerivedPosX@ioWnd@@QBEHXZ
  00181	8b ce		 mov	 ecx, esi
  00183	ff d7		 call	 edi

; 382  : 	rect.top	= GetDerivedPosY();

  00185	8b 1d 00 00 00
	00		 mov	 ebx, DWORD PTR __imp_?GetDerivedPosY@ioWnd@@QBEHXZ
  0018b	8b ce		 mov	 ecx, esi
  0018d	89 45 ec	 mov	 DWORD PTR _rect$[ebp], eax
  00190	ff d3		 call	 ebx

; 383  : 	rect.right	= GetDerivedPosX() + GetWidth();

  00192	8b ce		 mov	 ecx, esi
  00194	89 45 f0	 mov	 DWORD PTR _rect$[ebp+4], eax
  00197	ff 15 00 00 00
	00		 call	 DWORD PTR __imp_?GetWidth@ioWnd@@QBEHXZ
  0019d	8b ce		 mov	 ecx, esi
  0019f	89 45 e8	 mov	 DWORD PTR tv362[ebp], eax
  001a2	ff d7		 call	 edi
  001a4	8b 4d e8	 mov	 ecx, DWORD PTR tv362[ebp]
  001a7	03 c8		 add	 ecx, eax
  001a9	89 4d f4	 mov	 DWORD PTR _rect$[ebp+8], ecx

; 384  : 	rect.bottom	= GetDerivedPosY() + GetHeight();

  001ac	8b ce		 mov	 ecx, esi
  001ae	ff 15 00 00 00
	00		 call	 DWORD PTR __imp_?GetHeight@ioWnd@@QBEHXZ
  001b4	8b ce		 mov	 ecx, esi
  001b6	8b f8		 mov	 edi, eax
  001b8	ff d3		 call	 ebx

; 385  : 
; 386  : 	if( !::PtInRect( &rect, pMouse->GetMousePos() ) )

  001ba	8b 4d e4	 mov	 ecx, DWORD PTR _pMouse$[ebp]
  001bd	03 f8		 add	 edi, eax
  001bf	89 7d f8	 mov	 DWORD PTR _rect$[ebp+12], edi
  001c2	ff 15 00 00 00
	00		 call	 DWORD PTR __imp_?GetMousePos@ioMouse@@QBEABUtagPOINT@@XZ
  001c8	ff 70 04	 push	 DWORD PTR [eax+4]
  001cb	ff 30		 push	 DWORD PTR [eax]
  001cd	8d 45 ec	 lea	 eax, DWORD PTR _rect$[ebp]
  001d0	50		 push	 eax
  001d1	ff 15 00 00 00
	00		 call	 DWORD PTR __imp__PtInRect@12
  001d7	85 c0		 test	 eax, eax
  001d9	75 2f		 jne	 SHORT $LN30@OnProcess

; 387  : 	{
; 388  : 		if( m_iOverSelectIndex != PullDownEvent::NONE_SELECT || m_iImageOverIndex != PullDownEvent::NONE_SELECT )

  001db	8b 86 8c 01 00
	00		 mov	 eax, DWORD PTR [esi+396]
  001e1	83 cb ff	 or	 ebx, -1
  001e4	3b c3		 cmp	 eax, ebx
  001e6	75 08		 jne	 SHORT $LN1@OnProcess
  001e8	39 9e 90 01 00
	00		 cmp	 DWORD PTR [esi+400], ebx
  001ee	74 1a		 je	 SHORT $LN30@OnProcess
$LN1@OnProcess:

; 389  : 		{
; 390  : 			//풀 다운 아이템 마우스 리브
; 391  : 			OnPullDownLeave( m_iOverSelectIndex, m_iImageOverIndex );

  001f0	ff b6 90 01 00
	00		 push	 DWORD PTR [esi+400]
  001f6	8b ce		 mov	 ecx, esi
  001f8	50		 push	 eax
  001f9	e8 00 00 00 00	 call	 ?OnPullDownLeave@ioPullDownList@@QAEXHH@Z ; ioPullDownList::OnPullDownLeave

; 392  : 			m_iOverSelectIndex = PullDownEvent::NONE_SELECT;

  001fe	89 9e 8c 01 00
	00		 mov	 DWORD PTR [esi+396], ebx

; 393  : 			m_iImageOverIndex  = PullDownEvent::NONE_SELECT;

  00204	89 9e 90 01 00
	00		 mov	 DWORD PTR [esi+400], ebx
$LN30@OnProcess:
  0020a	5f		 pop	 edi
  0020b	5b		 pop	 ebx
$LN2@OnProcess:

; 394  : 		}
; 395  : 	}
; 396  : }

  0020c	8b 4d fc	 mov	 ecx, DWORD PTR __$ArrayPad$[ebp]
  0020f	33 cd		 xor	 ecx, ebp
  00211	5e		 pop	 esi
  00212	e8 00 00 00 00	 call	 @__security_check_cookie@4
  00217	c9		 leave
  00218	c2 04 00	 ret	 4
?OnProcess@ioPullDownList@@MAEXM@Z ENDP			; ioPullDownList::OnProcess
_TEXT	ENDS
PUBLIC	?erase@?$vector@PAVioPullDownItem@@V?$allocator@PAVioPullDownItem@@@std@@@std@@QAE?AV?$_Vector_iterator@V?$_Vector_val@PAVioPullDownItem@@V?$allocator@PAVioPullDownItem@@@std@@@std@@@2@V?$_Vector_const_iterator@V?$_Vector_val@PAVioPullDownItem@@V?$allocator@PAVioPullDownItem@@@std@@@std@@@2@0@Z ; std::vector<ioPullDownItem *,std::allocator<ioPullDownItem *> >::erase
; Function compile flags: /Ogsp
; File c:\program files (x86)\microsoft visual studio 10.0\vc\include\vector
;	COMDAT ?erase@?$vector@PAVioPullDownItem@@V?$allocator@PAVioPullDownItem@@@std@@@std@@QAE?AV?$_Vector_iterator@V?$_Vector_val@PAVioPullDownItem@@V?$allocator@PAVioPullDownItem@@@std@@@std@@@2@V?$_Vector_const_iterator@V?$_Vector_val@PAVioPullDownItem@@V?$allocator@PAVioPullDownItem@@@std@@@std@@@2@0@Z
_TEXT	SEGMENT
___$ReturnUdt$ = 8					; size = 4
__First_arg$ = 12					; size = 4
__Cat$525448 = 16					; size = 1
__Last_arg$ = 16					; size = 4
?erase@?$vector@PAVioPullDownItem@@V?$allocator@PAVioPullDownItem@@@std@@@std@@QAE?AV?$_Vector_iterator@V?$_Vector_val@PAVioPullDownItem@@V?$allocator@PAVioPullDownItem@@@std@@@std@@@2@V?$_Vector_const_iterator@V?$_Vector_val@PAVioPullDownItem@@V?$allocator@PAVioPullDownItem@@@std@@@std@@@2@0@Z PROC ; std::vector<ioPullDownItem *,std::allocator<ioPullDownItem *> >::erase, COMDAT
; _this$ = ecx

; 1190 : 		{	// erase [_First, _Last)

  00000	55		 push	 ebp
  00001	8b ec		 mov	 ebp, esp

; 1191 : 		iterator _First = _Make_iter(_First_arg);

  00003	8b 45 0c	 mov	 eax, DWORD PTR __First_arg$[ebp]
  00006	56		 push	 esi
  00007	57		 push	 edi
  00008	8b 7d 08	 mov	 edi, DWORD PTR ___$ReturnUdt$[ebp]
  0000b	8b f1		 mov	 esi, ecx
  0000d	89 07		 mov	 DWORD PTR [edi], eax

; 1192 : 		iterator _Last = _Make_iter(_Last_arg);
; 1193 : 
; 1194 : 		if (_First != _Last)

  0000f	3b 45 10	 cmp	 eax, DWORD PTR __Last_arg$[ebp]
  00012	74 16		 je	 SHORT $LN1@erase

; 1195 : 			{	// worth doing, copy down over hole
; 1196 :  #if _ITERATOR_DEBUG_LEVEL == 2
; 1197 : 			if (_Last < _First || _VICONT(_First) != this
; 1198 : 				|| _VIPTR(_First) < this->_Myfirst
; 1199 : 				|| this->_Mylast < _VIPTR(_Last))
; 1200 : 				_DEBUG_ERROR("vector erase iterator outside range");
; 1201 : 			pointer _Ptr = _Move(_VIPTR(_Last), this->_Mylast,
; 1202 : 				_VIPTR(_First));
; 1203 : 			_Orphan_range(_VIPTR(_First), this->_Mylast);
; 1204 : 
; 1205 :  #else /* _ITERATOR_DEBUG_LEVEL == 2 */
; 1206 : 			pointer _Ptr = _Move(_VIPTR(_Last), this->_Mylast,
; 1207 : 				_VIPTR(_First));

  00014	ff 75 10	 push	 DWORD PTR __Cat$525448[ebp]
  00017	8b 4e 04	 mov	 ecx, DWORD PTR [esi+4]
  0001a	50		 push	 eax
  0001b	51		 push	 ecx
  0001c	ff 75 10	 push	 DWORD PTR __Last_arg$[ebp]
  0001f	e8 00 00 00 00	 call	 ??$_Move@PAPAVioPullDownItem@@PAPAV1@@std@@YAPAPAVioPullDownItem@@PAPAV1@00U_Scalar_ptr_iterator_tag@0@@Z ; std::_Move<ioPullDownItem * *,ioPullDownItem * *>
  00024	83 c4 10	 add	 esp, 16			; 00000010H

; 1208 :  #endif /* _ITERATOR_DEBUG_LEVEL == 2 */
; 1209 : 
; 1210 : 			_Destroy(_Ptr, this->_Mylast);
; 1211 : 			this->_Mylast = _Ptr;

  00027	89 46 04	 mov	 DWORD PTR [esi+4], eax
$LN1@erase:

; 1212 : 			}
; 1213 : 		return (_First);

  0002a	8b c7		 mov	 eax, edi
  0002c	5f		 pop	 edi
  0002d	5e		 pop	 esi

; 1214 : 		}

  0002e	5d		 pop	 ebp
  0002f	c2 0c 00	 ret	 12			; 0000000cH
?erase@?$vector@PAVioPullDownItem@@V?$allocator@PAVioPullDownItem@@@std@@@std@@QAE?AV?$_Vector_iterator@V?$_Vector_val@PAVioPullDownItem@@V?$allocator@PAVioPullDownItem@@@std@@@std@@@2@V?$_Vector_const_iterator@V?$_Vector_val@PAVioPullDownItem@@V?$allocator@PAVioPullDownItem@@@std@@@std@@@2@0@Z ENDP ; std::vector<ioPullDownItem *,std::allocator<ioPullDownItem *> >::erase
_TEXT	ENDS
PUBLIC	?_Tidy@?$vector@PAVioPullDownItem@@V?$allocator@PAVioPullDownItem@@@std@@@std@@IAEXXZ ; std::vector<ioPullDownItem *,std::allocator<ioPullDownItem *> >::_Tidy
EXTRN	__imp_?_Orphan_all@_Container_base0@std@@QAEXXZ:PROC
; Function compile flags: /Ogsp
;	COMDAT ?_Tidy@?$vector@PAVioPullDownItem@@V?$allocator@PAVioPullDownItem@@@std@@@std@@IAEXXZ
_TEXT	SEGMENT
?_Tidy@?$vector@PAVioPullDownItem@@V?$allocator@PAVioPullDownItem@@@std@@@std@@IAEXXZ PROC ; std::vector<ioPullDownItem *,std::allocator<ioPullDownItem *> >::_Tidy, COMDAT
; _this$ = ecx

; 1301 : 		{	// free all storage

  00000	56		 push	 esi
  00001	8b f1		 mov	 esi, ecx

; 1302 : 		if (this->_Myfirst != 0)

  00003	83 3e 00	 cmp	 DWORD PTR [esi], 0
  00006	74 0e		 je	 SHORT $LN12@Tidy

; 1303 : 			{	// something to free, destroy and deallocate it
; 1304 : 			this->_Orphan_all();

  00008	ff 15 00 00 00
	00		 call	 DWORD PTR __imp_?_Orphan_all@_Container_base0@std@@QAEXXZ

; 1305 : 			_Destroy(this->_Myfirst, this->_Mylast);
; 1306 : 			this->_Alval.deallocate(this->_Myfirst,
; 1307 : 				this->_Myend - this->_Myfirst);

  0000e	ff 36		 push	 DWORD PTR [esi]
  00010	e8 00 00 00 00	 call	 ??3@YAXPAX@Z		; operator delete
  00015	59		 pop	 ecx
$LN12@Tidy:

; 1308 : 			}
; 1309 : 		this->_Myfirst = 0;

  00016	83 26 00	 and	 DWORD PTR [esi], 0

; 1310 : 		this->_Mylast = 0;

  00019	83 66 04 00	 and	 DWORD PTR [esi+4], 0

; 1311 : 		this->_Myend = 0;

  0001d	83 66 08 00	 and	 DWORD PTR [esi+8], 0
  00021	5e		 pop	 esi

; 1312 : 		}

  00022	c3		 ret	 0
?_Tidy@?$vector@PAVioPullDownItem@@V?$allocator@PAVioPullDownItem@@@std@@@std@@IAEXXZ ENDP ; std::vector<ioPullDownItem *,std::allocator<ioPullDownItem *> >::_Tidy
_TEXT	ENDS
PUBLIC	?reserve@?$vector@PAVioPullDownItem@@V?$allocator@PAVioPullDownItem@@@std@@@std@@QAEXI@Z ; std::vector<ioPullDownItem *,std::allocator<ioPullDownItem *> >::reserve
; Function compile flags: /Ogsp
;	COMDAT ?reserve@?$vector@PAVioPullDownItem@@V?$allocator@PAVioPullDownItem@@@std@@@std@@QAEXI@Z
_TEXT	SEGMENT
__Count$ = 8						; size = 4
?reserve@?$vector@PAVioPullDownItem@@V?$allocator@PAVioPullDownItem@@@std@@@std@@QAEXI@Z PROC ; std::vector<ioPullDownItem *,std::allocator<ioPullDownItem *> >::reserve, COMDAT
; _this$ = ecx

; 746  : 		{	// determine new minimum length of allocated storage

  00000	55		 push	 ebp
  00001	8b ec		 mov	 ebp, esp

; 747  : 		if (max_size() < _Count)

  00003	81 7d 08 ff ff
	ff 3f		 cmp	 DWORD PTR __Count$[ebp], 1073741823 ; 3fffffffH
  0000a	56		 push	 esi
  0000b	8b f1		 mov	 esi, ecx
  0000d	76 0b		 jbe	 SHORT $LN5@reserve

; 748  : 			_Xlen();	// result too long

  0000f	68 00 00 00 00	 push	 OFFSET ??_C@_0BD@OLBABOEK@vector?$DMT?$DO?5too?5long?$AA@
  00014	ff 15 00 00 00
	00		 call	 DWORD PTR __imp_?_Xlength_error@std@@YAXPBD@Z
$LN43@reserve:
$LN5@reserve:

; 749  : 		else if (capacity() < _Count)

  0001a	8b 46 08	 mov	 eax, DWORD PTR [esi+8]
  0001d	2b 06		 sub	 eax, DWORD PTR [esi]
  0001f	c1 f8 02	 sar	 eax, 2
  00022	3b 45 08	 cmp	 eax, DWORD PTR __Count$[ebp]
  00025	73 52		 jae	 SHORT $LN3@reserve

; 750  : 			{	// not enough room, reallocate
; 751  : 			pointer _Ptr = this->_Alval.allocate(_Count);

  00027	53		 push	 ebx
  00028	57		 push	 edi
  00029	6a 00		 push	 0
  0002b	ff 75 08	 push	 DWORD PTR __Count$[ebp]
  0002e	e8 00 00 00 00	 call	 ??$_Allocate@PAVioPullDownItem@@@std@@YAPAPAVioPullDownItem@@IPAPAV1@@Z ; std::_Allocate<ioPullDownItem *>

; 752  : 
; 753  : 			_TRY_BEGIN
; 754  : 			_Umove(this->_Myfirst, this->_Mylast, _Ptr);

  00033	8b 0e		 mov	 ecx, DWORD PTR [esi]
  00035	8d 56 0c	 lea	 edx, DWORD PTR [esi+12]
  00038	52		 push	 edx
  00039	8b d8		 mov	 ebx, eax
  0003b	8b 46 04	 mov	 eax, DWORD PTR [esi+4]
  0003e	53		 push	 ebx
  0003f	50		 push	 eax
  00040	51		 push	 ecx
  00041	e8 00 00 00 00	 call	 ??$_Uninitialized_move@PAPAVioPullDownItem@@PAPAV1@V?$allocator@PAVioPullDownItem@@@std@@@std@@YAPAPAVioPullDownItem@@PAPAV1@00AAV?$allocator@PAVioPullDownItem@@@0@@Z ; std::_Uninitialized_move<ioPullDownItem * *,ioPullDownItem * *,std::allocator<ioPullDownItem *> >

; 755  : 			_CATCH_ALL
; 756  : 			this->_Alval.deallocate(_Ptr, _Count);
; 757  : 			_RERAISE;
; 758  : 			_CATCH_END
; 759  : 
; 760  : 			size_type _Size = size();

  00046	8b 06		 mov	 eax, DWORD PTR [esi]
  00048	8b 7e 04	 mov	 edi, DWORD PTR [esi+4]
  0004b	2b f8		 sub	 edi, eax
  0004d	83 c4 18	 add	 esp, 24			; 00000018H
  00050	c1 ff 02	 sar	 edi, 2

; 761  : 			if (this->_Myfirst != 0)

  00053	85 c0		 test	 eax, eax
  00055	74 07		 je	 SHORT $LN39@reserve

; 762  : 				{	// destroy and deallocate old array
; 763  : 				_Destroy(this->_Myfirst, this->_Mylast);
; 764  : 				this->_Alval.deallocate(this->_Myfirst,
; 765  : 					this->_Myend - this->_Myfirst);

  00057	50		 push	 eax
  00058	e8 00 00 00 00	 call	 ??3@YAXPAX@Z		; operator delete
  0005d	59		 pop	 ecx
$LN39@reserve:

; 766  : 				}
; 767  : 
; 768  : 			this->_Orphan_all();

  0005e	8b ce		 mov	 ecx, esi
  00060	ff 15 00 00 00
	00		 call	 DWORD PTR __imp_?_Orphan_all@_Container_base0@std@@QAEXXZ

; 769  : 			this->_Myend = _Ptr + _Count;

  00066	8b 45 08	 mov	 eax, DWORD PTR __Count$[ebp]
  00069	8d 04 83	 lea	 eax, DWORD PTR [ebx+eax*4]
  0006c	89 46 08	 mov	 DWORD PTR [esi+8], eax

; 770  : 			this->_Mylast = _Ptr + _Size;

  0006f	8d 04 bb	 lea	 eax, DWORD PTR [ebx+edi*4]
  00072	5f		 pop	 edi

; 771  : 			this->_Myfirst = _Ptr;

  00073	89 1e		 mov	 DWORD PTR [esi], ebx
  00075	89 46 04	 mov	 DWORD PTR [esi+4], eax
  00078	5b		 pop	 ebx
$LN3@reserve:
  00079	5e		 pop	 esi

; 772  : 			}
; 773  : 		}

  0007a	5d		 pop	 ebp
  0007b	c2 04 00	 ret	 4
$LN42@reserve:
?reserve@?$vector@PAVioPullDownItem@@V?$allocator@PAVioPullDownItem@@@std@@@std@@QAEXI@Z ENDP ; std::vector<ioPullDownItem *,std::allocator<ioPullDownItem *> >::reserve
_TEXT	ENDS
PUBLIC	??$_Destroy_range@V?$allocator@UPullDownInnerImage@@@std@@@std@@YAXPAUPullDownInnerImage@@0AAV?$allocator@UPullDownInnerImage@@@0@U_Nonscalar_ptr_iterator_tag@0@@Z ; std::_Destroy_range<std::allocator<PullDownInnerImage> >
; Function compile flags: /Ogsp
; File c:\program files (x86)\microsoft visual studio 10.0\vc\include\xmemory
;	COMDAT ??$_Destroy_range@V?$allocator@UPullDownInnerImage@@@std@@@std@@YAXPAUPullDownInnerImage@@0AAV?$allocator@UPullDownInnerImage@@@0@U_Nonscalar_ptr_iterator_tag@0@@Z
_TEXT	SEGMENT
__First$ = 8						; size = 4
__Last$ = 12						; size = 4
__Al$ = 16						; size = 4
___formal$ = 20						; size = 1
??$_Destroy_range@V?$allocator@UPullDownInnerImage@@@std@@@std@@YAXPAUPullDownInnerImage@@0AAV?$allocator@UPullDownInnerImage@@@0@U_Nonscalar_ptr_iterator_tag@0@@Z PROC ; std::_Destroy_range<std::allocator<PullDownInnerImage> >, COMDAT

; 96   : 	for (; _First != _Last; ++_First)
; 97   : 		_Dest_val(_Al, _First);
; 98   : 	}

  00000	c3		 ret	 0
??$_Destroy_range@V?$allocator@UPullDownInnerImage@@@std@@@std@@YAXPAUPullDownInnerImage@@0AAV?$allocator@UPullDownInnerImage@@@0@U_Nonscalar_ptr_iterator_tag@0@@Z ENDP ; std::_Destroy_range<std::allocator<PullDownInnerImage> >
_TEXT	ENDS
PUBLIC	??$_Uninit_move@PAUPullDownInnerImage@@PAU1@V?$allocator@UPullDownInnerImage@@@std@@U1@@std@@YAPAUPullDownInnerImage@@PAU1@00AAV?$allocator@UPullDownInnerImage@@@0@0U_Nonscalar_ptr_iterator_tag@0@@Z ; std::_Uninit_move<PullDownInnerImage *,PullDownInnerImage *,std::allocator<PullDownInnerImage>,PullDownInnerImage>
; Function compile flags: /Ogsp
; File c:\program files (x86)\microsoft visual studio 10.0\vc\include\memory
;	COMDAT ??$_Uninit_move@PAUPullDownInnerImage@@PAU1@V?$allocator@UPullDownInnerImage@@@std@@U1@@std@@YAPAUPullDownInnerImage@@PAU1@00AAV?$allocator@UPullDownInnerImage@@@0@0U_Nonscalar_ptr_iterator_tag@0@@Z
_TEXT	SEGMENT
__First$ = 8						; size = 4
__Last$ = 12						; size = 4
__Dest$ = 16						; size = 4
__Al$ = 20						; size = 4
___formal$ = 24						; size = 4
___formal$ = 28						; size = 1
??$_Uninit_move@PAUPullDownInnerImage@@PAU1@V?$allocator@UPullDownInnerImage@@@std@@U1@@std@@YAPAUPullDownInnerImage@@PAU1@00AAV?$allocator@UPullDownInnerImage@@@0@0U_Nonscalar_ptr_iterator_tag@0@@Z PROC ; std::_Uninit_move<PullDownInnerImage *,PullDownInnerImage *,std::allocator<PullDownInnerImage>,PullDownInnerImage>, COMDAT

; 424  : 	{	// move [_First, _Last) to raw _Dest, using _Al, arbitrary type

  00000	55		 push	 ebp
  00001	8b ec		 mov	 ebp, esp
  00003	56		 push	 esi

; 425  : 	_DEBUG_RANGE(_First, _Last);
; 426  : 	_DEBUG_POINTER(_Dest);
; 427  : 	_FwdIt _Next = _Dest;
; 428  : 
; 429  : 	_TRY_BEGIN
; 430  : 	for (; _First != _Last; ++_Dest, ++_First)

  00004	8b 75 08	 mov	 esi, DWORD PTR __First$[ebp]
  00007	eb 16		 jmp	 SHORT $LN24@Uninit_mov
$LL6@Uninit_mov:

; 431  : 		_Cons_val(_Al, _Dest, (_Valty &&)*_First);

  00009	56		 push	 esi
  0000a	ff 75 10	 push	 DWORD PTR __Dest$[ebp]
  0000d	ff 75 14	 push	 DWORD PTR __Al$[ebp]
  00010	e8 00 00 00 00	 call	 ??$_Cons_val@V?$allocator@UPullDownInnerImage@@@std@@UPullDownInnerImage@@U3@@std@@YAXAAV?$allocator@UPullDownInnerImage@@@0@PAUPullDownInnerImage@@$$QAU2@@Z ; std::_Cons_val<std::allocator<PullDownInnerImage>,PullDownInnerImage,PullDownInnerImage>
  00015	83 45 10 1c	 add	 DWORD PTR __Dest$[ebp], 28 ; 0000001cH
  00019	83 c4 0c	 add	 esp, 12			; 0000000cH
  0001c	83 c6 1c	 add	 esi, 28			; 0000001cH
$LN24@Uninit_mov:

; 425  : 	_DEBUG_RANGE(_First, _Last);
; 426  : 	_DEBUG_POINTER(_Dest);
; 427  : 	_FwdIt _Next = _Dest;
; 428  : 
; 429  : 	_TRY_BEGIN
; 430  : 	for (; _First != _Last; ++_Dest, ++_First)

  0001f	3b 75 0c	 cmp	 esi, DWORD PTR __Last$[ebp]
  00022	75 e5		 jne	 SHORT $LL6@Uninit_mov

; 432  : 	_CATCH_ALL
; 433  : 	for (; _Next != _Dest; ++_Next)
; 434  : 		_Dest_val(_Al, _Next);
; 435  : 	_RERAISE;
; 436  : 	_CATCH_END
; 437  : 	return (_Dest);

  00024	8b 45 10	 mov	 eax, DWORD PTR __Dest$[ebp]
  00027	5e		 pop	 esi

; 438  : 	}

  00028	5d		 pop	 ebp
  00029	c3		 ret	 0
??$_Uninit_move@PAUPullDownInnerImage@@PAU1@V?$allocator@UPullDownInnerImage@@@std@@U1@@std@@YAPAUPullDownInnerImage@@PAU1@00AAV?$allocator@UPullDownInnerImage@@@0@0U_Nonscalar_ptr_iterator_tag@0@@Z ENDP ; std::_Uninit_move<PullDownInnerImage *,PullDownInnerImage *,std::allocator<PullDownInnerImage>,PullDownInnerImage>
_TEXT	ENDS
PUBLIC	??1?$vector@PAVioPullDownItem@@V?$allocator@PAVioPullDownItem@@@std@@@std@@QAE@XZ ; std::vector<ioPullDownItem *,std::allocator<ioPullDownItem *> >::~vector<ioPullDownItem *,std::allocator<ioPullDownItem *> >
; Function compile flags: /Ogsp
; File c:\program files (x86)\microsoft visual studio 10.0\vc\include\vector
;	COMDAT ??1?$vector@PAVioPullDownItem@@V?$allocator@PAVioPullDownItem@@@std@@@std@@QAE@XZ
_TEXT	SEGMENT
??1?$vector@PAVioPullDownItem@@V?$allocator@PAVioPullDownItem@@@std@@@std@@QAE@XZ PROC ; std::vector<ioPullDownItem *,std::allocator<ioPullDownItem *> >::~vector<ioPullDownItem *,std::allocator<ioPullDownItem *> >, COMDAT
; _this$ = ecx

; 705  : 		_Tidy();

  00000	e9 00 00 00 00	 jmp	 ?_Tidy@?$vector@PAVioPullDownItem@@V?$allocator@PAVioPullDownItem@@@std@@@std@@IAEXXZ ; std::vector<ioPullDownItem *,std::allocator<ioPullDownItem *> >::_Tidy
??1?$vector@PAVioPullDownItem@@V?$allocator@PAVioPullDownItem@@@std@@@std@@QAE@XZ ENDP ; std::vector<ioPullDownItem *,std::allocator<ioPullDownItem *> >::~vector<ioPullDownItem *,std::allocator<ioPullDownItem *> >
_TEXT	ENDS
PUBLIC	?clear@?$vector@PAVioPullDownItem@@V?$allocator@PAVioPullDownItem@@@std@@@std@@QAEXXZ ; std::vector<ioPullDownItem *,std::allocator<ioPullDownItem *> >::clear
; Function compile flags: /Ogsp
;	COMDAT ?clear@?$vector@PAVioPullDownItem@@V?$allocator@PAVioPullDownItem@@@std@@@std@@QAEXXZ
_TEXT	SEGMENT
$T525659 = -4						; size = 4
?clear@?$vector@PAVioPullDownItem@@V?$allocator@PAVioPullDownItem@@@std@@@std@@QAEXXZ PROC ; std::vector<ioPullDownItem *,std::allocator<ioPullDownItem *> >::clear, COMDAT
; _this$ = ecx

; 1217 : 		{	// erase all

  00000	55		 push	 ebp
  00001	8b ec		 mov	 ebp, esp
  00003	51		 push	 ecx

; 1218 : 		erase(begin(), end());

  00004	8b 41 04	 mov	 eax, DWORD PTR [ecx+4]
  00007	8b 11		 mov	 edx, DWORD PTR [ecx]
  00009	50		 push	 eax
  0000a	52		 push	 edx
  0000b	8d 45 fc	 lea	 eax, DWORD PTR $T525659[ebp]
  0000e	50		 push	 eax
  0000f	e8 00 00 00 00	 call	 ?erase@?$vector@PAVioPullDownItem@@V?$allocator@PAVioPullDownItem@@@std@@@std@@QAE?AV?$_Vector_iterator@V?$_Vector_val@PAVioPullDownItem@@V?$allocator@PAVioPullDownItem@@@std@@@std@@@2@V?$_Vector_const_iterator@V?$_Vector_val@PAVioPullDownItem@@V?$allocator@PAVioPullDownItem@@@std@@@std@@@2@0@Z ; std::vector<ioPullDownItem *,std::allocator<ioPullDownItem *> >::erase

; 1219 : 		}

  00014	c9		 leave
  00015	c3		 ret	 0
?clear@?$vector@PAVioPullDownItem@@V?$allocator@PAVioPullDownItem@@@std@@@std@@QAEXXZ ENDP ; std::vector<ioPullDownItem *,std::allocator<ioPullDownItem *> >::clear
_TEXT	ENDS
PUBLIC	?_Reserve@?$vector@PAVioPullDownItem@@V?$allocator@PAVioPullDownItem@@@std@@@std@@IAEXI@Z ; std::vector<ioPullDownItem *,std::allocator<ioPullDownItem *> >::_Reserve
; Function compile flags: /Ogsp
;	COMDAT ?_Reserve@?$vector@PAVioPullDownItem@@V?$allocator@PAVioPullDownItem@@@std@@@std@@IAEXI@Z
_TEXT	SEGMENT
__Count$ = 8						; size = 4
?_Reserve@?$vector@PAVioPullDownItem@@V?$allocator@PAVioPullDownItem@@@std@@@std@@IAEXI@Z PROC ; std::vector<ioPullDownItem *,std::allocator<ioPullDownItem *> >::_Reserve, COMDAT
; _this$ = ecx

; 1290 : 		{	// ensure room for _Count new elements, grow exponentially

  00000	55		 push	 ebp
  00001	8b ec		 mov	 ebp, esp
  00003	56		 push	 esi
  00004	8b f1		 mov	 esi, ecx

; 1291 : 		size_type _Size = size();

  00006	8b 0e		 mov	 ecx, DWORD PTR [esi]
  00008	8b 46 04	 mov	 eax, DWORD PTR [esi+4]
  0000b	2b c1		 sub	 eax, ecx

; 1292 : 		if (max_size() - _Count < _Size)

  0000d	ba ff ff ff 3f	 mov	 edx, 1073741823		; 3fffffffH
  00012	2b 55 08	 sub	 edx, DWORD PTR __Count$[ebp]
  00015	c1 f8 02	 sar	 eax, 2
  00018	3b d0		 cmp	 edx, eax
  0001a	73 0b		 jae	 SHORT $LN4@Reserve

; 1293 : 			_Xlen();

  0001c	68 00 00 00 00	 push	 OFFSET ??_C@_0BD@OLBABOEK@vector?$DMT?$DO?5too?5long?$AA@
  00021	ff 15 00 00 00
	00		 call	 DWORD PTR __imp_?_Xlength_error@std@@YAXPBD@Z
$LN21@Reserve:
$LN4@Reserve:

; 1294 : 		else if ((_Size += _Count) <= capacity())

  00027	8b 56 08	 mov	 edx, DWORD PTR [esi+8]
  0002a	03 45 08	 add	 eax, DWORD PTR __Count$[ebp]
  0002d	2b d1		 sub	 edx, ecx
  0002f	c1 fa 02	 sar	 edx, 2
  00032	3b c2		 cmp	 eax, edx
  00034	76 10		 jbe	 SHORT $LN1@Reserve

; 1295 : 			;
; 1296 : 		else
; 1297 : 			reserve(_Grow_to(_Size));

  00036	50		 push	 eax
  00037	8b ce		 mov	 ecx, esi
  00039	e8 00 00 00 00	 call	 ?_Grow_to@?$vector@PAVioPullDownItem@@V?$allocator@PAVioPullDownItem@@@std@@@std@@IBEII@Z ; std::vector<ioPullDownItem *,std::allocator<ioPullDownItem *> >::_Grow_to
  0003e	50		 push	 eax
  0003f	8b ce		 mov	 ecx, esi
  00041	e8 00 00 00 00	 call	 ?reserve@?$vector@PAVioPullDownItem@@V?$allocator@PAVioPullDownItem@@@std@@@std@@QAEXI@Z ; std::vector<ioPullDownItem *,std::allocator<ioPullDownItem *> >::reserve
$LN1@Reserve:
  00046	5e		 pop	 esi

; 1298 : 		}

  00047	5d		 pop	 ebp
  00048	c2 04 00	 ret	 4
$LN20@Reserve:
?_Reserve@?$vector@PAVioPullDownItem@@V?$allocator@PAVioPullDownItem@@@std@@@std@@IAEXI@Z ENDP ; std::vector<ioPullDownItem *,std::allocator<ioPullDownItem *> >::_Reserve
_TEXT	ENDS
PUBLIC	??$_Destroy_range@V?$allocator@UPullDownInnerImage@@@std@@@std@@YAXPAUPullDownInnerImage@@0AAV?$allocator@UPullDownInnerImage@@@0@@Z ; std::_Destroy_range<std::allocator<PullDownInnerImage> >
; Function compile flags: /Ogsp
; File c:\program files (x86)\microsoft visual studio 10.0\vc\include\xmemory
;	COMDAT ??$_Destroy_range@V?$allocator@UPullDownInnerImage@@@std@@@std@@YAXPAUPullDownInnerImage@@0AAV?$allocator@UPullDownInnerImage@@@0@@Z
_TEXT	SEGMENT
__First$ = 8						; size = 4
__Last$ = 12						; size = 4
__Al$ = 16						; size = 4
??$_Destroy_range@V?$allocator@UPullDownInnerImage@@@std@@@std@@YAXPAUPullDownInnerImage@@0AAV?$allocator@UPullDownInnerImage@@@0@@Z PROC ; std::_Destroy_range<std::allocator<PullDownInnerImage> >, COMDAT

; 88   : 	_Destroy_range(_First, _Last, _Al, _Ptr_cat(_First, _Last));
; 89   : 	}

  00000	c3		 ret	 0
??$_Destroy_range@V?$allocator@UPullDownInnerImage@@@std@@@std@@YAXPAUPullDownInnerImage@@0AAV?$allocator@UPullDownInnerImage@@@0@@Z ENDP ; std::_Destroy_range<std::allocator<PullDownInnerImage> >
_TEXT	ENDS
PUBLIC	??$_Uninitialized_move@PAUPullDownInnerImage@@PAU1@V?$allocator@UPullDownInnerImage@@@std@@@std@@YAPAUPullDownInnerImage@@PAU1@00AAV?$allocator@UPullDownInnerImage@@@0@@Z ; std::_Uninitialized_move<PullDownInnerImage *,PullDownInnerImage *,std::allocator<PullDownInnerImage> >
; Function compile flags: /Ogsp
; File c:\program files (x86)\microsoft visual studio 10.0\vc\include\memory
;	COMDAT ??$_Uninitialized_move@PAUPullDownInnerImage@@PAU1@V?$allocator@UPullDownInnerImage@@@std@@@std@@YAPAUPullDownInnerImage@@PAU1@00AAV?$allocator@UPullDownInnerImage@@@0@@Z
_TEXT	SEGMENT
__Cat$525783 = -4					; size = 1
__First$ = 8						; size = 4
__Last$ = 12						; size = 4
__Dest$ = 16						; size = 4
__Al$ = 20						; size = 4
??$_Uninitialized_move@PAUPullDownInnerImage@@PAU1@V?$allocator@UPullDownInnerImage@@@std@@@std@@YAPAUPullDownInnerImage@@PAU1@00AAV?$allocator@UPullDownInnerImage@@@0@@Z PROC ; std::_Uninitialized_move<PullDownInnerImage *,PullDownInnerImage *,std::allocator<PullDownInnerImage> >, COMDAT

; 469  : 	{	// move [_First, _Last) to raw _Dest, using _Al

  00000	55		 push	 ebp
  00001	8b ec		 mov	 ebp, esp
  00003	51		 push	 ecx

; 470  : 	return (_Uninit_move(_First, _Last, _Dest, _Al,
; 471  : 		_Val_type(_First), _Ptr_cat(_First, _Dest)));

  00004	ff 75 fc	 push	 DWORD PTR __Cat$525783[ebp]
  00007	6a 00		 push	 0
  00009	ff 75 14	 push	 DWORD PTR __Al$[ebp]
  0000c	ff 75 10	 push	 DWORD PTR __Dest$[ebp]
  0000f	ff 75 0c	 push	 DWORD PTR __Last$[ebp]
  00012	ff 75 08	 push	 DWORD PTR __First$[ebp]
  00015	e8 00 00 00 00	 call	 ??$_Uninit_move@PAUPullDownInnerImage@@PAU1@V?$allocator@UPullDownInnerImage@@@std@@U1@@std@@YAPAUPullDownInnerImage@@PAU1@00AAV?$allocator@UPullDownInnerImage@@@0@0U_Nonscalar_ptr_iterator_tag@0@@Z ; std::_Uninit_move<PullDownInnerImage *,PullDownInnerImage *,std::allocator<PullDownInnerImage>,PullDownInnerImage>
  0001a	83 c4 18	 add	 esp, 24			; 00000018H

; 472  : 	}

  0001d	c9		 leave
  0001e	c3		 ret	 0
??$_Uninitialized_move@PAUPullDownInnerImage@@PAU1@V?$allocator@UPullDownInnerImage@@@std@@@std@@YAPAUPullDownInnerImage@@PAU1@00AAV?$allocator@UPullDownInnerImage@@@0@@Z ENDP ; std::_Uninitialized_move<PullDownInnerImage *,PullDownInnerImage *,std::allocator<PullDownInnerImage> >
_TEXT	ENDS
PUBLIC	?DestroyPullDown@ioPullDownList@@IAEXXZ		; ioPullDownList::DestroyPullDown
; Function compile flags: /Ogsp
; File d:\lost saga for developer\youtube\tutorial\source\src\lsclient\gui\iopulldownlist.cpp
;	COMDAT ?DestroyPullDown@ioPullDownList@@IAEXXZ
_TEXT	SEGMENT
$T525937 = -4						; size = 4
?DestroyPullDown@ioPullDownList@@IAEXXZ PROC		; ioPullDownList::DestroyPullDown, COMDAT
; _this$ = ecx

; 40   : {	

  00000	55		 push	 ebp
  00001	8b ec		 mov	 ebp, esp
  00003	51		 push	 ecx
  00004	53		 push	 ebx
  00005	56		 push	 esi
  00006	8b d9		 mov	 ebx, ecx
  00008	57		 push	 edi

; 41   : 	for( vPullDownItem::iterator iter = m_vPullDownItem.begin(); iter != m_vPullDownItem.end(); ++iter )

  00009	8b bb 94 01 00
	00		 mov	 edi, DWORD PTR [ebx+404]
  0000f	eb 10		 jmp	 SHORT $LN59@DestroyPul
$LL19@DestroyPul:

; 42   : 	{
; 43   : 		ioPullDownItem* pPullDown = *iter;

  00011	8b 0f		 mov	 ecx, DWORD PTR [edi]

; 44   : 		SAFEDELETE( pPullDown );

  00013	85 c9		 test	 ecx, ecx
  00015	74 07		 je	 SHORT $LN3@DestroyPul
  00017	8b 01		 mov	 eax, DWORD PTR [ecx]
  00019	6a 01		 push	 1
  0001b	ff 50 08	 call	 DWORD PTR [eax+8]
$LN3@DestroyPul:

; 41   : 	for( vPullDownItem::iterator iter = m_vPullDownItem.begin(); iter != m_vPullDownItem.end(); ++iter )

  0001e	83 c7 04	 add	 edi, 4
$LN59@DestroyPul:
  00021	3b bb 98 01 00
	00		 cmp	 edi, DWORD PTR [ebx+408]
  00027	75 e8		 jne	 SHORT $LL19@DestroyPul

; 45   : 	}
; 46   : 	m_vPullDownItem.clear();

  00029	8b 83 98 01 00
	00		 mov	 eax, DWORD PTR [ebx+408]
  0002f	8b 8b 94 01 00
	00		 mov	 ecx, DWORD PTR [ebx+404]
  00035	50		 push	 eax
  00036	51		 push	 ecx
  00037	8d 45 fc	 lea	 eax, DWORD PTR $T525937[ebp]
  0003a	50		 push	 eax
  0003b	8d 8b 94 01 00
	00		 lea	 ecx, DWORD PTR [ebx+404]
  00041	e8 00 00 00 00	 call	 ?erase@?$vector@PAVioPullDownItem@@V?$allocator@PAVioPullDownItem@@@std@@@std@@QAE?AV?$_Vector_iterator@V?$_Vector_val@PAVioPullDownItem@@V?$allocator@PAVioPullDownItem@@@std@@@std@@@2@V?$_Vector_const_iterator@V?$_Vector_val@PAVioPullDownItem@@V?$allocator@PAVioPullDownItem@@@std@@@std@@@2@0@Z ; std::vector<ioPullDownItem *,std::allocator<ioPullDownItem *> >::erase
  00046	5f		 pop	 edi
  00047	5e		 pop	 esi
  00048	5b		 pop	 ebx

; 47   : }

  00049	c9		 leave
  0004a	c3		 ret	 0
?DestroyPullDown@ioPullDownList@@IAEXXZ ENDP		; ioPullDownList::DestroyPullDown
_TEXT	ENDS
PUBLIC	?OpenList@ioPullDownList@@UAEXPAVioWnd@@@Z	; ioPullDownList::OpenList
EXTRN	__imp_?ShowWnd@ioWnd@@QAEXXZ:PROC
; Function compile flags: /Ogsp
;	COMDAT ?OpenList@ioPullDownList@@UAEXPAVioWnd@@@Z
_TEXT	SEGMENT
_pOpenBtn$ = 8						; size = 4
?OpenList@ioPullDownList@@UAEXPAVioWnd@@@Z PROC		; ioPullDownList::OpenList, COMDAT
; _this$ = ecx

; 202  : {

  00000	55		 push	 ebp
  00001	8b ec		 mov	 ebp, esp
  00003	56		 push	 esi
  00004	8b f1		 mov	 esi, ecx

; 203  : 	if( IsShow() )

  00006	ff 15 00 00 00
	00		 call	 DWORD PTR __imp_?IsShow@ioWnd@@QBE_NXZ

; 204  : 	{
; 205  : 		HideWnd();

  0000c	8b ce		 mov	 ecx, esi
  0000e	84 c0		 test	 al, al
  00010	74 08		 je	 SHORT $LN1@OpenList
  00012	ff 15 00 00 00
	00		 call	 DWORD PTR __imp_?HideWnd@ioWnd@@QAEXXZ

; 206  : 		return;

  00018	eb 16		 jmp	 SHORT $LN2@OpenList
$LN1@OpenList:

; 207  : 	}
; 208  : 
; 209  : 	DestroyPullDown();

  0001a	e8 00 00 00 00	 call	 ?DestroyPullDown@ioPullDownList@@IAEXXZ ; ioPullDownList::DestroyPullDown

; 210  : 
; 211  : 	m_pOpenBtn = pOpenBtn;

  0001f	8b 45 08	 mov	 eax, DWORD PTR _pOpenBtn$[ebp]

; 212  : 	ShowWnd();

  00022	8b ce		 mov	 ecx, esi
  00024	89 86 70 01 00
	00		 mov	 DWORD PTR [esi+368], eax
  0002a	ff 15 00 00 00
	00		 call	 DWORD PTR __imp_?ShowWnd@ioWnd@@QAEXXZ
$LN2@OpenList:
  00030	5e		 pop	 esi

; 213  : }

  00031	5d		 pop	 ebp
  00032	c2 04 00	 ret	 4
?OpenList@ioPullDownList@@UAEXPAVioWnd@@@Z ENDP		; ioPullDownList::OpenList
_TEXT	ENDS
PUBLIC	?push_back@?$vector@PAVioPullDownItem@@V?$allocator@PAVioPullDownItem@@@std@@@std@@QAEXABQAVioPullDownItem@@@Z ; std::vector<ioPullDownItem *,std::allocator<ioPullDownItem *> >::push_back
; Function compile flags: /Ogsp
; File c:\program files (x86)\microsoft visual studio 10.0\vc\include\vector
;	COMDAT ?push_back@?$vector@PAVioPullDownItem@@V?$allocator@PAVioPullDownItem@@@std@@@std@@QAEXABQAVioPullDownItem@@@Z
_TEXT	SEGMENT
__Val$ = 8						; size = 4
?push_back@?$vector@PAVioPullDownItem@@V?$allocator@PAVioPullDownItem@@@std@@@std@@QAEXABQAVioPullDownItem@@@Z PROC ; std::vector<ioPullDownItem *,std::allocator<ioPullDownItem *> >::push_back, COMDAT
; _this$ = ecx

; 976  : 		{	// insert element at end

  00000	55		 push	 ebp
  00001	8b ec		 mov	 ebp, esp
  00003	56		 push	 esi
  00004	8b f1		 mov	 esi, ecx

; 977  : 		if (_Inside(_STD addressof(_Val)))

  00006	8b 46 04	 mov	 eax, DWORD PTR [esi+4]
  00009	57		 push	 edi
  0000a	8b 7d 08	 mov	 edi, DWORD PTR __Val$[ebp]
  0000d	3b f8		 cmp	 edi, eax
  0000f	73 27		 jae	 SHORT $LN4@push_back
  00011	8b 0e		 mov	 ecx, DWORD PTR [esi]
  00013	3b cf		 cmp	 ecx, edi
  00015	77 21		 ja	 SHORT $LN4@push_back

; 978  : 			{	// push back an element
; 979  : 			size_type _Idx = _STD addressof(_Val) - this->_Myfirst;

  00017	2b f9		 sub	 edi, ecx
  00019	c1 ff 02	 sar	 edi, 2

; 980  : 			if (this->_Mylast == this->_Myend)

  0001c	3b 46 08	 cmp	 eax, DWORD PTR [esi+8]
  0001f	75 09		 jne	 SHORT $LN3@push_back

; 981  : 				_Reserve(1);

  00021	6a 01		 push	 1
  00023	8b ce		 mov	 ecx, esi
  00025	e8 00 00 00 00	 call	 ?_Reserve@?$vector@PAVioPullDownItem@@V?$allocator@PAVioPullDownItem@@@std@@@std@@IAEXI@Z ; std::vector<ioPullDownItem *,std::allocator<ioPullDownItem *> >::_Reserve
$LN3@push_back:

; 982  : 			_Orphan_range(this->_Mylast, this->_Mylast);
; 983  : 			_Cons_val(this->_Alval,
; 984  : 				this->_Mylast,
; 985  : 				this->_Myfirst[_Idx]);

  0002a	8b 46 04	 mov	 eax, DWORD PTR [esi+4]
  0002d	85 c0		 test	 eax, eax
  0002f	74 20		 je	 SHORT $LN39@push_back
  00031	8b 0e		 mov	 ecx, DWORD PTR [esi]
  00033	8b 0c b9	 mov	 ecx, DWORD PTR [ecx+edi*4]

; 986  : 			++this->_Mylast;
; 987  : 			}
; 988  : 		else

  00036	eb 17		 jmp	 SHORT $LN46@push_back
$LN4@push_back:

; 989  : 			{	// push back a non-element
; 990  : 			if (this->_Mylast == this->_Myend)

  00038	3b 46 08	 cmp	 eax, DWORD PTR [esi+8]
  0003b	75 09		 jne	 SHORT $LN1@push_back

; 991  : 				_Reserve(1);

  0003d	6a 01		 push	 1
  0003f	8b ce		 mov	 ecx, esi
  00041	e8 00 00 00 00	 call	 ?_Reserve@?$vector@PAVioPullDownItem@@V?$allocator@PAVioPullDownItem@@@std@@@std@@IAEXI@Z ; std::vector<ioPullDownItem *,std::allocator<ioPullDownItem *> >::_Reserve
$LN1@push_back:

; 992  : 			_Orphan_range(this->_Mylast, this->_Mylast);
; 993  : 			_Cons_val(this->_Alval,
; 994  : 				this->_Mylast,
; 995  : 				_Val);

  00046	8b 46 04	 mov	 eax, DWORD PTR [esi+4]
  00049	85 c0		 test	 eax, eax
  0004b	74 04		 je	 SHORT $LN39@push_back
  0004d	8b 0f		 mov	 ecx, DWORD PTR [edi]
$LN46@push_back:
  0004f	89 08		 mov	 DWORD PTR [eax], ecx
$LN39@push_back:

; 996  : 			++this->_Mylast;

  00051	83 46 04 04	 add	 DWORD PTR [esi+4], 4
  00055	5f		 pop	 edi
  00056	5e		 pop	 esi

; 997  : 			}
; 998  : 		}

  00057	5d		 pop	 ebp
  00058	c2 04 00	 ret	 4
?push_back@?$vector@PAVioPullDownItem@@V?$allocator@PAVioPullDownItem@@@std@@@std@@QAEXABQAVioPullDownItem@@@Z ENDP ; std::vector<ioPullDownItem *,std::allocator<ioPullDownItem *> >::push_back
_TEXT	ENDS
PUBLIC	?_Destroy@?$vector@UPullDownInnerImage@@V?$allocator@UPullDownInnerImage@@@std@@@std@@IAEXPAUPullDownInnerImage@@0@Z ; std::vector<PullDownInnerImage,std::allocator<PullDownInnerImage> >::_Destroy
; Function compile flags: /Ogsp
;	COMDAT ?_Destroy@?$vector@UPullDownInnerImage@@V?$allocator@UPullDownInnerImage@@@std@@@std@@IAEXPAUPullDownInnerImage@@0@Z
_TEXT	SEGMENT
__First$ = 8						; size = 4
__Last$ = 12						; size = 4
?_Destroy@?$vector@UPullDownInnerImage@@V?$allocator@UPullDownInnerImage@@@std@@@std@@IAEXPAUPullDownInnerImage@@0@Z PROC ; std::vector<PullDownInnerImage,std::allocator<PullDownInnerImage> >::_Destroy, COMDAT
; _this$ = ecx

; 1270 : 		_Destroy_range(_First, _Last, this->_Alval);
; 1271 : 		}

  00000	c2 08 00	 ret	 8
?_Destroy@?$vector@UPullDownInnerImage@@V?$allocator@UPullDownInnerImage@@@std@@@std@@IAEXPAUPullDownInnerImage@@0@Z ENDP ; std::vector<PullDownInnerImage,std::allocator<PullDownInnerImage> >::_Destroy
_TEXT	ENDS
PUBLIC	??$_Umove@PAUPullDownInnerImage@@@?$vector@UPullDownInnerImage@@V?$allocator@UPullDownInnerImage@@@std@@@std@@IAEPAUPullDownInnerImage@@PAU2@00@Z ; std::vector<PullDownInnerImage,std::allocator<PullDownInnerImage> >::_Umove<PullDownInnerImage *>
; Function compile flags: /Ogsp
;	COMDAT ??$_Umove@PAUPullDownInnerImage@@@?$vector@UPullDownInnerImage@@V?$allocator@UPullDownInnerImage@@@std@@@std@@IAEPAUPullDownInnerImage@@PAU2@00@Z
_TEXT	SEGMENT
__First$ = 8						; size = 4
__Last$ = 12						; size = 4
__Ptr$ = 16						; size = 4
??$_Umove@PAUPullDownInnerImage@@@?$vector@UPullDownInnerImage@@V?$allocator@UPullDownInnerImage@@@std@@@std@@IAEPAUPullDownInnerImage@@PAU2@00@Z PROC ; std::vector<PullDownInnerImage,std::allocator<PullDownInnerImage> >::_Umove<PullDownInnerImage *>, COMDAT
; _this$ = ecx

; 1322 : 		pointer _Umove(_Iter _First, _Iter _Last, pointer _Ptr)

  00000	55		 push	 ebp
  00001	8b ec		 mov	 ebp, esp

; 1323 : 		{	// move initializing [_First, _Last), using allocator
; 1324 : 		return (_Uninitialized_move(_First, _Last,
; 1325 : 			_Ptr, this->_Alval));

  00003	83 c1 0c	 add	 ecx, 12			; 0000000cH
  00006	51		 push	 ecx
  00007	ff 75 10	 push	 DWORD PTR __Ptr$[ebp]
  0000a	ff 75 0c	 push	 DWORD PTR __Last$[ebp]
  0000d	ff 75 08	 push	 DWORD PTR __First$[ebp]
  00010	e8 00 00 00 00	 call	 ??$_Uninitialized_move@PAUPullDownInnerImage@@PAU1@V?$allocator@UPullDownInnerImage@@@std@@@std@@YAPAUPullDownInnerImage@@PAU1@00AAV?$allocator@UPullDownInnerImage@@@0@@Z ; std::_Uninitialized_move<PullDownInnerImage *,PullDownInnerImage *,std::allocator<PullDownInnerImage> >
  00015	83 c4 10	 add	 esp, 16			; 00000010H

; 1326 : 		}

  00018	5d		 pop	 ebp
  00019	c2 0c 00	 ret	 12			; 0000000cH
??$_Umove@PAUPullDownInnerImage@@@?$vector@UPullDownInnerImage@@V?$allocator@UPullDownInnerImage@@@std@@@std@@IAEPAUPullDownInnerImage@@PAU2@00@Z ENDP ; std::vector<PullDownInnerImage,std::allocator<PullDownInnerImage> >::_Umove<PullDownInnerImage *>
_TEXT	ENDS
PUBLIC	??_C@_0BF@NLIDGFKF@?$CFs?5?9?5pItem?5?$DN?$DN?5NULL?$CB?$CB?$AA@ ; `string'
PUBLIC	??_C@_0BI@GKCKLMHE@ioPullDownList?3?3AddList?$AA@ ; `string'
PUBLIC	?AddList@ioPullDownList@@UAEXPAVioPullDownItem@@@Z ; ioPullDownList::AddList
EXTRN	__imp_?HideChildWnd@ioWnd@@QAEXK_N@Z:PROC
;	COMDAT ??_C@_0BF@NLIDGFKF@?$CFs?5?9?5pItem?5?$DN?$DN?5NULL?$CB?$CB?$AA@
CONST	SEGMENT
??_C@_0BF@NLIDGFKF@?$CFs?5?9?5pItem?5?$DN?$DN?5NULL?$CB?$CB?$AA@ DB '%s -'
	DB	' pItem == NULL!!', 00H			; `string'
CONST	ENDS
;	COMDAT ??_C@_0BI@GKCKLMHE@ioPullDownList?3?3AddList?$AA@
CONST	SEGMENT
??_C@_0BI@GKCKLMHE@ioPullDownList?3?3AddList?$AA@ DB 'ioPullDownList::Add'
	DB	'List', 00H					; `string'
; Function compile flags: /Ogsp
; File d:\lost saga for developer\youtube\tutorial\source\src\lsclient\gui\iopulldownlist.cpp
CONST	ENDS
;	COMDAT ?AddList@ioPullDownList@@UAEXPAVioPullDownItem@@@Z
_TEXT	SEGMENT
_pItem$ = 8						; size = 4
?AddList@ioPullDownList@@UAEXPAVioPullDownItem@@@Z PROC	; ioPullDownList::AddList, COMDAT
; _this$ = ecx

; 216  : {

  00000	55		 push	 ebp
  00001	8b ec		 mov	 ebp, esp

; 217  : 	if( !pItem )

  00003	8b 45 08	 mov	 eax, DWORD PTR _pItem$[ebp]
  00006	53		 push	 ebx
  00007	33 db		 xor	 ebx, ebx
  00009	57		 push	 edi
  0000a	8b f9		 mov	 edi, ecx
  0000c	3b c3		 cmp	 eax, ebx
  0000e	75 1f		 jne	 SHORT $LN6@AddList

; 218  : 	{
; 219  : 		LOG.PrintTimeAndLog( 0, "%s - pItem == NULL!!", __FUNCTION__ );

  00010	68 00 00 00 00	 push	 OFFSET ??_C@_0BI@GKCKLMHE@ioPullDownList?3?3AddList?$AA@
  00015	68 00 00 00 00	 push	 OFFSET ??_C@_0BF@NLIDGFKF@?$CFs?5?9?5pItem?5?$DN?$DN?5NULL?$CB?$CB?$AA@
  0001a	53		 push	 ebx
  0001b	ff 35 00 00 00
	00		 push	 DWORD PTR __imp_?LOG@@3VCLog@@A
  00021	ff 15 00 00 00
	00		 call	 DWORD PTR __imp_?PrintTimeAndLog@CLog@@QAAXHPADZZ
  00027	83 c4 10	 add	 esp, 16			; 00000010H

; 220  : 		return;

  0002a	e9 b5 00 00 00	 jmp	 $LN7@AddList
$LN6@AddList:

; 221  : 	}
; 222  : 
; 223  : 	pItem->m_iIndex = static_cast<int>( m_vPullDownItem.size() );

  0002f	8b 8f 98 01 00
	00		 mov	 ecx, DWORD PTR [edi+408]
  00035	2b 8f 94 01 00
	00		 sub	 ecx, DWORD PTR [edi+404]
  0003b	56		 push	 esi
  0003c	c1 f9 02	 sar	 ecx, 2
  0003f	89 48 08	 mov	 DWORD PTR [eax+8], ecx

; 224  : 	m_vPullDownItem.push_back( pItem );

  00042	8d 45 08	 lea	 eax, DWORD PTR _pItem$[ebp]
  00045	50		 push	 eax
  00046	8d 8f 94 01 00
	00		 lea	 ecx, DWORD PTR [edi+404]
  0004c	e8 00 00 00 00	 call	 ?push_back@?$vector@PAVioPullDownItem@@V?$allocator@PAVioPullDownItem@@@std@@@std@@QAEXABQAVioPullDownItem@@@Z ; std::vector<ioPullDownItem *,std::allocator<ioPullDownItem *> >::push_back

; 225  : 
; 226  : 	m_iCurPos = 0;

  00051	89 9f 88 01 00
	00		 mov	 DWORD PTR [edi+392], ebx

; 227  : 
; 228  : 	if( (int)m_vPullDownItem.size() <= m_iMaxPageList )

  00057	8b 87 98 01 00
	00		 mov	 eax, DWORD PTR [edi+408]
  0005d	2b 87 94 01 00
	00		 sub	 eax, DWORD PTR [edi+404]

; 229  : 	{
; 230  : 		HideChildWnd( ID_VERT_SCROLL );

  00063	8b cf		 mov	 ecx, edi
  00065	c1 f8 02	 sar	 eax, 2
  00068	3b 87 80 01 00
	00		 cmp	 eax, DWORD PTR [edi+384]
  0006e	7f 0e		 jg	 SHORT $LN5@AddList
  00070	53		 push	 ebx
  00071	68 e8 03 00 00	 push	 1000			; 000003e8H
  00076	ff 15 00 00 00
	00		 call	 DWORD PTR __imp_?HideChildWnd@ioWnd@@QAEXK_N@Z

; 231  : 	}
; 232  : 	else

  0007c	eb 52		 jmp	 SHORT $LN3@AddList
$LN5@AddList:

; 233  : 	{
; 234  : 		ioScroll *pScroll = (ioScroll*)FindChildWnd( ID_VERT_SCROLL );

  0007e	68 e8 03 00 00	 push	 1000			; 000003e8H
  00083	ff 15 00 00 00
	00		 call	 DWORD PTR __imp_?FindChildWnd@ioWnd@@QAEPAV1@K@Z
  00089	8b d8		 mov	 ebx, eax

; 235  : 		if( pScroll )

  0008b	85 db		 test	 ebx, ebx
  0008d	74 41		 je	 SHORT $LN3@AddList

; 236  : 		{
; 237  : 			if ( (int)m_vPullDownItem.size() > m_iMaxPageList )

  0008f	8b 87 98 01 00
	00		 mov	 eax, DWORD PTR [edi+408]
  00095	2b 87 94 01 00
	00		 sub	 eax, DWORD PTR [edi+404]
  0009b	8b 8f 80 01 00
	00		 mov	 ecx, DWORD PTR [edi+384]

; 238  : 				pScroll->SetScrollRange( 0, m_vPullDownItem.size() - m_iMaxPageList + 1 );

  000a1	8b 13		 mov	 edx, DWORD PTR [ebx]
  000a3	c1 f8 02	 sar	 eax, 2
  000a6	3b c1		 cmp	 eax, ecx
  000a8	7e 03		 jle	 SHORT $LN2@AddList
  000aa	2b c1		 sub	 eax, ecx
  000ac	40		 inc	 eax
$LN2@AddList:

; 239  : 			else
; 240  : 				pScroll->SetScrollRange( 0, m_vPullDownItem.size() );

  000ad	50		 push	 eax
  000ae	6a 00		 push	 0
  000b0	8b cb		 mov	 ecx, ebx
  000b2	ff 92 30 01 00
	00		 call	 DWORD PTR [edx+304]

; 241  : 
; 242  : 			pScroll->SetScrollPos( m_iCurPos );

  000b8	ff b7 88 01 00
	00		 push	 DWORD PTR [edi+392]
  000be	8b 03		 mov	 eax, DWORD PTR [ebx]
  000c0	8b cb		 mov	 ecx, ebx
  000c2	ff 90 38 01 00
	00		 call	 DWORD PTR [eax+312]

; 243  : 			pScroll->ShowWnd();

  000c8	8b cb		 mov	 ecx, ebx
  000ca	ff 15 00 00 00
	00		 call	 DWORD PTR __imp_?ShowWnd@ioWnd@@QAEXXZ
$LN3@AddList:

; 244  : 		}
; 245  : 	}
; 246  : 
; 247  : 	g_PullDownFactory.Layout( this, m_ePullDownStyle );

  000d0	ff b7 60 01 00
	00		 push	 DWORD PTR [edi+352]
  000d6	57		 push	 edi
  000d7	e8 00 00 00 00	 call	 ?GetSingleton@ioPullDownItemFactory@@SAAAV1@XZ ; ioPullDownItemFactory::GetSingleton
  000dc	8b c8		 mov	 ecx, eax
  000de	e8 00 00 00 00	 call	 ?Layout@ioPullDownItemFactory@@QAEXPAVioPullDownList@@W4PullDownStyle@@@Z ; ioPullDownItemFactory::Layout
  000e3	5e		 pop	 esi
$LN7@AddList:
  000e4	5f		 pop	 edi
  000e5	5b		 pop	 ebx

; 248  : }

  000e6	5d		 pop	 ebp
  000e7	c2 04 00	 ret	 4
?AddList@ioPullDownList@@UAEXPAVioPullDownItem@@@Z ENDP	; ioPullDownList::AddList
_TEXT	ENDS
PUBLIC	?erase@?$vector@UPullDownInnerImage@@V?$allocator@UPullDownInnerImage@@@std@@@std@@QAE?AV?$_Vector_iterator@V?$_Vector_val@UPullDownInnerImage@@V?$allocator@UPullDownInnerImage@@@std@@@std@@@2@V?$_Vector_const_iterator@V?$_Vector_val@UPullDownInnerImage@@V?$allocator@UPullDownInnerImage@@@std@@@std@@@2@0@Z ; std::vector<PullDownInnerImage,std::allocator<PullDownInnerImage> >::erase
; Function compile flags: /Ogsp
; File c:\program files (x86)\microsoft visual studio 10.0\vc\include\vector
;	COMDAT ?erase@?$vector@UPullDownInnerImage@@V?$allocator@UPullDownInnerImage@@@std@@@std@@QAE?AV?$_Vector_iterator@V?$_Vector_val@UPullDownInnerImage@@V?$allocator@UPullDownInnerImage@@@std@@@std@@@2@V?$_Vector_const_iterator@V?$_Vector_val@UPullDownInnerImage@@V?$allocator@UPullDownInnerImage@@@std@@@std@@@2@0@Z
_TEXT	SEGMENT
___$ReturnUdt$ = 8					; size = 4
__First_arg$ = 12					; size = 4
__Cat$526237 = 16					; size = 1
__Last_arg$ = 16					; size = 4
?erase@?$vector@UPullDownInnerImage@@V?$allocator@UPullDownInnerImage@@@std@@@std@@QAE?AV?$_Vector_iterator@V?$_Vector_val@UPullDownInnerImage@@V?$allocator@UPullDownInnerImage@@@std@@@std@@@2@V?$_Vector_const_iterator@V?$_Vector_val@UPullDownInnerImage@@V?$allocator@UPullDownInnerImage@@@std@@@std@@@2@0@Z PROC ; std::vector<PullDownInnerImage,std::allocator<PullDownInnerImage> >::erase, COMDAT
; _this$ = ecx

; 1190 : 		{	// erase [_First, _Last)

  00000	55		 push	 ebp
  00001	8b ec		 mov	 ebp, esp

; 1191 : 		iterator _First = _Make_iter(_First_arg);

  00003	8b 45 0c	 mov	 eax, DWORD PTR __First_arg$[ebp]
  00006	56		 push	 esi
  00007	57		 push	 edi
  00008	8b 7d 08	 mov	 edi, DWORD PTR ___$ReturnUdt$[ebp]
  0000b	8b f1		 mov	 esi, ecx
  0000d	89 07		 mov	 DWORD PTR [edi], eax

; 1192 : 		iterator _Last = _Make_iter(_Last_arg);
; 1193 : 
; 1194 : 		if (_First != _Last)

  0000f	3b 45 10	 cmp	 eax, DWORD PTR __Last_arg$[ebp]
  00012	74 16		 je	 SHORT $LN1@erase@2

; 1195 : 			{	// worth doing, copy down over hole
; 1196 :  #if _ITERATOR_DEBUG_LEVEL == 2
; 1197 : 			if (_Last < _First || _VICONT(_First) != this
; 1198 : 				|| _VIPTR(_First) < this->_Myfirst
; 1199 : 				|| this->_Mylast < _VIPTR(_Last))
; 1200 : 				_DEBUG_ERROR("vector erase iterator outside range");
; 1201 : 			pointer _Ptr = _Move(_VIPTR(_Last), this->_Mylast,
; 1202 : 				_VIPTR(_First));
; 1203 : 			_Orphan_range(_VIPTR(_First), this->_Mylast);
; 1204 : 
; 1205 :  #else /* _ITERATOR_DEBUG_LEVEL == 2 */
; 1206 : 			pointer _Ptr = _Move(_VIPTR(_Last), this->_Mylast,
; 1207 : 				_VIPTR(_First));

  00014	ff 75 10	 push	 DWORD PTR __Cat$526237[ebp]
  00017	8b 4e 04	 mov	 ecx, DWORD PTR [esi+4]
  0001a	50		 push	 eax
  0001b	51		 push	 ecx
  0001c	ff 75 10	 push	 DWORD PTR __Last_arg$[ebp]
  0001f	e8 00 00 00 00	 call	 ??$_Move@PAUPullDownInnerImage@@PAU1@@std@@YAPAUPullDownInnerImage@@PAU1@00U_Nonscalar_ptr_iterator_tag@0@@Z ; std::_Move<PullDownInnerImage *,PullDownInnerImage *>
  00024	83 c4 10	 add	 esp, 16			; 00000010H

; 1208 :  #endif /* _ITERATOR_DEBUG_LEVEL == 2 */
; 1209 : 
; 1210 : 			_Destroy(_Ptr, this->_Mylast);
; 1211 : 			this->_Mylast = _Ptr;

  00027	89 46 04	 mov	 DWORD PTR [esi+4], eax
$LN1@erase@2:

; 1212 : 			}
; 1213 : 		return (_First);

  0002a	8b c7		 mov	 eax, edi
  0002c	5f		 pop	 edi
  0002d	5e		 pop	 esi

; 1214 : 		}

  0002e	5d		 pop	 ebp
  0002f	c2 0c 00	 ret	 12			; 0000000cH
?erase@?$vector@UPullDownInnerImage@@V?$allocator@UPullDownInnerImage@@@std@@@std@@QAE?AV?$_Vector_iterator@V?$_Vector_val@UPullDownInnerImage@@V?$allocator@UPullDownInnerImage@@@std@@@std@@@2@V?$_Vector_const_iterator@V?$_Vector_val@UPullDownInnerImage@@V?$allocator@UPullDownInnerImage@@@std@@@std@@@2@0@Z ENDP ; std::vector<PullDownInnerImage,std::allocator<PullDownInnerImage> >::erase
_TEXT	ENDS
PUBLIC	?_Tidy@?$vector@UPullDownInnerImage@@V?$allocator@UPullDownInnerImage@@@std@@@std@@IAEXXZ ; std::vector<PullDownInnerImage,std::allocator<PullDownInnerImage> >::_Tidy
; Function compile flags: /Ogsp
;	COMDAT ?_Tidy@?$vector@UPullDownInnerImage@@V?$allocator@UPullDownInnerImage@@@std@@@std@@IAEXXZ
_TEXT	SEGMENT
?_Tidy@?$vector@UPullDownInnerImage@@V?$allocator@UPullDownInnerImage@@@std@@@std@@IAEXXZ PROC ; std::vector<PullDownInnerImage,std::allocator<PullDownInnerImage> >::_Tidy, COMDAT
; _this$ = ecx

; 1301 : 		{	// free all storage

  00000	56		 push	 esi
  00001	8b f1		 mov	 esi, ecx

; 1302 : 		if (this->_Myfirst != 0)

  00003	83 3e 00	 cmp	 DWORD PTR [esi], 0
  00006	74 0e		 je	 SHORT $LN21@Tidy@2

; 1303 : 			{	// something to free, destroy and deallocate it
; 1304 : 			this->_Orphan_all();

  00008	ff 15 00 00 00
	00		 call	 DWORD PTR __imp_?_Orphan_all@_Container_base0@std@@QAEXXZ

; 1305 : 			_Destroy(this->_Myfirst, this->_Mylast);
; 1306 : 			this->_Alval.deallocate(this->_Myfirst,
; 1307 : 				this->_Myend - this->_Myfirst);

  0000e	ff 36		 push	 DWORD PTR [esi]
  00010	e8 00 00 00 00	 call	 ??3@YAXPAX@Z		; operator delete
  00015	59		 pop	 ecx
$LN21@Tidy@2:

; 1308 : 			}
; 1309 : 		this->_Myfirst = 0;

  00016	83 26 00	 and	 DWORD PTR [esi], 0

; 1310 : 		this->_Mylast = 0;

  00019	83 66 04 00	 and	 DWORD PTR [esi+4], 0

; 1311 : 		this->_Myend = 0;

  0001d	83 66 08 00	 and	 DWORD PTR [esi+8], 0
  00021	5e		 pop	 esi

; 1312 : 		}

  00022	c3		 ret	 0
?_Tidy@?$vector@UPullDownInnerImage@@V?$allocator@UPullDownInnerImage@@@std@@@std@@IAEXXZ ENDP ; std::vector<PullDownInnerImage,std::allocator<PullDownInnerImage> >::_Tidy
_TEXT	ENDS
PUBLIC	?reserve@?$vector@UPullDownInnerImage@@V?$allocator@UPullDownInnerImage@@@std@@@std@@QAEXI@Z ; std::vector<PullDownInnerImage,std::allocator<PullDownInnerImage> >::reserve
EXTRN	__EH_prolog3_catch:PROC
;	COMDAT xdata$x
; File c:\program files (x86)\microsoft visual studio 10.0\vc\include\xmemory
xdata$x	SEGMENT
__catchsym$?reserve@?$vector@UPullDownInnerImage@@V?$allocator@UPullDownInnerImage@@@std@@@std@@QAEXI@Z$2 DD 040H
	DD	00H
	DD	00H
	DD	FLAT:__catch$?reserve@?$vector@UPullDownInnerImage@@V?$allocator@UPullDownInnerImage@@@std@@@std@@QAEXI@Z$0
__unwindtable$?reserve@?$vector@UPullDownInnerImage@@V?$allocator@UPullDownInnerImage@@@std@@@std@@QAEXI@Z DD 0ffffffffH
	DD	00H
	DD	0ffffffffH
	DD	00H
__tryblocktable$?reserve@?$vector@UPullDownInnerImage@@V?$allocator@UPullDownInnerImage@@@std@@@std@@QAEXI@Z DD 00H
	DD	00H
	DD	01H
	DD	01H
	DD	FLAT:__catchsym$?reserve@?$vector@UPullDownInnerImage@@V?$allocator@UPullDownInnerImage@@@std@@@std@@QAEXI@Z$2
__ehfuncinfo$?reserve@?$vector@UPullDownInnerImage@@V?$allocator@UPullDownInnerImage@@@std@@@std@@QAEXI@Z DD 019930522H
	DD	02H
	DD	FLAT:__unwindtable$?reserve@?$vector@UPullDownInnerImage@@V?$allocator@UPullDownInnerImage@@@std@@@std@@QAEXI@Z
	DD	01H
	DD	FLAT:__tryblocktable$?reserve@?$vector@UPullDownInnerImage@@V?$allocator@UPullDownInnerImage@@@std@@@std@@QAEXI@Z
	DD	2 DUP(00H)
	DD	00H
	DD	01H
; Function compile flags: /Ogsp
; File c:\program files (x86)\microsoft visual studio 10.0\vc\include\vector
xdata$x	ENDS
;	COMDAT ?reserve@?$vector@UPullDownInnerImage@@V?$allocator@UPullDownInnerImage@@@std@@@std@@QAEXI@Z
_TEXT	SEGMENT
__$EHRec$ = -16						; size = 16
__Ptr$520599 = 8					; size = 4
__Count$ = 8						; size = 4
?reserve@?$vector@UPullDownInnerImage@@V?$allocator@UPullDownInnerImage@@@std@@@std@@QAEXI@Z PROC ; std::vector<PullDownInnerImage,std::allocator<PullDownInnerImage> >::reserve, COMDAT
; _this$ = ecx

; 746  : 		{	// determine new minimum length of allocated storage

  00000	6a 04		 push	 4
  00002	b8 00 00 00 00	 mov	 eax, __ehhandler$?reserve@?$vector@UPullDownInnerImage@@V?$allocator@UPullDownInnerImage@@@std@@@std@@QAEXI@Z
  00007	e8 00 00 00 00	 call	 __EH_prolog3_catch
  0000c	8b f1		 mov	 esi, ecx

; 747  : 		if (max_size() < _Count)

  0000e	8b 5d 08	 mov	 ebx, DWORD PTR __Count$[ebp]
  00011	81 fb 49 92 24
	09		 cmp	 ebx, 153391689		; 09249249H
  00017	76 0b		 jbe	 SHORT $LN5@reserve@2

; 748  : 			_Xlen();	// result too long

  00019	68 00 00 00 00	 push	 OFFSET ??_C@_0BD@OLBABOEK@vector?$DMT?$DO?5too?5long?$AA@
  0001e	ff 15 00 00 00
	00		 call	 DWORD PTR __imp_?_Xlength_error@std@@YAXPBD@Z
$LN56@reserve@2:
$LN5@reserve@2:

; 749  : 		else if (capacity() < _Count)

  00024	8b 46 08	 mov	 eax, DWORD PTR [esi+8]
  00027	2b 06		 sub	 eax, DWORD PTR [esi]
  00029	6a 1c		 push	 28			; 0000001cH
  0002b	99		 cdq
  0002c	59		 pop	 ecx
  0002d	f7 f9		 idiv	 ecx
  0002f	3b c3		 cmp	 eax, ebx
  00031	73 6b		 jae	 SHORT $LN3@reserve@2

; 750  : 			{	// not enough room, reallocate
; 751  : 			pointer _Ptr = this->_Alval.allocate(_Count);

  00033	6a 00		 push	 0
  00035	53		 push	 ebx
  00036	e8 00 00 00 00	 call	 ??$_Allocate@UPullDownInnerImage@@@std@@YAPAUPullDownInnerImage@@IPAU1@@Z ; std::_Allocate<PullDownInnerImage>

; 752  : 
; 753  : 			_TRY_BEGIN
; 754  : 			_Umove(this->_Myfirst, this->_Mylast, _Ptr);

  0003b	8b 0e		 mov	 ecx, DWORD PTR [esi]
  0003d	83 65 fc 00	 and	 DWORD PTR __$EHRec$[ebp+12], 0
  00041	8d 56 0c	 lea	 edx, DWORD PTR [esi+12]
  00044	52		 push	 edx
  00045	89 45 08	 mov	 DWORD PTR __Ptr$520599[ebp], eax
  00048	ff 75 08	 push	 DWORD PTR __Ptr$520599[ebp]
  0004b	8b 46 04	 mov	 eax, DWORD PTR [esi+4]
  0004e	50		 push	 eax
  0004f	51		 push	 ecx
  00050	e8 00 00 00 00	 call	 ??$_Uninitialized_move@PAUPullDownInnerImage@@PAU1@V?$allocator@UPullDownInnerImage@@@std@@@std@@YAPAUPullDownInnerImage@@PAU1@00AAV?$allocator@UPullDownInnerImage@@@0@@Z ; std::_Uninitialized_move<PullDownInnerImage *,PullDownInnerImage *,std::allocator<PullDownInnerImage> >

; 758  : 			_CATCH_END
; 759  : 
; 760  : 			size_type _Size = size();

  00055	8b 0e		 mov	 ecx, DWORD PTR [esi]
  00057	8b 46 04	 mov	 eax, DWORD PTR [esi+4]
  0005a	83 c4 18	 add	 esp, 24			; 00000018H
  0005d	2b c1		 sub	 eax, ecx
  0005f	6a 1c		 push	 28			; 0000001cH
  00061	99		 cdq
  00062	5f		 pop	 edi
  00063	f7 ff		 idiv	 edi
  00065	83 4d fc ff	 or	 DWORD PTR __$EHRec$[ebp+12], -1
  00069	8b f8		 mov	 edi, eax
  0006b	85 c9		 test	 ecx, ecx
  0006d	74 12		 je	 SHORT $LN48@reserve@2

; 761  : 			if (this->_Myfirst != 0)

  0006f	eb 03		 jmp	 SHORT $LN55@reserve@2

; 762  : 				{	// destroy and deallocate old array
; 763  : 				_Destroy(this->_Myfirst, this->_Mylast);

$LL39@reserve@2:
  00071	83 c1 1c	 add	 ecx, 28			; 0000001cH
$LN55@reserve@2:
  00074	3b 4e 04	 cmp	 ecx, DWORD PTR [esi+4]
  00077	75 f8		 jne	 SHORT $LL39@reserve@2

; 764  : 				this->_Alval.deallocate(this->_Myfirst,
; 765  : 					this->_Myend - this->_Myfirst);

  00079	ff 36		 push	 DWORD PTR [esi]
  0007b	e8 00 00 00 00	 call	 ??3@YAXPAX@Z		; operator delete
  00080	59		 pop	 ecx
$LN48@reserve@2:

; 766  : 				}
; 767  : 
; 768  : 			this->_Orphan_all();

  00081	8b ce		 mov	 ecx, esi
  00083	ff 15 00 00 00
	00		 call	 DWORD PTR __imp_?_Orphan_all@_Container_base0@std@@QAEXXZ

; 769  : 			this->_Myend = _Ptr + _Count;

  00089	6b db 1c	 imul	 ebx, 28			; 0000001cH

; 770  : 			this->_Mylast = _Ptr + _Size;

  0008c	6b ff 1c	 imul	 edi, 28			; 0000001cH
  0008f	8b 45 08	 mov	 eax, DWORD PTR __Ptr$520599[ebp]
  00092	03 d8		 add	 ebx, eax
  00094	03 f8		 add	 edi, eax
  00096	89 5e 08	 mov	 DWORD PTR [esi+8], ebx
  00099	89 7e 04	 mov	 DWORD PTR [esi+4], edi

; 771  : 			this->_Myfirst = _Ptr;

  0009c	89 06		 mov	 DWORD PTR [esi], eax
$LN3@reserve@2:

; 772  : 			}
; 773  : 		}

  0009e	e8 00 00 00 00	 call	 __EH_epilog3
  000a3	c2 04 00	 ret	 4
__catch$?reserve@?$vector@UPullDownInnerImage@@V?$allocator@UPullDownInnerImage@@@std@@@std@@QAEXI@Z$0:

; 755  : 			_CATCH_ALL
; 756  : 			this->_Alval.deallocate(_Ptr, _Count);

  000a6	ff 75 08	 push	 DWORD PTR __Ptr$520599[ebp]
  000a9	e8 00 00 00 00	 call	 ??3@YAXPAX@Z		; operator delete
  000ae	59		 pop	 ecx

; 757  : 			_RERAISE;

  000af	6a 00		 push	 0
  000b1	6a 00		 push	 0
  000b3	e8 00 00 00 00	 call	 __CxxThrowException@8
$LN57@reserve@2:
$LN54@reserve@2:
  000b8	cc		 int	 3
_TEXT	ENDS
;	COMDAT text$x
text$x	SEGMENT
__ehhandler$?reserve@?$vector@UPullDownInnerImage@@V?$allocator@UPullDownInnerImage@@@std@@@std@@QAEXI@Z:
  00000	8b 54 24 08	 mov	 edx, DWORD PTR [esp+8]
  00004	8d 42 0c	 lea	 eax, DWORD PTR [edx+12]
  00007	8b 4a ec	 mov	 ecx, DWORD PTR [edx-20]
  0000a	33 c8		 xor	 ecx, eax
  0000c	e8 00 00 00 00	 call	 @__security_check_cookie@4
  00011	b8 00 00 00 00	 mov	 eax, OFFSET __ehfuncinfo$?reserve@?$vector@UPullDownInnerImage@@V?$allocator@UPullDownInnerImage@@@std@@@std@@QAEXI@Z
  00016	e9 00 00 00 00	 jmp	 ___CxxFrameHandler3
text$x	ENDS
?reserve@?$vector@UPullDownInnerImage@@V?$allocator@UPullDownInnerImage@@@std@@@std@@QAEXI@Z ENDP ; std::vector<PullDownInnerImage,std::allocator<PullDownInnerImage> >::reserve
PUBLIC	??1?$vector@UPullDownInnerImage@@V?$allocator@UPullDownInnerImage@@@std@@@std@@QAE@XZ ; std::vector<PullDownInnerImage,std::allocator<PullDownInnerImage> >::~vector<PullDownInnerImage,std::allocator<PullDownInnerImage> >
; Function compile flags: /Ogsp
;	COMDAT ??1?$vector@UPullDownInnerImage@@V?$allocator@UPullDownInnerImage@@@std@@@std@@QAE@XZ
_TEXT	SEGMENT
??1?$vector@UPullDownInnerImage@@V?$allocator@UPullDownInnerImage@@@std@@@std@@QAE@XZ PROC ; std::vector<PullDownInnerImage,std::allocator<PullDownInnerImage> >::~vector<PullDownInnerImage,std::allocator<PullDownInnerImage> >, COMDAT
; _this$ = ecx

; 705  : 		_Tidy();

  00000	e9 00 00 00 00	 jmp	 ?_Tidy@?$vector@UPullDownInnerImage@@V?$allocator@UPullDownInnerImage@@@std@@@std@@IAEXXZ ; std::vector<PullDownInnerImage,std::allocator<PullDownInnerImage> >::_Tidy
??1?$vector@UPullDownInnerImage@@V?$allocator@UPullDownInnerImage@@@std@@@std@@QAE@XZ ENDP ; std::vector<PullDownInnerImage,std::allocator<PullDownInnerImage> >::~vector<PullDownInnerImage,std::allocator<PullDownInnerImage> >
_TEXT	ENDS
PUBLIC	?clear@?$vector@UPullDownInnerImage@@V?$allocator@UPullDownInnerImage@@@std@@@std@@QAEXXZ ; std::vector<PullDownInnerImage,std::allocator<PullDownInnerImage> >::clear
; Function compile flags: /Ogsp
;	COMDAT ?clear@?$vector@UPullDownInnerImage@@V?$allocator@UPullDownInnerImage@@@std@@@std@@QAEXXZ
_TEXT	SEGMENT
$T526545 = -4						; size = 4
?clear@?$vector@UPullDownInnerImage@@V?$allocator@UPullDownInnerImage@@@std@@@std@@QAEXXZ PROC ; std::vector<PullDownInnerImage,std::allocator<PullDownInnerImage> >::clear, COMDAT
; _this$ = ecx

; 1217 : 		{	// erase all

  00000	55		 push	 ebp
  00001	8b ec		 mov	 ebp, esp
  00003	51		 push	 ecx

; 1218 : 		erase(begin(), end());

  00004	8b 41 04	 mov	 eax, DWORD PTR [ecx+4]
  00007	8b 11		 mov	 edx, DWORD PTR [ecx]
  00009	50		 push	 eax
  0000a	52		 push	 edx
  0000b	8d 45 fc	 lea	 eax, DWORD PTR $T526545[ebp]
  0000e	50		 push	 eax
  0000f	e8 00 00 00 00	 call	 ?erase@?$vector@UPullDownInnerImage@@V?$allocator@UPullDownInnerImage@@@std@@@std@@QAE?AV?$_Vector_iterator@V?$_Vector_val@UPullDownInnerImage@@V?$allocator@UPullDownInnerImage@@@std@@@std@@@2@V?$_Vector_const_iterator@V?$_Vector_val@UPullDownInnerImage@@V?$allocator@UPullDownInnerImage@@@std@@@std@@@2@0@Z ; std::vector<PullDownInnerImage,std::allocator<PullDownInnerImage> >::erase

; 1219 : 		}

  00014	c9		 leave
  00015	c3		 ret	 0
?clear@?$vector@UPullDownInnerImage@@V?$allocator@UPullDownInnerImage@@@std@@@std@@QAEXXZ ENDP ; std::vector<PullDownInnerImage,std::allocator<PullDownInnerImage> >::clear
_TEXT	ENDS
PUBLIC	?_Reserve@?$vector@UPullDownInnerImage@@V?$allocator@UPullDownInnerImage@@@std@@@std@@IAEXI@Z ; std::vector<PullDownInnerImage,std::allocator<PullDownInnerImage> >::_Reserve
; Function compile flags: /Ogsp
;	COMDAT ?_Reserve@?$vector@UPullDownInnerImage@@V?$allocator@UPullDownInnerImage@@@std@@@std@@IAEXI@Z
_TEXT	SEGMENT
__Count$ = 8						; size = 4
?_Reserve@?$vector@UPullDownInnerImage@@V?$allocator@UPullDownInnerImage@@@std@@@std@@IAEXI@Z PROC ; std::vector<PullDownInnerImage,std::allocator<PullDownInnerImage> >::_Reserve, COMDAT
; _this$ = ecx

; 1290 : 		{	// ensure room for _Count new elements, grow exponentially

  00000	55		 push	 ebp
  00001	8b ec		 mov	 ebp, esp
  00003	56		 push	 esi
  00004	8b f1		 mov	 esi, ecx

; 1291 : 		size_type _Size = size();

  00006	8b 0e		 mov	 ecx, DWORD PTR [esi]
  00008	8b 46 04	 mov	 eax, DWORD PTR [esi+4]
  0000b	2b c1		 sub	 eax, ecx
  0000d	57		 push	 edi
  0000e	99		 cdq
  0000f	6a 1c		 push	 28			; 0000001cH
  00011	5f		 pop	 edi
  00012	f7 ff		 idiv	 edi
  00014	8b f8		 mov	 edi, eax

; 1292 : 		if (max_size() - _Count < _Size)

  00016	b8 49 92 24 09	 mov	 eax, 153391689		; 09249249H
  0001b	2b 45 08	 sub	 eax, DWORD PTR __Count$[ebp]
  0001e	3b c7		 cmp	 eax, edi
  00020	73 0b		 jae	 SHORT $LN4@Reserve@2

; 1293 : 			_Xlen();

  00022	68 00 00 00 00	 push	 OFFSET ??_C@_0BD@OLBABOEK@vector?$DMT?$DO?5too?5long?$AA@
  00027	ff 15 00 00 00
	00		 call	 DWORD PTR __imp_?_Xlength_error@std@@YAXPBD@Z
$LN21@Reserve@2:
$LN4@Reserve@2:

; 1294 : 		else if ((_Size += _Count) <= capacity())

  0002d	8b 46 08	 mov	 eax, DWORD PTR [esi+8]
  00030	2b c1		 sub	 eax, ecx
  00032	6a 1c		 push	 28			; 0000001cH
  00034	99		 cdq
  00035	59		 pop	 ecx
  00036	f7 f9		 idiv	 ecx
  00038	03 7d 08	 add	 edi, DWORD PTR __Count$[ebp]
  0003b	3b f8		 cmp	 edi, eax
  0003d	76 10		 jbe	 SHORT $LN1@Reserve@2

; 1295 : 			;
; 1296 : 		else
; 1297 : 			reserve(_Grow_to(_Size));

  0003f	57		 push	 edi
  00040	8b ce		 mov	 ecx, esi
  00042	e8 00 00 00 00	 call	 ?_Grow_to@?$vector@UPullDownInnerImage@@V?$allocator@UPullDownInnerImage@@@std@@@std@@IBEII@Z ; std::vector<PullDownInnerImage,std::allocator<PullDownInnerImage> >::_Grow_to
  00047	50		 push	 eax
  00048	8b ce		 mov	 ecx, esi
  0004a	e8 00 00 00 00	 call	 ?reserve@?$vector@UPullDownInnerImage@@V?$allocator@UPullDownInnerImage@@@std@@@std@@QAEXI@Z ; std::vector<PullDownInnerImage,std::allocator<PullDownInnerImage> >::reserve
$LN1@Reserve@2:
  0004f	5f		 pop	 edi
  00050	5e		 pop	 esi

; 1298 : 		}

  00051	5d		 pop	 ebp
  00052	c2 04 00	 ret	 4
$LN20@Reserve@2:
?_Reserve@?$vector@UPullDownInnerImage@@V?$allocator@UPullDownInnerImage@@@std@@@std@@IAEXI@Z ENDP ; std::vector<PullDownInnerImage,std::allocator<PullDownInnerImage> >::_Reserve
_TEXT	ENDS
PUBLIC	??_7ioPullDownList@@6B@				; ioPullDownList::`vftable'
PUBLIC	??0ioPullDownList@@QAE@XZ			; ioPullDownList::ioPullDownList
PUBLIC	??_R4ioPullDownList@@6B@			; ioPullDownList::`RTTI Complete Object Locator'
PUBLIC	??_R0?AVioPullDownList@@@8			; ioPullDownList `RTTI Type Descriptor'
PUBLIC	??_R3ioPullDownList@@8				; ioPullDownList::`RTTI Class Hierarchy Descriptor'
PUBLIC	??_R2ioPullDownList@@8				; ioPullDownList::`RTTI Base Class Array'
PUBLIC	??_R1A@?0A@EA@ioPullDownList@@8			; ioPullDownList::`RTTI Base Class Descriptor at (0,-1,0,64)'
PUBLIC	??_R1A@?0A@EA@ioWnd@@8				; ioWnd::`RTTI Base Class Descriptor at (0,-1,0,64)'
PUBLIC	??_R3ioWnd@@8					; ioWnd::`RTTI Class Hierarchy Descriptor'
PUBLIC	??_R2ioWnd@@8					; ioWnd::`RTTI Base Class Array'
PUBLIC	?ParseExtraInfo@ioPullDownList@@UAEXAAVioXMLElement@@@Z ; ioPullDownList::ParseExtraInfo
EXTRN	__imp_??0ioWnd@@QAE@XZ:PROC
EXTRN	?AddRenderFrame@ioWnd@@UAEXABVioHashString@@PAVioUIRenderFrame@@@Z:PROC ; ioWnd::AddRenderFrame
EXTRN	?AddTooltipHelp@ioWnd@@UAEXABVioHashString@@00@Z:PROC ; ioWnd::AddTooltipHelp
EXTRN	?AddNamedRenderImage@ioWnd@@UAEXABVioHashString@@PAVioUIRenderImage@@@Z:PROC ; ioWnd::AddNamedRenderImage
EXTRN	?RemoveNamedRenderImage@ioWnd@@UAEXABVioHashString@@@Z:PROC ; ioWnd::RemoveNamedRenderImage
EXTRN	?GetNamedRenderImage@ioWnd@@UBEPAVioUIRenderImage@@ABVioHashString@@@Z:PROC ; ioWnd::GetNamedRenderImage
EXTRN	?SetWindowAlpha@ioWnd@@UAEXH@Z:PROC		; ioWnd::SetWindowAlpha
EXTRN	?SetActive@ioWnd@@UAEXXZ:PROC			; ioWnd::SetActive
EXTRN	?SetInActive@ioWnd@@UAEXXZ:PROC			; ioWnd::SetInActive
EXTRN	?ClearElementImageList@ioWnd@@UAEXXZ:PROC	; ioWnd::ClearElementImageList
EXTRN	?SetSize@ioWnd@@UAEXHH@Z:PROC			; ioWnd::SetSize
EXTRN	?SetPositionToDefault@ioWnd@@UAEXHH_N0@Z:PROC	; ioWnd::SetPositionToDefault
EXTRN	?IsNeedProcess@ioWnd@@UBE_NXZ:PROC		; ioWnd::IsNeedProcess
EXTRN	?IsCanMouseReaction@ioWnd@@UBE_NXZ:PROC		; ioWnd::IsCanMouseReaction
EXTRN	?AddChild@ioWnd@@UAEXPAV1@@Z:PROC		; ioWnd::AddChild
EXTRN	?DeleteChild@ioWnd@@UAEXK@Z:PROC		; ioWnd::DeleteChild
EXTRN	?DeleteAllChild@ioWnd@@UAEXXZ:PROC		; ioWnd::DeleteAllChild
EXTRN	?OnRenderShowAndHide@ioWnd@@MAE_NXZ:PROC	; ioWnd::OnRenderShowAndHide
EXTRN	?OnRenderShowAndHideByDefault@ioWnd@@MAE_NK@Z:PROC ; ioWnd::OnRenderShowAndHideByDefault
EXTRN	?OnRenderShowAndHideByTop@ioWnd@@MAE_NK@Z:PROC	; ioWnd::OnRenderShowAndHideByTop
EXTRN	?OnRenderShowAndHideByDown@ioWnd@@MAE_NK@Z:PROC	; ioWnd::OnRenderShowAndHideByDown
EXTRN	?OnRenderAfterChild@ioWnd@@MAEXXZ:PROC		; ioWnd::OnRenderAfterChild
EXTRN	?OnMouseProcess@ioWnd@@MAEXABVioMouse@@@Z:PROC	; ioWnd::OnMouseProcess
EXTRN	?CheckFrameReSize@ioWnd@@MAEXHHHH@Z:PROC	; ioWnd::CheckFrameReSize
EXTRN	?RenderImageList@ioWnd@@MAEXHHW4UIRenderType@@@Z:PROC ; ioWnd::RenderImageList
EXTRN	?iwm_create@ioWnd@@UAEXXZ:PROC			; ioWnd::iwm_create
EXTRN	?iwm_destroy@ioWnd@@UAEXXZ:PROC			; ioWnd::iwm_destroy
EXTRN	?iwm_lbuttondown@ioWnd@@UAEXABVioMouse@@@Z:PROC	; ioWnd::iwm_lbuttondown
EXTRN	?iwm_lbuttonup@ioWnd@@UAEXABVioMouse@@@Z:PROC	; ioWnd::iwm_lbuttonup
EXTRN	?iwm_lbuttonDBLCLK@ioWnd@@UAEXABVioMouse@@@Z:PROC ; ioWnd::iwm_lbuttonDBLCLK
EXTRN	?iwm_rbuttondown@ioWnd@@UAEXABVioMouse@@@Z:PROC	; ioWnd::iwm_rbuttondown
EXTRN	?iwm_rbuttonup@ioWnd@@UAEXABVioMouse@@@Z:PROC	; ioWnd::iwm_rbuttonup
EXTRN	?iwm_command@ioWnd@@UAEXPAV1@HK@Z:PROC		; ioWnd::iwm_command
EXTRN	?iwm_mouseover@ioWnd@@UAEXABVioMouse@@@Z:PROC	; ioWnd::iwm_mouseover
EXTRN	?iwm_mousemove@ioWnd@@UAEXABVioMouse@@@Z:PROC	; ioWnd::iwm_mousemove
EXTRN	?iwm_mouseleave@ioWnd@@UAEXABVioMouse@@@Z:PROC	; ioWnd::iwm_mouseleave
EXTRN	?iwm_esc@ioWnd@@UAE_NXZ:PROC			; ioWnd::iwm_esc
EXTRN	?iwm_spacebar@ioWnd@@UAE_NXZ:PROC		; ioWnd::iwm_spacebar
EXTRN	?iwm_gototop@ioWnd@@UAEXXZ:PROC			; ioWnd::iwm_gototop
EXTRN	?iwm_dragenter@ioWnd@@UAE?AW4IWDropEffect@@PAVioDragItem@@ABVioMouse@@@Z:PROC ; ioWnd::iwm_dragenter
EXTRN	?iwm_dragover@ioWnd@@UAE?AW4IWDropEffect@@PAVioDragItem@@ABVioMouse@@@Z:PROC ; ioWnd::iwm_dragover
EXTRN	?iwm_dragleave@ioWnd@@UAEXXZ:PROC		; ioWnd::iwm_dragleave
EXTRN	?iwm_dropitem@ioWnd@@UAE_NPAVioDragItem@@ABVioMouse@@PAV1@@Z:PROC ; ioWnd::iwm_dropitem
EXTRN	?iwm_dropdone@ioWnd@@UAEXPAVioDragItem@@PAV1@_N@Z:PROC ; ioWnd::iwm_dropdone
EXTRN	?IsEXType@ioWnd@@UBE_NXZ:PROC			; ioWnd::IsEXType
EXTRN	?GetWndType@ioWnd@@UBEKXZ:PROC			; ioWnd::GetWndType
EXTRN	?RenderWnd@ioWnd@@UAEXXZ:PROC			; ioWnd::RenderWnd
EXTRN	?SetIDEX@ioWnd@@UAEXAAK_N@Z:PROC		; ioWnd::SetIDEX
EXTRN	?ParseXML@ioWnd@@UAEXAAVioXMLElement@@@Z:PROC	; ioWnd::ParseXML
EXTRN	?GetHeaderFileName@ioWnd@@UAEPBDXZ:PROC		; ioWnd::GetHeaderFileName
EXTRN	?GetTemplateName@ioWnd@@UAEPBDXZ:PROC		; ioWnd::GetTemplateName
EXTRN	?GetDefClassName@ioWnd@@UBEPBDXZ:PROC		; ioWnd::GetDefClassName
EXTRN	?_Clone@ioWnd@@UAEPAV1@XZ:PROC			; ioWnd::_Clone
EXTRN	?Copy@ioWnd@@UAEXPAV1@@Z:PROC			; ioWnd::Copy
EXTRN	?Save@ioWnd@@UAE_NAAVioXMLElement@@@Z:PROC	; ioWnd::Save
EXTRN	?SetSaveData@ioWnd@@UAEXAAVioXMLElement@@@Z:PROC ; ioWnd::SetSaveData
EXTRN	?SetPosX@ioWnd@@UAEXH@Z:PROC			; ioWnd::SetPosX
EXTRN	?SetPosY@ioWnd@@UAEXH@Z:PROC			; ioWnd::SetPosY
EXTRN	?SetWidth@ioWnd@@UAEXH@Z:PROC			; ioWnd::SetWidth
EXTRN	?SetHeight@ioWnd@@UAEXH@Z:PROC			; ioWnd::SetHeight
EXTRN	?GetNumFixedRenderFrame@ioWnd@@UBEHXZ:PROC	; ioWnd::GetNumFixedRenderFrame
EXTRN	?GetFixedRenderFrameType@ioWnd@@UAEPBDH@Z:PROC	; ioWnd::GetFixedRenderFrameType
EXTRN	?GetRenderFrame@ioWnd@@UAEPAPAVioUIRenderElement@@PBD@Z:PROC ; ioWnd::GetRenderFrame
EXTRN	?GetNumFixedRenderImage@ioWnd@@UBEHXZ:PROC	; ioWnd::GetNumFixedRenderImage
EXTRN	?GetFixedRenderImageType@ioWnd@@UAEPBDH@Z:PROC	; ioWnd::GetFixedRenderImageType
EXTRN	?GetRenderImage@ioWnd@@UAEPAPAVioUIRenderElement@@PBD@Z:PROC ; ioWnd::GetRenderImage
EXTRN	?AddEffect@ioWnd@@UAEXABVioHashString@@PAVioUI3DEffectRender@@@Z:PROC ; ioWnd::AddEffect
EXTRN	?GetEffect@ioWnd@@UAEPAVioUI3DEffectRender@@VioHashString@@@Z:PROC ; ioWnd::GetEffect
EXTRN	??_EioPullDownList@@UAEPAXI@Z:PROC		; ioPullDownList::`vector deleting destructor'
;	COMDAT ??_R2ioWnd@@8
; File c:\program files (x86)\microsoft visual studio 10.0\vc\include\xmemory
rdata$r	SEGMENT
??_R2ioWnd@@8 DD FLAT:??_R1A@?0A@EA@ioWnd@@8		; ioWnd::`RTTI Base Class Array'
rdata$r	ENDS
;	COMDAT ??_R3ioWnd@@8
rdata$r	SEGMENT
??_R3ioWnd@@8 DD 00H					; ioWnd::`RTTI Class Hierarchy Descriptor'
	DD	00H
	DD	01H
	DD	FLAT:??_R2ioWnd@@8
rdata$r	ENDS
;	COMDAT ??_R1A@?0A@EA@ioWnd@@8
rdata$r	SEGMENT
??_R1A@?0A@EA@ioWnd@@8 DD FLAT:??_R0?AVioWnd@@@8	; ioWnd::`RTTI Base Class Descriptor at (0,-1,0,64)'
	DD	00H
	DD	00H
	DD	0ffffffffH
	DD	00H
	DD	040H
	DD	FLAT:??_R3ioWnd@@8
rdata$r	ENDS
;	COMDAT ??_R1A@?0A@EA@ioPullDownList@@8
rdata$r	SEGMENT
??_R1A@?0A@EA@ioPullDownList@@8 DD FLAT:??_R0?AVioPullDownList@@@8 ; ioPullDownList::`RTTI Base Class Descriptor at (0,-1,0,64)'
	DD	01H
	DD	00H
	DD	0ffffffffH
	DD	00H
	DD	040H
	DD	FLAT:??_R3ioPullDownList@@8
rdata$r	ENDS
;	COMDAT ??_R2ioPullDownList@@8
rdata$r	SEGMENT
??_R2ioPullDownList@@8 DD FLAT:??_R1A@?0A@EA@ioPullDownList@@8 ; ioPullDownList::`RTTI Base Class Array'
	DD	FLAT:??_R1A@?0A@EA@ioWnd@@8
rdata$r	ENDS
;	COMDAT ??_R3ioPullDownList@@8
rdata$r	SEGMENT
??_R3ioPullDownList@@8 DD 00H				; ioPullDownList::`RTTI Class Hierarchy Descriptor'
	DD	00H
	DD	02H
	DD	FLAT:??_R2ioPullDownList@@8
rdata$r	ENDS
;	COMDAT ??_R0?AVioPullDownList@@@8
_DATA	SEGMENT
??_R0?AVioPullDownList@@@8 DD FLAT:??_7type_info@@6B@	; ioPullDownList `RTTI Type Descriptor'
	DD	00H
	DB	'.?AVioPullDownList@@', 00H
_DATA	ENDS
;	COMDAT ??_R4ioPullDownList@@6B@
rdata$r	SEGMENT
??_R4ioPullDownList@@6B@ DD 00H				; ioPullDownList::`RTTI Complete Object Locator'
	DD	00H
	DD	00H
	DD	FLAT:??_R0?AVioPullDownList@@@8
	DD	FLAT:??_R3ioPullDownList@@8
rdata$r	ENDS
;	COMDAT ??_7ioPullDownList@@6B@
CONST	SEGMENT
??_7ioPullDownList@@6B@ DD FLAT:??_R4ioPullDownList@@6B@ ; ioPullDownList::`vftable'
	DD	FLAT:?AddRenderFrame@ioWnd@@UAEXABVioHashString@@PAVioUIRenderFrame@@@Z
	DD	FLAT:?AddRenderImage@ioPullDownList@@UAEXABVioHashString@@PAVioUIRenderImage@@@Z
	DD	FLAT:?AddTooltipHelp@ioWnd@@UAEXABVioHashString@@00@Z
	DD	FLAT:?ParseExtraInfo@ioPullDownList@@UAEXAAVioXMLElement@@@Z
	DD	FLAT:?AddNamedRenderImage@ioWnd@@UAEXABVioHashString@@PAVioUIRenderImage@@@Z
	DD	FLAT:?RemoveNamedRenderImage@ioWnd@@UAEXABVioHashString@@@Z
	DD	FLAT:?GetNamedRenderImage@ioWnd@@UBEPAVioUIRenderImage@@ABVioHashString@@@Z
	DD	FLAT:?SetWindowAlpha@ioWnd@@UAEXH@Z
	DD	FLAT:?SetActive@ioWnd@@UAEXXZ
	DD	FLAT:?SetInActive@ioWnd@@UAEXXZ
	DD	FLAT:?ClearElementImageList@ioWnd@@UAEXXZ
	DD	FLAT:?SetSize@ioWnd@@UAEXHH@Z
	DD	FLAT:?SetPositionToDefault@ioWnd@@UAEXHH_N0@Z
	DD	FLAT:?IsNeedProcess@ioWnd@@UBE_NXZ
	DD	FLAT:?IsCanMouseReaction@ioWnd@@UBE_NXZ
	DD	FLAT:?AddChild@ioWnd@@UAEXPAV1@@Z
	DD	FLAT:?DeleteChild@ioWnd@@UAEXK@Z
	DD	FLAT:?DeleteAllChild@ioWnd@@UAEXXZ
	DD	FLAT:?OnRenderShowAndHide@ioWnd@@MAE_NXZ
	DD	FLAT:?OnRenderShowAndHideByDefault@ioWnd@@MAE_NK@Z
	DD	FLAT:?OnRenderShowAndHideByTop@ioWnd@@MAE_NK@Z
	DD	FLAT:?OnRenderShowAndHideByDown@ioWnd@@MAE_NK@Z
	DD	FLAT:?OnRender@ioPullDownList@@MAEXXZ
	DD	FLAT:?OnRenderAfterChild@ioWnd@@MAEXXZ
	DD	FLAT:?OnProcess@ioPullDownList@@MAEXM@Z
	DD	FLAT:?OnMouseProcess@ioWnd@@MAEXABVioMouse@@@Z
	DD	FLAT:?CheckFrameReSize@ioWnd@@MAEXHHHH@Z
	DD	FLAT:?RenderImageList@ioWnd@@MAEXHHW4UIRenderType@@@Z
	DD	FLAT:?iwm_create@ioWnd@@UAEXXZ
	DD	FLAT:?iwm_destroy@ioWnd@@UAEXXZ
	DD	FLAT:?iwm_lbuttondown@ioWnd@@UAEXABVioMouse@@@Z
	DD	FLAT:?iwm_lbuttonup@ioWnd@@UAEXABVioMouse@@@Z
	DD	FLAT:?iwm_lbuttonDBLCLK@ioWnd@@UAEXABVioMouse@@@Z
	DD	FLAT:?iwm_rbuttondown@ioWnd@@UAEXABVioMouse@@@Z
	DD	FLAT:?iwm_rbuttonup@ioWnd@@UAEXABVioMouse@@@Z
	DD	FLAT:?iwm_command@ioWnd@@UAEXPAV1@HK@Z
	DD	FLAT:?iwm_mouseover@ioWnd@@UAEXABVioMouse@@@Z
	DD	FLAT:?iwm_mousemove@ioWnd@@UAEXABVioMouse@@@Z
	DD	FLAT:?iwm_mouseleave@ioWnd@@UAEXABVioMouse@@@Z
	DD	FLAT:?iwm_vscroll@ioPullDownList@@UAEXKH@Z
	DD	FLAT:?iwm_wheel@ioPullDownList@@UAEXH@Z
	DD	FLAT:?iwm_show@ioPullDownList@@UAEXXZ
	DD	FLAT:?iwm_hide@ioPullDownList@@UAEXXZ
	DD	FLAT:?iwm_esc@ioWnd@@UAE_NXZ
	DD	FLAT:?iwm_spacebar@ioWnd@@UAE_NXZ
	DD	FLAT:?iwm_gototop@ioWnd@@UAEXXZ
	DD	FLAT:?iwm_dragenter@ioWnd@@UAE?AW4IWDropEffect@@PAVioDragItem@@ABVioMouse@@@Z
	DD	FLAT:?iwm_dragover@ioWnd@@UAE?AW4IWDropEffect@@PAVioDragItem@@ABVioMouse@@@Z
	DD	FLAT:?iwm_dragleave@ioWnd@@UAEXXZ
	DD	FLAT:?iwm_dropitem@ioWnd@@UAE_NPAVioDragItem@@ABVioMouse@@PAV1@@Z
	DD	FLAT:?iwm_dropdone@ioWnd@@UAEXPAVioDragItem@@PAV1@_N@Z
	DD	FLAT:?IsEXType@ioWnd@@UBE_NXZ
	DD	FLAT:?GetWndType@ioWnd@@UBEKXZ
	DD	FLAT:?RenderWnd@ioWnd@@UAEXXZ
	DD	FLAT:?SetIDEX@ioWnd@@UAEXAAK_N@Z
	DD	FLAT:?ParseXML@ioWnd@@UAEXAAVioXMLElement@@@Z
	DD	FLAT:?GetHeaderFileName@ioWnd@@UAEPBDXZ
	DD	FLAT:?GetTemplateName@ioWnd@@UAEPBDXZ
	DD	FLAT:?GetDefClassName@ioWnd@@UBEPBDXZ
	DD	FLAT:?_Clone@ioWnd@@UAEPAV1@XZ
	DD	FLAT:?Copy@ioWnd@@UAEXPAV1@@Z
	DD	FLAT:?Save@ioWnd@@UAE_NAAVioXMLElement@@@Z
	DD	FLAT:?SetSaveData@ioWnd@@UAEXAAVioXMLElement@@@Z
	DD	FLAT:?SetPosX@ioWnd@@UAEXH@Z
	DD	FLAT:?SetPosY@ioWnd@@UAEXH@Z
	DD	FLAT:?SetWidth@ioWnd@@UAEXH@Z
	DD	FLAT:?SetHeight@ioWnd@@UAEXH@Z
	DD	FLAT:?GetNumFixedRenderFrame@ioWnd@@UBEHXZ
	DD	FLAT:?GetFixedRenderFrameType@ioWnd@@UAEPBDH@Z
	DD	FLAT:?GetRenderFrame@ioWnd@@UAEPAPAVioUIRenderElement@@PBD@Z
	DD	FLAT:?GetNumFixedRenderImage@ioWnd@@UBEHXZ
	DD	FLAT:?GetFixedRenderImageType@ioWnd@@UAEPBDH@Z
	DD	FLAT:?GetRenderImage@ioWnd@@UAEPAPAVioUIRenderElement@@PBD@Z
	DD	FLAT:?AddEffect@ioWnd@@UAEXABVioHashString@@PAVioUI3DEffectRender@@@Z
	DD	FLAT:?GetEffect@ioWnd@@UAEPAVioUI3DEffectRender@@VioHashString@@@Z
	DD	FLAT:??_EioPullDownList@@UAEPAXI@Z
	DD	FLAT:?OpenList@ioPullDownList@@UAEXPAVioWnd@@@Z
	DD	FLAT:?AddList@ioPullDownList@@UAEXPAVioPullDownItem@@@Z
; Function compile flags: /Ogsp
; File d:\lost saga for developer\youtube\tutorial\source\src\lsclient\gui\iopulldownlist.cpp
CONST	ENDS
;	COMDAT ??0ioPullDownList@@QAE@XZ
_TEXT	SEGMENT
??0ioPullDownList@@QAE@XZ PROC				; ioPullDownList::ioPullDownList, COMDAT
; _this$ = ecx

; 12   : {

  00000	56		 push	 esi
  00001	8b f1		 mov	 esi, ecx
  00003	ff 15 00 00 00
	00		 call	 DWORD PTR __imp_??0ioWnd@@QAE@XZ
  00009	33 c0		 xor	 eax, eax
  0000b	89 86 70 01 00
	00		 mov	 DWORD PTR [esi+368], eax
  00011	c7 06 00 00 00
	00		 mov	 DWORD PTR [esi], OFFSET ??_7ioPullDownList@@6B@
  00017	89 86 94 01 00
	00		 mov	 DWORD PTR [esi+404], eax
  0001d	89 86 98 01 00
	00		 mov	 DWORD PTR [esi+408], eax
  00023	89 86 9c 01 00
	00		 mov	 DWORD PTR [esi+412], eax
  00029	89 86 a4 01 00
	00		 mov	 DWORD PTR [esi+420], eax
  0002f	89 86 a8 01 00
	00		 mov	 DWORD PTR [esi+424], eax
  00035	89 86 ac 01 00
	00		 mov	 DWORD PTR [esi+428], eax

; 13   : 	m_ePullDownStyle		= PDS_DOWN;
; 14   : 
; 15   : 	m_pDarkLine				= NULL;
; 16   : 	m_pLightLine			= NULL;
; 17   : 	m_pOverLine				= NULL;
; 18   : 
; 19   : 	m_iMaxPageList			= 10;
; 20   : 	m_iBlankWidth			= 0;
; 21   : 	m_iBlankHeight			= 0;
; 22   : 	m_iListHeight			= 0;
; 23   : 
; 24   : 	m_iOverSelectIndex		= PullDownEvent::NONE_SELECT;

  0003b	83 8e 8c 01 00
	00 ff		 or	 DWORD PTR [esi+396], -1

; 25   : 	m_iImageOverIndex		= PullDownEvent::NONE_SELECT;

  00042	83 8e 90 01 00
	00 ff		 or	 DWORD PTR [esi+400], -1
  00049	89 86 60 01 00
	00		 mov	 DWORD PTR [esi+352], eax
  0004f	89 86 64 01 00
	00		 mov	 DWORD PTR [esi+356], eax
  00055	89 86 68 01 00
	00		 mov	 DWORD PTR [esi+360], eax
  0005b	89 86 6c 01 00
	00		 mov	 DWORD PTR [esi+364], eax
  00061	89 86 74 01 00
	00		 mov	 DWORD PTR [esi+372], eax
  00067	89 86 78 01 00
	00		 mov	 DWORD PTR [esi+376], eax
  0006d	89 86 7c 01 00
	00		 mov	 DWORD PTR [esi+380], eax

; 26   : 	m_iCurPos				= 0;

  00073	89 86 88 01 00
	00		 mov	 DWORD PTR [esi+392], eax
  00079	c7 86 80 01 00
	00 0a 00 00 00	 mov	 DWORD PTR [esi+384], 10	; 0000000aH

; 27   : }

  00083	8b c6		 mov	 eax, esi
  00085	5e		 pop	 esi
  00086	c3		 ret	 0
??0ioPullDownList@@QAE@XZ ENDP				; ioPullDownList::ioPullDownList
_TEXT	ENDS
PUBLIC	?DestroyPullDownImage@ioPullDownList@@IAEXXZ	; ioPullDownList::DestroyPullDownImage
; Function compile flags: /Ogsp
;	COMDAT ?DestroyPullDownImage@ioPullDownList@@IAEXXZ
_TEXT	SEGMENT
$T526831 = -4						; size = 4
?DestroyPullDownImage@ioPullDownList@@IAEXXZ PROC	; ioPullDownList::DestroyPullDownImage, COMDAT
; _this$ = ecx

; 50   : {

  00000	55		 push	 ebp
  00001	8b ec		 mov	 ebp, esp
  00003	51		 push	 ecx
  00004	53		 push	 ebx
  00005	56		 push	 esi
  00006	8b d9		 mov	 ebx, ecx

; 51   : 	for( vPullDownInnerImage::iterator iter = m_vImageList.begin(); iter != m_vImageList.end(); ++iter )

  00008	8b b3 a4 01 00
	00		 mov	 esi, DWORD PTR [ebx+420]
  0000e	57		 push	 edi
  0000f	eb 19		 jmp	 SHORT $LN61@DestroyPul@2
$LL21@DestroyPul@2:

; 52   : 	{
; 53   : 		PullDownInnerImage& rkImage = *iter;
; 54   : 		if( !rkImage.m_pImage )

  00011	8b 0e		 mov	 ecx, DWORD PTR [esi]
  00013	85 c9		 test	 ecx, ecx
  00015	74 10		 je	 SHORT $LN5@DestroyPul@2

; 55   : 			continue;
; 56   : 
; 57   : 		if( !rkImage.m_bManagedImageByItem )

  00017	80 7e 0c 00	 cmp	 BYTE PTR [esi+12], 0
  0001b	75 0a		 jne	 SHORT $LN5@DestroyPul@2

; 58   : 		{
; 59   : 			SAFEDELETE( rkImage.m_pImage );			

  0001d	8b 01		 mov	 eax, DWORD PTR [ecx]
  0001f	6a 01		 push	 1
  00021	ff 50 40	 call	 DWORD PTR [eax+64]
  00024	83 26 00	 and	 DWORD PTR [esi], 0
$LN5@DestroyPul@2:

; 51   : 	for( vPullDownInnerImage::iterator iter = m_vImageList.begin(); iter != m_vImageList.end(); ++iter )

  00027	83 c6 1c	 add	 esi, 28			; 0000001cH
$LN61@DestroyPul@2:
  0002a	3b b3 a8 01 00
	00		 cmp	 esi, DWORD PTR [ebx+424]
  00030	75 df		 jne	 SHORT $LL21@DestroyPul@2

; 60   : 		}
; 61   : 	}
; 62   : 	m_vImageList.clear();

  00032	8b 83 a8 01 00
	00		 mov	 eax, DWORD PTR [ebx+424]
  00038	8b 8b a4 01 00
	00		 mov	 ecx, DWORD PTR [ebx+420]
  0003e	50		 push	 eax
  0003f	51		 push	 ecx
  00040	8d 45 fc	 lea	 eax, DWORD PTR $T526831[ebp]
  00043	50		 push	 eax
  00044	8d 8b a4 01 00
	00		 lea	 ecx, DWORD PTR [ebx+420]
  0004a	e8 00 00 00 00	 call	 ?erase@?$vector@UPullDownInnerImage@@V?$allocator@UPullDownInnerImage@@@std@@@std@@QAE?AV?$_Vector_iterator@V?$_Vector_val@UPullDownInnerImage@@V?$allocator@UPullDownInnerImage@@@std@@@std@@@2@V?$_Vector_const_iterator@V?$_Vector_val@UPullDownInnerImage@@V?$allocator@UPullDownInnerImage@@@std@@@std@@@2@0@Z ; std::vector<PullDownInnerImage,std::allocator<PullDownInnerImage> >::erase
  0004f	5f		 pop	 edi
  00050	5e		 pop	 esi
  00051	5b		 pop	 ebx

; 63   : }

  00052	c9		 leave
  00053	c3		 ret	 0
?DestroyPullDownImage@ioPullDownList@@IAEXXZ ENDP	; ioPullDownList::DestroyPullDownImage
_TEXT	ENDS
PUBLIC	?push_back@?$vector@UPullDownInnerImage@@V?$allocator@UPullDownInnerImage@@@std@@@std@@QAEXABUPullDownInnerImage@@@Z ; std::vector<PullDownInnerImage,std::allocator<PullDownInnerImage> >::push_back
; Function compile flags: /Ogsp
; File c:\program files (x86)\microsoft visual studio 10.0\vc\include\vector
;	COMDAT ?push_back@?$vector@UPullDownInnerImage@@V?$allocator@UPullDownInnerImage@@@std@@@std@@QAEXABUPullDownInnerImage@@@Z
_TEXT	SEGMENT
__Val$ = 8						; size = 4
?push_back@?$vector@UPullDownInnerImage@@V?$allocator@UPullDownInnerImage@@@std@@@std@@QAEXABUPullDownInnerImage@@@Z PROC ; std::vector<PullDownInnerImage,std::allocator<PullDownInnerImage> >::push_back, COMDAT
; _this$ = ecx

; 976  : 		{	// insert element at end

  00000	55		 push	 ebp
  00001	8b ec		 mov	 ebp, esp
  00003	56		 push	 esi
  00004	8b f1		 mov	 esi, ecx

; 977  : 		if (_Inside(_STD addressof(_Val)))

  00006	8b 4e 04	 mov	 ecx, DWORD PTR [esi+4]
  00009	57		 push	 edi
  0000a	8b 7d 08	 mov	 edi, DWORD PTR __Val$[ebp]
  0000d	3b f9		 cmp	 edi, ecx
  0000f	73 34		 jae	 SHORT $LN4@push_back@2
  00011	8b 16		 mov	 edx, DWORD PTR [esi]
  00013	3b d7		 cmp	 edx, edi
  00015	77 2e		 ja	 SHORT $LN4@push_back@2

; 978  : 			{	// push back an element
; 979  : 			size_type _Idx = _STD addressof(_Val) - this->_Myfirst;

  00017	8b c7		 mov	 eax, edi
  00019	2b c2		 sub	 eax, edx
  0001b	6a 1c		 push	 28			; 0000001cH
  0001d	99		 cdq
  0001e	5f		 pop	 edi
  0001f	f7 ff		 idiv	 edi
  00021	8b f8		 mov	 edi, eax

; 980  : 			if (this->_Mylast == this->_Myend)

  00023	3b 4e 08	 cmp	 ecx, DWORD PTR [esi+8]
  00026	75 09		 jne	 SHORT $LN3@push_back@2

; 981  : 				_Reserve(1);

  00028	6a 01		 push	 1
  0002a	8b ce		 mov	 ecx, esi
  0002c	e8 00 00 00 00	 call	 ?_Reserve@?$vector@UPullDownInnerImage@@V?$allocator@UPullDownInnerImage@@@std@@@std@@IAEXI@Z ; std::vector<PullDownInnerImage,std::allocator<PullDownInnerImage> >::_Reserve
$LN3@push_back@2:

; 982  : 			_Orphan_range(this->_Mylast, this->_Mylast);
; 983  : 			_Cons_val(this->_Alval,
; 984  : 				this->_Mylast,
; 985  : 				this->_Myfirst[_Idx]);

  00031	6b ff 1c	 imul	 edi, 28			; 0000001cH
  00034	03 3e		 add	 edi, DWORD PTR [esi]
  00036	8d 46 0c	 lea	 eax, DWORD PTR [esi+12]
  00039	57		 push	 edi
  0003a	ff 76 04	 push	 DWORD PTR [esi+4]
  0003d	50		 push	 eax
  0003e	e8 00 00 00 00	 call	 ??$_Cons_val@V?$allocator@UPullDownInnerImage@@@std@@UPullDownInnerImage@@AAU3@@std@@YAXAAV?$allocator@UPullDownInnerImage@@@0@PAUPullDownInnerImage@@AAU2@@Z ; std::_Cons_val<std::allocator<PullDownInnerImage>,PullDownInnerImage,PullDownInnerImage &>

; 986  : 			++this->_Mylast;
; 987  : 			}
; 988  : 		else

  00043	eb 1b		 jmp	 SHORT $LN20@push_back@2
$LN4@push_back@2:

; 989  : 			{	// push back a non-element
; 990  : 			if (this->_Mylast == this->_Myend)

  00045	3b 4e 08	 cmp	 ecx, DWORD PTR [esi+8]
  00048	75 09		 jne	 SHORT $LN1@push_back@2

; 991  : 				_Reserve(1);

  0004a	6a 01		 push	 1
  0004c	8b ce		 mov	 ecx, esi
  0004e	e8 00 00 00 00	 call	 ?_Reserve@?$vector@UPullDownInnerImage@@V?$allocator@UPullDownInnerImage@@@std@@@std@@IAEXI@Z ; std::vector<PullDownInnerImage,std::allocator<PullDownInnerImage> >::_Reserve
$LN1@push_back@2:

; 992  : 			_Orphan_range(this->_Mylast, this->_Mylast);
; 993  : 			_Cons_val(this->_Alval,
; 994  : 				this->_Mylast,
; 995  : 				_Val);

  00053	57		 push	 edi
  00054	ff 76 04	 push	 DWORD PTR [esi+4]
  00057	8d 46 0c	 lea	 eax, DWORD PTR [esi+12]
  0005a	50		 push	 eax
  0005b	e8 00 00 00 00	 call	 ??$_Cons_val@V?$allocator@UPullDownInnerImage@@@std@@UPullDownInnerImage@@ABU3@@std@@YAXAAV?$allocator@UPullDownInnerImage@@@0@PAUPullDownInnerImage@@ABU2@@Z ; std::_Cons_val<std::allocator<PullDownInnerImage>,PullDownInnerImage,PullDownInnerImage const &>
$LN20@push_back@2:
  00060	83 c4 0c	 add	 esp, 12			; 0000000cH

; 996  : 			++this->_Mylast;

  00063	83 46 04 1c	 add	 DWORD PTR [esi+4], 28	; 0000001cH
  00067	5f		 pop	 edi
  00068	5e		 pop	 esi

; 997  : 			}
; 998  : 		}

  00069	5d		 pop	 ebp
  0006a	c2 04 00	 ret	 4
?push_back@?$vector@UPullDownInnerImage@@V?$allocator@UPullDownInnerImage@@@std@@@std@@QAEXABUPullDownInnerImage@@@Z ENDP ; std::vector<PullDownInnerImage,std::allocator<PullDownInnerImage> >::push_back
_TEXT	ENDS
PUBLIC	??1ioPullDownList@@UAE@XZ			; ioPullDownList::~ioPullDownList
EXTRN	__imp_??1ioWnd@@UAE@XZ:PROC
;	COMDAT xdata$x
xdata$x	SEGMENT
__unwindtable$??1ioPullDownList@@UAE@XZ DD 0ffffffffH
	DD	FLAT:__unwindfunclet$??1ioPullDownList@@UAE@XZ$0
	DD	00H
	DD	FLAT:__unwindfunclet$??1ioPullDownList@@UAE@XZ$1
	DD	01H
	DD	FLAT:__unwindfunclet$??1ioPullDownList@@UAE@XZ$2
__ehfuncinfo$??1ioPullDownList@@UAE@XZ DD 019930522H
	DD	03H
	DD	FLAT:__unwindtable$??1ioPullDownList@@UAE@XZ
	DD	2 DUP(00H)
	DD	2 DUP(00H)
	DD	00H
	DD	01H
; Function compile flags: /Ogsp
; File d:\lost saga for developer\youtube\tutorial\source\src\lsclient\gui\iopulldownlist.cpp
xdata$x	ENDS
;	COMDAT ??1ioPullDownList@@UAE@XZ
_TEXT	SEGMENT
_this$ = -16						; size = 4
__$EHRec$ = -12						; size = 12
??1ioPullDownList@@UAE@XZ PROC				; ioPullDownList::~ioPullDownList, COMDAT
; _this$ = ecx

; 30   : {

  00000	6a 04		 push	 4
  00002	b8 00 00 00 00	 mov	 eax, __ehhandler$??1ioPullDownList@@UAE@XZ
  00007	e8 00 00 00 00	 call	 __EH_prolog3
  0000c	8b f1		 mov	 esi, ecx
  0000e	89 75 f0	 mov	 DWORD PTR _this$[ebp], esi
  00011	c7 06 00 00 00
	00		 mov	 DWORD PTR [esi], OFFSET ??_7ioPullDownList@@6B@

; 31   : 	SAFEDELETE( m_pDarkLine	);

  00017	8b 8e 64 01 00
	00		 mov	 ecx, DWORD PTR [esi+356]
  0001d	c7 45 fc 02 00
	00 00		 mov	 DWORD PTR __$EHRec$[ebp+8], 2
  00024	85 c9		 test	 ecx, ecx
  00026	74 0e		 je	 SHORT $LN3@ioPullDown
  00028	8b 01		 mov	 eax, DWORD PTR [ecx]
  0002a	6a 01		 push	 1
  0002c	ff 50 40	 call	 DWORD PTR [eax+64]
  0002f	83 a6 64 01 00
	00 00		 and	 DWORD PTR [esi+356], 0
$LN3@ioPullDown:

; 32   : 	SAFEDELETE( m_pLightLine );

  00036	8b 8e 68 01 00
	00		 mov	 ecx, DWORD PTR [esi+360]
  0003c	85 c9		 test	 ecx, ecx
  0003e	74 0e		 je	 SHORT $LN2@ioPullDown
  00040	8b 01		 mov	 eax, DWORD PTR [ecx]
  00042	6a 01		 push	 1
  00044	ff 50 40	 call	 DWORD PTR [eax+64]
  00047	83 a6 68 01 00
	00 00		 and	 DWORD PTR [esi+360], 0
$LN2@ioPullDown:

; 33   : 	SAFEDELETE( m_pOverLine	);

  0004e	8b 8e 6c 01 00
	00		 mov	 ecx, DWORD PTR [esi+364]
  00054	85 c9		 test	 ecx, ecx
  00056	74 0e		 je	 SHORT $LN1@ioPullDown
  00058	8b 01		 mov	 eax, DWORD PTR [ecx]
  0005a	6a 01		 push	 1
  0005c	ff 50 40	 call	 DWORD PTR [eax+64]
  0005f	83 a6 6c 01 00
	00 00		 and	 DWORD PTR [esi+364], 0
$LN1@ioPullDown:

; 34   : 
; 35   : 	DestroyPullDown();

  00066	8b ce		 mov	 ecx, esi
  00068	e8 00 00 00 00	 call	 ?DestroyPullDown@ioPullDownList@@IAEXXZ ; ioPullDownList::DestroyPullDown

; 36   : 	DestroyPullDownImage();

  0006d	8b ce		 mov	 ecx, esi
  0006f	e8 00 00 00 00	 call	 ?DestroyPullDownImage@ioPullDownList@@IAEXXZ ; ioPullDownList::DestroyPullDownImage

; 37   : }

  00074	8d 8e a4 01 00
	00		 lea	 ecx, DWORD PTR [esi+420]
  0007a	c6 45 fc 01	 mov	 BYTE PTR __$EHRec$[ebp+8], 1
  0007e	e8 00 00 00 00	 call	 ?_Tidy@?$vector@UPullDownInnerImage@@V?$allocator@UPullDownInnerImage@@@std@@@std@@IAEXXZ ; std::vector<PullDownInnerImage,std::allocator<PullDownInnerImage> >::_Tidy
  00083	8d 8e 94 01 00
	00		 lea	 ecx, DWORD PTR [esi+404]
  00089	c6 45 fc 00	 mov	 BYTE PTR __$EHRec$[ebp+8], 0
  0008d	e8 00 00 00 00	 call	 ?_Tidy@?$vector@PAVioPullDownItem@@V?$allocator@PAVioPullDownItem@@@std@@@std@@IAEXXZ ; std::vector<ioPullDownItem *,std::allocator<ioPullDownItem *> >::_Tidy
  00092	83 4d fc ff	 or	 DWORD PTR __$EHRec$[ebp+8], -1
  00096	8b ce		 mov	 ecx, esi
  00098	ff 15 00 00 00
	00		 call	 DWORD PTR __imp_??1ioWnd@@UAE@XZ
  0009e	e8 00 00 00 00	 call	 __EH_epilog3
  000a3	c3		 ret	 0
_TEXT	ENDS
;	COMDAT text$x
text$x	SEGMENT
__unwindfunclet$??1ioPullDownList@@UAE@XZ$0:
  00000	8b 4d f0	 mov	 ecx, DWORD PTR _this$[ebp]
  00003	ff 25 00 00 00
	00		 jmp	 DWORD PTR __imp_??1ioWnd@@UAE@XZ
__unwindfunclet$??1ioPullDownList@@UAE@XZ$1:
  00009	8b 4d f0	 mov	 ecx, DWORD PTR _this$[ebp]
  0000c	81 c1 94 01 00
	00		 add	 ecx, 404		; 00000194H
  00012	e9 00 00 00 00	 jmp	 ??1?$vector@PAVioPullDownItem@@V?$allocator@PAVioPullDownItem@@@std@@@std@@QAE@XZ ; std::vector<ioPullDownItem *,std::allocator<ioPullDownItem *> >::~vector<ioPullDownItem *,std::allocator<ioPullDownItem *> >
__unwindfunclet$??1ioPullDownList@@UAE@XZ$2:
  00017	8b 4d f0	 mov	 ecx, DWORD PTR _this$[ebp]
  0001a	81 c1 a4 01 00
	00		 add	 ecx, 420		; 000001a4H
  00020	e9 00 00 00 00	 jmp	 ??1?$vector@UPullDownInnerImage@@V?$allocator@UPullDownInnerImage@@@std@@@std@@QAE@XZ ; std::vector<PullDownInnerImage,std::allocator<PullDownInnerImage> >::~vector<PullDownInnerImage,std::allocator<PullDownInnerImage> >
__ehhandler$??1ioPullDownList@@UAE@XZ:
  00025	8b 54 24 08	 mov	 edx, DWORD PTR [esp+8]
  00029	8d 42 0c	 lea	 eax, DWORD PTR [edx+12]
  0002c	8b 4a ec	 mov	 ecx, DWORD PTR [edx-20]
  0002f	33 c8		 xor	 ecx, eax
  00031	e8 00 00 00 00	 call	 @__security_check_cookie@4
  00036	b8 00 00 00 00	 mov	 eax, OFFSET __ehfuncinfo$??1ioPullDownList@@UAE@XZ
  0003b	e9 00 00 00 00	 jmp	 ___CxxFrameHandler3
text$x	ENDS
??1ioPullDownList@@UAE@XZ ENDP				; ioPullDownList::~ioPullDownList
PUBLIC	??_C@_0L@ELNPKPJC@RenderType?$AA@		; `string'
PUBLIC	??_C@_09KOFNFJKK@OverColor?$AA@			; `string'
PUBLIC	??_C@_05PDOBBJNA@Color?$AA@			; `string'
PUBLIC	??_C@_01NFFPALBN@Y?$AA@				; `string'
PUBLIC	??_C@_01MMEEDKFM@X?$AA@				; `string'
PUBLIC	??_C@_04FABLJDN@Name?$AA@			; `string'
PUBLIC	?ParseImage@ioPullDownList@@QAEXAAVioXMLElement@@@Z ; ioPullDownList::ParseImage
EXTRN	__imp_?ParseRenderType@ioStringConverter@@SA?AW4UIRenderType@@ABVioHashString@@@Z:PROC
EXTRN	__imp_?ParseColor@ioStringConverter@@SAKABVioHashString@@@Z:PROC
EXTRN	__imp_??1ioHashString@@QAE@XZ:PROC
EXTRN	__imp_?CreateImageByFullName@ioUIImageSetManager@@QAEPAVioUIRenderImage@@ABVioHashString@@_N@Z:PROC
EXTRN	__imp_?GetSingleton@ioUIImageSetManager@@SAAAV1@XZ:PROC
EXTRN	__imp_??0ioHashString@@QAE@PBD@Z:PROC
EXTRN	__imp_?GetStringAttribute@ioXMLElement@@QBEPBDPBD@Z:PROC
;	COMDAT ??_C@_0L@ELNPKPJC@RenderType?$AA@
; File d:\lost saga for developer\youtube\tutorial\source\src\lsclient\gui\iopulldownitemfactory.h
CONST	SEGMENT
??_C@_0L@ELNPKPJC@RenderType?$AA@ DB 'RenderType', 00H	; `string'
CONST	ENDS
;	COMDAT ??_C@_09KOFNFJKK@OverColor?$AA@
CONST	SEGMENT
??_C@_09KOFNFJKK@OverColor?$AA@ DB 'OverColor', 00H	; `string'
CONST	ENDS
;	COMDAT ??_C@_05PDOBBJNA@Color?$AA@
CONST	SEGMENT
??_C@_05PDOBBJNA@Color?$AA@ DB 'Color', 00H		; `string'
CONST	ENDS
;	COMDAT ??_C@_01NFFPALBN@Y?$AA@
CONST	SEGMENT
??_C@_01NFFPALBN@Y?$AA@ DB 'Y', 00H			; `string'
CONST	ENDS
;	COMDAT ??_C@_01MMEEDKFM@X?$AA@
CONST	SEGMENT
??_C@_01MMEEDKFM@X?$AA@ DB 'X', 00H			; `string'
CONST	ENDS
;	COMDAT ??_C@_04FABLJDN@Name?$AA@
CONST	SEGMENT
??_C@_04FABLJDN@Name?$AA@ DB 'Name', 00H		; `string'
CONST	ENDS
;	COMDAT xdata$x
xdata$x	SEGMENT
__unwindtable$?ParseImage@ioPullDownList@@QAEXAAVioXMLElement@@@Z DD 0ffffffffH
	DD	FLAT:__unwindfunclet$?ParseImage@ioPullDownList@@QAEXAAVioXMLElement@@@Z$0
	DD	0ffffffffH
	DD	FLAT:__unwindfunclet$?ParseImage@ioPullDownList@@QAEXAAVioXMLElement@@@Z$1
	DD	0ffffffffH
	DD	FLAT:__unwindfunclet$?ParseImage@ioPullDownList@@QAEXAAVioXMLElement@@@Z$2
	DD	0ffffffffH
	DD	FLAT:__unwindfunclet$?ParseImage@ioPullDownList@@QAEXAAVioXMLElement@@@Z$3
__ehfuncinfo$?ParseImage@ioPullDownList@@QAEXAAVioXMLElement@@@Z DD 019930522H
	DD	04H
	DD	FLAT:__unwindtable$?ParseImage@ioPullDownList@@QAEXAAVioXMLElement@@@Z
	DD	2 DUP(00H)
	DD	2 DUP(00H)
	DD	00H
	DD	01H
; Function compile flags: /Ogsp
; File d:\lost saga for developer\youtube\tutorial\source\src\lsclient\gui\iopulldownlist.cpp
xdata$x	ENDS
;	COMDAT ?ParseImage@ioPullDownList@@QAEXAAVioXMLElement@@@Z
_TEXT	SEGMENT
_ImageSet$ = -76					; size = 28
$T526920 = -48						; size = 16
$T526919 = -32						; size = 16
$T526918 = -32						; size = 16
$T526917 = -32						; size = 16
_this$ = -16						; size = 4
__$EHRec$ = -12						; size = 12
_xElement$ = 8						; size = 4
?ParseImage@ioPullDownList@@QAEXAAVioXMLElement@@@Z PROC ; ioPullDownList::ParseImage, COMDAT
; _this$ = ecx

; 111  : {

  00000	6a 40		 push	 64			; 00000040H
  00002	b8 00 00 00 00	 mov	 eax, __ehhandler$?ParseImage@ioPullDownList@@QAEXAAVioXMLElement@@@Z
  00007	e8 00 00 00 00	 call	 __EH_prolog3
  0000c	89 4d f0	 mov	 DWORD PTR _this$[ebp], ecx

; 112  : 	//풀다운 아이템에 등록될 이미지 정보
; 113  : 	PullDownInnerImage ImageSet;
; 114  : 	ImageSet.m_pImage				= g_UIImageSetMgr.CreateImageByFullName( xElement.GetStringAttribute( "Name" ) );

  0000f	8b 4d 08	 mov	 ecx, DWORD PTR _xElement$[ebp]
  00012	8b 35 00 00 00
	00		 mov	 esi, DWORD PTR __imp_?GetStringAttribute@ioXMLElement@@QBEPBDPBD@Z
  00018	68 00 00 00 00	 push	 OFFSET ??_C@_04FABLJDN@Name?$AA@
  0001d	ff d6		 call	 esi
  0001f	8b 3d 00 00 00
	00		 mov	 edi, DWORD PTR __imp_??0ioHashString@@QAE@PBD@Z
  00025	50		 push	 eax
  00026	8d 4d e0	 lea	 ecx, DWORD PTR $T526917[ebp]
  00029	ff d7		 call	 edi
  0002b	83 65 fc 00	 and	 DWORD PTR __$EHRec$[ebp+8], 0
  0002f	8d 45 e0	 lea	 eax, DWORD PTR $T526917[ebp]
  00032	6a 00		 push	 0
  00034	50		 push	 eax
  00035	ff 15 00 00 00
	00		 call	 DWORD PTR __imp_?GetSingleton@ioUIImageSetManager@@SAAAV1@XZ
  0003b	8b c8		 mov	 ecx, eax
  0003d	ff 15 00 00 00
	00		 call	 DWORD PTR __imp_?CreateImageByFullName@ioUIImageSetManager@@QAEPAVioUIRenderImage@@ABVioHashString@@_N@Z
  00043	8b 1d 00 00 00
	00		 mov	 ebx, DWORD PTR __imp_??1ioHashString@@QAE@XZ
  00049	83 4d fc ff	 or	 DWORD PTR __$EHRec$[ebp+8], -1
  0004d	8d 4d e0	 lea	 ecx, DWORD PTR $T526917[ebp]
  00050	89 45 b4	 mov	 DWORD PTR _ImageSet$[ebp], eax
  00053	ff d3		 call	 ebx

; 115  : 	ImageSet.m_iXPos				= xElement.GetIntAttribute( "X" );

  00055	8b 4d 08	 mov	 ecx, DWORD PTR _xElement$[ebp]
  00058	68 00 00 00 00	 push	 OFFSET ??_C@_01MMEEDKFM@X?$AA@
  0005d	ff 15 00 00 00
	00		 call	 DWORD PTR __imp_?GetIntAttribute@ioXMLElement@@QBEHPBD@Z

; 116  : 	ImageSet.m_iYPos				= xElement.GetIntAttribute( "Y" );

  00063	8b 4d 08	 mov	 ecx, DWORD PTR _xElement$[ebp]
  00066	68 00 00 00 00	 push	 OFFSET ??_C@_01NFFPALBN@Y?$AA@
  0006b	89 45 c8	 mov	 DWORD PTR _ImageSet$[ebp+20], eax
  0006e	ff 15 00 00 00
	00		 call	 DWORD PTR __imp_?GetIntAttribute@ioXMLElement@@QBEHPBD@Z

; 117  : 	ImageSet.m_dwColor				= ioStringConverter::ParseColor( xElement.GetStringAttribute( "Color" ) );

  00074	8b 4d 08	 mov	 ecx, DWORD PTR _xElement$[ebp]
  00077	68 00 00 00 00	 push	 OFFSET ??_C@_05PDOBBJNA@Color?$AA@
  0007c	89 45 cc	 mov	 DWORD PTR _ImageSet$[ebp+24], eax
  0007f	ff d6		 call	 esi
  00081	50		 push	 eax
  00082	8d 4d e0	 lea	 ecx, DWORD PTR $T526918[ebp]
  00085	ff d7		 call	 edi
  00087	8d 45 e0	 lea	 eax, DWORD PTR $T526918[ebp]
  0008a	50		 push	 eax
  0008b	c7 45 fc 01 00
	00 00		 mov	 DWORD PTR __$EHRec$[ebp+8], 1
  00092	ff 15 00 00 00
	00		 call	 DWORD PTR __imp_?ParseColor@ioStringConverter@@SAKABVioHashString@@@Z
  00098	83 4d fc ff	 or	 DWORD PTR __$EHRec$[ebp+8], -1
  0009c	59		 pop	 ecx
  0009d	8d 4d e0	 lea	 ecx, DWORD PTR $T526918[ebp]
  000a0	89 45 b8	 mov	 DWORD PTR _ImageSet$[ebp+4], eax
  000a3	ff d3		 call	 ebx

; 118  : 	ImageSet.m_dwOverColor			= ioStringConverter::ParseColor( xElement.GetStringAttribute( "OverColor" ) );

  000a5	8b 4d 08	 mov	 ecx, DWORD PTR _xElement$[ebp]
  000a8	68 00 00 00 00	 push	 OFFSET ??_C@_09KOFNFJKK@OverColor?$AA@
  000ad	ff d6		 call	 esi
  000af	50		 push	 eax
  000b0	8d 4d e0	 lea	 ecx, DWORD PTR $T526919[ebp]
  000b3	ff d7		 call	 edi
  000b5	8d 45 e0	 lea	 eax, DWORD PTR $T526919[ebp]
  000b8	50		 push	 eax
  000b9	c7 45 fc 02 00
	00 00		 mov	 DWORD PTR __$EHRec$[ebp+8], 2
  000c0	ff 15 00 00 00
	00		 call	 DWORD PTR __imp_?ParseColor@ioStringConverter@@SAKABVioHashString@@@Z
  000c6	83 4d fc ff	 or	 DWORD PTR __$EHRec$[ebp+8], -1
  000ca	59		 pop	 ecx
  000cb	8d 4d e0	 lea	 ecx, DWORD PTR $T526919[ebp]
  000ce	89 45 bc	 mov	 DWORD PTR _ImageSet$[ebp+8], eax
  000d1	ff d3		 call	 ebx

; 119  : 	ImageSet.m_eRenderType			= ioStringConverter::ParseRenderType( xElement.GetStringAttribute( "RenderType" ) );

  000d3	8b 4d 08	 mov	 ecx, DWORD PTR _xElement$[ebp]
  000d6	68 00 00 00 00	 push	 OFFSET ??_C@_0L@ELNPKPJC@RenderType?$AA@
  000db	ff d6		 call	 esi
  000dd	50		 push	 eax
  000de	8d 4d d0	 lea	 ecx, DWORD PTR $T526920[ebp]
  000e1	ff d7		 call	 edi
  000e3	8d 45 d0	 lea	 eax, DWORD PTR $T526920[ebp]
  000e6	50		 push	 eax
  000e7	c7 45 fc 03 00
	00 00		 mov	 DWORD PTR __$EHRec$[ebp+8], 3
  000ee	ff 15 00 00 00
	00		 call	 DWORD PTR __imp_?ParseRenderType@ioStringConverter@@SA?AW4UIRenderType@@ABVioHashString@@@Z
  000f4	83 4d fc ff	 or	 DWORD PTR __$EHRec$[ebp+8], -1
  000f8	59		 pop	 ecx
  000f9	8d 4d d0	 lea	 ecx, DWORD PTR $T526920[ebp]
  000fc	89 45 c4	 mov	 DWORD PTR _ImageSet$[ebp+16], eax
  000ff	ff d3		 call	 ebx

; 120  : 	ImageSet.m_bManagedImageByItem	= false;
; 121  : 
; 122  : 	m_vImageList.push_back( ImageSet );

  00101	8b 4d f0	 mov	 ecx, DWORD PTR _this$[ebp]
  00104	8d 45 b4	 lea	 eax, DWORD PTR _ImageSet$[ebp]
  00107	c6 45 c0 00	 mov	 BYTE PTR _ImageSet$[ebp+12], 0
  0010b	50		 push	 eax
  0010c	81 c1 a4 01 00
	00		 add	 ecx, 420		; 000001a4H
  00112	e8 00 00 00 00	 call	 ?push_back@?$vector@UPullDownInnerImage@@V?$allocator@UPullDownInnerImage@@@std@@@std@@QAEXABUPullDownInnerImage@@@Z ; std::vector<PullDownInnerImage,std::allocator<PullDownInnerImage> >::push_back

; 123  : }

  00117	e8 00 00 00 00	 call	 __EH_epilog3
  0011c	c2 04 00	 ret	 4
_TEXT	ENDS
;	COMDAT text$x
text$x	SEGMENT
__unwindfunclet$?ParseImage@ioPullDownList@@QAEXAAVioXMLElement@@@Z$0:
  00000	8d 4d e0	 lea	 ecx, DWORD PTR $T526917[ebp]
  00003	ff 25 00 00 00
	00		 jmp	 DWORD PTR __imp_??1ioHashString@@QAE@XZ
__unwindfunclet$?ParseImage@ioPullDownList@@QAEXAAVioXMLElement@@@Z$1:
  00009	8d 4d e0	 lea	 ecx, DWORD PTR $T526918[ebp]
  0000c	ff 25 00 00 00
	00		 jmp	 DWORD PTR __imp_??1ioHashString@@QAE@XZ
__unwindfunclet$?ParseImage@ioPullDownList@@QAEXAAVioXMLElement@@@Z$2:
  00012	8d 4d e0	 lea	 ecx, DWORD PTR $T526919[ebp]
  00015	ff 25 00 00 00
	00		 jmp	 DWORD PTR __imp_??1ioHashString@@QAE@XZ
__unwindfunclet$?ParseImage@ioPullDownList@@QAEXAAVioXMLElement@@@Z$3:
  0001b	8d 4d d0	 lea	 ecx, DWORD PTR $T526920[ebp]
  0001e	ff 25 00 00 00
	00		 jmp	 DWORD PTR __imp_??1ioHashString@@QAE@XZ
__ehhandler$?ParseImage@ioPullDownList@@QAEXAAVioXMLElement@@@Z:
  00024	8b 54 24 08	 mov	 edx, DWORD PTR [esp+8]
  00028	8d 42 0c	 lea	 eax, DWORD PTR [edx+12]
  0002b	8b 4a b0	 mov	 ecx, DWORD PTR [edx-80]
  0002e	33 c8		 xor	 ecx, eax
  00030	e8 00 00 00 00	 call	 @__security_check_cookie@4
  00035	b8 00 00 00 00	 mov	 eax, OFFSET __ehfuncinfo$?ParseImage@ioPullDownList@@QAEXAAVioXMLElement@@@Z
  0003a	e9 00 00 00 00	 jmp	 ___CxxFrameHandler3
text$x	ENDS
?ParseImage@ioPullDownList@@QAEXAAVioXMLElement@@@Z ENDP ; ioPullDownList::ParseImage
; Function compile flags: /Ogsp
;	COMDAT ??_GioPullDownList@@UAEPAXI@Z
_TEXT	SEGMENT
___flags$ = 8						; size = 4
??_GioPullDownList@@UAEPAXI@Z PROC			; ioPullDownList::`scalar deleting destructor', COMDAT
; _this$ = ecx
  00000	55		 push	 ebp
  00001	8b ec		 mov	 ebp, esp
  00003	56		 push	 esi
  00004	8b f1		 mov	 esi, ecx
  00006	e8 00 00 00 00	 call	 ??1ioPullDownList@@UAE@XZ ; ioPullDownList::~ioPullDownList
  0000b	f6 45 08 01	 test	 BYTE PTR ___flags$[ebp], 1
  0000f	74 07		 je	 SHORT $LN1@scalar@6
  00011	56		 push	 esi
  00012	e8 00 00 00 00	 call	 ??3@YAXPAX@Z		; operator delete
  00017	59		 pop	 ecx
$LN1@scalar@6:
  00018	8b c6		 mov	 eax, esi
  0001a	5e		 pop	 esi
  0001b	5d		 pop	 ebp
  0001c	c2 04 00	 ret	 4
??_GioPullDownList@@UAEPAXI@Z ENDP			; ioPullDownList::`scalar deleting destructor'
_TEXT	ENDS
PUBLIC	??_C@_05NBEAGECF@Image?$AA@			; `string'
PUBLIC	_this$GSCopy$
PUBLIC	?ParsePullDownItem@ioPullDownList@@QAEXAAVioXMLElement@@@Z ; ioPullDownList::ParsePullDownItem
EXTRN	__imp_??1ioXMLElement@@UAE@XZ:PROC
EXTRN	__imp_?NextSibling@ioXMLElement@@QAE?AV1@XZ:PROC
EXTRN	__imp_?GetTagName@ioXMLElement@@QAEPBDXZ:PROC
EXTRN	__imp_?IsEmpty@ioXMLElement@@QBE_NXZ:PROC
EXTRN	__imp_?FirstChild@ioXMLElement@@QAE?AV1@XZ:PROC
EXTRN	__EH_epilog3_GS:PROC
EXTRN	__EH_prolog3_GS:PROC
;	COMDAT ??_C@_05NBEAGECF@Image?$AA@
CONST	SEGMENT
??_C@_05NBEAGECF@Image?$AA@ DB 'Image', 00H		; `string'
CONST	ENDS
;	COMDAT xdata$x
xdata$x	SEGMENT
__unwindtable$?ParsePullDownItem@ioPullDownList@@QAEXAAVioXMLElement@@@Z DD 0ffffffffH
	DD	FLAT:__unwindfunclet$?ParsePullDownItem@ioPullDownList@@QAEXAAVioXMLElement@@@Z$0
__ehfuncinfo$?ParsePullDownItem@ioPullDownList@@QAEXAAVioXMLElement@@@Z DD 019930522H
	DD	01H
	DD	FLAT:__unwindtable$?ParsePullDownItem@ioPullDownList@@QAEXAAVioXMLElement@@@Z
	DD	2 DUP(00H)
	DD	2 DUP(00H)
	DD	00H
	DD	01H
; Function compile flags: /Ogsp
xdata$x	ENDS
;	COMDAT ?ParsePullDownItem@ioPullDownList@@QAEXAAVioXMLElement@@@Z
_TEXT	SEGMENT
_this$GSCopy$ = -564					; size = 4
$T519675 = -560						; size = 272
_elem$ = -288						; size = 272
__$EHRec$ = -12						; size = 12
_xElement$ = 8						; size = 4
?ParsePullDownItem@ioPullDownList@@QAEXAAVioXMLElement@@@Z PROC ; ioPullDownList::ParsePullDownItem, COMDAT
; _this$ = ecx

; 97   : {

  00000	68 28 02 00 00	 push	 552			; 00000228H
  00005	b8 00 00 00 00	 mov	 eax, __ehhandler$?ParsePullDownItem@ioPullDownList@@QAEXAAVioXMLElement@@@Z
  0000a	e8 00 00 00 00	 call	 __EH_prolog3_GS

; 98   : 	ioXMLElement elem = xElement.FirstChild();

  0000f	8d 85 e0 fe ff
	ff		 lea	 eax, DWORD PTR _elem$[ebp]
  00015	89 8d cc fd ff
	ff		 mov	 DWORD PTR _this$GSCopy$[ebp], ecx
  0001b	8b 4d 08	 mov	 ecx, DWORD PTR _xElement$[ebp]
  0001e	50		 push	 eax
  0001f	ff 15 00 00 00
	00		 call	 DWORD PTR __imp_?FirstChild@ioXMLElement@@QAE?AV1@XZ
  00025	83 65 fc 00	 and	 DWORD PTR __$EHRec$[ebp+8], 0

; 99   : 	while ( !elem.IsEmpty() )

  00029	8b 1d 00 00 00
	00		 mov	 ebx, DWORD PTR __imp_?IsEmpty@ioXMLElement@@QBE_NXZ
  0002f	eb 6f		 jmp	 SHORT $LN20@ParsePullD
$LL3@ParsePullD:

; 100  : 	{
; 101  : 		if( strcmp( elem.GetTagName(), "Image" ) == 0 )

  00031	bf 00 00 00 00	 mov	 edi, OFFSET ??_C@_05NBEAGECF@Image?$AA@
  00036	ff 15 00 00 00
	00		 call	 DWORD PTR __imp_?GetTagName@ioXMLElement@@QAEPBDXZ
  0003c	8b f0		 mov	 esi, eax
  0003e	6a 06		 push	 6
  00040	59		 pop	 ecx
  00041	33 c0		 xor	 eax, eax
  00043	f3 a6		 repe cmpsb
  00045	75 12		 jne	 SHORT $LN1@ParsePullD

; 102  : 		{
; 103  : 			ParseImage( elem );

  00047	8b 8d cc fd ff
	ff		 mov	 ecx, DWORD PTR _this$GSCopy$[ebp]
  0004d	8d 85 e0 fe ff
	ff		 lea	 eax, DWORD PTR _elem$[ebp]
  00053	50		 push	 eax
  00054	e8 00 00 00 00	 call	 ?ParseImage@ioPullDownList@@QAEXAAVioXMLElement@@@Z ; ioPullDownList::ParseImage
$LN1@ParsePullD:

; 104  : 		}
; 105  : 
; 106  : 		elem = elem.NextSibling();

  00059	8d 85 d0 fd ff
	ff		 lea	 eax, DWORD PTR $T519675[ebp]
  0005f	50		 push	 eax
  00060	8d 8d e0 fe ff
	ff		 lea	 ecx, DWORD PTR _elem$[ebp]
  00066	ff 15 00 00 00
	00		 call	 DWORD PTR __imp_?NextSibling@ioXMLElement@@QAE?AV1@XZ
  0006c	8b 48 04	 mov	 ecx, DWORD PTR [eax+4]
  0006f	89 8d e4 fe ff
	ff		 mov	 DWORD PTR _elem$[ebp+4], ecx
  00075	8a 48 08	 mov	 cl, BYTE PTR [eax+8]
  00078	88 8d e8 fe ff
	ff		 mov	 BYTE PTR _elem$[ebp+8], cl
  0007e	33 f6		 xor	 esi, esi
$LL10@ParsePullD:
  00080	8a 4c 30 09	 mov	 cl, BYTE PTR [eax+esi+9]
  00084	88 8c 35 e9 fe
	ff ff		 mov	 BYTE PTR _elem$[ebp+esi+9], cl
  0008b	46		 inc	 esi
  0008c	81 fe 04 01 00
	00		 cmp	 esi, 260		; 00000104H
  00092	72 ec		 jb	 SHORT $LL10@ParsePullD
  00094	8d 8d d0 fd ff
	ff		 lea	 ecx, DWORD PTR $T519675[ebp]
  0009a	ff 15 00 00 00
	00		 call	 DWORD PTR __imp_??1ioXMLElement@@UAE@XZ
$LN20@ParsePullD:

; 99   : 	while ( !elem.IsEmpty() )

  000a0	8d 8d e0 fe ff
	ff		 lea	 ecx, DWORD PTR _elem$[ebp]
  000a6	ff d3		 call	 ebx

; 107  : 	}
; 108  : }

  000a8	8d 8d e0 fe ff
	ff		 lea	 ecx, DWORD PTR _elem$[ebp]
  000ae	84 c0		 test	 al, al
  000b0	0f 84 7b ff ff
	ff		 je	 $LL3@ParsePullD
  000b6	83 4d fc ff	 or	 DWORD PTR __$EHRec$[ebp+8], -1
  000ba	ff 15 00 00 00
	00		 call	 DWORD PTR __imp_??1ioXMLElement@@UAE@XZ
  000c0	e8 00 00 00 00	 call	 __EH_epilog3_GS
  000c5	c2 04 00	 ret	 4
_TEXT	ENDS
;	COMDAT text$x
text$x	SEGMENT
__unwindfunclet$?ParsePullDownItem@ioPullDownList@@QAEXAAVioXMLElement@@@Z$0:
  00000	8d 8d e0 fe ff
	ff		 lea	 ecx, DWORD PTR _elem$[ebp]
  00006	ff 25 00 00 00
	00		 jmp	 DWORD PTR __imp_??1ioXMLElement@@UAE@XZ
__ehhandler$?ParsePullDownItem@ioPullDownList@@QAEXAAVioXMLElement@@@Z:
  0000c	8b 54 24 08	 mov	 edx, DWORD PTR [esp+8]
  00010	8d 42 0c	 lea	 eax, DWORD PTR [edx+12]
  00013	8b 8a c8 fd ff
	ff		 mov	 ecx, DWORD PTR [edx-568]
  00019	33 c8		 xor	 ecx, eax
  0001b	e8 00 00 00 00	 call	 @__security_check_cookie@4
  00020	8b 4a fc	 mov	 ecx, DWORD PTR [edx-4]
  00023	33 c8		 xor	 ecx, eax
  00025	e8 00 00 00 00	 call	 @__security_check_cookie@4
  0002a	b8 00 00 00 00	 mov	 eax, OFFSET __ehfuncinfo$?ParsePullDownItem@ioPullDownList@@QAEXAAVioXMLElement@@@Z
  0002f	e9 00 00 00 00	 jmp	 ___CxxFrameHandler3
text$x	ENDS
?ParsePullDownItem@ioPullDownList@@QAEXAAVioXMLElement@@@Z ENDP ; ioPullDownList::ParsePullDownItem
PUBLIC	??_C@_0BE@DHLOGJEO@PowerUpPullDownItem?$AA@	; `string'
PUBLIC	??_C@_0N@GKIIOJKI@PullDownItem?$AA@		; `string'
PUBLIC	??_C@_08NIMCPNED@PullDown?$AA@			; `string'
PUBLIC	_this$GSCopy$
EXTRN	?SetMenuList@ioPowerUpManager@@QAEXAAVioXMLElement@@@Z:PROC ; ioPowerUpManager::SetMenuList
EXTRN	?GetSingleton@ioPowerUpManager@@SAAAV1@XZ:PROC	; ioPowerUpManager::GetSingleton
;	COMDAT ??_C@_0BE@DHLOGJEO@PowerUpPullDownItem?$AA@
CONST	SEGMENT
??_C@_0BE@DHLOGJEO@PowerUpPullDownItem?$AA@ DB 'PowerUpPullDownItem', 00H ; `string'
CONST	ENDS
;	COMDAT ??_C@_0N@GKIIOJKI@PullDownItem?$AA@
CONST	SEGMENT
??_C@_0N@GKIIOJKI@PullDownItem?$AA@ DB 'PullDownItem', 00H ; `string'
CONST	ENDS
;	COMDAT ??_C@_08NIMCPNED@PullDown?$AA@
CONST	SEGMENT
??_C@_08NIMCPNED@PullDown?$AA@ DB 'PullDown', 00H	; `string'
CONST	ENDS
;	COMDAT xdata$x
xdata$x	SEGMENT
__unwindtable$?ParseExtraInfo@ioPullDownList@@UAEXAAVioXMLElement@@@Z DD 0ffffffffH
	DD	FLAT:__unwindfunclet$?ParseExtraInfo@ioPullDownList@@UAEXAAVioXMLElement@@@Z$0
__ehfuncinfo$?ParseExtraInfo@ioPullDownList@@UAEXAAVioXMLElement@@@Z DD 019930522H
	DD	01H
	DD	FLAT:__unwindtable$?ParseExtraInfo@ioPullDownList@@UAEXAAVioXMLElement@@@Z
	DD	2 DUP(00H)
	DD	2 DUP(00H)
	DD	00H
	DD	01H
; Function compile flags: /Ogsp
xdata$x	ENDS
;	COMDAT ?ParseExtraInfo@ioPullDownList@@UAEXAAVioXMLElement@@@Z
_TEXT	SEGMENT
_this$GSCopy$ = -564					; size = 4
$T519646 = -560						; size = 272
_elem$ = -288						; size = 272
__$EHRec$ = -12						; size = 12
_xElement$ = 8						; size = 4
?ParseExtraInfo@ioPullDownList@@UAEXAAVioXMLElement@@@Z PROC ; ioPullDownList::ParseExtraInfo, COMDAT
; _this$ = ecx

; 66   : {	

  00000	68 28 02 00 00	 push	 552			; 00000228H
  00005	b8 00 00 00 00	 mov	 eax, __ehhandler$?ParseExtraInfo@ioPullDownList@@UAEXAAVioXMLElement@@@Z
  0000a	e8 00 00 00 00	 call	 __EH_prolog3_GS

; 67   : 	ioXMLElement elem = xElement.FirstChild();

  0000f	8d 85 e0 fe ff
	ff		 lea	 eax, DWORD PTR _elem$[ebp]
  00015	89 8d cc fd ff
	ff		 mov	 DWORD PTR _this$GSCopy$[ebp], ecx
  0001b	8b 4d 08	 mov	 ecx, DWORD PTR _xElement$[ebp]
  0001e	50		 push	 eax
  0001f	ff 15 00 00 00
	00		 call	 DWORD PTR __imp_?FirstChild@ioXMLElement@@QAE?AV1@XZ
  00025	83 65 fc 00	 and	 DWORD PTR __$EHRec$[ebp+8], 0

; 68   : 	while ( !elem.IsEmpty() )

  00029	8b 1d 00 00 00
	00		 mov	 ebx, DWORD PTR __imp_?IsEmpty@ioXMLElement@@QBE_NXZ
  0002f	e9 d0 00 00 00	 jmp	 $LN26@ParseExtra
$LL7@ParseExtra:

; 69   : 	{
; 70   : 		if( strcmp( elem.GetTagName(), "PullDown" ) == 0 )

  00034	bf 00 00 00 00	 mov	 edi, OFFSET ??_C@_08NIMCPNED@PullDown?$AA@
  00039	ff 15 00 00 00
	00		 call	 DWORD PTR __imp_?GetTagName@ioXMLElement@@QAEPBDXZ
  0003f	8b f0		 mov	 esi, eax
  00041	6a 09		 push	 9
  00043	59		 pop	 ecx
  00044	33 c0		 xor	 eax, eax
  00046	f3 a6		 repe cmpsb
  00048	75 14		 jne	 SHORT $LN5@ParseExtra

; 71   : 		{
; 72   : 			ParsePullDown( elem );

  0004a	8b 8d cc fd ff
	ff		 mov	 ecx, DWORD PTR _this$GSCopy$[ebp]
  00050	8d 85 e0 fe ff
	ff		 lea	 eax, DWORD PTR _elem$[ebp]
  00056	50		 push	 eax
  00057	e8 00 00 00 00	 call	 ?ParsePullDown@ioPullDownList@@QAEXAAVioXMLElement@@@Z ; ioPullDownList::ParsePullDown
  0005c	eb 5f		 jmp	 SHORT $LN1@ParseExtra
$LN5@ParseExtra:

; 73   : 		}
; 74   : 		else if( strcmp( elem.GetTagName(), "PullDownItem" ) == 0 )

  0005e	8d 8d e0 fe ff
	ff		 lea	 ecx, DWORD PTR _elem$[ebp]
  00064	bf 00 00 00 00	 mov	 edi, OFFSET ??_C@_0N@GKIIOJKI@PullDownItem?$AA@
  00069	ff 15 00 00 00
	00		 call	 DWORD PTR __imp_?GetTagName@ioXMLElement@@QAEPBDXZ
  0006f	8b f0		 mov	 esi, eax
  00071	6a 0d		 push	 13			; 0000000dH
  00073	59		 pop	 ecx
  00074	33 c0		 xor	 eax, eax
  00076	f3 a6		 repe cmpsb
  00078	75 14		 jne	 SHORT $LN3@ParseExtra

; 75   : 		{
; 76   : 			ParsePullDownItem( elem );

  0007a	8b 8d cc fd ff
	ff		 mov	 ecx, DWORD PTR _this$GSCopy$[ebp]
  00080	8d 85 e0 fe ff
	ff		 lea	 eax, DWORD PTR _elem$[ebp]
  00086	50		 push	 eax
  00087	e8 00 00 00 00	 call	 ?ParsePullDownItem@ioPullDownList@@QAEXAAVioXMLElement@@@Z ; ioPullDownList::ParsePullDownItem
  0008c	eb 2f		 jmp	 SHORT $LN1@ParseExtra
$LN3@ParseExtra:

; 77   : 		}
; 78   : 		else if( strcmp( elem.GetTagName(), "PowerUpPullDownItem" ) == 0 )

  0008e	8d 8d e0 fe ff
	ff		 lea	 ecx, DWORD PTR _elem$[ebp]
  00094	bf 00 00 00 00	 mov	 edi, OFFSET ??_C@_0BE@DHLOGJEO@PowerUpPullDownItem?$AA@
  00099	ff 15 00 00 00
	00		 call	 DWORD PTR __imp_?GetTagName@ioXMLElement@@QAEPBDXZ
  0009f	8b f0		 mov	 esi, eax
  000a1	6a 14		 push	 20			; 00000014H
  000a3	59		 pop	 ecx
  000a4	33 c0		 xor	 eax, eax
  000a6	f3 a6		 repe cmpsb
  000a8	75 13		 jne	 SHORT $LN1@ParseExtra

; 79   : 		{
; 80   : 			g_PowerUpManager.SetMenuList( elem );

  000aa	8d 85 e0 fe ff
	ff		 lea	 eax, DWORD PTR _elem$[ebp]
  000b0	50		 push	 eax
  000b1	e8 00 00 00 00	 call	 ?GetSingleton@ioPowerUpManager@@SAAAV1@XZ ; ioPowerUpManager::GetSingleton
  000b6	8b c8		 mov	 ecx, eax
  000b8	e8 00 00 00 00	 call	 ?SetMenuList@ioPowerUpManager@@QAEXAAVioXMLElement@@@Z ; ioPowerUpManager::SetMenuList
$LN1@ParseExtra:

; 81   : 		}
; 82   : 
; 83   : 		elem = elem.NextSibling();

  000bd	8d 85 d0 fd ff
	ff		 lea	 eax, DWORD PTR $T519646[ebp]
  000c3	50		 push	 eax
  000c4	8d 8d e0 fe ff
	ff		 lea	 ecx, DWORD PTR _elem$[ebp]
  000ca	ff 15 00 00 00
	00		 call	 DWORD PTR __imp_?NextSibling@ioXMLElement@@QAE?AV1@XZ
  000d0	8b 48 04	 mov	 ecx, DWORD PTR [eax+4]
  000d3	89 8d e4 fe ff
	ff		 mov	 DWORD PTR _elem$[ebp+4], ecx
  000d9	8a 48 08	 mov	 cl, BYTE PTR [eax+8]
  000dc	88 8d e8 fe ff
	ff		 mov	 BYTE PTR _elem$[ebp+8], cl
  000e2	33 c9		 xor	 ecx, ecx
$LL14@ParseExtra:
  000e4	8a 54 08 09	 mov	 dl, BYTE PTR [eax+ecx+9]
  000e8	88 94 0d e9 fe
	ff ff		 mov	 BYTE PTR _elem$[ebp+ecx+9], dl
  000ef	41		 inc	 ecx
  000f0	81 f9 04 01 00
	00		 cmp	 ecx, 260		; 00000104H
  000f6	72 ec		 jb	 SHORT $LL14@ParseExtra
  000f8	8d 8d d0 fd ff
	ff		 lea	 ecx, DWORD PTR $T519646[ebp]
  000fe	ff 15 00 00 00
	00		 call	 DWORD PTR __imp_??1ioXMLElement@@UAE@XZ
$LN26@ParseExtra:

; 68   : 	while ( !elem.IsEmpty() )

  00104	8d 8d e0 fe ff
	ff		 lea	 ecx, DWORD PTR _elem$[ebp]
  0010a	ff d3		 call	 ebx

; 84   : 	}
; 85   : }

  0010c	8d 8d e0 fe ff
	ff		 lea	 ecx, DWORD PTR _elem$[ebp]
  00112	84 c0		 test	 al, al
  00114	0f 84 1a ff ff
	ff		 je	 $LL7@ParseExtra
  0011a	83 4d fc ff	 or	 DWORD PTR __$EHRec$[ebp+8], -1
  0011e	ff 15 00 00 00
	00		 call	 DWORD PTR __imp_??1ioXMLElement@@UAE@XZ
  00124	e8 00 00 00 00	 call	 __EH_epilog3_GS
  00129	c2 04 00	 ret	 4
_TEXT	ENDS
;	COMDAT text$x
text$x	SEGMENT
__unwindfunclet$?ParseExtraInfo@ioPullDownList@@UAEXAAVioXMLElement@@@Z$0:
  00000	8d 8d e0 fe ff
	ff		 lea	 ecx, DWORD PTR _elem$[ebp]
  00006	ff 25 00 00 00
	00		 jmp	 DWORD PTR __imp_??1ioXMLElement@@UAE@XZ
__ehhandler$?ParseExtraInfo@ioPullDownList@@UAEXAAVioXMLElement@@@Z:
  0000c	8b 54 24 08	 mov	 edx, DWORD PTR [esp+8]
  00010	8d 42 0c	 lea	 eax, DWORD PTR [edx+12]
  00013	8b 8a c8 fd ff
	ff		 mov	 ecx, DWORD PTR [edx-568]
  00019	33 c8		 xor	 ecx, eax
  0001b	e8 00 00 00 00	 call	 @__security_check_cookie@4
  00020	8b 4a fc	 mov	 ecx, DWORD PTR [edx-4]
  00023	33 c8		 xor	 ecx, eax
  00025	e8 00 00 00 00	 call	 @__security_check_cookie@4
  0002a	b8 00 00 00 00	 mov	 eax, OFFSET __ehfuncinfo$?ParseExtraInfo@ioPullDownList@@UAEXAAVioXMLElement@@@Z
  0002f	e9 00 00 00 00	 jmp	 ___CxxFrameHandler3
text$x	ENDS
?ParseExtraInfo@ioPullDownList@@UAEXAAVioXMLElement@@@Z ENDP ; ioPullDownList::ParseExtraInfo
END
