; Listing generated by Microsoft (R) Optimizing Compiler Version 16.00.30319.01 

	TITLE	D:\Lost Saga For Developer\Youtube\Tutorial\Source\src\LSClient\GUI\ioPullDownItemFactory.cpp
	.686P
	.XMM
	include listing.inc
	.model	flat

INCLUDELIB MSVCRT
INCLUDELIB OLDNAMES

PUBLIC	?ms_Singleton@?$Singleton@VioPullDownItemFactory@@@@1PAVioPullDownItemFactory@@A ; Singleton<ioPullDownItemFactory>::ms_Singleton
;	COMDAT ?ms_Singleton@?$Singleton@VioPullDownItemFactory@@@@1PAVioPullDownItemFactory@@A
_BSS	SEGMENT
?ms_Singleton@?$Singleton@VioPullDownItemFactory@@@@1PAVioPullDownItemFactory@@A DD 01H DUP (?) ; Singleton<ioPullDownItemFactory>::ms_Singleton
_BSS	ENDS
PUBLIC	??_C@_0BH@GGCFILHE@?$CFs?5?9?5Unkown?5style?5?3?5?$CFd?$AA@ ; `string'
PUBLIC	??_C@_0BJ@DMLOBKHL@?$CFs?5?9?5pPullDown?5?$DN?$DN?5NULL?$CB?$CB?$AA@ ; `string'
PUBLIC	??_C@_0CH@HCMFHIOM@ioPullDownItemFactory?3?3SetSelect@ ; `string'
PUBLIC	?SetSelectLayout@ioPullDownItemFactory@@QAEHPAVioPullDownItem@@W4PullDownStyle@@HHHH@Z ; ioPullDownItemFactory::SetSelectLayout
EXTRN	__imp_?PrintTimeAndLog@CLog@@QAAXHPADZZ:PROC
EXTRN	__imp_?LOG@@3VCLog@@A:BYTE
;	COMDAT ??_C@_0BH@GGCFILHE@?$CFs?5?9?5Unkown?5style?5?3?5?$CFd?$AA@
; File d:\lost saga for developer\youtube\tutorial\source\src\lsclient\gui\iopulldownitemfactory.cpp
CONST	SEGMENT
??_C@_0BH@GGCFILHE@?$CFs?5?9?5Unkown?5style?5?3?5?$CFd?$AA@ DB '%s - Unko'
	DB	'wn style : %d', 00H				; `string'
CONST	ENDS
;	COMDAT ??_C@_0BJ@DMLOBKHL@?$CFs?5?9?5pPullDown?5?$DN?$DN?5NULL?$CB?$CB?$AA@
CONST	SEGMENT
??_C@_0BJ@DMLOBKHL@?$CFs?5?9?5pPullDown?5?$DN?$DN?5NULL?$CB?$CB?$AA@ DB '%'
	DB	's - pPullDown == NULL!!', 00H		; `string'
CONST	ENDS
;	COMDAT ??_C@_0CH@HCMFHIOM@ioPullDownItemFactory?3?3SetSelect@
CONST	SEGMENT
??_C@_0CH@HCMFHIOM@ioPullDownItemFactory?3?3SetSelect@ DB 'ioPullDownItem'
	DB	'Factory::SetSelectLayout', 00H		; `string'
; Function compile flags: /Ogsp
CONST	ENDS
;	COMDAT ?SetSelectLayout@ioPullDownItemFactory@@QAEHPAVioPullDownItem@@W4PullDownStyle@@HHHH@Z
_TEXT	SEGMENT
_pPullDown$ = 8						; size = 4
_eStyle$ = 12						; size = 4
_iXPos$ = 16						; size = 4
_iYPos$ = 20						; size = 4
_iWidth$ = 24						; size = 4
_iHeight$ = 28						; size = 4
?SetSelectLayout@ioPullDownItemFactory@@QAEHPAVioPullDownItem@@W4PullDownStyle@@HHHH@Z PROC ; ioPullDownItemFactory::SetSelectLayout, COMDAT
; _this$ = ecx

; 122  : {

  00000	55		 push	 ebp
  00001	8b ec		 mov	 ebp, esp

; 123  : 	if( !pPullDown )

  00003	8b 4d 08	 mov	 ecx, DWORD PTR _pPullDown$[ebp]
  00006	33 d2		 xor	 edx, edx
  00008	3b ca		 cmp	 ecx, edx
  0000a	75 1e		 jne	 SHORT $LN6@SetSelectL

; 124  : 	{
; 125  : 		LOG.PrintTimeAndLog( 0, "%s - pPullDown == NULL!!", __FUNCTION__ );

  0000c	68 00 00 00 00	 push	 OFFSET ??_C@_0CH@HCMFHIOM@ioPullDownItemFactory?3?3SetSelect@
  00011	68 00 00 00 00	 push	 OFFSET ??_C@_0BJ@DMLOBKHL@?$CFs?5?9?5pPullDown?5?$DN?$DN?5NULL?$CB?$CB?$AA@
  00016	52		 push	 edx
  00017	ff 35 00 00 00
	00		 push	 DWORD PTR __imp_?LOG@@3VCLog@@A
  0001d	ff 15 00 00 00
	00		 call	 DWORD PTR __imp_?PrintTimeAndLog@CLog@@QAAXHPADZZ
  00023	83 c4 10	 add	 esp, 16			; 00000010H

; 126  : 		return 0;

  00026	33 c0		 xor	 eax, eax
  00028	eb 7e		 jmp	 SHORT $LN7@SetSelectL
$LN6@SetSelectL:

; 127  : 	}
; 128  : 
; 129  : 	switch( eStyle )

  0002a	8b 45 0c	 mov	 eax, DWORD PTR _eStyle$[ebp]
  0002d	2b c2		 sub	 eax, edx
  0002f	56		 push	 esi
  00030	57		 push	 edi
  00031	74 4e		 je	 SHORT $LN3@SetSelectL
  00033	48		 dec	 eax
  00034	74 21		 je	 SHORT $LN2@SetSelectL

; 149  : 		}
; 150  : 		break;
; 151  : 	default:
; 152  : 		{
; 153  : 			LOG.PrintTimeAndLog(0, "%s - Unkown style : %d", __FUNCTION__, static_cast<int>( eStyle ) );

  00036	ff 75 0c	 push	 DWORD PTR _eStyle$[ebp]
  00039	68 00 00 00 00	 push	 OFFSET ??_C@_0CH@HCMFHIOM@ioPullDownItemFactory?3?3SetSelect@
  0003e	68 00 00 00 00	 push	 OFFSET ??_C@_0BH@GGCFILHE@?$CFs?5?9?5Unkown?5style?5?3?5?$CFd?$AA@
  00043	52		 push	 edx
  00044	ff 35 00 00 00
	00		 push	 DWORD PTR __imp_?LOG@@3VCLog@@A
  0004a	ff 15 00 00 00
	00		 call	 DWORD PTR __imp_?PrintTimeAndLog@CLog@@QAAXHPADZZ
  00050	83 c4 14	 add	 esp, 20			; 00000014H

; 154  : 		}
; 155  : 		break;
; 156  : 	}
; 157  : 
; 158  : 	return 0;

  00053	33 c0		 xor	 eax, eax
  00055	eb 4f		 jmp	 SHORT $LN9@SetSelectL
$LN2@SetSelectL:

; 137  : 
; 138  : 			return pPullDown->m_SelectRect.bottom;
; 139  : 		}
; 140  : 		break;
; 141  : 	case PDS_UP:
; 142  : 		{
; 143  : 			pPullDown->m_SelectRect.left	= iXPos + pPullDown->m_iBlankWidth;

  00057	8b 71 10	 mov	 esi, DWORD PTR [ecx+16]
  0005a	8b 55 10	 mov	 edx, DWORD PTR _iXPos$[ebp]

; 144  : 			pPullDown->m_SelectRect.top		= iYPos - iHeight - pPullDown->m_iBlankHeight;

  0005d	8b 7d 1c	 mov	 edi, DWORD PTR _iHeight$[ebp]
  00060	8d 04 16	 lea	 eax, DWORD PTR [esi+edx]
  00063	89 41 18	 mov	 DWORD PTR [ecx+24], eax
  00066	8b 45 14	 mov	 eax, DWORD PTR _iYPos$[ebp]
  00069	2b 41 14	 sub	 eax, DWORD PTR [ecx+20]

; 145  : 			pPullDown->m_SelectRect.right	= iXPos + iWidth - pPullDown->m_iBlankWidth;

  0006c	2b d6		 sub	 edx, esi
  0006e	2b c7		 sub	 eax, edi
  00070	03 55 18	 add	 edx, DWORD PTR _iWidth$[ebp]
  00073	89 41 1c	 mov	 DWORD PTR [ecx+28], eax
  00076	89 51 20	 mov	 DWORD PTR [ecx+32], edx

; 146  : 			pPullDown->m_SelectRect.bottom	= pPullDown->m_SelectRect.top + iHeight;

  00079	8d 14 38	 lea	 edx, DWORD PTR [eax+edi]
  0007c	89 51 24	 mov	 DWORD PTR [ecx+36], edx

; 147  : 
; 148  : 			return pPullDown->m_SelectRect.top;

  0007f	eb 25		 jmp	 SHORT $LN9@SetSelectL
$LN3@SetSelectL:

; 130  : 	{
; 131  : 	case PDS_DOWN:
; 132  : 		{
; 133  : 			pPullDown->m_SelectRect.left	= iXPos + pPullDown->m_iBlankWidth;

  00081	8b 71 10	 mov	 esi, DWORD PTR [ecx+16]
  00084	8b 45 10	 mov	 eax, DWORD PTR _iXPos$[ebp]
  00087	8d 14 06	 lea	 edx, DWORD PTR [esi+eax]

; 134  : 			pPullDown->m_SelectRect.top		= iYPos + pPullDown->m_iBlankHeight;
; 135  : 			pPullDown->m_SelectRect.right	= iXPos + iWidth - pPullDown->m_iBlankWidth;

  0008a	2b c6		 sub	 eax, esi
  0008c	03 45 18	 add	 eax, DWORD PTR _iWidth$[ebp]
  0008f	89 51 18	 mov	 DWORD PTR [ecx+24], edx
  00092	8b 51 14	 mov	 edx, DWORD PTR [ecx+20]
  00095	03 55 14	 add	 edx, DWORD PTR _iYPos$[ebp]
  00098	89 41 20	 mov	 DWORD PTR [ecx+32], eax

; 136  : 			pPullDown->m_SelectRect.bottom	= pPullDown->m_SelectRect.top + iHeight;

  0009b	8b 45 1c	 mov	 eax, DWORD PTR _iHeight$[ebp]
  0009e	03 c2		 add	 eax, edx
  000a0	89 51 1c	 mov	 DWORD PTR [ecx+28], edx
  000a3	89 41 24	 mov	 DWORD PTR [ecx+36], eax
$LN9@SetSelectL:
  000a6	5f		 pop	 edi
  000a7	5e		 pop	 esi
$LN7@SetSelectL:

; 159  : }

  000a8	5d		 pop	 ebp
  000a9	c2 18 00	 ret	 24			; 00000018H
?SetSelectLayout@ioPullDownItemFactory@@QAEHPAVioPullDownItem@@W4PullDownStyle@@HHHH@Z ENDP ; ioPullDownItemFactory::SetSelectLayout
_TEXT	ENDS
PUBLIC	??0?$Singleton@VioPullDownItemFactory@@@@QAE@XZ	; Singleton<ioPullDownItemFactory>::Singleton<ioPullDownItemFactory>
; Function compile flags: /Ogsp
; File d:\lost saga for developer\youtube\tutorial\source\src\io3dengine\iosingleton.h
;	COMDAT ??0?$Singleton@VioPullDownItemFactory@@@@QAE@XZ
_TEXT	SEGMENT
??0?$Singleton@VioPullDownItemFactory@@@@QAE@XZ PROC	; Singleton<ioPullDownItemFactory>::Singleton<ioPullDownItemFactory>, COMDAT
; _this$ = ecx

; 27   : 	Singleton()

  00000	8b c1		 mov	 eax, ecx

; 28   : 	{
; 29   : 		assert( !ms_Singleton );
; 30   : 		int offset = (int)(T*)1 - (int)(Singleton <T>*)(T*)1;
; 31   : 		ms_Singleton = (T*)((int)this + offset);

  00002	8d 48 fc	 lea	 ecx, DWORD PTR [eax-4]
  00005	89 0d 00 00 00
	00		 mov	 DWORD PTR ?ms_Singleton@?$Singleton@VioPullDownItemFactory@@@@1PAVioPullDownItemFactory@@A, ecx ; Singleton<ioPullDownItemFactory>::ms_Singleton

; 32   : 	}

  0000b	c3		 ret	 0
??0?$Singleton@VioPullDownItemFactory@@@@QAE@XZ ENDP	; Singleton<ioPullDownItemFactory>::Singleton<ioPullDownItemFactory>
_TEXT	ENDS
PUBLIC	??1?$Singleton@VioPullDownItemFactory@@@@QAE@XZ	; Singleton<ioPullDownItemFactory>::~Singleton<ioPullDownItemFactory>
; Function compile flags: /Ogsp
;	COMDAT ??1?$Singleton@VioPullDownItemFactory@@@@QAE@XZ
_TEXT	SEGMENT
??1?$Singleton@VioPullDownItemFactory@@@@QAE@XZ PROC	; Singleton<ioPullDownItemFactory>::~Singleton<ioPullDownItemFactory>, COMDAT
; _this$ = ecx

; 36   : 		assert( ms_Singleton );
; 37   : 		ms_Singleton = 0;

  00000	83 25 00 00 00
	00 00		 and	 DWORD PTR ?ms_Singleton@?$Singleton@VioPullDownItemFactory@@@@1PAVioPullDownItemFactory@@A, 0 ; Singleton<ioPullDownItemFactory>::ms_Singleton

; 38   : 	}

  00007	c3		 ret	 0
??1?$Singleton@VioPullDownItemFactory@@@@QAE@XZ ENDP	; Singleton<ioPullDownItemFactory>::~Singleton<ioPullDownItemFactory>
_TEXT	ENDS
PUBLIC	?GetSingleton@?$Singleton@VioPullDownItemFactory@@@@SAAAVioPullDownItemFactory@@XZ ; Singleton<ioPullDownItemFactory>::GetSingleton
; Function compile flags: /Ogsp
;	COMDAT ?GetSingleton@?$Singleton@VioPullDownItemFactory@@@@SAAAVioPullDownItemFactory@@XZ
_TEXT	SEGMENT
?GetSingleton@?$Singleton@VioPullDownItemFactory@@@@SAAAVioPullDownItemFactory@@XZ PROC ; Singleton<ioPullDownItemFactory>::GetSingleton, COMDAT

; 42   : 		assert( ms_Singleton );
; 43   : 		return (*ms_Singleton);

  00000	a1 00 00 00 00	 mov	 eax, DWORD PTR ?ms_Singleton@?$Singleton@VioPullDownItemFactory@@@@1PAVioPullDownItemFactory@@A ; Singleton<ioPullDownItemFactory>::ms_Singleton

; 44   : 	}

  00005	c3		 ret	 0
?GetSingleton@?$Singleton@VioPullDownItemFactory@@@@SAAAVioPullDownItemFactory@@XZ ENDP ; Singleton<ioPullDownItemFactory>::GetSingleton
_TEXT	ENDS
PUBLIC	?GetSingleton@ioPullDownItemFactory@@SAAAV1@XZ	; ioPullDownItemFactory::GetSingleton
; Function compile flags: /Ogsp
; File d:\lost saga for developer\youtube\tutorial\source\src\lsclient\gui\iopulldownitemfactory.cpp
;	COMDAT ?GetSingleton@ioPullDownItemFactory@@SAAAV1@XZ
_TEXT	SEGMENT
?GetSingleton@ioPullDownItemFactory@@SAAAV1@XZ PROC	; ioPullDownItemFactory::GetSingleton, COMDAT

; 12   : 	return Singleton< ioPullDownItemFactory >::GetSingleton();

  00000	a1 00 00 00 00	 mov	 eax, DWORD PTR ?ms_Singleton@?$Singleton@VioPullDownItemFactory@@@@1PAVioPullDownItemFactory@@A ; Singleton<ioPullDownItemFactory>::ms_Singleton

; 13   : }

  00005	c3		 ret	 0
?GetSingleton@ioPullDownItemFactory@@SAAAV1@XZ ENDP	; ioPullDownItemFactory::GetSingleton
_TEXT	ENDS
PUBLIC	??_7ioPullDownItemFactory@@6B@			; ioPullDownItemFactory::`vftable'
PUBLIC	??0ioPullDownItemFactory@@QAE@XZ		; ioPullDownItemFactory::ioPullDownItemFactory
PUBLIC	??_R4ioPullDownItemFactory@@6B@			; ioPullDownItemFactory::`RTTI Complete Object Locator'
PUBLIC	??_R0?AVioPullDownItemFactory@@@8		; ioPullDownItemFactory `RTTI Type Descriptor'
PUBLIC	??_R3ioPullDownItemFactory@@8			; ioPullDownItemFactory::`RTTI Class Hierarchy Descriptor'
PUBLIC	??_R2ioPullDownItemFactory@@8			; ioPullDownItemFactory::`RTTI Base Class Array'
PUBLIC	??_R1A@?0A@EA@ioPullDownItemFactory@@8		; ioPullDownItemFactory::`RTTI Base Class Descriptor at (0,-1,0,64)'
PUBLIC	??_R13?0A@EA@?$Singleton@VioPullDownItemFactory@@@@8 ; Singleton<ioPullDownItemFactory>::`RTTI Base Class Descriptor at (4,-1,0,64)'
PUBLIC	??_R0?AV?$Singleton@VioPullDownItemFactory@@@@@8 ; Singleton<ioPullDownItemFactory> `RTTI Type Descriptor'
PUBLIC	??_R3?$Singleton@VioPullDownItemFactory@@@@8	; Singleton<ioPullDownItemFactory>::`RTTI Class Hierarchy Descriptor'
PUBLIC	??_R2?$Singleton@VioPullDownItemFactory@@@@8	; Singleton<ioPullDownItemFactory>::`RTTI Base Class Array'
PUBLIC	??_R1A@?0A@EA@?$Singleton@VioPullDownItemFactory@@@@8 ; Singleton<ioPullDownItemFactory>::`RTTI Base Class Descriptor at (0,-1,0,64)'
EXTRN	??_7type_info@@6B@:QWORD			; type_info::`vftable'
EXTRN	??_EioPullDownItemFactory@@UAEPAXI@Z:PROC	; ioPullDownItemFactory::`vector deleting destructor'
;	COMDAT ??_R1A@?0A@EA@?$Singleton@VioPullDownItemFactory@@@@8
; File d:\lost saga for developer\youtube\tutorial\source\src\io3dengine\iosingleton.h
rdata$r	SEGMENT
??_R1A@?0A@EA@?$Singleton@VioPullDownItemFactory@@@@8 DD FLAT:??_R0?AV?$Singleton@VioPullDownItemFactory@@@@@8 ; Singleton<ioPullDownItemFactory>::`RTTI Base Class Descriptor at (0,-1,0,64)'
	DD	00H
	DD	00H
	DD	0ffffffffH
	DD	00H
	DD	040H
	DD	FLAT:??_R3?$Singleton@VioPullDownItemFactory@@@@8
rdata$r	ENDS
;	COMDAT ??_R2?$Singleton@VioPullDownItemFactory@@@@8
rdata$r	SEGMENT
??_R2?$Singleton@VioPullDownItemFactory@@@@8 DD FLAT:??_R1A@?0A@EA@?$Singleton@VioPullDownItemFactory@@@@8 ; Singleton<ioPullDownItemFactory>::`RTTI Base Class Array'
rdata$r	ENDS
;	COMDAT ??_R3?$Singleton@VioPullDownItemFactory@@@@8
rdata$r	SEGMENT
??_R3?$Singleton@VioPullDownItemFactory@@@@8 DD 00H	; Singleton<ioPullDownItemFactory>::`RTTI Class Hierarchy Descriptor'
	DD	00H
	DD	01H
	DD	FLAT:??_R2?$Singleton@VioPullDownItemFactory@@@@8
rdata$r	ENDS
;	COMDAT ??_R0?AV?$Singleton@VioPullDownItemFactory@@@@@8
_DATA	SEGMENT
??_R0?AV?$Singleton@VioPullDownItemFactory@@@@@8 DD FLAT:??_7type_info@@6B@ ; Singleton<ioPullDownItemFactory> `RTTI Type Descriptor'
	DD	00H
	DB	'.?AV?$Singleton@VioPullDownItemFactory@@@@', 00H
_DATA	ENDS
;	COMDAT ??_R13?0A@EA@?$Singleton@VioPullDownItemFactory@@@@8
rdata$r	SEGMENT
??_R13?0A@EA@?$Singleton@VioPullDownItemFactory@@@@8 DD FLAT:??_R0?AV?$Singleton@VioPullDownItemFactory@@@@@8 ; Singleton<ioPullDownItemFactory>::`RTTI Base Class Descriptor at (4,-1,0,64)'
	DD	00H
	DD	04H
	DD	0ffffffffH
	DD	00H
	DD	040H
	DD	FLAT:??_R3?$Singleton@VioPullDownItemFactory@@@@8
rdata$r	ENDS
;	COMDAT ??_R1A@?0A@EA@ioPullDownItemFactory@@8
rdata$r	SEGMENT
??_R1A@?0A@EA@ioPullDownItemFactory@@8 DD FLAT:??_R0?AVioPullDownItemFactory@@@8 ; ioPullDownItemFactory::`RTTI Base Class Descriptor at (0,-1,0,64)'
	DD	01H
	DD	00H
	DD	0ffffffffH
	DD	00H
	DD	040H
	DD	FLAT:??_R3ioPullDownItemFactory@@8
rdata$r	ENDS
;	COMDAT ??_R2ioPullDownItemFactory@@8
rdata$r	SEGMENT
??_R2ioPullDownItemFactory@@8 DD FLAT:??_R1A@?0A@EA@ioPullDownItemFactory@@8 ; ioPullDownItemFactory::`RTTI Base Class Array'
	DD	FLAT:??_R13?0A@EA@?$Singleton@VioPullDownItemFactory@@@@8
rdata$r	ENDS
;	COMDAT ??_R3ioPullDownItemFactory@@8
rdata$r	SEGMENT
??_R3ioPullDownItemFactory@@8 DD 00H			; ioPullDownItemFactory::`RTTI Class Hierarchy Descriptor'
	DD	00H
	DD	02H
	DD	FLAT:??_R2ioPullDownItemFactory@@8
rdata$r	ENDS
;	COMDAT ??_R0?AVioPullDownItemFactory@@@8
_DATA	SEGMENT
??_R0?AVioPullDownItemFactory@@@8 DD FLAT:??_7type_info@@6B@ ; ioPullDownItemFactory `RTTI Type Descriptor'
	DD	00H
	DB	'.?AVioPullDownItemFactory@@', 00H
_DATA	ENDS
;	COMDAT ??_R4ioPullDownItemFactory@@6B@
rdata$r	SEGMENT
??_R4ioPullDownItemFactory@@6B@ DD 00H			; ioPullDownItemFactory::`RTTI Complete Object Locator'
	DD	00H
	DD	00H
	DD	FLAT:??_R0?AVioPullDownItemFactory@@@8
	DD	FLAT:??_R3ioPullDownItemFactory@@8
rdata$r	ENDS
;	COMDAT ??_7ioPullDownItemFactory@@6B@
CONST	SEGMENT
??_7ioPullDownItemFactory@@6B@ DD FLAT:??_R4ioPullDownItemFactory@@6B@ ; ioPullDownItemFactory::`vftable'
	DD	FLAT:??_EioPullDownItemFactory@@UAEPAXI@Z
; Function compile flags: /Ogsp
; File d:\lost saga for developer\youtube\tutorial\source\src\lsclient\gui\iopulldownitemfactory.cpp
CONST	ENDS
;	COMDAT ??0ioPullDownItemFactory@@QAE@XZ
_TEXT	SEGMENT
??0ioPullDownItemFactory@@QAE@XZ PROC			; ioPullDownItemFactory::ioPullDownItemFactory, COMDAT
; _this$ = ecx

; 16   : {

  00000	8b c1		 mov	 eax, ecx
  00002	a3 00 00 00 00	 mov	 DWORD PTR ?ms_Singleton@?$Singleton@VioPullDownItemFactory@@@@1PAVioPullDownItemFactory@@A, eax ; Singleton<ioPullDownItemFactory>::ms_Singleton
  00007	c7 00 00 00 00
	00		 mov	 DWORD PTR [eax], OFFSET ??_7ioPullDownItemFactory@@6B@

; 17   : }

  0000d	c3		 ret	 0
??0ioPullDownItemFactory@@QAE@XZ ENDP			; ioPullDownItemFactory::ioPullDownItemFactory
_TEXT	ENDS
PUBLIC	??1ioPullDownItemFactory@@UAE@XZ		; ioPullDownItemFactory::~ioPullDownItemFactory
; Function compile flags: /Ogsp
;	COMDAT ??1ioPullDownItemFactory@@UAE@XZ
_TEXT	SEGMENT
??1ioPullDownItemFactory@@UAE@XZ PROC			; ioPullDownItemFactory::~ioPullDownItemFactory, COMDAT
; _this$ = ecx

; 20   : {

  00000	c7 01 00 00 00
	00		 mov	 DWORD PTR [ecx], OFFSET ??_7ioPullDownItemFactory@@6B@

; 21   : }

  00006	83 25 00 00 00
	00 00		 and	 DWORD PTR ?ms_Singleton@?$Singleton@VioPullDownItemFactory@@@@1PAVioPullDownItemFactory@@A, 0 ; Singleton<ioPullDownItemFactory>::ms_Singleton
  0000d	c3		 ret	 0
??1ioPullDownItemFactory@@UAE@XZ ENDP			; ioPullDownItemFactory::~ioPullDownItemFactory
_TEXT	ENDS
PUBLIC	?PullDownItemLayout@ioPullDownItemFactory@@QAEHPAVioPullDownList@@PAVioPullDownItem@@W4PullDownStyle@@HHHH@Z ; ioPullDownItemFactory::PullDownItemLayout
EXTRN	?GetScrollBarCutWidth@ioPullDownList@@QAEHXZ:PROC ; ioPullDownList::GetScrollBarCutWidth
EXTRN	__imp_?GetWidth@ioWnd@@QBEHXZ:PROC
EXTRN	?AddImage@ioPullDownItem@@QAEXAAV?$vector@UPullDownInnerImage@@V?$allocator@UPullDownInnerImage@@@std@@@std@@@Z:PROC ; ioPullDownItem::AddImage
EXTRN	?SetBlank@ioPullDownItem@@QAEXHH@Z:PROC		; ioPullDownItem::SetBlank
; Function compile flags: /Ogsp
;	COMDAT ?PullDownItemLayout@ioPullDownItemFactory@@QAEHPAVioPullDownList@@PAVioPullDownItem@@W4PullDownStyle@@HHHH@Z
_TEXT	SEGMENT
_pList$ = 8						; size = 4
_pPullDown$ = 12					; size = 4
_eStyle$ = 16						; size = 4
_iCurrXPos$ = 20					; size = 4
_iCurrYPos$ = 24					; size = 4
_BlankWidth$ = 28					; size = 4
tv184 = 32						; size = 4
_iBlankHeight$ = 32					; size = 4
?PullDownItemLayout@ioPullDownItemFactory@@QAEHPAVioPullDownList@@PAVioPullDownItem@@W4PullDownStyle@@HHHH@Z PROC ; ioPullDownItemFactory::PullDownItemLayout, COMDAT
; _this$ = ecx

; 98   : {

  00000	55		 push	 ebp
  00001	8b ec		 mov	 ebp, esp
  00003	53		 push	 ebx
  00004	56		 push	 esi
  00005	57		 push	 edi

; 99   : 	//좌/우/상/하단의 빈 공간 영역 지정	
; 100  : 	pPullDown->SetBlank( BlankWidth, iBlankHeight );

  00006	ff 75 20	 push	 DWORD PTR _iBlankHeight$[ebp]
  00009	8b 7d 0c	 mov	 edi, DWORD PTR _pPullDown$[ebp]
  0000c	ff 75 1c	 push	 DWORD PTR _BlankWidth$[ebp]
  0000f	8b d9		 mov	 ebx, ecx
  00011	8b cf		 mov	 ecx, edi
  00013	e8 00 00 00 00	 call	 ?SetBlank@ioPullDownItem@@QAEXHH@Z ; ioPullDownItem::SetBlank

; 101  : 
; 102  : 	//풀다운 오버/라인 이미지 지정
; 103  : 	pPullDown->m_pOverLine		= pList->m_pOverLine;

  00018	8b 75 08	 mov	 esi, DWORD PTR _pList$[ebp]
  0001b	8b 86 6c 01 00
	00		 mov	 eax, DWORD PTR [esi+364]
  00021	89 47 28	 mov	 DWORD PTR [edi+40], eax

; 104  : 	pPullDown->m_pDarkLine		= pList->m_pDarkLine;

  00024	8b 86 64 01 00
	00		 mov	 eax, DWORD PTR [esi+356]
  0002a	89 47 2c	 mov	 DWORD PTR [edi+44], eax

; 105  : 	pPullDown->m_pLightLine		= pList->m_pLightLine;

  0002d	8b 86 68 01 00
	00		 mov	 eax, DWORD PTR [esi+360]
  00033	89 47 30	 mov	 DWORD PTR [edi+48], eax

; 106  : 
; 107  : 	//풀다운 이미지 등록
; 108  : 	pPullDown->AddImage( pList->m_vImageList );

  00036	8d 86 a4 01 00
	00		 lea	 eax, DWORD PTR [esi+420]
  0003c	50		 push	 eax
  0003d	8b cf		 mov	 ecx, edi
  0003f	e8 00 00 00 00	 call	 ?AddImage@ioPullDownItem@@QAEXAAV?$vector@UPullDownInnerImage@@V?$allocator@UPullDownInnerImage@@@std@@@std@@@Z ; ioPullDownItem::AddImage

; 109  : 
; 110  : 	//풀다운 크기 지정
; 111  : 	int iHeight = 0;
; 112  : 	if( 0 < pPullDown->m_iHeight )

  00044	8b 47 0c	 mov	 eax, DWORD PTR [edi+12]
  00047	85 c0		 test	 eax, eax

; 113  : 		iHeight = pPullDown->m_iHeight;	//코드상이나 부모 윈도우에서 풀다운 아이템의 높이를 결정한 경우
; 114  : 	else

  00049	7f 06		 jg	 SHORT $LN1@PullDownIt

; 115  : 		iHeight = pList->m_iListHeight;	//XML을 통해서 풀다운 아이템의 높이를 결정한 경우

  0004b	8b 86 7c 01 00
	00		 mov	 eax, DWORD PTR [esi+380]
$LN1@PullDownIt:

; 116  : 
; 117  : 	//풀다운 아이템 레이아웃 설정
; 118  : 	return SetSelectLayout( pPullDown, eStyle, iCurrXPos, iCurrYPos, pList->GetWidth() - pList->GetScrollBarCutWidth(), iHeight );

  00051	50		 push	 eax
  00052	8b ce		 mov	 ecx, esi
  00054	ff 15 00 00 00
	00		 call	 DWORD PTR __imp_?GetWidth@ioWnd@@QBEHXZ
  0005a	8b ce		 mov	 ecx, esi
  0005c	89 45 20	 mov	 DWORD PTR tv184[ebp], eax
  0005f	e8 00 00 00 00	 call	 ?GetScrollBarCutWidth@ioPullDownList@@QAEHXZ ; ioPullDownList::GetScrollBarCutWidth
  00064	8b 4d 20	 mov	 ecx, DWORD PTR tv184[ebp]
  00067	2b c8		 sub	 ecx, eax
  00069	51		 push	 ecx
  0006a	ff 75 18	 push	 DWORD PTR _iCurrYPos$[ebp]
  0006d	8b cb		 mov	 ecx, ebx
  0006f	ff 75 14	 push	 DWORD PTR _iCurrXPos$[ebp]
  00072	ff 75 10	 push	 DWORD PTR _eStyle$[ebp]
  00075	57		 push	 edi
  00076	e8 00 00 00 00	 call	 ?SetSelectLayout@ioPullDownItemFactory@@QAEHPAVioPullDownItem@@W4PullDownStyle@@HHHH@Z ; ioPullDownItemFactory::SetSelectLayout
  0007b	5f		 pop	 edi
  0007c	5e		 pop	 esi
  0007d	5b		 pop	 ebx

; 119  : }

  0007e	5d		 pop	 ebp
  0007f	c2 1c 00	 ret	 28			; 0000001cH
?PullDownItemLayout@ioPullDownItemFactory@@QAEHPAVioPullDownList@@PAVioPullDownItem@@W4PullDownStyle@@HHHH@Z ENDP ; ioPullDownItemFactory::PullDownItemLayout
_TEXT	ENDS
EXTRN	??3@YAXPAX@Z:PROC				; operator delete
; Function compile flags: /Ogsp
;	COMDAT ??_GioPullDownItemFactory@@UAEPAXI@Z
_TEXT	SEGMENT
___flags$ = 8						; size = 4
??_GioPullDownItemFactory@@UAEPAXI@Z PROC		; ioPullDownItemFactory::`scalar deleting destructor', COMDAT
; _this$ = ecx
  00000	55		 push	 ebp
  00001	8b ec		 mov	 ebp, esp
  00003	56		 push	 esi
  00004	8b f1		 mov	 esi, ecx
  00006	c7 06 00 00 00
	00		 mov	 DWORD PTR [esi], OFFSET ??_7ioPullDownItemFactory@@6B@
  0000c	83 25 00 00 00
	00 00		 and	 DWORD PTR ?ms_Singleton@?$Singleton@VioPullDownItemFactory@@@@1PAVioPullDownItemFactory@@A, 0 ; Singleton<ioPullDownItemFactory>::ms_Singleton
  00013	f6 45 08 01	 test	 BYTE PTR ___flags$[ebp], 1
  00017	74 07		 je	 SHORT $LN1@scalar
  00019	56		 push	 esi
  0001a	e8 00 00 00 00	 call	 ??3@YAXPAX@Z		; operator delete
  0001f	59		 pop	 ecx
$LN1@scalar:
  00020	8b c6		 mov	 eax, esi
  00022	5e		 pop	 esi
  00023	5d		 pop	 ebp
  00024	c2 04 00	 ret	 4
??_GioPullDownItemFactory@@UAEPAXI@Z ENDP		; ioPullDownItemFactory::`scalar deleting destructor'
_TEXT	ENDS
PUBLIC	??_C@_0BF@LMBPDJHD@?$CFs?5?9?5pList?5?$DN?$DN?5NULL?$CB?$CB?$AA@ ; `string'
PUBLIC	??_C@_0BO@IKFPIFOE@ioPullDownItemFactory?3?3Layout?$AA@ ; `string'
PUBLIC	?Layout@ioPullDownItemFactory@@QAEXPAVioPullDownList@@W4PullDownStyle@@@Z ; ioPullDownItemFactory::Layout
EXTRN	__imp_?SetWndPos@ioWnd@@QAEXHH@Z:PROC
EXTRN	?GetPullDown@ioPullDownList@@QBEPAVioPullDownItem@@H@Z:PROC ; ioPullDownList::GetPullDown
EXTRN	?GetPullDownCount@ioPullDownList@@QBEHXZ:PROC	; ioPullDownList::GetPullDownCount
EXTRN	__imp_?GetDerivedPosY@ioWnd@@QBEHXZ:PROC
EXTRN	__imp_?GetDerivedPosX@ioWnd@@QBEHXZ:PROC
EXTRN	__imp_?GetParent@ioWnd@@QAEPAV1@XZ:PROC
;	COMDAT ??_C@_0BF@LMBPDJHD@?$CFs?5?9?5pList?5?$DN?$DN?5NULL?$CB?$CB?$AA@
; File d:\lost saga for developer\youtube\tutorial\source\src\io3dengine\iownd.h
CONST	SEGMENT
??_C@_0BF@LMBPDJHD@?$CFs?5?9?5pList?5?$DN?$DN?5NULL?$CB?$CB?$AA@ DB '%s -'
	DB	' pList == NULL!!', 00H			; `string'
CONST	ENDS
;	COMDAT ??_C@_0BO@IKFPIFOE@ioPullDownItemFactory?3?3Layout?$AA@
CONST	SEGMENT
??_C@_0BO@IKFPIFOE@ioPullDownItemFactory?3?3Layout?$AA@ DB 'ioPullDownIte'
	DB	'mFactory::Layout', 00H			; `string'
; Function compile flags: /Ogsp
; File d:\lost saga for developer\youtube\tutorial\source\src\lsclient\gui\iopulldownitemfactory.cpp
CONST	ENDS
;	COMDAT ?Layout@ioPullDownItemFactory@@QAEXPAVioPullDownList@@W4PullDownStyle@@@Z
_TEXT	SEGMENT
_iParentY$ = -8						; size = 4
_this$ = -4						; size = 4
_i$506059 = 8						; size = 4
_i$506049 = 8						; size = 4
_pList$ = 8						; size = 4
tv334 = 12						; size = 4
_iPos$506061 = 12					; size = 4
_iPos$506050 = 12					; size = 4
_eStyle$ = 12						; size = 4
?Layout@ioPullDownItemFactory@@QAEXPAVioPullDownList@@W4PullDownStyle@@@Z PROC ; ioPullDownItemFactory::Layout, COMDAT
; _this$ = ecx

; 24   : {

  00000	55		 push	 ebp
  00001	8b ec		 mov	 ebp, esp
  00003	51		 push	 ecx
  00004	51		 push	 ecx
  00005	56		 push	 esi

; 25   : 	if( !pList )

  00006	8b 75 08	 mov	 esi, DWORD PTR _pList$[ebp]
  00009	57		 push	 edi
  0000a	33 ff		 xor	 edi, edi
  0000c	89 4d fc	 mov	 DWORD PTR _this$[ebp], ecx
  0000f	3b f7		 cmp	 esi, edi
  00011	75 1f		 jne	 SHORT $LN19@Layout

; 26   : 	{
; 27   : 		LOG.PrintTimeAndLog( 0, "%s - pList == NULL!!", __FUNCTION__ );

  00013	68 00 00 00 00	 push	 OFFSET ??_C@_0BO@IKFPIFOE@ioPullDownItemFactory?3?3Layout?$AA@
  00018	68 00 00 00 00	 push	 OFFSET ??_C@_0BF@LMBPDJHD@?$CFs?5?9?5pList?5?$DN?$DN?5NULL?$CB?$CB?$AA@
  0001d	57		 push	 edi
  0001e	ff 35 00 00 00
	00		 push	 DWORD PTR __imp_?LOG@@3VCLog@@A
  00024	ff 15 00 00 00
	00		 call	 DWORD PTR __imp_?PrintTimeAndLog@CLog@@QAAXHPADZZ
  0002a	83 c4 10	 add	 esp, 16			; 00000010H

; 28   : 		return;

  0002d	e9 ba 01 00 00	 jmp	 $LN16@Layout
$LN19@Layout:

; 29   : 	}
; 30   : 		
; 31   : 	int iParentX	= 0;
; 32   : 	int iParentY	= 0;
; 33   : 
; 34   : 	if( pList->GetParent() )

  00032	8b ce		 mov	 ecx, esi
  00034	89 7d f8	 mov	 DWORD PTR _iParentY$[ebp], edi
  00037	ff 15 00 00 00
	00		 call	 DWORD PTR __imp_?GetParent@ioWnd@@QAEPAV1@XZ
  0003d	85 c0		 test	 eax, eax
  0003f	74 25		 je	 SHORT $LN18@Layout

; 35   : 	{
; 36   : 		iParentX = pList->GetParent()->GetDerivedPosX();

  00041	8b ce		 mov	 ecx, esi
  00043	ff 15 00 00 00
	00		 call	 DWORD PTR __imp_?GetParent@ioWnd@@QAEPAV1@XZ
  00049	8b c8		 mov	 ecx, eax
  0004b	ff 15 00 00 00
	00		 call	 DWORD PTR __imp_?GetDerivedPosX@ioWnd@@QBEHXZ

; 37   : 		iParentY = pList->GetParent()->GetDerivedPosY();

  00051	8b ce		 mov	 ecx, esi
  00053	8b f8		 mov	 edi, eax
  00055	ff 15 00 00 00
	00		 call	 DWORD PTR __imp_?GetParent@ioWnd@@QAEPAV1@XZ
  0005b	8b c8		 mov	 ecx, eax
  0005d	ff 15 00 00 00
	00		 call	 DWORD PTR __imp_?GetDerivedPosY@ioWnd@@QBEHXZ
  00063	89 45 f8	 mov	 DWORD PTR _iParentY$[ebp], eax
$LN18@Layout:

; 38   : 	}
; 39   : 
; 40   : 	int iCurrXPos = iParentX + pList->GetDefaultPosX();
; 41   : 	int iCurrYPos = iParentY + pList->GetDefaultPosY();
; 42   : 	
; 43   : 	switch( eStyle )

  00066	8b 45 0c	 mov	 eax, DWORD PTR _eStyle$[ebp]
  00069	53		 push	 ebx
  0006a	8b 9e c0 00 00
	00		 mov	 ebx, DWORD PTR [esi+192]
  00070	03 df		 add	 ebx, edi
  00072	8b be c4 00 00
	00		 mov	 edi, DWORD PTR [esi+196]
  00078	03 7d f8	 add	 edi, DWORD PTR _iParentY$[ebp]
  0007b	33 c9		 xor	 ecx, ecx
  0007d	2b c1		 sub	 eax, ecx
  0007f	0f 84 e1 00 00
	00		 je	 $LN15@Layout
  00085	48		 dec	 eax
  00086	74 22		 je	 SHORT $LN8@Layout

; 89   : 	default:
; 90   : 		{
; 91   : 			LOG.PrintTimeAndLog(0, "%s - Unkown style : %d", __FUNCTION__, static_cast<int>( eStyle ) );

  00088	ff 75 0c	 push	 DWORD PTR _eStyle$[ebp]
  0008b	68 00 00 00 00	 push	 OFFSET ??_C@_0BO@IKFPIFOE@ioPullDownItemFactory?3?3Layout?$AA@
  00090	68 00 00 00 00	 push	 OFFSET ??_C@_0BH@GGCFILHE@?$CFs?5?9?5Unkown?5style?5?3?5?$CFd?$AA@
  00095	51		 push	 ecx
  00096	ff 35 00 00 00
	00		 push	 DWORD PTR __imp_?LOG@@3VCLog@@A
  0009c	ff 15 00 00 00
	00		 call	 DWORD PTR __imp_?PrintTimeAndLog@CLog@@QAAXHPADZZ
  000a2	83 c4 14	 add	 esp, 20			; 00000014H

; 92   : 		}
; 93   : 		break;

  000a5	e9 41 01 00 00	 jmp	 $LN40@Layout
$LN8@Layout:

; 63   : 		}
; 64   : 		break;
; 65   : 	case PDS_UP:
; 66   : 		{			
; 67   : 			//풀다운아이템 레이아웃
; 68   : 			int i		= 0;
; 69   : 			int iMax	= min( pList->m_iMaxPageList-1, pList->GetPullDownCount()-1 );

  000aa	8b 86 80 01 00
	00		 mov	 eax, DWORD PTR [esi+384]
  000b0	89 4d 08	 mov	 DWORD PTR _i$506059[ebp], ecx
  000b3	48		 dec	 eax
  000b4	8b ce		 mov	 ecx, esi
  000b6	89 45 0c	 mov	 DWORD PTR tv334[ebp], eax
  000b9	e8 00 00 00 00	 call	 ?GetPullDownCount@ioPullDownList@@QBEHXZ ; ioPullDownList::GetPullDownCount
  000be	8d 48 ff	 lea	 ecx, DWORD PTR [eax-1]
  000c1	8b 45 0c	 mov	 eax, DWORD PTR tv334[ebp]
  000c4	3b c1		 cmp	 eax, ecx
  000c6	7c 08		 jl	 SHORT $LN23@Layout
  000c8	8b ce		 mov	 ecx, esi
  000ca	e8 00 00 00 00	 call	 ?GetPullDownCount@ioPullDownList@@QBEHXZ ; ioPullDownList::GetPullDownCount
  000cf	48		 dec	 eax
$LN23@Layout:

; 70   : 
; 71   : 			for( int iPos = pList->m_iCurPos + iMax; iPos >= pList->m_iCurPos; --iPos, ++i )

  000d0	8b 8e 88 01 00
	00		 mov	 ecx, DWORD PTR [esi+392]
  000d6	03 c1		 add	 eax, ecx
  000d8	89 45 0c	 mov	 DWORD PTR _iPos$506061[ebp], eax
  000db	3b c1		 cmp	 eax, ecx
  000dd	7c 45		 jl	 SHORT $LN5@Layout
$LL38@Layout:

; 72   : 			{
; 73   : 				ioPullDownItem* pPullDown = pList->GetPullDown( iPos );

  000df	ff 75 0c	 push	 DWORD PTR _iPos$506061[ebp]
  000e2	8b ce		 mov	 ecx, esi
  000e4	e8 00 00 00 00	 call	 ?GetPullDown@ioPullDownList@@QBEPAVioPullDownItem@@H@Z ; ioPullDownList::GetPullDown

; 74   : 				if( !pPullDown )

  000e9	85 c0		 test	 eax, eax
  000eb	74 26		 je	 SHORT $LN6@Layout

; 75   : 					continue;
; 76   : 
; 77   : 				if( i == 0 )

  000ed	83 7d 08 00	 cmp	 DWORD PTR _i$506059[ebp], 0

; 78   : 					iCurrYPos = PullDownItemLayout( pList, pPullDown, eStyle, iCurrXPos, iCurrYPos, pList->m_iBlankWidth, pList->m_iBlankHeight );

  000f1	8b 4d fc	 mov	 ecx, DWORD PTR _this$[ebp]
  000f4	75 08		 jne	 SHORT $LN3@Layout
  000f6	ff b6 78 01 00
	00		 push	 DWORD PTR [esi+376]

; 79   : 				else

  000fc	eb 02		 jmp	 SHORT $LN41@Layout
$LN3@Layout:

; 80   : 					iCurrYPos = PullDownItemLayout( pList, pPullDown, eStyle, iCurrXPos, iCurrYPos, pList->m_iBlankWidth, 0 );

  000fe	6a 00		 push	 0
$LN41@Layout:
  00100	ff b6 74 01 00
	00		 push	 DWORD PTR [esi+372]
  00106	57		 push	 edi
  00107	53		 push	 ebx
  00108	6a 01		 push	 1
  0010a	50		 push	 eax
  0010b	56		 push	 esi
  0010c	e8 00 00 00 00	 call	 ?PullDownItemLayout@ioPullDownItemFactory@@QAEHPAVioPullDownList@@PAVioPullDownItem@@W4PullDownStyle@@HHHH@Z ; ioPullDownItemFactory::PullDownItemLayout
  00111	8b f8		 mov	 edi, eax
$LN6@Layout:

; 70   : 
; 71   : 			for( int iPos = pList->m_iCurPos + iMax; iPos >= pList->m_iCurPos; --iPos, ++i )

  00113	ff 4d 0c	 dec	 DWORD PTR _iPos$506061[ebp]
  00116	8b 45 0c	 mov	 eax, DWORD PTR _iPos$506061[ebp]
  00119	ff 45 08	 inc	 DWORD PTR _i$506059[ebp]
  0011c	3b 86 88 01 00
	00		 cmp	 eax, DWORD PTR [esi+392]
  00122	7d bb		 jge	 SHORT $LL38@Layout
$LN5@Layout:

; 81   : 			}
; 82   : 
; 83   : 			//풀다운 위치/크기 지정
; 84   : 			int iHeight = iParentY + pList->GetDefaultPosY() - iCurrYPos;

  00124	8b 86 c4 00 00
	00		 mov	 eax, DWORD PTR [esi+196]
  0012a	8b d8		 mov	 ebx, eax
  0012c	2b df		 sub	 ebx, edi
  0012e	03 5d f8	 add	 ebx, DWORD PTR _iParentY$[ebp]

; 85   : 			pList->SetWndPos( pList->GetDefaultPosX(), pList->GetDefaultPosY() - pList->m_iBlankHeight - iHeight );

  00131	8b ce		 mov	 ecx, esi
  00133	2b c3		 sub	 eax, ebx
  00135	2b 86 78 01 00
	00		 sub	 eax, DWORD PTR [esi+376]
  0013b	50		 push	 eax
  0013c	ff b6 c0 00 00
	00		 push	 DWORD PTR [esi+192]
  00142	ff 15 00 00 00
	00		 call	 DWORD PTR __imp_?SetWndPos@ioWnd@@QAEXHH@Z

; 86   : 			pList->SetSize( pList->GetWidth(), iHeight + pList->m_iBlankHeight );

  00148	8b 86 78 01 00
	00		 mov	 eax, DWORD PTR [esi+376]
  0014e	8b 3e		 mov	 edi, DWORD PTR [esi]
  00150	03 c3		 add	 eax, ebx
  00152	50		 push	 eax
  00153	8b ce		 mov	 ecx, esi
  00155	ff 15 00 00 00
	00		 call	 DWORD PTR __imp_?GetWidth@ioWnd@@QBEHXZ
  0015b	50		 push	 eax
  0015c	8b ce		 mov	 ecx, esi
  0015e	ff 57 2c	 call	 DWORD PTR [edi+44]

; 87   : 		}
; 88   : 		break;

  00161	e9 85 00 00 00	 jmp	 $LN40@Layout
$LN15@Layout:

; 44   : 	{
; 45   : 	case PDS_DOWN:
; 46   : 		{			
; 47   : 			//풀다운아이템 레이아웃
; 48   : 			int i = 0;
; 49   : 			for( int iPos = pList->m_iCurPos; iPos < pList->m_iCurPos + pList->m_iMaxPageList; ++iPos, ++i )

  00166	8b 86 88 01 00
	00		 mov	 eax, DWORD PTR [esi+392]
  0016c	89 4d 08	 mov	 DWORD PTR _i$506049[ebp], ecx
  0016f	8b 8e 80 01 00
	00		 mov	 ecx, DWORD PTR [esi+384]
  00175	03 c8		 add	 ecx, eax
  00177	89 45 0c	 mov	 DWORD PTR _iPos$506050[ebp], eax
  0017a	3b c1		 cmp	 eax, ecx
  0017c	7d 4a		 jge	 SHORT $LN12@Layout
$LL39@Layout:

; 50   : 			{
; 51   : 				ioPullDownItem* pPullDown = pList->GetPullDown( iPos );

  0017e	ff 75 0c	 push	 DWORD PTR _iPos$506050[ebp]
  00181	8b ce		 mov	 ecx, esi
  00183	e8 00 00 00 00	 call	 ?GetPullDown@ioPullDownList@@QBEPAVioPullDownItem@@H@Z ; ioPullDownList::GetPullDown

; 52   : 				if( !pPullDown )

  00188	33 c9		 xor	 ecx, ecx
  0018a	3b c1		 cmp	 eax, ecx
  0018c	74 23		 je	 SHORT $LN13@Layout

; 53   : 					continue;
; 54   : 
; 55   : 				if( i == 0 )

  0018e	39 4d 08	 cmp	 DWORD PTR _i$506049[ebp], ecx
  00191	75 08		 jne	 SHORT $LN10@Layout

; 56   : 					iCurrYPos = PullDownItemLayout( pList, pPullDown, eStyle, iCurrXPos, iCurrYPos, pList->m_iBlankWidth, pList->m_iBlankHeight );

  00193	ff b6 78 01 00
	00		 push	 DWORD PTR [esi+376]

; 57   : 				else

  00199	eb 01		 jmp	 SHORT $LN42@Layout
$LN10@Layout:

; 58   : 					iCurrYPos = PullDownItemLayout( pList, pPullDown, eStyle, iCurrXPos, iCurrYPos, pList->m_iBlankWidth, 0 );

  0019b	51		 push	 ecx
$LN42@Layout:
  0019c	ff b6 74 01 00
	00		 push	 DWORD PTR [esi+372]
  001a2	57		 push	 edi
  001a3	53		 push	 ebx
  001a4	51		 push	 ecx
  001a5	8b 4d fc	 mov	 ecx, DWORD PTR _this$[ebp]
  001a8	50		 push	 eax
  001a9	56		 push	 esi
  001aa	e8 00 00 00 00	 call	 ?PullDownItemLayout@ioPullDownItemFactory@@QAEHPAVioPullDownList@@PAVioPullDownItem@@W4PullDownStyle@@HHHH@Z ; ioPullDownItemFactory::PullDownItemLayout
  001af	8b f8		 mov	 edi, eax
$LN13@Layout:

; 44   : 	{
; 45   : 	case PDS_DOWN:
; 46   : 		{			
; 47   : 			//풀다운아이템 레이아웃
; 48   : 			int i = 0;
; 49   : 			for( int iPos = pList->m_iCurPos; iPos < pList->m_iCurPos + pList->m_iMaxPageList; ++iPos, ++i )

  001b1	8b 86 80 01 00
	00		 mov	 eax, DWORD PTR [esi+384]
  001b7	ff 45 0c	 inc	 DWORD PTR _iPos$506050[ebp]
  001ba	03 86 88 01 00
	00		 add	 eax, DWORD PTR [esi+392]
  001c0	ff 45 08	 inc	 DWORD PTR _i$506049[ebp]
  001c3	39 45 0c	 cmp	 DWORD PTR _iPos$506050[ebp], eax
  001c6	7c b6		 jl	 SHORT $LL39@Layout
$LN12@Layout:

; 59   : 			}
; 60   : 
; 61   : 			//풀다운 위치/크기 지정
; 62   : 			pList->SetSize( pList->GetWidth(), iCurrYPos + pList->m_iBlankHeight - pList->GetDerivedPosY() );

  001c8	8b 1e		 mov	 ebx, DWORD PTR [esi]
  001ca	8b ce		 mov	 ecx, esi
  001cc	ff 15 00 00 00
	00		 call	 DWORD PTR __imp_?GetDerivedPosY@ioWnd@@QBEHXZ
  001d2	8b 8e 78 01 00
	00		 mov	 ecx, DWORD PTR [esi+376]
  001d8	03 cf		 add	 ecx, edi
  001da	2b c8		 sub	 ecx, eax
  001dc	51		 push	 ecx
  001dd	8b ce		 mov	 ecx, esi
  001df	ff 15 00 00 00
	00		 call	 DWORD PTR __imp_?GetWidth@ioWnd@@QBEHXZ
  001e5	50		 push	 eax
  001e6	8b ce		 mov	 ecx, esi
  001e8	ff 53 2c	 call	 DWORD PTR [ebx+44]
$LN40@Layout:
  001eb	5b		 pop	 ebx
$LN16@Layout:
  001ec	5f		 pop	 edi
  001ed	5e		 pop	 esi

; 94   : 	}
; 95   : }

  001ee	c9		 leave
  001ef	c2 08 00	 ret	 8
?Layout@ioPullDownItemFactory@@QAEXPAVioPullDownList@@W4PullDownStyle@@@Z ENDP ; ioPullDownItemFactory::Layout
_TEXT	ENDS
END
